; Listing generated by Microsoft (R) Optimizing Compiler Version 19.16.27032.1 

	TITLE	G:\网狐\HappyGameWH\服务端\系统模块\公共组件\进程控制\ProcessControlDLL.cpp
	.686P
	.XMM
	include listing.inc
	.model	flat

INCLUDELIB MSVCRTD
INCLUDELIB OLDNAMES

PUBLIC	_ExtRawDllMain@12
PUBLIC	__afxForceEXTDLL
PUBLIC	__pRawDllMain
_BSS	SEGMENT
__afxForceEXTDLL DD 01H DUP (?)
_BSS	ENDS
CONST	SEGMENT
__pRawDllMain DD FLAT:_ExtRawDllMain@12
?IID_IProcessControl@@3U_GUID@@B DD 071733503H		; IID_IProcessControl
	DW	09d41H
	DW	0429eH
	DB	08aH
	DB	0f0H
	DB	078H
	DB	040H
	DB	061H
	DB	086H
	DB	01H
	DB	0beH
CONST	ENDS
PUBLIC	??_H@YGXPAXIIP6EPAX0@Z@Z			; `vector constructor iterator'
PUBLIC	?__empty_global_delete@@YAXPAX@Z		; __empty_global_delete
PUBLIC	?__empty_global_delete@@YAXPAXI@Z		; __empty_global_delete
PUBLIC	_wmemcpy
PUBLIC	?GetHead@CSimpleList@@QBEPAXXZ			; CSimpleList::GetHead
PUBLIC	??B?$CTypedSimpleList@PAUCRuntimeClass@@@@QAEPAUCRuntimeClass@@XZ ; CTypedSimpleList<CRuntimeClass *>::operator CRuntimeClass *
PUBLIC	??B?$CTypedSimpleList@PAVCOleObjectFactory@@@@QAEPAVCOleObjectFactory@@XZ ; CTypedSimpleList<COleObjectFactory *>::operator COleObjectFactory *
PUBLIC	??$_Maklocstr@_W@std@@YAPA_WPBDPA_WABU_Cvtvec@@@Z ; std::_Maklocstr<wchar_t>
PUBLIC	?_Maklocwcs@std@@YAPA_WPB_W@Z			; std::_Maklocwcs
PUBLIC	??$_Getvals@_W@?$time_get@DV?$istreambuf_iterator@DU?$char_traits@D@std@@@std@@@std@@IAEX_WABV_Locinfo@1@@Z ; std::time_get<char,std::istreambuf_iterator<char,std::char_traits<char> > >::_Getvals<wchar_t>
PUBLIC	??$_Getvals@_W@?$time_get@_WV?$istreambuf_iterator@_WU?$char_traits@_W@std@@@std@@@std@@IAEX_WABV_Locinfo@1@@Z ; std::time_get<wchar_t,std::istreambuf_iterator<wchar_t,std::char_traits<wchar_t> > >::_Getvals<wchar_t>
PUBLIC	?Release@CProcessControl@@UAEXXZ		; CProcessControl::Release
PUBLIC	??0CProcessSendData@@QAE@ABV0@@Z		; CProcessSendData::CProcessSendData
PUBLIC	??4CProcessSendData@@QAEAAV0@ABV0@@Z		; CProcessSendData::operator=
PUBLIC	??_FCProcessSendData@@QAEXXZ			; CProcessSendData::`default constructor closure'
PUBLIC	??_GCProcessSendData@@UAEPAXI@Z			; CProcessSendData::`scalar deleting destructor'
PUBLIC	??_ECProcessSendData@@UAEPAXI@Z			; CProcessSendData::`vector deleting destructor'
PUBLIC	??0CProcessRecvData@@QAE@ABV0@@Z		; CProcessRecvData::CProcessRecvData
PUBLIC	??4CProcessRecvData@@QAEAAV0@ABV0@@Z		; CProcessRecvData::operator=
PUBLIC	??_GCProcessRecvData@@UAEPAXI@Z			; CProcessRecvData::`scalar deleting destructor'
PUBLIC	??_ECProcessRecvData@@UAEPAXI@Z			; CProcessRecvData::`vector deleting destructor'
PUBLIC	_DllMain@12
PUBLIC	??$_Maklocstr@D@std@@YAPADPBDPADABU_Cvtvec@@@Z	; std::_Maklocstr<char>
PUBLIC	??_C@_0GI@LKBGDILM@c?3?2program?5files?5?$CIx86?$CJ?2microsof@ ; `string'
PUBLIC	?__LINE__Var@?0??_Maklocwcs@std@@YAPA_WPB_W@Z@4JA ; `std::_Maklocwcs'::`1'::__LINE__Var
PUBLIC	??_C@_0GI@DJFLDKBN@c?3?2program?5files?5?$CIx86?$CJ?2microsof@ ; `string'
PUBLIC	??_7CProcessSendData@@6B@			; CProcessSendData::`vftable'
PUBLIC	??_7CProcessRecvData@@6B@			; CProcessRecvData::`vftable'
PUBLIC	??_C@_0N@LPFKKEBD@?3AM?3am?3PM?3pm@		; `string'
PUBLIC	??_C@_1BK@MHIKGOKE@?$AA?3?$AAA?$AAM?$AA?3?$AAa?$AAm?$AA?3?$AAP?$AAM?$AA?3?$AAp?$AAm@ ; `string'
PUBLIC	??_R4CProcessSendData@@6B@			; CProcessSendData::`RTTI Complete Object Locator'
PUBLIC	??_R0?AVCProcessSendData@@@8			; CProcessSendData `RTTI Type Descriptor'
PUBLIC	??_R3CProcessSendData@@8			; CProcessSendData::`RTTI Class Hierarchy Descriptor'
PUBLIC	??_R2CProcessSendData@@8			; CProcessSendData::`RTTI Base Class Array'
PUBLIC	??_R1A@?0A@EA@CProcessSendData@@8		; CProcessSendData::`RTTI Base Class Descriptor at (0,-1,0,64)'
PUBLIC	??_R4CProcessRecvData@@6B@			; CProcessRecvData::`RTTI Complete Object Locator'
PUBLIC	??_R0?AVCProcessRecvData@@@8			; CProcessRecvData `RTTI Type Descriptor'
PUBLIC	??_R3CProcessRecvData@@8			; CProcessRecvData::`RTTI Class Hierarchy Descriptor'
PUBLIC	??_R2CProcessRecvData@@8			; CProcessRecvData::`RTTI Base Class Array'
PUBLIC	??_R1A@?0A@EA@CProcessRecvData@@8		; CProcessRecvData::`RTTI Base Class Descriptor at (0,-1,0,64)'
EXTRN	??_M@YGXPAXIIP6EX0@Z@Z:PROC			; `eh vector destructor iterator'
EXTRN	??3@YAXPAXI@Z:PROC				; operator delete
EXTRN	??_V@YAXPAXI@Z:PROC				; operator delete[]
EXTRN	_memcpy:PROC
EXTRN	__imp__wcslen:PROC
EXTRN	_strlen:PROC
EXTRN	__imp___calloc_dbg:PROC
EXTRN	??2CObject@@SGPAXI@Z:PROC			; CObject::operator new
EXTRN	?AfxGetModuleState@@YGPAVAFX_MODULE_STATE@@XZ:PROC ; AfxGetModuleState
EXTRN	??0CDynLinkLibrary@@QAE@AAUAFX_EXTENSION_MODULE@@H@Z:PROC ; CDynLinkLibrary::CDynLinkLibrary
EXTRN	?AfxInitExtensionModule@@YGHAAUAFX_EXTENSION_MODULE@@PAUHINSTANCE__@@@Z:PROC ; AfxInitExtensionModule
EXTRN	?AfxTermExtensionModule@@YGXAAUAFX_EXTENSION_MODULE@@H@Z:PROC ; AfxTermExtensionModule
EXTRN	?_Xbad_alloc@std@@YAXXZ:PROC			; std::_Xbad_alloc
EXTRN	__Mbrtowc:PROC
EXTRN	__imp_?_Getcvt@_Locinfo@std@@QBE?AU_Cvtvec@@XZ:PROC
EXTRN	__imp_?_Getdays@_Locinfo@std@@QBEPBDXZ:PROC
EXTRN	__imp_?_Getmonths@_Locinfo@std@@QBEPBDXZ:PROC
EXTRN	__imp_?_W_Getdays@_Locinfo@std@@QBEPBGXZ:PROC
EXTRN	__imp_?_W_Getmonths@_Locinfo@std@@QBEPBGXZ:PROC
EXTRN	??0CProcessSendData@@QAE@PAUHWND__@@0@Z:PROC	; CProcessSendData::CProcessSendData
EXTRN	??1CProcessSendData@@UAE@XZ:PROC		; CProcessSendData::~CProcessSendData
EXTRN	??1CProcessRecvData@@UAE@XZ:PROC		; CProcessRecvData::~CProcessRecvData
EXTRN	@__security_check_cookie@4:PROC
EXTRN	___CxxFrameHandler3:PROC
EXTRN	??_7type_info@@6B@:QWORD			; type_info::`vftable'
EXTRN	___security_cookie:DWORD
_BSS	SEGMENT
?ProcessControlDLL@@3UAFX_EXTENSION_MODULE@@A DB 014H DUP (?) ; ProcessControlDLL
_BSS	ENDS
;	COMDAT ??_R1A@?0A@EA@CProcessRecvData@@8
rdata$r	SEGMENT
??_R1A@?0A@EA@CProcessRecvData@@8 DD FLAT:??_R0?AVCProcessRecvData@@@8 ; CProcessRecvData::`RTTI Base Class Descriptor at (0,-1,0,64)'
	DD	00H
	DD	00H
	DD	0ffffffffH
	DD	00H
	DD	040H
	DD	FLAT:??_R3CProcessRecvData@@8
rdata$r	ENDS
;	COMDAT ??_R2CProcessRecvData@@8
rdata$r	SEGMENT
??_R2CProcessRecvData@@8 DD FLAT:??_R1A@?0A@EA@CProcessRecvData@@8 ; CProcessRecvData::`RTTI Base Class Array'
rdata$r	ENDS
;	COMDAT ??_R3CProcessRecvData@@8
rdata$r	SEGMENT
??_R3CProcessRecvData@@8 DD 00H				; CProcessRecvData::`RTTI Class Hierarchy Descriptor'
	DD	00H
	DD	01H
	DD	FLAT:??_R2CProcessRecvData@@8
rdata$r	ENDS
;	COMDAT ??_R0?AVCProcessRecvData@@@8
data$r	SEGMENT
??_R0?AVCProcessRecvData@@@8 DD FLAT:??_7type_info@@6B@	; CProcessRecvData `RTTI Type Descriptor'
	DD	00H
	DB	'.?AVCProcessRecvData@@', 00H
data$r	ENDS
;	COMDAT ??_R4CProcessRecvData@@6B@
rdata$r	SEGMENT
??_R4CProcessRecvData@@6B@ DD 00H			; CProcessRecvData::`RTTI Complete Object Locator'
	DD	00H
	DD	00H
	DD	FLAT:??_R0?AVCProcessRecvData@@@8
	DD	FLAT:??_R3CProcessRecvData@@8
rdata$r	ENDS
;	COMDAT ??_R1A@?0A@EA@CProcessSendData@@8
rdata$r	SEGMENT
??_R1A@?0A@EA@CProcessSendData@@8 DD FLAT:??_R0?AVCProcessSendData@@@8 ; CProcessSendData::`RTTI Base Class Descriptor at (0,-1,0,64)'
	DD	00H
	DD	00H
	DD	0ffffffffH
	DD	00H
	DD	040H
	DD	FLAT:??_R3CProcessSendData@@8
rdata$r	ENDS
;	COMDAT ??_R2CProcessSendData@@8
rdata$r	SEGMENT
??_R2CProcessSendData@@8 DD FLAT:??_R1A@?0A@EA@CProcessSendData@@8 ; CProcessSendData::`RTTI Base Class Array'
rdata$r	ENDS
;	COMDAT ??_R3CProcessSendData@@8
rdata$r	SEGMENT
??_R3CProcessSendData@@8 DD 00H				; CProcessSendData::`RTTI Class Hierarchy Descriptor'
	DD	00H
	DD	01H
	DD	FLAT:??_R2CProcessSendData@@8
rdata$r	ENDS
;	COMDAT ??_R0?AVCProcessSendData@@@8
data$r	SEGMENT
??_R0?AVCProcessSendData@@@8 DD FLAT:??_7type_info@@6B@	; CProcessSendData `RTTI Type Descriptor'
	DD	00H
	DB	'.?AVCProcessSendData@@', 00H
data$r	ENDS
;	COMDAT ??_R4CProcessSendData@@6B@
rdata$r	SEGMENT
??_R4CProcessSendData@@6B@ DD 00H			; CProcessSendData::`RTTI Complete Object Locator'
	DD	00H
	DD	00H
	DD	FLAT:??_R0?AVCProcessSendData@@@8
	DD	FLAT:??_R3CProcessSendData@@8
rdata$r	ENDS
;	COMDAT ??_C@_1BK@MHIKGOKE@?$AA?3?$AAA?$AAM?$AA?3?$AAa?$AAm?$AA?3?$AAP?$AAM?$AA?3?$AAp?$AAm@
CONST	SEGMENT
??_C@_1BK@MHIKGOKE@?$AA?3?$AAA?$AAM?$AA?3?$AAa?$AAm?$AA?3?$AAP?$AAM?$AA?3?$AAp?$AAm@ DB ':'
	DB	00H, 'A', 00H, 'M', 00H, ':', 00H, 'a', 00H, 'm', 00H, ':', 00H
	DB	'P', 00H, 'M', 00H, ':', 00H, 'p', 00H, 'm', 00H, 00H, 00H ; `string'
CONST	ENDS
;	COMDAT ??_C@_0N@LPFKKEBD@?3AM?3am?3PM?3pm@
CONST	SEGMENT
??_C@_0N@LPFKKEBD@?3AM?3am?3PM?3pm@ DB ':AM:am:PM:pm', 00H ; `string'
CONST	ENDS
;	COMDAT ??_7CProcessRecvData@@6B@
CONST	SEGMENT
??_7CProcessRecvData@@6B@ DD FLAT:??_R4CProcessRecvData@@6B@ ; CProcessRecvData::`vftable'
	DD	FLAT:??_ECProcessRecvData@@UAEPAXI@Z
CONST	ENDS
;	COMDAT ??_7CProcessSendData@@6B@
CONST	SEGMENT
??_7CProcessSendData@@6B@ DD FLAT:??_R4CProcessSendData@@6B@ ; CProcessSendData::`vftable'
	DD	FLAT:??_ECProcessSendData@@UAEPAXI@Z
CONST	ENDS
;	COMDAT ??_C@_0GI@DJFLDKBN@c?3?2program?5files?5?$CIx86?$CJ?2microsof@
CONST	SEGMENT
??_C@_0GI@DJFLDKBN@c?3?2program?5files?5?$CIx86?$CJ?2microsof@ DB 'c:\pro'
	DB	'gram files (x86)\microsoft visual studio\2017\community\vc\to'
	DB	'ols\msvc\14.16.27023\include\xlocnum', 00H	; `string'
CONST	ENDS
;	COMDAT ?__LINE__Var@?0??_Maklocwcs@std@@YAPA_WPB_W@Z@4JA
_DATA	SEGMENT
?__LINE__Var@?0??_Maklocwcs@std@@YAPA_WPB_W@Z@4JA DD 061H ; `std::_Maklocwcs'::`1'::__LINE__Var
_DATA	ENDS
;	COMDAT ??_C@_0GI@LKBGDILM@c?3?2program?5files?5?$CIx86?$CJ?2microsof@
CONST	SEGMENT
??_C@_0GI@LKBGDILM@c?3?2program?5files?5?$CIx86?$CJ?2microsof@ DB 'c:\pro'
	DB	'gram files (x86)\microsoft visual studio\2017\community\vc\to'
	DB	'ols\msvc\14.16.27023\include\xlocale', 00H	; `string'
CONST	ENDS
;	COMDAT xdata$x
xdata$x	SEGMENT
__ehfuncinfo$??_ECProcessRecvData@@UAEPAXI@Z DD 019930522H
	DD	00H
	DD	00H
	DD	2 DUP(00H)
	DD	2 DUP(00H)
	DD	00H
	DD	05H
xdata$x	ENDS
;	COMDAT xdata$x
xdata$x	SEGMENT
__ehfuncinfo$??_ECProcessSendData@@UAEPAXI@Z DD 019930522H
	DD	00H
	DD	00H
	DD	2 DUP(00H)
	DD	2 DUP(00H)
	DD	00H
	DD	05H
xdata$x	ENDS
; Function compile flags: /Odtp /ZI
; File c:\program files (x86)\microsoft visual studio\2017\community\vc\tools\msvc\14.16.27023\include\xlocale
;	COMDAT ??$_Maklocstr@D@std@@YAPADPBDPADABU_Cvtvec@@@Z
_TEXT	SEGMENT
__Ptrnext$1 = -12					; size = 4
__Ptrdest$ = -8						; size = 4
__Count$ = -4						; size = 4
__Ptr$ = 8						; size = 4
___formal$ = 12						; size = 4
___formal$ = 16						; size = 4
??$_Maklocstr@D@std@@YAPADPBDPADABU_Cvtvec@@@Z PROC	; std::_Maklocstr<char>, COMDAT

; 664  : 	{	// convert C string to _Elem sequence using _Cvtvec

  00000	55		 push	 ebp
  00001	8b ec		 mov	 ebp, esp
  00003	83 ec 4c	 sub	 esp, 76			; 0000004cH
  00006	53		 push	 ebx
  00007	56		 push	 esi
  00008	57		 push	 edi

; 665  : 	size_t _Count = _CSTD strlen(_Ptr) + 1;

  00009	8b 45 08	 mov	 eax, DWORD PTR __Ptr$[ebp]
  0000c	50		 push	 eax
  0000d	e8 00 00 00 00	 call	 _strlen
  00012	83 c4 04	 add	 esp, 4
  00015	83 c0 01	 add	 eax, 1
  00018	89 45 fc	 mov	 DWORD PTR __Count$[ebp], eax

; 666  : 
; 667  : 	_Elem *_Ptrdest = (_Elem *)_calloc_dbg(_Count, sizeof (_Elem),

  0001b	68 9c 02 00 00	 push	 668			; 0000029cH
  00020	68 00 00 00 00	 push	 OFFSET ??_C@_0GI@LKBGDILM@c?3?2program?5files?5?$CIx86?$CJ?2microsof@
  00025	6a 02		 push	 2
  00027	6a 01		 push	 1
  00029	8b 45 fc	 mov	 eax, DWORD PTR __Count$[ebp]
  0002c	50		 push	 eax
  0002d	ff 15 00 00 00
	00		 call	 DWORD PTR __imp___calloc_dbg
  00033	83 c4 14	 add	 esp, 20			; 00000014H
  00036	89 45 f8	 mov	 DWORD PTR __Ptrdest$[ebp], eax

; 668  : 		_CRT_BLOCK, __FILE__, __LINE__);
; 669  : 
; 670  : 	if (!_Ptrdest)

  00039	83 7d f8 00	 cmp	 DWORD PTR __Ptrdest$[ebp], 0
  0003d	75 05		 jne	 SHORT $LN5@Maklocstr

; 671  : 		_Xbad_alloc();

  0003f	e8 00 00 00 00	 call	 ?_Xbad_alloc@std@@YAXXZ	; std::_Xbad_alloc
$LN5@Maklocstr:

; 672  : 
; 673  : 	for (_Elem *_Ptrnext = _Ptrdest; 0 < _Count; --_Count, ++_Ptrnext, ++_Ptr)

  00044	8b 45 f8	 mov	 eax, DWORD PTR __Ptrdest$[ebp]
  00047	89 45 f4	 mov	 DWORD PTR __Ptrnext$1[ebp], eax
  0004a	eb 1b		 jmp	 SHORT $LN4@Maklocstr
$LN2@Maklocstr:
  0004c	8b 45 fc	 mov	 eax, DWORD PTR __Count$[ebp]
  0004f	83 e8 01	 sub	 eax, 1
  00052	89 45 fc	 mov	 DWORD PTR __Count$[ebp], eax
  00055	8b 4d f4	 mov	 ecx, DWORD PTR __Ptrnext$1[ebp]
  00058	83 c1 01	 add	 ecx, 1
  0005b	89 4d f4	 mov	 DWORD PTR __Ptrnext$1[ebp], ecx
  0005e	8b 55 08	 mov	 edx, DWORD PTR __Ptr$[ebp]
  00061	83 c2 01	 add	 edx, 1
  00064	89 55 08	 mov	 DWORD PTR __Ptr$[ebp], edx
$LN4@Maklocstr:
  00067	83 7d fc 00	 cmp	 DWORD PTR __Count$[ebp], 0
  0006b	76 0c		 jbe	 SHORT $LN3@Maklocstr

; 674  : 		*_Ptrnext = (_Elem)(unsigned char)*_Ptr;

  0006d	8b 45 f4	 mov	 eax, DWORD PTR __Ptrnext$1[ebp]
  00070	8b 4d 08	 mov	 ecx, DWORD PTR __Ptr$[ebp]
  00073	8a 11		 mov	 dl, BYTE PTR [ecx]
  00075	88 10		 mov	 BYTE PTR [eax], dl
  00077	eb d3		 jmp	 SHORT $LN2@Maklocstr
$LN3@Maklocstr:

; 675  : 
; 676  : 	return (_Ptrdest);

  00079	8b 45 f8	 mov	 eax, DWORD PTR __Ptrdest$[ebp]
$LN6@Maklocstr:

; 677  : 	}

  0007c	5f		 pop	 edi
  0007d	5e		 pop	 esi
  0007e	5b		 pop	 ebx
  0007f	8b e5		 mov	 esp, ebp
  00081	5d		 pop	 ebp
  00082	c3		 ret	 0
??$_Maklocstr@D@std@@YAPADPBDPADABU_Cvtvec@@@Z ENDP	; std::_Maklocstr<char>
_TEXT	ENDS
; Function compile flags: /Odtp /ZI
; File g:\网狐\happygamewh\服务端\系统模块\公共组件\进程控制\processcontroldll.cpp
;	COMDAT _DllMain@12
_TEXT	SEGMENT
tv81 = -76						; size = 4
$T1 = -72						; size = 4
$T2 = -68						; size = 4
_hInstance$ = 8						; size = 4
_dwReason$ = 12						; size = 4
_lpReserved$ = 16					; size = 4
_DllMain@12 PROC					; COMDAT

; 14   : {

  00000	55		 push	 ebp
  00001	8b ec		 mov	 ebp, esp
  00003	83 ec 4c	 sub	 esp, 76			; 0000004cH
  00006	53		 push	 ebx
  00007	56		 push	 esi
  00008	57		 push	 edi

; 15   : 	if (dwReason==DLL_PROCESS_ATTACH)

  00009	83 7d 0c 01	 cmp	 DWORD PTR _dwReason$[ebp], 1
  0000d	75 49		 jne	 SHORT $LN2@DllMain

; 16   : 	{
; 17   : 		if (!AfxInitExtensionModule(ProcessControlDLL, hInstance)) return 0;

  0000f	8b 45 08	 mov	 eax, DWORD PTR _hInstance$[ebp]
  00012	50		 push	 eax
  00013	68 00 00 00 00	 push	 OFFSET ?ProcessControlDLL@@3UAFX_EXTENSION_MODULE@@A
  00018	e8 00 00 00 00	 call	 ?AfxInitExtensionModule@@YGHAAUAFX_EXTENSION_MODULE@@PAUHINSTANCE__@@@Z ; AfxInitExtensionModule
  0001d	85 c0		 test	 eax, eax
  0001f	75 04		 jne	 SHORT $LN4@DllMain
  00021	33 c0		 xor	 eax, eax
  00023	eb 4a		 jmp	 SHORT $LN1@DllMain
$LN4@DllMain:

; 18   : 		new CDynLinkLibrary(ProcessControlDLL);

  00025	6a 40		 push	 64			; 00000040H
  00027	e8 00 00 00 00	 call	 ??2CObject@@SGPAXI@Z	; CObject::operator new
  0002c	89 45 b8	 mov	 DWORD PTR $T1[ebp], eax
  0002f	83 7d b8 00	 cmp	 DWORD PTR $T1[ebp], 0
  00033	74 14		 je	 SHORT $LN7@DllMain
  00035	6a 00		 push	 0
  00037	68 00 00 00 00	 push	 OFFSET ?ProcessControlDLL@@3UAFX_EXTENSION_MODULE@@A
  0003c	8b 4d b8	 mov	 ecx, DWORD PTR $T1[ebp]
  0003f	e8 00 00 00 00	 call	 ??0CDynLinkLibrary@@QAE@AAUAFX_EXTENSION_MODULE@@H@Z ; CDynLinkLibrary::CDynLinkLibrary
  00044	89 45 b4	 mov	 DWORD PTR tv81[ebp], eax
  00047	eb 07		 jmp	 SHORT $LN8@DllMain
$LN7@DllMain:
  00049	c7 45 b4 00 00
	00 00		 mov	 DWORD PTR tv81[ebp], 0
$LN8@DllMain:
  00050	8b 45 b4	 mov	 eax, DWORD PTR tv81[ebp]
  00053	89 45 bc	 mov	 DWORD PTR $T2[ebp], eax
  00056	eb 12		 jmp	 SHORT $LN3@DllMain
$LN2@DllMain:

; 19   : 	}
; 20   : 	else if (dwReason==DLL_PROCESS_DETACH)

  00058	83 7d 0c 00	 cmp	 DWORD PTR _dwReason$[ebp], 0
  0005c	75 0c		 jne	 SHORT $LN3@DllMain

; 21   : 	{
; 22   : 		AfxTermExtensionModule(ProcessControlDLL);

  0005e	6a 00		 push	 0
  00060	68 00 00 00 00	 push	 OFFSET ?ProcessControlDLL@@3UAFX_EXTENSION_MODULE@@A
  00065	e8 00 00 00 00	 call	 ?AfxTermExtensionModule@@YGXAAUAFX_EXTENSION_MODULE@@H@Z ; AfxTermExtensionModule
$LN3@DllMain:

; 23   : 	}
; 24   : 
; 25   : 	return 1;

  0006a	b8 01 00 00 00	 mov	 eax, 1
$LN1@DllMain:

; 26   : }

  0006f	5f		 pop	 edi
  00070	5e		 pop	 esi
  00071	5b		 pop	 ebx
  00072	8b e5		 mov	 esp, ebp
  00074	5d		 pop	 ebp
  00075	c2 0c 00	 ret	 12			; 0000000cH
_DllMain@12 ENDP
_TEXT	ENDS
; Function compile flags: /Odtp /ZI
;	COMDAT ??_ECProcessRecvData@@UAEPAXI@Z
_TEXT	SEGMENT
_this$ = -16						; size = 4
__$EHRec$ = -12						; size = 12
___flags$ = 8						; size = 4
??_ECProcessRecvData@@UAEPAXI@Z PROC			; CProcessRecvData::`vector deleting destructor', COMDAT
; _this$ = ecx
  00000	55		 push	 ebp
  00001	8b ec		 mov	 ebp, esp
  00003	6a ff		 push	 -1
  00005	68 00 00 00 00	 push	 __ehhandler$??_ECProcessRecvData@@UAEPAXI@Z
  0000a	64 a1 00 00 00
	00		 mov	 eax, DWORD PTR fs:0
  00010	50		 push	 eax
  00011	83 ec 44	 sub	 esp, 68			; 00000044H
  00014	53		 push	 ebx
  00015	56		 push	 esi
  00016	57		 push	 edi
  00017	a1 00 00 00 00	 mov	 eax, DWORD PTR ___security_cookie
  0001c	33 c5		 xor	 eax, ebp
  0001e	50		 push	 eax
  0001f	8d 45 f4	 lea	 eax, DWORD PTR __$EHRec$[ebp]
  00022	64 a3 00 00 00
	00		 mov	 DWORD PTR fs:0, eax
  00028	89 4d f0	 mov	 DWORD PTR _this$[ebp], ecx
  0002b	8b 45 08	 mov	 eax, DWORD PTR ___flags$[ebp]
  0002e	83 e0 02	 and	 eax, 2
  00031	74 44		 je	 SHORT $LN2@vector
  00033	68 00 00 00 00	 push	 OFFSET ??1CProcessRecvData@@UAE@XZ ; CProcessRecvData::~CProcessRecvData
  00038	8b 45 f0	 mov	 eax, DWORD PTR _this$[ebp]
  0003b	8b 48 fc	 mov	 ecx, DWORD PTR [eax-4]
  0003e	51		 push	 ecx
  0003f	6a 08		 push	 8
  00041	8b 55 f0	 mov	 edx, DWORD PTR _this$[ebp]
  00044	52		 push	 edx
  00045	e8 00 00 00 00	 call	 ??_M@YGXPAXIIP6EX0@Z@Z
  0004a	8b 45 08	 mov	 eax, DWORD PTR ___flags$[ebp]
  0004d	83 e0 01	 and	 eax, 1
  00050	74 1d		 je	 SHORT $LN3@vector
  00052	8b 45 f0	 mov	 eax, DWORD PTR _this$[ebp]
  00055	8b 48 fc	 mov	 ecx, DWORD PTR [eax-4]
  00058	8d 14 cd 04 00
	00 00		 lea	 edx, DWORD PTR [ecx*8+4]
  0005f	52		 push	 edx
  00060	8b 45 f0	 mov	 eax, DWORD PTR _this$[ebp]
  00063	83 e8 04	 sub	 eax, 4
  00066	50		 push	 eax
  00067	e8 00 00 00 00	 call	 ??_V@YAXPAXI@Z		; operator delete[]
  0006c	83 c4 08	 add	 esp, 8
$LN3@vector:
  0006f	8b 45 f0	 mov	 eax, DWORD PTR _this$[ebp]
  00072	83 e8 04	 sub	 eax, 4
  00075	eb 21		 jmp	 SHORT $LN5@vector
$LN2@vector:
  00077	8b 4d f0	 mov	 ecx, DWORD PTR _this$[ebp]
  0007a	e8 00 00 00 00	 call	 ??1CProcessRecvData@@UAE@XZ ; CProcessRecvData::~CProcessRecvData
  0007f	8b 45 08	 mov	 eax, DWORD PTR ___flags$[ebp]
  00082	83 e0 01	 and	 eax, 1
  00085	74 0e		 je	 SHORT $LN4@vector
  00087	6a 08		 push	 8
  00089	8b 45 f0	 mov	 eax, DWORD PTR _this$[ebp]
  0008c	50		 push	 eax
  0008d	e8 00 00 00 00	 call	 ??3@YAXPAXI@Z		; operator delete
  00092	83 c4 08	 add	 esp, 8
$LN4@vector:
  00095	8b 45 f0	 mov	 eax, DWORD PTR _this$[ebp]
$LN5@vector:
  00098	8b 4d f4	 mov	 ecx, DWORD PTR __$EHRec$[ebp]
  0009b	64 89 0d 00 00
	00 00		 mov	 DWORD PTR fs:0, ecx
  000a2	59		 pop	 ecx
  000a3	5f		 pop	 edi
  000a4	5e		 pop	 esi
  000a5	5b		 pop	 ebx
  000a6	8b e5		 mov	 esp, ebp
  000a8	5d		 pop	 ebp
  000a9	c2 04 00	 ret	 4
_TEXT	ENDS
;	COMDAT text$x
text$x	SEGMENT
__ehhandler$??_ECProcessRecvData@@UAEPAXI@Z:
  00000	8b 54 24 08	 mov	 edx, DWORD PTR [esp+8]
  00004	8d 42 0c	 lea	 eax, DWORD PTR [edx+12]
  00007	8b 4a ac	 mov	 ecx, DWORD PTR [edx-84]
  0000a	33 c8		 xor	 ecx, eax
  0000c	e8 00 00 00 00	 call	 @__security_check_cookie@4
  00011	b8 00 00 00 00	 mov	 eax, OFFSET __ehfuncinfo$??_ECProcessRecvData@@UAEPAXI@Z
  00016	e9 00 00 00 00	 jmp	 ___CxxFrameHandler3
text$x	ENDS
??_ECProcessRecvData@@UAEPAXI@Z ENDP			; CProcessRecvData::`vector deleting destructor'
; Function compile flags: /Odtp /ZI
;	COMDAT ??_GCProcessRecvData@@UAEPAXI@Z
_TEXT	SEGMENT
_this$ = -4						; size = 4
___flags$ = 8						; size = 4
??_GCProcessRecvData@@UAEPAXI@Z PROC			; CProcessRecvData::`scalar deleting destructor', COMDAT
; _this$ = ecx
  00000	55		 push	 ebp
  00001	8b ec		 mov	 ebp, esp
  00003	83 ec 44	 sub	 esp, 68			; 00000044H
  00006	53		 push	 ebx
  00007	56		 push	 esi
  00008	57		 push	 edi
  00009	89 4d fc	 mov	 DWORD PTR _this$[ebp], ecx
  0000c	8b 4d fc	 mov	 ecx, DWORD PTR _this$[ebp]
  0000f	e8 00 00 00 00	 call	 ??1CProcessRecvData@@UAE@XZ ; CProcessRecvData::~CProcessRecvData
  00014	8b 45 08	 mov	 eax, DWORD PTR ___flags$[ebp]
  00017	83 e0 01	 and	 eax, 1
  0001a	74 0e		 je	 SHORT $LN2@scalar
  0001c	6a 08		 push	 8
  0001e	8b 45 fc	 mov	 eax, DWORD PTR _this$[ebp]
  00021	50		 push	 eax
  00022	e8 00 00 00 00	 call	 ??3@YAXPAXI@Z		; operator delete
  00027	83 c4 08	 add	 esp, 8
$LN2@scalar:
  0002a	8b 45 fc	 mov	 eax, DWORD PTR _this$[ebp]
  0002d	5f		 pop	 edi
  0002e	5e		 pop	 esi
  0002f	5b		 pop	 ebx
  00030	8b e5		 mov	 esp, ebp
  00032	5d		 pop	 ebp
  00033	c2 04 00	 ret	 4
??_GCProcessRecvData@@UAEPAXI@Z ENDP			; CProcessRecvData::`scalar deleting destructor'
_TEXT	ENDS
; Function compile flags: /Odtp /ZI
;	COMDAT ??4CProcessRecvData@@QAEAAV0@ABV0@@Z
_TEXT	SEGMENT
_this$ = -4						; size = 4
___that$ = 8						; size = 4
??4CProcessRecvData@@QAEAAV0@ABV0@@Z PROC		; CProcessRecvData::operator=, COMDAT
; _this$ = ecx
  00000	55		 push	 ebp
  00001	8b ec		 mov	 ebp, esp
  00003	83 ec 44	 sub	 esp, 68			; 00000044H
  00006	53		 push	 ebx
  00007	56		 push	 esi
  00008	57		 push	 edi
  00009	89 4d fc	 mov	 DWORD PTR _this$[ebp], ecx
  0000c	8b 45 fc	 mov	 eax, DWORD PTR _this$[ebp]
  0000f	8b 4d 08	 mov	 ecx, DWORD PTR ___that$[ebp]
  00012	8b 51 04	 mov	 edx, DWORD PTR [ecx+4]
  00015	89 50 04	 mov	 DWORD PTR [eax+4], edx
  00018	8b 45 fc	 mov	 eax, DWORD PTR _this$[ebp]
  0001b	5f		 pop	 edi
  0001c	5e		 pop	 esi
  0001d	5b		 pop	 ebx
  0001e	8b e5		 mov	 esp, ebp
  00020	5d		 pop	 ebp
  00021	c2 04 00	 ret	 4
??4CProcessRecvData@@QAEAAV0@ABV0@@Z ENDP		; CProcessRecvData::operator=
_TEXT	ENDS
; Function compile flags: /Odtp /ZI
;	COMDAT ??0CProcessRecvData@@QAE@ABV0@@Z
_TEXT	SEGMENT
_this$ = -4						; size = 4
___that$ = 8						; size = 4
??0CProcessRecvData@@QAE@ABV0@@Z PROC			; CProcessRecvData::CProcessRecvData, COMDAT
; _this$ = ecx
  00000	55		 push	 ebp
  00001	8b ec		 mov	 ebp, esp
  00003	83 ec 44	 sub	 esp, 68			; 00000044H
  00006	53		 push	 ebx
  00007	56		 push	 esi
  00008	57		 push	 edi
  00009	89 4d fc	 mov	 DWORD PTR _this$[ebp], ecx
  0000c	8b 45 fc	 mov	 eax, DWORD PTR _this$[ebp]
  0000f	c7 00 00 00 00
	00		 mov	 DWORD PTR [eax], OFFSET ??_7CProcessRecvData@@6B@
  00015	8b 45 fc	 mov	 eax, DWORD PTR _this$[ebp]
  00018	8b 4d 08	 mov	 ecx, DWORD PTR ___that$[ebp]
  0001b	8b 51 04	 mov	 edx, DWORD PTR [ecx+4]
  0001e	89 50 04	 mov	 DWORD PTR [eax+4], edx
  00021	8b 45 fc	 mov	 eax, DWORD PTR _this$[ebp]
  00024	5f		 pop	 edi
  00025	5e		 pop	 esi
  00026	5b		 pop	 ebx
  00027	8b e5		 mov	 esp, ebp
  00029	5d		 pop	 ebp
  0002a	c2 04 00	 ret	 4
??0CProcessRecvData@@QAE@ABV0@@Z ENDP			; CProcessRecvData::CProcessRecvData
_TEXT	ENDS
; Function compile flags: /Odtp /ZI
;	COMDAT ??_ECProcessSendData@@UAEPAXI@Z
_TEXT	SEGMENT
_this$ = -16						; size = 4
__$EHRec$ = -12						; size = 12
___flags$ = 8						; size = 4
??_ECProcessSendData@@UAEPAXI@Z PROC			; CProcessSendData::`vector deleting destructor', COMDAT
; _this$ = ecx
  00000	55		 push	 ebp
  00001	8b ec		 mov	 ebp, esp
  00003	6a ff		 push	 -1
  00005	68 00 00 00 00	 push	 __ehhandler$??_ECProcessSendData@@UAEPAXI@Z
  0000a	64 a1 00 00 00
	00		 mov	 eax, DWORD PTR fs:0
  00010	50		 push	 eax
  00011	83 ec 44	 sub	 esp, 68			; 00000044H
  00014	53		 push	 ebx
  00015	56		 push	 esi
  00016	57		 push	 edi
  00017	a1 00 00 00 00	 mov	 eax, DWORD PTR ___security_cookie
  0001c	33 c5		 xor	 eax, ebp
  0001e	50		 push	 eax
  0001f	8d 45 f4	 lea	 eax, DWORD PTR __$EHRec$[ebp]
  00022	64 a3 00 00 00
	00		 mov	 DWORD PTR fs:0, eax
  00028	89 4d f0	 mov	 DWORD PTR _this$[ebp], ecx
  0002b	8b 45 08	 mov	 eax, DWORD PTR ___flags$[ebp]
  0002e	83 e0 02	 and	 eax, 2
  00031	74 41		 je	 SHORT $LN2@vector
  00033	68 00 00 00 00	 push	 OFFSET ??1CProcessSendData@@UAE@XZ ; CProcessSendData::~CProcessSendData
  00038	8b 45 f0	 mov	 eax, DWORD PTR _this$[ebp]
  0003b	8b 48 fc	 mov	 ecx, DWORD PTR [eax-4]
  0003e	51		 push	 ecx
  0003f	6a 0c		 push	 12			; 0000000cH
  00041	8b 55 f0	 mov	 edx, DWORD PTR _this$[ebp]
  00044	52		 push	 edx
  00045	e8 00 00 00 00	 call	 ??_M@YGXPAXIIP6EX0@Z@Z
  0004a	8b 45 08	 mov	 eax, DWORD PTR ___flags$[ebp]
  0004d	83 e0 01	 and	 eax, 1
  00050	74 1a		 je	 SHORT $LN3@vector
  00052	8b 45 f0	 mov	 eax, DWORD PTR _this$[ebp]
  00055	6b 48 fc 0c	 imul	 ecx, DWORD PTR [eax-4], 12
  00059	83 c1 04	 add	 ecx, 4
  0005c	51		 push	 ecx
  0005d	8b 55 f0	 mov	 edx, DWORD PTR _this$[ebp]
  00060	83 ea 04	 sub	 edx, 4
  00063	52		 push	 edx
  00064	e8 00 00 00 00	 call	 ??_V@YAXPAXI@Z		; operator delete[]
  00069	83 c4 08	 add	 esp, 8
$LN3@vector:
  0006c	8b 45 f0	 mov	 eax, DWORD PTR _this$[ebp]
  0006f	83 e8 04	 sub	 eax, 4
  00072	eb 21		 jmp	 SHORT $LN5@vector
$LN2@vector:
  00074	8b 4d f0	 mov	 ecx, DWORD PTR _this$[ebp]
  00077	e8 00 00 00 00	 call	 ??1CProcessSendData@@UAE@XZ ; CProcessSendData::~CProcessSendData
  0007c	8b 45 08	 mov	 eax, DWORD PTR ___flags$[ebp]
  0007f	83 e0 01	 and	 eax, 1
  00082	74 0e		 je	 SHORT $LN4@vector
  00084	6a 0c		 push	 12			; 0000000cH
  00086	8b 45 f0	 mov	 eax, DWORD PTR _this$[ebp]
  00089	50		 push	 eax
  0008a	e8 00 00 00 00	 call	 ??3@YAXPAXI@Z		; operator delete
  0008f	83 c4 08	 add	 esp, 8
$LN4@vector:
  00092	8b 45 f0	 mov	 eax, DWORD PTR _this$[ebp]
$LN5@vector:
  00095	8b 4d f4	 mov	 ecx, DWORD PTR __$EHRec$[ebp]
  00098	64 89 0d 00 00
	00 00		 mov	 DWORD PTR fs:0, ecx
  0009f	59		 pop	 ecx
  000a0	5f		 pop	 edi
  000a1	5e		 pop	 esi
  000a2	5b		 pop	 ebx
  000a3	8b e5		 mov	 esp, ebp
  000a5	5d		 pop	 ebp
  000a6	c2 04 00	 ret	 4
_TEXT	ENDS
;	COMDAT text$x
text$x	SEGMENT
__ehhandler$??_ECProcessSendData@@UAEPAXI@Z:
  00000	8b 54 24 08	 mov	 edx, DWORD PTR [esp+8]
  00004	8d 42 0c	 lea	 eax, DWORD PTR [edx+12]
  00007	8b 4a ac	 mov	 ecx, DWORD PTR [edx-84]
  0000a	33 c8		 xor	 ecx, eax
  0000c	e8 00 00 00 00	 call	 @__security_check_cookie@4
  00011	b8 00 00 00 00	 mov	 eax, OFFSET __ehfuncinfo$??_ECProcessSendData@@UAEPAXI@Z
  00016	e9 00 00 00 00	 jmp	 ___CxxFrameHandler3
text$x	ENDS
??_ECProcessSendData@@UAEPAXI@Z ENDP			; CProcessSendData::`vector deleting destructor'
; Function compile flags: /Odtp /ZI
;	COMDAT ??_GCProcessSendData@@UAEPAXI@Z
_TEXT	SEGMENT
_this$ = -4						; size = 4
___flags$ = 8						; size = 4
??_GCProcessSendData@@UAEPAXI@Z PROC			; CProcessSendData::`scalar deleting destructor', COMDAT
; _this$ = ecx
  00000	55		 push	 ebp
  00001	8b ec		 mov	 ebp, esp
  00003	83 ec 44	 sub	 esp, 68			; 00000044H
  00006	53		 push	 ebx
  00007	56		 push	 esi
  00008	57		 push	 edi
  00009	89 4d fc	 mov	 DWORD PTR _this$[ebp], ecx
  0000c	8b 4d fc	 mov	 ecx, DWORD PTR _this$[ebp]
  0000f	e8 00 00 00 00	 call	 ??1CProcessSendData@@UAE@XZ ; CProcessSendData::~CProcessSendData
  00014	8b 45 08	 mov	 eax, DWORD PTR ___flags$[ebp]
  00017	83 e0 01	 and	 eax, 1
  0001a	74 0e		 je	 SHORT $LN2@scalar
  0001c	6a 0c		 push	 12			; 0000000cH
  0001e	8b 45 fc	 mov	 eax, DWORD PTR _this$[ebp]
  00021	50		 push	 eax
  00022	e8 00 00 00 00	 call	 ??3@YAXPAXI@Z		; operator delete
  00027	83 c4 08	 add	 esp, 8
$LN2@scalar:
  0002a	8b 45 fc	 mov	 eax, DWORD PTR _this$[ebp]
  0002d	5f		 pop	 edi
  0002e	5e		 pop	 esi
  0002f	5b		 pop	 ebx
  00030	8b e5		 mov	 esp, ebp
  00032	5d		 pop	 ebp
  00033	c2 04 00	 ret	 4
??_GCProcessSendData@@UAEPAXI@Z ENDP			; CProcessSendData::`scalar deleting destructor'
_TEXT	ENDS
; Function compile flags: /Odtp /ZI
;	COMDAT ??_FCProcessSendData@@QAEXXZ
_TEXT	SEGMENT
_this$ = -4						; size = 4
??_FCProcessSendData@@QAEXXZ PROC			; CProcessSendData::`default constructor closure', COMDAT
; _this$ = ecx
  00000	55		 push	 ebp
  00001	8b ec		 mov	 ebp, esp
  00003	83 ec 44	 sub	 esp, 68			; 00000044H
  00006	53		 push	 ebx
  00007	56		 push	 esi
  00008	57		 push	 edi
  00009	89 4d fc	 mov	 DWORD PTR _this$[ebp], ecx
  0000c	6a 00		 push	 0
  0000e	6a 00		 push	 0
  00010	8b 4d fc	 mov	 ecx, DWORD PTR _this$[ebp]
  00013	e8 00 00 00 00	 call	 ??0CProcessSendData@@QAE@PAUHWND__@@0@Z ; CProcessSendData::CProcessSendData
  00018	5f		 pop	 edi
  00019	5e		 pop	 esi
  0001a	5b		 pop	 ebx
  0001b	8b e5		 mov	 esp, ebp
  0001d	5d		 pop	 ebp
  0001e	c3		 ret	 0
??_FCProcessSendData@@QAEXXZ ENDP			; CProcessSendData::`default constructor closure'
_TEXT	ENDS
; Function compile flags: /Odtp /ZI
;	COMDAT ??4CProcessSendData@@QAEAAV0@ABV0@@Z
_TEXT	SEGMENT
_this$ = -4						; size = 4
___that$ = 8						; size = 4
??4CProcessSendData@@QAEAAV0@ABV0@@Z PROC		; CProcessSendData::operator=, COMDAT
; _this$ = ecx
  00000	55		 push	 ebp
  00001	8b ec		 mov	 ebp, esp
  00003	83 ec 44	 sub	 esp, 68			; 00000044H
  00006	53		 push	 ebx
  00007	56		 push	 esi
  00008	57		 push	 edi
  00009	89 4d fc	 mov	 DWORD PTR _this$[ebp], ecx
  0000c	8b 45 fc	 mov	 eax, DWORD PTR _this$[ebp]
  0000f	8b 4d 08	 mov	 ecx, DWORD PTR ___that$[ebp]
  00012	8b 51 04	 mov	 edx, DWORD PTR [ecx+4]
  00015	89 50 04	 mov	 DWORD PTR [eax+4], edx
  00018	8b 45 fc	 mov	 eax, DWORD PTR _this$[ebp]
  0001b	8b 4d 08	 mov	 ecx, DWORD PTR ___that$[ebp]
  0001e	8b 51 08	 mov	 edx, DWORD PTR [ecx+8]
  00021	89 50 08	 mov	 DWORD PTR [eax+8], edx
  00024	8b 45 fc	 mov	 eax, DWORD PTR _this$[ebp]
  00027	5f		 pop	 edi
  00028	5e		 pop	 esi
  00029	5b		 pop	 ebx
  0002a	8b e5		 mov	 esp, ebp
  0002c	5d		 pop	 ebp
  0002d	c2 04 00	 ret	 4
??4CProcessSendData@@QAEAAV0@ABV0@@Z ENDP		; CProcessSendData::operator=
_TEXT	ENDS
; Function compile flags: /Odtp /ZI
;	COMDAT ??0CProcessSendData@@QAE@ABV0@@Z
_TEXT	SEGMENT
_this$ = -4						; size = 4
___that$ = 8						; size = 4
??0CProcessSendData@@QAE@ABV0@@Z PROC			; CProcessSendData::CProcessSendData, COMDAT
; _this$ = ecx
  00000	55		 push	 ebp
  00001	8b ec		 mov	 ebp, esp
  00003	83 ec 44	 sub	 esp, 68			; 00000044H
  00006	53		 push	 ebx
  00007	56		 push	 esi
  00008	57		 push	 edi
  00009	89 4d fc	 mov	 DWORD PTR _this$[ebp], ecx
  0000c	8b 45 fc	 mov	 eax, DWORD PTR _this$[ebp]
  0000f	c7 00 00 00 00
	00		 mov	 DWORD PTR [eax], OFFSET ??_7CProcessSendData@@6B@
  00015	8b 45 fc	 mov	 eax, DWORD PTR _this$[ebp]
  00018	8b 4d 08	 mov	 ecx, DWORD PTR ___that$[ebp]
  0001b	8b 51 04	 mov	 edx, DWORD PTR [ecx+4]
  0001e	89 50 04	 mov	 DWORD PTR [eax+4], edx
  00021	8b 45 fc	 mov	 eax, DWORD PTR _this$[ebp]
  00024	8b 4d 08	 mov	 ecx, DWORD PTR ___that$[ebp]
  00027	8b 51 08	 mov	 edx, DWORD PTR [ecx+8]
  0002a	89 50 08	 mov	 DWORD PTR [eax+8], edx
  0002d	8b 45 fc	 mov	 eax, DWORD PTR _this$[ebp]
  00030	5f		 pop	 edi
  00031	5e		 pop	 esi
  00032	5b		 pop	 ebx
  00033	8b e5		 mov	 esp, ebp
  00035	5d		 pop	 ebp
  00036	c2 04 00	 ret	 4
??0CProcessSendData@@QAE@ABV0@@Z ENDP			; CProcessSendData::CProcessSendData
_TEXT	ENDS
; Function compile flags: /Odtp /ZI
; File g:\网狐\happygamewh\服务端\系统模块\公共组件\进程控制\processcontrol.h
;	COMDAT ?Release@CProcessControl@@UAEXXZ
_TEXT	SEGMENT
tv75 = -80						; size = 4
$T1 = -76						; size = 4
$T2 = -72						; size = 4
_this$ = -4						; size = 4
?Release@CProcessControl@@UAEXXZ PROC			; CProcessControl::Release, COMDAT
; _this$ = ecx

; 28   : 	virtual VOID Release() { delete this; }

  00000	55		 push	 ebp
  00001	8b ec		 mov	 ebp, esp
  00003	83 ec 50	 sub	 esp, 80			; 00000050H
  00006	53		 push	 ebx
  00007	56		 push	 esi
  00008	57		 push	 edi
  00009	89 4d fc	 mov	 DWORD PTR _this$[ebp], ecx
  0000c	8b 45 fc	 mov	 eax, DWORD PTR _this$[ebp]
  0000f	2d 80 00 00 00	 sub	 eax, 128		; 00000080H
  00014	89 45 b4	 mov	 DWORD PTR $T1[ebp], eax
  00017	8b 4d b4	 mov	 ecx, DWORD PTR $T1[ebp]
  0001a	89 4d b8	 mov	 DWORD PTR $T2[ebp], ecx
  0001d	83 7d b8 00	 cmp	 DWORD PTR $T2[ebp], 0
  00021	74 14		 je	 SHORT $LN3@Release
  00023	6a 01		 push	 1
  00025	8b 55 b8	 mov	 edx, DWORD PTR $T2[ebp]
  00028	8b 02		 mov	 eax, DWORD PTR [edx]
  0002a	8b 4d b8	 mov	 ecx, DWORD PTR $T2[ebp]
  0002d	8b 50 04	 mov	 edx, DWORD PTR [eax+4]
  00030	ff d2		 call	 edx
  00032	89 45 b0	 mov	 DWORD PTR tv75[ebp], eax
  00035	eb 07		 jmp	 SHORT $LN1@Release
$LN3@Release:
  00037	c7 45 b0 00 00
	00 00		 mov	 DWORD PTR tv75[ebp], 0
$LN1@Release:
  0003e	5f		 pop	 edi
  0003f	5e		 pop	 esi
  00040	5b		 pop	 ebx
  00041	8b e5		 mov	 esp, ebp
  00043	5d		 pop	 ebp
  00044	c3		 ret	 0
?Release@CProcessControl@@UAEXXZ ENDP			; CProcessControl::Release
_TEXT	ENDS
; Function compile flags: /Odtp /ZI
; File c:\program files (x86)\microsoft visual studio\2017\community\vc\tools\msvc\14.16.27023\include\xloctime
;	COMDAT ??$_Getvals@_W@?$time_get@_WV?$istreambuf_iterator@_WU?$char_traits@_W@std@@@std@@@std@@IAEX_WABV_Locinfo@1@@Z
_TEXT	SEGMENT
$T1 = -116						; size = 44
_this$ = -8						; size = 4
__$ArrayPad$ = -4					; size = 4
___formal$ = 8						; size = 2
__Lobj$ = 12						; size = 4
??$_Getvals@_W@?$time_get@_WV?$istreambuf_iterator@_WU?$char_traits@_W@std@@@std@@@std@@IAEX_WABV_Locinfo@1@@Z PROC ; std::time_get<wchar_t,std::istreambuf_iterator<wchar_t,std::char_traits<wchar_t> > >::_Getvals<wchar_t>, COMDAT
; _this$ = ecx

; 216  : 		{	// get values

  00000	55		 push	 ebp
  00001	8b ec		 mov	 ebp, esp
  00003	83 ec 74	 sub	 esp, 116		; 00000074H
  00006	a1 00 00 00 00	 mov	 eax, DWORD PTR ___security_cookie
  0000b	33 c5		 xor	 eax, ebp
  0000d	89 45 fc	 mov	 DWORD PTR __$ArrayPad$[ebp], eax
  00010	53		 push	 ebx
  00011	56		 push	 esi
  00012	57		 push	 edi
  00013	89 4d f8	 mov	 DWORD PTR _this$[ebp], ecx

; 217  : 		_Cvt = _Lobj._Getcvt();

  00016	8d 45 8c	 lea	 eax, DWORD PTR $T1[ebp]
  00019	50		 push	 eax
  0001a	8b 4d 0c	 mov	 ecx, DWORD PTR __Lobj$[ebp]
  0001d	ff 15 00 00 00
	00		 call	 DWORD PTR __imp_?_Getcvt@_Locinfo@std@@QBE?AU_Cvtvec@@XZ
  00023	8b 7d f8	 mov	 edi, DWORD PTR _this$[ebp]
  00026	83 c7 18	 add	 edi, 24			; 00000018H
  00029	b9 0b 00 00 00	 mov	 ecx, 11			; 0000000bH
  0002e	8b f0		 mov	 esi, eax
  00030	f3 a5		 rep movsd

; 218  : 
; 219  : 		if (is_same_v<_Elem2, wchar_t>)

  00032	b8 01 00 00 00	 mov	 eax, 1
  00037	85 c0		 test	 eax, eax
  00039	74 45		 je	 SHORT $LN2@Getvals

; 220  : 			{
; 221  : 			_Days = (const _Elem *)_Maklocwcs((const wchar_t *)_Lobj._W_Getdays());

  0003b	8b 4d 0c	 mov	 ecx, DWORD PTR __Lobj$[ebp]
  0003e	ff 15 00 00 00
	00		 call	 DWORD PTR __imp_?_W_Getdays@_Locinfo@std@@QBEPBGXZ
  00044	50		 push	 eax
  00045	e8 00 00 00 00	 call	 ?_Maklocwcs@std@@YAPA_WPB_W@Z ; std::_Maklocwcs
  0004a	83 c4 04	 add	 esp, 4
  0004d	8b 4d f8	 mov	 ecx, DWORD PTR _this$[ebp]
  00050	89 41 08	 mov	 DWORD PTR [ecx+8], eax

; 222  : 			_Months = (const _Elem *)_Maklocwcs((const wchar_t *)_Lobj._W_Getmonths());

  00053	8b 4d 0c	 mov	 ecx, DWORD PTR __Lobj$[ebp]
  00056	ff 15 00 00 00
	00		 call	 DWORD PTR __imp_?_W_Getmonths@_Locinfo@std@@QBEPBGXZ
  0005c	50		 push	 eax
  0005d	e8 00 00 00 00	 call	 ?_Maklocwcs@std@@YAPA_WPB_W@Z ; std::_Maklocwcs
  00062	83 c4 04	 add	 esp, 4
  00065	8b 4d f8	 mov	 ecx, DWORD PTR _this$[ebp]
  00068	89 41 0c	 mov	 DWORD PTR [ecx+12], eax

; 223  : 			_Ampm = (const _Elem *)_Maklocwcs(L":AM:am:PM:pm");

  0006b	68 00 00 00 00	 push	 OFFSET ??_C@_1BK@MHIKGOKE@?$AA?3?$AAA?$AAM?$AA?3?$AAa?$AAm?$AA?3?$AAP?$AAM?$AA?3?$AAp?$AAm@
  00070	e8 00 00 00 00	 call	 ?_Maklocwcs@std@@YAPA_WPB_W@Z ; std::_Maklocwcs
  00075	83 c4 04	 add	 esp, 4
  00078	8b 4d f8	 mov	 ecx, DWORD PTR _this$[ebp]
  0007b	89 41 10	 mov	 DWORD PTR [ecx+16], eax

; 224  : 			}
; 225  : 		else

  0007e	eb 5e		 jmp	 SHORT $LN1@Getvals
$LN2@Getvals:

; 226  : 			{
; 227  : 			_Days = _Maklocstr(_Lobj._Getdays(), static_cast<_Elem *>(nullptr), _Cvt);

  00080	8b 45 f8	 mov	 eax, DWORD PTR _this$[ebp]
  00083	83 c0 18	 add	 eax, 24			; 00000018H
  00086	50		 push	 eax
  00087	6a 00		 push	 0
  00089	8b 4d 0c	 mov	 ecx, DWORD PTR __Lobj$[ebp]
  0008c	ff 15 00 00 00
	00		 call	 DWORD PTR __imp_?_Getdays@_Locinfo@std@@QBEPBDXZ
  00092	50		 push	 eax
  00093	e8 00 00 00 00	 call	 ??$_Maklocstr@_W@std@@YAPA_WPBDPA_WABU_Cvtvec@@@Z ; std::_Maklocstr<wchar_t>
  00098	83 c4 0c	 add	 esp, 12			; 0000000cH
  0009b	8b 4d f8	 mov	 ecx, DWORD PTR _this$[ebp]
  0009e	89 41 08	 mov	 DWORD PTR [ecx+8], eax

; 228  : 			_Months = _Maklocstr(_Lobj._Getmonths(), static_cast<_Elem *>(nullptr), _Cvt);

  000a1	8b 45 f8	 mov	 eax, DWORD PTR _this$[ebp]
  000a4	83 c0 18	 add	 eax, 24			; 00000018H
  000a7	50		 push	 eax
  000a8	6a 00		 push	 0
  000aa	8b 4d 0c	 mov	 ecx, DWORD PTR __Lobj$[ebp]
  000ad	ff 15 00 00 00
	00		 call	 DWORD PTR __imp_?_Getmonths@_Locinfo@std@@QBEPBDXZ
  000b3	50		 push	 eax
  000b4	e8 00 00 00 00	 call	 ??$_Maklocstr@_W@std@@YAPA_WPBDPA_WABU_Cvtvec@@@Z ; std::_Maklocstr<wchar_t>
  000b9	83 c4 0c	 add	 esp, 12			; 0000000cH
  000bc	8b 4d f8	 mov	 ecx, DWORD PTR _this$[ebp]
  000bf	89 41 0c	 mov	 DWORD PTR [ecx+12], eax

; 229  : 			_Ampm = _Maklocstr(":AM:am:PM:pm", static_cast<_Elem *>(nullptr), _Cvt);

  000c2	8b 45 f8	 mov	 eax, DWORD PTR _this$[ebp]
  000c5	83 c0 18	 add	 eax, 24			; 00000018H
  000c8	50		 push	 eax
  000c9	6a 00		 push	 0
  000cb	68 00 00 00 00	 push	 OFFSET ??_C@_0N@LPFKKEBD@?3AM?3am?3PM?3pm@
  000d0	e8 00 00 00 00	 call	 ??$_Maklocstr@_W@std@@YAPA_WPBDPA_WABU_Cvtvec@@@Z ; std::_Maklocstr<wchar_t>
  000d5	83 c4 0c	 add	 esp, 12			; 0000000cH
  000d8	8b 4d f8	 mov	 ecx, DWORD PTR _this$[ebp]
  000db	89 41 10	 mov	 DWORD PTR [ecx+16], eax
$LN1@Getvals:

; 230  : 			}
; 231  : 		}

  000de	5f		 pop	 edi
  000df	5e		 pop	 esi
  000e0	5b		 pop	 ebx
  000e1	8b 4d fc	 mov	 ecx, DWORD PTR __$ArrayPad$[ebp]
  000e4	33 cd		 xor	 ecx, ebp
  000e6	e8 00 00 00 00	 call	 @__security_check_cookie@4
  000eb	8b e5		 mov	 esp, ebp
  000ed	5d		 pop	 ebp
  000ee	c2 08 00	 ret	 8
??$_Getvals@_W@?$time_get@_WV?$istreambuf_iterator@_WU?$char_traits@_W@std@@@std@@@std@@IAEX_WABV_Locinfo@1@@Z ENDP ; std::time_get<wchar_t,std::istreambuf_iterator<wchar_t,std::char_traits<wchar_t> > >::_Getvals<wchar_t>
_TEXT	ENDS
; Function compile flags: /Odtp /ZI
; File c:\program files (x86)\microsoft visual studio\2017\community\vc\tools\msvc\14.16.27023\include\xloctime
;	COMDAT ??$_Getvals@_W@?$time_get@DV?$istreambuf_iterator@DU?$char_traits@D@std@@@std@@@std@@IAEX_WABV_Locinfo@1@@Z
_TEXT	SEGMENT
$T1 = -116						; size = 44
_this$ = -8						; size = 4
__$ArrayPad$ = -4					; size = 4
___formal$ = 8						; size = 2
__Lobj$ = 12						; size = 4
??$_Getvals@_W@?$time_get@DV?$istreambuf_iterator@DU?$char_traits@D@std@@@std@@@std@@IAEX_WABV_Locinfo@1@@Z PROC ; std::time_get<char,std::istreambuf_iterator<char,std::char_traits<char> > >::_Getvals<wchar_t>, COMDAT
; _this$ = ecx

; 216  : 		{	// get values

  00000	55		 push	 ebp
  00001	8b ec		 mov	 ebp, esp
  00003	83 ec 74	 sub	 esp, 116		; 00000074H
  00006	a1 00 00 00 00	 mov	 eax, DWORD PTR ___security_cookie
  0000b	33 c5		 xor	 eax, ebp
  0000d	89 45 fc	 mov	 DWORD PTR __$ArrayPad$[ebp], eax
  00010	53		 push	 ebx
  00011	56		 push	 esi
  00012	57		 push	 edi
  00013	89 4d f8	 mov	 DWORD PTR _this$[ebp], ecx

; 217  : 		_Cvt = _Lobj._Getcvt();

  00016	8d 45 8c	 lea	 eax, DWORD PTR $T1[ebp]
  00019	50		 push	 eax
  0001a	8b 4d 0c	 mov	 ecx, DWORD PTR __Lobj$[ebp]
  0001d	ff 15 00 00 00
	00		 call	 DWORD PTR __imp_?_Getcvt@_Locinfo@std@@QBE?AU_Cvtvec@@XZ
  00023	8b 7d f8	 mov	 edi, DWORD PTR _this$[ebp]
  00026	83 c7 18	 add	 edi, 24			; 00000018H
  00029	b9 0b 00 00 00	 mov	 ecx, 11			; 0000000bH
  0002e	8b f0		 mov	 esi, eax
  00030	f3 a5		 rep movsd

; 218  : 
; 219  : 		if (is_same_v<_Elem2, wchar_t>)

  00032	b8 01 00 00 00	 mov	 eax, 1
  00037	85 c0		 test	 eax, eax
  00039	74 45		 je	 SHORT $LN2@Getvals

; 220  : 			{
; 221  : 			_Days = (const _Elem *)_Maklocwcs((const wchar_t *)_Lobj._W_Getdays());

  0003b	8b 4d 0c	 mov	 ecx, DWORD PTR __Lobj$[ebp]
  0003e	ff 15 00 00 00
	00		 call	 DWORD PTR __imp_?_W_Getdays@_Locinfo@std@@QBEPBGXZ
  00044	50		 push	 eax
  00045	e8 00 00 00 00	 call	 ?_Maklocwcs@std@@YAPA_WPB_W@Z ; std::_Maklocwcs
  0004a	83 c4 04	 add	 esp, 4
  0004d	8b 4d f8	 mov	 ecx, DWORD PTR _this$[ebp]
  00050	89 41 08	 mov	 DWORD PTR [ecx+8], eax

; 222  : 			_Months = (const _Elem *)_Maklocwcs((const wchar_t *)_Lobj._W_Getmonths());

  00053	8b 4d 0c	 mov	 ecx, DWORD PTR __Lobj$[ebp]
  00056	ff 15 00 00 00
	00		 call	 DWORD PTR __imp_?_W_Getmonths@_Locinfo@std@@QBEPBGXZ
  0005c	50		 push	 eax
  0005d	e8 00 00 00 00	 call	 ?_Maklocwcs@std@@YAPA_WPB_W@Z ; std::_Maklocwcs
  00062	83 c4 04	 add	 esp, 4
  00065	8b 4d f8	 mov	 ecx, DWORD PTR _this$[ebp]
  00068	89 41 0c	 mov	 DWORD PTR [ecx+12], eax

; 223  : 			_Ampm = (const _Elem *)_Maklocwcs(L":AM:am:PM:pm");

  0006b	68 00 00 00 00	 push	 OFFSET ??_C@_1BK@MHIKGOKE@?$AA?3?$AAA?$AAM?$AA?3?$AAa?$AAm?$AA?3?$AAP?$AAM?$AA?3?$AAp?$AAm@
  00070	e8 00 00 00 00	 call	 ?_Maklocwcs@std@@YAPA_WPB_W@Z ; std::_Maklocwcs
  00075	83 c4 04	 add	 esp, 4
  00078	8b 4d f8	 mov	 ecx, DWORD PTR _this$[ebp]
  0007b	89 41 10	 mov	 DWORD PTR [ecx+16], eax

; 224  : 			}
; 225  : 		else

  0007e	eb 5e		 jmp	 SHORT $LN1@Getvals
$LN2@Getvals:

; 226  : 			{
; 227  : 			_Days = _Maklocstr(_Lobj._Getdays(), static_cast<_Elem *>(nullptr), _Cvt);

  00080	8b 45 f8	 mov	 eax, DWORD PTR _this$[ebp]
  00083	83 c0 18	 add	 eax, 24			; 00000018H
  00086	50		 push	 eax
  00087	6a 00		 push	 0
  00089	8b 4d 0c	 mov	 ecx, DWORD PTR __Lobj$[ebp]
  0008c	ff 15 00 00 00
	00		 call	 DWORD PTR __imp_?_Getdays@_Locinfo@std@@QBEPBDXZ
  00092	50		 push	 eax
  00093	e8 00 00 00 00	 call	 ??$_Maklocstr@D@std@@YAPADPBDPADABU_Cvtvec@@@Z ; std::_Maklocstr<char>
  00098	83 c4 0c	 add	 esp, 12			; 0000000cH
  0009b	8b 4d f8	 mov	 ecx, DWORD PTR _this$[ebp]
  0009e	89 41 08	 mov	 DWORD PTR [ecx+8], eax

; 228  : 			_Months = _Maklocstr(_Lobj._Getmonths(), static_cast<_Elem *>(nullptr), _Cvt);

  000a1	8b 45 f8	 mov	 eax, DWORD PTR _this$[ebp]
  000a4	83 c0 18	 add	 eax, 24			; 00000018H
  000a7	50		 push	 eax
  000a8	6a 00		 push	 0
  000aa	8b 4d 0c	 mov	 ecx, DWORD PTR __Lobj$[ebp]
  000ad	ff 15 00 00 00
	00		 call	 DWORD PTR __imp_?_Getmonths@_Locinfo@std@@QBEPBDXZ
  000b3	50		 push	 eax
  000b4	e8 00 00 00 00	 call	 ??$_Maklocstr@D@std@@YAPADPBDPADABU_Cvtvec@@@Z ; std::_Maklocstr<char>
  000b9	83 c4 0c	 add	 esp, 12			; 0000000cH
  000bc	8b 4d f8	 mov	 ecx, DWORD PTR _this$[ebp]
  000bf	89 41 0c	 mov	 DWORD PTR [ecx+12], eax

; 229  : 			_Ampm = _Maklocstr(":AM:am:PM:pm", static_cast<_Elem *>(nullptr), _Cvt);

  000c2	8b 45 f8	 mov	 eax, DWORD PTR _this$[ebp]
  000c5	83 c0 18	 add	 eax, 24			; 00000018H
  000c8	50		 push	 eax
  000c9	6a 00		 push	 0
  000cb	68 00 00 00 00	 push	 OFFSET ??_C@_0N@LPFKKEBD@?3AM?3am?3PM?3pm@
  000d0	e8 00 00 00 00	 call	 ??$_Maklocstr@D@std@@YAPADPBDPADABU_Cvtvec@@@Z ; std::_Maklocstr<char>
  000d5	83 c4 0c	 add	 esp, 12			; 0000000cH
  000d8	8b 4d f8	 mov	 ecx, DWORD PTR _this$[ebp]
  000db	89 41 10	 mov	 DWORD PTR [ecx+16], eax
$LN1@Getvals:

; 230  : 			}
; 231  : 		}

  000de	5f		 pop	 edi
  000df	5e		 pop	 esi
  000e0	5b		 pop	 ebx
  000e1	8b 4d fc	 mov	 ecx, DWORD PTR __$ArrayPad$[ebp]
  000e4	33 cd		 xor	 ecx, ebp
  000e6	e8 00 00 00 00	 call	 @__security_check_cookie@4
  000eb	8b e5		 mov	 esp, ebp
  000ed	5d		 pop	 ebp
  000ee	c2 08 00	 ret	 8
??$_Getvals@_W@?$time_get@DV?$istreambuf_iterator@DU?$char_traits@D@std@@@std@@@std@@IAEX_WABV_Locinfo@1@@Z ENDP ; std::time_get<char,std::istreambuf_iterator<char,std::char_traits<char> > >::_Getvals<wchar_t>
_TEXT	ENDS
; Function compile flags: /Odtp /ZI
; File c:\program files (x86)\microsoft visual studio\2017\community\vc\tools\msvc\14.16.27023\include\xlocnum
;	COMDAT ?_Maklocwcs@std@@YAPA_WPB_W@Z
_TEXT	SEGMENT
__Ptrdest$ = -8						; size = 4
__Count$ = -4						; size = 4
__Ptr$ = 8						; size = 4
?_Maklocwcs@std@@YAPA_WPB_W@Z PROC			; std::_Maklocwcs, COMDAT

; 97   : 	{	// copy NTWCS to allocated storage

  00000	55		 push	 ebp
  00001	8b ec		 mov	 ebp, esp
  00003	83 ec 48	 sub	 esp, 72			; 00000048H
  00006	53		 push	 ebx
  00007	56		 push	 esi
  00008	57		 push	 edi

; 98   : 	const size_t _Count = _CSTD wcslen(_Ptr) + 1;

  00009	8b 45 08	 mov	 eax, DWORD PTR __Ptr$[ebp]
  0000c	50		 push	 eax
  0000d	ff 15 00 00 00
	00		 call	 DWORD PTR __imp__wcslen
  00013	83 c4 04	 add	 esp, 4
  00016	83 c0 01	 add	 eax, 1
  00019	89 45 fc	 mov	 DWORD PTR __Count$[ebp], eax

; 99   : 
; 100  : 	wchar_t *_Ptrdest = (wchar_t *)_calloc_dbg(_Count, sizeof (wchar_t),

  0001c	a1 00 00 00 00	 mov	 eax, DWORD PTR ?__LINE__Var@?0??_Maklocwcs@std@@YAPA_WPB_W@Z@4JA
  00021	83 c0 04	 add	 eax, 4
  00024	50		 push	 eax
  00025	68 00 00 00 00	 push	 OFFSET ??_C@_0GI@DJFLDKBN@c?3?2program?5files?5?$CIx86?$CJ?2microsof@
  0002a	6a 02		 push	 2
  0002c	6a 02		 push	 2
  0002e	8b 4d fc	 mov	 ecx, DWORD PTR __Count$[ebp]
  00031	51		 push	 ecx
  00032	ff 15 00 00 00
	00		 call	 DWORD PTR __imp___calloc_dbg
  00038	83 c4 14	 add	 esp, 20			; 00000014H
  0003b	89 45 f8	 mov	 DWORD PTR __Ptrdest$[ebp], eax

; 101  : 		_CRT_BLOCK, __FILE__, __LINE__);
; 102  : 
; 103  : 	if (!_Ptrdest)

  0003e	83 7d f8 00	 cmp	 DWORD PTR __Ptrdest$[ebp], 0
  00042	75 05		 jne	 SHORT $LN2@Maklocwcs

; 104  : 		_Xbad_alloc();

  00044	e8 00 00 00 00	 call	 ?_Xbad_alloc@std@@YAXXZ	; std::_Xbad_alloc
$LN2@Maklocwcs:

; 105  : 	_CSTD wmemcpy(_Ptrdest, _Ptr, _Count);

  00049	8b 45 fc	 mov	 eax, DWORD PTR __Count$[ebp]
  0004c	50		 push	 eax
  0004d	8b 4d 08	 mov	 ecx, DWORD PTR __Ptr$[ebp]
  00050	51		 push	 ecx
  00051	8b 55 f8	 mov	 edx, DWORD PTR __Ptrdest$[ebp]
  00054	52		 push	 edx
  00055	e8 00 00 00 00	 call	 _wmemcpy
  0005a	83 c4 0c	 add	 esp, 12			; 0000000cH

; 106  : 	return (_Ptrdest);

  0005d	8b 45 f8	 mov	 eax, DWORD PTR __Ptrdest$[ebp]
$LN3@Maklocwcs:

; 107  : 	}

  00060	5f		 pop	 edi
  00061	5e		 pop	 esi
  00062	5b		 pop	 ebx
  00063	8b e5		 mov	 esp, ebp
  00065	5d		 pop	 ebp
  00066	c3		 ret	 0
?_Maklocwcs@std@@YAPA_WPB_W@Z ENDP			; std::_Maklocwcs
_TEXT	ENDS
; Function compile flags: /Odtp /ZI
; File c:\program files (x86)\microsoft visual studio\2017\community\vc\tools\msvc\14.16.27023\include\xlocale
;	COMDAT ??$_Maklocstr@_W@std@@YAPA_WPBDPA_WABU_Cvtvec@@@Z
_TEXT	SEGMENT
__Mbst2$ = -48						; size = 8
__Ptrnext$ = -40					; size = 4
__Ptrdest$ = -36					; size = 4
__Mbst1$ = -32						; size = 8
__Wc$ = -24						; size = 2
__Bytes$ = -20						; size = 4
__Ptr1$ = -16						; size = 4
__Wchars$ = -12						; size = 4
__Count1$ = -8						; size = 4
__Count$ = -4						; size = 4
__Ptr$ = 8						; size = 4
___formal$ = 12						; size = 4
__Cvt$ = 16						; size = 4
??$_Maklocstr@_W@std@@YAPA_WPBDPA_WABU_Cvtvec@@@Z PROC	; std::_Maklocstr<wchar_t>, COMDAT

; 682  : 	{	// convert C string to wchar_t sequence using _Cvtvec

  00000	55		 push	 ebp
  00001	8b ec		 mov	 ebp, esp
  00003	83 ec 70	 sub	 esp, 112		; 00000070H
  00006	53		 push	 ebx
  00007	56		 push	 esi
  00008	57		 push	 edi

; 683  : 	size_t _Count, _Count1;
; 684  : 	size_t _Wchars;
; 685  : 	const char *_Ptr1;
; 686  : 	int _Bytes;
; 687  : 	wchar_t _Wc;
; 688  : 	mbstate_t _Mbst1 = {};

  00009	33 c0		 xor	 eax, eax
  0000b	89 45 e0	 mov	 DWORD PTR __Mbst1$[ebp], eax
  0000e	89 45 e4	 mov	 DWORD PTR __Mbst1$[ebp+4], eax

; 689  : 
; 690  : 	_Count1 = _CSTD strlen(_Ptr) + 1;

  00011	8b 45 08	 mov	 eax, DWORD PTR __Ptr$[ebp]
  00014	50		 push	 eax
  00015	e8 00 00 00 00	 call	 _strlen
  0001a	83 c4 04	 add	 esp, 4
  0001d	83 c0 01	 add	 eax, 1
  00020	89 45 f8	 mov	 DWORD PTR __Count1$[ebp], eax

; 691  : 	for (_Count = _Count1, _Wchars = 0, _Ptr1 = _Ptr; 0 < _Count;

  00023	8b 45 f8	 mov	 eax, DWORD PTR __Count1$[ebp]
  00026	89 45 fc	 mov	 DWORD PTR __Count$[ebp], eax
  00029	c7 45 f4 00 00
	00 00		 mov	 DWORD PTR __Wchars$[ebp], 0
  00030	8b 4d 08	 mov	 ecx, DWORD PTR __Ptr$[ebp]
  00033	89 4d f0	 mov	 DWORD PTR __Ptr1$[ebp], ecx
  00036	eb 1b		 jmp	 SHORT $LN4@Maklocstr
$LN2@Maklocstr:

; 692  : 		_Count -= _Bytes, _Ptr1 += _Bytes, ++_Wchars)

  00038	8b 45 fc	 mov	 eax, DWORD PTR __Count$[ebp]
  0003b	2b 45 ec	 sub	 eax, DWORD PTR __Bytes$[ebp]
  0003e	89 45 fc	 mov	 DWORD PTR __Count$[ebp], eax
  00041	8b 4d f0	 mov	 ecx, DWORD PTR __Ptr1$[ebp]
  00044	03 4d ec	 add	 ecx, DWORD PTR __Bytes$[ebp]
  00047	89 4d f0	 mov	 DWORD PTR __Ptr1$[ebp], ecx
  0004a	8b 55 f4	 mov	 edx, DWORD PTR __Wchars$[ebp]
  0004d	83 c2 01	 add	 edx, 1
  00050	89 55 f4	 mov	 DWORD PTR __Wchars$[ebp], edx
$LN4@Maklocstr:

; 691  : 	for (_Count = _Count1, _Wchars = 0, _Ptr1 = _Ptr; 0 < _Count;

  00053	83 7d fc 00	 cmp	 DWORD PTR __Count$[ebp], 0
  00057	76 29		 jbe	 SHORT $LN3@Maklocstr

; 693  : 		if ((_Bytes = _Mbrtowc(&_Wc, _Ptr1, _Count, &_Mbst1, &_Cvt)) <= 0)

  00059	8b 45 10	 mov	 eax, DWORD PTR __Cvt$[ebp]
  0005c	50		 push	 eax
  0005d	8d 4d e0	 lea	 ecx, DWORD PTR __Mbst1$[ebp]
  00060	51		 push	 ecx
  00061	8b 55 fc	 mov	 edx, DWORD PTR __Count$[ebp]
  00064	52		 push	 edx
  00065	8b 45 f0	 mov	 eax, DWORD PTR __Ptr1$[ebp]
  00068	50		 push	 eax
  00069	8d 4d e8	 lea	 ecx, DWORD PTR __Wc$[ebp]
  0006c	51		 push	 ecx
  0006d	e8 00 00 00 00	 call	 __Mbrtowc
  00072	83 c4 14	 add	 esp, 20			; 00000014H
  00075	89 45 ec	 mov	 DWORD PTR __Bytes$[ebp], eax
  00078	83 7d ec 00	 cmp	 DWORD PTR __Bytes$[ebp], 0
  0007c	7f 02		 jg	 SHORT $LN8@Maklocstr

; 694  : 			break;

  0007e	eb 02		 jmp	 SHORT $LN3@Maklocstr
$LN8@Maklocstr:

; 695  : 	++_Wchars;	// count terminating nul

  00080	eb b6		 jmp	 SHORT $LN2@Maklocstr
$LN3@Maklocstr:
  00082	8b 45 f4	 mov	 eax, DWORD PTR __Wchars$[ebp]
  00085	83 c0 01	 add	 eax, 1
  00088	89 45 f4	 mov	 DWORD PTR __Wchars$[ebp], eax

; 696  : 
; 697  : 	wchar_t *_Ptrdest = (wchar_t *)_calloc_dbg(_Wchars, sizeof (wchar_t),

  0008b	68 ba 02 00 00	 push	 698			; 000002baH
  00090	68 00 00 00 00	 push	 OFFSET ??_C@_0GI@LKBGDILM@c?3?2program?5files?5?$CIx86?$CJ?2microsof@
  00095	6a 02		 push	 2
  00097	6a 02		 push	 2
  00099	8b 45 f4	 mov	 eax, DWORD PTR __Wchars$[ebp]
  0009c	50		 push	 eax
  0009d	ff 15 00 00 00
	00		 call	 DWORD PTR __imp___calloc_dbg
  000a3	83 c4 14	 add	 esp, 20			; 00000014H
  000a6	89 45 dc	 mov	 DWORD PTR __Ptrdest$[ebp], eax

; 698  : 		_CRT_BLOCK, __FILE__, __LINE__);
; 699  : 
; 700  : 	if (!_Ptrdest)

  000a9	83 7d dc 00	 cmp	 DWORD PTR __Ptrdest$[ebp], 0
  000ad	75 05		 jne	 SHORT $LN9@Maklocstr

; 701  : 		_Xbad_alloc();

  000af	e8 00 00 00 00	 call	 ?_Xbad_alloc@std@@YAXXZ	; std::_Xbad_alloc
$LN9@Maklocstr:

; 702  : 	wchar_t *_Ptrnext = _Ptrdest;

  000b4	8b 45 dc	 mov	 eax, DWORD PTR __Ptrdest$[ebp]
  000b7	89 45 d8	 mov	 DWORD PTR __Ptrnext$[ebp], eax

; 703  : 	mbstate_t _Mbst2 = {};

  000ba	33 c0		 xor	 eax, eax
  000bc	89 45 d0	 mov	 DWORD PTR __Mbst2$[ebp], eax
  000bf	89 45 d4	 mov	 DWORD PTR __Mbst2$[ebp+4], eax

; 704  : 
; 705  : 	for (; 0 < _Wchars;

  000c2	eb 24		 jmp	 SHORT $LN7@Maklocstr
$LN5@Maklocstr:

; 706  : 		_Count -= _Bytes, _Ptr += _Bytes, --_Wchars, ++_Ptrnext)

  000c4	8b 45 fc	 mov	 eax, DWORD PTR __Count$[ebp]
  000c7	2b 45 ec	 sub	 eax, DWORD PTR __Bytes$[ebp]
  000ca	89 45 fc	 mov	 DWORD PTR __Count$[ebp], eax
  000cd	8b 4d 08	 mov	 ecx, DWORD PTR __Ptr$[ebp]
  000d0	03 4d ec	 add	 ecx, DWORD PTR __Bytes$[ebp]
  000d3	89 4d 08	 mov	 DWORD PTR __Ptr$[ebp], ecx
  000d6	8b 55 f4	 mov	 edx, DWORD PTR __Wchars$[ebp]
  000d9	83 ea 01	 sub	 edx, 1
  000dc	89 55 f4	 mov	 DWORD PTR __Wchars$[ebp], edx
  000df	8b 45 d8	 mov	 eax, DWORD PTR __Ptrnext$[ebp]
  000e2	83 c0 02	 add	 eax, 2
  000e5	89 45 d8	 mov	 DWORD PTR __Ptrnext$[ebp], eax
$LN7@Maklocstr:

; 704  : 
; 705  : 	for (; 0 < _Wchars;

  000e8	83 7d f4 00	 cmp	 DWORD PTR __Wchars$[ebp], 0
  000ec	76 29		 jbe	 SHORT $LN6@Maklocstr

; 707  : 		if ((_Bytes = _Mbrtowc(_Ptrnext, _Ptr, _Count1, &_Mbst2, &_Cvt)) <= 0)

  000ee	8b 45 10	 mov	 eax, DWORD PTR __Cvt$[ebp]
  000f1	50		 push	 eax
  000f2	8d 4d d0	 lea	 ecx, DWORD PTR __Mbst2$[ebp]
  000f5	51		 push	 ecx
  000f6	8b 55 f8	 mov	 edx, DWORD PTR __Count1$[ebp]
  000f9	52		 push	 edx
  000fa	8b 45 08	 mov	 eax, DWORD PTR __Ptr$[ebp]
  000fd	50		 push	 eax
  000fe	8b 4d d8	 mov	 ecx, DWORD PTR __Ptrnext$[ebp]
  00101	51		 push	 ecx
  00102	e8 00 00 00 00	 call	 __Mbrtowc
  00107	83 c4 14	 add	 esp, 20			; 00000014H
  0010a	89 45 ec	 mov	 DWORD PTR __Bytes$[ebp], eax
  0010d	83 7d ec 00	 cmp	 DWORD PTR __Bytes$[ebp], 0
  00111	7f 02		 jg	 SHORT $LN10@Maklocstr

; 708  : 			break;

  00113	eb 02		 jmp	 SHORT $LN6@Maklocstr
$LN10@Maklocstr:

; 709  : 	*_Ptrnext = L'\0';

  00115	eb ad		 jmp	 SHORT $LN5@Maklocstr
$LN6@Maklocstr:
  00117	33 c0		 xor	 eax, eax
  00119	8b 4d d8	 mov	 ecx, DWORD PTR __Ptrnext$[ebp]
  0011c	66 89 01	 mov	 WORD PTR [ecx], ax

; 710  : 
; 711  : 	return (_Ptrdest);

  0011f	8b 45 dc	 mov	 eax, DWORD PTR __Ptrdest$[ebp]
$LN11@Maklocstr:

; 712  : 	}

  00122	5f		 pop	 edi
  00123	5e		 pop	 esi
  00124	5b		 pop	 ebx
  00125	8b e5		 mov	 esp, ebp
  00127	5d		 pop	 ebp
  00128	c3		 ret	 0
??$_Maklocstr@_W@std@@YAPA_WPBDPA_WABU_Cvtvec@@@Z ENDP	; std::_Maklocstr<wchar_t>
_TEXT	ENDS
; Function compile flags: /Odtp /ZI
; File c:\program files (x86)\microsoft visual studio\2017\community\vc\tools\msvc\14.16.27023\atlmfc\include\afxdllx.h
;	COMDAT _ExtRawDllMain@12
_TEXT	SEGMENT
_pModuleState$1 = -4					; size = 4
___formal$ = 8						; size = 4
_dwReason$ = 12						; size = 4
___formal$ = 16						; size = 4
_ExtRawDllMain@12 PROC					; COMDAT

; 50   : {

  00000	55		 push	 ebp
  00001	8b ec		 mov	 ebp, esp
  00003	83 ec 44	 sub	 esp, 68			; 00000044H
  00006	53		 push	 ebx
  00007	56		 push	 esi
  00008	57		 push	 edi

; 51   : 	if (dwReason == DLL_PROCESS_ATTACH)

  00009	83 7d 0c 01	 cmp	 DWORD PTR _dwReason$[ebp], 1
  0000d	75 3e		 jne	 SHORT $LN2@ExtRawDllM

; 52   : 	{
; 53   : 		// save critical data pointers before running the constructors
; 54   : 		AFX_MODULE_STATE* pModuleState = AfxGetModuleState();

  0000f	e8 00 00 00 00	 call	 ?AfxGetModuleState@@YGPAVAFX_MODULE_STATE@@XZ ; AfxGetModuleState
  00014	89 45 fc	 mov	 DWORD PTR _pModuleState$1[ebp], eax

; 55   : 		pModuleState->m_pClassInit = pModuleState->m_classList;

  00017	8b 4d fc	 mov	 ecx, DWORD PTR _pModuleState$1[ebp]
  0001a	83 c1 20	 add	 ecx, 32			; 00000020H
  0001d	e8 00 00 00 00	 call	 ??B?$CTypedSimpleList@PAUCRuntimeClass@@@@QAEPAUCRuntimeClass@@XZ ; CTypedSimpleList<CRuntimeClass *>::operator CRuntimeClass *
  00022	8b 4d fc	 mov	 ecx, DWORD PTR _pModuleState$1[ebp]
  00025	89 41 1c	 mov	 DWORD PTR [ecx+28], eax

; 56   : 		pModuleState->m_pFactoryInit = pModuleState->m_factoryList;

  00028	8b 4d fc	 mov	 ecx, DWORD PTR _pModuleState$1[ebp]
  0002b	83 c1 2c	 add	 ecx, 44			; 0000002cH
  0002e	e8 00 00 00 00	 call	 ??B?$CTypedSimpleList@PAVCOleObjectFactory@@@@QAEPAVCOleObjectFactory@@XZ ; CTypedSimpleList<COleObjectFactory *>::operator COleObjectFactory *
  00033	8b 4d fc	 mov	 ecx, DWORD PTR _pModuleState$1[ebp]
  00036	89 41 28	 mov	 DWORD PTR [ecx+40], eax

; 57   : 		pModuleState->m_classList.m_pHead = NULL;

  00039	8b 45 fc	 mov	 eax, DWORD PTR _pModuleState$1[ebp]
  0003c	c7 40 20 00 00
	00 00		 mov	 DWORD PTR [eax+32], 0

; 58   : 		pModuleState->m_factoryList.m_pHead = NULL;

  00043	8b 45 fc	 mov	 eax, DWORD PTR _pModuleState$1[ebp]
  00046	c7 40 2c 00 00
	00 00		 mov	 DWORD PTR [eax+44], 0
$LN2@ExtRawDllM:

; 59   : 	}
; 60   : 	return TRUE;    // ok

  0004d	b8 01 00 00 00	 mov	 eax, 1

; 61   : }

  00052	5f		 pop	 edi
  00053	5e		 pop	 esi
  00054	5b		 pop	 ebx
  00055	8b e5		 mov	 esp, ebp
  00057	5d		 pop	 ebp
  00058	c2 0c 00	 ret	 12			; 0000000cH
_ExtRawDllMain@12 ENDP
_TEXT	ENDS
; Function compile flags: /Odtp /ZI
; File c:\program files (x86)\microsoft visual studio\2017\community\vc\tools\msvc\14.16.27023\atlmfc\include\afxtls_.h
;	COMDAT ??B?$CTypedSimpleList@PAVCOleObjectFactory@@@@QAEPAVCOleObjectFactory@@XZ
_TEXT	SEGMENT
_this$ = -4						; size = 4
??B?$CTypedSimpleList@PAVCOleObjectFactory@@@@QAEPAVCOleObjectFactory@@XZ PROC ; CTypedSimpleList<COleObjectFactory *>::operator COleObjectFactory *, COMDAT
; _this$ = ecx

; 96   : { 

  00000	55		 push	 ebp
  00001	8b ec		 mov	 ebp, esp
  00003	83 ec 44	 sub	 esp, 68			; 00000044H
  00006	53		 push	 ebx
  00007	56		 push	 esi
  00008	57		 push	 edi
  00009	89 4d fc	 mov	 DWORD PTR _this$[ebp], ecx

; 97   : 	return (TYPE)CSimpleList::GetHead(); 

  0000c	8b 4d fc	 mov	 ecx, DWORD PTR _this$[ebp]
  0000f	e8 00 00 00 00	 call	 ?GetHead@CSimpleList@@QBEPAXXZ ; CSimpleList::GetHead

; 98   : }

  00014	5f		 pop	 edi
  00015	5e		 pop	 esi
  00016	5b		 pop	 ebx
  00017	8b e5		 mov	 esp, ebp
  00019	5d		 pop	 ebp
  0001a	c3		 ret	 0
??B?$CTypedSimpleList@PAVCOleObjectFactory@@@@QAEPAVCOleObjectFactory@@XZ ENDP ; CTypedSimpleList<COleObjectFactory *>::operator COleObjectFactory *
_TEXT	ENDS
; Function compile flags: /Odtp /ZI
; File c:\program files (x86)\microsoft visual studio\2017\community\vc\tools\msvc\14.16.27023\atlmfc\include\afxtls_.h
;	COMDAT ??B?$CTypedSimpleList@PAUCRuntimeClass@@@@QAEPAUCRuntimeClass@@XZ
_TEXT	SEGMENT
_this$ = -4						; size = 4
??B?$CTypedSimpleList@PAUCRuntimeClass@@@@QAEPAUCRuntimeClass@@XZ PROC ; CTypedSimpleList<CRuntimeClass *>::operator CRuntimeClass *, COMDAT
; _this$ = ecx

; 96   : { 

  00000	55		 push	 ebp
  00001	8b ec		 mov	 ebp, esp
  00003	83 ec 44	 sub	 esp, 68			; 00000044H
  00006	53		 push	 ebx
  00007	56		 push	 esi
  00008	57		 push	 edi
  00009	89 4d fc	 mov	 DWORD PTR _this$[ebp], ecx

; 97   : 	return (TYPE)CSimpleList::GetHead(); 

  0000c	8b 4d fc	 mov	 ecx, DWORD PTR _this$[ebp]
  0000f	e8 00 00 00 00	 call	 ?GetHead@CSimpleList@@QBEPAXXZ ; CSimpleList::GetHead

; 98   : }

  00014	5f		 pop	 edi
  00015	5e		 pop	 esi
  00016	5b		 pop	 ebx
  00017	8b e5		 mov	 esp, ebp
  00019	5d		 pop	 ebp
  0001a	c3		 ret	 0
??B?$CTypedSimpleList@PAUCRuntimeClass@@@@QAEPAUCRuntimeClass@@XZ ENDP ; CTypedSimpleList<CRuntimeClass *>::operator CRuntimeClass *
_TEXT	ENDS
; Function compile flags: /Odtp /ZI
; File c:\program files (x86)\microsoft visual studio\2017\community\vc\tools\msvc\14.16.27023\atlmfc\include\afxtls_.h
;	COMDAT ?GetHead@CSimpleList@@QBEPAXXZ
_TEXT	SEGMENT
_this$ = -4						; size = 4
?GetHead@CSimpleList@@QBEPAXXZ PROC			; CSimpleList::GetHead, COMDAT
; _this$ = ecx

; 74   : 	{ return m_pHead; }

  00000	55		 push	 ebp
  00001	8b ec		 mov	 ebp, esp
  00003	83 ec 44	 sub	 esp, 68			; 00000044H
  00006	53		 push	 ebx
  00007	56		 push	 esi
  00008	57		 push	 edi
  00009	89 4d fc	 mov	 DWORD PTR _this$[ebp], ecx
  0000c	8b 45 fc	 mov	 eax, DWORD PTR _this$[ebp]
  0000f	8b 00		 mov	 eax, DWORD PTR [eax]
  00011	5f		 pop	 edi
  00012	5e		 pop	 esi
  00013	5b		 pop	 ebx
  00014	8b e5		 mov	 esp, ebp
  00016	5d		 pop	 ebp
  00017	c3		 ret	 0
?GetHead@CSimpleList@@QBEPAXXZ ENDP			; CSimpleList::GetHead
_TEXT	ENDS
; Function compile flags: /Odtp /ZI
; File c:\program files (x86)\windows kits\10\include\10.0.17763.0\ucrt\wchar.h
;	COMDAT _wmemcpy
_TEXT	SEGMENT
__S1$ = 8						; size = 4
__S2$ = 12						; size = 4
__N$ = 16						; size = 4
_wmemcpy PROC						; COMDAT

; 230  :     {

  00000	55		 push	 ebp
  00001	8b ec		 mov	 ebp, esp
  00003	83 ec 40	 sub	 esp, 64			; 00000040H
  00006	53		 push	 ebx
  00007	56		 push	 esi
  00008	57		 push	 edi

; 231  :         #pragma warning(push)
; 232  :         #pragma warning(disable : 4995 4996 6386)
; 233  :         return (wchar_t*)memcpy(_S1, _S2, _N*sizeof(wchar_t));

  00009	8b 45 10	 mov	 eax, DWORD PTR __N$[ebp]
  0000c	d1 e0		 shl	 eax, 1
  0000e	50		 push	 eax
  0000f	8b 4d 0c	 mov	 ecx, DWORD PTR __S2$[ebp]
  00012	51		 push	 ecx
  00013	8b 55 08	 mov	 edx, DWORD PTR __S1$[ebp]
  00016	52		 push	 edx
  00017	e8 00 00 00 00	 call	 _memcpy
  0001c	83 c4 0c	 add	 esp, 12			; 0000000cH

; 234  :         #pragma warning(pop)
; 235  :     }

  0001f	5f		 pop	 edi
  00020	5e		 pop	 esi
  00021	5b		 pop	 ebx
  00022	8b e5		 mov	 esp, ebp
  00024	5d		 pop	 ebp
  00025	c3		 ret	 0
_wmemcpy ENDP
_TEXT	ENDS
; Function compile flags: /Odtp /ZI
; File g:\网狐\happygamewh\服务端\系统模块\公共组件\进程控制\processcontroldll.cpp
;	COMDAT ?__empty_global_delete@@YAXPAXI@Z
_TEXT	SEGMENT
___formal$ = 8						; size = 4
___formal$ = 12						; size = 4
?__empty_global_delete@@YAXPAXI@Z PROC			; __empty_global_delete, COMDAT

  00000	55		 push	 ebp
  00001	8b ec		 mov	 ebp, esp
  00003	83 ec 40	 sub	 esp, 64			; 00000040H
  00006	53		 push	 ebx
  00007	56		 push	 esi
  00008	57		 push	 edi
  00009	5f		 pop	 edi
  0000a	5e		 pop	 esi
  0000b	5b		 pop	 ebx
  0000c	8b e5		 mov	 esp, ebp
  0000e	5d		 pop	 ebp
  0000f	c3		 ret	 0
?__empty_global_delete@@YAXPAXI@Z ENDP			; __empty_global_delete
_TEXT	ENDS
; Function compile flags: /Odtp /ZI
; File g:\网狐\happygamewh\服务端\系统模块\公共组件\进程控制\processcontroldll.cpp
;	COMDAT ?__empty_global_delete@@YAXPAX@Z
_TEXT	SEGMENT
___formal$ = 8						; size = 4
?__empty_global_delete@@YAXPAX@Z PROC			; __empty_global_delete, COMDAT

  00000	55		 push	 ebp
  00001	8b ec		 mov	 ebp, esp
  00003	83 ec 40	 sub	 esp, 64			; 00000040H
  00006	53		 push	 ebx
  00007	56		 push	 esi
  00008	57		 push	 edi
  00009	5f		 pop	 edi
  0000a	5e		 pop	 esi
  0000b	5b		 pop	 ebx
  0000c	8b e5		 mov	 esp, ebp
  0000e	5d		 pop	 ebp
  0000f	c3		 ret	 0
?__empty_global_delete@@YAXPAX@Z ENDP			; __empty_global_delete
_TEXT	ENDS
; Function compile flags: /Odtp /ZI
;	COMDAT ??_H@YGXPAXIIP6EPAX0@Z@Z
_TEXT	SEGMENT
tv66 = -68						; size = 4
___t$ = 8						; size = 4
___s$ = 12						; size = 4
___n$ = 16						; size = 4
___f$ = 20						; size = 4
??_H@YGXPAXIIP6EPAX0@Z@Z PROC				; `vector constructor iterator', COMDAT
  00000	55		 push	 ebp
  00001	8b ec		 mov	 ebp, esp
  00003	83 ec 44	 sub	 esp, 68			; 00000044H
  00006	53		 push	 ebx
  00007	56		 push	 esi
  00008	57		 push	 edi
$LN2@vector:
  00009	8b 45 10	 mov	 eax, DWORD PTR ___n$[ebp]
  0000c	89 45 bc	 mov	 DWORD PTR tv66[ebp], eax
  0000f	8b 4d 10	 mov	 ecx, DWORD PTR ___n$[ebp]
  00012	83 e9 01	 sub	 ecx, 1
  00015	89 4d 10	 mov	 DWORD PTR ___n$[ebp], ecx
  00018	83 7d bc 00	 cmp	 DWORD PTR tv66[ebp], 0
  0001c	76 11		 jbe	 SHORT $LN1@vector
  0001e	8b 4d 08	 mov	 ecx, DWORD PTR ___t$[ebp]
  00021	ff 55 14	 call	 DWORD PTR ___f$[ebp]
  00024	8b 45 08	 mov	 eax, DWORD PTR ___t$[ebp]
  00027	03 45 0c	 add	 eax, DWORD PTR ___s$[ebp]
  0002a	89 45 08	 mov	 DWORD PTR ___t$[ebp], eax
  0002d	eb da		 jmp	 SHORT $LN2@vector
$LN1@vector:
  0002f	5f		 pop	 edi
  00030	5e		 pop	 esi
  00031	5b		 pop	 ebx
  00032	8b e5		 mov	 esp, ebp
  00034	5d		 pop	 ebp
  00035	c2 10 00	 ret	 16			; 00000010H
??_H@YGXPAXIIP6EPAX0@Z@Z ENDP				; `vector constructor iterator'
_TEXT	ENDS
END
