; Listing generated by Microsoft (R) Optimizing Compiler Version 19.16.27032.1 

	TITLE	G:\网狐\HappyGameWH\服务端\系统模块\服务器组件\内核引擎\zlreactor\ByteBuffer.cpp
	.686P
	.XMM
	include listing.inc
	.model	flat

INCLUDELIB MSVCRTD
INCLUDELIB OLDNAMES

PUBLIC	?kCRLF@ByteBuffer@net@zl@@0QBDB			; zl::net::ByteBuffer::kCRLF
PUBLIC	?kDoubleCRLF@ByteBuffer@net@zl@@0QBDB		; zl::net::ByteBuffer::kDoubleCRLF
CONST	SEGMENT
?kCRLF@ByteBuffer@net@zl@@0QBDB DB 0dH, 0aH, 00H	; zl::net::ByteBuffer::kCRLF
	ORG $+1
?kDoubleCRLF@ByteBuffer@net@zl@@0QBDB DB 0dH, 0aH, 0dH, 0aH, 00H ; zl::net::ByteBuffer::kDoubleCRLF
CONST	ENDS
PUBLIC	?__empty_global_delete@@YAXPAX@Z		; __empty_global_delete
PUBLIC	?__empty_global_delete@@YAXPAXI@Z		; __empty_global_delete
; Function compile flags: /Ogtp
; File g:\网狐\happygamewh\服务端\系统模块\服务器组件\内核引擎\zlreactor\bytebuffer.cpp
;	COMDAT ?__empty_global_delete@@YAXPAXI@Z
_TEXT	SEGMENT
___formal$ = 8						; size = 4
___formal$ = 12						; size = 4
?__empty_global_delete@@YAXPAXI@Z PROC			; __empty_global_delete, COMDAT

  00000	c3		 ret	 0
?__empty_global_delete@@YAXPAXI@Z ENDP			; __empty_global_delete
_TEXT	ENDS
; Function compile flags: /Ogtp
; File g:\网狐\happygamewh\服务端\系统模块\服务器组件\内核引擎\zlreactor\bytebuffer.cpp
;	COMDAT ?__empty_global_delete@@YAXPAX@Z
_TEXT	SEGMENT
___formal$ = 8						; size = 4
?__empty_global_delete@@YAXPAX@Z PROC			; __empty_global_delete, COMDAT

  00000	c3		 ret	 0
?__empty_global_delete@@YAXPAX@Z ENDP			; __empty_global_delete
_TEXT	ENDS
END
