; Listing generated by Microsoft (R) Optimizing Compiler Version 19.16.27032.1 

	TITLE	G:\网狐\HappyGameWH\服务端\系统模块\服务器组件\内核引擎\DataBaseEngine.cpp
	.686P
	.XMM
	include listing.inc
	.model	flat

INCLUDELIB MSVCRTD
INCLUDELIB OLDNAMES

PUBLIC	?m_nLastCategory@CTrace@ATL@@1IA		; ATL::CTrace::m_nLastCategory
PUBLIC	?m_nMap@CTrace@ATL@@1PAUCategoryMap@12@A	; ATL::CTrace::m_nMap
PUBLIC	??_C@_17LGGGMOOB@?$AA?$CF?$AAh?$AAs@		; `string'
PUBLIC	??_C@_1EO@EBPPKGOM@?$AAf?$AAa?$AAl?$AAs?$AAe?$AA?5?$AA?$CG?$AA?$CG?$AA?5?$AA?$CC?$AAT?$AAo?$AAo?$AA?5?$AAm@ ; `string'
PUBLIC	??_C@_1OE@PDFAMNPL@?$AAc?$AA?3?$AA?2?$AAp?$AAr?$AAo?$AAg?$AAr?$AAa?$AAm?$AA?5?$AAf?$AAi?$AAl?$AAe@ ; `string'
PUBLIC	?_OptionsStorage@?1??__local_stdio_printf_options@@9@4_KA ; `__local_stdio_printf_options'::`2'::_OptionsStorage
PUBLIC	??_C@_17CNPHIMPH@?$AA?$CF?$AAl?$AAs@		; `string'
PUBLIC	??_C@_0BC@PGMFNIFA@atlTraceException@		; `string'
;	COMDAT ?m_nLastCategory@CTrace@ATL@@1IA
_BSS	SEGMENT
?m_nLastCategory@CTrace@ATL@@1IA DD 01H DUP (?)		; ATL::CTrace::m_nLastCategory
_BSS	ENDS
;	COMDAT ?m_nMap@CTrace@ATL@@1PAUCategoryMap@12@A
_BSS	SEGMENT
?m_nMap@CTrace@ATL@@1PAUCategoryMap@12@A DB 02080H DUP (?) ; ATL::CTrace::m_nMap
_BSS	ENDS
;	COMDAT ?_OptionsStorage@?1??__local_stdio_printf_options@@9@4_KA
_BSS	SEGMENT
?_OptionsStorage@?1??__local_stdio_printf_options@@9@4_KA DQ 01H DUP (?) ; `__local_stdio_printf_options'::`2'::_OptionsStorage
_BSS	ENDS
;	COMDAT ??_C@_0BC@PGMFNIFA@atlTraceException@
CONST	SEGMENT
??_C@_0BC@PGMFNIFA@atlTraceException@ DB 'atlTraceException', 00H ; `string'
CONST	ENDS
;	COMDAT ??_C@_17CNPHIMPH@?$AA?$CF?$AAl?$AAs@
CONST	SEGMENT
??_C@_17CNPHIMPH@?$AA?$CF?$AAl?$AAs@ DB '%', 00H, 'l', 00H, 's', 00H, 00H
	DB	00H						; `string'
CONST	ENDS
CONST	SEGMENT
?IID_IDataBaseException@@3U_GUID@@B DD 0428361edH	; IID_IDataBaseException
	DW	09dfaH
	DW	043d7H
	DB	08fH
	DB	026H
	DB	017H
	DB	06H
	DB	047H
	DB	06bH
	DB	02aH
	DB	051H
?IID_ITraceServiceManager@@3U_GUID@@B DD 08bfc36dbH	; IID_ITraceServiceManager
	DW	05ba2H
	DW	042baH
	DB	081H
	DB	0b0H
	DB	087H
	DB	0b0H
	DB	01cH
	DB	09eH
	DB	0afH
	DB	0feH
?IID_IServiceModule@@3U_GUID@@B DD 05980504H		; IID_IServiceModule
	DW	0a2f2H
	DW	04b0fH
	DB	09bH
	DB	054H
	DB	051H
	DB	054H
	DB	01eH
	DB	05H
	DB	05cH
	DB	0ffH
?IID_IAsynchronismEngine@@3U_GUID@@B DD 0c7a13074H	; IID_IAsynchronismEngine
	DW	075c5H
	DW	04b8eH
	DB	0b5H
	DB	04bH
	DB	0eeH
	DB	0eH
	DB	0ecH
	DB	0feH
	DB	0b9H
	DB	0ebH
?IID_IAsynchronismEngineSink@@3U_GUID@@B DD 02edf5c9eH	; IID_IAsynchronismEngineSink
	DW	02cacH
	DW	0461dH
	DB	0a7H
	DB	082H
	DB	02eH
	DB	02fH
	DB	0e1H
	DB	091H
	DB	080H
	DB	0f8H
?IID_IDataBase@@3U_GUID@@B DD 0a2e38a78H		; IID_IDataBase
	DW	01e4fH
	DW	04de4H
	DB	0a5H
	DB	0d1H
	DB	0b9H
	DB	019H
	DB	09bH
	DB	0ceH
	DB	041H
	DB	0aeH
?IID_IDataBaseEngine@@3U_GUID@@B DD 047b5a119H		; IID_IDataBaseEngine
	DW	01676H
	DW	049a3H
	DB	0beH
	DB	0aeH
	DB	0caH
	DB	027H
	DB	0ebH
	DB	059H
	DB	097H
	DB	022H
?IID_IDataBaseEngineSink@@3U_GUID@@B DD 0ed26ed6H	; IID_IDataBaseEngineSink
	DW	069d7H
	DW	04f5bH
	DB	0b0H
	DB	0caH
	DB	017H
	DB	0aeH
	DB	0abH
	DB	0baH
	DB	06H
	DB	0dfH
?IID_IUDPNetworkEngine@@3U_GUID@@B DD 08d138a9bH	; IID_IUDPNetworkEngine
	DW	0a97dH
	DW	04d51H
	DB	09dH
	DB	06cH
	DB	0d8H
	DB	06eH
	DB	0a1H
	DB	084H
	DB	045H
	DB	02eH
?IID_ITCPNetworkEngine@@3U_GUID@@B DD 07747f683H	; IID_ITCPNetworkEngine
	DW	0c0daH
	DW	04588H
	DB	089H
	DB	0ccH
	DB	015H
	DB	093H
	DB	0acH
	DB	0c0H
	DB	044H
	DB	0c8H
?IID_ITCPSocketService@@3U_GUID@@B DD 0709a4449H	; IID_ITCPSocketService
	DW	0ad77H
	DW	04b3dH
	DB	0b4H
	DB	0d6H
	DB	08dH
	DB	0bH
	DB	028H
	DB	065H
	DB	0ecH
	DB	0aeH
?IID_IWEBSocketService@@3U_GUID@@B DD 091052ff2H	; IID_IWEBSocketService
	DW	0eb29H
	DW	040b9H
	DB	0b2H
	DB	0a2H
	DB	08aH
	DB	0a2H
	DB	098H
	DB	036H
	DB	02cH
	DB	084H
?IID_ITimerEngine@@3U_GUID@@B DD 0496401aeH		; IID_ITimerEngine
	DW	06fb0H
	DW	04e9fH
	DB	090H
	DB	098H
	DB	044H
	DB	09dH
	DB	09cH
	DB	0b2H
	DB	0bdH
	DB	097H
?IID_IAttemperEngine@@3U_GUID@@B DD 0b070b2cH		; IID_IAttemperEngine
	DW	09d72H
	DW	042d2H
	DB	0a5H
	DB	070H
	DB	0baH
	DB	02cH
	DB	0bfH
	DB	06fH
	DB	0bbH
	DB	01cH
?IID_IUnknownEx@@3U_GUID@@B DD 05feec21eH		; IID_IUnknownEx
	DW	0dbf3H
	DW	046f0H
	DB	09fH
	DB	057H
	DB	0d1H
	DB	0cdH
	DB	071H
	DB	01cH
	DB	046H
	DB	0deH
CONST	ENDS
;	COMDAT ??_C@_1OE@PDFAMNPL@?$AAc?$AA?3?$AA?2?$AAp?$AAr?$AAo?$AAg?$AAr?$AAa?$AAm?$AA?5?$AAf?$AAi?$AAl?$AAe@
CONST	SEGMENT
??_C@_1OE@PDFAMNPL@?$AAc?$AA?3?$AA?2?$AAp?$AAr?$AAo?$AAg?$AAr?$AAa?$AAm?$AA?5?$AAf?$AAi?$AAl?$AAe@ DB 'c'
	DB	00H, ':', 00H, '\', 00H, 'p', 00H, 'r', 00H, 'o', 00H, 'g', 00H
	DB	'r', 00H, 'a', 00H, 'm', 00H, ' ', 00H, 'f', 00H, 'i', 00H, 'l'
	DB	00H, 'e', 00H, 's', 00H, ' ', 00H, '(', 00H, 'x', 00H, '8', 00H
	DB	'6', 00H, ')', 00H, '\', 00H, 'm', 00H, 'i', 00H, 'c', 00H, 'r'
	DB	00H, 'o', 00H, 's', 00H, 'o', 00H, 'f', 00H, 't', 00H, ' ', 00H
	DB	'v', 00H, 'i', 00H, 's', 00H, 'u', 00H, 'a', 00H, 'l', 00H, ' '
	DB	00H, 's', 00H, 't', 00H, 'u', 00H, 'd', 00H, 'i', 00H, 'o', 00H
	DB	'\', 00H, '2', 00H, '0', 00H, '1', 00H, '7', 00H, '\', 00H, 'c'
	DB	00H, 'o', 00H, 'm', 00H, 'm', 00H, 'u', 00H, 'n', 00H, 'i', 00H
	DB	't', 00H, 'y', 00H, '\', 00H, 'v', 00H, 'c', 00H, '\', 00H, 't'
	DB	00H, 'o', 00H, 'o', 00H, 'l', 00H, 's', 00H, '\', 00H, 'm', 00H
	DB	's', 00H, 'v', 00H, 'c', 00H, '\', 00H, '1', 00H, '4', 00H, '.'
	DB	00H, '1', 00H, '6', 00H, '.', 00H, '2', 00H, '7', 00H, '0', 00H
	DB	'2', 00H, '3', 00H, '\', 00H, 'a', 00H, 't', 00H, 'l', 00H, 'm'
	DB	00H, 'f', 00H, 'c', 00H, '\', 00H, 'i', 00H, 'n', 00H, 'c', 00H
	DB	'l', 00H, 'u', 00H, 'd', 00H, 'e', 00H, '\', 00H, 'a', 00H, 't'
	DB	00H, 'l', 00H, 't', 00H, 'r', 00H, 'a', 00H, 'c', 00H, 'e', 00H
	DB	'.', 00H, 'h', 00H, 00H, 00H			; `string'
CONST	ENDS
;	COMDAT ??_C@_1EO@EBPPKGOM@?$AAf?$AAa?$AAl?$AAs?$AAe?$AA?5?$AA?$CG?$AA?$CG?$AA?5?$AA?$CC?$AAT?$AAo?$AAo?$AA?5?$AAm@
CONST	SEGMENT
??_C@_1EO@EBPPKGOM@?$AAf?$AAa?$AAl?$AAs?$AAe?$AA?5?$AA?$CG?$AA?$CG?$AA?5?$AA?$CC?$AAT?$AAo?$AAo?$AA?5?$AAm@ DB 'f'
	DB	00H, 'a', 00H, 'l', 00H, 's', 00H, 'e', 00H, ' ', 00H, '&', 00H
	DB	'&', 00H, ' ', 00H, '"', 00H, 'T', 00H, 'o', 00H, 'o', 00H, ' '
	DB	00H, 'm', 00H, 'a', 00H, 'n', 00H, 'y', 00H, ' ', 00H, 'c', 00H
	DB	'a', 00H, 't', 00H, 'e', 00H, 'g', 00H, 'o', 00H, 'r', 00H, 'i'
	DB	00H, 'e', 00H, 's', 00H, ' ', 00H, 'd', 00H, 'e', 00H, 'f', 00H
	DB	'i', 00H, 'n', 00H, 'e', 00H, 'd', 00H, '"', 00H, 00H, 00H ; `string'
CONST	ENDS
;	COMDAT ??_C@_17LGGGMOOB@?$AA?$CF?$AAh?$AAs@
CONST	SEGMENT
??_C@_17LGGGMOOB@?$AA?$CF?$AAh?$AAs@ DB '%', 00H, 'h', 00H, 's', 00H, 00H
	DB	00H						; `string'
CONST	ENDS
PUBLIC	??_H@YGXPAXIIP6EPAX0@Z@Z			; `vector constructor iterator'
PUBLIC	?__empty_global_delete@@YAXPAX@Z		; __empty_global_delete
PUBLIC	?__empty_global_delete@@YAXPAXI@Z		; __empty_global_delete
PUBLIC	___local_stdio_printf_options
PUBLIC	_swprintf_s
PUBLIC	?AfxAssertFailedLine@@YGHPBDH@Z			; AfxAssertFailedLine
PUBLIC	?RegisterCategory@CTrace@ATL@@SAXPBDI@Z		; ATL::CTrace::RegisterCategory
PUBLIC	??0_bstr_t@@QAE@PBD@Z				; _bstr_t::_bstr_t
PUBLIC	??0_bstr_t@@QAE@PB_W@Z				; _bstr_t::_bstr_t
PUBLIC	??0_bstr_t@@QAE@PA_W_N@Z			; _bstr_t::_bstr_t
PUBLIC	??1_bstr_t@@QAE@XZ				; _bstr_t::~_bstr_t
PUBLIC	??B_bstr_t@@QBEPBDXZ				; _bstr_t::operator char const *
PUBLIC	??0Data_t@_bstr_t@@QAE@PA_W_N@Z			; _bstr_t::Data_t::Data_t
PUBLIC	?Release@Data_t@_bstr_t@@QAEKXZ			; _bstr_t::Data_t::Release
PUBLIC	?_Free@Data_t@_bstr_t@@AAEXXZ			; _bstr_t::Data_t::_Free
PUBLIC	??0_variant_t@@QAE@AAUtagVARIANT@@_N@Z		; _variant_t::_variant_t
PUBLIC	??0_variant_t@@QAE@JG@Z				; _variant_t::_variant_t
PUBLIC	??0_variant_t@@QAE@PAUIDispatch@@_N@Z		; _variant_t::_variant_t
PUBLIC	??1_variant_t@@QAE@XZ				; _variant_t::~_variant_t
PUBLIC	??$_Maklocstr@_W@std@@YAPA_WPBDPA_WABU_Cvtvec@@@Z ; std::_Maklocstr<wchar_t>
PUBLIC	?_Maklocwcs@std@@YAPA_WPB_W@Z			; std::_Maklocwcs
PUBLIC	?InterfaceVersionCompare@@YA_NKK@Z		; InterfaceVersionCompare
PUBLIC	??$_Getvals@_W@?$time_get@DV?$istreambuf_iterator@DU?$char_traits@D@std@@@std@@@std@@IAEX_WABV_Locinfo@1@@Z ; std::time_get<char,std::istreambuf_iterator<char,std::char_traits<char> > >::_Getvals<wchar_t>
PUBLIC	??$_Getvals@_W@?$time_get@_WV?$istreambuf_iterator@_WU?$char_traits@_W@std@@@std@@@std@@IAEX_WABV_Locinfo@1@@Z ; std::time_get<wchar_t,std::istreambuf_iterator<wchar_t,std::char_traits<wchar_t> > >::_Getvals<wchar_t>
PUBLIC	?Description@_com_error@@QBE?AV_bstr_t@@XZ	; _com_error::Description
PUBLIC	?GetCount@_Collection@ADOCG@@QAEJXZ		; ADOCG::_Collection::GetCount
PUBLIC	?GetNumber@Error@ADOCG@@QAEJXZ			; ADOCG::Error::GetNumber
PUBLIC	?GetItem@Errors@ADOCG@@QAE?AV?$_com_ptr_t@V?$_com_IIID@UError@ADOCG@@$1?_GUID_00000500_0000_0010_8000_00aa006d2ea4@@3U__s_GUID@@B@@@@ABV_variant_t@@@Z ; ADOCG::Errors::GetItem
PUBLIC	?GetValue@Field20@ADOCG@@QAE?AV_variant_t@@XZ	; ADOCG::Field20::GetValue
PUBLIC	?GetItem@Fields15@ADOCG@@QAE?AV?$_com_ptr_t@V?$_com_IIID@UField@ADOCG@@$1?_GUID_00000569_0000_0010_8000_00aa006d2ea4@@3U__s_GUID@@B@@@@ABV_variant_t@@@Z ; ADOCG::Fields15::GetItem
PUBLIC	?GetValue@_Parameter@ADOCG@@QAE?AV_variant_t@@XZ ; ADOCG::_Parameter::GetValue
PUBLIC	?GetItem@Parameters@ADOCG@@QAE?AV?$_com_ptr_t@V?$_com_IIID@U_Parameter@ADOCG@@$1?_GUID_0000050c_0000_0010_8000_00aa006d2ea4@@3U__s_GUID@@B@@@@ABV_variant_t@@@Z ; ADOCG::Parameters::GetItem
PUBLIC	?PutCommandText@Command15@ADOCG@@QAEXV_bstr_t@@@Z ; ADOCG::Command15::PutCommandText
PUBLIC	?Execute@Command15@ADOCG@@QAE?AV?$_com_ptr_t@V?$_com_IIID@U_Recordset@ADOCG@@$1?_GUID_00000556_0000_0010_8000_00aa006d2ea4@@3U__s_GUID@@B@@@@PAUtagVARIANT@@0J@Z ; ADOCG::Command15::Execute
PUBLIC	?CreateParameter@Command15@ADOCG@@QAE?AV?$_com_ptr_t@V?$_com_IIID@U_Parameter@ADOCG@@$1?_GUID_0000050c_0000_0010_8000_00aa006d2ea4@@3U__s_GUID@@B@@@@V_bstr_t@@W4DataTypeEnum@2@W4ParameterDirectionEnum@2@JABV_variant_t@@@Z ; ADOCG::Command15::CreateParameter
PUBLIC	?GetParameters@Command15@ADOCG@@QAE?AV?$_com_ptr_t@V?$_com_IIID@UParameters@ADOCG@@$1?_GUID_0000050d_0000_0010_8000_00aa006d2ea4@@3U__s_GUID@@B@@@@XZ ; ADOCG::Command15::GetParameters
PUBLIC	?Close@Connection15@ADOCG@@QAEJXZ		; ADOCG::Connection15::Close
PUBLIC	?Execute@Connection15@ADOCG@@QAE?AV?$_com_ptr_t@V?$_com_IIID@U_Recordset@ADOCG@@$1?_GUID_00000556_0000_0010_8000_00aa006d2ea4@@3U__s_GUID@@B@@@@V_bstr_t@@PAUtagVARIANT@@J@Z ; ADOCG::Connection15::Execute
PUBLIC	?Open@Connection15@ADOCG@@QAEJV_bstr_t@@00J@Z	; ADOCG::Connection15::Open
PUBLIC	?GetErrors@Connection15@ADOCG@@QAE?AV?$_com_ptr_t@V?$_com_IIID@UErrors@ADOCG@@$1?_GUID_00000501_0000_0010_8000_00aa006d2ea4@@3U__s_GUID@@B@@@@XZ ; ADOCG::Connection15::GetErrors
PUBLIC	?GetState@Connection15@ADOCG@@QAEJXZ		; ADOCG::Connection15::GetState
PUBLIC	?GetEndOfFile@Recordset15@ADOCG@@QAEFXZ		; ADOCG::Recordset15::GetEndOfFile
PUBLIC	?GetFields@Recordset15@ADOCG@@QAE?AV?$_com_ptr_t@V?$_com_IIID@UFields@ADOCG@@$1?_GUID_00000564_0000_0010_8000_00aa006d2ea4@@3U__s_GUID@@B@@@@XZ ; ADOCG::Recordset15::GetFields
PUBLIC	?Close@Recordset15@ADOCG@@QAEJXZ		; ADOCG::Recordset15::Close
PUBLIC	?Open@Recordset15@ADOCG@@QAEJABV_variant_t@@0W4CursorTypeEnum@2@W4LockTypeEnum@2@J@Z ; ADOCG::Recordset15::Open
PUBLIC	?GetState@Recordset15@ADOCG@@QAEJXZ		; ADOCG::Recordset15::GetState
PUBLIC	?NextRecordset@Recordset15@ADOCG@@QAE?AV?$_com_ptr_t@V?$_com_IIID@U_Recordset@ADOCG@@$1?_GUID_00000556_0000_0010_8000_00aa006d2ea4@@3U__s_GUID@@B@@@@PAUtagVARIANT@@@Z ; ADOCG::Recordset15::NextRecordset
PUBLIC	??1?$_com_ptr_t@V?$_com_IIID@UError@ADOCG@@$1?_GUID_00000500_0000_0010_8000_00aa006d2ea4@@3U__s_GUID@@B@@@@QAE@XZ ; _com_ptr_t<_com_IIID<ADOCG::Error,&_GUID_00000500_0000_0010_8000_00aa006d2ea4> >::~_com_ptr_t<_com_IIID<ADOCG::Error,&_GUID_00000500_0000_0010_8000_00aa006d2ea4> >
PUBLIC	??1?$_com_ptr_t@V?$_com_IIID@UField@ADOCG@@$1?_GUID_00000569_0000_0010_8000_00aa006d2ea4@@3U__s_GUID@@B@@@@QAE@XZ ; _com_ptr_t<_com_IIID<ADOCG::Field,&_GUID_00000569_0000_0010_8000_00aa006d2ea4> >::~_com_ptr_t<_com_IIID<ADOCG::Field,&_GUID_00000569_0000_0010_8000_00aa006d2ea4> >
PUBLIC	??1?$_com_ptr_t@V?$_com_IIID@U_Parameter@ADOCG@@$1?_GUID_0000050c_0000_0010_8000_00aa006d2ea4@@3U__s_GUID@@B@@@@QAE@XZ ; _com_ptr_t<_com_IIID<ADOCG::_Parameter,&_GUID_0000050c_0000_0010_8000_00aa006d2ea4> >::~_com_ptr_t<_com_IIID<ADOCG::_Parameter,&_GUID_0000050c_0000_0010_8000_00aa006d2ea4> >
PUBLIC	??1?$_com_ptr_t@V?$_com_IIID@U_Connection@ADOCG@@$1?_GUID_00000550_0000_0010_8000_00aa006d2ea4@@3U__s_GUID@@B@@@@QAE@XZ ; _com_ptr_t<_com_IIID<ADOCG::_Connection,&_GUID_00000550_0000_0010_8000_00aa006d2ea4> >::~_com_ptr_t<_com_IIID<ADOCG::_Connection,&_GUID_00000550_0000_0010_8000_00aa006d2ea4> >
PUBLIC	??C?$_com_ptr_t@V?$_com_IIID@U_Connection@ADOCG@@$1?_GUID_00000550_0000_0010_8000_00aa006d2ea4@@3U__s_GUID@@B@@@@QBEPAU_Connection@ADOCG@@XZ ; _com_ptr_t<_com_IIID<ADOCG::_Connection,&_GUID_00000550_0000_0010_8000_00aa006d2ea4> >::operator->
PUBLIC	?Release@?$_com_ptr_t@V?$_com_IIID@U_Connection@ADOCG@@$1?_GUID_00000550_0000_0010_8000_00aa006d2ea4@@3U__s_GUID@@B@@@@QAEXXZ ; _com_ptr_t<_com_IIID<ADOCG::_Connection,&_GUID_00000550_0000_0010_8000_00aa006d2ea4> >::Release
PUBLIC	?CreateInstance@?$_com_ptr_t@V?$_com_IIID@U_Connection@ADOCG@@$1?_GUID_00000550_0000_0010_8000_00aa006d2ea4@@3U__s_GUID@@B@@@@QAEJABU_GUID@@PAUIUnknown@@K@Z ; _com_ptr_t<_com_IIID<ADOCG::_Connection,&_GUID_00000550_0000_0010_8000_00aa006d2ea4> >::CreateInstance
PUBLIC	??1?$_com_ptr_t@V?$_com_IIID@U_Recordset@ADOCG@@$1?_GUID_00000556_0000_0010_8000_00aa006d2ea4@@3U__s_GUID@@B@@@@QAE@XZ ; _com_ptr_t<_com_IIID<ADOCG::_Recordset,&_GUID_00000556_0000_0010_8000_00aa006d2ea4> >::~_com_ptr_t<_com_IIID<ADOCG::_Recordset,&_GUID_00000556_0000_0010_8000_00aa006d2ea4> >
PUBLIC	??C?$_com_ptr_t@V?$_com_IIID@U_Recordset@ADOCG@@$1?_GUID_00000556_0000_0010_8000_00aa006d2ea4@@3U__s_GUID@@B@@@@QBEPAU_Recordset@ADOCG@@XZ ; _com_ptr_t<_com_IIID<ADOCG::_Recordset,&_GUID_00000556_0000_0010_8000_00aa006d2ea4> >::operator->
PUBLIC	??B?$_com_ptr_t@V?$_com_IIID@U_Recordset@ADOCG@@$1?_GUID_00000556_0000_0010_8000_00aa006d2ea4@@3U__s_GUID@@B@@@@QBE_NXZ ; _com_ptr_t<_com_IIID<ADOCG::_Recordset,&_GUID_00000556_0000_0010_8000_00aa006d2ea4> >::operator bool
PUBLIC	?Release@?$_com_ptr_t@V?$_com_IIID@U_Recordset@ADOCG@@$1?_GUID_00000556_0000_0010_8000_00aa006d2ea4@@3U__s_GUID@@B@@@@QAEXXZ ; _com_ptr_t<_com_IIID<ADOCG::_Recordset,&_GUID_00000556_0000_0010_8000_00aa006d2ea4> >::Release
PUBLIC	?CreateInstance@?$_com_ptr_t@V?$_com_IIID@U_Recordset@ADOCG@@$1?_GUID_00000556_0000_0010_8000_00aa006d2ea4@@3U__s_GUID@@B@@@@QAEJABU_GUID@@PAUIUnknown@@K@Z ; _com_ptr_t<_com_IIID<ADOCG::_Recordset,&_GUID_00000556_0000_0010_8000_00aa006d2ea4> >::CreateInstance
PUBLIC	??1?$_com_ptr_t@V?$_com_IIID@UParameters@ADOCG@@$1?_GUID_0000050d_0000_0010_8000_00aa006d2ea4@@3U__s_GUID@@B@@@@QAE@XZ ; _com_ptr_t<_com_IIID<ADOCG::Parameters,&_GUID_0000050d_0000_0010_8000_00aa006d2ea4> >::~_com_ptr_t<_com_IIID<ADOCG::Parameters,&_GUID_0000050d_0000_0010_8000_00aa006d2ea4> >
PUBLIC	??1?$_com_ptr_t@V?$_com_IIID@UErrors@ADOCG@@$1?_GUID_00000501_0000_0010_8000_00aa006d2ea4@@3U__s_GUID@@B@@@@QAE@XZ ; _com_ptr_t<_com_IIID<ADOCG::Errors,&_GUID_00000501_0000_0010_8000_00aa006d2ea4> >::~_com_ptr_t<_com_IIID<ADOCG::Errors,&_GUID_00000501_0000_0010_8000_00aa006d2ea4> >
PUBLIC	??1?$_com_ptr_t@V?$_com_IIID@UFields@ADOCG@@$1?_GUID_00000564_0000_0010_8000_00aa006d2ea4@@3U__s_GUID@@B@@@@QAE@XZ ; _com_ptr_t<_com_IIID<ADOCG::Fields,&_GUID_00000564_0000_0010_8000_00aa006d2ea4> >::~_com_ptr_t<_com_IIID<ADOCG::Fields,&_GUID_00000564_0000_0010_8000_00aa006d2ea4> >
PUBLIC	??0CDataBaseException@@QAE@XZ			; CDataBaseException::CDataBaseException
PUBLIC	??1CDataBaseException@@UAE@XZ			; CDataBaseException::~CDataBaseException
PUBLIC	?Release@CDataBaseException@@UAEXXZ		; CDataBaseException::Release
PUBLIC	?QueryInterface@CDataBaseException@@UAEPAXABU_GUID@@K@Z ; CDataBaseException::QueryInterface
PUBLIC	?GetExceptionResult@CDataBaseException@@UAEJXZ	; CDataBaseException::GetExceptionResult
PUBLIC	?GetExceptionDescribe@CDataBaseException@@UAEPBDXZ ; CDataBaseException::GetExceptionDescribe
PUBLIC	?GetExceptionType@CDataBaseException@@UAE?AW4enSQLException@@XZ ; CDataBaseException::GetExceptionType
PUBLIC	?SetExceptionInfo@CDataBaseException@@QAEXW4enSQLException@@PAV_com_error@@@Z ; CDataBaseException::SetExceptionInfo
PUBLIC	??_GCDataBaseException@@UAEPAXI@Z		; CDataBaseException::`scalar deleting destructor'
PUBLIC	??1?$_com_ptr_t@V?$_com_IIID@U_Command@ADOCG@@$1?_GUID_b08400bd_f9d1_4d02_b856_71d5dba123e9@@3U__s_GUID@@B@@@@QAE@XZ ; _com_ptr_t<_com_IIID<ADOCG::_Command,&_GUID_b08400bd_f9d1_4d02_b856_71d5dba123e9> >::~_com_ptr_t<_com_IIID<ADOCG::_Command,&_GUID_b08400bd_f9d1_4d02_b856_71d5dba123e9> >
PUBLIC	??B?$_com_ptr_t@V?$_com_IIID@U_Command@ADOCG@@$1?_GUID_b08400bd_f9d1_4d02_b856_71d5dba123e9@@3U__s_GUID@@B@@@@QBEPAU_Command@ADOCG@@XZ ; _com_ptr_t<_com_IIID<ADOCG::_Command,&_GUID_b08400bd_f9d1_4d02_b856_71d5dba123e9> >::operator ADOCG::_Command *
PUBLIC	??C?$_com_ptr_t@V?$_com_IIID@U_Command@ADOCG@@$1?_GUID_b08400bd_f9d1_4d02_b856_71d5dba123e9@@3U__s_GUID@@B@@@@QBEPAU_Command@ADOCG@@XZ ; _com_ptr_t<_com_IIID<ADOCG::_Command,&_GUID_b08400bd_f9d1_4d02_b856_71d5dba123e9> >::operator->
PUBLIC	?Release@?$_com_ptr_t@V?$_com_IIID@U_Command@ADOCG@@$1?_GUID_b08400bd_f9d1_4d02_b856_71d5dba123e9@@3U__s_GUID@@B@@@@QAEXXZ ; _com_ptr_t<_com_IIID<ADOCG::_Command,&_GUID_b08400bd_f9d1_4d02_b856_71d5dba123e9> >::Release
PUBLIC	?CreateInstance@?$_com_ptr_t@V?$_com_IIID@U_Command@ADOCG@@$1?_GUID_b08400bd_f9d1_4d02_b856_71d5dba123e9@@3U__s_GUID@@B@@@@QAEJABU_GUID@@PAUIUnknown@@K@Z ; _com_ptr_t<_com_IIID<ADOCG::_Command,&_GUID_b08400bd_f9d1_4d02_b856_71d5dba123e9> >::CreateInstance
PUBLIC	??0CDataBase@@QAE@XZ				; CDataBase::CDataBase
PUBLIC	??1CDataBase@@UAE@XZ				; CDataBase::~CDataBase
PUBLIC	?Release@CDataBase@@UAEXXZ			; CDataBase::Release
PUBLIC	?QueryInterface@CDataBase@@UAEPAXABU_GUID@@K@Z	; CDataBase::QueryInterface
PUBLIC	?OpenConnection@CDataBase@@UAEXXZ		; CDataBase::OpenConnection
PUBLIC	?CloseConnection@CDataBase@@UAEXXZ		; CDataBase::CloseConnection
PUBLIC	?SetConnectionInfo@CDataBase@@UAE_NKGPBD00@Z	; CDataBase::SetConnectionInfo
PUBLIC	?SetConnectionInfo@CDataBase@@UAE_NPBDG000@Z	; CDataBase::SetConnectionInfo
PUBLIC	?ClearParameters@CDataBase@@UAEXXZ		; CDataBase::ClearParameters
PUBLIC	?GetParameter@CDataBase@@UAEXPBDAAV_variant_t@@@Z ; CDataBase::GetParameter
PUBLIC	?AddParameter@CDataBase@@UAEXPBDW4DataTypeEnum@ADOCG@@W4ParameterDirectionEnum@3@JAAV_variant_t@@@Z ; CDataBase::AddParameter
PUBLIC	?NextRecordset@CDataBase@@UAEXXZ		; CDataBase::NextRecordset
PUBLIC	?CloseRecordset@CDataBase@@UAEXXZ		; CDataBase::CloseRecordset
PUBLIC	?BindToRecordset@CDataBase@@UAEXPAVCADORecordBinding@@@Z ; CDataBase::BindToRecordset
PUBLIC	?MoveToNext@CDataBase@@UAEXXZ			; CDataBase::MoveToNext
PUBLIC	?MoveToFirst@CDataBase@@UAEXXZ			; CDataBase::MoveToFirst
PUBLIC	?IsRecordsetEnd@CDataBase@@UAE_NXZ		; CDataBase::IsRecordsetEnd
PUBLIC	?GetRecordCount@CDataBase@@UAEJXZ		; CDataBase::GetRecordCount
PUBLIC	?GetReturnValue@CDataBase@@UAEJXZ		; CDataBase::GetReturnValue
PUBLIC	?GetRecordsetValue@CDataBase@@UAEXPBDAAV_variant_t@@@Z ; CDataBase::GetRecordsetValue
PUBLIC	?ExecuteProcess@CDataBase@@UAEXPBD_N@Z		; CDataBase::ExecuteProcess
PUBLIC	?ExecuteSentence@CDataBase@@UAEXPBD_N@Z		; CDataBase::ExecuteSentence
PUBLIC	?IsConnectError@CDataBase@@IAE_NXZ		; CDataBase::IsConnectError
PUBLIC	?IsRecordsetOpened@CDataBase@@IAE_NXZ		; CDataBase::IsRecordsetOpened
PUBLIC	?TryConnectAgain@CDataBase@@IAE_NPAV_com_error@@@Z ; CDataBase::TryConnectAgain
PUBLIC	?ConvertToSQLSyntax@CDataBase@@IAEXPBDAAV?$CStringT@DV?$StrTraitMFC_DLL@DV?$ChTraitsCRT@D@ATL@@@@@ATL@@@Z ; CDataBase::ConvertToSQLSyntax
PUBLIC	?OnSQLException@CDataBase@@IAEXW4enSQLException@@PAV_com_error@@@Z ; CDataBase::OnSQLException
PUBLIC	??_GCDataBase@@UAEPAXI@Z			; CDataBase::`scalar deleting destructor'
PUBLIC	??0CDataBaseEngine@@QAE@XZ			; CDataBaseEngine::CDataBaseEngine
PUBLIC	??1CDataBaseEngine@@UAE@XZ			; CDataBaseEngine::~CDataBaseEngine
PUBLIC	?Release@CDataBaseEngine@@UAEXXZ		; CDataBaseEngine::Release
PUBLIC	?QueryInterface@CDataBaseEngine@@UAEPAXABU_GUID@@K@Z ; CDataBaseEngine::QueryInterface
PUBLIC	?StartService@CDataBaseEngine@@UAE_NXZ		; CDataBaseEngine::StartService
PUBLIC	?ConcludeService@CDataBaseEngine@@UAE_NXZ	; CDataBaseEngine::ConcludeService
PUBLIC	?GetBurthenInfo@CDataBaseEngine@@UAE_NAAUtagBurthenInfo@@@Z ; CDataBaseEngine::GetBurthenInfo
PUBLIC	?SetDataBaseEngineSink@CDataBaseEngine@@UAE_NPAUIUnknownEx@@@Z ; CDataBaseEngine::SetDataBaseEngineSink
PUBLIC	?SetDataBaseEngineSink@CDataBaseEngine@@UAE_NQAPAUIUnknownEx@@G@Z ; CDataBaseEngine::SetDataBaseEngineSink
PUBLIC	?PostDataBaseControl@CDataBaseEngine@@UAE_NGPAXG@Z ; CDataBaseEngine::PostDataBaseControl
PUBLIC	?PostDataBaseRequest@CDataBaseEngine@@UAE_NGKPAXG@Z ; CDataBaseEngine::PostDataBaseRequest
PUBLIC	?DeferDataBaseRequest@CDataBaseEngine@@UAE_NGKPAXG@Z ; CDataBaseEngine::DeferDataBaseRequest
PUBLIC	?OnAsynchronismEngineStart@CDataBaseEngine@@UAE_NXZ ; CDataBaseEngine::OnAsynchronismEngineStart
PUBLIC	?OnAsynchronismEngineConclude@CDataBaseEngine@@UAE_NXZ ; CDataBaseEngine::OnAsynchronismEngineConclude
PUBLIC	?OnAsynchronismEngineData@CDataBaseEngine@@UAE_NGPAXG@Z ; CDataBaseEngine::OnAsynchronismEngineData
PUBLIC	??_GCDataBaseEngine@@UAEPAXI@Z			; CDataBaseEngine::`scalar deleting destructor'
PUBLIC	??$?4UIADORecordBinding@@@?$_com_ptr_t@V?$_com_IIID@UIADORecordBinding@@$1?_GUID_00000544_0000_0010_8000_00aa006d2ea4@@3U__s_GUID@@B@@@@QAEAAV0@PAUIADORecordBinding@@@Z ; _com_ptr_t<_com_IIID<IADORecordBinding,&_GUID_00000544_0000_0010_8000_00aa006d2ea4> >::operator=<IADORecordBinding>
PUBLIC	??1?$_com_ptr_t@V?$_com_IIID@UIADORecordBinding@@$1?_GUID_00000544_0000_0010_8000_00aa006d2ea4@@3U__s_GUID@@B@@@@QAE@XZ ; _com_ptr_t<_com_IIID<IADORecordBinding,&_GUID_00000544_0000_0010_8000_00aa006d2ea4> >::~_com_ptr_t<_com_IIID<IADORecordBinding,&_GUID_00000544_0000_0010_8000_00aa006d2ea4> >
PUBLIC	??$?0V?$_com_IIID@U_Recordset@ADOCG@@$1?_GUID_00000556_0000_0010_8000_00aa006d2ea4@@3U__s_GUID@@B@@@?$_com_ptr_t@V?$_com_IIID@UIADORecordBinding@@$1?_GUID_00000544_0000_0010_8000_00aa006d2ea4@@3U__s_GUID@@B@@@@QAE@ABV?$_com_ptr_t@V?$_com_IIID@U_Recordset@ADOCG@@$1?_GUID_00000556_0000_0010_8000_00aa006d2ea4@@3U__s_GUID@@B@@@@@Z ; _com_ptr_t<_com_IIID<IADORecordBinding,&_GUID_00000544_0000_0010_8000_00aa006d2ea4> >::_com_ptr_t<_com_IIID<IADORecordBinding,&_GUID_00000544_0000_0010_8000_00aa006d2ea4> ><_com_IIID<ADOCG::_Recordset,&_GUID_00000556_0000_0010_8000_00aa006d2ea4> >
PUBLIC	_CreateDataBase
PUBLIC	_CreateDataBaseEngine
PUBLIC	??$_Maklocstr@D@std@@YAPADPBDPADABU_Cvtvec@@@Z	; std::_Maklocstr<char>
PUBLIC	??$_QueryInterface@V?$_com_ptr_t@V?$_com_IIID@U_Recordset@ADOCG@@$1?_GUID_00000556_0000_0010_8000_00aa006d2ea4@@3U__s_GUID@@B@@@@@?$_com_ptr_t@V?$_com_IIID@UIADORecordBinding@@$1?_GUID_00000544_0000_0010_8000_00aa006d2ea4@@3U__s_GUID@@B@@@@AAEJV?$_com_ptr_t@V?$_com_IIID@U_Recordset@ADOCG@@$1?_GUID_00000556_0000_0010_8000_00aa006d2ea4@@3U__s_GUID@@B@@@@@Z ; _com_ptr_t<_com_IIID<IADORecordBinding,&_GUID_00000544_0000_0010_8000_00aa006d2ea4> >::_QueryInterface<_com_ptr_t<_com_IIID<ADOCG::_Recordset,&_GUID_00000556_0000_0010_8000_00aa006d2ea4> > >
PUBLIC	?Release@CDataBaseEngine@@W3AEXXZ		; [thunk]:CDataBaseEngine::Release`adjustor{4}'
PUBLIC	?QueryInterface@CDataBaseEngine@@W3AEPAXABU_GUID@@K@Z ; [thunk]:CDataBaseEngine::QueryInterface`adjustor{4}'
PUBLIC	?atlTraceException@ATL@@3V?$CTraceCategoryEx@$0CAAA@$0A@@1@A ; ATL::atlTraceException
PUBLIC	??_C@_11LOCGONAA@@				; `string'
PUBLIC	__GUID_00000000_0000_0000_c000_000000000046
PUBLIC	??_C@_0GI@LKBGDILM@c?3?2program?5files?5?$CIx86?$CJ?2microsof@ ; `string'
PUBLIC	??_C@_0GI@DJFLDKBN@c?3?2program?5files?5?$CIx86?$CJ?2microsof@ ; `string'
PUBLIC	??_7IUnknownEx@@6B@				; IUnknownEx::`vftable'
PUBLIC	__GUID_00000512_0000_0010_8000_00aa006d2ea4
PUBLIC	__GUID_00000513_0000_0010_8000_00aa006d2ea4
PUBLIC	__GUID_00000500_0000_0010_8000_00aa006d2ea4
PUBLIC	__GUID_00000501_0000_0010_8000_00aa006d2ea4
PUBLIC	__GUID_0000054c_0000_0010_8000_00aa006d2ea4
PUBLIC	__GUID_00000506_0000_0010_8000_00aa006d2ea4
PUBLIC	__GUID_0000050c_0000_0010_8000_00aa006d2ea4
PUBLIC	__GUID_0000050d_0000_0010_8000_00aa006d2ea4
PUBLIC	__GUID_00000508_0000_0010_8000_00aa006d2ea4
PUBLIC	__GUID_b08400bd_f9d1_4d02_b856_71d5dba123e9
PUBLIC	__GUID_00000515_0000_0010_8000_00aa006d2ea4
PUBLIC	__GUID_00000550_0000_0010_8000_00aa006d2ea4
PUBLIC	__GUID_0000050e_0000_0010_8000_00aa006d2ea4
PUBLIC	__GUID_00000556_0000_0010_8000_00aa006d2ea4
PUBLIC	??_7IDataBaseException@@6B@			; IDataBaseException::`vftable'
PUBLIC	??_7IServiceModule@@6B@				; IServiceModule::`vftable'
PUBLIC	??_7IAsynchronismEngineSink@@6B@		; IAsynchronismEngineSink::`vftable'
PUBLIC	??_7IDataBase@@6B@				; IDataBase::`vftable'
PUBLIC	??_7IDataBaseEngine@@6B@			; IDataBaseEngine::`vftable'
PUBLIC	??_7CDataBaseException@@6B@			; CDataBaseException::`vftable'
PUBLIC	??_7CDataBase@@6B@				; CDataBase::`vftable'
PUBLIC	??_7CDataBaseEngine@@6BIDataBaseEngine@@@	; CDataBaseEngine::`vftable'
PUBLIC	??_7CDataBaseEngine@@6BIAsynchronismEngineSink@@@ ; CDataBaseEngine::`vftable'
PUBLIC	__GUID_00000544_0000_0010_8000_00aa006d2ea4
PUBLIC	??_C@_0EL@CJALAN@g?3?2?M?x?$LK?$PM?2happygamewh?2?$LH?$PO?N?q?$LG?K?2?O?$LF?M?$LD@ ; `string'
PUBLIC	??_C@_0BJ@LMLDDKOC@?J?$PN?$LO?$NN?$LP?b?R?l?$LD?$KD?$KD?$LK?$CFs?5?$FL?50x?$CF8x?5?$FN@ ; `string'
PUBLIC	__GUID_00000507_0000_0010_8000_00aa006d2ea4
PUBLIC	__GUID_00000535_0000_0010_8000_00aa006d2ea4
PUBLIC	__GUID_00000514_0000_0010_8000_00aa006d2ea4
PUBLIC	__TI2PAD
PUBLIC	__CTA2PAD
PUBLIC	??_R0PAD@8					; char * `RTTI Type Descriptor'
PUBLIC	__CT??_R0PAD@84
PUBLIC	??_R0PAX@8					; void * `RTTI Type Descriptor'
PUBLIC	__CT??_R0PAX@84
PUBLIC	??_C@_0BH@DNPDBMEB@?J?$PN?$LO?$NN?$LP?b?C?$PM?A?n?$LG?T?O?s?$LE?$LE?$LN?$KI?J?$KH?$LA?$NM@ ; `string'
PUBLIC	??_C@_0BJ@NODHBELB@?J?$PN?$LO?$NN?$LP?b?$LM?G?B?$LM?$LM?$KP?$LG?T?O?s?$LE?$LE?$LN?$KI?J?$KH?$LA?$NM@ ; `string'
PUBLIC	??_C@_0BH@HOBDADEF@?J?$PN?$LO?$NN?$LP?b?A?$KM?$LN?S?$LG?T?O?s?$LE?$LE?$LN?$KI?J?$KH?$LA?$NM@ ; `string'
PUBLIC	??_R0?AV_com_error@@@8				; _com_error `RTTI Type Descriptor'
PUBLIC	??_C@_0HG@LOMGLDLL@Provider?$DNSQLOLEDB?41?$DLPassword?$DN?$CFs@ ; `string'
PUBLIC	??_C@_0GN@FNOGLIHG@Provider?$DNSQLOLEDB?41?$DLPassword?$DN?$CFs@ ; `string'
PUBLIC	??_C@_0CF@EJOIAEJA@?J?$PN?$LO?$NN?$LP?b?A?$KM?$LN?S?V?P?$LG?O?$KD?$KM?I?T?$LK?s?$LN?$KL?$LL?a?$LD?$KC?J?T?V?X?P@ ; `string'
PUBLIC	??_C@_0BD@KFKKGENF@?$LD?I?$LJ?$KG?V?X?P?B?A?$KM?$LN?S?J?$PN?$LO?$NN?$LP?b@ ; `string'
PUBLIC	??_R0PAUIDataBaseException@@@8			; IDataBaseException * `RTTI Type Descriptor'
PUBLIC	__TI4PAVCDataBaseException@@
PUBLIC	__CTA4PAVCDataBaseException@@
PUBLIC	??_R0PAVCDataBaseException@@@8			; CDataBaseException * `RTTI Type Descriptor'
PUBLIC	__CT??_R0PAVCDataBaseException@@@84
PUBLIC	__CT??_R0PAUIDataBaseException@@@84
PUBLIC	??_R0PAUIUnknownEx@@@8				; IUnknownEx * `RTTI Type Descriptor'
PUBLIC	__CT??_R0PAUIUnknownEx@@@84
PUBLIC	??_C@_0CI@PJBLFBKN@?C?$LL?S?P?J?$LF?O?VCDataBaseEngine?3?3GetBur@ ; `string'
PUBLIC	??_C@_08HBOFLKLL@?$LE?$LE?$LN?$KI?J?$KH?$LA?$NM@ ; `string'
PUBLIC	??_C@_0N@DLOPLLLM@?$LN?S?$LP?Z?$LC?i?Q?$KP?J?$KH?$LA?$NM@ ; `string'
PUBLIC	??_C@_0N@LPFKKEBD@?3AM?3am?3PM?3pm@		; `string'
PUBLIC	??_C@_1BK@MHIKGOKE@?$AA?3?$AAA?$AAM?$AA?3?$AAa?$AAm?$AA?3?$AAP?$AAM?$AA?3?$AAp?$AAm@ ; `string'
PUBLIC	??_R4IUnknownEx@@6B@				; IUnknownEx::`RTTI Complete Object Locator'
PUBLIC	??_R0?AUIUnknownEx@@@8				; IUnknownEx `RTTI Type Descriptor'
PUBLIC	??_R3IUnknownEx@@8				; IUnknownEx::`RTTI Class Hierarchy Descriptor'
PUBLIC	??_R2IUnknownEx@@8				; IUnknownEx::`RTTI Base Class Array'
PUBLIC	??_R1A@?0A@EA@IUnknownEx@@8			; IUnknownEx::`RTTI Base Class Descriptor at (0,-1,0,64)'
PUBLIC	??_R4IDataBaseException@@6B@			; IDataBaseException::`RTTI Complete Object Locator'
PUBLIC	??_R0?AUIDataBaseException@@@8			; IDataBaseException `RTTI Type Descriptor'
PUBLIC	??_R3IDataBaseException@@8			; IDataBaseException::`RTTI Class Hierarchy Descriptor'
PUBLIC	??_R2IDataBaseException@@8			; IDataBaseException::`RTTI Base Class Array'
PUBLIC	??_R1A@?0A@EA@IDataBaseException@@8		; IDataBaseException::`RTTI Base Class Descriptor at (0,-1,0,64)'
PUBLIC	??_R4IServiceModule@@6B@			; IServiceModule::`RTTI Complete Object Locator'
PUBLIC	??_R0?AUIServiceModule@@@8			; IServiceModule `RTTI Type Descriptor'
PUBLIC	??_R3IServiceModule@@8				; IServiceModule::`RTTI Class Hierarchy Descriptor'
PUBLIC	??_R2IServiceModule@@8				; IServiceModule::`RTTI Base Class Array'
PUBLIC	??_R1A@?0A@EA@IServiceModule@@8			; IServiceModule::`RTTI Base Class Descriptor at (0,-1,0,64)'
PUBLIC	??_R4IAsynchronismEngineSink@@6B@		; IAsynchronismEngineSink::`RTTI Complete Object Locator'
PUBLIC	??_R0?AUIAsynchronismEngineSink@@@8		; IAsynchronismEngineSink `RTTI Type Descriptor'
PUBLIC	??_R3IAsynchronismEngineSink@@8			; IAsynchronismEngineSink::`RTTI Class Hierarchy Descriptor'
PUBLIC	??_R2IAsynchronismEngineSink@@8			; IAsynchronismEngineSink::`RTTI Base Class Array'
PUBLIC	??_R1A@?0A@EA@IAsynchronismEngineSink@@8	; IAsynchronismEngineSink::`RTTI Base Class Descriptor at (0,-1,0,64)'
PUBLIC	??_R4IDataBase@@6B@				; IDataBase::`RTTI Complete Object Locator'
PUBLIC	??_R0?AUIDataBase@@@8				; IDataBase `RTTI Type Descriptor'
PUBLIC	??_R3IDataBase@@8				; IDataBase::`RTTI Class Hierarchy Descriptor'
PUBLIC	??_R2IDataBase@@8				; IDataBase::`RTTI Base Class Array'
PUBLIC	??_R1A@?0A@EA@IDataBase@@8			; IDataBase::`RTTI Base Class Descriptor at (0,-1,0,64)'
PUBLIC	??_R4IDataBaseEngine@@6B@			; IDataBaseEngine::`RTTI Complete Object Locator'
PUBLIC	??_R0?AUIDataBaseEngine@@@8			; IDataBaseEngine `RTTI Type Descriptor'
PUBLIC	??_R3IDataBaseEngine@@8				; IDataBaseEngine::`RTTI Class Hierarchy Descriptor'
PUBLIC	??_R2IDataBaseEngine@@8				; IDataBaseEngine::`RTTI Base Class Array'
PUBLIC	??_R1A@?0A@EA@IDataBaseEngine@@8		; IDataBaseEngine::`RTTI Base Class Descriptor at (0,-1,0,64)'
PUBLIC	??_R4CDataBaseException@@6B@			; CDataBaseException::`RTTI Complete Object Locator'
PUBLIC	??_R0?AVCDataBaseException@@@8			; CDataBaseException `RTTI Type Descriptor'
PUBLIC	??_R3CDataBaseException@@8			; CDataBaseException::`RTTI Class Hierarchy Descriptor'
PUBLIC	??_R2CDataBaseException@@8			; CDataBaseException::`RTTI Base Class Array'
PUBLIC	??_R1A@?0A@EA@CDataBaseException@@8		; CDataBaseException::`RTTI Base Class Descriptor at (0,-1,0,64)'
PUBLIC	??_R4CDataBase@@6B@				; CDataBase::`RTTI Complete Object Locator'
PUBLIC	??_R0?AVCDataBase@@@8				; CDataBase `RTTI Type Descriptor'
PUBLIC	??_R3CDataBase@@8				; CDataBase::`RTTI Class Hierarchy Descriptor'
PUBLIC	??_R2CDataBase@@8				; CDataBase::`RTTI Base Class Array'
PUBLIC	??_R1A@?0A@EA@CDataBase@@8			; CDataBase::`RTTI Base Class Descriptor at (0,-1,0,64)'
PUBLIC	??_R4CDataBaseEngine@@6BIDataBaseEngine@@@	; CDataBaseEngine::`RTTI Complete Object Locator'
PUBLIC	??_R0?AVCDataBaseEngine@@@8			; CDataBaseEngine `RTTI Type Descriptor'
PUBLIC	??_R3CDataBaseEngine@@8				; CDataBaseEngine::`RTTI Class Hierarchy Descriptor'
PUBLIC	??_R2CDataBaseEngine@@8				; CDataBaseEngine::`RTTI Base Class Array'
PUBLIC	??_R1A@?0A@EA@CDataBaseEngine@@8		; CDataBaseEngine::`RTTI Base Class Descriptor at (0,-1,0,64)'
PUBLIC	??_R1A@?0A@EC@IUnknownEx@@8			; IUnknownEx::`RTTI Base Class Descriptor at (0,-1,0,66)'
PUBLIC	??_R13?0A@EA@IAsynchronismEngineSink@@8		; IAsynchronismEngineSink::`RTTI Base Class Descriptor at (4,-1,0,64)'
PUBLIC	??_R13?0A@EC@IUnknownEx@@8			; IUnknownEx::`RTTI Base Class Descriptor at (4,-1,0,66)'
PUBLIC	??_R4CDataBaseEngine@@6BIAsynchronismEngineSink@@@ ; CDataBaseEngine::`RTTI Complete Object Locator'
EXTRN	__purecall:PROC
EXTRN	??2@YAPAXI@Z:PROC				; operator new
EXTRN	??3@YAXPAXI@Z:PROC				; operator delete
EXTRN	??_V@YAXPAX@Z:PROC				; operator delete[]
EXTRN	__imp___invalid_parameter_noinfo:PROC
EXTRN	__imp___errno:PROC
EXTRN	__imp__wcscpy_s:PROC
EXTRN	__imp__lstrlenA@4:PROC
EXTRN	__imp__PeekMessageA@20:PROC
EXTRN	__imp__PostQuitMessage@4:PROC
EXTRN	__imp____stdio_common_vswprintf_s:PROC
EXTRN	__imp___time64:PROC
EXTRN	__imp___calloc_dbg:PROC
EXTRN	__imp___CrtDbgReport:PROC
EXTRN	__imp___CrtDbgReportW:PROC
EXTRN	__imp__CoCreateInstance@20:PROC
EXTRN	__imp__CoInitialize@4:PROC
EXTRN	__imp__SysAllocString@4:PROC
EXTRN	__imp__SysFreeString@4:PROC
EXTRN	__imp__SysStringByteLen@4:PROC
EXTRN	__imp__SysAllocStringByteLen@8:PROC
EXTRN	__imp__VariantInit@4:PROC
EXTRN	__imp__VariantClear@4:PROC
EXTRN	__imp__VariantCopy@8:PROC
EXTRN	__imp__OleRun@4:PROC
EXTRN	__imp_??B?$CSimpleStringT@D$00@ATL@@QBEPBDXZ:PROC
EXTRN	__imp_?GetBufferSetLength@?$CSimpleStringT@D$00@ATL@@QAEPADH@Z:PROC
EXTRN	__imp_?ReleaseBuffer@?$CSimpleStringT@D$00@ATL@@QAEXH@Z:PROC
EXTRN	__imp_??0?$CStringT@DV?$StrTraitMFC_DLL@DV?$ChTraitsCRT@D@ATL@@@@@ATL@@QAE@XZ:PROC
EXTRN	__imp_??1?$CStringT@DV?$StrTraitMFC_DLL@DV?$ChTraitsCRT@D@ATL@@@@@ATL@@QAE@XZ:PROC
EXTRN	__imp_?Format@?$CStringT@DV?$StrTraitMFC_DLL@DV?$ChTraitsCRT@D@ATL@@@@@ATL@@QAAXPBDZZ:PROC
EXTRN	?AfxMessageBox@@YGHPBDII@Z:PROC			; AfxMessageBox
EXTRN	??0CCriticalSection@@QAE@XZ:PROC		; CCriticalSection::CCriticalSection
EXTRN	??1CCriticalSection@@UAE@XZ:PROC		; CCriticalSection::~CCriticalSection
EXTRN	?_com_issue_error@@YGXJ@Z:PROC			; _com_issue_error
EXTRN	?ConvertStringToBSTR@_com_util@@YGPA_WPBD@Z:PROC ; _com_util::ConvertStringToBSTR
EXTRN	?ConvertBSTRToString@_com_util@@YGPADPA_W@Z:PROC ; _com_util::ConvertBSTRToString
EXTRN	?_Xbad_alloc@std@@YAXXZ:PROC			; std::_Xbad_alloc
EXTRN	__Mbrtowc:PROC
EXTRN	__imp_?_Getcvt@_Locinfo@std@@QBE?AU_Cvtvec@@XZ:PROC
EXTRN	__imp_?_Getdays@_Locinfo@std@@QBEPBDXZ:PROC
EXTRN	__imp_?_Getmonths@_Locinfo@std@@QBEPBDXZ:PROC
EXTRN	__imp_?_W_Getdays@_Locinfo@std@@QBEPBGXZ:PROC
EXTRN	__imp_?_W_Getmonths@_Locinfo@std@@QBEPBGXZ:PROC
EXTRN	__imp_??0CWHDataLocker@@QAE@AAVCCriticalSection@@_N@Z:PROC
EXTRN	__imp_??1CWHDataLocker@@UAE@XZ:PROC
EXTRN	?_com_issue_errorex@@YGXJPAUIUnknown@@ABU_GUID@@@Z:PROC ; _com_issue_errorex
EXTRN	??0CAsynchronismEngine@@QAE@XZ:PROC		; CAsynchronismEngine::CAsynchronismEngine
EXTRN	??1CAsynchronismEngine@@UAE@XZ:PROC		; CAsynchronismEngine::~CAsynchronismEngine
EXTRN	??_ECDataBaseException@@UAEPAXI@Z:PROC		; CDataBaseException::`vector deleting destructor'
EXTRN	??_ECDataBase@@UAEPAXI@Z:PROC			; CDataBase::`vector deleting destructor'
EXTRN	??_ECDataBaseEngine@@UAEPAXI@Z:PROC		; CDataBaseEngine::`vector deleting destructor'
EXTRN	?TraceString@CTraceServiceManager@@UAE_NPBDW4enTraceLevel@@@Z:PROC ; CTraceServiceManager::TraceString
EXTRN	@__security_check_cookie@4:PROC
EXTRN	__CxxThrowException@8:PROC
EXTRN	___CxxFrameHandler3:PROC
EXTRN	_memcmp:PROC
EXTRN	_memcpy:PROC
EXTRN	_memset:PROC
EXTRN	??_7type_info@@6B@:QWORD			; type_info::`vftable'
EXTRN	?vtMissing@@3V_variant_t@@A:BYTE		; vtMissing
EXTRN	?g_TraceServiceManager@@3VCTraceServiceManager@@A:BYTE ; g_TraceServiceManager
EXTRN	___security_cookie:DWORD
;	COMDAT ?atlTraceException@ATL@@3V?$CTraceCategoryEx@$0CAAA@$0A@@1@A
_BSS	SEGMENT
?atlTraceException@ATL@@3V?$CTraceCategoryEx@$0CAAA@$0A@@1@A DD 01H DUP (?) ; ATL::atlTraceException
_BSS	ENDS
;	COMDAT CRT$XCU
CRT$XCU	SEGMENT
?atlTraceException$initializer$@ATL@@3P6AXXZA DD FLAT:??__EatlTraceException@ATL@@YAXXZ ; ATL::atlTraceException$initializer$
CRT$XCU	ENDS
;	COMDAT ??_R4CDataBaseEngine@@6BIAsynchronismEngineSink@@@
rdata$r	SEGMENT
??_R4CDataBaseEngine@@6BIAsynchronismEngineSink@@@ DD 00H ; CDataBaseEngine::`RTTI Complete Object Locator'
	DD	04H
	DD	00H
	DD	FLAT:??_R0?AVCDataBaseEngine@@@8
	DD	FLAT:??_R3CDataBaseEngine@@8
rdata$r	ENDS
;	COMDAT ??_R13?0A@EC@IUnknownEx@@8
rdata$r	SEGMENT
??_R13?0A@EC@IUnknownEx@@8 DD FLAT:??_R0?AUIUnknownEx@@@8 ; IUnknownEx::`RTTI Base Class Descriptor at (4,-1,0,66)'
	DD	00H
	DD	04H
	DD	0ffffffffH
	DD	00H
	DD	042H
	DD	FLAT:??_R3IUnknownEx@@8
rdata$r	ENDS
;	COMDAT ??_R13?0A@EA@IAsynchronismEngineSink@@8
rdata$r	SEGMENT
??_R13?0A@EA@IAsynchronismEngineSink@@8 DD FLAT:??_R0?AUIAsynchronismEngineSink@@@8 ; IAsynchronismEngineSink::`RTTI Base Class Descriptor at (4,-1,0,64)'
	DD	01H
	DD	04H
	DD	0ffffffffH
	DD	00H
	DD	040H
	DD	FLAT:??_R3IAsynchronismEngineSink@@8
rdata$r	ENDS
;	COMDAT ??_R1A@?0A@EC@IUnknownEx@@8
rdata$r	SEGMENT
??_R1A@?0A@EC@IUnknownEx@@8 DD FLAT:??_R0?AUIUnknownEx@@@8 ; IUnknownEx::`RTTI Base Class Descriptor at (0,-1,0,66)'
	DD	00H
	DD	00H
	DD	0ffffffffH
	DD	00H
	DD	042H
	DD	FLAT:??_R3IUnknownEx@@8
rdata$r	ENDS
;	COMDAT ??_R1A@?0A@EA@CDataBaseEngine@@8
rdata$r	SEGMENT
??_R1A@?0A@EA@CDataBaseEngine@@8 DD FLAT:??_R0?AVCDataBaseEngine@@@8 ; CDataBaseEngine::`RTTI Base Class Descriptor at (0,-1,0,64)'
	DD	05H
	DD	00H
	DD	0ffffffffH
	DD	00H
	DD	040H
	DD	FLAT:??_R3CDataBaseEngine@@8
rdata$r	ENDS
;	COMDAT ??_R2CDataBaseEngine@@8
rdata$r	SEGMENT
??_R2CDataBaseEngine@@8 DD FLAT:??_R1A@?0A@EA@CDataBaseEngine@@8 ; CDataBaseEngine::`RTTI Base Class Array'
	DD	FLAT:??_R1A@?0A@EA@IDataBaseEngine@@8
	DD	FLAT:??_R1A@?0A@EA@IServiceModule@@8
	DD	FLAT:??_R1A@?0A@EC@IUnknownEx@@8
	DD	FLAT:??_R13?0A@EA@IAsynchronismEngineSink@@8
	DD	FLAT:??_R13?0A@EC@IUnknownEx@@8
rdata$r	ENDS
;	COMDAT ??_R3CDataBaseEngine@@8
rdata$r	SEGMENT
??_R3CDataBaseEngine@@8 DD 00H				; CDataBaseEngine::`RTTI Class Hierarchy Descriptor'
	DD	05H
	DD	06H
	DD	FLAT:??_R2CDataBaseEngine@@8
rdata$r	ENDS
;	COMDAT ??_R0?AVCDataBaseEngine@@@8
data$r	SEGMENT
??_R0?AVCDataBaseEngine@@@8 DD FLAT:??_7type_info@@6B@	; CDataBaseEngine `RTTI Type Descriptor'
	DD	00H
	DB	'.?AVCDataBaseEngine@@', 00H
data$r	ENDS
;	COMDAT ??_R4CDataBaseEngine@@6BIDataBaseEngine@@@
rdata$r	SEGMENT
??_R4CDataBaseEngine@@6BIDataBaseEngine@@@ DD 00H	; CDataBaseEngine::`RTTI Complete Object Locator'
	DD	00H
	DD	00H
	DD	FLAT:??_R0?AVCDataBaseEngine@@@8
	DD	FLAT:??_R3CDataBaseEngine@@8
rdata$r	ENDS
;	COMDAT ??_R1A@?0A@EA@CDataBase@@8
rdata$r	SEGMENT
??_R1A@?0A@EA@CDataBase@@8 DD FLAT:??_R0?AVCDataBase@@@8 ; CDataBase::`RTTI Base Class Descriptor at (0,-1,0,64)'
	DD	02H
	DD	00H
	DD	0ffffffffH
	DD	00H
	DD	040H
	DD	FLAT:??_R3CDataBase@@8
rdata$r	ENDS
;	COMDAT ??_R2CDataBase@@8
rdata$r	SEGMENT
??_R2CDataBase@@8 DD FLAT:??_R1A@?0A@EA@CDataBase@@8	; CDataBase::`RTTI Base Class Array'
	DD	FLAT:??_R1A@?0A@EA@IDataBase@@8
	DD	FLAT:??_R1A@?0A@EA@IUnknownEx@@8
rdata$r	ENDS
;	COMDAT ??_R3CDataBase@@8
rdata$r	SEGMENT
??_R3CDataBase@@8 DD 00H				; CDataBase::`RTTI Class Hierarchy Descriptor'
	DD	00H
	DD	03H
	DD	FLAT:??_R2CDataBase@@8
rdata$r	ENDS
;	COMDAT ??_R0?AVCDataBase@@@8
data$r	SEGMENT
??_R0?AVCDataBase@@@8 DD FLAT:??_7type_info@@6B@	; CDataBase `RTTI Type Descriptor'
	DD	00H
	DB	'.?AVCDataBase@@', 00H
data$r	ENDS
;	COMDAT ??_R4CDataBase@@6B@
rdata$r	SEGMENT
??_R4CDataBase@@6B@ DD 00H				; CDataBase::`RTTI Complete Object Locator'
	DD	00H
	DD	00H
	DD	FLAT:??_R0?AVCDataBase@@@8
	DD	FLAT:??_R3CDataBase@@8
rdata$r	ENDS
;	COMDAT ??_R1A@?0A@EA@CDataBaseException@@8
rdata$r	SEGMENT
??_R1A@?0A@EA@CDataBaseException@@8 DD FLAT:??_R0?AVCDataBaseException@@@8 ; CDataBaseException::`RTTI Base Class Descriptor at (0,-1,0,64)'
	DD	02H
	DD	00H
	DD	0ffffffffH
	DD	00H
	DD	040H
	DD	FLAT:??_R3CDataBaseException@@8
rdata$r	ENDS
;	COMDAT ??_R2CDataBaseException@@8
rdata$r	SEGMENT
??_R2CDataBaseException@@8 DD FLAT:??_R1A@?0A@EA@CDataBaseException@@8 ; CDataBaseException::`RTTI Base Class Array'
	DD	FLAT:??_R1A@?0A@EA@IDataBaseException@@8
	DD	FLAT:??_R1A@?0A@EA@IUnknownEx@@8
rdata$r	ENDS
;	COMDAT ??_R3CDataBaseException@@8
rdata$r	SEGMENT
??_R3CDataBaseException@@8 DD 00H			; CDataBaseException::`RTTI Class Hierarchy Descriptor'
	DD	00H
	DD	03H
	DD	FLAT:??_R2CDataBaseException@@8
rdata$r	ENDS
;	COMDAT ??_R0?AVCDataBaseException@@@8
data$r	SEGMENT
??_R0?AVCDataBaseException@@@8 DD FLAT:??_7type_info@@6B@ ; CDataBaseException `RTTI Type Descriptor'
	DD	00H
	DB	'.?AVCDataBaseException@@', 00H
data$r	ENDS
;	COMDAT ??_R4CDataBaseException@@6B@
rdata$r	SEGMENT
??_R4CDataBaseException@@6B@ DD 00H			; CDataBaseException::`RTTI Complete Object Locator'
	DD	00H
	DD	00H
	DD	FLAT:??_R0?AVCDataBaseException@@@8
	DD	FLAT:??_R3CDataBaseException@@8
rdata$r	ENDS
;	COMDAT ??_R1A@?0A@EA@IDataBaseEngine@@8
rdata$r	SEGMENT
??_R1A@?0A@EA@IDataBaseEngine@@8 DD FLAT:??_R0?AUIDataBaseEngine@@@8 ; IDataBaseEngine::`RTTI Base Class Descriptor at (0,-1,0,64)'
	DD	02H
	DD	00H
	DD	0ffffffffH
	DD	00H
	DD	040H
	DD	FLAT:??_R3IDataBaseEngine@@8
rdata$r	ENDS
;	COMDAT ??_R2IDataBaseEngine@@8
rdata$r	SEGMENT
??_R2IDataBaseEngine@@8 DD FLAT:??_R1A@?0A@EA@IDataBaseEngine@@8 ; IDataBaseEngine::`RTTI Base Class Array'
	DD	FLAT:??_R1A@?0A@EA@IServiceModule@@8
	DD	FLAT:??_R1A@?0A@EA@IUnknownEx@@8
rdata$r	ENDS
;	COMDAT ??_R3IDataBaseEngine@@8
rdata$r	SEGMENT
??_R3IDataBaseEngine@@8 DD 00H				; IDataBaseEngine::`RTTI Class Hierarchy Descriptor'
	DD	00H
	DD	03H
	DD	FLAT:??_R2IDataBaseEngine@@8
rdata$r	ENDS
;	COMDAT ??_R0?AUIDataBaseEngine@@@8
data$r	SEGMENT
??_R0?AUIDataBaseEngine@@@8 DD FLAT:??_7type_info@@6B@	; IDataBaseEngine `RTTI Type Descriptor'
	DD	00H
	DB	'.?AUIDataBaseEngine@@', 00H
data$r	ENDS
;	COMDAT ??_R4IDataBaseEngine@@6B@
rdata$r	SEGMENT
??_R4IDataBaseEngine@@6B@ DD 00H			; IDataBaseEngine::`RTTI Complete Object Locator'
	DD	00H
	DD	00H
	DD	FLAT:??_R0?AUIDataBaseEngine@@@8
	DD	FLAT:??_R3IDataBaseEngine@@8
rdata$r	ENDS
;	COMDAT ??_R1A@?0A@EA@IDataBase@@8
rdata$r	SEGMENT
??_R1A@?0A@EA@IDataBase@@8 DD FLAT:??_R0?AUIDataBase@@@8 ; IDataBase::`RTTI Base Class Descriptor at (0,-1,0,64)'
	DD	01H
	DD	00H
	DD	0ffffffffH
	DD	00H
	DD	040H
	DD	FLAT:??_R3IDataBase@@8
rdata$r	ENDS
;	COMDAT ??_R2IDataBase@@8
rdata$r	SEGMENT
??_R2IDataBase@@8 DD FLAT:??_R1A@?0A@EA@IDataBase@@8	; IDataBase::`RTTI Base Class Array'
	DD	FLAT:??_R1A@?0A@EA@IUnknownEx@@8
rdata$r	ENDS
;	COMDAT ??_R3IDataBase@@8
rdata$r	SEGMENT
??_R3IDataBase@@8 DD 00H				; IDataBase::`RTTI Class Hierarchy Descriptor'
	DD	00H
	DD	02H
	DD	FLAT:??_R2IDataBase@@8
rdata$r	ENDS
;	COMDAT ??_R0?AUIDataBase@@@8
data$r	SEGMENT
??_R0?AUIDataBase@@@8 DD FLAT:??_7type_info@@6B@	; IDataBase `RTTI Type Descriptor'
	DD	00H
	DB	'.?AUIDataBase@@', 00H
data$r	ENDS
;	COMDAT ??_R4IDataBase@@6B@
rdata$r	SEGMENT
??_R4IDataBase@@6B@ DD 00H				; IDataBase::`RTTI Complete Object Locator'
	DD	00H
	DD	00H
	DD	FLAT:??_R0?AUIDataBase@@@8
	DD	FLAT:??_R3IDataBase@@8
rdata$r	ENDS
;	COMDAT ??_R1A@?0A@EA@IAsynchronismEngineSink@@8
rdata$r	SEGMENT
??_R1A@?0A@EA@IAsynchronismEngineSink@@8 DD FLAT:??_R0?AUIAsynchronismEngineSink@@@8 ; IAsynchronismEngineSink::`RTTI Base Class Descriptor at (0,-1,0,64)'
	DD	01H
	DD	00H
	DD	0ffffffffH
	DD	00H
	DD	040H
	DD	FLAT:??_R3IAsynchronismEngineSink@@8
rdata$r	ENDS
;	COMDAT ??_R2IAsynchronismEngineSink@@8
rdata$r	SEGMENT
??_R2IAsynchronismEngineSink@@8 DD FLAT:??_R1A@?0A@EA@IAsynchronismEngineSink@@8 ; IAsynchronismEngineSink::`RTTI Base Class Array'
	DD	FLAT:??_R1A@?0A@EA@IUnknownEx@@8
rdata$r	ENDS
;	COMDAT ??_R3IAsynchronismEngineSink@@8
rdata$r	SEGMENT
??_R3IAsynchronismEngineSink@@8 DD 00H			; IAsynchronismEngineSink::`RTTI Class Hierarchy Descriptor'
	DD	00H
	DD	02H
	DD	FLAT:??_R2IAsynchronismEngineSink@@8
rdata$r	ENDS
;	COMDAT ??_R0?AUIAsynchronismEngineSink@@@8
data$r	SEGMENT
??_R0?AUIAsynchronismEngineSink@@@8 DD FLAT:??_7type_info@@6B@ ; IAsynchronismEngineSink `RTTI Type Descriptor'
	DD	00H
	DB	'.?AUIAsynchronismEngineSink@@', 00H
data$r	ENDS
;	COMDAT ??_R4IAsynchronismEngineSink@@6B@
rdata$r	SEGMENT
??_R4IAsynchronismEngineSink@@6B@ DD 00H		; IAsynchronismEngineSink::`RTTI Complete Object Locator'
	DD	00H
	DD	00H
	DD	FLAT:??_R0?AUIAsynchronismEngineSink@@@8
	DD	FLAT:??_R3IAsynchronismEngineSink@@8
rdata$r	ENDS
;	COMDAT ??_R1A@?0A@EA@IServiceModule@@8
rdata$r	SEGMENT
??_R1A@?0A@EA@IServiceModule@@8 DD FLAT:??_R0?AUIServiceModule@@@8 ; IServiceModule::`RTTI Base Class Descriptor at (0,-1,0,64)'
	DD	01H
	DD	00H
	DD	0ffffffffH
	DD	00H
	DD	040H
	DD	FLAT:??_R3IServiceModule@@8
rdata$r	ENDS
;	COMDAT ??_R2IServiceModule@@8
rdata$r	SEGMENT
??_R2IServiceModule@@8 DD FLAT:??_R1A@?0A@EA@IServiceModule@@8 ; IServiceModule::`RTTI Base Class Array'
	DD	FLAT:??_R1A@?0A@EA@IUnknownEx@@8
rdata$r	ENDS
;	COMDAT ??_R3IServiceModule@@8
rdata$r	SEGMENT
??_R3IServiceModule@@8 DD 00H				; IServiceModule::`RTTI Class Hierarchy Descriptor'
	DD	00H
	DD	02H
	DD	FLAT:??_R2IServiceModule@@8
rdata$r	ENDS
;	COMDAT ??_R0?AUIServiceModule@@@8
data$r	SEGMENT
??_R0?AUIServiceModule@@@8 DD FLAT:??_7type_info@@6B@	; IServiceModule `RTTI Type Descriptor'
	DD	00H
	DB	'.?AUIServiceModule@@', 00H
data$r	ENDS
;	COMDAT ??_R4IServiceModule@@6B@
rdata$r	SEGMENT
??_R4IServiceModule@@6B@ DD 00H				; IServiceModule::`RTTI Complete Object Locator'
	DD	00H
	DD	00H
	DD	FLAT:??_R0?AUIServiceModule@@@8
	DD	FLAT:??_R3IServiceModule@@8
rdata$r	ENDS
;	COMDAT ??_R1A@?0A@EA@IDataBaseException@@8
rdata$r	SEGMENT
??_R1A@?0A@EA@IDataBaseException@@8 DD FLAT:??_R0?AUIDataBaseException@@@8 ; IDataBaseException::`RTTI Base Class Descriptor at (0,-1,0,64)'
	DD	01H
	DD	00H
	DD	0ffffffffH
	DD	00H
	DD	040H
	DD	FLAT:??_R3IDataBaseException@@8
rdata$r	ENDS
;	COMDAT ??_R2IDataBaseException@@8
rdata$r	SEGMENT
??_R2IDataBaseException@@8 DD FLAT:??_R1A@?0A@EA@IDataBaseException@@8 ; IDataBaseException::`RTTI Base Class Array'
	DD	FLAT:??_R1A@?0A@EA@IUnknownEx@@8
rdata$r	ENDS
;	COMDAT ??_R3IDataBaseException@@8
rdata$r	SEGMENT
??_R3IDataBaseException@@8 DD 00H			; IDataBaseException::`RTTI Class Hierarchy Descriptor'
	DD	00H
	DD	02H
	DD	FLAT:??_R2IDataBaseException@@8
rdata$r	ENDS
;	COMDAT ??_R0?AUIDataBaseException@@@8
data$r	SEGMENT
??_R0?AUIDataBaseException@@@8 DD FLAT:??_7type_info@@6B@ ; IDataBaseException `RTTI Type Descriptor'
	DD	00H
	DB	'.?AUIDataBaseException@@', 00H
data$r	ENDS
;	COMDAT ??_R4IDataBaseException@@6B@
rdata$r	SEGMENT
??_R4IDataBaseException@@6B@ DD 00H			; IDataBaseException::`RTTI Complete Object Locator'
	DD	00H
	DD	00H
	DD	FLAT:??_R0?AUIDataBaseException@@@8
	DD	FLAT:??_R3IDataBaseException@@8
rdata$r	ENDS
;	COMDAT ??_R1A@?0A@EA@IUnknownEx@@8
rdata$r	SEGMENT
??_R1A@?0A@EA@IUnknownEx@@8 DD FLAT:??_R0?AUIUnknownEx@@@8 ; IUnknownEx::`RTTI Base Class Descriptor at (0,-1,0,64)'
	DD	00H
	DD	00H
	DD	0ffffffffH
	DD	00H
	DD	040H
	DD	FLAT:??_R3IUnknownEx@@8
rdata$r	ENDS
;	COMDAT ??_R2IUnknownEx@@8
rdata$r	SEGMENT
??_R2IUnknownEx@@8 DD FLAT:??_R1A@?0A@EA@IUnknownEx@@8	; IUnknownEx::`RTTI Base Class Array'
rdata$r	ENDS
;	COMDAT ??_R3IUnknownEx@@8
rdata$r	SEGMENT
??_R3IUnknownEx@@8 DD 00H				; IUnknownEx::`RTTI Class Hierarchy Descriptor'
	DD	00H
	DD	01H
	DD	FLAT:??_R2IUnknownEx@@8
rdata$r	ENDS
;	COMDAT ??_R0?AUIUnknownEx@@@8
data$r	SEGMENT
??_R0?AUIUnknownEx@@@8 DD FLAT:??_7type_info@@6B@	; IUnknownEx `RTTI Type Descriptor'
	DD	00H
	DB	'.?AUIUnknownEx@@', 00H
data$r	ENDS
;	COMDAT ??_R4IUnknownEx@@6B@
rdata$r	SEGMENT
??_R4IUnknownEx@@6B@ DD 00H				; IUnknownEx::`RTTI Complete Object Locator'
	DD	00H
	DD	00H
	DD	FLAT:??_R0?AUIUnknownEx@@@8
	DD	FLAT:??_R3IUnknownEx@@8
rdata$r	ENDS
;	COMDAT ??_C@_1BK@MHIKGOKE@?$AA?3?$AAA?$AAM?$AA?3?$AAa?$AAm?$AA?3?$AAP?$AAM?$AA?3?$AAp?$AAm@
CONST	SEGMENT
??_C@_1BK@MHIKGOKE@?$AA?3?$AAA?$AAM?$AA?3?$AAa?$AAm?$AA?3?$AAP?$AAM?$AA?3?$AAp?$AAm@ DB ':'
	DB	00H, 'A', 00H, 'M', 00H, ':', 00H, 'a', 00H, 'm', 00H, ':', 00H
	DB	'P', 00H, 'M', 00H, ':', 00H, 'p', 00H, 'm', 00H, 00H, 00H ; `string'
CONST	ENDS
;	COMDAT ??_C@_0N@LPFKKEBD@?3AM?3am?3PM?3pm@
CONST	SEGMENT
??_C@_0N@LPFKKEBD@?3AM?3am?3PM?3pm@ DB ':AM:am:PM:pm', 00H ; `string'
CONST	ENDS
;	COMDAT ??_C@_0N@DLOPLLLM@?$LN?S?$LP?Z?$LC?i?Q?$KP?J?$KH?$LA?$NM@
CONST	SEGMENT
??_C@_0N@DLOPLLLM@?$LN?S?$LP?Z?$LC?i?Q?$KP?J?$KH?$LA?$NM@ DB 0bdH, 0d3H, 0bfH
	DB	0daH, 0b2H, 0e9H, 0d1H, 0afH, 0caH, 0a7H, 0b0H, 0dcH, 00H ; `string'
CONST	ENDS
;	COMDAT ??_C@_08HBOFLKLL@?$LE?$LE?$LN?$KI?J?$KH?$LA?$NM@
CONST	SEGMENT
??_C@_08HBOFLKLL@?$LE?$LE?$LN?$KI?J?$KH?$LA?$NM@ DB 0b4H, 0b4H, 0bdH, 0a8H
	DB	0caH, 0a7H, 0b0H, 0dcH, 00H			; `string'
CONST	ENDS
;	COMDAT ??_C@_0CI@PJBLFBKN@?C?$LL?S?P?J?$LF?O?VCDataBaseEngine?3?3GetBur@
CONST	SEGMENT
??_C@_0CI@PJBLFBKN@?C?$LL?S?P?J?$LF?O?VCDataBaseEngine?3?3GetBur@ DB 0c3H
	DB	0bbH, 0d3H, 0d0H, 0caH, 0b5H, 0cfH, 0d6H, 'CDataBaseEngine::Ge'
	DB	'tBurthenInfo', 00H				; `string'
CONST	ENDS
;	COMDAT __CT??_R0PAUIUnknownEx@@@84
xdata$x	SEGMENT
__CT??_R0PAUIUnknownEx@@@84 DD 01H
	DD	FLAT:??_R0PAUIUnknownEx@@@8
	DD	00H
	DD	0ffffffffH
	ORG $+4
	DD	04H
	DD	00H
xdata$x	ENDS
;	COMDAT ??_R0PAUIUnknownEx@@@8
data$r	SEGMENT
??_R0PAUIUnknownEx@@@8 DD FLAT:??_7type_info@@6B@	; IUnknownEx * `RTTI Type Descriptor'
	DD	00H
	DB	'.PAUIUnknownEx@@', 00H
data$r	ENDS
;	COMDAT __CT??_R0PAUIDataBaseException@@@84
xdata$x	SEGMENT
__CT??_R0PAUIDataBaseException@@@84 DD 01H
	DD	FLAT:??_R0PAUIDataBaseException@@@8
	DD	00H
	DD	0ffffffffH
	ORG $+4
	DD	04H
	DD	00H
xdata$x	ENDS
;	COMDAT __CT??_R0PAVCDataBaseException@@@84
xdata$x	SEGMENT
__CT??_R0PAVCDataBaseException@@@84 DD 01H
	DD	FLAT:??_R0PAVCDataBaseException@@@8
	DD	00H
	DD	0ffffffffH
	ORG $+4
	DD	04H
	DD	00H
xdata$x	ENDS
;	COMDAT ??_R0PAVCDataBaseException@@@8
data$r	SEGMENT
??_R0PAVCDataBaseException@@@8 DD FLAT:??_7type_info@@6B@ ; CDataBaseException * `RTTI Type Descriptor'
	DD	00H
	DB	'.PAVCDataBaseException@@', 00H
data$r	ENDS
;	COMDAT __CTA4PAVCDataBaseException@@
xdata$x	SEGMENT
__CTA4PAVCDataBaseException@@ DD 04H
	DD	FLAT:__CT??_R0PAVCDataBaseException@@@84
	DD	FLAT:__CT??_R0PAUIDataBaseException@@@84
	DD	FLAT:__CT??_R0PAUIUnknownEx@@@84
	DD	FLAT:__CT??_R0PAX@84
xdata$x	ENDS
;	COMDAT __TI4PAVCDataBaseException@@
xdata$x	SEGMENT
__TI4PAVCDataBaseException@@ DD 00H
	DD	00H
	DD	00H
	DD	FLAT:__CTA4PAVCDataBaseException@@
xdata$x	ENDS
;	COMDAT ??_R0PAUIDataBaseException@@@8
data$r	SEGMENT
??_R0PAUIDataBaseException@@@8 DD FLAT:??_7type_info@@6B@ ; IDataBaseException * `RTTI Type Descriptor'
	DD	00H
	DB	'.PAUIDataBaseException@@', 00H
data$r	ENDS
;	COMDAT ??_C@_0BD@KFKKGENF@?$LD?I?$LJ?$KG?V?X?P?B?A?$KM?$LN?S?J?$PN?$LO?$NN?$LP?b@
CONST	SEGMENT
??_C@_0BD@KFKKGENF@?$LD?I?$LJ?$KG?V?X?P?B?A?$KM?$LN?S?J?$PN?$LO?$NN?$LP?b@ DB 0b3H
	DB	0c9H, 0b9H, 0a6H, 0d6H, 0d8H, 0d0H, 0c2H, 0c1H, 0acH, 0bdH, 0d3H
	DB	0caH, 0fdH, 0beH, 0ddH, 0bfH, 0e2H, 00H	; `string'
CONST	ENDS
;	COMDAT ??_C@_0CF@EJOIAEJA@?J?$PN?$LO?$NN?$LP?b?A?$KM?$LN?S?V?P?$LG?O?$KD?$KM?I?T?$LK?s?$LN?$KL?$LL?a?$LD?$KC?J?T?V?X?P@
CONST	SEGMENT
??_C@_0CF@EJOIAEJA@?J?$PN?$LO?$NN?$LP?b?A?$KM?$LN?S?V?P?$LG?O?$KD?$KM?I?T?$LK?s?$LN?$KL?$LL?a?$LD?$KC?J?T?V?X?P@ DB 0caH
	DB	0fdH, 0beH, 0ddH, 0bfH, 0e2H, 0c1H, 0acH, 0bdH, 0d3H, 0d6H, 0d0H
	DB	0b6H, 0cfH, 0a3H, 0acH, 0c9H, 0d4H, 0baH, 0f3H, 0bdH, 0abH, 0bbH
	DB	0e1H, 0b3H, 0a2H, 0caH, 0d4H, 0d6H, 0d8H, 0d0H, 0c2H, 0c1H, 0acH
	DB	0bdH, 0d3H, 00H				; `string'
CONST	ENDS
;	COMDAT ??_C@_0GN@FNOGLIHG@Provider?$DNSQLOLEDB?41?$DLPassword?$DN?$CFs@
CONST	SEGMENT
??_C@_0GN@FNOGLIHG@Provider?$DNSQLOLEDB?41?$DLPassword?$DN?$CFs@ DB 'Prov'
	DB	'ider=SQLOLEDB.1;Password=%s;Persist Security Info=True;User I'
	DB	'D=%s;Initial Catalog=%s;Data Source=%s,%ld;', 00H ; `string'
CONST	ENDS
;	COMDAT ??_C@_0HG@LOMGLDLL@Provider?$DNSQLOLEDB?41?$DLPassword?$DN?$CFs@
CONST	SEGMENT
??_C@_0HG@LOMGLDLL@Provider?$DNSQLOLEDB?41?$DLPassword?$DN?$CFs@ DB 'Prov'
	DB	'ider=SQLOLEDB.1;Password=%s;Persist Security Info=True;User I'
	DB	'D=%s;Initial Catalog=%s;Data Source=%d.%d.%d.%d,%ld;', 00H ; `string'
CONST	ENDS
;	COMDAT ??_R0?AV_com_error@@@8
data$r	SEGMENT
??_R0?AV_com_error@@@8 DD FLAT:??_7type_info@@6B@	; _com_error `RTTI Type Descriptor'
	DD	00H
	DB	'.?AV_com_error@@', 00H
data$r	ENDS
;	COMDAT ??_C@_0BH@HOBDADEF@?J?$PN?$LO?$NN?$LP?b?A?$KM?$LN?S?$LG?T?O?s?$LE?$LE?$LN?$KI?J?$KH?$LA?$NM@
CONST	SEGMENT
??_C@_0BH@HOBDADEF@?J?$PN?$LO?$NN?$LP?b?A?$KM?$LN?S?$LG?T?O?s?$LE?$LE?$LN?$KI?J?$KH?$LA?$NM@ DB 0caH
	DB	0fdH, 0beH, 0ddH, 0bfH, 0e2H, 0c1H, 0acH, 0bdH, 0d3H, 0b6H, 0d4H
	DB	0cfH, 0f3H, 0b4H, 0b4H, 0bdH, 0a8H, 0caH, 0a7H, 0b0H, 0dcH, 00H ; `string'
CONST	ENDS
;	COMDAT ??_C@_0BJ@NODHBELB@?J?$PN?$LO?$NN?$LP?b?$LM?G?B?$LM?$LM?$KP?$LG?T?O?s?$LE?$LE?$LN?$KI?J?$KH?$LA?$NM@
CONST	SEGMENT
??_C@_0BJ@NODHBELB@?J?$PN?$LO?$NN?$LP?b?$LM?G?B?$LM?$LM?$KP?$LG?T?O?s?$LE?$LE?$LN?$KI?J?$KH?$LA?$NM@ DB 0caH
	DB	0fdH, 0beH, 0ddH, 0bfH, 0e2H, 0bcH, 0c7H, 0c2H, 0bcH, 0bcH, 0afH
	DB	0b6H, 0d4H, 0cfH, 0f3H, 0b4H, 0b4H, 0bdH, 0a8H, 0caH, 0a7H, 0b0H
	DB	0dcH, 00H					; `string'
CONST	ENDS
;	COMDAT ??_C@_0BH@DNPDBMEB@?J?$PN?$LO?$NN?$LP?b?C?$PM?A?n?$LG?T?O?s?$LE?$LE?$LN?$KI?J?$KH?$LA?$NM@
CONST	SEGMENT
??_C@_0BH@DNPDBMEB@?J?$PN?$LO?$NN?$LP?b?C?$PM?A?n?$LG?T?O?s?$LE?$LE?$LN?$KI?J?$KH?$LA?$NM@ DB 0caH
	DB	0fdH, 0beH, 0ddH, 0bfH, 0e2H, 0c3H, 0fcH, 0c1H, 0eeH, 0b6H, 0d4H
	DB	0cfH, 0f3H, 0b4H, 0b4H, 0bdH, 0a8H, 0caH, 0a7H, 0b0H, 0dcH, 00H ; `string'
CONST	ENDS
;	COMDAT __CT??_R0PAX@84
xdata$x	SEGMENT
__CT??_R0PAX@84 DD 01H
	DD	FLAT:??_R0PAX@8
	DD	00H
	DD	0ffffffffH
	ORG $+4
	DD	04H
	DD	00H
xdata$x	ENDS
;	COMDAT ??_R0PAX@8
data$r	SEGMENT
??_R0PAX@8 DD	FLAT:??_7type_info@@6B@			; void * `RTTI Type Descriptor'
	DD	00H
	DB	'.PAX', 00H
data$r	ENDS
;	COMDAT __CT??_R0PAD@84
xdata$x	SEGMENT
__CT??_R0PAD@84 DD 01H
	DD	FLAT:??_R0PAD@8
	DD	00H
	DD	0ffffffffH
	ORG $+4
	DD	04H
	DD	00H
xdata$x	ENDS
;	COMDAT ??_R0PAD@8
data$r	SEGMENT
??_R0PAD@8 DD	FLAT:??_7type_info@@6B@			; char * `RTTI Type Descriptor'
	DD	00H
	DB	'.PAD', 00H
data$r	ENDS
;	COMDAT __CTA2PAD
xdata$x	SEGMENT
__CTA2PAD DD	02H
	DD	FLAT:__CT??_R0PAD@84
	DD	FLAT:__CT??_R0PAX@84
xdata$x	ENDS
;	COMDAT __TI2PAD
xdata$x	SEGMENT
__TI2PAD DD	00H
	DD	00H
	DD	00H
	DD	FLAT:__CTA2PAD
xdata$x	ENDS
;	COMDAT __GUID_00000514_0000_0010_8000_00aa006d2ea4
CONST	SEGMENT
__GUID_00000514_0000_0010_8000_00aa006d2ea4 DD 0514H
	DW	00H
	DW	010H
	DB	080H
	DB	00H
	DB	00H
	DB	0aaH
	DB	00H
	DB	06dH
	DB	02eH
	DB	0a4H
CONST	ENDS
;	COMDAT __GUID_00000535_0000_0010_8000_00aa006d2ea4
CONST	SEGMENT
__GUID_00000535_0000_0010_8000_00aa006d2ea4 DD 0535H
	DW	00H
	DW	010H
	DB	080H
	DB	00H
	DB	00H
	DB	0aaH
	DB	00H
	DB	06dH
	DB	02eH
	DB	0a4H
CONST	ENDS
;	COMDAT __GUID_00000507_0000_0010_8000_00aa006d2ea4
CONST	SEGMENT
__GUID_00000507_0000_0010_8000_00aa006d2ea4 DD 0507H
	DW	00H
	DW	010H
	DB	080H
	DB	00H
	DB	00H
	DB	0aaH
	DB	00H
	DB	06dH
	DB	02eH
	DB	0a4H
CONST	ENDS
;	COMDAT ??_C@_0BJ@LMLDDKOC@?J?$PN?$LO?$NN?$LP?b?R?l?$LD?$KD?$KD?$LK?$CFs?5?$FL?50x?$CF8x?5?$FN@
CONST	SEGMENT
??_C@_0BJ@LMLDDKOC@?J?$PN?$LO?$NN?$LP?b?R?l?$LD?$KD?$KD?$LK?$CFs?5?$FL?50x?$CF8x?5?$FN@ DB 0caH
	DB	0fdH, 0beH, 0ddH, 0bfH, 0e2H, 0d2H, 0ecH, 0b3H, 0a3H, 0a3H, 0baH
	DB	'%s [ 0x%8x ]', 00H				; `string'
CONST	ENDS
;	COMDAT ??_C@_0EL@CJALAN@g?3?2?M?x?$LK?$PM?2happygamewh?2?$LH?$PO?N?q?$LG?K?2?O?$LF?M?$LD@
CONST	SEGMENT
??_C@_0EL@CJALAN@g?3?2?M?x?$LK?$PM?2happygamewh?2?$LH?$PO?N?q?$LG?K?2?O?$LF?M?$LD@ DB 'g'
	DB	':\', 0cdH, 0f8H, 0baH, 0fcH, '\happygamewh\', 0b7H, 0feH, 0ceH
	DB	0f1H, 0b6H, 0cbH, '\', 0cfH, 0b5H, 0cdH, 0b3H, 0c4H, 0a3H, 0bfH
	DB	0e9H, '\', 0b7H, 0feH, 0ceH, 0f1H, 0c6H, 0f7H, 0d7H, 0e9H, 0bcH
	DB	0feH, '\', 0c4H, 0daH, 0baH, 0cbH, 0d2H, 0fdH, 0c7H, 0e6H, '\d'
	DB	'atabaseengine.cpp', 00H			; `string'
CONST	ENDS
;	COMDAT __GUID_00000544_0000_0010_8000_00aa006d2ea4
CONST	SEGMENT
__GUID_00000544_0000_0010_8000_00aa006d2ea4 DD 0544H
	DW	00H
	DW	010H
	DB	080H
	DB	00H
	DB	00H
	DB	0aaH
	DB	00H
	DB	06dH
	DB	02eH
	DB	0a4H
CONST	ENDS
;	COMDAT ??_7CDataBaseEngine@@6BIAsynchronismEngineSink@@@
CONST	SEGMENT
??_7CDataBaseEngine@@6BIAsynchronismEngineSink@@@ DD FLAT:??_R4CDataBaseEngine@@6BIAsynchronismEngineSink@@@ ; CDataBaseEngine::`vftable'
	DD	FLAT:?Release@CDataBaseEngine@@W3AEXXZ
	DD	FLAT:?QueryInterface@CDataBaseEngine@@W3AEPAXABU_GUID@@K@Z
	DD	FLAT:?OnAsynchronismEngineStart@CDataBaseEngine@@UAE_NXZ
	DD	FLAT:?OnAsynchronismEngineConclude@CDataBaseEngine@@UAE_NXZ
	DD	FLAT:?OnAsynchronismEngineData@CDataBaseEngine@@UAE_NGPAXG@Z
CONST	ENDS
;	COMDAT ??_7CDataBaseEngine@@6BIDataBaseEngine@@@
CONST	SEGMENT
??_7CDataBaseEngine@@6BIDataBaseEngine@@@ DD FLAT:??_R4CDataBaseEngine@@6BIDataBaseEngine@@@ ; CDataBaseEngine::`vftable'
	DD	FLAT:?Release@CDataBaseEngine@@UAEXXZ
	DD	FLAT:?QueryInterface@CDataBaseEngine@@UAEPAXABU_GUID@@K@Z
	DD	FLAT:?StartService@CDataBaseEngine@@UAE_NXZ
	DD	FLAT:?ConcludeService@CDataBaseEngine@@UAE_NXZ
	DD	FLAT:?GetBurthenInfo@CDataBaseEngine@@UAE_NAAUtagBurthenInfo@@@Z
	DD	FLAT:?SetDataBaseEngineSink@CDataBaseEngine@@UAE_NQAPAUIUnknownEx@@G@Z
	DD	FLAT:?SetDataBaseEngineSink@CDataBaseEngine@@UAE_NPAUIUnknownEx@@@Z
	DD	FLAT:?PostDataBaseControl@CDataBaseEngine@@UAE_NGPAXG@Z
	DD	FLAT:?PostDataBaseRequest@CDataBaseEngine@@UAE_NGKPAXG@Z
	DD	FLAT:?DeferDataBaseRequest@CDataBaseEngine@@UAE_NGKPAXG@Z
	DD	FLAT:??_ECDataBaseEngine@@UAEPAXI@Z
CONST	ENDS
;	COMDAT ??_7CDataBase@@6B@
CONST	SEGMENT
??_7CDataBase@@6B@ DD FLAT:??_R4CDataBase@@6B@		; CDataBase::`vftable'
	DD	FLAT:?Release@CDataBase@@UAEXXZ
	DD	FLAT:?QueryInterface@CDataBase@@UAEPAXABU_GUID@@K@Z
	DD	FLAT:?OpenConnection@CDataBase@@UAEXXZ
	DD	FLAT:?CloseConnection@CDataBase@@UAEXXZ
	DD	FLAT:?SetConnectionInfo@CDataBase@@UAE_NPBDG000@Z
	DD	FLAT:?SetConnectionInfo@CDataBase@@UAE_NKGPBD00@Z
	DD	FLAT:?ClearParameters@CDataBase@@UAEXXZ
	DD	FLAT:?GetParameter@CDataBase@@UAEXPBDAAV_variant_t@@@Z
	DD	FLAT:?AddParameter@CDataBase@@UAEXPBDW4DataTypeEnum@ADOCG@@W4ParameterDirectionEnum@3@JAAV_variant_t@@@Z
	DD	FLAT:?NextRecordset@CDataBase@@UAEXXZ
	DD	FLAT:?CloseRecordset@CDataBase@@UAEXXZ
	DD	FLAT:?BindToRecordset@CDataBase@@UAEXPAVCADORecordBinding@@@Z
	DD	FLAT:?MoveToNext@CDataBase@@UAEXXZ
	DD	FLAT:?MoveToFirst@CDataBase@@UAEXXZ
	DD	FLAT:?IsRecordsetEnd@CDataBase@@UAE_NXZ
	DD	FLAT:?GetRecordCount@CDataBase@@UAEJXZ
	DD	FLAT:?GetReturnValue@CDataBase@@UAEJXZ
	DD	FLAT:?GetRecordsetValue@CDataBase@@UAEXPBDAAV_variant_t@@@Z
	DD	FLAT:?ExecuteProcess@CDataBase@@UAEXPBD_N@Z
	DD	FLAT:?ExecuteSentence@CDataBase@@UAEXPBD_N@Z
	DD	FLAT:??_ECDataBase@@UAEPAXI@Z
CONST	ENDS
;	COMDAT ??_7CDataBaseException@@6B@
CONST	SEGMENT
??_7CDataBaseException@@6B@ DD FLAT:??_R4CDataBaseException@@6B@ ; CDataBaseException::`vftable'
	DD	FLAT:?Release@CDataBaseException@@UAEXXZ
	DD	FLAT:?QueryInterface@CDataBaseException@@UAEPAXABU_GUID@@K@Z
	DD	FLAT:?GetExceptionResult@CDataBaseException@@UAEJXZ
	DD	FLAT:?GetExceptionDescribe@CDataBaseException@@UAEPBDXZ
	DD	FLAT:?GetExceptionType@CDataBaseException@@UAE?AW4enSQLException@@XZ
	DD	FLAT:??_ECDataBaseException@@UAEPAXI@Z
CONST	ENDS
;	COMDAT ??_7IDataBaseEngine@@6B@
CONST	SEGMENT
??_7IDataBaseEngine@@6B@ DD FLAT:??_R4IDataBaseEngine@@6B@ ; IDataBaseEngine::`vftable'
	DD	FLAT:__purecall
	DD	FLAT:__purecall
	DD	FLAT:__purecall
	DD	FLAT:__purecall
	DD	FLAT:__purecall
	DD	FLAT:__purecall
	DD	FLAT:__purecall
	DD	FLAT:__purecall
	DD	FLAT:__purecall
	DD	FLAT:__purecall
CONST	ENDS
;	COMDAT ??_7IDataBase@@6B@
CONST	SEGMENT
??_7IDataBase@@6B@ DD FLAT:??_R4IDataBase@@6B@		; IDataBase::`vftable'
	DD	FLAT:__purecall
	DD	FLAT:__purecall
	DD	FLAT:__purecall
	DD	FLAT:__purecall
	DD	FLAT:__purecall
	DD	FLAT:__purecall
	DD	FLAT:__purecall
	DD	FLAT:__purecall
	DD	FLAT:__purecall
	DD	FLAT:__purecall
	DD	FLAT:__purecall
	DD	FLAT:__purecall
	DD	FLAT:__purecall
	DD	FLAT:__purecall
	DD	FLAT:__purecall
	DD	FLAT:__purecall
	DD	FLAT:__purecall
	DD	FLAT:__purecall
	DD	FLAT:__purecall
	DD	FLAT:__purecall
CONST	ENDS
;	COMDAT ??_7IAsynchronismEngineSink@@6B@
CONST	SEGMENT
??_7IAsynchronismEngineSink@@6B@ DD FLAT:??_R4IAsynchronismEngineSink@@6B@ ; IAsynchronismEngineSink::`vftable'
	DD	FLAT:__purecall
	DD	FLAT:__purecall
	DD	FLAT:__purecall
	DD	FLAT:__purecall
	DD	FLAT:__purecall
CONST	ENDS
;	COMDAT ??_7IServiceModule@@6B@
CONST	SEGMENT
??_7IServiceModule@@6B@ DD FLAT:??_R4IServiceModule@@6B@ ; IServiceModule::`vftable'
	DD	FLAT:__purecall
	DD	FLAT:__purecall
	DD	FLAT:__purecall
	DD	FLAT:__purecall
CONST	ENDS
;	COMDAT ??_7IDataBaseException@@6B@
CONST	SEGMENT
??_7IDataBaseException@@6B@ DD FLAT:??_R4IDataBaseException@@6B@ ; IDataBaseException::`vftable'
	DD	FLAT:__purecall
	DD	FLAT:__purecall
	DD	FLAT:__purecall
	DD	FLAT:__purecall
	DD	FLAT:__purecall
CONST	ENDS
;	COMDAT __GUID_00000556_0000_0010_8000_00aa006d2ea4
CONST	SEGMENT
__GUID_00000556_0000_0010_8000_00aa006d2ea4 DD 0556H
	DW	00H
	DW	010H
	DB	080H
	DB	00H
	DB	00H
	DB	0aaH
	DB	00H
	DB	06dH
	DB	02eH
	DB	0a4H
CONST	ENDS
;	COMDAT __GUID_0000050e_0000_0010_8000_00aa006d2ea4
CONST	SEGMENT
__GUID_0000050e_0000_0010_8000_00aa006d2ea4 DD 050eH
	DW	00H
	DW	010H
	DB	080H
	DB	00H
	DB	00H
	DB	0aaH
	DB	00H
	DB	06dH
	DB	02eH
	DB	0a4H
CONST	ENDS
;	COMDAT __GUID_00000550_0000_0010_8000_00aa006d2ea4
CONST	SEGMENT
__GUID_00000550_0000_0010_8000_00aa006d2ea4 DD 0550H
	DW	00H
	DW	010H
	DB	080H
	DB	00H
	DB	00H
	DB	0aaH
	DB	00H
	DB	06dH
	DB	02eH
	DB	0a4H
CONST	ENDS
;	COMDAT __GUID_00000515_0000_0010_8000_00aa006d2ea4
CONST	SEGMENT
__GUID_00000515_0000_0010_8000_00aa006d2ea4 DD 0515H
	DW	00H
	DW	010H
	DB	080H
	DB	00H
	DB	00H
	DB	0aaH
	DB	00H
	DB	06dH
	DB	02eH
	DB	0a4H
CONST	ENDS
;	COMDAT __GUID_b08400bd_f9d1_4d02_b856_71d5dba123e9
CONST	SEGMENT
__GUID_b08400bd_f9d1_4d02_b856_71d5dba123e9 DD 0b08400bdH
	DW	0f9d1H
	DW	04d02H
	DB	0b8H
	DB	056H
	DB	071H
	DB	0d5H
	DB	0dbH
	DB	0a1H
	DB	023H
	DB	0e9H
CONST	ENDS
;	COMDAT __GUID_00000508_0000_0010_8000_00aa006d2ea4
CONST	SEGMENT
__GUID_00000508_0000_0010_8000_00aa006d2ea4 DD 0508H
	DW	00H
	DW	010H
	DB	080H
	DB	00H
	DB	00H
	DB	0aaH
	DB	00H
	DB	06dH
	DB	02eH
	DB	0a4H
CONST	ENDS
;	COMDAT __GUID_0000050d_0000_0010_8000_00aa006d2ea4
CONST	SEGMENT
__GUID_0000050d_0000_0010_8000_00aa006d2ea4 DD 050dH
	DW	00H
	DW	010H
	DB	080H
	DB	00H
	DB	00H
	DB	0aaH
	DB	00H
	DB	06dH
	DB	02eH
	DB	0a4H
CONST	ENDS
;	COMDAT __GUID_0000050c_0000_0010_8000_00aa006d2ea4
CONST	SEGMENT
__GUID_0000050c_0000_0010_8000_00aa006d2ea4 DD 050cH
	DW	00H
	DW	010H
	DB	080H
	DB	00H
	DB	00H
	DB	0aaH
	DB	00H
	DB	06dH
	DB	02eH
	DB	0a4H
CONST	ENDS
;	COMDAT __GUID_00000506_0000_0010_8000_00aa006d2ea4
CONST	SEGMENT
__GUID_00000506_0000_0010_8000_00aa006d2ea4 DD 0506H
	DW	00H
	DW	010H
	DB	080H
	DB	00H
	DB	00H
	DB	0aaH
	DB	00H
	DB	06dH
	DB	02eH
	DB	0a4H
CONST	ENDS
;	COMDAT __GUID_0000054c_0000_0010_8000_00aa006d2ea4
CONST	SEGMENT
__GUID_0000054c_0000_0010_8000_00aa006d2ea4 DD 054cH
	DW	00H
	DW	010H
	DB	080H
	DB	00H
	DB	00H
	DB	0aaH
	DB	00H
	DB	06dH
	DB	02eH
	DB	0a4H
CONST	ENDS
;	COMDAT __GUID_00000501_0000_0010_8000_00aa006d2ea4
CONST	SEGMENT
__GUID_00000501_0000_0010_8000_00aa006d2ea4 DD 0501H
	DW	00H
	DW	010H
	DB	080H
	DB	00H
	DB	00H
	DB	0aaH
	DB	00H
	DB	06dH
	DB	02eH
	DB	0a4H
CONST	ENDS
;	COMDAT __GUID_00000500_0000_0010_8000_00aa006d2ea4
CONST	SEGMENT
__GUID_00000500_0000_0010_8000_00aa006d2ea4 DD 0500H
	DW	00H
	DW	010H
	DB	080H
	DB	00H
	DB	00H
	DB	0aaH
	DB	00H
	DB	06dH
	DB	02eH
	DB	0a4H
CONST	ENDS
;	COMDAT __GUID_00000513_0000_0010_8000_00aa006d2ea4
CONST	SEGMENT
__GUID_00000513_0000_0010_8000_00aa006d2ea4 DD 0513H
	DW	00H
	DW	010H
	DB	080H
	DB	00H
	DB	00H
	DB	0aaH
	DB	00H
	DB	06dH
	DB	02eH
	DB	0a4H
CONST	ENDS
;	COMDAT __GUID_00000512_0000_0010_8000_00aa006d2ea4
CONST	SEGMENT
__GUID_00000512_0000_0010_8000_00aa006d2ea4 DD 0512H
	DW	00H
	DW	010H
	DB	080H
	DB	00H
	DB	00H
	DB	0aaH
	DB	00H
	DB	06dH
	DB	02eH
	DB	0a4H
CONST	ENDS
;	COMDAT ??_7IUnknownEx@@6B@
CONST	SEGMENT
??_7IUnknownEx@@6B@ DD FLAT:??_R4IUnknownEx@@6B@	; IUnknownEx::`vftable'
	DD	FLAT:__purecall
	DD	FLAT:__purecall
CONST	ENDS
;	COMDAT ??_C@_0GI@DJFLDKBN@c?3?2program?5files?5?$CIx86?$CJ?2microsof@
CONST	SEGMENT
??_C@_0GI@DJFLDKBN@c?3?2program?5files?5?$CIx86?$CJ?2microsof@ DB 'c:\pro'
	DB	'gram files (x86)\microsoft visual studio\2017\community\vc\to'
	DB	'ols\msvc\14.16.27023\include\xlocnum', 00H	; `string'
CONST	ENDS
;	COMDAT ??_C@_0GI@LKBGDILM@c?3?2program?5files?5?$CIx86?$CJ?2microsof@
CONST	SEGMENT
??_C@_0GI@LKBGDILM@c?3?2program?5files?5?$CIx86?$CJ?2microsof@ DB 'c:\pro'
	DB	'gram files (x86)\microsoft visual studio\2017\community\vc\to'
	DB	'ols\msvc\14.16.27023\include\xlocale', 00H	; `string'
CONST	ENDS
;	COMDAT __GUID_00000000_0000_0000_c000_000000000046
CONST	SEGMENT
__GUID_00000000_0000_0000_c000_000000000046 DD 00H
	DW	00H
	DW	00H
	DB	0c0H
	DB	00H
	DB	00H
	DB	00H
	DB	00H
	DB	00H
	DB	00H
	DB	046H
CONST	ENDS
;	COMDAT ??_C@_11LOCGONAA@@
CONST	SEGMENT
??_C@_11LOCGONAA@@ DB 00H, 00H				; `string'
CONST	ENDS
;	COMDAT xdata$x
xdata$x	SEGMENT
__catchsym$_CreateDataBaseEngine$6 DD 040H
	DD	00H
	DD	00H
	DD	FLAT:__catch$_CreateDataBaseEngine$2
__catchsym$_CreateDataBaseEngine$5 DD 040H
	DD	00H
	DD	00H
	DD	FLAT:__catch$_CreateDataBaseEngine$0
__ehfuncinfo$_CreateDataBaseEngine DD 019930522H
	DD	05H
	DD	FLAT:__unwindtable$_CreateDataBaseEngine
	DD	02H
	DD	FLAT:__tryblocktable$_CreateDataBaseEngine
	DD	2 DUP(00H)
	DD	00H
	DD	01H
__tryblocktable$_CreateDataBaseEngine DD 00H
	DD	01H
	DD	02H
	DD	01H
	DD	FLAT:__catchsym$_CreateDataBaseEngine$5
	DD	03H
	DD	03H
	DD	04H
	DD	01H
	DD	FLAT:__catchsym$_CreateDataBaseEngine$6
__unwindtable$_CreateDataBaseEngine DD 0ffffffffH
	DD	00H
	DD	00H
	DD	FLAT:__unwindfunclet$_CreateDataBaseEngine$4
	DD	0ffffffffH
	DD	00H
	DD	0ffffffffH
	DD	00H
	DD	0ffffffffH
	DD	00H
xdata$x	ENDS
;	COMDAT xdata$x
xdata$x	SEGMENT
__catchsym$_CreateDataBase$6 DD 040H
	DD	00H
	DD	00H
	DD	FLAT:__catch$_CreateDataBase$2
__catchsym$_CreateDataBase$5 DD 040H
	DD	00H
	DD	00H
	DD	FLAT:__catch$_CreateDataBase$0
__ehfuncinfo$_CreateDataBase DD 019930522H
	DD	05H
	DD	FLAT:__unwindtable$_CreateDataBase
	DD	02H
	DD	FLAT:__tryblocktable$_CreateDataBase
	DD	2 DUP(00H)
	DD	00H
	DD	01H
__tryblocktable$_CreateDataBase DD 00H
	DD	01H
	DD	02H
	DD	01H
	DD	FLAT:__catchsym$_CreateDataBase$5
	DD	03H
	DD	03H
	DD	04H
	DD	01H
	DD	FLAT:__catchsym$_CreateDataBase$6
__unwindtable$_CreateDataBase DD 0ffffffffH
	DD	00H
	DD	00H
	DD	FLAT:__unwindfunclet$_CreateDataBase$4
	DD	0ffffffffH
	DD	00H
	DD	0ffffffffH
	DD	00H
	DD	0ffffffffH
	DD	00H
xdata$x	ENDS
;	COMDAT xdata$x
xdata$x	SEGMENT
__catchsym$?OnAsynchronismEngineData@CDataBaseEngine@@UAE_NGPAXG@Z$8 DD 040H
	DD	00H
	DD	00H
	DD	FLAT:__catch$?OnAsynchronismEngineData@CDataBaseEngine@@UAE_NGPAXG@Z$4
__catchsym$?OnAsynchronismEngineData@CDataBaseEngine@@UAE_NGPAXG@Z$7 DD 040H
	DD	00H
	DD	00H
	DD	FLAT:__catch$?OnAsynchronismEngineData@CDataBaseEngine@@UAE_NGPAXG@Z$2
__catchsym$?OnAsynchronismEngineData@CDataBaseEngine@@UAE_NGPAXG@Z$6 DD 040H
	DD	00H
	DD	00H
	DD	FLAT:__catch$?OnAsynchronismEngineData@CDataBaseEngine@@UAE_NGPAXG@Z$0
__ehfuncinfo$?OnAsynchronismEngineData@CDataBaseEngine@@UAE_NGPAXG@Z DD 019930522H
	DD	06H
	DD	FLAT:__unwindtable$?OnAsynchronismEngineData@CDataBaseEngine@@UAE_NGPAXG@Z
	DD	03H
	DD	FLAT:__tryblocktable$?OnAsynchronismEngineData@CDataBaseEngine@@UAE_NGPAXG@Z
	DD	2 DUP(00H)
	DD	00H
	DD	01H
__unwindtable$?OnAsynchronismEngineData@CDataBaseEngine@@UAE_NGPAXG@Z DD 0ffffffffH
	DD	00H
	DD	0ffffffffH
	DD	00H
	DD	0ffffffffH
	DD	00H
	DD	0ffffffffH
	DD	00H
	DD	0ffffffffH
	DD	00H
	DD	0ffffffffH
	DD	00H
__tryblocktable$?OnAsynchronismEngineData@CDataBaseEngine@@UAE_NGPAXG@Z DD 00H
	DD	00H
	DD	01H
	DD	01H
	DD	FLAT:__catchsym$?OnAsynchronismEngineData@CDataBaseEngine@@UAE_NGPAXG@Z$6
	DD	02H
	DD	02H
	DD	03H
	DD	01H
	DD	FLAT:__catchsym$?OnAsynchronismEngineData@CDataBaseEngine@@UAE_NGPAXG@Z$7
	DD	04H
	DD	04H
	DD	05H
	DD	01H
	DD	FLAT:__catchsym$?OnAsynchronismEngineData@CDataBaseEngine@@UAE_NGPAXG@Z$8
xdata$x	ENDS
;	COMDAT xdata$x
xdata$x	SEGMENT
__unwindtable$?PostDataBaseRequest@CDataBaseEngine@@UAE_NGKPAXG@Z DD 0ffffffffH
	DD	FLAT:__unwindfunclet$?PostDataBaseRequest@CDataBaseEngine@@UAE_NGKPAXG@Z$0
__ehfuncinfo$?PostDataBaseRequest@CDataBaseEngine@@UAE_NGKPAXG@Z DD 019930522H
	DD	01H
	DD	FLAT:__unwindtable$?PostDataBaseRequest@CDataBaseEngine@@UAE_NGKPAXG@Z
	DD	2 DUP(00H)
	DD	2 DUP(00H)
	DD	00H
	DD	01H
xdata$x	ENDS
;	COMDAT xdata$x
xdata$x	SEGMENT
__unwindtable$?PostDataBaseControl@CDataBaseEngine@@UAE_NGPAXG@Z DD 0ffffffffH
	DD	FLAT:__unwindfunclet$?PostDataBaseControl@CDataBaseEngine@@UAE_NGPAXG@Z$0
__ehfuncinfo$?PostDataBaseControl@CDataBaseEngine@@UAE_NGPAXG@Z DD 019930522H
	DD	01H
	DD	FLAT:__unwindtable$?PostDataBaseControl@CDataBaseEngine@@UAE_NGPAXG@Z
	DD	2 DUP(00H)
	DD	2 DUP(00H)
	DD	00H
	DD	01H
xdata$x	ENDS
;	COMDAT xdata$x
xdata$x	SEGMENT
__unwindtable$??0CDataBaseEngine@@QAE@XZ DD 0ffffffffH
	DD	FLAT:__unwindfunclet$??0CDataBaseEngine@@QAE@XZ$0
__ehfuncinfo$??0CDataBaseEngine@@QAE@XZ DD 019930522H
	DD	01H
	DD	FLAT:__unwindtable$??0CDataBaseEngine@@QAE@XZ
	DD	2 DUP(00H)
	DD	2 DUP(00H)
	DD	00H
	DD	01H
xdata$x	ENDS
;	COMDAT xdata$x
xdata$x	SEGMENT
__catchsym$?TryConnectAgain@CDataBase@@IAE_NPAV_com_error@@@Z$2 DD 00H
	DD	FLAT:??_R0PAUIDataBaseException@@@8
	DD	00H
	DD	FLAT:__catch$?TryConnectAgain@CDataBase@@IAE_NPAV_com_error@@@Z$0
__unwindtable$?TryConnectAgain@CDataBase@@IAE_NPAV_com_error@@@Z DD 0ffffffffH
	DD	00H
	DD	0ffffffffH
	DD	00H
__tryblocktable$?TryConnectAgain@CDataBase@@IAE_NPAV_com_error@@@Z DD 00H
	DD	00H
	DD	01H
	DD	01H
	DD	FLAT:__catchsym$?TryConnectAgain@CDataBase@@IAE_NPAV_com_error@@@Z$2
__ehfuncinfo$?TryConnectAgain@CDataBase@@IAE_NPAV_com_error@@@Z DD 019930522H
	DD	02H
	DD	FLAT:__unwindtable$?TryConnectAgain@CDataBase@@IAE_NPAV_com_error@@@Z
	DD	01H
	DD	FLAT:__tryblocktable$?TryConnectAgain@CDataBase@@IAE_NPAV_com_error@@@Z
	DD	2 DUP(00H)
	DD	00H
	DD	01H
xdata$x	ENDS
;	COMDAT xdata$x
xdata$x	SEGMENT
__catchsym$?IsConnectError@CDataBase@@IAE_NXZ$12 DD 08H
	DD	FLAT:??_R0?AV_com_error@@@8
	DD	0ffffff54H
	DD	FLAT:__catch$?IsConnectError@CDataBase@@IAE_NXZ$0
__tryblocktable$?IsConnectError@CDataBase@@IAE_NXZ DD 00H
	DD	06H
	DD	07H
	DD	01H
	DD	FLAT:__catchsym$?IsConnectError@CDataBase@@IAE_NXZ$12
__ehfuncinfo$?IsConnectError@CDataBase@@IAE_NXZ DD 019930522H
	DD	08H
	DD	FLAT:__unwindtable$?IsConnectError@CDataBase@@IAE_NXZ
	DD	01H
	DD	FLAT:__tryblocktable$?IsConnectError@CDataBase@@IAE_NXZ
	DD	2 DUP(00H)
	DD	00H
	DD	01H
__unwindtable$?IsConnectError@CDataBase@@IAE_NXZ DD 0ffffffffH
	DD	00H
	DD	00H
	DD	FLAT:__unwindfunclet$?IsConnectError@CDataBase@@IAE_NXZ$2
	DD	00H
	DD	FLAT:__unwindfunclet$?IsConnectError@CDataBase@@IAE_NXZ$3
	DD	02H
	DD	FLAT:__unwindfunclet$?IsConnectError@CDataBase@@IAE_NXZ$4
	DD	02H
	DD	FLAT:__unwindfunclet$?IsConnectError@CDataBase@@IAE_NXZ$5
	DD	04H
	DD	FLAT:__unwindfunclet$?IsConnectError@CDataBase@@IAE_NXZ$6
	DD	05H
	DD	FLAT:__unwindfunclet$?IsConnectError@CDataBase@@IAE_NXZ$7
	DD	0ffffffffH
	DD	00H
xdata$x	ENDS
;	COMDAT xdata$x
xdata$x	SEGMENT
__catchsym$?ExecuteSentence@CDataBase@@UAEXPBD_N@Z$10 DD 08H
	DD	FLAT:??_R0?AV_com_error@@@8
	DD	0ffffffd0H
	DD	FLAT:__catch$?ExecuteSentence@CDataBase@@UAEXPBD_N@Z$0
__tryblocktable$?ExecuteSentence@CDataBase@@UAEXPBD_N@Z DD 00H
	DD	02H
	DD	03H
	DD	01H
	DD	FLAT:__catchsym$?ExecuteSentence@CDataBase@@UAEXPBD_N@Z$10
__unwindtable$?ExecuteSentence@CDataBase@@UAEXPBD_N@Z DD 0ffffffffH
	DD	00H
	DD	00H
	DD	FLAT:__unwindfunclet$?ExecuteSentence@CDataBase@@UAEXPBD_N@Z$2
	DD	00H
	DD	FLAT:__unwindfunclet$?ExecuteSentence@CDataBase@@UAEXPBD_N@Z$3
	DD	0ffffffffH
	DD	00H
__ehfuncinfo$?ExecuteSentence@CDataBase@@UAEXPBD_N@Z DD 019930522H
	DD	04H
	DD	FLAT:__unwindtable$?ExecuteSentence@CDataBase@@UAEXPBD_N@Z
	DD	01H
	DD	FLAT:__tryblocktable$?ExecuteSentence@CDataBase@@UAEXPBD_N@Z
	DD	2 DUP(00H)
	DD	00H
	DD	01H
xdata$x	ENDS
;	COMDAT xdata$x
xdata$x	SEGMENT
__catchsym$?ExecuteProcess@CDataBase@@UAEXPBD_N@Z$10 DD 08H
	DD	FLAT:??_R0?AV_com_error@@@8
	DD	0ffffffa4H
	DD	FLAT:__catch$?ExecuteProcess@CDataBase@@UAEXPBD_N@Z$0
__tryblocktable$?ExecuteProcess@CDataBase@@UAEXPBD_N@Z DD 00H
	DD	04H
	DD	05H
	DD	01H
	DD	FLAT:__catchsym$?ExecuteProcess@CDataBase@@UAEXPBD_N@Z$10
__ehfuncinfo$?ExecuteProcess@CDataBase@@UAEXPBD_N@Z DD 019930522H
	DD	06H
	DD	FLAT:__unwindtable$?ExecuteProcess@CDataBase@@UAEXPBD_N@Z
	DD	01H
	DD	FLAT:__tryblocktable$?ExecuteProcess@CDataBase@@UAEXPBD_N@Z
	DD	2 DUP(00H)
	DD	00H
	DD	01H
__unwindtable$?ExecuteProcess@CDataBase@@UAEXPBD_N@Z DD 0ffffffffH
	DD	00H
	DD	00H
	DD	FLAT:__unwindfunclet$?ExecuteProcess@CDataBase@@UAEXPBD_N@Z$2
	DD	00H
	DD	FLAT:__unwindfunclet$?ExecuteProcess@CDataBase@@UAEXPBD_N@Z$3
	DD	00H
	DD	FLAT:__unwindfunclet$?ExecuteProcess@CDataBase@@UAEXPBD_N@Z$4
	DD	00H
	DD	FLAT:__unwindfunclet$?ExecuteProcess@CDataBase@@UAEXPBD_N@Z$6
	DD	0ffffffffH
	DD	00H
xdata$x	ENDS
;	COMDAT xdata$x
xdata$x	SEGMENT
__catchsym$?GetRecordsetValue@CDataBase@@UAEXPBDAAV_variant_t@@@Z$9 DD 08H
	DD	FLAT:??_R0?AV_com_error@@@8
	DD	0ffffffacH
	DD	FLAT:__catch$?GetRecordsetValue@CDataBase@@UAEXPBDAAV_variant_t@@@Z$0
__tryblocktable$?GetRecordsetValue@CDataBase@@UAEXPBDAAV_variant_t@@@Z DD 00H
	DD	04H
	DD	05H
	DD	01H
	DD	FLAT:__catchsym$?GetRecordsetValue@CDataBase@@UAEXPBDAAV_variant_t@@@Z$9
__ehfuncinfo$?GetRecordsetValue@CDataBase@@UAEXPBDAAV_variant_t@@@Z DD 019930522H
	DD	06H
	DD	FLAT:__unwindtable$?GetRecordsetValue@CDataBase@@UAEXPBDAAV_variant_t@@@Z
	DD	01H
	DD	FLAT:__tryblocktable$?GetRecordsetValue@CDataBase@@UAEXPBDAAV_variant_t@@@Z
	DD	2 DUP(00H)
	DD	00H
	DD	01H
__unwindtable$?GetRecordsetValue@CDataBase@@UAEXPBDAAV_variant_t@@@Z DD 0ffffffffH
	DD	00H
	DD	00H
	DD	FLAT:__unwindfunclet$?GetRecordsetValue@CDataBase@@UAEXPBDAAV_variant_t@@@Z$2
	DD	01H
	DD	FLAT:__unwindfunclet$?GetRecordsetValue@CDataBase@@UAEXPBDAAV_variant_t@@@Z$3
	DD	02H
	DD	FLAT:__unwindfunclet$?GetRecordsetValue@CDataBase@@UAEXPBDAAV_variant_t@@@Z$4
	DD	03H
	DD	FLAT:__unwindfunclet$?GetRecordsetValue@CDataBase@@UAEXPBDAAV_variant_t@@@Z$5
	DD	0ffffffffH
	DD	00H
xdata$x	ENDS
;	COMDAT xdata$x
xdata$x	SEGMENT
__catchsym$?GetReturnValue@CDataBase@@UAEJXZ$12 DD 08H
	DD	FLAT:??_R0?AV_com_error@@@8
	DD	0ffffff74H
	DD	FLAT:__catch$?GetReturnValue@CDataBase@@UAEJXZ$0
__tryblocktable$?GetReturnValue@CDataBase@@UAEJXZ DD 00H
	DD	04H
	DD	05H
	DD	01H
	DD	FLAT:__catchsym$?GetReturnValue@CDataBase@@UAEJXZ$12
__ehfuncinfo$?GetReturnValue@CDataBase@@UAEJXZ DD 019930522H
	DD	06H
	DD	FLAT:__unwindtable$?GetReturnValue@CDataBase@@UAEJXZ
	DD	01H
	DD	FLAT:__tryblocktable$?GetReturnValue@CDataBase@@UAEJXZ
	DD	2 DUP(00H)
	DD	00H
	DD	01H
__unwindtable$?GetReturnValue@CDataBase@@UAEJXZ DD 0ffffffffH
	DD	00H
	DD	00H
	DD	FLAT:__unwindfunclet$?GetReturnValue@CDataBase@@UAEJXZ$2
	DD	01H
	DD	FLAT:__unwindfunclet$?GetReturnValue@CDataBase@@UAEJXZ$3
	DD	01H
	DD	FLAT:__unwindfunclet$?GetReturnValue@CDataBase@@UAEJXZ$4
	DD	03H
	DD	FLAT:__unwindfunclet$?GetReturnValue@CDataBase@@UAEJXZ$5
	DD	0ffffffffH
	DD	00H
xdata$x	ENDS
;	COMDAT xdata$x
xdata$x	SEGMENT
__catchsym$?GetRecordCount@CDataBase@@UAEJXZ$2 DD 08H
	DD	FLAT:??_R0?AV_com_error@@@8
	DD	0ffffffd4H
	DD	FLAT:__catch$?GetRecordCount@CDataBase@@UAEJXZ$0
__unwindtable$?GetRecordCount@CDataBase@@UAEJXZ DD 0ffffffffH
	DD	00H
	DD	0ffffffffH
	DD	00H
__tryblocktable$?GetRecordCount@CDataBase@@UAEJXZ DD 00H
	DD	00H
	DD	01H
	DD	01H
	DD	FLAT:__catchsym$?GetRecordCount@CDataBase@@UAEJXZ$2
__ehfuncinfo$?GetRecordCount@CDataBase@@UAEJXZ DD 019930522H
	DD	02H
	DD	FLAT:__unwindtable$?GetRecordCount@CDataBase@@UAEJXZ
	DD	01H
	DD	FLAT:__tryblocktable$?GetRecordCount@CDataBase@@UAEJXZ
	DD	2 DUP(00H)
	DD	00H
	DD	01H
xdata$x	ENDS
;	COMDAT xdata$x
xdata$x	SEGMENT
__catchsym$?IsRecordsetEnd@CDataBase@@UAE_NXZ$2 DD 08H
	DD	FLAT:??_R0?AV_com_error@@@8
	DD	0ffffffd8H
	DD	FLAT:__catch$?IsRecordsetEnd@CDataBase@@UAE_NXZ$0
__unwindtable$?IsRecordsetEnd@CDataBase@@UAE_NXZ DD 0ffffffffH
	DD	00H
	DD	0ffffffffH
	DD	00H
__tryblocktable$?IsRecordsetEnd@CDataBase@@UAE_NXZ DD 00H
	DD	00H
	DD	01H
	DD	01H
	DD	FLAT:__catchsym$?IsRecordsetEnd@CDataBase@@UAE_NXZ$2
__ehfuncinfo$?IsRecordsetEnd@CDataBase@@UAE_NXZ DD 019930522H
	DD	02H
	DD	FLAT:__unwindtable$?IsRecordsetEnd@CDataBase@@UAE_NXZ
	DD	01H
	DD	FLAT:__tryblocktable$?IsRecordsetEnd@CDataBase@@UAE_NXZ
	DD	2 DUP(00H)
	DD	00H
	DD	01H
xdata$x	ENDS
;	COMDAT xdata$x
xdata$x	SEGMENT
__catchsym$?MoveToFirst@CDataBase@@UAEXXZ$2 DD 08H
	DD	FLAT:??_R0?AV_com_error@@@8
	DD	0ffffffd8H
	DD	FLAT:__catch$?MoveToFirst@CDataBase@@UAEXXZ$0
__unwindtable$?MoveToFirst@CDataBase@@UAEXXZ DD 0ffffffffH
	DD	00H
	DD	0ffffffffH
	DD	00H
__tryblocktable$?MoveToFirst@CDataBase@@UAEXXZ DD 00H
	DD	00H
	DD	01H
	DD	01H
	DD	FLAT:__catchsym$?MoveToFirst@CDataBase@@UAEXXZ$2
__ehfuncinfo$?MoveToFirst@CDataBase@@UAEXXZ DD 019930522H
	DD	02H
	DD	FLAT:__unwindtable$?MoveToFirst@CDataBase@@UAEXXZ
	DD	01H
	DD	FLAT:__tryblocktable$?MoveToFirst@CDataBase@@UAEXXZ
	DD	2 DUP(00H)
	DD	00H
	DD	01H
xdata$x	ENDS
;	COMDAT xdata$x
xdata$x	SEGMENT
__catchsym$?MoveToNext@CDataBase@@UAEXXZ$2 DD 08H
	DD	FLAT:??_R0?AV_com_error@@@8
	DD	0ffffffd8H
	DD	FLAT:__catch$?MoveToNext@CDataBase@@UAEXXZ$0
__unwindtable$?MoveToNext@CDataBase@@UAEXXZ DD 0ffffffffH
	DD	00H
	DD	0ffffffffH
	DD	00H
__tryblocktable$?MoveToNext@CDataBase@@UAEXXZ DD 00H
	DD	00H
	DD	01H
	DD	01H
	DD	FLAT:__catchsym$?MoveToNext@CDataBase@@UAEXXZ$2
__ehfuncinfo$?MoveToNext@CDataBase@@UAEXXZ DD 019930522H
	DD	02H
	DD	FLAT:__unwindtable$?MoveToNext@CDataBase@@UAEXXZ
	DD	01H
	DD	FLAT:__tryblocktable$?MoveToNext@CDataBase@@UAEXXZ
	DD	2 DUP(00H)
	DD	00H
	DD	01H
xdata$x	ENDS
;	COMDAT xdata$x
xdata$x	SEGMENT
__catchsym$?BindToRecordset@CDataBase@@UAEXPAVCADORecordBinding@@@Z$4 DD 08H
	DD	FLAT:??_R0?AV_com_error@@@8
	DD	0ffffffd8H
	DD	FLAT:__catch$?BindToRecordset@CDataBase@@UAEXPAVCADORecordBinding@@@Z$0
__tryblocktable$?BindToRecordset@CDataBase@@UAEXPAVCADORecordBinding@@@Z DD 00H
	DD	01H
	DD	02H
	DD	01H
	DD	FLAT:__catchsym$?BindToRecordset@CDataBase@@UAEXPAVCADORecordBinding@@@Z$4
__unwindtable$?BindToRecordset@CDataBase@@UAEXPAVCADORecordBinding@@@Z DD 0ffffffffH
	DD	00H
	DD	00H
	DD	FLAT:__unwindfunclet$?BindToRecordset@CDataBase@@UAEXPAVCADORecordBinding@@@Z$2
	DD	0ffffffffH
	DD	00H
__ehfuncinfo$?BindToRecordset@CDataBase@@UAEXPAVCADORecordBinding@@@Z DD 019930522H
	DD	03H
	DD	FLAT:__unwindtable$?BindToRecordset@CDataBase@@UAEXPAVCADORecordBinding@@@Z
	DD	01H
	DD	FLAT:__tryblocktable$?BindToRecordset@CDataBase@@UAEXPAVCADORecordBinding@@@Z
	DD	2 DUP(00H)
	DD	00H
	DD	01H
xdata$x	ENDS
;	COMDAT xdata$x
xdata$x	SEGMENT
__catchsym$?CloseRecordset@CDataBase@@UAEXXZ$2 DD 08H
	DD	FLAT:??_R0?AV_com_error@@@8
	DD	0ffffffccH
	DD	FLAT:__catch$?CloseRecordset@CDataBase@@UAEXXZ$0
__unwindtable$?CloseRecordset@CDataBase@@UAEXXZ DD 0ffffffffH
	DD	00H
	DD	0ffffffffH
	DD	00H
__tryblocktable$?CloseRecordset@CDataBase@@UAEXXZ DD 00H
	DD	00H
	DD	01H
	DD	01H
	DD	FLAT:__catchsym$?CloseRecordset@CDataBase@@UAEXXZ$2
__ehfuncinfo$?CloseRecordset@CDataBase@@UAEXXZ DD 019930522H
	DD	02H
	DD	FLAT:__unwindtable$?CloseRecordset@CDataBase@@UAEXXZ
	DD	01H
	DD	FLAT:__tryblocktable$?CloseRecordset@CDataBase@@UAEXXZ
	DD	2 DUP(00H)
	DD	00H
	DD	01H
xdata$x	ENDS
;	COMDAT xdata$x
xdata$x	SEGMENT
__catchsym$?NextRecordset@CDataBase@@UAEXXZ$5 DD 08H
	DD	FLAT:??_R0?AV_com_error@@@8
	DD	0ffffffd4H
	DD	FLAT:__catch$?NextRecordset@CDataBase@@UAEXXZ$0
__tryblocktable$?NextRecordset@CDataBase@@UAEXXZ DD 00H
	DD	01H
	DD	02H
	DD	01H
	DD	FLAT:__catchsym$?NextRecordset@CDataBase@@UAEXXZ$5
__unwindtable$?NextRecordset@CDataBase@@UAEXXZ DD 0ffffffffH
	DD	00H
	DD	00H
	DD	FLAT:__unwindfunclet$?NextRecordset@CDataBase@@UAEXXZ$2
	DD	0ffffffffH
	DD	00H
__ehfuncinfo$?NextRecordset@CDataBase@@UAEXXZ DD 019930522H
	DD	03H
	DD	FLAT:__unwindtable$?NextRecordset@CDataBase@@UAEXXZ
	DD	01H
	DD	FLAT:__tryblocktable$?NextRecordset@CDataBase@@UAEXXZ
	DD	2 DUP(00H)
	DD	00H
	DD	01H
xdata$x	ENDS
;	COMDAT xdata$x
xdata$x	SEGMENT
__catchsym$?AddParameter@CDataBase@@UAEXPBDW4DataTypeEnum@ADOCG@@W4ParameterDirectionEnum@3@JAAV_variant_t@@@Z$9 DD 08H
	DD	FLAT:??_R0?AV_com_error@@@8
	DD	0ffffffa8H
	DD	FLAT:__catch$?AddParameter@CDataBase@@UAEXPBDW4DataTypeEnum@ADOCG@@W4ParameterDirectionEnum@3@JAAV_variant_t@@@Z$0
__tryblocktable$?AddParameter@CDataBase@@UAEXPBDW4DataTypeEnum@ADOCG@@W4ParameterDirectionEnum@3@JAAV_variant_t@@@Z DD 00H
	DD	03H
	DD	04H
	DD	01H
	DD	FLAT:__catchsym$?AddParameter@CDataBase@@UAEXPBDW4DataTypeEnum@ADOCG@@W4ParameterDirectionEnum@3@JAAV_variant_t@@@Z$9
__ehfuncinfo$?AddParameter@CDataBase@@UAEXPBDW4DataTypeEnum@ADOCG@@W4ParameterDirectionEnum@3@JAAV_variant_t@@@Z DD 019930522H
	DD	05H
	DD	FLAT:__unwindtable$?AddParameter@CDataBase@@UAEXPBDW4DataTypeEnum@ADOCG@@W4ParameterDirectionEnum@3@JAAV_variant_t@@@Z
	DD	01H
	DD	FLAT:__tryblocktable$?AddParameter@CDataBase@@UAEXPBDW4DataTypeEnum@ADOCG@@W4ParameterDirectionEnum@3@JAAV_variant_t@@@Z
	DD	2 DUP(00H)
	DD	00H
	DD	01H
__unwindtable$?AddParameter@CDataBase@@UAEXPBDW4DataTypeEnum@ADOCG@@W4ParameterDirectionEnum@3@JAAV_variant_t@@@Z DD 0ffffffffH
	DD	00H
	DD	00H
	DD	FLAT:__unwindfunclet$?AddParameter@CDataBase@@UAEXPBDW4DataTypeEnum@ADOCG@@W4ParameterDirectionEnum@3@JAAV_variant_t@@@Z$2
	DD	00H
	DD	FLAT:__unwindfunclet$?AddParameter@CDataBase@@UAEXPBDW4DataTypeEnum@ADOCG@@W4ParameterDirectionEnum@3@JAAV_variant_t@@@Z$3
	DD	02H
	DD	FLAT:__unwindfunclet$?AddParameter@CDataBase@@UAEXPBDW4DataTypeEnum@ADOCG@@W4ParameterDirectionEnum@3@JAAV_variant_t@@@Z$4
	DD	0ffffffffH
	DD	00H
xdata$x	ENDS
;	COMDAT xdata$x
xdata$x	SEGMENT
__catchsym$?GetParameter@CDataBase@@UAEXPBDAAV_variant_t@@@Z$9 DD 08H
	DD	FLAT:??_R0?AV_com_error@@@8
	DD	0ffffffa8H
	DD	FLAT:__catch$?GetParameter@CDataBase@@UAEXPBDAAV_variant_t@@@Z$0
__tryblocktable$?GetParameter@CDataBase@@UAEXPBDAAV_variant_t@@@Z DD 00H
	DD	04H
	DD	05H
	DD	01H
	DD	FLAT:__catchsym$?GetParameter@CDataBase@@UAEXPBDAAV_variant_t@@@Z$9
__ehfuncinfo$?GetParameter@CDataBase@@UAEXPBDAAV_variant_t@@@Z DD 019930522H
	DD	06H
	DD	FLAT:__unwindtable$?GetParameter@CDataBase@@UAEXPBDAAV_variant_t@@@Z
	DD	01H
	DD	FLAT:__tryblocktable$?GetParameter@CDataBase@@UAEXPBDAAV_variant_t@@@Z
	DD	2 DUP(00H)
	DD	00H
	DD	01H
__unwindtable$?GetParameter@CDataBase@@UAEXPBDAAV_variant_t@@@Z DD 0ffffffffH
	DD	00H
	DD	00H
	DD	FLAT:__unwindfunclet$?GetParameter@CDataBase@@UAEXPBDAAV_variant_t@@@Z$2
	DD	01H
	DD	FLAT:__unwindfunclet$?GetParameter@CDataBase@@UAEXPBDAAV_variant_t@@@Z$3
	DD	02H
	DD	FLAT:__unwindfunclet$?GetParameter@CDataBase@@UAEXPBDAAV_variant_t@@@Z$4
	DD	03H
	DD	FLAT:__unwindfunclet$?GetParameter@CDataBase@@UAEXPBDAAV_variant_t@@@Z$5
	DD	0ffffffffH
	DD	00H
xdata$x	ENDS
;	COMDAT xdata$x
xdata$x	SEGMENT
__catchsym$?ClearParameters@CDataBase@@UAEXXZ$7 DD 08H
	DD	FLAT:??_R0?AV_com_error@@@8
	DD	0ffffff9cH
	DD	FLAT:__catch$?ClearParameters@CDataBase@@UAEXXZ$0
__tryblocktable$?ClearParameters@CDataBase@@UAEXXZ DD 00H
	DD	03H
	DD	04H
	DD	01H
	DD	FLAT:__catchsym$?ClearParameters@CDataBase@@UAEXXZ$7
__ehfuncinfo$?ClearParameters@CDataBase@@UAEXXZ DD 019930522H
	DD	05H
	DD	FLAT:__unwindtable$?ClearParameters@CDataBase@@UAEXXZ
	DD	01H
	DD	FLAT:__tryblocktable$?ClearParameters@CDataBase@@UAEXXZ
	DD	2 DUP(00H)
	DD	00H
	DD	01H
__unwindtable$?ClearParameters@CDataBase@@UAEXXZ DD 0ffffffffH
	DD	00H
	DD	00H
	DD	FLAT:__unwindfunclet$?ClearParameters@CDataBase@@UAEXXZ$2
	DD	00H
	DD	FLAT:__unwindfunclet$?ClearParameters@CDataBase@@UAEXXZ$3
	DD	02H
	DD	FLAT:__unwindfunclet$?ClearParameters@CDataBase@@UAEXXZ$4
	DD	0ffffffffH
	DD	00H
xdata$x	ENDS
;	COMDAT xdata$x
xdata$x	SEGMENT
__unwindtable$?SetConnectionInfo@CDataBase@@UAE_NPBDG000@Z DD 0ffffffffH
	DD	FLAT:__unwindfunclet$?SetConnectionInfo@CDataBase@@UAE_NPBDG000@Z$0
	DD	00H
	DD	FLAT:__unwindfunclet$?SetConnectionInfo@CDataBase@@UAE_NPBDG000@Z$1
	DD	01H
	DD	FLAT:__unwindfunclet$?SetConnectionInfo@CDataBase@@UAE_NPBDG000@Z$2
__ehfuncinfo$?SetConnectionInfo@CDataBase@@UAE_NPBDG000@Z DD 019930522H
	DD	03H
	DD	FLAT:__unwindtable$?SetConnectionInfo@CDataBase@@UAE_NPBDG000@Z
	DD	2 DUP(00H)
	DD	2 DUP(00H)
	DD	00H
	DD	01H
xdata$x	ENDS
;	COMDAT xdata$x
xdata$x	SEGMENT
__unwindtable$?SetConnectionInfo@CDataBase@@UAE_NKGPBD00@Z DD 0ffffffffH
	DD	FLAT:__unwindfunclet$?SetConnectionInfo@CDataBase@@UAE_NKGPBD00@Z$0
	DD	00H
	DD	FLAT:__unwindfunclet$?SetConnectionInfo@CDataBase@@UAE_NKGPBD00@Z$1
	DD	01H
	DD	FLAT:__unwindfunclet$?SetConnectionInfo@CDataBase@@UAE_NKGPBD00@Z$2
__ehfuncinfo$?SetConnectionInfo@CDataBase@@UAE_NKGPBD00@Z DD 019930522H
	DD	03H
	DD	FLAT:__unwindtable$?SetConnectionInfo@CDataBase@@UAE_NKGPBD00@Z
	DD	2 DUP(00H)
	DD	2 DUP(00H)
	DD	00H
	DD	01H
xdata$x	ENDS
;	COMDAT xdata$x
xdata$x	SEGMENT
__catchsym$?CloseConnection@CDataBase@@UAEXXZ$2 DD 08H
	DD	FLAT:??_R0?AV_com_error@@@8
	DD	0ffffffb8H
	DD	FLAT:__catch$?CloseConnection@CDataBase@@UAEXXZ$0
__unwindtable$?CloseConnection@CDataBase@@UAEXXZ DD 0ffffffffH
	DD	00H
	DD	0ffffffffH
	DD	00H
__tryblocktable$?CloseConnection@CDataBase@@UAEXXZ DD 00H
	DD	00H
	DD	01H
	DD	01H
	DD	FLAT:__catchsym$?CloseConnection@CDataBase@@UAEXXZ$2
__ehfuncinfo$?CloseConnection@CDataBase@@UAEXXZ DD 019930522H
	DD	02H
	DD	FLAT:__unwindtable$?CloseConnection@CDataBase@@UAEXXZ
	DD	01H
	DD	FLAT:__tryblocktable$?CloseConnection@CDataBase@@UAEXXZ
	DD	2 DUP(00H)
	DD	00H
	DD	01H
xdata$x	ENDS
;	COMDAT xdata$x
xdata$x	SEGMENT
__catchsym$?OpenConnection@CDataBase@@UAEXXZ$14 DD 08H
	DD	FLAT:??_R0?AV_com_error@@@8
	DD	0ffffff80H
	DD	FLAT:__catch$?OpenConnection@CDataBase@@UAEXXZ$0
__tryblocktable$?OpenConnection@CDataBase@@UAEXXZ DD 00H
	DD	06H
	DD	07H
	DD	01H
	DD	FLAT:__catchsym$?OpenConnection@CDataBase@@UAEXXZ$14
__ehfuncinfo$?OpenConnection@CDataBase@@UAEXXZ DD 019930522H
	DD	08H
	DD	FLAT:__unwindtable$?OpenConnection@CDataBase@@UAEXXZ
	DD	01H
	DD	FLAT:__tryblocktable$?OpenConnection@CDataBase@@UAEXXZ
	DD	2 DUP(00H)
	DD	00H
	DD	01H
__unwindtable$?OpenConnection@CDataBase@@UAEXXZ DD 0ffffffffH
	DD	00H
	DD	00H
	DD	FLAT:__unwindfunclet$?OpenConnection@CDataBase@@UAEXXZ$2
	DD	01H
	DD	FLAT:__unwindfunclet$?OpenConnection@CDataBase@@UAEXXZ$3
	DD	02H
	DD	FLAT:__unwindfunclet$?OpenConnection@CDataBase@@UAEXXZ$4
	DD	00H
	DD	FLAT:__unwindfunclet$?OpenConnection@CDataBase@@UAEXXZ$5
	DD	04H
	DD	FLAT:__unwindfunclet$?OpenConnection@CDataBase@@UAEXXZ$6
	DD	05H
	DD	FLAT:__unwindfunclet$?OpenConnection@CDataBase@@UAEXXZ$7
	DD	0ffffffffH
	DD	00H
xdata$x	ENDS
;	COMDAT xdata$x
xdata$x	SEGMENT
__ehfuncinfo$??1CDataBase@@UAE@XZ DD 019930522H
	DD	00H
	DD	00H
	DD	2 DUP(00H)
	DD	2 DUP(00H)
	DD	00H
	DD	05H
xdata$x	ENDS
;	COMDAT xdata$x
xdata$x	SEGMENT
__ehfuncinfo$??0CDataBase@@QAE@XZ DD 019930522H
	DD	05H
	DD	FLAT:__unwindtable$??0CDataBase@@QAE@XZ
	DD	2 DUP(00H)
	DD	2 DUP(00H)
	DD	00H
	DD	01H
__unwindtable$??0CDataBase@@QAE@XZ DD 0ffffffffH
	DD	FLAT:__unwindfunclet$??0CDataBase@@QAE@XZ$0
	DD	00H
	DD	FLAT:__unwindfunclet$??0CDataBase@@QAE@XZ$1
	DD	01H
	DD	FLAT:__unwindfunclet$??0CDataBase@@QAE@XZ$2
	DD	02H
	DD	FLAT:__unwindfunclet$??0CDataBase@@QAE@XZ$3
	DD	03H
	DD	FLAT:__unwindfunclet$??0CDataBase@@QAE@XZ$4
xdata$x	ENDS
;	COMDAT xdata$x
xdata$x	SEGMENT
__unwindtable$?SetExceptionInfo@CDataBaseException@@QAEXW4enSQLException@@PAV_com_error@@@Z DD 0ffffffffH
	DD	FLAT:__unwindfunclet$?SetExceptionInfo@CDataBaseException@@QAEXW4enSQLException@@PAV_com_error@@@Z$0
__ehfuncinfo$?SetExceptionInfo@CDataBaseException@@QAEXW4enSQLException@@PAV_com_error@@@Z DD 019930522H
	DD	01H
	DD	FLAT:__unwindtable$?SetExceptionInfo@CDataBaseException@@QAEXW4enSQLException@@PAV_com_error@@@Z
	DD	2 DUP(00H)
	DD	2 DUP(00H)
	DD	00H
	DD	01H
xdata$x	ENDS
;	COMDAT xdata$x
xdata$x	SEGMENT
__unwindtable$?Open@Connection15@ADOCG@@QAEJV_bstr_t@@00J@Z DD 0ffffffffH
	DD	FLAT:__unwindfunclet$?Open@Connection15@ADOCG@@QAEJV_bstr_t@@00J@Z$0
	DD	00H
	DD	FLAT:__unwindfunclet$?Open@Connection15@ADOCG@@QAEJV_bstr_t@@00J@Z$1
	DD	01H
	DD	FLAT:__unwindfunclet$?Open@Connection15@ADOCG@@QAEJV_bstr_t@@00J@Z$2
__ehfuncinfo$?Open@Connection15@ADOCG@@QAEJV_bstr_t@@00J@Z DD 019930522H
	DD	03H
	DD	FLAT:__unwindtable$?Open@Connection15@ADOCG@@QAEJV_bstr_t@@00J@Z
	DD	2 DUP(00H)
	DD	2 DUP(00H)
	DD	00H
	DD	01H
xdata$x	ENDS
;	COMDAT xdata$x
xdata$x	SEGMENT
__unwindtable$?Execute@Connection15@ADOCG@@QAE?AV?$_com_ptr_t@V?$_com_IIID@U_Recordset@ADOCG@@$1?_GUID_00000556_0000_0010_8000_00aa006d2ea4@@3U__s_GUID@@B@@@@V_bstr_t@@PAUtagVARIANT@@J@Z DD 0ffffffffH
	DD	FLAT:__unwindfunclet$?Execute@Connection15@ADOCG@@QAE?AV?$_com_ptr_t@V?$_com_IIID@U_Recordset@ADOCG@@$1?_GUID_00000556_0000_0010_8000_00aa006d2ea4@@3U__s_GUID@@B@@@@V_bstr_t@@PAUtagVARIANT@@J@Z$0
__ehfuncinfo$?Execute@Connection15@ADOCG@@QAE?AV?$_com_ptr_t@V?$_com_IIID@U_Recordset@ADOCG@@$1?_GUID_00000556_0000_0010_8000_00aa006d2ea4@@3U__s_GUID@@B@@@@V_bstr_t@@PAUtagVARIANT@@J@Z DD 019930522H
	DD	01H
	DD	FLAT:__unwindtable$?Execute@Connection15@ADOCG@@QAE?AV?$_com_ptr_t@V?$_com_IIID@U_Recordset@ADOCG@@$1?_GUID_00000556_0000_0010_8000_00aa006d2ea4@@3U__s_GUID@@B@@@@V_bstr_t@@PAUtagVARIANT@@J@Z
	DD	2 DUP(00H)
	DD	2 DUP(00H)
	DD	00H
	DD	01H
xdata$x	ENDS
;	COMDAT xdata$x
xdata$x	SEGMENT
__unwindtable$?CreateParameter@Command15@ADOCG@@QAE?AV?$_com_ptr_t@V?$_com_IIID@U_Parameter@ADOCG@@$1?_GUID_0000050c_0000_0010_8000_00aa006d2ea4@@3U__s_GUID@@B@@@@V_bstr_t@@W4DataTypeEnum@2@W4ParameterDirectionEnum@2@JABV_variant_t@@@Z DD 0ffffffffH
	DD	FLAT:__unwindfunclet$?CreateParameter@Command15@ADOCG@@QAE?AV?$_com_ptr_t@V?$_com_IIID@U_Parameter@ADOCG@@$1?_GUID_0000050c_0000_0010_8000_00aa006d2ea4@@3U__s_GUID@@B@@@@V_bstr_t@@W4DataTypeEnum@2@W4ParameterDirectionEnum@2@JABV_variant_t@@@Z$0
__ehfuncinfo$?CreateParameter@Command15@ADOCG@@QAE?AV?$_com_ptr_t@V?$_com_IIID@U_Parameter@ADOCG@@$1?_GUID_0000050c_0000_0010_8000_00aa006d2ea4@@3U__s_GUID@@B@@@@V_bstr_t@@W4DataTypeEnum@2@W4ParameterDirectionEnum@2@JABV_variant_t@@@Z DD 019930522H
	DD	01H
	DD	FLAT:__unwindtable$?CreateParameter@Command15@ADOCG@@QAE?AV?$_com_ptr_t@V?$_com_IIID@U_Parameter@ADOCG@@$1?_GUID_0000050c_0000_0010_8000_00aa006d2ea4@@3U__s_GUID@@B@@@@V_bstr_t@@W4DataTypeEnum@2@W4ParameterDirectionEnum@2@JABV_variant_t@@@Z
	DD	2 DUP(00H)
	DD	2 DUP(00H)
	DD	00H
	DD	01H
xdata$x	ENDS
;	COMDAT xdata$x
xdata$x	SEGMENT
__unwindtable$?PutCommandText@Command15@ADOCG@@QAEXV_bstr_t@@@Z DD 0ffffffffH
	DD	FLAT:__unwindfunclet$?PutCommandText@Command15@ADOCG@@QAEXV_bstr_t@@@Z$0
__ehfuncinfo$?PutCommandText@Command15@ADOCG@@QAEXV_bstr_t@@@Z DD 019930522H
	DD	01H
	DD	FLAT:__unwindtable$?PutCommandText@Command15@ADOCG@@QAEXV_bstr_t@@@Z
	DD	2 DUP(00H)
	DD	2 DUP(00H)
	DD	00H
	DD	01H
xdata$x	ENDS
;	COMDAT xdata$x
xdata$x	SEGMENT
__unwindtable$??0_bstr_t@@QAE@PA_W_N@Z DD 0ffffffffH
	DD	FLAT:__unwindfunclet$??0_bstr_t@@QAE@PA_W_N@Z$0
__ehfuncinfo$??0_bstr_t@@QAE@PA_W_N@Z DD 019930522H
	DD	01H
	DD	FLAT:__unwindtable$??0_bstr_t@@QAE@PA_W_N@Z
	DD	2 DUP(00H)
	DD	2 DUP(00H)
	DD	00H
	DD	01H
xdata$x	ENDS
;	COMDAT xdata$x
xdata$x	SEGMENT
__unwindtable$??0_bstr_t@@QAE@PB_W@Z DD 0ffffffffH
	DD	FLAT:__unwindfunclet$??0_bstr_t@@QAE@PB_W@Z$0
__ehfuncinfo$??0_bstr_t@@QAE@PB_W@Z DD 019930522H
	DD	01H
	DD	FLAT:__unwindtable$??0_bstr_t@@QAE@PB_W@Z
	DD	2 DUP(00H)
	DD	2 DUP(00H)
	DD	00H
	DD	01H
xdata$x	ENDS
;	COMDAT xdata$x
xdata$x	SEGMENT
__unwindtable$??0_bstr_t@@QAE@PBD@Z DD 0ffffffffH
	DD	FLAT:__unwindfunclet$??0_bstr_t@@QAE@PBD@Z$0
__ehfuncinfo$??0_bstr_t@@QAE@PBD@Z DD 019930522H
	DD	01H
	DD	FLAT:__unwindtable$??0_bstr_t@@QAE@PBD@Z
	DD	2 DUP(00H)
	DD	2 DUP(00H)
	DD	00H
	DD	01H
xdata$x	ENDS
; Function compile flags: /Odsp
;	COMDAT ?QueryInterface@CDataBaseEngine@@W3AEPAXABU_GUID@@K@Z
_TEXT	SEGMENT
?QueryInterface@CDataBaseEngine@@W3AEPAXABU_GUID@@K@Z PROC ; [thunk]:CDataBaseEngine::QueryInterface`adjustor{4}', COMDAT
  00000	83 e9 04	 sub	 ecx, 4
  00003	e9 00 00 00 00	 jmp	 ?QueryInterface@CDataBaseEngine@@UAEPAXABU_GUID@@K@Z ; CDataBaseEngine::QueryInterface
?QueryInterface@CDataBaseEngine@@W3AEPAXABU_GUID@@K@Z ENDP ; [thunk]:CDataBaseEngine::QueryInterface`adjustor{4}'
_TEXT	ENDS
; Function compile flags: /Odsp
;	COMDAT ?Release@CDataBaseEngine@@W3AEXXZ
_TEXT	SEGMENT
?Release@CDataBaseEngine@@W3AEXXZ PROC			; [thunk]:CDataBaseEngine::Release`adjustor{4}', COMDAT
  00000	83 e9 04	 sub	 ecx, 4
  00003	e9 00 00 00 00	 jmp	 ?Release@CDataBaseEngine@@UAEXXZ ; CDataBaseEngine::Release
?Release@CDataBaseEngine@@W3AEXXZ ENDP			; [thunk]:CDataBaseEngine::Release`adjustor{4}'
_TEXT	ENDS
; Function compile flags: /Odtp
; File c:\program files (x86)\microsoft visual studio\2017\community\vc\tools\msvc\14.16.27023\include\comip.h
;	COMDAT ??$_QueryInterface@V?$_com_ptr_t@V?$_com_IIID@U_Recordset@ADOCG@@$1?_GUID_00000556_0000_0010_8000_00aa006d2ea4@@3U__s_GUID@@B@@@@@?$_com_ptr_t@V?$_com_IIID@UIADORecordBinding@@$1?_GUID_00000544_0000_0010_8000_00aa006d2ea4@@3U__s_GUID@@B@@@@AAEJV?$_com_ptr_t@V?$_com_IIID@U_Recordset@ADOCG@@$1?_GUID_00000556_0000_0010_8000_00aa006d2ea4@@3U__s_GUID@@B@@@@@Z
_TEXT	SEGMENT
$T1 = -40						; size = 4
$T2 = -36						; size = 4
$T3 = -32						; size = 4
_pInterface$4 = -28					; size = 4
tv128 = -24						; size = 4
tv134 = -20						; size = 4
_hr$ = -16						; size = 4
tv77 = -12						; size = 4
_this$ = -8						; size = 4
$T5 = -2						; size = 1
$T6 = -1						; size = 1
_p$ = 8							; size = 4
??$_QueryInterface@V?$_com_ptr_t@V?$_com_IIID@U_Recordset@ADOCG@@$1?_GUID_00000556_0000_0010_8000_00aa006d2ea4@@3U__s_GUID@@B@@@@@?$_com_ptr_t@V?$_com_IIID@UIADORecordBinding@@$1?_GUID_00000544_0000_0010_8000_00aa006d2ea4@@3U__s_GUID@@B@@@@AAEJV?$_com_ptr_t@V?$_com_IIID@U_Recordset@ADOCG@@$1?_GUID_00000556_0000_0010_8000_00aa006d2ea4@@3U__s_GUID@@B@@@@@Z PROC ; _com_ptr_t<_com_IIID<IADORecordBinding,&_GUID_00000544_0000_0010_8000_00aa006d2ea4> >::_QueryInterface<_com_ptr_t<_com_IIID<ADOCG::_Recordset,&_GUID_00000556_0000_0010_8000_00aa006d2ea4> > >, COMDAT
; _this$ = ecx

; 837  :     {

  00000	55		 push	 ebp
  00001	8b ec		 mov	 ebp, esp
  00003	83 ec 28	 sub	 esp, 40			; 00000028H
  00006	89 4d f8	 mov	 DWORD PTR _this$[ebp], ecx

; 478  :         if (null != 0) {

  00009	33 c0		 xor	 eax, eax
  0000b	74 0a		 je	 SHORT $LN12@QueryInter

; 479  :             _com_issue_error(E_POINTER);

  0000d	68 03 40 00 80	 push	 -2147467261		; 80004003H
  00012	e8 00 00 00 00	 call	 ?_com_issue_error@@YGXJ@Z ; _com_issue_error
$LN12@QueryInter:
  00017	83 7d 08 00	 cmp	 DWORD PTR _p$[ebp], 0
  0001b	75 09		 jne	 SHORT $LN14@QueryInter
  0001d	c7 45 ec 01 00
	00 00		 mov	 DWORD PTR tv134[ebp], 1
  00024	eb 07		 jmp	 SHORT $LN15@QueryInter
$LN14@QueryInter:
  00026	c7 45 ec 00 00
	00 00		 mov	 DWORD PTR tv134[ebp], 0
$LN15@QueryInter:
  0002d	8a 4d ec	 mov	 cl, BYTE PTR tv134[ebp]
  00030	88 4d ff	 mov	 BYTE PTR $T6[ebp], cl

; 503  :         return !(operator==(null));

  00033	0f b6 55 ff	 movzx	 edx, BYTE PTR $T6[ebp]
  00037	85 d2		 test	 edx, edx
  00039	75 09		 jne	 SHORT $LN9@QueryInter
  0003b	c7 45 e8 01 00
	00 00		 mov	 DWORD PTR tv128[ebp], 1
  00042	eb 07		 jmp	 SHORT $LN10@QueryInter
$LN9@QueryInter:
  00044	c7 45 e8 00 00
	00 00		 mov	 DWORD PTR tv128[ebp], 0
$LN10@QueryInter:
  0004b	8a 45 e8	 mov	 al, BYTE PTR tv128[ebp]
  0004e	88 45 fe	 mov	 BYTE PTR $T5[ebp], al

; 838  :         HRESULT hr;

  00051	0f b6 4d fe	 movzx	 ecx, BYTE PTR $T5[ebp]
  00055	85 c9		 test	 ecx, ecx
  00057	74 75		 je	 SHORT $LN2@QueryInter

; 839  : 
; 840  :         // Can't QI NULL
; 841  :         //
; 842  :         if (p != NULL) {
; 843  :             // Query for this interface
; 844  :             //
; 845  :             Interface* pInterface = NULL;

  00059	c7 45 e4 00 00
	00 00		 mov	 DWORD PTR _pInterface$4[ebp], 0
  00060	8b 55 d8	 mov	 edx, DWORD PTR $T1[ebp]
  00063	89 55 f4	 mov	 DWORD PTR tv77[ebp], edx

; 428  :         if (m_pInterface == NULL) {

  00066	83 7d 08 00	 cmp	 DWORD PTR _p$[ebp], 0
  0006a	75 0a		 jne	 SHORT $LN19@QueryInter

; 429  :             _com_issue_error(E_POINTER);

  0006c	68 03 40 00 80	 push	 -2147467261		; 80004003H
  00071	e8 00 00 00 00	 call	 ?_com_issue_error@@YGXJ@Z ; _com_issue_error
$LN19@QueryInter:
  00076	8b 45 08	 mov	 eax, DWORD PTR _p$[ebp]
  00079	89 45 f4	 mov	 DWORD PTR tv77[ebp], eax

; 839  : 
; 840  :         // Can't QI NULL
; 841  :         //
; 842  :         if (p != NULL) {
; 843  :             // Query for this interface
; 844  :             //
; 845  :             Interface* pInterface = NULL;

  0007c	8d 4d e4	 lea	 ecx, DWORD PTR _pInterface$4[ebp]
  0007f	51		 push	 ecx
  00080	68 00 00 00 00	 push	 OFFSET __GUID_00000544_0000_0010_8000_00aa006d2ea4
  00085	8b 55 f4	 mov	 edx, DWORD PTR tv77[ebp]
  00088	52		 push	 edx
  00089	8b 45 f4	 mov	 eax, DWORD PTR tv77[ebp]
  0008c	8b 08		 mov	 ecx, DWORD PTR [eax]
  0008e	8b 11		 mov	 edx, DWORD PTR [ecx]
  00090	ff d2		 call	 edx
  00092	89 45 f0	 mov	 DWORD PTR _hr$[ebp], eax
  00095	83 7d f0 00	 cmp	 DWORD PTR _hr$[ebp], 0
  00099	7c 08		 jl	 SHORT $LN5@QueryInter
  0009b	8b 45 e4	 mov	 eax, DWORD PTR _pInterface$4[ebp]
  0009e	89 45 e0	 mov	 DWORD PTR $T3[ebp], eax
  000a1	eb 07		 jmp	 SHORT $LN6@QueryInter
$LN5@QueryInter:
  000a3	c7 45 e0 00 00
	00 00		 mov	 DWORD PTR $T3[ebp], 0
$LN6@QueryInter:

; 817  :         if (m_pInterface != NULL) {

  000aa	8b 4d f8	 mov	 ecx, DWORD PTR _this$[ebp]
  000ad	83 39 00	 cmp	 DWORD PTR [ecx], 0
  000b0	74 12		 je	 SHORT $LN27@QueryInter

; 818  :             m_pInterface->Release();

  000b2	8b 55 f8	 mov	 edx, DWORD PTR _this$[ebp]
  000b5	8b 02		 mov	 eax, DWORD PTR [edx]
  000b7	8b 4d f8	 mov	 ecx, DWORD PTR _this$[ebp]
  000ba	8b 11		 mov	 edx, DWORD PTR [ecx]
  000bc	8b 00		 mov	 eax, DWORD PTR [eax]
  000be	52		 push	 edx
  000bf	8b 48 08	 mov	 ecx, DWORD PTR [eax+8]
  000c2	ff d1		 call	 ecx
$LN27@QueryInter:

; 350  :         _Release();

  000c4	8b 55 f8	 mov	 edx, DWORD PTR _this$[ebp]
  000c7	8b 45 e0	 mov	 eax, DWORD PTR $T3[ebp]
  000ca	89 02		 mov	 DWORD PTR [edx], eax

; 839  : 
; 840  :         // Can't QI NULL
; 841  :         //
; 842  :         if (p != NULL) {
; 843  :             // Query for this interface
; 844  :             //
; 845  :             Interface* pInterface = NULL;

  000cc	eb 11		 jmp	 SHORT $LN3@QueryInter
$LN2@QueryInter:

; 846  :             hr = p->QueryInterface(GetIID(), reinterpret_cast<void**>(&pInterface));
; 847  : 
; 848  :             // Save the interface without AddRef()ing.
; 849  :             //
; 850  :             Attach(SUCCEEDED(hr)? pInterface: NULL);
; 851  :         }
; 852  :         else {
; 853  :             operator=(static_cast<Interface*>(NULL));

  000ce	6a 00		 push	 0
  000d0	8b 4d f8	 mov	 ecx, DWORD PTR _this$[ebp]
  000d3	e8 00 00 00 00	 call	 ??$?4UIADORecordBinding@@@?$_com_ptr_t@V?$_com_IIID@UIADORecordBinding@@$1?_GUID_00000544_0000_0010_8000_00aa006d2ea4@@3U__s_GUID@@B@@@@QAEAAV0@PAUIADORecordBinding@@@Z ; _com_ptr_t<_com_IIID<IADORecordBinding,&_GUID_00000544_0000_0010_8000_00aa006d2ea4> >::operator=<IADORecordBinding>
  000d8	c7 45 f0 02 40
	00 80		 mov	 DWORD PTR _hr$[ebp], -2147467262 ; 80004002H
$LN3@QueryInter:
  000df	8b 4d f0	 mov	 ecx, DWORD PTR _hr$[ebp]
  000e2	89 4d dc	 mov	 DWORD PTR $T2[ebp], ecx

; 817  :         if (m_pInterface != NULL) {

  000e5	83 7d 08 00	 cmp	 DWORD PTR _p$[ebp], 0
  000e9	74 0e		 je	 SHORT $LN37@QueryInter

; 818  :             m_pInterface->Release();

  000eb	8b 55 08	 mov	 edx, DWORD PTR _p$[ebp]
  000ee	8b 45 08	 mov	 eax, DWORD PTR _p$[ebp]
  000f1	8b 0a		 mov	 ecx, DWORD PTR [edx]
  000f3	50		 push	 eax
  000f4	8b 51 08	 mov	 edx, DWORD PTR [ecx+8]
  000f7	ff d2		 call	 edx
$LN37@QueryInter:

; 846  :             hr = p->QueryInterface(GetIID(), reinterpret_cast<void**>(&pInterface));
; 847  : 
; 848  :             // Save the interface without AddRef()ing.
; 849  :             //
; 850  :             Attach(SUCCEEDED(hr)? pInterface: NULL);
; 851  :         }
; 852  :         else {
; 853  :             operator=(static_cast<Interface*>(NULL));

  000f9	8b 45 dc	 mov	 eax, DWORD PTR $T2[ebp]
$LN17@QueryInter:
  000fc	8b e5		 mov	 esp, ebp
  000fe	5d		 pop	 ebp
  000ff	c2 04 00	 ret	 4
??$_QueryInterface@V?$_com_ptr_t@V?$_com_IIID@U_Recordset@ADOCG@@$1?_GUID_00000556_0000_0010_8000_00aa006d2ea4@@3U__s_GUID@@B@@@@@?$_com_ptr_t@V?$_com_IIID@UIADORecordBinding@@$1?_GUID_00000544_0000_0010_8000_00aa006d2ea4@@3U__s_GUID@@B@@@@AAEJV?$_com_ptr_t@V?$_com_IIID@U_Recordset@ADOCG@@$1?_GUID_00000556_0000_0010_8000_00aa006d2ea4@@3U__s_GUID@@B@@@@@Z ENDP ; _com_ptr_t<_com_IIID<IADORecordBinding,&_GUID_00000544_0000_0010_8000_00aa006d2ea4> >::_QueryInterface<_com_ptr_t<_com_IIID<ADOCG::_Recordset,&_GUID_00000556_0000_0010_8000_00aa006d2ea4> > >
_TEXT	ENDS
; Function compile flags: /Odtp
; File c:\program files (x86)\microsoft visual studio\2017\community\vc\tools\msvc\14.16.27023\include\xlocale
;	COMDAT ??$_Maklocstr@D@std@@YAPADPBDPADABU_Cvtvec@@@Z
_TEXT	SEGMENT
tv66 = -28						; size = 4
tv86 = -24						; size = 4
__Ptrdest$ = -20					; size = 4
__Ptrnext$1 = -16					; size = 4
__Count$ = -12						; size = 4
tv83 = -8						; size = 4
tv89 = -1						; size = 1
__Ptr$ = 8						; size = 4
___formal$ = 12						; size = 4
___formal$ = 16						; size = 4
??$_Maklocstr@D@std@@YAPADPBDPADABU_Cvtvec@@@Z PROC	; std::_Maklocstr<char>, COMDAT

; 664  : 	{	// convert C string to _Elem sequence using _Cvtvec

  00000	55		 push	 ebp
  00001	8b ec		 mov	 ebp, esp
  00003	83 ec 1c	 sub	 esp, 28			; 0000001cH

; 665  : 	size_t _Count = _CSTD strlen(_Ptr) + 1;

  00006	8b 45 08	 mov	 eax, DWORD PTR __Ptr$[ebp]
  00009	89 45 f8	 mov	 DWORD PTR tv83[ebp], eax
  0000c	8b 4d f8	 mov	 ecx, DWORD PTR tv83[ebp]
  0000f	83 c1 01	 add	 ecx, 1
  00012	89 4d e8	 mov	 DWORD PTR tv86[ebp], ecx
$LL7@Maklocstr:
  00015	8b 55 f8	 mov	 edx, DWORD PTR tv83[ebp]
  00018	8a 02		 mov	 al, BYTE PTR [edx]
  0001a	88 45 ff	 mov	 BYTE PTR tv89[ebp], al
  0001d	83 45 f8 01	 add	 DWORD PTR tv83[ebp], 1
  00021	80 7d ff 00	 cmp	 BYTE PTR tv89[ebp], 0
  00025	75 ee		 jne	 SHORT $LL7@Maklocstr
  00027	8b 4d f8	 mov	 ecx, DWORD PTR tv83[ebp]
  0002a	2b 4d e8	 sub	 ecx, DWORD PTR tv86[ebp]
  0002d	89 4d e4	 mov	 DWORD PTR tv66[ebp], ecx
  00030	8b 55 e4	 mov	 edx, DWORD PTR tv66[ebp]
  00033	83 c2 01	 add	 edx, 1
  00036	89 55 f4	 mov	 DWORD PTR __Count$[ebp], edx

; 666  : 
; 667  : 	_Elem *_Ptrdest = (_Elem *)_calloc_dbg(_Count, sizeof (_Elem),

  00039	68 9c 02 00 00	 push	 668			; 0000029cH
  0003e	68 00 00 00 00	 push	 OFFSET ??_C@_0GI@LKBGDILM@c?3?2program?5files?5?$CIx86?$CJ?2microsof@
  00043	6a 02		 push	 2
  00045	6a 01		 push	 1
  00047	8b 45 f4	 mov	 eax, DWORD PTR __Count$[ebp]
  0004a	50		 push	 eax
  0004b	ff 15 00 00 00
	00		 call	 DWORD PTR __imp___calloc_dbg
  00051	83 c4 14	 add	 esp, 20			; 00000014H
  00054	89 45 ec	 mov	 DWORD PTR __Ptrdest$[ebp], eax

; 668  : 		_CRT_BLOCK, __FILE__, __LINE__);
; 669  : 
; 670  : 	if (!_Ptrdest)

  00057	83 7d ec 00	 cmp	 DWORD PTR __Ptrdest$[ebp], 0
  0005b	75 05		 jne	 SHORT $LN5@Maklocstr

; 671  : 		_Xbad_alloc();

  0005d	e8 00 00 00 00	 call	 ?_Xbad_alloc@std@@YAXXZ	; std::_Xbad_alloc
$LN5@Maklocstr:

; 672  : 
; 673  : 	for (_Elem *_Ptrnext = _Ptrdest; 0 < _Count; --_Count, ++_Ptrnext, ++_Ptr)

  00062	8b 4d ec	 mov	 ecx, DWORD PTR __Ptrdest$[ebp]
  00065	89 4d f0	 mov	 DWORD PTR __Ptrnext$1[ebp], ecx
  00068	eb 1b		 jmp	 SHORT $LN4@Maklocstr
$LN2@Maklocstr:
  0006a	8b 55 f4	 mov	 edx, DWORD PTR __Count$[ebp]
  0006d	83 ea 01	 sub	 edx, 1
  00070	89 55 f4	 mov	 DWORD PTR __Count$[ebp], edx
  00073	8b 45 f0	 mov	 eax, DWORD PTR __Ptrnext$1[ebp]
  00076	83 c0 01	 add	 eax, 1
  00079	89 45 f0	 mov	 DWORD PTR __Ptrnext$1[ebp], eax
  0007c	8b 4d 08	 mov	 ecx, DWORD PTR __Ptr$[ebp]
  0007f	83 c1 01	 add	 ecx, 1
  00082	89 4d 08	 mov	 DWORD PTR __Ptr$[ebp], ecx
$LN4@Maklocstr:
  00085	83 7d f4 00	 cmp	 DWORD PTR __Count$[ebp], 0
  00089	76 0c		 jbe	 SHORT $LN3@Maklocstr

; 674  : 		*_Ptrnext = (_Elem)(unsigned char)*_Ptr;

  0008b	8b 55 f0	 mov	 edx, DWORD PTR __Ptrnext$1[ebp]
  0008e	8b 45 08	 mov	 eax, DWORD PTR __Ptr$[ebp]
  00091	8a 08		 mov	 cl, BYTE PTR [eax]
  00093	88 0a		 mov	 BYTE PTR [edx], cl
  00095	eb d3		 jmp	 SHORT $LN2@Maklocstr
$LN3@Maklocstr:

; 675  : 
; 676  : 	return (_Ptrdest);

  00097	8b 45 ec	 mov	 eax, DWORD PTR __Ptrdest$[ebp]
$LN6@Maklocstr:

; 677  : 	}

  0009a	8b e5		 mov	 esp, ebp
  0009c	5d		 pop	 ebp
  0009d	c3		 ret	 0
??$_Maklocstr@D@std@@YAPADPBDPADABU_Cvtvec@@@Z ENDP	; std::_Maklocstr<char>
_TEXT	ENDS
; Function compile flags: /Odtp
; File g:\网狐\happygamewh\服务端\系统模块\服务器组件\内核引擎\databaseengine.cpp
;	COMDAT _CreateDataBaseEngine
_TEXT	SEGMENT
tv129 = -68						; size = 4
$T2 = -64						; size = 4
$T3 = -60						; size = 4
tv150 = -56						; size = 4
$T4 = -52						; size = 4
$T5 = -48						; size = 4
tv151 = -44						; size = 4
tv153 = -40						; size = 4
_pObject$6 = -36					; size = 4
tv75 = -32						; size = 4
$T7 = -28						; size = 4
$T8 = -24						; size = 4
_pDataBaseEngine$ = -20					; size = 4
__$EHRec$ = -16						; size = 16
_Guid$ = 8						; size = 4
_dwInterfaceVer$ = 12					; size = 4
_CreateDataBaseEngine PROC				; COMDAT

; 930  : DECLARE_CREATE_MODULE(DataBaseEngine);

  00000	55		 push	 ebp
  00001	8b ec		 mov	 ebp, esp
  00003	6a ff		 push	 -1
  00005	68 00 00 00 00	 push	 __ehhandler$_CreateDataBaseEngine
  0000a	64 a1 00 00 00
	00		 mov	 eax, DWORD PTR fs:0
  00010	50		 push	 eax
  00011	51		 push	 ecx
  00012	83 ec 34	 sub	 esp, 52			; 00000034H
  00015	53		 push	 ebx
  00016	56		 push	 esi
  00017	57		 push	 edi
  00018	a1 00 00 00 00	 mov	 eax, DWORD PTR ___security_cookie
  0001d	33 c5		 xor	 eax, ebp
  0001f	50		 push	 eax
  00020	8d 45 f4	 lea	 eax, DWORD PTR __$EHRec$[ebp+4]
  00023	64 a3 00 00 00
	00		 mov	 DWORD PTR fs:0, eax
  00029	89 65 f0	 mov	 DWORD PTR __$EHRec$[ebp], esp
  0002c	c7 45 ec 00 00
	00 00		 mov	 DWORD PTR _pDataBaseEngine$[ebp], 0
  00033	c7 45 fc 00 00
	00 00		 mov	 DWORD PTR __$EHRec$[ebp+12], 0
  0003a	68 9c 80 00 00	 push	 32924			; 0000809cH
  0003f	e8 00 00 00 00	 call	 ??2@YAPAXI@Z		; operator new
  00044	83 c4 04	 add	 esp, 4
  00047	89 45 d8	 mov	 DWORD PTR tv153[ebp], eax
  0004a	8b 45 d8	 mov	 eax, DWORD PTR tv153[ebp]
  0004d	89 45 e4	 mov	 DWORD PTR $T7[ebp], eax
  00050	c6 45 fc 01	 mov	 BYTE PTR __$EHRec$[ebp+12], 1
  00054	83 7d e4 00	 cmp	 DWORD PTR $T7[ebp], 0
  00058	74 13		 je	 SHORT $LN7@CreateData
  0005a	8b 4d e4	 mov	 ecx, DWORD PTR $T7[ebp]
  0005d	e8 00 00 00 00	 call	 ??0CDataBaseEngine@@QAE@XZ ; CDataBaseEngine::CDataBaseEngine
  00062	89 45 d4	 mov	 DWORD PTR tv151[ebp], eax
  00065	8b 4d d4	 mov	 ecx, DWORD PTR tv151[ebp]
  00068	89 4d e0	 mov	 DWORD PTR tv75[ebp], ecx
  0006b	eb 07		 jmp	 SHORT $LN8@CreateData
$LN7@CreateData:
  0006d	c7 45 e0 00 00
	00 00		 mov	 DWORD PTR tv75[ebp], 0
$LN8@CreateData:
  00074	8b 55 e0	 mov	 edx, DWORD PTR tv75[ebp]
  00077	89 55 d0	 mov	 DWORD PTR $T5[ebp], edx
  0007a	c6 45 fc 00	 mov	 BYTE PTR __$EHRec$[ebp+12], 0
  0007e	8b 45 d0	 mov	 eax, DWORD PTR $T5[ebp]
  00081	89 45 ec	 mov	 DWORD PTR _pDataBaseEngine$[ebp], eax
  00084	83 7d ec 00	 cmp	 DWORD PTR _pDataBaseEngine$[ebp], 0
  00088	75 15		 jne	 SHORT $LN3@CreateData
  0008a	c7 45 cc 00 00
	00 00		 mov	 DWORD PTR $T4[ebp], OFFSET ??_C@_08HBOFLKLL@?$LE?$LE?$LN?$KI?J?$KH?$LA?$NM@
  00091	68 00 00 00 00	 push	 OFFSET __TI2PAD
  00096	8d 4d cc	 lea	 ecx, DWORD PTR $T4[ebp]
  00099	51		 push	 ecx
  0009a	e8 00 00 00 00	 call	 __CxxThrowException@8
$LN3@CreateData:
  0009f	8b 55 0c	 mov	 edx, DWORD PTR _dwInterfaceVer$[ebp]
  000a2	52		 push	 edx
  000a3	8b 45 08	 mov	 eax, DWORD PTR _Guid$[ebp]
  000a6	50		 push	 eax
  000a7	8b 4d ec	 mov	 ecx, DWORD PTR _pDataBaseEngine$[ebp]
  000aa	8b 11		 mov	 edx, DWORD PTR [ecx]
  000ac	8b 4d ec	 mov	 ecx, DWORD PTR _pDataBaseEngine$[ebp]
  000af	8b 42 04	 mov	 eax, DWORD PTR [edx+4]
  000b2	ff d0		 call	 eax
  000b4	89 45 c8	 mov	 DWORD PTR tv150[ebp], eax
  000b7	8b 4d c8	 mov	 ecx, DWORD PTR tv150[ebp]
  000ba	89 4d dc	 mov	 DWORD PTR _pObject$6[ebp], ecx
  000bd	83 7d dc 00	 cmp	 DWORD PTR _pObject$6[ebp], 0
  000c1	75 15		 jne	 SHORT $LN4@CreateData
  000c3	c7 45 c4 00 00
	00 00		 mov	 DWORD PTR $T3[ebp], OFFSET ??_C@_0N@DLOPLLLM@?$LN?S?$LP?Z?$LC?i?Q?$KP?J?$KH?$LA?$NM@
  000ca	68 00 00 00 00	 push	 OFFSET __TI2PAD
  000cf	8d 55 c4	 lea	 edx, DWORD PTR $T3[ebp]
  000d2	52		 push	 edx
  000d3	e8 00 00 00 00	 call	 __CxxThrowException@8
$LN4@CreateData:
  000d8	8b 45 dc	 mov	 eax, DWORD PTR _pObject$6[ebp]
  000db	e9 83 00 00 00	 jmp	 $LN6@CreateData
__catch$_CreateDataBaseEngine$0:
  000e0	b8 00 00 00 00	 mov	 eax, $LN18@CreateData
  000e5	c3		 ret	 0
  000e6	c7 45 fc ff ff
	ff ff		 mov	 DWORD PTR __$EHRec$[ebp+12], -1
  000ed	eb 07		 jmp	 SHORT __tryend$_CreateDataBaseEngine$1
$LN18@CreateData:
  000ef	c7 45 fc ff ff
	ff ff		 mov	 DWORD PTR __$EHRec$[ebp+12], -1
__tryend$_CreateDataBaseEngine$1:
  000f6	c7 45 fc 03 00
	00 00		 mov	 DWORD PTR __$EHRec$[ebp+12], 3
  000fd	8b 45 ec	 mov	 eax, DWORD PTR _pDataBaseEngine$[ebp]
  00100	89 45 c0	 mov	 DWORD PTR $T2[ebp], eax
  00103	8b 4d c0	 mov	 ecx, DWORD PTR $T2[ebp]
  00106	89 4d e8	 mov	 DWORD PTR $T8[ebp], ecx
  00109	83 7d e8 00	 cmp	 DWORD PTR $T8[ebp], 0
  0010d	74 14		 je	 SHORT $LN9@CreateData
  0010f	6a 01		 push	 1
  00111	8b 55 e8	 mov	 edx, DWORD PTR $T8[ebp]
  00114	8b 02		 mov	 eax, DWORD PTR [edx]
  00116	8b 4d e8	 mov	 ecx, DWORD PTR $T8[ebp]
  00119	8b 50 28	 mov	 edx, DWORD PTR [eax+40]
  0011c	ff d2		 call	 edx
  0011e	89 45 bc	 mov	 DWORD PTR tv129[ebp], eax
  00121	eb 07		 jmp	 SHORT $LN10@CreateData
$LN9@CreateData:
  00123	c7 45 bc 00 00
	00 00		 mov	 DWORD PTR tv129[ebp], 0
$LN10@CreateData:
  0012a	eb 1e		 jmp	 SHORT $LN14@CreateData
__catch$_CreateDataBaseEngine$2:
  0012c	33 c0		 xor	 eax, eax
  0012e	75 14		 jne	 SHORT $LN11@CreateData
  00130	68 a2 03 00 00	 push	 930			; 000003a2H
  00135	68 00 00 00 00	 push	 OFFSET ??_C@_0EL@CJALAN@g?3?2?M?x?$LK?$PM?2happygamewh?2?$LH?$PO?N?q?$LG?K?2?O?$LF?M?$LD@
  0013a	e8 00 00 00 00	 call	 ?AfxAssertFailedLine@@YGHPBDH@Z ; AfxAssertFailedLine
  0013f	85 c0		 test	 eax, eax
  00141	74 01		 je	 SHORT $LN11@CreateData
  00143	cc		 int	 3
$LN11@CreateData:
  00144	b8 00 00 00 00	 mov	 eax, $LN20@CreateData
  00149	c3		 ret	 0
$LN14@CreateData:
  0014a	c7 45 fc ff ff
	ff ff		 mov	 DWORD PTR __$EHRec$[ebp+12], -1
  00151	eb 07		 jmp	 SHORT __tryend$_CreateDataBaseEngine$3
$LN20@CreateData:
  00153	c7 45 fc ff ff
	ff ff		 mov	 DWORD PTR __$EHRec$[ebp+12], -1
__tryend$_CreateDataBaseEngine$3:
  0015a	c7 45 ec 00 00
	00 00		 mov	 DWORD PTR _pDataBaseEngine$[ebp], 0
  00161	33 c0		 xor	 eax, eax
$LN6@CreateData:
  00163	8b 4d f4	 mov	 ecx, DWORD PTR __$EHRec$[ebp+4]
  00166	64 89 0d 00 00
	00 00		 mov	 DWORD PTR fs:0, ecx
  0016d	59		 pop	 ecx
  0016e	5f		 pop	 edi
  0016f	5e		 pop	 esi
  00170	5b		 pop	 ebx
  00171	8b e5		 mov	 esp, ebp
  00173	5d		 pop	 ebp
  00174	c3		 ret	 0
_TEXT	ENDS
;	COMDAT text$x
text$x	SEGMENT
__unwindfunclet$_CreateDataBaseEngine$4:
  00000	68 9c 80 00 00	 push	 32924			; 0000809cH
  00005	8b 45 e4	 mov	 eax, DWORD PTR $T7[ebp]
  00008	50		 push	 eax
  00009	e8 00 00 00 00	 call	 ??3@YAXPAXI@Z		; operator delete
  0000e	83 c4 08	 add	 esp, 8
  00011	c3		 ret	 0
__ehhandler$_CreateDataBaseEngine:
  00012	8b 54 24 08	 mov	 edx, DWORD PTR [esp+8]
  00016	8d 42 0c	 lea	 eax, DWORD PTR [edx+12]
  00019	8b 4a b8	 mov	 ecx, DWORD PTR [edx-72]
  0001c	33 c8		 xor	 ecx, eax
  0001e	e8 00 00 00 00	 call	 @__security_check_cookie@4
  00023	b8 00 00 00 00	 mov	 eax, OFFSET __ehfuncinfo$_CreateDataBaseEngine
  00028	e9 00 00 00 00	 jmp	 ___CxxFrameHandler3
text$x	ENDS
_CreateDataBaseEngine ENDP
; Function compile flags: /Odtp
; File g:\网狐\happygamewh\服务端\系统模块\服务器组件\内核引擎\databaseengine.cpp
;	COMDAT _CreateDataBase
_TEXT	SEGMENT
tv129 = -68						; size = 4
$T2 = -64						; size = 4
$T3 = -60						; size = 4
tv150 = -56						; size = 4
$T4 = -52						; size = 4
$T5 = -48						; size = 4
tv151 = -44						; size = 4
tv153 = -40						; size = 4
_pObject$6 = -36					; size = 4
tv75 = -32						; size = 4
$T7 = -28						; size = 4
$T8 = -24						; size = 4
_pDataBase$ = -20					; size = 4
__$EHRec$ = -16						; size = 16
_Guid$ = 8						; size = 4
_dwInterfaceVer$ = 12					; size = 4
_CreateDataBase PROC					; COMDAT

; 929  : DECLARE_CREATE_MODULE(DataBase);

  00000	55		 push	 ebp
  00001	8b ec		 mov	 ebp, esp
  00003	6a ff		 push	 -1
  00005	68 00 00 00 00	 push	 __ehhandler$_CreateDataBase
  0000a	64 a1 00 00 00
	00		 mov	 eax, DWORD PTR fs:0
  00010	50		 push	 eax
  00011	51		 push	 ecx
  00012	83 ec 34	 sub	 esp, 52			; 00000034H
  00015	53		 push	 ebx
  00016	56		 push	 esi
  00017	57		 push	 edi
  00018	a1 00 00 00 00	 mov	 eax, DWORD PTR ___security_cookie
  0001d	33 c5		 xor	 eax, ebp
  0001f	50		 push	 eax
  00020	8d 45 f4	 lea	 eax, DWORD PTR __$EHRec$[ebp+4]
  00023	64 a3 00 00 00
	00		 mov	 DWORD PTR fs:0, eax
  00029	89 65 f0	 mov	 DWORD PTR __$EHRec$[ebp], esp
  0002c	c7 45 ec 00 00
	00 00		 mov	 DWORD PTR _pDataBase$[ebp], 0
  00033	c7 45 fc 00 00
	00 00		 mov	 DWORD PTR __$EHRec$[ebp+12], 0
  0003a	6a 34		 push	 52			; 00000034H
  0003c	e8 00 00 00 00	 call	 ??2@YAPAXI@Z		; operator new
  00041	83 c4 04	 add	 esp, 4
  00044	89 45 d8	 mov	 DWORD PTR tv153[ebp], eax
  00047	8b 45 d8	 mov	 eax, DWORD PTR tv153[ebp]
  0004a	89 45 e4	 mov	 DWORD PTR $T7[ebp], eax
  0004d	c6 45 fc 01	 mov	 BYTE PTR __$EHRec$[ebp+12], 1
  00051	83 7d e4 00	 cmp	 DWORD PTR $T7[ebp], 0
  00055	74 13		 je	 SHORT $LN7@CreateData
  00057	8b 4d e4	 mov	 ecx, DWORD PTR $T7[ebp]
  0005a	e8 00 00 00 00	 call	 ??0CDataBase@@QAE@XZ	; CDataBase::CDataBase
  0005f	89 45 d4	 mov	 DWORD PTR tv151[ebp], eax
  00062	8b 4d d4	 mov	 ecx, DWORD PTR tv151[ebp]
  00065	89 4d e0	 mov	 DWORD PTR tv75[ebp], ecx
  00068	eb 07		 jmp	 SHORT $LN8@CreateData
$LN7@CreateData:
  0006a	c7 45 e0 00 00
	00 00		 mov	 DWORD PTR tv75[ebp], 0
$LN8@CreateData:
  00071	8b 55 e0	 mov	 edx, DWORD PTR tv75[ebp]
  00074	89 55 d0	 mov	 DWORD PTR $T5[ebp], edx
  00077	c6 45 fc 00	 mov	 BYTE PTR __$EHRec$[ebp+12], 0
  0007b	8b 45 d0	 mov	 eax, DWORD PTR $T5[ebp]
  0007e	89 45 ec	 mov	 DWORD PTR _pDataBase$[ebp], eax
  00081	83 7d ec 00	 cmp	 DWORD PTR _pDataBase$[ebp], 0
  00085	75 15		 jne	 SHORT $LN3@CreateData
  00087	c7 45 cc 00 00
	00 00		 mov	 DWORD PTR $T4[ebp], OFFSET ??_C@_08HBOFLKLL@?$LE?$LE?$LN?$KI?J?$KH?$LA?$NM@
  0008e	68 00 00 00 00	 push	 OFFSET __TI2PAD
  00093	8d 4d cc	 lea	 ecx, DWORD PTR $T4[ebp]
  00096	51		 push	 ecx
  00097	e8 00 00 00 00	 call	 __CxxThrowException@8
$LN3@CreateData:
  0009c	8b 55 0c	 mov	 edx, DWORD PTR _dwInterfaceVer$[ebp]
  0009f	52		 push	 edx
  000a0	8b 45 08	 mov	 eax, DWORD PTR _Guid$[ebp]
  000a3	50		 push	 eax
  000a4	8b 4d ec	 mov	 ecx, DWORD PTR _pDataBase$[ebp]
  000a7	8b 11		 mov	 edx, DWORD PTR [ecx]
  000a9	8b 4d ec	 mov	 ecx, DWORD PTR _pDataBase$[ebp]
  000ac	8b 42 04	 mov	 eax, DWORD PTR [edx+4]
  000af	ff d0		 call	 eax
  000b1	89 45 c8	 mov	 DWORD PTR tv150[ebp], eax
  000b4	8b 4d c8	 mov	 ecx, DWORD PTR tv150[ebp]
  000b7	89 4d dc	 mov	 DWORD PTR _pObject$6[ebp], ecx
  000ba	83 7d dc 00	 cmp	 DWORD PTR _pObject$6[ebp], 0
  000be	75 15		 jne	 SHORT $LN4@CreateData
  000c0	c7 45 c4 00 00
	00 00		 mov	 DWORD PTR $T3[ebp], OFFSET ??_C@_0N@DLOPLLLM@?$LN?S?$LP?Z?$LC?i?Q?$KP?J?$KH?$LA?$NM@
  000c7	68 00 00 00 00	 push	 OFFSET __TI2PAD
  000cc	8d 55 c4	 lea	 edx, DWORD PTR $T3[ebp]
  000cf	52		 push	 edx
  000d0	e8 00 00 00 00	 call	 __CxxThrowException@8
$LN4@CreateData:
  000d5	8b 45 dc	 mov	 eax, DWORD PTR _pObject$6[ebp]
  000d8	e9 83 00 00 00	 jmp	 $LN6@CreateData
__catch$_CreateDataBase$0:
  000dd	b8 00 00 00 00	 mov	 eax, $LN18@CreateData
  000e2	c3		 ret	 0
  000e3	c7 45 fc ff ff
	ff ff		 mov	 DWORD PTR __$EHRec$[ebp+12], -1
  000ea	eb 07		 jmp	 SHORT __tryend$_CreateDataBase$1
$LN18@CreateData:
  000ec	c7 45 fc ff ff
	ff ff		 mov	 DWORD PTR __$EHRec$[ebp+12], -1
__tryend$_CreateDataBase$1:
  000f3	c7 45 fc 03 00
	00 00		 mov	 DWORD PTR __$EHRec$[ebp+12], 3
  000fa	8b 45 ec	 mov	 eax, DWORD PTR _pDataBase$[ebp]
  000fd	89 45 c0	 mov	 DWORD PTR $T2[ebp], eax
  00100	8b 4d c0	 mov	 ecx, DWORD PTR $T2[ebp]
  00103	89 4d e8	 mov	 DWORD PTR $T8[ebp], ecx
  00106	83 7d e8 00	 cmp	 DWORD PTR $T8[ebp], 0
  0010a	74 14		 je	 SHORT $LN9@CreateData
  0010c	6a 01		 push	 1
  0010e	8b 55 e8	 mov	 edx, DWORD PTR $T8[ebp]
  00111	8b 02		 mov	 eax, DWORD PTR [edx]
  00113	8b 4d e8	 mov	 ecx, DWORD PTR $T8[ebp]
  00116	8b 50 50	 mov	 edx, DWORD PTR [eax+80]
  00119	ff d2		 call	 edx
  0011b	89 45 bc	 mov	 DWORD PTR tv129[ebp], eax
  0011e	eb 07		 jmp	 SHORT $LN10@CreateData
$LN9@CreateData:
  00120	c7 45 bc 00 00
	00 00		 mov	 DWORD PTR tv129[ebp], 0
$LN10@CreateData:
  00127	eb 1e		 jmp	 SHORT $LN14@CreateData
__catch$_CreateDataBase$2:
  00129	33 c0		 xor	 eax, eax
  0012b	75 14		 jne	 SHORT $LN11@CreateData
  0012d	68 a1 03 00 00	 push	 929			; 000003a1H
  00132	68 00 00 00 00	 push	 OFFSET ??_C@_0EL@CJALAN@g?3?2?M?x?$LK?$PM?2happygamewh?2?$LH?$PO?N?q?$LG?K?2?O?$LF?M?$LD@
  00137	e8 00 00 00 00	 call	 ?AfxAssertFailedLine@@YGHPBDH@Z ; AfxAssertFailedLine
  0013c	85 c0		 test	 eax, eax
  0013e	74 01		 je	 SHORT $LN11@CreateData
  00140	cc		 int	 3
$LN11@CreateData:
  00141	b8 00 00 00 00	 mov	 eax, $LN20@CreateData
  00146	c3		 ret	 0
$LN14@CreateData:
  00147	c7 45 fc ff ff
	ff ff		 mov	 DWORD PTR __$EHRec$[ebp+12], -1
  0014e	eb 07		 jmp	 SHORT __tryend$_CreateDataBase$3
$LN20@CreateData:
  00150	c7 45 fc ff ff
	ff ff		 mov	 DWORD PTR __$EHRec$[ebp+12], -1
__tryend$_CreateDataBase$3:
  00157	c7 45 ec 00 00
	00 00		 mov	 DWORD PTR _pDataBase$[ebp], 0
  0015e	33 c0		 xor	 eax, eax
$LN6@CreateData:
  00160	8b 4d f4	 mov	 ecx, DWORD PTR __$EHRec$[ebp+4]
  00163	64 89 0d 00 00
	00 00		 mov	 DWORD PTR fs:0, ecx
  0016a	59		 pop	 ecx
  0016b	5f		 pop	 edi
  0016c	5e		 pop	 esi
  0016d	5b		 pop	 ebx
  0016e	8b e5		 mov	 esp, ebp
  00170	5d		 pop	 ebp
  00171	c3		 ret	 0
_TEXT	ENDS
;	COMDAT text$x
text$x	SEGMENT
__unwindfunclet$_CreateDataBase$4:
  00000	6a 34		 push	 52			; 00000034H
  00002	8b 45 e4	 mov	 eax, DWORD PTR $T7[ebp]
  00005	50		 push	 eax
  00006	e8 00 00 00 00	 call	 ??3@YAXPAXI@Z		; operator delete
  0000b	83 c4 08	 add	 esp, 8
  0000e	c3		 ret	 0
__ehhandler$_CreateDataBase:
  0000f	8b 54 24 08	 mov	 edx, DWORD PTR [esp+8]
  00013	8d 42 0c	 lea	 eax, DWORD PTR [edx+12]
  00016	8b 4a b8	 mov	 ecx, DWORD PTR [edx-72]
  00019	33 c8		 xor	 ecx, eax
  0001b	e8 00 00 00 00	 call	 @__security_check_cookie@4
  00020	b8 00 00 00 00	 mov	 eax, OFFSET __ehfuncinfo$_CreateDataBase
  00025	e9 00 00 00 00	 jmp	 ___CxxFrameHandler3
text$x	ENDS
_CreateDataBase ENDP
; Function compile flags: /Odtp
; File c:\program files (x86)\microsoft visual studio\2017\community\vc\tools\msvc\14.16.27023\include\comip.h
;	COMDAT ??$?0V?$_com_IIID@U_Recordset@ADOCG@@$1?_GUID_00000556_0000_0010_8000_00aa006d2ea4@@3U__s_GUID@@B@@@?$_com_ptr_t@V?$_com_IIID@UIADORecordBinding@@$1?_GUID_00000544_0000_0010_8000_00aa006d2ea4@@3U__s_GUID@@B@@@@QAE@ABV?$_com_ptr_t@V?$_com_IIID@U_Recordset@ADOCG@@$1?_GUID_00000556_0000_0010_8000_00aa006d2ea4@@3U__s_GUID@@B@@@@@Z
_TEXT	SEGMENT
$T1 = -20						; size = 4
tv86 = -16						; size = 4
_this$ = -12						; size = 4
_hr$ = -8						; size = 4
_this$ = -4						; size = 4
_p$ = 8							; size = 4
??$?0V?$_com_IIID@U_Recordset@ADOCG@@$1?_GUID_00000556_0000_0010_8000_00aa006d2ea4@@3U__s_GUID@@B@@@?$_com_ptr_t@V?$_com_IIID@UIADORecordBinding@@$1?_GUID_00000544_0000_0010_8000_00aa006d2ea4@@3U__s_GUID@@B@@@@QAE@ABV?$_com_ptr_t@V?$_com_IIID@U_Recordset@ADOCG@@$1?_GUID_00000556_0000_0010_8000_00aa006d2ea4@@3U__s_GUID@@B@@@@@Z PROC ; _com_ptr_t<_com_IIID<IADORecordBinding,&_GUID_00000544_0000_0010_8000_00aa006d2ea4> >::_com_ptr_t<_com_IIID<IADORecordBinding,&_GUID_00000544_0000_0010_8000_00aa006d2ea4> ><_com_IIID<ADOCG::_Recordset,&_GUID_00000556_0000_0010_8000_00aa006d2ea4> >, COMDAT
; _this$ = ecx

; 82   :     {

  00000	55		 push	 ebp
  00001	8b ec		 mov	 ebp, esp
  00003	83 ec 14	 sub	 esp, 20			; 00000014H
  00006	89 4d f4	 mov	 DWORD PTR _this$[ebp], ecx

; 81   :         : m_pInterface(NULL)

  00009	8b 45 f4	 mov	 eax, DWORD PTR _this$[ebp]
  0000c	c7 00 00 00 00
	00		 mov	 DWORD PTR [eax], 0

; 83   :         HRESULT hr = _QueryInterface(p);

  00012	51		 push	 ecx
  00013	8b cc		 mov	 ecx, esp
  00015	89 65 ec	 mov	 DWORD PTR $T1[ebp], esp
  00018	89 4d fc	 mov	 DWORD PTR _this$[ebp], ecx

; 159  :         : m_pInterface(cp.m_pInterface)

  0001b	8b 55 fc	 mov	 edx, DWORD PTR _this$[ebp]
  0001e	8b 45 08	 mov	 eax, DWORD PTR _p$[ebp]
  00021	8b 08		 mov	 ecx, DWORD PTR [eax]
  00023	89 0a		 mov	 DWORD PTR [edx], ecx

; 826  :         if (m_pInterface != NULL) {

  00025	8b 55 fc	 mov	 edx, DWORD PTR _this$[ebp]
  00028	83 3a 00	 cmp	 DWORD PTR [edx], 0
  0002b	74 12		 je	 SHORT $LN5@com_ptr_t

; 827  :             m_pInterface->AddRef();

  0002d	8b 45 fc	 mov	 eax, DWORD PTR _this$[ebp]
  00030	8b 08		 mov	 ecx, DWORD PTR [eax]
  00032	8b 55 fc	 mov	 edx, DWORD PTR _this$[ebp]
  00035	8b 02		 mov	 eax, DWORD PTR [edx]
  00037	8b 09		 mov	 ecx, DWORD PTR [ecx]
  00039	50		 push	 eax
  0003a	8b 51 04	 mov	 edx, DWORD PTR [ecx+4]
  0003d	ff d2		 call	 edx
$LN5@com_ptr_t:

; 83   :         HRESULT hr = _QueryInterface(p);

  0003f	8b 4d f4	 mov	 ecx, DWORD PTR _this$[ebp]
  00042	e8 00 00 00 00	 call	 ??$_QueryInterface@V?$_com_ptr_t@V?$_com_IIID@U_Recordset@ADOCG@@$1?_GUID_00000556_0000_0010_8000_00aa006d2ea4@@3U__s_GUID@@B@@@@@?$_com_ptr_t@V?$_com_IIID@UIADORecordBinding@@$1?_GUID_00000544_0000_0010_8000_00aa006d2ea4@@3U__s_GUID@@B@@@@AAEJV?$_com_ptr_t@V?$_com_IIID@U_Recordset@ADOCG@@$1?_GUID_00000556_0000_0010_8000_00aa006d2ea4@@3U__s_GUID@@B@@@@@Z ; _com_ptr_t<_com_IIID<IADORecordBinding,&_GUID_00000544_0000_0010_8000_00aa006d2ea4> >::_QueryInterface<_com_ptr_t<_com_IIID<ADOCG::_Recordset,&_GUID_00000556_0000_0010_8000_00aa006d2ea4> > >
  00047	89 45 f0	 mov	 DWORD PTR tv86[ebp], eax
  0004a	8b 45 f0	 mov	 eax, DWORD PTR tv86[ebp]
  0004d	89 45 f8	 mov	 DWORD PTR _hr$[ebp], eax
  00050	83 7d f8 00	 cmp	 DWORD PTR _hr$[ebp], 0
  00054	7d 12		 jge	 SHORT $LN1@com_ptr_t
  00056	81 7d f8 02 40
	00 80		 cmp	 DWORD PTR _hr$[ebp], -2147467262 ; 80004002H
  0005d	74 09		 je	 SHORT $LN1@com_ptr_t

; 84   : 
; 85   :         if (FAILED(hr) && (hr != E_NOINTERFACE)) {
; 86   :             _com_issue_error(hr);

  0005f	8b 4d f8	 mov	 ecx, DWORD PTR _hr$[ebp]
  00062	51		 push	 ecx
  00063	e8 00 00 00 00	 call	 ?_com_issue_error@@YGXJ@Z ; _com_issue_error
$LN1@com_ptr_t:
  00068	8b 45 f4	 mov	 eax, DWORD PTR _this$[ebp]
$LN3@com_ptr_t:
  0006b	8b e5		 mov	 esp, ebp
  0006d	5d		 pop	 ebp
  0006e	c2 04 00	 ret	 4
??$?0V?$_com_IIID@U_Recordset@ADOCG@@$1?_GUID_00000556_0000_0010_8000_00aa006d2ea4@@3U__s_GUID@@B@@@?$_com_ptr_t@V?$_com_IIID@UIADORecordBinding@@$1?_GUID_00000544_0000_0010_8000_00aa006d2ea4@@3U__s_GUID@@B@@@@QAE@ABV?$_com_ptr_t@V?$_com_IIID@U_Recordset@ADOCG@@$1?_GUID_00000556_0000_0010_8000_00aa006d2ea4@@3U__s_GUID@@B@@@@@Z ENDP ; _com_ptr_t<_com_IIID<IADORecordBinding,&_GUID_00000544_0000_0010_8000_00aa006d2ea4> >::_com_ptr_t<_com_IIID<IADORecordBinding,&_GUID_00000544_0000_0010_8000_00aa006d2ea4> ><_com_IIID<ADOCG::_Recordset,&_GUID_00000556_0000_0010_8000_00aa006d2ea4> >
_TEXT	ENDS
; Function compile flags: /Odtp
; File c:\program files (x86)\microsoft visual studio\2017\community\vc\tools\msvc\14.16.27023\include\comip.h
;	COMDAT ?_AddRef@?$_com_ptr_t@V?$_com_IIID@UIADORecordBinding@@$1?_GUID_00000544_0000_0010_8000_00aa006d2ea4@@3U__s_GUID@@B@@@@AAEXXZ
_TEXT	SEGMENT
_this$ = -4						; size = 4
?_AddRef@?$_com_ptr_t@V?$_com_IIID@UIADORecordBinding@@$1?_GUID_00000544_0000_0010_8000_00aa006d2ea4@@3U__s_GUID@@B@@@@AAEXXZ PROC ; _com_ptr_t<_com_IIID<IADORecordBinding,&_GUID_00000544_0000_0010_8000_00aa006d2ea4> >::_AddRef, COMDAT
; _this$ = ecx

; 825  :     {

  00000	55		 push	 ebp
  00001	8b ec		 mov	 ebp, esp
  00003	51		 push	 ecx
  00004	89 4d fc	 mov	 DWORD PTR _this$[ebp], ecx

; 826  :         if (m_pInterface != NULL) {

  00007	8b 45 fc	 mov	 eax, DWORD PTR _this$[ebp]
  0000a	83 38 00	 cmp	 DWORD PTR [eax], 0
  0000d	74 12		 je	 SHORT $LN1@AddRef

; 827  :             m_pInterface->AddRef();

  0000f	8b 4d fc	 mov	 ecx, DWORD PTR _this$[ebp]
  00012	8b 11		 mov	 edx, DWORD PTR [ecx]
  00014	8b 45 fc	 mov	 eax, DWORD PTR _this$[ebp]
  00017	8b 08		 mov	 ecx, DWORD PTR [eax]
  00019	8b 12		 mov	 edx, DWORD PTR [edx]
  0001b	51		 push	 ecx
  0001c	8b 42 04	 mov	 eax, DWORD PTR [edx+4]
  0001f	ff d0		 call	 eax
$LN1@AddRef:
  00021	8b e5		 mov	 esp, ebp
  00023	5d		 pop	 ebp
  00024	c3		 ret	 0
?_AddRef@?$_com_ptr_t@V?$_com_IIID@UIADORecordBinding@@$1?_GUID_00000544_0000_0010_8000_00aa006d2ea4@@3U__s_GUID@@B@@@@AAEXXZ ENDP ; _com_ptr_t<_com_IIID<IADORecordBinding,&_GUID_00000544_0000_0010_8000_00aa006d2ea4> >::_AddRef
_TEXT	ENDS
; Function compile flags: /Odtp
; File c:\program files (x86)\microsoft visual studio\2017\community\vc\tools\msvc\14.16.27023\include\comip.h
;	COMDAT ?_Release@?$_com_ptr_t@V?$_com_IIID@UIADORecordBinding@@$1?_GUID_00000544_0000_0010_8000_00aa006d2ea4@@3U__s_GUID@@B@@@@AAEXXZ
_TEXT	SEGMENT
_this$ = -4						; size = 4
?_Release@?$_com_ptr_t@V?$_com_IIID@UIADORecordBinding@@$1?_GUID_00000544_0000_0010_8000_00aa006d2ea4@@3U__s_GUID@@B@@@@AAEXXZ PROC ; _com_ptr_t<_com_IIID<IADORecordBinding,&_GUID_00000544_0000_0010_8000_00aa006d2ea4> >::_Release, COMDAT
; _this$ = ecx

; 816  :     {

  00000	55		 push	 ebp
  00001	8b ec		 mov	 ebp, esp
  00003	51		 push	 ecx
  00004	89 4d fc	 mov	 DWORD PTR _this$[ebp], ecx

; 817  :         if (m_pInterface != NULL) {

  00007	8b 45 fc	 mov	 eax, DWORD PTR _this$[ebp]
  0000a	83 38 00	 cmp	 DWORD PTR [eax], 0
  0000d	74 12		 je	 SHORT $LN1@Release

; 818  :             m_pInterface->Release();

  0000f	8b 4d fc	 mov	 ecx, DWORD PTR _this$[ebp]
  00012	8b 11		 mov	 edx, DWORD PTR [ecx]
  00014	8b 45 fc	 mov	 eax, DWORD PTR _this$[ebp]
  00017	8b 08		 mov	 ecx, DWORD PTR [eax]
  00019	8b 12		 mov	 edx, DWORD PTR [edx]
  0001b	51		 push	 ecx
  0001c	8b 42 08	 mov	 eax, DWORD PTR [edx+8]
  0001f	ff d0		 call	 eax
$LN1@Release:
  00021	8b e5		 mov	 esp, ebp
  00023	5d		 pop	 ebp
  00024	c3		 ret	 0
?_Release@?$_com_ptr_t@V?$_com_IIID@UIADORecordBinding@@$1?_GUID_00000544_0000_0010_8000_00aa006d2ea4@@3U__s_GUID@@B@@@@AAEXXZ ENDP ; _com_ptr_t<_com_IIID<IADORecordBinding,&_GUID_00000544_0000_0010_8000_00aa006d2ea4> >::_Release
_TEXT	ENDS
; Function compile flags: /Odtp
; File c:\program files (x86)\microsoft visual studio\2017\community\vc\tools\msvc\14.16.27023\include\comip.h
;	COMDAT ??C?$_com_ptr_t@V?$_com_IIID@UIADORecordBinding@@$1?_GUID_00000544_0000_0010_8000_00aa006d2ea4@@3U__s_GUID@@B@@@@QBEPAUIADORecordBinding@@XZ
_TEXT	SEGMENT
_this$ = -4						; size = 4
??C?$_com_ptr_t@V?$_com_IIID@UIADORecordBinding@@$1?_GUID_00000544_0000_0010_8000_00aa006d2ea4@@3U__s_GUID@@B@@@@QBEPAUIADORecordBinding@@XZ PROC ; _com_ptr_t<_com_IIID<IADORecordBinding,&_GUID_00000544_0000_0010_8000_00aa006d2ea4> >::operator->, COMDAT
; _this$ = ecx

; 427  :     {

  00000	55		 push	 ebp
  00001	8b ec		 mov	 ebp, esp
  00003	51		 push	 ecx
  00004	89 4d fc	 mov	 DWORD PTR _this$[ebp], ecx

; 428  :         if (m_pInterface == NULL) {

  00007	8b 45 fc	 mov	 eax, DWORD PTR _this$[ebp]
  0000a	83 38 00	 cmp	 DWORD PTR [eax], 0
  0000d	75 0a		 jne	 SHORT $LN2@operator

; 429  :             _com_issue_error(E_POINTER);

  0000f	68 03 40 00 80	 push	 -2147467261		; 80004003H
  00014	e8 00 00 00 00	 call	 ?_com_issue_error@@YGXJ@Z ; _com_issue_error
$LN2@operator:
  00019	8b 4d fc	 mov	 ecx, DWORD PTR _this$[ebp]
  0001c	8b 01		 mov	 eax, DWORD PTR [ecx]
$LN3@operator:
  0001e	8b e5		 mov	 esp, ebp
  00020	5d		 pop	 ebp
  00021	c3		 ret	 0
??C?$_com_ptr_t@V?$_com_IIID@UIADORecordBinding@@$1?_GUID_00000544_0000_0010_8000_00aa006d2ea4@@3U__s_GUID@@B@@@@QBEPAUIADORecordBinding@@XZ ENDP ; _com_ptr_t<_com_IIID<IADORecordBinding,&_GUID_00000544_0000_0010_8000_00aa006d2ea4> >::operator->
_TEXT	ENDS
; Function compile flags: /Odtp
; File c:\program files (x86)\microsoft visual studio\2017\community\vc\tools\msvc\14.16.27023\include\comip.h
;	COMDAT ?Attach@?$_com_ptr_t@V?$_com_IIID@UIADORecordBinding@@$1?_GUID_00000544_0000_0010_8000_00aa006d2ea4@@3U__s_GUID@@B@@@@QAEXPAUIADORecordBinding@@@Z
_TEXT	SEGMENT
_this$ = -4						; size = 4
_pInterface$ = 8					; size = 4
?Attach@?$_com_ptr_t@V?$_com_IIID@UIADORecordBinding@@$1?_GUID_00000544_0000_0010_8000_00aa006d2ea4@@3U__s_GUID@@B@@@@QAEXPAUIADORecordBinding@@@Z PROC ; _com_ptr_t<_com_IIID<IADORecordBinding,&_GUID_00000544_0000_0010_8000_00aa006d2ea4> >::Attach, COMDAT
; _this$ = ecx

; 349  :     {

  00000	55		 push	 ebp
  00001	8b ec		 mov	 ebp, esp
  00003	51		 push	 ecx
  00004	89 4d fc	 mov	 DWORD PTR _this$[ebp], ecx

; 817  :         if (m_pInterface != NULL) {

  00007	8b 45 fc	 mov	 eax, DWORD PTR _this$[ebp]
  0000a	83 38 00	 cmp	 DWORD PTR [eax], 0
  0000d	74 12		 je	 SHORT $LN3@Attach

; 818  :             m_pInterface->Release();

  0000f	8b 4d fc	 mov	 ecx, DWORD PTR _this$[ebp]
  00012	8b 11		 mov	 edx, DWORD PTR [ecx]
  00014	8b 45 fc	 mov	 eax, DWORD PTR _this$[ebp]
  00017	8b 08		 mov	 ecx, DWORD PTR [eax]
  00019	8b 12		 mov	 edx, DWORD PTR [edx]
  0001b	51		 push	 ecx
  0001c	8b 42 08	 mov	 eax, DWORD PTR [edx+8]
  0001f	ff d0		 call	 eax
$LN3@Attach:

; 350  :         _Release();

  00021	8b 4d fc	 mov	 ecx, DWORD PTR _this$[ebp]
  00024	8b 55 08	 mov	 edx, DWORD PTR _pInterface$[ebp]
  00027	89 11		 mov	 DWORD PTR [ecx], edx
  00029	8b e5		 mov	 esp, ebp
  0002b	5d		 pop	 ebp
  0002c	c2 04 00	 ret	 4
?Attach@?$_com_ptr_t@V?$_com_IIID@UIADORecordBinding@@$1?_GUID_00000544_0000_0010_8000_00aa006d2ea4@@3U__s_GUID@@B@@@@QAEXPAUIADORecordBinding@@@Z ENDP ; _com_ptr_t<_com_IIID<IADORecordBinding,&_GUID_00000544_0000_0010_8000_00aa006d2ea4> >::Attach
_TEXT	ENDS
; Function compile flags: /Odtp
; File c:\program files (x86)\microsoft visual studio\2017\community\vc\tools\msvc\14.16.27023\include\comip.h
;	COMDAT ??1?$_com_ptr_t@V?$_com_IIID@UIADORecordBinding@@$1?_GUID_00000544_0000_0010_8000_00aa006d2ea4@@3U__s_GUID@@B@@@@QAE@XZ
_TEXT	SEGMENT
_this$ = -4						; size = 4
??1?$_com_ptr_t@V?$_com_IIID@UIADORecordBinding@@$1?_GUID_00000544_0000_0010_8000_00aa006d2ea4@@3U__s_GUID@@B@@@@QAE@XZ PROC ; _com_ptr_t<_com_IIID<IADORecordBinding,&_GUID_00000544_0000_0010_8000_00aa006d2ea4> >::~_com_ptr_t<_com_IIID<IADORecordBinding,&_GUID_00000544_0000_0010_8000_00aa006d2ea4> >, COMDAT
; _this$ = ecx

; 341  :     {

  00000	55		 push	 ebp
  00001	8b ec		 mov	 ebp, esp
  00003	51		 push	 ecx
  00004	89 4d fc	 mov	 DWORD PTR _this$[ebp], ecx

; 817  :         if (m_pInterface != NULL) {

  00007	8b 45 fc	 mov	 eax, DWORD PTR _this$[ebp]
  0000a	83 38 00	 cmp	 DWORD PTR [eax], 0
  0000d	74 12		 je	 SHORT $LN1@com_ptr_t

; 818  :             m_pInterface->Release();

  0000f	8b 4d fc	 mov	 ecx, DWORD PTR _this$[ebp]
  00012	8b 11		 mov	 edx, DWORD PTR [ecx]
  00014	8b 45 fc	 mov	 eax, DWORD PTR _this$[ebp]
  00017	8b 08		 mov	 ecx, DWORD PTR [eax]
  00019	8b 12		 mov	 edx, DWORD PTR [edx]
  0001b	51		 push	 ecx
  0001c	8b 42 08	 mov	 eax, DWORD PTR [edx+8]
  0001f	ff d0		 call	 eax
$LN1@com_ptr_t:

; 342  :         _Release();

  00021	8b e5		 mov	 esp, ebp
  00023	5d		 pop	 ebp
  00024	c3		 ret	 0
??1?$_com_ptr_t@V?$_com_IIID@UIADORecordBinding@@$1?_GUID_00000544_0000_0010_8000_00aa006d2ea4@@3U__s_GUID@@B@@@@QAE@XZ ENDP ; _com_ptr_t<_com_IIID<IADORecordBinding,&_GUID_00000544_0000_0010_8000_00aa006d2ea4> >::~_com_ptr_t<_com_IIID<IADORecordBinding,&_GUID_00000544_0000_0010_8000_00aa006d2ea4> >
_TEXT	ENDS
; Function compile flags: /Odtp
; File c:\program files (x86)\microsoft visual studio\2017\community\vc\tools\msvc\14.16.27023\include\comip.h
;	COMDAT ??$?4UIADORecordBinding@@@?$_com_ptr_t@V?$_com_IIID@UIADORecordBinding@@$1?_GUID_00000544_0000_0010_8000_00aa006d2ea4@@3U__s_GUID@@B@@@@QAEAAV0@PAUIADORecordBinding@@@Z
_TEXT	SEGMENT
_pOldInterface$1 = -8					; size = 4
_this$ = -4						; size = 4
_pInterface$ = 8					; size = 4
??$?4UIADORecordBinding@@@?$_com_ptr_t@V?$_com_IIID@UIADORecordBinding@@$1?_GUID_00000544_0000_0010_8000_00aa006d2ea4@@3U__s_GUID@@B@@@@QAEAAV0@PAUIADORecordBinding@@@Z PROC ; _com_ptr_t<_com_IIID<IADORecordBinding,&_GUID_00000544_0000_0010_8000_00aa006d2ea4> >::operator=<IADORecordBinding>, COMDAT
; _this$ = ecx

; 270  :     {

  00000	55		 push	 ebp
  00001	8b ec		 mov	 ebp, esp
  00003	83 ec 08	 sub	 esp, 8
  00006	89 4d fc	 mov	 DWORD PTR _this$[ebp], ecx

; 271  :         if (m_pInterface != pInterface) {

  00009	8b 45 fc	 mov	 eax, DWORD PTR _this$[ebp]
  0000c	8b 08		 mov	 ecx, DWORD PTR [eax]
  0000e	3b 4d 08	 cmp	 ecx, DWORD PTR _pInterface$[ebp]
  00011	74 3e		 je	 SHORT $LN2@operator

; 272  :             Interface* pOldInterface = m_pInterface;

  00013	8b 55 fc	 mov	 edx, DWORD PTR _this$[ebp]
  00016	8b 02		 mov	 eax, DWORD PTR [edx]
  00018	89 45 f8	 mov	 DWORD PTR _pOldInterface$1[ebp], eax
  0001b	8b 4d fc	 mov	 ecx, DWORD PTR _this$[ebp]
  0001e	8b 55 08	 mov	 edx, DWORD PTR _pInterface$[ebp]
  00021	89 11		 mov	 DWORD PTR [ecx], edx

; 826  :         if (m_pInterface != NULL) {

  00023	8b 45 fc	 mov	 eax, DWORD PTR _this$[ebp]
  00026	83 38 00	 cmp	 DWORD PTR [eax], 0
  00029	74 12		 je	 SHORT $LN5@operator

; 827  :             m_pInterface->AddRef();

  0002b	8b 4d fc	 mov	 ecx, DWORD PTR _this$[ebp]
  0002e	8b 11		 mov	 edx, DWORD PTR [ecx]
  00030	8b 45 fc	 mov	 eax, DWORD PTR _this$[ebp]
  00033	8b 08		 mov	 ecx, DWORD PTR [eax]
  00035	8b 12		 mov	 edx, DWORD PTR [edx]
  00037	51		 push	 ecx
  00038	8b 42 04	 mov	 eax, DWORD PTR [edx+4]
  0003b	ff d0		 call	 eax
$LN5@operator:

; 272  :             Interface* pOldInterface = m_pInterface;

  0003d	83 7d f8 00	 cmp	 DWORD PTR _pOldInterface$1[ebp], 0
  00041	74 0e		 je	 SHORT $LN2@operator

; 273  : 
; 274  :             m_pInterface = pInterface;
; 275  : 
; 276  :             _AddRef();
; 277  : 
; 278  :             if (pOldInterface != nullptr) {
; 279  :                 pOldInterface->Release();

  00043	8b 4d f8	 mov	 ecx, DWORD PTR _pOldInterface$1[ebp]
  00046	8b 11		 mov	 edx, DWORD PTR [ecx]
  00048	8b 45 f8	 mov	 eax, DWORD PTR _pOldInterface$1[ebp]
  0004b	50		 push	 eax
  0004c	8b 4a 08	 mov	 ecx, DWORD PTR [edx+8]
  0004f	ff d1		 call	 ecx
$LN2@operator:
  00051	8b 45 fc	 mov	 eax, DWORD PTR _this$[ebp]
  00054	8b e5		 mov	 esp, ebp
  00056	5d		 pop	 ebp
  00057	c2 04 00	 ret	 4
??$?4UIADORecordBinding@@@?$_com_ptr_t@V?$_com_IIID@UIADORecordBinding@@$1?_GUID_00000544_0000_0010_8000_00aa006d2ea4@@3U__s_GUID@@B@@@@QAEAAV0@PAUIADORecordBinding@@@Z ENDP ; _com_ptr_t<_com_IIID<IADORecordBinding,&_GUID_00000544_0000_0010_8000_00aa006d2ea4> >::operator=<IADORecordBinding>
_TEXT	ENDS
; Function compile flags: /Odtp
; File c:\program files (x86)\microsoft visual studio\2017\community\vc\tools\msvc\14.16.27023\include\comip.h
;	COMDAT ?GetIID@?$_com_ptr_t@V?$_com_IIID@UIADORecordBinding@@$1?_GUID_00000544_0000_0010_8000_00aa006d2ea4@@3U__s_GUID@@B@@@@SAABU_GUID@@XZ
_TEXT	SEGMENT
?GetIID@?$_com_ptr_t@V?$_com_IIID@UIADORecordBinding@@$1?_GUID_00000544_0000_0010_8000_00aa006d2ea4@@3U__s_GUID@@B@@@@SAABU_GUID@@XZ PROC ; _com_ptr_t<_com_IIID<IADORecordBinding,&_GUID_00000544_0000_0010_8000_00aa006d2ea4> >::GetIID, COMDAT

; 74   :     {

  00000	55		 push	 ebp
  00001	8b ec		 mov	 ebp, esp

; 75   :         return ThisIIID::GetIID();

  00003	b8 00 00 00 00	 mov	 eax, OFFSET __GUID_00000544_0000_0010_8000_00aa006d2ea4
  00008	5d		 pop	 ebp
  00009	c3		 ret	 0
?GetIID@?$_com_ptr_t@V?$_com_IIID@UIADORecordBinding@@$1?_GUID_00000544_0000_0010_8000_00aa006d2ea4@@3U__s_GUID@@B@@@@SAABU_GUID@@XZ ENDP ; _com_ptr_t<_com_IIID<IADORecordBinding,&_GUID_00000544_0000_0010_8000_00aa006d2ea4> >::GetIID
_TEXT	ENDS
; Function compile flags: /Odtp
; File c:\program files (x86)\microsoft visual studio\2017\community\vc\tools\msvc\14.16.27023\include\comip.h
;	COMDAT ?GetIID@?$_com_IIID@UIADORecordBinding@@$1?_GUID_00000544_0000_0010_8000_00aa006d2ea4@@3U__s_GUID@@B@@SAABU_GUID@@XZ
_TEXT	SEGMENT
?GetIID@?$_com_IIID@UIADORecordBinding@@$1?_GUID_00000544_0000_0010_8000_00aa006d2ea4@@3U__s_GUID@@B@@SAABU_GUID@@XZ PROC ; _com_IIID<IADORecordBinding,&_GUID_00000544_0000_0010_8000_00aa006d2ea4>::GetIID, COMDAT

; 55   :     {

  00000	55		 push	 ebp
  00001	8b ec		 mov	 ebp, esp

; 56   :         return *_IID;

  00003	b8 00 00 00 00	 mov	 eax, OFFSET __GUID_00000544_0000_0010_8000_00aa006d2ea4
  00008	5d		 pop	 ebp
  00009	c3		 ret	 0
?GetIID@?$_com_IIID@UIADORecordBinding@@$1?_GUID_00000544_0000_0010_8000_00aa006d2ea4@@3U__s_GUID@@B@@SAABU_GUID@@XZ ENDP ; _com_IIID<IADORecordBinding,&_GUID_00000544_0000_0010_8000_00aa006d2ea4>::GetIID
_TEXT	ENDS
; Function compile flags: /Odtp
;	COMDAT ??_GCDataBaseEngine@@UAEPAXI@Z
_TEXT	SEGMENT
_this$ = -4						; size = 4
___flags$ = 8						; size = 4
??_GCDataBaseEngine@@UAEPAXI@Z PROC			; CDataBaseEngine::`scalar deleting destructor', COMDAT
; _this$ = ecx
  00000	55		 push	 ebp
  00001	8b ec		 mov	 ebp, esp
  00003	51		 push	 ecx
  00004	89 4d fc	 mov	 DWORD PTR _this$[ebp], ecx
  00007	8b 4d fc	 mov	 ecx, DWORD PTR _this$[ebp]
  0000a	e8 00 00 00 00	 call	 ??1CDataBaseEngine@@UAE@XZ ; CDataBaseEngine::~CDataBaseEngine
  0000f	8b 45 08	 mov	 eax, DWORD PTR ___flags$[ebp]
  00012	83 e0 01	 and	 eax, 1
  00015	74 11		 je	 SHORT $LN2@scalar
  00017	68 9c 80 00 00	 push	 32924			; 0000809cH
  0001c	8b 4d fc	 mov	 ecx, DWORD PTR _this$[ebp]
  0001f	51		 push	 ecx
  00020	e8 00 00 00 00	 call	 ??3@YAXPAXI@Z		; operator delete
  00025	83 c4 08	 add	 esp, 8
$LN2@scalar:
  00028	8b 45 fc	 mov	 eax, DWORD PTR _this$[ebp]
  0002b	8b e5		 mov	 esp, ebp
  0002d	5d		 pop	 ebp
  0002e	c2 04 00	 ret	 4
??_GCDataBaseEngine@@UAEPAXI@Z ENDP			; CDataBaseEngine::`scalar deleting destructor'
_TEXT	ENDS
; Function compile flags: /Odtp
; File g:\网狐\happygamewh\服务端\系统模块\服务器组件\内核引擎\databaseengine.cpp
;	COMDAT ?OnAsynchronismEngineData@CDataBaseEngine@@UAE_NGPAXG@Z
_TEXT	SEGMENT
tv233 = -56						; size = 4
tv230 = -52						; size = 4
tv242 = -48						; size = 4
_pControlEvent$2 = -44					; size = 4
_pTimerEvent$3 = -40					; size = 4
_pDataBaseEvent$4 = -36					; size = 4
tv65 = -32						; size = 4
_this$ = -28						; size = 4
$T5 = -22						; size = 1
_flag$6 = -21						; size = 1
tv234 = -20						; size = 1
$T7 = -19						; size = 1
$T8 = -18						; size = 1
tv236 = -17						; size = 1
__$EHRec$ = -16						; size = 16
_wIdentifier$ = 8					; size = 2
_pData$ = 12						; size = 4
_wDataSize$ = 16					; size = 2
?OnAsynchronismEngineData@CDataBaseEngine@@UAE_NGPAXG@Z PROC ; CDataBaseEngine::OnAsynchronismEngineData, COMDAT
; _this$ = ecx

; 842  : {

  00000	55		 push	 ebp
  00001	8b ec		 mov	 ebp, esp
  00003	6a ff		 push	 -1
  00005	68 00 00 00 00	 push	 __ehhandler$?OnAsynchronismEngineData@CDataBaseEngine@@UAE_NGPAXG@Z
  0000a	64 a1 00 00 00
	00		 mov	 eax, DWORD PTR fs:0
  00010	50		 push	 eax
  00011	51		 push	 ecx
  00012	83 ec 28	 sub	 esp, 40			; 00000028H
  00015	53		 push	 ebx
  00016	56		 push	 esi
  00017	57		 push	 edi
  00018	a1 00 00 00 00	 mov	 eax, DWORD PTR ___security_cookie
  0001d	33 c5		 xor	 eax, ebp
  0001f	50		 push	 eax
  00020	8d 45 f4	 lea	 eax, DWORD PTR __$EHRec$[ebp+4]
  00023	64 a3 00 00 00
	00		 mov	 DWORD PTR fs:0, eax
  00029	89 65 f0	 mov	 DWORD PTR __$EHRec$[ebp], esp
  0002c	89 4d e4	 mov	 DWORD PTR _this$[ebp], ecx

; 843  :     switch (wIdentifier)

  0002f	0f b7 45 08	 movzx	 eax, WORD PTR _wIdentifier$[ebp]
  00033	89 45 e0	 mov	 DWORD PTR tv65[ebp], eax
  00036	83 7d e0 01	 cmp	 DWORD PTR tv65[ebp], 1
  0003a	74 19		 je	 SHORT $LN4@OnAsynchro
  0003c	83 7d e0 02	 cmp	 DWORD PTR tv65[ebp], 2
  00040	0f 84 e6 00 00
	00		 je	 $LN7@OnAsynchro
  00046	83 7d e0 03	 cmp	 DWORD PTR tv65[ebp], 3
  0004a	0f 84 b3 01 00
	00		 je	 $LN10@OnAsynchro
  00050	e9 92 02 00 00	 jmp	 $LN2@OnAsynchro
$LN4@OnAsynchro:

; 844  :     {
; 845  :         case EVENT_TIMER:		// 时间事件
; 846  :         {
; 847  :             // 效验参数
; 848  :             ASSERT(wDataSize == sizeof(NTY_TimerEvent));

  00055	0f b7 4d 10	 movzx	 ecx, WORD PTR _wDataSize$[ebp]
  00059	83 f9 08	 cmp	 ecx, 8
  0005c	74 14		 je	 SHORT $LN14@OnAsynchro
  0005e	68 50 03 00 00	 push	 848			; 00000350H
  00063	68 00 00 00 00	 push	 OFFSET ??_C@_0EL@CJALAN@g?3?2?M?x?$LK?$PM?2happygamewh?2?$LH?$PO?N?q?$LG?K?2?O?$LF?M?$LD@
  00068	e8 00 00 00 00	 call	 ?AfxAssertFailedLine@@YGHPBDH@Z ; AfxAssertFailedLine
  0006d	85 c0		 test	 eax, eax
  0006f	74 01		 je	 SHORT $LN14@OnAsynchro
  00071	cc		 int	 3
$LN14@OnAsynchro:

; 849  :             if (wDataSize != sizeof(NTY_TimerEvent))

  00072	0f b7 45 10	 movzx	 eax, WORD PTR _wDataSize$[ebp]
  00076	83 f8 08	 cmp	 eax, 8
  00079	74 07		 je	 SHORT $LN5@OnAsynchro

; 850  :                 return false;

  0007b	32 c0		 xor	 al, al
  0007d	e9 7f 02 00 00	 jmp	 $LN1@OnAsynchro
$LN5@OnAsynchro:

; 851  : 
; 852  :             // 变量定义
; 853  :             NTY_TimerEvent * pTimerEvent = (NTY_TimerEvent *)pData;

  00082	8b 4d 0c	 mov	 ecx, DWORD PTR _pData$[ebp]
  00085	89 4d d8	 mov	 DWORD PTR _pTimerEvent$3[ebp], ecx

; 854  : 
; 855  :             // 处理数据
; 856  :             try

  00088	c7 45 fc 00 00
	00 00		 mov	 DWORD PTR __$EHRec$[ebp+12], 0

; 857  :             {
; 858  :                 ASSERT(m_pIDataBaseEngineSink != NULL);

  0008f	8b 55 e4	 mov	 edx, DWORD PTR _this$[ebp]
  00092	83 ba 94 40 00
	00 00		 cmp	 DWORD PTR [edx+16532], 0
  00099	75 19		 jne	 SHORT $LN15@OnAsynchro
  0009b	68 5a 03 00 00	 push	 858			; 0000035aH
  000a0	68 00 00 00 00	 push	 OFFSET ??_C@_0EL@CJALAN@g?3?2?M?x?$LK?$PM?2happygamewh?2?$LH?$PO?N?q?$LG?K?2?O?$LF?M?$LD@
  000a5	e8 00 00 00 00	 call	 ?AfxAssertFailedLine@@YGHPBDH@Z ; AfxAssertFailedLine
  000aa	89 45 d0	 mov	 DWORD PTR tv242[ebp], eax
  000ad	83 7d d0 00	 cmp	 DWORD PTR tv242[ebp], 0
  000b1	74 01		 je	 SHORT $LN15@OnAsynchro
  000b3	cc		 int	 3
$LN15@OnAsynchro:

; 859  :                 return m_pIDataBaseEngineSink->OnDataBaseEngineTimer(pTimerEvent->dwTimerID, pTimerEvent->dwBindParameter);

  000b4	8b 4d d8	 mov	 ecx, DWORD PTR _pTimerEvent$3[ebp]
  000b7	8b 51 04	 mov	 edx, DWORD PTR [ecx+4]
  000ba	52		 push	 edx
  000bb	8b 45 d8	 mov	 eax, DWORD PTR _pTimerEvent$3[ebp]
  000be	8b 08		 mov	 ecx, DWORD PTR [eax]
  000c0	51		 push	 ecx
  000c1	8b 55 e4	 mov	 edx, DWORD PTR _this$[ebp]
  000c4	8b 45 e4	 mov	 eax, DWORD PTR _this$[ebp]
  000c7	8b 88 94 40 00
	00		 mov	 ecx, DWORD PTR [eax+16532]
  000cd	8b 01		 mov	 eax, DWORD PTR [ecx]
  000cf	8b 8a 94 40 00
	00		 mov	 ecx, DWORD PTR [edx+16532]
  000d5	8b 50 10	 mov	 edx, DWORD PTR [eax+16]
  000d8	ff d2		 call	 edx
  000da	88 45 ef	 mov	 BYTE PTR tv236[ebp], al
  000dd	8a 45 ef	 mov	 al, BYTE PTR tv236[ebp]
  000e0	e9 1c 02 00 00	 jmp	 $LN1@OnAsynchro
__catch$?OnAsynchronismEngineData@CDataBaseEngine@@UAE_NGPAXG@Z$0:

; 860  :             }
; 861  :             catch (...)
; 862  :             {
; 863  :                 ASSERT(FALSE);

  000e5	33 c0		 xor	 eax, eax
  000e7	75 14		 jne	 SHORT $LN16@OnAsynchro
  000e9	68 5f 03 00 00	 push	 863			; 0000035fH
  000ee	68 00 00 00 00	 push	 OFFSET ??_C@_0EL@CJALAN@g?3?2?M?x?$LK?$PM?2happygamewh?2?$LH?$PO?N?q?$LG?K?2?O?$LF?M?$LD@
  000f3	e8 00 00 00 00	 call	 ?AfxAssertFailedLine@@YGHPBDH@Z ; AfxAssertFailedLine
  000f8	85 c0		 test	 eax, eax
  000fa	74 01		 je	 SHORT $LN16@OnAsynchro
  000fc	cc		 int	 3
$LN16@OnAsynchro:

; 864  :                 return false;

  000fd	c6 45 ee 00	 mov	 BYTE PTR $T8[ebp], 0
  00101	b8 00 00 00 00	 mov	 eax, $LN31@OnAsynchro
  00106	c3		 ret	 0

; 865  :             }

  00107	b8 00 00 00 00	 mov	 eax, __tryend$?OnAsynchronismEngineData@CDataBaseEngine@@UAE_NGPAXG@Z$1
  0010c	c3		 ret	 0
__tryend$?OnAsynchronismEngineData@CDataBaseEngine@@UAE_NGPAXG@Z$1:
  0010d	c7 45 fc ff ff
	ff ff		 mov	 DWORD PTR __$EHRec$[ebp+12], -1
  00114	eb 0f		 jmp	 SHORT $LN30@OnAsynchro
$LN31@OnAsynchro:
  00116	c7 45 fc ff ff
	ff ff		 mov	 DWORD PTR __$EHRec$[ebp+12], -1

; 864  :                 return false;

  0011d	8a 45 ee	 mov	 al, BYTE PTR $T8[ebp]
  00120	e9 dc 01 00 00	 jmp	 $LN1@OnAsynchro
$LN30@OnAsynchro:

; 866  : 
; 867  :             return true;

  00125	b0 01		 mov	 al, 1
  00127	e9 d5 01 00 00	 jmp	 $LN1@OnAsynchro
$LN7@OnAsynchro:

; 868  :         }
; 869  :         case EVENT_CONTROL:		// 控制事件
; 870  :         {
; 871  :             // 大小断言
; 872  :             ASSERT(wDataSize >= sizeof(NTY_ControlEvent));

  0012c	0f b7 55 10	 movzx	 edx, WORD PTR _wDataSize$[ebp]
  00130	83 fa 02	 cmp	 edx, 2
  00133	73 14		 jae	 SHORT $LN17@OnAsynchro
  00135	68 68 03 00 00	 push	 872			; 00000368H
  0013a	68 00 00 00 00	 push	 OFFSET ??_C@_0EL@CJALAN@g?3?2?M?x?$LK?$PM?2happygamewh?2?$LH?$PO?N?q?$LG?K?2?O?$LF?M?$LD@
  0013f	e8 00 00 00 00	 call	 ?AfxAssertFailedLine@@YGHPBDH@Z ; AfxAssertFailedLine
  00144	85 c0		 test	 eax, eax
  00146	74 01		 je	 SHORT $LN17@OnAsynchro
  00148	cc		 int	 3
$LN17@OnAsynchro:

; 873  :             if (wDataSize < sizeof(NTY_ControlEvent))

  00149	0f b7 4d 10	 movzx	 ecx, WORD PTR _wDataSize$[ebp]
  0014d	83 f9 02	 cmp	 ecx, 2
  00150	73 07		 jae	 SHORT $LN8@OnAsynchro

; 874  :                 return false;

  00152	32 c0		 xor	 al, al
  00154	e9 a8 01 00 00	 jmp	 $LN1@OnAsynchro
$LN8@OnAsynchro:

; 875  : 
; 876  :             // 变量定义
; 877  :             NTY_ControlEvent * pControlEvent = (NTY_ControlEvent *)pData;

  00159	8b 55 0c	 mov	 edx, DWORD PTR _pData$[ebp]
  0015c	89 55 d4	 mov	 DWORD PTR _pControlEvent$2[ebp], edx

; 878  : 
; 879  :             // 处理数据
; 880  :             try

  0015f	c7 45 fc 02 00
	00 00		 mov	 DWORD PTR __$EHRec$[ebp+12], 2

; 881  :             {
; 882  :                 ASSERT(m_pIDataBaseEngineSink != NULL);

  00166	8b 45 e4	 mov	 eax, DWORD PTR _this$[ebp]
  00169	83 b8 94 40 00
	00 00		 cmp	 DWORD PTR [eax+16532], 0
  00170	75 19		 jne	 SHORT $LN18@OnAsynchro
  00172	68 72 03 00 00	 push	 882			; 00000372H
  00177	68 00 00 00 00	 push	 OFFSET ??_C@_0EL@CJALAN@g?3?2?M?x?$LK?$PM?2happygamewh?2?$LH?$PO?N?q?$LG?K?2?O?$LF?M?$LD@
  0017c	e8 00 00 00 00	 call	 ?AfxAssertFailedLine@@YGHPBDH@Z ; AfxAssertFailedLine
  00181	89 45 cc	 mov	 DWORD PTR tv230[ebp], eax
  00184	83 7d cc 00	 cmp	 DWORD PTR tv230[ebp], 0
  00188	74 01		 je	 SHORT $LN18@OnAsynchro
  0018a	cc		 int	 3
$LN18@OnAsynchro:

; 883  :                 m_pIDataBaseEngineSink->OnDataBaseEngineControl(pControlEvent->wControlID, pControlEvent + 1, wDataSize - sizeof(NTY_ControlEvent));

  0018b	0f b7 55 10	 movzx	 edx, WORD PTR _wDataSize$[ebp]
  0018f	83 ea 02	 sub	 edx, 2
  00192	52		 push	 edx
  00193	8b 45 d4	 mov	 eax, DWORD PTR _pControlEvent$2[ebp]
  00196	83 c0 02	 add	 eax, 2
  00199	50		 push	 eax
  0019a	8b 4d d4	 mov	 ecx, DWORD PTR _pControlEvent$2[ebp]
  0019d	0f b7 11	 movzx	 edx, WORD PTR [ecx]
  001a0	52		 push	 edx
  001a1	8b 45 e4	 mov	 eax, DWORD PTR _this$[ebp]
  001a4	8b 4d e4	 mov	 ecx, DWORD PTR _this$[ebp]
  001a7	8b 91 94 40 00
	00		 mov	 edx, DWORD PTR [ecx+16532]
  001ad	8b 12		 mov	 edx, DWORD PTR [edx]
  001af	8b 88 94 40 00
	00		 mov	 ecx, DWORD PTR [eax+16532]
  001b5	8b 42 14	 mov	 eax, DWORD PTR [edx+20]
  001b8	ff d0		 call	 eax

; 884  :             }

  001ba	eb 28		 jmp	 SHORT $LN26@OnAsynchro
__catch$?OnAsynchronismEngineData@CDataBaseEngine@@UAE_NGPAXG@Z$2:

; 885  :             catch (...)
; 886  :             {
; 887  :                 ASSERT(FALSE);

  001bc	33 c9		 xor	 ecx, ecx
  001be	75 14		 jne	 SHORT $LN19@OnAsynchro
  001c0	68 77 03 00 00	 push	 887			; 00000377H
  001c5	68 00 00 00 00	 push	 OFFSET ??_C@_0EL@CJALAN@g?3?2?M?x?$LK?$PM?2happygamewh?2?$LH?$PO?N?q?$LG?K?2?O?$LF?M?$LD@
  001ca	e8 00 00 00 00	 call	 ?AfxAssertFailedLine@@YGHPBDH@Z ; AfxAssertFailedLine
  001cf	85 c0		 test	 eax, eax
  001d1	74 01		 je	 SHORT $LN19@OnAsynchro
  001d3	cc		 int	 3
$LN19@OnAsynchro:

; 888  :                 return false;

  001d4	c6 45 ed 00	 mov	 BYTE PTR $T7[ebp], 0
  001d8	b8 00 00 00 00	 mov	 eax, $LN33@OnAsynchro
  001dd	c3		 ret	 0

; 889  :             }

  001de	b8 00 00 00 00	 mov	 eax, $LN26@OnAsynchro
  001e3	c3		 ret	 0
$LN26@OnAsynchro:
  001e4	c7 45 fc ff ff
	ff ff		 mov	 DWORD PTR __$EHRec$[ebp+12], -1
  001eb	eb 0f		 jmp	 SHORT $LN32@OnAsynchro
$LN33@OnAsynchro:
  001ed	c7 45 fc ff ff
	ff ff		 mov	 DWORD PTR __$EHRec$[ebp+12], -1

; 888  :                 return false;

  001f4	8a 45 ed	 mov	 al, BYTE PTR $T7[ebp]
  001f7	e9 05 01 00 00	 jmp	 $LN1@OnAsynchro
$LN32@OnAsynchro:

; 890  : 
; 891  :             return true;

  001fc	b0 01		 mov	 al, 1
  001fe	e9 fe 00 00 00	 jmp	 $LN1@OnAsynchro
$LN10@OnAsynchro:

; 892  :         }
; 893  :         case EVENT_DATABASE:	// 数据事件
; 894  :         {
; 895  :             // 效验参数
; 896  :             ASSERT(wDataSize >= sizeof(NTY_DataBaseEvent));

  00203	0f b7 45 10	 movzx	 eax, WORD PTR _wDataSize$[ebp]
  00207	83 f8 08	 cmp	 eax, 8
  0020a	73 14		 jae	 SHORT $LN20@OnAsynchro
  0020c	68 80 03 00 00	 push	 896			; 00000380H
  00211	68 00 00 00 00	 push	 OFFSET ??_C@_0EL@CJALAN@g?3?2?M?x?$LK?$PM?2happygamewh?2?$LH?$PO?N?q?$LG?K?2?O?$LF?M?$LD@
  00216	e8 00 00 00 00	 call	 ?AfxAssertFailedLine@@YGHPBDH@Z ; AfxAssertFailedLine
  0021b	85 c0		 test	 eax, eax
  0021d	74 01		 je	 SHORT $LN20@OnAsynchro
  0021f	cc		 int	 3
$LN20@OnAsynchro:

; 897  :             if (wDataSize < sizeof(NTY_DataBaseEvent)) return false;

  00220	0f b7 55 10	 movzx	 edx, WORD PTR _wDataSize$[ebp]
  00224	83 fa 08	 cmp	 edx, 8
  00227	73 07		 jae	 SHORT $LN11@OnAsynchro
  00229	32 c0		 xor	 al, al
  0022b	e9 d1 00 00 00	 jmp	 $LN1@OnAsynchro
$LN11@OnAsynchro:

; 898  : 
; 899  :             // 变量定义
; 900  :             NTY_DataBaseEvent * pDataBaseEvent = (NTY_DataBaseEvent *)pData;

  00230	8b 45 0c	 mov	 eax, DWORD PTR _pData$[ebp]
  00233	89 45 dc	 mov	 DWORD PTR _pDataBaseEvent$4[ebp], eax

; 901  : 
; 902  :             // 处理数据
; 903  :             try

  00236	c7 45 fc 04 00
	00 00		 mov	 DWORD PTR __$EHRec$[ebp+12], 4

; 904  :             {
; 905  :                 ASSERT(m_pIDataBaseEngineSink != NULL);

  0023d	8b 4d e4	 mov	 ecx, DWORD PTR _this$[ebp]
  00240	83 b9 94 40 00
	00 00		 cmp	 DWORD PTR [ecx+16532], 0
  00247	75 19		 jne	 SHORT $LN21@OnAsynchro
  00249	68 89 03 00 00	 push	 905			; 00000389H
  0024e	68 00 00 00 00	 push	 OFFSET ??_C@_0EL@CJALAN@g?3?2?M?x?$LK?$PM?2happygamewh?2?$LH?$PO?N?q?$LG?K?2?O?$LF?M?$LD@
  00253	e8 00 00 00 00	 call	 ?AfxAssertFailedLine@@YGHPBDH@Z ; AfxAssertFailedLine
  00258	89 45 c8	 mov	 DWORD PTR tv233[ebp], eax
  0025b	83 7d c8 00	 cmp	 DWORD PTR tv233[ebp], 0
  0025f	74 01		 je	 SHORT $LN21@OnAsynchro
  00261	cc		 int	 3
$LN21@OnAsynchro:

; 906  : 				bool flag = m_pIDataBaseEngineSink->OnDataBaseEngineRequest(pDataBaseEvent->wRequestID, pDataBaseEvent->dwContextID,

  00262	0f b7 45 10	 movzx	 eax, WORD PTR _wDataSize$[ebp]
  00266	83 e8 08	 sub	 eax, 8
  00269	50		 push	 eax
  0026a	8b 4d dc	 mov	 ecx, DWORD PTR _pDataBaseEvent$4[ebp]
  0026d	83 c1 08	 add	 ecx, 8
  00270	51		 push	 ecx
  00271	8b 55 dc	 mov	 edx, DWORD PTR _pDataBaseEvent$4[ebp]
  00274	8b 42 04	 mov	 eax, DWORD PTR [edx+4]
  00277	50		 push	 eax
  00278	8b 4d dc	 mov	 ecx, DWORD PTR _pDataBaseEvent$4[ebp]
  0027b	0f b7 11	 movzx	 edx, WORD PTR [ecx]
  0027e	52		 push	 edx
  0027f	8b 45 e4	 mov	 eax, DWORD PTR _this$[ebp]
  00282	8b 4d e4	 mov	 ecx, DWORD PTR _this$[ebp]
  00285	8b 91 94 40 00
	00		 mov	 edx, DWORD PTR [ecx+16532]
  0028b	8b 12		 mov	 edx, DWORD PTR [edx]
  0028d	8b 88 94 40 00
	00		 mov	 ecx, DWORD PTR [eax+16532]
  00293	8b 42 18	 mov	 eax, DWORD PTR [edx+24]
  00296	ff d0		 call	 eax
  00298	88 45 ec	 mov	 BYTE PTR tv234[ebp], al
  0029b	8a 4d ec	 mov	 cl, BYTE PTR tv234[ebp]
  0029e	88 4d eb	 mov	 BYTE PTR _flag$6[ebp], cl

; 907  : 					pDataBaseEvent + 1, wDataSize - sizeof(NTY_DataBaseEvent));
; 908  : 				return flag;

  002a1	8a 45 eb	 mov	 al, BYTE PTR _flag$6[ebp]
  002a4	eb 5b		 jmp	 SHORT $LN1@OnAsynchro
__catch$?OnAsynchronismEngineData@CDataBaseEngine@@UAE_NGPAXG@Z$4:

; 909  :             }
; 910  :             catch (...)
; 911  :             {
; 912  :                 ASSERT(FALSE);

  002a6	33 d2		 xor	 edx, edx
  002a8	75 14		 jne	 SHORT $LN22@OnAsynchro
  002aa	68 90 03 00 00	 push	 912			; 00000390H
  002af	68 00 00 00 00	 push	 OFFSET ??_C@_0EL@CJALAN@g?3?2?M?x?$LK?$PM?2happygamewh?2?$LH?$PO?N?q?$LG?K?2?O?$LF?M?$LD@
  002b4	e8 00 00 00 00	 call	 ?AfxAssertFailedLine@@YGHPBDH@Z ; AfxAssertFailedLine
  002b9	85 c0		 test	 eax, eax
  002bb	74 01		 je	 SHORT $LN22@OnAsynchro
  002bd	cc		 int	 3
$LN22@OnAsynchro:

; 913  :                 return false;

  002be	c6 45 ea 00	 mov	 BYTE PTR $T5[ebp], 0
  002c2	b8 00 00 00 00	 mov	 eax, $LN35@OnAsynchro
  002c7	c3		 ret	 0

; 914  :             }

  002c8	b8 00 00 00 00	 mov	 eax, __tryend$?OnAsynchronismEngineData@CDataBaseEngine@@UAE_NGPAXG@Z$5
  002cd	c3		 ret	 0
__tryend$?OnAsynchronismEngineData@CDataBaseEngine@@UAE_NGPAXG@Z$5:
  002ce	c7 45 fc ff ff
	ff ff		 mov	 DWORD PTR __$EHRec$[ebp+12], -1
  002d5	eb 0c		 jmp	 SHORT $LN34@OnAsynchro
$LN35@OnAsynchro:
  002d7	c7 45 fc ff ff
	ff ff		 mov	 DWORD PTR __$EHRec$[ebp+12], -1

; 913  :                 return false;

  002de	8a 45 ea	 mov	 al, BYTE PTR $T5[ebp]
  002e1	eb 1e		 jmp	 SHORT $LN1@OnAsynchro
$LN34@OnAsynchro:

; 915  : 
; 916  :             return true;

  002e3	b0 01		 mov	 al, 1
  002e5	eb 1a		 jmp	 SHORT $LN1@OnAsynchro
$LN2@OnAsynchro:

; 917  :         }
; 918  :     }
; 919  : 
; 920  :     // 错误断言
; 921  :     ASSERT(FALSE);

  002e7	33 c9		 xor	 ecx, ecx
  002e9	75 14		 jne	 SHORT $LN23@OnAsynchro
  002eb	68 99 03 00 00	 push	 921			; 00000399H
  002f0	68 00 00 00 00	 push	 OFFSET ??_C@_0EL@CJALAN@g?3?2?M?x?$LK?$PM?2happygamewh?2?$LH?$PO?N?q?$LG?K?2?O?$LF?M?$LD@
  002f5	e8 00 00 00 00	 call	 ?AfxAssertFailedLine@@YGHPBDH@Z ; AfxAssertFailedLine
  002fa	85 c0		 test	 eax, eax
  002fc	74 01		 je	 SHORT $LN23@OnAsynchro
  002fe	cc		 int	 3
$LN23@OnAsynchro:

; 922  : 
; 923  :     return false;

  002ff	32 c0		 xor	 al, al
$LN1@OnAsynchro:

; 924  : }

  00301	8b 4d f4	 mov	 ecx, DWORD PTR __$EHRec$[ebp+4]
  00304	64 89 0d 00 00
	00 00		 mov	 DWORD PTR fs:0, ecx
  0030b	59		 pop	 ecx
  0030c	5f		 pop	 edi
  0030d	5e		 pop	 esi
  0030e	5b		 pop	 ebx
  0030f	8b e5		 mov	 esp, ebp
  00311	5d		 pop	 ebp
  00312	c2 0c 00	 ret	 12			; 0000000cH
_TEXT	ENDS
;	COMDAT text$x
text$x	SEGMENT
__ehhandler$?OnAsynchronismEngineData@CDataBaseEngine@@UAE_NGPAXG@Z:
  00000	8b 54 24 08	 mov	 edx, DWORD PTR [esp+8]
  00004	8d 42 0c	 lea	 eax, DWORD PTR [edx+12]
  00007	8b 4a c4	 mov	 ecx, DWORD PTR [edx-60]
  0000a	33 c8		 xor	 ecx, eax
  0000c	e8 00 00 00 00	 call	 @__security_check_cookie@4
  00011	b8 00 00 00 00	 mov	 eax, OFFSET __ehfuncinfo$?OnAsynchronismEngineData@CDataBaseEngine@@UAE_NGPAXG@Z
  00016	e9 00 00 00 00	 jmp	 ___CxxFrameHandler3
text$x	ENDS
?OnAsynchronismEngineData@CDataBaseEngine@@UAE_NGPAXG@Z ENDP ; CDataBaseEngine::OnAsynchronismEngineData
; Function compile flags: /Odtp
; File g:\网狐\happygamewh\服务端\系统模块\服务器组件\内核引擎\databaseengine.cpp
;	COMDAT ?OnAsynchronismEngineConclude@CDataBaseEngine@@UAE_NXZ
_TEXT	SEGMENT
_pISQLDataBaseEngine$ = -8				; size = 4
_this$ = -4						; size = 4
?OnAsynchronismEngineConclude@CDataBaseEngine@@UAE_NXZ PROC ; CDataBaseEngine::OnAsynchronismEngineConclude, COMDAT
; _this$ = ecx

; 829  : {

  00000	55		 push	 ebp
  00001	8b ec		 mov	 ebp, esp
  00003	83 ec 08	 sub	 esp, 8
  00006	89 4d fc	 mov	 DWORD PTR _this$[ebp], ecx

; 830  :     // 效验参数
; 831  :     ASSERT(m_pIDataBaseEngineSink != NULL);

  00009	8b 45 fc	 mov	 eax, DWORD PTR _this$[ebp]
  0000c	83 b8 94 40 00
	00 00		 cmp	 DWORD PTR [eax+16532], 0
  00013	75 14		 jne	 SHORT $LN4@OnAsynchro
  00015	68 3f 03 00 00	 push	 831			; 0000033fH
  0001a	68 00 00 00 00	 push	 OFFSET ??_C@_0EL@CJALAN@g?3?2?M?x?$LK?$PM?2happygamewh?2?$LH?$PO?N?q?$LG?K?2?O?$LF?M?$LD@
  0001f	e8 00 00 00 00	 call	 ?AfxAssertFailedLine@@YGHPBDH@Z ; AfxAssertFailedLine
  00024	85 c0		 test	 eax, eax
  00026	74 01		 je	 SHORT $LN4@OnAsynchro
  00028	cc		 int	 3
$LN4@OnAsynchro:

; 832  :     if (m_pIDataBaseEngineSink == NULL)

  00029	8b 55 fc	 mov	 edx, DWORD PTR _this$[ebp]
  0002c	83 ba 94 40 00
	00 00		 cmp	 DWORD PTR [edx+16532], 0
  00033	75 04		 jne	 SHORT $LN2@OnAsynchro

; 833  :         return false;

  00035	32 c0		 xor	 al, al
  00037	eb 3b		 jmp	 SHORT $LN1@OnAsynchro
$LN2@OnAsynchro:

; 834  : 
; 835  :     // 事件通知
; 836  :     IUnknownEx * pISQLDataBaseEngine = QUERY_ME_INTERFACE(IUnknownEx);

  00039	68 00 01 01 06	 push	 100729088		; 06010100H
  0003e	68 00 00 00 00	 push	 OFFSET ?IID_IUnknownEx@@3U_GUID@@B
  00043	8b 4d fc	 mov	 ecx, DWORD PTR _this$[ebp]
  00046	83 e9 04	 sub	 ecx, 4
  00049	8b 45 fc	 mov	 eax, DWORD PTR _this$[ebp]
  0004c	8b 50 fc	 mov	 edx, DWORD PTR [eax-4]
  0004f	8b 42 04	 mov	 eax, DWORD PTR [edx+4]
  00052	ff d0		 call	 eax
  00054	89 45 f8	 mov	 DWORD PTR _pISQLDataBaseEngine$[ebp], eax

; 837  :     return m_pIDataBaseEngineSink->OnDataBaseEngineConclude(pISQLDataBaseEngine);

  00057	8b 4d f8	 mov	 ecx, DWORD PTR _pISQLDataBaseEngine$[ebp]
  0005a	51		 push	 ecx
  0005b	8b 55 fc	 mov	 edx, DWORD PTR _this$[ebp]
  0005e	8b 82 94 40 00
	00		 mov	 eax, DWORD PTR [edx+16532]
  00064	8b 4d fc	 mov	 ecx, DWORD PTR _this$[ebp]
  00067	8b 10		 mov	 edx, DWORD PTR [eax]
  00069	8b 89 94 40 00
	00		 mov	 ecx, DWORD PTR [ecx+16532]
  0006f	8b 42 0c	 mov	 eax, DWORD PTR [edx+12]
  00072	ff d0		 call	 eax
$LN1@OnAsynchro:

; 838  : }

  00074	8b e5		 mov	 esp, ebp
  00076	5d		 pop	 ebp
  00077	c3		 ret	 0
?OnAsynchronismEngineConclude@CDataBaseEngine@@UAE_NXZ ENDP ; CDataBaseEngine::OnAsynchronismEngineConclude
_TEXT	ENDS
; Function compile flags: /Odtp
; File g:\网狐\happygamewh\服务端\系统模块\服务器组件\内核引擎\databaseengine.cpp
;	COMDAT ?OnAsynchronismEngineStart@CDataBaseEngine@@UAE_NXZ
_TEXT	SEGMENT
_pISQLDataBaseEngine$ = -8				; size = 4
_this$ = -4						; size = 4
?OnAsynchronismEngineStart@CDataBaseEngine@@UAE_NXZ PROC ; CDataBaseEngine::OnAsynchronismEngineStart, COMDAT
; _this$ = ecx

; 813  : {

  00000	55		 push	 ebp
  00001	8b ec		 mov	 ebp, esp
  00003	83 ec 08	 sub	 esp, 8
  00006	89 4d fc	 mov	 DWORD PTR _this$[ebp], ecx

; 814  :     // 效验参数
; 815  :     ASSERT(m_pIDataBaseEngineSink != NULL);

  00009	8b 45 fc	 mov	 eax, DWORD PTR _this$[ebp]
  0000c	83 b8 94 40 00
	00 00		 cmp	 DWORD PTR [eax+16532], 0
  00013	75 14		 jne	 SHORT $LN4@OnAsynchro
  00015	68 2f 03 00 00	 push	 815			; 0000032fH
  0001a	68 00 00 00 00	 push	 OFFSET ??_C@_0EL@CJALAN@g?3?2?M?x?$LK?$PM?2happygamewh?2?$LH?$PO?N?q?$LG?K?2?O?$LF?M?$LD@
  0001f	e8 00 00 00 00	 call	 ?AfxAssertFailedLine@@YGHPBDH@Z ; AfxAssertFailedLine
  00024	85 c0		 test	 eax, eax
  00026	74 01		 je	 SHORT $LN4@OnAsynchro
  00028	cc		 int	 3
$LN4@OnAsynchro:

; 816  :     if (m_pIDataBaseEngineSink == NULL)

  00029	8b 55 fc	 mov	 edx, DWORD PTR _this$[ebp]
  0002c	83 ba 94 40 00
	00 00		 cmp	 DWORD PTR [edx+16532], 0
  00033	75 04		 jne	 SHORT $LN2@OnAsynchro

; 817  :         return false;

  00035	32 c0		 xor	 al, al
  00037	eb 43		 jmp	 SHORT $LN1@OnAsynchro
$LN2@OnAsynchro:

; 818  : 
; 819  :     // 加载 COM
; 820  :     CoInitialize(NULL);

  00039	6a 00		 push	 0
  0003b	ff 15 00 00 00
	00		 call	 DWORD PTR __imp__CoInitialize@4

; 821  : 
; 822  :     // 事件通知
; 823  :     IUnknownEx * pISQLDataBaseEngine = QUERY_ME_INTERFACE(IUnknownEx);

  00041	68 00 01 01 06	 push	 100729088		; 06010100H
  00046	68 00 00 00 00	 push	 OFFSET ?IID_IUnknownEx@@3U_GUID@@B
  0004b	8b 4d fc	 mov	 ecx, DWORD PTR _this$[ebp]
  0004e	83 e9 04	 sub	 ecx, 4
  00051	8b 45 fc	 mov	 eax, DWORD PTR _this$[ebp]
  00054	8b 50 fc	 mov	 edx, DWORD PTR [eax-4]
  00057	8b 42 04	 mov	 eax, DWORD PTR [edx+4]
  0005a	ff d0		 call	 eax
  0005c	89 45 f8	 mov	 DWORD PTR _pISQLDataBaseEngine$[ebp], eax

; 824  :     return m_pIDataBaseEngineSink->OnDataBaseEngineStart(pISQLDataBaseEngine);

  0005f	8b 4d f8	 mov	 ecx, DWORD PTR _pISQLDataBaseEngine$[ebp]
  00062	51		 push	 ecx
  00063	8b 55 fc	 mov	 edx, DWORD PTR _this$[ebp]
  00066	8b 82 94 40 00
	00		 mov	 eax, DWORD PTR [edx+16532]
  0006c	8b 4d fc	 mov	 ecx, DWORD PTR _this$[ebp]
  0006f	8b 10		 mov	 edx, DWORD PTR [eax]
  00071	8b 89 94 40 00
	00		 mov	 ecx, DWORD PTR [ecx+16532]
  00077	8b 42 08	 mov	 eax, DWORD PTR [edx+8]
  0007a	ff d0		 call	 eax
$LN1@OnAsynchro:

; 825  : }

  0007c	8b e5		 mov	 esp, ebp
  0007e	5d		 pop	 ebp
  0007f	c3		 ret	 0
?OnAsynchronismEngineStart@CDataBaseEngine@@UAE_NXZ ENDP ; CDataBaseEngine::OnAsynchronismEngineStart
_TEXT	ENDS
; Function compile flags: /Odtp
; File g:\网狐\happygamewh\服务端\系统模块\服务器组件\内核引擎\databaseengine.cpp
;	COMDAT ?DeferDataBaseRequest@CDataBaseEngine@@UAE_NGKPAXG@Z
_TEXT	SEGMENT
_this$ = -4						; size = 4
_wRequestID$ = 8					; size = 2
_dwContextID$ = 12					; size = 4
_pData$ = 16						; size = 4
_wDataSize$ = 20					; size = 2
?DeferDataBaseRequest@CDataBaseEngine@@UAE_NGKPAXG@Z PROC ; CDataBaseEngine::DeferDataBaseRequest, COMDAT
; _this$ = ecx

; 750  : {

  00000	55		 push	 ebp
  00001	8b ec		 mov	 ebp, esp
  00003	51		 push	 ecx
  00004	89 4d fc	 mov	 DWORD PTR _this$[ebp], ecx

; 751  :     // // 缓冲锁定
; 752  :     // CWHDataLocker ThreadLock(m_CriticalLocker);
; 753  :     // NTY_TimerEvent * pTimerEvent=(NTY_TimerEvent *)m_cbBuffer;
; 754  : 
; 755  :     // // 构造数据
; 756  :     // pTimerEvent->dwTimerID=dwTimerID;
; 757  :     // pTimerEvent->dwBindParameter=dwBindParameter;
; 758  : 
; 759  :     // // 投递请求
; 760  :     // m_AsynchronismEngine.PostAsynchronismData(EVENT_TIMER,m_cbBuffer,sizeof(NTY_TimerEvent));
; 761  : 
; 762  :     // return true;
; 763  :     return PostDataBaseRequest(wRequestID, dwContextID, pData, wDataSize);

  00007	0f b7 45 14	 movzx	 eax, WORD PTR _wDataSize$[ebp]
  0000b	50		 push	 eax
  0000c	8b 4d 10	 mov	 ecx, DWORD PTR _pData$[ebp]
  0000f	51		 push	 ecx
  00010	8b 55 0c	 mov	 edx, DWORD PTR _dwContextID$[ebp]
  00013	52		 push	 edx
  00014	0f b7 45 08	 movzx	 eax, WORD PTR _wRequestID$[ebp]
  00018	50		 push	 eax
  00019	8b 4d fc	 mov	 ecx, DWORD PTR _this$[ebp]
  0001c	8b 11		 mov	 edx, DWORD PTR [ecx]
  0001e	8b 4d fc	 mov	 ecx, DWORD PTR _this$[ebp]
  00021	8b 42 20	 mov	 eax, DWORD PTR [edx+32]
  00024	ff d0		 call	 eax

; 764  : }

  00026	8b e5		 mov	 esp, ebp
  00028	5d		 pop	 ebp
  00029	c2 10 00	 ret	 16			; 00000010H
?DeferDataBaseRequest@CDataBaseEngine@@UAE_NGKPAXG@Z ENDP ; CDataBaseEngine::DeferDataBaseRequest
_TEXT	ENDS
; Function compile flags: /Odtp
; File g:\网狐\happygamewh\服务端\系统模块\服务器组件\内核引擎\databaseengine.cpp
;	COMDAT ?PostDataBaseRequest@CDataBaseEngine@@UAE_NGKPAXG@Z
_TEXT	SEGMENT
_ThreadLock$ = -36					; size = 12
_pDataBaseEvent$ = -24					; size = 4
_this$ = -20						; size = 4
$T2 = -13						; size = 1
__$EHRec$ = -12						; size = 12
_wRequestID$ = 8					; size = 2
_dwContextID$ = 12					; size = 4
_pData$ = 16						; size = 4
_wDataSize$ = 20					; size = 2
?PostDataBaseRequest@CDataBaseEngine@@UAE_NGKPAXG@Z PROC ; CDataBaseEngine::PostDataBaseRequest, COMDAT
; _this$ = ecx

; 784  : {

  00000	55		 push	 ebp
  00001	8b ec		 mov	 ebp, esp
  00003	6a ff		 push	 -1
  00005	68 00 00 00 00	 push	 __ehhandler$?PostDataBaseRequest@CDataBaseEngine@@UAE_NGKPAXG@Z
  0000a	64 a1 00 00 00
	00		 mov	 eax, DWORD PTR fs:0
  00010	50		 push	 eax
  00011	83 ec 18	 sub	 esp, 24			; 00000018H
  00014	a1 00 00 00 00	 mov	 eax, DWORD PTR ___security_cookie
  00019	33 c5		 xor	 eax, ebp
  0001b	50		 push	 eax
  0001c	8d 45 f4	 lea	 eax, DWORD PTR __$EHRec$[ebp]
  0001f	64 a3 00 00 00
	00		 mov	 DWORD PTR fs:0, eax
  00025	89 4d ec	 mov	 DWORD PTR _this$[ebp], ecx

; 785  :     // 效验参数
; 786  :     ASSERT((wDataSize + sizeof(NTY_DataBaseEvent)) <= MAX_ASYNCHRONISM_DATA);

  00028	0f b7 45 14	 movzx	 eax, WORD PTR _wDataSize$[ebp]
  0002c	83 c0 08	 add	 eax, 8
  0002f	3d 00 40 00 00	 cmp	 eax, 16384		; 00004000H
  00034	76 14		 jbe	 SHORT $LN5@PostDataBa
  00036	68 12 03 00 00	 push	 786			; 00000312H
  0003b	68 00 00 00 00	 push	 OFFSET ??_C@_0EL@CJALAN@g?3?2?M?x?$LK?$PM?2happygamewh?2?$LH?$PO?N?q?$LG?K?2?O?$LF?M?$LD@
  00040	e8 00 00 00 00	 call	 ?AfxAssertFailedLine@@YGHPBDH@Z ; AfxAssertFailedLine
  00045	85 c0		 test	 eax, eax
  00047	74 01		 je	 SHORT $LN5@PostDataBa
  00049	cc		 int	 3
$LN5@PostDataBa:

; 787  :     if ((wDataSize + sizeof(NTY_DataBaseEvent)) > MAX_ASYNCHRONISM_DATA)

  0004a	0f b7 55 14	 movzx	 edx, WORD PTR _wDataSize$[ebp]
  0004e	83 c2 08	 add	 edx, 8
  00051	81 fa 00 40 00
	00		 cmp	 edx, 16384		; 00004000H
  00057	76 07		 jbe	 SHORT $LN2@PostDataBa

; 788  :         return false;

  00059	32 c0		 xor	 al, al
  0005b	e9 b0 00 00 00	 jmp	 $LN1@PostDataBa
$LN2@PostDataBa:

; 789  : 
; 790  :     // 缓冲锁定
; 791  :     CWHDataLocker ThreadLock(m_CriticalLocker);

  00060	6a 01		 push	 1
  00062	8b 45 ec	 mov	 eax, DWORD PTR _this$[ebp]
  00065	83 c0 08	 add	 eax, 8
  00068	50		 push	 eax
  00069	8d 4d dc	 lea	 ecx, DWORD PTR _ThreadLock$[ebp]
  0006c	ff 15 00 00 00
	00		 call	 DWORD PTR __imp_??0CWHDataLocker@@QAE@AAVCCriticalSection@@_N@Z
  00072	c7 45 fc 00 00
	00 00		 mov	 DWORD PTR __$EHRec$[ebp+8], 0

; 792  :     NTY_DataBaseEvent * pDataBaseEvent = (NTY_DataBaseEvent *)m_cbBuffer;

  00079	8b 4d ec	 mov	 ecx, DWORD PTR _this$[ebp]
  0007c	81 c1 9c 40 00
	00		 add	 ecx, 16540		; 0000409cH
  00082	89 4d e8	 mov	 DWORD PTR _pDataBaseEvent$[ebp], ecx

; 793  : 
; 794  :     // 构造数据
; 795  :     pDataBaseEvent->wRequestID = wRequestID;

  00085	8b 55 e8	 mov	 edx, DWORD PTR _pDataBaseEvent$[ebp]
  00088	66 8b 45 08	 mov	 ax, WORD PTR _wRequestID$[ebp]
  0008c	66 89 02	 mov	 WORD PTR [edx], ax

; 796  :     pDataBaseEvent->dwContextID = dwContextID;

  0008f	8b 4d e8	 mov	 ecx, DWORD PTR _pDataBaseEvent$[ebp]
  00092	8b 55 0c	 mov	 edx, DWORD PTR _dwContextID$[ebp]
  00095	89 51 04	 mov	 DWORD PTR [ecx+4], edx

; 797  : 
; 798  :     // 附加数据
; 799  :     if (wDataSize > 0)

  00098	0f b7 45 14	 movzx	 eax, WORD PTR _wDataSize$[ebp]
  0009c	85 c0		 test	 eax, eax
  0009e	7e 35		 jle	 SHORT $LN3@PostDataBa

; 800  :     {
; 801  :         ASSERT(pData != NULL);

  000a0	83 7d 10 00	 cmp	 DWORD PTR _pData$[ebp], 0
  000a4	75 14		 jne	 SHORT $LN6@PostDataBa
  000a6	68 21 03 00 00	 push	 801			; 00000321H
  000ab	68 00 00 00 00	 push	 OFFSET ??_C@_0EL@CJALAN@g?3?2?M?x?$LK?$PM?2happygamewh?2?$LH?$PO?N?q?$LG?K?2?O?$LF?M?$LD@
  000b0	e8 00 00 00 00	 call	 ?AfxAssertFailedLine@@YGHPBDH@Z ; AfxAssertFailedLine
  000b5	85 c0		 test	 eax, eax
  000b7	74 01		 je	 SHORT $LN6@PostDataBa
  000b9	cc		 int	 3
$LN6@PostDataBa:

; 802  :         CopyMemory(m_cbBuffer + sizeof(NTY_DataBaseEvent), pData, wDataSize);

  000ba	0f b7 55 14	 movzx	 edx, WORD PTR _wDataSize$[ebp]
  000be	52		 push	 edx
  000bf	8b 45 10	 mov	 eax, DWORD PTR _pData$[ebp]
  000c2	50		 push	 eax
  000c3	8b 4d ec	 mov	 ecx, DWORD PTR _this$[ebp]
  000c6	81 c1 a4 40 00
	00		 add	 ecx, 16548		; 000040a4H
  000cc	51		 push	 ecx
  000cd	e8 00 00 00 00	 call	 _memcpy
  000d2	83 c4 0c	 add	 esp, 12			; 0000000cH
$LN3@PostDataBa:

; 803  :     }
; 804  : 
; 805  :     // 投递请求
; 806  :     m_AsynchronismEngine.PostAsynchronismData(EVENT_DATABASE, m_cbBuffer, sizeof(NTY_DataBaseEvent) + wDataSize);

  000d5	0f b7 55 14	 movzx	 edx, WORD PTR _wDataSize$[ebp]
  000d9	83 c2 08	 add	 edx, 8
  000dc	52		 push	 edx
  000dd	8b 45 ec	 mov	 eax, DWORD PTR _this$[ebp]
  000e0	05 9c 40 00 00	 add	 eax, 16540		; 0000409cH
  000e5	50		 push	 eax
  000e6	6a 03		 push	 3
  000e8	8b 4d ec	 mov	 ecx, DWORD PTR _this$[ebp]
  000eb	83 c1 2c	 add	 ecx, 44			; 0000002cH
  000ee	8b 55 ec	 mov	 edx, DWORD PTR _this$[ebp]
  000f1	8b 42 2c	 mov	 eax, DWORD PTR [edx+44]
  000f4	8b 50 1c	 mov	 edx, DWORD PTR [eax+28]
  000f7	ff d2		 call	 edx

; 807  : 
; 808  :     return true;

  000f9	c6 45 f3 01	 mov	 BYTE PTR $T2[ebp], 1
  000fd	c7 45 fc ff ff
	ff ff		 mov	 DWORD PTR __$EHRec$[ebp+8], -1
  00104	8d 4d dc	 lea	 ecx, DWORD PTR _ThreadLock$[ebp]
  00107	ff 15 00 00 00
	00		 call	 DWORD PTR __imp_??1CWHDataLocker@@UAE@XZ
  0010d	8a 45 f3	 mov	 al, BYTE PTR $T2[ebp]
$LN1@PostDataBa:

; 809  : }

  00110	8b 4d f4	 mov	 ecx, DWORD PTR __$EHRec$[ebp]
  00113	64 89 0d 00 00
	00 00		 mov	 DWORD PTR fs:0, ecx
  0011a	59		 pop	 ecx
  0011b	8b e5		 mov	 esp, ebp
  0011d	5d		 pop	 ebp
  0011e	c2 10 00	 ret	 16			; 00000010H
_TEXT	ENDS
;	COMDAT text$x
text$x	SEGMENT
__unwindfunclet$?PostDataBaseRequest@CDataBaseEngine@@UAE_NGKPAXG@Z$0:
  00000	8d 4d dc	 lea	 ecx, DWORD PTR _ThreadLock$[ebp]
  00003	ff 25 00 00 00
	00		 jmp	 DWORD PTR __imp_??1CWHDataLocker@@UAE@XZ
__ehhandler$?PostDataBaseRequest@CDataBaseEngine@@UAE_NGKPAXG@Z:
  00009	8b 54 24 08	 mov	 edx, DWORD PTR [esp+8]
  0000d	8d 42 0c	 lea	 eax, DWORD PTR [edx+12]
  00010	8b 4a e4	 mov	 ecx, DWORD PTR [edx-28]
  00013	33 c8		 xor	 ecx, eax
  00015	e8 00 00 00 00	 call	 @__security_check_cookie@4
  0001a	b8 00 00 00 00	 mov	 eax, OFFSET __ehfuncinfo$?PostDataBaseRequest@CDataBaseEngine@@UAE_NGKPAXG@Z
  0001f	e9 00 00 00 00	 jmp	 ___CxxFrameHandler3
text$x	ENDS
?PostDataBaseRequest@CDataBaseEngine@@UAE_NGKPAXG@Z ENDP ; CDataBaseEngine::PostDataBaseRequest
; Function compile flags: /Odtp
; File g:\网狐\happygamewh\服务端\系统模块\服务器组件\内核引擎\databaseengine.cpp
;	COMDAT ?PostDataBaseControl@CDataBaseEngine@@UAE_NGPAXG@Z
_TEXT	SEGMENT
_ThreadLock$ = -36					; size = 12
_pControlEvent$ = -24					; size = 4
_this$ = -20						; size = 4
$T2 = -13						; size = 1
__$EHRec$ = -12						; size = 12
_wControlID$ = 8					; size = 2
_pData$ = 12						; size = 4
_wDataSize$ = 16					; size = 2
?PostDataBaseControl@CDataBaseEngine@@UAE_NGPAXG@Z PROC	; CDataBaseEngine::PostDataBaseControl, COMDAT
; _this$ = ecx

; 768  : {

  00000	55		 push	 ebp
  00001	8b ec		 mov	 ebp, esp
  00003	6a ff		 push	 -1
  00005	68 00 00 00 00	 push	 __ehhandler$?PostDataBaseControl@CDataBaseEngine@@UAE_NGPAXG@Z
  0000a	64 a1 00 00 00
	00		 mov	 eax, DWORD PTR fs:0
  00010	50		 push	 eax
  00011	83 ec 18	 sub	 esp, 24			; 00000018H
  00014	a1 00 00 00 00	 mov	 eax, DWORD PTR ___security_cookie
  00019	33 c5		 xor	 eax, ebp
  0001b	50		 push	 eax
  0001c	8d 45 f4	 lea	 eax, DWORD PTR __$EHRec$[ebp]
  0001f	64 a3 00 00 00
	00		 mov	 DWORD PTR fs:0, eax
  00025	89 4d ec	 mov	 DWORD PTR _this$[ebp], ecx

; 769  :     // 缓冲锁定
; 770  :     CWHDataLocker ThreadLock(m_CriticalLocker);

  00028	6a 01		 push	 1
  0002a	8b 45 ec	 mov	 eax, DWORD PTR _this$[ebp]
  0002d	83 c0 08	 add	 eax, 8
  00030	50		 push	 eax
  00031	8d 4d dc	 lea	 ecx, DWORD PTR _ThreadLock$[ebp]
  00034	ff 15 00 00 00
	00		 call	 DWORD PTR __imp_??0CWHDataLocker@@QAE@AAVCCriticalSection@@_N@Z
  0003a	c7 45 fc 00 00
	00 00		 mov	 DWORD PTR __$EHRec$[ebp+8], 0

; 771  :     NTY_ControlEvent * pControlEvent = (NTY_ControlEvent *)m_cbBuffer;

  00041	8b 4d ec	 mov	 ecx, DWORD PTR _this$[ebp]
  00044	81 c1 9c 40 00
	00		 add	 ecx, 16540		; 0000409cH
  0004a	89 4d e8	 mov	 DWORD PTR _pControlEvent$[ebp], ecx

; 772  : 
; 773  :     // 构造数据
; 774  :     pControlEvent->wControlID = wControlID;

  0004d	8b 55 e8	 mov	 edx, DWORD PTR _pControlEvent$[ebp]
  00050	66 8b 45 08	 mov	 ax, WORD PTR _wControlID$[ebp]
  00054	66 89 02	 mov	 WORD PTR [edx], ax

; 775  : 
; 776  :     // 投递请求
; 777  :     m_AsynchronismEngine.PostAsynchronismData(EVENT_CONTROL, m_cbBuffer, sizeof(NTY_ControlEvent));

  00057	6a 02		 push	 2
  00059	8b 4d ec	 mov	 ecx, DWORD PTR _this$[ebp]
  0005c	81 c1 9c 40 00
	00		 add	 ecx, 16540		; 0000409cH
  00062	51		 push	 ecx
  00063	6a 02		 push	 2
  00065	8b 4d ec	 mov	 ecx, DWORD PTR _this$[ebp]
  00068	83 c1 2c	 add	 ecx, 44			; 0000002cH
  0006b	8b 55 ec	 mov	 edx, DWORD PTR _this$[ebp]
  0006e	8b 42 2c	 mov	 eax, DWORD PTR [edx+44]
  00071	8b 50 1c	 mov	 edx, DWORD PTR [eax+28]
  00074	ff d2		 call	 edx

; 778  : 
; 779  :     return true;

  00076	c6 45 f3 01	 mov	 BYTE PTR $T2[ebp], 1
  0007a	c7 45 fc ff ff
	ff ff		 mov	 DWORD PTR __$EHRec$[ebp+8], -1
  00081	8d 4d dc	 lea	 ecx, DWORD PTR _ThreadLock$[ebp]
  00084	ff 15 00 00 00
	00		 call	 DWORD PTR __imp_??1CWHDataLocker@@UAE@XZ
  0008a	8a 45 f3	 mov	 al, BYTE PTR $T2[ebp]

; 780  : }

  0008d	8b 4d f4	 mov	 ecx, DWORD PTR __$EHRec$[ebp]
  00090	64 89 0d 00 00
	00 00		 mov	 DWORD PTR fs:0, ecx
  00097	59		 pop	 ecx
  00098	8b e5		 mov	 esp, ebp
  0009a	5d		 pop	 ebp
  0009b	c2 0c 00	 ret	 12			; 0000000cH
_TEXT	ENDS
;	COMDAT text$x
text$x	SEGMENT
__unwindfunclet$?PostDataBaseControl@CDataBaseEngine@@UAE_NGPAXG@Z$0:
  00000	8d 4d dc	 lea	 ecx, DWORD PTR _ThreadLock$[ebp]
  00003	ff 25 00 00 00
	00		 jmp	 DWORD PTR __imp_??1CWHDataLocker@@UAE@XZ
__ehhandler$?PostDataBaseControl@CDataBaseEngine@@UAE_NGPAXG@Z:
  00009	8b 54 24 08	 mov	 edx, DWORD PTR [esp+8]
  0000d	8d 42 0c	 lea	 eax, DWORD PTR [edx+12]
  00010	8b 4a e4	 mov	 ecx, DWORD PTR [edx-28]
  00013	33 c8		 xor	 ecx, eax
  00015	e8 00 00 00 00	 call	 @__security_check_cookie@4
  0001a	b8 00 00 00 00	 mov	 eax, OFFSET __ehfuncinfo$?PostDataBaseControl@CDataBaseEngine@@UAE_NGPAXG@Z
  0001f	e9 00 00 00 00	 jmp	 ___CxxFrameHandler3
text$x	ENDS
?PostDataBaseControl@CDataBaseEngine@@UAE_NGPAXG@Z ENDP	; CDataBaseEngine::PostDataBaseControl
; Function compile flags: /Odtp
; File g:\网狐\happygamewh\服务端\系统模块\服务器组件\内核引擎\databaseengine.cpp
;	COMDAT ?SetDataBaseEngineSink@CDataBaseEngine@@UAE_NQAPAUIUnknownEx@@G@Z
_TEXT	SEGMENT
_this$ = -8						; size = 4
tv128 = -4						; size = 4
_pIUnknownEx$ = 8					; size = 4
_wSinkCount$ = 12					; size = 2
?SetDataBaseEngineSink@CDataBaseEngine@@UAE_NQAPAUIUnknownEx@@G@Z PROC ; CDataBaseEngine::SetDataBaseEngineSink, COMDAT
; _this$ = ecx

; 723  : {

  00000	55		 push	 ebp
  00001	8b ec		 mov	 ebp, esp
  00003	83 ec 08	 sub	 esp, 8
  00006	56		 push	 esi
  00007	89 4d f8	 mov	 DWORD PTR _this$[ebp], ecx

; 724  :     //  暂时性处理
; 725  : 
; 726  :     // 效验参数
; 727  :     ASSERT(pIUnknownEx != NULL);

  0000a	83 7d 08 00	 cmp	 DWORD PTR _pIUnknownEx$[ebp], 0
  0000e	75 14		 jne	 SHORT $LN6@SetDataBas
  00010	68 d7 02 00 00	 push	 727			; 000002d7H
  00015	68 00 00 00 00	 push	 OFFSET ??_C@_0EL@CJALAN@g?3?2?M?x?$LK?$PM?2happygamewh?2?$LH?$PO?N?q?$LG?K?2?O?$LF?M?$LD@
  0001a	e8 00 00 00 00	 call	 ?AfxAssertFailedLine@@YGHPBDH@Z ; AfxAssertFailedLine
  0001f	85 c0		 test	 eax, eax
  00021	74 01		 je	 SHORT $LN6@SetDataBas
  00023	cc		 int	 3
$LN6@SetDataBas:

; 728  :     if (pIUnknownEx == NULL)

  00024	83 7d 08 00	 cmp	 DWORD PTR _pIUnknownEx$[ebp], 0
  00028	75 07		 jne	 SHORT $LN2@SetDataBas

; 729  :         return false;

  0002a	32 c0		 xor	 al, al
  0002c	e9 ab 00 00 00	 jmp	 $LN1@SetDataBas
$LN2@SetDataBas:

; 730  : 
; 731  :     ASSERT(wSinkCount > 0);

  00031	0f b7 4d 0c	 movzx	 ecx, WORD PTR _wSinkCount$[ebp]
  00035	85 c9		 test	 ecx, ecx
  00037	7f 14		 jg	 SHORT $LN7@SetDataBas
  00039	68 db 02 00 00	 push	 731			; 000002dbH
  0003e	68 00 00 00 00	 push	 OFFSET ??_C@_0EL@CJALAN@g?3?2?M?x?$LK?$PM?2happygamewh?2?$LH?$PO?N?q?$LG?K?2?O?$LF?M?$LD@
  00043	e8 00 00 00 00	 call	 ?AfxAssertFailedLine@@YGHPBDH@Z ; AfxAssertFailedLine
  00048	85 c0		 test	 eax, eax
  0004a	74 01		 je	 SHORT $LN7@SetDataBas
  0004c	cc		 int	 3
$LN7@SetDataBas:

; 732  :     if (wSinkCount == 0)

  0004d	0f b7 45 0c	 movzx	 eax, WORD PTR _wSinkCount$[ebp]
  00051	85 c0		 test	 eax, eax
  00053	75 07		 jne	 SHORT $LN3@SetDataBas

; 733  :         return false;

  00055	32 c0		 xor	 al, al
  00057	e9 80 00 00 00	 jmp	 $LN1@SetDataBas
$LN3@SetDataBas:

; 734  : 
; 735  :     // 查询接口
; 736  :     m_pIDataBaseEngineSink = QUERY_OBJECT_PTR_INTERFACE(pIUnknownEx[0], IDataBaseEngineSink);

  0005c	b9 04 00 00 00	 mov	 ecx, 4
  00061	6b d1 00	 imul	 edx, ecx, 0
  00064	8b 45 08	 mov	 eax, DWORD PTR _pIUnknownEx$[ebp]
  00067	83 3c 10 00	 cmp	 DWORD PTR [eax+edx], 0
  0006b	75 09		 jne	 SHORT $LN8@SetDataBas
  0006d	c7 45 fc 00 00
	00 00		 mov	 DWORD PTR tv128[ebp], 0
  00074	eb 30		 jmp	 SHORT $LN9@SetDataBas
$LN8@SetDataBas:
  00076	68 00 01 01 06	 push	 100729088		; 06010100H
  0007b	68 00 00 00 00	 push	 OFFSET ?IID_IDataBaseEngineSink@@3U_GUID@@B
  00080	b9 04 00 00 00	 mov	 ecx, 4
  00085	6b d1 00	 imul	 edx, ecx, 0
  00088	8b 45 08	 mov	 eax, DWORD PTR _pIUnknownEx$[ebp]
  0008b	8b 0c 10	 mov	 ecx, DWORD PTR [eax+edx]
  0008e	ba 04 00 00 00	 mov	 edx, 4
  00093	6b c2 00	 imul	 eax, edx, 0
  00096	8b 55 08	 mov	 edx, DWORD PTR _pIUnknownEx$[ebp]
  00099	8b 31		 mov	 esi, DWORD PTR [ecx]
  0009b	8b 0c 02	 mov	 ecx, DWORD PTR [edx+eax]
  0009e	8b 46 04	 mov	 eax, DWORD PTR [esi+4]
  000a1	ff d0		 call	 eax
  000a3	89 45 fc	 mov	 DWORD PTR tv128[ebp], eax
$LN9@SetDataBas:
  000a6	8b 4d f8	 mov	 ecx, DWORD PTR _this$[ebp]
  000a9	8b 55 fc	 mov	 edx, DWORD PTR tv128[ebp]
  000ac	89 91 98 40 00
	00		 mov	 DWORD PTR [ecx+16536], edx

; 737  :     if (m_pIDataBaseEngineSink == NULL)

  000b2	8b 45 f8	 mov	 eax, DWORD PTR _this$[ebp]
  000b5	83 b8 98 40 00
	00 00		 cmp	 DWORD PTR [eax+16536], 0
  000bc	75 1c		 jne	 SHORT $LN4@SetDataBas

; 738  :     {
; 739  :         ASSERT(FALSE);

  000be	33 c9		 xor	 ecx, ecx
  000c0	75 14		 jne	 SHORT $LN10@SetDataBas
  000c2	68 e3 02 00 00	 push	 739			; 000002e3H
  000c7	68 00 00 00 00	 push	 OFFSET ??_C@_0EL@CJALAN@g?3?2?M?x?$LK?$PM?2happygamewh?2?$LH?$PO?N?q?$LG?K?2?O?$LF?M?$LD@
  000cc	e8 00 00 00 00	 call	 ?AfxAssertFailedLine@@YGHPBDH@Z ; AfxAssertFailedLine
  000d1	85 c0		 test	 eax, eax
  000d3	74 01		 je	 SHORT $LN10@SetDataBas
  000d5	cc		 int	 3
$LN10@SetDataBas:

; 740  :         return false;

  000d6	32 c0		 xor	 al, al
  000d8	eb 02		 jmp	 SHORT $LN1@SetDataBas
$LN4@SetDataBas:

; 741  :     }
; 742  : 
; 743  :     return true;

  000da	b0 01		 mov	 al, 1
$LN1@SetDataBas:

; 744  : }

  000dc	5e		 pop	 esi
  000dd	8b e5		 mov	 esp, ebp
  000df	5d		 pop	 ebp
  000e0	c2 08 00	 ret	 8
?SetDataBaseEngineSink@CDataBaseEngine@@UAE_NQAPAUIUnknownEx@@G@Z ENDP ; CDataBaseEngine::SetDataBaseEngineSink
_TEXT	ENDS
; Function compile flags: /Odtp
; File g:\网狐\happygamewh\服务端\系统模块\服务器组件\内核引擎\databaseengine.cpp
;	COMDAT ?SetDataBaseEngineSink@CDataBaseEngine@@UAE_NPAUIUnknownEx@@@Z
_TEXT	SEGMENT
_this$ = -12						; size = 4
tv86 = -8						; size = 4
tv71 = -4						; size = 4
_pIUnknownEx$ = 8					; size = 4
?SetDataBaseEngineSink@CDataBaseEngine@@UAE_NPAUIUnknownEx@@@Z PROC ; CDataBaseEngine::SetDataBaseEngineSink, COMDAT
; _this$ = ecx

; 706  : {

  00000	55		 push	 ebp
  00001	8b ec		 mov	 ebp, esp
  00003	83 ec 0c	 sub	 esp, 12			; 0000000cH
  00006	89 4d f4	 mov	 DWORD PTR _this$[ebp], ecx

; 707  :     // 查询接口
; 708  :     ASSERT(QUERY_OBJECT_PTR_INTERFACE(pIUnknownEx, IDataBaseEngineSink) != NULL);

  00009	83 7d 08 00	 cmp	 DWORD PTR _pIUnknownEx$[ebp], 0
  0000d	75 09		 jne	 SHORT $LN4@SetDataBas
  0000f	c7 45 fc 00 00
	00 00		 mov	 DWORD PTR tv71[ebp], 0
  00016	eb 1a		 jmp	 SHORT $LN5@SetDataBas
$LN4@SetDataBas:
  00018	68 00 01 01 06	 push	 100729088		; 06010100H
  0001d	68 00 00 00 00	 push	 OFFSET ?IID_IDataBaseEngineSink@@3U_GUID@@B
  00022	8b 45 08	 mov	 eax, DWORD PTR _pIUnknownEx$[ebp]
  00025	8b 10		 mov	 edx, DWORD PTR [eax]
  00027	8b 4d 08	 mov	 ecx, DWORD PTR _pIUnknownEx$[ebp]
  0002a	8b 42 04	 mov	 eax, DWORD PTR [edx+4]
  0002d	ff d0		 call	 eax
  0002f	89 45 fc	 mov	 DWORD PTR tv71[ebp], eax
$LN5@SetDataBas:
  00032	83 7d fc 00	 cmp	 DWORD PTR tv71[ebp], 0
  00036	75 14		 jne	 SHORT $LN6@SetDataBas
  00038	68 c4 02 00 00	 push	 708			; 000002c4H
  0003d	68 00 00 00 00	 push	 OFFSET ??_C@_0EL@CJALAN@g?3?2?M?x?$LK?$PM?2happygamewh?2?$LH?$PO?N?q?$LG?K?2?O?$LF?M?$LD@
  00042	e8 00 00 00 00	 call	 ?AfxAssertFailedLine@@YGHPBDH@Z ; AfxAssertFailedLine
  00047	85 c0		 test	 eax, eax
  00049	74 01		 je	 SHORT $LN6@SetDataBas
  0004b	cc		 int	 3
$LN6@SetDataBas:

; 709  :     m_pIDataBaseEngineSink = QUERY_OBJECT_PTR_INTERFACE(pIUnknownEx, IDataBaseEngineSink);

  0004c	83 7d 08 00	 cmp	 DWORD PTR _pIUnknownEx$[ebp], 0
  00050	75 09		 jne	 SHORT $LN7@SetDataBas
  00052	c7 45 f8 00 00
	00 00		 mov	 DWORD PTR tv86[ebp], 0
  00059	eb 1a		 jmp	 SHORT $LN8@SetDataBas
$LN7@SetDataBas:
  0005b	68 00 01 01 06	 push	 100729088		; 06010100H
  00060	68 00 00 00 00	 push	 OFFSET ?IID_IDataBaseEngineSink@@3U_GUID@@B
  00065	8b 55 08	 mov	 edx, DWORD PTR _pIUnknownEx$[ebp]
  00068	8b 02		 mov	 eax, DWORD PTR [edx]
  0006a	8b 4d 08	 mov	 ecx, DWORD PTR _pIUnknownEx$[ebp]
  0006d	8b 50 04	 mov	 edx, DWORD PTR [eax+4]
  00070	ff d2		 call	 edx
  00072	89 45 f8	 mov	 DWORD PTR tv86[ebp], eax
$LN8@SetDataBas:
  00075	8b 45 f4	 mov	 eax, DWORD PTR _this$[ebp]
  00078	8b 4d f8	 mov	 ecx, DWORD PTR tv86[ebp]
  0007b	89 88 98 40 00
	00		 mov	 DWORD PTR [eax+16536], ecx

; 710  : 
; 711  :     // 结果判断
; 712  :     if (m_pIDataBaseEngineSink == NULL)

  00081	8b 55 f4	 mov	 edx, DWORD PTR _this$[ebp]
  00084	83 ba 98 40 00
	00 00		 cmp	 DWORD PTR [edx+16536], 0
  0008b	75 1c		 jne	 SHORT $LN2@SetDataBas

; 713  :     {
; 714  :         ASSERT(FALSE);

  0008d	33 c0		 xor	 eax, eax
  0008f	75 14		 jne	 SHORT $LN9@SetDataBas
  00091	68 ca 02 00 00	 push	 714			; 000002caH
  00096	68 00 00 00 00	 push	 OFFSET ??_C@_0EL@CJALAN@g?3?2?M?x?$LK?$PM?2happygamewh?2?$LH?$PO?N?q?$LG?K?2?O?$LF?M?$LD@
  0009b	e8 00 00 00 00	 call	 ?AfxAssertFailedLine@@YGHPBDH@Z ; AfxAssertFailedLine
  000a0	85 c0		 test	 eax, eax
  000a2	74 01		 je	 SHORT $LN9@SetDataBas
  000a4	cc		 int	 3
$LN9@SetDataBas:

; 715  :         return false;

  000a5	32 c0		 xor	 al, al
  000a7	eb 02		 jmp	 SHORT $LN1@SetDataBas
$LN2@SetDataBas:

; 716  :     }
; 717  : 
; 718  :     return true;

  000a9	b0 01		 mov	 al, 1
$LN1@SetDataBas:

; 719  : }

  000ab	8b e5		 mov	 esp, ebp
  000ad	5d		 pop	 ebp
  000ae	c2 04 00	 ret	 4
?SetDataBaseEngineSink@CDataBaseEngine@@UAE_NPAUIUnknownEx@@@Z ENDP ; CDataBaseEngine::SetDataBaseEngineSink
_TEXT	ENDS
; Function compile flags: /Odtp
; File g:\网狐\happygamewh\服务端\系统模块\服务器组件\内核引擎\databaseengine.cpp
;	COMDAT ?GetBurthenInfo@CDataBaseEngine@@UAE_NAAUtagBurthenInfo@@@Z
_TEXT	SEGMENT
_this$ = -4						; size = 4
_BurthenInfo$ = 8					; size = 4
?GetBurthenInfo@CDataBaseEngine@@UAE_NAAUtagBurthenInfo@@@Z PROC ; CDataBaseEngine::GetBurthenInfo, COMDAT
; _this$ = ecx

; 699  : {

  00000	55		 push	 ebp
  00001	8b ec		 mov	 ebp, esp
  00003	51		 push	 ecx
  00004	89 4d fc	 mov	 DWORD PTR _this$[ebp], ecx

; 700  :     AfxMessageBox(TEXT("没有实现CDataBaseEngine::GetBurthenInfo"));

  00007	6a 00		 push	 0
  00009	6a 00		 push	 0
  0000b	68 00 00 00 00	 push	 OFFSET ??_C@_0CI@PJBLFBKN@?C?$LL?S?P?J?$LF?O?VCDataBaseEngine?3?3GetBur@
  00010	e8 00 00 00 00	 call	 ?AfxMessageBox@@YGHPBDII@Z ; AfxMessageBox

; 701  :     return true;

  00015	b0 01		 mov	 al, 1

; 702  : }

  00017	8b e5		 mov	 esp, ebp
  00019	5d		 pop	 ebp
  0001a	c2 04 00	 ret	 4
?GetBurthenInfo@CDataBaseEngine@@UAE_NAAUtagBurthenInfo@@@Z ENDP ; CDataBaseEngine::GetBurthenInfo
_TEXT	ENDS
; Function compile flags: /Odtp
; File g:\网狐\happygamewh\服务端\系统模块\服务器组件\内核引擎\databaseengine.cpp
;	COMDAT ?ConcludeService@CDataBaseEngine@@UAE_NXZ
_TEXT	SEGMENT
_this$ = -4						; size = 4
?ConcludeService@CDataBaseEngine@@UAE_NXZ PROC		; CDataBaseEngine::ConcludeService, COMDAT
; _this$ = ecx

; 690  : {

  00000	55		 push	 ebp
  00001	8b ec		 mov	 ebp, esp
  00003	51		 push	 ecx
  00004	89 4d fc	 mov	 DWORD PTR _this$[ebp], ecx

; 691  :     // 异步引擎
; 692  :     m_AsynchronismEngine.ConcludeService();

  00007	8b 4d fc	 mov	 ecx, DWORD PTR _this$[ebp]
  0000a	83 c1 2c	 add	 ecx, 44			; 0000002cH
  0000d	8b 45 fc	 mov	 eax, DWORD PTR _this$[ebp]
  00010	8b 50 2c	 mov	 edx, DWORD PTR [eax+44]
  00013	8b 42 0c	 mov	 eax, DWORD PTR [edx+12]
  00016	ff d0		 call	 eax

; 693  : 
; 694  :     return true;

  00018	b0 01		 mov	 al, 1

; 695  : }

  0001a	8b e5		 mov	 esp, ebp
  0001c	5d		 pop	 ebp
  0001d	c3		 ret	 0
?ConcludeService@CDataBaseEngine@@UAE_NXZ ENDP		; CDataBaseEngine::ConcludeService
_TEXT	ENDS
; Function compile flags: /Odtp
; File g:\网狐\happygamewh\服务端\系统模块\服务器组件\内核引擎\databaseengine.cpp
;	COMDAT ?StartService@CDataBaseEngine@@UAE_NXZ
_TEXT	SEGMENT
_pIAsynchronismEngineSink$ = -8				; size = 4
_this$ = -4						; size = 4
?StartService@CDataBaseEngine@@UAE_NXZ PROC		; CDataBaseEngine::StartService, COMDAT
; _this$ = ecx

; 669  : {

  00000	55		 push	 ebp
  00001	8b ec		 mov	 ebp, esp
  00003	83 ec 08	 sub	 esp, 8
  00006	89 4d fc	 mov	 DWORD PTR _this$[ebp], ecx

; 670  :     // 注册对象
; 671  :     IUnknownEx * pIAsynchronismEngineSink = QUERY_ME_INTERFACE(IUnknownEx);

  00009	68 00 01 01 06	 push	 100729088		; 06010100H
  0000e	68 00 00 00 00	 push	 OFFSET ?IID_IUnknownEx@@3U_GUID@@B
  00013	8b 45 fc	 mov	 eax, DWORD PTR _this$[ebp]
  00016	8b 10		 mov	 edx, DWORD PTR [eax]
  00018	8b 4d fc	 mov	 ecx, DWORD PTR _this$[ebp]
  0001b	8b 42 04	 mov	 eax, DWORD PTR [edx+4]
  0001e	ff d0		 call	 eax
  00020	89 45 f8	 mov	 DWORD PTR _pIAsynchronismEngineSink$[ebp], eax

; 672  :     if (m_AsynchronismEngine.SetAsynchronismSink(pIAsynchronismEngineSink) == false)

  00023	8b 4d f8	 mov	 ecx, DWORD PTR _pIAsynchronismEngineSink$[ebp]
  00026	51		 push	 ecx
  00027	8b 4d fc	 mov	 ecx, DWORD PTR _this$[ebp]
  0002a	83 c1 2c	 add	 ecx, 44			; 0000002cH
  0002d	8b 55 fc	 mov	 edx, DWORD PTR _this$[ebp]
  00030	8b 42 2c	 mov	 eax, DWORD PTR [edx+44]
  00033	8b 50 14	 mov	 edx, DWORD PTR [eax+20]
  00036	ff d2		 call	 edx
  00038	0f b6 c0	 movzx	 eax, al
  0003b	85 c0		 test	 eax, eax
  0003d	75 1c		 jne	 SHORT $LN2@StartServi

; 673  :     {
; 674  :         ASSERT(FALSE);

  0003f	33 c9		 xor	 ecx, ecx
  00041	75 14		 jne	 SHORT $LN5@StartServi
  00043	68 a2 02 00 00	 push	 674			; 000002a2H
  00048	68 00 00 00 00	 push	 OFFSET ??_C@_0EL@CJALAN@g?3?2?M?x?$LK?$PM?2happygamewh?2?$LH?$PO?N?q?$LG?K?2?O?$LF?M?$LD@
  0004d	e8 00 00 00 00	 call	 ?AfxAssertFailedLine@@YGHPBDH@Z ; AfxAssertFailedLine
  00052	85 c0		 test	 eax, eax
  00054	74 01		 je	 SHORT $LN5@StartServi
  00056	cc		 int	 3
$LN5@StartServi:

; 675  :         return false;

  00057	32 c0		 xor	 al, al
  00059	eb 36		 jmp	 SHORT $LN1@StartServi
$LN2@StartServi:

; 676  :     }
; 677  : 
; 678  :     // 异步引擎
; 679  :     if (m_AsynchronismEngine.StartService() == false)

  0005b	8b 4d fc	 mov	 ecx, DWORD PTR _this$[ebp]
  0005e	83 c1 2c	 add	 ecx, 44			; 0000002cH
  00061	8b 45 fc	 mov	 eax, DWORD PTR _this$[ebp]
  00064	8b 50 2c	 mov	 edx, DWORD PTR [eax+44]
  00067	8b 42 08	 mov	 eax, DWORD PTR [edx+8]
  0006a	ff d0		 call	 eax
  0006c	0f b6 c8	 movzx	 ecx, al
  0006f	85 c9		 test	 ecx, ecx
  00071	75 1c		 jne	 SHORT $LN3@StartServi

; 680  :     {
; 681  :         ASSERT(FALSE);

  00073	33 d2		 xor	 edx, edx
  00075	75 14		 jne	 SHORT $LN6@StartServi
  00077	68 a9 02 00 00	 push	 681			; 000002a9H
  0007c	68 00 00 00 00	 push	 OFFSET ??_C@_0EL@CJALAN@g?3?2?M?x?$LK?$PM?2happygamewh?2?$LH?$PO?N?q?$LG?K?2?O?$LF?M?$LD@
  00081	e8 00 00 00 00	 call	 ?AfxAssertFailedLine@@YGHPBDH@Z ; AfxAssertFailedLine
  00086	85 c0		 test	 eax, eax
  00088	74 01		 je	 SHORT $LN6@StartServi
  0008a	cc		 int	 3
$LN6@StartServi:

; 682  :         return false;

  0008b	32 c0		 xor	 al, al
  0008d	eb 02		 jmp	 SHORT $LN1@StartServi
$LN3@StartServi:

; 683  :     }
; 684  : 
; 685  :     return true;

  0008f	b0 01		 mov	 al, 1
$LN1@StartServi:

; 686  : }

  00091	8b e5		 mov	 esp, ebp
  00093	5d		 pop	 ebp
  00094	c3		 ret	 0
?StartService@CDataBaseEngine@@UAE_NXZ ENDP		; CDataBaseEngine::StartService
_TEXT	ENDS
; Function compile flags: /Odtp
; File g:\网狐\happygamewh\服务端\系统模块\服务器组件\内核引擎\databaseengine.cpp
; File c:\program files (x86)\windows kits\10\include\10.0.17763.0\shared\guiddef.h
; File g:\网狐\happygamewh\服务端\系统模块\服务器组件\内核引擎\databaseengine.cpp
; File c:\program files (x86)\windows kits\10\include\10.0.17763.0\shared\guiddef.h
; File g:\网狐\happygamewh\服务端\系统模块\服务器组件\内核引擎\databaseengine.cpp
; File c:\program files (x86)\windows kits\10\include\10.0.17763.0\shared\guiddef.h
; File g:\网狐\happygamewh\服务端\系统模块\服务器组件\内核引擎\databaseengine.cpp
; File c:\program files (x86)\windows kits\10\include\10.0.17763.0\shared\guiddef.h
; File g:\网狐\happygamewh\服务端\系统模块\服务器组件\内核引擎\databaseengine.cpp
;	COMDAT ?QueryInterface@CDataBaseEngine@@UAEPAXABU_GUID@@K@Z
_TEXT	SEGMENT
tv235 = -56						; size = 4
tv218 = -52						; size = 4
tv201 = -48						; size = 4
tv168 = -44						; size = 4
tv223 = -40						; size = 4
tv234 = -36						; size = 4
tv138 = -32						; size = 4
tv206 = -28						; size = 4
tv217 = -24						; size = 4
tv189 = -20						; size = 4
tv200 = -16						; size = 4
tv162 = -12						; size = 4
tv170 = -8						; size = 4
_this$ = -4						; size = 4
_Guid$ = 8						; size = 4
_dwQueryVer$ = 12					; size = 4
?QueryInterface@CDataBaseEngine@@UAEPAXABU_GUID@@K@Z PROC ; CDataBaseEngine::QueryInterface, COMDAT
; _this$ = ecx

; 659  : {

  00000	55		 push	 ebp
  00001	8b ec		 mov	 ebp, esp
  00003	83 ec 38	 sub	 esp, 56			; 00000038H
  00006	89 4d fc	 mov	 DWORD PTR _this$[ebp], ecx
; File c:\program files (x86)\windows kits\10\include\10.0.17763.0\shared\guiddef.h

; 161  :     return !memcmp(&rguid1, &rguid2, sizeof(GUID));

  00009	6a 10		 push	 16			; 00000010H
  0000b	68 00 00 00 00	 push	 OFFSET ?IID_IServiceModule@@3U_GUID@@B
  00010	8b 45 08	 mov	 eax, DWORD PTR _Guid$[ebp]
  00013	50		 push	 eax
  00014	e8 00 00 00 00	 call	 _memcmp
  00019	83 c4 0c	 add	 esp, 12			; 0000000cH
  0001c	89 45 d4	 mov	 DWORD PTR tv168[ebp], eax
  0001f	83 7d d4 00	 cmp	 DWORD PTR tv168[ebp], 0
  00023	75 09		 jne	 SHORT $LN15@QueryInter
  00025	c7 45 f8 01 00
	00 00		 mov	 DWORD PTR tv170[ebp], 1
  0002c	eb 07		 jmp	 SHORT $LN13@QueryInter
$LN15@QueryInter:
  0002e	c7 45 f8 00 00
	00 00		 mov	 DWORD PTR tv170[ebp], 0
$LN13@QueryInter:

; 194  :     return !!IsEqualGUID(guidOne,guidOther);

  00035	83 7d f8 00	 cmp	 DWORD PTR tv170[ebp], 0
  00039	74 09		 je	 SHORT $LN11@QueryInter
  0003b	c7 45 f4 01 00
	00 00		 mov	 DWORD PTR tv162[ebp], 1
  00042	eb 07		 jmp	 SHORT $LN9@QueryInter
$LN11@QueryInter:
  00044	c7 45 f4 00 00
	00 00		 mov	 DWORD PTR tv162[ebp], 0
$LN9@QueryInter:
; File g:\网狐\happygamewh\服务端\系统模块\服务器组件\内核引擎\databaseengine.cpp

; 660  :     QUERYINTERFACE(IServiceModule, Guid, dwQueryVer);

  0004b	0f b6 4d f4	 movzx	 ecx, BYTE PTR tv162[ebp]
  0004f	85 c9		 test	 ecx, ecx
  00051	74 20		 je	 SHORT $LN2@QueryInter
  00053	68 00 01 01 06	 push	 100729088		; 06010100H
  00058	8b 55 0c	 mov	 edx, DWORD PTR _dwQueryVer$[ebp]
  0005b	52		 push	 edx
  0005c	e8 00 00 00 00	 call	 ?InterfaceVersionCompare@@YA_NKK@Z ; InterfaceVersionCompare
  00061	83 c4 08	 add	 esp, 8
  00064	0f b6 c0	 movzx	 eax, al
  00067	85 c0		 test	 eax, eax
  00069	74 08		 je	 SHORT $LN2@QueryInter
  0006b	8b 45 fc	 mov	 eax, DWORD PTR _this$[ebp]
  0006e	e9 52 01 00 00	 jmp	 $LN1@QueryInter
$LN2@QueryInter:
; File c:\program files (x86)\windows kits\10\include\10.0.17763.0\shared\guiddef.h

; 161  :     return !memcmp(&rguid1, &rguid2, sizeof(GUID));

  00073	6a 10		 push	 16			; 00000010H
  00075	68 00 00 00 00	 push	 OFFSET ?IID_IDataBaseEngine@@3U_GUID@@B
  0007a	8b 4d 08	 mov	 ecx, DWORD PTR _Guid$[ebp]
  0007d	51		 push	 ecx
  0007e	e8 00 00 00 00	 call	 _memcmp
  00083	83 c4 0c	 add	 esp, 12			; 0000000cH
  00086	89 45 d0	 mov	 DWORD PTR tv201[ebp], eax
  00089	83 7d d0 00	 cmp	 DWORD PTR tv201[ebp], 0
  0008d	75 09		 jne	 SHORT $LN45@QueryInter
  0008f	c7 45 f0 01 00
	00 00		 mov	 DWORD PTR tv200[ebp], 1
  00096	eb 07		 jmp	 SHORT $LN43@QueryInter
$LN45@QueryInter:
  00098	c7 45 f0 00 00
	00 00		 mov	 DWORD PTR tv200[ebp], 0
$LN43@QueryInter:

; 194  :     return !!IsEqualGUID(guidOne,guidOther);

  0009f	83 7d f0 00	 cmp	 DWORD PTR tv200[ebp], 0
  000a3	74 09		 je	 SHORT $LN41@QueryInter
  000a5	c7 45 ec 01 00
	00 00		 mov	 DWORD PTR tv189[ebp], 1
  000ac	eb 07		 jmp	 SHORT $LN39@QueryInter
$LN41@QueryInter:
  000ae	c7 45 ec 00 00
	00 00		 mov	 DWORD PTR tv189[ebp], 0
$LN39@QueryInter:
; File g:\网狐\happygamewh\服务端\系统模块\服务器组件\内核引擎\databaseengine.cpp

; 661  :     QUERYINTERFACE(IDataBaseEngine, Guid, dwQueryVer);

  000b5	0f b6 55 ec	 movzx	 edx, BYTE PTR tv189[ebp]
  000b9	85 d2		 test	 edx, edx
  000bb	74 20		 je	 SHORT $LN3@QueryInter
  000bd	68 00 01 01 06	 push	 100729088		; 06010100H
  000c2	8b 45 0c	 mov	 eax, DWORD PTR _dwQueryVer$[ebp]
  000c5	50		 push	 eax
  000c6	e8 00 00 00 00	 call	 ?InterfaceVersionCompare@@YA_NKK@Z ; InterfaceVersionCompare
  000cb	83 c4 08	 add	 esp, 8
  000ce	0f b6 c8	 movzx	 ecx, al
  000d1	85 c9		 test	 ecx, ecx
  000d3	74 08		 je	 SHORT $LN3@QueryInter
  000d5	8b 45 fc	 mov	 eax, DWORD PTR _this$[ebp]
  000d8	e9 e8 00 00 00	 jmp	 $LN1@QueryInter
$LN3@QueryInter:
; File c:\program files (x86)\windows kits\10\include\10.0.17763.0\shared\guiddef.h

; 161  :     return !memcmp(&rguid1, &rguid2, sizeof(GUID));

  000dd	6a 10		 push	 16			; 00000010H
  000df	68 00 00 00 00	 push	 OFFSET ?IID_IAsynchronismEngineSink@@3U_GUID@@B
  000e4	8b 55 08	 mov	 edx, DWORD PTR _Guid$[ebp]
  000e7	52		 push	 edx
  000e8	e8 00 00 00 00	 call	 _memcmp
  000ed	83 c4 0c	 add	 esp, 12			; 0000000cH
  000f0	89 45 cc	 mov	 DWORD PTR tv218[ebp], eax
  000f3	83 7d cc 00	 cmp	 DWORD PTR tv218[ebp], 0
  000f7	75 09		 jne	 SHORT $LN75@QueryInter
  000f9	c7 45 e8 01 00
	00 00		 mov	 DWORD PTR tv217[ebp], 1
  00100	eb 07		 jmp	 SHORT $LN73@QueryInter
$LN75@QueryInter:
  00102	c7 45 e8 00 00
	00 00		 mov	 DWORD PTR tv217[ebp], 0
$LN73@QueryInter:

; 194  :     return !!IsEqualGUID(guidOne,guidOther);

  00109	83 7d e8 00	 cmp	 DWORD PTR tv217[ebp], 0
  0010d	74 09		 je	 SHORT $LN71@QueryInter
  0010f	c7 45 e4 01 00
	00 00		 mov	 DWORD PTR tv206[ebp], 1
  00116	eb 07		 jmp	 SHORT $LN69@QueryInter
$LN71@QueryInter:
  00118	c7 45 e4 00 00
	00 00		 mov	 DWORD PTR tv206[ebp], 0
$LN69@QueryInter:
; File g:\网狐\happygamewh\服务端\系统模块\服务器组件\内核引擎\databaseengine.cpp

; 662  :     QUERYINTERFACE(IAsynchronismEngineSink, Guid, dwQueryVer);

  0011f	0f b6 45 e4	 movzx	 eax, BYTE PTR tv206[ebp]
  00123	85 c0		 test	 eax, eax
  00125	74 35		 je	 SHORT $LN4@QueryInter
  00127	68 00 01 01 06	 push	 100729088		; 06010100H
  0012c	8b 4d 0c	 mov	 ecx, DWORD PTR _dwQueryVer$[ebp]
  0012f	51		 push	 ecx
  00130	e8 00 00 00 00	 call	 ?InterfaceVersionCompare@@YA_NKK@Z ; InterfaceVersionCompare
  00135	83 c4 08	 add	 esp, 8
  00138	0f b6 d0	 movzx	 edx, al
  0013b	85 d2		 test	 edx, edx
  0013d	74 1d		 je	 SHORT $LN4@QueryInter
  0013f	83 7d fc 00	 cmp	 DWORD PTR _this$[ebp], 0
  00143	74 0b		 je	 SHORT $LN7@QueryInter
  00145	8b 45 fc	 mov	 eax, DWORD PTR _this$[ebp]
  00148	83 c0 04	 add	 eax, 4
  0014b	89 45 e0	 mov	 DWORD PTR tv138[ebp], eax
  0014e	eb 07		 jmp	 SHORT $LN8@QueryInter
$LN7@QueryInter:
  00150	c7 45 e0 00 00
	00 00		 mov	 DWORD PTR tv138[ebp], 0
$LN8@QueryInter:
  00157	8b 45 e0	 mov	 eax, DWORD PTR tv138[ebp]
  0015a	eb 69		 jmp	 SHORT $LN1@QueryInter
$LN4@QueryInter:
; File c:\program files (x86)\windows kits\10\include\10.0.17763.0\shared\guiddef.h

; 161  :     return !memcmp(&rguid1, &rguid2, sizeof(GUID));

  0015c	6a 10		 push	 16			; 00000010H
  0015e	68 00 00 00 00	 push	 OFFSET ?IID_IUnknownEx@@3U_GUID@@B
  00163	8b 4d 08	 mov	 ecx, DWORD PTR _Guid$[ebp]
  00166	51		 push	 ecx
  00167	e8 00 00 00 00	 call	 _memcmp
  0016c	83 c4 0c	 add	 esp, 12			; 0000000cH
  0016f	89 45 c8	 mov	 DWORD PTR tv235[ebp], eax
  00172	83 7d c8 00	 cmp	 DWORD PTR tv235[ebp], 0
  00176	75 09		 jne	 SHORT $LN105@QueryInter
  00178	c7 45 dc 01 00
	00 00		 mov	 DWORD PTR tv234[ebp], 1
  0017f	eb 07		 jmp	 SHORT $LN103@QueryInter
$LN105@QueryInter:
  00181	c7 45 dc 00 00
	00 00		 mov	 DWORD PTR tv234[ebp], 0
$LN103@QueryInter:

; 194  :     return !!IsEqualGUID(guidOne,guidOther);

  00188	83 7d dc 00	 cmp	 DWORD PTR tv234[ebp], 0
  0018c	74 09		 je	 SHORT $LN101@QueryInter
  0018e	c7 45 d8 01 00
	00 00		 mov	 DWORD PTR tv223[ebp], 1
  00195	eb 07		 jmp	 SHORT $LN99@QueryInter
$LN101@QueryInter:
  00197	c7 45 d8 00 00
	00 00		 mov	 DWORD PTR tv223[ebp], 0
$LN99@QueryInter:
; File g:\网狐\happygamewh\服务端\系统模块\服务器组件\内核引擎\databaseengine.cpp

; 663  :     QUERYINTERFACE_IUNKNOWNEX(IDataBaseEngine, Guid, dwQueryVer);

  0019e	0f b6 55 d8	 movzx	 edx, BYTE PTR tv223[ebp]
  001a2	85 d2		 test	 edx, edx
  001a4	74 1d		 je	 SHORT $LN5@QueryInter
  001a6	68 00 01 01 06	 push	 100729088		; 06010100H
  001ab	8b 45 0c	 mov	 eax, DWORD PTR _dwQueryVer$[ebp]
  001ae	50		 push	 eax
  001af	e8 00 00 00 00	 call	 ?InterfaceVersionCompare@@YA_NKK@Z ; InterfaceVersionCompare
  001b4	83 c4 08	 add	 esp, 8
  001b7	0f b6 c8	 movzx	 ecx, al
  001ba	85 c9		 test	 ecx, ecx
  001bc	74 05		 je	 SHORT $LN5@QueryInter
  001be	8b 45 fc	 mov	 eax, DWORD PTR _this$[ebp]
  001c1	eb 02		 jmp	 SHORT $LN1@QueryInter
$LN5@QueryInter:

; 664  :     return NULL;

  001c3	33 c0		 xor	 eax, eax
$LN1@QueryInter:

; 665  : }

  001c5	8b e5		 mov	 esp, ebp
  001c7	5d		 pop	 ebp
  001c8	c2 08 00	 ret	 8
?QueryInterface@CDataBaseEngine@@UAEPAXABU_GUID@@K@Z ENDP ; CDataBaseEngine::QueryInterface
_TEXT	ENDS
; Function compile flags: /Odtp
; File g:\网狐\happygamewh\服务端\系统模块\服务器组件\内核引擎\databaseengine.h
;	COMDAT ?Release@CDataBaseEngine@@UAEXXZ
_TEXT	SEGMENT
tv70 = -16						; size = 4
$T1 = -12						; size = 4
_this$ = -8						; size = 4
$T2 = -4						; size = 4
?Release@CDataBaseEngine@@UAEXXZ PROC			; CDataBaseEngine::Release, COMDAT
; _this$ = ecx

; 179  :     virtual VOID Release() { delete this; }

  00000	55		 push	 ebp
  00001	8b ec		 mov	 ebp, esp
  00003	83 ec 10	 sub	 esp, 16			; 00000010H
  00006	89 4d f8	 mov	 DWORD PTR _this$[ebp], ecx
  00009	8b 45 f8	 mov	 eax, DWORD PTR _this$[ebp]
  0000c	89 45 f4	 mov	 DWORD PTR $T1[ebp], eax
  0000f	8b 4d f4	 mov	 ecx, DWORD PTR $T1[ebp]
  00012	89 4d fc	 mov	 DWORD PTR $T2[ebp], ecx
  00015	83 7d fc 00	 cmp	 DWORD PTR $T2[ebp], 0
  00019	74 14		 je	 SHORT $LN3@Release
  0001b	6a 01		 push	 1
  0001d	8b 55 fc	 mov	 edx, DWORD PTR $T2[ebp]
  00020	8b 02		 mov	 eax, DWORD PTR [edx]
  00022	8b 4d fc	 mov	 ecx, DWORD PTR $T2[ebp]
  00025	8b 50 28	 mov	 edx, DWORD PTR [eax+40]
  00028	ff d2		 call	 edx
  0002a	89 45 f0	 mov	 DWORD PTR tv70[ebp], eax
  0002d	eb 07		 jmp	 SHORT $LN1@Release
$LN3@Release:
  0002f	c7 45 f0 00 00
	00 00		 mov	 DWORD PTR tv70[ebp], 0
$LN1@Release:
  00036	8b e5		 mov	 esp, ebp
  00038	5d		 pop	 ebp
  00039	c3		 ret	 0
?Release@CDataBaseEngine@@UAEXXZ ENDP			; CDataBaseEngine::Release
_TEXT	ENDS
; Function compile flags: /Odtp
; File g:\网狐\happygamewh\服务端\系统模块\服务器组件\内核引擎\databaseengine.cpp
;	COMDAT ??1CDataBaseEngine@@UAE@XZ
_TEXT	SEGMENT
_this$ = -4						; size = 4
??1CDataBaseEngine@@UAE@XZ PROC				; CDataBaseEngine::~CDataBaseEngine, COMDAT
; _this$ = ecx

; 654  : {

  00000	55		 push	 ebp
  00001	8b ec		 mov	 ebp, esp
  00003	51		 push	 ecx
  00004	89 4d fc	 mov	 DWORD PTR _this$[ebp], ecx
  00007	8b 45 fc	 mov	 eax, DWORD PTR _this$[ebp]
  0000a	c7 00 00 00 00
	00		 mov	 DWORD PTR [eax], OFFSET ??_7CDataBaseEngine@@6BIDataBaseEngine@@@
  00010	8b 4d fc	 mov	 ecx, DWORD PTR _this$[ebp]
  00013	c7 41 04 00 00
	00 00		 mov	 DWORD PTR [ecx+4], OFFSET ??_7CDataBaseEngine@@6BIAsynchronismEngineSink@@@

; 655  : }

  0001a	8b 4d fc	 mov	 ecx, DWORD PTR _this$[ebp]
  0001d	83 c1 2c	 add	 ecx, 44			; 0000002cH
  00020	e8 00 00 00 00	 call	 ??1CAsynchronismEngine@@UAE@XZ ; CAsynchronismEngine::~CAsynchronismEngine
  00025	8b 4d fc	 mov	 ecx, DWORD PTR _this$[ebp]
  00028	83 c1 08	 add	 ecx, 8
  0002b	e8 00 00 00 00	 call	 ??1CCriticalSection@@UAE@XZ ; CCriticalSection::~CCriticalSection
  00030	8b e5		 mov	 esp, ebp
  00032	5d		 pop	 ebp
  00033	c3		 ret	 0
??1CDataBaseEngine@@UAE@XZ ENDP				; CDataBaseEngine::~CDataBaseEngine
_TEXT	ENDS
; Function compile flags: /Odtp
; File g:\网狐\happygamewh\服务端\系统模块\服务器组件\内核引擎\databaseengine.cpp
;	COMDAT ??0CDataBaseEngine@@QAE@XZ
_TEXT	SEGMENT
_this$ = -20						; size = 4
_this$ = -16						; size = 4
__$EHRec$ = -12						; size = 12
??0CDataBaseEngine@@QAE@XZ PROC				; CDataBaseEngine::CDataBaseEngine, COMDAT
; _this$ = ecx

; 642  : {

  00000	55		 push	 ebp
  00001	8b ec		 mov	 ebp, esp
  00003	6a ff		 push	 -1
  00005	68 00 00 00 00	 push	 __ehhandler$??0CDataBaseEngine@@QAE@XZ
  0000a	64 a1 00 00 00
	00		 mov	 eax, DWORD PTR fs:0
  00010	50		 push	 eax
  00011	83 ec 08	 sub	 esp, 8
  00014	a1 00 00 00 00	 mov	 eax, DWORD PTR ___security_cookie
  00019	33 c5		 xor	 eax, ebp
  0001b	50		 push	 eax
  0001c	8d 45 f4	 lea	 eax, DWORD PTR __$EHRec$[ebp]
  0001f	64 a3 00 00 00
	00		 mov	 DWORD PTR fs:0, eax
  00025	89 4d f0	 mov	 DWORD PTR _this$[ebp], ecx
  00028	8b 45 f0	 mov	 eax, DWORD PTR _this$[ebp]
  0002b	c7 00 00 00 00
	00		 mov	 DWORD PTR [eax], OFFSET ??_7IUnknownEx@@6B@
  00031	8b 4d f0	 mov	 ecx, DWORD PTR _this$[ebp]
  00034	c7 01 00 00 00
	00		 mov	 DWORD PTR [ecx], OFFSET ??_7IServiceModule@@6B@
  0003a	8b 55 f0	 mov	 edx, DWORD PTR _this$[ebp]
  0003d	c7 02 00 00 00
	00		 mov	 DWORD PTR [edx], OFFSET ??_7IDataBaseEngine@@6B@
  00043	8b 45 f0	 mov	 eax, DWORD PTR _this$[ebp]
  00046	83 c0 04	 add	 eax, 4
  00049	89 45 ec	 mov	 DWORD PTR _this$[ebp], eax
  0004c	8b 4d ec	 mov	 ecx, DWORD PTR _this$[ebp]
  0004f	c7 01 00 00 00
	00		 mov	 DWORD PTR [ecx], OFFSET ??_7IUnknownEx@@6B@
  00055	8b 55 ec	 mov	 edx, DWORD PTR _this$[ebp]
  00058	c7 02 00 00 00
	00		 mov	 DWORD PTR [edx], OFFSET ??_7IAsynchronismEngineSink@@6B@
  0005e	8b 45 f0	 mov	 eax, DWORD PTR _this$[ebp]
  00061	c7 00 00 00 00
	00		 mov	 DWORD PTR [eax], OFFSET ??_7CDataBaseEngine@@6BIDataBaseEngine@@@
  00067	8b 4d f0	 mov	 ecx, DWORD PTR _this$[ebp]
  0006a	c7 41 04 00 00
	00 00		 mov	 DWORD PTR [ecx+4], OFFSET ??_7CDataBaseEngine@@6BIAsynchronismEngineSink@@@
  00071	8b 4d f0	 mov	 ecx, DWORD PTR _this$[ebp]
  00074	83 c1 08	 add	 ecx, 8
  00077	e8 00 00 00 00	 call	 ??0CCriticalSection@@QAE@XZ ; CCriticalSection::CCriticalSection
  0007c	c7 45 fc 00 00
	00 00		 mov	 DWORD PTR __$EHRec$[ebp+8], 0
  00083	8b 4d f0	 mov	 ecx, DWORD PTR _this$[ebp]
  00086	83 c1 2c	 add	 ecx, 44			; 0000002cH
  00089	e8 00 00 00 00	 call	 ??0CAsynchronismEngine@@QAE@XZ ; CAsynchronismEngine::CAsynchronismEngine

; 643  :     // 设置变量
; 644  :     m_pIDataBaseEngineSink = NULL;

  0008e	8b 55 f0	 mov	 edx, DWORD PTR _this$[ebp]
  00091	c7 82 98 40 00
	00 00 00 00 00	 mov	 DWORD PTR [edx+16536], 0

; 645  : 
; 646  :     // 设置变量
; 647  :     ZeroMemory(m_cbBuffer, sizeof(m_cbBuffer));

  0009b	68 00 40 00 00	 push	 16384			; 00004000H
  000a0	6a 00		 push	 0
  000a2	8b 45 f0	 mov	 eax, DWORD PTR _this$[ebp]
  000a5	05 9c 40 00 00	 add	 eax, 16540		; 0000409cH
  000aa	50		 push	 eax
  000ab	e8 00 00 00 00	 call	 _memset
  000b0	83 c4 0c	 add	 esp, 12			; 0000000cH

; 648  : 
; 649  :     return;
; 650  : }

  000b3	c7 45 fc ff ff
	ff ff		 mov	 DWORD PTR __$EHRec$[ebp+8], -1
  000ba	8b 45 f0	 mov	 eax, DWORD PTR _this$[ebp]
  000bd	8b 4d f4	 mov	 ecx, DWORD PTR __$EHRec$[ebp]
  000c0	64 89 0d 00 00
	00 00		 mov	 DWORD PTR fs:0, ecx
  000c7	59		 pop	 ecx
  000c8	8b e5		 mov	 esp, ebp
  000ca	5d		 pop	 ebp
  000cb	c3		 ret	 0
_TEXT	ENDS
;	COMDAT text$x
text$x	SEGMENT
__unwindfunclet$??0CDataBaseEngine@@QAE@XZ$0:
  00000	8b 4d f0	 mov	 ecx, DWORD PTR _this$[ebp]
  00003	83 c1 08	 add	 ecx, 8
  00006	e9 00 00 00 00	 jmp	 ??1CCriticalSection@@UAE@XZ ; CCriticalSection::~CCriticalSection
__ehhandler$??0CDataBaseEngine@@QAE@XZ:
  0000b	8b 54 24 08	 mov	 edx, DWORD PTR [esp+8]
  0000f	8d 42 0c	 lea	 eax, DWORD PTR [edx+12]
  00012	8b 4a f4	 mov	 ecx, DWORD PTR [edx-12]
  00015	33 c8		 xor	 ecx, eax
  00017	e8 00 00 00 00	 call	 @__security_check_cookie@4
  0001c	b8 00 00 00 00	 mov	 eax, OFFSET __ehfuncinfo$??0CDataBaseEngine@@QAE@XZ
  00021	e9 00 00 00 00	 jmp	 ___CxxFrameHandler3
text$x	ENDS
??0CDataBaseEngine@@QAE@XZ ENDP				; CDataBaseEngine::CDataBaseEngine
; Function compile flags: /Odtp
;	COMDAT ??_GCDataBase@@UAEPAXI@Z
_TEXT	SEGMENT
_this$ = -4						; size = 4
___flags$ = 8						; size = 4
??_GCDataBase@@UAEPAXI@Z PROC				; CDataBase::`scalar deleting destructor', COMDAT
; _this$ = ecx
  00000	55		 push	 ebp
  00001	8b ec		 mov	 ebp, esp
  00003	51		 push	 ecx
  00004	89 4d fc	 mov	 DWORD PTR _this$[ebp], ecx
  00007	8b 4d fc	 mov	 ecx, DWORD PTR _this$[ebp]
  0000a	e8 00 00 00 00	 call	 ??1CDataBase@@UAE@XZ	; CDataBase::~CDataBase
  0000f	8b 45 08	 mov	 eax, DWORD PTR ___flags$[ebp]
  00012	83 e0 01	 and	 eax, 1
  00015	74 0e		 je	 SHORT $LN2@scalar
  00017	6a 34		 push	 52			; 00000034H
  00019	8b 4d fc	 mov	 ecx, DWORD PTR _this$[ebp]
  0001c	51		 push	 ecx
  0001d	e8 00 00 00 00	 call	 ??3@YAXPAXI@Z		; operator delete
  00022	83 c4 08	 add	 esp, 8
$LN2@scalar:
  00025	8b 45 fc	 mov	 eax, DWORD PTR _this$[ebp]
  00028	8b e5		 mov	 esp, ebp
  0002a	5d		 pop	 ebp
  0002b	c2 04 00	 ret	 4
??_GCDataBase@@UAEPAXI@Z ENDP				; CDataBase::`scalar deleting destructor'
_TEXT	ENDS
; Function compile flags: /Odtp
; File g:\网狐\happygamewh\服务端\系统模块\服务器组件\内核引擎\databaseengine.cpp
;	COMDAT ?OnSQLException@CDataBase@@IAEXW4enSQLException@@PAV_com_error@@@Z
_TEXT	SEGMENT
$T1 = -8						; size = 4
_this$ = -4						; size = 4
_SQLException$ = 8					; size = 4
_pComError$ = 12					; size = 4
?OnSQLException@CDataBase@@IAEXW4enSQLException@@PAV_com_error@@@Z PROC ; CDataBase::OnSQLException, COMDAT
; _this$ = ecx

; 628  : {

  00000	55		 push	 ebp
  00001	8b ec		 mov	 ebp, esp
  00003	83 ec 08	 sub	 esp, 8
  00006	89 4d fc	 mov	 DWORD PTR _this$[ebp], ecx

; 629  :     // 设置异常
; 630  :     m_DataBaseException.SetExceptionInfo(SQLException, pComError);

  00009	8b 45 0c	 mov	 eax, DWORD PTR _pComError$[ebp]
  0000c	50		 push	 eax
  0000d	8b 4d 08	 mov	 ecx, DWORD PTR _SQLException$[ebp]
  00010	51		 push	 ecx
  00011	8b 4d fc	 mov	 ecx, DWORD PTR _this$[ebp]
  00014	83 c1 08	 add	 ecx, 8
  00017	e8 00 00 00 00	 call	 ?SetExceptionInfo@CDataBaseException@@QAEXW4enSQLException@@PAV_com_error@@@Z ; CDataBaseException::SetExceptionInfo

; 631  : 
; 632  :     // 抛出异常
; 633  :     throw &m_DataBaseException;

  0001c	8b 55 fc	 mov	 edx, DWORD PTR _this$[ebp]
  0001f	83 c2 08	 add	 edx, 8
  00022	89 55 f8	 mov	 DWORD PTR $T1[ebp], edx
  00025	68 00 00 00 00	 push	 OFFSET __TI4PAVCDataBaseException@@
  0002a	8d 45 f8	 lea	 eax, DWORD PTR $T1[ebp]
  0002d	50		 push	 eax
  0002e	e8 00 00 00 00	 call	 __CxxThrowException@8
$LN2@OnSQLExcep:

; 634  : 
; 635  :     return;
; 636  : }

  00033	8b e5		 mov	 esp, ebp
  00035	5d		 pop	 ebp
  00036	c2 08 00	 ret	 8
?OnSQLException@CDataBase@@IAEXW4enSQLException@@PAV_com_error@@@Z ENDP ; CDataBase::OnSQLException
_TEXT	ENDS
; Function compile flags: /Odtp
; File g:\网狐\happygamewh\服务端\系统模块\服务器组件\内核引擎\databaseengine.cpp
;	COMDAT ?ConvertToSQLSyntax@CDataBase@@IAEXPBDAAV?$CStringT@DV?$StrTraitMFC_DLL@DV?$ChTraitsCRT@D@ATL@@@@@ATL@@@Z
_TEXT	SEGMENT
_this$ = -12						; size = 4
_nSrcLength$ = -8					; size = 4
_pszResult$ = -4					; size = 4
_pszString$ = 8						; size = 4
_strResult$ = 12					; size = 4
?ConvertToSQLSyntax@CDataBase@@IAEXPBDAAV?$CStringT@DV?$StrTraitMFC_DLL@DV?$ChTraitsCRT@D@ATL@@@@@ATL@@@Z PROC ; CDataBase::ConvertToSQLSyntax, COMDAT
; _this$ = ecx

; 603  : {

  00000	55		 push	 ebp
  00001	8b ec		 mov	 ebp, esp
  00003	83 ec 0c	 sub	 esp, 12			; 0000000cH
  00006	89 4d f4	 mov	 DWORD PTR _this$[ebp], ecx

; 604  :     // 获取缓冲
; 605  :     INT nSrcLength = lstrlen(pszString);

  00009	8b 45 08	 mov	 eax, DWORD PTR _pszString$[ebp]
  0000c	50		 push	 eax
  0000d	ff 15 00 00 00
	00		 call	 DWORD PTR __imp__lstrlenA@4
  00013	89 45 f8	 mov	 DWORD PTR _nSrcLength$[ebp], eax

; 606  :     LPTSTR pszResult = strResult.GetBufferSetLength(nSrcLength * 2 + 1);

  00016	8b 4d f8	 mov	 ecx, DWORD PTR _nSrcLength$[ebp]
  00019	8d 54 09 01	 lea	 edx, DWORD PTR [ecx+ecx+1]
  0001d	52		 push	 edx
  0001e	8b 4d 0c	 mov	 ecx, DWORD PTR _strResult$[ebp]
  00021	ff 15 00 00 00
	00		 call	 DWORD PTR __imp_?GetBufferSetLength@?$CSimpleStringT@D$00@ATL@@QAEPADH@Z
  00027	89 45 fc	 mov	 DWORD PTR _pszResult$[ebp], eax
$LN2@ConvertToS:

; 607  : 
; 608  :     // 替换字符
; 609  :     while (*pszString != TEXT('\0'))

  0002a	8b 45 08	 mov	 eax, DWORD PTR _pszString$[ebp]
  0002d	0f be 08	 movsx	 ecx, BYTE PTR [eax]
  00030	85 c9		 test	 ecx, ecx
  00032	74 49		 je	 SHORT $LN3@ConvertToS

; 610  :     {
; 611  :         if (*pszString == TEXT('\''))

  00034	8b 55 08	 mov	 edx, DWORD PTR _pszString$[ebp]
  00037	0f be 02	 movsx	 eax, BYTE PTR [edx]
  0003a	83 f8 27	 cmp	 eax, 39			; 00000027H
  0003d	75 20		 jne	 SHORT $LN4@ConvertToS

; 612  :         {
; 613  :             *pszResult++ = TEXT('\'');

  0003f	8b 4d fc	 mov	 ecx, DWORD PTR _pszResult$[ebp]
  00042	c6 01 27	 mov	 BYTE PTR [ecx], 39	; 00000027H
  00045	8b 55 fc	 mov	 edx, DWORD PTR _pszResult$[ebp]
  00048	83 c2 01	 add	 edx, 1
  0004b	89 55 fc	 mov	 DWORD PTR _pszResult$[ebp], edx

; 614  :             *pszResult++ = TEXT('\'');

  0004e	8b 45 fc	 mov	 eax, DWORD PTR _pszResult$[ebp]
  00051	c6 00 27	 mov	 BYTE PTR [eax], 39	; 00000027H
  00054	8b 4d fc	 mov	 ecx, DWORD PTR _pszResult$[ebp]
  00057	83 c1 01	 add	 ecx, 1
  0005a	89 4d fc	 mov	 DWORD PTR _pszResult$[ebp], ecx
  0005d	eb 1c		 jmp	 SHORT $LN5@ConvertToS
$LN4@ConvertToS:

; 615  :         }
; 616  :         else *pszResult++ = *pszString++;

  0005f	8b 55 fc	 mov	 edx, DWORD PTR _pszResult$[ebp]
  00062	8b 45 08	 mov	 eax, DWORD PTR _pszString$[ebp]
  00065	8a 08		 mov	 cl, BYTE PTR [eax]
  00067	88 0a		 mov	 BYTE PTR [edx], cl
  00069	8b 55 fc	 mov	 edx, DWORD PTR _pszResult$[ebp]
  0006c	83 c2 01	 add	 edx, 1
  0006f	89 55 fc	 mov	 DWORD PTR _pszResult$[ebp], edx
  00072	8b 45 08	 mov	 eax, DWORD PTR _pszString$[ebp]
  00075	83 c0 01	 add	 eax, 1
  00078	89 45 08	 mov	 DWORD PTR _pszString$[ebp], eax
$LN5@ConvertToS:

; 617  :     }

  0007b	eb ad		 jmp	 SHORT $LN2@ConvertToS
$LN3@ConvertToS:

; 618  : 
; 619  :     // 结束字符
; 620  :     *pszResult = TEXT('\0');

  0007d	8b 4d fc	 mov	 ecx, DWORD PTR _pszResult$[ebp]
  00080	c6 01 00	 mov	 BYTE PTR [ecx], 0

; 621  :     strResult.ReleaseBuffer();

  00083	6a ff		 push	 -1
  00085	8b 4d 0c	 mov	 ecx, DWORD PTR _strResult$[ebp]
  00088	ff 15 00 00 00
	00		 call	 DWORD PTR __imp_?ReleaseBuffer@?$CSimpleStringT@D$00@ATL@@QAEXH@Z

; 622  : 
; 623  :     return;
; 624  : }

  0008e	8b e5		 mov	 esp, ebp
  00090	5d		 pop	 ebp
  00091	c2 08 00	 ret	 8
?ConvertToSQLSyntax@CDataBase@@IAEXPBDAAV?$CStringT@DV?$StrTraitMFC_DLL@DV?$ChTraitsCRT@D@ATL@@@@@ATL@@@Z ENDP ; CDataBase::ConvertToSQLSyntax
_TEXT	ENDS
; Function compile flags: /Odtp
; File g:\网狐\happygamewh\服务端\系统模块\服务器组件\内核引擎\databaseengine.cpp
; File c:\program files (x86)\windows kits\10\include\10.0.17763.0\ucrt\time.h
; File g:\网狐\happygamewh\服务端\系统模块\服务器组件\内核引擎\databaseengine.cpp
;	COMDAT ?TryConnectAgain@CDataBase@@IAE_NPAV_com_error@@@Z
_TEXT	SEGMENT
_dwNowTime$ = -24					; size = 4
_this$ = -20						; size = 4
__$EHRec$ = -16						; size = 16
_pComError$ = 8						; size = 4
?TryConnectAgain@CDataBase@@IAE_NPAV_com_error@@@Z PROC	; CDataBase::TryConnectAgain, COMDAT
; _this$ = ecx

; 570  : {

  00000	55		 push	 ebp
  00001	8b ec		 mov	 ebp, esp
  00003	6a ff		 push	 -1
  00005	68 00 00 00 00	 push	 __ehhandler$?TryConnectAgain@CDataBase@@IAE_NPAV_com_error@@@Z
  0000a	64 a1 00 00 00
	00		 mov	 eax, DWORD PTR fs:0
  00010	50		 push	 eax
  00011	51		 push	 ecx
  00012	83 ec 08	 sub	 esp, 8
  00015	53		 push	 ebx
  00016	56		 push	 esi
  00017	57		 push	 edi
  00018	a1 00 00 00 00	 mov	 eax, DWORD PTR ___security_cookie
  0001d	33 c5		 xor	 eax, ebp
  0001f	50		 push	 eax
  00020	8d 45 f4	 lea	 eax, DWORD PTR __$EHRec$[ebp+4]
  00023	64 a3 00 00 00
	00		 mov	 DWORD PTR fs:0, eax
  00029	89 65 f0	 mov	 DWORD PTR __$EHRec$[ebp], esp
  0002c	89 4d ec	 mov	 DWORD PTR _this$[ebp], ecx

; 571  :     // 设置变量
; 572  :     m_dwConnectCount++;

  0002f	8b 45 ec	 mov	 eax, DWORD PTR _this$[ebp]
  00032	8b 48 18	 mov	 ecx, DWORD PTR [eax+24]
  00035	83 c1 01	 add	 ecx, 1
  00038	8b 55 ec	 mov	 edx, DWORD PTR _this$[ebp]
  0003b	89 4a 18	 mov	 DWORD PTR [edx+24], ecx
; File c:\program files (x86)\windows kits\10\include\10.0.17763.0\ucrt\time.h

; 536  :             return _time64(_Time);

  0003e	6a 00		 push	 0
  00040	ff 15 00 00 00
	00		 call	 DWORD PTR __imp___time64
  00046	83 c4 04	 add	 esp, 4
; File g:\网狐\happygamewh\服务端\系统模块\服务器组件\内核引擎\databaseengine.cpp

; 575  :     DWORD dwNowTime = (DWORD)time(NULL);

  00049	89 45 e8	 mov	 DWORD PTR _dwNowTime$[ebp], eax

; 576  :     if ((m_dwConnectCount >= m_dwResumeConnectCount) || ((m_dwConnectErrorTime + m_dwResumeConnectTime) <= dwNowTime))

  0004c	8b 45 ec	 mov	 eax, DWORD PTR _this$[ebp]
  0004f	8b 4d ec	 mov	 ecx, DWORD PTR _this$[ebp]
  00052	8b 50 18	 mov	 edx, DWORD PTR [eax+24]
  00055	3b 51 24	 cmp	 edx, DWORD PTR [ecx+36]
  00058	73 11		 jae	 SHORT $LN4@TryConnect
  0005a	8b 45 ec	 mov	 eax, DWORD PTR _this$[ebp]
  0005d	8b 48 1c	 mov	 ecx, DWORD PTR [eax+28]
  00060	8b 55 ec	 mov	 edx, DWORD PTR _this$[ebp]
  00063	03 4a 20	 add	 ecx, DWORD PTR [edx+32]
  00066	3b 4d e8	 cmp	 ecx, DWORD PTR _dwNowTime$[ebp]
  00069	77 4f		 ja	 SHORT $LN2@TryConnect
$LN4@TryConnect:

; 577  :     {
; 578  :         try

  0006b	c7 45 fc 00 00
	00 00		 mov	 DWORD PTR __$EHRec$[ebp+12], 0

; 579  :         {
; 580  :             // 打开连接
; 581  :             OpenConnection();

  00072	8b 45 ec	 mov	 eax, DWORD PTR _this$[ebp]
  00075	8b 10		 mov	 edx, DWORD PTR [eax]
  00077	8b 4d ec	 mov	 ecx, DWORD PTR _this$[ebp]
  0007a	8b 42 08	 mov	 eax, DWORD PTR [edx+8]
  0007d	ff d0		 call	 eax

; 582  : 
; 583  :             // 提示消息
; 584  :             g_TraceServiceManager.TraceString(TEXT("成功重新连接数据库"), TraceLevel_Warning);

  0007f	6a 02		 push	 2
  00081	68 00 00 00 00	 push	 OFFSET ??_C@_0BD@KFKKGENF@?$LD?I?$LJ?$KG?V?X?P?B?A?$KM?$LN?S?J?$PN?$LO?$NN?$LP?b@
  00086	b9 00 00 00 00	 mov	 ecx, OFFSET ?g_TraceServiceManager@@3VCTraceServiceManager@@A ; g_TraceServiceManager
  0008b	e8 00 00 00 00	 call	 ?TraceString@CTraceServiceManager@@UAE_NPBDW4enTraceLevel@@@Z ; CTraceServiceManager::TraceString

; 585  : 
; 586  :             return true;

  00090	b0 01		 mov	 al, 1
  00092	eb 36		 jmp	 SHORT $LN1@TryConnect
__catch$?TryConnectAgain@CDataBase@@IAE_NPAV_com_error@@@Z$0:

; 587  :         }
; 588  :         catch (IDataBaseException *)
; 589  :         {
; 590  :             OnSQLException(SQLException_Connect, pComError);

  00094	8b 4d 08	 mov	 ecx, DWORD PTR _pComError$[ebp]
  00097	51		 push	 ecx
  00098	6a 01		 push	 1
  0009a	8b 4d ec	 mov	 ecx, DWORD PTR _this$[ebp]
  0009d	e8 00 00 00 00	 call	 ?OnSQLException@CDataBase@@IAEXW4enSQLException@@PAV_com_error@@@Z ; CDataBase::OnSQLException

; 591  :         }

  000a2	b8 00 00 00 00	 mov	 eax, $LN10@TryConnect
  000a7	c3		 ret	 0
  000a8	c7 45 fc ff ff
	ff ff		 mov	 DWORD PTR __$EHRec$[ebp+12], -1
  000af	eb 07		 jmp	 SHORT __tryend$?TryConnectAgain@CDataBase@@IAE_NPAV_com_error@@@Z$1
$LN10@TryConnect:
; File c:\program files (x86)\windows kits\10\include\10.0.17763.0\ucrt\time.h
  000b1	c7 45 fc ff ff
	ff ff		 mov	 DWORD PTR __$EHRec$[ebp+12], -1
__tryend$?TryConnectAgain@CDataBase@@IAE_NPAV_com_error@@@Z$1:
; File g:\网狐\happygamewh\服务端\系统模块\服务器组件\内核引擎\databaseengine.cpp

; 592  :     }
; 593  :     else

  000b8	eb 0e		 jmp	 SHORT $LN3@TryConnect
$LN2@TryConnect:

; 594  :     {
; 595  :         OnSQLException(SQLException_Connect, pComError);

  000ba	8b 55 08	 mov	 edx, DWORD PTR _pComError$[ebp]
  000bd	52		 push	 edx
  000be	6a 01		 push	 1
  000c0	8b 4d ec	 mov	 ecx, DWORD PTR _this$[ebp]
  000c3	e8 00 00 00 00	 call	 ?OnSQLException@CDataBase@@IAEXW4enSQLException@@PAV_com_error@@@Z ; CDataBase::OnSQLException
$LN3@TryConnect:

; 596  :     }
; 597  : 
; 598  :     return false;

  000c8	32 c0		 xor	 al, al
$LN1@TryConnect:

; 599  : }

  000ca	8b 4d f4	 mov	 ecx, DWORD PTR __$EHRec$[ebp+4]
  000cd	64 89 0d 00 00
	00 00		 mov	 DWORD PTR fs:0, ecx
  000d4	59		 pop	 ecx
  000d5	5f		 pop	 edi
  000d6	5e		 pop	 esi
  000d7	5b		 pop	 ebx
  000d8	8b e5		 mov	 esp, ebp
  000da	5d		 pop	 ebp
  000db	c2 04 00	 ret	 4
_TEXT	ENDS
;	COMDAT text$x
text$x	SEGMENT
__ehhandler$?TryConnectAgain@CDataBase@@IAE_NPAV_com_error@@@Z:
  00000	8b 54 24 08	 mov	 edx, DWORD PTR [esp+8]
  00004	8d 42 0c	 lea	 eax, DWORD PTR [edx+12]
  00007	8b 4a e4	 mov	 ecx, DWORD PTR [edx-28]
  0000a	33 c8		 xor	 ecx, eax
  0000c	e8 00 00 00 00	 call	 @__security_check_cookie@4
  00011	b8 00 00 00 00	 mov	 eax, OFFSET __ehfuncinfo$?TryConnectAgain@CDataBase@@IAE_NPAV_com_error@@@Z
  00016	e9 00 00 00 00	 jmp	 ___CxxFrameHandler3
text$x	ENDS
?TryConnectAgain@CDataBase@@IAE_NPAV_com_error@@@Z ENDP	; CDataBase::TryConnectAgain
; Function compile flags: /Odtp
; File g:\网狐\happygamewh\服务端\系统模块\服务器组件\内核引擎\databaseengine.cpp
; File c:\program files (x86)\microsoft visual studio\2017\community\vc\tools\msvc\14.16.27023\include\comip.h
; File g:\网狐\happygamewh\服务端\系统模块\服务器组件\内核引擎\databaseengine.cpp
; File c:\program files (x86)\microsoft visual studio\2017\community\vc\tools\msvc\14.16.27023\include\comip.h
; File g:\网狐\happygamewh\服务端\系统模块\服务器组件\内核引擎\databaseengine.cpp
;	COMDAT ?IsRecordsetOpened@CDataBase@@IAE_NXZ
_TEXT	SEGMENT
$T1 = -20						; size = 4
_this$ = -16						; size = 4
_this$ = -12						; size = 4
tv84 = -8						; size = 4
$T2 = -1						; size = 1
?IsRecordsetOpened@CDataBase@@IAE_NXZ PROC		; CDataBase::IsRecordsetOpened, COMDAT
; _this$ = ecx

; 558  : {

  00000	55		 push	 ebp
  00001	8b ec		 mov	 ebp, esp
  00003	83 ec 14	 sub	 esp, 20			; 00000014H
  00006	89 4d f4	 mov	 DWORD PTR _this$[ebp], ecx
; File c:\program files (x86)\microsoft visual studio\2017\community\vc\tools\msvc\14.16.27023\include\comip.h

; 478  :         if (null != 0) {

  00009	33 c0		 xor	 eax, eax
  0000b	74 0a		 je	 SHORT $LN6@IsRecordse

; 479  :             _com_issue_error(E_POINTER);

  0000d	68 03 40 00 80	 push	 -2147467261		; 80004003H
  00012	e8 00 00 00 00	 call	 ?_com_issue_error@@YGXJ@Z ; _com_issue_error
$LN6@IsRecordse:
  00017	8b 4d f4	 mov	 ecx, DWORD PTR _this$[ebp]
  0001a	83 79 2c 00	 cmp	 DWORD PTR [ecx+44], 0
  0001e	75 09		 jne	 SHORT $LN8@IsRecordse
  00020	c7 45 f8 01 00
	00 00		 mov	 DWORD PTR tv84[ebp], 1
  00027	eb 07		 jmp	 SHORT $LN9@IsRecordse
$LN8@IsRecordse:
  00029	c7 45 f8 00 00
	00 00		 mov	 DWORD PTR tv84[ebp], 0
$LN9@IsRecordse:
  00030	8a 55 f8	 mov	 dl, BYTE PTR tv84[ebp]
  00033	88 55 ff	 mov	 BYTE PTR $T2[ebp], dl
; File g:\网狐\happygamewh\服务端\系统模块\服务器组件\内核引擎\databaseengine.cpp

; 560  :     if (m_DBRecordset == NULL)

  00036	0f b6 45 ff	 movzx	 eax, BYTE PTR $T2[ebp]
  0003a	85 c0		 test	 eax, eax
  0003c	74 04		 je	 SHORT $LN2@IsRecordse

; 561  :         return false;

  0003e	32 c0		 xor	 al, al
  00040	eb 35		 jmp	 SHORT $LN10@IsRecordse
$LN2@IsRecordse:

; 562  :     if (m_DBRecordset->GetState() == adStateClosed)

  00042	8b 4d f4	 mov	 ecx, DWORD PTR _this$[ebp]
  00045	83 c1 2c	 add	 ecx, 44			; 0000002cH
  00048	89 4d f0	 mov	 DWORD PTR _this$[ebp], ecx
; File c:\program files (x86)\microsoft visual studio\2017\community\vc\tools\msvc\14.16.27023\include\comip.h

; 428  :         if (m_pInterface == NULL) {

  0004b	8b 55 f0	 mov	 edx, DWORD PTR _this$[ebp]
  0004e	83 3a 00	 cmp	 DWORD PTR [edx], 0
  00051	75 0a		 jne	 SHORT $LN12@IsRecordse

; 429  :             _com_issue_error(E_POINTER);

  00053	68 03 40 00 80	 push	 -2147467261		; 80004003H
  00058	e8 00 00 00 00	 call	 ?_com_issue_error@@YGXJ@Z ; _com_issue_error
$LN12@IsRecordse:
  0005d	8b 45 f0	 mov	 eax, DWORD PTR _this$[ebp]
  00060	8b 08		 mov	 ecx, DWORD PTR [eax]
  00062	89 4d ec	 mov	 DWORD PTR $T1[ebp], ecx
; File g:\网狐\happygamewh\服务端\系统模块\服务器组件\内核引擎\databaseengine.cpp

; 562  :     if (m_DBRecordset->GetState() == adStateClosed)

  00065	8b 4d ec	 mov	 ecx, DWORD PTR $T1[ebp]
  00068	e8 00 00 00 00	 call	 ?GetState@Recordset15@ADOCG@@QAEJXZ ; ADOCG::Recordset15::GetState
  0006d	85 c0		 test	 eax, eax
  0006f	75 04		 jne	 SHORT $LN3@IsRecordse

; 563  :         return false;

  00071	32 c0		 xor	 al, al
  00073	eb 02		 jmp	 SHORT $LN10@IsRecordse
$LN3@IsRecordse:

; 564  : 
; 565  :     return true;

  00075	b0 01		 mov	 al, 1
$LN10@IsRecordse:

; 566  : }

  00077	8b e5		 mov	 esp, ebp
  00079	5d		 pop	 ebp
  0007a	c3		 ret	 0
?IsRecordsetOpened@CDataBase@@IAE_NXZ ENDP		; CDataBase::IsRecordsetOpened
_TEXT	ENDS
; Function compile flags: /Odtp
; File g:\网狐\happygamewh\服务端\系统模块\服务器组件\内核引擎\databaseengine.cpp
; File c:\program files (x86)\microsoft visual studio\2017\community\vc\tools\msvc\14.16.27023\include\comip.h
; File g:\网狐\happygamewh\服务端\系统模块\服务器组件\内核引擎\databaseengine.cpp
; File c:\program files (x86)\microsoft visual studio\2017\community\vc\tools\msvc\14.16.27023\include\comip.h
; File g:\网狐\happygamewh\服务端\系统模块\服务器组件\内核引擎\databaseengine.cpp
; File c:\program files (x86)\microsoft visual studio\2017\community\vc\tools\msvc\14.16.27023\include\comip.h
; File g:\网狐\happygamewh\服务端\系统模块\服务器组件\内核引擎\databaseengine.cpp
; File c:\program files (x86)\microsoft visual studio\2017\community\vc\tools\msvc\14.16.27023\include\comip.h
; File g:\网狐\happygamewh\服务端\系统模块\服务器组件\内核引擎\databaseengine.cpp
; File c:\program files (x86)\microsoft visual studio\2017\community\vc\tools\msvc\14.16.27023\include\comip.h
; File g:\网狐\happygamewh\服务端\系统模块\服务器组件\内核引擎\databaseengine.cpp
; File c:\program files (x86)\microsoft visual studio\2017\community\vc\tools\msvc\14.16.27023\include\comip.h
; File g:\网狐\happygamewh\服务端\系统模块\服务器组件\内核引擎\databaseengine.cpp
; File c:\program files (x86)\microsoft visual studio\2017\community\vc\tools\msvc\14.16.27023\include\comip.h
; File g:\网狐\happygamewh\服务端\系统模块\服务器组件\内核引擎\databaseengine.cpp
; File c:\program files (x86)\microsoft visual studio\2017\community\vc\tools\msvc\14.16.27023\include\comip.h
; File g:\网狐\happygamewh\服务端\系统模块\服务器组件\内核引擎\databaseengine.cpp
; File c:\program files (x86)\microsoft visual studio\2017\community\vc\tools\msvc\14.16.27023\include\comip.h
; File g:\网狐\happygamewh\服务端\系统模块\服务器组件\内核引擎\databaseengine.cpp
; File c:\program files (x86)\microsoft visual studio\2017\community\vc\tools\msvc\14.16.27023\include\comip.h
; File g:\网狐\happygamewh\服务端\系统模块\服务器组件\内核引擎\databaseengine.cpp
; File c:\program files (x86)\microsoft visual studio\2017\community\vc\tools\msvc\14.16.27023\include\comip.h
; File g:\网狐\happygamewh\服务端\系统模块\服务器组件\内核引擎\databaseengine.cpp
; File c:\program files (x86)\microsoft visual studio\2017\community\vc\tools\msvc\14.16.27023\include\comip.h
; File g:\网狐\happygamewh\服务端\系统模块\服务器组件\内核引擎\databaseengine.cpp
; File c:\program files (x86)\microsoft visual studio\2017\community\vc\tools\msvc\14.16.27023\include\comip.h
; File g:\网狐\happygamewh\服务端\系统模块\服务器组件\内核引擎\databaseengine.cpp
; File c:\program files (x86)\microsoft visual studio\2017\community\vc\tools\msvc\14.16.27023\include\comip.h
; File g:\网狐\happygamewh\服务端\系统模块\服务器组件\内核引擎\databaseengine.cpp
; File c:\program files (x86)\microsoft visual studio\2017\community\vc\tools\msvc\14.16.27023\include\comutil.h
; File g:\网狐\happygamewh\服务端\系统模块\服务器组件\内核引擎\databaseengine.cpp
; File c:\program files (x86)\windows kits\10\include\10.0.17763.0\ucrt\time.h
; File g:\网狐\happygamewh\服务端\系统模块\服务器组件\内核引擎\databaseengine.cpp
; File c:\program files (x86)\microsoft visual studio\2017\community\vc\tools\msvc\14.16.27023\include\comip.h
; File g:\网狐\happygamewh\服务端\系统模块\服务器组件\内核引擎\databaseengine.cpp
; File c:\program files (x86)\microsoft visual studio\2017\community\vc\tools\msvc\14.16.27023\include\comip.h
; File g:\网狐\happygamewh\服务端\系统模块\服务器组件\内核引擎\databaseengine.cpp
;	COMDAT ?IsConnectError@CDataBase@@IAE_NXZ
_TEXT	SEGMENT
$T2 = -188						; size = 16
_ComError$3 = -172					; size = 4
tv485 = -168						; size = 4
$T4 = -164						; size = 4
tv488 = -160						; size = 4
$T5 = -156						; size = 4
tv487 = -152						; size = 4
$T6 = -148						; size = 4
tv486 = -144						; size = 4
$T7 = -140						; size = 4
_lErrorCount$8 = -136					; size = 4
tv484 = -132						; size = 4
$T9 = -128						; size = 4
tv483 = -124						; size = 4
$T10 = -120						; size = 4
tv482 = -116						; size = 4
$T11 = -112						; size = 4
tv225 = -108						; size = 4
$T12 = -104						; size = 4
tv140 = -100						; size = 4
$T13 = -96						; size = 4
tv193 = -92						; size = 4
$T14 = -88						; size = 4
$T15 = -84						; size = 4
_this$ = -80						; size = 4
$T16 = -76						; size = 4
_this$ = -72						; size = 4
tv133 = -68						; size = 4
$T17 = -64						; size = 4
_this$ = -60						; size = 4
_this$ = -56						; size = 4
tv231 = -52						; size = 4
$T18 = -48						; size = 4
$T19 = -44						; size = 4
$T20 = -40						; size = 4
$T21 = -36						; size = 4
_i$22 = -32						; size = 4
_pError$23 = -28					; size = 4
$T24 = -24						; size = 1
$T25 = -23						; size = 1
$T26 = -22						; size = 1
$T27 = -21						; size = 1
_this$ = -20						; size = 4
__$EHRec$ = -16						; size = 16
?IsConnectError@CDataBase@@IAE_NXZ PROC			; CDataBase::IsConnectError, COMDAT
; _this$ = ecx

; 510  : {

  00000	55		 push	 ebp
  00001	8b ec		 mov	 ebp, esp
  00003	6a ff		 push	 -1
  00005	68 00 00 00 00	 push	 __ehhandler$?IsConnectError@CDataBase@@IAE_NXZ
  0000a	64 a1 00 00 00
	00		 mov	 eax, DWORD PTR fs:0
  00010	50		 push	 eax
  00011	51		 push	 ecx
  00012	81 ec ac 00 00
	00		 sub	 esp, 172		; 000000acH
  00018	53		 push	 ebx
  00019	56		 push	 esi
  0001a	57		 push	 edi
  0001b	a1 00 00 00 00	 mov	 eax, DWORD PTR ___security_cookie
  00020	33 c5		 xor	 eax, ebp
  00022	50		 push	 eax
  00023	8d 45 f4	 lea	 eax, DWORD PTR __$EHRec$[ebp+4]
  00026	64 a3 00 00 00
	00		 mov	 DWORD PTR fs:0, eax
  0002c	89 65 f0	 mov	 DWORD PTR __$EHRec$[ebp], esp
  0002f	89 4d ec	 mov	 DWORD PTR _this$[ebp], ecx
  00032	c7 85 5c ff ff
	ff 00 00 00 00	 mov	 DWORD PTR $T4[ebp], 0

; 511  :     try

  0003c	c7 45 fc 00 00
	00 00		 mov	 DWORD PTR __$EHRec$[ebp+12], 0
; File c:\program files (x86)\microsoft visual studio\2017\community\vc\tools\msvc\14.16.27023\include\comip.h

; 478  :         if (null != 0) {

  00043	33 c0		 xor	 eax, eax
  00045	74 0a		 je	 SHORT $LN26@IsConnectE

; 479  :             _com_issue_error(E_POINTER);

  00047	68 03 40 00 80	 push	 -2147467261		; 80004003H
  0004c	e8 00 00 00 00	 call	 ?_com_issue_error@@YGXJ@Z ; _com_issue_error
$LN26@IsConnectE:
  00051	8b 4d ec	 mov	 ecx, DWORD PTR _this$[ebp]
  00054	83 79 30 00	 cmp	 DWORD PTR [ecx+48], 0
  00058	75 09		 jne	 SHORT $LN28@IsConnectE
  0005a	c7 45 cc 01 00
	00 00		 mov	 DWORD PTR tv231[ebp], 1
  00061	eb 07		 jmp	 SHORT $LN29@IsConnectE
$LN28@IsConnectE:
  00063	c7 45 cc 00 00
	00 00		 mov	 DWORD PTR tv231[ebp], 0
$LN29@IsConnectE:
  0006a	8a 55 cc	 mov	 dl, BYTE PTR tv231[ebp]
  0006d	88 55 eb	 mov	 BYTE PTR $T27[ebp], dl
; File g:\网狐\happygamewh\服务端\系统模块\服务器组件\内核引擎\databaseengine.cpp

; 514  :         if (m_DBConnection == NULL)

  00070	0f b6 45 eb	 movzx	 eax, BYTE PTR $T27[ebp]
  00074	85 c0		 test	 eax, eax
  00076	74 07		 je	 SHORT $LN6@IsConnectE

; 515  :             return true;

  00078	b0 01		 mov	 al, 1
  0007a	e9 84 03 00 00	 jmp	 $LN30@IsConnectE
$LN6@IsConnectE:

; 516  :         if (m_DBConnection->GetState() == adStateClosed)

  0007f	8b 4d ec	 mov	 ecx, DWORD PTR _this$[ebp]
  00082	83 c1 30	 add	 ecx, 48			; 00000030H
  00085	89 4d c8	 mov	 DWORD PTR _this$[ebp], ecx
; File c:\program files (x86)\microsoft visual studio\2017\community\vc\tools\msvc\14.16.27023\include\comip.h

; 428  :         if (m_pInterface == NULL) {

  00088	8b 55 c8	 mov	 edx, DWORD PTR _this$[ebp]
  0008b	83 3a 00	 cmp	 DWORD PTR [edx], 0
  0008e	75 0a		 jne	 SHORT $LN32@IsConnectE

; 429  :             _com_issue_error(E_POINTER);

  00090	68 03 40 00 80	 push	 -2147467261		; 80004003H
  00095	e8 00 00 00 00	 call	 ?_com_issue_error@@YGXJ@Z ; _com_issue_error
$LN32@IsConnectE:
  0009a	8b 45 c8	 mov	 eax, DWORD PTR _this$[ebp]
  0009d	8b 08		 mov	 ecx, DWORD PTR [eax]
  0009f	89 4d a0	 mov	 DWORD PTR $T13[ebp], ecx
; File g:\网狐\happygamewh\服务端\系统模块\服务器组件\内核引擎\databaseengine.cpp

; 516  :         if (m_DBConnection->GetState() == adStateClosed)

  000a2	8b 4d a0	 mov	 ecx, DWORD PTR $T13[ebp]
  000a5	e8 00 00 00 00	 call	 ?GetState@Connection15@ADOCG@@QAEJXZ ; ADOCG::Connection15::GetState
  000aa	89 45 9c	 mov	 DWORD PTR tv140[ebp], eax
  000ad	83 7d 9c 00	 cmp	 DWORD PTR tv140[ebp], 0
  000b1	75 07		 jne	 SHORT $LN7@IsConnectE

; 517  :             return true;

  000b3	b0 01		 mov	 al, 1
  000b5	e9 49 03 00 00	 jmp	 $LN30@IsConnectE
$LN7@IsConnectE:

; 520  :         if (m_DBConnection->Errors->Count > 0L)

  000ba	8b 55 ec	 mov	 edx, DWORD PTR _this$[ebp]
  000bd	83 c2 30	 add	 edx, 48			; 00000030H
  000c0	89 55 c4	 mov	 DWORD PTR _this$[ebp], edx
; File c:\program files (x86)\microsoft visual studio\2017\community\vc\tools\msvc\14.16.27023\include\comip.h

; 428  :         if (m_pInterface == NULL) {

  000c3	8b 45 c4	 mov	 eax, DWORD PTR _this$[ebp]
  000c6	83 38 00	 cmp	 DWORD PTR [eax], 0
  000c9	75 0a		 jne	 SHORT $LN38@IsConnectE

; 429  :             _com_issue_error(E_POINTER);

  000cb	68 03 40 00 80	 push	 -2147467261		; 80004003H
  000d0	e8 00 00 00 00	 call	 ?_com_issue_error@@YGXJ@Z ; _com_issue_error
$LN38@IsConnectE:
  000d5	8b 4d c4	 mov	 ecx, DWORD PTR _this$[ebp]
  000d8	8b 11		 mov	 edx, DWORD PTR [ecx]
  000da	89 55 98	 mov	 DWORD PTR $T12[ebp], edx
; File g:\网狐\happygamewh\服务端\系统模块\服务器组件\内核引擎\databaseengine.cpp

; 520  :         if (m_DBConnection->Errors->Count > 0L)

  000dd	8d 45 dc	 lea	 eax, DWORD PTR $T21[ebp]
  000e0	50		 push	 eax
  000e1	8b 4d 98	 mov	 ecx, DWORD PTR $T12[ebp]
  000e4	e8 00 00 00 00	 call	 ?GetErrors@Connection15@ADOCG@@QAE?AV?$_com_ptr_t@V?$_com_IIID@UErrors@ADOCG@@$1?_GUID_00000501_0000_0010_8000_00aa006d2ea4@@3U__s_GUID@@B@@@@XZ ; ADOCG::Connection15::GetErrors
  000e9	89 45 94	 mov	 DWORD PTR tv225[ebp], eax
  000ec	8b 4d 94	 mov	 ecx, DWORD PTR tv225[ebp]
  000ef	89 4d c0	 mov	 DWORD PTR $T17[ebp], ecx
  000f2	c6 45 fc 01	 mov	 BYTE PTR __$EHRec$[ebp+12], 1
; File c:\program files (x86)\microsoft visual studio\2017\community\vc\tools\msvc\14.16.27023\include\comip.h

; 428  :         if (m_pInterface == NULL) {

  000f6	8b 55 c0	 mov	 edx, DWORD PTR $T17[ebp]
  000f9	83 3a 00	 cmp	 DWORD PTR [edx], 0
  000fc	75 0a		 jne	 SHORT $LN52@IsConnectE

; 429  :             _com_issue_error(E_POINTER);

  000fe	68 03 40 00 80	 push	 -2147467261		; 80004003H
  00103	e8 00 00 00 00	 call	 ?_com_issue_error@@YGXJ@Z ; _com_issue_error
$LN52@IsConnectE:
  00108	8b 45 c0	 mov	 eax, DWORD PTR $T17[ebp]
  0010b	8b 08		 mov	 ecx, DWORD PTR [eax]
  0010d	89 4d 90	 mov	 DWORD PTR $T11[ebp], ecx
; File g:\网狐\happygamewh\服务端\系统模块\服务器组件\内核引擎\databaseengine.cpp

; 520  :         if (m_DBConnection->Errors->Count > 0L)

  00110	8b 4d 90	 mov	 ecx, DWORD PTR $T11[ebp]
  00113	e8 00 00 00 00	 call	 ?GetCount@_Collection@ADOCG@@QAEJXZ ; ADOCG::_Collection::GetCount
  00118	89 45 8c	 mov	 DWORD PTR tv482[ebp], eax
  0011b	83 7d 8c 00	 cmp	 DWORD PTR tv482[ebp], 0
  0011f	7e 09		 jle	 SHORT $LN11@IsConnectE
  00121	c7 45 bc 01 00
	00 00		 mov	 DWORD PTR tv133[ebp], 1
  00128	eb 07		 jmp	 SHORT $LN12@IsConnectE
$LN11@IsConnectE:
  0012a	c7 45 bc 00 00
	00 00		 mov	 DWORD PTR tv133[ebp], 0
$LN12@IsConnectE:
  00131	8a 55 bc	 mov	 dl, BYTE PTR tv133[ebp]
  00134	88 55 ea	 mov	 BYTE PTR $T26[ebp], dl
  00137	c6 45 fc 00	 mov	 BYTE PTR __$EHRec$[ebp+12], 0
; File c:\program files (x86)\microsoft visual studio\2017\community\vc\tools\msvc\14.16.27023\include\comip.h

; 817  :         if (m_pInterface != NULL) {

  0013b	83 7d dc 00	 cmp	 DWORD PTR $T21[ebp], 0
  0013f	74 0e		 je	 SHORT $LN57@IsConnectE

; 818  :             m_pInterface->Release();

  00141	8b 45 dc	 mov	 eax, DWORD PTR $T21[ebp]
  00144	50		 push	 eax
  00145	8b 4d dc	 mov	 ecx, DWORD PTR $T21[ebp]
  00148	8b 11		 mov	 edx, DWORD PTR [ecx]
  0014a	8b 42 08	 mov	 eax, DWORD PTR [edx+8]
  0014d	ff d0		 call	 eax
$LN57@IsConnectE:
; File g:\网狐\happygamewh\服务端\系统模块\服务器组件\内核引擎\databaseengine.cpp

; 520  :         if (m_DBConnection->Errors->Count > 0L)

  0014f	0f b6 4d ea	 movzx	 ecx, BYTE PTR $T26[ebp]
  00153	85 c9		 test	 ecx, ecx
  00155	0f 84 7b 02 00
	00		 je	 $LN8@IsConnectE
; File c:\program files (x86)\microsoft visual studio\2017\community\vc\tools\msvc\14.16.27023\include\comip.h

; 142  :         : m_pInterface(NULL)

  0015b	c7 45 e4 00 00
	00 00		 mov	 DWORD PTR _pError$23[ebp], 0

; 143  :     {
; 144  :         if (null != 0) {

  00162	33 d2		 xor	 edx, edx
  00164	74 0a		 je	 SHORT $LN64@IsConnectE

; 145  :             _com_issue_error(E_POINTER);

  00166	68 03 40 00 80	 push	 -2147467261		; 80004003H
  0016b	e8 00 00 00 00	 call	 ?_com_issue_error@@YGXJ@Z ; _com_issue_error
$LN64@IsConnectE:
; File g:\网狐\happygamewh\服务端\系统模块\服务器组件\内核引擎\databaseengine.cpp

; 523  :             ErrorPtr pError = NULL;

  00170	c6 45 fc 02	 mov	 BYTE PTR __$EHRec$[ebp+12], 2

; 524  :             LONG lErrorCount = m_DBConnection->Errors->Count;

  00174	8b 45 ec	 mov	 eax, DWORD PTR _this$[ebp]
  00177	83 c0 30	 add	 eax, 48			; 00000030H
  0017a	89 45 b8	 mov	 DWORD PTR _this$[ebp], eax
; File c:\program files (x86)\microsoft visual studio\2017\community\vc\tools\msvc\14.16.27023\include\comip.h

; 428  :         if (m_pInterface == NULL) {

  0017d	8b 4d b8	 mov	 ecx, DWORD PTR _this$[ebp]
  00180	83 39 00	 cmp	 DWORD PTR [ecx], 0
  00183	75 0a		 jne	 SHORT $LN66@IsConnectE

; 429  :             _com_issue_error(E_POINTER);

  00185	68 03 40 00 80	 push	 -2147467261		; 80004003H
  0018a	e8 00 00 00 00	 call	 ?_com_issue_error@@YGXJ@Z ; _com_issue_error
$LN66@IsConnectE:
  0018f	8b 55 b8	 mov	 edx, DWORD PTR _this$[ebp]
  00192	8b 02		 mov	 eax, DWORD PTR [edx]
  00194	89 45 88	 mov	 DWORD PTR $T10[ebp], eax
; File g:\网狐\happygamewh\服务端\系统模块\服务器组件\内核引擎\databaseengine.cpp

; 524  :             LONG lErrorCount = m_DBConnection->Errors->Count;

  00197	8d 4d d8	 lea	 ecx, DWORD PTR $T20[ebp]
  0019a	51		 push	 ecx
  0019b	8b 4d 88	 mov	 ecx, DWORD PTR $T10[ebp]
  0019e	e8 00 00 00 00	 call	 ?GetErrors@Connection15@ADOCG@@QAE?AV?$_com_ptr_t@V?$_com_IIID@UErrors@ADOCG@@$1?_GUID_00000501_0000_0010_8000_00aa006d2ea4@@3U__s_GUID@@B@@@@XZ ; ADOCG::Connection15::GetErrors
  001a3	89 45 84	 mov	 DWORD PTR tv483[ebp], eax
  001a6	8b 55 84	 mov	 edx, DWORD PTR tv483[ebp]
  001a9	89 55 b4	 mov	 DWORD PTR $T16[ebp], edx
  001ac	c6 45 fc 03	 mov	 BYTE PTR __$EHRec$[ebp+12], 3
; File c:\program files (x86)\microsoft visual studio\2017\community\vc\tools\msvc\14.16.27023\include\comip.h

; 428  :         if (m_pInterface == NULL) {

  001b0	8b 45 b4	 mov	 eax, DWORD PTR $T16[ebp]
  001b3	83 38 00	 cmp	 DWORD PTR [eax], 0
  001b6	75 0a		 jne	 SHORT $LN80@IsConnectE

; 429  :             _com_issue_error(E_POINTER);

  001b8	68 03 40 00 80	 push	 -2147467261		; 80004003H
  001bd	e8 00 00 00 00	 call	 ?_com_issue_error@@YGXJ@Z ; _com_issue_error
$LN80@IsConnectE:
  001c2	8b 4d b4	 mov	 ecx, DWORD PTR $T16[ebp]
  001c5	8b 11		 mov	 edx, DWORD PTR [ecx]
  001c7	89 55 80	 mov	 DWORD PTR $T9[ebp], edx
; File g:\网狐\happygamewh\服务端\系统模块\服务器组件\内核引擎\databaseengine.cpp

; 524  :             LONG lErrorCount = m_DBConnection->Errors->Count;

  001ca	8b 4d 80	 mov	 ecx, DWORD PTR $T9[ebp]
  001cd	e8 00 00 00 00	 call	 ?GetCount@_Collection@ADOCG@@QAEJXZ ; ADOCG::_Collection::GetCount
  001d2	89 85 7c ff ff
	ff		 mov	 DWORD PTR tv484[ebp], eax
  001d8	8b 85 7c ff ff
	ff		 mov	 eax, DWORD PTR tv484[ebp]
  001de	89 85 78 ff ff
	ff		 mov	 DWORD PTR _lErrorCount$8[ebp], eax
  001e4	c6 45 fc 02	 mov	 BYTE PTR __$EHRec$[ebp+12], 2
; File c:\program files (x86)\microsoft visual studio\2017\community\vc\tools\msvc\14.16.27023\include\comip.h

; 817  :         if (m_pInterface != NULL) {

  001e8	83 7d d8 00	 cmp	 DWORD PTR $T20[ebp], 0
  001ec	74 0e		 je	 SHORT $LN85@IsConnectE

; 818  :             m_pInterface->Release();

  001ee	8b 4d d8	 mov	 ecx, DWORD PTR $T20[ebp]
  001f1	51		 push	 ecx
  001f2	8b 55 d8	 mov	 edx, DWORD PTR $T20[ebp]
  001f5	8b 02		 mov	 eax, DWORD PTR [edx]
  001f7	8b 48 08	 mov	 ecx, DWORD PTR [eax+8]
  001fa	ff d1		 call	 ecx
$LN85@IsConnectE:
; File g:\网狐\happygamewh\服务端\系统模块\服务器组件\内核引擎\databaseengine.cpp

; 527  :             for (LONG i = 0; i < lErrorCount; i++)

  001fc	c7 45 e0 00 00
	00 00		 mov	 DWORD PTR _i$22[ebp], 0
  00203	eb 09		 jmp	 SHORT $LN4@IsConnectE
$LN2@IsConnectE:
  00205	8b 55 e0	 mov	 edx, DWORD PTR _i$22[ebp]
  00208	83 c2 01	 add	 edx, 1
  0020b	89 55 e0	 mov	 DWORD PTR _i$22[ebp], edx
$LN4@IsConnectE:
  0020e	8b 45 e0	 mov	 eax, DWORD PTR _i$22[ebp]
  00211	3b 85 78 ff ff
	ff		 cmp	 eax, DWORD PTR _lErrorCount$8[ebp]
  00217	0f 8d a1 01 00
	00		 jge	 $LN3@IsConnectE

; 529  :                 if (m_DBConnection->Errors->GetItem(i)->Number == E_FAIL)

  0021d	6a 03		 push	 3
  0021f	8b 4d e0	 mov	 ecx, DWORD PTR _i$22[ebp]
  00222	51		 push	 ecx
  00223	8d 8d 44 ff ff
	ff		 lea	 ecx, DWORD PTR $T2[ebp]
  00229	e8 00 00 00 00	 call	 ??0_variant_t@@QAE@JG@Z	; _variant_t::_variant_t
  0022e	89 85 58 ff ff
	ff		 mov	 DWORD PTR tv485[ebp], eax
  00234	c6 45 fc 04	 mov	 BYTE PTR __$EHRec$[ebp+12], 4
  00238	8b 55 ec	 mov	 edx, DWORD PTR _this$[ebp]
  0023b	83 c2 30	 add	 edx, 48			; 00000030H
  0023e	89 55 b0	 mov	 DWORD PTR _this$[ebp], edx
; File c:\program files (x86)\microsoft visual studio\2017\community\vc\tools\msvc\14.16.27023\include\comip.h

; 428  :         if (m_pInterface == NULL) {

  00241	8b 45 b0	 mov	 eax, DWORD PTR _this$[ebp]
  00244	83 38 00	 cmp	 DWORD PTR [eax], 0
  00247	75 0a		 jne	 SHORT $LN100@IsConnectE

; 429  :             _com_issue_error(E_POINTER);

  00249	68 03 40 00 80	 push	 -2147467261		; 80004003H
  0024e	e8 00 00 00 00	 call	 ?_com_issue_error@@YGXJ@Z ; _com_issue_error
$LN100@IsConnectE:
  00253	8b 4d b0	 mov	 ecx, DWORD PTR _this$[ebp]
  00256	8b 11		 mov	 edx, DWORD PTR [ecx]
  00258	89 95 74 ff ff
	ff		 mov	 DWORD PTR $T7[ebp], edx
; File g:\网狐\happygamewh\服务端\系统模块\服务器组件\内核引擎\databaseengine.cpp

; 529  :                 if (m_DBConnection->Errors->GetItem(i)->Number == E_FAIL)

  0025e	8d 45 d0	 lea	 eax, DWORD PTR $T18[ebp]
  00261	50		 push	 eax
  00262	8b 8d 74 ff ff
	ff		 mov	 ecx, DWORD PTR $T7[ebp]
  00268	e8 00 00 00 00	 call	 ?GetErrors@Connection15@ADOCG@@QAE?AV?$_com_ptr_t@V?$_com_IIID@UErrors@ADOCG@@$1?_GUID_00000501_0000_0010_8000_00aa006d2ea4@@3U__s_GUID@@B@@@@XZ ; ADOCG::Connection15::GetErrors
  0026d	89 85 70 ff ff
	ff		 mov	 DWORD PTR tv486[ebp], eax
  00273	8b 8d 70 ff ff
	ff		 mov	 ecx, DWORD PTR tv486[ebp]
  00279	89 4d ac	 mov	 DWORD PTR $T15[ebp], ecx
  0027c	c6 45 fc 05	 mov	 BYTE PTR __$EHRec$[ebp+12], 5
; File c:\program files (x86)\microsoft visual studio\2017\community\vc\tools\msvc\14.16.27023\include\comip.h

; 428  :         if (m_pInterface == NULL) {

  00280	8b 55 ac	 mov	 edx, DWORD PTR $T15[ebp]
  00283	83 3a 00	 cmp	 DWORD PTR [edx], 0
  00286	75 0a		 jne	 SHORT $LN114@IsConnectE

; 429  :             _com_issue_error(E_POINTER);

  00288	68 03 40 00 80	 push	 -2147467261		; 80004003H
  0028d	e8 00 00 00 00	 call	 ?_com_issue_error@@YGXJ@Z ; _com_issue_error
$LN114@IsConnectE:
  00292	8b 45 ac	 mov	 eax, DWORD PTR $T15[ebp]
  00295	8b 08		 mov	 ecx, DWORD PTR [eax]
  00297	89 8d 6c ff ff
	ff		 mov	 DWORD PTR $T6[ebp], ecx
; File g:\网狐\happygamewh\服务端\系统模块\服务器组件\内核引擎\databaseengine.cpp

; 529  :                 if (m_DBConnection->Errors->GetItem(i)->Number == E_FAIL)

  0029d	8d 95 44 ff ff
	ff		 lea	 edx, DWORD PTR $T2[ebp]
  002a3	52		 push	 edx
  002a4	8d 45 d4	 lea	 eax, DWORD PTR $T19[ebp]
  002a7	50		 push	 eax
  002a8	8b 8d 6c ff ff
	ff		 mov	 ecx, DWORD PTR $T6[ebp]
  002ae	e8 00 00 00 00	 call	 ?GetItem@Errors@ADOCG@@QAE?AV?$_com_ptr_t@V?$_com_IIID@UError@ADOCG@@$1?_GUID_00000500_0000_0010_8000_00aa006d2ea4@@3U__s_GUID@@B@@@@ABV_variant_t@@@Z ; ADOCG::Errors::GetItem
  002b3	89 85 68 ff ff
	ff		 mov	 DWORD PTR tv487[ebp], eax
  002b9	8b 8d 68 ff ff
	ff		 mov	 ecx, DWORD PTR tv487[ebp]
  002bf	89 4d a8	 mov	 DWORD PTR $T14[ebp], ecx
  002c2	c6 45 fc 06	 mov	 BYTE PTR __$EHRec$[ebp+12], 6
; File c:\program files (x86)\microsoft visual studio\2017\community\vc\tools\msvc\14.16.27023\include\comip.h

; 428  :         if (m_pInterface == NULL) {

  002c6	8b 55 a8	 mov	 edx, DWORD PTR $T14[ebp]
  002c9	83 3a 00	 cmp	 DWORD PTR [edx], 0
  002cc	75 0a		 jne	 SHORT $LN128@IsConnectE

; 429  :             _com_issue_error(E_POINTER);

  002ce	68 03 40 00 80	 push	 -2147467261		; 80004003H
  002d3	e8 00 00 00 00	 call	 ?_com_issue_error@@YGXJ@Z ; _com_issue_error
$LN128@IsConnectE:
  002d8	8b 45 a8	 mov	 eax, DWORD PTR $T14[ebp]
  002db	8b 08		 mov	 ecx, DWORD PTR [eax]
  002dd	89 8d 64 ff ff
	ff		 mov	 DWORD PTR $T5[ebp], ecx
; File g:\网狐\happygamewh\服务端\系统模块\服务器组件\内核引擎\databaseengine.cpp

; 529  :                 if (m_DBConnection->Errors->GetItem(i)->Number == E_FAIL)

  002e3	8b 8d 64 ff ff
	ff		 mov	 ecx, DWORD PTR $T5[ebp]
  002e9	e8 00 00 00 00	 call	 ?GetNumber@Error@ADOCG@@QAEJXZ ; ADOCG::Error::GetNumber
  002ee	89 85 60 ff ff
	ff		 mov	 DWORD PTR tv488[ebp], eax
  002f4	81 bd 60 ff ff
	ff 05 40 00 80	 cmp	 DWORD PTR tv488[ebp], -2147467259 ; 80004005H
  002fe	75 09		 jne	 SHORT $LN13@IsConnectE
  00300	c7 45 a4 01 00
	00 00		 mov	 DWORD PTR tv193[ebp], 1
  00307	eb 07		 jmp	 SHORT $LN14@IsConnectE
$LN13@IsConnectE:
  00309	c7 45 a4 00 00
	00 00		 mov	 DWORD PTR tv193[ebp], 0
$LN14@IsConnectE:
  00310	8a 55 a4	 mov	 dl, BYTE PTR tv193[ebp]
  00313	88 55 e9	 mov	 BYTE PTR $T25[ebp], dl
  00316	c6 45 fc 05	 mov	 BYTE PTR __$EHRec$[ebp+12], 5
; File c:\program files (x86)\microsoft visual studio\2017\community\vc\tools\msvc\14.16.27023\include\comip.h

; 817  :         if (m_pInterface != NULL) {

  0031a	83 7d d4 00	 cmp	 DWORD PTR $T19[ebp], 0
  0031e	74 0e		 je	 SHORT $LN133@IsConnectE

; 818  :             m_pInterface->Release();

  00320	8b 45 d4	 mov	 eax, DWORD PTR $T19[ebp]
  00323	50		 push	 eax
  00324	8b 4d d4	 mov	 ecx, DWORD PTR $T19[ebp]
  00327	8b 11		 mov	 edx, DWORD PTR [ecx]
  00329	8b 42 08	 mov	 eax, DWORD PTR [edx+8]
  0032c	ff d0		 call	 eax
$LN133@IsConnectE:
; File g:\网狐\happygamewh\服务端\系统模块\服务器组件\内核引擎\databaseengine.cpp

; 529  :                 if (m_DBConnection->Errors->GetItem(i)->Number == E_FAIL)

  0032e	c6 45 fc 04	 mov	 BYTE PTR __$EHRec$[ebp+12], 4
; File c:\program files (x86)\microsoft visual studio\2017\community\vc\tools\msvc\14.16.27023\include\comip.h

; 817  :         if (m_pInterface != NULL) {

  00332	83 7d d0 00	 cmp	 DWORD PTR $T18[ebp], 0
  00336	74 0e		 je	 SHORT $LN138@IsConnectE

; 818  :             m_pInterface->Release();

  00338	8b 4d d0	 mov	 ecx, DWORD PTR $T18[ebp]
  0033b	51		 push	 ecx
  0033c	8b 55 d0	 mov	 edx, DWORD PTR $T18[ebp]
  0033f	8b 02		 mov	 eax, DWORD PTR [edx]
  00341	8b 48 08	 mov	 ecx, DWORD PTR [eax+8]
  00344	ff d1		 call	 ecx
$LN138@IsConnectE:
; File g:\网狐\happygamewh\服务端\系统模块\服务器组件\内核引擎\databaseengine.cpp

; 529  :                 if (m_DBConnection->Errors->GetItem(i)->Number == E_FAIL)

  00346	c6 45 fc 02	 mov	 BYTE PTR __$EHRec$[ebp+12], 2
; File c:\program files (x86)\microsoft visual studio\2017\community\vc\tools\msvc\14.16.27023\include\comutil.h

; 2334 :     ::VariantClear(this);

  0034a	8d 95 44 ff ff
	ff		 lea	 edx, DWORD PTR $T2[ebp]
  00350	52		 push	 edx
  00351	ff 15 00 00 00
	00		 call	 DWORD PTR __imp__VariantClear@4
; File g:\网狐\happygamewh\服务端\系统模块\服务器组件\内核引擎\databaseengine.cpp

; 529  :                 if (m_DBConnection->Errors->GetItem(i)->Number == E_FAIL)

  00357	0f b6 45 e9	 movzx	 eax, BYTE PTR $T25[ebp]
  0035b	85 c0		 test	 eax, eax
  0035d	74 5a		 je	 SHORT $LN9@IsConnectE

; 530  :                 {
; 531  :                     // 关闭连接
; 532  :                     CloseConnection();

  0035f	8b 4d ec	 mov	 ecx, DWORD PTR _this$[ebp]
  00362	8b 11		 mov	 edx, DWORD PTR [ecx]
  00364	8b 4d ec	 mov	 ecx, DWORD PTR _this$[ebp]
  00367	8b 42 0c	 mov	 eax, DWORD PTR [edx+12]
  0036a	ff d0		 call	 eax

; 533  : 
; 534  :                     // 设置参数
; 535  :                     m_dwConnectCount = 0L;

  0036c	8b 4d ec	 mov	 ecx, DWORD PTR _this$[ebp]
  0036f	c7 41 18 00 00
	00 00		 mov	 DWORD PTR [ecx+24], 0
; File c:\program files (x86)\windows kits\10\include\10.0.17763.0\ucrt\time.h

; 536  :             return _time64(_Time);

  00376	6a 00		 push	 0
  00378	ff 15 00 00 00
	00		 call	 DWORD PTR __imp___time64
  0037e	83 c4 04	 add	 esp, 4
; File g:\网狐\happygamewh\服务端\系统模块\服务器组件\内核引擎\databaseengine.cpp

; 536  :                     m_dwConnectErrorTime = (DWORD)time(NULL);

  00381	8b 55 ec	 mov	 edx, DWORD PTR _this$[ebp]
  00384	89 42 1c	 mov	 DWORD PTR [edx+28], eax

; 537  : 
; 538  :                     // 提示消息
; 539  :                     g_TraceServiceManager.TraceString(TEXT("数据库连接中断，稍后将会尝试重新连接"), TraceLevel_Warning);

  00387	6a 02		 push	 2
  00389	68 00 00 00 00	 push	 OFFSET ??_C@_0CF@EJOIAEJA@?J?$PN?$LO?$NN?$LP?b?A?$KM?$LN?S?V?P?$LG?O?$KD?$KM?I?T?$LK?s?$LN?$KL?$LL?a?$LD?$KC?J?T?V?X?P@
  0038e	b9 00 00 00 00	 mov	 ecx, OFFSET ?g_TraceServiceManager@@3VCTraceServiceManager@@A ; g_TraceServiceManager
  00393	e8 00 00 00 00	 call	 ?TraceString@CTraceServiceManager@@UAE_NPBDW4enTraceLevel@@@Z ; CTraceServiceManager::TraceString

; 541  :                     return true;

  00398	c6 45 e8 01	 mov	 BYTE PTR $T24[ebp], 1
  0039c	c6 45 fc 00	 mov	 BYTE PTR __$EHRec$[ebp+12], 0
; File c:\program files (x86)\microsoft visual studio\2017\community\vc\tools\msvc\14.16.27023\include\comip.h

; 817  :         if (m_pInterface != NULL) {

  003a0	83 7d e4 00	 cmp	 DWORD PTR _pError$23[ebp], 0
  003a4	74 0e		 je	 SHORT $LN147@IsConnectE

; 818  :             m_pInterface->Release();

  003a6	8b 45 e4	 mov	 eax, DWORD PTR _pError$23[ebp]
  003a9	50		 push	 eax
  003aa	8b 4d e4	 mov	 ecx, DWORD PTR _pError$23[ebp]
  003ad	8b 11		 mov	 edx, DWORD PTR [ecx]
  003af	8b 42 08	 mov	 eax, DWORD PTR [edx+8]
  003b2	ff d0		 call	 eax
$LN147@IsConnectE:
; File g:\网狐\happygamewh\服务端\系统模块\服务器组件\内核引擎\databaseengine.cpp

; 541  :                     return true;

  003b4	8a 45 e8	 mov	 al, BYTE PTR $T24[ebp]
  003b7	eb 4a		 jmp	 SHORT $LN30@IsConnectE
$LN9@IsConnectE:

; 542  :                 }
; 543  :             }

  003b9	e9 47 fe ff ff	 jmp	 $LN2@IsConnectE
$LN3@IsConnectE:

; 544  :         }

  003be	c6 45 fc 00	 mov	 BYTE PTR __$EHRec$[ebp+12], 0
; File c:\program files (x86)\microsoft visual studio\2017\community\vc\tools\msvc\14.16.27023\include\comip.h

; 817  :         if (m_pInterface != NULL) {

  003c2	83 7d e4 00	 cmp	 DWORD PTR _pError$23[ebp], 0
  003c6	74 0e		 je	 SHORT $LN8@IsConnectE

; 818  :             m_pInterface->Release();

  003c8	8b 4d e4	 mov	 ecx, DWORD PTR _pError$23[ebp]
  003cb	51		 push	 ecx
  003cc	8b 55 e4	 mov	 edx, DWORD PTR _pError$23[ebp]
  003cf	8b 02		 mov	 eax, DWORD PTR [edx]
  003d1	8b 48 08	 mov	 ecx, DWORD PTR [eax+8]
  003d4	ff d1		 call	 ecx
$LN8@IsConnectE:
; File g:\网狐\happygamewh\服务端\系统模块\服务器组件\内核引擎\databaseengine.cpp

; 546  :         return false;

  003d6	32 c0		 xor	 al, al
  003d8	eb 29		 jmp	 SHORT $LN30@IsConnectE
__catch$?IsConnectError@CDataBase@@IAE_NXZ$0:

; 547  :     }
; 548  :     catch (CComError & ComError)
; 549  :     {
; 550  :         OnSQLException(SQLException_Connect, &ComError);

  003da	8b 95 54 ff ff
	ff		 mov	 edx, DWORD PTR _ComError$3[ebp]
  003e0	52		 push	 edx
  003e1	6a 01		 push	 1
  003e3	8b 4d ec	 mov	 ecx, DWORD PTR _this$[ebp]
  003e6	e8 00 00 00 00	 call	 ?OnSQLException@CDataBase@@IAEXW4enSQLException@@PAV_com_error@@@Z ; CDataBase::OnSQLException

; 551  :     }

  003eb	b8 00 00 00 00	 mov	 eax, $LN24@IsConnectE
  003f0	c3		 ret	 0
  003f1	c7 45 fc ff ff
	ff ff		 mov	 DWORD PTR __$EHRec$[ebp+12], -1
  003f8	eb 07		 jmp	 SHORT __tryend$?IsConnectError@CDataBase@@IAE_NXZ$1
$LN24@IsConnectE:
; File c:\program files (x86)\microsoft visual studio\2017\community\vc\tools\msvc\14.16.27023\include\comip.h
  003fa	c7 45 fc ff ff
	ff ff		 mov	 DWORD PTR __$EHRec$[ebp+12], -1
__tryend$?IsConnectError@CDataBase@@IAE_NXZ$1:
; File g:\网狐\happygamewh\服务端\系统模块\服务器组件\内核引擎\databaseengine.cpp

; 552  : 
; 553  :     return false;

  00401	32 c0		 xor	 al, al
$LN30@IsConnectE:

; 554  : }

  00403	8b 4d f4	 mov	 ecx, DWORD PTR __$EHRec$[ebp+4]
  00406	64 89 0d 00 00
	00 00		 mov	 DWORD PTR fs:0, ecx
  0040d	59		 pop	 ecx
  0040e	5f		 pop	 edi
  0040f	5e		 pop	 esi
  00410	5b		 pop	 ebx
  00411	8b e5		 mov	 esp, ebp
  00413	5d		 pop	 ebp
  00414	c3		 ret	 0
_TEXT	ENDS
;	COMDAT text$x
text$x	SEGMENT
__unwindfunclet$?IsConnectError@CDataBase@@IAE_NXZ$2:
  00000	8d 4d dc	 lea	 ecx, DWORD PTR $T21[ebp]
  00003	e9 00 00 00 00	 jmp	 ??1?$_com_ptr_t@V?$_com_IIID@UErrors@ADOCG@@$1?_GUID_00000501_0000_0010_8000_00aa006d2ea4@@3U__s_GUID@@B@@@@QAE@XZ ; _com_ptr_t<_com_IIID<ADOCG::Errors,&_GUID_00000501_0000_0010_8000_00aa006d2ea4> >::~_com_ptr_t<_com_IIID<ADOCG::Errors,&_GUID_00000501_0000_0010_8000_00aa006d2ea4> >
__unwindfunclet$?IsConnectError@CDataBase@@IAE_NXZ$3:
  00008	8d 4d e4	 lea	 ecx, DWORD PTR _pError$23[ebp]
  0000b	e9 00 00 00 00	 jmp	 ??1?$_com_ptr_t@V?$_com_IIID@UError@ADOCG@@$1?_GUID_00000500_0000_0010_8000_00aa006d2ea4@@3U__s_GUID@@B@@@@QAE@XZ ; _com_ptr_t<_com_IIID<ADOCG::Error,&_GUID_00000500_0000_0010_8000_00aa006d2ea4> >::~_com_ptr_t<_com_IIID<ADOCG::Error,&_GUID_00000500_0000_0010_8000_00aa006d2ea4> >
__unwindfunclet$?IsConnectError@CDataBase@@IAE_NXZ$4:
  00010	8d 4d d8	 lea	 ecx, DWORD PTR $T20[ebp]
  00013	e9 00 00 00 00	 jmp	 ??1?$_com_ptr_t@V?$_com_IIID@UErrors@ADOCG@@$1?_GUID_00000501_0000_0010_8000_00aa006d2ea4@@3U__s_GUID@@B@@@@QAE@XZ ; _com_ptr_t<_com_IIID<ADOCG::Errors,&_GUID_00000501_0000_0010_8000_00aa006d2ea4> >::~_com_ptr_t<_com_IIID<ADOCG::Errors,&_GUID_00000501_0000_0010_8000_00aa006d2ea4> >
__unwindfunclet$?IsConnectError@CDataBase@@IAE_NXZ$5:
  00018	8d 8d 44 ff ff
	ff		 lea	 ecx, DWORD PTR $T2[ebp]
  0001e	e9 00 00 00 00	 jmp	 ??1_variant_t@@QAE@XZ	; _variant_t::~_variant_t
__unwindfunclet$?IsConnectError@CDataBase@@IAE_NXZ$6:
  00023	8d 4d d0	 lea	 ecx, DWORD PTR $T18[ebp]
  00026	e9 00 00 00 00	 jmp	 ??1?$_com_ptr_t@V?$_com_IIID@UErrors@ADOCG@@$1?_GUID_00000501_0000_0010_8000_00aa006d2ea4@@3U__s_GUID@@B@@@@QAE@XZ ; _com_ptr_t<_com_IIID<ADOCG::Errors,&_GUID_00000501_0000_0010_8000_00aa006d2ea4> >::~_com_ptr_t<_com_IIID<ADOCG::Errors,&_GUID_00000501_0000_0010_8000_00aa006d2ea4> >
__unwindfunclet$?IsConnectError@CDataBase@@IAE_NXZ$7:
  0002b	8d 4d d4	 lea	 ecx, DWORD PTR $T19[ebp]
  0002e	e9 00 00 00 00	 jmp	 ??1?$_com_ptr_t@V?$_com_IIID@UError@ADOCG@@$1?_GUID_00000500_0000_0010_8000_00aa006d2ea4@@3U__s_GUID@@B@@@@QAE@XZ ; _com_ptr_t<_com_IIID<ADOCG::Error,&_GUID_00000500_0000_0010_8000_00aa006d2ea4> >::~_com_ptr_t<_com_IIID<ADOCG::Error,&_GUID_00000500_0000_0010_8000_00aa006d2ea4> >
__ehhandler$?IsConnectError@CDataBase@@IAE_NXZ:
  00033	8b 54 24 08	 mov	 edx, DWORD PTR [esp+8]
  00037	8d 42 0c	 lea	 eax, DWORD PTR [edx+12]
  0003a	8b 8a 40 ff ff
	ff		 mov	 ecx, DWORD PTR [edx-192]
  00040	33 c8		 xor	 ecx, eax
  00042	e8 00 00 00 00	 call	 @__security_check_cookie@4
  00047	b8 00 00 00 00	 mov	 eax, OFFSET __ehfuncinfo$?IsConnectError@CDataBase@@IAE_NXZ
  0004c	e9 00 00 00 00	 jmp	 ___CxxFrameHandler3
text$x	ENDS
?IsConnectError@CDataBase@@IAE_NXZ ENDP			; CDataBase::IsConnectError
; Function compile flags: /Odtp
; File g:\网狐\happygamewh\服务端\系统模块\服务器组件\内核引擎\databaseengine.cpp
; File c:\program files (x86)\microsoft visual studio\2017\community\vc\tools\msvc\14.16.27023\include\comip.h
; File g:\网狐\happygamewh\服务端\系统模块\服务器组件\内核引擎\databaseengine.cpp
; File c:\program files (x86)\microsoft visual studio\2017\community\vc\tools\msvc\14.16.27023\include\comip.h
; File g:\网狐\happygamewh\服务端\中间目录\内核引擎\debug_ansi\msado15.tli
; File g:\网狐\happygamewh\服务端\系统模块\服务器组件\内核引擎\databaseengine.cpp
; File c:\program files (x86)\microsoft visual studio\2017\community\vc\tools\msvc\14.16.27023\include\comip.h
; File g:\网狐\happygamewh\服务端\系统模块\服务器组件\内核引擎\databaseengine.cpp
; File c:\program files (x86)\microsoft visual studio\2017\community\vc\tools\msvc\14.16.27023\include\comip.h
; File g:\网狐\happygamewh\服务端\系统模块\服务器组件\内核引擎\databaseengine.cpp
;	COMDAT ?ExecuteSentence@CDataBase@@UAEXPBD_N@Z
_TEXT	SEGMENT
tv135 = -84						; size = 4
tv259 = -80						; size = 4
$T2 = -76						; size = 4
tv153 = -72						; size = 4
$T3 = -68						; size = 4
$T4 = -64						; size = 4
$T5 = -60						; size = 4
tv263 = -56						; size = 4
$T6 = -52						; size = 4
_ComError$7 = -48					; size = 4
_this$ = -44						; size = 4
__hr$8 = -40						; size = 4
_this$ = -36						; size = 4
_this$ = -32						; size = 4
$T9 = -28						; size = 4
$T10 = -24						; size = 4
_this$ = -20						; size = 4
__$EHRec$ = -16						; size = 16
_pszCommand$ = 8					; size = 4
_bRecordset$ = 12					; size = 1
?ExecuteSentence@CDataBase@@UAEXPBD_N@Z PROC		; CDataBase::ExecuteSentence, COMDAT
; _this$ = ecx

; 473  : {

  00000	55		 push	 ebp
  00001	8b ec		 mov	 ebp, esp
  00003	6a ff		 push	 -1
  00005	68 00 00 00 00	 push	 __ehhandler$?ExecuteSentence@CDataBase@@UAEXPBD_N@Z
  0000a	64 a1 00 00 00
	00		 mov	 eax, DWORD PTR fs:0
  00010	50		 push	 eax
  00011	51		 push	 ecx
  00012	83 ec 44	 sub	 esp, 68			; 00000044H
  00015	53		 push	 ebx
  00016	56		 push	 esi
  00017	57		 push	 edi
  00018	a1 00 00 00 00	 mov	 eax, DWORD PTR ___security_cookie
  0001d	33 c5		 xor	 eax, ebp
  0001f	50		 push	 eax
  00020	8d 45 f4	 lea	 eax, DWORD PTR __$EHRec$[ebp+4]
  00023	64 a3 00 00 00
	00		 mov	 DWORD PTR fs:0, eax
  00029	89 65 f0	 mov	 DWORD PTR __$EHRec$[ebp], esp
  0002c	89 4d ec	 mov	 DWORD PTR _this$[ebp], ecx
  0002f	c7 45 c0 00 00
	00 00		 mov	 DWORD PTR $T4[ebp], 0
$LN4@ExecuteSen:

; 474  :     // 执行命令
; 475  :     do
; 476  :     {
; 477  :         try

  00036	c7 45 fc 00 00
	00 00		 mov	 DWORD PTR __$EHRec$[ebp+12], 0

; 480  :             m_DBCommand->CommandText = L"";

  0003d	51		 push	 ecx
  0003e	8b cc		 mov	 ecx, esp
  00040	89 65 bc	 mov	 DWORD PTR $T3[ebp], esp
  00043	68 00 00 00 00	 push	 OFFSET ??_C@_11LOCGONAA@@
  00048	e8 00 00 00 00	 call	 ??0_bstr_t@@QAE@PB_W@Z	; _bstr_t::_bstr_t
  0004d	89 45 b8	 mov	 DWORD PTR tv153[ebp], eax
  00050	c6 45 fc 01	 mov	 BYTE PTR __$EHRec$[ebp+12], 1
  00054	8b 45 ec	 mov	 eax, DWORD PTR _this$[ebp]
  00057	83 c0 28	 add	 eax, 40			; 00000028H
  0005a	89 45 e0	 mov	 DWORD PTR _this$[ebp], eax
; File c:\program files (x86)\microsoft visual studio\2017\community\vc\tools\msvc\14.16.27023\include\comip.h

; 428  :         if (m_pInterface == NULL) {

  0005d	8b 4d e0	 mov	 ecx, DWORD PTR _this$[ebp]
  00060	83 39 00	 cmp	 DWORD PTR [ecx], 0
  00063	75 0a		 jne	 SHORT $LN30@ExecuteSen

; 429  :             _com_issue_error(E_POINTER);

  00065	68 03 40 00 80	 push	 -2147467261		; 80004003H
  0006a	e8 00 00 00 00	 call	 ?_com_issue_error@@YGXJ@Z ; _com_issue_error
$LN30@ExecuteSen:
  0006f	8b 55 e0	 mov	 edx, DWORD PTR _this$[ebp]
  00072	8b 02		 mov	 eax, DWORD PTR [edx]
  00074	89 45 cc	 mov	 DWORD PTR $T6[ebp], eax
; File g:\网狐\happygamewh\服务端\系统模块\服务器组件\内核引擎\databaseengine.cpp

; 480  :             m_DBCommand->CommandText = L"";

  00077	c6 45 fc 00	 mov	 BYTE PTR __$EHRec$[ebp+12], 0
  0007b	8b 4d cc	 mov	 ecx, DWORD PTR $T6[ebp]
  0007e	e8 00 00 00 00	 call	 ?PutCommandText@Command15@ADOCG@@QAEXV_bstr_t@@@Z ; ADOCG::Command15::PutCommandText

; 481  :             m_DBConnection->CursorLocation = adUseClient;

  00083	8b 4d ec	 mov	 ecx, DWORD PTR _this$[ebp]
  00086	83 c1 30	 add	 ecx, 48			; 00000030H
  00089	89 4d dc	 mov	 DWORD PTR _this$[ebp], ecx
; File c:\program files (x86)\microsoft visual studio\2017\community\vc\tools\msvc\14.16.27023\include\comip.h

; 428  :         if (m_pInterface == NULL) {

  0008c	8b 55 dc	 mov	 edx, DWORD PTR _this$[ebp]
  0008f	83 3a 00	 cmp	 DWORD PTR [edx], 0
  00092	75 0a		 jne	 SHORT $LN63@ExecuteSen

; 429  :             _com_issue_error(E_POINTER);

  00094	68 03 40 00 80	 push	 -2147467261		; 80004003H
  00099	e8 00 00 00 00	 call	 ?_com_issue_error@@YGXJ@Z ; _com_issue_error
$LN63@ExecuteSen:
  0009e	8b 45 dc	 mov	 eax, DWORD PTR _this$[ebp]
  000a1	8b 08		 mov	 ecx, DWORD PTR [eax]
  000a3	89 4d e8	 mov	 DWORD PTR $T10[ebp], ecx
; File g:\网狐\happygamewh\服务端\中间目录\内核引擎\debug_ansi\msado15.tli

; 1325 :     HRESULT _hr = put_CursorLocation(plCursorLoc);

  000a6	6a 03		 push	 3
  000a8	8b 55 e8	 mov	 edx, DWORD PTR $T10[ebp]
  000ab	52		 push	 edx
  000ac	8b 45 e8	 mov	 eax, DWORD PTR $T10[ebp]
  000af	8b 08		 mov	 ecx, DWORD PTR [eax]
  000b1	8b 51 74	 mov	 edx, DWORD PTR [ecx+116]
  000b4	ff d2		 call	 edx
  000b6	89 45 c8	 mov	 DWORD PTR tv263[ebp], eax
  000b9	8b 45 c8	 mov	 eax, DWORD PTR tv263[ebp]
  000bc	89 45 d8	 mov	 DWORD PTR __hr$8[ebp], eax

; 1326 :     if (FAILED(_hr)) _com_issue_errorex(_hr, this, __uuidof(this));

  000bf	83 7d d8 00	 cmp	 DWORD PTR __hr$8[ebp], 0
  000c3	7d 12		 jge	 SHORT $LN65@ExecuteSen
  000c5	68 00 00 00 00	 push	 OFFSET __GUID_00000515_0000_0010_8000_00aa006d2ea4
  000ca	8b 4d e8	 mov	 ecx, DWORD PTR $T10[ebp]
  000cd	51		 push	 ecx
  000ce	8b 55 d8	 mov	 edx, DWORD PTR __hr$8[ebp]
  000d1	52		 push	 edx
  000d2	e8 00 00 00 00	 call	 ?_com_issue_errorex@@YGXJPAUIUnknown@@ABU_GUID@@@Z ; _com_issue_errorex
$LN65@ExecuteSen:
; File g:\网狐\happygamewh\服务端\系统模块\服务器组件\内核引擎\databaseengine.cpp

; 482  :             m_DBConnection->Execute(pszCommand, NULL, adExecuteNoRecords);

  000d7	68 80 00 00 00	 push	 128			; 00000080H
  000dc	6a 00		 push	 0
  000de	51		 push	 ecx
  000df	8b cc		 mov	 ecx, esp
  000e1	89 65 b4	 mov	 DWORD PTR $T2[ebp], esp
  000e4	8b 45 08	 mov	 eax, DWORD PTR _pszCommand$[ebp]
  000e7	50		 push	 eax
  000e8	e8 00 00 00 00	 call	 ??0_bstr_t@@QAE@PBD@Z	; _bstr_t::_bstr_t
  000ed	89 45 b0	 mov	 DWORD PTR tv259[ebp], eax
  000f0	c6 45 fc 02	 mov	 BYTE PTR __$EHRec$[ebp+12], 2
  000f4	8b 4d ec	 mov	 ecx, DWORD PTR _this$[ebp]
  000f7	83 c1 30	 add	 ecx, 48			; 00000030H
  000fa	89 4d d4	 mov	 DWORD PTR _this$[ebp], ecx
; File c:\program files (x86)\microsoft visual studio\2017\community\vc\tools\msvc\14.16.27023\include\comip.h

; 428  :         if (m_pInterface == NULL) {

  000fd	8b 55 d4	 mov	 edx, DWORD PTR _this$[ebp]
  00100	83 3a 00	 cmp	 DWORD PTR [edx], 0
  00103	75 0a		 jne	 SHORT $LN79@ExecuteSen

; 429  :             _com_issue_error(E_POINTER);

  00105	68 03 40 00 80	 push	 -2147467261		; 80004003H
  0010a	e8 00 00 00 00	 call	 ?_com_issue_error@@YGXJ@Z ; _com_issue_error
$LN79@ExecuteSen:
  0010f	8b 45 d4	 mov	 eax, DWORD PTR _this$[ebp]
  00112	8b 08		 mov	 ecx, DWORD PTR [eax]
  00114	89 4d c4	 mov	 DWORD PTR $T5[ebp], ecx
; File g:\网狐\happygamewh\服务端\系统模块\服务器组件\内核引擎\databaseengine.cpp

; 482  :             m_DBConnection->Execute(pszCommand, NULL, adExecuteNoRecords);

  00117	8d 55 e4	 lea	 edx, DWORD PTR $T9[ebp]
  0011a	52		 push	 edx
  0011b	c6 45 fc 00	 mov	 BYTE PTR __$EHRec$[ebp+12], 0
  0011f	8b 4d c4	 mov	 ecx, DWORD PTR $T5[ebp]
  00122	e8 00 00 00 00	 call	 ?Execute@Connection15@ADOCG@@QAE?AV?$_com_ptr_t@V?$_com_IIID@U_Recordset@ADOCG@@$1?_GUID_00000556_0000_0010_8000_00aa006d2ea4@@3U__s_GUID@@B@@@@V_bstr_t@@PAUtagVARIANT@@J@Z ; ADOCG::Connection15::Execute
  00127	89 45 ac	 mov	 DWORD PTR tv135[ebp], eax
; File c:\program files (x86)\microsoft visual studio\2017\community\vc\tools\msvc\14.16.27023\include\comip.h

; 817  :         if (m_pInterface != NULL) {

  0012a	83 7d e4 00	 cmp	 DWORD PTR $T9[ebp], 0
  0012e	74 0e		 je	 SHORT $LN118@ExecuteSen

; 818  :             m_pInterface->Release();

  00130	8b 45 e4	 mov	 eax, DWORD PTR $T9[ebp]
  00133	50		 push	 eax
  00134	8b 4d e4	 mov	 ecx, DWORD PTR $T9[ebp]
  00137	8b 11		 mov	 edx, DWORD PTR [ecx]
  00139	8b 42 08	 mov	 eax, DWORD PTR [edx+8]
  0013c	ff d0		 call	 eax
$LN118@ExecuteSen:
; File g:\网狐\happygamewh\服务端\系统模块\服务器组件\内核引擎\databaseengine.cpp

; 484  :             return;

  0013e	eb 64		 jmp	 SHORT $LN32@ExecuteSen
__catch$?ExecuteSentence@CDataBase@@UAEXPBD_N@Z$0:

; 485  :         }
; 486  :         catch (CComError & ComError)
; 487  :         {
; 488  :             // 连接判断
; 489  :             if (IsConnectError() == true)

  00140	8b 4d ec	 mov	 ecx, DWORD PTR _this$[ebp]
  00143	e8 00 00 00 00	 call	 ?IsConnectError@CDataBase@@IAE_NXZ ; CDataBase::IsConnectError
  00148	0f b6 c8	 movzx	 ecx, al
  0014b	83 f9 01	 cmp	 ecx, 1
  0014e	75 23		 jne	 SHORT $LN6@ExecuteSen

; 490  :             {
; 491  :                 // 重新连接
; 492  :                 if (TryConnectAgain(&ComError) == false)

  00150	8b 55 d0	 mov	 edx, DWORD PTR _ComError$7[ebp]
  00153	52		 push	 edx
  00154	8b 4d ec	 mov	 ecx, DWORD PTR _this$[ebp]
  00157	e8 00 00 00 00	 call	 ?TryConnectAgain@CDataBase@@IAE_NPAV_com_error@@@Z ; CDataBase::TryConnectAgain
  0015c	0f b6 c0	 movzx	 eax, al
  0015f	85 c0		 test	 eax, eax
  00161	75 0e		 jne	 SHORT $LN8@ExecuteSen

; 493  :                 {
; 494  :                     OnSQLException(SQLException_Connect, &ComError);

  00163	8b 4d d0	 mov	 ecx, DWORD PTR _ComError$7[ebp]
  00166	51		 push	 ecx
  00167	6a 01		 push	 1
  00169	8b 4d ec	 mov	 ecx, DWORD PTR _this$[ebp]
  0016c	e8 00 00 00 00	 call	 ?OnSQLException@CDataBase@@IAEXW4enSQLException@@PAV_com_error@@@Z ; CDataBase::OnSQLException
$LN8@ExecuteSen:

; 495  :                 }
; 496  :             }
; 497  :             else

  00171	eb 0e		 jmp	 SHORT $LN7@ExecuteSen
$LN6@ExecuteSen:

; 498  :             {
; 499  :                 // 抛出异常
; 500  :                 OnSQLException(SQLException_Syntax, &ComError);

  00173	8b 55 d0	 mov	 edx, DWORD PTR _ComError$7[ebp]
  00176	52		 push	 edx
  00177	6a 02		 push	 2
  00179	8b 4d ec	 mov	 ecx, DWORD PTR _this$[ebp]
  0017c	e8 00 00 00 00	 call	 ?OnSQLException@CDataBase@@IAEXW4enSQLException@@PAV_com_error@@@Z ; CDataBase::OnSQLException
$LN7@ExecuteSen:

; 501  :             }
; 502  :         }

  00181	b8 00 00 00 00	 mov	 eax, $LN16@ExecuteSen
  00186	c3		 ret	 0
  00187	c7 45 fc ff ff
	ff ff		 mov	 DWORD PTR __$EHRec$[ebp+12], -1
  0018e	eb 07		 jmp	 SHORT $LN2@ExecuteSen
$LN16@ExecuteSen:
; File c:\program files (x86)\microsoft visual studio\2017\community\vc\tools\msvc\14.16.27023\include\comip.h
  00190	c7 45 fc ff ff
	ff ff		 mov	 DWORD PTR __$EHRec$[ebp+12], -1
$LN2@ExecuteSen:
; File g:\网狐\happygamewh\服务端\系统模块\服务器组件\内核引擎\databaseengine.cpp

; 503  :     } while (TRUE);

  00197	b8 01 00 00 00	 mov	 eax, 1
  0019c	85 c0		 test	 eax, eax
  0019e	0f 85 92 fe ff
	ff		 jne	 $LN4@ExecuteSen
$LN32@ExecuteSen:

; 504  : 
; 505  :     return;
; 506  : }

  001a4	8b 4d f4	 mov	 ecx, DWORD PTR __$EHRec$[ebp+4]
  001a7	64 89 0d 00 00
	00 00		 mov	 DWORD PTR fs:0, ecx
  001ae	59		 pop	 ecx
  001af	5f		 pop	 edi
  001b0	5e		 pop	 esi
  001b1	5b		 pop	 ebx
  001b2	8b e5		 mov	 esp, ebp
  001b4	5d		 pop	 ebp
  001b5	c2 08 00	 ret	 8
_TEXT	ENDS
;	COMDAT text$x
text$x	SEGMENT
__unwindfunclet$?ExecuteSentence@CDataBase@@UAEXPBD_N@Z$2:
  00000	8b 4d bc	 mov	 ecx, DWORD PTR $T3[ebp]
  00003	e9 00 00 00 00	 jmp	 ??1_bstr_t@@QAE@XZ	; _bstr_t::~_bstr_t
__unwindfunclet$?ExecuteSentence@CDataBase@@UAEXPBD_N@Z$3:
  00008	8b 4d b4	 mov	 ecx, DWORD PTR $T2[ebp]
  0000b	e9 00 00 00 00	 jmp	 ??1_bstr_t@@QAE@XZ	; _bstr_t::~_bstr_t
__ehhandler$?ExecuteSentence@CDataBase@@UAEXPBD_N@Z:
  00010	8b 54 24 08	 mov	 edx, DWORD PTR [esp+8]
  00014	8d 42 0c	 lea	 eax, DWORD PTR [edx+12]
  00017	8b 4a a8	 mov	 ecx, DWORD PTR [edx-88]
  0001a	33 c8		 xor	 ecx, eax
  0001c	e8 00 00 00 00	 call	 @__security_check_cookie@4
  00021	b8 00 00 00 00	 mov	 eax, OFFSET __ehfuncinfo$?ExecuteSentence@CDataBase@@UAEXPBD_N@Z
  00026	e9 00 00 00 00	 jmp	 ___CxxFrameHandler3
text$x	ENDS
?ExecuteSentence@CDataBase@@UAEXPBD_N@Z ENDP		; CDataBase::ExecuteSentence
; Function compile flags: /Odtp
; File g:\网狐\happygamewh\服务端\系统模块\服务器组件\内核引擎\databaseengine.cpp
; File c:\program files (x86)\microsoft visual studio\2017\community\vc\tools\msvc\14.16.27023\include\comip.h
; File g:\网狐\happygamewh\服务端\系统模块\服务器组件\内核引擎\databaseengine.cpp
; File c:\program files (x86)\microsoft visual studio\2017\community\vc\tools\msvc\14.16.27023\include\comip.h
; File g:\网狐\happygamewh\服务端\中间目录\内核引擎\debug_ansi\msado15.tli
; File g:\网狐\happygamewh\服务端\系统模块\服务器组件\内核引擎\databaseengine.cpp
; File c:\program files (x86)\microsoft visual studio\2017\community\vc\tools\msvc\14.16.27023\include\comip.h
; File g:\网狐\happygamewh\服务端\系统模块\服务器组件\内核引擎\databaseengine.cpp
; File c:\program files (x86)\microsoft visual studio\2017\community\vc\tools\msvc\14.16.27023\include\comip.h
; File g:\网狐\happygamewh\服务端\中间目录\内核引擎\debug_ansi\msado15.tli
; File c:\program files (x86)\microsoft visual studio\2017\community\vc\tools\msvc\14.16.27023\include\comip.h
; File c:\program files (x86)\microsoft visual studio\2017\community\vc\tools\msvc\14.16.27023\include\comutil.h
; File g:\网狐\happygamewh\服务端\系统模块\服务器组件\内核引擎\databaseengine.cpp
; File c:\program files (x86)\microsoft visual studio\2017\community\vc\tools\msvc\14.16.27023\include\comip.h
; File g:\网狐\happygamewh\服务端\中间目录\内核引擎\debug_ansi\msado15.tli
; File g:\网狐\happygamewh\服务端\系统模块\服务器组件\内核引擎\databaseengine.cpp
; File c:\program files (x86)\microsoft visual studio\2017\community\vc\tools\msvc\14.16.27023\include\comutil.h
; File g:\网狐\happygamewh\服务端\系统模块\服务器组件\内核引擎\databaseengine.cpp
; File c:\program files (x86)\microsoft visual studio\2017\community\vc\tools\msvc\14.16.27023\include\comutil.h
; File g:\网狐\happygamewh\服务端\系统模块\服务器组件\内核引擎\databaseengine.cpp
; File c:\program files (x86)\microsoft visual studio\2017\community\vc\tools\msvc\14.16.27023\include\comip.h
; File g:\网狐\happygamewh\服务端\系统模块\服务器组件\内核引擎\databaseengine.cpp
; File c:\program files (x86)\microsoft visual studio\2017\community\vc\tools\msvc\14.16.27023\include\comip.h
; File g:\网狐\happygamewh\服务端\系统模块\服务器组件\内核引擎\databaseengine.cpp
; File c:\program files (x86)\microsoft visual studio\2017\community\vc\tools\msvc\14.16.27023\include\comip.h
; File g:\网狐\happygamewh\服务端\系统模块\服务器组件\内核引擎\databaseengine.cpp
; File c:\program files (x86)\microsoft visual studio\2017\community\vc\tools\msvc\14.16.27023\include\comip.h
; File g:\网狐\happygamewh\服务端\系统模块\服务器组件\内核引擎\databaseengine.cpp
;	COMDAT ?ExecuteProcess@CDataBase@@UAEXPBD_N@Z
_TEXT	SEGMENT
$T2 = -220						; size = 16
tv246 = -204						; size = 4
$T3 = -200						; size = 4
$T4 = -196						; size = 4
$T5 = -192						; size = 16
$T6 = -176						; size = 16
$T7 = -160						; size = 4
tv275 = -156						; size = 4
tv477 = -152						; size = 4
tv476 = -148						; size = 4
$T8 = -144						; size = 4
$T9 = -140						; size = 4
tv475 = -136						; size = 4
tv197 = -132						; size = 4
tv474 = -128						; size = 4
$T10 = -124						; size = 4
tv473 = -120						; size = 4
$T11 = -116						; size = 4
tv472 = -112						; size = 4
$T12 = -108						; size = 16
_ComError$13 = -92					; size = 4
tv229 = -88						; size = 4
tv468 = -84						; size = 4
_this$ = -80						; size = 4
tv179 = -76						; size = 4
_this$ = -72						; size = 4
__hr$14 = -68						; size = 4
_this$ = -64						; size = 4
__hr$15 = -60						; size = 4
_this$ = -56						; size = 4
_this$ = -52						; size = 4
$T16 = -48						; size = 4
$T17 = -44						; size = 4
__hr$18 = -40						; size = 4
$T19 = -36						; size = 4
$T20 = -32						; size = 4
$T21 = -28						; size = 4
$T22 = -22						; size = 1
$T23 = -21						; size = 1
_this$ = -20						; size = 4
__$EHRec$ = -16						; size = 16
_pszSPName$ = 8						; size = 4
_bRecordset$ = 12					; size = 1
?ExecuteProcess@CDataBase@@UAEXPBD_N@Z PROC		; CDataBase::ExecuteProcess, COMDAT
; _this$ = ecx

; 423  : {

  00000	55		 push	 ebp
  00001	8b ec		 mov	 ebp, esp
  00003	6a ff		 push	 -1
  00005	68 00 00 00 00	 push	 __ehhandler$?ExecuteProcess@CDataBase@@UAEXPBD_N@Z
  0000a	64 a1 00 00 00
	00		 mov	 eax, DWORD PTR fs:0
  00010	50		 push	 eax
  00011	51		 push	 ecx
  00012	81 ec cc 00 00
	00		 sub	 esp, 204		; 000000ccH
  00018	53		 push	 ebx
  00019	56		 push	 esi
  0001a	57		 push	 edi
  0001b	a1 00 00 00 00	 mov	 eax, DWORD PTR ___security_cookie
  00020	33 c5		 xor	 eax, ebp
  00022	50		 push	 eax
  00023	8d 45 f4	 lea	 eax, DWORD PTR __$EHRec$[ebp+4]
  00026	64 a3 00 00 00
	00		 mov	 DWORD PTR fs:0, eax
  0002c	89 65 f0	 mov	 DWORD PTR __$EHRec$[ebp], esp
  0002f	89 4d ec	 mov	 DWORD PTR _this$[ebp], ecx
  00032	c7 85 3c ff ff
	ff 00 00 00 00	 mov	 DWORD PTR $T4[ebp], 0
$LN4@ExecutePro:

; 424  :     // 执行命令
; 425  :     do
; 426  :     {
; 427  :         try

  0003c	c7 45 fc 00 00
	00 00		 mov	 DWORD PTR __$EHRec$[ebp+12], 0

; 428  :         {
; 429  :             // 关闭记录
; 430  :             CloseRecordset();

  00043	8b 45 ec	 mov	 eax, DWORD PTR _this$[ebp]
  00046	8b 10		 mov	 edx, DWORD PTR [eax]
  00048	8b 4d ec	 mov	 ecx, DWORD PTR _this$[ebp]
  0004b	8b 42 28	 mov	 eax, DWORD PTR [edx+40]
  0004e	ff d0		 call	 eax

; 433  :             m_DBCommand->CommandText = pszSPName;

  00050	51		 push	 ecx
  00051	8b cc		 mov	 ecx, esp
  00053	89 a5 38 ff ff
	ff		 mov	 DWORD PTR $T3[ebp], esp
  00059	8b 55 08	 mov	 edx, DWORD PTR _pszSPName$[ebp]
  0005c	52		 push	 edx
  0005d	e8 00 00 00 00	 call	 ??0_bstr_t@@QAE@PBD@Z	; _bstr_t::_bstr_t
  00062	89 85 34 ff ff
	ff		 mov	 DWORD PTR tv246[ebp], eax
  00068	c6 45 fc 01	 mov	 BYTE PTR __$EHRec$[ebp+12], 1
  0006c	8b 45 ec	 mov	 eax, DWORD PTR _this$[ebp]
  0006f	83 c0 28	 add	 eax, 40			; 00000028H
  00072	89 45 cc	 mov	 DWORD PTR _this$[ebp], eax
; File c:\program files (x86)\microsoft visual studio\2017\community\vc\tools\msvc\14.16.27023\include\comip.h

; 428  :         if (m_pInterface == NULL) {

  00075	8b 4d cc	 mov	 ecx, DWORD PTR _this$[ebp]
  00078	83 39 00	 cmp	 DWORD PTR [ecx], 0
  0007b	75 0a		 jne	 SHORT $LN38@ExecutePro

; 429  :             _com_issue_error(E_POINTER);

  0007d	68 03 40 00 80	 push	 -2147467261		; 80004003H
  00082	e8 00 00 00 00	 call	 ?_com_issue_error@@YGXJ@Z ; _com_issue_error
$LN38@ExecutePro:
  00087	8b 55 cc	 mov	 edx, DWORD PTR _this$[ebp]
  0008a	8b 02		 mov	 eax, DWORD PTR [edx]
  0008c	89 85 60 ff ff
	ff		 mov	 DWORD PTR $T7[ebp], eax
; File g:\网狐\happygamewh\服务端\系统模块\服务器组件\内核引擎\databaseengine.cpp

; 433  :             m_DBCommand->CommandText = pszSPName;

  00092	c6 45 fc 00	 mov	 BYTE PTR __$EHRec$[ebp+12], 0
  00096	8b 8d 60 ff ff
	ff		 mov	 ecx, DWORD PTR $T7[ebp]
  0009c	e8 00 00 00 00	 call	 ?PutCommandText@Command15@ADOCG@@QAEXV_bstr_t@@@Z ; ADOCG::Command15::PutCommandText

; 434  :             m_DBRecordset->CursorLocation = adUseClient;

  000a1	8b 4d ec	 mov	 ecx, DWORD PTR _this$[ebp]
  000a4	83 c1 2c	 add	 ecx, 44			; 0000002cH
  000a7	89 4d c8	 mov	 DWORD PTR _this$[ebp], ecx
; File c:\program files (x86)\microsoft visual studio\2017\community\vc\tools\msvc\14.16.27023\include\comip.h

; 428  :         if (m_pInterface == NULL) {

  000aa	8b 55 c8	 mov	 edx, DWORD PTR _this$[ebp]
  000ad	83 3a 00	 cmp	 DWORD PTR [edx], 0
  000b0	75 0a		 jne	 SHORT $LN67@ExecutePro

; 429  :             _com_issue_error(E_POINTER);

  000b2	68 03 40 00 80	 push	 -2147467261		; 80004003H
  000b7	e8 00 00 00 00	 call	 ?_com_issue_error@@YGXJ@Z ; _com_issue_error
$LN67@ExecutePro:
  000bc	8b 45 c8	 mov	 eax, DWORD PTR _this$[ebp]
  000bf	8b 08		 mov	 ecx, DWORD PTR [eax]
  000c1	89 4d e4	 mov	 DWORD PTR $T21[ebp], ecx
; File g:\网狐\happygamewh\服务端\中间目录\内核引擎\debug_ansi\msado15.tli

; 1708 :     HRESULT _hr = put_CursorLocation(plCursorLoc);

  000c4	6a 03		 push	 3
  000c6	8b 55 e4	 mov	 edx, DWORD PTR $T21[ebp]
  000c9	52		 push	 edx
  000ca	8b 45 e4	 mov	 eax, DWORD PTR $T21[ebp]
  000cd	8b 08		 mov	 ecx, DWORD PTR [eax]
  000cf	8b 91 f0 00 00
	00		 mov	 edx, DWORD PTR [ecx+240]
  000d5	ff d2		 call	 edx
  000d7	89 45 90	 mov	 DWORD PTR tv472[ebp], eax
  000da	8b 45 90	 mov	 eax, DWORD PTR tv472[ebp]
  000dd	89 45 c4	 mov	 DWORD PTR __hr$15[ebp], eax

; 1709 :     if (FAILED(_hr)) _com_issue_errorex(_hr, this, __uuidof(this));

  000e0	83 7d c4 00	 cmp	 DWORD PTR __hr$15[ebp], 0
  000e4	7d 12		 jge	 SHORT $LN69@ExecutePro
  000e6	68 00 00 00 00	 push	 OFFSET __GUID_0000050e_0000_0010_8000_00aa006d2ea4
  000eb	8b 4d e4	 mov	 ecx, DWORD PTR $T21[ebp]
  000ee	51		 push	 ecx
  000ef	8b 55 c4	 mov	 edx, DWORD PTR __hr$15[ebp]
  000f2	52		 push	 edx
  000f3	e8 00 00 00 00	 call	 ?_com_issue_errorex@@YGXJPAUIUnknown@@ABU_GUID@@@Z ; _com_issue_errorex
$LN69@ExecutePro:
; File g:\网狐\happygamewh\服务端\系统模块\服务器组件\内核引擎\databaseengine.cpp

; 437  :             if (bRecordset == true)

  000f8	0f b6 45 0c	 movzx	 eax, BYTE PTR _bRecordset$[ebp]
  000fc	83 f8 01	 cmp	 eax, 1
  000ff	0f 85 3b 02 00
	00		 jne	 $LN6@ExecutePro
; File c:\program files (x86)\microsoft visual studio\2017\community\vc\tools\msvc\14.16.27023\include\comip.h

; 385  :         return m_pInterface;

  00105	8b 4d ec	 mov	 ecx, DWORD PTR _this$[ebp]
  00108	8b 51 28	 mov	 edx, DWORD PTR [ecx+40]
  0010b	89 55 8c	 mov	 DWORD PTR $T11[ebp], edx
; File g:\网狐\happygamewh\服务端\系统模块\服务器组件\内核引擎\databaseengine.cpp

; 439  :                 m_DBRecordset->PutRefSource(m_DBCommand);

  0010e	8b 45 ec	 mov	 eax, DWORD PTR _this$[ebp]
  00111	83 c0 2c	 add	 eax, 44			; 0000002cH
  00114	89 45 c0	 mov	 DWORD PTR _this$[ebp], eax
; File c:\program files (x86)\microsoft visual studio\2017\community\vc\tools\msvc\14.16.27023\include\comip.h

; 428  :         if (m_pInterface == NULL) {

  00117	8b 4d c0	 mov	 ecx, DWORD PTR _this$[ebp]
  0011a	83 39 00	 cmp	 DWORD PTR [ecx], 0
  0011d	75 0a		 jne	 SHORT $LN75@ExecutePro

; 429  :             _com_issue_error(E_POINTER);

  0011f	68 03 40 00 80	 push	 -2147467261		; 80004003H
  00124	e8 00 00 00 00	 call	 ?_com_issue_error@@YGXJ@Z ; _com_issue_error
$LN75@ExecutePro:
  00129	8b 55 c0	 mov	 edx, DWORD PTR _this$[ebp]
  0012c	8b 02		 mov	 eax, DWORD PTR [edx]
  0012e	89 45 e0	 mov	 DWORD PTR $T20[ebp], eax
; File g:\网狐\happygamewh\服务端\中间目录\内核引擎\debug_ansi\msado15.tli

; 1501 :     HRESULT _hr = putref_Source(pvSource);

  00131	8b 4d 8c	 mov	 ecx, DWORD PTR $T11[ebp]
  00134	51		 push	 ecx
  00135	8b 55 e0	 mov	 edx, DWORD PTR $T20[ebp]
  00138	52		 push	 edx
  00139	8b 45 e0	 mov	 eax, DWORD PTR $T20[ebp]
  0013c	8b 08		 mov	 ecx, DWORD PTR [eax]
  0013e	8b 51 6c	 mov	 edx, DWORD PTR [ecx+108]
  00141	ff d2		 call	 edx
  00143	89 45 88	 mov	 DWORD PTR tv473[ebp], eax
  00146	8b 45 88	 mov	 eax, DWORD PTR tv473[ebp]
  00149	89 45 bc	 mov	 DWORD PTR __hr$14[ebp], eax

; 1502 :     if (FAILED(_hr)) _com_issue_errorex(_hr, this, __uuidof(this));

  0014c	83 7d bc 00	 cmp	 DWORD PTR __hr$14[ebp], 0
  00150	7d 12		 jge	 SHORT $LN77@ExecutePro
  00152	68 00 00 00 00	 push	 OFFSET __GUID_0000050e_0000_0010_8000_00aa006d2ea4
  00157	8b 4d e0	 mov	 ecx, DWORD PTR $T20[ebp]
  0015a	51		 push	 ecx
  0015b	8b 55 bc	 mov	 edx, DWORD PTR __hr$14[ebp]
  0015e	52		 push	 edx
  0015f	e8 00 00 00 00	 call	 ?_com_issue_errorex@@YGXJPAUIUnknown@@ABU_GUID@@@Z ; _com_issue_errorex
$LN77@ExecutePro:
; File c:\program files (x86)\microsoft visual studio\2017\community\vc\tools\msvc\14.16.27023\include\comip.h

; 385  :         return m_pInterface;

  00164	8b 45 ec	 mov	 eax, DWORD PTR _this$[ebp]
  00167	8b 48 28	 mov	 ecx, DWORD PTR [eax+40]
  0016a	89 4d 84	 mov	 DWORD PTR $T10[ebp], ecx
; File c:\program files (x86)\microsoft visual studio\2017\community\vc\tools\msvc\14.16.27023\include\comutil.h

; 1301 :     V_VT(this) = VT_DISPATCH;

  0016d	ba 09 00 00 00	 mov	 edx, 9
  00172	66 89 55 94	 mov	 WORD PTR $T12[ebp], dx

; 1302 :     V_DISPATCH(this) = pSrc;

  00176	8b 45 84	 mov	 eax, DWORD PTR $T10[ebp]
  00179	89 45 9c	 mov	 DWORD PTR $T12[ebp+8], eax

; 1303 : 
; 1304 :     // Need the AddRef() as VariantClear() calls Release(), unless fAddRef
; 1305 :     // false indicates we're taking ownership
; 1306 :     //
; 1307 :     if (fAddRef) {

  0017c	b9 01 00 00 00	 mov	 ecx, 1
  00181	85 c9		 test	 ecx, ecx
  00183	74 14		 je	 SHORT $LN82@ExecutePro

; 1308 :         if (V_DISPATCH(this) != NULL) {

  00185	83 7d 9c 00	 cmp	 DWORD PTR $T12[ebp+8], 0
  00189	74 0e		 je	 SHORT $LN82@ExecutePro

; 1309 :             V_DISPATCH(this)->AddRef();

  0018b	8b 55 9c	 mov	 edx, DWORD PTR $T12[ebp+8]
  0018e	52		 push	 edx
  0018f	8b 45 9c	 mov	 eax, DWORD PTR $T12[ebp+8]
  00192	8b 08		 mov	 ecx, DWORD PTR [eax]
  00194	8b 51 04	 mov	 edx, DWORD PTR [ecx+4]
  00197	ff d2		 call	 edx
$LN82@ExecutePro:
; File g:\网狐\happygamewh\服务端\系统模块\服务器组件\内核引擎\databaseengine.cpp

; 440  :                 EfficacyResult(m_DBRecordset->Open((IDispatch *)m_DBCommand, vtMissing, adOpenForwardOnly, adLockReadOnly, adOptionUnspecified));

  00199	c6 45 fc 02	 mov	 BYTE PTR __$EHRec$[ebp+12], 2
  0019d	8b 45 ec	 mov	 eax, DWORD PTR _this$[ebp]
  001a0	83 c0 2c	 add	 eax, 44			; 0000002cH
  001a3	89 45 b8	 mov	 DWORD PTR _this$[ebp], eax
; File c:\program files (x86)\microsoft visual studio\2017\community\vc\tools\msvc\14.16.27023\include\comip.h

; 428  :         if (m_pInterface == NULL) {

  001a6	8b 4d b8	 mov	 ecx, DWORD PTR _this$[ebp]
  001a9	83 39 00	 cmp	 DWORD PTR [ecx], 0
  001ac	75 0a		 jne	 SHORT $LN87@ExecutePro

; 429  :             _com_issue_error(E_POINTER);

  001ae	68 03 40 00 80	 push	 -2147467261		; 80004003H
  001b3	e8 00 00 00 00	 call	 ?_com_issue_error@@YGXJ@Z ; _com_issue_error
$LN87@ExecutePro:
  001b8	8b 55 b8	 mov	 edx, DWORD PTR _this$[ebp]
  001bb	8b 02		 mov	 eax, DWORD PTR [edx]
  001bd	89 45 dc	 mov	 DWORD PTR $T19[ebp], eax
; File g:\网狐\happygamewh\服务端\中间目录\内核引擎\debug_ansi\msado15.tli

; 1581 :     HRESULT _hr = raw_Open(Source, ActiveConnection, CursorType, LockType, Options);

  001c0	8b 0d 00 00 00
	00		 mov	 ecx, DWORD PTR ?vtMissing@@3V_variant_t@@A
  001c6	89 8d 50 ff ff
	ff		 mov	 DWORD PTR $T6[ebp], ecx
  001cc	8b 15 04 00 00
	00		 mov	 edx, DWORD PTR ?vtMissing@@3V_variant_t@@A+4
  001d2	89 95 54 ff ff
	ff		 mov	 DWORD PTR $T6[ebp+4], edx
  001d8	a1 08 00 00 00	 mov	 eax, DWORD PTR ?vtMissing@@3V_variant_t@@A+8
  001dd	89 85 58 ff ff
	ff		 mov	 DWORD PTR $T6[ebp+8], eax
  001e3	8b 0d 0c 00 00
	00		 mov	 ecx, DWORD PTR ?vtMissing@@3V_variant_t@@A+12
  001e9	89 8d 5c ff ff
	ff		 mov	 DWORD PTR $T6[ebp+12], ecx
  001ef	8b 55 94	 mov	 edx, DWORD PTR $T12[ebp]
  001f2	89 95 40 ff ff
	ff		 mov	 DWORD PTR $T5[ebp], edx
  001f8	8b 45 98	 mov	 eax, DWORD PTR $T12[ebp+4]
  001fb	89 85 44 ff ff
	ff		 mov	 DWORD PTR $T5[ebp+4], eax
  00201	8b 4d 9c	 mov	 ecx, DWORD PTR $T12[ebp+8]
  00204	89 8d 48 ff ff
	ff		 mov	 DWORD PTR $T5[ebp+8], ecx
  0020a	8b 55 a0	 mov	 edx, DWORD PTR $T12[ebp+12]
  0020d	89 95 4c ff ff
	ff		 mov	 DWORD PTR $T5[ebp+12], edx
  00213	6a ff		 push	 -1
  00215	6a 01		 push	 1
  00217	6a 00		 push	 0
  00219	83 ec 10	 sub	 esp, 16			; 00000010H
  0021c	8b c4		 mov	 eax, esp
  0021e	8b 8d 50 ff ff
	ff		 mov	 ecx, DWORD PTR $T6[ebp]
  00224	89 08		 mov	 DWORD PTR [eax], ecx
  00226	8b 95 54 ff ff
	ff		 mov	 edx, DWORD PTR $T6[ebp+4]
  0022c	89 50 04	 mov	 DWORD PTR [eax+4], edx
  0022f	8b 8d 58 ff ff
	ff		 mov	 ecx, DWORD PTR $T6[ebp+8]
  00235	89 48 08	 mov	 DWORD PTR [eax+8], ecx
  00238	8b 95 5c ff ff
	ff		 mov	 edx, DWORD PTR $T6[ebp+12]
  0023e	89 50 0c	 mov	 DWORD PTR [eax+12], edx
  00241	83 ec 10	 sub	 esp, 16			; 00000010H
  00244	8b c4		 mov	 eax, esp
  00246	8b 8d 40 ff ff
	ff		 mov	 ecx, DWORD PTR $T5[ebp]
  0024c	89 08		 mov	 DWORD PTR [eax], ecx
  0024e	8b 95 44 ff ff
	ff		 mov	 edx, DWORD PTR $T5[ebp+4]
  00254	89 50 04	 mov	 DWORD PTR [eax+4], edx
  00257	8b 8d 48 ff ff
	ff		 mov	 ecx, DWORD PTR $T5[ebp+8]
  0025d	89 48 08	 mov	 DWORD PTR [eax+8], ecx
  00260	8b 95 4c ff ff
	ff		 mov	 edx, DWORD PTR $T5[ebp+12]
  00266	89 50 0c	 mov	 DWORD PTR [eax+12], edx
  00269	8b 45 dc	 mov	 eax, DWORD PTR $T19[ebp]
  0026c	50		 push	 eax
  0026d	8b 4d dc	 mov	 ecx, DWORD PTR $T19[ebp]
  00270	8b 11		 mov	 edx, DWORD PTR [ecx]
  00272	8b 82 a0 00 00
	00		 mov	 eax, DWORD PTR [edx+160]
  00278	ff d0		 call	 eax
  0027a	89 45 80	 mov	 DWORD PTR tv474[ebp], eax
  0027d	8b 4d 80	 mov	 ecx, DWORD PTR tv474[ebp]
  00280	89 4d d8	 mov	 DWORD PTR __hr$18[ebp], ecx

; 1582 :     if (FAILED(_hr)) _com_issue_errorex(_hr, this, __uuidof(this));

  00283	83 7d d8 00	 cmp	 DWORD PTR __hr$18[ebp], 0
  00287	7d 12		 jge	 SHORT $LN89@ExecutePro
  00289	68 00 00 00 00	 push	 OFFSET __GUID_0000050e_0000_0010_8000_00aa006d2ea4
  0028e	8b 55 dc	 mov	 edx, DWORD PTR $T19[ebp]
  00291	52		 push	 edx
  00292	8b 45 d8	 mov	 eax, DWORD PTR __hr$18[ebp]
  00295	50		 push	 eax
  00296	e8 00 00 00 00	 call	 ?_com_issue_errorex@@YGXJPAUIUnknown@@ABU_GUID@@@Z ; _com_issue_errorex
$LN89@ExecutePro:
; File g:\网狐\happygamewh\服务端\系统模块\服务器组件\内核引擎\databaseengine.cpp

; 440  :                 EfficacyResult(m_DBRecordset->Open((IDispatch *)m_DBCommand, vtMissing, adOpenForwardOnly, adLockReadOnly, adOptionUnspecified));

  0029b	83 7d d8 00	 cmp	 DWORD PTR __hr$18[ebp], 0
  0029f	7d 09		 jge	 SHORT $LN14@ExecutePro
  002a1	c7 45 b4 01 00
	00 00		 mov	 DWORD PTR tv179[ebp], 1
  002a8	eb 07		 jmp	 SHORT $LN15@ExecutePro
$LN14@ExecutePro:
  002aa	c7 45 b4 00 00
	00 00		 mov	 DWORD PTR tv179[ebp], 0
$LN15@ExecutePro:
  002b1	8a 4d b4	 mov	 cl, BYTE PTR tv179[ebp]
  002b4	88 4d eb	 mov	 BYTE PTR $T23[ebp], cl
  002b7	c6 45 fc 00	 mov	 BYTE PTR __$EHRec$[ebp+12], 0
; File c:\program files (x86)\microsoft visual studio\2017\community\vc\tools\msvc\14.16.27023\include\comutil.h

; 2334 :     ::VariantClear(this);

  002bb	8d 55 94	 lea	 edx, DWORD PTR $T12[ebp]
  002be	52		 push	 edx
  002bf	ff 15 00 00 00
	00		 call	 DWORD PTR __imp__VariantClear@4
; File g:\网狐\happygamewh\服务端\系统模块\服务器组件\内核引擎\databaseengine.cpp

; 440  :                 EfficacyResult(m_DBRecordset->Open((IDispatch *)m_DBCommand, vtMissing, adOpenForwardOnly, adLockReadOnly, adOptionUnspecified));

  002c5	0f b6 45 eb	 movzx	 eax, BYTE PTR $T23[ebp]
  002c9	85 c0		 test	 eax, eax
  002cb	74 6e		 je	 SHORT $LN8@ExecutePro
  002cd	6a 01		 push	 1
  002cf	8b 4d ec	 mov	 ecx, DWORD PTR _this$[ebp]
  002d2	83 c1 28	 add	 ecx, 40			; 00000028H
  002d5	e8 00 00 00 00	 call	 ??B?$_com_ptr_t@V?$_com_IIID@U_Command@ADOCG@@$1?_GUID_b08400bd_f9d1_4d02_b856_71d5dba123e9@@3U__s_GUID@@B@@@@QBEPAU_Command@ADOCG@@XZ ; _com_ptr_t<_com_IIID<ADOCG::_Command,&_GUID_b08400bd_f9d1_4d02_b856_71d5dba123e9> >::operator ADOCG::_Command *
  002da	50		 push	 eax
  002db	8d 8d 24 ff ff
	ff		 lea	 ecx, DWORD PTR $T2[ebp]
  002e1	e8 00 00 00 00	 call	 ??0_variant_t@@QAE@PAUIDispatch@@_N@Z ; _variant_t::_variant_t
  002e6	c6 45 fc 03	 mov	 BYTE PTR __$EHRec$[ebp+12], 3
  002ea	8b 4d ec	 mov	 ecx, DWORD PTR _this$[ebp]
  002ed	83 c1 2c	 add	 ecx, 44			; 0000002cH
  002f0	e8 00 00 00 00	 call	 ??C?$_com_ptr_t@V?$_com_IIID@U_Recordset@ADOCG@@$1?_GUID_00000556_0000_0010_8000_00aa006d2ea4@@3U__s_GUID@@B@@@@QBEPAU_Recordset@ADOCG@@XZ ; _com_ptr_t<_com_IIID<ADOCG::_Recordset,&_GUID_00000556_0000_0010_8000_00aa006d2ea4> >::operator->
  002f5	89 85 7c ff ff
	ff		 mov	 DWORD PTR tv197[ebp], eax
  002fb	6a ff		 push	 -1
  002fd	6a 01		 push	 1
  002ff	6a 00		 push	 0
  00301	68 00 00 00 00	 push	 OFFSET ?vtMissing@@3V_variant_t@@A ; vtMissing
  00306	8d 8d 24 ff ff
	ff		 lea	 ecx, DWORD PTR $T2[ebp]
  0030c	51		 push	 ecx
  0030d	8b 8d 7c ff ff
	ff		 mov	 ecx, DWORD PTR tv197[ebp]
  00313	e8 00 00 00 00	 call	 ?Open@Recordset15@ADOCG@@QAEJABV_variant_t@@0W4CursorTypeEnum@2@W4LockTypeEnum@2@J@Z ; ADOCG::Recordset15::Open
  00318	89 85 78 ff ff
	ff		 mov	 DWORD PTR tv475[ebp], eax
  0031e	8b 95 78 ff ff
	ff		 mov	 edx, DWORD PTR tv475[ebp]
  00324	52		 push	 edx
  00325	e8 00 00 00 00	 call	 ?_com_issue_error@@YGXJ@Z ; _com_issue_error
  0032a	c6 45 fc 00	 mov	 BYTE PTR __$EHRec$[ebp+12], 0
; File c:\program files (x86)\microsoft visual studio\2017\community\vc\tools\msvc\14.16.27023\include\comutil.h

; 2334 :     ::VariantClear(this);

  0032e	8d 85 24 ff ff
	ff		 lea	 eax, DWORD PTR $T2[ebp]
  00334	50		 push	 eax
  00335	ff 15 00 00 00
	00		 call	 DWORD PTR __imp__VariantClear@4
$LN8@ExecutePro:
; File g:\网狐\happygamewh\服务端\系统模块\服务器组件\内核引擎\databaseengine.cpp

; 442  :             else

  0033b	e9 04 01 00 00	 jmp	 $LN7@ExecutePro
$LN6@ExecutePro:

; 444  :                 EfficacyResult(m_DBCommand->Execute(NULL, NULL, adExecuteNoRecords));

  00340	8b 4d ec	 mov	 ecx, DWORD PTR _this$[ebp]
  00343	83 c1 28	 add	 ecx, 40			; 00000028H
  00346	89 4d b0	 mov	 DWORD PTR _this$[ebp], ecx
; File c:\program files (x86)\microsoft visual studio\2017\community\vc\tools\msvc\14.16.27023\include\comip.h

; 428  :         if (m_pInterface == NULL) {

  00349	8b 55 b0	 mov	 edx, DWORD PTR _this$[ebp]
  0034c	83 3a 00	 cmp	 DWORD PTR [edx], 0
  0034f	75 0a		 jne	 SHORT $LN97@ExecutePro

; 429  :             _com_issue_error(E_POINTER);

  00351	68 03 40 00 80	 push	 -2147467261		; 80004003H
  00356	e8 00 00 00 00	 call	 ?_com_issue_error@@YGXJ@Z ; _com_issue_error
$LN97@ExecutePro:
  0035b	8b 45 b0	 mov	 eax, DWORD PTR _this$[ebp]
  0035e	8b 08		 mov	 ecx, DWORD PTR [eax]
  00360	89 8d 74 ff ff
	ff		 mov	 DWORD PTR $T9[ebp], ecx
; File g:\网狐\happygamewh\服务端\系统模块\服务器组件\内核引擎\databaseengine.cpp

; 444  :                 EfficacyResult(m_DBCommand->Execute(NULL, NULL, adExecuteNoRecords));

  00366	68 80 00 00 00	 push	 128			; 00000080H
  0036b	6a 00		 push	 0
  0036d	6a 00		 push	 0
  0036f	8d 55 d4	 lea	 edx, DWORD PTR $T17[ebp]
  00372	52		 push	 edx
  00373	8b 8d 74 ff ff
	ff		 mov	 ecx, DWORD PTR $T9[ebp]
  00379	e8 00 00 00 00	 call	 ?Execute@Command15@ADOCG@@QAE?AV?$_com_ptr_t@V?$_com_IIID@U_Recordset@ADOCG@@$1?_GUID_00000556_0000_0010_8000_00aa006d2ea4@@3U__s_GUID@@B@@@@PAUtagVARIANT@@0J@Z ; ADOCG::Command15::Execute
  0037e	89 85 70 ff ff
	ff		 mov	 DWORD PTR $T8[ebp], eax
; File c:\program files (x86)\microsoft visual studio\2017\community\vc\tools\msvc\14.16.27023\include\comip.h

; 441  :         return m_pInterface != NULL;

  00384	8b 85 70 ff ff
	ff		 mov	 eax, DWORD PTR $T8[ebp]
  0038a	83 38 00	 cmp	 DWORD PTR [eax], 0
  0038d	74 09		 je	 SHORT $LN112@ExecutePro
  0038f	c7 45 ac 01 00
	00 00		 mov	 DWORD PTR tv468[ebp], 1
  00396	eb 07		 jmp	 SHORT $LN110@ExecutePro
$LN112@ExecutePro:
  00398	c7 45 ac 00 00
	00 00		 mov	 DWORD PTR tv468[ebp], 0
$LN110@ExecutePro:
; File g:\网狐\happygamewh\服务端\系统模块\服务器组件\内核引擎\databaseengine.cpp

; 444  :                 EfficacyResult(m_DBCommand->Execute(NULL, NULL, adExecuteNoRecords));

  0039f	0f b6 4d ac	 movzx	 ecx, BYTE PTR tv468[ebp]
  003a3	85 c9		 test	 ecx, ecx
  003a5	7d 09		 jge	 SHORT $LN16@ExecutePro
  003a7	c7 45 a8 01 00
	00 00		 mov	 DWORD PTR tv229[ebp], 1
  003ae	eb 07		 jmp	 SHORT $LN17@ExecutePro
$LN16@ExecutePro:
  003b0	c7 45 a8 00 00
	00 00		 mov	 DWORD PTR tv229[ebp], 0
$LN17@ExecutePro:
  003b7	8a 55 a8	 mov	 dl, BYTE PTR tv229[ebp]
  003ba	88 55 ea	 mov	 BYTE PTR $T22[ebp], dl
; File c:\program files (x86)\microsoft visual studio\2017\community\vc\tools\msvc\14.16.27023\include\comip.h

; 817  :         if (m_pInterface != NULL) {

  003bd	83 7d d4 00	 cmp	 DWORD PTR $T17[ebp], 0
  003c1	74 0e		 je	 SHORT $LN114@ExecutePro

; 818  :             m_pInterface->Release();

  003c3	8b 45 d4	 mov	 eax, DWORD PTR $T17[ebp]
  003c6	50		 push	 eax
  003c7	8b 4d d4	 mov	 ecx, DWORD PTR $T17[ebp]
  003ca	8b 11		 mov	 edx, DWORD PTR [ecx]
  003cc	8b 42 08	 mov	 eax, DWORD PTR [edx+8]
  003cf	ff d0		 call	 eax
$LN114@ExecutePro:
; File g:\网狐\happygamewh\服务端\系统模块\服务器组件\内核引擎\databaseengine.cpp

; 444  :                 EfficacyResult(m_DBCommand->Execute(NULL, NULL, adExecuteNoRecords));

  003d1	0f b6 4d ea	 movzx	 ecx, BYTE PTR $T22[ebp]
  003d5	85 c9		 test	 ecx, ecx
  003d7	74 6b		 je	 SHORT $LN7@ExecutePro
  003d9	8b 4d ec	 mov	 ecx, DWORD PTR _this$[ebp]
  003dc	83 c1 28	 add	 ecx, 40			; 00000028H
  003df	e8 00 00 00 00	 call	 ??C?$_com_ptr_t@V?$_com_IIID@U_Command@ADOCG@@$1?_GUID_b08400bd_f9d1_4d02_b856_71d5dba123e9@@3U__s_GUID@@B@@@@QBEPAU_Command@ADOCG@@XZ ; _com_ptr_t<_com_IIID<ADOCG::_Command,&_GUID_b08400bd_f9d1_4d02_b856_71d5dba123e9> >::operator->
  003e4	89 85 6c ff ff
	ff		 mov	 DWORD PTR tv476[ebp], eax
  003ea	68 80 00 00 00	 push	 128			; 00000080H
  003ef	6a 00		 push	 0
  003f1	6a 00		 push	 0
  003f3	8d 55 d0	 lea	 edx, DWORD PTR $T16[ebp]
  003f6	52		 push	 edx
  003f7	8b 8d 6c ff ff
	ff		 mov	 ecx, DWORD PTR tv476[ebp]
  003fd	e8 00 00 00 00	 call	 ?Execute@Command15@ADOCG@@QAE?AV?$_com_ptr_t@V?$_com_IIID@U_Recordset@ADOCG@@$1?_GUID_00000556_0000_0010_8000_00aa006d2ea4@@3U__s_GUID@@B@@@@PAUtagVARIANT@@0J@Z ; ADOCG::Command15::Execute
  00402	89 85 68 ff ff
	ff		 mov	 DWORD PTR tv477[ebp], eax
  00408	8b 85 68 ff ff
	ff		 mov	 eax, DWORD PTR tv477[ebp]
  0040e	89 85 64 ff ff
	ff		 mov	 DWORD PTR tv275[ebp], eax
  00414	c6 45 fc 04	 mov	 BYTE PTR __$EHRec$[ebp+12], 4
  00418	8b 8d 64 ff ff
	ff		 mov	 ecx, DWORD PTR tv275[ebp]
  0041e	e8 00 00 00 00	 call	 ??B?$_com_ptr_t@V?$_com_IIID@U_Recordset@ADOCG@@$1?_GUID_00000556_0000_0010_8000_00aa006d2ea4@@3U__s_GUID@@B@@@@QBE_NXZ ; _com_ptr_t<_com_IIID<ADOCG::_Recordset,&_GUID_00000556_0000_0010_8000_00aa006d2ea4> >::operator bool
  00423	0f b6 c8	 movzx	 ecx, al
  00426	51		 push	 ecx
  00427	e8 00 00 00 00	 call	 ?_com_issue_error@@YGXJ@Z ; _com_issue_error
  0042c	c6 45 fc 00	 mov	 BYTE PTR __$EHRec$[ebp+12], 0
; File c:\program files (x86)\microsoft visual studio\2017\community\vc\tools\msvc\14.16.27023\include\comip.h

; 817  :         if (m_pInterface != NULL) {

  00430	83 7d d0 00	 cmp	 DWORD PTR $T16[ebp], 0
  00434	74 0e		 je	 SHORT $LN7@ExecutePro

; 818  :             m_pInterface->Release();

  00436	8b 55 d0	 mov	 edx, DWORD PTR $T16[ebp]
  00439	52		 push	 edx
  0043a	8b 45 d0	 mov	 eax, DWORD PTR $T16[ebp]
  0043d	8b 08		 mov	 ecx, DWORD PTR [eax]
  0043f	8b 51 08	 mov	 edx, DWORD PTR [ecx+8]
  00442	ff d2		 call	 edx
$LN7@ExecutePro:
; File g:\网狐\happygamewh\服务端\系统模块\服务器组件\内核引擎\databaseengine.cpp

; 447  :             return;

  00444	eb 64		 jmp	 SHORT $LN40@ExecutePro
__catch$?ExecuteProcess@CDataBase@@UAEXPBD_N@Z$0:

; 448  :         }
; 449  :         catch (CComError & ComError)
; 450  :         {
; 451  :             // 连接判断
; 452  :             if (IsConnectError() == true)

  00446	8b 4d ec	 mov	 ecx, DWORD PTR _this$[ebp]
  00449	e8 00 00 00 00	 call	 ?IsConnectError@CDataBase@@IAE_NXZ ; CDataBase::IsConnectError
  0044e	0f b6 c0	 movzx	 eax, al
  00451	83 f8 01	 cmp	 eax, 1
  00454	75 23		 jne	 SHORT $LN10@ExecutePro

; 453  :             {
; 454  :                 // 重新连接
; 455  :                 if (TryConnectAgain(&ComError) == false)

  00456	8b 4d a4	 mov	 ecx, DWORD PTR _ComError$13[ebp]
  00459	51		 push	 ecx
  0045a	8b 4d ec	 mov	 ecx, DWORD PTR _this$[ebp]
  0045d	e8 00 00 00 00	 call	 ?TryConnectAgain@CDataBase@@IAE_NPAV_com_error@@@Z ; CDataBase::TryConnectAgain
  00462	0f b6 d0	 movzx	 edx, al
  00465	85 d2		 test	 edx, edx
  00467	75 0e		 jne	 SHORT $LN12@ExecutePro

; 456  :                 {
; 457  :                     OnSQLException(SQLException_Connect, &ComError);

  00469	8b 45 a4	 mov	 eax, DWORD PTR _ComError$13[ebp]
  0046c	50		 push	 eax
  0046d	6a 01		 push	 1
  0046f	8b 4d ec	 mov	 ecx, DWORD PTR _this$[ebp]
  00472	e8 00 00 00 00	 call	 ?OnSQLException@CDataBase@@IAEXW4enSQLException@@PAV_com_error@@@Z ; CDataBase::OnSQLException
$LN12@ExecutePro:

; 458  :                 }
; 459  :             }
; 460  :             else

  00477	eb 0e		 jmp	 SHORT $LN11@ExecutePro
$LN10@ExecutePro:

; 461  :             {
; 462  :                 // 抛出异常
; 463  :                 OnSQLException(SQLException_Syntax, &ComError);

  00479	8b 4d a4	 mov	 ecx, DWORD PTR _ComError$13[ebp]
  0047c	51		 push	 ecx
  0047d	6a 02		 push	 2
  0047f	8b 4d ec	 mov	 ecx, DWORD PTR _this$[ebp]
  00482	e8 00 00 00 00	 call	 ?OnSQLException@CDataBase@@IAEXW4enSQLException@@PAV_com_error@@@Z ; CDataBase::OnSQLException
$LN11@ExecutePro:

; 464  :             }
; 465  :         }

  00487	b8 00 00 00 00	 mov	 eax, $LN26@ExecutePro
  0048c	c3		 ret	 0
  0048d	c7 45 fc ff ff
	ff ff		 mov	 DWORD PTR __$EHRec$[ebp+12], -1
  00494	eb 07		 jmp	 SHORT $LN2@ExecutePro
$LN26@ExecutePro:
; File c:\program files (x86)\microsoft visual studio\2017\community\vc\tools\msvc\14.16.27023\include\comip.h
  00496	c7 45 fc ff ff
	ff ff		 mov	 DWORD PTR __$EHRec$[ebp+12], -1
$LN2@ExecutePro:
; File g:\网狐\happygamewh\服务端\系统模块\服务器组件\内核引擎\databaseengine.cpp

; 466  :     } while (TRUE);

  0049d	ba 01 00 00 00	 mov	 edx, 1
  004a2	85 d2		 test	 edx, edx
  004a4	0f 85 92 fb ff
	ff		 jne	 $LN4@ExecutePro
$LN40@ExecutePro:

; 467  : 
; 468  :     return;
; 469  : }

  004aa	8b 4d f4	 mov	 ecx, DWORD PTR __$EHRec$[ebp+4]
  004ad	64 89 0d 00 00
	00 00		 mov	 DWORD PTR fs:0, ecx
  004b4	59		 pop	 ecx
  004b5	5f		 pop	 edi
  004b6	5e		 pop	 esi
  004b7	5b		 pop	 ebx
  004b8	8b e5		 mov	 esp, ebp
  004ba	5d		 pop	 ebp
  004bb	c2 08 00	 ret	 8
_TEXT	ENDS
;	COMDAT text$x
text$x	SEGMENT
__unwindfunclet$?ExecuteProcess@CDataBase@@UAEXPBD_N@Z$2:
  00000	8b 8d 38 ff ff
	ff		 mov	 ecx, DWORD PTR $T3[ebp]
  00006	e9 00 00 00 00	 jmp	 ??1_bstr_t@@QAE@XZ	; _bstr_t::~_bstr_t
__unwindfunclet$?ExecuteProcess@CDataBase@@UAEXPBD_N@Z$3:
  0000b	8d 4d 94	 lea	 ecx, DWORD PTR $T12[ebp]
  0000e	e9 00 00 00 00	 jmp	 ??1_variant_t@@QAE@XZ	; _variant_t::~_variant_t
__unwindfunclet$?ExecuteProcess@CDataBase@@UAEXPBD_N@Z$4:
  00013	8d 8d 24 ff ff
	ff		 lea	 ecx, DWORD PTR $T2[ebp]
  00019	e9 00 00 00 00	 jmp	 ??1_variant_t@@QAE@XZ	; _variant_t::~_variant_t
__unwindfunclet$?ExecuteProcess@CDataBase@@UAEXPBD_N@Z$6:
  0001e	8d 4d d0	 lea	 ecx, DWORD PTR $T16[ebp]
  00021	e9 00 00 00 00	 jmp	 ??1?$_com_ptr_t@V?$_com_IIID@U_Recordset@ADOCG@@$1?_GUID_00000556_0000_0010_8000_00aa006d2ea4@@3U__s_GUID@@B@@@@QAE@XZ ; _com_ptr_t<_com_IIID<ADOCG::_Recordset,&_GUID_00000556_0000_0010_8000_00aa006d2ea4> >::~_com_ptr_t<_com_IIID<ADOCG::_Recordset,&_GUID_00000556_0000_0010_8000_00aa006d2ea4> >
__ehhandler$?ExecuteProcess@CDataBase@@UAEXPBD_N@Z:
  00026	8b 54 24 08	 mov	 edx, DWORD PTR [esp+8]
  0002a	8d 42 0c	 lea	 eax, DWORD PTR [edx+12]
  0002d	8b 8a 20 ff ff
	ff		 mov	 ecx, DWORD PTR [edx-224]
  00033	33 c8		 xor	 ecx, eax
  00035	e8 00 00 00 00	 call	 @__security_check_cookie@4
  0003a	b8 00 00 00 00	 mov	 eax, OFFSET __ehfuncinfo$?ExecuteProcess@CDataBase@@UAEXPBD_N@Z
  0003f	e9 00 00 00 00	 jmp	 ___CxxFrameHandler3
text$x	ENDS
?ExecuteProcess@CDataBase@@UAEXPBD_N@Z ENDP		; CDataBase::ExecuteProcess
; Function compile flags: /Odtp
; File g:\网狐\happygamewh\服务端\系统模块\服务器组件\内核引擎\databaseengine.cpp
; File c:\program files (x86)\microsoft visual studio\2017\community\vc\tools\msvc\14.16.27023\include\comip.h
; File g:\网狐\happygamewh\服务端\系统模块\服务器组件\内核引擎\databaseengine.cpp
; File c:\program files (x86)\microsoft visual studio\2017\community\vc\tools\msvc\14.16.27023\include\comutil.h
; File g:\网狐\happygamewh\服务端\系统模块\服务器组件\内核引擎\databaseengine.cpp
; File c:\program files (x86)\microsoft visual studio\2017\community\vc\tools\msvc\14.16.27023\include\comip.h
; File g:\网狐\happygamewh\服务端\系统模块\服务器组件\内核引擎\databaseengine.cpp
; File c:\program files (x86)\microsoft visual studio\2017\community\vc\tools\msvc\14.16.27023\include\comip.h
; File g:\网狐\happygamewh\服务端\系统模块\服务器组件\内核引擎\databaseengine.cpp
; File c:\program files (x86)\microsoft visual studio\2017\community\vc\tools\msvc\14.16.27023\include\comutil.h
; File g:\网狐\happygamewh\服务端\系统模块\服务器组件\内核引擎\databaseengine.cpp
; File c:\program files (x86)\microsoft visual studio\2017\community\vc\tools\msvc\14.16.27023\include\comutil.h
; File g:\网狐\happygamewh\服务端\系统模块\服务器组件\内核引擎\databaseengine.cpp
; File c:\program files (x86)\microsoft visual studio\2017\community\vc\tools\msvc\14.16.27023\include\comip.h
; File g:\网狐\happygamewh\服务端\系统模块\服务器组件\内核引擎\databaseengine.cpp
; File c:\program files (x86)\microsoft visual studio\2017\community\vc\tools\msvc\14.16.27023\include\comutil.h
; File g:\网狐\happygamewh\服务端\系统模块\服务器组件\内核引擎\databaseengine.cpp
; File c:\program files (x86)\microsoft visual studio\2017\community\vc\tools\msvc\14.16.27023\include\comip.h
; File g:\网狐\happygamewh\服务端\系统模块\服务器组件\内核引擎\databaseengine.cpp
; File c:\program files (x86)\microsoft visual studio\2017\community\vc\tools\msvc\14.16.27023\include\comutil.h
; File g:\网狐\happygamewh\服务端\系统模块\服务器组件\内核引擎\databaseengine.cpp
;	COMDAT ?GetRecordsetValue@CDataBase@@UAEXPBDAAV_variant_t@@@Z
_TEXT	SEGMENT
$T2 = -116						; size = 16
$T3 = -100						; size = 16
_ComError$4 = -84					; size = 4
tv76 = -80						; size = 4
$T5 = -76						; size = 4
$T6 = -72						; size = 4
tv278 = -68						; size = 4
$T7 = -64						; size = 4
tv277 = -60						; size = 4
$T8 = -56						; size = 4
tv274 = -52						; size = 4
$T9 = -48						; size = 4
_this$ = -44						; size = 4
_hr$ = -40						; size = 4
_hr$ = -36						; size = 4
$T10 = -32						; size = 4
_this$ = -28						; size = 4
$T11 = -24						; size = 4
_RecordFields$12 = -20					; size = 4
__$EHRec$ = -16						; size = 16
_pszItem$ = 8						; size = 4
_DBVarValue$ = 12					; size = 4
?GetRecordsetValue@CDataBase@@UAEXPBDAAV_variant_t@@@Z PROC ; CDataBase::GetRecordsetValue, COMDAT
; _this$ = ecx

; 406  : {

  00000	55		 push	 ebp
  00001	8b ec		 mov	 ebp, esp
  00003	6a ff		 push	 -1
  00005	68 00 00 00 00	 push	 __ehhandler$?GetRecordsetValue@CDataBase@@UAEXPBDAAV_variant_t@@@Z
  0000a	64 a1 00 00 00
	00		 mov	 eax, DWORD PTR fs:0
  00010	50		 push	 eax
  00011	51		 push	 ecx
  00012	83 ec 64	 sub	 esp, 100		; 00000064H
  00015	53		 push	 ebx
  00016	56		 push	 esi
  00017	57		 push	 edi
  00018	a1 00 00 00 00	 mov	 eax, DWORD PTR ___security_cookie
  0001d	33 c5		 xor	 eax, ebp
  0001f	50		 push	 eax
  00020	8d 45 f4	 lea	 eax, DWORD PTR __$EHRec$[ebp+4]
  00023	64 a3 00 00 00
	00		 mov	 DWORD PTR fs:0, eax
  00029	89 65 f0	 mov	 DWORD PTR __$EHRec$[ebp], esp
  0002c	89 4d d4	 mov	 DWORD PTR _this$[ebp], ecx
  0002f	c7 45 b4 00 00
	00 00		 mov	 DWORD PTR $T5[ebp], 0

; 407  :     try

  00036	c7 45 fc 00 00
	00 00		 mov	 DWORD PTR __$EHRec$[ebp+12], 0

; 409  :         FieldsPtr RecordFields = m_DBRecordset->GetFields();

  0003d	8b 45 d4	 mov	 eax, DWORD PTR _this$[ebp]
  00040	83 c0 2c	 add	 eax, 44			; 0000002cH
  00043	89 45 e4	 mov	 DWORD PTR _this$[ebp], eax
; File c:\program files (x86)\microsoft visual studio\2017\community\vc\tools\msvc\14.16.27023\include\comip.h

; 428  :         if (m_pInterface == NULL) {

  00046	8b 4d e4	 mov	 ecx, DWORD PTR _this$[ebp]
  00049	83 39 00	 cmp	 DWORD PTR [ecx], 0
  0004c	75 0a		 jne	 SHORT $LN13@GetRecords

; 429  :             _com_issue_error(E_POINTER);

  0004e	68 03 40 00 80	 push	 -2147467261		; 80004003H
  00053	e8 00 00 00 00	 call	 ?_com_issue_error@@YGXJ@Z ; _com_issue_error
$LN13@GetRecords:
  00058	8b 55 e4	 mov	 edx, DWORD PTR _this$[ebp]
  0005b	8b 02		 mov	 eax, DWORD PTR [edx]
  0005d	89 45 d0	 mov	 DWORD PTR $T9[ebp], eax
; File g:\网狐\happygamewh\服务端\系统模块\服务器组件\内核引擎\databaseengine.cpp

; 409  :         FieldsPtr RecordFields = m_DBRecordset->GetFields();

  00060	8d 4d ec	 lea	 ecx, DWORD PTR _RecordFields$12[ebp]
  00063	51		 push	 ecx
  00064	8b 4d d0	 mov	 ecx, DWORD PTR $T9[ebp]
  00067	e8 00 00 00 00	 call	 ?GetFields@Recordset15@ADOCG@@QAE?AV?$_com_ptr_t@V?$_com_IIID@UFields@ADOCG@@$1?_GUID_00000564_0000_0010_8000_00aa006d2ea4@@3U__s_GUID@@B@@@@XZ ; ADOCG::Recordset15::GetFields
  0006c	89 45 b0	 mov	 DWORD PTR tv76[ebp], eax
  0006f	c6 45 fc 01	 mov	 BYTE PTR __$EHRec$[ebp+12], 1
; File c:\program files (x86)\microsoft visual studio\2017\community\vc\tools\msvc\14.16.27023\include\comutil.h

; 1293 :     V_VT(this) = VT_BSTR;

  00073	ba 08 00 00 00	 mov	 edx, 8
  00078	66 89 55 9c	 mov	 WORD PTR $T3[ebp], dx

; 1294 :     V_BSTR(this) = _com_util::ConvertStringToBSTR(pSrc);

  0007c	8b 45 08	 mov	 eax, DWORD PTR _pszItem$[ebp]
  0007f	50		 push	 eax
  00080	e8 00 00 00 00	 call	 ?ConvertStringToBSTR@_com_util@@YGPA_WPBD@Z ; _com_util::ConvertStringToBSTR
  00085	89 45 cc	 mov	 DWORD PTR tv274[ebp], eax
  00088	8b 4d cc	 mov	 ecx, DWORD PTR tv274[ebp]
  0008b	89 4d a4	 mov	 DWORD PTR $T3[ebp+8], ecx
; File g:\网狐\happygamewh\服务端\系统模块\服务器组件\内核引擎\databaseengine.cpp

; 410  :         DBVarValue = RecordFields->GetItem(pszItem)->GetValue();

  0008e	c6 45 fc 02	 mov	 BYTE PTR __$EHRec$[ebp+12], 2
; File c:\program files (x86)\microsoft visual studio\2017\community\vc\tools\msvc\14.16.27023\include\comip.h

; 428  :         if (m_pInterface == NULL) {

  00092	83 7d ec 00	 cmp	 DWORD PTR _RecordFields$12[ebp], 0
  00096	75 0a		 jne	 SHORT $LN30@GetRecords

; 429  :             _com_issue_error(E_POINTER);

  00098	68 03 40 00 80	 push	 -2147467261		; 80004003H
  0009d	e8 00 00 00 00	 call	 ?_com_issue_error@@YGXJ@Z ; _com_issue_error
$LN30@GetRecords:
  000a2	8b 55 ec	 mov	 edx, DWORD PTR _RecordFields$12[ebp]
  000a5	89 55 c8	 mov	 DWORD PTR $T8[ebp], edx
; File g:\网狐\happygamewh\服务端\系统模块\服务器组件\内核引擎\databaseengine.cpp

; 410  :         DBVarValue = RecordFields->GetItem(pszItem)->GetValue();

  000a8	8d 45 9c	 lea	 eax, DWORD PTR $T3[ebp]
  000ab	50		 push	 eax
  000ac	8d 4d e8	 lea	 ecx, DWORD PTR $T11[ebp]
  000af	51		 push	 ecx
  000b0	8b 4d c8	 mov	 ecx, DWORD PTR $T8[ebp]
  000b3	e8 00 00 00 00	 call	 ?GetItem@Fields15@ADOCG@@QAE?AV?$_com_ptr_t@V?$_com_IIID@UField@ADOCG@@$1?_GUID_00000569_0000_0010_8000_00aa006d2ea4@@3U__s_GUID@@B@@@@ABV_variant_t@@@Z ; ADOCG::Fields15::GetItem
  000b8	89 45 c4	 mov	 DWORD PTR tv277[ebp], eax
  000bb	8b 55 c4	 mov	 edx, DWORD PTR tv277[ebp]
  000be	89 55 e0	 mov	 DWORD PTR $T10[ebp], edx
  000c1	c6 45 fc 03	 mov	 BYTE PTR __$EHRec$[ebp+12], 3
; File c:\program files (x86)\microsoft visual studio\2017\community\vc\tools\msvc\14.16.27023\include\comip.h

; 428  :         if (m_pInterface == NULL) {

  000c5	8b 45 e0	 mov	 eax, DWORD PTR $T10[ebp]
  000c8	83 38 00	 cmp	 DWORD PTR [eax], 0
  000cb	75 0a		 jne	 SHORT $LN44@GetRecords

; 429  :             _com_issue_error(E_POINTER);

  000cd	68 03 40 00 80	 push	 -2147467261		; 80004003H
  000d2	e8 00 00 00 00	 call	 ?_com_issue_error@@YGXJ@Z ; _com_issue_error
$LN44@GetRecords:
  000d7	8b 4d e0	 mov	 ecx, DWORD PTR $T10[ebp]
  000da	8b 11		 mov	 edx, DWORD PTR [ecx]
  000dc	89 55 c0	 mov	 DWORD PTR $T7[ebp], edx
; File g:\网狐\happygamewh\服务端\系统模块\服务器组件\内核引擎\databaseengine.cpp

; 410  :         DBVarValue = RecordFields->GetItem(pszItem)->GetValue();

  000df	8d 45 8c	 lea	 eax, DWORD PTR $T2[ebp]
  000e2	50		 push	 eax
  000e3	8b 4d c0	 mov	 ecx, DWORD PTR $T7[ebp]
  000e6	e8 00 00 00 00	 call	 ?GetValue@Field20@ADOCG@@QAE?AV_variant_t@@XZ ; ADOCG::Field20::GetValue
  000eb	89 45 bc	 mov	 DWORD PTR tv278[ebp], eax
  000ee	8b 4d bc	 mov	 ecx, DWORD PTR tv278[ebp]
  000f1	89 4d b8	 mov	 DWORD PTR $T6[ebp], ecx
  000f4	c6 45 fc 04	 mov	 BYTE PTR __$EHRec$[ebp+12], 4
; File c:\program files (x86)\microsoft visual studio\2017\community\vc\tools\msvc\14.16.27023\include\comutil.h

; 1729 :     _com_util::CheckError(::VariantCopy(this, const_cast<VARIANT*>(static_cast<const VARIANT*>(&varSrc))));

  000f8	8b 55 b8	 mov	 edx, DWORD PTR $T6[ebp]
  000fb	52		 push	 edx
  000fc	8b 45 0c	 mov	 eax, DWORD PTR _DBVarValue$[ebp]
  000ff	50		 push	 eax
  00100	ff 15 00 00 00
	00		 call	 DWORD PTR __imp__VariantCopy@8
  00106	89 45 dc	 mov	 DWORD PTR _hr$[ebp], eax

; 96   :         if (FAILED(hr)) {

  00109	83 7d dc 00	 cmp	 DWORD PTR _hr$[ebp], 0
  0010d	7d 09		 jge	 SHORT $LN64@GetRecords

; 97   :             _com_issue_error(hr);

  0010f	8b 4d dc	 mov	 ecx, DWORD PTR _hr$[ebp]
  00112	51		 push	 ecx
  00113	e8 00 00 00 00	 call	 ?_com_issue_error@@YGXJ@Z ; _com_issue_error
$LN64@GetRecords:
; File g:\网狐\happygamewh\服务端\系统模块\服务器组件\内核引擎\databaseengine.cpp

; 410  :         DBVarValue = RecordFields->GetItem(pszItem)->GetValue();

  00118	c6 45 fc 03	 mov	 BYTE PTR __$EHRec$[ebp+12], 3
; File c:\program files (x86)\microsoft visual studio\2017\community\vc\tools\msvc\14.16.27023\include\comutil.h

; 2334 :     ::VariantClear(this);

  0011c	8d 55 8c	 lea	 edx, DWORD PTR $T2[ebp]
  0011f	52		 push	 edx
  00120	ff 15 00 00 00
	00		 call	 DWORD PTR __imp__VariantClear@4
; File g:\网狐\happygamewh\服务端\系统模块\服务器组件\内核引擎\databaseengine.cpp

; 410  :         DBVarValue = RecordFields->GetItem(pszItem)->GetValue();

  00126	c6 45 fc 02	 mov	 BYTE PTR __$EHRec$[ebp+12], 2
; File c:\program files (x86)\microsoft visual studio\2017\community\vc\tools\msvc\14.16.27023\include\comip.h

; 817  :         if (m_pInterface != NULL) {

  0012a	83 7d e8 00	 cmp	 DWORD PTR $T11[ebp], 0
  0012e	74 0e		 je	 SHORT $LN67@GetRecords

; 818  :             m_pInterface->Release();

  00130	8b 45 e8	 mov	 eax, DWORD PTR $T11[ebp]
  00133	50		 push	 eax
  00134	8b 4d e8	 mov	 ecx, DWORD PTR $T11[ebp]
  00137	8b 11		 mov	 edx, DWORD PTR [ecx]
  00139	8b 42 08	 mov	 eax, DWORD PTR [edx+8]
  0013c	ff d0		 call	 eax
$LN67@GetRecords:
; File g:\网狐\happygamewh\服务端\系统模块\服务器组件\内核引擎\databaseengine.cpp

; 410  :         DBVarValue = RecordFields->GetItem(pszItem)->GetValue();

  0013e	c6 45 fc 01	 mov	 BYTE PTR __$EHRec$[ebp+12], 1
; File c:\program files (x86)\microsoft visual studio\2017\community\vc\tools\msvc\14.16.27023\include\comutil.h

; 2334 :     ::VariantClear(this);

  00142	8d 4d 9c	 lea	 ecx, DWORD PTR $T3[ebp]
  00145	51		 push	 ecx
  00146	ff 15 00 00 00
	00		 call	 DWORD PTR __imp__VariantClear@4
; File g:\网狐\happygamewh\服务端\系统模块\服务器组件\内核引擎\databaseengine.cpp

; 411  :     }

  0014c	c6 45 fc 00	 mov	 BYTE PTR __$EHRec$[ebp+12], 0
; File c:\program files (x86)\microsoft visual studio\2017\community\vc\tools\msvc\14.16.27023\include\comip.h

; 817  :         if (m_pInterface != NULL) {

  00150	83 7d ec 00	 cmp	 DWORD PTR _RecordFields$12[ebp], 0
  00154	74 0e		 je	 SHORT $LN74@GetRecords

; 818  :             m_pInterface->Release();

  00156	8b 55 ec	 mov	 edx, DWORD PTR _RecordFields$12[ebp]
  00159	52		 push	 edx
  0015a	8b 45 ec	 mov	 eax, DWORD PTR _RecordFields$12[ebp]
  0015d	8b 08		 mov	 ecx, DWORD PTR [eax]
  0015f	8b 51 08	 mov	 edx, DWORD PTR [ecx+8]
  00162	ff d2		 call	 edx
$LN74@GetRecords:
; File g:\网狐\happygamewh\服务端\系统模块\服务器组件\内核引擎\databaseengine.cpp

; 411  :     }

  00164	eb 30		 jmp	 SHORT $LN4@GetRecords
__catch$?GetRecordsetValue@CDataBase@@UAEXPBDAAV_variant_t@@@Z$0:
; File c:\program files (x86)\microsoft visual studio\2017\community\vc\tools\msvc\14.16.27023\include\comutil.h

; 2266 :     _com_util::CheckError(::VariantClear(this));

  00166	8b 45 0c	 mov	 eax, DWORD PTR _DBVarValue$[ebp]
  00169	50		 push	 eax
  0016a	ff 15 00 00 00
	00		 call	 DWORD PTR __imp__VariantClear@4
  00170	89 45 d8	 mov	 DWORD PTR _hr$[ebp], eax

; 96   :         if (FAILED(hr)) {

  00173	83 7d d8 00	 cmp	 DWORD PTR _hr$[ebp], 0
  00177	7d 09		 jge	 SHORT $LN84@GetRecords

; 97   :             _com_issue_error(hr);

  00179	8b 4d d8	 mov	 ecx, DWORD PTR _hr$[ebp]
  0017c	51		 push	 ecx
  0017d	e8 00 00 00 00	 call	 ?_com_issue_error@@YGXJ@Z ; _com_issue_error
$LN84@GetRecords:
; File g:\网狐\happygamewh\服务端\系统模块\服务器组件\内核引擎\databaseengine.cpp

; 415  :         OnSQLException(SQLException_Syntax, &ComError);

  00182	8b 55 ac	 mov	 edx, DWORD PTR _ComError$4[ebp]
  00185	52		 push	 edx
  00186	6a 02		 push	 2
  00188	8b 4d d4	 mov	 ecx, DWORD PTR _this$[ebp]
  0018b	e8 00 00 00 00	 call	 ?OnSQLException@CDataBase@@IAEXW4enSQLException@@PAV_com_error@@@Z ; CDataBase::OnSQLException

; 416  :     }

  00190	b8 00 00 00 00	 mov	 eax, $LN11@GetRecords
  00195	c3		 ret	 0
$LN4@GetRecords:
  00196	c7 45 fc ff ff
	ff ff		 mov	 DWORD PTR __$EHRec$[ebp+12], -1
  0019d	eb 07		 jmp	 SHORT $LN15@GetRecords
$LN11@GetRecords:
; File c:\program files (x86)\microsoft visual studio\2017\community\vc\tools\msvc\14.16.27023\include\comutil.h
  0019f	c7 45 fc ff ff
	ff ff		 mov	 DWORD PTR __$EHRec$[ebp+12], -1
$LN15@GetRecords:
; File g:\网狐\happygamewh\服务端\系统模块\服务器组件\内核引擎\databaseengine.cpp

; 417  : 
; 418  :     return;
; 419  : }

  001a6	8b 4d f4	 mov	 ecx, DWORD PTR __$EHRec$[ebp+4]
  001a9	64 89 0d 00 00
	00 00		 mov	 DWORD PTR fs:0, ecx
  001b0	59		 pop	 ecx
  001b1	5f		 pop	 edi
  001b2	5e		 pop	 esi
  001b3	5b		 pop	 ebx
  001b4	8b e5		 mov	 esp, ebp
  001b6	5d		 pop	 ebp
  001b7	c2 08 00	 ret	 8
_TEXT	ENDS
;	COMDAT text$x
text$x	SEGMENT
__unwindfunclet$?GetRecordsetValue@CDataBase@@UAEXPBDAAV_variant_t@@@Z$2:
  00000	8d 4d ec	 lea	 ecx, DWORD PTR _RecordFields$12[ebp]
  00003	e9 00 00 00 00	 jmp	 ??1?$_com_ptr_t@V?$_com_IIID@UFields@ADOCG@@$1?_GUID_00000564_0000_0010_8000_00aa006d2ea4@@3U__s_GUID@@B@@@@QAE@XZ ; _com_ptr_t<_com_IIID<ADOCG::Fields,&_GUID_00000564_0000_0010_8000_00aa006d2ea4> >::~_com_ptr_t<_com_IIID<ADOCG::Fields,&_GUID_00000564_0000_0010_8000_00aa006d2ea4> >
__unwindfunclet$?GetRecordsetValue@CDataBase@@UAEXPBDAAV_variant_t@@@Z$3:
  00008	8d 4d 9c	 lea	 ecx, DWORD PTR $T3[ebp]
  0000b	e9 00 00 00 00	 jmp	 ??1_variant_t@@QAE@XZ	; _variant_t::~_variant_t
__unwindfunclet$?GetRecordsetValue@CDataBase@@UAEXPBDAAV_variant_t@@@Z$4:
  00010	8d 4d e8	 lea	 ecx, DWORD PTR $T11[ebp]
  00013	e9 00 00 00 00	 jmp	 ??1?$_com_ptr_t@V?$_com_IIID@UField@ADOCG@@$1?_GUID_00000569_0000_0010_8000_00aa006d2ea4@@3U__s_GUID@@B@@@@QAE@XZ ; _com_ptr_t<_com_IIID<ADOCG::Field,&_GUID_00000569_0000_0010_8000_00aa006d2ea4> >::~_com_ptr_t<_com_IIID<ADOCG::Field,&_GUID_00000569_0000_0010_8000_00aa006d2ea4> >
__unwindfunclet$?GetRecordsetValue@CDataBase@@UAEXPBDAAV_variant_t@@@Z$5:
  00018	8d 4d 8c	 lea	 ecx, DWORD PTR $T2[ebp]
  0001b	e9 00 00 00 00	 jmp	 ??1_variant_t@@QAE@XZ	; _variant_t::~_variant_t
__ehhandler$?GetRecordsetValue@CDataBase@@UAEXPBDAAV_variant_t@@@Z:
  00020	8b 54 24 08	 mov	 edx, DWORD PTR [esp+8]
  00024	8d 42 0c	 lea	 eax, DWORD PTR [edx+12]
  00027	8b 4a 88	 mov	 ecx, DWORD PTR [edx-120]
  0002a	33 c8		 xor	 ecx, eax
  0002c	e8 00 00 00 00	 call	 @__security_check_cookie@4
  00031	b8 00 00 00 00	 mov	 eax, OFFSET __ehfuncinfo$?GetRecordsetValue@CDataBase@@UAEXPBDAAV_variant_t@@@Z
  00036	e9 00 00 00 00	 jmp	 ___CxxFrameHandler3
text$x	ENDS
?GetRecordsetValue@CDataBase@@UAEXPBDAAV_variant_t@@@Z ENDP ; CDataBase::GetRecordsetValue
; Function compile flags: /Odtp
; File g:\网狐\happygamewh\服务端\系统模块\服务器组件\内核引擎\databaseengine.cpp
; File c:\program files (x86)\microsoft visual studio\2017\community\vc\tools\msvc\14.16.27023\include\comip.h
; File g:\网狐\happygamewh\服务端\系统模块\服务器组件\内核引擎\databaseengine.cpp
; File c:\program files (x86)\microsoft visual studio\2017\community\vc\tools\msvc\14.16.27023\include\comip.h
; File g:\网狐\happygamewh\服务端\系统模块\服务器组件\内核引擎\databaseengine.cpp
; File c:\program files (x86)\microsoft visual studio\2017\community\vc\tools\msvc\14.16.27023\include\comip.h
; File g:\网狐\happygamewh\服务端\系统模块\服务器组件\内核引擎\databaseengine.cpp
; File c:\program files (x86)\microsoft visual studio\2017\community\vc\tools\msvc\14.16.27023\include\comip.h
; File g:\网狐\happygamewh\服务端\系统模块\服务器组件\内核引擎\databaseengine.cpp
; File c:\program files (x86)\microsoft visual studio\2017\community\vc\tools\msvc\14.16.27023\include\comip.h
; File g:\网狐\happygamewh\服务端\系统模块\服务器组件\内核引擎\databaseengine.cpp
; File c:\program files (x86)\microsoft visual studio\2017\community\vc\tools\msvc\14.16.27023\include\comip.h
; File g:\网狐\happygamewh\服务端\系统模块\服务器组件\内核引擎\databaseengine.cpp
; File c:\program files (x86)\microsoft visual studio\2017\community\vc\tools\msvc\14.16.27023\include\comip.h
; File g:\网狐\happygamewh\服务端\系统模块\服务器组件\内核引擎\databaseengine.cpp
; File c:\program files (x86)\microsoft visual studio\2017\community\vc\tools\msvc\14.16.27023\include\comip.h
; File g:\网狐\happygamewh\服务端\系统模块\服务器组件\内核引擎\databaseengine.cpp
; File c:\program files (x86)\microsoft visual studio\2017\community\vc\tools\msvc\14.16.27023\include\comutil.h
; File c:\program files (x86)\microsoft visual studio\2017\community\vc\tools\msvc\14.16.27023\include\comip.h
; File g:\网狐\happygamewh\服务端\中间目录\内核引擎\debug_ansi\msado15.tli
; File g:\网狐\happygamewh\服务端\系统模块\服务器组件\内核引擎\databaseengine.cpp
; File c:\program files (x86)\microsoft visual studio\2017\community\vc\tools\msvc\14.16.27023\include\comip.h
; File g:\网狐\happygamewh\服务端\系统模块\服务器组件\内核引擎\databaseengine.cpp
; File c:\program files (x86)\microsoft visual studio\2017\community\vc\tools\msvc\14.16.27023\include\comutil.h
; File g:\网狐\happygamewh\服务端\系统模块\服务器组件\内核引擎\databaseengine.cpp
; File c:\program files (x86)\microsoft visual studio\2017\community\vc\tools\msvc\14.16.27023\include\comip.h
; File g:\网狐\happygamewh\服务端\系统模块\服务器组件\内核引擎\databaseengine.cpp
; File c:\program files (x86)\microsoft visual studio\2017\community\vc\tools\msvc\14.16.27023\include\comip.h
; File g:\网狐\happygamewh\服务端\系统模块\服务器组件\内核引擎\databaseengine.cpp
;	COMDAT ?GetReturnValue@CDataBase@@UAEJXZ
_TEXT	SEGMENT
$T2 = -172						; size = 16
$T3 = -156						; size = 16
_ComError$4 = -140					; size = 4
tv437 = -136						; size = 4
$T5 = -132						; size = 4
tv440 = -128						; size = 4
$T6 = -124						; size = 4
tv183 = -120						; size = 4
$T7 = -116						; size = 4
__result$8 = -112					; size = 4
tv439 = -108						; size = 4
$T9 = -104						; size = 4
tv438 = -100						; size = 4
$T10 = -96						; size = 4
_lParameterCount$11 = -92				; size = 4
tv436 = -88						; size = 4
$T12 = -84						; size = 4
tv66 = -80						; size = 4
$T13 = -76						; size = 4
__hr$14 = -72						; size = 4
$T15 = -68						; size = 4
_this$ = -64						; size = 4
$T16 = -60						; size = 4
_this$ = -56						; size = 4
_this$ = -52						; size = 4
$T17 = -48						; size = 4
$T18 = -44						; size = 4
$T19 = -40						; size = 4
_pOldInterface$20 = -36					; size = 4
$T21 = -32						; size = 4
$T22 = -28						; size = 4
_i$23 = -24						; size = 4
_Parameter$24 = -20					; size = 4
__$EHRec$ = -16						; size = 16
?GetReturnValue@CDataBase@@UAEJXZ PROC			; CDataBase::GetReturnValue, COMDAT
; _this$ = ecx

; 363  : {

  00000	55		 push	 ebp
  00001	8b ec		 mov	 ebp, esp
  00003	6a ff		 push	 -1
  00005	68 00 00 00 00	 push	 __ehhandler$?GetReturnValue@CDataBase@@UAEJXZ
  0000a	64 a1 00 00 00
	00		 mov	 eax, DWORD PTR fs:0
  00010	50		 push	 eax
  00011	51		 push	 ecx
  00012	81 ec 9c 00 00
	00		 sub	 esp, 156		; 0000009cH
  00018	53		 push	 ebx
  00019	56		 push	 esi
  0001a	57		 push	 edi
  0001b	a1 00 00 00 00	 mov	 eax, DWORD PTR ___security_cookie
  00020	33 c5		 xor	 eax, ebp
  00022	50		 push	 eax
  00023	8d 45 f4	 lea	 eax, DWORD PTR __$EHRec$[ebp+4]
  00026	64 a3 00 00 00
	00		 mov	 DWORD PTR fs:0, eax
  0002c	89 65 f0	 mov	 DWORD PTR __$EHRec$[ebp], esp
  0002f	89 4d cc	 mov	 DWORD PTR _this$[ebp], ecx
  00032	c7 85 7c ff ff
	ff 00 00 00 00	 mov	 DWORD PTR $T5[ebp], 0

; 364  :     try

  0003c	c7 45 fc 00 00
	00 00		 mov	 DWORD PTR __$EHRec$[ebp+12], 0
; File c:\program files (x86)\microsoft visual studio\2017\community\vc\tools\msvc\14.16.27023\include\comip.h

; 134  :         : m_pInterface(NULL)

  00043	c7 45 ec 00 00
	00 00		 mov	 DWORD PTR _Parameter$24[ebp], 0
; File g:\网狐\happygamewh\服务端\系统模块\服务器组件\内核引擎\databaseengine.cpp

; 367  :         _ParameterPtr Parameter;

  0004a	c6 45 fc 01	 mov	 BYTE PTR __$EHRec$[ebp+12], 1

; 368  :         LONG lParameterCount = m_DBCommand->Parameters->Count;

  0004e	8b 45 cc	 mov	 eax, DWORD PTR _this$[ebp]
  00051	83 c0 28	 add	 eax, 40			; 00000028H
  00054	89 45 c8	 mov	 DWORD PTR _this$[ebp], eax
; File c:\program files (x86)\microsoft visual studio\2017\community\vc\tools\msvc\14.16.27023\include\comip.h

; 428  :         if (m_pInterface == NULL) {

  00057	8b 4d c8	 mov	 ecx, DWORD PTR _this$[ebp]
  0005a	83 39 00	 cmp	 DWORD PTR [ecx], 0
  0005d	75 0a		 jne	 SHORT $LN22@GetReturnV

; 429  :             _com_issue_error(E_POINTER);

  0005f	68 03 40 00 80	 push	 -2147467261		; 80004003H
  00064	e8 00 00 00 00	 call	 ?_com_issue_error@@YGXJ@Z ; _com_issue_error
$LN22@GetReturnV:
  00069	8b 55 c8	 mov	 edx, DWORD PTR _this$[ebp]
  0006c	8b 02		 mov	 eax, DWORD PTR [edx]
  0006e	89 45 b4	 mov	 DWORD PTR $T13[ebp], eax
; File g:\网狐\happygamewh\服务端\系统模块\服务器组件\内核引擎\databaseengine.cpp

; 368  :         LONG lParameterCount = m_DBCommand->Parameters->Count;

  00071	8d 4d e4	 lea	 ecx, DWORD PTR $T22[ebp]
  00074	51		 push	 ecx
  00075	8b 4d b4	 mov	 ecx, DWORD PTR $T13[ebp]
  00078	e8 00 00 00 00	 call	 ?GetParameters@Command15@ADOCG@@QAE?AV?$_com_ptr_t@V?$_com_IIID@UParameters@ADOCG@@$1?_GUID_0000050d_0000_0010_8000_00aa006d2ea4@@3U__s_GUID@@B@@@@XZ ; ADOCG::Command15::GetParameters
  0007d	89 45 b0	 mov	 DWORD PTR tv66[ebp], eax
  00080	8b 55 b0	 mov	 edx, DWORD PTR tv66[ebp]
  00083	89 55 c4	 mov	 DWORD PTR $T16[ebp], edx
  00086	c6 45 fc 02	 mov	 BYTE PTR __$EHRec$[ebp+12], 2
; File c:\program files (x86)\microsoft visual studio\2017\community\vc\tools\msvc\14.16.27023\include\comip.h

; 428  :         if (m_pInterface == NULL) {

  0008a	8b 45 c4	 mov	 eax, DWORD PTR $T16[ebp]
  0008d	83 38 00	 cmp	 DWORD PTR [eax], 0
  00090	75 0a		 jne	 SHORT $LN37@GetReturnV

; 429  :             _com_issue_error(E_POINTER);

  00092	68 03 40 00 80	 push	 -2147467261		; 80004003H
  00097	e8 00 00 00 00	 call	 ?_com_issue_error@@YGXJ@Z ; _com_issue_error
$LN37@GetReturnV:
  0009c	8b 4d c4	 mov	 ecx, DWORD PTR $T16[ebp]
  0009f	8b 11		 mov	 edx, DWORD PTR [ecx]
  000a1	89 55 ac	 mov	 DWORD PTR $T12[ebp], edx
; File g:\网狐\happygamewh\服务端\系统模块\服务器组件\内核引擎\databaseengine.cpp

; 368  :         LONG lParameterCount = m_DBCommand->Parameters->Count;

  000a4	8b 4d ac	 mov	 ecx, DWORD PTR $T12[ebp]
  000a7	e8 00 00 00 00	 call	 ?GetCount@_Collection@ADOCG@@QAEJXZ ; ADOCG::_Collection::GetCount
  000ac	89 45 a8	 mov	 DWORD PTR tv436[ebp], eax
  000af	8b 45 a8	 mov	 eax, DWORD PTR tv436[ebp]
  000b2	89 45 a4	 mov	 DWORD PTR _lParameterCount$11[ebp], eax
  000b5	c6 45 fc 01	 mov	 BYTE PTR __$EHRec$[ebp+12], 1
; File c:\program files (x86)\microsoft visual studio\2017\community\vc\tools\msvc\14.16.27023\include\comip.h

; 817  :         if (m_pInterface != NULL) {

  000b9	83 7d e4 00	 cmp	 DWORD PTR $T22[ebp], 0
  000bd	74 0e		 je	 SHORT $LN42@GetReturnV

; 818  :             m_pInterface->Release();

  000bf	8b 4d e4	 mov	 ecx, DWORD PTR $T22[ebp]
  000c2	51		 push	 ecx
  000c3	8b 55 e4	 mov	 edx, DWORD PTR $T22[ebp]
  000c6	8b 02		 mov	 eax, DWORD PTR [edx]
  000c8	8b 48 08	 mov	 ecx, DWORD PTR [eax+8]
  000cb	ff d1		 call	 ecx
$LN42@GetReturnV:
; File g:\网狐\happygamewh\服务端\系统模块\服务器组件\内核引擎\databaseengine.cpp

; 371  :         for (LONG i = 0; i < lParameterCount; i++)

  000cd	c7 45 e8 00 00
	00 00		 mov	 DWORD PTR _i$23[ebp], 0
  000d4	eb 09		 jmp	 SHORT $LN4@GetReturnV
$LN2@GetReturnV:
  000d6	8b 55 e8	 mov	 edx, DWORD PTR _i$23[ebp]
  000d9	83 c2 01	 add	 edx, 1
  000dc	89 55 e8	 mov	 DWORD PTR _i$23[ebp], edx
$LN4@GetReturnV:
  000df	8b 45 e8	 mov	 eax, DWORD PTR _i$23[ebp]
  000e2	3b 45 a4	 cmp	 eax, DWORD PTR _lParameterCount$11[ebp]
  000e5	0f 8d a8 01 00
	00		 jge	 $LN3@GetReturnV

; 373  :             Parameter = m_DBCommand->Parameters->Item[i];

  000eb	6a 03		 push	 3
  000ed	8b 4d e8	 mov	 ecx, DWORD PTR _i$23[ebp]
  000f0	51		 push	 ecx
  000f1	8d 8d 64 ff ff
	ff		 lea	 ecx, DWORD PTR $T3[ebp]
  000f7	e8 00 00 00 00	 call	 ??0_variant_t@@QAE@JG@Z	; _variant_t::_variant_t
  000fc	89 85 78 ff ff
	ff		 mov	 DWORD PTR tv437[ebp], eax
  00102	c6 45 fc 03	 mov	 BYTE PTR __$EHRec$[ebp+12], 3
  00106	8b 55 cc	 mov	 edx, DWORD PTR _this$[ebp]
  00109	83 c2 28	 add	 edx, 40			; 00000028H
  0010c	89 55 c0	 mov	 DWORD PTR _this$[ebp], edx
; File c:\program files (x86)\microsoft visual studio\2017\community\vc\tools\msvc\14.16.27023\include\comip.h

; 428  :         if (m_pInterface == NULL) {

  0010f	8b 45 c0	 mov	 eax, DWORD PTR _this$[ebp]
  00112	83 38 00	 cmp	 DWORD PTR [eax], 0
  00115	75 0a		 jne	 SHORT $LN57@GetReturnV

; 429  :             _com_issue_error(E_POINTER);

  00117	68 03 40 00 80	 push	 -2147467261		; 80004003H
  0011c	e8 00 00 00 00	 call	 ?_com_issue_error@@YGXJ@Z ; _com_issue_error
$LN57@GetReturnV:
  00121	8b 4d c0	 mov	 ecx, DWORD PTR _this$[ebp]
  00124	8b 11		 mov	 edx, DWORD PTR [ecx]
  00126	89 55 a0	 mov	 DWORD PTR $T10[ebp], edx
; File g:\网狐\happygamewh\服务端\系统模块\服务器组件\内核引擎\databaseengine.cpp

; 373  :             Parameter = m_DBCommand->Parameters->Item[i];

  00129	8d 45 d4	 lea	 eax, DWORD PTR $T18[ebp]
  0012c	50		 push	 eax
  0012d	8b 4d a0	 mov	 ecx, DWORD PTR $T10[ebp]
  00130	e8 00 00 00 00	 call	 ?GetParameters@Command15@ADOCG@@QAE?AV?$_com_ptr_t@V?$_com_IIID@UParameters@ADOCG@@$1?_GUID_0000050d_0000_0010_8000_00aa006d2ea4@@3U__s_GUID@@B@@@@XZ ; ADOCG::Command15::GetParameters
  00135	89 45 9c	 mov	 DWORD PTR tv438[ebp], eax
  00138	8b 4d 9c	 mov	 ecx, DWORD PTR tv438[ebp]
  0013b	89 4d bc	 mov	 DWORD PTR $T15[ebp], ecx
  0013e	c6 45 fc 04	 mov	 BYTE PTR __$EHRec$[ebp+12], 4
; File c:\program files (x86)\microsoft visual studio\2017\community\vc\tools\msvc\14.16.27023\include\comip.h

; 428  :         if (m_pInterface == NULL) {

  00142	8b 55 bc	 mov	 edx, DWORD PTR $T15[ebp]
  00145	83 3a 00	 cmp	 DWORD PTR [edx], 0
  00148	75 0a		 jne	 SHORT $LN71@GetReturnV

; 429  :             _com_issue_error(E_POINTER);

  0014a	68 03 40 00 80	 push	 -2147467261		; 80004003H
  0014f	e8 00 00 00 00	 call	 ?_com_issue_error@@YGXJ@Z ; _com_issue_error
$LN71@GetReturnV:
  00154	8b 45 bc	 mov	 eax, DWORD PTR $T15[ebp]
  00157	8b 08		 mov	 ecx, DWORD PTR [eax]
  00159	89 4d 98	 mov	 DWORD PTR $T9[ebp], ecx
; File g:\网狐\happygamewh\服务端\系统模块\服务器组件\内核引擎\databaseengine.cpp

; 373  :             Parameter = m_DBCommand->Parameters->Item[i];

  0015c	8d 95 64 ff ff
	ff		 lea	 edx, DWORD PTR $T3[ebp]
  00162	52		 push	 edx
  00163	8d 45 d8	 lea	 eax, DWORD PTR $T19[ebp]
  00166	50		 push	 eax
  00167	8b 4d 98	 mov	 ecx, DWORD PTR $T9[ebp]
  0016a	e8 00 00 00 00	 call	 ?GetItem@Parameters@ADOCG@@QAE?AV?$_com_ptr_t@V?$_com_IIID@U_Parameter@ADOCG@@$1?_GUID_0000050c_0000_0010_8000_00aa006d2ea4@@3U__s_GUID@@B@@@@ABV_variant_t@@@Z ; ADOCG::Parameters::GetItem
  0016f	89 45 e0	 mov	 DWORD PTR $T21[ebp], eax
; File c:\program files (x86)\microsoft visual studio\2017\community\vc\tools\msvc\14.16.27023\include\comip.h

; 297  :         if (m_pInterface != cp.m_pInterface) {

  00172	8b 4d e0	 mov	 ecx, DWORD PTR $T21[ebp]
  00175	8b 55 ec	 mov	 edx, DWORD PTR _Parameter$24[ebp]
  00178	3b 11		 cmp	 edx, DWORD PTR [ecx]
  0017a	74 2b		 je	 SHORT $LN84@GetReturnV

; 298  :             Interface* pOldInterface = m_pInterface;

  0017c	8b 45 ec	 mov	 eax, DWORD PTR _Parameter$24[ebp]
  0017f	89 45 dc	 mov	 DWORD PTR _pOldInterface$20[ebp], eax
  00182	8b 4d e0	 mov	 ecx, DWORD PTR $T21[ebp]
  00185	8b 11		 mov	 edx, DWORD PTR [ecx]
  00187	89 55 ec	 mov	 DWORD PTR _Parameter$24[ebp], edx
  0018a	8b 45 e0	 mov	 eax, DWORD PTR $T21[ebp]
  0018d	c7 00 00 00 00
	00		 mov	 DWORD PTR [eax], 0
  00193	83 7d dc 00	 cmp	 DWORD PTR _pOldInterface$20[ebp], 0
  00197	74 0e		 je	 SHORT $LN84@GetReturnV

; 299  : 
; 300  :             m_pInterface = cp.m_pInterface;
; 301  :             cp.m_pInterface = nullptr;
; 302  : 
; 303  :             if (pOldInterface != nullptr) {
; 304  :                 pOldInterface->Release();

  00199	8b 4d dc	 mov	 ecx, DWORD PTR _pOldInterface$20[ebp]
  0019c	51		 push	 ecx
  0019d	8b 55 dc	 mov	 edx, DWORD PTR _pOldInterface$20[ebp]
  001a0	8b 02		 mov	 eax, DWORD PTR [edx]
  001a2	8b 48 08	 mov	 ecx, DWORD PTR [eax+8]
  001a5	ff d1		 call	 ecx
$LN84@GetReturnV:

; 817  :         if (m_pInterface != NULL) {

  001a7	83 7d d8 00	 cmp	 DWORD PTR $T19[ebp], 0
  001ab	74 0e		 je	 SHORT $LN88@GetReturnV

; 818  :             m_pInterface->Release();

  001ad	8b 55 d8	 mov	 edx, DWORD PTR $T19[ebp]
  001b0	52		 push	 edx
  001b1	8b 45 d8	 mov	 eax, DWORD PTR $T19[ebp]
  001b4	8b 08		 mov	 ecx, DWORD PTR [eax]
  001b6	8b 51 08	 mov	 edx, DWORD PTR [ecx+8]
  001b9	ff d2		 call	 edx
$LN88@GetReturnV:
; File g:\网狐\happygamewh\服务端\系统模块\服务器组件\内核引擎\databaseengine.cpp

; 373  :             Parameter = m_DBCommand->Parameters->Item[i];

  001bb	c6 45 fc 03	 mov	 BYTE PTR __$EHRec$[ebp+12], 3
; File c:\program files (x86)\microsoft visual studio\2017\community\vc\tools\msvc\14.16.27023\include\comip.h

; 817  :         if (m_pInterface != NULL) {

  001bf	83 7d d4 00	 cmp	 DWORD PTR $T18[ebp], 0
  001c3	74 0e		 je	 SHORT $LN93@GetReturnV

; 818  :             m_pInterface->Release();

  001c5	8b 45 d4	 mov	 eax, DWORD PTR $T18[ebp]
  001c8	50		 push	 eax
  001c9	8b 4d d4	 mov	 ecx, DWORD PTR $T18[ebp]
  001cc	8b 11		 mov	 edx, DWORD PTR [ecx]
  001ce	8b 42 08	 mov	 eax, DWORD PTR [edx+8]
  001d1	ff d0		 call	 eax
$LN93@GetReturnV:
; File g:\网狐\happygamewh\服务端\系统模块\服务器组件\内核引擎\databaseengine.cpp

; 373  :             Parameter = m_DBCommand->Parameters->Item[i];

  001d3	c6 45 fc 01	 mov	 BYTE PTR __$EHRec$[ebp+12], 1
; File c:\program files (x86)\microsoft visual studio\2017\community\vc\tools\msvc\14.16.27023\include\comutil.h

; 2334 :     ::VariantClear(this);

  001d7	8d 8d 64 ff ff
	ff		 lea	 ecx, DWORD PTR $T3[ebp]
  001dd	51		 push	 ecx
  001de	ff 15 00 00 00
	00		 call	 DWORD PTR __imp__VariantClear@4
; File c:\program files (x86)\microsoft visual studio\2017\community\vc\tools\msvc\14.16.27023\include\comip.h

; 428  :         if (m_pInterface == NULL) {

  001e4	83 7d ec 00	 cmp	 DWORD PTR _Parameter$24[ebp], 0
  001e8	75 0a		 jne	 SHORT $LN101@GetReturnV

; 429  :             _com_issue_error(E_POINTER);

  001ea	68 03 40 00 80	 push	 -2147467261		; 80004003H
  001ef	e8 00 00 00 00	 call	 ?_com_issue_error@@YGXJ@Z ; _com_issue_error
$LN101@GetReturnV:
  001f4	8b 55 ec	 mov	 edx, DWORD PTR _Parameter$24[ebp]
  001f7	89 55 d0	 mov	 DWORD PTR $T17[ebp], edx
; File g:\网狐\happygamewh\服务端\中间目录\内核引擎\debug_ansi\msado15.tli

; 432  :     HRESULT _hr = get_Direction(&_result);

  001fa	8d 45 90	 lea	 eax, DWORD PTR __result$8[ebp]
  001fd	50		 push	 eax
  001fe	8b 4d d0	 mov	 ecx, DWORD PTR $T17[ebp]
  00201	51		 push	 ecx
  00202	8b 55 d0	 mov	 edx, DWORD PTR $T17[ebp]
  00205	8b 02		 mov	 eax, DWORD PTR [edx]
  00207	8b 48 3c	 mov	 ecx, DWORD PTR [eax+60]
  0020a	ff d1		 call	 ecx
  0020c	89 45 94	 mov	 DWORD PTR tv439[ebp], eax
  0020f	8b 55 94	 mov	 edx, DWORD PTR tv439[ebp]
  00212	89 55 b8	 mov	 DWORD PTR __hr$14[ebp], edx

; 433  :     if (FAILED(_hr)) _com_issue_errorex(_hr, this, __uuidof(this));

  00215	83 7d b8 00	 cmp	 DWORD PTR __hr$14[ebp], 0
  00219	7d 12		 jge	 SHORT $LN103@GetReturnV
  0021b	68 00 00 00 00	 push	 OFFSET __GUID_0000050c_0000_0010_8000_00aa006d2ea4
  00220	8b 45 d0	 mov	 eax, DWORD PTR $T17[ebp]
  00223	50		 push	 eax
  00224	8b 4d b8	 mov	 ecx, DWORD PTR __hr$14[ebp]
  00227	51		 push	 ecx
  00228	e8 00 00 00 00	 call	 ?_com_issue_errorex@@YGXJPAUIUnknown@@ABU_GUID@@@Z ; _com_issue_errorex
$LN103@GetReturnV:
; File g:\网狐\happygamewh\服务端\系统模块\服务器组件\内核引擎\databaseengine.cpp

; 374  :             if (Parameter->Direction == adParamReturnValue)

  0022d	83 7d 90 04	 cmp	 DWORD PTR __result$8[ebp], 4
  00231	75 5b		 jne	 SHORT $LN6@GetReturnV
; File c:\program files (x86)\microsoft visual studio\2017\community\vc\tools\msvc\14.16.27023\include\comip.h

; 428  :         if (m_pInterface == NULL) {

  00233	83 7d ec 00	 cmp	 DWORD PTR _Parameter$24[ebp], 0
  00237	75 0a		 jne	 SHORT $LN107@GetReturnV

; 429  :             _com_issue_error(E_POINTER);

  00239	68 03 40 00 80	 push	 -2147467261		; 80004003H
  0023e	e8 00 00 00 00	 call	 ?_com_issue_error@@YGXJ@Z ; _com_issue_error
$LN107@GetReturnV:
  00243	8b 55 ec	 mov	 edx, DWORD PTR _Parameter$24[ebp]
  00246	89 55 8c	 mov	 DWORD PTR $T7[ebp], edx
; File g:\网狐\happygamewh\服务端\系统模块\服务器组件\内核引擎\databaseengine.cpp

; 375  :                 return Parameter->Value.lVal;

  00249	8d 85 54 ff ff
	ff		 lea	 eax, DWORD PTR $T2[ebp]
  0024f	50		 push	 eax
  00250	8b 4d 8c	 mov	 ecx, DWORD PTR $T7[ebp]
  00253	e8 00 00 00 00	 call	 ?GetValue@_Parameter@ADOCG@@QAE?AV_variant_t@@XZ ; ADOCG::_Parameter::GetValue
  00258	89 45 88	 mov	 DWORD PTR tv183[ebp], eax
  0025b	8b 4d 88	 mov	 ecx, DWORD PTR tv183[ebp]
  0025e	8b 51 08	 mov	 edx, DWORD PTR [ecx+8]
  00261	89 55 84	 mov	 DWORD PTR $T6[ebp], edx
; File c:\program files (x86)\microsoft visual studio\2017\community\vc\tools\msvc\14.16.27023\include\comutil.h

; 2334 :     ::VariantClear(this);

  00264	8d 85 54 ff ff
	ff		 lea	 eax, DWORD PTR $T2[ebp]
  0026a	50		 push	 eax
  0026b	ff 15 00 00 00
	00		 call	 DWORD PTR __imp__VariantClear@4
; File g:\网狐\happygamewh\服务端\系统模块\服务器组件\内核引擎\databaseengine.cpp

; 375  :                 return Parameter->Value.lVal;

  00271	c6 45 fc 00	 mov	 BYTE PTR __$EHRec$[ebp+12], 0
; File c:\program files (x86)\microsoft visual studio\2017\community\vc\tools\msvc\14.16.27023\include\comip.h

; 817  :         if (m_pInterface != NULL) {

  00275	83 7d ec 00	 cmp	 DWORD PTR _Parameter$24[ebp], 0
  00279	74 0e		 je	 SHORT $LN124@GetReturnV

; 818  :             m_pInterface->Release();

  0027b	8b 4d ec	 mov	 ecx, DWORD PTR _Parameter$24[ebp]
  0027e	51		 push	 ecx
  0027f	8b 55 ec	 mov	 edx, DWORD PTR _Parameter$24[ebp]
  00282	8b 02		 mov	 eax, DWORD PTR [edx]
  00284	8b 48 08	 mov	 ecx, DWORD PTR [eax+8]
  00287	ff d1		 call	 ecx
$LN124@GetReturnV:
; File g:\网狐\happygamewh\服务端\系统模块\服务器组件\内核引擎\databaseengine.cpp

; 375  :                 return Parameter->Value.lVal;

  00289	8b 45 84	 mov	 eax, DWORD PTR $T6[ebp]
  0028c	eb 65		 jmp	 SHORT $LN24@GetReturnV
$LN6@GetReturnV:

; 376  :         }

  0028e	e9 43 fe ff ff	 jmp	 $LN2@GetReturnV
$LN3@GetReturnV:

; 377  : 
; 378  :         // 错误效验
; 379  :         ASSERT(FALSE);

  00293	33 d2		 xor	 edx, edx
  00295	75 19		 jne	 SHORT $LN8@GetReturnV
  00297	68 7b 01 00 00	 push	 379			; 0000017bH
  0029c	68 00 00 00 00	 push	 OFFSET ??_C@_0EL@CJALAN@g?3?2?M?x?$LK?$PM?2happygamewh?2?$LH?$PO?N?q?$LG?K?2?O?$LF?M?$LD@
  002a1	e8 00 00 00 00	 call	 ?AfxAssertFailedLine@@YGHPBDH@Z ; AfxAssertFailedLine
  002a6	89 45 80	 mov	 DWORD PTR tv440[ebp], eax
  002a9	83 7d 80 00	 cmp	 DWORD PTR tv440[ebp], 0
  002ad	74 01		 je	 SHORT $LN8@GetReturnV
  002af	cc		 int	 3
$LN8@GetReturnV:

; 380  :     }

  002b0	c6 45 fc 00	 mov	 BYTE PTR __$EHRec$[ebp+12], 0
; File c:\program files (x86)\microsoft visual studio\2017\community\vc\tools\msvc\14.16.27023\include\comip.h

; 817  :         if (m_pInterface != NULL) {

  002b4	83 7d ec 00	 cmp	 DWORD PTR _Parameter$24[ebp], 0
  002b8	74 0e		 je	 SHORT $LN132@GetReturnV

; 818  :             m_pInterface->Release();

  002ba	8b 4d ec	 mov	 ecx, DWORD PTR _Parameter$24[ebp]
  002bd	51		 push	 ecx
  002be	8b 55 ec	 mov	 edx, DWORD PTR _Parameter$24[ebp]
  002c1	8b 02		 mov	 eax, DWORD PTR [edx]
  002c3	8b 48 08	 mov	 ecx, DWORD PTR [eax+8]
  002c6	ff d1		 call	 ecx
$LN132@GetReturnV:
; File g:\网狐\happygamewh\服务端\系统模块\服务器组件\内核引擎\databaseengine.cpp

; 380  :     }

  002c8	eb 17		 jmp	 SHORT $LN9@GetReturnV
__catch$?GetReturnValue@CDataBase@@UAEJXZ$0:

; 381  :     catch (CComError & ComError)
; 382  :     {
; 383  :         OnSQLException(SQLException_Syntax, &ComError);

  002ca	8b 95 74 ff ff
	ff		 mov	 edx, DWORD PTR _ComError$4[ebp]
  002d0	52		 push	 edx
  002d1	6a 02		 push	 2
  002d3	8b 4d cc	 mov	 ecx, DWORD PTR _this$[ebp]
  002d6	e8 00 00 00 00	 call	 ?OnSQLException@CDataBase@@IAEXW4enSQLException@@PAV_com_error@@@Z ; CDataBase::OnSQLException

; 384  :     }

  002db	b8 00 00 00 00	 mov	 eax, $LN18@GetReturnV
  002e0	c3		 ret	 0
$LN9@GetReturnV:
  002e1	c7 45 fc ff ff
	ff ff		 mov	 DWORD PTR __$EHRec$[ebp+12], -1
  002e8	eb 07		 jmp	 SHORT __tryend$?GetReturnValue@CDataBase@@UAEJXZ$1
$LN18@GetReturnV:
; File c:\program files (x86)\microsoft visual studio\2017\community\vc\tools\msvc\14.16.27023\include\comip.h
  002ea	c7 45 fc ff ff
	ff ff		 mov	 DWORD PTR __$EHRec$[ebp+12], -1
__tryend$?GetReturnValue@CDataBase@@UAEJXZ$1:
; File g:\网狐\happygamewh\服务端\系统模块\服务器组件\内核引擎\databaseengine.cpp

; 385  : 
; 386  :     return 0L;

  002f1	33 c0		 xor	 eax, eax
$LN24@GetReturnV:

; 387  : }

  002f3	8b 4d f4	 mov	 ecx, DWORD PTR __$EHRec$[ebp+4]
  002f6	64 89 0d 00 00
	00 00		 mov	 DWORD PTR fs:0, ecx
  002fd	59		 pop	 ecx
  002fe	5f		 pop	 edi
  002ff	5e		 pop	 esi
  00300	5b		 pop	 ebx
  00301	8b e5		 mov	 esp, ebp
  00303	5d		 pop	 ebp
  00304	c3		 ret	 0
_TEXT	ENDS
;	COMDAT text$x
text$x	SEGMENT
__unwindfunclet$?GetReturnValue@CDataBase@@UAEJXZ$2:
  00000	8d 4d ec	 lea	 ecx, DWORD PTR _Parameter$24[ebp]
  00003	e9 00 00 00 00	 jmp	 ??1?$_com_ptr_t@V?$_com_IIID@U_Parameter@ADOCG@@$1?_GUID_0000050c_0000_0010_8000_00aa006d2ea4@@3U__s_GUID@@B@@@@QAE@XZ ; _com_ptr_t<_com_IIID<ADOCG::_Parameter,&_GUID_0000050c_0000_0010_8000_00aa006d2ea4> >::~_com_ptr_t<_com_IIID<ADOCG::_Parameter,&_GUID_0000050c_0000_0010_8000_00aa006d2ea4> >
__unwindfunclet$?GetReturnValue@CDataBase@@UAEJXZ$3:
  00008	8d 4d e4	 lea	 ecx, DWORD PTR $T22[ebp]
  0000b	e9 00 00 00 00	 jmp	 ??1?$_com_ptr_t@V?$_com_IIID@UParameters@ADOCG@@$1?_GUID_0000050d_0000_0010_8000_00aa006d2ea4@@3U__s_GUID@@B@@@@QAE@XZ ; _com_ptr_t<_com_IIID<ADOCG::Parameters,&_GUID_0000050d_0000_0010_8000_00aa006d2ea4> >::~_com_ptr_t<_com_IIID<ADOCG::Parameters,&_GUID_0000050d_0000_0010_8000_00aa006d2ea4> >
__unwindfunclet$?GetReturnValue@CDataBase@@UAEJXZ$4:
  00010	8d 8d 64 ff ff
	ff		 lea	 ecx, DWORD PTR $T3[ebp]
  00016	e9 00 00 00 00	 jmp	 ??1_variant_t@@QAE@XZ	; _variant_t::~_variant_t
__unwindfunclet$?GetReturnValue@CDataBase@@UAEJXZ$5:
  0001b	8d 4d d4	 lea	 ecx, DWORD PTR $T18[ebp]
  0001e	e9 00 00 00 00	 jmp	 ??1?$_com_ptr_t@V?$_com_IIID@UParameters@ADOCG@@$1?_GUID_0000050d_0000_0010_8000_00aa006d2ea4@@3U__s_GUID@@B@@@@QAE@XZ ; _com_ptr_t<_com_IIID<ADOCG::Parameters,&_GUID_0000050d_0000_0010_8000_00aa006d2ea4> >::~_com_ptr_t<_com_IIID<ADOCG::Parameters,&_GUID_0000050d_0000_0010_8000_00aa006d2ea4> >
__ehhandler$?GetReturnValue@CDataBase@@UAEJXZ:
  00023	8b 54 24 08	 mov	 edx, DWORD PTR [esp+8]
  00027	8d 42 0c	 lea	 eax, DWORD PTR [edx+12]
  0002a	8b 8a 50 ff ff
	ff		 mov	 ecx, DWORD PTR [edx-176]
  00030	33 c8		 xor	 ecx, eax
  00032	e8 00 00 00 00	 call	 @__security_check_cookie@4
  00037	b8 00 00 00 00	 mov	 eax, OFFSET __ehfuncinfo$?GetReturnValue@CDataBase@@UAEJXZ
  0003c	e9 00 00 00 00	 jmp	 ___CxxFrameHandler3
text$x	ENDS
?GetReturnValue@CDataBase@@UAEJXZ ENDP			; CDataBase::GetReturnValue
; Function compile flags: /Odtp
; File g:\网狐\happygamewh\服务端\系统模块\服务器组件\内核引擎\databaseengine.cpp
; File c:\program files (x86)\microsoft visual studio\2017\community\vc\tools\msvc\14.16.27023\include\comip.h
; File g:\网狐\happygamewh\服务端\中间目录\内核引擎\debug_ansi\msado15.tli
; File g:\网狐\happygamewh\服务端\系统模块\服务器组件\内核引擎\databaseengine.cpp
;	COMDAT ?GetRecordCount@CDataBase@@UAEJXZ
_TEXT	SEGMENT
_ComError$2 = -44					; size = 4
__result$3 = -40					; size = 4
tv71 = -36						; size = 4
_this$ = -32						; size = 4
__hr$4 = -28						; size = 4
_this$ = -24						; size = 4
$T5 = -20						; size = 4
__$EHRec$ = -16						; size = 16
?GetRecordCount@CDataBase@@UAEJXZ PROC			; CDataBase::GetRecordCount, COMDAT
; _this$ = ecx

; 348  : {

  00000	55		 push	 ebp
  00001	8b ec		 mov	 ebp, esp
  00003	6a ff		 push	 -1
  00005	68 00 00 00 00	 push	 __ehhandler$?GetRecordCount@CDataBase@@UAEJXZ
  0000a	64 a1 00 00 00
	00		 mov	 eax, DWORD PTR fs:0
  00010	50		 push	 eax
  00011	51		 push	 ecx
  00012	83 ec 1c	 sub	 esp, 28			; 0000001cH
  00015	53		 push	 ebx
  00016	56		 push	 esi
  00017	57		 push	 edi
  00018	a1 00 00 00 00	 mov	 eax, DWORD PTR ___security_cookie
  0001d	33 c5		 xor	 eax, ebp
  0001f	50		 push	 eax
  00020	8d 45 f4	 lea	 eax, DWORD PTR __$EHRec$[ebp+4]
  00023	64 a3 00 00 00
	00		 mov	 DWORD PTR fs:0, eax
  00029	89 65 f0	 mov	 DWORD PTR __$EHRec$[ebp], esp
  0002c	89 4d e0	 mov	 DWORD PTR _this$[ebp], ecx

; 349  :     try

  0002f	c7 45 fc 00 00
	00 00		 mov	 DWORD PTR __$EHRec$[ebp+12], 0

; 351  :         return m_DBRecordset->GetRecordCount();

  00036	8b 45 e0	 mov	 eax, DWORD PTR _this$[ebp]
  00039	83 c0 2c	 add	 eax, 44			; 0000002cH
  0003c	89 45 e8	 mov	 DWORD PTR _this$[ebp], eax
; File c:\program files (x86)\microsoft visual studio\2017\community\vc\tools\msvc\14.16.27023\include\comip.h

; 428  :         if (m_pInterface == NULL) {

  0003f	8b 4d e8	 mov	 ecx, DWORD PTR _this$[ebp]
  00042	83 39 00	 cmp	 DWORD PTR [ecx], 0
  00045	75 0a		 jne	 SHORT $LN9@GetRecordC

; 429  :             _com_issue_error(E_POINTER);

  00047	68 03 40 00 80	 push	 -2147467261		; 80004003H
  0004c	e8 00 00 00 00	 call	 ?_com_issue_error@@YGXJ@Z ; _com_issue_error
$LN9@GetRecordC:
  00051	8b 55 e8	 mov	 edx, DWORD PTR _this$[ebp]
  00054	8b 02		 mov	 eax, DWORD PTR [edx]
  00056	89 45 ec	 mov	 DWORD PTR $T5[ebp], eax
; File g:\网狐\happygamewh\服务端\中间目录\内核引擎\debug_ansi\msado15.tli

; 1495 :     HRESULT _hr = get_RecordCount(&_result);

  00059	8d 4d d8	 lea	 ecx, DWORD PTR __result$3[ebp]
  0005c	51		 push	 ecx
  0005d	8b 55 ec	 mov	 edx, DWORD PTR $T5[ebp]
  00060	52		 push	 edx
  00061	8b 45 ec	 mov	 eax, DWORD PTR $T5[ebp]
  00064	8b 08		 mov	 ecx, DWORD PTR [eax]
  00066	8b 51 68	 mov	 edx, DWORD PTR [ecx+104]
  00069	ff d2		 call	 edx
  0006b	89 45 dc	 mov	 DWORD PTR tv71[ebp], eax
  0006e	8b 45 dc	 mov	 eax, DWORD PTR tv71[ebp]
  00071	89 45 e4	 mov	 DWORD PTR __hr$4[ebp], eax

; 1496 :     if (FAILED(_hr)) _com_issue_errorex(_hr, this, __uuidof(this));

  00074	83 7d e4 00	 cmp	 DWORD PTR __hr$4[ebp], 0
  00078	7d 12		 jge	 SHORT $LN12@GetRecordC
  0007a	68 00 00 00 00	 push	 OFFSET __GUID_0000050e_0000_0010_8000_00aa006d2ea4
  0007f	8b 4d ec	 mov	 ecx, DWORD PTR $T5[ebp]
  00082	51		 push	 ecx
  00083	8b 55 e4	 mov	 edx, DWORD PTR __hr$4[ebp]
  00086	52		 push	 edx
  00087	e8 00 00 00 00	 call	 ?_com_issue_errorex@@YGXJPAUIUnknown@@ABU_GUID@@@Z ; _com_issue_errorex
$LN12@GetRecordC:
; File g:\网狐\happygamewh\服务端\系统模块\服务器组件\内核引擎\databaseengine.cpp

; 351  :         return m_DBRecordset->GetRecordCount();

  0008c	8b 45 d8	 mov	 eax, DWORD PTR __result$3[ebp]
  0008f	eb 26		 jmp	 SHORT $LN11@GetRecordC
__catch$?GetRecordCount@CDataBase@@UAEJXZ$0:

; 352  :     }
; 353  :     catch (CComError & ComError)
; 354  :     {
; 355  :         OnSQLException(SQLException_Syntax, &ComError);

  00091	8b 45 d4	 mov	 eax, DWORD PTR _ComError$2[ebp]
  00094	50		 push	 eax
  00095	6a 02		 push	 2
  00097	8b 4d e0	 mov	 ecx, DWORD PTR _this$[ebp]
  0009a	e8 00 00 00 00	 call	 ?OnSQLException@CDataBase@@IAEXW4enSQLException@@PAV_com_error@@@Z ; CDataBase::OnSQLException

; 356  :     }

  0009f	b8 00 00 00 00	 mov	 eax, $LN7@GetRecordC
  000a4	c3		 ret	 0
  000a5	c7 45 fc ff ff
	ff ff		 mov	 DWORD PTR __$EHRec$[ebp+12], -1
  000ac	eb 07		 jmp	 SHORT __tryend$?GetRecordCount@CDataBase@@UAEJXZ$1
$LN7@GetRecordC:
; File g:\网狐\happygamewh\服务端\中间目录\内核引擎\debug_ansi\msado15.tli
  000ae	c7 45 fc ff ff
	ff ff		 mov	 DWORD PTR __$EHRec$[ebp+12], -1
__tryend$?GetRecordCount@CDataBase@@UAEJXZ$1:
; File g:\网狐\happygamewh\服务端\系统模块\服务器组件\内核引擎\databaseengine.cpp

; 357  : 
; 358  :     return 0;

  000b5	33 c0		 xor	 eax, eax
$LN11@GetRecordC:

; 359  : }

  000b7	8b 4d f4	 mov	 ecx, DWORD PTR __$EHRec$[ebp+4]
  000ba	64 89 0d 00 00
	00 00		 mov	 DWORD PTR fs:0, ecx
  000c1	59		 pop	 ecx
  000c2	5f		 pop	 edi
  000c3	5e		 pop	 esi
  000c4	5b		 pop	 ebx
  000c5	8b e5		 mov	 esp, ebp
  000c7	5d		 pop	 ebp
  000c8	c3		 ret	 0
_TEXT	ENDS
;	COMDAT text$x
text$x	SEGMENT
__ehhandler$?GetRecordCount@CDataBase@@UAEJXZ:
  00000	8b 54 24 08	 mov	 edx, DWORD PTR [esp+8]
  00004	8d 42 0c	 lea	 eax, DWORD PTR [edx+12]
  00007	8b 4a d0	 mov	 ecx, DWORD PTR [edx-48]
  0000a	33 c8		 xor	 ecx, eax
  0000c	e8 00 00 00 00	 call	 @__security_check_cookie@4
  00011	b8 00 00 00 00	 mov	 eax, OFFSET __ehfuncinfo$?GetRecordCount@CDataBase@@UAEJXZ
  00016	e9 00 00 00 00	 jmp	 ___CxxFrameHandler3
text$x	ENDS
?GetRecordCount@CDataBase@@UAEJXZ ENDP			; CDataBase::GetRecordCount
; Function compile flags: /Odtp
; File g:\网狐\happygamewh\服务端\系统模块\服务器组件\内核引擎\databaseengine.cpp
; File c:\program files (x86)\microsoft visual studio\2017\community\vc\tools\msvc\14.16.27023\include\comip.h
; File g:\网狐\happygamewh\服务端\系统模块\服务器组件\内核引擎\databaseengine.cpp
;	COMDAT ?IsRecordsetEnd@CDataBase@@UAE_NXZ
_TEXT	SEGMENT
_ComError$2 = -40					; size = 4
$T3 = -36						; size = 4
_this$ = -32						; size = 4
tv75 = -28						; size = 4
_this$ = -24						; size = 4
tv128 = -18						; size = 2
__$EHRec$ = -16						; size = 16
?IsRecordsetEnd@CDataBase@@UAE_NXZ PROC			; CDataBase::IsRecordsetEnd, COMDAT
; _this$ = ecx

; 333  : {

  00000	55		 push	 ebp
  00001	8b ec		 mov	 ebp, esp
  00003	6a ff		 push	 -1
  00005	68 00 00 00 00	 push	 __ehhandler$?IsRecordsetEnd@CDataBase@@UAE_NXZ
  0000a	64 a1 00 00 00
	00		 mov	 eax, DWORD PTR fs:0
  00010	50		 push	 eax
  00011	51		 push	 ecx
  00012	83 ec 18	 sub	 esp, 24			; 00000018H
  00015	53		 push	 ebx
  00016	56		 push	 esi
  00017	57		 push	 edi
  00018	a1 00 00 00 00	 mov	 eax, DWORD PTR ___security_cookie
  0001d	33 c5		 xor	 eax, ebp
  0001f	50		 push	 eax
  00020	8d 45 f4	 lea	 eax, DWORD PTR __$EHRec$[ebp+4]
  00023	64 a3 00 00 00
	00		 mov	 DWORD PTR fs:0, eax
  00029	89 65 f0	 mov	 DWORD PTR __$EHRec$[ebp], esp
  0002c	89 4d e0	 mov	 DWORD PTR _this$[ebp], ecx

; 334  :     try

  0002f	c7 45 fc 00 00
	00 00		 mov	 DWORD PTR __$EHRec$[ebp+12], 0

; 336  :         return (m_DBRecordset->EndOfFile == VARIANT_TRUE);

  00036	8b 45 e0	 mov	 eax, DWORD PTR _this$[ebp]
  00039	83 c0 2c	 add	 eax, 44			; 0000002cH
  0003c	89 45 e8	 mov	 DWORD PTR _this$[ebp], eax
; File c:\program files (x86)\microsoft visual studio\2017\community\vc\tools\msvc\14.16.27023\include\comip.h

; 428  :         if (m_pInterface == NULL) {

  0003f	8b 4d e8	 mov	 ecx, DWORD PTR _this$[ebp]
  00042	83 39 00	 cmp	 DWORD PTR [ecx], 0
  00045	75 0a		 jne	 SHORT $LN11@IsRecordse

; 429  :             _com_issue_error(E_POINTER);

  00047	68 03 40 00 80	 push	 -2147467261		; 80004003H
  0004c	e8 00 00 00 00	 call	 ?_com_issue_error@@YGXJ@Z ; _com_issue_error
$LN11@IsRecordse:
  00051	8b 55 e8	 mov	 edx, DWORD PTR _this$[ebp]
  00054	8b 02		 mov	 eax, DWORD PTR [edx]
  00056	89 45 dc	 mov	 DWORD PTR $T3[ebp], eax
; File g:\网狐\happygamewh\服务端\系统模块\服务器组件\内核引擎\databaseengine.cpp

; 336  :         return (m_DBRecordset->EndOfFile == VARIANT_TRUE);

  00059	8b 4d dc	 mov	 ecx, DWORD PTR $T3[ebp]
  0005c	e8 00 00 00 00	 call	 ?GetEndOfFile@Recordset15@ADOCG@@QAEFXZ ; ADOCG::Recordset15::GetEndOfFile
  00061	66 89 45 ee	 mov	 WORD PTR tv128[ebp], ax
  00065	0f bf 4d ee	 movsx	 ecx, WORD PTR tv128[ebp]
  00069	83 f9 ff	 cmp	 ecx, -1
  0006c	75 09		 jne	 SHORT $LN4@IsRecordse
  0006e	c7 45 e4 01 00
	00 00		 mov	 DWORD PTR tv75[ebp], 1
  00075	eb 07		 jmp	 SHORT $LN5@IsRecordse
$LN4@IsRecordse:
  00077	c7 45 e4 00 00
	00 00		 mov	 DWORD PTR tv75[ebp], 0
$LN5@IsRecordse:
  0007e	8a 45 e4	 mov	 al, BYTE PTR tv75[ebp]
  00081	eb 26		 jmp	 SHORT $LN13@IsRecordse
__catch$?IsRecordsetEnd@CDataBase@@UAE_NXZ$0:

; 337  :     }
; 338  :     catch (CComError & ComError)
; 339  :     {
; 340  :         OnSQLException(SQLException_Syntax, &ComError);

  00083	8b 55 d8	 mov	 edx, DWORD PTR _ComError$2[ebp]
  00086	52		 push	 edx
  00087	6a 02		 push	 2
  00089	8b 4d e0	 mov	 ecx, DWORD PTR _this$[ebp]
  0008c	e8 00 00 00 00	 call	 ?OnSQLException@CDataBase@@IAEXW4enSQLException@@PAV_com_error@@@Z ; CDataBase::OnSQLException

; 341  :     }

  00091	b8 00 00 00 00	 mov	 eax, $LN9@IsRecordse
  00096	c3		 ret	 0
  00097	c7 45 fc ff ff
	ff ff		 mov	 DWORD PTR __$EHRec$[ebp+12], -1
  0009e	eb 07		 jmp	 SHORT __tryend$?IsRecordsetEnd@CDataBase@@UAE_NXZ$1
$LN9@IsRecordse:
; File c:\program files (x86)\microsoft visual studio\2017\community\vc\tools\msvc\14.16.27023\include\comip.h
  000a0	c7 45 fc ff ff
	ff ff		 mov	 DWORD PTR __$EHRec$[ebp+12], -1
__tryend$?IsRecordsetEnd@CDataBase@@UAE_NXZ$1:
; File g:\网狐\happygamewh\服务端\系统模块\服务器组件\内核引擎\databaseengine.cpp

; 342  : 
; 343  :     return true;

  000a7	b0 01		 mov	 al, 1
$LN13@IsRecordse:

; 344  : }

  000a9	8b 4d f4	 mov	 ecx, DWORD PTR __$EHRec$[ebp+4]
  000ac	64 89 0d 00 00
	00 00		 mov	 DWORD PTR fs:0, ecx
  000b3	59		 pop	 ecx
  000b4	5f		 pop	 edi
  000b5	5e		 pop	 esi
  000b6	5b		 pop	 ebx
  000b7	8b e5		 mov	 esp, ebp
  000b9	5d		 pop	 ebp
  000ba	c3		 ret	 0
_TEXT	ENDS
;	COMDAT text$x
text$x	SEGMENT
__ehhandler$?IsRecordsetEnd@CDataBase@@UAE_NXZ:
  00000	8b 54 24 08	 mov	 edx, DWORD PTR [esp+8]
  00004	8d 42 0c	 lea	 eax, DWORD PTR [edx+12]
  00007	8b 4a d4	 mov	 ecx, DWORD PTR [edx-44]
  0000a	33 c8		 xor	 ecx, eax
  0000c	e8 00 00 00 00	 call	 @__security_check_cookie@4
  00011	b8 00 00 00 00	 mov	 eax, OFFSET __ehfuncinfo$?IsRecordsetEnd@CDataBase@@UAE_NXZ
  00016	e9 00 00 00 00	 jmp	 ___CxxFrameHandler3
text$x	ENDS
?IsRecordsetEnd@CDataBase@@UAE_NXZ ENDP			; CDataBase::IsRecordsetEnd
; Function compile flags: /Odtp
; File g:\网狐\happygamewh\服务端\系统模块\服务器组件\内核引擎\databaseengine.cpp
; File c:\program files (x86)\microsoft visual studio\2017\community\vc\tools\msvc\14.16.27023\include\comip.h
; File g:\网狐\happygamewh\服务端\中间目录\内核引擎\debug_ansi\msado15.tli
; File g:\网狐\happygamewh\服务端\系统模块\服务器组件\内核引擎\databaseengine.cpp
;	COMDAT ?MoveToFirst@CDataBase@@UAEXXZ
_TEXT	SEGMENT
_ComError$2 = -40					; size = 4
tv71 = -36						; size = 4
_this$ = -32						; size = 4
__hr$3 = -28						; size = 4
_this$ = -24						; size = 4
$T4 = -20						; size = 4
__$EHRec$ = -16						; size = 16
?MoveToFirst@CDataBase@@UAEXXZ PROC			; CDataBase::MoveToFirst, COMDAT
; _this$ = ecx

; 318  : {

  00000	55		 push	 ebp
  00001	8b ec		 mov	 ebp, esp
  00003	6a ff		 push	 -1
  00005	68 00 00 00 00	 push	 __ehhandler$?MoveToFirst@CDataBase@@UAEXXZ
  0000a	64 a1 00 00 00
	00		 mov	 eax, DWORD PTR fs:0
  00010	50		 push	 eax
  00011	51		 push	 ecx
  00012	83 ec 18	 sub	 esp, 24			; 00000018H
  00015	53		 push	 ebx
  00016	56		 push	 esi
  00017	57		 push	 edi
  00018	a1 00 00 00 00	 mov	 eax, DWORD PTR ___security_cookie
  0001d	33 c5		 xor	 eax, ebp
  0001f	50		 push	 eax
  00020	8d 45 f4	 lea	 eax, DWORD PTR __$EHRec$[ebp+4]
  00023	64 a3 00 00 00
	00		 mov	 DWORD PTR fs:0, eax
  00029	89 65 f0	 mov	 DWORD PTR __$EHRec$[ebp], esp
  0002c	89 4d e0	 mov	 DWORD PTR _this$[ebp], ecx

; 319  :     try

  0002f	c7 45 fc 00 00
	00 00		 mov	 DWORD PTR __$EHRec$[ebp+12], 0

; 320  :     {
; 321  :         m_DBRecordset->MoveFirst();

  00036	8b 45 e0	 mov	 eax, DWORD PTR _this$[ebp]
  00039	83 c0 2c	 add	 eax, 44			; 0000002cH
  0003c	89 45 e8	 mov	 DWORD PTR _this$[ebp], eax
; File c:\program files (x86)\microsoft visual studio\2017\community\vc\tools\msvc\14.16.27023\include\comip.h

; 428  :         if (m_pInterface == NULL) {

  0003f	8b 4d e8	 mov	 ecx, DWORD PTR _this$[ebp]
  00042	83 39 00	 cmp	 DWORD PTR [ecx], 0
  00045	75 0a		 jne	 SHORT $LN9@MoveToFirs

; 429  :             _com_issue_error(E_POINTER);

  00047	68 03 40 00 80	 push	 -2147467261		; 80004003H
  0004c	e8 00 00 00 00	 call	 ?_com_issue_error@@YGXJ@Z ; _com_issue_error
$LN9@MoveToFirs:
  00051	8b 55 e8	 mov	 edx, DWORD PTR _this$[ebp]
  00054	8b 02		 mov	 eax, DWORD PTR [edx]
  00056	89 45 ec	 mov	 DWORD PTR $T4[ebp], eax
; File g:\网狐\happygamewh\服务端\中间目录\内核引擎\debug_ansi\msado15.tli

; 1569 :     HRESULT _hr = raw_MoveFirst();

  00059	8b 4d ec	 mov	 ecx, DWORD PTR $T4[ebp]
  0005c	51		 push	 ecx
  0005d	8b 55 ec	 mov	 edx, DWORD PTR $T4[ebp]
  00060	8b 02		 mov	 eax, DWORD PTR [edx]
  00062	8b 88 98 00 00
	00		 mov	 ecx, DWORD PTR [eax+152]
  00068	ff d1		 call	 ecx
  0006a	89 45 dc	 mov	 DWORD PTR tv71[ebp], eax
  0006d	8b 55 dc	 mov	 edx, DWORD PTR tv71[ebp]
  00070	89 55 e4	 mov	 DWORD PTR __hr$3[ebp], edx

; 1570 :     if (FAILED(_hr)) _com_issue_errorex(_hr, this, __uuidof(this));

  00073	83 7d e4 00	 cmp	 DWORD PTR __hr$3[ebp], 0
  00077	7d 12		 jge	 SHORT $LN12@MoveToFirs
  00079	68 00 00 00 00	 push	 OFFSET __GUID_0000050e_0000_0010_8000_00aa006d2ea4
  0007e	8b 45 ec	 mov	 eax, DWORD PTR $T4[ebp]
  00081	50		 push	 eax
  00082	8b 4d e4	 mov	 ecx, DWORD PTR __hr$3[ebp]
  00085	51		 push	 ecx
  00086	e8 00 00 00 00	 call	 ?_com_issue_errorex@@YGXJPAUIUnknown@@ABU_GUID@@@Z ; _com_issue_errorex
$LN12@MoveToFirs:
; File g:\网狐\happygamewh\服务端\系统模块\服务器组件\内核引擎\databaseengine.cpp

; 322  :     }

  0008b	eb 14		 jmp	 SHORT $LN4@MoveToFirs
__catch$?MoveToFirst@CDataBase@@UAEXXZ$0:

; 323  :     catch (CComError & ComError)
; 324  :     {
; 325  :         OnSQLException(SQLException_Syntax, &ComError);

  0008d	8b 55 d8	 mov	 edx, DWORD PTR _ComError$2[ebp]
  00090	52		 push	 edx
  00091	6a 02		 push	 2
  00093	8b 4d e0	 mov	 ecx, DWORD PTR _this$[ebp]
  00096	e8 00 00 00 00	 call	 ?OnSQLException@CDataBase@@IAEXW4enSQLException@@PAV_com_error@@@Z ; CDataBase::OnSQLException

; 326  :     }

  0009b	b8 00 00 00 00	 mov	 eax, $LN7@MoveToFirs
  000a0	c3		 ret	 0
$LN4@MoveToFirs:
  000a1	c7 45 fc ff ff
	ff ff		 mov	 DWORD PTR __$EHRec$[ebp+12], -1
  000a8	eb 07		 jmp	 SHORT $LN11@MoveToFirs
$LN7@MoveToFirs:
; File g:\网狐\happygamewh\服务端\中间目录\内核引擎\debug_ansi\msado15.tli
  000aa	c7 45 fc ff ff
	ff ff		 mov	 DWORD PTR __$EHRec$[ebp+12], -1
$LN11@MoveToFirs:
; File g:\网狐\happygamewh\服务端\系统模块\服务器组件\内核引擎\databaseengine.cpp

; 327  : 
; 328  :     return;
; 329  : }

  000b1	8b 4d f4	 mov	 ecx, DWORD PTR __$EHRec$[ebp+4]
  000b4	64 89 0d 00 00
	00 00		 mov	 DWORD PTR fs:0, ecx
  000bb	59		 pop	 ecx
  000bc	5f		 pop	 edi
  000bd	5e		 pop	 esi
  000be	5b		 pop	 ebx
  000bf	8b e5		 mov	 esp, ebp
  000c1	5d		 pop	 ebp
  000c2	c3		 ret	 0
_TEXT	ENDS
;	COMDAT text$x
text$x	SEGMENT
__ehhandler$?MoveToFirst@CDataBase@@UAEXXZ:
  00000	8b 54 24 08	 mov	 edx, DWORD PTR [esp+8]
  00004	8d 42 0c	 lea	 eax, DWORD PTR [edx+12]
  00007	8b 4a d4	 mov	 ecx, DWORD PTR [edx-44]
  0000a	33 c8		 xor	 ecx, eax
  0000c	e8 00 00 00 00	 call	 @__security_check_cookie@4
  00011	b8 00 00 00 00	 mov	 eax, OFFSET __ehfuncinfo$?MoveToFirst@CDataBase@@UAEXXZ
  00016	e9 00 00 00 00	 jmp	 ___CxxFrameHandler3
text$x	ENDS
?MoveToFirst@CDataBase@@UAEXXZ ENDP			; CDataBase::MoveToFirst
; Function compile flags: /Odtp
; File g:\网狐\happygamewh\服务端\系统模块\服务器组件\内核引擎\databaseengine.cpp
; File c:\program files (x86)\microsoft visual studio\2017\community\vc\tools\msvc\14.16.27023\include\comip.h
; File g:\网狐\happygamewh\服务端\中间目录\内核引擎\debug_ansi\msado15.tli
; File g:\网狐\happygamewh\服务端\系统模块\服务器组件\内核引擎\databaseengine.cpp
;	COMDAT ?MoveToNext@CDataBase@@UAEXXZ
_TEXT	SEGMENT
_ComError$2 = -40					; size = 4
tv71 = -36						; size = 4
_this$ = -32						; size = 4
__hr$3 = -28						; size = 4
_this$ = -24						; size = 4
$T4 = -20						; size = 4
__$EHRec$ = -16						; size = 16
?MoveToNext@CDataBase@@UAEXXZ PROC			; CDataBase::MoveToNext, COMDAT
; _this$ = ecx

; 303  : {

  00000	55		 push	 ebp
  00001	8b ec		 mov	 ebp, esp
  00003	6a ff		 push	 -1
  00005	68 00 00 00 00	 push	 __ehhandler$?MoveToNext@CDataBase@@UAEXXZ
  0000a	64 a1 00 00 00
	00		 mov	 eax, DWORD PTR fs:0
  00010	50		 push	 eax
  00011	51		 push	 ecx
  00012	83 ec 18	 sub	 esp, 24			; 00000018H
  00015	53		 push	 ebx
  00016	56		 push	 esi
  00017	57		 push	 edi
  00018	a1 00 00 00 00	 mov	 eax, DWORD PTR ___security_cookie
  0001d	33 c5		 xor	 eax, ebp
  0001f	50		 push	 eax
  00020	8d 45 f4	 lea	 eax, DWORD PTR __$EHRec$[ebp+4]
  00023	64 a3 00 00 00
	00		 mov	 DWORD PTR fs:0, eax
  00029	89 65 f0	 mov	 DWORD PTR __$EHRec$[ebp], esp
  0002c	89 4d e0	 mov	 DWORD PTR _this$[ebp], ecx

; 304  :     try

  0002f	c7 45 fc 00 00
	00 00		 mov	 DWORD PTR __$EHRec$[ebp+12], 0

; 305  :     {
; 306  :         m_DBRecordset->MoveNext();

  00036	8b 45 e0	 mov	 eax, DWORD PTR _this$[ebp]
  00039	83 c0 2c	 add	 eax, 44			; 0000002cH
  0003c	89 45 e8	 mov	 DWORD PTR _this$[ebp], eax
; File c:\program files (x86)\microsoft visual studio\2017\community\vc\tools\msvc\14.16.27023\include\comip.h

; 428  :         if (m_pInterface == NULL) {

  0003f	8b 4d e8	 mov	 ecx, DWORD PTR _this$[ebp]
  00042	83 39 00	 cmp	 DWORD PTR [ecx], 0
  00045	75 0a		 jne	 SHORT $LN9@MoveToNext

; 429  :             _com_issue_error(E_POINTER);

  00047	68 03 40 00 80	 push	 -2147467261		; 80004003H
  0004c	e8 00 00 00 00	 call	 ?_com_issue_error@@YGXJ@Z ; _com_issue_error
$LN9@MoveToNext:
  00051	8b 55 e8	 mov	 edx, DWORD PTR _this$[ebp]
  00054	8b 02		 mov	 eax, DWORD PTR [edx]
  00056	89 45 ec	 mov	 DWORD PTR $T4[ebp], eax
; File g:\网狐\happygamewh\服务端\中间目录\内核引擎\debug_ansi\msado15.tli

; 1557 :     HRESULT _hr = raw_MoveNext();

  00059	8b 4d ec	 mov	 ecx, DWORD PTR $T4[ebp]
  0005c	51		 push	 ecx
  0005d	8b 55 ec	 mov	 edx, DWORD PTR $T4[ebp]
  00060	8b 02		 mov	 eax, DWORD PTR [edx]
  00062	8b 88 90 00 00
	00		 mov	 ecx, DWORD PTR [eax+144]
  00068	ff d1		 call	 ecx
  0006a	89 45 dc	 mov	 DWORD PTR tv71[ebp], eax
  0006d	8b 55 dc	 mov	 edx, DWORD PTR tv71[ebp]
  00070	89 55 e4	 mov	 DWORD PTR __hr$3[ebp], edx

; 1558 :     if (FAILED(_hr)) _com_issue_errorex(_hr, this, __uuidof(this));

  00073	83 7d e4 00	 cmp	 DWORD PTR __hr$3[ebp], 0
  00077	7d 12		 jge	 SHORT $LN12@MoveToNext
  00079	68 00 00 00 00	 push	 OFFSET __GUID_0000050e_0000_0010_8000_00aa006d2ea4
  0007e	8b 45 ec	 mov	 eax, DWORD PTR $T4[ebp]
  00081	50		 push	 eax
  00082	8b 4d e4	 mov	 ecx, DWORD PTR __hr$3[ebp]
  00085	51		 push	 ecx
  00086	e8 00 00 00 00	 call	 ?_com_issue_errorex@@YGXJPAUIUnknown@@ABU_GUID@@@Z ; _com_issue_errorex
$LN12@MoveToNext:
; File g:\网狐\happygamewh\服务端\系统模块\服务器组件\内核引擎\databaseengine.cpp

; 307  :     }

  0008b	eb 14		 jmp	 SHORT $LN4@MoveToNext
__catch$?MoveToNext@CDataBase@@UAEXXZ$0:

; 308  :     catch (CComError & ComError)
; 309  :     {
; 310  :         OnSQLException(SQLException_Syntax, &ComError);

  0008d	8b 55 d8	 mov	 edx, DWORD PTR _ComError$2[ebp]
  00090	52		 push	 edx
  00091	6a 02		 push	 2
  00093	8b 4d e0	 mov	 ecx, DWORD PTR _this$[ebp]
  00096	e8 00 00 00 00	 call	 ?OnSQLException@CDataBase@@IAEXW4enSQLException@@PAV_com_error@@@Z ; CDataBase::OnSQLException

; 311  :     }

  0009b	b8 00 00 00 00	 mov	 eax, $LN7@MoveToNext
  000a0	c3		 ret	 0
$LN4@MoveToNext:
  000a1	c7 45 fc ff ff
	ff ff		 mov	 DWORD PTR __$EHRec$[ebp+12], -1
  000a8	eb 07		 jmp	 SHORT $LN11@MoveToNext
$LN7@MoveToNext:
; File g:\网狐\happygamewh\服务端\中间目录\内核引擎\debug_ansi\msado15.tli
  000aa	c7 45 fc ff ff
	ff ff		 mov	 DWORD PTR __$EHRec$[ebp+12], -1
$LN11@MoveToNext:
; File g:\网狐\happygamewh\服务端\系统模块\服务器组件\内核引擎\databaseengine.cpp

; 312  : 
; 313  :     return;
; 314  : }

  000b1	8b 4d f4	 mov	 ecx, DWORD PTR __$EHRec$[ebp+4]
  000b4	64 89 0d 00 00
	00 00		 mov	 DWORD PTR fs:0, ecx
  000bb	59		 pop	 ecx
  000bc	5f		 pop	 edi
  000bd	5e		 pop	 esi
  000be	5b		 pop	 ebx
  000bf	8b e5		 mov	 esp, ebp
  000c1	5d		 pop	 ebp
  000c2	c3		 ret	 0
_TEXT	ENDS
;	COMDAT text$x
text$x	SEGMENT
__ehhandler$?MoveToNext@CDataBase@@UAEXXZ:
  00000	8b 54 24 08	 mov	 edx, DWORD PTR [esp+8]
  00004	8d 42 0c	 lea	 eax, DWORD PTR [edx+12]
  00007	8b 4a d4	 mov	 ecx, DWORD PTR [edx-44]
  0000a	33 c8		 xor	 ecx, eax
  0000c	e8 00 00 00 00	 call	 @__security_check_cookie@4
  00011	b8 00 00 00 00	 mov	 eax, OFFSET __ehfuncinfo$?MoveToNext@CDataBase@@UAEXXZ
  00016	e9 00 00 00 00	 jmp	 ___CxxFrameHandler3
text$x	ENDS
?MoveToNext@CDataBase@@UAEXXZ ENDP			; CDataBase::MoveToNext
; Function compile flags: /Odtp
; File g:\网狐\happygamewh\服务端\系统模块\服务器组件\内核引擎\databaseengine.cpp
; File c:\program files (x86)\microsoft visual studio\2017\community\vc\tools\msvc\14.16.27023\include\comip.h
; File g:\网狐\happygamewh\服务端\系统模块\服务器组件\内核引擎\databaseengine.cpp
; File c:\program files (x86)\microsoft visual studio\2017\community\vc\tools\msvc\14.16.27023\include\comip.h
; File g:\网狐\happygamewh\服务端\系统模块\服务器组件\内核引擎\databaseengine.cpp
;	COMDAT ?BindToRecordset@CDataBase@@UAEXPAVCADORecordBinding@@@Z
_TEXT	SEGMENT
_ComError$2 = -40					; size = 4
$T3 = -36						; size = 4
tv68 = -32						; size = 4
_this$ = -28						; size = 4
tv72 = -24						; size = 4
_RecordBindingPtr$4 = -20				; size = 4
__$EHRec$ = -16						; size = 16
_pBind$ = 8						; size = 4
?BindToRecordset@CDataBase@@UAEXPAVCADORecordBinding@@@Z PROC ; CDataBase::BindToRecordset, COMDAT
; _this$ = ecx

; 287  : {

  00000	55		 push	 ebp
  00001	8b ec		 mov	 ebp, esp
  00003	6a ff		 push	 -1
  00005	68 00 00 00 00	 push	 __ehhandler$?BindToRecordset@CDataBase@@UAEXPAVCADORecordBinding@@@Z
  0000a	64 a1 00 00 00
	00		 mov	 eax, DWORD PTR fs:0
  00010	50		 push	 eax
  00011	51		 push	 ecx
  00012	83 ec 18	 sub	 esp, 24			; 00000018H
  00015	53		 push	 ebx
  00016	56		 push	 esi
  00017	57		 push	 edi
  00018	a1 00 00 00 00	 mov	 eax, DWORD PTR ___security_cookie
  0001d	33 c5		 xor	 eax, ebp
  0001f	50		 push	 eax
  00020	8d 45 f4	 lea	 eax, DWORD PTR __$EHRec$[ebp+4]
  00023	64 a3 00 00 00
	00		 mov	 DWORD PTR fs:0, eax
  00029	89 65 f0	 mov	 DWORD PTR __$EHRec$[ebp], esp
  0002c	89 4d e4	 mov	 DWORD PTR _this$[ebp], ecx

; 288  :     try

  0002f	c7 45 fc 00 00
	00 00		 mov	 DWORD PTR __$EHRec$[ebp+12], 0

; 289  :     {
; 290  :         IADORecordBindingPtr RecordBindingPtr(m_DBRecordset);

  00036	8b 45 e4	 mov	 eax, DWORD PTR _this$[ebp]
  00039	83 c0 2c	 add	 eax, 44			; 0000002cH
  0003c	50		 push	 eax
  0003d	8d 4d ec	 lea	 ecx, DWORD PTR _RecordBindingPtr$4[ebp]
  00040	e8 00 00 00 00	 call	 ??$?0V?$_com_IIID@U_Recordset@ADOCG@@$1?_GUID_00000556_0000_0010_8000_00aa006d2ea4@@3U__s_GUID@@B@@@?$_com_ptr_t@V?$_com_IIID@UIADORecordBinding@@$1?_GUID_00000544_0000_0010_8000_00aa006d2ea4@@3U__s_GUID@@B@@@@QAE@ABV?$_com_ptr_t@V?$_com_IIID@U_Recordset@ADOCG@@$1?_GUID_00000556_0000_0010_8000_00aa006d2ea4@@3U__s_GUID@@B@@@@@Z ; _com_ptr_t<_com_IIID<IADORecordBinding,&_GUID_00000544_0000_0010_8000_00aa006d2ea4> >::_com_ptr_t<_com_IIID<IADORecordBinding,&_GUID_00000544_0000_0010_8000_00aa006d2ea4> ><_com_IIID<ADOCG::_Recordset,&_GUID_00000556_0000_0010_8000_00aa006d2ea4> >
  00045	89 45 e0	 mov	 DWORD PTR tv68[ebp], eax
  00048	c6 45 fc 01	 mov	 BYTE PTR __$EHRec$[ebp+12], 1

; 291  :         RecordBindingPtr->BindToRecordset(pBind);

  0004c	8b 4d dc	 mov	 ecx, DWORD PTR $T3[ebp]
  0004f	89 4d e8	 mov	 DWORD PTR tv72[ebp], ecx
; File c:\program files (x86)\microsoft visual studio\2017\community\vc\tools\msvc\14.16.27023\include\comip.h

; 428  :         if (m_pInterface == NULL) {

  00052	83 7d ec 00	 cmp	 DWORD PTR _RecordBindingPtr$4[ebp], 0
  00056	75 0a		 jne	 SHORT $LN60@BindToReco

; 429  :             _com_issue_error(E_POINTER);

  00058	68 03 40 00 80	 push	 -2147467261		; 80004003H
  0005d	e8 00 00 00 00	 call	 ?_com_issue_error@@YGXJ@Z ; _com_issue_error
$LN60@BindToReco:
  00062	8b 55 ec	 mov	 edx, DWORD PTR _RecordBindingPtr$4[ebp]
  00065	89 55 e8	 mov	 DWORD PTR tv72[ebp], edx
; File g:\网狐\happygamewh\服务端\系统模块\服务器组件\内核引擎\databaseengine.cpp

; 291  :         RecordBindingPtr->BindToRecordset(pBind);

  00068	8b 45 08	 mov	 eax, DWORD PTR _pBind$[ebp]
  0006b	50		 push	 eax
  0006c	8b 4d e8	 mov	 ecx, DWORD PTR tv72[ebp]
  0006f	51		 push	 ecx
  00070	8b 55 e8	 mov	 edx, DWORD PTR tv72[ebp]
  00073	8b 02		 mov	 eax, DWORD PTR [edx]
  00075	8b 48 0c	 mov	 ecx, DWORD PTR [eax+12]
  00078	ff d1		 call	 ecx

; 292  :     }

  0007a	c6 45 fc 00	 mov	 BYTE PTR __$EHRec$[ebp+12], 0
; File c:\program files (x86)\microsoft visual studio\2017\community\vc\tools\msvc\14.16.27023\include\comip.h

; 817  :         if (m_pInterface != NULL) {

  0007e	83 7d ec 00	 cmp	 DWORD PTR _RecordBindingPtr$4[ebp], 0
  00082	74 0e		 je	 SHORT $LN63@BindToReco

; 818  :             m_pInterface->Release();

  00084	8b 55 ec	 mov	 edx, DWORD PTR _RecordBindingPtr$4[ebp]
  00087	52		 push	 edx
  00088	8b 45 ec	 mov	 eax, DWORD PTR _RecordBindingPtr$4[ebp]
  0008b	8b 08		 mov	 ecx, DWORD PTR [eax]
  0008d	8b 51 08	 mov	 edx, DWORD PTR [ecx+8]
  00090	ff d2		 call	 edx
$LN63@BindToReco:
; File g:\网狐\happygamewh\服务端\系统模块\服务器组件\内核引擎\databaseengine.cpp

; 292  :     }

  00092	eb 14		 jmp	 SHORT $LN4@BindToReco
__catch$?BindToRecordset@CDataBase@@UAEXPAVCADORecordBinding@@@Z$0:

; 293  :     catch (CComError & ComError)
; 294  :     {
; 295  :         OnSQLException(SQLException_Syntax, &ComError);

  00094	8b 45 d8	 mov	 eax, DWORD PTR _ComError$2[ebp]
  00097	50		 push	 eax
  00098	6a 02		 push	 2
  0009a	8b 4d e4	 mov	 ecx, DWORD PTR _this$[ebp]
  0009d	e8 00 00 00 00	 call	 ?OnSQLException@CDataBase@@IAEXW4enSQLException@@PAV_com_error@@@Z ; CDataBase::OnSQLException

; 296  :     }

  000a2	b8 00 00 00 00	 mov	 eax, $LN8@BindToReco
  000a7	c3		 ret	 0
$LN4@BindToReco:
  000a8	c7 45 fc ff ff
	ff ff		 mov	 DWORD PTR __$EHRec$[ebp+12], -1
  000af	eb 07		 jmp	 SHORT $LN62@BindToReco
$LN8@BindToReco:
; File c:\program files (x86)\microsoft visual studio\2017\community\vc\tools\msvc\14.16.27023\include\comip.h
  000b1	c7 45 fc ff ff
	ff ff		 mov	 DWORD PTR __$EHRec$[ebp+12], -1
$LN62@BindToReco:
; File g:\网狐\happygamewh\服务端\系统模块\服务器组件\内核引擎\databaseengine.cpp

; 297  : 
; 298  :     return;
; 299  : }

  000b8	8b 4d f4	 mov	 ecx, DWORD PTR __$EHRec$[ebp+4]
  000bb	64 89 0d 00 00
	00 00		 mov	 DWORD PTR fs:0, ecx
  000c2	59		 pop	 ecx
  000c3	5f		 pop	 edi
  000c4	5e		 pop	 esi
  000c5	5b		 pop	 ebx
  000c6	8b e5		 mov	 esp, ebp
  000c8	5d		 pop	 ebp
  000c9	c2 04 00	 ret	 4
_TEXT	ENDS
;	COMDAT text$x
text$x	SEGMENT
__unwindfunclet$?BindToRecordset@CDataBase@@UAEXPAVCADORecordBinding@@@Z$2:
  00000	8d 4d ec	 lea	 ecx, DWORD PTR _RecordBindingPtr$4[ebp]
  00003	e9 00 00 00 00	 jmp	 ??1?$_com_ptr_t@V?$_com_IIID@UIADORecordBinding@@$1?_GUID_00000544_0000_0010_8000_00aa006d2ea4@@3U__s_GUID@@B@@@@QAE@XZ ; _com_ptr_t<_com_IIID<IADORecordBinding,&_GUID_00000544_0000_0010_8000_00aa006d2ea4> >::~_com_ptr_t<_com_IIID<IADORecordBinding,&_GUID_00000544_0000_0010_8000_00aa006d2ea4> >
__ehhandler$?BindToRecordset@CDataBase@@UAEXPAVCADORecordBinding@@@Z:
  00008	8b 54 24 08	 mov	 edx, DWORD PTR [esp+8]
  0000c	8d 42 0c	 lea	 eax, DWORD PTR [edx+12]
  0000f	8b 4a d4	 mov	 ecx, DWORD PTR [edx-44]
  00012	33 c8		 xor	 ecx, eax
  00014	e8 00 00 00 00	 call	 @__security_check_cookie@4
  00019	b8 00 00 00 00	 mov	 eax, OFFSET __ehfuncinfo$?BindToRecordset@CDataBase@@UAEXPAVCADORecordBinding@@@Z
  0001e	e9 00 00 00 00	 jmp	 ___CxxFrameHandler3
text$x	ENDS
?BindToRecordset@CDataBase@@UAEXPAVCADORecordBinding@@@Z ENDP ; CDataBase::BindToRecordset
; Function compile flags: /Odtp
; File g:\网狐\happygamewh\服务端\系统模块\服务器组件\内核引擎\databaseengine.cpp
; File c:\program files (x86)\microsoft visual studio\2017\community\vc\tools\msvc\14.16.27023\include\comip.h
; File g:\网狐\happygamewh\服务端\中间目录\内核引擎\debug_ansi\msado15.tli
; File g:\网狐\happygamewh\服务端\系统模块\服务器组件\内核引擎\databaseengine.cpp
;	COMDAT ?CloseRecordset@CDataBase@@UAEXXZ
_TEXT	SEGMENT
_ComError$2 = -52					; size = 4
tv141 = -48						; size = 4
tv140 = -44						; size = 4
tv139 = -40						; size = 4
_this$ = -36						; size = 4
__hr$3 = -32						; size = 4
$T4 = -28						; size = 4
_this$ = -24						; size = 4
tv75 = -17						; size = 1
__$EHRec$ = -16						; size = 16
?CloseRecordset@CDataBase@@UAEXXZ PROC			; CDataBase::CloseRecordset, COMDAT
; _this$ = ecx

; 391  : {

  00000	55		 push	 ebp
  00001	8b ec		 mov	 ebp, esp
  00003	6a ff		 push	 -1
  00005	68 00 00 00 00	 push	 __ehhandler$?CloseRecordset@CDataBase@@UAEXXZ
  0000a	64 a1 00 00 00
	00		 mov	 eax, DWORD PTR fs:0
  00010	50		 push	 eax
  00011	51		 push	 ecx
  00012	83 ec 24	 sub	 esp, 36			; 00000024H
  00015	53		 push	 ebx
  00016	56		 push	 esi
  00017	57		 push	 edi
  00018	a1 00 00 00 00	 mov	 eax, DWORD PTR ___security_cookie
  0001d	33 c5		 xor	 eax, ebp
  0001f	50		 push	 eax
  00020	8d 45 f4	 lea	 eax, DWORD PTR __$EHRec$[ebp+4]
  00023	64 a3 00 00 00
	00		 mov	 DWORD PTR fs:0, eax
  00029	89 65 f0	 mov	 DWORD PTR __$EHRec$[ebp], esp
  0002c	89 4d e8	 mov	 DWORD PTR _this$[ebp], ecx

; 392  :     try

  0002f	c7 45 fc 00 00
	00 00		 mov	 DWORD PTR __$EHRec$[ebp+12], 0

; 394  :         if (IsRecordsetOpened() == true) EfficacyResult(m_DBRecordset->Close());

  00036	8b 4d e8	 mov	 ecx, DWORD PTR _this$[ebp]
  00039	e8 00 00 00 00	 call	 ?IsRecordsetOpened@CDataBase@@IAE_NXZ ; CDataBase::IsRecordsetOpened
  0003e	88 45 ef	 mov	 BYTE PTR tv75[ebp], al
  00041	0f b6 45 ef	 movzx	 eax, BYTE PTR tv75[ebp]
  00045	83 f8 01	 cmp	 eax, 1
  00048	75 7d		 jne	 SHORT $LN3@CloseRecor
  0004a	8b 4d e8	 mov	 ecx, DWORD PTR _this$[ebp]
  0004d	83 c1 2c	 add	 ecx, 44			; 0000002cH
  00050	89 4d dc	 mov	 DWORD PTR _this$[ebp], ecx
; File c:\program files (x86)\microsoft visual studio\2017\community\vc\tools\msvc\14.16.27023\include\comip.h

; 428  :         if (m_pInterface == NULL) {

  00053	8b 55 dc	 mov	 edx, DWORD PTR _this$[ebp]
  00056	83 3a 00	 cmp	 DWORD PTR [edx], 0
  00059	75 0a		 jne	 SHORT $LN11@CloseRecor

; 429  :             _com_issue_error(E_POINTER);

  0005b	68 03 40 00 80	 push	 -2147467261		; 80004003H
  00060	e8 00 00 00 00	 call	 ?_com_issue_error@@YGXJ@Z ; _com_issue_error
$LN11@CloseRecor:
  00065	8b 45 dc	 mov	 eax, DWORD PTR _this$[ebp]
  00068	8b 08		 mov	 ecx, DWORD PTR [eax]
  0006a	89 4d e4	 mov	 DWORD PTR $T4[ebp], ecx
; File g:\网狐\happygamewh\服务端\中间目录\内核引擎\debug_ansi\msado15.tli

; 1531 :     HRESULT _hr = raw_Close();

  0006d	8b 55 e4	 mov	 edx, DWORD PTR $T4[ebp]
  00070	52		 push	 edx
  00071	8b 45 e4	 mov	 eax, DWORD PTR $T4[ebp]
  00074	8b 08		 mov	 ecx, DWORD PTR [eax]
  00076	8b 91 80 00 00
	00		 mov	 edx, DWORD PTR [ecx+128]
  0007c	ff d2		 call	 edx
  0007e	89 45 d8	 mov	 DWORD PTR tv139[ebp], eax
  00081	8b 45 d8	 mov	 eax, DWORD PTR tv139[ebp]
  00084	89 45 e0	 mov	 DWORD PTR __hr$3[ebp], eax

; 1532 :     if (FAILED(_hr)) _com_issue_errorex(_hr, this, __uuidof(this));

  00087	83 7d e0 00	 cmp	 DWORD PTR __hr$3[ebp], 0
  0008b	7d 12		 jge	 SHORT $LN14@CloseRecor
  0008d	68 00 00 00 00	 push	 OFFSET __GUID_0000050e_0000_0010_8000_00aa006d2ea4
  00092	8b 4d e4	 mov	 ecx, DWORD PTR $T4[ebp]
  00095	51		 push	 ecx
  00096	8b 55 e0	 mov	 edx, DWORD PTR __hr$3[ebp]
  00099	52		 push	 edx
  0009a	e8 00 00 00 00	 call	 ?_com_issue_errorex@@YGXJPAUIUnknown@@ABU_GUID@@@Z ; _com_issue_errorex
$LN14@CloseRecor:
; File g:\网狐\happygamewh\服务端\系统模块\服务器组件\内核引擎\databaseengine.cpp

; 394  :         if (IsRecordsetOpened() == true) EfficacyResult(m_DBRecordset->Close());

  0009f	83 7d e0 00	 cmp	 DWORD PTR __hr$3[ebp], 0
  000a3	7d 22		 jge	 SHORT $LN3@CloseRecor
  000a5	8b 4d e8	 mov	 ecx, DWORD PTR _this$[ebp]
  000a8	83 c1 2c	 add	 ecx, 44			; 0000002cH
  000ab	e8 00 00 00 00	 call	 ??C?$_com_ptr_t@V?$_com_IIID@U_Recordset@ADOCG@@$1?_GUID_00000556_0000_0010_8000_00aa006d2ea4@@3U__s_GUID@@B@@@@QBEPAU_Recordset@ADOCG@@XZ ; _com_ptr_t<_com_IIID<ADOCG::_Recordset,&_GUID_00000556_0000_0010_8000_00aa006d2ea4> >::operator->
  000b0	89 45 d4	 mov	 DWORD PTR tv140[ebp], eax
  000b3	8b 4d d4	 mov	 ecx, DWORD PTR tv140[ebp]
  000b6	e8 00 00 00 00	 call	 ?Close@Recordset15@ADOCG@@QAEJXZ ; ADOCG::Recordset15::Close
  000bb	89 45 d0	 mov	 DWORD PTR tv141[ebp], eax
  000be	8b 45 d0	 mov	 eax, DWORD PTR tv141[ebp]
  000c1	50		 push	 eax
  000c2	e8 00 00 00 00	 call	 ?_com_issue_error@@YGXJ@Z ; _com_issue_error
$LN3@CloseRecor:

; 395  :     }

  000c7	eb 14		 jmp	 SHORT $LN6@CloseRecor
__catch$?CloseRecordset@CDataBase@@UAEXXZ$0:

; 396  :     catch (CComError & ComError)
; 397  :     {
; 398  :         OnSQLException(SQLException_Syntax, &ComError);

  000c9	8b 4d cc	 mov	 ecx, DWORD PTR _ComError$2[ebp]
  000cc	51		 push	 ecx
  000cd	6a 02		 push	 2
  000cf	8b 4d e8	 mov	 ecx, DWORD PTR _this$[ebp]
  000d2	e8 00 00 00 00	 call	 ?OnSQLException@CDataBase@@IAEXW4enSQLException@@PAV_com_error@@@Z ; CDataBase::OnSQLException

; 399  :     }

  000d7	b8 00 00 00 00	 mov	 eax, $LN9@CloseRecor
  000dc	c3		 ret	 0
$LN6@CloseRecor:
  000dd	c7 45 fc ff ff
	ff ff		 mov	 DWORD PTR __$EHRec$[ebp+12], -1
  000e4	eb 07		 jmp	 SHORT $LN13@CloseRecor
$LN9@CloseRecor:
; File g:\网狐\happygamewh\服务端\中间目录\内核引擎\debug_ansi\msado15.tli
  000e6	c7 45 fc ff ff
	ff ff		 mov	 DWORD PTR __$EHRec$[ebp+12], -1
$LN13@CloseRecor:
; File g:\网狐\happygamewh\服务端\系统模块\服务器组件\内核引擎\databaseengine.cpp

; 400  : 
; 401  :     return;
; 402  : }

  000ed	8b 4d f4	 mov	 ecx, DWORD PTR __$EHRec$[ebp+4]
  000f0	64 89 0d 00 00
	00 00		 mov	 DWORD PTR fs:0, ecx
  000f7	59		 pop	 ecx
  000f8	5f		 pop	 edi
  000f9	5e		 pop	 esi
  000fa	5b		 pop	 ebx
  000fb	8b e5		 mov	 esp, ebp
  000fd	5d		 pop	 ebp
  000fe	c3		 ret	 0
_TEXT	ENDS
;	COMDAT text$x
text$x	SEGMENT
__ehhandler$?CloseRecordset@CDataBase@@UAEXXZ:
  00000	8b 54 24 08	 mov	 edx, DWORD PTR [esp+8]
  00004	8d 42 0c	 lea	 eax, DWORD PTR [edx+12]
  00007	8b 4a c8	 mov	 ecx, DWORD PTR [edx-56]
  0000a	33 c8		 xor	 ecx, eax
  0000c	e8 00 00 00 00	 call	 @__security_check_cookie@4
  00011	b8 00 00 00 00	 mov	 eax, OFFSET __ehfuncinfo$?CloseRecordset@CDataBase@@UAEXXZ
  00016	e9 00 00 00 00	 jmp	 ___CxxFrameHandler3
text$x	ENDS
?CloseRecordset@CDataBase@@UAEXXZ ENDP			; CDataBase::CloseRecordset
; Function compile flags: /Odtp
; File g:\网狐\happygamewh\服务端\系统模块\服务器组件\内核引擎\databaseengine.cpp
; File c:\program files (x86)\microsoft visual studio\2017\community\vc\tools\msvc\14.16.27023\include\comip.h
; File g:\网狐\happygamewh\服务端\系统模块\服务器组件\内核引擎\databaseengine.cpp
; File c:\program files (x86)\microsoft visual studio\2017\community\vc\tools\msvc\14.16.27023\include\comip.h
; File g:\网狐\happygamewh\服务端\系统模块\服务器组件\内核引擎\databaseengine.cpp
; File c:\program files (x86)\microsoft visual studio\2017\community\vc\tools\msvc\14.16.27023\include\comutil.h
; File g:\网狐\happygamewh\服务端\系统模块\服务器组件\内核引擎\databaseengine.cpp
;	COMDAT ?NextRecordset@CDataBase@@UAEXXZ
_TEXT	SEGMENT
_DBVarValue$2 = -60					; size = 16
_ComError$3 = -44					; size = 4
tv77 = -40						; size = 4
$T4 = -36						; size = 4
$T5 = -32						; size = 4
_this$ = -28						; size = 4
_this$ = -24						; size = 4
$T6 = -20						; size = 4
__$EHRec$ = -16						; size = 16
?NextRecordset@CDataBase@@UAEXXZ PROC			; CDataBase::NextRecordset, COMDAT
; _this$ = ecx

; 271  : {

  00000	55		 push	 ebp
  00001	8b ec		 mov	 ebp, esp
  00003	6a ff		 push	 -1
  00005	68 00 00 00 00	 push	 __ehhandler$?NextRecordset@CDataBase@@UAEXXZ
  0000a	64 a1 00 00 00
	00		 mov	 eax, DWORD PTR fs:0
  00010	50		 push	 eax
  00011	51		 push	 ecx
  00012	83 ec 2c	 sub	 esp, 44			; 0000002cH
  00015	53		 push	 ebx
  00016	56		 push	 esi
  00017	57		 push	 edi
  00018	a1 00 00 00 00	 mov	 eax, DWORD PTR ___security_cookie
  0001d	33 c5		 xor	 eax, ebp
  0001f	50		 push	 eax
  00020	8d 45 f4	 lea	 eax, DWORD PTR __$EHRec$[ebp+4]
  00023	64 a3 00 00 00
	00		 mov	 DWORD PTR fs:0, eax
  00029	89 65 f0	 mov	 DWORD PTR __$EHRec$[ebp], esp
  0002c	89 4d e4	 mov	 DWORD PTR _this$[ebp], ecx
  0002f	c7 45 dc 00 00
	00 00		 mov	 DWORD PTR $T4[ebp], 0

; 272  :     try

  00036	c7 45 fc 00 00
	00 00		 mov	 DWORD PTR __$EHRec$[ebp+12], 0

; 273  :     {
; 274  :         CDBVarValue DBVarValue(0L);

  0003d	6a 03		 push	 3
  0003f	6a 00		 push	 0
  00041	8d 4d c4	 lea	 ecx, DWORD PTR _DBVarValue$2[ebp]
  00044	e8 00 00 00 00	 call	 ??0_variant_t@@QAE@JG@Z	; _variant_t::_variant_t
  00049	89 45 d8	 mov	 DWORD PTR tv77[ebp], eax
  0004c	c6 45 fc 01	 mov	 BYTE PTR __$EHRec$[ebp+12], 1

; 275  :         m_DBRecordset->NextRecordset(&DBVarValue);

  00050	8b 45 e4	 mov	 eax, DWORD PTR _this$[ebp]
  00053	83 c0 2c	 add	 eax, 44			; 0000002cH
  00056	89 45 e8	 mov	 DWORD PTR _this$[ebp], eax
; File c:\program files (x86)\microsoft visual studio\2017\community\vc\tools\msvc\14.16.27023\include\comip.h

; 428  :         if (m_pInterface == NULL) {

  00059	8b 4d e8	 mov	 ecx, DWORD PTR _this$[ebp]
  0005c	83 39 00	 cmp	 DWORD PTR [ecx], 0
  0005f	75 0a		 jne	 SHORT $LN20@NextRecord

; 429  :             _com_issue_error(E_POINTER);

  00061	68 03 40 00 80	 push	 -2147467261		; 80004003H
  00066	e8 00 00 00 00	 call	 ?_com_issue_error@@YGXJ@Z ; _com_issue_error
$LN20@NextRecord:
  0006b	8b 55 e8	 mov	 edx, DWORD PTR _this$[ebp]
  0006e	8b 02		 mov	 eax, DWORD PTR [edx]
  00070	89 45 e0	 mov	 DWORD PTR $T5[ebp], eax
; File g:\网狐\happygamewh\服务端\系统模块\服务器组件\内核引擎\databaseengine.cpp

; 275  :         m_DBRecordset->NextRecordset(&DBVarValue);

  00073	8d 4d c4	 lea	 ecx, DWORD PTR _DBVarValue$2[ebp]
  00076	51		 push	 ecx
  00077	8d 55 ec	 lea	 edx, DWORD PTR $T6[ebp]
  0007a	52		 push	 edx
  0007b	8b 4d e0	 mov	 ecx, DWORD PTR $T5[ebp]
  0007e	e8 00 00 00 00	 call	 ?NextRecordset@Recordset15@ADOCG@@QAE?AV?$_com_ptr_t@V?$_com_IIID@U_Recordset@ADOCG@@$1?_GUID_00000556_0000_0010_8000_00aa006d2ea4@@3U__s_GUID@@B@@@@PAUtagVARIANT@@@Z ; ADOCG::Recordset15::NextRecordset
; File c:\program files (x86)\microsoft visual studio\2017\community\vc\tools\msvc\14.16.27023\include\comip.h

; 817  :         if (m_pInterface != NULL) {

  00083	83 7d ec 00	 cmp	 DWORD PTR $T6[ebp], 0
  00087	74 0e		 je	 SHORT $LN34@NextRecord

; 818  :             m_pInterface->Release();

  00089	8b 45 ec	 mov	 eax, DWORD PTR $T6[ebp]
  0008c	50		 push	 eax
  0008d	8b 4d ec	 mov	 ecx, DWORD PTR $T6[ebp]
  00090	8b 11		 mov	 edx, DWORD PTR [ecx]
  00092	8b 42 08	 mov	 eax, DWORD PTR [edx+8]
  00095	ff d0		 call	 eax
$LN34@NextRecord:
; File g:\网狐\happygamewh\服务端\系统模块\服务器组件\内核引擎\databaseengine.cpp

; 276  :     }

  00097	c6 45 fc 00	 mov	 BYTE PTR __$EHRec$[ebp+12], 0
; File c:\program files (x86)\microsoft visual studio\2017\community\vc\tools\msvc\14.16.27023\include\comutil.h

; 2334 :     ::VariantClear(this);

  0009b	8d 4d c4	 lea	 ecx, DWORD PTR _DBVarValue$2[ebp]
  0009e	51		 push	 ecx
  0009f	ff 15 00 00 00
	00		 call	 DWORD PTR __imp__VariantClear@4
; File g:\网狐\happygamewh\服务端\系统模块\服务器组件\内核引擎\databaseengine.cpp

; 276  :     }

  000a5	eb 14		 jmp	 SHORT $LN4@NextRecord
__catch$?NextRecordset@CDataBase@@UAEXXZ$0:

; 277  :     catch (CComError & ComError)
; 278  :     {
; 279  :         OnSQLException(SQLException_Syntax, &ComError);

  000a7	8b 55 d4	 mov	 edx, DWORD PTR _ComError$3[ebp]
  000aa	52		 push	 edx
  000ab	6a 02		 push	 2
  000ad	8b 4d e4	 mov	 ecx, DWORD PTR _this$[ebp]
  000b0	e8 00 00 00 00	 call	 ?OnSQLException@CDataBase@@IAEXW4enSQLException@@PAV_com_error@@@Z ; CDataBase::OnSQLException

; 280  :     }

  000b5	b8 00 00 00 00	 mov	 eax, $LN9@NextRecord
  000ba	c3		 ret	 0
$LN4@NextRecord:
  000bb	c7 45 fc ff ff
	ff ff		 mov	 DWORD PTR __$EHRec$[ebp+12], -1
  000c2	eb 07		 jmp	 SHORT $LN22@NextRecord
$LN9@NextRecord:
; File c:\program files (x86)\microsoft visual studio\2017\community\vc\tools\msvc\14.16.27023\include\comutil.h
  000c4	c7 45 fc ff ff
	ff ff		 mov	 DWORD PTR __$EHRec$[ebp+12], -1
$LN22@NextRecord:
; File g:\网狐\happygamewh\服务端\系统模块\服务器组件\内核引擎\databaseengine.cpp

; 281  : 
; 282  :     return;
; 283  : }

  000cb	8b 4d f4	 mov	 ecx, DWORD PTR __$EHRec$[ebp+4]
  000ce	64 89 0d 00 00
	00 00		 mov	 DWORD PTR fs:0, ecx
  000d5	59		 pop	 ecx
  000d6	5f		 pop	 edi
  000d7	5e		 pop	 esi
  000d8	5b		 pop	 ebx
  000d9	8b e5		 mov	 esp, ebp
  000db	5d		 pop	 ebp
  000dc	c3		 ret	 0
_TEXT	ENDS
;	COMDAT text$x
text$x	SEGMENT
__unwindfunclet$?NextRecordset@CDataBase@@UAEXXZ$2:
  00000	8d 4d c4	 lea	 ecx, DWORD PTR _DBVarValue$2[ebp]
  00003	e9 00 00 00 00	 jmp	 ??1_variant_t@@QAE@XZ	; _variant_t::~_variant_t
__ehhandler$?NextRecordset@CDataBase@@UAEXXZ:
  00008	8b 54 24 08	 mov	 edx, DWORD PTR [esp+8]
  0000c	8d 42 0c	 lea	 eax, DWORD PTR [edx+12]
  0000f	8b 4a c0	 mov	 ecx, DWORD PTR [edx-64]
  00012	33 c8		 xor	 ecx, eax
  00014	e8 00 00 00 00	 call	 @__security_check_cookie@4
  00019	b8 00 00 00 00	 mov	 eax, OFFSET __ehfuncinfo$?NextRecordset@CDataBase@@UAEXXZ
  0001e	e9 00 00 00 00	 jmp	 ___CxxFrameHandler3
text$x	ENDS
?NextRecordset@CDataBase@@UAEXXZ ENDP			; CDataBase::NextRecordset
; Function compile flags: /Odtp
; File g:\网狐\happygamewh\服务端\系统模块\服务器组件\内核引擎\databaseengine.cpp
; File c:\program files (x86)\microsoft visual studio\2017\community\vc\tools\msvc\14.16.27023\include\comip.h
; File g:\网狐\happygamewh\服务端\系统模块\服务器组件\内核引擎\databaseengine.cpp
; File c:\program files (x86)\microsoft visual studio\2017\community\vc\tools\msvc\14.16.27023\include\comip.h
; File g:\网狐\happygamewh\服务端\系统模块\服务器组件\内核引擎\databaseengine.cpp
; File c:\program files (x86)\microsoft visual studio\2017\community\vc\tools\msvc\14.16.27023\include\comip.h
; File g:\网狐\happygamewh\服务端\中间目录\内核引擎\debug_ansi\msado15.tli
; File g:\网狐\happygamewh\服务端\系统模块\服务器组件\内核引擎\databaseengine.cpp
; File c:\program files (x86)\microsoft visual studio\2017\community\vc\tools\msvc\14.16.27023\include\comip.h
; File g:\网狐\happygamewh\服务端\系统模块\服务器组件\内核引擎\databaseengine.cpp
; File c:\program files (x86)\microsoft visual studio\2017\community\vc\tools\msvc\14.16.27023\include\comip.h
; File g:\网狐\happygamewh\服务端\系统模块\服务器组件\内核引擎\databaseengine.cpp
;	COMDAT ?AddParameter@CDataBase@@UAEXPBDW4DataTypeEnum@ADOCG@@W4ParameterDirectionEnum@3@JAAV_variant_t@@@Z
_TEXT	SEGMENT
_ComError$2 = -88					; size = 4
tv72 = -84						; size = 4
tv92 = -80						; size = 4
$T3 = -76						; size = 4
$T4 = -72						; size = 4
tv254 = -68						; size = 4
$T5 = -64						; size = 4
tv255 = -60						; size = 4
$T6 = -56						; size = 4
$T7 = -52						; size = 4
__hr$8 = -48						; size = 4
$T9 = -44						; size = 4
_this$ = -40						; size = 4
_this$ = -36						; size = 4
_this$ = -32						; size = 4
$T10 = -28						; size = 4
$T11 = -24						; size = 4
_Parameter$12 = -20					; size = 4
__$EHRec$ = -16						; size = 16
_pszName$ = 8						; size = 4
_Type$ = 12						; size = 4
_Direction$ = 16					; size = 4
_lSize$ = 20						; size = 4
_DBVarValue$ = 24					; size = 4
?AddParameter@CDataBase@@UAEXPBDW4DataTypeEnum@ADOCG@@W4ParameterDirectionEnum@3@JAAV_variant_t@@@Z PROC ; CDataBase::AddParameter, COMDAT
; _this$ = ecx

; 255  : {

  00000	55		 push	 ebp
  00001	8b ec		 mov	 ebp, esp
  00003	6a ff		 push	 -1
  00005	68 00 00 00 00	 push	 __ehhandler$?AddParameter@CDataBase@@UAEXPBDW4DataTypeEnum@ADOCG@@W4ParameterDirectionEnum@3@JAAV_variant_t@@@Z
  0000a	64 a1 00 00 00
	00		 mov	 eax, DWORD PTR fs:0
  00010	50		 push	 eax
  00011	51		 push	 ecx
  00012	83 ec 48	 sub	 esp, 72			; 00000048H
  00015	53		 push	 ebx
  00016	56		 push	 esi
  00017	57		 push	 edi
  00018	a1 00 00 00 00	 mov	 eax, DWORD PTR ___security_cookie
  0001d	33 c5		 xor	 eax, ebp
  0001f	50		 push	 eax
  00020	8d 45 f4	 lea	 eax, DWORD PTR __$EHRec$[ebp+4]
  00023	64 a3 00 00 00
	00		 mov	 DWORD PTR fs:0, eax
  00029	89 65 f0	 mov	 DWORD PTR __$EHRec$[ebp], esp
  0002c	89 4d e0	 mov	 DWORD PTR _this$[ebp], ecx
  0002f	c7 45 b8 00 00
	00 00		 mov	 DWORD PTR $T4[ebp], 0

; 256  :     try

  00036	c7 45 fc 00 00
	00 00		 mov	 DWORD PTR __$EHRec$[ebp+12], 0

; 258  :         _ParameterPtr Parameter = m_DBCommand->CreateParameter(pszName, Type, Direction, lSize, DBVarValue);

  0003d	8b 45 18	 mov	 eax, DWORD PTR _DBVarValue$[ebp]
  00040	50		 push	 eax
  00041	8b 4d 14	 mov	 ecx, DWORD PTR _lSize$[ebp]
  00044	51		 push	 ecx
  00045	8b 55 10	 mov	 edx, DWORD PTR _Direction$[ebp]
  00048	52		 push	 edx
  00049	8b 45 0c	 mov	 eax, DWORD PTR _Type$[ebp]
  0004c	50		 push	 eax
  0004d	51		 push	 ecx
  0004e	8b cc		 mov	 ecx, esp
  00050	89 65 b4	 mov	 DWORD PTR $T3[ebp], esp
  00053	8b 55 08	 mov	 edx, DWORD PTR _pszName$[ebp]
  00056	52		 push	 edx
  00057	e8 00 00 00 00	 call	 ??0_bstr_t@@QAE@PBD@Z	; _bstr_t::_bstr_t
  0005c	89 45 b0	 mov	 DWORD PTR tv92[ebp], eax
  0005f	c6 45 fc 01	 mov	 BYTE PTR __$EHRec$[ebp+12], 1
  00063	8b 45 e0	 mov	 eax, DWORD PTR _this$[ebp]
  00066	83 c0 28	 add	 eax, 40			; 00000028H
  00069	89 45 dc	 mov	 DWORD PTR _this$[ebp], eax
; File c:\program files (x86)\microsoft visual studio\2017\community\vc\tools\msvc\14.16.27023\include\comip.h

; 428  :         if (m_pInterface == NULL) {

  0006c	8b 4d dc	 mov	 ecx, DWORD PTR _this$[ebp]
  0006f	83 39 00	 cmp	 DWORD PTR [ecx], 0
  00072	75 0a		 jne	 SHORT $LN22@AddParamet

; 429  :             _com_issue_error(E_POINTER);

  00074	68 03 40 00 80	 push	 -2147467261		; 80004003H
  00079	e8 00 00 00 00	 call	 ?_com_issue_error@@YGXJ@Z ; _com_issue_error
$LN22@AddParamet:
  0007e	8b 55 dc	 mov	 edx, DWORD PTR _this$[ebp]
  00081	8b 02		 mov	 eax, DWORD PTR [edx]
  00083	89 45 cc	 mov	 DWORD PTR $T7[ebp], eax
; File g:\网狐\happygamewh\服务端\系统模块\服务器组件\内核引擎\databaseengine.cpp

; 258  :         _ParameterPtr Parameter = m_DBCommand->CreateParameter(pszName, Type, Direction, lSize, DBVarValue);

  00086	8d 4d ec	 lea	 ecx, DWORD PTR _Parameter$12[ebp]
  00089	51		 push	 ecx
  0008a	c6 45 fc 00	 mov	 BYTE PTR __$EHRec$[ebp+12], 0
  0008e	8b 4d cc	 mov	 ecx, DWORD PTR $T7[ebp]
  00091	e8 00 00 00 00	 call	 ?CreateParameter@Command15@ADOCG@@QAE?AV?$_com_ptr_t@V?$_com_IIID@U_Parameter@ADOCG@@$1?_GUID_0000050c_0000_0010_8000_00aa006d2ea4@@3U__s_GUID@@B@@@@V_bstr_t@@W4DataTypeEnum@2@W4ParameterDirectionEnum@2@JABV_variant_t@@@Z ; ADOCG::Command15::CreateParameter
  00096	89 45 ac	 mov	 DWORD PTR tv72[ebp], eax
  00099	c6 45 fc 02	 mov	 BYTE PTR __$EHRec$[ebp+12], 2

; 259  :         m_DBCommand->Parameters->Append(Parameter);

  0009d	8b 55 e0	 mov	 edx, DWORD PTR _this$[ebp]
  000a0	83 c2 28	 add	 edx, 40			; 00000028H
  000a3	89 55 d8	 mov	 DWORD PTR _this$[ebp], edx
; File c:\program files (x86)\microsoft visual studio\2017\community\vc\tools\msvc\14.16.27023\include\comip.h

; 428  :         if (m_pInterface == NULL) {

  000a6	8b 45 d8	 mov	 eax, DWORD PTR _this$[ebp]
  000a9	83 38 00	 cmp	 DWORD PTR [eax], 0
  000ac	75 0a		 jne	 SHORT $LN65@AddParamet

; 429  :             _com_issue_error(E_POINTER);

  000ae	68 03 40 00 80	 push	 -2147467261		; 80004003H
  000b3	e8 00 00 00 00	 call	 ?_com_issue_error@@YGXJ@Z ; _com_issue_error
$LN65@AddParamet:
  000b8	8b 4d d8	 mov	 ecx, DWORD PTR _this$[ebp]
  000bb	8b 11		 mov	 edx, DWORD PTR [ecx]
  000bd	89 55 c8	 mov	 DWORD PTR $T6[ebp], edx
; File g:\网狐\happygamewh\服务端\系统模块\服务器组件\内核引擎\databaseengine.cpp

; 259  :         m_DBCommand->Parameters->Append(Parameter);

  000c0	8d 45 e4	 lea	 eax, DWORD PTR $T10[ebp]
  000c3	50		 push	 eax
  000c4	8b 4d c8	 mov	 ecx, DWORD PTR $T6[ebp]
  000c7	e8 00 00 00 00	 call	 ?GetParameters@Command15@ADOCG@@QAE?AV?$_com_ptr_t@V?$_com_IIID@UParameters@ADOCG@@$1?_GUID_0000050d_0000_0010_8000_00aa006d2ea4@@3U__s_GUID@@B@@@@XZ ; ADOCG::Command15::GetParameters
  000cc	89 45 c4	 mov	 DWORD PTR tv255[ebp], eax
  000cf	8b 4d c4	 mov	 ecx, DWORD PTR tv255[ebp]
  000d2	89 4d d4	 mov	 DWORD PTR $T9[ebp], ecx
  000d5	c6 45 fc 03	 mov	 BYTE PTR __$EHRec$[ebp+12], 3
; File c:\program files (x86)\microsoft visual studio\2017\community\vc\tools\msvc\14.16.27023\include\comip.h

; 385  :         return m_pInterface;

  000d9	8b 55 ec	 mov	 edx, DWORD PTR _Parameter$12[ebp]
  000dc	89 55 c0	 mov	 DWORD PTR $T5[ebp], edx

; 428  :         if (m_pInterface == NULL) {

  000df	8b 45 d4	 mov	 eax, DWORD PTR $T9[ebp]
  000e2	83 38 00	 cmp	 DWORD PTR [eax], 0
  000e5	75 0a		 jne	 SHORT $LN79@AddParamet

; 429  :             _com_issue_error(E_POINTER);

  000e7	68 03 40 00 80	 push	 -2147467261		; 80004003H
  000ec	e8 00 00 00 00	 call	 ?_com_issue_error@@YGXJ@Z ; _com_issue_error
$LN79@AddParamet:
  000f1	8b 4d d4	 mov	 ecx, DWORD PTR $T9[ebp]
  000f4	8b 11		 mov	 edx, DWORD PTR [ecx]
  000f6	89 55 e8	 mov	 DWORD PTR $T11[ebp], edx
; File g:\网狐\happygamewh\服务端\中间目录\内核引擎\debug_ansi\msado15.tli

; 39   :     HRESULT _hr = raw_Append(Object);

  000f9	8b 45 c0	 mov	 eax, DWORD PTR $T5[ebp]
  000fc	50		 push	 eax
  000fd	8b 4d e8	 mov	 ecx, DWORD PTR $T11[ebp]
  00100	51		 push	 ecx
  00101	8b 55 e8	 mov	 edx, DWORD PTR $T11[ebp]
  00104	8b 02		 mov	 eax, DWORD PTR [edx]
  00106	8b 48 28	 mov	 ecx, DWORD PTR [eax+40]
  00109	ff d1		 call	 ecx
  0010b	89 45 bc	 mov	 DWORD PTR tv254[ebp], eax
  0010e	8b 55 bc	 mov	 edx, DWORD PTR tv254[ebp]
  00111	89 55 d0	 mov	 DWORD PTR __hr$8[ebp], edx

; 40   :     if (FAILED(_hr)) _com_issue_errorex(_hr, this, __uuidof(this));

  00114	83 7d d0 00	 cmp	 DWORD PTR __hr$8[ebp], 0
  00118	7d 12		 jge	 SHORT $LN81@AddParamet
  0011a	68 00 00 00 00	 push	 OFFSET __GUID_00000513_0000_0010_8000_00aa006d2ea4
  0011f	8b 45 e8	 mov	 eax, DWORD PTR $T11[ebp]
  00122	50		 push	 eax
  00123	8b 4d d0	 mov	 ecx, DWORD PTR __hr$8[ebp]
  00126	51		 push	 ecx
  00127	e8 00 00 00 00	 call	 ?_com_issue_errorex@@YGXJPAUIUnknown@@ABU_GUID@@@Z ; _com_issue_errorex
$LN81@AddParamet:
; File g:\网狐\happygamewh\服务端\系统模块\服务器组件\内核引擎\databaseengine.cpp

; 259  :         m_DBCommand->Parameters->Append(Parameter);

  0012c	c6 45 fc 02	 mov	 BYTE PTR __$EHRec$[ebp+12], 2
; File c:\program files (x86)\microsoft visual studio\2017\community\vc\tools\msvc\14.16.27023\include\comip.h

; 817  :         if (m_pInterface != NULL) {

  00130	83 7d e4 00	 cmp	 DWORD PTR $T10[ebp], 0
  00134	74 0e		 je	 SHORT $LN84@AddParamet

; 818  :             m_pInterface->Release();

  00136	8b 55 e4	 mov	 edx, DWORD PTR $T10[ebp]
  00139	52		 push	 edx
  0013a	8b 45 e4	 mov	 eax, DWORD PTR $T10[ebp]
  0013d	8b 08		 mov	 ecx, DWORD PTR [eax]
  0013f	8b 51 08	 mov	 edx, DWORD PTR [ecx+8]
  00142	ff d2		 call	 edx
$LN84@AddParamet:
; File g:\网狐\happygamewh\服务端\系统模块\服务器组件\内核引擎\databaseengine.cpp

; 260  :     }

  00144	c6 45 fc 00	 mov	 BYTE PTR __$EHRec$[ebp+12], 0
; File c:\program files (x86)\microsoft visual studio\2017\community\vc\tools\msvc\14.16.27023\include\comip.h

; 817  :         if (m_pInterface != NULL) {

  00148	83 7d ec 00	 cmp	 DWORD PTR _Parameter$12[ebp], 0
  0014c	74 0e		 je	 SHORT $LN89@AddParamet

; 818  :             m_pInterface->Release();

  0014e	8b 45 ec	 mov	 eax, DWORD PTR _Parameter$12[ebp]
  00151	50		 push	 eax
  00152	8b 4d ec	 mov	 ecx, DWORD PTR _Parameter$12[ebp]
  00155	8b 11		 mov	 edx, DWORD PTR [ecx]
  00157	8b 42 08	 mov	 eax, DWORD PTR [edx+8]
  0015a	ff d0		 call	 eax
$LN89@AddParamet:
; File g:\网狐\happygamewh\服务端\系统模块\服务器组件\内核引擎\databaseengine.cpp

; 260  :     }

  0015c	eb 14		 jmp	 SHORT $LN4@AddParamet
__catch$?AddParameter@CDataBase@@UAEXPBDW4DataTypeEnum@ADOCG@@W4ParameterDirectionEnum@3@JAAV_variant_t@@@Z$0:

; 261  :     catch (CComError & ComError)
; 262  :     {
; 263  :         OnSQLException(SQLException_Syntax, &ComError);

  0015e	8b 4d a8	 mov	 ecx, DWORD PTR _ComError$2[ebp]
  00161	51		 push	 ecx
  00162	6a 02		 push	 2
  00164	8b 4d e0	 mov	 ecx, DWORD PTR _this$[ebp]
  00167	e8 00 00 00 00	 call	 ?OnSQLException@CDataBase@@IAEXW4enSQLException@@PAV_com_error@@@Z ; CDataBase::OnSQLException

; 264  :     }

  0016c	b8 00 00 00 00	 mov	 eax, $LN10@AddParamet
  00171	c3		 ret	 0
$LN4@AddParamet:
  00172	c7 45 fc ff ff
	ff ff		 mov	 DWORD PTR __$EHRec$[ebp+12], -1
  00179	eb 07		 jmp	 SHORT $LN24@AddParamet
$LN10@AddParamet:
; File c:\program files (x86)\microsoft visual studio\2017\community\vc\tools\msvc\14.16.27023\include\comip.h
  0017b	c7 45 fc ff ff
	ff ff		 mov	 DWORD PTR __$EHRec$[ebp+12], -1
$LN24@AddParamet:
; File g:\网狐\happygamewh\服务端\系统模块\服务器组件\内核引擎\databaseengine.cpp

; 265  : 
; 266  :     return;
; 267  : }

  00182	8b 4d f4	 mov	 ecx, DWORD PTR __$EHRec$[ebp+4]
  00185	64 89 0d 00 00
	00 00		 mov	 DWORD PTR fs:0, ecx
  0018c	59		 pop	 ecx
  0018d	5f		 pop	 edi
  0018e	5e		 pop	 esi
  0018f	5b		 pop	 ebx
  00190	8b e5		 mov	 esp, ebp
  00192	5d		 pop	 ebp
  00193	c2 14 00	 ret	 20			; 00000014H
_TEXT	ENDS
;	COMDAT text$x
text$x	SEGMENT
__unwindfunclet$?AddParameter@CDataBase@@UAEXPBDW4DataTypeEnum@ADOCG@@W4ParameterDirectionEnum@3@JAAV_variant_t@@@Z$2:
  00000	8b 4d b4	 mov	 ecx, DWORD PTR $T3[ebp]
  00003	e9 00 00 00 00	 jmp	 ??1_bstr_t@@QAE@XZ	; _bstr_t::~_bstr_t
__unwindfunclet$?AddParameter@CDataBase@@UAEXPBDW4DataTypeEnum@ADOCG@@W4ParameterDirectionEnum@3@JAAV_variant_t@@@Z$3:
  00008	8d 4d ec	 lea	 ecx, DWORD PTR _Parameter$12[ebp]
  0000b	e9 00 00 00 00	 jmp	 ??1?$_com_ptr_t@V?$_com_IIID@U_Parameter@ADOCG@@$1?_GUID_0000050c_0000_0010_8000_00aa006d2ea4@@3U__s_GUID@@B@@@@QAE@XZ ; _com_ptr_t<_com_IIID<ADOCG::_Parameter,&_GUID_0000050c_0000_0010_8000_00aa006d2ea4> >::~_com_ptr_t<_com_IIID<ADOCG::_Parameter,&_GUID_0000050c_0000_0010_8000_00aa006d2ea4> >
__unwindfunclet$?AddParameter@CDataBase@@UAEXPBDW4DataTypeEnum@ADOCG@@W4ParameterDirectionEnum@3@JAAV_variant_t@@@Z$4:
  00010	8d 4d e4	 lea	 ecx, DWORD PTR $T10[ebp]
  00013	e9 00 00 00 00	 jmp	 ??1?$_com_ptr_t@V?$_com_IIID@UParameters@ADOCG@@$1?_GUID_0000050d_0000_0010_8000_00aa006d2ea4@@3U__s_GUID@@B@@@@QAE@XZ ; _com_ptr_t<_com_IIID<ADOCG::Parameters,&_GUID_0000050d_0000_0010_8000_00aa006d2ea4> >::~_com_ptr_t<_com_IIID<ADOCG::Parameters,&_GUID_0000050d_0000_0010_8000_00aa006d2ea4> >
__ehhandler$?AddParameter@CDataBase@@UAEXPBDW4DataTypeEnum@ADOCG@@W4ParameterDirectionEnum@3@JAAV_variant_t@@@Z:
  00018	8b 54 24 08	 mov	 edx, DWORD PTR [esp+8]
  0001c	8d 42 0c	 lea	 eax, DWORD PTR [edx+12]
  0001f	8b 4a a4	 mov	 ecx, DWORD PTR [edx-92]
  00022	33 c8		 xor	 ecx, eax
  00024	e8 00 00 00 00	 call	 @__security_check_cookie@4
  00029	b8 00 00 00 00	 mov	 eax, OFFSET __ehfuncinfo$?AddParameter@CDataBase@@UAEXPBDW4DataTypeEnum@ADOCG@@W4ParameterDirectionEnum@3@JAAV_variant_t@@@Z
  0002e	e9 00 00 00 00	 jmp	 ___CxxFrameHandler3
text$x	ENDS
?AddParameter@CDataBase@@UAEXPBDW4DataTypeEnum@ADOCG@@W4ParameterDirectionEnum@3@JAAV_variant_t@@@Z ENDP ; CDataBase::AddParameter
; Function compile flags: /Odtp
; File g:\网狐\happygamewh\服务端\系统模块\服务器组件\内核引擎\databaseengine.cpp
; File c:\program files (x86)\microsoft visual studio\2017\community\vc\tools\msvc\14.16.27023\include\comutil.h
; File g:\网狐\happygamewh\服务端\系统模块\服务器组件\内核引擎\databaseengine.cpp
; File c:\program files (x86)\microsoft visual studio\2017\community\vc\tools\msvc\14.16.27023\include\comip.h
; File g:\网狐\happygamewh\服务端\系统模块\服务器组件\内核引擎\databaseengine.cpp
; File c:\program files (x86)\microsoft visual studio\2017\community\vc\tools\msvc\14.16.27023\include\comip.h
; File g:\网狐\happygamewh\服务端\系统模块\服务器组件\内核引擎\databaseengine.cpp
; File c:\program files (x86)\microsoft visual studio\2017\community\vc\tools\msvc\14.16.27023\include\comip.h
; File g:\网狐\happygamewh\服务端\系统模块\服务器组件\内核引擎\databaseengine.cpp
; File c:\program files (x86)\microsoft visual studio\2017\community\vc\tools\msvc\14.16.27023\include\comutil.h
; File g:\网狐\happygamewh\服务端\系统模块\服务器组件\内核引擎\databaseengine.cpp
; File c:\program files (x86)\microsoft visual studio\2017\community\vc\tools\msvc\14.16.27023\include\comutil.h
; File g:\网狐\happygamewh\服务端\系统模块\服务器组件\内核引擎\databaseengine.cpp
; File c:\program files (x86)\microsoft visual studio\2017\community\vc\tools\msvc\14.16.27023\include\comip.h
; File g:\网狐\happygamewh\服务端\系统模块\服务器组件\内核引擎\databaseengine.cpp
; File c:\program files (x86)\microsoft visual studio\2017\community\vc\tools\msvc\14.16.27023\include\comip.h
; File g:\网狐\happygamewh\服务端\系统模块\服务器组件\内核引擎\databaseengine.cpp
; File c:\program files (x86)\microsoft visual studio\2017\community\vc\tools\msvc\14.16.27023\include\comutil.h
; File g:\网狐\happygamewh\服务端\系统模块\服务器组件\内核引擎\databaseengine.cpp
;	COMDAT ?GetParameter@CDataBase@@UAEXPBDAAV_variant_t@@@Z
_TEXT	SEGMENT
$T2 = -120						; size = 16
$T3 = -104						; size = 16
_ComError$4 = -88					; size = 4
$T5 = -84						; size = 4
$T6 = -80						; size = 4
tv278 = -76						; size = 4
$T7 = -72						; size = 4
tv277 = -68						; size = 4
$T8 = -64						; size = 4
tv83 = -60						; size = 4
$T9 = -56						; size = 4
tv92 = -52						; size = 4
_this$ = -48						; size = 4
_hr$ = -44						; size = 4
$T10 = -40						; size = 4
$T11 = -36						; size = 4
_this$ = -32						; size = 4
_hr$ = -28						; size = 4
$T12 = -24						; size = 4
$T13 = -20						; size = 4
__$EHRec$ = -16						; size = 16
_pszParamName$ = 8					; size = 4
_DBVarValue$ = 12					; size = 4
?GetParameter@CDataBase@@UAEXPBDAAV_variant_t@@@Z PROC	; CDataBase::GetParameter, COMDAT
; _this$ = ecx

; 237  : {

  00000	55		 push	 ebp
  00001	8b ec		 mov	 ebp, esp
  00003	6a ff		 push	 -1
  00005	68 00 00 00 00	 push	 __ehhandler$?GetParameter@CDataBase@@UAEXPBDAAV_variant_t@@@Z
  0000a	64 a1 00 00 00
	00		 mov	 eax, DWORD PTR fs:0
  00010	50		 push	 eax
  00011	51		 push	 ecx
  00012	83 ec 68	 sub	 esp, 104		; 00000068H
  00015	53		 push	 ebx
  00016	56		 push	 esi
  00017	57		 push	 edi
  00018	a1 00 00 00 00	 mov	 eax, DWORD PTR ___security_cookie
  0001d	33 c5		 xor	 eax, ebp
  0001f	50		 push	 eax
  00020	8d 45 f4	 lea	 eax, DWORD PTR __$EHRec$[ebp+4]
  00023	64 a3 00 00 00
	00		 mov	 DWORD PTR fs:0, eax
  00029	89 65 f0	 mov	 DWORD PTR __$EHRec$[ebp], esp
  0002c	89 4d d0	 mov	 DWORD PTR _this$[ebp], ecx
  0002f	c7 45 ac 00 00
	00 00		 mov	 DWORD PTR $T5[ebp], 0

; 238  : 	//效验参数
; 239  : 	ASSERT(pszParamName != NULL);

  00036	83 7d 08 00	 cmp	 DWORD PTR _pszParamName$[ebp], 0
  0003a	75 14		 jne	 SHORT $LN4@GetParamet
  0003c	68 ef 00 00 00	 push	 239			; 000000efH
  00041	68 00 00 00 00	 push	 OFFSET ??_C@_0EL@CJALAN@g?3?2?M?x?$LK?$PM?2happygamewh?2?$LH?$PO?N?q?$LG?K?2?O?$LF?M?$LD@
  00046	e8 00 00 00 00	 call	 ?AfxAssertFailedLine@@YGHPBDH@Z ; AfxAssertFailedLine
  0004b	85 c0		 test	 eax, eax
  0004d	74 01		 je	 SHORT $LN4@GetParamet
  0004f	cc		 int	 3
$LN4@GetParamet:

; 240  :     try

  00050	c7 45 fc 00 00
	00 00		 mov	 DWORD PTR __$EHRec$[ebp+12], 0
; File c:\program files (x86)\microsoft visual studio\2017\community\vc\tools\msvc\14.16.27023\include\comutil.h

; 2266 :     _com_util::CheckError(::VariantClear(this));

  00057	8b 4d 0c	 mov	 ecx, DWORD PTR _DBVarValue$[ebp]
  0005a	51		 push	 ecx
  0005b	ff 15 00 00 00
	00		 call	 DWORD PTR __imp__VariantClear@4
  00061	89 45 e4	 mov	 DWORD PTR _hr$[ebp], eax

; 96   :         if (FAILED(hr)) {

  00064	83 7d e4 00	 cmp	 DWORD PTR _hr$[ebp], 0
  00068	7d 09		 jge	 SHORT $LN21@GetParamet

; 97   :             _com_issue_error(hr);

  0006a	8b 55 e4	 mov	 edx, DWORD PTR _hr$[ebp]
  0006d	52		 push	 edx
  0006e	e8 00 00 00 00	 call	 ?_com_issue_error@@YGXJ@Z ; _com_issue_error
$LN21@GetParamet:

; 1293 :     V_VT(this) = VT_BSTR;

  00073	b8 08 00 00 00	 mov	 eax, 8
  00078	66 89 45 98	 mov	 WORD PTR $T3[ebp], ax

; 1294 :     V_BSTR(this) = _com_util::ConvertStringToBSTR(pSrc);

  0007c	8b 4d 08	 mov	 ecx, DWORD PTR _pszParamName$[ebp]
  0007f	51		 push	 ecx
  00080	e8 00 00 00 00	 call	 ?ConvertStringToBSTR@_com_util@@YGPA_WPBD@Z ; _com_util::ConvertStringToBSTR
  00085	89 45 cc	 mov	 DWORD PTR tv92[ebp], eax
  00088	8b 55 cc	 mov	 edx, DWORD PTR tv92[ebp]
  0008b	89 55 a0	 mov	 DWORD PTR $T3[ebp+8], edx
; File g:\网狐\happygamewh\服务端\系统模块\服务器组件\内核引擎\databaseengine.cpp

; 243  :         DBVarValue = m_DBCommand->Parameters->Item[pszParamName]->Value;

  0008e	c6 45 fc 01	 mov	 BYTE PTR __$EHRec$[ebp+12], 1
  00092	8b 45 d0	 mov	 eax, DWORD PTR _this$[ebp]
  00095	83 c0 28	 add	 eax, 40			; 00000028H
  00098	89 45 e0	 mov	 DWORD PTR _this$[ebp], eax
; File c:\program files (x86)\microsoft visual studio\2017\community\vc\tools\msvc\14.16.27023\include\comip.h

; 428  :         if (m_pInterface == NULL) {

  0009b	8b 4d e0	 mov	 ecx, DWORD PTR _this$[ebp]
  0009e	83 39 00	 cmp	 DWORD PTR [ecx], 0
  000a1	75 0a		 jne	 SHORT $LN26@GetParamet

; 429  :             _com_issue_error(E_POINTER);

  000a3	68 03 40 00 80	 push	 -2147467261		; 80004003H
  000a8	e8 00 00 00 00	 call	 ?_com_issue_error@@YGXJ@Z ; _com_issue_error
$LN26@GetParamet:
  000ad	8b 55 e0	 mov	 edx, DWORD PTR _this$[ebp]
  000b0	8b 02		 mov	 eax, DWORD PTR [edx]
  000b2	89 45 c8	 mov	 DWORD PTR $T9[ebp], eax
; File g:\网狐\happygamewh\服务端\系统模块\服务器组件\内核引擎\databaseengine.cpp

; 243  :         DBVarValue = m_DBCommand->Parameters->Item[pszParamName]->Value;

  000b5	8d 4d e8	 lea	 ecx, DWORD PTR $T12[ebp]
  000b8	51		 push	 ecx
  000b9	8b 4d c8	 mov	 ecx, DWORD PTR $T9[ebp]
  000bc	e8 00 00 00 00	 call	 ?GetParameters@Command15@ADOCG@@QAE?AV?$_com_ptr_t@V?$_com_IIID@UParameters@ADOCG@@$1?_GUID_0000050d_0000_0010_8000_00aa006d2ea4@@3U__s_GUID@@B@@@@XZ ; ADOCG::Command15::GetParameters
  000c1	89 45 c4	 mov	 DWORD PTR tv83[ebp], eax
  000c4	8b 55 c4	 mov	 edx, DWORD PTR tv83[ebp]
  000c7	89 55 dc	 mov	 DWORD PTR $T11[ebp], edx
  000ca	c6 45 fc 02	 mov	 BYTE PTR __$EHRec$[ebp+12], 2
; File c:\program files (x86)\microsoft visual studio\2017\community\vc\tools\msvc\14.16.27023\include\comip.h

; 428  :         if (m_pInterface == NULL) {

  000ce	8b 45 dc	 mov	 eax, DWORD PTR $T11[ebp]
  000d1	83 38 00	 cmp	 DWORD PTR [eax], 0
  000d4	75 0a		 jne	 SHORT $LN40@GetParamet

; 429  :             _com_issue_error(E_POINTER);

  000d6	68 03 40 00 80	 push	 -2147467261		; 80004003H
  000db	e8 00 00 00 00	 call	 ?_com_issue_error@@YGXJ@Z ; _com_issue_error
$LN40@GetParamet:
  000e0	8b 4d dc	 mov	 ecx, DWORD PTR $T11[ebp]
  000e3	8b 11		 mov	 edx, DWORD PTR [ecx]
  000e5	89 55 c0	 mov	 DWORD PTR $T8[ebp], edx
; File g:\网狐\happygamewh\服务端\系统模块\服务器组件\内核引擎\databaseengine.cpp

; 243  :         DBVarValue = m_DBCommand->Parameters->Item[pszParamName]->Value;

  000e8	8d 45 98	 lea	 eax, DWORD PTR $T3[ebp]
  000eb	50		 push	 eax
  000ec	8d 4d ec	 lea	 ecx, DWORD PTR $T13[ebp]
  000ef	51		 push	 ecx
  000f0	8b 4d c0	 mov	 ecx, DWORD PTR $T8[ebp]
  000f3	e8 00 00 00 00	 call	 ?GetItem@Parameters@ADOCG@@QAE?AV?$_com_ptr_t@V?$_com_IIID@U_Parameter@ADOCG@@$1?_GUID_0000050c_0000_0010_8000_00aa006d2ea4@@3U__s_GUID@@B@@@@ABV_variant_t@@@Z ; ADOCG::Parameters::GetItem
  000f8	89 45 bc	 mov	 DWORD PTR tv277[ebp], eax
  000fb	8b 55 bc	 mov	 edx, DWORD PTR tv277[ebp]
  000fe	89 55 d8	 mov	 DWORD PTR $T10[ebp], edx
  00101	c6 45 fc 03	 mov	 BYTE PTR __$EHRec$[ebp+12], 3
; File c:\program files (x86)\microsoft visual studio\2017\community\vc\tools\msvc\14.16.27023\include\comip.h

; 428  :         if (m_pInterface == NULL) {

  00105	8b 45 d8	 mov	 eax, DWORD PTR $T10[ebp]
  00108	83 38 00	 cmp	 DWORD PTR [eax], 0
  0010b	75 0a		 jne	 SHORT $LN54@GetParamet

; 429  :             _com_issue_error(E_POINTER);

  0010d	68 03 40 00 80	 push	 -2147467261		; 80004003H
  00112	e8 00 00 00 00	 call	 ?_com_issue_error@@YGXJ@Z ; _com_issue_error
$LN54@GetParamet:
  00117	8b 4d d8	 mov	 ecx, DWORD PTR $T10[ebp]
  0011a	8b 11		 mov	 edx, DWORD PTR [ecx]
  0011c	89 55 b8	 mov	 DWORD PTR $T7[ebp], edx
; File g:\网狐\happygamewh\服务端\系统模块\服务器组件\内核引擎\databaseengine.cpp

; 243  :         DBVarValue = m_DBCommand->Parameters->Item[pszParamName]->Value;

  0011f	8d 45 88	 lea	 eax, DWORD PTR $T2[ebp]
  00122	50		 push	 eax
  00123	8b 4d b8	 mov	 ecx, DWORD PTR $T7[ebp]
  00126	e8 00 00 00 00	 call	 ?GetValue@_Parameter@ADOCG@@QAE?AV_variant_t@@XZ ; ADOCG::_Parameter::GetValue
  0012b	89 45 b4	 mov	 DWORD PTR tv278[ebp], eax
  0012e	8b 4d b4	 mov	 ecx, DWORD PTR tv278[ebp]
  00131	89 4d b0	 mov	 DWORD PTR $T6[ebp], ecx
  00134	c6 45 fc 04	 mov	 BYTE PTR __$EHRec$[ebp+12], 4
; File c:\program files (x86)\microsoft visual studio\2017\community\vc\tools\msvc\14.16.27023\include\comutil.h

; 1729 :     _com_util::CheckError(::VariantCopy(this, const_cast<VARIANT*>(static_cast<const VARIANT*>(&varSrc))));

  00138	8b 55 b0	 mov	 edx, DWORD PTR $T6[ebp]
  0013b	52		 push	 edx
  0013c	8b 45 0c	 mov	 eax, DWORD PTR _DBVarValue$[ebp]
  0013f	50		 push	 eax
  00140	ff 15 00 00 00
	00		 call	 DWORD PTR __imp__VariantCopy@8
  00146	89 45 d4	 mov	 DWORD PTR _hr$[ebp], eax

; 96   :         if (FAILED(hr)) {

  00149	83 7d d4 00	 cmp	 DWORD PTR _hr$[ebp], 0
  0014d	7d 09		 jge	 SHORT $LN74@GetParamet

; 97   :             _com_issue_error(hr);

  0014f	8b 4d d4	 mov	 ecx, DWORD PTR _hr$[ebp]
  00152	51		 push	 ecx
  00153	e8 00 00 00 00	 call	 ?_com_issue_error@@YGXJ@Z ; _com_issue_error
$LN74@GetParamet:
; File g:\网狐\happygamewh\服务端\系统模块\服务器组件\内核引擎\databaseengine.cpp

; 243  :         DBVarValue = m_DBCommand->Parameters->Item[pszParamName]->Value;

  00158	c6 45 fc 03	 mov	 BYTE PTR __$EHRec$[ebp+12], 3
; File c:\program files (x86)\microsoft visual studio\2017\community\vc\tools\msvc\14.16.27023\include\comutil.h

; 2334 :     ::VariantClear(this);

  0015c	8d 55 88	 lea	 edx, DWORD PTR $T2[ebp]
  0015f	52		 push	 edx
  00160	ff 15 00 00 00
	00		 call	 DWORD PTR __imp__VariantClear@4
; File g:\网狐\happygamewh\服务端\系统模块\服务器组件\内核引擎\databaseengine.cpp

; 243  :         DBVarValue = m_DBCommand->Parameters->Item[pszParamName]->Value;

  00166	c6 45 fc 02	 mov	 BYTE PTR __$EHRec$[ebp+12], 2
; File c:\program files (x86)\microsoft visual studio\2017\community\vc\tools\msvc\14.16.27023\include\comip.h

; 817  :         if (m_pInterface != NULL) {

  0016a	83 7d ec 00	 cmp	 DWORD PTR $T13[ebp], 0
  0016e	74 0e		 je	 SHORT $LN77@GetParamet

; 818  :             m_pInterface->Release();

  00170	8b 45 ec	 mov	 eax, DWORD PTR $T13[ebp]
  00173	50		 push	 eax
  00174	8b 4d ec	 mov	 ecx, DWORD PTR $T13[ebp]
  00177	8b 11		 mov	 edx, DWORD PTR [ecx]
  00179	8b 42 08	 mov	 eax, DWORD PTR [edx+8]
  0017c	ff d0		 call	 eax
$LN77@GetParamet:
; File g:\网狐\happygamewh\服务端\系统模块\服务器组件\内核引擎\databaseengine.cpp

; 243  :         DBVarValue = m_DBCommand->Parameters->Item[pszParamName]->Value;

  0017e	c6 45 fc 01	 mov	 BYTE PTR __$EHRec$[ebp+12], 1
; File c:\program files (x86)\microsoft visual studio\2017\community\vc\tools\msvc\14.16.27023\include\comip.h

; 817  :         if (m_pInterface != NULL) {

  00182	83 7d e8 00	 cmp	 DWORD PTR $T12[ebp], 0
  00186	74 0e		 je	 SHORT $LN82@GetParamet

; 818  :             m_pInterface->Release();

  00188	8b 4d e8	 mov	 ecx, DWORD PTR $T12[ebp]
  0018b	51		 push	 ecx
  0018c	8b 55 e8	 mov	 edx, DWORD PTR $T12[ebp]
  0018f	8b 02		 mov	 eax, DWORD PTR [edx]
  00191	8b 48 08	 mov	 ecx, DWORD PTR [eax+8]
  00194	ff d1		 call	 ecx
$LN82@GetParamet:
; File g:\网狐\happygamewh\服务端\系统模块\服务器组件\内核引擎\databaseengine.cpp

; 243  :         DBVarValue = m_DBCommand->Parameters->Item[pszParamName]->Value;

  00196	c6 45 fc 00	 mov	 BYTE PTR __$EHRec$[ebp+12], 0
; File c:\program files (x86)\microsoft visual studio\2017\community\vc\tools\msvc\14.16.27023\include\comutil.h

; 2334 :     ::VariantClear(this);

  0019a	8d 55 98	 lea	 edx, DWORD PTR $T3[ebp]
  0019d	52		 push	 edx
  0019e	ff 15 00 00 00
	00		 call	 DWORD PTR __imp__VariantClear@4
; File g:\网狐\happygamewh\服务端\系统模块\服务器组件\内核引擎\databaseengine.cpp

; 244  :     }

  001a4	eb 14		 jmp	 SHORT $LN5@GetParamet
__catch$?GetParameter@CDataBase@@UAEXPBDAAV_variant_t@@@Z$0:

; 245  :     catch (CComError & ComError)
; 246  :     {
; 247  :         OnSQLException(SQLException_Syntax, &ComError);

  001a6	8b 45 a8	 mov	 eax, DWORD PTR _ComError$4[ebp]
  001a9	50		 push	 eax
  001aa	6a 02		 push	 2
  001ac	8b 4d d0	 mov	 ecx, DWORD PTR _this$[ebp]
  001af	e8 00 00 00 00	 call	 ?OnSQLException@CDataBase@@IAEXW4enSQLException@@PAV_com_error@@@Z ; CDataBase::OnSQLException

; 248  :     }

  001b4	b8 00 00 00 00	 mov	 eax, $LN12@GetParamet
  001b9	c3		 ret	 0
$LN5@GetParamet:
  001ba	c7 45 fc ff ff
	ff ff		 mov	 DWORD PTR __$EHRec$[ebp+12], -1
  001c1	eb 07		 jmp	 SHORT $LN22@GetParamet
$LN12@GetParamet:
; File c:\program files (x86)\microsoft visual studio\2017\community\vc\tools\msvc\14.16.27023\include\comutil.h
  001c3	c7 45 fc ff ff
	ff ff		 mov	 DWORD PTR __$EHRec$[ebp+12], -1
$LN22@GetParamet:
; File g:\网狐\happygamewh\服务端\系统模块\服务器组件\内核引擎\databaseengine.cpp

; 249  : 
; 250  :     return;
; 251  : }

  001ca	8b 4d f4	 mov	 ecx, DWORD PTR __$EHRec$[ebp+4]
  001cd	64 89 0d 00 00
	00 00		 mov	 DWORD PTR fs:0, ecx
  001d4	59		 pop	 ecx
  001d5	5f		 pop	 edi
  001d6	5e		 pop	 esi
  001d7	5b		 pop	 ebx
  001d8	8b e5		 mov	 esp, ebp
  001da	5d		 pop	 ebp
  001db	c2 08 00	 ret	 8
_TEXT	ENDS
;	COMDAT text$x
text$x	SEGMENT
__unwindfunclet$?GetParameter@CDataBase@@UAEXPBDAAV_variant_t@@@Z$2:
  00000	8d 4d 98	 lea	 ecx, DWORD PTR $T3[ebp]
  00003	e9 00 00 00 00	 jmp	 ??1_variant_t@@QAE@XZ	; _variant_t::~_variant_t
__unwindfunclet$?GetParameter@CDataBase@@UAEXPBDAAV_variant_t@@@Z$3:
  00008	8d 4d e8	 lea	 ecx, DWORD PTR $T12[ebp]
  0000b	e9 00 00 00 00	 jmp	 ??1?$_com_ptr_t@V?$_com_IIID@UParameters@ADOCG@@$1?_GUID_0000050d_0000_0010_8000_00aa006d2ea4@@3U__s_GUID@@B@@@@QAE@XZ ; _com_ptr_t<_com_IIID<ADOCG::Parameters,&_GUID_0000050d_0000_0010_8000_00aa006d2ea4> >::~_com_ptr_t<_com_IIID<ADOCG::Parameters,&_GUID_0000050d_0000_0010_8000_00aa006d2ea4> >
__unwindfunclet$?GetParameter@CDataBase@@UAEXPBDAAV_variant_t@@@Z$4:
  00010	8d 4d ec	 lea	 ecx, DWORD PTR $T13[ebp]
  00013	e9 00 00 00 00	 jmp	 ??1?$_com_ptr_t@V?$_com_IIID@U_Parameter@ADOCG@@$1?_GUID_0000050c_0000_0010_8000_00aa006d2ea4@@3U__s_GUID@@B@@@@QAE@XZ ; _com_ptr_t<_com_IIID<ADOCG::_Parameter,&_GUID_0000050c_0000_0010_8000_00aa006d2ea4> >::~_com_ptr_t<_com_IIID<ADOCG::_Parameter,&_GUID_0000050c_0000_0010_8000_00aa006d2ea4> >
__unwindfunclet$?GetParameter@CDataBase@@UAEXPBDAAV_variant_t@@@Z$5:
  00018	8d 4d 88	 lea	 ecx, DWORD PTR $T2[ebp]
  0001b	e9 00 00 00 00	 jmp	 ??1_variant_t@@QAE@XZ	; _variant_t::~_variant_t
__ehhandler$?GetParameter@CDataBase@@UAEXPBDAAV_variant_t@@@Z:
  00020	8b 54 24 08	 mov	 edx, DWORD PTR [esp+8]
  00024	8d 42 0c	 lea	 eax, DWORD PTR [edx+12]
  00027	8b 4a 84	 mov	 ecx, DWORD PTR [edx-124]
  0002a	33 c8		 xor	 ecx, eax
  0002c	e8 00 00 00 00	 call	 @__security_check_cookie@4
  00031	b8 00 00 00 00	 mov	 eax, OFFSET __ehfuncinfo$?GetParameter@CDataBase@@UAEXPBDAAV_variant_t@@@Z
  00036	e9 00 00 00 00	 jmp	 ___CxxFrameHandler3
text$x	ENDS
?GetParameter@CDataBase@@UAEXPBDAAV_variant_t@@@Z ENDP	; CDataBase::GetParameter
; Function compile flags: /Odtp
; File g:\网狐\happygamewh\服务端\系统模块\服务器组件\内核引擎\databaseengine.cpp
; File c:\program files (x86)\microsoft visual studio\2017\community\vc\tools\msvc\14.16.27023\include\comip.h
; File g:\网狐\happygamewh\服务端\系统模块\服务器组件\内核引擎\databaseengine.cpp
; File c:\program files (x86)\microsoft visual studio\2017\community\vc\tools\msvc\14.16.27023\include\comip.h
; File g:\网狐\happygamewh\服务端\系统模块\服务器组件\内核引擎\databaseengine.cpp
; File c:\program files (x86)\microsoft visual studio\2017\community\vc\tools\msvc\14.16.27023\include\comip.h
; File g:\网狐\happygamewh\服务端\系统模块\服务器组件\内核引擎\databaseengine.cpp
; File c:\program files (x86)\microsoft visual studio\2017\community\vc\tools\msvc\14.16.27023\include\comip.h
; File g:\网狐\happygamewh\服务端\系统模块\服务器组件\内核引擎\databaseengine.cpp
; File c:\program files (x86)\microsoft visual studio\2017\community\vc\tools\msvc\14.16.27023\include\comip.h
; File g:\网狐\happygamewh\服务端\中间目录\内核引擎\debug_ansi\msado15.tli
; File g:\网狐\happygamewh\服务端\系统模块\服务器组件\内核引擎\databaseengine.cpp
; File c:\program files (x86)\microsoft visual studio\2017\community\vc\tools\msvc\14.16.27023\include\comip.h
; File g:\网狐\happygamewh\服务端\系统模块\服务器组件\内核引擎\databaseengine.cpp
; File c:\program files (x86)\microsoft visual studio\2017\community\vc\tools\msvc\14.16.27023\include\comutil.h
; File g:\网狐\happygamewh\服务端\系统模块\服务器组件\内核引擎\databaseengine.cpp
;	COMDAT ?ClearParameters@CDataBase@@UAEXXZ
_TEXT	SEGMENT
$T2 = -132						; size = 16
$T3 = -116						; size = 16
_ComError$4 = -100					; size = 4
tv278 = -96						; size = 4
$T5 = -92						; size = 4
tv280 = -88						; size = 4
tv279 = -84						; size = 4
$T6 = -80						; size = 4
tv132 = -76						; size = 4
$T7 = -72						; size = 4
tv144 = -68						; size = 4
$T8 = -64						; size = 4
__hr$9 = -60						; size = 4
$T10 = -56						; size = 4
_this$ = -52						; size = 4
_lParameterCount$11 = -48				; size = 4
$T12 = -44						; size = 4
_this$ = -40						; size = 4
_this$ = -36						; size = 4
$T13 = -32						; size = 4
$T14 = -28						; size = 4
$T15 = -24						; size = 4
_i$16 = -20						; size = 4
__$EHRec$ = -16						; size = 16
?ClearParameters@CDataBase@@UAEXXZ PROC			; CDataBase::ClearParameters, COMDAT
; _this$ = ecx

; 215  : {

  00000	55		 push	 ebp
  00001	8b ec		 mov	 ebp, esp
  00003	6a ff		 push	 -1
  00005	68 00 00 00 00	 push	 __ehhandler$?ClearParameters@CDataBase@@UAEXXZ
  0000a	64 a1 00 00 00
	00		 mov	 eax, DWORD PTR fs:0
  00010	50		 push	 eax
  00011	51		 push	 ecx
  00012	83 ec 74	 sub	 esp, 116		; 00000074H
  00015	53		 push	 ebx
  00016	56		 push	 esi
  00017	57		 push	 edi
  00018	a1 00 00 00 00	 mov	 eax, DWORD PTR ___security_cookie
  0001d	33 c5		 xor	 eax, ebp
  0001f	50		 push	 eax
  00020	8d 45 f4	 lea	 eax, DWORD PTR __$EHRec$[ebp+4]
  00023	64 a3 00 00 00
	00		 mov	 DWORD PTR fs:0, eax
  00029	89 65 f0	 mov	 DWORD PTR __$EHRec$[ebp], esp
  0002c	89 4d dc	 mov	 DWORD PTR _this$[ebp], ecx
  0002f	c7 45 a4 00 00
	00 00		 mov	 DWORD PTR $T5[ebp], 0

; 216  :     try

  00036	c7 45 fc 00 00
	00 00		 mov	 DWORD PTR __$EHRec$[ebp+12], 0

; 218  :         LONG lParameterCount = m_DBCommand->Parameters->Count;

  0003d	8b 45 dc	 mov	 eax, DWORD PTR _this$[ebp]
  00040	83 c0 28	 add	 eax, 40			; 00000028H
  00043	89 45 d8	 mov	 DWORD PTR _this$[ebp], eax
; File c:\program files (x86)\microsoft visual studio\2017\community\vc\tools\msvc\14.16.27023\include\comip.h

; 428  :         if (m_pInterface == NULL) {

  00046	8b 4d d8	 mov	 ecx, DWORD PTR _this$[ebp]
  00049	83 39 00	 cmp	 DWORD PTR [ecx], 0
  0004c	75 0a		 jne	 SHORT $LN16@ClearParam

; 429  :             _com_issue_error(E_POINTER);

  0004e	68 03 40 00 80	 push	 -2147467261		; 80004003H
  00053	e8 00 00 00 00	 call	 ?_com_issue_error@@YGXJ@Z ; _com_issue_error
$LN16@ClearParam:
  00058	8b 55 d8	 mov	 edx, DWORD PTR _this$[ebp]
  0005b	8b 02		 mov	 eax, DWORD PTR [edx]
  0005d	89 45 c0	 mov	 DWORD PTR $T8[ebp], eax
; File g:\网狐\happygamewh\服务端\系统模块\服务器组件\内核引擎\databaseengine.cpp

; 218  :         LONG lParameterCount = m_DBCommand->Parameters->Count;

  00060	8d 4d e8	 lea	 ecx, DWORD PTR $T15[ebp]
  00063	51		 push	 ecx
  00064	8b 4d c0	 mov	 ecx, DWORD PTR $T8[ebp]
  00067	e8 00 00 00 00	 call	 ?GetParameters@Command15@ADOCG@@QAE?AV?$_com_ptr_t@V?$_com_IIID@UParameters@ADOCG@@$1?_GUID_0000050d_0000_0010_8000_00aa006d2ea4@@3U__s_GUID@@B@@@@XZ ; ADOCG::Command15::GetParameters
  0006c	89 45 bc	 mov	 DWORD PTR tv144[ebp], eax
  0006f	8b 55 bc	 mov	 edx, DWORD PTR tv144[ebp]
  00072	89 55 d4	 mov	 DWORD PTR $T12[ebp], edx
  00075	c6 45 fc 01	 mov	 BYTE PTR __$EHRec$[ebp+12], 1
; File c:\program files (x86)\microsoft visual studio\2017\community\vc\tools\msvc\14.16.27023\include\comip.h

; 428  :         if (m_pInterface == NULL) {

  00079	8b 45 d4	 mov	 eax, DWORD PTR $T12[ebp]
  0007c	83 38 00	 cmp	 DWORD PTR [eax], 0
  0007f	75 0a		 jne	 SHORT $LN31@ClearParam

; 429  :             _com_issue_error(E_POINTER);

  00081	68 03 40 00 80	 push	 -2147467261		; 80004003H
  00086	e8 00 00 00 00	 call	 ?_com_issue_error@@YGXJ@Z ; _com_issue_error
$LN31@ClearParam:
  0008b	8b 4d d4	 mov	 ecx, DWORD PTR $T12[ebp]
  0008e	8b 11		 mov	 edx, DWORD PTR [ecx]
  00090	89 55 b8	 mov	 DWORD PTR $T7[ebp], edx
; File g:\网狐\happygamewh\服务端\系统模块\服务器组件\内核引擎\databaseengine.cpp

; 218  :         LONG lParameterCount = m_DBCommand->Parameters->Count;

  00093	8b 4d b8	 mov	 ecx, DWORD PTR $T7[ebp]
  00096	e8 00 00 00 00	 call	 ?GetCount@_Collection@ADOCG@@QAEJXZ ; ADOCG::_Collection::GetCount
  0009b	89 45 b4	 mov	 DWORD PTR tv132[ebp], eax
  0009e	8b 45 b4	 mov	 eax, DWORD PTR tv132[ebp]
  000a1	89 45 d0	 mov	 DWORD PTR _lParameterCount$11[ebp], eax
  000a4	c6 45 fc 00	 mov	 BYTE PTR __$EHRec$[ebp+12], 0
; File c:\program files (x86)\microsoft visual studio\2017\community\vc\tools\msvc\14.16.27023\include\comip.h

; 817  :         if (m_pInterface != NULL) {

  000a8	83 7d e8 00	 cmp	 DWORD PTR $T15[ebp], 0
  000ac	74 0e		 je	 SHORT $LN36@ClearParam

; 818  :             m_pInterface->Release();

  000ae	8b 4d e8	 mov	 ecx, DWORD PTR $T15[ebp]
  000b1	51		 push	 ecx
  000b2	8b 55 e8	 mov	 edx, DWORD PTR $T15[ebp]
  000b5	8b 02		 mov	 eax, DWORD PTR [edx]
  000b7	8b 48 08	 mov	 ecx, DWORD PTR [eax+8]
  000ba	ff d1		 call	 ecx
$LN36@ClearParam:
; File g:\网狐\happygamewh\服务端\系统模块\服务器组件\内核引擎\databaseengine.cpp

; 219  :         if (lParameterCount > 0L)

  000bc	83 7d d0 00	 cmp	 DWORD PTR _lParameterCount$11[ebp], 0
  000c0	0f 8e 20 01 00
	00		 jle	 $LN6@ClearParam

; 220  :         {
; 221  :             for (LONG i = lParameterCount; i > 0; i--)

  000c6	8b 55 d0	 mov	 edx, DWORD PTR _lParameterCount$11[ebp]
  000c9	89 55 ec	 mov	 DWORD PTR _i$16[ebp], edx
  000cc	eb 09		 jmp	 SHORT $LN4@ClearParam
$LN2@ClearParam:
  000ce	8b 45 ec	 mov	 eax, DWORD PTR _i$16[ebp]
  000d1	83 e8 01	 sub	 eax, 1
  000d4	89 45 ec	 mov	 DWORD PTR _i$16[ebp], eax
$LN4@ClearParam:
  000d7	83 7d ec 00	 cmp	 DWORD PTR _i$16[ebp], 0
  000db	0f 8e 05 01 00
	00		 jle	 $LN6@ClearParam

; 223  :                 m_DBCommand->Parameters->Delete(i - 1);

  000e1	6a 03		 push	 3
  000e3	8b 4d ec	 mov	 ecx, DWORD PTR _i$16[ebp]
  000e6	83 e9 01	 sub	 ecx, 1
  000e9	51		 push	 ecx
  000ea	8d 8d 7c ff ff
	ff		 lea	 ecx, DWORD PTR $T2[ebp]
  000f0	e8 00 00 00 00	 call	 ??0_variant_t@@QAE@JG@Z	; _variant_t::_variant_t
  000f5	89 45 a0	 mov	 DWORD PTR tv278[ebp], eax
  000f8	c6 45 fc 02	 mov	 BYTE PTR __$EHRec$[ebp+12], 2
  000fc	8b 55 dc	 mov	 edx, DWORD PTR _this$[ebp]
  000ff	83 c2 28	 add	 edx, 40			; 00000028H
  00102	89 55 cc	 mov	 DWORD PTR _this$[ebp], edx
; File c:\program files (x86)\microsoft visual studio\2017\community\vc\tools\msvc\14.16.27023\include\comip.h

; 428  :         if (m_pInterface == NULL) {

  00105	8b 45 cc	 mov	 eax, DWORD PTR _this$[ebp]
  00108	83 38 00	 cmp	 DWORD PTR [eax], 0
  0010b	75 0a		 jne	 SHORT $LN51@ClearParam

; 429  :             _com_issue_error(E_POINTER);

  0010d	68 03 40 00 80	 push	 -2147467261		; 80004003H
  00112	e8 00 00 00 00	 call	 ?_com_issue_error@@YGXJ@Z ; _com_issue_error
$LN51@ClearParam:
  00117	8b 4d cc	 mov	 ecx, DWORD PTR _this$[ebp]
  0011a	8b 11		 mov	 edx, DWORD PTR [ecx]
  0011c	89 55 b0	 mov	 DWORD PTR $T6[ebp], edx
; File g:\网狐\happygamewh\服务端\系统模块\服务器组件\内核引擎\databaseengine.cpp

; 223  :                 m_DBCommand->Parameters->Delete(i - 1);

  0011f	8d 45 e0	 lea	 eax, DWORD PTR $T13[ebp]
  00122	50		 push	 eax
  00123	8b 4d b0	 mov	 ecx, DWORD PTR $T6[ebp]
  00126	e8 00 00 00 00	 call	 ?GetParameters@Command15@ADOCG@@QAE?AV?$_com_ptr_t@V?$_com_IIID@UParameters@ADOCG@@$1?_GUID_0000050d_0000_0010_8000_00aa006d2ea4@@3U__s_GUID@@B@@@@XZ ; ADOCG::Command15::GetParameters
  0012b	89 45 ac	 mov	 DWORD PTR tv279[ebp], eax
  0012e	8b 4d ac	 mov	 ecx, DWORD PTR tv279[ebp]
  00131	89 4d c8	 mov	 DWORD PTR $T10[ebp], ecx
  00134	c6 45 fc 03	 mov	 BYTE PTR __$EHRec$[ebp+12], 3
; File c:\program files (x86)\microsoft visual studio\2017\community\vc\tools\msvc\14.16.27023\include\comip.h

; 428  :         if (m_pInterface == NULL) {

  00138	8b 55 c8	 mov	 edx, DWORD PTR $T10[ebp]
  0013b	83 3a 00	 cmp	 DWORD PTR [edx], 0
  0013e	75 0a		 jne	 SHORT $LN65@ClearParam

; 429  :             _com_issue_error(E_POINTER);

  00140	68 03 40 00 80	 push	 -2147467261		; 80004003H
  00145	e8 00 00 00 00	 call	 ?_com_issue_error@@YGXJ@Z ; _com_issue_error
$LN65@ClearParam:
  0014a	8b 45 c8	 mov	 eax, DWORD PTR $T10[ebp]
  0014d	8b 08		 mov	 ecx, DWORD PTR [eax]
  0014f	89 4d e4	 mov	 DWORD PTR $T14[ebp], ecx
; File g:\网狐\happygamewh\服务端\中间目录\内核引擎\debug_ansi\msado15.tli

; 45   :     HRESULT _hr = raw_Delete(Index);

  00152	8b 95 7c ff ff
	ff		 mov	 edx, DWORD PTR $T2[ebp]
  00158	89 55 8c	 mov	 DWORD PTR $T3[ebp], edx
  0015b	8b 45 80	 mov	 eax, DWORD PTR $T2[ebp+4]
  0015e	89 45 90	 mov	 DWORD PTR $T3[ebp+4], eax
  00161	8b 4d 84	 mov	 ecx, DWORD PTR $T2[ebp+8]
  00164	89 4d 94	 mov	 DWORD PTR $T3[ebp+8], ecx
  00167	8b 55 88	 mov	 edx, DWORD PTR $T2[ebp+12]
  0016a	89 55 98	 mov	 DWORD PTR $T3[ebp+12], edx
  0016d	83 ec 10	 sub	 esp, 16			; 00000010H
  00170	8b c4		 mov	 eax, esp
  00172	8b 4d 8c	 mov	 ecx, DWORD PTR $T3[ebp]
  00175	89 08		 mov	 DWORD PTR [eax], ecx
  00177	8b 55 90	 mov	 edx, DWORD PTR $T3[ebp+4]
  0017a	89 50 04	 mov	 DWORD PTR [eax+4], edx
  0017d	8b 4d 94	 mov	 ecx, DWORD PTR $T3[ebp+8]
  00180	89 48 08	 mov	 DWORD PTR [eax+8], ecx
  00183	8b 55 98	 mov	 edx, DWORD PTR $T3[ebp+12]
  00186	89 50 0c	 mov	 DWORD PTR [eax+12], edx
  00189	8b 45 e4	 mov	 eax, DWORD PTR $T14[ebp]
  0018c	50		 push	 eax
  0018d	8b 4d e4	 mov	 ecx, DWORD PTR $T14[ebp]
  00190	8b 11		 mov	 edx, DWORD PTR [ecx]
  00192	8b 42 2c	 mov	 eax, DWORD PTR [edx+44]
  00195	ff d0		 call	 eax
  00197	89 45 a8	 mov	 DWORD PTR tv280[ebp], eax
  0019a	8b 4d a8	 mov	 ecx, DWORD PTR tv280[ebp]
  0019d	89 4d c4	 mov	 DWORD PTR __hr$9[ebp], ecx

; 46   :     if (FAILED(_hr)) _com_issue_errorex(_hr, this, __uuidof(this));

  001a0	83 7d c4 00	 cmp	 DWORD PTR __hr$9[ebp], 0
  001a4	7d 12		 jge	 SHORT $LN67@ClearParam
  001a6	68 00 00 00 00	 push	 OFFSET __GUID_00000513_0000_0010_8000_00aa006d2ea4
  001ab	8b 55 e4	 mov	 edx, DWORD PTR $T14[ebp]
  001ae	52		 push	 edx
  001af	8b 45 c4	 mov	 eax, DWORD PTR __hr$9[ebp]
  001b2	50		 push	 eax
  001b3	e8 00 00 00 00	 call	 ?_com_issue_errorex@@YGXJPAUIUnknown@@ABU_GUID@@@Z ; _com_issue_errorex
$LN67@ClearParam:
; File g:\网狐\happygamewh\服务端\系统模块\服务器组件\内核引擎\databaseengine.cpp

; 223  :                 m_DBCommand->Parameters->Delete(i - 1);

  001b8	c6 45 fc 02	 mov	 BYTE PTR __$EHRec$[ebp+12], 2
; File c:\program files (x86)\microsoft visual studio\2017\community\vc\tools\msvc\14.16.27023\include\comip.h

; 817  :         if (m_pInterface != NULL) {

  001bc	83 7d e0 00	 cmp	 DWORD PTR $T13[ebp], 0
  001c0	74 0e		 je	 SHORT $LN70@ClearParam

; 818  :             m_pInterface->Release();

  001c2	8b 4d e0	 mov	 ecx, DWORD PTR $T13[ebp]
  001c5	51		 push	 ecx
  001c6	8b 55 e0	 mov	 edx, DWORD PTR $T13[ebp]
  001c9	8b 02		 mov	 eax, DWORD PTR [edx]
  001cb	8b 48 08	 mov	 ecx, DWORD PTR [eax+8]
  001ce	ff d1		 call	 ecx
$LN70@ClearParam:
; File g:\网狐\happygamewh\服务端\系统模块\服务器组件\内核引擎\databaseengine.cpp

; 223  :                 m_DBCommand->Parameters->Delete(i - 1);

  001d0	c6 45 fc 00	 mov	 BYTE PTR __$EHRec$[ebp+12], 0
; File c:\program files (x86)\microsoft visual studio\2017\community\vc\tools\msvc\14.16.27023\include\comutil.h

; 2334 :     ::VariantClear(this);

  001d4	8d 95 7c ff ff
	ff		 lea	 edx, DWORD PTR $T2[ebp]
  001da	52		 push	 edx
  001db	ff 15 00 00 00
	00		 call	 DWORD PTR __imp__VariantClear@4
; File g:\网狐\happygamewh\服务端\系统模块\服务器组件\内核引擎\databaseengine.cpp

; 224  :             }

  001e1	e9 e8 fe ff ff	 jmp	 $LN2@ClearParam
$LN6@ClearParam:

; 225  :         }
; 226  :     }

  001e6	eb 14		 jmp	 SHORT $LN8@ClearParam
__catch$?ClearParameters@CDataBase@@UAEXXZ$0:

; 227  :     catch (CComError & ComError)
; 228  :     {
; 229  :         OnSQLException(SQLException_Syntax, &ComError);

  001e8	8b 45 9c	 mov	 eax, DWORD PTR _ComError$4[ebp]
  001eb	50		 push	 eax
  001ec	6a 02		 push	 2
  001ee	8b 4d dc	 mov	 ecx, DWORD PTR _this$[ebp]
  001f1	e8 00 00 00 00	 call	 ?OnSQLException@CDataBase@@IAEXW4enSQLException@@PAV_com_error@@@Z ; CDataBase::OnSQLException

; 230  :     }

  001f6	b8 00 00 00 00	 mov	 eax, $LN14@ClearParam
  001fb	c3		 ret	 0
$LN8@ClearParam:
  001fc	c7 45 fc ff ff
	ff ff		 mov	 DWORD PTR __$EHRec$[ebp+12], -1
  00203	eb 07		 jmp	 SHORT $LN18@ClearParam
$LN14@ClearParam:
; File c:\program files (x86)\microsoft visual studio\2017\community\vc\tools\msvc\14.16.27023\include\comutil.h
  00205	c7 45 fc ff ff
	ff ff		 mov	 DWORD PTR __$EHRec$[ebp+12], -1
$LN18@ClearParam:
; File g:\网狐\happygamewh\服务端\系统模块\服务器组件\内核引擎\databaseengine.cpp

; 231  : 
; 232  :     return;
; 233  : }

  0020c	8b 4d f4	 mov	 ecx, DWORD PTR __$EHRec$[ebp+4]
  0020f	64 89 0d 00 00
	00 00		 mov	 DWORD PTR fs:0, ecx
  00216	59		 pop	 ecx
  00217	5f		 pop	 edi
  00218	5e		 pop	 esi
  00219	5b		 pop	 ebx
  0021a	8b e5		 mov	 esp, ebp
  0021c	5d		 pop	 ebp
  0021d	c3		 ret	 0
_TEXT	ENDS
;	COMDAT text$x
text$x	SEGMENT
__unwindfunclet$?ClearParameters@CDataBase@@UAEXXZ$2:
  00000	8d 4d e8	 lea	 ecx, DWORD PTR $T15[ebp]
  00003	e9 00 00 00 00	 jmp	 ??1?$_com_ptr_t@V?$_com_IIID@UParameters@ADOCG@@$1?_GUID_0000050d_0000_0010_8000_00aa006d2ea4@@3U__s_GUID@@B@@@@QAE@XZ ; _com_ptr_t<_com_IIID<ADOCG::Parameters,&_GUID_0000050d_0000_0010_8000_00aa006d2ea4> >::~_com_ptr_t<_com_IIID<ADOCG::Parameters,&_GUID_0000050d_0000_0010_8000_00aa006d2ea4> >
__unwindfunclet$?ClearParameters@CDataBase@@UAEXXZ$3:
  00008	8d 8d 7c ff ff
	ff		 lea	 ecx, DWORD PTR $T2[ebp]
  0000e	e9 00 00 00 00	 jmp	 ??1_variant_t@@QAE@XZ	; _variant_t::~_variant_t
__unwindfunclet$?ClearParameters@CDataBase@@UAEXXZ$4:
  00013	8d 4d e0	 lea	 ecx, DWORD PTR $T13[ebp]
  00016	e9 00 00 00 00	 jmp	 ??1?$_com_ptr_t@V?$_com_IIID@UParameters@ADOCG@@$1?_GUID_0000050d_0000_0010_8000_00aa006d2ea4@@3U__s_GUID@@B@@@@QAE@XZ ; _com_ptr_t<_com_IIID<ADOCG::Parameters,&_GUID_0000050d_0000_0010_8000_00aa006d2ea4> >::~_com_ptr_t<_com_IIID<ADOCG::Parameters,&_GUID_0000050d_0000_0010_8000_00aa006d2ea4> >
__ehhandler$?ClearParameters@CDataBase@@UAEXXZ:
  0001b	8b 54 24 08	 mov	 edx, DWORD PTR [esp+8]
  0001f	8d 42 0c	 lea	 eax, DWORD PTR [edx+12]
  00022	8b 8a 78 ff ff
	ff		 mov	 ecx, DWORD PTR [edx-136]
  00028	33 c8		 xor	 ecx, eax
  0002a	e8 00 00 00 00	 call	 @__security_check_cookie@4
  0002f	b8 00 00 00 00	 mov	 eax, OFFSET __ehfuncinfo$?ClearParameters@CDataBase@@UAEXXZ
  00034	e9 00 00 00 00	 jmp	 ___CxxFrameHandler3
text$x	ENDS
?ClearParameters@CDataBase@@UAEXXZ ENDP			; CDataBase::ClearParameters
; Function compile flags: /Odtp
; File g:\网狐\happygamewh\服务端\系统模块\服务器组件\内核引擎\databaseengine.cpp
;	COMDAT ?SetConnectionInfo@CDataBase@@UAE_NPBDG000@Z
_TEXT	SEGMENT
_strUser$ = -32						; size = 4
_strDBName$ = -28					; size = 4
_strPassword$ = -24					; size = 4
_this$ = -20						; size = 4
$T2 = -13						; size = 1
__$EHRec$ = -12						; size = 12
_szDBAddr$ = 8						; size = 4
_wPort$ = 12						; size = 2
_szDBName$ = 16						; size = 4
_szUser$ = 20						; size = 4
_szPassword$ = 24					; size = 4
?SetConnectionInfo@CDataBase@@UAE_NPBDG000@Z PROC	; CDataBase::SetConnectionInfo, COMDAT
; _this$ = ecx

; 189  : {

  00000	55		 push	 ebp
  00001	8b ec		 mov	 ebp, esp
  00003	6a ff		 push	 -1
  00005	68 00 00 00 00	 push	 __ehhandler$?SetConnectionInfo@CDataBase@@UAE_NPBDG000@Z
  0000a	64 a1 00 00 00
	00		 mov	 eax, DWORD PTR fs:0
  00010	50		 push	 eax
  00011	83 ec 14	 sub	 esp, 20			; 00000014H
  00014	a1 00 00 00 00	 mov	 eax, DWORD PTR ___security_cookie
  00019	33 c5		 xor	 eax, ebp
  0001b	50		 push	 eax
  0001c	8d 45 f4	 lea	 eax, DWORD PTR __$EHRec$[ebp]
  0001f	64 a3 00 00 00
	00		 mov	 DWORD PTR fs:0, eax
  00025	89 4d ec	 mov	 DWORD PTR _this$[ebp], ecx

; 190  :     // 效验参数 
; 191  :     ASSERT(szUser != NULL);

  00028	83 7d 14 00	 cmp	 DWORD PTR _szUser$[ebp], 0
  0002c	75 14		 jne	 SHORT $LN3@SetConnect
  0002e	68 bf 00 00 00	 push	 191			; 000000bfH
  00033	68 00 00 00 00	 push	 OFFSET ??_C@_0EL@CJALAN@g?3?2?M?x?$LK?$PM?2happygamewh?2?$LH?$PO?N?q?$LG?K?2?O?$LF?M?$LD@
  00038	e8 00 00 00 00	 call	 ?AfxAssertFailedLine@@YGHPBDH@Z ; AfxAssertFailedLine
  0003d	85 c0		 test	 eax, eax
  0003f	74 01		 je	 SHORT $LN3@SetConnect
  00041	cc		 int	 3
$LN3@SetConnect:

; 192  :     ASSERT(szDBName != NULL);

  00042	83 7d 10 00	 cmp	 DWORD PTR _szDBName$[ebp], 0
  00046	75 14		 jne	 SHORT $LN4@SetConnect
  00048	68 c0 00 00 00	 push	 192			; 000000c0H
  0004d	68 00 00 00 00	 push	 OFFSET ??_C@_0EL@CJALAN@g?3?2?M?x?$LK?$PM?2happygamewh?2?$LH?$PO?N?q?$LG?K?2?O?$LF?M?$LD@
  00052	e8 00 00 00 00	 call	 ?AfxAssertFailedLine@@YGHPBDH@Z ; AfxAssertFailedLine
  00057	85 c0		 test	 eax, eax
  00059	74 01		 je	 SHORT $LN4@SetConnect
  0005b	cc		 int	 3
$LN4@SetConnect:

; 193  :     ASSERT(szDBAddr != NULL);

  0005c	83 7d 08 00	 cmp	 DWORD PTR _szDBAddr$[ebp], 0
  00060	75 14		 jne	 SHORT $LN5@SetConnect
  00062	68 c1 00 00 00	 push	 193			; 000000c1H
  00067	68 00 00 00 00	 push	 OFFSET ??_C@_0EL@CJALAN@g?3?2?M?x?$LK?$PM?2happygamewh?2?$LH?$PO?N?q?$LG?K?2?O?$LF?M?$LD@
  0006c	e8 00 00 00 00	 call	 ?AfxAssertFailedLine@@YGHPBDH@Z ; AfxAssertFailedLine
  00071	85 c0		 test	 eax, eax
  00073	74 01		 je	 SHORT $LN5@SetConnect
  00075	cc		 int	 3
$LN5@SetConnect:

; 194  :     ASSERT(szPassword != NULL);

  00076	83 7d 18 00	 cmp	 DWORD PTR _szPassword$[ebp], 0
  0007a	75 14		 jne	 SHORT $LN6@SetConnect
  0007c	68 c2 00 00 00	 push	 194			; 000000c2H
  00081	68 00 00 00 00	 push	 OFFSET ??_C@_0EL@CJALAN@g?3?2?M?x?$LK?$PM?2happygamewh?2?$LH?$PO?N?q?$LG?K?2?O?$LF?M?$LD@
  00086	e8 00 00 00 00	 call	 ?AfxAssertFailedLine@@YGHPBDH@Z ; AfxAssertFailedLine
  0008b	85 c0		 test	 eax, eax
  0008d	74 01		 je	 SHORT $LN6@SetConnect
  0008f	cc		 int	 3
$LN6@SetConnect:

; 195  : 
; 196  :     // 变量定义
; 197  :     CString strUser;

  00090	8d 4d e0	 lea	 ecx, DWORD PTR _strUser$[ebp]
  00093	ff 15 00 00 00
	00		 call	 DWORD PTR __imp_??0?$CStringT@DV?$StrTraitMFC_DLL@DV?$ChTraitsCRT@D@ATL@@@@@ATL@@QAE@XZ
  00099	c7 45 fc 00 00
	00 00		 mov	 DWORD PTR __$EHRec$[ebp+8], 0

; 198  :     CString strDBName;

  000a0	8d 4d e4	 lea	 ecx, DWORD PTR _strDBName$[ebp]
  000a3	ff 15 00 00 00
	00		 call	 DWORD PTR __imp_??0?$CStringT@DV?$StrTraitMFC_DLL@DV?$ChTraitsCRT@D@ATL@@@@@ATL@@QAE@XZ
  000a9	c6 45 fc 01	 mov	 BYTE PTR __$EHRec$[ebp+8], 1

; 199  :     CString strPassword;

  000ad	8d 4d e8	 lea	 ecx, DWORD PTR _strPassword$[ebp]
  000b0	ff 15 00 00 00
	00		 call	 DWORD PTR __imp_??0?$CStringT@DV?$StrTraitMFC_DLL@DV?$ChTraitsCRT@D@ATL@@@@@ATL@@QAE@XZ
  000b6	c6 45 fc 02	 mov	 BYTE PTR __$EHRec$[ebp+8], 2

; 200  : 
; 201  :     // 字符转换
; 202  :     ConvertToSQLSyntax(szUser, strUser);

  000ba	8d 4d e0	 lea	 ecx, DWORD PTR _strUser$[ebp]
  000bd	51		 push	 ecx
  000be	8b 55 14	 mov	 edx, DWORD PTR _szUser$[ebp]
  000c1	52		 push	 edx
  000c2	8b 4d ec	 mov	 ecx, DWORD PTR _this$[ebp]
  000c5	e8 00 00 00 00	 call	 ?ConvertToSQLSyntax@CDataBase@@IAEXPBDAAV?$CStringT@DV?$StrTraitMFC_DLL@DV?$ChTraitsCRT@D@ATL@@@@@ATL@@@Z ; CDataBase::ConvertToSQLSyntax

; 203  :     ConvertToSQLSyntax(szDBName, strDBName);

  000ca	8d 45 e4	 lea	 eax, DWORD PTR _strDBName$[ebp]
  000cd	50		 push	 eax
  000ce	8b 4d 10	 mov	 ecx, DWORD PTR _szDBName$[ebp]
  000d1	51		 push	 ecx
  000d2	8b 4d ec	 mov	 ecx, DWORD PTR _this$[ebp]
  000d5	e8 00 00 00 00	 call	 ?ConvertToSQLSyntax@CDataBase@@IAEXPBDAAV?$CStringT@DV?$StrTraitMFC_DLL@DV?$ChTraitsCRT@D@ATL@@@@@ATL@@@Z ; CDataBase::ConvertToSQLSyntax

; 204  :     ConvertToSQLSyntax(szPassword, strPassword);

  000da	8d 55 e8	 lea	 edx, DWORD PTR _strPassword$[ebp]
  000dd	52		 push	 edx
  000de	8b 45 18	 mov	 eax, DWORD PTR _szPassword$[ebp]
  000e1	50		 push	 eax
  000e2	8b 4d ec	 mov	 ecx, DWORD PTR _this$[ebp]
  000e5	e8 00 00 00 00	 call	 ?ConvertToSQLSyntax@CDataBase@@IAEXPBDAAV?$CStringT@DV?$StrTraitMFC_DLL@DV?$ChTraitsCRT@D@ATL@@@@@ATL@@@Z ; CDataBase::ConvertToSQLSyntax

; 205  : 
; 206  :     // 构造连接
; 207  :     m_strConnect.Format(TEXT("Provider=SQLOLEDB.1;Password=%s;Persist Security Info=True;User ID=%s;Initial Catalog=%s;Data Source=%s,%ld;"),

  000ea	0f b7 4d 0c	 movzx	 ecx, WORD PTR _wPort$[ebp]
  000ee	51		 push	 ecx
  000ef	8b 55 08	 mov	 edx, DWORD PTR _szDBAddr$[ebp]
  000f2	52		 push	 edx
  000f3	8b 45 e4	 mov	 eax, DWORD PTR _strDBName$[ebp]
  000f6	50		 push	 eax
  000f7	8b 4d e0	 mov	 ecx, DWORD PTR _strUser$[ebp]
  000fa	51		 push	 ecx
  000fb	8b 55 e8	 mov	 edx, DWORD PTR _strPassword$[ebp]
  000fe	52		 push	 edx
  000ff	68 00 00 00 00	 push	 OFFSET ??_C@_0GN@FNOGLIHG@Provider?$DNSQLOLEDB?41?$DLPassword?$DN?$CFs@
  00104	8b 45 ec	 mov	 eax, DWORD PTR _this$[ebp]
  00107	83 c0 04	 add	 eax, 4
  0010a	50		 push	 eax
  0010b	ff 15 00 00 00
	00		 call	 DWORD PTR __imp_?Format@?$CStringT@DV?$StrTraitMFC_DLL@DV?$ChTraitsCRT@D@ATL@@@@@ATL@@QAAXPBDZZ
  00111	83 c4 1c	 add	 esp, 28			; 0000001cH

; 208  :         strPassword, strUser, strDBName, szDBAddr, wPort);
; 209  : 
; 210  :     return true;

  00114	c6 45 f3 01	 mov	 BYTE PTR $T2[ebp], 1
  00118	c6 45 fc 01	 mov	 BYTE PTR __$EHRec$[ebp+8], 1
  0011c	8d 4d e8	 lea	 ecx, DWORD PTR _strPassword$[ebp]
  0011f	ff 15 00 00 00
	00		 call	 DWORD PTR __imp_??1?$CStringT@DV?$StrTraitMFC_DLL@DV?$ChTraitsCRT@D@ATL@@@@@ATL@@QAE@XZ
  00125	c6 45 fc 00	 mov	 BYTE PTR __$EHRec$[ebp+8], 0
  00129	8d 4d e4	 lea	 ecx, DWORD PTR _strDBName$[ebp]
  0012c	ff 15 00 00 00
	00		 call	 DWORD PTR __imp_??1?$CStringT@DV?$StrTraitMFC_DLL@DV?$ChTraitsCRT@D@ATL@@@@@ATL@@QAE@XZ
  00132	c7 45 fc ff ff
	ff ff		 mov	 DWORD PTR __$EHRec$[ebp+8], -1
  00139	8d 4d e0	 lea	 ecx, DWORD PTR _strUser$[ebp]
  0013c	ff 15 00 00 00
	00		 call	 DWORD PTR __imp_??1?$CStringT@DV?$StrTraitMFC_DLL@DV?$ChTraitsCRT@D@ATL@@@@@ATL@@QAE@XZ
  00142	8a 45 f3	 mov	 al, BYTE PTR $T2[ebp]

; 211  : }

  00145	8b 4d f4	 mov	 ecx, DWORD PTR __$EHRec$[ebp]
  00148	64 89 0d 00 00
	00 00		 mov	 DWORD PTR fs:0, ecx
  0014f	59		 pop	 ecx
  00150	8b e5		 mov	 esp, ebp
  00152	5d		 pop	 ebp
  00153	c2 14 00	 ret	 20			; 00000014H
_TEXT	ENDS
;	COMDAT text$x
text$x	SEGMENT
__unwindfunclet$?SetConnectionInfo@CDataBase@@UAE_NPBDG000@Z$0:
  00000	8d 4d e0	 lea	 ecx, DWORD PTR _strUser$[ebp]
  00003	ff 25 00 00 00
	00		 jmp	 DWORD PTR __imp_??1?$CStringT@DV?$StrTraitMFC_DLL@DV?$ChTraitsCRT@D@ATL@@@@@ATL@@QAE@XZ
__unwindfunclet$?SetConnectionInfo@CDataBase@@UAE_NPBDG000@Z$1:
  00009	8d 4d e4	 lea	 ecx, DWORD PTR _strDBName$[ebp]
  0000c	ff 25 00 00 00
	00		 jmp	 DWORD PTR __imp_??1?$CStringT@DV?$StrTraitMFC_DLL@DV?$ChTraitsCRT@D@ATL@@@@@ATL@@QAE@XZ
__unwindfunclet$?SetConnectionInfo@CDataBase@@UAE_NPBDG000@Z$2:
  00012	8d 4d e8	 lea	 ecx, DWORD PTR _strPassword$[ebp]
  00015	ff 25 00 00 00
	00		 jmp	 DWORD PTR __imp_??1?$CStringT@DV?$StrTraitMFC_DLL@DV?$ChTraitsCRT@D@ATL@@@@@ATL@@QAE@XZ
__ehhandler$?SetConnectionInfo@CDataBase@@UAE_NPBDG000@Z:
  0001b	8b 54 24 08	 mov	 edx, DWORD PTR [esp+8]
  0001f	8d 42 0c	 lea	 eax, DWORD PTR [edx+12]
  00022	8b 4a e8	 mov	 ecx, DWORD PTR [edx-24]
  00025	33 c8		 xor	 ecx, eax
  00027	e8 00 00 00 00	 call	 @__security_check_cookie@4
  0002c	b8 00 00 00 00	 mov	 eax, OFFSET __ehfuncinfo$?SetConnectionInfo@CDataBase@@UAE_NPBDG000@Z
  00031	e9 00 00 00 00	 jmp	 ___CxxFrameHandler3
text$x	ENDS
?SetConnectionInfo@CDataBase@@UAE_NPBDG000@Z ENDP	; CDataBase::SetConnectionInfo
; Function compile flags: /Odtp
; File g:\网狐\happygamewh\服务端\系统模块\服务器组件\内核引擎\databaseengine.cpp
;	COMDAT ?SetConnectionInfo@CDataBase@@UAE_NKGPBD00@Z
_TEXT	SEGMENT
_strUser$ = -36						; size = 4
_strDBName$ = -32					; size = 4
_strPassword$ = -28					; size = 4
_this$ = -24						; size = 4
_pcbDBAddr$ = -20					; size = 4
$T2 = -13						; size = 1
__$EHRec$ = -12						; size = 12
_dwDBAddr$ = 8						; size = 4
_wPort$ = 12						; size = 2
_szDBName$ = 16						; size = 4
_szUser$ = 20						; size = 4
_szPassword$ = 24					; size = 4
?SetConnectionInfo@CDataBase@@UAE_NKGPBD00@Z PROC	; CDataBase::SetConnectionInfo, COMDAT
; _this$ = ecx

; 163  : {

  00000	55		 push	 ebp
  00001	8b ec		 mov	 ebp, esp
  00003	6a ff		 push	 -1
  00005	68 00 00 00 00	 push	 __ehhandler$?SetConnectionInfo@CDataBase@@UAE_NKGPBD00@Z
  0000a	64 a1 00 00 00
	00		 mov	 eax, DWORD PTR fs:0
  00010	50		 push	 eax
  00011	83 ec 18	 sub	 esp, 24			; 00000018H
  00014	a1 00 00 00 00	 mov	 eax, DWORD PTR ___security_cookie
  00019	33 c5		 xor	 eax, ebp
  0001b	50		 push	 eax
  0001c	8d 45 f4	 lea	 eax, DWORD PTR __$EHRec$[ebp]
  0001f	64 a3 00 00 00
	00		 mov	 DWORD PTR fs:0, eax
  00025	89 4d e8	 mov	 DWORD PTR _this$[ebp], ecx

; 164  :     // 效验参数 
; 165  :     ASSERT(szUser != NULL);

  00028	83 7d 14 00	 cmp	 DWORD PTR _szUser$[ebp], 0
  0002c	75 14		 jne	 SHORT $LN3@SetConnect
  0002e	68 a5 00 00 00	 push	 165			; 000000a5H
  00033	68 00 00 00 00	 push	 OFFSET ??_C@_0EL@CJALAN@g?3?2?M?x?$LK?$PM?2happygamewh?2?$LH?$PO?N?q?$LG?K?2?O?$LF?M?$LD@
  00038	e8 00 00 00 00	 call	 ?AfxAssertFailedLine@@YGHPBDH@Z ; AfxAssertFailedLine
  0003d	85 c0		 test	 eax, eax
  0003f	74 01		 je	 SHORT $LN3@SetConnect
  00041	cc		 int	 3
$LN3@SetConnect:

; 166  :     ASSERT(szDBName != NULL);

  00042	83 7d 10 00	 cmp	 DWORD PTR _szDBName$[ebp], 0
  00046	75 14		 jne	 SHORT $LN4@SetConnect
  00048	68 a6 00 00 00	 push	 166			; 000000a6H
  0004d	68 00 00 00 00	 push	 OFFSET ??_C@_0EL@CJALAN@g?3?2?M?x?$LK?$PM?2happygamewh?2?$LH?$PO?N?q?$LG?K?2?O?$LF?M?$LD@
  00052	e8 00 00 00 00	 call	 ?AfxAssertFailedLine@@YGHPBDH@Z ; AfxAssertFailedLine
  00057	85 c0		 test	 eax, eax
  00059	74 01		 je	 SHORT $LN4@SetConnect
  0005b	cc		 int	 3
$LN4@SetConnect:

; 167  :     ASSERT(szPassword != NULL);

  0005c	83 7d 18 00	 cmp	 DWORD PTR _szPassword$[ebp], 0
  00060	75 14		 jne	 SHORT $LN5@SetConnect
  00062	68 a7 00 00 00	 push	 167			; 000000a7H
  00067	68 00 00 00 00	 push	 OFFSET ??_C@_0EL@CJALAN@g?3?2?M?x?$LK?$PM?2happygamewh?2?$LH?$PO?N?q?$LG?K?2?O?$LF?M?$LD@
  0006c	e8 00 00 00 00	 call	 ?AfxAssertFailedLine@@YGHPBDH@Z ; AfxAssertFailedLine
  00071	85 c0		 test	 eax, eax
  00073	74 01		 je	 SHORT $LN5@SetConnect
  00075	cc		 int	 3
$LN5@SetConnect:

; 168  : 
; 169  :     // 变量定义
; 170  :     CString strUser;

  00076	8d 4d dc	 lea	 ecx, DWORD PTR _strUser$[ebp]
  00079	ff 15 00 00 00
	00		 call	 DWORD PTR __imp_??0?$CStringT@DV?$StrTraitMFC_DLL@DV?$ChTraitsCRT@D@ATL@@@@@ATL@@QAE@XZ
  0007f	c7 45 fc 00 00
	00 00		 mov	 DWORD PTR __$EHRec$[ebp+8], 0

; 171  :     CString strDBName;

  00086	8d 4d e0	 lea	 ecx, DWORD PTR _strDBName$[ebp]
  00089	ff 15 00 00 00
	00		 call	 DWORD PTR __imp_??0?$CStringT@DV?$StrTraitMFC_DLL@DV?$ChTraitsCRT@D@ATL@@@@@ATL@@QAE@XZ
  0008f	c6 45 fc 01	 mov	 BYTE PTR __$EHRec$[ebp+8], 1

; 172  :     CString strPassword;

  00093	8d 4d e4	 lea	 ecx, DWORD PTR _strPassword$[ebp]
  00096	ff 15 00 00 00
	00		 call	 DWORD PTR __imp_??0?$CStringT@DV?$StrTraitMFC_DLL@DV?$ChTraitsCRT@D@ATL@@@@@ATL@@QAE@XZ
  0009c	c6 45 fc 02	 mov	 BYTE PTR __$EHRec$[ebp+8], 2

; 173  : 
; 174  :     // 字符转换
; 175  :     ConvertToSQLSyntax(szUser, strUser);

  000a0	8d 45 dc	 lea	 eax, DWORD PTR _strUser$[ebp]
  000a3	50		 push	 eax
  000a4	8b 4d 14	 mov	 ecx, DWORD PTR _szUser$[ebp]
  000a7	51		 push	 ecx
  000a8	8b 4d e8	 mov	 ecx, DWORD PTR _this$[ebp]
  000ab	e8 00 00 00 00	 call	 ?ConvertToSQLSyntax@CDataBase@@IAEXPBDAAV?$CStringT@DV?$StrTraitMFC_DLL@DV?$ChTraitsCRT@D@ATL@@@@@ATL@@@Z ; CDataBase::ConvertToSQLSyntax

; 176  :     ConvertToSQLSyntax(szDBName, strDBName);

  000b0	8d 55 e0	 lea	 edx, DWORD PTR _strDBName$[ebp]
  000b3	52		 push	 edx
  000b4	8b 45 10	 mov	 eax, DWORD PTR _szDBName$[ebp]
  000b7	50		 push	 eax
  000b8	8b 4d e8	 mov	 ecx, DWORD PTR _this$[ebp]
  000bb	e8 00 00 00 00	 call	 ?ConvertToSQLSyntax@CDataBase@@IAEXPBDAAV?$CStringT@DV?$StrTraitMFC_DLL@DV?$ChTraitsCRT@D@ATL@@@@@ATL@@@Z ; CDataBase::ConvertToSQLSyntax

; 177  :     ConvertToSQLSyntax(szPassword, strPassword);

  000c0	8d 4d e4	 lea	 ecx, DWORD PTR _strPassword$[ebp]
  000c3	51		 push	 ecx
  000c4	8b 55 18	 mov	 edx, DWORD PTR _szPassword$[ebp]
  000c7	52		 push	 edx
  000c8	8b 4d e8	 mov	 ecx, DWORD PTR _this$[ebp]
  000cb	e8 00 00 00 00	 call	 ?ConvertToSQLSyntax@CDataBase@@IAEXPBDAAV?$CStringT@DV?$StrTraitMFC_DLL@DV?$ChTraitsCRT@D@ATL@@@@@ATL@@@Z ; CDataBase::ConvertToSQLSyntax

; 178  : 
; 179  :     // 构造连接
; 180  :     BYTE * pcbDBAddr = (BYTE *)&dwDBAddr;

  000d0	8d 45 08	 lea	 eax, DWORD PTR _dwDBAddr$[ebp]
  000d3	89 45 ec	 mov	 DWORD PTR _pcbDBAddr$[ebp], eax

; 181  :     m_strConnect.Format(TEXT("Provider=SQLOLEDB.1;Password=%s;Persist Security Info=True;User ID=%s;Initial Catalog=%s;Data Source=%d.%d.%d.%d,%ld;"),

  000d6	0f b7 4d 0c	 movzx	 ecx, WORD PTR _wPort$[ebp]
  000da	51		 push	 ecx
  000db	ba 01 00 00 00	 mov	 edx, 1
  000e0	6b c2 03	 imul	 eax, edx, 3
  000e3	8b 4d ec	 mov	 ecx, DWORD PTR _pcbDBAddr$[ebp]
  000e6	0f b6 14 01	 movzx	 edx, BYTE PTR [ecx+eax]
  000ea	52		 push	 edx
  000eb	b8 01 00 00 00	 mov	 eax, 1
  000f0	d1 e0		 shl	 eax, 1
  000f2	8b 4d ec	 mov	 ecx, DWORD PTR _pcbDBAddr$[ebp]
  000f5	0f b6 14 01	 movzx	 edx, BYTE PTR [ecx+eax]
  000f9	52		 push	 edx
  000fa	b8 01 00 00 00	 mov	 eax, 1
  000ff	c1 e0 00	 shl	 eax, 0
  00102	8b 4d ec	 mov	 ecx, DWORD PTR _pcbDBAddr$[ebp]
  00105	0f b6 14 01	 movzx	 edx, BYTE PTR [ecx+eax]
  00109	52		 push	 edx
  0010a	b8 01 00 00 00	 mov	 eax, 1
  0010f	6b c8 00	 imul	 ecx, eax, 0
  00112	8b 55 ec	 mov	 edx, DWORD PTR _pcbDBAddr$[ebp]
  00115	0f b6 04 0a	 movzx	 eax, BYTE PTR [edx+ecx]
  00119	50		 push	 eax
  0011a	8b 4d e0	 mov	 ecx, DWORD PTR _strDBName$[ebp]
  0011d	51		 push	 ecx
  0011e	8b 55 dc	 mov	 edx, DWORD PTR _strUser$[ebp]
  00121	52		 push	 edx
  00122	8b 45 e4	 mov	 eax, DWORD PTR _strPassword$[ebp]
  00125	50		 push	 eax
  00126	68 00 00 00 00	 push	 OFFSET ??_C@_0HG@LOMGLDLL@Provider?$DNSQLOLEDB?41?$DLPassword?$DN?$CFs@
  0012b	8b 4d e8	 mov	 ecx, DWORD PTR _this$[ebp]
  0012e	83 c1 04	 add	 ecx, 4
  00131	51		 push	 ecx
  00132	ff 15 00 00 00
	00		 call	 DWORD PTR __imp_?Format@?$CStringT@DV?$StrTraitMFC_DLL@DV?$ChTraitsCRT@D@ATL@@@@@ATL@@QAAXPBDZZ
  00138	83 c4 28	 add	 esp, 40			; 00000028H

; 182  :         strPassword, strUser, strDBName, pcbDBAddr[0], pcbDBAddr[1], pcbDBAddr[2], pcbDBAddr[3], wPort);
; 183  : 
; 184  :     return true;

  0013b	c6 45 f3 01	 mov	 BYTE PTR $T2[ebp], 1
  0013f	c6 45 fc 01	 mov	 BYTE PTR __$EHRec$[ebp+8], 1
  00143	8d 4d e4	 lea	 ecx, DWORD PTR _strPassword$[ebp]
  00146	ff 15 00 00 00
	00		 call	 DWORD PTR __imp_??1?$CStringT@DV?$StrTraitMFC_DLL@DV?$ChTraitsCRT@D@ATL@@@@@ATL@@QAE@XZ
  0014c	c6 45 fc 00	 mov	 BYTE PTR __$EHRec$[ebp+8], 0
  00150	8d 4d e0	 lea	 ecx, DWORD PTR _strDBName$[ebp]
  00153	ff 15 00 00 00
	00		 call	 DWORD PTR __imp_??1?$CStringT@DV?$StrTraitMFC_DLL@DV?$ChTraitsCRT@D@ATL@@@@@ATL@@QAE@XZ
  00159	c7 45 fc ff ff
	ff ff		 mov	 DWORD PTR __$EHRec$[ebp+8], -1
  00160	8d 4d dc	 lea	 ecx, DWORD PTR _strUser$[ebp]
  00163	ff 15 00 00 00
	00		 call	 DWORD PTR __imp_??1?$CStringT@DV?$StrTraitMFC_DLL@DV?$ChTraitsCRT@D@ATL@@@@@ATL@@QAE@XZ
  00169	8a 45 f3	 mov	 al, BYTE PTR $T2[ebp]

; 185  : }

  0016c	8b 4d f4	 mov	 ecx, DWORD PTR __$EHRec$[ebp]
  0016f	64 89 0d 00 00
	00 00		 mov	 DWORD PTR fs:0, ecx
  00176	59		 pop	 ecx
  00177	8b e5		 mov	 esp, ebp
  00179	5d		 pop	 ebp
  0017a	c2 14 00	 ret	 20			; 00000014H
_TEXT	ENDS
;	COMDAT text$x
text$x	SEGMENT
__unwindfunclet$?SetConnectionInfo@CDataBase@@UAE_NKGPBD00@Z$0:
  00000	8d 4d dc	 lea	 ecx, DWORD PTR _strUser$[ebp]
  00003	ff 25 00 00 00
	00		 jmp	 DWORD PTR __imp_??1?$CStringT@DV?$StrTraitMFC_DLL@DV?$ChTraitsCRT@D@ATL@@@@@ATL@@QAE@XZ
__unwindfunclet$?SetConnectionInfo@CDataBase@@UAE_NKGPBD00@Z$1:
  00009	8d 4d e0	 lea	 ecx, DWORD PTR _strDBName$[ebp]
  0000c	ff 25 00 00 00
	00		 jmp	 DWORD PTR __imp_??1?$CStringT@DV?$StrTraitMFC_DLL@DV?$ChTraitsCRT@D@ATL@@@@@ATL@@QAE@XZ
__unwindfunclet$?SetConnectionInfo@CDataBase@@UAE_NKGPBD00@Z$2:
  00012	8d 4d e4	 lea	 ecx, DWORD PTR _strPassword$[ebp]
  00015	ff 25 00 00 00
	00		 jmp	 DWORD PTR __imp_??1?$CStringT@DV?$StrTraitMFC_DLL@DV?$ChTraitsCRT@D@ATL@@@@@ATL@@QAE@XZ
__ehhandler$?SetConnectionInfo@CDataBase@@UAE_NKGPBD00@Z:
  0001b	8b 54 24 08	 mov	 edx, DWORD PTR [esp+8]
  0001f	8d 42 0c	 lea	 eax, DWORD PTR [edx+12]
  00022	8b 4a e4	 mov	 ecx, DWORD PTR [edx-28]
  00025	33 c8		 xor	 ecx, eax
  00027	e8 00 00 00 00	 call	 @__security_check_cookie@4
  0002c	b8 00 00 00 00	 mov	 eax, OFFSET __ehfuncinfo$?SetConnectionInfo@CDataBase@@UAE_NKGPBD00@Z
  00031	e9 00 00 00 00	 jmp	 ___CxxFrameHandler3
text$x	ENDS
?SetConnectionInfo@CDataBase@@UAE_NKGPBD00@Z ENDP	; CDataBase::SetConnectionInfo
; Function compile flags: /Odtp
; File g:\网狐\happygamewh\服务端\系统模块\服务器组件\内核引擎\databaseengine.cpp
; File c:\program files (x86)\microsoft visual studio\2017\community\vc\tools\msvc\14.16.27023\include\comip.h
; File g:\网狐\happygamewh\服务端\系统模块\服务器组件\内核引擎\databaseengine.cpp
; File c:\program files (x86)\microsoft visual studio\2017\community\vc\tools\msvc\14.16.27023\include\comip.h
; File g:\网狐\happygamewh\服务端\系统模块\服务器组件\内核引擎\databaseengine.cpp
; File c:\program files (x86)\microsoft visual studio\2017\community\vc\tools\msvc\14.16.27023\include\comip.h
; File g:\网狐\happygamewh\服务端\中间目录\内核引擎\debug_ansi\msado15.tli
; File g:\网狐\happygamewh\服务端\系统模块\服务器组件\内核引擎\databaseengine.cpp
;	COMDAT ?CloseConnection@CDataBase@@UAEXXZ
_TEXT	SEGMENT
_ComError$2 = -72					; size = 4
tv179 = -68						; size = 4
tv178 = -64						; size = 4
tv177 = -60						; size = 4
tv128 = -56						; size = 4
$T3 = -52						; size = 4
_this$ = -48						; size = 4
_this$ = -44						; size = 4
tv150 = -40						; size = 4
tv156 = -36						; size = 4
__hr$4 = -32						; size = 4
$T5 = -28						; size = 4
_this$ = -24						; size = 4
$T6 = -18						; size = 1
$T7 = -17						; size = 1
__$EHRec$ = -16						; size = 16
?CloseConnection@CDataBase@@UAEXXZ PROC			; CDataBase::CloseConnection, COMDAT
; _this$ = ecx

; 139  : {

  00000	55		 push	 ebp
  00001	8b ec		 mov	 ebp, esp
  00003	6a ff		 push	 -1
  00005	68 00 00 00 00	 push	 __ehhandler$?CloseConnection@CDataBase@@UAEXXZ
  0000a	64 a1 00 00 00
	00		 mov	 eax, DWORD PTR fs:0
  00010	50		 push	 eax
  00011	51		 push	 ecx
  00012	83 ec 38	 sub	 esp, 56			; 00000038H
  00015	53		 push	 ebx
  00016	56		 push	 esi
  00017	57		 push	 edi
  00018	a1 00 00 00 00	 mov	 eax, DWORD PTR ___security_cookie
  0001d	33 c5		 xor	 eax, ebp
  0001f	50		 push	 eax
  00020	8d 45 f4	 lea	 eax, DWORD PTR __$EHRec$[ebp+4]
  00023	64 a3 00 00 00
	00		 mov	 DWORD PTR fs:0, eax
  00029	89 65 f0	 mov	 DWORD PTR __$EHRec$[ebp], esp
  0002c	89 4d e8	 mov	 DWORD PTR _this$[ebp], ecx

; 140  :     try

  0002f	c7 45 fc 00 00
	00 00		 mov	 DWORD PTR __$EHRec$[ebp+12], 0

; 141  :     {
; 142  :         // 设置变量
; 143  :         m_dwConnectCount = 0L;

  00036	8b 45 e8	 mov	 eax, DWORD PTR _this$[ebp]
  00039	c7 40 18 00 00
	00 00		 mov	 DWORD PTR [eax+24], 0

; 144  :         m_dwConnectErrorTime = 0L;

  00040	8b 4d e8	 mov	 ecx, DWORD PTR _this$[ebp]
  00043	c7 41 1c 00 00
	00 00		 mov	 DWORD PTR [ecx+28], 0

; 145  : 
; 146  :         // 关闭连接
; 147  :         CloseRecordset();

  0004a	8b 55 e8	 mov	 edx, DWORD PTR _this$[ebp]
  0004d	8b 02		 mov	 eax, DWORD PTR [edx]
  0004f	8b 4d e8	 mov	 ecx, DWORD PTR _this$[ebp]
  00052	8b 50 28	 mov	 edx, DWORD PTR [eax+40]
  00055	ff d2		 call	 edx
; File c:\program files (x86)\microsoft visual studio\2017\community\vc\tools\msvc\14.16.27023\include\comip.h

; 478  :         if (null != 0) {

  00057	33 c0		 xor	 eax, eax
  00059	74 0a		 je	 SHORT $LN15@CloseConne

; 479  :             _com_issue_error(E_POINTER);

  0005b	68 03 40 00 80	 push	 -2147467261		; 80004003H
  00060	e8 00 00 00 00	 call	 ?_com_issue_error@@YGXJ@Z ; _com_issue_error
$LN15@CloseConne:
  00065	8b 4d e8	 mov	 ecx, DWORD PTR _this$[ebp]
  00068	83 79 30 00	 cmp	 DWORD PTR [ecx+48], 0
  0006c	75 09		 jne	 SHORT $LN17@CloseConne
  0006e	c7 45 dc 01 00
	00 00		 mov	 DWORD PTR tv156[ebp], 1
  00075	eb 07		 jmp	 SHORT $LN18@CloseConne
$LN17@CloseConne:
  00077	c7 45 dc 00 00
	00 00		 mov	 DWORD PTR tv156[ebp], 0
$LN18@CloseConne:
  0007e	8a 55 dc	 mov	 dl, BYTE PTR tv156[ebp]
  00081	88 55 ef	 mov	 BYTE PTR $T7[ebp], dl

; 503  :         return !(operator==(null));

  00084	0f b6 45 ef	 movzx	 eax, BYTE PTR $T7[ebp]
  00088	85 c0		 test	 eax, eax
  0008a	75 09		 jne	 SHORT $LN12@CloseConne
  0008c	c7 45 d8 01 00
	00 00		 mov	 DWORD PTR tv150[ebp], 1
  00093	eb 07		 jmp	 SHORT $LN13@CloseConne
$LN12@CloseConne:
  00095	c7 45 d8 00 00
	00 00		 mov	 DWORD PTR tv150[ebp], 0
$LN13@CloseConne:
  0009c	8a 4d d8	 mov	 cl, BYTE PTR tv150[ebp]
  0009f	88 4d ee	 mov	 BYTE PTR $T6[ebp], cl
; File g:\网狐\happygamewh\服务端\系统模块\服务器组件\内核引擎\databaseengine.cpp

; 148  :         if ((m_DBConnection != NULL) && (m_DBConnection->GetState() != adStateClosed))

  000a2	0f b6 55 ee	 movzx	 edx, BYTE PTR $T6[ebp]
  000a6	85 d2		 test	 edx, edx
  000a8	0f 84 ae 00 00
	00		 je	 $LN3@CloseConne
  000ae	8b 45 e8	 mov	 eax, DWORD PTR _this$[ebp]
  000b1	83 c0 30	 add	 eax, 48			; 00000030H
  000b4	89 45 d4	 mov	 DWORD PTR _this$[ebp], eax
; File c:\program files (x86)\microsoft visual studio\2017\community\vc\tools\msvc\14.16.27023\include\comip.h

; 428  :         if (m_pInterface == NULL) {

  000b7	8b 4d d4	 mov	 ecx, DWORD PTR _this$[ebp]
  000ba	83 39 00	 cmp	 DWORD PTR [ecx], 0
  000bd	75 0a		 jne	 SHORT $LN22@CloseConne

; 429  :             _com_issue_error(E_POINTER);

  000bf	68 03 40 00 80	 push	 -2147467261		; 80004003H
  000c4	e8 00 00 00 00	 call	 ?_com_issue_error@@YGXJ@Z ; _com_issue_error
$LN22@CloseConne:
  000c9	8b 55 d4	 mov	 edx, DWORD PTR _this$[ebp]
  000cc	8b 02		 mov	 eax, DWORD PTR [edx]
  000ce	89 45 cc	 mov	 DWORD PTR $T3[ebp], eax
; File g:\网狐\happygamewh\服务端\系统模块\服务器组件\内核引擎\databaseengine.cpp

; 148  :         if ((m_DBConnection != NULL) && (m_DBConnection->GetState() != adStateClosed))

  000d1	8b 4d cc	 mov	 ecx, DWORD PTR $T3[ebp]
  000d4	e8 00 00 00 00	 call	 ?GetState@Connection15@ADOCG@@QAEJXZ ; ADOCG::Connection15::GetState
  000d9	89 45 c8	 mov	 DWORD PTR tv128[ebp], eax
  000dc	83 7d c8 00	 cmp	 DWORD PTR tv128[ebp], 0
  000e0	74 7a		 je	 SHORT $LN3@CloseConne

; 150  :             EfficacyResult(m_DBConnection->Close());

  000e2	8b 4d e8	 mov	 ecx, DWORD PTR _this$[ebp]
  000e5	83 c1 30	 add	 ecx, 48			; 00000030H
  000e8	89 4d d0	 mov	 DWORD PTR _this$[ebp], ecx
; File c:\program files (x86)\microsoft visual studio\2017\community\vc\tools\msvc\14.16.27023\include\comip.h

; 428  :         if (m_pInterface == NULL) {

  000eb	8b 55 d0	 mov	 edx, DWORD PTR _this$[ebp]
  000ee	83 3a 00	 cmp	 DWORD PTR [edx], 0
  000f1	75 0a		 jne	 SHORT $LN28@CloseConne

; 429  :             _com_issue_error(E_POINTER);

  000f3	68 03 40 00 80	 push	 -2147467261		; 80004003H
  000f8	e8 00 00 00 00	 call	 ?_com_issue_error@@YGXJ@Z ; _com_issue_error
$LN28@CloseConne:
  000fd	8b 45 d0	 mov	 eax, DWORD PTR _this$[ebp]
  00100	8b 08		 mov	 ecx, DWORD PTR [eax]
  00102	89 4d e4	 mov	 DWORD PTR $T5[ebp], ecx
; File g:\网狐\happygamewh\服务端\中间目录\内核引擎\debug_ansi\msado15.tli

; 1237 :     HRESULT _hr = raw_Close();

  00105	8b 55 e4	 mov	 edx, DWORD PTR $T5[ebp]
  00108	52		 push	 edx
  00109	8b 45 e4	 mov	 eax, DWORD PTR $T5[ebp]
  0010c	8b 08		 mov	 ecx, DWORD PTR [eax]
  0010e	8b 51 3c	 mov	 edx, DWORD PTR [ecx+60]
  00111	ff d2		 call	 edx
  00113	89 45 c4	 mov	 DWORD PTR tv177[ebp], eax
  00116	8b 45 c4	 mov	 eax, DWORD PTR tv177[ebp]
  00119	89 45 e0	 mov	 DWORD PTR __hr$4[ebp], eax

; 1238 :     if (FAILED(_hr)) _com_issue_errorex(_hr, this, __uuidof(this));

  0011c	83 7d e0 00	 cmp	 DWORD PTR __hr$4[ebp], 0
  00120	7d 12		 jge	 SHORT $LN30@CloseConne
  00122	68 00 00 00 00	 push	 OFFSET __GUID_00000515_0000_0010_8000_00aa006d2ea4
  00127	8b 4d e4	 mov	 ecx, DWORD PTR $T5[ebp]
  0012a	51		 push	 ecx
  0012b	8b 55 e0	 mov	 edx, DWORD PTR __hr$4[ebp]
  0012e	52		 push	 edx
  0012f	e8 00 00 00 00	 call	 ?_com_issue_errorex@@YGXJPAUIUnknown@@ABU_GUID@@@Z ; _com_issue_errorex
$LN30@CloseConne:
; File g:\网狐\happygamewh\服务端\系统模块\服务器组件\内核引擎\databaseengine.cpp

; 150  :             EfficacyResult(m_DBConnection->Close());

  00134	83 7d e0 00	 cmp	 DWORD PTR __hr$4[ebp], 0
  00138	7d 22		 jge	 SHORT $LN3@CloseConne
  0013a	8b 4d e8	 mov	 ecx, DWORD PTR _this$[ebp]
  0013d	83 c1 30	 add	 ecx, 48			; 00000030H
  00140	e8 00 00 00 00	 call	 ??C?$_com_ptr_t@V?$_com_IIID@U_Connection@ADOCG@@$1?_GUID_00000550_0000_0010_8000_00aa006d2ea4@@3U__s_GUID@@B@@@@QBEPAU_Connection@ADOCG@@XZ ; _com_ptr_t<_com_IIID<ADOCG::_Connection,&_GUID_00000550_0000_0010_8000_00aa006d2ea4> >::operator->
  00145	89 45 c0	 mov	 DWORD PTR tv178[ebp], eax
  00148	8b 4d c0	 mov	 ecx, DWORD PTR tv178[ebp]
  0014b	e8 00 00 00 00	 call	 ?Close@Connection15@ADOCG@@QAEJXZ ; ADOCG::Connection15::Close
  00150	89 45 bc	 mov	 DWORD PTR tv179[ebp], eax
  00153	8b 45 bc	 mov	 eax, DWORD PTR tv179[ebp]
  00156	50		 push	 eax
  00157	e8 00 00 00 00	 call	 ?_com_issue_error@@YGXJ@Z ; _com_issue_error
$LN3@CloseConne:

; 151  :         }
; 152  :     }

  0015c	eb 14		 jmp	 SHORT $LN6@CloseConne
__catch$?CloseConnection@CDataBase@@UAEXXZ$0:

; 153  :     catch (CComError & ComError)
; 154  :     {
; 155  :         OnSQLException(SQLException_Syntax, &ComError);

  0015e	8b 4d b8	 mov	 ecx, DWORD PTR _ComError$2[ebp]
  00161	51		 push	 ecx
  00162	6a 02		 push	 2
  00164	8b 4d e8	 mov	 ecx, DWORD PTR _this$[ebp]
  00167	e8 00 00 00 00	 call	 ?OnSQLException@CDataBase@@IAEXW4enSQLException@@PAV_com_error@@@Z ; CDataBase::OnSQLException

; 156  :     }

  0016c	b8 00 00 00 00	 mov	 eax, $LN9@CloseConne
  00171	c3		 ret	 0
$LN6@CloseConne:
  00172	c7 45 fc ff ff
	ff ff		 mov	 DWORD PTR __$EHRec$[ebp+12], -1
  00179	eb 07		 jmp	 SHORT $LN20@CloseConne
$LN9@CloseConne:
; File g:\网狐\happygamewh\服务端\中间目录\内核引擎\debug_ansi\msado15.tli
  0017b	c7 45 fc ff ff
	ff ff		 mov	 DWORD PTR __$EHRec$[ebp+12], -1
$LN20@CloseConne:
; File g:\网狐\happygamewh\服务端\系统模块\服务器组件\内核引擎\databaseengine.cpp

; 157  : 
; 158  :     return;
; 159  : }

  00182	8b 4d f4	 mov	 ecx, DWORD PTR __$EHRec$[ebp+4]
  00185	64 89 0d 00 00
	00 00		 mov	 DWORD PTR fs:0, ecx
  0018c	59		 pop	 ecx
  0018d	5f		 pop	 edi
  0018e	5e		 pop	 esi
  0018f	5b		 pop	 ebx
  00190	8b e5		 mov	 esp, ebp
  00192	5d		 pop	 ebp
  00193	c3		 ret	 0
_TEXT	ENDS
;	COMDAT text$x
text$x	SEGMENT
__ehhandler$?CloseConnection@CDataBase@@UAEXXZ:
  00000	8b 54 24 08	 mov	 edx, DWORD PTR [esp+8]
  00004	8d 42 0c	 lea	 eax, DWORD PTR [edx+12]
  00007	8b 4a b4	 mov	 ecx, DWORD PTR [edx-76]
  0000a	33 c8		 xor	 ecx, eax
  0000c	e8 00 00 00 00	 call	 @__security_check_cookie@4
  00011	b8 00 00 00 00	 mov	 eax, OFFSET __ehfuncinfo$?CloseConnection@CDataBase@@UAEXXZ
  00016	e9 00 00 00 00	 jmp	 ___CxxFrameHandler3
text$x	ENDS
?CloseConnection@CDataBase@@UAEXXZ ENDP			; CDataBase::CloseConnection
; Function compile flags: /Odtp
; File g:\网狐\happygamewh\服务端\系统模块\服务器组件\内核引擎\databaseengine.cpp
; File c:\program files (x86)\microsoft visual studio\2017\community\vc\tools\msvc\14.16.27023\include\comip.h
; File g:\网狐\happygamewh\服务端\系统模块\服务器组件\内核引擎\databaseengine.cpp
; File c:\program files (x86)\microsoft visual studio\2017\community\vc\tools\msvc\14.16.27023\include\comip.h
; File g:\网狐\happygamewh\服务端\中间目录\内核引擎\debug_ansi\msado15.tli
; File c:\program files (x86)\microsoft visual studio\2017\community\vc\tools\msvc\14.16.27023\include\comip.h
; File g:\网狐\happygamewh\服务端\系统模块\服务器组件\内核引擎\databaseengine.cpp
; File c:\program files (x86)\microsoft visual studio\2017\community\vc\tools\msvc\14.16.27023\include\comip.h
; File g:\网狐\happygamewh\服务端\中间目录\内核引擎\debug_ansi\msado15.tli
; File g:\网狐\happygamewh\服务端\系统模块\服务器组件\内核引擎\databaseengine.cpp
; File c:\program files (x86)\windows kits\10\include\10.0.17763.0\ucrt\time.h
; File g:\网狐\happygamewh\服务端\系统模块\服务器组件\内核引擎\databaseengine.cpp
;	COMDAT ?OpenConnection@CDataBase@@UAEXXZ
_TEXT	SEGMENT
_ComError$2 = -128					; size = 4
tv291 = -124						; size = 4
$T3 = -120						; size = 4
tv333 = -116						; size = 4
$T4 = -112						; size = 4
tv337 = -108						; size = 4
$T5 = -104						; size = 4
tv340 = -100						; size = 4
$T6 = -96						; size = 4
tv300 = -92						; size = 4
$T7 = -88						; size = 4
tv245 = -84						; size = 4
$T8 = -80						; size = 4
tv331 = -76						; size = 4
$T9 = -72						; size = 4
tv332 = -68						; size = 4
tv169 = -64						; size = 4
tv335 = -60						; size = 4
tv79 = -56						; size = 4
$T10 = -52						; size = 4
__hr$11 = -48						; size = 4
_this$ = -44						; size = 4
__hr$12 = -40						; size = 4
_this$ = -36						; size = 4
_this$ = -32						; size = 4
$T13 = -28						; size = 4
$T14 = -24						; size = 4
_this$ = -20						; size = 4
__$EHRec$ = -16						; size = 16
?OpenConnection@CDataBase@@UAEXXZ PROC			; CDataBase::OpenConnection, COMDAT
; _this$ = ecx

; 107  : {

  00000	55		 push	 ebp
  00001	8b ec		 mov	 ebp, esp
  00003	6a ff		 push	 -1
  00005	68 00 00 00 00	 push	 __ehhandler$?OpenConnection@CDataBase@@UAEXXZ
  0000a	64 a1 00 00 00
	00		 mov	 eax, DWORD PTR fs:0
  00010	50		 push	 eax
  00011	51		 push	 ecx
  00012	83 ec 70	 sub	 esp, 112		; 00000070H
  00015	53		 push	 ebx
  00016	56		 push	 esi
  00017	57		 push	 edi
  00018	a1 00 00 00 00	 mov	 eax, DWORD PTR ___security_cookie
  0001d	33 c5		 xor	 eax, ebp
  0001f	50		 push	 eax
  00020	8d 45 f4	 lea	 eax, DWORD PTR __$EHRec$[ebp+4]
  00023	64 a3 00 00 00
	00		 mov	 DWORD PTR fs:0, eax
  00029	89 65 f0	 mov	 DWORD PTR __$EHRec$[ebp], esp
  0002c	89 4d ec	 mov	 DWORD PTR _this$[ebp], ecx

; 108  :     // 连接数据库
; 109  :     try

  0002f	c7 45 fc 00 00
	00 00		 mov	 DWORD PTR __$EHRec$[ebp+12], 0

; 110  :     {
; 111  :         // 关闭连接
; 112  :         CloseConnection();

  00036	8b 45 ec	 mov	 eax, DWORD PTR _this$[ebp]
  00039	8b 10		 mov	 edx, DWORD PTR [eax]
  0003b	8b 4d ec	 mov	 ecx, DWORD PTR _this$[ebp]
  0003e	8b 42 0c	 mov	 eax, DWORD PTR [edx+12]
  00041	ff d0		 call	 eax

; 115  :         EfficacyResult(m_DBConnection->Open(_bstr_t(m_strConnect), L"", L"", adConnectUnspecified));

  00043	6a ff		 push	 -1
  00045	51		 push	 ecx
  00046	8b cc		 mov	 ecx, esp
  00048	89 65 b0	 mov	 DWORD PTR $T8[ebp], esp
  0004b	68 00 00 00 00	 push	 OFFSET ??_C@_11LOCGONAA@@
  00050	e8 00 00 00 00	 call	 ??0_bstr_t@@QAE@PB_W@Z	; _bstr_t::_bstr_t
  00055	89 45 ac	 mov	 DWORD PTR tv245[ebp], eax
  00058	c6 45 fc 01	 mov	 BYTE PTR __$EHRec$[ebp+12], 1
  0005c	51		 push	 ecx
  0005d	8b cc		 mov	 ecx, esp
  0005f	89 65 a8	 mov	 DWORD PTR $T7[ebp], esp
  00062	68 00 00 00 00	 push	 OFFSET ??_C@_11LOCGONAA@@
  00067	e8 00 00 00 00	 call	 ??0_bstr_t@@QAE@PB_W@Z	; _bstr_t::_bstr_t
  0006c	89 45 a4	 mov	 DWORD PTR tv300[ebp], eax
  0006f	c6 45 fc 02	 mov	 BYTE PTR __$EHRec$[ebp+12], 2
  00073	51		 push	 ecx
  00074	8b f4		 mov	 esi, esp
  00076	89 65 a0	 mov	 DWORD PTR $T6[ebp], esp
  00079	8b 4d ec	 mov	 ecx, DWORD PTR _this$[ebp]
  0007c	83 c1 04	 add	 ecx, 4
  0007f	ff 15 00 00 00
	00		 call	 DWORD PTR __imp_??B?$CSimpleStringT@D$00@ATL@@QBEPBDXZ
  00085	50		 push	 eax
  00086	8b ce		 mov	 ecx, esi
  00088	e8 00 00 00 00	 call	 ??0_bstr_t@@QAE@PBD@Z	; _bstr_t::_bstr_t
  0008d	89 45 9c	 mov	 DWORD PTR tv340[ebp], eax
  00090	c6 45 fc 03	 mov	 BYTE PTR __$EHRec$[ebp+12], 3
  00094	8b 4d ec	 mov	 ecx, DWORD PTR _this$[ebp]
  00097	83 c1 30	 add	 ecx, 48			; 00000030H
  0009a	89 4d e0	 mov	 DWORD PTR _this$[ebp], ecx
; File c:\program files (x86)\microsoft visual studio\2017\community\vc\tools\msvc\14.16.27023\include\comip.h

; 428  :         if (m_pInterface == NULL) {

  0009d	8b 55 e0	 mov	 edx, DWORD PTR _this$[ebp]
  000a0	83 3a 00	 cmp	 DWORD PTR [edx], 0
  000a3	75 0a		 jne	 SHORT $LN50@OpenConnec

; 429  :             _com_issue_error(E_POINTER);

  000a5	68 03 40 00 80	 push	 -2147467261		; 80004003H
  000aa	e8 00 00 00 00	 call	 ?_com_issue_error@@YGXJ@Z ; _com_issue_error
$LN50@OpenConnec:
  000af	8b 45 e0	 mov	 eax, DWORD PTR _this$[ebp]
  000b2	8b 08		 mov	 ecx, DWORD PTR [eax]
  000b4	89 4d cc	 mov	 DWORD PTR $T10[ebp], ecx
; File g:\网狐\happygamewh\服务端\系统模块\服务器组件\内核引擎\databaseengine.cpp

; 115  :         EfficacyResult(m_DBConnection->Open(_bstr_t(m_strConnect), L"", L"", adConnectUnspecified));

  000b7	c6 45 fc 00	 mov	 BYTE PTR __$EHRec$[ebp+12], 0
  000bb	8b 4d cc	 mov	 ecx, DWORD PTR $T10[ebp]
  000be	e8 00 00 00 00	 call	 ?Open@Connection15@ADOCG@@QAEJV_bstr_t@@00J@Z ; ADOCG::Connection15::Open
  000c3	89 45 c8	 mov	 DWORD PTR tv79[ebp], eax
  000c6	83 7d c8 00	 cmp	 DWORD PTR tv79[ebp], 0
  000ca	7d 77		 jge	 SHORT $LN3@OpenConnec
  000cc	6a ff		 push	 -1
  000ce	51		 push	 ecx
  000cf	8b cc		 mov	 ecx, esp
  000d1	89 65 98	 mov	 DWORD PTR $T5[ebp], esp
  000d4	68 00 00 00 00	 push	 OFFSET ??_C@_11LOCGONAA@@
  000d9	e8 00 00 00 00	 call	 ??0_bstr_t@@QAE@PB_W@Z	; _bstr_t::_bstr_t
  000de	89 45 94	 mov	 DWORD PTR tv337[ebp], eax
  000e1	c6 45 fc 04	 mov	 BYTE PTR __$EHRec$[ebp+12], 4
  000e5	51		 push	 ecx
  000e6	8b cc		 mov	 ecx, esp
  000e8	89 65 90	 mov	 DWORD PTR $T4[ebp], esp
  000eb	68 00 00 00 00	 push	 OFFSET ??_C@_11LOCGONAA@@
  000f0	e8 00 00 00 00	 call	 ??0_bstr_t@@QAE@PB_W@Z	; _bstr_t::_bstr_t
  000f5	89 45 8c	 mov	 DWORD PTR tv333[ebp], eax
  000f8	c6 45 fc 05	 mov	 BYTE PTR __$EHRec$[ebp+12], 5
  000fc	51		 push	 ecx
  000fd	8b f4		 mov	 esi, esp
  000ff	89 65 88	 mov	 DWORD PTR $T3[ebp], esp
  00102	8b 4d ec	 mov	 ecx, DWORD PTR _this$[ebp]
  00105	83 c1 04	 add	 ecx, 4
  00108	ff 15 00 00 00
	00		 call	 DWORD PTR __imp_??B?$CSimpleStringT@D$00@ATL@@QBEPBDXZ
  0010e	50		 push	 eax
  0010f	8b ce		 mov	 ecx, esi
  00111	e8 00 00 00 00	 call	 ??0_bstr_t@@QAE@PBD@Z	; _bstr_t::_bstr_t
  00116	89 45 84	 mov	 DWORD PTR tv291[ebp], eax
  00119	c6 45 fc 06	 mov	 BYTE PTR __$EHRec$[ebp+12], 6
  0011d	8b 4d ec	 mov	 ecx, DWORD PTR _this$[ebp]
  00120	83 c1 30	 add	 ecx, 48			; 00000030H
  00123	e8 00 00 00 00	 call	 ??C?$_com_ptr_t@V?$_com_IIID@U_Connection@ADOCG@@$1?_GUID_00000550_0000_0010_8000_00aa006d2ea4@@3U__s_GUID@@B@@@@QBEPAU_Connection@ADOCG@@XZ ; _com_ptr_t<_com_IIID<ADOCG::_Connection,&_GUID_00000550_0000_0010_8000_00aa006d2ea4> >::operator->
  00128	89 45 c4	 mov	 DWORD PTR tv335[ebp], eax
  0012b	c6 45 fc 00	 mov	 BYTE PTR __$EHRec$[ebp+12], 0
  0012f	8b 4d c4	 mov	 ecx, DWORD PTR tv335[ebp]
  00132	e8 00 00 00 00	 call	 ?Open@Connection15@ADOCG@@QAEJV_bstr_t@@00J@Z ; ADOCG::Connection15::Open
  00137	89 45 c0	 mov	 DWORD PTR tv169[ebp], eax
  0013a	8b 55 c0	 mov	 edx, DWORD PTR tv169[ebp]
  0013d	52		 push	 edx
  0013e	e8 00 00 00 00	 call	 ?_com_issue_error@@YGXJ@Z ; _com_issue_error
$LN3@OpenConnec:

; 116  : 
; 117  :         // 设置对象
; 118  :         m_DBConnection->CursorLocation = adUseClient;

  00143	8b 45 ec	 mov	 eax, DWORD PTR _this$[ebp]
  00146	83 c0 30	 add	 eax, 48			; 00000030H
  00149	89 45 dc	 mov	 DWORD PTR _this$[ebp], eax
; File c:\program files (x86)\microsoft visual studio\2017\community\vc\tools\msvc\14.16.27023\include\comip.h

; 428  :         if (m_pInterface == NULL) {

  0014c	8b 4d dc	 mov	 ecx, DWORD PTR _this$[ebp]
  0014f	83 39 00	 cmp	 DWORD PTR [ecx], 0
  00152	75 0a		 jne	 SHORT $LN113@OpenConnec

; 429  :             _com_issue_error(E_POINTER);

  00154	68 03 40 00 80	 push	 -2147467261		; 80004003H
  00159	e8 00 00 00 00	 call	 ?_com_issue_error@@YGXJ@Z ; _com_issue_error
$LN113@OpenConnec:
  0015e	8b 55 dc	 mov	 edx, DWORD PTR _this$[ebp]
  00161	8b 02		 mov	 eax, DWORD PTR [edx]
  00163	89 45 e8	 mov	 DWORD PTR $T14[ebp], eax
; File g:\网狐\happygamewh\服务端\中间目录\内核引擎\debug_ansi\msado15.tli

; 1325 :     HRESULT _hr = put_CursorLocation(plCursorLoc);

  00166	6a 03		 push	 3
  00168	8b 4d e8	 mov	 ecx, DWORD PTR $T14[ebp]
  0016b	51		 push	 ecx
  0016c	8b 55 e8	 mov	 edx, DWORD PTR $T14[ebp]
  0016f	8b 02		 mov	 eax, DWORD PTR [edx]
  00171	8b 48 74	 mov	 ecx, DWORD PTR [eax+116]
  00174	ff d1		 call	 ecx
  00176	89 45 bc	 mov	 DWORD PTR tv332[ebp], eax
  00179	8b 55 bc	 mov	 edx, DWORD PTR tv332[ebp]
  0017c	89 55 d8	 mov	 DWORD PTR __hr$12[ebp], edx

; 1326 :     if (FAILED(_hr)) _com_issue_errorex(_hr, this, __uuidof(this));

  0017f	83 7d d8 00	 cmp	 DWORD PTR __hr$12[ebp], 0
  00183	7d 12		 jge	 SHORT $LN115@OpenConnec
  00185	68 00 00 00 00	 push	 OFFSET __GUID_00000515_0000_0010_8000_00aa006d2ea4
  0018a	8b 45 e8	 mov	 eax, DWORD PTR $T14[ebp]
  0018d	50		 push	 eax
  0018e	8b 4d d8	 mov	 ecx, DWORD PTR __hr$12[ebp]
  00191	51		 push	 ecx
  00192	e8 00 00 00 00	 call	 ?_com_issue_errorex@@YGXJPAUIUnknown@@ABU_GUID@@@Z ; _com_issue_errorex
$LN115@OpenConnec:
; File c:\program files (x86)\microsoft visual studio\2017\community\vc\tools\msvc\14.16.27023\include\comip.h

; 385  :         return m_pInterface;

  00197	8b 55 ec	 mov	 edx, DWORD PTR _this$[ebp]
  0019a	8b 42 30	 mov	 eax, DWORD PTR [edx+48]
  0019d	89 45 b8	 mov	 DWORD PTR $T9[ebp], eax
; File g:\网狐\happygamewh\服务端\系统模块\服务器组件\内核引擎\databaseengine.cpp

; 119  :         m_DBCommand->ActiveConnection = m_DBConnection;

  001a0	8b 4d ec	 mov	 ecx, DWORD PTR _this$[ebp]
  001a3	83 c1 28	 add	 ecx, 40			; 00000028H
  001a6	89 4d d4	 mov	 DWORD PTR _this$[ebp], ecx
; File c:\program files (x86)\microsoft visual studio\2017\community\vc\tools\msvc\14.16.27023\include\comip.h

; 428  :         if (m_pInterface == NULL) {

  001a9	8b 55 d4	 mov	 edx, DWORD PTR _this$[ebp]
  001ac	83 3a 00	 cmp	 DWORD PTR [edx], 0
  001af	75 0a		 jne	 SHORT $LN121@OpenConnec

; 429  :             _com_issue_error(E_POINTER);

  001b1	68 03 40 00 80	 push	 -2147467261		; 80004003H
  001b6	e8 00 00 00 00	 call	 ?_com_issue_error@@YGXJ@Z ; _com_issue_error
$LN121@OpenConnec:
  001bb	8b 45 d4	 mov	 eax, DWORD PTR _this$[ebp]
  001be	8b 08		 mov	 ecx, DWORD PTR [eax]
  001c0	89 4d e4	 mov	 DWORD PTR $T13[ebp], ecx
; File g:\网狐\happygamewh\服务端\中间目录\内核引擎\debug_ansi\msado15.tli

; 1041 :     HRESULT _hr = putref_ActiveConnection(ppvObject);

  001c3	8b 55 b8	 mov	 edx, DWORD PTR $T9[ebp]
  001c6	52		 push	 edx
  001c7	8b 45 e4	 mov	 eax, DWORD PTR $T13[ebp]
  001ca	50		 push	 eax
  001cb	8b 4d e4	 mov	 ecx, DWORD PTR $T13[ebp]
  001ce	8b 11		 mov	 edx, DWORD PTR [ecx]
  001d0	8b 42 24	 mov	 eax, DWORD PTR [edx+36]
  001d3	ff d0		 call	 eax
  001d5	89 45 b4	 mov	 DWORD PTR tv331[ebp], eax
  001d8	8b 4d b4	 mov	 ecx, DWORD PTR tv331[ebp]
  001db	89 4d d0	 mov	 DWORD PTR __hr$11[ebp], ecx

; 1042 :     if (FAILED(_hr)) _com_issue_errorex(_hr, this, __uuidof(this));

  001de	83 7d d0 00	 cmp	 DWORD PTR __hr$11[ebp], 0
  001e2	7d 12		 jge	 SHORT $LN123@OpenConnec
  001e4	68 00 00 00 00	 push	 OFFSET __GUID_00000508_0000_0010_8000_00aa006d2ea4
  001e9	8b 55 e4	 mov	 edx, DWORD PTR $T13[ebp]
  001ec	52		 push	 edx
  001ed	8b 45 d0	 mov	 eax, DWORD PTR __hr$11[ebp]
  001f0	50		 push	 eax
  001f1	e8 00 00 00 00	 call	 ?_com_issue_errorex@@YGXJPAUIUnknown@@ABU_GUID@@@Z ; _com_issue_errorex
$LN123@OpenConnec:
; File g:\网狐\happygamewh\服务端\系统模块\服务器组件\内核引擎\databaseengine.cpp

; 121  : 		m_dwConnectCount=0L;

  001f6	8b 4d ec	 mov	 ecx, DWORD PTR _this$[ebp]
  001f9	c7 41 18 00 00
	00 00		 mov	 DWORD PTR [ecx+24], 0

; 122  : 		m_dwConnectErrorTime=0L;

  00200	8b 55 ec	 mov	 edx, DWORD PTR _this$[ebp]
  00203	c7 42 1c 00 00
	00 00		 mov	 DWORD PTR [edx+28], 0

; 123  :     }

  0020a	eb 2f		 jmp	 SHORT $LN5@OpenConnec
__catch$?OpenConnection@CDataBase@@UAEXXZ$0:

; 124  :     catch (CComError & ComError)
; 125  :     {
; 126  :         // 设置变量
; 127  :         m_dwConnectCount = 0L;

  0020c	8b 45 ec	 mov	 eax, DWORD PTR _this$[ebp]
  0020f	c7 40 18 00 00
	00 00		 mov	 DWORD PTR [eax+24], 0
; File c:\program files (x86)\windows kits\10\include\10.0.17763.0\ucrt\time.h

; 536  :             return _time64(_Time);

  00216	6a 00		 push	 0
  00218	ff 15 00 00 00
	00		 call	 DWORD PTR __imp___time64
  0021e	83 c4 04	 add	 esp, 4
; File g:\网狐\happygamewh\服务端\系统模块\服务器组件\内核引擎\databaseengine.cpp

; 128  :         m_dwConnectErrorTime = (DWORD)time(NULL);

  00221	8b 4d ec	 mov	 ecx, DWORD PTR _this$[ebp]
  00224	89 41 1c	 mov	 DWORD PTR [ecx+28], eax

; 129  : 
; 130  :         // 抛出异常
; 131  :         OnSQLException(SQLException_Connect, &ComError);

  00227	8b 55 80	 mov	 edx, DWORD PTR _ComError$2[ebp]
  0022a	52		 push	 edx
  0022b	6a 01		 push	 1
  0022d	8b 4d ec	 mov	 ecx, DWORD PTR _this$[ebp]
  00230	e8 00 00 00 00	 call	 ?OnSQLException@CDataBase@@IAEXW4enSQLException@@PAV_com_error@@@Z ; CDataBase::OnSQLException

; 132  :     }

  00235	b8 00 00 00 00	 mov	 eax, $LN14@OpenConnec
  0023a	c3		 ret	 0
$LN5@OpenConnec:
  0023b	c7 45 fc ff ff
	ff ff		 mov	 DWORD PTR __$EHRec$[ebp+12], -1
  00242	eb 07		 jmp	 SHORT $LN52@OpenConnec
$LN14@OpenConnec:
; File c:\program files (x86)\windows kits\10\include\10.0.17763.0\ucrt\time.h
  00244	c7 45 fc ff ff
	ff ff		 mov	 DWORD PTR __$EHRec$[ebp+12], -1
$LN52@OpenConnec:
; File g:\网狐\happygamewh\服务端\系统模块\服务器组件\内核引擎\databaseengine.cpp

; 133  : 
; 134  :     return;
; 135  : }

  0024b	8b 4d f4	 mov	 ecx, DWORD PTR __$EHRec$[ebp+4]
  0024e	64 89 0d 00 00
	00 00		 mov	 DWORD PTR fs:0, ecx
  00255	59		 pop	 ecx
  00256	5f		 pop	 edi
  00257	5e		 pop	 esi
  00258	5b		 pop	 ebx
  00259	8b e5		 mov	 esp, ebp
  0025b	5d		 pop	 ebp
  0025c	c3		 ret	 0
_TEXT	ENDS
;	COMDAT text$x
text$x	SEGMENT
__unwindfunclet$?OpenConnection@CDataBase@@UAEXXZ$2:
  00000	8b 4d b0	 mov	 ecx, DWORD PTR $T8[ebp]
  00003	e9 00 00 00 00	 jmp	 ??1_bstr_t@@QAE@XZ	; _bstr_t::~_bstr_t
__unwindfunclet$?OpenConnection@CDataBase@@UAEXXZ$3:
  00008	8b 4d a8	 mov	 ecx, DWORD PTR $T7[ebp]
  0000b	e9 00 00 00 00	 jmp	 ??1_bstr_t@@QAE@XZ	; _bstr_t::~_bstr_t
__unwindfunclet$?OpenConnection@CDataBase@@UAEXXZ$4:
  00010	8b 4d a0	 mov	 ecx, DWORD PTR $T6[ebp]
  00013	e9 00 00 00 00	 jmp	 ??1_bstr_t@@QAE@XZ	; _bstr_t::~_bstr_t
__unwindfunclet$?OpenConnection@CDataBase@@UAEXXZ$5:
  00018	8b 4d 98	 mov	 ecx, DWORD PTR $T5[ebp]
  0001b	e9 00 00 00 00	 jmp	 ??1_bstr_t@@QAE@XZ	; _bstr_t::~_bstr_t
__unwindfunclet$?OpenConnection@CDataBase@@UAEXXZ$6:
  00020	8b 4d 90	 mov	 ecx, DWORD PTR $T4[ebp]
  00023	e9 00 00 00 00	 jmp	 ??1_bstr_t@@QAE@XZ	; _bstr_t::~_bstr_t
__unwindfunclet$?OpenConnection@CDataBase@@UAEXXZ$7:
  00028	8b 4d 88	 mov	 ecx, DWORD PTR $T3[ebp]
  0002b	e9 00 00 00 00	 jmp	 ??1_bstr_t@@QAE@XZ	; _bstr_t::~_bstr_t
__ehhandler$?OpenConnection@CDataBase@@UAEXXZ:
  00030	8b 54 24 08	 mov	 edx, DWORD PTR [esp+8]
  00034	8d 42 0c	 lea	 eax, DWORD PTR [edx+12]
  00037	8b 8a 7c ff ff
	ff		 mov	 ecx, DWORD PTR [edx-132]
  0003d	33 c8		 xor	 ecx, eax
  0003f	e8 00 00 00 00	 call	 @__security_check_cookie@4
  00044	b8 00 00 00 00	 mov	 eax, OFFSET __ehfuncinfo$?OpenConnection@CDataBase@@UAEXXZ
  00049	e9 00 00 00 00	 jmp	 ___CxxFrameHandler3
text$x	ENDS
?OpenConnection@CDataBase@@UAEXXZ ENDP			; CDataBase::OpenConnection
; Function compile flags: /Odtp
; File g:\网狐\happygamewh\服务端\系统模块\服务器组件\内核引擎\databaseengine.cpp
; File c:\program files (x86)\windows kits\10\include\10.0.17763.0\shared\guiddef.h
; File g:\网狐\happygamewh\服务端\系统模块\服务器组件\内核引擎\databaseengine.cpp
; File c:\program files (x86)\windows kits\10\include\10.0.17763.0\shared\guiddef.h
; File g:\网狐\happygamewh\服务端\系统模块\服务器组件\内核引擎\databaseengine.cpp
;	COMDAT ?QueryInterface@CDataBase@@UAEPAXABU_GUID@@K@Z
_TEXT	SEGMENT
tv171 = -28						; size = 4
tv138 = -24						; size = 4
_this$ = -20						; size = 4
tv159 = -16						; size = 4
tv170 = -12						; size = 4
tv132 = -8						; size = 4
tv140 = -4						; size = 4
_Guid$ = 8						; size = 4
_dwQueryVer$ = 12					; size = 4
?QueryInterface@CDataBase@@UAEPAXABU_GUID@@K@Z PROC	; CDataBase::QueryInterface, COMDAT
; _this$ = ecx

; 99   : {

  00000	55		 push	 ebp
  00001	8b ec		 mov	 ebp, esp
  00003	83 ec 1c	 sub	 esp, 28			; 0000001cH
  00006	89 4d ec	 mov	 DWORD PTR _this$[ebp], ecx
; File c:\program files (x86)\windows kits\10\include\10.0.17763.0\shared\guiddef.h

; 161  :     return !memcmp(&rguid1, &rguid2, sizeof(GUID));

  00009	6a 10		 push	 16			; 00000010H
  0000b	68 00 00 00 00	 push	 OFFSET ?IID_IDataBase@@3U_GUID@@B
  00010	8b 45 08	 mov	 eax, DWORD PTR _Guid$[ebp]
  00013	50		 push	 eax
  00014	e8 00 00 00 00	 call	 _memcmp
  00019	83 c4 0c	 add	 esp, 12			; 0000000cH
  0001c	89 45 e8	 mov	 DWORD PTR tv138[ebp], eax
  0001f	83 7d e8 00	 cmp	 DWORD PTR tv138[ebp], 0
  00023	75 09		 jne	 SHORT $LN11@QueryInter
  00025	c7 45 fc 01 00
	00 00		 mov	 DWORD PTR tv140[ebp], 1
  0002c	eb 07		 jmp	 SHORT $LN9@QueryInter
$LN11@QueryInter:
  0002e	c7 45 fc 00 00
	00 00		 mov	 DWORD PTR tv140[ebp], 0
$LN9@QueryInter:

; 194  :     return !!IsEqualGUID(guidOne,guidOther);

  00035	83 7d fc 00	 cmp	 DWORD PTR tv140[ebp], 0
  00039	74 09		 je	 SHORT $LN7@QueryInter
  0003b	c7 45 f8 01 00
	00 00		 mov	 DWORD PTR tv132[ebp], 1
  00042	eb 07		 jmp	 SHORT $LN5@QueryInter
$LN7@QueryInter:
  00044	c7 45 f8 00 00
	00 00		 mov	 DWORD PTR tv132[ebp], 0
$LN5@QueryInter:
; File g:\网狐\happygamewh\服务端\系统模块\服务器组件\内核引擎\databaseengine.cpp

; 100  :     QUERYINTERFACE(IDataBase, Guid, dwQueryVer);

  0004b	0f b6 4d f8	 movzx	 ecx, BYTE PTR tv132[ebp]
  0004f	85 c9		 test	 ecx, ecx
  00051	74 1d		 je	 SHORT $LN2@QueryInter
  00053	68 00 01 01 06	 push	 100729088		; 06010100H
  00058	8b 55 0c	 mov	 edx, DWORD PTR _dwQueryVer$[ebp]
  0005b	52		 push	 edx
  0005c	e8 00 00 00 00	 call	 ?InterfaceVersionCompare@@YA_NKK@Z ; InterfaceVersionCompare
  00061	83 c4 08	 add	 esp, 8
  00064	0f b6 c0	 movzx	 eax, al
  00067	85 c0		 test	 eax, eax
  00069	74 05		 je	 SHORT $LN2@QueryInter
  0006b	8b 45 ec	 mov	 eax, DWORD PTR _this$[ebp]
  0006e	eb 69		 jmp	 SHORT $LN1@QueryInter
$LN2@QueryInter:
; File c:\program files (x86)\windows kits\10\include\10.0.17763.0\shared\guiddef.h

; 161  :     return !memcmp(&rguid1, &rguid2, sizeof(GUID));

  00070	6a 10		 push	 16			; 00000010H
  00072	68 00 00 00 00	 push	 OFFSET ?IID_IUnknownEx@@3U_GUID@@B
  00077	8b 4d 08	 mov	 ecx, DWORD PTR _Guid$[ebp]
  0007a	51		 push	 ecx
  0007b	e8 00 00 00 00	 call	 _memcmp
  00080	83 c4 0c	 add	 esp, 12			; 0000000cH
  00083	89 45 e4	 mov	 DWORD PTR tv171[ebp], eax
  00086	83 7d e4 00	 cmp	 DWORD PTR tv171[ebp], 0
  0008a	75 09		 jne	 SHORT $LN41@QueryInter
  0008c	c7 45 f4 01 00
	00 00		 mov	 DWORD PTR tv170[ebp], 1
  00093	eb 07		 jmp	 SHORT $LN39@QueryInter
$LN41@QueryInter:
  00095	c7 45 f4 00 00
	00 00		 mov	 DWORD PTR tv170[ebp], 0
$LN39@QueryInter:

; 194  :     return !!IsEqualGUID(guidOne,guidOther);

  0009c	83 7d f4 00	 cmp	 DWORD PTR tv170[ebp], 0
  000a0	74 09		 je	 SHORT $LN37@QueryInter
  000a2	c7 45 f0 01 00
	00 00		 mov	 DWORD PTR tv159[ebp], 1
  000a9	eb 07		 jmp	 SHORT $LN35@QueryInter
$LN37@QueryInter:
  000ab	c7 45 f0 00 00
	00 00		 mov	 DWORD PTR tv159[ebp], 0
$LN35@QueryInter:
; File g:\网狐\happygamewh\服务端\系统模块\服务器组件\内核引擎\databaseengine.cpp

; 101  :     QUERYINTERFACE_IUNKNOWNEX(IDataBase, Guid, dwQueryVer);

  000b2	0f b6 55 f0	 movzx	 edx, BYTE PTR tv159[ebp]
  000b6	85 d2		 test	 edx, edx
  000b8	74 1d		 je	 SHORT $LN3@QueryInter
  000ba	68 00 01 01 06	 push	 100729088		; 06010100H
  000bf	8b 45 0c	 mov	 eax, DWORD PTR _dwQueryVer$[ebp]
  000c2	50		 push	 eax
  000c3	e8 00 00 00 00	 call	 ?InterfaceVersionCompare@@YA_NKK@Z ; InterfaceVersionCompare
  000c8	83 c4 08	 add	 esp, 8
  000cb	0f b6 c8	 movzx	 ecx, al
  000ce	85 c9		 test	 ecx, ecx
  000d0	74 05		 je	 SHORT $LN3@QueryInter
  000d2	8b 45 ec	 mov	 eax, DWORD PTR _this$[ebp]
  000d5	eb 02		 jmp	 SHORT $LN1@QueryInter
$LN3@QueryInter:

; 102  :     return NULL;

  000d7	33 c0		 xor	 eax, eax
$LN1@QueryInter:

; 103  : }

  000d9	8b e5		 mov	 esp, ebp
  000db	5d		 pop	 ebp
  000dc	c2 08 00	 ret	 8
?QueryInterface@CDataBase@@UAEPAXABU_GUID@@K@Z ENDP	; CDataBase::QueryInterface
_TEXT	ENDS
; Function compile flags: /Odtp
; File g:\网狐\happygamewh\服务端\系统模块\服务器组件\内核引擎\databaseengine.h
;	COMDAT ?Release@CDataBase@@UAEXXZ
_TEXT	SEGMENT
tv70 = -16						; size = 4
$T1 = -12						; size = 4
_this$ = -8						; size = 4
$T2 = -4						; size = 4
?Release@CDataBase@@UAEXXZ PROC				; CDataBase::Release, COMDAT
; _this$ = ecx

; 82   :     virtual VOID Release() { delete this; }

  00000	55		 push	 ebp
  00001	8b ec		 mov	 ebp, esp
  00003	83 ec 10	 sub	 esp, 16			; 00000010H
  00006	89 4d f8	 mov	 DWORD PTR _this$[ebp], ecx
  00009	8b 45 f8	 mov	 eax, DWORD PTR _this$[ebp]
  0000c	89 45 f4	 mov	 DWORD PTR $T1[ebp], eax
  0000f	8b 4d f4	 mov	 ecx, DWORD PTR $T1[ebp]
  00012	89 4d fc	 mov	 DWORD PTR $T2[ebp], ecx
  00015	83 7d fc 00	 cmp	 DWORD PTR $T2[ebp], 0
  00019	74 14		 je	 SHORT $LN3@Release
  0001b	6a 01		 push	 1
  0001d	8b 55 fc	 mov	 edx, DWORD PTR $T2[ebp]
  00020	8b 02		 mov	 eax, DWORD PTR [edx]
  00022	8b 4d fc	 mov	 ecx, DWORD PTR $T2[ebp]
  00025	8b 50 50	 mov	 edx, DWORD PTR [eax+80]
  00028	ff d2		 call	 edx
  0002a	89 45 f0	 mov	 DWORD PTR tv70[ebp], eax
  0002d	eb 07		 jmp	 SHORT $LN1@Release
$LN3@Release:
  0002f	c7 45 f0 00 00
	00 00		 mov	 DWORD PTR tv70[ebp], 0
$LN1@Release:
  00036	8b e5		 mov	 esp, ebp
  00038	5d		 pop	 ebp
  00039	c3		 ret	 0
?Release@CDataBase@@UAEXXZ ENDP				; CDataBase::Release
_TEXT	ENDS
; Function compile flags: /Odtp
; File g:\网狐\happygamewh\服务端\系统模块\服务器组件\内核引擎\databaseengine.cpp
; File c:\program files (x86)\microsoft visual studio\2017\community\vc\tools\msvc\14.16.27023\include\comip.h
; File g:\网狐\happygamewh\服务端\系统模块\服务器组件\内核引擎\databaseengine.cpp
; File c:\program files (x86)\microsoft visual studio\2017\community\vc\tools\msvc\14.16.27023\include\comip.h
; File g:\网狐\happygamewh\服务端\系统模块\服务器组件\内核引擎\databaseengine.cpp
; File c:\program files (x86)\microsoft visual studio\2017\community\vc\tools\msvc\14.16.27023\include\comip.h
; File g:\网狐\happygamewh\服务端\系统模块\服务器组件\内核引擎\databaseengine.cpp
;	COMDAT ??1CDataBase@@UAE@XZ
_TEXT	SEGMENT
_this$ = -28						; size = 4
_this$ = -24						; size = 4
_this$ = -20						; size = 4
_this$ = -16						; size = 4
__$EHRec$ = -12						; size = 12
??1CDataBase@@UAE@XZ PROC				; CDataBase::~CDataBase, COMDAT
; _this$ = ecx

; 85   : {

  00000	55		 push	 ebp
  00001	8b ec		 mov	 ebp, esp
  00003	6a ff		 push	 -1
  00005	68 00 00 00 00	 push	 __ehhandler$??1CDataBase@@UAE@XZ
  0000a	64 a1 00 00 00
	00		 mov	 eax, DWORD PTR fs:0
  00010	50		 push	 eax
  00011	83 ec 10	 sub	 esp, 16			; 00000010H
  00014	a1 00 00 00 00	 mov	 eax, DWORD PTR ___security_cookie
  00019	33 c5		 xor	 eax, ebp
  0001b	50		 push	 eax
  0001c	8d 45 f4	 lea	 eax, DWORD PTR __$EHRec$[ebp]
  0001f	64 a3 00 00 00
	00		 mov	 DWORD PTR fs:0, eax
  00025	89 4d f0	 mov	 DWORD PTR _this$[ebp], ecx
  00028	8b 45 f0	 mov	 eax, DWORD PTR _this$[ebp]
  0002b	c7 00 00 00 00
	00		 mov	 DWORD PTR [eax], OFFSET ??_7CDataBase@@6B@

; 86   :     // 关闭连接
; 87   :     CloseConnection();

  00031	8b 4d f0	 mov	 ecx, DWORD PTR _this$[ebp]
  00034	e8 00 00 00 00	 call	 ?CloseConnection@CDataBase@@UAEXXZ ; CDataBase::CloseConnection

; 88   : 
; 89   :     // 释放对象
; 90   :     m_DBCommand.Release();

  00039	8b 4d f0	 mov	 ecx, DWORD PTR _this$[ebp]
  0003c	83 c1 28	 add	 ecx, 40			; 00000028H
  0003f	e8 00 00 00 00	 call	 ?Release@?$_com_ptr_t@V?$_com_IIID@U_Command@ADOCG@@$1?_GUID_b08400bd_f9d1_4d02_b856_71d5dba123e9@@3U__s_GUID@@B@@@@QAEXXZ ; _com_ptr_t<_com_IIID<ADOCG::_Command,&_GUID_b08400bd_f9d1_4d02_b856_71d5dba123e9> >::Release

; 91   :     m_DBRecordset.Release();

  00044	8b 4d f0	 mov	 ecx, DWORD PTR _this$[ebp]
  00047	83 c1 2c	 add	 ecx, 44			; 0000002cH
  0004a	e8 00 00 00 00	 call	 ?Release@?$_com_ptr_t@V?$_com_IIID@U_Recordset@ADOCG@@$1?_GUID_00000556_0000_0010_8000_00aa006d2ea4@@3U__s_GUID@@B@@@@QAEXXZ ; _com_ptr_t<_com_IIID<ADOCG::_Recordset,&_GUID_00000556_0000_0010_8000_00aa006d2ea4> >::Release

; 92   :     m_DBConnection.Release();

  0004f	8b 4d f0	 mov	 ecx, DWORD PTR _this$[ebp]
  00052	83 c1 30	 add	 ecx, 48			; 00000030H
  00055	e8 00 00 00 00	 call	 ?Release@?$_com_ptr_t@V?$_com_IIID@U_Connection@ADOCG@@$1?_GUID_00000550_0000_0010_8000_00aa006d2ea4@@3U__s_GUID@@B@@@@QAEXXZ ; _com_ptr_t<_com_IIID<ADOCG::_Connection,&_GUID_00000550_0000_0010_8000_00aa006d2ea4> >::Release

; 95   : }

  0005a	8b 4d f0	 mov	 ecx, DWORD PTR _this$[ebp]
  0005d	83 c1 30	 add	 ecx, 48			; 00000030H
  00060	89 4d ec	 mov	 DWORD PTR _this$[ebp], ecx
; File c:\program files (x86)\microsoft visual studio\2017\community\vc\tools\msvc\14.16.27023\include\comip.h

; 817  :         if (m_pInterface != NULL) {

  00063	8b 55 ec	 mov	 edx, DWORD PTR _this$[ebp]
  00066	83 3a 00	 cmp	 DWORD PTR [edx], 0
  00069	74 12		 je	 SHORT $LN15@CDataBase

; 818  :             m_pInterface->Release();

  0006b	8b 45 ec	 mov	 eax, DWORD PTR _this$[ebp]
  0006e	8b 08		 mov	 ecx, DWORD PTR [eax]
  00070	8b 55 ec	 mov	 edx, DWORD PTR _this$[ebp]
  00073	8b 02		 mov	 eax, DWORD PTR [edx]
  00075	8b 09		 mov	 ecx, DWORD PTR [ecx]
  00077	50		 push	 eax
  00078	8b 51 08	 mov	 edx, DWORD PTR [ecx+8]
  0007b	ff d2		 call	 edx
$LN15@CDataBase:
; File g:\网狐\happygamewh\服务端\系统模块\服务器组件\内核引擎\databaseengine.cpp

; 95   : }

  0007d	8b 45 f0	 mov	 eax, DWORD PTR _this$[ebp]
  00080	83 c0 2c	 add	 eax, 44			; 0000002cH
  00083	89 45 e8	 mov	 DWORD PTR _this$[ebp], eax
; File c:\program files (x86)\microsoft visual studio\2017\community\vc\tools\msvc\14.16.27023\include\comip.h

; 817  :         if (m_pInterface != NULL) {

  00086	8b 4d e8	 mov	 ecx, DWORD PTR _this$[ebp]
  00089	83 39 00	 cmp	 DWORD PTR [ecx], 0
  0008c	74 12		 je	 SHORT $LN20@CDataBase

; 818  :             m_pInterface->Release();

  0008e	8b 55 e8	 mov	 edx, DWORD PTR _this$[ebp]
  00091	8b 02		 mov	 eax, DWORD PTR [edx]
  00093	8b 4d e8	 mov	 ecx, DWORD PTR _this$[ebp]
  00096	8b 11		 mov	 edx, DWORD PTR [ecx]
  00098	8b 00		 mov	 eax, DWORD PTR [eax]
  0009a	52		 push	 edx
  0009b	8b 48 08	 mov	 ecx, DWORD PTR [eax+8]
  0009e	ff d1		 call	 ecx
$LN20@CDataBase:
; File g:\网狐\happygamewh\服务端\系统模块\服务器组件\内核引擎\databaseengine.cpp

; 95   : }

  000a0	8b 55 f0	 mov	 edx, DWORD PTR _this$[ebp]
  000a3	83 c2 28	 add	 edx, 40			; 00000028H
  000a6	89 55 e4	 mov	 DWORD PTR _this$[ebp], edx
; File c:\program files (x86)\microsoft visual studio\2017\community\vc\tools\msvc\14.16.27023\include\comip.h

; 817  :         if (m_pInterface != NULL) {

  000a9	8b 45 e4	 mov	 eax, DWORD PTR _this$[ebp]
  000ac	83 38 00	 cmp	 DWORD PTR [eax], 0
  000af	74 12		 je	 SHORT $LN25@CDataBase

; 818  :             m_pInterface->Release();

  000b1	8b 4d e4	 mov	 ecx, DWORD PTR _this$[ebp]
  000b4	8b 11		 mov	 edx, DWORD PTR [ecx]
  000b6	8b 45 e4	 mov	 eax, DWORD PTR _this$[ebp]
  000b9	8b 08		 mov	 ecx, DWORD PTR [eax]
  000bb	8b 12		 mov	 edx, DWORD PTR [edx]
  000bd	51		 push	 ecx
  000be	8b 42 08	 mov	 eax, DWORD PTR [edx+8]
  000c1	ff d0		 call	 eax
$LN25@CDataBase:
; File g:\网狐\happygamewh\服务端\系统模块\服务器组件\内核引擎\databaseengine.cpp

; 95   : }

  000c3	8b 4d f0	 mov	 ecx, DWORD PTR _this$[ebp]
  000c6	83 c1 08	 add	 ecx, 8
  000c9	e8 00 00 00 00	 call	 ??1CDataBaseException@@UAE@XZ ; CDataBaseException::~CDataBaseException
  000ce	8b 4d f0	 mov	 ecx, DWORD PTR _this$[ebp]
  000d1	83 c1 04	 add	 ecx, 4
  000d4	ff 15 00 00 00
	00		 call	 DWORD PTR __imp_??1?$CStringT@DV?$StrTraitMFC_DLL@DV?$ChTraitsCRT@D@ATL@@@@@ATL@@QAE@XZ
  000da	8b 4d f4	 mov	 ecx, DWORD PTR __$EHRec$[ebp]
  000dd	64 89 0d 00 00
	00 00		 mov	 DWORD PTR fs:0, ecx
  000e4	59		 pop	 ecx
  000e5	8b e5		 mov	 esp, ebp
  000e7	5d		 pop	 ebp
  000e8	c3		 ret	 0
_TEXT	ENDS
;	COMDAT text$x
text$x	SEGMENT
__ehhandler$??1CDataBase@@UAE@XZ:
  00000	8b 54 24 08	 mov	 edx, DWORD PTR [esp+8]
  00004	8d 42 0c	 lea	 eax, DWORD PTR [edx+12]
  00007	8b 4a ec	 mov	 ecx, DWORD PTR [edx-20]
  0000a	33 c8		 xor	 ecx, eax
  0000c	e8 00 00 00 00	 call	 @__security_check_cookie@4
  00011	b8 00 00 00 00	 mov	 eax, OFFSET __ehfuncinfo$??1CDataBase@@UAE@XZ
  00016	e9 00 00 00 00	 jmp	 ___CxxFrameHandler3
text$x	ENDS
??1CDataBase@@UAE@XZ ENDP				; CDataBase::~CDataBase
; Function compile flags: /Odtp
; File g:\网狐\happygamewh\服务端\系统模块\服务器组件\内核引擎\databaseengine.cpp
; File c:\program files (x86)\microsoft visual studio\2017\community\vc\tools\msvc\14.16.27023\include\comip.h
; File g:\网狐\happygamewh\服务端\系统模块\服务器组件\内核引擎\databaseengine.cpp
; File c:\program files (x86)\microsoft visual studio\2017\community\vc\tools\msvc\14.16.27023\include\comip.h
; File g:\网狐\happygamewh\服务端\系统模块\服务器组件\内核引擎\databaseengine.cpp
; File c:\program files (x86)\microsoft visual studio\2017\community\vc\tools\msvc\14.16.27023\include\comip.h
; File g:\网狐\happygamewh\服务端\系统模块\服务器组件\内核引擎\databaseengine.cpp
; File c:\program files (x86)\microsoft visual studio\2017\community\vc\tools\msvc\14.16.27023\include\comip.h
; File g:\网狐\happygamewh\服务端\系统模块\服务器组件\内核引擎\databaseengine.cpp
; File c:\program files (x86)\microsoft visual studio\2017\community\vc\tools\msvc\14.16.27023\include\comip.h
; File g:\网狐\happygamewh\服务端\系统模块\服务器组件\内核引擎\databaseengine.cpp
; File c:\program files (x86)\microsoft visual studio\2017\community\vc\tools\msvc\14.16.27023\include\comip.h
; File g:\网狐\happygamewh\服务端\系统模块\服务器组件\内核引擎\databaseengine.cpp
; File c:\program files (x86)\microsoft visual studio\2017\community\vc\tools\msvc\14.16.27023\include\comip.h
; File g:\网狐\happygamewh\服务端\系统模块\服务器组件\内核引擎\databaseengine.cpp
; File c:\program files (x86)\microsoft visual studio\2017\community\vc\tools\msvc\14.16.27023\include\comip.h
; File g:\网狐\happygamewh\服务端\系统模块\服务器组件\内核引擎\databaseengine.cpp
; File c:\program files (x86)\microsoft visual studio\2017\community\vc\tools\msvc\14.16.27023\include\comip.h
; File g:\网狐\happygamewh\服务端\系统模块\服务器组件\内核引擎\databaseengine.cpp
; File c:\program files (x86)\microsoft visual studio\2017\community\vc\tools\msvc\14.16.27023\include\comip.h
; File g:\网狐\happygamewh\服务端\中间目录\内核引擎\debug_ansi\msado15.tli
; File g:\网狐\happygamewh\服务端\系统模块\服务器组件\内核引擎\databaseengine.cpp
;	COMDAT ??0CDataBase@@QAE@XZ
_TEXT	SEGMENT
$T2 = -100						; size = 4
$T3 = -96						; size = 4
$T4 = -92						; size = 4
_this$ = -88						; size = 4
_this$ = -84						; size = 4
_this$ = -80						; size = 4
__hr$5 = -76						; size = 4
_this$ = -72						; size = 4
tv230 = -68						; size = 4
tv175 = -64						; size = 4
tv305 = -60						; size = 4
tv241 = -56						; size = 4
tv240 = -52						; size = 4
tv243 = -48						; size = 4
tv287 = -44						; size = 4
tv292 = -40						; size = 4
tv247 = -36						; size = 4
$T6 = -32						; size = 4
_this$ = -28						; size = 4
$T7 = -21						; size = 1
$T8 = -20						; size = 1
$T9 = -19						; size = 1
$T10 = -18						; size = 1
$T11 = -17						; size = 1
$T12 = -16						; size = 1
$T13 = -15						; size = 1
$T14 = -14						; size = 1
$T15 = -13						; size = 1
__$EHRec$ = -12						; size = 12
??0CDataBase@@QAE@XZ PROC				; CDataBase::CDataBase, COMDAT
; _this$ = ecx

; 59   : {

  00000	55		 push	 ebp
  00001	8b ec		 mov	 ebp, esp
  00003	6a ff		 push	 -1
  00005	68 00 00 00 00	 push	 __ehhandler$??0CDataBase@@QAE@XZ
  0000a	64 a1 00 00 00
	00		 mov	 eax, DWORD PTR fs:0
  00010	50		 push	 eax
  00011	83 ec 58	 sub	 esp, 88			; 00000058H
  00014	a1 00 00 00 00	 mov	 eax, DWORD PTR ___security_cookie
  00019	33 c5		 xor	 eax, ebp
  0001b	50		 push	 eax
  0001c	8d 45 f4	 lea	 eax, DWORD PTR __$EHRec$[ebp]
  0001f	64 a3 00 00 00
	00		 mov	 DWORD PTR fs:0, eax
  00025	89 4d e4	 mov	 DWORD PTR _this$[ebp], ecx
  00028	8b 45 e4	 mov	 eax, DWORD PTR _this$[ebp]
  0002b	c7 00 00 00 00
	00		 mov	 DWORD PTR [eax], OFFSET ??_7IUnknownEx@@6B@
  00031	8b 4d e4	 mov	 ecx, DWORD PTR _this$[ebp]
  00034	c7 01 00 00 00
	00		 mov	 DWORD PTR [ecx], OFFSET ??_7IDataBase@@6B@
  0003a	8b 55 e4	 mov	 edx, DWORD PTR _this$[ebp]
  0003d	c7 02 00 00 00
	00		 mov	 DWORD PTR [edx], OFFSET ??_7CDataBase@@6B@
  00043	8b 4d e4	 mov	 ecx, DWORD PTR _this$[ebp]
  00046	83 c1 04	 add	 ecx, 4
  00049	ff 15 00 00 00
	00		 call	 DWORD PTR __imp_??0?$CStringT@DV?$StrTraitMFC_DLL@DV?$ChTraitsCRT@D@ATL@@@@@ATL@@QAE@XZ
  0004f	c7 45 fc 00 00
	00 00		 mov	 DWORD PTR __$EHRec$[ebp+8], 0
  00056	8b 4d e4	 mov	 ecx, DWORD PTR _this$[ebp]
  00059	83 c1 08	 add	 ecx, 8
  0005c	e8 00 00 00 00	 call	 ??0CDataBaseException@@QAE@XZ ; CDataBaseException::CDataBaseException
  00061	c6 45 fc 01	 mov	 BYTE PTR __$EHRec$[ebp+8], 1

; 58   : CDataBase::CDataBase() : m_dwResumeConnectCount(10L), m_dwResumeConnectTime(30L)

  00065	8b 45 e4	 mov	 eax, DWORD PTR _this$[ebp]
  00068	c7 40 20 1e 00
	00 00		 mov	 DWORD PTR [eax+32], 30	; 0000001eH
  0006f	8b 4d e4	 mov	 ecx, DWORD PTR _this$[ebp]
  00072	c7 41 24 0a 00
	00 00		 mov	 DWORD PTR [ecx+36], 10	; 0000000aH

; 59   : {

  00079	8b 55 e4	 mov	 edx, DWORD PTR _this$[ebp]
  0007c	83 c2 28	 add	 edx, 40			; 00000028H
  0007f	89 55 b0	 mov	 DWORD PTR _this$[ebp], edx
; File c:\program files (x86)\microsoft visual studio\2017\community\vc\tools\msvc\14.16.27023\include\comip.h

; 134  :         : m_pInterface(NULL)

  00082	8b 45 b0	 mov	 eax, DWORD PTR _this$[ebp]
  00085	c7 00 00 00 00
	00		 mov	 DWORD PTR [eax], 0
; File g:\网狐\happygamewh\服务端\系统模块\服务器组件\内核引擎\databaseengine.cpp

; 59   : {

  0008b	c6 45 fc 02	 mov	 BYTE PTR __$EHRec$[ebp+8], 2
  0008f	8b 4d e4	 mov	 ecx, DWORD PTR _this$[ebp]
  00092	83 c1 2c	 add	 ecx, 44			; 0000002cH
  00095	89 4d ac	 mov	 DWORD PTR _this$[ebp], ecx
; File c:\program files (x86)\microsoft visual studio\2017\community\vc\tools\msvc\14.16.27023\include\comip.h

; 134  :         : m_pInterface(NULL)

  00098	8b 55 ac	 mov	 edx, DWORD PTR _this$[ebp]
  0009b	c7 02 00 00 00
	00		 mov	 DWORD PTR [edx], 0
; File g:\网狐\happygamewh\服务端\系统模块\服务器组件\内核引擎\databaseengine.cpp

; 59   : {

  000a1	c6 45 fc 03	 mov	 BYTE PTR __$EHRec$[ebp+8], 3
  000a5	8b 45 e4	 mov	 eax, DWORD PTR _this$[ebp]
  000a8	83 c0 30	 add	 eax, 48			; 00000030H
  000ab	89 45 a8	 mov	 DWORD PTR _this$[ebp], eax
; File c:\program files (x86)\microsoft visual studio\2017\community\vc\tools\msvc\14.16.27023\include\comip.h

; 134  :         : m_pInterface(NULL)

  000ae	8b 4d a8	 mov	 ecx, DWORD PTR _this$[ebp]
  000b1	c7 01 00 00 00
	00		 mov	 DWORD PTR [ecx], 0
; File g:\网狐\happygamewh\服务端\系统模块\服务器组件\内核引擎\databaseengine.cpp

; 59   : {

  000b7	c6 45 fc 04	 mov	 BYTE PTR __$EHRec$[ebp+8], 4

; 60   :     // 状态变量
; 61   :     m_dwConnectCount = 0L;

  000bb	8b 55 e4	 mov	 edx, DWORD PTR _this$[ebp]
  000be	c7 42 18 00 00
	00 00		 mov	 DWORD PTR [edx+24], 0

; 62   :     m_dwConnectErrorTime = 0L;

  000c5	8b 45 e4	 mov	 eax, DWORD PTR _this$[ebp]
  000c8	c7 40 1c 00 00
	00 00		 mov	 DWORD PTR [eax+28], 0

; 63   : 
; 64   :     // 创建对象
; 65   :     m_DBCommand.CreateInstance(__uuidof(Command));

  000cf	6a 17		 push	 23			; 00000017H
  000d1	6a 00		 push	 0
  000d3	68 00 00 00 00	 push	 OFFSET __GUID_00000507_0000_0010_8000_00aa006d2ea4
  000d8	8b 4d e4	 mov	 ecx, DWORD PTR _this$[ebp]
  000db	83 c1 28	 add	 ecx, 40			; 00000028H
  000de	e8 00 00 00 00	 call	 ?CreateInstance@?$_com_ptr_t@V?$_com_IIID@U_Command@ADOCG@@$1?_GUID_b08400bd_f9d1_4d02_b856_71d5dba123e9@@3U__s_GUID@@B@@@@QAEJABU_GUID@@PAUIUnknown@@K@Z ; _com_ptr_t<_com_IIID<ADOCG::_Command,&_GUID_b08400bd_f9d1_4d02_b856_71d5dba123e9> >::CreateInstance

; 66   :     m_DBRecordset.CreateInstance(__uuidof(Recordset));

  000e3	6a 17		 push	 23			; 00000017H
  000e5	6a 00		 push	 0
  000e7	68 00 00 00 00	 push	 OFFSET __GUID_00000535_0000_0010_8000_00aa006d2ea4
  000ec	8b 4d e4	 mov	 ecx, DWORD PTR _this$[ebp]
  000ef	83 c1 2c	 add	 ecx, 44			; 0000002cH
  000f2	e8 00 00 00 00	 call	 ?CreateInstance@?$_com_ptr_t@V?$_com_IIID@U_Recordset@ADOCG@@$1?_GUID_00000556_0000_0010_8000_00aa006d2ea4@@3U__s_GUID@@B@@@@QAEJABU_GUID@@PAUIUnknown@@K@Z ; _com_ptr_t<_com_IIID<ADOCG::_Recordset,&_GUID_00000556_0000_0010_8000_00aa006d2ea4> >::CreateInstance

; 67   :     m_DBConnection.CreateInstance(__uuidof(Connection));

  000f7	6a 17		 push	 23			; 00000017H
  000f9	6a 00		 push	 0
  000fb	68 00 00 00 00	 push	 OFFSET __GUID_00000514_0000_0010_8000_00aa006d2ea4
  00100	8b 4d e4	 mov	 ecx, DWORD PTR _this$[ebp]
  00103	83 c1 30	 add	 ecx, 48			; 00000030H
  00106	e8 00 00 00 00	 call	 ?CreateInstance@?$_com_ptr_t@V?$_com_IIID@U_Connection@ADOCG@@$1?_GUID_00000550_0000_0010_8000_00aa006d2ea4@@3U__s_GUID@@B@@@@QAEJABU_GUID@@PAUIUnknown@@K@Z ; _com_ptr_t<_com_IIID<ADOCG::_Connection,&_GUID_00000550_0000_0010_8000_00aa006d2ea4> >::CreateInstance
; File c:\program files (x86)\microsoft visual studio\2017\community\vc\tools\msvc\14.16.27023\include\comip.h

; 478  :         if (null != 0) {

  0010b	33 c9		 xor	 ecx, ecx
  0010d	74 0a		 je	 SHORT $LN85@CDataBase

; 479  :             _com_issue_error(E_POINTER);

  0010f	68 03 40 00 80	 push	 -2147467261		; 80004003H
  00114	e8 00 00 00 00	 call	 ?_com_issue_error@@YGXJ@Z ; _com_issue_error
$LN85@CDataBase:
  00119	8b 55 e4	 mov	 edx, DWORD PTR _this$[ebp]
  0011c	83 7a 28 00	 cmp	 DWORD PTR [edx+40], 0
  00120	75 09		 jne	 SHORT $LN87@CDataBase
  00122	c7 45 dc 01 00
	00 00		 mov	 DWORD PTR tv247[ebp], 1
  00129	eb 07		 jmp	 SHORT $LN88@CDataBase
$LN87@CDataBase:
  0012b	c7 45 dc 00 00
	00 00		 mov	 DWORD PTR tv247[ebp], 0
$LN88@CDataBase:
  00132	8a 45 dc	 mov	 al, BYTE PTR tv247[ebp]
  00135	88 45 f3	 mov	 BYTE PTR $T15[ebp], al

; 503  :         return !(operator==(null));

  00138	0f b6 4d f3	 movzx	 ecx, BYTE PTR $T15[ebp]
  0013c	85 c9		 test	 ecx, ecx
  0013e	75 09		 jne	 SHORT $LN82@CDataBase
  00140	c7 45 d8 01 00
	00 00		 mov	 DWORD PTR tv292[ebp], 1
  00147	eb 07		 jmp	 SHORT $LN83@CDataBase
$LN82@CDataBase:
  00149	c7 45 d8 00 00
	00 00		 mov	 DWORD PTR tv292[ebp], 0
$LN83@CDataBase:
  00150	8a 55 d8	 mov	 dl, BYTE PTR tv292[ebp]
  00153	88 55 f2	 mov	 BYTE PTR $T14[ebp], dl
; File g:\网狐\happygamewh\服务端\系统模块\服务器组件\内核引擎\databaseengine.cpp

; 70   : 	ASSERT(m_DBCommand!=NULL);

  00156	0f b6 45 f2	 movzx	 eax, BYTE PTR $T14[ebp]
  0015a	85 c0		 test	 eax, eax
  0015c	75 11		 jne	 SHORT $LN6@CDataBase
  0015e	6a 46		 push	 70			; 00000046H
  00160	68 00 00 00 00	 push	 OFFSET ??_C@_0EL@CJALAN@g?3?2?M?x?$LK?$PM?2happygamewh?2?$LH?$PO?N?q?$LG?K?2?O?$LF?M?$LD@
  00165	e8 00 00 00 00	 call	 ?AfxAssertFailedLine@@YGHPBDH@Z ; AfxAssertFailedLine
  0016a	85 c0		 test	 eax, eax
  0016c	74 01		 je	 SHORT $LN6@CDataBase
  0016e	cc		 int	 3
$LN6@CDataBase:
; File c:\program files (x86)\microsoft visual studio\2017\community\vc\tools\msvc\14.16.27023\include\comip.h

; 478  :         if (null != 0) {

  0016f	33 d2		 xor	 edx, edx
  00171	74 0a		 je	 SHORT $LN99@CDataBase

; 479  :             _com_issue_error(E_POINTER);

  00173	68 03 40 00 80	 push	 -2147467261		; 80004003H
  00178	e8 00 00 00 00	 call	 ?_com_issue_error@@YGXJ@Z ; _com_issue_error
$LN99@CDataBase:
  0017d	8b 45 e4	 mov	 eax, DWORD PTR _this$[ebp]
  00180	83 78 2c 00	 cmp	 DWORD PTR [eax+44], 0
  00184	75 09		 jne	 SHORT $LN101@CDataBase
  00186	c7 45 d4 01 00
	00 00		 mov	 DWORD PTR tv287[ebp], 1
  0018d	eb 07		 jmp	 SHORT $LN102@CDataBase
$LN101@CDataBase:
  0018f	c7 45 d4 00 00
	00 00		 mov	 DWORD PTR tv287[ebp], 0
$LN102@CDataBase:
  00196	8a 4d d4	 mov	 cl, BYTE PTR tv287[ebp]
  00199	88 4d f1	 mov	 BYTE PTR $T13[ebp], cl

; 503  :         return !(operator==(null));

  0019c	0f b6 55 f1	 movzx	 edx, BYTE PTR $T13[ebp]
  001a0	85 d2		 test	 edx, edx
  001a2	75 09		 jne	 SHORT $LN96@CDataBase
  001a4	c7 45 d0 01 00
	00 00		 mov	 DWORD PTR tv243[ebp], 1
  001ab	eb 07		 jmp	 SHORT $LN97@CDataBase
$LN96@CDataBase:
  001ad	c7 45 d0 00 00
	00 00		 mov	 DWORD PTR tv243[ebp], 0
$LN97@CDataBase:
  001b4	8a 45 d0	 mov	 al, BYTE PTR tv243[ebp]
  001b7	88 45 f0	 mov	 BYTE PTR $T12[ebp], al
; File g:\网狐\happygamewh\服务端\系统模块\服务器组件\内核引擎\databaseengine.cpp

; 71   : 	ASSERT(m_DBRecordset!=NULL);

  001ba	0f b6 4d f0	 movzx	 ecx, BYTE PTR $T12[ebp]
  001be	85 c9		 test	 ecx, ecx
  001c0	75 11		 jne	 SHORT $LN7@CDataBase
  001c2	6a 47		 push	 71			; 00000047H
  001c4	68 00 00 00 00	 push	 OFFSET ??_C@_0EL@CJALAN@g?3?2?M?x?$LK?$PM?2happygamewh?2?$LH?$PO?N?q?$LG?K?2?O?$LF?M?$LD@
  001c9	e8 00 00 00 00	 call	 ?AfxAssertFailedLine@@YGHPBDH@Z ; AfxAssertFailedLine
  001ce	85 c0		 test	 eax, eax
  001d0	74 01		 je	 SHORT $LN7@CDataBase
  001d2	cc		 int	 3
$LN7@CDataBase:
; File c:\program files (x86)\microsoft visual studio\2017\community\vc\tools\msvc\14.16.27023\include\comip.h

; 478  :         if (null != 0) {

  001d3	33 c0		 xor	 eax, eax
  001d5	74 0a		 je	 SHORT $LN112@CDataBase

; 479  :             _com_issue_error(E_POINTER);

  001d7	68 03 40 00 80	 push	 -2147467261		; 80004003H
  001dc	e8 00 00 00 00	 call	 ?_com_issue_error@@YGXJ@Z ; _com_issue_error
$LN112@CDataBase:
  001e1	8b 4d e4	 mov	 ecx, DWORD PTR _this$[ebp]
  001e4	83 79 30 00	 cmp	 DWORD PTR [ecx+48], 0
  001e8	75 09		 jne	 SHORT $LN114@CDataBase
  001ea	c7 45 cc 01 00
	00 00		 mov	 DWORD PTR tv240[ebp], 1
  001f1	eb 07		 jmp	 SHORT $LN115@CDataBase
$LN114@CDataBase:
  001f3	c7 45 cc 00 00
	00 00		 mov	 DWORD PTR tv240[ebp], 0
$LN115@CDataBase:
  001fa	8a 55 cc	 mov	 dl, BYTE PTR tv240[ebp]
  001fd	88 55 ef	 mov	 BYTE PTR $T11[ebp], dl

; 503  :         return !(operator==(null));

  00200	0f b6 45 ef	 movzx	 eax, BYTE PTR $T11[ebp]
  00204	85 c0		 test	 eax, eax
  00206	75 09		 jne	 SHORT $LN109@CDataBase
  00208	c7 45 c8 01 00
	00 00		 mov	 DWORD PTR tv241[ebp], 1
  0020f	eb 07		 jmp	 SHORT $LN110@CDataBase
$LN109@CDataBase:
  00211	c7 45 c8 00 00
	00 00		 mov	 DWORD PTR tv241[ebp], 0
$LN110@CDataBase:
  00218	8a 4d c8	 mov	 cl, BYTE PTR tv241[ebp]
  0021b	88 4d ee	 mov	 BYTE PTR $T10[ebp], cl
; File g:\网狐\happygamewh\服务端\系统模块\服务器组件\内核引擎\databaseengine.cpp

; 72   : 	ASSERT(m_DBConnection!=NULL);

  0021e	0f b6 55 ee	 movzx	 edx, BYTE PTR $T10[ebp]
  00222	85 d2		 test	 edx, edx
  00224	75 11		 jne	 SHORT $LN8@CDataBase
  00226	6a 48		 push	 72			; 00000048H
  00228	68 00 00 00 00	 push	 OFFSET ??_C@_0EL@CJALAN@g?3?2?M?x?$LK?$PM?2happygamewh?2?$LH?$PO?N?q?$LG?K?2?O?$LF?M?$LD@
  0022d	e8 00 00 00 00	 call	 ?AfxAssertFailedLine@@YGHPBDH@Z ; AfxAssertFailedLine
  00232	85 c0		 test	 eax, eax
  00234	74 01		 je	 SHORT $LN8@CDataBase
  00236	cc		 int	 3
$LN8@CDataBase:
; File c:\program files (x86)\microsoft visual studio\2017\community\vc\tools\msvc\14.16.27023\include\comip.h

; 478  :         if (null != 0) {

  00237	33 c9		 xor	 ecx, ecx
  00239	74 0a		 je	 SHORT $LN121@CDataBase

; 479  :             _com_issue_error(E_POINTER);

  0023b	68 03 40 00 80	 push	 -2147467261		; 80004003H
  00240	e8 00 00 00 00	 call	 ?_com_issue_error@@YGXJ@Z ; _com_issue_error
$LN121@CDataBase:
  00245	8b 55 e4	 mov	 edx, DWORD PTR _this$[ebp]
  00248	83 7a 28 00	 cmp	 DWORD PTR [edx+40], 0
  0024c	75 09		 jne	 SHORT $LN123@CDataBase
  0024e	c7 45 c4 01 00
	00 00		 mov	 DWORD PTR tv305[ebp], 1
  00255	eb 07		 jmp	 SHORT $LN124@CDataBase
$LN123@CDataBase:
  00257	c7 45 c4 00 00
	00 00		 mov	 DWORD PTR tv305[ebp], 0
$LN124@CDataBase:
  0025e	8a 45 c4	 mov	 al, BYTE PTR tv305[ebp]
  00261	88 45 ed	 mov	 BYTE PTR $T9[ebp], al
; File g:\网狐\happygamewh\服务端\系统模块\服务器组件\内核引擎\databaseengine.cpp

; 73   : 	if (m_DBCommand==NULL) throw TEXT("数据库命令对象创建失败");

  00264	0f b6 4d ed	 movzx	 ecx, BYTE PTR $T9[ebp]
  00268	85 c9		 test	 ecx, ecx
  0026a	74 15		 je	 SHORT $LN2@CDataBase
  0026c	c7 45 a4 00 00
	00 00		 mov	 DWORD PTR $T4[ebp], OFFSET ??_C@_0BH@DNPDBMEB@?J?$PN?$LO?$NN?$LP?b?C?$PM?A?n?$LG?T?O?s?$LE?$LE?$LN?$KI?J?$KH?$LA?$NM@
  00273	68 00 00 00 00	 push	 OFFSET __TI2PAD
  00278	8d 55 a4	 lea	 edx, DWORD PTR $T4[ebp]
  0027b	52		 push	 edx
  0027c	e8 00 00 00 00	 call	 __CxxThrowException@8
$LN2@CDataBase:
; File c:\program files (x86)\microsoft visual studio\2017\community\vc\tools\msvc\14.16.27023\include\comip.h

; 478  :         if (null != 0) {

  00281	33 c0		 xor	 eax, eax
  00283	74 0a		 je	 SHORT $LN126@CDataBase

; 479  :             _com_issue_error(E_POINTER);

  00285	68 03 40 00 80	 push	 -2147467261		; 80004003H
  0028a	e8 00 00 00 00	 call	 ?_com_issue_error@@YGXJ@Z ; _com_issue_error
$LN126@CDataBase:
  0028f	8b 4d e4	 mov	 ecx, DWORD PTR _this$[ebp]
  00292	83 79 2c 00	 cmp	 DWORD PTR [ecx+44], 0
  00296	75 09		 jne	 SHORT $LN128@CDataBase
  00298	c7 45 c0 01 00
	00 00		 mov	 DWORD PTR tv175[ebp], 1
  0029f	eb 07		 jmp	 SHORT $LN129@CDataBase
$LN128@CDataBase:
  002a1	c7 45 c0 00 00
	00 00		 mov	 DWORD PTR tv175[ebp], 0
$LN129@CDataBase:
  002a8	8a 55 c0	 mov	 dl, BYTE PTR tv175[ebp]
  002ab	88 55 ec	 mov	 BYTE PTR $T8[ebp], dl
; File g:\网狐\happygamewh\服务端\系统模块\服务器组件\内核引擎\databaseengine.cpp

; 74   : 	if (m_DBRecordset==NULL) throw TEXT("数据库记录集对象创建失败");

  002ae	0f b6 45 ec	 movzx	 eax, BYTE PTR $T8[ebp]
  002b2	85 c0		 test	 eax, eax
  002b4	74 15		 je	 SHORT $LN3@CDataBase
  002b6	c7 45 a0 00 00
	00 00		 mov	 DWORD PTR $T3[ebp], OFFSET ??_C@_0BJ@NODHBELB@?J?$PN?$LO?$NN?$LP?b?$LM?G?B?$LM?$LM?$KP?$LG?T?O?s?$LE?$LE?$LN?$KI?J?$KH?$LA?$NM@
  002bd	68 00 00 00 00	 push	 OFFSET __TI2PAD
  002c2	8d 4d a0	 lea	 ecx, DWORD PTR $T3[ebp]
  002c5	51		 push	 ecx
  002c6	e8 00 00 00 00	 call	 __CxxThrowException@8
$LN3@CDataBase:
; File c:\program files (x86)\microsoft visual studio\2017\community\vc\tools\msvc\14.16.27023\include\comip.h

; 478  :         if (null != 0) {

  002cb	33 d2		 xor	 edx, edx
  002cd	74 0a		 je	 SHORT $LN131@CDataBase

; 479  :             _com_issue_error(E_POINTER);

  002cf	68 03 40 00 80	 push	 -2147467261		; 80004003H
  002d4	e8 00 00 00 00	 call	 ?_com_issue_error@@YGXJ@Z ; _com_issue_error
$LN131@CDataBase:
  002d9	8b 45 e4	 mov	 eax, DWORD PTR _this$[ebp]
  002dc	83 78 30 00	 cmp	 DWORD PTR [eax+48], 0
  002e0	75 09		 jne	 SHORT $LN133@CDataBase
  002e2	c7 45 bc 01 00
	00 00		 mov	 DWORD PTR tv230[ebp], 1
  002e9	eb 07		 jmp	 SHORT $LN134@CDataBase
$LN133@CDataBase:
  002eb	c7 45 bc 00 00
	00 00		 mov	 DWORD PTR tv230[ebp], 0
$LN134@CDataBase:
  002f2	8a 4d bc	 mov	 cl, BYTE PTR tv230[ebp]
  002f5	88 4d eb	 mov	 BYTE PTR $T7[ebp], cl
; File g:\网狐\happygamewh\服务端\系统模块\服务器组件\内核引擎\databaseengine.cpp

; 75   : 	if (m_DBConnection==NULL) throw TEXT("数据库连接对象创建失败");

  002f8	0f b6 55 eb	 movzx	 edx, BYTE PTR $T7[ebp]
  002fc	85 d2		 test	 edx, edx
  002fe	74 15		 je	 SHORT $LN4@CDataBase
  00300	c7 45 9c 00 00
	00 00		 mov	 DWORD PTR $T2[ebp], OFFSET ??_C@_0BH@HOBDADEF@?J?$PN?$LO?$NN?$LP?b?A?$KM?$LN?S?$LG?T?O?s?$LE?$LE?$LN?$KI?J?$KH?$LA?$NM@
  00307	68 00 00 00 00	 push	 OFFSET __TI2PAD
  0030c	8d 45 9c	 lea	 eax, DWORD PTR $T2[ebp]
  0030f	50		 push	 eax
  00310	e8 00 00 00 00	 call	 __CxxThrowException@8
$LN4@CDataBase:

; 76   : 
; 77   :     // 设置变量
; 78   :     m_DBCommand->CommandType = adCmdStoredProc;

  00315	8b 4d e4	 mov	 ecx, DWORD PTR _this$[ebp]
  00318	83 c1 28	 add	 ecx, 40			; 00000028H
  0031b	89 4d b8	 mov	 DWORD PTR _this$[ebp], ecx
; File c:\program files (x86)\microsoft visual studio\2017\community\vc\tools\msvc\14.16.27023\include\comip.h

; 428  :         if (m_pInterface == NULL) {

  0031e	8b 55 b8	 mov	 edx, DWORD PTR _this$[ebp]
  00321	83 3a 00	 cmp	 DWORD PTR [edx], 0
  00324	75 0a		 jne	 SHORT $LN136@CDataBase

; 429  :             _com_issue_error(E_POINTER);

  00326	68 03 40 00 80	 push	 -2147467261		; 80004003H
  0032b	e8 00 00 00 00	 call	 ?_com_issue_error@@YGXJ@Z ; _com_issue_error
$LN136@CDataBase:
  00330	8b 45 b8	 mov	 eax, DWORD PTR _this$[ebp]
  00333	8b 08		 mov	 ecx, DWORD PTR [eax]
  00335	89 4d e0	 mov	 DWORD PTR $T6[ebp], ecx
; File g:\网狐\happygamewh\服务端\中间目录\内核引擎\debug_ansi\msado15.tli

; 1108 :     HRESULT _hr = put_CommandType(plCmdType);

  00338	6a 04		 push	 4
  0033a	8b 55 e0	 mov	 edx, DWORD PTR $T6[ebp]
  0033d	8b 02		 mov	 eax, DWORD PTR [edx]
  0033f	8b 4d e0	 mov	 ecx, DWORD PTR $T6[ebp]
  00342	51		 push	 ecx
  00343	8b 50 50	 mov	 edx, DWORD PTR [eax+80]
  00346	ff d2		 call	 edx
  00348	89 45 b4	 mov	 DWORD PTR __hr$5[ebp], eax

; 1109 :     if (FAILED(_hr)) _com_issue_errorex(_hr, this, __uuidof(this));

  0034b	83 7d b4 00	 cmp	 DWORD PTR __hr$5[ebp], 0
  0034f	7d 12		 jge	 SHORT $LN1@CDataBase
  00351	68 00 00 00 00	 push	 OFFSET __GUID_00000508_0000_0010_8000_00aa006d2ea4
  00356	8b 45 e0	 mov	 eax, DWORD PTR $T6[ebp]
  00359	50		 push	 eax
  0035a	8b 4d b4	 mov	 ecx, DWORD PTR __hr$5[ebp]
  0035d	51		 push	 ecx
  0035e	e8 00 00 00 00	 call	 ?_com_issue_errorex@@YGXJPAUIUnknown@@ABU_GUID@@@Z ; _com_issue_errorex
$LN1@CDataBase:
; File g:\网狐\happygamewh\服务端\系统模块\服务器组件\内核引擎\databaseengine.cpp

; 81   : }

  00363	c7 45 fc ff ff
	ff ff		 mov	 DWORD PTR __$EHRec$[ebp+8], -1
  0036a	8b 45 e4	 mov	 eax, DWORD PTR _this$[ebp]
$LN90@CDataBase:
  0036d	8b 4d f4	 mov	 ecx, DWORD PTR __$EHRec$[ebp]
  00370	64 89 0d 00 00
	00 00		 mov	 DWORD PTR fs:0, ecx
  00377	59		 pop	 ecx
  00378	8b e5		 mov	 esp, ebp
  0037a	5d		 pop	 ebp
  0037b	c3		 ret	 0
_TEXT	ENDS
;	COMDAT text$x
text$x	SEGMENT
__unwindfunclet$??0CDataBase@@QAE@XZ$0:
  00000	8b 4d e4	 mov	 ecx, DWORD PTR _this$[ebp]
  00003	83 c1 04	 add	 ecx, 4
  00006	ff 25 00 00 00
	00		 jmp	 DWORD PTR __imp_??1?$CStringT@DV?$StrTraitMFC_DLL@DV?$ChTraitsCRT@D@ATL@@@@@ATL@@QAE@XZ
__unwindfunclet$??0CDataBase@@QAE@XZ$1:
  0000c	8b 4d e4	 mov	 ecx, DWORD PTR _this$[ebp]
  0000f	83 c1 08	 add	 ecx, 8
  00012	e9 00 00 00 00	 jmp	 ??1CDataBaseException@@UAE@XZ ; CDataBaseException::~CDataBaseException
__unwindfunclet$??0CDataBase@@QAE@XZ$2:
  00017	8b 4d e4	 mov	 ecx, DWORD PTR _this$[ebp]
  0001a	83 c1 28	 add	 ecx, 40			; 00000028H
  0001d	e9 00 00 00 00	 jmp	 ??1?$_com_ptr_t@V?$_com_IIID@U_Command@ADOCG@@$1?_GUID_b08400bd_f9d1_4d02_b856_71d5dba123e9@@3U__s_GUID@@B@@@@QAE@XZ ; _com_ptr_t<_com_IIID<ADOCG::_Command,&_GUID_b08400bd_f9d1_4d02_b856_71d5dba123e9> >::~_com_ptr_t<_com_IIID<ADOCG::_Command,&_GUID_b08400bd_f9d1_4d02_b856_71d5dba123e9> >
__unwindfunclet$??0CDataBase@@QAE@XZ$3:
  00022	8b 4d e4	 mov	 ecx, DWORD PTR _this$[ebp]
  00025	83 c1 2c	 add	 ecx, 44			; 0000002cH
  00028	e9 00 00 00 00	 jmp	 ??1?$_com_ptr_t@V?$_com_IIID@U_Recordset@ADOCG@@$1?_GUID_00000556_0000_0010_8000_00aa006d2ea4@@3U__s_GUID@@B@@@@QAE@XZ ; _com_ptr_t<_com_IIID<ADOCG::_Recordset,&_GUID_00000556_0000_0010_8000_00aa006d2ea4> >::~_com_ptr_t<_com_IIID<ADOCG::_Recordset,&_GUID_00000556_0000_0010_8000_00aa006d2ea4> >
__unwindfunclet$??0CDataBase@@QAE@XZ$4:
  0002d	8b 4d e4	 mov	 ecx, DWORD PTR _this$[ebp]
  00030	83 c1 30	 add	 ecx, 48			; 00000030H
  00033	e9 00 00 00 00	 jmp	 ??1?$_com_ptr_t@V?$_com_IIID@U_Connection@ADOCG@@$1?_GUID_00000550_0000_0010_8000_00aa006d2ea4@@3U__s_GUID@@B@@@@QAE@XZ ; _com_ptr_t<_com_IIID<ADOCG::_Connection,&_GUID_00000550_0000_0010_8000_00aa006d2ea4> >::~_com_ptr_t<_com_IIID<ADOCG::_Connection,&_GUID_00000550_0000_0010_8000_00aa006d2ea4> >
__ehhandler$??0CDataBase@@QAE@XZ:
  00038	8b 54 24 08	 mov	 edx, DWORD PTR [esp+8]
  0003c	8d 42 0c	 lea	 eax, DWORD PTR [edx+12]
  0003f	8b 4a a4	 mov	 ecx, DWORD PTR [edx-92]
  00042	33 c8		 xor	 ecx, eax
  00044	e8 00 00 00 00	 call	 @__security_check_cookie@4
  00049	b8 00 00 00 00	 mov	 eax, OFFSET __ehfuncinfo$??0CDataBase@@QAE@XZ
  0004e	e9 00 00 00 00	 jmp	 ___CxxFrameHandler3
text$x	ENDS
??0CDataBase@@QAE@XZ ENDP				; CDataBase::CDataBase
; Function compile flags: /Odtp
; File c:\program files (x86)\microsoft visual studio\2017\community\vc\tools\msvc\14.16.27023\include\comip.h
;	COMDAT ?_Release@?$_com_ptr_t@V?$_com_IIID@U_Command@ADOCG@@$1?_GUID_b08400bd_f9d1_4d02_b856_71d5dba123e9@@3U__s_GUID@@B@@@@AAEXXZ
_TEXT	SEGMENT
_this$ = -4						; size = 4
?_Release@?$_com_ptr_t@V?$_com_IIID@U_Command@ADOCG@@$1?_GUID_b08400bd_f9d1_4d02_b856_71d5dba123e9@@3U__s_GUID@@B@@@@AAEXXZ PROC ; _com_ptr_t<_com_IIID<ADOCG::_Command,&_GUID_b08400bd_f9d1_4d02_b856_71d5dba123e9> >::_Release, COMDAT
; _this$ = ecx

; 816  :     {

  00000	55		 push	 ebp
  00001	8b ec		 mov	 ebp, esp
  00003	51		 push	 ecx
  00004	89 4d fc	 mov	 DWORD PTR _this$[ebp], ecx

; 817  :         if (m_pInterface != NULL) {

  00007	8b 45 fc	 mov	 eax, DWORD PTR _this$[ebp]
  0000a	83 38 00	 cmp	 DWORD PTR [eax], 0
  0000d	74 12		 je	 SHORT $LN1@Release

; 818  :             m_pInterface->Release();

  0000f	8b 4d fc	 mov	 ecx, DWORD PTR _this$[ebp]
  00012	8b 11		 mov	 edx, DWORD PTR [ecx]
  00014	8b 45 fc	 mov	 eax, DWORD PTR _this$[ebp]
  00017	8b 08		 mov	 ecx, DWORD PTR [eax]
  00019	8b 12		 mov	 edx, DWORD PTR [edx]
  0001b	51		 push	 ecx
  0001c	8b 42 08	 mov	 eax, DWORD PTR [edx+8]
  0001f	ff d0		 call	 eax
$LN1@Release:
  00021	8b e5		 mov	 esp, ebp
  00023	5d		 pop	 ebp
  00024	c3		 ret	 0
?_Release@?$_com_ptr_t@V?$_com_IIID@U_Command@ADOCG@@$1?_GUID_b08400bd_f9d1_4d02_b856_71d5dba123e9@@3U__s_GUID@@B@@@@AAEXXZ ENDP ; _com_ptr_t<_com_IIID<ADOCG::_Command,&_GUID_b08400bd_f9d1_4d02_b856_71d5dba123e9> >::_Release
_TEXT	ENDS
; Function compile flags: /Odtp
; File c:\program files (x86)\microsoft visual studio\2017\community\vc\tools\msvc\14.16.27023\include\comip.h
;	COMDAT ?CreateInstance@?$_com_ptr_t@V?$_com_IIID@U_Command@ADOCG@@$1?_GUID_b08400bd_f9d1_4d02_b856_71d5dba123e9@@3U__s_GUID@@B@@@@QAEJABU_GUID@@PAUIUnknown@@K@Z
_TEXT	SEGMENT
_pIUnknown$1 = -12					; size = 4
_this$ = -8						; size = 4
_hr$ = -4						; size = 4
_rclsid$ = 8						; size = 4
_pOuter$ = 12						; size = 4
_dwClsContext$ = 16					; size = 4
?CreateInstance@?$_com_ptr_t@V?$_com_IIID@U_Command@ADOCG@@$1?_GUID_b08400bd_f9d1_4d02_b856_71d5dba123e9@@3U__s_GUID@@B@@@@QAEJABU_GUID@@PAUIUnknown@@K@Z PROC ; _com_ptr_t<_com_IIID<ADOCG::_Command,&_GUID_b08400bd_f9d1_4d02_b856_71d5dba123e9> >::CreateInstance, COMDAT
; _this$ = ecx

; 605  :     {

  00000	55		 push	 ebp
  00001	8b ec		 mov	 ebp, esp
  00003	83 ec 0c	 sub	 esp, 12			; 0000000cH
  00006	89 4d f8	 mov	 DWORD PTR _this$[ebp], ecx

; 817  :         if (m_pInterface != NULL) {

  00009	8b 45 f8	 mov	 eax, DWORD PTR _this$[ebp]
  0000c	83 38 00	 cmp	 DWORD PTR [eax], 0
  0000f	74 12		 je	 SHORT $LN8@CreateInst

; 818  :             m_pInterface->Release();

  00011	8b 4d f8	 mov	 ecx, DWORD PTR _this$[ebp]
  00014	8b 11		 mov	 edx, DWORD PTR [ecx]
  00016	8b 45 f8	 mov	 eax, DWORD PTR _this$[ebp]
  00019	8b 08		 mov	 ecx, DWORD PTR [eax]
  0001b	8b 12		 mov	 edx, DWORD PTR [edx]
  0001d	51		 push	 ecx
  0001e	8b 42 08	 mov	 eax, DWORD PTR [edx+8]
  00021	ff d0		 call	 eax
$LN8@CreateInst:

; 606  :         HRESULT hr;

  00023	8b 4d 10	 mov	 ecx, DWORD PTR _dwClsContext$[ebp]
  00026	83 e1 14	 and	 ecx, 20			; 00000014H
  00029	74 60		 je	 SHORT $LN15@CreateInst

; 607  : 
; 608  :         _Release();
; 609  : 
; 610  :         if (dwClsContext & (CLSCTX_LOCAL_SERVER | CLSCTX_REMOTE_SERVER)) {
; 611  :             IUnknown* pIUnknown;

  0002b	8d 55 f4	 lea	 edx, DWORD PTR _pIUnknown$1[ebp]
  0002e	52		 push	 edx
  0002f	68 00 00 00 00	 push	 OFFSET __GUID_00000000_0000_0000_c000_000000000046
  00034	8b 45 10	 mov	 eax, DWORD PTR _dwClsContext$[ebp]
  00037	50		 push	 eax
  00038	8b 4d 0c	 mov	 ecx, DWORD PTR _pOuter$[ebp]
  0003b	51		 push	 ecx
  0003c	8b 55 08	 mov	 edx, DWORD PTR _rclsid$[ebp]
  0003f	52		 push	 edx
  00040	ff 15 00 00 00
	00		 call	 DWORD PTR __imp__CoCreateInstance@20
  00046	89 45 fc	 mov	 DWORD PTR _hr$[ebp], eax
  00049	83 7d fc 00	 cmp	 DWORD PTR _hr$[ebp], 0
  0004d	7c 3a		 jl	 SHORT $LN4@CreateInst

; 612  :             hr = CoCreateInstance(rclsid, pOuter, dwClsContext, __uuidof(IUnknown), reinterpret_cast<void**>(&pIUnknown));
; 613  : 
; 614  :             if (SUCCEEDED(hr)) {
; 615  :                 hr = OleRun(pIUnknown);

  0004f	8b 45 f4	 mov	 eax, DWORD PTR _pIUnknown$1[ebp]
  00052	50		 push	 eax
  00053	ff 15 00 00 00
	00		 call	 DWORD PTR __imp__OleRun@4
  00059	89 45 fc	 mov	 DWORD PTR _hr$[ebp], eax
  0005c	83 7d fc 00	 cmp	 DWORD PTR _hr$[ebp], 0
  00060	7c 19		 jl	 SHORT $LN5@CreateInst

; 616  : 
; 617  :                 if (SUCCEEDED(hr)) {
; 618  :                     hr = pIUnknown->QueryInterface(GetIID(), reinterpret_cast<void**>(&m_pInterface));

  00062	8b 4d f8	 mov	 ecx, DWORD PTR _this$[ebp]
  00065	51		 push	 ecx
  00066	68 00 00 00 00	 push	 OFFSET __GUID_b08400bd_f9d1_4d02_b856_71d5dba123e9
  0006b	8b 55 f4	 mov	 edx, DWORD PTR _pIUnknown$1[ebp]
  0006e	8b 02		 mov	 eax, DWORD PTR [edx]
  00070	8b 4d f4	 mov	 ecx, DWORD PTR _pIUnknown$1[ebp]
  00073	51		 push	 ecx
  00074	8b 10		 mov	 edx, DWORD PTR [eax]
  00076	ff d2		 call	 edx
  00078	89 45 fc	 mov	 DWORD PTR _hr$[ebp], eax
$LN5@CreateInst:
  0007b	8b 45 f4	 mov	 eax, DWORD PTR _pIUnknown$1[ebp]
  0007e	8b 08		 mov	 ecx, DWORD PTR [eax]
  00080	8b 55 f4	 mov	 edx, DWORD PTR _pIUnknown$1[ebp]
  00083	52		 push	 edx
  00084	8b 41 08	 mov	 eax, DWORD PTR [ecx+8]
  00087	ff d0		 call	 eax
$LN4@CreateInst:
  00089	eb 1e		 jmp	 SHORT $LN3@CreateInst
$LN15@CreateInst:

; 619  :                 }
; 620  : 
; 621  :                 pIUnknown->Release();
; 622  :             }
; 623  :         }
; 624  :         else {
; 625  :             hr = CoCreateInstance(rclsid, pOuter, dwClsContext, GetIID(), reinterpret_cast<void**>(&m_pInterface));

  0008b	8b 4d f8	 mov	 ecx, DWORD PTR _this$[ebp]
  0008e	51		 push	 ecx
  0008f	68 00 00 00 00	 push	 OFFSET __GUID_b08400bd_f9d1_4d02_b856_71d5dba123e9
  00094	8b 55 10	 mov	 edx, DWORD PTR _dwClsContext$[ebp]
  00097	52		 push	 edx
  00098	8b 45 0c	 mov	 eax, DWORD PTR _pOuter$[ebp]
  0009b	50		 push	 eax
  0009c	8b 4d 08	 mov	 ecx, DWORD PTR _rclsid$[ebp]
  0009f	51		 push	 ecx
  000a0	ff 15 00 00 00
	00		 call	 DWORD PTR __imp__CoCreateInstance@20
  000a6	89 45 fc	 mov	 DWORD PTR _hr$[ebp], eax
$LN3@CreateInst:
  000a9	83 7d fc 00	 cmp	 DWORD PTR _hr$[ebp], 0
  000ad	7d 09		 jge	 SHORT $LN6@CreateInst

; 626  :         }
; 627  : 
; 628  :         if (FAILED(hr)) {
; 629  :             // just in case refcount = 0 and dtor gets called
; 630  :             m_pInterface = NULL;

  000af	8b 55 f8	 mov	 edx, DWORD PTR _this$[ebp]
  000b2	c7 02 00 00 00
	00		 mov	 DWORD PTR [edx], 0
$LN6@CreateInst:
  000b8	8b 45 fc	 mov	 eax, DWORD PTR _hr$[ebp]
  000bb	8b e5		 mov	 esp, ebp
  000bd	5d		 pop	 ebp
  000be	c2 0c 00	 ret	 12			; 0000000cH
?CreateInstance@?$_com_ptr_t@V?$_com_IIID@U_Command@ADOCG@@$1?_GUID_b08400bd_f9d1_4d02_b856_71d5dba123e9@@3U__s_GUID@@B@@@@QAEJABU_GUID@@PAUIUnknown@@K@Z ENDP ; _com_ptr_t<_com_IIID<ADOCG::_Command,&_GUID_b08400bd_f9d1_4d02_b856_71d5dba123e9> >::CreateInstance
_TEXT	ENDS
; Function compile flags: /Odtp
; File c:\program files (x86)\microsoft visual studio\2017\community\vc\tools\msvc\14.16.27023\include\comip.h
;	COMDAT ?Release@?$_com_ptr_t@V?$_com_IIID@U_Command@ADOCG@@$1?_GUID_b08400bd_f9d1_4d02_b856_71d5dba123e9@@3U__s_GUID@@B@@@@QAEXXZ
_TEXT	SEGMENT
_this$ = -4						; size = 4
?Release@?$_com_ptr_t@V?$_com_IIID@U_Command@ADOCG@@$1?_GUID_b08400bd_f9d1_4d02_b856_71d5dba123e9@@3U__s_GUID@@B@@@@QAEXXZ PROC ; _com_ptr_t<_com_IIID<ADOCG::_Command,&_GUID_b08400bd_f9d1_4d02_b856_71d5dba123e9> >::Release, COMDAT
; _this$ = ecx

; 565  :     {

  00000	55		 push	 ebp
  00001	8b ec		 mov	 ebp, esp
  00003	51		 push	 ecx
  00004	89 4d fc	 mov	 DWORD PTR _this$[ebp], ecx

; 566  :         if (m_pInterface == NULL) {

  00007	8b 45 fc	 mov	 eax, DWORD PTR _this$[ebp]
  0000a	83 38 00	 cmp	 DWORD PTR [eax], 0
  0000d	75 0c		 jne	 SHORT $LN2@Release

; 567  :             _com_issue_error(E_POINTER);

  0000f	68 03 40 00 80	 push	 -2147467261		; 80004003H
  00014	e8 00 00 00 00	 call	 ?_com_issue_error@@YGXJ@Z ; _com_issue_error
  00019	eb 1b		 jmp	 SHORT $LN4@Release
$LN2@Release:

; 568  :         }
; 569  :         else {
; 570  :             m_pInterface->Release();

  0001b	8b 4d fc	 mov	 ecx, DWORD PTR _this$[ebp]
  0001e	8b 11		 mov	 edx, DWORD PTR [ecx]
  00020	8b 45 fc	 mov	 eax, DWORD PTR _this$[ebp]
  00023	8b 08		 mov	 ecx, DWORD PTR [eax]
  00025	8b 12		 mov	 edx, DWORD PTR [edx]
  00027	51		 push	 ecx
  00028	8b 42 08	 mov	 eax, DWORD PTR [edx+8]
  0002b	ff d0		 call	 eax
  0002d	8b 4d fc	 mov	 ecx, DWORD PTR _this$[ebp]
  00030	c7 01 00 00 00
	00		 mov	 DWORD PTR [ecx], 0
$LN4@Release:
  00036	8b e5		 mov	 esp, ebp
  00038	5d		 pop	 ebp
  00039	c3		 ret	 0
?Release@?$_com_ptr_t@V?$_com_IIID@U_Command@ADOCG@@$1?_GUID_b08400bd_f9d1_4d02_b856_71d5dba123e9@@3U__s_GUID@@B@@@@QAEXXZ ENDP ; _com_ptr_t<_com_IIID<ADOCG::_Command,&_GUID_b08400bd_f9d1_4d02_b856_71d5dba123e9> >::Release
_TEXT	ENDS
; Function compile flags: /Odtp
; File c:\program files (x86)\microsoft visual studio\2017\community\vc\tools\msvc\14.16.27023\include\comip.h
;	COMDAT ??9?$_com_ptr_t@V?$_com_IIID@U_Command@ADOCG@@$1?_GUID_b08400bd_f9d1_4d02_b856_71d5dba123e9@@3U__s_GUID@@B@@@@QBE_NH@Z
_TEXT	SEGMENT
_this$ = -16						; size = 4
tv69 = -12						; size = 4
tv75 = -8						; size = 4
$T1 = -1						; size = 1
_null$ = 8						; size = 4
??9?$_com_ptr_t@V?$_com_IIID@U_Command@ADOCG@@$1?_GUID_b08400bd_f9d1_4d02_b856_71d5dba123e9@@3U__s_GUID@@B@@@@QBE_NH@Z PROC ; _com_ptr_t<_com_IIID<ADOCG::_Command,&_GUID_b08400bd_f9d1_4d02_b856_71d5dba123e9> >::operator!=, COMDAT
; _this$ = ecx

; 502  :     {

  00000	55		 push	 ebp
  00001	8b ec		 mov	 ebp, esp
  00003	83 ec 10	 sub	 esp, 16			; 00000010H
  00006	89 4d f0	 mov	 DWORD PTR _this$[ebp], ecx

; 478  :         if (null != 0) {

  00009	83 7d 08 00	 cmp	 DWORD PTR _null$[ebp], 0
  0000d	74 0a		 je	 SHORT $LN6@operator

; 479  :             _com_issue_error(E_POINTER);

  0000f	68 03 40 00 80	 push	 -2147467261		; 80004003H
  00014	e8 00 00 00 00	 call	 ?_com_issue_error@@YGXJ@Z ; _com_issue_error
$LN6@operator:
  00019	8b 45 f0	 mov	 eax, DWORD PTR _this$[ebp]
  0001c	83 38 00	 cmp	 DWORD PTR [eax], 0
  0001f	75 09		 jne	 SHORT $LN8@operator
  00021	c7 45 f8 01 00
	00 00		 mov	 DWORD PTR tv75[ebp], 1
  00028	eb 07		 jmp	 SHORT $LN9@operator
$LN8@operator:
  0002a	c7 45 f8 00 00
	00 00		 mov	 DWORD PTR tv75[ebp], 0
$LN9@operator:
  00031	8a 4d f8	 mov	 cl, BYTE PTR tv75[ebp]
  00034	88 4d ff	 mov	 BYTE PTR $T1[ebp], cl

; 503  :         return !(operator==(null));

  00037	0f b6 55 ff	 movzx	 edx, BYTE PTR $T1[ebp]
  0003b	85 d2		 test	 edx, edx
  0003d	75 09		 jne	 SHORT $LN3@operator
  0003f	c7 45 f4 01 00
	00 00		 mov	 DWORD PTR tv69[ebp], 1
  00046	eb 07		 jmp	 SHORT $LN4@operator
$LN3@operator:
  00048	c7 45 f4 00 00
	00 00		 mov	 DWORD PTR tv69[ebp], 0
$LN4@operator:
  0004f	8a 45 f4	 mov	 al, BYTE PTR tv69[ebp]
$LN10@operator:
  00052	8b e5		 mov	 esp, ebp
  00054	5d		 pop	 ebp
  00055	c2 04 00	 ret	 4
??9?$_com_ptr_t@V?$_com_IIID@U_Command@ADOCG@@$1?_GUID_b08400bd_f9d1_4d02_b856_71d5dba123e9@@3U__s_GUID@@B@@@@QBE_NH@Z ENDP ; _com_ptr_t<_com_IIID<ADOCG::_Command,&_GUID_b08400bd_f9d1_4d02_b856_71d5dba123e9> >::operator!=
_TEXT	ENDS
; Function compile flags: /Odtp
; File c:\program files (x86)\microsoft visual studio\2017\community\vc\tools\msvc\14.16.27023\include\comip.h
;	COMDAT ??8?$_com_ptr_t@V?$_com_IIID@U_Command@ADOCG@@$1?_GUID_b08400bd_f9d1_4d02_b856_71d5dba123e9@@3U__s_GUID@@B@@@@QBE_NH@Z
_TEXT	SEGMENT
_this$ = -8						; size = 4
tv68 = -4						; size = 4
_null$ = 8						; size = 4
??8?$_com_ptr_t@V?$_com_IIID@U_Command@ADOCG@@$1?_GUID_b08400bd_f9d1_4d02_b856_71d5dba123e9@@3U__s_GUID@@B@@@@QBE_NH@Z PROC ; _com_ptr_t<_com_IIID<ADOCG::_Command,&_GUID_b08400bd_f9d1_4d02_b856_71d5dba123e9> >::operator==, COMDAT
; _this$ = ecx

; 477  :     {

  00000	55		 push	 ebp
  00001	8b ec		 mov	 ebp, esp
  00003	83 ec 08	 sub	 esp, 8
  00006	89 4d f8	 mov	 DWORD PTR _this$[ebp], ecx

; 478  :         if (null != 0) {

  00009	83 7d 08 00	 cmp	 DWORD PTR _null$[ebp], 0
  0000d	74 0a		 je	 SHORT $LN2@operator

; 479  :             _com_issue_error(E_POINTER);

  0000f	68 03 40 00 80	 push	 -2147467261		; 80004003H
  00014	e8 00 00 00 00	 call	 ?_com_issue_error@@YGXJ@Z ; _com_issue_error
$LN2@operator:
  00019	8b 45 f8	 mov	 eax, DWORD PTR _this$[ebp]
  0001c	83 38 00	 cmp	 DWORD PTR [eax], 0
  0001f	75 09		 jne	 SHORT $LN4@operator
  00021	c7 45 fc 01 00
	00 00		 mov	 DWORD PTR tv68[ebp], 1
  00028	eb 07		 jmp	 SHORT $LN5@operator
$LN4@operator:
  0002a	c7 45 fc 00 00
	00 00		 mov	 DWORD PTR tv68[ebp], 0
$LN5@operator:
  00031	8a 45 fc	 mov	 al, BYTE PTR tv68[ebp]
$LN3@operator:
  00034	8b e5		 mov	 esp, ebp
  00036	5d		 pop	 ebp
  00037	c2 04 00	 ret	 4
??8?$_com_ptr_t@V?$_com_IIID@U_Command@ADOCG@@$1?_GUID_b08400bd_f9d1_4d02_b856_71d5dba123e9@@3U__s_GUID@@B@@@@QBE_NH@Z ENDP ; _com_ptr_t<_com_IIID<ADOCG::_Command,&_GUID_b08400bd_f9d1_4d02_b856_71d5dba123e9> >::operator==
_TEXT	ENDS
; Function compile flags: /Odtp
; File c:\program files (x86)\microsoft visual studio\2017\community\vc\tools\msvc\14.16.27023\include\comip.h
;	COMDAT ??C?$_com_ptr_t@V?$_com_IIID@U_Command@ADOCG@@$1?_GUID_b08400bd_f9d1_4d02_b856_71d5dba123e9@@3U__s_GUID@@B@@@@QBEPAU_Command@ADOCG@@XZ
_TEXT	SEGMENT
_this$ = -4						; size = 4
??C?$_com_ptr_t@V?$_com_IIID@U_Command@ADOCG@@$1?_GUID_b08400bd_f9d1_4d02_b856_71d5dba123e9@@3U__s_GUID@@B@@@@QBEPAU_Command@ADOCG@@XZ PROC ; _com_ptr_t<_com_IIID<ADOCG::_Command,&_GUID_b08400bd_f9d1_4d02_b856_71d5dba123e9> >::operator->, COMDAT
; _this$ = ecx

; 427  :     {

  00000	55		 push	 ebp
  00001	8b ec		 mov	 ebp, esp
  00003	51		 push	 ecx
  00004	89 4d fc	 mov	 DWORD PTR _this$[ebp], ecx

; 428  :         if (m_pInterface == NULL) {

  00007	8b 45 fc	 mov	 eax, DWORD PTR _this$[ebp]
  0000a	83 38 00	 cmp	 DWORD PTR [eax], 0
  0000d	75 0a		 jne	 SHORT $LN2@operator

; 429  :             _com_issue_error(E_POINTER);

  0000f	68 03 40 00 80	 push	 -2147467261		; 80004003H
  00014	e8 00 00 00 00	 call	 ?_com_issue_error@@YGXJ@Z ; _com_issue_error
$LN2@operator:
  00019	8b 4d fc	 mov	 ecx, DWORD PTR _this$[ebp]
  0001c	8b 01		 mov	 eax, DWORD PTR [ecx]
$LN3@operator:
  0001e	8b e5		 mov	 esp, ebp
  00020	5d		 pop	 ebp
  00021	c3		 ret	 0
??C?$_com_ptr_t@V?$_com_IIID@U_Command@ADOCG@@$1?_GUID_b08400bd_f9d1_4d02_b856_71d5dba123e9@@3U__s_GUID@@B@@@@QBEPAU_Command@ADOCG@@XZ ENDP ; _com_ptr_t<_com_IIID<ADOCG::_Command,&_GUID_b08400bd_f9d1_4d02_b856_71d5dba123e9> >::operator->
_TEXT	ENDS
; Function compile flags: /Odtp
; File c:\program files (x86)\microsoft visual studio\2017\community\vc\tools\msvc\14.16.27023\include\comip.h
;	COMDAT ??B?$_com_ptr_t@V?$_com_IIID@U_Command@ADOCG@@$1?_GUID_b08400bd_f9d1_4d02_b856_71d5dba123e9@@3U__s_GUID@@B@@@@QBEPAU_Command@ADOCG@@XZ
_TEXT	SEGMENT
_this$ = -4						; size = 4
??B?$_com_ptr_t@V?$_com_IIID@U_Command@ADOCG@@$1?_GUID_b08400bd_f9d1_4d02_b856_71d5dba123e9@@3U__s_GUID@@B@@@@QBEPAU_Command@ADOCG@@XZ PROC ; _com_ptr_t<_com_IIID<ADOCG::_Command,&_GUID_b08400bd_f9d1_4d02_b856_71d5dba123e9> >::operator ADOCG::_Command *, COMDAT
; _this$ = ecx

; 384  :     {

  00000	55		 push	 ebp
  00001	8b ec		 mov	 ebp, esp
  00003	51		 push	 ecx
  00004	89 4d fc	 mov	 DWORD PTR _this$[ebp], ecx

; 385  :         return m_pInterface;

  00007	8b 45 fc	 mov	 eax, DWORD PTR _this$[ebp]
  0000a	8b 00		 mov	 eax, DWORD PTR [eax]
  0000c	8b e5		 mov	 esp, ebp
  0000e	5d		 pop	 ebp
  0000f	c3		 ret	 0
??B?$_com_ptr_t@V?$_com_IIID@U_Command@ADOCG@@$1?_GUID_b08400bd_f9d1_4d02_b856_71d5dba123e9@@3U__s_GUID@@B@@@@QBEPAU_Command@ADOCG@@XZ ENDP ; _com_ptr_t<_com_IIID<ADOCG::_Command,&_GUID_b08400bd_f9d1_4d02_b856_71d5dba123e9> >::operator ADOCG::_Command *
_TEXT	ENDS
; Function compile flags: /Odtp
; File c:\program files (x86)\microsoft visual studio\2017\community\vc\tools\msvc\14.16.27023\include\comip.h
;	COMDAT ??1?$_com_ptr_t@V?$_com_IIID@U_Command@ADOCG@@$1?_GUID_b08400bd_f9d1_4d02_b856_71d5dba123e9@@3U__s_GUID@@B@@@@QAE@XZ
_TEXT	SEGMENT
_this$ = -4						; size = 4
??1?$_com_ptr_t@V?$_com_IIID@U_Command@ADOCG@@$1?_GUID_b08400bd_f9d1_4d02_b856_71d5dba123e9@@3U__s_GUID@@B@@@@QAE@XZ PROC ; _com_ptr_t<_com_IIID<ADOCG::_Command,&_GUID_b08400bd_f9d1_4d02_b856_71d5dba123e9> >::~_com_ptr_t<_com_IIID<ADOCG::_Command,&_GUID_b08400bd_f9d1_4d02_b856_71d5dba123e9> >, COMDAT
; _this$ = ecx

; 341  :     {

  00000	55		 push	 ebp
  00001	8b ec		 mov	 ebp, esp
  00003	51		 push	 ecx
  00004	89 4d fc	 mov	 DWORD PTR _this$[ebp], ecx

; 817  :         if (m_pInterface != NULL) {

  00007	8b 45 fc	 mov	 eax, DWORD PTR _this$[ebp]
  0000a	83 38 00	 cmp	 DWORD PTR [eax], 0
  0000d	74 12		 je	 SHORT $LN1@com_ptr_t

; 818  :             m_pInterface->Release();

  0000f	8b 4d fc	 mov	 ecx, DWORD PTR _this$[ebp]
  00012	8b 11		 mov	 edx, DWORD PTR [ecx]
  00014	8b 45 fc	 mov	 eax, DWORD PTR _this$[ebp]
  00017	8b 08		 mov	 ecx, DWORD PTR [eax]
  00019	8b 12		 mov	 edx, DWORD PTR [edx]
  0001b	51		 push	 ecx
  0001c	8b 42 08	 mov	 eax, DWORD PTR [edx+8]
  0001f	ff d0		 call	 eax
$LN1@com_ptr_t:

; 342  :         _Release();

  00021	8b e5		 mov	 esp, ebp
  00023	5d		 pop	 ebp
  00024	c3		 ret	 0
??1?$_com_ptr_t@V?$_com_IIID@U_Command@ADOCG@@$1?_GUID_b08400bd_f9d1_4d02_b856_71d5dba123e9@@3U__s_GUID@@B@@@@QAE@XZ ENDP ; _com_ptr_t<_com_IIID<ADOCG::_Command,&_GUID_b08400bd_f9d1_4d02_b856_71d5dba123e9> >::~_com_ptr_t<_com_IIID<ADOCG::_Command,&_GUID_b08400bd_f9d1_4d02_b856_71d5dba123e9> >
_TEXT	ENDS
; Function compile flags: /Odtp
; File c:\program files (x86)\microsoft visual studio\2017\community\vc\tools\msvc\14.16.27023\include\comip.h
;	COMDAT ??0?$_com_ptr_t@V?$_com_IIID@U_Command@ADOCG@@$1?_GUID_b08400bd_f9d1_4d02_b856_71d5dba123e9@@3U__s_GUID@@B@@@@QAE@XZ
_TEXT	SEGMENT
_this$ = -4						; size = 4
??0?$_com_ptr_t@V?$_com_IIID@U_Command@ADOCG@@$1?_GUID_b08400bd_f9d1_4d02_b856_71d5dba123e9@@3U__s_GUID@@B@@@@QAE@XZ PROC ; _com_ptr_t<_com_IIID<ADOCG::_Command,&_GUID_b08400bd_f9d1_4d02_b856_71d5dba123e9> >::_com_ptr_t<_com_IIID<ADOCG::_Command,&_GUID_b08400bd_f9d1_4d02_b856_71d5dba123e9> >, COMDAT
; _this$ = ecx

; 135  :     {

  00000	55		 push	 ebp
  00001	8b ec		 mov	 ebp, esp
  00003	51		 push	 ecx
  00004	89 4d fc	 mov	 DWORD PTR _this$[ebp], ecx

; 134  :         : m_pInterface(NULL)

  00007	8b 45 fc	 mov	 eax, DWORD PTR _this$[ebp]
  0000a	c7 00 00 00 00
	00		 mov	 DWORD PTR [eax], 0

; 136  :     }

  00010	8b 45 fc	 mov	 eax, DWORD PTR _this$[ebp]
  00013	8b e5		 mov	 esp, ebp
  00015	5d		 pop	 ebp
  00016	c3		 ret	 0
??0?$_com_ptr_t@V?$_com_IIID@U_Command@ADOCG@@$1?_GUID_b08400bd_f9d1_4d02_b856_71d5dba123e9@@3U__s_GUID@@B@@@@QAE@XZ ENDP ; _com_ptr_t<_com_IIID<ADOCG::_Command,&_GUID_b08400bd_f9d1_4d02_b856_71d5dba123e9> >::_com_ptr_t<_com_IIID<ADOCG::_Command,&_GUID_b08400bd_f9d1_4d02_b856_71d5dba123e9> >
_TEXT	ENDS
; Function compile flags: /Odtp
; File c:\program files (x86)\microsoft visual studio\2017\community\vc\tools\msvc\14.16.27023\include\comip.h
;	COMDAT ?GetIID@?$_com_ptr_t@V?$_com_IIID@U_Command@ADOCG@@$1?_GUID_b08400bd_f9d1_4d02_b856_71d5dba123e9@@3U__s_GUID@@B@@@@SAABU_GUID@@XZ
_TEXT	SEGMENT
?GetIID@?$_com_ptr_t@V?$_com_IIID@U_Command@ADOCG@@$1?_GUID_b08400bd_f9d1_4d02_b856_71d5dba123e9@@3U__s_GUID@@B@@@@SAABU_GUID@@XZ PROC ; _com_ptr_t<_com_IIID<ADOCG::_Command,&_GUID_b08400bd_f9d1_4d02_b856_71d5dba123e9> >::GetIID, COMDAT

; 74   :     {

  00000	55		 push	 ebp
  00001	8b ec		 mov	 ebp, esp

; 75   :         return ThisIIID::GetIID();

  00003	b8 00 00 00 00	 mov	 eax, OFFSET __GUID_b08400bd_f9d1_4d02_b856_71d5dba123e9
  00008	5d		 pop	 ebp
  00009	c3		 ret	 0
?GetIID@?$_com_ptr_t@V?$_com_IIID@U_Command@ADOCG@@$1?_GUID_b08400bd_f9d1_4d02_b856_71d5dba123e9@@3U__s_GUID@@B@@@@SAABU_GUID@@XZ ENDP ; _com_ptr_t<_com_IIID<ADOCG::_Command,&_GUID_b08400bd_f9d1_4d02_b856_71d5dba123e9> >::GetIID
_TEXT	ENDS
; Function compile flags: /Odtp
; File c:\program files (x86)\microsoft visual studio\2017\community\vc\tools\msvc\14.16.27023\include\comip.h
;	COMDAT ?GetIID@?$_com_IIID@U_Command@ADOCG@@$1?_GUID_b08400bd_f9d1_4d02_b856_71d5dba123e9@@3U__s_GUID@@B@@SAABU_GUID@@XZ
_TEXT	SEGMENT
?GetIID@?$_com_IIID@U_Command@ADOCG@@$1?_GUID_b08400bd_f9d1_4d02_b856_71d5dba123e9@@3U__s_GUID@@B@@SAABU_GUID@@XZ PROC ; _com_IIID<ADOCG::_Command,&_GUID_b08400bd_f9d1_4d02_b856_71d5dba123e9>::GetIID, COMDAT

; 55   :     {

  00000	55		 push	 ebp
  00001	8b ec		 mov	 ebp, esp

; 56   :         return *_IID;

  00003	b8 00 00 00 00	 mov	 eax, OFFSET __GUID_b08400bd_f9d1_4d02_b856_71d5dba123e9
  00008	5d		 pop	 ebp
  00009	c3		 ret	 0
?GetIID@?$_com_IIID@U_Command@ADOCG@@$1?_GUID_b08400bd_f9d1_4d02_b856_71d5dba123e9@@3U__s_GUID@@B@@SAABU_GUID@@XZ ENDP ; _com_IIID<ADOCG::_Command,&_GUID_b08400bd_f9d1_4d02_b856_71d5dba123e9>::GetIID
_TEXT	ENDS
; Function compile flags: /Odtp
;	COMDAT ??_GCDataBaseException@@UAEPAXI@Z
_TEXT	SEGMENT
_this$ = -4						; size = 4
___flags$ = 8						; size = 4
??_GCDataBaseException@@UAEPAXI@Z PROC			; CDataBaseException::`scalar deleting destructor', COMDAT
; _this$ = ecx
  00000	55		 push	 ebp
  00001	8b ec		 mov	 ebp, esp
  00003	51		 push	 ecx
  00004	89 4d fc	 mov	 DWORD PTR _this$[ebp], ecx
  00007	8b 4d fc	 mov	 ecx, DWORD PTR _this$[ebp]
  0000a	e8 00 00 00 00	 call	 ??1CDataBaseException@@UAE@XZ ; CDataBaseException::~CDataBaseException
  0000f	8b 45 08	 mov	 eax, DWORD PTR ___flags$[ebp]
  00012	83 e0 01	 and	 eax, 1
  00015	74 0e		 je	 SHORT $LN2@scalar
  00017	6a 10		 push	 16			; 00000010H
  00019	8b 4d fc	 mov	 ecx, DWORD PTR _this$[ebp]
  0001c	51		 push	 ecx
  0001d	e8 00 00 00 00	 call	 ??3@YAXPAXI@Z		; operator delete
  00022	83 c4 08	 add	 esp, 8
$LN2@scalar:
  00025	8b 45 fc	 mov	 eax, DWORD PTR _this$[ebp]
  00028	8b e5		 mov	 esp, ebp
  0002a	5d		 pop	 ebp
  0002b	c2 04 00	 ret	 4
??_GCDataBaseException@@UAEPAXI@Z ENDP			; CDataBaseException::`scalar deleting destructor'
_TEXT	ENDS
; Function compile flags: /Odtp
; File g:\网狐\happygamewh\服务端\系统模块\服务器组件\内核引擎\databaseengine.cpp
; File c:\program files (x86)\microsoft visual studio\2017\community\vc\tools\msvc\14.16.27023\include\comdef.h
; File g:\网狐\happygamewh\服务端\系统模块\服务器组件\内核引擎\databaseengine.cpp
; File c:\program files (x86)\microsoft visual studio\2017\community\vc\tools\msvc\14.16.27023\include\comdef.h
; File g:\网狐\happygamewh\服务端\系统模块\服务器组件\内核引擎\databaseengine.cpp
; File c:\program files (x86)\microsoft visual studio\2017\community\vc\tools\msvc\14.16.27023\include\comutil.h
; File g:\网狐\happygamewh\服务端\系统模块\服务器组件\内核引擎\databaseengine.cpp
;	COMDAT ?SetExceptionInfo@CDataBaseException@@QAEXW4enSQLException@@PAV_com_error@@@Z
_TEXT	SEGMENT
$T2 = -40						; size = 4
tv90 = -36						; size = 4
$T3 = -32						; size = 4
tv83 = -28						; size = 4
$T4 = -24						; size = 4
$T5 = -20						; size = 4
_this$ = -16						; size = 4
__$EHRec$ = -12						; size = 12
_SQLException$ = 8					; size = 4
_pComError$ = 12					; size = 4
?SetExceptionInfo@CDataBaseException@@QAEXW4enSQLException@@PAV_com_error@@@Z PROC ; CDataBaseException::SetExceptionInfo, COMDAT
; _this$ = ecx

; 41   : {

  00000	55		 push	 ebp
  00001	8b ec		 mov	 ebp, esp
  00003	6a ff		 push	 -1
  00005	68 00 00 00 00	 push	 __ehhandler$?SetExceptionInfo@CDataBaseException@@QAEXW4enSQLException@@PAV_com_error@@@Z
  0000a	64 a1 00 00 00
	00		 mov	 eax, DWORD PTR fs:0
  00010	50		 push	 eax
  00011	83 ec 1c	 sub	 esp, 28			; 0000001cH
  00014	a1 00 00 00 00	 mov	 eax, DWORD PTR ___security_cookie
  00019	33 c5		 xor	 eax, ebp
  0001b	50		 push	 eax
  0001c	8d 45 f4	 lea	 eax, DWORD PTR __$EHRec$[ebp]
  0001f	64 a3 00 00 00
	00		 mov	 DWORD PTR fs:0, eax
  00025	89 4d f0	 mov	 DWORD PTR _this$[ebp], ecx
  00028	c7 45 d8 00 00
	00 00		 mov	 DWORD PTR $T2[ebp], 0

; 42   :     // 效验参数
; 43   :     ASSERT(pComError != NULL);

  0002f	83 7d 0c 00	 cmp	 DWORD PTR _pComError$[ebp], 0
  00033	75 11		 jne	 SHORT $LN4@SetExcepti
  00035	6a 2b		 push	 43			; 0000002bH
  00037	68 00 00 00 00	 push	 OFFSET ??_C@_0EL@CJALAN@g?3?2?M?x?$LK?$PM?2happygamewh?2?$LH?$PO?N?q?$LG?K?2?O?$LF?M?$LD@
  0003c	e8 00 00 00 00	 call	 ?AfxAssertFailedLine@@YGHPBDH@Z ; AfxAssertFailedLine
  00041	85 c0		 test	 eax, eax
  00043	74 01		 je	 SHORT $LN4@SetExcepti
  00045	cc		 int	 3
$LN4@SetExcepti:

; 44   :     if (pComError == NULL)

  00046	83 7d 0c 00	 cmp	 DWORD PTR _pComError$[ebp], 0
  0004a	75 02		 jne	 SHORT $LN2@SetExcepti

; 45   :         return;

  0004c	eb 7e		 jmp	 SHORT $LN1@SetExcepti
$LN2@SetExcepti:

; 46   : 
; 47   :     // 设置信息
; 48   :     m_SQLException = SQLException;

  0004e	8b 4d f0	 mov	 ecx, DWORD PTR _this$[ebp]
  00051	8b 55 08	 mov	 edx, DWORD PTR _SQLException$[ebp]
  00054	89 51 08	 mov	 DWORD PTR [ecx+8], edx
; File c:\program files (x86)\microsoft visual studio\2017\community\vc\tools\msvc\14.16.27023\include\comdef.h

; 336  :     return m_hresult;

  00057	8b 45 0c	 mov	 eax, DWORD PTR _pComError$[ebp]
  0005a	8b 48 04	 mov	 ecx, DWORD PTR [eax+4]
  0005d	89 4d e8	 mov	 DWORD PTR $T4[ebp], ecx
; File g:\网狐\happygamewh\服务端\系统模块\服务器组件\内核引擎\databaseengine.cpp

; 49   :     m_hResult = pComError->Error();

  00060	8b 55 f0	 mov	 edx, DWORD PTR _this$[ebp]
  00063	8b 45 e8	 mov	 eax, DWORD PTR $T4[ebp]
  00066	89 42 04	 mov	 DWORD PTR [edx+4], eax

; 50   :     m_strDescribe.Format(TEXT("数据库异常：%s [ 0x%8x ]"), (LPCTSTR)(pComError->Description()), pComError->Error());

  00069	8d 4d ec	 lea	 ecx, DWORD PTR $T5[ebp]
  0006c	51		 push	 ecx
  0006d	8b 4d 0c	 mov	 ecx, DWORD PTR _pComError$[ebp]
  00070	e8 00 00 00 00	 call	 ?Description@_com_error@@QBE?AV_bstr_t@@XZ ; _com_error::Description
  00075	89 45 e4	 mov	 DWORD PTR tv83[ebp], eax
  00078	8b 55 e4	 mov	 edx, DWORD PTR tv83[ebp]
  0007b	89 55 dc	 mov	 DWORD PTR tv90[ebp], edx
  0007e	c7 45 fc 00 00
	00 00		 mov	 DWORD PTR __$EHRec$[ebp+8], 0
; File c:\program files (x86)\microsoft visual studio\2017\community\vc\tools\msvc\14.16.27023\include\comdef.h

; 336  :     return m_hresult;

  00085	8b 45 0c	 mov	 eax, DWORD PTR _pComError$[ebp]
  00088	8b 48 04	 mov	 ecx, DWORD PTR [eax+4]
  0008b	89 4d e0	 mov	 DWORD PTR $T3[ebp], ecx
; File g:\网狐\happygamewh\服务端\系统模块\服务器组件\内核引擎\databaseengine.cpp

; 50   :     m_strDescribe.Format(TEXT("数据库异常：%s [ 0x%8x ]"), (LPCTSTR)(pComError->Description()), pComError->Error());

  0008e	8b 55 e0	 mov	 edx, DWORD PTR $T3[ebp]
  00091	52		 push	 edx
  00092	8b 4d dc	 mov	 ecx, DWORD PTR tv90[ebp]
  00095	e8 00 00 00 00	 call	 ??B_bstr_t@@QBEPBDXZ	; _bstr_t::operator char const *
  0009a	50		 push	 eax
  0009b	68 00 00 00 00	 push	 OFFSET ??_C@_0BJ@LMLDDKOC@?J?$PN?$LO?$NN?$LP?b?R?l?$LD?$KD?$KD?$LK?$CFs?5?$FL?50x?$CF8x?5?$FN@
  000a0	8b 45 f0	 mov	 eax, DWORD PTR _this$[ebp]
  000a3	83 c0 0c	 add	 eax, 12			; 0000000cH
  000a6	50		 push	 eax
  000a7	ff 15 00 00 00
	00		 call	 DWORD PTR __imp_?Format@?$CStringT@DV?$StrTraitMFC_DLL@DV?$ChTraitsCRT@D@ATL@@@@@ATL@@QAAXPBDZZ
  000ad	83 c4 10	 add	 esp, 16			; 00000010H
  000b0	c7 45 fc ff ff
	ff ff		 mov	 DWORD PTR __$EHRec$[ebp+8], -1
; File c:\program files (x86)\microsoft visual studio\2017\community\vc\tools\msvc\14.16.27023\include\comutil.h

; 637  :     if (m_Data != NULL) {

  000b7	83 7d ec 00	 cmp	 DWORD PTR $T5[ebp], 0
  000bb	74 0f		 je	 SHORT $LN1@SetExcepti

; 638  :         m_Data->Release();

  000bd	8b 4d ec	 mov	 ecx, DWORD PTR $T5[ebp]
  000c0	e8 00 00 00 00	 call	 ?Release@Data_t@_bstr_t@@QAEKXZ ; _bstr_t::Data_t::Release

; 639  :         m_Data = NULL;

  000c5	c7 45 ec 00 00
	00 00		 mov	 DWORD PTR $T5[ebp], 0
$LN1@SetExcepti:
; File g:\网狐\happygamewh\服务端\系统模块\服务器组件\内核引擎\databaseengine.cpp

; 53   : }

  000cc	8b 4d f4	 mov	 ecx, DWORD PTR __$EHRec$[ebp]
  000cf	64 89 0d 00 00
	00 00		 mov	 DWORD PTR fs:0, ecx
  000d6	59		 pop	 ecx
  000d7	8b e5		 mov	 esp, ebp
  000d9	5d		 pop	 ebp
  000da	c2 08 00	 ret	 8
_TEXT	ENDS
;	COMDAT text$x
text$x	SEGMENT
__unwindfunclet$?SetExceptionInfo@CDataBaseException@@QAEXW4enSQLException@@PAV_com_error@@@Z$0:
  00000	8d 4d ec	 lea	 ecx, DWORD PTR $T5[ebp]
  00003	e9 00 00 00 00	 jmp	 ??1_bstr_t@@QAE@XZ	; _bstr_t::~_bstr_t
__ehhandler$?SetExceptionInfo@CDataBaseException@@QAEXW4enSQLException@@PAV_com_error@@@Z:
  00008	8b 54 24 08	 mov	 edx, DWORD PTR [esp+8]
  0000c	8d 42 0c	 lea	 eax, DWORD PTR [edx+12]
  0000f	8b 4a e0	 mov	 ecx, DWORD PTR [edx-32]
  00012	33 c8		 xor	 ecx, eax
  00014	e8 00 00 00 00	 call	 @__security_check_cookie@4
  00019	b8 00 00 00 00	 mov	 eax, OFFSET __ehfuncinfo$?SetExceptionInfo@CDataBaseException@@QAEXW4enSQLException@@PAV_com_error@@@Z
  0001e	e9 00 00 00 00	 jmp	 ___CxxFrameHandler3
text$x	ENDS
?SetExceptionInfo@CDataBaseException@@QAEXW4enSQLException@@PAV_com_error@@@Z ENDP ; CDataBaseException::SetExceptionInfo
; Function compile flags: /Odtp
; File g:\网狐\happygamewh\服务端\系统模块\服务器组件\内核引擎\databaseengine.h
;	COMDAT ?GetExceptionType@CDataBaseException@@UAE?AW4enSQLException@@XZ
_TEXT	SEGMENT
_this$ = -4						; size = 4
?GetExceptionType@CDataBaseException@@UAE?AW4enSQLException@@XZ PROC ; CDataBaseException::GetExceptionType, COMDAT
; _this$ = ecx

; 41   :     virtual enSQLException GetExceptionType() { return m_SQLException; }

  00000	55		 push	 ebp
  00001	8b ec		 mov	 ebp, esp
  00003	51		 push	 ecx
  00004	89 4d fc	 mov	 DWORD PTR _this$[ebp], ecx
  00007	8b 45 fc	 mov	 eax, DWORD PTR _this$[ebp]
  0000a	8b 40 08	 mov	 eax, DWORD PTR [eax+8]
  0000d	8b e5		 mov	 esp, ebp
  0000f	5d		 pop	 ebp
  00010	c3		 ret	 0
?GetExceptionType@CDataBaseException@@UAE?AW4enSQLException@@XZ ENDP ; CDataBaseException::GetExceptionType
_TEXT	ENDS
; Function compile flags: /Odtp
; File g:\网狐\happygamewh\服务端\系统模块\服务器组件\内核引擎\databaseengine.h
;	COMDAT ?GetExceptionDescribe@CDataBaseException@@UAEPBDXZ
_TEXT	SEGMENT
_this$ = -4						; size = 4
?GetExceptionDescribe@CDataBaseException@@UAEPBDXZ PROC	; CDataBaseException::GetExceptionDescribe, COMDAT
; _this$ = ecx

; 39   :     virtual LPCTSTR GetExceptionDescribe() { return m_strDescribe; }

  00000	55		 push	 ebp
  00001	8b ec		 mov	 ebp, esp
  00003	51		 push	 ecx
  00004	89 4d fc	 mov	 DWORD PTR _this$[ebp], ecx
  00007	8b 4d fc	 mov	 ecx, DWORD PTR _this$[ebp]
  0000a	83 c1 0c	 add	 ecx, 12			; 0000000cH
  0000d	ff 15 00 00 00
	00		 call	 DWORD PTR __imp_??B?$CSimpleStringT@D$00@ATL@@QBEPBDXZ
  00013	8b e5		 mov	 esp, ebp
  00015	5d		 pop	 ebp
  00016	c3		 ret	 0
?GetExceptionDescribe@CDataBaseException@@UAEPBDXZ ENDP	; CDataBaseException::GetExceptionDescribe
_TEXT	ENDS
; Function compile flags: /Odtp
; File g:\网狐\happygamewh\服务端\系统模块\服务器组件\内核引擎\databaseengine.h
;	COMDAT ?GetExceptionResult@CDataBaseException@@UAEJXZ
_TEXT	SEGMENT
_this$ = -4						; size = 4
?GetExceptionResult@CDataBaseException@@UAEJXZ PROC	; CDataBaseException::GetExceptionResult, COMDAT
; _this$ = ecx

; 37   :     virtual HRESULT GetExceptionResult() { return m_hResult; }

  00000	55		 push	 ebp
  00001	8b ec		 mov	 ebp, esp
  00003	51		 push	 ecx
  00004	89 4d fc	 mov	 DWORD PTR _this$[ebp], ecx
  00007	8b 45 fc	 mov	 eax, DWORD PTR _this$[ebp]
  0000a	8b 40 04	 mov	 eax, DWORD PTR [eax+4]
  0000d	8b e5		 mov	 esp, ebp
  0000f	5d		 pop	 ebp
  00010	c3		 ret	 0
?GetExceptionResult@CDataBaseException@@UAEJXZ ENDP	; CDataBaseException::GetExceptionResult
_TEXT	ENDS
; Function compile flags: /Odtp
; File g:\网狐\happygamewh\服务端\系统模块\服务器组件\内核引擎\databaseengine.cpp
; File c:\program files (x86)\windows kits\10\include\10.0.17763.0\shared\guiddef.h
; File g:\网狐\happygamewh\服务端\系统模块\服务器组件\内核引擎\databaseengine.cpp
; File c:\program files (x86)\windows kits\10\include\10.0.17763.0\shared\guiddef.h
; File g:\网狐\happygamewh\服务端\系统模块\服务器组件\内核引擎\databaseengine.cpp
;	COMDAT ?QueryInterface@CDataBaseException@@UAEPAXABU_GUID@@K@Z
_TEXT	SEGMENT
tv171 = -28						; size = 4
tv138 = -24						; size = 4
_this$ = -20						; size = 4
tv159 = -16						; size = 4
tv170 = -12						; size = 4
tv132 = -8						; size = 4
tv140 = -4						; size = 4
_Guid$ = 8						; size = 4
_dwQueryVer$ = 12					; size = 4
?QueryInterface@CDataBaseException@@UAEPAXABU_GUID@@K@Z PROC ; CDataBaseException::QueryInterface, COMDAT
; _this$ = ecx

; 33   : {

  00000	55		 push	 ebp
  00001	8b ec		 mov	 ebp, esp
  00003	83 ec 1c	 sub	 esp, 28			; 0000001cH
  00006	89 4d ec	 mov	 DWORD PTR _this$[ebp], ecx
; File c:\program files (x86)\windows kits\10\include\10.0.17763.0\shared\guiddef.h

; 161  :     return !memcmp(&rguid1, &rguid2, sizeof(GUID));

  00009	6a 10		 push	 16			; 00000010H
  0000b	68 00 00 00 00	 push	 OFFSET ?IID_IDataBaseException@@3U_GUID@@B
  00010	8b 45 08	 mov	 eax, DWORD PTR _Guid$[ebp]
  00013	50		 push	 eax
  00014	e8 00 00 00 00	 call	 _memcmp
  00019	83 c4 0c	 add	 esp, 12			; 0000000cH
  0001c	89 45 e8	 mov	 DWORD PTR tv138[ebp], eax
  0001f	83 7d e8 00	 cmp	 DWORD PTR tv138[ebp], 0
  00023	75 09		 jne	 SHORT $LN11@QueryInter
  00025	c7 45 fc 01 00
	00 00		 mov	 DWORD PTR tv140[ebp], 1
  0002c	eb 07		 jmp	 SHORT $LN9@QueryInter
$LN11@QueryInter:
  0002e	c7 45 fc 00 00
	00 00		 mov	 DWORD PTR tv140[ebp], 0
$LN9@QueryInter:

; 194  :     return !!IsEqualGUID(guidOne,guidOther);

  00035	83 7d fc 00	 cmp	 DWORD PTR tv140[ebp], 0
  00039	74 09		 je	 SHORT $LN7@QueryInter
  0003b	c7 45 f8 01 00
	00 00		 mov	 DWORD PTR tv132[ebp], 1
  00042	eb 07		 jmp	 SHORT $LN5@QueryInter
$LN7@QueryInter:
  00044	c7 45 f8 00 00
	00 00		 mov	 DWORD PTR tv132[ebp], 0
$LN5@QueryInter:
; File g:\网狐\happygamewh\服务端\系统模块\服务器组件\内核引擎\databaseengine.cpp

; 34   :     QUERYINTERFACE(IDataBaseException, Guid, dwQueryVer);

  0004b	0f b6 4d f8	 movzx	 ecx, BYTE PTR tv132[ebp]
  0004f	85 c9		 test	 ecx, ecx
  00051	74 1d		 je	 SHORT $LN2@QueryInter
  00053	68 00 01 01 06	 push	 100729088		; 06010100H
  00058	8b 55 0c	 mov	 edx, DWORD PTR _dwQueryVer$[ebp]
  0005b	52		 push	 edx
  0005c	e8 00 00 00 00	 call	 ?InterfaceVersionCompare@@YA_NKK@Z ; InterfaceVersionCompare
  00061	83 c4 08	 add	 esp, 8
  00064	0f b6 c0	 movzx	 eax, al
  00067	85 c0		 test	 eax, eax
  00069	74 05		 je	 SHORT $LN2@QueryInter
  0006b	8b 45 ec	 mov	 eax, DWORD PTR _this$[ebp]
  0006e	eb 69		 jmp	 SHORT $LN1@QueryInter
$LN2@QueryInter:
; File c:\program files (x86)\windows kits\10\include\10.0.17763.0\shared\guiddef.h

; 161  :     return !memcmp(&rguid1, &rguid2, sizeof(GUID));

  00070	6a 10		 push	 16			; 00000010H
  00072	68 00 00 00 00	 push	 OFFSET ?IID_IUnknownEx@@3U_GUID@@B
  00077	8b 4d 08	 mov	 ecx, DWORD PTR _Guid$[ebp]
  0007a	51		 push	 ecx
  0007b	e8 00 00 00 00	 call	 _memcmp
  00080	83 c4 0c	 add	 esp, 12			; 0000000cH
  00083	89 45 e4	 mov	 DWORD PTR tv171[ebp], eax
  00086	83 7d e4 00	 cmp	 DWORD PTR tv171[ebp], 0
  0008a	75 09		 jne	 SHORT $LN41@QueryInter
  0008c	c7 45 f4 01 00
	00 00		 mov	 DWORD PTR tv170[ebp], 1
  00093	eb 07		 jmp	 SHORT $LN39@QueryInter
$LN41@QueryInter:
  00095	c7 45 f4 00 00
	00 00		 mov	 DWORD PTR tv170[ebp], 0
$LN39@QueryInter:

; 194  :     return !!IsEqualGUID(guidOne,guidOther);

  0009c	83 7d f4 00	 cmp	 DWORD PTR tv170[ebp], 0
  000a0	74 09		 je	 SHORT $LN37@QueryInter
  000a2	c7 45 f0 01 00
	00 00		 mov	 DWORD PTR tv159[ebp], 1
  000a9	eb 07		 jmp	 SHORT $LN35@QueryInter
$LN37@QueryInter:
  000ab	c7 45 f0 00 00
	00 00		 mov	 DWORD PTR tv159[ebp], 0
$LN35@QueryInter:
; File g:\网狐\happygamewh\服务端\系统模块\服务器组件\内核引擎\databaseengine.cpp

; 35   :     QUERYINTERFACE_IUNKNOWNEX(IDataBaseException, Guid, dwQueryVer);

  000b2	0f b6 55 f0	 movzx	 edx, BYTE PTR tv159[ebp]
  000b6	85 d2		 test	 edx, edx
  000b8	74 1d		 je	 SHORT $LN3@QueryInter
  000ba	68 00 01 01 06	 push	 100729088		; 06010100H
  000bf	8b 45 0c	 mov	 eax, DWORD PTR _dwQueryVer$[ebp]
  000c2	50		 push	 eax
  000c3	e8 00 00 00 00	 call	 ?InterfaceVersionCompare@@YA_NKK@Z ; InterfaceVersionCompare
  000c8	83 c4 08	 add	 esp, 8
  000cb	0f b6 c8	 movzx	 ecx, al
  000ce	85 c9		 test	 ecx, ecx
  000d0	74 05		 je	 SHORT $LN3@QueryInter
  000d2	8b 45 ec	 mov	 eax, DWORD PTR _this$[ebp]
  000d5	eb 02		 jmp	 SHORT $LN1@QueryInter
$LN3@QueryInter:

; 36   :     return NULL;

  000d7	33 c0		 xor	 eax, eax
$LN1@QueryInter:

; 37   : }

  000d9	8b e5		 mov	 esp, ebp
  000db	5d		 pop	 ebp
  000dc	c2 08 00	 ret	 8
?QueryInterface@CDataBaseException@@UAEPAXABU_GUID@@K@Z ENDP ; CDataBaseException::QueryInterface
_TEXT	ENDS
; Function compile flags: /Odtp
; File g:\网狐\happygamewh\服务端\系统模块\服务器组件\内核引擎\databaseengine.h
;	COMDAT ?Release@CDataBaseException@@UAEXXZ
_TEXT	SEGMENT
_this$ = -4						; size = 4
?Release@CDataBaseException@@UAEXXZ PROC		; CDataBaseException::Release, COMDAT
; _this$ = ecx

; 30   :     virtual VOID Release() { return; }

  00000	55		 push	 ebp
  00001	8b ec		 mov	 ebp, esp
  00003	51		 push	 ecx
  00004	89 4d fc	 mov	 DWORD PTR _this$[ebp], ecx
  00007	8b e5		 mov	 esp, ebp
  00009	5d		 pop	 ebp
  0000a	c3		 ret	 0
?Release@CDataBaseException@@UAEXXZ ENDP		; CDataBaseException::Release
_TEXT	ENDS
; Function compile flags: /Odtp
; File g:\网狐\happygamewh\服务端\系统模块\服务器组件\内核引擎\databaseengine.cpp
;	COMDAT ??1CDataBaseException@@UAE@XZ
_TEXT	SEGMENT
_this$ = -4						; size = 4
??1CDataBaseException@@UAE@XZ PROC			; CDataBaseException::~CDataBaseException, COMDAT
; _this$ = ecx

; 28   : {

  00000	55		 push	 ebp
  00001	8b ec		 mov	 ebp, esp
  00003	51		 push	 ecx
  00004	89 4d fc	 mov	 DWORD PTR _this$[ebp], ecx
  00007	8b 45 fc	 mov	 eax, DWORD PTR _this$[ebp]
  0000a	c7 00 00 00 00
	00		 mov	 DWORD PTR [eax], OFFSET ??_7CDataBaseException@@6B@

; 29   : }

  00010	8b 4d fc	 mov	 ecx, DWORD PTR _this$[ebp]
  00013	83 c1 0c	 add	 ecx, 12			; 0000000cH
  00016	ff 15 00 00 00
	00		 call	 DWORD PTR __imp_??1?$CStringT@DV?$StrTraitMFC_DLL@DV?$ChTraitsCRT@D@ATL@@@@@ATL@@QAE@XZ
  0001c	8b e5		 mov	 esp, ebp
  0001e	5d		 pop	 ebp
  0001f	c3		 ret	 0
??1CDataBaseException@@UAE@XZ ENDP			; CDataBaseException::~CDataBaseException
_TEXT	ENDS
; Function compile flags: /Odtp
; File g:\网狐\happygamewh\服务端\系统模块\服务器组件\内核引擎\databaseengine.cpp
;	COMDAT ??0CDataBaseException@@QAE@XZ
_TEXT	SEGMENT
_this$ = -4						; size = 4
??0CDataBaseException@@QAE@XZ PROC			; CDataBaseException::CDataBaseException, COMDAT
; _this$ = ecx

; 18   : {

  00000	55		 push	 ebp
  00001	8b ec		 mov	 ebp, esp
  00003	51		 push	 ecx
  00004	89 4d fc	 mov	 DWORD PTR _this$[ebp], ecx
  00007	8b 45 fc	 mov	 eax, DWORD PTR _this$[ebp]
  0000a	c7 00 00 00 00
	00		 mov	 DWORD PTR [eax], OFFSET ??_7IUnknownEx@@6B@
  00010	8b 4d fc	 mov	 ecx, DWORD PTR _this$[ebp]
  00013	c7 01 00 00 00
	00		 mov	 DWORD PTR [ecx], OFFSET ??_7IDataBaseException@@6B@
  00019	8b 55 fc	 mov	 edx, DWORD PTR _this$[ebp]
  0001c	c7 02 00 00 00
	00		 mov	 DWORD PTR [edx], OFFSET ??_7CDataBaseException@@6B@
  00022	8b 4d fc	 mov	 ecx, DWORD PTR _this$[ebp]
  00025	83 c1 0c	 add	 ecx, 12			; 0000000cH
  00028	ff 15 00 00 00
	00		 call	 DWORD PTR __imp_??0?$CStringT@DV?$StrTraitMFC_DLL@DV?$ChTraitsCRT@D@ATL@@@@@ATL@@QAE@XZ

; 19   :     // 错误类型
; 20   :     m_hResult = S_OK;

  0002e	8b 45 fc	 mov	 eax, DWORD PTR _this$[ebp]
  00031	c7 40 04 00 00
	00 00		 mov	 DWORD PTR [eax+4], 0

; 21   :     m_SQLException = SQLException_None;

  00038	8b 4d fc	 mov	 ecx, DWORD PTR _this$[ebp]
  0003b	c7 41 08 00 00
	00 00		 mov	 DWORD PTR [ecx+8], 0

; 22   : 
; 23   :     return;
; 24   : }

  00042	8b 45 fc	 mov	 eax, DWORD PTR _this$[ebp]
  00045	8b e5		 mov	 esp, ebp
  00047	5d		 pop	 ebp
  00048	c3		 ret	 0
??0CDataBaseException@@QAE@XZ ENDP			; CDataBaseException::CDataBaseException
_TEXT	ENDS
; Function compile flags: /Odtp
;	COMDAT ??0IDataBaseEngine@@QAE@XZ
_TEXT	SEGMENT
_this$ = -4						; size = 4
??0IDataBaseEngine@@QAE@XZ PROC				; IDataBaseEngine::IDataBaseEngine, COMDAT
; _this$ = ecx
  00000	55		 push	 ebp
  00001	8b ec		 mov	 ebp, esp
  00003	51		 push	 ecx
  00004	89 4d fc	 mov	 DWORD PTR _this$[ebp], ecx
  00007	8b 45 fc	 mov	 eax, DWORD PTR _this$[ebp]
  0000a	c7 00 00 00 00
	00		 mov	 DWORD PTR [eax], OFFSET ??_7IUnknownEx@@6B@
  00010	8b 4d fc	 mov	 ecx, DWORD PTR _this$[ebp]
  00013	c7 01 00 00 00
	00		 mov	 DWORD PTR [ecx], OFFSET ??_7IServiceModule@@6B@
  00019	8b 55 fc	 mov	 edx, DWORD PTR _this$[ebp]
  0001c	c7 02 00 00 00
	00		 mov	 DWORD PTR [edx], OFFSET ??_7IDataBaseEngine@@6B@
  00022	8b 45 fc	 mov	 eax, DWORD PTR _this$[ebp]
  00025	8b e5		 mov	 esp, ebp
  00027	5d		 pop	 ebp
  00028	c3		 ret	 0
??0IDataBaseEngine@@QAE@XZ ENDP				; IDataBaseEngine::IDataBaseEngine
_TEXT	ENDS
; Function compile flags: /Odtp
;	COMDAT ??0IDataBase@@QAE@XZ
_TEXT	SEGMENT
_this$ = -4						; size = 4
??0IDataBase@@QAE@XZ PROC				; IDataBase::IDataBase, COMDAT
; _this$ = ecx
  00000	55		 push	 ebp
  00001	8b ec		 mov	 ebp, esp
  00003	51		 push	 ecx
  00004	89 4d fc	 mov	 DWORD PTR _this$[ebp], ecx
  00007	8b 45 fc	 mov	 eax, DWORD PTR _this$[ebp]
  0000a	c7 00 00 00 00
	00		 mov	 DWORD PTR [eax], OFFSET ??_7IUnknownEx@@6B@
  00010	8b 4d fc	 mov	 ecx, DWORD PTR _this$[ebp]
  00013	c7 01 00 00 00
	00		 mov	 DWORD PTR [ecx], OFFSET ??_7IDataBase@@6B@
  00019	8b 45 fc	 mov	 eax, DWORD PTR _this$[ebp]
  0001c	8b e5		 mov	 esp, ebp
  0001e	5d		 pop	 ebp
  0001f	c3		 ret	 0
??0IDataBase@@QAE@XZ ENDP				; IDataBase::IDataBase
_TEXT	ENDS
; Function compile flags: /Odtp
;	COMDAT ??0IAsynchronismEngineSink@@QAE@XZ
_TEXT	SEGMENT
_this$ = -4						; size = 4
??0IAsynchronismEngineSink@@QAE@XZ PROC			; IAsynchronismEngineSink::IAsynchronismEngineSink, COMDAT
; _this$ = ecx
  00000	55		 push	 ebp
  00001	8b ec		 mov	 ebp, esp
  00003	51		 push	 ecx
  00004	89 4d fc	 mov	 DWORD PTR _this$[ebp], ecx
  00007	8b 45 fc	 mov	 eax, DWORD PTR _this$[ebp]
  0000a	c7 00 00 00 00
	00		 mov	 DWORD PTR [eax], OFFSET ??_7IUnknownEx@@6B@
  00010	8b 4d fc	 mov	 ecx, DWORD PTR _this$[ebp]
  00013	c7 01 00 00 00
	00		 mov	 DWORD PTR [ecx], OFFSET ??_7IAsynchronismEngineSink@@6B@
  00019	8b 45 fc	 mov	 eax, DWORD PTR _this$[ebp]
  0001c	8b e5		 mov	 esp, ebp
  0001e	5d		 pop	 ebp
  0001f	c3		 ret	 0
??0IAsynchronismEngineSink@@QAE@XZ ENDP			; IAsynchronismEngineSink::IAsynchronismEngineSink
_TEXT	ENDS
; Function compile flags: /Odtp
;	COMDAT ??0IServiceModule@@QAE@XZ
_TEXT	SEGMENT
_this$ = -4						; size = 4
??0IServiceModule@@QAE@XZ PROC				; IServiceModule::IServiceModule, COMDAT
; _this$ = ecx
  00000	55		 push	 ebp
  00001	8b ec		 mov	 ebp, esp
  00003	51		 push	 ecx
  00004	89 4d fc	 mov	 DWORD PTR _this$[ebp], ecx
  00007	8b 45 fc	 mov	 eax, DWORD PTR _this$[ebp]
  0000a	c7 00 00 00 00
	00		 mov	 DWORD PTR [eax], OFFSET ??_7IUnknownEx@@6B@
  00010	8b 4d fc	 mov	 ecx, DWORD PTR _this$[ebp]
  00013	c7 01 00 00 00
	00		 mov	 DWORD PTR [ecx], OFFSET ??_7IServiceModule@@6B@
  00019	8b 45 fc	 mov	 eax, DWORD PTR _this$[ebp]
  0001c	8b e5		 mov	 esp, ebp
  0001e	5d		 pop	 ebp
  0001f	c3		 ret	 0
??0IServiceModule@@QAE@XZ ENDP				; IServiceModule::IServiceModule
_TEXT	ENDS
; Function compile flags: /Odtp
;	COMDAT ??0IDataBaseException@@QAE@XZ
_TEXT	SEGMENT
_this$ = -4						; size = 4
??0IDataBaseException@@QAE@XZ PROC			; IDataBaseException::IDataBaseException, COMDAT
; _this$ = ecx
  00000	55		 push	 ebp
  00001	8b ec		 mov	 ebp, esp
  00003	51		 push	 ecx
  00004	89 4d fc	 mov	 DWORD PTR _this$[ebp], ecx
  00007	8b 45 fc	 mov	 eax, DWORD PTR _this$[ebp]
  0000a	c7 00 00 00 00
	00		 mov	 DWORD PTR [eax], OFFSET ??_7IUnknownEx@@6B@
  00010	8b 4d fc	 mov	 ecx, DWORD PTR _this$[ebp]
  00013	c7 01 00 00 00
	00		 mov	 DWORD PTR [ecx], OFFSET ??_7IDataBaseException@@6B@
  00019	8b 45 fc	 mov	 eax, DWORD PTR _this$[ebp]
  0001c	8b e5		 mov	 esp, ebp
  0001e	5d		 pop	 ebp
  0001f	c3		 ret	 0
??0IDataBaseException@@QAE@XZ ENDP			; IDataBaseException::IDataBaseException
_TEXT	ENDS
; Function compile flags: /Odtp
; File c:\program files (x86)\microsoft visual studio\2017\community\vc\tools\msvc\14.16.27023\include\comip.h
;	COMDAT ?_AddRef@?$_com_ptr_t@V?$_com_IIID@UFields@ADOCG@@$1?_GUID_00000564_0000_0010_8000_00aa006d2ea4@@3U__s_GUID@@B@@@@AAEXXZ
_TEXT	SEGMENT
_this$ = -4						; size = 4
?_AddRef@?$_com_ptr_t@V?$_com_IIID@UFields@ADOCG@@$1?_GUID_00000564_0000_0010_8000_00aa006d2ea4@@3U__s_GUID@@B@@@@AAEXXZ PROC ; _com_ptr_t<_com_IIID<ADOCG::Fields,&_GUID_00000564_0000_0010_8000_00aa006d2ea4> >::_AddRef, COMDAT
; _this$ = ecx

; 825  :     {

  00000	55		 push	 ebp
  00001	8b ec		 mov	 ebp, esp
  00003	51		 push	 ecx
  00004	89 4d fc	 mov	 DWORD PTR _this$[ebp], ecx

; 826  :         if (m_pInterface != NULL) {

  00007	8b 45 fc	 mov	 eax, DWORD PTR _this$[ebp]
  0000a	83 38 00	 cmp	 DWORD PTR [eax], 0
  0000d	74 12		 je	 SHORT $LN1@AddRef

; 827  :             m_pInterface->AddRef();

  0000f	8b 4d fc	 mov	 ecx, DWORD PTR _this$[ebp]
  00012	8b 11		 mov	 edx, DWORD PTR [ecx]
  00014	8b 45 fc	 mov	 eax, DWORD PTR _this$[ebp]
  00017	8b 08		 mov	 ecx, DWORD PTR [eax]
  00019	8b 12		 mov	 edx, DWORD PTR [edx]
  0001b	51		 push	 ecx
  0001c	8b 42 04	 mov	 eax, DWORD PTR [edx+4]
  0001f	ff d0		 call	 eax
$LN1@AddRef:
  00021	8b e5		 mov	 esp, ebp
  00023	5d		 pop	 ebp
  00024	c3		 ret	 0
?_AddRef@?$_com_ptr_t@V?$_com_IIID@UFields@ADOCG@@$1?_GUID_00000564_0000_0010_8000_00aa006d2ea4@@3U__s_GUID@@B@@@@AAEXXZ ENDP ; _com_ptr_t<_com_IIID<ADOCG::Fields,&_GUID_00000564_0000_0010_8000_00aa006d2ea4> >::_AddRef
_TEXT	ENDS
; Function compile flags: /Odtp
; File c:\program files (x86)\microsoft visual studio\2017\community\vc\tools\msvc\14.16.27023\include\comip.h
;	COMDAT ?_Release@?$_com_ptr_t@V?$_com_IIID@UFields@ADOCG@@$1?_GUID_00000564_0000_0010_8000_00aa006d2ea4@@3U__s_GUID@@B@@@@AAEXXZ
_TEXT	SEGMENT
_this$ = -4						; size = 4
?_Release@?$_com_ptr_t@V?$_com_IIID@UFields@ADOCG@@$1?_GUID_00000564_0000_0010_8000_00aa006d2ea4@@3U__s_GUID@@B@@@@AAEXXZ PROC ; _com_ptr_t<_com_IIID<ADOCG::Fields,&_GUID_00000564_0000_0010_8000_00aa006d2ea4> >::_Release, COMDAT
; _this$ = ecx

; 816  :     {

  00000	55		 push	 ebp
  00001	8b ec		 mov	 ebp, esp
  00003	51		 push	 ecx
  00004	89 4d fc	 mov	 DWORD PTR _this$[ebp], ecx

; 817  :         if (m_pInterface != NULL) {

  00007	8b 45 fc	 mov	 eax, DWORD PTR _this$[ebp]
  0000a	83 38 00	 cmp	 DWORD PTR [eax], 0
  0000d	74 12		 je	 SHORT $LN1@Release

; 818  :             m_pInterface->Release();

  0000f	8b 4d fc	 mov	 ecx, DWORD PTR _this$[ebp]
  00012	8b 11		 mov	 edx, DWORD PTR [ecx]
  00014	8b 45 fc	 mov	 eax, DWORD PTR _this$[ebp]
  00017	8b 08		 mov	 ecx, DWORD PTR [eax]
  00019	8b 12		 mov	 edx, DWORD PTR [edx]
  0001b	51		 push	 ecx
  0001c	8b 42 08	 mov	 eax, DWORD PTR [edx+8]
  0001f	ff d0		 call	 eax
$LN1@Release:
  00021	8b e5		 mov	 esp, ebp
  00023	5d		 pop	 ebp
  00024	c3		 ret	 0
?_Release@?$_com_ptr_t@V?$_com_IIID@UFields@ADOCG@@$1?_GUID_00000564_0000_0010_8000_00aa006d2ea4@@3U__s_GUID@@B@@@@AAEXXZ ENDP ; _com_ptr_t<_com_IIID<ADOCG::Fields,&_GUID_00000564_0000_0010_8000_00aa006d2ea4> >::_Release
_TEXT	ENDS
; Function compile flags: /Odtp
; File c:\program files (x86)\microsoft visual studio\2017\community\vc\tools\msvc\14.16.27023\include\comip.h
;	COMDAT ??C?$_com_ptr_t@V?$_com_IIID@UFields@ADOCG@@$1?_GUID_00000564_0000_0010_8000_00aa006d2ea4@@3U__s_GUID@@B@@@@QBEPAUFields@ADOCG@@XZ
_TEXT	SEGMENT
_this$ = -4						; size = 4
??C?$_com_ptr_t@V?$_com_IIID@UFields@ADOCG@@$1?_GUID_00000564_0000_0010_8000_00aa006d2ea4@@3U__s_GUID@@B@@@@QBEPAUFields@ADOCG@@XZ PROC ; _com_ptr_t<_com_IIID<ADOCG::Fields,&_GUID_00000564_0000_0010_8000_00aa006d2ea4> >::operator->, COMDAT
; _this$ = ecx

; 427  :     {

  00000	55		 push	 ebp
  00001	8b ec		 mov	 ebp, esp
  00003	51		 push	 ecx
  00004	89 4d fc	 mov	 DWORD PTR _this$[ebp], ecx

; 428  :         if (m_pInterface == NULL) {

  00007	8b 45 fc	 mov	 eax, DWORD PTR _this$[ebp]
  0000a	83 38 00	 cmp	 DWORD PTR [eax], 0
  0000d	75 0a		 jne	 SHORT $LN2@operator

; 429  :             _com_issue_error(E_POINTER);

  0000f	68 03 40 00 80	 push	 -2147467261		; 80004003H
  00014	e8 00 00 00 00	 call	 ?_com_issue_error@@YGXJ@Z ; _com_issue_error
$LN2@operator:
  00019	8b 4d fc	 mov	 ecx, DWORD PTR _this$[ebp]
  0001c	8b 01		 mov	 eax, DWORD PTR [ecx]
$LN3@operator:
  0001e	8b e5		 mov	 esp, ebp
  00020	5d		 pop	 ebp
  00021	c3		 ret	 0
??C?$_com_ptr_t@V?$_com_IIID@UFields@ADOCG@@$1?_GUID_00000564_0000_0010_8000_00aa006d2ea4@@3U__s_GUID@@B@@@@QBEPAUFields@ADOCG@@XZ ENDP ; _com_ptr_t<_com_IIID<ADOCG::Fields,&_GUID_00000564_0000_0010_8000_00aa006d2ea4> >::operator->
_TEXT	ENDS
; Function compile flags: /Odtp
; File c:\program files (x86)\microsoft visual studio\2017\community\vc\tools\msvc\14.16.27023\include\comip.h
;	COMDAT ??1?$_com_ptr_t@V?$_com_IIID@UFields@ADOCG@@$1?_GUID_00000564_0000_0010_8000_00aa006d2ea4@@3U__s_GUID@@B@@@@QAE@XZ
_TEXT	SEGMENT
_this$ = -4						; size = 4
??1?$_com_ptr_t@V?$_com_IIID@UFields@ADOCG@@$1?_GUID_00000564_0000_0010_8000_00aa006d2ea4@@3U__s_GUID@@B@@@@QAE@XZ PROC ; _com_ptr_t<_com_IIID<ADOCG::Fields,&_GUID_00000564_0000_0010_8000_00aa006d2ea4> >::~_com_ptr_t<_com_IIID<ADOCG::Fields,&_GUID_00000564_0000_0010_8000_00aa006d2ea4> >, COMDAT
; _this$ = ecx

; 341  :     {

  00000	55		 push	 ebp
  00001	8b ec		 mov	 ebp, esp
  00003	51		 push	 ecx
  00004	89 4d fc	 mov	 DWORD PTR _this$[ebp], ecx

; 817  :         if (m_pInterface != NULL) {

  00007	8b 45 fc	 mov	 eax, DWORD PTR _this$[ebp]
  0000a	83 38 00	 cmp	 DWORD PTR [eax], 0
  0000d	74 12		 je	 SHORT $LN1@com_ptr_t

; 818  :             m_pInterface->Release();

  0000f	8b 4d fc	 mov	 ecx, DWORD PTR _this$[ebp]
  00012	8b 11		 mov	 edx, DWORD PTR [ecx]
  00014	8b 45 fc	 mov	 eax, DWORD PTR _this$[ebp]
  00017	8b 08		 mov	 ecx, DWORD PTR [eax]
  00019	8b 12		 mov	 edx, DWORD PTR [edx]
  0001b	51		 push	 ecx
  0001c	8b 42 08	 mov	 eax, DWORD PTR [edx+8]
  0001f	ff d0		 call	 eax
$LN1@com_ptr_t:

; 342  :         _Release();

  00021	8b e5		 mov	 esp, ebp
  00023	5d		 pop	 ebp
  00024	c3		 ret	 0
??1?$_com_ptr_t@V?$_com_IIID@UFields@ADOCG@@$1?_GUID_00000564_0000_0010_8000_00aa006d2ea4@@3U__s_GUID@@B@@@@QAE@XZ ENDP ; _com_ptr_t<_com_IIID<ADOCG::Fields,&_GUID_00000564_0000_0010_8000_00aa006d2ea4> >::~_com_ptr_t<_com_IIID<ADOCG::Fields,&_GUID_00000564_0000_0010_8000_00aa006d2ea4> >
_TEXT	ENDS
; Function compile flags: /Odtp
; File c:\program files (x86)\microsoft visual studio\2017\community\vc\tools\msvc\14.16.27023\include\comip.h
;	COMDAT ??0?$_com_ptr_t@V?$_com_IIID@UFields@ADOCG@@$1?_GUID_00000564_0000_0010_8000_00aa006d2ea4@@3U__s_GUID@@B@@@@QAE@PAUFields@ADOCG@@_N@Z
_TEXT	SEGMENT
_this$ = -4						; size = 4
_pInterface$ = 8					; size = 4
_fAddRef$ = 12						; size = 1
??0?$_com_ptr_t@V?$_com_IIID@UFields@ADOCG@@$1?_GUID_00000564_0000_0010_8000_00aa006d2ea4@@3U__s_GUID@@B@@@@QAE@PAUFields@ADOCG@@_N@Z PROC ; _com_ptr_t<_com_IIID<ADOCG::Fields,&_GUID_00000564_0000_0010_8000_00aa006d2ea4> >::_com_ptr_t<_com_IIID<ADOCG::Fields,&_GUID_00000564_0000_0010_8000_00aa006d2ea4> >, COMDAT
; _this$ = ecx

; 185  :     {

  00000	55		 push	 ebp
  00001	8b ec		 mov	 ebp, esp
  00003	51		 push	 ecx
  00004	89 4d fc	 mov	 DWORD PTR _this$[ebp], ecx

; 184  :         : m_pInterface(pInterface)

  00007	8b 45 fc	 mov	 eax, DWORD PTR _this$[ebp]
  0000a	8b 4d 08	 mov	 ecx, DWORD PTR _pInterface$[ebp]
  0000d	89 08		 mov	 DWORD PTR [eax], ecx

; 186  :         if (fAddRef) {

  0000f	0f b6 55 0c	 movzx	 edx, BYTE PTR _fAddRef$[ebp]
  00013	85 d2		 test	 edx, edx
  00015	74 1a		 je	 SHORT $LN1@com_ptr_t

; 826  :         if (m_pInterface != NULL) {

  00017	8b 45 fc	 mov	 eax, DWORD PTR _this$[ebp]
  0001a	83 38 00	 cmp	 DWORD PTR [eax], 0
  0001d	74 12		 je	 SHORT $LN1@com_ptr_t

; 827  :             m_pInterface->AddRef();

  0001f	8b 4d fc	 mov	 ecx, DWORD PTR _this$[ebp]
  00022	8b 11		 mov	 edx, DWORD PTR [ecx]
  00024	8b 45 fc	 mov	 eax, DWORD PTR _this$[ebp]
  00027	8b 08		 mov	 ecx, DWORD PTR [eax]
  00029	8b 12		 mov	 edx, DWORD PTR [edx]
  0002b	51		 push	 ecx
  0002c	8b 42 04	 mov	 eax, DWORD PTR [edx+4]
  0002f	ff d0		 call	 eax
$LN1@com_ptr_t:

; 187  :             _AddRef();

  00031	8b 45 fc	 mov	 eax, DWORD PTR _this$[ebp]
  00034	8b e5		 mov	 esp, ebp
  00036	5d		 pop	 ebp
  00037	c2 08 00	 ret	 8
??0?$_com_ptr_t@V?$_com_IIID@UFields@ADOCG@@$1?_GUID_00000564_0000_0010_8000_00aa006d2ea4@@3U__s_GUID@@B@@@@QAE@PAUFields@ADOCG@@_N@Z ENDP ; _com_ptr_t<_com_IIID<ADOCG::Fields,&_GUID_00000564_0000_0010_8000_00aa006d2ea4> >::_com_ptr_t<_com_IIID<ADOCG::Fields,&_GUID_00000564_0000_0010_8000_00aa006d2ea4> >
_TEXT	ENDS
; Function compile flags: /Odtp
; File c:\program files (x86)\microsoft visual studio\2017\community\vc\tools\msvc\14.16.27023\include\comip.h
;	COMDAT ?_AddRef@?$_com_ptr_t@V?$_com_IIID@UErrors@ADOCG@@$1?_GUID_00000501_0000_0010_8000_00aa006d2ea4@@3U__s_GUID@@B@@@@AAEXXZ
_TEXT	SEGMENT
_this$ = -4						; size = 4
?_AddRef@?$_com_ptr_t@V?$_com_IIID@UErrors@ADOCG@@$1?_GUID_00000501_0000_0010_8000_00aa006d2ea4@@3U__s_GUID@@B@@@@AAEXXZ PROC ; _com_ptr_t<_com_IIID<ADOCG::Errors,&_GUID_00000501_0000_0010_8000_00aa006d2ea4> >::_AddRef, COMDAT
; _this$ = ecx

; 825  :     {

  00000	55		 push	 ebp
  00001	8b ec		 mov	 ebp, esp
  00003	51		 push	 ecx
  00004	89 4d fc	 mov	 DWORD PTR _this$[ebp], ecx

; 826  :         if (m_pInterface != NULL) {

  00007	8b 45 fc	 mov	 eax, DWORD PTR _this$[ebp]
  0000a	83 38 00	 cmp	 DWORD PTR [eax], 0
  0000d	74 12		 je	 SHORT $LN1@AddRef

; 827  :             m_pInterface->AddRef();

  0000f	8b 4d fc	 mov	 ecx, DWORD PTR _this$[ebp]
  00012	8b 11		 mov	 edx, DWORD PTR [ecx]
  00014	8b 45 fc	 mov	 eax, DWORD PTR _this$[ebp]
  00017	8b 08		 mov	 ecx, DWORD PTR [eax]
  00019	8b 12		 mov	 edx, DWORD PTR [edx]
  0001b	51		 push	 ecx
  0001c	8b 42 04	 mov	 eax, DWORD PTR [edx+4]
  0001f	ff d0		 call	 eax
$LN1@AddRef:
  00021	8b e5		 mov	 esp, ebp
  00023	5d		 pop	 ebp
  00024	c3		 ret	 0
?_AddRef@?$_com_ptr_t@V?$_com_IIID@UErrors@ADOCG@@$1?_GUID_00000501_0000_0010_8000_00aa006d2ea4@@3U__s_GUID@@B@@@@AAEXXZ ENDP ; _com_ptr_t<_com_IIID<ADOCG::Errors,&_GUID_00000501_0000_0010_8000_00aa006d2ea4> >::_AddRef
_TEXT	ENDS
; Function compile flags: /Odtp
; File c:\program files (x86)\microsoft visual studio\2017\community\vc\tools\msvc\14.16.27023\include\comip.h
;	COMDAT ?_Release@?$_com_ptr_t@V?$_com_IIID@UErrors@ADOCG@@$1?_GUID_00000501_0000_0010_8000_00aa006d2ea4@@3U__s_GUID@@B@@@@AAEXXZ
_TEXT	SEGMENT
_this$ = -4						; size = 4
?_Release@?$_com_ptr_t@V?$_com_IIID@UErrors@ADOCG@@$1?_GUID_00000501_0000_0010_8000_00aa006d2ea4@@3U__s_GUID@@B@@@@AAEXXZ PROC ; _com_ptr_t<_com_IIID<ADOCG::Errors,&_GUID_00000501_0000_0010_8000_00aa006d2ea4> >::_Release, COMDAT
; _this$ = ecx

; 816  :     {

  00000	55		 push	 ebp
  00001	8b ec		 mov	 ebp, esp
  00003	51		 push	 ecx
  00004	89 4d fc	 mov	 DWORD PTR _this$[ebp], ecx

; 817  :         if (m_pInterface != NULL) {

  00007	8b 45 fc	 mov	 eax, DWORD PTR _this$[ebp]
  0000a	83 38 00	 cmp	 DWORD PTR [eax], 0
  0000d	74 12		 je	 SHORT $LN1@Release

; 818  :             m_pInterface->Release();

  0000f	8b 4d fc	 mov	 ecx, DWORD PTR _this$[ebp]
  00012	8b 11		 mov	 edx, DWORD PTR [ecx]
  00014	8b 45 fc	 mov	 eax, DWORD PTR _this$[ebp]
  00017	8b 08		 mov	 ecx, DWORD PTR [eax]
  00019	8b 12		 mov	 edx, DWORD PTR [edx]
  0001b	51		 push	 ecx
  0001c	8b 42 08	 mov	 eax, DWORD PTR [edx+8]
  0001f	ff d0		 call	 eax
$LN1@Release:
  00021	8b e5		 mov	 esp, ebp
  00023	5d		 pop	 ebp
  00024	c3		 ret	 0
?_Release@?$_com_ptr_t@V?$_com_IIID@UErrors@ADOCG@@$1?_GUID_00000501_0000_0010_8000_00aa006d2ea4@@3U__s_GUID@@B@@@@AAEXXZ ENDP ; _com_ptr_t<_com_IIID<ADOCG::Errors,&_GUID_00000501_0000_0010_8000_00aa006d2ea4> >::_Release
_TEXT	ENDS
; Function compile flags: /Odtp
; File c:\program files (x86)\microsoft visual studio\2017\community\vc\tools\msvc\14.16.27023\include\comip.h
;	COMDAT ??C?$_com_ptr_t@V?$_com_IIID@UErrors@ADOCG@@$1?_GUID_00000501_0000_0010_8000_00aa006d2ea4@@3U__s_GUID@@B@@@@QBEPAUErrors@ADOCG@@XZ
_TEXT	SEGMENT
_this$ = -4						; size = 4
??C?$_com_ptr_t@V?$_com_IIID@UErrors@ADOCG@@$1?_GUID_00000501_0000_0010_8000_00aa006d2ea4@@3U__s_GUID@@B@@@@QBEPAUErrors@ADOCG@@XZ PROC ; _com_ptr_t<_com_IIID<ADOCG::Errors,&_GUID_00000501_0000_0010_8000_00aa006d2ea4> >::operator->, COMDAT
; _this$ = ecx

; 427  :     {

  00000	55		 push	 ebp
  00001	8b ec		 mov	 ebp, esp
  00003	51		 push	 ecx
  00004	89 4d fc	 mov	 DWORD PTR _this$[ebp], ecx

; 428  :         if (m_pInterface == NULL) {

  00007	8b 45 fc	 mov	 eax, DWORD PTR _this$[ebp]
  0000a	83 38 00	 cmp	 DWORD PTR [eax], 0
  0000d	75 0a		 jne	 SHORT $LN2@operator

; 429  :             _com_issue_error(E_POINTER);

  0000f	68 03 40 00 80	 push	 -2147467261		; 80004003H
  00014	e8 00 00 00 00	 call	 ?_com_issue_error@@YGXJ@Z ; _com_issue_error
$LN2@operator:
  00019	8b 4d fc	 mov	 ecx, DWORD PTR _this$[ebp]
  0001c	8b 01		 mov	 eax, DWORD PTR [ecx]
$LN3@operator:
  0001e	8b e5		 mov	 esp, ebp
  00020	5d		 pop	 ebp
  00021	c3		 ret	 0
??C?$_com_ptr_t@V?$_com_IIID@UErrors@ADOCG@@$1?_GUID_00000501_0000_0010_8000_00aa006d2ea4@@3U__s_GUID@@B@@@@QBEPAUErrors@ADOCG@@XZ ENDP ; _com_ptr_t<_com_IIID<ADOCG::Errors,&_GUID_00000501_0000_0010_8000_00aa006d2ea4> >::operator->
_TEXT	ENDS
; Function compile flags: /Odtp
; File c:\program files (x86)\microsoft visual studio\2017\community\vc\tools\msvc\14.16.27023\include\comip.h
;	COMDAT ??1?$_com_ptr_t@V?$_com_IIID@UErrors@ADOCG@@$1?_GUID_00000501_0000_0010_8000_00aa006d2ea4@@3U__s_GUID@@B@@@@QAE@XZ
_TEXT	SEGMENT
_this$ = -4						; size = 4
??1?$_com_ptr_t@V?$_com_IIID@UErrors@ADOCG@@$1?_GUID_00000501_0000_0010_8000_00aa006d2ea4@@3U__s_GUID@@B@@@@QAE@XZ PROC ; _com_ptr_t<_com_IIID<ADOCG::Errors,&_GUID_00000501_0000_0010_8000_00aa006d2ea4> >::~_com_ptr_t<_com_IIID<ADOCG::Errors,&_GUID_00000501_0000_0010_8000_00aa006d2ea4> >, COMDAT
; _this$ = ecx

; 341  :     {

  00000	55		 push	 ebp
  00001	8b ec		 mov	 ebp, esp
  00003	51		 push	 ecx
  00004	89 4d fc	 mov	 DWORD PTR _this$[ebp], ecx

; 817  :         if (m_pInterface != NULL) {

  00007	8b 45 fc	 mov	 eax, DWORD PTR _this$[ebp]
  0000a	83 38 00	 cmp	 DWORD PTR [eax], 0
  0000d	74 12		 je	 SHORT $LN1@com_ptr_t

; 818  :             m_pInterface->Release();

  0000f	8b 4d fc	 mov	 ecx, DWORD PTR _this$[ebp]
  00012	8b 11		 mov	 edx, DWORD PTR [ecx]
  00014	8b 45 fc	 mov	 eax, DWORD PTR _this$[ebp]
  00017	8b 08		 mov	 ecx, DWORD PTR [eax]
  00019	8b 12		 mov	 edx, DWORD PTR [edx]
  0001b	51		 push	 ecx
  0001c	8b 42 08	 mov	 eax, DWORD PTR [edx+8]
  0001f	ff d0		 call	 eax
$LN1@com_ptr_t:

; 342  :         _Release();

  00021	8b e5		 mov	 esp, ebp
  00023	5d		 pop	 ebp
  00024	c3		 ret	 0
??1?$_com_ptr_t@V?$_com_IIID@UErrors@ADOCG@@$1?_GUID_00000501_0000_0010_8000_00aa006d2ea4@@3U__s_GUID@@B@@@@QAE@XZ ENDP ; _com_ptr_t<_com_IIID<ADOCG::Errors,&_GUID_00000501_0000_0010_8000_00aa006d2ea4> >::~_com_ptr_t<_com_IIID<ADOCG::Errors,&_GUID_00000501_0000_0010_8000_00aa006d2ea4> >
_TEXT	ENDS
; Function compile flags: /Odtp
; File c:\program files (x86)\microsoft visual studio\2017\community\vc\tools\msvc\14.16.27023\include\comip.h
;	COMDAT ??0?$_com_ptr_t@V?$_com_IIID@UErrors@ADOCG@@$1?_GUID_00000501_0000_0010_8000_00aa006d2ea4@@3U__s_GUID@@B@@@@QAE@PAUErrors@ADOCG@@_N@Z
_TEXT	SEGMENT
_this$ = -4						; size = 4
_pInterface$ = 8					; size = 4
_fAddRef$ = 12						; size = 1
??0?$_com_ptr_t@V?$_com_IIID@UErrors@ADOCG@@$1?_GUID_00000501_0000_0010_8000_00aa006d2ea4@@3U__s_GUID@@B@@@@QAE@PAUErrors@ADOCG@@_N@Z PROC ; _com_ptr_t<_com_IIID<ADOCG::Errors,&_GUID_00000501_0000_0010_8000_00aa006d2ea4> >::_com_ptr_t<_com_IIID<ADOCG::Errors,&_GUID_00000501_0000_0010_8000_00aa006d2ea4> >, COMDAT
; _this$ = ecx

; 185  :     {

  00000	55		 push	 ebp
  00001	8b ec		 mov	 ebp, esp
  00003	51		 push	 ecx
  00004	89 4d fc	 mov	 DWORD PTR _this$[ebp], ecx

; 184  :         : m_pInterface(pInterface)

  00007	8b 45 fc	 mov	 eax, DWORD PTR _this$[ebp]
  0000a	8b 4d 08	 mov	 ecx, DWORD PTR _pInterface$[ebp]
  0000d	89 08		 mov	 DWORD PTR [eax], ecx

; 186  :         if (fAddRef) {

  0000f	0f b6 55 0c	 movzx	 edx, BYTE PTR _fAddRef$[ebp]
  00013	85 d2		 test	 edx, edx
  00015	74 1a		 je	 SHORT $LN1@com_ptr_t

; 826  :         if (m_pInterface != NULL) {

  00017	8b 45 fc	 mov	 eax, DWORD PTR _this$[ebp]
  0001a	83 38 00	 cmp	 DWORD PTR [eax], 0
  0001d	74 12		 je	 SHORT $LN1@com_ptr_t

; 827  :             m_pInterface->AddRef();

  0001f	8b 4d fc	 mov	 ecx, DWORD PTR _this$[ebp]
  00022	8b 11		 mov	 edx, DWORD PTR [ecx]
  00024	8b 45 fc	 mov	 eax, DWORD PTR _this$[ebp]
  00027	8b 08		 mov	 ecx, DWORD PTR [eax]
  00029	8b 12		 mov	 edx, DWORD PTR [edx]
  0002b	51		 push	 ecx
  0002c	8b 42 04	 mov	 eax, DWORD PTR [edx+4]
  0002f	ff d0		 call	 eax
$LN1@com_ptr_t:

; 187  :             _AddRef();

  00031	8b 45 fc	 mov	 eax, DWORD PTR _this$[ebp]
  00034	8b e5		 mov	 esp, ebp
  00036	5d		 pop	 ebp
  00037	c2 08 00	 ret	 8
??0?$_com_ptr_t@V?$_com_IIID@UErrors@ADOCG@@$1?_GUID_00000501_0000_0010_8000_00aa006d2ea4@@3U__s_GUID@@B@@@@QAE@PAUErrors@ADOCG@@_N@Z ENDP ; _com_ptr_t<_com_IIID<ADOCG::Errors,&_GUID_00000501_0000_0010_8000_00aa006d2ea4> >::_com_ptr_t<_com_IIID<ADOCG::Errors,&_GUID_00000501_0000_0010_8000_00aa006d2ea4> >
_TEXT	ENDS
; Function compile flags: /Odtp
; File c:\program files (x86)\microsoft visual studio\2017\community\vc\tools\msvc\14.16.27023\include\comip.h
;	COMDAT ?_AddRef@?$_com_ptr_t@V?$_com_IIID@UParameters@ADOCG@@$1?_GUID_0000050d_0000_0010_8000_00aa006d2ea4@@3U__s_GUID@@B@@@@AAEXXZ
_TEXT	SEGMENT
_this$ = -4						; size = 4
?_AddRef@?$_com_ptr_t@V?$_com_IIID@UParameters@ADOCG@@$1?_GUID_0000050d_0000_0010_8000_00aa006d2ea4@@3U__s_GUID@@B@@@@AAEXXZ PROC ; _com_ptr_t<_com_IIID<ADOCG::Parameters,&_GUID_0000050d_0000_0010_8000_00aa006d2ea4> >::_AddRef, COMDAT
; _this$ = ecx

; 825  :     {

  00000	55		 push	 ebp
  00001	8b ec		 mov	 ebp, esp
  00003	51		 push	 ecx
  00004	89 4d fc	 mov	 DWORD PTR _this$[ebp], ecx

; 826  :         if (m_pInterface != NULL) {

  00007	8b 45 fc	 mov	 eax, DWORD PTR _this$[ebp]
  0000a	83 38 00	 cmp	 DWORD PTR [eax], 0
  0000d	74 12		 je	 SHORT $LN1@AddRef

; 827  :             m_pInterface->AddRef();

  0000f	8b 4d fc	 mov	 ecx, DWORD PTR _this$[ebp]
  00012	8b 11		 mov	 edx, DWORD PTR [ecx]
  00014	8b 45 fc	 mov	 eax, DWORD PTR _this$[ebp]
  00017	8b 08		 mov	 ecx, DWORD PTR [eax]
  00019	8b 12		 mov	 edx, DWORD PTR [edx]
  0001b	51		 push	 ecx
  0001c	8b 42 04	 mov	 eax, DWORD PTR [edx+4]
  0001f	ff d0		 call	 eax
$LN1@AddRef:
  00021	8b e5		 mov	 esp, ebp
  00023	5d		 pop	 ebp
  00024	c3		 ret	 0
?_AddRef@?$_com_ptr_t@V?$_com_IIID@UParameters@ADOCG@@$1?_GUID_0000050d_0000_0010_8000_00aa006d2ea4@@3U__s_GUID@@B@@@@AAEXXZ ENDP ; _com_ptr_t<_com_IIID<ADOCG::Parameters,&_GUID_0000050d_0000_0010_8000_00aa006d2ea4> >::_AddRef
_TEXT	ENDS
; Function compile flags: /Odtp
; File c:\program files (x86)\microsoft visual studio\2017\community\vc\tools\msvc\14.16.27023\include\comip.h
;	COMDAT ?_Release@?$_com_ptr_t@V?$_com_IIID@UParameters@ADOCG@@$1?_GUID_0000050d_0000_0010_8000_00aa006d2ea4@@3U__s_GUID@@B@@@@AAEXXZ
_TEXT	SEGMENT
_this$ = -4						; size = 4
?_Release@?$_com_ptr_t@V?$_com_IIID@UParameters@ADOCG@@$1?_GUID_0000050d_0000_0010_8000_00aa006d2ea4@@3U__s_GUID@@B@@@@AAEXXZ PROC ; _com_ptr_t<_com_IIID<ADOCG::Parameters,&_GUID_0000050d_0000_0010_8000_00aa006d2ea4> >::_Release, COMDAT
; _this$ = ecx

; 816  :     {

  00000	55		 push	 ebp
  00001	8b ec		 mov	 ebp, esp
  00003	51		 push	 ecx
  00004	89 4d fc	 mov	 DWORD PTR _this$[ebp], ecx

; 817  :         if (m_pInterface != NULL) {

  00007	8b 45 fc	 mov	 eax, DWORD PTR _this$[ebp]
  0000a	83 38 00	 cmp	 DWORD PTR [eax], 0
  0000d	74 12		 je	 SHORT $LN1@Release

; 818  :             m_pInterface->Release();

  0000f	8b 4d fc	 mov	 ecx, DWORD PTR _this$[ebp]
  00012	8b 11		 mov	 edx, DWORD PTR [ecx]
  00014	8b 45 fc	 mov	 eax, DWORD PTR _this$[ebp]
  00017	8b 08		 mov	 ecx, DWORD PTR [eax]
  00019	8b 12		 mov	 edx, DWORD PTR [edx]
  0001b	51		 push	 ecx
  0001c	8b 42 08	 mov	 eax, DWORD PTR [edx+8]
  0001f	ff d0		 call	 eax
$LN1@Release:
  00021	8b e5		 mov	 esp, ebp
  00023	5d		 pop	 ebp
  00024	c3		 ret	 0
?_Release@?$_com_ptr_t@V?$_com_IIID@UParameters@ADOCG@@$1?_GUID_0000050d_0000_0010_8000_00aa006d2ea4@@3U__s_GUID@@B@@@@AAEXXZ ENDP ; _com_ptr_t<_com_IIID<ADOCG::Parameters,&_GUID_0000050d_0000_0010_8000_00aa006d2ea4> >::_Release
_TEXT	ENDS
; Function compile flags: /Odtp
; File c:\program files (x86)\microsoft visual studio\2017\community\vc\tools\msvc\14.16.27023\include\comip.h
;	COMDAT ??C?$_com_ptr_t@V?$_com_IIID@UParameters@ADOCG@@$1?_GUID_0000050d_0000_0010_8000_00aa006d2ea4@@3U__s_GUID@@B@@@@QBEPAUParameters@ADOCG@@XZ
_TEXT	SEGMENT
_this$ = -4						; size = 4
??C?$_com_ptr_t@V?$_com_IIID@UParameters@ADOCG@@$1?_GUID_0000050d_0000_0010_8000_00aa006d2ea4@@3U__s_GUID@@B@@@@QBEPAUParameters@ADOCG@@XZ PROC ; _com_ptr_t<_com_IIID<ADOCG::Parameters,&_GUID_0000050d_0000_0010_8000_00aa006d2ea4> >::operator->, COMDAT
; _this$ = ecx

; 427  :     {

  00000	55		 push	 ebp
  00001	8b ec		 mov	 ebp, esp
  00003	51		 push	 ecx
  00004	89 4d fc	 mov	 DWORD PTR _this$[ebp], ecx

; 428  :         if (m_pInterface == NULL) {

  00007	8b 45 fc	 mov	 eax, DWORD PTR _this$[ebp]
  0000a	83 38 00	 cmp	 DWORD PTR [eax], 0
  0000d	75 0a		 jne	 SHORT $LN2@operator

; 429  :             _com_issue_error(E_POINTER);

  0000f	68 03 40 00 80	 push	 -2147467261		; 80004003H
  00014	e8 00 00 00 00	 call	 ?_com_issue_error@@YGXJ@Z ; _com_issue_error
$LN2@operator:
  00019	8b 4d fc	 mov	 ecx, DWORD PTR _this$[ebp]
  0001c	8b 01		 mov	 eax, DWORD PTR [ecx]
$LN3@operator:
  0001e	8b e5		 mov	 esp, ebp
  00020	5d		 pop	 ebp
  00021	c3		 ret	 0
??C?$_com_ptr_t@V?$_com_IIID@UParameters@ADOCG@@$1?_GUID_0000050d_0000_0010_8000_00aa006d2ea4@@3U__s_GUID@@B@@@@QBEPAUParameters@ADOCG@@XZ ENDP ; _com_ptr_t<_com_IIID<ADOCG::Parameters,&_GUID_0000050d_0000_0010_8000_00aa006d2ea4> >::operator->
_TEXT	ENDS
; Function compile flags: /Odtp
; File c:\program files (x86)\microsoft visual studio\2017\community\vc\tools\msvc\14.16.27023\include\comip.h
;	COMDAT ??1?$_com_ptr_t@V?$_com_IIID@UParameters@ADOCG@@$1?_GUID_0000050d_0000_0010_8000_00aa006d2ea4@@3U__s_GUID@@B@@@@QAE@XZ
_TEXT	SEGMENT
_this$ = -4						; size = 4
??1?$_com_ptr_t@V?$_com_IIID@UParameters@ADOCG@@$1?_GUID_0000050d_0000_0010_8000_00aa006d2ea4@@3U__s_GUID@@B@@@@QAE@XZ PROC ; _com_ptr_t<_com_IIID<ADOCG::Parameters,&_GUID_0000050d_0000_0010_8000_00aa006d2ea4> >::~_com_ptr_t<_com_IIID<ADOCG::Parameters,&_GUID_0000050d_0000_0010_8000_00aa006d2ea4> >, COMDAT
; _this$ = ecx

; 341  :     {

  00000	55		 push	 ebp
  00001	8b ec		 mov	 ebp, esp
  00003	51		 push	 ecx
  00004	89 4d fc	 mov	 DWORD PTR _this$[ebp], ecx

; 817  :         if (m_pInterface != NULL) {

  00007	8b 45 fc	 mov	 eax, DWORD PTR _this$[ebp]
  0000a	83 38 00	 cmp	 DWORD PTR [eax], 0
  0000d	74 12		 je	 SHORT $LN1@com_ptr_t

; 818  :             m_pInterface->Release();

  0000f	8b 4d fc	 mov	 ecx, DWORD PTR _this$[ebp]
  00012	8b 11		 mov	 edx, DWORD PTR [ecx]
  00014	8b 45 fc	 mov	 eax, DWORD PTR _this$[ebp]
  00017	8b 08		 mov	 ecx, DWORD PTR [eax]
  00019	8b 12		 mov	 edx, DWORD PTR [edx]
  0001b	51		 push	 ecx
  0001c	8b 42 08	 mov	 eax, DWORD PTR [edx+8]
  0001f	ff d0		 call	 eax
$LN1@com_ptr_t:

; 342  :         _Release();

  00021	8b e5		 mov	 esp, ebp
  00023	5d		 pop	 ebp
  00024	c3		 ret	 0
??1?$_com_ptr_t@V?$_com_IIID@UParameters@ADOCG@@$1?_GUID_0000050d_0000_0010_8000_00aa006d2ea4@@3U__s_GUID@@B@@@@QAE@XZ ENDP ; _com_ptr_t<_com_IIID<ADOCG::Parameters,&_GUID_0000050d_0000_0010_8000_00aa006d2ea4> >::~_com_ptr_t<_com_IIID<ADOCG::Parameters,&_GUID_0000050d_0000_0010_8000_00aa006d2ea4> >
_TEXT	ENDS
; Function compile flags: /Odtp
; File c:\program files (x86)\microsoft visual studio\2017\community\vc\tools\msvc\14.16.27023\include\comip.h
;	COMDAT ??0?$_com_ptr_t@V?$_com_IIID@UParameters@ADOCG@@$1?_GUID_0000050d_0000_0010_8000_00aa006d2ea4@@3U__s_GUID@@B@@@@QAE@PAUParameters@ADOCG@@_N@Z
_TEXT	SEGMENT
_this$ = -4						; size = 4
_pInterface$ = 8					; size = 4
_fAddRef$ = 12						; size = 1
??0?$_com_ptr_t@V?$_com_IIID@UParameters@ADOCG@@$1?_GUID_0000050d_0000_0010_8000_00aa006d2ea4@@3U__s_GUID@@B@@@@QAE@PAUParameters@ADOCG@@_N@Z PROC ; _com_ptr_t<_com_IIID<ADOCG::Parameters,&_GUID_0000050d_0000_0010_8000_00aa006d2ea4> >::_com_ptr_t<_com_IIID<ADOCG::Parameters,&_GUID_0000050d_0000_0010_8000_00aa006d2ea4> >, COMDAT
; _this$ = ecx

; 185  :     {

  00000	55		 push	 ebp
  00001	8b ec		 mov	 ebp, esp
  00003	51		 push	 ecx
  00004	89 4d fc	 mov	 DWORD PTR _this$[ebp], ecx

; 184  :         : m_pInterface(pInterface)

  00007	8b 45 fc	 mov	 eax, DWORD PTR _this$[ebp]
  0000a	8b 4d 08	 mov	 ecx, DWORD PTR _pInterface$[ebp]
  0000d	89 08		 mov	 DWORD PTR [eax], ecx

; 186  :         if (fAddRef) {

  0000f	0f b6 55 0c	 movzx	 edx, BYTE PTR _fAddRef$[ebp]
  00013	85 d2		 test	 edx, edx
  00015	74 1a		 je	 SHORT $LN1@com_ptr_t

; 826  :         if (m_pInterface != NULL) {

  00017	8b 45 fc	 mov	 eax, DWORD PTR _this$[ebp]
  0001a	83 38 00	 cmp	 DWORD PTR [eax], 0
  0001d	74 12		 je	 SHORT $LN1@com_ptr_t

; 827  :             m_pInterface->AddRef();

  0001f	8b 4d fc	 mov	 ecx, DWORD PTR _this$[ebp]
  00022	8b 11		 mov	 edx, DWORD PTR [ecx]
  00024	8b 45 fc	 mov	 eax, DWORD PTR _this$[ebp]
  00027	8b 08		 mov	 ecx, DWORD PTR [eax]
  00029	8b 12		 mov	 edx, DWORD PTR [edx]
  0002b	51		 push	 ecx
  0002c	8b 42 04	 mov	 eax, DWORD PTR [edx+4]
  0002f	ff d0		 call	 eax
$LN1@com_ptr_t:

; 187  :             _AddRef();

  00031	8b 45 fc	 mov	 eax, DWORD PTR _this$[ebp]
  00034	8b e5		 mov	 esp, ebp
  00036	5d		 pop	 ebp
  00037	c2 08 00	 ret	 8
??0?$_com_ptr_t@V?$_com_IIID@UParameters@ADOCG@@$1?_GUID_0000050d_0000_0010_8000_00aa006d2ea4@@3U__s_GUID@@B@@@@QAE@PAUParameters@ADOCG@@_N@Z ENDP ; _com_ptr_t<_com_IIID<ADOCG::Parameters,&_GUID_0000050d_0000_0010_8000_00aa006d2ea4> >::_com_ptr_t<_com_IIID<ADOCG::Parameters,&_GUID_0000050d_0000_0010_8000_00aa006d2ea4> >
_TEXT	ENDS
; Function compile flags: /Odtp
; File c:\program files (x86)\microsoft visual studio\2017\community\vc\tools\msvc\14.16.27023\include\comip.h
;	COMDAT ?_AddRef@?$_com_ptr_t@V?$_com_IIID@U_Recordset@ADOCG@@$1?_GUID_00000556_0000_0010_8000_00aa006d2ea4@@3U__s_GUID@@B@@@@AAEXXZ
_TEXT	SEGMENT
_this$ = -4						; size = 4
?_AddRef@?$_com_ptr_t@V?$_com_IIID@U_Recordset@ADOCG@@$1?_GUID_00000556_0000_0010_8000_00aa006d2ea4@@3U__s_GUID@@B@@@@AAEXXZ PROC ; _com_ptr_t<_com_IIID<ADOCG::_Recordset,&_GUID_00000556_0000_0010_8000_00aa006d2ea4> >::_AddRef, COMDAT
; _this$ = ecx

; 825  :     {

  00000	55		 push	 ebp
  00001	8b ec		 mov	 ebp, esp
  00003	51		 push	 ecx
  00004	89 4d fc	 mov	 DWORD PTR _this$[ebp], ecx

; 826  :         if (m_pInterface != NULL) {

  00007	8b 45 fc	 mov	 eax, DWORD PTR _this$[ebp]
  0000a	83 38 00	 cmp	 DWORD PTR [eax], 0
  0000d	74 12		 je	 SHORT $LN1@AddRef

; 827  :             m_pInterface->AddRef();

  0000f	8b 4d fc	 mov	 ecx, DWORD PTR _this$[ebp]
  00012	8b 11		 mov	 edx, DWORD PTR [ecx]
  00014	8b 45 fc	 mov	 eax, DWORD PTR _this$[ebp]
  00017	8b 08		 mov	 ecx, DWORD PTR [eax]
  00019	8b 12		 mov	 edx, DWORD PTR [edx]
  0001b	51		 push	 ecx
  0001c	8b 42 04	 mov	 eax, DWORD PTR [edx+4]
  0001f	ff d0		 call	 eax
$LN1@AddRef:
  00021	8b e5		 mov	 esp, ebp
  00023	5d		 pop	 ebp
  00024	c3		 ret	 0
?_AddRef@?$_com_ptr_t@V?$_com_IIID@U_Recordset@ADOCG@@$1?_GUID_00000556_0000_0010_8000_00aa006d2ea4@@3U__s_GUID@@B@@@@AAEXXZ ENDP ; _com_ptr_t<_com_IIID<ADOCG::_Recordset,&_GUID_00000556_0000_0010_8000_00aa006d2ea4> >::_AddRef
_TEXT	ENDS
; Function compile flags: /Odtp
; File c:\program files (x86)\microsoft visual studio\2017\community\vc\tools\msvc\14.16.27023\include\comip.h
;	COMDAT ?_Release@?$_com_ptr_t@V?$_com_IIID@U_Recordset@ADOCG@@$1?_GUID_00000556_0000_0010_8000_00aa006d2ea4@@3U__s_GUID@@B@@@@AAEXXZ
_TEXT	SEGMENT
_this$ = -4						; size = 4
?_Release@?$_com_ptr_t@V?$_com_IIID@U_Recordset@ADOCG@@$1?_GUID_00000556_0000_0010_8000_00aa006d2ea4@@3U__s_GUID@@B@@@@AAEXXZ PROC ; _com_ptr_t<_com_IIID<ADOCG::_Recordset,&_GUID_00000556_0000_0010_8000_00aa006d2ea4> >::_Release, COMDAT
; _this$ = ecx

; 816  :     {

  00000	55		 push	 ebp
  00001	8b ec		 mov	 ebp, esp
  00003	51		 push	 ecx
  00004	89 4d fc	 mov	 DWORD PTR _this$[ebp], ecx

; 817  :         if (m_pInterface != NULL) {

  00007	8b 45 fc	 mov	 eax, DWORD PTR _this$[ebp]
  0000a	83 38 00	 cmp	 DWORD PTR [eax], 0
  0000d	74 12		 je	 SHORT $LN1@Release

; 818  :             m_pInterface->Release();

  0000f	8b 4d fc	 mov	 ecx, DWORD PTR _this$[ebp]
  00012	8b 11		 mov	 edx, DWORD PTR [ecx]
  00014	8b 45 fc	 mov	 eax, DWORD PTR _this$[ebp]
  00017	8b 08		 mov	 ecx, DWORD PTR [eax]
  00019	8b 12		 mov	 edx, DWORD PTR [edx]
  0001b	51		 push	 ecx
  0001c	8b 42 08	 mov	 eax, DWORD PTR [edx+8]
  0001f	ff d0		 call	 eax
$LN1@Release:
  00021	8b e5		 mov	 esp, ebp
  00023	5d		 pop	 ebp
  00024	c3		 ret	 0
?_Release@?$_com_ptr_t@V?$_com_IIID@U_Recordset@ADOCG@@$1?_GUID_00000556_0000_0010_8000_00aa006d2ea4@@3U__s_GUID@@B@@@@AAEXXZ ENDP ; _com_ptr_t<_com_IIID<ADOCG::_Recordset,&_GUID_00000556_0000_0010_8000_00aa006d2ea4> >::_Release
_TEXT	ENDS
; Function compile flags: /Odtp
; File c:\program files (x86)\microsoft visual studio\2017\community\vc\tools\msvc\14.16.27023\include\comip.h
;	COMDAT ?CreateInstance@?$_com_ptr_t@V?$_com_IIID@U_Recordset@ADOCG@@$1?_GUID_00000556_0000_0010_8000_00aa006d2ea4@@3U__s_GUID@@B@@@@QAEJABU_GUID@@PAUIUnknown@@K@Z
_TEXT	SEGMENT
_pIUnknown$1 = -12					; size = 4
_this$ = -8						; size = 4
_hr$ = -4						; size = 4
_rclsid$ = 8						; size = 4
_pOuter$ = 12						; size = 4
_dwClsContext$ = 16					; size = 4
?CreateInstance@?$_com_ptr_t@V?$_com_IIID@U_Recordset@ADOCG@@$1?_GUID_00000556_0000_0010_8000_00aa006d2ea4@@3U__s_GUID@@B@@@@QAEJABU_GUID@@PAUIUnknown@@K@Z PROC ; _com_ptr_t<_com_IIID<ADOCG::_Recordset,&_GUID_00000556_0000_0010_8000_00aa006d2ea4> >::CreateInstance, COMDAT
; _this$ = ecx

; 605  :     {

  00000	55		 push	 ebp
  00001	8b ec		 mov	 ebp, esp
  00003	83 ec 0c	 sub	 esp, 12			; 0000000cH
  00006	89 4d f8	 mov	 DWORD PTR _this$[ebp], ecx

; 817  :         if (m_pInterface != NULL) {

  00009	8b 45 f8	 mov	 eax, DWORD PTR _this$[ebp]
  0000c	83 38 00	 cmp	 DWORD PTR [eax], 0
  0000f	74 12		 je	 SHORT $LN8@CreateInst

; 818  :             m_pInterface->Release();

  00011	8b 4d f8	 mov	 ecx, DWORD PTR _this$[ebp]
  00014	8b 11		 mov	 edx, DWORD PTR [ecx]
  00016	8b 45 f8	 mov	 eax, DWORD PTR _this$[ebp]
  00019	8b 08		 mov	 ecx, DWORD PTR [eax]
  0001b	8b 12		 mov	 edx, DWORD PTR [edx]
  0001d	51		 push	 ecx
  0001e	8b 42 08	 mov	 eax, DWORD PTR [edx+8]
  00021	ff d0		 call	 eax
$LN8@CreateInst:

; 606  :         HRESULT hr;

  00023	8b 4d 10	 mov	 ecx, DWORD PTR _dwClsContext$[ebp]
  00026	83 e1 14	 and	 ecx, 20			; 00000014H
  00029	74 60		 je	 SHORT $LN15@CreateInst

; 607  : 
; 608  :         _Release();
; 609  : 
; 610  :         if (dwClsContext & (CLSCTX_LOCAL_SERVER | CLSCTX_REMOTE_SERVER)) {
; 611  :             IUnknown* pIUnknown;

  0002b	8d 55 f4	 lea	 edx, DWORD PTR _pIUnknown$1[ebp]
  0002e	52		 push	 edx
  0002f	68 00 00 00 00	 push	 OFFSET __GUID_00000000_0000_0000_c000_000000000046
  00034	8b 45 10	 mov	 eax, DWORD PTR _dwClsContext$[ebp]
  00037	50		 push	 eax
  00038	8b 4d 0c	 mov	 ecx, DWORD PTR _pOuter$[ebp]
  0003b	51		 push	 ecx
  0003c	8b 55 08	 mov	 edx, DWORD PTR _rclsid$[ebp]
  0003f	52		 push	 edx
  00040	ff 15 00 00 00
	00		 call	 DWORD PTR __imp__CoCreateInstance@20
  00046	89 45 fc	 mov	 DWORD PTR _hr$[ebp], eax
  00049	83 7d fc 00	 cmp	 DWORD PTR _hr$[ebp], 0
  0004d	7c 3a		 jl	 SHORT $LN4@CreateInst

; 612  :             hr = CoCreateInstance(rclsid, pOuter, dwClsContext, __uuidof(IUnknown), reinterpret_cast<void**>(&pIUnknown));
; 613  : 
; 614  :             if (SUCCEEDED(hr)) {
; 615  :                 hr = OleRun(pIUnknown);

  0004f	8b 45 f4	 mov	 eax, DWORD PTR _pIUnknown$1[ebp]
  00052	50		 push	 eax
  00053	ff 15 00 00 00
	00		 call	 DWORD PTR __imp__OleRun@4
  00059	89 45 fc	 mov	 DWORD PTR _hr$[ebp], eax
  0005c	83 7d fc 00	 cmp	 DWORD PTR _hr$[ebp], 0
  00060	7c 19		 jl	 SHORT $LN5@CreateInst

; 616  : 
; 617  :                 if (SUCCEEDED(hr)) {
; 618  :                     hr = pIUnknown->QueryInterface(GetIID(), reinterpret_cast<void**>(&m_pInterface));

  00062	8b 4d f8	 mov	 ecx, DWORD PTR _this$[ebp]
  00065	51		 push	 ecx
  00066	68 00 00 00 00	 push	 OFFSET __GUID_00000556_0000_0010_8000_00aa006d2ea4
  0006b	8b 55 f4	 mov	 edx, DWORD PTR _pIUnknown$1[ebp]
  0006e	8b 02		 mov	 eax, DWORD PTR [edx]
  00070	8b 4d f4	 mov	 ecx, DWORD PTR _pIUnknown$1[ebp]
  00073	51		 push	 ecx
  00074	8b 10		 mov	 edx, DWORD PTR [eax]
  00076	ff d2		 call	 edx
  00078	89 45 fc	 mov	 DWORD PTR _hr$[ebp], eax
$LN5@CreateInst:
  0007b	8b 45 f4	 mov	 eax, DWORD PTR _pIUnknown$1[ebp]
  0007e	8b 08		 mov	 ecx, DWORD PTR [eax]
  00080	8b 55 f4	 mov	 edx, DWORD PTR _pIUnknown$1[ebp]
  00083	52		 push	 edx
  00084	8b 41 08	 mov	 eax, DWORD PTR [ecx+8]
  00087	ff d0		 call	 eax
$LN4@CreateInst:
  00089	eb 1e		 jmp	 SHORT $LN3@CreateInst
$LN15@CreateInst:

; 619  :                 }
; 620  : 
; 621  :                 pIUnknown->Release();
; 622  :             }
; 623  :         }
; 624  :         else {
; 625  :             hr = CoCreateInstance(rclsid, pOuter, dwClsContext, GetIID(), reinterpret_cast<void**>(&m_pInterface));

  0008b	8b 4d f8	 mov	 ecx, DWORD PTR _this$[ebp]
  0008e	51		 push	 ecx
  0008f	68 00 00 00 00	 push	 OFFSET __GUID_00000556_0000_0010_8000_00aa006d2ea4
  00094	8b 55 10	 mov	 edx, DWORD PTR _dwClsContext$[ebp]
  00097	52		 push	 edx
  00098	8b 45 0c	 mov	 eax, DWORD PTR _pOuter$[ebp]
  0009b	50		 push	 eax
  0009c	8b 4d 08	 mov	 ecx, DWORD PTR _rclsid$[ebp]
  0009f	51		 push	 ecx
  000a0	ff 15 00 00 00
	00		 call	 DWORD PTR __imp__CoCreateInstance@20
  000a6	89 45 fc	 mov	 DWORD PTR _hr$[ebp], eax
$LN3@CreateInst:
  000a9	83 7d fc 00	 cmp	 DWORD PTR _hr$[ebp], 0
  000ad	7d 09		 jge	 SHORT $LN6@CreateInst

; 626  :         }
; 627  : 
; 628  :         if (FAILED(hr)) {
; 629  :             // just in case refcount = 0 and dtor gets called
; 630  :             m_pInterface = NULL;

  000af	8b 55 f8	 mov	 edx, DWORD PTR _this$[ebp]
  000b2	c7 02 00 00 00
	00		 mov	 DWORD PTR [edx], 0
$LN6@CreateInst:
  000b8	8b 45 fc	 mov	 eax, DWORD PTR _hr$[ebp]
  000bb	8b e5		 mov	 esp, ebp
  000bd	5d		 pop	 ebp
  000be	c2 0c 00	 ret	 12			; 0000000cH
?CreateInstance@?$_com_ptr_t@V?$_com_IIID@U_Recordset@ADOCG@@$1?_GUID_00000556_0000_0010_8000_00aa006d2ea4@@3U__s_GUID@@B@@@@QAEJABU_GUID@@PAUIUnknown@@K@Z ENDP ; _com_ptr_t<_com_IIID<ADOCG::_Recordset,&_GUID_00000556_0000_0010_8000_00aa006d2ea4> >::CreateInstance
_TEXT	ENDS
; Function compile flags: /Odtp
; File c:\program files (x86)\microsoft visual studio\2017\community\vc\tools\msvc\14.16.27023\include\comip.h
;	COMDAT ?Release@?$_com_ptr_t@V?$_com_IIID@U_Recordset@ADOCG@@$1?_GUID_00000556_0000_0010_8000_00aa006d2ea4@@3U__s_GUID@@B@@@@QAEXXZ
_TEXT	SEGMENT
_this$ = -4						; size = 4
?Release@?$_com_ptr_t@V?$_com_IIID@U_Recordset@ADOCG@@$1?_GUID_00000556_0000_0010_8000_00aa006d2ea4@@3U__s_GUID@@B@@@@QAEXXZ PROC ; _com_ptr_t<_com_IIID<ADOCG::_Recordset,&_GUID_00000556_0000_0010_8000_00aa006d2ea4> >::Release, COMDAT
; _this$ = ecx

; 565  :     {

  00000	55		 push	 ebp
  00001	8b ec		 mov	 ebp, esp
  00003	51		 push	 ecx
  00004	89 4d fc	 mov	 DWORD PTR _this$[ebp], ecx

; 566  :         if (m_pInterface == NULL) {

  00007	8b 45 fc	 mov	 eax, DWORD PTR _this$[ebp]
  0000a	83 38 00	 cmp	 DWORD PTR [eax], 0
  0000d	75 0c		 jne	 SHORT $LN2@Release

; 567  :             _com_issue_error(E_POINTER);

  0000f	68 03 40 00 80	 push	 -2147467261		; 80004003H
  00014	e8 00 00 00 00	 call	 ?_com_issue_error@@YGXJ@Z ; _com_issue_error
  00019	eb 1b		 jmp	 SHORT $LN4@Release
$LN2@Release:

; 568  :         }
; 569  :         else {
; 570  :             m_pInterface->Release();

  0001b	8b 4d fc	 mov	 ecx, DWORD PTR _this$[ebp]
  0001e	8b 11		 mov	 edx, DWORD PTR [ecx]
  00020	8b 45 fc	 mov	 eax, DWORD PTR _this$[ebp]
  00023	8b 08		 mov	 ecx, DWORD PTR [eax]
  00025	8b 12		 mov	 edx, DWORD PTR [edx]
  00027	51		 push	 ecx
  00028	8b 42 08	 mov	 eax, DWORD PTR [edx+8]
  0002b	ff d0		 call	 eax
  0002d	8b 4d fc	 mov	 ecx, DWORD PTR _this$[ebp]
  00030	c7 01 00 00 00
	00		 mov	 DWORD PTR [ecx], 0
$LN4@Release:
  00036	8b e5		 mov	 esp, ebp
  00038	5d		 pop	 ebp
  00039	c3		 ret	 0
?Release@?$_com_ptr_t@V?$_com_IIID@U_Recordset@ADOCG@@$1?_GUID_00000556_0000_0010_8000_00aa006d2ea4@@3U__s_GUID@@B@@@@QAEXXZ ENDP ; _com_ptr_t<_com_IIID<ADOCG::_Recordset,&_GUID_00000556_0000_0010_8000_00aa006d2ea4> >::Release
_TEXT	ENDS
; Function compile flags: /Odtp
; File c:\program files (x86)\microsoft visual studio\2017\community\vc\tools\msvc\14.16.27023\include\comip.h
;	COMDAT ??9?$_com_ptr_t@V?$_com_IIID@U_Recordset@ADOCG@@$1?_GUID_00000556_0000_0010_8000_00aa006d2ea4@@3U__s_GUID@@B@@@@QBE_NH@Z
_TEXT	SEGMENT
_this$ = -16						; size = 4
tv69 = -12						; size = 4
tv75 = -8						; size = 4
$T1 = -1						; size = 1
_null$ = 8						; size = 4
??9?$_com_ptr_t@V?$_com_IIID@U_Recordset@ADOCG@@$1?_GUID_00000556_0000_0010_8000_00aa006d2ea4@@3U__s_GUID@@B@@@@QBE_NH@Z PROC ; _com_ptr_t<_com_IIID<ADOCG::_Recordset,&_GUID_00000556_0000_0010_8000_00aa006d2ea4> >::operator!=, COMDAT
; _this$ = ecx

; 502  :     {

  00000	55		 push	 ebp
  00001	8b ec		 mov	 ebp, esp
  00003	83 ec 10	 sub	 esp, 16			; 00000010H
  00006	89 4d f0	 mov	 DWORD PTR _this$[ebp], ecx

; 478  :         if (null != 0) {

  00009	83 7d 08 00	 cmp	 DWORD PTR _null$[ebp], 0
  0000d	74 0a		 je	 SHORT $LN6@operator

; 479  :             _com_issue_error(E_POINTER);

  0000f	68 03 40 00 80	 push	 -2147467261		; 80004003H
  00014	e8 00 00 00 00	 call	 ?_com_issue_error@@YGXJ@Z ; _com_issue_error
$LN6@operator:
  00019	8b 45 f0	 mov	 eax, DWORD PTR _this$[ebp]
  0001c	83 38 00	 cmp	 DWORD PTR [eax], 0
  0001f	75 09		 jne	 SHORT $LN8@operator
  00021	c7 45 f8 01 00
	00 00		 mov	 DWORD PTR tv75[ebp], 1
  00028	eb 07		 jmp	 SHORT $LN9@operator
$LN8@operator:
  0002a	c7 45 f8 00 00
	00 00		 mov	 DWORD PTR tv75[ebp], 0
$LN9@operator:
  00031	8a 4d f8	 mov	 cl, BYTE PTR tv75[ebp]
  00034	88 4d ff	 mov	 BYTE PTR $T1[ebp], cl

; 503  :         return !(operator==(null));

  00037	0f b6 55 ff	 movzx	 edx, BYTE PTR $T1[ebp]
  0003b	85 d2		 test	 edx, edx
  0003d	75 09		 jne	 SHORT $LN3@operator
  0003f	c7 45 f4 01 00
	00 00		 mov	 DWORD PTR tv69[ebp], 1
  00046	eb 07		 jmp	 SHORT $LN4@operator
$LN3@operator:
  00048	c7 45 f4 00 00
	00 00		 mov	 DWORD PTR tv69[ebp], 0
$LN4@operator:
  0004f	8a 45 f4	 mov	 al, BYTE PTR tv69[ebp]
$LN10@operator:
  00052	8b e5		 mov	 esp, ebp
  00054	5d		 pop	 ebp
  00055	c2 04 00	 ret	 4
??9?$_com_ptr_t@V?$_com_IIID@U_Recordset@ADOCG@@$1?_GUID_00000556_0000_0010_8000_00aa006d2ea4@@3U__s_GUID@@B@@@@QBE_NH@Z ENDP ; _com_ptr_t<_com_IIID<ADOCG::_Recordset,&_GUID_00000556_0000_0010_8000_00aa006d2ea4> >::operator!=
_TEXT	ENDS
; Function compile flags: /Odtp
; File c:\program files (x86)\microsoft visual studio\2017\community\vc\tools\msvc\14.16.27023\include\comip.h
;	COMDAT ??8?$_com_ptr_t@V?$_com_IIID@U_Recordset@ADOCG@@$1?_GUID_00000556_0000_0010_8000_00aa006d2ea4@@3U__s_GUID@@B@@@@QBE_NH@Z
_TEXT	SEGMENT
_this$ = -8						; size = 4
tv68 = -4						; size = 4
_null$ = 8						; size = 4
??8?$_com_ptr_t@V?$_com_IIID@U_Recordset@ADOCG@@$1?_GUID_00000556_0000_0010_8000_00aa006d2ea4@@3U__s_GUID@@B@@@@QBE_NH@Z PROC ; _com_ptr_t<_com_IIID<ADOCG::_Recordset,&_GUID_00000556_0000_0010_8000_00aa006d2ea4> >::operator==, COMDAT
; _this$ = ecx

; 477  :     {

  00000	55		 push	 ebp
  00001	8b ec		 mov	 ebp, esp
  00003	83 ec 08	 sub	 esp, 8
  00006	89 4d f8	 mov	 DWORD PTR _this$[ebp], ecx

; 478  :         if (null != 0) {

  00009	83 7d 08 00	 cmp	 DWORD PTR _null$[ebp], 0
  0000d	74 0a		 je	 SHORT $LN2@operator

; 479  :             _com_issue_error(E_POINTER);

  0000f	68 03 40 00 80	 push	 -2147467261		; 80004003H
  00014	e8 00 00 00 00	 call	 ?_com_issue_error@@YGXJ@Z ; _com_issue_error
$LN2@operator:
  00019	8b 45 f8	 mov	 eax, DWORD PTR _this$[ebp]
  0001c	83 38 00	 cmp	 DWORD PTR [eax], 0
  0001f	75 09		 jne	 SHORT $LN4@operator
  00021	c7 45 fc 01 00
	00 00		 mov	 DWORD PTR tv68[ebp], 1
  00028	eb 07		 jmp	 SHORT $LN5@operator
$LN4@operator:
  0002a	c7 45 fc 00 00
	00 00		 mov	 DWORD PTR tv68[ebp], 0
$LN5@operator:
  00031	8a 45 fc	 mov	 al, BYTE PTR tv68[ebp]
$LN3@operator:
  00034	8b e5		 mov	 esp, ebp
  00036	5d		 pop	 ebp
  00037	c2 04 00	 ret	 4
??8?$_com_ptr_t@V?$_com_IIID@U_Recordset@ADOCG@@$1?_GUID_00000556_0000_0010_8000_00aa006d2ea4@@3U__s_GUID@@B@@@@QBE_NH@Z ENDP ; _com_ptr_t<_com_IIID<ADOCG::_Recordset,&_GUID_00000556_0000_0010_8000_00aa006d2ea4> >::operator==
_TEXT	ENDS
; Function compile flags: /Odtp
; File c:\program files (x86)\microsoft visual studio\2017\community\vc\tools\msvc\14.16.27023\include\comip.h
;	COMDAT ??B?$_com_ptr_t@V?$_com_IIID@U_Recordset@ADOCG@@$1?_GUID_00000556_0000_0010_8000_00aa006d2ea4@@3U__s_GUID@@B@@@@QBE_NXZ
_TEXT	SEGMENT
_this$ = -8						; size = 4
tv66 = -4						; size = 4
??B?$_com_ptr_t@V?$_com_IIID@U_Recordset@ADOCG@@$1?_GUID_00000556_0000_0010_8000_00aa006d2ea4@@3U__s_GUID@@B@@@@QBE_NXZ PROC ; _com_ptr_t<_com_IIID<ADOCG::_Recordset,&_GUID_00000556_0000_0010_8000_00aa006d2ea4> >::operator bool, COMDAT
; _this$ = ecx

; 440  :     {

  00000	55		 push	 ebp
  00001	8b ec		 mov	 ebp, esp
  00003	83 ec 08	 sub	 esp, 8
  00006	89 4d f8	 mov	 DWORD PTR _this$[ebp], ecx

; 441  :         return m_pInterface != NULL;

  00009	8b 45 f8	 mov	 eax, DWORD PTR _this$[ebp]
  0000c	83 38 00	 cmp	 DWORD PTR [eax], 0
  0000f	74 09		 je	 SHORT $LN3@operator
  00011	c7 45 fc 01 00
	00 00		 mov	 DWORD PTR tv66[ebp], 1
  00018	eb 07		 jmp	 SHORT $LN4@operator
$LN3@operator:
  0001a	c7 45 fc 00 00
	00 00		 mov	 DWORD PTR tv66[ebp], 0
$LN4@operator:
  00021	8a 45 fc	 mov	 al, BYTE PTR tv66[ebp]
  00024	8b e5		 mov	 esp, ebp
  00026	5d		 pop	 ebp
  00027	c3		 ret	 0
??B?$_com_ptr_t@V?$_com_IIID@U_Recordset@ADOCG@@$1?_GUID_00000556_0000_0010_8000_00aa006d2ea4@@3U__s_GUID@@B@@@@QBE_NXZ ENDP ; _com_ptr_t<_com_IIID<ADOCG::_Recordset,&_GUID_00000556_0000_0010_8000_00aa006d2ea4> >::operator bool
_TEXT	ENDS
; Function compile flags: /Odtp
; File c:\program files (x86)\microsoft visual studio\2017\community\vc\tools\msvc\14.16.27023\include\comip.h
;	COMDAT ??C?$_com_ptr_t@V?$_com_IIID@U_Recordset@ADOCG@@$1?_GUID_00000556_0000_0010_8000_00aa006d2ea4@@3U__s_GUID@@B@@@@QBEPAU_Recordset@ADOCG@@XZ
_TEXT	SEGMENT
_this$ = -4						; size = 4
??C?$_com_ptr_t@V?$_com_IIID@U_Recordset@ADOCG@@$1?_GUID_00000556_0000_0010_8000_00aa006d2ea4@@3U__s_GUID@@B@@@@QBEPAU_Recordset@ADOCG@@XZ PROC ; _com_ptr_t<_com_IIID<ADOCG::_Recordset,&_GUID_00000556_0000_0010_8000_00aa006d2ea4> >::operator->, COMDAT
; _this$ = ecx

; 427  :     {

  00000	55		 push	 ebp
  00001	8b ec		 mov	 ebp, esp
  00003	51		 push	 ecx
  00004	89 4d fc	 mov	 DWORD PTR _this$[ebp], ecx

; 428  :         if (m_pInterface == NULL) {

  00007	8b 45 fc	 mov	 eax, DWORD PTR _this$[ebp]
  0000a	83 38 00	 cmp	 DWORD PTR [eax], 0
  0000d	75 0a		 jne	 SHORT $LN2@operator

; 429  :             _com_issue_error(E_POINTER);

  0000f	68 03 40 00 80	 push	 -2147467261		; 80004003H
  00014	e8 00 00 00 00	 call	 ?_com_issue_error@@YGXJ@Z ; _com_issue_error
$LN2@operator:
  00019	8b 4d fc	 mov	 ecx, DWORD PTR _this$[ebp]
  0001c	8b 01		 mov	 eax, DWORD PTR [ecx]
$LN3@operator:
  0001e	8b e5		 mov	 esp, ebp
  00020	5d		 pop	 ebp
  00021	c3		 ret	 0
??C?$_com_ptr_t@V?$_com_IIID@U_Recordset@ADOCG@@$1?_GUID_00000556_0000_0010_8000_00aa006d2ea4@@3U__s_GUID@@B@@@@QBEPAU_Recordset@ADOCG@@XZ ENDP ; _com_ptr_t<_com_IIID<ADOCG::_Recordset,&_GUID_00000556_0000_0010_8000_00aa006d2ea4> >::operator->
_TEXT	ENDS
; Function compile flags: /Odtp
; File c:\program files (x86)\microsoft visual studio\2017\community\vc\tools\msvc\14.16.27023\include\comip.h
;	COMDAT ??1?$_com_ptr_t@V?$_com_IIID@U_Recordset@ADOCG@@$1?_GUID_00000556_0000_0010_8000_00aa006d2ea4@@3U__s_GUID@@B@@@@QAE@XZ
_TEXT	SEGMENT
_this$ = -4						; size = 4
??1?$_com_ptr_t@V?$_com_IIID@U_Recordset@ADOCG@@$1?_GUID_00000556_0000_0010_8000_00aa006d2ea4@@3U__s_GUID@@B@@@@QAE@XZ PROC ; _com_ptr_t<_com_IIID<ADOCG::_Recordset,&_GUID_00000556_0000_0010_8000_00aa006d2ea4> >::~_com_ptr_t<_com_IIID<ADOCG::_Recordset,&_GUID_00000556_0000_0010_8000_00aa006d2ea4> >, COMDAT
; _this$ = ecx

; 341  :     {

  00000	55		 push	 ebp
  00001	8b ec		 mov	 ebp, esp
  00003	51		 push	 ecx
  00004	89 4d fc	 mov	 DWORD PTR _this$[ebp], ecx

; 817  :         if (m_pInterface != NULL) {

  00007	8b 45 fc	 mov	 eax, DWORD PTR _this$[ebp]
  0000a	83 38 00	 cmp	 DWORD PTR [eax], 0
  0000d	74 12		 je	 SHORT $LN1@com_ptr_t

; 818  :             m_pInterface->Release();

  0000f	8b 4d fc	 mov	 ecx, DWORD PTR _this$[ebp]
  00012	8b 11		 mov	 edx, DWORD PTR [ecx]
  00014	8b 45 fc	 mov	 eax, DWORD PTR _this$[ebp]
  00017	8b 08		 mov	 ecx, DWORD PTR [eax]
  00019	8b 12		 mov	 edx, DWORD PTR [edx]
  0001b	51		 push	 ecx
  0001c	8b 42 08	 mov	 eax, DWORD PTR [edx+8]
  0001f	ff d0		 call	 eax
$LN1@com_ptr_t:

; 342  :         _Release();

  00021	8b e5		 mov	 esp, ebp
  00023	5d		 pop	 ebp
  00024	c3		 ret	 0
??1?$_com_ptr_t@V?$_com_IIID@U_Recordset@ADOCG@@$1?_GUID_00000556_0000_0010_8000_00aa006d2ea4@@3U__s_GUID@@B@@@@QAE@XZ ENDP ; _com_ptr_t<_com_IIID<ADOCG::_Recordset,&_GUID_00000556_0000_0010_8000_00aa006d2ea4> >::~_com_ptr_t<_com_IIID<ADOCG::_Recordset,&_GUID_00000556_0000_0010_8000_00aa006d2ea4> >
_TEXT	ENDS
; Function compile flags: /Odtp
; File c:\program files (x86)\microsoft visual studio\2017\community\vc\tools\msvc\14.16.27023\include\comip.h
;	COMDAT ??0?$_com_ptr_t@V?$_com_IIID@U_Recordset@ADOCG@@$1?_GUID_00000556_0000_0010_8000_00aa006d2ea4@@3U__s_GUID@@B@@@@QAE@PAU_Recordset@ADOCG@@_N@Z
_TEXT	SEGMENT
_this$ = -4						; size = 4
_pInterface$ = 8					; size = 4
_fAddRef$ = 12						; size = 1
??0?$_com_ptr_t@V?$_com_IIID@U_Recordset@ADOCG@@$1?_GUID_00000556_0000_0010_8000_00aa006d2ea4@@3U__s_GUID@@B@@@@QAE@PAU_Recordset@ADOCG@@_N@Z PROC ; _com_ptr_t<_com_IIID<ADOCG::_Recordset,&_GUID_00000556_0000_0010_8000_00aa006d2ea4> >::_com_ptr_t<_com_IIID<ADOCG::_Recordset,&_GUID_00000556_0000_0010_8000_00aa006d2ea4> >, COMDAT
; _this$ = ecx

; 185  :     {

  00000	55		 push	 ebp
  00001	8b ec		 mov	 ebp, esp
  00003	51		 push	 ecx
  00004	89 4d fc	 mov	 DWORD PTR _this$[ebp], ecx

; 184  :         : m_pInterface(pInterface)

  00007	8b 45 fc	 mov	 eax, DWORD PTR _this$[ebp]
  0000a	8b 4d 08	 mov	 ecx, DWORD PTR _pInterface$[ebp]
  0000d	89 08		 mov	 DWORD PTR [eax], ecx

; 186  :         if (fAddRef) {

  0000f	0f b6 55 0c	 movzx	 edx, BYTE PTR _fAddRef$[ebp]
  00013	85 d2		 test	 edx, edx
  00015	74 1a		 je	 SHORT $LN1@com_ptr_t

; 826  :         if (m_pInterface != NULL) {

  00017	8b 45 fc	 mov	 eax, DWORD PTR _this$[ebp]
  0001a	83 38 00	 cmp	 DWORD PTR [eax], 0
  0001d	74 12		 je	 SHORT $LN1@com_ptr_t

; 827  :             m_pInterface->AddRef();

  0001f	8b 4d fc	 mov	 ecx, DWORD PTR _this$[ebp]
  00022	8b 11		 mov	 edx, DWORD PTR [ecx]
  00024	8b 45 fc	 mov	 eax, DWORD PTR _this$[ebp]
  00027	8b 08		 mov	 ecx, DWORD PTR [eax]
  00029	8b 12		 mov	 edx, DWORD PTR [edx]
  0002b	51		 push	 ecx
  0002c	8b 42 04	 mov	 eax, DWORD PTR [edx+4]
  0002f	ff d0		 call	 eax
$LN1@com_ptr_t:

; 187  :             _AddRef();

  00031	8b 45 fc	 mov	 eax, DWORD PTR _this$[ebp]
  00034	8b e5		 mov	 esp, ebp
  00036	5d		 pop	 ebp
  00037	c2 08 00	 ret	 8
??0?$_com_ptr_t@V?$_com_IIID@U_Recordset@ADOCG@@$1?_GUID_00000556_0000_0010_8000_00aa006d2ea4@@3U__s_GUID@@B@@@@QAE@PAU_Recordset@ADOCG@@_N@Z ENDP ; _com_ptr_t<_com_IIID<ADOCG::_Recordset,&_GUID_00000556_0000_0010_8000_00aa006d2ea4> >::_com_ptr_t<_com_IIID<ADOCG::_Recordset,&_GUID_00000556_0000_0010_8000_00aa006d2ea4> >
_TEXT	ENDS
; Function compile flags: /Odtp
; File c:\program files (x86)\microsoft visual studio\2017\community\vc\tools\msvc\14.16.27023\include\comip.h
;	COMDAT ??0?$_com_ptr_t@V?$_com_IIID@U_Recordset@ADOCG@@$1?_GUID_00000556_0000_0010_8000_00aa006d2ea4@@3U__s_GUID@@B@@@@QAE@ABV0@@Z
_TEXT	SEGMENT
_this$ = -4						; size = 4
_cp$ = 8						; size = 4
??0?$_com_ptr_t@V?$_com_IIID@U_Recordset@ADOCG@@$1?_GUID_00000556_0000_0010_8000_00aa006d2ea4@@3U__s_GUID@@B@@@@QAE@ABV0@@Z PROC ; _com_ptr_t<_com_IIID<ADOCG::_Recordset,&_GUID_00000556_0000_0010_8000_00aa006d2ea4> >::_com_ptr_t<_com_IIID<ADOCG::_Recordset,&_GUID_00000556_0000_0010_8000_00aa006d2ea4> >, COMDAT
; _this$ = ecx

; 160  :     {

  00000	55		 push	 ebp
  00001	8b ec		 mov	 ebp, esp
  00003	51		 push	 ecx
  00004	89 4d fc	 mov	 DWORD PTR _this$[ebp], ecx

; 159  :         : m_pInterface(cp.m_pInterface)

  00007	8b 45 fc	 mov	 eax, DWORD PTR _this$[ebp]
  0000a	8b 4d 08	 mov	 ecx, DWORD PTR _cp$[ebp]
  0000d	8b 11		 mov	 edx, DWORD PTR [ecx]
  0000f	89 10		 mov	 DWORD PTR [eax], edx

; 826  :         if (m_pInterface != NULL) {

  00011	8b 45 fc	 mov	 eax, DWORD PTR _this$[ebp]
  00014	83 38 00	 cmp	 DWORD PTR [eax], 0
  00017	74 12		 je	 SHORT $LN1@com_ptr_t

; 827  :             m_pInterface->AddRef();

  00019	8b 4d fc	 mov	 ecx, DWORD PTR _this$[ebp]
  0001c	8b 11		 mov	 edx, DWORD PTR [ecx]
  0001e	8b 45 fc	 mov	 eax, DWORD PTR _this$[ebp]
  00021	8b 08		 mov	 ecx, DWORD PTR [eax]
  00023	8b 12		 mov	 edx, DWORD PTR [edx]
  00025	51		 push	 ecx
  00026	8b 42 04	 mov	 eax, DWORD PTR [edx+4]
  00029	ff d0		 call	 eax
$LN1@com_ptr_t:

; 161  :         _AddRef();

  0002b	8b 45 fc	 mov	 eax, DWORD PTR _this$[ebp]
  0002e	8b e5		 mov	 esp, ebp
  00030	5d		 pop	 ebp
  00031	c2 04 00	 ret	 4
??0?$_com_ptr_t@V?$_com_IIID@U_Recordset@ADOCG@@$1?_GUID_00000556_0000_0010_8000_00aa006d2ea4@@3U__s_GUID@@B@@@@QAE@ABV0@@Z ENDP ; _com_ptr_t<_com_IIID<ADOCG::_Recordset,&_GUID_00000556_0000_0010_8000_00aa006d2ea4> >::_com_ptr_t<_com_IIID<ADOCG::_Recordset,&_GUID_00000556_0000_0010_8000_00aa006d2ea4> >
_TEXT	ENDS
; Function compile flags: /Odtp
; File c:\program files (x86)\microsoft visual studio\2017\community\vc\tools\msvc\14.16.27023\include\comip.h
;	COMDAT ??0?$_com_ptr_t@V?$_com_IIID@U_Recordset@ADOCG@@$1?_GUID_00000556_0000_0010_8000_00aa006d2ea4@@3U__s_GUID@@B@@@@QAE@XZ
_TEXT	SEGMENT
_this$ = -4						; size = 4
??0?$_com_ptr_t@V?$_com_IIID@U_Recordset@ADOCG@@$1?_GUID_00000556_0000_0010_8000_00aa006d2ea4@@3U__s_GUID@@B@@@@QAE@XZ PROC ; _com_ptr_t<_com_IIID<ADOCG::_Recordset,&_GUID_00000556_0000_0010_8000_00aa006d2ea4> >::_com_ptr_t<_com_IIID<ADOCG::_Recordset,&_GUID_00000556_0000_0010_8000_00aa006d2ea4> >, COMDAT
; _this$ = ecx

; 135  :     {

  00000	55		 push	 ebp
  00001	8b ec		 mov	 ebp, esp
  00003	51		 push	 ecx
  00004	89 4d fc	 mov	 DWORD PTR _this$[ebp], ecx

; 134  :         : m_pInterface(NULL)

  00007	8b 45 fc	 mov	 eax, DWORD PTR _this$[ebp]
  0000a	c7 00 00 00 00
	00		 mov	 DWORD PTR [eax], 0

; 136  :     }

  00010	8b 45 fc	 mov	 eax, DWORD PTR _this$[ebp]
  00013	8b e5		 mov	 esp, ebp
  00015	5d		 pop	 ebp
  00016	c3		 ret	 0
??0?$_com_ptr_t@V?$_com_IIID@U_Recordset@ADOCG@@$1?_GUID_00000556_0000_0010_8000_00aa006d2ea4@@3U__s_GUID@@B@@@@QAE@XZ ENDP ; _com_ptr_t<_com_IIID<ADOCG::_Recordset,&_GUID_00000556_0000_0010_8000_00aa006d2ea4> >::_com_ptr_t<_com_IIID<ADOCG::_Recordset,&_GUID_00000556_0000_0010_8000_00aa006d2ea4> >
_TEXT	ENDS
; Function compile flags: /Odtp
; File c:\program files (x86)\microsoft visual studio\2017\community\vc\tools\msvc\14.16.27023\include\comip.h
;	COMDAT ?GetIID@?$_com_ptr_t@V?$_com_IIID@U_Recordset@ADOCG@@$1?_GUID_00000556_0000_0010_8000_00aa006d2ea4@@3U__s_GUID@@B@@@@SAABU_GUID@@XZ
_TEXT	SEGMENT
?GetIID@?$_com_ptr_t@V?$_com_IIID@U_Recordset@ADOCG@@$1?_GUID_00000556_0000_0010_8000_00aa006d2ea4@@3U__s_GUID@@B@@@@SAABU_GUID@@XZ PROC ; _com_ptr_t<_com_IIID<ADOCG::_Recordset,&_GUID_00000556_0000_0010_8000_00aa006d2ea4> >::GetIID, COMDAT

; 74   :     {

  00000	55		 push	 ebp
  00001	8b ec		 mov	 ebp, esp

; 75   :         return ThisIIID::GetIID();

  00003	b8 00 00 00 00	 mov	 eax, OFFSET __GUID_00000556_0000_0010_8000_00aa006d2ea4
  00008	5d		 pop	 ebp
  00009	c3		 ret	 0
?GetIID@?$_com_ptr_t@V?$_com_IIID@U_Recordset@ADOCG@@$1?_GUID_00000556_0000_0010_8000_00aa006d2ea4@@3U__s_GUID@@B@@@@SAABU_GUID@@XZ ENDP ; _com_ptr_t<_com_IIID<ADOCG::_Recordset,&_GUID_00000556_0000_0010_8000_00aa006d2ea4> >::GetIID
_TEXT	ENDS
; Function compile flags: /Odtp
; File c:\program files (x86)\microsoft visual studio\2017\community\vc\tools\msvc\14.16.27023\include\comip.h
;	COMDAT ?GetIID@?$_com_IIID@U_Recordset@ADOCG@@$1?_GUID_00000556_0000_0010_8000_00aa006d2ea4@@3U__s_GUID@@B@@SAABU_GUID@@XZ
_TEXT	SEGMENT
?GetIID@?$_com_IIID@U_Recordset@ADOCG@@$1?_GUID_00000556_0000_0010_8000_00aa006d2ea4@@3U__s_GUID@@B@@SAABU_GUID@@XZ PROC ; _com_IIID<ADOCG::_Recordset,&_GUID_00000556_0000_0010_8000_00aa006d2ea4>::GetIID, COMDAT

; 55   :     {

  00000	55		 push	 ebp
  00001	8b ec		 mov	 ebp, esp

; 56   :         return *_IID;

  00003	b8 00 00 00 00	 mov	 eax, OFFSET __GUID_00000556_0000_0010_8000_00aa006d2ea4
  00008	5d		 pop	 ebp
  00009	c3		 ret	 0
?GetIID@?$_com_IIID@U_Recordset@ADOCG@@$1?_GUID_00000556_0000_0010_8000_00aa006d2ea4@@3U__s_GUID@@B@@SAABU_GUID@@XZ ENDP ; _com_IIID<ADOCG::_Recordset,&_GUID_00000556_0000_0010_8000_00aa006d2ea4>::GetIID
_TEXT	ENDS
; Function compile flags: /Odtp
; File c:\program files (x86)\microsoft visual studio\2017\community\vc\tools\msvc\14.16.27023\include\comip.h
;	COMDAT ?_Release@?$_com_ptr_t@V?$_com_IIID@U_Connection@ADOCG@@$1?_GUID_00000550_0000_0010_8000_00aa006d2ea4@@3U__s_GUID@@B@@@@AAEXXZ
_TEXT	SEGMENT
_this$ = -4						; size = 4
?_Release@?$_com_ptr_t@V?$_com_IIID@U_Connection@ADOCG@@$1?_GUID_00000550_0000_0010_8000_00aa006d2ea4@@3U__s_GUID@@B@@@@AAEXXZ PROC ; _com_ptr_t<_com_IIID<ADOCG::_Connection,&_GUID_00000550_0000_0010_8000_00aa006d2ea4> >::_Release, COMDAT
; _this$ = ecx

; 816  :     {

  00000	55		 push	 ebp
  00001	8b ec		 mov	 ebp, esp
  00003	51		 push	 ecx
  00004	89 4d fc	 mov	 DWORD PTR _this$[ebp], ecx

; 817  :         if (m_pInterface != NULL) {

  00007	8b 45 fc	 mov	 eax, DWORD PTR _this$[ebp]
  0000a	83 38 00	 cmp	 DWORD PTR [eax], 0
  0000d	74 12		 je	 SHORT $LN1@Release

; 818  :             m_pInterface->Release();

  0000f	8b 4d fc	 mov	 ecx, DWORD PTR _this$[ebp]
  00012	8b 11		 mov	 edx, DWORD PTR [ecx]
  00014	8b 45 fc	 mov	 eax, DWORD PTR _this$[ebp]
  00017	8b 08		 mov	 ecx, DWORD PTR [eax]
  00019	8b 12		 mov	 edx, DWORD PTR [edx]
  0001b	51		 push	 ecx
  0001c	8b 42 08	 mov	 eax, DWORD PTR [edx+8]
  0001f	ff d0		 call	 eax
$LN1@Release:
  00021	8b e5		 mov	 esp, ebp
  00023	5d		 pop	 ebp
  00024	c3		 ret	 0
?_Release@?$_com_ptr_t@V?$_com_IIID@U_Connection@ADOCG@@$1?_GUID_00000550_0000_0010_8000_00aa006d2ea4@@3U__s_GUID@@B@@@@AAEXXZ ENDP ; _com_ptr_t<_com_IIID<ADOCG::_Connection,&_GUID_00000550_0000_0010_8000_00aa006d2ea4> >::_Release
_TEXT	ENDS
; Function compile flags: /Odtp
; File c:\program files (x86)\microsoft visual studio\2017\community\vc\tools\msvc\14.16.27023\include\comip.h
;	COMDAT ?CreateInstance@?$_com_ptr_t@V?$_com_IIID@U_Connection@ADOCG@@$1?_GUID_00000550_0000_0010_8000_00aa006d2ea4@@3U__s_GUID@@B@@@@QAEJABU_GUID@@PAUIUnknown@@K@Z
_TEXT	SEGMENT
_pIUnknown$1 = -12					; size = 4
_this$ = -8						; size = 4
_hr$ = -4						; size = 4
_rclsid$ = 8						; size = 4
_pOuter$ = 12						; size = 4
_dwClsContext$ = 16					; size = 4
?CreateInstance@?$_com_ptr_t@V?$_com_IIID@U_Connection@ADOCG@@$1?_GUID_00000550_0000_0010_8000_00aa006d2ea4@@3U__s_GUID@@B@@@@QAEJABU_GUID@@PAUIUnknown@@K@Z PROC ; _com_ptr_t<_com_IIID<ADOCG::_Connection,&_GUID_00000550_0000_0010_8000_00aa006d2ea4> >::CreateInstance, COMDAT
; _this$ = ecx

; 605  :     {

  00000	55		 push	 ebp
  00001	8b ec		 mov	 ebp, esp
  00003	83 ec 0c	 sub	 esp, 12			; 0000000cH
  00006	89 4d f8	 mov	 DWORD PTR _this$[ebp], ecx

; 817  :         if (m_pInterface != NULL) {

  00009	8b 45 f8	 mov	 eax, DWORD PTR _this$[ebp]
  0000c	83 38 00	 cmp	 DWORD PTR [eax], 0
  0000f	74 12		 je	 SHORT $LN8@CreateInst

; 818  :             m_pInterface->Release();

  00011	8b 4d f8	 mov	 ecx, DWORD PTR _this$[ebp]
  00014	8b 11		 mov	 edx, DWORD PTR [ecx]
  00016	8b 45 f8	 mov	 eax, DWORD PTR _this$[ebp]
  00019	8b 08		 mov	 ecx, DWORD PTR [eax]
  0001b	8b 12		 mov	 edx, DWORD PTR [edx]
  0001d	51		 push	 ecx
  0001e	8b 42 08	 mov	 eax, DWORD PTR [edx+8]
  00021	ff d0		 call	 eax
$LN8@CreateInst:

; 606  :         HRESULT hr;

  00023	8b 4d 10	 mov	 ecx, DWORD PTR _dwClsContext$[ebp]
  00026	83 e1 14	 and	 ecx, 20			; 00000014H
  00029	74 60		 je	 SHORT $LN15@CreateInst

; 607  : 
; 608  :         _Release();
; 609  : 
; 610  :         if (dwClsContext & (CLSCTX_LOCAL_SERVER | CLSCTX_REMOTE_SERVER)) {
; 611  :             IUnknown* pIUnknown;

  0002b	8d 55 f4	 lea	 edx, DWORD PTR _pIUnknown$1[ebp]
  0002e	52		 push	 edx
  0002f	68 00 00 00 00	 push	 OFFSET __GUID_00000000_0000_0000_c000_000000000046
  00034	8b 45 10	 mov	 eax, DWORD PTR _dwClsContext$[ebp]
  00037	50		 push	 eax
  00038	8b 4d 0c	 mov	 ecx, DWORD PTR _pOuter$[ebp]
  0003b	51		 push	 ecx
  0003c	8b 55 08	 mov	 edx, DWORD PTR _rclsid$[ebp]
  0003f	52		 push	 edx
  00040	ff 15 00 00 00
	00		 call	 DWORD PTR __imp__CoCreateInstance@20
  00046	89 45 fc	 mov	 DWORD PTR _hr$[ebp], eax
  00049	83 7d fc 00	 cmp	 DWORD PTR _hr$[ebp], 0
  0004d	7c 3a		 jl	 SHORT $LN4@CreateInst

; 612  :             hr = CoCreateInstance(rclsid, pOuter, dwClsContext, __uuidof(IUnknown), reinterpret_cast<void**>(&pIUnknown));
; 613  : 
; 614  :             if (SUCCEEDED(hr)) {
; 615  :                 hr = OleRun(pIUnknown);

  0004f	8b 45 f4	 mov	 eax, DWORD PTR _pIUnknown$1[ebp]
  00052	50		 push	 eax
  00053	ff 15 00 00 00
	00		 call	 DWORD PTR __imp__OleRun@4
  00059	89 45 fc	 mov	 DWORD PTR _hr$[ebp], eax
  0005c	83 7d fc 00	 cmp	 DWORD PTR _hr$[ebp], 0
  00060	7c 19		 jl	 SHORT $LN5@CreateInst

; 616  : 
; 617  :                 if (SUCCEEDED(hr)) {
; 618  :                     hr = pIUnknown->QueryInterface(GetIID(), reinterpret_cast<void**>(&m_pInterface));

  00062	8b 4d f8	 mov	 ecx, DWORD PTR _this$[ebp]
  00065	51		 push	 ecx
  00066	68 00 00 00 00	 push	 OFFSET __GUID_00000550_0000_0010_8000_00aa006d2ea4
  0006b	8b 55 f4	 mov	 edx, DWORD PTR _pIUnknown$1[ebp]
  0006e	8b 02		 mov	 eax, DWORD PTR [edx]
  00070	8b 4d f4	 mov	 ecx, DWORD PTR _pIUnknown$1[ebp]
  00073	51		 push	 ecx
  00074	8b 10		 mov	 edx, DWORD PTR [eax]
  00076	ff d2		 call	 edx
  00078	89 45 fc	 mov	 DWORD PTR _hr$[ebp], eax
$LN5@CreateInst:
  0007b	8b 45 f4	 mov	 eax, DWORD PTR _pIUnknown$1[ebp]
  0007e	8b 08		 mov	 ecx, DWORD PTR [eax]
  00080	8b 55 f4	 mov	 edx, DWORD PTR _pIUnknown$1[ebp]
  00083	52		 push	 edx
  00084	8b 41 08	 mov	 eax, DWORD PTR [ecx+8]
  00087	ff d0		 call	 eax
$LN4@CreateInst:
  00089	eb 1e		 jmp	 SHORT $LN3@CreateInst
$LN15@CreateInst:

; 619  :                 }
; 620  : 
; 621  :                 pIUnknown->Release();
; 622  :             }
; 623  :         }
; 624  :         else {
; 625  :             hr = CoCreateInstance(rclsid, pOuter, dwClsContext, GetIID(), reinterpret_cast<void**>(&m_pInterface));

  0008b	8b 4d f8	 mov	 ecx, DWORD PTR _this$[ebp]
  0008e	51		 push	 ecx
  0008f	68 00 00 00 00	 push	 OFFSET __GUID_00000550_0000_0010_8000_00aa006d2ea4
  00094	8b 55 10	 mov	 edx, DWORD PTR _dwClsContext$[ebp]
  00097	52		 push	 edx
  00098	8b 45 0c	 mov	 eax, DWORD PTR _pOuter$[ebp]
  0009b	50		 push	 eax
  0009c	8b 4d 08	 mov	 ecx, DWORD PTR _rclsid$[ebp]
  0009f	51		 push	 ecx
  000a0	ff 15 00 00 00
	00		 call	 DWORD PTR __imp__CoCreateInstance@20
  000a6	89 45 fc	 mov	 DWORD PTR _hr$[ebp], eax
$LN3@CreateInst:
  000a9	83 7d fc 00	 cmp	 DWORD PTR _hr$[ebp], 0
  000ad	7d 09		 jge	 SHORT $LN6@CreateInst

; 626  :         }
; 627  : 
; 628  :         if (FAILED(hr)) {
; 629  :             // just in case refcount = 0 and dtor gets called
; 630  :             m_pInterface = NULL;

  000af	8b 55 f8	 mov	 edx, DWORD PTR _this$[ebp]
  000b2	c7 02 00 00 00
	00		 mov	 DWORD PTR [edx], 0
$LN6@CreateInst:
  000b8	8b 45 fc	 mov	 eax, DWORD PTR _hr$[ebp]
  000bb	8b e5		 mov	 esp, ebp
  000bd	5d		 pop	 ebp
  000be	c2 0c 00	 ret	 12			; 0000000cH
?CreateInstance@?$_com_ptr_t@V?$_com_IIID@U_Connection@ADOCG@@$1?_GUID_00000550_0000_0010_8000_00aa006d2ea4@@3U__s_GUID@@B@@@@QAEJABU_GUID@@PAUIUnknown@@K@Z ENDP ; _com_ptr_t<_com_IIID<ADOCG::_Connection,&_GUID_00000550_0000_0010_8000_00aa006d2ea4> >::CreateInstance
_TEXT	ENDS
; Function compile flags: /Odtp
; File c:\program files (x86)\microsoft visual studio\2017\community\vc\tools\msvc\14.16.27023\include\comip.h
;	COMDAT ?Release@?$_com_ptr_t@V?$_com_IIID@U_Connection@ADOCG@@$1?_GUID_00000550_0000_0010_8000_00aa006d2ea4@@3U__s_GUID@@B@@@@QAEXXZ
_TEXT	SEGMENT
_this$ = -4						; size = 4
?Release@?$_com_ptr_t@V?$_com_IIID@U_Connection@ADOCG@@$1?_GUID_00000550_0000_0010_8000_00aa006d2ea4@@3U__s_GUID@@B@@@@QAEXXZ PROC ; _com_ptr_t<_com_IIID<ADOCG::_Connection,&_GUID_00000550_0000_0010_8000_00aa006d2ea4> >::Release, COMDAT
; _this$ = ecx

; 565  :     {

  00000	55		 push	 ebp
  00001	8b ec		 mov	 ebp, esp
  00003	51		 push	 ecx
  00004	89 4d fc	 mov	 DWORD PTR _this$[ebp], ecx

; 566  :         if (m_pInterface == NULL) {

  00007	8b 45 fc	 mov	 eax, DWORD PTR _this$[ebp]
  0000a	83 38 00	 cmp	 DWORD PTR [eax], 0
  0000d	75 0c		 jne	 SHORT $LN2@Release

; 567  :             _com_issue_error(E_POINTER);

  0000f	68 03 40 00 80	 push	 -2147467261		; 80004003H
  00014	e8 00 00 00 00	 call	 ?_com_issue_error@@YGXJ@Z ; _com_issue_error
  00019	eb 1b		 jmp	 SHORT $LN4@Release
$LN2@Release:

; 568  :         }
; 569  :         else {
; 570  :             m_pInterface->Release();

  0001b	8b 4d fc	 mov	 ecx, DWORD PTR _this$[ebp]
  0001e	8b 11		 mov	 edx, DWORD PTR [ecx]
  00020	8b 45 fc	 mov	 eax, DWORD PTR _this$[ebp]
  00023	8b 08		 mov	 ecx, DWORD PTR [eax]
  00025	8b 12		 mov	 edx, DWORD PTR [edx]
  00027	51		 push	 ecx
  00028	8b 42 08	 mov	 eax, DWORD PTR [edx+8]
  0002b	ff d0		 call	 eax
  0002d	8b 4d fc	 mov	 ecx, DWORD PTR _this$[ebp]
  00030	c7 01 00 00 00
	00		 mov	 DWORD PTR [ecx], 0
$LN4@Release:
  00036	8b e5		 mov	 esp, ebp
  00038	5d		 pop	 ebp
  00039	c3		 ret	 0
?Release@?$_com_ptr_t@V?$_com_IIID@U_Connection@ADOCG@@$1?_GUID_00000550_0000_0010_8000_00aa006d2ea4@@3U__s_GUID@@B@@@@QAEXXZ ENDP ; _com_ptr_t<_com_IIID<ADOCG::_Connection,&_GUID_00000550_0000_0010_8000_00aa006d2ea4> >::Release
_TEXT	ENDS
; Function compile flags: /Odtp
; File c:\program files (x86)\microsoft visual studio\2017\community\vc\tools\msvc\14.16.27023\include\comip.h
;	COMDAT ??9?$_com_ptr_t@V?$_com_IIID@U_Connection@ADOCG@@$1?_GUID_00000550_0000_0010_8000_00aa006d2ea4@@3U__s_GUID@@B@@@@QBE_NH@Z
_TEXT	SEGMENT
_this$ = -16						; size = 4
tv69 = -12						; size = 4
tv75 = -8						; size = 4
$T1 = -1						; size = 1
_null$ = 8						; size = 4
??9?$_com_ptr_t@V?$_com_IIID@U_Connection@ADOCG@@$1?_GUID_00000550_0000_0010_8000_00aa006d2ea4@@3U__s_GUID@@B@@@@QBE_NH@Z PROC ; _com_ptr_t<_com_IIID<ADOCG::_Connection,&_GUID_00000550_0000_0010_8000_00aa006d2ea4> >::operator!=, COMDAT
; _this$ = ecx

; 502  :     {

  00000	55		 push	 ebp
  00001	8b ec		 mov	 ebp, esp
  00003	83 ec 10	 sub	 esp, 16			; 00000010H
  00006	89 4d f0	 mov	 DWORD PTR _this$[ebp], ecx

; 478  :         if (null != 0) {

  00009	83 7d 08 00	 cmp	 DWORD PTR _null$[ebp], 0
  0000d	74 0a		 je	 SHORT $LN6@operator

; 479  :             _com_issue_error(E_POINTER);

  0000f	68 03 40 00 80	 push	 -2147467261		; 80004003H
  00014	e8 00 00 00 00	 call	 ?_com_issue_error@@YGXJ@Z ; _com_issue_error
$LN6@operator:
  00019	8b 45 f0	 mov	 eax, DWORD PTR _this$[ebp]
  0001c	83 38 00	 cmp	 DWORD PTR [eax], 0
  0001f	75 09		 jne	 SHORT $LN8@operator
  00021	c7 45 f8 01 00
	00 00		 mov	 DWORD PTR tv75[ebp], 1
  00028	eb 07		 jmp	 SHORT $LN9@operator
$LN8@operator:
  0002a	c7 45 f8 00 00
	00 00		 mov	 DWORD PTR tv75[ebp], 0
$LN9@operator:
  00031	8a 4d f8	 mov	 cl, BYTE PTR tv75[ebp]
  00034	88 4d ff	 mov	 BYTE PTR $T1[ebp], cl

; 503  :         return !(operator==(null));

  00037	0f b6 55 ff	 movzx	 edx, BYTE PTR $T1[ebp]
  0003b	85 d2		 test	 edx, edx
  0003d	75 09		 jne	 SHORT $LN3@operator
  0003f	c7 45 f4 01 00
	00 00		 mov	 DWORD PTR tv69[ebp], 1
  00046	eb 07		 jmp	 SHORT $LN4@operator
$LN3@operator:
  00048	c7 45 f4 00 00
	00 00		 mov	 DWORD PTR tv69[ebp], 0
$LN4@operator:
  0004f	8a 45 f4	 mov	 al, BYTE PTR tv69[ebp]
$LN10@operator:
  00052	8b e5		 mov	 esp, ebp
  00054	5d		 pop	 ebp
  00055	c2 04 00	 ret	 4
??9?$_com_ptr_t@V?$_com_IIID@U_Connection@ADOCG@@$1?_GUID_00000550_0000_0010_8000_00aa006d2ea4@@3U__s_GUID@@B@@@@QBE_NH@Z ENDP ; _com_ptr_t<_com_IIID<ADOCG::_Connection,&_GUID_00000550_0000_0010_8000_00aa006d2ea4> >::operator!=
_TEXT	ENDS
; Function compile flags: /Odtp
; File c:\program files (x86)\microsoft visual studio\2017\community\vc\tools\msvc\14.16.27023\include\comip.h
;	COMDAT ??8?$_com_ptr_t@V?$_com_IIID@U_Connection@ADOCG@@$1?_GUID_00000550_0000_0010_8000_00aa006d2ea4@@3U__s_GUID@@B@@@@QBE_NH@Z
_TEXT	SEGMENT
_this$ = -8						; size = 4
tv68 = -4						; size = 4
_null$ = 8						; size = 4
??8?$_com_ptr_t@V?$_com_IIID@U_Connection@ADOCG@@$1?_GUID_00000550_0000_0010_8000_00aa006d2ea4@@3U__s_GUID@@B@@@@QBE_NH@Z PROC ; _com_ptr_t<_com_IIID<ADOCG::_Connection,&_GUID_00000550_0000_0010_8000_00aa006d2ea4> >::operator==, COMDAT
; _this$ = ecx

; 477  :     {

  00000	55		 push	 ebp
  00001	8b ec		 mov	 ebp, esp
  00003	83 ec 08	 sub	 esp, 8
  00006	89 4d f8	 mov	 DWORD PTR _this$[ebp], ecx

; 478  :         if (null != 0) {

  00009	83 7d 08 00	 cmp	 DWORD PTR _null$[ebp], 0
  0000d	74 0a		 je	 SHORT $LN2@operator

; 479  :             _com_issue_error(E_POINTER);

  0000f	68 03 40 00 80	 push	 -2147467261		; 80004003H
  00014	e8 00 00 00 00	 call	 ?_com_issue_error@@YGXJ@Z ; _com_issue_error
$LN2@operator:
  00019	8b 45 f8	 mov	 eax, DWORD PTR _this$[ebp]
  0001c	83 38 00	 cmp	 DWORD PTR [eax], 0
  0001f	75 09		 jne	 SHORT $LN4@operator
  00021	c7 45 fc 01 00
	00 00		 mov	 DWORD PTR tv68[ebp], 1
  00028	eb 07		 jmp	 SHORT $LN5@operator
$LN4@operator:
  0002a	c7 45 fc 00 00
	00 00		 mov	 DWORD PTR tv68[ebp], 0
$LN5@operator:
  00031	8a 45 fc	 mov	 al, BYTE PTR tv68[ebp]
$LN3@operator:
  00034	8b e5		 mov	 esp, ebp
  00036	5d		 pop	 ebp
  00037	c2 04 00	 ret	 4
??8?$_com_ptr_t@V?$_com_IIID@U_Connection@ADOCG@@$1?_GUID_00000550_0000_0010_8000_00aa006d2ea4@@3U__s_GUID@@B@@@@QBE_NH@Z ENDP ; _com_ptr_t<_com_IIID<ADOCG::_Connection,&_GUID_00000550_0000_0010_8000_00aa006d2ea4> >::operator==
_TEXT	ENDS
; Function compile flags: /Odtp
; File c:\program files (x86)\microsoft visual studio\2017\community\vc\tools\msvc\14.16.27023\include\comip.h
;	COMDAT ??C?$_com_ptr_t@V?$_com_IIID@U_Connection@ADOCG@@$1?_GUID_00000550_0000_0010_8000_00aa006d2ea4@@3U__s_GUID@@B@@@@QBEPAU_Connection@ADOCG@@XZ
_TEXT	SEGMENT
_this$ = -4						; size = 4
??C?$_com_ptr_t@V?$_com_IIID@U_Connection@ADOCG@@$1?_GUID_00000550_0000_0010_8000_00aa006d2ea4@@3U__s_GUID@@B@@@@QBEPAU_Connection@ADOCG@@XZ PROC ; _com_ptr_t<_com_IIID<ADOCG::_Connection,&_GUID_00000550_0000_0010_8000_00aa006d2ea4> >::operator->, COMDAT
; _this$ = ecx

; 427  :     {

  00000	55		 push	 ebp
  00001	8b ec		 mov	 ebp, esp
  00003	51		 push	 ecx
  00004	89 4d fc	 mov	 DWORD PTR _this$[ebp], ecx

; 428  :         if (m_pInterface == NULL) {

  00007	8b 45 fc	 mov	 eax, DWORD PTR _this$[ebp]
  0000a	83 38 00	 cmp	 DWORD PTR [eax], 0
  0000d	75 0a		 jne	 SHORT $LN2@operator

; 429  :             _com_issue_error(E_POINTER);

  0000f	68 03 40 00 80	 push	 -2147467261		; 80004003H
  00014	e8 00 00 00 00	 call	 ?_com_issue_error@@YGXJ@Z ; _com_issue_error
$LN2@operator:
  00019	8b 4d fc	 mov	 ecx, DWORD PTR _this$[ebp]
  0001c	8b 01		 mov	 eax, DWORD PTR [ecx]
$LN3@operator:
  0001e	8b e5		 mov	 esp, ebp
  00020	5d		 pop	 ebp
  00021	c3		 ret	 0
??C?$_com_ptr_t@V?$_com_IIID@U_Connection@ADOCG@@$1?_GUID_00000550_0000_0010_8000_00aa006d2ea4@@3U__s_GUID@@B@@@@QBEPAU_Connection@ADOCG@@XZ ENDP ; _com_ptr_t<_com_IIID<ADOCG::_Connection,&_GUID_00000550_0000_0010_8000_00aa006d2ea4> >::operator->
_TEXT	ENDS
; Function compile flags: /Odtp
; File c:\program files (x86)\microsoft visual studio\2017\community\vc\tools\msvc\14.16.27023\include\comip.h
;	COMDAT ??B?$_com_ptr_t@V?$_com_IIID@U_Connection@ADOCG@@$1?_GUID_00000550_0000_0010_8000_00aa006d2ea4@@3U__s_GUID@@B@@@@QBEPAU_Connection@ADOCG@@XZ
_TEXT	SEGMENT
_this$ = -4						; size = 4
??B?$_com_ptr_t@V?$_com_IIID@U_Connection@ADOCG@@$1?_GUID_00000550_0000_0010_8000_00aa006d2ea4@@3U__s_GUID@@B@@@@QBEPAU_Connection@ADOCG@@XZ PROC ; _com_ptr_t<_com_IIID<ADOCG::_Connection,&_GUID_00000550_0000_0010_8000_00aa006d2ea4> >::operator ADOCG::_Connection *, COMDAT
; _this$ = ecx

; 384  :     {

  00000	55		 push	 ebp
  00001	8b ec		 mov	 ebp, esp
  00003	51		 push	 ecx
  00004	89 4d fc	 mov	 DWORD PTR _this$[ebp], ecx

; 385  :         return m_pInterface;

  00007	8b 45 fc	 mov	 eax, DWORD PTR _this$[ebp]
  0000a	8b 00		 mov	 eax, DWORD PTR [eax]
  0000c	8b e5		 mov	 esp, ebp
  0000e	5d		 pop	 ebp
  0000f	c3		 ret	 0
??B?$_com_ptr_t@V?$_com_IIID@U_Connection@ADOCG@@$1?_GUID_00000550_0000_0010_8000_00aa006d2ea4@@3U__s_GUID@@B@@@@QBEPAU_Connection@ADOCG@@XZ ENDP ; _com_ptr_t<_com_IIID<ADOCG::_Connection,&_GUID_00000550_0000_0010_8000_00aa006d2ea4> >::operator ADOCG::_Connection *
_TEXT	ENDS
; Function compile flags: /Odtp
; File c:\program files (x86)\microsoft visual studio\2017\community\vc\tools\msvc\14.16.27023\include\comip.h
;	COMDAT ??1?$_com_ptr_t@V?$_com_IIID@U_Connection@ADOCG@@$1?_GUID_00000550_0000_0010_8000_00aa006d2ea4@@3U__s_GUID@@B@@@@QAE@XZ
_TEXT	SEGMENT
_this$ = -4						; size = 4
??1?$_com_ptr_t@V?$_com_IIID@U_Connection@ADOCG@@$1?_GUID_00000550_0000_0010_8000_00aa006d2ea4@@3U__s_GUID@@B@@@@QAE@XZ PROC ; _com_ptr_t<_com_IIID<ADOCG::_Connection,&_GUID_00000550_0000_0010_8000_00aa006d2ea4> >::~_com_ptr_t<_com_IIID<ADOCG::_Connection,&_GUID_00000550_0000_0010_8000_00aa006d2ea4> >, COMDAT
; _this$ = ecx

; 341  :     {

  00000	55		 push	 ebp
  00001	8b ec		 mov	 ebp, esp
  00003	51		 push	 ecx
  00004	89 4d fc	 mov	 DWORD PTR _this$[ebp], ecx

; 817  :         if (m_pInterface != NULL) {

  00007	8b 45 fc	 mov	 eax, DWORD PTR _this$[ebp]
  0000a	83 38 00	 cmp	 DWORD PTR [eax], 0
  0000d	74 12		 je	 SHORT $LN1@com_ptr_t

; 818  :             m_pInterface->Release();

  0000f	8b 4d fc	 mov	 ecx, DWORD PTR _this$[ebp]
  00012	8b 11		 mov	 edx, DWORD PTR [ecx]
  00014	8b 45 fc	 mov	 eax, DWORD PTR _this$[ebp]
  00017	8b 08		 mov	 ecx, DWORD PTR [eax]
  00019	8b 12		 mov	 edx, DWORD PTR [edx]
  0001b	51		 push	 ecx
  0001c	8b 42 08	 mov	 eax, DWORD PTR [edx+8]
  0001f	ff d0		 call	 eax
$LN1@com_ptr_t:

; 342  :         _Release();

  00021	8b e5		 mov	 esp, ebp
  00023	5d		 pop	 ebp
  00024	c3		 ret	 0
??1?$_com_ptr_t@V?$_com_IIID@U_Connection@ADOCG@@$1?_GUID_00000550_0000_0010_8000_00aa006d2ea4@@3U__s_GUID@@B@@@@QAE@XZ ENDP ; _com_ptr_t<_com_IIID<ADOCG::_Connection,&_GUID_00000550_0000_0010_8000_00aa006d2ea4> >::~_com_ptr_t<_com_IIID<ADOCG::_Connection,&_GUID_00000550_0000_0010_8000_00aa006d2ea4> >
_TEXT	ENDS
; Function compile flags: /Odtp
; File c:\program files (x86)\microsoft visual studio\2017\community\vc\tools\msvc\14.16.27023\include\comip.h
;	COMDAT ??0?$_com_ptr_t@V?$_com_IIID@U_Connection@ADOCG@@$1?_GUID_00000550_0000_0010_8000_00aa006d2ea4@@3U__s_GUID@@B@@@@QAE@XZ
_TEXT	SEGMENT
_this$ = -4						; size = 4
??0?$_com_ptr_t@V?$_com_IIID@U_Connection@ADOCG@@$1?_GUID_00000550_0000_0010_8000_00aa006d2ea4@@3U__s_GUID@@B@@@@QAE@XZ PROC ; _com_ptr_t<_com_IIID<ADOCG::_Connection,&_GUID_00000550_0000_0010_8000_00aa006d2ea4> >::_com_ptr_t<_com_IIID<ADOCG::_Connection,&_GUID_00000550_0000_0010_8000_00aa006d2ea4> >, COMDAT
; _this$ = ecx

; 135  :     {

  00000	55		 push	 ebp
  00001	8b ec		 mov	 ebp, esp
  00003	51		 push	 ecx
  00004	89 4d fc	 mov	 DWORD PTR _this$[ebp], ecx

; 134  :         : m_pInterface(NULL)

  00007	8b 45 fc	 mov	 eax, DWORD PTR _this$[ebp]
  0000a	c7 00 00 00 00
	00		 mov	 DWORD PTR [eax], 0

; 136  :     }

  00010	8b 45 fc	 mov	 eax, DWORD PTR _this$[ebp]
  00013	8b e5		 mov	 esp, ebp
  00015	5d		 pop	 ebp
  00016	c3		 ret	 0
??0?$_com_ptr_t@V?$_com_IIID@U_Connection@ADOCG@@$1?_GUID_00000550_0000_0010_8000_00aa006d2ea4@@3U__s_GUID@@B@@@@QAE@XZ ENDP ; _com_ptr_t<_com_IIID<ADOCG::_Connection,&_GUID_00000550_0000_0010_8000_00aa006d2ea4> >::_com_ptr_t<_com_IIID<ADOCG::_Connection,&_GUID_00000550_0000_0010_8000_00aa006d2ea4> >
_TEXT	ENDS
; Function compile flags: /Odtp
; File c:\program files (x86)\microsoft visual studio\2017\community\vc\tools\msvc\14.16.27023\include\comip.h
;	COMDAT ?GetIID@?$_com_ptr_t@V?$_com_IIID@U_Connection@ADOCG@@$1?_GUID_00000550_0000_0010_8000_00aa006d2ea4@@3U__s_GUID@@B@@@@SAABU_GUID@@XZ
_TEXT	SEGMENT
?GetIID@?$_com_ptr_t@V?$_com_IIID@U_Connection@ADOCG@@$1?_GUID_00000550_0000_0010_8000_00aa006d2ea4@@3U__s_GUID@@B@@@@SAABU_GUID@@XZ PROC ; _com_ptr_t<_com_IIID<ADOCG::_Connection,&_GUID_00000550_0000_0010_8000_00aa006d2ea4> >::GetIID, COMDAT

; 74   :     {

  00000	55		 push	 ebp
  00001	8b ec		 mov	 ebp, esp

; 75   :         return ThisIIID::GetIID();

  00003	b8 00 00 00 00	 mov	 eax, OFFSET __GUID_00000550_0000_0010_8000_00aa006d2ea4
  00008	5d		 pop	 ebp
  00009	c3		 ret	 0
?GetIID@?$_com_ptr_t@V?$_com_IIID@U_Connection@ADOCG@@$1?_GUID_00000550_0000_0010_8000_00aa006d2ea4@@3U__s_GUID@@B@@@@SAABU_GUID@@XZ ENDP ; _com_ptr_t<_com_IIID<ADOCG::_Connection,&_GUID_00000550_0000_0010_8000_00aa006d2ea4> >::GetIID
_TEXT	ENDS
; Function compile flags: /Odtp
; File c:\program files (x86)\microsoft visual studio\2017\community\vc\tools\msvc\14.16.27023\include\comip.h
;	COMDAT ?GetIID@?$_com_IIID@U_Connection@ADOCG@@$1?_GUID_00000550_0000_0010_8000_00aa006d2ea4@@3U__s_GUID@@B@@SAABU_GUID@@XZ
_TEXT	SEGMENT
?GetIID@?$_com_IIID@U_Connection@ADOCG@@$1?_GUID_00000550_0000_0010_8000_00aa006d2ea4@@3U__s_GUID@@B@@SAABU_GUID@@XZ PROC ; _com_IIID<ADOCG::_Connection,&_GUID_00000550_0000_0010_8000_00aa006d2ea4>::GetIID, COMDAT

; 55   :     {

  00000	55		 push	 ebp
  00001	8b ec		 mov	 ebp, esp

; 56   :         return *_IID;

  00003	b8 00 00 00 00	 mov	 eax, OFFSET __GUID_00000550_0000_0010_8000_00aa006d2ea4
  00008	5d		 pop	 ebp
  00009	c3		 ret	 0
?GetIID@?$_com_IIID@U_Connection@ADOCG@@$1?_GUID_00000550_0000_0010_8000_00aa006d2ea4@@3U__s_GUID@@B@@SAABU_GUID@@XZ ENDP ; _com_IIID<ADOCG::_Connection,&_GUID_00000550_0000_0010_8000_00aa006d2ea4>::GetIID
_TEXT	ENDS
; Function compile flags: /Odtp
; File c:\program files (x86)\microsoft visual studio\2017\community\vc\tools\msvc\14.16.27023\include\comip.h
;	COMDAT ?_AddRef@?$_com_ptr_t@V?$_com_IIID@U_Parameter@ADOCG@@$1?_GUID_0000050c_0000_0010_8000_00aa006d2ea4@@3U__s_GUID@@B@@@@AAEXXZ
_TEXT	SEGMENT
_this$ = -4						; size = 4
?_AddRef@?$_com_ptr_t@V?$_com_IIID@U_Parameter@ADOCG@@$1?_GUID_0000050c_0000_0010_8000_00aa006d2ea4@@3U__s_GUID@@B@@@@AAEXXZ PROC ; _com_ptr_t<_com_IIID<ADOCG::_Parameter,&_GUID_0000050c_0000_0010_8000_00aa006d2ea4> >::_AddRef, COMDAT
; _this$ = ecx

; 825  :     {

  00000	55		 push	 ebp
  00001	8b ec		 mov	 ebp, esp
  00003	51		 push	 ecx
  00004	89 4d fc	 mov	 DWORD PTR _this$[ebp], ecx

; 826  :         if (m_pInterface != NULL) {

  00007	8b 45 fc	 mov	 eax, DWORD PTR _this$[ebp]
  0000a	83 38 00	 cmp	 DWORD PTR [eax], 0
  0000d	74 12		 je	 SHORT $LN1@AddRef

; 827  :             m_pInterface->AddRef();

  0000f	8b 4d fc	 mov	 ecx, DWORD PTR _this$[ebp]
  00012	8b 11		 mov	 edx, DWORD PTR [ecx]
  00014	8b 45 fc	 mov	 eax, DWORD PTR _this$[ebp]
  00017	8b 08		 mov	 ecx, DWORD PTR [eax]
  00019	8b 12		 mov	 edx, DWORD PTR [edx]
  0001b	51		 push	 ecx
  0001c	8b 42 04	 mov	 eax, DWORD PTR [edx+4]
  0001f	ff d0		 call	 eax
$LN1@AddRef:
  00021	8b e5		 mov	 esp, ebp
  00023	5d		 pop	 ebp
  00024	c3		 ret	 0
?_AddRef@?$_com_ptr_t@V?$_com_IIID@U_Parameter@ADOCG@@$1?_GUID_0000050c_0000_0010_8000_00aa006d2ea4@@3U__s_GUID@@B@@@@AAEXXZ ENDP ; _com_ptr_t<_com_IIID<ADOCG::_Parameter,&_GUID_0000050c_0000_0010_8000_00aa006d2ea4> >::_AddRef
_TEXT	ENDS
; Function compile flags: /Odtp
; File c:\program files (x86)\microsoft visual studio\2017\community\vc\tools\msvc\14.16.27023\include\comip.h
;	COMDAT ?_Release@?$_com_ptr_t@V?$_com_IIID@U_Parameter@ADOCG@@$1?_GUID_0000050c_0000_0010_8000_00aa006d2ea4@@3U__s_GUID@@B@@@@AAEXXZ
_TEXT	SEGMENT
_this$ = -4						; size = 4
?_Release@?$_com_ptr_t@V?$_com_IIID@U_Parameter@ADOCG@@$1?_GUID_0000050c_0000_0010_8000_00aa006d2ea4@@3U__s_GUID@@B@@@@AAEXXZ PROC ; _com_ptr_t<_com_IIID<ADOCG::_Parameter,&_GUID_0000050c_0000_0010_8000_00aa006d2ea4> >::_Release, COMDAT
; _this$ = ecx

; 816  :     {

  00000	55		 push	 ebp
  00001	8b ec		 mov	 ebp, esp
  00003	51		 push	 ecx
  00004	89 4d fc	 mov	 DWORD PTR _this$[ebp], ecx

; 817  :         if (m_pInterface != NULL) {

  00007	8b 45 fc	 mov	 eax, DWORD PTR _this$[ebp]
  0000a	83 38 00	 cmp	 DWORD PTR [eax], 0
  0000d	74 12		 je	 SHORT $LN1@Release

; 818  :             m_pInterface->Release();

  0000f	8b 4d fc	 mov	 ecx, DWORD PTR _this$[ebp]
  00012	8b 11		 mov	 edx, DWORD PTR [ecx]
  00014	8b 45 fc	 mov	 eax, DWORD PTR _this$[ebp]
  00017	8b 08		 mov	 ecx, DWORD PTR [eax]
  00019	8b 12		 mov	 edx, DWORD PTR [edx]
  0001b	51		 push	 ecx
  0001c	8b 42 08	 mov	 eax, DWORD PTR [edx+8]
  0001f	ff d0		 call	 eax
$LN1@Release:
  00021	8b e5		 mov	 esp, ebp
  00023	5d		 pop	 ebp
  00024	c3		 ret	 0
?_Release@?$_com_ptr_t@V?$_com_IIID@U_Parameter@ADOCG@@$1?_GUID_0000050c_0000_0010_8000_00aa006d2ea4@@3U__s_GUID@@B@@@@AAEXXZ ENDP ; _com_ptr_t<_com_IIID<ADOCG::_Parameter,&_GUID_0000050c_0000_0010_8000_00aa006d2ea4> >::_Release
_TEXT	ENDS
; Function compile flags: /Odtp
; File c:\program files (x86)\microsoft visual studio\2017\community\vc\tools\msvc\14.16.27023\include\comip.h
;	COMDAT ??C?$_com_ptr_t@V?$_com_IIID@U_Parameter@ADOCG@@$1?_GUID_0000050c_0000_0010_8000_00aa006d2ea4@@3U__s_GUID@@B@@@@QBEPAU_Parameter@ADOCG@@XZ
_TEXT	SEGMENT
_this$ = -4						; size = 4
??C?$_com_ptr_t@V?$_com_IIID@U_Parameter@ADOCG@@$1?_GUID_0000050c_0000_0010_8000_00aa006d2ea4@@3U__s_GUID@@B@@@@QBEPAU_Parameter@ADOCG@@XZ PROC ; _com_ptr_t<_com_IIID<ADOCG::_Parameter,&_GUID_0000050c_0000_0010_8000_00aa006d2ea4> >::operator->, COMDAT
; _this$ = ecx

; 427  :     {

  00000	55		 push	 ebp
  00001	8b ec		 mov	 ebp, esp
  00003	51		 push	 ecx
  00004	89 4d fc	 mov	 DWORD PTR _this$[ebp], ecx

; 428  :         if (m_pInterface == NULL) {

  00007	8b 45 fc	 mov	 eax, DWORD PTR _this$[ebp]
  0000a	83 38 00	 cmp	 DWORD PTR [eax], 0
  0000d	75 0a		 jne	 SHORT $LN2@operator

; 429  :             _com_issue_error(E_POINTER);

  0000f	68 03 40 00 80	 push	 -2147467261		; 80004003H
  00014	e8 00 00 00 00	 call	 ?_com_issue_error@@YGXJ@Z ; _com_issue_error
$LN2@operator:
  00019	8b 4d fc	 mov	 ecx, DWORD PTR _this$[ebp]
  0001c	8b 01		 mov	 eax, DWORD PTR [ecx]
$LN3@operator:
  0001e	8b e5		 mov	 esp, ebp
  00020	5d		 pop	 ebp
  00021	c3		 ret	 0
??C?$_com_ptr_t@V?$_com_IIID@U_Parameter@ADOCG@@$1?_GUID_0000050c_0000_0010_8000_00aa006d2ea4@@3U__s_GUID@@B@@@@QBEPAU_Parameter@ADOCG@@XZ ENDP ; _com_ptr_t<_com_IIID<ADOCG::_Parameter,&_GUID_0000050c_0000_0010_8000_00aa006d2ea4> >::operator->
_TEXT	ENDS
; Function compile flags: /Odtp
; File c:\program files (x86)\microsoft visual studio\2017\community\vc\tools\msvc\14.16.27023\include\comip.h
;	COMDAT ??B?$_com_ptr_t@V?$_com_IIID@U_Parameter@ADOCG@@$1?_GUID_0000050c_0000_0010_8000_00aa006d2ea4@@3U__s_GUID@@B@@@@QBEPAU_Parameter@ADOCG@@XZ
_TEXT	SEGMENT
_this$ = -4						; size = 4
??B?$_com_ptr_t@V?$_com_IIID@U_Parameter@ADOCG@@$1?_GUID_0000050c_0000_0010_8000_00aa006d2ea4@@3U__s_GUID@@B@@@@QBEPAU_Parameter@ADOCG@@XZ PROC ; _com_ptr_t<_com_IIID<ADOCG::_Parameter,&_GUID_0000050c_0000_0010_8000_00aa006d2ea4> >::operator ADOCG::_Parameter *, COMDAT
; _this$ = ecx

; 384  :     {

  00000	55		 push	 ebp
  00001	8b ec		 mov	 ebp, esp
  00003	51		 push	 ecx
  00004	89 4d fc	 mov	 DWORD PTR _this$[ebp], ecx

; 385  :         return m_pInterface;

  00007	8b 45 fc	 mov	 eax, DWORD PTR _this$[ebp]
  0000a	8b 00		 mov	 eax, DWORD PTR [eax]
  0000c	8b e5		 mov	 esp, ebp
  0000e	5d		 pop	 ebp
  0000f	c3		 ret	 0
??B?$_com_ptr_t@V?$_com_IIID@U_Parameter@ADOCG@@$1?_GUID_0000050c_0000_0010_8000_00aa006d2ea4@@3U__s_GUID@@B@@@@QBEPAU_Parameter@ADOCG@@XZ ENDP ; _com_ptr_t<_com_IIID<ADOCG::_Parameter,&_GUID_0000050c_0000_0010_8000_00aa006d2ea4> >::operator ADOCG::_Parameter *
_TEXT	ENDS
; Function compile flags: /Odtp
; File c:\program files (x86)\microsoft visual studio\2017\community\vc\tools\msvc\14.16.27023\include\comip.h
;	COMDAT ??1?$_com_ptr_t@V?$_com_IIID@U_Parameter@ADOCG@@$1?_GUID_0000050c_0000_0010_8000_00aa006d2ea4@@3U__s_GUID@@B@@@@QAE@XZ
_TEXT	SEGMENT
_this$ = -4						; size = 4
??1?$_com_ptr_t@V?$_com_IIID@U_Parameter@ADOCG@@$1?_GUID_0000050c_0000_0010_8000_00aa006d2ea4@@3U__s_GUID@@B@@@@QAE@XZ PROC ; _com_ptr_t<_com_IIID<ADOCG::_Parameter,&_GUID_0000050c_0000_0010_8000_00aa006d2ea4> >::~_com_ptr_t<_com_IIID<ADOCG::_Parameter,&_GUID_0000050c_0000_0010_8000_00aa006d2ea4> >, COMDAT
; _this$ = ecx

; 341  :     {

  00000	55		 push	 ebp
  00001	8b ec		 mov	 ebp, esp
  00003	51		 push	 ecx
  00004	89 4d fc	 mov	 DWORD PTR _this$[ebp], ecx

; 817  :         if (m_pInterface != NULL) {

  00007	8b 45 fc	 mov	 eax, DWORD PTR _this$[ebp]
  0000a	83 38 00	 cmp	 DWORD PTR [eax], 0
  0000d	74 12		 je	 SHORT $LN1@com_ptr_t

; 818  :             m_pInterface->Release();

  0000f	8b 4d fc	 mov	 ecx, DWORD PTR _this$[ebp]
  00012	8b 11		 mov	 edx, DWORD PTR [ecx]
  00014	8b 45 fc	 mov	 eax, DWORD PTR _this$[ebp]
  00017	8b 08		 mov	 ecx, DWORD PTR [eax]
  00019	8b 12		 mov	 edx, DWORD PTR [edx]
  0001b	51		 push	 ecx
  0001c	8b 42 08	 mov	 eax, DWORD PTR [edx+8]
  0001f	ff d0		 call	 eax
$LN1@com_ptr_t:

; 342  :         _Release();

  00021	8b e5		 mov	 esp, ebp
  00023	5d		 pop	 ebp
  00024	c3		 ret	 0
??1?$_com_ptr_t@V?$_com_IIID@U_Parameter@ADOCG@@$1?_GUID_0000050c_0000_0010_8000_00aa006d2ea4@@3U__s_GUID@@B@@@@QAE@XZ ENDP ; _com_ptr_t<_com_IIID<ADOCG::_Parameter,&_GUID_0000050c_0000_0010_8000_00aa006d2ea4> >::~_com_ptr_t<_com_IIID<ADOCG::_Parameter,&_GUID_0000050c_0000_0010_8000_00aa006d2ea4> >
_TEXT	ENDS
; Function compile flags: /Odtp
; File c:\program files (x86)\microsoft visual studio\2017\community\vc\tools\msvc\14.16.27023\include\comip.h
;	COMDAT ??4?$_com_ptr_t@V?$_com_IIID@U_Parameter@ADOCG@@$1?_GUID_0000050c_0000_0010_8000_00aa006d2ea4@@3U__s_GUID@@B@@@@QAEAAV0@$$QAV0@@Z
_TEXT	SEGMENT
_pOldInterface$1 = -8					; size = 4
_this$ = -4						; size = 4
_cp$ = 8						; size = 4
??4?$_com_ptr_t@V?$_com_IIID@U_Parameter@ADOCG@@$1?_GUID_0000050c_0000_0010_8000_00aa006d2ea4@@3U__s_GUID@@B@@@@QAEAAV0@$$QAV0@@Z PROC ; _com_ptr_t<_com_IIID<ADOCG::_Parameter,&_GUID_0000050c_0000_0010_8000_00aa006d2ea4> >::operator=, COMDAT
; _this$ = ecx

; 296  :     {

  00000	55		 push	 ebp
  00001	8b ec		 mov	 ebp, esp
  00003	83 ec 08	 sub	 esp, 8
  00006	89 4d fc	 mov	 DWORD PTR _this$[ebp], ecx

; 297  :         if (m_pInterface != cp.m_pInterface) {

  00009	8b 45 fc	 mov	 eax, DWORD PTR _this$[ebp]
  0000c	8b 4d 08	 mov	 ecx, DWORD PTR _cp$[ebp]
  0000f	8b 10		 mov	 edx, DWORD PTR [eax]
  00011	3b 11		 cmp	 edx, DWORD PTR [ecx]
  00013	74 2f		 je	 SHORT $LN2@operator

; 298  :             Interface* pOldInterface = m_pInterface;

  00015	8b 45 fc	 mov	 eax, DWORD PTR _this$[ebp]
  00018	8b 08		 mov	 ecx, DWORD PTR [eax]
  0001a	89 4d f8	 mov	 DWORD PTR _pOldInterface$1[ebp], ecx
  0001d	8b 55 fc	 mov	 edx, DWORD PTR _this$[ebp]
  00020	8b 45 08	 mov	 eax, DWORD PTR _cp$[ebp]
  00023	8b 08		 mov	 ecx, DWORD PTR [eax]
  00025	89 0a		 mov	 DWORD PTR [edx], ecx
  00027	8b 55 08	 mov	 edx, DWORD PTR _cp$[ebp]
  0002a	c7 02 00 00 00
	00		 mov	 DWORD PTR [edx], 0
  00030	83 7d f8 00	 cmp	 DWORD PTR _pOldInterface$1[ebp], 0
  00034	74 0e		 je	 SHORT $LN2@operator

; 299  : 
; 300  :             m_pInterface = cp.m_pInterface;
; 301  :             cp.m_pInterface = nullptr;
; 302  : 
; 303  :             if (pOldInterface != nullptr) {
; 304  :                 pOldInterface->Release();

  00036	8b 45 f8	 mov	 eax, DWORD PTR _pOldInterface$1[ebp]
  00039	8b 08		 mov	 ecx, DWORD PTR [eax]
  0003b	8b 55 f8	 mov	 edx, DWORD PTR _pOldInterface$1[ebp]
  0003e	52		 push	 edx
  0003f	8b 41 08	 mov	 eax, DWORD PTR [ecx+8]
  00042	ff d0		 call	 eax
$LN2@operator:
  00044	8b 45 fc	 mov	 eax, DWORD PTR _this$[ebp]
  00047	8b e5		 mov	 esp, ebp
  00049	5d		 pop	 ebp
  0004a	c2 04 00	 ret	 4
??4?$_com_ptr_t@V?$_com_IIID@U_Parameter@ADOCG@@$1?_GUID_0000050c_0000_0010_8000_00aa006d2ea4@@3U__s_GUID@@B@@@@QAEAAV0@$$QAV0@@Z ENDP ; _com_ptr_t<_com_IIID<ADOCG::_Parameter,&_GUID_0000050c_0000_0010_8000_00aa006d2ea4> >::operator=
_TEXT	ENDS
; Function compile flags: /Odtp
; File c:\program files (x86)\microsoft visual studio\2017\community\vc\tools\msvc\14.16.27023\include\comip.h
;	COMDAT ??0?$_com_ptr_t@V?$_com_IIID@U_Parameter@ADOCG@@$1?_GUID_0000050c_0000_0010_8000_00aa006d2ea4@@3U__s_GUID@@B@@@@QAE@PAU_Parameter@ADOCG@@_N@Z
_TEXT	SEGMENT
_this$ = -4						; size = 4
_pInterface$ = 8					; size = 4
_fAddRef$ = 12						; size = 1
??0?$_com_ptr_t@V?$_com_IIID@U_Parameter@ADOCG@@$1?_GUID_0000050c_0000_0010_8000_00aa006d2ea4@@3U__s_GUID@@B@@@@QAE@PAU_Parameter@ADOCG@@_N@Z PROC ; _com_ptr_t<_com_IIID<ADOCG::_Parameter,&_GUID_0000050c_0000_0010_8000_00aa006d2ea4> >::_com_ptr_t<_com_IIID<ADOCG::_Parameter,&_GUID_0000050c_0000_0010_8000_00aa006d2ea4> >, COMDAT
; _this$ = ecx

; 185  :     {

  00000	55		 push	 ebp
  00001	8b ec		 mov	 ebp, esp
  00003	51		 push	 ecx
  00004	89 4d fc	 mov	 DWORD PTR _this$[ebp], ecx

; 184  :         : m_pInterface(pInterface)

  00007	8b 45 fc	 mov	 eax, DWORD PTR _this$[ebp]
  0000a	8b 4d 08	 mov	 ecx, DWORD PTR _pInterface$[ebp]
  0000d	89 08		 mov	 DWORD PTR [eax], ecx

; 186  :         if (fAddRef) {

  0000f	0f b6 55 0c	 movzx	 edx, BYTE PTR _fAddRef$[ebp]
  00013	85 d2		 test	 edx, edx
  00015	74 1a		 je	 SHORT $LN1@com_ptr_t

; 826  :         if (m_pInterface != NULL) {

  00017	8b 45 fc	 mov	 eax, DWORD PTR _this$[ebp]
  0001a	83 38 00	 cmp	 DWORD PTR [eax], 0
  0001d	74 12		 je	 SHORT $LN1@com_ptr_t

; 827  :             m_pInterface->AddRef();

  0001f	8b 4d fc	 mov	 ecx, DWORD PTR _this$[ebp]
  00022	8b 11		 mov	 edx, DWORD PTR [ecx]
  00024	8b 45 fc	 mov	 eax, DWORD PTR _this$[ebp]
  00027	8b 08		 mov	 ecx, DWORD PTR [eax]
  00029	8b 12		 mov	 edx, DWORD PTR [edx]
  0002b	51		 push	 ecx
  0002c	8b 42 04	 mov	 eax, DWORD PTR [edx+4]
  0002f	ff d0		 call	 eax
$LN1@com_ptr_t:

; 187  :             _AddRef();

  00031	8b 45 fc	 mov	 eax, DWORD PTR _this$[ebp]
  00034	8b e5		 mov	 esp, ebp
  00036	5d		 pop	 ebp
  00037	c2 08 00	 ret	 8
??0?$_com_ptr_t@V?$_com_IIID@U_Parameter@ADOCG@@$1?_GUID_0000050c_0000_0010_8000_00aa006d2ea4@@3U__s_GUID@@B@@@@QAE@PAU_Parameter@ADOCG@@_N@Z ENDP ; _com_ptr_t<_com_IIID<ADOCG::_Parameter,&_GUID_0000050c_0000_0010_8000_00aa006d2ea4> >::_com_ptr_t<_com_IIID<ADOCG::_Parameter,&_GUID_0000050c_0000_0010_8000_00aa006d2ea4> >
_TEXT	ENDS
; Function compile flags: /Odtp
; File c:\program files (x86)\microsoft visual studio\2017\community\vc\tools\msvc\14.16.27023\include\comip.h
;	COMDAT ??0?$_com_ptr_t@V?$_com_IIID@U_Parameter@ADOCG@@$1?_GUID_0000050c_0000_0010_8000_00aa006d2ea4@@3U__s_GUID@@B@@@@QAE@XZ
_TEXT	SEGMENT
_this$ = -4						; size = 4
??0?$_com_ptr_t@V?$_com_IIID@U_Parameter@ADOCG@@$1?_GUID_0000050c_0000_0010_8000_00aa006d2ea4@@3U__s_GUID@@B@@@@QAE@XZ PROC ; _com_ptr_t<_com_IIID<ADOCG::_Parameter,&_GUID_0000050c_0000_0010_8000_00aa006d2ea4> >::_com_ptr_t<_com_IIID<ADOCG::_Parameter,&_GUID_0000050c_0000_0010_8000_00aa006d2ea4> >, COMDAT
; _this$ = ecx

; 135  :     {

  00000	55		 push	 ebp
  00001	8b ec		 mov	 ebp, esp
  00003	51		 push	 ecx
  00004	89 4d fc	 mov	 DWORD PTR _this$[ebp], ecx

; 134  :         : m_pInterface(NULL)

  00007	8b 45 fc	 mov	 eax, DWORD PTR _this$[ebp]
  0000a	c7 00 00 00 00
	00		 mov	 DWORD PTR [eax], 0

; 136  :     }

  00010	8b 45 fc	 mov	 eax, DWORD PTR _this$[ebp]
  00013	8b e5		 mov	 esp, ebp
  00015	5d		 pop	 ebp
  00016	c3		 ret	 0
??0?$_com_ptr_t@V?$_com_IIID@U_Parameter@ADOCG@@$1?_GUID_0000050c_0000_0010_8000_00aa006d2ea4@@3U__s_GUID@@B@@@@QAE@XZ ENDP ; _com_ptr_t<_com_IIID<ADOCG::_Parameter,&_GUID_0000050c_0000_0010_8000_00aa006d2ea4> >::_com_ptr_t<_com_IIID<ADOCG::_Parameter,&_GUID_0000050c_0000_0010_8000_00aa006d2ea4> >
_TEXT	ENDS
; Function compile flags: /Odtp
; File c:\program files (x86)\microsoft visual studio\2017\community\vc\tools\msvc\14.16.27023\include\comip.h
;	COMDAT ?_AddRef@?$_com_ptr_t@V?$_com_IIID@UField@ADOCG@@$1?_GUID_00000569_0000_0010_8000_00aa006d2ea4@@3U__s_GUID@@B@@@@AAEXXZ
_TEXT	SEGMENT
_this$ = -4						; size = 4
?_AddRef@?$_com_ptr_t@V?$_com_IIID@UField@ADOCG@@$1?_GUID_00000569_0000_0010_8000_00aa006d2ea4@@3U__s_GUID@@B@@@@AAEXXZ PROC ; _com_ptr_t<_com_IIID<ADOCG::Field,&_GUID_00000569_0000_0010_8000_00aa006d2ea4> >::_AddRef, COMDAT
; _this$ = ecx

; 825  :     {

  00000	55		 push	 ebp
  00001	8b ec		 mov	 ebp, esp
  00003	51		 push	 ecx
  00004	89 4d fc	 mov	 DWORD PTR _this$[ebp], ecx

; 826  :         if (m_pInterface != NULL) {

  00007	8b 45 fc	 mov	 eax, DWORD PTR _this$[ebp]
  0000a	83 38 00	 cmp	 DWORD PTR [eax], 0
  0000d	74 12		 je	 SHORT $LN1@AddRef

; 827  :             m_pInterface->AddRef();

  0000f	8b 4d fc	 mov	 ecx, DWORD PTR _this$[ebp]
  00012	8b 11		 mov	 edx, DWORD PTR [ecx]
  00014	8b 45 fc	 mov	 eax, DWORD PTR _this$[ebp]
  00017	8b 08		 mov	 ecx, DWORD PTR [eax]
  00019	8b 12		 mov	 edx, DWORD PTR [edx]
  0001b	51		 push	 ecx
  0001c	8b 42 04	 mov	 eax, DWORD PTR [edx+4]
  0001f	ff d0		 call	 eax
$LN1@AddRef:
  00021	8b e5		 mov	 esp, ebp
  00023	5d		 pop	 ebp
  00024	c3		 ret	 0
?_AddRef@?$_com_ptr_t@V?$_com_IIID@UField@ADOCG@@$1?_GUID_00000569_0000_0010_8000_00aa006d2ea4@@3U__s_GUID@@B@@@@AAEXXZ ENDP ; _com_ptr_t<_com_IIID<ADOCG::Field,&_GUID_00000569_0000_0010_8000_00aa006d2ea4> >::_AddRef
_TEXT	ENDS
; Function compile flags: /Odtp
; File c:\program files (x86)\microsoft visual studio\2017\community\vc\tools\msvc\14.16.27023\include\comip.h
;	COMDAT ?_Release@?$_com_ptr_t@V?$_com_IIID@UField@ADOCG@@$1?_GUID_00000569_0000_0010_8000_00aa006d2ea4@@3U__s_GUID@@B@@@@AAEXXZ
_TEXT	SEGMENT
_this$ = -4						; size = 4
?_Release@?$_com_ptr_t@V?$_com_IIID@UField@ADOCG@@$1?_GUID_00000569_0000_0010_8000_00aa006d2ea4@@3U__s_GUID@@B@@@@AAEXXZ PROC ; _com_ptr_t<_com_IIID<ADOCG::Field,&_GUID_00000569_0000_0010_8000_00aa006d2ea4> >::_Release, COMDAT
; _this$ = ecx

; 816  :     {

  00000	55		 push	 ebp
  00001	8b ec		 mov	 ebp, esp
  00003	51		 push	 ecx
  00004	89 4d fc	 mov	 DWORD PTR _this$[ebp], ecx

; 817  :         if (m_pInterface != NULL) {

  00007	8b 45 fc	 mov	 eax, DWORD PTR _this$[ebp]
  0000a	83 38 00	 cmp	 DWORD PTR [eax], 0
  0000d	74 12		 je	 SHORT $LN1@Release

; 818  :             m_pInterface->Release();

  0000f	8b 4d fc	 mov	 ecx, DWORD PTR _this$[ebp]
  00012	8b 11		 mov	 edx, DWORD PTR [ecx]
  00014	8b 45 fc	 mov	 eax, DWORD PTR _this$[ebp]
  00017	8b 08		 mov	 ecx, DWORD PTR [eax]
  00019	8b 12		 mov	 edx, DWORD PTR [edx]
  0001b	51		 push	 ecx
  0001c	8b 42 08	 mov	 eax, DWORD PTR [edx+8]
  0001f	ff d0		 call	 eax
$LN1@Release:
  00021	8b e5		 mov	 esp, ebp
  00023	5d		 pop	 ebp
  00024	c3		 ret	 0
?_Release@?$_com_ptr_t@V?$_com_IIID@UField@ADOCG@@$1?_GUID_00000569_0000_0010_8000_00aa006d2ea4@@3U__s_GUID@@B@@@@AAEXXZ ENDP ; _com_ptr_t<_com_IIID<ADOCG::Field,&_GUID_00000569_0000_0010_8000_00aa006d2ea4> >::_Release
_TEXT	ENDS
; Function compile flags: /Odtp
; File c:\program files (x86)\microsoft visual studio\2017\community\vc\tools\msvc\14.16.27023\include\comip.h
;	COMDAT ??C?$_com_ptr_t@V?$_com_IIID@UField@ADOCG@@$1?_GUID_00000569_0000_0010_8000_00aa006d2ea4@@3U__s_GUID@@B@@@@QBEPAUField@ADOCG@@XZ
_TEXT	SEGMENT
_this$ = -4						; size = 4
??C?$_com_ptr_t@V?$_com_IIID@UField@ADOCG@@$1?_GUID_00000569_0000_0010_8000_00aa006d2ea4@@3U__s_GUID@@B@@@@QBEPAUField@ADOCG@@XZ PROC ; _com_ptr_t<_com_IIID<ADOCG::Field,&_GUID_00000569_0000_0010_8000_00aa006d2ea4> >::operator->, COMDAT
; _this$ = ecx

; 427  :     {

  00000	55		 push	 ebp
  00001	8b ec		 mov	 ebp, esp
  00003	51		 push	 ecx
  00004	89 4d fc	 mov	 DWORD PTR _this$[ebp], ecx

; 428  :         if (m_pInterface == NULL) {

  00007	8b 45 fc	 mov	 eax, DWORD PTR _this$[ebp]
  0000a	83 38 00	 cmp	 DWORD PTR [eax], 0
  0000d	75 0a		 jne	 SHORT $LN2@operator

; 429  :             _com_issue_error(E_POINTER);

  0000f	68 03 40 00 80	 push	 -2147467261		; 80004003H
  00014	e8 00 00 00 00	 call	 ?_com_issue_error@@YGXJ@Z ; _com_issue_error
$LN2@operator:
  00019	8b 4d fc	 mov	 ecx, DWORD PTR _this$[ebp]
  0001c	8b 01		 mov	 eax, DWORD PTR [ecx]
$LN3@operator:
  0001e	8b e5		 mov	 esp, ebp
  00020	5d		 pop	 ebp
  00021	c3		 ret	 0
??C?$_com_ptr_t@V?$_com_IIID@UField@ADOCG@@$1?_GUID_00000569_0000_0010_8000_00aa006d2ea4@@3U__s_GUID@@B@@@@QBEPAUField@ADOCG@@XZ ENDP ; _com_ptr_t<_com_IIID<ADOCG::Field,&_GUID_00000569_0000_0010_8000_00aa006d2ea4> >::operator->
_TEXT	ENDS
; Function compile flags: /Odtp
; File c:\program files (x86)\microsoft visual studio\2017\community\vc\tools\msvc\14.16.27023\include\comip.h
;	COMDAT ??1?$_com_ptr_t@V?$_com_IIID@UField@ADOCG@@$1?_GUID_00000569_0000_0010_8000_00aa006d2ea4@@3U__s_GUID@@B@@@@QAE@XZ
_TEXT	SEGMENT
_this$ = -4						; size = 4
??1?$_com_ptr_t@V?$_com_IIID@UField@ADOCG@@$1?_GUID_00000569_0000_0010_8000_00aa006d2ea4@@3U__s_GUID@@B@@@@QAE@XZ PROC ; _com_ptr_t<_com_IIID<ADOCG::Field,&_GUID_00000569_0000_0010_8000_00aa006d2ea4> >::~_com_ptr_t<_com_IIID<ADOCG::Field,&_GUID_00000569_0000_0010_8000_00aa006d2ea4> >, COMDAT
; _this$ = ecx

; 341  :     {

  00000	55		 push	 ebp
  00001	8b ec		 mov	 ebp, esp
  00003	51		 push	 ecx
  00004	89 4d fc	 mov	 DWORD PTR _this$[ebp], ecx

; 817  :         if (m_pInterface != NULL) {

  00007	8b 45 fc	 mov	 eax, DWORD PTR _this$[ebp]
  0000a	83 38 00	 cmp	 DWORD PTR [eax], 0
  0000d	74 12		 je	 SHORT $LN1@com_ptr_t

; 818  :             m_pInterface->Release();

  0000f	8b 4d fc	 mov	 ecx, DWORD PTR _this$[ebp]
  00012	8b 11		 mov	 edx, DWORD PTR [ecx]
  00014	8b 45 fc	 mov	 eax, DWORD PTR _this$[ebp]
  00017	8b 08		 mov	 ecx, DWORD PTR [eax]
  00019	8b 12		 mov	 edx, DWORD PTR [edx]
  0001b	51		 push	 ecx
  0001c	8b 42 08	 mov	 eax, DWORD PTR [edx+8]
  0001f	ff d0		 call	 eax
$LN1@com_ptr_t:

; 342  :         _Release();

  00021	8b e5		 mov	 esp, ebp
  00023	5d		 pop	 ebp
  00024	c3		 ret	 0
??1?$_com_ptr_t@V?$_com_IIID@UField@ADOCG@@$1?_GUID_00000569_0000_0010_8000_00aa006d2ea4@@3U__s_GUID@@B@@@@QAE@XZ ENDP ; _com_ptr_t<_com_IIID<ADOCG::Field,&_GUID_00000569_0000_0010_8000_00aa006d2ea4> >::~_com_ptr_t<_com_IIID<ADOCG::Field,&_GUID_00000569_0000_0010_8000_00aa006d2ea4> >
_TEXT	ENDS
; Function compile flags: /Odtp
; File c:\program files (x86)\microsoft visual studio\2017\community\vc\tools\msvc\14.16.27023\include\comip.h
;	COMDAT ??0?$_com_ptr_t@V?$_com_IIID@UField@ADOCG@@$1?_GUID_00000569_0000_0010_8000_00aa006d2ea4@@3U__s_GUID@@B@@@@QAE@PAUField@ADOCG@@_N@Z
_TEXT	SEGMENT
_this$ = -4						; size = 4
_pInterface$ = 8					; size = 4
_fAddRef$ = 12						; size = 1
??0?$_com_ptr_t@V?$_com_IIID@UField@ADOCG@@$1?_GUID_00000569_0000_0010_8000_00aa006d2ea4@@3U__s_GUID@@B@@@@QAE@PAUField@ADOCG@@_N@Z PROC ; _com_ptr_t<_com_IIID<ADOCG::Field,&_GUID_00000569_0000_0010_8000_00aa006d2ea4> >::_com_ptr_t<_com_IIID<ADOCG::Field,&_GUID_00000569_0000_0010_8000_00aa006d2ea4> >, COMDAT
; _this$ = ecx

; 185  :     {

  00000	55		 push	 ebp
  00001	8b ec		 mov	 ebp, esp
  00003	51		 push	 ecx
  00004	89 4d fc	 mov	 DWORD PTR _this$[ebp], ecx

; 184  :         : m_pInterface(pInterface)

  00007	8b 45 fc	 mov	 eax, DWORD PTR _this$[ebp]
  0000a	8b 4d 08	 mov	 ecx, DWORD PTR _pInterface$[ebp]
  0000d	89 08		 mov	 DWORD PTR [eax], ecx

; 186  :         if (fAddRef) {

  0000f	0f b6 55 0c	 movzx	 edx, BYTE PTR _fAddRef$[ebp]
  00013	85 d2		 test	 edx, edx
  00015	74 1a		 je	 SHORT $LN1@com_ptr_t

; 826  :         if (m_pInterface != NULL) {

  00017	8b 45 fc	 mov	 eax, DWORD PTR _this$[ebp]
  0001a	83 38 00	 cmp	 DWORD PTR [eax], 0
  0001d	74 12		 je	 SHORT $LN1@com_ptr_t

; 827  :             m_pInterface->AddRef();

  0001f	8b 4d fc	 mov	 ecx, DWORD PTR _this$[ebp]
  00022	8b 11		 mov	 edx, DWORD PTR [ecx]
  00024	8b 45 fc	 mov	 eax, DWORD PTR _this$[ebp]
  00027	8b 08		 mov	 ecx, DWORD PTR [eax]
  00029	8b 12		 mov	 edx, DWORD PTR [edx]
  0002b	51		 push	 ecx
  0002c	8b 42 04	 mov	 eax, DWORD PTR [edx+4]
  0002f	ff d0		 call	 eax
$LN1@com_ptr_t:

; 187  :             _AddRef();

  00031	8b 45 fc	 mov	 eax, DWORD PTR _this$[ebp]
  00034	8b e5		 mov	 esp, ebp
  00036	5d		 pop	 ebp
  00037	c2 08 00	 ret	 8
??0?$_com_ptr_t@V?$_com_IIID@UField@ADOCG@@$1?_GUID_00000569_0000_0010_8000_00aa006d2ea4@@3U__s_GUID@@B@@@@QAE@PAUField@ADOCG@@_N@Z ENDP ; _com_ptr_t<_com_IIID<ADOCG::Field,&_GUID_00000569_0000_0010_8000_00aa006d2ea4> >::_com_ptr_t<_com_IIID<ADOCG::Field,&_GUID_00000569_0000_0010_8000_00aa006d2ea4> >
_TEXT	ENDS
; Function compile flags: /Odtp
; File c:\program files (x86)\microsoft visual studio\2017\community\vc\tools\msvc\14.16.27023\include\comip.h
;	COMDAT ?_AddRef@?$_com_ptr_t@V?$_com_IIID@UError@ADOCG@@$1?_GUID_00000500_0000_0010_8000_00aa006d2ea4@@3U__s_GUID@@B@@@@AAEXXZ
_TEXT	SEGMENT
_this$ = -4						; size = 4
?_AddRef@?$_com_ptr_t@V?$_com_IIID@UError@ADOCG@@$1?_GUID_00000500_0000_0010_8000_00aa006d2ea4@@3U__s_GUID@@B@@@@AAEXXZ PROC ; _com_ptr_t<_com_IIID<ADOCG::Error,&_GUID_00000500_0000_0010_8000_00aa006d2ea4> >::_AddRef, COMDAT
; _this$ = ecx

; 825  :     {

  00000	55		 push	 ebp
  00001	8b ec		 mov	 ebp, esp
  00003	51		 push	 ecx
  00004	89 4d fc	 mov	 DWORD PTR _this$[ebp], ecx

; 826  :         if (m_pInterface != NULL) {

  00007	8b 45 fc	 mov	 eax, DWORD PTR _this$[ebp]
  0000a	83 38 00	 cmp	 DWORD PTR [eax], 0
  0000d	74 12		 je	 SHORT $LN1@AddRef

; 827  :             m_pInterface->AddRef();

  0000f	8b 4d fc	 mov	 ecx, DWORD PTR _this$[ebp]
  00012	8b 11		 mov	 edx, DWORD PTR [ecx]
  00014	8b 45 fc	 mov	 eax, DWORD PTR _this$[ebp]
  00017	8b 08		 mov	 ecx, DWORD PTR [eax]
  00019	8b 12		 mov	 edx, DWORD PTR [edx]
  0001b	51		 push	 ecx
  0001c	8b 42 04	 mov	 eax, DWORD PTR [edx+4]
  0001f	ff d0		 call	 eax
$LN1@AddRef:
  00021	8b e5		 mov	 esp, ebp
  00023	5d		 pop	 ebp
  00024	c3		 ret	 0
?_AddRef@?$_com_ptr_t@V?$_com_IIID@UError@ADOCG@@$1?_GUID_00000500_0000_0010_8000_00aa006d2ea4@@3U__s_GUID@@B@@@@AAEXXZ ENDP ; _com_ptr_t<_com_IIID<ADOCG::Error,&_GUID_00000500_0000_0010_8000_00aa006d2ea4> >::_AddRef
_TEXT	ENDS
; Function compile flags: /Odtp
; File c:\program files (x86)\microsoft visual studio\2017\community\vc\tools\msvc\14.16.27023\include\comip.h
;	COMDAT ?_Release@?$_com_ptr_t@V?$_com_IIID@UError@ADOCG@@$1?_GUID_00000500_0000_0010_8000_00aa006d2ea4@@3U__s_GUID@@B@@@@AAEXXZ
_TEXT	SEGMENT
_this$ = -4						; size = 4
?_Release@?$_com_ptr_t@V?$_com_IIID@UError@ADOCG@@$1?_GUID_00000500_0000_0010_8000_00aa006d2ea4@@3U__s_GUID@@B@@@@AAEXXZ PROC ; _com_ptr_t<_com_IIID<ADOCG::Error,&_GUID_00000500_0000_0010_8000_00aa006d2ea4> >::_Release, COMDAT
; _this$ = ecx

; 816  :     {

  00000	55		 push	 ebp
  00001	8b ec		 mov	 ebp, esp
  00003	51		 push	 ecx
  00004	89 4d fc	 mov	 DWORD PTR _this$[ebp], ecx

; 817  :         if (m_pInterface != NULL) {

  00007	8b 45 fc	 mov	 eax, DWORD PTR _this$[ebp]
  0000a	83 38 00	 cmp	 DWORD PTR [eax], 0
  0000d	74 12		 je	 SHORT $LN1@Release

; 818  :             m_pInterface->Release();

  0000f	8b 4d fc	 mov	 ecx, DWORD PTR _this$[ebp]
  00012	8b 11		 mov	 edx, DWORD PTR [ecx]
  00014	8b 45 fc	 mov	 eax, DWORD PTR _this$[ebp]
  00017	8b 08		 mov	 ecx, DWORD PTR [eax]
  00019	8b 12		 mov	 edx, DWORD PTR [edx]
  0001b	51		 push	 ecx
  0001c	8b 42 08	 mov	 eax, DWORD PTR [edx+8]
  0001f	ff d0		 call	 eax
$LN1@Release:
  00021	8b e5		 mov	 esp, ebp
  00023	5d		 pop	 ebp
  00024	c3		 ret	 0
?_Release@?$_com_ptr_t@V?$_com_IIID@UError@ADOCG@@$1?_GUID_00000500_0000_0010_8000_00aa006d2ea4@@3U__s_GUID@@B@@@@AAEXXZ ENDP ; _com_ptr_t<_com_IIID<ADOCG::Error,&_GUID_00000500_0000_0010_8000_00aa006d2ea4> >::_Release
_TEXT	ENDS
; Function compile flags: /Odtp
; File c:\program files (x86)\microsoft visual studio\2017\community\vc\tools\msvc\14.16.27023\include\comip.h
;	COMDAT ??C?$_com_ptr_t@V?$_com_IIID@UError@ADOCG@@$1?_GUID_00000500_0000_0010_8000_00aa006d2ea4@@3U__s_GUID@@B@@@@QBEPAUError@ADOCG@@XZ
_TEXT	SEGMENT
_this$ = -4						; size = 4
??C?$_com_ptr_t@V?$_com_IIID@UError@ADOCG@@$1?_GUID_00000500_0000_0010_8000_00aa006d2ea4@@3U__s_GUID@@B@@@@QBEPAUError@ADOCG@@XZ PROC ; _com_ptr_t<_com_IIID<ADOCG::Error,&_GUID_00000500_0000_0010_8000_00aa006d2ea4> >::operator->, COMDAT
; _this$ = ecx

; 427  :     {

  00000	55		 push	 ebp
  00001	8b ec		 mov	 ebp, esp
  00003	51		 push	 ecx
  00004	89 4d fc	 mov	 DWORD PTR _this$[ebp], ecx

; 428  :         if (m_pInterface == NULL) {

  00007	8b 45 fc	 mov	 eax, DWORD PTR _this$[ebp]
  0000a	83 38 00	 cmp	 DWORD PTR [eax], 0
  0000d	75 0a		 jne	 SHORT $LN2@operator

; 429  :             _com_issue_error(E_POINTER);

  0000f	68 03 40 00 80	 push	 -2147467261		; 80004003H
  00014	e8 00 00 00 00	 call	 ?_com_issue_error@@YGXJ@Z ; _com_issue_error
$LN2@operator:
  00019	8b 4d fc	 mov	 ecx, DWORD PTR _this$[ebp]
  0001c	8b 01		 mov	 eax, DWORD PTR [ecx]
$LN3@operator:
  0001e	8b e5		 mov	 esp, ebp
  00020	5d		 pop	 ebp
  00021	c3		 ret	 0
??C?$_com_ptr_t@V?$_com_IIID@UError@ADOCG@@$1?_GUID_00000500_0000_0010_8000_00aa006d2ea4@@3U__s_GUID@@B@@@@QBEPAUError@ADOCG@@XZ ENDP ; _com_ptr_t<_com_IIID<ADOCG::Error,&_GUID_00000500_0000_0010_8000_00aa006d2ea4> >::operator->
_TEXT	ENDS
; Function compile flags: /Odtp
; File c:\program files (x86)\microsoft visual studio\2017\community\vc\tools\msvc\14.16.27023\include\comip.h
;	COMDAT ??1?$_com_ptr_t@V?$_com_IIID@UError@ADOCG@@$1?_GUID_00000500_0000_0010_8000_00aa006d2ea4@@3U__s_GUID@@B@@@@QAE@XZ
_TEXT	SEGMENT
_this$ = -4						; size = 4
??1?$_com_ptr_t@V?$_com_IIID@UError@ADOCG@@$1?_GUID_00000500_0000_0010_8000_00aa006d2ea4@@3U__s_GUID@@B@@@@QAE@XZ PROC ; _com_ptr_t<_com_IIID<ADOCG::Error,&_GUID_00000500_0000_0010_8000_00aa006d2ea4> >::~_com_ptr_t<_com_IIID<ADOCG::Error,&_GUID_00000500_0000_0010_8000_00aa006d2ea4> >, COMDAT
; _this$ = ecx

; 341  :     {

  00000	55		 push	 ebp
  00001	8b ec		 mov	 ebp, esp
  00003	51		 push	 ecx
  00004	89 4d fc	 mov	 DWORD PTR _this$[ebp], ecx

; 817  :         if (m_pInterface != NULL) {

  00007	8b 45 fc	 mov	 eax, DWORD PTR _this$[ebp]
  0000a	83 38 00	 cmp	 DWORD PTR [eax], 0
  0000d	74 12		 je	 SHORT $LN1@com_ptr_t

; 818  :             m_pInterface->Release();

  0000f	8b 4d fc	 mov	 ecx, DWORD PTR _this$[ebp]
  00012	8b 11		 mov	 edx, DWORD PTR [ecx]
  00014	8b 45 fc	 mov	 eax, DWORD PTR _this$[ebp]
  00017	8b 08		 mov	 ecx, DWORD PTR [eax]
  00019	8b 12		 mov	 edx, DWORD PTR [edx]
  0001b	51		 push	 ecx
  0001c	8b 42 08	 mov	 eax, DWORD PTR [edx+8]
  0001f	ff d0		 call	 eax
$LN1@com_ptr_t:

; 342  :         _Release();

  00021	8b e5		 mov	 esp, ebp
  00023	5d		 pop	 ebp
  00024	c3		 ret	 0
??1?$_com_ptr_t@V?$_com_IIID@UError@ADOCG@@$1?_GUID_00000500_0000_0010_8000_00aa006d2ea4@@3U__s_GUID@@B@@@@QAE@XZ ENDP ; _com_ptr_t<_com_IIID<ADOCG::Error,&_GUID_00000500_0000_0010_8000_00aa006d2ea4> >::~_com_ptr_t<_com_IIID<ADOCG::Error,&_GUID_00000500_0000_0010_8000_00aa006d2ea4> >
_TEXT	ENDS
; Function compile flags: /Odtp
; File c:\program files (x86)\microsoft visual studio\2017\community\vc\tools\msvc\14.16.27023\include\comip.h
;	COMDAT ??0?$_com_ptr_t@V?$_com_IIID@UError@ADOCG@@$1?_GUID_00000500_0000_0010_8000_00aa006d2ea4@@3U__s_GUID@@B@@@@QAE@PAUError@ADOCG@@_N@Z
_TEXT	SEGMENT
_this$ = -4						; size = 4
_pInterface$ = 8					; size = 4
_fAddRef$ = 12						; size = 1
??0?$_com_ptr_t@V?$_com_IIID@UError@ADOCG@@$1?_GUID_00000500_0000_0010_8000_00aa006d2ea4@@3U__s_GUID@@B@@@@QAE@PAUError@ADOCG@@_N@Z PROC ; _com_ptr_t<_com_IIID<ADOCG::Error,&_GUID_00000500_0000_0010_8000_00aa006d2ea4> >::_com_ptr_t<_com_IIID<ADOCG::Error,&_GUID_00000500_0000_0010_8000_00aa006d2ea4> >, COMDAT
; _this$ = ecx

; 185  :     {

  00000	55		 push	 ebp
  00001	8b ec		 mov	 ebp, esp
  00003	51		 push	 ecx
  00004	89 4d fc	 mov	 DWORD PTR _this$[ebp], ecx

; 184  :         : m_pInterface(pInterface)

  00007	8b 45 fc	 mov	 eax, DWORD PTR _this$[ebp]
  0000a	8b 4d 08	 mov	 ecx, DWORD PTR _pInterface$[ebp]
  0000d	89 08		 mov	 DWORD PTR [eax], ecx

; 186  :         if (fAddRef) {

  0000f	0f b6 55 0c	 movzx	 edx, BYTE PTR _fAddRef$[ebp]
  00013	85 d2		 test	 edx, edx
  00015	74 1a		 je	 SHORT $LN1@com_ptr_t

; 826  :         if (m_pInterface != NULL) {

  00017	8b 45 fc	 mov	 eax, DWORD PTR _this$[ebp]
  0001a	83 38 00	 cmp	 DWORD PTR [eax], 0
  0001d	74 12		 je	 SHORT $LN1@com_ptr_t

; 827  :             m_pInterface->AddRef();

  0001f	8b 4d fc	 mov	 ecx, DWORD PTR _this$[ebp]
  00022	8b 11		 mov	 edx, DWORD PTR [ecx]
  00024	8b 45 fc	 mov	 eax, DWORD PTR _this$[ebp]
  00027	8b 08		 mov	 ecx, DWORD PTR [eax]
  00029	8b 12		 mov	 edx, DWORD PTR [edx]
  0002b	51		 push	 ecx
  0002c	8b 42 04	 mov	 eax, DWORD PTR [edx+4]
  0002f	ff d0		 call	 eax
$LN1@com_ptr_t:

; 187  :             _AddRef();

  00031	8b 45 fc	 mov	 eax, DWORD PTR _this$[ebp]
  00034	8b e5		 mov	 esp, ebp
  00036	5d		 pop	 ebp
  00037	c2 08 00	 ret	 8
??0?$_com_ptr_t@V?$_com_IIID@UError@ADOCG@@$1?_GUID_00000500_0000_0010_8000_00aa006d2ea4@@3U__s_GUID@@B@@@@QAE@PAUError@ADOCG@@_N@Z ENDP ; _com_ptr_t<_com_IIID<ADOCG::Error,&_GUID_00000500_0000_0010_8000_00aa006d2ea4> >::_com_ptr_t<_com_IIID<ADOCG::Error,&_GUID_00000500_0000_0010_8000_00aa006d2ea4> >
_TEXT	ENDS
; Function compile flags: /Odtp
; File c:\program files (x86)\microsoft visual studio\2017\community\vc\tools\msvc\14.16.27023\include\comip.h
;	COMDAT ??0?$_com_ptr_t@V?$_com_IIID@UError@ADOCG@@$1?_GUID_00000500_0000_0010_8000_00aa006d2ea4@@3U__s_GUID@@B@@@@QAE@H@Z
_TEXT	SEGMENT
_this$ = -4						; size = 4
_null$ = 8						; size = 4
??0?$_com_ptr_t@V?$_com_IIID@UError@ADOCG@@$1?_GUID_00000500_0000_0010_8000_00aa006d2ea4@@3U__s_GUID@@B@@@@QAE@H@Z PROC ; _com_ptr_t<_com_IIID<ADOCG::Error,&_GUID_00000500_0000_0010_8000_00aa006d2ea4> >::_com_ptr_t<_com_IIID<ADOCG::Error,&_GUID_00000500_0000_0010_8000_00aa006d2ea4> >, COMDAT
; _this$ = ecx

; 143  :     {

  00000	55		 push	 ebp
  00001	8b ec		 mov	 ebp, esp
  00003	51		 push	 ecx
  00004	89 4d fc	 mov	 DWORD PTR _this$[ebp], ecx

; 142  :         : m_pInterface(NULL)

  00007	8b 45 fc	 mov	 eax, DWORD PTR _this$[ebp]
  0000a	c7 00 00 00 00
	00		 mov	 DWORD PTR [eax], 0

; 144  :         if (null != 0) {

  00010	83 7d 08 00	 cmp	 DWORD PTR _null$[ebp], 0
  00014	74 0a		 je	 SHORT $LN1@com_ptr_t

; 145  :             _com_issue_error(E_POINTER);

  00016	68 03 40 00 80	 push	 -2147467261		; 80004003H
  0001b	e8 00 00 00 00	 call	 ?_com_issue_error@@YGXJ@Z ; _com_issue_error
$LN1@com_ptr_t:
  00020	8b 45 fc	 mov	 eax, DWORD PTR _this$[ebp]
$LN3@com_ptr_t:
  00023	8b e5		 mov	 esp, ebp
  00025	5d		 pop	 ebp
  00026	c2 04 00	 ret	 4
??0?$_com_ptr_t@V?$_com_IIID@UError@ADOCG@@$1?_GUID_00000500_0000_0010_8000_00aa006d2ea4@@3U__s_GUID@@B@@@@QAE@H@Z ENDP ; _com_ptr_t<_com_IIID<ADOCG::Error,&_GUID_00000500_0000_0010_8000_00aa006d2ea4> >::_com_ptr_t<_com_IIID<ADOCG::Error,&_GUID_00000500_0000_0010_8000_00aa006d2ea4> >
_TEXT	ENDS
; Function compile flags: /Odtp
; File g:\网狐\happygamewh\服务端\中间目录\内核引擎\debug_ansi\msado15.tli
; File c:\program files (x86)\microsoft visual studio\2017\community\vc\tools\msvc\14.16.27023\include\comip.h
; File g:\网狐\happygamewh\服务端\中间目录\内核引擎\debug_ansi\msado15.tli
;	COMDAT ?NextRecordset@Recordset15@ADOCG@@QAE?AV?$_com_ptr_t@V?$_com_IIID@U_Recordset@ADOCG@@$1?_GUID_00000556_0000_0010_8000_00aa006d2ea4@@3U__s_GUID@@B@@@@PAUtagVARIANT@@@Z
_TEXT	SEGMENT
_pInterface$ = -20					; size = 4
$T1 = -16						; size = 4
__result$ = -12						; size = 4
__hr$ = -8						; size = 4
_this$ = -4						; size = 4
___$ReturnUdt$ = 8					; size = 4
_RecordsAffected$ = 12					; size = 4
?NextRecordset@Recordset15@ADOCG@@QAE?AV?$_com_ptr_t@V?$_com_IIID@U_Recordset@ADOCG@@$1?_GUID_00000556_0000_0010_8000_00aa006d2ea4@@3U__s_GUID@@B@@@@PAUtagVARIANT@@@Z PROC ; ADOCG::Recordset15::NextRecordset, COMDAT
; _this$ = ecx

; 1712 : inline _RecordsetPtr Recordset15::NextRecordset ( VARIANT * RecordsAffected ) {

  00000	55		 push	 ebp
  00001	8b ec		 mov	 ebp, esp
  00003	83 ec 14	 sub	 esp, 20			; 00000014H
  00006	89 4d fc	 mov	 DWORD PTR _this$[ebp], ecx
  00009	c7 45 f0 00 00
	00 00		 mov	 DWORD PTR $T1[ebp], 0

; 1713 :     struct _Recordset * _result = 0;

  00010	c7 45 f4 00 00
	00 00		 mov	 DWORD PTR __result$[ebp], 0

; 1714 :     HRESULT _hr = raw_NextRecordset(RecordsAffected, &_result);

  00017	8d 45 f4	 lea	 eax, DWORD PTR __result$[ebp]
  0001a	50		 push	 eax
  0001b	8b 4d 0c	 mov	 ecx, DWORD PTR _RecordsAffected$[ebp]
  0001e	51		 push	 ecx
  0001f	8b 55 fc	 mov	 edx, DWORD PTR _this$[ebp]
  00022	8b 02		 mov	 eax, DWORD PTR [edx]
  00024	8b 4d fc	 mov	 ecx, DWORD PTR _this$[ebp]
  00027	51		 push	 ecx
  00028	8b 90 f4 00 00
	00		 mov	 edx, DWORD PTR [eax+244]
  0002e	ff d2		 call	 edx
  00030	89 45 f8	 mov	 DWORD PTR __hr$[ebp], eax

; 1715 :     if (FAILED(_hr)) _com_issue_errorex(_hr, this, __uuidof(this));

  00033	83 7d f8 00	 cmp	 DWORD PTR __hr$[ebp], 0
  00037	7d 12		 jge	 SHORT $LN2@NextRecord
  00039	68 00 00 00 00	 push	 OFFSET __GUID_0000050e_0000_0010_8000_00aa006d2ea4
  0003e	8b 45 fc	 mov	 eax, DWORD PTR _this$[ebp]
  00041	50		 push	 eax
  00042	8b 4d f8	 mov	 ecx, DWORD PTR __hr$[ebp]
  00045	51		 push	 ecx
  00046	e8 00 00 00 00	 call	 ?_com_issue_errorex@@YGXJPAUIUnknown@@ABU_GUID@@@Z ; _com_issue_errorex
$LN2@NextRecord:

; 1716 :     return _RecordsetPtr(_result, false);

  0004b	8b 55 f4	 mov	 edx, DWORD PTR __result$[ebp]
  0004e	89 55 ec	 mov	 DWORD PTR _pInterface$[ebp], edx
; File c:\program files (x86)\microsoft visual studio\2017\community\vc\tools\msvc\14.16.27023\include\comip.h

; 184  :         : m_pInterface(pInterface)

  00051	8b 45 08	 mov	 eax, DWORD PTR ___$ReturnUdt$[ebp]
  00054	8b 4d ec	 mov	 ecx, DWORD PTR _pInterface$[ebp]
  00057	89 08		 mov	 DWORD PTR [eax], ecx

; 185  :     {
; 186  :         if (fAddRef) {

  00059	33 d2		 xor	 edx, edx
  0005b	74 1a		 je	 SHORT $LN6@NextRecord

; 826  :         if (m_pInterface != NULL) {

  0005d	8b 45 08	 mov	 eax, DWORD PTR ___$ReturnUdt$[ebp]
  00060	83 38 00	 cmp	 DWORD PTR [eax], 0
  00063	74 12		 je	 SHORT $LN6@NextRecord

; 827  :             m_pInterface->AddRef();

  00065	8b 4d 08	 mov	 ecx, DWORD PTR ___$ReturnUdt$[ebp]
  00068	8b 11		 mov	 edx, DWORD PTR [ecx]
  0006a	8b 45 08	 mov	 eax, DWORD PTR ___$ReturnUdt$[ebp]
  0006d	8b 08		 mov	 ecx, DWORD PTR [eax]
  0006f	8b 12		 mov	 edx, DWORD PTR [edx]
  00071	51		 push	 ecx
  00072	8b 42 04	 mov	 eax, DWORD PTR [edx+4]
  00075	ff d0		 call	 eax
$LN6@NextRecord:
; File g:\网狐\happygamewh\服务端\中间目录\内核引擎\debug_ansi\msado15.tli

; 1716 :     return _RecordsetPtr(_result, false);

  00077	8b 4d f0	 mov	 ecx, DWORD PTR $T1[ebp]
  0007a	83 c9 01	 or	 ecx, 1
  0007d	89 4d f0	 mov	 DWORD PTR $T1[ebp], ecx
  00080	8b 45 08	 mov	 eax, DWORD PTR ___$ReturnUdt$[ebp]

; 1717 : }

  00083	8b e5		 mov	 esp, ebp
  00085	5d		 pop	 ebp
  00086	c2 08 00	 ret	 8
?NextRecordset@Recordset15@ADOCG@@QAE?AV?$_com_ptr_t@V?$_com_IIID@U_Recordset@ADOCG@@$1?_GUID_00000556_0000_0010_8000_00aa006d2ea4@@3U__s_GUID@@B@@@@PAUtagVARIANT@@@Z ENDP ; ADOCG::Recordset15::NextRecordset
_TEXT	ENDS
; Function compile flags: /Odtp
; File g:\网狐\happygamewh\服务端\中间目录\内核引擎\debug_ansi\msado15.tli
;	COMDAT ?PutCursorLocation@Recordset15@ADOCG@@QAEXW4CursorLocationEnum@2@@Z
_TEXT	SEGMENT
__hr$ = -8						; size = 4
_this$ = -4						; size = 4
_plCursorLoc$ = 8					; size = 4
?PutCursorLocation@Recordset15@ADOCG@@QAEXW4CursorLocationEnum@2@@Z PROC ; ADOCG::Recordset15::PutCursorLocation, COMDAT
; _this$ = ecx

; 1707 : inline void Recordset15::PutCursorLocation ( enum CursorLocationEnum plCursorLoc ) {

  00000	55		 push	 ebp
  00001	8b ec		 mov	 ebp, esp
  00003	83 ec 08	 sub	 esp, 8
  00006	89 4d fc	 mov	 DWORD PTR _this$[ebp], ecx

; 1708 :     HRESULT _hr = put_CursorLocation(plCursorLoc);

  00009	8b 45 08	 mov	 eax, DWORD PTR _plCursorLoc$[ebp]
  0000c	50		 push	 eax
  0000d	8b 4d fc	 mov	 ecx, DWORD PTR _this$[ebp]
  00010	8b 11		 mov	 edx, DWORD PTR [ecx]
  00012	8b 45 fc	 mov	 eax, DWORD PTR _this$[ebp]
  00015	50		 push	 eax
  00016	8b 8a f0 00 00
	00		 mov	 ecx, DWORD PTR [edx+240]
  0001c	ff d1		 call	 ecx
  0001e	89 45 f8	 mov	 DWORD PTR __hr$[ebp], eax

; 1709 :     if (FAILED(_hr)) _com_issue_errorex(_hr, this, __uuidof(this));

  00021	83 7d f8 00	 cmp	 DWORD PTR __hr$[ebp], 0
  00025	7d 12		 jge	 SHORT $LN1@PutCursorL
  00027	68 00 00 00 00	 push	 OFFSET __GUID_0000050e_0000_0010_8000_00aa006d2ea4
  0002c	8b 55 fc	 mov	 edx, DWORD PTR _this$[ebp]
  0002f	52		 push	 edx
  00030	8b 45 f8	 mov	 eax, DWORD PTR __hr$[ebp]
  00033	50		 push	 eax
  00034	e8 00 00 00 00	 call	 ?_com_issue_errorex@@YGXJPAUIUnknown@@ABU_GUID@@@Z ; _com_issue_errorex
$LN1@PutCursorL:

; 1710 : }

  00039	8b e5		 mov	 esp, ebp
  0003b	5d		 pop	 ebp
  0003c	c2 04 00	 ret	 4
?PutCursorLocation@Recordset15@ADOCG@@QAEXW4CursorLocationEnum@2@@Z ENDP ; ADOCG::Recordset15::PutCursorLocation
_TEXT	ENDS
; Function compile flags: /Odtp
; File g:\网狐\happygamewh\服务端\中间目录\内核引擎\debug_ansi\msado15.tli
;	COMDAT ?GetState@Recordset15@ADOCG@@QAEJXZ
_TEXT	SEGMENT
__result$ = -12						; size = 4
__hr$ = -8						; size = 4
_this$ = -4						; size = 4
?GetState@Recordset15@ADOCG@@QAEJXZ PROC		; ADOCG::Recordset15::GetState, COMDAT
; _this$ = ecx

; 1674 : inline long Recordset15::GetState ( ) {

  00000	55		 push	 ebp
  00001	8b ec		 mov	 ebp, esp
  00003	83 ec 0c	 sub	 esp, 12			; 0000000cH
  00006	89 4d fc	 mov	 DWORD PTR _this$[ebp], ecx

; 1675 :     long _result = 0;

  00009	c7 45 f4 00 00
	00 00		 mov	 DWORD PTR __result$[ebp], 0

; 1676 :     HRESULT _hr = get_State(&_result);

  00010	8d 45 f4	 lea	 eax, DWORD PTR __result$[ebp]
  00013	50		 push	 eax
  00014	8b 4d fc	 mov	 ecx, DWORD PTR _this$[ebp]
  00017	8b 11		 mov	 edx, DWORD PTR [ecx]
  00019	8b 45 fc	 mov	 eax, DWORD PTR _this$[ebp]
  0001c	50		 push	 eax
  0001d	8b 8a dc 00 00
	00		 mov	 ecx, DWORD PTR [edx+220]
  00023	ff d1		 call	 ecx
  00025	89 45 f8	 mov	 DWORD PTR __hr$[ebp], eax

; 1677 :     if (FAILED(_hr)) _com_issue_errorex(_hr, this, __uuidof(this));

  00028	83 7d f8 00	 cmp	 DWORD PTR __hr$[ebp], 0
  0002c	7d 12		 jge	 SHORT $LN2@GetState
  0002e	68 00 00 00 00	 push	 OFFSET __GUID_0000050e_0000_0010_8000_00aa006d2ea4
  00033	8b 55 fc	 mov	 edx, DWORD PTR _this$[ebp]
  00036	52		 push	 edx
  00037	8b 45 f8	 mov	 eax, DWORD PTR __hr$[ebp]
  0003a	50		 push	 eax
  0003b	e8 00 00 00 00	 call	 ?_com_issue_errorex@@YGXJPAUIUnknown@@ABU_GUID@@@Z ; _com_issue_errorex
$LN2@GetState:

; 1678 :     return _result;

  00040	8b 45 f4	 mov	 eax, DWORD PTR __result$[ebp]

; 1679 : }

  00043	8b e5		 mov	 esp, ebp
  00045	5d		 pop	 ebp
  00046	c3		 ret	 0
?GetState@Recordset15@ADOCG@@QAEJXZ ENDP		; ADOCG::Recordset15::GetState
_TEXT	ENDS
; Function compile flags: /Odtp
; File g:\网狐\happygamewh\服务端\中间目录\内核引擎\debug_ansi\msado15.tli
;	COMDAT ?Open@Recordset15@ADOCG@@QAEJABV_variant_t@@0W4CursorTypeEnum@2@W4LockTypeEnum@2@J@Z
_TEXT	SEGMENT
$T1 = -40						; size = 16
$T2 = -24						; size = 16
__hr$ = -8						; size = 4
_this$ = -4						; size = 4
_Source$ = 8						; size = 4
_ActiveConnection$ = 12					; size = 4
_CursorType$ = 16					; size = 4
_LockType$ = 20						; size = 4
_Options$ = 24						; size = 4
?Open@Recordset15@ADOCG@@QAEJABV_variant_t@@0W4CursorTypeEnum@2@W4LockTypeEnum@2@J@Z PROC ; ADOCG::Recordset15::Open, COMDAT
; _this$ = ecx

; 1580 : inline HRESULT Recordset15::Open ( const _variant_t & Source, const _variant_t & ActiveConnection, enum CursorTypeEnum CursorType, enum LockTypeEnum LockType, long Options ) {

  00000	55		 push	 ebp
  00001	8b ec		 mov	 ebp, esp
  00003	83 ec 28	 sub	 esp, 40			; 00000028H
  00006	89 4d fc	 mov	 DWORD PTR _this$[ebp], ecx

; 1581 :     HRESULT _hr = raw_Open(Source, ActiveConnection, CursorType, LockType, Options);

  00009	8b 45 0c	 mov	 eax, DWORD PTR _ActiveConnection$[ebp]
  0000c	8b 08		 mov	 ecx, DWORD PTR [eax]
  0000e	89 4d e8	 mov	 DWORD PTR $T2[ebp], ecx
  00011	8b 50 04	 mov	 edx, DWORD PTR [eax+4]
  00014	89 55 ec	 mov	 DWORD PTR $T2[ebp+4], edx
  00017	8b 48 08	 mov	 ecx, DWORD PTR [eax+8]
  0001a	89 4d f0	 mov	 DWORD PTR $T2[ebp+8], ecx
  0001d	8b 50 0c	 mov	 edx, DWORD PTR [eax+12]
  00020	89 55 f4	 mov	 DWORD PTR $T2[ebp+12], edx
  00023	8b 45 08	 mov	 eax, DWORD PTR _Source$[ebp]
  00026	8b 08		 mov	 ecx, DWORD PTR [eax]
  00028	89 4d d8	 mov	 DWORD PTR $T1[ebp], ecx
  0002b	8b 50 04	 mov	 edx, DWORD PTR [eax+4]
  0002e	89 55 dc	 mov	 DWORD PTR $T1[ebp+4], edx
  00031	8b 48 08	 mov	 ecx, DWORD PTR [eax+8]
  00034	89 4d e0	 mov	 DWORD PTR $T1[ebp+8], ecx
  00037	8b 50 0c	 mov	 edx, DWORD PTR [eax+12]
  0003a	89 55 e4	 mov	 DWORD PTR $T1[ebp+12], edx
  0003d	8b 45 18	 mov	 eax, DWORD PTR _Options$[ebp]
  00040	50		 push	 eax
  00041	8b 4d 14	 mov	 ecx, DWORD PTR _LockType$[ebp]
  00044	51		 push	 ecx
  00045	8b 55 10	 mov	 edx, DWORD PTR _CursorType$[ebp]
  00048	52		 push	 edx
  00049	83 ec 10	 sub	 esp, 16			; 00000010H
  0004c	8b c4		 mov	 eax, esp
  0004e	8b 4d e8	 mov	 ecx, DWORD PTR $T2[ebp]
  00051	89 08		 mov	 DWORD PTR [eax], ecx
  00053	8b 55 ec	 mov	 edx, DWORD PTR $T2[ebp+4]
  00056	89 50 04	 mov	 DWORD PTR [eax+4], edx
  00059	8b 4d f0	 mov	 ecx, DWORD PTR $T2[ebp+8]
  0005c	89 48 08	 mov	 DWORD PTR [eax+8], ecx
  0005f	8b 55 f4	 mov	 edx, DWORD PTR $T2[ebp+12]
  00062	89 50 0c	 mov	 DWORD PTR [eax+12], edx
  00065	83 ec 10	 sub	 esp, 16			; 00000010H
  00068	8b c4		 mov	 eax, esp
  0006a	8b 4d d8	 mov	 ecx, DWORD PTR $T1[ebp]
  0006d	89 08		 mov	 DWORD PTR [eax], ecx
  0006f	8b 55 dc	 mov	 edx, DWORD PTR $T1[ebp+4]
  00072	89 50 04	 mov	 DWORD PTR [eax+4], edx
  00075	8b 4d e0	 mov	 ecx, DWORD PTR $T1[ebp+8]
  00078	89 48 08	 mov	 DWORD PTR [eax+8], ecx
  0007b	8b 55 e4	 mov	 edx, DWORD PTR $T1[ebp+12]
  0007e	89 50 0c	 mov	 DWORD PTR [eax+12], edx
  00081	8b 45 fc	 mov	 eax, DWORD PTR _this$[ebp]
  00084	50		 push	 eax
  00085	8b 4d fc	 mov	 ecx, DWORD PTR _this$[ebp]
  00088	8b 11		 mov	 edx, DWORD PTR [ecx]
  0008a	8b 82 a0 00 00
	00		 mov	 eax, DWORD PTR [edx+160]
  00090	ff d0		 call	 eax
  00092	89 45 f8	 mov	 DWORD PTR __hr$[ebp], eax

; 1582 :     if (FAILED(_hr)) _com_issue_errorex(_hr, this, __uuidof(this));

  00095	83 7d f8 00	 cmp	 DWORD PTR __hr$[ebp], 0
  00099	7d 12		 jge	 SHORT $LN2@Open
  0009b	68 00 00 00 00	 push	 OFFSET __GUID_0000050e_0000_0010_8000_00aa006d2ea4
  000a0	8b 4d fc	 mov	 ecx, DWORD PTR _this$[ebp]
  000a3	51		 push	 ecx
  000a4	8b 55 f8	 mov	 edx, DWORD PTR __hr$[ebp]
  000a7	52		 push	 edx
  000a8	e8 00 00 00 00	 call	 ?_com_issue_errorex@@YGXJPAUIUnknown@@ABU_GUID@@@Z ; _com_issue_errorex
$LN2@Open:

; 1583 :     return _hr;

  000ad	8b 45 f8	 mov	 eax, DWORD PTR __hr$[ebp]

; 1584 : }

  000b0	8b e5		 mov	 esp, ebp
  000b2	5d		 pop	 ebp
  000b3	c2 14 00	 ret	 20			; 00000014H
?Open@Recordset15@ADOCG@@QAEJABV_variant_t@@0W4CursorTypeEnum@2@W4LockTypeEnum@2@J@Z ENDP ; ADOCG::Recordset15::Open
_TEXT	ENDS
; Function compile flags: /Odtp
; File g:\网狐\happygamewh\服务端\中间目录\内核引擎\debug_ansi\msado15.tli
;	COMDAT ?MoveFirst@Recordset15@ADOCG@@QAEJXZ
_TEXT	SEGMENT
__hr$ = -8						; size = 4
_this$ = -4						; size = 4
?MoveFirst@Recordset15@ADOCG@@QAEJXZ PROC		; ADOCG::Recordset15::MoveFirst, COMDAT
; _this$ = ecx

; 1568 : inline HRESULT Recordset15::MoveFirst ( ) {

  00000	55		 push	 ebp
  00001	8b ec		 mov	 ebp, esp
  00003	83 ec 08	 sub	 esp, 8
  00006	89 4d fc	 mov	 DWORD PTR _this$[ebp], ecx

; 1569 :     HRESULT _hr = raw_MoveFirst();

  00009	8b 45 fc	 mov	 eax, DWORD PTR _this$[ebp]
  0000c	8b 08		 mov	 ecx, DWORD PTR [eax]
  0000e	8b 55 fc	 mov	 edx, DWORD PTR _this$[ebp]
  00011	52		 push	 edx
  00012	8b 81 98 00 00
	00		 mov	 eax, DWORD PTR [ecx+152]
  00018	ff d0		 call	 eax
  0001a	89 45 f8	 mov	 DWORD PTR __hr$[ebp], eax

; 1570 :     if (FAILED(_hr)) _com_issue_errorex(_hr, this, __uuidof(this));

  0001d	83 7d f8 00	 cmp	 DWORD PTR __hr$[ebp], 0
  00021	7d 12		 jge	 SHORT $LN2@MoveFirst
  00023	68 00 00 00 00	 push	 OFFSET __GUID_0000050e_0000_0010_8000_00aa006d2ea4
  00028	8b 4d fc	 mov	 ecx, DWORD PTR _this$[ebp]
  0002b	51		 push	 ecx
  0002c	8b 55 f8	 mov	 edx, DWORD PTR __hr$[ebp]
  0002f	52		 push	 edx
  00030	e8 00 00 00 00	 call	 ?_com_issue_errorex@@YGXJPAUIUnknown@@ABU_GUID@@@Z ; _com_issue_errorex
$LN2@MoveFirst:

; 1571 :     return _hr;

  00035	8b 45 f8	 mov	 eax, DWORD PTR __hr$[ebp]

; 1572 : }

  00038	8b e5		 mov	 esp, ebp
  0003a	5d		 pop	 ebp
  0003b	c3		 ret	 0
?MoveFirst@Recordset15@ADOCG@@QAEJXZ ENDP		; ADOCG::Recordset15::MoveFirst
_TEXT	ENDS
; Function compile flags: /Odtp
; File g:\网狐\happygamewh\服务端\中间目录\内核引擎\debug_ansi\msado15.tli
;	COMDAT ?MoveNext@Recordset15@ADOCG@@QAEJXZ
_TEXT	SEGMENT
__hr$ = -8						; size = 4
_this$ = -4						; size = 4
?MoveNext@Recordset15@ADOCG@@QAEJXZ PROC		; ADOCG::Recordset15::MoveNext, COMDAT
; _this$ = ecx

; 1556 : inline HRESULT Recordset15::MoveNext ( ) {

  00000	55		 push	 ebp
  00001	8b ec		 mov	 ebp, esp
  00003	83 ec 08	 sub	 esp, 8
  00006	89 4d fc	 mov	 DWORD PTR _this$[ebp], ecx

; 1557 :     HRESULT _hr = raw_MoveNext();

  00009	8b 45 fc	 mov	 eax, DWORD PTR _this$[ebp]
  0000c	8b 08		 mov	 ecx, DWORD PTR [eax]
  0000e	8b 55 fc	 mov	 edx, DWORD PTR _this$[ebp]
  00011	52		 push	 edx
  00012	8b 81 90 00 00
	00		 mov	 eax, DWORD PTR [ecx+144]
  00018	ff d0		 call	 eax
  0001a	89 45 f8	 mov	 DWORD PTR __hr$[ebp], eax

; 1558 :     if (FAILED(_hr)) _com_issue_errorex(_hr, this, __uuidof(this));

  0001d	83 7d f8 00	 cmp	 DWORD PTR __hr$[ebp], 0
  00021	7d 12		 jge	 SHORT $LN2@MoveNext
  00023	68 00 00 00 00	 push	 OFFSET __GUID_0000050e_0000_0010_8000_00aa006d2ea4
  00028	8b 4d fc	 mov	 ecx, DWORD PTR _this$[ebp]
  0002b	51		 push	 ecx
  0002c	8b 55 f8	 mov	 edx, DWORD PTR __hr$[ebp]
  0002f	52		 push	 edx
  00030	e8 00 00 00 00	 call	 ?_com_issue_errorex@@YGXJPAUIUnknown@@ABU_GUID@@@Z ; _com_issue_errorex
$LN2@MoveNext:

; 1559 :     return _hr;

  00035	8b 45 f8	 mov	 eax, DWORD PTR __hr$[ebp]

; 1560 : }

  00038	8b e5		 mov	 esp, ebp
  0003a	5d		 pop	 ebp
  0003b	c3		 ret	 0
?MoveNext@Recordset15@ADOCG@@QAEJXZ ENDP		; ADOCG::Recordset15::MoveNext
_TEXT	ENDS
; Function compile flags: /Odtp
; File g:\网狐\happygamewh\服务端\中间目录\内核引擎\debug_ansi\msado15.tli
;	COMDAT ?Close@Recordset15@ADOCG@@QAEJXZ
_TEXT	SEGMENT
__hr$ = -8						; size = 4
_this$ = -4						; size = 4
?Close@Recordset15@ADOCG@@QAEJXZ PROC			; ADOCG::Recordset15::Close, COMDAT
; _this$ = ecx

; 1530 : inline HRESULT Recordset15::Close ( ) {

  00000	55		 push	 ebp
  00001	8b ec		 mov	 ebp, esp
  00003	83 ec 08	 sub	 esp, 8
  00006	89 4d fc	 mov	 DWORD PTR _this$[ebp], ecx

; 1531 :     HRESULT _hr = raw_Close();

  00009	8b 45 fc	 mov	 eax, DWORD PTR _this$[ebp]
  0000c	8b 08		 mov	 ecx, DWORD PTR [eax]
  0000e	8b 55 fc	 mov	 edx, DWORD PTR _this$[ebp]
  00011	52		 push	 edx
  00012	8b 81 80 00 00
	00		 mov	 eax, DWORD PTR [ecx+128]
  00018	ff d0		 call	 eax
  0001a	89 45 f8	 mov	 DWORD PTR __hr$[ebp], eax

; 1532 :     if (FAILED(_hr)) _com_issue_errorex(_hr, this, __uuidof(this));

  0001d	83 7d f8 00	 cmp	 DWORD PTR __hr$[ebp], 0
  00021	7d 12		 jge	 SHORT $LN2@Close
  00023	68 00 00 00 00	 push	 OFFSET __GUID_0000050e_0000_0010_8000_00aa006d2ea4
  00028	8b 4d fc	 mov	 ecx, DWORD PTR _this$[ebp]
  0002b	51		 push	 ecx
  0002c	8b 55 f8	 mov	 edx, DWORD PTR __hr$[ebp]
  0002f	52		 push	 edx
  00030	e8 00 00 00 00	 call	 ?_com_issue_errorex@@YGXJPAUIUnknown@@ABU_GUID@@@Z ; _com_issue_errorex
$LN2@Close:

; 1533 :     return _hr;

  00035	8b 45 f8	 mov	 eax, DWORD PTR __hr$[ebp]

; 1534 : }

  00038	8b e5		 mov	 esp, ebp
  0003a	5d		 pop	 ebp
  0003b	c3		 ret	 0
?Close@Recordset15@ADOCG@@QAEJXZ ENDP			; ADOCG::Recordset15::Close
_TEXT	ENDS
; Function compile flags: /Odtp
; File g:\网狐\happygamewh\服务端\中间目录\内核引擎\debug_ansi\msado15.tli
;	COMDAT ?PutRefSource@Recordset15@ADOCG@@QAEXPAUIDispatch@@@Z
_TEXT	SEGMENT
__hr$ = -8						; size = 4
_this$ = -4						; size = 4
_pvSource$ = 8						; size = 4
?PutRefSource@Recordset15@ADOCG@@QAEXPAUIDispatch@@@Z PROC ; ADOCG::Recordset15::PutRefSource, COMDAT
; _this$ = ecx

; 1500 : inline void Recordset15::PutRefSource ( IDispatch * pvSource ) {

  00000	55		 push	 ebp
  00001	8b ec		 mov	 ebp, esp
  00003	83 ec 08	 sub	 esp, 8
  00006	89 4d fc	 mov	 DWORD PTR _this$[ebp], ecx

; 1501 :     HRESULT _hr = putref_Source(pvSource);

  00009	8b 45 08	 mov	 eax, DWORD PTR _pvSource$[ebp]
  0000c	50		 push	 eax
  0000d	8b 4d fc	 mov	 ecx, DWORD PTR _this$[ebp]
  00010	8b 11		 mov	 edx, DWORD PTR [ecx]
  00012	8b 45 fc	 mov	 eax, DWORD PTR _this$[ebp]
  00015	50		 push	 eax
  00016	8b 4a 6c	 mov	 ecx, DWORD PTR [edx+108]
  00019	ff d1		 call	 ecx
  0001b	89 45 f8	 mov	 DWORD PTR __hr$[ebp], eax

; 1502 :     if (FAILED(_hr)) _com_issue_errorex(_hr, this, __uuidof(this));

  0001e	83 7d f8 00	 cmp	 DWORD PTR __hr$[ebp], 0
  00022	7d 12		 jge	 SHORT $LN1@PutRefSour
  00024	68 00 00 00 00	 push	 OFFSET __GUID_0000050e_0000_0010_8000_00aa006d2ea4
  00029	8b 55 fc	 mov	 edx, DWORD PTR _this$[ebp]
  0002c	52		 push	 edx
  0002d	8b 45 f8	 mov	 eax, DWORD PTR __hr$[ebp]
  00030	50		 push	 eax
  00031	e8 00 00 00 00	 call	 ?_com_issue_errorex@@YGXJPAUIUnknown@@ABU_GUID@@@Z ; _com_issue_errorex
$LN1@PutRefSour:

; 1503 : }

  00036	8b e5		 mov	 esp, ebp
  00038	5d		 pop	 ebp
  00039	c2 04 00	 ret	 4
?PutRefSource@Recordset15@ADOCG@@QAEXPAUIDispatch@@@Z ENDP ; ADOCG::Recordset15::PutRefSource
_TEXT	ENDS
; Function compile flags: /Odtp
; File g:\网狐\happygamewh\服务端\中间目录\内核引擎\debug_ansi\msado15.tli
;	COMDAT ?GetRecordCount@Recordset15@ADOCG@@QAEJXZ
_TEXT	SEGMENT
__result$ = -12						; size = 4
__hr$ = -8						; size = 4
_this$ = -4						; size = 4
?GetRecordCount@Recordset15@ADOCG@@QAEJXZ PROC		; ADOCG::Recordset15::GetRecordCount, COMDAT
; _this$ = ecx

; 1493 : inline ADO_LONGPTR Recordset15::GetRecordCount ( ) {

  00000	55		 push	 ebp
  00001	8b ec		 mov	 ebp, esp
  00003	83 ec 0c	 sub	 esp, 12			; 0000000cH
  00006	89 4d fc	 mov	 DWORD PTR _this$[ebp], ecx

; 1494 :     ADO_LONGPTR _result;
; 1495 :     HRESULT _hr = get_RecordCount(&_result);

  00009	8d 45 f4	 lea	 eax, DWORD PTR __result$[ebp]
  0000c	50		 push	 eax
  0000d	8b 4d fc	 mov	 ecx, DWORD PTR _this$[ebp]
  00010	8b 11		 mov	 edx, DWORD PTR [ecx]
  00012	8b 45 fc	 mov	 eax, DWORD PTR _this$[ebp]
  00015	50		 push	 eax
  00016	8b 4a 68	 mov	 ecx, DWORD PTR [edx+104]
  00019	ff d1		 call	 ecx
  0001b	89 45 f8	 mov	 DWORD PTR __hr$[ebp], eax

; 1496 :     if (FAILED(_hr)) _com_issue_errorex(_hr, this, __uuidof(this));

  0001e	83 7d f8 00	 cmp	 DWORD PTR __hr$[ebp], 0
  00022	7d 12		 jge	 SHORT $LN2@GetRecordC
  00024	68 00 00 00 00	 push	 OFFSET __GUID_0000050e_0000_0010_8000_00aa006d2ea4
  00029	8b 55 fc	 mov	 edx, DWORD PTR _this$[ebp]
  0002c	52		 push	 edx
  0002d	8b 45 f8	 mov	 eax, DWORD PTR __hr$[ebp]
  00030	50		 push	 eax
  00031	e8 00 00 00 00	 call	 ?_com_issue_errorex@@YGXJPAUIUnknown@@ABU_GUID@@@Z ; _com_issue_errorex
$LN2@GetRecordC:

; 1497 :     return _result;

  00036	8b 45 f4	 mov	 eax, DWORD PTR __result$[ebp]

; 1498 : }

  00039	8b e5		 mov	 esp, ebp
  0003b	5d		 pop	 ebp
  0003c	c3		 ret	 0
?GetRecordCount@Recordset15@ADOCG@@QAEJXZ ENDP		; ADOCG::Recordset15::GetRecordCount
_TEXT	ENDS
; Function compile flags: /Odtp
; File g:\网狐\happygamewh\服务端\中间目录\内核引擎\debug_ansi\msado15.tli
; File c:\program files (x86)\microsoft visual studio\2017\community\vc\tools\msvc\14.16.27023\include\comip.h
; File g:\网狐\happygamewh\服务端\中间目录\内核引擎\debug_ansi\msado15.tli
;	COMDAT ?GetFields@Recordset15@ADOCG@@QAE?AV?$_com_ptr_t@V?$_com_IIID@UFields@ADOCG@@$1?_GUID_00000564_0000_0010_8000_00aa006d2ea4@@3U__s_GUID@@B@@@@XZ
_TEXT	SEGMENT
_pInterface$ = -20					; size = 4
$T1 = -16						; size = 4
__result$ = -12						; size = 4
__hr$ = -8						; size = 4
_this$ = -4						; size = 4
___$ReturnUdt$ = 8					; size = 4
?GetFields@Recordset15@ADOCG@@QAE?AV?$_com_ptr_t@V?$_com_IIID@UFields@ADOCG@@$1?_GUID_00000564_0000_0010_8000_00aa006d2ea4@@3U__s_GUID@@B@@@@XZ PROC ; ADOCG::Recordset15::GetFields, COMDAT
; _this$ = ecx

; 1462 : inline FieldsPtr Recordset15::GetFields ( ) {

  00000	55		 push	 ebp
  00001	8b ec		 mov	 ebp, esp
  00003	83 ec 14	 sub	 esp, 20			; 00000014H
  00006	89 4d fc	 mov	 DWORD PTR _this$[ebp], ecx
  00009	c7 45 f0 00 00
	00 00		 mov	 DWORD PTR $T1[ebp], 0

; 1463 :     struct Fields * _result = 0;

  00010	c7 45 f4 00 00
	00 00		 mov	 DWORD PTR __result$[ebp], 0

; 1464 :     HRESULT _hr = get_Fields(&_result);

  00017	8d 45 f4	 lea	 eax, DWORD PTR __result$[ebp]
  0001a	50		 push	 eax
  0001b	8b 4d fc	 mov	 ecx, DWORD PTR _this$[ebp]
  0001e	8b 11		 mov	 edx, DWORD PTR [ecx]
  00020	8b 45 fc	 mov	 eax, DWORD PTR _this$[ebp]
  00023	50		 push	 eax
  00024	8b 4a 54	 mov	 ecx, DWORD PTR [edx+84]
  00027	ff d1		 call	 ecx
  00029	89 45 f8	 mov	 DWORD PTR __hr$[ebp], eax

; 1465 :     if (FAILED(_hr)) _com_issue_errorex(_hr, this, __uuidof(this));

  0002c	83 7d f8 00	 cmp	 DWORD PTR __hr$[ebp], 0
  00030	7d 12		 jge	 SHORT $LN2@GetFields
  00032	68 00 00 00 00	 push	 OFFSET __GUID_0000050e_0000_0010_8000_00aa006d2ea4
  00037	8b 55 fc	 mov	 edx, DWORD PTR _this$[ebp]
  0003a	52		 push	 edx
  0003b	8b 45 f8	 mov	 eax, DWORD PTR __hr$[ebp]
  0003e	50		 push	 eax
  0003f	e8 00 00 00 00	 call	 ?_com_issue_errorex@@YGXJPAUIUnknown@@ABU_GUID@@@Z ; _com_issue_errorex
$LN2@GetFields:

; 1466 :     return FieldsPtr(_result, false);

  00044	8b 4d f4	 mov	 ecx, DWORD PTR __result$[ebp]
  00047	89 4d ec	 mov	 DWORD PTR _pInterface$[ebp], ecx
; File c:\program files (x86)\microsoft visual studio\2017\community\vc\tools\msvc\14.16.27023\include\comip.h

; 184  :         : m_pInterface(pInterface)

  0004a	8b 55 08	 mov	 edx, DWORD PTR ___$ReturnUdt$[ebp]
  0004d	8b 45 ec	 mov	 eax, DWORD PTR _pInterface$[ebp]
  00050	89 02		 mov	 DWORD PTR [edx], eax

; 185  :     {
; 186  :         if (fAddRef) {

  00052	33 c9		 xor	 ecx, ecx
  00054	74 1a		 je	 SHORT $LN6@GetFields

; 826  :         if (m_pInterface != NULL) {

  00056	8b 55 08	 mov	 edx, DWORD PTR ___$ReturnUdt$[ebp]
  00059	83 3a 00	 cmp	 DWORD PTR [edx], 0
  0005c	74 12		 je	 SHORT $LN6@GetFields

; 827  :             m_pInterface->AddRef();

  0005e	8b 45 08	 mov	 eax, DWORD PTR ___$ReturnUdt$[ebp]
  00061	8b 08		 mov	 ecx, DWORD PTR [eax]
  00063	8b 55 08	 mov	 edx, DWORD PTR ___$ReturnUdt$[ebp]
  00066	8b 02		 mov	 eax, DWORD PTR [edx]
  00068	8b 09		 mov	 ecx, DWORD PTR [ecx]
  0006a	50		 push	 eax
  0006b	8b 51 04	 mov	 edx, DWORD PTR [ecx+4]
  0006e	ff d2		 call	 edx
$LN6@GetFields:
; File g:\网狐\happygamewh\服务端\中间目录\内核引擎\debug_ansi\msado15.tli

; 1466 :     return FieldsPtr(_result, false);

  00070	8b 45 f0	 mov	 eax, DWORD PTR $T1[ebp]
  00073	83 c8 01	 or	 eax, 1
  00076	89 45 f0	 mov	 DWORD PTR $T1[ebp], eax
  00079	8b 45 08	 mov	 eax, DWORD PTR ___$ReturnUdt$[ebp]

; 1467 : }

  0007c	8b e5		 mov	 esp, ebp
  0007e	5d		 pop	 ebp
  0007f	c2 04 00	 ret	 4
?GetFields@Recordset15@ADOCG@@QAE?AV?$_com_ptr_t@V?$_com_IIID@UFields@ADOCG@@$1?_GUID_00000564_0000_0010_8000_00aa006d2ea4@@3U__s_GUID@@B@@@@XZ ENDP ; ADOCG::Recordset15::GetFields
_TEXT	ENDS
; Function compile flags: /Odtp
; File g:\网狐\happygamewh\服务端\中间目录\内核引擎\debug_ansi\msado15.tli
;	COMDAT ?GetEndOfFile@Recordset15@ADOCG@@QAEFXZ
_TEXT	SEGMENT
__hr$ = -12						; size = 4
_this$ = -8						; size = 4
__result$ = -4						; size = 2
?GetEndOfFile@Recordset15@ADOCG@@QAEFXZ PROC		; ADOCG::Recordset15::GetEndOfFile, COMDAT
; _this$ = ecx

; 1455 : inline VARIANT_BOOL Recordset15::GetEndOfFile ( ) {

  00000	55		 push	 ebp
  00001	8b ec		 mov	 ebp, esp
  00003	83 ec 0c	 sub	 esp, 12			; 0000000cH
  00006	89 4d f8	 mov	 DWORD PTR _this$[ebp], ecx

; 1456 :     VARIANT_BOOL _result = 0;

  00009	33 c0		 xor	 eax, eax
  0000b	66 89 45 fc	 mov	 WORD PTR __result$[ebp], ax

; 1457 :     HRESULT _hr = get_EndOfFile(&_result);

  0000f	8d 4d fc	 lea	 ecx, DWORD PTR __result$[ebp]
  00012	51		 push	 ecx
  00013	8b 55 f8	 mov	 edx, DWORD PTR _this$[ebp]
  00016	8b 02		 mov	 eax, DWORD PTR [edx]
  00018	8b 4d f8	 mov	 ecx, DWORD PTR _this$[ebp]
  0001b	51		 push	 ecx
  0001c	8b 50 50	 mov	 edx, DWORD PTR [eax+80]
  0001f	ff d2		 call	 edx
  00021	89 45 f4	 mov	 DWORD PTR __hr$[ebp], eax

; 1458 :     if (FAILED(_hr)) _com_issue_errorex(_hr, this, __uuidof(this));

  00024	83 7d f4 00	 cmp	 DWORD PTR __hr$[ebp], 0
  00028	7d 12		 jge	 SHORT $LN2@GetEndOfFi
  0002a	68 00 00 00 00	 push	 OFFSET __GUID_0000050e_0000_0010_8000_00aa006d2ea4
  0002f	8b 45 f8	 mov	 eax, DWORD PTR _this$[ebp]
  00032	50		 push	 eax
  00033	8b 4d f4	 mov	 ecx, DWORD PTR __hr$[ebp]
  00036	51		 push	 ecx
  00037	e8 00 00 00 00	 call	 ?_com_issue_errorex@@YGXJPAUIUnknown@@ABU_GUID@@@Z ; _com_issue_errorex
$LN2@GetEndOfFi:

; 1459 :     return _result;

  0003c	66 8b 45 fc	 mov	 ax, WORD PTR __result$[ebp]

; 1460 : }

  00040	8b e5		 mov	 esp, ebp
  00042	5d		 pop	 ebp
  00043	c3		 ret	 0
?GetEndOfFile@Recordset15@ADOCG@@QAEFXZ ENDP		; ADOCG::Recordset15::GetEndOfFile
_TEXT	ENDS
; Function compile flags: /Odtp
; File g:\网狐\happygamewh\服务端\中间目录\内核引擎\debug_ansi\msado15.tli
;	COMDAT ?GetState@Connection15@ADOCG@@QAEJXZ
_TEXT	SEGMENT
__result$ = -12						; size = 4
__hr$ = -8						; size = 4
_this$ = -4						; size = 4
?GetState@Connection15@ADOCG@@QAEJXZ PROC		; ADOCG::Connection15::GetState, COMDAT
; _this$ = ecx

; 1353 : inline long Connection15::GetState ( ) {

  00000	55		 push	 ebp
  00001	8b ec		 mov	 ebp, esp
  00003	83 ec 0c	 sub	 esp, 12			; 0000000cH
  00006	89 4d fc	 mov	 DWORD PTR _this$[ebp], ecx

; 1354 :     long _result = 0;

  00009	c7 45 f4 00 00
	00 00		 mov	 DWORD PTR __result$[ebp], 0

; 1355 :     HRESULT _hr = get_State(&_result);

  00010	8d 45 f4	 lea	 eax, DWORD PTR __result$[ebp]
  00013	50		 push	 eax
  00014	8b 4d fc	 mov	 ecx, DWORD PTR _this$[ebp]
  00017	8b 11		 mov	 edx, DWORD PTR [ecx]
  00019	8b 45 fc	 mov	 eax, DWORD PTR _this$[ebp]
  0001c	50		 push	 eax
  0001d	8b 8a 88 00 00
	00		 mov	 ecx, DWORD PTR [edx+136]
  00023	ff d1		 call	 ecx
  00025	89 45 f8	 mov	 DWORD PTR __hr$[ebp], eax

; 1356 :     if (FAILED(_hr)) _com_issue_errorex(_hr, this, __uuidof(this));

  00028	83 7d f8 00	 cmp	 DWORD PTR __hr$[ebp], 0
  0002c	7d 12		 jge	 SHORT $LN2@GetState
  0002e	68 00 00 00 00	 push	 OFFSET __GUID_00000515_0000_0010_8000_00aa006d2ea4
  00033	8b 55 fc	 mov	 edx, DWORD PTR _this$[ebp]
  00036	52		 push	 edx
  00037	8b 45 f8	 mov	 eax, DWORD PTR __hr$[ebp]
  0003a	50		 push	 eax
  0003b	e8 00 00 00 00	 call	 ?_com_issue_errorex@@YGXJPAUIUnknown@@ABU_GUID@@@Z ; _com_issue_errorex
$LN2@GetState:

; 1357 :     return _result;

  00040	8b 45 f4	 mov	 eax, DWORD PTR __result$[ebp]

; 1358 : }

  00043	8b e5		 mov	 esp, ebp
  00045	5d		 pop	 ebp
  00046	c3		 ret	 0
?GetState@Connection15@ADOCG@@QAEJXZ ENDP		; ADOCG::Connection15::GetState
_TEXT	ENDS
; Function compile flags: /Odtp
; File g:\网狐\happygamewh\服务端\中间目录\内核引擎\debug_ansi\msado15.tli
;	COMDAT ?PutCursorLocation@Connection15@ADOCG@@QAEXW4CursorLocationEnum@2@@Z
_TEXT	SEGMENT
__hr$ = -8						; size = 4
_this$ = -4						; size = 4
_plCursorLoc$ = 8					; size = 4
?PutCursorLocation@Connection15@ADOCG@@QAEXW4CursorLocationEnum@2@@Z PROC ; ADOCG::Connection15::PutCursorLocation, COMDAT
; _this$ = ecx

; 1324 : inline void Connection15::PutCursorLocation ( enum CursorLocationEnum plCursorLoc ) {

  00000	55		 push	 ebp
  00001	8b ec		 mov	 ebp, esp
  00003	83 ec 08	 sub	 esp, 8
  00006	89 4d fc	 mov	 DWORD PTR _this$[ebp], ecx

; 1325 :     HRESULT _hr = put_CursorLocation(plCursorLoc);

  00009	8b 45 08	 mov	 eax, DWORD PTR _plCursorLoc$[ebp]
  0000c	50		 push	 eax
  0000d	8b 4d fc	 mov	 ecx, DWORD PTR _this$[ebp]
  00010	8b 11		 mov	 edx, DWORD PTR [ecx]
  00012	8b 45 fc	 mov	 eax, DWORD PTR _this$[ebp]
  00015	50		 push	 eax
  00016	8b 4a 74	 mov	 ecx, DWORD PTR [edx+116]
  00019	ff d1		 call	 ecx
  0001b	89 45 f8	 mov	 DWORD PTR __hr$[ebp], eax

; 1326 :     if (FAILED(_hr)) _com_issue_errorex(_hr, this, __uuidof(this));

  0001e	83 7d f8 00	 cmp	 DWORD PTR __hr$[ebp], 0
  00022	7d 12		 jge	 SHORT $LN1@PutCursorL
  00024	68 00 00 00 00	 push	 OFFSET __GUID_00000515_0000_0010_8000_00aa006d2ea4
  00029	8b 55 fc	 mov	 edx, DWORD PTR _this$[ebp]
  0002c	52		 push	 edx
  0002d	8b 45 f8	 mov	 eax, DWORD PTR __hr$[ebp]
  00030	50		 push	 eax
  00031	e8 00 00 00 00	 call	 ?_com_issue_errorex@@YGXJPAUIUnknown@@ABU_GUID@@@Z ; _com_issue_errorex
$LN1@PutCursorL:

; 1327 : }

  00036	8b e5		 mov	 esp, ebp
  00038	5d		 pop	 ebp
  00039	c2 04 00	 ret	 4
?PutCursorLocation@Connection15@ADOCG@@QAEXW4CursorLocationEnum@2@@Z ENDP ; ADOCG::Connection15::PutCursorLocation
_TEXT	ENDS
; Function compile flags: /Odtp
; File g:\网狐\happygamewh\服务端\中间目录\内核引擎\debug_ansi\msado15.tli
; File c:\program files (x86)\microsoft visual studio\2017\community\vc\tools\msvc\14.16.27023\include\comip.h
; File g:\网狐\happygamewh\服务端\中间目录\内核引擎\debug_ansi\msado15.tli
;	COMDAT ?GetErrors@Connection15@ADOCG@@QAE?AV?$_com_ptr_t@V?$_com_IIID@UErrors@ADOCG@@$1?_GUID_00000501_0000_0010_8000_00aa006d2ea4@@3U__s_GUID@@B@@@@XZ
_TEXT	SEGMENT
_pInterface$ = -20					; size = 4
$T1 = -16						; size = 4
__result$ = -12						; size = 4
__hr$ = -8						; size = 4
_this$ = -4						; size = 4
___$ReturnUdt$ = 8					; size = 4
?GetErrors@Connection15@ADOCG@@QAE?AV?$_com_ptr_t@V?$_com_IIID@UErrors@ADOCG@@$1?_GUID_00000501_0000_0010_8000_00aa006d2ea4@@3U__s_GUID@@B@@@@XZ PROC ; ADOCG::Connection15::GetErrors, COMDAT
; _this$ = ecx

; 1274 : inline ErrorsPtr Connection15::GetErrors ( ) {

  00000	55		 push	 ebp
  00001	8b ec		 mov	 ebp, esp
  00003	83 ec 14	 sub	 esp, 20			; 00000014H
  00006	89 4d fc	 mov	 DWORD PTR _this$[ebp], ecx
  00009	c7 45 f0 00 00
	00 00		 mov	 DWORD PTR $T1[ebp], 0

; 1275 :     struct Errors * _result = 0;

  00010	c7 45 f4 00 00
	00 00		 mov	 DWORD PTR __result$[ebp], 0

; 1276 :     HRESULT _hr = get_Errors(&_result);

  00017	8d 45 f4	 lea	 eax, DWORD PTR __result$[ebp]
  0001a	50		 push	 eax
  0001b	8b 4d fc	 mov	 ecx, DWORD PTR _this$[ebp]
  0001e	8b 11		 mov	 edx, DWORD PTR [ecx]
  00020	8b 45 fc	 mov	 eax, DWORD PTR _this$[ebp]
  00023	50		 push	 eax
  00024	8b 4a 54	 mov	 ecx, DWORD PTR [edx+84]
  00027	ff d1		 call	 ecx
  00029	89 45 f8	 mov	 DWORD PTR __hr$[ebp], eax

; 1277 :     if (FAILED(_hr)) _com_issue_errorex(_hr, this, __uuidof(this));

  0002c	83 7d f8 00	 cmp	 DWORD PTR __hr$[ebp], 0
  00030	7d 12		 jge	 SHORT $LN2@GetErrors
  00032	68 00 00 00 00	 push	 OFFSET __GUID_00000515_0000_0010_8000_00aa006d2ea4
  00037	8b 55 fc	 mov	 edx, DWORD PTR _this$[ebp]
  0003a	52		 push	 edx
  0003b	8b 45 f8	 mov	 eax, DWORD PTR __hr$[ebp]
  0003e	50		 push	 eax
  0003f	e8 00 00 00 00	 call	 ?_com_issue_errorex@@YGXJPAUIUnknown@@ABU_GUID@@@Z ; _com_issue_errorex
$LN2@GetErrors:

; 1278 :     return ErrorsPtr(_result, false);

  00044	8b 4d f4	 mov	 ecx, DWORD PTR __result$[ebp]
  00047	89 4d ec	 mov	 DWORD PTR _pInterface$[ebp], ecx
; File c:\program files (x86)\microsoft visual studio\2017\community\vc\tools\msvc\14.16.27023\include\comip.h

; 184  :         : m_pInterface(pInterface)

  0004a	8b 55 08	 mov	 edx, DWORD PTR ___$ReturnUdt$[ebp]
  0004d	8b 45 ec	 mov	 eax, DWORD PTR _pInterface$[ebp]
  00050	89 02		 mov	 DWORD PTR [edx], eax

; 185  :     {
; 186  :         if (fAddRef) {

  00052	33 c9		 xor	 ecx, ecx
  00054	74 1a		 je	 SHORT $LN6@GetErrors

; 826  :         if (m_pInterface != NULL) {

  00056	8b 55 08	 mov	 edx, DWORD PTR ___$ReturnUdt$[ebp]
  00059	83 3a 00	 cmp	 DWORD PTR [edx], 0
  0005c	74 12		 je	 SHORT $LN6@GetErrors

; 827  :             m_pInterface->AddRef();

  0005e	8b 45 08	 mov	 eax, DWORD PTR ___$ReturnUdt$[ebp]
  00061	8b 08		 mov	 ecx, DWORD PTR [eax]
  00063	8b 55 08	 mov	 edx, DWORD PTR ___$ReturnUdt$[ebp]
  00066	8b 02		 mov	 eax, DWORD PTR [edx]
  00068	8b 09		 mov	 ecx, DWORD PTR [ecx]
  0006a	50		 push	 eax
  0006b	8b 51 04	 mov	 edx, DWORD PTR [ecx+4]
  0006e	ff d2		 call	 edx
$LN6@GetErrors:
; File g:\网狐\happygamewh\服务端\中间目录\内核引擎\debug_ansi\msado15.tli

; 1278 :     return ErrorsPtr(_result, false);

  00070	8b 45 f0	 mov	 eax, DWORD PTR $T1[ebp]
  00073	83 c8 01	 or	 eax, 1
  00076	89 45 f0	 mov	 DWORD PTR $T1[ebp], eax
  00079	8b 45 08	 mov	 eax, DWORD PTR ___$ReturnUdt$[ebp]

; 1279 : }

  0007c	8b e5		 mov	 esp, ebp
  0007e	5d		 pop	 ebp
  0007f	c2 04 00	 ret	 4
?GetErrors@Connection15@ADOCG@@QAE?AV?$_com_ptr_t@V?$_com_IIID@UErrors@ADOCG@@$1?_GUID_00000501_0000_0010_8000_00aa006d2ea4@@3U__s_GUID@@B@@@@XZ ENDP ; ADOCG::Connection15::GetErrors
_TEXT	ENDS
; Function compile flags: /Odtp
; File g:\网狐\happygamewh\服务端\中间目录\内核引擎\debug_ansi\msado15.tli
; File c:\program files (x86)\microsoft visual studio\2017\community\vc\tools\msvc\14.16.27023\include\comutil.h
; File g:\网狐\happygamewh\服务端\中间目录\内核引擎\debug_ansi\msado15.tli
; File c:\program files (x86)\microsoft visual studio\2017\community\vc\tools\msvc\14.16.27023\include\comutil.h
; File g:\网狐\happygamewh\服务端\中间目录\内核引擎\debug_ansi\msado15.tli
; File c:\program files (x86)\microsoft visual studio\2017\community\vc\tools\msvc\14.16.27023\include\comutil.h
; File g:\网狐\happygamewh\服务端\中间目录\内核引擎\debug_ansi\msado15.tli
; File c:\program files (x86)\microsoft visual studio\2017\community\vc\tools\msvc\14.16.27023\include\comutil.h
; File g:\网狐\happygamewh\服务端\中间目录\内核引擎\debug_ansi\msado15.tli
;	COMDAT ?Open@Connection15@ADOCG@@QAEJV_bstr_t@@00J@Z
_TEXT	SEGMENT
$T2 = -36						; size = 4
tv142 = -32						; size = 4
tv137 = -28						; size = 4
tv132 = -24						; size = 4
__hr$ = -20						; size = 4
_this$ = -16						; size = 4
__$EHRec$ = -12						; size = 12
_ConnectionString$ = 8					; size = 4
_UserID$ = 12						; size = 4
_Password$ = 16						; size = 4
_Options$ = 20						; size = 4
?Open@Connection15@ADOCG@@QAEJV_bstr_t@@00J@Z PROC	; ADOCG::Connection15::Open, COMDAT
; _this$ = ecx

; 1268 : inline HRESULT Connection15::Open ( _bstr_t ConnectionString, _bstr_t UserID, _bstr_t Password, long Options ) {

  00000	55		 push	 ebp
  00001	8b ec		 mov	 ebp, esp
  00003	6a ff		 push	 -1
  00005	68 00 00 00 00	 push	 __ehhandler$?Open@Connection15@ADOCG@@QAEJV_bstr_t@@00J@Z
  0000a	64 a1 00 00 00
	00		 mov	 eax, DWORD PTR fs:0
  00010	50		 push	 eax
  00011	83 ec 18	 sub	 esp, 24			; 00000018H
  00014	a1 00 00 00 00	 mov	 eax, DWORD PTR ___security_cookie
  00019	33 c5		 xor	 eax, ebp
  0001b	50		 push	 eax
  0001c	8d 45 f4	 lea	 eax, DWORD PTR __$EHRec$[ebp]
  0001f	64 a3 00 00 00
	00		 mov	 DWORD PTR fs:0, eax
  00025	89 4d f0	 mov	 DWORD PTR _this$[ebp], ecx
  00028	c7 45 fc 02 00
	00 00		 mov	 DWORD PTR __$EHRec$[ebp+8], 2
; File c:\program files (x86)\microsoft visual studio\2017\community\vc\tools\msvc\14.16.27023\include\comutil.h

; 479  :     return const_cast<wchar_t*>((m_Data != NULL) ? m_Data->GetWString() : NULL);

  0002f	83 7d 10 00	 cmp	 DWORD PTR _Password$[ebp], 0
  00033	74 0a		 je	 SHORT $LN9@Open
  00035	8b 45 10	 mov	 eax, DWORD PTR _Password$[ebp]
  00038	8b 08		 mov	 ecx, DWORD PTR [eax]
  0003a	89 4d e8	 mov	 DWORD PTR tv132[ebp], ecx
  0003d	eb 07		 jmp	 SHORT $LN7@Open
$LN9@Open:
  0003f	c7 45 e8 00 00
	00 00		 mov	 DWORD PTR tv132[ebp], 0
$LN7@Open:
  00046	83 7d 0c 00	 cmp	 DWORD PTR _UserID$[ebp], 0
  0004a	74 0a		 je	 SHORT $LN15@Open
  0004c	8b 55 0c	 mov	 edx, DWORD PTR _UserID$[ebp]
  0004f	8b 02		 mov	 eax, DWORD PTR [edx]
  00051	89 45 e4	 mov	 DWORD PTR tv137[ebp], eax
  00054	eb 07		 jmp	 SHORT $LN13@Open
$LN15@Open:
  00056	c7 45 e4 00 00
	00 00		 mov	 DWORD PTR tv137[ebp], 0
$LN13@Open:
  0005d	83 7d 08 00	 cmp	 DWORD PTR _ConnectionString$[ebp], 0
  00061	74 0a		 je	 SHORT $LN21@Open
  00063	8b 4d 08	 mov	 ecx, DWORD PTR _ConnectionString$[ebp]
  00066	8b 11		 mov	 edx, DWORD PTR [ecx]
  00068	89 55 e0	 mov	 DWORD PTR tv142[ebp], edx
  0006b	eb 07		 jmp	 SHORT $LN19@Open
$LN21@Open:
  0006d	c7 45 e0 00 00
	00 00		 mov	 DWORD PTR tv142[ebp], 0
$LN19@Open:
; File g:\网狐\happygamewh\服务端\中间目录\内核引擎\debug_ansi\msado15.tli

; 1269 :     HRESULT _hr = raw_Open(ConnectionString, UserID, Password, Options);

  00074	8b 45 14	 mov	 eax, DWORD PTR _Options$[ebp]
  00077	50		 push	 eax
  00078	8b 4d e8	 mov	 ecx, DWORD PTR tv132[ebp]
  0007b	51		 push	 ecx
  0007c	8b 55 e4	 mov	 edx, DWORD PTR tv137[ebp]
  0007f	52		 push	 edx
  00080	8b 45 e0	 mov	 eax, DWORD PTR tv142[ebp]
  00083	50		 push	 eax
  00084	8b 4d f0	 mov	 ecx, DWORD PTR _this$[ebp]
  00087	8b 11		 mov	 edx, DWORD PTR [ecx]
  00089	8b 45 f0	 mov	 eax, DWORD PTR _this$[ebp]
  0008c	50		 push	 eax
  0008d	8b 4a 50	 mov	 ecx, DWORD PTR [edx+80]
  00090	ff d1		 call	 ecx
  00092	89 45 ec	 mov	 DWORD PTR __hr$[ebp], eax

; 1270 :     if (FAILED(_hr)) _com_issue_errorex(_hr, this, __uuidof(this));

  00095	83 7d ec 00	 cmp	 DWORD PTR __hr$[ebp], 0
  00099	7d 12		 jge	 SHORT $LN2@Open
  0009b	68 00 00 00 00	 push	 OFFSET __GUID_00000515_0000_0010_8000_00aa006d2ea4
  000a0	8b 55 f0	 mov	 edx, DWORD PTR _this$[ebp]
  000a3	52		 push	 edx
  000a4	8b 45 ec	 mov	 eax, DWORD PTR __hr$[ebp]
  000a7	50		 push	 eax
  000a8	e8 00 00 00 00	 call	 ?_com_issue_errorex@@YGXJPAUIUnknown@@ABU_GUID@@@Z ; _com_issue_errorex
$LN2@Open:

; 1271 :     return _hr;

  000ad	8b 4d ec	 mov	 ecx, DWORD PTR __hr$[ebp]
  000b0	89 4d dc	 mov	 DWORD PTR $T2[ebp], ecx
  000b3	c6 45 fc 01	 mov	 BYTE PTR __$EHRec$[ebp+8], 1
; File c:\program files (x86)\microsoft visual studio\2017\community\vc\tools\msvc\14.16.27023\include\comutil.h

; 637  :     if (m_Data != NULL) {

  000b7	83 7d 08 00	 cmp	 DWORD PTR _ConnectionString$[ebp], 0
  000bb	74 0f		 je	 SHORT $LN25@Open

; 638  :         m_Data->Release();

  000bd	8b 4d 08	 mov	 ecx, DWORD PTR _ConnectionString$[ebp]
  000c0	e8 00 00 00 00	 call	 ?Release@Data_t@_bstr_t@@QAEKXZ ; _bstr_t::Data_t::Release

; 639  :         m_Data = NULL;

  000c5	c7 45 08 00 00
	00 00		 mov	 DWORD PTR _ConnectionString$[ebp], 0
$LN25@Open:
; File g:\网狐\happygamewh\服务端\中间目录\内核引擎\debug_ansi\msado15.tli

; 1271 :     return _hr;

  000cc	c6 45 fc 00	 mov	 BYTE PTR __$EHRec$[ebp+8], 0
; File c:\program files (x86)\microsoft visual studio\2017\community\vc\tools\msvc\14.16.27023\include\comutil.h

; 637  :     if (m_Data != NULL) {

  000d0	83 7d 0c 00	 cmp	 DWORD PTR _UserID$[ebp], 0
  000d4	74 0f		 je	 SHORT $LN44@Open

; 638  :         m_Data->Release();

  000d6	8b 4d 0c	 mov	 ecx, DWORD PTR _UserID$[ebp]
  000d9	e8 00 00 00 00	 call	 ?Release@Data_t@_bstr_t@@QAEKXZ ; _bstr_t::Data_t::Release

; 639  :         m_Data = NULL;

  000de	c7 45 0c 00 00
	00 00		 mov	 DWORD PTR _UserID$[ebp], 0
$LN44@Open:
; File g:\网狐\happygamewh\服务端\中间目录\内核引擎\debug_ansi\msado15.tli

; 1271 :     return _hr;

  000e5	c7 45 fc ff ff
	ff ff		 mov	 DWORD PTR __$EHRec$[ebp+8], -1
; File c:\program files (x86)\microsoft visual studio\2017\community\vc\tools\msvc\14.16.27023\include\comutil.h

; 637  :     if (m_Data != NULL) {

  000ec	83 7d 10 00	 cmp	 DWORD PTR _Password$[ebp], 0
  000f0	74 0f		 je	 SHORT $LN63@Open

; 638  :         m_Data->Release();

  000f2	8b 4d 10	 mov	 ecx, DWORD PTR _Password$[ebp]
  000f5	e8 00 00 00 00	 call	 ?Release@Data_t@_bstr_t@@QAEKXZ ; _bstr_t::Data_t::Release

; 639  :         m_Data = NULL;

  000fa	c7 45 10 00 00
	00 00		 mov	 DWORD PTR _Password$[ebp], 0
$LN63@Open:
; File g:\网狐\happygamewh\服务端\中间目录\内核引擎\debug_ansi\msado15.tli

; 1271 :     return _hr;

  00101	8b 45 dc	 mov	 eax, DWORD PTR $T2[ebp]

; 1272 : }

  00104	8b 4d f4	 mov	 ecx, DWORD PTR __$EHRec$[ebp]
  00107	64 89 0d 00 00
	00 00		 mov	 DWORD PTR fs:0, ecx
  0010e	59		 pop	 ecx
  0010f	8b e5		 mov	 esp, ebp
  00111	5d		 pop	 ebp
  00112	c2 10 00	 ret	 16			; 00000010H
_TEXT	ENDS
;	COMDAT text$x
text$x	SEGMENT
__unwindfunclet$?Open@Connection15@ADOCG@@QAEJV_bstr_t@@00J@Z$0:
  00000	8d 4d 10	 lea	 ecx, DWORD PTR _Password$[ebp]
  00003	e9 00 00 00 00	 jmp	 ??1_bstr_t@@QAE@XZ	; _bstr_t::~_bstr_t
__unwindfunclet$?Open@Connection15@ADOCG@@QAEJV_bstr_t@@00J@Z$1:
  00008	8d 4d 0c	 lea	 ecx, DWORD PTR _UserID$[ebp]
  0000b	e9 00 00 00 00	 jmp	 ??1_bstr_t@@QAE@XZ	; _bstr_t::~_bstr_t
__unwindfunclet$?Open@Connection15@ADOCG@@QAEJV_bstr_t@@00J@Z$2:
  00010	8d 4d 08	 lea	 ecx, DWORD PTR _ConnectionString$[ebp]
  00013	e9 00 00 00 00	 jmp	 ??1_bstr_t@@QAE@XZ	; _bstr_t::~_bstr_t
__ehhandler$?Open@Connection15@ADOCG@@QAEJV_bstr_t@@00J@Z:
  00018	8b 54 24 08	 mov	 edx, DWORD PTR [esp+8]
  0001c	8d 42 0c	 lea	 eax, DWORD PTR [edx+12]
  0001f	8b 4a e4	 mov	 ecx, DWORD PTR [edx-28]
  00022	33 c8		 xor	 ecx, eax
  00024	e8 00 00 00 00	 call	 @__security_check_cookie@4
  00029	b8 00 00 00 00	 mov	 eax, OFFSET __ehfuncinfo$?Open@Connection15@ADOCG@@QAEJV_bstr_t@@00J@Z
  0002e	e9 00 00 00 00	 jmp	 ___CxxFrameHandler3
text$x	ENDS
?Open@Connection15@ADOCG@@QAEJV_bstr_t@@00J@Z ENDP	; ADOCG::Connection15::Open
; Function compile flags: /Odtp
; File g:\网狐\happygamewh\服务端\中间目录\内核引擎\debug_ansi\msado15.tli
; File c:\program files (x86)\microsoft visual studio\2017\community\vc\tools\msvc\14.16.27023\include\comutil.h
; File g:\网狐\happygamewh\服务端\中间目录\内核引擎\debug_ansi\msado15.tli
; File c:\program files (x86)\microsoft visual studio\2017\community\vc\tools\msvc\14.16.27023\include\comip.h
; File g:\网狐\happygamewh\服务端\中间目录\内核引擎\debug_ansi\msado15.tli
; File c:\program files (x86)\microsoft visual studio\2017\community\vc\tools\msvc\14.16.27023\include\comutil.h
; File g:\网狐\happygamewh\服务端\中间目录\内核引擎\debug_ansi\msado15.tli
;	COMDAT ?Execute@Connection15@ADOCG@@QAE?AV?$_com_ptr_t@V?$_com_IIID@U_Recordset@ADOCG@@$1?_GUID_00000556_0000_0010_8000_00aa006d2ea4@@3U__s_GUID@@B@@@@V_bstr_t@@PAUtagVARIANT@@J@Z
_TEXT	SEGMENT
_pInterface$ = -36					; size = 4
$T2 = -32						; size = 4
__result$ = -28						; size = 4
__hr$ = -24						; size = 4
tv131 = -20						; size = 4
_this$ = -16						; size = 4
__$EHRec$ = -12						; size = 12
___$ReturnUdt$ = 8					; size = 4
_CommandText$ = 12					; size = 4
_RecordsAffected$ = 16					; size = 4
_Options$ = 20						; size = 4
?Execute@Connection15@ADOCG@@QAE?AV?$_com_ptr_t@V?$_com_IIID@U_Recordset@ADOCG@@$1?_GUID_00000556_0000_0010_8000_00aa006d2ea4@@3U__s_GUID@@B@@@@V_bstr_t@@PAUtagVARIANT@@J@Z PROC ; ADOCG::Connection15::Execute, COMDAT
; _this$ = ecx

; 1242 : inline _RecordsetPtr Connection15::Execute ( _bstr_t CommandText, VARIANT * RecordsAffected, long Options ) {

  00000	55		 push	 ebp
  00001	8b ec		 mov	 ebp, esp
  00003	6a ff		 push	 -1
  00005	68 00 00 00 00	 push	 __ehhandler$?Execute@Connection15@ADOCG@@QAE?AV?$_com_ptr_t@V?$_com_IIID@U_Recordset@ADOCG@@$1?_GUID_00000556_0000_0010_8000_00aa006d2ea4@@3U__s_GUID@@B@@@@V_bstr_t@@PAUtagVARIANT@@J@Z
  0000a	64 a1 00 00 00
	00		 mov	 eax, DWORD PTR fs:0
  00010	50		 push	 eax
  00011	83 ec 18	 sub	 esp, 24			; 00000018H
  00014	a1 00 00 00 00	 mov	 eax, DWORD PTR ___security_cookie
  00019	33 c5		 xor	 eax, ebp
  0001b	50		 push	 eax
  0001c	8d 45 f4	 lea	 eax, DWORD PTR __$EHRec$[ebp]
  0001f	64 a3 00 00 00
	00		 mov	 DWORD PTR fs:0, eax
  00025	89 4d f0	 mov	 DWORD PTR _this$[ebp], ecx
  00028	c7 45 e0 00 00
	00 00		 mov	 DWORD PTR $T2[ebp], 0
  0002f	c7 45 fc 00 00
	00 00		 mov	 DWORD PTR __$EHRec$[ebp+8], 0

; 1243 :     struct _Recordset * _result = 0;

  00036	c7 45 e4 00 00
	00 00		 mov	 DWORD PTR __result$[ebp], 0
; File c:\program files (x86)\microsoft visual studio\2017\community\vc\tools\msvc\14.16.27023\include\comutil.h

; 479  :     return const_cast<wchar_t*>((m_Data != NULL) ? m_Data->GetWString() : NULL);

  0003d	83 7d 0c 00	 cmp	 DWORD PTR _CommandText$[ebp], 0
  00041	74 0a		 je	 SHORT $LN9@Execute
  00043	8b 45 0c	 mov	 eax, DWORD PTR _CommandText$[ebp]
  00046	8b 08		 mov	 ecx, DWORD PTR [eax]
  00048	89 4d ec	 mov	 DWORD PTR tv131[ebp], ecx
  0004b	eb 07		 jmp	 SHORT $LN7@Execute
$LN9@Execute:
  0004d	c7 45 ec 00 00
	00 00		 mov	 DWORD PTR tv131[ebp], 0
$LN7@Execute:
; File g:\网狐\happygamewh\服务端\中间目录\内核引擎\debug_ansi\msado15.tli

; 1244 :     HRESULT _hr = raw_Execute(CommandText, RecordsAffected, Options, &_result);

  00054	8d 55 e4	 lea	 edx, DWORD PTR __result$[ebp]
  00057	52		 push	 edx
  00058	8b 45 14	 mov	 eax, DWORD PTR _Options$[ebp]
  0005b	50		 push	 eax
  0005c	8b 4d 10	 mov	 ecx, DWORD PTR _RecordsAffected$[ebp]
  0005f	51		 push	 ecx
  00060	8b 55 ec	 mov	 edx, DWORD PTR tv131[ebp]
  00063	52		 push	 edx
  00064	8b 45 f0	 mov	 eax, DWORD PTR _this$[ebp]
  00067	8b 08		 mov	 ecx, DWORD PTR [eax]
  00069	8b 55 f0	 mov	 edx, DWORD PTR _this$[ebp]
  0006c	52		 push	 edx
  0006d	8b 41 40	 mov	 eax, DWORD PTR [ecx+64]
  00070	ff d0		 call	 eax
  00072	89 45 e8	 mov	 DWORD PTR __hr$[ebp], eax

; 1245 :     if (FAILED(_hr)) _com_issue_errorex(_hr, this, __uuidof(this));

  00075	83 7d e8 00	 cmp	 DWORD PTR __hr$[ebp], 0
  00079	7d 12		 jge	 SHORT $LN2@Execute
  0007b	68 00 00 00 00	 push	 OFFSET __GUID_00000515_0000_0010_8000_00aa006d2ea4
  00080	8b 4d f0	 mov	 ecx, DWORD PTR _this$[ebp]
  00083	51		 push	 ecx
  00084	8b 55 e8	 mov	 edx, DWORD PTR __hr$[ebp]
  00087	52		 push	 edx
  00088	e8 00 00 00 00	 call	 ?_com_issue_errorex@@YGXJPAUIUnknown@@ABU_GUID@@@Z ; _com_issue_errorex
$LN2@Execute:

; 1246 :     return _RecordsetPtr(_result, false);

  0008d	8b 45 e4	 mov	 eax, DWORD PTR __result$[ebp]
  00090	89 45 dc	 mov	 DWORD PTR _pInterface$[ebp], eax
; File c:\program files (x86)\microsoft visual studio\2017\community\vc\tools\msvc\14.16.27023\include\comip.h

; 184  :         : m_pInterface(pInterface)

  00093	8b 4d 08	 mov	 ecx, DWORD PTR ___$ReturnUdt$[ebp]
  00096	8b 55 dc	 mov	 edx, DWORD PTR _pInterface$[ebp]
  00099	89 11		 mov	 DWORD PTR [ecx], edx

; 185  :     {
; 186  :         if (fAddRef) {

  0009b	33 c0		 xor	 eax, eax
  0009d	74 1a		 je	 SHORT $LN13@Execute

; 826  :         if (m_pInterface != NULL) {

  0009f	8b 4d 08	 mov	 ecx, DWORD PTR ___$ReturnUdt$[ebp]
  000a2	83 39 00	 cmp	 DWORD PTR [ecx], 0
  000a5	74 12		 je	 SHORT $LN13@Execute

; 827  :             m_pInterface->AddRef();

  000a7	8b 55 08	 mov	 edx, DWORD PTR ___$ReturnUdt$[ebp]
  000aa	8b 02		 mov	 eax, DWORD PTR [edx]
  000ac	8b 4d 08	 mov	 ecx, DWORD PTR ___$ReturnUdt$[ebp]
  000af	8b 11		 mov	 edx, DWORD PTR [ecx]
  000b1	8b 00		 mov	 eax, DWORD PTR [eax]
  000b3	52		 push	 edx
  000b4	8b 48 04	 mov	 ecx, DWORD PTR [eax+4]
  000b7	ff d1		 call	 ecx
$LN13@Execute:
; File g:\网狐\happygamewh\服务端\中间目录\内核引擎\debug_ansi\msado15.tli

; 1246 :     return _RecordsetPtr(_result, false);

  000b9	8b 55 e0	 mov	 edx, DWORD PTR $T2[ebp]
  000bc	83 ca 01	 or	 edx, 1
  000bf	89 55 e0	 mov	 DWORD PTR $T2[ebp], edx
  000c2	c7 45 fc ff ff
	ff ff		 mov	 DWORD PTR __$EHRec$[ebp+8], -1
; File c:\program files (x86)\microsoft visual studio\2017\community\vc\tools\msvc\14.16.27023\include\comutil.h

; 637  :     if (m_Data != NULL) {

  000c9	83 7d 0c 00	 cmp	 DWORD PTR _CommandText$[ebp], 0
  000cd	74 0f		 je	 SHORT $LN19@Execute

; 638  :         m_Data->Release();

  000cf	8b 4d 0c	 mov	 ecx, DWORD PTR _CommandText$[ebp]
  000d2	e8 00 00 00 00	 call	 ?Release@Data_t@_bstr_t@@QAEKXZ ; _bstr_t::Data_t::Release

; 639  :         m_Data = NULL;

  000d7	c7 45 0c 00 00
	00 00		 mov	 DWORD PTR _CommandText$[ebp], 0
$LN19@Execute:
; File g:\网狐\happygamewh\服务端\中间目录\内核引擎\debug_ansi\msado15.tli

; 1246 :     return _RecordsetPtr(_result, false);

  000de	8b 45 08	 mov	 eax, DWORD PTR ___$ReturnUdt$[ebp]

; 1247 : }

  000e1	8b 4d f4	 mov	 ecx, DWORD PTR __$EHRec$[ebp]
  000e4	64 89 0d 00 00
	00 00		 mov	 DWORD PTR fs:0, ecx
  000eb	59		 pop	 ecx
  000ec	8b e5		 mov	 esp, ebp
  000ee	5d		 pop	 ebp
  000ef	c2 10 00	 ret	 16			; 00000010H
_TEXT	ENDS
;	COMDAT text$x
text$x	SEGMENT
__unwindfunclet$?Execute@Connection15@ADOCG@@QAE?AV?$_com_ptr_t@V?$_com_IIID@U_Recordset@ADOCG@@$1?_GUID_00000556_0000_0010_8000_00aa006d2ea4@@3U__s_GUID@@B@@@@V_bstr_t@@PAUtagVARIANT@@J@Z$0:
  00000	8d 4d 0c	 lea	 ecx, DWORD PTR _CommandText$[ebp]
  00003	e9 00 00 00 00	 jmp	 ??1_bstr_t@@QAE@XZ	; _bstr_t::~_bstr_t
__ehhandler$?Execute@Connection15@ADOCG@@QAE?AV?$_com_ptr_t@V?$_com_IIID@U_Recordset@ADOCG@@$1?_GUID_00000556_0000_0010_8000_00aa006d2ea4@@3U__s_GUID@@B@@@@V_bstr_t@@PAUtagVARIANT@@J@Z:
  00008	8b 54 24 08	 mov	 edx, DWORD PTR [esp+8]
  0000c	8d 42 0c	 lea	 eax, DWORD PTR [edx+12]
  0000f	8b 4a e4	 mov	 ecx, DWORD PTR [edx-28]
  00012	33 c8		 xor	 ecx, eax
  00014	e8 00 00 00 00	 call	 @__security_check_cookie@4
  00019	b8 00 00 00 00	 mov	 eax, OFFSET __ehfuncinfo$?Execute@Connection15@ADOCG@@QAE?AV?$_com_ptr_t@V?$_com_IIID@U_Recordset@ADOCG@@$1?_GUID_00000556_0000_0010_8000_00aa006d2ea4@@3U__s_GUID@@B@@@@V_bstr_t@@PAUtagVARIANT@@J@Z
  0001e	e9 00 00 00 00	 jmp	 ___CxxFrameHandler3
text$x	ENDS
?Execute@Connection15@ADOCG@@QAE?AV?$_com_ptr_t@V?$_com_IIID@U_Recordset@ADOCG@@$1?_GUID_00000556_0000_0010_8000_00aa006d2ea4@@3U__s_GUID@@B@@@@V_bstr_t@@PAUtagVARIANT@@J@Z ENDP ; ADOCG::Connection15::Execute
; Function compile flags: /Odtp
; File g:\网狐\happygamewh\服务端\中间目录\内核引擎\debug_ansi\msado15.tli
;	COMDAT ?Close@Connection15@ADOCG@@QAEJXZ
_TEXT	SEGMENT
__hr$ = -8						; size = 4
_this$ = -4						; size = 4
?Close@Connection15@ADOCG@@QAEJXZ PROC			; ADOCG::Connection15::Close, COMDAT
; _this$ = ecx

; 1236 : inline HRESULT Connection15::Close ( ) {

  00000	55		 push	 ebp
  00001	8b ec		 mov	 ebp, esp
  00003	83 ec 08	 sub	 esp, 8
  00006	89 4d fc	 mov	 DWORD PTR _this$[ebp], ecx

; 1237 :     HRESULT _hr = raw_Close();

  00009	8b 45 fc	 mov	 eax, DWORD PTR _this$[ebp]
  0000c	8b 08		 mov	 ecx, DWORD PTR [eax]
  0000e	8b 55 fc	 mov	 edx, DWORD PTR _this$[ebp]
  00011	52		 push	 edx
  00012	8b 41 3c	 mov	 eax, DWORD PTR [ecx+60]
  00015	ff d0		 call	 eax
  00017	89 45 f8	 mov	 DWORD PTR __hr$[ebp], eax

; 1238 :     if (FAILED(_hr)) _com_issue_errorex(_hr, this, __uuidof(this));

  0001a	83 7d f8 00	 cmp	 DWORD PTR __hr$[ebp], 0
  0001e	7d 12		 jge	 SHORT $LN2@Close
  00020	68 00 00 00 00	 push	 OFFSET __GUID_00000515_0000_0010_8000_00aa006d2ea4
  00025	8b 4d fc	 mov	 ecx, DWORD PTR _this$[ebp]
  00028	51		 push	 ecx
  00029	8b 55 f8	 mov	 edx, DWORD PTR __hr$[ebp]
  0002c	52		 push	 edx
  0002d	e8 00 00 00 00	 call	 ?_com_issue_errorex@@YGXJPAUIUnknown@@ABU_GUID@@@Z ; _com_issue_errorex
$LN2@Close:

; 1239 :     return _hr;

  00032	8b 45 f8	 mov	 eax, DWORD PTR __hr$[ebp]

; 1240 : }

  00035	8b e5		 mov	 esp, ebp
  00037	5d		 pop	 ebp
  00038	c3		 ret	 0
?Close@Connection15@ADOCG@@QAEJXZ ENDP			; ADOCG::Connection15::Close
_TEXT	ENDS
; Function compile flags: /Odtp
; File g:\网狐\happygamewh\服务端\中间目录\内核引擎\debug_ansi\msado15.tli
;	COMDAT ?PutCommandType@Command15@ADOCG@@QAEXW4CommandTypeEnum@2@@Z
_TEXT	SEGMENT
__hr$ = -8						; size = 4
_this$ = -4						; size = 4
_plCmdType$ = 8						; size = 4
?PutCommandType@Command15@ADOCG@@QAEXW4CommandTypeEnum@2@@Z PROC ; ADOCG::Command15::PutCommandType, COMDAT
; _this$ = ecx

; 1107 : inline void Command15::PutCommandType ( enum CommandTypeEnum plCmdType ) {

  00000	55		 push	 ebp
  00001	8b ec		 mov	 ebp, esp
  00003	83 ec 08	 sub	 esp, 8
  00006	89 4d fc	 mov	 DWORD PTR _this$[ebp], ecx

; 1108 :     HRESULT _hr = put_CommandType(plCmdType);

  00009	8b 45 08	 mov	 eax, DWORD PTR _plCmdType$[ebp]
  0000c	50		 push	 eax
  0000d	8b 4d fc	 mov	 ecx, DWORD PTR _this$[ebp]
  00010	8b 11		 mov	 edx, DWORD PTR [ecx]
  00012	8b 45 fc	 mov	 eax, DWORD PTR _this$[ebp]
  00015	50		 push	 eax
  00016	8b 4a 50	 mov	 ecx, DWORD PTR [edx+80]
  00019	ff d1		 call	 ecx
  0001b	89 45 f8	 mov	 DWORD PTR __hr$[ebp], eax

; 1109 :     if (FAILED(_hr)) _com_issue_errorex(_hr, this, __uuidof(this));

  0001e	83 7d f8 00	 cmp	 DWORD PTR __hr$[ebp], 0
  00022	7d 12		 jge	 SHORT $LN1@PutCommand
  00024	68 00 00 00 00	 push	 OFFSET __GUID_00000508_0000_0010_8000_00aa006d2ea4
  00029	8b 55 fc	 mov	 edx, DWORD PTR _this$[ebp]
  0002c	52		 push	 edx
  0002d	8b 45 f8	 mov	 eax, DWORD PTR __hr$[ebp]
  00030	50		 push	 eax
  00031	e8 00 00 00 00	 call	 ?_com_issue_errorex@@YGXJPAUIUnknown@@ABU_GUID@@@Z ; _com_issue_errorex
$LN1@PutCommand:

; 1110 : }

  00036	8b e5		 mov	 esp, ebp
  00038	5d		 pop	 ebp
  00039	c2 04 00	 ret	 4
?PutCommandType@Command15@ADOCG@@QAEXW4CommandTypeEnum@2@@Z ENDP ; ADOCG::Command15::PutCommandType
_TEXT	ENDS
; Function compile flags: /Odtp
; File g:\网狐\happygamewh\服务端\中间目录\内核引擎\debug_ansi\msado15.tli
; File c:\program files (x86)\microsoft visual studio\2017\community\vc\tools\msvc\14.16.27023\include\comip.h
; File g:\网狐\happygamewh\服务端\中间目录\内核引擎\debug_ansi\msado15.tli
;	COMDAT ?GetParameters@Command15@ADOCG@@QAE?AV?$_com_ptr_t@V?$_com_IIID@UParameters@ADOCG@@$1?_GUID_0000050d_0000_0010_8000_00aa006d2ea4@@3U__s_GUID@@B@@@@XZ
_TEXT	SEGMENT
_pInterface$ = -20					; size = 4
$T1 = -16						; size = 4
__result$ = -12						; size = 4
__hr$ = -8						; size = 4
_this$ = -4						; size = 4
___$ReturnUdt$ = 8					; size = 4
?GetParameters@Command15@ADOCG@@QAE?AV?$_com_ptr_t@V?$_com_IIID@UParameters@ADOCG@@$1?_GUID_0000050d_0000_0010_8000_00aa006d2ea4@@3U__s_GUID@@B@@@@XZ PROC ; ADOCG::Command15::GetParameters, COMDAT
; _this$ = ecx

; 1100 : inline ParametersPtr Command15::GetParameters ( ) {

  00000	55		 push	 ebp
  00001	8b ec		 mov	 ebp, esp
  00003	83 ec 14	 sub	 esp, 20			; 00000014H
  00006	89 4d fc	 mov	 DWORD PTR _this$[ebp], ecx
  00009	c7 45 f0 00 00
	00 00		 mov	 DWORD PTR $T1[ebp], 0

; 1101 :     struct Parameters * _result = 0;

  00010	c7 45 f4 00 00
	00 00		 mov	 DWORD PTR __result$[ebp], 0

; 1102 :     HRESULT _hr = get_Parameters(&_result);

  00017	8d 45 f4	 lea	 eax, DWORD PTR __result$[ebp]
  0001a	50		 push	 eax
  0001b	8b 4d fc	 mov	 ecx, DWORD PTR _this$[ebp]
  0001e	8b 11		 mov	 edx, DWORD PTR [ecx]
  00020	8b 45 fc	 mov	 eax, DWORD PTR _this$[ebp]
  00023	50		 push	 eax
  00024	8b 4a 4c	 mov	 ecx, DWORD PTR [edx+76]
  00027	ff d1		 call	 ecx
  00029	89 45 f8	 mov	 DWORD PTR __hr$[ebp], eax

; 1103 :     if (FAILED(_hr)) _com_issue_errorex(_hr, this, __uuidof(this));

  0002c	83 7d f8 00	 cmp	 DWORD PTR __hr$[ebp], 0
  00030	7d 12		 jge	 SHORT $LN2@GetParamet
  00032	68 00 00 00 00	 push	 OFFSET __GUID_00000508_0000_0010_8000_00aa006d2ea4
  00037	8b 55 fc	 mov	 edx, DWORD PTR _this$[ebp]
  0003a	52		 push	 edx
  0003b	8b 45 f8	 mov	 eax, DWORD PTR __hr$[ebp]
  0003e	50		 push	 eax
  0003f	e8 00 00 00 00	 call	 ?_com_issue_errorex@@YGXJPAUIUnknown@@ABU_GUID@@@Z ; _com_issue_errorex
$LN2@GetParamet:

; 1104 :     return ParametersPtr(_result, false);

  00044	8b 4d f4	 mov	 ecx, DWORD PTR __result$[ebp]
  00047	89 4d ec	 mov	 DWORD PTR _pInterface$[ebp], ecx
; File c:\program files (x86)\microsoft visual studio\2017\community\vc\tools\msvc\14.16.27023\include\comip.h

; 184  :         : m_pInterface(pInterface)

  0004a	8b 55 08	 mov	 edx, DWORD PTR ___$ReturnUdt$[ebp]
  0004d	8b 45 ec	 mov	 eax, DWORD PTR _pInterface$[ebp]
  00050	89 02		 mov	 DWORD PTR [edx], eax

; 185  :     {
; 186  :         if (fAddRef) {

  00052	33 c9		 xor	 ecx, ecx
  00054	74 1a		 je	 SHORT $LN6@GetParamet

; 826  :         if (m_pInterface != NULL) {

  00056	8b 55 08	 mov	 edx, DWORD PTR ___$ReturnUdt$[ebp]
  00059	83 3a 00	 cmp	 DWORD PTR [edx], 0
  0005c	74 12		 je	 SHORT $LN6@GetParamet

; 827  :             m_pInterface->AddRef();

  0005e	8b 45 08	 mov	 eax, DWORD PTR ___$ReturnUdt$[ebp]
  00061	8b 08		 mov	 ecx, DWORD PTR [eax]
  00063	8b 55 08	 mov	 edx, DWORD PTR ___$ReturnUdt$[ebp]
  00066	8b 02		 mov	 eax, DWORD PTR [edx]
  00068	8b 09		 mov	 ecx, DWORD PTR [ecx]
  0006a	50		 push	 eax
  0006b	8b 51 04	 mov	 edx, DWORD PTR [ecx+4]
  0006e	ff d2		 call	 edx
$LN6@GetParamet:
; File g:\网狐\happygamewh\服务端\中间目录\内核引擎\debug_ansi\msado15.tli

; 1104 :     return ParametersPtr(_result, false);

  00070	8b 45 f0	 mov	 eax, DWORD PTR $T1[ebp]
  00073	83 c8 01	 or	 eax, 1
  00076	89 45 f0	 mov	 DWORD PTR $T1[ebp], eax
  00079	8b 45 08	 mov	 eax, DWORD PTR ___$ReturnUdt$[ebp]

; 1105 : }

  0007c	8b e5		 mov	 esp, ebp
  0007e	5d		 pop	 ebp
  0007f	c2 04 00	 ret	 4
?GetParameters@Command15@ADOCG@@QAE?AV?$_com_ptr_t@V?$_com_IIID@UParameters@ADOCG@@$1?_GUID_0000050d_0000_0010_8000_00aa006d2ea4@@3U__s_GUID@@B@@@@XZ ENDP ; ADOCG::Command15::GetParameters
_TEXT	ENDS
; Function compile flags: /Odtp
; File g:\网狐\happygamewh\服务端\中间目录\内核引擎\debug_ansi\msado15.tli
; File c:\program files (x86)\microsoft visual studio\2017\community\vc\tools\msvc\14.16.27023\include\comutil.h
; File g:\网狐\happygamewh\服务端\中间目录\内核引擎\debug_ansi\msado15.tli
; File c:\program files (x86)\microsoft visual studio\2017\community\vc\tools\msvc\14.16.27023\include\comip.h
; File g:\网狐\happygamewh\服务端\中间目录\内核引擎\debug_ansi\msado15.tli
; File c:\program files (x86)\microsoft visual studio\2017\community\vc\tools\msvc\14.16.27023\include\comutil.h
; File g:\网狐\happygamewh\服务端\中间目录\内核引擎\debug_ansi\msado15.tli
;	COMDAT ?CreateParameter@Command15@ADOCG@@QAE?AV?$_com_ptr_t@V?$_com_IIID@U_Parameter@ADOCG@@$1?_GUID_0000050c_0000_0010_8000_00aa006d2ea4@@3U__s_GUID@@B@@@@V_bstr_t@@W4DataTypeEnum@2@W4ParameterDirectionEnum@2@JABV_variant_t@@@Z
_TEXT	SEGMENT
$T2 = -52						; size = 16
_pInterface$ = -36					; size = 4
$T3 = -32						; size = 4
__result$ = -28						; size = 4
__hr$ = -24						; size = 4
tv138 = -20						; size = 4
_this$ = -16						; size = 4
__$EHRec$ = -12						; size = 12
___$ReturnUdt$ = 8					; size = 4
_Name$ = 12						; size = 4
_Type$ = 16						; size = 4
_Direction$ = 20					; size = 4
_Size$ = 24						; size = 4
_Value$ = 28						; size = 4
?CreateParameter@Command15@ADOCG@@QAE?AV?$_com_ptr_t@V?$_com_IIID@U_Parameter@ADOCG@@$1?_GUID_0000050c_0000_0010_8000_00aa006d2ea4@@3U__s_GUID@@B@@@@V_bstr_t@@W4DataTypeEnum@2@W4ParameterDirectionEnum@2@JABV_variant_t@@@Z PROC ; ADOCG::Command15::CreateParameter, COMDAT
; _this$ = ecx

; 1093 : inline _ParameterPtr Command15::CreateParameter ( _bstr_t Name, enum DataTypeEnum Type, enum ParameterDirectionEnum Direction, ADO_LONGPTR Size, const _variant_t & Value ) {

  00000	55		 push	 ebp
  00001	8b ec		 mov	 ebp, esp
  00003	6a ff		 push	 -1
  00005	68 00 00 00 00	 push	 __ehhandler$?CreateParameter@Command15@ADOCG@@QAE?AV?$_com_ptr_t@V?$_com_IIID@U_Parameter@ADOCG@@$1?_GUID_0000050c_0000_0010_8000_00aa006d2ea4@@3U__s_GUID@@B@@@@V_bstr_t@@W4DataTypeEnum@2@W4ParameterDirectionEnum@2@JABV_variant_t@@@Z
  0000a	64 a1 00 00 00
	00		 mov	 eax, DWORD PTR fs:0
  00010	50		 push	 eax
  00011	83 ec 28	 sub	 esp, 40			; 00000028H
  00014	a1 00 00 00 00	 mov	 eax, DWORD PTR ___security_cookie
  00019	33 c5		 xor	 eax, ebp
  0001b	50		 push	 eax
  0001c	8d 45 f4	 lea	 eax, DWORD PTR __$EHRec$[ebp]
  0001f	64 a3 00 00 00
	00		 mov	 DWORD PTR fs:0, eax
  00025	89 4d f0	 mov	 DWORD PTR _this$[ebp], ecx
  00028	c7 45 e0 00 00
	00 00		 mov	 DWORD PTR $T3[ebp], 0
  0002f	c7 45 fc 00 00
	00 00		 mov	 DWORD PTR __$EHRec$[ebp+8], 0

; 1094 :     struct _Parameter * _result = 0;

  00036	c7 45 e4 00 00
	00 00		 mov	 DWORD PTR __result$[ebp], 0

; 1095 :     HRESULT _hr = raw_CreateParameter(Name, Type, Direction, Size, Value, &_result);

  0003d	8b 45 1c	 mov	 eax, DWORD PTR _Value$[ebp]
  00040	8b 08		 mov	 ecx, DWORD PTR [eax]
  00042	89 4d cc	 mov	 DWORD PTR $T2[ebp], ecx
  00045	8b 50 04	 mov	 edx, DWORD PTR [eax+4]
  00048	89 55 d0	 mov	 DWORD PTR $T2[ebp+4], edx
  0004b	8b 48 08	 mov	 ecx, DWORD PTR [eax+8]
  0004e	89 4d d4	 mov	 DWORD PTR $T2[ebp+8], ecx
  00051	8b 50 0c	 mov	 edx, DWORD PTR [eax+12]
  00054	89 55 d8	 mov	 DWORD PTR $T2[ebp+12], edx
; File c:\program files (x86)\microsoft visual studio\2017\community\vc\tools\msvc\14.16.27023\include\comutil.h

; 479  :     return const_cast<wchar_t*>((m_Data != NULL) ? m_Data->GetWString() : NULL);

  00057	83 7d 0c 00	 cmp	 DWORD PTR _Name$[ebp], 0
  0005b	74 0a		 je	 SHORT $LN9@CreatePara
  0005d	8b 45 0c	 mov	 eax, DWORD PTR _Name$[ebp]
  00060	8b 08		 mov	 ecx, DWORD PTR [eax]
  00062	89 4d ec	 mov	 DWORD PTR tv138[ebp], ecx
  00065	eb 07		 jmp	 SHORT $LN7@CreatePara
$LN9@CreatePara:
  00067	c7 45 ec 00 00
	00 00		 mov	 DWORD PTR tv138[ebp], 0
$LN7@CreatePara:
; File g:\网狐\happygamewh\服务端\中间目录\内核引擎\debug_ansi\msado15.tli

; 1095 :     HRESULT _hr = raw_CreateParameter(Name, Type, Direction, Size, Value, &_result);

  0006e	8d 55 e4	 lea	 edx, DWORD PTR __result$[ebp]
  00071	52		 push	 edx
  00072	83 ec 10	 sub	 esp, 16			; 00000010H
  00075	8b c4		 mov	 eax, esp
  00077	8b 4d cc	 mov	 ecx, DWORD PTR $T2[ebp]
  0007a	89 08		 mov	 DWORD PTR [eax], ecx
  0007c	8b 55 d0	 mov	 edx, DWORD PTR $T2[ebp+4]
  0007f	89 50 04	 mov	 DWORD PTR [eax+4], edx
  00082	8b 4d d4	 mov	 ecx, DWORD PTR $T2[ebp+8]
  00085	89 48 08	 mov	 DWORD PTR [eax+8], ecx
  00088	8b 55 d8	 mov	 edx, DWORD PTR $T2[ebp+12]
  0008b	89 50 0c	 mov	 DWORD PTR [eax+12], edx
  0008e	8b 45 18	 mov	 eax, DWORD PTR _Size$[ebp]
  00091	50		 push	 eax
  00092	8b 4d 14	 mov	 ecx, DWORD PTR _Direction$[ebp]
  00095	51		 push	 ecx
  00096	8b 55 10	 mov	 edx, DWORD PTR _Type$[ebp]
  00099	52		 push	 edx
  0009a	8b 45 ec	 mov	 eax, DWORD PTR tv138[ebp]
  0009d	50		 push	 eax
  0009e	8b 4d f0	 mov	 ecx, DWORD PTR _this$[ebp]
  000a1	51		 push	 ecx
  000a2	8b 55 f0	 mov	 edx, DWORD PTR _this$[ebp]
  000a5	8b 02		 mov	 eax, DWORD PTR [edx]
  000a7	8b 48 48	 mov	 ecx, DWORD PTR [eax+72]
  000aa	ff d1		 call	 ecx
  000ac	89 45 e8	 mov	 DWORD PTR __hr$[ebp], eax

; 1096 :     if (FAILED(_hr)) _com_issue_errorex(_hr, this, __uuidof(this));

  000af	83 7d e8 00	 cmp	 DWORD PTR __hr$[ebp], 0
  000b3	7d 12		 jge	 SHORT $LN2@CreatePara
  000b5	68 00 00 00 00	 push	 OFFSET __GUID_00000508_0000_0010_8000_00aa006d2ea4
  000ba	8b 55 f0	 mov	 edx, DWORD PTR _this$[ebp]
  000bd	52		 push	 edx
  000be	8b 45 e8	 mov	 eax, DWORD PTR __hr$[ebp]
  000c1	50		 push	 eax
  000c2	e8 00 00 00 00	 call	 ?_com_issue_errorex@@YGXJPAUIUnknown@@ABU_GUID@@@Z ; _com_issue_errorex
$LN2@CreatePara:

; 1097 :     return _ParameterPtr(_result, false);

  000c7	8b 4d e4	 mov	 ecx, DWORD PTR __result$[ebp]
  000ca	89 4d dc	 mov	 DWORD PTR _pInterface$[ebp], ecx
; File c:\program files (x86)\microsoft visual studio\2017\community\vc\tools\msvc\14.16.27023\include\comip.h

; 184  :         : m_pInterface(pInterface)

  000cd	8b 55 08	 mov	 edx, DWORD PTR ___$ReturnUdt$[ebp]
  000d0	8b 45 dc	 mov	 eax, DWORD PTR _pInterface$[ebp]
  000d3	89 02		 mov	 DWORD PTR [edx], eax

; 185  :     {
; 186  :         if (fAddRef) {

  000d5	33 c9		 xor	 ecx, ecx
  000d7	74 1a		 je	 SHORT $LN13@CreatePara

; 826  :         if (m_pInterface != NULL) {

  000d9	8b 55 08	 mov	 edx, DWORD PTR ___$ReturnUdt$[ebp]
  000dc	83 3a 00	 cmp	 DWORD PTR [edx], 0
  000df	74 12		 je	 SHORT $LN13@CreatePara

; 827  :             m_pInterface->AddRef();

  000e1	8b 45 08	 mov	 eax, DWORD PTR ___$ReturnUdt$[ebp]
  000e4	8b 08		 mov	 ecx, DWORD PTR [eax]
  000e6	8b 55 08	 mov	 edx, DWORD PTR ___$ReturnUdt$[ebp]
  000e9	8b 02		 mov	 eax, DWORD PTR [edx]
  000eb	8b 09		 mov	 ecx, DWORD PTR [ecx]
  000ed	50		 push	 eax
  000ee	8b 51 04	 mov	 edx, DWORD PTR [ecx+4]
  000f1	ff d2		 call	 edx
$LN13@CreatePara:
; File g:\网狐\happygamewh\服务端\中间目录\内核引擎\debug_ansi\msado15.tli

; 1097 :     return _ParameterPtr(_result, false);

  000f3	8b 45 e0	 mov	 eax, DWORD PTR $T3[ebp]
  000f6	83 c8 01	 or	 eax, 1
  000f9	89 45 e0	 mov	 DWORD PTR $T3[ebp], eax
  000fc	c7 45 fc ff ff
	ff ff		 mov	 DWORD PTR __$EHRec$[ebp+8], -1
; File c:\program files (x86)\microsoft visual studio\2017\community\vc\tools\msvc\14.16.27023\include\comutil.h

; 637  :     if (m_Data != NULL) {

  00103	83 7d 0c 00	 cmp	 DWORD PTR _Name$[ebp], 0
  00107	74 0f		 je	 SHORT $LN19@CreatePara

; 638  :         m_Data->Release();

  00109	8b 4d 0c	 mov	 ecx, DWORD PTR _Name$[ebp]
  0010c	e8 00 00 00 00	 call	 ?Release@Data_t@_bstr_t@@QAEKXZ ; _bstr_t::Data_t::Release

; 639  :         m_Data = NULL;

  00111	c7 45 0c 00 00
	00 00		 mov	 DWORD PTR _Name$[ebp], 0
$LN19@CreatePara:
; File g:\网狐\happygamewh\服务端\中间目录\内核引擎\debug_ansi\msado15.tli

; 1097 :     return _ParameterPtr(_result, false);

  00118	8b 45 08	 mov	 eax, DWORD PTR ___$ReturnUdt$[ebp]

; 1098 : }

  0011b	8b 4d f4	 mov	 ecx, DWORD PTR __$EHRec$[ebp]
  0011e	64 89 0d 00 00
	00 00		 mov	 DWORD PTR fs:0, ecx
  00125	59		 pop	 ecx
  00126	8b e5		 mov	 esp, ebp
  00128	5d		 pop	 ebp
  00129	c2 18 00	 ret	 24			; 00000018H
_TEXT	ENDS
;	COMDAT text$x
text$x	SEGMENT
__unwindfunclet$?CreateParameter@Command15@ADOCG@@QAE?AV?$_com_ptr_t@V?$_com_IIID@U_Parameter@ADOCG@@$1?_GUID_0000050c_0000_0010_8000_00aa006d2ea4@@3U__s_GUID@@B@@@@V_bstr_t@@W4DataTypeEnum@2@W4ParameterDirectionEnum@2@JABV_variant_t@@@Z$0:
  00000	8d 4d 0c	 lea	 ecx, DWORD PTR _Name$[ebp]
  00003	e9 00 00 00 00	 jmp	 ??1_bstr_t@@QAE@XZ	; _bstr_t::~_bstr_t
__ehhandler$?CreateParameter@Command15@ADOCG@@QAE?AV?$_com_ptr_t@V?$_com_IIID@U_Parameter@ADOCG@@$1?_GUID_0000050c_0000_0010_8000_00aa006d2ea4@@3U__s_GUID@@B@@@@V_bstr_t@@W4DataTypeEnum@2@W4ParameterDirectionEnum@2@JABV_variant_t@@@Z:
  00008	8b 54 24 08	 mov	 edx, DWORD PTR [esp+8]
  0000c	8d 42 0c	 lea	 eax, DWORD PTR [edx+12]
  0000f	8b 4a d4	 mov	 ecx, DWORD PTR [edx-44]
  00012	33 c8		 xor	 ecx, eax
  00014	e8 00 00 00 00	 call	 @__security_check_cookie@4
  00019	b8 00 00 00 00	 mov	 eax, OFFSET __ehfuncinfo$?CreateParameter@Command15@ADOCG@@QAE?AV?$_com_ptr_t@V?$_com_IIID@U_Parameter@ADOCG@@$1?_GUID_0000050c_0000_0010_8000_00aa006d2ea4@@3U__s_GUID@@B@@@@V_bstr_t@@W4DataTypeEnum@2@W4ParameterDirectionEnum@2@JABV_variant_t@@@Z
  0001e	e9 00 00 00 00	 jmp	 ___CxxFrameHandler3
text$x	ENDS
?CreateParameter@Command15@ADOCG@@QAE?AV?$_com_ptr_t@V?$_com_IIID@U_Parameter@ADOCG@@$1?_GUID_0000050c_0000_0010_8000_00aa006d2ea4@@3U__s_GUID@@B@@@@V_bstr_t@@W4DataTypeEnum@2@W4ParameterDirectionEnum@2@JABV_variant_t@@@Z ENDP ; ADOCG::Command15::CreateParameter
; Function compile flags: /Odtp
; File g:\网狐\happygamewh\服务端\中间目录\内核引擎\debug_ansi\msado15.tli
; File c:\program files (x86)\microsoft visual studio\2017\community\vc\tools\msvc\14.16.27023\include\comip.h
; File g:\网狐\happygamewh\服务端\中间目录\内核引擎\debug_ansi\msado15.tli
;	COMDAT ?Execute@Command15@ADOCG@@QAE?AV?$_com_ptr_t@V?$_com_IIID@U_Recordset@ADOCG@@$1?_GUID_00000556_0000_0010_8000_00aa006d2ea4@@3U__s_GUID@@B@@@@PAUtagVARIANT@@0J@Z
_TEXT	SEGMENT
_pInterface$ = -20					; size = 4
$T1 = -16						; size = 4
__result$ = -12						; size = 4
__hr$ = -8						; size = 4
_this$ = -4						; size = 4
___$ReturnUdt$ = 8					; size = 4
_RecordsAffected$ = 12					; size = 4
_Parameters$ = 16					; size = 4
_Options$ = 20						; size = 4
?Execute@Command15@ADOCG@@QAE?AV?$_com_ptr_t@V?$_com_IIID@U_Recordset@ADOCG@@$1?_GUID_00000556_0000_0010_8000_00aa006d2ea4@@3U__s_GUID@@B@@@@PAUtagVARIANT@@0J@Z PROC ; ADOCG::Command15::Execute, COMDAT
; _this$ = ecx

; 1086 : inline _RecordsetPtr Command15::Execute ( VARIANT * RecordsAffected, VARIANT * Parameters, long Options ) {

  00000	55		 push	 ebp
  00001	8b ec		 mov	 ebp, esp
  00003	83 ec 14	 sub	 esp, 20			; 00000014H
  00006	89 4d fc	 mov	 DWORD PTR _this$[ebp], ecx
  00009	c7 45 f0 00 00
	00 00		 mov	 DWORD PTR $T1[ebp], 0

; 1087 :     struct _Recordset * _result = 0;

  00010	c7 45 f4 00 00
	00 00		 mov	 DWORD PTR __result$[ebp], 0

; 1088 :     HRESULT _hr = raw_Execute(RecordsAffected, Parameters, Options, &_result);

  00017	8d 45 f4	 lea	 eax, DWORD PTR __result$[ebp]
  0001a	50		 push	 eax
  0001b	8b 4d 14	 mov	 ecx, DWORD PTR _Options$[ebp]
  0001e	51		 push	 ecx
  0001f	8b 55 10	 mov	 edx, DWORD PTR _Parameters$[ebp]
  00022	52		 push	 edx
  00023	8b 45 0c	 mov	 eax, DWORD PTR _RecordsAffected$[ebp]
  00026	50		 push	 eax
  00027	8b 4d fc	 mov	 ecx, DWORD PTR _this$[ebp]
  0002a	8b 11		 mov	 edx, DWORD PTR [ecx]
  0002c	8b 45 fc	 mov	 eax, DWORD PTR _this$[ebp]
  0002f	50		 push	 eax
  00030	8b 4a 44	 mov	 ecx, DWORD PTR [edx+68]
  00033	ff d1		 call	 ecx
  00035	89 45 f8	 mov	 DWORD PTR __hr$[ebp], eax

; 1089 :     if (FAILED(_hr)) _com_issue_errorex(_hr, this, __uuidof(this));

  00038	83 7d f8 00	 cmp	 DWORD PTR __hr$[ebp], 0
  0003c	7d 12		 jge	 SHORT $LN2@Execute
  0003e	68 00 00 00 00	 push	 OFFSET __GUID_00000508_0000_0010_8000_00aa006d2ea4
  00043	8b 55 fc	 mov	 edx, DWORD PTR _this$[ebp]
  00046	52		 push	 edx
  00047	8b 45 f8	 mov	 eax, DWORD PTR __hr$[ebp]
  0004a	50		 push	 eax
  0004b	e8 00 00 00 00	 call	 ?_com_issue_errorex@@YGXJPAUIUnknown@@ABU_GUID@@@Z ; _com_issue_errorex
$LN2@Execute:

; 1090 :     return _RecordsetPtr(_result, false);

  00050	8b 4d f4	 mov	 ecx, DWORD PTR __result$[ebp]
  00053	89 4d ec	 mov	 DWORD PTR _pInterface$[ebp], ecx
; File c:\program files (x86)\microsoft visual studio\2017\community\vc\tools\msvc\14.16.27023\include\comip.h

; 184  :         : m_pInterface(pInterface)

  00056	8b 55 08	 mov	 edx, DWORD PTR ___$ReturnUdt$[ebp]
  00059	8b 45 ec	 mov	 eax, DWORD PTR _pInterface$[ebp]
  0005c	89 02		 mov	 DWORD PTR [edx], eax

; 185  :     {
; 186  :         if (fAddRef) {

  0005e	33 c9		 xor	 ecx, ecx
  00060	74 1a		 je	 SHORT $LN6@Execute

; 826  :         if (m_pInterface != NULL) {

  00062	8b 55 08	 mov	 edx, DWORD PTR ___$ReturnUdt$[ebp]
  00065	83 3a 00	 cmp	 DWORD PTR [edx], 0
  00068	74 12		 je	 SHORT $LN6@Execute

; 827  :             m_pInterface->AddRef();

  0006a	8b 45 08	 mov	 eax, DWORD PTR ___$ReturnUdt$[ebp]
  0006d	8b 08		 mov	 ecx, DWORD PTR [eax]
  0006f	8b 55 08	 mov	 edx, DWORD PTR ___$ReturnUdt$[ebp]
  00072	8b 02		 mov	 eax, DWORD PTR [edx]
  00074	8b 09		 mov	 ecx, DWORD PTR [ecx]
  00076	50		 push	 eax
  00077	8b 51 04	 mov	 edx, DWORD PTR [ecx+4]
  0007a	ff d2		 call	 edx
$LN6@Execute:
; File g:\网狐\happygamewh\服务端\中间目录\内核引擎\debug_ansi\msado15.tli

; 1090 :     return _RecordsetPtr(_result, false);

  0007c	8b 45 f0	 mov	 eax, DWORD PTR $T1[ebp]
  0007f	83 c8 01	 or	 eax, 1
  00082	89 45 f0	 mov	 DWORD PTR $T1[ebp], eax
  00085	8b 45 08	 mov	 eax, DWORD PTR ___$ReturnUdt$[ebp]

; 1091 : }

  00088	8b e5		 mov	 esp, ebp
  0008a	5d		 pop	 ebp
  0008b	c2 10 00	 ret	 16			; 00000010H
?Execute@Command15@ADOCG@@QAE?AV?$_com_ptr_t@V?$_com_IIID@U_Recordset@ADOCG@@$1?_GUID_00000556_0000_0010_8000_00aa006d2ea4@@3U__s_GUID@@B@@@@PAUtagVARIANT@@0J@Z ENDP ; ADOCG::Command15::Execute
_TEXT	ENDS
; Function compile flags: /Odtp
; File g:\网狐\happygamewh\服务端\中间目录\内核引擎\debug_ansi\msado15.tli
; File c:\program files (x86)\microsoft visual studio\2017\community\vc\tools\msvc\14.16.27023\include\comutil.h
; File g:\网狐\happygamewh\服务端\中间目录\内核引擎\debug_ansi\msado15.tli
; File c:\program files (x86)\microsoft visual studio\2017\community\vc\tools\msvc\14.16.27023\include\comutil.h
; File g:\网狐\happygamewh\服务端\中间目录\内核引擎\debug_ansi\msado15.tli
;	COMDAT ?PutCommandText@Command15@ADOCG@@QAEXV_bstr_t@@@Z
_TEXT	SEGMENT
__hr$ = -24						; size = 4
tv87 = -20						; size = 4
_this$ = -16						; size = 4
__$EHRec$ = -12						; size = 12
_pbstr$ = 8						; size = 4
?PutCommandText@Command15@ADOCG@@QAEXV_bstr_t@@@Z PROC	; ADOCG::Command15::PutCommandText, COMDAT
; _this$ = ecx

; 1057 : inline void Command15::PutCommandText ( _bstr_t pbstr ) {

  00000	55		 push	 ebp
  00001	8b ec		 mov	 ebp, esp
  00003	6a ff		 push	 -1
  00005	68 00 00 00 00	 push	 __ehhandler$?PutCommandText@Command15@ADOCG@@QAEXV_bstr_t@@@Z
  0000a	64 a1 00 00 00
	00		 mov	 eax, DWORD PTR fs:0
  00010	50		 push	 eax
  00011	83 ec 0c	 sub	 esp, 12			; 0000000cH
  00014	a1 00 00 00 00	 mov	 eax, DWORD PTR ___security_cookie
  00019	33 c5		 xor	 eax, ebp
  0001b	50		 push	 eax
  0001c	8d 45 f4	 lea	 eax, DWORD PTR __$EHRec$[ebp]
  0001f	64 a3 00 00 00
	00		 mov	 DWORD PTR fs:0, eax
  00025	89 4d f0	 mov	 DWORD PTR _this$[ebp], ecx
  00028	c7 45 fc 00 00
	00 00		 mov	 DWORD PTR __$EHRec$[ebp+8], 0
; File c:\program files (x86)\microsoft visual studio\2017\community\vc\tools\msvc\14.16.27023\include\comutil.h

; 479  :     return const_cast<wchar_t*>((m_Data != NULL) ? m_Data->GetWString() : NULL);

  0002f	83 7d 08 00	 cmp	 DWORD PTR _pbstr$[ebp], 0
  00033	74 0a		 je	 SHORT $LN7@PutCommand
  00035	8b 45 08	 mov	 eax, DWORD PTR _pbstr$[ebp]
  00038	8b 08		 mov	 ecx, DWORD PTR [eax]
  0003a	89 4d ec	 mov	 DWORD PTR tv87[ebp], ecx
  0003d	eb 07		 jmp	 SHORT $LN5@PutCommand
$LN7@PutCommand:
  0003f	c7 45 ec 00 00
	00 00		 mov	 DWORD PTR tv87[ebp], 0
$LN5@PutCommand:
; File g:\网狐\happygamewh\服务端\中间目录\内核引擎\debug_ansi\msado15.tli

; 1058 :     HRESULT _hr = put_CommandText(pbstr);

  00046	8b 55 ec	 mov	 edx, DWORD PTR tv87[ebp]
  00049	52		 push	 edx
  0004a	8b 45 f0	 mov	 eax, DWORD PTR _this$[ebp]
  0004d	8b 08		 mov	 ecx, DWORD PTR [eax]
  0004f	8b 55 f0	 mov	 edx, DWORD PTR _this$[ebp]
  00052	52		 push	 edx
  00053	8b 41 30	 mov	 eax, DWORD PTR [ecx+48]
  00056	ff d0		 call	 eax
  00058	89 45 e8	 mov	 DWORD PTR __hr$[ebp], eax

; 1059 :     if (FAILED(_hr)) _com_issue_errorex(_hr, this, __uuidof(this));

  0005b	83 7d e8 00	 cmp	 DWORD PTR __hr$[ebp], 0
  0005f	7d 12		 jge	 SHORT $LN2@PutCommand
  00061	68 00 00 00 00	 push	 OFFSET __GUID_00000508_0000_0010_8000_00aa006d2ea4
  00066	8b 4d f0	 mov	 ecx, DWORD PTR _this$[ebp]
  00069	51		 push	 ecx
  0006a	8b 55 e8	 mov	 edx, DWORD PTR __hr$[ebp]
  0006d	52		 push	 edx
  0006e	e8 00 00 00 00	 call	 ?_com_issue_errorex@@YGXJPAUIUnknown@@ABU_GUID@@@Z ; _com_issue_errorex
$LN2@PutCommand:

; 1060 : }

  00073	c7 45 fc ff ff
	ff ff		 mov	 DWORD PTR __$EHRec$[ebp+8], -1
; File c:\program files (x86)\microsoft visual studio\2017\community\vc\tools\msvc\14.16.27023\include\comutil.h

; 637  :     if (m_Data != NULL) {

  0007a	83 7d 08 00	 cmp	 DWORD PTR _pbstr$[ebp], 0
  0007e	74 0f		 je	 SHORT $LN1@PutCommand

; 638  :         m_Data->Release();

  00080	8b 4d 08	 mov	 ecx, DWORD PTR _pbstr$[ebp]
  00083	e8 00 00 00 00	 call	 ?Release@Data_t@_bstr_t@@QAEKXZ ; _bstr_t::Data_t::Release

; 639  :         m_Data = NULL;

  00088	c7 45 08 00 00
	00 00		 mov	 DWORD PTR _pbstr$[ebp], 0
$LN1@PutCommand:
; File g:\网狐\happygamewh\服务端\中间目录\内核引擎\debug_ansi\msado15.tli

; 1060 : }

  0008f	8b 4d f4	 mov	 ecx, DWORD PTR __$EHRec$[ebp]
  00092	64 89 0d 00 00
	00 00		 mov	 DWORD PTR fs:0, ecx
  00099	59		 pop	 ecx
  0009a	8b e5		 mov	 esp, ebp
  0009c	5d		 pop	 ebp
  0009d	c2 04 00	 ret	 4
_TEXT	ENDS
;	COMDAT text$x
text$x	SEGMENT
__unwindfunclet$?PutCommandText@Command15@ADOCG@@QAEXV_bstr_t@@@Z$0:
  00000	8d 4d 08	 lea	 ecx, DWORD PTR _pbstr$[ebp]
  00003	e9 00 00 00 00	 jmp	 ??1_bstr_t@@QAE@XZ	; _bstr_t::~_bstr_t
__ehhandler$?PutCommandText@Command15@ADOCG@@QAEXV_bstr_t@@@Z:
  00008	8b 54 24 08	 mov	 edx, DWORD PTR [esp+8]
  0000c	8d 42 0c	 lea	 eax, DWORD PTR [edx+12]
  0000f	8b 4a f0	 mov	 ecx, DWORD PTR [edx-16]
  00012	33 c8		 xor	 ecx, eax
  00014	e8 00 00 00 00	 call	 @__security_check_cookie@4
  00019	b8 00 00 00 00	 mov	 eax, OFFSET __ehfuncinfo$?PutCommandText@Command15@ADOCG@@QAEXV_bstr_t@@@Z
  0001e	e9 00 00 00 00	 jmp	 ___CxxFrameHandler3
text$x	ENDS
?PutCommandText@Command15@ADOCG@@QAEXV_bstr_t@@@Z ENDP	; ADOCG::Command15::PutCommandText
; Function compile flags: /Odtp
; File g:\网狐\happygamewh\服务端\中间目录\内核引擎\debug_ansi\msado15.tli
;	COMDAT ?PutRefActiveConnection@Command15@ADOCG@@QAEXPAU_Connection@2@@Z
_TEXT	SEGMENT
__hr$ = -8						; size = 4
_this$ = -4						; size = 4
_ppvObject$ = 8						; size = 4
?PutRefActiveConnection@Command15@ADOCG@@QAEXPAU_Connection@2@@Z PROC ; ADOCG::Command15::PutRefActiveConnection, COMDAT
; _this$ = ecx

; 1040 : inline void Command15::PutRefActiveConnection ( struct _Connection * ppvObject ) {

  00000	55		 push	 ebp
  00001	8b ec		 mov	 ebp, esp
  00003	83 ec 08	 sub	 esp, 8
  00006	89 4d fc	 mov	 DWORD PTR _this$[ebp], ecx

; 1041 :     HRESULT _hr = putref_ActiveConnection(ppvObject);

  00009	8b 45 08	 mov	 eax, DWORD PTR _ppvObject$[ebp]
  0000c	50		 push	 eax
  0000d	8b 4d fc	 mov	 ecx, DWORD PTR _this$[ebp]
  00010	8b 11		 mov	 edx, DWORD PTR [ecx]
  00012	8b 45 fc	 mov	 eax, DWORD PTR _this$[ebp]
  00015	50		 push	 eax
  00016	8b 4a 24	 mov	 ecx, DWORD PTR [edx+36]
  00019	ff d1		 call	 ecx
  0001b	89 45 f8	 mov	 DWORD PTR __hr$[ebp], eax

; 1042 :     if (FAILED(_hr)) _com_issue_errorex(_hr, this, __uuidof(this));

  0001e	83 7d f8 00	 cmp	 DWORD PTR __hr$[ebp], 0
  00022	7d 12		 jge	 SHORT $LN1@PutRefActi
  00024	68 00 00 00 00	 push	 OFFSET __GUID_00000508_0000_0010_8000_00aa006d2ea4
  00029	8b 55 fc	 mov	 edx, DWORD PTR _this$[ebp]
  0002c	52		 push	 edx
  0002d	8b 45 f8	 mov	 eax, DWORD PTR __hr$[ebp]
  00030	50		 push	 eax
  00031	e8 00 00 00 00	 call	 ?_com_issue_errorex@@YGXJPAUIUnknown@@ABU_GUID@@@Z ; _com_issue_errorex
$LN1@PutRefActi:

; 1043 : }

  00036	8b e5		 mov	 esp, ebp
  00038	5d		 pop	 ebp
  00039	c2 04 00	 ret	 4
?PutRefActiveConnection@Command15@ADOCG@@QAEXPAU_Connection@2@@Z ENDP ; ADOCG::Command15::PutRefActiveConnection
_TEXT	ENDS
; Function compile flags: /Odtp
; File g:\网狐\happygamewh\服务端\中间目录\内核引擎\debug_ansi\msado15.tli
; File c:\program files (x86)\microsoft visual studio\2017\community\vc\tools\msvc\14.16.27023\include\comip.h
; File g:\网狐\happygamewh\服务端\中间目录\内核引擎\debug_ansi\msado15.tli
;	COMDAT ?GetItem@Parameters@ADOCG@@QAE?AV?$_com_ptr_t@V?$_com_IIID@U_Parameter@ADOCG@@$1?_GUID_0000050c_0000_0010_8000_00aa006d2ea4@@3U__s_GUID@@B@@@@ABV_variant_t@@@Z
_TEXT	SEGMENT
$T1 = -36						; size = 16
_pInterface$ = -20					; size = 4
$T2 = -16						; size = 4
__result$ = -12						; size = 4
__hr$ = -8						; size = 4
_this$ = -4						; size = 4
___$ReturnUdt$ = 8					; size = 4
_Index$ = 12						; size = 4
?GetItem@Parameters@ADOCG@@QAE?AV?$_com_ptr_t@V?$_com_IIID@U_Parameter@ADOCG@@$1?_GUID_0000050c_0000_0010_8000_00aa006d2ea4@@3U__s_GUID@@B@@@@ABV_variant_t@@@Z PROC ; ADOCG::Parameters::GetItem, COMDAT
; _this$ = ecx

; 495  : inline _ParameterPtr Parameters::GetItem ( const _variant_t & Index ) {

  00000	55		 push	 ebp
  00001	8b ec		 mov	 ebp, esp
  00003	83 ec 24	 sub	 esp, 36			; 00000024H
  00006	89 4d fc	 mov	 DWORD PTR _this$[ebp], ecx
  00009	c7 45 f0 00 00
	00 00		 mov	 DWORD PTR $T2[ebp], 0

; 496  :     struct _Parameter * _result = 0;

  00010	c7 45 f4 00 00
	00 00		 mov	 DWORD PTR __result$[ebp], 0

; 497  :     HRESULT _hr = get_Item(Index, &_result);

  00017	8b 45 0c	 mov	 eax, DWORD PTR _Index$[ebp]
  0001a	8b 08		 mov	 ecx, DWORD PTR [eax]
  0001c	89 4d dc	 mov	 DWORD PTR $T1[ebp], ecx
  0001f	8b 50 04	 mov	 edx, DWORD PTR [eax+4]
  00022	89 55 e0	 mov	 DWORD PTR $T1[ebp+4], edx
  00025	8b 48 08	 mov	 ecx, DWORD PTR [eax+8]
  00028	89 4d e4	 mov	 DWORD PTR $T1[ebp+8], ecx
  0002b	8b 50 0c	 mov	 edx, DWORD PTR [eax+12]
  0002e	89 55 e8	 mov	 DWORD PTR $T1[ebp+12], edx
  00031	8d 45 f4	 lea	 eax, DWORD PTR __result$[ebp]
  00034	50		 push	 eax
  00035	83 ec 10	 sub	 esp, 16			; 00000010H
  00038	8b cc		 mov	 ecx, esp
  0003a	8b 55 dc	 mov	 edx, DWORD PTR $T1[ebp]
  0003d	89 11		 mov	 DWORD PTR [ecx], edx
  0003f	8b 45 e0	 mov	 eax, DWORD PTR $T1[ebp+4]
  00042	89 41 04	 mov	 DWORD PTR [ecx+4], eax
  00045	8b 55 e4	 mov	 edx, DWORD PTR $T1[ebp+8]
  00048	89 51 08	 mov	 DWORD PTR [ecx+8], edx
  0004b	8b 45 e8	 mov	 eax, DWORD PTR $T1[ebp+12]
  0004e	89 41 0c	 mov	 DWORD PTR [ecx+12], eax
  00051	8b 4d fc	 mov	 ecx, DWORD PTR _this$[ebp]
  00054	51		 push	 ecx
  00055	8b 55 fc	 mov	 edx, DWORD PTR _this$[ebp]
  00058	8b 02		 mov	 eax, DWORD PTR [edx]
  0005a	8b 48 30	 mov	 ecx, DWORD PTR [eax+48]
  0005d	ff d1		 call	 ecx
  0005f	89 45 f8	 mov	 DWORD PTR __hr$[ebp], eax

; 498  :     if (FAILED(_hr)) _com_issue_errorex(_hr, this, __uuidof(this));

  00062	83 7d f8 00	 cmp	 DWORD PTR __hr$[ebp], 0
  00066	7d 12		 jge	 SHORT $LN2@GetItem
  00068	68 00 00 00 00	 push	 OFFSET __GUID_0000050d_0000_0010_8000_00aa006d2ea4
  0006d	8b 55 fc	 mov	 edx, DWORD PTR _this$[ebp]
  00070	52		 push	 edx
  00071	8b 45 f8	 mov	 eax, DWORD PTR __hr$[ebp]
  00074	50		 push	 eax
  00075	e8 00 00 00 00	 call	 ?_com_issue_errorex@@YGXJPAUIUnknown@@ABU_GUID@@@Z ; _com_issue_errorex
$LN2@GetItem:

; 499  :     return _ParameterPtr(_result, false);

  0007a	8b 4d f4	 mov	 ecx, DWORD PTR __result$[ebp]
  0007d	89 4d ec	 mov	 DWORD PTR _pInterface$[ebp], ecx
; File c:\program files (x86)\microsoft visual studio\2017\community\vc\tools\msvc\14.16.27023\include\comip.h

; 184  :         : m_pInterface(pInterface)

  00080	8b 55 08	 mov	 edx, DWORD PTR ___$ReturnUdt$[ebp]
  00083	8b 45 ec	 mov	 eax, DWORD PTR _pInterface$[ebp]
  00086	89 02		 mov	 DWORD PTR [edx], eax

; 185  :     {
; 186  :         if (fAddRef) {

  00088	33 c9		 xor	 ecx, ecx
  0008a	74 1a		 je	 SHORT $LN6@GetItem

; 826  :         if (m_pInterface != NULL) {

  0008c	8b 55 08	 mov	 edx, DWORD PTR ___$ReturnUdt$[ebp]
  0008f	83 3a 00	 cmp	 DWORD PTR [edx], 0
  00092	74 12		 je	 SHORT $LN6@GetItem

; 827  :             m_pInterface->AddRef();

  00094	8b 45 08	 mov	 eax, DWORD PTR ___$ReturnUdt$[ebp]
  00097	8b 08		 mov	 ecx, DWORD PTR [eax]
  00099	8b 55 08	 mov	 edx, DWORD PTR ___$ReturnUdt$[ebp]
  0009c	8b 02		 mov	 eax, DWORD PTR [edx]
  0009e	8b 09		 mov	 ecx, DWORD PTR [ecx]
  000a0	50		 push	 eax
  000a1	8b 51 04	 mov	 edx, DWORD PTR [ecx+4]
  000a4	ff d2		 call	 edx
$LN6@GetItem:
; File g:\网狐\happygamewh\服务端\中间目录\内核引擎\debug_ansi\msado15.tli

; 499  :     return _ParameterPtr(_result, false);

  000a6	8b 45 f0	 mov	 eax, DWORD PTR $T2[ebp]
  000a9	83 c8 01	 or	 eax, 1
  000ac	89 45 f0	 mov	 DWORD PTR $T2[ebp], eax
  000af	8b 45 08	 mov	 eax, DWORD PTR ___$ReturnUdt$[ebp]

; 500  : }

  000b2	8b e5		 mov	 esp, ebp
  000b4	5d		 pop	 ebp
  000b5	c2 08 00	 ret	 8
?GetItem@Parameters@ADOCG@@QAE?AV?$_com_ptr_t@V?$_com_IIID@U_Parameter@ADOCG@@$1?_GUID_0000050c_0000_0010_8000_00aa006d2ea4@@3U__s_GUID@@B@@@@ABV_variant_t@@@Z ENDP ; ADOCG::Parameters::GetItem
_TEXT	ENDS
; Function compile flags: /Odtp
; File g:\网狐\happygamewh\服务端\中间目录\内核引擎\debug_ansi\msado15.tli
;	COMDAT ?GetDirection@_Parameter@ADOCG@@QAE?AW4ParameterDirectionEnum@2@XZ
_TEXT	SEGMENT
__result$ = -12						; size = 4
__hr$ = -8						; size = 4
_this$ = -4						; size = 4
?GetDirection@_Parameter@ADOCG@@QAE?AW4ParameterDirectionEnum@2@XZ PROC ; ADOCG::_Parameter::GetDirection, COMDAT
; _this$ = ecx

; 430  : inline enum ParameterDirectionEnum _Parameter::GetDirection ( ) {

  00000	55		 push	 ebp
  00001	8b ec		 mov	 ebp, esp
  00003	83 ec 0c	 sub	 esp, 12			; 0000000cH
  00006	89 4d fc	 mov	 DWORD PTR _this$[ebp], ecx

; 431  :     enum ParameterDirectionEnum _result;
; 432  :     HRESULT _hr = get_Direction(&_result);

  00009	8d 45 f4	 lea	 eax, DWORD PTR __result$[ebp]
  0000c	50		 push	 eax
  0000d	8b 4d fc	 mov	 ecx, DWORD PTR _this$[ebp]
  00010	8b 11		 mov	 edx, DWORD PTR [ecx]
  00012	8b 45 fc	 mov	 eax, DWORD PTR _this$[ebp]
  00015	50		 push	 eax
  00016	8b 4a 3c	 mov	 ecx, DWORD PTR [edx+60]
  00019	ff d1		 call	 ecx
  0001b	89 45 f8	 mov	 DWORD PTR __hr$[ebp], eax

; 433  :     if (FAILED(_hr)) _com_issue_errorex(_hr, this, __uuidof(this));

  0001e	83 7d f8 00	 cmp	 DWORD PTR __hr$[ebp], 0
  00022	7d 12		 jge	 SHORT $LN2@GetDirecti
  00024	68 00 00 00 00	 push	 OFFSET __GUID_0000050c_0000_0010_8000_00aa006d2ea4
  00029	8b 55 fc	 mov	 edx, DWORD PTR _this$[ebp]
  0002c	52		 push	 edx
  0002d	8b 45 f8	 mov	 eax, DWORD PTR __hr$[ebp]
  00030	50		 push	 eax
  00031	e8 00 00 00 00	 call	 ?_com_issue_errorex@@YGXJPAUIUnknown@@ABU_GUID@@@Z ; _com_issue_errorex
$LN2@GetDirecti:

; 434  :     return _result;

  00036	8b 45 f4	 mov	 eax, DWORD PTR __result$[ebp]

; 435  : }

  00039	8b e5		 mov	 esp, ebp
  0003b	5d		 pop	 ebp
  0003c	c3		 ret	 0
?GetDirection@_Parameter@ADOCG@@QAE?AW4ParameterDirectionEnum@2@XZ ENDP ; ADOCG::_Parameter::GetDirection
_TEXT	ENDS
; Function compile flags: /Odtp
; File g:\网狐\happygamewh\服务端\中间目录\内核引擎\debug_ansi\msado15.tli
;	COMDAT ?GetValue@_Parameter@ADOCG@@QAE?AV_variant_t@@XZ
_TEXT	SEGMENT
__result$ = -28						; size = 16
$T1 = -12						; size = 4
__hr$ = -8						; size = 4
_this$ = -4						; size = 4
___$ReturnUdt$ = 8					; size = 4
?GetValue@_Parameter@ADOCG@@QAE?AV_variant_t@@XZ PROC	; ADOCG::_Parameter::GetValue, COMDAT
; _this$ = ecx

; 400  : inline _variant_t _Parameter::GetValue ( ) {

  00000	55		 push	 ebp
  00001	8b ec		 mov	 ebp, esp
  00003	83 ec 1c	 sub	 esp, 28			; 0000001cH
  00006	89 4d fc	 mov	 DWORD PTR _this$[ebp], ecx
  00009	c7 45 f4 00 00
	00 00		 mov	 DWORD PTR $T1[ebp], 0

; 401  :     VARIANT _result;
; 402  :     VariantInit(&_result);

  00010	8d 45 e4	 lea	 eax, DWORD PTR __result$[ebp]
  00013	50		 push	 eax
  00014	ff 15 00 00 00
	00		 call	 DWORD PTR __imp__VariantInit@4

; 403  :     HRESULT _hr = get_Value(&_result);

  0001a	8d 4d e4	 lea	 ecx, DWORD PTR __result$[ebp]
  0001d	51		 push	 ecx
  0001e	8b 55 fc	 mov	 edx, DWORD PTR _this$[ebp]
  00021	8b 02		 mov	 eax, DWORD PTR [edx]
  00023	8b 4d fc	 mov	 ecx, DWORD PTR _this$[ebp]
  00026	51		 push	 ecx
  00027	8b 50 28	 mov	 edx, DWORD PTR [eax+40]
  0002a	ff d2		 call	 edx
  0002c	89 45 f8	 mov	 DWORD PTR __hr$[ebp], eax

; 404  :     if (FAILED(_hr)) _com_issue_errorex(_hr, this, __uuidof(this));

  0002f	83 7d f8 00	 cmp	 DWORD PTR __hr$[ebp], 0
  00033	7d 12		 jge	 SHORT $LN2@GetValue
  00035	68 00 00 00 00	 push	 OFFSET __GUID_0000050c_0000_0010_8000_00aa006d2ea4
  0003a	8b 45 fc	 mov	 eax, DWORD PTR _this$[ebp]
  0003d	50		 push	 eax
  0003e	8b 4d f8	 mov	 ecx, DWORD PTR __hr$[ebp]
  00041	51		 push	 ecx
  00042	e8 00 00 00 00	 call	 ?_com_issue_errorex@@YGXJPAUIUnknown@@ABU_GUID@@@Z ; _com_issue_errorex
$LN2@GetValue:

; 405  :     return _variant_t(_result, false);

  00047	6a 00		 push	 0
  00049	8d 55 e4	 lea	 edx, DWORD PTR __result$[ebp]
  0004c	52		 push	 edx
  0004d	8b 4d 08	 mov	 ecx, DWORD PTR ___$ReturnUdt$[ebp]
  00050	e8 00 00 00 00	 call	 ??0_variant_t@@QAE@AAUtagVARIANT@@_N@Z ; _variant_t::_variant_t
  00055	8b 45 f4	 mov	 eax, DWORD PTR $T1[ebp]
  00058	83 c8 01	 or	 eax, 1
  0005b	89 45 f4	 mov	 DWORD PTR $T1[ebp], eax
  0005e	8b 45 08	 mov	 eax, DWORD PTR ___$ReturnUdt$[ebp]

; 406  : }

  00061	8b e5		 mov	 esp, ebp
  00063	5d		 pop	 ebp
  00064	c2 04 00	 ret	 4
?GetValue@_Parameter@ADOCG@@QAE?AV_variant_t@@XZ ENDP	; ADOCG::_Parameter::GetValue
_TEXT	ENDS
; Function compile flags: /Odtp
; File g:\网狐\happygamewh\服务端\中间目录\内核引擎\debug_ansi\msado15.tli
; File c:\program files (x86)\microsoft visual studio\2017\community\vc\tools\msvc\14.16.27023\include\comip.h
; File g:\网狐\happygamewh\服务端\中间目录\内核引擎\debug_ansi\msado15.tli
;	COMDAT ?GetItem@Fields15@ADOCG@@QAE?AV?$_com_ptr_t@V?$_com_IIID@UField@ADOCG@@$1?_GUID_00000569_0000_0010_8000_00aa006d2ea4@@3U__s_GUID@@B@@@@ABV_variant_t@@@Z
_TEXT	SEGMENT
$T1 = -36						; size = 16
_pInterface$ = -20					; size = 4
$T2 = -16						; size = 4
__result$ = -12						; size = 4
__hr$ = -8						; size = 4
_this$ = -4						; size = 4
___$ReturnUdt$ = 8					; size = 4
_Index$ = 12						; size = 4
?GetItem@Fields15@ADOCG@@QAE?AV?$_com_ptr_t@V?$_com_IIID@UField@ADOCG@@$1?_GUID_00000569_0000_0010_8000_00aa006d2ea4@@3U__s_GUID@@B@@@@ABV_variant_t@@@Z PROC ; ADOCG::Fields15::GetItem, COMDAT
; _this$ = ecx

; 333  : inline FieldPtr Fields15::GetItem ( const _variant_t & Index ) {

  00000	55		 push	 ebp
  00001	8b ec		 mov	 ebp, esp
  00003	83 ec 24	 sub	 esp, 36			; 00000024H
  00006	89 4d fc	 mov	 DWORD PTR _this$[ebp], ecx
  00009	c7 45 f0 00 00
	00 00		 mov	 DWORD PTR $T2[ebp], 0

; 334  :     struct Field * _result = 0;

  00010	c7 45 f4 00 00
	00 00		 mov	 DWORD PTR __result$[ebp], 0

; 335  :     HRESULT _hr = get_Item(Index, &_result);

  00017	8b 45 0c	 mov	 eax, DWORD PTR _Index$[ebp]
  0001a	8b 08		 mov	 ecx, DWORD PTR [eax]
  0001c	89 4d dc	 mov	 DWORD PTR $T1[ebp], ecx
  0001f	8b 50 04	 mov	 edx, DWORD PTR [eax+4]
  00022	89 55 e0	 mov	 DWORD PTR $T1[ebp+4], edx
  00025	8b 48 08	 mov	 ecx, DWORD PTR [eax+8]
  00028	89 4d e4	 mov	 DWORD PTR $T1[ebp+8], ecx
  0002b	8b 50 0c	 mov	 edx, DWORD PTR [eax+12]
  0002e	89 55 e8	 mov	 DWORD PTR $T1[ebp+12], edx
  00031	8d 45 f4	 lea	 eax, DWORD PTR __result$[ebp]
  00034	50		 push	 eax
  00035	83 ec 10	 sub	 esp, 16			; 00000010H
  00038	8b cc		 mov	 ecx, esp
  0003a	8b 55 dc	 mov	 edx, DWORD PTR $T1[ebp]
  0003d	89 11		 mov	 DWORD PTR [ecx], edx
  0003f	8b 45 e0	 mov	 eax, DWORD PTR $T1[ebp+4]
  00042	89 41 04	 mov	 DWORD PTR [ecx+4], eax
  00045	8b 55 e4	 mov	 edx, DWORD PTR $T1[ebp+8]
  00048	89 51 08	 mov	 DWORD PTR [ecx+8], edx
  0004b	8b 45 e8	 mov	 eax, DWORD PTR $T1[ebp+12]
  0004e	89 41 0c	 mov	 DWORD PTR [ecx+12], eax
  00051	8b 4d fc	 mov	 ecx, DWORD PTR _this$[ebp]
  00054	51		 push	 ecx
  00055	8b 55 fc	 mov	 edx, DWORD PTR _this$[ebp]
  00058	8b 02		 mov	 eax, DWORD PTR [edx]
  0005a	8b 48 28	 mov	 ecx, DWORD PTR [eax+40]
  0005d	ff d1		 call	 ecx
  0005f	89 45 f8	 mov	 DWORD PTR __hr$[ebp], eax

; 336  :     if (FAILED(_hr)) _com_issue_errorex(_hr, this, __uuidof(this));

  00062	83 7d f8 00	 cmp	 DWORD PTR __hr$[ebp], 0
  00066	7d 12		 jge	 SHORT $LN2@GetItem
  00068	68 00 00 00 00	 push	 OFFSET __GUID_00000506_0000_0010_8000_00aa006d2ea4
  0006d	8b 55 fc	 mov	 edx, DWORD PTR _this$[ebp]
  00070	52		 push	 edx
  00071	8b 45 f8	 mov	 eax, DWORD PTR __hr$[ebp]
  00074	50		 push	 eax
  00075	e8 00 00 00 00	 call	 ?_com_issue_errorex@@YGXJPAUIUnknown@@ABU_GUID@@@Z ; _com_issue_errorex
$LN2@GetItem:

; 337  :     return FieldPtr(_result, false);

  0007a	8b 4d f4	 mov	 ecx, DWORD PTR __result$[ebp]
  0007d	89 4d ec	 mov	 DWORD PTR _pInterface$[ebp], ecx
; File c:\program files (x86)\microsoft visual studio\2017\community\vc\tools\msvc\14.16.27023\include\comip.h

; 184  :         : m_pInterface(pInterface)

  00080	8b 55 08	 mov	 edx, DWORD PTR ___$ReturnUdt$[ebp]
  00083	8b 45 ec	 mov	 eax, DWORD PTR _pInterface$[ebp]
  00086	89 02		 mov	 DWORD PTR [edx], eax

; 185  :     {
; 186  :         if (fAddRef) {

  00088	33 c9		 xor	 ecx, ecx
  0008a	74 1a		 je	 SHORT $LN6@GetItem

; 826  :         if (m_pInterface != NULL) {

  0008c	8b 55 08	 mov	 edx, DWORD PTR ___$ReturnUdt$[ebp]
  0008f	83 3a 00	 cmp	 DWORD PTR [edx], 0
  00092	74 12		 je	 SHORT $LN6@GetItem

; 827  :             m_pInterface->AddRef();

  00094	8b 45 08	 mov	 eax, DWORD PTR ___$ReturnUdt$[ebp]
  00097	8b 08		 mov	 ecx, DWORD PTR [eax]
  00099	8b 55 08	 mov	 edx, DWORD PTR ___$ReturnUdt$[ebp]
  0009c	8b 02		 mov	 eax, DWORD PTR [edx]
  0009e	8b 09		 mov	 ecx, DWORD PTR [ecx]
  000a0	50		 push	 eax
  000a1	8b 51 04	 mov	 edx, DWORD PTR [ecx+4]
  000a4	ff d2		 call	 edx
$LN6@GetItem:
; File g:\网狐\happygamewh\服务端\中间目录\内核引擎\debug_ansi\msado15.tli

; 337  :     return FieldPtr(_result, false);

  000a6	8b 45 f0	 mov	 eax, DWORD PTR $T2[ebp]
  000a9	83 c8 01	 or	 eax, 1
  000ac	89 45 f0	 mov	 DWORD PTR $T2[ebp], eax
  000af	8b 45 08	 mov	 eax, DWORD PTR ___$ReturnUdt$[ebp]

; 338  : }

  000b2	8b e5		 mov	 esp, ebp
  000b4	5d		 pop	 ebp
  000b5	c2 08 00	 ret	 8
?GetItem@Fields15@ADOCG@@QAE?AV?$_com_ptr_t@V?$_com_IIID@UField@ADOCG@@$1?_GUID_00000569_0000_0010_8000_00aa006d2ea4@@3U__s_GUID@@B@@@@ABV_variant_t@@@Z ENDP ; ADOCG::Fields15::GetItem
_TEXT	ENDS
; Function compile flags: /Odtp
; File g:\网狐\happygamewh\服务端\中间目录\内核引擎\debug_ansi\msado15.tli
;	COMDAT ?GetValue@Field20@ADOCG@@QAE?AV_variant_t@@XZ
_TEXT	SEGMENT
__result$ = -28						; size = 16
$T1 = -12						; size = 4
__hr$ = -8						; size = 4
_this$ = -4						; size = 4
___$ReturnUdt$ = 8					; size = 4
?GetValue@Field20@ADOCG@@QAE?AV_variant_t@@XZ PROC	; ADOCG::Field20::GetValue, COMDAT
; _this$ = ecx

; 224  : inline _variant_t Field20::GetValue ( ) {

  00000	55		 push	 ebp
  00001	8b ec		 mov	 ebp, esp
  00003	83 ec 1c	 sub	 esp, 28			; 0000001cH
  00006	89 4d fc	 mov	 DWORD PTR _this$[ebp], ecx
  00009	c7 45 f4 00 00
	00 00		 mov	 DWORD PTR $T1[ebp], 0

; 225  :     VARIANT _result;
; 226  :     VariantInit(&_result);

  00010	8d 45 e4	 lea	 eax, DWORD PTR __result$[ebp]
  00013	50		 push	 eax
  00014	ff 15 00 00 00
	00		 call	 DWORD PTR __imp__VariantInit@4

; 227  :     HRESULT _hr = get_Value(&_result);

  0001a	8d 4d e4	 lea	 ecx, DWORD PTR __result$[ebp]
  0001d	51		 push	 ecx
  0001e	8b 55 fc	 mov	 edx, DWORD PTR _this$[ebp]
  00021	8b 02		 mov	 eax, DWORD PTR [edx]
  00023	8b 4d fc	 mov	 ecx, DWORD PTR _this$[ebp]
  00026	51		 push	 ecx
  00027	8b 50 34	 mov	 edx, DWORD PTR [eax+52]
  0002a	ff d2		 call	 edx
  0002c	89 45 f8	 mov	 DWORD PTR __hr$[ebp], eax

; 228  :     if (FAILED(_hr)) _com_issue_errorex(_hr, this, __uuidof(this));

  0002f	83 7d f8 00	 cmp	 DWORD PTR __hr$[ebp], 0
  00033	7d 12		 jge	 SHORT $LN2@GetValue
  00035	68 00 00 00 00	 push	 OFFSET __GUID_0000054c_0000_0010_8000_00aa006d2ea4
  0003a	8b 45 fc	 mov	 eax, DWORD PTR _this$[ebp]
  0003d	50		 push	 eax
  0003e	8b 4d f8	 mov	 ecx, DWORD PTR __hr$[ebp]
  00041	51		 push	 ecx
  00042	e8 00 00 00 00	 call	 ?_com_issue_errorex@@YGXJPAUIUnknown@@ABU_GUID@@@Z ; _com_issue_errorex
$LN2@GetValue:

; 229  :     return _variant_t(_result, false);

  00047	6a 00		 push	 0
  00049	8d 55 e4	 lea	 edx, DWORD PTR __result$[ebp]
  0004c	52		 push	 edx
  0004d	8b 4d 08	 mov	 ecx, DWORD PTR ___$ReturnUdt$[ebp]
  00050	e8 00 00 00 00	 call	 ??0_variant_t@@QAE@AAUtagVARIANT@@_N@Z ; _variant_t::_variant_t
  00055	8b 45 f4	 mov	 eax, DWORD PTR $T1[ebp]
  00058	83 c8 01	 or	 eax, 1
  0005b	89 45 f4	 mov	 DWORD PTR $T1[ebp], eax
  0005e	8b 45 08	 mov	 eax, DWORD PTR ___$ReturnUdt$[ebp]

; 230  : }

  00061	8b e5		 mov	 esp, ebp
  00063	5d		 pop	 ebp
  00064	c2 04 00	 ret	 4
?GetValue@Field20@ADOCG@@QAE?AV_variant_t@@XZ ENDP	; ADOCG::Field20::GetValue
_TEXT	ENDS
; Function compile flags: /Odtp
; File g:\网狐\happygamewh\服务端\中间目录\内核引擎\debug_ansi\msado15.tli
; File c:\program files (x86)\microsoft visual studio\2017\community\vc\tools\msvc\14.16.27023\include\comip.h
; File g:\网狐\happygamewh\服务端\中间目录\内核引擎\debug_ansi\msado15.tli
;	COMDAT ?GetItem@Errors@ADOCG@@QAE?AV?$_com_ptr_t@V?$_com_IIID@UError@ADOCG@@$1?_GUID_00000500_0000_0010_8000_00aa006d2ea4@@3U__s_GUID@@B@@@@ABV_variant_t@@@Z
_TEXT	SEGMENT
$T1 = -36						; size = 16
_pInterface$ = -20					; size = 4
$T2 = -16						; size = 4
__result$ = -12						; size = 4
__hr$ = -8						; size = 4
_this$ = -4						; size = 4
___$ReturnUdt$ = 8					; size = 4
_Index$ = 12						; size = 4
?GetItem@Errors@ADOCG@@QAE?AV?$_com_ptr_t@V?$_com_IIID@UError@ADOCG@@$1?_GUID_00000500_0000_0010_8000_00aa006d2ea4@@3U__s_GUID@@B@@@@ABV_variant_t@@@Z PROC ; ADOCG::Errors::GetItem, COMDAT
; _this$ = ecx

; 172  : inline ErrorPtr Errors::GetItem ( const _variant_t & Index ) {

  00000	55		 push	 ebp
  00001	8b ec		 mov	 ebp, esp
  00003	83 ec 24	 sub	 esp, 36			; 00000024H
  00006	89 4d fc	 mov	 DWORD PTR _this$[ebp], ecx
  00009	c7 45 f0 00 00
	00 00		 mov	 DWORD PTR $T2[ebp], 0

; 173  :     struct Error * _result = 0;

  00010	c7 45 f4 00 00
	00 00		 mov	 DWORD PTR __result$[ebp], 0

; 174  :     HRESULT _hr = get_Item(Index, &_result);

  00017	8b 45 0c	 mov	 eax, DWORD PTR _Index$[ebp]
  0001a	8b 08		 mov	 ecx, DWORD PTR [eax]
  0001c	89 4d dc	 mov	 DWORD PTR $T1[ebp], ecx
  0001f	8b 50 04	 mov	 edx, DWORD PTR [eax+4]
  00022	89 55 e0	 mov	 DWORD PTR $T1[ebp+4], edx
  00025	8b 48 08	 mov	 ecx, DWORD PTR [eax+8]
  00028	89 4d e4	 mov	 DWORD PTR $T1[ebp+8], ecx
  0002b	8b 50 0c	 mov	 edx, DWORD PTR [eax+12]
  0002e	89 55 e8	 mov	 DWORD PTR $T1[ebp+12], edx
  00031	8d 45 f4	 lea	 eax, DWORD PTR __result$[ebp]
  00034	50		 push	 eax
  00035	83 ec 10	 sub	 esp, 16			; 00000010H
  00038	8b cc		 mov	 ecx, esp
  0003a	8b 55 dc	 mov	 edx, DWORD PTR $T1[ebp]
  0003d	89 11		 mov	 DWORD PTR [ecx], edx
  0003f	8b 45 e0	 mov	 eax, DWORD PTR $T1[ebp+4]
  00042	89 41 04	 mov	 DWORD PTR [ecx+4], eax
  00045	8b 55 e4	 mov	 edx, DWORD PTR $T1[ebp+8]
  00048	89 51 08	 mov	 DWORD PTR [ecx+8], edx
  0004b	8b 45 e8	 mov	 eax, DWORD PTR $T1[ebp+12]
  0004e	89 41 0c	 mov	 DWORD PTR [ecx+12], eax
  00051	8b 4d fc	 mov	 ecx, DWORD PTR _this$[ebp]
  00054	51		 push	 ecx
  00055	8b 55 fc	 mov	 edx, DWORD PTR _this$[ebp]
  00058	8b 02		 mov	 eax, DWORD PTR [edx]
  0005a	8b 48 28	 mov	 ecx, DWORD PTR [eax+40]
  0005d	ff d1		 call	 ecx
  0005f	89 45 f8	 mov	 DWORD PTR __hr$[ebp], eax

; 175  :     if (FAILED(_hr)) _com_issue_errorex(_hr, this, __uuidof(this));

  00062	83 7d f8 00	 cmp	 DWORD PTR __hr$[ebp], 0
  00066	7d 12		 jge	 SHORT $LN2@GetItem
  00068	68 00 00 00 00	 push	 OFFSET __GUID_00000501_0000_0010_8000_00aa006d2ea4
  0006d	8b 55 fc	 mov	 edx, DWORD PTR _this$[ebp]
  00070	52		 push	 edx
  00071	8b 45 f8	 mov	 eax, DWORD PTR __hr$[ebp]
  00074	50		 push	 eax
  00075	e8 00 00 00 00	 call	 ?_com_issue_errorex@@YGXJPAUIUnknown@@ABU_GUID@@@Z ; _com_issue_errorex
$LN2@GetItem:

; 176  :     return ErrorPtr(_result, false);

  0007a	8b 4d f4	 mov	 ecx, DWORD PTR __result$[ebp]
  0007d	89 4d ec	 mov	 DWORD PTR _pInterface$[ebp], ecx
; File c:\program files (x86)\microsoft visual studio\2017\community\vc\tools\msvc\14.16.27023\include\comip.h

; 184  :         : m_pInterface(pInterface)

  00080	8b 55 08	 mov	 edx, DWORD PTR ___$ReturnUdt$[ebp]
  00083	8b 45 ec	 mov	 eax, DWORD PTR _pInterface$[ebp]
  00086	89 02		 mov	 DWORD PTR [edx], eax

; 185  :     {
; 186  :         if (fAddRef) {

  00088	33 c9		 xor	 ecx, ecx
  0008a	74 1a		 je	 SHORT $LN6@GetItem

; 826  :         if (m_pInterface != NULL) {

  0008c	8b 55 08	 mov	 edx, DWORD PTR ___$ReturnUdt$[ebp]
  0008f	83 3a 00	 cmp	 DWORD PTR [edx], 0
  00092	74 12		 je	 SHORT $LN6@GetItem

; 827  :             m_pInterface->AddRef();

  00094	8b 45 08	 mov	 eax, DWORD PTR ___$ReturnUdt$[ebp]
  00097	8b 08		 mov	 ecx, DWORD PTR [eax]
  00099	8b 55 08	 mov	 edx, DWORD PTR ___$ReturnUdt$[ebp]
  0009c	8b 02		 mov	 eax, DWORD PTR [edx]
  0009e	8b 09		 mov	 ecx, DWORD PTR [ecx]
  000a0	50		 push	 eax
  000a1	8b 51 04	 mov	 edx, DWORD PTR [ecx+4]
  000a4	ff d2		 call	 edx
$LN6@GetItem:
; File g:\网狐\happygamewh\服务端\中间目录\内核引擎\debug_ansi\msado15.tli

; 176  :     return ErrorPtr(_result, false);

  000a6	8b 45 f0	 mov	 eax, DWORD PTR $T2[ebp]
  000a9	83 c8 01	 or	 eax, 1
  000ac	89 45 f0	 mov	 DWORD PTR $T2[ebp], eax
  000af	8b 45 08	 mov	 eax, DWORD PTR ___$ReturnUdt$[ebp]

; 177  : }

  000b2	8b e5		 mov	 esp, ebp
  000b4	5d		 pop	 ebp
  000b5	c2 08 00	 ret	 8
?GetItem@Errors@ADOCG@@QAE?AV?$_com_ptr_t@V?$_com_IIID@UError@ADOCG@@$1?_GUID_00000500_0000_0010_8000_00aa006d2ea4@@3U__s_GUID@@B@@@@ABV_variant_t@@@Z ENDP ; ADOCG::Errors::GetItem
_TEXT	ENDS
; Function compile flags: /Odtp
; File g:\网狐\happygamewh\服务端\中间目录\内核引擎\debug_ansi\msado15.tli
;	COMDAT ?GetNumber@Error@ADOCG@@QAEJXZ
_TEXT	SEGMENT
__result$ = -12						; size = 4
__hr$ = -8						; size = 4
_this$ = -4						; size = 4
?GetNumber@Error@ADOCG@@QAEJXZ PROC			; ADOCG::Error::GetNumber, COMDAT
; _this$ = ecx

; 119  : inline long Error::GetNumber ( ) {

  00000	55		 push	 ebp
  00001	8b ec		 mov	 ebp, esp
  00003	83 ec 0c	 sub	 esp, 12			; 0000000cH
  00006	89 4d fc	 mov	 DWORD PTR _this$[ebp], ecx

; 120  :     long _result = 0;

  00009	c7 45 f4 00 00
	00 00		 mov	 DWORD PTR __result$[ebp], 0

; 121  :     HRESULT _hr = get_Number(&_result);

  00010	8d 45 f4	 lea	 eax, DWORD PTR __result$[ebp]
  00013	50		 push	 eax
  00014	8b 4d fc	 mov	 ecx, DWORD PTR _this$[ebp]
  00017	8b 11		 mov	 edx, DWORD PTR [ecx]
  00019	8b 45 fc	 mov	 eax, DWORD PTR _this$[ebp]
  0001c	50		 push	 eax
  0001d	8b 4a 1c	 mov	 ecx, DWORD PTR [edx+28]
  00020	ff d1		 call	 ecx
  00022	89 45 f8	 mov	 DWORD PTR __hr$[ebp], eax

; 122  :     if (FAILED(_hr)) _com_issue_errorex(_hr, this, __uuidof(this));

  00025	83 7d f8 00	 cmp	 DWORD PTR __hr$[ebp], 0
  00029	7d 12		 jge	 SHORT $LN2@GetNumber
  0002b	68 00 00 00 00	 push	 OFFSET __GUID_00000500_0000_0010_8000_00aa006d2ea4
  00030	8b 55 fc	 mov	 edx, DWORD PTR _this$[ebp]
  00033	52		 push	 edx
  00034	8b 45 f8	 mov	 eax, DWORD PTR __hr$[ebp]
  00037	50		 push	 eax
  00038	e8 00 00 00 00	 call	 ?_com_issue_errorex@@YGXJPAUIUnknown@@ABU_GUID@@@Z ; _com_issue_errorex
$LN2@GetNumber:

; 123  :     return _result;

  0003d	8b 45 f4	 mov	 eax, DWORD PTR __result$[ebp]

; 124  : }

  00040	8b e5		 mov	 esp, ebp
  00042	5d		 pop	 ebp
  00043	c3		 ret	 0
?GetNumber@Error@ADOCG@@QAEJXZ ENDP			; ADOCG::Error::GetNumber
_TEXT	ENDS
; Function compile flags: /Odtp
; File g:\网狐\happygamewh\服务端\中间目录\内核引擎\debug_ansi\msado15.tli
;	COMDAT ?Delete@_DynaCollection@ADOCG@@QAEJABV_variant_t@@@Z
_TEXT	SEGMENT
$T1 = -24						; size = 16
__hr$ = -8						; size = 4
_this$ = -4						; size = 4
_Index$ = 8						; size = 4
?Delete@_DynaCollection@ADOCG@@QAEJABV_variant_t@@@Z PROC ; ADOCG::_DynaCollection::Delete, COMDAT
; _this$ = ecx

; 44   : inline HRESULT _DynaCollection::Delete ( const _variant_t & Index ) {

  00000	55		 push	 ebp
  00001	8b ec		 mov	 ebp, esp
  00003	83 ec 18	 sub	 esp, 24			; 00000018H
  00006	89 4d fc	 mov	 DWORD PTR _this$[ebp], ecx

; 45   :     HRESULT _hr = raw_Delete(Index);

  00009	8b 45 08	 mov	 eax, DWORD PTR _Index$[ebp]
  0000c	8b 08		 mov	 ecx, DWORD PTR [eax]
  0000e	89 4d e8	 mov	 DWORD PTR $T1[ebp], ecx
  00011	8b 50 04	 mov	 edx, DWORD PTR [eax+4]
  00014	89 55 ec	 mov	 DWORD PTR $T1[ebp+4], edx
  00017	8b 48 08	 mov	 ecx, DWORD PTR [eax+8]
  0001a	89 4d f0	 mov	 DWORD PTR $T1[ebp+8], ecx
  0001d	8b 50 0c	 mov	 edx, DWORD PTR [eax+12]
  00020	89 55 f4	 mov	 DWORD PTR $T1[ebp+12], edx
  00023	83 ec 10	 sub	 esp, 16			; 00000010H
  00026	8b c4		 mov	 eax, esp
  00028	8b 4d e8	 mov	 ecx, DWORD PTR $T1[ebp]
  0002b	89 08		 mov	 DWORD PTR [eax], ecx
  0002d	8b 55 ec	 mov	 edx, DWORD PTR $T1[ebp+4]
  00030	89 50 04	 mov	 DWORD PTR [eax+4], edx
  00033	8b 4d f0	 mov	 ecx, DWORD PTR $T1[ebp+8]
  00036	89 48 08	 mov	 DWORD PTR [eax+8], ecx
  00039	8b 55 f4	 mov	 edx, DWORD PTR $T1[ebp+12]
  0003c	89 50 0c	 mov	 DWORD PTR [eax+12], edx
  0003f	8b 45 fc	 mov	 eax, DWORD PTR _this$[ebp]
  00042	8b 08		 mov	 ecx, DWORD PTR [eax]
  00044	8b 55 fc	 mov	 edx, DWORD PTR _this$[ebp]
  00047	52		 push	 edx
  00048	8b 41 2c	 mov	 eax, DWORD PTR [ecx+44]
  0004b	ff d0		 call	 eax
  0004d	89 45 f8	 mov	 DWORD PTR __hr$[ebp], eax

; 46   :     if (FAILED(_hr)) _com_issue_errorex(_hr, this, __uuidof(this));

  00050	83 7d f8 00	 cmp	 DWORD PTR __hr$[ebp], 0
  00054	7d 12		 jge	 SHORT $LN2@Delete
  00056	68 00 00 00 00	 push	 OFFSET __GUID_00000513_0000_0010_8000_00aa006d2ea4
  0005b	8b 4d fc	 mov	 ecx, DWORD PTR _this$[ebp]
  0005e	51		 push	 ecx
  0005f	8b 55 f8	 mov	 edx, DWORD PTR __hr$[ebp]
  00062	52		 push	 edx
  00063	e8 00 00 00 00	 call	 ?_com_issue_errorex@@YGXJPAUIUnknown@@ABU_GUID@@@Z ; _com_issue_errorex
$LN2@Delete:

; 47   :     return _hr;

  00068	8b 45 f8	 mov	 eax, DWORD PTR __hr$[ebp]

; 48   : }

  0006b	8b e5		 mov	 esp, ebp
  0006d	5d		 pop	 ebp
  0006e	c2 04 00	 ret	 4
?Delete@_DynaCollection@ADOCG@@QAEJABV_variant_t@@@Z ENDP ; ADOCG::_DynaCollection::Delete
_TEXT	ENDS
; Function compile flags: /Odtp
; File g:\网狐\happygamewh\服务端\中间目录\内核引擎\debug_ansi\msado15.tli
;	COMDAT ?Append@_DynaCollection@ADOCG@@QAEJPAUIDispatch@@@Z
_TEXT	SEGMENT
__hr$ = -8						; size = 4
_this$ = -4						; size = 4
_Object$ = 8						; size = 4
?Append@_DynaCollection@ADOCG@@QAEJPAUIDispatch@@@Z PROC ; ADOCG::_DynaCollection::Append, COMDAT
; _this$ = ecx

; 38   : inline HRESULT _DynaCollection::Append ( IDispatch * Object ) {

  00000	55		 push	 ebp
  00001	8b ec		 mov	 ebp, esp
  00003	83 ec 08	 sub	 esp, 8
  00006	89 4d fc	 mov	 DWORD PTR _this$[ebp], ecx

; 39   :     HRESULT _hr = raw_Append(Object);

  00009	8b 45 08	 mov	 eax, DWORD PTR _Object$[ebp]
  0000c	50		 push	 eax
  0000d	8b 4d fc	 mov	 ecx, DWORD PTR _this$[ebp]
  00010	8b 11		 mov	 edx, DWORD PTR [ecx]
  00012	8b 45 fc	 mov	 eax, DWORD PTR _this$[ebp]
  00015	50		 push	 eax
  00016	8b 4a 28	 mov	 ecx, DWORD PTR [edx+40]
  00019	ff d1		 call	 ecx
  0001b	89 45 f8	 mov	 DWORD PTR __hr$[ebp], eax

; 40   :     if (FAILED(_hr)) _com_issue_errorex(_hr, this, __uuidof(this));

  0001e	83 7d f8 00	 cmp	 DWORD PTR __hr$[ebp], 0
  00022	7d 12		 jge	 SHORT $LN2@Append
  00024	68 00 00 00 00	 push	 OFFSET __GUID_00000513_0000_0010_8000_00aa006d2ea4
  00029	8b 55 fc	 mov	 edx, DWORD PTR _this$[ebp]
  0002c	52		 push	 edx
  0002d	8b 45 f8	 mov	 eax, DWORD PTR __hr$[ebp]
  00030	50		 push	 eax
  00031	e8 00 00 00 00	 call	 ?_com_issue_errorex@@YGXJPAUIUnknown@@ABU_GUID@@@Z ; _com_issue_errorex
$LN2@Append:

; 41   :     return _hr;

  00036	8b 45 f8	 mov	 eax, DWORD PTR __hr$[ebp]

; 42   : }

  00039	8b e5		 mov	 esp, ebp
  0003b	5d		 pop	 ebp
  0003c	c2 04 00	 ret	 4
?Append@_DynaCollection@ADOCG@@QAEJPAUIDispatch@@@Z ENDP ; ADOCG::_DynaCollection::Append
_TEXT	ENDS
; Function compile flags: /Odtp
; File g:\网狐\happygamewh\服务端\中间目录\内核引擎\debug_ansi\msado15.tli
;	COMDAT ?GetCount@_Collection@ADOCG@@QAEJXZ
_TEXT	SEGMENT
__result$ = -12						; size = 4
__hr$ = -8						; size = 4
_this$ = -4						; size = 4
?GetCount@_Collection@ADOCG@@QAEJXZ PROC		; ADOCG::_Collection::GetCount, COMDAT
; _this$ = ecx

; 14   : inline long _Collection::GetCount ( ) {

  00000	55		 push	 ebp
  00001	8b ec		 mov	 ebp, esp
  00003	83 ec 0c	 sub	 esp, 12			; 0000000cH
  00006	89 4d fc	 mov	 DWORD PTR _this$[ebp], ecx

; 15   :     long _result = 0;

  00009	c7 45 f4 00 00
	00 00		 mov	 DWORD PTR __result$[ebp], 0

; 16   :     HRESULT _hr = get_Count(&_result);

  00010	8d 45 f4	 lea	 eax, DWORD PTR __result$[ebp]
  00013	50		 push	 eax
  00014	8b 4d fc	 mov	 ecx, DWORD PTR _this$[ebp]
  00017	8b 11		 mov	 edx, DWORD PTR [ecx]
  00019	8b 45 fc	 mov	 eax, DWORD PTR _this$[ebp]
  0001c	50		 push	 eax
  0001d	8b 4a 1c	 mov	 ecx, DWORD PTR [edx+28]
  00020	ff d1		 call	 ecx
  00022	89 45 f8	 mov	 DWORD PTR __hr$[ebp], eax

; 17   :     if (FAILED(_hr)) _com_issue_errorex(_hr, this, __uuidof(this));

  00025	83 7d f8 00	 cmp	 DWORD PTR __hr$[ebp], 0
  00029	7d 12		 jge	 SHORT $LN2@GetCount
  0002b	68 00 00 00 00	 push	 OFFSET __GUID_00000512_0000_0010_8000_00aa006d2ea4
  00030	8b 55 fc	 mov	 edx, DWORD PTR _this$[ebp]
  00033	52		 push	 edx
  00034	8b 45 f8	 mov	 eax, DWORD PTR __hr$[ebp]
  00037	50		 push	 eax
  00038	e8 00 00 00 00	 call	 ?_com_issue_errorex@@YGXJPAUIUnknown@@ABU_GUID@@@Z ; _com_issue_errorex
$LN2@GetCount:

; 18   :     return _result;

  0003d	8b 45 f4	 mov	 eax, DWORD PTR __result$[ebp]

; 19   : }

  00040	8b e5		 mov	 esp, ebp
  00042	5d		 pop	 ebp
  00043	c3		 ret	 0
?GetCount@_Collection@ADOCG@@QAEJXZ ENDP		; ADOCG::_Collection::GetCount
_TEXT	ENDS
; Function compile flags: /Odtp
; File c:\program files (x86)\microsoft visual studio\2017\community\vc\tools\msvc\14.16.27023\include\comdef.h
;	COMDAT ?Description@_com_error@@QBE?AV_bstr_t@@XZ
_TEXT	SEGMENT
$T1 = -12						; size = 4
_bstr$ = -8						; size = 4
_this$ = -4						; size = 4
___$ReturnUdt$ = 8					; size = 4
?Description@_com_error@@QBE?AV_bstr_t@@XZ PROC		; _com_error::Description, COMDAT
; _this$ = ecx

; 353  : {

  00000	55		 push	 ebp
  00001	8b ec		 mov	 ebp, esp
  00003	83 ec 0c	 sub	 esp, 12			; 0000000cH
  00006	89 4d fc	 mov	 DWORD PTR _this$[ebp], ecx
  00009	c7 45 f4 00 00
	00 00		 mov	 DWORD PTR $T1[ebp], 0

; 354  :     BSTR bstr = NULL;

  00010	c7 45 f8 00 00
	00 00		 mov	 DWORD PTR _bstr$[ebp], 0

; 355  :     if (m_perrinfo != NULL) {

  00017	8b 45 fc	 mov	 eax, DWORD PTR _this$[ebp]
  0001a	83 78 08 00	 cmp	 DWORD PTR [eax+8], 0
  0001e	74 23		 je	 SHORT $LN2@Descriptio

; 356  :         if (FAILED(m_perrinfo->GetDescription(&bstr))) {

  00020	8d 4d f8	 lea	 ecx, DWORD PTR _bstr$[ebp]
  00023	51		 push	 ecx
  00024	8b 55 fc	 mov	 edx, DWORD PTR _this$[ebp]
  00027	8b 42 08	 mov	 eax, DWORD PTR [edx+8]
  0002a	8b 4d fc	 mov	 ecx, DWORD PTR _this$[ebp]
  0002d	8b 51 08	 mov	 edx, DWORD PTR [ecx+8]
  00030	8b 00		 mov	 eax, DWORD PTR [eax]
  00032	52		 push	 edx
  00033	8b 48 14	 mov	 ecx, DWORD PTR [eax+20]
  00036	ff d1		 call	 ecx
  00038	85 c0		 test	 eax, eax
  0003a	7d 07		 jge	 SHORT $LN2@Descriptio

; 357  :             bstr = NULL;

  0003c	c7 45 f8 00 00
	00 00		 mov	 DWORD PTR _bstr$[ebp], 0
$LN2@Descriptio:

; 358  :         }
; 359  :     }
; 360  :     return _bstr_t(bstr, false);

  00043	6a 00		 push	 0
  00045	8b 55 f8	 mov	 edx, DWORD PTR _bstr$[ebp]
  00048	52		 push	 edx
  00049	8b 4d 08	 mov	 ecx, DWORD PTR ___$ReturnUdt$[ebp]
  0004c	e8 00 00 00 00	 call	 ??0_bstr_t@@QAE@PA_W_N@Z ; _bstr_t::_bstr_t
  00051	8b 45 f4	 mov	 eax, DWORD PTR $T1[ebp]
  00054	83 c8 01	 or	 eax, 1
  00057	89 45 f4	 mov	 DWORD PTR $T1[ebp], eax
  0005a	8b 45 08	 mov	 eax, DWORD PTR ___$ReturnUdt$[ebp]

; 361  : }

  0005d	8b e5		 mov	 esp, ebp
  0005f	5d		 pop	 ebp
  00060	c2 04 00	 ret	 4
?Description@_com_error@@QBE?AV_bstr_t@@XZ ENDP		; _com_error::Description
_TEXT	ENDS
; Function compile flags: /Odtp
; File c:\program files (x86)\microsoft visual studio\2017\community\vc\tools\msvc\14.16.27023\include\comdef.h
;	COMDAT ?Error@_com_error@@QBEJXZ
_TEXT	SEGMENT
_this$ = -4						; size = 4
?Error@_com_error@@QBEJXZ PROC				; _com_error::Error, COMDAT
; _this$ = ecx

; 335  : {

  00000	55		 push	 ebp
  00001	8b ec		 mov	 ebp, esp
  00003	51		 push	 ecx
  00004	89 4d fc	 mov	 DWORD PTR _this$[ebp], ecx

; 336  :     return m_hresult;

  00007	8b 45 fc	 mov	 eax, DWORD PTR _this$[ebp]
  0000a	8b 40 04	 mov	 eax, DWORD PTR [eax+4]

; 337  : }

  0000d	8b e5		 mov	 esp, ebp
  0000f	5d		 pop	 ebp
  00010	c3		 ret	 0
?Error@_com_error@@QBEJXZ ENDP				; _com_error::Error
_TEXT	ENDS
; Function compile flags: /Odtp
; File c:\program files (x86)\microsoft visual studio\2017\community\vc\tools\msvc\14.16.27023\include\xloctime
;	COMDAT ??$_Getvals@_W@?$time_get@_WV?$istreambuf_iterator@_WU?$char_traits@_W@std@@@std@@@std@@IAEX_WABV_Locinfo@1@@Z
_TEXT	SEGMENT
_this$ = -52						; size = 4
$T1 = -48						; size = 44
__$ArrayPad$ = -4					; size = 4
___formal$ = 8						; size = 2
__Lobj$ = 12						; size = 4
??$_Getvals@_W@?$time_get@_WV?$istreambuf_iterator@_WU?$char_traits@_W@std@@@std@@@std@@IAEX_WABV_Locinfo@1@@Z PROC ; std::time_get<wchar_t,std::istreambuf_iterator<wchar_t,std::char_traits<wchar_t> > >::_Getvals<wchar_t>, COMDAT
; _this$ = ecx

; 216  : 		{	// get values

  00000	55		 push	 ebp
  00001	8b ec		 mov	 ebp, esp
  00003	83 ec 34	 sub	 esp, 52			; 00000034H
  00006	a1 00 00 00 00	 mov	 eax, DWORD PTR ___security_cookie
  0000b	33 c5		 xor	 eax, ebp
  0000d	89 45 fc	 mov	 DWORD PTR __$ArrayPad$[ebp], eax
  00010	56		 push	 esi
  00011	57		 push	 edi
  00012	89 4d cc	 mov	 DWORD PTR _this$[ebp], ecx

; 217  : 		_Cvt = _Lobj._Getcvt();

  00015	8d 45 d0	 lea	 eax, DWORD PTR $T1[ebp]
  00018	50		 push	 eax
  00019	8b 4d 0c	 mov	 ecx, DWORD PTR __Lobj$[ebp]
  0001c	ff 15 00 00 00
	00		 call	 DWORD PTR __imp_?_Getcvt@_Locinfo@std@@QBE?AU_Cvtvec@@XZ
  00022	8b 7d cc	 mov	 edi, DWORD PTR _this$[ebp]
  00025	83 c7 18	 add	 edi, 24			; 00000018H
  00028	b9 0b 00 00 00	 mov	 ecx, 11			; 0000000bH
  0002d	8b f0		 mov	 esi, eax
  0002f	f3 a5		 rep movsd

; 218  : 
; 219  : 		if (is_same_v<_Elem2, wchar_t>)

  00031	b9 01 00 00 00	 mov	 ecx, 1
  00036	85 c9		 test	 ecx, ecx
  00038	74 45		 je	 SHORT $LN2@Getvals

; 220  : 			{
; 221  : 			_Days = (const _Elem *)_Maklocwcs((const wchar_t *)_Lobj._W_Getdays());

  0003a	8b 4d 0c	 mov	 ecx, DWORD PTR __Lobj$[ebp]
  0003d	ff 15 00 00 00
	00		 call	 DWORD PTR __imp_?_W_Getdays@_Locinfo@std@@QBEPBGXZ
  00043	50		 push	 eax
  00044	e8 00 00 00 00	 call	 ?_Maklocwcs@std@@YAPA_WPB_W@Z ; std::_Maklocwcs
  00049	83 c4 04	 add	 esp, 4
  0004c	8b 55 cc	 mov	 edx, DWORD PTR _this$[ebp]
  0004f	89 42 08	 mov	 DWORD PTR [edx+8], eax

; 222  : 			_Months = (const _Elem *)_Maklocwcs((const wchar_t *)_Lobj._W_Getmonths());

  00052	8b 4d 0c	 mov	 ecx, DWORD PTR __Lobj$[ebp]
  00055	ff 15 00 00 00
	00		 call	 DWORD PTR __imp_?_W_Getmonths@_Locinfo@std@@QBEPBGXZ
  0005b	50		 push	 eax
  0005c	e8 00 00 00 00	 call	 ?_Maklocwcs@std@@YAPA_WPB_W@Z ; std::_Maklocwcs
  00061	83 c4 04	 add	 esp, 4
  00064	8b 4d cc	 mov	 ecx, DWORD PTR _this$[ebp]
  00067	89 41 0c	 mov	 DWORD PTR [ecx+12], eax

; 223  : 			_Ampm = (const _Elem *)_Maklocwcs(L":AM:am:PM:pm");

  0006a	68 00 00 00 00	 push	 OFFSET ??_C@_1BK@MHIKGOKE@?$AA?3?$AAA?$AAM?$AA?3?$AAa?$AAm?$AA?3?$AAP?$AAM?$AA?3?$AAp?$AAm@
  0006f	e8 00 00 00 00	 call	 ?_Maklocwcs@std@@YAPA_WPB_W@Z ; std::_Maklocwcs
  00074	83 c4 04	 add	 esp, 4
  00077	8b 55 cc	 mov	 edx, DWORD PTR _this$[ebp]
  0007a	89 42 10	 mov	 DWORD PTR [edx+16], eax

; 224  : 			}
; 225  : 		else

  0007d	eb 5e		 jmp	 SHORT $LN1@Getvals
$LN2@Getvals:

; 226  : 			{
; 227  : 			_Days = _Maklocstr(_Lobj._Getdays(), static_cast<_Elem *>(nullptr), _Cvt);

  0007f	8b 45 cc	 mov	 eax, DWORD PTR _this$[ebp]
  00082	83 c0 18	 add	 eax, 24			; 00000018H
  00085	50		 push	 eax
  00086	6a 00		 push	 0
  00088	8b 4d 0c	 mov	 ecx, DWORD PTR __Lobj$[ebp]
  0008b	ff 15 00 00 00
	00		 call	 DWORD PTR __imp_?_Getdays@_Locinfo@std@@QBEPBDXZ
  00091	50		 push	 eax
  00092	e8 00 00 00 00	 call	 ??$_Maklocstr@_W@std@@YAPA_WPBDPA_WABU_Cvtvec@@@Z ; std::_Maklocstr<wchar_t>
  00097	83 c4 0c	 add	 esp, 12			; 0000000cH
  0009a	8b 4d cc	 mov	 ecx, DWORD PTR _this$[ebp]
  0009d	89 41 08	 mov	 DWORD PTR [ecx+8], eax

; 228  : 			_Months = _Maklocstr(_Lobj._Getmonths(), static_cast<_Elem *>(nullptr), _Cvt);

  000a0	8b 55 cc	 mov	 edx, DWORD PTR _this$[ebp]
  000a3	83 c2 18	 add	 edx, 24			; 00000018H
  000a6	52		 push	 edx
  000a7	6a 00		 push	 0
  000a9	8b 4d 0c	 mov	 ecx, DWORD PTR __Lobj$[ebp]
  000ac	ff 15 00 00 00
	00		 call	 DWORD PTR __imp_?_Getmonths@_Locinfo@std@@QBEPBDXZ
  000b2	50		 push	 eax
  000b3	e8 00 00 00 00	 call	 ??$_Maklocstr@_W@std@@YAPA_WPBDPA_WABU_Cvtvec@@@Z ; std::_Maklocstr<wchar_t>
  000b8	83 c4 0c	 add	 esp, 12			; 0000000cH
  000bb	8b 4d cc	 mov	 ecx, DWORD PTR _this$[ebp]
  000be	89 41 0c	 mov	 DWORD PTR [ecx+12], eax

; 229  : 			_Ampm = _Maklocstr(":AM:am:PM:pm", static_cast<_Elem *>(nullptr), _Cvt);

  000c1	8b 55 cc	 mov	 edx, DWORD PTR _this$[ebp]
  000c4	83 c2 18	 add	 edx, 24			; 00000018H
  000c7	52		 push	 edx
  000c8	6a 00		 push	 0
  000ca	68 00 00 00 00	 push	 OFFSET ??_C@_0N@LPFKKEBD@?3AM?3am?3PM?3pm@
  000cf	e8 00 00 00 00	 call	 ??$_Maklocstr@_W@std@@YAPA_WPBDPA_WABU_Cvtvec@@@Z ; std::_Maklocstr<wchar_t>
  000d4	83 c4 0c	 add	 esp, 12			; 0000000cH
  000d7	8b 4d cc	 mov	 ecx, DWORD PTR _this$[ebp]
  000da	89 41 10	 mov	 DWORD PTR [ecx+16], eax
$LN1@Getvals:

; 230  : 			}
; 231  : 		}

  000dd	5f		 pop	 edi
  000de	5e		 pop	 esi
  000df	8b 4d fc	 mov	 ecx, DWORD PTR __$ArrayPad$[ebp]
  000e2	33 cd		 xor	 ecx, ebp
  000e4	e8 00 00 00 00	 call	 @__security_check_cookie@4
  000e9	8b e5		 mov	 esp, ebp
  000eb	5d		 pop	 ebp
  000ec	c2 08 00	 ret	 8
??$_Getvals@_W@?$time_get@_WV?$istreambuf_iterator@_WU?$char_traits@_W@std@@@std@@@std@@IAEX_WABV_Locinfo@1@@Z ENDP ; std::time_get<wchar_t,std::istreambuf_iterator<wchar_t,std::char_traits<wchar_t> > >::_Getvals<wchar_t>
_TEXT	ENDS
; Function compile flags: /Odtp
; File c:\program files (x86)\microsoft visual studio\2017\community\vc\tools\msvc\14.16.27023\include\xloctime
;	COMDAT ??$_Getvals@_W@?$time_get@DV?$istreambuf_iterator@DU?$char_traits@D@std@@@std@@@std@@IAEX_WABV_Locinfo@1@@Z
_TEXT	SEGMENT
_this$ = -52						; size = 4
$T1 = -48						; size = 44
__$ArrayPad$ = -4					; size = 4
___formal$ = 8						; size = 2
__Lobj$ = 12						; size = 4
??$_Getvals@_W@?$time_get@DV?$istreambuf_iterator@DU?$char_traits@D@std@@@std@@@std@@IAEX_WABV_Locinfo@1@@Z PROC ; std::time_get<char,std::istreambuf_iterator<char,std::char_traits<char> > >::_Getvals<wchar_t>, COMDAT
; _this$ = ecx

; 216  : 		{	// get values

  00000	55		 push	 ebp
  00001	8b ec		 mov	 ebp, esp
  00003	83 ec 34	 sub	 esp, 52			; 00000034H
  00006	a1 00 00 00 00	 mov	 eax, DWORD PTR ___security_cookie
  0000b	33 c5		 xor	 eax, ebp
  0000d	89 45 fc	 mov	 DWORD PTR __$ArrayPad$[ebp], eax
  00010	56		 push	 esi
  00011	57		 push	 edi
  00012	89 4d cc	 mov	 DWORD PTR _this$[ebp], ecx

; 217  : 		_Cvt = _Lobj._Getcvt();

  00015	8d 45 d0	 lea	 eax, DWORD PTR $T1[ebp]
  00018	50		 push	 eax
  00019	8b 4d 0c	 mov	 ecx, DWORD PTR __Lobj$[ebp]
  0001c	ff 15 00 00 00
	00		 call	 DWORD PTR __imp_?_Getcvt@_Locinfo@std@@QBE?AU_Cvtvec@@XZ
  00022	8b 7d cc	 mov	 edi, DWORD PTR _this$[ebp]
  00025	83 c7 18	 add	 edi, 24			; 00000018H
  00028	b9 0b 00 00 00	 mov	 ecx, 11			; 0000000bH
  0002d	8b f0		 mov	 esi, eax
  0002f	f3 a5		 rep movsd

; 218  : 
; 219  : 		if (is_same_v<_Elem2, wchar_t>)

  00031	b9 01 00 00 00	 mov	 ecx, 1
  00036	85 c9		 test	 ecx, ecx
  00038	74 45		 je	 SHORT $LN2@Getvals

; 220  : 			{
; 221  : 			_Days = (const _Elem *)_Maklocwcs((const wchar_t *)_Lobj._W_Getdays());

  0003a	8b 4d 0c	 mov	 ecx, DWORD PTR __Lobj$[ebp]
  0003d	ff 15 00 00 00
	00		 call	 DWORD PTR __imp_?_W_Getdays@_Locinfo@std@@QBEPBGXZ
  00043	50		 push	 eax
  00044	e8 00 00 00 00	 call	 ?_Maklocwcs@std@@YAPA_WPB_W@Z ; std::_Maklocwcs
  00049	83 c4 04	 add	 esp, 4
  0004c	8b 55 cc	 mov	 edx, DWORD PTR _this$[ebp]
  0004f	89 42 08	 mov	 DWORD PTR [edx+8], eax

; 222  : 			_Months = (const _Elem *)_Maklocwcs((const wchar_t *)_Lobj._W_Getmonths());

  00052	8b 4d 0c	 mov	 ecx, DWORD PTR __Lobj$[ebp]
  00055	ff 15 00 00 00
	00		 call	 DWORD PTR __imp_?_W_Getmonths@_Locinfo@std@@QBEPBGXZ
  0005b	50		 push	 eax
  0005c	e8 00 00 00 00	 call	 ?_Maklocwcs@std@@YAPA_WPB_W@Z ; std::_Maklocwcs
  00061	83 c4 04	 add	 esp, 4
  00064	8b 4d cc	 mov	 ecx, DWORD PTR _this$[ebp]
  00067	89 41 0c	 mov	 DWORD PTR [ecx+12], eax

; 223  : 			_Ampm = (const _Elem *)_Maklocwcs(L":AM:am:PM:pm");

  0006a	68 00 00 00 00	 push	 OFFSET ??_C@_1BK@MHIKGOKE@?$AA?3?$AAA?$AAM?$AA?3?$AAa?$AAm?$AA?3?$AAP?$AAM?$AA?3?$AAp?$AAm@
  0006f	e8 00 00 00 00	 call	 ?_Maklocwcs@std@@YAPA_WPB_W@Z ; std::_Maklocwcs
  00074	83 c4 04	 add	 esp, 4
  00077	8b 55 cc	 mov	 edx, DWORD PTR _this$[ebp]
  0007a	89 42 10	 mov	 DWORD PTR [edx+16], eax

; 224  : 			}
; 225  : 		else

  0007d	eb 5e		 jmp	 SHORT $LN1@Getvals
$LN2@Getvals:

; 226  : 			{
; 227  : 			_Days = _Maklocstr(_Lobj._Getdays(), static_cast<_Elem *>(nullptr), _Cvt);

  0007f	8b 45 cc	 mov	 eax, DWORD PTR _this$[ebp]
  00082	83 c0 18	 add	 eax, 24			; 00000018H
  00085	50		 push	 eax
  00086	6a 00		 push	 0
  00088	8b 4d 0c	 mov	 ecx, DWORD PTR __Lobj$[ebp]
  0008b	ff 15 00 00 00
	00		 call	 DWORD PTR __imp_?_Getdays@_Locinfo@std@@QBEPBDXZ
  00091	50		 push	 eax
  00092	e8 00 00 00 00	 call	 ??$_Maklocstr@D@std@@YAPADPBDPADABU_Cvtvec@@@Z ; std::_Maklocstr<char>
  00097	83 c4 0c	 add	 esp, 12			; 0000000cH
  0009a	8b 4d cc	 mov	 ecx, DWORD PTR _this$[ebp]
  0009d	89 41 08	 mov	 DWORD PTR [ecx+8], eax

; 228  : 			_Months = _Maklocstr(_Lobj._Getmonths(), static_cast<_Elem *>(nullptr), _Cvt);

  000a0	8b 55 cc	 mov	 edx, DWORD PTR _this$[ebp]
  000a3	83 c2 18	 add	 edx, 24			; 00000018H
  000a6	52		 push	 edx
  000a7	6a 00		 push	 0
  000a9	8b 4d 0c	 mov	 ecx, DWORD PTR __Lobj$[ebp]
  000ac	ff 15 00 00 00
	00		 call	 DWORD PTR __imp_?_Getmonths@_Locinfo@std@@QBEPBDXZ
  000b2	50		 push	 eax
  000b3	e8 00 00 00 00	 call	 ??$_Maklocstr@D@std@@YAPADPBDPADABU_Cvtvec@@@Z ; std::_Maklocstr<char>
  000b8	83 c4 0c	 add	 esp, 12			; 0000000cH
  000bb	8b 4d cc	 mov	 ecx, DWORD PTR _this$[ebp]
  000be	89 41 0c	 mov	 DWORD PTR [ecx+12], eax

; 229  : 			_Ampm = _Maklocstr(":AM:am:PM:pm", static_cast<_Elem *>(nullptr), _Cvt);

  000c1	8b 55 cc	 mov	 edx, DWORD PTR _this$[ebp]
  000c4	83 c2 18	 add	 edx, 24			; 00000018H
  000c7	52		 push	 edx
  000c8	6a 00		 push	 0
  000ca	68 00 00 00 00	 push	 OFFSET ??_C@_0N@LPFKKEBD@?3AM?3am?3PM?3pm@
  000cf	e8 00 00 00 00	 call	 ??$_Maklocstr@D@std@@YAPADPBDPADABU_Cvtvec@@@Z ; std::_Maklocstr<char>
  000d4	83 c4 0c	 add	 esp, 12			; 0000000cH
  000d7	8b 4d cc	 mov	 ecx, DWORD PTR _this$[ebp]
  000da	89 41 10	 mov	 DWORD PTR [ecx+16], eax
$LN1@Getvals:

; 230  : 			}
; 231  : 		}

  000dd	5f		 pop	 edi
  000de	5e		 pop	 esi
  000df	8b 4d fc	 mov	 ecx, DWORD PTR __$ArrayPad$[ebp]
  000e2	33 cd		 xor	 ecx, ebp
  000e4	e8 00 00 00 00	 call	 @__security_check_cookie@4
  000e9	8b e5		 mov	 esp, ebp
  000eb	5d		 pop	 ebp
  000ec	c2 08 00	 ret	 8
??$_Getvals@_W@?$time_get@DV?$istreambuf_iterator@DU?$char_traits@D@std@@@std@@@std@@IAEX_WABV_Locinfo@1@@Z ENDP ; std::time_get<char,std::istreambuf_iterator<char,std::char_traits<char> > >::_Getvals<wchar_t>
_TEXT	ENDS
; Function compile flags: /Odtp
; File g:\网狐\happygamewh\服务端\系统模块\全局定义\module.h
;	COMDAT ?InterfaceVersionCompare@@YA_NKK@Z
_TEXT	SEGMENT
_dwVersion$ = -40					; size = 4
_dwVersion$ = -36					; size = 4
_dwVersion$ = -32					; size = 4
_dwVersion$ = -28					; size = 4
_dwVersion$ = -24					; size = 4
_dwVersion$ = -20					; size = 4
_dwVersion$ = -16					; size = 4
_dwVersion$ = -12					; size = 4
$T1 = -8						; size = 1
$T2 = -7						; size = 1
$T3 = -6						; size = 1
$T4 = -5						; size = 1
$T5 = -4						; size = 1
$T6 = -3						; size = 1
$T7 = -2						; size = 1
$T8 = -1						; size = 1
_dwQueryVer$ = 8					; size = 4
_dwInterfaceVer$ = 12					; size = 4
?InterfaceVersionCompare@@YA_NKK@Z PROC			; InterfaceVersionCompare, COMDAT

; 68   : {

  00000	55		 push	 ebp
  00001	8b ec		 mov	 ebp, esp
  00003	83 ec 28	 sub	 esp, 40			; 00000028H

; 69   : 	if (GetSubVer(dwQueryVer)>GetSubVer(dwInterfaceVer)) return false;

  00006	8b 45 08	 mov	 eax, DWORD PTR _dwQueryVer$[ebp]
  00009	89 45 f4	 mov	 DWORD PTR _dwVersion$[ebp], eax

; 57   : 	return ((BYTE *)&dwVersion)[1];

  0000c	b9 01 00 00 00	 mov	 ecx, 1
  00011	c1 e1 00	 shl	 ecx, 0
  00014	8a 54 0d f4	 mov	 dl, BYTE PTR _dwVersion$[ebp+ecx]
  00018	88 55 ff	 mov	 BYTE PTR $T8[ebp], dl

; 69   : 	if (GetSubVer(dwQueryVer)>GetSubVer(dwInterfaceVer)) return false;

  0001b	8b 45 0c	 mov	 eax, DWORD PTR _dwInterfaceVer$[ebp]
  0001e	89 45 f0	 mov	 DWORD PTR _dwVersion$[ebp], eax

; 57   : 	return ((BYTE *)&dwVersion)[1];

  00021	b9 01 00 00 00	 mov	 ecx, 1
  00026	c1 e1 00	 shl	 ecx, 0
  00029	8a 54 0d f0	 mov	 dl, BYTE PTR _dwVersion$[ebp+ecx]
  0002d	88 55 fe	 mov	 BYTE PTR $T7[ebp], dl

; 69   : 	if (GetSubVer(dwQueryVer)>GetSubVer(dwInterfaceVer)) return false;

  00030	0f b6 45 ff	 movzx	 eax, BYTE PTR $T8[ebp]
  00034	0f b6 4d fe	 movzx	 ecx, BYTE PTR $T7[ebp]
  00038	3b c1		 cmp	 eax, ecx
  0003a	7e 07		 jle	 SHORT $LN2@InterfaceV
  0003c	32 c0		 xor	 al, al
  0003e	e9 ae 00 00 00	 jmp	 $LN1@InterfaceV
$LN2@InterfaceV:

; 70   : 	if (GetMainVer(dwQueryVer)!=GetMainVer(dwInterfaceVer)) return false;

  00043	8b 55 08	 mov	 edx, DWORD PTR _dwQueryVer$[ebp]
  00046	89 55 ec	 mov	 DWORD PTR _dwVersion$[ebp], edx

; 51   : 	return ((BYTE *)&dwVersion)[2];

  00049	b8 01 00 00 00	 mov	 eax, 1
  0004e	d1 e0		 shl	 eax, 1
  00050	8a 4c 05 ec	 mov	 cl, BYTE PTR _dwVersion$[ebp+eax]
  00054	88 4d fd	 mov	 BYTE PTR $T6[ebp], cl

; 70   : 	if (GetMainVer(dwQueryVer)!=GetMainVer(dwInterfaceVer)) return false;

  00057	8b 55 0c	 mov	 edx, DWORD PTR _dwInterfaceVer$[ebp]
  0005a	89 55 e8	 mov	 DWORD PTR _dwVersion$[ebp], edx

; 51   : 	return ((BYTE *)&dwVersion)[2];

  0005d	b8 01 00 00 00	 mov	 eax, 1
  00062	d1 e0		 shl	 eax, 1
  00064	8a 4c 05 e8	 mov	 cl, BYTE PTR _dwVersion$[ebp+eax]
  00068	88 4d fc	 mov	 BYTE PTR $T5[ebp], cl

; 70   : 	if (GetMainVer(dwQueryVer)!=GetMainVer(dwInterfaceVer)) return false;

  0006b	0f b6 55 fd	 movzx	 edx, BYTE PTR $T6[ebp]
  0006f	0f b6 45 fc	 movzx	 eax, BYTE PTR $T5[ebp]
  00073	3b d0		 cmp	 edx, eax
  00075	74 04		 je	 SHORT $LN3@InterfaceV
  00077	32 c0		 xor	 al, al
  00079	eb 76		 jmp	 SHORT $LN1@InterfaceV
$LN3@InterfaceV:

; 71   : 	if (GetBuildVer(dwQueryVer)!=GetBuildVer(dwInterfaceVer)) return false;

  0007b	8b 4d 08	 mov	 ecx, DWORD PTR _dwQueryVer$[ebp]
  0007e	89 4d e4	 mov	 DWORD PTR _dwVersion$[ebp], ecx

; 63   : 	return ((BYTE *)&dwVersion)[0];

  00081	ba 01 00 00 00	 mov	 edx, 1
  00086	6b c2 00	 imul	 eax, edx, 0
  00089	8a 4c 05 e4	 mov	 cl, BYTE PTR _dwVersion$[ebp+eax]
  0008d	88 4d fb	 mov	 BYTE PTR $T4[ebp], cl

; 71   : 	if (GetBuildVer(dwQueryVer)!=GetBuildVer(dwInterfaceVer)) return false;

  00090	8b 55 0c	 mov	 edx, DWORD PTR _dwInterfaceVer$[ebp]
  00093	89 55 e0	 mov	 DWORD PTR _dwVersion$[ebp], edx

; 63   : 	return ((BYTE *)&dwVersion)[0];

  00096	b8 01 00 00 00	 mov	 eax, 1
  0009b	6b c8 00	 imul	 ecx, eax, 0
  0009e	8a 54 0d e0	 mov	 dl, BYTE PTR _dwVersion$[ebp+ecx]
  000a2	88 55 fa	 mov	 BYTE PTR $T3[ebp], dl

; 71   : 	if (GetBuildVer(dwQueryVer)!=GetBuildVer(dwInterfaceVer)) return false;

  000a5	0f b6 45 fb	 movzx	 eax, BYTE PTR $T4[ebp]
  000a9	0f b6 4d fa	 movzx	 ecx, BYTE PTR $T3[ebp]
  000ad	3b c1		 cmp	 eax, ecx
  000af	74 04		 je	 SHORT $LN4@InterfaceV
  000b1	32 c0		 xor	 al, al
  000b3	eb 3c		 jmp	 SHORT $LN1@InterfaceV
$LN4@InterfaceV:

; 72   : 	if (GetProductVer(dwQueryVer)!=GetProductVer(dwInterfaceVer)) return false;

  000b5	8b 55 08	 mov	 edx, DWORD PTR _dwQueryVer$[ebp]
  000b8	89 55 dc	 mov	 DWORD PTR _dwVersion$[ebp], edx

; 45   : 	return ((BYTE *)&dwVersion)[3];

  000bb	b8 01 00 00 00	 mov	 eax, 1
  000c0	6b c8 03	 imul	 ecx, eax, 3
  000c3	8a 54 0d dc	 mov	 dl, BYTE PTR _dwVersion$[ebp+ecx]
  000c7	88 55 f9	 mov	 BYTE PTR $T2[ebp], dl

; 72   : 	if (GetProductVer(dwQueryVer)!=GetProductVer(dwInterfaceVer)) return false;

  000ca	8b 45 0c	 mov	 eax, DWORD PTR _dwInterfaceVer$[ebp]
  000cd	89 45 d8	 mov	 DWORD PTR _dwVersion$[ebp], eax

; 45   : 	return ((BYTE *)&dwVersion)[3];

  000d0	b9 01 00 00 00	 mov	 ecx, 1
  000d5	6b d1 03	 imul	 edx, ecx, 3
  000d8	8a 44 15 d8	 mov	 al, BYTE PTR _dwVersion$[ebp+edx]
  000dc	88 45 f8	 mov	 BYTE PTR $T1[ebp], al

; 72   : 	if (GetProductVer(dwQueryVer)!=GetProductVer(dwInterfaceVer)) return false;

  000df	0f b6 4d f9	 movzx	 ecx, BYTE PTR $T2[ebp]
  000e3	0f b6 55 f8	 movzx	 edx, BYTE PTR $T1[ebp]
  000e7	3b ca		 cmp	 ecx, edx
  000e9	74 04		 je	 SHORT $LN5@InterfaceV
  000eb	32 c0		 xor	 al, al
  000ed	eb 02		 jmp	 SHORT $LN1@InterfaceV
$LN5@InterfaceV:

; 73   : 	return true;

  000ef	b0 01		 mov	 al, 1
$LN1@InterfaceV:

; 74   : };

  000f1	8b e5		 mov	 esp, ebp
  000f3	5d		 pop	 ebp
  000f4	c3		 ret	 0
?InterfaceVersionCompare@@YA_NKK@Z ENDP			; InterfaceVersionCompare
_TEXT	ENDS
; Function compile flags: /Odtp
; File g:\网狐\happygamewh\服务端\系统模块\全局定义\module.h
;	COMDAT ?GetBuildVer@@YAEK@Z
_TEXT	SEGMENT
_dwVersion$ = 8						; size = 4
?GetBuildVer@@YAEK@Z PROC				; GetBuildVer, COMDAT

; 62   : {

  00000	55		 push	 ebp
  00001	8b ec		 mov	 ebp, esp

; 63   : 	return ((BYTE *)&dwVersion)[0];

  00003	b8 01 00 00 00	 mov	 eax, 1
  00008	6b c8 00	 imul	 ecx, eax, 0
  0000b	8a 44 0d 08	 mov	 al, BYTE PTR _dwVersion$[ebp+ecx]

; 64   : }

  0000f	5d		 pop	 ebp
  00010	c3		 ret	 0
?GetBuildVer@@YAEK@Z ENDP				; GetBuildVer
_TEXT	ENDS
; Function compile flags: /Odtp
; File g:\网狐\happygamewh\服务端\系统模块\全局定义\module.h
;	COMDAT ?GetSubVer@@YAEK@Z
_TEXT	SEGMENT
_dwVersion$ = 8						; size = 4
?GetSubVer@@YAEK@Z PROC					; GetSubVer, COMDAT

; 56   : {

  00000	55		 push	 ebp
  00001	8b ec		 mov	 ebp, esp

; 57   : 	return ((BYTE *)&dwVersion)[1];

  00003	b8 01 00 00 00	 mov	 eax, 1
  00008	c1 e0 00	 shl	 eax, 0
  0000b	8a 44 05 08	 mov	 al, BYTE PTR _dwVersion$[ebp+eax]

; 58   : }

  0000f	5d		 pop	 ebp
  00010	c3		 ret	 0
?GetSubVer@@YAEK@Z ENDP					; GetSubVer
_TEXT	ENDS
; Function compile flags: /Odtp
; File g:\网狐\happygamewh\服务端\系统模块\全局定义\module.h
;	COMDAT ?GetMainVer@@YAEK@Z
_TEXT	SEGMENT
_dwVersion$ = 8						; size = 4
?GetMainVer@@YAEK@Z PROC				; GetMainVer, COMDAT

; 50   : {

  00000	55		 push	 ebp
  00001	8b ec		 mov	 ebp, esp

; 51   : 	return ((BYTE *)&dwVersion)[2];

  00003	b8 01 00 00 00	 mov	 eax, 1
  00008	d1 e0		 shl	 eax, 1
  0000a	8a 44 05 08	 mov	 al, BYTE PTR _dwVersion$[ebp+eax]

; 52   : }

  0000e	5d		 pop	 ebp
  0000f	c3		 ret	 0
?GetMainVer@@YAEK@Z ENDP				; GetMainVer
_TEXT	ENDS
; Function compile flags: /Odtp
; File g:\网狐\happygamewh\服务端\系统模块\全局定义\module.h
;	COMDAT ?GetProductVer@@YAEK@Z
_TEXT	SEGMENT
_dwVersion$ = 8						; size = 4
?GetProductVer@@YAEK@Z PROC				; GetProductVer, COMDAT

; 44   : {

  00000	55		 push	 ebp
  00001	8b ec		 mov	 ebp, esp

; 45   : 	return ((BYTE *)&dwVersion)[3];

  00003	b8 01 00 00 00	 mov	 eax, 1
  00008	6b c8 03	 imul	 ecx, eax, 3
  0000b	8a 44 0d 08	 mov	 al, BYTE PTR _dwVersion$[ebp+ecx]

; 46   : }

  0000f	5d		 pop	 ebp
  00010	c3		 ret	 0
?GetProductVer@@YAEK@Z ENDP				; GetProductVer
_TEXT	ENDS
; Function compile flags: /Odtp
;	COMDAT ??0IUnknownEx@@QAE@XZ
_TEXT	SEGMENT
_this$ = -4						; size = 4
??0IUnknownEx@@QAE@XZ PROC				; IUnknownEx::IUnknownEx, COMDAT
; _this$ = ecx
  00000	55		 push	 ebp
  00001	8b ec		 mov	 ebp, esp
  00003	51		 push	 ecx
  00004	89 4d fc	 mov	 DWORD PTR _this$[ebp], ecx
  00007	8b 45 fc	 mov	 eax, DWORD PTR _this$[ebp]
  0000a	c7 00 00 00 00
	00		 mov	 DWORD PTR [eax], OFFSET ??_7IUnknownEx@@6B@
  00010	8b 45 fc	 mov	 eax, DWORD PTR _this$[ebp]
  00013	8b e5		 mov	 esp, ebp
  00015	5d		 pop	 ebp
  00016	c3		 ret	 0
??0IUnknownEx@@QAE@XZ ENDP				; IUnknownEx::IUnknownEx
_TEXT	ENDS
; Function compile flags: /Odtp
; File c:\program files (x86)\microsoft visual studio\2017\community\vc\tools\msvc\14.16.27023\include\xlocnum
; File c:\program files (x86)\windows kits\10\include\10.0.17763.0\ucrt\wchar.h
; File c:\program files (x86)\microsoft visual studio\2017\community\vc\tools\msvc\14.16.27023\include\xlocnum
;	COMDAT ?_Maklocwcs@std@@YAPA_WPB_W@Z
_TEXT	SEGMENT
tv66 = -24						; size = 4
tv86 = -20						; size = 4
__Count$ = -16						; size = 4
__Ptrdest$ = -12					; size = 4
tv79 = -8						; size = 4
tv89 = -2						; size = 2
__Ptr$ = 8						; size = 4
?_Maklocwcs@std@@YAPA_WPB_W@Z PROC			; std::_Maklocwcs, COMDAT

; 97   : 	{	// copy NTWCS to allocated storage

  00000	55		 push	 ebp
  00001	8b ec		 mov	 ebp, esp
  00003	83 ec 18	 sub	 esp, 24			; 00000018H

; 98   : 	const size_t _Count = _CSTD wcslen(_Ptr) + 1;

  00006	8b 45 08	 mov	 eax, DWORD PTR __Ptr$[ebp]
  00009	89 45 f8	 mov	 DWORD PTR tv79[ebp], eax
  0000c	8b 4d f8	 mov	 ecx, DWORD PTR tv79[ebp]
  0000f	83 c1 02	 add	 ecx, 2
  00012	89 4d ec	 mov	 DWORD PTR tv86[ebp], ecx
$LL6@Maklocwcs:
  00015	8b 55 f8	 mov	 edx, DWORD PTR tv79[ebp]
  00018	66 8b 02	 mov	 ax, WORD PTR [edx]
  0001b	66 89 45 fe	 mov	 WORD PTR tv89[ebp], ax
  0001f	83 45 f8 02	 add	 DWORD PTR tv79[ebp], 2
  00023	66 83 7d fe 00	 cmp	 WORD PTR tv89[ebp], 0
  00028	75 eb		 jne	 SHORT $LL6@Maklocwcs
  0002a	8b 4d f8	 mov	 ecx, DWORD PTR tv79[ebp]
  0002d	2b 4d ec	 sub	 ecx, DWORD PTR tv86[ebp]
  00030	d1 f9		 sar	 ecx, 1
  00032	89 4d e8	 mov	 DWORD PTR tv66[ebp], ecx
  00035	8b 55 e8	 mov	 edx, DWORD PTR tv66[ebp]
  00038	83 c2 01	 add	 edx, 1
  0003b	89 55 f0	 mov	 DWORD PTR __Count$[ebp], edx

; 99   : 
; 100  : 	wchar_t *_Ptrdest = (wchar_t *)_calloc_dbg(_Count, sizeof (wchar_t),

  0003e	6a 65		 push	 101			; 00000065H
  00040	68 00 00 00 00	 push	 OFFSET ??_C@_0GI@DJFLDKBN@c?3?2program?5files?5?$CIx86?$CJ?2microsof@
  00045	6a 02		 push	 2
  00047	6a 02		 push	 2
  00049	8b 45 f0	 mov	 eax, DWORD PTR __Count$[ebp]
  0004c	50		 push	 eax
  0004d	ff 15 00 00 00
	00		 call	 DWORD PTR __imp___calloc_dbg
  00053	83 c4 14	 add	 esp, 20			; 00000014H
  00056	89 45 f4	 mov	 DWORD PTR __Ptrdest$[ebp], eax

; 101  : 		_CRT_BLOCK, __FILE__, __LINE__);
; 102  : 
; 103  : 	if (!_Ptrdest)

  00059	83 7d f4 00	 cmp	 DWORD PTR __Ptrdest$[ebp], 0
  0005d	75 05		 jne	 SHORT $LN2@Maklocwcs

; 104  : 		_Xbad_alloc();

  0005f	e8 00 00 00 00	 call	 ?_Xbad_alloc@std@@YAXXZ	; std::_Xbad_alloc
$LN2@Maklocwcs:
; File c:\program files (x86)\windows kits\10\include\10.0.17763.0\ucrt\wchar.h

; 233  :         return (wchar_t*)memcpy(_S1, _S2, _N*sizeof(wchar_t));

  00064	8b 4d f0	 mov	 ecx, DWORD PTR __Count$[ebp]
  00067	d1 e1		 shl	 ecx, 1
  00069	51		 push	 ecx
  0006a	8b 55 08	 mov	 edx, DWORD PTR __Ptr$[ebp]
  0006d	52		 push	 edx
  0006e	8b 45 f4	 mov	 eax, DWORD PTR __Ptrdest$[ebp]
  00071	50		 push	 eax
  00072	e8 00 00 00 00	 call	 _memcpy
  00077	83 c4 0c	 add	 esp, 12			; 0000000cH
; File c:\program files (x86)\microsoft visual studio\2017\community\vc\tools\msvc\14.16.27023\include\xlocnum

; 106  : 	return (_Ptrdest);

  0007a	8b 45 f4	 mov	 eax, DWORD PTR __Ptrdest$[ebp]
$LN3@Maklocwcs:

; 107  : 	}

  0007d	8b e5		 mov	 esp, ebp
  0007f	5d		 pop	 ebp
  00080	c3		 ret	 0
?_Maklocwcs@std@@YAPA_WPB_W@Z ENDP			; std::_Maklocwcs
_TEXT	ENDS
; Function compile flags: /Odtp
; File c:\program files (x86)\microsoft visual studio\2017\community\vc\tools\msvc\14.16.27023\include\xlocale
;	COMDAT ??$_Maklocstr@_W@std@@YAPA_WPBDPA_WABU_Cvtvec@@@Z
_TEXT	SEGMENT
__Mbst2$ = -64						; size = 8
__Mbst1$ = -56						; size = 8
tv69 = -48						; size = 4
tv146 = -44						; size = 4
__Count1$ = -40						; size = 4
__Ptrdest$ = -36					; size = 4
__Ptr1$ = -32						; size = 4
__Ptrnext$ = -28					; size = 4
tv143 = -24						; size = 4
__Count$ = -20						; size = 4
__Bytes$ = -16						; size = 4
__Wchars$ = -12						; size = 4
__Wc$ = -8						; size = 2
tv149 = -1						; size = 1
__Ptr$ = 8						; size = 4
___formal$ = 12						; size = 4
__Cvt$ = 16						; size = 4
??$_Maklocstr@_W@std@@YAPA_WPBDPA_WABU_Cvtvec@@@Z PROC	; std::_Maklocstr<wchar_t>, COMDAT

; 682  : 	{	// convert C string to wchar_t sequence using _Cvtvec

  00000	55		 push	 ebp
  00001	8b ec		 mov	 ebp, esp
  00003	83 ec 40	 sub	 esp, 64			; 00000040H

; 683  : 	size_t _Count, _Count1;
; 684  : 	size_t _Wchars;
; 685  : 	const char *_Ptr1;
; 686  : 	int _Bytes;
; 687  : 	wchar_t _Wc;
; 688  : 	mbstate_t _Mbst1 = {};

  00006	33 c0		 xor	 eax, eax
  00008	89 45 c8	 mov	 DWORD PTR __Mbst1$[ebp], eax
  0000b	89 45 cc	 mov	 DWORD PTR __Mbst1$[ebp+4], eax

; 689  : 
; 690  : 	_Count1 = _CSTD strlen(_Ptr) + 1;

  0000e	8b 4d 08	 mov	 ecx, DWORD PTR __Ptr$[ebp]
  00011	89 4d e8	 mov	 DWORD PTR tv143[ebp], ecx
  00014	8b 55 e8	 mov	 edx, DWORD PTR tv143[ebp]
  00017	83 c2 01	 add	 edx, 1
  0001a	89 55 d4	 mov	 DWORD PTR tv146[ebp], edx
$LL12@Maklocstr:
  0001d	8b 45 e8	 mov	 eax, DWORD PTR tv143[ebp]
  00020	8a 08		 mov	 cl, BYTE PTR [eax]
  00022	88 4d ff	 mov	 BYTE PTR tv149[ebp], cl
  00025	83 45 e8 01	 add	 DWORD PTR tv143[ebp], 1
  00029	80 7d ff 00	 cmp	 BYTE PTR tv149[ebp], 0
  0002d	75 ee		 jne	 SHORT $LL12@Maklocstr
  0002f	8b 55 e8	 mov	 edx, DWORD PTR tv143[ebp]
  00032	2b 55 d4	 sub	 edx, DWORD PTR tv146[ebp]
  00035	89 55 d0	 mov	 DWORD PTR tv69[ebp], edx
  00038	8b 45 d0	 mov	 eax, DWORD PTR tv69[ebp]
  0003b	83 c0 01	 add	 eax, 1
  0003e	89 45 d8	 mov	 DWORD PTR __Count1$[ebp], eax

; 691  : 	for (_Count = _Count1, _Wchars = 0, _Ptr1 = _Ptr; 0 < _Count;

  00041	8b 4d d8	 mov	 ecx, DWORD PTR __Count1$[ebp]
  00044	89 4d ec	 mov	 DWORD PTR __Count$[ebp], ecx
  00047	c7 45 f4 00 00
	00 00		 mov	 DWORD PTR __Wchars$[ebp], 0
  0004e	8b 55 08	 mov	 edx, DWORD PTR __Ptr$[ebp]
  00051	89 55 e0	 mov	 DWORD PTR __Ptr1$[ebp], edx
  00054	eb 1b		 jmp	 SHORT $LN4@Maklocstr
$LN2@Maklocstr:

; 692  : 		_Count -= _Bytes, _Ptr1 += _Bytes, ++_Wchars)

  00056	8b 45 ec	 mov	 eax, DWORD PTR __Count$[ebp]
  00059	2b 45 f0	 sub	 eax, DWORD PTR __Bytes$[ebp]
  0005c	89 45 ec	 mov	 DWORD PTR __Count$[ebp], eax
  0005f	8b 4d e0	 mov	 ecx, DWORD PTR __Ptr1$[ebp]
  00062	03 4d f0	 add	 ecx, DWORD PTR __Bytes$[ebp]
  00065	89 4d e0	 mov	 DWORD PTR __Ptr1$[ebp], ecx
  00068	8b 55 f4	 mov	 edx, DWORD PTR __Wchars$[ebp]
  0006b	83 c2 01	 add	 edx, 1
  0006e	89 55 f4	 mov	 DWORD PTR __Wchars$[ebp], edx
$LN4@Maklocstr:

; 691  : 	for (_Count = _Count1, _Wchars = 0, _Ptr1 = _Ptr; 0 < _Count;

  00071	83 7d ec 00	 cmp	 DWORD PTR __Count$[ebp], 0
  00075	76 29		 jbe	 SHORT $LN3@Maklocstr

; 693  : 		if ((_Bytes = _Mbrtowc(&_Wc, _Ptr1, _Count, &_Mbst1, &_Cvt)) <= 0)

  00077	8b 45 10	 mov	 eax, DWORD PTR __Cvt$[ebp]
  0007a	50		 push	 eax
  0007b	8d 4d c8	 lea	 ecx, DWORD PTR __Mbst1$[ebp]
  0007e	51		 push	 ecx
  0007f	8b 55 ec	 mov	 edx, DWORD PTR __Count$[ebp]
  00082	52		 push	 edx
  00083	8b 45 e0	 mov	 eax, DWORD PTR __Ptr1$[ebp]
  00086	50		 push	 eax
  00087	8d 4d f8	 lea	 ecx, DWORD PTR __Wc$[ebp]
  0008a	51		 push	 ecx
  0008b	e8 00 00 00 00	 call	 __Mbrtowc
  00090	83 c4 14	 add	 esp, 20			; 00000014H
  00093	89 45 f0	 mov	 DWORD PTR __Bytes$[ebp], eax
  00096	83 7d f0 00	 cmp	 DWORD PTR __Bytes$[ebp], 0
  0009a	7f 02		 jg	 SHORT $LN8@Maklocstr

; 694  : 			break;

  0009c	eb 02		 jmp	 SHORT $LN3@Maklocstr
$LN8@Maklocstr:

; 695  : 	++_Wchars;	// count terminating nul

  0009e	eb b6		 jmp	 SHORT $LN2@Maklocstr
$LN3@Maklocstr:
  000a0	8b 55 f4	 mov	 edx, DWORD PTR __Wchars$[ebp]
  000a3	83 c2 01	 add	 edx, 1
  000a6	89 55 f4	 mov	 DWORD PTR __Wchars$[ebp], edx

; 696  : 
; 697  : 	wchar_t *_Ptrdest = (wchar_t *)_calloc_dbg(_Wchars, sizeof (wchar_t),

  000a9	68 ba 02 00 00	 push	 698			; 000002baH
  000ae	68 00 00 00 00	 push	 OFFSET ??_C@_0GI@LKBGDILM@c?3?2program?5files?5?$CIx86?$CJ?2microsof@
  000b3	6a 02		 push	 2
  000b5	6a 02		 push	 2
  000b7	8b 45 f4	 mov	 eax, DWORD PTR __Wchars$[ebp]
  000ba	50		 push	 eax
  000bb	ff 15 00 00 00
	00		 call	 DWORD PTR __imp___calloc_dbg
  000c1	83 c4 14	 add	 esp, 20			; 00000014H
  000c4	89 45 dc	 mov	 DWORD PTR __Ptrdest$[ebp], eax

; 698  : 		_CRT_BLOCK, __FILE__, __LINE__);
; 699  : 
; 700  : 	if (!_Ptrdest)

  000c7	83 7d dc 00	 cmp	 DWORD PTR __Ptrdest$[ebp], 0
  000cb	75 05		 jne	 SHORT $LN9@Maklocstr

; 701  : 		_Xbad_alloc();

  000cd	e8 00 00 00 00	 call	 ?_Xbad_alloc@std@@YAXXZ	; std::_Xbad_alloc
$LN9@Maklocstr:

; 702  : 	wchar_t *_Ptrnext = _Ptrdest;

  000d2	8b 4d dc	 mov	 ecx, DWORD PTR __Ptrdest$[ebp]
  000d5	89 4d e4	 mov	 DWORD PTR __Ptrnext$[ebp], ecx

; 703  : 	mbstate_t _Mbst2 = {};

  000d8	33 d2		 xor	 edx, edx
  000da	89 55 c0	 mov	 DWORD PTR __Mbst2$[ebp], edx
  000dd	89 55 c4	 mov	 DWORD PTR __Mbst2$[ebp+4], edx

; 704  : 
; 705  : 	for (; 0 < _Wchars;

  000e0	eb 24		 jmp	 SHORT $LN7@Maklocstr
$LN5@Maklocstr:

; 706  : 		_Count -= _Bytes, _Ptr += _Bytes, --_Wchars, ++_Ptrnext)

  000e2	8b 45 ec	 mov	 eax, DWORD PTR __Count$[ebp]
  000e5	2b 45 f0	 sub	 eax, DWORD PTR __Bytes$[ebp]
  000e8	89 45 ec	 mov	 DWORD PTR __Count$[ebp], eax
  000eb	8b 4d 08	 mov	 ecx, DWORD PTR __Ptr$[ebp]
  000ee	03 4d f0	 add	 ecx, DWORD PTR __Bytes$[ebp]
  000f1	89 4d 08	 mov	 DWORD PTR __Ptr$[ebp], ecx
  000f4	8b 55 f4	 mov	 edx, DWORD PTR __Wchars$[ebp]
  000f7	83 ea 01	 sub	 edx, 1
  000fa	89 55 f4	 mov	 DWORD PTR __Wchars$[ebp], edx
  000fd	8b 45 e4	 mov	 eax, DWORD PTR __Ptrnext$[ebp]
  00100	83 c0 02	 add	 eax, 2
  00103	89 45 e4	 mov	 DWORD PTR __Ptrnext$[ebp], eax
$LN7@Maklocstr:

; 704  : 
; 705  : 	for (; 0 < _Wchars;

  00106	83 7d f4 00	 cmp	 DWORD PTR __Wchars$[ebp], 0
  0010a	76 29		 jbe	 SHORT $LN6@Maklocstr

; 707  : 		if ((_Bytes = _Mbrtowc(_Ptrnext, _Ptr, _Count1, &_Mbst2, &_Cvt)) <= 0)

  0010c	8b 4d 10	 mov	 ecx, DWORD PTR __Cvt$[ebp]
  0010f	51		 push	 ecx
  00110	8d 55 c0	 lea	 edx, DWORD PTR __Mbst2$[ebp]
  00113	52		 push	 edx
  00114	8b 45 d8	 mov	 eax, DWORD PTR __Count1$[ebp]
  00117	50		 push	 eax
  00118	8b 4d 08	 mov	 ecx, DWORD PTR __Ptr$[ebp]
  0011b	51		 push	 ecx
  0011c	8b 55 e4	 mov	 edx, DWORD PTR __Ptrnext$[ebp]
  0011f	52		 push	 edx
  00120	e8 00 00 00 00	 call	 __Mbrtowc
  00125	83 c4 14	 add	 esp, 20			; 00000014H
  00128	89 45 f0	 mov	 DWORD PTR __Bytes$[ebp], eax
  0012b	83 7d f0 00	 cmp	 DWORD PTR __Bytes$[ebp], 0
  0012f	7f 02		 jg	 SHORT $LN10@Maklocstr

; 708  : 			break;

  00131	eb 02		 jmp	 SHORT $LN6@Maklocstr
$LN10@Maklocstr:

; 709  : 	*_Ptrnext = L'\0';

  00133	eb ad		 jmp	 SHORT $LN5@Maklocstr
$LN6@Maklocstr:
  00135	33 c0		 xor	 eax, eax
  00137	8b 4d e4	 mov	 ecx, DWORD PTR __Ptrnext$[ebp]
  0013a	66 89 01	 mov	 WORD PTR [ecx], ax

; 710  : 
; 711  : 	return (_Ptrdest);

  0013d	8b 45 dc	 mov	 eax, DWORD PTR __Ptrdest$[ebp]
$LN11@Maklocstr:

; 712  : 	}

  00140	8b e5		 mov	 esp, ebp
  00142	5d		 pop	 ebp
  00143	c3		 ret	 0
??$_Maklocstr@_W@std@@YAPA_WPBDPA_WABU_Cvtvec@@@Z ENDP	; std::_Maklocstr<wchar_t>
_TEXT	ENDS
; Function compile flags: /Odtp
; File c:\program files (x86)\microsoft visual studio\2017\community\vc\tools\msvc\14.16.27023\include\comutil.h
;	COMDAT ?Clear@_variant_t@@QAEXXZ
_TEXT	SEGMENT
_this$ = -8						; size = 4
_hr$ = -4						; size = 4
?Clear@_variant_t@@QAEXXZ PROC				; _variant_t::Clear, COMDAT
; _this$ = ecx

; 2265 : {

  00000	55		 push	 ebp
  00001	8b ec		 mov	 ebp, esp
  00003	83 ec 08	 sub	 esp, 8
  00006	89 4d f8	 mov	 DWORD PTR _this$[ebp], ecx

; 2266 :     _com_util::CheckError(::VariantClear(this));

  00009	8b 45 f8	 mov	 eax, DWORD PTR _this$[ebp]
  0000c	50		 push	 eax
  0000d	ff 15 00 00 00
	00		 call	 DWORD PTR __imp__VariantClear@4
  00013	89 45 fc	 mov	 DWORD PTR _hr$[ebp], eax

; 96   :         if (FAILED(hr)) {

  00016	83 7d fc 00	 cmp	 DWORD PTR _hr$[ebp], 0
  0001a	7d 09		 jge	 SHORT $LN6@Clear

; 97   :             _com_issue_error(hr);

  0001c	8b 4d fc	 mov	 ecx, DWORD PTR _hr$[ebp]
  0001f	51		 push	 ecx
  00020	e8 00 00 00 00	 call	 ?_com_issue_error@@YGXJ@Z ; _com_issue_error
$LN6@Clear:

; 2267 : }

  00025	8b e5		 mov	 esp, ebp
  00027	5d		 pop	 ebp
  00028	c3		 ret	 0
?Clear@_variant_t@@QAEXXZ ENDP				; _variant_t::Clear
_TEXT	ENDS
; Function compile flags: /Odtp
; File c:\program files (x86)\microsoft visual studio\2017\community\vc\tools\msvc\14.16.27023\include\comutil.h
;	COMDAT ??4_variant_t@@QAEAAV0@ABV0@@Z
_TEXT	SEGMENT
_this$ = -8						; size = 4
_hr$ = -4						; size = 4
_varSrc$ = 8						; size = 4
??4_variant_t@@QAEAAV0@ABV0@@Z PROC			; _variant_t::operator=, COMDAT
; _this$ = ecx

; 1728 : {

  00000	55		 push	 ebp
  00001	8b ec		 mov	 ebp, esp
  00003	83 ec 08	 sub	 esp, 8
  00006	89 4d f8	 mov	 DWORD PTR _this$[ebp], ecx

; 1729 :     _com_util::CheckError(::VariantCopy(this, const_cast<VARIANT*>(static_cast<const VARIANT*>(&varSrc))));

  00009	8b 45 08	 mov	 eax, DWORD PTR _varSrc$[ebp]
  0000c	50		 push	 eax
  0000d	8b 4d f8	 mov	 ecx, DWORD PTR _this$[ebp]
  00010	51		 push	 ecx
  00011	ff 15 00 00 00
	00		 call	 DWORD PTR __imp__VariantCopy@8
  00017	89 45 fc	 mov	 DWORD PTR _hr$[ebp], eax

; 96   :         if (FAILED(hr)) {

  0001a	83 7d fc 00	 cmp	 DWORD PTR _hr$[ebp], 0
  0001e	7d 09		 jge	 SHORT $LN5@operator

; 97   :             _com_issue_error(hr);

  00020	8b 55 fc	 mov	 edx, DWORD PTR _hr$[ebp]
  00023	52		 push	 edx
  00024	e8 00 00 00 00	 call	 ?_com_issue_error@@YGXJ@Z ; _com_issue_error
$LN5@operator:

; 1730 : 
; 1731 :     return *this;

  00029	8b 45 f8	 mov	 eax, DWORD PTR _this$[ebp]
$LN6@operator:

; 1732 : }

  0002c	8b e5		 mov	 esp, ebp
  0002e	5d		 pop	 ebp
  0002f	c2 04 00	 ret	 4
??4_variant_t@@QAEAAV0@ABV0@@Z ENDP			; _variant_t::operator=
_TEXT	ENDS
; Function compile flags: /Odtp
; File c:\program files (x86)\microsoft visual studio\2017\community\vc\tools\msvc\14.16.27023\include\comutil.h
;	COMDAT ??1_variant_t@@QAE@XZ
_TEXT	SEGMENT
_this$ = -4						; size = 4
??1_variant_t@@QAE@XZ PROC				; _variant_t::~_variant_t, COMDAT
; _this$ = ecx

; 2333 : {

  00000	55		 push	 ebp
  00001	8b ec		 mov	 ebp, esp
  00003	51		 push	 ecx
  00004	89 4d fc	 mov	 DWORD PTR _this$[ebp], ecx

; 2334 :     ::VariantClear(this);

  00007	8b 45 fc	 mov	 eax, DWORD PTR _this$[ebp]
  0000a	50		 push	 eax
  0000b	ff 15 00 00 00
	00		 call	 DWORD PTR __imp__VariantClear@4

; 2335 : }

  00011	8b e5		 mov	 esp, ebp
  00013	5d		 pop	 ebp
  00014	c3		 ret	 0
??1_variant_t@@QAE@XZ ENDP				; _variant_t::~_variant_t
_TEXT	ENDS
; Function compile flags: /Odtp
; File c:\program files (x86)\microsoft visual studio\2017\community\vc\tools\msvc\14.16.27023\include\comutil.h
;	COMDAT ??0_variant_t@@QAE@PAUIDispatch@@_N@Z
_TEXT	SEGMENT
_this$ = -4						; size = 4
_pSrc$ = 8						; size = 4
_fAddRef$ = 12						; size = 1
??0_variant_t@@QAE@PAUIDispatch@@_N@Z PROC		; _variant_t::_variant_t, COMDAT
; _this$ = ecx

; 1300 : {

  00000	55		 push	 ebp
  00001	8b ec		 mov	 ebp, esp
  00003	51		 push	 ecx
  00004	89 4d fc	 mov	 DWORD PTR _this$[ebp], ecx

; 1301 :     V_VT(this) = VT_DISPATCH;

  00007	b8 09 00 00 00	 mov	 eax, 9
  0000c	8b 4d fc	 mov	 ecx, DWORD PTR _this$[ebp]
  0000f	66 89 01	 mov	 WORD PTR [ecx], ax

; 1302 :     V_DISPATCH(this) = pSrc;

  00012	8b 55 fc	 mov	 edx, DWORD PTR _this$[ebp]
  00015	8b 45 08	 mov	 eax, DWORD PTR _pSrc$[ebp]
  00018	89 42 08	 mov	 DWORD PTR [edx+8], eax

; 1303 : 
; 1304 :     // Need the AddRef() as VariantClear() calls Release(), unless fAddRef
; 1305 :     // false indicates we're taking ownership
; 1306 :     //
; 1307 :     if (fAddRef) {

  0001b	0f b6 4d 0c	 movzx	 ecx, BYTE PTR _fAddRef$[ebp]
  0001f	85 c9		 test	 ecx, ecx
  00021	74 1d		 je	 SHORT $LN1@variant_t

; 1308 :         if (V_DISPATCH(this) != NULL) {

  00023	8b 55 fc	 mov	 edx, DWORD PTR _this$[ebp]
  00026	83 7a 08 00	 cmp	 DWORD PTR [edx+8], 0
  0002a	74 14		 je	 SHORT $LN1@variant_t

; 1309 :             V_DISPATCH(this)->AddRef();

  0002c	8b 45 fc	 mov	 eax, DWORD PTR _this$[ebp]
  0002f	8b 48 08	 mov	 ecx, DWORD PTR [eax+8]
  00032	8b 55 fc	 mov	 edx, DWORD PTR _this$[ebp]
  00035	8b 42 08	 mov	 eax, DWORD PTR [edx+8]
  00038	8b 09		 mov	 ecx, DWORD PTR [ecx]
  0003a	50		 push	 eax
  0003b	8b 51 04	 mov	 edx, DWORD PTR [ecx+4]
  0003e	ff d2		 call	 edx
$LN1@variant_t:

; 1310 :         }
; 1311 :     }
; 1312 : }

  00040	8b 45 fc	 mov	 eax, DWORD PTR _this$[ebp]
  00043	8b e5		 mov	 esp, ebp
  00045	5d		 pop	 ebp
  00046	c2 08 00	 ret	 8
??0_variant_t@@QAE@PAUIDispatch@@_N@Z ENDP		; _variant_t::_variant_t
_TEXT	ENDS
; Function compile flags: /Odtp
; File c:\program files (x86)\microsoft visual studio\2017\community\vc\tools\msvc\14.16.27023\include\comutil.h
;	COMDAT ??0_variant_t@@QAE@PBD@Z
_TEXT	SEGMENT
_this$ = -4						; size = 4
_pSrc$ = 8						; size = 4
??0_variant_t@@QAE@PBD@Z PROC				; _variant_t::_variant_t, COMDAT
; _this$ = ecx

; 1292 : {

  00000	55		 push	 ebp
  00001	8b ec		 mov	 ebp, esp
  00003	51		 push	 ecx
  00004	89 4d fc	 mov	 DWORD PTR _this$[ebp], ecx

; 1293 :     V_VT(this) = VT_BSTR;

  00007	b8 08 00 00 00	 mov	 eax, 8
  0000c	8b 4d fc	 mov	 ecx, DWORD PTR _this$[ebp]
  0000f	66 89 01	 mov	 WORD PTR [ecx], ax

; 1294 :     V_BSTR(this) = _com_util::ConvertStringToBSTR(pSrc);

  00012	8b 55 08	 mov	 edx, DWORD PTR _pSrc$[ebp]
  00015	52		 push	 edx
  00016	e8 00 00 00 00	 call	 ?ConvertStringToBSTR@_com_util@@YGPA_WPBD@Z ; _com_util::ConvertStringToBSTR
  0001b	8b 4d fc	 mov	 ecx, DWORD PTR _this$[ebp]
  0001e	89 41 08	 mov	 DWORD PTR [ecx+8], eax

; 1295 : }

  00021	8b 45 fc	 mov	 eax, DWORD PTR _this$[ebp]
  00024	8b e5		 mov	 esp, ebp
  00026	5d		 pop	 ebp
  00027	c2 04 00	 ret	 4
??0_variant_t@@QAE@PBD@Z ENDP				; _variant_t::_variant_t
_TEXT	ENDS
; Function compile flags: /Odtp
; File c:\program files (x86)\microsoft visual studio\2017\community\vc\tools\msvc\14.16.27023\include\comutil.h
;	COMDAT ??0_variant_t@@QAE@JG@Z
_TEXT	SEGMENT
_this$ = -8						; size = 4
tv132 = -2						; size = 2
_lSrc$ = 8						; size = 4
_vtSrc$ = 12						; size = 2
??0_variant_t@@QAE@JG@Z PROC				; _variant_t::_variant_t, COMDAT
; _this$ = ecx

; 1201 : {

  00000	55		 push	 ebp
  00001	8b ec		 mov	 ebp, esp
  00003	83 ec 08	 sub	 esp, 8
  00006	89 4d f8	 mov	 DWORD PTR _this$[ebp], ecx

; 1202 :     if ((vtSrc != VT_I4) && (vtSrc != VT_ERROR) && (vtSrc != VT_BOOL)) {

  00009	0f b7 45 0c	 movzx	 eax, WORD PTR _vtSrc$[ebp]
  0000d	83 f8 03	 cmp	 eax, 3
  00010	74 1e		 je	 SHORT $LN2@variant_t
  00012	0f b7 4d 0c	 movzx	 ecx, WORD PTR _vtSrc$[ebp]
  00016	83 f9 0a	 cmp	 ecx, 10			; 0000000aH
  00019	74 15		 je	 SHORT $LN2@variant_t
  0001b	0f b7 55 0c	 movzx	 edx, WORD PTR _vtSrc$[ebp]
  0001f	83 fa 0b	 cmp	 edx, 11			; 0000000bH
  00022	74 0c		 je	 SHORT $LN2@variant_t

; 1203 :         _com_issue_error(E_INVALIDARG);

  00024	68 57 00 07 80	 push	 -2147024809		; 80070057H
  00029	e8 00 00 00 00	 call	 ?_com_issue_error@@YGXJ@Z ; _com_issue_error

; 1204 :         return;

  0002e	eb 69		 jmp	 SHORT $LN1@variant_t
$LN2@variant_t:

; 1205 :     }
; 1206 : 
; 1207 :     if (vtSrc == VT_ERROR) {

  00030	0f b7 45 0c	 movzx	 eax, WORD PTR _vtSrc$[ebp]
  00034	83 f8 0a	 cmp	 eax, 10			; 0000000aH
  00037	75 16		 jne	 SHORT $LN3@variant_t

; 1208 :         V_VT(this) = VT_ERROR;

  00039	b9 0a 00 00 00	 mov	 ecx, 10			; 0000000aH
  0003e	8b 55 f8	 mov	 edx, DWORD PTR _this$[ebp]
  00041	66 89 0a	 mov	 WORD PTR [edx], cx

; 1209 :         V_ERROR(this) = lSrc;

  00044	8b 45 f8	 mov	 eax, DWORD PTR _this$[ebp]
  00047	8b 4d 08	 mov	 ecx, DWORD PTR _lSrc$[ebp]
  0004a	89 48 08	 mov	 DWORD PTR [eax+8], ecx
  0004d	eb 4a		 jmp	 SHORT $LN1@variant_t
$LN3@variant_t:

; 1210 :     }
; 1211 :     else if (vtSrc == VT_BOOL) {

  0004f	0f b7 55 0c	 movzx	 edx, WORD PTR _vtSrc$[ebp]
  00053	83 fa 0b	 cmp	 edx, 11			; 0000000bH
  00056	75 2d		 jne	 SHORT $LN5@variant_t

; 1212 :         V_VT(this) = VT_BOOL;

  00058	b8 0b 00 00 00	 mov	 eax, 11			; 0000000bH
  0005d	8b 4d f8	 mov	 ecx, DWORD PTR _this$[ebp]
  00060	66 89 01	 mov	 WORD PTR [ecx], ax

; 1213 :         V_BOOL(this) = (lSrc ? VARIANT_TRUE : VARIANT_FALSE);

  00063	83 7d 08 00	 cmp	 DWORD PTR _lSrc$[ebp], 0
  00067	74 09		 je	 SHORT $LN8@variant_t
  00069	83 ca ff	 or	 edx, -1
  0006c	66 89 55 fe	 mov	 WORD PTR tv132[ebp], dx
  00070	eb 06		 jmp	 SHORT $LN9@variant_t
$LN8@variant_t:
  00072	33 c0		 xor	 eax, eax
  00074	66 89 45 fe	 mov	 WORD PTR tv132[ebp], ax
$LN9@variant_t:
  00078	8b 4d f8	 mov	 ecx, DWORD PTR _this$[ebp]
  0007b	66 8b 55 fe	 mov	 dx, WORD PTR tv132[ebp]
  0007f	66 89 51 08	 mov	 WORD PTR [ecx+8], dx

; 1214 :     }
; 1215 :     else {

  00083	eb 14		 jmp	 SHORT $LN1@variant_t
$LN5@variant_t:

; 1216 :         V_VT(this) = VT_I4;

  00085	b8 03 00 00 00	 mov	 eax, 3
  0008a	8b 4d f8	 mov	 ecx, DWORD PTR _this$[ebp]
  0008d	66 89 01	 mov	 WORD PTR [ecx], ax

; 1217 :         V_I4(this) = lSrc;

  00090	8b 55 f8	 mov	 edx, DWORD PTR _this$[ebp]
  00093	8b 45 08	 mov	 eax, DWORD PTR _lSrc$[ebp]
  00096	89 42 08	 mov	 DWORD PTR [edx+8], eax
$LN1@variant_t:

; 1218 :     }
; 1219 : }

  00099	8b 45 f8	 mov	 eax, DWORD PTR _this$[ebp]
$LN7@variant_t:
  0009c	8b e5		 mov	 esp, ebp
  0009e	5d		 pop	 ebp
  0009f	c2 08 00	 ret	 8
??0_variant_t@@QAE@JG@Z ENDP				; _variant_t::_variant_t
_TEXT	ENDS
; Function compile flags: /Odtp
; File c:\program files (x86)\microsoft visual studio\2017\community\vc\tools\msvc\14.16.27023\include\comutil.h
;	COMDAT ??0_variant_t@@QAE@AAUtagVARIANT@@_N@Z
_TEXT	SEGMENT
_hr$ = -8						; size = 4
_this$ = -4						; size = 4
_varSrc$ = 8						; size = 4
_fCopy$ = 12						; size = 1
??0_variant_t@@QAE@AAUtagVARIANT@@_N@Z PROC		; _variant_t::_variant_t, COMDAT
; _this$ = ecx

; 1166 : {

  00000	55		 push	 ebp
  00001	8b ec		 mov	 ebp, esp
  00003	83 ec 08	 sub	 esp, 8
  00006	89 4d fc	 mov	 DWORD PTR _this$[ebp], ecx

; 1167 :     if (fCopy) {

  00009	0f b6 45 0c	 movzx	 eax, BYTE PTR _fCopy$[ebp]
  0000d	85 c0		 test	 eax, eax
  0000f	74 2c		 je	 SHORT $LN2@variant_t

; 1168 :         ::VariantInit(this);

  00011	8b 4d fc	 mov	 ecx, DWORD PTR _this$[ebp]
  00014	51		 push	 ecx
  00015	ff 15 00 00 00
	00		 call	 DWORD PTR __imp__VariantInit@4

; 1169 :         _com_util::CheckError(::VariantCopy(this, &varSrc));

  0001b	8b 55 08	 mov	 edx, DWORD PTR _varSrc$[ebp]
  0001e	52		 push	 edx
  0001f	8b 45 fc	 mov	 eax, DWORD PTR _this$[ebp]
  00022	50		 push	 eax
  00023	ff 15 00 00 00
	00		 call	 DWORD PTR __imp__VariantCopy@8
  00029	89 45 f8	 mov	 DWORD PTR _hr$[ebp], eax

; 96   :         if (FAILED(hr)) {

  0002c	83 7d f8 00	 cmp	 DWORD PTR _hr$[ebp], 0
  00030	7d 09		 jge	 SHORT $LN7@variant_t

; 97   :             _com_issue_error(hr);

  00032	8b 4d f8	 mov	 ecx, DWORD PTR _hr$[ebp]
  00035	51		 push	 ecx
  00036	e8 00 00 00 00	 call	 ?_com_issue_error@@YGXJ@Z ; _com_issue_error
$LN7@variant_t:

; 1170 :     }
; 1171 :     else {

  0003b	eb 1c		 jmp	 SHORT $LN1@variant_t
$LN2@variant_t:

; 1172 :         _COM_MEMCPY_S(this, sizeof(varSrc), &varSrc, sizeof(varSrc));

  0003d	6a 10		 push	 16			; 00000010H
  0003f	8b 55 08	 mov	 edx, DWORD PTR _varSrc$[ebp]
  00042	52		 push	 edx
  00043	6a 10		 push	 16			; 00000010H
  00045	8b 45 fc	 mov	 eax, DWORD PTR _this$[ebp]
  00048	50		 push	 eax
  00049	e8 00 00 00 00	 call	 _memcpy_s
  0004e	83 c4 10	 add	 esp, 16			; 00000010H

; 1173 :         V_VT(&varSrc) = VT_EMPTY;

  00051	33 c9		 xor	 ecx, ecx
  00053	8b 55 08	 mov	 edx, DWORD PTR _varSrc$[ebp]
  00056	66 89 0a	 mov	 WORD PTR [edx], cx
$LN1@variant_t:

; 1174 :     }
; 1175 : }

  00059	8b 45 fc	 mov	 eax, DWORD PTR _this$[ebp]
$LN8@variant_t:
  0005c	8b e5		 mov	 esp, ebp
  0005e	5d		 pop	 ebp
  0005f	c2 08 00	 ret	 8
??0_variant_t@@QAE@AAUtagVARIANT@@_N@Z ENDP		; _variant_t::_variant_t
_TEXT	ENDS
; Function compile flags: /Odtp
; File c:\program files (x86)\microsoft visual studio\2017\community\vc\tools\msvc\14.16.27023\include\comutil.h
;	COMDAT ?_Free@_bstr_t@@AAEXXZ
_TEXT	SEGMENT
_this$ = -4						; size = 4
?_Free@_bstr_t@@AAEXXZ PROC				; _bstr_t::_Free, COMDAT
; _this$ = ecx

; 636  : {

  00000	55		 push	 ebp
  00001	8b ec		 mov	 ebp, esp
  00003	51		 push	 ecx
  00004	89 4d fc	 mov	 DWORD PTR _this$[ebp], ecx

; 637  :     if (m_Data != NULL) {

  00007	8b 45 fc	 mov	 eax, DWORD PTR _this$[ebp]
  0000a	83 38 00	 cmp	 DWORD PTR [eax], 0
  0000d	74 13		 je	 SHORT $LN1@Free

; 638  :         m_Data->Release();

  0000f	8b 4d fc	 mov	 ecx, DWORD PTR _this$[ebp]
  00012	8b 09		 mov	 ecx, DWORD PTR [ecx]
  00014	e8 00 00 00 00	 call	 ?Release@Data_t@_bstr_t@@QAEKXZ ; _bstr_t::Data_t::Release

; 639  :         m_Data = NULL;

  00019	8b 55 fc	 mov	 edx, DWORD PTR _this$[ebp]
  0001c	c7 02 00 00 00
	00		 mov	 DWORD PTR [edx], 0
$LN1@Free:

; 640  :     }
; 641  : }

  00022	8b e5		 mov	 esp, ebp
  00024	5d		 pop	 ebp
  00025	c3		 ret	 0
?_Free@_bstr_t@@AAEXXZ ENDP				; _bstr_t::_Free
_TEXT	ENDS
; Function compile flags: /Odtp
; File c:\program files (x86)\microsoft visual studio\2017\community\vc\tools\msvc\14.16.27023\include\comutil.h
;	COMDAT ??_GData_t@_bstr_t@@AAEPAXI@Z
_TEXT	SEGMENT
_this$ = -4						; size = 4
___flags$ = 8						; size = 4
??_GData_t@_bstr_t@@AAEPAXI@Z PROC			; _bstr_t::Data_t::`scalar deleting destructor', COMDAT
; _this$ = ecx
  00000	55		 push	 ebp
  00001	8b ec		 mov	 ebp, esp
  00003	51		 push	 ecx
  00004	89 4d fc	 mov	 DWORD PTR _this$[ebp], ecx

; 923  :     _Free();

  00007	8b 4d fc	 mov	 ecx, DWORD PTR _this$[ebp]
  0000a	e8 00 00 00 00	 call	 ?_Free@Data_t@_bstr_t@@AAEXXZ ; _bstr_t::Data_t::_Free
  0000f	8b 45 08	 mov	 eax, DWORD PTR ___flags$[ebp]
  00012	83 e0 01	 and	 eax, 1
  00015	74 0e		 je	 SHORT $LN2@scalar
  00017	6a 0c		 push	 12			; 0000000cH
  00019	8b 4d fc	 mov	 ecx, DWORD PTR _this$[ebp]
  0001c	51		 push	 ecx
  0001d	e8 00 00 00 00	 call	 ??3@YAXPAXI@Z		; operator delete
  00022	83 c4 08	 add	 esp, 8
$LN2@scalar:
  00025	8b 45 fc	 mov	 eax, DWORD PTR _this$[ebp]
  00028	8b e5		 mov	 esp, ebp
  0002a	5d		 pop	 ebp
  0002b	c2 04 00	 ret	 4
??_GData_t@_bstr_t@@AAEPAXI@Z ENDP			; _bstr_t::Data_t::`scalar deleting destructor'
_TEXT	ENDS
; Function compile flags: /Odtp
; File c:\program files (x86)\microsoft visual studio\2017\community\vc\tools\msvc\14.16.27023\include\comutil.h
;	COMDAT ?_Free@Data_t@_bstr_t@@AAEXXZ
_TEXT	SEGMENT
$T1 = -8						; size = 4
_this$ = -4						; size = 4
?_Free@Data_t@_bstr_t@@AAEXXZ PROC			; _bstr_t::Data_t::_Free, COMDAT
; _this$ = ecx

; 929  : {

  00000	55		 push	 ebp
  00001	8b ec		 mov	 ebp, esp
  00003	83 ec 08	 sub	 esp, 8
  00006	89 4d fc	 mov	 DWORD PTR _this$[ebp], ecx

; 930  :     if (m_wstr != NULL) {

  00009	8b 45 fc	 mov	 eax, DWORD PTR _this$[ebp]
  0000c	83 38 00	 cmp	 DWORD PTR [eax], 0
  0000f	74 15		 je	 SHORT $LN2@Free

; 931  :         ::SysFreeString(m_wstr);

  00011	8b 4d fc	 mov	 ecx, DWORD PTR _this$[ebp]
  00014	8b 11		 mov	 edx, DWORD PTR [ecx]
  00016	52		 push	 edx
  00017	ff 15 00 00 00
	00		 call	 DWORD PTR __imp__SysFreeString@4

; 932  :         m_wstr = NULL;

  0001d	8b 45 fc	 mov	 eax, DWORD PTR _this$[ebp]
  00020	c7 00 00 00 00
	00		 mov	 DWORD PTR [eax], 0
$LN2@Free:

; 933  :     }
; 934  : 
; 935  :     if (m_str != NULL) {

  00026	8b 4d fc	 mov	 ecx, DWORD PTR _this$[ebp]
  00029	83 79 04 00	 cmp	 DWORD PTR [ecx+4], 0
  0002d	74 1f		 je	 SHORT $LN1@Free

; 936  :         delete [] m_str;

  0002f	8b 55 fc	 mov	 edx, DWORD PTR _this$[ebp]
  00032	8b 42 04	 mov	 eax, DWORD PTR [edx+4]
  00035	89 45 f8	 mov	 DWORD PTR $T1[ebp], eax
  00038	8b 4d f8	 mov	 ecx, DWORD PTR $T1[ebp]
  0003b	51		 push	 ecx
  0003c	e8 00 00 00 00	 call	 ??_V@YAXPAX@Z		; operator delete[]
  00041	83 c4 04	 add	 esp, 4

; 937  :         m_str = NULL;

  00044	8b 55 fc	 mov	 edx, DWORD PTR _this$[ebp]
  00047	c7 42 04 00 00
	00 00		 mov	 DWORD PTR [edx+4], 0
$LN1@Free:

; 938  :     }
; 939  : }

  0004e	8b e5		 mov	 esp, ebp
  00050	5d		 pop	 ebp
  00051	c3		 ret	 0
?_Free@Data_t@_bstr_t@@AAEXXZ ENDP			; _bstr_t::Data_t::_Free
_TEXT	ENDS
; Function compile flags: /Odtp
; File c:\program files (x86)\microsoft visual studio\2017\community\vc\tools\msvc\14.16.27023\include\comutil.h
;	COMDAT ??1Data_t@_bstr_t@@AAE@XZ
_TEXT	SEGMENT
_this$ = -4						; size = 4
??1Data_t@_bstr_t@@AAE@XZ PROC				; _bstr_t::Data_t::~Data_t, COMDAT
; _this$ = ecx

; 922  : {

  00000	55		 push	 ebp
  00001	8b ec		 mov	 ebp, esp
  00003	51		 push	 ecx
  00004	89 4d fc	 mov	 DWORD PTR _this$[ebp], ecx

; 923  :     _Free();

  00007	8b 4d fc	 mov	 ecx, DWORD PTR _this$[ebp]
  0000a	e8 00 00 00 00	 call	 ?_Free@Data_t@_bstr_t@@AAEXXZ ; _bstr_t::Data_t::_Free

; 924  : }

  0000f	8b e5		 mov	 esp, ebp
  00011	5d		 pop	 ebp
  00012	c3		 ret	 0
??1Data_t@_bstr_t@@AAE@XZ ENDP				; _bstr_t::Data_t::~Data_t
_TEXT	ENDS
; Function compile flags: /Odtp
; File c:\program files (x86)\microsoft visual studio\2017\community\vc\tools\msvc\14.16.27023\include\comutil.h
;	COMDAT ??2Data_t@_bstr_t@@SAPAXI@Z
_TEXT	SEGMENT
_sz$ = 8						; size = 4
??2Data_t@_bstr_t@@SAPAXI@Z PROC			; _bstr_t::Data_t::operator new, COMDAT

; 914  : {

  00000	55		 push	 ebp
  00001	8b ec		 mov	 ebp, esp

; 915  :     return ::operator new(sz);

  00003	8b 45 08	 mov	 eax, DWORD PTR _sz$[ebp]
  00006	50		 push	 eax
  00007	e8 00 00 00 00	 call	 ??2@YAPAXI@Z		; operator new
  0000c	83 c4 04	 add	 esp, 4

; 916  : }

  0000f	5d		 pop	 ebp
  00010	c3		 ret	 0
??2Data_t@_bstr_t@@SAPAXI@Z ENDP			; _bstr_t::Data_t::operator new
_TEXT	ENDS
; Function compile flags: /Odtp
; File c:\program files (x86)\microsoft visual studio\2017\community\vc\tools\msvc\14.16.27023\include\comutil.h
;	COMDAT ?GetString@Data_t@_bstr_t@@QBEPBDXZ
_TEXT	SEGMENT
_this$ = -4						; size = 4
?GetString@Data_t@_bstr_t@@QBEPBDXZ PROC		; _bstr_t::Data_t::GetString, COMDAT
; _this$ = ecx

; 823  : {

  00000	55		 push	 ebp
  00001	8b ec		 mov	 ebp, esp
  00003	51		 push	 ecx
  00004	89 4d fc	 mov	 DWORD PTR _this$[ebp], ecx

; 824  :     if (m_str == NULL) {

  00007	8b 45 fc	 mov	 eax, DWORD PTR _this$[ebp]
  0000a	83 78 04 00	 cmp	 DWORD PTR [eax+4], 0
  0000e	75 11		 jne	 SHORT $LN2@GetString

; 825  :         m_str = _com_util::ConvertBSTRToString(m_wstr);

  00010	8b 4d fc	 mov	 ecx, DWORD PTR _this$[ebp]
  00013	8b 11		 mov	 edx, DWORD PTR [ecx]
  00015	52		 push	 edx
  00016	e8 00 00 00 00	 call	 ?ConvertBSTRToString@_com_util@@YGPADPA_W@Z ; _com_util::ConvertBSTRToString
  0001b	8b 4d fc	 mov	 ecx, DWORD PTR _this$[ebp]
  0001e	89 41 04	 mov	 DWORD PTR [ecx+4], eax
$LN2@GetString:

; 826  :     }
; 827  : 
; 828  :     return m_str;

  00021	8b 55 fc	 mov	 edx, DWORD PTR _this$[ebp]
  00024	8b 42 04	 mov	 eax, DWORD PTR [edx+4]

; 829  : }

  00027	8b e5		 mov	 esp, ebp
  00029	5d		 pop	 ebp
  0002a	c3		 ret	 0
?GetString@Data_t@_bstr_t@@QBEPBDXZ ENDP		; _bstr_t::Data_t::GetString
_TEXT	ENDS
; Function compile flags: /Odtp
; File c:\program files (x86)\microsoft visual studio\2017\community\vc\tools\msvc\14.16.27023\include\comutil.h
;	COMDAT ?GetWString@Data_t@_bstr_t@@QAEAAPA_WXZ
_TEXT	SEGMENT
_this$ = -4						; size = 4
?GetWString@Data_t@_bstr_t@@QAEAAPA_WXZ PROC		; _bstr_t::Data_t::GetWString, COMDAT
; _this$ = ecx

; 818  : {

  00000	55		 push	 ebp
  00001	8b ec		 mov	 ebp, esp
  00003	51		 push	 ecx
  00004	89 4d fc	 mov	 DWORD PTR _this$[ebp], ecx

; 819  :     return m_wstr;

  00007	8b 45 fc	 mov	 eax, DWORD PTR _this$[ebp]

; 820  : }

  0000a	8b e5		 mov	 esp, ebp
  0000c	5d		 pop	 ebp
  0000d	c3		 ret	 0
?GetWString@Data_t@_bstr_t@@QAEAAPA_WXZ ENDP		; _bstr_t::Data_t::GetWString
_TEXT	ENDS
; Function compile flags: /Odtp
; File c:\program files (x86)\microsoft visual studio\2017\community\vc\tools\msvc\14.16.27023\include\comutil.h
;	COMDAT ?Release@Data_t@_bstr_t@@QAEKXZ
_TEXT	SEGMENT
tv72 = -20						; size = 4
$T1 = -16						; size = 4
_cRef$ = -12						; size = 4
_this$ = -8						; size = 4
$T2 = -4						; size = 4
?Release@Data_t@_bstr_t@@QAEKXZ PROC			; _bstr_t::Data_t::Release, COMDAT
; _this$ = ecx

; 772  : {

  00000	55		 push	 ebp
  00001	8b ec		 mov	 ebp, esp
  00003	83 ec 14	 sub	 esp, 20			; 00000014H
  00006	89 4d f8	 mov	 DWORD PTR _this$[ebp], ecx

; 773  :     unsigned long cRef = InterlockedDecrement(reinterpret_cast<long*>(&m_RefCount));

  00009	8b 45 f8	 mov	 eax, DWORD PTR _this$[ebp]
  0000c	83 c0 08	 add	 eax, 8
  0000f	83 c9 ff	 or	 ecx, -1
  00012	f0 0f c1 08	 lock	  xadd	 DWORD PTR [eax], ecx
  00016	49		 dec	 ecx
  00017	89 4d f4	 mov	 DWORD PTR _cRef$[ebp], ecx

; 774  :     if (cRef == 0) {

  0001a	75 41		 jne	 SHORT $LN2@Release

; 775  :         delete this;

  0001c	8b 55 f8	 mov	 edx, DWORD PTR _this$[ebp]
  0001f	89 55 f0	 mov	 DWORD PTR $T1[ebp], edx
  00022	8b 45 f0	 mov	 eax, DWORD PTR $T1[ebp]
  00025	89 45 fc	 mov	 DWORD PTR $T2[ebp], eax
  00028	83 7d fc 00	 cmp	 DWORD PTR $T2[ebp], 0
  0002c	74 28		 je	 SHORT $LN4@Release

; 923  :     _Free();

  0002e	8b 4d fc	 mov	 ecx, DWORD PTR $T2[ebp]
  00031	e8 00 00 00 00	 call	 ?_Free@Data_t@_bstr_t@@AAEXXZ ; _bstr_t::Data_t::_Free
  00036	b9 01 00 00 00	 mov	 ecx, 1
  0003b	83 e1 01	 and	 ecx, 1
  0003e	74 0e		 je	 SHORT $LN6@Release
  00040	6a 0c		 push	 12			; 0000000cH
  00042	8b 55 fc	 mov	 edx, DWORD PTR $T2[ebp]
  00045	52		 push	 edx
  00046	e8 00 00 00 00	 call	 ??3@YAXPAXI@Z		; operator delete
  0004b	83 c4 08	 add	 esp, 8
$LN6@Release:

; 775  :         delete this;

  0004e	8b 45 fc	 mov	 eax, DWORD PTR $T2[ebp]
  00051	89 45 ec	 mov	 DWORD PTR tv72[ebp], eax
  00054	eb 07		 jmp	 SHORT $LN2@Release
$LN4@Release:
  00056	c7 45 ec 00 00
	00 00		 mov	 DWORD PTR tv72[ebp], 0
$LN2@Release:

; 776  :     }
; 777  : 
; 778  :     return cRef;

  0005d	8b 45 f4	 mov	 eax, DWORD PTR _cRef$[ebp]

; 779  : }

  00060	8b e5		 mov	 esp, ebp
  00062	5d		 pop	 ebp
  00063	c3		 ret	 0
?Release@Data_t@_bstr_t@@QAEKXZ ENDP			; _bstr_t::Data_t::Release
_TEXT	ENDS
; Function compile flags: /Odtp
; File c:\program files (x86)\microsoft visual studio\2017\community\vc\tools\msvc\14.16.27023\include\comutil.h
;	COMDAT ??0Data_t@_bstr_t@@QAE@PA_W_N@Z
_TEXT	SEGMENT
_this$ = -4						; size = 4
_bstr$ = 8						; size = 4
_fCopy$ = 12						; size = 1
??0Data_t@_bstr_t@@QAE@PA_W_N@Z PROC			; _bstr_t::Data_t::Data_t, COMDAT
; _this$ = ecx

; 703  : {

  00000	55		 push	 ebp
  00001	8b ec		 mov	 ebp, esp
  00003	51		 push	 ecx
  00004	89 4d fc	 mov	 DWORD PTR _this$[ebp], ecx

; 702  :     : m_str(NULL), m_RefCount(1)

  00007	8b 45 fc	 mov	 eax, DWORD PTR _this$[ebp]
  0000a	c7 40 04 00 00
	00 00		 mov	 DWORD PTR [eax+4], 0
  00011	8b 4d fc	 mov	 ecx, DWORD PTR _this$[ebp]
  00014	c7 41 08 01 00
	00 00		 mov	 DWORD PTR [ecx+8], 1

; 704  :     if (fCopy && bstr != NULL) {

  0001b	0f b6 55 0c	 movzx	 edx, BYTE PTR _fCopy$[ebp]
  0001f	85 d2		 test	 edx, edx
  00021	74 34		 je	 SHORT $LN2@Data_t
  00023	83 7d 08 00	 cmp	 DWORD PTR _bstr$[ebp], 0
  00027	74 2e		 je	 SHORT $LN2@Data_t

; 705  :         m_wstr = ::SysAllocStringByteLen(reinterpret_cast<char*>(bstr),

  00029	8b 45 08	 mov	 eax, DWORD PTR _bstr$[ebp]
  0002c	50		 push	 eax
  0002d	ff 15 00 00 00
	00		 call	 DWORD PTR __imp__SysStringByteLen@4
  00033	50		 push	 eax
  00034	8b 4d 08	 mov	 ecx, DWORD PTR _bstr$[ebp]
  00037	51		 push	 ecx
  00038	ff 15 00 00 00
	00		 call	 DWORD PTR __imp__SysAllocStringByteLen@8
  0003e	8b 55 fc	 mov	 edx, DWORD PTR _this$[ebp]
  00041	89 02		 mov	 DWORD PTR [edx], eax

; 706  :                                          ::SysStringByteLen(bstr));
; 707  : 
; 708  :         if (m_wstr == NULL) {

  00043	8b 45 fc	 mov	 eax, DWORD PTR _this$[ebp]
  00046	83 38 00	 cmp	 DWORD PTR [eax], 0
  00049	75 0a		 jne	 SHORT $LN4@Data_t

; 709  :             _com_issue_error(E_OUTOFMEMORY);

  0004b	68 0e 00 07 80	 push	 -2147024882		; 8007000eH
  00050	e8 00 00 00 00	 call	 ?_com_issue_error@@YGXJ@Z ; _com_issue_error
$LN4@Data_t:

; 710  :         }
; 711  :     }
; 712  :     else {

  00055	eb 08		 jmp	 SHORT $LN1@Data_t
$LN2@Data_t:

; 713  :         m_wstr = bstr;

  00057	8b 4d fc	 mov	 ecx, DWORD PTR _this$[ebp]
  0005a	8b 55 08	 mov	 edx, DWORD PTR _bstr$[ebp]
  0005d	89 11		 mov	 DWORD PTR [ecx], edx
$LN1@Data_t:

; 714  :     }
; 715  : }

  0005f	8b 45 fc	 mov	 eax, DWORD PTR _this$[ebp]
$LN5@Data_t:
  00062	8b e5		 mov	 esp, ebp
  00064	5d		 pop	 ebp
  00065	c2 08 00	 ret	 8
??0Data_t@_bstr_t@@QAE@PA_W_N@Z ENDP			; _bstr_t::Data_t::Data_t
_TEXT	ENDS
; Function compile flags: /Odtp
; File c:\program files (x86)\microsoft visual studio\2017\community\vc\tools\msvc\14.16.27023\include\comutil.h
;	COMDAT ??0Data_t@_bstr_t@@QAE@PB_W@Z
_TEXT	SEGMENT
_this$ = -4						; size = 4
_s$ = 8							; size = 4
??0Data_t@_bstr_t@@QAE@PB_W@Z PROC			; _bstr_t::Data_t::Data_t, COMDAT
; _this$ = ecx

; 690  : {

  00000	55		 push	 ebp
  00001	8b ec		 mov	 ebp, esp
  00003	51		 push	 ecx
  00004	89 4d fc	 mov	 DWORD PTR _this$[ebp], ecx

; 689  :     : m_str(NULL), m_RefCount(1)

  00007	8b 45 fc	 mov	 eax, DWORD PTR _this$[ebp]
  0000a	c7 40 04 00 00
	00 00		 mov	 DWORD PTR [eax+4], 0
  00011	8b 4d fc	 mov	 ecx, DWORD PTR _this$[ebp]
  00014	c7 41 08 01 00
	00 00		 mov	 DWORD PTR [ecx+8], 1

; 691  :     m_wstr = ::SysAllocString(s);

  0001b	8b 55 08	 mov	 edx, DWORD PTR _s$[ebp]
  0001e	52		 push	 edx
  0001f	ff 15 00 00 00
	00		 call	 DWORD PTR __imp__SysAllocString@4
  00025	8b 4d fc	 mov	 ecx, DWORD PTR _this$[ebp]
  00028	89 01		 mov	 DWORD PTR [ecx], eax

; 692  : 
; 693  :     if (m_wstr == NULL && s != NULL) {

  0002a	8b 55 fc	 mov	 edx, DWORD PTR _this$[ebp]
  0002d	83 3a 00	 cmp	 DWORD PTR [edx], 0
  00030	75 10		 jne	 SHORT $LN1@Data_t
  00032	83 7d 08 00	 cmp	 DWORD PTR _s$[ebp], 0
  00036	74 0a		 je	 SHORT $LN1@Data_t

; 694  :         _com_issue_error(E_OUTOFMEMORY);

  00038	68 0e 00 07 80	 push	 -2147024882		; 8007000eH
  0003d	e8 00 00 00 00	 call	 ?_com_issue_error@@YGXJ@Z ; _com_issue_error
$LN1@Data_t:

; 695  :     }
; 696  : }

  00042	8b 45 fc	 mov	 eax, DWORD PTR _this$[ebp]
$LN3@Data_t:
  00045	8b e5		 mov	 esp, ebp
  00047	5d		 pop	 ebp
  00048	c2 04 00	 ret	 4
??0Data_t@_bstr_t@@QAE@PB_W@Z ENDP			; _bstr_t::Data_t::Data_t
_TEXT	ENDS
; Function compile flags: /Odtp
; File c:\program files (x86)\microsoft visual studio\2017\community\vc\tools\msvc\14.16.27023\include\comutil.h
;	COMDAT ??0Data_t@_bstr_t@@QAE@PBD@Z
_TEXT	SEGMENT
_this$ = -4						; size = 4
_s$ = 8							; size = 4
??0Data_t@_bstr_t@@QAE@PBD@Z PROC			; _bstr_t::Data_t::Data_t, COMDAT
; _this$ = ecx

; 682  : {

  00000	55		 push	 ebp
  00001	8b ec		 mov	 ebp, esp
  00003	51		 push	 ecx
  00004	89 4d fc	 mov	 DWORD PTR _this$[ebp], ecx

; 681  :     : m_str(NULL), m_RefCount(1)

  00007	8b 45 fc	 mov	 eax, DWORD PTR _this$[ebp]
  0000a	c7 40 04 00 00
	00 00		 mov	 DWORD PTR [eax+4], 0
  00011	8b 4d fc	 mov	 ecx, DWORD PTR _this$[ebp]
  00014	c7 41 08 01 00
	00 00		 mov	 DWORD PTR [ecx+8], 1

; 683  :     m_wstr = _com_util::ConvertStringToBSTR(s);

  0001b	8b 55 08	 mov	 edx, DWORD PTR _s$[ebp]
  0001e	52		 push	 edx
  0001f	e8 00 00 00 00	 call	 ?ConvertStringToBSTR@_com_util@@YGPA_WPBD@Z ; _com_util::ConvertStringToBSTR
  00024	8b 4d fc	 mov	 ecx, DWORD PTR _this$[ebp]
  00027	89 01		 mov	 DWORD PTR [ecx], eax

; 684  : }

  00029	8b 45 fc	 mov	 eax, DWORD PTR _this$[ebp]
  0002c	8b e5		 mov	 esp, ebp
  0002e	5d		 pop	 ebp
  0002f	c2 04 00	 ret	 4
??0Data_t@_bstr_t@@QAE@PBD@Z ENDP			; _bstr_t::Data_t::Data_t
_TEXT	ENDS
; Function compile flags: /Odtp
; File c:\program files (x86)\microsoft visual studio\2017\community\vc\tools\msvc\14.16.27023\include\comutil.h
;	COMDAT ??B_bstr_t@@QBEPBDXZ
_TEXT	SEGMENT
$T1 = -16						; size = 4
_this$ = -12						; size = 4
tv69 = -8						; size = 4
_this$ = -4						; size = 4
??B_bstr_t@@QBEPBDXZ PROC				; _bstr_t::operator char const *, COMDAT
; _this$ = ecx

; 485  : {

  00000	55		 push	 ebp
  00001	8b ec		 mov	 ebp, esp
  00003	83 ec 10	 sub	 esp, 16			; 00000010H
  00006	89 4d f4	 mov	 DWORD PTR _this$[ebp], ecx

; 486  :     return (m_Data != NULL) ? m_Data->GetString() : NULL;

  00009	8b 45 f4	 mov	 eax, DWORD PTR _this$[ebp]
  0000c	83 38 00	 cmp	 DWORD PTR [eax], 0
  0000f	74 33		 je	 SHORT $LN3@operator
  00011	8b 4d f4	 mov	 ecx, DWORD PTR _this$[ebp]
  00014	8b 11		 mov	 edx, DWORD PTR [ecx]
  00016	89 55 fc	 mov	 DWORD PTR _this$[ebp], edx
  00019	8b 45 f0	 mov	 eax, DWORD PTR $T1[ebp]
  0001c	89 45 f8	 mov	 DWORD PTR tv69[ebp], eax

; 824  :     if (m_str == NULL) {

  0001f	8b 4d fc	 mov	 ecx, DWORD PTR _this$[ebp]
  00022	83 79 04 00	 cmp	 DWORD PTR [ecx+4], 0
  00026	75 11		 jne	 SHORT $LN6@operator

; 825  :         m_str = _com_util::ConvertBSTRToString(m_wstr);

  00028	8b 55 fc	 mov	 edx, DWORD PTR _this$[ebp]
  0002b	8b 02		 mov	 eax, DWORD PTR [edx]
  0002d	50		 push	 eax
  0002e	e8 00 00 00 00	 call	 ?ConvertBSTRToString@_com_util@@YGPADPA_W@Z ; _com_util::ConvertBSTRToString
  00033	8b 4d fc	 mov	 ecx, DWORD PTR _this$[ebp]
  00036	89 41 04	 mov	 DWORD PTR [ecx+4], eax
$LN6@operator:

; 826  :     }
; 827  : 
; 828  :     return m_str;

  00039	8b 55 fc	 mov	 edx, DWORD PTR _this$[ebp]
  0003c	8b 42 04	 mov	 eax, DWORD PTR [edx+4]
  0003f	89 45 f8	 mov	 DWORD PTR tv69[ebp], eax

; 486  :     return (m_Data != NULL) ? m_Data->GetString() : NULL;

  00042	eb 07		 jmp	 SHORT $LN4@operator
$LN3@operator:
  00044	c7 45 f8 00 00
	00 00		 mov	 DWORD PTR tv69[ebp], 0
$LN4@operator:
  0004b	8b 45 f8	 mov	 eax, DWORD PTR tv69[ebp]

; 487  : }

  0004e	8b e5		 mov	 esp, ebp
  00050	5d		 pop	 ebp
  00051	c3		 ret	 0
??B_bstr_t@@QBEPBDXZ ENDP				; _bstr_t::operator char const *
_TEXT	ENDS
; Function compile flags: /Odtp
; File c:\program files (x86)\microsoft visual studio\2017\community\vc\tools\msvc\14.16.27023\include\comutil.h
;	COMDAT ??B_bstr_t@@QBEPA_WXZ
_TEXT	SEGMENT
tv69 = -8						; size = 4
_this$ = -4						; size = 4
??B_bstr_t@@QBEPA_WXZ PROC				; _bstr_t::operator wchar_t *, COMDAT
; _this$ = ecx

; 478  : {

  00000	55		 push	 ebp
  00001	8b ec		 mov	 ebp, esp
  00003	83 ec 08	 sub	 esp, 8
  00006	89 4d fc	 mov	 DWORD PTR _this$[ebp], ecx

; 479  :     return const_cast<wchar_t*>((m_Data != NULL) ? m_Data->GetWString() : NULL);

  00009	8b 45 fc	 mov	 eax, DWORD PTR _this$[ebp]
  0000c	83 38 00	 cmp	 DWORD PTR [eax], 0
  0000f	74 0c		 je	 SHORT $LN3@operator
  00011	8b 4d fc	 mov	 ecx, DWORD PTR _this$[ebp]
  00014	8b 11		 mov	 edx, DWORD PTR [ecx]
  00016	8b 02		 mov	 eax, DWORD PTR [edx]
  00018	89 45 f8	 mov	 DWORD PTR tv69[ebp], eax
  0001b	eb 07		 jmp	 SHORT $LN4@operator
$LN3@operator:
  0001d	c7 45 f8 00 00
	00 00		 mov	 DWORD PTR tv69[ebp], 0
$LN4@operator:
  00024	8b 45 f8	 mov	 eax, DWORD PTR tv69[ebp]

; 480  : }

  00027	8b e5		 mov	 esp, ebp
  00029	5d		 pop	 ebp
  0002a	c3		 ret	 0
??B_bstr_t@@QBEPA_WXZ ENDP				; _bstr_t::operator wchar_t *
_TEXT	ENDS
; Function compile flags: /Odtp
; File c:\program files (x86)\microsoft visual studio\2017\community\vc\tools\msvc\14.16.27023\include\comutil.h
;	COMDAT ??1_bstr_t@@QAE@XZ
_TEXT	SEGMENT
_this$ = -4						; size = 4
??1_bstr_t@@QAE@XZ PROC					; _bstr_t::~_bstr_t, COMDAT
; _this$ = ecx

; 342  : {

  00000	55		 push	 ebp
  00001	8b ec		 mov	 ebp, esp
  00003	51		 push	 ecx
  00004	89 4d fc	 mov	 DWORD PTR _this$[ebp], ecx

; 637  :     if (m_Data != NULL) {

  00007	8b 45 fc	 mov	 eax, DWORD PTR _this$[ebp]
  0000a	83 38 00	 cmp	 DWORD PTR [eax], 0
  0000d	74 13		 je	 SHORT $LN1@bstr_t

; 638  :         m_Data->Release();

  0000f	8b 4d fc	 mov	 ecx, DWORD PTR _this$[ebp]
  00012	8b 09		 mov	 ecx, DWORD PTR [ecx]
  00014	e8 00 00 00 00	 call	 ?Release@Data_t@_bstr_t@@QAEKXZ ; _bstr_t::Data_t::Release

; 639  :         m_Data = NULL;

  00019	8b 55 fc	 mov	 edx, DWORD PTR _this$[ebp]
  0001c	c7 02 00 00 00
	00		 mov	 DWORD PTR [edx], 0
$LN1@bstr_t:

; 343  :     _Free();
; 344  : }

  00022	8b e5		 mov	 esp, ebp
  00024	5d		 pop	 ebp
  00025	c3		 ret	 0
??1_bstr_t@@QAE@XZ ENDP					; _bstr_t::~_bstr_t
_TEXT	ENDS
; Function compile flags: /Odtp
; File c:\program files (x86)\microsoft visual studio\2017\community\vc\tools\msvc\14.16.27023\include\comutil.h
;	COMDAT ??0_bstr_t@@QAE@PA_W_N@Z
_TEXT	SEGMENT
$T2 = -28						; size = 4
tv78 = -24						; size = 4
$T3 = -20						; size = 4
_this$ = -16						; size = 4
__$EHRec$ = -12						; size = 12
_bstr$ = 8						; size = 4
_fCopy$ = 12						; size = 1
??0_bstr_t@@QAE@PA_W_N@Z PROC				; _bstr_t::_bstr_t, COMDAT
; _this$ = ecx

; 333  : {

  00000	55		 push	 ebp
  00001	8b ec		 mov	 ebp, esp
  00003	6a ff		 push	 -1
  00005	68 00 00 00 00	 push	 __ehhandler$??0_bstr_t@@QAE@PA_W_N@Z
  0000a	64 a1 00 00 00
	00		 mov	 eax, DWORD PTR fs:0
  00010	50		 push	 eax
  00011	83 ec 10	 sub	 esp, 16			; 00000010H
  00014	a1 00 00 00 00	 mov	 eax, DWORD PTR ___security_cookie
  00019	33 c5		 xor	 eax, ebp
  0001b	50		 push	 eax
  0001c	8d 45 f4	 lea	 eax, DWORD PTR __$EHRec$[ebp]
  0001f	64 a3 00 00 00
	00		 mov	 DWORD PTR fs:0, eax
  00025	89 4d f0	 mov	 DWORD PTR _this$[ebp], ecx

; 915  :     return ::operator new(sz);

  00028	6a 0c		 push	 12			; 0000000cH
  0002a	e8 00 00 00 00	 call	 ??2@YAPAXI@Z		; operator new
  0002f	83 c4 04	 add	 esp, 4

; 332  :     : m_Data(new Data_t(bstr, fCopy))

  00032	89 45 ec	 mov	 DWORD PTR $T3[ebp], eax
  00035	c7 45 fc 00 00
	00 00		 mov	 DWORD PTR __$EHRec$[ebp+8], 0
  0003c	83 7d ec 00	 cmp	 DWORD PTR $T3[ebp], 0
  00040	74 16		 je	 SHORT $LN4@bstr_t
  00042	0f b6 45 0c	 movzx	 eax, BYTE PTR _fCopy$[ebp]
  00046	50		 push	 eax
  00047	8b 4d 08	 mov	 ecx, DWORD PTR _bstr$[ebp]
  0004a	51		 push	 ecx
  0004b	8b 4d ec	 mov	 ecx, DWORD PTR $T3[ebp]
  0004e	e8 00 00 00 00	 call	 ??0Data_t@_bstr_t@@QAE@PA_W_N@Z ; _bstr_t::Data_t::Data_t
  00053	89 45 e8	 mov	 DWORD PTR tv78[ebp], eax
  00056	eb 07		 jmp	 SHORT $LN5@bstr_t
$LN4@bstr_t:
  00058	c7 45 e8 00 00
	00 00		 mov	 DWORD PTR tv78[ebp], 0
$LN5@bstr_t:
  0005f	8b 55 e8	 mov	 edx, DWORD PTR tv78[ebp]
  00062	89 55 e4	 mov	 DWORD PTR $T2[ebp], edx
  00065	c7 45 fc ff ff
	ff ff		 mov	 DWORD PTR __$EHRec$[ebp+8], -1
  0006c	8b 45 f0	 mov	 eax, DWORD PTR _this$[ebp]
  0006f	8b 4d e4	 mov	 ecx, DWORD PTR $T2[ebp]
  00072	89 08		 mov	 DWORD PTR [eax], ecx

; 334  :     if (m_Data == NULL) {

  00074	8b 55 f0	 mov	 edx, DWORD PTR _this$[ebp]
  00077	83 3a 00	 cmp	 DWORD PTR [edx], 0
  0007a	75 0a		 jne	 SHORT $LN1@bstr_t

; 335  :         _com_issue_error(E_OUTOFMEMORY);

  0007c	68 0e 00 07 80	 push	 -2147024882		; 8007000eH
  00081	e8 00 00 00 00	 call	 ?_com_issue_error@@YGXJ@Z ; _com_issue_error
$LN1@bstr_t:

; 336  :     }
; 337  : }

  00086	8b 45 f0	 mov	 eax, DWORD PTR _this$[ebp]
$LN3@bstr_t:
  00089	8b 4d f4	 mov	 ecx, DWORD PTR __$EHRec$[ebp]
  0008c	64 89 0d 00 00
	00 00		 mov	 DWORD PTR fs:0, ecx
  00093	59		 pop	 ecx
  00094	8b e5		 mov	 esp, ebp
  00096	5d		 pop	 ebp
  00097	c2 08 00	 ret	 8
_TEXT	ENDS
;	COMDAT text$x
text$x	SEGMENT
__unwindfunclet$??0_bstr_t@@QAE@PA_W_N@Z$0:
  00000	6a 0c		 push	 12			; 0000000cH
  00002	8b 45 ec	 mov	 eax, DWORD PTR $T3[ebp]
  00005	50		 push	 eax
  00006	e8 00 00 00 00	 call	 ??3@YAXPAXI@Z		; operator delete
  0000b	83 c4 08	 add	 esp, 8
  0000e	c3		 ret	 0
__ehhandler$??0_bstr_t@@QAE@PA_W_N@Z:
  0000f	8b 54 24 08	 mov	 edx, DWORD PTR [esp+8]
  00013	8d 42 0c	 lea	 eax, DWORD PTR [edx+12]
  00016	8b 4a ec	 mov	 ecx, DWORD PTR [edx-20]
  00019	33 c8		 xor	 ecx, eax
  0001b	e8 00 00 00 00	 call	 @__security_check_cookie@4
  00020	b8 00 00 00 00	 mov	 eax, OFFSET __ehfuncinfo$??0_bstr_t@@QAE@PA_W_N@Z
  00025	e9 00 00 00 00	 jmp	 ___CxxFrameHandler3
text$x	ENDS
??0_bstr_t@@QAE@PA_W_N@Z ENDP				; _bstr_t::_bstr_t
; Function compile flags: /Odtp
; File c:\program files (x86)\microsoft visual studio\2017\community\vc\tools\msvc\14.16.27023\include\comutil.h
;	COMDAT ??0_bstr_t@@QAE@PB_W@Z
_TEXT	SEGMENT
$T2 = -28						; size = 4
tv77 = -24						; size = 4
_this$ = -20						; size = 4
$T3 = -16						; size = 4
__$EHRec$ = -12						; size = 12
_s$ = 8							; size = 4
??0_bstr_t@@QAE@PB_W@Z PROC				; _bstr_t::_bstr_t, COMDAT
; _this$ = ecx

; 322  : {

  00000	55		 push	 ebp
  00001	8b ec		 mov	 ebp, esp
  00003	6a ff		 push	 -1
  00005	68 00 00 00 00	 push	 __ehhandler$??0_bstr_t@@QAE@PB_W@Z
  0000a	64 a1 00 00 00
	00		 mov	 eax, DWORD PTR fs:0
  00010	50		 push	 eax
  00011	83 ec 10	 sub	 esp, 16			; 00000010H
  00014	a1 00 00 00 00	 mov	 eax, DWORD PTR ___security_cookie
  00019	33 c5		 xor	 eax, ebp
  0001b	50		 push	 eax
  0001c	8d 45 f4	 lea	 eax, DWORD PTR __$EHRec$[ebp]
  0001f	64 a3 00 00 00
	00		 mov	 DWORD PTR fs:0, eax
  00025	89 4d ec	 mov	 DWORD PTR _this$[ebp], ecx

; 915  :     return ::operator new(sz);

  00028	6a 0c		 push	 12			; 0000000cH
  0002a	e8 00 00 00 00	 call	 ??2@YAPAXI@Z		; operator new
  0002f	83 c4 04	 add	 esp, 4

; 321  :     : m_Data(new Data_t(s))

  00032	89 45 f0	 mov	 DWORD PTR $T3[ebp], eax
  00035	c7 45 fc 00 00
	00 00		 mov	 DWORD PTR __$EHRec$[ebp+8], 0
  0003c	83 7d f0 00	 cmp	 DWORD PTR $T3[ebp], 0
  00040	74 43		 je	 SHORT $LN4@bstr_t

; 689  :     : m_str(NULL), m_RefCount(1)

  00042	8b 45 f0	 mov	 eax, DWORD PTR $T3[ebp]
  00045	c7 40 04 00 00
	00 00		 mov	 DWORD PTR [eax+4], 0
  0004c	8b 4d f0	 mov	 ecx, DWORD PTR $T3[ebp]
  0004f	c7 41 08 01 00
	00 00		 mov	 DWORD PTR [ecx+8], 1

; 690  : {
; 691  :     m_wstr = ::SysAllocString(s);

  00056	8b 55 08	 mov	 edx, DWORD PTR _s$[ebp]
  00059	52		 push	 edx
  0005a	ff 15 00 00 00
	00		 call	 DWORD PTR __imp__SysAllocString@4
  00060	8b 4d f0	 mov	 ecx, DWORD PTR $T3[ebp]
  00063	89 01		 mov	 DWORD PTR [ecx], eax

; 692  : 
; 693  :     if (m_wstr == NULL && s != NULL) {

  00065	8b 55 f0	 mov	 edx, DWORD PTR $T3[ebp]
  00068	83 3a 00	 cmp	 DWORD PTR [edx], 0
  0006b	75 10		 jne	 SHORT $LN11@bstr_t
  0006d	83 7d 08 00	 cmp	 DWORD PTR _s$[ebp], 0
  00071	74 0a		 je	 SHORT $LN11@bstr_t

; 694  :         _com_issue_error(E_OUTOFMEMORY);

  00073	68 0e 00 07 80	 push	 -2147024882		; 8007000eH
  00078	e8 00 00 00 00	 call	 ?_com_issue_error@@YGXJ@Z ; _com_issue_error
$LN11@bstr_t:

; 321  :     : m_Data(new Data_t(s))

  0007d	8b 45 f0	 mov	 eax, DWORD PTR $T3[ebp]
  00080	89 45 e8	 mov	 DWORD PTR tv77[ebp], eax
  00083	eb 07		 jmp	 SHORT $LN5@bstr_t
$LN4@bstr_t:
  00085	c7 45 e8 00 00
	00 00		 mov	 DWORD PTR tv77[ebp], 0
$LN5@bstr_t:
  0008c	8b 4d e8	 mov	 ecx, DWORD PTR tv77[ebp]
  0008f	89 4d e4	 mov	 DWORD PTR $T2[ebp], ecx
  00092	c7 45 fc ff ff
	ff ff		 mov	 DWORD PTR __$EHRec$[ebp+8], -1
  00099	8b 55 ec	 mov	 edx, DWORD PTR _this$[ebp]
  0009c	8b 45 e4	 mov	 eax, DWORD PTR $T2[ebp]
  0009f	89 02		 mov	 DWORD PTR [edx], eax

; 323  :     if (m_Data == NULL) {

  000a1	8b 4d ec	 mov	 ecx, DWORD PTR _this$[ebp]
  000a4	83 39 00	 cmp	 DWORD PTR [ecx], 0
  000a7	75 0a		 jne	 SHORT $LN1@bstr_t

; 324  :         _com_issue_error(E_OUTOFMEMORY);

  000a9	68 0e 00 07 80	 push	 -2147024882		; 8007000eH
  000ae	e8 00 00 00 00	 call	 ?_com_issue_error@@YGXJ@Z ; _com_issue_error
$LN1@bstr_t:

; 325  :     }
; 326  : }

  000b3	8b 45 ec	 mov	 eax, DWORD PTR _this$[ebp]
$LN12@bstr_t:
  000b6	8b 4d f4	 mov	 ecx, DWORD PTR __$EHRec$[ebp]
  000b9	64 89 0d 00 00
	00 00		 mov	 DWORD PTR fs:0, ecx
  000c0	59		 pop	 ecx
  000c1	8b e5		 mov	 esp, ebp
  000c3	5d		 pop	 ebp
  000c4	c2 04 00	 ret	 4
_TEXT	ENDS
;	COMDAT text$x
text$x	SEGMENT
__unwindfunclet$??0_bstr_t@@QAE@PB_W@Z$0:
  00000	6a 0c		 push	 12			; 0000000cH
  00002	8b 45 f0	 mov	 eax, DWORD PTR $T3[ebp]
  00005	50		 push	 eax
  00006	e8 00 00 00 00	 call	 ??3@YAXPAXI@Z		; operator delete
  0000b	83 c4 08	 add	 esp, 8
  0000e	c3		 ret	 0
__ehhandler$??0_bstr_t@@QAE@PB_W@Z:
  0000f	8b 54 24 08	 mov	 edx, DWORD PTR [esp+8]
  00013	8d 42 0c	 lea	 eax, DWORD PTR [edx+12]
  00016	8b 4a ec	 mov	 ecx, DWORD PTR [edx-20]
  00019	33 c8		 xor	 ecx, eax
  0001b	e8 00 00 00 00	 call	 @__security_check_cookie@4
  00020	b8 00 00 00 00	 mov	 eax, OFFSET __ehfuncinfo$??0_bstr_t@@QAE@PB_W@Z
  00025	e9 00 00 00 00	 jmp	 ___CxxFrameHandler3
text$x	ENDS
??0_bstr_t@@QAE@PB_W@Z ENDP				; _bstr_t::_bstr_t
; Function compile flags: /Odtp
; File c:\program files (x86)\microsoft visual studio\2017\community\vc\tools\msvc\14.16.27023\include\comutil.h
;	COMDAT ??0_bstr_t@@QAE@PBD@Z
_TEXT	SEGMENT
$T2 = -28						; size = 4
tv77 = -24						; size = 4
_this$ = -20						; size = 4
$T3 = -16						; size = 4
__$EHRec$ = -12						; size = 12
_s$ = 8							; size = 4
??0_bstr_t@@QAE@PBD@Z PROC				; _bstr_t::_bstr_t, COMDAT
; _this$ = ecx

; 312  : {

  00000	55		 push	 ebp
  00001	8b ec		 mov	 ebp, esp
  00003	6a ff		 push	 -1
  00005	68 00 00 00 00	 push	 __ehhandler$??0_bstr_t@@QAE@PBD@Z
  0000a	64 a1 00 00 00
	00		 mov	 eax, DWORD PTR fs:0
  00010	50		 push	 eax
  00011	83 ec 10	 sub	 esp, 16			; 00000010H
  00014	a1 00 00 00 00	 mov	 eax, DWORD PTR ___security_cookie
  00019	33 c5		 xor	 eax, ebp
  0001b	50		 push	 eax
  0001c	8d 45 f4	 lea	 eax, DWORD PTR __$EHRec$[ebp]
  0001f	64 a3 00 00 00
	00		 mov	 DWORD PTR fs:0, eax
  00025	89 4d ec	 mov	 DWORD PTR _this$[ebp], ecx

; 915  :     return ::operator new(sz);

  00028	6a 0c		 push	 12			; 0000000cH
  0002a	e8 00 00 00 00	 call	 ??2@YAPAXI@Z		; operator new
  0002f	83 c4 04	 add	 esp, 4

; 311  :     : m_Data(new Data_t(s))

  00032	89 45 f0	 mov	 DWORD PTR $T3[ebp], eax
  00035	c7 45 fc 00 00
	00 00		 mov	 DWORD PTR __$EHRec$[ebp+8], 0
  0003c	83 7d f0 00	 cmp	 DWORD PTR $T3[ebp], 0
  00040	74 2a		 je	 SHORT $LN4@bstr_t

; 681  :     : m_str(NULL), m_RefCount(1)

  00042	8b 45 f0	 mov	 eax, DWORD PTR $T3[ebp]
  00045	c7 40 04 00 00
	00 00		 mov	 DWORD PTR [eax+4], 0
  0004c	8b 4d f0	 mov	 ecx, DWORD PTR $T3[ebp]
  0004f	c7 41 08 01 00
	00 00		 mov	 DWORD PTR [ecx+8], 1

; 682  : {
; 683  :     m_wstr = _com_util::ConvertStringToBSTR(s);

  00056	8b 55 08	 mov	 edx, DWORD PTR _s$[ebp]
  00059	52		 push	 edx
  0005a	e8 00 00 00 00	 call	 ?ConvertStringToBSTR@_com_util@@YGPA_WPBD@Z ; _com_util::ConvertStringToBSTR
  0005f	8b 4d f0	 mov	 ecx, DWORD PTR $T3[ebp]
  00062	89 01		 mov	 DWORD PTR [ecx], eax

; 311  :     : m_Data(new Data_t(s))

  00064	8b 55 f0	 mov	 edx, DWORD PTR $T3[ebp]
  00067	89 55 e8	 mov	 DWORD PTR tv77[ebp], edx
  0006a	eb 07		 jmp	 SHORT $LN5@bstr_t
$LN4@bstr_t:
  0006c	c7 45 e8 00 00
	00 00		 mov	 DWORD PTR tv77[ebp], 0
$LN5@bstr_t:
  00073	8b 45 e8	 mov	 eax, DWORD PTR tv77[ebp]
  00076	89 45 e4	 mov	 DWORD PTR $T2[ebp], eax
  00079	c7 45 fc ff ff
	ff ff		 mov	 DWORD PTR __$EHRec$[ebp+8], -1
  00080	8b 4d ec	 mov	 ecx, DWORD PTR _this$[ebp]
  00083	8b 55 e4	 mov	 edx, DWORD PTR $T2[ebp]
  00086	89 11		 mov	 DWORD PTR [ecx], edx

; 313  :     if (m_Data == NULL) {

  00088	8b 45 ec	 mov	 eax, DWORD PTR _this$[ebp]
  0008b	83 38 00	 cmp	 DWORD PTR [eax], 0
  0008e	75 0a		 jne	 SHORT $LN1@bstr_t

; 314  :         _com_issue_error(E_OUTOFMEMORY);

  00090	68 0e 00 07 80	 push	 -2147024882		; 8007000eH
  00095	e8 00 00 00 00	 call	 ?_com_issue_error@@YGXJ@Z ; _com_issue_error
$LN1@bstr_t:

; 315  :     }
; 316  : }

  0009a	8b 45 ec	 mov	 eax, DWORD PTR _this$[ebp]
$LN3@bstr_t:
  0009d	8b 4d f4	 mov	 ecx, DWORD PTR __$EHRec$[ebp]
  000a0	64 89 0d 00 00
	00 00		 mov	 DWORD PTR fs:0, ecx
  000a7	59		 pop	 ecx
  000a8	8b e5		 mov	 esp, ebp
  000aa	5d		 pop	 ebp
  000ab	c2 04 00	 ret	 4
_TEXT	ENDS
;	COMDAT text$x
text$x	SEGMENT
__unwindfunclet$??0_bstr_t@@QAE@PBD@Z$0:
  00000	6a 0c		 push	 12			; 0000000cH
  00002	8b 45 f0	 mov	 eax, DWORD PTR $T3[ebp]
  00005	50		 push	 eax
  00006	e8 00 00 00 00	 call	 ??3@YAXPAXI@Z		; operator delete
  0000b	83 c4 08	 add	 esp, 8
  0000e	c3		 ret	 0
__ehhandler$??0_bstr_t@@QAE@PBD@Z:
  0000f	8b 54 24 08	 mov	 edx, DWORD PTR [esp+8]
  00013	8d 42 0c	 lea	 eax, DWORD PTR [edx+12]
  00016	8b 4a ec	 mov	 ecx, DWORD PTR [edx-20]
  00019	33 c8		 xor	 ecx, eax
  0001b	e8 00 00 00 00	 call	 @__security_check_cookie@4
  00020	b8 00 00 00 00	 mov	 eax, OFFSET __ehfuncinfo$??0_bstr_t@@QAE@PBD@Z
  00025	e9 00 00 00 00	 jmp	 ___CxxFrameHandler3
text$x	ENDS
??0_bstr_t@@QAE@PBD@Z ENDP				; _bstr_t::_bstr_t
; Function compile flags: /Odtp
; File c:\program files (x86)\microsoft visual studio\2017\community\vc\tools\msvc\14.16.27023\include\comutil.h
;	COMDAT ?CheckError@_com_util@@YAXJ@Z
_TEXT	SEGMENT
_hr$ = 8						; size = 4
?CheckError@_com_util@@YAXJ@Z PROC			; _com_util::CheckError, COMDAT

; 95   :     {

  00000	55		 push	 ebp
  00001	8b ec		 mov	 ebp, esp

; 96   :         if (FAILED(hr)) {

  00003	83 7d 08 00	 cmp	 DWORD PTR _hr$[ebp], 0
  00007	7d 09		 jge	 SHORT $LN3@CheckError

; 97   :             _com_issue_error(hr);

  00009	8b 45 08	 mov	 eax, DWORD PTR _hr$[ebp]
  0000c	50		 push	 eax
  0000d	e8 00 00 00 00	 call	 ?_com_issue_error@@YGXJ@Z ; _com_issue_error
$LN3@CheckError:

; 98   :         }
; 99   :     }

  00012	5d		 pop	 ebp
  00013	c3		 ret	 0
?CheckError@_com_util@@YAXJ@Z ENDP			; _com_util::CheckError
_TEXT	ENDS
; Function compile flags: /Odtp
; File c:\program files (x86)\windows kits\10\include\10.0.17763.0\ucrt\wchar.h
;	COMDAT _wmemcpy
_TEXT	SEGMENT
__S1$ = 8						; size = 4
__S2$ = 12						; size = 4
__N$ = 16						; size = 4
_wmemcpy PROC						; COMDAT

; 230  :     {

  00000	55		 push	 ebp
  00001	8b ec		 mov	 ebp, esp

; 231  :         #pragma warning(push)
; 232  :         #pragma warning(disable : 4995 4996 6386)
; 233  :         return (wchar_t*)memcpy(_S1, _S2, _N*sizeof(wchar_t));

  00003	8b 45 10	 mov	 eax, DWORD PTR __N$[ebp]
  00006	d1 e0		 shl	 eax, 1
  00008	50		 push	 eax
  00009	8b 4d 0c	 mov	 ecx, DWORD PTR __S2$[ebp]
  0000c	51		 push	 ecx
  0000d	8b 55 08	 mov	 edx, DWORD PTR __S1$[ebp]
  00010	52		 push	 edx
  00011	e8 00 00 00 00	 call	 _memcpy
  00016	83 c4 0c	 add	 esp, 12			; 0000000cH

; 234  :         #pragma warning(pop)
; 235  :     }

  00019	5d		 pop	 ebp
  0001a	c3		 ret	 0
_wmemcpy ENDP
_TEXT	ENDS
; Function compile flags: /Odtp
; File c:\program files (x86)\microsoft visual studio\2017\community\vc\tools\msvc\14.16.27023\atlmfc\include\atltrace.h
;	COMDAT ?RegisterCategory@CTrace@ATL@@SAXPBDI@Z
_TEXT	SEGMENT
_buffer$ = -260						; size = 256
__$ArrayPad$ = -4					; size = 4
_pszCategory$ = 8					; size = 4
_nCategory$ = 12					; size = 4
?RegisterCategory@CTrace@ATL@@SAXPBDI@Z PROC		; ATL::CTrace::RegisterCategory, COMDAT

; 329  : 	{

  00000	55		 push	 ebp
  00001	8b ec		 mov	 ebp, esp
  00003	81 ec 04 01 00
	00		 sub	 esp, 260		; 00000104H
  00009	a1 00 00 00 00	 mov	 eax, DWORD PTR ___security_cookie
  0000e	33 c5		 xor	 eax, ebp
  00010	89 45 fc	 mov	 DWORD PTR __$ArrayPad$[ebp], eax

; 330  : 		if (pszCategory == nullptr)

  00013	83 7d 08 00	 cmp	 DWORD PTR _pszCategory$[ebp], 0
  00017	75 05		 jne	 SHORT $LN2@RegisterCa

; 331  : 		{
; 332  : 			return;

  00019	e9 a9 00 00 00	 jmp	 $LN1@RegisterCa
$LN2@RegisterCa:

; 333  : 		}
; 334  : 
; 335  : 		if (m_nLastCategory >= MaxCategoryArray) 

  0001e	83 3d 00 00 00
	00 20		 cmp	 DWORD PTR ?m_nLastCategory@CTrace@ATL@@1IA, 32 ; ATL::CTrace::m_nLastCategory, 00000020H
  00025	72 2d		 jb	 SHORT $LN3@RegisterCa

; 336  : 		{
; 337  : 			ATLASSERT(false && "Too many categories defined");

  00027	33 c0		 xor	 eax, eax
  00029	75 27		 jne	 SHORT $LN5@RegisterCa
  0002b	68 00 00 00 00	 push	 OFFSET ??_C@_1EO@EBPPKGOM@?$AAf?$AAa?$AAl?$AAs?$AAe?$AA?5?$AA?$CG?$AA?$CG?$AA?5?$AA?$CC?$AAT?$AAo?$AAo?$AA?5?$AAm@
  00030	68 00 00 00 00	 push	 OFFSET ??_C@_17CNPHIMPH@?$AA?$CF?$AAl?$AAs@
  00035	6a 00		 push	 0
  00037	68 51 01 00 00	 push	 337			; 00000151H
  0003c	68 00 00 00 00	 push	 OFFSET ??_C@_1OE@PDFAMNPL@?$AAc?$AA?3?$AA?2?$AAp?$AAr?$AAo?$AAg?$AAr?$AAa?$AAm?$AA?5?$AAf?$AAi?$AAl?$AAe@
  00041	6a 02		 push	 2
  00043	ff 15 00 00 00
	00		 call	 DWORD PTR __imp___CrtDbgReportW
  00049	83 c4 18	 add	 esp, 24			; 00000018H
  0004c	83 f8 01	 cmp	 eax, 1
  0004f	75 01		 jne	 SHORT $LN5@RegisterCa
  00051	cc		 int	 3
$LN5@RegisterCa:

; 338  : 			return;

  00052	eb 73		 jmp	 SHORT $LN1@RegisterCa
$LN3@RegisterCa:

; 339  : 		}
; 340  : 
; 341  : 		m_nMap[m_nLastCategory].nCategory = nCategory;

  00054	69 15 00 00 00
	00 04 01 00 00	 imul	 edx, DWORD PTR ?m_nLastCategory@CTrace@ATL@@1IA, 260 ; ATL::CTrace::m_nLastCategory
  0005e	8b 45 0c	 mov	 eax, DWORD PTR _nCategory$[ebp]
  00061	89 82 00 00 00
	00		 mov	 DWORD PTR ?m_nMap@CTrace@ATL@@1PAUCategoryMap@12@A[edx], eax

; 342  : #ifdef _UNICODE
; 343  : 		wcscpy_s(m_nMap[m_nLastCategory].categryName, MaxLengthOfCategoryName - 1, pszCategory);
; 344  : #else
; 345  : 		wchar_t buffer[MaxLengthOfCategoryName] = { 0 };	

  00067	68 00 01 00 00	 push	 256			; 00000100H
  0006c	6a 00		 push	 0
  0006e	8d 8d fc fe ff
	ff		 lea	 ecx, DWORD PTR _buffer$[ebp]
  00074	51		 push	 ecx
  00075	e8 00 00 00 00	 call	 _memset
  0007a	83 c4 0c	 add	 esp, 12			; 0000000cH

; 346  : #if _MSC_VER < 1900
; 347  : 		swprintf_s(buffer, MaxLengthOfCategoryName - 1, L"%S", pszCategory);
; 348  : #else
; 349  : 		swprintf_s(buffer, MaxLengthOfCategoryName - 1, L"%hs", pszCategory);

  0007d	8b 55 08	 mov	 edx, DWORD PTR _pszCategory$[ebp]
  00080	52		 push	 edx
  00081	68 00 00 00 00	 push	 OFFSET ??_C@_17LGGGMOOB@?$AA?$CF?$AAh?$AAs@
  00086	6a 7f		 push	 127			; 0000007fH
  00088	8d 85 fc fe ff
	ff		 lea	 eax, DWORD PTR _buffer$[ebp]
  0008e	50		 push	 eax
  0008f	e8 00 00 00 00	 call	 _swprintf_s
  00094	83 c4 10	 add	 esp, 16			; 00000010H

; 350  : #endif
; 351  : 		wcscpy_s(m_nMap[m_nLastCategory].categryName, MaxLengthOfCategoryName - 1, buffer);

  00097	8d 8d fc fe ff
	ff		 lea	 ecx, DWORD PTR _buffer$[ebp]
  0009d	51		 push	 ecx
  0009e	6a 7f		 push	 127			; 0000007fH
  000a0	69 15 00 00 00
	00 04 01 00 00	 imul	 edx, DWORD PTR ?m_nLastCategory@CTrace@ATL@@1IA, 260 ; ATL::CTrace::m_nLastCategory
  000aa	81 c2 04 00 00
	00		 add	 edx, OFFSET ?m_nMap@CTrace@ATL@@1PAUCategoryMap@12@A+4
  000b0	52		 push	 edx
  000b1	ff 15 00 00 00
	00		 call	 DWORD PTR __imp__wcscpy_s
  000b7	83 c4 0c	 add	 esp, 12			; 0000000cH

; 352  : #endif
; 353  : 	
; 354  : 		m_nLastCategory++;

  000ba	a1 00 00 00 00	 mov	 eax, DWORD PTR ?m_nLastCategory@CTrace@ATL@@1IA ; ATL::CTrace::m_nLastCategory
  000bf	83 c0 01	 add	 eax, 1
  000c2	a3 00 00 00 00	 mov	 DWORD PTR ?m_nLastCategory@CTrace@ATL@@1IA, eax ; ATL::CTrace::m_nLastCategory
$LN1@RegisterCa:

; 355  : 	}

  000c7	8b 4d fc	 mov	 ecx, DWORD PTR __$ArrayPad$[ebp]
  000ca	33 cd		 xor	 ecx, ebp
  000cc	e8 00 00 00 00	 call	 @__security_check_cookie@4
  000d1	8b e5		 mov	 esp, ebp
  000d3	5d		 pop	 ebp
  000d4	c3		 ret	 0
?RegisterCategory@CTrace@ATL@@SAXPBDI@Z ENDP		; ATL::CTrace::RegisterCategory
_TEXT	ENDS
; Function compile flags: /Odtp
; File c:\program files (x86)\microsoft visual studio\2017\community\vc\tools\msvc\14.16.27023\atlmfc\include\atltrace.h
;	COMDAT ??__EatlTraceException@ATL@@YAXXZ
text$di	SEGMENT
??__EatlTraceException@ATL@@YAXXZ PROC			; ATL::`dynamic initializer for 'atlTraceException'', COMDAT

; 110  : __declspec(selectany) CTraceCategoryEx<CTraceCategoryEx<>::TraceException> atlTraceException(_T("atlTraceException"));

  00000	55		 push	 ebp
  00001	8b ec		 mov	 ebp, esp

; 481  : 	CTrace::RegisterCategory(pszCategoryName, traceCategory);

  00003	68 00 20 00 00	 push	 8192			; 00002000H
  00008	68 00 00 00 00	 push	 OFFSET ??_C@_0BC@PGMFNIFA@atlTraceException@
  0000d	e8 00 00 00 00	 call	 ?RegisterCategory@CTrace@ATL@@SAXPBDI@Z ; ATL::CTrace::RegisterCategory
  00012	83 c4 08	 add	 esp, 8

; 110  : __declspec(selectany) CTraceCategoryEx<CTraceCategoryEx<>::TraceException> atlTraceException(_T("atlTraceException"));

  00015	5d		 pop	 ebp
  00016	c3		 ret	 0
??__EatlTraceException@ATL@@YAXXZ ENDP			; ATL::`dynamic initializer for 'atlTraceException''
text$di	ENDS
; Function compile flags: /Odtp
; File c:\program files (x86)\microsoft visual studio\2017\community\vc\tools\msvc\14.16.27023\atlmfc\include\atltrace.h
;	COMDAT ??0?$CTraceCategoryEx@$0CAAA@$0A@@ATL@@QAE@PBD@Z
_TEXT	SEGMENT
_this$ = -4						; size = 4
_pszCategoryName$ = 8					; size = 4
??0?$CTraceCategoryEx@$0CAAA@$0A@@ATL@@QAE@PBD@Z PROC	; ATL::CTraceCategoryEx<8192,0>::CTraceCategoryEx<8192,0>, COMDAT
; _this$ = ecx

; 480  : {

  00000	55		 push	 ebp
  00001	8b ec		 mov	 ebp, esp
  00003	51		 push	 ecx
  00004	89 4d fc	 mov	 DWORD PTR _this$[ebp], ecx

; 481  : 	CTrace::RegisterCategory(pszCategoryName, traceCategory);

  00007	68 00 20 00 00	 push	 8192			; 00002000H
  0000c	8b 45 08	 mov	 eax, DWORD PTR _pszCategoryName$[ebp]
  0000f	50		 push	 eax
  00010	e8 00 00 00 00	 call	 ?RegisterCategory@CTrace@ATL@@SAXPBDI@Z ; ATL::CTrace::RegisterCategory
  00015	83 c4 08	 add	 esp, 8

; 482  : }

  00018	8b 45 fc	 mov	 eax, DWORD PTR _this$[ebp]
  0001b	8b e5		 mov	 esp, ebp
  0001d	5d		 pop	 ebp
  0001e	c2 04 00	 ret	 4
??0?$CTraceCategoryEx@$0CAAA@$0A@@ATL@@QAE@PBD@Z ENDP	; ATL::CTraceCategoryEx<8192,0>::CTraceCategoryEx<8192,0>
_TEXT	ENDS
; Function compile flags: /Odtp
; File c:\program files (x86)\microsoft visual studio\2017\community\vc\tools\msvc\14.16.27023\atlmfc\include\afx.h
;	COMDAT ?AfxAssertFailedLine@@YGHPBDH@Z
_TEXT	SEGMENT
_msg$ = -36						; size = 28
_bResult$ = -8						; size = 4
_bQuit$ = -4						; size = 4
_lpszFileName$ = 8					; size = 4
_nLine$ = 12						; size = 4
?AfxAssertFailedLine@@YGHPBDH@Z PROC			; AfxAssertFailedLine, COMDAT

; 312  : {

  00000	55		 push	 ebp
  00001	8b ec		 mov	 ebp, esp
  00003	83 ec 24	 sub	 esp, 36			; 00000024H

; 313  : 	// we remove WM_QUIT because if it is in the queue then the message box
; 314  : 	// won't display
; 315  : 	MSG msg;
; 316  : 	BOOL bQuit = PeekMessage(&msg, NULL, WM_QUIT, WM_QUIT, PM_REMOVE);

  00006	6a 01		 push	 1
  00008	6a 12		 push	 18			; 00000012H
  0000a	6a 12		 push	 18			; 00000012H
  0000c	6a 00		 push	 0
  0000e	8d 45 dc	 lea	 eax, DWORD PTR _msg$[ebp]
  00011	50		 push	 eax
  00012	ff 15 00 00 00
	00		 call	 DWORD PTR __imp__PeekMessageA@20
  00018	89 45 fc	 mov	 DWORD PTR _bQuit$[ebp], eax

; 317  : 	BOOL bResult = _CrtDbgReport(_CRT_ASSERT, lpszFileName, nLine, NULL, NULL);

  0001b	6a 00		 push	 0
  0001d	6a 00		 push	 0
  0001f	8b 4d 0c	 mov	 ecx, DWORD PTR _nLine$[ebp]
  00022	51		 push	 ecx
  00023	8b 55 08	 mov	 edx, DWORD PTR _lpszFileName$[ebp]
  00026	52		 push	 edx
  00027	6a 02		 push	 2
  00029	ff 15 00 00 00
	00		 call	 DWORD PTR __imp___CrtDbgReport
  0002f	83 c4 14	 add	 esp, 20			; 00000014H
  00032	89 45 f8	 mov	 DWORD PTR _bResult$[ebp], eax

; 318  : 	if (bQuit)

  00035	83 7d fc 00	 cmp	 DWORD PTR _bQuit$[ebp], 0
  00039	74 0a		 je	 SHORT $LN2@AfxAssertF

; 319  : 		PostQuitMessage((int)msg.wParam);

  0003b	8b 45 e4	 mov	 eax, DWORD PTR _msg$[ebp+8]
  0003e	50		 push	 eax
  0003f	ff 15 00 00 00
	00		 call	 DWORD PTR __imp__PostQuitMessage@4
$LN2@AfxAssertF:

; 320  : 	return bResult;

  00045	8b 45 f8	 mov	 eax, DWORD PTR _bResult$[ebp]

; 321  : }

  00048	8b e5		 mov	 esp, ebp
  0004a	5d		 pop	 ebp
  0004b	c2 08 00	 ret	 8
?AfxAssertFailedLine@@YGHPBDH@Z ENDP			; AfxAssertFailedLine
_TEXT	ENDS
; Function compile flags: /Odtp
; File c:\program files (x86)\windows kits\10\include\10.0.17763.0\ucrt\time.h
;	COMDAT _time
_TEXT	SEGMENT
__Time$ = 8						; size = 4
_time	PROC						; COMDAT

; 535  :         {

  00000	55		 push	 ebp
  00001	8b ec		 mov	 ebp, esp

; 536  :             return _time64(_Time);

  00003	8b 45 08	 mov	 eax, DWORD PTR __Time$[ebp]
  00006	50		 push	 eax
  00007	ff 15 00 00 00
	00		 call	 DWORD PTR __imp___time64
  0000d	83 c4 04	 add	 esp, 4

; 537  :         }

  00010	5d		 pop	 ebp
  00011	c3		 ret	 0
_time	ENDP
_TEXT	ENDS
; Function compile flags: /Odtp
; File c:\program files (x86)\windows kits\10\include\10.0.17763.0\ucrt\corecrt_wstdio.h
;	COMDAT _swprintf_s
_TEXT	SEGMENT
__Result$ = -20						; size = 4
__Format$ = -16						; size = 4
__ArgList$ = -12					; size = 4
tv80 = -8						; size = 4
__Result$1 = -4						; size = 4
__Buffer$ = 8						; size = 4
__BufferCount$ = 12					; size = 4
__Format$ = 16						; size = 4
_swprintf_s PROC					; COMDAT

; 1538 :         {

  00000	55		 push	 ebp
  00001	8b ec		 mov	 ebp, esp
  00003	83 ec 14	 sub	 esp, 20			; 00000014H

; 1539 :             int _Result;
; 1540 :             va_list _ArgList;
; 1541 :             __crt_va_start(_ArgList, _Format);

  00006	8d 45 14	 lea	 eax, DWORD PTR __Format$[ebp+4]
  00009	89 45 f4	 mov	 DWORD PTR __ArgList$[ebp], eax

; 1542 :             _Result = _vswprintf_s_l(_Buffer, _BufferCount, _Format, NULL, _ArgList);

  0000c	8b 4d 10	 mov	 ecx, DWORD PTR __Format$[ebp]
  0000f	89 4d f0	 mov	 DWORD PTR __Format$[ebp], ecx

; 1265 :         int const _Result = __stdio_common_vswprintf_s(

  00012	8b 55 f4	 mov	 edx, DWORD PTR __ArgList$[ebp]
  00015	52		 push	 edx
  00016	6a 00		 push	 0
  00018	8b 45 f0	 mov	 eax, DWORD PTR __Format$[ebp]
  0001b	50		 push	 eax
  0001c	8b 4d 0c	 mov	 ecx, DWORD PTR __BufferCount$[ebp]
  0001f	51		 push	 ecx
  00020	8b 55 08	 mov	 edx, DWORD PTR __Buffer$[ebp]
  00023	52		 push	 edx
  00024	e8 00 00 00 00	 call	 ___local_stdio_printf_options
  00029	8b 48 04	 mov	 ecx, DWORD PTR [eax+4]
  0002c	51		 push	 ecx
  0002d	8b 10		 mov	 edx, DWORD PTR [eax]
  0002f	52		 push	 edx
  00030	ff 15 00 00 00
	00		 call	 DWORD PTR __imp____stdio_common_vswprintf_s
  00036	83 c4 1c	 add	 esp, 28			; 0000001cH
  00039	89 45 fc	 mov	 DWORD PTR __Result$1[ebp], eax

; 1266 :             _CRT_INTERNAL_LOCAL_PRINTF_OPTIONS,
; 1267 :             _Buffer, _BufferCount, _Format, _Locale, _ArgList);
; 1268 : 
; 1269 :         return _Result < 0 ? -1 : _Result;

  0003c	83 7d fc 00	 cmp	 DWORD PTR __Result$1[ebp], 0
  00040	7d 09		 jge	 SHORT $LN5@swprintf_s
  00042	c7 45 f8 ff ff
	ff ff		 mov	 DWORD PTR tv80[ebp], -1
  00049	eb 06		 jmp	 SHORT $LN3@swprintf_s
$LN5@swprintf_s:
  0004b	8b 45 fc	 mov	 eax, DWORD PTR __Result$1[ebp]
  0004e	89 45 f8	 mov	 DWORD PTR tv80[ebp], eax
$LN3@swprintf_s:

; 1542 :             _Result = _vswprintf_s_l(_Buffer, _BufferCount, _Format, NULL, _ArgList);

  00051	8b 4d f8	 mov	 ecx, DWORD PTR tv80[ebp]
  00054	89 4d ec	 mov	 DWORD PTR __Result$[ebp], ecx

; 1543 :             __crt_va_end(_ArgList);

  00057	c7 45 f4 00 00
	00 00		 mov	 DWORD PTR __ArgList$[ebp], 0

; 1544 :             return _Result;

  0005e	8b 45 ec	 mov	 eax, DWORD PTR __Result$[ebp]

; 1545 :         }

  00061	8b e5		 mov	 esp, ebp
  00063	5d		 pop	 ebp
  00064	c3		 ret	 0
_swprintf_s ENDP
_TEXT	ENDS
; Function compile flags: /Odtp
; File c:\program files (x86)\windows kits\10\include\10.0.17763.0\ucrt\corecrt_wstdio.h
;	COMDAT __vswprintf_s_l
_TEXT	SEGMENT
tv73 = -8						; size = 4
__Result$ = -4						; size = 4
__Buffer$ = 8						; size = 4
__BufferCount$ = 12					; size = 4
__Format$ = 16						; size = 4
__Locale$ = 20						; size = 4
__ArgList$ = 24						; size = 4
__vswprintf_s_l PROC					; COMDAT

; 1264 :     {

  00000	55		 push	 ebp
  00001	8b ec		 mov	 ebp, esp
  00003	83 ec 08	 sub	 esp, 8

; 1265 :         int const _Result = __stdio_common_vswprintf_s(

  00006	8b 45 18	 mov	 eax, DWORD PTR __ArgList$[ebp]
  00009	50		 push	 eax
  0000a	8b 4d 14	 mov	 ecx, DWORD PTR __Locale$[ebp]
  0000d	51		 push	 ecx
  0000e	8b 55 10	 mov	 edx, DWORD PTR __Format$[ebp]
  00011	52		 push	 edx
  00012	8b 45 0c	 mov	 eax, DWORD PTR __BufferCount$[ebp]
  00015	50		 push	 eax
  00016	8b 4d 08	 mov	 ecx, DWORD PTR __Buffer$[ebp]
  00019	51		 push	 ecx
  0001a	e8 00 00 00 00	 call	 ___local_stdio_printf_options
  0001f	8b 50 04	 mov	 edx, DWORD PTR [eax+4]
  00022	52		 push	 edx
  00023	8b 00		 mov	 eax, DWORD PTR [eax]
  00025	50		 push	 eax
  00026	ff 15 00 00 00
	00		 call	 DWORD PTR __imp____stdio_common_vswprintf_s
  0002c	83 c4 1c	 add	 esp, 28			; 0000001cH
  0002f	89 45 fc	 mov	 DWORD PTR __Result$[ebp], eax

; 1266 :             _CRT_INTERNAL_LOCAL_PRINTF_OPTIONS,
; 1267 :             _Buffer, _BufferCount, _Format, _Locale, _ArgList);
; 1268 : 
; 1269 :         return _Result < 0 ? -1 : _Result;

  00032	83 7d fc 00	 cmp	 DWORD PTR __Result$[ebp], 0
  00036	7d 09		 jge	 SHORT $LN3@vswprintf_
  00038	c7 45 f8 ff ff
	ff ff		 mov	 DWORD PTR tv73[ebp], -1
  0003f	eb 06		 jmp	 SHORT $LN4@vswprintf_
$LN3@vswprintf_:
  00041	8b 4d fc	 mov	 ecx, DWORD PTR __Result$[ebp]
  00044	89 4d f8	 mov	 DWORD PTR tv73[ebp], ecx
$LN4@vswprintf_:
  00047	8b 45 f8	 mov	 eax, DWORD PTR tv73[ebp]

; 1270 :     }

  0004a	8b e5		 mov	 esp, ebp
  0004c	5d		 pop	 ebp
  0004d	c3		 ret	 0
__vswprintf_s_l ENDP
_TEXT	ENDS
; Function compile flags: /Odtp
; File c:\program files (x86)\windows kits\10\include\10.0.17763.0\ucrt\corecrt_stdio_config.h
;	COMDAT ___local_stdio_printf_options
_TEXT	SEGMENT
___local_stdio_printf_options PROC			; COMDAT

; 86   :     {

  00000	55		 push	 ebp
  00001	8b ec		 mov	 ebp, esp

; 87   :         static unsigned __int64 _OptionsStorage;
; 88   :         return &_OptionsStorage;

  00003	b8 00 00 00 00	 mov	 eax, OFFSET ?_OptionsStorage@?1??__local_stdio_printf_options@@9@4_KA ; `__local_stdio_printf_options'::`2'::_OptionsStorage

; 89   :     }

  00008	5d		 pop	 ebp
  00009	c3		 ret	 0
___local_stdio_printf_options ENDP
_TEXT	ENDS
; Function compile flags: /Odtp
; File c:\program files (x86)\windows kits\10\include\10.0.17763.0\shared\guiddef.h
;	COMDAT _==
_TEXT	SEGMENT
tv74 = -12						; size = 4
tv68 = -8						; size = 4
tv76 = -4						; size = 4
_guidOne$ = 8						; size = 4
_guidOther$ = 12					; size = 4
_==	PROC						; COMDAT

; 193  : {

  00000	55		 push	 ebp
  00001	8b ec		 mov	 ebp, esp
  00003	83 ec 0c	 sub	 esp, 12			; 0000000cH

; 161  :     return !memcmp(&rguid1, &rguid2, sizeof(GUID));

  00006	6a 10		 push	 16			; 00000010H
  00008	8b 45 0c	 mov	 eax, DWORD PTR _guidOther$[ebp]
  0000b	50		 push	 eax
  0000c	8b 4d 08	 mov	 ecx, DWORD PTR _guidOne$[ebp]
  0000f	51		 push	 ecx
  00010	e8 00 00 00 00	 call	 _memcmp
  00015	83 c4 0c	 add	 esp, 12			; 0000000cH
  00018	89 45 f4	 mov	 DWORD PTR tv74[ebp], eax
  0001b	83 7d f4 00	 cmp	 DWORD PTR tv74[ebp], 0
  0001f	75 09		 jne	 SHORT $LN7@
  00021	c7 45 fc 01 00
	00 00		 mov	 DWORD PTR tv76[ebp], 1
  00028	eb 07		 jmp	 SHORT $LN5@
$LN7@:
  0002a	c7 45 fc 00 00
	00 00		 mov	 DWORD PTR tv76[ebp], 0
$LN5@:

; 194  :     return !!IsEqualGUID(guidOne,guidOther);

  00031	83 7d fc 00	 cmp	 DWORD PTR tv76[ebp], 0
  00035	74 09		 je	 SHORT $LN3@
  00037	c7 45 f8 01 00
	00 00		 mov	 DWORD PTR tv68[ebp], 1
  0003e	eb 07		 jmp	 SHORT $LN4@
$LN3@:
  00040	c7 45 f8 00 00
	00 00		 mov	 DWORD PTR tv68[ebp], 0
$LN4@:
  00047	8a 45 f8	 mov	 al, BYTE PTR tv68[ebp]

; 195  : }

  0004a	8b e5		 mov	 esp, ebp
  0004c	5d		 pop	 ebp
  0004d	c3		 ret	 0
_==	ENDP
_TEXT	ENDS
; Function compile flags: /Odtp
; File c:\program files (x86)\windows kits\10\include\10.0.17763.0\shared\guiddef.h
;	COMDAT _IsEqualGUID
_TEXT	SEGMENT
tv68 = -8						; size = 4
tv70 = -4						; size = 4
_rguid1$ = 8						; size = 4
_rguid2$ = 12						; size = 4
_IsEqualGUID PROC					; COMDAT

; 160  : {

  00000	55		 push	 ebp
  00001	8b ec		 mov	 ebp, esp
  00003	83 ec 08	 sub	 esp, 8

; 161  :     return !memcmp(&rguid1, &rguid2, sizeof(GUID));

  00006	6a 10		 push	 16			; 00000010H
  00008	8b 45 0c	 mov	 eax, DWORD PTR _rguid2$[ebp]
  0000b	50		 push	 eax
  0000c	8b 4d 08	 mov	 ecx, DWORD PTR _rguid1$[ebp]
  0000f	51		 push	 ecx
  00010	e8 00 00 00 00	 call	 _memcmp
  00015	83 c4 0c	 add	 esp, 12			; 0000000cH
  00018	89 45 f8	 mov	 DWORD PTR tv68[ebp], eax
  0001b	83 7d f8 00	 cmp	 DWORD PTR tv68[ebp], 0
  0001f	75 09		 jne	 SHORT $LN3@IsEqualGUI
  00021	c7 45 fc 01 00
	00 00		 mov	 DWORD PTR tv70[ebp], 1
  00028	eb 07		 jmp	 SHORT $LN4@IsEqualGUI
$LN3@IsEqualGUI:
  0002a	c7 45 fc 00 00
	00 00		 mov	 DWORD PTR tv70[ebp], 0
$LN4@IsEqualGUI:
  00031	8b 45 fc	 mov	 eax, DWORD PTR tv70[ebp]

; 162  : }

  00034	8b e5		 mov	 esp, ebp
  00036	5d		 pop	 ebp
  00037	c3		 ret	 0
_IsEqualGUID ENDP
_TEXT	ENDS
; Function compile flags: /Odtp
; File c:\program files (x86)\windows kits\10\include\10.0.17763.0\ucrt\corecrt_memcpy_s.h
;	COMDAT _memcpy_s
_TEXT	SEGMENT
__Expr_val$1 = -24					; size = 4
__Expr_val$2 = -20					; size = 4
__Expr_val$3 = -16					; size = 4
tv79 = -12						; size = 4
tv75 = -8						; size = 4
tv66 = -4						; size = 4
__Destination$ = 8					; size = 4
__DestinationSize$ = 12					; size = 4
__Source$ = 16						; size = 4
__SourceSize$ = 20					; size = 4
_memcpy_s PROC						; COMDAT

; 41   :     {

  00000	55		 push	 ebp
  00001	8b ec		 mov	 ebp, esp
  00003	83 ec 18	 sub	 esp, 24			; 00000018H

; 42   :         if (_SourceSize == 0)

  00006	83 7d 14 00	 cmp	 DWORD PTR __SourceSize$[ebp], 0
  0000a	75 07		 jne	 SHORT $LN2@memcpy_s

; 43   :         {
; 44   :             return 0;

  0000c	33 c0		 xor	 eax, eax
  0000e	e9 f7 00 00 00	 jmp	 $LN1@memcpy_s
$LN2@memcpy_s:

; 45   :         }
; 46   : 
; 47   :         _CRT_MEMCPY_S_VALIDATE_RETURN_ERRCODE(_Destination != NULL, EINVAL);

  00013	83 7d 08 00	 cmp	 DWORD PTR __Destination$[ebp], 0
  00017	74 09		 je	 SHORT $LN9@memcpy_s
  00019	c7 45 fc 01 00
	00 00		 mov	 DWORD PTR tv66[ebp], 1
  00020	eb 07		 jmp	 SHORT $LN10@memcpy_s
$LN9@memcpy_s:
  00022	c7 45 fc 00 00
	00 00		 mov	 DWORD PTR tv66[ebp], 0
$LN10@memcpy_s:
  00029	8b 45 fc	 mov	 eax, DWORD PTR tv66[ebp]
  0002c	89 45 f0	 mov	 DWORD PTR __Expr_val$3[ebp], eax
  0002f	83 7d f0 00	 cmp	 DWORD PTR __Expr_val$3[ebp], 0
  00033	75 1c		 jne	 SHORT $LN3@memcpy_s
  00035	ff 15 00 00 00
	00		 call	 DWORD PTR __imp___errno
  0003b	c7 00 16 00 00
	00		 mov	 DWORD PTR [eax], 22	; 00000016H
  00041	ff 15 00 00 00
	00		 call	 DWORD PTR __imp___invalid_parameter_noinfo
  00047	b8 16 00 00 00	 mov	 eax, 22			; 00000016H
  0004c	e9 b9 00 00 00	 jmp	 $LN1@memcpy_s
$LN3@memcpy_s:

; 48   :         if (_Source == NULL || _DestinationSize < _SourceSize)

  00051	83 7d 10 00	 cmp	 DWORD PTR __Source$[ebp], 0
  00055	74 0c		 je	 SHORT $LN5@memcpy_s
  00057	8b 4d 0c	 mov	 ecx, DWORD PTR __DestinationSize$[ebp]
  0005a	3b 4d 14	 cmp	 ecx, DWORD PTR __SourceSize$[ebp]
  0005d	0f 83 91 00 00
	00		 jae	 $LN4@memcpy_s
$LN5@memcpy_s:

; 49   :         {
; 50   :             memset(_Destination, 0, _DestinationSize);

  00063	8b 55 0c	 mov	 edx, DWORD PTR __DestinationSize$[ebp]
  00066	52		 push	 edx
  00067	6a 00		 push	 0
  00069	8b 45 08	 mov	 eax, DWORD PTR __Destination$[ebp]
  0006c	50		 push	 eax
  0006d	e8 00 00 00 00	 call	 _memset
  00072	83 c4 0c	 add	 esp, 12			; 0000000cH

; 51   : 
; 52   :             _CRT_MEMCPY_S_VALIDATE_RETURN_ERRCODE(_Source != NULL,                 EINVAL);

  00075	83 7d 10 00	 cmp	 DWORD PTR __Source$[ebp], 0
  00079	74 09		 je	 SHORT $LN11@memcpy_s
  0007b	c7 45 f8 01 00
	00 00		 mov	 DWORD PTR tv75[ebp], 1
  00082	eb 07		 jmp	 SHORT $LN12@memcpy_s
$LN11@memcpy_s:
  00084	c7 45 f8 00 00
	00 00		 mov	 DWORD PTR tv75[ebp], 0
$LN12@memcpy_s:
  0008b	8b 4d f8	 mov	 ecx, DWORD PTR tv75[ebp]
  0008e	89 4d ec	 mov	 DWORD PTR __Expr_val$2[ebp], ecx
  00091	83 7d ec 00	 cmp	 DWORD PTR __Expr_val$2[ebp], 0
  00095	75 19		 jne	 SHORT $LN6@memcpy_s
  00097	ff 15 00 00 00
	00		 call	 DWORD PTR __imp___errno
  0009d	c7 00 16 00 00
	00		 mov	 DWORD PTR [eax], 22	; 00000016H
  000a3	ff 15 00 00 00
	00		 call	 DWORD PTR __imp___invalid_parameter_noinfo
  000a9	b8 16 00 00 00	 mov	 eax, 22			; 00000016H
  000ae	eb 5a		 jmp	 SHORT $LN1@memcpy_s
$LN6@memcpy_s:

; 53   :             _CRT_MEMCPY_S_VALIDATE_RETURN_ERRCODE(_DestinationSize >= _SourceSize, ERANGE);

  000b0	8b 55 0c	 mov	 edx, DWORD PTR __DestinationSize$[ebp]
  000b3	3b 55 14	 cmp	 edx, DWORD PTR __SourceSize$[ebp]
  000b6	72 09		 jb	 SHORT $LN13@memcpy_s
  000b8	c7 45 f4 01 00
	00 00		 mov	 DWORD PTR tv79[ebp], 1
  000bf	eb 07		 jmp	 SHORT $LN14@memcpy_s
$LN13@memcpy_s:
  000c1	c7 45 f4 00 00
	00 00		 mov	 DWORD PTR tv79[ebp], 0
$LN14@memcpy_s:
  000c8	8b 45 f4	 mov	 eax, DWORD PTR tv79[ebp]
  000cb	89 45 e8	 mov	 DWORD PTR __Expr_val$1[ebp], eax
  000ce	83 7d e8 00	 cmp	 DWORD PTR __Expr_val$1[ebp], 0
  000d2	75 19		 jne	 SHORT $LN7@memcpy_s
  000d4	ff 15 00 00 00
	00		 call	 DWORD PTR __imp___errno
  000da	c7 00 22 00 00
	00		 mov	 DWORD PTR [eax], 34	; 00000022H
  000e0	ff 15 00 00 00
	00		 call	 DWORD PTR __imp___invalid_parameter_noinfo
  000e6	b8 22 00 00 00	 mov	 eax, 34			; 00000022H
  000eb	eb 1d		 jmp	 SHORT $LN1@memcpy_s
$LN7@memcpy_s:

; 54   : 
; 55   :             // Unreachable, but required to suppress /analyze warnings:
; 56   :             return EINVAL;

  000ed	b8 16 00 00 00	 mov	 eax, 22			; 00000016H
  000f2	eb 16		 jmp	 SHORT $LN1@memcpy_s
$LN4@memcpy_s:

; 57   :         }
; 58   : #pragma warning(suppress:4996) // Deprecation
; 59   :         memcpy(_Destination, _Source, _SourceSize);

  000f4	8b 4d 14	 mov	 ecx, DWORD PTR __SourceSize$[ebp]
  000f7	51		 push	 ecx
  000f8	8b 55 10	 mov	 edx, DWORD PTR __Source$[ebp]
  000fb	52		 push	 edx
  000fc	8b 45 08	 mov	 eax, DWORD PTR __Destination$[ebp]
  000ff	50		 push	 eax
  00100	e8 00 00 00 00	 call	 _memcpy
  00105	83 c4 0c	 add	 esp, 12			; 0000000cH

; 60   :         return 0;

  00108	33 c0		 xor	 eax, eax
$LN1@memcpy_s:

; 61   :     }

  0010a	8b e5		 mov	 esp, ebp
  0010c	5d		 pop	 ebp
  0010d	c3		 ret	 0
_memcpy_s ENDP
_TEXT	ENDS
; Function compile flags: /Odtp
; File g:\网狐\happygamewh\服务端\系统模块\服务器组件\内核引擎\databaseengine.cpp
;	COMDAT ?__empty_global_delete@@YAXPAXI@Z
_TEXT	SEGMENT
___formal$ = 8						; size = 4
___formal$ = 12						; size = 4
?__empty_global_delete@@YAXPAXI@Z PROC			; __empty_global_delete, COMDAT

  00000	55		 push	 ebp
  00001	8b ec		 mov	 ebp, esp
  00003	5d		 pop	 ebp
  00004	c3		 ret	 0
?__empty_global_delete@@YAXPAXI@Z ENDP			; __empty_global_delete
_TEXT	ENDS
; Function compile flags: /Odtp
; File g:\网狐\happygamewh\服务端\系统模块\服务器组件\内核引擎\databaseengine.cpp
;	COMDAT ?__empty_global_delete@@YAXPAX@Z
_TEXT	SEGMENT
___formal$ = 8						; size = 4
?__empty_global_delete@@YAXPAX@Z PROC			; __empty_global_delete, COMDAT

  00000	55		 push	 ebp
  00001	8b ec		 mov	 ebp, esp
  00003	5d		 pop	 ebp
  00004	c3		 ret	 0
?__empty_global_delete@@YAXPAX@Z ENDP			; __empty_global_delete
_TEXT	ENDS
; Function compile flags: /Odtp
;	COMDAT ??_H@YGXPAXIIP6EPAX0@Z@Z
_TEXT	SEGMENT
tv66 = -4						; size = 4
___t$ = 8						; size = 4
___s$ = 12						; size = 4
___n$ = 16						; size = 4
___f$ = 20						; size = 4
??_H@YGXPAXIIP6EPAX0@Z@Z PROC				; `vector constructor iterator', COMDAT
  00000	55		 push	 ebp
  00001	8b ec		 mov	 ebp, esp
  00003	51		 push	 ecx
$LN2@vector:
  00004	8b 45 10	 mov	 eax, DWORD PTR ___n$[ebp]
  00007	89 45 fc	 mov	 DWORD PTR tv66[ebp], eax
  0000a	8b 4d 10	 mov	 ecx, DWORD PTR ___n$[ebp]
  0000d	83 e9 01	 sub	 ecx, 1
  00010	89 4d 10	 mov	 DWORD PTR ___n$[ebp], ecx
  00013	83 7d fc 00	 cmp	 DWORD PTR tv66[ebp], 0
  00017	76 11		 jbe	 SHORT $LN1@vector
  00019	8b 4d 08	 mov	 ecx, DWORD PTR ___t$[ebp]
  0001c	ff 55 14	 call	 DWORD PTR ___f$[ebp]
  0001f	8b 55 08	 mov	 edx, DWORD PTR ___t$[ebp]
  00022	03 55 0c	 add	 edx, DWORD PTR ___s$[ebp]
  00025	89 55 08	 mov	 DWORD PTR ___t$[ebp], edx
  00028	eb da		 jmp	 SHORT $LN2@vector
$LN1@vector:
  0002a	8b e5		 mov	 esp, ebp
  0002c	5d		 pop	 ebp
  0002d	c2 10 00	 ret	 16			; 00000010H
??_H@YGXPAXIIP6EPAX0@Z@Z ENDP				; `vector constructor iterator'
_TEXT	ENDS
END
