; Listing generated by Microsoft (R) Optimizing Compiler Version 19.16.27032.1 

	TITLE	G:\网狐\HappyGameWH\服务端\系统模块\服务器组件\内核引擎\TCPNetworkEngine.cpp
	.686P
	.XMM
	include listing.inc
	.model	flat

INCLUDELIB MSVCRTD
INCLUDELIB OLDNAMES

PUBLIC	?m_nLastCategory@CTrace@ATL@@1IA		; ATL::CTrace::m_nLastCategory
PUBLIC	?m_nMap@CTrace@ATL@@1PAUCategoryMap@12@A	; ATL::CTrace::m_nMap
PUBLIC	??_C@_17LGGGMOOB@?$AA?$CF?$AAh?$AAs@		; `string'
PUBLIC	??_C@_1EO@EBPPKGOM@?$AAf?$AAa?$AAl?$AAs?$AAe?$AA?5?$AA?$CG?$AA?$CG?$AA?5?$AA?$CC?$AAT?$AAo?$AAo?$AA?5?$AAm@ ; `string'
PUBLIC	??_C@_1OE@PDFAMNPL@?$AAc?$AA?3?$AA?2?$AAp?$AAr?$AAo?$AAg?$AAr?$AAa?$AAm?$AA?5?$AAf?$AAi?$AAl?$AAe@ ; `string'
PUBLIC	?file_level_metadata@?A0x1abee5d0@protobuf_NullPmd_2eproto@NullPmd@@3PAUMetadata@protobuf@google@@A ; NullPmd::protobuf_NullPmd_2eproto::`anonymous namespace'::file_level_metadata
PUBLIC	?_command_default_instance_@NullPmd@@3VcommandDefaultTypeInternal@1@A ; NullPmd::_command_default_instance_
PUBLIC	?_head_default_instance_@NullPmd@@3VheadDefaultTypeInternal@1@A ; NullPmd::_head_default_instance_
PUBLIC	?_indication_default_instance_@NullPmd@@3VindicationDefaultTypeInternal@1@A ; NullPmd::_indication_default_instance_
PUBLIC	?_info_default_instance_@NullPmd@@3VinfoDefaultTypeInternal@1@A ; NullPmd::_info_default_instance_
PUBLIC	?_message_default_instance_@NullPmd@@3VmessageDefaultTypeInternal@1@A ; NullPmd::_message_default_instance_
PUBLIC	?_request_default_instance_@NullPmd@@3VrequestDefaultTypeInternal@1@A ; NullPmd::_request_default_instance_
PUBLIC	?_response_default_instance_@NullPmd@@3VresponseDefaultTypeInternal@1@A ; NullPmd::_response_default_instance_
PUBLIC	?offsets@TableStruct@protobuf_NullPmd_2eproto@NullPmd@@2QBIB ; NullPmd::protobuf_NullPmd_2eproto::TableStruct::offsets
PUBLIC	??_C@_17CNPHIMPH@?$AA?$CF?$AAl?$AAs@		; `string'
PUBLIC	??_C@_0BC@PGMFNIFA@atlTraceException@		; `string'
;	COMDAT ?m_nLastCategory@CTrace@ATL@@1IA
_BSS	SEGMENT
?m_nLastCategory@CTrace@ATL@@1IA DD 01H DUP (?)		; ATL::CTrace::m_nLastCategory
_BSS	ENDS
;	COMDAT ?m_nMap@CTrace@ATL@@1PAUCategoryMap@12@A
_BSS	SEGMENT
?m_nMap@CTrace@ATL@@1PAUCategoryMap@12@A DB 02080H DUP (?) ; ATL::CTrace::m_nMap
_BSS	ENDS
_BSS	SEGMENT
?file_level_metadata@?A0x1abee5d0@protobuf_NullPmd_2eproto@NullPmd@@3PAUMetadata@protobuf@google@@A DQ 07H DUP (?) ; NullPmd::protobuf_NullPmd_2eproto::`anonymous namespace'::file_level_metadata
?_command_default_instance_@NullPmd@@3VcommandDefaultTypeInternal@1@A DB 028H DUP (?) ; NullPmd::_command_default_instance_
?_head_default_instance_@NullPmd@@3VheadDefaultTypeInternal@1@A DB 020H DUP (?) ; NullPmd::_head_default_instance_
?_indication_default_instance_@NullPmd@@3VindicationDefaultTypeInternal@1@A DB 018H DUP (?) ; NullPmd::_indication_default_instance_
?_info_default_instance_@NullPmd@@3VinfoDefaultTypeInternal@1@A DB 030H DUP (?) ; NullPmd::_info_default_instance_
?_message_default_instance_@NullPmd@@3VmessageDefaultTypeInternal@1@A DB 020H DUP (?) ; NullPmd::_message_default_instance_
?_request_default_instance_@NullPmd@@3VrequestDefaultTypeInternal@1@A DB 018H DUP (?) ; NullPmd::_request_default_instance_
?_response_default_instance_@NullPmd@@3VresponseDefaultTypeInternal@1@A DB 020H DUP (?) ; NullPmd::_response_default_instance_
_BSS	ENDS
;	COMDAT ??_C@_0BC@PGMFNIFA@atlTraceException@
CONST	SEGMENT
??_C@_0BC@PGMFNIFA@atlTraceException@ DB 'atlTraceException', 00H ; `string'
CONST	ENDS
;	COMDAT ??_C@_17CNPHIMPH@?$AA?$CF?$AAl?$AAs@
CONST	SEGMENT
??_C@_17CNPHIMPH@?$AA?$CF?$AAl?$AAs@ DB '%', 00H, 'l', 00H, 's', 00H, 00H
	DB	00H						; `string'
CONST	ENDS
CONST	SEGMENT
?kMinRepeatedFieldAllocationSize@internal@protobuf@google@@3HB DD 04H ; google::protobuf::internal::kMinRepeatedFieldAllocationSize
?IID_ITraceServiceManager@@3U_GUID@@B DD 08bfc36dbH	; IID_ITraceServiceManager
	DW	05ba2H
	DW	042baH
	DB	081H
	DB	0b0H
	DB	087H
	DB	0b0H
	DB	01cH
	DB	09eH
	DB	0afH
	DB	0feH
?IID_IServiceModule@@3U_GUID@@B DD 05980504H		; IID_IServiceModule
	DW	0a2f2H
	DW	04b0fH
	DB	09bH
	DB	054H
	DB	051H
	DB	054H
	DB	01eH
	DB	05H
	DB	05cH
	DB	0ffH
?IID_IAsynchronismEngine@@3U_GUID@@B DD 0c7a13074H	; IID_IAsynchronismEngine
	DW	075c5H
	DW	04b8eH
	DB	0b5H
	DB	04bH
	DB	0eeH
	DB	0eH
	DB	0ecH
	DB	0feH
	DB	0b9H
	DB	0ebH
?IID_IAsynchronismEngineSink@@3U_GUID@@B DD 02edf5c9eH	; IID_IAsynchronismEngineSink
	DW	02cacH
	DW	0461dH
	DB	0a7H
	DB	082H
	DB	02eH
	DB	02fH
	DB	0e1H
	DB	091H
	DB	080H
	DB	0f8H
?IID_IDataBase@@3U_GUID@@B DD 0a2e38a78H		; IID_IDataBase
	DW	01e4fH
	DW	04de4H
	DB	0a5H
	DB	0d1H
	DB	0b9H
	DB	019H
	DB	09bH
	DB	0ceH
	DB	041H
	DB	0aeH
?IID_IDataBaseEngine@@3U_GUID@@B DD 047b5a119H		; IID_IDataBaseEngine
	DW	01676H
	DW	049a3H
	DB	0beH
	DB	0aeH
	DB	0caH
	DB	027H
	DB	0ebH
	DB	059H
	DB	097H
	DB	022H
?IID_IUDPNetworkEngine@@3U_GUID@@B DD 08d138a9bH	; IID_IUDPNetworkEngine
	DW	0a97dH
	DW	04d51H
	DB	09dH
	DB	06cH
	DB	0d8H
	DB	06eH
	DB	0a1H
	DB	084H
	DB	045H
	DB	02eH
?IID_ITCPNetworkEngine@@3U_GUID@@B DD 07747f683H	; IID_ITCPNetworkEngine
	DW	0c0daH
	DW	04588H
	DB	089H
	DB	0ccH
	DB	015H
	DB	093H
	DB	0acH
	DB	0c0H
	DB	044H
	DB	0c8H
?IID_ITCPSocketService@@3U_GUID@@B DD 0709a4449H	; IID_ITCPSocketService
	DW	0ad77H
	DW	04b3dH
	DB	0b4H
	DB	0d6H
	DB	08dH
	DB	0bH
	DB	028H
	DB	065H
	DB	0ecH
	DB	0aeH
?IID_IWEBSocketService@@3U_GUID@@B DD 091052ff2H	; IID_IWEBSocketService
	DW	0eb29H
	DW	040b9H
	DB	0b2H
	DB	0a2H
	DB	08aH
	DB	0a2H
	DB	098H
	DB	036H
	DB	02cH
	DB	084H
?IID_ITimerEngine@@3U_GUID@@B DD 0496401aeH		; IID_ITimerEngine
	DW	06fb0H
	DW	04e9fH
	DB	090H
	DB	098H
	DB	044H
	DB	09dH
	DB	09cH
	DB	0b2H
	DB	0bdH
	DB	097H
?file_default_instances@protobuf_NullPmd_2eproto@NullPmd@@3QBQBVMessage@protobuf@google@@B DD FLAT:?_request_default_instance_@NullPmd@@3VrequestDefaultTypeInternal@1@A ; NullPmd::protobuf_NullPmd_2eproto::file_default_instances
	DD	FLAT:?_response_default_instance_@NullPmd@@3VresponseDefaultTypeInternal@1@A
	DD	FLAT:?_indication_default_instance_@NullPmd@@3VindicationDefaultTypeInternal@1@A
	DD	FLAT:?_command_default_instance_@NullPmd@@3VcommandDefaultTypeInternal@1@A
	DD	FLAT:?_info_default_instance_@NullPmd@@3VinfoDefaultTypeInternal@1@A
	DD	FLAT:?_head_default_instance_@NullPmd@@3VheadDefaultTypeInternal@1@A
	DD	FLAT:?_message_default_instance_@NullPmd@@3VmessageDefaultTypeInternal@1@A
?schemas@protobuf_NullPmd_2eproto@NullPmd@@3QBUMigrationSchema@internal@protobuf@google@@B DD 00H ; NullPmd::protobuf_NullPmd_2eproto::schemas
	DD	0ffffffffH
	DD	0cH
	DD	04H
	DD	0ffffffffH
	DD	014H
	DD	0aH
	DD	0ffffffffH
	DD	0cH
	DD	0eH
	DD	0ffffffffH
	DD	020H
	DD	014H
	DD	0ffffffffH
	DD	028H
	DD	01bH
	DD	0ffffffffH
	DD	014H
	DD	021H
	DD	0ffffffffH
	DD	014H
?IID_ITCPNetworkEngineEvent@@3U_GUID@@B DD 0b7e6da53H	; IID_ITCPNetworkEngineEvent
	DW	0fca5H
	DW	04d90H
	DB	085H
	DB	048H
	DB	0feH
	DB	05H
	DB	0f6H
	DB	0b4H
	DB	0c0H
	DB	0efH
?IID_IAttemperEngine@@3U_GUID@@B DD 0b070b2cH		; IID_IAttemperEngine
	DW	09d72H
	DW	042d2H
	DB	0a5H
	DB	070H
	DB	0baH
	DB	02cH
	DB	0bfH
	DB	06fH
	DB	0bbH
	DB	01cH
?piecewise_construct@std@@3Upiecewise_construct_t@1@B	ORG $+1 ; std::piecewise_construct
	ORG $+3
?offsets@TableStruct@protobuf_NullPmd_2eproto@NullPmd@@2QBIB DD 0ffffffffH ; NullPmd::protobuf_NullPmd_2eproto::TableStruct::offsets
	DD	04H
	DD	0ffffffffH
	DD	0ffffffffH
	DD	0ffffffffH
	DD	04H
	DD	0ffffffffH
	DD	0ffffffffH
	DD	0cH
	DD	08H
	DD	0ffffffffH
	DD	04H
	DD	0ffffffffH
	DD	0ffffffffH
	DD	0ffffffffH
	DD	04H
	DD	0ffffffffH
	DD	0ffffffffH
	DD	08H
	DD	010H
	DD	0ffffffffH
	DD	04H
	DD	0ffffffffH
	DD	0ffffffffH
	DD	08H
	DD	010H
	DD	018H
	DD	0ffffffffH
	DD	04H
	DD	0ffffffffH
	DD	0ffffffffH
	DD	08H
	DD	0cH
	DD	0ffffffffH
	DD	04H
	DD	0ffffffffH
	DD	0ffffffffH
	DD	0cH
	DD	08H
?IID_IUnknownEx@@3U_GUID@@B DD 05feec21eH		; IID_IUnknownEx
	DW	0dbf3H
	DW	046f0H
	DB	09fH
	DB	057H
	DB	0d1H
	DB	0cdH
	DB	071H
	DB	01cH
	DB	046H
	DB	0deH
CONST	ENDS
;	COMDAT ??_C@_1OE@PDFAMNPL@?$AAc?$AA?3?$AA?2?$AAp?$AAr?$AAo?$AAg?$AAr?$AAa?$AAm?$AA?5?$AAf?$AAi?$AAl?$AAe@
CONST	SEGMENT
??_C@_1OE@PDFAMNPL@?$AAc?$AA?3?$AA?2?$AAp?$AAr?$AAo?$AAg?$AAr?$AAa?$AAm?$AA?5?$AAf?$AAi?$AAl?$AAe@ DB 'c'
	DB	00H, ':', 00H, '\', 00H, 'p', 00H, 'r', 00H, 'o', 00H, 'g', 00H
	DB	'r', 00H, 'a', 00H, 'm', 00H, ' ', 00H, 'f', 00H, 'i', 00H, 'l'
	DB	00H, 'e', 00H, 's', 00H, ' ', 00H, '(', 00H, 'x', 00H, '8', 00H
	DB	'6', 00H, ')', 00H, '\', 00H, 'm', 00H, 'i', 00H, 'c', 00H, 'r'
	DB	00H, 'o', 00H, 's', 00H, 'o', 00H, 'f', 00H, 't', 00H, ' ', 00H
	DB	'v', 00H, 'i', 00H, 's', 00H, 'u', 00H, 'a', 00H, 'l', 00H, ' '
	DB	00H, 's', 00H, 't', 00H, 'u', 00H, 'd', 00H, 'i', 00H, 'o', 00H
	DB	'\', 00H, '2', 00H, '0', 00H, '1', 00H, '7', 00H, '\', 00H, 'c'
	DB	00H, 'o', 00H, 'm', 00H, 'm', 00H, 'u', 00H, 'n', 00H, 'i', 00H
	DB	't', 00H, 'y', 00H, '\', 00H, 'v', 00H, 'c', 00H, '\', 00H, 't'
	DB	00H, 'o', 00H, 'o', 00H, 'l', 00H, 's', 00H, '\', 00H, 'm', 00H
	DB	's', 00H, 'v', 00H, 'c', 00H, '\', 00H, '1', 00H, '4', 00H, '.'
	DB	00H, '1', 00H, '6', 00H, '.', 00H, '2', 00H, '7', 00H, '0', 00H
	DB	'2', 00H, '3', 00H, '\', 00H, 'a', 00H, 't', 00H, 'l', 00H, 'm'
	DB	00H, 'f', 00H, 'c', 00H, '\', 00H, 'i', 00H, 'n', 00H, 'c', 00H
	DB	'l', 00H, 'u', 00H, 'd', 00H, 'e', 00H, '\', 00H, 'a', 00H, 't'
	DB	00H, 'l', 00H, 't', 00H, 'r', 00H, 'a', 00H, 'c', 00H, 'e', 00H
	DB	'.', 00H, 'h', 00H, 00H, 00H			; `string'
CONST	ENDS
;	COMDAT ??_C@_1EO@EBPPKGOM@?$AAf?$AAa?$AAl?$AAs?$AAe?$AA?5?$AA?$CG?$AA?$CG?$AA?5?$AA?$CC?$AAT?$AAo?$AAo?$AA?5?$AAm@
CONST	SEGMENT
??_C@_1EO@EBPPKGOM@?$AAf?$AAa?$AAl?$AAs?$AAe?$AA?5?$AA?$CG?$AA?$CG?$AA?5?$AA?$CC?$AAT?$AAo?$AAo?$AA?5?$AAm@ DB 'f'
	DB	00H, 'a', 00H, 'l', 00H, 's', 00H, 'e', 00H, ' ', 00H, '&', 00H
	DB	'&', 00H, ' ', 00H, '"', 00H, 'T', 00H, 'o', 00H, 'o', 00H, ' '
	DB	00H, 'm', 00H, 'a', 00H, 'n', 00H, 'y', 00H, ' ', 00H, 'c', 00H
	DB	'a', 00H, 't', 00H, 'e', 00H, 'g', 00H, 'o', 00H, 'r', 00H, 'i'
	DB	00H, 'e', 00H, 's', 00H, ' ', 00H, 'd', 00H, 'e', 00H, 'f', 00H
	DB	'i', 00H, 'n', 00H, 'e', 00H, 'd', 00H, '"', 00H, 00H, 00H ; `string'
CONST	ENDS
;	COMDAT ??_C@_17LGGGMOOB@?$AA?$CF?$AAh?$AAs@
CONST	SEGMENT
??_C@_17LGGGMOOB@?$AA?$CF?$AAh?$AAs@ DB '%', 00H, 'h', 00H, 's', 00H, 00H
	DB	00H						; `string'
CONST	ENDS
PUBLIC	??_H@YGXPAXIIP6EPAX0@Z@Z			; `vector constructor iterator'
PUBLIC	?__empty_global_delete@@YAXPAX@Z		; __empty_global_delete
PUBLIC	?__empty_global_delete@@YAXPAXI@Z		; __empty_global_delete
PUBLIC	___local_stdio_printf_options
PUBLIC	_swprintf_s
PUBLIC	__snprintf
PUBLIC	?AfxAssertFailedLine@@YGHPBDH@Z			; AfxAssertFailedLine
PUBLIC	?RegisterCategory@CTrace@ATL@@SAXPBDI@Z		; ATL::CTrace::RegisterCategory
PUBLIC	?_Orphan_all@_Container_base12@std@@QAEXXZ	; std::_Container_base12::_Orphan_all
PUBLIC	?_Swap_all@_Container_base12@std@@QAEXAAU12@@Z	; std::_Container_base12::_Swap_all
PUBLIC	??4_Iterator_base12@std@@QAEAAU01@ABU01@@Z	; std::_Iterator_base12::operator=
PUBLIC	?_Adopt@_Iterator_base12@std@@QAEXPBU_Container_base12@2@@Z ; std::_Iterator_base12::_Adopt
PUBLIC	?_Orphan_me@_Iterator_base12@std@@QAEXXZ	; std::_Iterator_base12::_Orphan_me
PUBLIC	?_Adjust_manually_vector_aligned@std@@YAXAAPAXAAI@Z ; std::_Adjust_manually_vector_aligned
PUBLIC	?deallocate@?$allocator@D@std@@QAEXQADI@Z	; std::allocator<char>::deallocate
PUBLIC	?_Xran@?$_String_val@U?$_Simple_types@D@std@@@std@@SAXXZ ; std::_String_val<std::_Simple_types<char> >::_Xran
PUBLIC	??0?$_String_alloc@U?$_String_base_types@DV?$allocator@D@std@@@std@@@std@@QAE@XZ ; std::_String_alloc<std::_String_base_types<char,std::allocator<char> > >::_String_alloc<std::_String_base_types<char,std::allocator<char> > >
PUBLIC	??1?$_String_alloc@U?$_String_base_types@DV?$allocator@D@std@@@std@@@std@@QAE@XZ ; std::_String_alloc<std::_String_base_types<char,std::allocator<char> > >::~_String_alloc<std::_String_base_types<char,std::allocator<char> > >
PUBLIC	?_Move_alloc@?$_String_alloc@U?$_String_base_types@DV?$allocator@D@std@@@std@@@std@@QAEXAAV?$allocator@D@2@@Z ; std::_String_alloc<std::_String_base_types<char,std::allocator<char> > >::_Move_alloc
PUBLIC	?_Alloc_proxy@?$_String_alloc@U?$_String_base_types@DV?$allocator@D@std@@@std@@@std@@QAEXXZ ; std::_String_alloc<std::_String_base_types<char,std::allocator<char> > >::_Alloc_proxy
PUBLIC	?_Free_proxy@?$_String_alloc@U?$_String_base_types@DV?$allocator@D@std@@@std@@@std@@QAEXXZ ; std::_String_alloc<std::_String_base_types<char,std::allocator<char> > >::_Free_proxy
PUBLIC	??1?$_Compressed_pair@V?$allocator@D@std@@V?$_String_val@U?$_Simple_types@D@std@@@2@$00@std@@QAE@XZ ; std::_Compressed_pair<std::allocator<char>,std::_String_val<std::_Simple_types<char> >,1>::~_Compressed_pair<std::allocator<char>,std::_String_val<std::_Simple_types<char> >,1>
PUBLIC	??0?$basic_string@DU?$char_traits@D@std@@V?$allocator@D@2@@std@@QAE@ABV01@@Z ; std::basic_string<char,std::char_traits<char>,std::allocator<char> >::basic_string<char,std::char_traits<char>,std::allocator<char> >
PUBLIC	??0?$basic_string@DU?$char_traits@D@std@@V?$allocator@D@2@@std@@QAE@XZ ; std::basic_string<char,std::char_traits<char>,std::allocator<char> >::basic_string<char,std::char_traits<char>,std::allocator<char> >
PUBLIC	??0?$basic_string@DU?$char_traits@D@std@@V?$allocator@D@2@@std@@QAE@ABV01@IIABV?$allocator@D@1@@Z ; std::basic_string<char,std::char_traits<char>,std::allocator<char> >::basic_string<char,std::char_traits<char>,std::allocator<char> >
PUBLIC	??0?$basic_string@DU?$char_traits@D@std@@V?$allocator@D@2@@std@@QAE@QBDI@Z ; std::basic_string<char,std::char_traits<char>,std::allocator<char> >::basic_string<char,std::char_traits<char>,std::allocator<char> >
PUBLIC	??0?$basic_string@DU?$char_traits@D@std@@V?$allocator@D@2@@std@@QAE@QBD@Z ; std::basic_string<char,std::char_traits<char>,std::allocator<char> >::basic_string<char,std::char_traits<char>,std::allocator<char> >
PUBLIC	??0?$basic_string@DU?$char_traits@D@std@@V?$allocator@D@2@@std@@QAE@$$QAV01@@Z ; std::basic_string<char,std::char_traits<char>,std::allocator<char> >::basic_string<char,std::char_traits<char>,std::allocator<char> >
PUBLIC	??4?$basic_string@DU?$char_traits@D@std@@V?$allocator@D@2@@std@@QAEAAV01@$$QAV01@@Z ; std::basic_string<char,std::char_traits<char>,std::allocator<char> >::operator=
PUBLIC	?_Assign_rv_contents_with_alloc_always_equal@?$basic_string@DU?$char_traits@D@std@@V?$allocator@D@2@@std@@QAEX$$QAV12@U?$integral_constant@_N$00@2@@Z ; std::basic_string<char,std::char_traits<char>,std::allocator<char> >::_Assign_rv_contents_with_alloc_always_equal
PUBLIC	?_Construct_lv_contents@?$basic_string@DU?$char_traits@D@std@@V?$allocator@D@2@@std@@QAEXABV12@@Z ; std::basic_string<char,std::char_traits<char>,std::allocator<char> >::_Construct_lv_contents
PUBLIC	??1?$basic_string@DU?$char_traits@D@std@@V?$allocator@D@2@@std@@QAE@XZ ; std::basic_string<char,std::char_traits<char>,std::allocator<char> >::~basic_string<char,std::char_traits<char>,std::allocator<char> >
PUBLIC	??4?$basic_string@DU?$char_traits@D@std@@V?$allocator@D@2@@std@@QAEAAV01@ABV01@@Z ; std::basic_string<char,std::char_traits<char>,std::allocator<char> >::operator=
PUBLIC	?assign@?$basic_string@DU?$char_traits@D@std@@V?$allocator@D@2@@std@@QAEAAV12@ABV12@II@Z ; std::basic_string<char,std::char_traits<char>,std::allocator<char> >::assign
PUBLIC	?assign@?$basic_string@DU?$char_traits@D@std@@V?$allocator@D@2@@std@@QAEAAV12@QBDI@Z ; std::basic_string<char,std::char_traits<char>,std::allocator<char> >::assign
PUBLIC	?begin@?$basic_string@DU?$char_traits@D@std@@V?$allocator@D@2@@std@@QBE?AV?$_String_const_iterator@V?$_String_val@U?$_Simple_types@D@std@@@std@@@2@XZ ; std::basic_string<char,std::char_traits<char>,std::allocator<char> >::begin
PUBLIC	?end@?$basic_string@DU?$char_traits@D@std@@V?$allocator@D@2@@std@@QBE?AV?$_String_const_iterator@V?$_String_val@U?$_Simple_types@D@std@@@std@@@2@XZ ; std::basic_string<char,std::char_traits<char>,std::allocator<char> >::end
PUBLIC	?max_size@?$basic_string@DU?$char_traits@D@std@@V?$allocator@D@2@@std@@QBEIXZ ; std::basic_string<char,std::char_traits<char>,std::allocator<char> >::max_size
PUBLIC	?_Calculate_growth@?$basic_string@DU?$char_traits@D@std@@V?$allocator@D@2@@std@@QBEII@Z ; std::basic_string<char,std::char_traits<char>,std::allocator<char> >::_Calculate_growth
PUBLIC	?_Eos@?$basic_string@DU?$char_traits@D@std@@V?$allocator@D@2@@std@@QAEXI@Z ; std::basic_string<char,std::char_traits<char>,std::allocator<char> >::_Eos
PUBLIC	?_Tidy_deallocate@?$basic_string@DU?$char_traits@D@std@@V?$allocator@D@2@@std@@QAEXXZ ; std::basic_string<char,std::char_traits<char>,std::allocator<char> >::_Tidy_deallocate
PUBLIC	?_Xlen@?$basic_string@DU?$char_traits@D@std@@V?$allocator@D@2@@std@@SAXXZ ; std::basic_string<char,std::char_traits<char>,std::allocator<char> >::_Xlen
PUBLIC	??1_Ref_count_base@std@@UAE@XZ			; std::_Ref_count_base::~_Ref_count_base
PUBLIC	?_Decref@_Ref_count_base@std@@QAEXXZ		; std::_Ref_count_base::_Decref
PUBLIC	?_Get_deleter@_Ref_count_base@std@@UBEPAXABVtype_info@@@Z ; std::_Ref_count_base::_Get_deleter
PUBLIC	??$_Maklocstr@_W@std@@YAPA_WPBDPA_WABU_Cvtvec@@@Z ; std::_Maklocstr<wchar_t>
PUBLIC	?_Maklocwcs@std@@YAPA_WPB_W@Z			; std::_Maklocwcs
PUBLIC	?InterfaceVersionCompare@@YA_NKK@Z		; InterfaceVersionCompare
PUBLIC	??$_Getvals@_W@?$time_get@DV?$istreambuf_iterator@DU?$char_traits@D@std@@@std@@@std@@IAEX_WABV_Locinfo@1@@Z ; std::time_get<char,std::istreambuf_iterator<char,std::char_traits<char> > >::_Getvals<wchar_t>
PUBLIC	??$_Getvals@_W@?$time_get@_WV?$istreambuf_iterator@_WU?$char_traits@_W@std@@@std@@@std@@IAEX_WABV_Locinfo@1@@Z ; std::time_get<wchar_t,std::istreambuf_iterator<wchar_t,std::char_traits<wchar_t> > >::_Getvals<wchar_t>
PUBLIC	??0ByteBuffer@net@zl@@QAE@XZ			; zl::net::ByteBuffer::ByteBuffer
PUBLIC	?write@ByteBuffer@net@zl@@QAEXPBDI@Z		; zl::net::ByteBuffer::write
PUBLIC	?ensureWritableBytes@ByteBuffer@net@zl@@QAEXI@Z	; zl::net::ByteBuffer::ensureWritableBytes
PUBLIC	?hasWritten@ByteBuffer@net@zl@@QAEXI@Z		; zl::net::ByteBuffer::hasWritten
PUBLIC	?begin@ByteBuffer@net@zl@@AAEPADXZ		; zl::net::ByteBuffer::begin
PUBLIC	?makeSpace@ByteBuffer@net@zl@@AAEXI@Z		; zl::net::ByteBuffer::makeSpace
PUBLIC	??1?$_Vector_alloc@U?$_Vec_base_types@DV?$allocator@D@std@@@std@@@std@@QAE@XZ ; std::_Vector_alloc<std::_Vec_base_types<char,std::allocator<char> > >::~_Vector_alloc<std::_Vec_base_types<char,std::allocator<char> > >
PUBLIC	?_Alloc_proxy@?$_Vector_alloc@U?$_Vec_base_types@DV?$allocator@D@std@@@std@@@std@@QAEXXZ ; std::_Vector_alloc<std::_Vec_base_types<char,std::allocator<char> > >::_Alloc_proxy
PUBLIC	?_Free_proxy@?$_Vector_alloc@U?$_Vec_base_types@DV?$allocator@D@std@@@std@@@std@@QAEXXZ ; std::_Vector_alloc<std::_Vec_base_types<char,std::allocator<char> > >::_Free_proxy
PUBLIC	?_Getal@?$_Vector_alloc@U?$_Vec_base_types@DV?$allocator@D@std@@@std@@@std@@QAEAAV?$allocator@D@2@XZ ; std::_Vector_alloc<std::_Vec_base_types<char,std::allocator<char> > >::_Getal
PUBLIC	??0?$vector@DV?$allocator@D@std@@@std@@QAE@IABV?$allocator@D@1@@Z ; std::vector<char,std::allocator<char> >::vector<char,std::allocator<char> >
PUBLIC	?begin@?$vector@DV?$allocator@D@std@@@std@@QAE?AV?$_Vector_iterator@V?$_Vector_val@U?$_Simple_types@D@std@@@std@@@2@XZ ; std::vector<char,std::allocator<char> >::begin
PUBLIC	?size@?$vector@DV?$allocator@D@std@@@std@@QBEIXZ ; std::vector<char,std::allocator<char> >::size
PUBLIC	?capacity@?$vector@DV?$allocator@D@std@@@std@@QBEIXZ ; std::vector<char,std::allocator<char> >::capacity
PUBLIC	?_Destroy@?$vector@DV?$allocator@D@std@@@std@@AAEXPAD0@Z ; std::vector<char,std::allocator<char> >::_Destroy
PUBLIC	?_Calculate_growth@?$vector@DV?$allocator@D@std@@@std@@ABEII@Z ; std::vector<char,std::allocator<char> >::_Calculate_growth
PUBLIC	?_Buy@?$vector@DV?$allocator@D@std@@@std@@AAE_NI@Z ; std::vector<char,std::allocator<char> >::_Buy
PUBLIC	?_Change_array@?$vector@DV?$allocator@D@std@@@std@@AAEXQADII@Z ; std::vector<char,std::allocator<char> >::_Change_array
PUBLIC	?_Tidy@?$vector@DV?$allocator@D@std@@@std@@AAEXXZ ; std::vector<char,std::allocator<char> >::_Tidy
PUBLIC	?_Xlength@?$vector@DV?$allocator@D@std@@@std@@CAXXZ ; std::vector<char,std::allocator<char> >::_Xlength
PUBLIC	?_Orphan_range@?$vector@DV?$allocator@D@std@@@std@@ABEXPAD0@Z ; std::vector<char,std::allocator<char> >::_Orphan_range
PUBLIC	??1ByteBuffer@net@zl@@QAE@XZ			; zl::net::ByteBuffer::~ByteBuffer
PUBLIC	??D?$_Vector_const_iterator@V?$_Vector_val@U?$_Simple_types@D@std@@@std@@@std@@QBEABDXZ ; std::_Vector_const_iterator<std::_Vector_val<std::_Simple_types<char> > >::operator*
PUBLIC	??1?$_Vector_iterator@V?$_Vector_val@U?$_Simple_types@D@std@@@std@@@std@@QAE@XZ ; std::_Vector_iterator<std::_Vector_val<std::_Simple_types<char> > >::~_Vector_iterator<std::_Vector_val<std::_Simple_types<char> > >
PUBLIC	??Rstring_cmp_nocase@base@zl@@QBE_NABV?$basic_string@DU?$char_traits@D@std@@V?$allocator@D@2@@std@@0@Z ; zl::base::string_cmp_nocase::operator()
PUBLIC	??D?$_String_const_iterator@V?$_String_val@U?$_Simple_types@D@std@@@std@@@std@@QBEABDXZ ; std::_String_const_iterator<std::_String_val<std::_Simple_types<char> > >::operator*
PUBLIC	??E?$_String_const_iterator@V?$_String_val@U?$_Simple_types@D@std@@@std@@@std@@QAEAAV01@XZ ; std::_String_const_iterator<std::_String_val<std::_Simple_types<char> > >::operator++
PUBLIC	?_Compat@?$_String_const_iterator@V?$_String_val@U?$_Simple_types@D@std@@@std@@@std@@QBEXABV12@@Z ; std::_String_const_iterator<std::_String_val<std::_Simple_types<char> > >::_Compat
PUBLIC	??1?$_String_const_iterator@V?$_String_val@U?$_Simple_types@D@std@@@std@@@std@@QAE@XZ ; std::_String_const_iterator<std::_String_val<std::_Simple_types<char> > >::~_String_const_iterator<std::_String_val<std::_Simple_types<char> > >
PUBLIC	??0HttpRequest@net@zl@@QAE@XZ			; zl::net::HttpRequest::HttpRequest
PUBLIC	??1HttpRequest@net@zl@@QAE@XZ			; zl::net::HttpRequest::~HttpRequest
PUBLIC	?getHeader@HttpRequest@net@zl@@QBE?AV?$basic_string@DU?$char_traits@D@std@@V?$allocator@D@2@@std@@ABV45@@Z ; zl::net::HttpRequest::getHeader
PUBLIC	?deallocate@?$allocator@U?$_Tree_node@U?$pair@$$CBV?$basic_string@DU?$char_traits@D@std@@V?$allocator@D@2@@std@@V12@@std@@PAX@std@@@std@@QAEXQAU?$_Tree_node@U?$pair@$$CBV?$basic_string@DU?$char_traits@D@std@@V?$allocator@D@2@@std@@V12@@std@@PAX@2@I@Z ; std::allocator<std::_Tree_node<std::pair<std::basic_string<char,std::char_traits<char>,std::allocator<char> > const ,std::basic_string<char,std::char_traits<char>,std::allocator<char> > >,void *> >::deallocate
PUBLIC	?allocate@?$allocator@U?$_Tree_node@U?$pair@$$CBV?$basic_string@DU?$char_traits@D@std@@V?$allocator@D@2@@std@@V12@@std@@PAX@std@@@std@@QAEPAU?$_Tree_node@U?$pair@$$CBV?$basic_string@DU?$char_traits@D@std@@V?$allocator@D@2@@std@@V12@@std@@PAX@2@I@Z ; std::allocator<std::_Tree_node<std::pair<std::basic_string<char,std::char_traits<char>,std::allocator<char> > const ,std::basic_string<char,std::char_traits<char>,std::allocator<char> > >,void *> >::allocate
PUBLIC	??0?$_Tree_comp_alloc@V?$_Tmap_traits@V?$basic_string@DU?$char_traits@D@std@@V?$allocator@D@2@@std@@V12@Ustring_cmp_nocase@base@zl@@V?$allocator@U?$pair@$$CBV?$basic_string@DU?$char_traits@D@std@@V?$allocator@D@2@@std@@V12@@std@@@2@$0A@@std@@@std@@QAE@ABUstring_cmp_nocase@base@zl@@@Z ; std::_Tree_comp_alloc<std::_Tmap_traits<std::basic_string<char,std::char_traits<char>,std::allocator<char> >,std::basic_string<char,std::char_traits<char>,std::allocator<char> >,zl::base::string_cmp_nocase,std::allocator<std::pair<std::basic_string<char,std::char_traits<char>,std::allocator<char> > const ,std::basic_string<char,std::char_traits<char>,std::allocator<char> > > >,0> >::_Tree_comp_alloc<std::_Tmap_traits<std::basic_string<char,std::char_traits<char>,std::allocator<char> >,std::basic_string<char,std::char_traits<char>,std::allocator<char> >,zl::base::string_cmp_nocase,std::allocator<std::pair<std::basic_string<char,std::char_traits<char>,std::allocator<char> > const ,std::basic_string<char,std::char_traits<char>,std::allocator<char> > > >,0> >
PUBLIC	?_Construct@?$_Tree_comp_alloc@V?$_Tmap_traits@V?$basic_string@DU?$char_traits@D@std@@V?$allocator@D@2@@std@@V12@Ustring_cmp_nocase@base@zl@@V?$allocator@U?$pair@$$CBV?$basic_string@DU?$char_traits@D@std@@V?$allocator@D@2@@std@@V12@@std@@@2@$0A@@std@@@std@@QAEXXZ ; std::_Tree_comp_alloc<std::_Tmap_traits<std::basic_string<char,std::char_traits<char>,std::allocator<char> >,std::basic_string<char,std::char_traits<char>,std::allocator<char> >,zl::base::string_cmp_nocase,std::allocator<std::pair<std::basic_string<char,std::char_traits<char>,std::allocator<char> > const ,std::basic_string<char,std::char_traits<char>,std::allocator<char> > > >,0> >::_Construct
PUBLIC	??1?$_Tree_comp_alloc@V?$_Tmap_traits@V?$basic_string@DU?$char_traits@D@std@@V?$allocator@D@2@@std@@V12@Ustring_cmp_nocase@base@zl@@V?$allocator@U?$pair@$$CBV?$basic_string@DU?$char_traits@D@std@@V?$allocator@D@2@@std@@V12@@std@@@2@$0A@@std@@@std@@QAE@XZ ; std::_Tree_comp_alloc<std::_Tmap_traits<std::basic_string<char,std::char_traits<char>,std::allocator<char> >,std::basic_string<char,std::char_traits<char>,std::allocator<char> >,zl::base::string_cmp_nocase,std::allocator<std::pair<std::basic_string<char,std::char_traits<char>,std::allocator<char> > const ,std::basic_string<char,std::char_traits<char>,std::allocator<char> > > >,0> >::~_Tree_comp_alloc<std::_Tmap_traits<std::basic_string<char,std::char_traits<char>,std::allocator<char> >,std::basic_string<char,std::char_traits<char>,std::allocator<char> >,zl::base::string_cmp_nocase,std::allocator<std::pair<std::basic_string<char,std::char_traits<char>,std::allocator<char> > const ,std::basic_string<char,std::char_traits<char>,std::allocator<char> > > >,0> >
PUBLIC	?_Alloc_proxy@?$_Tree_comp_alloc@V?$_Tmap_traits@V?$basic_string@DU?$char_traits@D@std@@V?$allocator@D@2@@std@@V12@Ustring_cmp_nocase@base@zl@@V?$allocator@U?$pair@$$CBV?$basic_string@DU?$char_traits@D@std@@V?$allocator@D@2@@std@@V12@@std@@@2@$0A@@std@@@std@@QAEXXZ ; std::_Tree_comp_alloc<std::_Tmap_traits<std::basic_string<char,std::char_traits<char>,std::allocator<char> >,std::basic_string<char,std::char_traits<char>,std::allocator<char> >,zl::base::string_cmp_nocase,std::allocator<std::pair<std::basic_string<char,std::char_traits<char>,std::allocator<char> > const ,std::basic_string<char,std::char_traits<char>,std::allocator<char> > > >,0> >::_Alloc_proxy
PUBLIC	?_Free_proxy@?$_Tree_comp_alloc@V?$_Tmap_traits@V?$basic_string@DU?$char_traits@D@std@@V?$allocator@D@2@@std@@V12@Ustring_cmp_nocase@base@zl@@V?$allocator@U?$pair@$$CBV?$basic_string@DU?$char_traits@D@std@@V?$allocator@D@2@@std@@V12@@std@@@2@$0A@@std@@@std@@QAEXXZ ; std::_Tree_comp_alloc<std::_Tmap_traits<std::basic_string<char,std::char_traits<char>,std::allocator<char> >,std::basic_string<char,std::char_traits<char>,std::allocator<char> >,zl::base::string_cmp_nocase,std::allocator<std::pair<std::basic_string<char,std::char_traits<char>,std::allocator<char> > const ,std::basic_string<char,std::char_traits<char>,std::allocator<char> > > >,0> >::_Free_proxy
PUBLIC	?_Buyheadnode@?$_Tree_comp_alloc@V?$_Tmap_traits@V?$basic_string@DU?$char_traits@D@std@@V?$allocator@D@2@@std@@V12@Ustring_cmp_nocase@base@zl@@V?$allocator@U?$pair@$$CBV?$basic_string@DU?$char_traits@D@std@@V?$allocator@D@2@@std@@V12@@std@@@2@$0A@@std@@@std@@QAEPAU?$_Tree_node@U?$pair@$$CBV?$basic_string@DU?$char_traits@D@std@@V?$allocator@D@2@@std@@V12@@std@@PAX@2@XZ ; std::_Tree_comp_alloc<std::_Tmap_traits<std::basic_string<char,std::char_traits<char>,std::allocator<char> >,std::basic_string<char,std::char_traits<char>,std::allocator<char> >,zl::base::string_cmp_nocase,std::allocator<std::pair<std::basic_string<char,std::char_traits<char>,std::allocator<char> > const ,std::basic_string<char,std::char_traits<char>,std::allocator<char> > > >,0> >::_Buyheadnode
PUBLIC	?_Freeheadnode@?$_Tree_comp_alloc@V?$_Tmap_traits@V?$basic_string@DU?$char_traits@D@std@@V?$allocator@D@2@@std@@V12@Ustring_cmp_nocase@base@zl@@V?$allocator@U?$pair@$$CBV?$basic_string@DU?$char_traits@D@std@@V?$allocator@D@2@@std@@V12@@std@@@2@$0A@@std@@@std@@QAEXPAU?$_Tree_node@U?$pair@$$CBV?$basic_string@DU?$char_traits@D@std@@V?$allocator@D@2@@std@@V12@@std@@PAX@2@@Z ; std::_Tree_comp_alloc<std::_Tmap_traits<std::basic_string<char,std::char_traits<char>,std::allocator<char> >,std::basic_string<char,std::char_traits<char>,std::allocator<char> >,zl::base::string_cmp_nocase,std::allocator<std::pair<std::basic_string<char,std::char_traits<char>,std::allocator<char> > const ,std::basic_string<char,std::char_traits<char>,std::allocator<char> > > >,0> >::_Freeheadnode
PUBLIC	?_Lrotate@?$_Tree_val@U?$_Tree_simple_types@U?$pair@$$CBV?$basic_string@DU?$char_traits@D@std@@V?$allocator@D@2@@std@@V12@@std@@@std@@@std@@QAEXPAU?$_Tree_node@U?$pair@$$CBV?$basic_string@DU?$char_traits@D@std@@V?$allocator@D@2@@std@@V12@@std@@PAX@2@@Z ; std::_Tree_val<std::_Tree_simple_types<std::pair<std::basic_string<char,std::char_traits<char>,std::allocator<char> > const ,std::basic_string<char,std::char_traits<char>,std::allocator<char> > > > >::_Lrotate
PUBLIC	?_Rrotate@?$_Tree_val@U?$_Tree_simple_types@U?$pair@$$CBV?$basic_string@DU?$char_traits@D@std@@V?$allocator@D@2@@std@@V12@@std@@@std@@@std@@QAEXPAU?$_Tree_node@U?$pair@$$CBV?$basic_string@DU?$char_traits@D@std@@V?$allocator@D@2@@std@@V12@@std@@PAX@2@@Z ; std::_Tree_val<std::_Tree_simple_types<std::pair<std::basic_string<char,std::char_traits<char>,std::allocator<char> > const ,std::basic_string<char,std::char_traits<char>,std::allocator<char> > > > >::_Rrotate
PUBLIC	?_Extract@?$_Tree_val@U?$_Tree_simple_types@U?$pair@$$CBV?$basic_string@DU?$char_traits@D@std@@V?$allocator@D@2@@std@@V12@@std@@@std@@@std@@QAEPAU?$_Tree_node@U?$pair@$$CBV?$basic_string@DU?$char_traits@D@std@@V?$allocator@D@2@@std@@V12@@std@@PAX@2@V?$_Tree_const_iterator@V?$_Tree_val@U?$_Tree_simple_types@U?$pair@$$CBV?$basic_string@DU?$char_traits@D@std@@V?$allocator@D@2@@std@@V12@@std@@@std@@@std@@@2@@Z ; std::_Tree_val<std::_Tree_simple_types<std::pair<std::basic_string<char,std::char_traits<char>,std::allocator<char> > const ,std::basic_string<char,std::char_traits<char>,std::allocator<char> > > > >::_Extract
PUBLIC	?begin@?$_Tree@V?$_Tmap_traits@V?$basic_string@DU?$char_traits@D@std@@V?$allocator@D@2@@std@@V12@Ustring_cmp_nocase@base@zl@@V?$allocator@U?$pair@$$CBV?$basic_string@DU?$char_traits@D@std@@V?$allocator@D@2@@std@@V12@@std@@@2@$0A@@std@@@std@@QAE?AV?$_Tree_iterator@V?$_Tree_val@U?$_Tree_simple_types@U?$pair@$$CBV?$basic_string@DU?$char_traits@D@std@@V?$allocator@D@2@@std@@V12@@std@@@std@@@std@@@2@XZ ; std::_Tree<std::_Tmap_traits<std::basic_string<char,std::char_traits<char>,std::allocator<char> >,std::basic_string<char,std::char_traits<char>,std::allocator<char> >,zl::base::string_cmp_nocase,std::allocator<std::pair<std::basic_string<char,std::char_traits<char>,std::allocator<char> > const ,std::basic_string<char,std::char_traits<char>,std::allocator<char> > > >,0> >::begin
PUBLIC	?erase@?$_Tree@V?$_Tmap_traits@V?$basic_string@DU?$char_traits@D@std@@V?$allocator@D@2@@std@@V12@Ustring_cmp_nocase@base@zl@@V?$allocator@U?$pair@$$CBV?$basic_string@DU?$char_traits@D@std@@V?$allocator@D@2@@std@@V12@@std@@@2@$0A@@std@@@std@@QAE?AV?$_Tree_iterator@V?$_Tree_val@U?$_Tree_simple_types@U?$pair@$$CBV?$basic_string@DU?$char_traits@D@std@@V?$allocator@D@2@@std@@V12@@std@@@std@@@std@@@2@V?$_Tree_const_iterator@V?$_Tree_val@U?$_Tree_simple_types@U?$pair@$$CBV?$basic_string@DU?$char_traits@D@std@@V?$allocator@D@2@@std@@V12@@std@@@std@@@std@@@2@@Z ; std::_Tree<std::_Tmap_traits<std::basic_string<char,std::char_traits<char>,std::allocator<char> >,std::basic_string<char,std::char_traits<char>,std::allocator<char> >,zl::base::string_cmp_nocase,std::allocator<std::pair<std::basic_string<char,std::char_traits<char>,std::allocator<char> > const ,std::basic_string<char,std::char_traits<char>,std::allocator<char> > > >,0> >::erase
PUBLIC	?erase@?$_Tree@V?$_Tmap_traits@V?$basic_string@DU?$char_traits@D@std@@V?$allocator@D@2@@std@@V12@Ustring_cmp_nocase@base@zl@@V?$allocator@U?$pair@$$CBV?$basic_string@DU?$char_traits@D@std@@V?$allocator@D@2@@std@@V12@@std@@@2@$0A@@std@@@std@@QAE?AV?$_Tree_iterator@V?$_Tree_val@U?$_Tree_simple_types@U?$pair@$$CBV?$basic_string@DU?$char_traits@D@std@@V?$allocator@D@2@@std@@V12@@std@@@std@@@std@@@2@V?$_Tree_const_iterator@V?$_Tree_val@U?$_Tree_simple_types@U?$pair@$$CBV?$basic_string@DU?$char_traits@D@std@@V?$allocator@D@2@@std@@V12@@std@@@std@@@std@@@2@0@Z ; std::_Tree<std::_Tmap_traits<std::basic_string<char,std::char_traits<char>,std::allocator<char> >,std::basic_string<char,std::char_traits<char>,std::allocator<char> >,zl::base::string_cmp_nocase,std::allocator<std::pair<std::basic_string<char,std::char_traits<char>,std::allocator<char> > const ,std::basic_string<char,std::char_traits<char>,std::allocator<char> > > >,0> >::erase
PUBLIC	?clear@?$_Tree@V?$_Tmap_traits@V?$basic_string@DU?$char_traits@D@std@@V?$allocator@D@2@@std@@V12@Ustring_cmp_nocase@base@zl@@V?$allocator@U?$pair@$$CBV?$basic_string@DU?$char_traits@D@std@@V?$allocator@D@2@@std@@V12@@std@@@2@$0A@@std@@@std@@QAEXXZ ; std::_Tree<std::_Tmap_traits<std::basic_string<char,std::char_traits<char>,std::allocator<char> >,std::basic_string<char,std::char_traits<char>,std::allocator<char> >,zl::base::string_cmp_nocase,std::allocator<std::pair<std::basic_string<char,std::char_traits<char>,std::allocator<char> > const ,std::basic_string<char,std::char_traits<char>,std::allocator<char> > > >,0> >::clear
PUBLIC	?find@?$_Tree@V?$_Tmap_traits@V?$basic_string@DU?$char_traits@D@std@@V?$allocator@D@2@@std@@V12@Ustring_cmp_nocase@base@zl@@V?$allocator@U?$pair@$$CBV?$basic_string@DU?$char_traits@D@std@@V?$allocator@D@2@@std@@V12@@std@@@2@$0A@@std@@@std@@QBE?AV?$_Tree_const_iterator@V?$_Tree_val@U?$_Tree_simple_types@U?$pair@$$CBV?$basic_string@DU?$char_traits@D@std@@V?$allocator@D@2@@std@@V12@@std@@@std@@@std@@@2@ABV?$basic_string@DU?$char_traits@D@std@@V?$allocator@D@2@@2@@Z ; std::_Tree<std::_Tmap_traits<std::basic_string<char,std::char_traits<char>,std::allocator<char> >,std::basic_string<char,std::char_traits<char>,std::allocator<char> >,zl::base::string_cmp_nocase,std::allocator<std::pair<std::basic_string<char,std::char_traits<char>,std::allocator<char> > const ,std::basic_string<char,std::char_traits<char>,std::allocator<char> > > >,0> >::find
PUBLIC	?_Erase@?$_Tree@V?$_Tmap_traits@V?$basic_string@DU?$char_traits@D@std@@V?$allocator@D@2@@std@@V12@Ustring_cmp_nocase@base@zl@@V?$allocator@U?$pair@$$CBV?$basic_string@DU?$char_traits@D@std@@V?$allocator@D@2@@std@@V12@@std@@@2@$0A@@std@@@std@@IAEXPAU?$_Tree_node@U?$pair@$$CBV?$basic_string@DU?$char_traits@D@std@@V?$allocator@D@2@@std@@V12@@std@@PAX@2@@Z ; std::_Tree<std::_Tmap_traits<std::basic_string<char,std::char_traits<char>,std::allocator<char> >,std::basic_string<char,std::char_traits<char>,std::allocator<char> >,zl::base::string_cmp_nocase,std::allocator<std::pair<std::basic_string<char,std::char_traits<char>,std::allocator<char> > const ,std::basic_string<char,std::char_traits<char>,std::allocator<char> > > >,0> >::_Erase
PUBLIC	?_Orphan_ptr@?$_Tree@V?$_Tmap_traits@V?$basic_string@DU?$char_traits@D@std@@V?$allocator@D@2@@std@@V12@Ustring_cmp_nocase@base@zl@@V?$allocator@U?$pair@$$CBV?$basic_string@DU?$char_traits@D@std@@V?$allocator@D@2@@std@@V12@@std@@@2@$0A@@std@@@std@@IAEXPAU?$_Tree_node@U?$pair@$$CBV?$basic_string@DU?$char_traits@D@std@@V?$allocator@D@2@@std@@V12@@std@@PAX@2@@Z ; std::_Tree<std::_Tmap_traits<std::basic_string<char,std::char_traits<char>,std::allocator<char> >,std::basic_string<char,std::char_traits<char>,std::allocator<char> >,zl::base::string_cmp_nocase,std::allocator<std::pair<std::basic_string<char,std::char_traits<char>,std::allocator<char> > const ,std::basic_string<char,std::char_traits<char>,std::allocator<char> > > >,0> >::_Orphan_ptr
PUBLIC	?_Tidy@?$_Tree@V?$_Tmap_traits@V?$basic_string@DU?$char_traits@D@std@@V?$allocator@D@2@@std@@V12@Ustring_cmp_nocase@base@zl@@V?$allocator@U?$pair@$$CBV?$basic_string@DU?$char_traits@D@std@@V?$allocator@D@2@@std@@V12@@std@@@2@$0A@@std@@@std@@IAEXXZ ; std::_Tree<std::_Tmap_traits<std::basic_string<char,std::char_traits<char>,std::allocator<char> >,std::basic_string<char,std::char_traits<char>,std::allocator<char> >,zl::base::string_cmp_nocase,std::allocator<std::pair<std::basic_string<char,std::char_traits<char>,std::allocator<char> > const ,std::basic_string<char,std::char_traits<char>,std::allocator<char> > > >,0> >::_Tidy
PUBLIC	??0?$_Tree_unchecked_const_iterator@V?$_Tree_val@U?$_Tree_simple_types@U?$pair@$$CBV?$basic_string@DU?$char_traits@D@std@@V?$allocator@D@2@@std@@V12@@std@@@std@@@std@@U_Iterator_base12@2@@std@@QAE@PAU?$_Tree_node@U?$pair@$$CBV?$basic_string@DU?$char_traits@D@std@@V?$allocator@D@2@@std@@V12@@std@@PAX@1@PBV?$_Tree_val@U?$_Tree_simple_types@U?$pair@$$CBV?$basic_string@DU?$char_traits@D@std@@V?$allocator@D@2@@std@@V12@@std@@@std@@@1@@Z ; std::_Tree_unchecked_const_iterator<std::_Tree_val<std::_Tree_simple_types<std::pair<std::basic_string<char,std::char_traits<char>,std::allocator<char> > const ,std::basic_string<char,std::char_traits<char>,std::allocator<char> > > > >,std::_Iterator_base12>::_Tree_unchecked_const_iterator<std::_Tree_val<std::_Tree_simple_types<std::pair<std::basic_string<char,std::char_traits<char>,std::allocator<char> > const ,std::basic_string<char,std::char_traits<char>,std::allocator<char> > > > >,std::_Iterator_base12>
PUBLIC	??E?$_Tree_unchecked_const_iterator@V?$_Tree_val@U?$_Tree_simple_types@U?$pair@$$CBV?$basic_string@DU?$char_traits@D@std@@V?$allocator@D@2@@std@@V12@@std@@@std@@@std@@U_Iterator_base12@2@@std@@QAEAAV01@XZ ; std::_Tree_unchecked_const_iterator<std::_Tree_val<std::_Tree_simple_types<std::pair<std::basic_string<char,std::char_traits<char>,std::allocator<char> > const ,std::basic_string<char,std::char_traits<char>,std::allocator<char> > > > >,std::_Iterator_base12>::operator++
PUBLIC	??0?$_Tree_unchecked_const_iterator@V?$_Tree_val@U?$_Tree_simple_types@U?$pair@$$CBV?$basic_string@DU?$char_traits@D@std@@V?$allocator@D@2@@std@@V12@@std@@@std@@@std@@U_Iterator_base12@2@@std@@QAE@ABV01@@Z ; std::_Tree_unchecked_const_iterator<std::_Tree_val<std::_Tree_simple_types<std::pair<std::basic_string<char,std::char_traits<char>,std::allocator<char> > const ,std::basic_string<char,std::char_traits<char>,std::allocator<char> > > > >,std::_Iterator_base12>::_Tree_unchecked_const_iterator<std::_Tree_val<std::_Tree_simple_types<std::pair<std::basic_string<char,std::char_traits<char>,std::allocator<char> > const ,std::basic_string<char,std::char_traits<char>,std::allocator<char> > > > >,std::_Iterator_base12>
PUBLIC	??0?$_Tree_const_iterator@V?$_Tree_val@U?$_Tree_simple_types@U?$pair@$$CBV?$basic_string@DU?$char_traits@D@std@@V?$allocator@D@2@@std@@V12@@std@@@std@@@std@@@std@@QAE@PAU?$_Tree_node@U?$pair@$$CBV?$basic_string@DU?$char_traits@D@std@@V?$allocator@D@2@@std@@V12@@std@@PAX@1@PBV?$_Tree_val@U?$_Tree_simple_types@U?$pair@$$CBV?$basic_string@DU?$char_traits@D@std@@V?$allocator@D@2@@std@@V12@@std@@@std@@@1@@Z ; std::_Tree_const_iterator<std::_Tree_val<std::_Tree_simple_types<std::pair<std::basic_string<char,std::char_traits<char>,std::allocator<char> > const ,std::basic_string<char,std::char_traits<char>,std::allocator<char> > > > > >::_Tree_const_iterator<std::_Tree_val<std::_Tree_simple_types<std::pair<std::basic_string<char,std::char_traits<char>,std::allocator<char> > const ,std::basic_string<char,std::char_traits<char>,std::allocator<char> > > > > >
PUBLIC	??D?$_Tree_const_iterator@V?$_Tree_val@U?$_Tree_simple_types@U?$pair@$$CBV?$basic_string@DU?$char_traits@D@std@@V?$allocator@D@2@@std@@V12@@std@@@std@@@std@@@std@@QBEABU?$pair@$$CBV?$basic_string@DU?$char_traits@D@std@@V?$allocator@D@2@@std@@V12@@1@XZ ; std::_Tree_const_iterator<std::_Tree_val<std::_Tree_simple_types<std::pair<std::basic_string<char,std::char_traits<char>,std::allocator<char> > const ,std::basic_string<char,std::char_traits<char>,std::allocator<char> > > > > >::operator*
PUBLIC	??E?$_Tree_const_iterator@V?$_Tree_val@U?$_Tree_simple_types@U?$pair@$$CBV?$basic_string@DU?$char_traits@D@std@@V?$allocator@D@2@@std@@V12@@std@@@std@@@std@@@std@@QAEAAV01@XZ ; std::_Tree_const_iterator<std::_Tree_val<std::_Tree_simple_types<std::pair<std::basic_string<char,std::char_traits<char>,std::allocator<char> > const ,std::basic_string<char,std::char_traits<char>,std::allocator<char> > > > > >::operator++
PUBLIC	??E?$_Tree_const_iterator@V?$_Tree_val@U?$_Tree_simple_types@U?$pair@$$CBV?$basic_string@DU?$char_traits@D@std@@V?$allocator@D@2@@std@@V12@@std@@@std@@@std@@@std@@QAE?AV01@H@Z ; std::_Tree_const_iterator<std::_Tree_val<std::_Tree_simple_types<std::pair<std::basic_string<char,std::char_traits<char>,std::allocator<char> > const ,std::basic_string<char,std::char_traits<char>,std::allocator<char> > > > > >::operator++
PUBLIC	??8?$_Tree_const_iterator@V?$_Tree_val@U?$_Tree_simple_types@U?$pair@$$CBV?$basic_string@DU?$char_traits@D@std@@V?$allocator@D@2@@std@@V12@@std@@@std@@@std@@@std@@QBE_NABV01@@Z ; std::_Tree_const_iterator<std::_Tree_val<std::_Tree_simple_types<std::pair<std::basic_string<char,std::char_traits<char>,std::allocator<char> > const ,std::basic_string<char,std::char_traits<char>,std::allocator<char> > > > > >::operator==
PUBLIC	??1?$_Tree_const_iterator@V?$_Tree_val@U?$_Tree_simple_types@U?$pair@$$CBV?$basic_string@DU?$char_traits@D@std@@V?$allocator@D@2@@std@@V12@@std@@@std@@@std@@@std@@QAE@XZ ; std::_Tree_const_iterator<std::_Tree_val<std::_Tree_simple_types<std::pair<std::basic_string<char,std::char_traits<char>,std::allocator<char> > const ,std::basic_string<char,std::char_traits<char>,std::allocator<char> > > > > >::~_Tree_const_iterator<std::_Tree_val<std::_Tree_simple_types<std::pair<std::basic_string<char,std::char_traits<char>,std::allocator<char> > const ,std::basic_string<char,std::char_traits<char>,std::allocator<char> > > > > >
PUBLIC	??1?$pair@$$CBV?$basic_string@DU?$char_traits@D@std@@V?$allocator@D@2@@std@@V12@@std@@QAE@XZ ; std::pair<std::basic_string<char,std::char_traits<char>,std::allocator<char> > const ,std::basic_string<char,std::char_traits<char>,std::allocator<char> > >::~pair<std::basic_string<char,std::char_traits<char>,std::allocator<char> > const ,std::basic_string<char,std::char_traits<char>,std::allocator<char> > >
PUBLIC	??1HttpContext@net@zl@@QAE@XZ			; zl::net::HttpContext::~HttpContext
PUBLIC	??0COverLapped@@QAE@W4enOperationType@@@Z	; COverLapped::COverLapped
PUBLIC	??1COverLapped@@UAE@XZ				; COverLapped::~COverLapped
PUBLIC	??_GCOverLapped@@UAEPAXI@Z			; COverLapped::`scalar deleting destructor'
PUBLIC	??0COverLappedSend@@QAE@XZ			; COverLappedSend::COverLappedSend
PUBLIC	??1COverLappedSend@@UAE@XZ			; COverLappedSend::~COverLappedSend
PUBLIC	??_GCOverLappedSend@@UAEPAXI@Z			; COverLappedSend::`scalar deleting destructor'
PUBLIC	??0COverLappedRecv@@QAE@XZ			; COverLappedRecv::COverLappedRecv
PUBLIC	??1COverLappedRecv@@UAE@XZ			; COverLappedRecv::~COverLappedRecv
PUBLIC	??_GCOverLappedRecv@@UAEPAXI@Z			; COverLappedRecv::`scalar deleting destructor'
PUBLIC	??0?$CWHArray@PAVCOverLappedSend@@ABQAV1@@@QAE@XZ ; CWHArray<COverLappedSend *,COverLappedSend * const &>::CWHArray<COverLappedSend *,COverLappedSend * const &>
PUBLIC	??1?$CWHArray@PAVCOverLappedSend@@ABQAV1@@@UAE@XZ ; CWHArray<COverLappedSend *,COverLappedSend * const &>::~CWHArray<COverLappedSend *,COverLappedSend * const &>
PUBLIC	?Append@?$CWHArray@PAVCOverLappedSend@@ABQAV1@@@QAEHABV1@@Z ; CWHArray<COverLappedSend *,COverLappedSend * const &>::Append
PUBLIC	?ElementAt@?$CWHArray@PAVCOverLappedSend@@ABQAV1@@@QAEAAPAVCOverLappedSend@@H@Z ; CWHArray<COverLappedSend *,COverLappedSend * const &>::ElementAt
PUBLIC	?SetSize@?$CWHArray@PAVCOverLappedSend@@ABQAV1@@@QAEXH@Z ; CWHArray<COverLappedSend *,COverLappedSend * const &>::SetSize
PUBLIC	?SetAtGrow@?$CWHArray@PAVCOverLappedSend@@ABQAV1@@@QAEXHABQAVCOverLappedSend@@@Z ; CWHArray<COverLappedSend *,COverLappedSend * const &>::SetAtGrow
PUBLIC	?RemoveAt@?$CWHArray@PAVCOverLappedSend@@ABQAV1@@@QAEXHH@Z ; CWHArray<COverLappedSend *,COverLappedSend * const &>::RemoveAt
PUBLIC	?RemoveAll@?$CWHArray@PAVCOverLappedSend@@ABQAV1@@@QAEXXZ ; CWHArray<COverLappedSend *,COverLappedSend * const &>::RemoveAll
PUBLIC	?AllocMemory@?$CWHArray@PAVCOverLappedSend@@ABQAV1@@@QAEXH@Z ; CWHArray<COverLappedSend *,COverLappedSend * const &>::AllocMemory
PUBLIC	??_G?$CWHArray@PAVCOverLappedSend@@ABQAV1@@@UAEPAXI@Z ; CWHArray<COverLappedSend *,COverLappedSend * const &>::`scalar deleting destructor'
PUBLIC	??0CTCPNetworkItem@@QAE@GPAUITCPNetworkItemSink@@@Z ; CTCPNetworkItem::CTCPNetworkItem
PUBLIC	??1CTCPNetworkItem@@UAE@XZ			; CTCPNetworkItem::~CTCPNetworkItem
PUBLIC	?handshake@CTCPNetworkItem@@AAE_NPAVByteBuffer@net@zl@@@Z ; CTCPNetworkItem::handshake
PUBLIC	?SendRawData@CTCPNetworkItem@@AAE_NPBDH@Z	; CTCPNetworkItem::SendRawData
PUBLIC	?CheckIsWinSocket@CTCPNetworkItem@@AAE_NXZ	; CTCPNetworkItem::CheckIsWinSocket
PUBLIC	?HandleWebsocketRecv@CTCPNetworkItem@@AAE_NXZ	; CTCPNetworkItem::HandleWebsocketRecv
PUBLIC	?isWebSocket@CTCPNetworkItem@@QAE_NXZ		; CTCPNetworkItem::isWebSocket
PUBLIC	?isWinSocket@CTCPNetworkItem@@QAE_NXZ		; CTCPNetworkItem::isWinSocket
PUBLIC	?sendPingFrame@CTCPNetworkItem@@QAE_NXZ		; CTCPNetworkItem::sendPingFrame
PUBLIC	?Attach@CTCPNetworkItem@@QAEKIK@Z		; CTCPNetworkItem::Attach
PUBLIC	?ResumeData@CTCPNetworkItem@@QAEKXZ		; CTCPNetworkItem::ResumeData
PUBLIC	?SendData@CTCPNetworkItem@@QAE_NGGG@Z		; CTCPNetworkItem::SendData
PUBLIC	?SendData@CTCPNetworkItem@@QAE_NPAXGGGG@Z	; CTCPNetworkItem::SendData
PUBLIC	?RecvData@CTCPNetworkItem@@QAE_NXZ		; CTCPNetworkItem::RecvData
PUBLIC	?CloseSocket@CTCPNetworkItem@@QAE_NG@Z		; CTCPNetworkItem::CloseSocket
PUBLIC	?ShutDownSocket@CTCPNetworkItem@@QAE_NG@Z	; CTCPNetworkItem::ShutDownSocket
PUBLIC	?AllowBatchSend@CTCPNetworkItem@@QAE_NG_NE@Z	; CTCPNetworkItem::AllowBatchSend
PUBLIC	?OnSendCompleted@CTCPNetworkItem@@QAE_NPAVCOverLappedSend@@K@Z ; CTCPNetworkItem::OnSendCompleted
PUBLIC	?OnRecvCompleted@CTCPNetworkItem@@QAE_NPAVCOverLappedRecv@@K@Z ; CTCPNetworkItem::OnRecvCompleted
PUBLIC	?OnCloseCompleted@CTCPNetworkItem@@QAE_NXZ	; CTCPNetworkItem::OnCloseCompleted
PUBLIC	?EncryptBuffer@CTCPNetworkItem@@AAEGQAEGG@Z	; CTCPNetworkItem::EncryptBuffer
PUBLIC	?CrevasseBuffer@CTCPNetworkItem@@AAEGQAEG@Z	; CTCPNetworkItem::CrevasseBuffer
PUBLIC	?GetSendOverLapped@CTCPNetworkItem@@AAEPAVCOverLappedSend@@G_N@Z ; CTCPNetworkItem::GetSendOverLapped
PUBLIC	??_GCTCPNetworkItem@@UAEPAXI@Z			; CTCPNetworkItem::`scalar deleting destructor'
PUBLIC	??0CTCPNetworkThreadReadWrite@@QAE@XZ		; CTCPNetworkThreadReadWrite::CTCPNetworkThreadReadWrite
PUBLIC	??1CTCPNetworkThreadReadWrite@@UAE@XZ		; CTCPNetworkThreadReadWrite::~CTCPNetworkThreadReadWrite
PUBLIC	?InitThread@CTCPNetworkThreadReadWrite@@QAE_NPAX@Z ; CTCPNetworkThreadReadWrite::InitThread
PUBLIC	?OnEventThreadRun@CTCPNetworkThreadReadWrite@@EAE_NXZ ; CTCPNetworkThreadReadWrite::OnEventThreadRun
PUBLIC	??_GCTCPNetworkThreadReadWrite@@UAEPAXI@Z	; CTCPNetworkThreadReadWrite::`scalar deleting destructor'
PUBLIC	??0CTCPNetworkThreadAccept@@QAE@XZ		; CTCPNetworkThreadAccept::CTCPNetworkThreadAccept
PUBLIC	??1CTCPNetworkThreadAccept@@UAE@XZ		; CTCPNetworkThreadAccept::~CTCPNetworkThreadAccept
PUBLIC	?InitThread@CTCPNetworkThreadAccept@@QAE_NPAXIPAVCTCPNetworkEngine@@@Z ; CTCPNetworkThreadAccept::InitThread
PUBLIC	?OnEventThreadRun@CTCPNetworkThreadAccept@@EAE_NXZ ; CTCPNetworkThreadAccept::OnEventThreadRun
PUBLIC	??_GCTCPNetworkThreadAccept@@UAEPAXI@Z		; CTCPNetworkThreadAccept::`scalar deleting destructor'
PUBLIC	??0CTCPNetworkThreadDetect@@QAE@XZ		; CTCPNetworkThreadDetect::CTCPNetworkThreadDetect
PUBLIC	??1CTCPNetworkThreadDetect@@UAE@XZ		; CTCPNetworkThreadDetect::~CTCPNetworkThreadDetect
PUBLIC	?InitThread@CTCPNetworkThreadDetect@@QAE_NPAVCTCPNetworkEngine@@K@Z ; CTCPNetworkThreadDetect::InitThread
PUBLIC	?OnEventThreadRun@CTCPNetworkThreadDetect@@EAE_NXZ ; CTCPNetworkThreadDetect::OnEventThreadRun
PUBLIC	??_GCTCPNetworkThreadDetect@@UAEPAXI@Z		; CTCPNetworkThreadDetect::`scalar deleting destructor'
PUBLIC	??0?$CWHArray@PAVCTCPNetworkItem@@ABQAV1@@@QAE@XZ ; CWHArray<CTCPNetworkItem *,CTCPNetworkItem * const &>::CWHArray<CTCPNetworkItem *,CTCPNetworkItem * const &>
PUBLIC	??1?$CWHArray@PAVCTCPNetworkItem@@ABQAV1@@@UAE@XZ ; CWHArray<CTCPNetworkItem *,CTCPNetworkItem * const &>::~CWHArray<CTCPNetworkItem *,CTCPNetworkItem * const &>
PUBLIC	?Copy@?$CWHArray@PAVCTCPNetworkItem@@ABQAV1@@@QAEXABV1@@Z ; CWHArray<CTCPNetworkItem *,CTCPNetworkItem * const &>::Copy
PUBLIC	?Append@?$CWHArray@PAVCTCPNetworkItem@@ABQAV1@@@QAEHABV1@@Z ; CWHArray<CTCPNetworkItem *,CTCPNetworkItem * const &>::Append
PUBLIC	?ElementAt@?$CWHArray@PAVCTCPNetworkItem@@ABQAV1@@@QAEAAPAVCTCPNetworkItem@@H@Z ; CWHArray<CTCPNetworkItem *,CTCPNetworkItem * const &>::ElementAt
PUBLIC	?SetSize@?$CWHArray@PAVCTCPNetworkItem@@ABQAV1@@@QAEXH@Z ; CWHArray<CTCPNetworkItem *,CTCPNetworkItem * const &>::SetSize
PUBLIC	?SetAtGrow@?$CWHArray@PAVCTCPNetworkItem@@ABQAV1@@@QAEXHABQAVCTCPNetworkItem@@@Z ; CWHArray<CTCPNetworkItem *,CTCPNetworkItem * const &>::SetAtGrow
PUBLIC	?RemoveAt@?$CWHArray@PAVCTCPNetworkItem@@ABQAV1@@@QAEXHH@Z ; CWHArray<CTCPNetworkItem *,CTCPNetworkItem * const &>::RemoveAt
PUBLIC	?RemoveAll@?$CWHArray@PAVCTCPNetworkItem@@ABQAV1@@@QAEXXZ ; CWHArray<CTCPNetworkItem *,CTCPNetworkItem * const &>::RemoveAll
PUBLIC	?AllocMemory@?$CWHArray@PAVCTCPNetworkItem@@ABQAV1@@@QAEXH@Z ; CWHArray<CTCPNetworkItem *,CTCPNetworkItem * const &>::AllocMemory
PUBLIC	??_G?$CWHArray@PAVCTCPNetworkItem@@ABQAV1@@@UAEPAXI@Z ; CWHArray<CTCPNetworkItem *,CTCPNetworkItem * const &>::`scalar deleting destructor'
PUBLIC	??0?$CWHArray@PAVCTCPNetworkThreadReadWrite@@ABQAV1@@@QAE@XZ ; CWHArray<CTCPNetworkThreadReadWrite *,CTCPNetworkThreadReadWrite * const &>::CWHArray<CTCPNetworkThreadReadWrite *,CTCPNetworkThreadReadWrite * const &>
PUBLIC	??1?$CWHArray@PAVCTCPNetworkThreadReadWrite@@ABQAV1@@@UAE@XZ ; CWHArray<CTCPNetworkThreadReadWrite *,CTCPNetworkThreadReadWrite * const &>::~CWHArray<CTCPNetworkThreadReadWrite *,CTCPNetworkThreadReadWrite * const &>
PUBLIC	?ElementAt@?$CWHArray@PAVCTCPNetworkThreadReadWrite@@ABQAV1@@@QAEAAPAVCTCPNetworkThreadReadWrite@@H@Z ; CWHArray<CTCPNetworkThreadReadWrite *,CTCPNetworkThreadReadWrite * const &>::ElementAt
PUBLIC	?SetSize@?$CWHArray@PAVCTCPNetworkThreadReadWrite@@ABQAV1@@@QAEXH@Z ; CWHArray<CTCPNetworkThreadReadWrite *,CTCPNetworkThreadReadWrite * const &>::SetSize
PUBLIC	?SetAtGrow@?$CWHArray@PAVCTCPNetworkThreadReadWrite@@ABQAV1@@@QAEXHABQAVCTCPNetworkThreadReadWrite@@@Z ; CWHArray<CTCPNetworkThreadReadWrite *,CTCPNetworkThreadReadWrite * const &>::SetAtGrow
PUBLIC	?RemoveAll@?$CWHArray@PAVCTCPNetworkThreadReadWrite@@ABQAV1@@@QAEXXZ ; CWHArray<CTCPNetworkThreadReadWrite *,CTCPNetworkThreadReadWrite * const &>::RemoveAll
PUBLIC	?AllocMemory@?$CWHArray@PAVCTCPNetworkThreadReadWrite@@ABQAV1@@@QAEXH@Z ; CWHArray<CTCPNetworkThreadReadWrite *,CTCPNetworkThreadReadWrite * const &>::AllocMemory
PUBLIC	??_G?$CWHArray@PAVCTCPNetworkThreadReadWrite@@ABQAV1@@@UAEPAXI@Z ; CWHArray<CTCPNetworkThreadReadWrite *,CTCPNetworkThreadReadWrite * const &>::`scalar deleting destructor'
PUBLIC	??0CTCPNetworkEngine@@QAE@XZ			; CTCPNetworkEngine::CTCPNetworkEngine
PUBLIC	??1CTCPNetworkEngine@@UAE@XZ			; CTCPNetworkEngine::~CTCPNetworkEngine
PUBLIC	?Release@CTCPNetworkEngine@@UAEXXZ		; CTCPNetworkEngine::Release
PUBLIC	?QueryInterface@CTCPNetworkEngine@@UAEPAXABU_GUID@@K@Z ; CTCPNetworkEngine::QueryInterface
PUBLIC	?StartService@CTCPNetworkEngine@@UAE_NXZ	; CTCPNetworkEngine::StartService
PUBLIC	?ConcludeService@CTCPNetworkEngine@@UAE_NXZ	; CTCPNetworkEngine::ConcludeService
PUBLIC	?GetServicePort@CTCPNetworkEngine@@UAEGXZ	; CTCPNetworkEngine::GetServicePort
PUBLIC	?GetCurrentPort@CTCPNetworkEngine@@UAEGXZ	; CTCPNetworkEngine::GetCurrentPort
PUBLIC	?SetTCPNetworkEngineEvent@CTCPNetworkEngine@@UAE_NPAUIUnknownEx@@@Z ; CTCPNetworkEngine::SetTCPNetworkEngineEvent
PUBLIC	?SetServiceParameter@CTCPNetworkEngine@@UAE_NGGPBD@Z ; CTCPNetworkEngine::SetServiceParameter
PUBLIC	?SendData@CTCPNetworkEngine@@UAE_NKGG@Z		; CTCPNetworkEngine::SendData
PUBLIC	?SendData@CTCPNetworkEngine@@UAE_NKGGPAXG@Z	; CTCPNetworkEngine::SendData
PUBLIC	?SendDataBatch@CTCPNetworkEngine@@UAE_NGGPAXGE@Z ; CTCPNetworkEngine::SendDataBatch
PUBLIC	?CloseSocket@CTCPNetworkEngine@@UAE_NK@Z	; CTCPNetworkEngine::CloseSocket
PUBLIC	?ShutDownSocket@CTCPNetworkEngine@@UAE_NK@Z	; CTCPNetworkEngine::ShutDownSocket
PUBLIC	?AllowBatchSend@CTCPNetworkEngine@@UAE_NK_NE@Z	; CTCPNetworkEngine::AllowBatchSend
PUBLIC	?OnAsynchronismEngineStart@CTCPNetworkEngine@@UAE_NXZ ; CTCPNetworkEngine::OnAsynchronismEngineStart
PUBLIC	?OnAsynchronismEngineConclude@CTCPNetworkEngine@@UAE_NXZ ; CTCPNetworkEngine::OnAsynchronismEngineConclude
PUBLIC	?OnAsynchronismEngineData@CTCPNetworkEngine@@UAE_NGPAXG@Z ; CTCPNetworkEngine::OnAsynchronismEngineData
PUBLIC	?OnEventSocketBind@CTCPNetworkEngine@@UAE_NPAVCTCPNetworkItem@@@Z ; CTCPNetworkEngine::OnEventSocketBind
PUBLIC	?OnEventSocketShut@CTCPNetworkEngine@@UAE_NPAVCTCPNetworkItem@@@Z ; CTCPNetworkEngine::OnEventSocketShut
PUBLIC	?OnEventSocketRead@CTCPNetworkEngine@@UAE_NUTCP_Command@@PAXGPAVCTCPNetworkItem@@@Z ; CTCPNetworkEngine::OnEventSocketRead
PUBLIC	?DetectSocket@CTCPNetworkEngine@@AAE_NXZ	; CTCPNetworkEngine::DetectSocket
PUBLIC	?WebAttestation@CTCPNetworkEngine@@AAE_NXZ	; CTCPNetworkEngine::WebAttestation
PUBLIC	?CreateSocket@CTCPNetworkEngine@@AAE_NG@Z	; CTCPNetworkEngine::CreateSocket
PUBLIC	?ActiveNetworkItem@CTCPNetworkEngine@@IAEPAVCTCPNetworkItem@@XZ ; CTCPNetworkEngine::ActiveNetworkItem
PUBLIC	?GetNetworkItem@CTCPNetworkEngine@@IAEPAVCTCPNetworkItem@@G@Z ; CTCPNetworkEngine::GetNetworkItem
PUBLIC	?FreeNetworkItem@CTCPNetworkEngine@@IAE_NPAVCTCPNetworkItem@@@Z ; CTCPNetworkEngine::FreeNetworkItem
PUBLIC	??_GCTCPNetworkEngine@@UAEPAXI@Z		; CTCPNetworkEngine::`scalar deleting destructor'
PUBLIC	??_GClosure@protobuf@google@@UAEPAXI@Z		; google::protobuf::Closure::`scalar deleting destructor'
PUBLIC	?Run@FunctionClosure0@internal@protobuf@google@@UAEXXZ ; google::protobuf::internal::FunctionClosure0::Run
PUBLIC	??_GFunctionClosure0@internal@protobuf@google@@UAEPAXI@Z ; google::protobuf::internal::FunctionClosure0::`scalar deleting destructor'
PUBLIC	?ReadVarint32@CodedInputStream@io@protobuf@google@@QAE_NPAI@Z ; google::protobuf::io::CodedInputStream::ReadVarint32
PUBLIC	?ReadVarint64@CodedInputStream@io@protobuf@google@@QAE_NPA_K@Z ; google::protobuf::io::CodedInputStream::ReadVarint64
PUBLIC	?ReadVarintSizeAsInt@CodedInputStream@io@protobuf@google@@QAE_NPAH@Z ; google::protobuf::io::CodedInputStream::ReadVarintSizeAsInt
PUBLIC	??$ReadTagWithCutoffImplementation@$0A@@CodedInputStream@io@protobuf@google@@AAE?AU?$pair@I_N@std@@I@Z ; google::protobuf::io::CodedInputStream::ReadTagWithCutoffImplementation<0>
PUBLIC	?SetNoArena@ArenaStringPtr@internal@protobuf@google@@QAEXPBV?$basic_string@DU?$char_traits@D@std@@V?$allocator@D@2@@std@@$$QAV56@@Z ; google::protobuf::internal::ArenaStringPtr::SetNoArena
PUBLIC	?DestroyNoArena@ArenaStringPtr@internal@protobuf@google@@QAEXPBV?$basic_string@DU?$char_traits@D@std@@V?$allocator@D@2@@std@@@Z ; google::protobuf::internal::ArenaStringPtr::DestroyNoArena
PUBLIC	?CreateInstanceNoArena@ArenaStringPtr@internal@protobuf@google@@AAEXPBV?$basic_string@DU?$char_traits@D@std@@V?$allocator@D@2@@std@@@Z ; google::protobuf::internal::ArenaStringPtr::CreateInstanceNoArena
PUBLIC	?GoogleOnceInit@protobuf@google@@YAXPAHP6AXXZ@Z	; google::protobuf::GoogleOnceInit
PUBLIC	??1?$InternalMetadataWithArenaBase@VUnknownFieldSet@protobuf@google@@VInternalMetadataWithArena@internal@23@@internal@protobuf@google@@QAE@XZ ; google::protobuf::internal::InternalMetadataWithArenaBase<google::protobuf::UnknownFieldSet,google::protobuf::internal::InternalMetadataWithArena>::~InternalMetadataWithArenaBase<google::protobuf::UnknownFieldSet,google::protobuf::internal::InternalMetadataWithArena>
PUBLIC	?mutable_unknown_fields@?$InternalMetadataWithArenaBase@VUnknownFieldSet@protobuf@google@@VInternalMetadataWithArena@internal@23@@internal@protobuf@google@@QAEPAVUnknownFieldSet@34@XZ ; google::protobuf::internal::InternalMetadataWithArenaBase<google::protobuf::UnknownFieldSet,google::protobuf::internal::InternalMetadataWithArena>::mutable_unknown_fields
PUBLIC	?MergeFrom@?$InternalMetadataWithArenaBase@VUnknownFieldSet@protobuf@google@@VInternalMetadataWithArena@internal@23@@internal@protobuf@google@@QAEXABVInternalMetadataWithArena@234@@Z ; google::protobuf::internal::InternalMetadataWithArenaBase<google::protobuf::UnknownFieldSet,google::protobuf::internal::InternalMetadataWithArena>::MergeFrom
PUBLIC	?mutable_unknown_fields_slow@?$InternalMetadataWithArenaBase@VUnknownFieldSet@protobuf@google@@VInternalMetadataWithArena@internal@23@@internal@protobuf@google@@AAEPAVUnknownFieldSet@34@XZ ; google::protobuf::internal::InternalMetadataWithArenaBase<google::protobuf::UnknownFieldSet,google::protobuf::internal::InternalMetadataWithArena>::mutable_unknown_fields_slow
PUBLIC	??1InternalMetadataWithArena@internal@protobuf@google@@QAE@XZ ; google::protobuf::internal::InternalMetadataWithArena::~InternalMetadataWithArena
PUBLIC	??1MessageLite@protobuf@google@@UAE@XZ		; google::protobuf::MessageLite::~MessageLite
PUBLIC	?GetArena@MessageLite@protobuf@google@@UBEPAVArena@23@XZ ; google::protobuf::MessageLite::GetArena
PUBLIC	?GetMaybeArenaPointer@MessageLite@protobuf@google@@UBEPAXXZ ; google::protobuf::MessageLite::GetMaybeArenaPointer
PUBLIC	?ByteSize@MessageLite@protobuf@google@@QBEHXZ	; google::protobuf::MessageLite::ByteSize
PUBLIC	?SerializeWithCachedSizesToArray@MessageLite@protobuf@google@@UBEPAEPAE@Z ; google::protobuf::MessageLite::SerializeWithCachedSizesToArray
PUBLIC	??_GMessageLite@protobuf@google@@UAEPAXI@Z	; google::protobuf::MessageLite::`scalar deleting destructor'
PUBLIC	??1Message@protobuf@google@@UAE@XZ		; google::protobuf::Message::~Message
PUBLIC	?New@Message@protobuf@google@@UBEPAV123@PAVArena@23@@Z ; google::protobuf::Message::New
PUBLIC	?GetReflection@Message@protobuf@google@@UBEPBVReflection@23@XZ ; google::protobuf::Message::GetReflection
PUBLIC	??_GMessage@protobuf@google@@UAEPAXI@Z		; google::protobuf::Message::`scalar deleting destructor'
PUBLIC	??$Own@VMessage@protobuf@google@@@Arena@protobuf@google@@QAEXPAVMessage@12@@Z ; google::protobuf::Arena::Own<google::protobuf::Message>
PUBLIC	?InitDefaultsImpl@TableStruct@protobuf_NullPmd_2eproto@NullPmd@@SAXXZ ; NullPmd::protobuf_NullPmd_2eproto::TableStruct::InitDefaultsImpl
PUBLIC	?Shutdown@TableStruct@protobuf_NullPmd_2eproto@NullPmd@@SAXXZ ; NullPmd::protobuf_NullPmd_2eproto::TableStruct::Shutdown
PUBLIC	?AddDescriptors@protobuf_NullPmd_2eproto@NullPmd@@YAXXZ ; NullPmd::protobuf_NullPmd_2eproto::AddDescriptors
PUBLIC	?InitDefaults@protobuf_NullPmd_2eproto@NullPmd@@YAXXZ ; NullPmd::protobuf_NullPmd_2eproto::InitDefaults
PUBLIC	??0request@NullPmd@@QAE@XZ			; NullPmd::request::request
PUBLIC	??1request@NullPmd@@UAE@XZ			; NullPmd::request::~request
PUBLIC	??0request@NullPmd@@QAE@ABV01@@Z		; NullPmd::request::request
PUBLIC	?descriptor@request@NullPmd@@SAPBVDescriptor@protobuf@google@@XZ ; NullPmd::request::descriptor
PUBLIC	?default_instance@request@NullPmd@@SAABV12@XZ	; NullPmd::request::default_instance
PUBLIC	?Swap@request@NullPmd@@QAEXPAV12@@Z		; NullPmd::request::Swap
PUBLIC	?New@request@NullPmd@@UBEPAV12@XZ		; NullPmd::request::New
PUBLIC	?New@request@NullPmd@@UBEPAV12@PAVArena@protobuf@google@@@Z ; NullPmd::request::New
PUBLIC	?CopyFrom@request@NullPmd@@UAEXABVMessage@protobuf@google@@@Z ; NullPmd::request::CopyFrom
PUBLIC	?MergeFrom@request@NullPmd@@UAEXABVMessage@protobuf@google@@@Z ; NullPmd::request::MergeFrom
PUBLIC	?CopyFrom@request@NullPmd@@QAEXABV12@@Z		; NullPmd::request::CopyFrom
PUBLIC	?MergeFrom@request@NullPmd@@QAEXABV12@@Z	; NullPmd::request::MergeFrom
PUBLIC	?Clear@request@NullPmd@@UAEXXZ			; NullPmd::request::Clear
PUBLIC	?IsInitialized@request@NullPmd@@UBE_NXZ		; NullPmd::request::IsInitialized
PUBLIC	?ByteSizeLong@request@NullPmd@@UBEIXZ		; NullPmd::request::ByteSizeLong
PUBLIC	?MergePartialFromCodedStream@request@NullPmd@@UAE_NPAVCodedInputStream@io@protobuf@google@@@Z ; NullPmd::request::MergePartialFromCodedStream
PUBLIC	?SerializeWithCachedSizes@request@NullPmd@@UBEXPAVCodedOutputStream@io@protobuf@google@@@Z ; NullPmd::request::SerializeWithCachedSizes
PUBLIC	?InternalSerializeWithCachedSizesToArray@request@NullPmd@@UBEPAE_NPAE@Z ; NullPmd::request::InternalSerializeWithCachedSizesToArray
PUBLIC	?SerializeWithCachedSizesToArray@request@NullPmd@@UBEPAEPAE@Z ; NullPmd::request::SerializeWithCachedSizesToArray
PUBLIC	?GetCachedSize@request@NullPmd@@UBEHXZ		; NullPmd::request::GetCachedSize
PUBLIC	?SharedCtor@request@NullPmd@@AAEXXZ		; NullPmd::request::SharedCtor
PUBLIC	?SharedDtor@request@NullPmd@@AAEXXZ		; NullPmd::request::SharedDtor
PUBLIC	?SetCachedSize@request@NullPmd@@EBEXH@Z		; NullPmd::request::SetCachedSize
PUBLIC	?InternalSwap@request@NullPmd@@AAEXPAV12@@Z	; NullPmd::request::InternalSwap
PUBLIC	?GetMetadata@request@NullPmd@@UBE?AUMetadata@protobuf@google@@XZ ; NullPmd::request::GetMetadata
PUBLIC	??_Grequest@NullPmd@@UAEPAXI@Z			; NullPmd::request::`scalar deleting destructor'
PUBLIC	??0response@NullPmd@@QAE@XZ			; NullPmd::response::response
PUBLIC	??1response@NullPmd@@UAE@XZ			; NullPmd::response::~response
PUBLIC	??0response@NullPmd@@QAE@ABV01@@Z		; NullPmd::response::response
PUBLIC	?descriptor@response@NullPmd@@SAPBVDescriptor@protobuf@google@@XZ ; NullPmd::response::descriptor
PUBLIC	?default_instance@response@NullPmd@@SAABV12@XZ	; NullPmd::response::default_instance
PUBLIC	?Swap@response@NullPmd@@QAEXPAV12@@Z		; NullPmd::response::Swap
PUBLIC	?New@response@NullPmd@@UBEPAV12@XZ		; NullPmd::response::New
PUBLIC	?New@response@NullPmd@@UBEPAV12@PAVArena@protobuf@google@@@Z ; NullPmd::response::New
PUBLIC	?CopyFrom@response@NullPmd@@UAEXABVMessage@protobuf@google@@@Z ; NullPmd::response::CopyFrom
PUBLIC	?MergeFrom@response@NullPmd@@UAEXABVMessage@protobuf@google@@@Z ; NullPmd::response::MergeFrom
PUBLIC	?CopyFrom@response@NullPmd@@QAEXABV12@@Z	; NullPmd::response::CopyFrom
PUBLIC	?MergeFrom@response@NullPmd@@QAEXABV12@@Z	; NullPmd::response::MergeFrom
PUBLIC	?Clear@response@NullPmd@@UAEXXZ			; NullPmd::response::Clear
PUBLIC	?IsInitialized@response@NullPmd@@UBE_NXZ	; NullPmd::response::IsInitialized
PUBLIC	?ByteSizeLong@response@NullPmd@@UBEIXZ		; NullPmd::response::ByteSizeLong
PUBLIC	?MergePartialFromCodedStream@response@NullPmd@@UAE_NPAVCodedInputStream@io@protobuf@google@@@Z ; NullPmd::response::MergePartialFromCodedStream
PUBLIC	?SerializeWithCachedSizes@response@NullPmd@@UBEXPAVCodedOutputStream@io@protobuf@google@@@Z ; NullPmd::response::SerializeWithCachedSizes
PUBLIC	?InternalSerializeWithCachedSizesToArray@response@NullPmd@@UBEPAE_NPAE@Z ; NullPmd::response::InternalSerializeWithCachedSizesToArray
PUBLIC	?SerializeWithCachedSizesToArray@response@NullPmd@@UBEPAEPAE@Z ; NullPmd::response::SerializeWithCachedSizesToArray
PUBLIC	?GetCachedSize@response@NullPmd@@UBEHXZ		; NullPmd::response::GetCachedSize
PUBLIC	?SharedCtor@response@NullPmd@@AAEXXZ		; NullPmd::response::SharedCtor
PUBLIC	?SharedDtor@response@NullPmd@@AAEXXZ		; NullPmd::response::SharedDtor
PUBLIC	?SetCachedSize@response@NullPmd@@EBEXH@Z	; NullPmd::response::SetCachedSize
PUBLIC	?InternalSwap@response@NullPmd@@AAEXPAV12@@Z	; NullPmd::response::InternalSwap
PUBLIC	?GetMetadata@response@NullPmd@@UBE?AUMetadata@protobuf@google@@XZ ; NullPmd::response::GetMetadata
PUBLIC	??_Gresponse@NullPmd@@UAEPAXI@Z			; NullPmd::response::`scalar deleting destructor'
PUBLIC	??0indication@NullPmd@@QAE@XZ			; NullPmd::indication::indication
PUBLIC	??1indication@NullPmd@@UAE@XZ			; NullPmd::indication::~indication
PUBLIC	??0indication@NullPmd@@QAE@ABV01@@Z		; NullPmd::indication::indication
PUBLIC	?descriptor@indication@NullPmd@@SAPBVDescriptor@protobuf@google@@XZ ; NullPmd::indication::descriptor
PUBLIC	?default_instance@indication@NullPmd@@SAABV12@XZ ; NullPmd::indication::default_instance
PUBLIC	?Swap@indication@NullPmd@@QAEXPAV12@@Z		; NullPmd::indication::Swap
PUBLIC	?New@indication@NullPmd@@UBEPAV12@XZ		; NullPmd::indication::New
PUBLIC	?New@indication@NullPmd@@UBEPAV12@PAVArena@protobuf@google@@@Z ; NullPmd::indication::New
PUBLIC	?CopyFrom@indication@NullPmd@@UAEXABVMessage@protobuf@google@@@Z ; NullPmd::indication::CopyFrom
PUBLIC	?MergeFrom@indication@NullPmd@@UAEXABVMessage@protobuf@google@@@Z ; NullPmd::indication::MergeFrom
PUBLIC	?CopyFrom@indication@NullPmd@@QAEXABV12@@Z	; NullPmd::indication::CopyFrom
PUBLIC	?MergeFrom@indication@NullPmd@@QAEXABV12@@Z	; NullPmd::indication::MergeFrom
PUBLIC	?Clear@indication@NullPmd@@UAEXXZ		; NullPmd::indication::Clear
PUBLIC	?IsInitialized@indication@NullPmd@@UBE_NXZ	; NullPmd::indication::IsInitialized
PUBLIC	?ByteSizeLong@indication@NullPmd@@UBEIXZ	; NullPmd::indication::ByteSizeLong
PUBLIC	?MergePartialFromCodedStream@indication@NullPmd@@UAE_NPAVCodedInputStream@io@protobuf@google@@@Z ; NullPmd::indication::MergePartialFromCodedStream
PUBLIC	?SerializeWithCachedSizes@indication@NullPmd@@UBEXPAVCodedOutputStream@io@protobuf@google@@@Z ; NullPmd::indication::SerializeWithCachedSizes
PUBLIC	?InternalSerializeWithCachedSizesToArray@indication@NullPmd@@UBEPAE_NPAE@Z ; NullPmd::indication::InternalSerializeWithCachedSizesToArray
PUBLIC	?SerializeWithCachedSizesToArray@indication@NullPmd@@UBEPAEPAE@Z ; NullPmd::indication::SerializeWithCachedSizesToArray
PUBLIC	?GetCachedSize@indication@NullPmd@@UBEHXZ	; NullPmd::indication::GetCachedSize
PUBLIC	?SharedCtor@indication@NullPmd@@AAEXXZ		; NullPmd::indication::SharedCtor
PUBLIC	?SharedDtor@indication@NullPmd@@AAEXXZ		; NullPmd::indication::SharedDtor
PUBLIC	?SetCachedSize@indication@NullPmd@@EBEXH@Z	; NullPmd::indication::SetCachedSize
PUBLIC	?InternalSwap@indication@NullPmd@@AAEXPAV12@@Z	; NullPmd::indication::InternalSwap
PUBLIC	?GetMetadata@indication@NullPmd@@UBE?AUMetadata@protobuf@google@@XZ ; NullPmd::indication::GetMetadata
PUBLIC	??_Gindication@NullPmd@@UAEPAXI@Z		; NullPmd::indication::`scalar deleting destructor'
PUBLIC	??0command@NullPmd@@QAE@XZ			; NullPmd::command::command
PUBLIC	??1command@NullPmd@@UAE@XZ			; NullPmd::command::~command
PUBLIC	??0command@NullPmd@@QAE@ABV01@@Z		; NullPmd::command::command
PUBLIC	?descriptor@command@NullPmd@@SAPBVDescriptor@protobuf@google@@XZ ; NullPmd::command::descriptor
PUBLIC	?default_instance@command@NullPmd@@SAABV12@XZ	; NullPmd::command::default_instance
PUBLIC	?Swap@command@NullPmd@@QAEXPAV12@@Z		; NullPmd::command::Swap
PUBLIC	?New@command@NullPmd@@UBEPAV12@XZ		; NullPmd::command::New
PUBLIC	?New@command@NullPmd@@UBEPAV12@PAVArena@protobuf@google@@@Z ; NullPmd::command::New
PUBLIC	?CopyFrom@command@NullPmd@@UAEXABVMessage@protobuf@google@@@Z ; NullPmd::command::CopyFrom
PUBLIC	?MergeFrom@command@NullPmd@@UAEXABVMessage@protobuf@google@@@Z ; NullPmd::command::MergeFrom
PUBLIC	?CopyFrom@command@NullPmd@@QAEXABV12@@Z		; NullPmd::command::CopyFrom
PUBLIC	?MergeFrom@command@NullPmd@@QAEXABV12@@Z	; NullPmd::command::MergeFrom
PUBLIC	?Clear@command@NullPmd@@UAEXXZ			; NullPmd::command::Clear
PUBLIC	?IsInitialized@command@NullPmd@@UBE_NXZ		; NullPmd::command::IsInitialized
PUBLIC	?ByteSizeLong@command@NullPmd@@UBEIXZ		; NullPmd::command::ByteSizeLong
PUBLIC	?MergePartialFromCodedStream@command@NullPmd@@UAE_NPAVCodedInputStream@io@protobuf@google@@@Z ; NullPmd::command::MergePartialFromCodedStream
PUBLIC	?SerializeWithCachedSizes@command@NullPmd@@UBEXPAVCodedOutputStream@io@protobuf@google@@@Z ; NullPmd::command::SerializeWithCachedSizes
PUBLIC	?InternalSerializeWithCachedSizesToArray@command@NullPmd@@UBEPAE_NPAE@Z ; NullPmd::command::InternalSerializeWithCachedSizesToArray
PUBLIC	?SerializeWithCachedSizesToArray@command@NullPmd@@UBEPAEPAE@Z ; NullPmd::command::SerializeWithCachedSizesToArray
PUBLIC	?GetCachedSize@command@NullPmd@@UBEHXZ		; NullPmd::command::GetCachedSize
PUBLIC	?SharedCtor@command@NullPmd@@AAEXXZ		; NullPmd::command::SharedCtor
PUBLIC	?SharedDtor@command@NullPmd@@AAEXXZ		; NullPmd::command::SharedDtor
PUBLIC	?SetCachedSize@command@NullPmd@@EBEXH@Z		; NullPmd::command::SetCachedSize
PUBLIC	?InternalSwap@command@NullPmd@@AAEXPAV12@@Z	; NullPmd::command::InternalSwap
PUBLIC	?GetMetadata@command@NullPmd@@UBE?AUMetadata@protobuf@google@@XZ ; NullPmd::command::GetMetadata
PUBLIC	??_Gcommand@NullPmd@@UAEPAXI@Z			; NullPmd::command::`scalar deleting destructor'
PUBLIC	??0info@NullPmd@@QAE@XZ				; NullPmd::info::info
PUBLIC	??1info@NullPmd@@UAE@XZ				; NullPmd::info::~info
PUBLIC	??0info@NullPmd@@QAE@ABV01@@Z			; NullPmd::info::info
PUBLIC	?descriptor@info@NullPmd@@SAPBVDescriptor@protobuf@google@@XZ ; NullPmd::info::descriptor
PUBLIC	?default_instance@info@NullPmd@@SAABV12@XZ	; NullPmd::info::default_instance
PUBLIC	?Swap@info@NullPmd@@QAEXPAV12@@Z		; NullPmd::info::Swap
PUBLIC	?New@info@NullPmd@@UBEPAV12@XZ			; NullPmd::info::New
PUBLIC	?New@info@NullPmd@@UBEPAV12@PAVArena@protobuf@google@@@Z ; NullPmd::info::New
PUBLIC	?CopyFrom@info@NullPmd@@UAEXABVMessage@protobuf@google@@@Z ; NullPmd::info::CopyFrom
PUBLIC	?MergeFrom@info@NullPmd@@UAEXABVMessage@protobuf@google@@@Z ; NullPmd::info::MergeFrom
PUBLIC	?CopyFrom@info@NullPmd@@QAEXABV12@@Z		; NullPmd::info::CopyFrom
PUBLIC	?MergeFrom@info@NullPmd@@QAEXABV12@@Z		; NullPmd::info::MergeFrom
PUBLIC	?Clear@info@NullPmd@@UAEXXZ			; NullPmd::info::Clear
PUBLIC	?IsInitialized@info@NullPmd@@UBE_NXZ		; NullPmd::info::IsInitialized
PUBLIC	?ByteSizeLong@info@NullPmd@@UBEIXZ		; NullPmd::info::ByteSizeLong
PUBLIC	?MergePartialFromCodedStream@info@NullPmd@@UAE_NPAVCodedInputStream@io@protobuf@google@@@Z ; NullPmd::info::MergePartialFromCodedStream
PUBLIC	?SerializeWithCachedSizes@info@NullPmd@@UBEXPAVCodedOutputStream@io@protobuf@google@@@Z ; NullPmd::info::SerializeWithCachedSizes
PUBLIC	?InternalSerializeWithCachedSizesToArray@info@NullPmd@@UBEPAE_NPAE@Z ; NullPmd::info::InternalSerializeWithCachedSizesToArray
PUBLIC	?SerializeWithCachedSizesToArray@info@NullPmd@@UBEPAEPAE@Z ; NullPmd::info::SerializeWithCachedSizesToArray
PUBLIC	?GetCachedSize@info@NullPmd@@UBEHXZ		; NullPmd::info::GetCachedSize
PUBLIC	?SharedCtor@info@NullPmd@@AAEXXZ		; NullPmd::info::SharedCtor
PUBLIC	?SharedDtor@info@NullPmd@@AAEXXZ		; NullPmd::info::SharedDtor
PUBLIC	?SetCachedSize@info@NullPmd@@EBEXH@Z		; NullPmd::info::SetCachedSize
PUBLIC	?InternalSwap@info@NullPmd@@AAEXPAV12@@Z	; NullPmd::info::InternalSwap
PUBLIC	?GetMetadata@info@NullPmd@@UBE?AUMetadata@protobuf@google@@XZ ; NullPmd::info::GetMetadata
PUBLIC	?cbdatakind@info@NullPmd@@QBE_KXZ		; NullPmd::info::cbdatakind
PUBLIC	??_Ginfo@NullPmd@@UAEPAXI@Z			; NullPmd::info::`scalar deleting destructor'
PUBLIC	??0head@NullPmd@@QAE@XZ				; NullPmd::head::head
PUBLIC	??1head@NullPmd@@UAE@XZ				; NullPmd::head::~head
PUBLIC	??0head@NullPmd@@QAE@ABV01@@Z			; NullPmd::head::head
PUBLIC	?descriptor@head@NullPmd@@SAPBVDescriptor@protobuf@google@@XZ ; NullPmd::head::descriptor
PUBLIC	?default_instance@head@NullPmd@@SAABV12@XZ	; NullPmd::head::default_instance
PUBLIC	?Swap@head@NullPmd@@QAEXPAV12@@Z		; NullPmd::head::Swap
PUBLIC	?New@head@NullPmd@@UBEPAV12@XZ			; NullPmd::head::New
PUBLIC	?New@head@NullPmd@@UBEPAV12@PAVArena@protobuf@google@@@Z ; NullPmd::head::New
PUBLIC	?CopyFrom@head@NullPmd@@UAEXABVMessage@protobuf@google@@@Z ; NullPmd::head::CopyFrom
PUBLIC	?MergeFrom@head@NullPmd@@UAEXABVMessage@protobuf@google@@@Z ; NullPmd::head::MergeFrom
PUBLIC	?CopyFrom@head@NullPmd@@QAEXABV12@@Z		; NullPmd::head::CopyFrom
PUBLIC	?MergeFrom@head@NullPmd@@QAEXABV12@@Z		; NullPmd::head::MergeFrom
PUBLIC	?Clear@head@NullPmd@@UAEXXZ			; NullPmd::head::Clear
PUBLIC	?IsInitialized@head@NullPmd@@UBE_NXZ		; NullPmd::head::IsInitialized
PUBLIC	?ByteSizeLong@head@NullPmd@@UBEIXZ		; NullPmd::head::ByteSizeLong
PUBLIC	?MergePartialFromCodedStream@head@NullPmd@@UAE_NPAVCodedInputStream@io@protobuf@google@@@Z ; NullPmd::head::MergePartialFromCodedStream
PUBLIC	?SerializeWithCachedSizes@head@NullPmd@@UBEXPAVCodedOutputStream@io@protobuf@google@@@Z ; NullPmd::head::SerializeWithCachedSizes
PUBLIC	?InternalSerializeWithCachedSizesToArray@head@NullPmd@@UBEPAE_NPAE@Z ; NullPmd::head::InternalSerializeWithCachedSizesToArray
PUBLIC	?SerializeWithCachedSizesToArray@head@NullPmd@@UBEPAEPAE@Z ; NullPmd::head::SerializeWithCachedSizesToArray
PUBLIC	?GetCachedSize@head@NullPmd@@UBEHXZ		; NullPmd::head::GetCachedSize
PUBLIC	?SharedCtor@head@NullPmd@@AAEXXZ		; NullPmd::head::SharedCtor
PUBLIC	?SharedDtor@head@NullPmd@@AAEXXZ		; NullPmd::head::SharedDtor
PUBLIC	?SetCachedSize@head@NullPmd@@EBEXH@Z		; NullPmd::head::SetCachedSize
PUBLIC	?InternalSwap@head@NullPmd@@AAEXPAV12@@Z	; NullPmd::head::InternalSwap
PUBLIC	?GetMetadata@head@NullPmd@@UBE?AUMetadata@protobuf@google@@XZ ; NullPmd::head::GetMetadata
PUBLIC	?mutable_command@head@NullPmd@@QAEPAVcommand@2@XZ ; NullPmd::head::mutable_command
PUBLIC	?mutable_info@head@NullPmd@@QAEPAVinfo@2@XZ	; NullPmd::head::mutable_info
PUBLIC	??_Ghead@NullPmd@@UAEPAXI@Z			; NullPmd::head::`scalar deleting destructor'
PUBLIC	??0message@NullPmd@@QAE@XZ			; NullPmd::message::message
PUBLIC	??1message@NullPmd@@UAE@XZ			; NullPmd::message::~message
PUBLIC	??0message@NullPmd@@QAE@ABV01@@Z		; NullPmd::message::message
PUBLIC	?descriptor@message@NullPmd@@SAPBVDescriptor@protobuf@google@@XZ ; NullPmd::message::descriptor
PUBLIC	?default_instance@message@NullPmd@@SAABV12@XZ	; NullPmd::message::default_instance
PUBLIC	?Swap@message@NullPmd@@QAEXPAV12@@Z		; NullPmd::message::Swap
PUBLIC	?New@message@NullPmd@@UBEPAV12@XZ		; NullPmd::message::New
PUBLIC	?New@message@NullPmd@@UBEPAV12@PAVArena@protobuf@google@@@Z ; NullPmd::message::New
PUBLIC	?CopyFrom@message@NullPmd@@UAEXABVMessage@protobuf@google@@@Z ; NullPmd::message::CopyFrom
PUBLIC	?MergeFrom@message@NullPmd@@UAEXABVMessage@protobuf@google@@@Z ; NullPmd::message::MergeFrom
PUBLIC	?CopyFrom@message@NullPmd@@QAEXABV12@@Z		; NullPmd::message::CopyFrom
PUBLIC	?MergeFrom@message@NullPmd@@QAEXABV12@@Z	; NullPmd::message::MergeFrom
PUBLIC	?Clear@message@NullPmd@@UAEXXZ			; NullPmd::message::Clear
PUBLIC	?IsInitialized@message@NullPmd@@UBE_NXZ		; NullPmd::message::IsInitialized
PUBLIC	?ByteSizeLong@message@NullPmd@@UBEIXZ		; NullPmd::message::ByteSizeLong
PUBLIC	?MergePartialFromCodedStream@message@NullPmd@@UAE_NPAVCodedInputStream@io@protobuf@google@@@Z ; NullPmd::message::MergePartialFromCodedStream
PUBLIC	?SerializeWithCachedSizes@message@NullPmd@@UBEXPAVCodedOutputStream@io@protobuf@google@@@Z ; NullPmd::message::SerializeWithCachedSizes
PUBLIC	?InternalSerializeWithCachedSizesToArray@message@NullPmd@@UBEPAE_NPAE@Z ; NullPmd::message::InternalSerializeWithCachedSizesToArray
PUBLIC	?SerializeWithCachedSizesToArray@message@NullPmd@@UBEPAEPAE@Z ; NullPmd::message::SerializeWithCachedSizesToArray
PUBLIC	?GetCachedSize@message@NullPmd@@UBEHXZ		; NullPmd::message::GetCachedSize
PUBLIC	?SharedCtor@message@NullPmd@@AAEXXZ		; NullPmd::message::SharedCtor
PUBLIC	?SharedDtor@message@NullPmd@@AAEXXZ		; NullPmd::message::SharedDtor
PUBLIC	?SetCachedSize@message@NullPmd@@EBEXH@Z		; NullPmd::message::SetCachedSize
PUBLIC	?InternalSwap@message@NullPmd@@AAEXPAV12@@Z	; NullPmd::message::InternalSwap
PUBLIC	?GetMetadata@message@NullPmd@@UBE?AUMetadata@protobuf@google@@XZ ; NullPmd::message::GetMetadata
PUBLIC	?set_data@message@NullPmd@@QAEXPBD@Z		; NullPmd::message::set_data
PUBLIC	?mutable_head@message@NullPmd@@QAEPAVhead@2@XZ	; NullPmd::message::mutable_head
PUBLIC	??_Gmessage@NullPmd@@UAEPAXI@Z			; NullPmd::message::`scalar deleting destructor'
PUBLIC	?WriteInt32ToArray@WireFormatLite@internal@protobuf@google@@SAPAEHHPAE@Z ; google::protobuf::internal::WireFormatLite::WriteInt32ToArray
PUBLIC	?WriteUInt64ToArray@WireFormatLite@internal@protobuf@google@@SAPAEH_KPAE@Z ; google::protobuf::internal::WireFormatLite::WriteUInt64ToArray
PUBLIC	?StringSize@WireFormatLite@internal@protobuf@google@@SAIABV?$basic_string@DU?$char_traits@D@std@@V?$allocator@D@2@@std@@@Z ; google::protobuf::internal::WireFormatLite::StringSize
PUBLIC	?BytesSize@WireFormatLite@internal@protobuf@google@@SAIABV?$basic_string@DU?$char_traits@D@std@@V?$allocator@D@2@@std@@@Z ; google::protobuf::internal::WireFormatLite::BytesSize
PUBLIC	?AddDescriptorsImpl@protobuf_NullPmd_2eproto@NullPmd@@YAXXZ ; NullPmd::protobuf_NullPmd_2eproto::AddDescriptorsImpl
PUBLIC	??$Own@Vrequest@NullPmd@@@Arena@protobuf@google@@QAEXPAVrequest@NullPmd@@@Z ; google::protobuf::Arena::Own<NullPmd::request>
PUBLIC	??$DynamicCastToGenerated@$$CBVrequest@NullPmd@@@internal@protobuf@google@@YAPBVrequest@NullPmd@@PBVMessage@12@@Z ; google::protobuf::internal::DynamicCastToGenerated<NullPmd::request const >
PUBLIC	??$Own@Vresponse@NullPmd@@@Arena@protobuf@google@@QAEXPAVresponse@NullPmd@@@Z ; google::protobuf::Arena::Own<NullPmd::response>
PUBLIC	??$DynamicCastToGenerated@$$CBVresponse@NullPmd@@@internal@protobuf@google@@YAPBVresponse@NullPmd@@PBVMessage@12@@Z ; google::protobuf::internal::DynamicCastToGenerated<NullPmd::response const >
PUBLIC	??$Own@Vindication@NullPmd@@@Arena@protobuf@google@@QAEXPAVindication@NullPmd@@@Z ; google::protobuf::Arena::Own<NullPmd::indication>
PUBLIC	??$DynamicCastToGenerated@$$CBVindication@NullPmd@@@internal@protobuf@google@@YAPBVindication@NullPmd@@PBVMessage@12@@Z ; google::protobuf::internal::DynamicCastToGenerated<NullPmd::indication const >
PUBLIC	??$Own@Vcommand@NullPmd@@@Arena@protobuf@google@@QAEXPAVcommand@NullPmd@@@Z ; google::protobuf::Arena::Own<NullPmd::command>
PUBLIC	??$DynamicCastToGenerated@$$CBVcommand@NullPmd@@@internal@protobuf@google@@YAPBVcommand@NullPmd@@PBVMessage@12@@Z ; google::protobuf::internal::DynamicCastToGenerated<NullPmd::command const >
PUBLIC	??$Own@Vinfo@NullPmd@@@Arena@protobuf@google@@QAEXPAVinfo@NullPmd@@@Z ; google::protobuf::Arena::Own<NullPmd::info>
PUBLIC	??$DynamicCastToGenerated@$$CBVinfo@NullPmd@@@internal@protobuf@google@@YAPBVinfo@NullPmd@@PBVMessage@12@@Z ; google::protobuf::internal::DynamicCastToGenerated<NullPmd::info const >
PUBLIC	??$Own@Vhead@NullPmd@@@Arena@protobuf@google@@QAEXPAVhead@NullPmd@@@Z ; google::protobuf::Arena::Own<NullPmd::head>
PUBLIC	??$ReadMessageNoVirtual@Vcommand@NullPmd@@@WireFormatLite@internal@protobuf@google@@SA_NPAVCodedInputStream@io@23@PAVcommand@NullPmd@@@Z ; google::protobuf::internal::WireFormatLite::ReadMessageNoVirtual<NullPmd::command>
PUBLIC	??$ReadMessageNoVirtual@Vinfo@NullPmd@@@WireFormatLite@internal@protobuf@google@@SA_NPAVCodedInputStream@io@23@PAVinfo@NullPmd@@@Z ; google::protobuf::internal::WireFormatLite::ReadMessageNoVirtual<NullPmd::info>
PUBLIC	??$InternalWriteMessageNoVirtualToArray@Vcommand@NullPmd@@@WireFormatLite@internal@protobuf@google@@SAPAEHABVcommand@NullPmd@@_NPAE@Z ; google::protobuf::internal::WireFormatLite::InternalWriteMessageNoVirtualToArray<NullPmd::command>
PUBLIC	??$InternalWriteMessageNoVirtualToArray@Vinfo@NullPmd@@@WireFormatLite@internal@protobuf@google@@SAPAEHABVinfo@NullPmd@@_NPAE@Z ; google::protobuf::internal::WireFormatLite::InternalWriteMessageNoVirtualToArray<NullPmd::info>
PUBLIC	??$DynamicCastToGenerated@$$CBVhead@NullPmd@@@internal@protobuf@google@@YAPBVhead@NullPmd@@PBVMessage@12@@Z ; google::protobuf::internal::DynamicCastToGenerated<NullPmd::head const >
PUBLIC	??$Own@Vmessage@NullPmd@@@Arena@protobuf@google@@QAEXPAVmessage@NullPmd@@@Z ; google::protobuf::Arena::Own<NullPmd::message>
PUBLIC	??$ReadMessageNoVirtual@Vhead@NullPmd@@@WireFormatLite@internal@protobuf@google@@SA_NPAVCodedInputStream@io@23@PAVhead@NullPmd@@@Z ; google::protobuf::internal::WireFormatLite::ReadMessageNoVirtual<NullPmd::head>
PUBLIC	??$InternalWriteMessageNoVirtualToArray@Vhead@NullPmd@@@WireFormatLite@internal@protobuf@google@@SAPAEHABVhead@NullPmd@@_NPAE@Z ; google::protobuf::internal::WireFormatLite::InternalWriteMessageNoVirtualToArray<NullPmd::head>
PUBLIC	??$DynamicCastToGenerated@$$CBVmessage@NullPmd@@@internal@protobuf@google@@YAPBVmessage@NullPmd@@PBVMessage@12@@Z ; google::protobuf::internal::DynamicCastToGenerated<NullPmd::message const >
PUBLIC	??1?$shared_ptr@D@std@@QAE@XZ			; std::shared_ptr<char>::~shared_ptr<char>
PUBLIC	_CreateTCPNetworkEngine
PUBLIC	??$_Debug_lt_pred@ABUstring_cmp_nocase@base@zl@@ABV?$basic_string@DU?$char_traits@D@std@@V?$allocator@D@2@@std@@ABV45@@std@@YA_NABUstring_cmp_nocase@base@zl@@ABV?$basic_string@DU?$char_traits@D@std@@V?$allocator@D@2@@0@1@Z ; std::_Debug_lt_pred<zl::base::string_cmp_nocase const &,std::basic_string<char,std::char_traits<char>,std::allocator<char> > const &,std::basic_string<char,std::char_traits<char>,std::allocator<char> > const &>
PUBLIC	??0?$_Tree_iterator@V?$_Tree_val@U?$_Tree_simple_types@U?$pair@$$CBV?$basic_string@DU?$char_traits@D@std@@V?$allocator@D@2@@std@@V12@@std@@@std@@@std@@@std@@QAE@PAU?$_Tree_node@U?$pair@$$CBV?$basic_string@DU?$char_traits@D@std@@V?$allocator@D@2@@std@@V12@@std@@PAX@1@PBV?$_Tree_val@U?$_Tree_simple_types@U?$pair@$$CBV?$basic_string@DU?$char_traits@D@std@@V?$allocator@D@2@@std@@V12@@std@@@std@@@1@@Z ; std::_Tree_iterator<std::_Tree_val<std::_Tree_simple_types<std::pair<std::basic_string<char,std::char_traits<char>,std::allocator<char> > const ,std::basic_string<char,std::char_traits<char>,std::allocator<char> > > > > >::_Tree_iterator<std::_Tree_val<std::_Tree_simple_types<std::pair<std::basic_string<char,std::char_traits<char>,std::allocator<char> > const ,std::basic_string<char,std::char_traits<char>,std::allocator<char> > > > > >
PUBLIC	??1?$_Tree_iterator@V?$_Tree_val@U?$_Tree_simple_types@U?$pair@$$CBV?$basic_string@DU?$char_traits@D@std@@V?$allocator@D@2@@std@@V12@@std@@@std@@@std@@@std@@QAE@XZ ; std::_Tree_iterator<std::_Tree_val<std::_Tree_simple_types<std::pair<std::basic_string<char,std::char_traits<char>,std::allocator<char> > const ,std::basic_string<char,std::char_traits<char>,std::allocator<char> > > > > >::~_Tree_iterator<std::_Tree_val<std::_Tree_simple_types<std::pair<std::basic_string<char,std::char_traits<char>,std::allocator<char> > const ,std::basic_string<char,std::char_traits<char>,std::allocator<char> > > > > >
PUBLIC	??$_Resize@V<lambda_c82d6fc6887df3275822341e5972f698>@@@?$vector@DV?$allocator@D@std@@@std@@AAEXIV<lambda_c82d6fc6887df3275822341e5972f698>@@@Z ; std::vector<char,std::allocator<char> >::_Resize<<lambda_c82d6fc6887df3275822341e5972f698> >
PUBLIC	??$?0ABV?$allocator@D@std@@X@?$_Vector_alloc@U?$_Vec_base_types@DV?$allocator@D@std@@@std@@@std@@QAE@ABV?$allocator@D@1@@Z ; std::_Vector_alloc<std::_Vec_base_types<char,std::allocator<char> > >::_Vector_alloc<std::_Vec_base_types<char,std::allocator<char> > ><std::allocator<char> const &,void>
PUBLIC	??$_Reallocate_for@V<lambda_9366063389c5f42a00a5088cf24e69de>@@PBD@?$basic_string@DU?$char_traits@D@std@@V?$allocator@D@2@@std@@QAEAAV01@IV<lambda_9366063389c5f42a00a5088cf24e69de>@@PBD@Z ; std::basic_string<char,std::char_traits<char>,std::allocator<char> >::_Reallocate_for<<lambda_9366063389c5f42a00a5088cf24e69de>,char const *>
PUBLIC	??$?0V?$allocator@D@std@@X@?$_String_alloc@U?$_String_base_types@DV?$allocator@D@std@@@std@@@std@@QAE@$$QAV?$allocator@D@1@@Z ; std::_String_alloc<std::_String_base_types<char,std::allocator<char> > >::_String_alloc<std::_String_base_types<char,std::allocator<char> > ><std::allocator<char>,void>
PUBLIC	??$Create@UContainer@?$InternalMetadataWithArenaBase@VUnknownFieldSet@protobuf@google@@VInternalMetadataWithArena@internal@23@@internal@protobuf@google@@@Arena@protobuf@google@@SAPAUContainer@?$InternalMetadataWithArenaBase@VUnknownFieldSet@protobuf@google@@VInternalMetadataWithArena@internal@23@@internal@12@PAV012@@Z ; google::protobuf::Arena::Create<google::protobuf::internal::InternalMetadataWithArenaBase<google::protobuf::UnknownFieldSet,google::protobuf::internal::InternalMetadataWithArena>::Container>
PUBLIC	??$_Lbound@V?$basic_string@DU?$char_traits@D@std@@V?$allocator@D@2@@std@@@?$_Tree@V?$_Tmap_traits@V?$basic_string@DU?$char_traits@D@std@@V?$allocator@D@2@@std@@V12@Ustring_cmp_nocase@base@zl@@V?$allocator@U?$pair@$$CBV?$basic_string@DU?$char_traits@D@std@@V?$allocator@D@2@@std@@V12@@std@@@2@$0A@@std@@@std@@IBEPAU?$_Tree_node@U?$pair@$$CBV?$basic_string@DU?$char_traits@D@std@@V?$allocator@D@2@@std@@V12@@std@@PAX@1@ABV?$basic_string@DU?$char_traits@D@std@@V?$allocator@D@2@@1@@Z ; std::_Tree<std::_Tmap_traits<std::basic_string<char,std::char_traits<char>,std::allocator<char> >,std::basic_string<char,std::char_traits<char>,std::allocator<char> >,zl::base::string_cmp_nocase,std::allocator<std::pair<std::basic_string<char,std::char_traits<char>,std::allocator<char> > const ,std::basic_string<char,std::char_traits<char>,std::allocator<char> > > >,0> >::_Lbound<std::basic_string<char,std::char_traits<char>,std::allocator<char> > >
PUBLIC	??$_Freenode0@V?$allocator@U?$_Tree_node@U?$pair@$$CBV?$basic_string@DU?$char_traits@D@std@@V?$allocator@D@2@@std@@V12@@std@@PAX@std@@@std@@@?$_Tree_node@U?$pair@$$CBV?$basic_string@DU?$char_traits@D@std@@V?$allocator@D@2@@std@@V12@@std@@PAX@std@@SAXAAV?$allocator@U?$_Tree_node@U?$pair@$$CBV?$basic_string@DU?$char_traits@D@std@@V?$allocator@D@2@@std@@V12@@std@@PAX@std@@@1@PAU01@@Z ; std::_Tree_node<std::pair<std::basic_string<char,std::char_traits<char>,std::allocator<char> > const ,std::basic_string<char,std::char_traits<char>,std::allocator<char> > >,void *>::_Freenode0<std::allocator<std::_Tree_node<std::pair<std::basic_string<char,std::char_traits<char>,std::allocator<char> > const ,std::basic_string<char,std::char_traits<char>,std::allocator<char> > >,void *> > >
PUBLIC	?allocate@?$allocator@U_Container_proxy@std@@@std@@QAEPAU_Container_proxy@2@I@Z ; std::allocator<std::_Container_proxy>::allocate
PUBLIC	??$_Verify_range@D@std@@YAXQBD0@Z		; std::_Verify_range<char>
PUBLIC	??$_Maklocstr@D@std@@YAPADPBDPADABU_Cvtvec@@@Z	; std::_Maklocstr<char>
PUBLIC	??$_Setp@D@?$shared_ptr@D@std@@AAEXPADU?$integral_constant@_N$0A@@1@@Z ; std::shared_ptr<char>::_Setp<char>
PUBLIC	??$search@PADPBDU?$equal_to@X@std@@@std@@YAPADPADQADQBD2U?$equal_to@X@0@@Z ; std::search<char *,char const *,std::equal_to<void> >
PUBLIC	??$CreateInternal@UContainer@?$InternalMetadataWithArenaBase@VUnknownFieldSet@protobuf@google@@VInternalMetadataWithArena@internal@23@@internal@protobuf@google@@@Arena@protobuf@google@@AAEPAUContainer@?$InternalMetadataWithArenaBase@VUnknownFieldSet@protobuf@google@@VInternalMetadataWithArena@internal@23@@internal@12@_N@Z ; google::protobuf::Arena::CreateInternal<google::protobuf::internal::InternalMetadataWithArenaBase<google::protobuf::UnknownFieldSet,google::protobuf::internal::InternalMetadataWithArena>::Container>
PUBLIC	??$_Allocate_manually_vector_aligned@U_Default_allocate_traits@std@@@std@@YAPAXI@Z ; std::_Allocate_manually_vector_aligned<std::_Default_allocate_traits>
PUBLIC	??$_Uninitialized_move@PADPADV?$allocator@D@std@@@std@@YAPADQAD0PADAAV?$allocator@D@0@@Z ; std::_Uninitialized_move<char *,char *,std::allocator<char> >
PUBLIC	??$arena_delete_object@VMessage@protobuf@google@@@internal@protobuf@google@@YAXPAX@Z ; google::protobuf::internal::arena_delete_object<google::protobuf::Message>
PUBLIC	?_Destroy@?$_Ref_count@D@std@@EAEXXZ		; std::_Ref_count<char>::_Destroy
PUBLIC	?_Delete_this@?$_Ref_count@D@std@@EAEXXZ	; std::_Ref_count<char>::_Delete_this
PUBLIC	??_G?$_Ref_count@D@std@@UAEPAXI@Z		; std::_Ref_count<char>::`scalar deleting destructor'
PUBLIC	??$_Search_unchecked@PADPBDU?$equal_to@X@std@@@std@@YAPADPADQADQBD2U?$equal_to@X@0@Urandom_access_iterator_tag@0@4@Z ; std::_Search_unchecked<char *,char const *,std::equal_to<void> >
PUBLIC	??$arena_destruct_object@UContainer@?$InternalMetadataWithArenaBase@VUnknownFieldSet@protobuf@google@@VInternalMetadataWithArena@internal@23@@internal@protobuf@google@@@internal@protobuf@google@@YAXPAX@Z ; google::protobuf::internal::arena_destruct_object<google::protobuf::internal::InternalMetadataWithArenaBase<google::protobuf::UnknownFieldSet,google::protobuf::internal::InternalMetadataWithArena>::Container>
PUBLIC	??$_Enable_shared_from_this@DD@std@@YAXABV?$shared_ptr@D@0@PAD@Z ; std::_Enable_shared_from_this<char,char>
PUBLIC	??$_Enable_shared_from_this1@DD@std@@YAXABV?$shared_ptr@D@0@PADU?$integral_constant@_N$0A@@0@@Z ; std::_Enable_shared_from_this1<char,char>
PUBLIC	?Release@CTCPNetworkEngine@@W3AEXXZ		; [thunk]:CTCPNetworkEngine::Release`adjustor{4}'
PUBLIC	?QueryInterface@CTCPNetworkEngine@@W3AEPAXABU_GUID@@K@Z ; [thunk]:CTCPNetworkEngine::QueryInterface`adjustor{4}'
PUBLIC	?_OptionsStorage@?1??__local_stdio_printf_options@@9@4_KA ; `__local_stdio_printf_options'::`2'::_OptionsStorage
PUBLIC	?atlTraceException@ATL@@3V?$CTraceCategoryEx@$0CAAA@$0A@@1@A ; ATL::atlTraceException
PUBLIC	??_C@_00CNPNBAHC@@				; `string'
PUBLIC	??_C@_0BB@FCMFBGOM@invalid?5argument@		; `string'
PUBLIC	??_C@_02DKCKIIND@?$CFs@				; `string'
PUBLIC	??_C@_1CG@JNLFBNGN@?$AA?$CC?$AAi?$AAn?$AAv?$AAa?$AAl?$AAi?$AAd?$AA?5?$AAa?$AAr?$AAg?$AAu?$AAm?$AAe@ ; `string'
PUBLIC	??_C@_0BJ@LFDBABJJ@ITERATOR?5LIST?5CORRUPTED?$CB@ ; `string'
PUBLIC	??_C@_0GJ@EJIMBHLG@c?3?2program?5files?5?$CIx86?$CJ?2microsof@ ; `string'
PUBLIC	??_C@_1NC@FANNPLN@?$AAc?$AA?3?$AA?2?$AAp?$AAr?$AAo?$AAg?$AAr?$AAa?$AAm?$AA?5?$AAf?$AAi?$AAl?$AAe@ ; `string'
PUBLIC	??_C@_1EE@KLDMFDFL@?$AAs?$AAt?$AAd?$AA?3?$AA?3?$AA_?$AAI?$AAt?$AAe?$AAr?$AAa?$AAt?$AAo?$AAr?$AA_@ ; `string'
PUBLIC	??_C@_1DG@PLBPCAEM@?$AA?$CC?$AAI?$AAT?$AAE?$AAR?$AAA?$AAT?$AAO?$AAR?$AA?5?$AAL?$AAI?$AAS?$AAT?$AA?5@ ; `string'
PUBLIC	??_C@_0GJ@FFDBCFBF@c?3?2program?5files?5?$CIx86?$CJ?2microsof@ ; `string'
PUBLIC	??_C@_1NC@PIOGAKBO@?$AAc?$AA?3?$AA?2?$AAp?$AAr?$AAo?$AAg?$AAr?$AAa?$AAm?$AA?5?$AAf?$AAi?$AAl?$AAe@ ; `string'
PUBLIC	??_C@_1EK@NIFDJFDG@?$AAs?$AAt?$AAd?$AA?3?$AA?3?$AA_?$AAA?$AAd?$AAj?$AAu?$AAs?$AAt?$AA_?$AAm?$AAa@ ; `string'
PUBLIC	??_C@_0GI@LKBGDILM@c?3?2program?5files?5?$CIx86?$CJ?2microsof@ ; `string'
PUBLIC	??_C@_0GI@DJFLDKBN@c?3?2program?5files?5?$CIx86?$CJ?2microsof@ ; `string'
PUBLIC	??_7IUnknownEx@@6B@				; IUnknownEx::`vftable'
PUBLIC	??_7IServiceModule@@6B@				; IServiceModule::`vftable'
PUBLIC	??_7IAsynchronismEngineSink@@6B@		; IAsynchronismEngineSink::`vftable'
PUBLIC	??_7ITCPNetworkEngine@@6B@			; ITCPNetworkEngine::`vftable'
PUBLIC	??_C@_0BC@DFHBMDHG@Sec?9WebSocket?9Key@		; `string'
PUBLIC	??_C@_0BH@JBAMIGCM@Sec?9WebSocket?9Protocol@	; `string'
PUBLIC	??_C@_1HK@JAGCKFE@?$AAg?$AA?3?$AA?2?$AAQ?$PP?P?$AA?2?$AAh?$AAa?$AAp?$AAp?$AAy?$AAg?$AAa?$AAm?$AAe@ ; `string'
PUBLIC	??_C@_1CK@HLKMELIP@?$AAr?$AAe?$AAa?$AAd?$AAa?$AAb?$AAl?$AAe?$AAB?$AAy?$AAt?$AAe?$AAs?$AA?$CI?$AA?$CJ@ ; `string'
PUBLIC	??_C@_1EA@MNNKLKHL@?$AAw?$AAr?$AAi?$AAt?$AAa?$AAb?$AAl?$AAe?$AAB?$AAy?$AAt?$AAe?$AAs?$AA?$CI?$AA?$CJ@ ; `string'
PUBLIC	??_C@_1EI@GKCFLMIJ@?$AAp?$AAr?$AAe?$AAp?$AAe?$AAn?$AAd?$AAa?$AAb?$AAl?$AAe?$AAB?$AAy?$AAt?$AAe@ ; `string'
PUBLIC	??_C@_1CO@EOJCKDIM@?$AAw?$AAr?$AAi?$AAt?$AAa?$AAb?$AAl?$AAe?$AAB?$AAy?$AAt?$AAe?$AAs?$AA?$CI?$AA?$CJ@ ; `string'
PUBLIC	??_C@_1CO@OAPHHNA@?$AAl?$AAe?$AAn?$AA?5?$AA?$DM?$AA?$DN?$AA?5?$AAw?$AAr?$AAi?$AAt?$AAa?$AAb?$AAl?$AAe@ ; `string'
PUBLIC	??_C@_1DK@JBKPABMM@?$AAk?$AAC?$AAh?$AAe?$AAa?$AAp?$AAP?$AAr?$AAe?$AAp?$AAe?$AAn?$AAd?$AA?5?$AA?$DM@ ; `string'
PUBLIC	??_C@_1DI@FLADJBMA@?$AAr?$AAe?$AAa?$AAd?$AAa?$AAb?$AAl?$AAe?$AA?5?$AA?$DN?$AA?$DN?$AA?5?$AAr?$AAe?$AAa@ ; `string'
PUBLIC	??_7ITCPNetworkItemSink@@6B@			; ITCPNetworkItemSink::`vftable'
PUBLIC	??_7COverLapped@@6B@				; COverLapped::`vftable'
PUBLIC	??_7COverLappedSend@@6B@			; COverLappedSend::`vftable'
PUBLIC	??_7COverLappedRecv@@6B@			; COverLappedRecv::`vftable'
PUBLIC	??_7?$CWHArray@PAVCOverLappedSend@@ABQAV1@@@6B@	; CWHArray<COverLappedSend *,COverLappedSend * const &>::`vftable'
PUBLIC	??_7CTCPNetworkItem@@6B@			; CTCPNetworkItem::`vftable'
PUBLIC	??_7CTCPNetworkThreadReadWrite@@6B@		; CTCPNetworkThreadReadWrite::`vftable'
PUBLIC	??_7CTCPNetworkThreadAccept@@6B@		; CTCPNetworkThreadAccept::`vftable'
PUBLIC	??_7CTCPNetworkThreadDetect@@6B@		; CTCPNetworkThreadDetect::`vftable'
PUBLIC	??_7?$CWHArray@PAVCTCPNetworkItem@@ABQAV1@@@6B@	; CWHArray<CTCPNetworkItem *,CTCPNetworkItem * const &>::`vftable'
PUBLIC	??_7?$CWHArray@PAVCTCPNetworkThreadReadWrite@@ABQAV1@@@6B@ ; CWHArray<CTCPNetworkThreadReadWrite *,CTCPNetworkThreadReadWrite * const &>::`vftable'
PUBLIC	??_7CTCPNetworkEngine@@6BITCPNetworkEngine@@@	; CTCPNetworkEngine::`vftable'
PUBLIC	??_7CTCPNetworkEngine@@6BIAsynchronismEngineSink@@@ ; CTCPNetworkEngine::`vftable'
PUBLIC	??_7CTCPNetworkEngine@@6BITCPNetworkItemSink@@@	; CTCPNetworkEngine::`vftable'
PUBLIC	??_7Closure@protobuf@google@@6B@		; google::protobuf::Closure::`vftable'
PUBLIC	??_7FunctionClosure0@internal@protobuf@google@@6B@ ; google::protobuf::internal::FunctionClosure0::`vftable'
PUBLIC	??_C@_0FL@GKGAFMDK@g?3?2?M?x?$LK?$PM?2?$LP?$KK?$LH?$KC?$LF?D?D?$KD?$LP?i?2?$LH?$PO?N?q?$LG?K?2?O?$LF?M?$LD?D@ ; `string'
PUBLIC	??_C@_0CG@ENGJCHJ@CHECK?5failed?3?5initial_value?5?$CB?$DN?5@ ; `string'
PUBLIC	??_7MessageLite@protobuf@google@@6B@		; google::protobuf::MessageLite::`vftable'
PUBLIC	??_C@_0FM@MGPCODI@g?3?2?M?x?$LK?$PM?2?$LP?$KK?$LH?$KC?$LF?D?D?$KD?$LP?i?2?$LH?$PO?N?q?$LG?K?2?O?$LF?M?$LD?D@ ; `string'
PUBLIC	??_C@_0DO@HCOJOCJH@CHECK?5failed?3?5?$CIresult?$CJ?5?$DM?$DN?5?$CIstat@ ; `string'
PUBLIC	??_7Message@protobuf@google@@6B@		; google::protobuf::Message::`vftable'
PUBLIC	??_7request@NullPmd@@6B@			; NullPmd::request::`vftable'
PUBLIC	??_7response@NullPmd@@6B@			; NullPmd::response::`vftable'
PUBLIC	??_7indication@NullPmd@@6B@			; NullPmd::indication::`vftable'
PUBLIC	??_7command@NullPmd@@6B@			; NullPmd::command::`vftable'
PUBLIC	??_7info@NullPmd@@6B@				; NullPmd::info::`vftable'
PUBLIC	??_7head@NullPmd@@6B@				; NullPmd::head::`vftable'
PUBLIC	??_7message@NullPmd@@6B@			; NullPmd::message::`vftable'
PUBLIC	??_C@_0O@PBNICMEM@NullPmd?4proto@		; `string'
PUBLIC	??_C@_0DO@IALFNHEB@g?3?2?M?x?$LK?$PM?2happygamewh?2?$LH?$PO?N?q?$LG?K?2?O?$LF?M?$LD@ ; `string'
PUBLIC	?static_descriptor_initializer@protobuf_NullPmd_2eproto@NullPmd@@3UStaticDescriptorInitializer@12@A ; NullPmd::protobuf_NullPmd_2eproto::static_descriptor_initializer
PUBLIC	??_C@_0CC@HENEHLPK@CHECK?5failed?3?5?$CI?$CGfrom?$CJ?5?$CB?$DN?5?$CIthis?$CJ@ ; `string'
PUBLIC	??_C@_0CC@NINJIOJL@NullPmd?4response?4errordescripti@ ; `string'
PUBLIC	??_C@_0EN@GEJOJCBK@g?3?2?M?x?$LK?$PM?2happygamewh?2?$LH?$PO?N?q?$LG?K?2?O?$LF?M?$LD@ ; `string'
PUBLIC	__TI2PAD
PUBLIC	__CTA2PAD
PUBLIC	??_R0PAD@8					; char * `RTTI Type Descriptor'
PUBLIC	__CT??_R0PAD@84
PUBLIC	??_R0PAX@8					; void * `RTTI Type Descriptor'
PUBLIC	__CT??_R0PAX@84
PUBLIC	??_C@_0L@JNDINJCC@?$LH?$KC?K?M?$LA?$PM?L?$KL?$LE?s@ ; `string'
PUBLIC	??_C@_0BA@LDGEJDBI@Serialize?5error@		; `string'
PUBLIC	??_C@_0BB@OELGDMNI@SendData?5?R?l?$LD?$KD?3?$CFs@ ; `string'
PUBLIC	??_C@_0O@LEAMMJHF@SendData?5?R?l?$LD?$KD@	; `string'
PUBLIC	??_C@_0CE@NEGGEINK@?J?$PN?$LO?$NN?N?$KK?$LP?U?3wMainCmdID?3?$CFd?0wSubCmdI@ ; `string'
PUBLIC	??_C@_0CJ@PPIPIEAL@?$LH?$KC?K?M?O?$PL?O?$KCpData?3wMainCmdID?3?$CFd?0wSu@ ; `string'
PUBLIC	??_C@_0BH@NLJMDLEL@SendData?5pData?5?R?l?$LD?$KD?3?$CFs@ ; `string'
PUBLIC	??_C@_0BE@BFBPJPAH@SendData?5pData?5?R?l?$LD?$KD@ ; `string'
PUBLIC	??_C@_04FMMHFHOO@?$AN?6?$AN?6@			; `string'
PUBLIC	??_C@_0P@IFKIJFDN@?J?$PN?$LO?$NN?$LA?$PM?$LD?$KE?$LG?H?L?$KL?$LD?$KE@ ; `string'
PUBLIC	??_C@_0CH@MKDFEHED@?J?$PN?$LO?$NN?$LA?$PM?$LD?$KE?$LG?H?L?$KL?$LG?L?5?$CFd?0?$CFd?0?$CFd?0?$CFd?0?$CFd?0?$CF@ ; `string'
PUBLIC	??_C@_0BM@LPKEJNLP@?$LA?$PM?$LD?$KE?5?$CFd?0?5?$LA?f?$LB?$LO?5?$CFd?0?5?P?$KH?Q?i?B?k?5?$CFd@ ; `string'
PUBLIC	??_C@_0P@COEHLGHJ@?J?$PN?$LO?$NN?$LA?$PM?$LD?$KE?$LG?H?L?$KL?$LG?L@ ; `string'
PUBLIC	??_C@_04OPBHEPOC@0x?$CFx@			; `string'
PUBLIC	??_C@_0BB@HMAHCNOL@?J?$PN?$LO?$NN?$LA?$PM?$LA?f?$LB?$LO?$LC?$LL?F?$KF?E?d@ ; `string'
PUBLIC	??_C@_0EE@ONNHHJGK@SocketEngine?5Index?$DN?$CFld?$KD?$KMRountID@ ; `string'
PUBLIC	??_C@_0EG@EEAELNCF@SocketEngine?5Index?$DN?$CFld?$KD?$KMRountID@ ; `string'
PUBLIC	??_C@_0BD@DINLBKIB@?J?$PN?$LO?$NN?$LA?$PM?$LN?b?C?$NM?$LD?$KE?$LG?H?$LE?m?N?s@ ; `string'
PUBLIC	??_C@_0BB@GKKJNMOA@?J?$PN?$LO?$NN?$LA?$PM?P?$KH?Q?i?B?k?$LE?m?N?s@ ; `string'
PUBLIC	??_C@_0DE@HPGDGIOK@error?0receive?5data?5len?5?$DO?5SOCKET@ ; `string'
PUBLIC	??_C@_0M@BJIBBOFC@parse?5error@			; `string'
PUBLIC	??_C@_0L@HPNHKCLL@?$LH?G?$LH?$KI?C?$PM?A?n?B?k@	; `string'
PUBLIC	??_C@_0BM@EEHLBJJE@?J?U?$LF?$LN?O?$PL?O?$KC?3mainid?3?$CFd?0subid?3?$CFd@ ; `string'
PUBLIC	??_C@_0BG@KIEOHCJC@?J?U?$LF?$LNWS_PING_FRAME?O?$PL?O?$KC@ ; `string'
PUBLIC	??_C@_0BH@KPFBJOAM@?J?U?$LF?$LNWS_CLOSE_FRAME?O?$PL?O?$KC@ ; `string'
PUBLIC	??_C@_0BA@LDBHEJCC@?J?U?$LF?$LNdefault?O?$PL?O?$KC@ ; `string'
PUBLIC	??_C@_0BM@KAJJAILJ@HandleWebsocketRecv?5?R?l?$LD?$KD?3?$CFs@ ; `string'
PUBLIC	??_C@_0DF@DAAPGLPI@Index?$DN?$CFld?$KD?$KMRountID?$DN?$CFld?$KD?$KMHandleW@ ; `string'
PUBLIC	??_C@_0L@DAPODOBD@?J?$PN?$LO?$NN?$LA?$PM?$LD?$KM?$LD?$KE@ ; `string'
PUBLIC	??_C@_0L@ICOFAPAB@?J?$PN?$LO?$NN?$LA?$PM?$LH?G?$LH?$KI@ ; `string'
PUBLIC	??_C@_0P@BBEPCAEF@?J?$PN?$LO?$NN?$LA?$PM?$LA?f?$LB?$LO?$LE?m?N?s@ ; `string'
PUBLIC	??_C@_0CB@BHAJGHNJ@CheckIsWinSocket?5?$LH?Gweebsocket?3?$CF@ ; `string'
PUBLIC	??_C@_0DC@OCAKDNJE@Index?$DN?$CFld?$KD?$KMRountID?$DN?$CFld?$KD?$KMCheckIs@ ; `string'
PUBLIC	??_C@_0CI@GGFIIOME@parse?5handshake?5error?0send?5clos@ ; `string'
PUBLIC	??_C@_0BN@PJMBPKGC@HTTP?11?41?5400?5Bad?5Request?$AN?6?$AN?6@ ; `string'
PUBLIC	??_C@_1HG@EFDLDILG@?$AAg?$AA?3?$AA?2?$AAQ?$PP?P?$AA?2?$AAh?$AAa?$AAp?$AAp?$AAy?$AAg?$AAa?$AAm?$AAe@ ; `string'
PUBLIC	??_C@_1CC@MAPHGENJ@?$AAc?$AAo?$AAn?$AAt?$AAe?$AAx?$AAt?$AA?4?$AAg?$AAo?$AAt?$AAA?$AAl?$AAl?$AA?$CI@ ; `string'
PUBLIC	??_C@_0BA@HEMDDLEL@X?9Forwarded?9For@		; `string'
PUBLIC	??_C@_0CN@CFILDAFG@Index?$DN?$CFld?$KD?$KMRountID?$DN?$CFld?$KD?$KMSendRaw@ ; `string'
PUBLIC	??_C@_0BB@GIIMFCKJ@?I?j?G?k?A?$KM?$LN?S?$LG?T?O?s?J?$KH?$LA?$NM@ ; `string'
PUBLIC	??_C@_0BL@FJOHAJKD@?N?$LE?V?$LI?$LG?$KI?M?x?B?g?$LG?K?$LP?Z?$KD?$KM?$LN?$KL?K?f?$LL?z?$LH?V?E?d@ ; `string'
PUBLIC	??_C@_0CB@DMDLLPEB@?$LD?$KC?J?T?A?K?V?Z?$LG?$OA?$LF?D?$LG?K?$LP?Z?$LK?E?$KD?$KM?$LM?$OA?L?$PN?$LC?Y?W?w?J?$KH?$LA@ ; `string'
PUBLIC	??_C@_0DD@KAEGCGFA@?O?$LF?M?$LD?W?J?T?$LE?$LC?$LL?W?c?$LL?r?U?$NP?5TCP?1IP?5?P?$KN?R?i?C?$LL?S@ ; `string'
PUBLIC	??_C@_0CD@FEECEEMH@?M?x?B?g?$LA?s?$LG?$KI?$LE?m?N?s?0?F?t?$LG?$KP?J?$KH?$LA?$NM?4?U?$LM?S?C?$LG?K?$LP?Z?$KD@ ; `string'
PUBLIC	??_C@_0CI@ELCMGMJI@?$LG?K?$LP?Z?U?$PN?$LB?$LL?F?d?K?$PL?$LH?$PO?N?q?U?$LM?S?C?$KD?$KM?$LM?$OA?L?$PN?5?$CFld?5@ ; `string'
PUBLIC	??_C@_08HBOFLKLL@?$LE?$LE?$LN?$KI?J?$KH?$LA?$NM@ ; `string'
PUBLIC	??_C@_0N@DLOPLLLM@?$LN?S?$LP?Z?$LC?i?Q?$KP?J?$KH?$LA?$NM@ ; `string'
PUBLIC	??_C@_0GH@FKAHJGEE@c?3?2program?5files?5?$CIx86?$CJ?2microsof@ ; `string'
PUBLIC	??_C@_1MO@OJBMIJHH@?$AAc?$AA?3?$AA?2?$AAp?$AAr?$AAo?$AAg?$AAr?$AAa?$AAm?$AA?5?$AAf?$AAi?$AAl?$AAe@ ; `string'
PUBLIC	??_C@_0DE@DMNPKCGM@cannot?5increment?5value?9initiali@ ; `string'
PUBLIC	??_C@_0GG@NEGGIBJL@c?3?2program?5files?5?$CIx86?$CJ?2microsof@ ; `string'
PUBLIC	??_C@_1MM@GNDNJPBP@?$AAc?$AA?3?$AA?2?$AAp?$AAr?$AAo?$AAg?$AAr?$AAa?$AAm?$AA?5?$AAf?$AAi?$AAl?$AAe@ ; `string'
PUBLIC	??_C@_1CFG@PGGKMBNC@?$AAs?$AAt?$AAd?$AA?3?$AA?3?$AA_?$AAT?$AAr?$AAe?$AAe?$AA_?$AAc?$AAo?$AAn?$AAs@ ; `string'
PUBLIC	??_C@_1GM@BJMCGEGI@?$AA?$CC?$AAc?$AAa?$AAn?$AAn?$AAo?$AAt?$AA?5?$AAi?$AAn?$AAc?$AAr?$AAe?$AAm?$AAe@ ; `string'
PUBLIC	??_C@_0CG@NLEHEOHN@cannot?5increment?5end?5map?1set?5it@ ; `string'
PUBLIC	??_C@_1FA@KLFCDGNE@?$AA?$CC?$AAc?$AAa?$AAn?$AAn?$AAo?$AAt?$AA?5?$AAi?$AAn?$AAc?$AAr?$AAe?$AAm?$AAe@ ; `string'
PUBLIC	??_C@_0DE@CHADHGFF@can?8t?5dereference?5value?9initial@ ; `string'
PUBLIC	??_C@_1MG@DDPKBOFO@?$AAs?$AAt?$AAd?$AA?3?$AA?3?$AA_?$AAV?$AAe?$AAc?$AAt?$AAo?$AAr?$AA_?$AAc?$AAo@ ; `string'
PUBLIC	??_C@_1GM@FNBFNBEL@?$AA?$CC?$AAc?$AAa?$AAn?$AA?8?$AAt?$AA?5?$AAd?$AAe?$AAr?$AAe?$AAf?$AAe?$AAr?$AAe@ ; `string'
PUBLIC	??_C@_0CP@MDHADBHN@can?8t?5dereference?5out?5of?5range?5@ ; `string'
PUBLIC	??_C@_1GC@JDCKOLAC@?$AA?$CC?$AAc?$AAa?$AAn?$AA?8?$AAt?$AA?5?$AAd?$AAe?$AAr?$AAe?$AAf?$AAe?$AAr?$AAe@ ; `string'
PUBLIC	??_C@_0N@LPFKKEBD@?3AM?3am?3PM?3pm@		; `string'
PUBLIC	??_C@_0DD@LAECODHC@cannot?5increment?5value?9initiali@ ; `string'
PUBLIC	??_C@_0GI@OLBHAGPC@c?3?2program?5files?5?$CIx86?$CJ?2microsof@ ; `string'
PUBLIC	??_C@_1NA@CLPMMMDB@?$AAc?$AA?3?$AA?2?$AAp?$AAr?$AAo?$AAg?$AAr?$AAa?$AAm?$AA?5?$AAf?$AAi?$AAl?$AAe@ ; `string'
PUBLIC	??_C@_1MI@IFMPOAI@?$AAs?$AAt?$AAd?$AA?3?$AA?3?$AA_?$AAS?$AAt?$AAr?$AAi?$AAn?$AAg?$AA_?$AAc?$AAo@ ; `string'
PUBLIC	??_C@_1GK@MICKMFNF@?$AA?$CC?$AAc?$AAa?$AAn?$AAn?$AAo?$AAt?$AA?5?$AAi?$AAn?$AAc?$AAr?$AAe?$AAm?$AAe@ ; `string'
PUBLIC	??_C@_0IA@BFMOHEDB@cannot?5increment?5string?5iterato@ ; `string'
PUBLIC	??_C@_1BAK@GBJMLMKM@?$AA?$CC?$AAc?$AAa?$AAn?$AAn?$AAo?$AAt?$AA?5?$AAi?$AAn?$AAc?$AAr?$AAe?$AAm?$AAe@ ; `string'
PUBLIC	??_C@_0CK@IKJHPFKC@cannot?5increment?5string?5iterato@ ; `string'
PUBLIC	??_C@_1FI@JCCODAAD@?$AA?$CC?$AAc?$AAa?$AAn?$AAn?$AAo?$AAt?$AA?5?$AAi?$AAn?$AAc?$AAr?$AAe?$AAm?$AAe@ ; `string'
PUBLIC	??_C@_0DF@IMIHIHOP@cannot?5dereference?5value?9initia@ ; `string'
PUBLIC	??_C@_1MG@GDGHDIKC@?$AAs?$AAt?$AAd?$AA?3?$AA?3?$AA_?$AAS?$AAt?$AAr?$AAi?$AAn?$AAg?$AA_?$AAc?$AAo@ ; `string'
PUBLIC	??_C@_1GO@PNALIMBD@?$AA?$CC?$AAc?$AAa?$AAn?$AAn?$AAo?$AAt?$AA?5?$AAd?$AAe?$AAr?$AAe?$AAf?$AAe?$AAr@ ; `string'
PUBLIC	??_C@_0IC@DGJDAAEM@cannot?5dereference?5string?5itera@ ; `string'
PUBLIC	??_C@_1BAO@BGLBIONH@?$AA?$CC?$AAc?$AAa?$AAn?$AAn?$AAo?$AAt?$AA?5?$AAd?$AAe?$AAr?$AAe?$AAf?$AAe?$AAr@ ; `string'
PUBLIC	??_C@_0FF@HJKEHIBC@cannot?5dereference?5string?5itera@ ; `string'
PUBLIC	??_C@_1KO@CMPBFHAM@?$AA?$CC?$AAc?$AAa?$AAn?$AAn?$AAo?$AAt?$AA?5?$AAd?$AAe?$AAr?$AAe?$AAf?$AAe?$AAr@ ; `string'
PUBLIC	??_C@_0BP@OLDKBHLM@map?1set?5iterators?5incompatible@ ; `string'
PUBLIC	??_C@_1CFG@FGJHCIBH@?$AAs?$AAt?$AAd?$AA?3?$AA?3?$AA_?$AAT?$AAr?$AAe?$AAe?$AA_?$AAc?$AAo?$AAn?$AAs@ ; `string'
PUBLIC	??_C@_1EC@JLIDLCDH@?$AA?$CC?$AAm?$AAa?$AAp?$AA?1?$AAs?$AAe?$AAt?$AA?5?$AAi?$AAt?$AAe?$AAr?$AAa?$AAt@ ; `string'
PUBLIC	??_C@_0DG@LCFNIIPB@cannot?5dereference?5value?9initia@ ; `string'
PUBLIC	??_C@_1CFE@PPLBLEGL@?$AAs?$AAt?$AAd?$AA?3?$AA?3?$AA_?$AAT?$AAr?$AAe?$AAe?$AA_?$AAc?$AAo?$AAn?$AAs@ ; `string'
PUBLIC	??_C@_1HA@ILGCNILF@?$AA?$CC?$AAc?$AAa?$AAn?$AAn?$AAo?$AAt?$AA?5?$AAd?$AAe?$AAr?$AAe?$AAf?$AAe?$AAr@ ; `string'
PUBLIC	??_C@_0CI@OKFEHCEB@cannot?5dereference?5end?5map?1set?5@ ; `string'
PUBLIC	??_C@_1FE@NKHAAGMB@?$AA?$CC?$AAc?$AAa?$AAn?$AAn?$AAo?$AAt?$AA?5?$AAd?$AAe?$AAr?$AAe?$AAf?$AAe?$AAr@ ; `string'
PUBLIC	??_C@_0BD@OLBABOEK@vector?$DMT?$DO?5too?5long@	; `string'
PUBLIC	??_C@_0EJ@NPIAEPMO@string?5iterators?5incompatible?5?$CI@ ; `string'
PUBLIC	??_C@_1MA@BDELDFHB@?$AAs?$AAt?$AAd?$AA?3?$AA?3?$AA_?$AAS?$AAt?$AAr?$AAi?$AAn?$AAg?$AA_?$AAc?$AAo@ ; `string'
PUBLIC	??_C@_1JM@EIPCMFMM@?$AA?$CC?$AAs?$AAt?$AAr?$AAi?$AAn?$AAg?$AA?5?$AAi?$AAt?$AAe?$AAr?$AAa?$AAt?$AAo@ ; `string'
PUBLIC	??_C@_0BI@CFPLBAOH@invalid?5string?5position@	; `string'
PUBLIC	??_C@_0CF@JILFNJOL@map?1set?5erase?5iterator?5outside?5@ ; `string'
PUBLIC	??_C@_1DMG@NDMMDDDJ@?$AAs?$AAt?$AAd?$AA?3?$AA?3?$AA_?$AAT?$AAr?$AAe?$AAe?$AA?$DM?$AAc?$AAl?$AAa?$AAs@ ; `string'
PUBLIC	??_C@_1EO@CEDAEPC@?$AA?$CC?$AAm?$AAa?$AAp?$AA?1?$AAs?$AAe?$AAt?$AA?5?$AAe?$AAr?$AAa?$AAs?$AAe?$AA?5@ ; `string'
PUBLIC	??_C@_1CAM@NGLDEJOH@?$AAs?$AAt?$AAd?$AA?3?$AA?3?$AA_?$AAT?$AAr?$AAe?$AAe?$AA_?$AAv?$AAa?$AAl?$AA?$DM@ ; `string'
PUBLIC	??_C@_1BK@MHIKGOKE@?$AA?3?$AAA?$AAM?$AA?3?$AAa?$AAm?$AA?3?$AAP?$AAM?$AA?3?$AAp?$AAm@ ; `string'
PUBLIC	??_C@_0DF@LDFGAABH@g?3?2?M?x?$LK?$PM?2happygamewh?2?$LH?$PO?N?q?$LG?K?2?O?$LF?M?$LD@ ; `string'
PUBLIC	??_R0?AVMessage@protobuf@google@@@8		; google::protobuf::Message `RTTI Type Descriptor'
PUBLIC	??_R0?AVrequest@NullPmd@@@8			; NullPmd::request `RTTI Type Descriptor'
PUBLIC	??_R0?AVresponse@NullPmd@@@8			; NullPmd::response `RTTI Type Descriptor'
PUBLIC	??_R0?AVindication@NullPmd@@@8			; NullPmd::indication `RTTI Type Descriptor'
PUBLIC	??_R0?AVcommand@NullPmd@@@8			; NullPmd::command `RTTI Type Descriptor'
PUBLIC	??_R0?AVinfo@NullPmd@@@8			; NullPmd::info `RTTI Type Descriptor'
PUBLIC	??_R0?AVhead@NullPmd@@@8			; NullPmd::head `RTTI Type Descriptor'
PUBLIC	??_R0?AVmessage@NullPmd@@@8			; NullPmd::message `RTTI Type Descriptor'
PUBLIC	??_C@_0BD@FEEMDEPI@invalid?5comparator@		; `string'
PUBLIC	??_C@_1CI@JONCLBEJ@?$AAs?$AAt?$AAd?$AA?3?$AA?3?$AA_?$AAD?$AAe?$AAb?$AAu?$AAg?$AA_?$AAl?$AAt?$AA_@ ; `string'
PUBLIC	??_C@_1CK@NDNHPKPI@?$AA?$CC?$AAi?$AAn?$AAv?$AAa?$AAl?$AAi?$AAd?$AA?5?$AAc?$AAo?$AAm?$AAp?$AAa?$AAr@ ; `string'
PUBLIC	??_C@_0BA@JFNIOLAK@string?5too?5long@		; `string'
PUBLIC	??_7?$_Ref_count@D@std@@6B@			; std::_Ref_count<char>::`vftable'
PUBLIC	??_R0?AUContainer@?$InternalMetadataWithArenaBase@VUnknownFieldSet@protobuf@google@@VInternalMetadataWithArena@internal@23@@internal@protobuf@google@@@8 ; google::protobuf::internal::InternalMetadataWithArenaBase<google::protobuf::UnknownFieldSet,google::protobuf::internal::InternalMetadataWithArena>::Container `RTTI Type Descriptor'
PUBLIC	??_C@_1EO@GFNCMDLA@?$AAs?$AAt?$AAd?$AA?3?$AA?3?$AA_?$AAA?$AAl?$AAl?$AAo?$AAc?$AAa?$AAt?$AAe?$AA_@ ; `string'
PUBLIC	??_C@_1CG@LJCPDKEJ@?$AAs?$AAt?$AAd?$AA?3?$AA?3?$AA_?$AAV?$AAe?$AAr?$AAi?$AAf?$AAy?$AA_?$AAr?$AAa@ ; `string'
PUBLIC	??_C@_0BJ@HAJGEHKO@transposed?5pointer?5range@	; `string'
PUBLIC	??_C@_1DG@FJIKMGFD@?$AA?$CC?$AAt?$AAr?$AAa?$AAn?$AAs?$AAp?$AAo?$AAs?$AAe?$AAd?$AA?5?$AAp?$AAo?$AAi@ ; `string'
PUBLIC	??_R0?AV_Ref_count_base@std@@@8			; std::_Ref_count_base `RTTI Type Descriptor'
PUBLIC	??_R3_Ref_count_base@std@@8			; std::_Ref_count_base::`RTTI Class Hierarchy Descriptor'
PUBLIC	??_R2_Ref_count_base@std@@8			; std::_Ref_count_base::`RTTI Base Class Array'
PUBLIC	??_R1A@?0A@EA@_Ref_count_base@std@@8		; std::_Ref_count_base::`RTTI Base Class Descriptor at (0,-1,0,64)'
PUBLIC	??_R4IUnknownEx@@6B@				; IUnknownEx::`RTTI Complete Object Locator'
PUBLIC	??_R0?AUIUnknownEx@@@8				; IUnknownEx `RTTI Type Descriptor'
PUBLIC	??_R3IUnknownEx@@8				; IUnknownEx::`RTTI Class Hierarchy Descriptor'
PUBLIC	??_R2IUnknownEx@@8				; IUnknownEx::`RTTI Base Class Array'
PUBLIC	??_R1A@?0A@EA@IUnknownEx@@8			; IUnknownEx::`RTTI Base Class Descriptor at (0,-1,0,64)'
PUBLIC	??_R4IServiceModule@@6B@			; IServiceModule::`RTTI Complete Object Locator'
PUBLIC	??_R0?AUIServiceModule@@@8			; IServiceModule `RTTI Type Descriptor'
PUBLIC	??_R3IServiceModule@@8				; IServiceModule::`RTTI Class Hierarchy Descriptor'
PUBLIC	??_R2IServiceModule@@8				; IServiceModule::`RTTI Base Class Array'
PUBLIC	??_R1A@?0A@EA@IServiceModule@@8			; IServiceModule::`RTTI Base Class Descriptor at (0,-1,0,64)'
PUBLIC	??_R4IAsynchronismEngineSink@@6B@		; IAsynchronismEngineSink::`RTTI Complete Object Locator'
PUBLIC	??_R0?AUIAsynchronismEngineSink@@@8		; IAsynchronismEngineSink `RTTI Type Descriptor'
PUBLIC	??_R3IAsynchronismEngineSink@@8			; IAsynchronismEngineSink::`RTTI Class Hierarchy Descriptor'
PUBLIC	??_R2IAsynchronismEngineSink@@8			; IAsynchronismEngineSink::`RTTI Base Class Array'
PUBLIC	??_R1A@?0A@EA@IAsynchronismEngineSink@@8	; IAsynchronismEngineSink::`RTTI Base Class Descriptor at (0,-1,0,64)'
PUBLIC	??_R4ITCPNetworkEngine@@6B@			; ITCPNetworkEngine::`RTTI Complete Object Locator'
PUBLIC	??_R0?AUITCPNetworkEngine@@@8			; ITCPNetworkEngine `RTTI Type Descriptor'
PUBLIC	??_R3ITCPNetworkEngine@@8			; ITCPNetworkEngine::`RTTI Class Hierarchy Descriptor'
PUBLIC	??_R2ITCPNetworkEngine@@8			; ITCPNetworkEngine::`RTTI Base Class Array'
PUBLIC	??_R1A@?0A@EA@ITCPNetworkEngine@@8		; ITCPNetworkEngine::`RTTI Base Class Descriptor at (0,-1,0,64)'
PUBLIC	??_R4COverLappedRecv@@6B@			; COverLappedRecv::`RTTI Complete Object Locator'
PUBLIC	??_R0?AVCOverLappedRecv@@@8			; COverLappedRecv `RTTI Type Descriptor'
PUBLIC	??_R3COverLappedRecv@@8				; COverLappedRecv::`RTTI Class Hierarchy Descriptor'
PUBLIC	??_R2COverLappedRecv@@8				; COverLappedRecv::`RTTI Base Class Array'
PUBLIC	??_R1A@?0A@EA@COverLappedRecv@@8		; COverLappedRecv::`RTTI Base Class Descriptor at (0,-1,0,64)'
PUBLIC	??_R1A@?0A@EA@COverLapped@@8			; COverLapped::`RTTI Base Class Descriptor at (0,-1,0,64)'
PUBLIC	??_R0?AVCOverLapped@@@8				; COverLapped `RTTI Type Descriptor'
PUBLIC	??_R3COverLapped@@8				; COverLapped::`RTTI Class Hierarchy Descriptor'
PUBLIC	??_R2COverLapped@@8				; COverLapped::`RTTI Base Class Array'
PUBLIC	??_R4COverLappedSend@@6B@			; COverLappedSend::`RTTI Complete Object Locator'
PUBLIC	??_R0?AVCOverLappedSend@@@8			; COverLappedSend `RTTI Type Descriptor'
PUBLIC	??_R3COverLappedSend@@8				; COverLappedSend::`RTTI Class Hierarchy Descriptor'
PUBLIC	??_R2COverLappedSend@@8				; COverLappedSend::`RTTI Base Class Array'
PUBLIC	??_R1A@?0A@EA@COverLappedSend@@8		; COverLappedSend::`RTTI Base Class Descriptor at (0,-1,0,64)'
PUBLIC	??_R4CTCPNetworkItem@@6B@			; CTCPNetworkItem::`RTTI Complete Object Locator'
PUBLIC	??_R0?AVCTCPNetworkItem@@@8			; CTCPNetworkItem `RTTI Type Descriptor'
PUBLIC	??_R3CTCPNetworkItem@@8				; CTCPNetworkItem::`RTTI Class Hierarchy Descriptor'
PUBLIC	??_R2CTCPNetworkItem@@8				; CTCPNetworkItem::`RTTI Base Class Array'
PUBLIC	??_R1A@?0A@EA@CTCPNetworkItem@@8		; CTCPNetworkItem::`RTTI Base Class Descriptor at (0,-1,0,64)'
PUBLIC	??_R4CTCPNetworkEngine@@6BITCPNetworkEngine@@@	; CTCPNetworkEngine::`RTTI Complete Object Locator'
PUBLIC	??_R0?AVCTCPNetworkEngine@@@8			; CTCPNetworkEngine `RTTI Type Descriptor'
PUBLIC	??_R3CTCPNetworkEngine@@8			; CTCPNetworkEngine::`RTTI Class Hierarchy Descriptor'
PUBLIC	??_R2CTCPNetworkEngine@@8			; CTCPNetworkEngine::`RTTI Base Class Array'
PUBLIC	??_R1A@?0A@EA@CTCPNetworkEngine@@8		; CTCPNetworkEngine::`RTTI Base Class Descriptor at (0,-1,0,64)'
PUBLIC	??_R1A@?0A@EC@IUnknownEx@@8			; IUnknownEx::`RTTI Base Class Descriptor at (0,-1,0,66)'
PUBLIC	??_R13?0A@EA@IAsynchronismEngineSink@@8		; IAsynchronismEngineSink::`RTTI Base Class Descriptor at (4,-1,0,64)'
PUBLIC	??_R13?0A@EC@IUnknownEx@@8			; IUnknownEx::`RTTI Base Class Descriptor at (4,-1,0,66)'
PUBLIC	??_R17?0A@EA@ITCPNetworkItemSink@@8		; ITCPNetworkItemSink::`RTTI Base Class Descriptor at (8,-1,0,64)'
PUBLIC	??_R0?AUITCPNetworkItemSink@@@8			; ITCPNetworkItemSink `RTTI Type Descriptor'
PUBLIC	??_R3ITCPNetworkItemSink@@8			; ITCPNetworkItemSink::`RTTI Class Hierarchy Descriptor'
PUBLIC	??_R2ITCPNetworkItemSink@@8			; ITCPNetworkItemSink::`RTTI Base Class Array'
PUBLIC	??_R1A@?0A@EA@ITCPNetworkItemSink@@8		; ITCPNetworkItemSink::`RTTI Base Class Descriptor at (0,-1,0,64)'
PUBLIC	??_R4CTCPNetworkEngine@@6BIAsynchronismEngineSink@@@ ; CTCPNetworkEngine::`RTTI Complete Object Locator'
PUBLIC	??_R4CTCPNetworkEngine@@6BITCPNetworkItemSink@@@ ; CTCPNetworkEngine::`RTTI Complete Object Locator'
PUBLIC	??_R4?$CWHArray@PAVCOverLappedSend@@ABQAV1@@@6B@ ; CWHArray<COverLappedSend *,COverLappedSend * const &>::`RTTI Complete Object Locator'
PUBLIC	??_R0?AV?$CWHArray@PAVCOverLappedSend@@ABQAV1@@@@8 ; CWHArray<COverLappedSend *,COverLappedSend * const &> `RTTI Type Descriptor'
PUBLIC	??_R3?$CWHArray@PAVCOverLappedSend@@ABQAV1@@@8	; CWHArray<COverLappedSend *,COverLappedSend * const &>::`RTTI Class Hierarchy Descriptor'
PUBLIC	??_R2?$CWHArray@PAVCOverLappedSend@@ABQAV1@@@8	; CWHArray<COverLappedSend *,COverLappedSend * const &>::`RTTI Base Class Array'
PUBLIC	??_R1A@?0A@EA@?$CWHArray@PAVCOverLappedSend@@ABQAV1@@@8 ; CWHArray<COverLappedSend *,COverLappedSend * const &>::`RTTI Base Class Descriptor at (0,-1,0,64)'
PUBLIC	??_R4ITCPNetworkItemSink@@6B@			; ITCPNetworkItemSink::`RTTI Complete Object Locator'
PUBLIC	??_R4COverLapped@@6B@				; COverLapped::`RTTI Complete Object Locator'
PUBLIC	??_R4CTCPNetworkThreadReadWrite@@6B@		; CTCPNetworkThreadReadWrite::`RTTI Complete Object Locator'
PUBLIC	??_R0?AVCTCPNetworkThreadReadWrite@@@8		; CTCPNetworkThreadReadWrite `RTTI Type Descriptor'
PUBLIC	??_R3CTCPNetworkThreadReadWrite@@8		; CTCPNetworkThreadReadWrite::`RTTI Class Hierarchy Descriptor'
PUBLIC	??_R2CTCPNetworkThreadReadWrite@@8		; CTCPNetworkThreadReadWrite::`RTTI Base Class Array'
PUBLIC	??_R1A@?0A@EA@CTCPNetworkThreadReadWrite@@8	; CTCPNetworkThreadReadWrite::`RTTI Base Class Descriptor at (0,-1,0,64)'
PUBLIC	??_R1A@?0A@EA@CWHThread@@8			; CWHThread::`RTTI Base Class Descriptor at (0,-1,0,64)'
PUBLIC	??_R0?AVCWHThread@@@8				; CWHThread `RTTI Type Descriptor'
PUBLIC	??_R3CWHThread@@8				; CWHThread::`RTTI Class Hierarchy Descriptor'
PUBLIC	??_R2CWHThread@@8				; CWHThread::`RTTI Base Class Array'
PUBLIC	??_R4CTCPNetworkThreadAccept@@6B@		; CTCPNetworkThreadAccept::`RTTI Complete Object Locator'
PUBLIC	??_R0?AVCTCPNetworkThreadAccept@@@8		; CTCPNetworkThreadAccept `RTTI Type Descriptor'
PUBLIC	??_R3CTCPNetworkThreadAccept@@8			; CTCPNetworkThreadAccept::`RTTI Class Hierarchy Descriptor'
PUBLIC	??_R2CTCPNetworkThreadAccept@@8			; CTCPNetworkThreadAccept::`RTTI Base Class Array'
PUBLIC	??_R1A@?0A@EA@CTCPNetworkThreadAccept@@8	; CTCPNetworkThreadAccept::`RTTI Base Class Descriptor at (0,-1,0,64)'
PUBLIC	??_R4CTCPNetworkThreadDetect@@6B@		; CTCPNetworkThreadDetect::`RTTI Complete Object Locator'
PUBLIC	??_R0?AVCTCPNetworkThreadDetect@@@8		; CTCPNetworkThreadDetect `RTTI Type Descriptor'
PUBLIC	??_R3CTCPNetworkThreadDetect@@8			; CTCPNetworkThreadDetect::`RTTI Class Hierarchy Descriptor'
PUBLIC	??_R2CTCPNetworkThreadDetect@@8			; CTCPNetworkThreadDetect::`RTTI Base Class Array'
PUBLIC	??_R1A@?0A@EA@CTCPNetworkThreadDetect@@8	; CTCPNetworkThreadDetect::`RTTI Base Class Descriptor at (0,-1,0,64)'
PUBLIC	??_R4?$CWHArray@PAVCTCPNetworkItem@@ABQAV1@@@6B@ ; CWHArray<CTCPNetworkItem *,CTCPNetworkItem * const &>::`RTTI Complete Object Locator'
PUBLIC	??_R0?AV?$CWHArray@PAVCTCPNetworkItem@@ABQAV1@@@@8 ; CWHArray<CTCPNetworkItem *,CTCPNetworkItem * const &> `RTTI Type Descriptor'
PUBLIC	??_R3?$CWHArray@PAVCTCPNetworkItem@@ABQAV1@@@8	; CWHArray<CTCPNetworkItem *,CTCPNetworkItem * const &>::`RTTI Class Hierarchy Descriptor'
PUBLIC	??_R2?$CWHArray@PAVCTCPNetworkItem@@ABQAV1@@@8	; CWHArray<CTCPNetworkItem *,CTCPNetworkItem * const &>::`RTTI Base Class Array'
PUBLIC	??_R1A@?0A@EA@?$CWHArray@PAVCTCPNetworkItem@@ABQAV1@@@8 ; CWHArray<CTCPNetworkItem *,CTCPNetworkItem * const &>::`RTTI Base Class Descriptor at (0,-1,0,64)'
PUBLIC	??_R4?$CWHArray@PAVCTCPNetworkThreadReadWrite@@ABQAV1@@@6B@ ; CWHArray<CTCPNetworkThreadReadWrite *,CTCPNetworkThreadReadWrite * const &>::`RTTI Complete Object Locator'
PUBLIC	??_R0?AV?$CWHArray@PAVCTCPNetworkThreadReadWrite@@ABQAV1@@@@8 ; CWHArray<CTCPNetworkThreadReadWrite *,CTCPNetworkThreadReadWrite * const &> `RTTI Type Descriptor'
PUBLIC	??_R3?$CWHArray@PAVCTCPNetworkThreadReadWrite@@ABQAV1@@@8 ; CWHArray<CTCPNetworkThreadReadWrite *,CTCPNetworkThreadReadWrite * const &>::`RTTI Class Hierarchy Descriptor'
PUBLIC	??_R2?$CWHArray@PAVCTCPNetworkThreadReadWrite@@ABQAV1@@@8 ; CWHArray<CTCPNetworkThreadReadWrite *,CTCPNetworkThreadReadWrite * const &>::`RTTI Base Class Array'
PUBLIC	??_R1A@?0A@EA@?$CWHArray@PAVCTCPNetworkThreadReadWrite@@ABQAV1@@@8 ; CWHArray<CTCPNetworkThreadReadWrite *,CTCPNetworkThreadReadWrite * const &>::`RTTI Base Class Descriptor at (0,-1,0,64)'
PUBLIC	??_R4Closure@protobuf@google@@6B@		; google::protobuf::Closure::`RTTI Complete Object Locator'
PUBLIC	??_R0?AVClosure@protobuf@google@@@8		; google::protobuf::Closure `RTTI Type Descriptor'
PUBLIC	??_R3Closure@protobuf@google@@8			; google::protobuf::Closure::`RTTI Class Hierarchy Descriptor'
PUBLIC	??_R2Closure@protobuf@google@@8			; google::protobuf::Closure::`RTTI Base Class Array'
PUBLIC	??_R1A@?0A@EA@Closure@protobuf@google@@8	; google::protobuf::Closure::`RTTI Base Class Descriptor at (0,-1,0,64)'
PUBLIC	??_R4FunctionClosure0@internal@protobuf@google@@6B@ ; google::protobuf::internal::FunctionClosure0::`RTTI Complete Object Locator'
PUBLIC	??_R0?AVFunctionClosure0@internal@protobuf@google@@@8 ; google::protobuf::internal::FunctionClosure0 `RTTI Type Descriptor'
PUBLIC	??_R3FunctionClosure0@internal@protobuf@google@@8 ; google::protobuf::internal::FunctionClosure0::`RTTI Class Hierarchy Descriptor'
PUBLIC	??_R2FunctionClosure0@internal@protobuf@google@@8 ; google::protobuf::internal::FunctionClosure0::`RTTI Base Class Array'
PUBLIC	??_R1A@?0A@EA@FunctionClosure0@internal@protobuf@google@@8 ; google::protobuf::internal::FunctionClosure0::`RTTI Base Class Descriptor at (0,-1,0,64)'
PUBLIC	??_R4Message@protobuf@google@@6B@		; google::protobuf::Message::`RTTI Complete Object Locator'
PUBLIC	??_R3Message@protobuf@google@@8			; google::protobuf::Message::`RTTI Class Hierarchy Descriptor'
PUBLIC	??_R2Message@protobuf@google@@8			; google::protobuf::Message::`RTTI Base Class Array'
PUBLIC	??_R1A@?0A@EA@Message@protobuf@google@@8	; google::protobuf::Message::`RTTI Base Class Descriptor at (0,-1,0,64)'
PUBLIC	??_R1A@?0A@EA@MessageLite@protobuf@google@@8	; google::protobuf::MessageLite::`RTTI Base Class Descriptor at (0,-1,0,64)'
PUBLIC	??_R0?AVMessageLite@protobuf@google@@@8		; google::protobuf::MessageLite `RTTI Type Descriptor'
PUBLIC	??_R3MessageLite@protobuf@google@@8		; google::protobuf::MessageLite::`RTTI Class Hierarchy Descriptor'
PUBLIC	??_R2MessageLite@protobuf@google@@8		; google::protobuf::MessageLite::`RTTI Base Class Array'
PUBLIC	??_R4MessageLite@protobuf@google@@6B@		; google::protobuf::MessageLite::`RTTI Complete Object Locator'
PUBLIC	??_R4command@NullPmd@@6B@			; NullPmd::command::`RTTI Complete Object Locator'
PUBLIC	??_R3command@NullPmd@@8				; NullPmd::command::`RTTI Class Hierarchy Descriptor'
PUBLIC	??_R2command@NullPmd@@8				; NullPmd::command::`RTTI Base Class Array'
PUBLIC	??_R1A@?0A@EA@command@NullPmd@@8		; NullPmd::command::`RTTI Base Class Descriptor at (0,-1,0,64)'
PUBLIC	??_R4head@NullPmd@@6B@				; NullPmd::head::`RTTI Complete Object Locator'
PUBLIC	??_R3head@NullPmd@@8				; NullPmd::head::`RTTI Class Hierarchy Descriptor'
PUBLIC	??_R2head@NullPmd@@8				; NullPmd::head::`RTTI Base Class Array'
PUBLIC	??_R1A@?0A@EA@head@NullPmd@@8			; NullPmd::head::`RTTI Base Class Descriptor at (0,-1,0,64)'
PUBLIC	??_R4indication@NullPmd@@6B@			; NullPmd::indication::`RTTI Complete Object Locator'
PUBLIC	??_R3indication@NullPmd@@8			; NullPmd::indication::`RTTI Class Hierarchy Descriptor'
PUBLIC	??_R2indication@NullPmd@@8			; NullPmd::indication::`RTTI Base Class Array'
PUBLIC	??_R1A@?0A@EA@indication@NullPmd@@8		; NullPmd::indication::`RTTI Base Class Descriptor at (0,-1,0,64)'
PUBLIC	??_R4info@NullPmd@@6B@				; NullPmd::info::`RTTI Complete Object Locator'
PUBLIC	??_R3info@NullPmd@@8				; NullPmd::info::`RTTI Class Hierarchy Descriptor'
PUBLIC	??_R2info@NullPmd@@8				; NullPmd::info::`RTTI Base Class Array'
PUBLIC	??_R1A@?0A@EA@info@NullPmd@@8			; NullPmd::info::`RTTI Base Class Descriptor at (0,-1,0,64)'
PUBLIC	??_R4message@NullPmd@@6B@			; NullPmd::message::`RTTI Complete Object Locator'
PUBLIC	??_R3message@NullPmd@@8				; NullPmd::message::`RTTI Class Hierarchy Descriptor'
PUBLIC	??_R2message@NullPmd@@8				; NullPmd::message::`RTTI Base Class Array'
PUBLIC	??_R1A@?0A@EA@message@NullPmd@@8		; NullPmd::message::`RTTI Base Class Descriptor at (0,-1,0,64)'
PUBLIC	??_R4request@NullPmd@@6B@			; NullPmd::request::`RTTI Complete Object Locator'
PUBLIC	??_R3request@NullPmd@@8				; NullPmd::request::`RTTI Class Hierarchy Descriptor'
PUBLIC	??_R2request@NullPmd@@8				; NullPmd::request::`RTTI Base Class Array'
PUBLIC	??_R1A@?0A@EA@request@NullPmd@@8		; NullPmd::request::`RTTI Base Class Descriptor at (0,-1,0,64)'
PUBLIC	??_R4response@NullPmd@@6B@			; NullPmd::response::`RTTI Complete Object Locator'
PUBLIC	??_R3response@NullPmd@@8			; NullPmd::response::`RTTI Class Hierarchy Descriptor'
PUBLIC	??_R2response@NullPmd@@8			; NullPmd::response::`RTTI Base Class Array'
PUBLIC	??_R1A@?0A@EA@response@NullPmd@@8		; NullPmd::response::`RTTI Base Class Descriptor at (0,-1,0,64)'
PUBLIC	??_R4?$_Ref_count@D@std@@6B@			; std::_Ref_count<char>::`RTTI Complete Object Locator'
PUBLIC	??_R0?AV?$_Ref_count@D@std@@@8			; std::_Ref_count<char> `RTTI Type Descriptor'
PUBLIC	??_R3?$_Ref_count@D@std@@8			; std::_Ref_count<char>::`RTTI Class Hierarchy Descriptor'
PUBLIC	??_R2?$_Ref_count@D@std@@8			; std::_Ref_count<char>::`RTTI Base Class Array'
PUBLIC	??_R1A@?0A@EA@?$_Ref_count@D@std@@8		; std::_Ref_count<char>::`RTTI Base Class Descriptor at (0,-1,0,64)'
EXTRN	__purecall:PROC
EXTRN	??2@YAPAXI@Z:PROC				; operator new
EXTRN	??3@YAXPAXI@Z:PROC				; operator delete
EXTRN	??_U@YAPAXI@Z:PROC				; operator new[]
EXTRN	??_V@YAXPAX@Z:PROC				; operator delete[]
EXTRN	___std_terminate:PROC
EXTRN	__imp___invalid_parameter:PROC
EXTRN	__imp__toupper:PROC
EXTRN	__imp__wcscpy_s:PROC
EXTRN	__imp__CloseHandle@4:PROC
EXTRN	__imp__GetLastError@0:PROC
EXTRN	__imp__CreateIoCompletionPort@16:PROC
EXTRN	__imp__GetQueuedCompletionStatus@20:PROC
EXTRN	__imp__PostQueuedCompletionStatus@16:PROC
EXTRN	__imp__Sleep@4:PROC
EXTRN	__imp__GetSystemInfo@4:PROC
EXTRN	__imp__GetTickCount@0:PROC
EXTRN	__imp__wsprintfA:PROC
EXTRN	__imp__PeekMessageA@20:PROC
EXTRN	__imp__PostQuitMessage@4:PROC
EXTRN	__imp____stdio_common_vswprintf_s:PROC
EXTRN	__imp____stdio_common_vsprintf:PROC
EXTRN	__imp___time64:PROC
EXTRN	__imp___calloc_dbg:PROC
EXTRN	__imp___CrtDbgReport:PROC
EXTRN	__imp___CrtDbgReportW:PROC
EXTRN	__imp__bind@12:PROC
EXTRN	__imp__closesocket@4:PROC
EXTRN	__imp__htons@4:PROC
EXTRN	__imp__inet_addr@4:PROC
EXTRN	__imp__listen@8:PROC
EXTRN	__imp__recv@16:PROC
EXTRN	__imp__WSAGetLastError@0:PROC
EXTRN	__imp__WSAAccept@20:PROC
EXTRN	__imp__WSARecv@28:PROC
EXTRN	__imp__WSASend@28:PROC
EXTRN	__imp__WSASocketA@24:PROC
EXTRN	__imp__CoCreateGuid@4:PROC
EXTRN	?AfxThrowInvalidArgException@@YGXXZ:PROC	; AfxThrowInvalidArgException
EXTRN	__imp_??B?$CSimpleStringT@D$00@ATL@@QBEPBDXZ:PROC
EXTRN	__imp_??0?$CStringT@DV?$StrTraitMFC_DLL@DV?$ChTraitsCRT@D@ATL@@@@@ATL@@QAE@XZ:PROC
EXTRN	__imp_??1?$CStringT@DV?$StrTraitMFC_DLL@DV?$ChTraitsCRT@D@ATL@@@@@ATL@@QAE@XZ:PROC
EXTRN	__imp_?Format@?$CStringT@DV?$StrTraitMFC_DLL@DV?$ChTraitsCRT@D@ATL@@@@@ATL@@QAAXPBDZZ:PROC
EXTRN	??0CCriticalSection@@QAE@XZ:PROC		; CCriticalSection::CCriticalSection
EXTRN	??1CCriticalSection@@UAE@XZ:PROC		; CCriticalSection::~CCriticalSection
EXTRN	__imp___wassert:PROC
EXTRN	__imp_??0_Lockit@std@@QAE@H@Z:PROC
EXTRN	__imp_??1_Lockit@std@@QAE@XZ:PROC
EXTRN	?_Xbad_alloc@std@@YAXXZ:PROC			; std::_Xbad_alloc
EXTRN	?_Xlength_error@std@@YAXPBD@Z:PROC		; std::_Xlength_error
EXTRN	?_Xout_of_range@std@@YAXPBD@Z:PROC		; std::_Xout_of_range
EXTRN	__Mbrtowc:PROC
EXTRN	__imp_?_Getcvt@_Locinfo@std@@QBE?AU_Cvtvec@@XZ:PROC
EXTRN	__imp_?_Getdays@_Locinfo@std@@QBEPBDXZ:PROC
EXTRN	__imp_?_Getmonths@_Locinfo@std@@QBEPBDXZ:PROC
EXTRN	__imp_?_W_Getdays@_Locinfo@std@@QBEPBGXZ:PROC
EXTRN	__imp_?_W_Getmonths@_Locinfo@std@@QBEPBGXZ:PROC
EXTRN	__imp_??0CWHThread@@IAE@XZ:PROC
EXTRN	__imp_??1CWHThread@@MAE@XZ:PROC
EXTRN	__imp_??0CWHDataLocker@@QAE@AAVCCriticalSection@@_N@Z:PROC
EXTRN	__imp_??1CWHDataLocker@@UAE@XZ:PROC
EXTRN	__imp_?UnLock@CWHDataLocker@@QAEXXZ:PROC
EXTRN	??0CAsynchronismEngine@@QAE@XZ:PROC		; CAsynchronismEngine::CAsynchronismEngine
EXTRN	??1CAsynchronismEngine@@UAE@XZ:PROC		; CAsynchronismEngine::~CAsynchronismEngine
EXTRN	?makeHandshakeResponse@ws@net@zl@@YA?AV?$basic_string@DU?$char_traits@D@std@@V?$allocator@D@2@@std@@PBDV45@@Z:PROC ; zl::net::ws::makeHandshakeResponse
EXTRN	?decodeFrame@ws@net@zl@@YA?AW4WsFrameType@123@PBDHPADPAH2@Z:PROC ; zl::net::ws::decodeFrame
EXTRN	?encodeFrame@ws@net@zl@@YAHW4WsFrameType@123@PBDHPADH@Z:PROC ; zl::net::ws::encodeFrame
EXTRN	?parseRequest@HttpContext@net@zl@@QAE_NPAVByteBuffer@23@@Z:PROC ; zl::net::HttpContext::parseRequest
EXTRN	??_ECOverLapped@@UAEPAXI@Z:PROC			; COverLapped::`vector deleting destructor'
EXTRN	??_ECOverLappedSend@@UAEPAXI@Z:PROC		; COverLappedSend::`vector deleting destructor'
EXTRN	??_ECOverLappedRecv@@UAEPAXI@Z:PROC		; COverLappedRecv::`vector deleting destructor'
EXTRN	??_E?$CWHArray@PAVCOverLappedSend@@ABQAV1@@@UAEPAXI@Z:PROC ; CWHArray<COverLappedSend *,COverLappedSend * const &>::`vector deleting destructor'
EXTRN	??_ECTCPNetworkItem@@UAEPAXI@Z:PROC		; CTCPNetworkItem::`vector deleting destructor'
EXTRN	??_ECTCPNetworkThreadReadWrite@@UAEPAXI@Z:PROC	; CTCPNetworkThreadReadWrite::`vector deleting destructor'
EXTRN	??_ECTCPNetworkThreadAccept@@UAEPAXI@Z:PROC	; CTCPNetworkThreadAccept::`vector deleting destructor'
EXTRN	??_ECTCPNetworkThreadDetect@@UAEPAXI@Z:PROC	; CTCPNetworkThreadDetect::`vector deleting destructor'
EXTRN	??_E?$CWHArray@PAVCTCPNetworkItem@@ABQAV1@@@UAEPAXI@Z:PROC ; CWHArray<CTCPNetworkItem *,CTCPNetworkItem * const &>::`vector deleting destructor'
EXTRN	??_E?$CWHArray@PAVCTCPNetworkThreadReadWrite@@ABQAV1@@@UAEPAXI@Z:PROC ; CWHArray<CTCPNetworkThreadReadWrite *,CTCPNetworkThreadReadWrite * const &>::`vector deleting destructor'
EXTRN	??_ECTCPNetworkEngine@@UAEPAXI@Z:PROC		; CTCPNetworkEngine::`vector deleting destructor'
EXTRN	?TraceString@CTraceServiceManager@@UAE_NPBDW4enTraceLevel@@@Z:PROC ; CTraceServiceManager::TraceString
EXTRN	??0LogMessage@internal@protobuf@google@@QAE@W4LogLevel@23@PBDH@Z:PROC ; google::protobuf::internal::LogMessage::LogMessage
EXTRN	??1LogMessage@internal@protobuf@google@@QAE@XZ:PROC ; google::protobuf::internal::LogMessage::~LogMessage
EXTRN	??6LogMessage@internal@protobuf@google@@QAEAAV0123@PBD@Z:PROC ; google::protobuf::internal::LogMessage::operator<<
EXTRN	??4LogFinisher@internal@protobuf@google@@QAEXAAVLogMessage@123@@Z:PROC ; google::protobuf::internal::LogFinisher::operator=
EXTRN	??1Closure@protobuf@google@@UAE@XZ:PROC		; google::protobuf::Closure::~Closure
EXTRN	??_EClosure@protobuf@google@@UAEPAXI@Z:PROC	; google::protobuf::Closure::`vector deleting destructor'
EXTRN	??1FunctionClosure0@internal@protobuf@google@@UAE@XZ:PROC ; google::protobuf::internal::FunctionClosure0::~FunctionClosure0
EXTRN	??_EFunctionClosure0@internal@protobuf@google@@UAEPAXI@Z:PROC ; google::protobuf::internal::FunctionClosure0::`vector deleting destructor'
EXTRN	?VerifyVersion@internal@protobuf@google@@YAXHHPBD@Z:PROC ; google::protobuf::internal::VerifyVersion
EXTRN	?ShutdownProtobufLibrary@protobuf@google@@YAXXZ:PROC ; google::protobuf::ShutdownProtobufLibrary
EXTRN	?OnShutdown@internal@protobuf@google@@YAXP6AXXZ@Z:PROC ; google::protobuf::internal::OnShutdown
EXTRN	?IncrementRecursionDepthAndPushLimit@CodedInputStream@io@protobuf@google@@QAE?AU?$pair@HH@std@@H@Z:PROC ; google::protobuf::io::CodedInputStream::IncrementRecursionDepthAndPushLimit
EXTRN	?DecrementRecursionDepthAndPopLimit@CodedInputStream@io@protobuf@google@@QAE_NH@Z:PROC ; google::protobuf::io::CodedInputStream::DecrementRecursionDepthAndPopLimit
EXTRN	?ReadVarint32Fallback@CodedInputStream@io@protobuf@google@@AAE_JI@Z:PROC ; google::protobuf::io::CodedInputStream::ReadVarint32Fallback
EXTRN	?ReadVarintSizeAsIntFallback@CodedInputStream@io@protobuf@google@@AAEHXZ:PROC ; google::protobuf::io::CodedInputStream::ReadVarintSizeAsIntFallback
EXTRN	?ReadVarint64Fallback@CodedInputStream@io@protobuf@google@@AAE?AU?$pair@_K_N@std@@XZ:PROC ; google::protobuf::io::CodedInputStream::ReadVarint64Fallback
EXTRN	?ReadTagFallback@CodedInputStream@io@protobuf@google@@AAEII@Z:PROC ; google::protobuf::io::CodedInputStream::ReadTagFallback
EXTRN	?WriteStringWithSizeToArray@CodedOutputStream@io@protobuf@google@@SAPAEABV?$basic_string@DU?$char_traits@D@std@@V?$allocator@D@2@@std@@PAE@Z:PROC ; google::protobuf::io::CodedOutputStream::WriteStringWithSizeToArray
EXTRN	?VarintSize64@CodedOutputStream@io@protobuf@google@@SAI_K@Z:PROC ; google::protobuf::io::CodedOutputStream::VarintSize64
EXTRN	?VarintSize32Fallback@CodedOutputStream@io@protobuf@google@@CAII@Z:PROC ; google::protobuf::io::CodedOutputStream::VarintSize32Fallback
EXTRN	?AllocateAligned@Arena@protobuf@google@@AAEPAXPBVtype_info@@I@Z:PROC ; google::protobuf::Arena::AllocateAligned
EXTRN	?AddListNode@Arena@protobuf@google@@AAEXPAXP6AX0@Z@Z:PROC ; google::protobuf::Arena::AddListNode
EXTRN	?AssignWithDefault@ArenaStringPtr@internal@protobuf@google@@QAEXPBV?$basic_string@DU?$char_traits@D@std@@V?$allocator@D@2@@std@@U1234@@Z:PROC ; google::protobuf::internal::ArenaStringPtr::AssignWithDefault
EXTRN	?GoogleOnceInitImpl@protobuf@google@@YAXPAHPAVClosure@12@@Z:PROC ; google::protobuf::GoogleOnceInitImpl
EXTRN	?InitProtobufDefaults@internal@protobuf@google@@YAXXZ:PROC ; google::protobuf::internal::InitProtobufDefaults
EXTRN	?MergeFrom@UnknownFieldSet@protobuf@google@@QAEXABV123@@Z:PROC ; google::protobuf::UnknownFieldSet::MergeFrom
EXTRN	?default_instance@UnknownFieldSet@protobuf@google@@SAPBV123@XZ:PROC ; google::protobuf::UnknownFieldSet::default_instance
EXTRN	?ClearFallback@UnknownFieldSet@protobuf@google@@AAEXXZ:PROC ; google::protobuf::UnknownFieldSet::ClearFallback
EXTRN	?New@MessageLite@protobuf@google@@UBEPAV123@PAVArena@23@@Z:PROC ; google::protobuf::MessageLite::New
EXTRN	?InitializationErrorString@MessageLite@protobuf@google@@UBE?AV?$basic_string@DU?$char_traits@D@std@@V?$allocator@D@2@@std@@XZ:PROC ; google::protobuf::MessageLite::InitializationErrorString
EXTRN	?ParseFromArray@MessageLite@protobuf@google@@QAE_NPBXH@Z:PROC ; google::protobuf::MessageLite::ParseFromArray
EXTRN	?SerializeToArray@MessageLite@protobuf@google@@QBE_NPAXH@Z:PROC ; google::protobuf::MessageLite::SerializeToArray
EXTRN	?InternalSerializeWithCachedSizesToArray@MessageLite@protobuf@google@@UBEPAE_NPAE@Z:PROC ; google::protobuf::MessageLite::InternalSerializeWithCachedSizesToArray
EXTRN	??_EMessageLite@protobuf@google@@UAEPAXI@Z:PROC	; google::protobuf::MessageLite::`vector deleting destructor'
EXTRN	?InternalAddGeneratedFile@DescriptorPool@protobuf@google@@SAXPBXH@Z:PROC ; google::protobuf::DescriptorPool::InternalAddGeneratedFile
EXTRN	?CopyFrom@Message@protobuf@google@@UAEXABV123@@Z:PROC ; google::protobuf::Message::CopyFrom
EXTRN	?MergeFrom@Message@protobuf@google@@UAEXABV123@@Z:PROC ; google::protobuf::Message::MergeFrom
EXTRN	?InitializationErrorString@Message@protobuf@google@@UBE?AV?$basic_string@DU?$char_traits@D@std@@V?$allocator@D@2@@std@@XZ:PROC ; google::protobuf::Message::InitializationErrorString
EXTRN	?DiscardUnknownFields@Message@protobuf@google@@UAEXXZ:PROC ; google::protobuf::Message::DiscardUnknownFields
EXTRN	?SpaceUsed@Message@protobuf@google@@UBEHXZ:PROC	; google::protobuf::Message::SpaceUsed
EXTRN	?GetTypeName@Message@protobuf@google@@UBE?AV?$basic_string@DU?$char_traits@D@std@@V?$allocator@D@2@@std@@XZ:PROC ; google::protobuf::Message::GetTypeName
EXTRN	?Clear@Message@protobuf@google@@UAEXXZ:PROC	; google::protobuf::Message::Clear
EXTRN	?IsInitialized@Message@protobuf@google@@UBE_NXZ:PROC ; google::protobuf::Message::IsInitialized
EXTRN	?CheckTypeAndMergeFrom@Message@protobuf@google@@UAEXABVMessageLite@23@@Z:PROC ; google::protobuf::Message::CheckTypeAndMergeFrom
EXTRN	?MergePartialFromCodedStream@Message@protobuf@google@@UAE_NPAVCodedInputStream@io@23@@Z:PROC ; google::protobuf::Message::MergePartialFromCodedStream
EXTRN	?ByteSizeLong@Message@protobuf@google@@UBEIXZ:PROC ; google::protobuf::Message::ByteSizeLong
EXTRN	?SerializeWithCachedSizes@Message@protobuf@google@@UBEXPAVCodedOutputStream@io@23@@Z:PROC ; google::protobuf::Message::SerializeWithCachedSizes
EXTRN	?SetCachedSize@Message@protobuf@google@@EBEXH@Z:PROC ; google::protobuf::Message::SetCachedSize
EXTRN	??_EMessage@protobuf@google@@UAEPAXI@Z:PROC	; google::protobuf::Message::`vector deleting destructor'
EXTRN	?InternalRegisterGeneratedFile@MessageFactory@protobuf@google@@SAXPBDP6AXABV?$basic_string@DU?$char_traits@D@std@@V?$allocator@D@2@@std@@@Z@Z:PROC ; google::protobuf::MessageFactory::InternalRegisterGeneratedFile
EXTRN	??_Erequest@NullPmd@@UAEPAXI@Z:PROC		; NullPmd::request::`vector deleting destructor'
EXTRN	??_Eresponse@NullPmd@@UAEPAXI@Z:PROC		; NullPmd::response::`vector deleting destructor'
EXTRN	??_Eindication@NullPmd@@UAEPAXI@Z:PROC		; NullPmd::indication::`vector deleting destructor'
EXTRN	??_Ecommand@NullPmd@@UAEPAXI@Z:PROC		; NullPmd::command::`vector deleting destructor'
EXTRN	??_Einfo@NullPmd@@UAEPAXI@Z:PROC		; NullPmd::info::`vector deleting destructor'
EXTRN	??_Ehead@NullPmd@@UAEPAXI@Z:PROC		; NullPmd::head::`vector deleting destructor'
EXTRN	??_Emessage@NullPmd@@UAEPAXI@Z:PROC		; NullPmd::message::`vector deleting destructor'
EXTRN	?SkipField@WireFormatLite@internal@protobuf@google@@SA_NPAVCodedInputStream@io@34@I@Z:PROC ; google::protobuf::internal::WireFormatLite::SkipField
EXTRN	?ReadBytes@WireFormatLite@internal@protobuf@google@@SA_NPAVCodedInputStream@io@34@PAV?$basic_string@DU?$char_traits@D@std@@V?$allocator@D@2@@std@@@Z:PROC ; google::protobuf::internal::WireFormatLite::ReadBytes
EXTRN	?VerifyUtf8String@WireFormatLite@internal@protobuf@google@@SA_NPBDHW4Operation@1234@0@Z:PROC ; google::protobuf::internal::WireFormatLite::VerifyUtf8String
EXTRN	?WriteInt32@WireFormatLite@internal@protobuf@google@@SAXHHPAVCodedOutputStream@io@34@@Z:PROC ; google::protobuf::internal::WireFormatLite::WriteInt32
EXTRN	?WriteUInt64@WireFormatLite@internal@protobuf@google@@SAXH_KPAVCodedOutputStream@io@34@@Z:PROC ; google::protobuf::internal::WireFormatLite::WriteUInt64
EXTRN	?WriteStringMaybeAliased@WireFormatLite@internal@protobuf@google@@SAXHABV?$basic_string@DU?$char_traits@D@std@@V?$allocator@D@2@@std@@PAVCodedOutputStream@io@34@@Z:PROC ; google::protobuf::internal::WireFormatLite::WriteStringMaybeAliased
EXTRN	?WriteBytesMaybeAliased@WireFormatLite@internal@protobuf@google@@SAXHABV?$basic_string@DU?$char_traits@D@std@@V?$allocator@D@2@@std@@PAVCodedOutputStream@io@34@@Z:PROC ; google::protobuf::internal::WireFormatLite::WriteBytesMaybeAliased
EXTRN	?WriteMessageMaybeToArray@WireFormatLite@internal@protobuf@google@@SAXHABVMessageLite@34@PAVCodedOutputStream@io@34@@Z:PROC ; google::protobuf::internal::WireFormatLite::WriteMessageMaybeToArray
EXTRN	?AssignDescriptors@internal@protobuf@google@@YAXABV?$basic_string@DU?$char_traits@D@std@@V?$allocator@D@2@@std@@PBUMigrationSchema@123@PBQBVMessage@23@PBIPAVMessageFactory@23@PAUMetadata@23@PAPBVEnumDescriptor@23@PAPBVServiceDescriptor@23@@Z:PROC ; google::protobuf::internal::AssignDescriptors
EXTRN	?RegisterAllTypes@internal@protobuf@google@@YAXPBUMetadata@23@H@Z:PROC ; google::protobuf::internal::RegisterAllTypes
EXTRN	?Merge@ReflectionOps@internal@protobuf@google@@SAXABVMessage@34@PAV534@@Z:PROC ; google::protobuf::internal::ReflectionOps::Merge
EXTRN	??_E?$_Ref_count@D@std@@UAEPAXI@Z:PROC		; std::_Ref_count<char>::`vector deleting destructor'
EXTRN	?ConcludeThread@CWHThread@@UAE_NK@Z:PROC	; CWHThread::ConcludeThread
EXTRN	?IsRuning@CWHThread@@UAE_NXZ:PROC		; CWHThread::IsRuning
EXTRN	?OnEventThreadConclude@CWHThread@@MAE_NXZ:PROC	; CWHThread::OnEventThreadConclude
EXTRN	?OnEventThreadStrat@CWHThread@@MAE_NXZ:PROC	; CWHThread::OnEventThreadStrat
EXTRN	?StartThread@CWHThread@@UAE_NXZ:PROC		; CWHThread::StartThread
EXTRN	@__security_check_cookie@4:PROC
EXTRN	__CxxThrowException@8:PROC
EXTRN	___CxxFrameHandler3:PROC
EXTRN	___RTDynamicCast:PROC
EXTRN	__aullshr:PROC
EXTRN	__chkstk:PROC
EXTRN	_memcmp:PROC
EXTRN	_memcpy:PROC
EXTRN	_memmove:PROC
EXTRN	_memset:PROC
EXTRN	??_7type_info@@6B@:QWORD			; type_info::`vftable'
EXTRN	?g_TraceServiceManager@@3VCTraceServiceManager@@A:BYTE ; g_TraceServiceManager
EXTRN	?default_serialization_deterministic_@CodedOutputStream@io@protobuf@google@@0_NA:BYTE ; google::protobuf::io::CodedOutputStream::default_serialization_deterministic_
EXTRN	?fixed_address_empty_string@internal@protobuf@google@@3V?$ExplicitlyConstructed@V?$basic_string@DU?$char_traits@D@std@@V?$allocator@D@2@@std@@@123@A:BYTE ; google::protobuf::internal::fixed_address_empty_string
EXTRN	___security_cookie:DWORD
;	COMDAT ?_OptionsStorage@?1??__local_stdio_printf_options@@9@4_KA
_BSS	SEGMENT
?_OptionsStorage@?1??__local_stdio_printf_options@@9@4_KA DQ 01H DUP (?) ; `__local_stdio_printf_options'::`2'::_OptionsStorage
_BSS	ENDS
;	COMDAT ?atlTraceException@ATL@@3V?$CTraceCategoryEx@$0CAAA@$0A@@1@A
_BSS	SEGMENT
?atlTraceException@ATL@@3V?$CTraceCategoryEx@$0CAAA@$0A@@1@A DD 01H DUP (?) ; ATL::atlTraceException
_BSS	ENDS
;	COMDAT ?once@?1??protobuf_AssignDescriptorsOnce@?A0x1abee5d0@protobuf_NullPmd_2eproto@NullPmd@@YAXXZ@4HA
_BSS	SEGMENT
?once@?1??protobuf_AssignDescriptorsOnce@?A0x1abee5d0@protobuf_NullPmd_2eproto@NullPmd@@YAXXZ@4HA DD 01H DUP (?) ; `NullPmd::protobuf_NullPmd_2eproto::`anonymous namespace'::protobuf_AssignDescriptorsOnce'::`2'::once
_BSS	ENDS
;	COMDAT ?once@?1??InitDefaults@protobuf_NullPmd_2eproto@NullPmd@@YAXXZ@4HA
_BSS	SEGMENT
?once@?1??InitDefaults@protobuf_NullPmd_2eproto@NullPmd@@YAXXZ@4HA DD 01H DUP (?) ; `NullPmd::protobuf_NullPmd_2eproto::InitDefaults'::`2'::once
_BSS	ENDS
;	COMDAT ?once@?1??AddDescriptors@protobuf_NullPmd_2eproto@NullPmd@@YAXXZ@4HA
_BSS	SEGMENT
?once@?1??AddDescriptors@protobuf_NullPmd_2eproto@NullPmd@@YAXXZ@4HA DD 01H DUP (?) ; `NullPmd::protobuf_NullPmd_2eproto::AddDescriptors'::`2'::once
_BSS	ENDS
_BSS	SEGMENT
?static_descriptor_initializer@protobuf_NullPmd_2eproto@NullPmd@@3UStaticDescriptorInitializer@12@A DB 01H DUP (?) ; NullPmd::protobuf_NullPmd_2eproto::static_descriptor_initializer
_BSS	ENDS
;	COMDAT CRT$XCU
CRT$XCU	SEGMENT
?atlTraceException$initializer$@ATL@@3P6AXXZA DD FLAT:??__EatlTraceException@ATL@@YAXXZ ; ATL::atlTraceException$initializer$
CRT$XCU	ENDS
;	COMDAT ??_R1A@?0A@EA@?$_Ref_count@D@std@@8
rdata$r	SEGMENT
??_R1A@?0A@EA@?$_Ref_count@D@std@@8 DD FLAT:??_R0?AV?$_Ref_count@D@std@@@8 ; std::_Ref_count<char>::`RTTI Base Class Descriptor at (0,-1,0,64)'
	DD	01H
	DD	00H
	DD	0ffffffffH
	DD	00H
	DD	040H
	DD	FLAT:??_R3?$_Ref_count@D@std@@8
rdata$r	ENDS
;	COMDAT ??_R2?$_Ref_count@D@std@@8
rdata$r	SEGMENT
??_R2?$_Ref_count@D@std@@8 DD FLAT:??_R1A@?0A@EA@?$_Ref_count@D@std@@8 ; std::_Ref_count<char>::`RTTI Base Class Array'
	DD	FLAT:??_R1A@?0A@EA@_Ref_count_base@std@@8
rdata$r	ENDS
;	COMDAT ??_R3?$_Ref_count@D@std@@8
rdata$r	SEGMENT
??_R3?$_Ref_count@D@std@@8 DD 00H			; std::_Ref_count<char>::`RTTI Class Hierarchy Descriptor'
	DD	00H
	DD	02H
	DD	FLAT:??_R2?$_Ref_count@D@std@@8
rdata$r	ENDS
;	COMDAT ??_R0?AV?$_Ref_count@D@std@@@8
data$r	SEGMENT
??_R0?AV?$_Ref_count@D@std@@@8 DD FLAT:??_7type_info@@6B@ ; std::_Ref_count<char> `RTTI Type Descriptor'
	DD	00H
	DB	'.?AV?$_Ref_count@D@std@@', 00H
data$r	ENDS
;	COMDAT ??_R4?$_Ref_count@D@std@@6B@
rdata$r	SEGMENT
??_R4?$_Ref_count@D@std@@6B@ DD 00H			; std::_Ref_count<char>::`RTTI Complete Object Locator'
	DD	00H
	DD	00H
	DD	FLAT:??_R0?AV?$_Ref_count@D@std@@@8
	DD	FLAT:??_R3?$_Ref_count@D@std@@8
rdata$r	ENDS
;	COMDAT ??_R1A@?0A@EA@response@NullPmd@@8
rdata$r	SEGMENT
??_R1A@?0A@EA@response@NullPmd@@8 DD FLAT:??_R0?AVresponse@NullPmd@@@8 ; NullPmd::response::`RTTI Base Class Descriptor at (0,-1,0,64)'
	DD	02H
	DD	00H
	DD	0ffffffffH
	DD	00H
	DD	040H
	DD	FLAT:??_R3response@NullPmd@@8
rdata$r	ENDS
;	COMDAT ??_R2response@NullPmd@@8
rdata$r	SEGMENT
??_R2response@NullPmd@@8 DD FLAT:??_R1A@?0A@EA@response@NullPmd@@8 ; NullPmd::response::`RTTI Base Class Array'
	DD	FLAT:??_R1A@?0A@EA@Message@protobuf@google@@8
	DD	FLAT:??_R1A@?0A@EA@MessageLite@protobuf@google@@8
rdata$r	ENDS
;	COMDAT ??_R3response@NullPmd@@8
rdata$r	SEGMENT
??_R3response@NullPmd@@8 DD 00H				; NullPmd::response::`RTTI Class Hierarchy Descriptor'
	DD	00H
	DD	03H
	DD	FLAT:??_R2response@NullPmd@@8
rdata$r	ENDS
;	COMDAT ??_R4response@NullPmd@@6B@
rdata$r	SEGMENT
??_R4response@NullPmd@@6B@ DD 00H			; NullPmd::response::`RTTI Complete Object Locator'
	DD	00H
	DD	00H
	DD	FLAT:??_R0?AVresponse@NullPmd@@@8
	DD	FLAT:??_R3response@NullPmd@@8
rdata$r	ENDS
;	COMDAT ??_R1A@?0A@EA@request@NullPmd@@8
rdata$r	SEGMENT
??_R1A@?0A@EA@request@NullPmd@@8 DD FLAT:??_R0?AVrequest@NullPmd@@@8 ; NullPmd::request::`RTTI Base Class Descriptor at (0,-1,0,64)'
	DD	02H
	DD	00H
	DD	0ffffffffH
	DD	00H
	DD	040H
	DD	FLAT:??_R3request@NullPmd@@8
rdata$r	ENDS
;	COMDAT ??_R2request@NullPmd@@8
rdata$r	SEGMENT
??_R2request@NullPmd@@8 DD FLAT:??_R1A@?0A@EA@request@NullPmd@@8 ; NullPmd::request::`RTTI Base Class Array'
	DD	FLAT:??_R1A@?0A@EA@Message@protobuf@google@@8
	DD	FLAT:??_R1A@?0A@EA@MessageLite@protobuf@google@@8
rdata$r	ENDS
;	COMDAT ??_R3request@NullPmd@@8
rdata$r	SEGMENT
??_R3request@NullPmd@@8 DD 00H				; NullPmd::request::`RTTI Class Hierarchy Descriptor'
	DD	00H
	DD	03H
	DD	FLAT:??_R2request@NullPmd@@8
rdata$r	ENDS
;	COMDAT ??_R4request@NullPmd@@6B@
rdata$r	SEGMENT
??_R4request@NullPmd@@6B@ DD 00H			; NullPmd::request::`RTTI Complete Object Locator'
	DD	00H
	DD	00H
	DD	FLAT:??_R0?AVrequest@NullPmd@@@8
	DD	FLAT:??_R3request@NullPmd@@8
rdata$r	ENDS
;	COMDAT ??_R1A@?0A@EA@message@NullPmd@@8
rdata$r	SEGMENT
??_R1A@?0A@EA@message@NullPmd@@8 DD FLAT:??_R0?AVmessage@NullPmd@@@8 ; NullPmd::message::`RTTI Base Class Descriptor at (0,-1,0,64)'
	DD	02H
	DD	00H
	DD	0ffffffffH
	DD	00H
	DD	040H
	DD	FLAT:??_R3message@NullPmd@@8
rdata$r	ENDS
;	COMDAT ??_R2message@NullPmd@@8
rdata$r	SEGMENT
??_R2message@NullPmd@@8 DD FLAT:??_R1A@?0A@EA@message@NullPmd@@8 ; NullPmd::message::`RTTI Base Class Array'
	DD	FLAT:??_R1A@?0A@EA@Message@protobuf@google@@8
	DD	FLAT:??_R1A@?0A@EA@MessageLite@protobuf@google@@8
rdata$r	ENDS
;	COMDAT ??_R3message@NullPmd@@8
rdata$r	SEGMENT
??_R3message@NullPmd@@8 DD 00H				; NullPmd::message::`RTTI Class Hierarchy Descriptor'
	DD	00H
	DD	03H
	DD	FLAT:??_R2message@NullPmd@@8
rdata$r	ENDS
;	COMDAT ??_R4message@NullPmd@@6B@
rdata$r	SEGMENT
??_R4message@NullPmd@@6B@ DD 00H			; NullPmd::message::`RTTI Complete Object Locator'
	DD	00H
	DD	00H
	DD	FLAT:??_R0?AVmessage@NullPmd@@@8
	DD	FLAT:??_R3message@NullPmd@@8
rdata$r	ENDS
;	COMDAT ??_R1A@?0A@EA@info@NullPmd@@8
rdata$r	SEGMENT
??_R1A@?0A@EA@info@NullPmd@@8 DD FLAT:??_R0?AVinfo@NullPmd@@@8 ; NullPmd::info::`RTTI Base Class Descriptor at (0,-1,0,64)'
	DD	02H
	DD	00H
	DD	0ffffffffH
	DD	00H
	DD	040H
	DD	FLAT:??_R3info@NullPmd@@8
rdata$r	ENDS
;	COMDAT ??_R2info@NullPmd@@8
rdata$r	SEGMENT
??_R2info@NullPmd@@8 DD FLAT:??_R1A@?0A@EA@info@NullPmd@@8 ; NullPmd::info::`RTTI Base Class Array'
	DD	FLAT:??_R1A@?0A@EA@Message@protobuf@google@@8
	DD	FLAT:??_R1A@?0A@EA@MessageLite@protobuf@google@@8
rdata$r	ENDS
;	COMDAT ??_R3info@NullPmd@@8
rdata$r	SEGMENT
??_R3info@NullPmd@@8 DD 00H				; NullPmd::info::`RTTI Class Hierarchy Descriptor'
	DD	00H
	DD	03H
	DD	FLAT:??_R2info@NullPmd@@8
rdata$r	ENDS
;	COMDAT ??_R4info@NullPmd@@6B@
rdata$r	SEGMENT
??_R4info@NullPmd@@6B@ DD 00H				; NullPmd::info::`RTTI Complete Object Locator'
	DD	00H
	DD	00H
	DD	FLAT:??_R0?AVinfo@NullPmd@@@8
	DD	FLAT:??_R3info@NullPmd@@8
rdata$r	ENDS
;	COMDAT ??_R1A@?0A@EA@indication@NullPmd@@8
rdata$r	SEGMENT
??_R1A@?0A@EA@indication@NullPmd@@8 DD FLAT:??_R0?AVindication@NullPmd@@@8 ; NullPmd::indication::`RTTI Base Class Descriptor at (0,-1,0,64)'
	DD	02H
	DD	00H
	DD	0ffffffffH
	DD	00H
	DD	040H
	DD	FLAT:??_R3indication@NullPmd@@8
rdata$r	ENDS
;	COMDAT ??_R2indication@NullPmd@@8
rdata$r	SEGMENT
??_R2indication@NullPmd@@8 DD FLAT:??_R1A@?0A@EA@indication@NullPmd@@8 ; NullPmd::indication::`RTTI Base Class Array'
	DD	FLAT:??_R1A@?0A@EA@Message@protobuf@google@@8
	DD	FLAT:??_R1A@?0A@EA@MessageLite@protobuf@google@@8
rdata$r	ENDS
;	COMDAT ??_R3indication@NullPmd@@8
rdata$r	SEGMENT
??_R3indication@NullPmd@@8 DD 00H			; NullPmd::indication::`RTTI Class Hierarchy Descriptor'
	DD	00H
	DD	03H
	DD	FLAT:??_R2indication@NullPmd@@8
rdata$r	ENDS
;	COMDAT ??_R4indication@NullPmd@@6B@
rdata$r	SEGMENT
??_R4indication@NullPmd@@6B@ DD 00H			; NullPmd::indication::`RTTI Complete Object Locator'
	DD	00H
	DD	00H
	DD	FLAT:??_R0?AVindication@NullPmd@@@8
	DD	FLAT:??_R3indication@NullPmd@@8
rdata$r	ENDS
;	COMDAT ??_R1A@?0A@EA@head@NullPmd@@8
rdata$r	SEGMENT
??_R1A@?0A@EA@head@NullPmd@@8 DD FLAT:??_R0?AVhead@NullPmd@@@8 ; NullPmd::head::`RTTI Base Class Descriptor at (0,-1,0,64)'
	DD	02H
	DD	00H
	DD	0ffffffffH
	DD	00H
	DD	040H
	DD	FLAT:??_R3head@NullPmd@@8
rdata$r	ENDS
;	COMDAT ??_R2head@NullPmd@@8
rdata$r	SEGMENT
??_R2head@NullPmd@@8 DD FLAT:??_R1A@?0A@EA@head@NullPmd@@8 ; NullPmd::head::`RTTI Base Class Array'
	DD	FLAT:??_R1A@?0A@EA@Message@protobuf@google@@8
	DD	FLAT:??_R1A@?0A@EA@MessageLite@protobuf@google@@8
rdata$r	ENDS
;	COMDAT ??_R3head@NullPmd@@8
rdata$r	SEGMENT
??_R3head@NullPmd@@8 DD 00H				; NullPmd::head::`RTTI Class Hierarchy Descriptor'
	DD	00H
	DD	03H
	DD	FLAT:??_R2head@NullPmd@@8
rdata$r	ENDS
;	COMDAT ??_R4head@NullPmd@@6B@
rdata$r	SEGMENT
??_R4head@NullPmd@@6B@ DD 00H				; NullPmd::head::`RTTI Complete Object Locator'
	DD	00H
	DD	00H
	DD	FLAT:??_R0?AVhead@NullPmd@@@8
	DD	FLAT:??_R3head@NullPmd@@8
rdata$r	ENDS
;	COMDAT ??_R1A@?0A@EA@command@NullPmd@@8
rdata$r	SEGMENT
??_R1A@?0A@EA@command@NullPmd@@8 DD FLAT:??_R0?AVcommand@NullPmd@@@8 ; NullPmd::command::`RTTI Base Class Descriptor at (0,-1,0,64)'
	DD	02H
	DD	00H
	DD	0ffffffffH
	DD	00H
	DD	040H
	DD	FLAT:??_R3command@NullPmd@@8
rdata$r	ENDS
;	COMDAT ??_R2command@NullPmd@@8
rdata$r	SEGMENT
??_R2command@NullPmd@@8 DD FLAT:??_R1A@?0A@EA@command@NullPmd@@8 ; NullPmd::command::`RTTI Base Class Array'
	DD	FLAT:??_R1A@?0A@EA@Message@protobuf@google@@8
	DD	FLAT:??_R1A@?0A@EA@MessageLite@protobuf@google@@8
rdata$r	ENDS
;	COMDAT ??_R3command@NullPmd@@8
rdata$r	SEGMENT
??_R3command@NullPmd@@8 DD 00H				; NullPmd::command::`RTTI Class Hierarchy Descriptor'
	DD	00H
	DD	03H
	DD	FLAT:??_R2command@NullPmd@@8
rdata$r	ENDS
;	COMDAT ??_R4command@NullPmd@@6B@
rdata$r	SEGMENT
??_R4command@NullPmd@@6B@ DD 00H			; NullPmd::command::`RTTI Complete Object Locator'
	DD	00H
	DD	00H
	DD	FLAT:??_R0?AVcommand@NullPmd@@@8
	DD	FLAT:??_R3command@NullPmd@@8
rdata$r	ENDS
;	COMDAT ??_R4MessageLite@protobuf@google@@6B@
rdata$r	SEGMENT
??_R4MessageLite@protobuf@google@@6B@ DD 00H		; google::protobuf::MessageLite::`RTTI Complete Object Locator'
	DD	00H
	DD	00H
	DD	FLAT:??_R0?AVMessageLite@protobuf@google@@@8
	DD	FLAT:??_R3MessageLite@protobuf@google@@8
rdata$r	ENDS
;	COMDAT ??_R2MessageLite@protobuf@google@@8
rdata$r	SEGMENT
??_R2MessageLite@protobuf@google@@8 DD FLAT:??_R1A@?0A@EA@MessageLite@protobuf@google@@8 ; google::protobuf::MessageLite::`RTTI Base Class Array'
rdata$r	ENDS
;	COMDAT ??_R3MessageLite@protobuf@google@@8
rdata$r	SEGMENT
??_R3MessageLite@protobuf@google@@8 DD 00H		; google::protobuf::MessageLite::`RTTI Class Hierarchy Descriptor'
	DD	00H
	DD	01H
	DD	FLAT:??_R2MessageLite@protobuf@google@@8
rdata$r	ENDS
;	COMDAT ??_R0?AVMessageLite@protobuf@google@@@8
data$r	SEGMENT
??_R0?AVMessageLite@protobuf@google@@@8 DD FLAT:??_7type_info@@6B@ ; google::protobuf::MessageLite `RTTI Type Descriptor'
	DD	00H
	DB	'.?AVMessageLite@protobuf@google@@', 00H
data$r	ENDS
;	COMDAT ??_R1A@?0A@EA@MessageLite@protobuf@google@@8
rdata$r	SEGMENT
??_R1A@?0A@EA@MessageLite@protobuf@google@@8 DD FLAT:??_R0?AVMessageLite@protobuf@google@@@8 ; google::protobuf::MessageLite::`RTTI Base Class Descriptor at (0,-1,0,64)'
	DD	00H
	DD	00H
	DD	0ffffffffH
	DD	00H
	DD	040H
	DD	FLAT:??_R3MessageLite@protobuf@google@@8
rdata$r	ENDS
;	COMDAT ??_R1A@?0A@EA@Message@protobuf@google@@8
rdata$r	SEGMENT
??_R1A@?0A@EA@Message@protobuf@google@@8 DD FLAT:??_R0?AVMessage@protobuf@google@@@8 ; google::protobuf::Message::`RTTI Base Class Descriptor at (0,-1,0,64)'
	DD	01H
	DD	00H
	DD	0ffffffffH
	DD	00H
	DD	040H
	DD	FLAT:??_R3Message@protobuf@google@@8
rdata$r	ENDS
;	COMDAT ??_R2Message@protobuf@google@@8
rdata$r	SEGMENT
??_R2Message@protobuf@google@@8 DD FLAT:??_R1A@?0A@EA@Message@protobuf@google@@8 ; google::protobuf::Message::`RTTI Base Class Array'
	DD	FLAT:??_R1A@?0A@EA@MessageLite@protobuf@google@@8
rdata$r	ENDS
;	COMDAT ??_R3Message@protobuf@google@@8
rdata$r	SEGMENT
??_R3Message@protobuf@google@@8 DD 00H			; google::protobuf::Message::`RTTI Class Hierarchy Descriptor'
	DD	00H
	DD	02H
	DD	FLAT:??_R2Message@protobuf@google@@8
rdata$r	ENDS
;	COMDAT ??_R4Message@protobuf@google@@6B@
rdata$r	SEGMENT
??_R4Message@protobuf@google@@6B@ DD 00H		; google::protobuf::Message::`RTTI Complete Object Locator'
	DD	00H
	DD	00H
	DD	FLAT:??_R0?AVMessage@protobuf@google@@@8
	DD	FLAT:??_R3Message@protobuf@google@@8
rdata$r	ENDS
;	COMDAT ??_R1A@?0A@EA@FunctionClosure0@internal@protobuf@google@@8
rdata$r	SEGMENT
??_R1A@?0A@EA@FunctionClosure0@internal@protobuf@google@@8 DD FLAT:??_R0?AVFunctionClosure0@internal@protobuf@google@@@8 ; google::protobuf::internal::FunctionClosure0::`RTTI Base Class Descriptor at (0,-1,0,64)'
	DD	01H
	DD	00H
	DD	0ffffffffH
	DD	00H
	DD	040H
	DD	FLAT:??_R3FunctionClosure0@internal@protobuf@google@@8
rdata$r	ENDS
;	COMDAT ??_R2FunctionClosure0@internal@protobuf@google@@8
rdata$r	SEGMENT
??_R2FunctionClosure0@internal@protobuf@google@@8 DD FLAT:??_R1A@?0A@EA@FunctionClosure0@internal@protobuf@google@@8 ; google::protobuf::internal::FunctionClosure0::`RTTI Base Class Array'
	DD	FLAT:??_R1A@?0A@EA@Closure@protobuf@google@@8
rdata$r	ENDS
;	COMDAT ??_R3FunctionClosure0@internal@protobuf@google@@8
rdata$r	SEGMENT
??_R3FunctionClosure0@internal@protobuf@google@@8 DD 00H ; google::protobuf::internal::FunctionClosure0::`RTTI Class Hierarchy Descriptor'
	DD	00H
	DD	02H
	DD	FLAT:??_R2FunctionClosure0@internal@protobuf@google@@8
rdata$r	ENDS
;	COMDAT ??_R0?AVFunctionClosure0@internal@protobuf@google@@@8
data$r	SEGMENT
??_R0?AVFunctionClosure0@internal@protobuf@google@@@8 DD FLAT:??_7type_info@@6B@ ; google::protobuf::internal::FunctionClosure0 `RTTI Type Descriptor'
	DD	00H
	DB	'.?AVFunctionClosure0@internal@protobuf@google@@', 00H
data$r	ENDS
;	COMDAT ??_R4FunctionClosure0@internal@protobuf@google@@6B@
rdata$r	SEGMENT
??_R4FunctionClosure0@internal@protobuf@google@@6B@ DD 00H ; google::protobuf::internal::FunctionClosure0::`RTTI Complete Object Locator'
	DD	00H
	DD	00H
	DD	FLAT:??_R0?AVFunctionClosure0@internal@protobuf@google@@@8
	DD	FLAT:??_R3FunctionClosure0@internal@protobuf@google@@8
rdata$r	ENDS
;	COMDAT ??_R1A@?0A@EA@Closure@protobuf@google@@8
rdata$r	SEGMENT
??_R1A@?0A@EA@Closure@protobuf@google@@8 DD FLAT:??_R0?AVClosure@protobuf@google@@@8 ; google::protobuf::Closure::`RTTI Base Class Descriptor at (0,-1,0,64)'
	DD	00H
	DD	00H
	DD	0ffffffffH
	DD	00H
	DD	040H
	DD	FLAT:??_R3Closure@protobuf@google@@8
rdata$r	ENDS
;	COMDAT ??_R2Closure@protobuf@google@@8
rdata$r	SEGMENT
??_R2Closure@protobuf@google@@8 DD FLAT:??_R1A@?0A@EA@Closure@protobuf@google@@8 ; google::protobuf::Closure::`RTTI Base Class Array'
rdata$r	ENDS
;	COMDAT ??_R3Closure@protobuf@google@@8
rdata$r	SEGMENT
??_R3Closure@protobuf@google@@8 DD 00H			; google::protobuf::Closure::`RTTI Class Hierarchy Descriptor'
	DD	00H
	DD	01H
	DD	FLAT:??_R2Closure@protobuf@google@@8
rdata$r	ENDS
;	COMDAT ??_R0?AVClosure@protobuf@google@@@8
data$r	SEGMENT
??_R0?AVClosure@protobuf@google@@@8 DD FLAT:??_7type_info@@6B@ ; google::protobuf::Closure `RTTI Type Descriptor'
	DD	00H
	DB	'.?AVClosure@protobuf@google@@', 00H
data$r	ENDS
;	COMDAT ??_R4Closure@protobuf@google@@6B@
rdata$r	SEGMENT
??_R4Closure@protobuf@google@@6B@ DD 00H		; google::protobuf::Closure::`RTTI Complete Object Locator'
	DD	00H
	DD	00H
	DD	FLAT:??_R0?AVClosure@protobuf@google@@@8
	DD	FLAT:??_R3Closure@protobuf@google@@8
rdata$r	ENDS
;	COMDAT ??_R1A@?0A@EA@?$CWHArray@PAVCTCPNetworkThreadReadWrite@@ABQAV1@@@8
rdata$r	SEGMENT
??_R1A@?0A@EA@?$CWHArray@PAVCTCPNetworkThreadReadWrite@@ABQAV1@@@8 DD FLAT:??_R0?AV?$CWHArray@PAVCTCPNetworkThreadReadWrite@@ABQAV1@@@@8 ; CWHArray<CTCPNetworkThreadReadWrite *,CTCPNetworkThreadReadWrite * const &>::`RTTI Base Class Descriptor at (0,-1,0,64)'
	DD	00H
	DD	00H
	DD	0ffffffffH
	DD	00H
	DD	040H
	DD	FLAT:??_R3?$CWHArray@PAVCTCPNetworkThreadReadWrite@@ABQAV1@@@8
rdata$r	ENDS
;	COMDAT ??_R2?$CWHArray@PAVCTCPNetworkThreadReadWrite@@ABQAV1@@@8
rdata$r	SEGMENT
??_R2?$CWHArray@PAVCTCPNetworkThreadReadWrite@@ABQAV1@@@8 DD FLAT:??_R1A@?0A@EA@?$CWHArray@PAVCTCPNetworkThreadReadWrite@@ABQAV1@@@8 ; CWHArray<CTCPNetworkThreadReadWrite *,CTCPNetworkThreadReadWrite * const &>::`RTTI Base Class Array'
rdata$r	ENDS
;	COMDAT ??_R3?$CWHArray@PAVCTCPNetworkThreadReadWrite@@ABQAV1@@@8
rdata$r	SEGMENT
??_R3?$CWHArray@PAVCTCPNetworkThreadReadWrite@@ABQAV1@@@8 DD 00H ; CWHArray<CTCPNetworkThreadReadWrite *,CTCPNetworkThreadReadWrite * const &>::`RTTI Class Hierarchy Descriptor'
	DD	00H
	DD	01H
	DD	FLAT:??_R2?$CWHArray@PAVCTCPNetworkThreadReadWrite@@ABQAV1@@@8
rdata$r	ENDS
;	COMDAT ??_R0?AV?$CWHArray@PAVCTCPNetworkThreadReadWrite@@ABQAV1@@@@8
data$r	SEGMENT
??_R0?AV?$CWHArray@PAVCTCPNetworkThreadReadWrite@@ABQAV1@@@@8 DD FLAT:??_7type_info@@6B@ ; CWHArray<CTCPNetworkThreadReadWrite *,CTCPNetworkThreadReadWrite * const &> `RTTI Type Descriptor'
	DD	00H
	DB	'.?AV?$CWHArray@PAVCTCPNetworkThreadReadWrite@@ABQAV1@@@', 00H
data$r	ENDS
;	COMDAT ??_R4?$CWHArray@PAVCTCPNetworkThreadReadWrite@@ABQAV1@@@6B@
rdata$r	SEGMENT
??_R4?$CWHArray@PAVCTCPNetworkThreadReadWrite@@ABQAV1@@@6B@ DD 00H ; CWHArray<CTCPNetworkThreadReadWrite *,CTCPNetworkThreadReadWrite * const &>::`RTTI Complete Object Locator'
	DD	00H
	DD	00H
	DD	FLAT:??_R0?AV?$CWHArray@PAVCTCPNetworkThreadReadWrite@@ABQAV1@@@@8
	DD	FLAT:??_R3?$CWHArray@PAVCTCPNetworkThreadReadWrite@@ABQAV1@@@8
rdata$r	ENDS
;	COMDAT ??_R1A@?0A@EA@?$CWHArray@PAVCTCPNetworkItem@@ABQAV1@@@8
rdata$r	SEGMENT
??_R1A@?0A@EA@?$CWHArray@PAVCTCPNetworkItem@@ABQAV1@@@8 DD FLAT:??_R0?AV?$CWHArray@PAVCTCPNetworkItem@@ABQAV1@@@@8 ; CWHArray<CTCPNetworkItem *,CTCPNetworkItem * const &>::`RTTI Base Class Descriptor at (0,-1,0,64)'
	DD	00H
	DD	00H
	DD	0ffffffffH
	DD	00H
	DD	040H
	DD	FLAT:??_R3?$CWHArray@PAVCTCPNetworkItem@@ABQAV1@@@8
rdata$r	ENDS
;	COMDAT ??_R2?$CWHArray@PAVCTCPNetworkItem@@ABQAV1@@@8
rdata$r	SEGMENT
??_R2?$CWHArray@PAVCTCPNetworkItem@@ABQAV1@@@8 DD FLAT:??_R1A@?0A@EA@?$CWHArray@PAVCTCPNetworkItem@@ABQAV1@@@8 ; CWHArray<CTCPNetworkItem *,CTCPNetworkItem * const &>::`RTTI Base Class Array'
rdata$r	ENDS
;	COMDAT ??_R3?$CWHArray@PAVCTCPNetworkItem@@ABQAV1@@@8
rdata$r	SEGMENT
??_R3?$CWHArray@PAVCTCPNetworkItem@@ABQAV1@@@8 DD 00H	; CWHArray<CTCPNetworkItem *,CTCPNetworkItem * const &>::`RTTI Class Hierarchy Descriptor'
	DD	00H
	DD	01H
	DD	FLAT:??_R2?$CWHArray@PAVCTCPNetworkItem@@ABQAV1@@@8
rdata$r	ENDS
;	COMDAT ??_R0?AV?$CWHArray@PAVCTCPNetworkItem@@ABQAV1@@@@8
data$r	SEGMENT
??_R0?AV?$CWHArray@PAVCTCPNetworkItem@@ABQAV1@@@@8 DD FLAT:??_7type_info@@6B@ ; CWHArray<CTCPNetworkItem *,CTCPNetworkItem * const &> `RTTI Type Descriptor'
	DD	00H
	DB	'.?AV?$CWHArray@PAVCTCPNetworkItem@@ABQAV1@@@', 00H
data$r	ENDS
;	COMDAT ??_R4?$CWHArray@PAVCTCPNetworkItem@@ABQAV1@@@6B@
rdata$r	SEGMENT
??_R4?$CWHArray@PAVCTCPNetworkItem@@ABQAV1@@@6B@ DD 00H	; CWHArray<CTCPNetworkItem *,CTCPNetworkItem * const &>::`RTTI Complete Object Locator'
	DD	00H
	DD	00H
	DD	FLAT:??_R0?AV?$CWHArray@PAVCTCPNetworkItem@@ABQAV1@@@@8
	DD	FLAT:??_R3?$CWHArray@PAVCTCPNetworkItem@@ABQAV1@@@8
rdata$r	ENDS
;	COMDAT ??_R1A@?0A@EA@CTCPNetworkThreadDetect@@8
rdata$r	SEGMENT
??_R1A@?0A@EA@CTCPNetworkThreadDetect@@8 DD FLAT:??_R0?AVCTCPNetworkThreadDetect@@@8 ; CTCPNetworkThreadDetect::`RTTI Base Class Descriptor at (0,-1,0,64)'
	DD	01H
	DD	00H
	DD	0ffffffffH
	DD	00H
	DD	040H
	DD	FLAT:??_R3CTCPNetworkThreadDetect@@8
rdata$r	ENDS
;	COMDAT ??_R2CTCPNetworkThreadDetect@@8
rdata$r	SEGMENT
??_R2CTCPNetworkThreadDetect@@8 DD FLAT:??_R1A@?0A@EA@CTCPNetworkThreadDetect@@8 ; CTCPNetworkThreadDetect::`RTTI Base Class Array'
	DD	FLAT:??_R1A@?0A@EA@CWHThread@@8
rdata$r	ENDS
;	COMDAT ??_R3CTCPNetworkThreadDetect@@8
rdata$r	SEGMENT
??_R3CTCPNetworkThreadDetect@@8 DD 00H			; CTCPNetworkThreadDetect::`RTTI Class Hierarchy Descriptor'
	DD	00H
	DD	02H
	DD	FLAT:??_R2CTCPNetworkThreadDetect@@8
rdata$r	ENDS
;	COMDAT ??_R0?AVCTCPNetworkThreadDetect@@@8
data$r	SEGMENT
??_R0?AVCTCPNetworkThreadDetect@@@8 DD FLAT:??_7type_info@@6B@ ; CTCPNetworkThreadDetect `RTTI Type Descriptor'
	DD	00H
	DB	'.?AVCTCPNetworkThreadDetect@@', 00H
data$r	ENDS
;	COMDAT ??_R4CTCPNetworkThreadDetect@@6B@
rdata$r	SEGMENT
??_R4CTCPNetworkThreadDetect@@6B@ DD 00H		; CTCPNetworkThreadDetect::`RTTI Complete Object Locator'
	DD	00H
	DD	00H
	DD	FLAT:??_R0?AVCTCPNetworkThreadDetect@@@8
	DD	FLAT:??_R3CTCPNetworkThreadDetect@@8
rdata$r	ENDS
;	COMDAT ??_R1A@?0A@EA@CTCPNetworkThreadAccept@@8
rdata$r	SEGMENT
??_R1A@?0A@EA@CTCPNetworkThreadAccept@@8 DD FLAT:??_R0?AVCTCPNetworkThreadAccept@@@8 ; CTCPNetworkThreadAccept::`RTTI Base Class Descriptor at (0,-1,0,64)'
	DD	01H
	DD	00H
	DD	0ffffffffH
	DD	00H
	DD	040H
	DD	FLAT:??_R3CTCPNetworkThreadAccept@@8
rdata$r	ENDS
;	COMDAT ??_R2CTCPNetworkThreadAccept@@8
rdata$r	SEGMENT
??_R2CTCPNetworkThreadAccept@@8 DD FLAT:??_R1A@?0A@EA@CTCPNetworkThreadAccept@@8 ; CTCPNetworkThreadAccept::`RTTI Base Class Array'
	DD	FLAT:??_R1A@?0A@EA@CWHThread@@8
rdata$r	ENDS
;	COMDAT ??_R3CTCPNetworkThreadAccept@@8
rdata$r	SEGMENT
??_R3CTCPNetworkThreadAccept@@8 DD 00H			; CTCPNetworkThreadAccept::`RTTI Class Hierarchy Descriptor'
	DD	00H
	DD	02H
	DD	FLAT:??_R2CTCPNetworkThreadAccept@@8
rdata$r	ENDS
;	COMDAT ??_R0?AVCTCPNetworkThreadAccept@@@8
data$r	SEGMENT
??_R0?AVCTCPNetworkThreadAccept@@@8 DD FLAT:??_7type_info@@6B@ ; CTCPNetworkThreadAccept `RTTI Type Descriptor'
	DD	00H
	DB	'.?AVCTCPNetworkThreadAccept@@', 00H
data$r	ENDS
;	COMDAT ??_R4CTCPNetworkThreadAccept@@6B@
rdata$r	SEGMENT
??_R4CTCPNetworkThreadAccept@@6B@ DD 00H		; CTCPNetworkThreadAccept::`RTTI Complete Object Locator'
	DD	00H
	DD	00H
	DD	FLAT:??_R0?AVCTCPNetworkThreadAccept@@@8
	DD	FLAT:??_R3CTCPNetworkThreadAccept@@8
rdata$r	ENDS
;	COMDAT ??_R2CWHThread@@8
rdata$r	SEGMENT
??_R2CWHThread@@8 DD FLAT:??_R1A@?0A@EA@CWHThread@@8	; CWHThread::`RTTI Base Class Array'
rdata$r	ENDS
;	COMDAT ??_R3CWHThread@@8
rdata$r	SEGMENT
??_R3CWHThread@@8 DD 00H				; CWHThread::`RTTI Class Hierarchy Descriptor'
	DD	00H
	DD	01H
	DD	FLAT:??_R2CWHThread@@8
rdata$r	ENDS
;	COMDAT ??_R0?AVCWHThread@@@8
data$r	SEGMENT
??_R0?AVCWHThread@@@8 DD FLAT:??_7type_info@@6B@	; CWHThread `RTTI Type Descriptor'
	DD	00H
	DB	'.?AVCWHThread@@', 00H
data$r	ENDS
;	COMDAT ??_R1A@?0A@EA@CWHThread@@8
rdata$r	SEGMENT
??_R1A@?0A@EA@CWHThread@@8 DD FLAT:??_R0?AVCWHThread@@@8 ; CWHThread::`RTTI Base Class Descriptor at (0,-1,0,64)'
	DD	00H
	DD	00H
	DD	0ffffffffH
	DD	00H
	DD	040H
	DD	FLAT:??_R3CWHThread@@8
rdata$r	ENDS
;	COMDAT ??_R1A@?0A@EA@CTCPNetworkThreadReadWrite@@8
rdata$r	SEGMENT
??_R1A@?0A@EA@CTCPNetworkThreadReadWrite@@8 DD FLAT:??_R0?AVCTCPNetworkThreadReadWrite@@@8 ; CTCPNetworkThreadReadWrite::`RTTI Base Class Descriptor at (0,-1,0,64)'
	DD	01H
	DD	00H
	DD	0ffffffffH
	DD	00H
	DD	040H
	DD	FLAT:??_R3CTCPNetworkThreadReadWrite@@8
rdata$r	ENDS
;	COMDAT ??_R2CTCPNetworkThreadReadWrite@@8
rdata$r	SEGMENT
??_R2CTCPNetworkThreadReadWrite@@8 DD FLAT:??_R1A@?0A@EA@CTCPNetworkThreadReadWrite@@8 ; CTCPNetworkThreadReadWrite::`RTTI Base Class Array'
	DD	FLAT:??_R1A@?0A@EA@CWHThread@@8
rdata$r	ENDS
;	COMDAT ??_R3CTCPNetworkThreadReadWrite@@8
rdata$r	SEGMENT
??_R3CTCPNetworkThreadReadWrite@@8 DD 00H		; CTCPNetworkThreadReadWrite::`RTTI Class Hierarchy Descriptor'
	DD	00H
	DD	02H
	DD	FLAT:??_R2CTCPNetworkThreadReadWrite@@8
rdata$r	ENDS
;	COMDAT ??_R0?AVCTCPNetworkThreadReadWrite@@@8
data$r	SEGMENT
??_R0?AVCTCPNetworkThreadReadWrite@@@8 DD FLAT:??_7type_info@@6B@ ; CTCPNetworkThreadReadWrite `RTTI Type Descriptor'
	DD	00H
	DB	'.?AVCTCPNetworkThreadReadWrite@@', 00H
data$r	ENDS
;	COMDAT ??_R4CTCPNetworkThreadReadWrite@@6B@
rdata$r	SEGMENT
??_R4CTCPNetworkThreadReadWrite@@6B@ DD 00H		; CTCPNetworkThreadReadWrite::`RTTI Complete Object Locator'
	DD	00H
	DD	00H
	DD	FLAT:??_R0?AVCTCPNetworkThreadReadWrite@@@8
	DD	FLAT:??_R3CTCPNetworkThreadReadWrite@@8
rdata$r	ENDS
;	COMDAT ??_R4COverLapped@@6B@
rdata$r	SEGMENT
??_R4COverLapped@@6B@ DD 00H				; COverLapped::`RTTI Complete Object Locator'
	DD	00H
	DD	00H
	DD	FLAT:??_R0?AVCOverLapped@@@8
	DD	FLAT:??_R3COverLapped@@8
rdata$r	ENDS
;	COMDAT ??_R4ITCPNetworkItemSink@@6B@
rdata$r	SEGMENT
??_R4ITCPNetworkItemSink@@6B@ DD 00H			; ITCPNetworkItemSink::`RTTI Complete Object Locator'
	DD	00H
	DD	00H
	DD	FLAT:??_R0?AUITCPNetworkItemSink@@@8
	DD	FLAT:??_R3ITCPNetworkItemSink@@8
rdata$r	ENDS
;	COMDAT ??_R1A@?0A@EA@?$CWHArray@PAVCOverLappedSend@@ABQAV1@@@8
rdata$r	SEGMENT
??_R1A@?0A@EA@?$CWHArray@PAVCOverLappedSend@@ABQAV1@@@8 DD FLAT:??_R0?AV?$CWHArray@PAVCOverLappedSend@@ABQAV1@@@@8 ; CWHArray<COverLappedSend *,COverLappedSend * const &>::`RTTI Base Class Descriptor at (0,-1,0,64)'
	DD	00H
	DD	00H
	DD	0ffffffffH
	DD	00H
	DD	040H
	DD	FLAT:??_R3?$CWHArray@PAVCOverLappedSend@@ABQAV1@@@8
rdata$r	ENDS
;	COMDAT ??_R2?$CWHArray@PAVCOverLappedSend@@ABQAV1@@@8
rdata$r	SEGMENT
??_R2?$CWHArray@PAVCOverLappedSend@@ABQAV1@@@8 DD FLAT:??_R1A@?0A@EA@?$CWHArray@PAVCOverLappedSend@@ABQAV1@@@8 ; CWHArray<COverLappedSend *,COverLappedSend * const &>::`RTTI Base Class Array'
rdata$r	ENDS
;	COMDAT ??_R3?$CWHArray@PAVCOverLappedSend@@ABQAV1@@@8
rdata$r	SEGMENT
??_R3?$CWHArray@PAVCOverLappedSend@@ABQAV1@@@8 DD 00H	; CWHArray<COverLappedSend *,COverLappedSend * const &>::`RTTI Class Hierarchy Descriptor'
	DD	00H
	DD	01H
	DD	FLAT:??_R2?$CWHArray@PAVCOverLappedSend@@ABQAV1@@@8
rdata$r	ENDS
;	COMDAT ??_R0?AV?$CWHArray@PAVCOverLappedSend@@ABQAV1@@@@8
data$r	SEGMENT
??_R0?AV?$CWHArray@PAVCOverLappedSend@@ABQAV1@@@@8 DD FLAT:??_7type_info@@6B@ ; CWHArray<COverLappedSend *,COverLappedSend * const &> `RTTI Type Descriptor'
	DD	00H
	DB	'.?AV?$CWHArray@PAVCOverLappedSend@@ABQAV1@@@', 00H
data$r	ENDS
;	COMDAT ??_R4?$CWHArray@PAVCOverLappedSend@@ABQAV1@@@6B@
rdata$r	SEGMENT
??_R4?$CWHArray@PAVCOverLappedSend@@ABQAV1@@@6B@ DD 00H	; CWHArray<COverLappedSend *,COverLappedSend * const &>::`RTTI Complete Object Locator'
	DD	00H
	DD	00H
	DD	FLAT:??_R0?AV?$CWHArray@PAVCOverLappedSend@@ABQAV1@@@@8
	DD	FLAT:??_R3?$CWHArray@PAVCOverLappedSend@@ABQAV1@@@8
rdata$r	ENDS
;	COMDAT ??_R4CTCPNetworkEngine@@6BITCPNetworkItemSink@@@
rdata$r	SEGMENT
??_R4CTCPNetworkEngine@@6BITCPNetworkItemSink@@@ DD 00H	; CTCPNetworkEngine::`RTTI Complete Object Locator'
	DD	08H
	DD	00H
	DD	FLAT:??_R0?AVCTCPNetworkEngine@@@8
	DD	FLAT:??_R3CTCPNetworkEngine@@8
rdata$r	ENDS
;	COMDAT ??_R4CTCPNetworkEngine@@6BIAsynchronismEngineSink@@@
rdata$r	SEGMENT
??_R4CTCPNetworkEngine@@6BIAsynchronismEngineSink@@@ DD 00H ; CTCPNetworkEngine::`RTTI Complete Object Locator'
	DD	04H
	DD	00H
	DD	FLAT:??_R0?AVCTCPNetworkEngine@@@8
	DD	FLAT:??_R3CTCPNetworkEngine@@8
rdata$r	ENDS
;	COMDAT ??_R1A@?0A@EA@ITCPNetworkItemSink@@8
rdata$r	SEGMENT
??_R1A@?0A@EA@ITCPNetworkItemSink@@8 DD FLAT:??_R0?AUITCPNetworkItemSink@@@8 ; ITCPNetworkItemSink::`RTTI Base Class Descriptor at (0,-1,0,64)'
	DD	00H
	DD	00H
	DD	0ffffffffH
	DD	00H
	DD	040H
	DD	FLAT:??_R3ITCPNetworkItemSink@@8
rdata$r	ENDS
;	COMDAT ??_R2ITCPNetworkItemSink@@8
rdata$r	SEGMENT
??_R2ITCPNetworkItemSink@@8 DD FLAT:??_R1A@?0A@EA@ITCPNetworkItemSink@@8 ; ITCPNetworkItemSink::`RTTI Base Class Array'
rdata$r	ENDS
;	COMDAT ??_R3ITCPNetworkItemSink@@8
rdata$r	SEGMENT
??_R3ITCPNetworkItemSink@@8 DD 00H			; ITCPNetworkItemSink::`RTTI Class Hierarchy Descriptor'
	DD	00H
	DD	01H
	DD	FLAT:??_R2ITCPNetworkItemSink@@8
rdata$r	ENDS
;	COMDAT ??_R0?AUITCPNetworkItemSink@@@8
data$r	SEGMENT
??_R0?AUITCPNetworkItemSink@@@8 DD FLAT:??_7type_info@@6B@ ; ITCPNetworkItemSink `RTTI Type Descriptor'
	DD	00H
	DB	'.?AUITCPNetworkItemSink@@', 00H
data$r	ENDS
;	COMDAT ??_R17?0A@EA@ITCPNetworkItemSink@@8
rdata$r	SEGMENT
??_R17?0A@EA@ITCPNetworkItemSink@@8 DD FLAT:??_R0?AUITCPNetworkItemSink@@@8 ; ITCPNetworkItemSink::`RTTI Base Class Descriptor at (8,-1,0,64)'
	DD	00H
	DD	08H
	DD	0ffffffffH
	DD	00H
	DD	040H
	DD	FLAT:??_R3ITCPNetworkItemSink@@8
rdata$r	ENDS
;	COMDAT ??_R13?0A@EC@IUnknownEx@@8
rdata$r	SEGMENT
??_R13?0A@EC@IUnknownEx@@8 DD FLAT:??_R0?AUIUnknownEx@@@8 ; IUnknownEx::`RTTI Base Class Descriptor at (4,-1,0,66)'
	DD	00H
	DD	04H
	DD	0ffffffffH
	DD	00H
	DD	042H
	DD	FLAT:??_R3IUnknownEx@@8
rdata$r	ENDS
;	COMDAT ??_R13?0A@EA@IAsynchronismEngineSink@@8
rdata$r	SEGMENT
??_R13?0A@EA@IAsynchronismEngineSink@@8 DD FLAT:??_R0?AUIAsynchronismEngineSink@@@8 ; IAsynchronismEngineSink::`RTTI Base Class Descriptor at (4,-1,0,64)'
	DD	01H
	DD	04H
	DD	0ffffffffH
	DD	00H
	DD	040H
	DD	FLAT:??_R3IAsynchronismEngineSink@@8
rdata$r	ENDS
;	COMDAT ??_R1A@?0A@EC@IUnknownEx@@8
rdata$r	SEGMENT
??_R1A@?0A@EC@IUnknownEx@@8 DD FLAT:??_R0?AUIUnknownEx@@@8 ; IUnknownEx::`RTTI Base Class Descriptor at (0,-1,0,66)'
	DD	00H
	DD	00H
	DD	0ffffffffH
	DD	00H
	DD	042H
	DD	FLAT:??_R3IUnknownEx@@8
rdata$r	ENDS
;	COMDAT ??_R1A@?0A@EA@CTCPNetworkEngine@@8
rdata$r	SEGMENT
??_R1A@?0A@EA@CTCPNetworkEngine@@8 DD FLAT:??_R0?AVCTCPNetworkEngine@@@8 ; CTCPNetworkEngine::`RTTI Base Class Descriptor at (0,-1,0,64)'
	DD	06H
	DD	00H
	DD	0ffffffffH
	DD	00H
	DD	040H
	DD	FLAT:??_R3CTCPNetworkEngine@@8
rdata$r	ENDS
;	COMDAT ??_R2CTCPNetworkEngine@@8
rdata$r	SEGMENT
??_R2CTCPNetworkEngine@@8 DD FLAT:??_R1A@?0A@EA@CTCPNetworkEngine@@8 ; CTCPNetworkEngine::`RTTI Base Class Array'
	DD	FLAT:??_R1A@?0A@EA@ITCPNetworkEngine@@8
	DD	FLAT:??_R1A@?0A@EA@IServiceModule@@8
	DD	FLAT:??_R1A@?0A@EC@IUnknownEx@@8
	DD	FLAT:??_R13?0A@EA@IAsynchronismEngineSink@@8
	DD	FLAT:??_R13?0A@EC@IUnknownEx@@8
	DD	FLAT:??_R17?0A@EA@ITCPNetworkItemSink@@8
rdata$r	ENDS
;	COMDAT ??_R3CTCPNetworkEngine@@8
rdata$r	SEGMENT
??_R3CTCPNetworkEngine@@8 DD 00H			; CTCPNetworkEngine::`RTTI Class Hierarchy Descriptor'
	DD	05H
	DD	07H
	DD	FLAT:??_R2CTCPNetworkEngine@@8
rdata$r	ENDS
;	COMDAT ??_R0?AVCTCPNetworkEngine@@@8
data$r	SEGMENT
??_R0?AVCTCPNetworkEngine@@@8 DD FLAT:??_7type_info@@6B@ ; CTCPNetworkEngine `RTTI Type Descriptor'
	DD	00H
	DB	'.?AVCTCPNetworkEngine@@', 00H
data$r	ENDS
;	COMDAT ??_R4CTCPNetworkEngine@@6BITCPNetworkEngine@@@
rdata$r	SEGMENT
??_R4CTCPNetworkEngine@@6BITCPNetworkEngine@@@ DD 00H	; CTCPNetworkEngine::`RTTI Complete Object Locator'
	DD	00H
	DD	00H
	DD	FLAT:??_R0?AVCTCPNetworkEngine@@@8
	DD	FLAT:??_R3CTCPNetworkEngine@@8
rdata$r	ENDS
;	COMDAT ??_R1A@?0A@EA@CTCPNetworkItem@@8
rdata$r	SEGMENT
??_R1A@?0A@EA@CTCPNetworkItem@@8 DD FLAT:??_R0?AVCTCPNetworkItem@@@8 ; CTCPNetworkItem::`RTTI Base Class Descriptor at (0,-1,0,64)'
	DD	00H
	DD	00H
	DD	0ffffffffH
	DD	00H
	DD	040H
	DD	FLAT:??_R3CTCPNetworkItem@@8
rdata$r	ENDS
;	COMDAT ??_R2CTCPNetworkItem@@8
rdata$r	SEGMENT
??_R2CTCPNetworkItem@@8 DD FLAT:??_R1A@?0A@EA@CTCPNetworkItem@@8 ; CTCPNetworkItem::`RTTI Base Class Array'
rdata$r	ENDS
;	COMDAT ??_R3CTCPNetworkItem@@8
rdata$r	SEGMENT
??_R3CTCPNetworkItem@@8 DD 00H				; CTCPNetworkItem::`RTTI Class Hierarchy Descriptor'
	DD	00H
	DD	01H
	DD	FLAT:??_R2CTCPNetworkItem@@8
rdata$r	ENDS
;	COMDAT ??_R0?AVCTCPNetworkItem@@@8
data$r	SEGMENT
??_R0?AVCTCPNetworkItem@@@8 DD FLAT:??_7type_info@@6B@	; CTCPNetworkItem `RTTI Type Descriptor'
	DD	00H
	DB	'.?AVCTCPNetworkItem@@', 00H
data$r	ENDS
;	COMDAT ??_R4CTCPNetworkItem@@6B@
rdata$r	SEGMENT
??_R4CTCPNetworkItem@@6B@ DD 00H			; CTCPNetworkItem::`RTTI Complete Object Locator'
	DD	00H
	DD	00H
	DD	FLAT:??_R0?AVCTCPNetworkItem@@@8
	DD	FLAT:??_R3CTCPNetworkItem@@8
rdata$r	ENDS
;	COMDAT ??_R1A@?0A@EA@COverLappedSend@@8
rdata$r	SEGMENT
??_R1A@?0A@EA@COverLappedSend@@8 DD FLAT:??_R0?AVCOverLappedSend@@@8 ; COverLappedSend::`RTTI Base Class Descriptor at (0,-1,0,64)'
	DD	01H
	DD	00H
	DD	0ffffffffH
	DD	00H
	DD	040H
	DD	FLAT:??_R3COverLappedSend@@8
rdata$r	ENDS
;	COMDAT ??_R2COverLappedSend@@8
rdata$r	SEGMENT
??_R2COverLappedSend@@8 DD FLAT:??_R1A@?0A@EA@COverLappedSend@@8 ; COverLappedSend::`RTTI Base Class Array'
	DD	FLAT:??_R1A@?0A@EA@COverLapped@@8
rdata$r	ENDS
;	COMDAT ??_R3COverLappedSend@@8
rdata$r	SEGMENT
??_R3COverLappedSend@@8 DD 00H				; COverLappedSend::`RTTI Class Hierarchy Descriptor'
	DD	00H
	DD	02H
	DD	FLAT:??_R2COverLappedSend@@8
rdata$r	ENDS
;	COMDAT ??_R0?AVCOverLappedSend@@@8
data$r	SEGMENT
??_R0?AVCOverLappedSend@@@8 DD FLAT:??_7type_info@@6B@	; COverLappedSend `RTTI Type Descriptor'
	DD	00H
	DB	'.?AVCOverLappedSend@@', 00H
data$r	ENDS
;	COMDAT ??_R4COverLappedSend@@6B@
rdata$r	SEGMENT
??_R4COverLappedSend@@6B@ DD 00H			; COverLappedSend::`RTTI Complete Object Locator'
	DD	00H
	DD	00H
	DD	FLAT:??_R0?AVCOverLappedSend@@@8
	DD	FLAT:??_R3COverLappedSend@@8
rdata$r	ENDS
;	COMDAT ??_R2COverLapped@@8
rdata$r	SEGMENT
??_R2COverLapped@@8 DD FLAT:??_R1A@?0A@EA@COverLapped@@8 ; COverLapped::`RTTI Base Class Array'
rdata$r	ENDS
;	COMDAT ??_R3COverLapped@@8
rdata$r	SEGMENT
??_R3COverLapped@@8 DD 00H				; COverLapped::`RTTI Class Hierarchy Descriptor'
	DD	00H
	DD	01H
	DD	FLAT:??_R2COverLapped@@8
rdata$r	ENDS
;	COMDAT ??_R0?AVCOverLapped@@@8
data$r	SEGMENT
??_R0?AVCOverLapped@@@8 DD FLAT:??_7type_info@@6B@	; COverLapped `RTTI Type Descriptor'
	DD	00H
	DB	'.?AVCOverLapped@@', 00H
data$r	ENDS
;	COMDAT ??_R1A@?0A@EA@COverLapped@@8
rdata$r	SEGMENT
??_R1A@?0A@EA@COverLapped@@8 DD FLAT:??_R0?AVCOverLapped@@@8 ; COverLapped::`RTTI Base Class Descriptor at (0,-1,0,64)'
	DD	00H
	DD	00H
	DD	0ffffffffH
	DD	00H
	DD	040H
	DD	FLAT:??_R3COverLapped@@8
rdata$r	ENDS
;	COMDAT ??_R1A@?0A@EA@COverLappedRecv@@8
rdata$r	SEGMENT
??_R1A@?0A@EA@COverLappedRecv@@8 DD FLAT:??_R0?AVCOverLappedRecv@@@8 ; COverLappedRecv::`RTTI Base Class Descriptor at (0,-1,0,64)'
	DD	01H
	DD	00H
	DD	0ffffffffH
	DD	00H
	DD	040H
	DD	FLAT:??_R3COverLappedRecv@@8
rdata$r	ENDS
;	COMDAT ??_R2COverLappedRecv@@8
rdata$r	SEGMENT
??_R2COverLappedRecv@@8 DD FLAT:??_R1A@?0A@EA@COverLappedRecv@@8 ; COverLappedRecv::`RTTI Base Class Array'
	DD	FLAT:??_R1A@?0A@EA@COverLapped@@8
rdata$r	ENDS
;	COMDAT ??_R3COverLappedRecv@@8
rdata$r	SEGMENT
??_R3COverLappedRecv@@8 DD 00H				; COverLappedRecv::`RTTI Class Hierarchy Descriptor'
	DD	00H
	DD	02H
	DD	FLAT:??_R2COverLappedRecv@@8
rdata$r	ENDS
;	COMDAT ??_R0?AVCOverLappedRecv@@@8
data$r	SEGMENT
??_R0?AVCOverLappedRecv@@@8 DD FLAT:??_7type_info@@6B@	; COverLappedRecv `RTTI Type Descriptor'
	DD	00H
	DB	'.?AVCOverLappedRecv@@', 00H
data$r	ENDS
;	COMDAT ??_R4COverLappedRecv@@6B@
rdata$r	SEGMENT
??_R4COverLappedRecv@@6B@ DD 00H			; COverLappedRecv::`RTTI Complete Object Locator'
	DD	00H
	DD	00H
	DD	FLAT:??_R0?AVCOverLappedRecv@@@8
	DD	FLAT:??_R3COverLappedRecv@@8
rdata$r	ENDS
;	COMDAT ??_R1A@?0A@EA@ITCPNetworkEngine@@8
rdata$r	SEGMENT
??_R1A@?0A@EA@ITCPNetworkEngine@@8 DD FLAT:??_R0?AUITCPNetworkEngine@@@8 ; ITCPNetworkEngine::`RTTI Base Class Descriptor at (0,-1,0,64)'
	DD	02H
	DD	00H
	DD	0ffffffffH
	DD	00H
	DD	040H
	DD	FLAT:??_R3ITCPNetworkEngine@@8
rdata$r	ENDS
;	COMDAT ??_R2ITCPNetworkEngine@@8
rdata$r	SEGMENT
??_R2ITCPNetworkEngine@@8 DD FLAT:??_R1A@?0A@EA@ITCPNetworkEngine@@8 ; ITCPNetworkEngine::`RTTI Base Class Array'
	DD	FLAT:??_R1A@?0A@EA@IServiceModule@@8
	DD	FLAT:??_R1A@?0A@EA@IUnknownEx@@8
rdata$r	ENDS
;	COMDAT ??_R3ITCPNetworkEngine@@8
rdata$r	SEGMENT
??_R3ITCPNetworkEngine@@8 DD 00H			; ITCPNetworkEngine::`RTTI Class Hierarchy Descriptor'
	DD	00H
	DD	03H
	DD	FLAT:??_R2ITCPNetworkEngine@@8
rdata$r	ENDS
;	COMDAT ??_R0?AUITCPNetworkEngine@@@8
data$r	SEGMENT
??_R0?AUITCPNetworkEngine@@@8 DD FLAT:??_7type_info@@6B@ ; ITCPNetworkEngine `RTTI Type Descriptor'
	DD	00H
	DB	'.?AUITCPNetworkEngine@@', 00H
data$r	ENDS
;	COMDAT ??_R4ITCPNetworkEngine@@6B@
rdata$r	SEGMENT
??_R4ITCPNetworkEngine@@6B@ DD 00H			; ITCPNetworkEngine::`RTTI Complete Object Locator'
	DD	00H
	DD	00H
	DD	FLAT:??_R0?AUITCPNetworkEngine@@@8
	DD	FLAT:??_R3ITCPNetworkEngine@@8
rdata$r	ENDS
;	COMDAT ??_R1A@?0A@EA@IAsynchronismEngineSink@@8
rdata$r	SEGMENT
??_R1A@?0A@EA@IAsynchronismEngineSink@@8 DD FLAT:??_R0?AUIAsynchronismEngineSink@@@8 ; IAsynchronismEngineSink::`RTTI Base Class Descriptor at (0,-1,0,64)'
	DD	01H
	DD	00H
	DD	0ffffffffH
	DD	00H
	DD	040H
	DD	FLAT:??_R3IAsynchronismEngineSink@@8
rdata$r	ENDS
;	COMDAT ??_R2IAsynchronismEngineSink@@8
rdata$r	SEGMENT
??_R2IAsynchronismEngineSink@@8 DD FLAT:??_R1A@?0A@EA@IAsynchronismEngineSink@@8 ; IAsynchronismEngineSink::`RTTI Base Class Array'
	DD	FLAT:??_R1A@?0A@EA@IUnknownEx@@8
rdata$r	ENDS
;	COMDAT ??_R3IAsynchronismEngineSink@@8
rdata$r	SEGMENT
??_R3IAsynchronismEngineSink@@8 DD 00H			; IAsynchronismEngineSink::`RTTI Class Hierarchy Descriptor'
	DD	00H
	DD	02H
	DD	FLAT:??_R2IAsynchronismEngineSink@@8
rdata$r	ENDS
;	COMDAT ??_R0?AUIAsynchronismEngineSink@@@8
data$r	SEGMENT
??_R0?AUIAsynchronismEngineSink@@@8 DD FLAT:??_7type_info@@6B@ ; IAsynchronismEngineSink `RTTI Type Descriptor'
	DD	00H
	DB	'.?AUIAsynchronismEngineSink@@', 00H
data$r	ENDS
;	COMDAT ??_R4IAsynchronismEngineSink@@6B@
rdata$r	SEGMENT
??_R4IAsynchronismEngineSink@@6B@ DD 00H		; IAsynchronismEngineSink::`RTTI Complete Object Locator'
	DD	00H
	DD	00H
	DD	FLAT:??_R0?AUIAsynchronismEngineSink@@@8
	DD	FLAT:??_R3IAsynchronismEngineSink@@8
rdata$r	ENDS
;	COMDAT ??_R1A@?0A@EA@IServiceModule@@8
rdata$r	SEGMENT
??_R1A@?0A@EA@IServiceModule@@8 DD FLAT:??_R0?AUIServiceModule@@@8 ; IServiceModule::`RTTI Base Class Descriptor at (0,-1,0,64)'
	DD	01H
	DD	00H
	DD	0ffffffffH
	DD	00H
	DD	040H
	DD	FLAT:??_R3IServiceModule@@8
rdata$r	ENDS
;	COMDAT ??_R2IServiceModule@@8
rdata$r	SEGMENT
??_R2IServiceModule@@8 DD FLAT:??_R1A@?0A@EA@IServiceModule@@8 ; IServiceModule::`RTTI Base Class Array'
	DD	FLAT:??_R1A@?0A@EA@IUnknownEx@@8
rdata$r	ENDS
;	COMDAT ??_R3IServiceModule@@8
rdata$r	SEGMENT
??_R3IServiceModule@@8 DD 00H				; IServiceModule::`RTTI Class Hierarchy Descriptor'
	DD	00H
	DD	02H
	DD	FLAT:??_R2IServiceModule@@8
rdata$r	ENDS
;	COMDAT ??_R0?AUIServiceModule@@@8
data$r	SEGMENT
??_R0?AUIServiceModule@@@8 DD FLAT:??_7type_info@@6B@	; IServiceModule `RTTI Type Descriptor'
	DD	00H
	DB	'.?AUIServiceModule@@', 00H
data$r	ENDS
;	COMDAT ??_R4IServiceModule@@6B@
rdata$r	SEGMENT
??_R4IServiceModule@@6B@ DD 00H				; IServiceModule::`RTTI Complete Object Locator'
	DD	00H
	DD	00H
	DD	FLAT:??_R0?AUIServiceModule@@@8
	DD	FLAT:??_R3IServiceModule@@8
rdata$r	ENDS
;	COMDAT ??_R1A@?0A@EA@IUnknownEx@@8
rdata$r	SEGMENT
??_R1A@?0A@EA@IUnknownEx@@8 DD FLAT:??_R0?AUIUnknownEx@@@8 ; IUnknownEx::`RTTI Base Class Descriptor at (0,-1,0,64)'
	DD	00H
	DD	00H
	DD	0ffffffffH
	DD	00H
	DD	040H
	DD	FLAT:??_R3IUnknownEx@@8
rdata$r	ENDS
;	COMDAT ??_R2IUnknownEx@@8
rdata$r	SEGMENT
??_R2IUnknownEx@@8 DD FLAT:??_R1A@?0A@EA@IUnknownEx@@8	; IUnknownEx::`RTTI Base Class Array'
rdata$r	ENDS
;	COMDAT ??_R3IUnknownEx@@8
rdata$r	SEGMENT
??_R3IUnknownEx@@8 DD 00H				; IUnknownEx::`RTTI Class Hierarchy Descriptor'
	DD	00H
	DD	01H
	DD	FLAT:??_R2IUnknownEx@@8
rdata$r	ENDS
;	COMDAT ??_R0?AUIUnknownEx@@@8
data$r	SEGMENT
??_R0?AUIUnknownEx@@@8 DD FLAT:??_7type_info@@6B@	; IUnknownEx `RTTI Type Descriptor'
	DD	00H
	DB	'.?AUIUnknownEx@@', 00H
data$r	ENDS
;	COMDAT ??_R4IUnknownEx@@6B@
rdata$r	SEGMENT
??_R4IUnknownEx@@6B@ DD 00H				; IUnknownEx::`RTTI Complete Object Locator'
	DD	00H
	DD	00H
	DD	FLAT:??_R0?AUIUnknownEx@@@8
	DD	FLAT:??_R3IUnknownEx@@8
rdata$r	ENDS
;	COMDAT ??_R1A@?0A@EA@_Ref_count_base@std@@8
rdata$r	SEGMENT
??_R1A@?0A@EA@_Ref_count_base@std@@8 DD FLAT:??_R0?AV_Ref_count_base@std@@@8 ; std::_Ref_count_base::`RTTI Base Class Descriptor at (0,-1,0,64)'
	DD	00H
	DD	00H
	DD	0ffffffffH
	DD	00H
	DD	040H
	DD	FLAT:??_R3_Ref_count_base@std@@8
rdata$r	ENDS
;	COMDAT ??_R2_Ref_count_base@std@@8
rdata$r	SEGMENT
??_R2_Ref_count_base@std@@8 DD FLAT:??_R1A@?0A@EA@_Ref_count_base@std@@8 ; std::_Ref_count_base::`RTTI Base Class Array'
rdata$r	ENDS
;	COMDAT ??_R3_Ref_count_base@std@@8
rdata$r	SEGMENT
??_R3_Ref_count_base@std@@8 DD 00H			; std::_Ref_count_base::`RTTI Class Hierarchy Descriptor'
	DD	00H
	DD	01H
	DD	FLAT:??_R2_Ref_count_base@std@@8
rdata$r	ENDS
;	COMDAT ??_R0?AV_Ref_count_base@std@@@8
data$r	SEGMENT
??_R0?AV_Ref_count_base@std@@@8 DD FLAT:??_7type_info@@6B@ ; std::_Ref_count_base `RTTI Type Descriptor'
	DD	00H
	DB	'.?AV_Ref_count_base@std@@', 00H
data$r	ENDS
;	COMDAT ??_C@_1DG@FJIKMGFD@?$AA?$CC?$AAt?$AAr?$AAa?$AAn?$AAs?$AAp?$AAo?$AAs?$AAe?$AAd?$AA?5?$AAp?$AAo?$AAi@
CONST	SEGMENT
??_C@_1DG@FJIKMGFD@?$AA?$CC?$AAt?$AAr?$AAa?$AAn?$AAs?$AAp?$AAo?$AAs?$AAe?$AAd?$AA?5?$AAp?$AAo?$AAi@ DB '"'
	DB	00H, 't', 00H, 'r', 00H, 'a', 00H, 'n', 00H, 's', 00H, 'p', 00H
	DB	'o', 00H, 's', 00H, 'e', 00H, 'd', 00H, ' ', 00H, 'p', 00H, 'o'
	DB	00H, 'i', 00H, 'n', 00H, 't', 00H, 'e', 00H, 'r', 00H, ' ', 00H
	DB	'r', 00H, 'a', 00H, 'n', 00H, 'g', 00H, 'e', 00H, '"', 00H, 00H
	DB	00H						; `string'
CONST	ENDS
;	COMDAT ??_C@_0BJ@HAJGEHKO@transposed?5pointer?5range@
CONST	SEGMENT
??_C@_0BJ@HAJGEHKO@transposed?5pointer?5range@ DB 'transposed pointer ran'
	DB	'ge', 00H					; `string'
CONST	ENDS
;	COMDAT ??_C@_1CG@LJCPDKEJ@?$AAs?$AAt?$AAd?$AA?3?$AA?3?$AA_?$AAV?$AAe?$AAr?$AAi?$AAf?$AAy?$AA_?$AAr?$AAa@
CONST	SEGMENT
??_C@_1CG@LJCPDKEJ@?$AAs?$AAt?$AAd?$AA?3?$AA?3?$AA_?$AAV?$AAe?$AAr?$AAi?$AAf?$AAy?$AA_?$AAr?$AAa@ DB 's'
	DB	00H, 't', 00H, 'd', 00H, ':', 00H, ':', 00H, '_', 00H, 'V', 00H
	DB	'e', 00H, 'r', 00H, 'i', 00H, 'f', 00H, 'y', 00H, '_', 00H, 'r'
	DB	00H, 'a', 00H, 'n', 00H, 'g', 00H, 'e', 00H, 00H, 00H ; `string'
CONST	ENDS
;	COMDAT ??_C@_1EO@GFNCMDLA@?$AAs?$AAt?$AAd?$AA?3?$AA?3?$AA_?$AAA?$AAl?$AAl?$AAo?$AAc?$AAa?$AAt?$AAe?$AA_@
CONST	SEGMENT
??_C@_1EO@GFNCMDLA@?$AAs?$AAt?$AAd?$AA?3?$AA?3?$AA_?$AAA?$AAl?$AAl?$AAo?$AAc?$AAa?$AAt?$AAe?$AA_@ DB 's'
	DB	00H, 't', 00H, 'd', 00H, ':', 00H, ':', 00H, '_', 00H, 'A', 00H
	DB	'l', 00H, 'l', 00H, 'o', 00H, 'c', 00H, 'a', 00H, 't', 00H, 'e'
	DB	00H, '_', 00H, 'm', 00H, 'a', 00H, 'n', 00H, 'u', 00H, 'a', 00H
	DB	'l', 00H, 'l', 00H, 'y', 00H, '_', 00H, 'v', 00H, 'e', 00H, 'c'
	DB	00H, 't', 00H, 'o', 00H, 'r', 00H, '_', 00H, 'a', 00H, 'l', 00H
	DB	'i', 00H, 'g', 00H, 'n', 00H, 'e', 00H, 'd', 00H, 00H, 00H ; `string'
CONST	ENDS
;	COMDAT ??_R0?AUContainer@?$InternalMetadataWithArenaBase@VUnknownFieldSet@protobuf@google@@VInternalMetadataWithArena@internal@23@@internal@protobuf@google@@@8
data$r	SEGMENT
??_R0?AUContainer@?$InternalMetadataWithArenaBase@VUnknownFieldSet@protobuf@google@@VInternalMetadataWithArena@internal@23@@internal@protobuf@google@@@8 DD FLAT:??_7type_info@@6B@ ; google::protobuf::internal::InternalMetadataWithArenaBase<google::protobuf::UnknownFieldSet,google::protobuf::internal::InternalMetadataWithArena>::Container `RTTI Type Descriptor'
	DD	00H
	DB	'.?AUContainer@?$InternalMetadataWithArenaBase@VUnknownFi'
	DB	'eldSet@protobuf@google@@VInternalMetadataWithArena@internal@2'
	DB	'3@@internal@protobuf@google@@', 00H
data$r	ENDS
;	COMDAT ??_7?$_Ref_count@D@std@@6B@
CONST	SEGMENT
??_7?$_Ref_count@D@std@@6B@ DD FLAT:??_R4?$_Ref_count@D@std@@6B@ ; std::_Ref_count<char>::`vftable'
	DD	FLAT:?_Destroy@?$_Ref_count@D@std@@EAEXXZ
	DD	FLAT:?_Delete_this@?$_Ref_count@D@std@@EAEXXZ
	DD	FLAT:??_E?$_Ref_count@D@std@@UAEPAXI@Z
	DD	FLAT:?_Get_deleter@_Ref_count_base@std@@UBEPAXABVtype_info@@@Z
CONST	ENDS
;	COMDAT ??_C@_0BA@JFNIOLAK@string?5too?5long@
CONST	SEGMENT
??_C@_0BA@JFNIOLAK@string?5too?5long@ DB 'string too long', 00H ; `string'
CONST	ENDS
;	COMDAT ??_C@_1CK@NDNHPKPI@?$AA?$CC?$AAi?$AAn?$AAv?$AAa?$AAl?$AAi?$AAd?$AA?5?$AAc?$AAo?$AAm?$AAp?$AAa?$AAr@
CONST	SEGMENT
??_C@_1CK@NDNHPKPI@?$AA?$CC?$AAi?$AAn?$AAv?$AAa?$AAl?$AAi?$AAd?$AA?5?$AAc?$AAo?$AAm?$AAp?$AAa?$AAr@ DB '"'
	DB	00H, 'i', 00H, 'n', 00H, 'v', 00H, 'a', 00H, 'l', 00H, 'i', 00H
	DB	'd', 00H, ' ', 00H, 'c', 00H, 'o', 00H, 'm', 00H, 'p', 00H, 'a'
	DB	00H, 'r', 00H, 'a', 00H, 't', 00H, 'o', 00H, 'r', 00H, '"', 00H
	DB	00H, 00H					; `string'
CONST	ENDS
;	COMDAT ??_C@_1CI@JONCLBEJ@?$AAs?$AAt?$AAd?$AA?3?$AA?3?$AA_?$AAD?$AAe?$AAb?$AAu?$AAg?$AA_?$AAl?$AAt?$AA_@
CONST	SEGMENT
??_C@_1CI@JONCLBEJ@?$AAs?$AAt?$AAd?$AA?3?$AA?3?$AA_?$AAD?$AAe?$AAb?$AAu?$AAg?$AA_?$AAl?$AAt?$AA_@ DB 's'
	DB	00H, 't', 00H, 'd', 00H, ':', 00H, ':', 00H, '_', 00H, 'D', 00H
	DB	'e', 00H, 'b', 00H, 'u', 00H, 'g', 00H, '_', 00H, 'l', 00H, 't'
	DB	00H, '_', 00H, 'p', 00H, 'r', 00H, 'e', 00H, 'd', 00H, 00H, 00H ; `string'
CONST	ENDS
;	COMDAT ??_C@_0BD@FEEMDEPI@invalid?5comparator@
CONST	SEGMENT
??_C@_0BD@FEEMDEPI@invalid?5comparator@ DB 'invalid comparator', 00H ; `string'
CONST	ENDS
;	COMDAT ??_R0?AVmessage@NullPmd@@@8
data$r	SEGMENT
??_R0?AVmessage@NullPmd@@@8 DD FLAT:??_7type_info@@6B@	; NullPmd::message `RTTI Type Descriptor'
	DD	00H
	DB	'.?AVmessage@NullPmd@@', 00H
data$r	ENDS
;	COMDAT ??_R0?AVhead@NullPmd@@@8
data$r	SEGMENT
??_R0?AVhead@NullPmd@@@8 DD FLAT:??_7type_info@@6B@	; NullPmd::head `RTTI Type Descriptor'
	DD	00H
	DB	'.?AVhead@NullPmd@@', 00H
data$r	ENDS
;	COMDAT ??_R0?AVinfo@NullPmd@@@8
data$r	SEGMENT
??_R0?AVinfo@NullPmd@@@8 DD FLAT:??_7type_info@@6B@	; NullPmd::info `RTTI Type Descriptor'
	DD	00H
	DB	'.?AVinfo@NullPmd@@', 00H
data$r	ENDS
;	COMDAT ??_R0?AVcommand@NullPmd@@@8
data$r	SEGMENT
??_R0?AVcommand@NullPmd@@@8 DD FLAT:??_7type_info@@6B@	; NullPmd::command `RTTI Type Descriptor'
	DD	00H
	DB	'.?AVcommand@NullPmd@@', 00H
data$r	ENDS
;	COMDAT ??_R0?AVindication@NullPmd@@@8
data$r	SEGMENT
??_R0?AVindication@NullPmd@@@8 DD FLAT:??_7type_info@@6B@ ; NullPmd::indication `RTTI Type Descriptor'
	DD	00H
	DB	'.?AVindication@NullPmd@@', 00H
data$r	ENDS
;	COMDAT ??_R0?AVresponse@NullPmd@@@8
data$r	SEGMENT
??_R0?AVresponse@NullPmd@@@8 DD FLAT:??_7type_info@@6B@	; NullPmd::response `RTTI Type Descriptor'
	DD	00H
	DB	'.?AVresponse@NullPmd@@', 00H
data$r	ENDS
;	COMDAT ??_R0?AVrequest@NullPmd@@@8
data$r	SEGMENT
??_R0?AVrequest@NullPmd@@@8 DD FLAT:??_7type_info@@6B@	; NullPmd::request `RTTI Type Descriptor'
	DD	00H
	DB	'.?AVrequest@NullPmd@@', 00H
data$r	ENDS
;	COMDAT ??_R0?AVMessage@protobuf@google@@@8
data$r	SEGMENT
??_R0?AVMessage@protobuf@google@@@8 DD FLAT:??_7type_info@@6B@ ; google::protobuf::Message `RTTI Type Descriptor'
	DD	00H
	DB	'.?AVMessage@protobuf@google@@', 00H
data$r	ENDS
;	COMDAT ??_C@_0DF@LDFGAABH@g?3?2?M?x?$LK?$PM?2happygamewh?2?$LH?$PO?N?q?$LG?K?2?O?$LF?M?$LD@
CONST	SEGMENT
??_C@_0DF@LDFGAABH@g?3?2?M?x?$LK?$PM?2happygamewh?2?$LH?$PO?N?q?$LG?K?2?O?$LF?M?$LD@ DB 'g'
	DB	':\', 0cdH, 0f8H, 0baH, 0fcH, '\happygamewh\', 0b7H, 0feH, 0ceH
	DB	0f1H, 0b6H, 0cbH, '\', 0cfH, 0b5H, 0cdH, 0b3H, 0c4H, 0a3H, 0bfH
	DB	0e9H, '\', 0c8H, 0abH, 0beH, 0d6H, 0b6H, 0a8H, 0d2H, 0e5H, '\a'
	DB	'rray.h', 00H				; `string'
CONST	ENDS
;	COMDAT ??_C@_1BK@MHIKGOKE@?$AA?3?$AAA?$AAM?$AA?3?$AAa?$AAm?$AA?3?$AAP?$AAM?$AA?3?$AAp?$AAm@
CONST	SEGMENT
??_C@_1BK@MHIKGOKE@?$AA?3?$AAA?$AAM?$AA?3?$AAa?$AAm?$AA?3?$AAP?$AAM?$AA?3?$AAp?$AAm@ DB ':'
	DB	00H, 'A', 00H, 'M', 00H, ':', 00H, 'a', 00H, 'm', 00H, ':', 00H
	DB	'P', 00H, 'M', 00H, ':', 00H, 'p', 00H, 'm', 00H, 00H, 00H ; `string'
CONST	ENDS
;	COMDAT ??_C@_1CAM@NGLDEJOH@?$AAs?$AAt?$AAd?$AA?3?$AA?3?$AA_?$AAT?$AAr?$AAe?$AAe?$AA_?$AAv?$AAa?$AAl?$AA?$DM@
CONST	SEGMENT
??_C@_1CAM@NGLDEJOH@?$AAs?$AAt?$AAd?$AA?3?$AA?3?$AA_?$AAT?$AAr?$AAe?$AAe?$AA_?$AAv?$AAa?$AAl?$AA?$DM@ DB 's'
	DB	00H, 't', 00H, 'd', 00H, ':', 00H, ':', 00H, '_', 00H, 'T', 00H
	DB	'r', 00H, 'e', 00H, 'e', 00H, '_', 00H, 'v', 00H, 'a', 00H, 'l'
	DB	00H, '<', 00H, 's', 00H, 't', 00H, 'r', 00H, 'u', 00H, 'c', 00H
	DB	't', 00H, ' ', 00H, 's', 00H, 't', 00H, 'd', 00H, ':', 00H, ':'
	DB	00H, '_', 00H, 'T', 00H, 'r', 00H, 'e', 00H, 'e', 00H, '_', 00H
	DB	's', 00H, 'i', 00H, 'm', 00H, 'p', 00H, 'l', 00H, 'e', 00H, '_'
	DB	00H, 't', 00H, 'y', 00H, 'p', 00H, 'e', 00H, 's', 00H, '<', 00H
	DB	's', 00H, 't', 00H, 'r', 00H, 'u', 00H, 'c', 00H, 't', 00H, ' '
	DB	00H, 's', 00H, 't', 00H, 'd', 00H, ':', 00H, ':', 00H, 'p', 00H
	DB	'a', 00H, 'i', 00H, 'r', 00H, '<', 00H, 'c', 00H, 'l', 00H, 'a'
	DB	00H, 's', 00H, 's', 00H, ' ', 00H, 's', 00H, 't', 00H, 'd', 00H
	DB	':', 00H, ':', 00H, 'b', 00H, 'a', 00H, 's', 00H, 'i', 00H, 'c'
	DB	00H, '_', 00H, 's', 00H, 't', 00H, 'r', 00H, 'i', 00H, 'n', 00H
	DB	'g', 00H, '<', 00H, 'c', 00H, 'h', 00H, 'a', 00H, 'r', 00H, ','
	DB	00H, 's', 00H, 't', 00H, 'r', 00H, 'u', 00H, 'c', 00H, 't', 00H
	DB	' ', 00H, 's', 00H, 't', 00H, 'd', 00H, ':', 00H, ':', 00H, 'c'
	DB	00H, 'h', 00H, 'a', 00H, 'r', 00H, '_', 00H, 't', 00H, 'r', 00H
	DB	'a', 00H, 'i', 00H, 't', 00H, 's', 00H, '<', 00H, 'c', 00H, 'h'
	DB	00H, 'a', 00H, 'r', 00H, '>', 00H, ',', 00H, 'c', 00H, 'l', 00H
	DB	'a', 00H, 's', 00H, 's', 00H, ' ', 00H, 's', 00H, 't', 00H, 'd'
	DB	00H, ':', 00H, ':', 00H, 'a', 00H, 'l', 00H, 'l', 00H, 'o', 00H
	DB	'c', 00H, 'a', 00H, 't', 00H, 'o', 00H, 'r', 00H, '<', 00H, 'c'
	DB	00H, 'h', 00H, 'a', 00H, 'r', 00H, '>', 00H, ' ', 00H, '>', 00H
	DB	' ', 00H, 'c', 00H, 'o', 00H, 'n', 00H, 's', 00H, 't', 00H, ' '
	DB	00H, ',', 00H, 'c', 00H, 'l', 00H, 'a', 00H, 's', 00H, 's', 00H
	DB	' ', 00H, 's', 00H, 't', 00H, 'd', 00H, ':', 00H, ':', 00H, 'b'
	DB	00H, 'a', 00H, 's', 00H, 'i', 00H, 'c', 00H, '_', 00H, 's', 00H
	DB	't', 00H, 'r', 00H, 'i', 00H, 'n', 00H, 'g', 00H, '<', 00H, 'c'
	DB	00H, 'h', 00H, 'a', 00H, 'r', 00H, ',', 00H, 's', 00H, 't', 00H
	DB	'r', 00H, 'u', 00H, 'c', 00H, 't', 00H, ' ', 00H, 's', 00H, 't'
	DB	00H, 'd', 00H, ':', 00H, ':', 00H, 'c', 00H, 'h', 00H, 'a', 00H
	DB	'r', 00H, '_', 00H, 't', 00H, 'r', 00H, 'a', 00H, 'i', 00H, 't'
	DB	00H, 's', 00H, '<', 00H, 'c', 00H, 'h', 00H, 'a', 00H, 'r', 00H
	DB	'>', 00H, ',', 00H, 'c', 00H, 'l', 00H, 'a', 00H, 's', 00H, 's'
	DB	00H, ' ', 00H, 's', 00H, 't', 00H, 'd', 00H, ':', 00H, ':', 00H
	DB	'a', 00H, 'l', 00H, 'l', 00H, 'o', 00H, 'c', 00H, 'a', 00H, 't'
	DB	00H, 'o', 00H, 'r', 00H, '<', 00H, 'c', 00H, 'h', 00H, 'a', 00H
	DB	'r', 00H, '>', 00H, ' ', 00H, '>', 00H, ' ', 00H, '>', 00H, ' '
	DB	00H, '>', 00H, ' ', 00H, '>', 00H, ':', 00H, ':', 00H, '_', 00H
	DB	'E', 00H, 'x', 00H, 't', 00H, 'r', 00H, 'a', 00H, 'c', 00H, 't'
	DB	00H, 00H, 00H				; `string'
CONST	ENDS
;	COMDAT ??_C@_1EO@CEDAEPC@?$AA?$CC?$AAm?$AAa?$AAp?$AA?1?$AAs?$AAe?$AAt?$AA?5?$AAe?$AAr?$AAa?$AAs?$AAe?$AA?5@
CONST	SEGMENT
??_C@_1EO@CEDAEPC@?$AA?$CC?$AAm?$AAa?$AAp?$AA?1?$AAs?$AAe?$AAt?$AA?5?$AAe?$AAr?$AAa?$AAs?$AAe?$AA?5@ DB '"'
	DB	00H, 'm', 00H, 'a', 00H, 'p', 00H, '/', 00H, 's', 00H, 'e', 00H
	DB	't', 00H, ' ', 00H, 'e', 00H, 'r', 00H, 'a', 00H, 's', 00H, 'e'
	DB	00H, ' ', 00H, 'i', 00H, 't', 00H, 'e', 00H, 'r', 00H, 'a', 00H
	DB	't', 00H, 'o', 00H, 'r', 00H, ' ', 00H, 'o', 00H, 'u', 00H, 't'
	DB	00H, 's', 00H, 'i', 00H, 'd', 00H, 'e', 00H, ' ', 00H, 'r', 00H
	DB	'a', 00H, 'n', 00H, 'g', 00H, 'e', 00H, '"', 00H, 00H, 00H ; `string'
CONST	ENDS
;	COMDAT ??_C@_1DMG@NDMMDDDJ@?$AAs?$AAt?$AAd?$AA?3?$AA?3?$AA_?$AAT?$AAr?$AAe?$AAe?$AA?$DM?$AAc?$AAl?$AAa?$AAs@
CONST	SEGMENT
??_C@_1DMG@NDMMDDDJ@?$AAs?$AAt?$AAd?$AA?3?$AA?3?$AA_?$AAT?$AAr?$AAe?$AAe?$AA?$DM?$AAc?$AAl?$AAa?$AAs@ DB 's'
	DB	00H, 't', 00H, 'd', 00H, ':', 00H, ':', 00H, '_', 00H, 'T', 00H
	DB	'r', 00H, 'e', 00H, 'e', 00H, '<', 00H, 'c', 00H, 'l', 00H, 'a'
	DB	00H, 's', 00H, 's', 00H, ' ', 00H, 's', 00H, 't', 00H, 'd', 00H
	DB	':', 00H, ':', 00H, '_', 00H, 'T', 00H, 'm', 00H, 'a', 00H, 'p'
	DB	00H, '_', 00H, 't', 00H, 'r', 00H, 'a', 00H, 'i', 00H, 't', 00H
	DB	's', 00H, '<', 00H, 'c', 00H, 'l', 00H, 'a', 00H, 's', 00H, 's'
	DB	00H, ' ', 00H, 's', 00H, 't', 00H, 'd', 00H, ':', 00H, ':', 00H
	DB	'b', 00H, 'a', 00H, 's', 00H, 'i', 00H, 'c', 00H, '_', 00H, 's'
	DB	00H, 't', 00H, 'r', 00H, 'i', 00H, 'n', 00H, 'g', 00H, '<', 00H
	DB	'c', 00H, 'h', 00H, 'a', 00H, 'r', 00H, ',', 00H, 's', 00H, 't'
	DB	00H, 'r', 00H, 'u', 00H, 'c', 00H, 't', 00H, ' ', 00H, 's', 00H
	DB	't', 00H, 'd', 00H, ':', 00H, ':', 00H, 'c', 00H, 'h', 00H, 'a'
	DB	00H, 'r', 00H, '_', 00H, 't', 00H, 'r', 00H, 'a', 00H, 'i', 00H
	DB	't', 00H, 's', 00H, '<', 00H, 'c', 00H, 'h', 00H, 'a', 00H, 'r'
	DB	00H, '>', 00H, ',', 00H, 'c', 00H, 'l', 00H, 'a', 00H, 's', 00H
	DB	's', 00H, ' ', 00H, 's', 00H, 't', 00H, 'd', 00H, ':', 00H, ':'
	DB	00H, 'a', 00H, 'l', 00H, 'l', 00H, 'o', 00H, 'c', 00H, 'a', 00H
	DB	't', 00H, 'o', 00H, 'r', 00H, '<', 00H, 'c', 00H, 'h', 00H, 'a'
	DB	00H, 'r', 00H, '>', 00H, ' ', 00H, '>', 00H, ',', 00H, 'c', 00H
	DB	'l', 00H, 'a', 00H, 's', 00H, 's', 00H, ' ', 00H, 's', 00H, 't'
	DB	00H, 'd', 00H, ':', 00H, ':', 00H, 'b', 00H, 'a', 00H, 's', 00H
	DB	'i', 00H, 'c', 00H, '_', 00H, 's', 00H, 't', 00H, 'r', 00H, 'i'
	DB	00H, 'n', 00H, 'g', 00H, '<', 00H, 'c', 00H, 'h', 00H, 'a', 00H
	DB	'r', 00H, ',', 00H, 's', 00H, 't', 00H, 'r', 00H, 'u', 00H, 'c'
	DB	00H, 't', 00H, ' ', 00H, 's', 00H, 't', 00H, 'd', 00H, ':', 00H
	DB	':', 00H, 'c', 00H, 'h', 00H, 'a', 00H, 'r', 00H, '_', 00H, 't'
	DB	00H, 'r', 00H, 'a', 00H, 'i', 00H, 't', 00H, 's', 00H, '<', 00H
	DB	'c', 00H, 'h', 00H, 'a', 00H, 'r', 00H, '>', 00H, ',', 00H, 'c'
	DB	00H, 'l', 00H, 'a', 00H, 's', 00H, 's', 00H, ' ', 00H, 's', 00H
	DB	't', 00H, 'd', 00H, ':', 00H, ':', 00H, 'a', 00H, 'l', 00H, 'l'
	DB	00H, 'o', 00H, 'c', 00H, 'a', 00H, 't', 00H, 'o', 00H, 'r', 00H
	DB	'<', 00H, 'c', 00H, 'h', 00H, 'a', 00H, 'r', 00H, '>', 00H, ' '
	DB	00H, '>', 00H, ',', 00H, 's', 00H, 't', 00H, 'r', 00H, 'u', 00H
	DB	'c', 00H, 't', 00H, ' ', 00H, 'z', 00H, 'l', 00H, ':', 00H, ':'
	DB	00H, 'b', 00H, 'a', 00H, 's', 00H, 'e', 00H, ':', 00H, ':', 00H
	DB	's', 00H, 't', 00H, 'r', 00H, 'i', 00H, 'n', 00H, 'g', 00H, '_'
	DB	00H, 'c', 00H, 'm', 00H, 'p', 00H, '_', 00H, 'n', 00H, 'o', 00H
	DB	'c', 00H, 'a', 00H, 's', 00H, 'e', 00H, ',', 00H, 'c', 00H, 'l'
	DB	00H, 'a', 00H, 's', 00H, 's', 00H, ' ', 00H, 's', 00H, 't', 00H
	DB	'd', 00H, ':', 00H, ':', 00H, 'a', 00H, 'l', 00H, 'l', 00H, 'o'
	DB	00H, 'c', 00H, 'a', 00H, 't', 00H, 'o', 00H, 'r', 00H, '<', 00H
	DB	's', 00H, 't', 00H, 'r', 00H, 'u', 00H, 'c', 00H, 't', 00H, ' '
	DB	00H, 's', 00H, 't', 00H, 'd', 00H, ':', 00H, ':', 00H, 'p', 00H
	DB	'a', 00H, 'i', 00H, 'r', 00H, '<', 00H, 'c', 00H, 'l', 00H, 'a'
	DB	00H, 's', 00H, 's', 00H, ' ', 00H, 's', 00H, 't', 00H, 'd', 00H
	DB	':', 00H, ':', 00H, 'b', 00H, 'a', 00H, 's', 00H, 'i', 00H, 'c'
	DB	00H, '_', 00H, 's', 00H, 't', 00H, 'r', 00H, 'i', 00H, 'n', 00H
	DB	'g', 00H, '<', 00H, 'c', 00H, 'h', 00H, 'a', 00H, 'r', 00H, ','
	DB	00H, 's', 00H, 't', 00H, 'r', 00H, 'u', 00H, 'c', 00H, 't', 00H
	DB	' ', 00H, 's', 00H, 't', 00H, 'd', 00H, ':', 00H, ':', 00H, 'c'
	DB	00H, 'h', 00H, 'a', 00H, 'r', 00H, '_', 00H, 't', 00H, 'r', 00H
	DB	'a', 00H, 'i', 00H, 't', 00H, 's', 00H, '<', 00H, 'c', 00H, 'h'
	DB	00H, 'a', 00H, 'r', 00H, '>', 00H, ',', 00H, 'c', 00H, 'l', 00H
	DB	'a', 00H, 's', 00H, 's', 00H, ' ', 00H, 's', 00H, 't', 00H, 'd'
	DB	00H, ':', 00H, ':', 00H, 'a', 00H, 'l', 00H, 'l', 00H, 'o', 00H
	DB	'c', 00H, 'a', 00H, 't', 00H, 'o', 00H, 'r', 00H, '<', 00H, 'c'
	DB	00H, 'h', 00H, 'a', 00H, 'r', 00H, '>', 00H, ' ', 00H, '>', 00H
	DB	' ', 00H, 'c', 00H, 'o', 00H, 'n', 00H, 's', 00H, 't', 00H, ' '
	DB	00H, ',', 00H, 'c', 00H, 'l', 00H, 'a', 00H, 's', 00H, 's', 00H
	DB	' ', 00H, 's', 00H, 't', 00H, 'd', 00H, ':', 00H, ':', 00H, 'b'
	DB	00H, 'a', 00H, 's', 00H, 'i', 00H, 'c', 00H, '_', 00H, 's', 00H
	DB	't', 00H, 'r', 00H, 'i', 00H, 'n', 00H, 'g', 00H, '<', 00H, 'c'
	DB	00H, 'h', 00H, 'a', 00H, 'r', 00H, ',', 00H, 's', 00H, 't', 00H
	DB	'r', 00H, 'u', 00H, 'c', 00H, 't', 00H, ' ', 00H, 's', 00H, 't'
	DB	00H, 'd', 00H, ':', 00H, ':', 00H, 'c', 00H, 'h', 00H, 'a', 00H
	DB	'r', 00H, '_', 00H, 't', 00H, 'r', 00H, 'a', 00H, 'i', 00H, 't'
	DB	00H, 's', 00H, '<', 00H, 'c', 00H, 'h', 00H, 'a', 00H, 'r', 00H
	DB	'>', 00H, ',', 00H, 'c', 00H, 'l', 00H, 'a', 00H, 's', 00H, 's'
	DB	00H, ' ', 00H, 's', 00H, 't', 00H, 'd', 00H, ':', 00H, ':', 00H
	DB	'a', 00H, 'l', 00H, 'l', 00H, 'o', 00H, 'c', 00H, 'a', 00H, 't'
	DB	00H, 'o', 00H, 'r', 00H, '<', 00H, 'c', 00H, 'h', 00H, 'a', 00H
	DB	'r', 00H, '>', 00H, ' ', 00H, '>', 00H, ' ', 00H, '>', 00H, ' '
	DB	00H, '>', 00H, ',', 00H, '0', 00H, '>', 00H, ' ', 00H, '>', 00H
	DB	':', 00H, ':', 00H, 'e', 00H, 'r', 00H, 'a', 00H, 's', 00H, 'e'
	DB	00H, 00H, 00H				; `string'
CONST	ENDS
;	COMDAT ??_C@_0CF@JILFNJOL@map?1set?5erase?5iterator?5outside?5@
CONST	SEGMENT
??_C@_0CF@JILFNJOL@map?1set?5erase?5iterator?5outside?5@ DB 'map/set eras'
	DB	'e iterator outside range', 00H		; `string'
CONST	ENDS
;	COMDAT ??_C@_0BI@CFPLBAOH@invalid?5string?5position@
CONST	SEGMENT
??_C@_0BI@CFPLBAOH@invalid?5string?5position@ DB 'invalid string position'
	DB	00H						; `string'
CONST	ENDS
;	COMDAT ??_C@_1JM@EIPCMFMM@?$AA?$CC?$AAs?$AAt?$AAr?$AAi?$AAn?$AAg?$AA?5?$AAi?$AAt?$AAe?$AAr?$AAa?$AAt?$AAo@
CONST	SEGMENT
??_C@_1JM@EIPCMFMM@?$AA?$CC?$AAs?$AAt?$AAr?$AAi?$AAn?$AAg?$AA?5?$AAi?$AAt?$AAe?$AAr?$AAa?$AAt?$AAo@ DB '"'
	DB	00H, 's', 00H, 't', 00H, 'r', 00H, 'i', 00H, 'n', 00H, 'g', 00H
	DB	' ', 00H, 'i', 00H, 't', 00H, 'e', 00H, 'r', 00H, 'a', 00H, 't'
	DB	00H, 'o', 00H, 'r', 00H, 's', 00H, ' ', 00H, 'i', 00H, 'n', 00H
	DB	'c', 00H, 'o', 00H, 'm', 00H, 'p', 00H, 'a', 00H, 't', 00H, 'i'
	DB	00H, 'b', 00H, 'l', 00H, 'e', 00H, ' ', 00H, '(', 00H, 'e', 00H
	DB	'.', 00H, 'g', 00H, '.', 00H, '"', 00H, ' ', 00H, '"', 00H, ' '
	DB	00H, 'p', 00H, 'o', 00H, 'i', 00H, 'n', 00H, 't', 00H, ' ', 00H
	DB	't', 00H, 'o', 00H, ' ', 00H, 'd', 00H, 'i', 00H, 'f', 00H, 'f'
	DB	00H, 'e', 00H, 'r', 00H, 'e', 00H, 'n', 00H, 't', 00H, ' ', 00H
	DB	's', 00H, 't', 00H, 'r', 00H, 'i', 00H, 'n', 00H, 'g', 00H, ' '
	DB	00H, 'i', 00H, 'n', 00H, 's', 00H, 't', 00H, 'a', 00H, 'n', 00H
	DB	'c', 00H, 'e', 00H, 's', 00H, ')', 00H, '"', 00H, 00H, 00H ; `string'
CONST	ENDS
;	COMDAT ??_C@_1MA@BDELDFHB@?$AAs?$AAt?$AAd?$AA?3?$AA?3?$AA_?$AAS?$AAt?$AAr?$AAi?$AAn?$AAg?$AA_?$AAc?$AAo@
CONST	SEGMENT
??_C@_1MA@BDELDFHB@?$AAs?$AAt?$AAd?$AA?3?$AA?3?$AA_?$AAS?$AAt?$AAr?$AAi?$AAn?$AAg?$AA_?$AAc?$AAo@ DB 's'
	DB	00H, 't', 00H, 'd', 00H, ':', 00H, ':', 00H, '_', 00H, 'S', 00H
	DB	't', 00H, 'r', 00H, 'i', 00H, 'n', 00H, 'g', 00H, '_', 00H, 'c'
	DB	00H, 'o', 00H, 'n', 00H, 's', 00H, 't', 00H, '_', 00H, 'i', 00H
	DB	't', 00H, 'e', 00H, 'r', 00H, 'a', 00H, 't', 00H, 'o', 00H, 'r'
	DB	00H, '<', 00H, 'c', 00H, 'l', 00H, 'a', 00H, 's', 00H, 's', 00H
	DB	' ', 00H, 's', 00H, 't', 00H, 'd', 00H, ':', 00H, ':', 00H, '_'
	DB	00H, 'S', 00H, 't', 00H, 'r', 00H, 'i', 00H, 'n', 00H, 'g', 00H
	DB	'_', 00H, 'v', 00H, 'a', 00H, 'l', 00H, '<', 00H, 's', 00H, 't'
	DB	00H, 'r', 00H, 'u', 00H, 'c', 00H, 't', 00H, ' ', 00H, 's', 00H
	DB	't', 00H, 'd', 00H, ':', 00H, ':', 00H, '_', 00H, 'S', 00H, 'i'
	DB	00H, 'm', 00H, 'p', 00H, 'l', 00H, 'e', 00H, '_', 00H, 't', 00H
	DB	'y', 00H, 'p', 00H, 'e', 00H, 's', 00H, '<', 00H, 'c', 00H, 'h'
	DB	00H, 'a', 00H, 'r', 00H, '>', 00H, ' ', 00H, '>', 00H, ' ', 00H
	DB	'>', 00H, ':', 00H, ':', 00H, '_', 00H, 'C', 00H, 'o', 00H, 'm'
	DB	00H, 'p', 00H, 'a', 00H, 't', 00H, 00H, 00H	; `string'
CONST	ENDS
;	COMDAT ??_C@_0EJ@NPIAEPMO@string?5iterators?5incompatible?5?$CI@
CONST	SEGMENT
??_C@_0EJ@NPIAEPMO@string?5iterators?5incompatible?5?$CI@ DB 'string iter'
	DB	'ators incompatible (e.g. point to different string instances)'
	DB	00H						; `string'
CONST	ENDS
;	COMDAT ??_C@_0BD@OLBABOEK@vector?$DMT?$DO?5too?5long@
CONST	SEGMENT
??_C@_0BD@OLBABOEK@vector?$DMT?$DO?5too?5long@ DB 'vector<T> too long', 00H ; `string'
CONST	ENDS
;	COMDAT ??_C@_1FE@NKHAAGMB@?$AA?$CC?$AAc?$AAa?$AAn?$AAn?$AAo?$AAt?$AA?5?$AAd?$AAe?$AAr?$AAe?$AAf?$AAe?$AAr@
CONST	SEGMENT
??_C@_1FE@NKHAAGMB@?$AA?$CC?$AAc?$AAa?$AAn?$AAn?$AAo?$AAt?$AA?5?$AAd?$AAe?$AAr?$AAe?$AAf?$AAe?$AAr@ DB '"'
	DB	00H, 'c', 00H, 'a', 00H, 'n', 00H, 'n', 00H, 'o', 00H, 't', 00H
	DB	' ', 00H, 'd', 00H, 'e', 00H, 'r', 00H, 'e', 00H, 'f', 00H, 'e'
	DB	00H, 'r', 00H, 'e', 00H, 'n', 00H, 'c', 00H, 'e', 00H, ' ', 00H
	DB	'e', 00H, 'n', 00H, 'd', 00H, ' ', 00H, 'm', 00H, 'a', 00H, 'p'
	DB	00H, '/', 00H, 's', 00H, 'e', 00H, 't', 00H, ' ', 00H, 'i', 00H
	DB	't', 00H, 'e', 00H, 'r', 00H, 'a', 00H, 't', 00H, 'o', 00H, 'r'
	DB	00H, '"', 00H, 00H, 00H			; `string'
CONST	ENDS
;	COMDAT ??_C@_0CI@OKFEHCEB@cannot?5dereference?5end?5map?1set?5@
CONST	SEGMENT
??_C@_0CI@OKFEHCEB@cannot?5dereference?5end?5map?1set?5@ DB 'cannot deref'
	DB	'erence end map/set iterator', 00H		; `string'
CONST	ENDS
;	COMDAT ??_C@_1HA@ILGCNILF@?$AA?$CC?$AAc?$AAa?$AAn?$AAn?$AAo?$AAt?$AA?5?$AAd?$AAe?$AAr?$AAe?$AAf?$AAe?$AAr@
CONST	SEGMENT
??_C@_1HA@ILGCNILF@?$AA?$CC?$AAc?$AAa?$AAn?$AAn?$AAo?$AAt?$AA?5?$AAd?$AAe?$AAr?$AAe?$AAf?$AAe?$AAr@ DB '"'
	DB	00H, 'c', 00H, 'a', 00H, 'n', 00H, 'n', 00H, 'o', 00H, 't', 00H
	DB	' ', 00H, 'd', 00H, 'e', 00H, 'r', 00H, 'e', 00H, 'f', 00H, 'e'
	DB	00H, 'r', 00H, 'e', 00H, 'n', 00H, 'c', 00H, 'e', 00H, ' ', 00H
	DB	'v', 00H, 'a', 00H, 'l', 00H, 'u', 00H, 'e', 00H, '-', 00H, 'i'
	DB	00H, 'n', 00H, 'i', 00H, 't', 00H, 'i', 00H, 'a', 00H, 'l', 00H
	DB	'i', 00H, 'z', 00H, 'e', 00H, 'd', 00H, ' ', 00H, 'm', 00H, 'a'
	DB	00H, 'p', 00H, '/', 00H, 's', 00H, 'e', 00H, 't', 00H, ' ', 00H
	DB	'i', 00H, 't', 00H, 'e', 00H, 'r', 00H, 'a', 00H, 't', 00H, 'o'
	DB	00H, 'r', 00H, '"', 00H, 00H, 00H		; `string'
CONST	ENDS
;	COMDAT ??_C@_1CFE@PPLBLEGL@?$AAs?$AAt?$AAd?$AA?3?$AA?3?$AA_?$AAT?$AAr?$AAe?$AAe?$AA_?$AAc?$AAo?$AAn?$AAs@
CONST	SEGMENT
??_C@_1CFE@PPLBLEGL@?$AAs?$AAt?$AAd?$AA?3?$AA?3?$AA_?$AAT?$AAr?$AAe?$AAe?$AA_?$AAc?$AAo?$AAn?$AAs@ DB 's'
	DB	00H, 't', 00H, 'd', 00H, ':', 00H, ':', 00H, '_', 00H, 'T', 00H
	DB	'r', 00H, 'e', 00H, 'e', 00H, '_', 00H, 'c', 00H, 'o', 00H, 'n'
	DB	00H, 's', 00H, 't', 00H, '_', 00H, 'i', 00H, 't', 00H, 'e', 00H
	DB	'r', 00H, 'a', 00H, 't', 00H, 'o', 00H, 'r', 00H, '<', 00H, 'c'
	DB	00H, 'l', 00H, 'a', 00H, 's', 00H, 's', 00H, ' ', 00H, 's', 00H
	DB	't', 00H, 'd', 00H, ':', 00H, ':', 00H, '_', 00H, 'T', 00H, 'r'
	DB	00H, 'e', 00H, 'e', 00H, '_', 00H, 'v', 00H, 'a', 00H, 'l', 00H
	DB	'<', 00H, 's', 00H, 't', 00H, 'r', 00H, 'u', 00H, 'c', 00H, 't'
	DB	00H, ' ', 00H, 's', 00H, 't', 00H, 'd', 00H, ':', 00H, ':', 00H
	DB	'_', 00H, 'T', 00H, 'r', 00H, 'e', 00H, 'e', 00H, '_', 00H, 's'
	DB	00H, 'i', 00H, 'm', 00H, 'p', 00H, 'l', 00H, 'e', 00H, '_', 00H
	DB	't', 00H, 'y', 00H, 'p', 00H, 'e', 00H, 's', 00H, '<', 00H, 's'
	DB	00H, 't', 00H, 'r', 00H, 'u', 00H, 'c', 00H, 't', 00H, ' ', 00H
	DB	's', 00H, 't', 00H, 'd', 00H, ':', 00H, ':', 00H, 'p', 00H, 'a'
	DB	00H, 'i', 00H, 'r', 00H, '<', 00H, 'c', 00H, 'l', 00H, 'a', 00H
	DB	's', 00H, 's', 00H, ' ', 00H, 's', 00H, 't', 00H, 'd', 00H, ':'
	DB	00H, ':', 00H, 'b', 00H, 'a', 00H, 's', 00H, 'i', 00H, 'c', 00H
	DB	'_', 00H, 's', 00H, 't', 00H, 'r', 00H, 'i', 00H, 'n', 00H, 'g'
	DB	00H, '<', 00H, 'c', 00H, 'h', 00H, 'a', 00H, 'r', 00H, ',', 00H
	DB	's', 00H, 't', 00H, 'r', 00H, 'u', 00H, 'c', 00H, 't', 00H, ' '
	DB	00H, 's', 00H, 't', 00H, 'd', 00H, ':', 00H, ':', 00H, 'c', 00H
	DB	'h', 00H, 'a', 00H, 'r', 00H, '_', 00H, 't', 00H, 'r', 00H, 'a'
	DB	00H, 'i', 00H, 't', 00H, 's', 00H, '<', 00H, 'c', 00H, 'h', 00H
	DB	'a', 00H, 'r', 00H, '>', 00H, ',', 00H, 'c', 00H, 'l', 00H, 'a'
	DB	00H, 's', 00H, 's', 00H, ' ', 00H, 's', 00H, 't', 00H, 'd', 00H
	DB	':', 00H, ':', 00H, 'a', 00H, 'l', 00H, 'l', 00H, 'o', 00H, 'c'
	DB	00H, 'a', 00H, 't', 00H, 'o', 00H, 'r', 00H, '<', 00H, 'c', 00H
	DB	'h', 00H, 'a', 00H, 'r', 00H, '>', 00H, ' ', 00H, '>', 00H, ' '
	DB	00H, 'c', 00H, 'o', 00H, 'n', 00H, 's', 00H, 't', 00H, ' ', 00H
	DB	',', 00H, 'c', 00H, 'l', 00H, 'a', 00H, 's', 00H, 's', 00H, ' '
	DB	00H, 's', 00H, 't', 00H, 'd', 00H, ':', 00H, ':', 00H, 'b', 00H
	DB	'a', 00H, 's', 00H, 'i', 00H, 'c', 00H, '_', 00H, 's', 00H, 't'
	DB	00H, 'r', 00H, 'i', 00H, 'n', 00H, 'g', 00H, '<', 00H, 'c', 00H
	DB	'h', 00H, 'a', 00H, 'r', 00H, ',', 00H, 's', 00H, 't', 00H, 'r'
	DB	00H, 'u', 00H, 'c', 00H, 't', 00H, ' ', 00H, 's', 00H, 't', 00H
	DB	'd', 00H, ':', 00H, ':', 00H, 'c', 00H, 'h', 00H, 'a', 00H, 'r'
	DB	00H, '_', 00H, 't', 00H, 'r', 00H, 'a', 00H, 'i', 00H, 't', 00H
	DB	's', 00H, '<', 00H, 'c', 00H, 'h', 00H, 'a', 00H, 'r', 00H, '>'
	DB	00H, ',', 00H, 'c', 00H, 'l', 00H, 'a', 00H, 's', 00H, 's', 00H
	DB	' ', 00H, 's', 00H, 't', 00H, 'd', 00H, ':', 00H, ':', 00H, 'a'
	DB	00H, 'l', 00H, 'l', 00H, 'o', 00H, 'c', 00H, 'a', 00H, 't', 00H
	DB	'o', 00H, 'r', 00H, '<', 00H, 'c', 00H, 'h', 00H, 'a', 00H, 'r'
	DB	00H, '>', 00H, ' ', 00H, '>', 00H, ' ', 00H, '>', 00H, ' ', 00H
	DB	'>', 00H, ' ', 00H, '>', 00H, ' ', 00H, '>', 00H, ':', 00H, ':'
	DB	00H, 'o', 00H, 'p', 00H, 'e', 00H, 'r', 00H, 'a', 00H, 't', 00H
	DB	'o', 00H, 'r', 00H, ' ', 00H, '*', 00H, 00H, 00H ; `string'
CONST	ENDS
;	COMDAT ??_C@_0DG@LCFNIIPB@cannot?5dereference?5value?9initia@
CONST	SEGMENT
??_C@_0DG@LCFNIIPB@cannot?5dereference?5value?9initia@ DB 'cannot derefer'
	DB	'ence value-initialized map/set iterator', 00H ; `string'
CONST	ENDS
;	COMDAT ??_C@_1EC@JLIDLCDH@?$AA?$CC?$AAm?$AAa?$AAp?$AA?1?$AAs?$AAe?$AAt?$AA?5?$AAi?$AAt?$AAe?$AAr?$AAa?$AAt@
CONST	SEGMENT
??_C@_1EC@JLIDLCDH@?$AA?$CC?$AAm?$AAa?$AAp?$AA?1?$AAs?$AAe?$AAt?$AA?5?$AAi?$AAt?$AAe?$AAr?$AAa?$AAt@ DB '"'
	DB	00H, 'm', 00H, 'a', 00H, 'p', 00H, '/', 00H, 's', 00H, 'e', 00H
	DB	't', 00H, ' ', 00H, 'i', 00H, 't', 00H, 'e', 00H, 'r', 00H, 'a'
	DB	00H, 't', 00H, 'o', 00H, 'r', 00H, 's', 00H, ' ', 00H, 'i', 00H
	DB	'n', 00H, 'c', 00H, 'o', 00H, 'm', 00H, 'p', 00H, 'a', 00H, 't'
	DB	00H, 'i', 00H, 'b', 00H, 'l', 00H, 'e', 00H, '"', 00H, 00H, 00H ; `string'
CONST	ENDS
;	COMDAT ??_C@_1CFG@FGJHCIBH@?$AAs?$AAt?$AAd?$AA?3?$AA?3?$AA_?$AAT?$AAr?$AAe?$AAe?$AA_?$AAc?$AAo?$AAn?$AAs@
CONST	SEGMENT
??_C@_1CFG@FGJHCIBH@?$AAs?$AAt?$AAd?$AA?3?$AA?3?$AA_?$AAT?$AAr?$AAe?$AAe?$AA_?$AAc?$AAo?$AAn?$AAs@ DB 's'
	DB	00H, 't', 00H, 'd', 00H, ':', 00H, ':', 00H, '_', 00H, 'T', 00H
	DB	'r', 00H, 'e', 00H, 'e', 00H, '_', 00H, 'c', 00H, 'o', 00H, 'n'
	DB	00H, 's', 00H, 't', 00H, '_', 00H, 'i', 00H, 't', 00H, 'e', 00H
	DB	'r', 00H, 'a', 00H, 't', 00H, 'o', 00H, 'r', 00H, '<', 00H, 'c'
	DB	00H, 'l', 00H, 'a', 00H, 's', 00H, 's', 00H, ' ', 00H, 's', 00H
	DB	't', 00H, 'd', 00H, ':', 00H, ':', 00H, '_', 00H, 'T', 00H, 'r'
	DB	00H, 'e', 00H, 'e', 00H, '_', 00H, 'v', 00H, 'a', 00H, 'l', 00H
	DB	'<', 00H, 's', 00H, 't', 00H, 'r', 00H, 'u', 00H, 'c', 00H, 't'
	DB	00H, ' ', 00H, 's', 00H, 't', 00H, 'd', 00H, ':', 00H, ':', 00H
	DB	'_', 00H, 'T', 00H, 'r', 00H, 'e', 00H, 'e', 00H, '_', 00H, 's'
	DB	00H, 'i', 00H, 'm', 00H, 'p', 00H, 'l', 00H, 'e', 00H, '_', 00H
	DB	't', 00H, 'y', 00H, 'p', 00H, 'e', 00H, 's', 00H, '<', 00H, 's'
	DB	00H, 't', 00H, 'r', 00H, 'u', 00H, 'c', 00H, 't', 00H, ' ', 00H
	DB	's', 00H, 't', 00H, 'd', 00H, ':', 00H, ':', 00H, 'p', 00H, 'a'
	DB	00H, 'i', 00H, 'r', 00H, '<', 00H, 'c', 00H, 'l', 00H, 'a', 00H
	DB	's', 00H, 's', 00H, ' ', 00H, 's', 00H, 't', 00H, 'd', 00H, ':'
	DB	00H, ':', 00H, 'b', 00H, 'a', 00H, 's', 00H, 'i', 00H, 'c', 00H
	DB	'_', 00H, 's', 00H, 't', 00H, 'r', 00H, 'i', 00H, 'n', 00H, 'g'
	DB	00H, '<', 00H, 'c', 00H, 'h', 00H, 'a', 00H, 'r', 00H, ',', 00H
	DB	's', 00H, 't', 00H, 'r', 00H, 'u', 00H, 'c', 00H, 't', 00H, ' '
	DB	00H, 's', 00H, 't', 00H, 'd', 00H, ':', 00H, ':', 00H, 'c', 00H
	DB	'h', 00H, 'a', 00H, 'r', 00H, '_', 00H, 't', 00H, 'r', 00H, 'a'
	DB	00H, 'i', 00H, 't', 00H, 's', 00H, '<', 00H, 'c', 00H, 'h', 00H
	DB	'a', 00H, 'r', 00H, '>', 00H, ',', 00H, 'c', 00H, 'l', 00H, 'a'
	DB	00H, 's', 00H, 's', 00H, ' ', 00H, 's', 00H, 't', 00H, 'd', 00H
	DB	':', 00H, ':', 00H, 'a', 00H, 'l', 00H, 'l', 00H, 'o', 00H, 'c'
	DB	00H, 'a', 00H, 't', 00H, 'o', 00H, 'r', 00H, '<', 00H, 'c', 00H
	DB	'h', 00H, 'a', 00H, 'r', 00H, '>', 00H, ' ', 00H, '>', 00H, ' '
	DB	00H, 'c', 00H, 'o', 00H, 'n', 00H, 's', 00H, 't', 00H, ' ', 00H
	DB	',', 00H, 'c', 00H, 'l', 00H, 'a', 00H, 's', 00H, 's', 00H, ' '
	DB	00H, 's', 00H, 't', 00H, 'd', 00H, ':', 00H, ':', 00H, 'b', 00H
	DB	'a', 00H, 's', 00H, 'i', 00H, 'c', 00H, '_', 00H, 's', 00H, 't'
	DB	00H, 'r', 00H, 'i', 00H, 'n', 00H, 'g', 00H, '<', 00H, 'c', 00H
	DB	'h', 00H, 'a', 00H, 'r', 00H, ',', 00H, 's', 00H, 't', 00H, 'r'
	DB	00H, 'u', 00H, 'c', 00H, 't', 00H, ' ', 00H, 's', 00H, 't', 00H
	DB	'd', 00H, ':', 00H, ':', 00H, 'c', 00H, 'h', 00H, 'a', 00H, 'r'
	DB	00H, '_', 00H, 't', 00H, 'r', 00H, 'a', 00H, 'i', 00H, 't', 00H
	DB	's', 00H, '<', 00H, 'c', 00H, 'h', 00H, 'a', 00H, 'r', 00H, '>'
	DB	00H, ',', 00H, 'c', 00H, 'l', 00H, 'a', 00H, 's', 00H, 's', 00H
	DB	' ', 00H, 's', 00H, 't', 00H, 'd', 00H, ':', 00H, ':', 00H, 'a'
	DB	00H, 'l', 00H, 'l', 00H, 'o', 00H, 'c', 00H, 'a', 00H, 't', 00H
	DB	'o', 00H, 'r', 00H, '<', 00H, 'c', 00H, 'h', 00H, 'a', 00H, 'r'
	DB	00H, '>', 00H, ' ', 00H, '>', 00H, ' ', 00H, '>', 00H, ' ', 00H
	DB	'>', 00H, ' ', 00H, '>', 00H, ' ', 00H, '>', 00H, ':', 00H, ':'
	DB	00H, 'o', 00H, 'p', 00H, 'e', 00H, 'r', 00H, 'a', 00H, 't', 00H
	DB	'o', 00H, 'r', 00H, ' ', 00H, '=', 00H, '=', 00H, 00H, 00H ; `string'
CONST	ENDS
;	COMDAT ??_C@_0BP@OLDKBHLM@map?1set?5iterators?5incompatible@
CONST	SEGMENT
??_C@_0BP@OLDKBHLM@map?1set?5iterators?5incompatible@ DB 'map/set iterato'
	DB	'rs incompatible', 00H			; `string'
CONST	ENDS
;	COMDAT ??_C@_1KO@CMPBFHAM@?$AA?$CC?$AAc?$AAa?$AAn?$AAn?$AAo?$AAt?$AA?5?$AAd?$AAe?$AAr?$AAe?$AAf?$AAe?$AAr@
CONST	SEGMENT
??_C@_1KO@CMPBFHAM@?$AA?$CC?$AAc?$AAa?$AAn?$AAn?$AAo?$AAt?$AA?5?$AAd?$AAe?$AAr?$AAe?$AAf?$AAe?$AAr@ DB '"'
	DB	00H, 'c', 00H, 'a', 00H, 'n', 00H, 'n', 00H, 'o', 00H, 't', 00H
	DB	' ', 00H, 'd', 00H, 'e', 00H, 'r', 00H, 'e', 00H, 'f', 00H, 'e'
	DB	00H, 'r', 00H, 'e', 00H, 'n', 00H, 'c', 00H, 'e', 00H, ' ', 00H
	DB	's', 00H, 't', 00H, 'r', 00H, 'i', 00H, 'n', 00H, 'g', 00H, ' '
	DB	00H, 'i', 00H, 't', 00H, 'e', 00H, 'r', 00H, 'a', 00H, 't', 00H
	DB	'o', 00H, 'r', 00H, ' ', 00H, 'b', 00H, 'e', 00H, 'c', 00H, 'a'
	DB	00H, 'u', 00H, 's', 00H, 'e', 00H, ' ', 00H, 'i', 00H, 't', 00H
	DB	' ', 00H, 'i', 00H, 's', 00H, ' ', 00H, 'o', 00H, 'u', 00H, 't'
	DB	00H, ' ', 00H, 'o', 00H, 'f', 00H, ' ', 00H, 'r', 00H, 'a', 00H
	DB	'n', 00H, 'g', 00H, 'e', 00H, ' ', 00H, '(', 00H, 'e', 00H, '.'
	DB	00H, 'g', 00H, '.', 00H, ' ', 00H, 'a', 00H, 'n', 00H, ' ', 00H
	DB	'e', 00H, 'n', 00H, 'd', 00H, ' ', 00H, 'i', 00H, 't', 00H, 'e'
	DB	00H, 'r', 00H, 'a', 00H, 't', 00H, 'o', 00H, 'r', 00H, ')', 00H
	DB	'"', 00H, 00H, 00H				; `string'
CONST	ENDS
;	COMDAT ??_C@_0FF@HJKEHIBC@cannot?5dereference?5string?5itera@
CONST	SEGMENT
??_C@_0FF@HJKEHIBC@cannot?5dereference?5string?5itera@ DB 'cannot derefer'
	DB	'ence string iterator because it is out of range (e.g. an end '
	DB	'iterator)', 00H				; `string'
CONST	ENDS
;	COMDAT ??_C@_1BAO@BGLBIONH@?$AA?$CC?$AAc?$AAa?$AAn?$AAn?$AAo?$AAt?$AA?5?$AAd?$AAe?$AAr?$AAe?$AAf?$AAe?$AAr@
CONST	SEGMENT
??_C@_1BAO@BGLBIONH@?$AA?$CC?$AAc?$AAa?$AAn?$AAn?$AAo?$AAt?$AA?5?$AAd?$AAe?$AAr?$AAe?$AAf?$AAe?$AAr@ DB '"'
	DB	00H, 'c', 00H, 'a', 00H, 'n', 00H, 'n', 00H, 'o', 00H, 't', 00H
	DB	' ', 00H, 'd', 00H, 'e', 00H, 'r', 00H, 'e', 00H, 'f', 00H, 'e'
	DB	00H, 'r', 00H, 'e', 00H, 'n', 00H, 'c', 00H, 'e', 00H, ' ', 00H
	DB	's', 00H, 't', 00H, 'r', 00H, 'i', 00H, 'n', 00H, 'g', 00H, ' '
	DB	00H, 'i', 00H, 't', 00H, 'e', 00H, 'r', 00H, 'a', 00H, 't', 00H
	DB	'o', 00H, 'r', 00H, ' ', 00H, 'b', 00H, 'e', 00H, 'c', 00H, 'a'
	DB	00H, 'u', 00H, 's', 00H, 'e', 00H, ' ', 00H, 't', 00H, 'h', 00H
	DB	'e', 00H, ' ', 00H, 'i', 00H, 't', 00H, 'e', 00H, 'r', 00H, 'a'
	DB	00H, 't', 00H, 'o', 00H, 'r', 00H, ' ', 00H, 'w', 00H, 'a', 00H
	DB	's', 00H, '"', 00H, ' ', 00H, '"', 00H, ' ', 00H, 'i', 00H, 'n'
	DB	00H, 'v', 00H, 'a', 00H, 'l', 00H, 'i', 00H, 'd', 00H, 'a', 00H
	DB	't', 00H, 'e', 00H, 'd', 00H, ' ', 00H, '(', 00H, 'e', 00H, '.'
	DB	00H, 'g', 00H, '.', 00H, ' ', 00H, 'r', 00H, 'e', 00H, 'a', 00H
	DB	'l', 00H, 'l', 00H, 'o', 00H, 'c', 00H, 'a', 00H, 't', 00H, 'i'
	DB	00H, 'o', 00H, 'n', 00H, ' ', 00H, 'o', 00H, 'c', 00H, 'c', 00H
	DB	'u', 00H, 'r', 00H, 'r', 00H, 'e', 00H, 'd', 00H, ',', 00H, ' '
	DB	00H, 'o', 00H, 'r', 00H, ' ', 00H, 't', 00H, 'h', 00H, 'e', 00H
	DB	' ', 00H, 's', 00H, 't', 00H, 'r', 00H, 'i', 00H, 'n', 00H, 'g'
	DB	00H, ' ', 00H, 'w', 00H, 'a', 00H, 's', 00H, ' ', 00H, 'd', 00H
	DB	'e', 00H, 's', 00H, 't', 00H, 'r', 00H, 'o', 00H, 'y', 00H, 'e'
	DB	00H, 'd', 00H, ')', 00H, '"', 00H, 00H, 00H	; `string'
CONST	ENDS
;	COMDAT ??_C@_0IC@DGJDAAEM@cannot?5dereference?5string?5itera@
CONST	SEGMENT
??_C@_0IC@DGJDAAEM@cannot?5dereference?5string?5itera@ DB 'cannot derefer'
	DB	'ence string iterator because the iterator was invalidated (e.'
	DB	'g. reallocation occurred, or the string was destroyed)', 00H ; `string'
CONST	ENDS
;	COMDAT ??_C@_1GO@PNALIMBD@?$AA?$CC?$AAc?$AAa?$AAn?$AAn?$AAo?$AAt?$AA?5?$AAd?$AAe?$AAr?$AAe?$AAf?$AAe?$AAr@
CONST	SEGMENT
??_C@_1GO@PNALIMBD@?$AA?$CC?$AAc?$AAa?$AAn?$AAn?$AAo?$AAt?$AA?5?$AAd?$AAe?$AAr?$AAe?$AAf?$AAe?$AAr@ DB '"'
	DB	00H, 'c', 00H, 'a', 00H, 'n', 00H, 'n', 00H, 'o', 00H, 't', 00H
	DB	' ', 00H, 'd', 00H, 'e', 00H, 'r', 00H, 'e', 00H, 'f', 00H, 'e'
	DB	00H, 'r', 00H, 'e', 00H, 'n', 00H, 'c', 00H, 'e', 00H, ' ', 00H
	DB	'v', 00H, 'a', 00H, 'l', 00H, 'u', 00H, 'e', 00H, '-', 00H, 'i'
	DB	00H, 'n', 00H, 'i', 00H, 't', 00H, 'i', 00H, 'a', 00H, 'l', 00H
	DB	'i', 00H, 'z', 00H, 'e', 00H, 'd', 00H, ' ', 00H, 's', 00H, 't'
	DB	00H, 'r', 00H, 'i', 00H, 'n', 00H, 'g', 00H, ' ', 00H, 'i', 00H
	DB	't', 00H, 'e', 00H, 'r', 00H, 'a', 00H, 't', 00H, 'o', 00H, 'r'
	DB	00H, '"', 00H, 00H, 00H			; `string'
CONST	ENDS
;	COMDAT ??_C@_1MG@GDGHDIKC@?$AAs?$AAt?$AAd?$AA?3?$AA?3?$AA_?$AAS?$AAt?$AAr?$AAi?$AAn?$AAg?$AA_?$AAc?$AAo@
CONST	SEGMENT
??_C@_1MG@GDGHDIKC@?$AAs?$AAt?$AAd?$AA?3?$AA?3?$AA_?$AAS?$AAt?$AAr?$AAi?$AAn?$AAg?$AA_?$AAc?$AAo@ DB 's'
	DB	00H, 't', 00H, 'd', 00H, ':', 00H, ':', 00H, '_', 00H, 'S', 00H
	DB	't', 00H, 'r', 00H, 'i', 00H, 'n', 00H, 'g', 00H, '_', 00H, 'c'
	DB	00H, 'o', 00H, 'n', 00H, 's', 00H, 't', 00H, '_', 00H, 'i', 00H
	DB	't', 00H, 'e', 00H, 'r', 00H, 'a', 00H, 't', 00H, 'o', 00H, 'r'
	DB	00H, '<', 00H, 'c', 00H, 'l', 00H, 'a', 00H, 's', 00H, 's', 00H
	DB	' ', 00H, 's', 00H, 't', 00H, 'd', 00H, ':', 00H, ':', 00H, '_'
	DB	00H, 'S', 00H, 't', 00H, 'r', 00H, 'i', 00H, 'n', 00H, 'g', 00H
	DB	'_', 00H, 'v', 00H, 'a', 00H, 'l', 00H, '<', 00H, 's', 00H, 't'
	DB	00H, 'r', 00H, 'u', 00H, 'c', 00H, 't', 00H, ' ', 00H, 's', 00H
	DB	't', 00H, 'd', 00H, ':', 00H, ':', 00H, '_', 00H, 'S', 00H, 'i'
	DB	00H, 'm', 00H, 'p', 00H, 'l', 00H, 'e', 00H, '_', 00H, 't', 00H
	DB	'y', 00H, 'p', 00H, 'e', 00H, 's', 00H, '<', 00H, 'c', 00H, 'h'
	DB	00H, 'a', 00H, 'r', 00H, '>', 00H, ' ', 00H, '>', 00H, ' ', 00H
	DB	'>', 00H, ':', 00H, ':', 00H, 'o', 00H, 'p', 00H, 'e', 00H, 'r'
	DB	00H, 'a', 00H, 't', 00H, 'o', 00H, 'r', 00H, ' ', 00H, '*', 00H
	DB	00H, 00H					; `string'
CONST	ENDS
;	COMDAT ??_C@_0DF@IMIHIHOP@cannot?5dereference?5value?9initia@
CONST	SEGMENT
??_C@_0DF@IMIHIHOP@cannot?5dereference?5value?9initia@ DB 'cannot derefer'
	DB	'ence value-initialized string iterator', 00H ; `string'
CONST	ENDS
;	COMDAT ??_C@_1FI@JCCODAAD@?$AA?$CC?$AAc?$AAa?$AAn?$AAn?$AAo?$AAt?$AA?5?$AAi?$AAn?$AAc?$AAr?$AAe?$AAm?$AAe@
CONST	SEGMENT
??_C@_1FI@JCCODAAD@?$AA?$CC?$AAc?$AAa?$AAn?$AAn?$AAo?$AAt?$AA?5?$AAi?$AAn?$AAc?$AAr?$AAe?$AAm?$AAe@ DB '"'
	DB	00H, 'c', 00H, 'a', 00H, 'n', 00H, 'n', 00H, 'o', 00H, 't', 00H
	DB	' ', 00H, 'i', 00H, 'n', 00H, 'c', 00H, 'r', 00H, 'e', 00H, 'm'
	DB	00H, 'e', 00H, 'n', 00H, 't', 00H, ' ', 00H, 's', 00H, 't', 00H
	DB	'r', 00H, 'i', 00H, 'n', 00H, 'g', 00H, ' ', 00H, 'i', 00H, 't'
	DB	00H, 'e', 00H, 'r', 00H, 'a', 00H, 't', 00H, 'o', 00H, 'r', 00H
	DB	' ', 00H, 'p', 00H, 'a', 00H, 's', 00H, 't', 00H, ' ', 00H, 'e'
	DB	00H, 'n', 00H, 'd', 00H, '"', 00H, 00H, 00H	; `string'
CONST	ENDS
;	COMDAT ??_C@_0CK@IKJHPFKC@cannot?5increment?5string?5iterato@
CONST	SEGMENT
??_C@_0CK@IKJHPFKC@cannot?5increment?5string?5iterato@ DB 'cannot increme'
	DB	'nt string iterator past end', 00H		; `string'
CONST	ENDS
;	COMDAT ??_C@_1BAK@GBJMLMKM@?$AA?$CC?$AAc?$AAa?$AAn?$AAn?$AAo?$AAt?$AA?5?$AAi?$AAn?$AAc?$AAr?$AAe?$AAm?$AAe@
CONST	SEGMENT
??_C@_1BAK@GBJMLMKM@?$AA?$CC?$AAc?$AAa?$AAn?$AAn?$AAo?$AAt?$AA?5?$AAi?$AAn?$AAc?$AAr?$AAe?$AAm?$AAe@ DB '"'
	DB	00H, 'c', 00H, 'a', 00H, 'n', 00H, 'n', 00H, 'o', 00H, 't', 00H
	DB	' ', 00H, 'i', 00H, 'n', 00H, 'c', 00H, 'r', 00H, 'e', 00H, 'm'
	DB	00H, 'e', 00H, 'n', 00H, 't', 00H, ' ', 00H, 's', 00H, 't', 00H
	DB	'r', 00H, 'i', 00H, 'n', 00H, 'g', 00H, ' ', 00H, 'i', 00H, 't'
	DB	00H, 'e', 00H, 'r', 00H, 'a', 00H, 't', 00H, 'o', 00H, 'r', 00H
	DB	' ', 00H, 'b', 00H, 'e', 00H, 'c', 00H, 'a', 00H, 'u', 00H, 's'
	DB	00H, 'e', 00H, ' ', 00H, 't', 00H, 'h', 00H, 'e', 00H, ' ', 00H
	DB	'i', 00H, 't', 00H, 'e', 00H, 'r', 00H, 'a', 00H, 't', 00H, 'o'
	DB	00H, 'r', 00H, ' ', 00H, 'w', 00H, 'a', 00H, 's', 00H, '"', 00H
	DB	' ', 00H, '"', 00H, ' ', 00H, 'i', 00H, 'n', 00H, 'v', 00H, 'a'
	DB	00H, 'l', 00H, 'i', 00H, 'd', 00H, 'a', 00H, 't', 00H, 'e', 00H
	DB	'd', 00H, ' ', 00H, '(', 00H, 'e', 00H, '.', 00H, 'g', 00H, '.'
	DB	00H, ' ', 00H, 'r', 00H, 'e', 00H, 'a', 00H, 'l', 00H, 'l', 00H
	DB	'o', 00H, 'c', 00H, 'a', 00H, 't', 00H, 'i', 00H, 'o', 00H, 'n'
	DB	00H, ' ', 00H, 'o', 00H, 'c', 00H, 'c', 00H, 'u', 00H, 'r', 00H
	DB	'r', 00H, 'e', 00H, 'd', 00H, ',', 00H, ' ', 00H, 'o', 00H, 'r'
	DB	00H, ' ', 00H, 't', 00H, 'h', 00H, 'e', 00H, ' ', 00H, 's', 00H
	DB	't', 00H, 'r', 00H, 'i', 00H, 'n', 00H, 'g', 00H, ' ', 00H, 'w'
	DB	00H, 'a', 00H, 's', 00H, ' ', 00H, 'd', 00H, 'e', 00H, 's', 00H
	DB	't', 00H, 'r', 00H, 'o', 00H, 'y', 00H, 'e', 00H, 'd', 00H, ')'
	DB	00H, '"', 00H, 00H, 00H			; `string'
CONST	ENDS
;	COMDAT ??_C@_0IA@BFMOHEDB@cannot?5increment?5string?5iterato@
CONST	SEGMENT
??_C@_0IA@BFMOHEDB@cannot?5increment?5string?5iterato@ DB 'cannot increme'
	DB	'nt string iterator because the iterator was invalidated (e.g.'
	DB	' reallocation occurred, or the string was destroyed)', 00H ; `string'
CONST	ENDS
;	COMDAT ??_C@_1GK@MICKMFNF@?$AA?$CC?$AAc?$AAa?$AAn?$AAn?$AAo?$AAt?$AA?5?$AAi?$AAn?$AAc?$AAr?$AAe?$AAm?$AAe@
CONST	SEGMENT
??_C@_1GK@MICKMFNF@?$AA?$CC?$AAc?$AAa?$AAn?$AAn?$AAo?$AAt?$AA?5?$AAi?$AAn?$AAc?$AAr?$AAe?$AAm?$AAe@ DB '"'
	DB	00H, 'c', 00H, 'a', 00H, 'n', 00H, 'n', 00H, 'o', 00H, 't', 00H
	DB	' ', 00H, 'i', 00H, 'n', 00H, 'c', 00H, 'r', 00H, 'e', 00H, 'm'
	DB	00H, 'e', 00H, 'n', 00H, 't', 00H, ' ', 00H, 'v', 00H, 'a', 00H
	DB	'l', 00H, 'u', 00H, 'e', 00H, '-', 00H, 'i', 00H, 'n', 00H, 'i'
	DB	00H, 't', 00H, 'i', 00H, 'a', 00H, 'l', 00H, 'i', 00H, 'z', 00H
	DB	'e', 00H, 'd', 00H, ' ', 00H, 's', 00H, 't', 00H, 'r', 00H, 'i'
	DB	00H, 'n', 00H, 'g', 00H, ' ', 00H, 'i', 00H, 't', 00H, 'e', 00H
	DB	'r', 00H, 'a', 00H, 't', 00H, 'o', 00H, 'r', 00H, '"', 00H, 00H
	DB	00H						; `string'
CONST	ENDS
;	COMDAT ??_C@_1MI@IFMPOAI@?$AAs?$AAt?$AAd?$AA?3?$AA?3?$AA_?$AAS?$AAt?$AAr?$AAi?$AAn?$AAg?$AA_?$AAc?$AAo@
CONST	SEGMENT
??_C@_1MI@IFMPOAI@?$AAs?$AAt?$AAd?$AA?3?$AA?3?$AA_?$AAS?$AAt?$AAr?$AAi?$AAn?$AAg?$AA_?$AAc?$AAo@ DB 's'
	DB	00H, 't', 00H, 'd', 00H, ':', 00H, ':', 00H, '_', 00H, 'S', 00H
	DB	't', 00H, 'r', 00H, 'i', 00H, 'n', 00H, 'g', 00H, '_', 00H, 'c'
	DB	00H, 'o', 00H, 'n', 00H, 's', 00H, 't', 00H, '_', 00H, 'i', 00H
	DB	't', 00H, 'e', 00H, 'r', 00H, 'a', 00H, 't', 00H, 'o', 00H, 'r'
	DB	00H, '<', 00H, 'c', 00H, 'l', 00H, 'a', 00H, 's', 00H, 's', 00H
	DB	' ', 00H, 's', 00H, 't', 00H, 'd', 00H, ':', 00H, ':', 00H, '_'
	DB	00H, 'S', 00H, 't', 00H, 'r', 00H, 'i', 00H, 'n', 00H, 'g', 00H
	DB	'_', 00H, 'v', 00H, 'a', 00H, 'l', 00H, '<', 00H, 's', 00H, 't'
	DB	00H, 'r', 00H, 'u', 00H, 'c', 00H, 't', 00H, ' ', 00H, 's', 00H
	DB	't', 00H, 'd', 00H, ':', 00H, ':', 00H, '_', 00H, 'S', 00H, 'i'
	DB	00H, 'm', 00H, 'p', 00H, 'l', 00H, 'e', 00H, '_', 00H, 't', 00H
	DB	'y', 00H, 'p', 00H, 'e', 00H, 's', 00H, '<', 00H, 'c', 00H, 'h'
	DB	00H, 'a', 00H, 'r', 00H, '>', 00H, ' ', 00H, '>', 00H, ' ', 00H
	DB	'>', 00H, ':', 00H, ':', 00H, 'o', 00H, 'p', 00H, 'e', 00H, 'r'
	DB	00H, 'a', 00H, 't', 00H, 'o', 00H, 'r', 00H, ' ', 00H, '+', 00H
	DB	'+', 00H, 00H, 00H				; `string'
CONST	ENDS
;	COMDAT ??_C@_1NA@CLPMMMDB@?$AAc?$AA?3?$AA?2?$AAp?$AAr?$AAo?$AAg?$AAr?$AAa?$AAm?$AA?5?$AAf?$AAi?$AAl?$AAe@
CONST	SEGMENT
??_C@_1NA@CLPMMMDB@?$AAc?$AA?3?$AA?2?$AAp?$AAr?$AAo?$AAg?$AAr?$AAa?$AAm?$AA?5?$AAf?$AAi?$AAl?$AAe@ DB 'c'
	DB	00H, ':', 00H, '\', 00H, 'p', 00H, 'r', 00H, 'o', 00H, 'g', 00H
	DB	'r', 00H, 'a', 00H, 'm', 00H, ' ', 00H, 'f', 00H, 'i', 00H, 'l'
	DB	00H, 'e', 00H, 's', 00H, ' ', 00H, '(', 00H, 'x', 00H, '8', 00H
	DB	'6', 00H, ')', 00H, '\', 00H, 'm', 00H, 'i', 00H, 'c', 00H, 'r'
	DB	00H, 'o', 00H, 's', 00H, 'o', 00H, 'f', 00H, 't', 00H, ' ', 00H
	DB	'v', 00H, 'i', 00H, 's', 00H, 'u', 00H, 'a', 00H, 'l', 00H, ' '
	DB	00H, 's', 00H, 't', 00H, 'u', 00H, 'd', 00H, 'i', 00H, 'o', 00H
	DB	'\', 00H, '2', 00H, '0', 00H, '1', 00H, '7', 00H, '\', 00H, 'c'
	DB	00H, 'o', 00H, 'm', 00H, 'm', 00H, 'u', 00H, 'n', 00H, 'i', 00H
	DB	't', 00H, 'y', 00H, '\', 00H, 'v', 00H, 'c', 00H, '\', 00H, 't'
	DB	00H, 'o', 00H, 'o', 00H, 'l', 00H, 's', 00H, '\', 00H, 'm', 00H
	DB	's', 00H, 'v', 00H, 'c', 00H, '\', 00H, '1', 00H, '4', 00H, '.'
	DB	00H, '1', 00H, '6', 00H, '.', 00H, '2', 00H, '7', 00H, '0', 00H
	DB	'2', 00H, '3', 00H, '\', 00H, 'i', 00H, 'n', 00H, 'c', 00H, 'l'
	DB	00H, 'u', 00H, 'd', 00H, 'e', 00H, '\', 00H, 'x', 00H, 's', 00H
	DB	't', 00H, 'r', 00H, 'i', 00H, 'n', 00H, 'g', 00H, 00H, 00H ; `string'
CONST	ENDS
;	COMDAT ??_C@_0GI@OLBHAGPC@c?3?2program?5files?5?$CIx86?$CJ?2microsof@
CONST	SEGMENT
??_C@_0GI@OLBHAGPC@c?3?2program?5files?5?$CIx86?$CJ?2microsof@ DB 'c:\pro'
	DB	'gram files (x86)\microsoft visual studio\2017\community\vc\to'
	DB	'ols\msvc\14.16.27023\include\xstring', 00H	; `string'
CONST	ENDS
;	COMDAT ??_C@_0DD@LAECODHC@cannot?5increment?5value?9initiali@
CONST	SEGMENT
??_C@_0DD@LAECODHC@cannot?5increment?5value?9initiali@ DB 'cannot increme'
	DB	'nt value-initialized string iterator', 00H	; `string'
CONST	ENDS
;	COMDAT ??_C@_0N@LPFKKEBD@?3AM?3am?3PM?3pm@
CONST	SEGMENT
??_C@_0N@LPFKKEBD@?3AM?3am?3PM?3pm@ DB ':AM:am:PM:pm', 00H ; `string'
CONST	ENDS
;	COMDAT ??_C@_1GC@JDCKOLAC@?$AA?$CC?$AAc?$AAa?$AAn?$AA?8?$AAt?$AA?5?$AAd?$AAe?$AAr?$AAe?$AAf?$AAe?$AAr?$AAe@
CONST	SEGMENT
??_C@_1GC@JDCKOLAC@?$AA?$CC?$AAc?$AAa?$AAn?$AA?8?$AAt?$AA?5?$AAd?$AAe?$AAr?$AAe?$AAf?$AAe?$AAr?$AAe@ DB '"'
	DB	00H, 'c', 00H, 'a', 00H, 'n', 00H, '''', 00H, 't', 00H, ' ', 00H
	DB	'd', 00H, 'e', 00H, 'r', 00H, 'e', 00H, 'f', 00H, 'e', 00H, 'r'
	DB	00H, 'e', 00H, 'n', 00H, 'c', 00H, 'e', 00H, ' ', 00H, 'o', 00H
	DB	'u', 00H, 't', 00H, ' ', 00H, 'o', 00H, 'f', 00H, ' ', 00H, 'r'
	DB	00H, 'a', 00H, 'n', 00H, 'g', 00H, 'e', 00H, ' ', 00H, 'v', 00H
	DB	'e', 00H, 'c', 00H, 't', 00H, 'o', 00H, 'r', 00H, ' ', 00H, 'i'
	DB	00H, 't', 00H, 'e', 00H, 'r', 00H, 'a', 00H, 't', 00H, 'o', 00H
	DB	'r', 00H, '"', 00H, 00H, 00H			; `string'
CONST	ENDS
;	COMDAT ??_C@_0CP@MDHADBHN@can?8t?5dereference?5out?5of?5range?5@
CONST	SEGMENT
??_C@_0CP@MDHADBHN@can?8t?5dereference?5out?5of?5range?5@ DB 'can''t dere'
	DB	'ference out of range vector iterator', 00H	; `string'
CONST	ENDS
;	COMDAT ??_C@_1GM@FNBFNBEL@?$AA?$CC?$AAc?$AAa?$AAn?$AA?8?$AAt?$AA?5?$AAd?$AAe?$AAr?$AAe?$AAf?$AAe?$AAr?$AAe@
CONST	SEGMENT
??_C@_1GM@FNBFNBEL@?$AA?$CC?$AAc?$AAa?$AAn?$AA?8?$AAt?$AA?5?$AAd?$AAe?$AAr?$AAe?$AAf?$AAe?$AAr?$AAe@ DB '"'
	DB	00H, 'c', 00H, 'a', 00H, 'n', 00H, '''', 00H, 't', 00H, ' ', 00H
	DB	'd', 00H, 'e', 00H, 'r', 00H, 'e', 00H, 'f', 00H, 'e', 00H, 'r'
	DB	00H, 'e', 00H, 'n', 00H, 'c', 00H, 'e', 00H, ' ', 00H, 'v', 00H
	DB	'a', 00H, 'l', 00H, 'u', 00H, 'e', 00H, '-', 00H, 'i', 00H, 'n'
	DB	00H, 'i', 00H, 't', 00H, 'i', 00H, 'a', 00H, 'l', 00H, 'i', 00H
	DB	'z', 00H, 'e', 00H, 'd', 00H, ' ', 00H, 'v', 00H, 'e', 00H, 'c'
	DB	00H, 't', 00H, 'o', 00H, 'r', 00H, ' ', 00H, 'i', 00H, 't', 00H
	DB	'e', 00H, 'r', 00H, 'a', 00H, 't', 00H, 'o', 00H, 'r', 00H, '"'
	DB	00H, 00H, 00H				; `string'
CONST	ENDS
;	COMDAT ??_C@_1MG@DDPKBOFO@?$AAs?$AAt?$AAd?$AA?3?$AA?3?$AA_?$AAV?$AAe?$AAc?$AAt?$AAo?$AAr?$AA_?$AAc?$AAo@
CONST	SEGMENT
??_C@_1MG@DDPKBOFO@?$AAs?$AAt?$AAd?$AA?3?$AA?3?$AA_?$AAV?$AAe?$AAc?$AAt?$AAo?$AAr?$AA_?$AAc?$AAo@ DB 's'
	DB	00H, 't', 00H, 'd', 00H, ':', 00H, ':', 00H, '_', 00H, 'V', 00H
	DB	'e', 00H, 'c', 00H, 't', 00H, 'o', 00H, 'r', 00H, '_', 00H, 'c'
	DB	00H, 'o', 00H, 'n', 00H, 's', 00H, 't', 00H, '_', 00H, 'i', 00H
	DB	't', 00H, 'e', 00H, 'r', 00H, 'a', 00H, 't', 00H, 'o', 00H, 'r'
	DB	00H, '<', 00H, 'c', 00H, 'l', 00H, 'a', 00H, 's', 00H, 's', 00H
	DB	' ', 00H, 's', 00H, 't', 00H, 'd', 00H, ':', 00H, ':', 00H, '_'
	DB	00H, 'V', 00H, 'e', 00H, 'c', 00H, 't', 00H, 'o', 00H, 'r', 00H
	DB	'_', 00H, 'v', 00H, 'a', 00H, 'l', 00H, '<', 00H, 's', 00H, 't'
	DB	00H, 'r', 00H, 'u', 00H, 'c', 00H, 't', 00H, ' ', 00H, 's', 00H
	DB	't', 00H, 'd', 00H, ':', 00H, ':', 00H, '_', 00H, 'S', 00H, 'i'
	DB	00H, 'm', 00H, 'p', 00H, 'l', 00H, 'e', 00H, '_', 00H, 't', 00H
	DB	'y', 00H, 'p', 00H, 'e', 00H, 's', 00H, '<', 00H, 'c', 00H, 'h'
	DB	00H, 'a', 00H, 'r', 00H, '>', 00H, ' ', 00H, '>', 00H, ' ', 00H
	DB	'>', 00H, ':', 00H, ':', 00H, 'o', 00H, 'p', 00H, 'e', 00H, 'r'
	DB	00H, 'a', 00H, 't', 00H, 'o', 00H, 'r', 00H, ' ', 00H, '*', 00H
	DB	00H, 00H					; `string'
CONST	ENDS
;	COMDAT ??_C@_0DE@CHADHGFF@can?8t?5dereference?5value?9initial@
CONST	SEGMENT
??_C@_0DE@CHADHGFF@can?8t?5dereference?5value?9initial@ DB 'can''t derefe'
	DB	'rence value-initialized vector iterator', 00H ; `string'
CONST	ENDS
;	COMDAT ??_C@_1FA@KLFCDGNE@?$AA?$CC?$AAc?$AAa?$AAn?$AAn?$AAo?$AAt?$AA?5?$AAi?$AAn?$AAc?$AAr?$AAe?$AAm?$AAe@
CONST	SEGMENT
??_C@_1FA@KLFCDGNE@?$AA?$CC?$AAc?$AAa?$AAn?$AAn?$AAo?$AAt?$AA?5?$AAi?$AAn?$AAc?$AAr?$AAe?$AAm?$AAe@ DB '"'
	DB	00H, 'c', 00H, 'a', 00H, 'n', 00H, 'n', 00H, 'o', 00H, 't', 00H
	DB	' ', 00H, 'i', 00H, 'n', 00H, 'c', 00H, 'r', 00H, 'e', 00H, 'm'
	DB	00H, 'e', 00H, 'n', 00H, 't', 00H, ' ', 00H, 'e', 00H, 'n', 00H
	DB	'd', 00H, ' ', 00H, 'm', 00H, 'a', 00H, 'p', 00H, '/', 00H, 's'
	DB	00H, 'e', 00H, 't', 00H, ' ', 00H, 'i', 00H, 't', 00H, 'e', 00H
	DB	'r', 00H, 'a', 00H, 't', 00H, 'o', 00H, 'r', 00H, '"', 00H, 00H
	DB	00H						; `string'
CONST	ENDS
;	COMDAT ??_C@_0CG@NLEHEOHN@cannot?5increment?5end?5map?1set?5it@
CONST	SEGMENT
??_C@_0CG@NLEHEOHN@cannot?5increment?5end?5map?1set?5it@ DB 'cannot incre'
	DB	'ment end map/set iterator', 00H		; `string'
CONST	ENDS
;	COMDAT ??_C@_1GM@BJMCGEGI@?$AA?$CC?$AAc?$AAa?$AAn?$AAn?$AAo?$AAt?$AA?5?$AAi?$AAn?$AAc?$AAr?$AAe?$AAm?$AAe@
CONST	SEGMENT
??_C@_1GM@BJMCGEGI@?$AA?$CC?$AAc?$AAa?$AAn?$AAn?$AAo?$AAt?$AA?5?$AAi?$AAn?$AAc?$AAr?$AAe?$AAm?$AAe@ DB '"'
	DB	00H, 'c', 00H, 'a', 00H, 'n', 00H, 'n', 00H, 'o', 00H, 't', 00H
	DB	' ', 00H, 'i', 00H, 'n', 00H, 'c', 00H, 'r', 00H, 'e', 00H, 'm'
	DB	00H, 'e', 00H, 'n', 00H, 't', 00H, ' ', 00H, 'v', 00H, 'a', 00H
	DB	'l', 00H, 'u', 00H, 'e', 00H, '-', 00H, 'i', 00H, 'n', 00H, 'i'
	DB	00H, 't', 00H, 'i', 00H, 'a', 00H, 'l', 00H, 'i', 00H, 'z', 00H
	DB	'e', 00H, 'd', 00H, ' ', 00H, 'm', 00H, 'a', 00H, 'p', 00H, '/'
	DB	00H, 's', 00H, 'e', 00H, 't', 00H, ' ', 00H, 'i', 00H, 't', 00H
	DB	'e', 00H, 'r', 00H, 'a', 00H, 't', 00H, 'o', 00H, 'r', 00H, '"'
	DB	00H, 00H, 00H				; `string'
CONST	ENDS
;	COMDAT ??_C@_1CFG@PGGKMBNC@?$AAs?$AAt?$AAd?$AA?3?$AA?3?$AA_?$AAT?$AAr?$AAe?$AAe?$AA_?$AAc?$AAo?$AAn?$AAs@
CONST	SEGMENT
??_C@_1CFG@PGGKMBNC@?$AAs?$AAt?$AAd?$AA?3?$AA?3?$AA_?$AAT?$AAr?$AAe?$AAe?$AA_?$AAc?$AAo?$AAn?$AAs@ DB 's'
	DB	00H, 't', 00H, 'd', 00H, ':', 00H, ':', 00H, '_', 00H, 'T', 00H
	DB	'r', 00H, 'e', 00H, 'e', 00H, '_', 00H, 'c', 00H, 'o', 00H, 'n'
	DB	00H, 's', 00H, 't', 00H, '_', 00H, 'i', 00H, 't', 00H, 'e', 00H
	DB	'r', 00H, 'a', 00H, 't', 00H, 'o', 00H, 'r', 00H, '<', 00H, 'c'
	DB	00H, 'l', 00H, 'a', 00H, 's', 00H, 's', 00H, ' ', 00H, 's', 00H
	DB	't', 00H, 'd', 00H, ':', 00H, ':', 00H, '_', 00H, 'T', 00H, 'r'
	DB	00H, 'e', 00H, 'e', 00H, '_', 00H, 'v', 00H, 'a', 00H, 'l', 00H
	DB	'<', 00H, 's', 00H, 't', 00H, 'r', 00H, 'u', 00H, 'c', 00H, 't'
	DB	00H, ' ', 00H, 's', 00H, 't', 00H, 'd', 00H, ':', 00H, ':', 00H
	DB	'_', 00H, 'T', 00H, 'r', 00H, 'e', 00H, 'e', 00H, '_', 00H, 's'
	DB	00H, 'i', 00H, 'm', 00H, 'p', 00H, 'l', 00H, 'e', 00H, '_', 00H
	DB	't', 00H, 'y', 00H, 'p', 00H, 'e', 00H, 's', 00H, '<', 00H, 's'
	DB	00H, 't', 00H, 'r', 00H, 'u', 00H, 'c', 00H, 't', 00H, ' ', 00H
	DB	's', 00H, 't', 00H, 'd', 00H, ':', 00H, ':', 00H, 'p', 00H, 'a'
	DB	00H, 'i', 00H, 'r', 00H, '<', 00H, 'c', 00H, 'l', 00H, 'a', 00H
	DB	's', 00H, 's', 00H, ' ', 00H, 's', 00H, 't', 00H, 'd', 00H, ':'
	DB	00H, ':', 00H, 'b', 00H, 'a', 00H, 's', 00H, 'i', 00H, 'c', 00H
	DB	'_', 00H, 's', 00H, 't', 00H, 'r', 00H, 'i', 00H, 'n', 00H, 'g'
	DB	00H, '<', 00H, 'c', 00H, 'h', 00H, 'a', 00H, 'r', 00H, ',', 00H
	DB	's', 00H, 't', 00H, 'r', 00H, 'u', 00H, 'c', 00H, 't', 00H, ' '
	DB	00H, 's', 00H, 't', 00H, 'd', 00H, ':', 00H, ':', 00H, 'c', 00H
	DB	'h', 00H, 'a', 00H, 'r', 00H, '_', 00H, 't', 00H, 'r', 00H, 'a'
	DB	00H, 'i', 00H, 't', 00H, 's', 00H, '<', 00H, 'c', 00H, 'h', 00H
	DB	'a', 00H, 'r', 00H, '>', 00H, ',', 00H, 'c', 00H, 'l', 00H, 'a'
	DB	00H, 's', 00H, 's', 00H, ' ', 00H, 's', 00H, 't', 00H, 'd', 00H
	DB	':', 00H, ':', 00H, 'a', 00H, 'l', 00H, 'l', 00H, 'o', 00H, 'c'
	DB	00H, 'a', 00H, 't', 00H, 'o', 00H, 'r', 00H, '<', 00H, 'c', 00H
	DB	'h', 00H, 'a', 00H, 'r', 00H, '>', 00H, ' ', 00H, '>', 00H, ' '
	DB	00H, 'c', 00H, 'o', 00H, 'n', 00H, 's', 00H, 't', 00H, ' ', 00H
	DB	',', 00H, 'c', 00H, 'l', 00H, 'a', 00H, 's', 00H, 's', 00H, ' '
	DB	00H, 's', 00H, 't', 00H, 'd', 00H, ':', 00H, ':', 00H, 'b', 00H
	DB	'a', 00H, 's', 00H, 'i', 00H, 'c', 00H, '_', 00H, 's', 00H, 't'
	DB	00H, 'r', 00H, 'i', 00H, 'n', 00H, 'g', 00H, '<', 00H, 'c', 00H
	DB	'h', 00H, 'a', 00H, 'r', 00H, ',', 00H, 's', 00H, 't', 00H, 'r'
	DB	00H, 'u', 00H, 'c', 00H, 't', 00H, ' ', 00H, 's', 00H, 't', 00H
	DB	'd', 00H, ':', 00H, ':', 00H, 'c', 00H, 'h', 00H, 'a', 00H, 'r'
	DB	00H, '_', 00H, 't', 00H, 'r', 00H, 'a', 00H, 'i', 00H, 't', 00H
	DB	's', 00H, '<', 00H, 'c', 00H, 'h', 00H, 'a', 00H, 'r', 00H, '>'
	DB	00H, ',', 00H, 'c', 00H, 'l', 00H, 'a', 00H, 's', 00H, 's', 00H
	DB	' ', 00H, 's', 00H, 't', 00H, 'd', 00H, ':', 00H, ':', 00H, 'a'
	DB	00H, 'l', 00H, 'l', 00H, 'o', 00H, 'c', 00H, 'a', 00H, 't', 00H
	DB	'o', 00H, 'r', 00H, '<', 00H, 'c', 00H, 'h', 00H, 'a', 00H, 'r'
	DB	00H, '>', 00H, ' ', 00H, '>', 00H, ' ', 00H, '>', 00H, ' ', 00H
	DB	'>', 00H, ' ', 00H, '>', 00H, ' ', 00H, '>', 00H, ':', 00H, ':'
	DB	00H, 'o', 00H, 'p', 00H, 'e', 00H, 'r', 00H, 'a', 00H, 't', 00H
	DB	'o', 00H, 'r', 00H, ' ', 00H, '+', 00H, '+', 00H, 00H, 00H ; `string'
CONST	ENDS
;	COMDAT ??_C@_1MM@GNDNJPBP@?$AAc?$AA?3?$AA?2?$AAp?$AAr?$AAo?$AAg?$AAr?$AAa?$AAm?$AA?5?$AAf?$AAi?$AAl?$AAe@
CONST	SEGMENT
??_C@_1MM@GNDNJPBP@?$AAc?$AA?3?$AA?2?$AAp?$AAr?$AAo?$AAg?$AAr?$AAa?$AAm?$AA?5?$AAf?$AAi?$AAl?$AAe@ DB 'c'
	DB	00H, ':', 00H, '\', 00H, 'p', 00H, 'r', 00H, 'o', 00H, 'g', 00H
	DB	'r', 00H, 'a', 00H, 'm', 00H, ' ', 00H, 'f', 00H, 'i', 00H, 'l'
	DB	00H, 'e', 00H, 's', 00H, ' ', 00H, '(', 00H, 'x', 00H, '8', 00H
	DB	'6', 00H, ')', 00H, '\', 00H, 'm', 00H, 'i', 00H, 'c', 00H, 'r'
	DB	00H, 'o', 00H, 's', 00H, 'o', 00H, 'f', 00H, 't', 00H, ' ', 00H
	DB	'v', 00H, 'i', 00H, 's', 00H, 'u', 00H, 'a', 00H, 'l', 00H, ' '
	DB	00H, 's', 00H, 't', 00H, 'u', 00H, 'd', 00H, 'i', 00H, 'o', 00H
	DB	'\', 00H, '2', 00H, '0', 00H, '1', 00H, '7', 00H, '\', 00H, 'c'
	DB	00H, 'o', 00H, 'm', 00H, 'm', 00H, 'u', 00H, 'n', 00H, 'i', 00H
	DB	't', 00H, 'y', 00H, '\', 00H, 'v', 00H, 'c', 00H, '\', 00H, 't'
	DB	00H, 'o', 00H, 'o', 00H, 'l', 00H, 's', 00H, '\', 00H, 'm', 00H
	DB	's', 00H, 'v', 00H, 'c', 00H, '\', 00H, '1', 00H, '4', 00H, '.'
	DB	00H, '1', 00H, '6', 00H, '.', 00H, '2', 00H, '7', 00H, '0', 00H
	DB	'2', 00H, '3', 00H, '\', 00H, 'i', 00H, 'n', 00H, 'c', 00H, 'l'
	DB	00H, 'u', 00H, 'd', 00H, 'e', 00H, '\', 00H, 'x', 00H, 't', 00H
	DB	'r', 00H, 'e', 00H, 'e', 00H, 00H, 00H	; `string'
CONST	ENDS
;	COMDAT ??_C@_0GG@NEGGIBJL@c?3?2program?5files?5?$CIx86?$CJ?2microsof@
CONST	SEGMENT
??_C@_0GG@NEGGIBJL@c?3?2program?5files?5?$CIx86?$CJ?2microsof@ DB 'c:\pro'
	DB	'gram files (x86)\microsoft visual studio\2017\community\vc\to'
	DB	'ols\msvc\14.16.27023\include\xtree', 00H	; `string'
CONST	ENDS
;	COMDAT ??_C@_0DE@DMNPKCGM@cannot?5increment?5value?9initiali@
CONST	SEGMENT
??_C@_0DE@DMNPKCGM@cannot?5increment?5value?9initiali@ DB 'cannot increme'
	DB	'nt value-initialized map/set iterator', 00H	; `string'
CONST	ENDS
;	COMDAT ??_C@_1MO@OJBMIJHH@?$AAc?$AA?3?$AA?2?$AAp?$AAr?$AAo?$AAg?$AAr?$AAa?$AAm?$AA?5?$AAf?$AAi?$AAl?$AAe@
CONST	SEGMENT
??_C@_1MO@OJBMIJHH@?$AAc?$AA?3?$AA?2?$AAp?$AAr?$AAo?$AAg?$AAr?$AAa?$AAm?$AA?5?$AAf?$AAi?$AAl?$AAe@ DB 'c'
	DB	00H, ':', 00H, '\', 00H, 'p', 00H, 'r', 00H, 'o', 00H, 'g', 00H
	DB	'r', 00H, 'a', 00H, 'm', 00H, ' ', 00H, 'f', 00H, 'i', 00H, 'l'
	DB	00H, 'e', 00H, 's', 00H, ' ', 00H, '(', 00H, 'x', 00H, '8', 00H
	DB	'6', 00H, ')', 00H, '\', 00H, 'm', 00H, 'i', 00H, 'c', 00H, 'r'
	DB	00H, 'o', 00H, 's', 00H, 'o', 00H, 'f', 00H, 't', 00H, ' ', 00H
	DB	'v', 00H, 'i', 00H, 's', 00H, 'u', 00H, 'a', 00H, 'l', 00H, ' '
	DB	00H, 's', 00H, 't', 00H, 'u', 00H, 'd', 00H, 'i', 00H, 'o', 00H
	DB	'\', 00H, '2', 00H, '0', 00H, '1', 00H, '7', 00H, '\', 00H, 'c'
	DB	00H, 'o', 00H, 'm', 00H, 'm', 00H, 'u', 00H, 'n', 00H, 'i', 00H
	DB	't', 00H, 'y', 00H, '\', 00H, 'v', 00H, 'c', 00H, '\', 00H, 't'
	DB	00H, 'o', 00H, 'o', 00H, 'l', 00H, 's', 00H, '\', 00H, 'm', 00H
	DB	's', 00H, 'v', 00H, 'c', 00H, '\', 00H, '1', 00H, '4', 00H, '.'
	DB	00H, '1', 00H, '6', 00H, '.', 00H, '2', 00H, '7', 00H, '0', 00H
	DB	'2', 00H, '3', 00H, '\', 00H, 'i', 00H, 'n', 00H, 'c', 00H, 'l'
	DB	00H, 'u', 00H, 'd', 00H, 'e', 00H, '\', 00H, 'v', 00H, 'e', 00H
	DB	'c', 00H, 't', 00H, 'o', 00H, 'r', 00H, 00H, 00H ; `string'
CONST	ENDS
;	COMDAT ??_C@_0GH@FKAHJGEE@c?3?2program?5files?5?$CIx86?$CJ?2microsof@
CONST	SEGMENT
??_C@_0GH@FKAHJGEE@c?3?2program?5files?5?$CIx86?$CJ?2microsof@ DB 'c:\pro'
	DB	'gram files (x86)\microsoft visual studio\2017\community\vc\to'
	DB	'ols\msvc\14.16.27023\include\vector', 00H	; `string'
CONST	ENDS
;	COMDAT ??_C@_0N@DLOPLLLM@?$LN?S?$LP?Z?$LC?i?Q?$KP?J?$KH?$LA?$NM@
CONST	SEGMENT
??_C@_0N@DLOPLLLM@?$LN?S?$LP?Z?$LC?i?Q?$KP?J?$KH?$LA?$NM@ DB 0bdH, 0d3H, 0bfH
	DB	0daH, 0b2H, 0e9H, 0d1H, 0afH, 0caH, 0a7H, 0b0H, 0dcH, 00H ; `string'
CONST	ENDS
;	COMDAT ??_C@_08HBOFLKLL@?$LE?$LE?$LN?$KI?J?$KH?$LA?$NM@
CONST	SEGMENT
??_C@_08HBOFLKLL@?$LE?$LE?$LN?$KI?J?$KH?$LA?$NM@ DB 0b4H, 0b4H, 0bdH, 0a8H
	DB	0caH, 0a7H, 0b0H, 0dcH, 00H			; `string'
CONST	ENDS
;	COMDAT ??_C@_0CI@ELCMGMJI@?$LG?K?$LP?Z?U?$PN?$LB?$LL?F?d?K?$PL?$LH?$PO?N?q?U?$LM?S?C?$KD?$KM?$LM?$OA?L?$PN?5?$CFld?5@
CONST	SEGMENT
??_C@_0CI@ELCMGMJI@?$LG?K?$LP?Z?U?$PN?$LB?$LL?F?d?K?$PL?$LH?$PO?N?q?U?$LM?S?C?$KD?$KM?$LM?$OA?L?$PN?5?$CFld?5@ DB 0b6H
	DB	0cbH, 0bfH, 0daH, 0d5H, 0fdH, 0b1H, 0bbH, 0c6H, 0e4H, 0cbH, 0fbH
	DB	0b7H, 0feH, 0ceH, 0f1H, 0d5H, 0bcH, 0d3H, 0c3H, 0a3H, 0acH, 0bcH
	DB	0e0H, 0ccH, 0fdH, ' %ld ', 0b6H, 0cbH, 0bfH, 0daH, 0caH, 0a7H, 0b0H
	DB	0dcH, 00H					; `string'
CONST	ENDS
;	COMDAT ??_C@_0CD@FEECEEMH@?M?x?B?g?$LA?s?$LG?$KI?$LE?m?N?s?0?F?t?$LG?$KP?J?$KH?$LA?$NM?4?U?$LM?S?C?$LG?K?$LP?Z?$KD@
CONST	SEGMENT
??_C@_0CD@FEECEEMH@?M?x?B?g?$LA?s?$LG?$KI?$LE?m?N?s?0?F?t?$LG?$KP?J?$KH?$LA?$NM?4?U?$LM?S?C?$LG?K?$LP?Z?$KD@ DB 0cdH
	DB	0f8H, 0c2H, 0e7H, 0b0H, 0f3H, 0b6H, 0a8H, 0b4H, 0edH, 0ceH, 0f3H
	DB	',', 0c6H, 0f4H, 0b6H, 0afH, 0caH, 0a7H, 0b0H, 0dcH, '.', 0d5H
	DB	0bcH, 0d3H, 0c3H, 0b6H, 0cbH, 0bfH, 0daH, 0a3H, 0baH, '%d', 00H ; `string'
CONST	ENDS
;	COMDAT ??_C@_0DD@KAEGCGFA@?O?$LF?M?$LD?W?J?T?$LE?$LC?$LL?W?c?$LL?r?U?$NP?5TCP?1IP?5?P?$KN?R?i?C?$LL?S@
CONST	SEGMENT
??_C@_0DD@KAEGCGFA@?O?$LF?M?$LD?W?J?T?$LE?$LC?$LL?W?c?$LL?r?U?$NP?5TCP?1IP?5?P?$KN?R?i?C?$LL?S@ DB 0cfH
	DB	0b5H, 0cdH, 0b3H, 0d7H, 0caH, 0d4H, 0b4H, 0b2H, 0bbH, 0d7H, 0e3H
	DB	0bbH, 0f2H, 0d5H, 0dfH, ' TCP/IP ', 0d0H, 0adH, 0d2H, 0e9H, 0c3H
	DB	0bbH, 0d3H, 0d0H, 0b0H, 0b2H, 0d7H, 0b0H, 0a3H, 0acH, 0cdH, 0f8H
	DB	0c2H, 0e7H, 0c6H, 0f4H, 0b6H, 0afH, 0caH, 0a7H, 0b0H, 0dcH, 00H ; `string'
CONST	ENDS
;	COMDAT ??_C@_0CB@DMDLLPEB@?$LD?$KC?J?T?A?K?V?Z?$LG?$OA?$LF?D?$LG?K?$LP?Z?$LK?E?$KD?$KM?$LM?$OA?L?$PN?$LC?Y?W?w?J?$KH?$LA@
CONST	SEGMENT
??_C@_0CB@DMDLLPEB@?$LD?$KC?J?T?A?K?V?Z?$LG?$OA?$LF?D?$LG?K?$LP?Z?$LK?E?$KD?$KM?$LM?$OA?L?$PN?$LC?Y?W?w?J?$KH?$LA@ DB 0b3H
	DB	0a2H, 0caH, 0d4H, 0c1H, 0cbH, 0d6H, 0daH, 0b6H, 0e0H, 0b5H, 0c4H
	DB	0b6H, 0cbH, 0bfH, 0daH, 0baH, 0c5H, 0a3H, 0acH, 0bcH, 0e0H, 0ccH
	DB	0fdH, 0b2H, 0d9H, 0d7H, 0f7H, 0caH, 0a7H, 0b0H, 0dcH, 00H ; `string'
CONST	ENDS
;	COMDAT ??_C@_0BL@FJOHAJKD@?N?$LE?V?$LI?$LG?$KI?M?x?B?g?$LG?K?$LP?Z?$KD?$KM?$LN?$KL?K?f?$LL?z?$LH?V?E?d@
CONST	SEGMENT
??_C@_0BL@FJOHAJKD@?N?$LE?V?$LI?$LG?$KI?M?x?B?g?$LG?K?$LP?Z?$KD?$KM?$LN?$KL?K?f?$LL?z?$LH?V?E?d@ DB 0ceH
	DB	0b4H, 0d6H, 0b8H, 0b6H, 0a8H, 0cdH, 0f8H, 0c2H, 0e7H, 0b6H, 0cbH
	DB	0bfH, 0daH, 0a3H, 0acH, 0bdH, 0abH, 0cbH, 0e6H, 0bbH, 0faH, 0b7H
	DB	0d6H, 0c5H, 0e4H, 00H			; `string'
CONST	ENDS
;	COMDAT ??_C@_0BB@GIIMFCKJ@?I?j?G?k?A?$KM?$LN?S?$LG?T?O?s?J?$KH?$LA?$NM@
CONST	SEGMENT
??_C@_0BB@GIIMFCKJ@?I?j?G?k?A?$KM?$LN?S?$LG?T?O?s?J?$KH?$LA?$NM@ DB 0c9H, 0eaH
	DB	0c7H, 0ebH, 0c1H, 0acH, 0bdH, 0d3H, 0b6H, 0d4H, 0cfH, 0f3H, 0caH
	DB	0a7H, 0b0H, 0dcH, 00H			; `string'
CONST	ENDS
;	COMDAT ??_C@_0CN@CFILDAFG@Index?$DN?$CFld?$KD?$KMRountID?$DN?$CFld?$KD?$KMSendRaw@
CONST	SEGMENT
??_C@_0CN@CFILDAFG@Index?$DN?$CFld?$KD?$KMRountID?$DN?$CFld?$KD?$KMSendRaw@ DB 'I'
	DB	'ndex=%ld', 0a3H, 0acH, 'RountID=%ld', 0a3H, 0acH, 'SendRawDat'
	DB	'a ', 0b7H, 0a2H, 0c9H, 0faH, 0d2H, 0ecH, 0b3H, 0a3H, 00H ; `string'
CONST	ENDS
;	COMDAT ??_C@_0BA@HEMDDLEL@X?9Forwarded?9For@
CONST	SEGMENT
??_C@_0BA@HEMDDLEL@X?9Forwarded?9For@ DB 'X-Forwarded-For', 00H ; `string'
CONST	ENDS
;	COMDAT ??_C@_1CC@MAPHGENJ@?$AAc?$AAo?$AAn?$AAt?$AAe?$AAx?$AAt?$AA?4?$AAg?$AAo?$AAt?$AAA?$AAl?$AAl?$AA?$CI@
CONST	SEGMENT
??_C@_1CC@MAPHGENJ@?$AAc?$AAo?$AAn?$AAt?$AAe?$AAx?$AAt?$AA?4?$AAg?$AAo?$AAt?$AAA?$AAl?$AAl?$AA?$CI@ DB 'c'
	DB	00H, 'o', 00H, 'n', 00H, 't', 00H, 'e', 00H, 'x', 00H, 't', 00H
	DB	'.', 00H, 'g', 00H, 'o', 00H, 't', 00H, 'A', 00H, 'l', 00H, 'l'
	DB	00H, '(', 00H, ')', 00H, 00H, 00H		; `string'
CONST	ENDS
;	COMDAT ??_C@_1HG@EFDLDILG@?$AAg?$AA?3?$AA?2?$AAQ?$PP?P?$AA?2?$AAh?$AAa?$AAp?$AAp?$AAy?$AAg?$AAa?$AAm?$AAe@
CONST	SEGMENT
??_C@_1HG@EFDLDILG@?$AAg?$AA?3?$AA?2?$AAQ?$PP?P?$AA?2?$AAh?$AAa?$AAp?$AAp?$AAy?$AAg?$AAa?$AAm?$AAe@ DB 'g'
	DB	00H, ':', 00H, '\', 00H, 'Q', 07fH, 0d0H, 'r\', 00H, 'h', 00H, 'a'
	DB	00H, 'p', 00H, 'p', 00H, 'y', 00H, 'g', 00H, 'a', 00H, 'm', 00H
	DB	'e', 00H, 'w', 00H, 'h', 00H, '\', 00H, 0dH, 'g', 0a1H, 'R', 0efH
	DB	'z\', 00H, 0fbH, '|', 0dfH, '~!jWW\', 00H, 0dH, 'g', 0a1H, 'Rh'
	DB	'V', 0c4H, '~', 0f6H, 'N\', 00H, 085H, 'Q8h', 015H, '_', 0ceH, 'd'
	DB	'\', 00H, 't', 00H, 'c', 00H, 'p', 00H, 'n', 00H, 'e', 00H, 't'
	DB	00H, 'w', 00H, 'o', 00H, 'r', 00H, 'k', 00H, 'e', 00H, 'n', 00H
	DB	'g', 00H, 'i', 00H, 'n', 00H, 'e', 00H, '.', 00H, 'c', 00H, 'p'
	DB	00H, 'p', 00H, 00H, 00H			; `string'
CONST	ENDS
;	COMDAT ??_C@_0BN@PJMBPKGC@HTTP?11?41?5400?5Bad?5Request?$AN?6?$AN?6@
CONST	SEGMENT
??_C@_0BN@PJMBPKGC@HTTP?11?41?5400?5Bad?5Request?$AN?6?$AN?6@ DB 'HTTP/1.'
	DB	'1 400 Bad Request', 0dH, 0aH, 0dH, 0aH, 00H	; `string'
CONST	ENDS
;	COMDAT ??_C@_0CI@GGFIIOME@parse?5handshake?5error?0send?5clos@
CONST	SEGMENT
??_C@_0CI@GGFIIOME@parse?5handshake?5error?0send?5clos@ DB 'parse handsha'
	DB	'ke error,send close header', 00H		; `string'
CONST	ENDS
;	COMDAT ??_C@_0DC@OCAKDNJE@Index?$DN?$CFld?$KD?$KMRountID?$DN?$CFld?$KD?$KMCheckIs@
CONST	SEGMENT
??_C@_0DC@OCAKDNJE@Index?$DN?$CFld?$KD?$KMRountID?$DN?$CFld?$KD?$KMCheckIs@ DB 'I'
	DB	'ndex=%ld', 0a3H, 0acH, 'RountID=%ld', 0a3H, 0acH, 'CheckIsWin'
	DB	'Socket ', 0b7H, 0a2H, 0c9H, 0faH, 0d2H, 0ecH, 0b3H, 0a3H, 00H ; `string'
CONST	ENDS
;	COMDAT ??_C@_0CB@BHAJGHNJ@CheckIsWinSocket?5?$LH?Gweebsocket?3?$CF@
CONST	SEGMENT
??_C@_0CB@BHAJGHNJ@CheckIsWinSocket?5?$LH?Gweebsocket?3?$CF@ DB 'CheckIsW'
	DB	'inSocket ', 0b7H, 0c7H, 'weebsocket:%s', 00H ; `string'
CONST	ENDS
;	COMDAT ??_C@_0P@BBEPCAEF@?J?$PN?$LO?$NN?$LA?$PM?$LA?f?$LB?$LO?$LE?m?N?s@
CONST	SEGMENT
??_C@_0P@BBEPCAEF@?J?$PN?$LO?$NN?$LA?$PM?$LA?f?$LB?$LO?$LE?m?N?s@ DB 0caH
	DB	0fdH, 0beH, 0ddH, 0b0H, 0fcH, 0b0H, 0e6H, 0b1H, 0beH, 0b4H, 0edH
	DB	0ceH, 0f3H, 00H				; `string'
CONST	ENDS
;	COMDAT ??_C@_0L@ICOFAPAB@?J?$PN?$LO?$NN?$LA?$PM?$LH?G?$LH?$KI@
CONST	SEGMENT
??_C@_0L@ICOFAPAB@?J?$PN?$LO?$NN?$LA?$PM?$LH?G?$LH?$KI@ DB 0caH, 0fdH, 0beH
	DB	0ddH, 0b0H, 0fcH, 0b7H, 0c7H, 0b7H, 0a8H, 00H ; `string'
CONST	ENDS
;	COMDAT ??_C@_0L@DAPODOBD@?J?$PN?$LO?$NN?$LA?$PM?$LD?$KM?$LD?$KE@
CONST	SEGMENT
??_C@_0L@DAPODOBD@?J?$PN?$LO?$NN?$LA?$PM?$LD?$KM?$LD?$KE@ DB 0caH, 0fdH, 0beH
	DB	0ddH, 0b0H, 0fcH, 0b3H, 0acH, 0b3H, 0a4H, 00H ; `string'
CONST	ENDS
;	COMDAT ??_C@_0DF@DAAPGLPI@Index?$DN?$CFld?$KD?$KMRountID?$DN?$CFld?$KD?$KMHandleW@
CONST	SEGMENT
??_C@_0DF@DAAPGLPI@Index?$DN?$CFld?$KD?$KMRountID?$DN?$CFld?$KD?$KMHandleW@ DB 'I'
	DB	'ndex=%ld', 0a3H, 0acH, 'RountID=%ld', 0a3H, 0acH, 'HandleWebs'
	DB	'ocketRecv ', 0b7H, 0a2H, 0c9H, 0faH, 0d2H, 0ecH, 0b3H, 0a3H, 00H ; `string'
CONST	ENDS
;	COMDAT ??_C@_0BM@KAJJAILJ@HandleWebsocketRecv?5?R?l?$LD?$KD?3?$CFs@
CONST	SEGMENT
??_C@_0BM@KAJJAILJ@HandleWebsocketRecv?5?R?l?$LD?$KD?3?$CFs@ DB 'HandleWe'
	DB	'bsocketRecv ', 0d2H, 0ecH, 0b3H, 0a3H, ':%s', 00H ; `string'
CONST	ENDS
;	COMDAT ??_C@_0BA@LDBHEJCC@?J?U?$LF?$LNdefault?O?$PL?O?$KC@
CONST	SEGMENT
??_C@_0BA@LDBHEJCC@?J?U?$LF?$LNdefault?O?$PL?O?$KC@ DB 0caH, 0d5H, 0b5H, 0bdH
	DB	'default', 0cfH, 0fbH, 0cfH, 0a2H, 00H	; `string'
CONST	ENDS
;	COMDAT ??_C@_0BH@KPFBJOAM@?J?U?$LF?$LNWS_CLOSE_FRAME?O?$PL?O?$KC@
CONST	SEGMENT
??_C@_0BH@KPFBJOAM@?J?U?$LF?$LNWS_CLOSE_FRAME?O?$PL?O?$KC@ DB 0caH, 0d5H, 0b5H
	DB	0bdH, 'WS_CLOSE_FRAME', 0cfH, 0fbH, 0cfH, 0a2H, 00H ; `string'
CONST	ENDS
;	COMDAT ??_C@_0BG@KIEOHCJC@?J?U?$LF?$LNWS_PING_FRAME?O?$PL?O?$KC@
CONST	SEGMENT
??_C@_0BG@KIEOHCJC@?J?U?$LF?$LNWS_PING_FRAME?O?$PL?O?$KC@ DB 0caH, 0d5H, 0b5H
	DB	0bdH, 'WS_PING_FRAME', 0cfH, 0fbH, 0cfH, 0a2H, 00H ; `string'
CONST	ENDS
;	COMDAT ??_C@_0BM@EEHLBJJE@?J?U?$LF?$LN?O?$PL?O?$KC?3mainid?3?$CFd?0subid?3?$CFd@
CONST	SEGMENT
??_C@_0BM@EEHLBJJE@?J?U?$LF?$LN?O?$PL?O?$KC?3mainid?3?$CFd?0subid?3?$CFd@ DB 0caH
	DB	0d5H, 0b5H, 0bdH, 0cfH, 0fbH, 0cfH, 0a2H, ':mainid:%d,subid:%d'
	DB	00H						; `string'
CONST	ENDS
;	COMDAT ??_C@_0L@HPNHKCLL@?$LH?G?$LH?$KI?C?$PM?A?n?B?k@
CONST	SEGMENT
??_C@_0L@HPNHKCLL@?$LH?G?$LH?$KI?C?$PM?A?n?B?k@ DB 0b7H, 0c7H, 0b7H, 0a8H
	DB	0c3H, 0fcH, 0c1H, 0eeH, 0c2H, 0ebH, 00H	; `string'
CONST	ENDS
;	COMDAT ??_C@_0M@BJIBBOFC@parse?5error@
CONST	SEGMENT
??_C@_0M@BJIBBOFC@parse?5error@ DB 'parse error', 00H	; `string'
CONST	ENDS
;	COMDAT ??_C@_0DE@HPGDGIOK@error?0receive?5data?5len?5?$DO?5SOCKET@
CONST	SEGMENT
??_C@_0DE@HPGDGIOK@error?0receive?5data?5len?5?$DO?5SOCKET@ DB 'error,rec'
	DB	'eive data len > SOCKET_TCP_BUFFER,%d>32768', 00H ; `string'
CONST	ENDS
;	COMDAT ??_C@_0BB@GKKJNMOA@?J?$PN?$LO?$NN?$LA?$PM?P?$KH?Q?i?B?k?$LE?m?N?s@
CONST	SEGMENT
??_C@_0BB@GKKJNMOA@?J?$PN?$LO?$NN?$LA?$PM?P?$KH?Q?i?B?k?$LE?m?N?s@ DB 0caH
	DB	0fdH, 0beH, 0ddH, 0b0H, 0fcH, 0d0H, 0a7H, 0d1H, 0e9H, 0c2H, 0ebH
	DB	0b4H, 0edH, 0ceH, 0f3H, 00H			; `string'
CONST	ENDS
;	COMDAT ??_C@_0BD@DINLBKIB@?J?$PN?$LO?$NN?$LA?$PM?$LN?b?C?$NM?$LD?$KE?$LG?H?$LE?m?N?s@
CONST	SEGMENT
??_C@_0BD@DINLBKIB@?J?$PN?$LO?$NN?$LA?$PM?$LN?b?C?$NM?$LD?$KE?$LG?H?$LE?m?N?s@ DB 0caH
	DB	0fdH, 0beH, 0ddH, 0b0H, 0fcH, 0bdH, 0e2H, 0c3H, 0dcH, 0b3H, 0a4H
	DB	0b6H, 0c8H, 0b4H, 0edH, 0ceH, 0f3H, 00H	; `string'
CONST	ENDS
;	COMDAT ??_C@_0EG@EEAELNCF@SocketEngine?5Index?$DN?$CFld?$KD?$KMRountID@
CONST	SEGMENT
??_C@_0EG@EEAELNCF@SocketEngine?5Index?$DN?$CFld?$KD?$KMRountID@ DB 'Sock'
	DB	'etEngine Index=%ld', 0a3H, 0acH, 'RountID=%ld', 0a3H, 0acH, 'O'
	DB	'nRecvCompleted ', 0b7H, 0a2H, 0c9H, 0faH, 0a1H, 0b0H, 0b7H, 0c7H
	DB	0b7H, 0a8H, 0a1H, 0b1H, 0d2H, 0ecH, 0b3H, 0a3H, 00H ; `string'
CONST	ENDS
;	COMDAT ??_C@_0EE@ONNHHJGK@SocketEngine?5Index?$DN?$CFld?$KD?$KMRountID@
CONST	SEGMENT
??_C@_0EE@ONNHHJGK@SocketEngine?5Index?$DN?$CFld?$KD?$KMRountID@ DB 'Sock'
	DB	'etEngine Index=%ld', 0a3H, 0acH, 'RountID=%ld', 0a3H, 0acH, 'O'
	DB	'nRecvCompleted ', 0b7H, 0a2H, 0c9H, 0faH, 0a1H, 0b0H, '%s', 0a1H
	DB	0b1H, 0d2H, 0ecH, 0b3H, 0a3H, 00H		; `string'
CONST	ENDS
;	COMDAT ??_C@_0BB@HMAHCNOL@?J?$PN?$LO?$NN?$LA?$PM?$LA?f?$LB?$LO?$LC?$LL?F?$KF?E?d@
CONST	SEGMENT
??_C@_0BB@HMAHCNOL@?J?$PN?$LO?$NN?$LA?$PM?$LA?f?$LB?$LO?$LC?$LL?F?$KF?E?d@ DB 0caH
	DB	0fdH, 0beH, 0ddH, 0b0H, 0fcH, 0b0H, 0e6H, 0b1H, 0beH, 0b2H, 0bbH
	DB	0c6H, 0a5H, 0c5H, 0e4H, 00H			; `string'
CONST	ENDS
;	COMDAT ??_C@_04OPBHEPOC@0x?$CFx@
CONST	SEGMENT
??_C@_04OPBHEPOC@0x?$CFx@ DB '0x%x', 00H		; `string'
CONST	ENDS
;	COMDAT ??_C@_0P@COEHLGHJ@?J?$PN?$LO?$NN?$LA?$PM?$LD?$KE?$LG?H?L?$KL?$LG?L@
CONST	SEGMENT
??_C@_0P@COEHLGHJ@?J?$PN?$LO?$NN?$LA?$PM?$LD?$KE?$LG?H?L?$KL?$LG?L@ DB 0caH
	DB	0fdH, 0beH, 0ddH, 0b0H, 0fcH, 0b3H, 0a4H, 0b6H, 0c8H, 0ccH, 0abH
	DB	0b6H, 0ccH, 00H				; `string'
CONST	ENDS
;	COMDAT ??_C@_0BM@LPKEJNLP@?$LA?$PM?$LD?$KE?5?$CFd?0?5?$LA?f?$LB?$LO?5?$CFd?0?5?P?$KH?Q?i?B?k?5?$CFd@
CONST	SEGMENT
??_C@_0BM@LPKEJNLP@?$LA?$PM?$LD?$KE?5?$CFd?0?5?$LA?f?$LB?$LO?5?$CFd?0?5?P?$KH?Q?i?B?k?5?$CFd@ DB 0b0H
	DB	0fcH, 0b3H, 0a4H, ' %d, ', 0b0H, 0e6H, 0b1H, 0beH, ' %d, ', 0d0H
	DB	0a7H, 0d1H, 0e9H, 0c2H, 0ebH, ' %d', 00H	; `string'
CONST	ENDS
;	COMDAT ??_C@_0CH@MKDFEHED@?J?$PN?$LO?$NN?$LA?$PM?$LD?$KE?$LG?H?L?$KL?$LG?L?5?$CFd?0?$CFd?0?$CFd?0?$CFd?0?$CFd?0?$CF@
CONST	SEGMENT
??_C@_0CH@MKDFEHED@?J?$PN?$LO?$NN?$LA?$PM?$LD?$KE?$LG?H?L?$KL?$LG?L?5?$CFd?0?$CFd?0?$CFd?0?$CFd?0?$CFd?0?$CF@ DB 0caH
	DB	0fdH, 0beH, 0ddH, 0b0H, 0fcH, 0b3H, 0a4H, 0b6H, 0c8H, 0ccH, 0abH
	DB	0b6H, 0ccH, ' %d,%d,%d,%d,%d,%d,%d,%d', 00H	; `string'
CONST	ENDS
;	COMDAT ??_C@_0P@IFKIJFDN@?J?$PN?$LO?$NN?$LA?$PM?$LD?$KE?$LG?H?L?$KL?$LD?$KE@
CONST	SEGMENT
??_C@_0P@IFKIJFDN@?J?$PN?$LO?$NN?$LA?$PM?$LD?$KE?$LG?H?L?$KL?$LD?$KE@ DB 0caH
	DB	0fdH, 0beH, 0ddH, 0b0H, 0fcH, 0b3H, 0a4H, 0b6H, 0c8H, 0ccH, 0abH
	DB	0b3H, 0a4H, 00H				; `string'
CONST	ENDS
;	COMDAT ??_C@_04FMMHFHOO@?$AN?6?$AN?6@
CONST	SEGMENT
??_C@_04FMMHFHOO@?$AN?6?$AN?6@ DB 0dH, 0aH, 0dH, 0aH, 00H ; `string'
CONST	ENDS
;	COMDAT ??_C@_0BE@BFBPJPAH@SendData?5pData?5?R?l?$LD?$KD@
CONST	SEGMENT
??_C@_0BE@BFBPJPAH@SendData?5pData?5?R?l?$LD?$KD@ DB 'SendData pData ', 0d2H
	DB	0ecH, 0b3H, 0a3H, 00H			; `string'
CONST	ENDS
;	COMDAT ??_C@_0BH@NLJMDLEL@SendData?5pData?5?R?l?$LD?$KD?3?$CFs@
CONST	SEGMENT
??_C@_0BH@NLJMDLEL@SendData?5pData?5?R?l?$LD?$KD?3?$CFs@ DB 'SendData pDa'
	DB	'ta ', 0d2H, 0ecH, 0b3H, 0a3H, ':%s', 00H	; `string'
CONST	ENDS
;	COMDAT ??_C@_0CJ@PPIPIEAL@?$LH?$KC?K?M?O?$PL?O?$KCpData?3wMainCmdID?3?$CFd?0wSu@
CONST	SEGMENT
??_C@_0CJ@PPIPIEAL@?$LH?$KC?K?M?O?$PL?O?$KCpData?3wMainCmdID?3?$CFd?0wSu@ DB 0b7H
	DB	0a2H, 0cbH, 0cdH, 0cfH, 0fbH, 0cfH, 0a2H, 'pData:wMainCmdID:%d'
	DB	',wSubCmdID:%d', 00H				; `string'
CONST	ENDS
;	COMDAT ??_C@_0CE@NEGGEINK@?J?$PN?$LO?$NN?N?$KK?$LP?U?3wMainCmdID?3?$CFd?0wSubCmdI@
CONST	SEGMENT
??_C@_0CE@NEGGEINK@?J?$PN?$LO?$NN?N?$KK?$LP?U?3wMainCmdID?3?$CFd?0wSubCmdI@ DB 0caH
	DB	0fdH, 0beH, 0ddH, 0ceH, 0aaH, 0bfH, 0d5H, ':wMainCmdID:%d,wSub'
	DB	'CmdID:%d', 00H				; `string'
CONST	ENDS
;	COMDAT ??_C@_0O@LEAMMJHF@SendData?5?R?l?$LD?$KD@
CONST	SEGMENT
??_C@_0O@LEAMMJHF@SendData?5?R?l?$LD?$KD@ DB 'SendData ', 0d2H, 0ecH, 0b3H
	DB	0a3H, 00H					; `string'
CONST	ENDS
;	COMDAT ??_C@_0BB@OELGDMNI@SendData?5?R?l?$LD?$KD?3?$CFs@
CONST	SEGMENT
??_C@_0BB@OELGDMNI@SendData?5?R?l?$LD?$KD?3?$CFs@ DB 'SendData ', 0d2H, 0ecH
	DB	0b3H, 0a3H, ':%s', 00H			; `string'
CONST	ENDS
;	COMDAT ??_C@_0BA@LDGEJDBI@Serialize?5error@
CONST	SEGMENT
??_C@_0BA@LDGEJDBI@Serialize?5error@ DB 'Serialize error', 00H ; `string'
CONST	ENDS
;	COMDAT ??_C@_0L@JNDINJCC@?$LH?$KC?K?M?$LA?$PM?L?$KL?$LE?s@
CONST	SEGMENT
??_C@_0L@JNDINJCC@?$LH?$KC?K?M?$LA?$PM?L?$KL?$LE?s@ DB 0b7H, 0a2H, 0cbH, 0cdH
	DB	0b0H, 0fcH, 0ccH, 0abH, 0b4H, 0f3H, 00H	; `string'
CONST	ENDS
;	COMDAT __CT??_R0PAX@84
xdata$x	SEGMENT
__CT??_R0PAX@84 DD 01H
	DD	FLAT:??_R0PAX@8
	DD	00H
	DD	0ffffffffH
	ORG $+4
	DD	04H
	DD	00H
xdata$x	ENDS
;	COMDAT ??_R0PAX@8
data$r	SEGMENT
??_R0PAX@8 DD	FLAT:??_7type_info@@6B@			; void * `RTTI Type Descriptor'
	DD	00H
	DB	'.PAX', 00H
data$r	ENDS
;	COMDAT __CT??_R0PAD@84
xdata$x	SEGMENT
__CT??_R0PAD@84 DD 01H
	DD	FLAT:??_R0PAD@8
	DD	00H
	DD	0ffffffffH
	ORG $+4
	DD	04H
	DD	00H
xdata$x	ENDS
;	COMDAT ??_R0PAD@8
data$r	SEGMENT
??_R0PAD@8 DD	FLAT:??_7type_info@@6B@			; char * `RTTI Type Descriptor'
	DD	00H
	DB	'.PAD', 00H
data$r	ENDS
;	COMDAT __CTA2PAD
xdata$x	SEGMENT
__CTA2PAD DD	02H
	DD	FLAT:__CT??_R0PAD@84
	DD	FLAT:__CT??_R0PAX@84
xdata$x	ENDS
;	COMDAT __TI2PAD
xdata$x	SEGMENT
__TI2PAD DD	00H
	DD	00H
	DD	00H
	DD	FLAT:__CTA2PAD
xdata$x	ENDS
;	COMDAT ??_C@_0EN@GEJOJCBK@g?3?2?M?x?$LK?$PM?2happygamewh?2?$LH?$PO?N?q?$LG?K?2?O?$LF?M?$LD@
CONST	SEGMENT
??_C@_0EN@GEJOJCBK@g?3?2?M?x?$LK?$PM?2happygamewh?2?$LH?$PO?N?q?$LG?K?2?O?$LF?M?$LD@ DB 'g'
	DB	':\', 0cdH, 0f8H, 0baH, 0fcH, '\happygamewh\', 0b7H, 0feH, 0ceH
	DB	0f1H, 0b6H, 0cbH, '\', 0cfH, 0b5H, 0cdH, 0b3H, 0c4H, 0a3H, 0bfH
	DB	0e9H, '\', 0b7H, 0feH, 0ceH, 0f1H, 0c6H, 0f7H, 0d7H, 0e9H, 0bcH
	DB	0feH, '\', 0c4H, 0daH, 0baH, 0cbH, 0d2H, 0fdH, 0c7H, 0e6H, '\t'
	DB	'cpnetworkengine.cpp', 00H			; `string'
CONST	ENDS
;	COMDAT ??_C@_0CC@NINJIOJL@NullPmd?4response?4errordescripti@
CONST	SEGMENT
??_C@_0CC@NINJIOJL@NullPmd?4response?4errordescripti@ DB 'NullPmd.respons'
	DB	'e.errordescription', 00H			; `string'
CONST	ENDS
;	COMDAT ??_C@_0CC@HENEHLPK@CHECK?5failed?3?5?$CI?$CGfrom?$CJ?5?$CB?$DN?5?$CIthis?$CJ@
CONST	SEGMENT
??_C@_0CC@HENEHLPK@CHECK?5failed?3?5?$CI?$CGfrom?$CJ?5?$CB?$DN?5?$CIthis?$CJ@ DB 'C'
	DB	'HECK failed: (&from) != (this): ', 00H	; `string'
CONST	ENDS
;	COMDAT ?descriptor@?1??AddDescriptorsImpl@protobuf_NullPmd_2eproto@NullPmd@@YAXXZ@4QBDB
CONST	SEGMENT
?descriptor@?1??AddDescriptorsImpl@protobuf_NullPmd_2eproto@NullPmd@@YAXXZ@4QBDB DB 0aH
	DB	0dH, 'NullPmd.proto', 012H, 07H, 'NullPmd"', 09H, 0aH, 07H, 'r'
	DB	'equest"4', 0aH, 08H, 'response', 012H, 0eH, 0aH, 06H, 'result'
	DB	018H, 01H, ' ', 01H, '(', 05H, 012H, 018H, 0aH, 010H, 'errorde'
	DB	'scription', 018H, 02H, ' ', 01H, '(', 09H, '"', 0cH, 0aH, 0aH
	DB	'indication"(', 0aH, 07H, 'command', 012H, 0eH, 0aH, 06H, 'mai'
	DB	'nid', 018H, 01H, ' ', 01H, '(', 04H, 012H, 0dH, 0aH, 05H, 'su'
	DB	'bid', 018H, 02H, ' ', 01H, '(', 04H, '"D', 0aH, 04H, 'info', 012H
	DB	012H, 0aH, 0aH, 'cbdatakind', 018H, 01H, ' ', 01H, '(', 04H, 012H
	DB	013H, 0aH, 0bH, 'cbcheckcode', 018H, 02H, ' ', 01H, '(', 04H, 012H
	DB	013H, 0aH, 0bH, 'wpacketsize', 018H, 03H, ' ', 01H, '(', 04H, '"'
	DB	'F', 0aH, 04H, 'head', 012H, '!', 0aH, 07H, 'command', 018H, 01H
	DB	' ', 01H, '(', 0bH, '2', 010H, '.NullPmd.command', 012H, 01bH, 0aH
	DB	04H, 'info', 018H, 02H, ' ', 01H, '(', 0bH, '2', 0dH, '.NullPm'
	DB	'd.info"4', 0aH, 07H, 'message', 012H, 01bH, 0aH, 04H, 'head', 018H
	DB	01H, ' ', 01H, '(', 0bH, '2', 0dH, '.NullPmd.head', 012H, 0cH, 0aH
	DB	04H, 'data', 018H, 02H, ' ', 01H, '(', 0cH, 'b', 06H, 'proto3', 00H ; `NullPmd::protobuf_NullPmd_2eproto::AddDescriptorsImpl'::`2'::descriptor
CONST	ENDS
;	COMDAT ??_C@_0DO@IALFNHEB@g?3?2?M?x?$LK?$PM?2happygamewh?2?$LH?$PO?N?q?$LG?K?2?O?$LF?M?$LD@
CONST	SEGMENT
??_C@_0DO@IALFNHEB@g?3?2?M?x?$LK?$PM?2happygamewh?2?$LH?$PO?N?q?$LG?K?2?O?$LF?M?$LD@ DB 'g'
	DB	':\', 0cdH, 0f8H, 0baH, 0fcH, '\happygamewh\', 0b7H, 0feH, 0ceH
	DB	0f1H, 0b6H, 0cbH, '\', 0cfH, 0b5H, 0cdH, 0b3H, 0c4H, 0a3H, 0bfH
	DB	0e9H, '\', 0cfH, 0fbH, 0cfH, 0a2H, 0b6H, 0a8H, 0d2H, 0e5H, '\p'
	DB	'b\nullpmd.pb.cc', 00H			; `string'
CONST	ENDS
;	COMDAT ??_C@_0O@PBNICMEM@NullPmd?4proto@
CONST	SEGMENT
??_C@_0O@PBNICMEM@NullPmd?4proto@ DB 'NullPmd.proto', 00H ; `string'
CONST	ENDS
;	COMDAT ??_7message@NullPmd@@6B@
CONST	SEGMENT
??_7message@NullPmd@@6B@ DD FLAT:??_R4message@NullPmd@@6B@ ; NullPmd::message::`vftable'
	DD	FLAT:??_Emessage@NullPmd@@UAEPAXI@Z
	DD	FLAT:?GetTypeName@Message@protobuf@google@@UBE?AV?$basic_string@DU?$char_traits@D@std@@V?$allocator@D@2@@std@@XZ
	DD	FLAT:?New@message@NullPmd@@UBEPAV12@PAVArena@protobuf@google@@@Z
	DD	FLAT:?New@message@NullPmd@@UBEPAV12@XZ
	DD	FLAT:?GetArena@MessageLite@protobuf@google@@UBEPAVArena@23@XZ
	DD	FLAT:?GetMaybeArenaPointer@MessageLite@protobuf@google@@UBEPAXXZ
	DD	FLAT:?Clear@message@NullPmd@@UAEXXZ
	DD	FLAT:?IsInitialized@message@NullPmd@@UBE_NXZ
	DD	FLAT:?InitializationErrorString@Message@protobuf@google@@UBE?AV?$basic_string@DU?$char_traits@D@std@@V?$allocator@D@2@@std@@XZ
	DD	FLAT:?CheckTypeAndMergeFrom@Message@protobuf@google@@UAEXABVMessageLite@23@@Z
	DD	FLAT:?MergePartialFromCodedStream@message@NullPmd@@UAE_NPAVCodedInputStream@io@protobuf@google@@@Z
	DD	FLAT:?ByteSizeLong@message@NullPmd@@UBEIXZ
	DD	FLAT:?SerializeWithCachedSizes@message@NullPmd@@UBEXPAVCodedOutputStream@io@protobuf@google@@@Z
	DD	FLAT:?SerializeWithCachedSizesToArray@message@NullPmd@@UBEPAEPAE@Z
	DD	FLAT:?GetCachedSize@message@NullPmd@@UBEHXZ
	DD	FLAT:?InternalSerializeWithCachedSizesToArray@message@NullPmd@@UBEPAE_NPAE@Z
	DD	FLAT:?CopyFrom@message@NullPmd@@UAEXABVMessage@protobuf@google@@@Z
	DD	FLAT:?MergeFrom@message@NullPmd@@UAEXABVMessage@protobuf@google@@@Z
	DD	FLAT:?DiscardUnknownFields@Message@protobuf@google@@UAEXXZ
	DD	FLAT:?SpaceUsed@Message@protobuf@google@@UBEHXZ
	DD	FLAT:?SetCachedSize@message@NullPmd@@EBEXH@Z
	DD	FLAT:?GetReflection@Message@protobuf@google@@UBEPBVReflection@23@XZ
	DD	FLAT:?GetMetadata@message@NullPmd@@UBE?AUMetadata@protobuf@google@@XZ
CONST	ENDS
;	COMDAT ??_7head@NullPmd@@6B@
CONST	SEGMENT
??_7head@NullPmd@@6B@ DD FLAT:??_R4head@NullPmd@@6B@	; NullPmd::head::`vftable'
	DD	FLAT:??_Ehead@NullPmd@@UAEPAXI@Z
	DD	FLAT:?GetTypeName@Message@protobuf@google@@UBE?AV?$basic_string@DU?$char_traits@D@std@@V?$allocator@D@2@@std@@XZ
	DD	FLAT:?New@head@NullPmd@@UBEPAV12@PAVArena@protobuf@google@@@Z
	DD	FLAT:?New@head@NullPmd@@UBEPAV12@XZ
	DD	FLAT:?GetArena@MessageLite@protobuf@google@@UBEPAVArena@23@XZ
	DD	FLAT:?GetMaybeArenaPointer@MessageLite@protobuf@google@@UBEPAXXZ
	DD	FLAT:?Clear@head@NullPmd@@UAEXXZ
	DD	FLAT:?IsInitialized@head@NullPmd@@UBE_NXZ
	DD	FLAT:?InitializationErrorString@Message@protobuf@google@@UBE?AV?$basic_string@DU?$char_traits@D@std@@V?$allocator@D@2@@std@@XZ
	DD	FLAT:?CheckTypeAndMergeFrom@Message@protobuf@google@@UAEXABVMessageLite@23@@Z
	DD	FLAT:?MergePartialFromCodedStream@head@NullPmd@@UAE_NPAVCodedInputStream@io@protobuf@google@@@Z
	DD	FLAT:?ByteSizeLong@head@NullPmd@@UBEIXZ
	DD	FLAT:?SerializeWithCachedSizes@head@NullPmd@@UBEXPAVCodedOutputStream@io@protobuf@google@@@Z
	DD	FLAT:?SerializeWithCachedSizesToArray@head@NullPmd@@UBEPAEPAE@Z
	DD	FLAT:?GetCachedSize@head@NullPmd@@UBEHXZ
	DD	FLAT:?InternalSerializeWithCachedSizesToArray@head@NullPmd@@UBEPAE_NPAE@Z
	DD	FLAT:?CopyFrom@head@NullPmd@@UAEXABVMessage@protobuf@google@@@Z
	DD	FLAT:?MergeFrom@head@NullPmd@@UAEXABVMessage@protobuf@google@@@Z
	DD	FLAT:?DiscardUnknownFields@Message@protobuf@google@@UAEXXZ
	DD	FLAT:?SpaceUsed@Message@protobuf@google@@UBEHXZ
	DD	FLAT:?SetCachedSize@head@NullPmd@@EBEXH@Z
	DD	FLAT:?GetReflection@Message@protobuf@google@@UBEPBVReflection@23@XZ
	DD	FLAT:?GetMetadata@head@NullPmd@@UBE?AUMetadata@protobuf@google@@XZ
CONST	ENDS
;	COMDAT ??_7info@NullPmd@@6B@
CONST	SEGMENT
??_7info@NullPmd@@6B@ DD FLAT:??_R4info@NullPmd@@6B@	; NullPmd::info::`vftable'
	DD	FLAT:??_Einfo@NullPmd@@UAEPAXI@Z
	DD	FLAT:?GetTypeName@Message@protobuf@google@@UBE?AV?$basic_string@DU?$char_traits@D@std@@V?$allocator@D@2@@std@@XZ
	DD	FLAT:?New@info@NullPmd@@UBEPAV12@PAVArena@protobuf@google@@@Z
	DD	FLAT:?New@info@NullPmd@@UBEPAV12@XZ
	DD	FLAT:?GetArena@MessageLite@protobuf@google@@UBEPAVArena@23@XZ
	DD	FLAT:?GetMaybeArenaPointer@MessageLite@protobuf@google@@UBEPAXXZ
	DD	FLAT:?Clear@info@NullPmd@@UAEXXZ
	DD	FLAT:?IsInitialized@info@NullPmd@@UBE_NXZ
	DD	FLAT:?InitializationErrorString@Message@protobuf@google@@UBE?AV?$basic_string@DU?$char_traits@D@std@@V?$allocator@D@2@@std@@XZ
	DD	FLAT:?CheckTypeAndMergeFrom@Message@protobuf@google@@UAEXABVMessageLite@23@@Z
	DD	FLAT:?MergePartialFromCodedStream@info@NullPmd@@UAE_NPAVCodedInputStream@io@protobuf@google@@@Z
	DD	FLAT:?ByteSizeLong@info@NullPmd@@UBEIXZ
	DD	FLAT:?SerializeWithCachedSizes@info@NullPmd@@UBEXPAVCodedOutputStream@io@protobuf@google@@@Z
	DD	FLAT:?SerializeWithCachedSizesToArray@info@NullPmd@@UBEPAEPAE@Z
	DD	FLAT:?GetCachedSize@info@NullPmd@@UBEHXZ
	DD	FLAT:?InternalSerializeWithCachedSizesToArray@info@NullPmd@@UBEPAE_NPAE@Z
	DD	FLAT:?CopyFrom@info@NullPmd@@UAEXABVMessage@protobuf@google@@@Z
	DD	FLAT:?MergeFrom@info@NullPmd@@UAEXABVMessage@protobuf@google@@@Z
	DD	FLAT:?DiscardUnknownFields@Message@protobuf@google@@UAEXXZ
	DD	FLAT:?SpaceUsed@Message@protobuf@google@@UBEHXZ
	DD	FLAT:?SetCachedSize@info@NullPmd@@EBEXH@Z
	DD	FLAT:?GetReflection@Message@protobuf@google@@UBEPBVReflection@23@XZ
	DD	FLAT:?GetMetadata@info@NullPmd@@UBE?AUMetadata@protobuf@google@@XZ
CONST	ENDS
;	COMDAT ??_7command@NullPmd@@6B@
CONST	SEGMENT
