; Listing generated by Microsoft (R) Optimizing Compiler Version 19.16.27032.1 

	TITLE	G:\网狐\HappyGameWH\服务端\系统模块\服务器组件\模块管理\DlgServerItem.cpp
	.686P
	.XMM
	include listing.inc
	.model	flat

INCLUDELIB MSVCRTD
INCLUDELIB OLDNAMES

PUBLIC	?OnBnClickedLoadServer@CDlgServerItem@@IAEXXZ	; CDlgServerItem::OnBnClickedLoadServer
PUBLIC	?OnBnClickedReLoadList@CDlgServerItem@@IAEXXZ	; CDlgServerItem::OnBnClickedReLoadList
PUBLIC	?OnBnClickedDeleteServer@CDlgServerItem@@IAEXXZ	; CDlgServerItem::OnBnClickedDeleteServer
PUBLIC	?OnBnClickedServiceAttrib@CDlgServerItem@@IAEXXZ ; CDlgServerItem::OnBnClickedServiceAttrib
PUBLIC	?OnNMDblclkServerList@CDlgServerItem@@IAEXPAUtagNMHDR@@PAJ@Z ; CDlgServerItem::OnNMDblclkServerList
PUBLIC	?OnLvnItemChangedServerList@CDlgServerItem@@IAEXPAUtagNMHDR@@PAJ@Z ; CDlgServerItem::OnLvnItemChangedServerList
EXTRN	?GetThisMessageMap@CDialog@@KGPBUAFX_MSGMAP@@XZ:PROC ; CDialog::GetThisMessageMap
CONST	SEGMENT
?IID_ITraceServiceManager@@3U_GUID@@B DD 08bfc36dbH	; IID_ITraceServiceManager
	DW	05ba2H
	DW	042baH
	DB	081H
	DB	0b0H
	DB	087H
	DB	0b0H
	DB	01cH
	DB	09eH
	DB	0afH
	DB	0feH
?IID_IAsynchronismEngine@@3U_GUID@@B DD 0c7a13074H	; IID_IAsynchronismEngine
	DW	075c5H
	DW	04b8eH
	DB	0b5H
	DB	04bH
	DB	0eeH
	DB	0eH
	DB	0ecH
	DB	0feH
	DB	0b9H
	DB	0ebH
?IID_IDataBase@@3U_GUID@@B DD 0a2e38a78H		; IID_IDataBase
	DW	01e4fH
	DW	04de4H
	DB	0a5H
	DB	0d1H
	DB	0b9H
	DB	019H
	DB	09bH
	DB	0ceH
	DB	041H
	DB	0aeH
?IID_IDataBaseEngine@@3U_GUID@@B DD 047b5a119H		; IID_IDataBaseEngine
	DW	01676H
	DW	049a3H
	DB	0beH
	DB	0aeH
	DB	0caH
	DB	027H
	DB	0ebH
	DB	059H
	DB	097H
	DB	022H
?IID_IUDPNetworkEngine@@3U_GUID@@B DD 08d138a9bH	; IID_IUDPNetworkEngine
	DW	0a97dH
	DW	04d51H
	DB	09dH
	DB	06cH
	DB	0d8H
	DB	06eH
	DB	0a1H
	DB	084H
	DB	045H
	DB	02eH
?IID_ITCPNetworkEngine@@3U_GUID@@B DD 07747f683H	; IID_ITCPNetworkEngine
	DW	0c0daH
	DW	04588H
	DB	089H
	DB	0ccH
	DB	015H
	DB	093H
	DB	0acH
	DB	0c0H
	DB	044H
	DB	0c8H
?IID_ITCPSocketService@@3U_GUID@@B DD 0709a4449H	; IID_ITCPSocketService
	DW	0ad77H
	DW	04b3dH
	DB	0b4H
	DB	0d6H
	DB	08dH
	DB	0bH
	DB	028H
	DB	065H
	DB	0ecH
	DB	0aeH
?IID_IWEBSocketService@@3U_GUID@@B DD 091052ff2H	; IID_IWEBSocketService
	DW	0eb29H
	DW	040b9H
	DB	0b2H
	DB	0a2H
	DB	08aH
	DB	0a2H
	DB	098H
	DB	036H
	DB	02cH
	DB	084H
?IID_ITimerEngine@@3U_GUID@@B DD 0496401aeH		; IID_ITimerEngine
	DW	06fb0H
	DW	04e9fH
	DB	090H
	DB	098H
	DB	044H
	DB	09dH
	DB	09cH
	DB	0b2H
	DB	0bdH
	DB	097H
?IID_IAttemperEngine@@3U_GUID@@B DD 0b070b2cH		; IID_IAttemperEngine
	DW	09d72H
	DW	042d2H
	DB	0a5H
	DB	070H
	DB	0baH
	DB	02cH
	DB	0bfH
	DB	06fH
	DB	0bbH
	DB	01cH
?IID_IGameServiceManager@@3U_GUID@@B DD 04b2b9d8fH	; IID_IGameServiceManager
	DW	0ce1bH
	DW	044f3H
	DB	0a5H
	DB	022H
	DB	065H
	DB	01aH
	DB	065H
	DB	0c9H
	DB	0aH
	DB	025H
?IID_IAndroidUserItemSink@@3U_GUID@@B DD 01e8a1918H	; IID_IAndroidUserItemSink
	DW	0572bH
	DW	0453bH
	DB	0bcH
	DB	0bH
	DB	06bH
	DB	061H
	DB	070H
	DB	0a3H
	DB	03cH
	DB	0caH
?_messageEntries@?1??GetThisMessageMap@CDlgServerItem@@KGPBUAFX_MSGMAP@@XZ@4QBUAFX_MSGMAP_ENTRY@@B DD 0111H ; `CDlgServerItem::GetThisMessageMap'::`2'::_messageEntries
	DD	00H
	DD	03e8H
	DD	03e8H
	DD	03aH
	DD	FLAT:?OnBnClickedLoadServer@CDlgServerItem@@IAEXXZ
	DD	0111H
	DD	00H
	DD	03f6H
	DD	03f6H
	DD	03aH
	DD	FLAT:?OnBnClickedReLoadList@CDlgServerItem@@IAEXXZ
	DD	0111H
	DD	00H
	DD	03faH
	DD	03faH
	DD	03aH
	DD	FLAT:?OnBnClickedDeleteServer@CDlgServerItem@@IAEXXZ
	DD	0111H
	DD	00H
	DD	03H
	DD	03H
	DD	03aH
	DD	FLAT:?OnBnClickedServiceAttrib@CDlgServerItem@@IAEXXZ
	DD	04eH
	DD	0fffdH
	DD	03f4H
	DD	03f4H
	DD	03eH
	DD	FLAT:?OnNMDblclkServerList@CDlgServerItem@@IAEXPAUtagNMHDR@@PAJ@Z
	DD	04eH
	DD	0ff9bH
	DD	03f4H
	DD	03f4H
	DD	03eH
	DD	FLAT:?OnLvnItemChangedServerList@CDlgServerItem@@IAEXPAUtagNMHDR@@PAJ@Z
	DD	00H
	DD	00H
	DD	00H
	DD	00H
	DD	00H
	DD	00H
?messageMap@?1??GetThisMessageMap@CDlgServerItem@@KGPBUAFX_MSGMAP@@XZ@4U3@B DD FLAT:?GetThisMessageMap@CDialog@@KGPBUAFX_MSGMAP@@XZ ; `CDlgServerItem::GetThisMessageMap'::`2'::messageMap
	DD	FLAT:?_messageEntries@?1??GetThisMessageMap@CDlgServerItem@@KGPBUAFX_MSGMAP@@XZ@4QBUAFX_MSGMAP_ENTRY@@B
CONST	ENDS
PUBLIC	??_H@YGXPAXIIP6EPAX0@Z@Z			; `vector constructor iterator'
PUBLIC	?__empty_global_delete@@YAXPAX@Z		; __empty_global_delete
PUBLIC	?__global_delete@@YAXPAX@Z			; __global_delete
PUBLIC	?__empty_global_delete@@YAXPAXI@Z		; __empty_global_delete
PUBLIC	?__global_delete@@YAXPAXI@Z			; __global_delete
PUBLIC	?__global_array_delete@@YAXPAX@Z		; __global_array_delete
PUBLIC	?__global_array_delete@@YAXPAXI@Z		; __global_array_delete
PUBLIC	___local_stdio_printf_options
PUBLIC	__vsnprintf_s_l
PUBLIC	__vsnprintf_s
PUBLIC	?AfxAssertFailedLine@@YGHPBDH@Z			; AfxAssertFailedLine
PUBLIC	_wmemcpy
PUBLIC	??$_Maklocstr@_W@std@@YAPA_WPBDPA_WABU_Cvtvec@@@Z ; std::_Maklocstr<wchar_t>
PUBLIC	?_Maklocwcs@std@@YAPA_WPB_W@Z			; std::_Maklocwcs
PUBLIC	??0CreateRoomPayFee@@QAE@XZ			; CreateRoomPayFee::CreateRoomPayFee
PUBLIC	??0tagPersonalRoomOptionRightAndFee@@QAE@XZ	; tagPersonalRoomOptionRightAndFee::tagPersonalRoomOptionRightAndFee
PUBLIC	??$_Getvals@_W@?$time_get@DV?$istreambuf_iterator@DU?$char_traits@D@std@@@std@@@std@@IAEX_WABV_Locinfo@1@@Z ; std::time_get<char,std::istreambuf_iterator<char,std::char_traits<char> > >::_Getvals<wchar_t>
PUBLIC	??$_Getvals@_W@?$time_get@_WV?$istreambuf_iterator@_WU?$char_traits@_W@std@@@std@@@std@@IAEX_WABV_Locinfo@1@@Z ; std::time_get<wchar_t,std::istreambuf_iterator<wchar_t,std::char_traits<wchar_t> > >::_Getvals<wchar_t>
PUBLIC	??0?$CTempldateHelper@UIGameServiceManager@@@@QAE@ABU_GUID@@K@Z ; CTempldateHelper<IGameServiceManager>::CTempldateHelper<IGameServiceManager>
PUBLIC	??1?$CTempldateHelper@UIGameServiceManager@@@@UAE@XZ ; CTempldateHelper<IGameServiceManager>::~CTempldateHelper<IGameServiceManager>
PUBLIC	?CloseInstance@?$CTempldateHelper@UIGameServiceManager@@@@QAE_NXZ ; CTempldateHelper<IGameServiceManager>::CloseInstance
PUBLIC	?CreateInstance@?$CTempldateHelper@UIGameServiceManager@@@@QAE_NXZ ; CTempldateHelper<IGameServiceManager>::CreateInstance
PUBLIC	?SetModuleCreateInfo@?$CTempldateHelper@UIGameServiceManager@@@@QAEXPBD0@Z ; CTempldateHelper<IGameServiceManager>::SetModuleCreateInfo
PUBLIC	??C?$CTempldateHelper@UIGameServiceManager@@@@QBEPAUIGameServiceManager@@XZ ; CTempldateHelper<IGameServiceManager>::operator->
PUBLIC	?GetInterface@?$CTempldateHelper@UIGameServiceManager@@@@QBEPAUIGameServiceManager@@XZ ; CTempldateHelper<IGameServiceManager>::GetInterface
PUBLIC	??_G?$CTempldateHelper@UIGameServiceManager@@@@UAEPAXI@Z ; CTempldateHelper<IGameServiceManager>::`scalar deleting destructor'
PUBLIC	??0CGameServiceManagerHelper@@QAE@XZ		; CGameServiceManagerHelper::CGameServiceManagerHelper
PUBLIC	??1CGameServiceManagerHelper@@UAE@XZ		; CGameServiceManagerHelper::~CGameServiceManagerHelper
PUBLIC	??_GCGameServiceManagerHelper@@UAEPAXI@Z	; CGameServiceManagerHelper::`scalar deleting destructor'
PUBLIC	??0tagModuleInitParameter@@QAE@XZ		; tagModuleInitParameter::tagModuleInitParameter
PUBLIC	?GetStartPosition@?$CMap@GGPAUtagGameServerInfo@@PAU1@@@QBEPAU__POSITION@@XZ ; CMap<unsigned short,unsigned short,tagGameServerInfo *,tagGameServerInfo *>::GetStartPosition
PUBLIC	?GetNextAssoc@?$CMap@GGPAUtagGameServerInfo@@PAU1@@@QBEXAAPAU__POSITION@@AAGAAPAUtagGameServerInfo@@@Z ; CMap<unsigned short,unsigned short,tagGameServerInfo *,tagGameServerInfo *>::GetNextAssoc
PUBLIC	??1?$CWHArray@PAUtagGameMatchOption@@ABQAU1@@@UAE@XZ ; CWHArray<tagGameMatchOption *,tagGameMatchOption * const &>::~CWHArray<tagGameMatchOption *,tagGameMatchOption * const &>
PUBLIC	??0?$CWHArray@PAUtagGameMatchOption@@ABQAU1@@@QAE@ABV0@@Z ; CWHArray<tagGameMatchOption *,tagGameMatchOption * const &>::CWHArray<tagGameMatchOption *,tagGameMatchOption * const &>
PUBLIC	??4?$CWHArray@PAUtagGameMatchOption@@ABQAU1@@@QAEAAV0@ABV0@@Z ; CWHArray<tagGameMatchOption *,tagGameMatchOption * const &>::operator=
PUBLIC	??_G?$CWHArray@PAUtagGameMatchOption@@ABQAU1@@@UAEPAXI@Z ; CWHArray<tagGameMatchOption *,tagGameMatchOption * const &>::`scalar deleting destructor'
PUBLIC	??0CMatchOptionBuffer@@QAE@ABV0@@Z		; CMatchOptionBuffer::CMatchOptionBuffer
PUBLIC	??4CMatchOptionBuffer@@QAEAAV0@ABV0@@Z		; CMatchOptionBuffer::operator=
PUBLIC	??_GCMatchOptionBuffer@@UAEPAXI@Z		; CMatchOptionBuffer::`scalar deleting destructor'
PUBLIC	??_ECMatchOptionBuffer@@UAEPAXI@Z		; CMatchOptionBuffer::`vector deleting destructor'
PUBLIC	??0CServerInfoManager@@QAE@ABV0@@Z		; CServerInfoManager::CServerInfoManager
PUBLIC	??4CServerInfoManager@@QAEAAV0@ABV0@@Z		; CServerInfoManager::operator=
PUBLIC	??_GCServerInfoManager@@UAEPAXI@Z		; CServerInfoManager::`scalar deleting destructor'
PUBLIC	??_ECServerInfoManager@@UAEPAXI@Z		; CServerInfoManager::`vector deleting destructor'
PUBLIC	??0CDlgServerItem@@QAE@XZ			; CDlgServerItem::CDlgServerItem
PUBLIC	??1CDlgServerItem@@UAE@XZ			; CDlgServerItem::~CDlgServerItem
PUBLIC	?DoDataExchange@CDlgServerItem@@MAEXPAVCDataExchange@@@Z ; CDlgServerItem::DoDataExchange
PUBLIC	?PreTranslateMessage@CDlgServerItem@@MAEHPAUtagMSG@@@Z ; CDlgServerItem::PreTranslateMessage
PUBLIC	?OnInitDialog@CDlgServerItem@@MAEHXZ		; CDlgServerItem::OnInitDialog
PUBLIC	?OnOK@CDlgServerItem@@MAEXXZ			; CDlgServerItem::OnOK
PUBLIC	?OpenGameServer@CDlgServerItem@@QAE_NXZ		; CDlgServerItem::OpenGameServer
PUBLIC	?OpenGameServer@CDlgServerItem@@QAE_NG@Z	; CDlgServerItem::OpenGameServer
PUBLIC	?LoadPersonalRoomPatameter@CDlgServerItem@@QAE_NG@Z ; CDlgServerItem::LoadPersonalRoomPatameter
PUBLIC	?LoadDBServerItem@CDlgServerItem@@IAE_NXZ	; CDlgServerItem::LoadDBServerItem
PUBLIC	?UpdateControlStatus@CDlgServerItem@@IAE_NXZ	; CDlgServerItem::UpdateControlStatus
PUBLIC	?GetModuleInitParameter@CDlgServerItem@@IAE_NPAUtagGameServerInfo@@_N@Z ; CDlgServerItem::GetModuleInitParameter
PUBLIC	?GetThisMessageMap@CDlgServerItem@@KGPBUAFX_MSGMAP@@XZ ; CDlgServerItem::GetThisMessageMap
PUBLIC	?GetMessageMap@CDlgServerItem@@MBEPBUAFX_MSGMAP@@XZ ; CDlgServerItem::GetMessageMap
PUBLIC	??_GCDlgServerItem@@UAEPAXI@Z			; CDlgServerItem::`scalar deleting destructor'
PUBLIC	??_ECDlgServerItem@@UAEPAXI@Z			; CDlgServerItem::`vector deleting destructor'
PUBLIC	??$_snprintf_s@$0IA@@@YAHAAY0IA@DIPBDZZ		; _snprintf_s<128>
PUBLIC	??$_Maklocstr@D@std@@YAPADPBDPADABU_Cvtvec@@@Z	; std::_Maklocstr<char>
PUBLIC	?_OptionsStorage@?1??__local_stdio_printf_options@@9@4_KA ; `__local_stdio_printf_options'::`2'::_OptionsStorage
PUBLIC	??_C@_00CNPNBAHC@@				; `string'
PUBLIC	??_C@_0HC@HBCNBCLF@c?3?2program?5files?5?$CIx86?$CJ?2microsof@ ; `string'
PUBLIC	??_R1A@?0A@EA@CObject@@8			; CObject::`RTTI Base Class Descriptor at (0,-1,0,64)'
PUBLIC	??_R0?AVCObject@@@8				; CObject `RTTI Type Descriptor'
PUBLIC	??_R3CObject@@8					; CObject::`RTTI Class Hierarchy Descriptor'
PUBLIC	??_R2CObject@@8					; CObject::`RTTI Base Class Array'
PUBLIC	??_R1A@?0A@EA@CDialog@@8			; CDialog::`RTTI Base Class Descriptor at (0,-1,0,64)'
PUBLIC	??_R0?AVCDialog@@@8				; CDialog `RTTI Type Descriptor'
PUBLIC	??_R3CDialog@@8					; CDialog::`RTTI Class Hierarchy Descriptor'
PUBLIC	??_R2CDialog@@8					; CDialog::`RTTI Base Class Array'
PUBLIC	??_R1A@?0A@EA@CWnd@@8				; CWnd::`RTTI Base Class Descriptor at (0,-1,0,64)'
PUBLIC	??_R0?AVCWnd@@@8				; CWnd `RTTI Type Descriptor'
PUBLIC	??_R3CWnd@@8					; CWnd::`RTTI Class Hierarchy Descriptor'
PUBLIC	??_R2CWnd@@8					; CWnd::`RTTI Base Class Array'
PUBLIC	??_R1A@?0A@EA@CCmdTarget@@8			; CCmdTarget::`RTTI Base Class Descriptor at (0,-1,0,64)'
PUBLIC	??_R0?AVCCmdTarget@@@8				; CCmdTarget `RTTI Type Descriptor'
PUBLIC	??_R3CCmdTarget@@8				; CCmdTarget::`RTTI Class Hierarchy Descriptor'
PUBLIC	??_R2CCmdTarget@@8				; CCmdTarget::`RTTI Base Class Array'
PUBLIC	??_C@_0GI@LKBGDILM@c?3?2program?5files?5?$CIx86?$CJ?2microsof@ ; `string'
PUBLIC	?__LINE__Var@?0??_Maklocwcs@std@@YAPA_WPB_W@Z@4JA ; `std::_Maklocwcs'::`1'::__LINE__Var
PUBLIC	??_C@_0GI@DJFLDKBN@c?3?2program?5files?5?$CIx86?$CJ?2microsof@ ; `string'
PUBLIC	??_7?$CTempldateHelper@UIGameServiceManager@@@@6B@ ; CTempldateHelper<IGameServiceManager>::`vftable'
PUBLIC	??_7CGameServiceManagerHelper@@6B@		; CGameServiceManagerHelper::`vftable'
PUBLIC	??_7?$CWHArray@PAUtagGameMatchOption@@ABQAU1@@@6B@ ; CWHArray<tagGameMatchOption *,tagGameMatchOption * const &>::`vftable'
PUBLIC	??_7CMatchOptionBuffer@@6B@			; CMatchOptionBuffer::`vftable'
PUBLIC	??_7CServerInfoManager@@6B@			; CServerInfoManager::`vftable'
PUBLIC	??_7CDlgServerItem@@6B@				; CDlgServerItem::`vftable'
PUBLIC	??_C@_0BC@LFCAOGLK@ModuleManager?4dll@		; `string'
PUBLIC	?__LINE__Var@?0??LoadDBServerItem@CDlgServerItem@@IAE_NXZ@4JA ; `CDlgServerItem::LoadDBServerItem'::`1'::__LINE__Var
PUBLIC	??_C@_0EK@GJNFCKFC@g?3?2?M?x?$LK?$PM?2happygamewh?2?$LH?$PO?N?q?$LG?K?2?O?$LF?M?$LD@ ; `string'
PUBLIC	?__LINE__Var@?0??GetModuleInitParameter@CDlgServerItem@@IAE_NPAUtagGameServerInfo@@_N@Z@4JA ; `CDlgServerItem::GetModuleInitParameter'::`1'::__LINE__Var
PUBLIC	??_C@_0BJ@EBOMCPGB@CreateGameServiceManager@	; `string'
PUBLIC	??_C@_0DK@CNBCCAKH@?$FL?5?$CFs?5?$FN?5?S?N?O?$LH?$LH?$PO?N?q?F?w?W?i?$LM?$PO?$LL?$LJ?C?$LL?S?P?$LA?$LC?W?$LA@ ; `string'
PUBLIC	??_C@_0DG@OJJHENMN@?$FL?5?$CFs?5?$FN?5?S?N?O?$LH?$LH?$PO?N?q?F?w?W?i?$LM?$PO?R?Q?$LO?$KN?$LI?$PM?P?B?A?K@ ; `string'
PUBLIC	??_C@_0DG@FBCPCCNK@?$FL?5?$CFs?5?$FN?5?$LH?$PO?N?q?W?i?$LM?$PO?$LC?$LL?$LE?f?T?Z?$LL?r?U?$NP?$LM?S?T?X?J?$KH@ ; `string'
PUBLIC	?__LINE__Var@?0??OnBnClickedLoadServer@CDlgServerItem@@IAEXXZ@4JA ; `CDlgServerItem::OnBnClickedLoadServer'::`1'::__LINE__Var
PUBLIC	?__LINE__Var@?0??OnBnClickedDeleteServer@CDlgServerItem@@IAEXXZ@4JA ; `CDlgServerItem::OnBnClickedDeleteServer'::`1'::__LINE__Var
PUBLIC	??_C@_0BP@LKEPHDDJ@?H?$LH?J?$LF?R?$KK?I?$LO?$LD?$PN?5?$FL?5?$CFs?5?$FN?5?S?N?O?$LH?$LH?$LP?$LM?d?B?p?$KD?$LP@ ; `string'
PUBLIC	??_C@_0N@LPFKKEBD@?3AM?3am?3PM?3pm@		; `string'
PUBLIC	??_C@_1BK@MHIKGOKE@?$AA?3?$AAA?$AAM?$AA?3?$AAa?$AAm?$AA?3?$AAP?$AAM?$AA?3?$AAp?$AAm@ ; `string'
PUBLIC	??_C@_0DG@CDIFDKED@g?3?2?M?x?$LK?$PM?2happygamewh?2?$LH?$PO?N?q?$LG?K?2?O?$LF?M?$LD@ ; `string'
PUBLIC	??_C@_0BD@LMOFNGMO@?$KB?$LA?$CFs?$KB?$LB?D?$KD?$LP?i?$LM?S?T?X?J?$KH?$LA?$NM@ ; `string'
PUBLIC	??_C@_0BM@PEGNCJOH@?U?R?$LC?$LL?$LF?$LN?W?i?$LM?$PO?$LE?$LE?$LN?$KI?$LK?$KP?J?$PN?$KB?$LA?$CFs?$KB?$LB?3?$CFd@ ; `string'
PUBLIC	??_C@_0BL@PDAODLKM@?$LF?w?S?C?$LK?$KP?J?$PN?$KB?$LA?$CFs?$KB?$LB?I?z?$LD?I?$LG?T?O?s?J?$KH?$LA?$NM@ ; `string'
PUBLIC	??_R0PAD@8					; char * `RTTI Type Descriptor'
PUBLIC	??_C@_0BJ@JGPFHIJF@?S?I?S?Z?$KB?$LA?$CFs?$KB?$LB?$KD?$KM?W?i?$LM?$PO?$LE?$LE?$LN?$KI?J?$KH?$LA?$NM@ ; `string'
PUBLIC	??_C@_0DB@JBNKENAJ@?W?i?$LM?$PO?$LE?$LE?$LN?$KI?$LK?$KP?J?$PN?$KB?$LA?$CFs?$KB?$LB?$LC?z?I?z?N?$LE?V?$KK?R?l?$LD?$KD?$LE@ ; `string'
PUBLIC	??_R4CGameServiceManagerHelper@@6B@		; CGameServiceManagerHelper::`RTTI Complete Object Locator'
PUBLIC	??_R0?AVCGameServiceManagerHelper@@@8		; CGameServiceManagerHelper `RTTI Type Descriptor'
PUBLIC	??_R3CGameServiceManagerHelper@@8		; CGameServiceManagerHelper::`RTTI Class Hierarchy Descriptor'
PUBLIC	??_R2CGameServiceManagerHelper@@8		; CGameServiceManagerHelper::`RTTI Base Class Array'
PUBLIC	??_R1A@?0A@EA@CGameServiceManagerHelper@@8	; CGameServiceManagerHelper::`RTTI Base Class Descriptor at (0,-1,0,64)'
PUBLIC	??_R1A@?0A@EA@?$CTempldateHelper@UIGameServiceManager@@@@8 ; CTempldateHelper<IGameServiceManager>::`RTTI Base Class Descriptor at (0,-1,0,64)'
PUBLIC	??_R0?AV?$CTempldateHelper@UIGameServiceManager@@@@@8 ; CTempldateHelper<IGameServiceManager> `RTTI Type Descriptor'
PUBLIC	??_R3?$CTempldateHelper@UIGameServiceManager@@@@8 ; CTempldateHelper<IGameServiceManager>::`RTTI Class Hierarchy Descriptor'
PUBLIC	??_R2?$CTempldateHelper@UIGameServiceManager@@@@8 ; CTempldateHelper<IGameServiceManager>::`RTTI Base Class Array'
PUBLIC	??_R4?$CTempldateHelper@UIGameServiceManager@@@@6B@ ; CTempldateHelper<IGameServiceManager>::`RTTI Complete Object Locator'
PUBLIC	??_R4?$CWHArray@PAUtagGameMatchOption@@ABQAU1@@@6B@ ; CWHArray<tagGameMatchOption *,tagGameMatchOption * const &>::`RTTI Complete Object Locator'
PUBLIC	??_R0?AV?$CWHArray@PAUtagGameMatchOption@@ABQAU1@@@@8 ; CWHArray<tagGameMatchOption *,tagGameMatchOption * const &> `RTTI Type Descriptor'
PUBLIC	??_R3?$CWHArray@PAUtagGameMatchOption@@ABQAU1@@@8 ; CWHArray<tagGameMatchOption *,tagGameMatchOption * const &>::`RTTI Class Hierarchy Descriptor'
PUBLIC	??_R2?$CWHArray@PAUtagGameMatchOption@@ABQAU1@@@8 ; CWHArray<tagGameMatchOption *,tagGameMatchOption * const &>::`RTTI Base Class Array'
PUBLIC	??_R1A@?0A@EA@?$CWHArray@PAUtagGameMatchOption@@ABQAU1@@@8 ; CWHArray<tagGameMatchOption *,tagGameMatchOption * const &>::`RTTI Base Class Descriptor at (0,-1,0,64)'
PUBLIC	??_R4CMatchOptionBuffer@@6B@			; CMatchOptionBuffer::`RTTI Complete Object Locator'
PUBLIC	??_R0?AVCMatchOptionBuffer@@@8			; CMatchOptionBuffer `RTTI Type Descriptor'
PUBLIC	??_R3CMatchOptionBuffer@@8			; CMatchOptionBuffer::`RTTI Class Hierarchy Descriptor'
PUBLIC	??_R2CMatchOptionBuffer@@8			; CMatchOptionBuffer::`RTTI Base Class Array'
PUBLIC	??_R1A@?0A@EA@CMatchOptionBuffer@@8		; CMatchOptionBuffer::`RTTI Base Class Descriptor at (0,-1,0,64)'
PUBLIC	??_R4CServerInfoManager@@6B@			; CServerInfoManager::`RTTI Complete Object Locator'
PUBLIC	??_R0?AVCServerInfoManager@@@8			; CServerInfoManager `RTTI Type Descriptor'
PUBLIC	??_R3CServerInfoManager@@8			; CServerInfoManager::`RTTI Class Hierarchy Descriptor'
PUBLIC	??_R2CServerInfoManager@@8			; CServerInfoManager::`RTTI Base Class Array'
PUBLIC	??_R1A@?0A@EA@CServerInfoManager@@8		; CServerInfoManager::`RTTI Base Class Descriptor at (0,-1,0,64)'
PUBLIC	??_R4CDlgServerItem@@6B@			; CDlgServerItem::`RTTI Complete Object Locator'
PUBLIC	??_R0?AVCDlgServerItem@@@8			; CDlgServerItem `RTTI Type Descriptor'
PUBLIC	??_R3CDlgServerItem@@8				; CDlgServerItem::`RTTI Class Hierarchy Descriptor'
PUBLIC	??_R2CDlgServerItem@@8				; CDlgServerItem::`RTTI Base Class Array'
PUBLIC	??_R1A@?0A@EA@CDlgServerItem@@8			; CDlgServerItem::`RTTI Base Class Descriptor at (0,-1,0,64)'
EXTRN	??_M@YGXPAXIIP6EX0@Z@Z:PROC			; `eh vector destructor iterator'
EXTRN	??3@YAXPAX@Z:PROC				; operator delete
EXTRN	??3@YAXPAXI@Z:PROC				; operator delete
EXTRN	??_V@YAXPAX@Z:PROC				; operator delete[]
EXTRN	??_V@YAXPAXI@Z:PROC				; operator delete[]
EXTRN	_memcpy:PROC
EXTRN	_memset:PROC
EXTRN	__imp__wcslen:PROC
EXTRN	_strlen:PROC
EXTRN	__imp__GetLastError@0:PROC
EXTRN	__imp__GetModuleHandleA@4:PROC
EXTRN	__imp__GetProcAddress@8:PROC
EXTRN	__imp__lstrcpynA@12:PROC
EXTRN	__imp__PeekMessageA@20:PROC
EXTRN	__imp__PostQuitMessage@4:PROC
EXTRN	__imp____stdio_common_vsnprintf_s:PROC
EXTRN	__imp___calloc_dbg:PROC
EXTRN	__imp___CrtDbgReport:PROC
EXTRN	?AfxAssertValidObject@@YGXPBVCObject@@PBDH@Z:PROC ; AfxAssertValidObject
EXTRN	?AfxThrowInvalidArgException@@YGXXZ:PROC	; AfxThrowInvalidArgException
EXTRN	??3CObject@@SGXPAX@Z:PROC			; CObject::operator delete
EXTRN	?Serialize@CObject@@UAEXAAVCArchive@@@Z:PROC	; CObject::Serialize
EXTRN	?AfxIsValidAddress@@YGHPBXIH@Z:PROC		; AfxIsValidAddress
EXTRN	?DDX_Control@@YGXPAVCDataExchange@@HAAVCWnd@@@Z:PROC ; DDX_Control
EXTRN	?IsInvokeAllowed@CCmdTarget@@UAEHJ@Z:PROC	; CCmdTarget::IsInvokeAllowed
EXTRN	?GetDispatchIID@CCmdTarget@@UAEHPAU_GUID@@@Z:PROC ; CCmdTarget::GetDispatchIID
EXTRN	?GetTypeInfoCount@CCmdTarget@@UAEIXZ:PROC	; CCmdTarget::GetTypeInfoCount
EXTRN	?GetTypeLibCache@CCmdTarget@@UAEPAVCTypeLibCache@@XZ:PROC ; CCmdTarget::GetTypeLibCache
EXTRN	?GetTypeLib@CCmdTarget@@UAEJKPAPAUITypeLib@@@Z:PROC ; CCmdTarget::GetTypeLib
EXTRN	?GetCommandMap@CCmdTarget@@MBEPBUAFX_OLECMDMAP@@XZ:PROC ; CCmdTarget::GetCommandMap
EXTRN	?GetDispatchMap@CCmdTarget@@MBEPBUAFX_DISPMAP@@XZ:PROC ; CCmdTarget::GetDispatchMap
EXTRN	?GetConnectionMap@CCmdTarget@@MBEPBUAFX_CONNECTIONMAP@@XZ:PROC ; CCmdTarget::GetConnectionMap
EXTRN	?GetEventSinkMap@CCmdTarget@@MBEPBUAFX_EVENTSINKMAP@@XZ:PROC ; CCmdTarget::GetEventSinkMap
EXTRN	?OnCreateAggregates@CCmdTarget@@UAEHXZ:PROC	; CCmdTarget::OnCreateAggregates
EXTRN	?GetInterfaceHook@CCmdTarget@@UAEPAUIUnknown@@PBX@Z:PROC ; CCmdTarget::GetInterfaceHook
EXTRN	?GetExtraConnectionPoints@CCmdTarget@@MAEHPAVCPtrArray@@@Z:PROC ; CCmdTarget::GetExtraConnectionPoints
EXTRN	?GetConnectionHook@CCmdTarget@@MAEPAUIConnectionPoint@@ABU_GUID@@@Z:PROC ; CCmdTarget::GetConnectionHook
EXTRN	?PreSubclassWindow@CWnd@@UAEXXZ:PROC		; CWnd::PreSubclassWindow
EXTRN	?Create@CWnd@@UAEHPBD0KABUtagRECT@@PAV1@IPAUCCreateContext@@@Z:PROC ; CWnd::Create
EXTRN	?CreateEx@CWnd@@UAEHKPBD0KHHHHPAUHWND__@@PAUHMENU__@@PAX@Z:PROC ; CWnd::CreateEx
EXTRN	?CreateEx@CWnd@@UAEHKPBD0KABUtagRECT@@PAV1@IPAX@Z:PROC ; CWnd::CreateEx
EXTRN	?DestroyWindow@CWnd@@UAEHXZ:PROC		; CWnd::DestroyWindow
EXTRN	?PreCreateWindow@CWnd@@UAEHAAUtagCREATESTRUCTA@@@Z:PROC ; CWnd::PreCreateWindow
EXTRN	?CalcWindowRect@CWnd@@UAEXPAUtagRECT@@I@Z:PROC	; CWnd::CalcWindowRect
EXTRN	?GetDlgItem@CWnd@@QBEPAV1@H@Z:PROC		; CWnd::GetDlgItem
EXTRN	?GetMenu@CWnd@@UBEPAVCMenu@@XZ:PROC		; CWnd::GetMenu
EXTRN	?SetMenu@CWnd@@UAEHPAVCMenu@@@Z:PROC		; CWnd::SetMenu
EXTRN	?OnToolHitTest@CWnd@@UBEHVCPoint@@PAUtagTOOLINFOA@@@Z:PROC ; CWnd::OnToolHitTest
EXTRN	?EnableWindow@CWnd@@QAEHH@Z:PROC		; CWnd::EnableWindow
EXTRN	?GetScrollBarCtrl@CWnd@@UBEPAVCScrollBar@@H@Z:PROC ; CWnd::GetScrollBarCtrl
EXTRN	?WinHelpA@CWnd@@UAEXKI@Z:PROC			; CWnd::WinHelpA
EXTRN	?HtmlHelpA@CWnd@@UAEXKI@Z:PROC			; CWnd::HtmlHelpA
EXTRN	?WinHelpInternal@CWnd@@UAEXKI@Z:PROC		; CWnd::WinHelpInternal
EXTRN	?ContinueModal@CWnd@@UAEHXZ:PROC		; CWnd::ContinueModal
EXTRN	?EndModalLoop@CWnd@@UAEXH@Z:PROC		; CWnd::EndModalLoop
EXTRN	?OnDrawIconicThumbnailOrLivePreview@CWnd@@UAEXAAVCDC@@VCRect@@VCSize@@HAAH@Z:PROC ; CWnd::OnDrawIconicThumbnailOrLivePreview
EXTRN	?GetInterfaceMap@CWnd@@MBEPBUAFX_INTERFACEMAP@@XZ:PROC ; CWnd::GetInterfaceMap
EXTRN	?EnsureStdObj@CWnd@@UAEJXZ:PROC			; CWnd::EnsureStdObj
EXTRN	?get_accParent@CWnd@@UAEJPAPAUIDispatch@@@Z:PROC ; CWnd::get_accParent
EXTRN	?get_accChildCount@CWnd@@UAEJPAJ@Z:PROC		; CWnd::get_accChildCount
EXTRN	?get_accChild@CWnd@@UAEJUtagVARIANT@@PAPAUIDispatch@@@Z:PROC ; CWnd::get_accChild
EXTRN	?get_accName@CWnd@@UAEJUtagVARIANT@@PAPA_W@Z:PROC ; CWnd::get_accName
EXTRN	?get_accValue@CWnd@@UAEJUtagVARIANT@@PAPA_W@Z:PROC ; CWnd::get_accValue
EXTRN	?get_accDescription@CWnd@@UAEJUtagVARIANT@@PAPA_W@Z:PROC ; CWnd::get_accDescription
EXTRN	?get_accRole@CWnd@@UAEJUtagVARIANT@@PAU2@@Z:PROC ; CWnd::get_accRole
EXTRN	?get_accState@CWnd@@UAEJUtagVARIANT@@PAU2@@Z:PROC ; CWnd::get_accState
EXTRN	?get_accHelp@CWnd@@UAEJUtagVARIANT@@PAPA_W@Z:PROC ; CWnd::get_accHelp
EXTRN	?get_accHelpTopic@CWnd@@UAEJPAPA_WUtagVARIANT@@PAJ@Z:PROC ; CWnd::get_accHelpTopic
EXTRN	?get_accKeyboardShortcut@CWnd@@UAEJUtagVARIANT@@PAPA_W@Z:PROC ; CWnd::get_accKeyboardShortcut
EXTRN	?get_accFocus@CWnd@@UAEJPAUtagVARIANT@@@Z:PROC	; CWnd::get_accFocus
EXTRN	?get_accSelection@CWnd@@UAEJPAUtagVARIANT@@@Z:PROC ; CWnd::get_accSelection
EXTRN	?get_accDefaultAction@CWnd@@UAEJUtagVARIANT@@PAPA_W@Z:PROC ; CWnd::get_accDefaultAction
EXTRN	?accSelect@CWnd@@UAEJJUtagVARIANT@@@Z:PROC	; CWnd::accSelect
EXTRN	?accLocation@CWnd@@UAEJPAJ000UtagVARIANT@@@Z:PROC ; CWnd::accLocation
EXTRN	?accNavigate@CWnd@@UAEJJUtagVARIANT@@PAU2@@Z:PROC ; CWnd::accNavigate
EXTRN	?accHitTest@CWnd@@UAEJJJPAUtagVARIANT@@@Z:PROC	; CWnd::accHitTest
EXTRN	?accDoDefaultAction@CWnd@@UAEJUtagVARIANT@@@Z:PROC ; CWnd::accDoDefaultAction
EXTRN	?put_accName@CWnd@@UAEJUtagVARIANT@@PA_W@Z:PROC	; CWnd::put_accName
EXTRN	?put_accValue@CWnd@@UAEJUtagVARIANT@@PA_W@Z:PROC ; CWnd::put_accValue
EXTRN	?SetProxy@CWnd@@UAEJPAUIAccessibleProxy@@@Z:PROC ; CWnd::SetProxy
EXTRN	?CreateAccessibleProxy@CWnd@@UAEJIJPAJ@Z:PROC	; CWnd::CreateAccessibleProxy
EXTRN	?OnCommand@CWnd@@MAEHIJ@Z:PROC			; CWnd::OnCommand
EXTRN	?OnNotify@CWnd@@MAEHIJPAJ@Z:PROC		; CWnd::OnNotify
EXTRN	?GetSuperWndProcAddr@CWnd@@MAEPAP6GJPAUHWND__@@IIJ@ZXZ:PROC ; CWnd::GetSuperWndProcAddr
EXTRN	?DoDataExchange@CWnd@@MAEXPAVCDataExchange@@@Z:PROC ; CWnd::DoDataExchange
EXTRN	?BeginModalState@CWnd@@UAEXXZ:PROC		; CWnd::BeginModalState
EXTRN	?EndModalState@CWnd@@UAEXXZ:PROC		; CWnd::EndModalState
EXTRN	?OnAmbientProperty@CWnd@@UAEHPAVCOleControlSite@@JPAUtagVARIANT@@@Z:PROC ; CWnd::OnAmbientProperty
EXTRN	?WindowProc@CWnd@@MAEJIIJ@Z:PROC		; CWnd::WindowProc
EXTRN	?OnWndMsg@CWnd@@MAEHIIJPAJ@Z:PROC		; CWnd::OnWndMsg
EXTRN	?DefWindowProcA@CWnd@@MAEJIIJ@Z:PROC		; CWnd::DefWindowProcA
EXTRN	?PostNcDestroy@CWnd@@MAEXXZ:PROC		; CWnd::PostNcDestroy
EXTRN	?OnChildNotify@CWnd@@MAEHIIJPAJ@Z:PROC		; CWnd::OnChildNotify
EXTRN	?OnTouchInputs@CWnd@@MAEHIPAUtagTOUCHINPUT@@@Z:PROC ; CWnd::OnTouchInputs
EXTRN	?OnTouchInput@CWnd@@MAEHVCPoint@@HHPAUtagTOUCHINPUT@@@Z:PROC ; CWnd::OnTouchInput
EXTRN	?GetGestureStatus@CWnd@@MAEKVCPoint@@@Z:PROC	; CWnd::GetGestureStatus
EXTRN	?OnGestureZoom@CWnd@@MAEHVCPoint@@J@Z:PROC	; CWnd::OnGestureZoom
EXTRN	?OnGesturePan@CWnd@@MAEHVCPoint@@0@Z:PROC	; CWnd::OnGesturePan
EXTRN	?OnGestureRotate@CWnd@@MAEHVCPoint@@N@Z:PROC	; CWnd::OnGestureRotate
EXTRN	?OnGestureTwoFingerTap@CWnd@@MAEHVCPoint@@@Z:PROC ; CWnd::OnGestureTwoFingerTap
EXTRN	?OnGesturePressAndTap@CWnd@@MAEHVCPoint@@J@Z:PROC ; CWnd::OnGesturePressAndTap
EXTRN	?ResizeDynamicLayout@CWnd@@MAEXXZ:PROC		; CWnd::ResizeDynamicLayout
EXTRN	?IsFrameWnd@CWnd@@UBEHXZ:PROC			; CWnd::IsFrameWnd
EXTRN	?OnFinalRelease@CWnd@@UAEXXZ:PROC		; CWnd::OnFinalRelease
EXTRN	?CreateControlContainer@CWnd@@MAEHPAPAVCOleControlContainer@@@Z:PROC ; CWnd::CreateControlContainer
EXTRN	?CreateControlSite@CWnd@@MAEHPAVCOleControlContainer@@PAPAVCOleControlSite@@IABU_GUID@@@Z:PROC ; CWnd::CreateControlSite
EXTRN	?GetRuntimeClass@CDialog@@UBEPAUCRuntimeClass@@XZ:PROC ; CDialog::GetRuntimeClass
EXTRN	?Create@CDialog@@UAEHPBDPAVCWnd@@@Z:PROC	; CDialog::Create
EXTRN	?Create@CDialog@@UAEHIPAVCWnd@@@Z:PROC		; CDialog::Create
EXTRN	?CreateIndirect@CDialog@@UAEHPBUDLGTEMPLATE@@PAVCWnd@@PAX@Z:PROC ; CDialog::CreateIndirect
EXTRN	?CreateIndirect@CDialog@@UAEHPAXPAVCWnd@@@Z:PROC ; CDialog::CreateIndirect
EXTRN	??0CDialog@@QAE@IPAVCWnd@@@Z:PROC		; CDialog::CDialog
EXTRN	?DoModal@CDialog@@UAEHXZ:PROC			; CDialog::DoModal
EXTRN	?EndDialog@CDialog@@QAEXH@Z:PROC		; CDialog::EndDialog
EXTRN	?OnInitDialog@CDialog@@UAEHXZ:PROC		; CDialog::OnInitDialog
EXTRN	?OnSetFont@CDialog@@UAEXPAVCFont@@@Z:PROC	; CDialog::OnSetFont
EXTRN	?OnCancel@CDialog@@MAEXXZ:PROC			; CDialog::OnCancel
EXTRN	??1CDialog@@UAE@XZ:PROC				; CDialog::~CDialog
EXTRN	?AssertValid@CDialog@@UBEXXZ:PROC		; CDialog::AssertValid
EXTRN	?Dump@CDialog@@UBEXAAVCDumpContext@@@Z:PROC	; CDialog::Dump
EXTRN	?PreTranslateMessage@CDialog@@UAEHPAUtagMSG@@@Z:PROC ; CDialog::PreTranslateMessage
EXTRN	?OnCmdMsg@CDialog@@UAEHIHPAXPAUAFX_CMDHANDLERINFO@@@Z:PROC ; CDialog::OnCmdMsg
EXTRN	?CheckAutoCenter@CDialog@@UAEHXZ:PROC		; CDialog::CheckAutoCenter
EXTRN	?SetOccDialogInfo@CDialog@@MAEHPAU_AFX_OCC_DIALOG_INFO@@@Z:PROC ; CDialog::SetOccDialogInfo
EXTRN	?GetOccDialogInfo@CDialog@@MAEPAU_AFX_OCC_DIALOG_INFO@@XZ:PROC ; CDialog::GetOccDialogInfo
EXTRN	?PreInitDialog@CDialog@@MAEXXZ:PROC		; CDialog::PreInitDialog
EXTRN	?AfxSetResourceHandle@@YGXPAUHINSTANCE__@@@Z:PROC ; AfxSetResourceHandle
EXTRN	?AfxMessageBox@@YGHPBDII@Z:PROC			; AfxMessageBox
EXTRN	?AfxLoadLibrary@@YGPAUHINSTANCE__@@PBD@Z:PROC	; AfxLoadLibrary
EXTRN	?AfxFreeLibrary@@YGHPAUHINSTANCE__@@@Z:PROC	; AfxFreeLibrary
EXTRN	?GetItemCount@CListCtrl@@QBEHXZ:PROC		; CListCtrl::GetItemCount
EXTRN	?GetFirstSelectedItemPosition@CListCtrl@@QBEPAU__POSITION@@XZ:PROC ; CListCtrl::GetFirstSelectedItemPosition
EXTRN	?GetNextSelectedItem@CListCtrl@@QBEHAAPAU__POSITION@@@Z:PROC ; CListCtrl::GetNextSelectedItem
EXTRN	?SetItemState@CListCtrl@@QAEHHII@Z:PROC		; CListCtrl::SetItemState
EXTRN	?GetItemData@CListCtrl@@QBEKH@Z:PROC		; CListCtrl::GetItemData
EXTRN	?DeleteItem@CListCtrl@@QAEHH@Z:PROC		; CListCtrl::DeleteItem
EXTRN	?DeleteAllItems@CListCtrl@@QAEHXZ:PROC		; CListCtrl::DeleteAllItems
EXTRN	?_Xbad_alloc@std@@YAXXZ:PROC			; std::_Xbad_alloc
EXTRN	__Mbrtowc:PROC
EXTRN	__imp_?_Getcvt@_Locinfo@std@@QBE?AU_Cvtvec@@XZ:PROC
EXTRN	__imp_?_Getdays@_Locinfo@std@@QBEPBDXZ:PROC
EXTRN	__imp_?_Getmonths@_Locinfo@std@@QBEPBDXZ:PROC
EXTRN	__imp_?_W_Getdays@_Locinfo@std@@QBEPBGXZ:PROC
EXTRN	__imp_?_W_Getmonths@_Locinfo@std@@QBEPBGXZ:PROC
EXTRN	__imp_?GetMachineID@CWHService@@SA_NQAD@Z:PROC
EXTRN	__imp_?TraceString@CTraceService@@SA_NPBDW4enTraceLevel@@@Z:PROC
EXTRN	??_E?$CTempldateHelper@UIGameServiceManager@@@@UAEPAXI@Z:PROC ; CTempldateHelper<IGameServiceManager>::`vector deleting destructor'
EXTRN	??_ECGameServiceManagerHelper@@UAEPAXI@Z:PROC	; CGameServiceManagerHelper::`vector deleting destructor'
EXTRN	??0CServerInfoBuffer@@QAE@XZ:PROC		; CServerInfoBuffer::CServerInfoBuffer
EXTRN	??1CServerInfoBuffer@@UAE@XZ:PROC		; CServerInfoBuffer::~CServerInfoBuffer
EXTRN	?DeleteServerInfo@CServerInfoBuffer@@QAE_NG@Z:PROC ; CServerInfoBuffer::DeleteServerInfo
EXTRN	??_E?$CWHArray@PAUtagGameMatchOption@@ABQAU1@@@UAEPAXI@Z:PROC ; CWHArray<tagGameMatchOption *,tagGameMatchOption * const &>::`vector deleting destructor'
EXTRN	??1CMatchOptionBuffer@@UAE@XZ:PROC		; CMatchOptionBuffer::~CMatchOptionBuffer
EXTRN	??0CServerInfoManager@@QAE@XZ:PROC		; CServerInfoManager::CServerInfoManager
EXTRN	??1CServerInfoManager@@UAE@XZ:PROC		; CServerInfoManager::~CServerInfoManager
EXTRN	?LoadGameServerInfo@CServerInfoManager@@QAE_NQADAAVCServerInfoBuffer@@@Z:PROC ; CServerInfoManager::LoadGameServerInfo
EXTRN	?LoadGameServerInfo@CServerInfoManager@@QAE_NQADGAAUtagGameServerInfo@@@Z:PROC ; CServerInfoManager::LoadGameServerInfo
EXTRN	?DeleteGameServer@CServerInfoManager@@QAE_NG@Z:PROC ; CServerInfoManager::DeleteGameServer
EXTRN	?LoadPersonalRoomParameter@CServerInfoManager@@QAE_NAAUtagPersonalRoomOption@@AAUtagPersonalRoomOptionRightAndFee@@G@Z:PROC ; CServerInfoManager::LoadPersonalRoomParameter
EXTRN	??0CServerListControl@@QAE@XZ:PROC		; CServerListControl::CServerListControl
EXTRN	??1CServerListControl@@UAE@XZ:PROC		; CServerListControl::~CServerListControl
EXTRN	?InsertServerInfo@CServerListControl@@QAE_NPAUtagGameServerInfo@@@Z:PROC ; CServerListControl::InsertServerInfo
EXTRN	@__security_check_cookie@4:PROC
EXTRN	___CxxFrameHandler3:PROC
EXTRN	_memset:PROC
EXTRN	??_7type_info@@6B@:QWORD			; type_info::`vftable'
EXTRN	___security_cookie:DWORD
;	COMDAT ?_OptionsStorage@?1??__local_stdio_printf_options@@9@4_KA
_BSS	SEGMENT
?_OptionsStorage@?1??__local_stdio_printf_options@@9@4_KA DQ 01H DUP (?) ; `__local_stdio_printf_options'::`2'::_OptionsStorage
_BSS	ENDS
;	COMDAT ??_R1A@?0A@EA@CDlgServerItem@@8
rdata$r	SEGMENT
??_R1A@?0A@EA@CDlgServerItem@@8 DD FLAT:??_R0?AVCDlgServerItem@@@8 ; CDlgServerItem::`RTTI Base Class Descriptor at (0,-1,0,64)'
	DD	04H
	DD	00H
	DD	0ffffffffH
	DD	00H
	DD	040H
	DD	FLAT:??_R3CDlgServerItem@@8
rdata$r	ENDS
;	COMDAT ??_R2CDlgServerItem@@8
rdata$r	SEGMENT
??_R2CDlgServerItem@@8 DD FLAT:??_R1A@?0A@EA@CDlgServerItem@@8 ; CDlgServerItem::`RTTI Base Class Array'
	DD	FLAT:??_R1A@?0A@EA@CDialog@@8
	DD	FLAT:??_R1A@?0A@EA@CWnd@@8
	DD	FLAT:??_R1A@?0A@EA@CCmdTarget@@8
	DD	FLAT:??_R1A@?0A@EA@CObject@@8
rdata$r	ENDS
;	COMDAT ??_R3CDlgServerItem@@8
rdata$r	SEGMENT
??_R3CDlgServerItem@@8 DD 00H				; CDlgServerItem::`RTTI Class Hierarchy Descriptor'
	DD	00H
	DD	05H
	DD	FLAT:??_R2CDlgServerItem@@8
rdata$r	ENDS
;	COMDAT ??_R0?AVCDlgServerItem@@@8
data$r	SEGMENT
??_R0?AVCDlgServerItem@@@8 DD FLAT:??_7type_info@@6B@	; CDlgServerItem `RTTI Type Descriptor'
	DD	00H
	DB	'.?AVCDlgServerItem@@', 00H
data$r	ENDS
;	COMDAT ??_R4CDlgServerItem@@6B@
rdata$r	SEGMENT
??_R4CDlgServerItem@@6B@ DD 00H				; CDlgServerItem::`RTTI Complete Object Locator'
	DD	00H
	DD	00H
	DD	FLAT:??_R0?AVCDlgServerItem@@@8
	DD	FLAT:??_R3CDlgServerItem@@8
rdata$r	ENDS
;	COMDAT ??_R1A@?0A@EA@CServerInfoManager@@8
rdata$r	SEGMENT
??_R1A@?0A@EA@CServerInfoManager@@8 DD FLAT:??_R0?AVCServerInfoManager@@@8 ; CServerInfoManager::`RTTI Base Class Descriptor at (0,-1,0,64)'
	DD	00H
	DD	00H
	DD	0ffffffffH
	DD	00H
	DD	040H
	DD	FLAT:??_R3CServerInfoManager@@8
rdata$r	ENDS
;	COMDAT ??_R2CServerInfoManager@@8
rdata$r	SEGMENT
??_R2CServerInfoManager@@8 DD FLAT:??_R1A@?0A@EA@CServerInfoManager@@8 ; CServerInfoManager::`RTTI Base Class Array'
rdata$r	ENDS
;	COMDAT ??_R3CServerInfoManager@@8
rdata$r	SEGMENT
??_R3CServerInfoManager@@8 DD 00H			; CServerInfoManager::`RTTI Class Hierarchy Descriptor'
	DD	00H
	DD	01H
	DD	FLAT:??_R2CServerInfoManager@@8
rdata$r	ENDS
;	COMDAT ??_R0?AVCServerInfoManager@@@8
data$r	SEGMENT
??_R0?AVCServerInfoManager@@@8 DD FLAT:??_7type_info@@6B@ ; CServerInfoManager `RTTI Type Descriptor'
	DD	00H
	DB	'.?AVCServerInfoManager@@', 00H
data$r	ENDS
;	COMDAT ??_R4CServerInfoManager@@6B@
rdata$r	SEGMENT
??_R4CServerInfoManager@@6B@ DD 00H			; CServerInfoManager::`RTTI Complete Object Locator'
	DD	00H
	DD	00H
	DD	FLAT:??_R0?AVCServerInfoManager@@@8
	DD	FLAT:??_R3CServerInfoManager@@8
rdata$r	ENDS
;	COMDAT ??_R1A@?0A@EA@CMatchOptionBuffer@@8
rdata$r	SEGMENT
??_R1A@?0A@EA@CMatchOptionBuffer@@8 DD FLAT:??_R0?AVCMatchOptionBuffer@@@8 ; CMatchOptionBuffer::`RTTI Base Class Descriptor at (0,-1,0,64)'
	DD	00H
	DD	00H
	DD	0ffffffffH
	DD	00H
	DD	040H
	DD	FLAT:??_R3CMatchOptionBuffer@@8
rdata$r	ENDS
;	COMDAT ??_R2CMatchOptionBuffer@@8
rdata$r	SEGMENT
??_R2CMatchOptionBuffer@@8 DD FLAT:??_R1A@?0A@EA@CMatchOptionBuffer@@8 ; CMatchOptionBuffer::`RTTI Base Class Array'
rdata$r	ENDS
;	COMDAT ??_R3CMatchOptionBuffer@@8
rdata$r	SEGMENT
??_R3CMatchOptionBuffer@@8 DD 00H			; CMatchOptionBuffer::`RTTI Class Hierarchy Descriptor'
	DD	00H
	DD	01H
	DD	FLAT:??_R2CMatchOptionBuffer@@8
rdata$r	ENDS
;	COMDAT ??_R0?AVCMatchOptionBuffer@@@8
data$r	SEGMENT
??_R0?AVCMatchOptionBuffer@@@8 DD FLAT:??_7type_info@@6B@ ; CMatchOptionBuffer `RTTI Type Descriptor'
	DD	00H
	DB	'.?AVCMatchOptionBuffer@@', 00H
data$r	ENDS
;	COMDAT ??_R4CMatchOptionBuffer@@6B@
rdata$r	SEGMENT
??_R4CMatchOptionBuffer@@6B@ DD 00H			; CMatchOptionBuffer::`RTTI Complete Object Locator'
	DD	00H
	DD	00H
	DD	FLAT:??_R0?AVCMatchOptionBuffer@@@8
	DD	FLAT:??_R3CMatchOptionBuffer@@8
rdata$r	ENDS
;	COMDAT ??_R1A@?0A@EA@?$CWHArray@PAUtagGameMatchOption@@ABQAU1@@@8
rdata$r	SEGMENT
??_R1A@?0A@EA@?$CWHArray@PAUtagGameMatchOption@@ABQAU1@@@8 DD FLAT:??_R0?AV?$CWHArray@PAUtagGameMatchOption@@ABQAU1@@@@8 ; CWHArray<tagGameMatchOption *,tagGameMatchOption * const &>::`RTTI Base Class Descriptor at (0,-1,0,64)'
	DD	00H
	DD	00H
	DD	0ffffffffH
	DD	00H
	DD	040H
	DD	FLAT:??_R3?$CWHArray@PAUtagGameMatchOption@@ABQAU1@@@8
rdata$r	ENDS
;	COMDAT ??_R2?$CWHArray@PAUtagGameMatchOption@@ABQAU1@@@8
rdata$r	SEGMENT
??_R2?$CWHArray@PAUtagGameMatchOption@@ABQAU1@@@8 DD FLAT:??_R1A@?0A@EA@?$CWHArray@PAUtagGameMatchOption@@ABQAU1@@@8 ; CWHArray<tagGameMatchOption *,tagGameMatchOption * const &>::`RTTI Base Class Array'
rdata$r	ENDS
;	COMDAT ??_R3?$CWHArray@PAUtagGameMatchOption@@ABQAU1@@@8
rdata$r	SEGMENT
??_R3?$CWHArray@PAUtagGameMatchOption@@ABQAU1@@@8 DD 00H ; CWHArray<tagGameMatchOption *,tagGameMatchOption * const &>::`RTTI Class Hierarchy Descriptor'
	DD	00H
	DD	01H
	DD	FLAT:??_R2?$CWHArray@PAUtagGameMatchOption@@ABQAU1@@@8
rdata$r	ENDS
;	COMDAT ??_R0?AV?$CWHArray@PAUtagGameMatchOption@@ABQAU1@@@@8
data$r	SEGMENT
??_R0?AV?$CWHArray@PAUtagGameMatchOption@@ABQAU1@@@@8 DD FLAT:??_7type_info@@6B@ ; CWHArray<tagGameMatchOption *,tagGameMatchOption * const &> `RTTI Type Descriptor'
	DD	00H
	DB	'.?AV?$CWHArray@PAUtagGameMatchOption@@ABQAU1@@@', 00H
data$r	ENDS
;	COMDAT ??_R4?$CWHArray@PAUtagGameMatchOption@@ABQAU1@@@6B@
rdata$r	SEGMENT
??_R4?$CWHArray@PAUtagGameMatchOption@@ABQAU1@@@6B@ DD 00H ; CWHArray<tagGameMatchOption *,tagGameMatchOption * const &>::`RTTI Complete Object Locator'
	DD	00H
	DD	00H
	DD	FLAT:??_R0?AV?$CWHArray@PAUtagGameMatchOption@@ABQAU1@@@@8
	DD	FLAT:??_R3?$CWHArray@PAUtagGameMatchOption@@ABQAU1@@@8
rdata$r	ENDS
;	COMDAT ??_R4?$CTempldateHelper@UIGameServiceManager@@@@6B@
rdata$r	SEGMENT
??_R4?$CTempldateHelper@UIGameServiceManager@@@@6B@ DD 00H ; CTempldateHelper<IGameServiceManager>::`RTTI Complete Object Locator'
	DD	00H
	DD	00H
	DD	FLAT:??_R0?AV?$CTempldateHelper@UIGameServiceManager@@@@@8
	DD	FLAT:??_R3?$CTempldateHelper@UIGameServiceManager@@@@8
rdata$r	ENDS
;	COMDAT ??_R2?$CTempldateHelper@UIGameServiceManager@@@@8
rdata$r	SEGMENT
??_R2?$CTempldateHelper@UIGameServiceManager@@@@8 DD FLAT:??_R1A@?0A@EA@?$CTempldateHelper@UIGameServiceManager@@@@8 ; CTempldateHelper<IGameServiceManager>::`RTTI Base Class Array'
rdata$r	ENDS
;	COMDAT ??_R3?$CTempldateHelper@UIGameServiceManager@@@@8
rdata$r	SEGMENT
??_R3?$CTempldateHelper@UIGameServiceManager@@@@8 DD 00H ; CTempldateHelper<IGameServiceManager>::`RTTI Class Hierarchy Descriptor'
	DD	00H
	DD	01H
	DD	FLAT:??_R2?$CTempldateHelper@UIGameServiceManager@@@@8
rdata$r	ENDS
;	COMDAT ??_R0?AV?$CTempldateHelper@UIGameServiceManager@@@@@8
data$r	SEGMENT
??_R0?AV?$CTempldateHelper@UIGameServiceManager@@@@@8 DD FLAT:??_7type_info@@6B@ ; CTempldateHelper<IGameServiceManager> `RTTI Type Descriptor'
	DD	00H
	DB	'.?AV?$CTempldateHelper@UIGameServiceManager@@@@', 00H
data$r	ENDS
;	COMDAT ??_R1A@?0A@EA@?$CTempldateHelper@UIGameServiceManager@@@@8
rdata$r	SEGMENT
??_R1A@?0A@EA@?$CTempldateHelper@UIGameServiceManager@@@@8 DD FLAT:??_R0?AV?$CTempldateHelper@UIGameServiceManager@@@@@8 ; CTempldateHelper<IGameServiceManager>::`RTTI Base Class Descriptor at (0,-1,0,64)'
	DD	00H
	DD	00H
	DD	0ffffffffH
	DD	00H
	DD	040H
	DD	FLAT:??_R3?$CTempldateHelper@UIGameServiceManager@@@@8
rdata$r	ENDS
;	COMDAT ??_R1A@?0A@EA@CGameServiceManagerHelper@@8
rdata$r	SEGMENT
??_R1A@?0A@EA@CGameServiceManagerHelper@@8 DD FLAT:??_R0?AVCGameServiceManagerHelper@@@8 ; CGameServiceManagerHelper::`RTTI Base Class Descriptor at (0,-1,0,64)'
	DD	01H
	DD	00H
	DD	0ffffffffH
	DD	00H
	DD	040H
	DD	FLAT:??_R3CGameServiceManagerHelper@@8
rdata$r	ENDS
;	COMDAT ??_R2CGameServiceManagerHelper@@8
rdata$r	SEGMENT
??_R2CGameServiceManagerHelper@@8 DD FLAT:??_R1A@?0A@EA@CGameServiceManagerHelper@@8 ; CGameServiceManagerHelper::`RTTI Base Class Array'
	DD	FLAT:??_R1A@?0A@EA@?$CTempldateHelper@UIGameServiceManager@@@@8
rdata$r	ENDS
;	COMDAT ??_R3CGameServiceManagerHelper@@8
rdata$r	SEGMENT
??_R3CGameServiceManagerHelper@@8 DD 00H		; CGameServiceManagerHelper::`RTTI Class Hierarchy Descriptor'
	DD	00H
	DD	02H
	DD	FLAT:??_R2CGameServiceManagerHelper@@8
rdata$r	ENDS
;	COMDAT ??_R0?AVCGameServiceManagerHelper@@@8
data$r	SEGMENT
??_R0?AVCGameServiceManagerHelper@@@8 DD FLAT:??_7type_info@@6B@ ; CGameServiceManagerHelper `RTTI Type Descriptor'
	DD	00H
	DB	'.?AVCGameServiceManagerHelper@@', 00H
data$r	ENDS
;	COMDAT ??_R4CGameServiceManagerHelper@@6B@
rdata$r	SEGMENT
??_R4CGameServiceManagerHelper@@6B@ DD 00H		; CGameServiceManagerHelper::`RTTI Complete Object Locator'
	DD	00H
	DD	00H
	DD	FLAT:??_R0?AVCGameServiceManagerHelper@@@8
	DD	FLAT:??_R3CGameServiceManagerHelper@@8
rdata$r	ENDS
;	COMDAT ??_C@_0DB@JBNKENAJ@?W?i?$LM?$PO?$LE?$LE?$LN?$KI?$LK?$KP?J?$PN?$KB?$LA?$CFs?$KB?$LB?$LC?z?I?z?N?$LE?V?$KK?R?l?$LD?$KD?$LE@
CONST	SEGMENT
??_C@_0DB@JBNKENAJ@?W?i?$LM?$PO?$LE?$LE?$LN?$KI?$LK?$KP?J?$PN?$KB?$LA?$CFs?$KB?$LB?$LC?z?I?z?N?$LE?V?$KK?R?l?$LD?$KD?$LE@ DB 0d7H
	DB	0e9H, 0bcH, 0feH, 0b4H, 0b4H, 0bdH, 0a8H, 0baH, 0afH, 0caH, 0fdH
	DB	0a1H, 0b0H, '%s', 0a1H, 0b1H, 0b2H, 0faH, 0c9H, 0faH, 0ceH, 0b4H
	DB	0d6H, 0aaH, 0d2H, 0ecH, 0b3H, 0a3H, 0b4H, 0edH, 0ceH, 0f3H, 0a3H
	DB	0acH, 0d7H, 0e9H, 0bcH, 0feH, 0b4H, 0b4H, 0bdH, 0a8H, 0caH, 0a7H
	DB	0b0H, 0dcH, 00H				; `string'
CONST	ENDS
;	COMDAT ??_C@_0BJ@JGPFHIJF@?S?I?S?Z?$KB?$LA?$CFs?$KB?$LB?$KD?$KM?W?i?$LM?$PO?$LE?$LE?$LN?$KI?J?$KH?$LA?$NM@
CONST	SEGMENT
??_C@_0BJ@JGPFHIJF@?S?I?S?Z?$KB?$LA?$CFs?$KB?$LB?$KD?$KM?W?i?$LM?$PO?$LE?$LE?$LN?$KI?J?$KH?$LA?$NM@ DB 0d3H
	DB	0c9H, 0d3H, 0daH, 0a1H, 0b0H, '%s', 0a1H, 0b1H, 0a3H, 0acH, 0d7H
	DB	0e9H, 0bcH, 0feH, 0b4H, 0b4H, 0bdH, 0a8H, 0caH, 0a7H, 0b0H, 0dcH
	DB	00H						; `string'
CONST	ENDS
;	COMDAT ??_R0PAD@8
data$r	SEGMENT
??_R0PAD@8 DD	FLAT:??_7type_info@@6B@			; char * `RTTI Type Descriptor'
	DD	00H
	DB	'.PAD', 00H
data$r	ENDS
;	COMDAT ??_C@_0BL@PDAODLKM@?$LF?w?S?C?$LK?$KP?J?$PN?$KB?$LA?$CFs?$KB?$LB?I?z?$LD?I?$LG?T?O?s?J?$KH?$LA?$NM@
CONST	SEGMENT
??_C@_0BL@PDAODLKM@?$LF?w?S?C?$LK?$KP?J?$PN?$KB?$LA?$CFs?$KB?$LB?I?z?$LD?I?$LG?T?O?s?J?$KH?$LA?$NM@ DB 0b5H
	DB	0f7H, 0d3H, 0c3H, 0baH, 0afH, 0caH, 0fdH, 0a1H, 0b0H, '%s', 0a1H
	DB	0b1H, 0c9H, 0faH, 0b3H, 0c9H, 0b6H, 0d4H, 0cfH, 0f3H, 0caH, 0a7H
	DB	0b0H, 0dcH, 00H				; `string'
CONST	ENDS
;	COMDAT ??_C@_0BM@PEGNCJOH@?U?R?$LC?$LL?$LF?$LN?W?i?$LM?$PO?$LE?$LE?$LN?$KI?$LK?$KP?J?$PN?$KB?$LA?$CFs?$KB?$LB?3?$CFd@
CONST	SEGMENT
??_C@_0BM@PEGNCJOH@?U?R?$LC?$LL?$LF?$LN?W?i?$LM?$PO?$LE?$LE?$LN?$KI?$LK?$KP?J?$PN?$KB?$LA?$CFs?$KB?$LB?3?$CFd@ DB 0d5H
	DB	0d2H, 0b2H, 0bbH, 0b5H, 0bdH, 0d7H, 0e9H, 0bcH, 0feH, 0b4H, 0b4H
	DB	0bdH, 0a8H, 0baH, 0afH, 0caH, 0fdH, 0a1H, 0b0H, '%s', 0a1H, 0b1H
	DB	':%d', 00H					; `string'
CONST	ENDS
;	COMDAT ??_C@_0BD@LMOFNGMO@?$KB?$LA?$CFs?$KB?$LB?D?$KD?$LP?i?$LM?S?T?X?J?$KH?$LA?$NM@
CONST	SEGMENT
??_C@_0BD@LMOFNGMO@?$KB?$LA?$CFs?$KB?$LB?D?$KD?$LP?i?$LM?S?T?X?J?$KH?$LA?$NM@ DB 0a1H
	DB	0b0H, '%s', 0a1H, 0b1H, 0c4H, 0a3H, 0bfH, 0e9H, 0bcH, 0d3H, 0d4H
	DB	0d8H, 0caH, 0a7H, 0b0H, 0dcH, 00H		; `string'
CONST	ENDS
;	COMDAT ??_C@_0DG@CDIFDKED@g?3?2?M?x?$LK?$PM?2happygamewh?2?$LH?$PO?N?q?$LG?K?2?O?$LF?M?$LD@
CONST	SEGMENT
??_C@_0DG@CDIFDKED@g?3?2?M?x?$LK?$PM?2happygamewh?2?$LH?$PO?N?q?$LG?K?2?O?$LF?M?$LD@ DB 'g'
	DB	':\', 0cdH, 0f8H, 0baH, 0fcH, '\happygamewh\', 0b7H, 0feH, 0ceH
	DB	0f1H, 0b6H, 0cbH, '\', 0cfH, 0b5H, 0cdH, 0b3H, 0c4H, 0a3H, 0bfH
	DB	0e9H, '\', 0c8H, 0abH, 0beH, 0d6H, 0b6H, 0a8H, 0d2H, 0e5H, '\m'
	DB	'odule.h', 00H				; `string'
CONST	ENDS
;	COMDAT ??_C@_1BK@MHIKGOKE@?$AA?3?$AAA?$AAM?$AA?3?$AAa?$AAm?$AA?3?$AAP?$AAM?$AA?3?$AAp?$AAm@
CONST	SEGMENT
??_C@_1BK@MHIKGOKE@?$AA?3?$AAA?$AAM?$AA?3?$AAa?$AAm?$AA?3?$AAP?$AAM?$AA?3?$AAp?$AAm@ DB ':'
	DB	00H, 'A', 00H, 'M', 00H, ':', 00H, 'a', 00H, 'm', 00H, ':', 00H
	DB	'P', 00H, 'M', 00H, ':', 00H, 'p', 00H, 'm', 00H, 00H, 00H ; `string'
CONST	ENDS
;	COMDAT ??_C@_0N@LPFKKEBD@?3AM?3am?3PM?3pm@
CONST	SEGMENT
??_C@_0N@LPFKKEBD@?3AM?3am?3PM?3pm@ DB ':AM:am:PM:pm', 00H ; `string'
CONST	ENDS
;	COMDAT ??_C@_0BP@LKEPHDDJ@?H?$LH?J?$LF?R?$KK?I?$LO?$LD?$PN?5?$FL?5?$CFs?5?$FN?5?S?N?O?$LH?$LH?$LP?$LM?d?B?p?$KD?$LP@
CONST	SEGMENT
??_C@_0BP@LKEPHDDJ@?H?$LH?J?$LF?R?$KK?I?$LO?$LD?$PN?5?$FL?5?$CFs?5?$FN?5?S?N?O?$LH?$LH?$LP?$LM?d?B?p?$KD?$LP@ DB 0c8H
	DB	0b7H, 0caH, 0b5H, 0d2H, 0aaH, 0c9H, 0beH, 0b3H, 0fdH, ' [ %s ]'
	DB	' ', 0d3H, 0ceH, 0cfH, 0b7H, 0b7H, 0bfH, 0bcH, 0e4H, 0c2H, 0f0H
	DB	0a3H, 0bfH, 00H				; `string'
CONST	ENDS
;	COMDAT ?__LINE__Var@?0??OnBnClickedDeleteServer@CDlgServerItem@@IAEXXZ@4JA
_DATA	SEGMENT
?__LINE__Var@?0??OnBnClickedDeleteServer@CDlgServerItem@@IAEXXZ@4JA DD 017bH ; `CDlgServerItem::OnBnClickedDeleteServer'::`1'::__LINE__Var
_DATA	ENDS
;	COMDAT ?__LINE__Var@?0??OnBnClickedLoadServer@CDlgServerItem@@IAEXXZ@4JA
_DATA	SEGMENT
?__LINE__Var@?0??OnBnClickedLoadServer@CDlgServerItem@@IAEXXZ@4JA DD 015eH ; `CDlgServerItem::OnBnClickedLoadServer'::`1'::__LINE__Var
_DATA	ENDS
;	COMDAT ??_C@_0DG@FBCPCCNK@?$FL?5?$CFs?5?$FN?5?$LH?$PO?N?q?W?i?$LM?$PO?$LC?$LL?$LE?f?T?Z?$LL?r?U?$NP?$LM?S?T?X?J?$KH@
CONST	SEGMENT
??_C@_0DG@FBCPCCNK@?$FL?5?$CFs?5?$FN?5?$LH?$PO?N?q?W?i?$LM?$PO?$LC?$LL?$LE?f?T?Z?$LL?r?U?$NP?$LM?S?T?X?J?$KH@ DB '['
	DB	' %s ] ', 0b7H, 0feH, 0ceH, 0f1H, 0d7H, 0e9H, 0bcH, 0feH, 0b2H
	DB	0bbH, 0b4H, 0e6H, 0d4H, 0daH, 0bbH, 0f2H, 0d5H, 0dfH, 0bcH, 0d3H
	DB	0d4H, 0d8H, 0caH, 0a7H, 0b0H, 0dcH, 0a3H, 0acH, 0c7H, 0ebH, 0d6H
	DB	0d8H, 0d0H, 0c2H, 0b0H, 0b2H, 0d7H, 0b0H, 0b7H, 0feH, 0ceH, 0f1H
	DB	0d7H, 0e9H, 0bcH, 0feH, 00H			; `string'
CONST	ENDS
;	COMDAT ??_C@_0DG@OJJHENMN@?$FL?5?$CFs?5?$FN?5?S?N?O?$LH?$LH?$PO?N?q?F?w?W?i?$LM?$PO?R?Q?$LO?$KN?$LI?$PM?P?B?A?K@
CONST	SEGMENT
??_C@_0DG@OJJHENMN@?$FL?5?$CFs?5?$FN?5?S?N?O?$LH?$LH?$PO?N?q?F?w?W?i?$LM?$PO?R?Q?$LO?$KN?$LI?$PM?P?B?A?K@ DB '['
	DB	' %s ] ', 0d3H, 0ceH, 0cfH, 0b7H, 0b7H, 0feH, 0ceH, 0f1H, 0c6H
	DB	0f7H, 0d7H, 0e9H, 0bcH, 0feH, 0d2H, 0d1H, 0beH, 0adH, 0b8H, 0fcH
	DB	0d0H, 0c2H, 0c1H, 0cbH, 0a3H, 0acH, 0b2H, 0bbH, 0c4H, 0dcH, 0bcH
	DB	0ccH, 0d0H, 0f8H, 0d3H, 0c3H, 0d3H, 0daH, 0c6H, 0f4H, 0b6H, 0afH
	DB	0b7H, 0bfH, 0bcH, 0e4H, 00H			; `string'
CONST	ENDS
;	COMDAT ??_C@_0DK@CNBCCAKH@?$FL?5?$CFs?5?$FN?5?S?N?O?$LH?$LH?$PO?N?q?F?w?W?i?$LM?$PO?$LL?$LJ?C?$LL?S?P?$LA?$LC?W?$LA@
CONST	SEGMENT
??_C@_0DK@CNBCCAKH@?$FL?5?$CFs?5?$FN?5?S?N?O?$LH?$LH?$PO?N?q?F?w?W?i?$LM?$PO?$LL?$LJ?C?$LL?S?P?$LA?$LC?W?$LA@ DB '['
	DB	' %s ] ', 0d3H, 0ceH, 0cfH, 0b7H, 0b7H, 0feH, 0ceH, 0f1H, 0c6H
	DB	0f7H, 0d7H, 0e9H, 0bcH, 0feH, 0bbH, 0b9H, 0c3H, 0bbH, 0d3H, 0d0H
	DB	0b0H, 0b2H, 0d7H, 0b0H, 0a3H, 0acH, 0c7H, 0ebH, 0cfH, 0c8H, 0b0H
	DB	0b2H, 0d7H, 0b0H, 0b6H, 0d4H, 0d3H, 0a6H, 0b5H, 0c4H, 0d3H, 0ceH
	DB	0cfH, 0b7H, 0b7H, 0feH, 0ceH, 0f1H, 0c6H, 0f7H, 00H ; `string'
CONST	ENDS
;	COMDAT ??_C@_0BJ@EBOMCPGB@CreateGameServiceManager@
CONST	SEGMENT
??_C@_0BJ@EBOMCPGB@CreateGameServiceManager@ DB 'CreateGameServiceManager'
	DB	00H						; `string'
CONST	ENDS
;	COMDAT ?__LINE__Var@?0??GetModuleInitParameter@CDlgServerItem@@IAE_NPAUtagGameServerInfo@@_N@Z@4JA
_DATA	SEGMENT
?__LINE__Var@?0??GetModuleInitParameter@CDlgServerItem@@IAE_NPAUtagGameServerInfo@@_N@Z@4JA DD 0ecH ; `CDlgServerItem::GetModuleInitParameter'::`1'::__LINE__Var
_DATA	ENDS
;	COMDAT ??_C@_0EK@GJNFCKFC@g?3?2?M?x?$LK?$PM?2happygamewh?2?$LH?$PO?N?q?$LG?K?2?O?$LF?M?$LD@
CONST	SEGMENT
??_C@_0EK@GJNFCKFC@g?3?2?M?x?$LK?$PM?2happygamewh?2?$LH?$PO?N?q?$LG?K?2?O?$LF?M?$LD@ DB 'g'
	DB	':\', 0cdH, 0f8H, 0baH, 0fcH, '\happygamewh\', 0b7H, 0feH, 0ceH
	DB	0f1H, 0b6H, 0cbH, '\', 0cfH, 0b5H, 0cdH, 0b3H, 0c4H, 0a3H, 0bfH
	DB	0e9H, '\', 0b7H, 0feH, 0ceH, 0f1H, 0c6H, 0f7H, 0d7H, 0e9H, 0bcH
	DB	0feH, '\', 0c4H, 0a3H, 0bfH, 0e9H, 0b9H, 0dcH, 0c0H, 0edH, '\d'
	DB	'lgserveritem.cpp', 00H			; `string'
CONST	ENDS
;	COMDAT ?__LINE__Var@?0??LoadDBServerItem@CDlgServerItem@@IAE_NXZ@4JA
_DATA	SEGMENT
?__LINE__Var@?0??LoadDBServerItem@CDlgServerItem@@IAE_NXZ@4JA DD 09dH ; `CDlgServerItem::LoadDBServerItem'::`1'::__LINE__Var
_DATA	ENDS
;	COMDAT ??_C@_0BC@LFCAOGLK@ModuleManager?4dll@
CONST	SEGMENT
??_C@_0BC@LFCAOGLK@ModuleManager?4dll@ DB 'ModuleManager.dll', 00H ; `string'
CONST	ENDS
;	COMDAT ??_7CDlgServerItem@@6B@
CONST	SEGMENT
??_7CDlgServerItem@@6B@ DD FLAT:??_R4CDlgServerItem@@6B@ ; CDlgServerItem::`vftable'
	DD	FLAT:?GetRuntimeClass@CDialog@@UBEPAUCRuntimeClass@@XZ
	DD	FLAT:??_ECDlgServerItem@@UAEPAXI@Z
	DD	FLAT:?Serialize@CObject@@UAEXAAVCArchive@@@Z
	DD	FLAT:?AssertValid@CDialog@@UBEXXZ
	DD	FLAT:?Dump@CDialog@@UBEXAAVCDumpContext@@@Z
	DD	FLAT:?OnCmdMsg@CDialog@@UAEHIHPAXPAUAFX_CMDHANDLERINFO@@@Z
	DD	FLAT:?OnFinalRelease@CWnd@@UAEXXZ
	DD	FLAT:?IsInvokeAllowed@CCmdTarget@@UAEHJ@Z
	DD	FLAT:?GetDispatchIID@CCmdTarget@@UAEHPAU_GUID@@@Z
	DD	FLAT:?GetTypeInfoCount@CCmdTarget@@UAEIXZ
	DD	FLAT:?GetTypeLibCache@CCmdTarget@@UAEPAVCTypeLibCache@@XZ
	DD	FLAT:?GetTypeLib@CCmdTarget@@UAEJKPAPAUITypeLib@@@Z
	DD	FLAT:?GetMessageMap@CDlgServerItem@@MBEPBUAFX_MSGMAP@@XZ
	DD	FLAT:?GetCommandMap@CCmdTarget@@MBEPBUAFX_OLECMDMAP@@XZ
	DD	FLAT:?GetDispatchMap@CCmdTarget@@MBEPBUAFX_DISPMAP@@XZ
	DD	FLAT:?GetConnectionMap@CCmdTarget@@MBEPBUAFX_CONNECTIONMAP@@XZ
	DD	FLAT:?GetInterfaceMap@CWnd@@MBEPBUAFX_INTERFACEMAP@@XZ
	DD	FLAT:?GetEventSinkMap@CCmdTarget@@MBEPBUAFX_EVENTSINKMAP@@XZ
	DD	FLAT:?OnCreateAggregates@CCmdTarget@@UAEHXZ
	DD	FLAT:?GetInterfaceHook@CCmdTarget@@UAEPAUIUnknown@@PBX@Z
	DD	FLAT:?GetExtraConnectionPoints@CCmdTarget@@MAEHPAVCPtrArray@@@Z
	DD	FLAT:?GetConnectionHook@CCmdTarget@@MAEPAUIConnectionPoint@@ABU_GUID@@@Z
	DD	FLAT:?PreSubclassWindow@CWnd@@UAEXXZ
	DD	FLAT:?Create@CWnd@@UAEHPBD0KABUtagRECT@@PAV1@IPAUCCreateContext@@@Z
	DD	FLAT:?CreateEx@CWnd@@UAEHKPBD0KABUtagRECT@@PAV1@IPAX@Z
	DD	FLAT:?CreateEx@CWnd@@UAEHKPBD0KHHHHPAUHWND__@@PAUHMENU__@@PAX@Z
	DD	FLAT:?DestroyWindow@CWnd@@UAEHXZ
	DD	FLAT:?PreCreateWindow@CWnd@@UAEHAAUtagCREATESTRUCTA@@@Z
	DD	FLAT:?CalcWindowRect@CWnd@@UAEXPAUtagRECT@@I@Z
	DD	FLAT:?GetMenu@CWnd@@UBEPAVCMenu@@XZ
	DD	FLAT:?SetMenu@CWnd@@UAEHPAVCMenu@@@Z
	DD	FLAT:?OnToolHitTest@CWnd@@UBEHVCPoint@@PAUtagTOOLINFOA@@@Z
	DD	FLAT:?GetScrollBarCtrl@CWnd@@UBEPAVCScrollBar@@H@Z
	DD	FLAT:?WinHelpA@CWnd@@UAEXKI@Z
	DD	FLAT:?HtmlHelpA@CWnd@@UAEXKI@Z
	DD	FLAT:?WinHelpInternal@CWnd@@UAEXKI@Z
	DD	FLAT:?ContinueModal@CWnd@@UAEHXZ
	DD	FLAT:?EndModalLoop@CWnd@@UAEXH@Z
	DD	FLAT:?OnDrawIconicThumbnailOrLivePreview@CWnd@@UAEXAAVCDC@@VCRect@@VCSize@@HAAH@Z
	DD	FLAT:?EnsureStdObj@CWnd@@UAEJXZ
	DD	FLAT:?get_accParent@CWnd@@UAEJPAPAUIDispatch@@@Z
	DD	FLAT:?get_accChildCount@CWnd@@UAEJPAJ@Z
	DD	FLAT:?get_accChild@CWnd@@UAEJUtagVARIANT@@PAPAUIDispatch@@@Z
	DD	FLAT:?get_accName@CWnd@@UAEJUtagVARIANT@@PAPA_W@Z
	DD	FLAT:?get_accValue@CWnd@@UAEJUtagVARIANT@@PAPA_W@Z
	DD	FLAT:?get_accDescription@CWnd@@UAEJUtagVARIANT@@PAPA_W@Z
	DD	FLAT:?get_accRole@CWnd@@UAEJUtagVARIANT@@PAU2@@Z
	DD	FLAT:?get_accState@CWnd@@UAEJUtagVARIANT@@PAU2@@Z
	DD	FLAT:?get_accHelp@CWnd@@UAEJUtagVARIANT@@PAPA_W@Z
	DD	FLAT:?get_accHelpTopic@CWnd@@UAEJPAPA_WUtagVARIANT@@PAJ@Z
	DD	FLAT:?get_accKeyboardShortcut@CWnd@@UAEJUtagVARIANT@@PAPA_W@Z
	DD	FLAT:?get_accFocus@CWnd@@UAEJPAUtagVARIANT@@@Z
	DD	FLAT:?get_accSelection@CWnd@@UAEJPAUtagVARIANT@@@Z
	DD	FLAT:?get_accDefaultAction@CWnd@@UAEJUtagVARIANT@@PAPA_W@Z
	DD	FLAT:?accSelect@CWnd@@UAEJJUtagVARIANT@@@Z
	DD	FLAT:?accLocation@CWnd@@UAEJPAJ000UtagVARIANT@@@Z
	DD	FLAT:?accNavigate@CWnd@@UAEJJUtagVARIANT@@PAU2@@Z
	DD	FLAT:?accHitTest@CWnd@@UAEJJJPAUtagVARIANT@@@Z
	DD	FLAT:?accDoDefaultAction@CWnd@@UAEJUtagVARIANT@@@Z
	DD	FLAT:?put_accName@CWnd@@UAEJUtagVARIANT@@PA_W@Z
	DD	FLAT:?put_accValue@CWnd@@UAEJUtagVARIANT@@PA_W@Z
	DD	FLAT:?SetProxy@CWnd@@UAEJPAUIAccessibleProxy@@@Z
	DD	FLAT:?CreateAccessibleProxy@CWnd@@UAEJIJPAJ@Z
	DD	FLAT:?OnCommand@CWnd@@MAEHIJ@Z
	DD	FLAT:?OnNotify@CWnd@@MAEHIJPAJ@Z
	DD	FLAT:?GetSuperWndProcAddr@CWnd@@MAEPAP6GJPAUHWND__@@IIJ@ZXZ
	DD	FLAT:?DoDataExchange@CDlgServerItem@@MAEXPAVCDataExchange@@@Z
	DD	FLAT:?BeginModalState@CWnd@@UAEXXZ
	DD	FLAT:?EndModalState@CWnd@@UAEXXZ
	DD	FLAT:?PreTranslateMessage@CDlgServerItem@@MAEHPAUtagMSG@@@Z
	DD	FLAT:?OnAmbientProperty@CWnd@@UAEHPAVCOleControlSite@@JPAUtagVARIANT@@@Z
	DD	FLAT:?WindowProc@CWnd@@MAEJIIJ@Z
	DD	FLAT:?OnWndMsg@CWnd@@MAEHIIJPAJ@Z
	DD	FLAT:?DefWindowProcA@CWnd@@MAEJIIJ@Z
	DD	FLAT:?PostNcDestroy@CWnd@@MAEXXZ
	DD	FLAT:?OnChildNotify@CWnd@@MAEHIIJPAJ@Z
	DD	FLAT:?OnTouchInputs@CWnd@@MAEHIPAUtagTOUCHINPUT@@@Z
	DD	FLAT:?OnTouchInput@CWnd@@MAEHVCPoint@@HHPAUtagTOUCHINPUT@@@Z
	DD	FLAT:?GetGestureStatus@CWnd@@MAEKVCPoint@@@Z
	DD	FLAT:?OnGestureZoom@CWnd@@MAEHVCPoint@@J@Z
	DD	FLAT:?OnGesturePan@CWnd@@MAEHVCPoint@@0@Z
	DD	FLAT:?OnGestureRotate@CWnd@@MAEHVCPoint@@N@Z
	DD	FLAT:?OnGestureTwoFingerTap@CWnd@@MAEHVCPoint@@@Z
	DD	FLAT:?OnGesturePressAndTap@CWnd@@MAEHVCPoint@@J@Z
	DD	FLAT:?ResizeDynamicLayout@CWnd@@MAEXXZ
	DD	FLAT:?CheckAutoCenter@CDialog@@UAEHXZ
	DD	FLAT:?IsFrameWnd@CWnd@@UBEHXZ
	DD	FLAT:?CreateControlContainer@CWnd@@MAEHPAPAVCOleControlContainer@@@Z
	DD	FLAT:?CreateControlSite@CWnd@@MAEHPAVCOleControlContainer@@PAPAVCOleControlSite@@IABU_GUID@@@Z
	DD	FLAT:?SetOccDialogInfo@CDialog@@MAEHPAU_AFX_OCC_DIALOG_INFO@@@Z
	DD	FLAT:?GetOccDialogInfo@CDialog@@MAEPAU_AFX_OCC_DIALOG_INFO@@XZ
	DD	FLAT:?Create@CDialog@@UAEHIPAVCWnd@@@Z
	DD	FLAT:?Create@CDialog@@UAEHPBDPAVCWnd@@@Z
	DD	FLAT:?CreateIndirect@CDialog@@UAEHPAXPAVCWnd@@@Z
	DD	FLAT:?CreateIndirect@CDialog@@UAEHPBUDLGTEMPLATE@@PAVCWnd@@PAX@Z
	DD	FLAT:?DoModal@CDialog@@UAEHXZ
	DD	FLAT:?OnInitDialog@CDlgServerItem@@MAEHXZ
	DD	FLAT:?OnSetFont@CDialog@@UAEXPAVCFont@@@Z
	DD	FLAT:?OnOK@CDlgServerItem@@MAEXXZ
	DD	FLAT:?OnCancel@CDialog@@MAEXXZ
	DD	FLAT:?PreInitDialog@CDialog@@MAEXXZ
CONST	ENDS
;	COMDAT ??_7CServerInfoManager@@6B@
CONST	SEGMENT
??_7CServerInfoManager@@6B@ DD FLAT:??_R4CServerInfoManager@@6B@ ; CServerInfoManager::`vftable'
	DD	FLAT:??_ECServerInfoManager@@UAEPAXI@Z
CONST	ENDS
;	COMDAT ??_7CMatchOptionBuffer@@6B@
CONST	SEGMENT
??_7CMatchOptionBuffer@@6B@ DD FLAT:??_R4CMatchOptionBuffer@@6B@ ; CMatchOptionBuffer::`vftable'
	DD	FLAT:??_ECMatchOptionBuffer@@UAEPAXI@Z
CONST	ENDS
;	COMDAT ??_7?$CWHArray@PAUtagGameMatchOption@@ABQAU1@@@6B@
CONST	SEGMENT
??_7?$CWHArray@PAUtagGameMatchOption@@ABQAU1@@@6B@ DD FLAT:??_R4?$CWHArray@PAUtagGameMatchOption@@ABQAU1@@@6B@ ; CWHArray<tagGameMatchOption *,tagGameMatchOption * const &>::`vftable'
	DD	FLAT:??_E?$CWHArray@PAUtagGameMatchOption@@ABQAU1@@@UAEPAXI@Z
CONST	ENDS
;	COMDAT ??_7CGameServiceManagerHelper@@6B@
CONST	SEGMENT
??_7CGameServiceManagerHelper@@6B@ DD FLAT:??_R4CGameServiceManagerHelper@@6B@ ; CGameServiceManagerHelper::`vftable'
	DD	FLAT:??_ECGameServiceManagerHelper@@UAEPAXI@Z
CONST	ENDS
;	COMDAT ??_7?$CTempldateHelper@UIGameServiceManager@@@@6B@
CONST	SEGMENT
??_7?$CTempldateHelper@UIGameServiceManager@@@@6B@ DD FLAT:??_R4?$CTempldateHelper@UIGameServiceManager@@@@6B@ ; CTempldateHelper<IGameServiceManager>::`vftable'
	DD	FLAT:??_E?$CTempldateHelper@UIGameServiceManager@@@@UAEPAXI@Z
CONST	ENDS
;	COMDAT ??_C@_0GI@DJFLDKBN@c?3?2program?5files?5?$CIx86?$CJ?2microsof@
CONST	SEGMENT
??_C@_0GI@DJFLDKBN@c?3?2program?5files?5?$CIx86?$CJ?2microsof@ DB 'c:\pro'
	DB	'gram files (x86)\microsoft visual studio\2017\community\vc\to'
	DB	'ols\msvc\14.16.27023\include\xlocnum', 00H	; `string'
CONST	ENDS
;	COMDAT ?__LINE__Var@?0??_Maklocwcs@std@@YAPA_WPB_W@Z@4JA
_DATA	SEGMENT
?__LINE__Var@?0??_Maklocwcs@std@@YAPA_WPB_W@Z@4JA DD 061H ; `std::_Maklocwcs'::`1'::__LINE__Var
_DATA	ENDS
;	COMDAT ??_C@_0GI@LKBGDILM@c?3?2program?5files?5?$CIx86?$CJ?2microsof@
CONST	SEGMENT
??_C@_0GI@LKBGDILM@c?3?2program?5files?5?$CIx86?$CJ?2microsof@ DB 'c:\pro'
	DB	'gram files (x86)\microsoft visual studio\2017\community\vc\to'
	DB	'ols\msvc\14.16.27023\include\xlocale', 00H	; `string'
CONST	ENDS
;	COMDAT ??_R2CCmdTarget@@8
rdata$r	SEGMENT
??_R2CCmdTarget@@8 DD FLAT:??_R1A@?0A@EA@CCmdTarget@@8	; CCmdTarget::`RTTI Base Class Array'
	DD	FLAT:??_R1A@?0A@EA@CObject@@8
rdata$r	ENDS
;	COMDAT ??_R3CCmdTarget@@8
rdata$r	SEGMENT
??_R3CCmdTarget@@8 DD 00H				; CCmdTarget::`RTTI Class Hierarchy Descriptor'
	DD	00H
	DD	02H
	DD	FLAT:??_R2CCmdTarget@@8
rdata$r	ENDS
;	COMDAT ??_R0?AVCCmdTarget@@@8
data$r	SEGMENT
??_R0?AVCCmdTarget@@@8 DD FLAT:??_7type_info@@6B@	; CCmdTarget `RTTI Type Descriptor'
	DD	00H
	DB	'.?AVCCmdTarget@@', 00H
data$r	ENDS
;	COMDAT ??_R1A@?0A@EA@CCmdTarget@@8
rdata$r	SEGMENT
??_R1A@?0A@EA@CCmdTarget@@8 DD FLAT:??_R0?AVCCmdTarget@@@8 ; CCmdTarget::`RTTI Base Class Descriptor at (0,-1,0,64)'
	DD	01H
	DD	00H
	DD	0ffffffffH
	DD	00H
	DD	040H
	DD	FLAT:??_R3CCmdTarget@@8
rdata$r	ENDS
;	COMDAT ??_R2CWnd@@8
rdata$r	SEGMENT
??_R2CWnd@@8 DD	FLAT:??_R1A@?0A@EA@CWnd@@8		; CWnd::`RTTI Base Class Array'
	DD	FLAT:??_R1A@?0A@EA@CCmdTarget@@8
	DD	FLAT:??_R1A@?0A@EA@CObject@@8
rdata$r	ENDS
;	COMDAT ??_R3CWnd@@8
rdata$r	SEGMENT
??_R3CWnd@@8 DD	00H					; CWnd::`RTTI Class Hierarchy Descriptor'
	DD	00H
	DD	03H
	DD	FLAT:??_R2CWnd@@8
rdata$r	ENDS
;	COMDAT ??_R0?AVCWnd@@@8
data$r	SEGMENT
??_R0?AVCWnd@@@8 DD FLAT:??_7type_info@@6B@		; CWnd `RTTI Type Descriptor'
	DD	00H
	DB	'.?AVCWnd@@', 00H
data$r	ENDS
;	COMDAT ??_R1A@?0A@EA@CWnd@@8
rdata$r	SEGMENT
??_R1A@?0A@EA@CWnd@@8 DD FLAT:??_R0?AVCWnd@@@8		; CWnd::`RTTI Base Class Descriptor at (0,-1,0,64)'
	DD	02H
	DD	00H
	DD	0ffffffffH
	DD	00H
	DD	040H
	DD	FLAT:??_R3CWnd@@8
rdata$r	ENDS
;	COMDAT ??_R2CDialog@@8
rdata$r	SEGMENT
??_R2CDialog@@8 DD FLAT:??_R1A@?0A@EA@CDialog@@8	; CDialog::`RTTI Base Class Array'
	DD	FLAT:??_R1A@?0A@EA@CWnd@@8
	DD	FLAT:??_R1A@?0A@EA@CCmdTarget@@8
	DD	FLAT:??_R1A@?0A@EA@CObject@@8
rdata$r	ENDS
;	COMDAT ??_R3CDialog@@8
rdata$r	SEGMENT
??_R3CDialog@@8 DD 00H					; CDialog::`RTTI Class Hierarchy Descriptor'
	DD	00H
	DD	04H
	DD	FLAT:??_R2CDialog@@8
rdata$r	ENDS
;	COMDAT ??_R0?AVCDialog@@@8
data$r	SEGMENT
??_R0?AVCDialog@@@8 DD FLAT:??_7type_info@@6B@		; CDialog `RTTI Type Descriptor'
	DD	00H
	DB	'.?AVCDialog@@', 00H
data$r	ENDS
;	COMDAT ??_R1A@?0A@EA@CDialog@@8
rdata$r	SEGMENT
??_R1A@?0A@EA@CDialog@@8 DD FLAT:??_R0?AVCDialog@@@8	; CDialog::`RTTI Base Class Descriptor at (0,-1,0,64)'
	DD	03H
	DD	00H
	DD	0ffffffffH
	DD	00H
	DD	040H
	DD	FLAT:??_R3CDialog@@8
rdata$r	ENDS
;	COMDAT ??_R2CObject@@8
rdata$r	SEGMENT
??_R2CObject@@8 DD FLAT:??_R1A@?0A@EA@CObject@@8	; CObject::`RTTI Base Class Array'
rdata$r	ENDS
;	COMDAT ??_R3CObject@@8
rdata$r	SEGMENT
??_R3CObject@@8 DD 00H					; CObject::`RTTI Class Hierarchy Descriptor'
	DD	00H
	DD	01H
	DD	FLAT:??_R2CObject@@8
rdata$r	ENDS
;	COMDAT ??_R0?AVCObject@@@8
data$r	SEGMENT
??_R0?AVCObject@@@8 DD FLAT:??_7type_info@@6B@		; CObject `RTTI Type Descriptor'
	DD	00H
	DB	'.?AVCObject@@', 00H
data$r	ENDS
;	COMDAT ??_R1A@?0A@EA@CObject@@8
rdata$r	SEGMENT
??_R1A@?0A@EA@CObject@@8 DD FLAT:??_R0?AVCObject@@@8	; CObject::`RTTI Base Class Descriptor at (0,-1,0,64)'
	DD	00H
	DD	00H
	DD	0ffffffffH
	DD	00H
	DD	040H
	DD	FLAT:??_R3CObject@@8
rdata$r	ENDS
;	COMDAT ??_C@_0HC@HBCNBCLF@c?3?2program?5files?5?$CIx86?$CJ?2microsof@
CONST	SEGMENT
??_C@_0HC@HBCNBCLF@c?3?2program?5files?5?$CIx86?$CJ?2microsof@ DB 'c:\pro'
	DB	'gram files (x86)\microsoft visual studio\2017\community\vc\to'
	DB	'ols\msvc\14.16.27023\atlmfc\include\afxtempl.h', 00H ; `string'
CONST	ENDS
;	COMDAT ??_C@_00CNPNBAHC@@
CONST	SEGMENT
??_C@_00CNPNBAHC@@ DB 00H				; `string'
CONST	ENDS
;	COMDAT xdata$x
xdata$x	SEGMENT
__ehfuncinfo$??_ECDlgServerItem@@UAEPAXI@Z DD 019930522H
	DD	00H
	DD	00H
	DD	2 DUP(00H)
	DD	2 DUP(00H)
	DD	00H
	DD	05H
xdata$x	ENDS
;	COMDAT xdata$x
xdata$x	SEGMENT
__unwindtable$?OnBnClickedDeleteServer@CDlgServerItem@@IAEXXZ DD 0ffffffffH
	DD	FLAT:__unwindfunclet$?OnBnClickedDeleteServer@CDlgServerItem@@IAEXXZ$0
__ehfuncinfo$?OnBnClickedDeleteServer@CDlgServerItem@@IAEXXZ DD 019930522H
	DD	01H
	DD	FLAT:__unwindtable$?OnBnClickedDeleteServer@CDlgServerItem@@IAEXXZ
	DD	2 DUP(00H)
	DD	2 DUP(00H)
	DD	00H
	DD	01H
xdata$x	ENDS
;	COMDAT xdata$x
xdata$x	SEGMENT
__unwindtable$?GetModuleInitParameter@CDlgServerItem@@IAE_NPAUtagGameServerInfo@@_N@Z DD 0ffffffffH
	DD	FLAT:__unwindfunclet$?GetModuleInitParameter@CDlgServerItem@@IAE_NPAUtagGameServerInfo@@_N@Z$0
__ehfuncinfo$?GetModuleInitParameter@CDlgServerItem@@IAE_NPAUtagGameServerInfo@@_N@Z DD 019930522H
	DD	01H
	DD	FLAT:__unwindtable$?GetModuleInitParameter@CDlgServerItem@@IAE_NPAUtagGameServerInfo@@_N@Z
	DD	2 DUP(00H)
	DD	2 DUP(00H)
	DD	00H
	DD	01H
xdata$x	ENDS
;	COMDAT xdata$x
xdata$x	SEGMENT
__unwindtable$?LoadDBServerItem@CDlgServerItem@@IAE_NXZ DD 0ffffffffH
	DD	FLAT:__unwindfunclet$?LoadDBServerItem@CDlgServerItem@@IAE_NXZ$0
__ehfuncinfo$?LoadDBServerItem@CDlgServerItem@@IAE_NXZ DD 019930522H
	DD	01H
	DD	FLAT:__unwindtable$?LoadDBServerItem@CDlgServerItem@@IAE_NXZ
	DD	2 DUP(00H)
	DD	2 DUP(00H)
	DD	00H
	DD	01H
xdata$x	ENDS
;	COMDAT xdata$x
xdata$x	SEGMENT
__unwindtable$?LoadPersonalRoomPatameter@CDlgServerItem@@QAE_NG@Z DD 0ffffffffH
	DD	FLAT:__unwindfunclet$?LoadPersonalRoomPatameter@CDlgServerItem@@QAE_NG@Z$0
__ehfuncinfo$?LoadPersonalRoomPatameter@CDlgServerItem@@QAE_NG@Z DD 019930522H
	DD	01H
	DD	FLAT:__unwindtable$?LoadPersonalRoomPatameter@CDlgServerItem@@QAE_NG@Z
	DD	2 DUP(00H)
	DD	2 DUP(00H)
	DD	00H
	DD	01H
xdata$x	ENDS
;	COMDAT xdata$x
xdata$x	SEGMENT
__unwindtable$?OpenGameServer@CDlgServerItem@@QAE_NG@Z DD 0ffffffffH
	DD	FLAT:__unwindfunclet$?OpenGameServer@CDlgServerItem@@QAE_NG@Z$0
__ehfuncinfo$?OpenGameServer@CDlgServerItem@@QAE_NG@Z DD 019930522H
	DD	01H
	DD	FLAT:__unwindtable$?OpenGameServer@CDlgServerItem@@QAE_NG@Z
	DD	2 DUP(00H)
	DD	2 DUP(00H)
	DD	00H
	DD	01H
xdata$x	ENDS
;	COMDAT xdata$x
xdata$x	SEGMENT
__unwindtable$??0CDlgServerItem@@QAE@XZ DD 0ffffffffH
	DD	FLAT:__unwindfunclet$??0CDlgServerItem@@QAE@XZ$0
	DD	00H
	DD	FLAT:__unwindfunclet$??0CDlgServerItem@@QAE@XZ$1
	DD	01H
	DD	FLAT:__unwindfunclet$??0CDlgServerItem@@QAE@XZ$2
__ehfuncinfo$??0CDlgServerItem@@QAE@XZ DD 019930522H
	DD	03H
	DD	FLAT:__unwindtable$??0CDlgServerItem@@QAE@XZ
	DD	2 DUP(00H)
	DD	2 DUP(00H)
	DD	00H
	DD	01H
xdata$x	ENDS
;	COMDAT xdata$x
xdata$x	SEGMENT
__ehfuncinfo$??_ECServerInfoManager@@UAEPAXI@Z DD 019930522H
	DD	00H
	DD	00H
	DD	2 DUP(00H)
	DD	2 DUP(00H)
	DD	00H
	DD	05H
xdata$x	ENDS
;	COMDAT xdata$x
xdata$x	SEGMENT
__ehfuncinfo$??_ECMatchOptionBuffer@@UAEPAXI@Z DD 019930522H
	DD	00H
	DD	00H
	DD	2 DUP(00H)
	DD	2 DUP(00H)
	DD	00H
	DD	05H
xdata$x	ENDS
;	COMDAT xdata$x
xdata$x	SEGMENT
__unwindtable$?CreateInstance@?$CTempldateHelper@UIGameServiceManager@@@@QAE_NXZ DD 0ffffffffH
	DD	00H
	DD	0ffffffffH
	DD	00H
__tryblocktable$?CreateInstance@?$CTempldateHelper@UIGameServiceManager@@@@QAE_NXZ DD 00H
	DD	00H
	DD	01H
	DD	02H
	DD	FLAT:__catchsym$?CreateInstance@?$CTempldateHelper@UIGameServiceManager@@@@QAE_NXZ$3
__catchsym$?CreateInstance@?$CTempldateHelper@UIGameServiceManager@@@@QAE_NXZ$3 DD 01H
	DD	FLAT:??_R0PAD@8
	DD	0ffffffe4H
	DD	FLAT:__catch$?CreateInstance@?$CTempldateHelper@UIGameServiceManager@@@@QAE_NXZ$0
	DD	040H
	DD	00H
	DD	00H
	DD	FLAT:__catch$?CreateInstance@?$CTempldateHelper@UIGameServiceManager@@@@QAE_NXZ$1
__ehfuncinfo$?CreateInstance@?$CTempldateHelper@UIGameServiceManager@@@@QAE_NXZ DD 019930522H
	DD	02H
	DD	FLAT:__unwindtable$?CreateInstance@?$CTempldateHelper@UIGameServiceManager@@@@QAE_NXZ
	DD	01H
	DD	FLAT:__tryblocktable$?CreateInstance@?$CTempldateHelper@UIGameServiceManager@@@@QAE_NXZ
	DD	2 DUP(00H)
	DD	00H
	DD	01H
xdata$x	ENDS
;	COMDAT xdata$x
xdata$x	SEGMENT
__ehfuncinfo$??1?$CTempldateHelper@UIGameServiceManager@@@@UAE@XZ DD 019930522H
	DD	00H
	DD	00H
	DD	2 DUP(00H)
	DD	2 DUP(00H)
	DD	00H
	DD	05H
xdata$x	ENDS
; Function compile flags: /Odtp /ZI
; File c:\program files (x86)\microsoft visual studio\2017\community\vc\tools\msvc\14.16.27023\include\xlocale
;	COMDAT ??$_Maklocstr@D@std@@YAPADPBDPADABU_Cvtvec@@@Z
_TEXT	SEGMENT
__Ptrnext$1 = -12					; size = 4
__Ptrdest$ = -8						; size = 4
__Count$ = -4						; size = 4
__Ptr$ = 8						; size = 4
___formal$ = 12						; size = 4
___formal$ = 16						; size = 4
??$_Maklocstr@D@std@@YAPADPBDPADABU_Cvtvec@@@Z PROC	; std::_Maklocstr<char>, COMDAT

; 664  : 	{	// convert C string to _Elem sequence using _Cvtvec

  00000	55		 push	 ebp
  00001	8b ec		 mov	 ebp, esp
  00003	83 ec 4c	 sub	 esp, 76			; 0000004cH
  00006	53		 push	 ebx
  00007	56		 push	 esi
  00008	57		 push	 edi

; 665  : 	size_t _Count = _CSTD strlen(_Ptr) + 1;

  00009	8b 45 08	 mov	 eax, DWORD PTR __Ptr$[ebp]
  0000c	50		 push	 eax
  0000d	e8 00 00 00 00	 call	 _strlen
  00012	83 c4 04	 add	 esp, 4
  00015	83 c0 01	 add	 eax, 1
  00018	89 45 fc	 mov	 DWORD PTR __Count$[ebp], eax

; 666  : 
; 667  : 	_Elem *_Ptrdest = (_Elem *)_calloc_dbg(_Count, sizeof (_Elem),

  0001b	68 9c 02 00 00	 push	 668			; 0000029cH
  00020	68 00 00 00 00	 push	 OFFSET ??_C@_0GI@LKBGDILM@c?3?2program?5files?5?$CIx86?$CJ?2microsof@
  00025	6a 02		 push	 2
  00027	6a 01		 push	 1
  00029	8b 45 fc	 mov	 eax, DWORD PTR __Count$[ebp]
  0002c	50		 push	 eax
  0002d	ff 15 00 00 00
	00		 call	 DWORD PTR __imp___calloc_dbg
  00033	83 c4 14	 add	 esp, 20			; 00000014H
  00036	89 45 f8	 mov	 DWORD PTR __Ptrdest$[ebp], eax

; 668  : 		_CRT_BLOCK, __FILE__, __LINE__);
; 669  : 
; 670  : 	if (!_Ptrdest)

  00039	83 7d f8 00	 cmp	 DWORD PTR __Ptrdest$[ebp], 0
  0003d	75 05		 jne	 SHORT $LN5@Maklocstr

; 671  : 		_Xbad_alloc();

  0003f	e8 00 00 00 00	 call	 ?_Xbad_alloc@std@@YAXXZ	; std::_Xbad_alloc
$LN5@Maklocstr:

; 672  : 
; 673  : 	for (_Elem *_Ptrnext = _Ptrdest; 0 < _Count; --_Count, ++_Ptrnext, ++_Ptr)

  00044	8b 45 f8	 mov	 eax, DWORD PTR __Ptrdest$[ebp]
  00047	89 45 f4	 mov	 DWORD PTR __Ptrnext$1[ebp], eax
  0004a	eb 1b		 jmp	 SHORT $LN4@Maklocstr
$LN2@Maklocstr:
  0004c	8b 45 fc	 mov	 eax, DWORD PTR __Count$[ebp]
  0004f	83 e8 01	 sub	 eax, 1
  00052	89 45 fc	 mov	 DWORD PTR __Count$[ebp], eax
  00055	8b 4d f4	 mov	 ecx, DWORD PTR __Ptrnext$1[ebp]
  00058	83 c1 01	 add	 ecx, 1
  0005b	89 4d f4	 mov	 DWORD PTR __Ptrnext$1[ebp], ecx
  0005e	8b 55 08	 mov	 edx, DWORD PTR __Ptr$[ebp]
  00061	83 c2 01	 add	 edx, 1
  00064	89 55 08	 mov	 DWORD PTR __Ptr$[ebp], edx
$LN4@Maklocstr:
  00067	83 7d fc 00	 cmp	 DWORD PTR __Count$[ebp], 0
  0006b	76 0c		 jbe	 SHORT $LN3@Maklocstr

; 674  : 		*_Ptrnext = (_Elem)(unsigned char)*_Ptr;

  0006d	8b 45 f4	 mov	 eax, DWORD PTR __Ptrnext$1[ebp]
  00070	8b 4d 08	 mov	 ecx, DWORD PTR __Ptr$[ebp]
  00073	8a 11		 mov	 dl, BYTE PTR [ecx]
  00075	88 10		 mov	 BYTE PTR [eax], dl
  00077	eb d3		 jmp	 SHORT $LN2@Maklocstr
$LN3@Maklocstr:

; 675  : 
; 676  : 	return (_Ptrdest);

  00079	8b 45 f8	 mov	 eax, DWORD PTR __Ptrdest$[ebp]
$LN6@Maklocstr:

; 677  : 	}

  0007c	5f		 pop	 edi
  0007d	5e		 pop	 esi
  0007e	5b		 pop	 ebx
  0007f	8b e5		 mov	 esp, ebp
  00081	5d		 pop	 ebp
  00082	c3		 ret	 0
??$_Maklocstr@D@std@@YAPADPBDPADABU_Cvtvec@@@Z ENDP	; std::_Maklocstr<char>
_TEXT	ENDS
; Function compile flags: /Odtp /ZI
; File c:\program files (x86)\windows kits\10\include\10.0.17763.0\ucrt\stdio.h
;	COMDAT ??$_snprintf_s@$0IA@@@YAHAAY0IA@DIPBDZZ
_TEXT	SEGMENT
__ArgList$ = -4						; size = 4
__Buffer$ = 8						; size = 4
__BufferCount$ = 12					; size = 4
__Format$ = 16						; size = 4
??$_snprintf_s@$0IA@@@YAHAAY0IA@DIPBDZZ PROC		; _snprintf_s<128>, COMDAT

; 2079 :         )

  00000	55		 push	 ebp
  00001	8b ec		 mov	 ebp, esp
  00003	83 ec 48	 sub	 esp, 72			; 00000048H
  00006	53		 push	 ebx
  00007	56		 push	 esi
  00008	57		 push	 edi

; 2073 :     __DEFINE_CPP_OVERLOAD_SECURE_FUNC_0_2_ARGLIST(

  00009	8d 45 14	 lea	 eax, DWORD PTR __Format$[ebp+4]
  0000c	89 45 fc	 mov	 DWORD PTR __ArgList$[ebp], eax
  0000f	8b 45 fc	 mov	 eax, DWORD PTR __ArgList$[ebp]
  00012	50		 push	 eax
  00013	8b 4d 10	 mov	 ecx, DWORD PTR __Format$[ebp]
  00016	51		 push	 ecx
  00017	8b 55 0c	 mov	 edx, DWORD PTR __BufferCount$[ebp]
  0001a	52		 push	 edx
  0001b	68 80 00 00 00	 push	 128			; 00000080H
  00020	8b 45 08	 mov	 eax, DWORD PTR __Buffer$[ebp]
  00023	50		 push	 eax
  00024	e8 00 00 00 00	 call	 __vsnprintf_s
  00029	83 c4 14	 add	 esp, 20			; 00000014H
  0002c	5f		 pop	 edi
  0002d	5e		 pop	 esi
  0002e	5b		 pop	 ebx
  0002f	8b e5		 mov	 esp, ebp
  00031	5d		 pop	 ebp
  00032	c3		 ret	 0
??$_snprintf_s@$0IA@@@YAHAAY0IA@DIPBDZZ ENDP		; _snprintf_s<128>
_TEXT	ENDS
; Function compile flags: /Odtp /ZI
;	COMDAT ??_ECDlgServerItem@@UAEPAXI@Z
_TEXT	SEGMENT
_this$ = -16						; size = 4
__$EHRec$ = -12						; size = 12
___flags$ = 8						; size = 4
??_ECDlgServerItem@@UAEPAXI@Z PROC			; CDlgServerItem::`vector deleting destructor', COMDAT
; _this$ = ecx
  00000	55		 push	 ebp
  00001	8b ec		 mov	 ebp, esp
  00003	6a ff		 push	 -1
  00005	68 00 00 00 00	 push	 __ehhandler$??_ECDlgServerItem@@UAEPAXI@Z
  0000a	64 a1 00 00 00
	00		 mov	 eax, DWORD PTR fs:0
  00010	50		 push	 eax
  00011	83 ec 44	 sub	 esp, 68			; 00000044H
  00014	53		 push	 ebx
  00015	56		 push	 esi
  00016	57		 push	 edi
  00017	a1 00 00 00 00	 mov	 eax, DWORD PTR ___security_cookie
  0001c	33 c5		 xor	 eax, ebp
  0001e	50		 push	 eax
  0001f	8d 45 f4	 lea	 eax, DWORD PTR __$EHRec$[ebp]
  00022	64 a3 00 00 00
	00		 mov	 DWORD PTR fs:0, eax
  00028	89 4d f0	 mov	 DWORD PTR _this$[ebp], ecx
  0002b	8b 45 08	 mov	 eax, DWORD PTR ___flags$[ebp]
  0002e	83 e0 02	 and	 eax, 2
  00031	74 47		 je	 SHORT $LN2@vector
  00033	68 00 00 00 00	 push	 OFFSET ??1CDlgServerItem@@UAE@XZ ; CDlgServerItem::~CDlgServerItem
  00038	8b 45 f0	 mov	 eax, DWORD PTR _this$[ebp]
  0003b	8b 48 fc	 mov	 ecx, DWORD PTR [eax-4]
  0003e	51		 push	 ecx
  0003f	68 20 0f 00 00	 push	 3872			; 00000f20H
  00044	8b 55 f0	 mov	 edx, DWORD PTR _this$[ebp]
  00047	52		 push	 edx
  00048	e8 00 00 00 00	 call	 ??_M@YGXPAXIIP6EX0@Z@Z
  0004d	8b 45 08	 mov	 eax, DWORD PTR ___flags$[ebp]
  00050	83 e0 01	 and	 eax, 1
  00053	74 1d		 je	 SHORT $LN3@vector
  00055	8b 45 f0	 mov	 eax, DWORD PTR _this$[ebp]
  00058	69 48 fc 20 0f
	00 00		 imul	 ecx, DWORD PTR [eax-4], 3872
  0005f	83 c1 04	 add	 ecx, 4
  00062	51		 push	 ecx
  00063	8b 55 f0	 mov	 edx, DWORD PTR _this$[ebp]
  00066	83 ea 04	 sub	 edx, 4
  00069	52		 push	 edx
  0006a	e8 00 00 00 00	 call	 ??_V@YAXPAXI@Z		; operator delete[]
  0006f	83 c4 08	 add	 esp, 8
$LN3@vector:
  00072	8b 45 f0	 mov	 eax, DWORD PTR _this$[ebp]
  00075	83 e8 04	 sub	 eax, 4
  00078	eb 37		 jmp	 SHORT $LN8@vector
$LN2@vector:
  0007a	8b 4d f0	 mov	 ecx, DWORD PTR _this$[ebp]
  0007d	e8 00 00 00 00	 call	 ??1CDlgServerItem@@UAE@XZ ; CDlgServerItem::~CDlgServerItem
  00082	8b 45 08	 mov	 eax, DWORD PTR ___flags$[ebp]
  00085	83 e0 01	 and	 eax, 1
  00088	74 24		 je	 SHORT $LN4@vector
  0008a	8b 45 08	 mov	 eax, DWORD PTR ___flags$[ebp]
  0008d	83 e0 04	 and	 eax, 4
  00090	75 0b		 jne	 SHORT $LN5@vector
  00092	8b 45 f0	 mov	 eax, DWORD PTR _this$[ebp]
  00095	50		 push	 eax
  00096	e8 00 00 00 00	 call	 ??3CObject@@SGXPAX@Z	; CObject::operator delete
  0009b	eb 11		 jmp	 SHORT $LN4@vector
$LN5@vector:
  0009d	68 20 0f 00 00	 push	 3872			; 00000f20H
  000a2	8b 45 f0	 mov	 eax, DWORD PTR _this$[ebp]
  000a5	50		 push	 eax
  000a6	e8 00 00 00 00	 call	 ?__global_delete@@YAXPAXI@Z ; __global_delete
  000ab	83 c4 08	 add	 esp, 8
$LN4@vector:
  000ae	8b 45 f0	 mov	 eax, DWORD PTR _this$[ebp]
$LN8@vector:
  000b1	8b 4d f4	 mov	 ecx, DWORD PTR __$EHRec$[ebp]
  000b4	64 89 0d 00 00
	00 00		 mov	 DWORD PTR fs:0, ecx
  000bb	59		 pop	 ecx
  000bc	5f		 pop	 edi
  000bd	5e		 pop	 esi
  000be	5b		 pop	 ebx
  000bf	8b e5		 mov	 esp, ebp
  000c1	5d		 pop	 ebp
  000c2	c2 04 00	 ret	 4
_TEXT	ENDS
;	COMDAT text$x
text$x	SEGMENT
__ehhandler$??_ECDlgServerItem@@UAEPAXI@Z:
  00000	8b 54 24 08	 mov	 edx, DWORD PTR [esp+8]
  00004	8d 42 0c	 lea	 eax, DWORD PTR [edx+12]
  00007	8b 4a ac	 mov	 ecx, DWORD PTR [edx-84]
  0000a	33 c8		 xor	 ecx, eax
  0000c	e8 00 00 00 00	 call	 @__security_check_cookie@4
  00011	b8 00 00 00 00	 mov	 eax, OFFSET __ehfuncinfo$??_ECDlgServerItem@@UAEPAXI@Z
  00016	e9 00 00 00 00	 jmp	 ___CxxFrameHandler3
text$x	ENDS
??_ECDlgServerItem@@UAEPAXI@Z ENDP			; CDlgServerItem::`vector deleting destructor'
; Function compile flags: /Odtp /ZI
;	COMDAT ??_GCDlgServerItem@@UAEPAXI@Z
_TEXT	SEGMENT
_this$ = -4						; size = 4
___flags$ = 8						; size = 4
??_GCDlgServerItem@@UAEPAXI@Z PROC			; CDlgServerItem::`scalar deleting destructor', COMDAT
; _this$ = ecx
  00000	55		 push	 ebp
  00001	8b ec		 mov	 ebp, esp
  00003	83 ec 44	 sub	 esp, 68			; 00000044H
  00006	53		 push	 ebx
  00007	56		 push	 esi
  00008	57		 push	 edi
  00009	89 4d fc	 mov	 DWORD PTR _this$[ebp], ecx
  0000c	8b 4d fc	 mov	 ecx, DWORD PTR _this$[ebp]
  0000f	e8 00 00 00 00	 call	 ??1CDlgServerItem@@UAE@XZ ; CDlgServerItem::~CDlgServerItem
  00014	8b 45 08	 mov	 eax, DWORD PTR ___flags$[ebp]
  00017	83 e0 01	 and	 eax, 1
  0001a	74 24		 je	 SHORT $LN2@scalar
  0001c	8b 45 08	 mov	 eax, DWORD PTR ___flags$[ebp]
  0001f	83 e0 04	 and	 eax, 4
  00022	75 0b		 jne	 SHORT $LN3@scalar
  00024	8b 45 fc	 mov	 eax, DWORD PTR _this$[ebp]
  00027	50		 push	 eax
  00028	e8 00 00 00 00	 call	 ??3CObject@@SGXPAX@Z	; CObject::operator delete
  0002d	eb 11		 jmp	 SHORT $LN2@scalar
$LN3@scalar:
  0002f	68 20 0f 00 00	 push	 3872			; 00000f20H
  00034	8b 45 fc	 mov	 eax, DWORD PTR _this$[ebp]
  00037	50		 push	 eax
  00038	e8 00 00 00 00	 call	 ?__global_delete@@YAXPAXI@Z ; __global_delete
  0003d	83 c4 08	 add	 esp, 8
$LN2@scalar:
  00040	8b 45 fc	 mov	 eax, DWORD PTR _this$[ebp]
  00043	5f		 pop	 edi
  00044	5e		 pop	 esi
  00045	5b		 pop	 ebx
  00046	8b e5		 mov	 esp, ebp
  00048	5d		 pop	 ebp
  00049	c2 04 00	 ret	 4
??_GCDlgServerItem@@UAEPAXI@Z ENDP			; CDlgServerItem::`scalar deleting destructor'
_TEXT	ENDS
; Function compile flags: /Odtp /ZI
; File g:\网狐\happygamewh\服务端\系统模块\服务器组件\模块管理\dlgserveritem.cpp
;	COMDAT ?GetMessageMap@CDlgServerItem@@MBEPBUAFX_MSGMAP@@XZ
_TEXT	SEGMENT
_this$ = -4						; size = 4
?GetMessageMap@CDlgServerItem@@MBEPBUAFX_MSGMAP@@XZ PROC ; CDlgServerItem::GetMessageMap, COMDAT
; _this$ = ecx

; 12   : BEGIN_MESSAGE_MAP(CDlgServerItem, CDialog)

  00000	55		 push	 ebp
  00001	8b ec		 mov	 ebp, esp
  00003	83 ec 44	 sub	 esp, 68			; 00000044H
  00006	53		 push	 ebx
  00007	56		 push	 esi
  00008	57		 push	 edi
  00009	89 4d fc	 mov	 DWORD PTR _this$[ebp], ecx
  0000c	e8 00 00 00 00	 call	 ?GetThisMessageMap@CDlgServerItem@@KGPBUAFX_MSGMAP@@XZ ; CDlgServerItem::GetThisMessageMap
  00011	5f		 pop	 edi
  00012	5e		 pop	 esi
  00013	5b		 pop	 ebx
  00014	8b e5		 mov	 esp, ebp
  00016	5d		 pop	 ebp
  00017	c3		 ret	 0
?GetMessageMap@CDlgServerItem@@MBEPBUAFX_MSGMAP@@XZ ENDP ; CDlgServerItem::GetMessageMap
_TEXT	ENDS
; Function compile flags: /Odtp /ZI
; File g:\网狐\happygamewh\服务端\系统模块\服务器组件\模块管理\dlgserveritem.cpp
;	COMDAT ?GetThisMessageMap@CDlgServerItem@@KGPBUAFX_MSGMAP@@XZ
_TEXT	SEGMENT
?GetThisMessageMap@CDlgServerItem@@KGPBUAFX_MSGMAP@@XZ PROC ; CDlgServerItem::GetThisMessageMap, COMDAT

; 12   : BEGIN_MESSAGE_MAP(CDlgServerItem, CDialog)

  00000	55		 push	 ebp
  00001	8b ec		 mov	 ebp, esp
  00003	83 ec 40	 sub	 esp, 64			; 00000040H
  00006	53		 push	 ebx
  00007	56		 push	 esi
  00008	57		 push	 edi

; 13   : 
; 14   : 	//按钮消息
; 15   : 	ON_BN_CLICKED(IDC_LOAD_SERVER, OnBnClickedLoadServer)
; 16   : 	ON_BN_CLICKED(IDC_RELOAD_LIST, OnBnClickedReLoadList)
; 17   : 	ON_BN_CLICKED(IDC_DELETE_SERVER, OnBnClickedDeleteServer)
; 18   : 	ON_BN_CLICKED(IDC_SERVICE_ATTRIB, OnBnClickedServiceAttrib)
; 19   : 
; 20   : 	//控件消息
; 21   : 	ON_NOTIFY(NM_DBLCLK, IDC_SERVER_LIST, OnNMDblclkServerList)
; 22   : 	ON_NOTIFY(LVN_ITEMCHANGED, IDC_SERVER_LIST, OnLvnItemChangedServerList)
; 23   : 
; 24   : END_MESSAGE_MAP()

  00009	b8 00 00 00 00	 mov	 eax, OFFSET ?messageMap@?1??GetThisMessageMap@CDlgServerItem@@KGPBUAFX_MSGMAP@@XZ@4U3@B
  0000e	5f		 pop	 edi
  0000f	5e		 pop	 esi
  00010	5b		 pop	 ebx
  00011	8b e5		 mov	 esp, ebp
  00013	5d		 pop	 ebp
  00014	c3		 ret	 0
?GetThisMessageMap@CDlgServerItem@@KGPBUAFX_MSGMAP@@XZ ENDP ; CDlgServerItem::GetThisMessageMap
_TEXT	ENDS
; Function compile flags: /Odtp /ZI
; File g:\网狐\happygamewh\服务端\系统模块\服务器组件\模块管理\dlgserveritem.cpp
;	COMDAT ?OnLvnItemChangedServerList@CDlgServerItem@@IAEXPAUtagNMHDR@@PAJ@Z
_TEXT	SEGMENT
_this$ = -4						; size = 4
_pNMHDR$ = 8						; size = 4
_pResult$ = 12						; size = 4
?OnLvnItemChangedServerList@CDlgServerItem@@IAEXPAUtagNMHDR@@PAJ@Z PROC ; CDlgServerItem::OnLvnItemChangedServerList, COMDAT
; _this$ = ecx

; 444  : {

  00000	55		 push	 ebp
  00001	8b ec		 mov	 ebp, esp
  00003	83 ec 44	 sub	 esp, 68			; 00000044H
  00006	53		 push	 ebx
  00007	56		 push	 esi
  00008	57		 push	 edi
  00009	89 4d fc	 mov	 DWORD PTR _this$[ebp], ecx

; 445  : 	//更新控制
; 446  : 	UpdateControlStatus();

  0000c	8b 4d fc	 mov	 ecx, DWORD PTR _this$[ebp]
  0000f	e8 00 00 00 00	 call	 ?UpdateControlStatus@CDlgServerItem@@IAE_NXZ ; CDlgServerItem::UpdateControlStatus

; 447  : 
; 448  : 	return;
; 449  : }

  00014	5f		 pop	 edi
  00015	5e		 pop	 esi
  00016	5b		 pop	 ebx
  00017	8b e5		 mov	 esp, ebp
  00019	5d		 pop	 ebp
  0001a	c2 08 00	 ret	 8
?OnLvnItemChangedServerList@CDlgServerItem@@IAEXPAUtagNMHDR@@PAJ@Z ENDP ; CDlgServerItem::OnLvnItemChangedServerList
_TEXT	ENDS
; Function compile flags: /Odtp /ZI
; File g:\网狐\happygamewh\服务端\系统模块\服务器组件\模块管理\dlgserveritem.cpp
;	COMDAT ?OnNMDblclkServerList@CDlgServerItem@@IAEXPAUtagNMHDR@@PAJ@Z
_TEXT	SEGMENT
_this$ = -4						; size = 4
_pNMHDR$ = 8						; size = 4
_pResult$ = 12						; size = 4
?OnNMDblclkServerList@CDlgServerItem@@IAEXPAUtagNMHDR@@PAJ@Z PROC ; CDlgServerItem::OnNMDblclkServerList, COMDAT
; _this$ = ecx

; 432  : {

  00000	55		 push	 ebp
  00001	8b ec		 mov	 ebp, esp
  00003	83 ec 44	 sub	 esp, 68			; 00000044H
  00006	53		 push	 ebx
  00007	56		 push	 esi
  00008	57		 push	 edi
  00009	89 4d fc	 mov	 DWORD PTR _this$[ebp], ecx

; 433  : 	//加载配置
; 434  : 	if (((NMITEMACTIVATE *)pNMHDR)->iItem!=LB_ERR)

  0000c	8b 45 08	 mov	 eax, DWORD PTR _pNMHDR$[ebp]
  0000f	83 78 0c ff	 cmp	 DWORD PTR [eax+12], -1
  00013	74 08		 je	 SHORT $LN1@OnNMDblclk

; 435  : 	{
; 436  : 		OnBnClickedLoadServer();

  00015	8b 4d fc	 mov	 ecx, DWORD PTR _this$[ebp]
  00018	e8 00 00 00 00	 call	 ?OnBnClickedLoadServer@CDlgServerItem@@IAEXXZ ; CDlgServerItem::OnBnClickedLoadServer
$LN1@OnNMDblclk:

; 437  : 	}
; 438  : 
; 439  : 	return;
; 440  : }

  0001d	5f		 pop	 edi
  0001e	5e		 pop	 esi
  0001f	5b		 pop	 ebx
  00020	8b e5		 mov	 esp, ebp
  00022	5d		 pop	 ebp
  00023	c2 08 00	 ret	 8
?OnNMDblclkServerList@CDlgServerItem@@IAEXPAUtagNMHDR@@PAJ@Z ENDP ; CDlgServerItem::OnNMDblclkServerList
_TEXT	ENDS
; Function compile flags: /Odtp /ZI
; File g:\网狐\happygamewh\服务端\系统模块\服务器组件\模块管理\dlgserveritem.cpp
;	COMDAT ?OnBnClickedServiceAttrib@CDlgServerItem@@IAEXXZ
_TEXT	SEGMENT
_this$ = -4						; size = 4
?OnBnClickedServiceAttrib@CDlgServerItem@@IAEXXZ PROC	; CDlgServerItem::OnBnClickedServiceAttrib, COMDAT
; _this$ = ecx

; 426  : {

  00000	55		 push	 ebp
  00001	8b ec		 mov	 ebp, esp
  00003	83 ec 44	 sub	 esp, 68			; 00000044H
  00006	53		 push	 ebx
  00007	56		 push	 esi
  00008	57		 push	 edi
  00009	89 4d fc	 mov	 DWORD PTR _this$[ebp], ecx

; 427  : 	return;
; 428  : }

  0000c	5f		 pop	 edi
  0000d	5e		 pop	 esi
  0000e	5b		 pop	 ebx
  0000f	8b e5		 mov	 esp, ebp
  00011	5d		 pop	 ebp
  00012	c3		 ret	 0
?OnBnClickedServiceAttrib@CDlgServerItem@@IAEXXZ ENDP	; CDlgServerItem::OnBnClickedServiceAttrib
_TEXT	ENDS
; Function compile flags: /Odtp /ZI
; File g:\网狐\happygamewh\服务端\系统模块\服务器组件\模块管理\dlgserveritem.cpp
;	COMDAT ?OnBnClickedDeleteServer@CDlgServerItem@@IAEXXZ
_TEXT	SEGMENT
tv189 = -472						; size = 4
_nNextItem$2 = -404					; size = 4
_nItemCount$3 = -400					; size = 4
_ServerInfoManager$4 = -396				; size = 236
_szString$5 = -160					; size = 128
_pGameServerInfo$ = -32					; size = 4
_nListItem$ = -28					; size = 4
_Position$ = -24					; size = 4
_this$ = -20						; size = 4
__$ArrayPad$ = -16					; size = 4
__$EHRec$ = -12						; size = 12
?OnBnClickedDeleteServer@CDlgServerItem@@IAEXXZ PROC	; CDlgServerItem::OnBnClickedDeleteServer, COMDAT
; _this$ = ecx

; 379  : {

  00000	55		 push	 ebp
  00001	8b ec		 mov	 ebp, esp
  00003	6a ff		 push	 -1
  00005	68 00 00 00 00	 push	 __ehhandler$?OnBnClickedDeleteServer@CDlgServerItem@@IAEXXZ
  0000a	64 a1 00 00 00
	00		 mov	 eax, DWORD PTR fs:0
  00010	50		 push	 eax
  00011	81 ec cc 01 00
	00		 sub	 esp, 460		; 000001ccH
  00017	a1 00 00 00 00	 mov	 eax, DWORD PTR ___security_cookie
  0001c	33 c5		 xor	 eax, ebp
  0001e	89 45 f0	 mov	 DWORD PTR __$ArrayPad$[ebp], eax
  00021	53		 push	 ebx
  00022	56		 push	 esi
  00023	57		 push	 edi
  00024	50		 push	 eax
  00025	8d 45 f4	 lea	 eax, DWORD PTR __$EHRec$[ebp]
  00028	64 a3 00 00 00
	00		 mov	 DWORD PTR fs:0, eax
  0002e	89 4d ec	 mov	 DWORD PTR _this$[ebp], ecx

; 380  : 	//获取选择
; 381  : 	ASSERT(m_ServerListControl.GetFirstSelectedItemPosition()!=NULL);

  00031	8b 4d ec	 mov	 ecx, DWORD PTR _this$[ebp]
  00034	81 c1 e0 00 00
	00		 add	 ecx, 224		; 000000e0H
  0003a	e8 00 00 00 00	 call	 ?GetFirstSelectedItemPosition@CListCtrl@@QBEPAU__POSITION@@XZ ; CListCtrl::GetFirstSelectedItemPosition
  0003f	85 c0		 test	 eax, eax
  00041	75 18		 jne	 SHORT $LN7@OnBnClicke
  00043	a1 00 00 00 00	 mov	 eax, DWORD PTR ?__LINE__Var@?0??OnBnClickedDeleteServer@CDlgServerItem@@IAEXXZ@4JA
  00048	83 c0 02	 add	 eax, 2
  0004b	50		 push	 eax
  0004c	68 00 00 00 00	 push	 OFFSET ??_C@_0EK@GJNFCKFC@g?3?2?M?x?$LK?$PM?2happygamewh?2?$LH?$PO?N?q?$LG?K?2?O?$LF?M?$LD@
  00051	e8 00 00 00 00	 call	 ?AfxAssertFailedLine@@YGHPBDH@Z ; AfxAssertFailedLine
  00056	85 c0		 test	 eax, eax
  00058	74 01		 je	 SHORT $LN7@OnBnClicke
  0005a	cc		 int	 3
$LN7@OnBnClicke:

; 382  : 	POSITION Position=m_ServerListControl.GetFirstSelectedItemPosition();

  0005b	8b 4d ec	 mov	 ecx, DWORD PTR _this$[ebp]
  0005e	81 c1 e0 00 00
	00		 add	 ecx, 224		; 000000e0H
  00064	e8 00 00 00 00	 call	 ?GetFirstSelectedItemPosition@CListCtrl@@QBEPAU__POSITION@@XZ ; CListCtrl::GetFirstSelectedItemPosition
  00069	89 45 e8	 mov	 DWORD PTR _Position$[ebp], eax

; 383  : 	
; 384  : 	//获取房间
; 385  : 	INT nListItem=m_ServerListControl.GetNextSelectedItem(Position);

  0006c	8d 45 e8	 lea	 eax, DWORD PTR _Position$[ebp]
  0006f	50		 push	 eax
  00070	8b 4d ec	 mov	 ecx, DWORD PTR _this$[ebp]
  00073	81 c1 e0 00 00
	00		 add	 ecx, 224		; 000000e0H
  00079	e8 00 00 00 00	 call	 ?GetNextSelectedItem@CListCtrl@@QBEHAAPAU__POSITION@@@Z ; CListCtrl::GetNextSelectedItem
  0007e	89 45 e4	 mov	 DWORD PTR _nListItem$[ebp], eax

; 386  : 	tagGameServerInfo * pGameServerInfo=(tagGameServerInfo *)m_ServerListControl.GetItemData(nListItem);

  00081	8b 45 e4	 mov	 eax, DWORD PTR _nListItem$[ebp]
  00084	50		 push	 eax
  00085	8b 4d ec	 mov	 ecx, DWORD PTR _this$[ebp]
  00088	81 c1 e0 00 00
	00		 add	 ecx, 224		; 000000e0H
  0008e	e8 00 00 00 00	 call	 ?GetItemData@CListCtrl@@QBEKH@Z ; CListCtrl::GetItemData
  00093	89 45 e0	 mov	 DWORD PTR _pGameServerInfo$[ebp], eax

; 387  : 
; 388  : 	//设置变量
; 389  : 	if (pGameServerInfo!=NULL)

  00096	83 7d e0 00	 cmp	 DWORD PTR _pGameServerInfo$[ebp], 0
  0009a	0f 84 4f 01 00
	00		 je	 $LN1@OnBnClicke

; 390  : 	{
; 391  : 		//构造提示
; 392  : 		TCHAR szString[128]=TEXT("");

  000a0	a0 00 00 00 00	 mov	 al, BYTE PTR ??_C@_00CNPNBAHC@@
  000a5	88 85 60 ff ff
	ff		 mov	 BYTE PTR _szString$5[ebp], al
  000ab	6a 7f		 push	 127			; 0000007fH
  000ad	6a 00		 push	 0
  000af	8d 85 61 ff ff
	ff		 lea	 eax, DWORD PTR _szString$5[ebp+1]
  000b5	50		 push	 eax
  000b6	e8 00 00 00 00	 call	 _memset
  000bb	83 c4 0c	 add	 esp, 12			; 0000000cH

; 393  : 		_sntprintf_s(szString,CountArray(szString),TEXT("确实要删除 [ %s ] 游戏房间吗？"),pGameServerInfo->szServerName);

  000be	8b 45 e0	 mov	 eax, DWORD PTR _pGameServerInfo$[ebp]
  000c1	05 c0 00 00 00	 add	 eax, 192		; 000000c0H
  000c6	50		 push	 eax
  000c7	68 00 00 00 00	 push	 OFFSET ??_C@_0BP@LKEPHDDJ@?H?$LH?J?$LF?R?$KK?I?$LO?$LD?$PN?5?$FL?5?$CFs?5?$FN?5?S?N?O?$LH?$LH?$LP?$LM?d?B?p?$KD?$LP@
  000cc	68 80 00 00 00	 push	 128			; 00000080H
  000d1	8d 8d 60 ff ff
	ff		 lea	 ecx, DWORD PTR _szString$5[ebp]
  000d7	51		 push	 ecx
  000d8	e8 00 00 00 00	 call	 ??$_snprintf_s@$0IA@@@YAHAAY0IA@DIPBDZZ ; _snprintf_s<128>
  000dd	83 c4 10	 add	 esp, 16			; 00000010H

; 394  : 
; 395  : 		//提示消息
; 396  : 		if (AfxMessageBox(szString,MB_ICONQUESTION|MB_YESNO)!=IDYES) return;

  000e0	6a 00		 push	 0
  000e2	6a 24		 push	 36			; 00000024H
  000e4	8d 85 60 ff ff
	ff		 lea	 eax, DWORD PTR _szString$5[ebp]
  000ea	50		 push	 eax
  000eb	e8 00 00 00 00	 call	 ?AfxMessageBox@@YGHPBDII@Z ; AfxMessageBox
  000f0	83 f8 06	 cmp	 eax, 6
  000f3	74 05		 je	 SHORT $LN3@OnBnClicke
  000f5	e9 f5 00 00 00	 jmp	 $LN1@OnBnClicke
$LN3@OnBnClicke:

; 397  : 
; 398  : 		//删除房间
; 399  : 		CServerInfoManager ServerInfoManager;

  000fa	8d 8d 74 fe ff
	ff		 lea	 ecx, DWORD PTR _ServerInfoManager$4[ebp]
  00100	e8 00 00 00 00	 call	 ??0CServerInfoManager@@QAE@XZ ; CServerInfoManager::CServerInfoManager
  00105	c7 45 fc 00 00
	00 00		 mov	 DWORD PTR __$EHRec$[ebp+8], 0

; 400  : 		if (ServerInfoManager.DeleteGameServer(pGameServerInfo->wServerID)==false) return;

  0010c	8b 45 e0	 mov	 eax, DWORD PTR _pGameServerInfo$[ebp]
  0010f	0f b7 48 02	 movzx	 ecx, WORD PTR [eax+2]
  00113	51		 push	 ecx
  00114	8d 8d 74 fe ff
	ff		 lea	 ecx, DWORD PTR _ServerInfoManager$4[ebp]
  0011a	e8 00 00 00 00	 call	 ?DeleteGameServer@CServerInfoManager@@QAE_NG@Z ; CServerInfoManager::DeleteGameServer
  0011f	0f b6 d0	 movzx	 edx, al
  00122	85 d2		 test	 edx, edx
  00124	75 17		 jne	 SHORT $LN4@OnBnClicke
  00126	c7 45 fc ff ff
	ff ff		 mov	 DWORD PTR __$EHRec$[ebp+8], -1
  0012d	8d 8d 74 fe ff
	ff		 lea	 ecx, DWORD PTR _ServerInfoManager$4[ebp]
  00133	e8 00 00 00 00	 call	 ??1CServerInfoManager@@UAE@XZ ; CServerInfoManager::~CServerInfoManager
  00138	e9 b2 00 00 00	 jmp	 $LN1@OnBnClicke
$LN4@OnBnClicke:

; 401  : 
; 402  : 		//删除列表
; 403  : 		m_ServerListControl.DeleteItem(nListItem);

  0013d	8b 45 e4	 mov	 eax, DWORD PTR _nListItem$[ebp]
  00140	50		 push	 eax
  00141	8b 4d ec	 mov	 ecx, DWORD PTR _this$[ebp]
  00144	81 c1 e0 00 00
	00		 add	 ecx, 224		; 000000e0H
  0014a	e8 00 00 00 00	 call	 ?DeleteItem@CListCtrl@@QAEHH@Z ; CListCtrl::DeleteItem

; 404  : 		m_ServerInfoBuffer.DeleteServerInfo(pGameServerInfo->wServerID);

  0014f	8b 45 e0	 mov	 eax, DWORD PTR _pGameServerInfo$[ebp]
  00152	0f b7 48 02	 movzx	 ecx, WORD PTR [eax+2]
  00156	51		 push	 ecx
  00157	8b 4d ec	 mov	 ecx, DWORD PTR _this$[ebp]
  0015a	81 c1 a8 00 00
	00		 add	 ecx, 168		; 000000a8H
  00160	e8 00 00 00 00	 call	 ?DeleteServerInfo@CServerInfoBuffer@@QAE_NG@Z ; CServerInfoBuffer::DeleteServerInfo

; 405  : 
; 406  : 		//设置列表
; 407  : 		if (m_ServerListControl.GetItemCount()>0)

  00165	8b 4d ec	 mov	 ecx, DWORD PTR _this$[ebp]
  00168	81 c1 e0 00 00
	00		 add	 ecx, 224		; 000000e0H
  0016e	e8 00 00 00 00	 call	 ?GetItemCount@CListCtrl@@QBEHXZ ; CListCtrl::GetItemCount
  00173	85 c0		 test	 eax, eax
  00175	7e 5e		 jle	 SHORT $LN5@OnBnClicke

; 408  : 		{
; 409  : 			//设置变量
; 410  : 			INT nItemCount=m_ServerListControl.GetItemCount();

  00177	8b 4d ec	 mov	 ecx, DWORD PTR _this$[ebp]
  0017a	81 c1 e0 00 00
	00		 add	 ecx, 224		; 000000e0H
  00180	e8 00 00 00 00	 call	 ?GetItemCount@CListCtrl@@QBEHXZ ; CListCtrl::GetItemCount
  00185	89 85 70 fe ff
	ff		 mov	 DWORD PTR _nItemCount$3[ebp], eax

; 411  : 			INT nNextItem=(nListItem>=nItemCount)?(nItemCount-1):nListItem;

  0018b	8b 45 e4	 mov	 eax, DWORD PTR _nListItem$[ebp]
  0018e	3b 85 70 fe ff
	ff		 cmp	 eax, DWORD PTR _nItemCount$3[ebp]
  00194	7c 11		 jl	 SHORT $LN8@OnBnClicke
  00196	8b 8d 70 fe ff
	ff		 mov	 ecx, DWORD PTR _nItemCount$3[ebp]
  0019c	83 e9 01	 sub	 ecx, 1
  0019f	89 8d 28 fe ff
	ff		 mov	 DWORD PTR tv189[ebp], ecx
  001a5	eb 09		 jmp	 SHORT $LN9@OnBnClicke
$LN8@OnBnClicke:
  001a7	8b 55 e4	 mov	 edx, DWORD PTR _nListItem$[ebp]
  001aa	89 95 28 fe ff
	ff		 mov	 DWORD PTR tv189[ebp], edx
$LN9@OnBnClicke:
  001b0	8b 85 28 fe ff
	ff		 mov	 eax, DWORD PTR tv189[ebp]
  001b6	89 85 6c fe ff
	ff		 mov	 DWORD PTR _nNextItem$2[ebp], eax

; 412  : 
; 413  : 			//设置选择
; 414  : 			m_ServerListControl.SetItemState(nNextItem,LVIS_SELECTED,LVIS_SELECTED);

  001bc	6a 02		 push	 2
  001be	6a 02		 push	 2
  001c0	8b 85 6c fe ff
	ff		 mov	 eax, DWORD PTR _nNextItem$2[ebp]
  001c6	50		 push	 eax
  001c7	8b 4d ec	 mov	 ecx, DWORD PTR _this$[ebp]
  001ca	81 c1 e0 00 00
	00		 add	 ecx, 224		; 000000e0H
  001d0	e8 00 00 00 00	 call	 ?SetItemState@CListCtrl@@QAEHHII@Z ; CListCtrl::SetItemState
$LN5@OnBnClicke:

; 415  : 		}
; 416  : 
; 417  : 		//更新控制
; 418  : 		UpdateControlStatus();

  001d5	8b 4d ec	 mov	 ecx, DWORD PTR _this$[ebp]
  001d8	e8 00 00 00 00	 call	 ?UpdateControlStatus@CDlgServerItem@@IAE_NXZ ; CDlgServerItem::UpdateControlStatus

; 419  : 	}

  001dd	c7 45 fc ff ff
	ff ff		 mov	 DWORD PTR __$EHRec$[ebp+8], -1
  001e4	8d 8d 74 fe ff
	ff		 lea	 ecx, DWORD PTR _ServerInfoManager$4[ebp]
  001ea	e8 00 00 00 00	 call	 ??1CServerInfoManager@@UAE@XZ ; CServerInfoManager::~CServerInfoManager
$LN1@OnBnClicke:

; 420  : 
; 421  : 	return;
; 422  : }

  001ef	8b 4d f4	 mov	 ecx, DWORD PTR __$EHRec$[ebp]
  001f2	64 89 0d 00 00
	00 00		 mov	 DWORD PTR fs:0, ecx
  001f9	59		 pop	 ecx
  001fa	5f		 pop	 edi
  001fb	5e		 pop	 esi
  001fc	5b		 pop	 ebx
  001fd	8b 4d f0	 mov	 ecx, DWORD PTR __$ArrayPad$[ebp]
  00200	33 cd		 xor	 ecx, ebp
  00202	e8 00 00 00 00	 call	 @__security_check_cookie@4
  00207	8b e5		 mov	 esp, ebp
  00209	5d		 pop	 ebp
  0020a	c3		 ret	 0
_TEXT	ENDS
;	COMDAT text$x
text$x	SEGMENT
__unwindfunclet$?OnBnClickedDeleteServer@CDlgServerItem@@IAEXXZ$0:
  00000	8d 8d 74 fe ff
	ff		 lea	 ecx, DWORD PTR _ServerInfoManager$4[ebp]
  00006	e9 00 00 00 00	 jmp	 ??1CServerInfoManager@@UAE@XZ ; CServerInfoManager::~CServerInfoManager
__ehhandler$?OnBnClickedDeleteServer@CDlgServerItem@@IAEXXZ:
  0000b	8b 54 24 08	 mov	 edx, DWORD PTR [esp+8]
  0000f	8d 42 0c	 lea	 eax, DWORD PTR [edx+12]
  00012	8b 8a 24 fe ff
	ff		 mov	 ecx, DWORD PTR [edx-476]
  00018	33 c8		 xor	 ecx, eax
  0001a	e8 00 00 00 00	 call	 @__security_check_cookie@4
  0001f	8b 4a fc	 mov	 ecx, DWORD PTR [edx-4]
  00022	33 c8		 xor	 ecx, eax
  00024	e8 00 00 00 00	 call	 @__security_check_cookie@4
  00029	b8 00 00 00 00	 mov	 eax, OFFSET __ehfuncinfo$?OnBnClickedDeleteServer@CDlgServerItem@@IAEXXZ
  0002e	e9 00 00 00 00	 jmp	 ___CxxFrameHandler3
text$x	ENDS
?OnBnClickedDeleteServer@CDlgServerItem@@IAEXXZ ENDP	; CDlgServerItem::OnBnClickedDeleteServer
; Function compile flags: /Odtp /ZI
; File g:\网狐\happygamewh\服务端\系统模块\服务器组件\模块管理\dlgserveritem.cpp
;	COMDAT ?OnBnClickedReLoadList@CDlgServerItem@@IAEXXZ
_TEXT	SEGMENT
_this$ = -4						; size = 4
?OnBnClickedReLoadList@CDlgServerItem@@IAEXXZ PROC	; CDlgServerItem::OnBnClickedReLoadList, COMDAT
; _this$ = ecx

; 370  : {

  00000	55		 push	 ebp
  00001	8b ec		 mov	 ebp, esp
  00003	83 ec 44	 sub	 esp, 68			; 00000044H
  00006	53		 push	 ebx
  00007	56		 push	 esi
  00008	57		 push	 edi
  00009	89 4d fc	 mov	 DWORD PTR _this$[ebp], ecx

; 371  : 	//加载列表
; 372  : 	LoadDBServerItem();

  0000c	8b 4d fc	 mov	 ecx, DWORD PTR _this$[ebp]
  0000f	e8 00 00 00 00	 call	 ?LoadDBServerItem@CDlgServerItem@@IAE_NXZ ; CDlgServerItem::LoadDBServerItem

; 373  : 
; 374  : 	return;
; 375  : }

  00014	5f		 pop	 edi
  00015	5e		 pop	 esi
  00016	5b		 pop	 ebx
  00017	8b e5		 mov	 esp, ebp
  00019	5d		 pop	 ebp
  0001a	c3		 ret	 0
?OnBnClickedReLoadList@CDlgServerItem@@IAEXXZ ENDP	; CDlgServerItem::OnBnClickedReLoadList
_TEXT	ENDS
; Function compile flags: /Odtp /ZI
; File g:\网狐\happygamewh\服务端\系统模块\服务器组件\模块管理\dlgserveritem.cpp
;	COMDAT ?OnBnClickedLoadServer@CDlgServerItem@@IAEXXZ
_TEXT	SEGMENT
_pGameServerInfo$ = -16					; size = 4
_nListItem$ = -12					; size = 4
_Position$ = -8						; size = 4
_this$ = -4						; size = 4
?OnBnClickedLoadServer@CDlgServerItem@@IAEXXZ PROC	; CDlgServerItem::OnBnClickedLoadServer, COMDAT
; _this$ = ecx

; 350  : {

  00000	55		 push	 ebp
  00001	8b ec		 mov	 ebp, esp
  00003	83 ec 50	 sub	 esp, 80			; 00000050H
  00006	53		 push	 ebx
  00007	56		 push	 esi
  00008	57		 push	 edi
  00009	89 4d fc	 mov	 DWORD PTR _this$[ebp], ecx

; 351  : 	//获取选择
; 352  : 	ASSERT(m_ServerListControl.GetFirstSelectedItemPosition()!=NULL);

  0000c	8b 4d fc	 mov	 ecx, DWORD PTR _this$[ebp]
  0000f	81 c1 e0 00 00
	00		 add	 ecx, 224		; 000000e0H
  00015	e8 00 00 00 00	 call	 ?GetFirstSelectedItemPosition@CListCtrl@@QBEPAU__POSITION@@XZ ; CListCtrl::GetFirstSelectedItemPosition
  0001a	85 c0		 test	 eax, eax
  0001c	75 18		 jne	 SHORT $LN4@OnBnClicke
  0001e	a1 00 00 00 00	 mov	 eax, DWORD PTR ?__LINE__Var@?0??OnBnClickedLoadServer@CDlgServerItem@@IAEXXZ@4JA
  00023	83 c0 02	 add	 eax, 2
  00026	50		 push	 eax
  00027	68 00 00 00 00	 push	 OFFSET ??_C@_0EK@GJNFCKFC@g?3?2?M?x?$LK?$PM?2happygamewh?2?$LH?$PO?N?q?$LG?K?2?O?$LF?M?$LD@
  0002c	e8 00 00 00 00	 call	 ?AfxAssertFailedLine@@YGHPBDH@Z ; AfxAssertFailedLine
  00031	85 c0		 test	 eax, eax
  00033	74 01		 je	 SHORT $LN4@OnBnClicke
  00035	cc		 int	 3
$LN4@OnBnClicke:

; 353  : 	POSITION Position=m_ServerListControl.GetFirstSelectedItemPosition();

  00036	8b 4d fc	 mov	 ecx, DWORD PTR _this$[ebp]
  00039	81 c1 e0 00 00
	00		 add	 ecx, 224		; 000000e0H
  0003f	e8 00 00 00 00	 call	 ?GetFirstSelectedItemPosition@CListCtrl@@QBEPAU__POSITION@@XZ ; CListCtrl::GetFirstSelectedItemPosition
  00044	89 45 f8	 mov	 DWORD PTR _Position$[ebp], eax

; 354  : 	
; 355  : 	//获取房间
; 356  : 	INT nListItem=m_ServerListControl.GetNextSelectedItem(Position);

  00047	8d 45 f8	 lea	 eax, DWORD PTR _Position$[ebp]
  0004a	50		 push	 eax
  0004b	8b 4d fc	 mov	 ecx, DWORD PTR _this$[ebp]
  0004e	81 c1 e0 00 00
	00		 add	 ecx, 224		; 000000e0H
  00054	e8 00 00 00 00	 call	 ?GetNextSelectedItem@CListCtrl@@QBEHAAPAU__POSITION@@@Z ; CListCtrl::GetNextSelectedItem
  00059	89 45 f4	 mov	 DWORD PTR _nListItem$[ebp], eax

; 357  : 	tagGameServerInfo * pGameServerInfo=(tagGameServerInfo *)m_ServerListControl.GetItemData(nListItem);

  0005c	8b 45 f4	 mov	 eax, DWORD PTR _nListItem$[ebp]
  0005f	50		 push	 eax
  00060	8b 4d fc	 mov	 ecx, DWORD PTR _this$[ebp]
  00063	81 c1 e0 00 00
	00		 add	 ecx, 224		; 000000e0H
  00069	e8 00 00 00 00	 call	 ?GetItemData@CListCtrl@@QBEKH@Z ; CListCtrl::GetItemData
  0006e	89 45 f0	 mov	 DWORD PTR _pGameServerInfo$[ebp], eax

; 358  : 
; 359  : 	//设置变量
; 360  : 	if ((pGameServerInfo!=NULL)&&(GetModuleInitParameter(pGameServerInfo,false)==true))

  00071	83 7d f0 00	 cmp	 DWORD PTR _pGameServerInfo$[ebp], 0
  00075	74 23		 je	 SHORT $LN1@OnBnClicke
  00077	6a 00		 push	 0
  00079	8b 45 f0	 mov	 eax, DWORD PTR _pGameServerInfo$[ebp]
  0007c	50		 push	 eax
  0007d	8b 4d fc	 mov	 ecx, DWORD PTR _this$[ebp]
  00080	e8 00 00 00 00	 call	 ?GetModuleInitParameter@CDlgServerItem@@IAE_NPAUtagGameServerInfo@@_N@Z ; CDlgServerItem::GetModuleInitParameter
  00085	0f b6 c8	 movzx	 ecx, al
  00088	83 f9 01	 cmp	 ecx, 1
  0008b	75 0d		 jne	 SHORT $LN1@OnBnClicke

; 361  : 	{
; 362  : 		EndDialog(IDC_LOAD_SERVER);

  0008d	68 e8 03 00 00	 push	 1000			; 000003e8H
  00092	8b 4d fc	 mov	 ecx, DWORD PTR _this$[ebp]
  00095	e8 00 00 00 00	 call	 ?EndDialog@CDialog@@QAEXH@Z ; CDialog::EndDialog
$LN1@OnBnClicke:

; 363  : 	}
; 364  : 
; 365  : 	return;
; 366  : }

  0009a	5f		 pop	 edi
  0009b	5e		 pop	 esi
  0009c	5b		 pop	 ebx
  0009d	8b e5		 mov	 esp, ebp
  0009f	5d		 pop	 ebp
  000a0	c3		 ret	 0
?OnBnClickedLoadServer@CDlgServerItem@@IAEXXZ ENDP	; CDlgServerItem::OnBnClickedLoadServer
_TEXT	ENDS
; Function compile flags: /Odtp /ZI
; File g:\网狐\happygamewh\服务端\系统模块\服务器组件\模块管理\dlgserveritem.cpp
;	COMDAT ?GetModuleInitParameter@CDlgServerItem@@IAE_NPAUtagGameServerInfo@@_N@Z
_TEXT	SEGMENT
tv195 = -1020						; size = 4
$T2 = -1016						; size = 1
$T3 = -1015						; size = 1
$T4 = -1014						; size = 1
$T5 = -1013						; size = 1
_uPersonalRuleSize$ = -884				; size = 4
_uCustomRuleSize$ = -880				; size = 4
_szString$6 = -876					; size = 128
_szString$7 = -748					; size = 128
_szString$8 = -620					; size = 128
_GameServiceManager$ = -492				; size = 472
_this$ = -20						; size = 4
__$ArrayPad$ = -16					; size = 4
__$EHRec$ = -12						; size = 12
_pGameServerInfo$ = 8					; size = 4
_bAutoMode$ = 12					; size = 1
?GetModuleInitParameter@CDlgServerItem@@IAE_NPAUtagGameServerInfo@@_N@Z PROC ; CDlgServerItem::GetModuleInitParameter, COMDAT
; _this$ = ecx

; 236  : {

  00000	55		 push	 ebp
  00001	8b ec		 mov	 ebp, esp
  00003	6a ff		 push	 -1
  00005	68 00 00 00 00	 push	 __ehhandler$?GetModuleInitParameter@CDlgServerItem@@IAE_NPAUtagGameServerInfo@@_N@Z
  0000a	64 a1 00 00 00
	00		 mov	 eax, DWORD PTR fs:0
  00010	50		 push	 eax
  00011	81 ec f0 03 00
	00		 sub	 esp, 1008		; 000003f0H
  00017	a1 00 00 00 00	 mov	 eax, DWORD PTR ___security_cookie
  0001c	33 c5		 xor	 eax, ebp
  0001e	89 45 f0	 mov	 DWORD PTR __$ArrayPad$[ebp], eax
  00021	53		 push	 ebx
  00022	56		 push	 esi
  00023	57		 push	 edi
  00024	50		 push	 eax
  00025	8d 45 f4	 lea	 eax, DWORD PTR __$EHRec$[ebp]
  00028	64 a3 00 00 00
	00		 mov	 DWORD PTR fs:0, eax
  0002e	89 4d ec	 mov	 DWORD PTR _this$[ebp], ecx

; 237  : 	//效验参数
; 238  : 	ASSERT(pGameServerInfo!=NULL);

  00031	83 7d 08 00	 cmp	 DWORD PTR _pGameServerInfo$[ebp], 0
  00035	75 18		 jne	 SHORT $LN13@GetModuleI
  00037	a1 00 00 00 00	 mov	 eax, DWORD PTR ?__LINE__Var@?0??GetModuleInitParameter@CDlgServerItem@@IAE_NPAUtagGameServerInfo@@_N@Z@4JA
  0003c	83 c0 02	 add	 eax, 2
  0003f	50		 push	 eax
  00040	68 00 00 00 00	 push	 OFFSET ??_C@_0EK@GJNFCKFC@g?3?2?M?x?$LK?$PM?2happygamewh?2?$LH?$PO?N?q?$LG?K?2?O?$LF?M?$LD@
  00045	e8 00 00 00 00	 call	 ?AfxAssertFailedLine@@YGHPBDH@Z ; AfxAssertFailedLine
  0004a	85 c0		 test	 eax, eax
  0004c	74 01		 je	 SHORT $LN13@GetModuleI
  0004e	cc		 int	 3
$LN13@GetModuleI:

; 239  : 	if (pGameServerInfo==NULL) return false;

  0004f	83 7d 08 00	 cmp	 DWORD PTR _pGameServerInfo$[ebp], 0
  00053	75 07		 jne	 SHORT $LN2@GetModuleI
  00055	32 c0		 xor	 al, al
  00057	e9 4d 05 00 00	 jmp	 $LN1@GetModuleI
$LN2@GetModuleI:

; 240  : 
; 241  : 	//游戏模块
; 242  : 	CGameServiceManagerHelper GameServiceManager;

  0005c	8d 8d 14 fe ff
	ff		 lea	 ecx, DWORD PTR _GameServiceManager$[ebp]
  00062	e8 00 00 00 00	 call	 ??0CGameServiceManagerHelper@@QAE@XZ ; CGameServiceManagerHelper::CGameServiceManagerHelper
  00067	c7 45 fc 00 00
	00 00		 mov	 DWORD PTR __$EHRec$[ebp+8], 0

; 243  : 	GameServiceManager.SetModuleCreateInfo(pGameServerInfo->szServerDLLName,GAME_SERVICE_CREATE_NAME);

  0006e	68 00 00 00 00	 push	 OFFSET ??_C@_0BJ@EBOMCPGB@CreateGameServiceManager@
  00073	8b 45 08	 mov	 eax, DWORD PTR _pGameServerInfo$[ebp]
  00076	83 c0 38	 add	 eax, 56			; 00000038H
  00079	50		 push	 eax
  0007a	8d 8d 14 fe ff
	ff		 lea	 ecx, DWORD PTR _GameServiceManager$[ebp]
  00080	e8 00 00 00 00	 call	 ?SetModuleCreateInfo@?$CTempldateHelper@UIGameServiceManager@@@@QAEXPBD0@Z ; CTempldateHelper<IGameServiceManager>::SetModuleCreateInfo

; 244  : 
; 245  : 	//创建判断
; 246  : 	if (pGameServerInfo->dwNativeVersion==0)

  00085	8b 45 08	 mov	 eax, DWORD PTR _pGameServerInfo$[ebp]
  00088	83 78 14 00	 cmp	 DWORD PTR [eax+20], 0
  0008c	0f 85 8f 00 00
	00		 jne	 $LN3@GetModuleI

; 247  : 	{
; 248  : 		//构造提示
; 249  : 		TCHAR szString[128]=TEXT("");

  00092	a0 00 00 00 00	 mov	 al, BYTE PTR ??_C@_00CNPNBAHC@@
  00097	88 85 94 fd ff
	ff		 mov	 BYTE PTR _szString$8[ebp], al
  0009d	6a 7f		 push	 127			; 0000007fH
  0009f	6a 00		 push	 0
  000a1	8d 85 95 fd ff
	ff		 lea	 eax, DWORD PTR _szString$8[ebp+1]
  000a7	50		 push	 eax
  000a8	e8 00 00 00 00	 call	 _memset
  000ad	83 c4 0c	 add	 esp, 12			; 0000000cH

; 250  : 		_sntprintf_s(szString,CountArray(szString),TEXT("[ %s ] 游戏服务器组件还没有安装，请先安装对应的游戏服务器"),pGameServerInfo->szGameName);

  000b0	8b 45 08	 mov	 eax, DWORD PTR _pGameServerInfo$[ebp]
  000b3	83 c0 18	 add	 eax, 24			; 00000018H
  000b6	50		 push	 eax
  000b7	68 00 00 00 00	 push	 OFFSET ??_C@_0DK@CNBCCAKH@?$FL?5?$CFs?5?$FN?5?S?N?O?$LH?$LH?$PO?N?q?F?w?W?i?$LM?$PO?$LL?$LJ?C?$LL?S?P?$LA?$LC?W?$LA@
  000bc	68 80 00 00 00	 push	 128			; 00000080H
  000c1	8d 8d 94 fd ff
	ff		 lea	 ecx, DWORD PTR _szString$8[ebp]
  000c7	51		 push	 ecx
  000c8	e8 00 00 00 00	 call	 ??$_snprintf_s@$0IA@@@YAHAAY0IA@DIPBDZZ ; _snprintf_s<128>
  000cd	83 c4 10	 add	 esp, 16			; 00000010H

; 251  : 
; 252  : 		//提示消息
; 253  : 		if (bAutoMode==true) CTraceService::TraceString(szString,TraceLevel_Exception);

  000d0	0f b6 45 0c	 movzx	 eax, BYTE PTR _bAutoMode$[ebp]
  000d4	83 f8 01	 cmp	 eax, 1
  000d7	75 14		 jne	 SHORT $LN4@GetModuleI
  000d9	6a 03		 push	 3
  000db	8d 85 94 fd ff
	ff		 lea	 eax, DWORD PTR _szString$8[ebp]
  000e1	50		 push	 eax
  000e2	ff 15 00 00 00
	00		 call	 DWORD PTR __imp_?TraceString@CTraceService@@SA_NPBDW4enTraceLevel@@@Z
  000e8	83 c4 08	 add	 esp, 8
  000eb	eb 10		 jmp	 SHORT $LN5@GetModuleI
$LN4@GetModuleI:

; 254  : 		else AfxMessageBox(szString,MB_ICONERROR);

  000ed	6a 00		 push	 0
  000ef	6a 10		 push	 16			; 00000010H
  000f1	8d 85 94 fd ff
	ff		 lea	 eax, DWORD PTR _szString$8[ebp]
  000f7	50		 push	 eax
  000f8	e8 00 00 00 00	 call	 ?AfxMessageBox@@YGHPBDII@Z ; AfxMessageBox
$LN5@GetModuleI:

; 255  : 
; 256  : 		return false;

  000fd	c6 85 0b fc ff
	ff 00		 mov	 BYTE PTR $T5[ebp], 0
  00104	c7 45 fc ff ff
	ff ff		 mov	 DWORD PTR __$EHRec$[ebp+8], -1
  0010b	8d 8d 14 fe ff
	ff		 lea	 ecx, DWORD PTR _GameServiceManager$[ebp]
  00111	e8 00 00 00 00	 call	 ??1CGameServiceManagerHelper@@UAE@XZ
  00116	8a 85 0b fc ff
	ff		 mov	 al, BYTE PTR $T5[ebp]
  0011c	e9 88 04 00 00	 jmp	 $LN1@GetModuleI
$LN3@GetModuleI:

; 257  : 	}
; 258  : 
; 259  : 	//更新判断
; 260  : 	if (pGameServerInfo->dwNativeVersion!=pGameServerInfo->dwServerVersion)

  00121	8b 45 08	 mov	 eax, DWORD PTR _pGameServerInfo$[ebp]
  00124	8b 4d 08	 mov	 ecx, DWORD PTR _pGameServerInfo$[ebp]
  00127	8b 50 14	 mov	 edx, DWORD PTR [eax+20]
  0012a	3b 51 10	 cmp	 edx, DWORD PTR [ecx+16]
  0012d	0f 84 8f 00 00
	00		 je	 $LN6@GetModuleI

; 261  : 	{
; 262  : 		//构造提示
; 263  : 		TCHAR szString[128]=TEXT("");

  00133	a0 00 00 00 00	 mov	 al, BYTE PTR ??_C@_00CNPNBAHC@@
  00138	88 85 14 fd ff
	ff		 mov	 BYTE PTR _szString$7[ebp], al
  0013e	6a 7f		 push	 127			; 0000007fH
  00140	6a 00		 push	 0
  00142	8d 85 15 fd ff
	ff		 lea	 eax, DWORD PTR _szString$7[ebp+1]
  00148	50		 push	 eax
  00149	e8 00 00 00 00	 call	 _memset
  0014e	83 c4 0c	 add	 esp, 12			; 0000000cH

; 264  : 		_sntprintf_s(szString,CountArray(szString),TEXT("[ %s ] 游戏服务器组件已经更新了，不能继续用于启动房间"),pGameServerInfo->szGameName);

  00151	8b 45 08	 mov	 eax, DWORD PTR _pGameServerInfo$[ebp]
  00154	83 c0 18	 add	 eax, 24			; 00000018H
  00157	50		 push	 eax
  00158	68 00 00 00 00	 push	 OFFSET ??_C@_0DG@OJJHENMN@?$FL?5?$CFs?5?$FN?5?S?N?O?$LH?$LH?$PO?N?q?F?w?W?i?$LM?$PO?R?Q?$LO?$KN?$LI?$PM?P?B?A?K@
  0015d	68 80 00 00 00	 push	 128			; 00000080H
  00162	8d 8d 14 fd ff
	ff		 lea	 ecx, DWORD PTR _szString$7[ebp]
  00168	51		 push	 ecx
  00169	e8 00 00 00 00	 call	 ??$_snprintf_s@$0IA@@@YAHAAY0IA@DIPBDZZ ; _snprintf_s<128>
  0016e	83 c4 10	 add	 esp, 16			; 00000010H

; 265  : 
; 266  : 		//提示消息
; 267  : 		if (bAutoMode==true) CTraceService::TraceString(szString,TraceLevel_Exception);

  00171	0f b6 45 0c	 movzx	 eax, BYTE PTR _bAutoMode$[ebp]
  00175	83 f8 01	 cmp	 eax, 1
  00178	75 14		 jne	 SHORT $LN7@GetModuleI
  0017a	6a 03		 push	 3
  0017c	8d 85 14 fd ff
	ff		 lea	 eax, DWORD PTR _szString$7[ebp]
  00182	50		 push	 eax
  00183	ff 15 00 00 00
	00		 call	 DWORD PTR __imp_?TraceString@CTraceService@@SA_NPBDW4enTraceLevel@@@Z
  00189	83 c4 08	 add	 esp, 8
  0018c	eb 10		 jmp	 SHORT $LN8@GetModuleI
$LN7@GetModuleI:

; 268  : 		else AfxMessageBox(szString,MB_ICONERROR);

  0018e	6a 00		 push	 0
  00190	6a 10		 push	 16			; 00000010H
  00192	8d 85 14 fd ff
	ff		 lea	 eax, DWORD PTR _szString$7[ebp]
  00198	50		 push	 eax
  00199	e8 00 00 00 00	 call	 ?AfxMessageBox@@YGHPBDII@Z ; AfxMessageBox
$LN8@GetModuleI:

; 269  : 
; 270  : 		return false;

  0019e	c6 85 0a fc ff
	ff 00		 mov	 BYTE PTR $T4[ebp], 0
  001a5	c7 45 fc ff ff
	ff ff		 mov	 DWORD PTR __$EHRec$[ebp+8], -1
  001ac	8d 8d 14 fe ff
	ff		 lea	 ecx, DWORD PTR _GameServiceManager$[ebp]
  001b2	e8 00 00 00 00	 call	 ??1CGameServiceManagerHelper@@UAE@XZ
  001b7	8a 85 0a fc ff
	ff		 mov	 al, BYTE PTR $T4[ebp]
  001bd	e9 e7 03 00 00	 jmp	 $LN1@GetModuleI
$LN6@GetModuleI:

; 271  : 	}
; 272  : 
; 273  : 	//加载模块
; 274  : 	if (GameServiceManager.CreateInstance()==false)

  001c2	8d 8d 14 fe ff
	ff		 lea	 ecx, DWORD PTR _GameServiceManager$[ebp]
  001c8	e8 00 00 00 00	 call	 ?CreateInstance@?$CTempldateHelper@UIGameServiceManager@@@@QAE_NXZ ; CTempldateHelper<IGameServiceManager>::CreateInstance
  001cd	0f b6 c0	 movzx	 eax, al
  001d0	85 c0		 test	 eax, eax
  001d2	0f 85 8f 00 00
	00		 jne	 $LN9@GetModuleI

; 275  : 	{
; 276  : 		//构造提示
; 277  : 		TCHAR szString[128]=TEXT("");

  001d8	a0 00 00 00 00	 mov	 al, BYTE PTR ??_C@_00CNPNBAHC@@
  001dd	88 85 94 fc ff
	ff		 mov	 BYTE PTR _szString$6[ebp], al
  001e3	6a 7f		 push	 127			; 0000007fH
  001e5	6a 00		 push	 0
  001e7	8d 85 95 fc ff
	ff		 lea	 eax, DWORD PTR _szString$6[ebp+1]
  001ed	50		 push	 eax
  001ee	e8 00 00 00 00	 call	 _memset
  001f3	83 c4 0c	 add	 esp, 12			; 0000000cH

; 278  : 		_sntprintf_s(szString,CountArray(szString),TEXT("[ %s ] 服务组件不存在或者加载失败，请重新安装服务组件"),pGameServerInfo->szGameName);

  001f6	8b 45 08	 mov	 eax, DWORD PTR _pGameServerInfo$[ebp]
  001f9	83 c0 18	 add	 eax, 24			; 00000018H
  001fc	50		 push	 eax
  001fd	68 00 00 00 00	 push	 OFFSET ??_C@_0DG@FBCPCCNK@?$FL?5?$CFs?5?$FN?5?$LH?$PO?N?q?W?i?$LM?$PO?$LC?$LL?$LE?f?T?Z?$LL?r?U?$NP?$LM?S?T?X?J?$KH@
  00202	68 80 00 00 00	 push	 128			; 00000080H
  00207	8d 8d 94 fc ff
	ff		 lea	 ecx, DWORD PTR _szString$6[ebp]
  0020d	51		 push	 ecx
  0020e	e8 00 00 00 00	 call	 ??$_snprintf_s@$0IA@@@YAHAAY0IA@DIPBDZZ ; _snprintf_s<128>
  00213	83 c4 10	 add	 esp, 16			; 00000010H

; 279  : 
; 280  : 		//提示消息
; 281  : 		if (bAutoMode==true) CTraceService::TraceString(szString,TraceLevel_Exception);

  00216	0f b6 45 0c	 movzx	 eax, BYTE PTR _bAutoMode$[ebp]
  0021a	83 f8 01	 cmp	 eax, 1
  0021d	75 14		 jne	 SHORT $LN10@GetModuleI
  0021f	6a 03		 push	 3
  00221	8d 85 94 fc ff
	ff		 lea	 eax, DWORD PTR _szString$6[ebp]
  00227	50		 push	 eax
  00228	ff 15 00 00 00
	00		 call	 DWORD PTR __imp_?TraceString@CTraceService@@SA_NPBDW4enTraceLevel@@@Z
  0022e	83 c4 08	 add	 esp, 8
  00231	eb 10		 jmp	 SHORT $LN11@GetModuleI
$LN10@GetModuleI:

; 282  : 		else AfxMessageBox(szString,MB_ICONERROR);

  00233	6a 00		 push	 0
  00235	6a 10		 push	 16			; 00000010H
  00237	8d 85 94 fc ff
	ff		 lea	 eax, DWORD PTR _szString$6[ebp]
  0023d	50		 push	 eax
  0023e	e8 00 00 00 00	 call	 ?AfxMessageBox@@YGHPBDII@Z ; AfxMessageBox
$LN11@GetModuleI:

; 283  : 
; 284  : 		return false;

  00243	c6 85 09 fc ff
	ff 00		 mov	 BYTE PTR $T3[ebp], 0
  0024a	c7 45 fc ff ff
	ff ff		 mov	 DWORD PTR __$EHRec$[ebp+8], -1
  00251	8d 8d 14 fe ff
	ff		 lea	 ecx, DWORD PTR _GameServiceManager$[ebp]
  00257	e8 00 00 00 00	 call	 ??1CGameServiceManagerHelper@@UAE@XZ
  0025c	8a 85 09 fc ff
	ff		 mov	 al, BYTE PTR $T3[ebp]
  00262	e9 42 03 00 00	 jmp	 $LN1@GetModuleI
$LN9@GetModuleI:

; 285  : 	}
; 286  : 
; 287  : 	//模块属性
; 288  : 	GameServiceManager->GetServiceAttrib(m_ModuleInitParameter.GameServiceAttrib);

  00267	8d 8d 14 fe ff
	ff		 lea	 ecx, DWORD PTR _GameServiceManager$[ebp]
  0026d	e8 00 00 00 00	 call	 ??C?$CTempldateHelper@UIGameServiceManager@@@@QBEPAUIGameServiceManager@@XZ ; CTempldateHelper<IGameServiceManager>::operator->
  00272	89 85 04 fc ff
	ff		 mov	 DWORD PTR tv195[ebp], eax
  00278	8b 45 ec	 mov	 eax, DWORD PTR _this$[ebp]
  0027b	05 e8 01 00 00	 add	 eax, 488		; 000001e8H
  00280	50		 push	 eax
  00281	8b 8d 04 fc ff
	ff		 mov	 ecx, DWORD PTR tv195[ebp]
  00287	8b 11		 mov	 edx, DWORD PTR [ecx]
  00289	8b 8d 04 fc ff
	ff		 mov	 ecx, DWORD PTR tv195[ebp]
  0028f	8b 42 14	 mov	 eax, DWORD PTR [edx+20]
  00292	ff d0		 call	 eax

; 289  : 
; 290  : 	//挂接属性
; 291  : 	m_ModuleInitParameter.GameServiceOption.wKindID=pGameServerInfo->wKindID;

  00294	8b 45 ec	 mov	 eax, DWORD PTR _this$[ebp]
  00297	8b 4d 08	 mov	 ecx, DWORD PTR _pGameServerInfo$[ebp]
  0029a	66 8b 51 04	 mov	 dx, WORD PTR [ecx+4]
  0029e	66 89 90 80 02
	00 00		 mov	 WORD PTR [eax+640], dx

; 292  : 	m_ModuleInitParameter.GameServiceOption.wNodeID=pGameServerInfo->wNodeID;

  002a5	8b 45 ec	 mov	 eax, DWORD PTR _this$[ebp]
  002a8	8b 4d 08	 mov	 ecx, DWORD PTR _pGameServerInfo$[ebp]
  002ab	66 8b 51 06	 mov	 dx, WORD PTR [ecx+6]
  002af	66 89 90 82 02
	00 00		 mov	 WORD PTR [eax+642], dx

; 293  : 	m_ModuleInitParameter.GameServiceOption.wSortID=pGameServerInfo->wSortID;

  002b6	8b 45 ec	 mov	 eax, DWORD PTR _this$[ebp]
  002b9	8b 4d 08	 mov	 ecx, DWORD PTR _pGameServerInfo$[ebp]
  002bc	66 8b 51 08	 mov	 dx, WORD PTR [ecx+8]
  002c0	66 89 90 84 02
	00 00		 mov	 WORD PTR [eax+644], dx

; 294  : 	m_ModuleInitParameter.GameServiceOption.wServerID=pGameServerInfo->wServerID;

  002c7	8b 45 ec	 mov	 eax, DWORD PTR _this$[ebp]
  002ca	8b 4d 08	 mov	 ecx, DWORD PTR _pGameServerInfo$[ebp]
  002cd	66 8b 51 02	 mov	 dx, WORD PTR [ecx+2]
  002d1	66 89 90 86 02
	00 00		 mov	 WORD PTR [eax+646], dx

; 295  : 
; 296  : 	//税收配置
; 297  : 	m_ModuleInitParameter.GameServiceOption.lCellScore=pGameServerInfo->lCellScore;

  002d8	8b 45 ec	 mov	 eax, DWORD PTR _this$[ebp]
  002db	8b 4d 08	 mov	 ecx, DWORD PTR _pGameServerInfo$[ebp]
  002de	8b 51 78	 mov	 edx, DWORD PTR [ecx+120]
  002e1	89 90 88 02 00
	00		 mov	 DWORD PTR [eax+648], edx

; 298  : 	m_ModuleInitParameter.GameServiceOption.wRevenueRatio=pGameServerInfo->wRevenueRatio;

  002e7	8b 45 ec	 mov	 eax, DWORD PTR _this$[ebp]
  002ea	8b 4d 08	 mov	 ecx, DWORD PTR _pGameServerInfo$[ebp]
  002ed	66 8b 51 7c	 mov	 dx, WORD PTR [ecx+124]
  002f1	66 89 90 8c 02
	00 00		 mov	 WORD PTR [eax+652], dx

; 299  : 	m_ModuleInitParameter.GameServiceOption.lServiceScore=pGameServerInfo->lServiceScore;

  002f8	8b 45 ec	 mov	 eax, DWORD PTR _this$[ebp]
  002fb	8b 4d 08	 mov	 ecx, DWORD PTR _pGameServerInfo$[ebp]
  002fe	8b 91 80 00 00
	00		 mov	 edx, DWORD PTR [ecx+128]
  00304	89 90 90 02 00
	00		 mov	 DWORD PTR [eax+656], edx
  0030a	8b 89 84 00 00
	00		 mov	 ecx, DWORD PTR [ecx+132]
  00310	89 88 94 02 00
	00		 mov	 DWORD PTR [eax+660], ecx

; 300  : 
; 301  : 	//房间配置
; 302  : 	m_ModuleInitParameter.GameServiceOption.lRestrictScore=pGameServerInfo->lRestrictScore;

  00316	8b 45 ec	 mov	 eax, DWORD PTR _this$[ebp]
  00319	8b 4d 08	 mov	 ecx, DWORD PTR _pGameServerInfo$[ebp]
  0031c	8b 91 88 00 00
	00		 mov	 edx, DWORD PTR [ecx+136]
  00322	89 90 98 02 00
	00		 mov	 DWORD PTR [eax+664], edx
  00328	8b 89 8c 00 00
	00		 mov	 ecx, DWORD PTR [ecx+140]
  0032e	89 88 9c 02 00
	00		 mov	 DWORD PTR [eax+668], ecx

; 303  : 	m_ModuleInitParameter.GameServiceOption.lMinTableScore=pGameServerInfo->lMinTableScore;

  00334	8b 45 ec	 mov	 eax, DWORD PTR _this$[ebp]
  00337	8b 4d 08	 mov	 ecx, DWORD PTR _pGameServerInfo$[ebp]
  0033a	8b 91 90 00 00
	00		 mov	 edx, DWORD PTR [ecx+144]
  00340	89 90 a0 02 00
	00		 mov	 DWORD PTR [eax+672], edx
  00346	8b 89 94 00 00
	00		 mov	 ecx, DWORD PTR [ecx+148]
  0034c	89 88 a4 02 00
	00		 mov	 DWORD PTR [eax+676], ecx

; 304  : 	m_ModuleInitParameter.GameServiceOption.lMinEnterScore=pGameServerInfo->lMinEnterScore;

  00352	8b 45 ec	 mov	 eax, DWORD PTR _this$[ebp]
  00355	8b 4d 08	 mov	 ecx, DWORD PTR _pGameServerInfo$[ebp]
  00358	8b 91 98 00 00
	00		 mov	 edx, DWORD PTR [ecx+152]
  0035e	89 90 a8 02 00
	00		 mov	 DWORD PTR [eax+680], edx
  00364	8b 89 9c 00 00
	00		 mov	 ecx, DWORD PTR [ecx+156]
  0036a	89 88 ac 02 00
	00		 mov	 DWORD PTR [eax+684], ecx

; 305  : 	m_ModuleInitParameter.GameServiceOption.lMaxEnterScore=pGameServerInfo->lMaxEnterScore;

  00370	8b 45 ec	 mov	 eax, DWORD PTR _this$[ebp]
  00373	8b 4d 08	 mov	 ecx, DWORD PTR _pGameServerInfo$[ebp]
  00376	8b 91 a0 00 00
	00		 mov	 edx, DWORD PTR [ecx+160]
  0037c	89 90 b0 02 00
	00		 mov	 DWORD PTR [eax+688], edx
  00382	8b 89 a4 00 00
	00		 mov	 ecx, DWORD PTR [ecx+164]
  00388	89 88 b4 02 00
	00		 mov	 DWORD PTR [eax+692], ecx

; 306  : 
; 307  : 	//会员限制
; 308  : 	m_ModuleInitParameter.GameServiceOption.cbMinEnterMember=pGameServerInfo->cbMinEnterMember;

  0038e	8b 45 ec	 mov	 eax, DWORD PTR _this$[ebp]
  00391	8b 4d 08	 mov	 ecx, DWORD PTR _pGameServerInfo$[ebp]
  00394	8a 91 a8 00 00
	00		 mov	 dl, BYTE PTR [ecx+168]
  0039a	88 90 b8 02 00
	00		 mov	 BYTE PTR [eax+696], dl

; 309  : 	m_ModuleInitParameter.GameServiceOption.cbMaxEnterMember=pGameServerInfo->cbMaxEnterMember;

  003a0	8b 45 ec	 mov	 eax, DWORD PTR _this$[ebp]
  003a3	8b 4d 08	 mov	 ecx, DWORD PTR _pGameServerInfo$[ebp]
  003a6	8a 91 a9 00 00
	00		 mov	 dl, BYTE PTR [ecx+169]
  003ac	88 90 b9 02 00
	00		 mov	 BYTE PTR [eax+697], dl

; 310  : 
; 311  : 	//房间配置
; 312  : 	m_ModuleInitParameter.GameServiceOption.dwServerRule=pGameServerInfo->dwServerRule;

  003b2	8b 45 ec	 mov	 eax, DWORD PTR _this$[ebp]
  003b5	8b 4d 08	 mov	 ecx, DWORD PTR _pGameServerInfo$[ebp]
  003b8	8b 91 ac 00 00
	00		 mov	 edx, DWORD PTR [ecx+172]
  003be	89 90 bc 02 00
	00		 mov	 DWORD PTR [eax+700], edx

; 313  : 	m_ModuleInitParameter.GameServiceOption.dwAttachUserRight=pGameServerInfo->dwAttachUserRight;

  003c4	8b 45 ec	 mov	 eax, DWORD PTR _this$[ebp]
  003c7	8b 4d 08	 mov	 ecx, DWORD PTR _pGameServerInfo$[ebp]
  003ca	8b 91 b0 00 00
	00		 mov	 edx, DWORD PTR [ecx+176]
  003d0	89 90 c0 02 00
	00		 mov	 DWORD PTR [eax+704], edx

; 314  : 
; 315  : 	//房间属性
; 316  : 	m_ModuleInitParameter.GameServiceOption.wMaxPlayer=pGameServerInfo->wMaxPlayer;

  003d6	8b 45 ec	 mov	 eax, DWORD PTR _this$[ebp]
  003d9	8b 4d 08	 mov	 ecx, DWORD PTR _pGameServerInfo$[ebp]
  003dc	66 8b 91 b4 00
	00 00		 mov	 dx, WORD PTR [ecx+180]
  003e3	66 89 90 c4 02
	00 00		 mov	 WORD PTR [eax+708], dx

; 317  : 	m_ModuleInitParameter.GameServiceOption.wTableCount=pGameServerInfo->wTableCount;

  003ea	8b 45 ec	 mov	 eax, DWORD PTR _this$[ebp]
  003ed	8b 4d 08	 mov	 ecx, DWORD PTR _pGameServerInfo$[ebp]
  003f0	66 8b 91 b6 00
	00 00		 mov	 dx, WORD PTR [ecx+182]
  003f7	66 89 90 c6 02
	00 00		 mov	 WORD PTR [eax+710], dx

; 318  : 	m_ModuleInitParameter.GameServiceOption.wServerPort=pGameServerInfo->wServerPort;

  003fe	8b 45 ec	 mov	 eax, DWORD PTR _this$[ebp]
  00401	8b 4d 08	 mov	 ecx, DWORD PTR _pGameServerInfo$[ebp]
  00404	66 8b 91 b8 00
	00 00		 mov	 dx, WORD PTR [ecx+184]
  0040b	66 89 90 c8 02
	00 00		 mov	 WORD PTR [eax+712], dx

; 319  : 	m_ModuleInitParameter.GameServiceOption.wServerKind=pGameServerInfo->wServerKind;

  00412	8b 45 ec	 mov	 eax, DWORD PTR _this$[ebp]
  00415	8b 4d 08	 mov	 ecx, DWORD PTR _pGameServerInfo$[ebp]
  00418	66 8b 91 ba 00
	00 00		 mov	 dx, WORD PTR [ecx+186]
  0041f	66 89 90 ca 02
	00 00		 mov	 WORD PTR [eax+714], dx

; 320  : 	m_ModuleInitParameter.GameServiceOption.wServerType=pGameServerInfo->wServerType;

  00426	8b 45 ec	 mov	 eax, DWORD PTR _this$[ebp]
  00429	8b 4d 08	 mov	 ecx, DWORD PTR _pGameServerInfo$[ebp]
  0042c	66 8b 91 bc 00
	00 00		 mov	 dx, WORD PTR [ecx+188]
  00433	66 89 90 cc 02
	00 00		 mov	 WORD PTR [eax+716], dx

; 321  : 	m_ModuleInitParameter.GameServiceOption.wServerLevel=pGameServerInfo->wServerLevel;

  0043a	8b 45 ec	 mov	 eax, DWORD PTR _this$[ebp]
  0043d	8b 4d 08	 mov	 ecx, DWORD PTR _pGameServerInfo$[ebp]
  00440	66 8b 91 be 00
	00 00		 mov	 dx, WORD PTR [ecx+190]
  00447	66 89 90 ce 02
	00 00		 mov	 WORD PTR [eax+718], dx

; 322  : 	lstrcpyn(m_ModuleInitParameter.GameServiceOption.szServerName,pGameServerInfo->szServerName,LEN_SERVER);

  0044e	6a 20		 push	 32			; 00000020H
  00450	8b 45 08	 mov	 eax, DWORD PTR _pGameServerInfo$[ebp]
  00453	05 c0 00 00 00	 add	 eax, 192		; 000000c0H
  00458	50		 push	 eax
  00459	8b 4d ec	 mov	 ecx, DWORD PTR _this$[ebp]
  0045c	81 c1 d0 02 00
	00		 add	 ecx, 720		; 000002d0H
  00462	51		 push	 ecx
  00463	ff 15 00 00 00
	00		 call	 DWORD PTR __imp__lstrcpynA@12

; 323  : 	lstrcpyn(m_ModuleInitParameter.GameServiceOption.szServerPasswd,pGameServerInfo->szServerPasswd,LEN_PASSWORD);

  00469	6a 21		 push	 33			; 00000021H
  0046b	8b 45 08	 mov	 eax, DWORD PTR _pGameServerInfo$[ebp]
  0046e	05 e0 00 00 00	 add	 eax, 224		; 000000e0H
  00473	50		 push	 eax
  00474	8b 4d ec	 mov	 ecx, DWORD PTR _this$[ebp]
  00477	81 c1 f0 02 00
	00		 add	 ecx, 752		; 000002f0H
  0047d	51		 push	 ecx
  0047e	ff 15 00 00 00
	00		 call	 DWORD PTR __imp__lstrcpynA@12

; 324  : 
; 325  : 	//分组属性
; 326  : 	m_ModuleInitParameter.GameServiceOption.cbDistributeRule=pGameServerInfo->cbDistributeRule;

  00484	8b 45 ec	 mov	 eax, DWORD PTR _this$[ebp]
  00487	8b 4d 08	 mov	 ecx, DWORD PTR _pGameServerInfo$[ebp]
  0048a	8a 91 01 01 00
	00		 mov	 dl, BYTE PTR [ecx+257]
  00490	88 90 11 03 00
	00		 mov	 BYTE PTR [eax+785], dl

; 327  : 	m_ModuleInitParameter.GameServiceOption.wMinDistributeUser=pGameServerInfo->wMinDistributeUser;

  00496	8b 45 ec	 mov	 eax, DWORD PTR _this$[ebp]
  00499	8b 4d 08	 mov	 ecx, DWORD PTR _pGameServerInfo$[ebp]
  0049c	66 8b 91 02 01
	00 00		 mov	 dx, WORD PTR [ecx+258]
  004a3	66 89 90 12 03
	00 00		 mov	 WORD PTR [eax+786], dx

; 328  : 	m_ModuleInitParameter.GameServiceOption.wDistributeTimeSpace=pGameServerInfo->wDistributeTimeSpace;

  004aa	8b 45 ec	 mov	 eax, DWORD PTR _this$[ebp]
  004ad	8b 4d 08	 mov	 ecx, DWORD PTR _pGameServerInfo$[ebp]
  004b0	66 8b 91 04 01
	00 00		 mov	 dx, WORD PTR [ecx+260]
  004b7	66 89 90 14 03
	00 00		 mov	 WORD PTR [eax+788], dx

; 329  : 	m_ModuleInitParameter.GameServiceOption.wDistributeDrawCount=pGameServerInfo->wDistributeDrawCount;

  004be	8b 45 ec	 mov	 eax, DWORD PTR _this$[ebp]
  004c1	8b 4d 08	 mov	 ecx, DWORD PTR _pGameServerInfo$[ebp]
  004c4	66 8b 91 06 01
	00 00		 mov	 dx, WORD PTR [ecx+262]
  004cb	66 89 90 16 03
	00 00		 mov	 WORD PTR [eax+790], dx

; 330  : 	m_ModuleInitParameter.GameServiceOption.wMinPartakeGameUser=pGameServerInfo->wMinPartakeGameUser;

  004d2	8b 45 ec	 mov	 eax, DWORD PTR _this$[ebp]
  004d5	8b 4d 08	 mov	 ecx, DWORD PTR _pGameServerInfo$[ebp]
  004d8	66 8b 91 08 01
	00 00		 mov	 dx, WORD PTR [ecx+264]
  004df	66 89 90 18 03
	00 00		 mov	 WORD PTR [eax+792], dx

; 331  : 	m_ModuleInitParameter.GameServiceOption.wMaxPartakeGameUser=pGameServerInfo->wMaxPartakeGameUser;

  004e6	8b 45 ec	 mov	 eax, DWORD PTR _this$[ebp]
  004e9	8b 4d 08	 mov	 ecx, DWORD PTR _pGameServerInfo$[ebp]
  004ec	66 8b 91 0a 01
	00 00		 mov	 dx, WORD PTR [ecx+266]
  004f3	66 89 90 1a 03
	00 00		 mov	 WORD PTR [eax+794], dx

; 332  : 
; 333  : 	//连接信息
; 334  : 	lstrcpyn(m_ModuleInitParameter.GameServiceOption.szDataBaseName,pGameServerInfo->szDataBaseName,CountArray(m_ModuleInitParameter.GameServiceOption.szDataBaseName));

  004fa	6a 20		 push	 32			; 00000020H
  004fc	8b 45 08	 mov	 eax, DWORD PTR _pGameServerInfo$[ebp]
  004ff	05 0c 01 00 00	 add	 eax, 268		; 0000010cH
  00504	50		 push	 eax
  00505	8b 4d ec	 mov	 ecx, DWORD PTR _this$[ebp]
  00508	81 c1 2c 03 00
	00		 add	 ecx, 812		; 0000032cH
  0050e	51		 push	 ecx
  0050f	ff 15 00 00 00
	00		 call	 DWORD PTR __imp__lstrcpynA@12

; 335  : 	lstrcpyn(m_ModuleInitParameter.GameServiceOption.szDataBaseAddr,pGameServerInfo->szDataBaseAddr,CountArray(m_ModuleInitParameter.GameServiceOption.szDataBaseAddr));

  00515	6a 10		 push	 16			; 00000010H
  00517	8b 45 08	 mov	 eax, DWORD PTR _pGameServerInfo$[ebp]
  0051a	05 2c 01 00 00	 add	 eax, 300		; 0000012cH
  0051f	50		 push	 eax
  00520	8b 4d ec	 mov	 ecx, DWORD PTR _this$[ebp]
  00523	81 c1 1c 03 00
	00		 add	 ecx, 796		; 0000031cH
  00529	51		 push	 ecx
  0052a	ff 15 00 00 00
	00		 call	 DWORD PTR __imp__lstrcpynA@12

; 336  : 
; 337  : 	//数据设置
; 338  : 	UINT uCustomRuleSize=sizeof(m_ModuleInitParameter.GameServiceOption.cbCustomRule);

  00530	c7 85 90 fc ff
	ff 00 04 00 00	 mov	 DWORD PTR _uCustomRuleSize$[ebp], 1024 ; 00000400H

; 339  : 	CopyMemory(m_ModuleInitParameter.GameServiceOption.cbCustomRule,pGameServerInfo->cbCustomRule,uCustomRuleSize);

  0053a	8b 85 90 fc ff
	ff		 mov	 eax, DWORD PTR _uCustomRuleSize$[ebp]
  00540	50		 push	 eax
  00541	8b 4d 08	 mov	 ecx, DWORD PTR _pGameServerInfo$[ebp]
  00544	81 c1 4c 01 00
	00		 add	 ecx, 332		; 0000014cH
  0054a	51		 push	 ecx
  0054b	8b 55 ec	 mov	 edx, DWORD PTR _this$[ebp]
  0054e	81 c2 70 03 00
	00		 add	 edx, 880		; 00000370H
  00554	52		 push	 edx
  00555	e8 00 00 00 00	 call	 _memcpy
  0055a	83 c4 0c	 add	 esp, 12			; 0000000cH

; 340  : 
; 341  : 	UINT uPersonalRuleSize = sizeof(m_ModuleInitParameter.GameServiceOption.cbPersonalRule);

  0055d	c7 85 8c fc ff
	ff 00 04 00 00	 mov	 DWORD PTR _uPersonalRuleSize$[ebp], 1024 ; 00000400H

; 342  : 	CopyMemory(m_ModuleInitParameter.GameServiceOption.cbPersonalRule, pGameServerInfo->cbPersonalRule, uPersonalRuleSize);

  00567	8b 85 8c fc ff
	ff		 mov	 eax, DWORD PTR _uPersonalRuleSize$[ebp]
  0056d	50		 push	 eax
  0056e	8b 4d 08	 mov	 ecx, DWORD PTR _pGameServerInfo$[ebp]
  00571	81 c1 6d 05 00
	00		 add	 ecx, 1389		; 0000056dH
  00577	51		 push	 ecx
  00578	8b 55 ec	 mov	 edx, DWORD PTR _this$[ebp]
  0057b	81 c2 70 07 00
	00		 add	 edx, 1904		; 00000770H
  00581	52		 push	 edx
  00582	e8 00 00 00 00	 call	 _memcpy
  00587	83 c4 0c	 add	 esp, 12			; 0000000cH

; 343  : 
; 344  : 
; 345  : 	return true;

  0058a	c6 85 08 fc ff
	ff 01		 mov	 BYTE PTR $T2[ebp], 1
  00591	c7 45 fc ff ff
	ff ff		 mov	 DWORD PTR __$EHRec$[ebp+8], -1
  00598	8d 8d 14 fe ff
	ff		 lea	 ecx, DWORD PTR _GameServiceManager$[ebp]
  0059e	e8 00 00 00 00	 call	 ??1CGameServiceManagerHelper@@UAE@XZ
  005a3	8a 85 08 fc ff
	ff		 mov	 al, BYTE PTR $T2[ebp]
$LN1@GetModuleI:

; 346  : }

  005a9	8b 4d f4	 mov	 ecx, DWORD PTR __$EHRec$[ebp]
  005ac	64 89 0d 00 00
	00 00		 mov	 DWORD PTR fs:0, ecx
  005b3	59		 pop	 ecx
  005b4	5f		 pop	 edi
  005b5	5e		 pop	 esi
  005b6	5b		 pop	 ebx
  005b7	8b 4d f0	 mov	 ecx, DWORD PTR __$ArrayPad$[ebp]
  005ba	33 cd		 xor	 ecx, ebp
  005bc	e8 00 00 00 00	 call	 @__security_check_cookie@4
  005c1	8b e5		 mov	 esp, ebp
  005c3	5d		 pop	 ebp
  005c4	c2 08 00	 ret	 8
_TEXT	ENDS
;	COMDAT text$x
text$x	SEGMENT
__unwindfunclet$?GetModuleInitParameter@CDlgServerItem@@IAE_NPAUtagGameServerInfo@@_N@Z$0:
  00000	8d 8d 14 fe ff
	ff		 lea	 ecx, DWORD PTR _GameServiceManager$[ebp]
  00006	e9 00 00 00 00	 jmp	 ??1CGameServiceManagerHelper@@UAE@XZ
__ehhandler$?GetModuleInitParameter@CDlgServerItem@@IAE_NPAUtagGameServerInfo@@_N@Z:
  0000b	8b 54 24 08	 mov	 edx, DWORD PTR [esp+8]
  0000f	8d 42 0c	 lea	 eax, DWORD PTR [edx+12]
  00012	8b 8a 00 fc ff
	ff		 mov	 ecx, DWORD PTR [edx-1024]
  00018	33 c8		 xor	 ecx, eax
  0001a	e8 00 00 00 00	 call	 @__security_check_cookie@4
  0001f	8b 4a fc	 mov	 ecx, DWORD PTR [edx-4]
  00022	33 c8		 xor	 ecx, eax
  00024	e8 00 00 00 00	 call	 @__security_check_cookie@4
  00029	b8 00 00 00 00	 mov	 eax, OFFSET __ehfuncinfo$?GetModuleInitParameter@CDlgServerItem@@IAE_NPAUtagGameServerInfo@@_N@Z
  0002e	e9 00 00 00 00	 jmp	 ___CxxFrameHandler3
text$x	ENDS
?GetModuleInitParameter@CDlgServerItem@@IAE_NPAUtagGameServerInfo@@_N@Z ENDP ; CDlgServerItem::GetModuleInitParameter
; Function compile flags: /Odtp /ZI
; File g:\网狐\happygamewh\服务端\系统模块\服务器组件\模块管理\dlgserveritem.cpp
;	COMDAT ?UpdateControlStatus@CDlgServerItem@@IAE_NXZ
_TEXT	SEGMENT
_pGameServerInfo$1 = -16				; size = 4
_nListItem$2 = -12					; size = 4
_Position$ = -8						; size = 4
_this$ = -4						; size = 4
?UpdateControlStatus@CDlgServerItem@@IAE_NXZ PROC	; CDlgServerItem::UpdateControlStatus, COMDAT
; _this$ = ecx

; 198  : {

  00000	55		 push	 ebp
  00001	8b ec		 mov	 ebp, esp
  00003	83 ec 50	 sub	 esp, 80			; 00000050H
  00006	53		 push	 ebx
  00007	56		 push	 esi
  00008	57		 push	 edi
  00009	89 4d fc	 mov	 DWORD PTR _this$[ebp], ecx

; 199  : 	//获取选择
; 200  : 	POSITION Position=m_ServerListControl.GetFirstSelectedItemPosition();

  0000c	8b 4d fc	 mov	 ecx, DWORD PTR _this$[ebp]
  0000f	81 c1 e0 00 00
	00		 add	 ecx, 224		; 000000e0H
  00015	e8 00 00 00 00	 call	 ?GetFirstSelectedItemPosition@CListCtrl@@QBEPAU__POSITION@@XZ ; CListCtrl::GetFirstSelectedItemPosition
  0001a	89 45 f8	 mov	 DWORD PTR _Position$[ebp], eax

; 201  : 
; 202  : 	//设置列表
; 203  : 	if (Position!=NULL)

  0001d	83 7d f8 00	 cmp	 DWORD PTR _Position$[ebp], 0
  00021	0f 84 b5 00 00
	00		 je	 $LN2@UpdateCont

; 204  : 	{
; 205  : 		//获取房间
; 206  : 		INT nListItem=m_ServerListControl.GetNextSelectedItem(Position);

  00027	8d 45 f8	 lea	 eax, DWORD PTR _Position$[ebp]
  0002a	50		 push	 eax
  0002b	8b 4d fc	 mov	 ecx, DWORD PTR _this$[ebp]
  0002e	81 c1 e0 00 00
	00		 add	 ecx, 224		; 000000e0H
  00034	e8 00 00 00 00	 call	 ?GetNextSelectedItem@CListCtrl@@QBEHAAPAU__POSITION@@@Z ; CListCtrl::GetNextSelectedItem
  00039	89 45 f4	 mov	 DWORD PTR _nListItem$2[ebp], eax

; 207  : 		tagGameServerInfo * pGameServerInfo=(tagGameServerInfo *)m_ServerListControl.GetItemData(nListItem);

  0003c	8b 45 f4	 mov	 eax, DWORD PTR _nListItem$2[ebp]
  0003f	50		 push	 eax
  00040	8b 4d fc	 mov	 ecx, DWORD PTR _this$[ebp]
  00043	81 c1 e0 00 00
	00		 add	 ecx, 224		; 000000e0H
  00049	e8 00 00 00 00	 call	 ?GetItemData@CListCtrl@@QBEKH@Z ; CListCtrl::GetItemData
  0004e	89 45 f0	 mov	 DWORD PTR _pGameServerInfo$1[ebp], eax

; 208  : 
; 209  : 		//设置按钮
; 210  : 		if (pGameServerInfo->dwNativeVersion!=0L)

  00051	8b 45 f0	 mov	 eax, DWORD PTR _pGameServerInfo$1[ebp]
  00054	83 78 14 00	 cmp	 DWORD PTR [eax+20], 0
  00058	74 41		 je	 SHORT $LN4@UpdateCont

; 211  : 		{
; 212  : 			GetDlgItem(IDC_LOAD_SERVER)->EnableWindow(TRUE);

  0005a	6a 01		 push	 1
  0005c	68 e8 03 00 00	 push	 1000			; 000003e8H
  00061	8b 4d fc	 mov	 ecx, DWORD PTR _this$[ebp]
  00064	e8 00 00 00 00	 call	 ?GetDlgItem@CWnd@@QBEPAV1@H@Z ; CWnd::GetDlgItem
  00069	8b c8		 mov	 ecx, eax
  0006b	e8 00 00 00 00	 call	 ?EnableWindow@CWnd@@QAEHH@Z ; CWnd::EnableWindow

; 213  : 			GetDlgItem(IDC_DELETE_SERVER)->EnableWindow(TRUE);

  00070	6a 01		 push	 1
  00072	68 fa 03 00 00	 push	 1018			; 000003faH
  00077	8b 4d fc	 mov	 ecx, DWORD PTR _this$[ebp]
  0007a	e8 00 00 00 00	 call	 ?GetDlgItem@CWnd@@QBEPAV1@H@Z ; CWnd::GetDlgItem
  0007f	8b c8		 mov	 ecx, eax
  00081	e8 00 00 00 00	 call	 ?EnableWindow@CWnd@@QAEHH@Z ; CWnd::EnableWindow

; 214  : 			GetDlgItem(IDC_SERVICE_ATTRIB)->EnableWindow(TRUE);

  00086	6a 01		 push	 1
  00088	6a 03		 push	 3
  0008a	8b 4d fc	 mov	 ecx, DWORD PTR _this$[ebp]
  0008d	e8 00 00 00 00	 call	 ?GetDlgItem@CWnd@@QBEPAV1@H@Z ; CWnd::GetDlgItem
  00092	8b c8		 mov	 ecx, eax
  00094	e8 00 00 00 00	 call	 ?EnableWindow@CWnd@@QAEHH@Z ; CWnd::EnableWindow

; 215  : 		}
; 216  : 		else

  00099	eb 3f		 jmp	 SHORT $LN5@UpdateCont
$LN4@UpdateCont:

; 217  : 		{
; 218  : 			GetDlgItem(IDC_LOAD_SERVER)->EnableWindow(FALSE);

  0009b	6a 00		 push	 0
  0009d	68 e8 03 00 00	 push	 1000			; 000003e8H
  000a2	8b 4d fc	 mov	 ecx, DWORD PTR _this$[ebp]
  000a5	e8 00 00 00 00	 call	 ?GetDlgItem@CWnd@@QBEPAV1@H@Z ; CWnd::GetDlgItem
  000aa	8b c8		 mov	 ecx, eax
  000ac	e8 00 00 00 00	 call	 ?EnableWindow@CWnd@@QAEHH@Z ; CWnd::EnableWindow

; 219  : 			GetDlgItem(IDC_DELETE_SERVER)->EnableWindow(TRUE);

  000b1	6a 01		 push	 1
  000b3	68 fa 03 00 00	 push	 1018			; 000003faH
  000b8	8b 4d fc	 mov	 ecx, DWORD PTR _this$[ebp]
  000bb	e8 00 00 00 00	 call	 ?GetDlgItem@CWnd@@QBEPAV1@H@Z ; CWnd::GetDlgItem
  000c0	8b c8		 mov	 ecx, eax
  000c2	e8 00 00 00 00	 call	 ?EnableWindow@CWnd@@QAEHH@Z ; CWnd::EnableWindow

; 220  : 			GetDlgItem(IDC_SERVICE_ATTRIB)->EnableWindow(FALSE);

  000c7	6a 00		 push	 0
  000c9	6a 03		 push	 3
  000cb	8b 4d fc	 mov	 ecx, DWORD PTR _this$[ebp]
  000ce	e8 00 00 00 00	 call	 ?GetDlgItem@CWnd@@QBEPAV1@H@Z ; CWnd::GetDlgItem
  000d3	8b c8		 mov	 ecx, eax
  000d5	e8 00 00 00 00	 call	 ?EnableWindow@CWnd@@QAEHH@Z ; CWnd::EnableWindow
$LN5@UpdateCont:

; 221  : 		}
; 222  : 	}
; 223  : 	else

  000da	eb 3f		 jmp	 SHORT $LN3@UpdateCont
$LN2@UpdateCont:

; 224  : 	{
; 225  : 		//设置按钮
; 226  : 		GetDlgItem(IDC_LOAD_SERVER)->EnableWindow(FALSE);

  000dc	6a 00		 push	 0
  000de	68 e8 03 00 00	 push	 1000			; 000003e8H
  000e3	8b 4d fc	 mov	 ecx, DWORD PTR _this$[ebp]
  000e6	e8 00 00 00 00	 call	 ?GetDlgItem@CWnd@@QBEPAV1@H@Z ; CWnd::GetDlgItem
  000eb	8b c8		 mov	 ecx, eax
  000ed	e8 00 00 00 00	 call	 ?EnableWindow@CWnd@@QAEHH@Z ; CWnd::EnableWindow

; 227  : 		GetDlgItem(IDC_DELETE_SERVER)->EnableWindow(FALSE);

  000f2	6a 00		 push	 0
  000f4	68 fa 03 00 00	 push	 1018			; 000003faH
  000f9	8b 4d fc	 mov	 ecx, DWORD PTR _this$[ebp]
  000fc	e8 00 00 00 00	 call	 ?GetDlgItem@CWnd@@QBEPAV1@H@Z ; CWnd::GetDlgItem
  00101	8b c8		 mov	 ecx, eax
  00103	e8 00 00 00 00	 call	 ?EnableWindow@CWnd@@QAEHH@Z ; CWnd::EnableWindow

; 228  : 		GetDlgItem(IDC_SERVICE_ATTRIB)->EnableWindow(FALSE);

  00108	6a 00		 push	 0
  0010a	6a 03		 push	 3
  0010c	8b 4d fc	 mov	 ecx, DWORD PTR _this$[ebp]
  0010f	e8 00 00 00 00	 call	 ?GetDlgItem@CWnd@@QBEPAV1@H@Z ; CWnd::GetDlgItem
  00114	8b c8		 mov	 ecx, eax
  00116	e8 00 00 00 00	 call	 ?EnableWindow@CWnd@@QAEHH@Z ; CWnd::EnableWindow
$LN3@UpdateCont:

; 229  : 	}
; 230  : 
; 231  : 	return true;

  0011b	b0 01		 mov	 al, 1

; 232  : }

  0011d	5f		 pop	 edi
  0011e	5e		 pop	 esi
  0011f	5b		 pop	 ebx
  00120	8b e5		 mov	 esp, ebp
  00122	5d		 pop	 ebp
  00123	c3		 ret	 0
?UpdateControlStatus@CDlgServerItem@@IAE_NXZ ENDP	; CDlgServerItem::UpdateControlStatus
_TEXT	ENDS
; Function compile flags: /Odtp /ZI
; File g:\网狐\happygamewh\服务端\系统模块\服务器组件\模块管理\dlgserveritem.cpp
;	COMDAT ?LoadDBServerItem@CDlgServerItem@@IAE_NXZ
_TEXT	SEGMENT
$T2 = -370						; size = 1
$T3 = -369						; size = 1
_pGameServerInfo$4 = -304				; size = 4
_wServerID$5 = -300					; size = 2
_Position$6 = -296					; size = 4
_ServerInfoManager$ = -292				; size = 236
_szMachineID$ = -56					; size = 33
_this$ = -20						; size = 4
__$ArrayPad$ = -16					; size = 4
__$EHRec$ = -12						; size = 12
?LoadDBServerItem@CDlgServerItem@@IAE_NXZ PROC		; CDlgServerItem::LoadDBServerItem, COMDAT
; _this$ = ecx

; 157  : {

  00000	55		 push	 ebp
  00001	8b ec		 mov	 ebp, esp
  00003	6a ff		 push	 -1
  00005	68 00 00 00 00	 push	 __ehhandler$?LoadDBServerItem@CDlgServerItem@@IAE_NXZ
  0000a	64 a1 00 00 00
	00		 mov	 eax, DWORD PTR fs:0
  00010	50		 push	 eax
  00011	81 ec 68 01 00
	00		 sub	 esp, 360		; 00000168H
  00017	a1 00 00 00 00	 mov	 eax, DWORD PTR ___security_cookie
  0001c	33 c5		 xor	 eax, ebp
  0001e	89 45 f0	 mov	 DWORD PTR __$ArrayPad$[ebp], eax
  00021	53		 push	 ebx
  00022	56		 push	 esi
  00023	57		 push	 edi
  00024	50		 push	 eax
  00025	8d 45 f4	 lea	 eax, DWORD PTR __$EHRec$[ebp]
  00028	64 a3 00 00 00
	00		 mov	 DWORD PTR fs:0, eax
  0002e	89 4d ec	 mov	 DWORD PTR _this$[ebp], ecx

; 158  : 	//重置列表
; 159  : 	m_ServerListControl.DeleteAllItems();

  00031	8b 4d ec	 mov	 ecx, DWORD PTR _this$[ebp]
  00034	81 c1 e0 00 00
	00		 add	 ecx, 224		; 000000e0H
  0003a	e8 00 00 00 00	 call	 ?DeleteAllItems@CListCtrl@@QAEHXZ ; CListCtrl::DeleteAllItems

; 160  : 
; 161  : 	//设置按钮
; 162  : 	GetDlgItem(IDC_LOAD_SERVER)->EnableWindow(FALSE);

  0003f	6a 00		 push	 0
  00041	68 e8 03 00 00	 push	 1000			; 000003e8H
  00046	8b 4d ec	 mov	 ecx, DWORD PTR _this$[ebp]
  00049	e8 00 00 00 00	 call	 ?GetDlgItem@CWnd@@QBEPAV1@H@Z ; CWnd::GetDlgItem
  0004e	8b c8		 mov	 ecx, eax
  00050	e8 00 00 00 00	 call	 ?EnableWindow@CWnd@@QAEHH@Z ; CWnd::EnableWindow

; 163  : 	GetDlgItem(IDC_DELETE_SERVER)->EnableWindow(FALSE);

  00055	6a 00		 push	 0
  00057	68 fa 03 00 00	 push	 1018			; 000003faH
  0005c	8b 4d ec	 mov	 ecx, DWORD PTR _this$[ebp]
  0005f	e8 00 00 00 00	 call	 ?GetDlgItem@CWnd@@QBEPAV1@H@Z ; CWnd::GetDlgItem
  00064	8b c8		 mov	 ecx, eax
  00066	e8 00 00 00 00	 call	 ?EnableWindow@CWnd@@QAEHH@Z ; CWnd::EnableWindow

; 164  : 	GetDlgItem(IDC_SERVICE_ATTRIB)->EnableWindow(FALSE);

  0006b	6a 00		 push	 0
  0006d	6a 03		 push	 3
  0006f	8b 4d ec	 mov	 ecx, DWORD PTR _this$[ebp]
  00072	e8 00 00 00 00	 call	 ?GetDlgItem@CWnd@@QBEPAV1@H@Z ; CWnd::GetDlgItem
  00077	8b c8		 mov	 ecx, eax
  00079	e8 00 00 00 00	 call	 ?EnableWindow@CWnd@@QAEHH@Z ; CWnd::EnableWindow

; 165  : 
; 166  : 	//机器标识
; 167  : 	TCHAR szMachineID[LEN_MACHINE_ID];
; 168  : 	CWHService::GetMachineID(szMachineID);

  0007e	8d 45 c8	 lea	 eax, DWORD PTR _szMachineID$[ebp]
  00081	50		 push	 eax
  00082	ff 15 00 00 00
	00		 call	 DWORD PTR __imp_?GetMachineID@CWHService@@SA_NQAD@Z
  00088	83 c4 04	 add	 esp, 4

; 169  : 
; 170  : 	//加载信息
; 171  : 	CServerInfoManager ServerInfoManager;

  0008b	8d 8d dc fe ff
	ff		 lea	 ecx, DWORD PTR _ServerInfoManager$[ebp]
  00091	e8 00 00 00 00	 call	 ??0CServerInfoManager@@QAE@XZ ; CServerInfoManager::CServerInfoManager
  00096	c7 45 fc 00 00
	00 00		 mov	 DWORD PTR __$EHRec$[ebp+8], 0

; 172  : 	if (ServerInfoManager.LoadGameServerInfo(szMachineID,m_ServerInfoBuffer)==true)

  0009d	8b 45 ec	 mov	 eax, DWORD PTR _this$[ebp]
  000a0	05 a8 00 00 00	 add	 eax, 168		; 000000a8H
  000a5	50		 push	 eax
  000a6	8d 4d c8	 lea	 ecx, DWORD PTR _szMachineID$[ebp]
  000a9	51		 push	 ecx
  000aa	8d 8d dc fe ff
	ff		 lea	 ecx, DWORD PTR _ServerInfoManager$[ebp]
  000b0	e8 00 00 00 00	 call	 ?LoadGameServerInfo@CServerInfoManager@@QAE_NQADAAVCServerInfoBuffer@@@Z ; CServerInfoManager::LoadGameServerInfo
  000b5	0f b6 d0	 movzx	 edx, al
  000b8	83 fa 01	 cmp	 edx, 1
  000bb	0f 85 b5 00 00
	00		 jne	 $LN4@LoadDBServ

; 173  : 	{
; 174  : 		//变量定义
; 175  : 		POSITION Position=m_ServerInfoBuffer.m_GameServerInfoMap.GetStartPosition();

  000c1	8b 4d ec	 mov	 ecx, DWORD PTR _this$[ebp]
  000c4	81 c1 ac 00 00
	00		 add	 ecx, 172		; 000000acH
  000ca	e8 00 00 00 00	 call	 ?GetStartPosition@?$CMap@GGPAUtagGameServerInfo@@PAU1@@@QBEPAU__POSITION@@XZ ; CMap<unsigned short,unsigned short,tagGameServerInfo *,tagGameServerInfo *>::GetStartPosition
  000cf	89 85 d8 fe ff
	ff		 mov	 DWORD PTR _Position$6[ebp], eax
$LN2@LoadDBServ:

; 176  : 
; 177  : 		//枚举模块
; 178  : 		while (Position!=NULL)

  000d5	83 bd d8 fe ff
	ff 00		 cmp	 DWORD PTR _Position$6[ebp], 0
  000dc	74 77		 je	 SHORT $LN3@LoadDBServ

; 179  : 		{
; 180  : 			//获取对象
; 181  : 			WORD wServerID=0L;

  000de	33 c0		 xor	 eax, eax
  000e0	66 89 85 d4 fe
	ff ff		 mov	 WORD PTR _wServerID$5[ebp], ax

; 182  : 			tagGameServerInfo * pGameServerInfo=NULL;

  000e7	c7 85 d0 fe ff
	ff 00 00 00 00	 mov	 DWORD PTR _pGameServerInfo$4[ebp], 0

; 183  : 			m_ServerInfoBuffer.m_GameServerInfoMap.GetNextAssoc(Position,wServerID,pGameServerInfo);

  000f1	8d 85 d0 fe ff
	ff		 lea	 eax, DWORD PTR _pGameServerInfo$4[ebp]
  000f7	50		 push	 eax
  000f8	8d 8d d4 fe ff
	ff		 lea	 ecx, DWORD PTR _wServerID$5[ebp]
  000fe	51		 push	 ecx
  000ff	8d 95 d8 fe ff
	ff		 lea	 edx, DWORD PTR _Position$6[ebp]
  00105	52		 push	 edx
  00106	8b 4d ec	 mov	 ecx, DWORD PTR _this$[ebp]
  00109	81 c1 ac 00 00
	00		 add	 ecx, 172		; 000000acH
  0010f	e8 00 00 00 00	 call	 ?GetNextAssoc@?$CMap@GGPAUtagGameServerInfo@@PAU1@@@QBEXAAPAU__POSITION@@AAGAAPAUtagGameServerInfo@@@Z ; CMap<unsigned short,unsigned short,tagGameServerInfo *,tagGameServerInfo *>::GetNextAssoc

; 184  : 
; 185  : 			//插入列表
; 186  : 			ASSERT(pGameServerInfo!=NULL);

  00114	83 bd d0 fe ff
	ff 00		 cmp	 DWORD PTR _pGameServerInfo$4[ebp], 0
  0011b	75 18		 jne	 SHORT $LN7@LoadDBServ
  0011d	a1 00 00 00 00	 mov	 eax, DWORD PTR ?__LINE__Var@?0??LoadDBServerItem@CDlgServerItem@@IAE_NXZ@4JA
  00122	83 c0 1d	 add	 eax, 29			; 0000001dH
  00125	50		 push	 eax
  00126	68 00 00 00 00	 push	 OFFSET ??_C@_0EK@GJNFCKFC@g?3?2?M?x?$LK?$PM?2happygamewh?2?$LH?$PO?N?q?$LG?K?2?O?$LF?M?$LD@
  0012b	e8 00 00 00 00	 call	 ?AfxAssertFailedLine@@YGHPBDH@Z ; AfxAssertFailedLine
  00130	85 c0		 test	 eax, eax
  00132	74 01		 je	 SHORT $LN7@LoadDBServ
  00134	cc		 int	 3
$LN7@LoadDBServ:

; 187  : 			if (pGameServerInfo!=NULL) m_ServerListControl.InsertServerInfo(pGameServerInfo);

  00135	83 bd d0 fe ff
	ff 00		 cmp	 DWORD PTR _pGameServerInfo$4[ebp], 0
  0013c	74 15		 je	 SHORT $LN5@LoadDBServ
  0013e	8b 85 d0 fe ff
	ff		 mov	 eax, DWORD PTR _pGameServerInfo$4[ebp]
  00144	50		 push	 eax
  00145	8b 4d ec	 mov	 ecx, DWORD PTR _this$[ebp]
  00148	81 c1 e0 00 00
	00		 add	 ecx, 224		; 000000e0H
  0014e	e8 00 00 00 00	 call	 ?InsertServerInfo@CServerListControl@@QAE_NPAUtagGameServerInfo@@@Z ; CServerListControl::InsertServerInfo
$LN5@LoadDBServ:

; 188  : 		}

  00153	eb 80		 jmp	 SHORT $LN2@LoadDBServ
$LN3@LoadDBServ:

; 189  : 
; 190  : 		return true;

  00155	c6 85 8f fe ff
	ff 01		 mov	 BYTE PTR $T3[ebp], 1
  0015c	c7 45 fc ff ff
	ff ff		 mov	 DWORD PTR __$EHRec$[ebp+8], -1
  00163	8d 8d dc fe ff
	ff		 lea	 ecx, DWORD PTR _ServerInfoManager$[ebp]
  00169	e8 00 00 00 00	 call	 ??1CServerInfoManager@@UAE@XZ ; CServerInfoManager::~CServerInfoManager
  0016e	8a 85 8f fe ff
	ff		 mov	 al, BYTE PTR $T3[ebp]
  00174	eb 1f		 jmp	 SHORT $LN1@LoadDBServ
$LN4@LoadDBServ:

; 191  : 	}
; 192  : 
; 193  : 	return false;

  00176	c6 85 8e fe ff
	ff 00		 mov	 BYTE PTR $T2[ebp], 0
  0017d	c7 45 fc ff ff
	ff ff		 mov	 DWORD PTR __$EHRec$[ebp+8], -1
  00184	8d 8d dc fe ff
	ff		 lea	 ecx, DWORD PTR _ServerInfoManager$[ebp]
  0018a	e8 00 00 00 00	 call	 ??1CServerInfoManager@@UAE@XZ ; CServerInfoManager::~CServerInfoManager
  0018f	8a 85 8e fe ff
	ff		 mov	 al, BYTE PTR $T2[ebp]
$LN1@LoadDBServ:

; 194  : }

  00195	8b 4d f4	 mov	 ecx, DWORD PTR __$EHRec$[ebp]
  00198	64 89 0d 00 00
	00 00		 mov	 DWORD PTR fs:0, ecx
  0019f	59		 pop	 ecx
  001a0	5f		 pop	 edi
  001a1	5e		 pop	 esi
  001a2	5b		 pop	 ebx
  001a3	8b 4d f0	 mov	 ecx, DWORD PTR __$ArrayPad$[ebp]
  001a6	33 cd		 xor	 ecx, ebp
  001a8	e8 00 00 00 00	 call	 @__security_check_cookie@4
  001ad	8b e5		 mov	 esp, ebp
  001af	5d		 pop	 ebp
  001b0	c3		 ret	 0
_TEXT	ENDS
;	COMDAT text$x
text$x	SEGMENT
__unwindfunclet$?LoadDBServerItem@CDlgServerItem@@IAE_NXZ$0:
  00000	8d 8d dc fe ff
	ff		 lea	 ecx, DWORD PTR _ServerInfoManager$[ebp]
  00006	e9 00 00 00 00	 jmp	 ??1CServerInfoManager@@UAE@XZ ; CServerInfoManager::~CServerInfoManager
__ehhandler$?LoadDBServerItem@CDlgServerItem@@IAE_NXZ:
  0000b	8b 54 24 08	 mov	 edx, DWORD PTR [esp+8]
  0000f	8d 42 0c	 lea	 eax, DWORD PTR [edx+12]
  00012	8b 8a 88 fe ff
	ff		 mov	 ecx, DWORD PTR [edx-376]
  00018	33 c8		 xor	 ecx, eax
  0001a	e8 00 00 00 00	 call	 @__security_check_cookie@4
  0001f	8b 4a fc	 mov	 ecx, DWORD PTR [edx-4]
  00022	33 c8		 xor	 ecx, eax
  00024	e8 00 00 00 00	 call	 @__security_check_cookie@4
  00029	b8 00 00 00 00	 mov	 eax, OFFSET __ehfuncinfo$?LoadDBServerItem@CDlgServerItem@@IAE_NXZ
  0002e	e9 00 00 00 00	 jmp	 ___CxxFrameHandler3
text$x	ENDS
?LoadDBServerItem@CDlgServerItem@@IAE_NXZ ENDP		; CDlgServerItem::LoadDBServerItem
; Function compile flags: /Odtp /ZI
; File g:\网狐\happygamewh\服务端\系统模块\服务器组件\模块管理\dlgserveritem.cpp
;	COMDAT ?LoadPersonalRoomPatameter@CDlgServerItem@@QAE_NG@Z
_TEXT	SEGMENT
$T2 = -553						; size = 1
_PersonalRoomOptionRightAndFee$ = -488			; size = 116
_personalRoomOption$ = -372				; size = 113
_ServerInfoManager$ = -256				; size = 236
_this$ = -20						; size = 4
__$ArrayPad$ = -16					; size = 4
__$EHRec$ = -12						; size = 12
_wServerID$ = 8						; size = 2
?LoadPersonalRoomPatameter@CDlgServerItem@@QAE_NG@Z PROC ; CDlgServerItem::LoadPersonalRoomPatameter, COMDAT
; _this$ = ecx

; 138  : {

  00000	55		 push	 ebp
  00001	8b ec		 mov	 ebp, esp
  00003	6a ff		 push	 -1
  00005	68 00 00 00 00	 push	 __ehhandler$?LoadPersonalRoomPatameter@CDlgServerItem@@QAE_NG@Z
  0000a	64 a1 00 00 00
	00		 mov	 eax, DWORD PTR fs:0
  00010	50		 push	 eax
  00011	81 ec 20 02 00
	00		 sub	 esp, 544		; 00000220H
  00017	a1 00 00 00 00	 mov	 eax, DWORD PTR ___security_cookie
  0001c	33 c5		 xor	 eax, ebp
  0001e	89 45 f0	 mov	 DWORD PTR __$ArrayPad$[ebp], eax
  00021	53		 push	 ebx
  00022	56		 push	 esi
  00023	57		 push	 edi
  00024	50		 push	 eax
  00025	8d 45 f4	 lea	 eax, DWORD PTR __$EHRec$[ebp]
  00028	64 a3 00 00 00
	00		 mov	 DWORD PTR fs:0, eax
  0002e	89 4d ec	 mov	 DWORD PTR _this$[ebp], ecx

; 139  : 
; 140  : 	//加载私人房间参数
; 141  : 	//加载房间
; 142  : 	CServerInfoManager ServerInfoManager;

  00031	8d 8d 00 ff ff
	ff		 lea	 ecx, DWORD PTR _ServerInfoManager$[ebp]
  00037	e8 00 00 00 00	 call	 ??0CServerInfoManager@@QAE@XZ ; CServerInfoManager::CServerInfoManager
  0003c	c7 45 fc 00 00
	00 00		 mov	 DWORD PTR __$EHRec$[ebp+8], 0

; 143  : 	tagPersonalRoomOption  personalRoomOption;
; 144  : 	tagPersonalRoomOptionRightAndFee  PersonalRoomOptionRightAndFee; 

  00043	8d 8d 18 fe ff
	ff		 lea	 ecx, DWORD PTR _PersonalRoomOptionRightAndFee$[ebp]
  00049	e8 00 00 00 00	 call	 ??0tagPersonalRoomOptionRightAndFee@@QAE@XZ

; 145  : 
; 146  : 	ServerInfoManager.LoadPersonalRoomParameter(personalRoomOption,  PersonalRoomOptionRightAndFee, wServerID);

  0004e	0f b7 45 08	 movzx	 eax, WORD PTR _wServerID$[ebp]
  00052	50		 push	 eax
  00053	8d 8d 18 fe ff
	ff		 lea	 ecx, DWORD PTR _PersonalRoomOptionRightAndFee$[ebp]
  00059	51		 push	 ecx
  0005a	8d 95 8c fe ff
	ff		 lea	 edx, DWORD PTR _personalRoomOption$[ebp]
  00060	52		 push	 edx
  00061	8d 8d 00 ff ff
	ff		 lea	 ecx, DWORD PTR _ServerInfoManager$[ebp]
  00067	e8 00 00 00 00	 call	 ?LoadPersonalRoomParameter@CServerInfoManager@@QAE_NAAUtagPersonalRoomOption@@AAUtagPersonalRoomOptionRightAndFee@@G@Z ; CServerInfoManager::LoadPersonalRoomParameter

; 147  : 
; 148  : 
; 149  : 	m_ModuleInitParameter.PersonalRoomOption = personalRoomOption;

  0006c	8b 7d ec	 mov	 edi, DWORD PTR _this$[ebp]
  0006f	81 c7 38 0e 00
	00		 add	 edi, 3640		; 00000e38H
  00075	b9 1c 00 00 00	 mov	 ecx, 28			; 0000001cH
  0007a	8d b5 8c fe ff
	ff		 lea	 esi, DWORD PTR _personalRoomOption$[ebp]
  00080	f3 a5		 rep movsd
  00082	a4		 movsb

; 150  : 	m_ModuleInitParameter.m_pCreateRoomRightAndFee = PersonalRoomOptionRightAndFee;

  00083	8b 7d ec	 mov	 edi, DWORD PTR _this$[ebp]
  00086	81 c7 a9 0e 00
	00		 add	 edi, 3753		; 00000ea9H
  0008c	b9 1d 00 00 00	 mov	 ecx, 29			; 0000001dH
  00091	8d b5 18 fe ff
	ff		 lea	 esi, DWORD PTR _PersonalRoomOptionRightAndFee$[ebp]
  00097	f3 a5		 rep movsd

; 151  : 
; 152  : 	return true;

  00099	c6 85 d7 fd ff
	ff 01		 mov	 BYTE PTR $T2[ebp], 1
  000a0	c7 45 fc ff ff
	ff ff		 mov	 DWORD PTR __$EHRec$[ebp+8], -1
  000a7	8d 8d 00 ff ff
	ff		 lea	 ecx, DWORD PTR _ServerInfoManager$[ebp]
  000ad	e8 00 00 00 00	 call	 ??1CServerInfoManager@@UAE@XZ ; CServerInfoManager::~CServerInfoManager
  000b2	8a 85 d7 fd ff
	ff		 mov	 al, BYTE PTR $T2[ebp]

; 153  : }

  000b8	8b 4d f4	 mov	 ecx, DWORD PTR __$EHRec$[ebp]
  000bb	64 89 0d 00 00
	00 00		 mov	 DWORD PTR fs:0, ecx
  000c2	59		 pop	 ecx
  000c3	5f		 pop	 edi
  000c4	5e		 pop	 esi
  000c5	5b		 pop	 ebx
  000c6	8b 4d f0	 mov	 ecx, DWORD PTR __$ArrayPad$[ebp]
  000c9	33 cd		 xor	 ecx, ebp
  000cb	e8 00 00 00 00	 call	 @__security_check_cookie@4
  000d0	8b e5		 mov	 esp, ebp
  000d2	5d		 pop	 ebp
  000d3	c2 04 00	 ret	 4
_TEXT	ENDS
;	COMDAT text$x
text$x	SEGMENT
__unwindfunclet$?LoadPersonalRoomPatameter@CDlgServerItem@@QAE_NG@Z$0:
  00000	8d 8d 00 ff ff
	ff		 lea	 ecx, DWORD PTR _ServerInfoManager$[ebp]
  00006	e9 00 00 00 00	 jmp	 ??1CServerInfoManager@@UAE@XZ ; CServerInfoManager::~CServerInfoManager
__ehhandler$?LoadPersonalRoomPatameter@CDlgServerItem@@QAE_NG@Z:
  0000b	8b 54 24 08	 mov	 edx, DWORD PTR [esp+8]
  0000f	8d 42 0c	 lea	 eax, DWORD PTR [edx+12]
  00012	8b 8a d0 fd ff
	ff		 mov	 ecx, DWORD PTR [edx-560]
  00018	33 c8		 xor	 ecx, eax
  0001a	e8 00 00 00 00	 call	 @__security_check_cookie@4
  0001f	8b 4a fc	 mov	 ecx, DWORD PTR [edx-4]
  00022	33 c8		 xor	 ecx, eax
  00024	e8 00 00 00 00	 call	 @__security_check_cookie@4
  00029	b8 00 00 00 00	 mov	 eax, OFFSET __ehfuncinfo$?LoadPersonalRoomPatameter@CDlgServerItem@@QAE_NG@Z
  0002e	e9 00 00 00 00	 jmp	 ___CxxFrameHandler3
text$x	ENDS
?LoadPersonalRoomPatameter@CDlgServerItem@@QAE_NG@Z ENDP ; CDlgServerItem::LoadPersonalRoomPatameter
; Function compile flags: /Odtp /ZI
; File g:\网狐\happygamewh\服务端\系统模块\服务器组件\模块管理\dlgserveritem.cpp
;	COMDAT ?OpenGameServer@CDlgServerItem@@QAE_NG@Z
_TEXT	SEGMENT
$T2 = -3327						; size = 1
$T3 = -3326						; size = 1
$T4 = -3325						; size = 1
_personalRoomOptionRightAndFee$ = -2940			; size = 116
_personalRoomOption$ = -2824				; size = 113
_ServerInfoManager$ = -2708				; size = 236
_szMachineID$ = -2472					; size = 33
_GameServerResult$ = -2436				; size = 2416
_this$ = -20						; size = 4
__$ArrayPad$ = -16					; size = 4
__$EHRec$ = -12						; size = 12
_wServerID$ = 8						; size = 2
?OpenGameServer@CDlgServerItem@@QAE_NG@Z PROC		; CDlgServerItem::OpenGameServer, COMDAT
; _this$ = ecx

; 98   : {

  00000	55		 push	 ebp
  00001	8b ec		 mov	 ebp, esp
  00003	6a ff		 push	 -1
  00005	68 00 00 00 00	 push	 __ehhandler$?OpenGameServer@CDlgServerItem@@QAE_NG@Z
  0000a	64 a1 00 00 00
	00		 mov	 eax, DWORD PTR fs:0
  00010	50		 push	 eax
  00011	81 ec f4 0c 00
	00		 sub	 esp, 3316		; 00000cf4H
  00017	a1 00 00 00 00	 mov	 eax, DWORD PTR ___security_cookie
  0001c	33 c5		 xor	 eax, ebp
  0001e	89 45 f0	 mov	 DWORD PTR __$ArrayPad$[ebp], eax
  00021	53		 push	 ebx
  00022	56		 push	 esi
  00023	57		 push	 edi
  00024	50		 push	 eax
  00025	8d 45 f4	 lea	 eax, DWORD PTR __$EHRec$[ebp]
  00028	64 a3 00 00 00
	00		 mov	 DWORD PTR fs:0, eax
  0002e	89 4d ec	 mov	 DWORD PTR _this$[ebp], ecx

; 99   : 	//变量定义
; 100  : 	tagGameServerInfo GameServerResult;
; 101  : 	ZeroMemory(&GameServerResult,sizeof(GameServerResult));

  00031	68 70 09 00 00	 push	 2416			; 00000970H
  00036	6a 00		 push	 0
  00038	8d 85 7c f6 ff
	ff		 lea	 eax, DWORD PTR _GameServerResult$[ebp]
  0003e	50		 push	 eax
  0003f	e8 00 00 00 00	 call	 _memset
  00044	83 c4 0c	 add	 esp, 12			; 0000000cH

; 102  : 
; 103  : 	//机器标识
; 104  : 	TCHAR szMachineID[LEN_MACHINE_ID];
; 105  : 	CWHService::GetMachineID(szMachineID);

  00047	8d 85 58 f6 ff
	ff		 lea	 eax, DWORD PTR _szMachineID$[ebp]
  0004d	50		 push	 eax
  0004e	ff 15 00 00 00
	00		 call	 DWORD PTR __imp_?GetMachineID@CWHService@@SA_NQAD@Z
  00054	83 c4 04	 add	 esp, 4

; 106  : 
; 107  : 	//加载房间
; 108  : 	CServerInfoManager ServerInfoManager;

  00057	8d 8d 6c f5 ff
	ff		 lea	 ecx, DWORD PTR _ServerInfoManager$[ebp]
  0005d	e8 00 00 00 00	 call	 ??0CServerInfoManager@@QAE@XZ ; CServerInfoManager::CServerInfoManager
  00062	c7 45 fc 00 00
	00 00		 mov	 DWORD PTR __$EHRec$[ebp+8], 0

; 109  : 	if (ServerInfoManager.LoadGameServerInfo(szMachineID,wServerID,GameServerResult)==false)

  00069	8d 85 7c f6 ff
	ff		 lea	 eax, DWORD PTR _GameServerResult$[ebp]
  0006f	50		 push	 eax
  00070	0f b7 4d 08	 movzx	 ecx, WORD PTR _wServerID$[ebp]
  00074	51		 push	 ecx
  00075	8d 95 58 f6 ff
	ff		 lea	 edx, DWORD PTR _szMachineID$[ebp]
  0007b	52		 push	 edx
  0007c	8d 8d 6c f5 ff
	ff		 lea	 ecx, DWORD PTR _ServerInfoManager$[ebp]
  00082	e8 00 00 00 00	 call	 ?LoadGameServerInfo@CServerInfoManager@@QAE_NQADGAAUtagGameServerInfo@@@Z ; CServerInfoManager::LoadGameServerInfo
  00087	0f b6 c0	 movzx	 eax, al
  0008a	85 c0		 test	 eax, eax
  0008c	75 24		 jne	 SHORT $LN2@OpenGameSe

; 110  : 	{
; 111  : 		return false;

  0008e	c6 85 03 f3 ff
	ff 00		 mov	 BYTE PTR $T4[ebp], 0
  00095	c7 45 fc ff ff
	ff ff		 mov	 DWORD PTR __$EHRec$[ebp+8], -1
  0009c	8d 8d 6c f5 ff
	ff		 lea	 ecx, DWORD PTR _ServerInfoManager$[ebp]
  000a2	e8 00 00 00 00	 call	 ??1CServerInfoManager@@UAE@XZ ; CServerInfoManager::~CServerInfoManager
  000a7	8a 85 03 f3 ff
	ff		 mov	 al, BYTE PTR $T4[ebp]
  000ad	e9 d0 00 00 00	 jmp	 $LN1@OpenGameSe
$LN2@OpenGameSe:

; 112  : 	}
; 113  : 
; 114  : 	//加载私人房间参数
; 115  : 	tagPersonalRoomOption  personalRoomOption;
; 116  : 	tagPersonalRoomOptionRightAndFee  personalRoomOptionRightAndFee;

  000b2	8d 8d 84 f4 ff
	ff		 lea	 ecx, DWORD PTR _personalRoomOptionRightAndFee$[ebp]
  000b8	e8 00 00 00 00	 call	 ??0tagPersonalRoomOptionRightAndFee@@QAE@XZ

; 117  : 	memset(&personalRoomOptionRightAndFee, 0, sizeof(tagPersonalRoomOptionRightAndFee));

  000bd	6a 74		 push	 116			; 00000074H
  000bf	6a 00		 push	 0
  000c1	8d 85 84 f4 ff
	ff		 lea	 eax, DWORD PTR _personalRoomOptionRightAndFee$[ebp]
  000c7	50		 push	 eax
  000c8	e8 00 00 00 00	 call	 _memset
  000cd	83 c4 0c	 add	 esp, 12			; 0000000cH

; 118  : 
; 119  : 	if (GameServerResult.wServerType == GAME_GENRE_PERSONAL)

  000d0	0f b7 85 38 f7
	ff ff		 movzx	 eax, WORD PTR _GameServerResult$[ebp+188]
  000d7	83 f8 10	 cmp	 eax, 16			; 00000010H
  000da	75 21		 jne	 SHORT $LN3@OpenGameSe

; 120  : 	{
; 121  : 		ServerInfoManager.LoadPersonalRoomParameter(personalRoomOption,  personalRoomOptionRightAndFee, GameServerResult.wKindID);

  000dc	0f b7 85 80 f6
	ff ff		 movzx	 eax, WORD PTR _GameServerResult$[ebp+4]
  000e3	50		 push	 eax
  000e4	8d 8d 84 f4 ff
	ff		 lea	 ecx, DWORD PTR _personalRoomOptionRightAndFee$[ebp]
  000ea	51		 push	 ecx
  000eb	8d 95 f8 f4 ff
	ff		 lea	 edx, DWORD PTR _personalRoomOption$[ebp]
  000f1	52		 push	 edx
  000f2	8d 8d 6c f5 ff
	ff		 lea	 ecx, DWORD PTR _ServerInfoManager$[ebp]
  000f8	e8 00 00 00 00	 call	 ?LoadPersonalRoomParameter@CServerInfoManager@@QAE_NAAUtagPersonalRoomOption@@AAUtagPersonalRoomOptionRightAndFee@@G@Z ; CServerInfoManager::LoadPersonalRoomParameter
$LN3@OpenGameSe:

; 122  : 	}
; 123  : 
; 124  : 
; 125  : 	m_ModuleInitParameter.PersonalRoomOption = personalRoomOption;

  000fd	8b 7d ec	 mov	 edi, DWORD PTR _this$[ebp]
  00100	81 c7 38 0e 00
	00		 add	 edi, 3640		; 00000e38H
  00106	b9 1c 00 00 00	 mov	 ecx, 28			; 0000001cH
  0010b	8d b5 f8 f4 ff
	ff		 lea	 esi, DWORD PTR _personalRoomOption$[ebp]
  00111	f3 a5		 rep movsd
  00113	a4		 movsb

; 126  : 	m_ModuleInitParameter.m_pCreateRoomRightAndFee = personalRoomOptionRightAndFee;

  00114	8b 7d ec	 mov	 edi, DWORD PTR _this$[ebp]
  00117	81 c7 a9 0e 00
	00		 add	 edi, 3753		; 00000ea9H
  0011d	b9 1d 00 00 00	 mov	 ecx, 29			; 0000001dH
  00122	8d b5 84 f4 ff
	ff		 lea	 esi, DWORD PTR _personalRoomOptionRightAndFee$[ebp]
  00128	f3 a5		 rep movsd

; 127  : 
; 128  : 	//获取参数
; 129  : 	if (GetModuleInitParameter(&GameServerResult,true)==false)

  0012a	6a 01		 push	 1
  0012c	8d 85 7c f6 ff
	ff		 lea	 eax, DWORD PTR _GameServerResult$[ebp]
  00132	50		 push	 eax
  00133	8b 4d ec	 mov	 ecx, DWORD PTR _this$[ebp]
  00136	e8 00 00 00 00	 call	 ?GetModuleInitParameter@CDlgServerItem@@IAE_NPAUtagGameServerInfo@@_N@Z ; CDlgServerItem::GetModuleInitParameter
  0013b	0f b6 c8	 movzx	 ecx, al
  0013e	85 c9		 test	 ecx, ecx
  00140	75 21		 jne	 SHORT $LN4@OpenGameSe

; 130  : 	{
; 131  : 		return false;

  00142	c6 85 02 f3 ff
	ff 00		 mov	 BYTE PTR $T3[ebp], 0
  00149	c7 45 fc ff ff
	ff ff		 mov	 DWORD PTR __$EHRec$[ebp+8], -1
  00150	8d 8d 6c f5 ff
	ff		 lea	 ecx, DWORD PTR _ServerInfoManager$[ebp]
  00156	e8 00 00 00 00	 call	 ??1CServerInfoManager@@UAE@XZ ; CServerInfoManager::~CServerInfoManager
  0015b	8a 85 02 f3 ff
	ff		 mov	 al, BYTE PTR $T3[ebp]
  00161	eb 1f		 jmp	 SHORT $LN1@OpenGameSe
$LN4@OpenGameSe:

; 132  : 	}
; 133  : 
; 134  : 	return true;

  00163	c6 85 01 f3 ff
	ff 01		 mov	 BYTE PTR $T2[ebp], 1
  0016a	c7 45 fc ff ff
	ff ff		 mov	 DWORD PTR __$EHRec$[ebp+8], -1
  00171	8d 8d 6c f5 ff
	ff		 lea	 ecx, DWORD PTR _ServerInfoManager$[ebp]
  00177	e8 00 00 00 00	 call	 ??1CServerInfoManager@@UAE@XZ ; CServerInfoManager::~CServerInfoManager
  0017c	8a 85 01 f3 ff
	ff		 mov	 al, BYTE PTR $T2[ebp]
$LN1@OpenGameSe:

; 135  : }

  00182	8b 4d f4	 mov	 ecx, DWORD PTR __$EHRec$[ebp]
  00185	64 89 0d 00 00
	00 00		 mov	 DWORD PTR fs:0, ecx
  0018c	59		 pop	 ecx
  0018d	5f		 pop	 edi
  0018e	5e		 pop	 esi
  0018f	5b		 pop	 ebx
  00190	8b 4d f0	 mov	 ecx, DWORD PTR __$ArrayPad$[ebp]
  00193	33 cd		 xor	 ecx, ebp
  00195	e8 00 00 00 00	 call	 @__security_check_cookie@4
  0019a	8b e5		 mov	 esp, ebp
  0019c	5d		 pop	 ebp
  0019d	c2 04 00	 ret	 4
_TEXT	ENDS
;	COMDAT text$x
text$x	SEGMENT
__unwindfunclet$?OpenGameServer@CDlgServerItem@@QAE_NG@Z$0:
  00000	8d 8d 6c f5 ff
	ff		 lea	 ecx, DWORD PTR _ServerInfoManager$[ebp]
  00006	e9 00 00 00 00	 jmp	 ??1CServerInfoManager@@UAE@XZ ; CServerInfoManager::~CServerInfoManager
__ehhandler$?OpenGameServer@CDlgServerItem@@QAE_NG@Z:
  0000b	8b 54 24 08	 mov	 edx, DWORD PTR [esp+8]
  0000f	8d 42 0c	 lea	 eax, DWORD PTR [edx+12]
  00012	8b 8a fc f2 ff
	ff		 mov	 ecx, DWORD PTR [edx-3332]
  00018	33 c8		 xor	 ecx, eax
  0001a	e8 00 00 00 00	 call	 @__security_check_cookie@4
  0001f	8b 4a fc	 mov	 ecx, DWORD PTR [edx-4]
  00022	33 c8		 xor	 ecx, eax
  00024	e8 00 00 00 00	 call	 @__security_check_cookie@4
  00029	b8 00 00 00 00	 mov	 eax, OFFSET __ehfuncinfo$?OpenGameServer@CDlgServerItem@@QAE_NG@Z
  0002e	e9 00 00 00 00	 jmp	 ___CxxFrameHandler3
text$x	ENDS
?OpenGameServer@CDlgServerItem@@QAE_NG@Z ENDP		; CDlgServerItem::OpenGameServer
; Function compile flags: /Odtp /ZI
; File g:\网狐\happygamewh\服务端\系统模块\服务器组件\模块管理\dlgserveritem.cpp
;	COMDAT ?OpenGameServer@CDlgServerItem@@QAE_NXZ
_TEXT	SEGMENT
_this$ = -4						; size = 4
?OpenGameServer@CDlgServerItem@@QAE_NXZ PROC		; CDlgServerItem::OpenGameServer, COMDAT
; _this$ = ecx

; 83   : {

  00000	55		 push	 ebp
  00001	8b ec		 mov	 ebp, esp
  00003	83 ec 44	 sub	 esp, 68			; 00000044H
  00006	53		 push	 ebx
  00007	56		 push	 esi
  00008	57		 push	 edi
  00009	89 4d fc	 mov	 DWORD PTR _this$[ebp], ecx

; 84   : 	//设置资源
; 85   : 	AfxSetResourceHandle(GetModuleHandle(MODULE_MANAGER_DLL_NAME));

  0000c	68 00 00 00 00	 push	 OFFSET ??_C@_0BC@LFCAOGLK@ModuleManager?4dll@
  00011	ff 15 00 00 00
	00		 call	 DWORD PTR __imp__GetModuleHandleA@4
  00017	50		 push	 eax
  00018	e8 00 00 00 00	 call	 ?AfxSetResourceHandle@@YGXPAUHINSTANCE__@@@Z ; AfxSetResourceHandle

; 86   : 
; 87   : 	//配置房间
; 88   : 	if (DoModal()==IDC_LOAD_SERVER)

  0001d	8b 45 fc	 mov	 eax, DWORD PTR _this$[ebp]
  00020	8b 10		 mov	 edx, DWORD PTR [eax]
  00022	8b 4d fc	 mov	 ecx, DWORD PTR _this$[ebp]
  00025	8b 82 7c 01 00
	00		 mov	 eax, DWORD PTR [edx+380]
  0002b	ff d0		 call	 eax
  0002d	3d e8 03 00 00	 cmp	 eax, 1000		; 000003e8H
  00032	75 04		 jne	 SHORT $LN2@OpenGameSe

; 89   : 	{
; 90   : 		return true;

  00034	b0 01		 mov	 al, 1
  00036	eb 02		 jmp	 SHORT $LN1@OpenGameSe
$LN2@OpenGameSe:

; 91   : 	}
; 92   : 
; 93   : 	return false;

  00038	32 c0		 xor	 al, al
$LN1@OpenGameSe:

; 94   : }

  0003a	5f		 pop	 edi
  0003b	5e		 pop	 esi
  0003c	5b		 pop	 ebx
  0003d	8b e5		 mov	 esp, ebp
  0003f	5d		 pop	 ebp
  00040	c3		 ret	 0
?OpenGameServer@CDlgServerItem@@QAE_NXZ ENDP		; CDlgServerItem::OpenGameServer
_TEXT	ENDS
; Function compile flags: /Odtp /ZI
; File g:\网狐\happygamewh\服务端\系统模块\服务器组件\模块管理\dlgserveritem.cpp
;	COMDAT ?OnOK@CDlgServerItem@@MAEXXZ
_TEXT	SEGMENT
_this$ = -4						; size = 4
?OnOK@CDlgServerItem@@MAEXXZ PROC			; CDlgServerItem::OnOK, COMDAT
; _this$ = ecx

; 77   : {

  00000	55		 push	 ebp
  00001	8b ec		 mov	 ebp, esp
  00003	83 ec 44	 sub	 esp, 68			; 00000044H
  00006	53		 push	 ebx
  00007	56		 push	 esi
  00008	57		 push	 edi
  00009	89 4d fc	 mov	 DWORD PTR _this$[ebp], ecx

; 78   : 	return;
; 79   : }

  0000c	5f		 pop	 edi
  0000d	5e		 pop	 esi
  0000e	5b		 pop	 ebx
  0000f	8b e5		 mov	 esp, ebp
  00011	5d		 pop	 ebp
  00012	c3		 ret	 0
?OnOK@CDlgServerItem@@MAEXXZ ENDP			; CDlgServerItem::OnOK
_TEXT	ENDS
; Function compile flags: /Odtp /ZI
; File g:\网狐\happygamewh\服务端\系统模块\服务器组件\模块管理\dlgserveritem.cpp
;	COMDAT ?OnInitDialog@CDlgServerItem@@MAEHXZ
_TEXT	SEGMENT
_this$ = -4						; size = 4
?OnInitDialog@CDlgServerItem@@MAEHXZ PROC		; CDlgServerItem::OnInitDialog, COMDAT
; _this$ = ecx

; 63   : {

  00000	55		 push	 ebp
  00001	8b ec		 mov	 ebp, esp
  00003	83 ec 44	 sub	 esp, 68			; 00000044H
  00006	53		 push	 ebx
  00007	56		 push	 esi
  00008	57		 push	 edi
  00009	89 4d fc	 mov	 DWORD PTR _this$[ebp], ecx

; 64   : 	__super::OnInitDialog();

  0000c	8b 4d fc	 mov	 ecx, DWORD PTR _this$[ebp]
  0000f	e8 00 00 00 00	 call	 ?OnInitDialog@CDialog@@UAEHXZ ; CDialog::OnInitDialog

; 65   : 
; 66   : 	//设置资源
; 67   : 	AfxSetResourceHandle(GetModuleHandle(NULL));

  00014	6a 00		 push	 0
  00016	ff 15 00 00 00
	00		 call	 DWORD PTR __imp__GetModuleHandleA@4
  0001c	50		 push	 eax
  0001d	e8 00 00 00 00	 call	 ?AfxSetResourceHandle@@YGXPAUHINSTANCE__@@@Z ; AfxSetResourceHandle

; 68   : 
; 69   : 	//加载房间
; 70   : 	LoadDBServerItem();

  00022	8b 4d fc	 mov	 ecx, DWORD PTR _this$[ebp]
  00025	e8 00 00 00 00	 call	 ?LoadDBServerItem@CDlgServerItem@@IAE_NXZ ; CDlgServerItem::LoadDBServerItem

; 71   : 
; 72   : 	return TRUE;

  0002a	b8 01 00 00 00	 mov	 eax, 1

; 73   : }

  0002f	5f		 pop	 edi
  00030	5e		 pop	 esi
  00031	5b		 pop	 ebx
  00032	8b e5		 mov	 esp, ebp
  00034	5d		 pop	 ebp
  00035	c3		 ret	 0
?OnInitDialog@CDlgServerItem@@MAEHXZ ENDP		; CDlgServerItem::OnInitDialog
_TEXT	ENDS
; Function compile flags: /Odtp /ZI
; File g:\网狐\happygamewh\服务端\系统模块\服务器组件\模块管理\dlgserveritem.cpp
;	COMDAT ?PreTranslateMessage@CDlgServerItem@@MAEHPAUtagMSG@@@Z
_TEXT	SEGMENT
_this$ = -4						; size = 4
_pMsg$ = 8						; size = 4
?PreTranslateMessage@CDlgServerItem@@MAEHPAUtagMSG@@@Z PROC ; CDlgServerItem::PreTranslateMessage, COMDAT
; _this$ = ecx

; 51   : {

  00000	55		 push	 ebp
  00001	8b ec		 mov	 ebp, esp
  00003	83 ec 44	 sub	 esp, 68			; 00000044H
  00006	53		 push	 ebx
  00007	56		 push	 esi
  00008	57		 push	 edi
  00009	89 4d fc	 mov	 DWORD PTR _this$[ebp], ecx

; 52   : 	//按键过滤
; 53   : 	if ((pMsg->message==WM_KEYDOWN)&&(pMsg->wParam==VK_ESCAPE))

  0000c	8b 45 08	 mov	 eax, DWORD PTR _pMsg$[ebp]
  0000f	81 78 04 00 01
	00 00		 cmp	 DWORD PTR [eax+4], 256	; 00000100H
  00016	75 10		 jne	 SHORT $LN2@PreTransla
  00018	8b 45 08	 mov	 eax, DWORD PTR _pMsg$[ebp]
  0001b	83 78 08 1b	 cmp	 DWORD PTR [eax+8], 27	; 0000001bH
  0001f	75 07		 jne	 SHORT $LN2@PreTransla

; 54   : 	{
; 55   : 		return TRUE;

  00021	b8 01 00 00 00	 mov	 eax, 1
  00026	eb 0c		 jmp	 SHORT $LN1@PreTransla
$LN2@PreTransla:

; 56   : 	}
; 57   : 
; 58   : 	return __super::PreTranslateMessage(pMsg);

  00028	8b 45 08	 mov	 eax, DWORD PTR _pMsg$[ebp]
  0002b	50		 push	 eax
  0002c	8b 4d fc	 mov	 ecx, DWORD PTR _this$[ebp]
  0002f	e8 00 00 00 00	 call	 ?PreTranslateMessage@CDialog@@UAEHPAUtagMSG@@@Z ; CDialog::PreTranslateMessage
$LN1@PreTransla:

; 59   : }

  00034	5f		 pop	 edi
  00035	5e		 pop	 esi
  00036	5b		 pop	 ebx
  00037	8b e5		 mov	 esp, ebp
  00039	5d		 pop	 ebp
  0003a	c2 04 00	 ret	 4
?PreTranslateMessage@CDlgServerItem@@MAEHPAUtagMSG@@@Z ENDP ; CDlgServerItem::PreTranslateMessage
_TEXT	ENDS
; Function compile flags: /Odtp /ZI
; File g:\网狐\happygamewh\服务端\系统模块\服务器组件\模块管理\dlgserveritem.cpp
;	COMDAT ?DoDataExchange@CDlgServerItem@@MAEXPAVCDataExchange@@@Z
_TEXT	SEGMENT
_this$ = -4						; size = 4
_pDX$ = 8						; size = 4
?DoDataExchange@CDlgServerItem@@MAEXPAVCDataExchange@@@Z PROC ; CDlgServerItem::DoDataExchange, COMDAT
; _this$ = ecx

; 44   : {

  00000	55		 push	 ebp
  00001	8b ec		 mov	 ebp, esp
  00003	83 ec 44	 sub	 esp, 68			; 00000044H
  00006	53		 push	 ebx
  00007	56		 push	 esi
  00008	57		 push	 edi
  00009	89 4d fc	 mov	 DWORD PTR _this$[ebp], ecx

; 45   : 	__super::DoDataExchange(pDX);

  0000c	8b 45 08	 mov	 eax, DWORD PTR _pDX$[ebp]
  0000f	50		 push	 eax
  00010	8b 4d fc	 mov	 ecx, DWORD PTR _this$[ebp]
  00013	e8 00 00 00 00	 call	 ?DoDataExchange@CWnd@@MAEXPAVCDataExchange@@@Z ; CWnd::DoDataExchange

; 46   : 	DDX_Control(pDX, IDC_SERVER_LIST, m_ServerListControl);

  00018	8b 45 fc	 mov	 eax, DWORD PTR _this$[ebp]
  0001b	05 e0 00 00 00	 add	 eax, 224		; 000000e0H
  00020	50		 push	 eax
  00021	68 f4 03 00 00	 push	 1012			; 000003f4H
  00026	8b 4d 08	 mov	 ecx, DWORD PTR _pDX$[ebp]
  00029	51		 push	 ecx
  0002a	e8 00 00 00 00	 call	 ?DDX_Control@@YGXPAVCDataExchange@@HAAVCWnd@@@Z ; DDX_Control

; 47   : }

  0002f	5f		 pop	 edi
  00030	5e		 pop	 esi
  00031	5b		 pop	 ebx
  00032	8b e5		 mov	 esp, ebp
  00034	5d		 pop	 ebp
  00035	c2 04 00	 ret	 4
?DoDataExchange@CDlgServerItem@@MAEXPAVCDataExchange@@@Z ENDP ; CDlgServerItem::DoDataExchange
_TEXT	ENDS
; Function compile flags: /Odtp /ZI
; File g:\网狐\happygamewh\服务端\系统模块\服务器组件\模块管理\dlgserveritem.cpp
;	COMDAT ??1CDlgServerItem@@UAE@XZ
_TEXT	SEGMENT
_this$ = -4						; size = 4
??1CDlgServerItem@@UAE@XZ PROC				; CDlgServerItem::~CDlgServerItem, COMDAT
; _this$ = ecx

; 39   : {

  00000	55		 push	 ebp
  00001	8b ec		 mov	 ebp, esp
  00003	83 ec 44	 sub	 esp, 68			; 00000044H
  00006	53		 push	 ebx
  00007	56		 push	 esi
  00008	57		 push	 edi
  00009	89 4d fc	 mov	 DWORD PTR _this$[ebp], ecx
  0000c	8b 45 fc	 mov	 eax, DWORD PTR _this$[ebp]
  0000f	c7 00 00 00 00
	00		 mov	 DWORD PTR [eax], OFFSET ??_7CDlgServerItem@@6B@

; 40   : }

  00015	8b 4d fc	 mov	 ecx, DWORD PTR _this$[ebp]
  00018	81 c1 e0 00 00
	00		 add	 ecx, 224		; 000000e0H
  0001e	e8 00 00 00 00	 call	 ??1CServerListControl@@UAE@XZ ; CServerListControl::~CServerListControl
  00023	8b 4d fc	 mov	 ecx, DWORD PTR _this$[ebp]
  00026	81 c1 a8 00 00
	00		 add	 ecx, 168		; 000000a8H
  0002c	e8 00 00 00 00	 call	 ??1CServerInfoBuffer@@UAE@XZ ; CServerInfoBuffer::~CServerInfoBuffer
  00031	8b 4d fc	 mov	 ecx, DWORD PTR _this$[ebp]
  00034	e8 00 00 00 00	 call	 ??1CDialog@@UAE@XZ	; CDialog::~CDialog
  00039	5f		 pop	 edi
  0003a	5e		 pop	 esi
  0003b	5b		 pop	 ebx
  0003c	8b e5		 mov	 esp, ebp
  0003e	5d		 pop	 ebp
  0003f	c3		 ret	 0
??1CDlgServerItem@@UAE@XZ ENDP				; CDlgServerItem::~CDlgServerItem
_TEXT	ENDS
; Function compile flags: /Odtp /ZI
; File g:\网狐\happygamewh\服务端\系统模块\服务器组件\模块管理\dlgserveritem.cpp
;	COMDAT ??0CDlgServerItem@@QAE@XZ
_TEXT	SEGMENT
_this$ = -16						; size = 4
__$EHRec$ = -12						; size = 12
??0CDlgServerItem@@QAE@XZ PROC				; CDlgServerItem::CDlgServerItem, COMDAT
; _this$ = ecx

; 30   : {

  00000	55		 push	 ebp
  00001	8b ec		 mov	 ebp, esp
  00003	6a ff		 push	 -1
  00005	68 00 00 00 00	 push	 __ehhandler$??0CDlgServerItem@@QAE@XZ
  0000a	64 a1 00 00 00
	00		 mov	 eax, DWORD PTR fs:0
  00010	50		 push	 eax
  00011	83 ec 44	 sub	 esp, 68			; 00000044H
  00014	53		 push	 ebx
  00015	56		 push	 esi
  00016	57		 push	 edi
  00017	a1 00 00 00 00	 mov	 eax, DWORD PTR ___security_cookie
  0001c	33 c5		 xor	 eax, ebp
  0001e	50		 push	 eax
  0001f	8d 45 f4	 lea	 eax, DWORD PTR __$EHRec$[ebp]
  00022	64 a3 00 00 00
	00		 mov	 DWORD PTR fs:0, eax
  00028	89 4d f0	 mov	 DWORD PTR _this$[ebp], ecx

; 29   : CDlgServerItem::CDlgServerItem() : CDialog(IDD_SERVER_ITEM)

  0002b	6a 00		 push	 0
  0002d	68 81 00 00 00	 push	 129			; 00000081H
  00032	8b 4d f0	 mov	 ecx, DWORD PTR _this$[ebp]
  00035	e8 00 00 00 00	 call	 ??0CDialog@@QAE@IPAVCWnd@@@Z ; CDialog::CDialog
  0003a	c7 45 fc 00 00
	00 00		 mov	 DWORD PTR __$EHRec$[ebp+8], 0

; 30   : {

  00041	8b 45 f0	 mov	 eax, DWORD PTR _this$[ebp]
  00044	c7 00 00 00 00
	00		 mov	 DWORD PTR [eax], OFFSET ??_7CDlgServerItem@@6B@
  0004a	8b 4d f0	 mov	 ecx, DWORD PTR _this$[ebp]
  0004d	81 c1 a8 00 00
	00		 add	 ecx, 168		; 000000a8H
  00053	e8 00 00 00 00	 call	 ??0CServerInfoBuffer@@QAE@XZ ; CServerInfoBuffer::CServerInfoBuffer
  00058	c6 45 fc 01	 mov	 BYTE PTR __$EHRec$[ebp+8], 1
  0005c	8b 4d f0	 mov	 ecx, DWORD PTR _this$[ebp]
  0005f	81 c1 e0 00 00
	00		 add	 ecx, 224		; 000000e0H
  00065	e8 00 00 00 00	 call	 ??0CServerListControl@@QAE@XZ ; CServerListControl::CServerListControl
  0006a	c6 45 fc 02	 mov	 BYTE PTR __$EHRec$[ebp+8], 2
  0006e	8b 4d f0	 mov	 ecx, DWORD PTR _this$[ebp]
  00071	81 c1 e8 01 00
	00		 add	 ecx, 488		; 000001e8H
  00077	e8 00 00 00 00	 call	 ??0tagModuleInitParameter@@QAE@XZ

; 31   : 	//模块参数
; 32   : 	ZeroMemory(&m_ModuleInitParameter,sizeof(m_ModuleInitParameter));

  0007c	68 38 0d 00 00	 push	 3384			; 00000d38H
  00081	6a 00		 push	 0
  00083	8b 45 f0	 mov	 eax, DWORD PTR _this$[ebp]
  00086	05 e8 01 00 00	 add	 eax, 488		; 000001e8H
  0008b	50		 push	 eax
  0008c	e8 00 00 00 00	 call	 _memset
  00091	83 c4 0c	 add	 esp, 12			; 0000000cH

; 33   : 
; 34   : 	return;
; 35   : }

  00094	c7 45 fc ff ff
	ff ff		 mov	 DWORD PTR __$EHRec$[ebp+8], -1
  0009b	8b 45 f0	 mov	 eax, DWORD PTR _this$[ebp]
  0009e	8b 4d f4	 mov	 ecx, DWORD PTR __$EHRec$[ebp]
  000a1	64 89 0d 00 00
	00 00		 mov	 DWORD PTR fs:0, ecx
  000a8	59		 pop	 ecx
  000a9	5f		 pop	 edi
  000aa	5e		 pop	 esi
  000ab	5b		 pop	 ebx
  000ac	8b e5		 mov	 esp, ebp
  000ae	5d		 pop	 ebp
  000af	c3		 ret	 0
_TEXT	ENDS
;	COMDAT text$x
text$x	SEGMENT
__unwindfunclet$??0CDlgServerItem@@QAE@XZ$0:
  00000	8b 4d f0	 mov	 ecx, DWORD PTR _this$[ebp]
  00003	e9 00 00 00 00	 jmp	 ??1CDialog@@UAE@XZ	; CDialog::~CDialog
__unwindfunclet$??0CDlgServerItem@@QAE@XZ$1:
  00008	8b 4d f0	 mov	 ecx, DWORD PTR _this$[ebp]
  0000b	81 c1 a8 00 00
	00		 add	 ecx, 168		; 000000a8H
  00011	e9 00 00 00 00	 jmp	 ??1CServerInfoBuffer@@UAE@XZ ; CServerInfoBuffer::~CServerInfoBuffer
__unwindfunclet$??0CDlgServerItem@@QAE@XZ$2:
  00016	8b 4d f0	 mov	 ecx, DWORD PTR _this$[ebp]
  00019	81 c1 e0 00 00
	00		 add	 ecx, 224		; 000000e0H
  0001f	e9 00 00 00 00	 jmp	 ??1CServerListControl@@UAE@XZ ; CServerListControl::~CServerListControl
__ehhandler$??0CDlgServerItem@@QAE@XZ:
  00024	8b 54 24 08	 mov	 edx, DWORD PTR [esp+8]
  00028	8d 42 0c	 lea	 eax, DWORD PTR [edx+12]
  0002b	8b 4a ac	 mov	 ecx, DWORD PTR [edx-84]
  0002e	33 c8		 xor	 ecx, eax
  00030	e8 00 00 00 00	 call	 @__security_check_cookie@4
  00035	b8 00 00 00 00	 mov	 eax, OFFSET __ehfuncinfo$??0CDlgServerItem@@QAE@XZ
  0003a	e9 00 00 00 00	 jmp	 ___CxxFrameHandler3
text$x	ENDS
??0CDlgServerItem@@QAE@XZ ENDP				; CDlgServerItem::CDlgServerItem
; Function compile flags: /Odtp /ZI
;	COMDAT ??_ECServerInfoManager@@UAEPAXI@Z
_TEXT	SEGMENT
_this$ = -16						; size = 4
__$EHRec$ = -12						; size = 12
___flags$ = 8						; size = 4
??_ECServerInfoManager@@UAEPAXI@Z PROC			; CServerInfoManager::`vector deleting destructor', COMDAT
; _this$ = ecx
  00000	55		 push	 ebp
  00001	8b ec		 mov	 ebp, esp
  00003	6a ff		 push	 -1
  00005	68 00 00 00 00	 push	 __ehhandler$??_ECServerInfoManager@@UAEPAXI@Z
  0000a	64 a1 00 00 00
	00		 mov	 eax, DWORD PTR fs:0
  00010	50		 push	 eax
  00011	83 ec 44	 sub	 esp, 68			; 00000044H
  00014	53		 push	 ebx
  00015	56		 push	 esi
  00016	57		 push	 edi
  00017	a1 00 00 00 00	 mov	 eax, DWORD PTR ___security_cookie
  0001c	33 c5		 xor	 eax, ebp
  0001e	50		 push	 eax
  0001f	8d 45 f4	 lea	 eax, DWORD PTR __$EHRec$[ebp]
  00022	64 a3 00 00 00
	00		 mov	 DWORD PTR fs:0, eax
  00028	89 4d f0	 mov	 DWORD PTR _this$[ebp], ecx
  0002b	8b 45 08	 mov	 eax, DWORD PTR ___flags$[ebp]
  0002e	83 e0 02	 and	 eax, 2
  00031	74 47		 je	 SHORT $LN2@vector
  00033	68 00 00 00 00	 push	 OFFSET ??1CServerInfoManager@@UAE@XZ ; CServerInfoManager::~CServerInfoManager
  00038	8b 45 f0	 mov	 eax, DWORD PTR _this$[ebp]
  0003b	8b 48 fc	 mov	 ecx, DWORD PTR [eax-4]
  0003e	51		 push	 ecx
  0003f	68 ec 00 00 00	 push	 236			; 000000ecH
  00044	8b 55 f0	 mov	 edx, DWORD PTR _this$[ebp]
  00047	52		 push	 edx
  00048	e8 00 00 00 00	 call	 ??_M@YGXPAXIIP6EX0@Z@Z
  0004d	8b 45 08	 mov	 eax, DWORD PTR ___flags$[ebp]
  00050	83 e0 01	 and	 eax, 1
  00053	74 1d		 je	 SHORT $LN3@vector
  00055	8b 45 f0	 mov	 eax, DWORD PTR _this$[ebp]
  00058	69 48 fc ec 00
	00 00		 imul	 ecx, DWORD PTR [eax-4], 236
  0005f	83 c1 04	 add	 ecx, 4
  00062	51		 push	 ecx
  00063	8b 55 f0	 mov	 edx, DWORD PTR _this$[ebp]
  00066	83 ea 04	 sub	 edx, 4
  00069	52		 push	 edx
  0006a	e8 00 00 00 00	 call	 ??_V@YAXPAXI@Z		; operator delete[]
  0006f	83 c4 08	 add	 esp, 8
$LN3@vector:
  00072	8b 45 f0	 mov	 eax, DWORD PTR _this$[ebp]
  00075	83 e8 04	 sub	 eax, 4
  00078	eb 24		 jmp	 SHORT $LN5@vector
$LN2@vector:
  0007a	8b 4d f0	 mov	 ecx, DWORD PTR _this$[ebp]
  0007d	e8 00 00 00 00	 call	 ??1CServerInfoManager@@UAE@XZ ; CServerInfoManager::~CServerInfoManager
  00082	8b 45 08	 mov	 eax, DWORD PTR ___flags$[ebp]
  00085	83 e0 01	 and	 eax, 1
  00088	74 11		 je	 SHORT $LN4@vector
  0008a	68 ec 00 00 00	 push	 236			; 000000ecH
  0008f	8b 45 f0	 mov	 eax, DWORD PTR _this$[ebp]
  00092	50		 push	 eax
  00093	e8 00 00 00 00	 call	 ??3@YAXPAXI@Z		; operator delete
  00098	83 c4 08	 add	 esp, 8
$LN4@vector:
  0009b	8b 45 f0	 mov	 eax, DWORD PTR _this$[ebp]
$LN5@vector:
  0009e	8b 4d f4	 mov	 ecx, DWORD PTR __$EHRec$[ebp]
  000a1	64 89 0d 00 00
	00 00		 mov	 DWORD PTR fs:0, ecx
  000a8	59		 pop	 ecx
  000a9	5f		 pop	 edi
  000aa	5e		 pop	 esi
  000ab	5b		 pop	 ebx
  000ac	8b e5		 mov	 esp, ebp
  000ae	5d		 pop	 ebp
  000af	c2 04 00	 ret	 4
_TEXT	ENDS
;	COMDAT text$x
text$x	SEGMENT
__ehhandler$??_ECServerInfoManager@@UAEPAXI@Z:
  00000	8b 54 24 08	 mov	 edx, DWORD PTR [esp+8]
  00004	8d 42 0c	 lea	 eax, DWORD PTR [edx+12]
  00007	8b 4a ac	 mov	 ecx, DWORD PTR [edx-84]
  0000a	33 c8		 xor	 ecx, eax
  0000c	e8 00 00 00 00	 call	 @__security_check_cookie@4
  00011	b8 00 00 00 00	 mov	 eax, OFFSET __ehfuncinfo$??_ECServerInfoManager@@UAEPAXI@Z
  00016	e9 00 00 00 00	 jmp	 ___CxxFrameHandler3
text$x	ENDS
??_ECServerInfoManager@@UAEPAXI@Z ENDP			; CServerInfoManager::`vector deleting destructor'
; Function compile flags: /Odtp /ZI
;	COMDAT ??_GCServerInfoManager@@UAEPAXI@Z
_TEXT	SEGMENT
_this$ = -4						; size = 4
___flags$ = 8						; size = 4
??_GCServerInfoManager@@UAEPAXI@Z PROC			; CServerInfoManager::`scalar deleting destructor', COMDAT
; _this$ = ecx
  00000	55		 push	 ebp
  00001	8b ec		 mov	 ebp, esp
  00003	83 ec 44	 sub	 esp, 68			; 00000044H
  00006	53		 push	 ebx
  00007	56		 push	 esi
  00008	57		 push	 edi
  00009	89 4d fc	 mov	 DWORD PTR _this$[ebp], ecx
  0000c	8b 4d fc	 mov	 ecx, DWORD PTR _this$[ebp]
  0000f	e8 00 00 00 00	 call	 ??1CServerInfoManager@@UAE@XZ ; CServerInfoManager::~CServerInfoManager
  00014	8b 45 08	 mov	 eax, DWORD PTR ___flags$[ebp]
  00017	83 e0 01	 and	 eax, 1
  0001a	74 11		 je	 SHORT $LN2@scalar
  0001c	68 ec 00 00 00	 push	 236			; 000000ecH
  00021	8b 45 fc	 mov	 eax, DWORD PTR _this$[ebp]
  00024	50		 push	 eax
  00025	e8 00 00 00 00	 call	 ??3@YAXPAXI@Z		; operator delete
  0002a	83 c4 08	 add	 esp, 8
$LN2@scalar:
  0002d	8b 45 fc	 mov	 eax, DWORD PTR _this$[ebp]
  00030	5f		 pop	 edi
  00031	5e		 pop	 esi
  00032	5b		 pop	 ebx
  00033	8b e5		 mov	 esp, ebp
  00035	5d		 pop	 ebp
  00036	c2 04 00	 ret	 4
??_GCServerInfoManager@@UAEPAXI@Z ENDP			; CServerInfoManager::`scalar deleting destructor'
_TEXT	ENDS
; Function compile flags: /Odtp /ZI
;	COMDAT ??4CServerInfoManager@@QAEAAV0@ABV0@@Z
_TEXT	SEGMENT
_this$ = -4						; size = 4
___that$ = 8						; size = 4
??4CServerInfoManager@@QAEAAV0@ABV0@@Z PROC		; CServerInfoManager::operator=, COMDAT
; _this$ = ecx
  00000	55		 push	 ebp
  00001	8b ec		 mov	 ebp, esp
  00003	83 ec 44	 sub	 esp, 68			; 00000044H
  00006	53		 push	 ebx
  00007	56		 push	 esi
  00008	57		 push	 edi
  00009	89 4d fc	 mov	 DWORD PTR _this$[ebp], ecx
  0000c	8b 75 08	 mov	 esi, DWORD PTR ___that$[ebp]
  0000f	83 c6 04	 add	 esi, 4
  00012	8b 7d fc	 mov	 edi, DWORD PTR _this$[ebp]
  00015	83 c7 04	 add	 edi, 4
  00018	b9 1c 00 00 00	 mov	 ecx, 28			; 0000001cH
  0001d	f3 a5		 rep movsd
  0001f	a4		 movsb
  00020	8b 75 08	 mov	 esi, DWORD PTR ___that$[ebp]
  00023	83 c6 75	 add	 esi, 117		; 00000075H
  00026	8b 7d fc	 mov	 edi, DWORD PTR _this$[ebp]
  00029	83 c7 75	 add	 edi, 117		; 00000075H
  0002c	b9 1d 00 00 00	 mov	 ecx, 29			; 0000001dH
  00031	f3 a5		 rep movsd
  00033	8b 45 fc	 mov	 eax, DWORD PTR _this$[ebp]
  00036	5f		 pop	 edi
  00037	5e		 pop	 esi
  00038	5b		 pop	 ebx
  00039	8b e5		 mov	 esp, ebp
  0003b	5d		 pop	 ebp
  0003c	c2 04 00	 ret	 4
??4CServerInfoManager@@QAEAAV0@ABV0@@Z ENDP		; CServerInfoManager::operator=
_TEXT	ENDS
; Function compile flags: /Odtp /ZI
;	COMDAT ??0CServerInfoManager@@QAE@ABV0@@Z
_TEXT	SEGMENT
_this$ = -4						; size = 4
___that$ = 8						; size = 4
??0CServerInfoManager@@QAE@ABV0@@Z PROC			; CServerInfoManager::CServerInfoManager, COMDAT
; _this$ = ecx
  00000	55		 push	 ebp
  00001	8b ec		 mov	 ebp, esp
  00003	83 ec 44	 sub	 esp, 68			; 00000044H
  00006	53		 push	 ebx
  00007	56		 push	 esi
  00008	57		 push	 edi
  00009	89 4d fc	 mov	 DWORD PTR _this$[ebp], ecx
  0000c	8b 45 fc	 mov	 eax, DWORD PTR _this$[ebp]
  0000f	c7 00 00 00 00
	00		 mov	 DWORD PTR [eax], OFFSET ??_7CServerInfoManager@@6B@
  00015	8b 75 08	 mov	 esi, DWORD PTR ___that$[ebp]
  00018	83 c6 04	 add	 esi, 4
  0001b	8b 7d fc	 mov	 edi, DWORD PTR _this$[ebp]
  0001e	83 c7 04	 add	 edi, 4
  00021	b9 1c 00 00 00	 mov	 ecx, 28			; 0000001cH
  00026	f3 a5		 rep movsd
  00028	a4		 movsb
  00029	8b 75 08	 mov	 esi, DWORD PTR ___that$[ebp]
  0002c	83 c6 75	 add	 esi, 117		; 00000075H
  0002f	8b 7d fc	 mov	 edi, DWORD PTR _this$[ebp]
  00032	83 c7 75	 add	 edi, 117		; 00000075H
  00035	b9 1d 00 00 00	 mov	 ecx, 29			; 0000001dH
  0003a	f3 a5		 rep movsd
  0003c	8b 45 fc	 mov	 eax, DWORD PTR _this$[ebp]
  0003f	5f		 pop	 edi
  00040	5e		 pop	 esi
  00041	5b		 pop	 ebx
  00042	8b e5		 mov	 esp, ebp
  00044	5d		 pop	 ebp
  00045	c2 04 00	 ret	 4
??0CServerInfoManager@@QAE@ABV0@@Z ENDP			; CServerInfoManager::CServerInfoManager
_TEXT	ENDS
; Function compile flags: /Odtp /ZI
;	COMDAT ??_ECMatchOptionBuffer@@UAEPAXI@Z
_TEXT	SEGMENT
_this$ = -16						; size = 4
__$EHRec$ = -12						; size = 12
___flags$ = 8						; size = 4
??_ECMatchOptionBuffer@@UAEPAXI@Z PROC			; CMatchOptionBuffer::`vector deleting destructor', COMDAT
; _this$ = ecx
  00000	55		 push	 ebp
  00001	8b ec		 mov	 ebp, esp
  00003	6a ff		 push	 -1
  00005	68 00 00 00 00	 push	 __ehhandler$??_ECMatchOptionBuffer@@UAEPAXI@Z
  0000a	64 a1 00 00 00
	00		 mov	 eax, DWORD PTR fs:0
  00010	50		 push	 eax
  00011	83 ec 44	 sub	 esp, 68			; 00000044H
  00014	53		 push	 ebx
  00015	56		 push	 esi
  00016	57		 push	 edi
  00017	a1 00 00 00 00	 mov	 eax, DWORD PTR ___security_cookie
  0001c	33 c5		 xor	 eax, ebp
  0001e	50		 push	 eax
  0001f	8d 45 f4	 lea	 eax, DWORD PTR __$EHRec$[ebp]
  00022	64 a3 00 00 00
	00		 mov	 DWORD PTR fs:0, eax
  00028	89 4d f0	 mov	 DWORD PTR _this$[ebp], ecx
  0002b	8b 45 08	 mov	 eax, DWORD PTR ___flags$[ebp]
  0002e	83 e0 02	 and	 eax, 2
  00031	74 41		 je	 SHORT $LN2@vector
  00033	68 00 00 00 00	 push	 OFFSET ??1CMatchOptionBuffer@@UAE@XZ ; CMatchOptionBuffer::~CMatchOptionBuffer
  00038	8b 45 f0	 mov	 eax, DWORD PTR _this$[ebp]
  0003b	8b 48 fc	 mov	 ecx, DWORD PTR [eax-4]
  0003e	51		 push	 ecx
  0003f	6a 2c		 push	 44			; 0000002cH
  00041	8b 55 f0	 mov	 edx, DWORD PTR _this$[ebp]
  00044	52		 push	 edx
  00045	e8 00 00 00 00	 call	 ??_M@YGXPAXIIP6EX0@Z@Z
  0004a	8b 45 08	 mov	 eax, DWORD PTR ___flags$[ebp]
  0004d	83 e0 01	 and	 eax, 1
  00050	74 1a		 je	 SHORT $LN3@vector
  00052	8b 45 f0	 mov	 eax, DWORD PTR _this$[ebp]
  00055	6b 48 fc 2c	 imul	 ecx, DWORD PTR [eax-4], 44
  00059	83 c1 04	 add	 ecx, 4
  0005c	51		 push	 ecx
  0005d	8b 55 f0	 mov	 edx, DWORD PTR _this$[ebp]
  00060	83 ea 04	 sub	 edx, 4
  00063	52		 push	 edx
  00064	e8 00 00 00 00	 call	 ??_V@YAXPAXI@Z		; operator delete[]
  00069	83 c4 08	 add	 esp, 8
$LN3@vector:
  0006c	8b 45 f0	 mov	 eax, DWORD PTR _this$[ebp]
  0006f	83 e8 04	 sub	 eax, 4
  00072	eb 21		 jmp	 SHORT $LN5@vector
$LN2@vector:
  00074	8b 4d f0	 mov	 ecx, DWORD PTR _this$[ebp]
  00077	e8 00 00 00 00	 call	 ??1CMatchOptionBuffer@@UAE@XZ ; CMatchOptionBuffer::~CMatchOptionBuffer
  0007c	8b 45 08	 mov	 eax, DWORD PTR ___flags$[ebp]
  0007f	83 e0 01	 and	 eax, 1
  00082	74 0e		 je	 SHORT $LN4@vector
  00084	6a 2c		 push	 44			; 0000002cH
  00086	8b 45 f0	 mov	 eax, DWORD PTR _this$[ebp]
  00089	50		 push	 eax
  0008a	e8 00 00 00 00	 call	 ??3@YAXPAXI@Z		; operator delete
  0008f	83 c4 08	 add	 esp, 8
$LN4@vector:
  00092	8b 45 f0	 mov	 eax, DWORD PTR _this$[ebp]
$LN5@vector:
  00095	8b 4d f4	 mov	 ecx, DWORD PTR __$EHRec$[ebp]
  00098	64 89 0d 00 00
	00 00		 mov	 DWORD PTR fs:0, ecx
  0009f	59		 pop	 ecx
  000a0	5f		 pop	 edi
  000a1	5e		 pop	 esi
  000a2	5b		 pop	 ebx
  000a3	8b e5		 mov	 esp, ebp
  000a5	5d		 pop	 ebp
  000a6	c2 04 00	 ret	 4
_TEXT	ENDS
;	COMDAT text$x
text$x	SEGMENT
__ehhandler$??_ECMatchOptionBuffer@@UAEPAXI@Z:
  00000	8b 54 24 08	 mov	 edx, DWORD PTR [esp+8]
  00004	8d 42 0c	 lea	 eax, DWORD PTR [edx+12]
  00007	8b 4a ac	 mov	 ecx, DWORD PTR [edx-84]
  0000a	33 c8		 xor	 ecx, eax
  0000c	e8 00 00 00 00	 call	 @__security_check_cookie@4
  00011	b8 00 00 00 00	 mov	 eax, OFFSET __ehfuncinfo$??_ECMatchOptionBuffer@@UAEPAXI@Z
  00016	e9 00 00 00 00	 jmp	 ___CxxFrameHandler3
text$x	ENDS
??_ECMatchOptionBuffer@@UAEPAXI@Z ENDP			; CMatchOptionBuffer::`vector deleting destructor'
; Function compile flags: /Odtp /ZI
;	COMDAT ??_GCMatchOptionBuffer@@UAEPAXI@Z
_TEXT	SEGMENT
_this$ = -4						; size = 4
___flags$ = 8						; size = 4
??_GCMatchOptionBuffer@@UAEPAXI@Z PROC			; CMatchOptionBuffer::`scalar deleting destructor', COMDAT
; _this$ = ecx
  00000	55		 push	 ebp
  00001	8b ec		 mov	 ebp, esp
  00003	83 ec 44	 sub	 esp, 68			; 00000044H
  00006	53		 push	 ebx
  00007	56		 push	 esi
  00008	57		 push	 edi
  00009	89 4d fc	 mov	 DWORD PTR _this$[ebp], ecx
  0000c	8b 4d fc	 mov	 ecx, DWORD PTR _this$[ebp]
  0000f	e8 00 00 00 00	 call	 ??1CMatchOptionBuffer@@UAE@XZ ; CMatchOptionBuffer::~CMatchOptionBuffer
  00014	8b 45 08	 mov	 eax, DWORD PTR ___flags$[ebp]
  00017	83 e0 01	 and	 eax, 1
  0001a	74 0e		 je	 SHORT $LN2@scalar
  0001c	6a 2c		 push	 44			; 0000002cH
  0001e	8b 45 fc	 mov	 eax, DWORD PTR _this$[ebp]
  00021	50		 push	 eax
  00022	e8 00 00 00 00	 call	 ??3@YAXPAXI@Z		; operator delete
  00027	83 c4 08	 add	 esp, 8
$LN2@scalar:
  0002a	8b 45 fc	 mov	 eax, DWORD PTR _this$[ebp]
  0002d	5f		 pop	 edi
  0002e	5e		 pop	 esi
  0002f	5b		 pop	 ebx
  00030	8b e5		 mov	 esp, ebp
  00032	5d		 pop	 ebp
  00033	c2 04 00	 ret	 4
??_GCMatchOptionBuffer@@UAEPAXI@Z ENDP			; CMatchOptionBuffer::`scalar deleting destructor'
_TEXT	ENDS
; Function compile flags: /Odtp /ZI
;	COMDAT ??4CMatchOptionBuffer@@QAEAAV0@ABV0@@Z
_TEXT	SEGMENT
_this$ = -4						; size = 4
___that$ = 8						; size = 4
??4CMatchOptionBuffer@@QAEAAV0@ABV0@@Z PROC		; CMatchOptionBuffer::operator=, COMDAT
; _this$ = ecx
  00000	55		 push	 ebp
  00001	8b ec		 mov	 ebp, esp
  00003	83 ec 44	 sub	 esp, 68			; 00000044H
  00006	53		 push	 ebx
  00007	56		 push	 esi
  00008	57		 push	 edi
  00009	89 4d fc	 mov	 DWORD PTR _this$[ebp], ecx
  0000c	8b 45 08	 mov	 eax, DWORD PTR ___that$[ebp]
  0000f	83 c0 04	 add	 eax, 4
  00012	50		 push	 eax
  00013	8b 4d fc	 mov	 ecx, DWORD PTR _this$[ebp]
  00016	83 c1 04	 add	 ecx, 4
  00019	e8 00 00 00 00	 call	 ??4?$CWHArray@PAUtagGameMatchOption@@ABQAU1@@@QAEAAV0@ABV0@@Z
  0001e	8b 45 08	 mov	 eax, DWORD PTR ___that$[ebp]
  00021	83 c0 18	 add	 eax, 24			; 00000018H
  00024	50		 push	 eax
  00025	8b 4d fc	 mov	 ecx, DWORD PTR _this$[ebp]
  00028	83 c1 18	 add	 ecx, 24			; 00000018H
  0002b	e8 00 00 00 00	 call	 ??4?$CWHArray@PAUtagGameMatchOption@@ABQAU1@@@QAEAAV0@ABV0@@Z
  00030	8b 45 fc	 mov	 eax, DWORD PTR _this$[ebp]
  00033	5f		 pop	 edi
  00034	5e		 pop	 esi
  00035	5b		 pop	 ebx
  00036	8b e5		 mov	 esp, ebp
  00038	5d		 pop	 ebp
  00039	c2 04 00	 ret	 4
??4CMatchOptionBuffer@@QAEAAV0@ABV0@@Z ENDP		; CMatchOptionBuffer::operator=
_TEXT	ENDS
; Function compile flags: /Odtp /ZI
;	COMDAT ??0CMatchOptionBuffer@@QAE@ABV0@@Z
_TEXT	SEGMENT
_this$ = -4						; size = 4
___that$ = 8						; size = 4
??0CMatchOptionBuffer@@QAE@ABV0@@Z PROC			; CMatchOptionBuffer::CMatchOptionBuffer, COMDAT
; _this$ = ecx
  00000	55		 push	 ebp
  00001	8b ec		 mov	 ebp, esp
  00003	83 ec 44	 sub	 esp, 68			; 00000044H
  00006	53		 push	 ebx
  00007	56		 push	 esi
  00008	57		 push	 edi
  00009	89 4d fc	 mov	 DWORD PTR _this$[ebp], ecx
  0000c	8b 45 fc	 mov	 eax, DWORD PTR _this$[ebp]
  0000f	c7 00 00 00 00
	00		 mov	 DWORD PTR [eax], OFFSET ??_7CMatchOptionBuffer@@6B@
  00015	8b 45 08	 mov	 eax, DWORD PTR ___that$[ebp]
  00018	83 c0 04	 add	 eax, 4
  0001b	50		 push	 eax
  0001c	8b 4d fc	 mov	 ecx, DWORD PTR _this$[ebp]
  0001f	83 c1 04	 add	 ecx, 4
  00022	e8 00 00 00 00	 call	 ??0?$CWHArray@PAUtagGameMatchOption@@ABQAU1@@@QAE@ABV0@@Z
  00027	8b 45 08	 mov	 eax, DWORD PTR ___that$[ebp]
  0002a	83 c0 18	 add	 eax, 24			; 00000018H
  0002d	50		 push	 eax
  0002e	8b 4d fc	 mov	 ecx, DWORD PTR _this$[ebp]
  00031	83 c1 18	 add	 ecx, 24			; 00000018H
  00034	e8 00 00 00 00	 call	 ??0?$CWHArray@PAUtagGameMatchOption@@ABQAU1@@@QAE@ABV0@@Z
  00039	8b 45 fc	 mov	 eax, DWORD PTR _this$[ebp]
  0003c	5f		 pop	 edi
  0003d	5e		 pop	 esi
  0003e	5b		 pop	 ebx
  0003f	8b e5		 mov	 esp, ebp
  00041	5d		 pop	 ebp
  00042	c2 04 00	 ret	 4
??0CMatchOptionBuffer@@QAE@ABV0@@Z ENDP			; CMatchOptionBuffer::CMatchOptionBuffer
_TEXT	ENDS
; Function compile flags: /Odtp /ZI
;	COMDAT ??_G?$CWHArray@PAUtagGameMatchOption@@ABQAU1@@@UAEPAXI@Z
_TEXT	SEGMENT
_this$ = -4						; size = 4
___flags$ = 8						; size = 4
??_G?$CWHArray@PAUtagGameMatchOption@@ABQAU1@@@UAEPAXI@Z PROC ; CWHArray<tagGameMatchOption *,tagGameMatchOption * const &>::`scalar deleting destructor', COMDAT
; _this$ = ecx
  00000	55		 push	 ebp
  00001	8b ec		 mov	 ebp, esp
  00003	83 ec 44	 sub	 esp, 68			; 00000044H
  00006	53		 push	 ebx
  00007	56		 push	 esi
  00008	57		 push	 edi
  00009	89 4d fc	 mov	 DWORD PTR _this$[ebp], ecx
  0000c	8b 4d fc	 mov	 ecx, DWORD PTR _this$[ebp]
  0000f	e8 00 00 00 00	 call	 ??1?$CWHArray@PAUtagGameMatchOption@@ABQAU1@@@UAE@XZ ; CWHArray<tagGameMatchOption *,tagGameMatchOption * const &>::~CWHArray<tagGameMatchOption *,tagGameMatchOption * const &>
  00014	8b 45 08	 mov	 eax, DWORD PTR ___flags$[ebp]
  00017	83 e0 01	 and	 eax, 1
  0001a	74 0e		 je	 SHORT $LN2@scalar
  0001c	6a 14		 push	 20			; 00000014H
  0001e	8b 45 fc	 mov	 eax, DWORD PTR _this$[ebp]
  00021	50		 push	 eax
  00022	e8 00 00 00 00	 call	 ??3@YAXPAXI@Z		; operator delete
  00027	83 c4 08	 add	 esp, 8
$LN2@scalar:
  0002a	8b 45 fc	 mov	 eax, DWORD PTR _this$[ebp]
  0002d	5f		 pop	 edi
  0002e	5e		 pop	 esi
  0002f	5b		 pop	 ebx
  00030	8b e5		 mov	 esp, ebp
  00032	5d		 pop	 ebp
  00033	c2 04 00	 ret	 4
??_G?$CWHArray@PAUtagGameMatchOption@@ABQAU1@@@UAEPAXI@Z ENDP ; CWHArray<tagGameMatchOption *,tagGameMatchOption * const &>::`scalar deleting destructor'
_TEXT	ENDS
; Function compile flags: /Odtp /ZI
;	COMDAT ??4?$CWHArray@PAUtagGameMatchOption@@ABQAU1@@@QAEAAV0@ABV0@@Z
_TEXT	SEGMENT
_this$ = -4						; size = 4
___that$ = 8						; size = 4
??4?$CWHArray@PAUtagGameMatchOption@@ABQAU1@@@QAEAAV0@ABV0@@Z PROC ; CWHArray<tagGameMatchOption *,tagGameMatchOption * const &>::operator=, COMDAT
; _this$ = ecx
  00000	55		 push	 ebp
  00001	8b ec		 mov	 ebp, esp
  00003	83 ec 44	 sub	 esp, 68			; 00000044H
  00006	53		 push	 ebx
  00007	56		 push	 esi
  00008	57		 push	 edi
  00009	89 4d fc	 mov	 DWORD PTR _this$[ebp], ecx
  0000c	8b 45 fc	 mov	 eax, DWORD PTR _this$[ebp]
  0000f	8b 4d 08	 mov	 ecx, DWORD PTR ___that$[ebp]
  00012	8b 51 04	 mov	 edx, DWORD PTR [ecx+4]
  00015	89 50 04	 mov	 DWORD PTR [eax+4], edx
  00018	8b 45 fc	 mov	 eax, DWORD PTR _this$[ebp]
  0001b	8b 4d 08	 mov	 ecx, DWORD PTR ___that$[ebp]
  0001e	8b 51 08	 mov	 edx, DWORD PTR [ecx+8]
  00021	89 50 08	 mov	 DWORD PTR [eax+8], edx
  00024	8b 45 fc	 mov	 eax, DWORD PTR _this$[ebp]
  00027	8b 4d 08	 mov	 ecx, DWORD PTR ___that$[ebp]
  0002a	8b 51 0c	 mov	 edx, DWORD PTR [ecx+12]
  0002d	89 50 0c	 mov	 DWORD PTR [eax+12], edx
  00030	8b 45 fc	 mov	 eax, DWORD PTR _this$[ebp]
  00033	8b 4d 08	 mov	 ecx, DWORD PTR ___that$[ebp]
  00036	8b 51 10	 mov	 edx, DWORD PTR [ecx+16]
  00039	89 50 10	 mov	 DWORD PTR [eax+16], edx
  0003c	8b 45 fc	 mov	 eax, DWORD PTR _this$[ebp]
  0003f	5f		 pop	 edi
  00040	5e		 pop	 esi
  00041	5b		 pop	 ebx
  00042	8b e5		 mov	 esp, ebp
  00044	5d		 pop	 ebp
  00045	c2 04 00	 ret	 4
??4?$CWHArray@PAUtagGameMatchOption@@ABQAU1@@@QAEAAV0@ABV0@@Z ENDP ; CWHArray<tagGameMatchOption *,tagGameMatchOption * const &>::operator=
_TEXT	ENDS
; Function compile flags: /Odtp /ZI
;	COMDAT ??0?$CWHArray@PAUtagGameMatchOption@@ABQAU1@@@QAE@ABV0@@Z
_TEXT	SEGMENT
_this$ = -4						; size = 4
___that$ = 8						; size = 4
??0?$CWHArray@PAUtagGameMatchOption@@ABQAU1@@@QAE@ABV0@@Z PROC ; CWHArray<tagGameMatchOption *,tagGameMatchOption * const &>::CWHArray<tagGameMatchOption *,tagGameMatchOption * const &>, COMDAT
; _this$ = ecx
  00000	55		 push	 ebp
  00001	8b ec		 mov	 ebp, esp
  00003	83 ec 44	 sub	 esp, 68			; 00000044H
  00006	53		 push	 ebx
  00007	56		 push	 esi
  00008	57		 push	 edi
  00009	89 4d fc	 mov	 DWORD PTR _this$[ebp], ecx
  0000c	8b 45 fc	 mov	 eax, DWORD PTR _this$[ebp]
  0000f	c7 00 00 00 00
	00		 mov	 DWORD PTR [eax], OFFSET ??_7?$CWHArray@PAUtagGameMatchOption@@ABQAU1@@@6B@
  00015	8b 45 fc	 mov	 eax, DWORD PTR _this$[ebp]
  00018	8b 4d 08	 mov	 ecx, DWORD PTR ___that$[ebp]
  0001b	8b 51 04	 mov	 edx, DWORD PTR [ecx+4]
  0001e	89 50 04	 mov	 DWORD PTR [eax+4], edx
  00021	8b 45 fc	 mov	 eax, DWORD PTR _this$[ebp]
  00024	8b 4d 08	 mov	 ecx, DWORD PTR ___that$[ebp]
  00027	8b 51 08	 mov	 edx, DWORD PTR [ecx+8]
  0002a	89 50 08	 mov	 DWORD PTR [eax+8], edx
  0002d	8b 45 fc	 mov	 eax, DWORD PTR _this$[ebp]
  00030	8b 4d 08	 mov	 ecx, DWORD PTR ___that$[ebp]
  00033	8b 51 0c	 mov	 edx, DWORD PTR [ecx+12]
  00036	89 50 0c	 mov	 DWORD PTR [eax+12], edx
  00039	8b 45 fc	 mov	 eax, DWORD PTR _this$[ebp]
  0003c	8b 4d 08	 mov	 ecx, DWORD PTR ___that$[ebp]
  0003f	8b 51 10	 mov	 edx, DWORD PTR [ecx+16]
  00042	89 50 10	 mov	 DWORD PTR [eax+16], edx
  00045	8b 45 fc	 mov	 eax, DWORD PTR _this$[ebp]
  00048	5f		 pop	 edi
  00049	5e		 pop	 esi
  0004a	5b		 pop	 ebx
  0004b	8b e5		 mov	 esp, ebp
  0004d	5d		 pop	 ebp
  0004e	c2 04 00	 ret	 4
??0?$CWHArray@PAUtagGameMatchOption@@ABQAU1@@@QAE@ABV0@@Z ENDP ; CWHArray<tagGameMatchOption *,tagGameMatchOption * const &>::CWHArray<tagGameMatchOption *,tagGameMatchOption * const &>
_TEXT	ENDS
; Function compile flags: /Odtp /ZI
; File g:\网狐\happygamewh\服务端\系统模块\全局定义\array.h
;	COMDAT ??1?$CWHArray@PAUtagGameMatchOption@@ABQAU1@@@UAE@XZ
_TEXT	SEGMENT
$T1 = -76						; size = 4
_i$2 = -8						; size = 4
_this$ = -4						; size = 4
??1?$CWHArray@PAUtagGameMatchOption@@ABQAU1@@@UAE@XZ PROC ; CWHArray<tagGameMatchOption *,tagGameMatchOption * const &>::~CWHArray<tagGameMatchOption *,tagGameMatchOption * const &>, COMDAT
; _this$ = ecx

; 143  : {

  00000	55		 push	 ebp
  00001	8b ec		 mov	 ebp, esp
  00003	83 ec 4c	 sub	 esp, 76			; 0000004cH
  00006	53		 push	 ebx
  00007	56		 push	 esi
  00008	57		 push	 edi
  00009	89 4d fc	 mov	 DWORD PTR _this$[ebp], ecx
  0000c	8b 45 fc	 mov	 eax, DWORD PTR _this$[ebp]
  0000f	c7 00 00 00 00
	00		 mov	 DWORD PTR [eax], OFFSET ??_7?$CWHArray@PAUtagGameMatchOption@@ABQAU1@@@6B@

; 144  : 	if (m_pData!=NULL)

  00015	8b 45 fc	 mov	 eax, DWORD PTR _this$[ebp]
  00018	83 78 04 00	 cmp	 DWORD PTR [eax+4], 0
  0001c	74 3e		 je	 SHORT $LN6@CWHArray

; 145  : 	{
; 146  : 		for (INT_PTR i=0;i<m_nElementCount;i++)	(m_pData+i)->~TYPE();

  0001e	c7 45 f8 00 00
	00 00		 mov	 DWORD PTR _i$2[ebp], 0
  00025	eb 09		 jmp	 SHORT $LN4@CWHArray
$LN2@CWHArray:
  00027	8b 45 f8	 mov	 eax, DWORD PTR _i$2[ebp]
  0002a	83 c0 01	 add	 eax, 1
  0002d	89 45 f8	 mov	 DWORD PTR _i$2[ebp], eax
$LN4@CWHArray:
  00030	8b 45 fc	 mov	 eax, DWORD PTR _this$[ebp]
  00033	8b 4d f8	 mov	 ecx, DWORD PTR _i$2[ebp]
  00036	3b 48 10	 cmp	 ecx, DWORD PTR [eax+16]
  00039	7d 02		 jge	 SHORT $LN3@CWHArray
  0003b	eb ea		 jmp	 SHORT $LN2@CWHArray
$LN3@CWHArray:

; 147  : 		delete [] (BYTE *)m_pData;

  0003d	8b 45 fc	 mov	 eax, DWORD PTR _this$[ebp]
  00040	8b 48 04	 mov	 ecx, DWORD PTR [eax+4]
  00043	89 4d b4	 mov	 DWORD PTR $T1[ebp], ecx
  00046	8b 55 b4	 mov	 edx, DWORD PTR $T1[ebp]
  00049	52		 push	 edx
  0004a	e8 00 00 00 00	 call	 ??_V@YAXPAX@Z		; operator delete[]
  0004f	83 c4 04	 add	 esp, 4

; 148  : 		m_pData=NULL;

  00052	8b 45 fc	 mov	 eax, DWORD PTR _this$[ebp]
  00055	c7 40 04 00 00
	00 00		 mov	 DWORD PTR [eax+4], 0
$LN6@CWHArray:

; 149  : 	}
; 150  : 
; 151  : 	return;
; 152  : }

  0005c	5f		 pop	 edi
  0005d	5e		 pop	 esi
  0005e	5b		 pop	 ebx
  0005f	8b e5		 mov	 esp, ebp
  00061	5d		 pop	 ebp
  00062	c3		 ret	 0
??1?$CWHArray@PAUtagGameMatchOption@@ABQAU1@@@UAE@XZ ENDP ; CWHArray<tagGameMatchOption *,tagGameMatchOption * const &>::~CWHArray<tagGameMatchOption *,tagGameMatchOption * const &>
_TEXT	ENDS
; Function compile flags: /Odtp /ZI
; File c:\program files (x86)\microsoft visual studio\2017\community\vc\tools\msvc\14.16.27023\atlmfc\include\afxtempl.h
;	COMDAT ?GetNextAssoc@?$CMap@GGPAUtagGameServerInfo@@PAU1@@@QBEXAAPAU__POSITION@@AAGAAPAUtagGameServerInfo@@@Z
_TEXT	SEGMENT
tv133 = -100						; size = 4
tv83 = -100						; size = 4
tv73 = -100						; size = 4
_nBucket$1 = -32					; size = 4
_pAssocNext$ = -28					; size = 4
___afx_condVal$2 = -24					; size = 4
_nBucket$3 = -20					; size = 4
___afx_condVal$4 = -16					; size = 4
_pAssocRet$ = -12					; size = 4
___afx_condVal$5 = -8					; size = 4
_this$ = -4						; size = 4
_rNextPosition$ = 8					; size = 4
_rKey$ = 12						; size = 4
_rValue$ = 16						; size = 4
?GetNextAssoc@?$CMap@GGPAUtagGameServerInfo@@PAU1@@@QBEXAAPAU__POSITION@@AAGAAPAUtagGameServerInfo@@@Z PROC ; CMap<unsigned short,unsigned short,tagGameServerInfo *,tagGameServerInfo *>::GetNextAssoc, COMDAT
; _this$ = ecx

; 1640 : {

  00000	55		 push	 ebp
  00001	8b ec		 mov	 ebp, esp
  00003	83 ec 64	 sub	 esp, 100		; 00000064H
  00006	53		 push	 ebx
  00007	56		 push	 esi
  00008	57		 push	 edi
  00009	89 4d fc	 mov	 DWORD PTR _this$[ebp], ecx

; 1641 : 	ASSERT_VALID(this);

  0000c	68 69 06 00 00	 push	 1641			; 00000669H
  00011	68 00 00 00 00	 push	 OFFSET ??_C@_0HC@HBCNBCLF@c?3?2program?5files?5?$CIx86?$CJ?2microsof@
  00016	8b 45 fc	 mov	 eax, DWORD PTR _this$[ebp]
  00019	50		 push	 eax
  0001a	e8 00 00 00 00	 call	 ?AfxAssertValidObject@@YGXPBVCObject@@PBDH@Z ; AfxAssertValidObject
$LN4@GetNextAss:

; 1642 : 	ENSURE(m_pHashTable != NULL);  // never call on empty map

  0001f	8b 45 fc	 mov	 eax, DWORD PTR _this$[ebp]
  00022	83 78 04 00	 cmp	 DWORD PTR [eax+4], 0
  00026	74 09		 je	 SHORT $LN25@GetNextAss
  00028	c7 45 9c 01 00
	00 00		 mov	 DWORD PTR tv73[ebp], 1
  0002f	eb 07		 jmp	 SHORT $LN26@GetNextAss
$LN25@GetNextAss:
  00031	c7 45 9c 00 00
	00 00		 mov	 DWORD PTR tv73[ebp], 0
$LN26@GetNextAss:
  00038	8b 4d 9c	 mov	 ecx, DWORD PTR tv73[ebp]
  0003b	89 4d f8	 mov	 DWORD PTR ___afx_condVal$5[ebp], ecx
  0003e	83 7d f8 00	 cmp	 DWORD PTR ___afx_condVal$5[ebp], 0
  00042	75 14		 jne	 SHORT $LN27@GetNextAss
  00044	68 6a 06 00 00	 push	 1642			; 0000066aH
  00049	68 00 00 00 00	 push	 OFFSET ??_C@_0HC@HBCNBCLF@c?3?2program?5files?5?$CIx86?$CJ?2microsof@
  0004e	e8 00 00 00 00	 call	 ?AfxAssertFailedLine@@YGHPBDH@Z ; AfxAssertFailedLine
  00053	85 c0		 test	 eax, eax
  00055	74 01		 je	 SHORT $LN27@GetNextAss
  00057	cc		 int	 3
$LN27@GetNextAss:
  00058	83 7d f8 00	 cmp	 DWORD PTR ___afx_condVal$5[ebp], 0
  0005c	75 05		 jne	 SHORT $LN2@GetNextAss
  0005e	e8 00 00 00 00	 call	 ?AfxThrowInvalidArgException@@YGXXZ ; AfxThrowInvalidArgException
$LN2@GetNextAss:
  00063	33 c0		 xor	 eax, eax
  00065	75 b8		 jne	 SHORT $LN4@GetNextAss

; 1643 : 
; 1644 : 	CAssoc* pAssocRet = (CAssoc*)rNextPosition;

  00067	8b 45 08	 mov	 eax, DWORD PTR _rNextPosition$[ebp]
  0006a	8b 08		 mov	 ecx, DWORD PTR [eax]
  0006c	89 4d f4	 mov	 DWORD PTR _pAssocRet$[ebp], ecx
$LN7@GetNextAss:

; 1645 : 	ENSURE(pAssocRet != NULL);

  0006f	83 7d f4 00	 cmp	 DWORD PTR _pAssocRet$[ebp], 0
  00073	74 09		 je	 SHORT $LN28@GetNextAss
  00075	c7 45 9c 01 00
	00 00		 mov	 DWORD PTR tv83[ebp], 1
  0007c	eb 07		 jmp	 SHORT $LN29@GetNextAss
$LN28@GetNextAss:
  0007e	c7 45 9c 00 00
	00 00		 mov	 DWORD PTR tv83[ebp], 0
$LN29@GetNextAss:
  00085	8b 45 9c	 mov	 eax, DWORD PTR tv83[ebp]
  00088	89 45 f0	 mov	 DWORD PTR ___afx_condVal$4[ebp], eax
  0008b	83 7d f0 00	 cmp	 DWORD PTR ___afx_condVal$4[ebp], 0
  0008f	75 14		 jne	 SHORT $LN30@GetNextAss
  00091	68 6d 06 00 00	 push	 1645			; 0000066dH
  00096	68 00 00 00 00	 push	 OFFSET ??_C@_0HC@HBCNBCLF@c?3?2program?5files?5?$CIx86?$CJ?2microsof@
  0009b	e8 00 00 00 00	 call	 ?AfxAssertFailedLine@@YGHPBDH@Z ; AfxAssertFailedLine
  000a0	85 c0		 test	 eax, eax
  000a2	74 01		 je	 SHORT $LN30@GetNextAss
  000a4	cc		 int	 3
$LN30@GetNextAss:
  000a5	83 7d f0 00	 cmp	 DWORD PTR ___afx_condVal$4[ebp], 0
  000a9	75 05		 jne	 SHORT $LN5@GetNextAss
  000ab	e8 00 00 00 00	 call	 ?AfxThrowInvalidArgException@@YGXXZ ; AfxThrowInvalidArgException
$LN5@GetNextAss:
  000b0	33 c0		 xor	 eax, eax
  000b2	75 bb		 jne	 SHORT $LN7@GetNextAss

; 1646 : 
; 1647 : 	if (pAssocRet == (CAssoc*) BEFORE_START_POSITION)

  000b4	83 7d f4 ff	 cmp	 DWORD PTR _pAssocRet$[ebp], -1
  000b8	75 7b		 jne	 SHORT $LN19@GetNextAss

; 1648 : 	{
; 1649 : 		// find the first association
; 1650 : 		for (UINT nBucket = 0; nBucket < m_nHashTableSize; nBucket++)

  000ba	c7 45 ec 00 00
	00 00		 mov	 DWORD PTR _nBucket$3[ebp], 0
  000c1	eb 09		 jmp	 SHORT $LN10@GetNextAss
$LN8@GetNextAss:
  000c3	8b 45 ec	 mov	 eax, DWORD PTR _nBucket$3[ebp]
  000c6	83 c0 01	 add	 eax, 1
  000c9	89 45 ec	 mov	 DWORD PTR _nBucket$3[ebp], eax
$LN10@GetNextAss:
  000cc	8b 45 fc	 mov	 eax, DWORD PTR _this$[ebp]
  000cf	8b 4d ec	 mov	 ecx, DWORD PTR _nBucket$3[ebp]
  000d2	3b 48 08	 cmp	 ecx, DWORD PTR [eax+8]
  000d5	73 19		 jae	 SHORT $LN13@GetNextAss

; 1651 : 		{
; 1652 : 			if ((pAssocRet = m_pHashTable[nBucket]) != NULL)

  000d7	8b 45 fc	 mov	 eax, DWORD PTR _this$[ebp]
  000da	8b 48 04	 mov	 ecx, DWORD PTR [eax+4]
  000dd	8b 55 ec	 mov	 edx, DWORD PTR _nBucket$3[ebp]
  000e0	8b 04 91	 mov	 eax, DWORD PTR [ecx+edx*4]
  000e3	89 45 f4	 mov	 DWORD PTR _pAssocRet$[ebp], eax
  000e6	83 7d f4 00	 cmp	 DWORD PTR _pAssocRet$[ebp], 0
  000ea	74 02		 je	 SHORT $LN20@GetNextAss

; 1653 : 			{
; 1654 : 				break;

  000ec	eb 02		 jmp	 SHORT $LN13@GetNextAss
$LN20@GetNextAss:

; 1655 : 			}
; 1656 : 		}

  000ee	eb d3		 jmp	 SHORT $LN8@GetNextAss
$LN13@GetNextAss:

; 1657 : 		ENSURE(pAssocRet != NULL);  // must find something

  000f0	83 7d f4 00	 cmp	 DWORD PTR _pAssocRet$[ebp], 0
  000f4	74 09		 je	 SHORT $LN31@GetNextAss
  000f6	c7 45 9c 01 00
	00 00		 mov	 DWORD PTR tv133[ebp], 1
  000fd	eb 07		 jmp	 SHORT $LN32@GetNextAss
$LN31@GetNextAss:
  000ff	c7 45 9c 00 00
	00 00		 mov	 DWORD PTR tv133[ebp], 0
$LN32@GetNextAss:
  00106	8b 45 9c	 mov	 eax, DWORD PTR tv133[ebp]
  00109	89 45 e8	 mov	 DWORD PTR ___afx_condVal$2[ebp], eax
  0010c	83 7d e8 00	 cmp	 DWORD PTR ___afx_condVal$2[ebp], 0
  00110	75 14		 jne	 SHORT $LN33@GetNextAss
  00112	68 79 06 00 00	 push	 1657			; 00000679H
  00117	68 00 00 00 00	 push	 OFFSET ??_C@_0HC@HBCNBCLF@c?3?2program?5files?5?$CIx86?$CJ?2microsof@
  0011c	e8 00 00 00 00	 call	 ?AfxAssertFailedLine@@YGHPBDH@Z ; AfxAssertFailedLine
  00121	85 c0		 test	 eax, eax
  00123	74 01		 je	 SHORT $LN33@GetNextAss
  00125	cc		 int	 3
$LN33@GetNextAss:
  00126	83 7d e8 00	 cmp	 DWORD PTR ___afx_condVal$2[ebp], 0
  0012a	75 05		 jne	 SHORT $LN11@GetNextAss
  0012c	e8 00 00 00 00	 call	 ?AfxThrowInvalidArgException@@YGXXZ ; AfxThrowInvalidArgException
$LN11@GetNextAss:
  00131	33 c0		 xor	 eax, eax
  00133	75 bb		 jne	 SHORT $LN13@GetNextAss
$LN19@GetNextAss:

; 1658 : 	}
; 1659 : 
; 1660 : 	// find next association
; 1661 : 	ASSERT(AfxIsValidAddress(pAssocRet, sizeof(CAssoc)));

  00135	6a 01		 push	 1
  00137	6a 10		 push	 16			; 00000010H
  00139	8b 45 f4	 mov	 eax, DWORD PTR _pAssocRet$[ebp]
  0013c	50		 push	 eax
  0013d	e8 00 00 00 00	 call	 ?AfxIsValidAddress@@YGHPBXIH@Z ; AfxIsValidAddress
  00142	85 c0		 test	 eax, eax
  00144	75 14		 jne	 SHORT $LN34@GetNextAss
  00146	68 7d 06 00 00	 push	 1661			; 0000067dH
  0014b	68 00 00 00 00	 push	 OFFSET ??_C@_0HC@HBCNBCLF@c?3?2program?5files?5?$CIx86?$CJ?2microsof@
  00150	e8 00 00 00 00	 call	 ?AfxAssertFailedLine@@YGHPBDH@Z ; AfxAssertFailedLine
  00155	85 c0		 test	 eax, eax
  00157	74 01		 je	 SHORT $LN34@GetNextAss
  00159	cc		 int	 3
$LN34@GetNextAss:

; 1662 : 	CAssoc* pAssocNext;
; 1663 : 	if ((pAssocNext = pAssocRet->pNext) == NULL)

  0015a	8b 45 f4	 mov	 eax, DWORD PTR _pAssocRet$[ebp]
  0015d	8b 48 08	 mov	 ecx, DWORD PTR [eax+8]
  00160	89 4d e4	 mov	 DWORD PTR _pAssocNext$[ebp], ecx
  00163	83 7d e4 00	 cmp	 DWORD PTR _pAssocNext$[ebp], 0
  00167	75 43		 jne	 SHORT $LN22@GetNextAss

; 1664 : 	{
; 1665 : 		// go to next bucket
; 1666 : 		for (UINT nBucket = (pAssocRet->nHashValue % m_nHashTableSize) + 1;

  00169	8b 45 f4	 mov	 eax, DWORD PTR _pAssocRet$[ebp]
  0016c	8b 4d fc	 mov	 ecx, DWORD PTR _this$[ebp]
  0016f	8b 40 0c	 mov	 eax, DWORD PTR [eax+12]
  00172	33 d2		 xor	 edx, edx
  00174	f7 71 08	 div	 DWORD PTR [ecx+8]
  00177	83 c2 01	 add	 edx, 1
  0017a	89 55 e0	 mov	 DWORD PTR _nBucket$1[ebp], edx
  0017d	eb 09		 jmp	 SHORT $LN16@GetNextAss
$LN14@GetNextAss:

; 1667 : 		  nBucket < m_nHashTableSize; nBucket++)

  0017f	8b 45 e0	 mov	 eax, DWORD PTR _nBucket$1[ebp]
  00182	83 c0 01	 add	 eax, 1
  00185	89 45 e0	 mov	 DWORD PTR _nBucket$1[ebp], eax
$LN16@GetNextAss:
  00188	8b 45 fc	 mov	 eax, DWORD PTR _this$[ebp]
  0018b	8b 4d e0	 mov	 ecx, DWORD PTR _nBucket$1[ebp]
  0018e	3b 48 08	 cmp	 ecx, DWORD PTR [eax+8]
  00191	73 19		 jae	 SHORT $LN22@GetNextAss

; 1668 : 			if ((pAssocNext = m_pHashTable[nBucket]) != NULL)

  00193	8b 45 fc	 mov	 eax, DWORD PTR _this$[ebp]
  00196	8b 48 04	 mov	 ecx, DWORD PTR [eax+4]
  00199	8b 55 e0	 mov	 edx, DWORD PTR _nBucket$1[ebp]
  0019c	8b 04 91	 mov	 eax, DWORD PTR [ecx+edx*4]
  0019f	89 45 e4	 mov	 DWORD PTR _pAssocNext$[ebp], eax
  001a2	83 7d e4 00	 cmp	 DWORD PTR _pAssocNext$[ebp], 0
  001a6	74 02		 je	 SHORT $LN23@GetNextAss

; 1669 : 				break;

  001a8	eb 02		 jmp	 SHORT $LN22@GetNextAss
$LN23@GetNextAss:

; 1670 : 	}

  001aa	eb d3		 jmp	 SHORT $LN14@GetNextAss
$LN22@GetNextAss:

; 1671 : 
; 1672 : 	rNextPosition = (POSITION) pAssocNext;

  001ac	8b 45 08	 mov	 eax, DWORD PTR _rNextPosition$[ebp]
  001af	8b 4d e4	 mov	 ecx, DWORD PTR _pAssocNext$[ebp]
  001b2	89 08		 mov	 DWORD PTR [eax], ecx

; 1673 : 
; 1674 : 	// fill in return data
; 1675 : 	rKey = pAssocRet->key;

  001b4	8b 45 0c	 mov	 eax, DWORD PTR _rKey$[ebp]
  001b7	8b 4d f4	 mov	 ecx, DWORD PTR _pAssocRet$[ebp]
  001ba	66 8b 11	 mov	 dx, WORD PTR [ecx]
  001bd	66 89 10	 mov	 WORD PTR [eax], dx

; 1676 : 	rValue = pAssocRet->value;

  001c0	8b 45 10	 mov	 eax, DWORD PTR _rValue$[ebp]
  001c3	8b 4d f4	 mov	 ecx, DWORD PTR _pAssocRet$[ebp]
  001c6	8b 51 04	 mov	 edx, DWORD PTR [ecx+4]
  001c9	89 10		 mov	 DWORD PTR [eax], edx
$LN24@GetNextAss:

; 1677 : }

  001cb	5f		 pop	 edi
  001cc	5e		 pop	 esi
  001cd	5b		 pop	 ebx
  001ce	8b e5		 mov	 esp, ebp
  001d0	5d		 pop	 ebp
  001d1	c2 0c 00	 ret	 12			; 0000000cH
?GetNextAssoc@?$CMap@GGPAUtagGameServerInfo@@PAU1@@@QBEXAAPAU__POSITION@@AAGAAPAUtagGameServerInfo@@@Z ENDP ; CMap<unsigned short,unsigned short,tagGameServerInfo *,tagGameServerInfo *>::GetNextAssoc
_TEXT	ENDS
; Function compile flags: /Odtp /ZI
; File c:\program files (x86)\microsoft visual studio\2017\community\vc\tools\msvc\14.16.27023\atlmfc\include\afxtempl.h
;	COMDAT ?GetStartPosition@?$CMap@GGPAUtagGameServerInfo@@PAU1@@@QBEPAU__POSITION@@XZ
_TEXT	SEGMENT
tv66 = -72						; size = 4
_this$ = -4						; size = 4
?GetStartPosition@?$CMap@GGPAUtagGameServerInfo@@PAU1@@@QBEPAU__POSITION@@XZ PROC ; CMap<unsigned short,unsigned short,tagGameServerInfo *,tagGameServerInfo *>::GetStartPosition, COMDAT
; _this$ = ecx

; 1354 : 	{ return (m_nCount == 0) ? NULL : BEFORE_START_POSITION; }

  00000	55		 push	 ebp
  00001	8b ec		 mov	 ebp, esp
  00003	83 ec 48	 sub	 esp, 72			; 00000048H
  00006	53		 push	 ebx
  00007	56		 push	 esi
  00008	57		 push	 edi
  00009	89 4d fc	 mov	 DWORD PTR _this$[ebp], ecx
  0000c	8b 45 fc	 mov	 eax, DWORD PTR _this$[ebp]
  0000f	83 78 0c 00	 cmp	 DWORD PTR [eax+12], 0
  00013	75 09		 jne	 SHORT $LN3@GetStartPo
  00015	c7 45 b8 00 00
	00 00		 mov	 DWORD PTR tv66[ebp], 0
  0001c	eb 07		 jmp	 SHORT $LN4@GetStartPo
$LN3@GetStartPo:
  0001e	c7 45 b8 ff ff
	ff ff		 mov	 DWORD PTR tv66[ebp], -1
$LN4@GetStartPo:
  00025	8b 45 b8	 mov	 eax, DWORD PTR tv66[ebp]
  00028	5f		 pop	 edi
  00029	5e		 pop	 esi
  0002a	5b		 pop	 ebx
  0002b	8b e5		 mov	 esp, ebp
  0002d	5d		 pop	 ebp
  0002e	c3		 ret	 0
?GetStartPosition@?$CMap@GGPAUtagGameServerInfo@@PAU1@@@QBEPAU__POSITION@@XZ ENDP ; CMap<unsigned short,unsigned short,tagGameServerInfo *,tagGameServerInfo *>::GetStartPosition
_TEXT	ENDS
; Function compile flags: /Odtp /ZI
;	COMDAT ??0tagModuleInitParameter@@QAE@XZ
_TEXT	SEGMENT
_this$ = -4						; size = 4
??0tagModuleInitParameter@@QAE@XZ PROC			; tagModuleInitParameter::tagModuleInitParameter, COMDAT
; _this$ = ecx
  00000	55		 push	 ebp
  00001	8b ec		 mov	 ebp, esp
  00003	83 ec 44	 sub	 esp, 68			; 00000044H
  00006	53		 push	 ebx
  00007	56		 push	 esi
  00008	57		 push	 edi
  00009	89 4d fc	 mov	 DWORD PTR _this$[ebp], ecx
  0000c	8b 4d fc	 mov	 ecx, DWORD PTR _this$[ebp]
  0000f	81 c1 c1 0c 00
	00		 add	 ecx, 3265		; 00000cc1H
  00015	e8 00 00 00 00	 call	 ??0tagPersonalRoomOptionRightAndFee@@QAE@XZ
  0001a	8b 45 fc	 mov	 eax, DWORD PTR _this$[ebp]
  0001d	5f		 pop	 edi
  0001e	5e		 pop	 esi
  0001f	5b		 pop	 ebx
  00020	8b e5		 mov	 esp, ebp
  00022	5d		 pop	 ebp
  00023	c3		 ret	 0
??0tagModuleInitParameter@@QAE@XZ ENDP			; tagModuleInitParameter::tagModuleInitParameter
_TEXT	ENDS
; Function compile flags: /Odtp /ZI
;	COMDAT ??_GCGameServiceManagerHelper@@UAEPAXI@Z
_TEXT	SEGMENT
_this$ = -4						; size = 4
___flags$ = 8						; size = 4
??_GCGameServiceManagerHelper@@UAEPAXI@Z PROC		; CGameServiceManagerHelper::`scalar deleting destructor', COMDAT
; _this$ = ecx
  00000	55		 push	 ebp
  00001	8b ec		 mov	 ebp, esp
  00003	83 ec 44	 sub	 esp, 68			; 00000044H
  00006	53		 push	 ebx
  00007	56		 push	 esi
  00008	57		 push	 edi
  00009	89 4d fc	 mov	 DWORD PTR _this$[ebp], ecx
  0000c	8b 4d fc	 mov	 ecx, DWORD PTR _this$[ebp]
  0000f	e8 00 00 00 00	 call	 ??1CGameServiceManagerHelper@@UAE@XZ
  00014	8b 45 08	 mov	 eax, DWORD PTR ___flags$[ebp]
  00017	83 e0 01	 and	 eax, 1
  0001a	74 11		 je	 SHORT $LN2@scalar
  0001c	68 d8 01 00 00	 push	 472			; 000001d8H
  00021	8b 45 fc	 mov	 eax, DWORD PTR _this$[ebp]
  00024	50		 push	 eax
  00025	e8 00 00 00 00	 call	 ??3@YAXPAXI@Z		; operator delete
  0002a	83 c4 08	 add	 esp, 8
$LN2@scalar:
  0002d	8b 45 fc	 mov	 eax, DWORD PTR _this$[ebp]
  00030	5f		 pop	 edi
  00031	5e		 pop	 esi
  00032	5b		 pop	 ebx
  00033	8b e5		 mov	 esp, ebp
  00035	5d		 pop	 ebp
  00036	c2 04 00	 ret	 4
??_GCGameServiceManagerHelper@@UAEPAXI@Z ENDP		; CGameServiceManagerHelper::`scalar deleting destructor'
_TEXT	ENDS
; Function compile flags: /Odtp /ZI
;	COMDAT ??1CGameServiceManagerHelper@@UAE@XZ
_TEXT	SEGMENT
_this$ = -4						; size = 4
??1CGameServiceManagerHelper@@UAE@XZ PROC		; CGameServiceManagerHelper::~CGameServiceManagerHelper, COMDAT
; _this$ = ecx
  00000	55		 push	 ebp
  00001	8b ec		 mov	 ebp, esp
  00003	83 ec 44	 sub	 esp, 68			; 00000044H
  00006	53		 push	 ebx
  00007	56		 push	 esi
  00008	57		 push	 edi
  00009	89 4d fc	 mov	 DWORD PTR _this$[ebp], ecx
  0000c	8b 4d fc	 mov	 ecx, DWORD PTR _this$[ebp]
  0000f	e8 00 00 00 00	 call	 ??1?$CTempldateHelper@UIGameServiceManager@@@@UAE@XZ ; CTempldateHelper<IGameServiceManager>::~CTempldateHelper<IGameServiceManager>
  00014	5f		 pop	 edi
  00015	5e		 pop	 esi
  00016	5b		 pop	 ebx
  00017	8b e5		 mov	 esp, ebp
  00019	5d		 pop	 ebp
  0001a	c3		 ret	 0
??1CGameServiceManagerHelper@@UAE@XZ ENDP		; CGameServiceManagerHelper::~CGameServiceManagerHelper
_TEXT	ENDS
; Function compile flags: /Odtp /ZI
; File g:\网狐\happygamewh\服务端\系统模块\服务器组件\游戏服务\gameservicehead.h
;	COMDAT ??0CGameServiceManagerHelper@@QAE@XZ
_TEXT	SEGMENT
_this$ = -4						; size = 4
??0CGameServiceManagerHelper@@QAE@XZ PROC		; CGameServiceManagerHelper::CGameServiceManagerHelper, COMDAT
; _this$ = ecx

; 1702 : DECLARE_MODULE_DYNAMIC(GameServiceManager)

  00000	55		 push	 ebp
  00001	8b ec		 mov	 ebp, esp
  00003	83 ec 44	 sub	 esp, 68			; 00000044H
  00006	53		 push	 ebx
  00007	56		 push	 esi
  00008	57		 push	 edi
  00009	89 4d fc	 mov	 DWORD PTR _this$[ebp], ecx
  0000c	68 00 01 01 06	 push	 100729088		; 06010100H
  00011	68 00 00 00 00	 push	 OFFSET ?IID_IGameServiceManager@@3U_GUID@@B
  00016	8b 4d fc	 mov	 ecx, DWORD PTR _this$[ebp]
  00019	e8 00 00 00 00	 call	 ??0?$CTempldateHelper@UIGameServiceManager@@@@QAE@ABU_GUID@@K@Z ; CTempldateHelper<IGameServiceManager>::CTempldateHelper<IGameServiceManager>
  0001e	8b 45 fc	 mov	 eax, DWORD PTR _this$[ebp]
  00021	c7 00 00 00 00
	00		 mov	 DWORD PTR [eax], OFFSET ??_7CGameServiceManagerHelper@@6B@
  00027	8b 45 fc	 mov	 eax, DWORD PTR _this$[ebp]
  0002a	5f		 pop	 edi
  0002b	5e		 pop	 esi
  0002c	5b		 pop	 ebx
  0002d	8b e5		 mov	 esp, ebp
  0002f	5d		 pop	 ebp
  00030	c3		 ret	 0
??0CGameServiceManagerHelper@@QAE@XZ ENDP		; CGameServiceManagerHelper::CGameServiceManagerHelper
_TEXT	ENDS
; Function compile flags: /Odtp /ZI
;	COMDAT ??_G?$CTempldateHelper@UIGameServiceManager@@@@UAEPAXI@Z
_TEXT	SEGMENT
_this$ = -4						; size = 4
___flags$ = 8						; size = 4
??_G?$CTempldateHelper@UIGameServiceManager@@@@UAEPAXI@Z PROC ; CTempldateHelper<IGameServiceManager>::`scalar deleting destructor', COMDAT
; _this$ = ecx
  00000	55		 push	 ebp
  00001	8b ec		 mov	 ebp, esp
  00003	83 ec 44	 sub	 esp, 68			; 00000044H
  00006	53		 push	 ebx
  00007	56		 push	 esi
  00008	57		 push	 edi
  00009	89 4d fc	 mov	 DWORD PTR _this$[ebp], ecx
  0000c	8b 4d fc	 mov	 ecx, DWORD PTR _this$[ebp]
  0000f	e8 00 00 00 00	 call	 ??1?$CTempldateHelper@UIGameServiceManager@@@@UAE@XZ ; CTempldateHelper<IGameServiceManager>::~CTempldateHelper<IGameServiceManager>
  00014	8b 45 08	 mov	 eax, DWORD PTR ___flags$[ebp]
  00017	83 e0 01	 and	 eax, 1
  0001a	74 11		 je	 SHORT $LN2@scalar
  0001c	68 d8 01 00 00	 push	 472			; 000001d8H
  00021	8b 45 fc	 mov	 eax, DWORD PTR _this$[ebp]
  00024	50		 push	 eax
  00025	e8 00 00 00 00	 call	 ??3@YAXPAXI@Z		; operator delete
  0002a	83 c4 08	 add	 esp, 8
$LN2@scalar:
  0002d	8b 45 fc	 mov	 eax, DWORD PTR _this$[ebp]
  00030	5f		 pop	 edi
  00031	5e		 pop	 esi
  00032	5b		 pop	 ebx
  00033	8b e5		 mov	 esp, ebp
  00035	5d		 pop	 ebp
  00036	c2 04 00	 ret	 4
??_G?$CTempldateHelper@UIGameServiceManager@@@@UAEPAXI@Z ENDP ; CTempldateHelper<IGameServiceManager>::`scalar deleting destructor'
_TEXT	ENDS
; Function compile flags: /Odtp /ZI
; File g:\网狐\happygamewh\服务端\系统模块\全局定义\module.h
;	COMDAT ?GetInterface@?$CTempldateHelper@UIGameServiceManager@@@@QBEPAUIGameServiceManager@@XZ
_TEXT	SEGMENT
_this$ = -4						; size = 4
?GetInterface@?$CTempldateHelper@UIGameServiceManager@@@@QBEPAUIGameServiceManager@@XZ PROC ; CTempldateHelper<IGameServiceManager>::GetInterface, COMDAT
; _this$ = ecx

; 316  : { 

  00000	55		 push	 ebp
  00001	8b ec		 mov	 ebp, esp
  00003	83 ec 44	 sub	 esp, 68			; 00000044H
  00006	53		 push	 ebx
  00007	56		 push	 esi
  00008	57		 push	 edi
  00009	89 4d fc	 mov	 DWORD PTR _this$[ebp], ecx

; 317  : 	return m_pIModeluInterface; 

  0000c	8b 45 fc	 mov	 eax, DWORD PTR _this$[ebp]
  0000f	8b 80 54 01 00
	00		 mov	 eax, DWORD PTR [eax+340]

; 318  : }

  00015	5f		 pop	 edi
  00016	5e		 pop	 esi
  00017	5b		 pop	 ebx
  00018	8b e5		 mov	 esp, ebp
  0001a	5d		 pop	 ebp
  0001b	c3		 ret	 0
?GetInterface@?$CTempldateHelper@UIGameServiceManager@@@@QBEPAUIGameServiceManager@@XZ ENDP ; CTempldateHelper<IGameServiceManager>::GetInterface
_TEXT	ENDS
; Function compile flags: /Odtp /ZI
; File g:\网狐\happygamewh\服务端\系统模块\全局定义\module.h
;	COMDAT ??C?$CTempldateHelper@UIGameServiceManager@@@@QBEPAUIGameServiceManager@@XZ
_TEXT	SEGMENT
_this$ = -4						; size = 4
??C?$CTempldateHelper@UIGameServiceManager@@@@QBEPAUIGameServiceManager@@XZ PROC ; CTempldateHelper<IGameServiceManager>::operator->, COMDAT
; _this$ = ecx

; 309  : { 

  00000	55		 push	 ebp
  00001	8b ec		 mov	 ebp, esp
  00003	83 ec 44	 sub	 esp, 68			; 00000044H
  00006	53		 push	 ebx
  00007	56		 push	 esi
  00008	57		 push	 edi
  00009	89 4d fc	 mov	 DWORD PTR _this$[ebp], ecx

; 310  : 	return GetInterface(); 

  0000c	8b 4d fc	 mov	 ecx, DWORD PTR _this$[ebp]
  0000f	e8 00 00 00 00	 call	 ?GetInterface@?$CTempldateHelper@UIGameServiceManager@@@@QBEPAUIGameServiceManager@@XZ ; CTempldateHelper<IGameServiceManager>::GetInterface

; 311  : }

  00014	5f		 pop	 edi
  00015	5e		 pop	 esi
  00016	5b		 pop	 ebx
  00017	8b e5		 mov	 esp, ebp
  00019	5d		 pop	 ebp
  0001a	c3		 ret	 0
??C?$CTempldateHelper@UIGameServiceManager@@@@QBEPAUIGameServiceManager@@XZ ENDP ; CTempldateHelper<IGameServiceManager>::operator->
_TEXT	ENDS
; Function compile flags: /Odtp /ZI
; File g:\网狐\happygamewh\服务端\系统模块\全局定义\module.h
;	COMDAT ?SetModuleCreateInfo@?$CTempldateHelper@UIGameServiceManager@@@@QAEXPBD0@Z
_TEXT	SEGMENT
_this$ = -4						; size = 4
_pszModuleDllName$ = 8					; size = 4
_pszCreateProc$ = 12					; size = 4
?SetModuleCreateInfo@?$CTempldateHelper@UIGameServiceManager@@@@QAEXPBD0@Z PROC ; CTempldateHelper<IGameServiceManager>::SetModuleCreateInfo, COMDAT
; _this$ = ecx

; 288  : {

  00000	55		 push	 ebp
  00001	8b ec		 mov	 ebp, esp
  00003	83 ec 44	 sub	 esp, 68			; 00000044H
  00006	53		 push	 ebx
  00007	56		 push	 esi
  00008	57		 push	 edi
  00009	89 4d fc	 mov	 DWORD PTR _this$[ebp], ecx

; 289  : 	//设置信息
; 290  : 	lstrcpynA(m_szCreateProc,pszCreateProc,CountArray(m_szCreateProc));

  0000c	6a 40		 push	 64			; 00000040H
  0000e	8b 45 0c	 mov	 eax, DWORD PTR _pszCreateProc$[ebp]
  00011	50		 push	 eax
  00012	8b 4d fc	 mov	 ecx, DWORD PTR _this$[ebp]
  00015	83 c1 0c	 add	 ecx, 12			; 0000000cH
  00018	51		 push	 ecx
  00019	ff 15 00 00 00
	00		 call	 DWORD PTR __imp__lstrcpynA@12

; 291  : 	lstrcpyn(m_szModuleDllName,pszModuleDllName,CountArray(m_szModuleDllName));

  0001f	68 04 01 00 00	 push	 260			; 00000104H
  00024	8b 45 08	 mov	 eax, DWORD PTR _pszModuleDllName$[ebp]
  00027	50		 push	 eax
  00028	8b 4d fc	 mov	 ecx, DWORD PTR _this$[ebp]
  0002b	83 c1 4c	 add	 ecx, 76			; 0000004cH
  0002e	51		 push	 ecx
  0002f	ff 15 00 00 00
	00		 call	 DWORD PTR __imp__lstrcpynA@12

; 292  : 
; 293  : 	return;
; 294  : }

  00035	5f		 pop	 edi
  00036	5e		 pop	 esi
  00037	5b		 pop	 ebx
  00038	8b e5		 mov	 esp, ebp
  0003a	5d		 pop	 ebp
  0003b	c2 08 00	 ret	 8
?SetModuleCreateInfo@?$CTempldateHelper@UIGameServiceManager@@@@QAEXPBD0@Z ENDP ; CTempldateHelper<IGameServiceManager>::SetModuleCreateInfo
_TEXT	ENDS
; Function compile flags: /Odtp /ZI
; File g:\网狐\happygamewh\服务端\系统模块\全局定义\module.h
;	COMDAT ?CreateInstance@?$CTempldateHelper@UIGameServiceManager@@@@QAE_NXZ
_TEXT	SEGMENT
tv173 = -100						; size = 4
tv172 = -100						; size = 4
tv171 = -100						; size = 4
tv170 = -100						; size = 4
$T2 = -94						; size = 1
$T3 = -93						; size = 1
_pszError$4 = -28					; size = 4
_CreateProc$5 = -24					; size = 4
_this$ = -20						; size = 4
__$EHRec$ = -16						; size = 16
?CreateInstance@?$CTempldateHelper@UIGameServiceManager@@@@QAE_NXZ PROC ; CTempldateHelper<IGameServiceManager>::CreateInstance, COMDAT
; _this$ = ecx

; 212  : {

  00000	55		 push	 ebp
  00001	8b ec		 mov	 ebp, esp
  00003	6a ff		 push	 -1
  00005	68 00 00 00 00	 push	 __ehhandler$?CreateInstance@?$CTempldateHelper@UIGameServiceManager@@@@QAE_NXZ
  0000a	64 a1 00 00 00
	00		 mov	 eax, DWORD PTR fs:0
  00010	50		 push	 eax
  00011	51		 push	 ecx
  00012	83 ec 54	 sub	 esp, 84			; 00000054H
  00015	53		 push	 ebx
  00016	56		 push	 esi
  00017	57		 push	 edi
  00018	a1 00 00 00 00	 mov	 eax, DWORD PTR ___security_cookie
  0001d	33 c5		 xor	 eax, ebp
  0001f	50		 push	 eax
  00020	8d 45 f4	 lea	 eax, DWORD PTR __$EHRec$[ebp+4]
  00023	64 a3 00 00 00
	00		 mov	 DWORD PTR fs:0, eax
  00029	89 65 f0	 mov	 DWORD PTR __$EHRec$[ebp], esp
  0002c	89 4d ec	 mov	 DWORD PTR _this$[ebp], ecx

; 213  : 	//释放组件
; 214  : 	CloseInstance();

  0002f	8b 4d ec	 mov	 ecx, DWORD PTR _this$[ebp]
  00032	e8 00 00 00 00	 call	 ?CloseInstance@?$CTempldateHelper@UIGameServiceManager@@@@QAE_NXZ ; CTempldateHelper<IGameServiceManager>::CloseInstance

; 215  : 
; 216  : 	//创建组件
; 217  : 	try

  00037	c7 45 fc 00 00
	00 00		 mov	 DWORD PTR __$EHRec$[ebp+12], 0

; 218  : 	{
; 219  : 		//效验参数
; 220  : 		ASSERT(m_szCreateProc[0]!=0);

  0003e	b8 01 00 00 00	 mov	 eax, 1
  00043	6b c8 00	 imul	 ecx, eax, 0
  00046	8b 55 ec	 mov	 edx, DWORD PTR _this$[ebp]
  00049	0f be 44 0a 0c	 movsx	 eax, BYTE PTR [edx+ecx+12]
  0004e	85 c0		 test	 eax, eax
  00050	75 19		 jne	 SHORT $LN7@CreateInst
  00052	68 dc 00 00 00	 push	 220			; 000000dcH
  00057	68 00 00 00 00	 push	 OFFSET ??_C@_0DG@CDIFDKED@g?3?2?M?x?$LK?$PM?2happygamewh?2?$LH?$PO?N?q?$LG?K?2?O?$LF?M?$LD@
  0005c	e8 00 00 00 00	 call	 ?AfxAssertFailedLine@@YGHPBDH@Z ; AfxAssertFailedLine
  00061	89 45 9c	 mov	 DWORD PTR tv170[ebp], eax
  00064	83 7d 9c 00	 cmp	 DWORD PTR tv170[ebp], 0
  00068	74 01		 je	 SHORT $LN7@CreateInst
  0006a	cc		 int	 3
$LN7@CreateInst:

; 221  : 		ASSERT(m_szModuleDllName[0]!=0);

  0006b	b8 01 00 00 00	 mov	 eax, 1
  00070	6b c8 00	 imul	 ecx, eax, 0
  00073	8b 55 ec	 mov	 edx, DWORD PTR _this$[ebp]
  00076	0f be 44 0a 4c	 movsx	 eax, BYTE PTR [edx+ecx+76]
  0007b	85 c0		 test	 eax, eax
  0007d	75 19		 jne	 SHORT $LN8@CreateInst
  0007f	68 dd 00 00 00	 push	 221			; 000000ddH
  00084	68 00 00 00 00	 push	 OFFSET ??_C@_0DG@CDIFDKED@g?3?2?M?x?$LK?$PM?2happygamewh?2?$LH?$PO?N?q?$LG?K?2?O?$LF?M?$LD@
  00089	e8 00 00 00 00	 call	 ?AfxAssertFailedLine@@YGHPBDH@Z ; AfxAssertFailedLine
  0008e	89 45 9c	 mov	 DWORD PTR tv171[ebp], eax
  00091	83 7d 9c 00	 cmp	 DWORD PTR tv171[ebp], 0
  00095	74 01		 je	 SHORT $LN8@CreateInst
  00097	cc		 int	 3
$LN8@CreateInst:

; 222  : 
; 223  : 		//加载模块
; 224  : 		m_hDllInstance=AfxLoadLibrary(m_szModuleDllName);

  00098	8b 45 ec	 mov	 eax, DWORD PTR _this$[ebp]
  0009b	83 c0 4c	 add	 eax, 76			; 0000004cH
  0009e	50		 push	 eax
  0009f	e8 00 00 00 00	 call	 ?AfxLoadLibrary@@YGPAUHINSTANCE__@@PBD@Z ; AfxLoadLibrary
  000a4	89 45 9c	 mov	 DWORD PTR tv172[ebp], eax
  000a7	8b 4d ec	 mov	 ecx, DWORD PTR _this$[ebp]
  000aa	8b 55 9c	 mov	 edx, DWORD PTR tv172[ebp]
  000ad	89 91 50 01 00
	00		 mov	 DWORD PTR [ecx+336], edx

; 225  : 		if (m_hDllInstance==NULL) 

  000b3	8b 45 ec	 mov	 eax, DWORD PTR _this$[ebp]
  000b6	83 b8 50 01 00
	00 00		 cmp	 DWORD PTR [eax+336], 0
  000bd	75 2a		 jne	 SHORT $LN3@CreateInst

; 226  : 		{
; 227  : 			_sntprintf_s(m_szDescribe,CountArray(m_szDescribe),TEXT("“%s”模块加载失败"),m_szModuleDllName);

  000bf	8b 45 ec	 mov	 eax, DWORD PTR _this$[ebp]
  000c2	83 c0 4c	 add	 eax, 76			; 0000004cH
  000c5	50		 push	 eax
  000c6	68 00 00 00 00	 push	 OFFSET ??_C@_0BD@LMOFNGMO@?$KB?$LA?$CFs?$KB?$LB?D?$KD?$LP?i?$LM?S?T?X?J?$KH?$LA?$NM@
  000cb	68 80 00 00 00	 push	 128			; 00000080H
  000d0	8b 4d ec	 mov	 ecx, DWORD PTR _this$[ebp]
  000d3	81 c1 58 01 00
	00		 add	 ecx, 344		; 00000158H
  000d9	51		 push	 ecx
  000da	e8 00 00 00 00	 call	 ??$_snprintf_s@$0IA@@@YAHAAY0IA@DIPBDZZ ; _snprintf_s<128>
  000df	83 c4 10	 add	 esp, 16			; 00000010H

; 228  : 			return false;

  000e2	32 c0		 xor	 al, al
  000e4	e9 34 01 00 00	 jmp	 $LN1@CreateInst
$LN3@CreateInst:

; 229  : 		}
; 230  : 
; 231  : 		//寻找函数
; 232  : 		ModuleCreateProc * CreateProc=(ModuleCreateProc *)GetProcAddress(m_hDllInstance,m_szCreateProc);

  000e9	8b 45 ec	 mov	 eax, DWORD PTR _this$[ebp]
  000ec	83 c0 0c	 add	 eax, 12			; 0000000cH
  000ef	50		 push	 eax
  000f0	8b 4d ec	 mov	 ecx, DWORD PTR _this$[ebp]
  000f3	8b 91 50 01 00
	00		 mov	 edx, DWORD PTR [ecx+336]
  000f9	52		 push	 edx
  000fa	ff 15 00 00 00
	00		 call	 DWORD PTR __imp__GetProcAddress@8
  00100	89 45 e8	 mov	 DWORD PTR _CreateProc$5[ebp], eax

; 233  : 		if (CreateProc==NULL) 

  00103	83 7d e8 00	 cmp	 DWORD PTR _CreateProc$5[ebp], 0
  00107	75 31		 jne	 SHORT $LN4@CreateInst

; 234  : 		{		
; 235  : 			_sntprintf_s(m_szDescribe, CountArray(m_szDescribe), TEXT("找不到组件创建函数“%s”:%d"), m_szCreateProc, GetLastError());

  00109	ff 15 00 00 00
	00		 call	 DWORD PTR __imp__GetLastError@0
  0010f	50		 push	 eax
  00110	8b 45 ec	 mov	 eax, DWORD PTR _this$[ebp]
  00113	83 c0 0c	 add	 eax, 12			; 0000000cH
  00116	50		 push	 eax
  00117	68 00 00 00 00	 push	 OFFSET ??_C@_0BM@PEGNCJOH@?U?R?$LC?$LL?$LF?$LN?W?i?$LM?$PO?$LE?$LE?$LN?$KI?$LK?$KP?J?$PN?$KB?$LA?$CFs?$KB?$LB?3?$CFd@
  0011c	68 80 00 00 00	 push	 128			; 00000080H
  00121	8b 4d ec	 mov	 ecx, DWORD PTR _this$[ebp]
  00124	81 c1 58 01 00
	00		 add	 ecx, 344		; 00000158H
  0012a	51		 push	 ecx
  0012b	e8 00 00 00 00	 call	 ??$_snprintf_s@$0IA@@@YAHAAY0IA@DIPBDZZ ; _snprintf_s<128>
  00130	83 c4 14	 add	 esp, 20			; 00000014H

; 236  : 			return false;

  00133	32 c0		 xor	 al, al
  00135	e9 e3 00 00 00	 jmp	 $LN1@CreateInst
$LN4@CreateInst:

; 237  : 		}
; 238  : 
; 239  : 		//创建组件
; 240  : 		m_pIModeluInterface=(IModeluInterface *)CreateProc(m_Guid,m_dwVersion);

  0013a	8b 45 ec	 mov	 eax, DWORD PTR _this$[ebp]
  0013d	8b 48 08	 mov	 ecx, DWORD PTR [eax+8]
  00140	51		 push	 ecx
  00141	8b 55 ec	 mov	 edx, DWORD PTR _this$[ebp]
  00144	8b 42 04	 mov	 eax, DWORD PTR [edx+4]
  00147	50		 push	 eax
  00148	ff 55 e8	 call	 DWORD PTR _CreateProc$5[ebp]
  0014b	83 c4 08	 add	 esp, 8
  0014e	89 45 9c	 mov	 DWORD PTR tv173[ebp], eax
  00151	8b 4d ec	 mov	 ecx, DWORD PTR _this$[ebp]
  00154	8b 55 9c	 mov	 edx, DWORD PTR tv173[ebp]
  00157	89 91 54 01 00
	00		 mov	 DWORD PTR [ecx+340], edx

; 241  : 		if (m_pIModeluInterface==NULL) 

  0015d	8b 45 ec	 mov	 eax, DWORD PTR _this$[ebp]
  00160	83 b8 54 01 00
	00 00		 cmp	 DWORD PTR [eax+340], 0
  00167	75 2a		 jne	 SHORT $LN5@CreateInst

; 242  : 		{
; 243  : 			_sntprintf_s(m_szDescribe,CountArray(m_szDescribe),TEXT("调用函数“%s”生成对象失败"),m_szCreateProc);

  00169	8b 45 ec	 mov	 eax, DWORD PTR _this$[ebp]
  0016c	83 c0 0c	 add	 eax, 12			; 0000000cH
  0016f	50		 push	 eax
  00170	68 00 00 00 00	 push	 OFFSET ??_C@_0BL@PDAODLKM@?$LF?w?S?C?$LK?$KP?J?$PN?$KB?$LA?$CFs?$KB?$LB?I?z?$LD?I?$LG?T?O?s?J?$KH?$LA?$NM@
  00175	68 80 00 00 00	 push	 128			; 00000080H
  0017a	8b 4d ec	 mov	 ecx, DWORD PTR _this$[ebp]
  0017d	81 c1 58 01 00
	00		 add	 ecx, 344		; 00000158H
  00183	51		 push	 ecx
  00184	e8 00 00 00 00	 call	 ??$_snprintf_s@$0IA@@@YAHAAY0IA@DIPBDZZ ; _snprintf_s<128>
  00189	83 c4 10	 add	 esp, 16			; 00000010H

; 244  : 			return false;

  0018c	32 c0		 xor	 al, al
  0018e	e9 8a 00 00 00	 jmp	 $LN1@CreateInst
$LN5@CreateInst:

; 245  : 		}
; 246  : 	}

  00193	eb 63		 jmp	 SHORT $LN9@CreateInst
__catch$?CreateInstance@?$CTempldateHelper@UIGameServiceManager@@@@QAE_NXZ$0:

; 247  : 	catch (LPCTSTR pszError)
; 248  : 	{
; 249  : 		_sntprintf_s(m_szDescribe,CountArray(m_szDescribe),TEXT("由于“%s”，组件创建失败"),pszError);

  00195	8b 45 e4	 mov	 eax, DWORD PTR _pszError$4[ebp]
  00198	50		 push	 eax
  00199	68 00 00 00 00	 push	 OFFSET ??_C@_0BJ@JGPFHIJF@?S?I?S?Z?$KB?$LA?$CFs?$KB?$LB?$KD?$KM?W?i?$LM?$PO?$LE?$LE?$LN?$KI?J?$KH?$LA?$NM@
  0019e	68 80 00 00 00	 push	 128			; 00000080H
  001a3	8b 4d ec	 mov	 ecx, DWORD PTR _this$[ebp]
  001a6	81 c1 58 01 00
	00		 add	 ecx, 344		; 00000158H
  001ac	51		 push	 ecx
  001ad	e8 00 00 00 00	 call	 ??$_snprintf_s@$0IA@@@YAHAAY0IA@DIPBDZZ ; _snprintf_s<128>
  001b2	83 c4 10	 add	 esp, 16			; 00000010H

; 250  : 		return false;

  001b5	c6 45 a3 00	 mov	 BYTE PTR $T3[ebp], 0
  001b9	b8 00 00 00 00	 mov	 eax, $LN13@CreateInst
  001be	c3		 ret	 0

; 251  : 	}

  001bf	b8 00 00 00 00	 mov	 eax, $LN9@CreateInst
  001c4	c3		 ret	 0
__catch$?CreateInstance@?$CTempldateHelper@UIGameServiceManager@@@@QAE_NXZ$1:

; 252  : 	catch (...)	
; 253  : 	{ 
; 254  : 		_sntprintf_s(m_szDescribe,CountArray(m_szDescribe),TEXT("组件创建函数“%s”产生未知异常错误，组件创建失败"),m_szCreateProc);

  001c5	8b 45 ec	 mov	 eax, DWORD PTR _this$[ebp]
  001c8	83 c0 0c	 add	 eax, 12			; 0000000cH
  001cb	50		 push	 eax
  001cc	68 00 00 00 00	 push	 OFFSET ??_C@_0DB@JBNKENAJ@?W?i?$LM?$PO?$LE?$LE?$LN?$KI?$LK?$KP?J?$PN?$KB?$LA?$CFs?$KB?$LB?$LC?z?I?z?N?$LE?V?$KK?R?l?$LD?$KD?$LE@
  001d1	68 80 00 00 00	 push	 128			; 00000080H
  001d6	8b 4d ec	 mov	 ecx, DWORD PTR _this$[ebp]
  001d9	81 c1 58 01 00
	00		 add	 ecx, 344		; 00000158H
  001df	51		 push	 ecx
  001e0	e8 00 00 00 00	 call	 ??$_snprintf_s@$0IA@@@YAHAAY0IA@DIPBDZZ ; _snprintf_s<128>
  001e5	83 c4 10	 add	 esp, 16			; 00000010H

; 255  : 		return false;

  001e8	c6 45 a2 00	 mov	 BYTE PTR $T2[ebp], 0
  001ec	b8 00 00 00 00	 mov	 eax, $LN15@CreateInst
  001f1	c3		 ret	 0

; 256  : 	}

  001f2	b8 00 00 00 00	 mov	 eax, $LN9@CreateInst
  001f7	c3		 ret	 0
$LN9@CreateInst:
  001f8	c7 45 fc ff ff
	ff ff		 mov	 DWORD PTR __$EHRec$[ebp+12], -1
  001ff	eb 0c		 jmp	 SHORT $LN14@CreateInst
$LN15@CreateInst:
  00201	c7 45 fc ff ff
	ff ff		 mov	 DWORD PTR __$EHRec$[ebp+12], -1

; 255  : 		return false;

  00208	8a 45 a2	 mov	 al, BYTE PTR $T2[ebp]
  0020b	eb 10		 jmp	 SHORT $LN1@CreateInst
$LN14@CreateInst:
  0020d	eb 0c		 jmp	 SHORT $LN12@CreateInst
$LN13@CreateInst:
  0020f	c7 45 fc ff ff
	ff ff		 mov	 DWORD PTR __$EHRec$[ebp+12], -1

; 250  : 		return false;

  00216	8a 45 a3	 mov	 al, BYTE PTR $T3[ebp]
  00219	eb 02		 jmp	 SHORT $LN1@CreateInst
$LN12@CreateInst:

; 257  : 
; 258  : 	return true;

  0021b	b0 01		 mov	 al, 1
$LN1@CreateInst:

; 259  : }

  0021d	8b 4d f4	 mov	 ecx, DWORD PTR __$EHRec$[ebp+4]
  00220	64 89 0d 00 00
	00 00		 mov	 DWORD PTR fs:0, ecx
  00227	59		 pop	 ecx
  00228	5f		 pop	 edi
  00229	5e		 pop	 esi
  0022a	5b		 pop	 ebx
  0022b	8b e5		 mov	 esp, ebp
  0022d	5d		 pop	 ebp
  0022e	c3		 ret	 0
_TEXT	ENDS
;	COMDAT text$x
text$x	SEGMENT
__ehhandler$?CreateInstance@?$CTempldateHelper@UIGameServiceManager@@@@QAE_NXZ:
  00000	8b 54 24 08	 mov	 edx, DWORD PTR [esp+8]
  00004	8d 42 0c	 lea	 eax, DWORD PTR [edx+12]
  00007	8b 4a 98	 mov	 ecx, DWORD PTR [edx-104]
  0000a	33 c8		 xor	 ecx, eax
  0000c	e8 00 00 00 00	 call	 @__security_check_cookie@4
  00011	b8 00 00 00 00	 mov	 eax, OFFSET __ehfuncinfo$?CreateInstance@?$CTempldateHelper@UIGameServiceManager@@@@QAE_NXZ
  00016	e9 00 00 00 00	 jmp	 ___CxxFrameHandler3
text$x	ENDS
?CreateInstance@?$CTempldateHelper@UIGameServiceManager@@@@QAE_NXZ ENDP ; CTempldateHelper<IGameServiceManager>::CreateInstance
; Function compile flags: /Odtp /ZI
; File g:\网狐\happygamewh\服务端\系统模块\全局定义\module.h
;	COMDAT ?CloseInstance@?$CTempldateHelper@UIGameServiceManager@@@@QAE_NXZ
_TEXT	SEGMENT
_this$ = -4						; size = 4
?CloseInstance@?$CTempldateHelper@UIGameServiceManager@@@@QAE_NXZ PROC ; CTempldateHelper<IGameServiceManager>::CloseInstance, COMDAT
; _this$ = ecx

; 264  : {

  00000	55		 push	 ebp
  00001	8b ec		 mov	 ebp, esp
  00003	83 ec 44	 sub	 esp, 68			; 00000044H
  00006	53		 push	 ebx
  00007	56		 push	 esi
  00008	57		 push	 edi
  00009	89 4d fc	 mov	 DWORD PTR _this$[ebp], ecx

; 265  : 	//设置变量
; 266  : 	m_szDescribe[0]=0;

  0000c	b8 01 00 00 00	 mov	 eax, 1
  00011	6b c8 00	 imul	 ecx, eax, 0
  00014	8b 55 fc	 mov	 edx, DWORD PTR _this$[ebp]
  00017	c6 84 0a 58 01
	00 00 00	 mov	 BYTE PTR [edx+ecx+344], 0

; 267  : 
; 268  : 	//销毁对象
; 269  : 	if (m_pIModeluInterface!=NULL)

  0001f	8b 45 fc	 mov	 eax, DWORD PTR _this$[ebp]
  00022	83 b8 54 01 00
	00 00		 cmp	 DWORD PTR [eax+340], 0
  00029	74 25		 je	 SHORT $LN2@CloseInsta

; 270  : 	{
; 271  : 		m_pIModeluInterface->Release();

  0002b	8b 45 fc	 mov	 eax, DWORD PTR _this$[ebp]
  0002e	8b 88 54 01 00
	00		 mov	 ecx, DWORD PTR [eax+340]
  00034	8b 55 fc	 mov	 edx, DWORD PTR _this$[ebp]
  00037	8b 01		 mov	 eax, DWORD PTR [ecx]
  00039	8b 8a 54 01 00
	00		 mov	 ecx, DWORD PTR [edx+340]
  0003f	8b 10		 mov	 edx, DWORD PTR [eax]
  00041	ff d2		 call	 edx

; 272  : 		m_pIModeluInterface=NULL;

  00043	8b 45 fc	 mov	 eax, DWORD PTR _this$[ebp]
  00046	c7 80 54 01 00
	00 00 00 00 00	 mov	 DWORD PTR [eax+340], 0
$LN2@CloseInsta:

; 273  : 	}
; 274  : 
; 275  : 	//释放 DLL
; 276  : 	if (m_hDllInstance!=NULL)

  00050	8b 45 fc	 mov	 eax, DWORD PTR _this$[ebp]
  00053	83 b8 50 01 00
	00 00		 cmp	 DWORD PTR [eax+336], 0
  0005a	74 1c		 je	 SHORT $LN3@CloseInsta

; 277  : 	{
; 278  : 		AfxFreeLibrary(m_hDllInstance);

  0005c	8b 45 fc	 mov	 eax, DWORD PTR _this$[ebp]
  0005f	8b 88 50 01 00
	00		 mov	 ecx, DWORD PTR [eax+336]
  00065	51		 push	 ecx
  00066	e8 00 00 00 00	 call	 ?AfxFreeLibrary@@YGHPAUHINSTANCE__@@@Z ; AfxFreeLibrary

; 279  : 		m_hDllInstance=NULL;

  0006b	8b 45 fc	 mov	 eax, DWORD PTR _this$[ebp]
  0006e	c7 80 50 01 00
	00 00 00 00 00	 mov	 DWORD PTR [eax+336], 0
$LN3@CloseInsta:

; 280  : 	}
; 281  : 
; 282  : 	return true;

  00078	b0 01		 mov	 al, 1

; 283  : }

  0007a	5f		 pop	 edi
  0007b	5e		 pop	 esi
  0007c	5b		 pop	 ebx
  0007d	8b e5		 mov	 esp, ebp
  0007f	5d		 pop	 ebp
  00080	c3		 ret	 0
?CloseInstance@?$CTempldateHelper@UIGameServiceManager@@@@QAE_NXZ ENDP ; CTempldateHelper<IGameServiceManager>::CloseInstance
_TEXT	ENDS
; Function compile flags: /Odtp /ZI
; File g:\网狐\happygamewh\服务端\系统模块\全局定义\module.h
;	COMDAT ??1?$CTempldateHelper@UIGameServiceManager@@@@UAE@XZ
_TEXT	SEGMENT
_this$ = -16						; size = 4
__$EHRec$ = -12						; size = 12
??1?$CTempldateHelper@UIGameServiceManager@@@@UAE@XZ PROC ; CTempldateHelper<IGameServiceManager>::~CTempldateHelper<IGameServiceManager>, COMDAT
; _this$ = ecx

; 205  : {

  00000	55		 push	 ebp
  00001	8b ec		 mov	 ebp, esp
  00003	6a ff		 push	 -1
  00005	68 00 00 00 00	 push	 __ehhandler$??1?$CTempldateHelper@UIGameServiceManager@@@@UAE@XZ
  0000a	64 a1 00 00 00
	00		 mov	 eax, DWORD PTR fs:0
  00010	50		 push	 eax
  00011	83 ec 44	 sub	 esp, 68			; 00000044H
  00014	53		 push	 ebx
  00015	56		 push	 esi
  00016	57		 push	 edi
  00017	a1 00 00 00 00	 mov	 eax, DWORD PTR ___security_cookie
  0001c	33 c5		 xor	 eax, ebp
  0001e	50		 push	 eax
  0001f	8d 45 f4	 lea	 eax, DWORD PTR __$EHRec$[ebp]
  00022	64 a3 00 00 00
	00		 mov	 DWORD PTR fs:0, eax
  00028	89 4d f0	 mov	 DWORD PTR _this$[ebp], ecx
  0002b	8b 45 f0	 mov	 eax, DWORD PTR _this$[ebp]
  0002e	c7 00 00 00 00
	00		 mov	 DWORD PTR [eax], OFFSET ??_7?$CTempldateHelper@UIGameServiceManager@@@@6B@

; 206  : 	CloseInstance();

  00034	8b 4d f0	 mov	 ecx, DWORD PTR _this$[ebp]
  00037	e8 00 00 00 00	 call	 ?CloseInstance@?$CTempldateHelper@UIGameServiceManager@@@@QAE_NXZ ; CTempldateHelper<IGameServiceManager>::CloseInstance

; 207  : }

  0003c	8b 4d f4	 mov	 ecx, DWORD PTR __$EHRec$[ebp]
  0003f	64 89 0d 00 00
	00 00		 mov	 DWORD PTR fs:0, ecx
  00046	59		 pop	 ecx
  00047	5f		 pop	 edi
  00048	5e		 pop	 esi
  00049	5b		 pop	 ebx
  0004a	8b e5		 mov	 esp, ebp
  0004c	5d		 pop	 ebp
  0004d	c3		 ret	 0
_TEXT	ENDS
;	COMDAT text$x
text$x	SEGMENT
__ehhandler$??1?$CTempldateHelper@UIGameServiceManager@@@@UAE@XZ:
  00000	8b 54 24 08	 mov	 edx, DWORD PTR [esp+8]
  00004	8d 42 0c	 lea	 eax, DWORD PTR [edx+12]
  00007	8b 4a ac	 mov	 ecx, DWORD PTR [edx-84]
  0000a	33 c8		 xor	 ecx, eax
  0000c	e8 00 00 00 00	 call	 @__security_check_cookie@4
  00011	b8 00 00 00 00	 mov	 eax, OFFSET __ehfuncinfo$??1?$CTempldateHelper@UIGameServiceManager@@@@UAE@XZ
  00016	e9 00 00 00 00	 jmp	 ___CxxFrameHandler3
text$x	ENDS
??1?$CTempldateHelper@UIGameServiceManager@@@@UAE@XZ ENDP ; CTempldateHelper<IGameServiceManager>::~CTempldateHelper<IGameServiceManager>
; Function compile flags: /Odtp /ZI
; File g:\网狐\happygamewh\服务端\系统模块\全局定义\module.h
;	COMDAT ??0?$CTempldateHelper@UIGameServiceManager@@@@QAE@ABU_GUID@@K@Z
_TEXT	SEGMENT
_this$ = -4						; size = 4
_Guid$ = 8						; size = 4
_dwVersion$ = 12					; size = 4
??0?$CTempldateHelper@UIGameServiceManager@@@@QAE@ABU_GUID@@K@Z PROC ; CTempldateHelper<IGameServiceManager>::CTempldateHelper<IGameServiceManager>, COMDAT
; _this$ = ecx

; 169  : {

  00000	55		 push	 ebp
  00001	8b ec		 mov	 ebp, esp
  00003	83 ec 44	 sub	 esp, 68			; 00000044H
  00006	53		 push	 ebx
  00007	56		 push	 esi
  00008	57		 push	 edi
  00009	89 4d fc	 mov	 DWORD PTR _this$[ebp], ecx
  0000c	8b 45 fc	 mov	 eax, DWORD PTR _this$[ebp]
  0000f	c7 00 00 00 00
	00		 mov	 DWORD PTR [eax], OFFSET ??_7?$CTempldateHelper@UIGameServiceManager@@@@6B@

; 168  : CTempldateHelper<IModeluInterface>::CTempldateHelper(REFGUID Guid, DWORD dwVersion) : m_dwVersion(dwVersion), m_Guid(Guid)

  00015	8b 45 fc	 mov	 eax, DWORD PTR _this$[ebp]
  00018	8b 4d 08	 mov	 ecx, DWORD PTR _Guid$[ebp]
  0001b	89 48 04	 mov	 DWORD PTR [eax+4], ecx
  0001e	8b 45 fc	 mov	 eax, DWORD PTR _this$[ebp]
  00021	8b 4d 0c	 mov	 ecx, DWORD PTR _dwVersion$[ebp]
  00024	89 48 08	 mov	 DWORD PTR [eax+8], ecx

; 170  : 	//辅助变量
; 171  : 	m_szDescribe[0]=0;

  00027	b8 01 00 00 00	 mov	 eax, 1
  0002c	6b c8 00	 imul	 ecx, eax, 0
  0002f	8b 55 fc	 mov	 edx, DWORD PTR _this$[ebp]
  00032	c6 84 0a 58 01
	00 00 00	 mov	 BYTE PTR [edx+ecx+344], 0

; 172  : 
; 173  : 	//内核信息
; 174  : 	m_hDllInstance=NULL;

  0003a	8b 45 fc	 mov	 eax, DWORD PTR _this$[ebp]
  0003d	c7 80 50 01 00
	00 00 00 00 00	 mov	 DWORD PTR [eax+336], 0

; 175  : 	m_pIModeluInterface=NULL;

  00047	8b 45 fc	 mov	 eax, DWORD PTR _this$[ebp]
  0004a	c7 80 54 01 00
	00 00 00 00 00	 mov	 DWORD PTR [eax+340], 0

; 176  : 
; 177  : 	//组件属性
; 178  : 	ZeroMemory(m_szCreateProc,sizeof(m_szCreateProc));

  00054	6a 40		 push	 64			; 00000040H
  00056	6a 00		 push	 0
  00058	8b 45 fc	 mov	 eax, DWORD PTR _this$[ebp]
  0005b	83 c0 0c	 add	 eax, 12			; 0000000cH
  0005e	50		 push	 eax
  0005f	e8 00 00 00 00	 call	 _memset
  00064	83 c4 0c	 add	 esp, 12			; 0000000cH

; 179  : 	ZeroMemory(m_szModuleDllName,sizeof(m_szModuleDllName));

  00067	68 04 01 00 00	 push	 260			; 00000104H
  0006c	6a 00		 push	 0
  0006e	8b 45 fc	 mov	 eax, DWORD PTR _this$[ebp]
  00071	83 c0 4c	 add	 eax, 76			; 0000004cH
  00074	50		 push	 eax
  00075	e8 00 00 00 00	 call	 _memset
  0007a	83 c4 0c	 add	 esp, 12			; 0000000cH

; 180  : 
; 181  : 	return;
; 182  : }

  0007d	8b 45 fc	 mov	 eax, DWORD PTR _this$[ebp]
  00080	5f		 pop	 edi
  00081	5e		 pop	 esi
  00082	5b		 pop	 ebx
  00083	8b e5		 mov	 esp, ebp
  00085	5d		 pop	 ebp
  00086	c2 08 00	 ret	 8
??0?$CTempldateHelper@UIGameServiceManager@@@@QAE@ABU_GUID@@K@Z ENDP ; CTempldateHelper<IGameServiceManager>::CTempldateHelper<IGameServiceManager>
_TEXT	ENDS
; Function compile flags: /Odtp /ZI
; File c:\program files (x86)\microsoft visual studio\2017\community\vc\tools\msvc\14.16.27023\include\xloctime
;	COMDAT ??$_Getvals@_W@?$time_get@_WV?$istreambuf_iterator@_WU?$char_traits@_W@std@@@std@@@std@@IAEX_WABV_Locinfo@1@@Z
_TEXT	SEGMENT
$T1 = -116						; size = 44
_this$ = -8						; size = 4
__$ArrayPad$ = -4					; size = 4
___formal$ = 8						; size = 2
__Lobj$ = 12						; size = 4
??$_Getvals@_W@?$time_get@_WV?$istreambuf_iterator@_WU?$char_traits@_W@std@@@std@@@std@@IAEX_WABV_Locinfo@1@@Z PROC ; std::time_get<wchar_t,std::istreambuf_iterator<wchar_t,std::char_traits<wchar_t> > >::_Getvals<wchar_t>, COMDAT
; _this$ = ecx

; 216  : 		{	// get values

  00000	55		 push	 ebp
  00001	8b ec		 mov	 ebp, esp
  00003	83 ec 74	 sub	 esp, 116		; 00000074H
  00006	a1 00 00 00 00	 mov	 eax, DWORD PTR ___security_cookie
  0000b	33 c5		 xor	 eax, ebp
  0000d	89 45 fc	 mov	 DWORD PTR __$ArrayPad$[ebp], eax
  00010	53		 push	 ebx
  00011	56		 push	 esi
  00012	57		 push	 edi
  00013	89 4d f8	 mov	 DWORD PTR _this$[ebp], ecx

; 217  : 		_Cvt = _Lobj._Getcvt();

  00016	8d 45 8c	 lea	 eax, DWORD PTR $T1[ebp]
  00019	50		 push	 eax
  0001a	8b 4d 0c	 mov	 ecx, DWORD PTR __Lobj$[ebp]
  0001d	ff 15 00 00 00
	00		 call	 DWORD PTR __imp_?_Getcvt@_Locinfo@std@@QBE?AU_Cvtvec@@XZ
  00023	8b 7d f8	 mov	 edi, DWORD PTR _this$[ebp]
  00026	83 c7 18	 add	 edi, 24			; 00000018H
  00029	b9 0b 00 00 00	 mov	 ecx, 11			; 0000000bH
  0002e	8b f0		 mov	 esi, eax
  00030	f3 a5		 rep movsd

; 218  : 
; 219  : 		if (is_same_v<_Elem2, wchar_t>)

  00032	b8 01 00 00 00	 mov	 eax, 1
  00037	85 c0		 test	 eax, eax
  00039	74 45		 je	 SHORT $LN2@Getvals

; 220  : 			{
; 221  : 			_Days = (const _Elem *)_Maklocwcs((const wchar_t *)_Lobj._W_Getdays());

  0003b	8b 4d 0c	 mov	 ecx, DWORD PTR __Lobj$[ebp]
  0003e	ff 15 00 00 00
	00		 call	 DWORD PTR __imp_?_W_Getdays@_Locinfo@std@@QBEPBGXZ
  00044	50		 push	 eax
  00045	e8 00 00 00 00	 call	 ?_Maklocwcs@std@@YAPA_WPB_W@Z ; std::_Maklocwcs
  0004a	83 c4 04	 add	 esp, 4
  0004d	8b 4d f8	 mov	 ecx, DWORD PTR _this$[ebp]
  00050	89 41 08	 mov	 DWORD PTR [ecx+8], eax

; 222  : 			_Months = (const _Elem *)_Maklocwcs((const wchar_t *)_Lobj._W_Getmonths());

  00053	8b 4d 0c	 mov	 ecx, DWORD PTR __Lobj$[ebp]
  00056	ff 15 00 00 00
	00		 call	 DWORD PTR __imp_?_W_Getmonths@_Locinfo@std@@QBEPBGXZ
  0005c	50		 push	 eax
  0005d	e8 00 00 00 00	 call	 ?_Maklocwcs@std@@YAPA_WPB_W@Z ; std::_Maklocwcs
  00062	83 c4 04	 add	 esp, 4
  00065	8b 4d f8	 mov	 ecx, DWORD PTR _this$[ebp]
  00068	89 41 0c	 mov	 DWORD PTR [ecx+12], eax

; 223  : 			_Ampm = (const _Elem *)_Maklocwcs(L":AM:am:PM:pm");

  0006b	68 00 00 00 00	 push	 OFFSET ??_C@_1BK@MHIKGOKE@?$AA?3?$AAA?$AAM?$AA?3?$AAa?$AAm?$AA?3?$AAP?$AAM?$AA?3?$AAp?$AAm@
  00070	e8 00 00 00 00	 call	 ?_Maklocwcs@std@@YAPA_WPB_W@Z ; std::_Maklocwcs
  00075	83 c4 04	 add	 esp, 4
  00078	8b 4d f8	 mov	 ecx, DWORD PTR _this$[ebp]
  0007b	89 41 10	 mov	 DWORD PTR [ecx+16], eax

; 224  : 			}
; 225  : 		else

  0007e	eb 5e		 jmp	 SHORT $LN1@Getvals
$LN2@Getvals:

; 226  : 			{
; 227  : 			_Days = _Maklocstr(_Lobj._Getdays(), static_cast<_Elem *>(nullptr), _Cvt);

  00080	8b 45 f8	 mov	 eax, DWORD PTR _this$[ebp]
  00083	83 c0 18	 add	 eax, 24			; 00000018H
  00086	50		 push	 eax
  00087	6a 00		 push	 0
  00089	8b 4d 0c	 mov	 ecx, DWORD PTR __Lobj$[ebp]
  0008c	ff 15 00 00 00
	00		 call	 DWORD PTR __imp_?_Getdays@_Locinfo@std@@QBEPBDXZ
  00092	50		 push	 eax
  00093	e8 00 00 00 00	 call	 ??$_Maklocstr@_W@std@@YAPA_WPBDPA_WABU_Cvtvec@@@Z ; std::_Maklocstr<wchar_t>
  00098	83 c4 0c	 add	 esp, 12			; 0000000cH
  0009b	8b 4d f8	 mov	 ecx, DWORD PTR _this$[ebp]
  0009e	89 41 08	 mov	 DWORD PTR [ecx+8], eax

; 228  : 			_Months = _Maklocstr(_Lobj._Getmonths(), static_cast<_Elem *>(nullptr), _Cvt);

  000a1	8b 45 f8	 mov	 eax, DWORD PTR _this$[ebp]
  000a4	83 c0 18	 add	 eax, 24			; 00000018H
  000a7	50		 push	 eax
  000a8	6a 00		 push	 0
  000aa	8b 4d 0c	 mov	 ecx, DWORD PTR __Lobj$[ebp]
  000ad	ff 15 00 00 00
	00		 call	 DWORD PTR __imp_?_Getmonths@_Locinfo@std@@QBEPBDXZ
  000b3	50		 push	 eax
  000b4	e8 00 00 00 00	 call	 ??$_Maklocstr@_W@std@@YAPA_WPBDPA_WABU_Cvtvec@@@Z ; std::_Maklocstr<wchar_t>
  000b9	83 c4 0c	 add	 esp, 12			; 0000000cH
  000bc	8b 4d f8	 mov	 ecx, DWORD PTR _this$[ebp]
  000bf	89 41 0c	 mov	 DWORD PTR [ecx+12], eax

; 229  : 			_Ampm = _Maklocstr(":AM:am:PM:pm", static_cast<_Elem *>(nullptr), _Cvt);

  000c2	8b 45 f8	 mov	 eax, DWORD PTR _this$[ebp]
  000c5	83 c0 18	 add	 eax, 24			; 00000018H
  000c8	50		 push	 eax
  000c9	6a 00		 push	 0
  000cb	68 00 00 00 00	 push	 OFFSET ??_C@_0N@LPFKKEBD@?3AM?3am?3PM?3pm@
  000d0	e8 00 00 00 00	 call	 ??$_Maklocstr@_W@std@@YAPA_WPBDPA_WABU_Cvtvec@@@Z ; std::_Maklocstr<wchar_t>
  000d5	83 c4 0c	 add	 esp, 12			; 0000000cH
  000d8	8b 4d f8	 mov	 ecx, DWORD PTR _this$[ebp]
  000db	89 41 10	 mov	 DWORD PTR [ecx+16], eax
$LN1@Getvals:

; 230  : 			}
; 231  : 		}

  000de	5f		 pop	 edi
  000df	5e		 pop	 esi
  000e0	5b		 pop	 ebx
  000e1	8b 4d fc	 mov	 ecx, DWORD PTR __$ArrayPad$[ebp]
  000e4	33 cd		 xor	 ecx, ebp
  000e6	e8 00 00 00 00	 call	 @__security_check_cookie@4
  000eb	8b e5		 mov	 esp, ebp
  000ed	5d		 pop	 ebp
  000ee	c2 08 00	 ret	 8
??$_Getvals@_W@?$time_get@_WV?$istreambuf_iterator@_WU?$char_traits@_W@std@@@std@@@std@@IAEX_WABV_Locinfo@1@@Z ENDP ; std::time_get<wchar_t,std::istreambuf_iterator<wchar_t,std::char_traits<wchar_t> > >::_Getvals<wchar_t>
_TEXT	ENDS
; Function compile flags: /Odtp /ZI
; File c:\program files (x86)\microsoft visual studio\2017\community\vc\tools\msvc\14.16.27023\include\xloctime
;	COMDAT ??$_Getvals@_W@?$time_get@DV?$istreambuf_iterator@DU?$char_traits@D@std@@@std@@@std@@IAEX_WABV_Locinfo@1@@Z
_TEXT	SEGMENT
$T1 = -116						; size = 44
_this$ = -8						; size = 4
__$ArrayPad$ = -4					; size = 4
___formal$ = 8						; size = 2
__Lobj$ = 12						; size = 4
??$_Getvals@_W@?$time_get@DV?$istreambuf_iterator@DU?$char_traits@D@std@@@std@@@std@@IAEX_WABV_Locinfo@1@@Z PROC ; std::time_get<char,std::istreambuf_iterator<char,std::char_traits<char> > >::_Getvals<wchar_t>, COMDAT
; _this$ = ecx

; 216  : 		{	// get values

  00000	55		 push	 ebp
  00001	8b ec		 mov	 ebp, esp
  00003	83 ec 74	 sub	 esp, 116		; 00000074H
  00006	a1 00 00 00 00	 mov	 eax, DWORD PTR ___security_cookie
  0000b	33 c5		 xor	 eax, ebp
  0000d	89 45 fc	 mov	 DWORD PTR __$ArrayPad$[ebp], eax
  00010	53		 push	 ebx
  00011	56		 push	 esi
  00012	57		 push	 edi
  00013	89 4d f8	 mov	 DWORD PTR _this$[ebp], ecx

; 217  : 		_Cvt = _Lobj._Getcvt();

  00016	8d 45 8c	 lea	 eax, DWORD PTR $T1[ebp]
  00019	50		 push	 eax
  0001a	8b 4d 0c	 mov	 ecx, DWORD PTR __Lobj$[ebp]
  0001d	ff 15 00 00 00
	00		 call	 DWORD PTR __imp_?_Getcvt@_Locinfo@std@@QBE?AU_Cvtvec@@XZ
  00023	8b 7d f8	 mov	 edi, DWORD PTR _this$[ebp]
  00026	83 c7 18	 add	 edi, 24			; 00000018H
  00029	b9 0b 00 00 00	 mov	 ecx, 11			; 0000000bH
  0002e	8b f0		 mov	 esi, eax
  00030	f3 a5		 rep movsd

; 218  : 
; 219  : 		if (is_same_v<_Elem2, wchar_t>)

  00032	b8 01 00 00 00	 mov	 eax, 1
  00037	85 c0		 test	 eax, eax
  00039	74 45		 je	 SHORT $LN2@Getvals

; 220  : 			{
; 221  : 			_Days = (const _Elem *)_Maklocwcs((const wchar_t *)_Lobj._W_Getdays());

  0003b	8b 4d 0c	 mov	 ecx, DWORD PTR __Lobj$[ebp]
  0003e	ff 15 00 00 00
	00		 call	 DWORD PTR __imp_?_W_Getdays@_Locinfo@std@@QBEPBGXZ
  00044	50		 push	 eax
  00045	e8 00 00 00 00	 call	 ?_Maklocwcs@std@@YAPA_WPB_W@Z ; std::_Maklocwcs
  0004a	83 c4 04	 add	 esp, 4
  0004d	8b 4d f8	 mov	 ecx, DWORD PTR _this$[ebp]
  00050	89 41 08	 mov	 DWORD PTR [ecx+8], eax

; 222  : 			_Months = (const _Elem *)_Maklocwcs((const wchar_t *)_Lobj._W_Getmonths());

  00053	8b 4d 0c	 mov	 ecx, DWORD PTR __Lobj$[ebp]
  00056	ff 15 00 00 00
	00		 call	 DWORD PTR __imp_?_W_Getmonths@_Locinfo@std@@QBEPBGXZ
  0005c	50		 push	 eax
  0005d	e8 00 00 00 00	 call	 ?_Maklocwcs@std@@YAPA_WPB_W@Z ; std::_Maklocwcs
  00062	83 c4 04	 add	 esp, 4
  00065	8b 4d f8	 mov	 ecx, DWORD PTR _this$[ebp]
  00068	89 41 0c	 mov	 DWORD PTR [ecx+12], eax

; 223  : 			_Ampm = (const _Elem *)_Maklocwcs(L":AM:am:PM:pm");

  0006b	68 00 00 00 00	 push	 OFFSET ??_C@_1BK@MHIKGOKE@?$AA?3?$AAA?$AAM?$AA?3?$AAa?$AAm?$AA?3?$AAP?$AAM?$AA?3?$AAp?$AAm@
  00070	e8 00 00 00 00	 call	 ?_Maklocwcs@std@@YAPA_WPB_W@Z ; std::_Maklocwcs
  00075	83 c4 04	 add	 esp, 4
  00078	8b 4d f8	 mov	 ecx, DWORD PTR _this$[ebp]
  0007b	89 41 10	 mov	 DWORD PTR [ecx+16], eax

; 224  : 			}
; 225  : 		else

  0007e	eb 5e		 jmp	 SHORT $LN1@Getvals
$LN2@Getvals:

; 226  : 			{
; 227  : 			_Days = _Maklocstr(_Lobj._Getdays(), static_cast<_Elem *>(nullptr), _Cvt);

  00080	8b 45 f8	 mov	 eax, DWORD PTR _this$[ebp]
  00083	83 c0 18	 add	 eax, 24			; 00000018H
  00086	50		 push	 eax
  00087	6a 00		 push	 0
  00089	8b 4d 0c	 mov	 ecx, DWORD PTR __Lobj$[ebp]
  0008c	ff 15 00 00 00
	00		 call	 DWORD PTR __imp_?_Getdays@_Locinfo@std@@QBEPBDXZ
  00092	50		 push	 eax
  00093	e8 00 00 00 00	 call	 ??$_Maklocstr@D@std@@YAPADPBDPADABU_Cvtvec@@@Z ; std::_Maklocstr<char>
  00098	83 c4 0c	 add	 esp, 12			; 0000000cH
  0009b	8b 4d f8	 mov	 ecx, DWORD PTR _this$[ebp]
  0009e	89 41 08	 mov	 DWORD PTR [ecx+8], eax

; 228  : 			_Months = _Maklocstr(_Lobj._Getmonths(), static_cast<_Elem *>(nullptr), _Cvt);

  000a1	8b 45 f8	 mov	 eax, DWORD PTR _this$[ebp]
  000a4	83 c0 18	 add	 eax, 24			; 00000018H
  000a7	50		 push	 eax
  000a8	6a 00		 push	 0
  000aa	8b 4d 0c	 mov	 ecx, DWORD PTR __Lobj$[ebp]
  000ad	ff 15 00 00 00
	00		 call	 DWORD PTR __imp_?_Getmonths@_Locinfo@std@@QBEPBDXZ
  000b3	50		 push	 eax
  000b4	e8 00 00 00 00	 call	 ??$_Maklocstr@D@std@@YAPADPBDPADABU_Cvtvec@@@Z ; std::_Maklocstr<char>
  000b9	83 c4 0c	 add	 esp, 12			; 0000000cH
  000bc	8b 4d f8	 mov	 ecx, DWORD PTR _this$[ebp]
  000bf	89 41 0c	 mov	 DWORD PTR [ecx+12], eax

; 229  : 			_Ampm = _Maklocstr(":AM:am:PM:pm", static_cast<_Elem *>(nullptr), _Cvt);

  000c2	8b 45 f8	 mov	 eax, DWORD PTR _this$[ebp]
  000c5	83 c0 18	 add	 eax, 24			; 00000018H
  000c8	50		 push	 eax
  000c9	6a 00		 push	 0
  000cb	68 00 00 00 00	 push	 OFFSET ??_C@_0N@LPFKKEBD@?3AM?3am?3PM?3pm@
  000d0	e8 00 00 00 00	 call	 ??$_Maklocstr@D@std@@YAPADPBDPADABU_Cvtvec@@@Z ; std::_Maklocstr<char>
  000d5	83 c4 0c	 add	 esp, 12			; 0000000cH
  000d8	8b 4d f8	 mov	 ecx, DWORD PTR _this$[ebp]
  000db	89 41 10	 mov	 DWORD PTR [ecx+16], eax
$LN1@Getvals:

; 230  : 			}
; 231  : 		}

  000de	5f		 pop	 edi
  000df	5e		 pop	 esi
  000e0	5b		 pop	 ebx
  000e1	8b 4d fc	 mov	 ecx, DWORD PTR __$ArrayPad$[ebp]
  000e4	33 cd		 xor	 ecx, ebp
  000e6	e8 00 00 00 00	 call	 @__security_check_cookie@4
  000eb	8b e5		 mov	 esp, ebp
  000ed	5d		 pop	 ebp
  000ee	c2 08 00	 ret	 8
??$_Getvals@_W@?$time_get@DV?$istreambuf_iterator@DU?$char_traits@D@std@@@std@@@std@@IAEX_WABV_Locinfo@1@@Z ENDP ; std::time_get<char,std::istreambuf_iterator<char,std::char_traits<char> > >::_Getvals<wchar_t>
_TEXT	ENDS
; Function compile flags: /Odtp /ZI
;	COMDAT ??0tagPersonalRoomOptionRightAndFee@@QAE@XZ
_TEXT	SEGMENT
_this$ = -4						; size = 4
??0tagPersonalRoomOptionRightAndFee@@QAE@XZ PROC	; tagPersonalRoomOptionRightAndFee::tagPersonalRoomOptionRightAndFee, COMDAT
; _this$ = ecx
  00000	55		 push	 ebp
  00001	8b ec		 mov	 ebp, esp
  00003	83 ec 44	 sub	 esp, 68			; 00000044H
  00006	53		 push	 ebx
  00007	56		 push	 esi
  00008	57		 push	 edi
  00009	89 4d fc	 mov	 DWORD PTR _this$[ebp], ecx
  0000c	68 00 00 00 00	 push	 OFFSET ??0CreateRoomPayFee@@QAE@XZ ; CreateRoomPayFee::CreateRoomPayFee
  00011	6a 05		 push	 5
  00013	6a 13		 push	 19			; 00000013H
  00015	8b 45 fc	 mov	 eax, DWORD PTR _this$[ebp]
  00018	83 c0 15	 add	 eax, 21			; 00000015H
  0001b	50		 push	 eax
  0001c	e8 00 00 00 00	 call	 ??_H@YGXPAXIIP6EPAX0@Z@Z
  00021	8b 45 fc	 mov	 eax, DWORD PTR _this$[ebp]
  00024	5f		 pop	 edi
  00025	5e		 pop	 esi
  00026	5b		 pop	 ebx
  00027	8b e5		 mov	 esp, ebp
  00029	5d		 pop	 ebp
  0002a	c3		 ret	 0
??0tagPersonalRoomOptionRightAndFee@@QAE@XZ ENDP	; tagPersonalRoomOptionRightAndFee::tagPersonalRoomOptionRightAndFee
_TEXT	ENDS
; Function compile flags: /Odtp /ZI
; File g:\网狐\happygamewh\服务端\系统模块\全局定义\struct.h
;	COMDAT ??0CreateRoomPayFee@@QAE@XZ
_TEXT	SEGMENT
_this$ = -4						; size = 4
??0CreateRoomPayFee@@QAE@XZ PROC			; CreateRoomPayFee::CreateRoomPayFee, COMDAT
; _this$ = ecx

; 1056 : 	CreateRoomPayFee()

  00000	55		 push	 ebp
  00001	8b ec		 mov	 ebp, esp
  00003	83 ec 44	 sub	 esp, 68			; 00000044H
  00006	53		 push	 ebx
  00007	56		 push	 esi
  00008	57		 push	 edi
  00009	89 4d fc	 mov	 DWORD PTR _this$[ebp], ecx

; 1057 : 	{
; 1058 : 		cbGameMode		= 0;

  0000c	8b 45 fc	 mov	 eax, DWORD PTR _this$[ebp]
  0000f	c6 00 00	 mov	 BYTE PTR [eax], 0

; 1059 : 		dwPlayTurnLimit = 0;

  00012	8b 45 fc	 mov	 eax, DWORD PTR _this$[ebp]
  00015	c7 40 01 00 00
	00 00		 mov	 DWORD PTR [eax+1], 0

; 1060 : 		dwPlayTimeLimit = 0;

  0001c	8b 45 fc	 mov	 eax, DWORD PTR _this$[ebp]
  0001f	c7 40 05 00 00
	00 00		 mov	 DWORD PTR [eax+5], 0

; 1061 : 		dwPayFee		= 0;

  00026	8b 45 fc	 mov	 eax, DWORD PTR _this$[ebp]
  00029	c7 40 09 00 00
	00 00		 mov	 DWORD PTR [eax+9], 0

; 1062 : 		wAAPayFee		= 0;

  00030	33 c0		 xor	 eax, eax
  00032	8b 4d fc	 mov	 ecx, DWORD PTR _this$[ebp]
  00035	66 89 41 0d	 mov	 WORD PTR [ecx+13], ax

; 1063 : 		dwIniScore		= 0;

  00039	8b 45 fc	 mov	 eax, DWORD PTR _this$[ebp]
  0003c	c7 40 0f 00 00
	00 00		 mov	 DWORD PTR [eax+15], 0

; 1064 : 	}

  00043	8b 45 fc	 mov	 eax, DWORD PTR _this$[ebp]
  00046	5f		 pop	 edi
  00047	5e		 pop	 esi
  00048	5b		 pop	 ebx
  00049	8b e5		 mov	 esp, ebp
  0004b	5d		 pop	 ebp
  0004c	c3		 ret	 0
??0CreateRoomPayFee@@QAE@XZ ENDP			; CreateRoomPayFee::CreateRoomPayFee
_TEXT	ENDS
; Function compile flags: /Odtp /ZI
; File c:\program files (x86)\microsoft visual studio\2017\community\vc\tools\msvc\14.16.27023\include\xlocnum
;	COMDAT ?_Maklocwcs@std@@YAPA_WPB_W@Z
_TEXT	SEGMENT
__Ptrdest$ = -8						; size = 4
__Count$ = -4						; size = 4
__Ptr$ = 8						; size = 4
?_Maklocwcs@std@@YAPA_WPB_W@Z PROC			; std::_Maklocwcs, COMDAT

; 97   : 	{	// copy NTWCS to allocated storage

  00000	55		 push	 ebp
  00001	8b ec		 mov	 ebp, esp
  00003	83 ec 48	 sub	 esp, 72			; 00000048H
  00006	53		 push	 ebx
  00007	56		 push	 esi
  00008	57		 push	 edi

; 98   : 	const size_t _Count = _CSTD wcslen(_Ptr) + 1;

  00009	8b 45 08	 mov	 eax, DWORD PTR __Ptr$[ebp]
  0000c	50		 push	 eax
  0000d	ff 15 00 00 00
	00		 call	 DWORD PTR __imp__wcslen
  00013	83 c4 04	 add	 esp, 4
  00016	83 c0 01	 add	 eax, 1
  00019	89 45 fc	 mov	 DWORD PTR __Count$[ebp], eax

; 99   : 
; 100  : 	wchar_t *_Ptrdest = (wchar_t *)_calloc_dbg(_Count, sizeof (wchar_t),

  0001c	a1 00 00 00 00	 mov	 eax, DWORD PTR ?__LINE__Var@?0??_Maklocwcs@std@@YAPA_WPB_W@Z@4JA
  00021	83 c0 04	 add	 eax, 4
  00024	50		 push	 eax
  00025	68 00 00 00 00	 push	 OFFSET ??_C@_0GI@DJFLDKBN@c?3?2program?5files?5?$CIx86?$CJ?2microsof@
  0002a	6a 02		 push	 2
  0002c	6a 02		 push	 2
  0002e	8b 4d fc	 mov	 ecx, DWORD PTR __Count$[ebp]
  00031	51		 push	 ecx
  00032	ff 15 00 00 00
	00		 call	 DWORD PTR __imp___calloc_dbg
  00038	83 c4 14	 add	 esp, 20			; 00000014H
  0003b	89 45 f8	 mov	 DWORD PTR __Ptrdest$[ebp], eax

; 101  : 		_CRT_BLOCK, __FILE__, __LINE__);
; 102  : 
; 103  : 	if (!_Ptrdest)

  0003e	83 7d f8 00	 cmp	 DWORD PTR __Ptrdest$[ebp], 0
  00042	75 05		 jne	 SHORT $LN2@Maklocwcs

; 104  : 		_Xbad_alloc();

  00044	e8 00 00 00 00	 call	 ?_Xbad_alloc@std@@YAXXZ	; std::_Xbad_alloc
$LN2@Maklocwcs:

; 105  : 	_CSTD wmemcpy(_Ptrdest, _Ptr, _Count);

  00049	8b 45 fc	 mov	 eax, DWORD PTR __Count$[ebp]
  0004c	50		 push	 eax
  0004d	8b 4d 08	 mov	 ecx, DWORD PTR __Ptr$[ebp]
  00050	51		 push	 ecx
  00051	8b 55 f8	 mov	 edx, DWORD PTR __Ptrdest$[ebp]
  00054	52		 push	 edx
  00055	e8 00 00 00 00	 call	 _wmemcpy
  0005a	83 c4 0c	 add	 esp, 12			; 0000000cH

; 106  : 	return (_Ptrdest);

  0005d	8b 45 f8	 mov	 eax, DWORD PTR __Ptrdest$[ebp]
$LN3@Maklocwcs:

; 107  : 	}

  00060	5f		 pop	 edi
  00061	5e		 pop	 esi
  00062	5b		 pop	 ebx
  00063	8b e5		 mov	 esp, ebp
  00065	5d		 pop	 ebp
  00066	c3		 ret	 0
?_Maklocwcs@std@@YAPA_WPB_W@Z ENDP			; std::_Maklocwcs
_TEXT	ENDS
; Function compile flags: /Odtp /ZI
; File c:\program files (x86)\microsoft visual studio\2017\community\vc\tools\msvc\14.16.27023\include\xlocale
;	COMDAT ??$_Maklocstr@_W@std@@YAPA_WPBDPA_WABU_Cvtvec@@@Z
_TEXT	SEGMENT
__Mbst2$ = -48						; size = 8
__Ptrnext$ = -40					; size = 4
__Ptrdest$ = -36					; size = 4
__Mbst1$ = -32						; size = 8
__Wc$ = -24						; size = 2
__Bytes$ = -20						; size = 4
__Ptr1$ = -16						; size = 4
__Wchars$ = -12						; size = 4
__Count1$ = -8						; size = 4
__Count$ = -4						; size = 4
__Ptr$ = 8						; size = 4
___formal$ = 12						; size = 4
__Cvt$ = 16						; size = 4
??$_Maklocstr@_W@std@@YAPA_WPBDPA_WABU_Cvtvec@@@Z PROC	; std::_Maklocstr<wchar_t>, COMDAT

; 682  : 	{	// convert C string to wchar_t sequence using _Cvtvec

  00000	55		 push	 ebp
  00001	8b ec		 mov	 ebp, esp
  00003	83 ec 70	 sub	 esp, 112		; 00000070H
  00006	53		 push	 ebx
  00007	56		 push	 esi
  00008	57		 push	 edi

; 683  : 	size_t _Count, _Count1;
; 684  : 	size_t _Wchars;
; 685  : 	const char *_Ptr1;
; 686  : 	int _Bytes;
; 687  : 	wchar_t _Wc;
; 688  : 	mbstate_t _Mbst1 = {};

  00009	33 c0		 xor	 eax, eax
  0000b	89 45 e0	 mov	 DWORD PTR __Mbst1$[ebp], eax
  0000e	89 45 e4	 mov	 DWORD PTR __Mbst1$[ebp+4], eax

; 689  : 
; 690  : 	_Count1 = _CSTD strlen(_Ptr) + 1;

  00011	8b 45 08	 mov	 eax, DWORD PTR __Ptr$[ebp]
  00014	50		 push	 eax
  00015	e8 00 00 00 00	 call	 _strlen
  0001a	83 c4 04	 add	 esp, 4
  0001d	83 c0 01	 add	 eax, 1
  00020	89 45 f8	 mov	 DWORD PTR __Count1$[ebp], eax

; 691  : 	for (_Count = _Count1, _Wchars = 0, _Ptr1 = _Ptr; 0 < _Count;

  00023	8b 45 f8	 mov	 eax, DWORD PTR __Count1$[ebp]
  00026	89 45 fc	 mov	 DWORD PTR __Count$[ebp], eax
  00029	c7 45 f4 00 00
	00 00		 mov	 DWORD PTR __Wchars$[ebp], 0
  00030	8b 4d 08	 mov	 ecx, DWORD PTR __Ptr$[ebp]
  00033	89 4d f0	 mov	 DWORD PTR __Ptr1$[ebp], ecx
  00036	eb 1b		 jmp	 SHORT $LN4@Maklocstr
$LN2@Maklocstr:

; 692  : 		_Count -= _Bytes, _Ptr1 += _Bytes, ++_Wchars)

  00038	8b 45 fc	 mov	 eax, DWORD PTR __Count$[ebp]
  0003b	2b 45 ec	 sub	 eax, DWORD PTR __Bytes$[ebp]
  0003e	89 45 fc	 mov	 DWORD PTR __Count$[ebp], eax
  00041	8b 4d f0	 mov	 ecx, DWORD PTR __Ptr1$[ebp]
  00044	03 4d ec	 add	 ecx, DWORD PTR __Bytes$[ebp]
  00047	89 4d f0	 mov	 DWORD PTR __Ptr1$[ebp], ecx
  0004a	8b 55 f4	 mov	 edx, DWORD PTR __Wchars$[ebp]
  0004d	83 c2 01	 add	 edx, 1
  00050	89 55 f4	 mov	 DWORD PTR __Wchars$[ebp], edx
$LN4@Maklocstr:

; 691  : 	for (_Count = _Count1, _Wchars = 0, _Ptr1 = _Ptr; 0 < _Count;

  00053	83 7d fc 00	 cmp	 DWORD PTR __Count$[ebp], 0
  00057	76 29		 jbe	 SHORT $LN3@Maklocstr

; 693  : 		if ((_Bytes = _Mbrtowc(&_Wc, _Ptr1, _Count, &_Mbst1, &_Cvt)) <= 0)

  00059	8b 45 10	 mov	 eax, DWORD PTR __Cvt$[ebp]
  0005c	50		 push	 eax
  0005d	8d 4d e0	 lea	 ecx, DWORD PTR __Mbst1$[ebp]
  00060	51		 push	 ecx
  00061	8b 55 fc	 mov	 edx, DWORD PTR __Count$[ebp]
  00064	52		 push	 edx
  00065	8b 45 f0	 mov	 eax, DWORD PTR __Ptr1$[ebp]
  00068	50		 push	 eax
  00069	8d 4d e8	 lea	 ecx, DWORD PTR __Wc$[ebp]
  0006c	51		 push	 ecx
  0006d	e8 00 00 00 00	 call	 __Mbrtowc
  00072	83 c4 14	 add	 esp, 20			; 00000014H
  00075	89 45 ec	 mov	 DWORD PTR __Bytes$[ebp], eax
  00078	83 7d ec 00	 cmp	 DWORD PTR __Bytes$[ebp], 0
  0007c	7f 02		 jg	 SHORT $LN8@Maklocstr

; 694  : 			break;

  0007e	eb 02		 jmp	 SHORT $LN3@Maklocstr
$LN8@Maklocstr:

; 695  : 	++_Wchars;	// count terminating nul

  00080	eb b6		 jmp	 SHORT $LN2@Maklocstr
$LN3@Maklocstr:
  00082	8b 45 f4	 mov	 eax, DWORD PTR __Wchars$[ebp]
  00085	83 c0 01	 add	 eax, 1
  00088	89 45 f4	 mov	 DWORD PTR __Wchars$[ebp], eax

; 696  : 
; 697  : 	wchar_t *_Ptrdest = (wchar_t *)_calloc_dbg(_Wchars, sizeof (wchar_t),

  0008b	68 ba 02 00 00	 push	 698			; 000002baH
  00090	68 00 00 00 00	 push	 OFFSET ??_C@_0GI@LKBGDILM@c?3?2program?5files?5?$CIx86?$CJ?2microsof@
  00095	6a 02		 push	 2
  00097	6a 02		 push	 2
  00099	8b 45 f4	 mov	 eax, DWORD PTR __Wchars$[ebp]
  0009c	50		 push	 eax
  0009d	ff 15 00 00 00
	00		 call	 DWORD PTR __imp___calloc_dbg
  000a3	83 c4 14	 add	 esp, 20			; 00000014H
  000a6	89 45 dc	 mov	 DWORD PTR __Ptrdest$[ebp], eax

; 698  : 		_CRT_BLOCK, __FILE__, __LINE__);
; 699  : 
; 700  : 	if (!_Ptrdest)

  000a9	83 7d dc 00	 cmp	 DWORD PTR __Ptrdest$[ebp], 0
  000ad	75 05		 jne	 SHORT $LN9@Maklocstr

; 701  : 		_Xbad_alloc();

  000af	e8 00 00 00 00	 call	 ?_Xbad_alloc@std@@YAXXZ	; std::_Xbad_alloc
$LN9@Maklocstr:

; 702  : 	wchar_t *_Ptrnext = _Ptrdest;

  000b4	8b 45 dc	 mov	 eax, DWORD PTR __Ptrdest$[ebp]
  000b7	89 45 d8	 mov	 DWORD PTR __Ptrnext$[ebp], eax

; 703  : 	mbstate_t _Mbst2 = {};

  000ba	33 c0		 xor	 eax, eax
  000bc	89 45 d0	 mov	 DWORD PTR __Mbst2$[ebp], eax
  000bf	89 45 d4	 mov	 DWORD PTR __Mbst2$[ebp+4], eax

; 704  : 
; 705  : 	for (; 0 < _Wchars;

  000c2	eb 24		 jmp	 SHORT $LN7@Maklocstr
$LN5@Maklocstr:

; 706  : 		_Count -= _Bytes, _Ptr += _Bytes, --_Wchars, ++_Ptrnext)

  000c4	8b 45 fc	 mov	 eax, DWORD PTR __Count$[ebp]
  000c7	2b 45 ec	 sub	 eax, DWORD PTR __Bytes$[ebp]
  000ca	89 45 fc	 mov	 DWORD PTR __Count$[ebp], eax
  000cd	8b 4d 08	 mov	 ecx, DWORD PTR __Ptr$[ebp]
  000d0	03 4d ec	 add	 ecx, DWORD PTR __Bytes$[ebp]
  000d3	89 4d 08	 mov	 DWORD PTR __Ptr$[ebp], ecx
  000d6	8b 55 f4	 mov	 edx, DWORD PTR __Wchars$[ebp]
  000d9	83 ea 01	 sub	 edx, 1
  000dc	89 55 f4	 mov	 DWORD PTR __Wchars$[ebp], edx
  000df	8b 45 d8	 mov	 eax, DWORD PTR __Ptrnext$[ebp]
  000e2	83 c0 02	 add	 eax, 2
  000e5	89 45 d8	 mov	 DWORD PTR __Ptrnext$[ebp], eax
$LN7@Maklocstr:

; 704  : 
; 705  : 	for (; 0 < _Wchars;

  000e8	83 7d f4 00	 cmp	 DWORD PTR __Wchars$[ebp], 0
  000ec	76 29		 jbe	 SHORT $LN6@Maklocstr

; 707  : 		if ((_Bytes = _Mbrtowc(_Ptrnext, _Ptr, _Count1, &_Mbst2, &_Cvt)) <= 0)

  000ee	8b 45 10	 mov	 eax, DWORD PTR __Cvt$[ebp]
  000f1	50		 push	 eax
  000f2	8d 4d d0	 lea	 ecx, DWORD PTR __Mbst2$[ebp]
  000f5	51		 push	 ecx
  000f6	8b 55 f8	 mov	 edx, DWORD PTR __Count1$[ebp]
  000f9	52		 push	 edx
  000fa	8b 45 08	 mov	 eax, DWORD PTR __Ptr$[ebp]
  000fd	50		 push	 eax
  000fe	8b 4d d8	 mov	 ecx, DWORD PTR __Ptrnext$[ebp]
  00101	51		 push	 ecx
  00102	e8 00 00 00 00	 call	 __Mbrtowc
  00107	83 c4 14	 add	 esp, 20			; 00000014H
  0010a	89 45 ec	 mov	 DWORD PTR __Bytes$[ebp], eax
  0010d	83 7d ec 00	 cmp	 DWORD PTR __Bytes$[ebp], 0
  00111	7f 02		 jg	 SHORT $LN10@Maklocstr

; 708  : 			break;

  00113	eb 02		 jmp	 SHORT $LN6@Maklocstr
$LN10@Maklocstr:

; 709  : 	*_Ptrnext = L'\0';

  00115	eb ad		 jmp	 SHORT $LN5@Maklocstr
$LN6@Maklocstr:
  00117	33 c0		 xor	 eax, eax
  00119	8b 4d d8	 mov	 ecx, DWORD PTR __Ptrnext$[ebp]
  0011c	66 89 01	 mov	 WORD PTR [ecx], ax

; 710  : 
; 711  : 	return (_Ptrdest);

  0011f	8b 45 dc	 mov	 eax, DWORD PTR __Ptrdest$[ebp]
$LN11@Maklocstr:

; 712  : 	}

  00122	5f		 pop	 edi
  00123	5e		 pop	 esi
  00124	5b		 pop	 ebx
  00125	8b e5		 mov	 esp, ebp
  00127	5d		 pop	 ebp
  00128	c3		 ret	 0
??$_Maklocstr@_W@std@@YAPA_WPBDPA_WABU_Cvtvec@@@Z ENDP	; std::_Maklocstr<wchar_t>
_TEXT	ENDS
; Function compile flags: /Odtp /ZI
; File c:\program files (x86)\windows kits\10\include\10.0.17763.0\ucrt\wchar.h
;	COMDAT _wmemcpy
_TEXT	SEGMENT
__S1$ = 8						; size = 4
__S2$ = 12						; size = 4
__N$ = 16						; size = 4
_wmemcpy PROC						; COMDAT

; 230  :     {

  00000	55		 push	 ebp
  00001	8b ec		 mov	 ebp, esp
  00003	83 ec 40	 sub	 esp, 64			; 00000040H
  00006	53		 push	 ebx
  00007	56		 push	 esi
  00008	57		 push	 edi

; 231  :         #pragma warning(push)
; 232  :         #pragma warning(disable : 4995 4996 6386)
; 233  :         return (wchar_t*)memcpy(_S1, _S2, _N*sizeof(wchar_t));

  00009	8b 45 10	 mov	 eax, DWORD PTR __N$[ebp]
  0000c	d1 e0		 shl	 eax, 1
  0000e	50		 push	 eax
  0000f	8b 4d 0c	 mov	 ecx, DWORD PTR __S2$[ebp]
  00012	51		 push	 ecx
  00013	8b 55 08	 mov	 edx, DWORD PTR __S1$[ebp]
  00016	52		 push	 edx
  00017	e8 00 00 00 00	 call	 _memcpy
  0001c	83 c4 0c	 add	 esp, 12			; 0000000cH

; 234  :         #pragma warning(pop)
; 235  :     }

  0001f	5f		 pop	 edi
  00020	5e		 pop	 esi
  00021	5b		 pop	 ebx
  00022	8b e5		 mov	 esp, ebp
  00024	5d		 pop	 ebp
  00025	c3		 ret	 0
_wmemcpy ENDP
_TEXT	ENDS
; Function compile flags: /Odtp /ZI
; File c:\program files (x86)\microsoft visual studio\2017\community\vc\tools\msvc\14.16.27023\atlmfc\include\afx.h
;	COMDAT ?AfxAssertFailedLine@@YGHPBDH@Z
_TEXT	SEGMENT
_bResult$ = -36						; size = 4
_bQuit$ = -32						; size = 4
_msg$ = -28						; size = 28
_lpszFileName$ = 8					; size = 4
_nLine$ = 12						; size = 4
?AfxAssertFailedLine@@YGHPBDH@Z PROC			; AfxAssertFailedLine, COMDAT

; 312  : {

  00000	55		 push	 ebp
  00001	8b ec		 mov	 ebp, esp
  00003	83 ec 64	 sub	 esp, 100		; 00000064H
  00006	53		 push	 ebx
  00007	56		 push	 esi
  00008	57		 push	 edi

; 313  : 	// we remove WM_QUIT because if it is in the queue then the message box
; 314  : 	// won't display
; 315  : 	MSG msg;
; 316  : 	BOOL bQuit = PeekMessage(&msg, NULL, WM_QUIT, WM_QUIT, PM_REMOVE);

  00009	6a 01		 push	 1
  0000b	6a 12		 push	 18			; 00000012H
  0000d	6a 12		 push	 18			; 00000012H
  0000f	6a 00		 push	 0
  00011	8d 45 e4	 lea	 eax, DWORD PTR _msg$[ebp]
  00014	50		 push	 eax
  00015	ff 15 00 00 00
	00		 call	 DWORD PTR __imp__PeekMessageA@20
  0001b	89 45 e0	 mov	 DWORD PTR _bQuit$[ebp], eax

; 317  : 	BOOL bResult = _CrtDbgReport(_CRT_ASSERT, lpszFileName, nLine, NULL, NULL);

  0001e	6a 00		 push	 0
  00020	6a 00		 push	 0
  00022	8b 45 0c	 mov	 eax, DWORD PTR _nLine$[ebp]
  00025	50		 push	 eax
  00026	8b 4d 08	 mov	 ecx, DWORD PTR _lpszFileName$[ebp]
  00029	51		 push	 ecx
  0002a	6a 02		 push	 2
  0002c	ff 15 00 00 00
	00		 call	 DWORD PTR __imp___CrtDbgReport
  00032	83 c4 14	 add	 esp, 20			; 00000014H
  00035	89 45 dc	 mov	 DWORD PTR _bResult$[ebp], eax

; 318  : 	if (bQuit)

  00038	83 7d e0 00	 cmp	 DWORD PTR _bQuit$[ebp], 0
  0003c	74 0a		 je	 SHORT $LN2@AfxAssertF

; 319  : 		PostQuitMessage((int)msg.wParam);

  0003e	8b 45 ec	 mov	 eax, DWORD PTR _msg$[ebp+8]
  00041	50		 push	 eax
  00042	ff 15 00 00 00
	00		 call	 DWORD PTR __imp__PostQuitMessage@4
$LN2@AfxAssertF:

; 320  : 	return bResult;

  00048	8b 45 dc	 mov	 eax, DWORD PTR _bResult$[ebp]

; 321  : }

  0004b	5f		 pop	 edi
  0004c	5e		 pop	 esi
  0004d	5b		 pop	 ebx
  0004e	8b e5		 mov	 esp, ebp
  00050	5d		 pop	 ebp
  00051	c2 08 00	 ret	 8
?AfxAssertFailedLine@@YGHPBDH@Z ENDP			; AfxAssertFailedLine
_TEXT	ENDS
; Function compile flags: /Odtp /ZI
; File c:\program files (x86)\windows kits\10\include\10.0.17763.0\ucrt\stdio.h
;	COMDAT __vsnprintf_s
_TEXT	SEGMENT
__Buffer$ = 8						; size = 4
__BufferCount$ = 12					; size = 4
__MaxCount$ = 16					; size = 4
__Format$ = 20						; size = 4
__ArgList$ = 24						; size = 4
__vsnprintf_s PROC					; COMDAT

; 1605 :     {

  00000	55		 push	 ebp
  00001	8b ec		 mov	 ebp, esp
  00003	83 ec 40	 sub	 esp, 64			; 00000040H
  00006	53		 push	 ebx
  00007	56		 push	 esi
  00008	57		 push	 edi

; 1606 :         return _vsnprintf_s_l(_Buffer, _BufferCount, _MaxCount, _Format, NULL, _ArgList);

  00009	8b 45 18	 mov	 eax, DWORD PTR __ArgList$[ebp]
  0000c	50		 push	 eax
  0000d	6a 00		 push	 0
  0000f	8b 4d 14	 mov	 ecx, DWORD PTR __Format$[ebp]
  00012	51		 push	 ecx
  00013	8b 55 10	 mov	 edx, DWORD PTR __MaxCount$[ebp]
  00016	52		 push	 edx
  00017	8b 45 0c	 mov	 eax, DWORD PTR __BufferCount$[ebp]
  0001a	50		 push	 eax
  0001b	8b 4d 08	 mov	 ecx, DWORD PTR __Buffer$[ebp]
  0001e	51		 push	 ecx
  0001f	e8 00 00 00 00	 call	 __vsnprintf_s_l
  00024	83 c4 18	 add	 esp, 24			; 00000018H

; 1607 :     }

  00027	5f		 pop	 edi
  00028	5e		 pop	 esi
  00029	5b		 pop	 ebx
  0002a	8b e5		 mov	 esp, ebp
  0002c	5d		 pop	 ebp
  0002d	c3		 ret	 0
__vsnprintf_s ENDP
_TEXT	ENDS
; Function compile flags: /Odtp /ZI
; File c:\program files (x86)\windows kits\10\include\10.0.17763.0\ucrt\stdio.h
;	COMDAT __vsnprintf_s_l
_TEXT	SEGMENT
tv74 = -72						; size = 4
__Result$ = -4						; size = 4
__Buffer$ = 8						; size = 4
__BufferCount$ = 12					; size = 4
__MaxCount$ = 16					; size = 4
__Format$ = 20						; size = 4
__Locale$ = 24						; size = 4
__ArgList$ = 28						; size = 4
__vsnprintf_s_l PROC					; COMDAT

; 1584 :     {

  00000	55		 push	 ebp
  00001	8b ec		 mov	 ebp, esp
  00003	83 ec 48	 sub	 esp, 72			; 00000048H
  00006	53		 push	 ebx
  00007	56		 push	 esi
  00008	57		 push	 edi

; 1585 :         int const _Result = __stdio_common_vsnprintf_s(

  00009	8b 45 1c	 mov	 eax, DWORD PTR __ArgList$[ebp]
  0000c	50		 push	 eax
  0000d	8b 4d 18	 mov	 ecx, DWORD PTR __Locale$[ebp]
  00010	51		 push	 ecx
  00011	8b 55 14	 mov	 edx, DWORD PTR __Format$[ebp]
  00014	52		 push	 edx
  00015	8b 45 10	 mov	 eax, DWORD PTR __MaxCount$[ebp]
  00018	50		 push	 eax
  00019	8b 4d 0c	 mov	 ecx, DWORD PTR __BufferCount$[ebp]
  0001c	51		 push	 ecx
  0001d	8b 55 08	 mov	 edx, DWORD PTR __Buffer$[ebp]
  00020	52		 push	 edx
  00021	e8 00 00 00 00	 call	 ___local_stdio_printf_options
  00026	8b 48 04	 mov	 ecx, DWORD PTR [eax+4]
  00029	51		 push	 ecx
  0002a	8b 10		 mov	 edx, DWORD PTR [eax]
  0002c	52		 push	 edx
  0002d	ff 15 00 00 00
	00		 call	 DWORD PTR __imp____stdio_common_vsnprintf_s
  00033	83 c4 20	 add	 esp, 32			; 00000020H
  00036	89 45 fc	 mov	 DWORD PTR __Result$[ebp], eax

; 1586 :             _CRT_INTERNAL_LOCAL_PRINTF_OPTIONS,
; 1587 :             _Buffer, _BufferCount, _MaxCount, _Format, _Locale, _ArgList);
; 1588 : 
; 1589 :         return _Result < 0 ? -1 : _Result;

  00039	83 7d fc 00	 cmp	 DWORD PTR __Result$[ebp], 0
  0003d	7d 09		 jge	 SHORT $LN3@vsnprintf_
  0003f	c7 45 b8 ff ff
	ff ff		 mov	 DWORD PTR tv74[ebp], -1
  00046	eb 06		 jmp	 SHORT $LN4@vsnprintf_
$LN3@vsnprintf_:
  00048	8b 45 fc	 mov	 eax, DWORD PTR __Result$[ebp]
  0004b	89 45 b8	 mov	 DWORD PTR tv74[ebp], eax
$LN4@vsnprintf_:
  0004e	8b 45 b8	 mov	 eax, DWORD PTR tv74[ebp]

; 1590 :     }

  00051	5f		 pop	 edi
  00052	5e		 pop	 esi
  00053	5b		 pop	 ebx
  00054	8b e5		 mov	 esp, ebp
  00056	5d		 pop	 ebp
  00057	c3		 ret	 0
__vsnprintf_s_l ENDP
_TEXT	ENDS
; Function compile flags: /Odtp /ZI
; File c:\program files (x86)\windows kits\10\include\10.0.17763.0\ucrt\corecrt_stdio_config.h
;	COMDAT ___local_stdio_printf_options
_TEXT	SEGMENT
___local_stdio_printf_options PROC			; COMDAT

; 86   :     {

  00000	55		 push	 ebp
  00001	8b ec		 mov	 ebp, esp
  00003	83 ec 40	 sub	 esp, 64			; 00000040H
  00006	53		 push	 ebx
  00007	56		 push	 esi
  00008	57		 push	 edi

; 87   :         static unsigned __int64 _OptionsStorage;
; 88   :         return &_OptionsStorage;

  00009	b8 00 00 00 00	 mov	 eax, OFFSET ?_OptionsStorage@?1??__local_stdio_printf_options@@9@4_KA ; `__local_stdio_printf_options'::`2'::_OptionsStorage

; 89   :     }

  0000e	5f		 pop	 edi
  0000f	5e		 pop	 esi
  00010	5b		 pop	 ebx
  00011	8b e5		 mov	 esp, ebp
  00013	5d		 pop	 ebp
  00014	c3		 ret	 0
___local_stdio_printf_options ENDP
_TEXT	ENDS
; Function compile flags: /Odtp /ZI
; File g:\网狐\happygamewh\服务端\系统模块\服务器组件\模块管理\dlgserveritem.cpp
;	COMDAT ?__global_array_delete@@YAXPAXI@Z
_TEXT	SEGMENT
_p$ = 8							; size = 4
_sz$ = 12						; size = 4
?__global_array_delete@@YAXPAXI@Z PROC			; __global_array_delete, COMDAT

  00000	55		 push	 ebp
  00001	8b ec		 mov	 ebp, esp
  00003	83 ec 40	 sub	 esp, 64			; 00000040H
  00006	53		 push	 ebx
  00007	56		 push	 esi
  00008	57		 push	 edi
  00009	8b 45 0c	 mov	 eax, DWORD PTR _sz$[ebp]
  0000c	50		 push	 eax
  0000d	8b 4d 08	 mov	 ecx, DWORD PTR _p$[ebp]
  00010	51		 push	 ecx
  00011	e8 00 00 00 00	 call	 ??_V@YAXPAXI@Z		; operator delete[]
  00016	83 c4 08	 add	 esp, 8
  00019	5f		 pop	 edi
  0001a	5e		 pop	 esi
  0001b	5b		 pop	 ebx
  0001c	8b e5		 mov	 esp, ebp
  0001e	5d		 pop	 ebp
  0001f	c3		 ret	 0
?__global_array_delete@@YAXPAXI@Z ENDP			; __global_array_delete
_TEXT	ENDS
; Function compile flags: /Odtp /ZI
; File g:\网狐\happygamewh\服务端\系统模块\服务器组件\模块管理\dlgserveritem.cpp
;	COMDAT ?__global_array_delete@@YAXPAX@Z
_TEXT	SEGMENT
_p$ = 8							; size = 4
?__global_array_delete@@YAXPAX@Z PROC			; __global_array_delete, COMDAT

  00000	55		 push	 ebp
  00001	8b ec		 mov	 ebp, esp
  00003	83 ec 40	 sub	 esp, 64			; 00000040H
  00006	53		 push	 ebx
  00007	56		 push	 esi
  00008	57		 push	 edi
  00009	8b 45 08	 mov	 eax, DWORD PTR _p$[ebp]
  0000c	50		 push	 eax
  0000d	e8 00 00 00 00	 call	 ??_V@YAXPAX@Z		; operator delete[]
  00012	83 c4 04	 add	 esp, 4
  00015	5f		 pop	 edi
  00016	5e		 pop	 esi
  00017	5b		 pop	 ebx
  00018	8b e5		 mov	 esp, ebp
  0001a	5d		 pop	 ebp
  0001b	c3		 ret	 0
?__global_array_delete@@YAXPAX@Z ENDP			; __global_array_delete
_TEXT	ENDS
; Function compile flags: /Odtp /ZI
; File g:\网狐\happygamewh\服务端\系统模块\服务器组件\模块管理\dlgserveritem.cpp
;	COMDAT ?__global_delete@@YAXPAXI@Z
_TEXT	SEGMENT
_p$ = 8							; size = 4
_sz$ = 12						; size = 4
?__global_delete@@YAXPAXI@Z PROC			; __global_delete, COMDAT

  00000	55		 push	 ebp
  00001	8b ec		 mov	 ebp, esp
  00003	83 ec 40	 sub	 esp, 64			; 00000040H
  00006	53		 push	 ebx
  00007	56		 push	 esi
  00008	57		 push	 edi
  00009	8b 45 0c	 mov	 eax, DWORD PTR _sz$[ebp]
  0000c	50		 push	 eax
  0000d	8b 4d 08	 mov	 ecx, DWORD PTR _p$[ebp]
  00010	51		 push	 ecx
  00011	e8 00 00 00 00	 call	 ??3@YAXPAXI@Z		; operator delete
  00016	83 c4 08	 add	 esp, 8
  00019	5f		 pop	 edi
  0001a	5e		 pop	 esi
  0001b	5b		 pop	 ebx
  0001c	8b e5		 mov	 esp, ebp
  0001e	5d		 pop	 ebp
  0001f	c3		 ret	 0
?__global_delete@@YAXPAXI@Z ENDP			; __global_delete
_TEXT	ENDS
; Function compile flags: /Odtp /ZI
; File g:\网狐\happygamewh\服务端\系统模块\服务器组件\模块管理\dlgserveritem.cpp
;	COMDAT ?__empty_global_delete@@YAXPAXI@Z
_TEXT	SEGMENT
___formal$ = 8						; size = 4
___formal$ = 12						; size = 4
?__empty_global_delete@@YAXPAXI@Z PROC			; __empty_global_delete, COMDAT

  00000	55		 push	 ebp
  00001	8b ec		 mov	 ebp, esp
  00003	83 ec 40	 sub	 esp, 64			; 00000040H
  00006	53		 push	 ebx
  00007	56		 push	 esi
  00008	57		 push	 edi
  00009	5f		 pop	 edi
  0000a	5e		 pop	 esi
  0000b	5b		 pop	 ebx
  0000c	8b e5		 mov	 esp, ebp
  0000e	5d		 pop	 ebp
  0000f	c3		 ret	 0
?__empty_global_delete@@YAXPAXI@Z ENDP			; __empty_global_delete
_TEXT	ENDS
; Function compile flags: /Odtp /ZI
; File g:\网狐\happygamewh\服务端\系统模块\服务器组件\模块管理\dlgserveritem.cpp
;	COMDAT ?__global_delete@@YAXPAX@Z
_TEXT	SEGMENT
_p$ = 8							; size = 4
?__global_delete@@YAXPAX@Z PROC				; __global_delete, COMDAT

  00000	55		 push	 ebp
  00001	8b ec		 mov	 ebp, esp
  00003	83 ec 40	 sub	 esp, 64			; 00000040H
  00006	53		 push	 ebx
  00007	56		 push	 esi
  00008	57		 push	 edi
  00009	8b 45 08	 mov	 eax, DWORD PTR _p$[ebp]
  0000c	50		 push	 eax
  0000d	e8 00 00 00 00	 call	 ??3@YAXPAX@Z		; operator delete
  00012	83 c4 04	 add	 esp, 4
  00015	5f		 pop	 edi
  00016	5e		 pop	 esi
  00017	5b		 pop	 ebx
  00018	8b e5		 mov	 esp, ebp
  0001a	5d		 pop	 ebp
  0001b	c3		 ret	 0
?__global_delete@@YAXPAX@Z ENDP				; __global_delete
_TEXT	ENDS
; Function compile flags: /Odtp /ZI
; File g:\网狐\happygamewh\服务端\系统模块\服务器组件\模块管理\dlgserveritem.cpp
;	COMDAT ?__empty_global_delete@@YAXPAX@Z
_TEXT	SEGMENT
___formal$ = 8						; size = 4
?__empty_global_delete@@YAXPAX@Z PROC			; __empty_global_delete, COMDAT

  00000	55		 push	 ebp
  00001	8b ec		 mov	 ebp, esp
  00003	83 ec 40	 sub	 esp, 64			; 00000040H
  00006	53		 push	 ebx
  00007	56		 push	 esi
  00008	57		 push	 edi
  00009	5f		 pop	 edi
  0000a	5e		 pop	 esi
  0000b	5b		 pop	 ebx
  0000c	8b e5		 mov	 esp, ebp
  0000e	5d		 pop	 ebp
  0000f	c3		 ret	 0
?__empty_global_delete@@YAXPAX@Z ENDP			; __empty_global_delete
_TEXT	ENDS
; Function compile flags: /Odtp /ZI
;	COMDAT ??_H@YGXPAXIIP6EPAX0@Z@Z
_TEXT	SEGMENT
tv66 = -68						; size = 4
___t$ = 8						; size = 4
___s$ = 12						; size = 4
___n$ = 16						; size = 4
___f$ = 20						; size = 4
??_H@YGXPAXIIP6EPAX0@Z@Z PROC				; `vector constructor iterator', COMDAT
  00000	55		 push	 ebp
  00001	8b ec		 mov	 ebp, esp
  00003	83 ec 44	 sub	 esp, 68			; 00000044H
  00006	53		 push	 ebx
  00007	56		 push	 esi
  00008	57		 push	 edi
$LN2@vector:
  00009	8b 45 10	 mov	 eax, DWORD PTR ___n$[ebp]
  0000c	89 45 bc	 mov	 DWORD PTR tv66[ebp], eax
  0000f	8b 4d 10	 mov	 ecx, DWORD PTR ___n$[ebp]
  00012	83 e9 01	 sub	 ecx, 1
  00015	89 4d 10	 mov	 DWORD PTR ___n$[ebp], ecx
  00018	83 7d bc 00	 cmp	 DWORD PTR tv66[ebp], 0
  0001c	76 11		 jbe	 SHORT $LN1@vector
  0001e	8b 4d 08	 mov	 ecx, DWORD PTR ___t$[ebp]
  00021	ff 55 14	 call	 DWORD PTR ___f$[ebp]
  00024	8b 45 08	 mov	 eax, DWORD PTR ___t$[ebp]
  00027	03 45 0c	 add	 eax, DWORD PTR ___s$[ebp]
  0002a	89 45 08	 mov	 DWORD PTR ___t$[ebp], eax
  0002d	eb da		 jmp	 SHORT $LN2@vector
$LN1@vector:
  0002f	5f		 pop	 edi
  00030	5e		 pop	 esi
  00031	5b		 pop	 ebx
  00032	8b e5		 mov	 esp, ebp
  00034	5d		 pop	 ebp
  00035	c2 10 00	 ret	 16			; 00000010H
??_H@YGXPAXIIP6EPAX0@Z@Z ENDP				; `vector constructor iterator'
_TEXT	ENDS
END
