; Listing generated by Microsoft (R) Optimizing Compiler Version 19.16.27032.1 

	TITLE	G:\网狐\HappyGameWH\服务端\系统模块\服务器组件\模块管理\MatchListControl.cpp
	.686P
	.XMM
	include listing.inc
	.model	flat

INCLUDELIB MSVCRTD
INCLUDELIB OLDNAMES

CONST	SEGMENT
?IID_ITraceServiceManager@@3U_GUID@@B DD 08bfc36dbH	; IID_ITraceServiceManager
	DW	05ba2H
	DW	042baH
	DB	081H
	DB	0b0H
	DB	087H
	DB	0b0H
	DB	01cH
	DB	09eH
	DB	0afH
	DB	0feH
?IID_IAsynchronismEngine@@3U_GUID@@B DD 0c7a13074H	; IID_IAsynchronismEngine
	DW	075c5H
	DW	04b8eH
	DB	0b5H
	DB	04bH
	DB	0eeH
	DB	0eH
	DB	0ecH
	DB	0feH
	DB	0b9H
	DB	0ebH
?IID_IDataBase@@3U_GUID@@B DD 0a2e38a78H		; IID_IDataBase
	DW	01e4fH
	DW	04de4H
	DB	0a5H
	DB	0d1H
	DB	0b9H
	DB	019H
	DB	09bH
	DB	0ceH
	DB	041H
	DB	0aeH
?IID_IDataBaseEngine@@3U_GUID@@B DD 047b5a119H		; IID_IDataBaseEngine
	DW	01676H
	DW	049a3H
	DB	0beH
	DB	0aeH
	DB	0caH
	DB	027H
	DB	0ebH
	DB	059H
	DB	097H
	DB	022H
?IID_IUDPNetworkEngine@@3U_GUID@@B DD 08d138a9bH	; IID_IUDPNetworkEngine
	DW	0a97dH
	DW	04d51H
	DB	09dH
	DB	06cH
	DB	0d8H
	DB	06eH
	DB	0a1H
	DB	084H
	DB	045H
	DB	02eH
?IID_ITCPNetworkEngine@@3U_GUID@@B DD 07747f683H	; IID_ITCPNetworkEngine
	DW	0c0daH
	DW	04588H
	DB	089H
	DB	0ccH
	DB	015H
	DB	093H
	DB	0acH
	DB	0c0H
	DB	044H
	DB	0c8H
?IID_ITCPSocketService@@3U_GUID@@B DD 0709a4449H	; IID_ITCPSocketService
	DW	0ad77H
	DW	04b3dH
	DB	0b4H
	DB	0d6H
	DB	08dH
	DB	0bH
	DB	028H
	DB	065H
	DB	0ecH
	DB	0aeH
?IID_IWEBSocketService@@3U_GUID@@B DD 091052ff2H	; IID_IWEBSocketService
	DW	0eb29H
	DW	040b9H
	DB	0b2H
	DB	0a2H
	DB	08aH
	DB	0a2H
	DB	098H
	DB	036H
	DB	02cH
	DB	084H
?IID_ITimerEngine@@3U_GUID@@B DD 0496401aeH		; IID_ITimerEngine
	DW	06fb0H
	DW	04e9fH
	DB	090H
	DB	098H
	DB	044H
	DB	09dH
	DB	09cH
	DB	0b2H
	DB	0bdH
	DB	097H
?IID_IAttemperEngine@@3U_GUID@@B DD 0b070b2cH		; IID_IAttemperEngine
	DW	09d72H
	DW	042d2H
	DB	0a5H
	DB	070H
	DB	0baH
	DB	02cH
	DB	0bfH
	DB	06fH
	DB	0bbH
	DB	01cH
?IID_IGameServiceManager@@3U_GUID@@B DD 04b2b9d8fH	; IID_IGameServiceManager
	DW	0ce1bH
	DW	044f3H
	DB	0a5H
	DB	022H
	DB	065H
	DB	01aH
	DB	065H
	DB	0c9H
	DB	0aH
	DB	025H
?IID_IAndroidUserItemSink@@3U_GUID@@B DD 01e8a1918H	; IID_IAndroidUserItemSink
	DW	0572bH
	DW	0453bH
	DB	0bcH
	DB	0bH
	DB	06bH
	DB	061H
	DB	070H
	DB	0a3H
	DB	03cH
	DB	0caH
CONST	ENDS
PUBLIC	??_H@YGXPAXIIP6EPAX0@Z@Z			; `vector constructor iterator'
PUBLIC	?__empty_global_delete@@YAXPAX@Z		; __empty_global_delete
PUBLIC	?__global_delete@@YAXPAX@Z			; __global_delete
PUBLIC	?__empty_global_delete@@YAXPAXI@Z		; __empty_global_delete
PUBLIC	?__global_delete@@YAXPAXI@Z			; __global_delete
PUBLIC	?__global_array_delete@@YAXPAX@Z		; __global_array_delete
PUBLIC	?__global_array_delete@@YAXPAXI@Z		; __global_array_delete
PUBLIC	___local_stdio_printf_options
PUBLIC	__vsnprintf_s_l
PUBLIC	__vsnprintf_s
PUBLIC	?AfxAssertFailedLine@@YGHPBDH@Z			; AfxAssertFailedLine
PUBLIC	_wmemcpy
PUBLIC	??$_Maklocstr@_W@std@@YAPA_WPBDPA_WABU_Cvtvec@@@Z ; std::_Maklocstr<wchar_t>
PUBLIC	?_Maklocwcs@std@@YAPA_WPB_W@Z			; std::_Maklocwcs
PUBLIC	??$_Getvals@_W@?$time_get@DV?$istreambuf_iterator@DU?$char_traits@D@std@@@std@@@std@@IAEX_WABV_Locinfo@1@@Z ; std::time_get<char,std::istreambuf_iterator<char,std::char_traits<char> > >::_Getvals<wchar_t>
PUBLIC	??$_Getvals@_W@?$time_get@_WV?$istreambuf_iterator@_WU?$char_traits@_W@std@@@std@@@std@@IAEX_WABV_Locinfo@1@@Z ; std::time_get<wchar_t,std::istreambuf_iterator<wchar_t,std::char_traits<wchar_t> > >::_Getvals<wchar_t>
PUBLIC	??0CMatchListControl@@QAE@XZ			; CMatchListControl::CMatchListControl
PUBLIC	??1CMatchListControl@@UAE@XZ			; CMatchListControl::~CMatchListControl
PUBLIC	?InitListControl@CMatchListControl@@UAEXXZ	; CMatchListControl::InitListControl
PUBLIC	?SortListItemData@CMatchListControl@@UAEHJJG@Z	; CMatchListControl::SortListItemData
PUBLIC	?GetListItemColor@CMatchListControl@@UAEXJIAAUtagListItemColor@@@Z ; CMatchListControl::GetListItemColor
PUBLIC	?InsertMatchOption@CMatchListControl@@QAE_NPAUtagGameMatchOption@@@Z ; CMatchListControl::InsertMatchOption
PUBLIC	?UpdateMatchOption@CMatchListControl@@QAE_NPAUtagGameMatchOption@@@Z ; CMatchListControl::UpdateMatchOption
PUBLIC	?GetInsertIndex@CMatchListControl@@AAEGPAUtagGameMatchOption@@@Z ; CMatchListControl::GetInsertIndex
PUBLIC	?GetDescribeString@CMatchListControl@@AAEPBDPAUtagGameMatchOption@@G@Z ; CMatchListControl::GetDescribeString
PUBLIC	??_GCMatchListControl@@UAEPAXI@Z		; CMatchListControl::`scalar deleting destructor'
PUBLIC	??_ECMatchListControl@@UAEPAXI@Z		; CMatchListControl::`vector deleting destructor'
PUBLIC	??0CRewardListControl@@QAE@XZ			; CRewardListControl::CRewardListControl
PUBLIC	??1CRewardListControl@@UAE@XZ			; CRewardListControl::~CRewardListControl
PUBLIC	?InitListControl@CRewardListControl@@UAEXXZ	; CRewardListControl::InitListControl
PUBLIC	?SortListItemData@CRewardListControl@@UAEHJJG@Z	; CRewardListControl::SortListItemData
PUBLIC	?GetListItemColor@CRewardListControl@@UAEXJIAAUtagListItemColor@@@Z ; CRewardListControl::GetListItemColor
PUBLIC	?InsertMatchReward@CRewardListControl@@QAE_NPAUtagMatchRewardInfo@@@Z ; CRewardListControl::InsertMatchReward
PUBLIC	?UpdateMatchReward@CRewardListControl@@QAE_NPAUtagMatchRewardInfo@@@Z ; CRewardListControl::UpdateMatchReward
PUBLIC	?DeleteMatchReward@CRewardListControl@@QAE_NPAUtagMatchRewardInfo@@@Z ; CRewardListControl::DeleteMatchReward
PUBLIC	?GetInsertIndex@CRewardListControl@@AAEGPAUtagMatchRewardInfo@@@Z ; CRewardListControl::GetInsertIndex
PUBLIC	?GetDescribeString@CRewardListControl@@AAEPBDPAUtagMatchRewardInfo@@G@Z ; CRewardListControl::GetDescribeString
PUBLIC	??_GCRewardListControl@@UAEPAXI@Z		; CRewardListControl::`scalar deleting destructor'
PUBLIC	??_ECRewardListControl@@UAEPAXI@Z		; CRewardListControl::`vector deleting destructor'
PUBLIC	??$_snprintf_s@$0IA@@@YAHAAY0IA@DIPBDZZ		; _snprintf_s<128>
PUBLIC	??$_Maklocstr@D@std@@YAPADPBDPADABU_Cvtvec@@@Z	; std::_Maklocstr<char>
PUBLIC	?_OptionsStorage@?1??__local_stdio_printf_options@@9@4_KA ; `__local_stdio_printf_options'::`2'::_OptionsStorage
PUBLIC	??_C@_02DPKJAMEF@?$CFd@				; `string'
PUBLIC	??_C@_05LLAMLEHD@?$CFI64d@			; `string'
PUBLIC	??_R1A@?0A@EA@CObject@@8			; CObject::`RTTI Base Class Descriptor at (0,-1,0,64)'
PUBLIC	??_R0?AVCObject@@@8				; CObject `RTTI Type Descriptor'
PUBLIC	??_R3CObject@@8					; CObject::`RTTI Class Hierarchy Descriptor'
PUBLIC	??_R2CObject@@8					; CObject::`RTTI Base Class Array'
PUBLIC	??_R1A@?0A@EA@CWnd@@8				; CWnd::`RTTI Base Class Descriptor at (0,-1,0,64)'
PUBLIC	??_R0?AVCWnd@@@8				; CWnd `RTTI Type Descriptor'
PUBLIC	??_R3CWnd@@8					; CWnd::`RTTI Class Hierarchy Descriptor'
PUBLIC	??_R2CWnd@@8					; CWnd::`RTTI Base Class Array'
PUBLIC	??_R1A@?0A@EA@CCmdTarget@@8			; CCmdTarget::`RTTI Base Class Descriptor at (0,-1,0,64)'
PUBLIC	??_R0?AVCCmdTarget@@@8				; CCmdTarget `RTTI Type Descriptor'
PUBLIC	??_R3CCmdTarget@@8				; CCmdTarget::`RTTI Class Hierarchy Descriptor'
PUBLIC	??_R2CCmdTarget@@8				; CCmdTarget::`RTTI Base Class Array'
PUBLIC	??_C@_02DKCKIIND@?$CFs@				; `string'
PUBLIC	??_C@_0GI@LKBGDILM@c?3?2program?5files?5?$CIx86?$CJ?2microsof@ ; `string'
PUBLIC	?__LINE__Var@?0??_Maklocwcs@std@@YAPA_WPB_W@Z@4JA ; `std::_Maklocwcs'::`1'::__LINE__Var
PUBLIC	??_C@_0GI@DJFLDKBN@c?3?2program?5files?5?$CIx86?$CJ?2microsof@ ; `string'
PUBLIC	??_7CMatchListControl@@6B@			; CMatchListControl::`vftable'
PUBLIC	??_7CRewardListControl@@6B@			; CRewardListControl::`vftable'
PUBLIC	??_C@_08LOLPFOFD@?$LB?H?H?$PM?$MA?$OA?P?M@	; `string'
PUBLIC	??_C@_08NHGCFIKP@?$LB?H?H?$PM?C?$PL?$LD?F@	; `string'
PUBLIC	?__LINE__Var@?0??GetListItemColor@CMatchListControl@@UAEXJIAAUtagListItemColor@@@Z@4JA ; `CMatchListControl::GetListItemColor'::`1'::__LINE__Var
PUBLIC	??_C@_0EN@GFGADAAH@g?3?2?M?x?$LK?$PM?2happygamewh?2?$LH?$PO?N?q?$LG?K?2?O?$LF?M?$LD@ ; `string'
PUBLIC	??_C@_06PFKHHJFE@?$LG?$KI?J?$LB?H?$PM@		; `string'
PUBLIC	??_C@_06CFMDOEPK@?$LM?$LE?J?$LB?H?$PM@		; `string'
PUBLIC	??_C@_08EHBMMFM@?C?$PL?5?5?5?5?$LE?N@		; `string'
PUBLIC	??_C@_08JGPOPHOF@?$LN?$LB?$MA?x?$LN?p?$LB?R@	; `string'
PUBLIC	??_C@_08ONDPLBON@?$LN?$LB?$MA?x?T?$KK?$LB?$KG@	; `string'
PUBLIC	??_C@_08JMFMHOFC@?$LN?$LB?$MA?x?$LO?$KN?Q?i@	; `string'
PUBLIC	?__LINE__Var@?0??GetListItemColor@CRewardListControl@@UAEXJIAAUtagListItemColor@@@Z@4JA ; `CRewardListControl::GetListItemColor'::`1'::__LINE__Var
PUBLIC	??_C@_08BOCDIOBM@?$LF?Z?$CF02d?C?$PL@		; `string'
PUBLIC	??_C@_0N@LPFKKEBD@?3AM?3am?3PM?3pm@		; `string'
PUBLIC	??_C@_1BK@MHIKGOKE@?$AA?3?$AAA?$AAM?$AA?3?$AAa?$AAm?$AA?3?$AAP?$AAM?$AA?3?$AAp?$AAm@ ; `string'
PUBLIC	??_R4CMatchListControl@@6B@			; CMatchListControl::`RTTI Complete Object Locator'
PUBLIC	??_R0?AVCMatchListControl@@@8			; CMatchListControl `RTTI Type Descriptor'
PUBLIC	??_R3CMatchListControl@@8			; CMatchListControl::`RTTI Class Hierarchy Descriptor'
PUBLIC	??_R2CMatchListControl@@8			; CMatchListControl::`RTTI Base Class Array'
PUBLIC	??_R1A@?0A@EA@CMatchListControl@@8		; CMatchListControl::`RTTI Base Class Descriptor at (0,-1,0,64)'
PUBLIC	??_R1A@?0A@EA@CListControl@@8			; CListControl::`RTTI Base Class Descriptor at (0,-1,0,64)'
PUBLIC	??_R0?AVCListControl@@@8			; CListControl `RTTI Type Descriptor'
PUBLIC	??_R3CListControl@@8				; CListControl::`RTTI Class Hierarchy Descriptor'
PUBLIC	??_R2CListControl@@8				; CListControl::`RTTI Base Class Array'
PUBLIC	??_R1A@?0A@EA@CListCtrl@@8			; CListCtrl::`RTTI Base Class Descriptor at (0,-1,0,64)'
PUBLIC	??_R0?AVCListCtrl@@@8				; CListCtrl `RTTI Type Descriptor'
PUBLIC	??_R3CListCtrl@@8				; CListCtrl::`RTTI Class Hierarchy Descriptor'
PUBLIC	??_R2CListCtrl@@8				; CListCtrl::`RTTI Base Class Array'
PUBLIC	??_R4CRewardListControl@@6B@			; CRewardListControl::`RTTI Complete Object Locator'
PUBLIC	??_R0?AVCRewardListControl@@@8			; CRewardListControl `RTTI Type Descriptor'
PUBLIC	??_R3CRewardListControl@@8			; CRewardListControl::`RTTI Class Hierarchy Descriptor'
PUBLIC	??_R2CRewardListControl@@8			; CRewardListControl::`RTTI Base Class Array'
PUBLIC	??_R1A@?0A@EA@CRewardListControl@@8		; CRewardListControl::`RTTI Base Class Descriptor at (0,-1,0,64)'
EXTRN	??_M@YGXPAXIIP6EX0@Z@Z:PROC			; `eh vector destructor iterator'
EXTRN	??3@YAXPAX@Z:PROC				; operator delete
EXTRN	??3@YAXPAXI@Z:PROC				; operator delete
EXTRN	??_V@YAXPAX@Z:PROC				; operator delete[]
EXTRN	??_V@YAXPAXI@Z:PROC				; operator delete[]
EXTRN	_memcpy:PROC
EXTRN	_memset:PROC
EXTRN	__imp__wcslen:PROC
EXTRN	_strlen:PROC
EXTRN	__imp__lstrcmpA@8:PROC
EXTRN	__imp__PeekMessageA@20:PROC
EXTRN	__imp__PostQuitMessage@4:PROC
EXTRN	__imp____stdio_common_vsnprintf_s:PROC
EXTRN	__imp___calloc_dbg:PROC
EXTRN	__imp___CrtDbgReport:PROC
EXTRN	??3CObject@@SGXPAX@Z:PROC			; CObject::operator delete
EXTRN	?Serialize@CObject@@UAEXAAVCArchive@@@Z:PROC	; CObject::Serialize
EXTRN	?OnCmdMsg@CCmdTarget@@UAEHIHPAXPAUAFX_CMDHANDLERINFO@@@Z:PROC ; CCmdTarget::OnCmdMsg
EXTRN	?IsInvokeAllowed@CCmdTarget@@UAEHJ@Z:PROC	; CCmdTarget::IsInvokeAllowed
EXTRN	?GetDispatchIID@CCmdTarget@@UAEHPAU_GUID@@@Z:PROC ; CCmdTarget::GetDispatchIID
EXTRN	?GetTypeInfoCount@CCmdTarget@@UAEIXZ:PROC	; CCmdTarget::GetTypeInfoCount
EXTRN	?GetTypeLibCache@CCmdTarget@@UAEPAVCTypeLibCache@@XZ:PROC ; CCmdTarget::GetTypeLibCache
EXTRN	?GetTypeLib@CCmdTarget@@UAEJKPAPAUITypeLib@@@Z:PROC ; CCmdTarget::GetTypeLib
EXTRN	?GetCommandMap@CCmdTarget@@MBEPBUAFX_OLECMDMAP@@XZ:PROC ; CCmdTarget::GetCommandMap
EXTRN	?GetDispatchMap@CCmdTarget@@MBEPBUAFX_DISPMAP@@XZ:PROC ; CCmdTarget::GetDispatchMap
EXTRN	?GetConnectionMap@CCmdTarget@@MBEPBUAFX_CONNECTIONMAP@@XZ:PROC ; CCmdTarget::GetConnectionMap
EXTRN	?GetEventSinkMap@CCmdTarget@@MBEPBUAFX_EVENTSINKMAP@@XZ:PROC ; CCmdTarget::GetEventSinkMap
EXTRN	?OnCreateAggregates@CCmdTarget@@UAEHXZ:PROC	; CCmdTarget::OnCreateAggregates
EXTRN	?GetInterfaceHook@CCmdTarget@@UAEPAUIUnknown@@PBX@Z:PROC ; CCmdTarget::GetInterfaceHook
EXTRN	?GetExtraConnectionPoints@CCmdTarget@@MAEHPAVCPtrArray@@@Z:PROC ; CCmdTarget::GetExtraConnectionPoints
EXTRN	?GetConnectionHook@CCmdTarget@@MAEPAUIConnectionPoint@@ABU_GUID@@@Z:PROC ; CCmdTarget::GetConnectionHook
EXTRN	?Create@CWnd@@UAEHPBD0KABUtagRECT@@PAV1@IPAUCCreateContext@@@Z:PROC ; CWnd::Create
EXTRN	?CreateEx@CWnd@@UAEHKPBD0KHHHHPAUHWND__@@PAUHMENU__@@PAX@Z:PROC ; CWnd::CreateEx
EXTRN	?CreateEx@CWnd@@UAEHKPBD0KABUtagRECT@@PAV1@IPAX@Z:PROC ; CWnd::CreateEx
EXTRN	?DestroyWindow@CWnd@@UAEHXZ:PROC		; CWnd::DestroyWindow
EXTRN	?PreCreateWindow@CWnd@@UAEHAAUtagCREATESTRUCTA@@@Z:PROC ; CWnd::PreCreateWindow
EXTRN	?CalcWindowRect@CWnd@@UAEXPAUtagRECT@@I@Z:PROC	; CWnd::CalcWindowRect
EXTRN	?GetMenu@CWnd@@UBEPAVCMenu@@XZ:PROC		; CWnd::GetMenu
EXTRN	?SetMenu@CWnd@@UAEHPAVCMenu@@@Z:PROC		; CWnd::SetMenu
EXTRN	?OnToolHitTest@CWnd@@UBEHVCPoint@@PAUtagTOOLINFOA@@@Z:PROC ; CWnd::OnToolHitTest
EXTRN	?GetScrollBarCtrl@CWnd@@UBEPAVCScrollBar@@H@Z:PROC ; CWnd::GetScrollBarCtrl
EXTRN	?WinHelpA@CWnd@@UAEXKI@Z:PROC			; CWnd::WinHelpA
EXTRN	?HtmlHelpA@CWnd@@UAEXKI@Z:PROC			; CWnd::HtmlHelpA
EXTRN	?WinHelpInternal@CWnd@@UAEXKI@Z:PROC		; CWnd::WinHelpInternal
EXTRN	?ContinueModal@CWnd@@UAEHXZ:PROC		; CWnd::ContinueModal
EXTRN	?EndModalLoop@CWnd@@UAEXH@Z:PROC		; CWnd::EndModalLoop
EXTRN	?OnDrawIconicThumbnailOrLivePreview@CWnd@@UAEXAAVCDC@@VCRect@@VCSize@@HAAH@Z:PROC ; CWnd::OnDrawIconicThumbnailOrLivePreview
EXTRN	?GetInterfaceMap@CWnd@@MBEPBUAFX_INTERFACEMAP@@XZ:PROC ; CWnd::GetInterfaceMap
EXTRN	?EnsureStdObj@CWnd@@UAEJXZ:PROC			; CWnd::EnsureStdObj
EXTRN	?get_accParent@CWnd@@UAEJPAPAUIDispatch@@@Z:PROC ; CWnd::get_accParent
EXTRN	?get_accChildCount@CWnd@@UAEJPAJ@Z:PROC		; CWnd::get_accChildCount
EXTRN	?get_accChild@CWnd@@UAEJUtagVARIANT@@PAPAUIDispatch@@@Z:PROC ; CWnd::get_accChild
EXTRN	?get_accName@CWnd@@UAEJUtagVARIANT@@PAPA_W@Z:PROC ; CWnd::get_accName
EXTRN	?get_accValue@CWnd@@UAEJUtagVARIANT@@PAPA_W@Z:PROC ; CWnd::get_accValue
EXTRN	?get_accDescription@CWnd@@UAEJUtagVARIANT@@PAPA_W@Z:PROC ; CWnd::get_accDescription
EXTRN	?get_accRole@CWnd@@UAEJUtagVARIANT@@PAU2@@Z:PROC ; CWnd::get_accRole
EXTRN	?get_accState@CWnd@@UAEJUtagVARIANT@@PAU2@@Z:PROC ; CWnd::get_accState
EXTRN	?get_accHelp@CWnd@@UAEJUtagVARIANT@@PAPA_W@Z:PROC ; CWnd::get_accHelp
EXTRN	?get_accHelpTopic@CWnd@@UAEJPAPA_WUtagVARIANT@@PAJ@Z:PROC ; CWnd::get_accHelpTopic
EXTRN	?get_accKeyboardShortcut@CWnd@@UAEJUtagVARIANT@@PAPA_W@Z:PROC ; CWnd::get_accKeyboardShortcut
EXTRN	?get_accFocus@CWnd@@UAEJPAUtagVARIANT@@@Z:PROC	; CWnd::get_accFocus
EXTRN	?get_accSelection@CWnd@@UAEJPAUtagVARIANT@@@Z:PROC ; CWnd::get_accSelection
EXTRN	?get_accDefaultAction@CWnd@@UAEJUtagVARIANT@@PAPA_W@Z:PROC ; CWnd::get_accDefaultAction
EXTRN	?accSelect@CWnd@@UAEJJUtagVARIANT@@@Z:PROC	; CWnd::accSelect
EXTRN	?accLocation@CWnd@@UAEJPAJ000UtagVARIANT@@@Z:PROC ; CWnd::accLocation
EXTRN	?accNavigate@CWnd@@UAEJJUtagVARIANT@@PAU2@@Z:PROC ; CWnd::accNavigate
EXTRN	?accHitTest@CWnd@@UAEJJJPAUtagVARIANT@@@Z:PROC	; CWnd::accHitTest
EXTRN	?accDoDefaultAction@CWnd@@UAEJUtagVARIANT@@@Z:PROC ; CWnd::accDoDefaultAction
EXTRN	?put_accName@CWnd@@UAEJUtagVARIANT@@PA_W@Z:PROC	; CWnd::put_accName
EXTRN	?put_accValue@CWnd@@UAEJUtagVARIANT@@PA_W@Z:PROC ; CWnd::put_accValue
EXTRN	?SetProxy@CWnd@@UAEJPAUIAccessibleProxy@@@Z:PROC ; CWnd::SetProxy
EXTRN	?CreateAccessibleProxy@CWnd@@UAEJIJPAJ@Z:PROC	; CWnd::CreateAccessibleProxy
EXTRN	?OnCommand@CWnd@@MAEHIJ@Z:PROC			; CWnd::OnCommand
EXTRN	?OnNotify@CWnd@@MAEHIJPAJ@Z:PROC		; CWnd::OnNotify
EXTRN	?GetSuperWndProcAddr@CWnd@@MAEPAP6GJPAUHWND__@@IIJ@ZXZ:PROC ; CWnd::GetSuperWndProcAddr
EXTRN	?DoDataExchange@CWnd@@MAEXPAVCDataExchange@@@Z:PROC ; CWnd::DoDataExchange
EXTRN	?BeginModalState@CWnd@@UAEXXZ:PROC		; CWnd::BeginModalState
EXTRN	?EndModalState@CWnd@@UAEXXZ:PROC		; CWnd::EndModalState
EXTRN	?PreTranslateMessage@CWnd@@UAEHPAUtagMSG@@@Z:PROC ; CWnd::PreTranslateMessage
EXTRN	?OnAmbientProperty@CWnd@@UAEHPAVCOleControlSite@@JPAUtagVARIANT@@@Z:PROC ; CWnd::OnAmbientProperty
EXTRN	?WindowProc@CWnd@@MAEJIIJ@Z:PROC		; CWnd::WindowProc
EXTRN	?OnWndMsg@CWnd@@MAEHIIJPAJ@Z:PROC		; CWnd::OnWndMsg
EXTRN	?DefWindowProcA@CWnd@@MAEJIIJ@Z:PROC		; CWnd::DefWindowProcA
EXTRN	?PostNcDestroy@CWnd@@MAEXXZ:PROC		; CWnd::PostNcDestroy
EXTRN	?OnTouchInputs@CWnd@@MAEHIPAUtagTOUCHINPUT@@@Z:PROC ; CWnd::OnTouchInputs
EXTRN	?OnTouchInput@CWnd@@MAEHVCPoint@@HHPAUtagTOUCHINPUT@@@Z:PROC ; CWnd::OnTouchInput
EXTRN	?GetGestureStatus@CWnd@@MAEKVCPoint@@@Z:PROC	; CWnd::GetGestureStatus
EXTRN	?OnGestureZoom@CWnd@@MAEHVCPoint@@J@Z:PROC	; CWnd::OnGestureZoom
EXTRN	?OnGesturePan@CWnd@@MAEHVCPoint@@0@Z:PROC	; CWnd::OnGesturePan
EXTRN	?OnGestureRotate@CWnd@@MAEHVCPoint@@N@Z:PROC	; CWnd::OnGestureRotate
EXTRN	?OnGestureTwoFingerTap@CWnd@@MAEHVCPoint@@@Z:PROC ; CWnd::OnGestureTwoFingerTap
EXTRN	?OnGesturePressAndTap@CWnd@@MAEHVCPoint@@J@Z:PROC ; CWnd::OnGesturePressAndTap
EXTRN	?ResizeDynamicLayout@CWnd@@MAEXXZ:PROC		; CWnd::ResizeDynamicLayout
EXTRN	?CheckAutoCenter@CWnd@@UAEHXZ:PROC		; CWnd::CheckAutoCenter
EXTRN	?AssertValid@CWnd@@UBEXXZ:PROC			; CWnd::AssertValid
EXTRN	?Dump@CWnd@@UBEXAAVCDumpContext@@@Z:PROC	; CWnd::Dump
EXTRN	?IsFrameWnd@CWnd@@UBEHXZ:PROC			; CWnd::IsFrameWnd
EXTRN	?OnFinalRelease@CWnd@@UAEXXZ:PROC		; CWnd::OnFinalRelease
EXTRN	?CreateControlContainer@CWnd@@MAEHPAPAVCOleControlContainer@@@Z:PROC ; CWnd::CreateControlContainer
EXTRN	?CreateControlSite@CWnd@@MAEHPAVCOleControlContainer@@PAPAVCOleControlSite@@IABU_GUID@@@Z:PROC ; CWnd::CreateControlSite
EXTRN	?SetOccDialogInfo@CWnd@@MAEHPAU_AFX_OCC_DIALOG_INFO@@@Z:PROC ; CWnd::SetOccDialogInfo
EXTRN	?GetOccDialogInfo@CWnd@@MAEPAU_AFX_OCC_DIALOG_INFO@@XZ:PROC ; CWnd::GetOccDialogInfo
EXTRN	?GetRuntimeClass@CListCtrl@@UBEPAUCRuntimeClass@@XZ:PROC ; CListCtrl::GetRuntimeClass
EXTRN	?GetItemCount@CListCtrl@@QBEHXZ:PROC		; CListCtrl::GetItemCount
EXTRN	?SetItem@CListCtrl@@QAEHHHIPBDHIIJ@Z:PROC	; CListCtrl::SetItem
EXTRN	?GetItemData@CListCtrl@@QBEKH@Z:PROC		; CListCtrl::GetItemData
EXTRN	?DeleteItem@CListCtrl@@QAEHH@Z:PROC		; CListCtrl::DeleteItem
EXTRN	?FindItem@CListCtrl@@QBEHPAUtagLVFINDINFOA@@H@Z:PROC ; CListCtrl::FindItem
EXTRN	?RedrawItems@CListCtrl@@QAEHHH@Z:PROC		; CListCtrl::RedrawItems
EXTRN	?InsertColumn@CListCtrl@@QAEHHPBDHHH@Z:PROC	; CListCtrl::InsertColumn
EXTRN	?InsertItem@CListCtrl@@QAEHIHPBDIIHJ@Z:PROC	; CListCtrl::InsertItem
EXTRN	?OnChildNotify@CListCtrl@@MAEHIIJPAJ@Z:PROC	; CListCtrl::OnChildNotify
EXTRN	?GetItemCount@CHeaderCtrl@@QBEHXZ:PROC		; CHeaderCtrl::GetItemCount
EXTRN	?_Xbad_alloc@std@@YAXXZ:PROC			; std::_Xbad_alloc
EXTRN	__Mbrtowc:PROC
EXTRN	__imp_?_Getcvt@_Locinfo@std@@QBE?AU_Cvtvec@@XZ:PROC
EXTRN	__imp_?_Getdays@_Locinfo@std@@QBEPBDXZ:PROC
EXTRN	__imp_?_Getmonths@_Locinfo@std@@QBEPBDXZ:PROC
EXTRN	__imp_?_W_Getdays@_Locinfo@std@@QBEPBGXZ:PROC
EXTRN	__imp_?_W_Getmonths@_Locinfo@std@@QBEPBGXZ:PROC
EXTRN	??0CListControl@@QAE@XZ:PROC			; CListControl::CListControl
EXTRN	??1CListControl@@UAE@XZ:PROC			; CListControl::~CListControl
EXTRN	?PreSubclassWindow@CListControl@@UAEXXZ:PROC	; CListControl::PreSubclassWindow
EXTRN	?DrawItem@CListControl@@UAEXPAUtagDRAWITEMSTRUCT@@@Z:PROC ; CListControl::DrawItem
EXTRN	?GetMessageMap@CListControl@@MBEPBUAFX_MSGMAP@@XZ:PROC ; CListControl::GetMessageMap
EXTRN	@__security_check_cookie@4:PROC
EXTRN	___CxxFrameHandler3:PROC
EXTRN	??_7type_info@@6B@:QWORD			; type_info::`vftable'
EXTRN	___security_cookie:DWORD
;	COMDAT ?_OptionsStorage@?1??__local_stdio_printf_options@@9@4_KA
_BSS	SEGMENT
?_OptionsStorage@?1??__local_stdio_printf_options@@9@4_KA DQ 01H DUP (?) ; `__local_stdio_printf_options'::`2'::_OptionsStorage
_BSS	ENDS
_BSS	SEGMENT
?szDescribe@?1??GetDescribeString@CMatchListControl@@AAEPBDPAUtagGameMatchOption@@G@Z@4PADA DB 080H DUP (?) ; `CMatchListControl::GetDescribeString'::`2'::szDescribe
?szDescribe@?1??GetDescribeString@CRewardListControl@@AAEPBDPAUtagMatchRewardInfo@@G@Z@4PADA DB 080H DUP (?) ; `CRewardListControl::GetDescribeString'::`2'::szDescribe
_BSS	ENDS
;	COMDAT ??_R1A@?0A@EA@CRewardListControl@@8
rdata$r	SEGMENT
??_R1A@?0A@EA@CRewardListControl@@8 DD FLAT:??_R0?AVCRewardListControl@@@8 ; CRewardListControl::`RTTI Base Class Descriptor at (0,-1,0,64)'
	DD	05H
	DD	00H
	DD	0ffffffffH
	DD	00H
	DD	040H
	DD	FLAT:??_R3CRewardListControl@@8
rdata$r	ENDS
;	COMDAT ??_R2CRewardListControl@@8
rdata$r	SEGMENT
??_R2CRewardListControl@@8 DD FLAT:??_R1A@?0A@EA@CRewardListControl@@8 ; CRewardListControl::`RTTI Base Class Array'
	DD	FLAT:??_R1A@?0A@EA@CListControl@@8
	DD	FLAT:??_R1A@?0A@EA@CListCtrl@@8
	DD	FLAT:??_R1A@?0A@EA@CWnd@@8
	DD	FLAT:??_R1A@?0A@EA@CCmdTarget@@8
	DD	FLAT:??_R1A@?0A@EA@CObject@@8
rdata$r	ENDS
;	COMDAT ??_R3CRewardListControl@@8
rdata$r	SEGMENT
??_R3CRewardListControl@@8 DD 00H			; CRewardListControl::`RTTI Class Hierarchy Descriptor'
	DD	00H
	DD	06H
	DD	FLAT:??_R2CRewardListControl@@8
rdata$r	ENDS
;	COMDAT ??_R0?AVCRewardListControl@@@8
data$r	SEGMENT
??_R0?AVCRewardListControl@@@8 DD FLAT:??_7type_info@@6B@ ; CRewardListControl `RTTI Type Descriptor'
	DD	00H
	DB	'.?AVCRewardListControl@@', 00H
data$r	ENDS
;	COMDAT ??_R4CRewardListControl@@6B@
rdata$r	SEGMENT
??_R4CRewardListControl@@6B@ DD 00H			; CRewardListControl::`RTTI Complete Object Locator'
	DD	00H
	DD	00H
	DD	FLAT:??_R0?AVCRewardListControl@@@8
	DD	FLAT:??_R3CRewardListControl@@8
rdata$r	ENDS
;	COMDAT ??_R2CListCtrl@@8
rdata$r	SEGMENT
??_R2CListCtrl@@8 DD FLAT:??_R1A@?0A@EA@CListCtrl@@8	; CListCtrl::`RTTI Base Class Array'
	DD	FLAT:??_R1A@?0A@EA@CWnd@@8
	DD	FLAT:??_R1A@?0A@EA@CCmdTarget@@8
	DD	FLAT:??_R1A@?0A@EA@CObject@@8
rdata$r	ENDS
;	COMDAT ??_R3CListCtrl@@8
rdata$r	SEGMENT
??_R3CListCtrl@@8 DD 00H				; CListCtrl::`RTTI Class Hierarchy Descriptor'
	DD	00H
	DD	04H
	DD	FLAT:??_R2CListCtrl@@8
rdata$r	ENDS
;	COMDAT ??_R0?AVCListCtrl@@@8
data$r	SEGMENT
??_R0?AVCListCtrl@@@8 DD FLAT:??_7type_info@@6B@	; CListCtrl `RTTI Type Descriptor'
	DD	00H
	DB	'.?AVCListCtrl@@', 00H
data$r	ENDS
;	COMDAT ??_R1A@?0A@EA@CListCtrl@@8
rdata$r	SEGMENT
??_R1A@?0A@EA@CListCtrl@@8 DD FLAT:??_R0?AVCListCtrl@@@8 ; CListCtrl::`RTTI Base Class Descriptor at (0,-1,0,64)'
	DD	03H
	DD	00H
	DD	0ffffffffH
	DD	00H
	DD	040H
	DD	FLAT:??_R3CListCtrl@@8
rdata$r	ENDS
;	COMDAT ??_R2CListControl@@8
rdata$r	SEGMENT
??_R2CListControl@@8 DD FLAT:??_R1A@?0A@EA@CListControl@@8 ; CListControl::`RTTI Base Class Array'
	DD	FLAT:??_R1A@?0A@EA@CListCtrl@@8
	DD	FLAT:??_R1A@?0A@EA@CWnd@@8
	DD	FLAT:??_R1A@?0A@EA@CCmdTarget@@8
	DD	FLAT:??_R1A@?0A@EA@CObject@@8
rdata$r	ENDS
;	COMDAT ??_R3CListControl@@8
rdata$r	SEGMENT
??_R3CListControl@@8 DD 00H				; CListControl::`RTTI Class Hierarchy Descriptor'
	DD	00H
	DD	05H
	DD	FLAT:??_R2CListControl@@8
rdata$r	ENDS
;	COMDAT ??_R0?AVCListControl@@@8
data$r	SEGMENT
??_R0?AVCListControl@@@8 DD FLAT:??_7type_info@@6B@	; CListControl `RTTI Type Descriptor'
	DD	00H
	DB	'.?AVCListControl@@', 00H
data$r	ENDS
;	COMDAT ??_R1A@?0A@EA@CListControl@@8
rdata$r	SEGMENT
??_R1A@?0A@EA@CListControl@@8 DD FLAT:??_R0?AVCListControl@@@8 ; CListControl::`RTTI Base Class Descriptor at (0,-1,0,64)'
	DD	04H
	DD	00H
	DD	0ffffffffH
	DD	00H
	DD	040H
	DD	FLAT:??_R3CListControl@@8
rdata$r	ENDS
;	COMDAT ??_R1A@?0A@EA@CMatchListControl@@8
rdata$r	SEGMENT
??_R1A@?0A@EA@CMatchListControl@@8 DD FLAT:??_R0?AVCMatchListControl@@@8 ; CMatchListControl::`RTTI Base Class Descriptor at (0,-1,0,64)'
	DD	05H
	DD	00H
	DD	0ffffffffH
	DD	00H
	DD	040H
	DD	FLAT:??_R3CMatchListControl@@8
rdata$r	ENDS
;	COMDAT ??_R2CMatchListControl@@8
rdata$r	SEGMENT
??_R2CMatchListControl@@8 DD FLAT:??_R1A@?0A@EA@CMatchListControl@@8 ; CMatchListControl::`RTTI Base Class Array'
	DD	FLAT:??_R1A@?0A@EA@CListControl@@8
	DD	FLAT:??_R1A@?0A@EA@CListCtrl@@8
	DD	FLAT:??_R1A@?0A@EA@CWnd@@8
	DD	FLAT:??_R1A@?0A@EA@CCmdTarget@@8
	DD	FLAT:??_R1A@?0A@EA@CObject@@8
rdata$r	ENDS
;	COMDAT ??_R3CMatchListControl@@8
rdata$r	SEGMENT
??_R3CMatchListControl@@8 DD 00H			; CMatchListControl::`RTTI Class Hierarchy Descriptor'
	DD	00H
	DD	06H
	DD	FLAT:??_R2CMatchListControl@@8
rdata$r	ENDS
;	COMDAT ??_R0?AVCMatchListControl@@@8
data$r	SEGMENT
??_R0?AVCMatchListControl@@@8 DD FLAT:??_7type_info@@6B@ ; CMatchListControl `RTTI Type Descriptor'
	DD	00H
	DB	'.?AVCMatchListControl@@', 00H
data$r	ENDS
;	COMDAT ??_R4CMatchListControl@@6B@
rdata$r	SEGMENT
??_R4CMatchListControl@@6B@ DD 00H			; CMatchListControl::`RTTI Complete Object Locator'
	DD	00H
	DD	00H
	DD	FLAT:??_R0?AVCMatchListControl@@@8
	DD	FLAT:??_R3CMatchListControl@@8
rdata$r	ENDS
;	COMDAT ??_C@_1BK@MHIKGOKE@?$AA?3?$AAA?$AAM?$AA?3?$AAa?$AAm?$AA?3?$AAP?$AAM?$AA?3?$AAp?$AAm@
CONST	SEGMENT
??_C@_1BK@MHIKGOKE@?$AA?3?$AAA?$AAM?$AA?3?$AAa?$AAm?$AA?3?$AAP?$AAM?$AA?3?$AAp?$AAm@ DB ':'
	DB	00H, 'A', 00H, 'M', 00H, ':', 00H, 'a', 00H, 'm', 00H, ':', 00H
	DB	'P', 00H, 'M', 00H, ':', 00H, 'p', 00H, 'm', 00H, 00H, 00H ; `string'
CONST	ENDS
;	COMDAT ??_C@_0N@LPFKKEBD@?3AM?3am?3PM?3pm@
CONST	SEGMENT
??_C@_0N@LPFKKEBD@?3AM?3am?3PM?3pm@ DB ':AM:am:PM:pm', 00H ; `string'
CONST	ENDS
;	COMDAT ??_C@_08BOCDIOBM@?$LF?Z?$CF02d?C?$PL@
CONST	SEGMENT
??_C@_08BOCDIOBM@?$LF?Z?$CF02d?C?$PL@ DB 0b5H, 0daH, '%02d', 0c3H, 0fbH, 00H ; `string'
CONST	ENDS
;	COMDAT ?__LINE__Var@?0??GetListItemColor@CRewardListControl@@UAEXJIAAUtagListItemColor@@@Z@4JA
_DATA	SEGMENT
?__LINE__Var@?0??GetListItemColor@CRewardListControl@@UAEXJIAAUtagListItemColor@@@Z@4JA DD 0100H ; `CRewardListControl::GetListItemColor'::`1'::__LINE__Var
_DATA	ENDS
;	COMDAT ??_C@_08JMFMHOFC@?$LN?$LB?$MA?x?$LO?$KN?Q?i@
CONST	SEGMENT
??_C@_08JMFMHOFC@?$LN?$LB?$MA?x?$LO?$KN?Q?i@ DB 0bdH, 0b1H, 0c0H, 0f8H, 0beH
	DB	0adH, 0d1H, 0e9H, 00H			; `string'
CONST	ENDS
;	COMDAT ??_C@_08ONDPLBON@?$LN?$LB?$MA?x?T?$KK?$LB?$KG@
CONST	SEGMENT
??_C@_08ONDPLBON@?$LN?$LB?$MA?x?T?$KK?$LB?$KG@ DB 0bdH, 0b1H, 0c0H, 0f8H, 0d4H
	DB	0aaH, 0b1H, 0a6H, 00H			; `string'
CONST	ENDS
;	COMDAT ??_C@_08JGPOPHOF@?$LN?$LB?$MA?x?$LN?p?$LB?R@
CONST	SEGMENT
??_C@_08JGPOPHOF@?$LN?$LB?$MA?x?$LN?p?$LB?R@ DB 0bdH, 0b1H, 0c0H, 0f8H, 0bdH
	DB	0f0H, 0b1H, 0d2H, 00H			; `string'
CONST	ENDS
;	COMDAT ??_C@_08EHBMMFM@?C?$PL?5?5?5?5?$LE?N@
CONST	SEGMENT
??_C@_08EHBMMFM@?C?$PL?5?5?5?5?$LE?N@ DB 0c3H, 0fbH, '    ', 0b4H, 0ceH, 00H ; `string'
CONST	ENDS
;	COMDAT ??_C@_06CFMDOEPK@?$LM?$LE?J?$LB?H?$PM@
CONST	SEGMENT
??_C@_06CFMDOEPK@?$LM?$LE?J?$LB?H?$PM@ DB 0bcH, 0b4H, 0caH, 0b1H, 0c8H, 0fcH
	DB	00H						; `string'
CONST	ENDS
;	COMDAT ??_C@_06PFKHHJFE@?$LG?$KI?J?$LB?H?$PM@
CONST	SEGMENT
??_C@_06PFKHHJFE@?$LG?$KI?J?$LB?H?$PM@ DB 0b6H, 0a8H, 0caH, 0b1H, 0c8H, 0fcH
	DB	00H						; `string'
CONST	ENDS
;	COMDAT ??_C@_0EN@GFGADAAH@g?3?2?M?x?$LK?$PM?2happygamewh?2?$LH?$PO?N?q?$LG?K?2?O?$LF?M?$LD@
CONST	SEGMENT
??_C@_0EN@GFGADAAH@g?3?2?M?x?$LK?$PM?2happygamewh?2?$LH?$PO?N?q?$LG?K?2?O?$LF?M?$LD@ DB 'g'
	DB	':\', 0cdH, 0f8H, 0baH, 0fcH, '\happygamewh\', 0b7H, 0feH, 0ceH
	DB	0f1H, 0b6H, 0cbH, '\', 0cfH, 0b5H, 0cdH, 0b3H, 0c4H, 0a3H, 0bfH
	DB	0e9H, '\', 0b7H, 0feH, 0ceH, 0f1H, 0c6H, 0f7H, 0d7H, 0e9H, 0bcH
	DB	0feH, '\', 0c4H, 0a3H, 0bfH, 0e9H, 0b9H, 0dcH, 0c0H, 0edH, '\m'
	DB	'atchlistcontrol.cpp', 00H			; `string'
CONST	ENDS
;	COMDAT ?__LINE__Var@?0??GetListItemColor@CMatchListControl@@UAEXJIAAUtagListItemColor@@@Z@4JA
_DATA	SEGMENT
?__LINE__Var@?0??GetListItemColor@CMatchListControl@@UAEXJIAAUtagListItemColor@@@Z@4JA DD 036H ; `CMatchListControl::GetListItemColor'::`1'::__LINE__Var
_DATA	ENDS
;	COMDAT ??_C@_08NHGCFIKP@?$LB?H?H?$PM?C?$PL?$LD?F@
CONST	SEGMENT
??_C@_08NHGCFIKP@?$LB?H?H?$PM?C?$PL?$LD?F@ DB 0b1H, 0c8H, 0c8H, 0fcH, 0c3H
	DB	0fbH, 0b3H, 0c6H, 00H			; `string'
CONST	ENDS
;	COMDAT ??_C@_08LOLPFOFD@?$LB?H?H?$PM?$MA?$OA?P?M@
CONST	SEGMENT
??_C@_08LOLPFOFD@?$LB?H?H?$PM?$MA?$OA?P?M@ DB 0b1H, 0c8H, 0c8H, 0fcH, 0c0H
	DB	0e0H, 0d0H, 0cdH, 00H			; `string'
CONST	ENDS
;	COMDAT ??_7CRewardListControl@@6B@
CONST	SEGMENT
??_7CRewardListControl@@6B@ DD FLAT:??_R4CRewardListControl@@6B@ ; CRewardListControl::`vftable'
	DD	FLAT:?GetRuntimeClass@CListCtrl@@UBEPAUCRuntimeClass@@XZ
	DD	FLAT:??_ECRewardListControl@@UAEPAXI@Z
	DD	FLAT:?Serialize@CObject@@UAEXAAVCArchive@@@Z
	DD	FLAT:?AssertValid@CWnd@@UBEXXZ
	DD	FLAT:?Dump@CWnd@@UBEXAAVCDumpContext@@@Z
	DD	FLAT:?OnCmdMsg@CCmdTarget@@UAEHIHPAXPAUAFX_CMDHANDLERINFO@@@Z
	DD	FLAT:?OnFinalRelease@CWnd@@UAEXXZ
	DD	FLAT:?IsInvokeAllowed@CCmdTarget@@UAEHJ@Z
	DD	FLAT:?GetDispatchIID@CCmdTarget@@UAEHPAU_GUID@@@Z
	DD	FLAT:?GetTypeInfoCount@CCmdTarget@@UAEIXZ
	DD	FLAT:?GetTypeLibCache@CCmdTarget@@UAEPAVCTypeLibCache@@XZ
	DD	FLAT:?GetTypeLib@CCmdTarget@@UAEJKPAPAUITypeLib@@@Z
	DD	FLAT:?GetMessageMap@CListControl@@MBEPBUAFX_MSGMAP@@XZ
	DD	FLAT:?GetCommandMap@CCmdTarget@@MBEPBUAFX_OLECMDMAP@@XZ
	DD	FLAT:?GetDispatchMap@CCmdTarget@@MBEPBUAFX_DISPMAP@@XZ
	DD	FLAT:?GetConnectionMap@CCmdTarget@@MBEPBUAFX_CONNECTIONMAP@@XZ
	DD	FLAT:?GetInterfaceMap@CWnd@@MBEPBUAFX_INTERFACEMAP@@XZ
	DD	FLAT:?GetEventSinkMap@CCmdTarget@@MBEPBUAFX_EVENTSINKMAP@@XZ
	DD	FLAT:?OnCreateAggregates@CCmdTarget@@UAEHXZ
	DD	FLAT:?GetInterfaceHook@CCmdTarget@@UAEPAUIUnknown@@PBX@Z
	DD	FLAT:?GetExtraConnectionPoints@CCmdTarget@@MAEHPAVCPtrArray@@@Z
	DD	FLAT:?GetConnectionHook@CCmdTarget@@MAEPAUIConnectionPoint@@ABU_GUID@@@Z
	DD	FLAT:?PreSubclassWindow@CListControl@@UAEXXZ
	DD	FLAT:?Create@CWnd@@UAEHPBD0KABUtagRECT@@PAV1@IPAUCCreateContext@@@Z
	DD	FLAT:?CreateEx@CWnd@@UAEHKPBD0KABUtagRECT@@PAV1@IPAX@Z
	DD	FLAT:?CreateEx@CWnd@@UAEHKPBD0KHHHHPAUHWND__@@PAUHMENU__@@PAX@Z
	DD	FLAT:?DestroyWindow@CWnd@@UAEHXZ
	DD	FLAT:?PreCreateWindow@CWnd@@UAEHAAUtagCREATESTRUCTA@@@Z
	DD	FLAT:?CalcWindowRect@CWnd@@UAEXPAUtagRECT@@I@Z
	DD	FLAT:?GetMenu@CWnd@@UBEPAVCMenu@@XZ
	DD	FLAT:?SetMenu@CWnd@@UAEHPAVCMenu@@@Z
	DD	FLAT:?OnToolHitTest@CWnd@@UBEHVCPoint@@PAUtagTOOLINFOA@@@Z
	DD	FLAT:?GetScrollBarCtrl@CWnd@@UBEPAVCScrollBar@@H@Z
	DD	FLAT:?WinHelpA@CWnd@@UAEXKI@Z
	DD	FLAT:?HtmlHelpA@CWnd@@UAEXKI@Z
	DD	FLAT:?WinHelpInternal@CWnd@@UAEXKI@Z
	DD	FLAT:?ContinueModal@CWnd@@UAEHXZ
	DD	FLAT:?EndModalLoop@CWnd@@UAEXH@Z
	DD	FLAT:?OnDrawIconicThumbnailOrLivePreview@CWnd@@UAEXAAVCDC@@VCRect@@VCSize@@HAAH@Z
	DD	FLAT:?EnsureStdObj@CWnd@@UAEJXZ
	DD	FLAT:?get_accParent@CWnd@@UAEJPAPAUIDispatch@@@Z
	DD	FLAT:?get_accChildCount@CWnd@@UAEJPAJ@Z
	DD	FLAT:?get_accChild@CWnd@@UAEJUtagVARIANT@@PAPAUIDispatch@@@Z
	DD	FLAT:?get_accName@CWnd@@UAEJUtagVARIANT@@PAPA_W@Z
	DD	FLAT:?get_accValue@CWnd@@UAEJUtagVARIANT@@PAPA_W@Z
	DD	FLAT:?get_accDescription@CWnd@@UAEJUtagVARIANT@@PAPA_W@Z
	DD	FLAT:?get_accRole@CWnd@@UAEJUtagVARIANT@@PAU2@@Z
	DD	FLAT:?get_accState@CWnd@@UAEJUtagVARIANT@@PAU2@@Z
	DD	FLAT:?get_accHelp@CWnd@@UAEJUtagVARIANT@@PAPA_W@Z
	DD	FLAT:?get_accHelpTopic@CWnd@@UAEJPAPA_WUtagVARIANT@@PAJ@Z
	DD	FLAT:?get_accKeyboardShortcut@CWnd@@UAEJUtagVARIANT@@PAPA_W@Z
	DD	FLAT:?get_accFocus@CWnd@@UAEJPAUtagVARIANT@@@Z
	DD	FLAT:?get_accSelection@CWnd@@UAEJPAUtagVARIANT@@@Z
	DD	FLAT:?get_accDefaultAction@CWnd@@UAEJUtagVARIANT@@PAPA_W@Z
	DD	FLAT:?accSelect@CWnd@@UAEJJUtagVARIANT@@@Z
	DD	FLAT:?accLocation@CWnd@@UAEJPAJ000UtagVARIANT@@@Z
	DD	FLAT:?accNavigate@CWnd@@UAEJJUtagVARIANT@@PAU2@@Z
	DD	FLAT:?accHitTest@CWnd@@UAEJJJPAUtagVARIANT@@@Z
	DD	FLAT:?accDoDefaultAction@CWnd@@UAEJUtagVARIANT@@@Z
	DD	FLAT:?put_accName@CWnd@@UAEJUtagVARIANT@@PA_W@Z
	DD	FLAT:?put_accValue@CWnd@@UAEJUtagVARIANT@@PA_W@Z
	DD	FLAT:?SetProxy@CWnd@@UAEJPAUIAccessibleProxy@@@Z
	DD	FLAT:?CreateAccessibleProxy@CWnd@@UAEJIJPAJ@Z
	DD	FLAT:?OnCommand@CWnd@@MAEHIJ@Z
	DD	FLAT:?OnNotify@CWnd@@MAEHIJPAJ@Z
	DD	FLAT:?GetSuperWndProcAddr@CWnd@@MAEPAP6GJPAUHWND__@@IIJ@ZXZ
	DD	FLAT:?DoDataExchange@CWnd@@MAEXPAVCDataExchange@@@Z
	DD	FLAT:?BeginModalState@CWnd@@UAEXXZ
	DD	FLAT:?EndModalState@CWnd@@UAEXXZ
	DD	FLAT:?PreTranslateMessage@CWnd@@UAEHPAUtagMSG@@@Z
	DD	FLAT:?OnAmbientProperty@CWnd@@UAEHPAVCOleControlSite@@JPAUtagVARIANT@@@Z
	DD	FLAT:?WindowProc@CWnd@@MAEJIIJ@Z
	DD	FLAT:?OnWndMsg@CWnd@@MAEHIIJPAJ@Z
	DD	FLAT:?DefWindowProcA@CWnd@@MAEJIIJ@Z
	DD	FLAT:?PostNcDestroy@CWnd@@MAEXXZ
	DD	FLAT:?OnChildNotify@CListCtrl@@MAEHIIJPAJ@Z
	DD	FLAT:?OnTouchInputs@CWnd@@MAEHIPAUtagTOUCHINPUT@@@Z
	DD	FLAT:?OnTouchInput@CWnd@@MAEHVCPoint@@HHPAUtagTOUCHINPUT@@@Z
	DD	FLAT:?GetGestureStatus@CWnd@@MAEKVCPoint@@@Z
	DD	FLAT:?OnGestureZoom@CWnd@@MAEHVCPoint@@J@Z
	DD	FLAT:?OnGesturePan@CWnd@@MAEHVCPoint@@0@Z
	DD	FLAT:?OnGestureRotate@CWnd@@MAEHVCPoint@@N@Z
	DD	FLAT:?OnGestureTwoFingerTap@CWnd@@MAEHVCPoint@@@Z
	DD	FLAT:?OnGesturePressAndTap@CWnd@@MAEHVCPoint@@J@Z
	DD	FLAT:?ResizeDynamicLayout@CWnd@@MAEXXZ
	DD	FLAT:?CheckAutoCenter@CWnd@@UAEHXZ
	DD	FLAT:?IsFrameWnd@CWnd@@UBEHXZ
	DD	FLAT:?CreateControlContainer@CWnd@@MAEHPAPAVCOleControlContainer@@@Z
	DD	FLAT:?CreateControlSite@CWnd@@MAEHPAVCOleControlContainer@@PAPAVCOleControlSite@@IABU_GUID@@@Z
	DD	FLAT:?SetOccDialogInfo@CWnd@@MAEHPAU_AFX_OCC_DIALOG_INFO@@@Z
	DD	FLAT:?GetOccDialogInfo@CWnd@@MAEPAU_AFX_OCC_DIALOG_INFO@@XZ
	DD	FLAT:?DrawItem@CListControl@@UAEXPAUtagDRAWITEMSTRUCT@@@Z
	DD	FLAT:?InitListControl@CRewardListControl@@UAEXXZ
	DD	FLAT:?SortListItemData@CRewardListControl@@UAEHJJG@Z
	DD	FLAT:?GetListItemColor@CRewardListControl@@UAEXJIAAUtagListItemColor@@@Z
CONST	ENDS
;	COMDAT ??_7CMatchListControl@@6B@
CONST	SEGMENT
??_7CMatchListControl@@6B@ DD FLAT:??_R4CMatchListControl@@6B@ ; CMatchListControl::`vftable'
	DD	FLAT:?GetRuntimeClass@CListCtrl@@UBEPAUCRuntimeClass@@XZ
	DD	FLAT:??_ECMatchListControl@@UAEPAXI@Z
	DD	FLAT:?Serialize@CObject@@UAEXAAVCArchive@@@Z
	DD	FLAT:?AssertValid@CWnd@@UBEXXZ
	DD	FLAT:?Dump@CWnd@@UBEXAAVCDumpContext@@@Z
	DD	FLAT:?OnCmdMsg@CCmdTarget@@UAEHIHPAXPAUAFX_CMDHANDLERINFO@@@Z
	DD	FLAT:?OnFinalRelease@CWnd@@UAEXXZ
	DD	FLAT:?IsInvokeAllowed@CCmdTarget@@UAEHJ@Z
	DD	FLAT:?GetDispatchIID@CCmdTarget@@UAEHPAU_GUID@@@Z
	DD	FLAT:?GetTypeInfoCount@CCmdTarget@@UAEIXZ
	DD	FLAT:?GetTypeLibCache@CCmdTarget@@UAEPAVCTypeLibCache@@XZ
	DD	FLAT:?GetTypeLib@CCmdTarget@@UAEJKPAPAUITypeLib@@@Z
	DD	FLAT:?GetMessageMap@CListControl@@MBEPBUAFX_MSGMAP@@XZ
	DD	FLAT:?GetCommandMap@CCmdTarget@@MBEPBUAFX_OLECMDMAP@@XZ
	DD	FLAT:?GetDispatchMap@CCmdTarget@@MBEPBUAFX_DISPMAP@@XZ
	DD	FLAT:?GetConnectionMap@CCmdTarget@@MBEPBUAFX_CONNECTIONMAP@@XZ
	DD	FLAT:?GetInterfaceMap@CWnd@@MBEPBUAFX_INTERFACEMAP@@XZ
	DD	FLAT:?GetEventSinkMap@CCmdTarget@@MBEPBUAFX_EVENTSINKMAP@@XZ
	DD	FLAT:?OnCreateAggregates@CCmdTarget@@UAEHXZ
	DD	FLAT:?GetInterfaceHook@CCmdTarget@@UAEPAUIUnknown@@PBX@Z
	DD	FLAT:?GetExtraConnectionPoints@CCmdTarget@@MAEHPAVCPtrArray@@@Z
	DD	FLAT:?GetConnectionHook@CCmdTarget@@MAEPAUIConnectionPoint@@ABU_GUID@@@Z
	DD	FLAT:?PreSubclassWindow@CListControl@@UAEXXZ
	DD	FLAT:?Create@CWnd@@UAEHPBD0KABUtagRECT@@PAV1@IPAUCCreateContext@@@Z
	DD	FLAT:?CreateEx@CWnd@@UAEHKPBD0KABUtagRECT@@PAV1@IPAX@Z
	DD	FLAT:?CreateEx@CWnd@@UAEHKPBD0KHHHHPAUHWND__@@PAUHMENU__@@PAX@Z
	DD	FLAT:?DestroyWindow@CWnd@@UAEHXZ
	DD	FLAT:?PreCreateWindow@CWnd@@UAEHAAUtagCREATESTRUCTA@@@Z
	DD	FLAT:?CalcWindowRect@CWnd@@UAEXPAUtagRECT@@I@Z
	DD	FLAT:?GetMenu@CWnd@@UBEPAVCMenu@@XZ
	DD	FLAT:?SetMenu@CWnd@@UAEHPAVCMenu@@@Z
	DD	FLAT:?OnToolHitTest@CWnd@@UBEHVCPoint@@PAUtagTOOLINFOA@@@Z
	DD	FLAT:?GetScrollBarCtrl@CWnd@@UBEPAVCScrollBar@@H@Z
	DD	FLAT:?WinHelpA@CWnd@@UAEXKI@Z
	DD	FLAT:?HtmlHelpA@CWnd@@UAEXKI@Z
	DD	FLAT:?WinHelpInternal@CWnd@@UAEXKI@Z
	DD	FLAT:?ContinueModal@CWnd@@UAEHXZ
	DD	FLAT:?EndModalLoop@CWnd@@UAEXH@Z
	DD	FLAT:?OnDrawIconicThumbnailOrLivePreview@CWnd@@UAEXAAVCDC@@VCRect@@VCSize@@HAAH@Z
	DD	FLAT:?EnsureStdObj@CWnd@@UAEJXZ
	DD	FLAT:?get_accParent@CWnd@@UAEJPAPAUIDispatch@@@Z
	DD	FLAT:?get_accChildCount@CWnd@@UAEJPAJ@Z
	DD	FLAT:?get_accChild@CWnd@@UAEJUtagVARIANT@@PAPAUIDispatch@@@Z
	DD	FLAT:?get_accName@CWnd@@UAEJUtagVARIANT@@PAPA_W@Z
	DD	FLAT:?get_accValue@CWnd@@UAEJUtagVARIANT@@PAPA_W@Z
	DD	FLAT:?get_accDescription@CWnd@@UAEJUtagVARIANT@@PAPA_W@Z
	DD	FLAT:?get_accRole@CWnd@@UAEJUtagVARIANT@@PAU2@@Z
	DD	FLAT:?get_accState@CWnd@@UAEJUtagVARIANT@@PAU2@@Z
	DD	FLAT:?get_accHelp@CWnd@@UAEJUtagVARIANT@@PAPA_W@Z
	DD	FLAT:?get_accHelpTopic@CWnd@@UAEJPAPA_WUtagVARIANT@@PAJ@Z
	DD	FLAT:?get_accKeyboardShortcut@CWnd@@UAEJUtagVARIANT@@PAPA_W@Z
	DD	FLAT:?get_accFocus@CWnd@@UAEJPAUtagVARIANT@@@Z
	DD	FLAT:?get_accSelection@CWnd@@UAEJPAUtagVARIANT@@@Z
	DD	FLAT:?get_accDefaultAction@CWnd@@UAEJUtagVARIANT@@PAPA_W@Z
	DD	FLAT:?accSelect@CWnd@@UAEJJUtagVARIANT@@@Z
	DD	FLAT:?accLocation@CWnd@@UAEJPAJ000UtagVARIANT@@@Z
	DD	FLAT:?accNavigate@CWnd@@UAEJJUtagVARIANT@@PAU2@@Z
	DD	FLAT:?accHitTest@CWnd@@UAEJJJPAUtagVARIANT@@@Z
	DD	FLAT:?accDoDefaultAction@CWnd@@UAEJUtagVARIANT@@@Z
	DD	FLAT:?put_accName@CWnd@@UAEJUtagVARIANT@@PA_W@Z
	DD	FLAT:?put_accValue@CWnd@@UAEJUtagVARIANT@@PA_W@Z
	DD	FLAT:?SetProxy@CWnd@@UAEJPAUIAccessibleProxy@@@Z
	DD	FLAT:?CreateAccessibleProxy@CWnd@@UAEJIJPAJ@Z
	DD	FLAT:?OnCommand@CWnd@@MAEHIJ@Z
	DD	FLAT:?OnNotify@CWnd@@MAEHIJPAJ@Z
	DD	FLAT:?GetSuperWndProcAddr@CWnd@@MAEPAP6GJPAUHWND__@@IIJ@ZXZ
	DD	FLAT:?DoDataExchange@CWnd@@MAEXPAVCDataExchange@@@Z
	DD	FLAT:?BeginModalState@CWnd@@UAEXXZ
	DD	FLAT:?EndModalState@CWnd@@UAEXXZ
	DD	FLAT:?PreTranslateMessage@CWnd@@UAEHPAUtagMSG@@@Z
	DD	FLAT:?OnAmbientProperty@CWnd@@UAEHPAVCOleControlSite@@JPAUtagVARIANT@@@Z
	DD	FLAT:?WindowProc@CWnd@@MAEJIIJ@Z
	DD	FLAT:?OnWndMsg@CWnd@@MAEHIIJPAJ@Z
	DD	FLAT:?DefWindowProcA@CWnd@@MAEJIIJ@Z
	DD	FLAT:?PostNcDestroy@CWnd@@MAEXXZ
	DD	FLAT:?OnChildNotify@CListCtrl@@MAEHIIJPAJ@Z
	DD	FLAT:?OnTouchInputs@CWnd@@MAEHIPAUtagTOUCHINPUT@@@Z
	DD	FLAT:?OnTouchInput@CWnd@@MAEHVCPoint@@HHPAUtagTOUCHINPUT@@@Z
	DD	FLAT:?GetGestureStatus@CWnd@@MAEKVCPoint@@@Z
	DD	FLAT:?OnGestureZoom@CWnd@@MAEHVCPoint@@J@Z
	DD	FLAT:?OnGesturePan@CWnd@@MAEHVCPoint@@0@Z
	DD	FLAT:?OnGestureRotate@CWnd@@MAEHVCPoint@@N@Z
	DD	FLAT:?OnGestureTwoFingerTap@CWnd@@MAEHVCPoint@@@Z
	DD	FLAT:?OnGesturePressAndTap@CWnd@@MAEHVCPoint@@J@Z
	DD	FLAT:?ResizeDynamicLayout@CWnd@@MAEXXZ
	DD	FLAT:?CheckAutoCenter@CWnd@@UAEHXZ
	DD	FLAT:?IsFrameWnd@CWnd@@UBEHXZ
	DD	FLAT:?CreateControlContainer@CWnd@@MAEHPAPAVCOleControlContainer@@@Z
	DD	FLAT:?CreateControlSite@CWnd@@MAEHPAVCOleControlContainer@@PAPAVCOleControlSite@@IABU_GUID@@@Z
	DD	FLAT:?SetOccDialogInfo@CWnd@@MAEHPAU_AFX_OCC_DIALOG_INFO@@@Z
	DD	FLAT:?GetOccDialogInfo@CWnd@@MAEPAU_AFX_OCC_DIALOG_INFO@@XZ
	DD	FLAT:?DrawItem@CListControl@@UAEXPAUtagDRAWITEMSTRUCT@@@Z
	DD	FLAT:?InitListControl@CMatchListControl@@UAEXXZ
	DD	FLAT:?SortListItemData@CMatchListControl@@UAEHJJG@Z
	DD	FLAT:?GetListItemColor@CMatchListControl@@UAEXJIAAUtagListItemColor@@@Z
CONST	ENDS
;	COMDAT ??_C@_0GI@DJFLDKBN@c?3?2program?5files?5?$CIx86?$CJ?2microsof@
CONST	SEGMENT
??_C@_0GI@DJFLDKBN@c?3?2program?5files?5?$CIx86?$CJ?2microsof@ DB 'c:\pro'
	DB	'gram files (x86)\microsoft visual studio\2017\community\vc\to'
	DB	'ols\msvc\14.16.27023\include\xlocnum', 00H	; `string'
CONST	ENDS
;	COMDAT ?__LINE__Var@?0??_Maklocwcs@std@@YAPA_WPB_W@Z@4JA
_DATA	SEGMENT
?__LINE__Var@?0??_Maklocwcs@std@@YAPA_WPB_W@Z@4JA DD 061H ; `std::_Maklocwcs'::`1'::__LINE__Var
_DATA	ENDS
;	COMDAT ??_C@_0GI@LKBGDILM@c?3?2program?5files?5?$CIx86?$CJ?2microsof@
CONST	SEGMENT
??_C@_0GI@LKBGDILM@c?3?2program?5files?5?$CIx86?$CJ?2microsof@ DB 'c:\pro'
	DB	'gram files (x86)\microsoft visual studio\2017\community\vc\to'
	DB	'ols\msvc\14.16.27023\include\xlocale', 00H	; `string'
CONST	ENDS
;	COMDAT ??_C@_02DKCKIIND@?$CFs@
CONST	SEGMENT
??_C@_02DKCKIIND@?$CFs@ DB '%s', 00H			; `string'
CONST	ENDS
;	COMDAT ??_R2CCmdTarget@@8
rdata$r	SEGMENT
??_R2CCmdTarget@@8 DD FLAT:??_R1A@?0A@EA@CCmdTarget@@8	; CCmdTarget::`RTTI Base Class Array'
	DD	FLAT:??_R1A@?0A@EA@CObject@@8
rdata$r	ENDS
;	COMDAT ??_R3CCmdTarget@@8
rdata$r	SEGMENT
??_R3CCmdTarget@@8 DD 00H				; CCmdTarget::`RTTI Class Hierarchy Descriptor'
	DD	00H
	DD	02H
	DD	FLAT:??_R2CCmdTarget@@8
rdata$r	ENDS
;	COMDAT ??_R0?AVCCmdTarget@@@8
data$r	SEGMENT
??_R0?AVCCmdTarget@@@8 DD FLAT:??_7type_info@@6B@	; CCmdTarget `RTTI Type Descriptor'
	DD	00H
	DB	'.?AVCCmdTarget@@', 00H
data$r	ENDS
;	COMDAT ??_R1A@?0A@EA@CCmdTarget@@8
rdata$r	SEGMENT
??_R1A@?0A@EA@CCmdTarget@@8 DD FLAT:??_R0?AVCCmdTarget@@@8 ; CCmdTarget::`RTTI Base Class Descriptor at (0,-1,0,64)'
	DD	01H
	DD	00H
	DD	0ffffffffH
	DD	00H
	DD	040H
	DD	FLAT:??_R3CCmdTarget@@8
rdata$r	ENDS
;	COMDAT ??_R2CWnd@@8
rdata$r	SEGMENT
??_R2CWnd@@8 DD	FLAT:??_R1A@?0A@EA@CWnd@@8		; CWnd::`RTTI Base Class Array'
	DD	FLAT:??_R1A@?0A@EA@CCmdTarget@@8
	DD	FLAT:??_R1A@?0A@EA@CObject@@8
rdata$r	ENDS
;	COMDAT ??_R3CWnd@@8
rdata$r	SEGMENT
??_R3CWnd@@8 DD	00H					; CWnd::`RTTI Class Hierarchy Descriptor'
	DD	00H
	DD	03H
	DD	FLAT:??_R2CWnd@@8
rdata$r	ENDS
;	COMDAT ??_R0?AVCWnd@@@8
data$r	SEGMENT
??_R0?AVCWnd@@@8 DD FLAT:??_7type_info@@6B@		; CWnd `RTTI Type Descriptor'
	DD	00H
	DB	'.?AVCWnd@@', 00H
data$r	ENDS
;	COMDAT ??_R1A@?0A@EA@CWnd@@8
rdata$r	SEGMENT
??_R1A@?0A@EA@CWnd@@8 DD FLAT:??_R0?AVCWnd@@@8		; CWnd::`RTTI Base Class Descriptor at (0,-1,0,64)'
	DD	02H
	DD	00H
	DD	0ffffffffH
	DD	00H
	DD	040H
	DD	FLAT:??_R3CWnd@@8
rdata$r	ENDS
;	COMDAT ??_R2CObject@@8
rdata$r	SEGMENT
??_R2CObject@@8 DD FLAT:??_R1A@?0A@EA@CObject@@8	; CObject::`RTTI Base Class Array'
rdata$r	ENDS
;	COMDAT ??_R3CObject@@8
rdata$r	SEGMENT
??_R3CObject@@8 DD 00H					; CObject::`RTTI Class Hierarchy Descriptor'
	DD	00H
	DD	01H
	DD	FLAT:??_R2CObject@@8
rdata$r	ENDS
;	COMDAT ??_R0?AVCObject@@@8
data$r	SEGMENT
??_R0?AVCObject@@@8 DD FLAT:??_7type_info@@6B@		; CObject `RTTI Type Descriptor'
	DD	00H
	DB	'.?AVCObject@@', 00H
data$r	ENDS
;	COMDAT ??_R1A@?0A@EA@CObject@@8
rdata$r	SEGMENT
??_R1A@?0A@EA@CObject@@8 DD FLAT:??_R0?AVCObject@@@8	; CObject::`RTTI Base Class Descriptor at (0,-1,0,64)'
	DD	00H
	DD	00H
	DD	0ffffffffH
	DD	00H
	DD	040H
	DD	FLAT:??_R3CObject@@8
rdata$r	ENDS
;	COMDAT ??_C@_05LLAMLEHD@?$CFI64d@
CONST	SEGMENT
??_C@_05LLAMLEHD@?$CFI64d@ DB '%I64d', 00H		; `string'
CONST	ENDS
;	COMDAT ??_C@_02DPKJAMEF@?$CFd@
CONST	SEGMENT
??_C@_02DPKJAMEF@?$CFd@ DB '%d', 00H			; `string'
CONST	ENDS
;	COMDAT xdata$x
xdata$x	SEGMENT
__ehfuncinfo$??_ECRewardListControl@@UAEPAXI@Z DD 019930522H
	DD	00H
	DD	00H
	DD	2 DUP(00H)
	DD	2 DUP(00H)
	DD	00H
	DD	05H
xdata$x	ENDS
;	COMDAT xdata$x
xdata$x	SEGMENT
__ehfuncinfo$??_ECMatchListControl@@UAEPAXI@Z DD 019930522H
	DD	00H
	DD	00H
	DD	2 DUP(00H)
	DD	2 DUP(00H)
	DD	00H
	DD	05H
xdata$x	ENDS
; Function compile flags: /Odtp /ZI
; File c:\program files (x86)\microsoft visual studio\2017\community\vc\tools\msvc\14.16.27023\include\xlocale
;	COMDAT ??$_Maklocstr@D@std@@YAPADPBDPADABU_Cvtvec@@@Z
_TEXT	SEGMENT
__Ptrnext$1 = -12					; size = 4
__Ptrdest$ = -8						; size = 4
__Count$ = -4						; size = 4
__Ptr$ = 8						; size = 4
___formal$ = 12						; size = 4
___formal$ = 16						; size = 4
??$_Maklocstr@D@std@@YAPADPBDPADABU_Cvtvec@@@Z PROC	; std::_Maklocstr<char>, COMDAT

; 664  : 	{	// convert C string to _Elem sequence using _Cvtvec

  00000	55		 push	 ebp
  00001	8b ec		 mov	 ebp, esp
  00003	83 ec 4c	 sub	 esp, 76			; 0000004cH
  00006	53		 push	 ebx
  00007	56		 push	 esi
  00008	57		 push	 edi

; 665  : 	size_t _Count = _CSTD strlen(_Ptr) + 1;

  00009	8b 45 08	 mov	 eax, DWORD PTR __Ptr$[ebp]
  0000c	50		 push	 eax
  0000d	e8 00 00 00 00	 call	 _strlen
  00012	83 c4 04	 add	 esp, 4
  00015	83 c0 01	 add	 eax, 1
  00018	89 45 fc	 mov	 DWORD PTR __Count$[ebp], eax

; 666  : 
; 667  : 	_Elem *_Ptrdest = (_Elem *)_calloc_dbg(_Count, sizeof (_Elem),

  0001b	68 9c 02 00 00	 push	 668			; 0000029cH
  00020	68 00 00 00 00	 push	 OFFSET ??_C@_0GI@LKBGDILM@c?3?2program?5files?5?$CIx86?$CJ?2microsof@
  00025	6a 02		 push	 2
  00027	6a 01		 push	 1
  00029	8b 45 fc	 mov	 eax, DWORD PTR __Count$[ebp]
  0002c	50		 push	 eax
  0002d	ff 15 00 00 00
	00		 call	 DWORD PTR __imp___calloc_dbg
  00033	83 c4 14	 add	 esp, 20			; 00000014H
  00036	89 45 f8	 mov	 DWORD PTR __Ptrdest$[ebp], eax

; 668  : 		_CRT_BLOCK, __FILE__, __LINE__);
; 669  : 
; 670  : 	if (!_Ptrdest)

  00039	83 7d f8 00	 cmp	 DWORD PTR __Ptrdest$[ebp], 0
  0003d	75 05		 jne	 SHORT $LN5@Maklocstr

; 671  : 		_Xbad_alloc();

  0003f	e8 00 00 00 00	 call	 ?_Xbad_alloc@std@@YAXXZ	; std::_Xbad_alloc
$LN5@Maklocstr:

; 672  : 
; 673  : 	for (_Elem *_Ptrnext = _Ptrdest; 0 < _Count; --_Count, ++_Ptrnext, ++_Ptr)

  00044	8b 45 f8	 mov	 eax, DWORD PTR __Ptrdest$[ebp]
  00047	89 45 f4	 mov	 DWORD PTR __Ptrnext$1[ebp], eax
  0004a	eb 1b		 jmp	 SHORT $LN4@Maklocstr
$LN2@Maklocstr:
  0004c	8b 45 fc	 mov	 eax, DWORD PTR __Count$[ebp]
  0004f	83 e8 01	 sub	 eax, 1
  00052	89 45 fc	 mov	 DWORD PTR __Count$[ebp], eax
  00055	8b 4d f4	 mov	 ecx, DWORD PTR __Ptrnext$1[ebp]
  00058	83 c1 01	 add	 ecx, 1
  0005b	89 4d f4	 mov	 DWORD PTR __Ptrnext$1[ebp], ecx
  0005e	8b 55 08	 mov	 edx, DWORD PTR __Ptr$[ebp]
  00061	83 c2 01	 add	 edx, 1
  00064	89 55 08	 mov	 DWORD PTR __Ptr$[ebp], edx
$LN4@Maklocstr:
  00067	83 7d fc 00	 cmp	 DWORD PTR __Count$[ebp], 0
  0006b	76 0c		 jbe	 SHORT $LN3@Maklocstr

; 674  : 		*_Ptrnext = (_Elem)(unsigned char)*_Ptr;

  0006d	8b 45 f4	 mov	 eax, DWORD PTR __Ptrnext$1[ebp]
  00070	8b 4d 08	 mov	 ecx, DWORD PTR __Ptr$[ebp]
  00073	8a 11		 mov	 dl, BYTE PTR [ecx]
  00075	88 10		 mov	 BYTE PTR [eax], dl
  00077	eb d3		 jmp	 SHORT $LN2@Maklocstr
$LN3@Maklocstr:

; 675  : 
; 676  : 	return (_Ptrdest);

  00079	8b 45 f8	 mov	 eax, DWORD PTR __Ptrdest$[ebp]
$LN6@Maklocstr:

; 677  : 	}

  0007c	5f		 pop	 edi
  0007d	5e		 pop	 esi
  0007e	5b		 pop	 ebx
  0007f	8b e5		 mov	 esp, ebp
  00081	5d		 pop	 ebp
  00082	c3		 ret	 0
??$_Maklocstr@D@std@@YAPADPBDPADABU_Cvtvec@@@Z ENDP	; std::_Maklocstr<char>
_TEXT	ENDS
; Function compile flags: /Odtp /ZI
; File c:\program files (x86)\windows kits\10\include\10.0.17763.0\ucrt\stdio.h
;	COMDAT ??$_snprintf_s@$0IA@@@YAHAAY0IA@DIPBDZZ
_TEXT	SEGMENT
__ArgList$ = -4						; size = 4
__Buffer$ = 8						; size = 4
__BufferCount$ = 12					; size = 4
__Format$ = 16						; size = 4
??$_snprintf_s@$0IA@@@YAHAAY0IA@DIPBDZZ PROC		; _snprintf_s<128>, COMDAT

; 2079 :         )

  00000	55		 push	 ebp
  00001	8b ec		 mov	 ebp, esp
  00003	83 ec 48	 sub	 esp, 72			; 00000048H
  00006	53		 push	 ebx
  00007	56		 push	 esi
  00008	57		 push	 edi

; 2073 :     __DEFINE_CPP_OVERLOAD_SECURE_FUNC_0_2_ARGLIST(

  00009	8d 45 14	 lea	 eax, DWORD PTR __Format$[ebp+4]
  0000c	89 45 fc	 mov	 DWORD PTR __ArgList$[ebp], eax
  0000f	8b 45 fc	 mov	 eax, DWORD PTR __ArgList$[ebp]
  00012	50		 push	 eax
  00013	8b 4d 10	 mov	 ecx, DWORD PTR __Format$[ebp]
  00016	51		 push	 ecx
  00017	8b 55 0c	 mov	 edx, DWORD PTR __BufferCount$[ebp]
  0001a	52		 push	 edx
  0001b	68 80 00 00 00	 push	 128			; 00000080H
  00020	8b 45 08	 mov	 eax, DWORD PTR __Buffer$[ebp]
  00023	50		 push	 eax
  00024	e8 00 00 00 00	 call	 __vsnprintf_s
  00029	83 c4 14	 add	 esp, 20			; 00000014H
  0002c	5f		 pop	 edi
  0002d	5e		 pop	 esi
  0002e	5b		 pop	 ebx
  0002f	8b e5		 mov	 esp, ebp
  00031	5d		 pop	 ebp
  00032	c3		 ret	 0
??$_snprintf_s@$0IA@@@YAHAAY0IA@DIPBDZZ ENDP		; _snprintf_s<128>
_TEXT	ENDS
; Function compile flags: /Odtp /ZI
;	COMDAT ??_ECRewardListControl@@UAEPAXI@Z
_TEXT	SEGMENT
_this$ = -16						; size = 4
__$EHRec$ = -12						; size = 12
___flags$ = 8						; size = 4
??_ECRewardListControl@@UAEPAXI@Z PROC			; CRewardListControl::`vector deleting destructor', COMDAT
; _this$ = ecx
  00000	55		 push	 ebp
  00001	8b ec		 mov	 ebp, esp
  00003	6a ff		 push	 -1
  00005	68 00 00 00 00	 push	 __ehhandler$??_ECRewardListControl@@UAEPAXI@Z
  0000a	64 a1 00 00 00
	00		 mov	 eax, DWORD PTR fs:0
  00010	50		 push	 eax
  00011	83 ec 44	 sub	 esp, 68			; 00000044H
  00014	53		 push	 ebx
  00015	56		 push	 esi
  00016	57		 push	 edi
  00017	a1 00 00 00 00	 mov	 eax, DWORD PTR ___security_cookie
  0001c	33 c5		 xor	 eax, ebp
  0001e	50		 push	 eax
  0001f	8d 45 f4	 lea	 eax, DWORD PTR __$EHRec$[ebp]
  00022	64 a3 00 00 00
	00		 mov	 DWORD PTR fs:0, eax
  00028	89 4d f0	 mov	 DWORD PTR _this$[ebp], ecx
  0002b	8b 45 08	 mov	 eax, DWORD PTR ___flags$[ebp]
  0002e	83 e0 02	 and	 eax, 2
  00031	74 47		 je	 SHORT $LN2@vector
  00033	68 00 00 00 00	 push	 OFFSET ??1CRewardListControl@@UAE@XZ ; CRewardListControl::~CRewardListControl
  00038	8b 45 f0	 mov	 eax, DWORD PTR _this$[ebp]
  0003b	8b 48 fc	 mov	 ecx, DWORD PTR [eax-4]
  0003e	51		 push	 ecx
  0003f	68 08 01 00 00	 push	 264			; 00000108H
  00044	8b 55 f0	 mov	 edx, DWORD PTR _this$[ebp]
  00047	52		 push	 edx
  00048	e8 00 00 00 00	 call	 ??_M@YGXPAXIIP6EX0@Z@Z
  0004d	8b 45 08	 mov	 eax, DWORD PTR ___flags$[ebp]
  00050	83 e0 01	 and	 eax, 1
  00053	74 1d		 je	 SHORT $LN3@vector
  00055	8b 45 f0	 mov	 eax, DWORD PTR _this$[ebp]
  00058	69 48 fc 08 01
	00 00		 imul	 ecx, DWORD PTR [eax-4], 264
  0005f	83 c1 04	 add	 ecx, 4
  00062	51		 push	 ecx
  00063	8b 55 f0	 mov	 edx, DWORD PTR _this$[ebp]
  00066	83 ea 04	 sub	 edx, 4
  00069	52		 push	 edx
  0006a	e8 00 00 00 00	 call	 ??_V@YAXPAXI@Z		; operator delete[]
  0006f	83 c4 08	 add	 esp, 8
$LN3@vector:
  00072	8b 45 f0	 mov	 eax, DWORD PTR _this$[ebp]
  00075	83 e8 04	 sub	 eax, 4
  00078	eb 37		 jmp	 SHORT $LN8@vector
$LN2@vector:
  0007a	8b 4d f0	 mov	 ecx, DWORD PTR _this$[ebp]
  0007d	e8 00 00 00 00	 call	 ??1CRewardListControl@@UAE@XZ ; CRewardListControl::~CRewardListControl
  00082	8b 45 08	 mov	 eax, DWORD PTR ___flags$[ebp]
  00085	83 e0 01	 and	 eax, 1
  00088	74 24		 je	 SHORT $LN4@vector
  0008a	8b 45 08	 mov	 eax, DWORD PTR ___flags$[ebp]
  0008d	83 e0 04	 and	 eax, 4
  00090	75 0b		 jne	 SHORT $LN5@vector
  00092	8b 45 f0	 mov	 eax, DWORD PTR _this$[ebp]
  00095	50		 push	 eax
  00096	e8 00 00 00 00	 call	 ??3CObject@@SGXPAX@Z	; CObject::operator delete
  0009b	eb 11		 jmp	 SHORT $LN4@vector
$LN5@vector:
  0009d	68 08 01 00 00	 push	 264			; 00000108H
  000a2	8b 45 f0	 mov	 eax, DWORD PTR _this$[ebp]
  000a5	50		 push	 eax
  000a6	e8 00 00 00 00	 call	 ?__global_delete@@YAXPAXI@Z ; __global_delete
  000ab	83 c4 08	 add	 esp, 8
$LN4@vector:
  000ae	8b 45 f0	 mov	 eax, DWORD PTR _this$[ebp]
$LN8@vector:
  000b1	8b 4d f4	 mov	 ecx, DWORD PTR __$EHRec$[ebp]
  000b4	64 89 0d 00 00
	00 00		 mov	 DWORD PTR fs:0, ecx
  000bb	59		 pop	 ecx
  000bc	5f		 pop	 edi
  000bd	5e		 pop	 esi
  000be	5b		 pop	 ebx
  000bf	8b e5		 mov	 esp, ebp
  000c1	5d		 pop	 ebp
  000c2	c2 04 00	 ret	 4
_TEXT	ENDS
;	COMDAT text$x
text$x	SEGMENT
__ehhandler$??_ECRewardListControl@@UAEPAXI@Z:
  00000	8b 54 24 08	 mov	 edx, DWORD PTR [esp+8]
  00004	8d 42 0c	 lea	 eax, DWORD PTR [edx+12]
  00007	8b 4a ac	 mov	 ecx, DWORD PTR [edx-84]
  0000a	33 c8		 xor	 ecx, eax
  0000c	e8 00 00 00 00	 call	 @__security_check_cookie@4
  00011	b8 00 00 00 00	 mov	 eax, OFFSET __ehfuncinfo$??_ECRewardListControl@@UAEPAXI@Z
  00016	e9 00 00 00 00	 jmp	 ___CxxFrameHandler3
text$x	ENDS
??_ECRewardListControl@@UAEPAXI@Z ENDP			; CRewardListControl::`vector deleting destructor'
; Function compile flags: /Odtp /ZI
;	COMDAT ??_GCRewardListControl@@UAEPAXI@Z
_TEXT	SEGMENT
_this$ = -4						; size = 4
___flags$ = 8						; size = 4
??_GCRewardListControl@@UAEPAXI@Z PROC			; CRewardListControl::`scalar deleting destructor', COMDAT
; _this$ = ecx
  00000	55		 push	 ebp
  00001	8b ec		 mov	 ebp, esp
  00003	83 ec 44	 sub	 esp, 68			; 00000044H
  00006	53		 push	 ebx
  00007	56		 push	 esi
  00008	57		 push	 edi
  00009	89 4d fc	 mov	 DWORD PTR _this$[ebp], ecx
  0000c	8b 4d fc	 mov	 ecx, DWORD PTR _this$[ebp]
  0000f	e8 00 00 00 00	 call	 ??1CRewardListControl@@UAE@XZ ; CRewardListControl::~CRewardListControl
  00014	8b 45 08	 mov	 eax, DWORD PTR ___flags$[ebp]
  00017	83 e0 01	 and	 eax, 1
  0001a	74 24		 je	 SHORT $LN2@scalar
  0001c	8b 45 08	 mov	 eax, DWORD PTR ___flags$[ebp]
  0001f	83 e0 04	 and	 eax, 4
  00022	75 0b		 jne	 SHORT $LN3@scalar
  00024	8b 45 fc	 mov	 eax, DWORD PTR _this$[ebp]
  00027	50		 push	 eax
  00028	e8 00 00 00 00	 call	 ??3CObject@@SGXPAX@Z	; CObject::operator delete
  0002d	eb 11		 jmp	 SHORT $LN2@scalar
$LN3@scalar:
  0002f	68 08 01 00 00	 push	 264			; 00000108H
  00034	8b 45 fc	 mov	 eax, DWORD PTR _this$[ebp]
  00037	50		 push	 eax
  00038	e8 00 00 00 00	 call	 ?__global_delete@@YAXPAXI@Z ; __global_delete
  0003d	83 c4 08	 add	 esp, 8
$LN2@scalar:
  00040	8b 45 fc	 mov	 eax, DWORD PTR _this$[ebp]
  00043	5f		 pop	 edi
  00044	5e		 pop	 esi
  00045	5b		 pop	 ebx
  00046	8b e5		 mov	 esp, ebp
  00048	5d		 pop	 ebp
  00049	c2 04 00	 ret	 4
??_GCRewardListControl@@UAEPAXI@Z ENDP			; CRewardListControl::`scalar deleting destructor'
_TEXT	ENDS
; Function compile flags: /Odtp /ZI
; File g:\网狐\happygamewh\服务端\系统模块\服务器组件\模块管理\matchlistcontrol.cpp
;	COMDAT ?GetDescribeString@CRewardListControl@@AAEPBDPAUtagMatchRewardInfo@@G@Z
_TEXT	SEGMENT
tv65 = -72						; size = 4
_this$ = -4						; size = 4
_pMatchRewardInfo$ = 8					; size = 4
_wColumnIndex$ = 12					; size = 2
?GetDescribeString@CRewardListControl@@AAEPBDPAUtagMatchRewardInfo@@G@Z PROC ; CRewardListControl::GetDescribeString, COMDAT
; _this$ = ecx

; 377  : {

  00000	55		 push	 ebp
  00001	8b ec		 mov	 ebp, esp
  00003	83 ec 48	 sub	 esp, 72			; 00000048H
  00006	53		 push	 ebx
  00007	56		 push	 esi
  00008	57		 push	 edi
  00009	89 4d fc	 mov	 DWORD PTR _this$[ebp], ecx

; 378  : 	//变量定义
; 379  : 	static TCHAR szDescribe[128]=TEXT("");
; 380  : 
; 381  : 	//构造字符
; 382  : 	switch (wColumnIndex)

  0000c	0f b7 45 0c	 movzx	 eax, WORD PTR _wColumnIndex$[ebp]
  00010	89 45 b8	 mov	 DWORD PTR tv65[ebp], eax
  00013	83 7d b8 03	 cmp	 DWORD PTR tv65[ebp], 3
  00017	0f 87 a6 00 00
	00		 ja	 $LN2@GetDescrib
  0001d	8b 4d b8	 mov	 ecx, DWORD PTR tv65[ebp]
  00020	ff 24 8d 00 00
	00 00		 jmp	 DWORD PTR $LN9@GetDescrib[ecx*4]
$LN4@GetDescrib:

; 383  : 	{
; 384  : 	case 0:		//比赛名次
; 385  : 		{
; 386  : 			_sntprintf_s(szDescribe,CountArray(szDescribe),TEXT("第%02d名"),pMatchRewardInfo->wRankID);

  00027	8b 45 08	 mov	 eax, DWORD PTR _pMatchRewardInfo$[ebp]
  0002a	0f b7 08	 movzx	 ecx, WORD PTR [eax]
  0002d	51		 push	 ecx
  0002e	68 00 00 00 00	 push	 OFFSET ??_C@_08BOCDIOBM@?$LF?Z?$CF02d?C?$PL@
  00033	68 80 00 00 00	 push	 128			; 00000080H
  00038	68 00 00 00 00	 push	 OFFSET ?szDescribe@?1??GetDescribeString@CRewardListControl@@AAEPBDPAUtagMatchRewardInfo@@G@Z@4PADA
  0003d	e8 00 00 00 00	 call	 ??$_snprintf_s@$0IA@@@YAHAAY0IA@DIPBDZZ ; _snprintf_s<128>
  00042	83 c4 10	 add	 esp, 16			; 00000010H

; 387  : 
; 388  : 			return szDescribe;

  00045	b8 00 00 00 00	 mov	 eax, OFFSET ?szDescribe@?1??GetDescribeString@CRewardListControl@@AAEPBDPAUtagMatchRewardInfo@@G@Z@4PADA
  0004a	eb 79		 jmp	 SHORT $LN1@GetDescrib
$LN5@GetDescrib:

; 389  : 		}
; 390  : 	case 1:		//金币奖励
; 391  : 		{
; 392  : 			_sntprintf_s(szDescribe,CountArray(szDescribe),TEXT("%I64d"),pMatchRewardInfo->lRewardGold);

  0004c	8b 45 08	 mov	 eax, DWORD PTR _pMatchRewardInfo$[ebp]
  0004f	8b 48 06	 mov	 ecx, DWORD PTR [eax+6]
  00052	51		 push	 ecx
  00053	8b 50 02	 mov	 edx, DWORD PTR [eax+2]
  00056	52		 push	 edx
  00057	68 00 00 00 00	 push	 OFFSET ??_C@_05LLAMLEHD@?$CFI64d@
  0005c	68 80 00 00 00	 push	 128			; 00000080H
  00061	68 00 00 00 00	 push	 OFFSET ?szDescribe@?1??GetDescribeString@CRewardListControl@@AAEPBDPAUtagMatchRewardInfo@@G@Z@4PADA
  00066	e8 00 00 00 00	 call	 ??$_snprintf_s@$0IA@@@YAHAAY0IA@DIPBDZZ ; _snprintf_s<128>
  0006b	83 c4 14	 add	 esp, 20			; 00000014H

; 393  : 
; 394  : 			return szDescribe;

  0006e	b8 00 00 00 00	 mov	 eax, OFFSET ?szDescribe@?1??GetDescribeString@CRewardListControl@@AAEPBDPAUtagMatchRewardInfo@@G@Z@4PADA
  00073	eb 50		 jmp	 SHORT $LN1@GetDescrib
$LN6@GetDescrib:

; 395  : 		}
; 396  : 	case 2:		//元宝奖励
; 397  : 		{
; 398  : 			_sntprintf_s(szDescribe,CountArray(szDescribe),TEXT("%I64d"),pMatchRewardInfo->lRewardIngot);

  00075	8b 45 08	 mov	 eax, DWORD PTR _pMatchRewardInfo$[ebp]
  00078	8b 48 0e	 mov	 ecx, DWORD PTR [eax+14]
  0007b	51		 push	 ecx
  0007c	8b 50 0a	 mov	 edx, DWORD PTR [eax+10]
  0007f	52		 push	 edx
  00080	68 00 00 00 00	 push	 OFFSET ??_C@_05LLAMLEHD@?$CFI64d@
  00085	68 80 00 00 00	 push	 128			; 00000080H
  0008a	68 00 00 00 00	 push	 OFFSET ?szDescribe@?1??GetDescribeString@CRewardListControl@@AAEPBDPAUtagMatchRewardInfo@@G@Z@4PADA
  0008f	e8 00 00 00 00	 call	 ??$_snprintf_s@$0IA@@@YAHAAY0IA@DIPBDZZ ; _snprintf_s<128>
  00094	83 c4 14	 add	 esp, 20			; 00000014H

; 399  : 
; 400  : 			return szDescribe;

  00097	b8 00 00 00 00	 mov	 eax, OFFSET ?szDescribe@?1??GetDescribeString@CRewardListControl@@AAEPBDPAUtagMatchRewardInfo@@G@Z@4PADA
  0009c	eb 27		 jmp	 SHORT $LN1@GetDescrib
$LN7@GetDescrib:

; 401  : 		}
; 402  : 	case 3:		//经验奖励
; 403  : 		{
; 404  : 			_sntprintf_s(szDescribe,CountArray(szDescribe),TEXT("%d"),pMatchRewardInfo->dwRewardExperience);

  0009e	8b 45 08	 mov	 eax, DWORD PTR _pMatchRewardInfo$[ebp]
  000a1	8b 48 12	 mov	 ecx, DWORD PTR [eax+18]
  000a4	51		 push	 ecx
  000a5	68 00 00 00 00	 push	 OFFSET ??_C@_02DPKJAMEF@?$CFd@
  000aa	68 80 00 00 00	 push	 128			; 00000080H
  000af	68 00 00 00 00	 push	 OFFSET ?szDescribe@?1??GetDescribeString@CRewardListControl@@AAEPBDPAUtagMatchRewardInfo@@G@Z@4PADA
  000b4	e8 00 00 00 00	 call	 ??$_snprintf_s@$0IA@@@YAHAAY0IA@DIPBDZZ ; _snprintf_s<128>
  000b9	83 c4 10	 add	 esp, 16			; 00000010H

; 405  : 
; 406  : 			return szDescribe;

  000bc	b8 00 00 00 00	 mov	 eax, OFFSET ?szDescribe@?1??GetDescribeString@CRewardListControl@@AAEPBDPAUtagMatchRewardInfo@@G@Z@4PADA
  000c1	eb 02		 jmp	 SHORT $LN1@GetDescrib
$LN2@GetDescrib:

; 407  : 		}	
; 408  : 	}
; 409  : 
; 410  : 	return NULL;

  000c3	33 c0		 xor	 eax, eax
$LN1@GetDescrib:

; 411  : }

  000c5	5f		 pop	 edi
  000c6	5e		 pop	 esi
  000c7	5b		 pop	 ebx
  000c8	8b e5		 mov	 esp, ebp
  000ca	5d		 pop	 ebp
  000cb	c2 08 00	 ret	 8
  000ce	66 90		 npad	 2
$LN9@GetDescrib:
  000d0	00 00 00 00	 DD	 $LN4@GetDescrib
  000d4	00 00 00 00	 DD	 $LN5@GetDescrib
  000d8	00 00 00 00	 DD	 $LN6@GetDescrib
  000dc	00 00 00 00	 DD	 $LN7@GetDescrib
?GetDescribeString@CRewardListControl@@AAEPBDPAUtagMatchRewardInfo@@G@Z ENDP ; CRewardListControl::GetDescribeString
_TEXT	ENDS
; Function compile flags: /Odtp /ZI
; File g:\网狐\happygamewh\服务端\系统模块\服务器组件\模块管理\matchlistcontrol.cpp
;	COMDAT ?GetInsertIndex@CRewardListControl@@AAEGPAUtagMatchRewardInfo@@@Z
_TEXT	SEGMENT
_i$1 = -16						; size = 4
_pMatchRewardTemp$ = -12				; size = 4
_nItemCount$ = -8					; size = 4
_this$ = -4						; size = 4
_pMatchRewardInfo$ = 8					; size = 4
?GetInsertIndex@CRewardListControl@@AAEGPAUtagMatchRewardInfo@@@Z PROC ; CRewardListControl::GetInsertIndex, COMDAT
; _this$ = ecx

; 353  : {

  00000	55		 push	 ebp
  00001	8b ec		 mov	 ebp, esp
  00003	83 ec 50	 sub	 esp, 80			; 00000050H
  00006	53		 push	 ebx
  00007	56		 push	 esi
  00008	57		 push	 edi
  00009	89 4d fc	 mov	 DWORD PTR _this$[ebp], ecx

; 354  : 	//变量定义
; 355  : 	INT nItemCount=GetItemCount();

  0000c	8b 4d fc	 mov	 ecx, DWORD PTR _this$[ebp]
  0000f	e8 00 00 00 00	 call	 ?GetItemCount@CListCtrl@@QBEHXZ ; CListCtrl::GetItemCount
  00014	89 45 f8	 mov	 DWORD PTR _nItemCount$[ebp], eax

; 356  : 	tagMatchRewardInfo * pMatchRewardTemp=NULL;

  00017	c7 45 f4 00 00
	00 00		 mov	 DWORD PTR _pMatchRewardTemp$[ebp], 0

; 357  : 
; 358  : 	//获取位置
; 359  : 	for (INT i=0;i<nItemCount;i++)

  0001e	c7 45 f0 00 00
	00 00		 mov	 DWORD PTR _i$1[ebp], 0
  00025	eb 09		 jmp	 SHORT $LN4@GetInsertI
$LN2@GetInsertI:
  00027	8b 45 f0	 mov	 eax, DWORD PTR _i$1[ebp]
  0002a	83 c0 01	 add	 eax, 1
  0002d	89 45 f0	 mov	 DWORD PTR _i$1[ebp], eax
$LN4@GetInsertI:
  00030	8b 45 f0	 mov	 eax, DWORD PTR _i$1[ebp]
  00033	3b 45 f8	 cmp	 eax, DWORD PTR _nItemCount$[ebp]
  00036	7d 27		 jge	 SHORT $LN3@GetInsertI

; 360  : 	{
; 361  : 		//获取数据
; 362  : 		pMatchRewardTemp=(tagMatchRewardInfo *)GetItemData(i);

  00038	8b 45 f0	 mov	 eax, DWORD PTR _i$1[ebp]
  0003b	50		 push	 eax
  0003c	8b 4d fc	 mov	 ecx, DWORD PTR _this$[ebp]
  0003f	e8 00 00 00 00	 call	 ?GetItemData@CListCtrl@@QBEKH@Z ; CListCtrl::GetItemData
  00044	89 45 f4	 mov	 DWORD PTR _pMatchRewardTemp$[ebp], eax

; 363  : 
; 364  : 		//比赛名称
; 365  : 		if (pMatchRewardInfo->wRankID < pMatchRewardTemp->wRankID)

  00047	8b 45 08	 mov	 eax, DWORD PTR _pMatchRewardInfo$[ebp]
  0004a	0f b7 08	 movzx	 ecx, WORD PTR [eax]
  0004d	8b 55 f4	 mov	 edx, DWORD PTR _pMatchRewardTemp$[ebp]
  00050	0f b7 02	 movzx	 eax, WORD PTR [edx]
  00053	3b c8		 cmp	 ecx, eax
  00055	7d 06		 jge	 SHORT $LN5@GetInsertI

; 366  : 		{
; 367  : 			return i;

  00057	66 8b 45 f0	 mov	 ax, WORD PTR _i$1[ebp]
  0005b	eb 06		 jmp	 SHORT $LN1@GetInsertI
$LN5@GetInsertI:

; 368  : 		}
; 369  : 	}

  0005d	eb c8		 jmp	 SHORT $LN2@GetInsertI
$LN3@GetInsertI:

; 370  : 
; 371  : 	return nItemCount;

  0005f	66 8b 45 f8	 mov	 ax, WORD PTR _nItemCount$[ebp]
$LN1@GetInsertI:

; 372  : }

  00063	5f		 pop	 edi
  00064	5e		 pop	 esi
  00065	5b		 pop	 ebx
  00066	8b e5		 mov	 esp, ebp
  00068	5d		 pop	 ebp
  00069	c2 04 00	 ret	 4
?GetInsertIndex@CRewardListControl@@AAEGPAUtagMatchRewardInfo@@@Z ENDP ; CRewardListControl::GetInsertIndex
_TEXT	ENDS
; Function compile flags: /Odtp /ZI
; File g:\网狐\happygamewh\服务端\系统模块\服务器组件\模块管理\matchlistcontrol.cpp
;	COMDAT ?DeleteMatchReward@CRewardListControl@@QAE_NPAUtagMatchRewardInfo@@@Z
_TEXT	SEGMENT
_nDeleteItem$ = -32					; size = 4
_FindInfo$ = -28					; size = 24
_this$ = -4						; size = 4
_pMatchRewardInfo$ = 8					; size = 4
?DeleteMatchReward@CRewardListControl@@QAE_NPAUtagMatchRewardInfo@@@Z PROC ; CRewardListControl::DeleteMatchReward, COMDAT
; _this$ = ecx

; 332  : {

  00000	55		 push	 ebp
  00001	8b ec		 mov	 ebp, esp
  00003	83 ec 60	 sub	 esp, 96			; 00000060H
  00006	53		 push	 ebx
  00007	56		 push	 esi
  00008	57		 push	 edi
  00009	89 4d fc	 mov	 DWORD PTR _this$[ebp], ecx

; 333  : 	//变量定义
; 334  : 	LVFINDINFO FindInfo;
; 335  : 	ZeroMemory(&FindInfo,sizeof(FindInfo));

  0000c	6a 18		 push	 24			; 00000018H
  0000e	6a 00		 push	 0
  00010	8d 45 e4	 lea	 eax, DWORD PTR _FindInfo$[ebp]
  00013	50		 push	 eax
  00014	e8 00 00 00 00	 call	 _memset
  00019	83 c4 0c	 add	 esp, 12			; 0000000cH

; 336  : 
; 337  : 	//设置变量
; 338  : 	FindInfo.flags=LVFI_PARAM;

  0001c	c7 45 e4 01 00
	00 00		 mov	 DWORD PTR _FindInfo$[ebp], 1

; 339  : 	FindInfo.lParam=(LPARAM)pMatchRewardInfo;

  00023	8b 45 08	 mov	 eax, DWORD PTR _pMatchRewardInfo$[ebp]
  00026	89 45 ec	 mov	 DWORD PTR _FindInfo$[ebp+8], eax

; 340  : 
; 341  : 	//存在判断
; 342  : 	INT nDeleteItem=FindItem(&FindInfo);

  00029	6a ff		 push	 -1
  0002b	8d 45 e4	 lea	 eax, DWORD PTR _FindInfo$[ebp]
  0002e	50		 push	 eax
  0002f	8b 4d fc	 mov	 ecx, DWORD PTR _this$[ebp]
  00032	e8 00 00 00 00	 call	 ?FindItem@CListCtrl@@QBEHPAUtagLVFINDINFOA@@H@Z ; CListCtrl::FindItem
  00037	89 45 e0	 mov	 DWORD PTR _nDeleteItem$[ebp], eax

; 343  : 	if (nDeleteItem==LB_ERR) return true;

  0003a	83 7d e0 ff	 cmp	 DWORD PTR _nDeleteItem$[ebp], -1
  0003e	75 04		 jne	 SHORT $LN2@DeleteMatc
  00040	b0 01		 mov	 al, 1
  00042	eb 0e		 jmp	 SHORT $LN1@DeleteMatc
$LN2@DeleteMatc:

; 344  : 
; 345  : 	//删除子项
; 346  : 	DeleteItem(nDeleteItem);

  00044	8b 45 e0	 mov	 eax, DWORD PTR _nDeleteItem$[ebp]
  00047	50		 push	 eax
  00048	8b 4d fc	 mov	 ecx, DWORD PTR _this$[ebp]
  0004b	e8 00 00 00 00	 call	 ?DeleteItem@CListCtrl@@QAEHH@Z ; CListCtrl::DeleteItem

; 347  : 
; 348  : 	return true;

  00050	b0 01		 mov	 al, 1
$LN1@DeleteMatc:

; 349  : }

  00052	5f		 pop	 edi
  00053	5e		 pop	 esi
  00054	5b		 pop	 ebx
  00055	8b e5		 mov	 esp, ebp
  00057	5d		 pop	 ebp
  00058	c2 04 00	 ret	 4
?DeleteMatchReward@CRewardListControl@@QAE_NPAUtagMatchRewardInfo@@@Z ENDP ; CRewardListControl::DeleteMatchReward
_TEXT	ENDS
; Function compile flags: /Odtp /ZI
; File g:\网狐\happygamewh\服务端\系统模块\服务器组件\模块管理\matchlistcontrol.cpp
;	COMDAT ?UpdateMatchReward@CRewardListControl@@QAE_NPAUtagMatchRewardInfo@@@Z
_TEXT	SEGMENT
_i$1 = -36						; size = 2
_nUpdateItem$ = -32					; size = 4
_FindInfo$ = -28					; size = 24
_this$ = -4						; size = 4
_pMatchRewardInfo$ = 8					; size = 4
?UpdateMatchReward@CRewardListControl@@QAE_NPAUtagMatchRewardInfo@@@Z PROC ; CRewardListControl::UpdateMatchReward, COMDAT
; _this$ = ecx

; 304  : {

  00000	55		 push	 ebp
  00001	8b ec		 mov	 ebp, esp
  00003	83 ec 64	 sub	 esp, 100		; 00000064H
  00006	53		 push	 ebx
  00007	56		 push	 esi
  00008	57		 push	 edi
  00009	89 4d fc	 mov	 DWORD PTR _this$[ebp], ecx

; 305  : 	//变量定义
; 306  : 	LVFINDINFO FindInfo;
; 307  : 	ZeroMemory(&FindInfo,sizeof(FindInfo));

  0000c	6a 18		 push	 24			; 00000018H
  0000e	6a 00		 push	 0
  00010	8d 45 e4	 lea	 eax, DWORD PTR _FindInfo$[ebp]
  00013	50		 push	 eax
  00014	e8 00 00 00 00	 call	 _memset
  00019	83 c4 0c	 add	 esp, 12			; 0000000cH

; 308  : 
; 309  : 	//设置变量
; 310  : 	FindInfo.flags=LVFI_PARAM;

  0001c	c7 45 e4 01 00
	00 00		 mov	 DWORD PTR _FindInfo$[ebp], 1

; 311  : 	FindInfo.lParam=(LPARAM)pMatchRewardInfo;

  00023	8b 45 08	 mov	 eax, DWORD PTR _pMatchRewardInfo$[ebp]
  00026	89 45 ec	 mov	 DWORD PTR _FindInfo$[ebp+8], eax

; 312  : 
; 313  : 	//存在判断
; 314  : 	INT nUpdateItem=FindItem(&FindInfo);

  00029	6a ff		 push	 -1
  0002b	8d 45 e4	 lea	 eax, DWORD PTR _FindInfo$[ebp]
  0002e	50		 push	 eax
  0002f	8b 4d fc	 mov	 ecx, DWORD PTR _this$[ebp]
  00032	e8 00 00 00 00	 call	 ?FindItem@CListCtrl@@QBEHPAUtagLVFINDINFOA@@H@Z ; CListCtrl::FindItem
  00037	89 45 e0	 mov	 DWORD PTR _nUpdateItem$[ebp], eax

; 315  : 	if (nUpdateItem==LB_ERR) return true;

  0003a	83 7d e0 ff	 cmp	 DWORD PTR _nUpdateItem$[ebp], -1
  0003e	75 04		 jne	 SHORT $LN5@UpdateMatc
  00040	b0 01		 mov	 al, 1
  00042	eb 6b		 jmp	 SHORT $LN1@UpdateMatc
$LN5@UpdateMatc:

; 316  : 
; 317  : 	//插入列表
; 318  : 	for (WORD i=0;i<m_ListHeaderCtrl.GetItemCount();i++)

  00044	33 c0		 xor	 eax, eax
  00046	66 89 45 dc	 mov	 WORD PTR _i$1[ebp], ax
  0004a	eb 0c		 jmp	 SHORT $LN4@UpdateMatc
$LN2@UpdateMatc:
  0004c	66 8b 45 dc	 mov	 ax, WORD PTR _i$1[ebp]
  00050	66 83 c0 01	 add	 ax, 1
  00054	66 89 45 dc	 mov	 WORD PTR _i$1[ebp], ax
$LN4@UpdateMatc:
  00058	0f b7 75 dc	 movzx	 esi, WORD PTR _i$1[ebp]
  0005c	8b 4d fc	 mov	 ecx, DWORD PTR _this$[ebp]
  0005f	81 c1 88 00 00
	00		 add	 ecx, 136		; 00000088H
  00065	e8 00 00 00 00	 call	 ?GetItemCount@CHeaderCtrl@@QBEHXZ ; CHeaderCtrl::GetItemCount
  0006a	3b f0		 cmp	 esi, eax
  0006c	7d 2f		 jge	 SHORT $LN3@UpdateMatc

; 319  : 	{
; 320  : 		//字符子项
; 321  : 		SetItem(nUpdateItem,i,LVIF_TEXT,GetDescribeString(pMatchRewardInfo,i),0,0,0,0);

  0006e	6a 00		 push	 0
  00070	6a 00		 push	 0
  00072	6a 00		 push	 0
  00074	6a 00		 push	 0
  00076	0f b7 45 dc	 movzx	 eax, WORD PTR _i$1[ebp]
  0007a	50		 push	 eax
  0007b	8b 4d 08	 mov	 ecx, DWORD PTR _pMatchRewardInfo$[ebp]
  0007e	51		 push	 ecx
  0007f	8b 4d fc	 mov	 ecx, DWORD PTR _this$[ebp]
  00082	e8 00 00 00 00	 call	 ?GetDescribeString@CRewardListControl@@AAEPBDPAUtagMatchRewardInfo@@G@Z ; CRewardListControl::GetDescribeString
  00087	50		 push	 eax
  00088	6a 01		 push	 1
  0008a	0f b7 55 dc	 movzx	 edx, WORD PTR _i$1[ebp]
  0008e	52		 push	 edx
  0008f	8b 45 e0	 mov	 eax, DWORD PTR _nUpdateItem$[ebp]
  00092	50		 push	 eax
  00093	8b 4d fc	 mov	 ecx, DWORD PTR _this$[ebp]
  00096	e8 00 00 00 00	 call	 ?SetItem@CListCtrl@@QAEHHHIPBDHIIJ@Z ; CListCtrl::SetItem

; 322  : 	}

  0009b	eb af		 jmp	 SHORT $LN2@UpdateMatc
$LN3@UpdateMatc:

; 323  : 
; 324  : 	//更新子项
; 325  : 	RedrawItems(nUpdateItem,nUpdateItem);

  0009d	8b 45 e0	 mov	 eax, DWORD PTR _nUpdateItem$[ebp]
  000a0	50		 push	 eax
  000a1	8b 4d e0	 mov	 ecx, DWORD PTR _nUpdateItem$[ebp]
  000a4	51		 push	 ecx
  000a5	8b 4d fc	 mov	 ecx, DWORD PTR _this$[ebp]
  000a8	e8 00 00 00 00	 call	 ?RedrawItems@CListCtrl@@QAEHHH@Z ; CListCtrl::RedrawItems

; 326  : 
; 327  : 	return true;

  000ad	b0 01		 mov	 al, 1
$LN1@UpdateMatc:

; 328  : }

  000af	5f		 pop	 edi
  000b0	5e		 pop	 esi
  000b1	5b		 pop	 ebx
  000b2	8b e5		 mov	 esp, ebp
  000b4	5d		 pop	 ebp
  000b5	c2 04 00	 ret	 4
?UpdateMatchReward@CRewardListControl@@QAE_NPAUtagMatchRewardInfo@@@Z ENDP ; CRewardListControl::UpdateMatchReward
_TEXT	ENDS
; Function compile flags: /Odtp /ZI
; File g:\网狐\happygamewh\服务端\系统模块\服务器组件\模块管理\matchlistcontrol.cpp
;	COMDAT ?InsertMatchReward@CRewardListControl@@QAE_NPAUtagMatchRewardInfo@@@Z
_TEXT	SEGMENT
_pszDescribe$1 = -44					; size = 4
_nIndex$2 = -40						; size = 4
_i$3 = -36						; size = 2
_nInsertItem$ = -32					; size = 4
_FindInfo$ = -28					; size = 24
_this$ = -4						; size = 4
_pMatchRewardInfo$ = 8					; size = 4
?InsertMatchReward@CRewardListControl@@QAE_NPAUtagMatchRewardInfo@@@Z PROC ; CRewardListControl::InsertMatchReward, COMDAT
; _this$ = ecx

; 269  : {

  00000	55		 push	 ebp
  00001	8b ec		 mov	 ebp, esp
  00003	83 ec 6c	 sub	 esp, 108		; 0000006cH
  00006	53		 push	 ebx
  00007	56		 push	 esi
  00008	57		 push	 edi
  00009	89 4d fc	 mov	 DWORD PTR _this$[ebp], ecx

; 270  : 	//变量定义
; 271  : 	LVFINDINFO FindInfo;
; 272  : 	ZeroMemory(&FindInfo,sizeof(FindInfo));

  0000c	6a 18		 push	 24			; 00000018H
  0000e	6a 00		 push	 0
  00010	8d 45 e4	 lea	 eax, DWORD PTR _FindInfo$[ebp]
  00013	50		 push	 eax
  00014	e8 00 00 00 00	 call	 _memset
  00019	83 c4 0c	 add	 esp, 12			; 0000000cH

; 273  : 
; 274  : 	//设置变量
; 275  : 	FindInfo.flags=LVFI_PARAM;

  0001c	c7 45 e4 01 00
	00 00		 mov	 DWORD PTR _FindInfo$[ebp], 1

; 276  : 	FindInfo.lParam=(LPARAM)pMatchRewardInfo;

  00023	8b 45 08	 mov	 eax, DWORD PTR _pMatchRewardInfo$[ebp]
  00026	89 45 ec	 mov	 DWORD PTR _FindInfo$[ebp+8], eax

; 277  : 
; 278  : 	//存在判断
; 279  : 	INT nInsertItem=FindItem(&FindInfo);

  00029	6a ff		 push	 -1
  0002b	8d 45 e4	 lea	 eax, DWORD PTR _FindInfo$[ebp]
  0002e	50		 push	 eax
  0002f	8b 4d fc	 mov	 ecx, DWORD PTR _this$[ebp]
  00032	e8 00 00 00 00	 call	 ?FindItem@CListCtrl@@QBEHPAUtagLVFINDINFOA@@H@Z ; CListCtrl::FindItem
  00037	89 45 e0	 mov	 DWORD PTR _nInsertItem$[ebp], eax

; 280  : 	if (nInsertItem!=LB_ERR) return true;

  0003a	83 7d e0 ff	 cmp	 DWORD PTR _nInsertItem$[ebp], -1
  0003e	74 07		 je	 SHORT $LN5@InsertMatc
  00040	b0 01		 mov	 al, 1
  00042	e9 b1 00 00 00	 jmp	 $LN1@InsertMatc
$LN5@InsertMatc:

; 281  : 
; 282  : 	//插入列表
; 283  : 	for (WORD i=0;i<m_ListHeaderCtrl.GetItemCount();i++)

  00047	33 c0		 xor	 eax, eax
  00049	66 89 45 dc	 mov	 WORD PTR _i$3[ebp], ax
  0004d	eb 0c		 jmp	 SHORT $LN4@InsertMatc
$LN2@InsertMatc:
  0004f	66 8b 45 dc	 mov	 ax, WORD PTR _i$3[ebp]
  00053	66 83 c0 01	 add	 ax, 1
  00057	66 89 45 dc	 mov	 WORD PTR _i$3[ebp], ax
$LN4@InsertMatc:
  0005b	0f b7 75 dc	 movzx	 esi, WORD PTR _i$3[ebp]
  0005f	8b 4d fc	 mov	 ecx, DWORD PTR _this$[ebp]
  00062	81 c1 88 00 00
	00		 add	 ecx, 136		; 00000088H
  00068	e8 00 00 00 00	 call	 ?GetItemCount@CHeaderCtrl@@QBEHXZ ; CHeaderCtrl::GetItemCount
  0006d	3b f0		 cmp	 esi, eax
  0006f	0f 8d 81 00 00
	00		 jge	 $LN3@InsertMatc

; 284  : 	{
; 285  : 		if (i==0)

  00075	0f b7 45 dc	 movzx	 eax, WORD PTR _i$3[ebp]
  00079	85 c0		 test	 eax, eax
  0007b	75 47		 jne	 SHORT $LN6@InsertMatc

; 286  : 		{
; 287  : 			//插入首项
; 288  : 			INT nIndex=GetInsertIndex(pMatchRewardInfo);

  0007d	8b 45 08	 mov	 eax, DWORD PTR _pMatchRewardInfo$[ebp]
  00080	50		 push	 eax
  00081	8b 4d fc	 mov	 ecx, DWORD PTR _this$[ebp]
  00084	e8 00 00 00 00	 call	 ?GetInsertIndex@CRewardListControl@@AAEGPAUtagMatchRewardInfo@@@Z ; CRewardListControl::GetInsertIndex
  00089	0f b7 c8	 movzx	 ecx, ax
  0008c	89 4d d8	 mov	 DWORD PTR _nIndex$2[ebp], ecx

; 289  : 			LPCTSTR pszDescribe=GetDescribeString(pMatchRewardInfo,i);

  0008f	0f b7 45 dc	 movzx	 eax, WORD PTR _i$3[ebp]
  00093	50		 push	 eax
  00094	8b 4d 08	 mov	 ecx, DWORD PTR _pMatchRewardInfo$[ebp]
  00097	51		 push	 ecx
  00098	8b 4d fc	 mov	 ecx, DWORD PTR _this$[ebp]
  0009b	e8 00 00 00 00	 call	 ?GetDescribeString@CRewardListControl@@AAEPBDPAUtagMatchRewardInfo@@G@Z ; CRewardListControl::GetDescribeString
  000a0	89 45 d4	 mov	 DWORD PTR _pszDescribe$1[ebp], eax

; 290  : 			nInsertItem=InsertItem(LVIF_TEXT|LVIF_PARAM,nIndex,pszDescribe,0,0,0,(LPARAM)pMatchRewardInfo);

  000a3	8b 45 08	 mov	 eax, DWORD PTR _pMatchRewardInfo$[ebp]
  000a6	50		 push	 eax
  000a7	6a 00		 push	 0
  000a9	6a 00		 push	 0
  000ab	6a 00		 push	 0
  000ad	8b 4d d4	 mov	 ecx, DWORD PTR _pszDescribe$1[ebp]
  000b0	51		 push	 ecx
  000b1	8b 55 d8	 mov	 edx, DWORD PTR _nIndex$2[ebp]
  000b4	52		 push	 edx
  000b5	6a 05		 push	 5
  000b7	8b 4d fc	 mov	 ecx, DWORD PTR _this$[ebp]
  000ba	e8 00 00 00 00	 call	 ?InsertItem@CListCtrl@@QAEHIHPBDIIHJ@Z ; CListCtrl::InsertItem
  000bf	89 45 e0	 mov	 DWORD PTR _nInsertItem$[ebp], eax

; 291  : 		}
; 292  : 		else

  000c2	eb 2d		 jmp	 SHORT $LN7@InsertMatc
$LN6@InsertMatc:

; 293  : 		{
; 294  : 			//字符子项
; 295  : 			SetItem(nInsertItem,i,LVIF_TEXT,GetDescribeString(pMatchRewardInfo,i),0,0,0,0);

  000c4	6a 00		 push	 0
  000c6	6a 00		 push	 0
  000c8	6a 00		 push	 0
  000ca	6a 00		 push	 0
  000cc	0f b7 45 dc	 movzx	 eax, WORD PTR _i$3[ebp]
  000d0	50		 push	 eax
  000d1	8b 4d 08	 mov	 ecx, DWORD PTR _pMatchRewardInfo$[ebp]
  000d4	51		 push	 ecx
  000d5	8b 4d fc	 mov	 ecx, DWORD PTR _this$[ebp]
  000d8	e8 00 00 00 00	 call	 ?GetDescribeString@CRewardListControl@@AAEPBDPAUtagMatchRewardInfo@@G@Z ; CRewardListControl::GetDescribeString
  000dd	50		 push	 eax
  000de	6a 01		 push	 1
  000e0	0f b7 55 dc	 movzx	 edx, WORD PTR _i$3[ebp]
  000e4	52		 push	 edx
  000e5	8b 45 e0	 mov	 eax, DWORD PTR _nInsertItem$[ebp]
  000e8	50		 push	 eax
  000e9	8b 4d fc	 mov	 ecx, DWORD PTR _this$[ebp]
  000ec	e8 00 00 00 00	 call	 ?SetItem@CListCtrl@@QAEHHHIPBDHIIJ@Z ; CListCtrl::SetItem
$LN7@InsertMatc:

; 296  : 		}
; 297  : 	}

  000f1	e9 59 ff ff ff	 jmp	 $LN2@InsertMatc
$LN3@InsertMatc:

; 298  : 
; 299  : 	return true;

  000f6	b0 01		 mov	 al, 1
$LN1@InsertMatc:

; 300  : }

  000f8	5f		 pop	 edi
  000f9	5e		 pop	 esi
  000fa	5b		 pop	 ebx
  000fb	8b e5		 mov	 esp, ebp
  000fd	5d		 pop	 ebp
  000fe	c2 04 00	 ret	 4
?InsertMatchReward@CRewardListControl@@QAE_NPAUtagMatchRewardInfo@@@Z ENDP ; CRewardListControl::InsertMatchReward
_TEXT	ENDS
; Function compile flags: /Odtp /ZI
; File g:\网狐\happygamewh\服务端\系统模块\服务器组件\模块管理\matchlistcontrol.cpp
;	COMDAT ?GetListItemColor@CRewardListControl@@UAEXJIAAUtagListItemColor@@@Z
_TEXT	SEGMENT
tv78 = -72						; size = 4
tv74 = -72						; size = 4
_this$ = -4						; size = 4
_lItemParam$ = 8					; size = 4
_uItemStatus$ = 12					; size = 4
_ListItemColor$ = 16					; size = 4
?GetListItemColor@CRewardListControl@@UAEXJIAAUtagListItemColor@@@Z PROC ; CRewardListControl::GetListItemColor, COMDAT
; _this$ = ecx

; 256  : {

  00000	55		 push	 ebp
  00001	8b ec		 mov	 ebp, esp
  00003	83 ec 48	 sub	 esp, 72			; 00000048H
  00006	53		 push	 ebx
  00007	56		 push	 esi
  00008	57		 push	 edi
  00009	89 4d fc	 mov	 DWORD PTR _this$[ebp], ecx

; 257  : 	//变量定义
; 258  : 	ASSERT(lItemParam!=NULL);

  0000c	83 7d 08 00	 cmp	 DWORD PTR _lItemParam$[ebp], 0
  00010	75 18		 jne	 SHORT $LN3@GetListIte
  00012	a1 00 00 00 00	 mov	 eax, DWORD PTR ?__LINE__Var@?0??GetListItemColor@CRewardListControl@@UAEXJIAAUtagListItemColor@@@Z@4JA
  00017	83 c0 02	 add	 eax, 2
  0001a	50		 push	 eax
  0001b	68 00 00 00 00	 push	 OFFSET ??_C@_0EN@GFGADAAH@g?3?2?M?x?$LK?$PM?2happygamewh?2?$LH?$PO?N?q?$LG?K?2?O?$LF?M?$LD@
  00020	e8 00 00 00 00	 call	 ?AfxAssertFailedLine@@YGHPBDH@Z ; AfxAssertFailedLine
  00025	85 c0		 test	 eax, eax
  00027	74 01		 je	 SHORT $LN3@GetListIte
  00029	cc		 int	 3
$LN3@GetListIte:

; 259  : 
; 260  : 	//设置颜色
; 261  : 	ListItemColor.rcBackColor=(uItemStatus&ODS_SELECTED)?RGB(0,0,128):CR_NORMAL_BK;

  0002a	8b 45 0c	 mov	 eax, DWORD PTR _uItemStatus$[ebp]
  0002d	83 e0 01	 and	 eax, 1
  00030	74 09		 je	 SHORT $LN4@GetListIte
  00032	c7 45 b8 00 00
	80 00		 mov	 DWORD PTR tv74[ebp], 8388608 ; 00800000H
  00039	eb 07		 jmp	 SHORT $LN5@GetListIte
$LN4@GetListIte:
  0003b	c7 45 b8 ff ff
	ff 00		 mov	 DWORD PTR tv74[ebp], 16777215 ; 00ffffffH
$LN5@GetListIte:
  00042	8b 4d 10	 mov	 ecx, DWORD PTR _ListItemColor$[ebp]
  00045	8b 55 b8	 mov	 edx, DWORD PTR tv74[ebp]
  00048	89 51 04	 mov	 DWORD PTR [ecx+4], edx

; 262  : 	ListItemColor.rcTextColor=(uItemStatus&ODS_SELECTED)?RGB(255,255,255):RGB(0,0,0);

  0004b	8b 45 0c	 mov	 eax, DWORD PTR _uItemStatus$[ebp]
  0004e	83 e0 01	 and	 eax, 1
  00051	74 09		 je	 SHORT $LN6@GetListIte
  00053	c7 45 b8 ff ff
	ff 00		 mov	 DWORD PTR tv78[ebp], 16777215 ; 00ffffffH
  0005a	eb 07		 jmp	 SHORT $LN7@GetListIte
$LN6@GetListIte:
  0005c	c7 45 b8 00 00
	00 00		 mov	 DWORD PTR tv78[ebp], 0
$LN7@GetListIte:
  00063	8b 4d 10	 mov	 ecx, DWORD PTR _ListItemColor$[ebp]
  00066	8b 55 b8	 mov	 edx, DWORD PTR tv78[ebp]
  00069	89 11		 mov	 DWORD PTR [ecx], edx

; 263  : 
; 264  : 	return;
; 265  : }

  0006b	5f		 pop	 edi
  0006c	5e		 pop	 esi
  0006d	5b		 pop	 ebx
  0006e	8b e5		 mov	 esp, ebp
  00070	5d		 pop	 ebp
  00071	c2 0c 00	 ret	 12			; 0000000cH
?GetListItemColor@CRewardListControl@@UAEXJIAAUtagListItemColor@@@Z ENDP ; CRewardListControl::GetListItemColor
_TEXT	ENDS
; Function compile flags: /Odtp /ZI
; File g:\网狐\happygamewh\服务端\系统模块\服务器组件\模块管理\matchlistcontrol.cpp
;	COMDAT ?SortListItemData@CRewardListControl@@UAEHJJG@Z
_TEXT	SEGMENT
tv79 = -88						; size = 4
tv75 = -88						; size = 4
tv139 = -84						; size = 4
tv94 = -84						; size = 4
tv138 = -80						; size = 4
tv93 = -80						; size = 4
tv83 = -80						; size = 4
tv71 = -80						; size = 4
tv65 = -80						; size = 4
_pMatchRewardInfo2$ = -12				; size = 4
_pMatchRewardInfo1$ = -8				; size = 4
_this$ = -4						; size = 4
_lParam1$ = 8						; size = 4
_lParam2$ = 12						; size = 4
_wColumnIndex$ = 16					; size = 2
?SortListItemData@CRewardListControl@@UAEHJJG@Z PROC	; CRewardListControl::SortListItemData, COMDAT
; _this$ = ecx

; 225  : {

  00000	55		 push	 ebp
  00001	8b ec		 mov	 ebp, esp
  00003	83 ec 58	 sub	 esp, 88			; 00000058H
  00006	53		 push	 ebx
  00007	56		 push	 esi
  00008	57		 push	 edi
  00009	89 4d fc	 mov	 DWORD PTR _this$[ebp], ecx

; 226  : 	//变量定义
; 227  : 	tagMatchRewardInfo * pMatchRewardInfo1=(tagMatchRewardInfo *)lParam1;

  0000c	8b 45 08	 mov	 eax, DWORD PTR _lParam1$[ebp]
  0000f	89 45 f8	 mov	 DWORD PTR _pMatchRewardInfo1$[ebp], eax

; 228  : 	tagMatchRewardInfo * pMatchRewardInfo2=(tagMatchRewardInfo *)lParam2;

  00012	8b 45 0c	 mov	 eax, DWORD PTR _lParam2$[ebp]
  00015	89 45 f4	 mov	 DWORD PTR _pMatchRewardInfo2$[ebp], eax

; 229  : 
; 230  : 	//子项排序
; 231  : 	switch (wColumnIndex)

  00018	0f b7 45 10	 movzx	 eax, WORD PTR _wColumnIndex$[ebp]
  0001c	89 45 b0	 mov	 DWORD PTR tv65[ebp], eax
  0001f	83 7d b0 03	 cmp	 DWORD PTR tv65[ebp], 3
  00023	0f 87 d3 00 00
	00		 ja	 $LN2@SortListIt
  00029	8b 4d b0	 mov	 ecx, DWORD PTR tv65[ebp]
  0002c	ff 24 8d 00 00
	00 00		 jmp	 DWORD PTR $LN19@SortListIt[ecx*4]
$LN4@SortListIt:

; 232  : 	{
; 233  : 	case 0:		//奖励名称
; 234  : 		{
; 235  : 			return pMatchRewardInfo1->wRankID>pMatchRewardInfo2->wRankID;

  00033	8b 45 f8	 mov	 eax, DWORD PTR _pMatchRewardInfo1$[ebp]
  00036	0f b7 08	 movzx	 ecx, WORD PTR [eax]
  00039	8b 55 f4	 mov	 edx, DWORD PTR _pMatchRewardInfo2$[ebp]
  0003c	0f b7 02	 movzx	 eax, WORD PTR [edx]
  0003f	3b c8		 cmp	 ecx, eax
  00041	7e 09		 jle	 SHORT $LN9@SortListIt
  00043	c7 45 b0 01 00
	00 00		 mov	 DWORD PTR tv71[ebp], 1
  0004a	eb 07		 jmp	 SHORT $LN10@SortListIt
$LN9@SortListIt:
  0004c	c7 45 b0 00 00
	00 00		 mov	 DWORD PTR tv71[ebp], 0
$LN10@SortListIt:
  00053	8b 45 b0	 mov	 eax, DWORD PTR tv71[ebp]
  00056	e9 a3 00 00 00	 jmp	 $LN1@SortListIt
$LN5@SortListIt:

; 236  : 		}
; 237  : 	case 1:		//奖励金币
; 238  : 		{
; 239  : 			return pMatchRewardInfo1->lRewardGold>pMatchRewardInfo2->lRewardGold;			

  0005b	8b 45 f8	 mov	 eax, DWORD PTR _pMatchRewardInfo1$[ebp]
  0005e	8b 4d f4	 mov	 ecx, DWORD PTR _pMatchRewardInfo2$[ebp]
  00061	89 45 b0	 mov	 DWORD PTR tv93[ebp], eax
  00064	89 4d ac	 mov	 DWORD PTR tv94[ebp], ecx
  00067	8b 55 b0	 mov	 edx, DWORD PTR tv93[ebp]
  0006a	8b 45 ac	 mov	 eax, DWORD PTR tv94[ebp]
  0006d	8b 4a 06	 mov	 ecx, DWORD PTR [edx+6]
  00070	3b 48 06	 cmp	 ecx, DWORD PTR [eax+6]
  00073	7c 19		 jl	 SHORT $LN11@SortListIt
  00075	7f 0e		 jg	 SHORT $LN17@SortListIt
  00077	8b 55 b0	 mov	 edx, DWORD PTR tv93[ebp]
  0007a	8b 45 ac	 mov	 eax, DWORD PTR tv94[ebp]
  0007d	8b 4a 02	 mov	 ecx, DWORD PTR [edx+2]
  00080	3b 48 02	 cmp	 ecx, DWORD PTR [eax+2]
  00083	76 09		 jbe	 SHORT $LN11@SortListIt
$LN17@SortListIt:
  00085	c7 45 a8 01 00
	00 00		 mov	 DWORD PTR tv75[ebp], 1
  0008c	eb 07		 jmp	 SHORT $LN12@SortListIt
$LN11@SortListIt:
  0008e	c7 45 a8 00 00
	00 00		 mov	 DWORD PTR tv75[ebp], 0
$LN12@SortListIt:
  00095	8b 45 a8	 mov	 eax, DWORD PTR tv75[ebp]
  00098	eb 64		 jmp	 SHORT $LN1@SortListIt
$LN6@SortListIt:

; 240  : 		}
; 241  : 	case 2:		//奖励元宝
; 242  : 		{
; 243  : 			return pMatchRewardInfo1->lRewardIngot>pMatchRewardInfo2->lRewardIngot;			

  0009a	8b 45 f8	 mov	 eax, DWORD PTR _pMatchRewardInfo1$[ebp]
  0009d	8b 4d f4	 mov	 ecx, DWORD PTR _pMatchRewardInfo2$[ebp]
  000a0	89 45 b0	 mov	 DWORD PTR tv138[ebp], eax
  000a3	89 4d ac	 mov	 DWORD PTR tv139[ebp], ecx
  000a6	8b 55 b0	 mov	 edx, DWORD PTR tv138[ebp]
  000a9	8b 45 ac	 mov	 eax, DWORD PTR tv139[ebp]
  000ac	8b 4a 0e	 mov	 ecx, DWORD PTR [edx+14]
  000af	3b 48 0e	 cmp	 ecx, DWORD PTR [eax+14]
  000b2	7c 19		 jl	 SHORT $LN13@SortListIt
  000b4	7f 0e		 jg	 SHORT $LN18@SortListIt
  000b6	8b 55 b0	 mov	 edx, DWORD PTR tv138[ebp]
  000b9	8b 45 ac	 mov	 eax, DWORD PTR tv139[ebp]
  000bc	8b 4a 0a	 mov	 ecx, DWORD PTR [edx+10]
  000bf	3b 48 0a	 cmp	 ecx, DWORD PTR [eax+10]
  000c2	76 09		 jbe	 SHORT $LN13@SortListIt
$LN18@SortListIt:
  000c4	c7 45 a8 01 00
	00 00		 mov	 DWORD PTR tv79[ebp], 1
  000cb	eb 07		 jmp	 SHORT $LN14@SortListIt
$LN13@SortListIt:
  000cd	c7 45 a8 00 00
	00 00		 mov	 DWORD PTR tv79[ebp], 0
$LN14@SortListIt:
  000d4	8b 45 a8	 mov	 eax, DWORD PTR tv79[ebp]
  000d7	eb 25		 jmp	 SHORT $LN1@SortListIt
$LN7@SortListIt:

; 244  : 		}
; 245  : 	case 3:		//奖励经验
; 246  : 		{
; 247  : 			return pMatchRewardInfo1->dwRewardExperience>pMatchRewardInfo2->dwRewardExperience;	;

  000d9	8b 45 f8	 mov	 eax, DWORD PTR _pMatchRewardInfo1$[ebp]
  000dc	8b 4d f4	 mov	 ecx, DWORD PTR _pMatchRewardInfo2$[ebp]
  000df	8b 50 12	 mov	 edx, DWORD PTR [eax+18]
  000e2	3b 51 12	 cmp	 edx, DWORD PTR [ecx+18]
  000e5	76 09		 jbe	 SHORT $LN15@SortListIt
  000e7	c7 45 b0 01 00
	00 00		 mov	 DWORD PTR tv83[ebp], 1
  000ee	eb 07		 jmp	 SHORT $LN16@SortListIt
$LN15@SortListIt:
  000f0	c7 45 b0 00 00
	00 00		 mov	 DWORD PTR tv83[ebp], 0
$LN16@SortListIt:
  000f7	8b 45 b0	 mov	 eax, DWORD PTR tv83[ebp]
  000fa	eb 02		 jmp	 SHORT $LN1@SortListIt
$LN2@SortListIt:

; 248  : 		}
; 249  : 	}
; 250  : 
; 251  : 	return 0;

  000fc	33 c0		 xor	 eax, eax
$LN1@SortListIt:

; 252  : }

  000fe	5f		 pop	 edi
  000ff	5e		 pop	 esi
  00100	5b		 pop	 ebx
  00101	8b e5		 mov	 esp, ebp
  00103	5d		 pop	 ebp
  00104	c2 0c 00	 ret	 12			; 0000000cH
  00107	90		 npad	 1
$LN19@SortListIt:
  00108	00 00 00 00	 DD	 $LN4@SortListIt
  0010c	00 00 00 00	 DD	 $LN5@SortListIt
  00110	00 00 00 00	 DD	 $LN6@SortListIt
  00114	00 00 00 00	 DD	 $LN7@SortListIt
?SortListItemData@CRewardListControl@@UAEHJJG@Z ENDP	; CRewardListControl::SortListItemData
_TEXT	ENDS
; Function compile flags: /Odtp /ZI
; File g:\网狐\happygamewh\服务端\系统模块\服务器组件\模块管理\matchlistcontrol.cpp
;	COMDAT ?InitListControl@CRewardListControl@@UAEXXZ
_TEXT	SEGMENT
tv143 = -76						; size = 4
tv131 = -76						; size = 4
tv87 = -76						; size = 4
tv75 = -76						; size = 4
_nColIndex$ = -8					; size = 4
_this$ = -4						; size = 4
?InitListControl@CRewardListControl@@UAEXXZ PROC	; CRewardListControl::InitListControl, COMDAT
; _this$ = ecx

; 210  : {

  00000	55		 push	 ebp
  00001	8b ec		 mov	 ebp, esp
  00003	83 ec 4c	 sub	 esp, 76			; 0000004cH
  00006	53		 push	 ebx
  00007	56		 push	 esi
  00008	57		 push	 edi
  00009	89 4d fc	 mov	 DWORD PTR _this$[ebp], ecx

; 211  : 	//变量定义
; 212  : 	INT nColIndex=0;

  0000c	c7 45 f8 00 00
	00 00		 mov	 DWORD PTR _nColIndex$[ebp], 0

; 213  : 
; 214  : 	//配置列表
; 215  : 	InsertColumn(nColIndex++,TEXT("名    次"),LVCFMT_LEFT,120);

  00013	8b 45 f8	 mov	 eax, DWORD PTR _nColIndex$[ebp]
  00016	89 45 b4	 mov	 DWORD PTR tv75[ebp], eax
  00019	6a ff		 push	 -1
  0001b	6a 78		 push	 120			; 00000078H
  0001d	6a 00		 push	 0
  0001f	68 00 00 00 00	 push	 OFFSET ??_C@_08EHBMMFM@?C?$PL?5?5?5?5?$LE?N@
  00024	8b 4d b4	 mov	 ecx, DWORD PTR tv75[ebp]
  00027	51		 push	 ecx
  00028	8b 4d fc	 mov	 ecx, DWORD PTR _this$[ebp]
  0002b	e8 00 00 00 00	 call	 ?InsertColumn@CListCtrl@@QAEHHPBDHHH@Z ; CListCtrl::InsertColumn
  00030	8b 55 f8	 mov	 edx, DWORD PTR _nColIndex$[ebp]
  00033	83 c2 01	 add	 edx, 1
  00036	89 55 f8	 mov	 DWORD PTR _nColIndex$[ebp], edx

; 216  : 	InsertColumn(nColIndex++,TEXT("奖励金币"),LVCFMT_LEFT,100);

  00039	8b 45 f8	 mov	 eax, DWORD PTR _nColIndex$[ebp]
  0003c	89 45 b4	 mov	 DWORD PTR tv87[ebp], eax
  0003f	6a ff		 push	 -1
  00041	6a 64		 push	 100			; 00000064H
  00043	6a 00		 push	 0
  00045	68 00 00 00 00	 push	 OFFSET ??_C@_08JGPOPHOF@?$LN?$LB?$MA?x?$LN?p?$LB?R@
  0004a	8b 4d b4	 mov	 ecx, DWORD PTR tv87[ebp]
  0004d	51		 push	 ecx
  0004e	8b 4d fc	 mov	 ecx, DWORD PTR _this$[ebp]
  00051	e8 00 00 00 00	 call	 ?InsertColumn@CListCtrl@@QAEHHPBDHHH@Z ; CListCtrl::InsertColumn
  00056	8b 55 f8	 mov	 edx, DWORD PTR _nColIndex$[ebp]
  00059	83 c2 01	 add	 edx, 1
  0005c	89 55 f8	 mov	 DWORD PTR _nColIndex$[ebp], edx

; 217  : 	InsertColumn(nColIndex++,TEXT("奖励元宝"),LVCFMT_LEFT,100);

  0005f	8b 45 f8	 mov	 eax, DWORD PTR _nColIndex$[ebp]
  00062	89 45 b4	 mov	 DWORD PTR tv131[ebp], eax
  00065	6a ff		 push	 -1
  00067	6a 64		 push	 100			; 00000064H
  00069	6a 00		 push	 0
  0006b	68 00 00 00 00	 push	 OFFSET ??_C@_08ONDPLBON@?$LN?$LB?$MA?x?T?$KK?$LB?$KG@
  00070	8b 4d b4	 mov	 ecx, DWORD PTR tv131[ebp]
  00073	51		 push	 ecx
  00074	8b 4d fc	 mov	 ecx, DWORD PTR _this$[ebp]
  00077	e8 00 00 00 00	 call	 ?InsertColumn@CListCtrl@@QAEHHPBDHHH@Z ; CListCtrl::InsertColumn
  0007c	8b 55 f8	 mov	 edx, DWORD PTR _nColIndex$[ebp]
  0007f	83 c2 01	 add	 edx, 1
  00082	89 55 f8	 mov	 DWORD PTR _nColIndex$[ebp], edx

; 218  : 	InsertColumn(nColIndex++,TEXT("奖励经验"),LVCFMT_LEFT,100);

  00085	8b 45 f8	 mov	 eax, DWORD PTR _nColIndex$[ebp]
  00088	89 45 b4	 mov	 DWORD PTR tv143[ebp], eax
  0008b	6a ff		 push	 -1
  0008d	6a 64		 push	 100			; 00000064H
  0008f	6a 00		 push	 0
  00091	68 00 00 00 00	 push	 OFFSET ??_C@_08JMFMHOFC@?$LN?$LB?$MA?x?$LO?$KN?Q?i@
  00096	8b 4d b4	 mov	 ecx, DWORD PTR tv143[ebp]
  00099	51		 push	 ecx
  0009a	8b 4d fc	 mov	 ecx, DWORD PTR _this$[ebp]
  0009d	e8 00 00 00 00	 call	 ?InsertColumn@CListCtrl@@QAEHHPBDHHH@Z ; CListCtrl::InsertColumn
  000a2	8b 55 f8	 mov	 edx, DWORD PTR _nColIndex$[ebp]
  000a5	83 c2 01	 add	 edx, 1
  000a8	89 55 f8	 mov	 DWORD PTR _nColIndex$[ebp], edx

; 219  : 
; 220  : 	return;
; 221  : }

  000ab	5f		 pop	 edi
  000ac	5e		 pop	 esi
  000ad	5b		 pop	 ebx
  000ae	8b e5		 mov	 esp, ebp
  000b0	5d		 pop	 ebp
  000b1	c3		 ret	 0
?InitListControl@CRewardListControl@@UAEXXZ ENDP	; CRewardListControl::InitListControl
_TEXT	ENDS
; Function compile flags: /Odtp /ZI
; File g:\网狐\happygamewh\服务端\系统模块\服务器组件\模块管理\matchlistcontrol.cpp
;	COMDAT ??1CRewardListControl@@UAE@XZ
_TEXT	SEGMENT
_this$ = -4						; size = 4
??1CRewardListControl@@UAE@XZ PROC			; CRewardListControl::~CRewardListControl, COMDAT
; _this$ = ecx

; 205  : {

  00000	55		 push	 ebp
  00001	8b ec		 mov	 ebp, esp
  00003	83 ec 44	 sub	 esp, 68			; 00000044H
  00006	53		 push	 ebx
  00007	56		 push	 esi
  00008	57		 push	 edi
  00009	89 4d fc	 mov	 DWORD PTR _this$[ebp], ecx
  0000c	8b 45 fc	 mov	 eax, DWORD PTR _this$[ebp]
  0000f	c7 00 00 00 00
	00		 mov	 DWORD PTR [eax], OFFSET ??_7CRewardListControl@@6B@

; 206  : }

  00015	8b 4d fc	 mov	 ecx, DWORD PTR _this$[ebp]
  00018	e8 00 00 00 00	 call	 ??1CListControl@@UAE@XZ	; CListControl::~CListControl
  0001d	5f		 pop	 edi
  0001e	5e		 pop	 esi
  0001f	5b		 pop	 ebx
  00020	8b e5		 mov	 esp, ebp
  00022	5d		 pop	 ebp
  00023	c3		 ret	 0
??1CRewardListControl@@UAE@XZ ENDP			; CRewardListControl::~CRewardListControl
_TEXT	ENDS
; Function compile flags: /Odtp /ZI
; File g:\网狐\happygamewh\服务端\系统模块\服务器组件\模块管理\matchlistcontrol.cpp
;	COMDAT ??0CRewardListControl@@QAE@XZ
_TEXT	SEGMENT
_this$ = -4						; size = 4
??0CRewardListControl@@QAE@XZ PROC			; CRewardListControl::CRewardListControl, COMDAT
; _this$ = ecx

; 200  : {

  00000	55		 push	 ebp
  00001	8b ec		 mov	 ebp, esp
  00003	83 ec 44	 sub	 esp, 68			; 00000044H
  00006	53		 push	 ebx
  00007	56		 push	 esi
  00008	57		 push	 edi
  00009	89 4d fc	 mov	 DWORD PTR _this$[ebp], ecx
  0000c	8b 4d fc	 mov	 ecx, DWORD PTR _this$[ebp]
  0000f	e8 00 00 00 00	 call	 ??0CListControl@@QAE@XZ	; CListControl::CListControl
  00014	8b 45 fc	 mov	 eax, DWORD PTR _this$[ebp]
  00017	c7 00 00 00 00
	00		 mov	 DWORD PTR [eax], OFFSET ??_7CRewardListControl@@6B@

; 201  : }

  0001d	8b 45 fc	 mov	 eax, DWORD PTR _this$[ebp]
  00020	5f		 pop	 edi
  00021	5e		 pop	 esi
  00022	5b		 pop	 ebx
  00023	8b e5		 mov	 esp, ebp
  00025	5d		 pop	 ebp
  00026	c3		 ret	 0
??0CRewardListControl@@QAE@XZ ENDP			; CRewardListControl::CRewardListControl
_TEXT	ENDS
; Function compile flags: /Odtp /ZI
;	COMDAT ??_ECMatchListControl@@UAEPAXI@Z
_TEXT	SEGMENT
_this$ = -16						; size = 4
__$EHRec$ = -12						; size = 12
___flags$ = 8						; size = 4
??_ECMatchListControl@@UAEPAXI@Z PROC			; CMatchListControl::`vector deleting destructor', COMDAT
; _this$ = ecx
  00000	55		 push	 ebp
  00001	8b ec		 mov	 ebp, esp
  00003	6a ff		 push	 -1
  00005	68 00 00 00 00	 push	 __ehhandler$??_ECMatchListControl@@UAEPAXI@Z
  0000a	64 a1 00 00 00
	00		 mov	 eax, DWORD PTR fs:0
  00010	50		 push	 eax
  00011	83 ec 44	 sub	 esp, 68			; 00000044H
  00014	53		 push	 ebx
  00015	56		 push	 esi
  00016	57		 push	 edi
  00017	a1 00 00 00 00	 mov	 eax, DWORD PTR ___security_cookie
  0001c	33 c5		 xor	 eax, ebp
  0001e	50		 push	 eax
  0001f	8d 45 f4	 lea	 eax, DWORD PTR __$EHRec$[ebp]
  00022	64 a3 00 00 00
	00		 mov	 DWORD PTR fs:0, eax
  00028	89 4d f0	 mov	 DWORD PTR _this$[ebp], ecx
  0002b	8b 45 08	 mov	 eax, DWORD PTR ___flags$[ebp]
  0002e	83 e0 02	 and	 eax, 2
  00031	74 47		 je	 SHORT $LN2@vector
  00033	68 00 00 00 00	 push	 OFFSET ??1CMatchListControl@@UAE@XZ ; CMatchListControl::~CMatchListControl
  00038	8b 45 f0	 mov	 eax, DWORD PTR _this$[ebp]
  0003b	8b 48 fc	 mov	 ecx, DWORD PTR [eax-4]
  0003e	51		 push	 ecx
  0003f	68 08 01 00 00	 push	 264			; 00000108H
  00044	8b 55 f0	 mov	 edx, DWORD PTR _this$[ebp]
  00047	52		 push	 edx
  00048	e8 00 00 00 00	 call	 ??_M@YGXPAXIIP6EX0@Z@Z
  0004d	8b 45 08	 mov	 eax, DWORD PTR ___flags$[ebp]
  00050	83 e0 01	 and	 eax, 1
  00053	74 1d		 je	 SHORT $LN3@vector
  00055	8b 45 f0	 mov	 eax, DWORD PTR _this$[ebp]
  00058	69 48 fc 08 01
	00 00		 imul	 ecx, DWORD PTR [eax-4], 264
  0005f	83 c1 04	 add	 ecx, 4
  00062	51		 push	 ecx
  00063	8b 55 f0	 mov	 edx, DWORD PTR _this$[ebp]
  00066	83 ea 04	 sub	 edx, 4
  00069	52		 push	 edx
  0006a	e8 00 00 00 00	 call	 ??_V@YAXPAXI@Z		; operator delete[]
  0006f	83 c4 08	 add	 esp, 8
$LN3@vector:
  00072	8b 45 f0	 mov	 eax, DWORD PTR _this$[ebp]
  00075	83 e8 04	 sub	 eax, 4
  00078	eb 37		 jmp	 SHORT $LN8@vector
$LN2@vector:
  0007a	8b 4d f0	 mov	 ecx, DWORD PTR _this$[ebp]
  0007d	e8 00 00 00 00	 call	 ??1CMatchListControl@@UAE@XZ ; CMatchListControl::~CMatchListControl
  00082	8b 45 08	 mov	 eax, DWORD PTR ___flags$[ebp]
  00085	83 e0 01	 and	 eax, 1
  00088	74 24		 je	 SHORT $LN4@vector
  0008a	8b 45 08	 mov	 eax, DWORD PTR ___flags$[ebp]
  0008d	83 e0 04	 and	 eax, 4
  00090	75 0b		 jne	 SHORT $LN5@vector
  00092	8b 45 f0	 mov	 eax, DWORD PTR _this$[ebp]
  00095	50		 push	 eax
  00096	e8 00 00 00 00	 call	 ??3CObject@@SGXPAX@Z	; CObject::operator delete
  0009b	eb 11		 jmp	 SHORT $LN4@vector
$LN5@vector:
  0009d	68 08 01 00 00	 push	 264			; 00000108H
  000a2	8b 45 f0	 mov	 eax, DWORD PTR _this$[ebp]
  000a5	50		 push	 eax
  000a6	e8 00 00 00 00	 call	 ?__global_delete@@YAXPAXI@Z ; __global_delete
  000ab	83 c4 08	 add	 esp, 8
$LN4@vector:
  000ae	8b 45 f0	 mov	 eax, DWORD PTR _this$[ebp]
$LN8@vector:
  000b1	8b 4d f4	 mov	 ecx, DWORD PTR __$EHRec$[ebp]
  000b4	64 89 0d 00 00
	00 00		 mov	 DWORD PTR fs:0, ecx
  000bb	59		 pop	 ecx
  000bc	5f		 pop	 edi
  000bd	5e		 pop	 esi
  000be	5b		 pop	 ebx
  000bf	8b e5		 mov	 esp, ebp
  000c1	5d		 pop	 ebp
  000c2	c2 04 00	 ret	 4
_TEXT	ENDS
;	COMDAT text$x
text$x	SEGMENT
__ehhandler$??_ECMatchListControl@@UAEPAXI@Z:
  00000	8b 54 24 08	 mov	 edx, DWORD PTR [esp+8]
  00004	8d 42 0c	 lea	 eax, DWORD PTR [edx+12]
  00007	8b 4a ac	 mov	 ecx, DWORD PTR [edx-84]
  0000a	33 c8		 xor	 ecx, eax
  0000c	e8 00 00 00 00	 call	 @__security_check_cookie@4
  00011	b8 00 00 00 00	 mov	 eax, OFFSET __ehfuncinfo$??_ECMatchListControl@@UAEPAXI@Z
  00016	e9 00 00 00 00	 jmp	 ___CxxFrameHandler3
text$x	ENDS
??_ECMatchListControl@@UAEPAXI@Z ENDP			; CMatchListControl::`vector deleting destructor'
; Function compile flags: /Odtp /ZI
;	COMDAT ??_GCMatchListControl@@UAEPAXI@Z
_TEXT	SEGMENT
_this$ = -4						; size = 4
___flags$ = 8						; size = 4
??_GCMatchListControl@@UAEPAXI@Z PROC			; CMatchListControl::`scalar deleting destructor', COMDAT
; _this$ = ecx
  00000	55		 push	 ebp
  00001	8b ec		 mov	 ebp, esp
  00003	83 ec 44	 sub	 esp, 68			; 00000044H
  00006	53		 push	 ebx
  00007	56		 push	 esi
  00008	57		 push	 edi
  00009	89 4d fc	 mov	 DWORD PTR _this$[ebp], ecx
  0000c	8b 4d fc	 mov	 ecx, DWORD PTR _this$[ebp]
  0000f	e8 00 00 00 00	 call	 ??1CMatchListControl@@UAE@XZ ; CMatchListControl::~CMatchListControl
  00014	8b 45 08	 mov	 eax, DWORD PTR ___flags$[ebp]
  00017	83 e0 01	 and	 eax, 1
  0001a	74 24		 je	 SHORT $LN2@scalar
  0001c	8b 45 08	 mov	 eax, DWORD PTR ___flags$[ebp]
  0001f	83 e0 04	 and	 eax, 4
  00022	75 0b		 jne	 SHORT $LN3@scalar
  00024	8b 45 fc	 mov	 eax, DWORD PTR _this$[ebp]
  00027	50		 push	 eax
  00028	e8 00 00 00 00	 call	 ??3CObject@@SGXPAX@Z	; CObject::operator delete
  0002d	eb 11		 jmp	 SHORT $LN2@scalar
$LN3@scalar:
  0002f	68 08 01 00 00	 push	 264			; 00000108H
  00034	8b 45 fc	 mov	 eax, DWORD PTR _this$[ebp]
  00037	50		 push	 eax
  00038	e8 00 00 00 00	 call	 ?__global_delete@@YAXPAXI@Z ; __global_delete
  0003d	83 c4 08	 add	 esp, 8
$LN2@scalar:
  00040	8b 45 fc	 mov	 eax, DWORD PTR _this$[ebp]
  00043	5f		 pop	 edi
  00044	5e		 pop	 esi
  00045	5b		 pop	 ebx
  00046	8b e5		 mov	 esp, ebp
  00048	5d		 pop	 ebp
  00049	c2 04 00	 ret	 4
??_GCMatchListControl@@UAEPAXI@Z ENDP			; CMatchListControl::`scalar deleting destructor'
_TEXT	ENDS
; Function compile flags: /Odtp /ZI
; File g:\网狐\happygamewh\服务端\系统模块\服务器组件\模块管理\matchlistcontrol.cpp
;	COMDAT ?GetDescribeString@CMatchListControl@@AAEPBDPAUtagGameMatchOption@@G@Z
_TEXT	SEGMENT
tv65 = -80						; size = 4
_pszMatchType$1 = -12					; size = 8
_this$ = -4						; size = 4
_pGameMatchOption$ = 8					; size = 4
_wColumnIndex$ = 12					; size = 2
?GetDescribeString@CMatchListControl@@AAEPBDPAUtagGameMatchOption@@G@Z PROC ; CMatchListControl::GetDescribeString, COMDAT
; _this$ = ecx

; 153  : {

  00000	55		 push	 ebp
  00001	8b ec		 mov	 ebp, esp
  00003	83 ec 50	 sub	 esp, 80			; 00000050H
  00006	53		 push	 ebx
  00007	56		 push	 esi
  00008	57		 push	 edi
  00009	89 4d fc	 mov	 DWORD PTR _this$[ebp], ecx

; 154  : 	//变量定义
; 155  : 	static TCHAR szDescribe[128]=TEXT("");
; 156  : 
; 157  : 	//构造字符
; 158  : 	switch (wColumnIndex)

  0000c	0f b7 45 0c	 movzx	 eax, WORD PTR _wColumnIndex$[ebp]
  00010	89 45 b0	 mov	 DWORD PTR tv65[ebp], eax
  00013	83 7d b0 00	 cmp	 DWORD PTR tv65[ebp], 0
  00017	74 08		 je	 SHORT $LN4@GetDescrib
  00019	83 7d b0 01	 cmp	 DWORD PTR tv65[ebp], 1
  0001d	74 46		 je	 SHORT $LN6@GetDescrib
  0001f	eb 4c		 jmp	 SHORT $LN2@GetDescrib
$LN4@GetDescrib:

; 159  : 	{
; 160  : 	case 0:		//比赛类型
; 161  : 		{
; 162  : 			//变量定义
; 163  : 			LPCTSTR pszMatchType[] = {TEXT("定时赛"),TEXT("即时赛")};

  00021	c7 45 f4 00 00
	00 00		 mov	 DWORD PTR _pszMatchType$1[ebp], OFFSET ??_C@_06PFKHHJFE@?$LG?$KI?J?$LB?H?$PM@
  00028	c7 45 f8 00 00
	00 00		 mov	 DWORD PTR _pszMatchType$1[ebp+4], OFFSET ??_C@_06CFMDOEPK@?$LM?$LE?J?$LB?H?$PM@

; 164  : 
; 165  : 			//判断索引
; 166  : 			if(pGameMatchOption->cbMatchType<CountArray(pszMatchType))

  0002f	8b 45 08	 mov	 eax, DWORD PTR _pGameMatchOption$[ebp]
  00032	0f b6 48 11	 movzx	 ecx, BYTE PTR [eax+17]
  00036	83 f9 02	 cmp	 ecx, 2
  00039	73 23		 jae	 SHORT $LN5@GetDescrib

; 167  : 			{
; 168  : 				_sntprintf_s(szDescribe,CountArray(szDescribe),TEXT("%s"),pszMatchType[pGameMatchOption->cbMatchType]);

  0003b	8b 45 08	 mov	 eax, DWORD PTR _pGameMatchOption$[ebp]
  0003e	0f b6 48 11	 movzx	 ecx, BYTE PTR [eax+17]
  00042	8b 54 8d f4	 mov	 edx, DWORD PTR _pszMatchType$1[ebp+ecx*4]
  00046	52		 push	 edx
  00047	68 00 00 00 00	 push	 OFFSET ??_C@_02DKCKIIND@?$CFs@
  0004c	68 80 00 00 00	 push	 128			; 00000080H
  00051	68 00 00 00 00	 push	 OFFSET ?szDescribe@?1??GetDescribeString@CMatchListControl@@AAEPBDPAUtagGameMatchOption@@G@Z@4PADA
  00056	e8 00 00 00 00	 call	 ??$_snprintf_s@$0IA@@@YAHAAY0IA@DIPBDZZ ; _snprintf_s<128>
  0005b	83 c4 10	 add	 esp, 16			; 00000010H
$LN5@GetDescrib:

; 169  : 			}
; 170  : 
; 171  : 			return szDescribe;

  0005e	b8 00 00 00 00	 mov	 eax, OFFSET ?szDescribe@?1??GetDescribeString@CMatchListControl@@AAEPBDPAUtagGameMatchOption@@G@Z@4PADA
  00063	eb 0a		 jmp	 SHORT $LN1@GetDescrib
$LN6@GetDescrib:

; 172  : 		}
; 173  : 	case 1:		//比赛名称
; 174  : 		{
; 175  : 			return pGameMatchOption->szMatchName;

  00065	8b 45 08	 mov	 eax, DWORD PTR _pGameMatchOption$[ebp]
  00068	83 c0 12	 add	 eax, 18			; 00000012H
  0006b	eb 02		 jmp	 SHORT $LN1@GetDescrib
$LN2@GetDescrib:

; 176  : 		}	
; 177  : 	//case 2:		//报名方式
; 178  : 	//	{
; 179  : 	//		if(pGameMatchOption->cbSignupMode==SIGNUP_MODE_SIGNUP_FEE)
; 180  : 	//		{
; 181  : 	//			_sntprintf_s(szDescribe,CountArray(szDescribe),TEXT("扣除金币"));
; 182  : 	//		}
; 183  : 	//		else if(pGameMatchOption->cbSignupMode==SIGNUP_MODE_MATCH_USER)
; 184  : 	//		{
; 185  : 	//			_sntprintf_s(szDescribe,CountArray(szDescribe),TEXT("跳转网站"));
; 186  : 	//		}
; 187  : 
; 188  : 	//		return szDescribe;
; 189  : 	//	}
; 190  : 	}
; 191  : 
; 192  : 	return NULL;

  0006d	33 c0		 xor	 eax, eax
$LN1@GetDescrib:

; 193  : }

  0006f	5f		 pop	 edi
  00070	5e		 pop	 esi
  00071	5b		 pop	 ebx
  00072	8b e5		 mov	 esp, ebp
  00074	5d		 pop	 ebp
  00075	c2 08 00	 ret	 8
?GetDescribeString@CMatchListControl@@AAEPBDPAUtagGameMatchOption@@G@Z ENDP ; CMatchListControl::GetDescribeString
_TEXT	ENDS
; Function compile flags: /Odtp /ZI
; File g:\网狐\happygamewh\服务端\系统模块\服务器组件\模块管理\matchlistcontrol.cpp
;	COMDAT ?GetInsertIndex@CMatchListControl@@AAEGPAUtagGameMatchOption@@@Z
_TEXT	SEGMENT
_i$1 = -16						; size = 4
_pGameMatchTemp$ = -12					; size = 4
_nItemCount$ = -8					; size = 4
_this$ = -4						; size = 4
_pGameMatchOption$ = 8					; size = 4
?GetInsertIndex@CMatchListControl@@AAEGPAUtagGameMatchOption@@@Z PROC ; CMatchListControl::GetInsertIndex, COMDAT
; _this$ = ecx

; 130  : {

  00000	55		 push	 ebp
  00001	8b ec		 mov	 ebp, esp
  00003	83 ec 50	 sub	 esp, 80			; 00000050H
  00006	53		 push	 ebx
  00007	56		 push	 esi
  00008	57		 push	 edi
  00009	89 4d fc	 mov	 DWORD PTR _this$[ebp], ecx

; 131  : 	//变量定义
; 132  : 	INT nItemCount=GetItemCount();

  0000c	8b 4d fc	 mov	 ecx, DWORD PTR _this$[ebp]
  0000f	e8 00 00 00 00	 call	 ?GetItemCount@CListCtrl@@QBEHXZ ; CListCtrl::GetItemCount
  00014	89 45 f8	 mov	 DWORD PTR _nItemCount$[ebp], eax

; 133  : 	tagGameMatchOption * pGameMatchTemp=NULL;

  00017	c7 45 f4 00 00
	00 00		 mov	 DWORD PTR _pGameMatchTemp$[ebp], 0

; 134  : 
; 135  : 	//获取位置
; 136  : 	for (INT i=0;i<nItemCount;i++)

  0001e	c7 45 f0 00 00
	00 00		 mov	 DWORD PTR _i$1[ebp], 0
  00025	eb 09		 jmp	 SHORT $LN4@GetInsertI
$LN2@GetInsertI:
  00027	8b 45 f0	 mov	 eax, DWORD PTR _i$1[ebp]
  0002a	83 c0 01	 add	 eax, 1
  0002d	89 45 f0	 mov	 DWORD PTR _i$1[ebp], eax
$LN4@GetInsertI:
  00030	8b 45 f0	 mov	 eax, DWORD PTR _i$1[ebp]
  00033	3b 45 f8	 cmp	 eax, DWORD PTR _nItemCount$[ebp]
  00036	7d 2f		 jge	 SHORT $LN3@GetInsertI

; 137  : 	{
; 138  : 		//获取数据
; 139  : 		pGameMatchTemp=(tagGameMatchOption *)GetItemData(i);

  00038	8b 45 f0	 mov	 eax, DWORD PTR _i$1[ebp]
  0003b	50		 push	 eax
  0003c	8b 4d fc	 mov	 ecx, DWORD PTR _this$[ebp]
  0003f	e8 00 00 00 00	 call	 ?GetItemData@CListCtrl@@QBEKH@Z ; CListCtrl::GetItemData
  00044	89 45 f4	 mov	 DWORD PTR _pGameMatchTemp$[ebp], eax

; 140  : 
; 141  : 		//比赛名称
; 142  : 		if (lstrcmp(pGameMatchOption->szMatchName,pGameMatchTemp->szMatchName)<0)

  00047	8b 45 f4	 mov	 eax, DWORD PTR _pGameMatchTemp$[ebp]
  0004a	83 c0 12	 add	 eax, 18			; 00000012H
  0004d	50		 push	 eax
  0004e	8b 4d 08	 mov	 ecx, DWORD PTR _pGameMatchOption$[ebp]
  00051	83 c1 12	 add	 ecx, 18			; 00000012H
  00054	51		 push	 ecx
  00055	ff 15 00 00 00
	00		 call	 DWORD PTR __imp__lstrcmpA@8
  0005b	85 c0		 test	 eax, eax
  0005d	7d 06		 jge	 SHORT $LN5@GetInsertI

; 143  : 		{
; 144  : 			return i;

  0005f	66 8b 45 f0	 mov	 ax, WORD PTR _i$1[ebp]
  00063	eb 06		 jmp	 SHORT $LN1@GetInsertI
$LN5@GetInsertI:

; 145  : 		}
; 146  : 	}

  00065	eb c0		 jmp	 SHORT $LN2@GetInsertI
$LN3@GetInsertI:

; 147  : 
; 148  : 	return nItemCount;

  00067	66 8b 45 f8	 mov	 ax, WORD PTR _nItemCount$[ebp]
$LN1@GetInsertI:

; 149  : }

  0006b	5f		 pop	 edi
  0006c	5e		 pop	 esi
  0006d	5b		 pop	 ebx
  0006e	8b e5		 mov	 esp, ebp
  00070	5d		 pop	 ebp
  00071	c2 04 00	 ret	 4
?GetInsertIndex@CMatchListControl@@AAEGPAUtagGameMatchOption@@@Z ENDP ; CMatchListControl::GetInsertIndex
_TEXT	ENDS
; Function compile flags: /Odtp /ZI
; File g:\网狐\happygamewh\服务端\系统模块\服务器组件\模块管理\matchlistcontrol.cpp
;	COMDAT ?UpdateMatchOption@CMatchListControl@@QAE_NPAUtagGameMatchOption@@@Z
_TEXT	SEGMENT
_i$1 = -36						; size = 2
_nUpdateItem$ = -32					; size = 4
_FindInfo$ = -28					; size = 24
_this$ = -4						; size = 4
_pGameMatchOption$ = 8					; size = 4
?UpdateMatchOption@CMatchListControl@@QAE_NPAUtagGameMatchOption@@@Z PROC ; CMatchListControl::UpdateMatchOption, COMDAT
; _this$ = ecx

; 102  : {

  00000	55		 push	 ebp
  00001	8b ec		 mov	 ebp, esp
  00003	83 ec 64	 sub	 esp, 100		; 00000064H
  00006	53		 push	 ebx
  00007	56		 push	 esi
  00008	57		 push	 edi
  00009	89 4d fc	 mov	 DWORD PTR _this$[ebp], ecx

; 103  : 	//变量定义
; 104  : 	LVFINDINFO FindInfo;
; 105  : 	ZeroMemory(&FindInfo,sizeof(FindInfo));

  0000c	6a 18		 push	 24			; 00000018H
  0000e	6a 00		 push	 0
  00010	8d 45 e4	 lea	 eax, DWORD PTR _FindInfo$[ebp]
  00013	50		 push	 eax
  00014	e8 00 00 00 00	 call	 _memset
  00019	83 c4 0c	 add	 esp, 12			; 0000000cH

; 106  : 
; 107  : 	//设置变量
; 108  : 	FindInfo.flags=LVFI_PARAM;

  0001c	c7 45 e4 01 00
	00 00		 mov	 DWORD PTR _FindInfo$[ebp], 1

; 109  : 	FindInfo.lParam=(LPARAM)pGameMatchOption;

  00023	8b 45 08	 mov	 eax, DWORD PTR _pGameMatchOption$[ebp]
  00026	89 45 ec	 mov	 DWORD PTR _FindInfo$[ebp+8], eax

; 110  : 
; 111  : 	//存在判断
; 112  : 	INT nUpdateItem=FindItem(&FindInfo);

  00029	6a ff		 push	 -1
  0002b	8d 45 e4	 lea	 eax, DWORD PTR _FindInfo$[ebp]
  0002e	50		 push	 eax
  0002f	8b 4d fc	 mov	 ecx, DWORD PTR _this$[ebp]
  00032	e8 00 00 00 00	 call	 ?FindItem@CListCtrl@@QBEHPAUtagLVFINDINFOA@@H@Z ; CListCtrl::FindItem
  00037	89 45 e0	 mov	 DWORD PTR _nUpdateItem$[ebp], eax

; 113  : 	if (nUpdateItem==LB_ERR) return true;

  0003a	83 7d e0 ff	 cmp	 DWORD PTR _nUpdateItem$[ebp], -1
  0003e	75 04		 jne	 SHORT $LN5@UpdateMatc
  00040	b0 01		 mov	 al, 1
  00042	eb 6b		 jmp	 SHORT $LN1@UpdateMatc
$LN5@UpdateMatc:

; 114  : 
; 115  : 	//插入列表
; 116  : 	for (WORD i=0;i<m_ListHeaderCtrl.GetItemCount();i++)

  00044	33 c0		 xor	 eax, eax
  00046	66 89 45 dc	 mov	 WORD PTR _i$1[ebp], ax
  0004a	eb 0c		 jmp	 SHORT $LN4@UpdateMatc
$LN2@UpdateMatc:
  0004c	66 8b 45 dc	 mov	 ax, WORD PTR _i$1[ebp]
  00050	66 83 c0 01	 add	 ax, 1
  00054	66 89 45 dc	 mov	 WORD PTR _i$1[ebp], ax
$LN4@UpdateMatc:
  00058	0f b7 75 dc	 movzx	 esi, WORD PTR _i$1[ebp]
  0005c	8b 4d fc	 mov	 ecx, DWORD PTR _this$[ebp]
  0005f	81 c1 88 00 00
	00		 add	 ecx, 136		; 00000088H
  00065	e8 00 00 00 00	 call	 ?GetItemCount@CHeaderCtrl@@QBEHXZ ; CHeaderCtrl::GetItemCount
  0006a	3b f0		 cmp	 esi, eax
  0006c	7d 2f		 jge	 SHORT $LN3@UpdateMatc

; 117  : 	{
; 118  : 		//字符子项
; 119  : 		SetItem(nUpdateItem,i,LVIF_TEXT,GetDescribeString(pGameMatchOption,i),0,0,0,0);

  0006e	6a 00		 push	 0
  00070	6a 00		 push	 0
  00072	6a 00		 push	 0
  00074	6a 00		 push	 0
  00076	0f b7 45 dc	 movzx	 eax, WORD PTR _i$1[ebp]
  0007a	50		 push	 eax
  0007b	8b 4d 08	 mov	 ecx, DWORD PTR _pGameMatchOption$[ebp]
  0007e	51		 push	 ecx
  0007f	8b 4d fc	 mov	 ecx, DWORD PTR _this$[ebp]
  00082	e8 00 00 00 00	 call	 ?GetDescribeString@CMatchListControl@@AAEPBDPAUtagGameMatchOption@@G@Z ; CMatchListControl::GetDescribeString
  00087	50		 push	 eax
  00088	6a 01		 push	 1
  0008a	0f b7 55 dc	 movzx	 edx, WORD PTR _i$1[ebp]
  0008e	52		 push	 edx
  0008f	8b 45 e0	 mov	 eax, DWORD PTR _nUpdateItem$[ebp]
  00092	50		 push	 eax
  00093	8b 4d fc	 mov	 ecx, DWORD PTR _this$[ebp]
  00096	e8 00 00 00 00	 call	 ?SetItem@CListCtrl@@QAEHHHIPBDHIIJ@Z ; CListCtrl::SetItem

; 120  : 	}

  0009b	eb af		 jmp	 SHORT $LN2@UpdateMatc
$LN3@UpdateMatc:

; 121  : 
; 122  : 	//更新子项
; 123  : 	RedrawItems(nUpdateItem,nUpdateItem);

  0009d	8b 45 e0	 mov	 eax, DWORD PTR _nUpdateItem$[ebp]
  000a0	50		 push	 eax
  000a1	8b 4d e0	 mov	 ecx, DWORD PTR _nUpdateItem$[ebp]
  000a4	51		 push	 ecx
  000a5	8b 4d fc	 mov	 ecx, DWORD PTR _this$[ebp]
  000a8	e8 00 00 00 00	 call	 ?RedrawItems@CListCtrl@@QAEHHH@Z ; CListCtrl::RedrawItems

; 124  : 
; 125  : 	return true;

  000ad	b0 01		 mov	 al, 1
$LN1@UpdateMatc:

; 126  : }

  000af	5f		 pop	 edi
  000b0	5e		 pop	 esi
  000b1	5b		 pop	 ebx
  000b2	8b e5		 mov	 esp, ebp
  000b4	5d		 pop	 ebp
  000b5	c2 04 00	 ret	 4
?UpdateMatchOption@CMatchListControl@@QAE_NPAUtagGameMatchOption@@@Z ENDP ; CMatchListControl::UpdateMatchOption
_TEXT	ENDS
; Function compile flags: /Odtp /ZI
; File g:\网狐\happygamewh\服务端\系统模块\服务器组件\模块管理\matchlistcontrol.cpp
;	COMDAT ?InsertMatchOption@CMatchListControl@@QAE_NPAUtagGameMatchOption@@@Z
_TEXT	SEGMENT
_pszDescribe$1 = -44					; size = 4
_nIndex$2 = -40						; size = 4
_i$3 = -36						; size = 2
_nInsertItem$ = -32					; size = 4
_FindInfo$ = -28					; size = 24
_this$ = -4						; size = 4
_pGameMatchOption$ = 8					; size = 4
?InsertMatchOption@CMatchListControl@@QAE_NPAUtagGameMatchOption@@@Z PROC ; CMatchListControl::InsertMatchOption, COMDAT
; _this$ = ecx

; 67   : {

  00000	55		 push	 ebp
  00001	8b ec		 mov	 ebp, esp
  00003	83 ec 6c	 sub	 esp, 108		; 0000006cH
  00006	53		 push	 ebx
  00007	56		 push	 esi
  00008	57		 push	 edi
  00009	89 4d fc	 mov	 DWORD PTR _this$[ebp], ecx

; 68   : 	//变量定义
; 69   : 	LVFINDINFO FindInfo;
; 70   : 	ZeroMemory(&FindInfo,sizeof(FindInfo));

  0000c	6a 18		 push	 24			; 00000018H
  0000e	6a 00		 push	 0
  00010	8d 45 e4	 lea	 eax, DWORD PTR _FindInfo$[ebp]
  00013	50		 push	 eax
  00014	e8 00 00 00 00	 call	 _memset
  00019	83 c4 0c	 add	 esp, 12			; 0000000cH

; 71   : 
; 72   : 	//设置变量
; 73   : 	FindInfo.flags=LVFI_PARAM;

  0001c	c7 45 e4 01 00
	00 00		 mov	 DWORD PTR _FindInfo$[ebp], 1

; 74   : 	FindInfo.lParam=(LPARAM)pGameMatchOption;

  00023	8b 45 08	 mov	 eax, DWORD PTR _pGameMatchOption$[ebp]
  00026	89 45 ec	 mov	 DWORD PTR _FindInfo$[ebp+8], eax

; 75   : 
; 76   : 	//存在判断
; 77   : 	INT nInsertItem=FindItem(&FindInfo);

  00029	6a ff		 push	 -1
  0002b	8d 45 e4	 lea	 eax, DWORD PTR _FindInfo$[ebp]
  0002e	50		 push	 eax
  0002f	8b 4d fc	 mov	 ecx, DWORD PTR _this$[ebp]
  00032	e8 00 00 00 00	 call	 ?FindItem@CListCtrl@@QBEHPAUtagLVFINDINFOA@@H@Z ; CListCtrl::FindItem
  00037	89 45 e0	 mov	 DWORD PTR _nInsertItem$[ebp], eax

; 78   : 	if (nInsertItem!=LB_ERR) return true;

  0003a	83 7d e0 ff	 cmp	 DWORD PTR _nInsertItem$[ebp], -1
  0003e	74 07		 je	 SHORT $LN5@InsertMatc
  00040	b0 01		 mov	 al, 1
  00042	e9 b1 00 00 00	 jmp	 $LN1@InsertMatc
$LN5@InsertMatc:

; 79   : 
; 80   : 	//插入列表
; 81   : 	for (WORD i=0;i<m_ListHeaderCtrl.GetItemCount();i++)

  00047	33 c0		 xor	 eax, eax
  00049	66 89 45 dc	 mov	 WORD PTR _i$3[ebp], ax
  0004d	eb 0c		 jmp	 SHORT $LN4@InsertMatc
$LN2@InsertMatc:
  0004f	66 8b 45 dc	 mov	 ax, WORD PTR _i$3[ebp]
  00053	66 83 c0 01	 add	 ax, 1
  00057	66 89 45 dc	 mov	 WORD PTR _i$3[ebp], ax
$LN4@InsertMatc:
  0005b	0f b7 75 dc	 movzx	 esi, WORD PTR _i$3[ebp]
  0005f	8b 4d fc	 mov	 ecx, DWORD PTR _this$[ebp]
  00062	81 c1 88 00 00
	00		 add	 ecx, 136		; 00000088H
  00068	e8 00 00 00 00	 call	 ?GetItemCount@CHeaderCtrl@@QBEHXZ ; CHeaderCtrl::GetItemCount
  0006d	3b f0		 cmp	 esi, eax
  0006f	0f 8d 81 00 00
	00		 jge	 $LN3@InsertMatc

; 82   : 	{
; 83   : 		if (i==0)

  00075	0f b7 45 dc	 movzx	 eax, WORD PTR _i$3[ebp]
  00079	85 c0		 test	 eax, eax
  0007b	75 47		 jne	 SHORT $LN6@InsertMatc

; 84   : 		{
; 85   : 			//插入首项
; 86   : 			INT nIndex=GetInsertIndex(pGameMatchOption);

  0007d	8b 45 08	 mov	 eax, DWORD PTR _pGameMatchOption$[ebp]
  00080	50		 push	 eax
  00081	8b 4d fc	 mov	 ecx, DWORD PTR _this$[ebp]
  00084	e8 00 00 00 00	 call	 ?GetInsertIndex@CMatchListControl@@AAEGPAUtagGameMatchOption@@@Z ; CMatchListControl::GetInsertIndex
  00089	0f b7 c8	 movzx	 ecx, ax
  0008c	89 4d d8	 mov	 DWORD PTR _nIndex$2[ebp], ecx

; 87   : 			LPCTSTR pszDescribe=GetDescribeString(pGameMatchOption,i);

  0008f	0f b7 45 dc	 movzx	 eax, WORD PTR _i$3[ebp]
  00093	50		 push	 eax
  00094	8b 4d 08	 mov	 ecx, DWORD PTR _pGameMatchOption$[ebp]
  00097	51		 push	 ecx
  00098	8b 4d fc	 mov	 ecx, DWORD PTR _this$[ebp]
  0009b	e8 00 00 00 00	 call	 ?GetDescribeString@CMatchListControl@@AAEPBDPAUtagGameMatchOption@@G@Z ; CMatchListControl::GetDescribeString
  000a0	89 45 d4	 mov	 DWORD PTR _pszDescribe$1[ebp], eax

; 88   : 			nInsertItem=InsertItem(LVIF_TEXT|LVIF_PARAM,nIndex,pszDescribe,0,0,0,(LPARAM)pGameMatchOption);

  000a3	8b 45 08	 mov	 eax, DWORD PTR _pGameMatchOption$[ebp]
  000a6	50		 push	 eax
  000a7	6a 00		 push	 0
  000a9	6a 00		 push	 0
  000ab	6a 00		 push	 0
  000ad	8b 4d d4	 mov	 ecx, DWORD PTR _pszDescribe$1[ebp]
  000b0	51		 push	 ecx
  000b1	8b 55 d8	 mov	 edx, DWORD PTR _nIndex$2[ebp]
  000b4	52		 push	 edx
  000b5	6a 05		 push	 5
  000b7	8b 4d fc	 mov	 ecx, DWORD PTR _this$[ebp]
  000ba	e8 00 00 00 00	 call	 ?InsertItem@CListCtrl@@QAEHIHPBDIIHJ@Z ; CListCtrl::InsertItem
  000bf	89 45 e0	 mov	 DWORD PTR _nInsertItem$[ebp], eax

; 89   : 		}
; 90   : 		else

  000c2	eb 2d		 jmp	 SHORT $LN7@InsertMatc
$LN6@InsertMatc:

; 91   : 		{
; 92   : 			//字符子项
; 93   : 			SetItem(nInsertItem,i,LVIF_TEXT,GetDescribeString(pGameMatchOption,i),0,0,0,0);

  000c4	6a 00		 push	 0
  000c6	6a 00		 push	 0
  000c8	6a 00		 push	 0
  000ca	6a 00		 push	 0
  000cc	0f b7 45 dc	 movzx	 eax, WORD PTR _i$3[ebp]
  000d0	50		 push	 eax
  000d1	8b 4d 08	 mov	 ecx, DWORD PTR _pGameMatchOption$[ebp]
  000d4	51		 push	 ecx
  000d5	8b 4d fc	 mov	 ecx, DWORD PTR _this$[ebp]
  000d8	e8 00 00 00 00	 call	 ?GetDescribeString@CMatchListControl@@AAEPBDPAUtagGameMatchOption@@G@Z ; CMatchListControl::GetDescribeString
  000dd	50		 push	 eax
  000de	6a 01		 push	 1
  000e0	0f b7 55 dc	 movzx	 edx, WORD PTR _i$3[ebp]
  000e4	52		 push	 edx
  000e5	8b 45 e0	 mov	 eax, DWORD PTR _nInsertItem$[ebp]
  000e8	50		 push	 eax
  000e9	8b 4d fc	 mov	 ecx, DWORD PTR _this$[ebp]
  000ec	e8 00 00 00 00	 call	 ?SetItem@CListCtrl@@QAEHHHIPBDHIIJ@Z ; CListCtrl::SetItem
$LN7@InsertMatc:

; 94   : 		}
; 95   : 	}

  000f1	e9 59 ff ff ff	 jmp	 $LN2@InsertMatc
$LN3@InsertMatc:

; 96   : 
; 97   : 	return true;

  000f6	b0 01		 mov	 al, 1
$LN1@InsertMatc:

; 98   : }

  000f8	5f		 pop	 edi
  000f9	5e		 pop	 esi
  000fa	5b		 pop	 ebx
  000fb	8b e5		 mov	 esp, ebp
  000fd	5d		 pop	 ebp
  000fe	c2 04 00	 ret	 4
?InsertMatchOption@CMatchListControl@@QAE_NPAUtagGameMatchOption@@@Z ENDP ; CMatchListControl::InsertMatchOption
_TEXT	ENDS
; Function compile flags: /Odtp /ZI
; File g:\网狐\happygamewh\服务端\系统模块\服务器组件\模块管理\matchlistcontrol.cpp
;	COMDAT ?GetListItemColor@CMatchListControl@@UAEXJIAAUtagListItemColor@@@Z
_TEXT	SEGMENT
tv78 = -72						; size = 4
tv74 = -72						; size = 4
_this$ = -4						; size = 4
_lItemParam$ = 8					; size = 4
_uItemStatus$ = 12					; size = 4
_ListItemColor$ = 16					; size = 4
?GetListItemColor@CMatchListControl@@UAEXJIAAUtagListItemColor@@@Z PROC ; CMatchListControl::GetListItemColor, COMDAT
; _this$ = ecx

; 54   : {

  00000	55		 push	 ebp
  00001	8b ec		 mov	 ebp, esp
  00003	83 ec 48	 sub	 esp, 72			; 00000048H
  00006	53		 push	 ebx
  00007	56		 push	 esi
  00008	57		 push	 edi
  00009	89 4d fc	 mov	 DWORD PTR _this$[ebp], ecx

; 55   : 	//变量定义
; 56   : 	ASSERT(lItemParam!=NULL);

  0000c	83 7d 08 00	 cmp	 DWORD PTR _lItemParam$[ebp], 0
  00010	75 18		 jne	 SHORT $LN3@GetListIte
  00012	a1 00 00 00 00	 mov	 eax, DWORD PTR ?__LINE__Var@?0??GetListItemColor@CMatchListControl@@UAEXJIAAUtagListItemColor@@@Z@4JA
  00017	83 c0 02	 add	 eax, 2
  0001a	50		 push	 eax
  0001b	68 00 00 00 00	 push	 OFFSET ??_C@_0EN@GFGADAAH@g?3?2?M?x?$LK?$PM?2happygamewh?2?$LH?$PO?N?q?$LG?K?2?O?$LF?M?$LD@
  00020	e8 00 00 00 00	 call	 ?AfxAssertFailedLine@@YGHPBDH@Z ; AfxAssertFailedLine
  00025	85 c0		 test	 eax, eax
  00027	74 01		 je	 SHORT $LN3@GetListIte
  00029	cc		 int	 3
$LN3@GetListIte:

; 57   : 
; 58   : 	//设置颜色
; 59   : 	ListItemColor.rcBackColor=(uItemStatus&ODS_SELECTED)?RGB(0,0,128):CR_NORMAL_BK;

  0002a	8b 45 0c	 mov	 eax, DWORD PTR _uItemStatus$[ebp]
  0002d	83 e0 01	 and	 eax, 1
  00030	74 09		 je	 SHORT $LN4@GetListIte
  00032	c7 45 b8 00 00
	80 00		 mov	 DWORD PTR tv74[ebp], 8388608 ; 00800000H
  00039	eb 07		 jmp	 SHORT $LN5@GetListIte
$LN4@GetListIte:
  0003b	c7 45 b8 ff ff
	ff 00		 mov	 DWORD PTR tv74[ebp], 16777215 ; 00ffffffH
$LN5@GetListIte:
  00042	8b 4d 10	 mov	 ecx, DWORD PTR _ListItemColor$[ebp]
  00045	8b 55 b8	 mov	 edx, DWORD PTR tv74[ebp]
  00048	89 51 04	 mov	 DWORD PTR [ecx+4], edx

; 60   : 	ListItemColor.rcTextColor=(uItemStatus&ODS_SELECTED)?RGB(255,255,255):RGB(0,0,0);

  0004b	8b 45 0c	 mov	 eax, DWORD PTR _uItemStatus$[ebp]
  0004e	83 e0 01	 and	 eax, 1
  00051	74 09		 je	 SHORT $LN6@GetListIte
  00053	c7 45 b8 ff ff
	ff 00		 mov	 DWORD PTR tv78[ebp], 16777215 ; 00ffffffH
  0005a	eb 07		 jmp	 SHORT $LN7@GetListIte
$LN6@GetListIte:
  0005c	c7 45 b8 00 00
	00 00		 mov	 DWORD PTR tv78[ebp], 0
$LN7@GetListIte:
  00063	8b 4d 10	 mov	 ecx, DWORD PTR _ListItemColor$[ebp]
  00066	8b 55 b8	 mov	 edx, DWORD PTR tv78[ebp]
  00069	89 11		 mov	 DWORD PTR [ecx], edx

; 61   : 
; 62   : 	return;
; 63   : }

  0006b	5f		 pop	 edi
  0006c	5e		 pop	 esi
  0006d	5b		 pop	 ebx
  0006e	8b e5		 mov	 esp, ebp
  00070	5d		 pop	 ebp
  00071	c2 0c 00	 ret	 12			; 0000000cH
?GetListItemColor@CMatchListControl@@UAEXJIAAUtagListItemColor@@@Z ENDP ; CMatchListControl::GetListItemColor
_TEXT	ENDS
; Function compile flags: /Odtp /ZI
; File g:\网狐\happygamewh\服务端\系统模块\服务器组件\模块管理\matchlistcontrol.cpp
;	COMDAT ?SortListItemData@CMatchListControl@@UAEHJJG@Z
_TEXT	SEGMENT
tv71 = -80						; size = 4
tv65 = -80						; size = 4
_pGameMatchOption2$ = -12				; size = 4
_pGameMatchOption1$ = -8				; size = 4
_this$ = -4						; size = 4
_lParam1$ = 8						; size = 4
_lParam2$ = 12						; size = 4
_wColumnIndex$ = 16					; size = 2
?SortListItemData@CMatchListControl@@UAEHJJG@Z PROC	; CMatchListControl::SortListItemData, COMDAT
; _this$ = ecx

; 31   : {

  00000	55		 push	 ebp
  00001	8b ec		 mov	 ebp, esp
  00003	83 ec 50	 sub	 esp, 80			; 00000050H
  00006	53		 push	 ebx
  00007	56		 push	 esi
  00008	57		 push	 edi
  00009	89 4d fc	 mov	 DWORD PTR _this$[ebp], ecx

; 32   : 	//变量定义
; 33   : 	tagGameMatchOption * pGameMatchOption1=(tagGameMatchOption *)lParam1;

  0000c	8b 45 08	 mov	 eax, DWORD PTR _lParam1$[ebp]
  0000f	89 45 f8	 mov	 DWORD PTR _pGameMatchOption1$[ebp], eax

; 34   : 	tagGameMatchOption * pGameMatchOption2=(tagGameMatchOption *)lParam2;

  00012	8b 45 0c	 mov	 eax, DWORD PTR _lParam2$[ebp]
  00015	89 45 f4	 mov	 DWORD PTR _pGameMatchOption2$[ebp], eax

; 35   : 
; 36   : 	//子项排序
; 37   : 	switch (wColumnIndex)

  00018	0f b7 45 10	 movzx	 eax, WORD PTR _wColumnIndex$[ebp]
  0001c	89 45 b0	 mov	 DWORD PTR tv65[ebp], eax
  0001f	83 7d b0 00	 cmp	 DWORD PTR tv65[ebp], 0
  00023	74 08		 je	 SHORT $LN4@SortListIt
  00025	83 7d b0 01	 cmp	 DWORD PTR tv65[ebp], 1
  00029	74 29		 je	 SHORT $LN5@SortListIt
  0002b	eb 3d		 jmp	 SHORT $LN2@SortListIt
$LN4@SortListIt:

; 38   : 	{
; 39   : 	case 0:		//比赛类型
; 40   : 		{
; 41   : 			return pGameMatchOption1->cbMatchType>pGameMatchOption2->cbMatchType?SORT_POSITION_AFTER:SORT_POSITION_FRONT;			

  0002d	8b 45 f8	 mov	 eax, DWORD PTR _pGameMatchOption1$[ebp]
  00030	0f b6 48 11	 movzx	 ecx, BYTE PTR [eax+17]
  00034	8b 55 f4	 mov	 edx, DWORD PTR _pGameMatchOption2$[ebp]
  00037	0f b6 42 11	 movzx	 eax, BYTE PTR [edx+17]
  0003b	3b c8		 cmp	 ecx, eax
  0003d	7e 09		 jle	 SHORT $LN7@SortListIt
  0003f	c7 45 b0 01 00
	00 00		 mov	 DWORD PTR tv71[ebp], 1
  00046	eb 07		 jmp	 SHORT $LN8@SortListIt
$LN7@SortListIt:
  00048	c7 45 b0 ff ff
	ff ff		 mov	 DWORD PTR tv71[ebp], -1
$LN8@SortListIt:
  0004f	8b 45 b0	 mov	 eax, DWORD PTR tv71[ebp]
  00052	eb 18		 jmp	 SHORT $LN1@SortListIt
$LN5@SortListIt:

; 42   : 		}
; 43   : 	case 1:		//比赛名称
; 44   : 		{
; 45   : 			return lstrcmp(pGameMatchOption1->szMatchName,pGameMatchOption2->szMatchName);

  00054	8b 45 f4	 mov	 eax, DWORD PTR _pGameMatchOption2$[ebp]
  00057	83 c0 12	 add	 eax, 18			; 00000012H
  0005a	50		 push	 eax
  0005b	8b 4d f8	 mov	 ecx, DWORD PTR _pGameMatchOption1$[ebp]
  0005e	83 c1 12	 add	 ecx, 18			; 00000012H
  00061	51		 push	 ecx
  00062	ff 15 00 00 00
	00		 call	 DWORD PTR __imp__lstrcmpA@8
  00068	eb 02		 jmp	 SHORT $LN1@SortListIt
$LN2@SortListIt:

; 46   : 		}	
; 47   : 	}
; 48   : 
; 49   : 	return 0;

  0006a	33 c0		 xor	 eax, eax
$LN1@SortListIt:

; 50   : }

  0006c	5f		 pop	 edi
  0006d	5e		 pop	 esi
  0006e	5b		 pop	 ebx
  0006f	8b e5		 mov	 esp, ebp
  00071	5d		 pop	 ebp
  00072	c2 0c 00	 ret	 12			; 0000000cH
?SortListItemData@CMatchListControl@@UAEHJJG@Z ENDP	; CMatchListControl::SortListItemData
_TEXT	ENDS
; Function compile flags: /Odtp /ZI
; File g:\网狐\happygamewh\服务端\系统模块\服务器组件\模块管理\matchlistcontrol.cpp
;	COMDAT ?InitListControl@CMatchListControl@@UAEXXZ
_TEXT	SEGMENT
tv87 = -76						; size = 4
tv75 = -76						; size = 4
_nColIndex$ = -8					; size = 4
_this$ = -4						; size = 4
?InitListControl@CMatchListControl@@UAEXXZ PROC		; CMatchListControl::InitListControl, COMDAT
; _this$ = ecx

; 18   : {

  00000	55		 push	 ebp
  00001	8b ec		 mov	 ebp, esp
  00003	83 ec 4c	 sub	 esp, 76			; 0000004cH
  00006	53		 push	 ebx
  00007	56		 push	 esi
  00008	57		 push	 edi
  00009	89 4d fc	 mov	 DWORD PTR _this$[ebp], ecx

; 19   : 	//变量定义
; 20   : 	INT nColIndex=0;

  0000c	c7 45 f8 00 00
	00 00		 mov	 DWORD PTR _nColIndex$[ebp], 0

; 21   : 
; 22   : 	//配置列表
; 23   : 	InsertColumn(nColIndex++,TEXT("比赛类型"),LVCFMT_CENTER,80);

  00013	8b 45 f8	 mov	 eax, DWORD PTR _nColIndex$[ebp]
  00016	89 45 b4	 mov	 DWORD PTR tv75[ebp], eax
  00019	6a ff		 push	 -1
  0001b	6a 50		 push	 80			; 00000050H
  0001d	6a 02		 push	 2
  0001f	68 00 00 00 00	 push	 OFFSET ??_C@_08LOLPFOFD@?$LB?H?H?$PM?$MA?$OA?P?M@
  00024	8b 4d b4	 mov	 ecx, DWORD PTR tv75[ebp]
  00027	51		 push	 ecx
  00028	8b 4d fc	 mov	 ecx, DWORD PTR _this$[ebp]
  0002b	e8 00 00 00 00	 call	 ?InsertColumn@CListCtrl@@QAEHHPBDHHH@Z ; CListCtrl::InsertColumn
  00030	8b 55 f8	 mov	 edx, DWORD PTR _nColIndex$[ebp]
  00033	83 c2 01	 add	 edx, 1
  00036	89 55 f8	 mov	 DWORD PTR _nColIndex$[ebp], edx

; 24   : 	InsertColumn(nColIndex++,TEXT("比赛名称"),LVCFMT_CENTER,200);

  00039	8b 45 f8	 mov	 eax, DWORD PTR _nColIndex$[ebp]
  0003c	89 45 b4	 mov	 DWORD PTR tv87[ebp], eax
  0003f	6a ff		 push	 -1
  00041	68 c8 00 00 00	 push	 200			; 000000c8H
  00046	6a 02		 push	 2
  00048	68 00 00 00 00	 push	 OFFSET ??_C@_08NHGCFIKP@?$LB?H?H?$PM?C?$PL?$LD?F@
  0004d	8b 4d b4	 mov	 ecx, DWORD PTR tv87[ebp]
  00050	51		 push	 ecx
  00051	8b 4d fc	 mov	 ecx, DWORD PTR _this$[ebp]
  00054	e8 00 00 00 00	 call	 ?InsertColumn@CListCtrl@@QAEHHPBDHHH@Z ; CListCtrl::InsertColumn
  00059	8b 55 f8	 mov	 edx, DWORD PTR _nColIndex$[ebp]
  0005c	83 c2 01	 add	 edx, 1
  0005f	89 55 f8	 mov	 DWORD PTR _nColIndex$[ebp], edx

; 25   : 
; 26   : 	return;
; 27   : }

  00062	5f		 pop	 edi
  00063	5e		 pop	 esi
  00064	5b		 pop	 ebx
  00065	8b e5		 mov	 esp, ebp
  00067	5d		 pop	 ebp
  00068	c3		 ret	 0
?InitListControl@CMatchListControl@@UAEXXZ ENDP		; CMatchListControl::InitListControl
_TEXT	ENDS
; Function compile flags: /Odtp /ZI
; File g:\网狐\happygamewh\服务端\系统模块\服务器组件\模块管理\matchlistcontrol.cpp
;	COMDAT ??1CMatchListControl@@UAE@XZ
_TEXT	SEGMENT
_this$ = -4						; size = 4
??1CMatchListControl@@UAE@XZ PROC			; CMatchListControl::~CMatchListControl, COMDAT
; _this$ = ecx

; 13   : {

  00000	55		 push	 ebp
  00001	8b ec		 mov	 ebp, esp
  00003	83 ec 44	 sub	 esp, 68			; 00000044H
  00006	53		 push	 ebx
  00007	56		 push	 esi
  00008	57		 push	 edi
  00009	89 4d fc	 mov	 DWORD PTR _this$[ebp], ecx
  0000c	8b 45 fc	 mov	 eax, DWORD PTR _this$[ebp]
  0000f	c7 00 00 00 00
	00		 mov	 DWORD PTR [eax], OFFSET ??_7CMatchListControl@@6B@

; 14   : }

  00015	8b 4d fc	 mov	 ecx, DWORD PTR _this$[ebp]
  00018	e8 00 00 00 00	 call	 ??1CListControl@@UAE@XZ	; CListControl::~CListControl
  0001d	5f		 pop	 edi
  0001e	5e		 pop	 esi
  0001f	5b		 pop	 ebx
  00020	8b e5		 mov	 esp, ebp
  00022	5d		 pop	 ebp
  00023	c3		 ret	 0
??1CMatchListControl@@UAE@XZ ENDP			; CMatchListControl::~CMatchListControl
_TEXT	ENDS
; Function compile flags: /Odtp /ZI
; File g:\网狐\happygamewh\服务端\系统模块\服务器组件\模块管理\matchlistcontrol.cpp
;	COMDAT ??0CMatchListControl@@QAE@XZ
_TEXT	SEGMENT
_this$ = -4						; size = 4
??0CMatchListControl@@QAE@XZ PROC			; CMatchListControl::CMatchListControl, COMDAT
; _this$ = ecx

; 8    : {

  00000	55		 push	 ebp
  00001	8b ec		 mov	 ebp, esp
  00003	83 ec 44	 sub	 esp, 68			; 00000044H
  00006	53		 push	 ebx
  00007	56		 push	 esi
  00008	57		 push	 edi
  00009	89 4d fc	 mov	 DWORD PTR _this$[ebp], ecx
  0000c	8b 4d fc	 mov	 ecx, DWORD PTR _this$[ebp]
  0000f	e8 00 00 00 00	 call	 ??0CListControl@@QAE@XZ	; CListControl::CListControl
  00014	8b 45 fc	 mov	 eax, DWORD PTR _this$[ebp]
  00017	c7 00 00 00 00
	00		 mov	 DWORD PTR [eax], OFFSET ??_7CMatchListControl@@6B@

; 9    : }

  0001d	8b 45 fc	 mov	 eax, DWORD PTR _this$[ebp]
  00020	5f		 pop	 edi
  00021	5e		 pop	 esi
  00022	5b		 pop	 ebx
  00023	8b e5		 mov	 esp, ebp
  00025	5d		 pop	 ebp
  00026	c3		 ret	 0
??0CMatchListControl@@QAE@XZ ENDP			; CMatchListControl::CMatchListControl
_TEXT	ENDS
; Function compile flags: /Odtp /ZI
; File c:\program files (x86)\microsoft visual studio\2017\community\vc\tools\msvc\14.16.27023\include\xloctime
;	COMDAT ??$_Getvals@_W@?$time_get@_WV?$istreambuf_iterator@_WU?$char_traits@_W@std@@@std@@@std@@IAEX_WABV_Locinfo@1@@Z
_TEXT	SEGMENT
$T1 = -116						; size = 44
_this$ = -8						; size = 4
__$ArrayPad$ = -4					; size = 4
___formal$ = 8						; size = 2
__Lobj$ = 12						; size = 4
??$_Getvals@_W@?$time_get@_WV?$istreambuf_iterator@_WU?$char_traits@_W@std@@@std@@@std@@IAEX_WABV_Locinfo@1@@Z PROC ; std::time_get<wchar_t,std::istreambuf_iterator<wchar_t,std::char_traits<wchar_t> > >::_Getvals<wchar_t>, COMDAT
; _this$ = ecx

; 216  : 		{	// get values

  00000	55		 push	 ebp
  00001	8b ec		 mov	 ebp, esp
  00003	83 ec 74	 sub	 esp, 116		; 00000074H
  00006	a1 00 00 00 00	 mov	 eax, DWORD PTR ___security_cookie
  0000b	33 c5		 xor	 eax, ebp
  0000d	89 45 fc	 mov	 DWORD PTR __$ArrayPad$[ebp], eax
  00010	53		 push	 ebx
  00011	56		 push	 esi
  00012	57		 push	 edi
  00013	89 4d f8	 mov	 DWORD PTR _this$[ebp], ecx

; 217  : 		_Cvt = _Lobj._Getcvt();

  00016	8d 45 8c	 lea	 eax, DWORD PTR $T1[ebp]
  00019	50		 push	 eax
  0001a	8b 4d 0c	 mov	 ecx, DWORD PTR __Lobj$[ebp]
  0001d	ff 15 00 00 00
	00		 call	 DWORD PTR __imp_?_Getcvt@_Locinfo@std@@QBE?AU_Cvtvec@@XZ
  00023	8b 7d f8	 mov	 edi, DWORD PTR _this$[ebp]
  00026	83 c7 18	 add	 edi, 24			; 00000018H
  00029	b9 0b 00 00 00	 mov	 ecx, 11			; 0000000bH
  0002e	8b f0		 mov	 esi, eax
  00030	f3 a5		 rep movsd

; 218  : 
; 219  : 		if (is_same_v<_Elem2, wchar_t>)

  00032	b8 01 00 00 00	 mov	 eax, 1
  00037	85 c0		 test	 eax, eax
  00039	74 45		 je	 SHORT $LN2@Getvals

; 220  : 			{
; 221  : 			_Days = (const _Elem *)_Maklocwcs((const wchar_t *)_Lobj._W_Getdays());

  0003b	8b 4d 0c	 mov	 ecx, DWORD PTR __Lobj$[ebp]
  0003e	ff 15 00 00 00
	00		 call	 DWORD PTR __imp_?_W_Getdays@_Locinfo@std@@QBEPBGXZ
  00044	50		 push	 eax
  00045	e8 00 00 00 00	 call	 ?_Maklocwcs@std@@YAPA_WPB_W@Z ; std::_Maklocwcs
  0004a	83 c4 04	 add	 esp, 4
  0004d	8b 4d f8	 mov	 ecx, DWORD PTR _this$[ebp]
  00050	89 41 08	 mov	 DWORD PTR [ecx+8], eax

; 222  : 			_Months = (const _Elem *)_Maklocwcs((const wchar_t *)_Lobj._W_Getmonths());

  00053	8b 4d 0c	 mov	 ecx, DWORD PTR __Lobj$[ebp]
  00056	ff 15 00 00 00
	00		 call	 DWORD PTR __imp_?_W_Getmonths@_Locinfo@std@@QBEPBGXZ
  0005c	50		 push	 eax
  0005d	e8 00 00 00 00	 call	 ?_Maklocwcs@std@@YAPA_WPB_W@Z ; std::_Maklocwcs
  00062	83 c4 04	 add	 esp, 4
  00065	8b 4d f8	 mov	 ecx, DWORD PTR _this$[ebp]
  00068	89 41 0c	 mov	 DWORD PTR [ecx+12], eax

; 223  : 			_Ampm = (const _Elem *)_Maklocwcs(L":AM:am:PM:pm");

  0006b	68 00 00 00 00	 push	 OFFSET ??_C@_1BK@MHIKGOKE@?$AA?3?$AAA?$AAM?$AA?3?$AAa?$AAm?$AA?3?$AAP?$AAM?$AA?3?$AAp?$AAm@
  00070	e8 00 00 00 00	 call	 ?_Maklocwcs@std@@YAPA_WPB_W@Z ; std::_Maklocwcs
  00075	83 c4 04	 add	 esp, 4
  00078	8b 4d f8	 mov	 ecx, DWORD PTR _this$[ebp]
  0007b	89 41 10	 mov	 DWORD PTR [ecx+16], eax

; 224  : 			}
; 225  : 		else

  0007e	eb 5e		 jmp	 SHORT $LN1@Getvals
$LN2@Getvals:

; 226  : 			{
; 227  : 			_Days = _Maklocstr(_Lobj._Getdays(), static_cast<_Elem *>(nullptr), _Cvt);

  00080	8b 45 f8	 mov	 eax, DWORD PTR _this$[ebp]
  00083	83 c0 18	 add	 eax, 24			; 00000018H
  00086	50		 push	 eax
  00087	6a 00		 push	 0
  00089	8b 4d 0c	 mov	 ecx, DWORD PTR __Lobj$[ebp]
  0008c	ff 15 00 00 00
	00		 call	 DWORD PTR __imp_?_Getdays@_Locinfo@std@@QBEPBDXZ
  00092	50		 push	 eax
  00093	e8 00 00 00 00	 call	 ??$_Maklocstr@_W@std@@YAPA_WPBDPA_WABU_Cvtvec@@@Z ; std::_Maklocstr<wchar_t>
  00098	83 c4 0c	 add	 esp, 12			; 0000000cH
  0009b	8b 4d f8	 mov	 ecx, DWORD PTR _this$[ebp]
  0009e	89 41 08	 mov	 DWORD PTR [ecx+8], eax

; 228  : 			_Months = _Maklocstr(_Lobj._Getmonths(), static_cast<_Elem *>(nullptr), _Cvt);

  000a1	8b 45 f8	 mov	 eax, DWORD PTR _this$[ebp]
  000a4	83 c0 18	 add	 eax, 24			; 00000018H
  000a7	50		 push	 eax
  000a8	6a 00		 push	 0
  000aa	8b 4d 0c	 mov	 ecx, DWORD PTR __Lobj$[ebp]
  000ad	ff 15 00 00 00
	00		 call	 DWORD PTR __imp_?_Getmonths@_Locinfo@std@@QBEPBDXZ
  000b3	50		 push	 eax
  000b4	e8 00 00 00 00	 call	 ??$_Maklocstr@_W@std@@YAPA_WPBDPA_WABU_Cvtvec@@@Z ; std::_Maklocstr<wchar_t>
  000b9	83 c4 0c	 add	 esp, 12			; 0000000cH
  000bc	8b 4d f8	 mov	 ecx, DWORD PTR _this$[ebp]
  000bf	89 41 0c	 mov	 DWORD PTR [ecx+12], eax

; 229  : 			_Ampm = _Maklocstr(":AM:am:PM:pm", static_cast<_Elem *>(nullptr), _Cvt);

  000c2	8b 45 f8	 mov	 eax, DWORD PTR _this$[ebp]
  000c5	83 c0 18	 add	 eax, 24			; 00000018H
  000c8	50		 push	 eax
  000c9	6a 00		 push	 0
  000cb	68 00 00 00 00	 push	 OFFSET ??_C@_0N@LPFKKEBD@?3AM?3am?3PM?3pm@
  000d0	e8 00 00 00 00	 call	 ??$_Maklocstr@_W@std@@YAPA_WPBDPA_WABU_Cvtvec@@@Z ; std::_Maklocstr<wchar_t>
  000d5	83 c4 0c	 add	 esp, 12			; 0000000cH
  000d8	8b 4d f8	 mov	 ecx, DWORD PTR _this$[ebp]
  000db	89 41 10	 mov	 DWORD PTR [ecx+16], eax
$LN1@Getvals:

; 230  : 			}
; 231  : 		}

  000de	5f		 pop	 edi
  000df	5e		 pop	 esi
  000e0	5b		 pop	 ebx
  000e1	8b 4d fc	 mov	 ecx, DWORD PTR __$ArrayPad$[ebp]
  000e4	33 cd		 xor	 ecx, ebp
  000e6	e8 00 00 00 00	 call	 @__security_check_cookie@4
  000eb	8b e5		 mov	 esp, ebp
  000ed	5d		 pop	 ebp
  000ee	c2 08 00	 ret	 8
??$_Getvals@_W@?$time_get@_WV?$istreambuf_iterator@_WU?$char_traits@_W@std@@@std@@@std@@IAEX_WABV_Locinfo@1@@Z ENDP ; std::time_get<wchar_t,std::istreambuf_iterator<wchar_t,std::char_traits<wchar_t> > >::_Getvals<wchar_t>
_TEXT	ENDS
; Function compile flags: /Odtp /ZI
; File c:\program files (x86)\microsoft visual studio\2017\community\vc\tools\msvc\14.16.27023\include\xloctime
;	COMDAT ??$_Getvals@_W@?$time_get@DV?$istreambuf_iterator@DU?$char_traits@D@std@@@std@@@std@@IAEX_WABV_Locinfo@1@@Z
_TEXT	SEGMENT
$T1 = -116						; size = 44
_this$ = -8						; size = 4
__$ArrayPad$ = -4					; size = 4
___formal$ = 8						; size = 2
__Lobj$ = 12						; size = 4
??$_Getvals@_W@?$time_get@DV?$istreambuf_iterator@DU?$char_traits@D@std@@@std@@@std@@IAEX_WABV_Locinfo@1@@Z PROC ; std::time_get<char,std::istreambuf_iterator<char,std::char_traits<char> > >::_Getvals<wchar_t>, COMDAT
; _this$ = ecx

; 216  : 		{	// get values

  00000	55		 push	 ebp
  00001	8b ec		 mov	 ebp, esp
  00003	83 ec 74	 sub	 esp, 116		; 00000074H
  00006	a1 00 00 00 00	 mov	 eax, DWORD PTR ___security_cookie
  0000b	33 c5		 xor	 eax, ebp
  0000d	89 45 fc	 mov	 DWORD PTR __$ArrayPad$[ebp], eax
  00010	53		 push	 ebx
  00011	56		 push	 esi
  00012	57		 push	 edi
  00013	89 4d f8	 mov	 DWORD PTR _this$[ebp], ecx

; 217  : 		_Cvt = _Lobj._Getcvt();

  00016	8d 45 8c	 lea	 eax, DWORD PTR $T1[ebp]
  00019	50		 push	 eax
  0001a	8b 4d 0c	 mov	 ecx, DWORD PTR __Lobj$[ebp]
  0001d	ff 15 00 00 00
	00		 call	 DWORD PTR __imp_?_Getcvt@_Locinfo@std@@QBE?AU_Cvtvec@@XZ
  00023	8b 7d f8	 mov	 edi, DWORD PTR _this$[ebp]
  00026	83 c7 18	 add	 edi, 24			; 00000018H
  00029	b9 0b 00 00 00	 mov	 ecx, 11			; 0000000bH
  0002e	8b f0		 mov	 esi, eax
  00030	f3 a5		 rep movsd

; 218  : 
; 219  : 		if (is_same_v<_Elem2, wchar_t>)

  00032	b8 01 00 00 00	 mov	 eax, 1
  00037	85 c0		 test	 eax, eax
  00039	74 45		 je	 SHORT $LN2@Getvals

; 220  : 			{
; 221  : 			_Days = (const _Elem *)_Maklocwcs((const wchar_t *)_Lobj._W_Getdays());

  0003b	8b 4d 0c	 mov	 ecx, DWORD PTR __Lobj$[ebp]
  0003e	ff 15 00 00 00
	00		 call	 DWORD PTR __imp_?_W_Getdays@_Locinfo@std@@QBEPBGXZ
  00044	50		 push	 eax
  00045	e8 00 00 00 00	 call	 ?_Maklocwcs@std@@YAPA_WPB_W@Z ; std::_Maklocwcs
  0004a	83 c4 04	 add	 esp, 4
  0004d	8b 4d f8	 mov	 ecx, DWORD PTR _this$[ebp]
  00050	89 41 08	 mov	 DWORD PTR [ecx+8], eax

; 222  : 			_Months = (const _Elem *)_Maklocwcs((const wchar_t *)_Lobj._W_Getmonths());

  00053	8b 4d 0c	 mov	 ecx, DWORD PTR __Lobj$[ebp]
  00056	ff 15 00 00 00
	00		 call	 DWORD PTR __imp_?_W_Getmonths@_Locinfo@std@@QBEPBGXZ
  0005c	50		 push	 eax
  0005d	e8 00 00 00 00	 call	 ?_Maklocwcs@std@@YAPA_WPB_W@Z ; std::_Maklocwcs
  00062	83 c4 04	 add	 esp, 4
  00065	8b 4d f8	 mov	 ecx, DWORD PTR _this$[ebp]
  00068	89 41 0c	 mov	 DWORD PTR [ecx+12], eax

; 223  : 			_Ampm = (const _Elem *)_Maklocwcs(L":AM:am:PM:pm");

  0006b	68 00 00 00 00	 push	 OFFSET ??_C@_1BK@MHIKGOKE@?$AA?3?$AAA?$AAM?$AA?3?$AAa?$AAm?$AA?3?$AAP?$AAM?$AA?3?$AAp?$AAm@
  00070	e8 00 00 00 00	 call	 ?_Maklocwcs@std@@YAPA_WPB_W@Z ; std::_Maklocwcs
  00075	83 c4 04	 add	 esp, 4
  00078	8b 4d f8	 mov	 ecx, DWORD PTR _this$[ebp]
  0007b	89 41 10	 mov	 DWORD PTR [ecx+16], eax

; 224  : 			}
; 225  : 		else

  0007e	eb 5e		 jmp	 SHORT $LN1@Getvals
$LN2@Getvals:

; 226  : 			{
; 227  : 			_Days = _Maklocstr(_Lobj._Getdays(), static_cast<_Elem *>(nullptr), _Cvt);

  00080	8b 45 f8	 mov	 eax, DWORD PTR _this$[ebp]
  00083	83 c0 18	 add	 eax, 24			; 00000018H
  00086	50		 push	 eax
  00087	6a 00		 push	 0
  00089	8b 4d 0c	 mov	 ecx, DWORD PTR __Lobj$[ebp]
  0008c	ff 15 00 00 00
	00		 call	 DWORD PTR __imp_?_Getdays@_Locinfo@std@@QBEPBDXZ
  00092	50		 push	 eax
  00093	e8 00 00 00 00	 call	 ??$_Maklocstr@D@std@@YAPADPBDPADABU_Cvtvec@@@Z ; std::_Maklocstr<char>
  00098	83 c4 0c	 add	 esp, 12			; 0000000cH
  0009b	8b 4d f8	 mov	 ecx, DWORD PTR _this$[ebp]
  0009e	89 41 08	 mov	 DWORD PTR [ecx+8], eax

; 228  : 			_Months = _Maklocstr(_Lobj._Getmonths(), static_cast<_Elem *>(nullptr), _Cvt);

  000a1	8b 45 f8	 mov	 eax, DWORD PTR _this$[ebp]
  000a4	83 c0 18	 add	 eax, 24			; 00000018H
  000a7	50		 push	 eax
  000a8	6a 00		 push	 0
  000aa	8b 4d 0c	 mov	 ecx, DWORD PTR __Lobj$[ebp]
  000ad	ff 15 00 00 00
	00		 call	 DWORD PTR __imp_?_Getmonths@_Locinfo@std@@QBEPBDXZ
  000b3	50		 push	 eax
  000b4	e8 00 00 00 00	 call	 ??$_Maklocstr@D@std@@YAPADPBDPADABU_Cvtvec@@@Z ; std::_Maklocstr<char>
  000b9	83 c4 0c	 add	 esp, 12			; 0000000cH
  000bc	8b 4d f8	 mov	 ecx, DWORD PTR _this$[ebp]
  000bf	89 41 0c	 mov	 DWORD PTR [ecx+12], eax

; 229  : 			_Ampm = _Maklocstr(":AM:am:PM:pm", static_cast<_Elem *>(nullptr), _Cvt);

  000c2	8b 45 f8	 mov	 eax, DWORD PTR _this$[ebp]
  000c5	83 c0 18	 add	 eax, 24			; 00000018H
  000c8	50		 push	 eax
  000c9	6a 00		 push	 0
  000cb	68 00 00 00 00	 push	 OFFSET ??_C@_0N@LPFKKEBD@?3AM?3am?3PM?3pm@
  000d0	e8 00 00 00 00	 call	 ??$_Maklocstr@D@std@@YAPADPBDPADABU_Cvtvec@@@Z ; std::_Maklocstr<char>
  000d5	83 c4 0c	 add	 esp, 12			; 0000000cH
  000d8	8b 4d f8	 mov	 ecx, DWORD PTR _this$[ebp]
  000db	89 41 10	 mov	 DWORD PTR [ecx+16], eax
$LN1@Getvals:

; 230  : 			}
; 231  : 		}

  000de	5f		 pop	 edi
  000df	5e		 pop	 esi
  000e0	5b		 pop	 ebx
  000e1	8b 4d fc	 mov	 ecx, DWORD PTR __$ArrayPad$[ebp]
  000e4	33 cd		 xor	 ecx, ebp
  000e6	e8 00 00 00 00	 call	 @__security_check_cookie@4
  000eb	8b e5		 mov	 esp, ebp
  000ed	5d		 pop	 ebp
  000ee	c2 08 00	 ret	 8
??$_Getvals@_W@?$time_get@DV?$istreambuf_iterator@DU?$char_traits@D@std@@@std@@@std@@IAEX_WABV_Locinfo@1@@Z ENDP ; std::time_get<char,std::istreambuf_iterator<char,std::char_traits<char> > >::_Getvals<wchar_t>
_TEXT	ENDS
; Function compile flags: /Odtp /ZI
; File c:\program files (x86)\microsoft visual studio\2017\community\vc\tools\msvc\14.16.27023\include\xlocnum
;	COMDAT ?_Maklocwcs@std@@YAPA_WPB_W@Z
_TEXT	SEGMENT
__Ptrdest$ = -8						; size = 4
__Count$ = -4						; size = 4
__Ptr$ = 8						; size = 4
?_Maklocwcs@std@@YAPA_WPB_W@Z PROC			; std::_Maklocwcs, COMDAT

; 97   : 	{	// copy NTWCS to allocated storage

  00000	55		 push	 ebp
  00001	8b ec		 mov	 ebp, esp
  00003	83 ec 48	 sub	 esp, 72			; 00000048H
  00006	53		 push	 ebx
  00007	56		 push	 esi
  00008	57		 push	 edi

; 98   : 	const size_t _Count = _CSTD wcslen(_Ptr) + 1;

  00009	8b 45 08	 mov	 eax, DWORD PTR __Ptr$[ebp]
  0000c	50		 push	 eax
  0000d	ff 15 00 00 00
	00		 call	 DWORD PTR __imp__wcslen
  00013	83 c4 04	 add	 esp, 4
  00016	83 c0 01	 add	 eax, 1
  00019	89 45 fc	 mov	 DWORD PTR __Count$[ebp], eax

; 99   : 
; 100  : 	wchar_t *_Ptrdest = (wchar_t *)_calloc_dbg(_Count, sizeof (wchar_t),

  0001c	a1 00 00 00 00	 mov	 eax, DWORD PTR ?__LINE__Var@?0??_Maklocwcs@std@@YAPA_WPB_W@Z@4JA
  00021	83 c0 04	 add	 eax, 4
  00024	50		 push	 eax
  00025	68 00 00 00 00	 push	 OFFSET ??_C@_0GI@DJFLDKBN@c?3?2program?5files?5?$CIx86?$CJ?2microsof@
  0002a	6a 02		 push	 2
  0002c	6a 02		 push	 2
  0002e	8b 4d fc	 mov	 ecx, DWORD PTR __Count$[ebp]
  00031	51		 push	 ecx
  00032	ff 15 00 00 00
	00		 call	 DWORD PTR __imp___calloc_dbg
  00038	83 c4 14	 add	 esp, 20			; 00000014H
  0003b	89 45 f8	 mov	 DWORD PTR __Ptrdest$[ebp], eax

; 101  : 		_CRT_BLOCK, __FILE__, __LINE__);
; 102  : 
; 103  : 	if (!_Ptrdest)

  0003e	83 7d f8 00	 cmp	 DWORD PTR __Ptrdest$[ebp], 0
  00042	75 05		 jne	 SHORT $LN2@Maklocwcs

; 104  : 		_Xbad_alloc();

  00044	e8 00 00 00 00	 call	 ?_Xbad_alloc@std@@YAXXZ	; std::_Xbad_alloc
$LN2@Maklocwcs:

; 105  : 	_CSTD wmemcpy(_Ptrdest, _Ptr, _Count);

  00049	8b 45 fc	 mov	 eax, DWORD PTR __Count$[ebp]
  0004c	50		 push	 eax
  0004d	8b 4d 08	 mov	 ecx, DWORD PTR __Ptr$[ebp]
  00050	51		 push	 ecx
  00051	8b 55 f8	 mov	 edx, DWORD PTR __Ptrdest$[ebp]
  00054	52		 push	 edx
  00055	e8 00 00 00 00	 call	 _wmemcpy
  0005a	83 c4 0c	 add	 esp, 12			; 0000000cH

; 106  : 	return (_Ptrdest);

  0005d	8b 45 f8	 mov	 eax, DWORD PTR __Ptrdest$[ebp]
$LN3@Maklocwcs:

; 107  : 	}

  00060	5f		 pop	 edi
  00061	5e		 pop	 esi
  00062	5b		 pop	 ebx
  00063	8b e5		 mov	 esp, ebp
  00065	5d		 pop	 ebp
  00066	c3		 ret	 0
?_Maklocwcs@std@@YAPA_WPB_W@Z ENDP			; std::_Maklocwcs
_TEXT	ENDS
; Function compile flags: /Odtp /ZI
; File c:\program files (x86)\microsoft visual studio\2017\community\vc\tools\msvc\14.16.27023\include\xlocale
;	COMDAT ??$_Maklocstr@_W@std@@YAPA_WPBDPA_WABU_Cvtvec@@@Z
_TEXT	SEGMENT
__Mbst2$ = -48						; size = 8
__Ptrnext$ = -40					; size = 4
__Ptrdest$ = -36					; size = 4
__Mbst1$ = -32						; size = 8
__Wc$ = -24						; size = 2
__Bytes$ = -20						; size = 4
__Ptr1$ = -16						; size = 4
__Wchars$ = -12						; size = 4
__Count1$ = -8						; size = 4
__Count$ = -4						; size = 4
__Ptr$ = 8						; size = 4
___formal$ = 12						; size = 4
__Cvt$ = 16						; size = 4
??$_Maklocstr@_W@std@@YAPA_WPBDPA_WABU_Cvtvec@@@Z PROC	; std::_Maklocstr<wchar_t>, COMDAT

; 682  : 	{	// convert C string to wchar_t sequence using _Cvtvec

  00000	55		 push	 ebp
  00001	8b ec		 mov	 ebp, esp
  00003	83 ec 70	 sub	 esp, 112		; 00000070H
  00006	53		 push	 ebx
  00007	56		 push	 esi
  00008	57		 push	 edi

; 683  : 	size_t _Count, _Count1;
; 684  : 	size_t _Wchars;
; 685  : 	const char *_Ptr1;
; 686  : 	int _Bytes;
; 687  : 	wchar_t _Wc;
; 688  : 	mbstate_t _Mbst1 = {};

  00009	33 c0		 xor	 eax, eax
  0000b	89 45 e0	 mov	 DWORD PTR __Mbst1$[ebp], eax
  0000e	89 45 e4	 mov	 DWORD PTR __Mbst1$[ebp+4], eax

; 689  : 
; 690  : 	_Count1 = _CSTD strlen(_Ptr) + 1;

  00011	8b 45 08	 mov	 eax, DWORD PTR __Ptr$[ebp]
  00014	50		 push	 eax
  00015	e8 00 00 00 00	 call	 _strlen
  0001a	83 c4 04	 add	 esp, 4
  0001d	83 c0 01	 add	 eax, 1
  00020	89 45 f8	 mov	 DWORD PTR __Count1$[ebp], eax

; 691  : 	for (_Count = _Count1, _Wchars = 0, _Ptr1 = _Ptr; 0 < _Count;

  00023	8b 45 f8	 mov	 eax, DWORD PTR __Count1$[ebp]
  00026	89 45 fc	 mov	 DWORD PTR __Count$[ebp], eax
  00029	c7 45 f4 00 00
	00 00		 mov	 DWORD PTR __Wchars$[ebp], 0
  00030	8b 4d 08	 mov	 ecx, DWORD PTR __Ptr$[ebp]
  00033	89 4d f0	 mov	 DWORD PTR __Ptr1$[ebp], ecx
  00036	eb 1b		 jmp	 SHORT $LN4@Maklocstr
$LN2@Maklocstr:

; 692  : 		_Count -= _Bytes, _Ptr1 += _Bytes, ++_Wchars)

  00038	8b 45 fc	 mov	 eax, DWORD PTR __Count$[ebp]
  0003b	2b 45 ec	 sub	 eax, DWORD PTR __Bytes$[ebp]
  0003e	89 45 fc	 mov	 DWORD PTR __Count$[ebp], eax
  00041	8b 4d f0	 mov	 ecx, DWORD PTR __Ptr1$[ebp]
  00044	03 4d ec	 add	 ecx, DWORD PTR __Bytes$[ebp]
  00047	89 4d f0	 mov	 DWORD PTR __Ptr1$[ebp], ecx
  0004a	8b 55 f4	 mov	 edx, DWORD PTR __Wchars$[ebp]
  0004d	83 c2 01	 add	 edx, 1
  00050	89 55 f4	 mov	 DWORD PTR __Wchars$[ebp], edx
$LN4@Maklocstr:

; 691  : 	for (_Count = _Count1, _Wchars = 0, _Ptr1 = _Ptr; 0 < _Count;

  00053	83 7d fc 00	 cmp	 DWORD PTR __Count$[ebp], 0
  00057	76 29		 jbe	 SHORT $LN3@Maklocstr

; 693  : 		if ((_Bytes = _Mbrtowc(&_Wc, _Ptr1, _Count, &_Mbst1, &_Cvt)) <= 0)

  00059	8b 45 10	 mov	 eax, DWORD PTR __Cvt$[ebp]
  0005c	50		 push	 eax
  0005d	8d 4d e0	 lea	 ecx, DWORD PTR __Mbst1$[ebp]
  00060	51		 push	 ecx
  00061	8b 55 fc	 mov	 edx, DWORD PTR __Count$[ebp]
  00064	52		 push	 edx
  00065	8b 45 f0	 mov	 eax, DWORD PTR __Ptr1$[ebp]
  00068	50		 push	 eax
  00069	8d 4d e8	 lea	 ecx, DWORD PTR __Wc$[ebp]
  0006c	51		 push	 ecx
  0006d	e8 00 00 00 00	 call	 __Mbrtowc
  00072	83 c4 14	 add	 esp, 20			; 00000014H
  00075	89 45 ec	 mov	 DWORD PTR __Bytes$[ebp], eax
  00078	83 7d ec 00	 cmp	 DWORD PTR __Bytes$[ebp], 0
  0007c	7f 02		 jg	 SHORT $LN8@Maklocstr

; 694  : 			break;

  0007e	eb 02		 jmp	 SHORT $LN3@Maklocstr
$LN8@Maklocstr:

; 695  : 	++_Wchars;	// count terminating nul

  00080	eb b6		 jmp	 SHORT $LN2@Maklocstr
$LN3@Maklocstr:
  00082	8b 45 f4	 mov	 eax, DWORD PTR __Wchars$[ebp]
  00085	83 c0 01	 add	 eax, 1
  00088	89 45 f4	 mov	 DWORD PTR __Wchars$[ebp], eax

; 696  : 
; 697  : 	wchar_t *_Ptrdest = (wchar_t *)_calloc_dbg(_Wchars, sizeof (wchar_t),

  0008b	68 ba 02 00 00	 push	 698			; 000002baH
  00090	68 00 00 00 00	 push	 OFFSET ??_C@_0GI@LKBGDILM@c?3?2program?5files?5?$CIx86?$CJ?2microsof@
  00095	6a 02		 push	 2
  00097	6a 02		 push	 2
  00099	8b 45 f4	 mov	 eax, DWORD PTR __Wchars$[ebp]
  0009c	50		 push	 eax
  0009d	ff 15 00 00 00
	00		 call	 DWORD PTR __imp___calloc_dbg
  000a3	83 c4 14	 add	 esp, 20			; 00000014H
  000a6	89 45 dc	 mov	 DWORD PTR __Ptrdest$[ebp], eax

; 698  : 		_CRT_BLOCK, __FILE__, __LINE__);
; 699  : 
; 700  : 	if (!_Ptrdest)

  000a9	83 7d dc 00	 cmp	 DWORD PTR __Ptrdest$[ebp], 0
  000ad	75 05		 jne	 SHORT $LN9@Maklocstr

; 701  : 		_Xbad_alloc();

  000af	e8 00 00 00 00	 call	 ?_Xbad_alloc@std@@YAXXZ	; std::_Xbad_alloc
$LN9@Maklocstr:

; 702  : 	wchar_t *_Ptrnext = _Ptrdest;

  000b4	8b 45 dc	 mov	 eax, DWORD PTR __Ptrdest$[ebp]
  000b7	89 45 d8	 mov	 DWORD PTR __Ptrnext$[ebp], eax

; 703  : 	mbstate_t _Mbst2 = {};

  000ba	33 c0		 xor	 eax, eax
  000bc	89 45 d0	 mov	 DWORD PTR __Mbst2$[ebp], eax
  000bf	89 45 d4	 mov	 DWORD PTR __Mbst2$[ebp+4], eax

; 704  : 
; 705  : 	for (; 0 < _Wchars;

  000c2	eb 24		 jmp	 SHORT $LN7@Maklocstr
$LN5@Maklocstr:

; 706  : 		_Count -= _Bytes, _Ptr += _Bytes, --_Wchars, ++_Ptrnext)

  000c4	8b 45 fc	 mov	 eax, DWORD PTR __Count$[ebp]
  000c7	2b 45 ec	 sub	 eax, DWORD PTR __Bytes$[ebp]
  000ca	89 45 fc	 mov	 DWORD PTR __Count$[ebp], eax
  000cd	8b 4d 08	 mov	 ecx, DWORD PTR __Ptr$[ebp]
  000d0	03 4d ec	 add	 ecx, DWORD PTR __Bytes$[ebp]
  000d3	89 4d 08	 mov	 DWORD PTR __Ptr$[ebp], ecx
  000d6	8b 55 f4	 mov	 edx, DWORD PTR __Wchars$[ebp]
  000d9	83 ea 01	 sub	 edx, 1
  000dc	89 55 f4	 mov	 DWORD PTR __Wchars$[ebp], edx
  000df	8b 45 d8	 mov	 eax, DWORD PTR __Ptrnext$[ebp]
  000e2	83 c0 02	 add	 eax, 2
  000e5	89 45 d8	 mov	 DWORD PTR __Ptrnext$[ebp], eax
$LN7@Maklocstr:

; 704  : 
; 705  : 	for (; 0 < _Wchars;

  000e8	83 7d f4 00	 cmp	 DWORD PTR __Wchars$[ebp], 0
  000ec	76 29		 jbe	 SHORT $LN6@Maklocstr

; 707  : 		if ((_Bytes = _Mbrtowc(_Ptrnext, _Ptr, _Count1, &_Mbst2, &_Cvt)) <= 0)

  000ee	8b 45 10	 mov	 eax, DWORD PTR __Cvt$[ebp]
  000f1	50		 push	 eax
  000f2	8d 4d d0	 lea	 ecx, DWORD PTR __Mbst2$[ebp]
  000f5	51		 push	 ecx
  000f6	8b 55 f8	 mov	 edx, DWORD PTR __Count1$[ebp]
  000f9	52		 push	 edx
  000fa	8b 45 08	 mov	 eax, DWORD PTR __Ptr$[ebp]
  000fd	50		 push	 eax
  000fe	8b 4d d8	 mov	 ecx, DWORD PTR __Ptrnext$[ebp]
  00101	51		 push	 ecx
  00102	e8 00 00 00 00	 call	 __Mbrtowc
  00107	83 c4 14	 add	 esp, 20			; 00000014H
  0010a	89 45 ec	 mov	 DWORD PTR __Bytes$[ebp], eax
  0010d	83 7d ec 00	 cmp	 DWORD PTR __Bytes$[ebp], 0
  00111	7f 02		 jg	 SHORT $LN10@Maklocstr

; 708  : 			break;

  00113	eb 02		 jmp	 SHORT $LN6@Maklocstr
$LN10@Maklocstr:

; 709  : 	*_Ptrnext = L'\0';

  00115	eb ad		 jmp	 SHORT $LN5@Maklocstr
$LN6@Maklocstr:
  00117	33 c0		 xor	 eax, eax
  00119	8b 4d d8	 mov	 ecx, DWORD PTR __Ptrnext$[ebp]
  0011c	66 89 01	 mov	 WORD PTR [ecx], ax

; 710  : 
; 711  : 	return (_Ptrdest);

  0011f	8b 45 dc	 mov	 eax, DWORD PTR __Ptrdest$[ebp]
$LN11@Maklocstr:

; 712  : 	}

  00122	5f		 pop	 edi
  00123	5e		 pop	 esi
  00124	5b		 pop	 ebx
  00125	8b e5		 mov	 esp, ebp
  00127	5d		 pop	 ebp
  00128	c3		 ret	 0
??$_Maklocstr@_W@std@@YAPA_WPBDPA_WABU_Cvtvec@@@Z ENDP	; std::_Maklocstr<wchar_t>
_TEXT	ENDS
; Function compile flags: /Odtp /ZI
; File c:\program files (x86)\windows kits\10\include\10.0.17763.0\ucrt\wchar.h
;	COMDAT _wmemcpy
_TEXT	SEGMENT
__S1$ = 8						; size = 4
__S2$ = 12						; size = 4
__N$ = 16						; size = 4
_wmemcpy PROC						; COMDAT

; 230  :     {

  00000	55		 push	 ebp
  00001	8b ec		 mov	 ebp, esp
  00003	83 ec 40	 sub	 esp, 64			; 00000040H
  00006	53		 push	 ebx
  00007	56		 push	 esi
  00008	57		 push	 edi

; 231  :         #pragma warning(push)
; 232  :         #pragma warning(disable : 4995 4996 6386)
; 233  :         return (wchar_t*)memcpy(_S1, _S2, _N*sizeof(wchar_t));

  00009	8b 45 10	 mov	 eax, DWORD PTR __N$[ebp]
  0000c	d1 e0		 shl	 eax, 1
  0000e	50		 push	 eax
  0000f	8b 4d 0c	 mov	 ecx, DWORD PTR __S2$[ebp]
  00012	51		 push	 ecx
  00013	8b 55 08	 mov	 edx, DWORD PTR __S1$[ebp]
  00016	52		 push	 edx
  00017	e8 00 00 00 00	 call	 _memcpy
  0001c	83 c4 0c	 add	 esp, 12			; 0000000cH

; 234  :         #pragma warning(pop)
; 235  :     }

  0001f	5f		 pop	 edi
  00020	5e		 pop	 esi
  00021	5b		 pop	 ebx
  00022	8b e5		 mov	 esp, ebp
  00024	5d		 pop	 ebp
  00025	c3		 ret	 0
_wmemcpy ENDP
_TEXT	ENDS
; Function compile flags: /Odtp /ZI
; File c:\program files (x86)\microsoft visual studio\2017\community\vc\tools\msvc\14.16.27023\atlmfc\include\afx.h
;	COMDAT ?AfxAssertFailedLine@@YGHPBDH@Z
_TEXT	SEGMENT
_bResult$ = -36						; size = 4
_bQuit$ = -32						; size = 4
_msg$ = -28						; size = 28
_lpszFileName$ = 8					; size = 4
_nLine$ = 12						; size = 4
?AfxAssertFailedLine@@YGHPBDH@Z PROC			; AfxAssertFailedLine, COMDAT

; 312  : {

  00000	55		 push	 ebp
  00001	8b ec		 mov	 ebp, esp
  00003	83 ec 64	 sub	 esp, 100		; 00000064H
  00006	53		 push	 ebx
  00007	56		 push	 esi
  00008	57		 push	 edi

; 313  : 	// we remove WM_QUIT because if it is in the queue then the message box
; 314  : 	// won't display
; 315  : 	MSG msg;
; 316  : 	BOOL bQuit = PeekMessage(&msg, NULL, WM_QUIT, WM_QUIT, PM_REMOVE);

  00009	6a 01		 push	 1
  0000b	6a 12		 push	 18			; 00000012H
  0000d	6a 12		 push	 18			; 00000012H
  0000f	6a 00		 push	 0
  00011	8d 45 e4	 lea	 eax, DWORD PTR _msg$[ebp]
  00014	50		 push	 eax
  00015	ff 15 00 00 00
	00		 call	 DWORD PTR __imp__PeekMessageA@20
  0001b	89 45 e0	 mov	 DWORD PTR _bQuit$[ebp], eax

; 317  : 	BOOL bResult = _CrtDbgReport(_CRT_ASSERT, lpszFileName, nLine, NULL, NULL);

  0001e	6a 00		 push	 0
  00020	6a 00		 push	 0
  00022	8b 45 0c	 mov	 eax, DWORD PTR _nLine$[ebp]
  00025	50		 push	 eax
  00026	8b 4d 08	 mov	 ecx, DWORD PTR _lpszFileName$[ebp]
  00029	51		 push	 ecx
  0002a	6a 02		 push	 2
  0002c	ff 15 00 00 00
	00		 call	 DWORD PTR __imp___CrtDbgReport
  00032	83 c4 14	 add	 esp, 20			; 00000014H
  00035	89 45 dc	 mov	 DWORD PTR _bResult$[ebp], eax

; 318  : 	if (bQuit)

  00038	83 7d e0 00	 cmp	 DWORD PTR _bQuit$[ebp], 0
  0003c	74 0a		 je	 SHORT $LN2@AfxAssertF

; 319  : 		PostQuitMessage((int)msg.wParam);

  0003e	8b 45 ec	 mov	 eax, DWORD PTR _msg$[ebp+8]
  00041	50		 push	 eax
  00042	ff 15 00 00 00
	00		 call	 DWORD PTR __imp__PostQuitMessage@4
$LN2@AfxAssertF:

; 320  : 	return bResult;

  00048	8b 45 dc	 mov	 eax, DWORD PTR _bResult$[ebp]

; 321  : }

  0004b	5f		 pop	 edi
  0004c	5e		 pop	 esi
  0004d	5b		 pop	 ebx
  0004e	8b e5		 mov	 esp, ebp
  00050	5d		 pop	 ebp
  00051	c2 08 00	 ret	 8
?AfxAssertFailedLine@@YGHPBDH@Z ENDP			; AfxAssertFailedLine
_TEXT	ENDS
; Function compile flags: /Odtp /ZI
; File c:\program files (x86)\windows kits\10\include\10.0.17763.0\ucrt\stdio.h
;	COMDAT __vsnprintf_s
_TEXT	SEGMENT
__Buffer$ = 8						; size = 4
__BufferCount$ = 12					; size = 4
__MaxCount$ = 16					; size = 4
__Format$ = 20						; size = 4
__ArgList$ = 24						; size = 4
__vsnprintf_s PROC					; COMDAT

; 1605 :     {

  00000	55		 push	 ebp
  00001	8b ec		 mov	 ebp, esp
  00003	83 ec 40	 sub	 esp, 64			; 00000040H
  00006	53		 push	 ebx
  00007	56		 push	 esi
  00008	57		 push	 edi

; 1606 :         return _vsnprintf_s_l(_Buffer, _BufferCount, _MaxCount, _Format, NULL, _ArgList);

  00009	8b 45 18	 mov	 eax, DWORD PTR __ArgList$[ebp]
  0000c	50		 push	 eax
  0000d	6a 00		 push	 0
  0000f	8b 4d 14	 mov	 ecx, DWORD PTR __Format$[ebp]
  00012	51		 push	 ecx
  00013	8b 55 10	 mov	 edx, DWORD PTR __MaxCount$[ebp]
  00016	52		 push	 edx
  00017	8b 45 0c	 mov	 eax, DWORD PTR __BufferCount$[ebp]
  0001a	50		 push	 eax
  0001b	8b 4d 08	 mov	 ecx, DWORD PTR __Buffer$[ebp]
  0001e	51		 push	 ecx
  0001f	e8 00 00 00 00	 call	 __vsnprintf_s_l
  00024	83 c4 18	 add	 esp, 24			; 00000018H

; 1607 :     }

  00027	5f		 pop	 edi
  00028	5e		 pop	 esi
  00029	5b		 pop	 ebx
  0002a	8b e5		 mov	 esp, ebp
  0002c	5d		 pop	 ebp
  0002d	c3		 ret	 0
__vsnprintf_s ENDP
_TEXT	ENDS
; Function compile flags: /Odtp /ZI
; File c:\program files (x86)\windows kits\10\include\10.0.17763.0\ucrt\stdio.h
;	COMDAT __vsnprintf_s_l
_TEXT	SEGMENT
tv74 = -72						; size = 4
__Result$ = -4						; size = 4
__Buffer$ = 8						; size = 4
__BufferCount$ = 12					; size = 4
__MaxCount$ = 16					; size = 4
__Format$ = 20						; size = 4
__Locale$ = 24						; size = 4
__ArgList$ = 28						; size = 4
__vsnprintf_s_l PROC					; COMDAT

; 1584 :     {

  00000	55		 push	 ebp
  00001	8b ec		 mov	 ebp, esp
  00003	83 ec 48	 sub	 esp, 72			; 00000048H
  00006	53		 push	 ebx
  00007	56		 push	 esi
  00008	57		 push	 edi

; 1585 :         int const _Result = __stdio_common_vsnprintf_s(

  00009	8b 45 1c	 mov	 eax, DWORD PTR __ArgList$[ebp]
  0000c	50		 push	 eax
  0000d	8b 4d 18	 mov	 ecx, DWORD PTR __Locale$[ebp]
  00010	51		 push	 ecx
  00011	8b 55 14	 mov	 edx, DWORD PTR __Format$[ebp]
  00014	52		 push	 edx
  00015	8b 45 10	 mov	 eax, DWORD PTR __MaxCount$[ebp]
  00018	50		 push	 eax
  00019	8b 4d 0c	 mov	 ecx, DWORD PTR __BufferCount$[ebp]
  0001c	51		 push	 ecx
  0001d	8b 55 08	 mov	 edx, DWORD PTR __Buffer$[ebp]
  00020	52		 push	 edx
  00021	e8 00 00 00 00	 call	 ___local_stdio_printf_options
  00026	8b 48 04	 mov	 ecx, DWORD PTR [eax+4]
  00029	51		 push	 ecx
  0002a	8b 10		 mov	 edx, DWORD PTR [eax]
  0002c	52		 push	 edx
  0002d	ff 15 00 00 00
	00		 call	 DWORD PTR __imp____stdio_common_vsnprintf_s
  00033	83 c4 20	 add	 esp, 32			; 00000020H
  00036	89 45 fc	 mov	 DWORD PTR __Result$[ebp], eax

; 1586 :             _CRT_INTERNAL_LOCAL_PRINTF_OPTIONS,
; 1587 :             _Buffer, _BufferCount, _MaxCount, _Format, _Locale, _ArgList);
; 1588 : 
; 1589 :         return _Result < 0 ? -1 : _Result;

  00039	83 7d fc 00	 cmp	 DWORD PTR __Result$[ebp], 0
  0003d	7d 09		 jge	 SHORT $LN3@vsnprintf_
  0003f	c7 45 b8 ff ff
	ff ff		 mov	 DWORD PTR tv74[ebp], -1
  00046	eb 06		 jmp	 SHORT $LN4@vsnprintf_
$LN3@vsnprintf_:
  00048	8b 45 fc	 mov	 eax, DWORD PTR __Result$[ebp]
  0004b	89 45 b8	 mov	 DWORD PTR tv74[ebp], eax
$LN4@vsnprintf_:
  0004e	8b 45 b8	 mov	 eax, DWORD PTR tv74[ebp]

; 1590 :     }

  00051	5f		 pop	 edi
  00052	5e		 pop	 esi
  00053	5b		 pop	 ebx
  00054	8b e5		 mov	 esp, ebp
  00056	5d		 pop	 ebp
  00057	c3		 ret	 0
__vsnprintf_s_l ENDP
_TEXT	ENDS
; Function compile flags: /Odtp /ZI
; File c:\program files (x86)\windows kits\10\include\10.0.17763.0\ucrt\corecrt_stdio_config.h
;	COMDAT ___local_stdio_printf_options
_TEXT	SEGMENT
___local_stdio_printf_options PROC			; COMDAT

; 86   :     {

  00000	55		 push	 ebp
  00001	8b ec		 mov	 ebp, esp
  00003	83 ec 40	 sub	 esp, 64			; 00000040H
  00006	53		 push	 ebx
  00007	56		 push	 esi
  00008	57		 push	 edi

; 87   :         static unsigned __int64 _OptionsStorage;
; 88   :         return &_OptionsStorage;

  00009	b8 00 00 00 00	 mov	 eax, OFFSET ?_OptionsStorage@?1??__local_stdio_printf_options@@9@4_KA ; `__local_stdio_printf_options'::`2'::_OptionsStorage

; 89   :     }

  0000e	5f		 pop	 edi
  0000f	5e		 pop	 esi
  00010	5b		 pop	 ebx
  00011	8b e5		 mov	 esp, ebp
  00013	5d		 pop	 ebp
  00014	c3		 ret	 0
___local_stdio_printf_options ENDP
_TEXT	ENDS
; Function compile flags: /Odtp /ZI
; File g:\网狐\happygamewh\服务端\系统模块\服务器组件\模块管理\matchlistcontrol.cpp
;	COMDAT ?__global_array_delete@@YAXPAXI@Z
_TEXT	SEGMENT
_p$ = 8							; size = 4
_sz$ = 12						; size = 4
?__global_array_delete@@YAXPAXI@Z PROC			; __global_array_delete, COMDAT

  00000	55		 push	 ebp
  00001	8b ec		 mov	 ebp, esp
  00003	83 ec 40	 sub	 esp, 64			; 00000040H
  00006	53		 push	 ebx
  00007	56		 push	 esi
  00008	57		 push	 edi
  00009	8b 45 0c	 mov	 eax, DWORD PTR _sz$[ebp]
  0000c	50		 push	 eax
  0000d	8b 4d 08	 mov	 ecx, DWORD PTR _p$[ebp]
  00010	51		 push	 ecx
  00011	e8 00 00 00 00	 call	 ??_V@YAXPAXI@Z		; operator delete[]
  00016	83 c4 08	 add	 esp, 8
  00019	5f		 pop	 edi
  0001a	5e		 pop	 esi
  0001b	5b		 pop	 ebx
  0001c	8b e5		 mov	 esp, ebp
  0001e	5d		 pop	 ebp
  0001f	c3		 ret	 0
?__global_array_delete@@YAXPAXI@Z ENDP			; __global_array_delete
_TEXT	ENDS
; Function compile flags: /Odtp /ZI
; File g:\网狐\happygamewh\服务端\系统模块\服务器组件\模块管理\matchlistcontrol.cpp
;	COMDAT ?__global_array_delete@@YAXPAX@Z
_TEXT	SEGMENT
_p$ = 8							; size = 4
?__global_array_delete@@YAXPAX@Z PROC			; __global_array_delete, COMDAT

  00000	55		 push	 ebp
  00001	8b ec		 mov	 ebp, esp
  00003	83 ec 40	 sub	 esp, 64			; 00000040H
  00006	53		 push	 ebx
  00007	56		 push	 esi
  00008	57		 push	 edi
  00009	8b 45 08	 mov	 eax, DWORD PTR _p$[ebp]
  0000c	50		 push	 eax
  0000d	e8 00 00 00 00	 call	 ??_V@YAXPAX@Z		; operator delete[]
  00012	83 c4 04	 add	 esp, 4
  00015	5f		 pop	 edi
  00016	5e		 pop	 esi
  00017	5b		 pop	 ebx
  00018	8b e5		 mov	 esp, ebp
  0001a	5d		 pop	 ebp
  0001b	c3		 ret	 0
?__global_array_delete@@YAXPAX@Z ENDP			; __global_array_delete
_TEXT	ENDS
; Function compile flags: /Odtp /ZI
; File g:\网狐\happygamewh\服务端\系统模块\服务器组件\模块管理\matchlistcontrol.cpp
;	COMDAT ?__global_delete@@YAXPAXI@Z
_TEXT	SEGMENT
_p$ = 8							; size = 4
_sz$ = 12						; size = 4
?__global_delete@@YAXPAXI@Z PROC			; __global_delete, COMDAT

  00000	55		 push	 ebp
  00001	8b ec		 mov	 ebp, esp
  00003	83 ec 40	 sub	 esp, 64			; 00000040H
  00006	53		 push	 ebx
  00007	56		 push	 esi
  00008	57		 push	 edi
  00009	8b 45 0c	 mov	 eax, DWORD PTR _sz$[ebp]
  0000c	50		 push	 eax
  0000d	8b 4d 08	 mov	 ecx, DWORD PTR _p$[ebp]
  00010	51		 push	 ecx
  00011	e8 00 00 00 00	 call	 ??3@YAXPAXI@Z		; operator delete
  00016	83 c4 08	 add	 esp, 8
  00019	5f		 pop	 edi
  0001a	5e		 pop	 esi
  0001b	5b		 pop	 ebx
  0001c	8b e5		 mov	 esp, ebp
  0001e	5d		 pop	 ebp
  0001f	c3		 ret	 0
?__global_delete@@YAXPAXI@Z ENDP			; __global_delete
_TEXT	ENDS
; Function compile flags: /Odtp /ZI
; File g:\网狐\happygamewh\服务端\系统模块\服务器组件\模块管理\matchlistcontrol.cpp
;	COMDAT ?__empty_global_delete@@YAXPAXI@Z
_TEXT	SEGMENT
___formal$ = 8						; size = 4
___formal$ = 12						; size = 4
?__empty_global_delete@@YAXPAXI@Z PROC			; __empty_global_delete, COMDAT

  00000	55		 push	 ebp
  00001	8b ec		 mov	 ebp, esp
  00003	83 ec 40	 sub	 esp, 64			; 00000040H
  00006	53		 push	 ebx
  00007	56		 push	 esi
  00008	57		 push	 edi
  00009	5f		 pop	 edi
  0000a	5e		 pop	 esi
  0000b	5b		 pop	 ebx
  0000c	8b e5		 mov	 esp, ebp
  0000e	5d		 pop	 ebp
  0000f	c3		 ret	 0
?__empty_global_delete@@YAXPAXI@Z ENDP			; __empty_global_delete
_TEXT	ENDS
; Function compile flags: /Odtp /ZI
; File g:\网狐\happygamewh\服务端\系统模块\服务器组件\模块管理\matchlistcontrol.cpp
;	COMDAT ?__global_delete@@YAXPAX@Z
_TEXT	SEGMENT
_p$ = 8							; size = 4
?__global_delete@@YAXPAX@Z PROC				; __global_delete, COMDAT

  00000	55		 push	 ebp
  00001	8b ec		 mov	 ebp, esp
  00003	83 ec 40	 sub	 esp, 64			; 00000040H
  00006	53		 push	 ebx
  00007	56		 push	 esi
  00008	57		 push	 edi
  00009	8b 45 08	 mov	 eax, DWORD PTR _p$[ebp]
  0000c	50		 push	 eax
  0000d	e8 00 00 00 00	 call	 ??3@YAXPAX@Z		; operator delete
  00012	83 c4 04	 add	 esp, 4
  00015	5f		 pop	 edi
  00016	5e		 pop	 esi
  00017	5b		 pop	 ebx
  00018	8b e5		 mov	 esp, ebp
  0001a	5d		 pop	 ebp
  0001b	c3		 ret	 0
?__global_delete@@YAXPAX@Z ENDP				; __global_delete
_TEXT	ENDS
; Function compile flags: /Odtp /ZI
; File g:\网狐\happygamewh\服务端\系统模块\服务器组件\模块管理\matchlistcontrol.cpp
;	COMDAT ?__empty_global_delete@@YAXPAX@Z
_TEXT	SEGMENT
___formal$ = 8						; size = 4
?__empty_global_delete@@YAXPAX@Z PROC			; __empty_global_delete, COMDAT

  00000	55		 push	 ebp
  00001	8b ec		 mov	 ebp, esp
  00003	83 ec 40	 sub	 esp, 64			; 00000040H
  00006	53		 push	 ebx
  00007	56		 push	 esi
  00008	57		 push	 edi
  00009	5f		 pop	 edi
  0000a	5e		 pop	 esi
  0000b	5b		 pop	 ebx
  0000c	8b e5		 mov	 esp, ebp
  0000e	5d		 pop	 ebp
  0000f	c3		 ret	 0
?__empty_global_delete@@YAXPAX@Z ENDP			; __empty_global_delete
_TEXT	ENDS
; Function compile flags: /Odtp /ZI
;	COMDAT ??_H@YGXPAXIIP6EPAX0@Z@Z
_TEXT	SEGMENT
tv66 = -68						; size = 4
___t$ = 8						; size = 4
___s$ = 12						; size = 4
___n$ = 16						; size = 4
___f$ = 20						; size = 4
??_H@YGXPAXIIP6EPAX0@Z@Z PROC				; `vector constructor iterator', COMDAT
  00000	55		 push	 ebp
  00001	8b ec		 mov	 ebp, esp
  00003	83 ec 44	 sub	 esp, 68			; 00000044H
  00006	53		 push	 ebx
  00007	56		 push	 esi
  00008	57		 push	 edi
$LN2@vector:
  00009	8b 45 10	 mov	 eax, DWORD PTR ___n$[ebp]
  0000c	89 45 bc	 mov	 DWORD PTR tv66[ebp], eax
  0000f	8b 4d 10	 mov	 ecx, DWORD PTR ___n$[ebp]
  00012	83 e9 01	 sub	 ecx, 1
  00015	89 4d 10	 mov	 DWORD PTR ___n$[ebp], ecx
  00018	83 7d bc 00	 cmp	 DWORD PTR tv66[ebp], 0
  0001c	76 11		 jbe	 SHORT $LN1@vector
  0001e	8b 4d 08	 mov	 ecx, DWORD PTR ___t$[ebp]
  00021	ff 55 14	 call	 DWORD PTR ___f$[ebp]
  00024	8b 45 08	 mov	 eax, DWORD PTR ___t$[ebp]
  00027	03 45 0c	 add	 eax, DWORD PTR ___s$[ebp]
  0002a	89 45 08	 mov	 DWORD PTR ___t$[ebp], eax
  0002d	eb da		 jmp	 SHORT $LN2@vector
$LN1@vector:
  0002f	5f		 pop	 edi
  00030	5e		 pop	 esi
  00031	5b		 pop	 ebx
  00032	8b e5		 mov	 esp, ebp
  00034	5d		 pop	 ebp
  00035	c2 10 00	 ret	 16			; 00000010H
??_H@YGXPAXIIP6EPAX0@Z@Z ENDP				; `vector constructor iterator'
_TEXT	ENDS
END
