; Listing generated by Microsoft (R) Optimizing Compiler Version 19.16.27032.1 

	TITLE	G:\网狐\HappyGameWH\服务端\系统模块\服务器组件\模块管理\ServerInfoManager.cpp
	.686P
	.XMM
	include listing.inc
	.model	flat

INCLUDELIB MSVCRTD
INCLUDELIB OLDNAMES

CONST	SEGMENT
?IID_ITraceServiceManager@@3U_GUID@@B DD 08bfc36dbH	; IID_ITraceServiceManager
	DW	05ba2H
	DW	042baH
	DB	081H
	DB	0b0H
	DB	087H
	DB	0b0H
	DB	01cH
	DB	09eH
	DB	0afH
	DB	0feH
?IID_IAsynchronismEngine@@3U_GUID@@B DD 0c7a13074H	; IID_IAsynchronismEngine
	DW	075c5H
	DW	04b8eH
	DB	0b5H
	DB	04bH
	DB	0eeH
	DB	0eH
	DB	0ecH
	DB	0feH
	DB	0b9H
	DB	0ebH
?IID_IDataBase@@3U_GUID@@B DD 0a2e38a78H		; IID_IDataBase
	DW	01e4fH
	DW	04de4H
	DB	0a5H
	DB	0d1H
	DB	0b9H
	DB	019H
	DB	09bH
	DB	0ceH
	DB	041H
	DB	0aeH
?IID_IDataBaseEngine@@3U_GUID@@B DD 047b5a119H		; IID_IDataBaseEngine
	DW	01676H
	DW	049a3H
	DB	0beH
	DB	0aeH
	DB	0caH
	DB	027H
	DB	0ebH
	DB	059H
	DB	097H
	DB	022H
?IID_IUDPNetworkEngine@@3U_GUID@@B DD 08d138a9bH	; IID_IUDPNetworkEngine
	DW	0a97dH
	DW	04d51H
	DB	09dH
	DB	06cH
	DB	0d8H
	DB	06eH
	DB	0a1H
	DB	084H
	DB	045H
	DB	02eH
?IID_ITCPNetworkEngine@@3U_GUID@@B DD 07747f683H	; IID_ITCPNetworkEngine
	DW	0c0daH
	DW	04588H
	DB	089H
	DB	0ccH
	DB	015H
	DB	093H
	DB	0acH
	DB	0c0H
	DB	044H
	DB	0c8H
?IID_ITCPSocketService@@3U_GUID@@B DD 0709a4449H	; IID_ITCPSocketService
	DW	0ad77H
	DW	04b3dH
	DB	0b4H
	DB	0d6H
	DB	08dH
	DB	0bH
	DB	028H
	DB	065H
	DB	0ecH
	DB	0aeH
?IID_IWEBSocketService@@3U_GUID@@B DD 091052ff2H	; IID_IWEBSocketService
	DW	0eb29H
	DW	040b9H
	DB	0b2H
	DB	0a2H
	DB	08aH
	DB	0a2H
	DB	098H
	DB	036H
	DB	02cH
	DB	084H
?IID_ITimerEngine@@3U_GUID@@B DD 0496401aeH		; IID_ITimerEngine
	DW	06fb0H
	DW	04e9fH
	DB	090H
	DB	098H
	DB	044H
	DB	09dH
	DB	09cH
	DB	0b2H
	DB	0bdH
	DB	097H
?IID_IAttemperEngine@@3U_GUID@@B DD 0b070b2cH		; IID_IAttemperEngine
	DW	09d72H
	DW	042d2H
	DB	0a5H
	DB	070H
	DB	0baH
	DB	02cH
	DB	0bfH
	DB	06fH
	DB	0bbH
	DB	01cH
?IID_IGameServiceManager@@3U_GUID@@B DD 04b2b9d8fH	; IID_IGameServiceManager
	DW	0ce1bH
	DW	044f3H
	DB	0a5H
	DB	022H
	DB	065H
	DB	01aH
	DB	065H
	DB	0c9H
	DB	0aH
	DB	025H
?IID_IAndroidUserItemSink@@3U_GUID@@B DD 01e8a1918H	; IID_IAndroidUserItemSink
	DW	0572bH
	DW	0453bH
	DB	0bcH
	DB	0bH
	DB	06bH
	DB	061H
	DB	070H
	DB	0a3H
	DB	03cH
	DB	0caH
CONST	ENDS
PUBLIC	??_H@YGXPAXIIP6EPAX0@Z@Z			; `vector constructor iterator'
PUBLIC	?__empty_global_delete@@YAXPAX@Z		; __empty_global_delete
PUBLIC	?__empty_global_delete@@YAXPAXI@Z		; __empty_global_delete
PUBLIC	??2@YAPAXIPAX@Z					; operator new
PUBLIC	___local_stdio_printf_options
PUBLIC	__vsnprintf_l
PUBLIC	__vsnprintf
PUBLIC	__vsprintf_l
PUBLIC	__vsnprintf_s_l
PUBLIC	__vsnprintf_s
PUBLIC	_sprintf
PUBLIC	__snprintf
PUBLIC	?AfxAssertFailedLine@@YGHPBDH@Z			; AfxAssertFailedLine
PUBLIC	_wmemcpy
PUBLIC	?data@CPlex@@QAEPAXXZ				; CPlex::data
PUBLIC	??$_Maklocstr@_W@std@@YAPA_WPBDPA_WABU_Cvtvec@@@Z ; std::_Maklocstr<wchar_t>
PUBLIC	?_Maklocwcs@std@@YAPA_WPB_W@Z			; std::_Maklocwcs
PUBLIC	??0CreateRoomPayFee@@QAE@XZ			; CreateRoomPayFee::CreateRoomPayFee
PUBLIC	??0tagPersonalRoomOptionRightAndFee@@QAE@XZ	; tagPersonalRoomOptionRightAndFee::tagPersonalRoomOptionRightAndFee
PUBLIC	??$_Getvals@_W@?$time_get@DV?$istreambuf_iterator@DU?$char_traits@D@std@@@std@@@std@@IAEX_WABV_Locinfo@1@@Z ; std::time_get<char,std::istreambuf_iterator<char,std::char_traits<char> > >::_Getvals<wchar_t>
PUBLIC	??$_Getvals@_W@?$time_get@_WV?$istreambuf_iterator@_WU?$char_traits@_W@std@@@std@@@std@@IAEX_WABV_Locinfo@1@@Z ; std::time_get<wchar_t,std::istreambuf_iterator<wchar_t,std::char_traits<wchar_t> > >::_Getvals<wchar_t>
PUBLIC	??0?$CTempldateHelper@UIDataBase@@@@QAE@ABU_GUID@@KPBD1@Z ; CTempldateHelper<IDataBase>::CTempldateHelper<IDataBase>
PUBLIC	??1?$CTempldateHelper@UIDataBase@@@@UAE@XZ	; CTempldateHelper<IDataBase>::~CTempldateHelper<IDataBase>
PUBLIC	?CloseInstance@?$CTempldateHelper@UIDataBase@@@@QAE_NXZ ; CTempldateHelper<IDataBase>::CloseInstance
PUBLIC	?CreateInstance@?$CTempldateHelper@UIDataBase@@@@QAE_NXZ ; CTempldateHelper<IDataBase>::CreateInstance
PUBLIC	??C?$CTempldateHelper@UIDataBase@@@@QBEPAUIDataBase@@XZ ; CTempldateHelper<IDataBase>::operator->
PUBLIC	?GetInterface@?$CTempldateHelper@UIDataBase@@@@QBEPAUIDataBase@@XZ ; CTempldateHelper<IDataBase>::GetInterface
PUBLIC	??_G?$CTempldateHelper@UIDataBase@@@@UAEPAXI@Z	; CTempldateHelper<IDataBase>::`scalar deleting destructor'
PUBLIC	??0CDataBaseHelper@@QAE@XZ			; CDataBaseHelper::CDataBaseHelper
PUBLIC	??1CDataBaseHelper@@UAE@XZ			; CDataBaseHelper::~CDataBaseHelper
PUBLIC	??_GCDataBaseHelper@@UAEPAXI@Z			; CDataBaseHelper::`scalar deleting destructor'
PUBLIC	?GetPlatformDBParameter@CModuleDBParameter@@QAEPAUtagDataBaseParameter@@XZ ; CModuleDBParameter::GetPlatformDBParameter
PUBLIC	?SetPlatformDBParameter@CModuleDBParameter@@QAEXAAUtagDataBaseParameter@@@Z ; CModuleDBParameter::SetPlatformDBParameter
PUBLIC	?GetGameMatchDBParameter@CModuleDBParameter@@QAEPAUtagDataBaseParameter@@XZ ; CModuleDBParameter::GetGameMatchDBParameter
PUBLIC	?SetGameMatchDBParameter@CModuleDBParameter@@QAEXAAUtagDataBaseParameter@@@Z ; CModuleDBParameter::SetGameMatchDBParameter
PUBLIC	?GetModuleDBParameter@CModuleDBParameter@@SAPAV1@XZ ; CModuleDBParameter::GetModuleDBParameter
PUBLIC	??0CModuleDBParameter@@QAE@ABV0@@Z		; CModuleDBParameter::CModuleDBParameter
PUBLIC	??4CModuleDBParameter@@QAEAAV0@ABV0@@Z		; CModuleDBParameter::operator=
PUBLIC	??_GCModuleDBParameter@@UAEPAXI@Z		; CModuleDBParameter::`scalar deleting destructor'
PUBLIC	??_ECModuleDBParameter@@UAEPAXI@Z		; CModuleDBParameter::`vector deleting destructor'
PUBLIC	??0?$CMap@GGPAUtagGameServerInfo@@PAU1@@@QAE@H@Z ; CMap<unsigned short,unsigned short,tagGameServerInfo *,tagGameServerInfo *>::CMap<unsigned short,unsigned short,tagGameServerInfo *,tagGameServerInfo *>
PUBLIC	?GetCount@?$CMap@GGPAUtagGameServerInfo@@PAU1@@@QBEHXZ ; CMap<unsigned short,unsigned short,tagGameServerInfo *,tagGameServerInfo *>::GetCount
PUBLIC	?Lookup@?$CMap@GGPAUtagGameServerInfo@@PAU1@@@QBEHGAAPAUtagGameServerInfo@@@Z ; CMap<unsigned short,unsigned short,tagGameServerInfo *,tagGameServerInfo *>::Lookup
PUBLIC	??A?$CMap@GGPAUtagGameServerInfo@@PAU1@@@QAEAAPAUtagGameServerInfo@@G@Z ; CMap<unsigned short,unsigned short,tagGameServerInfo *,tagGameServerInfo *>::operator[]
PUBLIC	?SetAt@?$CMap@GGPAUtagGameServerInfo@@PAU1@@@QAEXGPAUtagGameServerInfo@@@Z ; CMap<unsigned short,unsigned short,tagGameServerInfo *,tagGameServerInfo *>::SetAt
PUBLIC	?RemoveKey@?$CMap@GGPAUtagGameServerInfo@@PAU1@@@QAEHG@Z ; CMap<unsigned short,unsigned short,tagGameServerInfo *,tagGameServerInfo *>::RemoveKey
PUBLIC	?RemoveAll@?$CMap@GGPAUtagGameServerInfo@@PAU1@@@QAEXXZ ; CMap<unsigned short,unsigned short,tagGameServerInfo *,tagGameServerInfo *>::RemoveAll
PUBLIC	?GetStartPosition@?$CMap@GGPAUtagGameServerInfo@@PAU1@@@QBEPAU__POSITION@@XZ ; CMap<unsigned short,unsigned short,tagGameServerInfo *,tagGameServerInfo *>::GetStartPosition
PUBLIC	?GetNextAssoc@?$CMap@GGPAUtagGameServerInfo@@PAU1@@@QBEXAAPAU__POSITION@@AAGAAPAUtagGameServerInfo@@@Z ; CMap<unsigned short,unsigned short,tagGameServerInfo *,tagGameServerInfo *>::GetNextAssoc
PUBLIC	?InitHashTable@?$CMap@GGPAUtagGameServerInfo@@PAU1@@@QAEXIH@Z ; CMap<unsigned short,unsigned short,tagGameServerInfo *,tagGameServerInfo *>::InitHashTable
PUBLIC	?NewAssoc@?$CMap@GGPAUtagGameServerInfo@@PAU1@@@IAEPAVCAssoc@1@G@Z ; CMap<unsigned short,unsigned short,tagGameServerInfo *,tagGameServerInfo *>::NewAssoc
PUBLIC	?FreeAssoc@?$CMap@GGPAUtagGameServerInfo@@PAU1@@@IAEXPAVCAssoc@1@@Z ; CMap<unsigned short,unsigned short,tagGameServerInfo *,tagGameServerInfo *>::FreeAssoc
PUBLIC	?GetAssocAt@?$CMap@GGPAUtagGameServerInfo@@PAU1@@@IBEPAVCAssoc@1@GAAI0@Z ; CMap<unsigned short,unsigned short,tagGameServerInfo *,tagGameServerInfo *>::GetAssocAt
PUBLIC	??1?$CMap@GGPAUtagGameServerInfo@@PAU1@@@UAE@XZ	; CMap<unsigned short,unsigned short,tagGameServerInfo *,tagGameServerInfo *>::~CMap<unsigned short,unsigned short,tagGameServerInfo *,tagGameServerInfo *>
PUBLIC	?Serialize@?$CMap@GGPAUtagGameServerInfo@@PAU1@@@UAEXAAVCArchive@@@Z ; CMap<unsigned short,unsigned short,tagGameServerInfo *,tagGameServerInfo *>::Serialize
PUBLIC	?Dump@?$CMap@GGPAUtagGameServerInfo@@PAU1@@@UBEXAAVCDumpContext@@@Z ; CMap<unsigned short,unsigned short,tagGameServerInfo *,tagGameServerInfo *>::Dump
PUBLIC	?AssertValid@?$CMap@GGPAUtagGameServerInfo@@PAU1@@@UBEXXZ ; CMap<unsigned short,unsigned short,tagGameServerInfo *,tagGameServerInfo *>::AssertValid
PUBLIC	??_G?$CMap@GGPAUtagGameServerInfo@@PAU1@@@UAEPAXI@Z ; CMap<unsigned short,unsigned short,tagGameServerInfo *,tagGameServerInfo *>::`scalar deleting destructor'
PUBLIC	??0?$CWHArray@PAUtagGameServerInfo@@ABQAU1@@@QAE@XZ ; CWHArray<tagGameServerInfo *,tagGameServerInfo * const &>::CWHArray<tagGameServerInfo *,tagGameServerInfo * const &>
PUBLIC	??1?$CWHArray@PAUtagGameServerInfo@@ABQAU1@@@UAE@XZ ; CWHArray<tagGameServerInfo *,tagGameServerInfo * const &>::~CWHArray<tagGameServerInfo *,tagGameServerInfo * const &>
PUBLIC	?GetCount@?$CWHArray@PAUtagGameServerInfo@@ABQAU1@@@QBEHXZ ; CWHArray<tagGameServerInfo *,tagGameServerInfo * const &>::GetCount
PUBLIC	?Add@?$CWHArray@PAUtagGameServerInfo@@ABQAU1@@@QAEHABQAUtagGameServerInfo@@@Z ; CWHArray<tagGameServerInfo *,tagGameServerInfo * const &>::Add
PUBLIC	?ElementAt@?$CWHArray@PAUtagGameServerInfo@@ABQAU1@@@QAEAAPAUtagGameServerInfo@@H@Z ; CWHArray<tagGameServerInfo *,tagGameServerInfo * const &>::ElementAt
PUBLIC	?SetSize@?$CWHArray@PAUtagGameServerInfo@@ABQAU1@@@QAEXH@Z ; CWHArray<tagGameServerInfo *,tagGameServerInfo * const &>::SetSize
PUBLIC	?SetAtGrow@?$CWHArray@PAUtagGameServerInfo@@ABQAU1@@@QAEXHABQAUtagGameServerInfo@@@Z ; CWHArray<tagGameServerInfo *,tagGameServerInfo * const &>::SetAtGrow
PUBLIC	?RemoveAt@?$CWHArray@PAUtagGameServerInfo@@ABQAU1@@@QAEXHH@Z ; CWHArray<tagGameServerInfo *,tagGameServerInfo * const &>::RemoveAt
PUBLIC	?RemoveAll@?$CWHArray@PAUtagGameServerInfo@@ABQAU1@@@QAEXXZ ; CWHArray<tagGameServerInfo *,tagGameServerInfo * const &>::RemoveAll
PUBLIC	??A?$CWHArray@PAUtagGameServerInfo@@ABQAU1@@@QAEAAPAUtagGameServerInfo@@H@Z ; CWHArray<tagGameServerInfo *,tagGameServerInfo * const &>::operator[]
PUBLIC	?AllocMemory@?$CWHArray@PAUtagGameServerInfo@@ABQAU1@@@QAEXH@Z ; CWHArray<tagGameServerInfo *,tagGameServerInfo * const &>::AllocMemory
PUBLIC	??_G?$CWHArray@PAUtagGameServerInfo@@ABQAU1@@@UAEPAXI@Z ; CWHArray<tagGameServerInfo *,tagGameServerInfo * const &>::`scalar deleting destructor'
PUBLIC	??0CServerInfoBuffer@@QAE@XZ			; CServerInfoBuffer::CServerInfoBuffer
PUBLIC	??1CServerInfoBuffer@@UAE@XZ			; CServerInfoBuffer::~CServerInfoBuffer
PUBLIC	?ResetServerInfo@CServerInfoBuffer@@QAE_NXZ	; CServerInfoBuffer::ResetServerInfo
PUBLIC	?DeleteServerInfo@CServerInfoBuffer@@QAE_NG@Z	; CServerInfoBuffer::DeleteServerInfo
PUBLIC	?InsertServerInfo@CServerInfoBuffer@@QAE_NPAUtagGameServerInfo@@@Z ; CServerInfoBuffer::InsertServerInfo
PUBLIC	?GetServerInfoCount@CServerInfoBuffer@@QAEKXZ	; CServerInfoBuffer::GetServerInfoCount
PUBLIC	?SearchServerInfo@CServerInfoBuffer@@QAEPAUtagGameServerInfo@@G@Z ; CServerInfoBuffer::SearchServerInfo
PUBLIC	?CreateServerInfo@CServerInfoBuffer@@AAEPAUtagGameServerInfo@@XZ ; CServerInfoBuffer::CreateServerInfo
PUBLIC	??_GCServerInfoBuffer@@UAEPAXI@Z		; CServerInfoBuffer::`scalar deleting destructor'
PUBLIC	??_ECServerInfoBuffer@@UAEPAXI@Z		; CServerInfoBuffer::`vector deleting destructor'
PUBLIC	??0?$CWHArray@PAUtagGameMatchOption@@ABQAU1@@@QAE@XZ ; CWHArray<tagGameMatchOption *,tagGameMatchOption * const &>::CWHArray<tagGameMatchOption *,tagGameMatchOption * const &>
PUBLIC	??1?$CWHArray@PAUtagGameMatchOption@@ABQAU1@@@UAE@XZ ; CWHArray<tagGameMatchOption *,tagGameMatchOption * const &>::~CWHArray<tagGameMatchOption *,tagGameMatchOption * const &>
PUBLIC	?GetCount@?$CWHArray@PAUtagGameMatchOption@@ABQAU1@@@QBEHXZ ; CWHArray<tagGameMatchOption *,tagGameMatchOption * const &>::GetCount
PUBLIC	?Add@?$CWHArray@PAUtagGameMatchOption@@ABQAU1@@@QAEHABQAUtagGameMatchOption@@@Z ; CWHArray<tagGameMatchOption *,tagGameMatchOption * const &>::Add
PUBLIC	?Append@?$CWHArray@PAUtagGameMatchOption@@ABQAU1@@@QAEHABV1@@Z ; CWHArray<tagGameMatchOption *,tagGameMatchOption * const &>::Append
PUBLIC	?ElementAt@?$CWHArray@PAUtagGameMatchOption@@ABQAU1@@@QAEAAPAUtagGameMatchOption@@H@Z ; CWHArray<tagGameMatchOption *,tagGameMatchOption * const &>::ElementAt
PUBLIC	?SetSize@?$CWHArray@PAUtagGameMatchOption@@ABQAU1@@@QAEXH@Z ; CWHArray<tagGameMatchOption *,tagGameMatchOption * const &>::SetSize
PUBLIC	?SetAtGrow@?$CWHArray@PAUtagGameMatchOption@@ABQAU1@@@QAEXHABQAUtagGameMatchOption@@@Z ; CWHArray<tagGameMatchOption *,tagGameMatchOption * const &>::SetAtGrow
PUBLIC	?RemoveAt@?$CWHArray@PAUtagGameMatchOption@@ABQAU1@@@QAEXHH@Z ; CWHArray<tagGameMatchOption *,tagGameMatchOption * const &>::RemoveAt
PUBLIC	?RemoveAll@?$CWHArray@PAUtagGameMatchOption@@ABQAU1@@@QAEXXZ ; CWHArray<tagGameMatchOption *,tagGameMatchOption * const &>::RemoveAll
PUBLIC	??A?$CWHArray@PAUtagGameMatchOption@@ABQAU1@@@QAEAAPAUtagGameMatchOption@@H@Z ; CWHArray<tagGameMatchOption *,tagGameMatchOption * const &>::operator[]
PUBLIC	?AllocMemory@?$CWHArray@PAUtagGameMatchOption@@ABQAU1@@@QAEXH@Z ; CWHArray<tagGameMatchOption *,tagGameMatchOption * const &>::AllocMemory
PUBLIC	??0?$CWHArray@PAUtagGameMatchOption@@ABQAU1@@@QAE@ABV0@@Z ; CWHArray<tagGameMatchOption *,tagGameMatchOption * const &>::CWHArray<tagGameMatchOption *,tagGameMatchOption * const &>
PUBLIC	??4?$CWHArray@PAUtagGameMatchOption@@ABQAU1@@@QAEAAV0@ABV0@@Z ; CWHArray<tagGameMatchOption *,tagGameMatchOption * const &>::operator=
PUBLIC	??_G?$CWHArray@PAUtagGameMatchOption@@ABQAU1@@@UAEPAXI@Z ; CWHArray<tagGameMatchOption *,tagGameMatchOption * const &>::`scalar deleting destructor'
PUBLIC	??0CMatchOptionBuffer@@QAE@XZ			; CMatchOptionBuffer::CMatchOptionBuffer
PUBLIC	??1CMatchOptionBuffer@@UAE@XZ			; CMatchOptionBuffer::~CMatchOptionBuffer
PUBLIC	?ResetMatchOption@CMatchOptionBuffer@@QAE_NXZ	; CMatchOptionBuffer::ResetMatchOption
PUBLIC	?DeleteMatchOption@CMatchOptionBuffer@@QAE_NKK@Z ; CMatchOptionBuffer::DeleteMatchOption
PUBLIC	?InsertMatchOption@CMatchOptionBuffer@@QAE_NPAUtagGameMatchOption@@@Z ; CMatchOptionBuffer::InsertMatchOption
PUBLIC	?GetMatchOptionCount@CMatchOptionBuffer@@QAEKXZ	; CMatchOptionBuffer::GetMatchOptionCount
PUBLIC	?SearchMatchOption@CMatchOptionBuffer@@QAEPAUtagGameMatchOption@@K_J@Z ; CMatchOptionBuffer::SearchMatchOption
PUBLIC	?CreateMatchOption@CMatchOptionBuffer@@AAEPAUtagGameMatchOption@@XZ ; CMatchOptionBuffer::CreateMatchOption
PUBLIC	??0CMatchOptionBuffer@@QAE@ABV0@@Z		; CMatchOptionBuffer::CMatchOptionBuffer
PUBLIC	??4CMatchOptionBuffer@@QAEAAV0@ABV0@@Z		; CMatchOptionBuffer::operator=
PUBLIC	??_GCMatchOptionBuffer@@UAEPAXI@Z		; CMatchOptionBuffer::`scalar deleting destructor'
PUBLIC	??_ECMatchOptionBuffer@@UAEPAXI@Z		; CMatchOptionBuffer::`vector deleting destructor'
PUBLIC	??0CServerInfoManager@@QAE@XZ			; CServerInfoManager::CServerInfoManager
PUBLIC	??1CServerInfoManager@@UAE@XZ			; CServerInfoManager::~CServerInfoManager
PUBLIC	?LoadGameServerInfo@CServerInfoManager@@QAE_NQADAAVCServerInfoBuffer@@@Z ; CServerInfoManager::LoadGameServerInfo
PUBLIC	?LoadGameServerInfo@CServerInfoManager@@QAE_NQADGAAUtagGameServerInfo@@@Z ; CServerInfoManager::LoadGameServerInfo
PUBLIC	?DeleteGameServer@CServerInfoManager@@QAE_NG@Z	; CServerInfoManager::DeleteGameServer
PUBLIC	?InsertGameServer@CServerInfoManager@@QAE_NPAUtagGameServerCreate@@AAUtagGameServerInfo@@@Z ; CServerInfoManager::InsertGameServer
PUBLIC	?ModifyGameServer@CServerInfoManager@@QAE_NPAUtagGameServerCreate@@AAUtagGameServerInfo@@@Z ; CServerInfoManager::ModifyGameServer
PUBLIC	?ConnectPlatformDB@CServerInfoManager@@AAE_NAAVCDataBaseHelper@@@Z ; CServerInfoManager::ConnectPlatformDB
PUBLIC	?ReadGameServerInfo@CServerInfoManager@@AAE_NAAVCDataBaseAide@@AAUtagGameServerInfo@@@Z ; CServerInfoManager::ReadGameServerInfo
PUBLIC	?SetPersonalRoomOption@CServerInfoManager@@QAEXUtagPersonalRoomOption@@UtagPersonalRoomOptionRightAndFee@@@Z ; CServerInfoManager::SetPersonalRoomOption
PUBLIC	?LoadPersonalRoomParameter@CServerInfoManager@@QAE_NAAUtagPersonalRoomOption@@AAUtagPersonalRoomOptionRightAndFee@@G@Z ; CServerInfoManager::LoadPersonalRoomParameter
PUBLIC	?InsertPersonalRoomParameter@CServerInfoManager@@QAE_NVCDataBaseAide@@UtagPersonalRoomOption@@UtagPersonalRoomOptionRightAndFee@@GG@Z ; CServerInfoManager::InsertPersonalRoomParameter
PUBLIC	?ModifyPersonalRoomParameter@CServerInfoManager@@QAE_NVCDataBaseAide@@UtagPersonalRoomOption@@UtagPersonalRoomOptionRightAndFee@@GG@Z ; CServerInfoManager::ModifyPersonalRoomParameter
PUBLIC	?WriteFileValue@CServerInfoManager@@QAEXPBD0I0@Z ; CServerInfoManager::WriteFileValue
PUBLIC	?WritePersonalRoomInfo@CServerInfoManager@@QAE_NUtagPersonalRoomOption@@UtagPersonalRoomOptionRightAndFee@@G@Z ; CServerInfoManager::WritePersonalRoomInfo
PUBLIC	??0CServerInfoManager@@QAE@ABV0@@Z		; CServerInfoManager::CServerInfoManager
PUBLIC	??4CServerInfoManager@@QAEAAV0@ABV0@@Z		; CServerInfoManager::operator=
PUBLIC	??_GCServerInfoManager@@UAEPAXI@Z		; CServerInfoManager::`scalar deleting destructor'
PUBLIC	??_ECServerInfoManager@@UAEPAXI@Z		; CServerInfoManager::`vector deleting destructor'
PUBLIC	??$_Maklocstr@D@std@@YAPADPBDPADABU_Cvtvec@@@Z	; std::_Maklocstr<char>
PUBLIC	??$_snprintf_s@$0IA@@@YAHAAY0IA@DIPBDZZ		; _snprintf_s<128>
PUBLIC	??$SerializeElements@G@@YGXAAVCArchive@@PAGH@Z	; SerializeElements<unsigned short>
PUBLIC	??$DumpElements@G@@YGXAAVCDumpContext@@PBGH@Z	; DumpElements<unsigned short>
PUBLIC	??0CPair@?$CMap@GGPAUtagGameServerInfo@@PAU1@@@IAE@G@Z ; CMap<unsigned short,unsigned short,tagGameServerInfo *,tagGameServerInfo *>::CPair::CPair
PUBLIC	??0CAssoc@?$CMap@GGPAUtagGameServerInfo@@PAU1@@@QAE@G@Z ; CMap<unsigned short,unsigned short,tagGameServerInfo *,tagGameServerInfo *>::CAssoc::CAssoc
PUBLIC	??$HashKey@G@@YGIG@Z				; HashKey<unsigned short>
PUBLIC	??$CompareElements@GG@@YGHPBG0@Z		; CompareElements<unsigned short,unsigned short>
PUBLIC	??$SerializeElements@PAUtagGameServerInfo@@@@YGXAAVCArchive@@PAPAUtagGameServerInfo@@H@Z ; SerializeElements<tagGameServerInfo *>
PUBLIC	??$DumpElements@PAUtagGameServerInfo@@@@YGXAAVCDumpContext@@PBQAUtagGameServerInfo@@H@Z ; DumpElements<tagGameServerInfo *>
PUBLIC	?_OptionsStorage@?1??__local_stdio_printf_options@@9@4_KA ; `__local_stdio_printf_options'::`2'::_OptionsStorage
PUBLIC	??_C@_02DPKJAMEF@?$CFd@				; `string'
PUBLIC	??_C@_00CNPNBAHC@@				; `string'
PUBLIC	??_C@_0HC@HBCNBCLF@c?3?2program?5files?5?$CIx86?$CJ?2microsof@ ; `string'
PUBLIC	??_C@_05PLCFPPOI@with?5@			; `string'
PUBLIC	??_C@_09HCLNAIDE@?5elements@			; `string'
PUBLIC	??_C@_01EEMJAFIK@?6@				; `string'
PUBLIC	??_R1A@?0A@EA@CObject@@8			; CObject::`RTTI Base Class Descriptor at (0,-1,0,64)'
PUBLIC	??_R0?AVCObject@@@8				; CObject `RTTI Type Descriptor'
PUBLIC	??_R3CObject@@8					; CObject::`RTTI Class Hierarchy Descriptor'
PUBLIC	??_R2CObject@@8					; CObject::`RTTI Base Class Array'
PUBLIC	??_C@_0GI@LKBGDILM@c?3?2program?5files?5?$CIx86?$CJ?2microsof@ ; `string'
PUBLIC	?__LINE__Var@?0??_Maklocwcs@std@@YAPA_WPB_W@Z@4JA ; `std::_Maklocwcs'::`1'::__LINE__Var
PUBLIC	??_C@_0GI@DJFLDKBN@c?3?2program?5files?5?$CIx86?$CJ?2microsof@ ; `string'
PUBLIC	??_7?$CTempldateHelper@UIDataBase@@@@6B@	; CTempldateHelper<IDataBase>::`vftable'
PUBLIC	??_7CDataBaseHelper@@6B@			; CDataBaseHelper::`vftable'
PUBLIC	??_C@_0P@IKJBDFNG@CreateDataBase@		; `string'
PUBLIC	??_C@_0BB@BEMLEOHB@KernelEngine?4dll@		; `string'
PUBLIC	??_7CModuleDBParameter@@6B@			; CModuleDBParameter::`vftable'
PUBLIC	??_7?$CMap@GGPAUtagGameServerInfo@@PAU1@@@6B@	; CMap<unsigned short,unsigned short,tagGameServerInfo *,tagGameServerInfo *>::`vftable'
PUBLIC	??_7?$CWHArray@PAUtagGameServerInfo@@ABQAU1@@@6B@ ; CWHArray<tagGameServerInfo *,tagGameServerInfo * const &>::`vftable'
PUBLIC	??_7CServerInfoBuffer@@6B@			; CServerInfoBuffer::`vftable'
PUBLIC	??_7?$CWHArray@PAUtagGameMatchOption@@ABQAU1@@@6B@ ; CWHArray<tagGameMatchOption *,tagGameMatchOption * const &>::`vftable'
PUBLIC	??_7CMatchOptionBuffer@@6B@			; CMatchOptionBuffer::`vftable'
PUBLIC	??_7CServerInfoManager@@6B@			; CServerInfoManager::`vftable'
PUBLIC	?__LINE__Var@?0???1CServerInfoBuffer@@UAE@XZ@4JA ; `CServerInfoBuffer::~CServerInfoBuffer'::`1'::__LINE__Var
PUBLIC	??_C@_0EO@GNEBGAKM@g?3?2?M?x?$LK?$PM?2happygamewh?2?$LH?$PO?N?q?$LG?K?2?O?$LF?M?$LD@ ; `string'
PUBLIC	?__LINE__Var@?0??InsertServerInfo@CServerInfoBuffer@@QAE_NPAUtagGameServerInfo@@@Z@4JA ; `CServerInfoBuffer::InsertServerInfo'::`1'::__LINE__Var
PUBLIC	?__LINE__Var@?0???1CMatchOptionBuffer@@UAE@XZ@4JA ; `CMatchOptionBuffer::~CMatchOptionBuffer'::`1'::__LINE__Var
PUBLIC	?__LINE__Var@?0??InsertMatchOption@CMatchOptionBuffer@@QAE_NPAUtagGameMatchOption@@@Z@4JA ; `CMatchOptionBuffer::InsertMatchOption'::`1'::__LINE__Var
PUBLIC	?__LINE__Var@?0??LoadGameServerInfo@CServerInfoManager@@QAE_NQADAAVCServerInfoBuffer@@@Z@4JA ; `CServerInfoManager::LoadGameServerInfo'::`1'::__LINE__Var
PUBLIC	??_C@_0L@FIEHJJML@?$EAwServerID@		; `string'
PUBLIC	??_C@_0BD@CBAFKNPB@?$EAstrServiceMachine@	; `string'
PUBLIC	??_C@_0BC@IIOJPJPJ@?$EAstrErrorDescribe@	; `string'
PUBLIC	??_C@_0BI@JPDDAIPE@GSP_GS_LoadGameRoomItem@	; `string'
PUBLIC	??_R0PAUIDataBaseException@@@8			; IDataBaseException * `RTTI Type Descriptor'
PUBLIC	?__LINE__Var@?0??LoadGameServerInfo@CServerInfoManager@@QAE_NQADGAAUtagGameServerInfo@@@Z@4JA ; `CServerInfoManager::LoadGameServerInfo'::`1'::__LINE__Var
PUBLIC	?__LINE__Var@?0??DeleteGameServer@CServerInfoManager@@QAE_NG@Z@4JA ; `CServerInfoManager::DeleteGameServer'::`1'::__LINE__Var
PUBLIC	??_C@_0BG@EDPMEAGC@GSP_GS_DeleteGameRoom@	; `string'
PUBLIC	?__LINE__Var@?0??InsertGameServer@CServerInfoManager@@QAE_NPAUtagGameServerCreate@@AAUtagGameServerInfo@@@Z@4JA ; `CServerInfoManager::InsertGameServer'::`1'::__LINE__Var
PUBLIC	??_C@_04JFFKLGJF@?$CF02X@			; `string'
PUBLIC	??_C@_08KFPBGPFE@?$EAwGameID@			; `string'
PUBLIC	??_C@_08HBBOJKPI@?$EAwKindID@			; `string'
PUBLIC	??_C@_08HHDCJIG@?$EAwNodeID@			; `string'
PUBLIC	??_C@_08GHPIGFA@?$EAwSortID@			; `string'
PUBLIC	??_C@_0M@DOJONCPP@?$EAlCellScore@		; `string'
PUBLIC	??_C@_0P@JILOLBML@?$EAwRevenueRatio@		; `string'
PUBLIC	??_C@_0P@BCEPIHID@?$EAlServiceScore@		; `string'
PUBLIC	??_C@_0BA@MOGKDICI@?$EAlRestrictScore@		; `string'
PUBLIC	??_C@_0BA@CGJIELGM@?$EAlMinTableScore@		; `string'
PUBLIC	??_C@_0BA@NKAHIJHK@?$EAlMinEnterScore@		; `string'
PUBLIC	??_C@_0BA@GDCBBCAL@?$EAlMaxEnterScore@		; `string'
PUBLIC	??_C@_0BC@CPKAFFOL@?$EAcbMinEnterMember@	; `string'
PUBLIC	??_C@_0BC@IBLDCNK@?$EAcbMaxEnterMember@		; `string'
PUBLIC	??_C@_0O@ELIMAAAE@?$EAdwServerRule@		; `string'
PUBLIC	??_C@_0BD@FCBMNBKD@?$EAdwAttachUserRight@	; `string'
PUBLIC	??_C@_0M@IBCKNPAA@?$EAwMaxPlayer@		; `string'
PUBLIC	??_C@_0N@JMGMPJ@?$EAwTableCount@		; `string'
PUBLIC	??_C@_0N@KHDIKACC@?$EAwServerPort@		; `string'
PUBLIC	??_C@_0N@MKJNBBCI@?$EAwServerKind@		; `string'
PUBLIC	??_C@_0N@HHJHPJNP@?$EAwServerType@		; `string'
PUBLIC	??_C@_0O@LAKNNJLO@?$EAwServerLevel@		; `string'
PUBLIC	??_C@_0P@HKFGBIA@?$EAstrServerName@		; `string'
PUBLIC	??_C@_0BB@MMFKNIGF@?$EAstrServerPasswd@		; `string'
PUBLIC	??_C@_0BC@OEHLNJCG@?$EAcbDistributeRule@	; `string'
PUBLIC	??_C@_0BE@HAABPICC@?$EAwMinDistributeUser@	; `string'
PUBLIC	??_C@_0BG@PGABJKOH@?$EAwDistributeTimeSpace@	; `string'
PUBLIC	??_C@_0BG@DNMICNEI@?$EAwDistributeDrawCount@	; `string'
PUBLIC	??_C@_0BF@EICMGAPH@?$EAwMinPartakeGameUser@	; `string'
PUBLIC	??_C@_0BF@OPBIOAIO@?$EAwMaxPartakeGameUser@	; `string'
PUBLIC	??_C@_0BB@PBIEFPDL@?$EAstrDataBaseName@		; `string'
PUBLIC	??_C@_0BB@EOFIIHMB@?$EAstrDataBaseAddr@		; `string'
PUBLIC	??_C@_0P@PGPKAIOB@?$EAstrCustomRule@		; `string'
PUBLIC	??_C@_0BB@ELKLEIJF@?$EAstrPersonalRule@		; `string'
PUBLIC	??_C@_0BG@EDGEFKPJ@GSP_GS_InsertGameRoom@	; `string'
PUBLIC	?__LINE__Var@?0??ModifyGameServer@CServerInfoManager@@QAE_NPAUtagGameServerCreate@@AAUtagGameServerInfo@@@Z@4JA ; `CServerInfoManager::ModifyGameServer'::`1'::__LINE__Var
PUBLIC	??_C@_0BG@HDLIAPBG@GSP_GS_ModifyGameRoom@	; `string'
PUBLIC	??_C@_0DA@PCJBGNDG@CreateGameServer?5?$LE?$LE?$LN?$KI?5PlatformD@ ; `string'
PUBLIC	?__LINE__Var@?0??ReadGameServerInfo@CServerInfoManager@@AAE_NAAVCDataBaseAide@@AAUtagGameServerInfo@@@Z@4JA ; `CServerInfoManager::ReadGameServerInfo'::`1'::__LINE__Var
PUBLIC	??_C@_06KGJDDPAK@GameID@			; `string'
PUBLIC	??_C@_08BHBELLIH@ServerID@			; `string'
PUBLIC	??_C@_06HCHMMKKG@KindID@			; `string'
PUBLIC	??_C@_06EBBHJNI@NodeID@				; `string'
PUBLIC	??_C@_06FBNNGAO@SortID@				; `string'
PUBLIC	??_C@_0O@DNEICACF@ClientVersion@		; `string'
PUBLIC	??_C@_0O@BNALHPOE@ServerVersion@		; `string'
PUBLIC	??_C@_08DBMACHKJ@GameName@			; `string'
PUBLIC	??_C@_0O@DLLFAKFN@ServerDLLName@		; `string'
PUBLIC	??_C@_0O@GDMCLMBH@ClientEXEName@		; `string'
PUBLIC	??_C@_09MMGMMPOJ@CellScore@			; `string'
PUBLIC	??_C@_0N@FEAJGFG@RevenueRatio@			; `string'
PUBLIC	??_C@_0N@KGDLKHJP@ServiceScore@			; `string'
PUBLIC	??_C@_0O@NKNPBAEH@RestrictScore@		; `string'
PUBLIC	??_C@_0O@DCCNGDAD@MinTableScore@		; `string'
PUBLIC	??_C@_0O@MOLCKBBF@MinEnterScore@		; `string'
PUBLIC	??_C@_0O@HHJEDKGE@MaxEnterScore@		; `string'
PUBLIC	??_C@_0P@LLHLENEP@MinEnterMember@		; `string'
PUBLIC	??_C@_0P@JMMACKHO@MaxEnterMember@		; `string'
PUBLIC	??_C@_0L@COJBOHGN@ServerRule@			; `string'
PUBLIC	??_C@_0BA@IBOCBCNP@AttachUserRight@		; `string'
PUBLIC	??_C@_09POAPIBJJ@MaxPlayer@			; `string'
PUBLIC	??_C@_0L@IJDAGCEH@TableCount@			; `string'
PUBLIC	??_C@_0L@COJEKOJM@ServerPort@			; `string'
PUBLIC	??_C@_0L@EDDBBPJG@ServerKind@			; `string'
PUBLIC	??_C@_0L@PODLPHGB@ServerType@			; `string'
PUBLIC	??_C@_0M@JMPNOLDL@ServerLevel@			; `string'
PUBLIC	??_C@_0L@FFDIDHBB@ServerName@			; `string'
PUBLIC	??_C@_0N@CGAIMFGC@ServerPasswd@			; `string'
PUBLIC	??_C@_0P@HAKAMBIC@DistributeRule@		; `string'
PUBLIC	??_C@_0BC@BPMHCGIJ@MinDistributeUser@		; `string'
PUBLIC	??_C@_0BE@NKJJGPNA@DistributeTimeSpace@		; `string'
PUBLIC	??_C@_0BE@BBFANIHP@DistributeDrawCount@		; `string'
PUBLIC	??_C@_0BD@JEHNMEJ@MinPartakeGameUser@		; `string'
PUBLIC	??_C@_0BD@KOHDFMDA@MaxPartakeGameUser@		; `string'
PUBLIC	??_C@_0N@BLNGECDM@DataBaseName@			; `string'
PUBLIC	??_C@_0N@KEAKJKMG@DataBaseAddr@			; `string'
PUBLIC	??_C@_0L@KEGHFOHA@CustomRule@			; `string'
PUBLIC	??_C@_0P@NECLNLN@ServiceMachine@		; `string'
PUBLIC	??_C@_0N@KBPJFFJC@PersonalRule@			; `string'
PUBLIC	?__LINE__Var@?0??LoadPersonalRoomParameter@CServerInfoManager@@QAE_NAAUtagPersonalRoomOption@@AAUtagPersonalRoomOptionRightAndFee@@G@Z@4JA ; `CServerInfoManager::LoadPersonalRoomParameter'::`1'::__LINE__Var
PUBLIC	??_C@_0CB@MMPODBFJ@GSP_GS_LoadPersonalRoomParamete@ ; `string'
PUBLIC	??_C@_0L@HLGININO@IsJoinGame@			; `string'
PUBLIC	??_C@_09BAGGAEBH@MinPeople@			; `string'
PUBLIC	??_C@_09BBGKJOKD@MaxPeople@			; `string'
PUBLIC	??_C@_0N@CNCFIDBJ@MaxCellScore@			; `string'
PUBLIC	??_C@_0BA@GCOMLPGF@PersonalRoomTax@		; `string'
PUBLIC	??_C@_0P@LNMJOPEM@CanCreateCount@		; `string'
PUBLIC	??_C@_0O@FDPMPBME@PlayTurnCount@		; `string'
PUBLIC	??_C@_0O@FAGABJFM@PlayTimeLimit@		; `string'
PUBLIC	??_C@_0BE@NHDBBOLF@TimeAfterBeginCount@		; `string'
PUBLIC	??_C@_0BB@BHHEMCMJ@TimeOffLineCount@		; `string'
PUBLIC	??_C@_0BB@EFKEMBID@TimeNotBeginGame@		; `string'
PUBLIC	??_C@_0BM@CMLNFFIM@TimeNotBeginAfterCreateRoom@	; `string'
PUBLIC	??_C@_0O@DEEAMCAI@BeginFreeTime@		; `string'
PUBLIC	??_C@_0M@OHDGOHJM@EndFreeTime@			; `string'
PUBLIC	??_C@_0M@JGNJEEEJ@CreateRight@			; `string'
PUBLIC	??_C@_09DFDKDCCP@?$EAdwKindID@			; `string'
PUBLIC	??_C@_0BP@BLHAELOH@GSP_MB_GetPersonalFeeParameter@ ; `string'
PUBLIC	??_C@_0P@MBIIKCNO@DrawCountLimit@		; `string'
PUBLIC	??_C@_08PACNKABG@TableFee@			; `string'
PUBLIC	??_C@_08MJHOBIFI@AAPayFee@			; `string'
PUBLIC	??_C@_08MILKFGPP@IniScore@			; `string'
PUBLIC	??_C@_08JJGOBBMF@GameMode@			; `string'
PUBLIC	??_C@_0O@PHLNKDAD@?$EAcbIsJoinGame@		; `string'
PUBLIC	??_C@_0N@BGGBCKEJ@?$EAcbMinPeople@		; `string'
PUBLIC	??_C@_0N@BHGNLAPN@?$EAcbMaxPeople@		; `string'
PUBLIC	??_C@_0BC@LFDMHEEC@?$EAlPersonalRoomTax@	; `string'
PUBLIC	??_C@_0P@JJFBKDAF@?$EAlMaxCellScore@		; `string'
PUBLIC	??_C@_0BB@NMCMDDIO@?$EAwCanCreateCount@		; `string'
PUBLIC	??_C@_0BA@NNNPOABK@?$EAwPlayTurnCount@		; `string'
PUBLIC	??_C@_0BA@NOEDAIIC@?$EAwPlayTimeLimit@		; `string'
PUBLIC	??_C@_0BG@PLKJOLIC@?$EAwTimeAfterBeginCount@	; `string'
PUBLIC	??_C@_0BD@GBNNIIBP@?$EAwTimeOffLineCount@	; `string'
PUBLIC	??_C@_0BD@DDANILFF@?$EAwTimeNotBeginGame@	; `string'
PUBLIC	??_C@_0BO@GAPHEMLN@?$EAwTimeNotBeginAfterCreateRoom@ ; `string'
PUBLIC	??_C@_0P@GODHDPFL@?$EAcbCreateRight@		; `string'
PUBLIC	??_C@_0BA@LKGDNDNG@?$EAwBeginFreeTime@		; `string'
PUBLIC	??_C@_0O@MLGGNFBJ@?$EAwEndFreeTime@		; `string'
PUBLIC	??_C@_0CD@MBGOMFKI@GSP_GS_InsertPersonalRoomParame@ ; `string'
PUBLIC	??_C@_0CC@PJKIIGNE@GSP_GS_DeletePersonalFeeParamet@ ; `string'
PUBLIC	??_C@_0BA@NEJOBMJG@?$EADrawCountLimit@		; `string'
PUBLIC	??_C@_0P@PPHKCKBK@?$EADrawTimeLimit@		; `string'
PUBLIC	??_C@_09GLBENLGO@?$EATableFee@			; `string'
PUBLIC	??_C@_09FCEHGDCA@?$EAAAPayFee@			; `string'
PUBLIC	??_C@_09FDIDCNIH@?$EAIniScore@			; `string'
PUBLIC	??_C@_0M@CIPFFAIA@?$EAcbGameMode@		; `string'
PUBLIC	??_C@_0CB@BGEDMOGM@GSP_GS_WritePersonalFeeParamete@ ; `string'
PUBLIC	??_C@_0BB@LABICMHO@?$LC?e?H?k?S?N?O?$LH?$LH?Q?S?C?$LD?v?$LE?m@ ; `string'
PUBLIC	??_C@_0BP@BNMLDPEJ@GSP_GR_DeletePersonalCellScore@ ; `string'
PUBLIC	??_C@_0BP@GEFHPGBC@GSP_GR_InsertPersonalCellScore@ ; `string'
PUBLIC	??_C@_0BB@HEGDPGKB@?$LC?e?H?k?S?N?O?$LH?$LF?W?$LH?V?$LD?v?$LE?m@ ; `string'
PUBLIC	??_C@_0M@EODDKFON@?$EAdwServerID@		; `string'
PUBLIC	??_C@_0CD@IBOJDKIM@GSP_GS_ModifyPersonalRoomParame@ ; `string'
PUBLIC	??_C@_09LOOPACNL@?$CFs?2?$CFd?4ini@		; `string'
PUBLIC	??_C@_07DOAOMMKG@Enabled@			; `string'
PUBLIC	??_C@_06CKGENIKG@Enable@			; `string'
PUBLIC	??_C@_06CJHLBMGC@Option@			; `string'
PUBLIC	??_C@_0BE@MAFCEFJP@TimeAfterCreateRoom@		; `string'
PUBLIC	??_C@_0BA@MEGPCNND@CreateRoomRight@		; `string'
PUBLIC	??_C@_0BB@NDJBEBBP@PlayTurnLimit_?$CFd@		; `string'
PUBLIC	??_C@_0N@BPNJNFLH@FeeParameter@			; `string'
PUBLIC	??_C@_09NPCPBNFG@PayFee_?$CFd@			; `string'
PUBLIC	??_C@_0M@PLHAIOPP@AAPayFee_?$CFd@		; `string'
PUBLIC	??_C@_0M@NFLEKBDJ@IniScore_?$CFd@		; `string'
PUBLIC	??_C@_0M@MCMOAOCB@GameMode_?$CFd@		; `string'
PUBLIC	??_C@_0N@LPFKKEBD@?3AM?3am?3PM?3pm@		; `string'
PUBLIC	??_C@_1BK@MHIKGOKE@?$AA?3?$AAA?$AAM?$AA?3?$AAa?$AAm?$AA?3?$AAP?$AAM?$AA?3?$AAp?$AAm@ ; `string'
PUBLIC	??_C@_0DG@CDIFDKED@g?3?2?M?x?$LK?$PM?2happygamewh?2?$LH?$PO?N?q?$LG?K?2?O?$LF?M?$LD@ ; `string'
PUBLIC	??_C@_0BD@LMOFNGMO@?$KB?$LA?$CFs?$KB?$LB?D?$KD?$LP?i?$LM?S?T?X?J?$KH?$LA?$NM@ ; `string'
PUBLIC	??_C@_0BM@PEGNCJOH@?U?R?$LC?$LL?$LF?$LN?W?i?$LM?$PO?$LE?$LE?$LN?$KI?$LK?$KP?J?$PN?$KB?$LA?$CFs?$KB?$LB?3?$CFd@ ; `string'
PUBLIC	??_C@_0BL@PDAODLKM@?$LF?w?S?C?$LK?$KP?J?$PN?$KB?$LA?$CFs?$KB?$LB?I?z?$LD?I?$LG?T?O?s?J?$KH?$LA?$NM@ ; `string'
PUBLIC	??_R0PAD@8					; char * `RTTI Type Descriptor'
PUBLIC	??_C@_0BJ@JGPFHIJF@?S?I?S?Z?$KB?$LA?$CFs?$KB?$LB?$KD?$KM?W?i?$LM?$PO?$LE?$LE?$LN?$KI?J?$KH?$LA?$NM@ ; `string'
PUBLIC	??_C@_0DB@JBNKENAJ@?W?i?$LM?$PO?$LE?$LE?$LN?$KI?$LK?$KP?J?$PN?$KB?$LA?$CFs?$KB?$LB?$LC?z?I?z?N?$LE?V?$KK?R?l?$LD?$KD?$LE@ ; `string'
PUBLIC	??_C@_03OHJIHPJH@?6?7?$FL@			; `string'
PUBLIC	??_C@_04OAFLPOMH@?$FN?5?$DN?5@			; `string'
PUBLIC	??_C@_0DF@LDFGAABH@g?3?2?M?x?$LK?$PM?2happygamewh?2?$LH?$PO?N?q?$LG?K?2?O?$LF?M?$LD@ ; `string'
PUBLIC	??_R4CDataBaseHelper@@6B@			; CDataBaseHelper::`RTTI Complete Object Locator'
PUBLIC	??_R0?AVCDataBaseHelper@@@8			; CDataBaseHelper `RTTI Type Descriptor'
PUBLIC	??_R3CDataBaseHelper@@8				; CDataBaseHelper::`RTTI Class Hierarchy Descriptor'
PUBLIC	??_R2CDataBaseHelper@@8				; CDataBaseHelper::`RTTI Base Class Array'
PUBLIC	??_R1A@?0A@EA@CDataBaseHelper@@8		; CDataBaseHelper::`RTTI Base Class Descriptor at (0,-1,0,64)'
PUBLIC	??_R1A@?0A@EA@?$CTempldateHelper@UIDataBase@@@@8 ; CTempldateHelper<IDataBase>::`RTTI Base Class Descriptor at (0,-1,0,64)'
PUBLIC	??_R0?AV?$CTempldateHelper@UIDataBase@@@@@8	; CTempldateHelper<IDataBase> `RTTI Type Descriptor'
PUBLIC	??_R3?$CTempldateHelper@UIDataBase@@@@8		; CTempldateHelper<IDataBase>::`RTTI Class Hierarchy Descriptor'
PUBLIC	??_R2?$CTempldateHelper@UIDataBase@@@@8		; CTempldateHelper<IDataBase>::`RTTI Base Class Array'
PUBLIC	??_R4?$CTempldateHelper@UIDataBase@@@@6B@	; CTempldateHelper<IDataBase>::`RTTI Complete Object Locator'
PUBLIC	??_R4CModuleDBParameter@@6B@			; CModuleDBParameter::`RTTI Complete Object Locator'
PUBLIC	??_R0?AVCModuleDBParameter@@@8			; CModuleDBParameter `RTTI Type Descriptor'
PUBLIC	??_R3CModuleDBParameter@@8			; CModuleDBParameter::`RTTI Class Hierarchy Descriptor'
PUBLIC	??_R2CModuleDBParameter@@8			; CModuleDBParameter::`RTTI Base Class Array'
PUBLIC	??_R1A@?0A@EA@CModuleDBParameter@@8		; CModuleDBParameter::`RTTI Base Class Descriptor at (0,-1,0,64)'
PUBLIC	??_R4?$CWHArray@PAUtagGameServerInfo@@ABQAU1@@@6B@ ; CWHArray<tagGameServerInfo *,tagGameServerInfo * const &>::`RTTI Complete Object Locator'
PUBLIC	??_R0?AV?$CWHArray@PAUtagGameServerInfo@@ABQAU1@@@@8 ; CWHArray<tagGameServerInfo *,tagGameServerInfo * const &> `RTTI Type Descriptor'
PUBLIC	??_R3?$CWHArray@PAUtagGameServerInfo@@ABQAU1@@@8 ; CWHArray<tagGameServerInfo *,tagGameServerInfo * const &>::`RTTI Class Hierarchy Descriptor'
PUBLIC	??_R2?$CWHArray@PAUtagGameServerInfo@@ABQAU1@@@8 ; CWHArray<tagGameServerInfo *,tagGameServerInfo * const &>::`RTTI Base Class Array'
PUBLIC	??_R1A@?0A@EA@?$CWHArray@PAUtagGameServerInfo@@ABQAU1@@@8 ; CWHArray<tagGameServerInfo *,tagGameServerInfo * const &>::`RTTI Base Class Descriptor at (0,-1,0,64)'
PUBLIC	??_R4?$CWHArray@PAUtagGameMatchOption@@ABQAU1@@@6B@ ; CWHArray<tagGameMatchOption *,tagGameMatchOption * const &>::`RTTI Complete Object Locator'
PUBLIC	??_R0?AV?$CWHArray@PAUtagGameMatchOption@@ABQAU1@@@@8 ; CWHArray<tagGameMatchOption *,tagGameMatchOption * const &> `RTTI Type Descriptor'
PUBLIC	??_R3?$CWHArray@PAUtagGameMatchOption@@ABQAU1@@@8 ; CWHArray<tagGameMatchOption *,tagGameMatchOption * const &>::`RTTI Class Hierarchy Descriptor'
PUBLIC	??_R2?$CWHArray@PAUtagGameMatchOption@@ABQAU1@@@8 ; CWHArray<tagGameMatchOption *,tagGameMatchOption * const &>::`RTTI Base Class Array'
PUBLIC	??_R1A@?0A@EA@?$CWHArray@PAUtagGameMatchOption@@ABQAU1@@@8 ; CWHArray<tagGameMatchOption *,tagGameMatchOption * const &>::`RTTI Base Class Descriptor at (0,-1,0,64)'
PUBLIC	??_R4?$CMap@GGPAUtagGameServerInfo@@PAU1@@@6B@	; CMap<unsigned short,unsigned short,tagGameServerInfo *,tagGameServerInfo *>::`RTTI Complete Object Locator'
PUBLIC	??_R0?AV?$CMap@GGPAUtagGameServerInfo@@PAU1@@@@8 ; CMap<unsigned short,unsigned short,tagGameServerInfo *,tagGameServerInfo *> `RTTI Type Descriptor'
PUBLIC	??_R3?$CMap@GGPAUtagGameServerInfo@@PAU1@@@8	; CMap<unsigned short,unsigned short,tagGameServerInfo *,tagGameServerInfo *>::`RTTI Class Hierarchy Descriptor'
PUBLIC	??_R2?$CMap@GGPAUtagGameServerInfo@@PAU1@@@8	; CMap<unsigned short,unsigned short,tagGameServerInfo *,tagGameServerInfo *>::`RTTI Base Class Array'
PUBLIC	??_R1A@?0A@EA@?$CMap@GGPAUtagGameServerInfo@@PAU1@@@8 ; CMap<unsigned short,unsigned short,tagGameServerInfo *,tagGameServerInfo *>::`RTTI Base Class Descriptor at (0,-1,0,64)'
PUBLIC	??_R4CServerInfoBuffer@@6B@			; CServerInfoBuffer::`RTTI Complete Object Locator'
PUBLIC	??_R0?AVCServerInfoBuffer@@@8			; CServerInfoBuffer `RTTI Type Descriptor'
PUBLIC	??_R3CServerInfoBuffer@@8			; CServerInfoBuffer::`RTTI Class Hierarchy Descriptor'
PUBLIC	??_R2CServerInfoBuffer@@8			; CServerInfoBuffer::`RTTI Base Class Array'
PUBLIC	??_R1A@?0A@EA@CServerInfoBuffer@@8		; CServerInfoBuffer::`RTTI Base Class Descriptor at (0,-1,0,64)'
PUBLIC	??_R4CMatchOptionBuffer@@6B@			; CMatchOptionBuffer::`RTTI Complete Object Locator'
PUBLIC	??_R0?AVCMatchOptionBuffer@@@8			; CMatchOptionBuffer `RTTI Type Descriptor'
PUBLIC	??_R3CMatchOptionBuffer@@8			; CMatchOptionBuffer::`RTTI Class Hierarchy Descriptor'
PUBLIC	??_R2CMatchOptionBuffer@@8			; CMatchOptionBuffer::`RTTI Base Class Array'
PUBLIC	??_R1A@?0A@EA@CMatchOptionBuffer@@8		; CMatchOptionBuffer::`RTTI Base Class Descriptor at (0,-1,0,64)'
PUBLIC	??_R4CServerInfoManager@@6B@			; CServerInfoManager::`RTTI Complete Object Locator'
PUBLIC	??_R0?AVCServerInfoManager@@@8			; CServerInfoManager `RTTI Type Descriptor'
PUBLIC	??_R3CServerInfoManager@@8			; CServerInfoManager::`RTTI Class Hierarchy Descriptor'
PUBLIC	??_R2CServerInfoManager@@8			; CServerInfoManager::`RTTI Base Class Array'
PUBLIC	??_R1A@?0A@EA@CServerInfoManager@@8		; CServerInfoManager::`RTTI Base Class Descriptor at (0,-1,0,64)'
EXTRN	??_M@YGXPAXIIP6EX0@Z@Z:PROC			; `eh vector destructor iterator'
EXTRN	??2@YAPAXI@Z:PROC				; operator new
EXTRN	??3@YAXPAXI@Z:PROC				; operator delete
EXTRN	?__global_delete@@YAXPAXI@Z:PROC		; __global_delete
EXTRN	??_U@YAPAXI@Z:PROC				; operator new[]
EXTRN	??_V@YAXPAX@Z:PROC				; operator delete[]
EXTRN	??_V@YAXPAXI@Z:PROC				; operator delete[]
EXTRN	_memcpy:PROC
EXTRN	_memmove:PROC
EXTRN	_memset:PROC
EXTRN	__imp__wcslen:PROC
EXTRN	_strlen:PROC
EXTRN	__imp__GetLastError@0:PROC
EXTRN	__imp__GetProcAddress@8:PROC
EXTRN	__imp__lstrcpynA@12:PROC
EXTRN	__imp__lstrlenA@4:PROC
EXTRN	__imp__WritePrivateProfileStringA@16:PROC
EXTRN	__imp__wsprintfA:PROC
EXTRN	__imp__PeekMessageA@20:PROC
EXTRN	__imp__PostQuitMessage@4:PROC
EXTRN	__imp____stdio_common_vsprintf:PROC
EXTRN	__imp____stdio_common_vsnprintf_s:PROC
EXTRN	__imp__ldiv:PROC
EXTRN	__imp___calloc_dbg:PROC
EXTRN	__imp___CrtDbgReport:PROC
EXTRN	?AfxAssertValidObject@@YGXPBVCObject@@PBDH@Z:PROC ; AfxAssertValidObject
EXTRN	?AfxThrowInvalidArgException@@YGXXZ:PROC	; AfxThrowInvalidArgException
EXTRN	?GetRuntimeClass@CObject@@UBEPAUCRuntimeClass@@XZ:PROC ; CObject::GetRuntimeClass
EXTRN	??1CObject@@UAE@XZ:PROC				; CObject::~CObject
EXTRN	??3CObject@@SGXPAX@Z:PROC			; CObject::operator delete
EXTRN	??0CObject@@IAE@XZ:PROC				; CObject::CObject
EXTRN	?Serialize@CObject@@UAEXAAVCArchive@@@Z:PROC	; CObject::Serialize
EXTRN	?AssertValid@CObject@@UBEXXZ:PROC		; CObject::AssertValid
EXTRN	?Dump@CObject@@UBEXAAVCDumpContext@@@Z:PROC	; CObject::Dump
EXTRN	?AfxIsValidAddress@@YGHPBXIH@Z:PROC		; AfxIsValidAddress
EXTRN	??_U@YAPAXIPBDH@Z:PROC				; operator new[]
EXTRN	?IsStoring@CArchive@@QBEHXZ:PROC		; CArchive::IsStoring
EXTRN	?EnsureRead@CArchive@@QAEXPAXI@Z:PROC		; CArchive::EnsureRead
EXTRN	?Write@CArchive@@QAEXPBXI@Z:PROC		; CArchive::Write
EXTRN	?ReadCount@CArchive@@QAEKXZ:PROC		; CArchive::ReadCount
EXTRN	?WriteCount@CArchive@@QAEXK@Z:PROC		; CArchive::WriteCount
EXTRN	?GetDepth@CDumpContext@@QBEHXZ:PROC		; CDumpContext::GetDepth
EXTRN	??6CDumpContext@@QAEAAV0@PBD@Z:PROC		; CDumpContext::operator<<
EXTRN	??6CDumpContext@@QAEAAV0@H@Z:PROC		; CDumpContext::operator<<
EXTRN	?Create@CPlex@@SGPAU1@AAPAU1@II@Z:PROC		; CPlex::Create
EXTRN	?FreeDataChain@CPlex@@QAEXXZ:PROC		; CPlex::FreeDataChain
EXTRN	?AfxMessageBox@@YGHPBDII@Z:PROC			; AfxMessageBox
EXTRN	?AfxLoadLibrary@@YGPAUHINSTANCE__@@PBD@Z:PROC	; AfxLoadLibrary
EXTRN	?AfxFreeLibrary@@YGHPAUHINSTANCE__@@@Z:PROC	; AfxFreeLibrary
EXTRN	?_Xbad_alloc@std@@YAXXZ:PROC			; std::_Xbad_alloc
EXTRN	__Mbrtowc:PROC
EXTRN	__imp_?_Getcvt@_Locinfo@std@@QBE?AU_Cvtvec@@XZ:PROC
EXTRN	__imp_?_Getdays@_Locinfo@std@@QBEPBDXZ:PROC
EXTRN	__imp_?_Getmonths@_Locinfo@std@@QBEPBDXZ:PROC
EXTRN	__imp_?_W_Getdays@_Locinfo@std@@QBEPBGXZ:PROC
EXTRN	__imp_?_W_Getmonths@_Locinfo@std@@QBEPBGXZ:PROC
EXTRN	__imp_?GetWorkDirectory@CWHService@@SA_NQADG@Z:PROC
EXTRN	__imp_?GetModuleVersion@CWHService@@SA_NPBDAAK@Z:PROC
EXTRN	??_E?$CTempldateHelper@UIDataBase@@@@UAEPAXI@Z:PROC ; CTempldateHelper<IDataBase>::`vector deleting destructor'
EXTRN	??_ECDataBaseHelper@@UAEPAXI@Z:PROC		; CDataBaseHelper::`vector deleting destructor'
EXTRN	__imp_??0CDataBaseAide@@QAE@PAUIUnknownEx@@@Z:PROC
EXTRN	__imp_??1CDataBaseAide@@UAE@XZ:PROC
EXTRN	__imp_?SetDataBase@CDataBaseAide@@QAE_NPAUIUnknownEx@@@Z:PROC
EXTRN	__imp_?GetValue_INT@CDataBaseAide@@QAEHPBD@Z:PROC
EXTRN	__imp_?GetValue_LONG@CDataBaseAide@@QAEJPBD@Z:PROC
EXTRN	__imp_?GetValue_BYTE@CDataBaseAide@@QAEEPBD@Z:PROC
EXTRN	__imp_?GetValue_WORD@CDataBaseAide@@QAEGPBD@Z:PROC
EXTRN	__imp_?GetValue_DWORD@CDataBaseAide@@QAEKPBD@Z:PROC
EXTRN	__imp_?GetValue_LONGLONG@CDataBaseAide@@QAE_JPBD@Z:PROC
EXTRN	__imp_?GetValue_String@CDataBaseAide@@QAEXPBDPADI@Z:PROC
EXTRN	__imp_?ResetParameter@CDataBaseAide@@QAEXXZ:PROC
EXTRN	__imp_?GetParameter@CDataBaseAide@@QAEXPBDPADI@Z:PROC
EXTRN	__imp_?AddParameter@CDataBaseAide@@QAEXPBDHW4ParameterDirectionEnum@ADOCG@@@Z:PROC
EXTRN	__imp_?AddParameter@CDataBaseAide@@QAEXPBDJW4ParameterDirectionEnum@ADOCG@@@Z:PROC
EXTRN	__imp_?AddParameter@CDataBaseAide@@QAEXPBD_JW4ParameterDirectionEnum@ADOCG@@@Z:PROC
EXTRN	__imp_?AddParameter@CDataBaseAide@@QAEXPBDEW4ParameterDirectionEnum@ADOCG@@@Z:PROC
EXTRN	__imp_?AddParameter@CDataBaseAide@@QAEXPBDGW4ParameterDirectionEnum@ADOCG@@@Z:PROC
EXTRN	__imp_?AddParameter@CDataBaseAide@@QAEXPBDKW4ParameterDirectionEnum@ADOCG@@@Z:PROC
EXTRN	__imp_?AddParameter@CDataBaseAide@@QAEXPBD0W4ParameterDirectionEnum@ADOCG@@@Z:PROC
EXTRN	__imp_?AddParameterOutput@CDataBaseAide@@QAEXPBDPADIW4ParameterDirectionEnum@ADOCG@@@Z:PROC
EXTRN	__imp_?ExecuteProcess@CDataBaseAide@@QAEJPBD_N@Z:PROC
EXTRN	__imp_??0CDataBaseAide@@QAE@ABV0@@Z:PROC
EXTRN	__imp_?TraceString@CTraceService@@SA_NPBDW4enTraceLevel@@@Z:PROC
EXTRN	??1CModuleDBParameter@@UAE@XZ:PROC		; CModuleDBParameter::~CModuleDBParameter
EXTRN	??_E?$CMap@GGPAUtagGameServerInfo@@PAU1@@@UAEPAXI@Z:PROC ; CMap<unsigned short,unsigned short,tagGameServerInfo *,tagGameServerInfo *>::`vector deleting destructor'
EXTRN	??_E?$CWHArray@PAUtagGameServerInfo@@ABQAU1@@@UAEPAXI@Z:PROC ; CWHArray<tagGameServerInfo *,tagGameServerInfo * const &>::`vector deleting destructor'
EXTRN	??_E?$CWHArray@PAUtagGameMatchOption@@ABQAU1@@@UAEPAXI@Z:PROC ; CWHArray<tagGameMatchOption *,tagGameMatchOption * const &>::`vector deleting destructor'
EXTRN	@__security_check_cookie@4:PROC
EXTRN	___CxxFrameHandler3:PROC
EXTRN	__chkstk:PROC
EXTRN	_memset:PROC
EXTRN	??_7type_info@@6B@:QWORD			; type_info::`vftable'
EXTRN	?m_pModuleDBParameter@CModuleDBParameter@@1PAV1@A:DWORD ; CModuleDBParameter::m_pModuleDBParameter
EXTRN	___security_cookie:DWORD
;	COMDAT ?_OptionsStorage@?1??__local_stdio_printf_options@@9@4_KA
_BSS	SEGMENT
?_OptionsStorage@?1??__local_stdio_printf_options@@9@4_KA DQ 01H DUP (?) ; `__local_stdio_printf_options'::`2'::_OptionsStorage
_BSS	ENDS
;	COMDAT ??_R1A@?0A@EA@CServerInfoManager@@8
rdata$r	SEGMENT
??_R1A@?0A@EA@CServerInfoManager@@8 DD FLAT:??_R0?AVCServerInfoManager@@@8 ; CServerInfoManager::`RTTI Base Class Descriptor at (0,-1,0,64)'
	DD	00H
	DD	00H
	DD	0ffffffffH
	DD	00H
	DD	040H
	DD	FLAT:??_R3CServerInfoManager@@8
rdata$r	ENDS
;	COMDAT ??_R2CServerInfoManager@@8
rdata$r	SEGMENT
??_R2CServerInfoManager@@8 DD FLAT:??_R1A@?0A@EA@CServerInfoManager@@8 ; CServerInfoManager::`RTTI Base Class Array'
rdata$r	ENDS
;	COMDAT ??_R3CServerInfoManager@@8
rdata$r	SEGMENT
??_R3CServerInfoManager@@8 DD 00H			; CServerInfoManager::`RTTI Class Hierarchy Descriptor'
	DD	00H
	DD	01H
	DD	FLAT:??_R2CServerInfoManager@@8
rdata$r	ENDS
;	COMDAT ??_R0?AVCServerInfoManager@@@8
data$r	SEGMENT
??_R0?AVCServerInfoManager@@@8 DD FLAT:??_7type_info@@6B@ ; CServerInfoManager `RTTI Type Descriptor'
	DD	00H
	DB	'.?AVCServerInfoManager@@', 00H
data$r	ENDS
;	COMDAT ??_R4CServerInfoManager@@6B@
rdata$r	SEGMENT
??_R4CServerInfoManager@@6B@ DD 00H			; CServerInfoManager::`RTTI Complete Object Locator'
	DD	00H
	DD	00H
	DD	FLAT:??_R0?AVCServerInfoManager@@@8
	DD	FLAT:??_R3CServerInfoManager@@8
rdata$r	ENDS
;	COMDAT ??_R1A@?0A@EA@CMatchOptionBuffer@@8
rdata$r	SEGMENT
??_R1A@?0A@EA@CMatchOptionBuffer@@8 DD FLAT:??_R0?AVCMatchOptionBuffer@@@8 ; CMatchOptionBuffer::`RTTI Base Class Descriptor at (0,-1,0,64)'
	DD	00H
	DD	00H
	DD	0ffffffffH
	DD	00H
	DD	040H
	DD	FLAT:??_R3CMatchOptionBuffer@@8
rdata$r	ENDS
;	COMDAT ??_R2CMatchOptionBuffer@@8
rdata$r	SEGMENT
??_R2CMatchOptionBuffer@@8 DD FLAT:??_R1A@?0A@EA@CMatchOptionBuffer@@8 ; CMatchOptionBuffer::`RTTI Base Class Array'
rdata$r	ENDS
;	COMDAT ??_R3CMatchOptionBuffer@@8
rdata$r	SEGMENT
??_R3CMatchOptionBuffer@@8 DD 00H			; CMatchOptionBuffer::`RTTI Class Hierarchy Descriptor'
	DD	00H
	DD	01H
	DD	FLAT:??_R2CMatchOptionBuffer@@8
rdata$r	ENDS
;	COMDAT ??_R0?AVCMatchOptionBuffer@@@8
data$r	SEGMENT
??_R0?AVCMatchOptionBuffer@@@8 DD FLAT:??_7type_info@@6B@ ; CMatchOptionBuffer `RTTI Type Descriptor'
	DD	00H
	DB	'.?AVCMatchOptionBuffer@@', 00H
data$r	ENDS
;	COMDAT ??_R4CMatchOptionBuffer@@6B@
rdata$r	SEGMENT
??_R4CMatchOptionBuffer@@6B@ DD 00H			; CMatchOptionBuffer::`RTTI Complete Object Locator'
	DD	00H
	DD	00H
	DD	FLAT:??_R0?AVCMatchOptionBuffer@@@8
	DD	FLAT:??_R3CMatchOptionBuffer@@8
rdata$r	ENDS
;	COMDAT ??_R1A@?0A@EA@CServerInfoBuffer@@8
rdata$r	SEGMENT
??_R1A@?0A@EA@CServerInfoBuffer@@8 DD FLAT:??_R0?AVCServerInfoBuffer@@@8 ; CServerInfoBuffer::`RTTI Base Class Descriptor at (0,-1,0,64)'
	DD	00H
	DD	00H
	DD	0ffffffffH
	DD	00H
	DD	040H
	DD	FLAT:??_R3CServerInfoBuffer@@8
rdata$r	ENDS
;	COMDAT ??_R2CServerInfoBuffer@@8
rdata$r	SEGMENT
??_R2CServerInfoBuffer@@8 DD FLAT:??_R1A@?0A@EA@CServerInfoBuffer@@8 ; CServerInfoBuffer::`RTTI Base Class Array'
rdata$r	ENDS
;	COMDAT ??_R3CServerInfoBuffer@@8
rdata$r	SEGMENT
??_R3CServerInfoBuffer@@8 DD 00H			; CServerInfoBuffer::`RTTI Class Hierarchy Descriptor'
	DD	00H
	DD	01H
	DD	FLAT:??_R2CServerInfoBuffer@@8
rdata$r	ENDS
;	COMDAT ??_R0?AVCServerInfoBuffer@@@8
data$r	SEGMENT
??_R0?AVCServerInfoBuffer@@@8 DD FLAT:??_7type_info@@6B@ ; CServerInfoBuffer `RTTI Type Descriptor'
	DD	00H
	DB	'.?AVCServerInfoBuffer@@', 00H
data$r	ENDS
;	COMDAT ??_R4CServerInfoBuffer@@6B@
rdata$r	SEGMENT
??_R4CServerInfoBuffer@@6B@ DD 00H			; CServerInfoBuffer::`RTTI Complete Object Locator'
	DD	00H
	DD	00H
	DD	FLAT:??_R0?AVCServerInfoBuffer@@@8
	DD	FLAT:??_R3CServerInfoBuffer@@8
rdata$r	ENDS
;	COMDAT ??_R1A@?0A@EA@?$CMap@GGPAUtagGameServerInfo@@PAU1@@@8
rdata$r	SEGMENT
??_R1A@?0A@EA@?$CMap@GGPAUtagGameServerInfo@@PAU1@@@8 DD FLAT:??_R0?AV?$CMap@GGPAUtagGameServerInfo@@PAU1@@@@8 ; CMap<unsigned short,unsigned short,tagGameServerInfo *,tagGameServerInfo *>::`RTTI Base Class Descriptor at (0,-1,0,64)'
	DD	01H
	DD	00H
	DD	0ffffffffH
	DD	00H
	DD	040H
	DD	FLAT:??_R3?$CMap@GGPAUtagGameServerInfo@@PAU1@@@8
rdata$r	ENDS
;	COMDAT ??_R2?$CMap@GGPAUtagGameServerInfo@@PAU1@@@8
rdata$r	SEGMENT
??_R2?$CMap@GGPAUtagGameServerInfo@@PAU1@@@8 DD FLAT:??_R1A@?0A@EA@?$CMap@GGPAUtagGameServerInfo@@PAU1@@@8 ; CMap<unsigned short,unsigned short,tagGameServerInfo *,tagGameServerInfo *>::`RTTI Base Class Array'
	DD	FLAT:??_R1A@?0A@EA@CObject@@8
rdata$r	ENDS
;	COMDAT ??_R3?$CMap@GGPAUtagGameServerInfo@@PAU1@@@8
rdata$r	SEGMENT
??_R3?$CMap@GGPAUtagGameServerInfo@@PAU1@@@8 DD 00H	; CMap<unsigned short,unsigned short,tagGameServerInfo *,tagGameServerInfo *>::`RTTI Class Hierarchy Descriptor'
	DD	00H
	DD	02H
	DD	FLAT:??_R2?$CMap@GGPAUtagGameServerInfo@@PAU1@@@8
rdata$r	ENDS
;	COMDAT ??_R0?AV?$CMap@GGPAUtagGameServerInfo@@PAU1@@@@8
data$r	SEGMENT
??_R0?AV?$CMap@GGPAUtagGameServerInfo@@PAU1@@@@8 DD FLAT:??_7type_info@@6B@ ; CMap<unsigned short,unsigned short,tagGameServerInfo *,tagGameServerInfo *> `RTTI Type Descriptor'
	DD	00H
	DB	'.?AV?$CMap@GGPAUtagGameServerInfo@@PAU1@@@', 00H
data$r	ENDS
;	COMDAT ??_R4?$CMap@GGPAUtagGameServerInfo@@PAU1@@@6B@
rdata$r	SEGMENT
??_R4?$CMap@GGPAUtagGameServerInfo@@PAU1@@@6B@ DD 00H	; CMap<unsigned short,unsigned short,tagGameServerInfo *,tagGameServerInfo *>::`RTTI Complete Object Locator'
	DD	00H
	DD	00H
	DD	FLAT:??_R0?AV?$CMap@GGPAUtagGameServerInfo@@PAU1@@@@8
	DD	FLAT:??_R3?$CMap@GGPAUtagGameServerInfo@@PAU1@@@8
rdata$r	ENDS
;	COMDAT ??_R1A@?0A@EA@?$CWHArray@PAUtagGameMatchOption@@ABQAU1@@@8
rdata$r	SEGMENT
??_R1A@?0A@EA@?$CWHArray@PAUtagGameMatchOption@@ABQAU1@@@8 DD FLAT:??_R0?AV?$CWHArray@PAUtagGameMatchOption@@ABQAU1@@@@8 ; CWHArray<tagGameMatchOption *,tagGameMatchOption * const &>::`RTTI Base Class Descriptor at (0,-1,0,64)'
	DD	00H
	DD	00H
	DD	0ffffffffH
	DD	00H
	DD	040H
	DD	FLAT:??_R3?$CWHArray@PAUtagGameMatchOption@@ABQAU1@@@8
rdata$r	ENDS
;	COMDAT ??_R2?$CWHArray@PAUtagGameMatchOption@@ABQAU1@@@8
rdata$r	SEGMENT
??_R2?$CWHArray@PAUtagGameMatchOption@@ABQAU1@@@8 DD FLAT:??_R1A@?0A@EA@?$CWHArray@PAUtagGameMatchOption@@ABQAU1@@@8 ; CWHArray<tagGameMatchOption *,tagGameMatchOption * const &>::`RTTI Base Class Array'
rdata$r	ENDS
;	COMDAT ??_R3?$CWHArray@PAUtagGameMatchOption@@ABQAU1@@@8
rdata$r	SEGMENT
??_R3?$CWHArray@PAUtagGameMatchOption@@ABQAU1@@@8 DD 00H ; CWHArray<tagGameMatchOption *,tagGameMatchOption * const &>::`RTTI Class Hierarchy Descriptor'
	DD	00H
	DD	01H
	DD	FLAT:??_R2?$CWHArray@PAUtagGameMatchOption@@ABQAU1@@@8
rdata$r	ENDS
;	COMDAT ??_R0?AV?$CWHArray@PAUtagGameMatchOption@@ABQAU1@@@@8
data$r	SEGMENT
??_R0?AV?$CWHArray@PAUtagGameMatchOption@@ABQAU1@@@@8 DD FLAT:??_7type_info@@6B@ ; CWHArray<tagGameMatchOption *,tagGameMatchOption * const &> `RTTI Type Descriptor'
	DD	00H
	DB	'.?AV?$CWHArray@PAUtagGameMatchOption@@ABQAU1@@@', 00H
data$r	ENDS
;	COMDAT ??_R4?$CWHArray@PAUtagGameMatchOption@@ABQAU1@@@6B@
rdata$r	SEGMENT
??_R4?$CWHArray@PAUtagGameMatchOption@@ABQAU1@@@6B@ DD 00H ; CWHArray<tagGameMatchOption *,tagGameMatchOption * const &>::`RTTI Complete Object Locator'
	DD	00H
	DD	00H
	DD	FLAT:??_R0?AV?$CWHArray@PAUtagGameMatchOption@@ABQAU1@@@@8
	DD	FLAT:??_R3?$CWHArray@PAUtagGameMatchOption@@ABQAU1@@@8
rdata$r	ENDS
;	COMDAT ??_R1A@?0A@EA@?$CWHArray@PAUtagGameServerInfo@@ABQAU1@@@8
rdata$r	SEGMENT
??_R1A@?0A@EA@?$CWHArray@PAUtagGameServerInfo@@ABQAU1@@@8 DD FLAT:??_R0?AV?$CWHArray@PAUtagGameServerInfo@@ABQAU1@@@@8 ; CWHArray<tagGameServerInfo *,tagGameServerInfo * const &>::`RTTI Base Class Descriptor at (0,-1,0,64)'
	DD	00H
	DD	00H
	DD	0ffffffffH
	DD	00H
	DD	040H
	DD	FLAT:??_R3?$CWHArray@PAUtagGameServerInfo@@ABQAU1@@@8
rdata$r	ENDS
;	COMDAT ??_R2?$CWHArray@PAUtagGameServerInfo@@ABQAU1@@@8
rdata$r	SEGMENT
??_R2?$CWHArray@PAUtagGameServerInfo@@ABQAU1@@@8 DD FLAT:??_R1A@?0A@EA@?$CWHArray@PAUtagGameServerInfo@@ABQAU1@@@8 ; CWHArray<tagGameServerInfo *,tagGameServerInfo * const &>::`RTTI Base Class Array'
rdata$r	ENDS
;	COMDAT ??_R3?$CWHArray@PAUtagGameServerInfo@@ABQAU1@@@8
rdata$r	SEGMENT
??_R3?$CWHArray@PAUtagGameServerInfo@@ABQAU1@@@8 DD 00H	; CWHArray<tagGameServerInfo *,tagGameServerInfo * const &>::`RTTI Class Hierarchy Descriptor'
	DD	00H
	DD	01H
	DD	FLAT:??_R2?$CWHArray@PAUtagGameServerInfo@@ABQAU1@@@8
rdata$r	ENDS
;	COMDAT ??_R0?AV?$CWHArray@PAUtagGameServerInfo@@ABQAU1@@@@8
data$r	SEGMENT
??_R0?AV?$CWHArray@PAUtagGameServerInfo@@ABQAU1@@@@8 DD FLAT:??_7type_info@@6B@ ; CWHArray<tagGameServerInfo *,tagGameServerInfo * const &> `RTTI Type Descriptor'
	DD	00H
	DB	'.?AV?$CWHArray@PAUtagGameServerInfo@@ABQAU1@@@', 00H
data$r	ENDS
;	COMDAT ??_R4?$CWHArray@PAUtagGameServerInfo@@ABQAU1@@@6B@
rdata$r	SEGMENT
??_R4?$CWHArray@PAUtagGameServerInfo@@ABQAU1@@@6B@ DD 00H ; CWHArray<tagGameServerInfo *,tagGameServerInfo * const &>::`RTTI Complete Object Locator'
	DD	00H
	DD	00H
	DD	FLAT:??_R0?AV?$CWHArray@PAUtagGameServerInfo@@ABQAU1@@@@8
	DD	FLAT:??_R3?$CWHArray@PAUtagGameServerInfo@@ABQAU1@@@8
rdata$r	ENDS
;	COMDAT ??_R1A@?0A@EA@CModuleDBParameter@@8
rdata$r	SEGMENT
??_R1A@?0A@EA@CModuleDBParameter@@8 DD FLAT:??_R0?AVCModuleDBParameter@@@8 ; CModuleDBParameter::`RTTI Base Class Descriptor at (0,-1,0,64)'
	DD	00H
	DD	00H
	DD	0ffffffffH
	DD	00H
	DD	040H
	DD	FLAT:??_R3CModuleDBParameter@@8
rdata$r	ENDS
;	COMDAT ??_R2CModuleDBParameter@@8
rdata$r	SEGMENT
??_R2CModuleDBParameter@@8 DD FLAT:??_R1A@?0A@EA@CModuleDBParameter@@8 ; CModuleDBParameter::`RTTI Base Class Array'
rdata$r	ENDS
;	COMDAT ??_R3CModuleDBParameter@@8
rdata$r	SEGMENT
??_R3CModuleDBParameter@@8 DD 00H			; CModuleDBParameter::`RTTI Class Hierarchy Descriptor'
	DD	00H
	DD	01H
	DD	FLAT:??_R2CModuleDBParameter@@8
rdata$r	ENDS
;	COMDAT ??_R0?AVCModuleDBParameter@@@8
data$r	SEGMENT
??_R0?AVCModuleDBParameter@@@8 DD FLAT:??_7type_info@@6B@ ; CModuleDBParameter `RTTI Type Descriptor'
	DD	00H
	DB	'.?AVCModuleDBParameter@@', 00H
data$r	ENDS
;	COMDAT ??_R4CModuleDBParameter@@6B@
rdata$r	SEGMENT
??_R4CModuleDBParameter@@6B@ DD 00H			; CModuleDBParameter::`RTTI Complete Object Locator'
	DD	00H
	DD	00H
	DD	FLAT:??_R0?AVCModuleDBParameter@@@8
	DD	FLAT:??_R3CModuleDBParameter@@8
rdata$r	ENDS
;	COMDAT ??_R4?$CTempldateHelper@UIDataBase@@@@6B@
rdata$r	SEGMENT
??_R4?$CTempldateHelper@UIDataBase@@@@6B@ DD 00H	; CTempldateHelper<IDataBase>::`RTTI Complete Object Locator'
	DD	00H
	DD	00H
	DD	FLAT:??_R0?AV?$CTempldateHelper@UIDataBase@@@@@8
	DD	FLAT:??_R3?$CTempldateHelper@UIDataBase@@@@8
rdata$r	ENDS
;	COMDAT ??_R2?$CTempldateHelper@UIDataBase@@@@8
rdata$r	SEGMENT
??_R2?$CTempldateHelper@UIDataBase@@@@8 DD FLAT:??_R1A@?0A@EA@?$CTempldateHelper@UIDataBase@@@@8 ; CTempldateHelper<IDataBase>::`RTTI Base Class Array'
rdata$r	ENDS
;	COMDAT ??_R3?$CTempldateHelper@UIDataBase@@@@8
rdata$r	SEGMENT
??_R3?$CTempldateHelper@UIDataBase@@@@8 DD 00H		; CTempldateHelper<IDataBase>::`RTTI Class Hierarchy Descriptor'
	DD	00H
	DD	01H
	DD	FLAT:??_R2?$CTempldateHelper@UIDataBase@@@@8
rdata$r	ENDS
;	COMDAT ??_R0?AV?$CTempldateHelper@UIDataBase@@@@@8
data$r	SEGMENT
??_R0?AV?$CTempldateHelper@UIDataBase@@@@@8 DD FLAT:??_7type_info@@6B@ ; CTempldateHelper<IDataBase> `RTTI Type Descriptor'
	DD	00H
	DB	'.?AV?$CTempldateHelper@UIDataBase@@@@', 00H
data$r	ENDS
;	COMDAT ??_R1A@?0A@EA@?$CTempldateHelper@UIDataBase@@@@8
rdata$r	SEGMENT
??_R1A@?0A@EA@?$CTempldateHelper@UIDataBase@@@@8 DD FLAT:??_R0?AV?$CTempldateHelper@UIDataBase@@@@@8 ; CTempldateHelper<IDataBase>::`RTTI Base Class Descriptor at (0,-1,0,64)'
	DD	00H
	DD	00H
	DD	0ffffffffH
	DD	00H
	DD	040H
	DD	FLAT:??_R3?$CTempldateHelper@UIDataBase@@@@8
rdata$r	ENDS
;	COMDAT ??_R1A@?0A@EA@CDataBaseHelper@@8
rdata$r	SEGMENT
??_R1A@?0A@EA@CDataBaseHelper@@8 DD FLAT:??_R0?AVCDataBaseHelper@@@8 ; CDataBaseHelper::`RTTI Base Class Descriptor at (0,-1,0,64)'
	DD	01H
	DD	00H
	DD	0ffffffffH
	DD	00H
	DD	040H
	DD	FLAT:??_R3CDataBaseHelper@@8
rdata$r	ENDS
;	COMDAT ??_R2CDataBaseHelper@@8
rdata$r	SEGMENT
??_R2CDataBaseHelper@@8 DD FLAT:??_R1A@?0A@EA@CDataBaseHelper@@8 ; CDataBaseHelper::`RTTI Base Class Array'
	DD	FLAT:??_R1A@?0A@EA@?$CTempldateHelper@UIDataBase@@@@8
rdata$r	ENDS
;	COMDAT ??_R3CDataBaseHelper@@8
rdata$r	SEGMENT
??_R3CDataBaseHelper@@8 DD 00H				; CDataBaseHelper::`RTTI Class Hierarchy Descriptor'
	DD	00H
	DD	02H
	DD	FLAT:??_R2CDataBaseHelper@@8
rdata$r	ENDS
;	COMDAT ??_R0?AVCDataBaseHelper@@@8
data$r	SEGMENT
??_R0?AVCDataBaseHelper@@@8 DD FLAT:??_7type_info@@6B@	; CDataBaseHelper `RTTI Type Descriptor'
	DD	00H
	DB	'.?AVCDataBaseHelper@@', 00H
data$r	ENDS
;	COMDAT ??_R4CDataBaseHelper@@6B@
rdata$r	SEGMENT
??_R4CDataBaseHelper@@6B@ DD 00H			; CDataBaseHelper::`RTTI Complete Object Locator'
	DD	00H
	DD	00H
	DD	FLAT:??_R0?AVCDataBaseHelper@@@8
	DD	FLAT:??_R3CDataBaseHelper@@8
rdata$r	ENDS
;	COMDAT ??_C@_0DF@LDFGAABH@g?3?2?M?x?$LK?$PM?2happygamewh?2?$LH?$PO?N?q?$LG?K?2?O?$LF?M?$LD@
CONST	SEGMENT
??_C@_0DF@LDFGAABH@g?3?2?M?x?$LK?$PM?2happygamewh?2?$LH?$PO?N?q?$LG?K?2?O?$LF?M?$LD@ DB 'g'
	DB	':\', 0cdH, 0f8H, 0baH, 0fcH, '\happygamewh\', 0b7H, 0feH, 0ceH
	DB	0f1H, 0b6H, 0cbH, '\', 0cfH, 0b5H, 0cdH, 0b3H, 0c4H, 0a3H, 0bfH
	DB	0e9H, '\', 0c8H, 0abH, 0beH, 0d6H, 0b6H, 0a8H, 0d2H, 0e5H, '\a'
	DB	'rray.h', 00H				; `string'
CONST	ENDS
;	COMDAT ??_C@_04OAFLPOMH@?$FN?5?$DN?5@
CONST	SEGMENT
??_C@_04OAFLPOMH@?$FN?5?$DN?5@ DB '] = ', 00H		; `string'
CONST	ENDS
;	COMDAT ??_C@_03OHJIHPJH@?6?7?$FL@
CONST	SEGMENT
??_C@_03OHJIHPJH@?6?7?$FL@ DB 0aH, 09H, '[', 00H	; `string'
CONST	ENDS
;	COMDAT ??_C@_0DB@JBNKENAJ@?W?i?$LM?$PO?$LE?$LE?$LN?$KI?$LK?$KP?J?$PN?$KB?$LA?$CFs?$KB?$LB?$LC?z?I?z?N?$LE?V?$KK?R?l?$LD?$KD?$LE@
CONST	SEGMENT
??_C@_0DB@JBNKENAJ@?W?i?$LM?$PO?$LE?$LE?$LN?$KI?$LK?$KP?J?$PN?$KB?$LA?$CFs?$KB?$LB?$LC?z?I?z?N?$LE?V?$KK?R?l?$LD?$KD?$LE@ DB 0d7H
	DB	0e9H, 0bcH, 0feH, 0b4H, 0b4H, 0bdH, 0a8H, 0baH, 0afH, 0caH, 0fdH
	DB	0a1H, 0b0H, '%s', 0a1H, 0b1H, 0b2H, 0faH, 0c9H, 0faH, 0ceH, 0b4H
	DB	0d6H, 0aaH, 0d2H, 0ecH, 0b3H, 0a3H, 0b4H, 0edH, 0ceH, 0f3H, 0a3H
	DB	0acH, 0d7H, 0e9H, 0bcH, 0feH, 0b4H, 0b4H, 0bdH, 0a8H, 0caH, 0a7H
	DB	0b0H, 0dcH, 00H				; `string'
CONST	ENDS
;	COMDAT ??_C@_0BJ@JGPFHIJF@?S?I?S?Z?$KB?$LA?$CFs?$KB?$LB?$KD?$KM?W?i?$LM?$PO?$LE?$LE?$LN?$KI?J?$KH?$LA?$NM@
CONST	SEGMENT
??_C@_0BJ@JGPFHIJF@?S?I?S?Z?$KB?$LA?$CFs?$KB?$LB?$KD?$KM?W?i?$LM?$PO?$LE?$LE?$LN?$KI?J?$KH?$LA?$NM@ DB 0d3H
	DB	0c9H, 0d3H, 0daH, 0a1H, 0b0H, '%s', 0a1H, 0b1H, 0a3H, 0acH, 0d7H
	DB	0e9H, 0bcH, 0feH, 0b4H, 0b4H, 0bdH, 0a8H, 0caH, 0a7H, 0b0H, 0dcH
	DB	00H						; `string'
CONST	ENDS
;	COMDAT ??_R0PAD@8
data$r	SEGMENT
??_R0PAD@8 DD	FLAT:??_7type_info@@6B@			; char * `RTTI Type Descriptor'
	DD	00H
	DB	'.PAD', 00H
data$r	ENDS
;	COMDAT ??_C@_0BL@PDAODLKM@?$LF?w?S?C?$LK?$KP?J?$PN?$KB?$LA?$CFs?$KB?$LB?I?z?$LD?I?$LG?T?O?s?J?$KH?$LA?$NM@
CONST	SEGMENT
??_C@_0BL@PDAODLKM@?$LF?w?S?C?$LK?$KP?J?$PN?$KB?$LA?$CFs?$KB?$LB?I?z?$LD?I?$LG?T?O?s?J?$KH?$LA?$NM@ DB 0b5H
	DB	0f7H, 0d3H, 0c3H, 0baH, 0afH, 0caH, 0fdH, 0a1H, 0b0H, '%s', 0a1H
	DB	0b1H, 0c9H, 0faH, 0b3H, 0c9H, 0b6H, 0d4H, 0cfH, 0f3H, 0caH, 0a7H
	DB	0b0H, 0dcH, 00H				; `string'
CONST	ENDS
;	COMDAT ??_C@_0BM@PEGNCJOH@?U?R?$LC?$LL?$LF?$LN?W?i?$LM?$PO?$LE?$LE?$LN?$KI?$LK?$KP?J?$PN?$KB?$LA?$CFs?$KB?$LB?3?$CFd@
CONST	SEGMENT
??_C@_0BM@PEGNCJOH@?U?R?$LC?$LL?$LF?$LN?W?i?$LM?$PO?$LE?$LE?$LN?$KI?$LK?$KP?J?$PN?$KB?$LA?$CFs?$KB?$LB?3?$CFd@ DB 0d5H
	DB	0d2H, 0b2H, 0bbH, 0b5H, 0bdH, 0d7H, 0e9H, 0bcH, 0feH, 0b4H, 0b4H
	DB	0bdH, 0a8H, 0baH, 0afH, 0caH, 0fdH, 0a1H, 0b0H, '%s', 0a1H, 0b1H
	DB	':%d', 00H					; `string'
CONST	ENDS
;	COMDAT ??_C@_0BD@LMOFNGMO@?$KB?$LA?$CFs?$KB?$LB?D?$KD?$LP?i?$LM?S?T?X?J?$KH?$LA?$NM@
CONST	SEGMENT
??_C@_0BD@LMOFNGMO@?$KB?$LA?$CFs?$KB?$LB?D?$KD?$LP?i?$LM?S?T?X?J?$KH?$LA?$NM@ DB 0a1H
	DB	0b0H, '%s', 0a1H, 0b1H, 0c4H, 0a3H, 0bfH, 0e9H, 0bcH, 0d3H, 0d4H
	DB	0d8H, 0caH, 0a7H, 0b0H, 0dcH, 00H		; `string'
CONST	ENDS
;	COMDAT ??_C@_0DG@CDIFDKED@g?3?2?M?x?$LK?$PM?2happygamewh?2?$LH?$PO?N?q?$LG?K?2?O?$LF?M?$LD@
CONST	SEGMENT
??_C@_0DG@CDIFDKED@g?3?2?M?x?$LK?$PM?2happygamewh?2?$LH?$PO?N?q?$LG?K?2?O?$LF?M?$LD@ DB 'g'
	DB	':\', 0cdH, 0f8H, 0baH, 0fcH, '\happygamewh\', 0b7H, 0feH, 0ceH
	DB	0f1H, 0b6H, 0cbH, '\', 0cfH, 0b5H, 0cdH, 0b3H, 0c4H, 0a3H, 0bfH
	DB	0e9H, '\', 0c8H, 0abH, 0beH, 0d6H, 0b6H, 0a8H, 0d2H, 0e5H, '\m'
	DB	'odule.h', 00H				; `string'
CONST	ENDS
;	COMDAT ??_C@_1BK@MHIKGOKE@?$AA?3?$AAA?$AAM?$AA?3?$AAa?$AAm?$AA?3?$AAP?$AAM?$AA?3?$AAp?$AAm@
CONST	SEGMENT
??_C@_1BK@MHIKGOKE@?$AA?3?$AAA?$AAM?$AA?3?$AAa?$AAm?$AA?3?$AAP?$AAM?$AA?3?$AAp?$AAm@ DB ':'
	DB	00H, 'A', 00H, 'M', 00H, ':', 00H, 'a', 00H, 'm', 00H, ':', 00H
	DB	'P', 00H, 'M', 00H, ':', 00H, 'p', 00H, 'm', 00H, 00H, 00H ; `string'
CONST	ENDS
;	COMDAT ??_C@_0N@LPFKKEBD@?3AM?3am?3PM?3pm@
CONST	SEGMENT
??_C@_0N@LPFKKEBD@?3AM?3am?3PM?3pm@ DB ':AM:am:PM:pm', 00H ; `string'
CONST	ENDS
;	COMDAT ??_C@_0M@MCMOAOCB@GameMode_?$CFd@
CONST	SEGMENT
??_C@_0M@MCMOAOCB@GameMode_?$CFd@ DB 'GameMode_%d', 00H	; `string'
CONST	ENDS
;	COMDAT ??_C@_0M@NFLEKBDJ@IniScore_?$CFd@
CONST	SEGMENT
??_C@_0M@NFLEKBDJ@IniScore_?$CFd@ DB 'IniScore_%d', 00H	; `string'
CONST	ENDS
;	COMDAT ??_C@_0M@PLHAIOPP@AAPayFee_?$CFd@
CONST	SEGMENT
??_C@_0M@PLHAIOPP@AAPayFee_?$CFd@ DB 'AAPayFee_%d', 00H	; `string'
CONST	ENDS
;	COMDAT ??_C@_09NPCPBNFG@PayFee_?$CFd@
CONST	SEGMENT
??_C@_09NPCPBNFG@PayFee_?$CFd@ DB 'PayFee_%d', 00H	; `string'
CONST	ENDS
;	COMDAT ??_C@_0N@BPNJNFLH@FeeParameter@
CONST	SEGMENT
??_C@_0N@BPNJNFLH@FeeParameter@ DB 'FeeParameter', 00H	; `string'
CONST	ENDS
;	COMDAT ??_C@_0BB@NDJBEBBP@PlayTurnLimit_?$CFd@
CONST	SEGMENT
??_C@_0BB@NDJBEBBP@PlayTurnLimit_?$CFd@ DB 'PlayTurnLimit_%d', 00H ; `string'
CONST	ENDS
;	COMDAT ??_C@_0BA@MEGPCNND@CreateRoomRight@
CONST	SEGMENT
??_C@_0BA@MEGPCNND@CreateRoomRight@ DB 'CreateRoomRight', 00H ; `string'
CONST	ENDS
;	COMDAT ??_C@_0BE@MAFCEFJP@TimeAfterCreateRoom@
CONST	SEGMENT
??_C@_0BE@MAFCEFJP@TimeAfterCreateRoom@ DB 'TimeAfterCreateRoom', 00H ; `string'
CONST	ENDS
;	COMDAT ??_C@_06CJHLBMGC@Option@
CONST	SEGMENT
??_C@_06CJHLBMGC@Option@ DB 'Option', 00H		; `string'
CONST	ENDS
;	COMDAT ??_C@_06CKGENIKG@Enable@
CONST	SEGMENT
??_C@_06CKGENIKG@Enable@ DB 'Enable', 00H		; `string'
CONST	ENDS
;	COMDAT ??_C@_07DOAOMMKG@Enabled@
CONST	SEGMENT
??_C@_07DOAOMMKG@Enabled@ DB 'Enabled', 00H		; `string'
CONST	ENDS
;	COMDAT ??_C@_09LOOPACNL@?$CFs?2?$CFd?4ini@
CONST	SEGMENT
??_C@_09LOOPACNL@?$CFs?2?$CFd?4ini@ DB '%s\%d.ini', 00H	; `string'
CONST	ENDS
;	COMDAT ??_C@_0CD@IBOJDKIM@GSP_GS_ModifyPersonalRoomParame@
CONST	SEGMENT
??_C@_0CD@IBOJDKIM@GSP_GS_ModifyPersonalRoomParame@ DB 'GSP_GS_ModifyPers'
	DB	'onalRoomParameter', 00H			; `string'
CONST	ENDS
;	COMDAT ??_C@_0M@EODDKFON@?$EAdwServerID@
CONST	SEGMENT
??_C@_0M@EODDKFON@?$EAdwServerID@ DB '@dwServerID', 00H	; `string'
CONST	ENDS
;	COMDAT ??_C@_0BB@HEGDPGKB@?$LC?e?H?k?S?N?O?$LH?$LF?W?$LH?V?$LD?v?$LE?m@
CONST	SEGMENT
??_C@_0BB@HEGDPGKB@?$LC?e?H?k?S?N?O?$LH?$LF?W?$LH?V?$LD?v?$LE?m@ DB 0b2H, 0e5H
	DB	0c8H, 0ebH, 0d3H, 0ceH, 0cfH, 0b7H, 0b5H, 0d7H, 0b7H, 0d6H, 0b3H
	DB	0f6H, 0b4H, 0edH, 00H			; `string'
CONST	ENDS
;	COMDAT ??_C@_0BP@GEFHPGBC@GSP_GR_InsertPersonalCellScore@
CONST	SEGMENT
??_C@_0BP@GEFHPGBC@GSP_GR_InsertPersonalCellScore@ DB 'GSP_GR_InsertPerso'
	DB	'nalCellScore', 00H				; `string'
CONST	ENDS
;	COMDAT ??_C@_0BP@BNMLDPEJ@GSP_GR_DeletePersonalCellScore@
CONST	SEGMENT
??_C@_0BP@BNMLDPEJ@GSP_GR_DeletePersonalCellScore@ DB 'GSP_GR_DeletePerso'
	DB	'nalCellScore', 00H				; `string'
CONST	ENDS
;	COMDAT ??_C@_0BB@LABICMHO@?$LC?e?H?k?S?N?O?$LH?$LH?Q?S?C?$LD?v?$LE?m@
CONST	SEGMENT
??_C@_0BB@LABICMHO@?$LC?e?H?k?S?N?O?$LH?$LH?Q?S?C?$LD?v?$LE?m@ DB 0b2H, 0e5H
	DB	0c8H, 0ebH, 0d3H, 0ceH, 0cfH, 0b7H, 0b7H, 0d1H, 0d3H, 0c3H, 0b3H
	DB	0f6H, 0b4H, 0edH, 00H			; `string'
CONST	ENDS
;	COMDAT ??_C@_0CB@BGEDMOGM@GSP_GS_WritePersonalFeeParamete@
CONST	SEGMENT
??_C@_0CB@BGEDMOGM@GSP_GS_WritePersonalFeeParamete@ DB 'GSP_GS_WritePerso'
	DB	'nalFeeParameter', 00H			; `string'
CONST	ENDS
;	COMDAT ??_C@_0M@CIPFFAIA@?$EAcbGameMode@
CONST	SEGMENT
??_C@_0M@CIPFFAIA@?$EAcbGameMode@ DB '@cbGameMode', 00H	; `string'
CONST	ENDS
;	COMDAT ??_C@_09FDIDCNIH@?$EAIniScore@
CONST	SEGMENT
??_C@_09FDIDCNIH@?$EAIniScore@ DB '@IniScore', 00H	; `string'
CONST	ENDS
;	COMDAT ??_C@_09FCEHGDCA@?$EAAAPayFee@
CONST	SEGMENT
??_C@_09FCEHGDCA@?$EAAAPayFee@ DB '@AAPayFee', 00H	; `string'
CONST	ENDS
;	COMDAT ??_C@_09GLBENLGO@?$EATableFee@
CONST	SEGMENT
??_C@_09GLBENLGO@?$EATableFee@ DB '@TableFee', 00H	; `string'
CONST	ENDS
;	COMDAT ??_C@_0P@PPHKCKBK@?$EADrawTimeLimit@
CONST	SEGMENT
??_C@_0P@PPHKCKBK@?$EADrawTimeLimit@ DB '@DrawTimeLimit', 00H ; `string'
CONST	ENDS
;	COMDAT ??_C@_0BA@NEJOBMJG@?$EADrawCountLimit@
CONST	SEGMENT
??_C@_0BA@NEJOBMJG@?$EADrawCountLimit@ DB '@DrawCountLimit', 00H ; `string'
CONST	ENDS
;	COMDAT ??_C@_0CC@PJKIIGNE@GSP_GS_DeletePersonalFeeParamet@
CONST	SEGMENT
??_C@_0CC@PJKIIGNE@GSP_GS_DeletePersonalFeeParamet@ DB 'GSP_GS_DeletePers'
	DB	'onalFeeParameter', 00H			; `string'
CONST	ENDS
;	COMDAT ??_C@_0CD@MBGOMFKI@GSP_GS_InsertPersonalRoomParame@
CONST	SEGMENT
??_C@_0CD@MBGOMFKI@GSP_GS_InsertPersonalRoomParame@ DB 'GSP_GS_InsertPers'
	DB	'onalRoomParameter', 00H			; `string'
CONST	ENDS
;	COMDAT ??_C@_0O@MLGGNFBJ@?$EAwEndFreeTime@
CONST	SEGMENT
??_C@_0O@MLGGNFBJ@?$EAwEndFreeTime@ DB '@wEndFreeTime', 00H ; `string'
CONST	ENDS
;	COMDAT ??_C@_0BA@LKGDNDNG@?$EAwBeginFreeTime@
CONST	SEGMENT
??_C@_0BA@LKGDNDNG@?$EAwBeginFreeTime@ DB '@wBeginFreeTime', 00H ; `string'
CONST	ENDS
;	COMDAT ??_C@_0P@GODHDPFL@?$EAcbCreateRight@
CONST	SEGMENT
??_C@_0P@GODHDPFL@?$EAcbCreateRight@ DB '@cbCreateRight', 00H ; `string'
CONST	ENDS
;	COMDAT ??_C@_0BO@GAPHEMLN@?$EAwTimeNotBeginAfterCreateRoom@
CONST	SEGMENT
??_C@_0BO@GAPHEMLN@?$EAwTimeNotBeginAfterCreateRoom@ DB '@wTimeNotBeginAf'
	DB	'terCreateRoom', 00H				; `string'
CONST	ENDS
;	COMDAT ??_C@_0BD@DDANILFF@?$EAwTimeNotBeginGame@
CONST	SEGMENT
??_C@_0BD@DDANILFF@?$EAwTimeNotBeginGame@ DB '@wTimeNotBeginGame', 00H ; `string'
CONST	ENDS
;	COMDAT ??_C@_0BD@GBNNIIBP@?$EAwTimeOffLineCount@
CONST	SEGMENT
??_C@_0BD@GBNNIIBP@?$EAwTimeOffLineCount@ DB '@wTimeOffLineCount', 00H ; `string'
CONST	ENDS
;	COMDAT ??_C@_0BG@PLKJOLIC@?$EAwTimeAfterBeginCount@
CONST	SEGMENT
??_C@_0BG@PLKJOLIC@?$EAwTimeAfterBeginCount@ DB '@wTimeAfterBeginCount', 00H ; `string'
CONST	ENDS
;	COMDAT ??_C@_0BA@NOEDAIIC@?$EAwPlayTimeLimit@
CONST	SEGMENT
??_C@_0BA@NOEDAIIC@?$EAwPlayTimeLimit@ DB '@wPlayTimeLimit', 00H ; `string'
CONST	ENDS
;	COMDAT ??_C@_0BA@NNNPOABK@?$EAwPlayTurnCount@
CONST	SEGMENT
??_C@_0BA@NNNPOABK@?$EAwPlayTurnCount@ DB '@wPlayTurnCount', 00H ; `string'
CONST	ENDS
;	COMDAT ??_C@_0BB@NMCMDDIO@?$EAwCanCreateCount@
CONST	SEGMENT
??_C@_0BB@NMCMDDIO@?$EAwCanCreateCount@ DB '@wCanCreateCount', 00H ; `string'
CONST	ENDS
;	COMDAT ??_C@_0P@JJFBKDAF@?$EAlMaxCellScore@
CONST	SEGMENT
??_C@_0P@JJFBKDAF@?$EAlMaxCellScore@ DB '@lMaxCellScore', 00H ; `string'
CONST	ENDS
;	COMDAT ??_C@_0BC@LFDMHEEC@?$EAlPersonalRoomTax@
CONST	SEGMENT
??_C@_0BC@LFDMHEEC@?$EAlPersonalRoomTax@ DB '@lPersonalRoomTax', 00H ; `string'
CONST	ENDS
;	COMDAT ??_C@_0N@BHGNLAPN@?$EAcbMaxPeople@
CONST	SEGMENT
??_C@_0N@BHGNLAPN@?$EAcbMaxPeople@ DB '@cbMaxPeople', 00H ; `string'
CONST	ENDS
;	COMDAT ??_C@_0N@BGGBCKEJ@?$EAcbMinPeople@
CONST	SEGMENT
??_C@_0N@BGGBCKEJ@?$EAcbMinPeople@ DB '@cbMinPeople', 00H ; `string'
CONST	ENDS
;	COMDAT ??_C@_0O@PHLNKDAD@?$EAcbIsJoinGame@
CONST	SEGMENT
??_C@_0O@PHLNKDAD@?$EAcbIsJoinGame@ DB '@cbIsJoinGame', 00H ; `string'
CONST	ENDS
;	COMDAT ??_C@_08JJGOBBMF@GameMode@
CONST	SEGMENT
??_C@_08JJGOBBMF@GameMode@ DB 'GameMode', 00H		; `string'
CONST	ENDS
;	COMDAT ??_C@_08MILKFGPP@IniScore@
CONST	SEGMENT
??_C@_08MILKFGPP@IniScore@ DB 'IniScore', 00H		; `string'
CONST	ENDS
;	COMDAT ??_C@_08MJHOBIFI@AAPayFee@
CONST	SEGMENT
??_C@_08MJHOBIFI@AAPayFee@ DB 'AAPayFee', 00H		; `string'
CONST	ENDS
;	COMDAT ??_C@_08PACNKABG@TableFee@
CONST	SEGMENT
??_C@_08PACNKABG@TableFee@ DB 'TableFee', 00H		; `string'
CONST	ENDS
;	COMDAT ??_C@_0P@MBIIKCNO@DrawCountLimit@
CONST	SEGMENT
??_C@_0P@MBIIKCNO@DrawCountLimit@ DB 'DrawCountLimit', 00H ; `string'
CONST	ENDS
;	COMDAT ??_C@_0BP@BLHAELOH@GSP_MB_GetPersonalFeeParameter@
CONST	SEGMENT
??_C@_0BP@BLHAELOH@GSP_MB_GetPersonalFeeParameter@ DB 'GSP_MB_GetPersonal'
	DB	'FeeParameter', 00H				; `string'
CONST	ENDS
;	COMDAT ??_C@_09DFDKDCCP@?$EAdwKindID@
CONST	SEGMENT
??_C@_09DFDKDCCP@?$EAdwKindID@ DB '@dwKindID', 00H	; `string'
CONST	ENDS
;	COMDAT ??_C@_0M@JGNJEEEJ@CreateRight@
CONST	SEGMENT
??_C@_0M@JGNJEEEJ@CreateRight@ DB 'CreateRight', 00H	; `string'
CONST	ENDS
;	COMDAT ??_C@_0M@OHDGOHJM@EndFreeTime@
CONST	SEGMENT
??_C@_0M@OHDGOHJM@EndFreeTime@ DB 'EndFreeTime', 00H	; `string'
CONST	ENDS
;	COMDAT ??_C@_0O@DEEAMCAI@BeginFreeTime@
CONST	SEGMENT
??_C@_0O@DEEAMCAI@BeginFreeTime@ DB 'BeginFreeTime', 00H ; `string'
CONST	ENDS
;	COMDAT ??_C@_0BM@CMLNFFIM@TimeNotBeginAfterCreateRoom@
CONST	SEGMENT
??_C@_0BM@CMLNFFIM@TimeNotBeginAfterCreateRoom@ DB 'TimeNotBeginAfterCrea'
	DB	'teRoom', 00H				; `string'
CONST	ENDS
;	COMDAT ??_C@_0BB@EFKEMBID@TimeNotBeginGame@
CONST	SEGMENT
??_C@_0BB@EFKEMBID@TimeNotBeginGame@ DB 'TimeNotBeginGame', 00H ; `string'
CONST	ENDS
;	COMDAT ??_C@_0BB@BHHEMCMJ@TimeOffLineCount@
CONST	SEGMENT
??_C@_0BB@BHHEMCMJ@TimeOffLineCount@ DB 'TimeOffLineCount', 00H ; `string'
CONST	ENDS
;	COMDAT ??_C@_0BE@NHDBBOLF@TimeAfterBeginCount@
CONST	SEGMENT
??_C@_0BE@NHDBBOLF@TimeAfterBeginCount@ DB 'TimeAfterBeginCount', 00H ; `string'
CONST	ENDS
;	COMDAT ??_C@_0O@FAGABJFM@PlayTimeLimit@
CONST	SEGMENT
??_C@_0O@FAGABJFM@PlayTimeLimit@ DB 'PlayTimeLimit', 00H ; `string'
CONST	ENDS
;	COMDAT ??_C@_0O@FDPMPBME@PlayTurnCount@
CONST	SEGMENT
??_C@_0O@FDPMPBME@PlayTurnCount@ DB 'PlayTurnCount', 00H ; `string'
CONST	ENDS
;	COMDAT ??_C@_0P@LNMJOPEM@CanCreateCount@
CONST	SEGMENT
??_C@_0P@LNMJOPEM@CanCreateCount@ DB 'CanCreateCount', 00H ; `string'
CONST	ENDS
;	COMDAT ??_C@_0BA@GCOMLPGF@PersonalRoomTax@
CONST	SEGMENT
??_C@_0BA@GCOMLPGF@PersonalRoomTax@ DB 'PersonalRoomTax', 00H ; `string'
CONST	ENDS
;	COMDAT ??_C@_0N@CNCFIDBJ@MaxCellScore@
CONST	SEGMENT
??_C@_0N@CNCFIDBJ@MaxCellScore@ DB 'MaxCellScore', 00H	; `string'
CONST	ENDS
;	COMDAT ??_C@_09BBGKJOKD@MaxPeople@
CONST	SEGMENT
??_C@_09BBGKJOKD@MaxPeople@ DB 'MaxPeople', 00H		; `string'
CONST	ENDS
;	COMDAT ??_C@_09BAGGAEBH@MinPeople@
CONST	SEGMENT
??_C@_09BAGGAEBH@MinPeople@ DB 'MinPeople', 00H		; `string'
CONST	ENDS
;	COMDAT ??_C@_0L@HLGININO@IsJoinGame@
CONST	SEGMENT
??_C@_0L@HLGININO@IsJoinGame@ DB 'IsJoinGame', 00H	; `string'
CONST	ENDS
;	COMDAT ??_C@_0CB@MMPODBFJ@GSP_GS_LoadPersonalRoomParamete@
CONST	SEGMENT
??_C@_0CB@MMPODBFJ@GSP_GS_LoadPersonalRoomParamete@ DB 'GSP_GS_LoadPerson'
	DB	'alRoomParameter', 00H			; `string'
CONST	ENDS
;	COMDAT ?__LINE__Var@?0??LoadPersonalRoomParameter@CServerInfoManager@@QAE_NAAUtagPersonalRoomOption@@AAUtagPersonalRoomOptionRightAndFee@@G@Z@4JA
_DATA	SEGMENT
?__LINE__Var@?0??LoadPersonalRoomParameter@CServerInfoManager@@QAE_NAAUtagPersonalRoomOption@@AAUtagPersonalRoomOptionRightAndFee@@G@Z@4JA DD 037fH ; `CServerInfoManager::LoadPersonalRoomParameter'::`1'::__LINE__Var
_DATA	ENDS
;	COMDAT ??_C@_0N@KBPJFFJC@PersonalRule@
CONST	SEGMENT
??_C@_0N@KBPJFFJC@PersonalRule@ DB 'PersonalRule', 00H	; `string'
CONST	ENDS
;	COMDAT ??_C@_0P@NECLNLN@ServiceMachine@
CONST	SEGMENT
??_C@_0P@NECLNLN@ServiceMachine@ DB 'ServiceMachine', 00H ; `string'
CONST	ENDS
;	COMDAT ??_C@_0L@KEGHFOHA@CustomRule@
CONST	SEGMENT
??_C@_0L@KEGHFOHA@CustomRule@ DB 'CustomRule', 00H	; `string'
CONST	ENDS
;	COMDAT ??_C@_0N@KEAKJKMG@DataBaseAddr@
CONST	SEGMENT
??_C@_0N@KEAKJKMG@DataBaseAddr@ DB 'DataBaseAddr', 00H	; `string'
CONST	ENDS
;	COMDAT ??_C@_0N@BLNGECDM@DataBaseName@
CONST	SEGMENT
??_C@_0N@BLNGECDM@DataBaseName@ DB 'DataBaseName', 00H	; `string'
CONST	ENDS
;	COMDAT ??_C@_0BD@KOHDFMDA@MaxPartakeGameUser@
CONST	SEGMENT
??_C@_0BD@KOHDFMDA@MaxPartakeGameUser@ DB 'MaxPartakeGameUser', 00H ; `string'
CONST	ENDS
;	COMDAT ??_C@_0BD@JEHNMEJ@MinPartakeGameUser@
CONST	SEGMENT
??_C@_0BD@JEHNMEJ@MinPartakeGameUser@ DB 'MinPartakeGameUser', 00H ; `string'
CONST	ENDS
;	COMDAT ??_C@_0BE@BBFANIHP@DistributeDrawCount@
CONST	SEGMENT
??_C@_0BE@BBFANIHP@DistributeDrawCount@ DB 'DistributeDrawCount', 00H ; `string'
CONST	ENDS
;	COMDAT ??_C@_0BE@NKJJGPNA@DistributeTimeSpace@
CONST	SEGMENT
??_C@_0BE@NKJJGPNA@DistributeTimeSpace@ DB 'DistributeTimeSpace', 00H ; `string'
CONST	ENDS
;	COMDAT ??_C@_0BC@BPMHCGIJ@MinDistributeUser@
CONST	SEGMENT
??_C@_0BC@BPMHCGIJ@MinDistributeUser@ DB 'MinDistributeUser', 00H ; `string'
CONST	ENDS
;	COMDAT ??_C@_0P@HAKAMBIC@DistributeRule@
CONST	SEGMENT
??_C@_0P@HAKAMBIC@DistributeRule@ DB 'DistributeRule', 00H ; `string'
CONST	ENDS
;	COMDAT ??_C@_0N@CGAIMFGC@ServerPasswd@
CONST	SEGMENT
??_C@_0N@CGAIMFGC@ServerPasswd@ DB 'ServerPasswd', 00H	; `string'
CONST	ENDS
;	COMDAT ??_C@_0L@FFDIDHBB@ServerName@
CONST	SEGMENT
??_C@_0L@FFDIDHBB@ServerName@ DB 'ServerName', 00H	; `string'
CONST	ENDS
;	COMDAT ??_C@_0M@JMPNOLDL@ServerLevel@
CONST	SEGMENT
??_C@_0M@JMPNOLDL@ServerLevel@ DB 'ServerLevel', 00H	; `string'
CONST	ENDS
;	COMDAT ??_C@_0L@PODLPHGB@ServerType@
CONST	SEGMENT
??_C@_0L@PODLPHGB@ServerType@ DB 'ServerType', 00H	; `string'
CONST	ENDS
;	COMDAT ??_C@_0L@EDDBBPJG@ServerKind@
CONST	SEGMENT
??_C@_0L@EDDBBPJG@ServerKind@ DB 'ServerKind', 00H	; `string'
CONST	ENDS
;	COMDAT ??_C@_0L@COJEKOJM@ServerPort@
CONST	SEGMENT
??_C@_0L@COJEKOJM@ServerPort@ DB 'ServerPort', 00H	; `string'
CONST	ENDS
;	COMDAT ??_C@_0L@IJDAGCEH@TableCount@
CONST	SEGMENT
??_C@_0L@IJDAGCEH@TableCount@ DB 'TableCount', 00H	; `string'
CONST	ENDS
;	COMDAT ??_C@_09POAPIBJJ@MaxPlayer@
CONST	SEGMENT
??_C@_09POAPIBJJ@MaxPlayer@ DB 'MaxPlayer', 00H		; `string'
CONST	ENDS
;	COMDAT ??_C@_0BA@IBOCBCNP@AttachUserRight@
CONST	SEGMENT
??_C@_0BA@IBOCBCNP@AttachUserRight@ DB 'AttachUserRight', 00H ; `string'
CONST	ENDS
;	COMDAT ??_C@_0L@COJBOHGN@ServerRule@
CONST	SEGMENT
??_C@_0L@COJBOHGN@ServerRule@ DB 'ServerRule', 00H	; `string'
CONST	ENDS
;	COMDAT ??_C@_0P@JMMACKHO@MaxEnterMember@
CONST	SEGMENT
??_C@_0P@JMMACKHO@MaxEnterMember@ DB 'MaxEnterMember', 00H ; `string'
CONST	ENDS
;	COMDAT ??_C@_0P@LLHLENEP@MinEnterMember@
CONST	SEGMENT
??_C@_0P@LLHLENEP@MinEnterMember@ DB 'MinEnterMember', 00H ; `string'
CONST	ENDS
;	COMDAT ??_C@_0O@HHJEDKGE@MaxEnterScore@
CONST	SEGMENT
??_C@_0O@HHJEDKGE@MaxEnterScore@ DB 'MaxEnterScore', 00H ; `string'
CONST	ENDS
;	COMDAT ??_C@_0O@MOLCKBBF@MinEnterScore@
CONST	SEGMENT
??_C@_0O@MOLCKBBF@MinEnterScore@ DB 'MinEnterScore', 00H ; `string'
CONST	ENDS
;	COMDAT ??_C@_0O@DCCNGDAD@MinTableScore@
CONST	SEGMENT
??_C@_0O@DCCNGDAD@MinTableScore@ DB 'MinTableScore', 00H ; `string'
CONST	ENDS
;	COMDAT ??_C@_0O@NKNPBAEH@RestrictScore@
CONST	SEGMENT
??_C@_0O@NKNPBAEH@RestrictScore@ DB 'RestrictScore', 00H ; `string'
CONST	ENDS
;	COMDAT ??_C@_0N@KGDLKHJP@ServiceScore@
CONST	SEGMENT
??_C@_0N@KGDLKHJP@ServiceScore@ DB 'ServiceScore', 00H	; `string'
CONST	ENDS
;	COMDAT ??_C@_0N@FEAJGFG@RevenueRatio@
CONST	SEGMENT
??_C@_0N@FEAJGFG@RevenueRatio@ DB 'RevenueRatio', 00H	; `string'
CONST	ENDS
;	COMDAT ??_C@_09MMGMMPOJ@CellScore@
CONST	SEGMENT
??_C@_09MMGMMPOJ@CellScore@ DB 'CellScore', 00H		; `string'
CONST	ENDS
;	COMDAT ??_C@_0O@GDMCLMBH@ClientEXEName@
CONST	SEGMENT
??_C@_0O@GDMCLMBH@ClientEXEName@ DB 'ClientEXEName', 00H ; `string'
CONST	ENDS
;	COMDAT ??_C@_0O@DLLFAKFN@ServerDLLName@
CONST	SEGMENT
??_C@_0O@DLLFAKFN@ServerDLLName@ DB 'ServerDLLName', 00H ; `string'
CONST	ENDS
;	COMDAT ??_C@_08DBMACHKJ@GameName@
CONST	SEGMENT
??_C@_08DBMACHKJ@GameName@ DB 'GameName', 00H		; `string'
CONST	ENDS
;	COMDAT ??_C@_0O@BNALHPOE@ServerVersion@
CONST	SEGMENT
??_C@_0O@BNALHPOE@ServerVersion@ DB 'ServerVersion', 00H ; `string'
CONST	ENDS
;	COMDAT ??_C@_0O@DNEICACF@ClientVersion@
CONST	SEGMENT
??_C@_0O@DNEICACF@ClientVersion@ DB 'ClientVersion', 00H ; `string'
CONST	ENDS
;	COMDAT ??_C@_06FBNNGAO@SortID@
CONST	SEGMENT
??_C@_06FBNNGAO@SortID@ DB 'SortID', 00H		; `string'
CONST	ENDS
;	COMDAT ??_C@_06EBBHJNI@NodeID@
CONST	SEGMENT
??_C@_06EBBHJNI@NodeID@ DB 'NodeID', 00H		; `string'
CONST	ENDS
;	COMDAT ??_C@_06HCHMMKKG@KindID@
CONST	SEGMENT
??_C@_06HCHMMKKG@KindID@ DB 'KindID', 00H		; `string'
CONST	ENDS
;	COMDAT ??_C@_08BHBELLIH@ServerID@
CONST	SEGMENT
??_C@_08BHBELLIH@ServerID@ DB 'ServerID', 00H		; `string'
CONST	ENDS
;	COMDAT ??_C@_06KGJDDPAK@GameID@
CONST	SEGMENT
??_C@_06KGJDDPAK@GameID@ DB 'GameID', 00H		; `string'
CONST	ENDS
;	COMDAT ?__LINE__Var@?0??ReadGameServerInfo@CServerInfoManager@@AAE_NAAVCDataBaseAide@@AAUtagGameServerInfo@@@Z@4JA
_DATA	SEGMENT
?__LINE__Var@?0??ReadGameServerInfo@CServerInfoManager@@AAE_NAAVCDataBaseAide@@AAUtagGameServerInfo@@@Z@4JA DD 02f7H ; `CServerInfoManager::ReadGameServerInfo'::`1'::__LINE__Var
_DATA	ENDS
;	COMDAT ??_C@_0DA@PCJBGNDG@CreateGameServer?5?$LE?$LE?$LN?$KI?5PlatformD@
CONST	SEGMENT
??_C@_0DA@PCJBGNDG@CreateGameServer?5?$LE?$LE?$LN?$KI?5PlatformD@ DB 'Cre'
	DB	'ateGameServer ', 0b4H, 0b4H, 0bdH, 0a8H, ' PlatformDBModule ', 0b6H
	DB	0d4H, 0cfH, 0f3H, 0caH, 0a7H, 0b0H, 0dcH, 00H ; `string'
CONST	ENDS
;	COMDAT ??_C@_0BG@HDLIAPBG@GSP_GS_ModifyGameRoom@
CONST	SEGMENT
??_C@_0BG@HDLIAPBG@GSP_GS_ModifyGameRoom@ DB 'GSP_GS_ModifyGameRoom', 00H ; `string'
CONST	ENDS
;	COMDAT ?__LINE__Var@?0??ModifyGameServer@CServerInfoManager@@QAE_NPAUtagGameServerCreate@@AAUtagGameServerInfo@@@Z@4JA
_DATA	SEGMENT
?__LINE__Var@?0??ModifyGameServer@CServerInfoManager@@QAE_NPAUtagGameServerCreate@@AAUtagGameServerInfo@@@Z@4JA DD 0275H ; `CServerInfoManager::ModifyGameServer'::`1'::__LINE__Var
_DATA	ENDS
;	COMDAT ??_C@_0BG@EDGEFKPJ@GSP_GS_InsertGameRoom@
CONST	SEGMENT
??_C@_0BG@EDGEFKPJ@GSP_GS_InsertGameRoom@ DB 'GSP_GS_InsertGameRoom', 00H ; `string'
CONST	ENDS
;	COMDAT ??_C@_0BB@ELKLEIJF@?$EAstrPersonalRule@
CONST	SEGMENT
??_C@_0BB@ELKLEIJF@?$EAstrPersonalRule@ DB '@strPersonalRule', 00H ; `string'
CONST	ENDS
;	COMDAT ??_C@_0P@PGPKAIOB@?$EAstrCustomRule@
CONST	SEGMENT
??_C@_0P@PGPKAIOB@?$EAstrCustomRule@ DB '@strCustomRule', 00H ; `string'
CONST	ENDS
;	COMDAT ??_C@_0BB@EOFIIHMB@?$EAstrDataBaseAddr@
CONST	SEGMENT
??_C@_0BB@EOFIIHMB@?$EAstrDataBaseAddr@ DB '@strDataBaseAddr', 00H ; `string'
CONST	ENDS
;	COMDAT ??_C@_0BB@PBIEFPDL@?$EAstrDataBaseName@
CONST	SEGMENT
??_C@_0BB@PBIEFPDL@?$EAstrDataBaseName@ DB '@strDataBaseName', 00H ; `string'
CONST	ENDS
;	COMDAT ??_C@_0BF@OPBIOAIO@?$EAwMaxPartakeGameUser@
CONST	SEGMENT
??_C@_0BF@OPBIOAIO@?$EAwMaxPartakeGameUser@ DB '@wMaxPartakeGameUser', 00H ; `string'
CONST	ENDS
;	COMDAT ??_C@_0BF@EICMGAPH@?$EAwMinPartakeGameUser@
CONST	SEGMENT
??_C@_0BF@EICMGAPH@?$EAwMinPartakeGameUser@ DB '@wMinPartakeGameUser', 00H ; `string'
CONST	ENDS
;	COMDAT ??_C@_0BG@DNMICNEI@?$EAwDistributeDrawCount@
CONST	SEGMENT
??_C@_0BG@DNMICNEI@?$EAwDistributeDrawCount@ DB '@wDistributeDrawCount', 00H ; `string'
CONST	ENDS
;	COMDAT ??_C@_0BG@PGABJKOH@?$EAwDistributeTimeSpace@
CONST	SEGMENT
??_C@_0BG@PGABJKOH@?$EAwDistributeTimeSpace@ DB '@wDistributeTimeSpace', 00H ; `string'
CONST	ENDS
;	COMDAT ??_C@_0BE@HAABPICC@?$EAwMinDistributeUser@
CONST	SEGMENT
??_C@_0BE@HAABPICC@?$EAwMinDistributeUser@ DB '@wMinDistributeUser', 00H ; `string'
CONST	ENDS
;	COMDAT ??_C@_0BC@OEHLNJCG@?$EAcbDistributeRule@
CONST	SEGMENT
??_C@_0BC@OEHLNJCG@?$EAcbDistributeRule@ DB '@cbDistributeRule', 00H ; `string'
CONST	ENDS
;	COMDAT ??_C@_0BB@MMFKNIGF@?$EAstrServerPasswd@
CONST	SEGMENT
??_C@_0BB@MMFKNIGF@?$EAstrServerPasswd@ DB '@strServerPasswd', 00H ; `string'
CONST	ENDS
;	COMDAT ??_C@_0P@HKFGBIA@?$EAstrServerName@
CONST	SEGMENT
??_C@_0P@HKFGBIA@?$EAstrServerName@ DB '@strServerName', 00H ; `string'
CONST	ENDS
;	COMDAT ??_C@_0O@LAKNNJLO@?$EAwServerLevel@
CONST	SEGMENT
??_C@_0O@LAKNNJLO@?$EAwServerLevel@ DB '@wServerLevel', 00H ; `string'
CONST	ENDS
;	COMDAT ??_C@_0N@HHJHPJNP@?$EAwServerType@
CONST	SEGMENT
??_C@_0N@HHJHPJNP@?$EAwServerType@ DB '@wServerType', 00H ; `string'
CONST	ENDS
;	COMDAT ??_C@_0N@MKJNBBCI@?$EAwServerKind@
CONST	SEGMENT
??_C@_0N@MKJNBBCI@?$EAwServerKind@ DB '@wServerKind', 00H ; `string'
CONST	ENDS
;	COMDAT ??_C@_0N@KHDIKACC@?$EAwServerPort@
CONST	SEGMENT
??_C@_0N@KHDIKACC@?$EAwServerPort@ DB '@wServerPort', 00H ; `string'
CONST	ENDS
;	COMDAT ??_C@_0N@JMGMPJ@?$EAwTableCount@
CONST	SEGMENT
??_C@_0N@JMGMPJ@?$EAwTableCount@ DB '@wTableCount', 00H	; `string'
CONST	ENDS
;	COMDAT ??_C@_0M@IBCKNPAA@?$EAwMaxPlayer@
CONST	SEGMENT
??_C@_0M@IBCKNPAA@?$EAwMaxPlayer@ DB '@wMaxPlayer', 00H	; `string'
CONST	ENDS
;	COMDAT ??_C@_0BD@FCBMNBKD@?$EAdwAttachUserRight@
CONST	SEGMENT
??_C@_0BD@FCBMNBKD@?$EAdwAttachUserRight@ DB '@dwAttachUserRight', 00H ; `string'
CONST	ENDS
;	COMDAT ??_C@_0O@ELIMAAAE@?$EAdwServerRule@
CONST	SEGMENT
??_C@_0O@ELIMAAAE@?$EAdwServerRule@ DB '@dwServerRule', 00H ; `string'
CONST	ENDS
;	COMDAT ??_C@_0BC@IBLDCNK@?$EAcbMaxEnterMember@
CONST	SEGMENT
??_C@_0BC@IBLDCNK@?$EAcbMaxEnterMember@ DB '@cbMaxEnterMember', 00H ; `string'
CONST	ENDS
;	COMDAT ??_C@_0BC@CPKAFFOL@?$EAcbMinEnterMember@
CONST	SEGMENT
??_C@_0BC@CPKAFFOL@?$EAcbMinEnterMember@ DB '@cbMinEnterMember', 00H ; `string'
CONST	ENDS
;	COMDAT ??_C@_0BA@GDCBBCAL@?$EAlMaxEnterScore@
CONST	SEGMENT
??_C@_0BA@GDCBBCAL@?$EAlMaxEnterScore@ DB '@lMaxEnterScore', 00H ; `string'
CONST	ENDS
;	COMDAT ??_C@_0BA@NKAHIJHK@?$EAlMinEnterScore@
CONST	SEGMENT
??_C@_0BA@NKAHIJHK@?$EAlMinEnterScore@ DB '@lMinEnterScore', 00H ; `string'
CONST	ENDS
;	COMDAT ??_C@_0BA@CGJIELGM@?$EAlMinTableScore@
CONST	SEGMENT
??_C@_0BA@CGJIELGM@?$EAlMinTableScore@ DB '@lMinTableScore', 00H ; `string'
CONST	ENDS
;	COMDAT ??_C@_0BA@MOGKDICI@?$EAlRestrictScore@
CONST	SEGMENT
??_C@_0BA@MOGKDICI@?$EAlRestrictScore@ DB '@lRestrictScore', 00H ; `string'
CONST	ENDS
;	COMDAT ??_C@_0P@BCEPIHID@?$EAlServiceScore@
CONST	SEGMENT
??_C@_0P@BCEPIHID@?$EAlServiceScore@ DB '@lServiceScore', 00H ; `string'
CONST	ENDS
;	COMDAT ??_C@_0P@JILOLBML@?$EAwRevenueRatio@
CONST	SEGMENT
??_C@_0P@JILOLBML@?$EAwRevenueRatio@ DB '@wRevenueRatio', 00H ; `string'
CONST	ENDS
;	COMDAT ??_C@_0M@DOJONCPP@?$EAlCellScore@
CONST	SEGMENT
??_C@_0M@DOJONCPP@?$EAlCellScore@ DB '@lCellScore', 00H	; `string'
CONST	ENDS
;	COMDAT ??_C@_08GHPIGFA@?$EAwSortID@
CONST	SEGMENT
??_C@_08GHPIGFA@?$EAwSortID@ DB '@wSortID', 00H		; `string'
CONST	ENDS
;	COMDAT ??_C@_08HHDCJIG@?$EAwNodeID@
CONST	SEGMENT
??_C@_08HHDCJIG@?$EAwNodeID@ DB '@wNodeID', 00H		; `string'
CONST	ENDS
;	COMDAT ??_C@_08HBBOJKPI@?$EAwKindID@
CONST	SEGMENT
??_C@_08HBBOJKPI@?$EAwKindID@ DB '@wKindID', 00H	; `string'
CONST	ENDS
;	COMDAT ??_C@_08KFPBGPFE@?$EAwGameID@
CONST	SEGMENT
??_C@_08KFPBGPFE@?$EAwGameID@ DB '@wGameID', 00H	; `string'
CONST	ENDS
;	COMDAT ??_C@_04JFFKLGJF@?$CF02X@
CONST	SEGMENT
??_C@_04JFFKLGJF@?$CF02X@ DB '%02X', 00H		; `string'
CONST	ENDS
;	COMDAT ?__LINE__Var@?0??InsertGameServer@CServerInfoManager@@QAE_NPAUtagGameServerCreate@@AAUtagGameServerInfo@@@Z@4JA
_DATA	SEGMENT
?__LINE__Var@?0??InsertGameServer@CServerInfoManager@@QAE_NPAUtagGameServerCreate@@AAUtagGameServerInfo@@@Z@4JA DD 020cH ; `CServerInfoManager::InsertGameServer'::`1'::__LINE__Var
_DATA	ENDS
;	COMDAT ??_C@_0BG@EDPMEAGC@GSP_GS_DeleteGameRoom@
CONST	SEGMENT
??_C@_0BG@EDPMEAGC@GSP_GS_DeleteGameRoom@ DB 'GSP_GS_DeleteGameRoom', 00H ; `string'
CONST	ENDS
;	COMDAT ?__LINE__Var@?0??DeleteGameServer@CServerInfoManager@@QAE_NG@Z@4JA
_DATA	SEGMENT
?__LINE__Var@?0??DeleteGameServer@CServerInfoManager@@QAE_NG@Z@4JA DD 01d2H ; `CServerInfoManager::DeleteGameServer'::`1'::__LINE__Var
_DATA	ENDS
;	COMDAT ?__LINE__Var@?0??LoadGameServerInfo@CServerInfoManager@@QAE_NQADGAAUtagGameServerInfo@@@Z@4JA
_DATA	SEGMENT
?__LINE__Var@?0??LoadGameServerInfo@CServerInfoManager@@QAE_NQADGAAUtagGameServerInfo@@@Z@4JA DD 018eH ; `CServerInfoManager::LoadGameServerInfo'::`1'::__LINE__Var
_DATA	ENDS
;	COMDAT ??_R0PAUIDataBaseException@@@8
data$r	SEGMENT
??_R0PAUIDataBaseException@@@8 DD FLAT:??_7type_info@@6B@ ; IDataBaseException * `RTTI Type Descriptor'
	DD	00H
	DB	'.PAUIDataBaseException@@', 00H
data$r	ENDS
;	COMDAT ??_C@_0BI@JPDDAIPE@GSP_GS_LoadGameRoomItem@
CONST	SEGMENT
??_C@_0BI@JPDDAIPE@GSP_GS_LoadGameRoomItem@ DB 'GSP_GS_LoadGameRoomItem', 00H ; `string'
CONST	ENDS
;	COMDAT ??_C@_0BC@IIOJPJPJ@?$EAstrErrorDescribe@
CONST	SEGMENT
??_C@_0BC@IIOJPJPJ@?$EAstrErrorDescribe@ DB '@strErrorDescribe', 00H ; `string'
CONST	ENDS
;	COMDAT ??_C@_0BD@CBAFKNPB@?$EAstrServiceMachine@
CONST	SEGMENT
??_C@_0BD@CBAFKNPB@?$EAstrServiceMachine@ DB '@strServiceMachine', 00H ; `string'
CONST	ENDS
;	COMDAT ??_C@_0L@FIEHJJML@?$EAwServerID@
CONST	SEGMENT
??_C@_0L@FIEHJJML@?$EAwServerID@ DB '@wServerID', 00H	; `string'
CONST	ENDS
;	COMDAT ?__LINE__Var@?0??LoadGameServerInfo@CServerInfoManager@@QAE_NQADAAVCServerInfoBuffer@@@Z@4JA
_DATA	SEGMENT
?__LINE__Var@?0??LoadGameServerInfo@CServerInfoManager@@QAE_NQADAAVCServerInfoBuffer@@@Z@4JA DD 0140H ; `CServerInfoManager::LoadGameServerInfo'::`1'::__LINE__Var
_DATA	ENDS
;	COMDAT ?__LINE__Var@?0??InsertMatchOption@CMatchOptionBuffer@@QAE_NPAUtagGameMatchOption@@@Z@4JA
_DATA	SEGMENT
?__LINE__Var@?0??InsertMatchOption@CMatchOptionBuffer@@QAE_NPAUtagGameMatchOption@@@Z@4JA DD 0dfH ; `CMatchOptionBuffer::InsertMatchOption'::`1'::__LINE__Var
_DATA	ENDS
;	COMDAT ?__LINE__Var@?0???1CMatchOptionBuffer@@UAE@XZ@4JA
_DATA	SEGMENT
?__LINE__Var@?0???1CMatchOptionBuffer@@UAE@XZ@4JA DD 0a4H ; `CMatchOptionBuffer::~CMatchOptionBuffer'::`1'::__LINE__Var
_DATA	ENDS
;	COMDAT ?__LINE__Var@?0??InsertServerInfo@CServerInfoBuffer@@QAE_NPAUtagGameServerInfo@@@Z@4JA
_DATA	SEGMENT
?__LINE__Var@?0??InsertServerInfo@CServerInfoBuffer@@QAE_NPAUtagGameServerInfo@@@Z@4JA DD 051H ; `CServerInfoBuffer::InsertServerInfo'::`1'::__LINE__Var
_DATA	ENDS
;	COMDAT ??_C@_0EO@GNEBGAKM@g?3?2?M?x?$LK?$PM?2happygamewh?2?$LH?$PO?N?q?$LG?K?2?O?$LF?M?$LD@
CONST	SEGMENT
??_C@_0EO@GNEBGAKM@g?3?2?M?x?$LK?$PM?2happygamewh?2?$LH?$PO?N?q?$LG?K?2?O?$LF?M?$LD@ DB 'g'
	DB	':\', 0cdH, 0f8H, 0baH, 0fcH, '\happygamewh\', 0b7H, 0feH, 0ceH
	DB	0f1H, 0b6H, 0cbH, '\', 0cfH, 0b5H, 0cdH, 0b3H, 0c4H, 0a3H, 0bfH
	DB	0e9H, '\', 0b7H, 0feH, 0ceH, 0f1H, 0c6H, 0f7H, 0d7H, 0e9H, 0bcH
	DB	0feH, '\', 0c4H, 0a3H, 0bfH, 0e9H, 0b9H, 0dcH, 0c0H, 0edH, '\s'
	DB	'erverinfomanager.cpp', 00H			; `string'
CONST	ENDS
;	COMDAT ?__LINE__Var@?0???1CServerInfoBuffer@@UAE@XZ@4JA
_DATA	SEGMENT
?__LINE__Var@?0???1CServerInfoBuffer@@UAE@XZ@4JA DD 0eH	; `CServerInfoBuffer::~CServerInfoBuffer'::`1'::__LINE__Var
_DATA	ENDS
;	COMDAT ??_7CServerInfoManager@@6B@
CONST	SEGMENT
??_7CServerInfoManager@@6B@ DD FLAT:??_R4CServerInfoManager@@6B@ ; CServerInfoManager::`vftable'
	DD	FLAT:??_ECServerInfoManager@@UAEPAXI@Z
CONST	ENDS
;	COMDAT ??_7CMatchOptionBuffer@@6B@
CONST	SEGMENT
??_7CMatchOptionBuffer@@6B@ DD FLAT:??_R4CMatchOptionBuffer@@6B@ ; CMatchOptionBuffer::`vftable'
	DD	FLAT:??_ECMatchOptionBuffer@@UAEPAXI@Z
CONST	ENDS
;	COMDAT ??_7?$CWHArray@PAUtagGameMatchOption@@ABQAU1@@@6B@
CONST	SEGMENT
??_7?$CWHArray@PAUtagGameMatchOption@@ABQAU1@@@6B@ DD FLAT:??_R4?$CWHArray@PAUtagGameMatchOption@@ABQAU1@@@6B@ ; CWHArray<tagGameMatchOption *,tagGameMatchOption * const &>::`vftable'
	DD	FLAT:??_E?$CWHArray@PAUtagGameMatchOption@@ABQAU1@@@UAEPAXI@Z
CONST	ENDS
;	COMDAT ??_7CServerInfoBuffer@@6B@
CONST	SEGMENT
??_7CServerInfoBuffer@@6B@ DD FLAT:??_R4CServerInfoBuffer@@6B@ ; CServerInfoBuffer::`vftable'
	DD	FLAT:??_ECServerInfoBuffer@@UAEPAXI@Z
CONST	ENDS
;	COMDAT ??_7?$CWHArray@PAUtagGameServerInfo@@ABQAU1@@@6B@
CONST	SEGMENT
??_7?$CWHArray@PAUtagGameServerInfo@@ABQAU1@@@6B@ DD FLAT:??_R4?$CWHArray@PAUtagGameServerInfo@@ABQAU1@@@6B@ ; CWHArray<tagGameServerInfo *,tagGameServerInfo * const &>::`vftable'
	DD	FLAT:??_E?$CWHArray@PAUtagGameServerInfo@@ABQAU1@@@UAEPAXI@Z
CONST	ENDS
;	COMDAT ??_7?$CMap@GGPAUtagGameServerInfo@@PAU1@@@6B@
CONST	SEGMENT
??_7?$CMap@GGPAUtagGameServerInfo@@PAU1@@@6B@ DD FLAT:??_R4?$CMap@GGPAUtagGameServerInfo@@PAU1@@@6B@ ; CMap<unsigned short,unsigned short,tagGameServerInfo *,tagGameServerInfo *>::`vftable'
	DD	FLAT:?GetRuntimeClass@CObject@@UBEPAUCRuntimeClass@@XZ
	DD	FLAT:??_E?$CMap@GGPAUtagGameServerInfo@@PAU1@@@UAEPAXI@Z
	DD	FLAT:?Serialize@?$CMap@GGPAUtagGameServerInfo@@PAU1@@@UAEXAAVCArchive@@@Z
	DD	FLAT:?AssertValid@?$CMap@GGPAUtagGameServerInfo@@PAU1@@@UBEXXZ
	DD	FLAT:?Dump@?$CMap@GGPAUtagGameServerInfo@@PAU1@@@UBEXAAVCDumpContext@@@Z
CONST	ENDS
;	COMDAT ??_7CModuleDBParameter@@6B@
CONST	SEGMENT
??_7CModuleDBParameter@@6B@ DD FLAT:??_R4CModuleDBParameter@@6B@ ; CModuleDBParameter::`vftable'
	DD	FLAT:??_ECModuleDBParameter@@UAEPAXI@Z
CONST	ENDS
;	COMDAT ??_C@_0BB@BEMLEOHB@KernelEngine?4dll@
CONST	SEGMENT
??_C@_0BB@BEMLEOHB@KernelEngine?4dll@ DB 'KernelEngine.dll', 00H ; `string'
CONST	ENDS
;	COMDAT ??_C@_0P@IKJBDFNG@CreateDataBase@
CONST	SEGMENT
??_C@_0P@IKJBDFNG@CreateDataBase@ DB 'CreateDataBase', 00H ; `string'
CONST	ENDS
;	COMDAT ??_7CDataBaseHelper@@6B@
CONST	SEGMENT
??_7CDataBaseHelper@@6B@ DD FLAT:??_R4CDataBaseHelper@@6B@ ; CDataBaseHelper::`vftable'
	DD	FLAT:??_ECDataBaseHelper@@UAEPAXI@Z
CONST	ENDS
;	COMDAT ??_7?$CTempldateHelper@UIDataBase@@@@6B@
CONST	SEGMENT
??_7?$CTempldateHelper@UIDataBase@@@@6B@ DD FLAT:??_R4?$CTempldateHelper@UIDataBase@@@@6B@ ; CTempldateHelper<IDataBase>::`vftable'
	DD	FLAT:??_E?$CTempldateHelper@UIDataBase@@@@UAEPAXI@Z
CONST	ENDS
;	COMDAT ??_C@_0GI@DJFLDKBN@c?3?2program?5files?5?$CIx86?$CJ?2microsof@
CONST	SEGMENT
??_C@_0GI@DJFLDKBN@c?3?2program?5files?5?$CIx86?$CJ?2microsof@ DB 'c:\pro'
	DB	'gram files (x86)\microsoft visual studio\2017\community\vc\to'
	DB	'ols\msvc\14.16.27023\include\xlocnum', 00H	; `string'
CONST	ENDS
;	COMDAT ?__LINE__Var@?0??_Maklocwcs@std@@YAPA_WPB_W@Z@4JA
_DATA	SEGMENT
?__LINE__Var@?0??_Maklocwcs@std@@YAPA_WPB_W@Z@4JA DD 061H ; `std::_Maklocwcs'::`1'::__LINE__Var
_DATA	ENDS
;	COMDAT ??_C@_0GI@LKBGDILM@c?3?2program?5files?5?$CIx86?$CJ?2microsof@
CONST	SEGMENT
??_C@_0GI@LKBGDILM@c?3?2program?5files?5?$CIx86?$CJ?2microsof@ DB 'c:\pro'
	DB	'gram files (x86)\microsoft visual studio\2017\community\vc\to'
	DB	'ols\msvc\14.16.27023\include\xlocale', 00H	; `string'
CONST	ENDS
;	COMDAT ??_R2CObject@@8
rdata$r	SEGMENT
??_R2CObject@@8 DD FLAT:??_R1A@?0A@EA@CObject@@8	; CObject::`RTTI Base Class Array'
rdata$r	ENDS
;	COMDAT ??_R3CObject@@8
rdata$r	SEGMENT
??_R3CObject@@8 DD 00H					; CObject::`RTTI Class Hierarchy Descriptor'
	DD	00H
	DD	01H
	DD	FLAT:??_R2CObject@@8
rdata$r	ENDS
;	COMDAT ??_R0?AVCObject@@@8
data$r	SEGMENT
??_R0?AVCObject@@@8 DD FLAT:??_7type_info@@6B@		; CObject `RTTI Type Descriptor'
	DD	00H
	DB	'.?AVCObject@@', 00H
data$r	ENDS
;	COMDAT ??_R1A@?0A@EA@CObject@@8
rdata$r	SEGMENT
??_R1A@?0A@EA@CObject@@8 DD FLAT:??_R0?AVCObject@@@8	; CObject::`RTTI Base Class Descriptor at (0,-1,0,64)'
	DD	00H
	DD	00H
	DD	0ffffffffH
	DD	00H
	DD	040H
	DD	FLAT:??_R3CObject@@8
rdata$r	ENDS
;	COMDAT ??_C@_01EEMJAFIK@?6@
CONST	SEGMENT
??_C@_01EEMJAFIK@?6@ DB 0aH, 00H			; `string'
CONST	ENDS
;	COMDAT ??_C@_09HCLNAIDE@?5elements@
CONST	SEGMENT
??_C@_09HCLNAIDE@?5elements@ DB ' elements', 00H	; `string'
CONST	ENDS
;	COMDAT ??_C@_05PLCFPPOI@with?5@
CONST	SEGMENT
??_C@_05PLCFPPOI@with?5@ DB 'with ', 00H		; `string'
CONST	ENDS
;	COMDAT ??_C@_0HC@HBCNBCLF@c?3?2program?5files?5?$CIx86?$CJ?2microsof@
CONST	SEGMENT
??_C@_0HC@HBCNBCLF@c?3?2program?5files?5?$CIx86?$CJ?2microsof@ DB 'c:\pro'
	DB	'gram files (x86)\microsoft visual studio\2017\community\vc\to'
	DB	'ols\msvc\14.16.27023\atlmfc\include\afxtempl.h', 00H ; `string'
CONST	ENDS
;	COMDAT ??_C@_00CNPNBAHC@@
CONST	SEGMENT
??_C@_00CNPNBAHC@@ DB 00H				; `string'
CONST	ENDS
;	COMDAT ??_C@_02DPKJAMEF@?$CFd@
CONST	SEGMENT
??_C@_02DPKJAMEF@?$CFd@ DB '%d', 00H			; `string'
CONST	ENDS
;	COMDAT xdata$x
xdata$x	SEGMENT
__ehfuncinfo$??_ECServerInfoManager@@UAEPAXI@Z DD 019930522H
	DD	00H
	DD	00H
	DD	2 DUP(00H)
	DD	2 DUP(00H)
	DD	00H
	DD	05H
xdata$x	ENDS
;	COMDAT xdata$x
xdata$x	SEGMENT
__catchsym$?ModifyPersonalRoomParameter@CServerInfoManager@@QAE_NVCDataBaseAide@@UtagPersonalRoomOption@@UtagPersonalRoomOptionRightAndFee@@GG@Z$3 DD 00H
	DD	FLAT:??_R0PAUIDataBaseException@@@8
	DD	0fffffe5cH
	DD	FLAT:__catch$?ModifyPersonalRoomParameter@CServerInfoManager@@QAE_NVCDataBaseAide@@UtagPersonalRoomOption@@UtagPersonalRoomOptionRightAndFee@@GG@Z$0
__tryblocktable$?ModifyPersonalRoomParameter@CServerInfoManager@@QAE_NVCDataBaseAide@@UtagPersonalRoomOption@@UtagPersonalRoomOptionRightAndFee@@GG@Z DD 01H
	DD	01H
	DD	02H
	DD	01H
	DD	FLAT:__catchsym$?ModifyPersonalRoomParameter@CServerInfoManager@@QAE_NVCDataBaseAide@@UtagPersonalRoomOption@@UtagPersonalRoomOptionRightAndFee@@GG@Z$3
__unwindtable$?ModifyPersonalRoomParameter@CServerInfoManager@@QAE_NVCDataBaseAide@@UtagPersonalRoomOption@@UtagPersonalRoomOptionRightAndFee@@GG@Z DD 0ffffffffH
	DD	FLAT:__unwindfunclet$?ModifyPersonalRoomParameter@CServerInfoManager@@QAE_NVCDataBaseAide@@UtagPersonalRoomOption@@UtagPersonalRoomOptionRightAndFee@@GG@Z$2
	DD	00H
	DD	00H
	DD	00H
	DD	00H
__ehfuncinfo$?ModifyPersonalRoomParameter@CServerInfoManager@@QAE_NVCDataBaseAide@@UtagPersonalRoomOption@@UtagPersonalRoomOptionRightAndFee@@GG@Z DD 019930522H
	DD	03H
	DD	FLAT:__unwindtable$?ModifyPersonalRoomParameter@CServerInfoManager@@QAE_NVCDataBaseAide@@UtagPersonalRoomOption@@UtagPersonalRoomOptionRightAndFee@@GG@Z
	DD	01H
	DD	FLAT:__tryblocktable$?ModifyPersonalRoomParameter@CServerInfoManager@@QAE_NVCDataBaseAide@@UtagPersonalRoomOption@@UtagPersonalRoomOptionRightAndFee@@GG@Z
	DD	2 DUP(00H)
	DD	00H
	DD	01H
xdata$x	ENDS
;	COMDAT xdata$x
xdata$x	SEGMENT
__catchsym$?InsertPersonalRoomParameter@CServerInfoManager@@QAE_NVCDataBaseAide@@UtagPersonalRoomOption@@UtagPersonalRoomOptionRightAndFee@@GG@Z$3 DD 00H
	DD	FLAT:??_R0PAUIDataBaseException@@@8
	DD	0fffffe5cH
	DD	FLAT:__catch$?InsertPersonalRoomParameter@CServerInfoManager@@QAE_NVCDataBaseAide@@UtagPersonalRoomOption@@UtagPersonalRoomOptionRightAndFee@@GG@Z$0
__tryblocktable$?InsertPersonalRoomParameter@CServerInfoManager@@QAE_NVCDataBaseAide@@UtagPersonalRoomOption@@UtagPersonalRoomOptionRightAndFee@@GG@Z DD 01H
	DD	01H
	DD	02H
	DD	01H
	DD	FLAT:__catchsym$?InsertPersonalRoomParameter@CServerInfoManager@@QAE_NVCDataBaseAide@@UtagPersonalRoomOption@@UtagPersonalRoomOptionRightAndFee@@GG@Z$3
__unwindtable$?InsertPersonalRoomParameter@CServerInfoManager@@QAE_NVCDataBaseAide@@UtagPersonalRoomOption@@UtagPersonalRoomOptionRightAndFee@@GG@Z DD 0ffffffffH
	DD	FLAT:__unwindfunclet$?InsertPersonalRoomParameter@CServerInfoManager@@QAE_NVCDataBaseAide@@UtagPersonalRoomOption@@UtagPersonalRoomOptionRightAndFee@@GG@Z$2
	DD	00H
	DD	00H
	DD	00H
	DD	00H
__ehfuncinfo$?InsertPersonalRoomParameter@CServerInfoManager@@QAE_NVCDataBaseAide@@UtagPersonalRoomOption@@UtagPersonalRoomOptionRightAndFee@@GG@Z DD 019930522H
	DD	03H
	DD	FLAT:__unwindtable$?InsertPersonalRoomParameter@CServerInfoManager@@QAE_NVCDataBaseAide@@UtagPersonalRoomOption@@UtagPersonalRoomOptionRightAndFee@@GG@Z
	DD	01H
	DD	FLAT:__tryblocktable$?InsertPersonalRoomParameter@CServerInfoManager@@QAE_NVCDataBaseAide@@UtagPersonalRoomOption@@UtagPersonalRoomOptionRightAndFee@@GG@Z
	DD	2 DUP(00H)
	DD	00H
	DD	01H
xdata$x	ENDS
;	COMDAT xdata$x
xdata$x	SEGMENT
__catchsym$?LoadPersonalRoomParameter@CServerInfoManager@@QAE_NAAUtagPersonalRoomOption@@AAUtagPersonalRoomOptionRightAndFee@@G@Z$4 DD 00H
	DD	FLAT:??_R0PAUIDataBaseException@@@8
	DD	0ffffbd74H
	DD	FLAT:__catch$?LoadPersonalRoomParameter@CServerInfoManager@@QAE_NAAUtagPersonalRoomOption@@AAUtagPersonalRoomOptionRightAndFee@@G@Z$0
__tryblocktable$?LoadPersonalRoomParameter@CServerInfoManager@@QAE_NAAUtagPersonalRoomOption@@AAUtagPersonalRoomOptionRightAndFee@@G@Z DD 02H
	DD	02H
	DD	03H
	DD	01H
	DD	FLAT:__catchsym$?LoadPersonalRoomParameter@CServerInfoManager@@QAE_NAAUtagPersonalRoomOption@@AAUtagPersonalRoomOptionRightAndFee@@G@Z$4
__unwindtable$?LoadPersonalRoomParameter@CServerInfoManager@@QAE_NAAUtagPersonalRoomOption@@AAUtagPersonalRoomOptionRightAndFee@@G@Z DD 0ffffffffH
	DD	FLAT:__unwindfunclet$?LoadPersonalRoomParameter@CServerInfoManager@@QAE_NAAUtagPersonalRoomOption@@AAUtagPersonalRoomOptionRightAndFee@@G@Z$2
	DD	00H
	DD	FLAT:__unwindfunclet$?LoadPersonalRoomParameter@CServerInfoManager@@QAE_NAAUtagPersonalRoomOption@@AAUtagPersonalRoomOptionRightAndFee@@G@Z$3
	DD	01H
	DD	00H
	DD	01H
	DD	00H
__ehfuncinfo$?LoadPersonalRoomParameter@CServerInfoManager@@QAE_NAAUtagPersonalRoomOption@@AAUtagPersonalRoomOptionRightAndFee@@G@Z DD 019930522H
	DD	04H
	DD	FLAT:__unwindtable$?LoadPersonalRoomParameter@CServerInfoManager@@QAE_NAAUtagPersonalRoomOption@@AAUtagPersonalRoomOptionRightAndFee@@G@Z
	DD	01H
	DD	FLAT:__tryblocktable$?LoadPersonalRoomParameter@CServerInfoManager@@QAE_NAAUtagPersonalRoomOption@@AAUtagPersonalRoomOptionRightAndFee@@G@Z
	DD	2 DUP(00H)
	DD	00H
	DD	01H
xdata$x	ENDS
;	COMDAT xdata$x
xdata$x	SEGMENT
__catchsym$?ModifyGameServer@CServerInfoManager@@QAE_NPAUtagGameServerCreate@@AAUtagGameServerInfo@@@Z$5 DD 00H
	DD	FLAT:??_R0PAUIDataBaseException@@@8
	DD	0ffffed74H
	DD	FLAT:__catch$?ModifyGameServer@CServerInfoManager@@QAE_NPAUtagGameServerCreate@@AAUtagGameServerInfo@@@Z$0
__tryblocktable$?ModifyGameServer@CServerInfoManager@@QAE_NPAUtagGameServerCreate@@AAUtagGameServerInfo@@@Z DD 02H
	DD	02H
	DD	03H
	DD	01H
	DD	FLAT:__catchsym$?ModifyGameServer@CServerInfoManager@@QAE_NPAUtagGameServerCreate@@AAUtagGameServerInfo@@@Z$5
__unwindtable$?ModifyGameServer@CServerInfoManager@@QAE_NPAUtagGameServerCreate@@AAUtagGameServerInfo@@@Z DD 0ffffffffH
	DD	FLAT:__unwindfunclet$?ModifyGameServer@CServerInfoManager@@QAE_NPAUtagGameServerCreate@@AAUtagGameServerInfo@@@Z$2
	DD	00H
	DD	FLAT:__unwindfunclet$?ModifyGameServer@CServerInfoManager@@QAE_NPAUtagGameServerCreate@@AAUtagGameServerInfo@@@Z$3
	DD	01H
	DD	00H
	DD	01H
	DD	00H
__ehfuncinfo$?ModifyGameServer@CServerInfoManager@@QAE_NPAUtagGameServerCreate@@AAUtagGameServerInfo@@@Z DD 019930522H
	DD	04H
	DD	FLAT:__unwindtable$?ModifyGameServer@CServerInfoManager@@QAE_NPAUtagGameServerCreate@@AAUtagGameServerInfo@@@Z
	DD	01H
	DD	FLAT:__tryblocktable$?ModifyGameServer@CServerInfoManager@@QAE_NPAUtagGameServerCreate@@AAUtagGameServerInfo@@@Z
	DD	2 DUP(00H)
	DD	00H
	DD	01H
xdata$x	ENDS
;	COMDAT xdata$x
xdata$x	SEGMENT
__catchsym$?InsertGameServer@CServerInfoManager@@QAE_NPAUtagGameServerCreate@@AAUtagGameServerInfo@@@Z$5 DD 00H
	DD	FLAT:??_R0PAUIDataBaseException@@@8
	DD	0ffffed74H
	DD	FLAT:__catch$?InsertGameServer@CServerInfoManager@@QAE_NPAUtagGameServerCreate@@AAUtagGameServerInfo@@@Z$0
__tryblocktable$?InsertGameServer@CServerInfoManager@@QAE_NPAUtagGameServerCreate@@AAUtagGameServerInfo@@@Z DD 02H
	DD	02H
	DD	03H
	DD	01H
	DD	FLAT:__catchsym$?InsertGameServer@CServerInfoManager@@QAE_NPAUtagGameServerCreate@@AAUtagGameServerInfo@@@Z$5
__unwindtable$?InsertGameServer@CServerInfoManager@@QAE_NPAUtagGameServerCreate@@AAUtagGameServerInfo@@@Z DD 0ffffffffH
	DD	FLAT:__unwindfunclet$?InsertGameServer@CServerInfoManager@@QAE_NPAUtagGameServerCreate@@AAUtagGameServerInfo@@@Z$2
	DD	00H
	DD	FLAT:__unwindfunclet$?InsertGameServer@CServerInfoManager@@QAE_NPAUtagGameServerCreate@@AAUtagGameServerInfo@@@Z$3
	DD	01H
	DD	00H
	DD	01H
	DD	00H
__ehfuncinfo$?InsertGameServer@CServerInfoManager@@QAE_NPAUtagGameServerCreate@@AAUtagGameServerInfo@@@Z DD 019930522H
	DD	04H
	DD	FLAT:__unwindtable$?InsertGameServer@CServerInfoManager@@QAE_NPAUtagGameServerCreate@@AAUtagGameServerInfo@@@Z
	DD	01H
	DD	FLAT:__tryblocktable$?InsertGameServer@CServerInfoManager@@QAE_NPAUtagGameServerCreate@@AAUtagGameServerInfo@@@Z
	DD	2 DUP(00H)
	DD	00H
	DD	01H
xdata$x	ENDS
;	COMDAT xdata$x
xdata$x	SEGMENT
__catchsym$?DeleteGameServer@CServerInfoManager@@QAE_NG@Z$4 DD 00H
	DD	FLAT:??_R0PAUIDataBaseException@@@8
	DD	0fffffd84H
	DD	FLAT:__catch$?DeleteGameServer@CServerInfoManager@@QAE_NG@Z$0
__tryblocktable$?DeleteGameServer@CServerInfoManager@@QAE_NG@Z DD 02H
	DD	02H
	DD	03H
	DD	01H
	DD	FLAT:__catchsym$?DeleteGameServer@CServerInfoManager@@QAE_NG@Z$4
__unwindtable$?DeleteGameServer@CServerInfoManager@@QAE_NG@Z DD 0ffffffffH
	DD	FLAT:__unwindfunclet$?DeleteGameServer@CServerInfoManager@@QAE_NG@Z$2
	DD	00H
	DD	FLAT:__unwindfunclet$?DeleteGameServer@CServerInfoManager@@QAE_NG@Z$3
	DD	01H
	DD	00H
	DD	01H
	DD	00H
__ehfuncinfo$?DeleteGameServer@CServerInfoManager@@QAE_NG@Z DD 019930522H
	DD	04H
	DD	FLAT:__unwindtable$?DeleteGameServer@CServerInfoManager@@QAE_NG@Z
	DD	01H
	DD	FLAT:__tryblocktable$?DeleteGameServer@CServerInfoManager@@QAE_NG@Z
	DD	2 DUP(00H)
	DD	00H
	DD	01H
xdata$x	ENDS
;	COMDAT xdata$x
xdata$x	SEGMENT
__catchsym$?LoadGameServerInfo@CServerInfoManager@@QAE_NQADGAAUtagGameServerInfo@@@Z$4 DD 00H
	DD	FLAT:??_R0PAUIDataBaseException@@@8
	DD	0fffffd84H
	DD	FLAT:__catch$?LoadGameServerInfo@CServerInfoManager@@QAE_NQADGAAUtagGameServerInfo@@@Z$0
__tryblocktable$?LoadGameServerInfo@CServerInfoManager@@QAE_NQADGAAUtagGameServerInfo@@@Z DD 02H
	DD	02H
	DD	03H
	DD	01H
	DD	FLAT:__catchsym$?LoadGameServerInfo@CServerInfoManager@@QAE_NQADGAAUtagGameServerInfo@@@Z$4
__unwindtable$?LoadGameServerInfo@CServerInfoManager@@QAE_NQADGAAUtagGameServerInfo@@@Z DD 0ffffffffH
	DD	FLAT:__unwindfunclet$?LoadGameServerInfo@CServerInfoManager@@QAE_NQADGAAUtagGameServerInfo@@@Z$2
	DD	00H
	DD	FLAT:__unwindfunclet$?LoadGameServerInfo@CServerInfoManager@@QAE_NQADGAAUtagGameServerInfo@@@Z$3
	DD	01H
	DD	00H
	DD	01H
	DD	00H
__ehfuncinfo$?LoadGameServerInfo@CServerInfoManager@@QAE_NQADGAAUtagGameServerInfo@@@Z DD 019930522H
	DD	04H
	DD	FLAT:__unwindtable$?LoadGameServerInfo@CServerInfoManager@@QAE_NQADGAAUtagGameServerInfo@@@Z
	DD	01H
	DD	FLAT:__tryblocktable$?LoadGameServerInfo@CServerInfoManager@@QAE_NQADGAAUtagGameServerInfo@@@Z
	DD	2 DUP(00H)
	DD	00H
	DD	01H
xdata$x	ENDS
;	COMDAT xdata$x
xdata$x	SEGMENT
__catchsym$?LoadGameServerInfo@CServerInfoManager@@QAE_NQADAAVCServerInfoBuffer@@@Z$4 DD 00H
	DD	FLAT:??_R0PAUIDataBaseException@@@8
	DD	0fffff414H
	DD	FLAT:__catch$?LoadGameServerInfo@CServerInfoManager@@QAE_NQADAAVCServerInfoBuffer@@@Z$0
__tryblocktable$?LoadGameServerInfo@CServerInfoManager@@QAE_NQADAAVCServerInfoBuffer@@@Z DD 02H
	DD	02H
	DD	03H
	DD	01H
	DD	FLAT:__catchsym$?LoadGameServerInfo@CServerInfoManager@@QAE_NQADAAVCServerInfoBuffer@@@Z$4
__unwindtable$?LoadGameServerInfo@CServerInfoManager@@QAE_NQADAAVCServerInfoBuffer@@@Z DD 0ffffffffH
	DD	FLAT:__unwindfunclet$?LoadGameServerInfo@CServerInfoManager@@QAE_NQADAAVCServerInfoBuffer@@@Z$2
	DD	00H
	DD	FLAT:__unwindfunclet$?LoadGameServerInfo@CServerInfoManager@@QAE_NQADAAVCServerInfoBuffer@@@Z$3
	DD	01H
	DD	00H
	DD	01H
	DD	00H
__ehfuncinfo$?LoadGameServerInfo@CServerInfoManager@@QAE_NQADAAVCServerInfoBuffer@@@Z DD 019930522H
	DD	04H
	DD	FLAT:__unwindtable$?LoadGameServerInfo@CServerInfoManager@@QAE_NQADAAVCServerInfoBuffer@@@Z
	DD	01H
	DD	FLAT:__tryblocktable$?LoadGameServerInfo@CServerInfoManager@@QAE_NQADAAVCServerInfoBuffer@@@Z
	DD	2 DUP(00H)
	DD	00H
	DD	01H
xdata$x	ENDS
;	COMDAT xdata$x
xdata$x	SEGMENT
__ehfuncinfo$??_ECMatchOptionBuffer@@UAEPAXI@Z DD 019930522H
	DD	00H
	DD	00H
	DD	2 DUP(00H)
	DD	2 DUP(00H)
	DD	00H
	DD	05H
xdata$x	ENDS
;	COMDAT xdata$x
xdata$x	SEGMENT
__catchsym$?CreateMatchOption@CMatchOptionBuffer@@AAEPAUtagGameMatchOption@@XZ$2 DD 040H
	DD	00H
	DD	00H
	DD	FLAT:__catch$?CreateMatchOption@CMatchOptionBuffer@@AAEPAUtagGameMatchOption@@XZ$0
__unwindtable$?CreateMatchOption@CMatchOptionBuffer@@AAEPAUtagGameMatchOption@@XZ DD 0ffffffffH
	DD	00H
	DD	0ffffffffH
	DD	00H
__tryblocktable$?CreateMatchOption@CMatchOptionBuffer@@AAEPAUtagGameMatchOption@@XZ DD 00H
	DD	00H
	DD	01H
	DD	01H
	DD	FLAT:__catchsym$?CreateMatchOption@CMatchOptionBuffer@@AAEPAUtagGameMatchOption@@XZ$2
__ehfuncinfo$?CreateMatchOption@CMatchOptionBuffer@@AAEPAUtagGameMatchOption@@XZ DD 019930522H
	DD	02H
	DD	FLAT:__unwindtable$?CreateMatchOption@CMatchOptionBuffer@@AAEPAUtagGameMatchOption@@XZ
	DD	01H
	DD	FLAT:__tryblocktable$?CreateMatchOption@CMatchOptionBuffer@@AAEPAUtagGameMatchOption@@XZ
	DD	2 DUP(00H)
	DD	00H
	DD	01H
xdata$x	ENDS
;	COMDAT xdata$x
xdata$x	SEGMENT
__catchsym$??1CMatchOptionBuffer@@UAE@XZ$4 DD 040H
	DD	00H
	DD	00H
	DD	FLAT:__catch$??1CMatchOptionBuffer@@UAE@XZ$0
__tryblocktable$??1CMatchOptionBuffer@@UAE@XZ DD 02H
	DD	02H
	DD	03H
	DD	01H
	DD	FLAT:__catchsym$??1CMatchOptionBuffer@@UAE@XZ$4
__unwindtable$??1CMatchOptionBuffer@@UAE@XZ DD 0ffffffffH
	DD	FLAT:__unwindfunclet$??1CMatchOptionBuffer@@UAE@XZ$2
	DD	00H
	DD	FLAT:__unwindfunclet$??1CMatchOptionBuffer@@UAE@XZ$3
	DD	01H
	DD	00H
	DD	01H
	DD	00H
__ehfuncinfo$??1CMatchOptionBuffer@@UAE@XZ DD 019930522H
	DD	04H
	DD	FLAT:__unwindtable$??1CMatchOptionBuffer@@UAE@XZ
	DD	01H
	DD	FLAT:__tryblocktable$??1CMatchOptionBuffer@@UAE@XZ
	DD	2 DUP(00H)
	DD	00H
	DD	05H
xdata$x	ENDS
;	COMDAT xdata$x
xdata$x	SEGMENT
__unwindtable$??0CMatchOptionBuffer@@QAE@XZ DD 0ffffffffH
	DD	FLAT:__unwindfunclet$??0CMatchOptionBuffer@@QAE@XZ$0
__ehfuncinfo$??0CMatchOptionBuffer@@QAE@XZ DD 019930522H
	DD	01H
	DD	FLAT:__unwindtable$??0CMatchOptionBuffer@@QAE@XZ
	DD	2 DUP(00H)
	DD	2 DUP(00H)
	DD	00H
	DD	01H
xdata$x	ENDS
;	COMDAT xdata$x
xdata$x	SEGMENT
__ehfuncinfo$??_ECServerInfoBuffer@@UAEPAXI@Z DD 019930522H
	DD	00H
	DD	00H
	DD	2 DUP(00H)
	DD	2 DUP(00H)
	DD	00H
	DD	05H
xdata$x	ENDS
;	COMDAT xdata$x
xdata$x	SEGMENT
__catchsym$?CreateServerInfo@CServerInfoBuffer@@AAEPAUtagGameServerInfo@@XZ$2 DD 040H
	DD	00H
	DD	00H
	DD	FLAT:__catch$?CreateServerInfo@CServerInfoBuffer@@AAEPAUtagGameServerInfo@@XZ$0
__unwindtable$?CreateServerInfo@CServerInfoBuffer@@AAEPAUtagGameServerInfo@@XZ DD 0ffffffffH
	DD	00H
	DD	0ffffffffH
	DD	00H
__tryblocktable$?CreateServerInfo@CServerInfoBuffer@@AAEPAUtagGameServerInfo@@XZ DD 00H
	DD	00H
	DD	01H
	DD	01H
	DD	FLAT:__catchsym$?CreateServerInfo@CServerInfoBuffer@@AAEPAUtagGameServerInfo@@XZ$2
__ehfuncinfo$?CreateServerInfo@CServerInfoBuffer@@AAEPAUtagGameServerInfo@@XZ DD 019930522H
	DD	02H
	DD	FLAT:__unwindtable$?CreateServerInfo@CServerInfoBuffer@@AAEPAUtagGameServerInfo@@XZ
	DD	01H
	DD	FLAT:__tryblocktable$?CreateServerInfo@CServerInfoBuffer@@AAEPAUtagGameServerInfo@@XZ
	DD	2 DUP(00H)
	DD	00H
	DD	01H
xdata$x	ENDS
;	COMDAT xdata$x
xdata$x	SEGMENT
__catchsym$??1CServerInfoBuffer@@UAE@XZ$7 DD 040H
	DD	00H
	DD	00H
	DD	FLAT:__catch$??1CServerInfoBuffer@@UAE@XZ$2
__catchsym$??1CServerInfoBuffer@@UAE@XZ$6 DD 040H
	DD	00H
	DD	00H
	DD	FLAT:__catch$??1CServerInfoBuffer@@UAE@XZ$0
__ehfuncinfo$??1CServerInfoBuffer@@UAE@XZ DD 019930522H
	DD	06H
	DD	FLAT:__unwindtable$??1CServerInfoBuffer@@UAE@XZ
	DD	02H
	DD	FLAT:__tryblocktable$??1CServerInfoBuffer@@UAE@XZ
	DD	2 DUP(00H)
	DD	00H
	DD	05H
__tryblocktable$??1CServerInfoBuffer@@UAE@XZ DD 02H
	DD	02H
	DD	03H
	DD	01H
	DD	FLAT:__catchsym$??1CServerInfoBuffer@@UAE@XZ$6
	DD	04H
	DD	04H
	DD	05H
	DD	01H
	DD	FLAT:__catchsym$??1CServerInfoBuffer@@UAE@XZ$7
__unwindtable$??1CServerInfoBuffer@@UAE@XZ DD 0ffffffffH
	DD	FLAT:__unwindfunclet$??1CServerInfoBuffer@@UAE@XZ$4
	DD	00H
	DD	FLAT:__unwindfunclet$??1CServerInfoBuffer@@UAE@XZ$5
	DD	01H
	DD	00H
	DD	01H
	DD	00H
	DD	01H
	DD	00H
	DD	01H
	DD	00H
xdata$x	ENDS
;	COMDAT xdata$x
xdata$x	SEGMENT
__unwindtable$??0CServerInfoBuffer@@QAE@XZ DD 0ffffffffH
	DD	FLAT:__unwindfunclet$??0CServerInfoBuffer@@QAE@XZ$0
__ehfuncinfo$??0CServerInfoBuffer@@QAE@XZ DD 019930522H
	DD	01H
	DD	FLAT:__unwindtable$??0CServerInfoBuffer@@QAE@XZ
	DD	2 DUP(00H)
	DD	2 DUP(00H)
	DD	00H
	DD	01H
xdata$x	ENDS
;	COMDAT xdata$x
xdata$x	SEGMENT
__ehfuncinfo$??1?$CMap@GGPAUtagGameServerInfo@@PAU1@@@UAE@XZ DD 019930522H
	DD	00H
	DD	00H
	DD	2 DUP(00H)
	DD	2 DUP(00H)
	DD	00H
	DD	05H
xdata$x	ENDS
;	COMDAT xdata$x
xdata$x	SEGMENT
__unwindtable$??0?$CMap@GGPAUtagGameServerInfo@@PAU1@@@QAE@H@Z DD 0ffffffffH
	DD	FLAT:__unwindfunclet$??0?$CMap@GGPAUtagGameServerInfo@@PAU1@@@QAE@H@Z$0
__ehfuncinfo$??0?$CMap@GGPAUtagGameServerInfo@@PAU1@@@QAE@H@Z DD 019930522H
	DD	01H
	DD	FLAT:__unwindtable$??0?$CMap@GGPAUtagGameServerInfo@@PAU1@@@QAE@H@Z
	DD	2 DUP(00H)
	DD	2 DUP(00H)
	DD	00H
	DD	01H
xdata$x	ENDS
;	COMDAT xdata$x
xdata$x	SEGMENT
__ehfuncinfo$??_ECModuleDBParameter@@UAEPAXI@Z DD 019930522H
	DD	00H
	DD	00H
	DD	2 DUP(00H)
	DD	2 DUP(00H)
	DD	00H
	DD	05H
xdata$x	ENDS
;	COMDAT xdata$x
xdata$x	SEGMENT
__unwindtable$?CreateInstance@?$CTempldateHelper@UIDataBase@@@@QAE_NXZ DD 0ffffffffH
	DD	00H
	DD	0ffffffffH
	DD	00H
__tryblocktable$?CreateInstance@?$CTempldateHelper@UIDataBase@@@@QAE_NXZ DD 00H
	DD	00H
	DD	01H
	DD	02H
	DD	FLAT:__catchsym$?CreateInstance@?$CTempldateHelper@UIDataBase@@@@QAE_NXZ$3
__catchsym$?CreateInstance@?$CTempldateHelper@UIDataBase@@@@QAE_NXZ$3 DD 01H
	DD	FLAT:??_R0PAD@8
	DD	0ffffffe4H
	DD	FLAT:__catch$?CreateInstance@?$CTempldateHelper@UIDataBase@@@@QAE_NXZ$0
	DD	040H
	DD	00H
	DD	00H
	DD	FLAT:__catch$?CreateInstance@?$CTempldateHelper@UIDataBase@@@@QAE_NXZ$1
__ehfuncinfo$?CreateInstance@?$CTempldateHelper@UIDataBase@@@@QAE_NXZ DD 019930522H
	DD	02H
	DD	FLAT:__unwindtable$?CreateInstance@?$CTempldateHelper@UIDataBase@@@@QAE_NXZ
	DD	01H
	DD	FLAT:__tryblocktable$?CreateInstance@?$CTempldateHelper@UIDataBase@@@@QAE_NXZ
	DD	2 DUP(00H)
	DD	00H
	DD	01H
xdata$x	ENDS
;	COMDAT xdata$x
xdata$x	SEGMENT
__ehfuncinfo$??1?$CTempldateHelper@UIDataBase@@@@UAE@XZ DD 019930522H
	DD	00H
	DD	00H
	DD	2 DUP(00H)
	DD	2 DUP(00H)
	DD	00H
	DD	05H
xdata$x	ENDS
; Function compile flags: /Odtp /ZI
; File c:\program files (x86)\microsoft visual studio\2017\community\vc\tools\msvc\14.16.27023\atlmfc\include\afxtempl.h
;	COMDAT ??$DumpElements@PAUtagGameServerInfo@@@@YGXAAVCDumpContext@@PBQAUtagGameServerInfo@@H@Z
_TEXT	SEGMENT
tv66 = -72						; size = 4
___afx_condVal$1 = -4					; size = 4
_dc$ = 8						; size = 4
_pElements$ = 12					; size = 4
_nCount$ = 16						; size = 4
??$DumpElements@PAUtagGameServerInfo@@@@YGXAAVCDumpContext@@PBQAUtagGameServerInfo@@H@Z PROC ; DumpElements<tagGameServerInfo *>, COMDAT

; 137  : {

  00000	55		 push	 ebp
  00001	8b ec		 mov	 ebp, esp
  00003	83 ec 48	 sub	 esp, 72			; 00000048H
  00006	53		 push	 ebx
  00007	56		 push	 esi
  00008	57		 push	 edi
$LN4@DumpElemen:

; 138  : 	ENSURE(nCount == 0 || pElements != NULL);

  00009	83 7d 10 00	 cmp	 DWORD PTR _nCount$[ebp], 0
  0000d	74 0f		 je	 SHORT $LN7@DumpElemen
  0000f	83 7d 0c 00	 cmp	 DWORD PTR _pElements$[ebp], 0
  00013	75 09		 jne	 SHORT $LN7@DumpElemen
  00015	c7 45 b8 00 00
	00 00		 mov	 DWORD PTR tv66[ebp], 0
  0001c	eb 07		 jmp	 SHORT $LN8@DumpElemen
$LN7@DumpElemen:
  0001e	c7 45 b8 01 00
	00 00		 mov	 DWORD PTR tv66[ebp], 1
$LN8@DumpElemen:
  00025	8b 45 b8	 mov	 eax, DWORD PTR tv66[ebp]
  00028	89 45 fc	 mov	 DWORD PTR ___afx_condVal$1[ebp], eax
  0002b	83 7d fc 00	 cmp	 DWORD PTR ___afx_condVal$1[ebp], 0
  0002f	75 14		 jne	 SHORT $LN9@DumpElemen
  00031	68 8a 00 00 00	 push	 138			; 0000008aH
  00036	68 00 00 00 00	 push	 OFFSET ??_C@_0HC@HBCNBCLF@c?3?2program?5files?5?$CIx86?$CJ?2microsof@
  0003b	e8 00 00 00 00	 call	 ?AfxAssertFailedLine@@YGHPBDH@Z ; AfxAssertFailedLine
  00040	85 c0		 test	 eax, eax
  00042	74 01		 je	 SHORT $LN9@DumpElemen
  00044	cc		 int	 3
$LN9@DumpElemen:
  00045	83 7d fc 00	 cmp	 DWORD PTR ___afx_condVal$1[ebp], 0
  00049	75 05		 jne	 SHORT $LN2@DumpElemen
  0004b	e8 00 00 00 00	 call	 ?AfxThrowInvalidArgException@@YGXXZ ; AfxThrowInvalidArgException
$LN2@DumpElemen:
  00050	33 c0		 xor	 eax, eax
  00052	75 b5		 jne	 SHORT $LN4@DumpElemen

; 139  : 	ASSERT(nCount == 0 ||

  00054	83 7d 10 00	 cmp	 DWORD PTR _nCount$[ebp], 0
  00058	74 2a		 je	 SHORT $LN6@DumpElemen
  0005a	6a 00		 push	 0
  0005c	8b 45 10	 mov	 eax, DWORD PTR _nCount$[ebp]
  0005f	c1 e0 02	 shl	 eax, 2
  00062	50		 push	 eax
  00063	8b 4d 0c	 mov	 ecx, DWORD PTR _pElements$[ebp]
  00066	51		 push	 ecx
  00067	e8 00 00 00 00	 call	 ?AfxIsValidAddress@@YGHPBXIH@Z ; AfxIsValidAddress
  0006c	85 c0		 test	 eax, eax
  0006e	75 14		 jne	 SHORT $LN6@DumpElemen
  00070	68 8c 00 00 00	 push	 140			; 0000008cH
  00075	68 00 00 00 00	 push	 OFFSET ??_C@_0HC@HBCNBCLF@c?3?2program?5files?5?$CIx86?$CJ?2microsof@
  0007a	e8 00 00 00 00	 call	 ?AfxAssertFailedLine@@YGHPBDH@Z ; AfxAssertFailedLine
  0007f	85 c0		 test	 eax, eax
  00081	74 01		 je	 SHORT $LN6@DumpElemen
  00083	cc		 int	 3
$LN6@DumpElemen:

; 140  : 		AfxIsValidAddress(pElements, (size_t)nCount * sizeof(TYPE), FALSE));
; 141  : 	(dc); // not used
; 142  : 	(pElements);  // not used
; 143  : 	(nCount); // not used
; 144  : 
; 145  : 	// default does nothing
; 146  : }

  00084	5f		 pop	 edi
  00085	5e		 pop	 esi
  00086	5b		 pop	 ebx
  00087	8b e5		 mov	 esp, ebp
  00089	5d		 pop	 ebp
  0008a	c2 0c 00	 ret	 12			; 0000000cH
??$DumpElements@PAUtagGameServerInfo@@@@YGXAAVCDumpContext@@PBQAUtagGameServerInfo@@H@Z ENDP ; DumpElements<tagGameServerInfo *>
_TEXT	ENDS
; Function compile flags: /Odtp /ZI
; File c:\program files (x86)\microsoft visual studio\2017\community\vc\tools\msvc\14.16.27023\atlmfc\include\afxtempl.h
;	COMDAT ??$SerializeElements@PAUtagGameServerInfo@@@@YGXAAVCArchive@@PAPAUtagGameServerInfo@@H@Z
_TEXT	SEGMENT
tv134 = -96						; size = 4
tv92 = -96						; size = 4
tv66 = -96						; size = 4
_nElementsToRead$1 = -28				; size = 4
_nElementsLeft$2 = -24					; size = 4
_pData$3 = -20						; size = 4
_nElementsToWrite$4 = -16				; size = 4
_nElementsLeft$5 = -12					; size = 4
_pData$6 = -8						; size = 4
___afx_condVal$7 = -4					; size = 4
_ar$ = 8						; size = 4
_pElements$ = 12					; size = 4
_nCount$ = 16						; size = 4
??$SerializeElements@PAUtagGameServerInfo@@@@YGXAAVCArchive@@PAPAUtagGameServerInfo@@H@Z PROC ; SerializeElements<tagGameServerInfo *>, COMDAT

; 67   : {

  00000	55		 push	 ebp
  00001	8b ec		 mov	 ebp, esp
  00003	83 ec 60	 sub	 esp, 96			; 00000060H
  00006	53		 push	 ebx
  00007	56		 push	 esi
  00008	57		 push	 edi
$LN4@SerializeE:

; 68   : 	ENSURE(nCount == 0 || pElements != NULL);

  00009	83 7d 10 00	 cmp	 DWORD PTR _nCount$[ebp], 0
  0000d	74 0f		 je	 SHORT $LN13@SerializeE
  0000f	83 7d 0c 00	 cmp	 DWORD PTR _pElements$[ebp], 0
  00013	75 09		 jne	 SHORT $LN13@SerializeE
  00015	c7 45 a0 00 00
	00 00		 mov	 DWORD PTR tv66[ebp], 0
  0001c	eb 07		 jmp	 SHORT $LN14@SerializeE
$LN13@SerializeE:
  0001e	c7 45 a0 01 00
	00 00		 mov	 DWORD PTR tv66[ebp], 1
$LN14@SerializeE:
  00025	8b 45 a0	 mov	 eax, DWORD PTR tv66[ebp]
  00028	89 45 fc	 mov	 DWORD PTR ___afx_condVal$7[ebp], eax
  0002b	83 7d fc 00	 cmp	 DWORD PTR ___afx_condVal$7[ebp], 0
  0002f	75 11		 jne	 SHORT $LN15@SerializeE
  00031	6a 44		 push	 68			; 00000044H
  00033	68 00 00 00 00	 push	 OFFSET ??_C@_0HC@HBCNBCLF@c?3?2program?5files?5?$CIx86?$CJ?2microsof@
  00038	e8 00 00 00 00	 call	 ?AfxAssertFailedLine@@YGHPBDH@Z ; AfxAssertFailedLine
  0003d	85 c0		 test	 eax, eax
  0003f	74 01		 je	 SHORT $LN15@SerializeE
  00041	cc		 int	 3
$LN15@SerializeE:
  00042	83 7d fc 00	 cmp	 DWORD PTR ___afx_condVal$7[ebp], 0
  00046	75 05		 jne	 SHORT $LN2@SerializeE
  00048	e8 00 00 00 00	 call	 ?AfxThrowInvalidArgException@@YGXXZ ; AfxThrowInvalidArgException
$LN2@SerializeE:
  0004d	33 c0		 xor	 eax, eax
  0004f	75 b8		 jne	 SHORT $LN4@SerializeE

; 69   : 	ASSERT(nCount == 0 ||

  00051	83 7d 10 00	 cmp	 DWORD PTR _nCount$[ebp], 0
  00055	74 27		 je	 SHORT $LN16@SerializeE
  00057	6a 01		 push	 1
  00059	8b 45 10	 mov	 eax, DWORD PTR _nCount$[ebp]
  0005c	c1 e0 02	 shl	 eax, 2
  0005f	50		 push	 eax
  00060	8b 4d 0c	 mov	 ecx, DWORD PTR _pElements$[ebp]
  00063	51		 push	 ecx
  00064	e8 00 00 00 00	 call	 ?AfxIsValidAddress@@YGHPBXIH@Z ; AfxIsValidAddress
  00069	85 c0		 test	 eax, eax
  0006b	75 11		 jne	 SHORT $LN16@SerializeE
  0006d	6a 46		 push	 70			; 00000046H
  0006f	68 00 00 00 00	 push	 OFFSET ??_C@_0HC@HBCNBCLF@c?3?2program?5files?5?$CIx86?$CJ?2microsof@
  00074	e8 00 00 00 00	 call	 ?AfxAssertFailedLine@@YGHPBDH@Z ; AfxAssertFailedLine
  00079	85 c0		 test	 eax, eax
  0007b	74 01		 je	 SHORT $LN16@SerializeE
  0007d	cc		 int	 3
$LN16@SerializeE:

; 70   : 		AfxIsValidAddress(pElements, (size_t)nCount * sizeof(TYPE)));
; 71   : 
; 72   : 	// default is bit-wise read/write
; 73   : 	if (ar.IsStoring())

  0007e	8b 4d 08	 mov	 ecx, DWORD PTR _ar$[ebp]
  00081	e8 00 00 00 00	 call	 ?IsStoring@CArchive@@QBEHXZ ; CArchive::IsStoring
  00086	85 c0		 test	 eax, eax
  00088	74 5c		 je	 SHORT $LN10@SerializeE

; 74   : 	{
; 75   : 		TYPE* pData;
; 76   : 		UINT_PTR nElementsLeft;
; 77   : 
; 78   : 		nElementsLeft = nCount;

  0008a	8b 45 10	 mov	 eax, DWORD PTR _nCount$[ebp]
  0008d	89 45 f4	 mov	 DWORD PTR _nElementsLeft$5[ebp], eax

; 79   : 		pData = pElements;

  00090	8b 45 0c	 mov	 eax, DWORD PTR _pElements$[ebp]
  00093	89 45 f8	 mov	 DWORD PTR _pData$6[ebp], eax
$LN5@SerializeE:

; 80   : 		while( nElementsLeft > 0 )

  00096	83 7d f4 00	 cmp	 DWORD PTR _nElementsLeft$5[ebp], 0
  0009a	76 48		 jbe	 SHORT $LN6@SerializeE

; 81   : 		{
; 82   : 			UINT nElementsToWrite;
; 83   : 
; 84   : 			nElementsToWrite = UINT(__min(nElementsLeft, INT_MAX/sizeof(TYPE)));

  0009c	81 7d f4 ff ff
	ff 1f		 cmp	 DWORD PTR _nElementsLeft$5[ebp], 536870911 ; 1fffffffH
  000a3	73 08		 jae	 SHORT $LN17@SerializeE
  000a5	8b 45 f4	 mov	 eax, DWORD PTR _nElementsLeft$5[ebp]
  000a8	89 45 a0	 mov	 DWORD PTR tv92[ebp], eax
  000ab	eb 07		 jmp	 SHORT $LN18@SerializeE
$LN17@SerializeE:
  000ad	c7 45 a0 ff ff
	ff 1f		 mov	 DWORD PTR tv92[ebp], 536870911 ; 1fffffffH
$LN18@SerializeE:
  000b4	8b 4d a0	 mov	 ecx, DWORD PTR tv92[ebp]
  000b7	89 4d f0	 mov	 DWORD PTR _nElementsToWrite$4[ebp], ecx

; 85   : 			ar.Write(pData, nElementsToWrite*sizeof(TYPE));

  000ba	8b 45 f0	 mov	 eax, DWORD PTR _nElementsToWrite$4[ebp]
  000bd	c1 e0 02	 shl	 eax, 2
  000c0	50		 push	 eax
  000c1	8b 4d f8	 mov	 ecx, DWORD PTR _pData$6[ebp]
  000c4	51		 push	 ecx
  000c5	8b 4d 08	 mov	 ecx, DWORD PTR _ar$[ebp]
  000c8	e8 00 00 00 00	 call	 ?Write@CArchive@@QAEXPBXI@Z ; CArchive::Write

; 86   : 			nElementsLeft -= nElementsToWrite;

  000cd	8b 45 f4	 mov	 eax, DWORD PTR _nElementsLeft$5[ebp]
  000d0	2b 45 f0	 sub	 eax, DWORD PTR _nElementsToWrite$4[ebp]
  000d3	89 45 f4	 mov	 DWORD PTR _nElementsLeft$5[ebp], eax

; 87   : 			pData += nElementsToWrite;

  000d6	8b 45 f0	 mov	 eax, DWORD PTR _nElementsToWrite$4[ebp]
  000d9	8b 4d f8	 mov	 ecx, DWORD PTR _pData$6[ebp]
  000dc	8d 14 81	 lea	 edx, DWORD PTR [ecx+eax*4]
  000df	89 55 f8	 mov	 DWORD PTR _pData$6[ebp], edx

; 88   : 		}

  000e2	eb b2		 jmp	 SHORT $LN5@SerializeE
$LN6@SerializeE:

; 89   : 	}
; 90   : 	else

  000e4	eb 5a		 jmp	 SHORT $LN12@SerializeE
$LN10@SerializeE:

; 91   : 	{
; 92   : 		TYPE* pData;
; 93   : 		UINT_PTR nElementsLeft;
; 94   : 
; 95   : 		nElementsLeft = nCount;

  000e6	8b 45 10	 mov	 eax, DWORD PTR _nCount$[ebp]
  000e9	89 45 e8	 mov	 DWORD PTR _nElementsLeft$2[ebp], eax

; 96   : 		pData = pElements;

  000ec	8b 45 0c	 mov	 eax, DWORD PTR _pElements$[ebp]
  000ef	89 45 ec	 mov	 DWORD PTR _pData$3[ebp], eax
$LN7@SerializeE:

; 97   : 		while( nElementsLeft > 0 )

  000f2	83 7d e8 00	 cmp	 DWORD PTR _nElementsLeft$2[ebp], 0
  000f6	76 48		 jbe	 SHORT $LN12@SerializeE

; 98   : 		{
; 99   : 			UINT nElementsToRead;
; 100  : 
; 101  : 			nElementsToRead = UINT(__min(nElementsLeft, INT_MAX/sizeof(TYPE)));

  000f8	81 7d e8 ff ff
	ff 1f		 cmp	 DWORD PTR _nElementsLeft$2[ebp], 536870911 ; 1fffffffH
  000ff	73 08		 jae	 SHORT $LN19@SerializeE
  00101	8b 45 e8	 mov	 eax, DWORD PTR _nElementsLeft$2[ebp]
  00104	89 45 a0	 mov	 DWORD PTR tv134[ebp], eax
  00107	eb 07		 jmp	 SHORT $LN20@SerializeE
$LN19@SerializeE:
  00109	c7 45 a0 ff ff
	ff 1f		 mov	 DWORD PTR tv134[ebp], 536870911 ; 1fffffffH
$LN20@SerializeE:
  00110	8b 4d a0	 mov	 ecx, DWORD PTR tv134[ebp]
  00113	89 4d e4	 mov	 DWORD PTR _nElementsToRead$1[ebp], ecx

; 102  : 			ar.EnsureRead(pData, nElementsToRead*sizeof(TYPE));

  00116	8b 45 e4	 mov	 eax, DWORD PTR _nElementsToRead$1[ebp]
  00119	c1 e0 02	 shl	 eax, 2
  0011c	50		 push	 eax
  0011d	8b 4d ec	 mov	 ecx, DWORD PTR _pData$3[ebp]
  00120	51		 push	 ecx
  00121	8b 4d 08	 mov	 ecx, DWORD PTR _ar$[ebp]
  00124	e8 00 00 00 00	 call	 ?EnsureRead@CArchive@@QAEXPAXI@Z ; CArchive::EnsureRead

; 103  : 			nElementsLeft -= nElementsToRead;

  00129	8b 45 e8	 mov	 eax, DWORD PTR _nElementsLeft$2[ebp]
  0012c	2b 45 e4	 sub	 eax, DWORD PTR _nElementsToRead$1[ebp]
  0012f	89 45 e8	 mov	 DWORD PTR _nElementsLeft$2[ebp], eax

; 104  : 			pData += nElementsToRead;

  00132	8b 45 e4	 mov	 eax, DWORD PTR _nElementsToRead$1[ebp]
  00135	8b 4d ec	 mov	 ecx, DWORD PTR _pData$3[ebp]
  00138	8d 14 81	 lea	 edx, DWORD PTR [ecx+eax*4]
  0013b	89 55 ec	 mov	 DWORD PTR _pData$3[ebp], edx

; 105  : 		}

  0013e	eb b2		 jmp	 SHORT $LN7@SerializeE
$LN12@SerializeE:

; 106  : 	}
; 107  : }

  00140	5f		 pop	 edi
  00141	5e		 pop	 esi
  00142	5b		 pop	 ebx
  00143	8b e5		 mov	 esp, ebp
  00145	5d		 pop	 ebp
  00146	c2 0c 00	 ret	 12			; 0000000cH
??$SerializeElements@PAUtagGameServerInfo@@@@YGXAAVCArchive@@PAPAUtagGameServerInfo@@H@Z ENDP ; SerializeElements<tagGameServerInfo *>
_TEXT	ENDS
; Function compile flags: /Odtp /ZI
; File c:\program files (x86)\microsoft visual studio\2017\community\vc\tools\msvc\14.16.27023\atlmfc\include\afxtempl.h
;	COMDAT ??$CompareElements@GG@@YGHPBG0@Z
_TEXT	SEGMENT
tv130 = -72						; size = 4
tv66 = -72						; size = 4
___afx_condVal$1 = -4					; size = 4
_pElement1$ = 8						; size = 4
_pElement2$ = 12					; size = 4
??$CompareElements@GG@@YGHPBG0@Z PROC			; CompareElements<unsigned short,unsigned short>, COMDAT

; 151  : {

  00000	55		 push	 ebp
  00001	8b ec		 mov	 ebp, esp
  00003	83 ec 48	 sub	 esp, 72			; 00000048H
  00006	53		 push	 ebx
  00007	56		 push	 esi
  00008	57		 push	 edi
$LN4@CompareEle:

; 152  : 	ENSURE(pElement1 != NULL && pElement2 != NULL);

  00009	83 7d 08 00	 cmp	 DWORD PTR _pElement1$[ebp], 0
  0000d	74 0f		 je	 SHORT $LN7@CompareEle
  0000f	83 7d 0c 00	 cmp	 DWORD PTR _pElement2$[ebp], 0
  00013	74 09		 je	 SHORT $LN7@CompareEle
  00015	c7 45 b8 01 00
	00 00		 mov	 DWORD PTR tv66[ebp], 1
  0001c	eb 07		 jmp	 SHORT $LN8@CompareEle
$LN7@CompareEle:
  0001e	c7 45 b8 00 00
	00 00		 mov	 DWORD PTR tv66[ebp], 0
$LN8@CompareEle:
  00025	8b 45 b8	 mov	 eax, DWORD PTR tv66[ebp]
  00028	89 45 fc	 mov	 DWORD PTR ___afx_condVal$1[ebp], eax
  0002b	83 7d fc 00	 cmp	 DWORD PTR ___afx_condVal$1[ebp], 0
  0002f	75 14		 jne	 SHORT $LN9@CompareEle
  00031	68 98 00 00 00	 push	 152			; 00000098H
  00036	68 00 00 00 00	 push	 OFFSET ??_C@_0HC@HBCNBCLF@c?3?2program?5files?5?$CIx86?$CJ?2microsof@
  0003b	e8 00 00 00 00	 call	 ?AfxAssertFailedLine@@YGHPBDH@Z ; AfxAssertFailedLine
  00040	85 c0		 test	 eax, eax
  00042	74 01		 je	 SHORT $LN9@CompareEle
  00044	cc		 int	 3
$LN9@CompareEle:
  00045	83 7d fc 00	 cmp	 DWORD PTR ___afx_condVal$1[ebp], 0
  00049	75 05		 jne	 SHORT $LN2@CompareEle
  0004b	e8 00 00 00 00	 call	 ?AfxThrowInvalidArgException@@YGXXZ ; AfxThrowInvalidArgException
$LN2@CompareEle:
  00050	33 c0		 xor	 eax, eax
  00052	75 b5		 jne	 SHORT $LN4@CompareEle

; 153  : 	ASSERT(AfxIsValidAddress(pElement1, sizeof(TYPE), FALSE));

  00054	6a 00		 push	 0
  00056	6a 02		 push	 2
  00058	8b 45 08	 mov	 eax, DWORD PTR _pElement1$[ebp]
  0005b	50		 push	 eax
  0005c	e8 00 00 00 00	 call	 ?AfxIsValidAddress@@YGHPBXIH@Z ; AfxIsValidAddress
  00061	85 c0		 test	 eax, eax
  00063	75 14		 jne	 SHORT $LN10@CompareEle
  00065	68 99 00 00 00	 push	 153			; 00000099H
  0006a	68 00 00 00 00	 push	 OFFSET ??_C@_0HC@HBCNBCLF@c?3?2program?5files?5?$CIx86?$CJ?2microsof@
  0006f	e8 00 00 00 00	 call	 ?AfxAssertFailedLine@@YGHPBDH@Z ; AfxAssertFailedLine
  00074	85 c0		 test	 eax, eax
  00076	74 01		 je	 SHORT $LN10@CompareEle
  00078	cc		 int	 3
$LN10@CompareEle:

; 154  : 	ASSERT(AfxIsValidAddress(pElement2, sizeof(ARG_TYPE), FALSE));

  00079	6a 00		 push	 0
  0007b	6a 02		 push	 2
  0007d	8b 45 0c	 mov	 eax, DWORD PTR _pElement2$[ebp]
  00080	50		 push	 eax
  00081	e8 00 00 00 00	 call	 ?AfxIsValidAddress@@YGHPBXIH@Z ; AfxIsValidAddress
  00086	85 c0		 test	 eax, eax
  00088	75 14		 jne	 SHORT $LN11@CompareEle
  0008a	68 9a 00 00 00	 push	 154			; 0000009aH
  0008f	68 00 00 00 00	 push	 OFFSET ??_C@_0HC@HBCNBCLF@c?3?2program?5files?5?$CIx86?$CJ?2microsof@
  00094	e8 00 00 00 00	 call	 ?AfxAssertFailedLine@@YGHPBDH@Z ; AfxAssertFailedLine
  00099	85 c0		 test	 eax, eax
  0009b	74 01		 je	 SHORT $LN11@CompareEle
  0009d	cc		 int	 3
$LN11@CompareEle:

; 155  : 
; 156  : 	return *pElement1 == *pElement2;

  0009e	8b 45 08	 mov	 eax, DWORD PTR _pElement1$[ebp]
  000a1	0f b7 08	 movzx	 ecx, WORD PTR [eax]
  000a4	8b 55 0c	 mov	 edx, DWORD PTR _pElement2$[ebp]
  000a7	0f b7 02	 movzx	 eax, WORD PTR [edx]
  000aa	3b c8		 cmp	 ecx, eax
  000ac	75 09		 jne	 SHORT $LN12@CompareEle
  000ae	c7 45 b8 01 00
	00 00		 mov	 DWORD PTR tv130[ebp], 1
  000b5	eb 07		 jmp	 SHORT $LN13@CompareEle
$LN12@CompareEle:
  000b7	c7 45 b8 00 00
	00 00		 mov	 DWORD PTR tv130[ebp], 0
$LN13@CompareEle:
  000be	8b 45 b8	 mov	 eax, DWORD PTR tv130[ebp]
$LN6@CompareEle:

; 157  : }

  000c1	5f		 pop	 edi
  000c2	5e		 pop	 esi
  000c3	5b		 pop	 ebx
  000c4	8b e5		 mov	 esp, ebp
  000c6	5d		 pop	 ebp
  000c7	c2 08 00	 ret	 8
??$CompareElements@GG@@YGHPBG0@Z ENDP			; CompareElements<unsigned short,unsigned short>
_TEXT	ENDS
; Function compile flags: /Odtp /ZI
; File c:\program files (x86)\microsoft visual studio\2017\community\vc\tools\msvc\14.16.27023\atlmfc\include\afxtempl.h
;	COMDAT ??$HashKey@G@@YGIG@Z
_TEXT	SEGMENT
$T1 = -80						; size = 8
_HashVal$ = -8						; size = 8
_key$ = 8						; size = 2
??$HashKey@G@@YGIG@Z PROC				; HashKey<unsigned short>, COMDAT

; 161  : {

  00000	55		 push	 ebp
  00001	8b ec		 mov	 ebp, esp
  00003	83 ec 50	 sub	 esp, 80			; 00000050H
  00006	53		 push	 ebx
  00007	56		 push	 esi
  00008	57		 push	 edi

; 162  : 	// (algorithm copied from STL hash in xfunctional)
; 163  : #pragma warning(suppress: 4302) // 'type cast' : truncation
; 164  : #pragma warning(suppress: 4311) // pointer truncation
; 165  : 	ldiv_t HashVal = ldiv((long)(ARG_KEY)key, 127773);

  00009	68 1d f3 01 00	 push	 127773			; 0001f31dH
  0000e	0f b7 45 08	 movzx	 eax, WORD PTR _key$[ebp]
  00012	50		 push	 eax
  00013	ff 15 00 00 00
	00		 call	 DWORD PTR __imp__ldiv
  00019	83 c4 08	 add	 esp, 8
  0001c	89 45 b0	 mov	 DWORD PTR $T1[ebp], eax
  0001f	89 55 b4	 mov	 DWORD PTR $T1[ebp+4], edx
  00022	8b 4d b0	 mov	 ecx, DWORD PTR $T1[ebp]
  00025	89 4d f8	 mov	 DWORD PTR _HashVal$[ebp], ecx
  00028	8b 55 b4	 mov	 edx, DWORD PTR $T1[ebp+4]
  0002b	89 55 fc	 mov	 DWORD PTR _HashVal$[ebp+4], edx

; 166  : 	HashVal.rem = 16807 * HashVal.rem - 2836 * HashVal.quot;

  0002e	69 45 fc a7 41
	00 00		 imul	 eax, DWORD PTR _HashVal$[ebp+4], 16807
  00035	69 4d f8 14 0b
	00 00		 imul	 ecx, DWORD PTR _HashVal$[ebp], 2836
  0003c	2b c1		 sub	 eax, ecx
  0003e	89 45 fc	 mov	 DWORD PTR _HashVal$[ebp+4], eax

; 167  : 	if (HashVal.rem < 0)

  00041	79 0b		 jns	 SHORT $LN2@HashKey

; 168  : 		HashVal.rem += 2147483647;

  00043	8b 45 fc	 mov	 eax, DWORD PTR _HashVal$[ebp+4]
  00046	05 ff ff ff 7f	 add	 eax, 2147483647		; 7fffffffH
  0004b	89 45 fc	 mov	 DWORD PTR _HashVal$[ebp+4], eax
$LN2@HashKey:

; 169  : 	return ((UINT)HashVal.rem);

  0004e	8b 45 fc	 mov	 eax, DWORD PTR _HashVal$[ebp+4]

; 170  : }

  00051	5f		 pop	 edi
  00052	5e		 pop	 esi
  00053	5b		 pop	 ebx
  00054	8b e5		 mov	 esp, ebp
  00056	5d		 pop	 ebp
  00057	c2 04 00	 ret	 4
??$HashKey@G@@YGIG@Z ENDP				; HashKey<unsigned short>
_TEXT	ENDS
; Function compile flags: /Odtp /ZI
; File c:\program files (x86)\microsoft visual studio\2017\community\vc\tools\msvc\14.16.27023\atlmfc\include\afxtempl.h
;	COMDAT ??0CAssoc@?$CMap@GGPAUtagGameServerInfo@@PAU1@@@QAE@G@Z
_TEXT	SEGMENT
_this$ = -4						; size = 4
_key$ = 8						; size = 2
??0CAssoc@?$CMap@GGPAUtagGameServerInfo@@PAU1@@@QAE@G@Z PROC ; CMap<unsigned short,unsigned short,tagGameServerInfo *,tagGameServerInfo *>::CAssoc::CAssoc, COMDAT
; _this$ = ecx

; 1267 : 		CAssoc( ARG_KEY key ) : CPair( key ) {}

  00000	55		 push	 ebp
  00001	8b ec		 mov	 ebp, esp
  00003	83 ec 44	 sub	 esp, 68			; 00000044H
  00006	53		 push	 ebx
  00007	56		 push	 esi
  00008	57		 push	 edi
  00009	89 4d fc	 mov	 DWORD PTR _this$[ebp], ecx
  0000c	0f b7 45 08	 movzx	 eax, WORD PTR _key$[ebp]
  00010	50		 push	 eax
  00011	8b 4d fc	 mov	 ecx, DWORD PTR _this$[ebp]
  00014	e8 00 00 00 00	 call	 ??0CPair@?$CMap@GGPAUtagGameServerInfo@@PAU1@@@IAE@G@Z ; CMap<unsigned short,unsigned short,tagGameServerInfo *,tagGameServerInfo *>::CPair::CPair
  00019	8b 45 fc	 mov	 eax, DWORD PTR _this$[ebp]
  0001c	5f		 pop	 edi
  0001d	5e		 pop	 esi
  0001e	5b		 pop	 ebx
  0001f	8b e5		 mov	 esp, ebp
  00021	5d		 pop	 ebp
  00022	c2 04 00	 ret	 4
??0CAssoc@?$CMap@GGPAUtagGameServerInfo@@PAU1@@@QAE@G@Z ENDP ; CMap<unsigned short,unsigned short,tagGameServerInfo *,tagGameServerInfo *>::CAssoc::CAssoc
_TEXT	ENDS
; Function compile flags: /Odtp /ZI
; File c:\program files (x86)\microsoft visual studio\2017\community\vc\tools\msvc\14.16.27023\atlmfc\include\afxtempl.h
;	COMDAT ??0CPair@?$CMap@GGPAUtagGameServerInfo@@PAU1@@@IAE@G@Z
_TEXT	SEGMENT
_this$ = -4						; size = 4
_keyval$ = 8						; size = 2
??0CPair@?$CMap@GGPAUtagGameServerInfo@@PAU1@@@IAE@G@Z PROC ; CMap<unsigned short,unsigned short,tagGameServerInfo *,tagGameServerInfo *>::CPair::CPair, COMDAT
; _this$ = ecx

; 1256 : 		CPair( ARG_KEY keyval ) : key( keyval )	{}

  00000	55		 push	 ebp
  00001	8b ec		 mov	 ebp, esp
  00003	83 ec 44	 sub	 esp, 68			; 00000044H
  00006	53		 push	 ebx
  00007	56		 push	 esi
  00008	57		 push	 edi
  00009	89 4d fc	 mov	 DWORD PTR _this$[ebp], ecx
  0000c	8b 45 fc	 mov	 eax, DWORD PTR _this$[ebp]
  0000f	66 8b 4d 08	 mov	 cx, WORD PTR _keyval$[ebp]
  00013	66 89 08	 mov	 WORD PTR [eax], cx
  00016	8b 45 fc	 mov	 eax, DWORD PTR _this$[ebp]
  00019	5f		 pop	 edi
  0001a	5e		 pop	 esi
  0001b	5b		 pop	 ebx
  0001c	8b e5		 mov	 esp, ebp
  0001e	5d		 pop	 ebp
  0001f	c2 04 00	 ret	 4
??0CPair@?$CMap@GGPAUtagGameServerInfo@@PAU1@@@IAE@G@Z ENDP ; CMap<unsigned short,unsigned short,tagGameServerInfo *,tagGameServerInfo *>::CPair::CPair
_TEXT	ENDS
; Function compile flags: /Odtp /ZI
; File c:\program files (x86)\microsoft visual studio\2017\community\vc\tools\msvc\14.16.27023\atlmfc\include\afxtempl.h
;	COMDAT ??$DumpElements@G@@YGXAAVCDumpContext@@PBGH@Z
_TEXT	SEGMENT
tv66 = -72						; size = 4
___afx_condVal$1 = -4					; size = 4
_dc$ = 8						; size = 4
_pElements$ = 12					; size = 4
_nCount$ = 16						; size = 4
??$DumpElements@G@@YGXAAVCDumpContext@@PBGH@Z PROC	; DumpElements<unsigned short>, COMDAT

; 137  : {

  00000	55		 push	 ebp
  00001	8b ec		 mov	 ebp, esp
  00003	83 ec 48	 sub	 esp, 72			; 00000048H
  00006	53		 push	 ebx
  00007	56		 push	 esi
  00008	57		 push	 edi
$LN4@DumpElemen:

; 138  : 	ENSURE(nCount == 0 || pElements != NULL);

  00009	83 7d 10 00	 cmp	 DWORD PTR _nCount$[ebp], 0
  0000d	74 0f		 je	 SHORT $LN7@DumpElemen
  0000f	83 7d 0c 00	 cmp	 DWORD PTR _pElements$[ebp], 0
  00013	75 09		 jne	 SHORT $LN7@DumpElemen
  00015	c7 45 b8 00 00
	00 00		 mov	 DWORD PTR tv66[ebp], 0
  0001c	eb 07		 jmp	 SHORT $LN8@DumpElemen
$LN7@DumpElemen:
  0001e	c7 45 b8 01 00
	00 00		 mov	 DWORD PTR tv66[ebp], 1
$LN8@DumpElemen:
  00025	8b 45 b8	 mov	 eax, DWORD PTR tv66[ebp]
  00028	89 45 fc	 mov	 DWORD PTR ___afx_condVal$1[ebp], eax
  0002b	83 7d fc 00	 cmp	 DWORD PTR ___afx_condVal$1[ebp], 0
  0002f	75 14		 jne	 SHORT $LN9@DumpElemen
  00031	68 8a 00 00 00	 push	 138			; 0000008aH
  00036	68 00 00 00 00	 push	 OFFSET ??_C@_0HC@HBCNBCLF@c?3?2program?5files?5?$CIx86?$CJ?2microsof@
  0003b	e8 00 00 00 00	 call	 ?AfxAssertFailedLine@@YGHPBDH@Z ; AfxAssertFailedLine
  00040	85 c0		 test	 eax, eax
  00042	74 01		 je	 SHORT $LN9@DumpElemen
  00044	cc		 int	 3
$LN9@DumpElemen:
  00045	83 7d fc 00	 cmp	 DWORD PTR ___afx_condVal$1[ebp], 0
  00049	75 05		 jne	 SHORT $LN2@DumpElemen
  0004b	e8 00 00 00 00	 call	 ?AfxThrowInvalidArgException@@YGXXZ ; AfxThrowInvalidArgException
$LN2@DumpElemen:
  00050	33 c0		 xor	 eax, eax
  00052	75 b5		 jne	 SHORT $LN4@DumpElemen

; 139  : 	ASSERT(nCount == 0 ||

  00054	83 7d 10 00	 cmp	 DWORD PTR _nCount$[ebp], 0
  00058	74 29		 je	 SHORT $LN6@DumpElemen
  0005a	6a 00		 push	 0
  0005c	8b 45 10	 mov	 eax, DWORD PTR _nCount$[ebp]
  0005f	d1 e0		 shl	 eax, 1
  00061	50		 push	 eax
  00062	8b 4d 0c	 mov	 ecx, DWORD PTR _pElements$[ebp]
  00065	51		 push	 ecx
  00066	e8 00 00 00 00	 call	 ?AfxIsValidAddress@@YGHPBXIH@Z ; AfxIsValidAddress
  0006b	85 c0		 test	 eax, eax
  0006d	75 14		 jne	 SHORT $LN6@DumpElemen
  0006f	68 8c 00 00 00	 push	 140			; 0000008cH
  00074	68 00 00 00 00	 push	 OFFSET ??_C@_0HC@HBCNBCLF@c?3?2program?5files?5?$CIx86?$CJ?2microsof@
  00079	e8 00 00 00 00	 call	 ?AfxAssertFailedLine@@YGHPBDH@Z ; AfxAssertFailedLine
  0007e	85 c0		 test	 eax, eax
  00080	74 01		 je	 SHORT $LN6@DumpElemen
  00082	cc		 int	 3
$LN6@DumpElemen:

; 140  : 		AfxIsValidAddress(pElements, (size_t)nCount * sizeof(TYPE), FALSE));
; 141  : 	(dc); // not used
; 142  : 	(pElements);  // not used
; 143  : 	(nCount); // not used
; 144  : 
; 145  : 	// default does nothing
; 146  : }

  00083	5f		 pop	 edi
  00084	5e		 pop	 esi
  00085	5b		 pop	 ebx
  00086	8b e5		 mov	 esp, ebp
  00088	5d		 pop	 ebp
  00089	c2 0c 00	 ret	 12			; 0000000cH
??$DumpElements@G@@YGXAAVCDumpContext@@PBGH@Z ENDP	; DumpElements<unsigned short>
_TEXT	ENDS
; Function compile flags: /Odtp /ZI
; File c:\program files (x86)\microsoft visual studio\2017\community\vc\tools\msvc\14.16.27023\atlmfc\include\afxtempl.h
;	COMDAT ??$SerializeElements@G@@YGXAAVCArchive@@PAGH@Z
_TEXT	SEGMENT
tv134 = -96						; size = 4
tv92 = -96						; size = 4
tv66 = -96						; size = 4
_nElementsToRead$1 = -28				; size = 4
_nElementsLeft$2 = -24					; size = 4
_pData$3 = -20						; size = 4
_nElementsToWrite$4 = -16				; size = 4
_nElementsLeft$5 = -12					; size = 4
_pData$6 = -8						; size = 4
___afx_condVal$7 = -4					; size = 4
_ar$ = 8						; size = 4
_pElements$ = 12					; size = 4
_nCount$ = 16						; size = 4
??$SerializeElements@G@@YGXAAVCArchive@@PAGH@Z PROC	; SerializeElements<unsigned short>, COMDAT

; 67   : {

  00000	55		 push	 ebp
  00001	8b ec		 mov	 ebp, esp
  00003	83 ec 60	 sub	 esp, 96			; 00000060H
  00006	53		 push	 ebx
  00007	56		 push	 esi
  00008	57		 push	 edi
$LN4@SerializeE:

; 68   : 	ENSURE(nCount == 0 || pElements != NULL);

  00009	83 7d 10 00	 cmp	 DWORD PTR _nCount$[ebp], 0
  0000d	74 0f		 je	 SHORT $LN13@SerializeE
  0000f	83 7d 0c 00	 cmp	 DWORD PTR _pElements$[ebp], 0
  00013	75 09		 jne	 SHORT $LN13@SerializeE
  00015	c7 45 a0 00 00
	00 00		 mov	 DWORD PTR tv66[ebp], 0
  0001c	eb 07		 jmp	 SHORT $LN14@SerializeE
$LN13@SerializeE:
  0001e	c7 45 a0 01 00
	00 00		 mov	 DWORD PTR tv66[ebp], 1
$LN14@SerializeE:
  00025	8b 45 a0	 mov	 eax, DWORD PTR tv66[ebp]
  00028	89 45 fc	 mov	 DWORD PTR ___afx_condVal$7[ebp], eax
  0002b	83 7d fc 00	 cmp	 DWORD PTR ___afx_condVal$7[ebp], 0
  0002f	75 11		 jne	 SHORT $LN15@SerializeE
  00031	6a 44		 push	 68			; 00000044H
  00033	68 00 00 00 00	 push	 OFFSET ??_C@_0HC@HBCNBCLF@c?3?2program?5files?5?$CIx86?$CJ?2microsof@
  00038	e8 00 00 00 00	 call	 ?AfxAssertFailedLine@@YGHPBDH@Z ; AfxAssertFailedLine
  0003d	85 c0		 test	 eax, eax
  0003f	74 01		 je	 SHORT $LN15@SerializeE
  00041	cc		 int	 3
$LN15@SerializeE:
  00042	83 7d fc 00	 cmp	 DWORD PTR ___afx_condVal$7[ebp], 0
  00046	75 05		 jne	 SHORT $LN2@SerializeE
  00048	e8 00 00 00 00	 call	 ?AfxThrowInvalidArgException@@YGXXZ ; AfxThrowInvalidArgException
$LN2@SerializeE:
  0004d	33 c0		 xor	 eax, eax
  0004f	75 b8		 jne	 SHORT $LN4@SerializeE

; 69   : 	ASSERT(nCount == 0 ||

  00051	83 7d 10 00	 cmp	 DWORD PTR _nCount$[ebp], 0
  00055	74 26		 je	 SHORT $LN16@SerializeE
  00057	6a 01		 push	 1
  00059	8b 45 10	 mov	 eax, DWORD PTR _nCount$[ebp]
  0005c	d1 e0		 shl	 eax, 1
  0005e	50		 push	 eax
  0005f	8b 4d 0c	 mov	 ecx, DWORD PTR _pElements$[ebp]
  00062	51		 push	 ecx
  00063	e8 00 00 00 00	 call	 ?AfxIsValidAddress@@YGHPBXIH@Z ; AfxIsValidAddress
  00068	85 c0		 test	 eax, eax
  0006a	75 11		 jne	 SHORT $LN16@SerializeE
  0006c	6a 46		 push	 70			; 00000046H
  0006e	68 00 00 00 00	 push	 OFFSET ??_C@_0HC@HBCNBCLF@c?3?2program?5files?5?$CIx86?$CJ?2microsof@
  00073	e8 00 00 00 00	 call	 ?AfxAssertFailedLine@@YGHPBDH@Z ; AfxAssertFailedLine
  00078	85 c0		 test	 eax, eax
  0007a	74 01		 je	 SHORT $LN16@SerializeE
  0007c	cc		 int	 3
$LN16@SerializeE:

; 70   : 		AfxIsValidAddress(pElements, (size_t)nCount * sizeof(TYPE)));
; 71   : 
; 72   : 	// default is bit-wise read/write
; 73   : 	if (ar.IsStoring())

  0007d	8b 4d 08	 mov	 ecx, DWORD PTR _ar$[ebp]
  00080	e8 00 00 00 00	 call	 ?IsStoring@CArchive@@QBEHXZ ; CArchive::IsStoring
  00085	85 c0		 test	 eax, eax
  00087	74 5b		 je	 SHORT $LN10@SerializeE

; 74   : 	{
; 75   : 		TYPE* pData;
; 76   : 		UINT_PTR nElementsLeft;
; 77   : 
; 78   : 		nElementsLeft = nCount;

  00089	8b 45 10	 mov	 eax, DWORD PTR _nCount$[ebp]
  0008c	89 45 f4	 mov	 DWORD PTR _nElementsLeft$5[ebp], eax

; 79   : 		pData = pElements;

  0008f	8b 45 0c	 mov	 eax, DWORD PTR _pElements$[ebp]
  00092	89 45 f8	 mov	 DWORD PTR _pData$6[ebp], eax
$LN5@SerializeE:

; 80   : 		while( nElementsLeft > 0 )

  00095	83 7d f4 00	 cmp	 DWORD PTR _nElementsLeft$5[ebp], 0
  00099	76 47		 jbe	 SHORT $LN6@SerializeE

; 81   : 		{
; 82   : 			UINT nElementsToWrite;
; 83   : 
; 84   : 			nElementsToWrite = UINT(__min(nElementsLeft, INT_MAX/sizeof(TYPE)));

  0009b	81 7d f4 ff ff
	ff 3f		 cmp	 DWORD PTR _nElementsLeft$5[ebp], 1073741823 ; 3fffffffH
  000a2	73 08		 jae	 SHORT $LN17@SerializeE
  000a4	8b 45 f4	 mov	 eax, DWORD PTR _nElementsLeft$5[ebp]
  000a7	89 45 a0	 mov	 DWORD PTR tv92[ebp], eax
  000aa	eb 07		 jmp	 SHORT $LN18@SerializeE
$LN17@SerializeE:
  000ac	c7 45 a0 ff ff
	ff 3f		 mov	 DWORD PTR tv92[ebp], 1073741823 ; 3fffffffH
$LN18@SerializeE:
  000b3	8b 4d a0	 mov	 ecx, DWORD PTR tv92[ebp]
  000b6	89 4d f0	 mov	 DWORD PTR _nElementsToWrite$4[ebp], ecx

; 85   : 			ar.Write(pData, nElementsToWrite*sizeof(TYPE));

  000b9	8b 45 f0	 mov	 eax, DWORD PTR _nElementsToWrite$4[ebp]
  000bc	d1 e0		 shl	 eax, 1
  000be	50		 push	 eax
  000bf	8b 4d f8	 mov	 ecx, DWORD PTR _pData$6[ebp]
  000c2	51		 push	 ecx
  000c3	8b 4d 08	 mov	 ecx, DWORD PTR _ar$[ebp]
  000c6	e8 00 00 00 00	 call	 ?Write@CArchive@@QAEXPBXI@Z ; CArchive::Write

; 86   : 			nElementsLeft -= nElementsToWrite;

  000cb	8b 45 f4	 mov	 eax, DWORD PTR _nElementsLeft$5[ebp]
  000ce	2b 45 f0	 sub	 eax, DWORD PTR _nElementsToWrite$4[ebp]
  000d1	89 45 f4	 mov	 DWORD PTR _nElementsLeft$5[ebp], eax

; 87   : 			pData += nElementsToWrite;

  000d4	8b 45 f0	 mov	 eax, DWORD PTR _nElementsToWrite$4[ebp]
  000d7	8b 4d f8	 mov	 ecx, DWORD PTR _pData$6[ebp]
  000da	8d 14 41	 lea	 edx, DWORD PTR [ecx+eax*2]
  000dd	89 55 f8	 mov	 DWORD PTR _pData$6[ebp], edx

; 88   : 		}

  000e0	eb b3		 jmp	 SHORT $LN5@SerializeE
$LN6@SerializeE:

; 89   : 	}
; 90   : 	else

  000e2	eb 59		 jmp	 SHORT $LN12@SerializeE
$LN10@SerializeE:

; 91   : 	{
; 92   : 		TYPE* pData;
; 93   : 		UINT_PTR nElementsLeft;
; 94   : 
; 95   : 		nElementsLeft = nCount;

  000e4	8b 45 10	 mov	 eax, DWORD PTR _nCount$[ebp]
  000e7	89 45 e8	 mov	 DWORD PTR _nElementsLeft$2[ebp], eax

; 96   : 		pData = pElements;

  000ea	8b 45 0c	 mov	 eax, DWORD PTR _pElements$[ebp]
  000ed	89 45 ec	 mov	 DWORD PTR _pData$3[ebp], eax
$LN7@SerializeE:

; 97   : 		while( nElementsLeft > 0 )

  000f0	83 7d e8 00	 cmp	 DWORD PTR _nElementsLeft$2[ebp], 0
  000f4	76 47		 jbe	 SHORT $LN12@SerializeE

; 98   : 		{
; 99   : 			UINT nElementsToRead;
; 100  : 
; 101  : 			nElementsToRead = UINT(__min(nElementsLeft, INT_MAX/sizeof(TYPE)));

  000f6	81 7d e8 ff ff
	ff 3f		 cmp	 DWORD PTR _nElementsLeft$2[ebp], 1073741823 ; 3fffffffH
  000fd	73 08		 jae	 SHORT $LN19@SerializeE
  000ff	8b 45 e8	 mov	 eax, DWORD PTR _nElementsLeft$2[ebp]
  00102	89 45 a0	 mov	 DWORD PTR tv134[ebp], eax
  00105	eb 07		 jmp	 SHORT $LN20@SerializeE
$LN19@SerializeE:
  00107	c7 45 a0 ff ff
	ff 3f		 mov	 DWORD PTR tv134[ebp], 1073741823 ; 3fffffffH
$LN20@SerializeE:
  0010e	8b 4d a0	 mov	 ecx, DWORD PTR tv134[ebp]
  00111	89 4d e4	 mov	 DWORD PTR _nElementsToRead$1[ebp], ecx

; 102  : 			ar.EnsureRead(pData, nElementsToRead*sizeof(TYPE));

  00114	8b 45 e4	 mov	 eax, DWORD PTR _nElementsToRead$1[ebp]
  00117	d1 e0		 shl	 eax, 1
  00119	50		 push	 eax
  0011a	8b 4d ec	 mov	 ecx, DWORD PTR _pData$3[ebp]
  0011d	51		 push	 ecx
  0011e	8b 4d 08	 mov	 ecx, DWORD PTR _ar$[ebp]
  00121	e8 00 00 00 00	 call	 ?EnsureRead@CArchive@@QAEXPAXI@Z ; CArchive::EnsureRead

; 103  : 			nElementsLeft -= nElementsToRead;

  00126	8b 45 e8	 mov	 eax, DWORD PTR _nElementsLeft$2[ebp]
  00129	2b 45 e4	 sub	 eax, DWORD PTR _nElementsToRead$1[ebp]
  0012c	89 45 e8	 mov	 DWORD PTR _nElementsLeft$2[ebp], eax

; 104  : 			pData += nElementsToRead;

  0012f	8b 45 e4	 mov	 eax, DWORD PTR _nElementsToRead$1[ebp]
  00132	8b 4d ec	 mov	 ecx, DWORD PTR _pData$3[ebp]
  00135	8d 14 41	 lea	 edx, DWORD PTR [ecx+eax*2]
  00138	89 55 ec	 mov	 DWORD PTR _pData$3[ebp], edx

; 105  : 		}

  0013b	eb b3		 jmp	 SHORT $LN7@SerializeE
$LN12@SerializeE:

; 106  : 	}
; 107  : }

  0013d	5f		 pop	 edi
  0013e	5e		 pop	 esi
  0013f	5b		 pop	 ebx
  00140	8b e5		 mov	 esp, ebp
  00142	5d		 pop	 ebp
  00143	c2 0c 00	 ret	 12			; 0000000cH
??$SerializeElements@G@@YGXAAVCArchive@@PAGH@Z ENDP	; SerializeElements<unsigned short>
_TEXT	ENDS
; Function compile flags: /Odtp /ZI
; File c:\program files (x86)\windows kits\10\include\10.0.17763.0\ucrt\stdio.h
;	COMDAT ??$_snprintf_s@$0IA@@@YAHAAY0IA@DIPBDZZ
_TEXT	SEGMENT
__ArgList$ = -4						; size = 4
__Buffer$ = 8						; size = 4
__BufferCount$ = 12					; size = 4
__Format$ = 16						; size = 4
??$_snprintf_s@$0IA@@@YAHAAY0IA@DIPBDZZ PROC		; _snprintf_s<128>, COMDAT

; 2079 :         )

  00000	55		 push	 ebp
  00001	8b ec		 mov	 ebp, esp
  00003	83 ec 48	 sub	 esp, 72			; 00000048H
  00006	53		 push	 ebx
  00007	56		 push	 esi
  00008	57		 push	 edi

; 2073 :     __DEFINE_CPP_OVERLOAD_SECURE_FUNC_0_2_ARGLIST(

  00009	8d 45 14	 lea	 eax, DWORD PTR __Format$[ebp+4]
  0000c	89 45 fc	 mov	 DWORD PTR __ArgList$[ebp], eax
  0000f	8b 45 fc	 mov	 eax, DWORD PTR __ArgList$[ebp]
  00012	50		 push	 eax
  00013	8b 4d 10	 mov	 ecx, DWORD PTR __Format$[ebp]
  00016	51		 push	 ecx
  00017	8b 55 0c	 mov	 edx, DWORD PTR __BufferCount$[ebp]
  0001a	52		 push	 edx
  0001b	68 80 00 00 00	 push	 128			; 00000080H
  00020	8b 45 08	 mov	 eax, DWORD PTR __Buffer$[ebp]
  00023	50		 push	 eax
  00024	e8 00 00 00 00	 call	 __vsnprintf_s
  00029	83 c4 14	 add	 esp, 20			; 00000014H
  0002c	5f		 pop	 edi
  0002d	5e		 pop	 esi
  0002e	5b		 pop	 ebx
  0002f	8b e5		 mov	 esp, ebp
  00031	5d		 pop	 ebp
  00032	c3		 ret	 0
??$_snprintf_s@$0IA@@@YAHAAY0IA@DIPBDZZ ENDP		; _snprintf_s<128>
_TEXT	ENDS
; Function compile flags: /Odtp /ZI
; File c:\program files (x86)\microsoft visual studio\2017\community\vc\tools\msvc\14.16.27023\include\xlocale
;	COMDAT ??$_Maklocstr@D@std@@YAPADPBDPADABU_Cvtvec@@@Z
_TEXT	SEGMENT
__Ptrnext$1 = -12					; size = 4
__Ptrdest$ = -8						; size = 4
__Count$ = -4						; size = 4
__Ptr$ = 8						; size = 4
___formal$ = 12						; size = 4
___formal$ = 16						; size = 4
??$_Maklocstr@D@std@@YAPADPBDPADABU_Cvtvec@@@Z PROC	; std::_Maklocstr<char>, COMDAT

; 664  : 	{	// convert C string to _Elem sequence using _Cvtvec

  00000	55		 push	 ebp
  00001	8b ec		 mov	 ebp, esp
  00003	83 ec 4c	 sub	 esp, 76			; 0000004cH
  00006	53		 push	 ebx
  00007	56		 push	 esi
  00008	57		 push	 edi

; 665  : 	size_t _Count = _CSTD strlen(_Ptr) + 1;

  00009	8b 45 08	 mov	 eax, DWORD PTR __Ptr$[ebp]
  0000c	50		 push	 eax
  0000d	e8 00 00 00 00	 call	 _strlen
  00012	83 c4 04	 add	 esp, 4
  00015	83 c0 01	 add	 eax, 1
  00018	89 45 fc	 mov	 DWORD PTR __Count$[ebp], eax

; 666  : 
; 667  : 	_Elem *_Ptrdest = (_Elem *)_calloc_dbg(_Count, sizeof (_Elem),

  0001b	68 9c 02 00 00	 push	 668			; 0000029cH
  00020	68 00 00 00 00	 push	 OFFSET ??_C@_0GI@LKBGDILM@c?3?2program?5files?5?$CIx86?$CJ?2microsof@
  00025	6a 02		 push	 2
  00027	6a 01		 push	 1
  00029	8b 45 fc	 mov	 eax, DWORD PTR __Count$[ebp]
  0002c	50		 push	 eax
  0002d	ff 15 00 00 00
	00		 call	 DWORD PTR __imp___calloc_dbg
  00033	83 c4 14	 add	 esp, 20			; 00000014H
  00036	89 45 f8	 mov	 DWORD PTR __Ptrdest$[ebp], eax

; 668  : 		_CRT_BLOCK, __FILE__, __LINE__);
; 669  : 
; 670  : 	if (!_Ptrdest)

  00039	83 7d f8 00	 cmp	 DWORD PTR __Ptrdest$[ebp], 0
  0003d	75 05		 jne	 SHORT $LN5@Maklocstr

; 671  : 		_Xbad_alloc();

  0003f	e8 00 00 00 00	 call	 ?_Xbad_alloc@std@@YAXXZ	; std::_Xbad_alloc
$LN5@Maklocstr:

; 672  : 
; 673  : 	for (_Elem *_Ptrnext = _Ptrdest; 0 < _Count; --_Count, ++_Ptrnext, ++_Ptr)

  00044	8b 45 f8	 mov	 eax, DWORD PTR __Ptrdest$[ebp]
  00047	89 45 f4	 mov	 DWORD PTR __Ptrnext$1[ebp], eax
  0004a	eb 1b		 jmp	 SHORT $LN4@Maklocstr
$LN2@Maklocstr:
  0004c	8b 45 fc	 mov	 eax, DWORD PTR __Count$[ebp]
  0004f	83 e8 01	 sub	 eax, 1
  00052	89 45 fc	 mov	 DWORD PTR __Count$[ebp], eax
  00055	8b 4d f4	 mov	 ecx, DWORD PTR __Ptrnext$1[ebp]
  00058	83 c1 01	 add	 ecx, 1
  0005b	89 4d f4	 mov	 DWORD PTR __Ptrnext$1[ebp], ecx
  0005e	8b 55 08	 mov	 edx, DWORD PTR __Ptr$[ebp]
  00061	83 c2 01	 add	 edx, 1
  00064	89 55 08	 mov	 DWORD PTR __Ptr$[ebp], edx
$LN4@Maklocstr:
  00067	83 7d fc 00	 cmp	 DWORD PTR __Count$[ebp], 0
  0006b	76 0c		 jbe	 SHORT $LN3@Maklocstr

; 674  : 		*_Ptrnext = (_Elem)(unsigned char)*_Ptr;

  0006d	8b 45 f4	 mov	 eax, DWORD PTR __Ptrnext$1[ebp]
  00070	8b 4d 08	 mov	 ecx, DWORD PTR __Ptr$[ebp]
  00073	8a 11		 mov	 dl, BYTE PTR [ecx]
  00075	88 10		 mov	 BYTE PTR [eax], dl
  00077	eb d3		 jmp	 SHORT $LN2@Maklocstr
$LN3@Maklocstr:

; 675  : 
; 676  : 	return (_Ptrdest);

  00079	8b 45 f8	 mov	 eax, DWORD PTR __Ptrdest$[ebp]
$LN6@Maklocstr:

; 677  : 	}

  0007c	5f		 pop	 edi
  0007d	5e		 pop	 esi
  0007e	5b		 pop	 ebx
  0007f	8b e5		 mov	 esp, ebp
  00081	5d		 pop	 ebp
  00082	c3		 ret	 0
??$_Maklocstr@D@std@@YAPADPBDPADABU_Cvtvec@@@Z ENDP	; std::_Maklocstr<char>
_TEXT	ENDS
; Function compile flags: /Odtp /ZI
;	COMDAT ??_ECServerInfoManager@@UAEPAXI@Z
_TEXT	SEGMENT
_this$ = -16						; size = 4
__$EHRec$ = -12						; size = 12
___flags$ = 8						; size = 4
??_ECServerInfoManager@@UAEPAXI@Z PROC			; CServerInfoManager::`vector deleting destructor', COMDAT
; _this$ = ecx
  00000	55		 push	 ebp
  00001	8b ec		 mov	 ebp, esp
  00003	6a ff		 push	 -1
  00005	68 00 00 00 00	 push	 __ehhandler$??_ECServerInfoManager@@UAEPAXI@Z
  0000a	64 a1 00 00 00
	00		 mov	 eax, DWORD PTR fs:0
  00010	50		 push	 eax
  00011	83 ec 44	 sub	 esp, 68			; 00000044H
  00014	53		 push	 ebx
  00015	56		 push	 esi
  00016	57		 push	 edi
  00017	a1 00 00 00 00	 mov	 eax, DWORD PTR ___security_cookie
  0001c	33 c5		 xor	 eax, ebp
  0001e	50		 push	 eax
  0001f	8d 45 f4	 lea	 eax, DWORD PTR __$EHRec$[ebp]
  00022	64 a3 00 00 00
	00		 mov	 DWORD PTR fs:0, eax
  00028	89 4d f0	 mov	 DWORD PTR _this$[ebp], ecx
  0002b	8b 45 08	 mov	 eax, DWORD PTR ___flags$[ebp]
  0002e	83 e0 02	 and	 eax, 2
  00031	74 47		 je	 SHORT $LN2@vector
  00033	68 00 00 00 00	 push	 OFFSET ??1CServerInfoManager@@UAE@XZ ; CServerInfoManager::~CServerInfoManager
  00038	8b 45 f0	 mov	 eax, DWORD PTR _this$[ebp]
  0003b	8b 48 fc	 mov	 ecx, DWORD PTR [eax-4]
  0003e	51		 push	 ecx
  0003f	68 ec 00 00 00	 push	 236			; 000000ecH
  00044	8b 55 f0	 mov	 edx, DWORD PTR _this$[ebp]
  00047	52		 push	 edx
  00048	e8 00 00 00 00	 call	 ??_M@YGXPAXIIP6EX0@Z@Z
  0004d	8b 45 08	 mov	 eax, DWORD PTR ___flags$[ebp]
  00050	83 e0 01	 and	 eax, 1
  00053	74 1d		 je	 SHORT $LN3@vector
  00055	8b 45 f0	 mov	 eax, DWORD PTR _this$[ebp]
  00058	69 48 fc ec 00
	00 00		 imul	 ecx, DWORD PTR [eax-4], 236
  0005f	83 c1 04	 add	 ecx, 4
  00062	51		 push	 ecx
  00063	8b 55 f0	 mov	 edx, DWORD PTR _this$[ebp]
  00066	83 ea 04	 sub	 edx, 4
  00069	52		 push	 edx
  0006a	e8 00 00 00 00	 call	 ??_V@YAXPAXI@Z		; operator delete[]
  0006f	83 c4 08	 add	 esp, 8
$LN3@vector:
  00072	8b 45 f0	 mov	 eax, DWORD PTR _this$[ebp]
  00075	83 e8 04	 sub	 eax, 4
  00078	eb 24		 jmp	 SHORT $LN5@vector
$LN2@vector:
  0007a	8b 4d f0	 mov	 ecx, DWORD PTR _this$[ebp]
  0007d	e8 00 00 00 00	 call	 ??1CServerInfoManager@@UAE@XZ ; CServerInfoManager::~CServerInfoManager
  00082	8b 45 08	 mov	 eax, DWORD PTR ___flags$[ebp]
  00085	83 e0 01	 and	 eax, 1
  00088	74 11		 je	 SHORT $LN4@vector
  0008a	68 ec 00 00 00	 push	 236			; 000000ecH
  0008f	8b 45 f0	 mov	 eax, DWORD PTR _this$[ebp]
  00092	50		 push	 eax
  00093	e8 00 00 00 00	 call	 ??3@YAXPAXI@Z		; operator delete
  00098	83 c4 08	 add	 esp, 8
$LN4@vector:
  0009b	8b 45 f0	 mov	 eax, DWORD PTR _this$[ebp]
$LN5@vector:
  0009e	8b 4d f4	 mov	 ecx, DWORD PTR __$EHRec$[ebp]
  000a1	64 89 0d 00 00
	00 00		 mov	 DWORD PTR fs:0, ecx
  000a8	59		 pop	 ecx
  000a9	5f		 pop	 edi
  000aa	5e		 pop	 esi
  000ab	5b		 pop	 ebx
  000ac	8b e5		 mov	 esp, ebp
  000ae	5d		 pop	 ebp
  000af	c2 04 00	 ret	 4
_TEXT	ENDS
;	COMDAT text$x
text$x	SEGMENT
__ehhandler$??_ECServerInfoManager@@UAEPAXI@Z:
  00000	8b 54 24 08	 mov	 edx, DWORD PTR [esp+8]
  00004	8d 42 0c	 lea	 eax, DWORD PTR [edx+12]
  00007	8b 4a ac	 mov	 ecx, DWORD PTR [edx-84]
  0000a	33 c8		 xor	 ecx, eax
  0000c	e8 00 00 00 00	 call	 @__security_check_cookie@4
  00011	b8 00 00 00 00	 mov	 eax, OFFSET __ehfuncinfo$??_ECServerInfoManager@@UAEPAXI@Z
  00016	e9 00 00 00 00	 jmp	 ___CxxFrameHandler3
text$x	ENDS
??_ECServerInfoManager@@UAEPAXI@Z ENDP			; CServerInfoManager::`vector deleting destructor'
; Function compile flags: /Odtp /ZI
;	COMDAT ??_GCServerInfoManager@@UAEPAXI@Z
_TEXT	SEGMENT
_this$ = -4						; size = 4
___flags$ = 8						; size = 4
??_GCServerInfoManager@@UAEPAXI@Z PROC			; CServerInfoManager::`scalar deleting destructor', COMDAT
; _this$ = ecx
  00000	55		 push	 ebp
  00001	8b ec		 mov	 ebp, esp
  00003	83 ec 44	 sub	 esp, 68			; 00000044H
  00006	53		 push	 ebx
  00007	56		 push	 esi
  00008	57		 push	 edi
  00009	89 4d fc	 mov	 DWORD PTR _this$[ebp], ecx
  0000c	8b 4d fc	 mov	 ecx, DWORD PTR _this$[ebp]
  0000f	e8 00 00 00 00	 call	 ??1CServerInfoManager@@UAE@XZ ; CServerInfoManager::~CServerInfoManager
  00014	8b 45 08	 mov	 eax, DWORD PTR ___flags$[ebp]
  00017	83 e0 01	 and	 eax, 1
  0001a	74 11		 je	 SHORT $LN2@scalar
  0001c	68 ec 00 00 00	 push	 236			; 000000ecH
  00021	8b 45 fc	 mov	 eax, DWORD PTR _this$[ebp]
  00024	50		 push	 eax
  00025	e8 00 00 00 00	 call	 ??3@YAXPAXI@Z		; operator delete
  0002a	83 c4 08	 add	 esp, 8
$LN2@scalar:
  0002d	8b 45 fc	 mov	 eax, DWORD PTR _this$[ebp]
  00030	5f		 pop	 edi
  00031	5e		 pop	 esi
  00032	5b		 pop	 ebx
  00033	8b e5		 mov	 esp, ebp
  00035	5d		 pop	 ebp
  00036	c2 04 00	 ret	 4
??_GCServerInfoManager@@UAEPAXI@Z ENDP			; CServerInfoManager::`scalar deleting destructor'
_TEXT	ENDS
; Function compile flags: /Odtp /ZI
;	COMDAT ??4CServerInfoManager@@QAEAAV0@ABV0@@Z
_TEXT	SEGMENT
_this$ = -4						; size = 4
___that$ = 8						; size = 4
??4CServerInfoManager@@QAEAAV0@ABV0@@Z PROC		; CServerInfoManager::operator=, COMDAT
; _this$ = ecx
  00000	55		 push	 ebp
  00001	8b ec		 mov	 ebp, esp
  00003	83 ec 44	 sub	 esp, 68			; 00000044H
  00006	53		 push	 ebx
  00007	56		 push	 esi
  00008	57		 push	 edi
  00009	89 4d fc	 mov	 DWORD PTR _this$[ebp], ecx
  0000c	8b 75 08	 mov	 esi, DWORD PTR ___that$[ebp]
  0000f	83 c6 04	 add	 esi, 4
  00012	8b 7d fc	 mov	 edi, DWORD PTR _this$[ebp]
  00015	83 c7 04	 add	 edi, 4
  00018	b9 1c 00 00 00	 mov	 ecx, 28			; 0000001cH
  0001d	f3 a5		 rep movsd
  0001f	a4		 movsb
  00020	8b 75 08	 mov	 esi, DWORD PTR ___that$[ebp]
  00023	83 c6 75	 add	 esi, 117		; 00000075H
  00026	8b 7d fc	 mov	 edi, DWORD PTR _this$[ebp]
  00029	83 c7 75	 add	 edi, 117		; 00000075H
  0002c	b9 1d 00 00 00	 mov	 ecx, 29			; 0000001dH
  00031	f3 a5		 rep movsd
  00033	8b 45 fc	 mov	 eax, DWORD PTR _this$[ebp]
  00036	5f		 pop	 edi
  00037	5e		 pop	 esi
  00038	5b		 pop	 ebx
  00039	8b e5		 mov	 esp, ebp
  0003b	5d		 pop	 ebp
  0003c	c2 04 00	 ret	 4
??4CServerInfoManager@@QAEAAV0@ABV0@@Z ENDP		; CServerInfoManager::operator=
_TEXT	ENDS
; Function compile flags: /Odtp /ZI
;	COMDAT ??0CServerInfoManager@@QAE@ABV0@@Z
_TEXT	SEGMENT
_this$ = -4						; size = 4
___that$ = 8						; size = 4
??0CServerInfoManager@@QAE@ABV0@@Z PROC			; CServerInfoManager::CServerInfoManager, COMDAT
; _this$ = ecx
  00000	55		 push	 ebp
  00001	8b ec		 mov	 ebp, esp
  00003	83 ec 44	 sub	 esp, 68			; 00000044H
  00006	53		 push	 ebx
  00007	56		 push	 esi
  00008	57		 push	 edi
  00009	89 4d fc	 mov	 DWORD PTR _this$[ebp], ecx
  0000c	8b 45 fc	 mov	 eax, DWORD PTR _this$[ebp]
  0000f	c7 00 00 00 00
	00		 mov	 DWORD PTR [eax], OFFSET ??_7CServerInfoManager@@6B@
  00015	8b 75 08	 mov	 esi, DWORD PTR ___that$[ebp]
  00018	83 c6 04	 add	 esi, 4
  0001b	8b 7d fc	 mov	 edi, DWORD PTR _this$[ebp]
  0001e	83 c7 04	 add	 edi, 4
  00021	b9 1c 00 00 00	 mov	 ecx, 28			; 0000001cH
  00026	f3 a5		 rep movsd
  00028	a4		 movsb
  00029	8b 75 08	 mov	 esi, DWORD PTR ___that$[ebp]
  0002c	83 c6 75	 add	 esi, 117		; 00000075H
  0002f	8b 7d fc	 mov	 edi, DWORD PTR _this$[ebp]
  00032	83 c7 75	 add	 edi, 117		; 00000075H
  00035	b9 1d 00 00 00	 mov	 ecx, 29			; 0000001dH
  0003a	f3 a5		 rep movsd
  0003c	8b 45 fc	 mov	 eax, DWORD PTR _this$[ebp]
  0003f	5f		 pop	 edi
  00040	5e		 pop	 esi
  00041	5b		 pop	 ebx
  00042	8b e5		 mov	 esp, ebp
  00044	5d		 pop	 ebp
  00045	c2 04 00	 ret	 4
??0CServerInfoManager@@QAE@ABV0@@Z ENDP			; CServerInfoManager::CServerInfoManager
_TEXT	ENDS
; Function compile flags: /Odtp /ZI
; File g:\网狐\happygamewh\服务端\系统模块\服务器组件\模块管理\serverinfomanager.cpp
;	COMDAT ?WritePersonalRoomInfo@CServerInfoManager@@QAE_NUtagPersonalRoomOption@@UtagPersonalRoomOptionRightAndFee@@G@Z
_TEXT	SEGMENT
_i$1 = -584						; size = 4
_szReadKey$ = -580					; size = 50
_szIniFile$ = -528					; size = 260
_szWorkDir$ = -268					; size = 260
_this$ = -8						; size = 4
__$ArrayPad$ = -4					; size = 4
_PersonalRoomOption$ = 8				; size = 113
_PersonalRoomOptionRightAndFee$ = 124			; size = 116
_dwKindID$ = 240					; size = 2
?WritePersonalRoomInfo@CServerInfoManager@@QAE_NUtagPersonalRoomOption@@UtagPersonalRoomOptionRightAndFee@@G@Z PROC ; CServerInfoManager::WritePersonalRoomInfo, COMDAT
; _this$ = ecx

; 1369 : {

  00000	55		 push	 ebp
  00001	8b ec		 mov	 ebp, esp
  00003	81 ec c8 02 00
	00		 sub	 esp, 712		; 000002c8H
  00009	a1 00 00 00 00	 mov	 eax, DWORD PTR ___security_cookie
  0000e	33 c5		 xor	 eax, ebp
  00010	89 45 fc	 mov	 DWORD PTR __$ArrayPad$[ebp], eax
  00013	53		 push	 ebx
  00014	56		 push	 esi
  00015	57		 push	 edi
  00016	89 4d f8	 mov	 DWORD PTR _this$[ebp], ecx

; 1370 : 
; 1371 : 	//获取路径
; 1372 : 	TCHAR szWorkDir[MAX_PATH]=TEXT("");

  00019	a0 00 00 00 00	 mov	 al, BYTE PTR ??_C@_00CNPNBAHC@@
  0001e	88 85 f4 fe ff
	ff		 mov	 BYTE PTR _szWorkDir$[ebp], al
  00024	68 03 01 00 00	 push	 259			; 00000103H
  00029	6a 00		 push	 0
  0002b	8d 85 f5 fe ff
	ff		 lea	 eax, DWORD PTR _szWorkDir$[ebp+1]
  00031	50		 push	 eax
  00032	e8 00 00 00 00	 call	 _memset
  00037	83 c4 0c	 add	 esp, 12			; 0000000cH

; 1373 : 	CWHService::GetWorkDirectory(szWorkDir,CountArray(szWorkDir));

  0003a	68 04 01 00 00	 push	 260			; 00000104H
  0003f	8d 85 f4 fe ff
	ff		 lea	 eax, DWORD PTR _szWorkDir$[ebp]
  00045	50		 push	 eax
  00046	ff 15 00 00 00
	00		 call	 DWORD PTR __imp_?GetWorkDirectory@CWHService@@SA_NQADG@Z
  0004c	83 c4 08	 add	 esp, 8

; 1374 : 
; 1375 : 	//构造路径
; 1376 : 	TCHAR szIniFile[MAX_PATH]=TEXT("");

  0004f	a0 00 00 00 00	 mov	 al, BYTE PTR ??_C@_00CNPNBAHC@@
  00054	88 85 f0 fd ff
	ff		 mov	 BYTE PTR _szIniFile$[ebp], al
  0005a	68 03 01 00 00	 push	 259			; 00000103H
  0005f	6a 00		 push	 0
  00061	8d 85 f1 fd ff
	ff		 lea	 eax, DWORD PTR _szIniFile$[ebp+1]
  00067	50		 push	 eax
  00068	e8 00 00 00 00	 call	 _memset
  0006d	83 c4 0c	 add	 esp, 12			; 0000000cH

; 1377 : 	_sntprintf(szIniFile,CountArray(szIniFile),TEXT("%s\\%d.ini"),szWorkDir, dwKindID);

  00070	0f b7 85 f0 00
	00 00		 movzx	 eax, WORD PTR _dwKindID$[ebp]
  00077	50		 push	 eax
  00078	8d 8d f4 fe ff
	ff		 lea	 ecx, DWORD PTR _szWorkDir$[ebp]
  0007e	51		 push	 ecx
  0007f	68 00 00 00 00	 push	 OFFSET ??_C@_09LOOPACNL@?$CFs?2?$CFd?4ini@
  00084	68 04 01 00 00	 push	 260			; 00000104H
  00089	8d 95 f0 fd ff
	ff		 lea	 edx, DWORD PTR _szIniFile$[ebp]
  0008f	52		 push	 edx
  00090	e8 00 00 00 00	 call	 __snprintf
  00095	83 c4 14	 add	 esp, 20			; 00000014H

; 1378 : 
; 1379 : 	WriteFileValue(TEXT("Enable"), TEXT("Enabled"), 1, szIniFile);

  00098	8d 85 f0 fd ff
	ff		 lea	 eax, DWORD PTR _szIniFile$[ebp]
  0009e	50		 push	 eax
  0009f	6a 01		 push	 1
  000a1	68 00 00 00 00	 push	 OFFSET ??_C@_07DOAOMMKG@Enabled@
  000a6	68 00 00 00 00	 push	 OFFSET ??_C@_06CKGENIKG@Enable@
  000ab	8b 4d f8	 mov	 ecx, DWORD PTR _this$[ebp]
  000ae	e8 00 00 00 00	 call	 ?WriteFileValue@CServerInfoManager@@QAEXPBD0I0@Z ; CServerInfoManager::WriteFileValue

; 1380 : 	//WriteFileValue(TEXT("Option"), TEXT("CardOrBean"), PersonalRoomOption.cbCardOrBean, szIniFile);
; 1381 : //	WriteFileValue(TEXT("Option"), TEXT("FeeCardOrBeanCount"), PersonalRoomOption.lFeeCardOrBeanCount,  szIniFile);
; 1382 : 	WriteFileValue(TEXT("Option"), TEXT("IsJoinGame"), PersonalRoomOption.cbIsJoinGame, szIniFile);

  000b3	8d 85 f0 fd ff
	ff		 lea	 eax, DWORD PTR _szIniFile$[ebp]
  000b9	50		 push	 eax
  000ba	0f b6 4d 08	 movzx	 ecx, BYTE PTR _PersonalRoomOption$[ebp]
  000be	51		 push	 ecx
  000bf	68 00 00 00 00	 push	 OFFSET ??_C@_0L@HLGININO@IsJoinGame@
  000c4	68 00 00 00 00	 push	 OFFSET ??_C@_06CJHLBMGC@Option@
  000c9	8b 4d f8	 mov	 ecx, DWORD PTR _this$[ebp]
  000cc	e8 00 00 00 00	 call	 ?WriteFileValue@CServerInfoManager@@QAEXPBD0I0@Z ; CServerInfoManager::WriteFileValue

; 1383 : 	WriteFileValue(TEXT("Option"), TEXT("MinPeople"), PersonalRoomOption.cbMinPeople, szIniFile);

  000d1	8d 85 f0 fd ff
	ff		 lea	 eax, DWORD PTR _szIniFile$[ebp]
  000d7	50		 push	 eax
  000d8	0f b6 4d 09	 movzx	 ecx, BYTE PTR _PersonalRoomOption$[ebp+1]
  000dc	51		 push	 ecx
  000dd	68 00 00 00 00	 push	 OFFSET ??_C@_09BAGGAEBH@MinPeople@
  000e2	68 00 00 00 00	 push	 OFFSET ??_C@_06CJHLBMGC@Option@
  000e7	8b 4d f8	 mov	 ecx, DWORD PTR _this$[ebp]
  000ea	e8 00 00 00 00	 call	 ?WriteFileValue@CServerInfoManager@@QAEXPBD0I0@Z ; CServerInfoManager::WriteFileValue

; 1384 : 	WriteFileValue(TEXT("Option"), TEXT("MaxCellScore"), PersonalRoomOption.cbMaxPeople , szIniFile);

  000ef	8d 85 f0 fd ff
	ff		 lea	 eax, DWORD PTR _szIniFile$[ebp]
  000f5	50		 push	 eax
  000f6	0f b6 4d 0a	 movzx	 ecx, BYTE PTR _PersonalRoomOption$[ebp+2]
  000fa	51		 push	 ecx
  000fb	68 00 00 00 00	 push	 OFFSET ??_C@_0N@CNCFIDBJ@MaxCellScore@
  00100	68 00 00 00 00	 push	 OFFSET ??_C@_06CJHLBMGC@Option@
  00105	8b 4d f8	 mov	 ecx, DWORD PTR _this$[ebp]
  00108	e8 00 00 00 00	 call	 ?WriteFileValue@CServerInfoManager@@QAEXPBD0I0@Z ; CServerInfoManager::WriteFileValue

; 1385 : 	WriteFileValue(TEXT("Option"), TEXT("MaxCellScore"), (UINT)PersonalRoomOption.lMaxCellScore, szIniFile);

  0010d	8d 85 f0 fd ff
	ff		 lea	 eax, DWORD PTR _szIniFile$[ebp]
  00113	50		 push	 eax
  00114	8b 4d 0b	 mov	 ecx, DWORD PTR _PersonalRoomOption$[ebp+3]
  00117	51		 push	 ecx
  00118	68 00 00 00 00	 push	 OFFSET ??_C@_0N@CNCFIDBJ@MaxCellScore@
  0011d	68 00 00 00 00	 push	 OFFSET ??_C@_06CJHLBMGC@Option@
  00122	8b 4d f8	 mov	 ecx, DWORD PTR _this$[ebp]
  00125	e8 00 00 00 00	 call	 ?WriteFileValue@CServerInfoManager@@QAEXPBD0I0@Z ; CServerInfoManager::WriteFileValue

; 1386 : 	WriteFileValue(TEXT("Option"), TEXT("PersonalRoomTax"), (UINT)PersonalRoomOption.lPersonalRoomTax, szIniFile);

  0012a	8d 85 f0 fd ff
	ff		 lea	 eax, DWORD PTR _szIniFile$[ebp]
  00130	50		 push	 eax
  00131	8b 4d 13	 mov	 ecx, DWORD PTR _PersonalRoomOption$[ebp+11]
  00134	51		 push	 ecx
  00135	68 00 00 00 00	 push	 OFFSET ??_C@_0BA@GCOMLPGF@PersonalRoomTax@
  0013a	68 00 00 00 00	 push	 OFFSET ??_C@_06CJHLBMGC@Option@
  0013f	8b 4d f8	 mov	 ecx, DWORD PTR _this$[ebp]
  00142	e8 00 00 00 00	 call	 ?WriteFileValue@CServerInfoManager@@QAEXPBD0I0@Z ; CServerInfoManager::WriteFileValue

; 1387 : 	WriteFileValue(TEXT("Option"), TEXT("CanCreateCount"), PersonalRoomOption.wCanCreateCount, szIniFile);

  00147	8d 85 f0 fd ff
	ff		 lea	 eax, DWORD PTR _szIniFile$[ebp]
  0014d	50		 push	 eax
  0014e	0f b7 4d 5b	 movzx	 ecx, WORD PTR _PersonalRoomOption$[ebp+83]
  00152	51		 push	 ecx
  00153	68 00 00 00 00	 push	 OFFSET ??_C@_0P@LNMJOPEM@CanCreateCount@
  00158	68 00 00 00 00	 push	 OFFSET ??_C@_06CJHLBMGC@Option@
  0015d	8b 4d f8	 mov	 ecx, DWORD PTR _this$[ebp]
  00160	e8 00 00 00 00	 call	 ?WriteFileValue@CServerInfoManager@@QAEXPBD0I0@Z ; CServerInfoManager::WriteFileValue

; 1388 : 	WriteFileValue(TEXT("Option"), TEXT("PlayTurnCount"), PersonalRoomOption.dwPlayTurnCount,  szIniFile);

  00165	8d 85 f0 fd ff
	ff		 lea	 eax, DWORD PTR _szIniFile$[ebp]
  0016b	50		 push	 eax
  0016c	8b 4d 5d	 mov	 ecx, DWORD PTR _PersonalRoomOption$[ebp+85]
  0016f	51		 push	 ecx
  00170	68 00 00 00 00	 push	 OFFSET ??_C@_0O@FDPMPBME@PlayTurnCount@
  00175	68 00 00 00 00	 push	 OFFSET ??_C@_06CJHLBMGC@Option@
  0017a	8b 4d f8	 mov	 ecx, DWORD PTR _this$[ebp]
  0017d	e8 00 00 00 00	 call	 ?WriteFileValue@CServerInfoManager@@QAEXPBD0I0@Z ; CServerInfoManager::WriteFileValue

; 1389 : 	WriteFileValue(TEXT("Option"), TEXT("PlayTimeLimit"), PersonalRoomOption.dwPlayTimeLimit, szIniFile);

  00182	8d 85 f0 fd ff
	ff		 lea	 eax, DWORD PTR _szIniFile$[ebp]
  00188	50		 push	 eax
  00189	8b 4d 61	 mov	 ecx, DWORD PTR _PersonalRoomOption$[ebp+89]
  0018c	51		 push	 ecx
  0018d	68 00 00 00 00	 push	 OFFSET ??_C@_0O@FAGABJFM@PlayTimeLimit@
  00192	68 00 00 00 00	 push	 OFFSET ??_C@_06CJHLBMGC@Option@
  00197	8b 4d f8	 mov	 ecx, DWORD PTR _this$[ebp]
  0019a	e8 00 00 00 00	 call	 ?WriteFileValue@CServerInfoManager@@QAEXPBD0I0@Z ; CServerInfoManager::WriteFileValue

; 1390 : 	WriteFileValue(TEXT("Option"), TEXT("TimeAfterBeginCount"), PersonalRoomOption.dwTimeAfterBeginCount, szIniFile);

  0019f	8d 85 f0 fd ff
	ff		 lea	 eax, DWORD PTR _szIniFile$[ebp]
  001a5	50		 push	 eax
  001a6	8b 4d 65	 mov	 ecx, DWORD PTR _PersonalRoomOption$[ebp+93]
  001a9	51		 push	 ecx
  001aa	68 00 00 00 00	 push	 OFFSET ??_C@_0BE@NHDBBOLF@TimeAfterBeginCount@
  001af	68 00 00 00 00	 push	 OFFSET ??_C@_06CJHLBMGC@Option@
  001b4	8b 4d f8	 mov	 ecx, DWORD PTR _this$[ebp]
  001b7	e8 00 00 00 00	 call	 ?WriteFileValue@CServerInfoManager@@QAEXPBD0I0@Z ; CServerInfoManager::WriteFileValue

; 1391 : 	WriteFileValue(TEXT("Option"), TEXT("TimeOffLineCount"), PersonalRoomOption.dwTimeOffLineCount, szIniFile);

  001bc	8d 85 f0 fd ff
	ff		 lea	 eax, DWORD PTR _szIniFile$[ebp]
  001c2	50		 push	 eax
  001c3	8b 4d 69	 mov	 ecx, DWORD PTR _PersonalRoomOption$[ebp+97]
  001c6	51		 push	 ecx
  001c7	68 00 00 00 00	 push	 OFFSET ??_C@_0BB@BHHEMCMJ@TimeOffLineCount@
  001cc	68 00 00 00 00	 push	 OFFSET ??_C@_06CJHLBMGC@Option@
  001d1	8b 4d f8	 mov	 ecx, DWORD PTR _this$[ebp]
  001d4	e8 00 00 00 00	 call	 ?WriteFileValue@CServerInfoManager@@QAEXPBD0I0@Z ; CServerInfoManager::WriteFileValue

; 1392 : 	WriteFileValue(TEXT("Option"), TEXT("TimeNotBeginGame"), PersonalRoomOption.dwTimeNotBeginGame, szIniFile);

  001d9	8d 85 f0 fd ff
	ff		 lea	 eax, DWORD PTR _szIniFile$[ebp]
  001df	50		 push	 eax
  001e0	8b 4d 6d	 mov	 ecx, DWORD PTR _PersonalRoomOption$[ebp+101]
  001e3	51		 push	 ecx
  001e4	68 00 00 00 00	 push	 OFFSET ??_C@_0BB@EFKEMBID@TimeNotBeginGame@
  001e9	68 00 00 00 00	 push	 OFFSET ??_C@_06CJHLBMGC@Option@
  001ee	8b 4d f8	 mov	 ecx, DWORD PTR _this$[ebp]
  001f1	e8 00 00 00 00	 call	 ?WriteFileValue@CServerInfoManager@@QAEXPBD0I0@Z ; CServerInfoManager::WriteFileValue

; 1393 : 	WriteFileValue(TEXT("Option"), TEXT("TimeAfterCreateRoom"), PersonalRoomOption.dwTimeAfterCreateRoom, szIniFile);

  001f6	8d 85 f0 fd ff
	ff		 lea	 eax, DWORD PTR _szIniFile$[ebp]
  001fc	50		 push	 eax
  001fd	8b 4d 71	 mov	 ecx, DWORD PTR _PersonalRoomOption$[ebp+105]
  00200	51		 push	 ecx
  00201	68 00 00 00 00	 push	 OFFSET ??_C@_0BE@MAFCEFJP@TimeAfterCreateRoom@
  00206	68 00 00 00 00	 push	 OFFSET ??_C@_06CJHLBMGC@Option@
  0020b	8b 4d f8	 mov	 ecx, DWORD PTR _this$[ebp]
  0020e	e8 00 00 00 00	 call	 ?WriteFileValue@CServerInfoManager@@QAEXPBD0I0@Z ; CServerInfoManager::WriteFileValue

; 1394 : 	WriteFileValue(TEXT("Option"), TEXT("BeginFreeTime"), PersonalRoomOption.wBeginFreeTime, szIniFile);

  00213	8d 85 f0 fd ff
	ff		 lea	 eax, DWORD PTR _szIniFile$[ebp]
  00219	50		 push	 eax
  0021a	0f b7 4d 75	 movzx	 ecx, WORD PTR _PersonalRoomOption$[ebp+109]
  0021e	51		 push	 ecx
  0021f	68 00 00 00 00	 push	 OFFSET ??_C@_0O@DEEAMCAI@BeginFreeTime@
  00224	68 00 00 00 00	 push	 OFFSET ??_C@_06CJHLBMGC@Option@
  00229	8b 4d f8	 mov	 ecx, DWORD PTR _this$[ebp]
  0022c	e8 00 00 00 00	 call	 ?WriteFileValue@CServerInfoManager@@QAEXPBD0I0@Z ; CServerInfoManager::WriteFileValue

; 1395 : 	WriteFileValue(TEXT("Option"), TEXT("EndFreeTime"), PersonalRoomOption.wEndFreeTime, szIniFile);

  00231	8d 85 f0 fd ff
	ff		 lea	 eax, DWORD PTR _szIniFile$[ebp]
  00237	50		 push	 eax
  00238	0f b7 4d 77	 movzx	 ecx, WORD PTR _PersonalRoomOption$[ebp+111]
  0023c	51		 push	 ecx
  0023d	68 00 00 00 00	 push	 OFFSET ??_C@_0M@OHDGOHJM@EndFreeTime@
  00242	68 00 00 00 00	 push	 OFFSET ??_C@_06CJHLBMGC@Option@
  00247	8b 4d f8	 mov	 ecx, DWORD PTR _this$[ebp]
  0024a	e8 00 00 00 00	 call	 ?WriteFileValue@CServerInfoManager@@QAEXPBD0I0@Z ; CServerInfoManager::WriteFileValue

; 1396 : 
; 1397 : 	//创建私人房间的权限及费用
; 1398 : 	WriteFileValue(TEXT("CreateRoomRight"), TEXT("CreateRight"), PersonalRoomOptionRightAndFee.cbCreateRight, szIniFile);

  0024f	8d 85 f0 fd ff
	ff		 lea	 eax, DWORD PTR _szIniFile$[ebp]
  00255	50		 push	 eax
  00256	0f b6 4d 7c	 movzx	 ecx, BYTE PTR _PersonalRoomOptionRightAndFee$[ebp]
  0025a	51		 push	 ecx
  0025b	68 00 00 00 00	 push	 OFFSET ??_C@_0M@JGNJEEEJ@CreateRight@
  00260	68 00 00 00 00	 push	 OFFSET ??_C@_0BA@MEGPCNND@CreateRoomRight@
  00265	8b 4d f8	 mov	 ecx, DWORD PTR _this$[ebp]
  00268	e8 00 00 00 00	 call	 ?WriteFileValue@CServerInfoManager@@QAEXPBD0I0@Z ; CServerInfoManager::WriteFileValue

; 1399 : 
; 1400 : 	TCHAR szReadKey[50] = { 0 };

  0026d	6a 32		 push	 50			; 00000032H
  0026f	6a 00		 push	 0
  00271	8d 85 bc fd ff
	ff		 lea	 eax, DWORD PTR _szReadKey$[ebp]
  00277	50		 push	 eax
  00278	e8 00 00 00 00	 call	 _memset
  0027d	83 c4 0c	 add	 esp, 12			; 0000000cH

; 1401 : 
; 1402 : 	for (int i = 0; i < FEE_OPTION_COUNT ; i++)

  00280	c7 85 b8 fd ff
	ff 00 00 00 00	 mov	 DWORD PTR _i$1[ebp], 0
  0028a	eb 0f		 jmp	 SHORT $LN4@WritePerso
$LN2@WritePerso:
  0028c	8b 85 b8 fd ff
	ff		 mov	 eax, DWORD PTR _i$1[ebp]
  00292	83 c0 01	 add	 eax, 1
  00295	89 85 b8 fd ff
	ff		 mov	 DWORD PTR _i$1[ebp], eax
$LN4@WritePerso:
  0029b	83 bd b8 fd ff
	ff 05		 cmp	 DWORD PTR _i$1[ebp], 5
  002a2	0f 8d 65 01 00
	00		 jge	 $LN3@WritePerso

; 1403 : 	{
; 1404 : 		wsprintf(szReadKey, TEXT("PlayTurnLimit_%d"), i);

  002a8	8b 85 b8 fd ff
	ff		 mov	 eax, DWORD PTR _i$1[ebp]
  002ae	50		 push	 eax
  002af	68 00 00 00 00	 push	 OFFSET ??_C@_0BB@NDJBEBBP@PlayTurnLimit_?$CFd@
  002b4	8d 8d bc fd ff
	ff		 lea	 ecx, DWORD PTR _szReadKey$[ebp]
  002ba	51		 push	 ecx
  002bb	ff 15 00 00 00
	00		 call	 DWORD PTR __imp__wsprintfA
  002c1	83 c4 0c	 add	 esp, 12			; 0000000cH

; 1405 : 		WriteFileValue(TEXT("FeeParameter"), szReadKey, PersonalRoomOptionRightAndFee.stCreateRoomPayFee[i].dwPlayTurnLimit, szIniFile);

  002c4	8d 85 f0 fd ff
	ff		 lea	 eax, DWORD PTR _szIniFile$[ebp]
  002ca	50		 push	 eax
  002cb	6b 8d b8 fd ff
	ff 13		 imul	 ecx, DWORD PTR _i$1[ebp], 19
  002d2	8b 94 0d 92 00
	00 00		 mov	 edx, DWORD PTR _PersonalRoomOptionRightAndFee$[ebp+ecx+22]
  002d9	52		 push	 edx
  002da	8d 85 bc fd ff
	ff		 lea	 eax, DWORD PTR _szReadKey$[ebp]
  002e0	50		 push	 eax
  002e1	68 00 00 00 00	 push	 OFFSET ??_C@_0N@BPNJNFLH@FeeParameter@
  002e6	8b 4d f8	 mov	 ecx, DWORD PTR _this$[ebp]
  002e9	e8 00 00 00 00	 call	 ?WriteFileValue@CServerInfoManager@@QAEXPBD0I0@Z ; CServerInfoManager::WriteFileValue

; 1406 : 
; 1407 : 		wsprintf(szReadKey, TEXT("PayFee_%d"), i);

  002ee	8b 85 b8 fd ff
	ff		 mov	 eax, DWORD PTR _i$1[ebp]
  002f4	50		 push	 eax
  002f5	68 00 00 00 00	 push	 OFFSET ??_C@_09NPCPBNFG@PayFee_?$CFd@
  002fa	8d 8d bc fd ff
	ff		 lea	 ecx, DWORD PTR _szReadKey$[ebp]
  00300	51		 push	 ecx
  00301	ff 15 00 00 00
	00		 call	 DWORD PTR __imp__wsprintfA
  00307	83 c4 0c	 add	 esp, 12			; 0000000cH

; 1408 : 		WriteFileValue(TEXT("FeeParameter"), szReadKey, PersonalRoomOptionRightAndFee.stCreateRoomPayFee[i].dwPayFee, szIniFile);

  0030a	8d 85 f0 fd ff
	ff		 lea	 eax, DWORD PTR _szIniFile$[ebp]
  00310	50		 push	 eax
  00311	6b 8d b8 fd ff
	ff 13		 imul	 ecx, DWORD PTR _i$1[ebp], 19
  00318	8b 94 0d 9a 00
	00 00		 mov	 edx, DWORD PTR _PersonalRoomOptionRightAndFee$[ebp+ecx+30]
  0031f	52		 push	 edx
  00320	8d 85 bc fd ff
	ff		 lea	 eax, DWORD PTR _szReadKey$[ebp]
  00326	50		 push	 eax
  00327	68 00 00 00 00	 push	 OFFSET ??_C@_0N@BPNJNFLH@FeeParameter@
  0032c	8b 4d f8	 mov	 ecx, DWORD PTR _this$[ebp]
  0032f	e8 00 00 00 00	 call	 ?WriteFileValue@CServerInfoManager@@QAEXPBD0I0@Z ; CServerInfoManager::WriteFileValue

; 1409 : 		
; 1410 : 		wsprintf(szReadKey, TEXT("AAPayFee_%d"), i);

  00334	8b 85 b8 fd ff
	ff		 mov	 eax, DWORD PTR _i$1[ebp]
  0033a	50		 push	 eax
  0033b	68 00 00 00 00	 push	 OFFSET ??_C@_0M@PLHAIOPP@AAPayFee_?$CFd@
  00340	8d 8d bc fd ff
	ff		 lea	 ecx, DWORD PTR _szReadKey$[ebp]
  00346	51		 push	 ecx
  00347	ff 15 00 00 00
	00		 call	 DWORD PTR __imp__wsprintfA
  0034d	83 c4 0c	 add	 esp, 12			; 0000000cH

; 1411 : 		WriteFileValue(TEXT("FeeParameter"), szReadKey, PersonalRoomOptionRightAndFee.stCreateRoomPayFee[i].wAAPayFee, szIniFile);

  00350	8d 85 f0 fd ff
	ff		 lea	 eax, DWORD PTR _szIniFile$[ebp]
  00356	50		 push	 eax
  00357	6b 8d b8 fd ff
	ff 13		 imul	 ecx, DWORD PTR _i$1[ebp], 19
  0035e	0f b7 94 0d 9e
	00 00 00	 movzx	 edx, WORD PTR _PersonalRoomOptionRightAndFee$[ebp+ecx+34]
  00366	52		 push	 edx
  00367	8d 85 bc fd ff
	ff		 lea	 eax, DWORD PTR _szReadKey$[ebp]
  0036d	50		 push	 eax
  0036e	68 00 00 00 00	 push	 OFFSET ??_C@_0N@BPNJNFLH@FeeParameter@
  00373	8b 4d f8	 mov	 ecx, DWORD PTR _this$[ebp]
  00376	e8 00 00 00 00	 call	 ?WriteFileValue@CServerInfoManager@@QAEXPBD0I0@Z ; CServerInfoManager::WriteFileValue

; 1412 : 
; 1413 : 		wsprintf(szReadKey, TEXT("IniScore_%d"), i);

  0037b	8b 85 b8 fd ff
	ff		 mov	 eax, DWORD PTR _i$1[ebp]
  00381	50		 push	 eax
  00382	68 00 00 00 00	 push	 OFFSET ??_C@_0M@NFLEKBDJ@IniScore_?$CFd@
  00387	8d 8d bc fd ff
	ff		 lea	 ecx, DWORD PTR _szReadKey$[ebp]
  0038d	51		 push	 ecx
  0038e	ff 15 00 00 00
	00		 call	 DWORD PTR __imp__wsprintfA
  00394	83 c4 0c	 add	 esp, 12			; 0000000cH

; 1414 : 		WriteFileValue(TEXT("FeeParameter"), szReadKey, PersonalRoomOptionRightAndFee.stCreateRoomPayFee[i].dwIniScore, szIniFile);

  00397	8d 85 f0 fd ff
	ff		 lea	 eax, DWORD PTR _szIniFile$[ebp]
  0039d	50		 push	 eax
  0039e	6b 8d b8 fd ff
	ff 13		 imul	 ecx, DWORD PTR _i$1[ebp], 19
  003a5	8b 94 0d a0 00
	00 00		 mov	 edx, DWORD PTR _PersonalRoomOptionRightAndFee$[ebp+ecx+36]
  003ac	52		 push	 edx
  003ad	8d 85 bc fd ff
	ff		 lea	 eax, DWORD PTR _szReadKey$[ebp]
  003b3	50		 push	 eax
  003b4	68 00 00 00 00	 push	 OFFSET ??_C@_0N@BPNJNFLH@FeeParameter@
  003b9	8b 4d f8	 mov	 ecx, DWORD PTR _this$[ebp]
  003bc	e8 00 00 00 00	 call	 ?WriteFileValue@CServerInfoManager@@QAEXPBD0I0@Z ; CServerInfoManager::WriteFileValue

; 1415 : 
; 1416 : 		wsprintf(szReadKey, TEXT("GameMode_%d"), i);

  003c1	8b 85 b8 fd ff
	ff		 mov	 eax, DWORD PTR _i$1[ebp]
  003c7	50		 push	 eax
  003c8	68 00 00 00 00	 push	 OFFSET ??_C@_0M@MCMOAOCB@GameMode_?$CFd@
  003cd	8d 8d bc fd ff
	ff		 lea	 ecx, DWORD PTR _szReadKey$[ebp]
  003d3	51		 push	 ecx
  003d4	ff 15 00 00 00
	00		 call	 DWORD PTR __imp__wsprintfA
  003da	83 c4 0c	 add	 esp, 12			; 0000000cH

; 1417 : 		WriteFileValue(TEXT("FeeParameter"), szReadKey, PersonalRoomOptionRightAndFee.stCreateRoomPayFee[i].cbGameMode, szIniFile);

  003dd	8d 85 f0 fd ff
	ff		 lea	 eax, DWORD PTR _szIniFile$[ebp]
  003e3	50		 push	 eax
  003e4	6b 8d b8 fd ff
	ff 13		 imul	 ecx, DWORD PTR _i$1[ebp], 19
  003eb	0f b6 94 0d 91
	00 00 00	 movzx	 edx, BYTE PTR _PersonalRoomOptionRightAndFee$[ebp+ecx+21]
  003f3	52		 push	 edx
  003f4	8d 85 bc fd ff
	ff		 lea	 eax, DWORD PTR _szReadKey$[ebp]
  003fa	50		 push	 eax
  003fb	68 00 00 00 00	 push	 OFFSET ??_C@_0N@BPNJNFLH@FeeParameter@
  00400	8b 4d f8	 mov	 ecx, DWORD PTR _this$[ebp]
  00403	e8 00 00 00 00	 call	 ?WriteFileValue@CServerInfoManager@@QAEXPBD0I0@Z ; CServerInfoManager::WriteFileValue

; 1418 : 	}

  00408	e9 7f fe ff ff	 jmp	 $LN2@WritePerso
$LN3@WritePerso:

; 1419 : 
; 1420 : 	return true;

  0040d	b0 01		 mov	 al, 1

; 1421 : }

  0040f	5f		 pop	 edi
  00410	5e		 pop	 esi
  00411	5b		 pop	 ebx
  00412	8b 4d fc	 mov	 ecx, DWORD PTR __$ArrayPad$[ebp]
  00415	33 cd		 xor	 ecx, ebp
  00417	e8 00 00 00 00	 call	 @__security_check_cookie@4
  0041c	8b e5		 mov	 esp, ebp
  0041e	5d		 pop	 ebp
  0041f	c2 ec 00	 ret	 236			; 000000ecH
?WritePersonalRoomInfo@CServerInfoManager@@QAE_NUtagPersonalRoomOption@@UtagPersonalRoomOptionRightAndFee@@G@Z ENDP ; CServerInfoManager::WritePersonalRoomInfo
_TEXT	ENDS
; Function compile flags: /Odtp /ZI
; File g:\网狐\happygamewh\服务端\系统模块\服务器组件\模块管理\serverinfomanager.cpp
;	COMDAT ?WriteFileValue@CServerInfoManager@@QAEXPBD0I0@Z
_TEXT	SEGMENT
_szString$ = -24					; size = 16
_this$ = -8						; size = 4
__$ArrayPad$ = -4					; size = 4
_pszKeyName$ = 8					; size = 4
_pszItemName$ = 12					; size = 4
_nValue$ = 16						; size = 4
_szPath$ = 20						; size = 4
?WriteFileValue@CServerInfoManager@@QAEXPBD0I0@Z PROC	; CServerInfoManager::WriteFileValue, COMDAT
; _this$ = ecx

; 1356 : {

  00000	55		 push	 ebp
  00001	8b ec		 mov	 ebp, esp
  00003	83 ec 58	 sub	 esp, 88			; 00000058H
  00006	a1 00 00 00 00	 mov	 eax, DWORD PTR ___security_cookie
  0000b	33 c5		 xor	 eax, ebp
  0000d	89 45 fc	 mov	 DWORD PTR __$ArrayPad$[ebp], eax
  00010	53		 push	 ebx
  00011	56		 push	 esi
  00012	57		 push	 edi
  00013	89 4d f8	 mov	 DWORD PTR _this$[ebp], ecx

; 1357 : 
; 1358 : 	//构造数据
; 1359 : 	TCHAR szString[16]=TEXT("");

  00016	a0 00 00 00 00	 mov	 al, BYTE PTR ??_C@_00CNPNBAHC@@
  0001b	88 45 e8	 mov	 BYTE PTR _szString$[ebp], al
  0001e	33 c0		 xor	 eax, eax
  00020	89 45 e9	 mov	 DWORD PTR _szString$[ebp+1], eax
  00023	89 45 ed	 mov	 DWORD PTR _szString$[ebp+5], eax
  00026	89 45 f1	 mov	 DWORD PTR _szString$[ebp+9], eax
  00029	66 89 45 f5	 mov	 WORD PTR _szString$[ebp+13], ax
  0002d	88 45 f7	 mov	 BYTE PTR _szString$[ebp+15], al

; 1360 : 	_sntprintf(szString,CountArray(szString),TEXT("%d"),nValue);

  00030	8b 45 10	 mov	 eax, DWORD PTR _nValue$[ebp]
  00033	50		 push	 eax
  00034	68 00 00 00 00	 push	 OFFSET ??_C@_02DPKJAMEF@?$CFd@
  00039	6a 10		 push	 16			; 00000010H
  0003b	8d 4d e8	 lea	 ecx, DWORD PTR _szString$[ebp]
  0003e	51		 push	 ecx
  0003f	e8 00 00 00 00	 call	 __snprintf
  00044	83 c4 10	 add	 esp, 16			; 00000010H

; 1361 : 
; 1362 : 	//写入数据
; 1363 : 	WritePrivateProfileString(pszKeyName,pszItemName,szString,szPath);

  00047	8b 45 14	 mov	 eax, DWORD PTR _szPath$[ebp]
  0004a	50		 push	 eax
  0004b	8d 4d e8	 lea	 ecx, DWORD PTR _szString$[ebp]
  0004e	51		 push	 ecx
  0004f	8b 55 0c	 mov	 edx, DWORD PTR _pszItemName$[ebp]
  00052	52		 push	 edx
  00053	8b 45 08	 mov	 eax, DWORD PTR _pszKeyName$[ebp]
  00056	50		 push	 eax
  00057	ff 15 00 00 00
	00		 call	 DWORD PTR __imp__WritePrivateProfileStringA@16

; 1364 : 
; 1365 : 	return;
; 1366 : }

  0005d	5f		 pop	 edi
  0005e	5e		 pop	 esi
  0005f	5b		 pop	 ebx
  00060	8b 4d fc	 mov	 ecx, DWORD PTR __$ArrayPad$[ebp]
  00063	33 cd		 xor	 ecx, ebp
  00065	e8 00 00 00 00	 call	 @__security_check_cookie@4
  0006a	8b e5		 mov	 esp, ebp
  0006c	5d		 pop	 ebp
  0006d	c2 10 00	 ret	 16			; 00000010H
?WriteFileValue@CServerInfoManager@@QAEXPBD0I0@Z ENDP	; CServerInfoManager::WriteFileValue
_TEXT	ENDS
; Function compile flags: /Odtp /ZI
; File g:\网狐\happygamewh\服务端\系统模块\服务器组件\模块管理\serverinfomanager.cpp
;	COMDAT ?ModifyPersonalRoomParameter@CServerInfoManager@@QAE_NVCDataBaseAide@@UtagPersonalRoomOption@@UtagPersonalRoomOptionRightAndFee@@GG@Z
_TEXT	SEGMENT
tv453 = -496						; size = 4
tv452 = -496						; size = 4
tv451 = -496						; size = 4
tv450 = -496						; size = 4
tv449 = -496						; size = 4
$T2 = -492						; size = 1
$T3 = -491						; size = 1
$T4 = -490						; size = 1
$T5 = -489						; size = 1
_pszDescribe$6 = -424					; size = 4
_pIException$7 = -420					; size = 4
_szDescribeString$8 = -416				; size = 128
_i$9 = -288						; size = 4
_szDescribeString$10 = -284				; size = 128
_i$11 = -156						; size = 4
_szDescribeString$12 = -152				; size = 128
_this$ = -24						; size = 4
__$ArrayPad$ = -20					; size = 4
__$EHRec$ = -16						; size = 16
_PlatformDBAide$ = 8					; size = 8
_PersonalRoomOption$ = 16				; size = 113
_PersonalRoomOptionRightAndFee$ = 132			; size = 116
_dwServerID$ = 248					; size = 2
_dwKindID$ = 252					; size = 2
?ModifyPersonalRoomParameter@CServerInfoManager@@QAE_NVCDataBaseAide@@UtagPersonalRoomOption@@UtagPersonalRoomOptionRightAndFee@@GG@Z PROC ; CServerInfoManager::ModifyPersonalRoomParameter, COMDAT
; _this$ = ecx

; 1192 : {

  00000	55		 push	 ebp
  00001	8b ec		 mov	 ebp, esp
  00003	6a ff		 push	 -1
  00005	68 00 00 00 00	 push	 __ehhandler$?ModifyPersonalRoomParameter@CServerInfoManager@@QAE_NVCDataBaseAide@@UtagPersonalRoomOption@@UtagPersonalRoomOptionRightAndFee@@GG@Z
  0000a	64 a1 00 00 00
	00		 mov	 eax, DWORD PTR fs:0
  00010	50		 push	 eax
  00011	51		 push	 ecx
  00012	81 ec e0 01 00
	00		 sub	 esp, 480		; 000001e0H
  00018	a1 00 00 00 00	 mov	 eax, DWORD PTR ___security_cookie
  0001d	33 c5		 xor	 eax, ebp
  0001f	89 45 ec	 mov	 DWORD PTR __$ArrayPad$[ebp], eax
  00022	53		 push	 ebx
  00023	56		 push	 esi
  00024	57		 push	 edi
  00025	50		 push	 eax
  00026	8d 45 f4	 lea	 eax, DWORD PTR __$EHRec$[ebp+4]
  00029	64 a3 00 00 00
	00		 mov	 DWORD PTR fs:0, eax
  0002f	89 65 f0	 mov	 DWORD PTR __$EHRec$[ebp], esp
  00032	89 4d e8	 mov	 DWORD PTR _this$[ebp], ecx
  00035	c7 45 fc 00 00
	00 00		 mov	 DWORD PTR __$EHRec$[ebp+12], 0

; 1193 : 	try

  0003c	c6 45 fc 01	 mov	 BYTE PTR __$EHRec$[ebp+12], 1

; 1194 : 	{
; 1195 : 		//插入参数
; 1196 : 		PlatformDBAide.ResetParameter();

  00040	8d 4d 08	 lea	 ecx, DWORD PTR _PlatformDBAide$[ebp]
  00043	ff 15 00 00 00
	00		 call	 DWORD PTR __imp_?ResetParameter@CDataBaseAide@@QAEXXZ

; 1197 : 		PlatformDBAide.AddParameter(TEXT("@dwServerID"),dwServerID);

  00049	6a 01		 push	 1
  0004b	0f b7 85 f8 00
	00 00		 movzx	 eax, WORD PTR _dwServerID$[ebp]
  00052	50		 push	 eax
  00053	68 00 00 00 00	 push	 OFFSET ??_C@_0M@EODDKFON@?$EAdwServerID@
  00058	8d 4d 08	 lea	 ecx, DWORD PTR _PlatformDBAide$[ebp]
  0005b	ff 15 00 00 00
	00		 call	 DWORD PTR __imp_?AddParameter@CDataBaseAide@@QAEXPBDGW4ParameterDirectionEnum@ADOCG@@@Z

; 1198 : 		PlatformDBAide.AddParameter(TEXT("@wKindID"),dwKindID);

  00061	6a 01		 push	 1
  00063	0f b7 85 fc 00
	00 00		 movzx	 eax, WORD PTR _dwKindID$[ebp]
  0006a	50		 push	 eax
  0006b	68 00 00 00 00	 push	 OFFSET ??_C@_08HBBOJKPI@?$EAwKindID@
  00070	8d 4d 08	 lea	 ecx, DWORD PTR _PlatformDBAide$[ebp]
  00073	ff 15 00 00 00
	00		 call	 DWORD PTR __imp_?AddParameter@CDataBaseAide@@QAEXPBDGW4ParameterDirectionEnum@ADOCG@@@Z

; 1199 : 		//PlatformDBAide.AddParameter(TEXT("@lDiamondCount"),PersonalRoomOption.lFeeCardOrBeanCount);
; 1200 : 		PlatformDBAide.AddParameter(TEXT("@cbIsJoinGame"),PersonalRoomOption.cbIsJoinGame);

  00079	6a 01		 push	 1
  0007b	0f b6 45 10	 movzx	 eax, BYTE PTR _PersonalRoomOption$[ebp]
  0007f	50		 push	 eax
  00080	68 00 00 00 00	 push	 OFFSET ??_C@_0O@PHLNKDAD@?$EAcbIsJoinGame@
  00085	8d 4d 08	 lea	 ecx, DWORD PTR _PlatformDBAide$[ebp]
  00088	ff 15 00 00 00
	00		 call	 DWORD PTR __imp_?AddParameter@CDataBaseAide@@QAEXPBDEW4ParameterDirectionEnum@ADOCG@@@Z

; 1201 : 		PlatformDBAide.AddParameter(TEXT("@cbMinPeople"),PersonalRoomOption.cbMinPeople);

  0008e	6a 01		 push	 1
  00090	0f b6 45 11	 movzx	 eax, BYTE PTR _PersonalRoomOption$[ebp+1]
  00094	50		 push	 eax
  00095	68 00 00 00 00	 push	 OFFSET ??_C@_0N@BGGBCKEJ@?$EAcbMinPeople@
  0009a	8d 4d 08	 lea	 ecx, DWORD PTR _PlatformDBAide$[ebp]
  0009d	ff 15 00 00 00
	00		 call	 DWORD PTR __imp_?AddParameter@CDataBaseAide@@QAEXPBDEW4ParameterDirectionEnum@ADOCG@@@Z

; 1202 : 		PlatformDBAide.AddParameter(TEXT("@cbMaxPeople"),PersonalRoomOption.cbMaxPeople);

  000a3	6a 01		 push	 1
  000a5	0f b6 45 12	 movzx	 eax, BYTE PTR _PersonalRoomOption$[ebp+2]
  000a9	50		 push	 eax
  000aa	68 00 00 00 00	 push	 OFFSET ??_C@_0N@BHGNLAPN@?$EAcbMaxPeople@
  000af	8d 4d 08	 lea	 ecx, DWORD PTR _PlatformDBAide$[ebp]
  000b2	ff 15 00 00 00
	00		 call	 DWORD PTR __imp_?AddParameter@CDataBaseAide@@QAEXPBDEW4ParameterDirectionEnum@ADOCG@@@Z

; 1203 : 		PlatformDBAide.AddParameter(TEXT("@lPersonalRoomTax"),PersonalRoomOption.lPersonalRoomTax);

  000b8	6a 01		 push	 1
  000ba	8b 45 1f	 mov	 eax, DWORD PTR _PersonalRoomOption$[ebp+15]
  000bd	50		 push	 eax
  000be	8b 4d 1b	 mov	 ecx, DWORD PTR _PersonalRoomOption$[ebp+11]
  000c1	51		 push	 ecx
  000c2	68 00 00 00 00	 push	 OFFSET ??_C@_0BC@LFDMHEEC@?$EAlPersonalRoomTax@
  000c7	8d 4d 08	 lea	 ecx, DWORD PTR _PlatformDBAide$[ebp]
  000ca	ff 15 00 00 00
	00		 call	 DWORD PTR __imp_?AddParameter@CDataBaseAide@@QAEXPBD_JW4ParameterDirectionEnum@ADOCG@@@Z

; 1204 : 		PlatformDBAide.AddParameter(TEXT("@lMaxCellScore"),PersonalRoomOption.lMaxCellScore);

  000d0	6a 01		 push	 1
  000d2	8b 45 17	 mov	 eax, DWORD PTR _PersonalRoomOption$[ebp+7]
  000d5	50		 push	 eax
  000d6	8b 4d 13	 mov	 ecx, DWORD PTR _PersonalRoomOption$[ebp+3]
  000d9	51		 push	 ecx
  000da	68 00 00 00 00	 push	 OFFSET ??_C@_0P@JJFBKDAF@?$EAlMaxCellScore@
  000df	8d 4d 08	 lea	 ecx, DWORD PTR _PlatformDBAide$[ebp]
  000e2	ff 15 00 00 00
	00		 call	 DWORD PTR __imp_?AddParameter@CDataBaseAide@@QAEXPBD_JW4ParameterDirectionEnum@ADOCG@@@Z

; 1205 : 		PlatformDBAide.AddParameter(TEXT("@wCanCreateCount"),PersonalRoomOption.wCanCreateCount);

  000e8	6a 01		 push	 1
  000ea	0f b7 45 63	 movzx	 eax, WORD PTR _PersonalRoomOption$[ebp+83]
  000ee	50		 push	 eax
  000ef	68 00 00 00 00	 push	 OFFSET ??_C@_0BB@NMCMDDIO@?$EAwCanCreateCount@
  000f4	8d 4d 08	 lea	 ecx, DWORD PTR _PlatformDBAide$[ebp]
  000f7	ff 15 00 00 00
	00		 call	 DWORD PTR __imp_?AddParameter@CDataBaseAide@@QAEXPBDGW4ParameterDirectionEnum@ADOCG@@@Z

; 1206 : 		PlatformDBAide.AddParameter(TEXT("@wPlayTurnCount"),PersonalRoomOption.dwPlayTurnCount);

  000fd	6a 01		 push	 1
  000ff	8b 45 65	 mov	 eax, DWORD PTR _PersonalRoomOption$[ebp+85]
  00102	50		 push	 eax
  00103	68 00 00 00 00	 push	 OFFSET ??_C@_0BA@NNNPOABK@?$EAwPlayTurnCount@
  00108	8d 4d 08	 lea	 ecx, DWORD PTR _PlatformDBAide$[ebp]
  0010b	ff 15 00 00 00
	00		 call	 DWORD PTR __imp_?AddParameter@CDataBaseAide@@QAEXPBDKW4ParameterDirectionEnum@ADOCG@@@Z

; 1207 : 		PlatformDBAide.AddParameter(TEXT("@wPlayTimeLimit"),PersonalRoomOption.dwPlayTimeLimit);

  00111	6a 01		 push	 1
  00113	8b 45 69	 mov	 eax, DWORD PTR _PersonalRoomOption$[ebp+89]
  00116	50		 push	 eax
  00117	68 00 00 00 00	 push	 OFFSET ??_C@_0BA@NOEDAIIC@?$EAwPlayTimeLimit@
  0011c	8d 4d 08	 lea	 ecx, DWORD PTR _PlatformDBAide$[ebp]
  0011f	ff 15 00 00 00
	00		 call	 DWORD PTR __imp_?AddParameter@CDataBaseAide@@QAEXPBDKW4ParameterDirectionEnum@ADOCG@@@Z

; 1208 : 
; 1209 : 		if (PersonalRoomOption.dwTimeAfterBeginCount == 0)

  00125	83 7d 6d 00	 cmp	 DWORD PTR _PersonalRoomOption$[ebp+93], 0
  00129	75 07		 jne	 SHORT $LN9@ModifyPers

; 1210 : 		{
; 1211 : 			PersonalRoomOption.dwTimeAfterBeginCount  = 1400;

  0012b	c7 45 6d 78 05
	00 00		 mov	 DWORD PTR _PersonalRoomOption$[ebp+93], 1400 ; 00000578H
$LN9@ModifyPers:

; 1212 : 		}
; 1213 : 
; 1214 : 		if (PersonalRoomOption.dwTimeOffLineCount == 0)

  00132	83 7d 71 00	 cmp	 DWORD PTR _PersonalRoomOption$[ebp+97], 0
  00136	75 07		 jne	 SHORT $LN10@ModifyPers

; 1215 : 		{
; 1216 : 			PersonalRoomOption.dwTimeOffLineCount  = 1400;

  00138	c7 45 71 78 05
	00 00		 mov	 DWORD PTR _PersonalRoomOption$[ebp+97], 1400 ; 00000578H
$LN10@ModifyPers:

; 1217 : 		}
; 1218 : 
; 1219 : 		if (PersonalRoomOption.dwTimeNotBeginGame == 0)

  0013f	83 7d 75 00	 cmp	 DWORD PTR _PersonalRoomOption$[ebp+101], 0
  00143	75 07		 jne	 SHORT $LN11@ModifyPers

; 1220 : 		{
; 1221 : 			PersonalRoomOption.dwTimeNotBeginGame  = 1400;

  00145	c7 45 75 78 05
	00 00		 mov	 DWORD PTR _PersonalRoomOption$[ebp+101], 1400 ; 00000578H
$LN11@ModifyPers:

; 1222 : 		}
; 1223 : 
; 1224 : 		if (PersonalRoomOption.dwTimeAfterCreateRoom == 0)

  0014c	83 7d 79 00	 cmp	 DWORD PTR _PersonalRoomOption$[ebp+105], 0
  00150	75 07		 jne	 SHORT $LN12@ModifyPers

; 1225 : 		{
; 1226 : 			PersonalRoomOption.dwTimeAfterCreateRoom  = 1400;

  00152	c7 45 79 78 05
	00 00		 mov	 DWORD PTR _PersonalRoomOption$[ebp+105], 1400 ; 00000578H
$LN12@ModifyPers:

; 1227 : 		}
; 1228 : 		PlatformDBAide.AddParameter(TEXT("@wTimeAfterBeginCount"),PersonalRoomOption.dwTimeAfterBeginCount);

  00159	6a 01		 push	 1
  0015b	8b 45 6d	 mov	 eax, DWORD PTR _PersonalRoomOption$[ebp+93]
  0015e	50		 push	 eax
  0015f	68 00 00 00 00	 push	 OFFSET ??_C@_0BG@PLKJOLIC@?$EAwTimeAfterBeginCount@
  00164	8d 4d 08	 lea	 ecx, DWORD PTR _PlatformDBAide$[ebp]
  00167	ff 15 00 00 00
	00		 call	 DWORD PTR __imp_?AddParameter@CDataBaseAide@@QAEXPBDKW4ParameterDirectionEnum@ADOCG@@@Z

; 1229 : 		PlatformDBAide.AddParameter(TEXT("@wTimeOffLineCount"),PersonalRoomOption.dwTimeOffLineCount);

  0016d	6a 01		 push	 1
  0016f	8b 45 71	 mov	 eax, DWORD PTR _PersonalRoomOption$[ebp+97]
  00172	50		 push	 eax
  00173	68 00 00 00 00	 push	 OFFSET ??_C@_0BD@GBNNIIBP@?$EAwTimeOffLineCount@
  00178	8d 4d 08	 lea	 ecx, DWORD PTR _PlatformDBAide$[ebp]
  0017b	ff 15 00 00 00
	00		 call	 DWORD PTR __imp_?AddParameter@CDataBaseAide@@QAEXPBDKW4ParameterDirectionEnum@ADOCG@@@Z

; 1230 : 		PlatformDBAide.AddParameter(TEXT("@wTimeNotBeginGame"),PersonalRoomOption.dwTimeNotBeginGame);

  00181	6a 01		 push	 1
  00183	8b 45 75	 mov	 eax, DWORD PTR _PersonalRoomOption$[ebp+101]
  00186	50		 push	 eax
  00187	68 00 00 00 00	 push	 OFFSET ??_C@_0BD@DDANILFF@?$EAwTimeNotBeginGame@
  0018c	8d 4d 08	 lea	 ecx, DWORD PTR _PlatformDBAide$[ebp]
  0018f	ff 15 00 00 00
	00		 call	 DWORD PTR __imp_?AddParameter@CDataBaseAide@@QAEXPBDKW4ParameterDirectionEnum@ADOCG@@@Z

; 1231 : 		PlatformDBAide.AddParameter(TEXT("@wTimeNotBeginAfterCreateRoom"),PersonalRoomOption.dwTimeAfterCreateRoom);

  00195	6a 01		 push	 1
  00197	8b 45 79	 mov	 eax, DWORD PTR _PersonalRoomOption$[ebp+105]
  0019a	50		 push	 eax
  0019b	68 00 00 00 00	 push	 OFFSET ??_C@_0BO@GAPHEMLN@?$EAwTimeNotBeginAfterCreateRoom@
  001a0	8d 4d 08	 lea	 ecx, DWORD PTR _PlatformDBAide$[ebp]
  001a3	ff 15 00 00 00
	00		 call	 DWORD PTR __imp_?AddParameter@CDataBaseAide@@QAEXPBDKW4ParameterDirectionEnum@ADOCG@@@Z

; 1232 : 		PlatformDBAide.AddParameter(TEXT("@cbCreateRight"),PersonalRoomOptionRightAndFee.cbCreateRight);

  001a9	6a 01		 push	 1
  001ab	0f b6 85 84 00
	00 00		 movzx	 eax, BYTE PTR _PersonalRoomOptionRightAndFee$[ebp]
  001b2	50		 push	 eax
  001b3	68 00 00 00 00	 push	 OFFSET ??_C@_0P@GODHDPFL@?$EAcbCreateRight@
  001b8	8d 4d 08	 lea	 ecx, DWORD PTR _PlatformDBAide$[ebp]
  001bb	ff 15 00 00 00
	00		 call	 DWORD PTR __imp_?AddParameter@CDataBaseAide@@QAEXPBDEW4ParameterDirectionEnum@ADOCG@@@Z

; 1233 : 		
; 1234 : 		PlatformDBAide.AddParameter(TEXT("@wBeginFreeTime"), PersonalRoomOption.wBeginFreeTime);

  001c1	6a 01		 push	 1
  001c3	0f b7 45 7d	 movzx	 eax, WORD PTR _PersonalRoomOption$[ebp+109]
  001c7	50		 push	 eax
  001c8	68 00 00 00 00	 push	 OFFSET ??_C@_0BA@LKGDNDNG@?$EAwBeginFreeTime@
  001cd	8d 4d 08	 lea	 ecx, DWORD PTR _PlatformDBAide$[ebp]
  001d0	ff 15 00 00 00
	00		 call	 DWORD PTR __imp_?AddParameter@CDataBaseAide@@QAEXPBDGW4ParameterDirectionEnum@ADOCG@@@Z

; 1235 : 		PlatformDBAide.AddParameter(TEXT("@wEndFreeTime"), PersonalRoomOption.wEndFreeTime);

  001d6	6a 01		 push	 1
  001d8	0f b7 45 7f	 movzx	 eax, WORD PTR _PersonalRoomOption$[ebp+111]
  001dc	50		 push	 eax
  001dd	68 00 00 00 00	 push	 OFFSET ??_C@_0O@MLGGNFBJ@?$EAwEndFreeTime@
  001e2	8d 4d 08	 lea	 ecx, DWORD PTR _PlatformDBAide$[ebp]
  001e5	ff 15 00 00 00
	00		 call	 DWORD PTR __imp_?AddParameter@CDataBaseAide@@QAEXPBDGW4ParameterDirectionEnum@ADOCG@@@Z

; 1236 : 		//输出信息
; 1237 : 		TCHAR szDescribeString[128]=TEXT("");

  001eb	a0 00 00 00 00	 mov	 al, BYTE PTR ??_C@_00CNPNBAHC@@
  001f0	88 85 68 ff ff
	ff		 mov	 BYTE PTR _szDescribeString$12[ebp], al
  001f6	6a 7f		 push	 127			; 0000007fH
  001f8	6a 00		 push	 0
  001fa	8d 85 69 ff ff
	ff		 lea	 eax, DWORD PTR _szDescribeString$12[ebp+1]
  00200	50		 push	 eax
  00201	e8 00 00 00 00	 call	 _memset
  00206	83 c4 0c	 add	 esp, 12			; 0000000cH

; 1238 : 		PlatformDBAide.AddParameterOutput(TEXT("@strErrorDescribe"),szDescribeString,sizeof(szDescribeString),adParamOutput);

  00209	6a 02		 push	 2
  0020b	68 80 00 00 00	 push	 128			; 00000080H
  00210	8d 85 68 ff ff
	ff		 lea	 eax, DWORD PTR _szDescribeString$12[ebp]
  00216	50		 push	 eax
  00217	68 00 00 00 00	 push	 OFFSET ??_C@_0BC@IIOJPJPJ@?$EAstrErrorDescribe@
  0021c	8d 4d 08	 lea	 ecx, DWORD PTR _PlatformDBAide$[ebp]
  0021f	ff 15 00 00 00
	00		 call	 DWORD PTR __imp_?AddParameterOutput@CDataBaseAide@@QAEXPBDPADIW4ParameterDirectionEnum@ADOCG@@@Z

; 1239 : 
; 1240 : 		//执行命令
; 1241 : 		if (PlatformDBAide.ExecuteProcess(TEXT("GSP_GS_ModifyPersonalRoomParameter"),true)!=DB_SUCCESS)

  00225	6a 01		 push	 1
  00227	68 00 00 00 00	 push	 OFFSET ??_C@_0CD@IBOJDKIM@GSP_GS_ModifyPersonalRoomParame@
  0022c	8d 4d 08	 lea	 ecx, DWORD PTR _PlatformDBAide$[ebp]
  0022f	ff 15 00 00 00
	00		 call	 DWORD PTR __imp_?ExecuteProcess@CDataBaseAide@@QAEJPBD_N@Z
  00235	89 85 10 fe ff
	ff		 mov	 DWORD PTR tv449[ebp], eax
  0023b	83 bd 10 fe ff
	ff 00		 cmp	 DWORD PTR tv449[ebp], 0
  00242	74 5e		 je	 SHORT $LN13@ModifyPers

; 1242 : 		{
; 1243 : 			//获取信息
; 1244 : 			PlatformDBAide.GetParameter(TEXT("@strErrorDescribe"),szDescribeString,CountArray(szDescribeString));

  00244	68 80 00 00 00	 push	 128			; 00000080H
  00249	8d 85 68 ff ff
	ff		 lea	 eax, DWORD PTR _szDescribeString$12[ebp]
  0024f	50		 push	 eax
  00250	68 00 00 00 00	 push	 OFFSET ??_C@_0BC@IIOJPJPJ@?$EAstrErrorDescribe@
  00255	8d 4d 08	 lea	 ecx, DWORD PTR _PlatformDBAide$[ebp]
  00258	ff 15 00 00 00
	00		 call	 DWORD PTR __imp_?GetParameter@CDataBaseAide@@QAEXPBDPADI@Z

; 1245 : 
; 1246 : 			//错误提示
; 1247 : 			CTraceService::TraceString(szDescribeString,TraceLevel_Exception);

  0025e	6a 03		 push	 3
  00260	8d 85 68 ff ff
	ff		 lea	 eax, DWORD PTR _szDescribeString$12[ebp]
  00266	50		 push	 eax
  00267	ff 15 00 00 00
	00		 call	 DWORD PTR __imp_?TraceString@CTraceService@@SA_NPBDW4enTraceLevel@@@Z
  0026d	83 c4 08	 add	 esp, 8

; 1248 : 
; 1249 : 			//错误提示
; 1250 : 			AfxMessageBox(szDescribeString,MB_ICONERROR);

  00270	6a 00		 push	 0
  00272	6a 10		 push	 16			; 00000010H
  00274	8d 85 68 ff ff
	ff		 lea	 eax, DWORD PTR _szDescribeString$12[ebp]
  0027a	50		 push	 eax
  0027b	e8 00 00 00 00	 call	 ?AfxMessageBox@@YGHPBDII@Z ; AfxMessageBox

; 1251 : 
; 1252 : 			return false;

  00280	c6 85 17 fe ff
	ff 00		 mov	 BYTE PTR $T5[ebp], 0
  00287	c7 45 fc ff ff
	ff ff		 mov	 DWORD PTR __$EHRec$[ebp+12], -1
  0028e	8d 4d 08	 lea	 ecx, DWORD PTR _PlatformDBAide$[ebp]
  00291	ff 15 00 00 00
	00		 call	 DWORD PTR __imp_??1CDataBaseAide@@UAE@XZ
  00297	8a 85 17 fe ff
	ff		 mov	 al, BYTE PTR $T5[ebp]
  0029d	e9 ba 04 00 00	 jmp	 $LN1@ModifyPers
$LN13@ModifyPers:

; 1253 : 		}
; 1254 : 
; 1255 : 		PlatformDBAide.ResetParameter();

  002a2	8d 4d 08	 lea	 ecx, DWORD PTR _PlatformDBAide$[ebp]
  002a5	ff 15 00 00 00
	00		 call	 DWORD PTR __imp_?ResetParameter@CDataBaseAide@@QAEXXZ

; 1256 : 		PlatformDBAide.AddParameter(TEXT("@wKindID"),dwKindID);

  002ab	6a 01		 push	 1
  002ad	0f b7 85 fc 00
	00 00		 movzx	 eax, WORD PTR _dwKindID$[ebp]
  002b4	50		 push	 eax
  002b5	68 00 00 00 00	 push	 OFFSET ??_C@_08HBBOJKPI@?$EAwKindID@
  002ba	8d 4d 08	 lea	 ecx, DWORD PTR _PlatformDBAide$[ebp]
  002bd	ff 15 00 00 00
	00		 call	 DWORD PTR __imp_?AddParameter@CDataBaseAide@@QAEXPBDGW4ParameterDirectionEnum@ADOCG@@@Z

; 1257 : 		PlatformDBAide.AddParameterOutput(TEXT("@strErrorDescribe"),szDescribeString,sizeof(szDescribeString),adParamOutput);

  002c3	6a 02		 push	 2
  002c5	68 80 00 00 00	 push	 128			; 00000080H
  002ca	8d 85 68 ff ff
	ff		 lea	 eax, DWORD PTR _szDescribeString$12[ebp]
  002d0	50		 push	 eax
  002d1	68 00 00 00 00	 push	 OFFSET ??_C@_0BC@IIOJPJPJ@?$EAstrErrorDescribe@
  002d6	8d 4d 08	 lea	 ecx, DWORD PTR _PlatformDBAide$[ebp]
  002d9	ff 15 00 00 00
	00		 call	 DWORD PTR __imp_?AddParameterOutput@CDataBaseAide@@QAEXPBDPADIW4ParameterDirectionEnum@ADOCG@@@Z

; 1258 : 
; 1259 : 		if (PlatformDBAide.ExecuteProcess(TEXT("GSP_GS_DeletePersonalFeeParameter"),true) ==DB_SUCCESS)

  002df	6a 01		 push	 1
  002e1	68 00 00 00 00	 push	 OFFSET ??_C@_0CC@PJKIIGNE@GSP_GS_DeletePersonalFeeParamet@
  002e6	8d 4d 08	 lea	 ecx, DWORD PTR _PlatformDBAide$[ebp]
  002e9	ff 15 00 00 00
	00		 call	 DWORD PTR __imp_?ExecuteProcess@CDataBaseAide@@QAEJPBD_N@Z
  002ef	89 85 10 fe ff
	ff		 mov	 DWORD PTR tv450[ebp], eax
  002f5	83 bd 10 fe ff
	ff 00		 cmp	 DWORD PTR tv450[ebp], 0
  002fc	0f 85 42 02 00
	00		 jne	 $LN14@ModifyPers

; 1260 : 		{
; 1261 : 			if (PersonalRoomOptionRightAndFee.stCreateRoomPayFee[0].dwPlayTimeLimit == 0 && PersonalRoomOptionRightAndFee.stCreateRoomPayFee[0].dwPlayTurnLimit == 0)

  00302	b8 13 00 00 00	 mov	 eax, 19			; 00000013H
  00307	6b c8 00	 imul	 ecx, eax, 0
  0030a	83 bc 0d 9e 00
	00 00 00	 cmp	 DWORD PTR _PersonalRoomOptionRightAndFee$[ebp+ecx+26], 0
  00312	75 4b		 jne	 SHORT $LN15@ModifyPers
  00314	b8 13 00 00 00	 mov	 eax, 19			; 00000013H
  00319	6b c8 00	 imul	 ecx, eax, 0
  0031c	83 bc 0d 9a 00
	00 00 00	 cmp	 DWORD PTR _PersonalRoomOptionRightAndFee$[ebp+ecx+22], 0
  00324	75 39		 jne	 SHORT $LN15@ModifyPers

; 1262 : 			{
; 1263 : 				PersonalRoomOptionRightAndFee.stCreateRoomPayFee[0].dwPlayTurnLimit = 5;

  00326	b8 13 00 00 00	 mov	 eax, 19			; 00000013H
  0032b	6b c8 00	 imul	 ecx, eax, 0
  0032e	c7 84 0d 9a 00
	00 00 05 00 00
	00		 mov	 DWORD PTR _PersonalRoomOptionRightAndFee$[ebp+ecx+22], 5

; 1264 : 				PersonalRoomOptionRightAndFee.stCreateRoomPayFee[0].dwPayFee = 1;

  00339	b8 13 00 00 00	 mov	 eax, 19			; 00000013H
  0033e	6b c8 00	 imul	 ecx, eax, 0
  00341	c7 84 0d a2 00
	00 00 01 00 00
	00		 mov	 DWORD PTR _PersonalRoomOptionRightAndFee$[ebp+ecx+30], 1

; 1265 : 				PersonalRoomOptionRightAndFee.stCreateRoomPayFee[0].dwIniScore = 1000;

  0034c	b8 13 00 00 00	 mov	 eax, 19			; 00000013H
  00351	6b c8 00	 imul	 ecx, eax, 0
  00354	c7 84 0d a8 00
	00 00 e8 03 00
	00		 mov	 DWORD PTR _PersonalRoomOptionRightAndFee$[ebp+ecx+36], 1000 ; 000003e8H
$LN15@ModifyPers:

; 1266 : 			}
; 1267 : 
; 1268 : 			for (int i = 0; i < FEE_OPTION_COUNT; i++)

  0035f	c7 85 64 ff ff
	ff 00 00 00 00	 mov	 DWORD PTR _i$11[ebp], 0
  00369	eb 0f		 jmp	 SHORT $LN4@ModifyPers
$LN2@ModifyPers:
  0036b	8b 85 64 ff ff
	ff		 mov	 eax, DWORD PTR _i$11[ebp]
  00371	83 c0 01	 add	 eax, 1
  00374	89 85 64 ff ff
	ff		 mov	 DWORD PTR _i$11[ebp], eax
$LN4@ModifyPers:
  0037a	83 bd 64 ff ff
	ff 05		 cmp	 DWORD PTR _i$11[ebp], 5
  00381	0f 8d bd 01 00
	00		 jge	 $LN14@ModifyPers

; 1269 : 			{
; 1270 : 				if (PersonalRoomOptionRightAndFee.stCreateRoomPayFee[i].dwPlayTimeLimit != 0 || PersonalRoomOptionRightAndFee.stCreateRoomPayFee[i].dwPlayTurnLimit != 0)

  00387	6b 85 64 ff ff
	ff 13		 imul	 eax, DWORD PTR _i$11[ebp], 19
  0038e	83 bc 05 9e 00
	00 00 00	 cmp	 DWORD PTR _PersonalRoomOptionRightAndFee$[ebp+eax+26], 0
  00396	75 15		 jne	 SHORT $LN17@ModifyPers
  00398	6b 85 64 ff ff
	ff 13		 imul	 eax, DWORD PTR _i$11[ebp], 19
  0039f	83 bc 05 9a 00
	00 00 00	 cmp	 DWORD PTR _PersonalRoomOptionRightAndFee$[ebp+eax+22], 0
  003a7	0f 84 92 01 00
	00		 je	 $LN16@ModifyPers
$LN17@ModifyPers:

; 1271 : 				{
; 1272 : 					//插入参数
; 1273 : 					PlatformDBAide.ResetParameter();

  003ad	8d 4d 08	 lea	 ecx, DWORD PTR _PlatformDBAide$[ebp]
  003b0	ff 15 00 00 00
	00		 call	 DWORD PTR __imp_?ResetParameter@CDataBaseAide@@QAEXXZ

; 1274 : 					PlatformDBAide.AddParameter(TEXT("@wKindID"),dwKindID);

  003b6	6a 01		 push	 1
  003b8	0f b7 85 fc 00
	00 00		 movzx	 eax, WORD PTR _dwKindID$[ebp]
  003bf	50		 push	 eax
  003c0	68 00 00 00 00	 push	 OFFSET ??_C@_08HBBOJKPI@?$EAwKindID@
  003c5	8d 4d 08	 lea	 ecx, DWORD PTR _PlatformDBAide$[ebp]
  003c8	ff 15 00 00 00
	00		 call	 DWORD PTR __imp_?AddParameter@CDataBaseAide@@QAEXPBDGW4ParameterDirectionEnum@ADOCG@@@Z

; 1275 : 					PlatformDBAide.AddParameter(TEXT("@DrawCountLimit"),PersonalRoomOptionRightAndFee.stCreateRoomPayFee[i].dwPlayTurnLimit );

  003ce	6a 01		 push	 1
  003d0	6b 85 64 ff ff
	ff 13		 imul	 eax, DWORD PTR _i$11[ebp], 19
  003d7	8b 8c 05 9a 00
	00 00		 mov	 ecx, DWORD PTR _PersonalRoomOptionRightAndFee$[ebp+eax+22]
  003de	51		 push	 ecx
  003df	68 00 00 00 00	 push	 OFFSET ??_C@_0BA@NEJOBMJG@?$EADrawCountLimit@
  003e4	8d 4d 08	 lea	 ecx, DWORD PTR _PlatformDBAide$[ebp]
  003e7	ff 15 00 00 00
	00		 call	 DWORD PTR __imp_?AddParameter@CDataBaseAide@@QAEXPBDKW4ParameterDirectionEnum@ADOCG@@@Z

; 1276 : 					PlatformDBAide.AddParameter(TEXT("@DrawTimeLimit"),PersonalRoomOptionRightAndFee.stCreateRoomPayFee[i].dwPlayTimeLimit);

  003ed	6a 01		 push	 1
  003ef	6b 85 64 ff ff
	ff 13		 imul	 eax, DWORD PTR _i$11[ebp], 19
  003f6	8b 8c 05 9e 00
	00 00		 mov	 ecx, DWORD PTR _PersonalRoomOptionRightAndFee$[ebp+eax+26]
  003fd	51		 push	 ecx
  003fe	68 00 00 00 00	 push	 OFFSET ??_C@_0P@PPHKCKBK@?$EADrawTimeLimit@
  00403	8d 4d 08	 lea	 ecx, DWORD PTR _PlatformDBAide$[ebp]
  00406	ff 15 00 00 00
	00		 call	 DWORD PTR __imp_?AddParameter@CDataBaseAide@@QAEXPBDKW4ParameterDirectionEnum@ADOCG@@@Z

; 1277 : 					PlatformDBAide.AddParameter(TEXT("@TableFee"),PersonalRoomOptionRightAndFee.stCreateRoomPayFee[i].dwPayFee);

  0040c	6a 01		 push	 1
  0040e	6b 85 64 ff ff
	ff 13		 imul	 eax, DWORD PTR _i$11[ebp], 19
  00415	8b 8c 05 a2 00
	00 00		 mov	 ecx, DWORD PTR _PersonalRoomOptionRightAndFee$[ebp+eax+30]
  0041c	51		 push	 ecx
  0041d	68 00 00 00 00	 push	 OFFSET ??_C@_09GLBENLGO@?$EATableFee@
  00422	8d 4d 08	 lea	 ecx, DWORD PTR _PlatformDBAide$[ebp]
  00425	ff 15 00 00 00
	00		 call	 DWORD PTR __imp_?AddParameter@CDataBaseAide@@QAEXPBDKW4ParameterDirectionEnum@ADOCG@@@Z

; 1278 : 					PlatformDBAide.AddParameter(TEXT("@AAPayFee"), PersonalRoomOptionRightAndFee.stCreateRoomPayFee[i].wAAPayFee);

  0042b	6a 01		 push	 1
  0042d	6b 85 64 ff ff
	ff 13		 imul	 eax, DWORD PTR _i$11[ebp], 19
  00434	0f b7 8c 05 a6
	00 00 00	 movzx	 ecx, WORD PTR _PersonalRoomOptionRightAndFee$[ebp+eax+34]
  0043c	51		 push	 ecx
  0043d	68 00 00 00 00	 push	 OFFSET ??_C@_09FCEHGDCA@?$EAAAPayFee@
  00442	8d 4d 08	 lea	 ecx, DWORD PTR _PlatformDBAide$[ebp]
  00445	ff 15 00 00 00
	00		 call	 DWORD PTR __imp_?AddParameter@CDataBaseAide@@QAEXPBDGW4ParameterDirectionEnum@ADOCG@@@Z

; 1279 : 					PlatformDBAide.AddParameter(TEXT("@IniScore"),PersonalRoomOptionRightAndFee.stCreateRoomPayFee[i].dwIniScore);

  0044b	6a 01		 push	 1
  0044d	6b 85 64 ff ff
	ff 13		 imul	 eax, DWORD PTR _i$11[ebp], 19
  00454	8b 8c 05 a8 00
	00 00		 mov	 ecx, DWORD PTR _PersonalRoomOptionRightAndFee$[ebp+eax+36]
  0045b	51		 push	 ecx
  0045c	68 00 00 00 00	 push	 OFFSET ??_C@_09FDIDCNIH@?$EAIniScore@
  00461	8d 4d 08	 lea	 ecx, DWORD PTR _PlatformDBAide$[ebp]
  00464	ff 15 00 00 00
	00		 call	 DWORD PTR __imp_?AddParameter@CDataBaseAide@@QAEXPBDKW4ParameterDirectionEnum@ADOCG@@@Z

; 1280 : 					PlatformDBAide.AddParameter(TEXT("@cbGameMode"), PersonalRoomOptionRightAndFee.stCreateRoomPayFee[i].cbGameMode);

  0046a	6a 01		 push	 1
  0046c	6b 85 64 ff ff
	ff 13		 imul	 eax, DWORD PTR _i$11[ebp], 19
  00473	0f b6 8c 05 99
	00 00 00	 movzx	 ecx, BYTE PTR _PersonalRoomOptionRightAndFee$[ebp+eax+21]
  0047b	51		 push	 ecx
  0047c	68 00 00 00 00	 push	 OFFSET ??_C@_0M@CIPFFAIA@?$EAcbGameMode@
  00481	8d 4d 08	 lea	 ecx, DWORD PTR _PlatformDBAide$[ebp]
  00484	ff 15 00 00 00
	00		 call	 DWORD PTR __imp_?AddParameter@CDataBaseAide@@QAEXPBDEW4ParameterDirectionEnum@ADOCG@@@Z

; 1281 : 					//输出信息
; 1282 : 					TCHAR szDescribeString[128]=TEXT("");

  0048a	a0 00 00 00 00	 mov	 al, BYTE PTR ??_C@_00CNPNBAHC@@
  0048f	88 85 e4 fe ff
	ff		 mov	 BYTE PTR _szDescribeString$10[ebp], al
  00495	6a 7f		 push	 127			; 0000007fH
  00497	6a 00		 push	 0
  00499	8d 85 e5 fe ff
	ff		 lea	 eax, DWORD PTR _szDescribeString$10[ebp+1]
  0049f	50		 push	 eax
  004a0	e8 00 00 00 00	 call	 _memset
  004a5	83 c4 0c	 add	 esp, 12			; 0000000cH

; 1283 : 					PlatformDBAide.AddParameterOutput(TEXT("@strErrorDescribe"),szDescribeString,sizeof(szDescribeString),adParamOutput);

  004a8	6a 02		 push	 2
  004aa	68 80 00 00 00	 push	 128			; 00000080H
  004af	8d 85 e4 fe ff
	ff		 lea	 eax, DWORD PTR _szDescribeString$10[ebp]
  004b5	50		 push	 eax
  004b6	68 00 00 00 00	 push	 OFFSET ??_C@_0BC@IIOJPJPJ@?$EAstrErrorDescribe@
  004bb	8d 4d 08	 lea	 ecx, DWORD PTR _PlatformDBAide$[ebp]
  004be	ff 15 00 00 00
	00		 call	 DWORD PTR __imp_?AddParameterOutput@CDataBaseAide@@QAEXPBDPADIW4ParameterDirectionEnum@ADOCG@@@Z

; 1284 : 					//执行命令
; 1285 : 					if (PlatformDBAide.ExecuteProcess(TEXT("GSP_GS_WritePersonalFeeParameter"),true)!=DB_SUCCESS)

  004c4	6a 01		 push	 1
  004c6	68 00 00 00 00	 push	 OFFSET ??_C@_0CB@BGEDMOGM@GSP_GS_WritePersonalFeeParamete@
  004cb	8d 4d 08	 lea	 ecx, DWORD PTR _PlatformDBAide$[ebp]
  004ce	ff 15 00 00 00
	00		 call	 DWORD PTR __imp_?ExecuteProcess@CDataBaseAide@@QAEJPBD_N@Z
  004d4	89 85 10 fe ff
	ff		 mov	 DWORD PTR tv451[ebp], eax
  004da	83 bd 10 fe ff
	ff 00		 cmp	 DWORD PTR tv451[ebp], 0
  004e1	74 5c		 je	 SHORT $LN16@ModifyPers

; 1286 : 					{
; 1287 : 						//获取信息
; 1288 : 						PlatformDBAide.GetParameter(TEXT("@strErrorDescribe"),szDescribeString,CountArray(szDescribeString));

  004e3	68 80 00 00 00	 push	 128			; 00000080H
  004e8	8d 85 e4 fe ff
	ff		 lea	 eax, DWORD PTR _szDescribeString$10[ebp]
  004ee	50		 push	 eax
  004ef	68 00 00 00 00	 push	 OFFSET ??_C@_0BC@IIOJPJPJ@?$EAstrErrorDescribe@
  004f4	8d 4d 08	 lea	 ecx, DWORD PTR _PlatformDBAide$[ebp]
  004f7	ff 15 00 00 00
	00		 call	 DWORD PTR __imp_?GetParameter@CDataBaseAide@@QAEXPBDPADI@Z

; 1289 : 
; 1290 : 						//错误提示
; 1291 : 						CTraceService::TraceString(TEXT("插入游戏费用出错"),TraceLevel_Exception);

  004fd	6a 03		 push	 3
  004ff	68 00 00 00 00	 push	 OFFSET ??_C@_0BB@LABICMHO@?$LC?e?H?k?S?N?O?$LH?$LH?Q?S?C?$LD?v?$LE?m@
  00504	ff 15 00 00 00
	00		 call	 DWORD PTR __imp_?TraceString@CTraceService@@SA_NPBDW4enTraceLevel@@@Z
  0050a	83 c4 08	 add	 esp, 8

; 1292 : 
; 1293 : 						//错误提示
; 1294 : 						AfxMessageBox(szDescribeString,MB_ICONERROR);

  0050d	6a 00		 push	 0
  0050f	6a 10		 push	 16			; 00000010H
  00511	8d 85 e4 fe ff
	ff		 lea	 eax, DWORD PTR _szDescribeString$10[ebp]
  00517	50		 push	 eax
  00518	e8 00 00 00 00	 call	 ?AfxMessageBox@@YGHPBDII@Z ; AfxMessageBox

; 1295 : 
; 1296 : 						return false;

  0051d	c6 85 16 fe ff
	ff 00		 mov	 BYTE PTR $T4[ebp], 0
  00524	c7 45 fc ff ff
	ff ff		 mov	 DWORD PTR __$EHRec$[ebp+12], -1
  0052b	8d 4d 08	 lea	 ecx, DWORD PTR _PlatformDBAide$[ebp]
  0052e	ff 15 00 00 00
	00		 call	 DWORD PTR __imp_??1CDataBaseAide@@UAE@XZ
  00534	8a 85 16 fe ff
	ff		 mov	 al, BYTE PTR $T4[ebp]
  0053a	e9 1d 02 00 00	 jmp	 $LN1@ModifyPers
$LN16@ModifyPers:

; 1297 : 					}
; 1298 : 				}
; 1299 : 			}

  0053f	e9 27 fe ff ff	 jmp	 $LN2@ModifyPers
$LN14@ModifyPers:

; 1300 : 		}
; 1301 : 		
; 1302 : 		//写配置信息
; 1303 : 		WritePersonalRoomInfo(PersonalRoomOption,  PersonalRoomOptionRightAndFee,dwKindID);

  00544	0f b7 85 fc 00
	00 00		 movzx	 eax, WORD PTR _dwKindID$[ebp]
  0054b	50		 push	 eax
  0054c	83 ec 74	 sub	 esp, 116		; 00000074H
  0054f	b9 1d 00 00 00	 mov	 ecx, 29			; 0000001dH
  00554	8d b5 84 00 00
	00		 lea	 esi, DWORD PTR _PersonalRoomOptionRightAndFee$[ebp]
  0055a	8b fc		 mov	 edi, esp
  0055c	f3 a5		 rep movsd
  0055e	83 ec 74	 sub	 esp, 116		; 00000074H
  00561	b9 1c 00 00 00	 mov	 ecx, 28			; 0000001cH
  00566	8d 75 10	 lea	 esi, DWORD PTR _PersonalRoomOption$[ebp]
  00569	8b fc		 mov	 edi, esp
  0056b	f3 a5		 rep movsd
  0056d	a4		 movsb
  0056e	8b 4d e8	 mov	 ecx, DWORD PTR _this$[ebp]
  00571	e8 00 00 00 00	 call	 ?WritePersonalRoomInfo@CServerInfoManager@@QAE_NUtagPersonalRoomOption@@UtagPersonalRoomOptionRightAndFee@@G@Z ; CServerInfoManager::WritePersonalRoomInfo

; 1304 : 		PlatformDBAide.ResetParameter();

  00576	8d 4d 08	 lea	 ecx, DWORD PTR _PlatformDBAide$[ebp]
  00579	ff 15 00 00 00
	00		 call	 DWORD PTR __imp_?ResetParameter@CDataBaseAide@@QAEXXZ

; 1305 : 		PlatformDBAide.AddParameter(TEXT("@wKindID"), dwKindID);

  0057f	6a 01		 push	 1
  00581	0f b7 85 fc 00
	00 00		 movzx	 eax, WORD PTR _dwKindID$[ebp]
  00588	50		 push	 eax
  00589	68 00 00 00 00	 push	 OFFSET ??_C@_08HBBOJKPI@?$EAwKindID@
  0058e	8d 4d 08	 lea	 ecx, DWORD PTR _PlatformDBAide$[ebp]
  00591	ff 15 00 00 00
	00		 call	 DWORD PTR __imp_?AddParameter@CDataBaseAide@@QAEXPBDGW4ParameterDirectionEnum@ADOCG@@@Z

; 1306 : 
; 1307 : 		if (PlatformDBAide.ExecuteProcess(TEXT("GSP_GR_DeletePersonalCellScore"), true) == DB_SUCCESS)

  00597	6a 01		 push	 1
  00599	68 00 00 00 00	 push	 OFFSET ??_C@_0BP@BNMLDPEJ@GSP_GR_DeletePersonalCellScore@
  0059e	8d 4d 08	 lea	 ecx, DWORD PTR _PlatformDBAide$[ebp]
  005a1	ff 15 00 00 00
	00		 call	 DWORD PTR __imp_?ExecuteProcess@CDataBaseAide@@QAEJPBD_N@Z
  005a7	89 85 10 fe ff
	ff		 mov	 DWORD PTR tv452[ebp], eax
  005ad	83 bd 10 fe ff
	ff 00		 cmp	 DWORD PTR tv452[ebp], 0
  005b4	0f 85 32 01 00
	00		 jne	 $LN19@ModifyPers

; 1308 : 		{
; 1309 : 			//写入底分配置
; 1310 : 			for (int i = 0; i < CELLSCORE_COUNT; i++)

  005ba	c7 85 e0 fe ff
	ff 00 00 00 00	 mov	 DWORD PTR _i$9[ebp], 0
  005c4	eb 0f		 jmp	 SHORT $LN7@ModifyPers
$LN5@ModifyPers:
  005c6	8b 85 e0 fe ff
	ff		 mov	 eax, DWORD PTR _i$9[ebp]
  005cc	83 c0 01	 add	 eax, 1
  005cf	89 85 e0 fe ff
	ff		 mov	 DWORD PTR _i$9[ebp], eax
$LN7@ModifyPers:
  005d5	83 bd e0 fe ff
	ff 05		 cmp	 DWORD PTR _i$9[ebp], 5
  005dc	0f 8d 0a 01 00
	00		 jge	 $LN19@ModifyPers

; 1311 : 			{
; 1312 : 				if (PersonalRoomOptionRightAndFee.nCellScore[i] != 0)

  005e2	8b 85 e0 fe ff
	ff		 mov	 eax, DWORD PTR _i$9[ebp]
  005e8	83 bc 85 85 00
	00 00 00	 cmp	 DWORD PTR _PersonalRoomOptionRightAndFee$[ebp+eax*4+1], 0
  005f0	0f 84 f1 00 00
	00		 je	 $LN20@ModifyPers

; 1313 : 				{
; 1314 : 					PlatformDBAide.ResetParameter();

  005f6	8d 4d 08	 lea	 ecx, DWORD PTR _PlatformDBAide$[ebp]
  005f9	ff 15 00 00 00
	00		 call	 DWORD PTR __imp_?ResetParameter@CDataBaseAide@@QAEXXZ

; 1315 : 					PlatformDBAide.AddParameter(TEXT("@wKindID"), dwKindID);

  005ff	6a 01		 push	 1
  00601	0f b7 85 fc 00
	00 00		 movzx	 eax, WORD PTR _dwKindID$[ebp]
  00608	50		 push	 eax
  00609	68 00 00 00 00	 push	 OFFSET ??_C@_08HBBOJKPI@?$EAwKindID@
  0060e	8d 4d 08	 lea	 ecx, DWORD PTR _PlatformDBAide$[ebp]
  00611	ff 15 00 00 00
	00		 call	 DWORD PTR __imp_?AddParameter@CDataBaseAide@@QAEXPBDGW4ParameterDirectionEnum@ADOCG@@@Z

; 1316 : 					PlatformDBAide.AddParameter(TEXT("@lCellScore"), PersonalRoomOptionRightAndFee.nCellScore[i]);

  00617	6a 01		 push	 1
  00619	8b 85 e0 fe ff
	ff		 mov	 eax, DWORD PTR _i$9[ebp]
  0061f	8b 8c 85 85 00
	00 00		 mov	 ecx, DWORD PTR _PersonalRoomOptionRightAndFee$[ebp+eax*4+1]
  00626	51		 push	 ecx
  00627	68 00 00 00 00	 push	 OFFSET ??_C@_0M@DOJONCPP@?$EAlCellScore@
  0062c	8d 4d 08	 lea	 ecx, DWORD PTR _PlatformDBAide$[ebp]
  0062f	ff 15 00 00 00
	00		 call	 DWORD PTR __imp_?AddParameter@CDataBaseAide@@QAEXPBDHW4ParameterDirectionEnum@ADOCG@@@Z

; 1317 : 
; 1318 : 					//输出信息
; 1319 : 					TCHAR szDescribeString[128] = TEXT("");

  00635	a0 00 00 00 00	 mov	 al, BYTE PTR ??_C@_00CNPNBAHC@@
  0063a	88 85 60 fe ff
	ff		 mov	 BYTE PTR _szDescribeString$8[ebp], al
  00640	6a 7f		 push	 127			; 0000007fH
  00642	6a 00		 push	 0
  00644	8d 85 61 fe ff
	ff		 lea	 eax, DWORD PTR _szDescribeString$8[ebp+1]
  0064a	50		 push	 eax
  0064b	e8 00 00 00 00	 call	 _memset
  00650	83 c4 0c	 add	 esp, 12			; 0000000cH

; 1320 : 					PlatformDBAide.AddParameterOutput(TEXT("@strErrorDescribe"), szDescribeString, sizeof(szDescribeString), adParamOutput);

  00653	6a 02		 push	 2
  00655	68 80 00 00 00	 push	 128			; 00000080H
  0065a	8d 85 60 fe ff
	ff		 lea	 eax, DWORD PTR _szDescribeString$8[ebp]
  00660	50		 push	 eax
  00661	68 00 00 00 00	 push	 OFFSET ??_C@_0BC@IIOJPJPJ@?$EAstrErrorDescribe@
  00666	8d 4d 08	 lea	 ecx, DWORD PTR _PlatformDBAide$[ebp]
  00669	ff 15 00 00 00
	00		 call	 DWORD PTR __imp_?AddParameterOutput@CDataBaseAide@@QAEXPBDPADIW4ParameterDirectionEnum@ADOCG@@@Z

; 1321 : 
; 1322 : 					//执行命令
; 1323 : 					if (PlatformDBAide.ExecuteProcess(TEXT("GSP_GR_InsertPersonalCellScore"), true) != DB_SUCCESS)

  0066f	6a 01		 push	 1
  00671	68 00 00 00 00	 push	 OFFSET ??_C@_0BP@GEFHPGBC@GSP_GR_InsertPersonalCellScore@
  00676	8d 4d 08	 lea	 ecx, DWORD PTR _PlatformDBAide$[ebp]
  00679	ff 15 00 00 00
	00		 call	 DWORD PTR __imp_?ExecuteProcess@CDataBaseAide@@QAEJPBD_N@Z
  0067f	89 85 10 fe ff
	ff		 mov	 DWORD PTR tv453[ebp], eax
  00685	83 bd 10 fe ff
	ff 00		 cmp	 DWORD PTR tv453[ebp], 0
  0068c	74 59		 je	 SHORT $LN20@ModifyPers

; 1324 : 					{
; 1325 : 						//获取信息
; 1326 : 						PlatformDBAide.GetParameter(TEXT("@strErrorDescribe"), szDescribeString, CountArray(szDescribeString));

  0068e	68 80 00 00 00	 push	 128			; 00000080H
  00693	8d 85 60 fe ff
	ff		 lea	 eax, DWORD PTR _szDescribeString$8[ebp]
  00699	50		 push	 eax
  0069a	68 00 00 00 00	 push	 OFFSET ??_C@_0BC@IIOJPJPJ@?$EAstrErrorDescribe@
  0069f	8d 4d 08	 lea	 ecx, DWORD PTR _PlatformDBAide$[ebp]
  006a2	ff 15 00 00 00
	00		 call	 DWORD PTR __imp_?GetParameter@CDataBaseAide@@QAEXPBDPADI@Z

; 1327 : 
; 1328 : 						//错误提示
; 1329 : 						CTraceService::TraceString(TEXT("插入游戏底分出错"), TraceLevel_Exception);

  006a8	6a 03		 push	 3
  006aa	68 00 00 00 00	 push	 OFFSET ??_C@_0BB@HEGDPGKB@?$LC?e?H?k?S?N?O?$LH?$LF?W?$LH?V?$LD?v?$LE?m@
  006af	ff 15 00 00 00
	00		 call	 DWORD PTR __imp_?TraceString@CTraceService@@SA_NPBDW4enTraceLevel@@@Z
  006b5	83 c4 08	 add	 esp, 8

; 1330 : 
; 1331 : 						//错误提示
; 1332 : 						AfxMessageBox(szDescribeString, MB_ICONERROR);

  006b8	6a 00		 push	 0
  006ba	6a 10		 push	 16			; 00000010H
  006bc	8d 85 60 fe ff
	ff		 lea	 eax, DWORD PTR _szDescribeString$8[ebp]
  006c2	50		 push	 eax
  006c3	e8 00 00 00 00	 call	 ?AfxMessageBox@@YGHPBDII@Z ; AfxMessageBox

; 1333 : 
; 1334 : 						return false;

  006c8	c6 85 15 fe ff
	ff 00		 mov	 BYTE PTR $T3[ebp], 0
  006cf	c7 45 fc ff ff
	ff ff		 mov	 DWORD PTR __$EHRec$[ebp+12], -1
  006d6	8d 4d 08	 lea	 ecx, DWORD PTR _PlatformDBAide$[ebp]
  006d9	ff 15 00 00 00
	00		 call	 DWORD PTR __imp_??1CDataBaseAide@@UAE@XZ
  006df	8a 85 15 fe ff
	ff		 mov	 al, BYTE PTR $T3[ebp]
  006e5	eb 75		 jmp	 SHORT $LN1@ModifyPers
$LN20@ModifyPers:

; 1335 : 					}
; 1336 : 				}
; 1337 : 
; 1338 : 			}

  006e7	e9 da fe ff ff	 jmp	 $LN5@ModifyPers
$LN19@ModifyPers:

; 1339 : 		}
; 1340 : 
; 1341 : 
; 1342 : 	}

  006ec	eb 41		 jmp	 SHORT $LN23@ModifyPers
__catch$?ModifyPersonalRoomParameter@CServerInfoManager@@QAE_NVCDataBaseAide@@UtagPersonalRoomOption@@UtagPersonalRoomOptionRightAndFee@@GG@Z$0:

; 1343 : 	catch (IDataBaseException * pIException)
; 1344 : 	{
; 1345 : 		//错误信息
; 1346 : 		LPCTSTR pszDescribe=pIException->GetExceptionDescribe();

  006ee	8b 85 5c fe ff
	ff		 mov	 eax, DWORD PTR _pIException$7[ebp]
  006f4	8b 10		 mov	 edx, DWORD PTR [eax]
  006f6	8b 8d 5c fe ff
	ff		 mov	 ecx, DWORD PTR _pIException$7[ebp]
  006fc	8b 42 0c	 mov	 eax, DWORD PTR [edx+12]
  006ff	ff d0		 call	 eax
  00701	89 85 58 fe ff
	ff		 mov	 DWORD PTR _pszDescribe$6[ebp], eax

; 1347 : 		CTraceService::TraceString(pszDescribe,TraceLevel_Exception);

  00707	6a 03		 push	 3
  00709	8b 85 58 fe ff
	ff		 mov	 eax, DWORD PTR _pszDescribe$6[ebp]
  0070f	50		 push	 eax
  00710	ff 15 00 00 00
	00		 call	 DWORD PTR __imp_?TraceString@CTraceService@@SA_NPBDW4enTraceLevel@@@Z
  00716	83 c4 08	 add	 esp, 8

; 1348 : 
; 1349 : 		//错误提示
; 1350 : 		AfxMessageBox(pszDescribe,MB_ICONERROR);

  00719	6a 00		 push	 0
  0071b	6a 10		 push	 16			; 00000010H
  0071d	8b 85 58 fe ff
	ff		 mov	 eax, DWORD PTR _pszDescribe$6[ebp]
  00723	50		 push	 eax
  00724	e8 00 00 00 00	 call	 ?AfxMessageBox@@YGHPBDII@Z ; AfxMessageBox

; 1351 : 	}

  00729	b8 00 00 00 00	 mov	 eax, $LN27@ModifyPers
  0072e	c3		 ret	 0
$LN23@ModifyPers:
  0072f	c7 45 fc 00 00
	00 00		 mov	 DWORD PTR __$EHRec$[ebp+12], 0
  00736	eb 07		 jmp	 SHORT __tryend$?ModifyPersonalRoomParameter@CServerInfoManager@@QAE_NVCDataBaseAide@@UtagPersonalRoomOption@@UtagPersonalRoomOptionRightAndFee@@GG@Z$1
$LN27@ModifyPers:
  00738	c7 45 fc 00 00
	00 00		 mov	 DWORD PTR __$EHRec$[ebp+12], 0
__tryend$?ModifyPersonalRoomParameter@CServerInfoManager@@QAE_NVCDataBaseAide@@UtagPersonalRoomOption@@UtagPersonalRoomOptionRightAndFee@@GG@Z$1:

; 1352 : 	return true;

  0073f	c6 85 14 fe ff
	ff 01		 mov	 BYTE PTR $T2[ebp], 1
  00746	c7 45 fc ff ff
	ff ff		 mov	 DWORD PTR __$EHRec$[ebp+12], -1
  0074d	8d 4d 08	 lea	 ecx, DWORD PTR _PlatformDBAide$[ebp]
  00750	ff 15 00 00 00
	00		 call	 DWORD PTR __imp_??1CDataBaseAide@@UAE@XZ
  00756	8a 85 14 fe ff
	ff		 mov	 al, BYTE PTR $T2[ebp]
$LN1@ModifyPers:

; 1353 : }

  0075c	8b 4d f4	 mov	 ecx, DWORD PTR __$EHRec$[ebp+4]
  0075f	64 89 0d 00 00
	00 00		 mov	 DWORD PTR fs:0, ecx
  00766	59		 pop	 ecx
  00767	5f		 pop	 edi
  00768	5e		 pop	 esi
  00769	5b		 pop	 ebx
  0076a	8b 4d ec	 mov	 ecx, DWORD PTR __$ArrayPad$[ebp]
  0076d	33 cd		 xor	 ecx, ebp
  0076f	e8 00 00 00 00	 call	 @__security_check_cookie@4
  00774	8b e5		 mov	 esp, ebp
  00776	5d		 pop	 ebp
  00777	c2 f8 00	 ret	 248			; 000000f8H
_TEXT	ENDS
;	COMDAT text$x
text$x	SEGMENT
__unwindfunclet$?ModifyPersonalRoomParameter@CServerInfoManager@@QAE_NVCDataBaseAide@@UtagPersonalRoomOption@@UtagPersonalRoomOptionRightAndFee@@GG@Z$2:
  00000	8d 4d 08	 lea	 ecx, DWORD PTR _PlatformDBAide$[ebp]
  00003	ff 25 00 00 00
	00		 jmp	 DWORD PTR __imp_??1CDataBaseAide@@UAE@XZ
__ehhandler$?ModifyPersonalRoomParameter@CServerInfoManager@@QAE_NVCDataBaseAide@@UtagPersonalRoomOption@@UtagPersonalRoomOptionRightAndFee@@GG@Z:
  00009	8b 54 24 08	 mov	 edx, DWORD PTR [esp+8]
  0000d	8d 42 0c	 lea	 eax, DWORD PTR [edx+12]
  00010	8b 8a 0c fe ff
	ff		 mov	 ecx, DWORD PTR [edx-500]
  00016	33 c8		 xor	 ecx, eax
  00018	e8 00 00 00 00	 call	 @__security_check_cookie@4
  0001d	8b 4a f8	 mov	 ecx, DWORD PTR [edx-8]
  00020	33 c8		 xor	 ecx, eax
  00022	e8 00 00 00 00	 call	 @__security_check_cookie@4
  00027	b8 00 00 00 00	 mov	 eax, OFFSET __ehfuncinfo$?ModifyPersonalRoomParameter@CServerInfoManager@@QAE_NVCDataBaseAide@@UtagPersonalRoomOption@@UtagPersonalRoomOptionRightAndFee@@GG@Z
  0002c	e9 00 00 00 00	 jmp	 ___CxxFrameHandler3
text$x	ENDS
?ModifyPersonalRoomParameter@CServerInfoManager@@QAE_NVCDataBaseAide@@UtagPersonalRoomOption@@UtagPersonalRoomOptionRightAndFee@@GG@Z ENDP ; CServerInfoManager::ModifyPersonalRoomParameter
; Function compile flags: /Odtp /ZI
; File g:\网狐\happygamewh\服务端\系统模块\服务器组件\模块管理\serverinfomanager.cpp
;	COMDAT ?InsertPersonalRoomParameter@CServerInfoManager@@QAE_NVCDataBaseAide@@UtagPersonalRoomOption@@UtagPersonalRoomOptionRightAndFee@@GG@Z
_TEXT	SEGMENT
tv453 = -496						; size = 4
tv452 = -496						; size = 4
tv451 = -496						; size = 4
tv450 = -496						; size = 4
$T2 = -492						; size = 1
$T3 = -491						; size = 1
$T4 = -490						; size = 1
$T5 = -489						; size = 1
_pszDescribe$6 = -424					; size = 4
_pIException$7 = -420					; size = 4
_szDescribeString$8 = -416				; size = 128
_i$9 = -288						; size = 4
_szDescribeString$10 = -284				; size = 128
_i$11 = -156						; size = 4
_szDescribeString$12 = -152				; size = 128
_this$ = -24						; size = 4
__$ArrayPad$ = -20					; size = 4
__$EHRec$ = -16						; size = 16
_PlatformDBAide$ = 8					; size = 8
_PersonalRoomOption$ = 16				; size = 113
_PersonalRoomOptionRightAndFee$ = 132			; size = 116
_dwServerID$ = 248					; size = 2
_dwKindID$ = 252					; size = 2
?InsertPersonalRoomParameter@CServerInfoManager@@QAE_NVCDataBaseAide@@UtagPersonalRoomOption@@UtagPersonalRoomOptionRightAndFee@@GG@Z PROC ; CServerInfoManager::InsertPersonalRoomParameter, COMDAT
; _this$ = ecx

; 1019 : {

  00000	55		 push	 ebp
  00001	8b ec		 mov	 ebp, esp
  00003	6a ff		 push	 -1
  00005	68 00 00 00 00	 push	 __ehhandler$?InsertPersonalRoomParameter@CServerInfoManager@@QAE_NVCDataBaseAide@@UtagPersonalRoomOption@@UtagPersonalRoomOptionRightAndFee@@GG@Z
  0000a	64 a1 00 00 00
	00		 mov	 eax, DWORD PTR fs:0
  00010	50		 push	 eax
  00011	51		 push	 ecx
  00012	81 ec e0 01 00
	00		 sub	 esp, 480		; 000001e0H
  00018	a1 00 00 00 00	 mov	 eax, DWORD PTR ___security_cookie
  0001d	33 c5		 xor	 eax, ebp
  0001f	89 45 ec	 mov	 DWORD PTR __$ArrayPad$[ebp], eax
  00022	53		 push	 ebx
  00023	56		 push	 esi
  00024	57		 push	 edi
  00025	50		 push	 eax
  00026	8d 45 f4	 lea	 eax, DWORD PTR __$EHRec$[ebp+4]
  00029	64 a3 00 00 00
	00		 mov	 DWORD PTR fs:0, eax
  0002f	89 65 f0	 mov	 DWORD PTR __$EHRec$[ebp], esp
  00032	89 4d e8	 mov	 DWORD PTR _this$[ebp], ecx
  00035	c7 45 fc 00 00
	00 00		 mov	 DWORD PTR __$EHRec$[ebp+12], 0

; 1020 : 	try

  0003c	c6 45 fc 01	 mov	 BYTE PTR __$EHRec$[ebp+12], 1

; 1021 : 	{
; 1022 : 		//插入参数
; 1023 : 		PlatformDBAide.ResetParameter();

  00040	8d 4d 08	 lea	 ecx, DWORD PTR _PlatformDBAide$[ebp]
  00043	ff 15 00 00 00
	00		 call	 DWORD PTR __imp_?ResetParameter@CDataBaseAide@@QAEXXZ

; 1024 : 		PlatformDBAide.AddParameter(TEXT("@wServerID"),dwServerID);

  00049	6a 01		 push	 1
  0004b	0f b7 85 f8 00
	00 00		 movzx	 eax, WORD PTR _dwServerID$[ebp]
  00052	50		 push	 eax
  00053	68 00 00 00 00	 push	 OFFSET ??_C@_0L@FIEHJJML@?$EAwServerID@
  00058	8d 4d 08	 lea	 ecx, DWORD PTR _PlatformDBAide$[ebp]
  0005b	ff 15 00 00 00
	00		 call	 DWORD PTR __imp_?AddParameter@CDataBaseAide@@QAEXPBDGW4ParameterDirectionEnum@ADOCG@@@Z

; 1025 : 		PlatformDBAide.AddParameter(TEXT("@wKindID"),dwKindID);		

  00061	6a 01		 push	 1
  00063	0f b7 85 fc 00
	00 00		 movzx	 eax, WORD PTR _dwKindID$[ebp]
  0006a	50		 push	 eax
  0006b	68 00 00 00 00	 push	 OFFSET ??_C@_08HBBOJKPI@?$EAwKindID@
  00070	8d 4d 08	 lea	 ecx, DWORD PTR _PlatformDBAide$[ebp]
  00073	ff 15 00 00 00
	00		 call	 DWORD PTR __imp_?AddParameter@CDataBaseAide@@QAEXPBDGW4ParameterDirectionEnum@ADOCG@@@Z

; 1026 : 		//PlatformDBAide.AddParameter(TEXT("@lDiamondCount"),PersonalRoomOption.lFeeCardOrBeanCount);
; 1027 : 		PlatformDBAide.AddParameter(TEXT("@cbIsJoinGame"),PersonalRoomOption.cbIsJoinGame);		

  00079	6a 01		 push	 1
  0007b	0f b6 45 10	 movzx	 eax, BYTE PTR _PersonalRoomOption$[ebp]
  0007f	50		 push	 eax
  00080	68 00 00 00 00	 push	 OFFSET ??_C@_0O@PHLNKDAD@?$EAcbIsJoinGame@
  00085	8d 4d 08	 lea	 ecx, DWORD PTR _PlatformDBAide$[ebp]
  00088	ff 15 00 00 00
	00		 call	 DWORD PTR __imp_?AddParameter@CDataBaseAide@@QAEXPBDEW4ParameterDirectionEnum@ADOCG@@@Z

; 1028 : 		PlatformDBAide.AddParameter(TEXT("@cbMinPeople"),PersonalRoomOption.cbMinPeople);

  0008e	6a 01		 push	 1
  00090	0f b6 45 11	 movzx	 eax, BYTE PTR _PersonalRoomOption$[ebp+1]
  00094	50		 push	 eax
  00095	68 00 00 00 00	 push	 OFFSET ??_C@_0N@BGGBCKEJ@?$EAcbMinPeople@
  0009a	8d 4d 08	 lea	 ecx, DWORD PTR _PlatformDBAide$[ebp]
  0009d	ff 15 00 00 00
	00		 call	 DWORD PTR __imp_?AddParameter@CDataBaseAide@@QAEXPBDEW4ParameterDirectionEnum@ADOCG@@@Z

; 1029 : 		PlatformDBAide.AddParameter(TEXT("@cbMaxPeople"),PersonalRoomOption.cbMaxPeople);

  000a3	6a 01		 push	 1
  000a5	0f b6 45 12	 movzx	 eax, BYTE PTR _PersonalRoomOption$[ebp+2]
  000a9	50		 push	 eax
  000aa	68 00 00 00 00	 push	 OFFSET ??_C@_0N@BHGNLAPN@?$EAcbMaxPeople@
  000af	8d 4d 08	 lea	 ecx, DWORD PTR _PlatformDBAide$[ebp]
  000b2	ff 15 00 00 00
	00		 call	 DWORD PTR __imp_?AddParameter@CDataBaseAide@@QAEXPBDEW4ParameterDirectionEnum@ADOCG@@@Z

; 1030 : 		PlatformDBAide.AddParameter(TEXT("@lPersonalRoomTax"),PersonalRoomOption.lPersonalRoomTax);

  000b8	6a 01		 push	 1
  000ba	8b 45 1f	 mov	 eax, DWORD PTR _PersonalRoomOption$[ebp+15]
  000bd	50		 push	 eax
  000be	8b 4d 1b	 mov	 ecx, DWORD PTR _PersonalRoomOption$[ebp+11]
  000c1	51		 push	 ecx
  000c2	68 00 00 00 00	 push	 OFFSET ??_C@_0BC@LFDMHEEC@?$EAlPersonalRoomTax@
  000c7	8d 4d 08	 lea	 ecx, DWORD PTR _PlatformDBAide$[ebp]
  000ca	ff 15 00 00 00
	00		 call	 DWORD PTR __imp_?AddParameter@CDataBaseAide@@QAEXPBD_JW4ParameterDirectionEnum@ADOCG@@@Z

; 1031 : 		PlatformDBAide.AddParameter(TEXT("@lMaxCellScore"),PersonalRoomOption.lMaxCellScore);

  000d0	6a 01		 push	 1
  000d2	8b 45 17	 mov	 eax, DWORD PTR _PersonalRoomOption$[ebp+7]
  000d5	50		 push	 eax
  000d6	8b 4d 13	 mov	 ecx, DWORD PTR _PersonalRoomOption$[ebp+3]
  000d9	51		 push	 ecx
  000da	68 00 00 00 00	 push	 OFFSET ??_C@_0P@JJFBKDAF@?$EAlMaxCellScore@
  000df	8d 4d 08	 lea	 ecx, DWORD PTR _PlatformDBAide$[ebp]
  000e2	ff 15 00 00 00
	00		 call	 DWORD PTR __imp_?AddParameter@CDataBaseAide@@QAEXPBD_JW4ParameterDirectionEnum@ADOCG@@@Z

; 1032 : 		PlatformDBAide.AddParameter(TEXT("@wCanCreateCount"),PersonalRoomOption.wCanCreateCount);

  000e8	6a 01		 push	 1
  000ea	0f b7 45 63	 movzx	 eax, WORD PTR _PersonalRoomOption$[ebp+83]
  000ee	50		 push	 eax
  000ef	68 00 00 00 00	 push	 OFFSET ??_C@_0BB@NMCMDDIO@?$EAwCanCreateCount@
  000f4	8d 4d 08	 lea	 ecx, DWORD PTR _PlatformDBAide$[ebp]
  000f7	ff 15 00 00 00
	00		 call	 DWORD PTR __imp_?AddParameter@CDataBaseAide@@QAEXPBDGW4ParameterDirectionEnum@ADOCG@@@Z

; 1033 : 		PlatformDBAide.AddParameter(TEXT("@wPlayTurnCount"),PersonalRoomOption.dwPlayTurnCount);

  000fd	6a 01		 push	 1
  000ff	8b 45 65	 mov	 eax, DWORD PTR _PersonalRoomOption$[ebp+85]
  00102	50		 push	 eax
  00103	68 00 00 00 00	 push	 OFFSET ??_C@_0BA@NNNPOABK@?$EAwPlayTurnCount@
  00108	8d 4d 08	 lea	 ecx, DWORD PTR _PlatformDBAide$[ebp]
  0010b	ff 15 00 00 00
	00		 call	 DWORD PTR __imp_?AddParameter@CDataBaseAide@@QAEXPBDKW4ParameterDirectionEnum@ADOCG@@@Z

; 1034 : 		PlatformDBAide.AddParameter(TEXT("@wPlayTimeLimit"),PersonalRoomOption.dwPlayTimeLimit);

  00111	6a 01		 push	 1
  00113	8b 45 69	 mov	 eax, DWORD PTR _PersonalRoomOption$[ebp+89]
  00116	50		 push	 eax
  00117	68 00 00 00 00	 push	 OFFSET ??_C@_0BA@NOEDAIIC@?$EAwPlayTimeLimit@
  0011c	8d 4d 08	 lea	 ecx, DWORD PTR _PlatformDBAide$[ebp]
  0011f	ff 15 00 00 00
	00		 call	 DWORD PTR __imp_?AddParameter@CDataBaseAide@@QAEXPBDKW4ParameterDirectionEnum@ADOCG@@@Z

; 1035 : 		if (PersonalRoomOption.dwTimeAfterBeginCount == 0)

  00125	83 7d 6d 00	 cmp	 DWORD PTR _PersonalRoomOption$[ebp+93], 0
  00129	75 07		 jne	 SHORT $LN9@InsertPers

; 1036 : 		{
; 1037 : 			PersonalRoomOption.dwTimeAfterBeginCount  = 120;

  0012b	c7 45 6d 78 00
	00 00		 mov	 DWORD PTR _PersonalRoomOption$[ebp+93], 120 ; 00000078H
$LN9@InsertPers:

; 1038 : 		}
; 1039 : 
; 1040 : 		if (PersonalRoomOption.dwTimeOffLineCount == 0)

  00132	83 7d 71 00	 cmp	 DWORD PTR _PersonalRoomOption$[ebp+97], 0
  00136	75 07		 jne	 SHORT $LN10@InsertPers

; 1041 : 		{
; 1042 : 			PersonalRoomOption.dwTimeOffLineCount = 120;

  00138	c7 45 71 78 00
	00 00		 mov	 DWORD PTR _PersonalRoomOption$[ebp+97], 120 ; 00000078H
$LN10@InsertPers:

; 1043 : 		}
; 1044 : 
; 1045 : 		if (PersonalRoomOption.dwTimeNotBeginGame == 0)

  0013f	83 7d 75 00	 cmp	 DWORD PTR _PersonalRoomOption$[ebp+101], 0
  00143	75 07		 jne	 SHORT $LN11@InsertPers

; 1046 : 		{
; 1047 : 			PersonalRoomOption.dwTimeNotBeginGame = 120;

  00145	c7 45 75 78 00
	00 00		 mov	 DWORD PTR _PersonalRoomOption$[ebp+101], 120 ; 00000078H
$LN11@InsertPers:

; 1048 : 		}
; 1049 : 
; 1050 : 		if (PersonalRoomOption.dwTimeAfterCreateRoom == 0)

  0014c	83 7d 79 00	 cmp	 DWORD PTR _PersonalRoomOption$[ebp+105], 0
  00150	75 07		 jne	 SHORT $LN12@InsertPers

; 1051 : 		{
; 1052 : 			PersonalRoomOption.dwTimeAfterCreateRoom = 120;

  00152	c7 45 79 78 00
	00 00		 mov	 DWORD PTR _PersonalRoomOption$[ebp+105], 120 ; 00000078H
$LN12@InsertPers:

; 1053 : 		}
; 1054 : 
; 1055 : 		PlatformDBAide.AddParameter(TEXT("@wTimeAfterBeginCount"),PersonalRoomOption.dwTimeAfterBeginCount);

  00159	6a 01		 push	 1
  0015b	8b 45 6d	 mov	 eax, DWORD PTR _PersonalRoomOption$[ebp+93]
  0015e	50		 push	 eax
  0015f	68 00 00 00 00	 push	 OFFSET ??_C@_0BG@PLKJOLIC@?$EAwTimeAfterBeginCount@
  00164	8d 4d 08	 lea	 ecx, DWORD PTR _PlatformDBAide$[ebp]
  00167	ff 15 00 00 00
	00		 call	 DWORD PTR __imp_?AddParameter@CDataBaseAide@@QAEXPBDKW4ParameterDirectionEnum@ADOCG@@@Z

; 1056 : 		PlatformDBAide.AddParameter(TEXT("@wTimeOffLineCount"),PersonalRoomOption.dwTimeOffLineCount);

  0016d	6a 01		 push	 1
  0016f	8b 45 71	 mov	 eax, DWORD PTR _PersonalRoomOption$[ebp+97]
  00172	50		 push	 eax
  00173	68 00 00 00 00	 push	 OFFSET ??_C@_0BD@GBNNIIBP@?$EAwTimeOffLineCount@
  00178	8d 4d 08	 lea	 ecx, DWORD PTR _PlatformDBAide$[ebp]
  0017b	ff 15 00 00 00
	00		 call	 DWORD PTR __imp_?AddParameter@CDataBaseAide@@QAEXPBDKW4ParameterDirectionEnum@ADOCG@@@Z

; 1057 : 		PlatformDBAide.AddParameter(TEXT("@wTimeNotBeginGame"),PersonalRoomOption.dwTimeNotBeginGame);

  00181	6a 01		 push	 1
  00183	8b 45 75	 mov	 eax, DWORD PTR _PersonalRoomOption$[ebp+101]
  00186	50		 push	 eax
  00187	68 00 00 00 00	 push	 OFFSET ??_C@_0BD@DDANILFF@?$EAwTimeNotBeginGame@
  0018c	8d 4d 08	 lea	 ecx, DWORD PTR _PlatformDBAide$[ebp]
  0018f	ff 15 00 00 00
	00		 call	 DWORD PTR __imp_?AddParameter@CDataBaseAide@@QAEXPBDKW4ParameterDirectionEnum@ADOCG@@@Z

; 1058 : 		PlatformDBAide.AddParameter(TEXT("@wTimeNotBeginAfterCreateRoom"),PersonalRoomOption.dwTimeAfterCreateRoom);

  00195	6a 01		 push	 1
  00197	8b 45 79	 mov	 eax, DWORD PTR _PersonalRoomOption$[ebp+105]
  0019a	50		 push	 eax
  0019b	68 00 00 00 00	 push	 OFFSET ??_C@_0BO@GAPHEMLN@?$EAwTimeNotBeginAfterCreateRoom@
  001a0	8d 4d 08	 lea	 ecx, DWORD PTR _PlatformDBAide$[ebp]
  001a3	ff 15 00 00 00
	00		 call	 DWORD PTR __imp_?AddParameter@CDataBaseAide@@QAEXPBDKW4ParameterDirectionEnum@ADOCG@@@Z

; 1059 : 		PlatformDBAide.AddParameter(TEXT("@cbCreateRight"),PersonalRoomOptionRightAndFee.cbCreateRight);

  001a9	6a 01		 push	 1
  001ab	0f b6 85 84 00
	00 00		 movzx	 eax, BYTE PTR _PersonalRoomOptionRightAndFee$[ebp]
  001b2	50		 push	 eax
  001b3	68 00 00 00 00	 push	 OFFSET ??_C@_0P@GODHDPFL@?$EAcbCreateRight@
  001b8	8d 4d 08	 lea	 ecx, DWORD PTR _PlatformDBAide$[ebp]
  001bb	ff 15 00 00 00
	00		 call	 DWORD PTR __imp_?AddParameter@CDataBaseAide@@QAEXPBDEW4ParameterDirectionEnum@ADOCG@@@Z

; 1060 : 		
; 1061 : 		PlatformDBAide.AddParameter(TEXT("@wBeginFreeTime"), PersonalRoomOption.wBeginFreeTime);

  001c1	6a 01		 push	 1
  001c3	0f b7 45 7d	 movzx	 eax, WORD PTR _PersonalRoomOption$[ebp+109]
  001c7	50		 push	 eax
  001c8	68 00 00 00 00	 push	 OFFSET ??_C@_0BA@LKGDNDNG@?$EAwBeginFreeTime@
  001cd	8d 4d 08	 lea	 ecx, DWORD PTR _PlatformDBAide$[ebp]
  001d0	ff 15 00 00 00
	00		 call	 DWORD PTR __imp_?AddParameter@CDataBaseAide@@QAEXPBDGW4ParameterDirectionEnum@ADOCG@@@Z

; 1062 : 		PlatformDBAide.AddParameter(TEXT("@wEndFreeTime"), PersonalRoomOption.wEndFreeTime);

  001d6	6a 01		 push	 1
  001d8	0f b7 45 7f	 movzx	 eax, WORD PTR _PersonalRoomOption$[ebp+111]
  001dc	50		 push	 eax
  001dd	68 00 00 00 00	 push	 OFFSET ??_C@_0O@MLGGNFBJ@?$EAwEndFreeTime@
  001e2	8d 4d 08	 lea	 ecx, DWORD PTR _PlatformDBAide$[ebp]
  001e5	ff 15 00 00 00
	00		 call	 DWORD PTR __imp_?AddParameter@CDataBaseAide@@QAEXPBDGW4ParameterDirectionEnum@ADOCG@@@Z

; 1063 : 
; 1064 : 		//输出信息
; 1065 : 		TCHAR szDescribeString[128]=TEXT("");

  001eb	a0 00 00 00 00	 mov	 al, BYTE PTR ??_C@_00CNPNBAHC@@
  001f0	88 85 68 ff ff
	ff		 mov	 BYTE PTR _szDescribeString$12[ebp], al
  001f6	6a 7f		 push	 127			; 0000007fH
  001f8	6a 00		 push	 0
  001fa	8d 85 69 ff ff
	ff		 lea	 eax, DWORD PTR _szDescribeString$12[ebp+1]
  00200	50		 push	 eax
  00201	e8 00 00 00 00	 call	 _memset
  00206	83 c4 0c	 add	 esp, 12			; 0000000cH

; 1066 : 		PlatformDBAide.AddParameterOutput(TEXT("@strErrorDescribe"),szDescribeString,sizeof(szDescribeString),adParamOutput);

  00209	6a 02		 push	 2
  0020b	68 80 00 00 00	 push	 128			; 00000080H
  00210	8d 85 68 ff ff
	ff		 lea	 eax, DWORD PTR _szDescribeString$12[ebp]
  00216	50		 push	 eax
  00217	68 00 00 00 00	 push	 OFFSET ??_C@_0BC@IIOJPJPJ@?$EAstrErrorDescribe@
  0021c	8d 4d 08	 lea	 ecx, DWORD PTR _PlatformDBAide$[ebp]
  0021f	ff 15 00 00 00
	00		 call	 DWORD PTR __imp_?AddParameterOutput@CDataBaseAide@@QAEXPBDPADIW4ParameterDirectionEnum@ADOCG@@@Z

; 1067 : 
; 1068 : 		//执行命令
; 1069 : 		if (PlatformDBAide.ExecuteProcess(TEXT("GSP_GS_InsertPersonalRoomParameter"),true)!=DB_SUCCESS)

  00225	6a 01		 push	 1
  00227	68 00 00 00 00	 push	 OFFSET ??_C@_0CD@MBGOMFKI@GSP_GS_InsertPersonalRoomParame@
  0022c	8d 4d 08	 lea	 ecx, DWORD PTR _PlatformDBAide$[ebp]
  0022f	ff 15 00 00 00
	00		 call	 DWORD PTR __imp_?ExecuteProcess@CDataBaseAide@@QAEJPBD_N@Z
  00235	89 85 10 fe ff
	ff		 mov	 DWORD PTR tv450[ebp], eax
  0023b	83 bd 10 fe ff
	ff 00		 cmp	 DWORD PTR tv450[ebp], 0
  00242	74 5e		 je	 SHORT $LN13@InsertPers

; 1070 : 		{
; 1071 : 			//获取信息
; 1072 : 			PlatformDBAide.GetParameter(TEXT("@strErrorDescribe"),szDescribeString,CountArray(szDescribeString));

  00244	68 80 00 00 00	 push	 128			; 00000080H
  00249	8d 85 68 ff ff
	ff		 lea	 eax, DWORD PTR _szDescribeString$12[ebp]
  0024f	50		 push	 eax
  00250	68 00 00 00 00	 push	 OFFSET ??_C@_0BC@IIOJPJPJ@?$EAstrErrorDescribe@
  00255	8d 4d 08	 lea	 ecx, DWORD PTR _PlatformDBAide$[ebp]
  00258	ff 15 00 00 00
	00		 call	 DWORD PTR __imp_?GetParameter@CDataBaseAide@@QAEXPBDPADI@Z

; 1073 : 
; 1074 : 			//错误提示
; 1075 : 			CTraceService::TraceString(szDescribeString,TraceLevel_Exception);

  0025e	6a 03		 push	 3
  00260	8d 85 68 ff ff
	ff		 lea	 eax, DWORD PTR _szDescribeString$12[ebp]
  00266	50		 push	 eax
  00267	ff 15 00 00 00
	00		 call	 DWORD PTR __imp_?TraceString@CTraceService@@SA_NPBDW4enTraceLevel@@@Z
  0026d	83 c4 08	 add	 esp, 8

; 1076 : 
; 1077 : 			//错误提示
; 1078 : 			AfxMessageBox(szDescribeString,MB_ICONERROR);

  00270	6a 00		 push	 0
  00272	6a 10		 push	 16			; 00000010H
  00274	8d 85 68 ff ff
	ff		 lea	 eax, DWORD PTR _szDescribeString$12[ebp]
  0027a	50		 push	 eax
  0027b	e8 00 00 00 00	 call	 ?AfxMessageBox@@YGHPBDII@Z ; AfxMessageBox

; 1079 : 
; 1080 : 			return false;

  00280	c6 85 17 fe ff
	ff 00		 mov	 BYTE PTR $T5[ebp], 0
  00287	c7 45 fc ff ff
	ff ff		 mov	 DWORD PTR __$EHRec$[ebp+12], -1
  0028e	8d 4d 08	 lea	 ecx, DWORD PTR _PlatformDBAide$[ebp]
  00291	ff 15 00 00 00
	00		 call	 DWORD PTR __imp_??1CDataBaseAide@@UAE@XZ
  00297	8a 85 17 fe ff
	ff		 mov	 al, BYTE PTR $T5[ebp]
  0029d	e9 bc 04 00 00	 jmp	 $LN1@InsertPers
$LN13@InsertPers:

; 1081 : 		}
; 1082 : 
; 1083 : 		PlatformDBAide.ResetParameter();

  002a2	8d 4d 08	 lea	 ecx, DWORD PTR _PlatformDBAide$[ebp]
  002a5	ff 15 00 00 00
	00		 call	 DWORD PTR __imp_?ResetParameter@CDataBaseAide@@QAEXXZ

; 1084 : 		PlatformDBAide.AddParameter(TEXT("@wKindID"),dwKindID);

  002ab	6a 01		 push	 1
  002ad	0f b7 85 fc 00
	00 00		 movzx	 eax, WORD PTR _dwKindID$[ebp]
  002b4	50		 push	 eax
  002b5	68 00 00 00 00	 push	 OFFSET ??_C@_08HBBOJKPI@?$EAwKindID@
  002ba	8d 4d 08	 lea	 ecx, DWORD PTR _PlatformDBAide$[ebp]
  002bd	ff 15 00 00 00
	00		 call	 DWORD PTR __imp_?AddParameter@CDataBaseAide@@QAEXPBDGW4ParameterDirectionEnum@ADOCG@@@Z

; 1085 : 
; 1086 : 		PlatformDBAide.AddParameterOutput(TEXT("@strErrorDescribe"),szDescribeString,sizeof(szDescribeString),adParamOutput);

  002c3	6a 02		 push	 2
  002c5	68 80 00 00 00	 push	 128			; 00000080H
  002ca	8d 85 68 ff ff
	ff		 lea	 eax, DWORD PTR _szDescribeString$12[ebp]
  002d0	50		 push	 eax
  002d1	68 00 00 00 00	 push	 OFFSET ??_C@_0BC@IIOJPJPJ@?$EAstrErrorDescribe@
  002d6	8d 4d 08	 lea	 ecx, DWORD PTR _PlatformDBAide$[ebp]
  002d9	ff 15 00 00 00
	00		 call	 DWORD PTR __imp_?AddParameterOutput@CDataBaseAide@@QAEXPBDPADIW4ParameterDirectionEnum@ADOCG@@@Z

; 1087 : 		PlatformDBAide.ExecuteProcess(TEXT("GSP_GS_DeletePersonalFeeParameter"),true);

  002df	6a 01		 push	 1
  002e1	68 00 00 00 00	 push	 OFFSET ??_C@_0CC@PJKIIGNE@GSP_GS_DeletePersonalFeeParamet@
  002e6	8d 4d 08	 lea	 ecx, DWORD PTR _PlatformDBAide$[ebp]
  002e9	ff 15 00 00 00
	00		 call	 DWORD PTR __imp_?ExecuteProcess@CDataBaseAide@@QAEJPBD_N@Z

; 1088 : 
; 1089 : 		if (PersonalRoomOptionRightAndFee.stCreateRoomPayFee[0].dwPlayTimeLimit == 0 && PersonalRoomOptionRightAndFee.stCreateRoomPayFee[0].dwPlayTurnLimit == 0)

  002ef	b8 13 00 00 00	 mov	 eax, 19			; 00000013H
  002f4	6b c8 00	 imul	 ecx, eax, 0
  002f7	83 bc 0d 9e 00
	00 00 00	 cmp	 DWORD PTR _PersonalRoomOptionRightAndFee$[ebp+ecx+26], 0
  002ff	75 60		 jne	 SHORT $LN14@InsertPers
  00301	b8 13 00 00 00	 mov	 eax, 19			; 00000013H
  00306	6b c8 00	 imul	 ecx, eax, 0
  00309	83 bc 0d 9a 00
	00 00 00	 cmp	 DWORD PTR _PersonalRoomOptionRightAndFee$[ebp+ecx+22], 0
  00311	75 4e		 jne	 SHORT $LN14@InsertPers

; 1090 : 		{
; 1091 : 			PersonalRoomOptionRightAndFee.stCreateRoomPayFee[0].dwPlayTurnLimit = 5;

  00313	b8 13 00 00 00	 mov	 eax, 19			; 00000013H
  00318	6b c8 00	 imul	 ecx, eax, 0
  0031b	c7 84 0d 9a 00
	00 00 05 00 00
	00		 mov	 DWORD PTR _PersonalRoomOptionRightAndFee$[ebp+ecx+22], 5

; 1092 : 			PersonalRoomOptionRightAndFee.stCreateRoomPayFee[0].dwPayFee = 1;

  00326	b8 13 00 00 00	 mov	 eax, 19			; 00000013H
  0032b	6b c8 00	 imul	 ecx, eax, 0
  0032e	c7 84 0d a2 00
	00 00 01 00 00
	00		 mov	 DWORD PTR _PersonalRoomOptionRightAndFee$[ebp+ecx+30], 1

; 1093 : 			PersonalRoomOptionRightAndFee.stCreateRoomPayFee[0].wAAPayFee = 1;

  00339	b8 13 00 00 00	 mov	 eax, 19			; 00000013H
  0033e	6b c8 00	 imul	 ecx, eax, 0
  00341	ba 01 00 00 00	 mov	 edx, 1
  00346	66 89 94 0d a6
	00 00 00	 mov	 WORD PTR _PersonalRoomOptionRightAndFee$[ebp+ecx+34], dx

; 1094 : 			PersonalRoomOptionRightAndFee.stCreateRoomPayFee[0].dwIniScore = 1000;

  0034e	b8 13 00 00 00	 mov	 eax, 19			; 00000013H
  00353	6b c8 00	 imul	 ecx, eax, 0
  00356	c7 84 0d a8 00
	00 00 e8 03 00
	00		 mov	 DWORD PTR _PersonalRoomOptionRightAndFee$[ebp+ecx+36], 1000 ; 000003e8H
$LN14@InsertPers:

; 1095 : 		}
; 1096 : 
; 1097 : 		for (int i = 0; i < FEE_OPTION_COUNT; i++)

  00361	c7 85 64 ff ff
	ff 00 00 00 00	 mov	 DWORD PTR _i$11[ebp], 0
  0036b	eb 0f		 jmp	 SHORT $LN4@InsertPers
$LN2@InsertPers:
  0036d	8b 85 64 ff ff
	ff		 mov	 eax, DWORD PTR _i$11[ebp]
  00373	83 c0 01	 add	 eax, 1
  00376	89 85 64 ff ff
	ff		 mov	 DWORD PTR _i$11[ebp], eax
$LN4@InsertPers:
  0037c	83 bd 64 ff ff
	ff 05		 cmp	 DWORD PTR _i$11[ebp], 5
  00383	0f 8d bd 01 00
	00		 jge	 $LN3@InsertPers

; 1098 : 		{
; 1099 : 			if (PersonalRoomOptionRightAndFee.stCreateRoomPayFee[i].dwPlayTimeLimit != 0 || PersonalRoomOptionRightAndFee.stCreateRoomPayFee[i].dwPlayTurnLimit != 0)

  00389	6b 85 64 ff ff
	ff 13		 imul	 eax, DWORD PTR _i$11[ebp], 19
  00390	83 bc 05 9e 00
	00 00 00	 cmp	 DWORD PTR _PersonalRoomOptionRightAndFee$[ebp+eax+26], 0
  00398	75 15		 jne	 SHORT $LN16@InsertPers
  0039a	6b 85 64 ff ff
	ff 13		 imul	 eax, DWORD PTR _i$11[ebp], 19
  003a1	83 bc 05 9a 00
	00 00 00	 cmp	 DWORD PTR _PersonalRoomOptionRightAndFee$[ebp+eax+22], 0
  003a9	0f 84 92 01 00
	00		 je	 $LN15@InsertPers
$LN16@InsertPers:

; 1100 : 			{
; 1101 : 				//插入参数
; 1102 : 				PlatformDBAide.ResetParameter();

  003af	8d 4d 08	 lea	 ecx, DWORD PTR _PlatformDBAide$[ebp]
  003b2	ff 15 00 00 00
	00		 call	 DWORD PTR __imp_?ResetParameter@CDataBaseAide@@QAEXXZ

; 1103 : 				PlatformDBAide.AddParameter(TEXT("@wKindID"),dwKindID);

  003b8	6a 01		 push	 1
  003ba	0f b7 85 fc 00
	00 00		 movzx	 eax, WORD PTR _dwKindID$[ebp]
  003c1	50		 push	 eax
  003c2	68 00 00 00 00	 push	 OFFSET ??_C@_08HBBOJKPI@?$EAwKindID@
  003c7	8d 4d 08	 lea	 ecx, DWORD PTR _PlatformDBAide$[ebp]
  003ca	ff 15 00 00 00
	00		 call	 DWORD PTR __imp_?AddParameter@CDataBaseAide@@QAEXPBDGW4ParameterDirectionEnum@ADOCG@@@Z

; 1104 : 				PlatformDBAide.AddParameter(TEXT("@DrawCountLimit"),PersonalRoomOptionRightAndFee.stCreateRoomPayFee[i].dwPlayTurnLimit );

  003d0	6a 01		 push	 1
  003d2	6b 85 64 ff ff
	ff 13		 imul	 eax, DWORD PTR _i$11[ebp], 19
  003d9	8b 8c 05 9a 00
	00 00		 mov	 ecx, DWORD PTR _PersonalRoomOptionRightAndFee$[ebp+eax+22]
  003e0	51		 push	 ecx
  003e1	68 00 00 00 00	 push	 OFFSET ??_C@_0BA@NEJOBMJG@?$EADrawCountLimit@
  003e6	8d 4d 08	 lea	 ecx, DWORD PTR _PlatformDBAide$[ebp]
  003e9	ff 15 00 00 00
	00		 call	 DWORD PTR __imp_?AddParameter@CDataBaseAide@@QAEXPBDKW4ParameterDirectionEnum@ADOCG@@@Z

; 1105 : 				PlatformDBAide.AddParameter(TEXT("@DrawTimeLimit"),PersonalRoomOptionRightAndFee.stCreateRoomPayFee[i].dwPlayTimeLimit);

  003ef	6a 01		 push	 1
  003f1	6b 85 64 ff ff
	ff 13		 imul	 eax, DWORD PTR _i$11[ebp], 19
  003f8	8b 8c 05 9e 00
	00 00		 mov	 ecx, DWORD PTR _PersonalRoomOptionRightAndFee$[ebp+eax+26]
  003ff	51		 push	 ecx
  00400	68 00 00 00 00	 push	 OFFSET ??_C@_0P@PPHKCKBK@?$EADrawTimeLimit@
  00405	8d 4d 08	 lea	 ecx, DWORD PTR _PlatformDBAide$[ebp]
  00408	ff 15 00 00 00
	00		 call	 DWORD PTR __imp_?AddParameter@CDataBaseAide@@QAEXPBDKW4ParameterDirectionEnum@ADOCG@@@Z

; 1106 : 				PlatformDBAide.AddParameter(TEXT("@TableFee"),PersonalRoomOptionRightAndFee.stCreateRoomPayFee[i].dwPayFee);

  0040e	6a 01		 push	 1
  00410	6b 85 64 ff ff
	ff 13		 imul	 eax, DWORD PTR _i$11[ebp], 19
  00417	8b 8c 05 a2 00
	00 00		 mov	 ecx, DWORD PTR _PersonalRoomOptionRightAndFee$[ebp+eax+30]
  0041e	51		 push	 ecx
  0041f	68 00 00 00 00	 push	 OFFSET ??_C@_09GLBENLGO@?$EATableFee@
  00424	8d 4d 08	 lea	 ecx, DWORD PTR _PlatformDBAide$[ebp]
  00427	ff 15 00 00 00
	00		 call	 DWORD PTR __imp_?AddParameter@CDataBaseAide@@QAEXPBDKW4ParameterDirectionEnum@ADOCG@@@Z

; 1107 : 				PlatformDBAide.AddParameter(TEXT("@AAPayFee"), PersonalRoomOptionRightAndFee.stCreateRoomPayFee[i].wAAPayFee);

  0042d	6a 01		 push	 1
  0042f	6b 85 64 ff ff
	ff 13		 imul	 eax, DWORD PTR _i$11[ebp], 19
  00436	0f b7 8c 05 a6
	00 00 00	 movzx	 ecx, WORD PTR _PersonalRoomOptionRightAndFee$[ebp+eax+34]
  0043e	51		 push	 ecx
  0043f	68 00 00 00 00	 push	 OFFSET ??_C@_09FCEHGDCA@?$EAAAPayFee@
  00444	8d 4d 08	 lea	 ecx, DWORD PTR _PlatformDBAide$[ebp]
  00447	ff 15 00 00 00
	00		 call	 DWORD PTR __imp_?AddParameter@CDataBaseAide@@QAEXPBDGW4ParameterDirectionEnum@ADOCG@@@Z

; 1108 : 				PlatformDBAide.AddParameter(TEXT("@IniScore"),PersonalRoomOptionRightAndFee.stCreateRoomPayFee[i].dwIniScore);

  0044d	6a 01		 push	 1
  0044f	6b 85 64 ff ff
	ff 13		 imul	 eax, DWORD PTR _i$11[ebp], 19
  00456	8b 8c 05 a8 00
	00 00		 mov	 ecx, DWORD PTR _PersonalRoomOptionRightAndFee$[ebp+eax+36]
  0045d	51		 push	 ecx
  0045e	68 00 00 00 00	 push	 OFFSET ??_C@_09FDIDCNIH@?$EAIniScore@
  00463	8d 4d 08	 lea	 ecx, DWORD PTR _PlatformDBAide$[ebp]
  00466	ff 15 00 00 00
	00		 call	 DWORD PTR __imp_?AddParameter@CDataBaseAide@@QAEXPBDKW4ParameterDirectionEnum@ADOCG@@@Z

; 1109 : 				PlatformDBAide.AddParameter(TEXT("@cbGameMode"), PersonalRoomOptionRightAndFee.stCreateRoomPayFee[i].cbGameMode);

  0046c	6a 01		 push	 1
  0046e	6b 85 64 ff ff
	ff 13		 imul	 eax, DWORD PTR _i$11[ebp], 19
  00475	0f b6 8c 05 99
	00 00 00	 movzx	 ecx, BYTE PTR _PersonalRoomOptionRightAndFee$[ebp+eax+21]
  0047d	51		 push	 ecx
  0047e	68 00 00 00 00	 push	 OFFSET ??_C@_0M@CIPFFAIA@?$EAcbGameMode@
  00483	8d 4d 08	 lea	 ecx, DWORD PTR _PlatformDBAide$[ebp]
  00486	ff 15 00 00 00
	00		 call	 DWORD PTR __imp_?AddParameter@CDataBaseAide@@QAEXPBDEW4ParameterDirectionEnum@ADOCG@@@Z

; 1110 : 				//输出信息
; 1111 : 				TCHAR szDescribeString[128]=TEXT("");

  0048c	a0 00 00 00 00	 mov	 al, BYTE PTR ??_C@_00CNPNBAHC@@
  00491	88 85 e4 fe ff
	ff		 mov	 BYTE PTR _szDescribeString$10[ebp], al
  00497	6a 7f		 push	 127			; 0000007fH
  00499	6a 00		 push	 0
  0049b	8d 85 e5 fe ff
	ff		 lea	 eax, DWORD PTR _szDescribeString$10[ebp+1]
  004a1	50		 push	 eax
  004a2	e8 00 00 00 00	 call	 _memset
  004a7	83 c4 0c	 add	 esp, 12			; 0000000cH

; 1112 : 				PlatformDBAide.AddParameterOutput(TEXT("@strErrorDescribe"),szDescribeString,sizeof(szDescribeString),adParamOutput);

  004aa	6a 02		 push	 2
  004ac	68 80 00 00 00	 push	 128			; 00000080H
  004b1	8d 85 e4 fe ff
	ff		 lea	 eax, DWORD PTR _szDescribeString$10[ebp]
  004b7	50		 push	 eax
  004b8	68 00 00 00 00	 push	 OFFSET ??_C@_0BC@IIOJPJPJ@?$EAstrErrorDescribe@
  004bd	8d 4d 08	 lea	 ecx, DWORD PTR _PlatformDBAide$[ebp]
  004c0	ff 15 00 00 00
	00		 call	 DWORD PTR __imp_?AddParameterOutput@CDataBaseAide@@QAEXPBDPADIW4ParameterDirectionEnum@ADOCG@@@Z

; 1113 : 				//执行命令
; 1114 : 				if (PlatformDBAide.ExecuteProcess(TEXT("GSP_GS_WritePersonalFeeParameter"),true)!=DB_SUCCESS)

  004c6	6a 01		 push	 1
  004c8	68 00 00 00 00	 push	 OFFSET ??_C@_0CB@BGEDMOGM@GSP_GS_WritePersonalFeeParamete@
  004cd	8d 4d 08	 lea	 ecx, DWORD PTR _PlatformDBAide$[ebp]
  004d0	ff 15 00 00 00
	00		 call	 DWORD PTR __imp_?ExecuteProcess@CDataBaseAide@@QAEJPBD_N@Z
  004d6	89 85 10 fe ff
	ff		 mov	 DWORD PTR tv451[ebp], eax
  004dc	83 bd 10 fe ff
	ff 00		 cmp	 DWORD PTR tv451[ebp], 0
  004e3	74 5c		 je	 SHORT $LN15@InsertPers

; 1115 : 				{
; 1116 : 					//获取信息
; 1117 : 					PlatformDBAide.GetParameter(TEXT("@strErrorDescribe"),szDescribeString,CountArray(szDescribeString));

  004e5	68 80 00 00 00	 push	 128			; 00000080H
  004ea	8d 85 e4 fe ff
	ff		 lea	 eax, DWORD PTR _szDescribeString$10[ebp]
  004f0	50		 push	 eax
  004f1	68 00 00 00 00	 push	 OFFSET ??_C@_0BC@IIOJPJPJ@?$EAstrErrorDescribe@
  004f6	8d 4d 08	 lea	 ecx, DWORD PTR _PlatformDBAide$[ebp]
  004f9	ff 15 00 00 00
	00		 call	 DWORD PTR __imp_?GetParameter@CDataBaseAide@@QAEXPBDPADI@Z

; 1118 : 
; 1119 : 					//错误提示
; 1120 : 					CTraceService::TraceString(TEXT("插入游戏费用出错"),TraceLevel_Exception);

  004ff	6a 03		 push	 3
  00501	68 00 00 00 00	 push	 OFFSET ??_C@_0BB@LABICMHO@?$LC?e?H?k?S?N?O?$LH?$LH?Q?S?C?$LD?v?$LE?m@
  00506	ff 15 00 00 00
	00		 call	 DWORD PTR __imp_?TraceString@CTraceService@@SA_NPBDW4enTraceLevel@@@Z
  0050c	83 c4 08	 add	 esp, 8

; 1121 : 
; 1122 : 					//错误提示
; 1123 : 					AfxMessageBox(szDescribeString,MB_ICONERROR);

  0050f	6a 00		 push	 0
  00511	6a 10		 push	 16			; 00000010H
  00513	8d 85 e4 fe ff
	ff		 lea	 eax, DWORD PTR _szDescribeString$10[ebp]
  00519	50		 push	 eax
  0051a	e8 00 00 00 00	 call	 ?AfxMessageBox@@YGHPBDII@Z ; AfxMessageBox

; 1124 : 
; 1125 : 					return false;

  0051f	c6 85 16 fe ff
	ff 00		 mov	 BYTE PTR $T4[ebp], 0
  00526	c7 45 fc ff ff
	ff ff		 mov	 DWORD PTR __$EHRec$[ebp+12], -1
  0052d	8d 4d 08	 lea	 ecx, DWORD PTR _PlatformDBAide$[ebp]
  00530	ff 15 00 00 00
	00		 call	 DWORD PTR __imp_??1CDataBaseAide@@UAE@XZ
  00536	8a 85 16 fe ff
	ff		 mov	 al, BYTE PTR $T4[ebp]
  0053c	e9 1d 02 00 00	 jmp	 $LN1@InsertPers
$LN15@InsertPers:

; 1126 : 				}
; 1127 : 			}
; 1128 : 		}

  00541	e9 27 fe ff ff	 jmp	 $LN2@InsertPers
$LN3@InsertPers:

; 1129 : 
; 1130 : 		//写配置信息
; 1131 : 		WritePersonalRoomInfo(PersonalRoomOption,  PersonalRoomOptionRightAndFee, dwKindID);

  00546	0f b7 85 fc 00
	00 00		 movzx	 eax, WORD PTR _dwKindID$[ebp]
  0054d	50		 push	 eax
  0054e	83 ec 74	 sub	 esp, 116		; 00000074H
  00551	b9 1d 00 00 00	 mov	 ecx, 29			; 0000001dH
  00556	8d b5 84 00 00
	00		 lea	 esi, DWORD PTR _PersonalRoomOptionRightAndFee$[ebp]
  0055c	8b fc		 mov	 edi, esp
  0055e	f3 a5		 rep movsd
  00560	83 ec 74	 sub	 esp, 116		; 00000074H
  00563	b9 1c 00 00 00	 mov	 ecx, 28			; 0000001cH
  00568	8d 75 10	 lea	 esi, DWORD PTR _PersonalRoomOption$[ebp]
  0056b	8b fc		 mov	 edi, esp
  0056d	f3 a5		 rep movsd
  0056f	a4		 movsb
  00570	8b 4d e8	 mov	 ecx, DWORD PTR _this$[ebp]
  00573	e8 00 00 00 00	 call	 ?WritePersonalRoomInfo@CServerInfoManager@@QAE_NUtagPersonalRoomOption@@UtagPersonalRoomOptionRightAndFee@@G@Z ; CServerInfoManager::WritePersonalRoomInfo

; 1132 : 		PlatformDBAide.ResetParameter();

  00578	8d 4d 08	 lea	 ecx, DWORD PTR _PlatformDBAide$[ebp]
  0057b	ff 15 00 00 00
	00		 call	 DWORD PTR __imp_?ResetParameter@CDataBaseAide@@QAEXXZ

; 1133 : 		PlatformDBAide.AddParameter(TEXT("@wKindID"), dwKindID);

  00581	6a 01		 push	 1
  00583	0f b7 85 fc 00
	00 00		 movzx	 eax, WORD PTR _dwKindID$[ebp]
  0058a	50		 push	 eax
  0058b	68 00 00 00 00	 push	 OFFSET ??_C@_08HBBOJKPI@?$EAwKindID@
  00590	8d 4d 08	 lea	 ecx, DWORD PTR _PlatformDBAide$[ebp]
  00593	ff 15 00 00 00
	00		 call	 DWORD PTR __imp_?AddParameter@CDataBaseAide@@QAEXPBDGW4ParameterDirectionEnum@ADOCG@@@Z

; 1134 : 
; 1135 : 		if (PlatformDBAide.ExecuteProcess(TEXT("GSP_GR_DeletePersonalCellScore"), true) == DB_SUCCESS)

  00599	6a 01		 push	 1
  0059b	68 00 00 00 00	 push	 OFFSET ??_C@_0BP@BNMLDPEJ@GSP_GR_DeletePersonalCellScore@
  005a0	8d 4d 08	 lea	 ecx, DWORD PTR _PlatformDBAide$[ebp]
  005a3	ff 15 00 00 00
	00		 call	 DWORD PTR __imp_?ExecuteProcess@CDataBaseAide@@QAEJPBD_N@Z
  005a9	89 85 10 fe ff
	ff		 mov	 DWORD PTR tv452[ebp], eax
  005af	83 bd 10 fe ff
	ff 00		 cmp	 DWORD PTR tv452[ebp], 0
  005b6	0f 85 32 01 00
	00		 jne	 $LN18@InsertPers

; 1136 : 		{
; 1137 : 			//写入底分配置
; 1138 : 			for (int i = 0; i < CELLSCORE_COUNT; i++)

  005bc	c7 85 e0 fe ff
	ff 00 00 00 00	 mov	 DWORD PTR _i$9[ebp], 0
  005c6	eb 0f		 jmp	 SHORT $LN7@InsertPers
$LN5@InsertPers:
  005c8	8b 85 e0 fe ff
	ff		 mov	 eax, DWORD PTR _i$9[ebp]
  005ce	83 c0 01	 add	 eax, 1
  005d1	89 85 e0 fe ff
	ff		 mov	 DWORD PTR _i$9[ebp], eax
$LN7@InsertPers:
  005d7	83 bd e0 fe ff
	ff 05		 cmp	 DWORD PTR _i$9[ebp], 5
  005de	0f 8d 0a 01 00
	00		 jge	 $LN18@InsertPers

; 1139 : 			{
; 1140 : 				if (PersonalRoomOptionRightAndFee.nCellScore[i] != 0)

  005e4	8b 85 e0 fe ff
	ff		 mov	 eax, DWORD PTR _i$9[ebp]
  005ea	83 bc 85 85 00
	00 00 00	 cmp	 DWORD PTR _PersonalRoomOptionRightAndFee$[ebp+eax*4+1], 0
  005f2	0f 84 f1 00 00
	00		 je	 $LN19@InsertPers

; 1141 : 				{
; 1142 : 					PlatformDBAide.ResetParameter();

  005f8	8d 4d 08	 lea	 ecx, DWORD PTR _PlatformDBAide$[ebp]
  005fb	ff 15 00 00 00
	00		 call	 DWORD PTR __imp_?ResetParameter@CDataBaseAide@@QAEXXZ

; 1143 : 					PlatformDBAide.AddParameter(TEXT("@wKindID"), dwKindID);

  00601	6a 01		 push	 1
  00603	0f b7 85 fc 00
	00 00		 movzx	 eax, WORD PTR _dwKindID$[ebp]
  0060a	50		 push	 eax
  0060b	68 00 00 00 00	 push	 OFFSET ??_C@_08HBBOJKPI@?$EAwKindID@
  00610	8d 4d 08	 lea	 ecx, DWORD PTR _PlatformDBAide$[ebp]
  00613	ff 15 00 00 00
	00		 call	 DWORD PTR __imp_?AddParameter@CDataBaseAide@@QAEXPBDGW4ParameterDirectionEnum@ADOCG@@@Z

; 1144 : 					PlatformDBAide.AddParameter(TEXT("@lCellScore"), PersonalRoomOptionRightAndFee.nCellScore[i]);

  00619	6a 01		 push	 1
  0061b	8b 85 e0 fe ff
	ff		 mov	 eax, DWORD PTR _i$9[ebp]
  00621	8b 8c 85 85 00
	00 00		 mov	 ecx, DWORD PTR _PersonalRoomOptionRightAndFee$[ebp+eax*4+1]
  00628	51		 push	 ecx
  00629	68 00 00 00 00	 push	 OFFSET ??_C@_0M@DOJONCPP@?$EAlCellScore@
  0062e	8d 4d 08	 lea	 ecx, DWORD PTR _PlatformDBAide$[ebp]
  00631	ff 15 00 00 00
	00		 call	 DWORD PTR __imp_?AddParameter@CDataBaseAide@@QAEXPBDHW4ParameterDirectionEnum@ADOCG@@@Z

; 1145 : 
; 1146 : 					//输出信息
; 1147 : 					TCHAR szDescribeString[128] = TEXT("");

  00637	a0 00 00 00 00	 mov	 al, BYTE PTR ??_C@_00CNPNBAHC@@
  0063c	88 85 60 fe ff
	ff		 mov	 BYTE PTR _szDescribeString$8[ebp], al
  00642	6a 7f		 push	 127			; 0000007fH
  00644	6a 00		 push	 0
  00646	8d 85 61 fe ff
	ff		 lea	 eax, DWORD PTR _szDescribeString$8[ebp+1]
  0064c	50		 push	 eax
  0064d	e8 00 00 00 00	 call	 _memset
  00652	83 c4 0c	 add	 esp, 12			; 0000000cH

; 1148 : 					PlatformDBAide.AddParameterOutput(TEXT("@strErrorDescribe"), szDescribeString, sizeof(szDescribeString), adParamOutput);

  00655	6a 02		 push	 2
  00657	68 80 00 00 00	 push	 128			; 00000080H
  0065c	8d 85 60 fe ff
	ff		 lea	 eax, DWORD PTR _szDescribeString$8[ebp]
  00662	50		 push	 eax
  00663	68 00 00 00 00	 push	 OFFSET ??_C@_0BC@IIOJPJPJ@?$EAstrErrorDescribe@
  00668	8d 4d 08	 lea	 ecx, DWORD PTR _PlatformDBAide$[ebp]
  0066b	ff 15 00 00 00
	00		 call	 DWORD PTR __imp_?AddParameterOutput@CDataBaseAide@@QAEXPBDPADIW4ParameterDirectionEnum@ADOCG@@@Z

; 1149 : 
; 1150 : 					//执行命令
; 1151 : 					if (PlatformDBAide.ExecuteProcess(TEXT("GSP_GR_InsertPersonalCellScore"), true) != DB_SUCCESS)

  00671	6a 01		 push	 1
  00673	68 00 00 00 00	 push	 OFFSET ??_C@_0BP@GEFHPGBC@GSP_GR_InsertPersonalCellScore@
  00678	8d 4d 08	 lea	 ecx, DWORD PTR _PlatformDBAide$[ebp]
  0067b	ff 15 00 00 00
	00		 call	 DWORD PTR __imp_?ExecuteProcess@CDataBaseAide@@QAEJPBD_N@Z
  00681	89 85 10 fe ff
	ff		 mov	 DWORD PTR tv453[ebp], eax
  00687	83 bd 10 fe ff
	ff 00		 cmp	 DWORD PTR tv453[ebp], 0
  0068e	74 59		 je	 SHORT $LN19@InsertPers

; 1152 : 					{
; 1153 : 						//获取信息
; 1154 : 						PlatformDBAide.GetParameter(TEXT("@strErrorDescribe"), szDescribeString, CountArray(szDescribeString));

  00690	68 80 00 00 00	 push	 128			; 00000080H
  00695	8d 85 60 fe ff
	ff		 lea	 eax, DWORD PTR _szDescribeString$8[ebp]
  0069b	50		 push	 eax
  0069c	68 00 00 00 00	 push	 OFFSET ??_C@_0BC@IIOJPJPJ@?$EAstrErrorDescribe@
  006a1	8d 4d 08	 lea	 ecx, DWORD PTR _PlatformDBAide$[ebp]
  006a4	ff 15 00 00 00
	00		 call	 DWORD PTR __imp_?GetParameter@CDataBaseAide@@QAEXPBDPADI@Z

; 1155 : 
; 1156 : 						//错误提示
; 1157 : 						CTraceService::TraceString(TEXT("插入游戏底分出错"), TraceLevel_Exception);

  006aa	6a 03		 push	 3
  006ac	68 00 00 00 00	 push	 OFFSET ??_C@_0BB@HEGDPGKB@?$LC?e?H?k?S?N?O?$LH?$LF?W?$LH?V?$LD?v?$LE?m@
  006b1	ff 15 00 00 00
	00		 call	 DWORD PTR __imp_?TraceString@CTraceService@@SA_NPBDW4enTraceLevel@@@Z
  006b7	83 c4 08	 add	 esp, 8

; 1158 : 
; 1159 : 						//错误提示
; 1160 : 						AfxMessageBox(szDescribeString, MB_ICONERROR);

  006ba	6a 00		 push	 0
  006bc	6a 10		 push	 16			; 00000010H
  006be	8d 85 60 fe ff
	ff		 lea	 eax, DWORD PTR _szDescribeString$8[ebp]
  006c4	50		 push	 eax
  006c5	e8 00 00 00 00	 call	 ?AfxMessageBox@@YGHPBDII@Z ; AfxMessageBox

; 1161 : 
; 1162 : 						return false;

  006ca	c6 85 15 fe ff
	ff 00		 mov	 BYTE PTR $T3[ebp], 0
  006d1	c7 45 fc ff ff
	ff ff		 mov	 DWORD PTR __$EHRec$[ebp+12], -1
  006d8	8d 4d 08	 lea	 ecx, DWORD PTR _PlatformDBAide$[ebp]
  006db	ff 15 00 00 00
	00		 call	 DWORD PTR __imp_??1CDataBaseAide@@UAE@XZ
  006e1	8a 85 15 fe ff
	ff		 mov	 al, BYTE PTR $T3[ebp]
  006e7	eb 75		 jmp	 SHORT $LN1@InsertPers
$LN19@InsertPers:

; 1163 : 					}
; 1164 : 				}
; 1165 : 
; 1166 : 			}

  006e9	e9 da fe ff ff	 jmp	 $LN5@InsertPers
$LN18@InsertPers:

; 1167 : 		}
; 1168 : 	}

  006ee	eb 41		 jmp	 SHORT $LN22@InsertPers
__catch$?InsertPersonalRoomParameter@CServerInfoManager@@QAE_NVCDataBaseAide@@UtagPersonalRoomOption@@UtagPersonalRoomOptionRightAndFee@@GG@Z$0:

; 1169 : 	catch (IDataBaseException * pIException)
; 1170 : 	{
; 1171 : 		//错误信息
; 1172 : 		LPCTSTR pszDescribe=pIException->GetExceptionDescribe();

  006f0	8b 85 5c fe ff
	ff		 mov	 eax, DWORD PTR _pIException$7[ebp]
  006f6	8b 10		 mov	 edx, DWORD PTR [eax]
  006f8	8b 8d 5c fe ff
	ff		 mov	 ecx, DWORD PTR _pIException$7[ebp]
  006fe	8b 42 0c	 mov	 eax, DWORD PTR [edx+12]
  00701	ff d0		 call	 eax
  00703	89 85 58 fe ff
	ff		 mov	 DWORD PTR _pszDescribe$6[ebp], eax

; 1173 : 		CTraceService::TraceString(pszDescribe,TraceLevel_Exception);

  00709	6a 03		 push	 3
  0070b	8b 85 58 fe ff
	ff		 mov	 eax, DWORD PTR _pszDescribe$6[ebp]
  00711	50		 push	 eax
  00712	ff 15 00 00 00
	00		 call	 DWORD PTR __imp_?TraceString@CTraceService@@SA_NPBDW4enTraceLevel@@@Z
  00718	83 c4 08	 add	 esp, 8

; 1174 : 
; 1175 : 		//错误提示
; 1176 : 		AfxMessageBox(pszDescribe,MB_ICONERROR);

  0071b	6a 00		 push	 0
  0071d	6a 10		 push	 16			; 00000010H
  0071f	8b 85 58 fe ff
	ff		 mov	 eax, DWORD PTR _pszDescribe$6[ebp]
  00725	50		 push	 eax
  00726	e8 00 00 00 00	 call	 ?AfxMessageBox@@YGHPBDII@Z ; AfxMessageBox

; 1177 : 	}

  0072b	b8 00 00 00 00	 mov	 eax, $LN26@InsertPers
  00730	c3		 ret	 0
$LN22@InsertPers:
  00731	c7 45 fc 00 00
	00 00		 mov	 DWORD PTR __$EHRec$[ebp+12], 0
  00738	eb 07		 jmp	 SHORT __tryend$?InsertPersonalRoomParameter@CServerInfoManager@@QAE_NVCDataBaseAide@@UtagPersonalRoomOption@@UtagPersonalRoomOptionRightAndFee@@GG@Z$1
$LN26@InsertPers:
  0073a	c7 45 fc 00 00
	00 00		 mov	 DWORD PTR __$EHRec$[ebp+12], 0
__tryend$?InsertPersonalRoomParameter@CServerInfoManager@@QAE_NVCDataBaseAide@@UtagPersonalRoomOption@@UtagPersonalRoomOptionRightAndFee@@GG@Z$1:

; 1178 : 
; 1179 : 	return true;

  00741	c6 85 14 fe ff
	ff 01		 mov	 BYTE PTR $T2[ebp], 1
  00748	c7 45 fc ff ff
	ff ff		 mov	 DWORD PTR __$EHRec$[ebp+12], -1
  0074f	8d 4d 08	 lea	 ecx, DWORD PTR _PlatformDBAide$[ebp]
  00752	ff 15 00 00 00
	00		 call	 DWORD PTR __imp_??1CDataBaseAide@@UAE@XZ
  00758	8a 85 14 fe ff
	ff		 mov	 al, BYTE PTR $T2[ebp]
$LN1@InsertPers:

; 1180 : }

  0075e	8b 4d f4	 mov	 ecx, DWORD PTR __$EHRec$[ebp+4]
  00761	64 89 0d 00 00
	00 00		 mov	 DWORD PTR fs:0, ecx
  00768	59		 pop	 ecx
  00769	5f		 pop	 edi
  0076a	5e		 pop	 esi
  0076b	5b		 pop	 ebx
  0076c	8b 4d ec	 mov	 ecx, DWORD PTR __$ArrayPad$[ebp]
  0076f	33 cd		 xor	 ecx, ebp
  00771	e8 00 00 00 00	 call	 @__security_check_cookie@4
  00776	8b e5		 mov	 esp, ebp
  00778	5d		 pop	 ebp
  00779	c2 f8 00	 ret	 248			; 000000f8H
_TEXT	ENDS
;	COMDAT text$x
text$x	SEGMENT
__unwindfunclet$?InsertPersonalRoomParameter@CServerInfoManager@@QAE_NVCDataBaseAide@@UtagPersonalRoomOption@@UtagPersonalRoomOptionRightAndFee@@GG@Z$2:
  00000	8d 4d 08	 lea	 ecx, DWORD PTR _PlatformDBAide$[ebp]
  00003	ff 25 00 00 00
	00		 jmp	 DWORD PTR __imp_??1CDataBaseAide@@UAE@XZ
__ehhandler$?InsertPersonalRoomParameter@CServerInfoManager@@QAE_NVCDataBaseAide@@UtagPersonalRoomOption@@UtagPersonalRoomOptionRightAndFee@@GG@Z:
  00009	8b 54 24 08	 mov	 edx, DWORD PTR [esp+8]
  0000d	8d 42 0c	 lea	 eax, DWORD PTR [edx+12]
  00010	8b 8a 0c fe ff
	ff		 mov	 ecx, DWORD PTR [edx-500]
  00016	33 c8		 xor	 ecx, eax
  00018	e8 00 00 00 00	 call	 @__security_check_cookie@4
  0001d	8b 4a f8	 mov	 ecx, DWORD PTR [edx-8]
  00020	33 c8		 xor	 ecx, eax
  00022	e8 00 00 00 00	 call	 @__security_check_cookie@4
  00027	b8 00 00 00 00	 mov	 eax, OFFSET __ehfuncinfo$?InsertPersonalRoomParameter@CServerInfoManager@@QAE_NVCDataBaseAide@@UtagPersonalRoomOption@@UtagPersonalRoomOptionRightAndFee@@GG@Z
  0002c	e9 00 00 00 00	 jmp	 ___CxxFrameHandler3
text$x	ENDS
?InsertPersonalRoomParameter@CServerInfoManager@@QAE_NVCDataBaseAide@@UtagPersonalRoomOption@@UtagPersonalRoomOptionRightAndFee@@GG@Z ENDP ; CServerInfoManager::InsertPersonalRoomParameter
; Function compile flags: /Odtp /ZI
; File g:\网狐\happygamewh\服务端\系统模块\服务器组件\模块管理\serverinfomanager.cpp
;	COMDAT ?LoadPersonalRoomParameter@CServerInfoManager@@QAE_NAAUtagPersonalRoomOption@@AAUtagPersonalRoomOptionRightAndFee@@G@Z
_TEXT	SEGMENT
tv343 = -17569						; size = 1
tv347 = -17568						; size = 8
tv345 = -17568						; size = 8
tv328 = -17568						; size = 8
tv327 = -17568						; size = 8
tv297 = -17568						; size = 4
tv246 = -17568						; size = 4
tv349 = -17564						; size = 4
tv344 = -17564						; size = 4
tv342 = -17564						; size = 4
tv341 = -17564						; size = 4
tv338 = -17564						; size = 4
tv336 = -17564						; size = 4
tv335 = -17564						; size = 4
tv334 = -17564						; size = 4
tv333 = -17564						; size = 4
tv332 = -17564						; size = 4
tv331 = -17564						; size = 4
tv330 = -17564						; size = 4
tv323 = -17564						; size = 4
tv322 = -17564						; size = 4
tv65 = -17564						; size = 4
tv346 = -17560						; size = 2
tv329 = -17560						; size = 2
tv348 = -17558						; size = 1
tv340 = -17558						; size = 1
tv326 = -17558						; size = 1
tv325 = -17558						; size = 1
tv324 = -17558						; size = 1
tv69 = -17558						; size = 1
$T2 = -17557						; size = 1
$T3 = -17556						; size = 1
$T4 = -17555						; size = 1
$T5 = -17554						; size = 1
$T6 = -17553						; size = 1
_pszDescribe$7 = -17040					; size = 4
_pIException$8 = -17036					; size = 4
_iCount$9 = -17032					; size = 4
_pPersonalTableParameter$10 = -17028			; size = 4
_cbBuffer$11 = -17024					; size = 16384
_dwPaketSize$12 = -640					; size = 4
_lResultCode$13 = -636					; size = 4
_szDescribeString$14 = -632				; size = 128
_PlatformDBModule$ = -504				; size = 472
_PlatformDBAide$ = -32					; size = 8
_this$ = -24						; size = 4
__$ArrayPad$ = -20					; size = 4
__$EHRec$ = -16						; size = 16
_pesronalRoomOption$ = 8				; size = 4
_personalRoomOptionRightAndFee$ = 12			; size = 4
_wServerID$ = 16					; size = 2
?LoadPersonalRoomParameter@CServerInfoManager@@QAE_NAAUtagPersonalRoomOption@@AAUtagPersonalRoomOptionRightAndFee@@G@Z PROC ; CServerInfoManager::LoadPersonalRoomParameter, COMDAT
; _this$ = ecx

; 895  : {

  00000	55		 push	 ebp
  00001	8b ec		 mov	 ebp, esp
  00003	6a ff		 push	 -1
  00005	68 00 00 00 00	 push	 __ehhandler$?LoadPersonalRoomParameter@CServerInfoManager@@QAE_NAAUtagPersonalRoomOption@@AAUtagPersonalRoomOptionRightAndFee@@G@Z
  0000a	64 a1 00 00 00
	00		 mov	 eax, DWORD PTR fs:0
  00010	50		 push	 eax
  00011	51		 push	 ecx
  00012	b8 94 44 00 00	 mov	 eax, 17556		; 00004494H
  00017	e8 00 00 00 00	 call	 __chkstk
  0001c	a1 00 00 00 00	 mov	 eax, DWORD PTR ___security_cookie
  00021	33 c5		 xor	 eax, ebp
  00023	89 45 ec	 mov	 DWORD PTR __$ArrayPad$[ebp], eax
  00026	53		 push	 ebx
  00027	56		 push	 esi
  00028	57		 push	 edi
  00029	50		 push	 eax
  0002a	8d 45 f4	 lea	 eax, DWORD PTR __$EHRec$[ebp+4]
  0002d	64 a3 00 00 00
	00		 mov	 DWORD PTR fs:0, eax
  00033	89 65 f0	 mov	 DWORD PTR __$EHRec$[ebp], esp
  00036	89 4d e8	 mov	 DWORD PTR _this$[ebp], ecx

; 896  : 
; 897  : 	//变量定义
; 898  : 	CDataBaseAide PlatformDBAide;

  00039	6a 00		 push	 0
  0003b	8d 4d e0	 lea	 ecx, DWORD PTR _PlatformDBAide$[ebp]
  0003e	ff 15 00 00 00
	00		 call	 DWORD PTR __imp_??0CDataBaseAide@@QAE@PAUIUnknownEx@@@Z
  00044	c7 45 fc 00 00
	00 00		 mov	 DWORD PTR __$EHRec$[ebp+12], 0

; 899  : 	CDataBaseHelper PlatformDBModule;

  0004b	8d 8d 08 fe ff
	ff		 lea	 ecx, DWORD PTR _PlatformDBModule$[ebp]
  00051	e8 00 00 00 00	 call	 ??0CDataBaseHelper@@QAE@XZ ; CDataBaseHelper::CDataBaseHelper
  00056	c6 45 fc 01	 mov	 BYTE PTR __$EHRec$[ebp+12], 1

; 900  : 
; 901  : 	//执行逻辑
; 902  : 	try

  0005a	c6 45 fc 02	 mov	 BYTE PTR __$EHRec$[ebp+12], 2

; 903  : 	{
; 904  : 		//连接数据库
; 905  : 		if (ConnectPlatformDB(PlatformDBModule)==false)

  0005e	8d 85 08 fe ff
	ff		 lea	 eax, DWORD PTR _PlatformDBModule$[ebp]
  00064	50		 push	 eax
  00065	8b 4d e8	 mov	 ecx, DWORD PTR _this$[ebp]
  00068	e8 00 00 00 00	 call	 ?ConnectPlatformDB@CServerInfoManager@@AAE_NAAVCDataBaseHelper@@@Z ; CServerInfoManager::ConnectPlatformDB
  0006d	88 85 6a bb ff
	ff		 mov	 BYTE PTR tv69[ebp], al
  00073	0f b6 8d 6a bb
	ff ff		 movzx	 ecx, BYTE PTR tv69[ebp]
  0007a	85 c9		 test	 ecx, ecx
  0007c	75 59		 jne	 SHORT $LN5@LoadPerson

; 906  : 		{
; 907  : 			ASSERT(FALSE);

  0007e	33 c0		 xor	 eax, eax
  00080	75 24		 jne	 SHORT $LN9@LoadPerson
  00082	8b 0d 00 00 00
	00		 mov	 ecx, DWORD PTR ?__LINE__Var@?0??LoadPersonalRoomParameter@CServerInfoManager@@QAE_NAAUtagPersonalRoomOption@@AAUtagPersonalRoomOptionRightAndFee@@G@Z@4JA
  00088	83 c1 0c	 add	 ecx, 12			; 0000000cH
  0008b	51		 push	 ecx
  0008c	68 00 00 00 00	 push	 OFFSET ??_C@_0EO@GNEBGAKM@g?3?2?M?x?$LK?$PM?2happygamewh?2?$LH?$PO?N?q?$LG?K?2?O?$LF?M?$LD@
  00091	e8 00 00 00 00	 call	 ?AfxAssertFailedLine@@YGHPBDH@Z ; AfxAssertFailedLine
  00096	89 85 64 bb ff
	ff		 mov	 DWORD PTR tv65[ebp], eax
  0009c	83 bd 64 bb ff
	ff 00		 cmp	 DWORD PTR tv65[ebp], 0
  000a3	74 01		 je	 SHORT $LN9@LoadPerson
  000a5	cc		 int	 3
$LN9@LoadPerson:

; 908  : 			return false;

  000a6	c6 85 6f bb ff
	ff 00		 mov	 BYTE PTR $T6[ebp], 0
  000ad	c6 45 fc 00	 mov	 BYTE PTR __$EHRec$[ebp+12], 0
  000b1	8d 8d 08 fe ff
	ff		 lea	 ecx, DWORD PTR _PlatformDBModule$[ebp]
  000b7	e8 00 00 00 00	 call	 ??1CDataBaseHelper@@UAE@XZ
  000bc	c7 45 fc ff ff
	ff ff		 mov	 DWORD PTR __$EHRec$[ebp+12], -1
  000c3	8d 4d e0	 lea	 ecx, DWORD PTR _PlatformDBAide$[ebp]
  000c6	ff 15 00 00 00
	00		 call	 DWORD PTR __imp_??1CDataBaseAide@@UAE@XZ
  000cc	8a 85 6f bb ff
	ff		 mov	 al, BYTE PTR $T6[ebp]
  000d2	e9 e3 05 00 00	 jmp	 $LN1@LoadPerson
$LN5@LoadPerson:

; 909  : 		}
; 910  : 
; 911  : 		//设置对象
; 912  : 		PlatformDBAide.SetDataBase(PlatformDBModule.GetInterface());

  000d7	8d 8d 08 fe ff
	ff		 lea	 ecx, DWORD PTR _PlatformDBModule$[ebp]
  000dd	e8 00 00 00 00	 call	 ?GetInterface@?$CTempldateHelper@UIDataBase@@@@QBEPAUIDataBase@@XZ ; CTempldateHelper<IDataBase>::GetInterface
  000e2	89 85 64 bb ff
	ff		 mov	 DWORD PTR tv322[ebp], eax
  000e8	8b 85 64 bb ff
	ff		 mov	 eax, DWORD PTR tv322[ebp]
  000ee	50		 push	 eax
  000ef	8d 4d e0	 lea	 ecx, DWORD PTR _PlatformDBAide$[ebp]
  000f2	ff 15 00 00 00
	00		 call	 DWORD PTR __imp_?SetDataBase@CDataBaseAide@@QAE_NPAUIUnknownEx@@@Z

; 913  : 
; 914  : 		//读取列表
; 915  : 		PlatformDBAide.ResetParameter();

  000f8	8d 4d e0	 lea	 ecx, DWORD PTR _PlatformDBAide$[ebp]
  000fb	ff 15 00 00 00
	00		 call	 DWORD PTR __imp_?ResetParameter@CDataBaseAide@@QAEXXZ

; 916  : 		PlatformDBAide.AddParameter(TEXT("@wServerID"),wServerID);

  00101	6a 01		 push	 1
  00103	0f b7 45 10	 movzx	 eax, WORD PTR _wServerID$[ebp]
  00107	50		 push	 eax
  00108	68 00 00 00 00	 push	 OFFSET ??_C@_0L@FIEHJJML@?$EAwServerID@
  0010d	8d 4d e0	 lea	 ecx, DWORD PTR _PlatformDBAide$[ebp]
  00110	ff 15 00 00 00
	00		 call	 DWORD PTR __imp_?AddParameter@CDataBaseAide@@QAEXPBDGW4ParameterDirectionEnum@ADOCG@@@Z

; 917  : 
; 918  : 		//输出信息
; 919  : 		TCHAR szDescribeString[128]=TEXT("");

  00116	a0 00 00 00 00	 mov	 al, BYTE PTR ??_C@_00CNPNBAHC@@
  0011b	88 85 88 fd ff
	ff		 mov	 BYTE PTR _szDescribeString$14[ebp], al
  00121	6a 7f		 push	 127			; 0000007fH
  00123	6a 00		 push	 0
  00125	8d 85 89 fd ff
	ff		 lea	 eax, DWORD PTR _szDescribeString$14[ebp+1]
  0012b	50		 push	 eax
  0012c	e8 00 00 00 00	 call	 _memset
  00131	83 c4 0c	 add	 esp, 12			; 0000000cH

; 920  : 		PlatformDBAide.AddParameterOutput(TEXT("@strErrorDescribe"),szDescribeString,sizeof(szDescribeString),adParamOutput);

  00134	6a 02		 push	 2
  00136	68 80 00 00 00	 push	 128			; 00000080H
  0013b	8d 85 88 fd ff
	ff		 lea	 eax, DWORD PTR _szDescribeString$14[ebp]
  00141	50		 push	 eax
  00142	68 00 00 00 00	 push	 OFFSET ??_C@_0BC@IIOJPJPJ@?$EAstrErrorDescribe@
  00147	8d 4d e0	 lea	 ecx, DWORD PTR _PlatformDBAide$[ebp]
  0014a	ff 15 00 00 00
	00		 call	 DWORD PTR __imp_?AddParameterOutput@CDataBaseAide@@QAEXPBDPADIW4ParameterDirectionEnum@ADOCG@@@Z

; 921  : 
; 922  : 		//读取列表
; 923  : 		if (PlatformDBAide.ExecuteProcess(TEXT("GSP_GS_LoadPersonalRoomParameter"),true)!=DB_SUCCESS)

  00150	6a 01		 push	 1
  00152	68 00 00 00 00	 push	 OFFSET ??_C@_0CB@MMPODBFJ@GSP_GS_LoadPersonalRoomParamete@
  00157	8d 4d e0	 lea	 ecx, DWORD PTR _PlatformDBAide$[ebp]
  0015a	ff 15 00 00 00
	00		 call	 DWORD PTR __imp_?ExecuteProcess@CDataBaseAide@@QAEJPBD_N@Z
  00160	89 85 64 bb ff
	ff		 mov	 DWORD PTR tv323[ebp], eax
  00166	83 bd 64 bb ff
	ff 00		 cmp	 DWORD PTR tv323[ebp], 0
  0016d	74 6d		 je	 SHORT $LN6@LoadPerson

; 924  : 		{
; 925  : 			//获取信息
; 926  : 			PlatformDBAide.GetParameter(TEXT("@strErrorDescribe"),szDescribeString,CountArray(szDescribeString));

  0016f	68 80 00 00 00	 push	 128			; 00000080H
  00174	8d 85 88 fd ff
	ff		 lea	 eax, DWORD PTR _szDescribeString$14[ebp]
  0017a	50		 push	 eax
  0017b	68 00 00 00 00	 push	 OFFSET ??_C@_0BC@IIOJPJPJ@?$EAstrErrorDescribe@
  00180	8d 4d e0	 lea	 ecx, DWORD PTR _PlatformDBAide$[ebp]
  00183	ff 15 00 00 00
	00		 call	 DWORD PTR __imp_?GetParameter@CDataBaseAide@@QAEXPBDPADI@Z

; 927  : 
; 928  : 			//错误提示
; 929  : 			CTraceService::TraceString(szDescribeString,TraceLevel_Exception);

  00189	6a 03		 push	 3
  0018b	8d 85 88 fd ff
	ff		 lea	 eax, DWORD PTR _szDescribeString$14[ebp]
  00191	50		 push	 eax
  00192	ff 15 00 00 00
	00		 call	 DWORD PTR __imp_?TraceString@CTraceService@@SA_NPBDW4enTraceLevel@@@Z
  00198	83 c4 08	 add	 esp, 8

; 930  : 
; 931  : 			//错误提示
; 932  : 			AfxMessageBox(szDescribeString,MB_ICONERROR);

  0019b	6a 00		 push	 0
  0019d	6a 10		 push	 16			; 00000010H
  0019f	8d 85 88 fd ff
	ff		 lea	 eax, DWORD PTR _szDescribeString$14[ebp]
  001a5	50		 push	 eax
  001a6	e8 00 00 00 00	 call	 ?AfxMessageBox@@YGHPBDII@Z ; AfxMessageBox

; 933  : 
; 934  : 			return false;

  001ab	c6 85 6e bb ff
	ff 00		 mov	 BYTE PTR $T5[ebp], 0
  001b2	c6 45 fc 00	 mov	 BYTE PTR __$EHRec$[ebp+12], 0
  001b6	8d 8d 08 fe ff
	ff		 lea	 ecx, DWORD PTR _PlatformDBModule$[ebp]
  001bc	e8 00 00 00 00	 call	 ??1CDataBaseHelper@@UAE@XZ
  001c1	c7 45 fc ff ff
	ff ff		 mov	 DWORD PTR __$EHRec$[ebp+12], -1
  001c8	8d 4d e0	 lea	 ecx, DWORD PTR _PlatformDBAide$[ebp]
  001cb	ff 15 00 00 00
	00		 call	 DWORD PTR __imp_??1CDataBaseAide@@UAE@XZ
  001d1	8a 85 6e bb ff
	ff		 mov	 al, BYTE PTR $T5[ebp]
  001d7	e9 de 04 00 00	 jmp	 $LN1@LoadPerson
$LN6@LoadPerson:

; 935  : 		}
; 936  : 		//pesronalRoomOption.cbCardOrBean=PlatformDBAide.GetValue_BYTE(TEXT("CardOrBean"));
; 937  : 		//pesronalRoomOption.lFeeCardOrBeanCount=PlatformDBAide.GetValue_LONGLONG(TEXT("DiamondCount"));
; 938  : 		pesronalRoomOption.cbIsJoinGame=PlatformDBAide.GetValue_BYTE(TEXT("IsJoinGame"));

  001dc	68 00 00 00 00	 push	 OFFSET ??_C@_0L@HLGININO@IsJoinGame@
  001e1	8d 4d e0	 lea	 ecx, DWORD PTR _PlatformDBAide$[ebp]
  001e4	ff 15 00 00 00
	00		 call	 DWORD PTR __imp_?GetValue_BYTE@CDataBaseAide@@QAEEPBD@Z
  001ea	88 85 6a bb ff
	ff		 mov	 BYTE PTR tv324[ebp], al
  001f0	8b 45 08	 mov	 eax, DWORD PTR _pesronalRoomOption$[ebp]
  001f3	8a 8d 6a bb ff
	ff		 mov	 cl, BYTE PTR tv324[ebp]
  001f9	88 08		 mov	 BYTE PTR [eax], cl

; 939  : 		pesronalRoomOption.cbMinPeople=PlatformDBAide.GetValue_BYTE(TEXT("MinPeople"));

  001fb	68 00 00 00 00	 push	 OFFSET ??_C@_09BAGGAEBH@MinPeople@
  00200	8d 4d e0	 lea	 ecx, DWORD PTR _PlatformDBAide$[ebp]
  00203	ff 15 00 00 00
	00		 call	 DWORD PTR __imp_?GetValue_BYTE@CDataBaseAide@@QAEEPBD@Z
  00209	88 85 6a bb ff
	ff		 mov	 BYTE PTR tv325[ebp], al
  0020f	8b 45 08	 mov	 eax, DWORD PTR _pesronalRoomOption$[ebp]
  00212	8a 8d 6a bb ff
	ff		 mov	 cl, BYTE PTR tv325[ebp]
  00218	88 48 01	 mov	 BYTE PTR [eax+1], cl

; 940  : 		pesronalRoomOption.cbMaxPeople=PlatformDBAide.GetValue_BYTE(TEXT("MaxPeople"));

  0021b	68 00 00 00 00	 push	 OFFSET ??_C@_09BBGKJOKD@MaxPeople@
  00220	8d 4d e0	 lea	 ecx, DWORD PTR _PlatformDBAide$[ebp]
  00223	ff 15 00 00 00
	00		 call	 DWORD PTR __imp_?GetValue_BYTE@CDataBaseAide@@QAEEPBD@Z
  00229	88 85 6a bb ff
	ff		 mov	 BYTE PTR tv326[ebp], al
  0022f	8b 45 08	 mov	 eax, DWORD PTR _pesronalRoomOption$[ebp]
  00232	8a 8d 6a bb ff
	ff		 mov	 cl, BYTE PTR tv326[ebp]
  00238	88 48 02	 mov	 BYTE PTR [eax+2], cl

; 941  : 		pesronalRoomOption.lMaxCellScore=PlatformDBAide.GetValue_LONGLONG(TEXT("MaxCellScore"));

  0023b	68 00 00 00 00	 push	 OFFSET ??_C@_0N@CNCFIDBJ@MaxCellScore@
  00240	8d 4d e0	 lea	 ecx, DWORD PTR _PlatformDBAide$[ebp]
  00243	ff 15 00 00 00
	00		 call	 DWORD PTR __imp_?GetValue_LONGLONG@CDataBaseAide@@QAE_JPBD@Z
  00249	89 85 60 bb ff
	ff		 mov	 DWORD PTR tv327[ebp], eax
  0024f	89 95 64 bb ff
	ff		 mov	 DWORD PTR tv327[ebp+4], edx
  00255	8b 45 08	 mov	 eax, DWORD PTR _pesronalRoomOption$[ebp]
  00258	8b 8d 60 bb ff
	ff		 mov	 ecx, DWORD PTR tv327[ebp]
  0025e	89 48 03	 mov	 DWORD PTR [eax+3], ecx
  00261	8b 95 64 bb ff
	ff		 mov	 edx, DWORD PTR tv327[ebp+4]
  00267	89 50 07	 mov	 DWORD PTR [eax+7], edx

; 942  : 		pesronalRoomOption.lPersonalRoomTax=PlatformDBAide.GetValue_LONGLONG(TEXT("PersonalRoomTax"));

  0026a	68 00 00 00 00	 push	 OFFSET ??_C@_0BA@GCOMLPGF@PersonalRoomTax@
  0026f	8d 4d e0	 lea	 ecx, DWORD PTR _PlatformDBAide$[ebp]
  00272	ff 15 00 00 00
	00		 call	 DWORD PTR __imp_?GetValue_LONGLONG@CDataBaseAide@@QAE_JPBD@Z
  00278	89 85 60 bb ff
	ff		 mov	 DWORD PTR tv328[ebp], eax
  0027e	89 95 64 bb ff
	ff		 mov	 DWORD PTR tv328[ebp+4], edx
  00284	8b 45 08	 mov	 eax, DWORD PTR _pesronalRoomOption$[ebp]
  00287	8b 8d 60 bb ff
	ff		 mov	 ecx, DWORD PTR tv328[ebp]
  0028d	89 48 0b	 mov	 DWORD PTR [eax+11], ecx
  00290	8b 95 64 bb ff
	ff		 mov	 edx, DWORD PTR tv328[ebp+4]
  00296	89 50 0f	 mov	 DWORD PTR [eax+15], edx

; 943  : 
; 944  : 		pesronalRoomOption.wCanCreateCount=PlatformDBAide.GetValue_WORD(TEXT("CanCreateCount"));

  00299	68 00 00 00 00	 push	 OFFSET ??_C@_0P@LNMJOPEM@CanCreateCount@
  0029e	8d 4d e0	 lea	 ecx, DWORD PTR _PlatformDBAide$[ebp]
  002a1	ff 15 00 00 00
	00		 call	 DWORD PTR __imp_?GetValue_WORD@CDataBaseAide@@QAEGPBD@Z
  002a7	66 89 85 68 bb
	ff ff		 mov	 WORD PTR tv329[ebp], ax
  002ae	8b 45 08	 mov	 eax, DWORD PTR _pesronalRoomOption$[ebp]
  002b1	66 8b 8d 68 bb
	ff ff		 mov	 cx, WORD PTR tv329[ebp]
  002b8	66 89 48 53	 mov	 WORD PTR [eax+83], cx

; 945  : 		pesronalRoomOption.dwPlayTimeLimit=PlatformDBAide.GetValue_DWORD(TEXT("PlayTurnCount"));

  002bc	68 00 00 00 00	 push	 OFFSET ??_C@_0O@FDPMPBME@PlayTurnCount@
  002c1	8d 4d e0	 lea	 ecx, DWORD PTR _PlatformDBAide$[ebp]
  002c4	ff 15 00 00 00
	00		 call	 DWORD PTR __imp_?GetValue_DWORD@CDataBaseAide@@QAEKPBD@Z
  002ca	89 85 64 bb ff
	ff		 mov	 DWORD PTR tv330[ebp], eax
  002d0	8b 45 08	 mov	 eax, DWORD PTR _pesronalRoomOption$[ebp]
  002d3	8b 8d 64 bb ff
	ff		 mov	 ecx, DWORD PTR tv330[ebp]
  002d9	89 48 59	 mov	 DWORD PTR [eax+89], ecx

; 946  : 		pesronalRoomOption.dwPlayTurnCount=PlatformDBAide.GetValue_DWORD(TEXT("PlayTimeLimit"));

  002dc	68 00 00 00 00	 push	 OFFSET ??_C@_0O@FAGABJFM@PlayTimeLimit@
  002e1	8d 4d e0	 lea	 ecx, DWORD PTR _PlatformDBAide$[ebp]
  002e4	ff 15 00 00 00
	00		 call	 DWORD PTR __imp_?GetValue_DWORD@CDataBaseAide@@QAEKPBD@Z
  002ea	89 85 64 bb ff
	ff		 mov	 DWORD PTR tv331[ebp], eax
  002f0	8b 45 08	 mov	 eax, DWORD PTR _pesronalRoomOption$[ebp]
  002f3	8b 8d 64 bb ff
	ff		 mov	 ecx, DWORD PTR tv331[ebp]
  002f9	89 48 55	 mov	 DWORD PTR [eax+85], ecx

; 947  : 
; 948  : 		pesronalRoomOption.dwTimeAfterBeginCount=PlatformDBAide.GetValue_DWORD(TEXT("TimeAfterBeginCount"));

  002fc	68 00 00 00 00	 push	 OFFSET ??_C@_0BE@NHDBBOLF@TimeAfterBeginCount@
  00301	8d 4d e0	 lea	 ecx, DWORD PTR _PlatformDBAide$[ebp]
  00304	ff 15 00 00 00
	00		 call	 DWORD PTR __imp_?GetValue_DWORD@CDataBaseAide@@QAEKPBD@Z
  0030a	89 85 64 bb ff
	ff		 mov	 DWORD PTR tv332[ebp], eax
  00310	8b 45 08	 mov	 eax, DWORD PTR _pesronalRoomOption$[ebp]
  00313	8b 8d 64 bb ff
	ff		 mov	 ecx, DWORD PTR tv332[ebp]
  00319	89 48 5d	 mov	 DWORD PTR [eax+93], ecx

; 949  : 		pesronalRoomOption.dwTimeOffLineCount=PlatformDBAide.GetValue_DWORD(TEXT("TimeOffLineCount"));

  0031c	68 00 00 00 00	 push	 OFFSET ??_C@_0BB@BHHEMCMJ@TimeOffLineCount@
  00321	8d 4d e0	 lea	 ecx, DWORD PTR _PlatformDBAide$[ebp]
  00324	ff 15 00 00 00
	00		 call	 DWORD PTR __imp_?GetValue_DWORD@CDataBaseAide@@QAEKPBD@Z
  0032a	89 85 64 bb ff
	ff		 mov	 DWORD PTR tv333[ebp], eax
  00330	8b 45 08	 mov	 eax, DWORD PTR _pesronalRoomOption$[ebp]
  00333	8b 8d 64 bb ff
	ff		 mov	 ecx, DWORD PTR tv333[ebp]
  00339	89 48 61	 mov	 DWORD PTR [eax+97], ecx

; 950  : 		pesronalRoomOption.dwTimeNotBeginGame=PlatformDBAide.GetValue_DWORD(TEXT("TimeNotBeginGame"));

  0033c	68 00 00 00 00	 push	 OFFSET ??_C@_0BB@EFKEMBID@TimeNotBeginGame@
  00341	8d 4d e0	 lea	 ecx, DWORD PTR _PlatformDBAide$[ebp]
  00344	ff 15 00 00 00
	00		 call	 DWORD PTR __imp_?GetValue_DWORD@CDataBaseAide@@QAEKPBD@Z
  0034a	89 85 64 bb ff
	ff		 mov	 DWORD PTR tv334[ebp], eax
  00350	8b 45 08	 mov	 eax, DWORD PTR _pesronalRoomOption$[ebp]
  00353	8b 8d 64 bb ff
	ff		 mov	 ecx, DWORD PTR tv334[ebp]
  00359	89 48 65	 mov	 DWORD PTR [eax+101], ecx

; 951  : 		pesronalRoomOption.dwTimeAfterCreateRoom = PlatformDBAide.GetValue_DWORD(TEXT("TimeNotBeginAfterCreateRoom"));

  0035c	68 00 00 00 00	 push	 OFFSET ??_C@_0BM@CMLNFFIM@TimeNotBeginAfterCreateRoom@
  00361	8d 4d e0	 lea	 ecx, DWORD PTR _PlatformDBAide$[ebp]
  00364	ff 15 00 00 00
	00		 call	 DWORD PTR __imp_?GetValue_DWORD@CDataBaseAide@@QAEKPBD@Z
  0036a	89 85 64 bb ff
	ff		 mov	 DWORD PTR tv335[ebp], eax
  00370	8b 45 08	 mov	 eax, DWORD PTR _pesronalRoomOption$[ebp]
  00373	8b 8d 64 bb ff
	ff		 mov	 ecx, DWORD PTR tv335[ebp]
  00379	89 48 69	 mov	 DWORD PTR [eax+105], ecx

; 952  : 		pesronalRoomOption.wBeginFreeTime = PlatformDBAide.GetValue_INT(TEXT("BeginFreeTime"));

  0037c	68 00 00 00 00	 push	 OFFSET ??_C@_0O@DEEAMCAI@BeginFreeTime@
  00381	8d 4d e0	 lea	 ecx, DWORD PTR _PlatformDBAide$[ebp]
  00384	ff 15 00 00 00
	00		 call	 DWORD PTR __imp_?GetValue_INT@CDataBaseAide@@QAEHPBD@Z
  0038a	89 85 64 bb ff
	ff		 mov	 DWORD PTR tv336[ebp], eax
  00390	8b 45 08	 mov	 eax, DWORD PTR _pesronalRoomOption$[ebp]
  00393	66 8b 8d 64 bb
	ff ff		 mov	 cx, WORD PTR tv336[ebp]
  0039a	66 89 48 6d	 mov	 WORD PTR [eax+109], cx

; 953  : 		pesronalRoomOption.wEndFreeTime = PlatformDBAide.GetValue_INT(TEXT("EndFreeTime"));

  0039e	68 00 00 00 00	 push	 OFFSET ??_C@_0M@OHDGOHJM@EndFreeTime@
  003a3	8d 4d e0	 lea	 ecx, DWORD PTR _PlatformDBAide$[ebp]
  003a6	ff 15 00 00 00
	00		 call	 DWORD PTR __imp_?GetValue_INT@CDataBaseAide@@QAEHPBD@Z
  003ac	89 85 64 bb ff
	ff		 mov	 DWORD PTR tv338[ebp], eax
  003b2	8b 45 08	 mov	 eax, DWORD PTR _pesronalRoomOption$[ebp]
  003b5	66 8b 8d 64 bb
	ff ff		 mov	 cx, WORD PTR tv338[ebp]
  003bc	66 89 48 6f	 mov	 WORD PTR [eax+111], cx

; 954  : 
; 955  : 		//读取创建私人房间权限
; 956  : 		personalRoomOptionRightAndFee.cbCreateRight =  PlatformDBAide.GetValue_BYTE(TEXT("CreateRight"));

  003c0	68 00 00 00 00	 push	 OFFSET ??_C@_0M@JGNJEEEJ@CreateRight@
  003c5	8d 4d e0	 lea	 ecx, DWORD PTR _PlatformDBAide$[ebp]
  003c8	ff 15 00 00 00
	00		 call	 DWORD PTR __imp_?GetValue_BYTE@CDataBaseAide@@QAEEPBD@Z
  003ce	88 85 6a bb ff
	ff		 mov	 BYTE PTR tv340[ebp], al
  003d4	8b 45 0c	 mov	 eax, DWORD PTR _personalRoomOptionRightAndFee$[ebp]
  003d7	8a 8d 6a bb ff
	ff		 mov	 cl, BYTE PTR tv340[ebp]
  003dd	88 08		 mov	 BYTE PTR [eax], cl

; 957  : 
; 958  : 
; 959  : 		//获取游戏类型id
; 960  : 
; 961  : 		//获取私人房间配置信息
; 962  : 		//构造参数
; 963  : 		PlatformDBAide.ResetParameter();

  003df	8d 4d e0	 lea	 ecx, DWORD PTR _PlatformDBAide$[ebp]
  003e2	ff 15 00 00 00
	00		 call	 DWORD PTR __imp_?ResetParameter@CDataBaseAide@@QAEXXZ

; 964  : 		PlatformDBAide.AddParameter(TEXT("@dwKindID"), wServerID);

  003e8	6a 01		 push	 1
  003ea	0f b7 45 10	 movzx	 eax, WORD PTR _wServerID$[ebp]
  003ee	50		 push	 eax
  003ef	68 00 00 00 00	 push	 OFFSET ??_C@_09DFDKDCCP@?$EAdwKindID@
  003f4	8d 4d e0	 lea	 ecx, DWORD PTR _PlatformDBAide$[ebp]
  003f7	ff 15 00 00 00
	00		 call	 DWORD PTR __imp_?AddParameter@CDataBaseAide@@QAEXPBDGW4ParameterDirectionEnum@ADOCG@@@Z

; 965  : 
; 966  : 		//输出参数
; 967  : 		//TCHAR szDescribeString[128]=TEXT("");
; 968  : 		PlatformDBAide.AddParameterOutput(TEXT("@strErrorDescribe"),szDescribeString,sizeof(szDescribeString),adParamOutput);

  003fd	6a 02		 push	 2
  003ff	68 80 00 00 00	 push	 128			; 00000080H
  00404	8d 85 88 fd ff
	ff		 lea	 eax, DWORD PTR _szDescribeString$14[ebp]
  0040a	50		 push	 eax
  0040b	68 00 00 00 00	 push	 OFFSET ??_C@_0BC@IIOJPJPJ@?$EAstrErrorDescribe@
  00410	8d 4d e0	 lea	 ecx, DWORD PTR _PlatformDBAide$[ebp]
  00413	ff 15 00 00 00
	00		 call	 DWORD PTR __imp_?AddParameterOutput@CDataBaseAide@@QAEXPBDPADIW4ParameterDirectionEnum@ADOCG@@@Z

; 969  : 
; 970  : 		int lResultCode = PlatformDBAide.ExecuteProcess(TEXT("GSP_MB_GetPersonalFeeParameter"), true);

  00419	6a 01		 push	 1
  0041b	68 00 00 00 00	 push	 OFFSET ??_C@_0BP@BLHAELOH@GSP_MB_GetPersonalFeeParameter@
  00420	8d 4d e0	 lea	 ecx, DWORD PTR _PlatformDBAide$[ebp]
  00423	ff 15 00 00 00
	00		 call	 DWORD PTR __imp_?ExecuteProcess@CDataBaseAide@@QAEJPBD_N@Z
  00429	89 85 64 bb ff
	ff		 mov	 DWORD PTR tv341[ebp], eax
  0042f	8b 85 64 bb ff
	ff		 mov	 eax, DWORD PTR tv341[ebp]
  00435	89 85 84 fd ff
	ff		 mov	 DWORD PTR _lResultCode$13[ebp], eax

; 971  : 
; 972  : 		if(lResultCode == DB_SUCCESS)

  0043b	83 bd 84 fd ff
	ff 00		 cmp	 DWORD PTR _lResultCode$13[ebp], 0
  00442	0f 85 94 01 00
	00		 jne	 $LN7@LoadPerson

; 973  : 		{
; 974  : 			//变量定义
; 975  : 			DWORD dwPaketSize = 0;

  00448	c7 85 80 fd ff
	ff 00 00 00 00	 mov	 DWORD PTR _dwPaketSize$12[ebp], 0

; 976  : 			BYTE cbBuffer[MAX_ASYNCHRONISM_DATA];
; 977  : 			tagPersonalTableFeeList * pPersonalTableParameter=NULL;

  00452	c7 85 7c bd ff
	ff 00 00 00 00	 mov	 DWORD PTR _pPersonalTableParameter$10[ebp], 0

; 978  : 			ZeroMemory(cbBuffer, sizeof(cbBuffer));

  0045c	68 00 40 00 00	 push	 16384			; 00004000H
  00461	6a 00		 push	 0
  00463	8d 85 80 bd ff
	ff		 lea	 eax, DWORD PTR _cbBuffer$11[ebp]
  00469	50		 push	 eax
  0046a	e8 00 00 00 00	 call	 _memset
  0046f	83 c4 0c	 add	 esp, 12			; 0000000cH

; 979  : 			int iCount = 0;

  00472	c7 85 78 bd ff
	ff 00 00 00 00	 mov	 DWORD PTR _iCount$9[ebp], 0
$LN2@LoadPerson:

; 980  : 			while (PlatformDBModule->IsRecordsetEnd()==false)

  0047c	8d 8d 08 fe ff
	ff		 lea	 ecx, DWORD PTR _PlatformDBModule$[ebp]
  00482	e8 00 00 00 00	 call	 ??C?$CTempldateHelper@UIDataBase@@@@QBEPAUIDataBase@@XZ ; CTempldateHelper<IDataBase>::operator->
  00487	89 85 64 bb ff
	ff		 mov	 DWORD PTR tv342[ebp], eax
  0048d	8b 85 64 bb ff
	ff		 mov	 eax, DWORD PTR tv342[ebp]
  00493	89 85 60 bb ff
	ff		 mov	 DWORD PTR tv246[ebp], eax
  00499	8b 8d 60 bb ff
	ff		 mov	 ecx, DWORD PTR tv246[ebp]
  0049f	8b 11		 mov	 edx, DWORD PTR [ecx]
  004a1	8b 8d 60 bb ff
	ff		 mov	 ecx, DWORD PTR tv246[ebp]
  004a7	8b 42 38	 mov	 eax, DWORD PTR [edx+56]
  004aa	ff d0		 call	 eax
  004ac	88 85 5f bb ff
	ff		 mov	 BYTE PTR tv343[ebp], al
  004b2	0f b6 8d 5f bb
	ff ff		 movzx	 ecx, BYTE PTR tv343[ebp]
  004b9	85 c9		 test	 ecx, ecx
  004bb	0f 85 1b 01 00
	00		 jne	 $LN7@LoadPerson

; 981  : 			{
; 982  : 				//读取信息
; 983  : 				personalRoomOptionRightAndFee.stCreateRoomPayFee[iCount].dwPlayTurnLimit = PlatformDBAide.GetValue_DWORD(TEXT("DrawCountLimit"));

  004c1	68 00 00 00 00	 push	 OFFSET ??_C@_0P@MBIIKCNO@DrawCountLimit@
  004c6	8d 4d e0	 lea	 ecx, DWORD PTR _PlatformDBAide$[ebp]
  004c9	ff 15 00 00 00
	00		 call	 DWORD PTR __imp_?GetValue_DWORD@CDataBaseAide@@QAEKPBD@Z
  004cf	89 85 64 bb ff
	ff		 mov	 DWORD PTR tv344[ebp], eax
  004d5	6b 85 78 bd ff
	ff 13		 imul	 eax, DWORD PTR _iCount$9[ebp], 19
  004dc	8b 4d 0c	 mov	 ecx, DWORD PTR _personalRoomOptionRightAndFee$[ebp]
  004df	8b 95 64 bb ff
	ff		 mov	 edx, DWORD PTR tv344[ebp]
  004e5	89 54 01 16	 mov	 DWORD PTR [ecx+eax+22], edx

; 984  : 				personalRoomOptionRightAndFee.stCreateRoomPayFee[iCount].dwPayFee = static_cast<DWORD>(PlatformDBAide.GetValue_LONGLONG(TEXT("TableFee")));

  004e9	68 00 00 00 00	 push	 OFFSET ??_C@_08PACNKABG@TableFee@
  004ee	8d 4d e0	 lea	 ecx, DWORD PTR _PlatformDBAide$[ebp]
  004f1	ff 15 00 00 00
	00		 call	 DWORD PTR __imp_?GetValue_LONGLONG@CDataBaseAide@@QAE_JPBD@Z
  004f7	89 85 60 bb ff
	ff		 mov	 DWORD PTR tv345[ebp], eax
  004fd	89 95 64 bb ff
	ff		 mov	 DWORD PTR tv345[ebp+4], edx
  00503	8b 85 60 bb ff
	ff		 mov	 eax, DWORD PTR tv345[ebp]
  00509	6b 8d 78 bd ff
	ff 13		 imul	 ecx, DWORD PTR _iCount$9[ebp], 19
  00510	8b 55 0c	 mov	 edx, DWORD PTR _personalRoomOptionRightAndFee$[ebp]
  00513	89 44 0a 1e	 mov	 DWORD PTR [edx+ecx+30], eax

; 985  : 				personalRoomOptionRightAndFee.stCreateRoomPayFee[iCount].wAAPayFee = static_cast<DWORD>(PlatformDBAide.GetValue_WORD(TEXT("AAPayFee")));

  00517	68 00 00 00 00	 push	 OFFSET ??_C@_08MJHOBIFI@AAPayFee@
  0051c	8d 4d e0	 lea	 ecx, DWORD PTR _PlatformDBAide$[ebp]
  0051f	ff 15 00 00 00
	00		 call	 DWORD PTR __imp_?GetValue_WORD@CDataBaseAide@@QAEGPBD@Z
  00525	66 89 85 68 bb
	ff ff		 mov	 WORD PTR tv346[ebp], ax
  0052c	6b 85 78 bd ff
	ff 13		 imul	 eax, DWORD PTR _iCount$9[ebp], 19
  00533	8b 4d 0c	 mov	 ecx, DWORD PTR _personalRoomOptionRightAndFee$[ebp]
  00536	66 8b 95 68 bb
	ff ff		 mov	 dx, WORD PTR tv346[ebp]
  0053d	66 89 54 01 22	 mov	 WORD PTR [ecx+eax+34], dx

; 986  : 				personalRoomOptionRightAndFee.stCreateRoomPayFee[iCount].dwIniScore =static_cast<DWORD>(PlatformDBAide.GetValue_LONGLONG(TEXT("IniScore")));

  00542	68 00 00 00 00	 push	 OFFSET ??_C@_08MILKFGPP@IniScore@
  00547	8d 4d e0	 lea	 ecx, DWORD PTR _PlatformDBAide$[ebp]
  0054a	ff 15 00 00 00
	00		 call	 DWORD PTR __imp_?GetValue_LONGLONG@CDataBaseAide@@QAE_JPBD@Z
  00550	89 85 60 bb ff
	ff		 mov	 DWORD PTR tv347[ebp], eax
  00556	89 95 64 bb ff
	ff		 mov	 DWORD PTR tv347[ebp+4], edx
  0055c	8b 85 60 bb ff
	ff		 mov	 eax, DWORD PTR tv347[ebp]
  00562	6b 8d 78 bd ff
	ff 13		 imul	 ecx, DWORD PTR _iCount$9[ebp], 19
  00569	8b 55 0c	 mov	 edx, DWORD PTR _personalRoomOptionRightAndFee$[ebp]
  0056c	89 44 0a 24	 mov	 DWORD PTR [edx+ecx+36], eax

; 987  : 				personalRoomOptionRightAndFee.stCreateRoomPayFee[iCount].cbGameMode = PlatformDBAide.GetValue_BYTE(TEXT("GameMode"));

  00570	68 00 00 00 00	 push	 OFFSET ??_C@_08JJGOBBMF@GameMode@
  00575	8d 4d e0	 lea	 ecx, DWORD PTR _PlatformDBAide$[ebp]
  00578	ff 15 00 00 00
	00		 call	 DWORD PTR __imp_?GetValue_BYTE@CDataBaseAide@@QAEEPBD@Z
  0057e	88 85 6a bb ff
	ff		 mov	 BYTE PTR tv348[ebp], al
  00584	6b 85 78 bd ff
	ff 13		 imul	 eax, DWORD PTR _iCount$9[ebp], 19
  0058b	8b 4d 0c	 mov	 ecx, DWORD PTR _personalRoomOptionRightAndFee$[ebp]
  0058e	8a 95 6a bb ff
	ff		 mov	 dl, BYTE PTR tv348[ebp]
  00594	88 54 01 15	 mov	 BYTE PTR [ecx+eax+21], dl

; 988  : 
; 989  : 				iCount++;

  00598	8b 85 78 bd ff
	ff		 mov	 eax, DWORD PTR _iCount$9[ebp]
  0059e	83 c0 01	 add	 eax, 1
  005a1	89 85 78 bd ff
	ff		 mov	 DWORD PTR _iCount$9[ebp], eax

; 990  : 				//移动记录
; 991  : 				PlatformDBModule->MoveToNext();

  005a7	8d 8d 08 fe ff
	ff		 lea	 ecx, DWORD PTR _PlatformDBModule$[ebp]
  005ad	e8 00 00 00 00	 call	 ??C?$CTempldateHelper@UIDataBase@@@@QBEPAUIDataBase@@XZ ; CTempldateHelper<IDataBase>::operator->
  005b2	89 85 64 bb ff
	ff		 mov	 DWORD PTR tv349[ebp], eax
  005b8	8b 85 64 bb ff
	ff		 mov	 eax, DWORD PTR tv349[ebp]
  005be	89 85 60 bb ff
	ff		 mov	 DWORD PTR tv297[ebp], eax
  005c4	8b 8d 60 bb ff
	ff		 mov	 ecx, DWORD PTR tv297[ebp]
  005ca	8b 11		 mov	 edx, DWORD PTR [ecx]
  005cc	8b 8d 60 bb ff
	ff		 mov	 ecx, DWORD PTR tv297[ebp]
  005d2	8b 42 30	 mov	 eax, DWORD PTR [edx+48]
  005d5	ff d0		 call	 eax

; 992  : 			}

  005d7	e9 a0 fe ff ff	 jmp	 $LN2@LoadPerson
$LN7@LoadPerson:

; 993  : 		}
; 994  : 
; 995  : 
; 996  : 		return true;

  005dc	c6 85 6d bb ff
	ff 01		 mov	 BYTE PTR $T4[ebp], 1
  005e3	c6 45 fc 00	 mov	 BYTE PTR __$EHRec$[ebp+12], 0
  005e7	8d 8d 08 fe ff
	ff		 lea	 ecx, DWORD PTR _PlatformDBModule$[ebp]
  005ed	e8 00 00 00 00	 call	 ??1CDataBaseHelper@@UAE@XZ
  005f2	c7 45 fc ff ff
	ff ff		 mov	 DWORD PTR __$EHRec$[ebp+12], -1
  005f9	8d 4d e0	 lea	 ecx, DWORD PTR _PlatformDBAide$[ebp]
  005fc	ff 15 00 00 00
	00		 call	 DWORD PTR __imp_??1CDataBaseAide@@UAE@XZ
  00602	8a 85 6d bb ff
	ff		 mov	 al, BYTE PTR $T4[ebp]
  00608	e9 ad 00 00 00	 jmp	 $LN1@LoadPerson
__catch$?LoadPersonalRoomParameter@CServerInfoManager@@QAE_NAAUtagPersonalRoomOption@@AAUtagPersonalRoomOptionRightAndFee@@G@Z$0:

; 997  : 
; 998  : 
; 999  : 
; 1000 : 	}
; 1001 : 	catch (IDataBaseException * pIException)
; 1002 : 	{
; 1003 : 		//错误信息
; 1004 : 		LPCTSTR pszDescribe=pIException->GetExceptionDescribe();

  0060d	8b 85 74 bd ff
	ff		 mov	 eax, DWORD PTR _pIException$8[ebp]
  00613	8b 10		 mov	 edx, DWORD PTR [eax]
  00615	8b 8d 74 bd ff
	ff		 mov	 ecx, DWORD PTR _pIException$8[ebp]
  0061b	8b 42 0c	 mov	 eax, DWORD PTR [edx+12]
  0061e	ff d0		 call	 eax
  00620	89 85 70 bd ff
	ff		 mov	 DWORD PTR _pszDescribe$7[ebp], eax

; 1005 : 		CTraceService::TraceString(pszDescribe,TraceLevel_Exception);

  00626	6a 03		 push	 3
  00628	8b 85 70 bd ff
	ff		 mov	 eax, DWORD PTR _pszDescribe$7[ebp]
  0062e	50		 push	 eax
  0062f	ff 15 00 00 00
	00		 call	 DWORD PTR __imp_?TraceString@CTraceService@@SA_NPBDW4enTraceLevel@@@Z
  00635	83 c4 08	 add	 esp, 8

; 1006 : 
; 1007 : 		//错误提示
; 1008 : 		AfxMessageBox(pszDescribe,MB_ICONERROR);

  00638	6a 00		 push	 0
  0063a	6a 10		 push	 16			; 00000010H
  0063c	8b 85 70 bd ff
	ff		 mov	 eax, DWORD PTR _pszDescribe$7[ebp]
  00642	50		 push	 eax
  00643	e8 00 00 00 00	 call	 ?AfxMessageBox@@YGHPBDII@Z ; AfxMessageBox

; 1009 : 
; 1010 : 
; 1011 : 		return false;

  00648	c6 85 6c bb ff
	ff 00		 mov	 BYTE PTR $T3[ebp], 0
  0064f	b8 00 00 00 00	 mov	 eax, $LN15@LoadPerson
  00654	c3		 ret	 0

; 1012 : 	}

  00655	b8 00 00 00 00	 mov	 eax, __tryend$?LoadPersonalRoomParameter@CServerInfoManager@@QAE_NAAUtagPersonalRoomOption@@AAUtagPersonalRoomOptionRightAndFee@@G@Z$1
  0065a	c3		 ret	 0
__tryend$?LoadPersonalRoomParameter@CServerInfoManager@@QAE_NAAUtagPersonalRoomOption@@AAUtagPersonalRoomOptionRightAndFee@@G@Z$1:
  0065b	c7 45 fc 01 00
	00 00		 mov	 DWORD PTR __$EHRec$[ebp+12], 1
  00662	eb 2a		 jmp	 SHORT $LN14@LoadPerson
$LN15@LoadPerson:

; 1009 : 
; 1010 : 
; 1011 : 		return false;

  00664	c7 45 fc 00 00
	00 00		 mov	 DWORD PTR __$EHRec$[ebp+12], 0
  0066b	8d 8d 08 fe ff
	ff		 lea	 ecx, DWORD PTR _PlatformDBModule$[ebp]
  00671	e8 00 00 00 00	 call	 ??1CDataBaseHelper@@UAE@XZ
  00676	c7 45 fc ff ff
	ff ff		 mov	 DWORD PTR __$EHRec$[ebp+12], -1
  0067d	8d 4d e0	 lea	 ecx, DWORD PTR _PlatformDBAide$[ebp]
  00680	ff 15 00 00 00
	00		 call	 DWORD PTR __imp_??1CDataBaseAide@@UAE@XZ
  00686	8a 85 6c bb ff
	ff		 mov	 al, BYTE PTR $T3[ebp]
  0068c	eb 2c		 jmp	 SHORT $LN1@LoadPerson
$LN14@LoadPerson:

; 1013 : 
; 1014 : 	return false;

  0068e	c6 85 6b bb ff
	ff 00		 mov	 BYTE PTR $T2[ebp], 0
  00695	c6 45 fc 00	 mov	 BYTE PTR __$EHRec$[ebp+12], 0
  00699	8d 8d 08 fe ff
	ff		 lea	 ecx, DWORD PTR _PlatformDBModule$[ebp]
  0069f	e8 00 00 00 00	 call	 ??1CDataBaseHelper@@UAE@XZ
  006a4	c7 45 fc ff ff
	ff ff		 mov	 DWORD PTR __$EHRec$[ebp+12], -1
  006ab	8d 4d e0	 lea	 ecx, DWORD PTR _PlatformDBAide$[ebp]
  006ae	ff 15 00 00 00
	00		 call	 DWORD PTR __imp_??1CDataBaseAide@@UAE@XZ
  006b4	8a 85 6b bb ff
	ff		 mov	 al, BYTE PTR $T2[ebp]
$LN1@LoadPerson:

; 1015 : }

  006ba	8b 4d f4	 mov	 ecx, DWORD PTR __$EHRec$[ebp+4]
  006bd	64 89 0d 00 00
	00 00		 mov	 DWORD PTR fs:0, ecx
  006c4	59		 pop	 ecx
  006c5	5f		 pop	 edi
  006c6	5e		 pop	 esi
  006c7	5b		 pop	 ebx
  006c8	8b 4d ec	 mov	 ecx, DWORD PTR __$ArrayPad$[ebp]
  006cb	33 cd		 xor	 ecx, ebp
  006cd	e8 00 00 00 00	 call	 @__security_check_cookie@4
  006d2	8b e5		 mov	 esp, ebp
  006d4	5d		 pop	 ebp
  006d5	c2 0c 00	 ret	 12			; 0000000cH
_TEXT	ENDS
;	COMDAT text$x
text$x	SEGMENT
__unwindfunclet$?LoadPersonalRoomParameter@CServerInfoManager@@QAE_NAAUtagPersonalRoomOption@@AAUtagPersonalRoomOptionRightAndFee@@G@Z$2:
  00000	8d 4d e0	 lea	 ecx, DWORD PTR _PlatformDBAide$[ebp]
  00003	ff 25 00 00 00
	00		 jmp	 DWORD PTR __imp_??1CDataBaseAide@@UAE@XZ
__unwindfunclet$?LoadPersonalRoomParameter@CServerInfoManager@@QAE_NAAUtagPersonalRoomOption@@AAUtagPersonalRoomOptionRightAndFee@@G@Z$3:
  00009	8d 8d 08 fe ff
	ff		 lea	 ecx, DWORD PTR _PlatformDBModule$[ebp]
  0000f	e9 00 00 00 00	 jmp	 ??1CDataBaseHelper@@UAE@XZ
__ehhandler$?LoadPersonalRoomParameter@CServerInfoManager@@QAE_NAAUtagPersonalRoomOption@@AAUtagPersonalRoomOptionRightAndFee@@G@Z:
  00014	8b 54 24 08	 mov	 edx, DWORD PTR [esp+8]
  00018	8d 42 0c	 lea	 eax, DWORD PTR [edx+12]
  0001b	8b 8a 58 bb ff
	ff		 mov	 ecx, DWORD PTR [edx-17576]
  00021	33 c8		 xor	 ecx, eax
  00023	e8 00 00 00 00	 call	 @__security_check_cookie@4
  00028	8b 4a f8	 mov	 ecx, DWORD PTR [edx-8]
  0002b	33 c8		 xor	 ecx, eax
  0002d	e8 00 00 00 00	 call	 @__security_check_cookie@4
  00032	b8 00 00 00 00	 mov	 eax, OFFSET __ehfuncinfo$?LoadPersonalRoomParameter@CServerInfoManager@@QAE_NAAUtagPersonalRoomOption@@AAUtagPersonalRoomOptionRightAndFee@@G@Z
  00037	e9 00 00 00 00	 jmp	 ___CxxFrameHandler3
text$x	ENDS
?LoadPersonalRoomParameter@CServerInfoManager@@QAE_NAAUtagPersonalRoomOption@@AAUtagPersonalRoomOptionRightAndFee@@G@Z ENDP ; CServerInfoManager::LoadPersonalRoomParameter
; Function compile flags: /Odtp /ZI
; File g:\网狐\happygamewh\服务端\系统模块\服务器组件\模块管理\serverinfomanager.cpp
;	COMDAT ?SetPersonalRoomOption@CServerInfoManager@@QAEXUtagPersonalRoomOption@@UtagPersonalRoomOptionRightAndFee@@@Z
_TEXT	SEGMENT
_this$ = -4						; size = 4
_PersonalRoomOption$ = 8				; size = 113
_PersonalRoomOptionRightAndFee$ = 124			; size = 116
?SetPersonalRoomOption@CServerInfoManager@@QAEXUtagPersonalRoomOption@@UtagPersonalRoomOptionRightAndFee@@@Z PROC ; CServerInfoManager::SetPersonalRoomOption, COMDAT
; _this$ = ecx

; 1184 : {

  00000	55		 push	 ebp
  00001	8b ec		 mov	 ebp, esp
  00003	83 ec 44	 sub	 esp, 68			; 00000044H
  00006	53		 push	 ebx
  00007	56		 push	 esi
  00008	57		 push	 edi
  00009	89 4d fc	 mov	 DWORD PTR _this$[ebp], ecx

; 1185 : 	m_PersonalRoomOption = PersonalRoomOption;

  0000c	8b 7d fc	 mov	 edi, DWORD PTR _this$[ebp]
  0000f	83 c7 04	 add	 edi, 4
  00012	b9 1c 00 00 00	 mov	 ecx, 28			; 0000001cH
  00017	8d 75 08	 lea	 esi, DWORD PTR _PersonalRoomOption$[ebp]
  0001a	f3 a5		 rep movsd
  0001c	a4		 movsb

; 1186 : 	m_PersonalRoomOptionRightAndFee = PersonalRoomOptionRightAndFee;

  0001d	8b 7d fc	 mov	 edi, DWORD PTR _this$[ebp]
  00020	83 c7 75	 add	 edi, 117		; 00000075H
  00023	b9 1d 00 00 00	 mov	 ecx, 29			; 0000001dH
  00028	8d 75 7c	 lea	 esi, DWORD PTR _PersonalRoomOptionRightAndFee$[ebp]
  0002b	f3 a5		 rep movsd

; 1187 : }

  0002d	5f		 pop	 edi
  0002e	5e		 pop	 esi
  0002f	5b		 pop	 ebx
  00030	8b e5		 mov	 esp, ebp
  00032	5d		 pop	 ebp
  00033	c2 e8 00	 ret	 232			; 000000e8H
?SetPersonalRoomOption@CServerInfoManager@@QAEXUtagPersonalRoomOption@@UtagPersonalRoomOptionRightAndFee@@@Z ENDP ; CServerInfoManager::SetPersonalRoomOption
_TEXT	ENDS
; Function compile flags: /Odtp /ZI
; File g:\网狐\happygamewh\服务端\系统模块\服务器组件\模块管理\serverinfomanager.cpp
;	COMDAT ?ReadGameServerInfo@CServerInfoManager@@AAE_NAAVCDataBaseAide@@AAUtagGameServerInfo@@@Z
_TEXT	SEGMENT
_pszServerDLLName$ = -4140				; size = 4
_cbChar2$1 = -4134					; size = 1
_cbChar1$2 = -4133					; size = 1
_i$3 = -4132						; size = 4
_nPersonalRuleSize$4 = -4128				; size = 4
_szPersonalRule$ = -4124				; size = 2049
_cbChar2$5 = -2070					; size = 1
_cbChar1$6 = -2069					; size = 1
_i$7 = -2068						; size = 4
_nCustomRuleSize$8 = -2064				; size = 4
_szCustomRule$ = -2060					; size = 2049
_this$ = -8						; size = 4
__$ArrayPad$ = -4					; size = 4
_PlatformDBAide$ = 8					; size = 4
_GameServerResult$ = 12					; size = 4
?ReadGameServerInfo@CServerInfoManager@@AAE_NAAVCDataBaseAide@@AAUtagGameServerInfo@@@Z PROC ; CServerInfoManager::ReadGameServerInfo, COMDAT
; _this$ = ecx

; 759  : {

  00000	55		 push	 ebp
  00001	8b ec		 mov	 ebp, esp
  00003	b8 2c 12 00 00	 mov	 eax, 4652		; 0000122cH
  00008	e8 00 00 00 00	 call	 __chkstk
  0000d	a1 00 00 00 00	 mov	 eax, DWORD PTR ___security_cookie
  00012	33 c5		 xor	 eax, ebp
  00014	89 45 fc	 mov	 DWORD PTR __$ArrayPad$[ebp], eax
  00017	53		 push	 ebx
  00018	56		 push	 esi
  00019	57		 push	 edi
  0001a	89 4d f8	 mov	 DWORD PTR _this$[ebp], ecx

; 760  : 	//设置变量
; 761  : 	ZeroMemory(&GameServerResult,sizeof(GameServerResult));

  0001d	68 70 09 00 00	 push	 2416			; 00000970H
  00022	6a 00		 push	 0
  00024	8b 45 0c	 mov	 eax, DWORD PTR _GameServerResult$[ebp]
  00027	50		 push	 eax
  00028	e8 00 00 00 00	 call	 _memset
  0002d	83 c4 0c	 add	 esp, 12			; 0000000cH

; 762  : 
; 763  : 	//索引变量
; 764  : 	GameServerResult.wGameID=PlatformDBAide.GetValue_WORD(TEXT("GameID"));

  00030	68 00 00 00 00	 push	 OFFSET ??_C@_06KGJDDPAK@GameID@
  00035	8b 4d 08	 mov	 ecx, DWORD PTR _PlatformDBAide$[ebp]
  00038	ff 15 00 00 00
	00		 call	 DWORD PTR __imp_?GetValue_WORD@CDataBaseAide@@QAEGPBD@Z
  0003e	8b 4d 0c	 mov	 ecx, DWORD PTR _GameServerResult$[ebp]
  00041	66 89 01	 mov	 WORD PTR [ecx], ax

; 765  : 	GameServerResult.wServerID=PlatformDBAide.GetValue_WORD(TEXT("ServerID"));

  00044	68 00 00 00 00	 push	 OFFSET ??_C@_08BHBELLIH@ServerID@
  00049	8b 4d 08	 mov	 ecx, DWORD PTR _PlatformDBAide$[ebp]
  0004c	ff 15 00 00 00
	00		 call	 DWORD PTR __imp_?GetValue_WORD@CDataBaseAide@@QAEGPBD@Z
  00052	8b 4d 0c	 mov	 ecx, DWORD PTR _GameServerResult$[ebp]
  00055	66 89 41 02	 mov	 WORD PTR [ecx+2], ax

; 766  : 
; 767  : 	//挂接属性
; 768  : 	GameServerResult.wKindID=PlatformDBAide.GetValue_WORD(TEXT("KindID"));

  00059	68 00 00 00 00	 push	 OFFSET ??_C@_06HCHMMKKG@KindID@
  0005e	8b 4d 08	 mov	 ecx, DWORD PTR _PlatformDBAide$[ebp]
  00061	ff 15 00 00 00
	00		 call	 DWORD PTR __imp_?GetValue_WORD@CDataBaseAide@@QAEGPBD@Z
  00067	8b 4d 0c	 mov	 ecx, DWORD PTR _GameServerResult$[ebp]
  0006a	66 89 41 04	 mov	 WORD PTR [ecx+4], ax

; 769  : 	GameServerResult.wNodeID=PlatformDBAide.GetValue_WORD(TEXT("NodeID"));

  0006e	68 00 00 00 00	 push	 OFFSET ??_C@_06EBBHJNI@NodeID@
  00073	8b 4d 08	 mov	 ecx, DWORD PTR _PlatformDBAide$[ebp]
  00076	ff 15 00 00 00
	00		 call	 DWORD PTR __imp_?GetValue_WORD@CDataBaseAide@@QAEGPBD@Z
  0007c	8b 4d 0c	 mov	 ecx, DWORD PTR _GameServerResult$[ebp]
  0007f	66 89 41 06	 mov	 WORD PTR [ecx+6], ax

; 770  : 	GameServerResult.wSortID=PlatformDBAide.GetValue_WORD(TEXT("SortID"));

  00083	68 00 00 00 00	 push	 OFFSET ??_C@_06FBNNGAO@SortID@
  00088	8b 4d 08	 mov	 ecx, DWORD PTR _PlatformDBAide$[ebp]
  0008b	ff 15 00 00 00
	00		 call	 DWORD PTR __imp_?GetValue_WORD@CDataBaseAide@@QAEGPBD@Z
  00091	8b 4d 0c	 mov	 ecx, DWORD PTR _GameServerResult$[ebp]
  00094	66 89 41 08	 mov	 WORD PTR [ecx+8], ax

; 771  : 
; 772  : 	//版本信息
; 773  : 	GameServerResult.dwClientVersion=PlatformDBAide.GetValue_DWORD(TEXT("ClientVersion"));

  00098	68 00 00 00 00	 push	 OFFSET ??_C@_0O@DNEICACF@ClientVersion@
  0009d	8b 4d 08	 mov	 ecx, DWORD PTR _PlatformDBAide$[ebp]
  000a0	ff 15 00 00 00
	00		 call	 DWORD PTR __imp_?GetValue_DWORD@CDataBaseAide@@QAEKPBD@Z
  000a6	8b 4d 0c	 mov	 ecx, DWORD PTR _GameServerResult$[ebp]
  000a9	89 41 0c	 mov	 DWORD PTR [ecx+12], eax

; 774  : 	GameServerResult.dwServerVersion=PlatformDBAide.GetValue_DWORD(TEXT("ServerVersion"));

  000ac	68 00 00 00 00	 push	 OFFSET ??_C@_0O@BNALHPOE@ServerVersion@
  000b1	8b 4d 08	 mov	 ecx, DWORD PTR _PlatformDBAide$[ebp]
  000b4	ff 15 00 00 00
	00		 call	 DWORD PTR __imp_?GetValue_DWORD@CDataBaseAide@@QAEKPBD@Z
  000ba	8b 4d 0c	 mov	 ecx, DWORD PTR _GameServerResult$[ebp]
  000bd	89 41 10	 mov	 DWORD PTR [ecx+16], eax

; 775  : 
; 776  : 	//模块属性
; 777  : 	PlatformDBAide.GetValue_String(TEXT("GameName"),GameServerResult.szGameName,CountArray(GameServerResult.szGameName));

  000c0	6a 20		 push	 32			; 00000020H
  000c2	8b 45 0c	 mov	 eax, DWORD PTR _GameServerResult$[ebp]
  000c5	83 c0 18	 add	 eax, 24			; 00000018H
  000c8	50		 push	 eax
  000c9	68 00 00 00 00	 push	 OFFSET ??_C@_08DBMACHKJ@GameName@
  000ce	8b 4d 08	 mov	 ecx, DWORD PTR _PlatformDBAide$[ebp]
  000d1	ff 15 00 00 00
	00		 call	 DWORD PTR __imp_?GetValue_String@CDataBaseAide@@QAEXPBDPADI@Z

; 778  : 	PlatformDBAide.GetValue_String(TEXT("ServerDLLName"),GameServerResult.szServerDLLName,CountArray(GameServerResult.szServerDLLName));

  000d7	6a 20		 push	 32			; 00000020H
  000d9	8b 45 0c	 mov	 eax, DWORD PTR _GameServerResult$[ebp]
  000dc	83 c0 38	 add	 eax, 56			; 00000038H
  000df	50		 push	 eax
  000e0	68 00 00 00 00	 push	 OFFSET ??_C@_0O@DLLFAKFN@ServerDLLName@
  000e5	8b 4d 08	 mov	 ecx, DWORD PTR _PlatformDBAide$[ebp]
  000e8	ff 15 00 00 00
	00		 call	 DWORD PTR __imp_?GetValue_String@CDataBaseAide@@QAEXPBDPADI@Z

; 779  : 	PlatformDBAide.GetValue_String(TEXT("ClientEXEName"),GameServerResult.szClientEXEName,CountArray(GameServerResult.szClientEXEName));

  000ee	6a 20		 push	 32			; 00000020H
  000f0	8b 45 0c	 mov	 eax, DWORD PTR _GameServerResult$[ebp]
  000f3	83 c0 58	 add	 eax, 88			; 00000058H
  000f6	50		 push	 eax
  000f7	68 00 00 00 00	 push	 OFFSET ??_C@_0O@GDMCLMBH@ClientEXEName@
  000fc	8b 4d 08	 mov	 ecx, DWORD PTR _PlatformDBAide$[ebp]
  000ff	ff 15 00 00 00
	00		 call	 DWORD PTR __imp_?GetValue_String@CDataBaseAide@@QAEXPBDPADI@Z

; 780  : 
; 781  : 	//税收配置
; 782  : 	GameServerResult.lCellScore=PlatformDBAide.GetValue_LONG(TEXT("CellScore"));

  00105	68 00 00 00 00	 push	 OFFSET ??_C@_09MMGMMPOJ@CellScore@
  0010a	8b 4d 08	 mov	 ecx, DWORD PTR _PlatformDBAide$[ebp]
  0010d	ff 15 00 00 00
	00		 call	 DWORD PTR __imp_?GetValue_LONG@CDataBaseAide@@QAEJPBD@Z
  00113	8b 4d 0c	 mov	 ecx, DWORD PTR _GameServerResult$[ebp]
  00116	89 41 78	 mov	 DWORD PTR [ecx+120], eax

; 783  : 	GameServerResult.wRevenueRatio=PlatformDBAide.GetValue_WORD(TEXT("RevenueRatio"));

  00119	68 00 00 00 00	 push	 OFFSET ??_C@_0N@FEAJGFG@RevenueRatio@
  0011e	8b 4d 08	 mov	 ecx, DWORD PTR _PlatformDBAide$[ebp]
  00121	ff 15 00 00 00
	00		 call	 DWORD PTR __imp_?GetValue_WORD@CDataBaseAide@@QAEGPBD@Z
  00127	8b 4d 0c	 mov	 ecx, DWORD PTR _GameServerResult$[ebp]
  0012a	66 89 41 7c	 mov	 WORD PTR [ecx+124], ax

; 784  : 	GameServerResult.lServiceScore=PlatformDBAide.GetValue_LONGLONG(TEXT("ServiceScore"));

  0012e	68 00 00 00 00	 push	 OFFSET ??_C@_0N@KGDLKHJP@ServiceScore@
  00133	8b 4d 08	 mov	 ecx, DWORD PTR _PlatformDBAide$[ebp]
  00136	ff 15 00 00 00
	00		 call	 DWORD PTR __imp_?GetValue_LONGLONG@CDataBaseAide@@QAE_JPBD@Z
  0013c	8b 4d 0c	 mov	 ecx, DWORD PTR _GameServerResult$[ebp]
  0013f	89 81 80 00 00
	00		 mov	 DWORD PTR [ecx+128], eax
  00145	89 91 84 00 00
	00		 mov	 DWORD PTR [ecx+132], edx

; 785  : 
; 786  : 	//房间配置
; 787  : 	GameServerResult.lRestrictScore=PlatformDBAide.GetValue_LONGLONG(TEXT("RestrictScore"));

  0014b	68 00 00 00 00	 push	 OFFSET ??_C@_0O@NKNPBAEH@RestrictScore@
  00150	8b 4d 08	 mov	 ecx, DWORD PTR _PlatformDBAide$[ebp]
  00153	ff 15 00 00 00
	00		 call	 DWORD PTR __imp_?GetValue_LONGLONG@CDataBaseAide@@QAE_JPBD@Z
  00159	8b 4d 0c	 mov	 ecx, DWORD PTR _GameServerResult$[ebp]
  0015c	89 81 88 00 00
	00		 mov	 DWORD PTR [ecx+136], eax
  00162	89 91 8c 00 00
	00		 mov	 DWORD PTR [ecx+140], edx

; 788  : 	GameServerResult.lMinTableScore=PlatformDBAide.GetValue_LONGLONG(TEXT("MinTableScore"));

  00168	68 00 00 00 00	 push	 OFFSET ??_C@_0O@DCCNGDAD@MinTableScore@
  0016d	8b 4d 08	 mov	 ecx, DWORD PTR _PlatformDBAide$[ebp]
  00170	ff 15 00 00 00
	00		 call	 DWORD PTR __imp_?GetValue_LONGLONG@CDataBaseAide@@QAE_JPBD@Z
  00176	8b 4d 0c	 mov	 ecx, DWORD PTR _GameServerResult$[ebp]
  00179	89 81 90 00 00
	00		 mov	 DWORD PTR [ecx+144], eax
  0017f	89 91 94 00 00
	00		 mov	 DWORD PTR [ecx+148], edx

; 789  : 	GameServerResult.lMinEnterScore=PlatformDBAide.GetValue_LONGLONG(TEXT("MinEnterScore"));

  00185	68 00 00 00 00	 push	 OFFSET ??_C@_0O@MOLCKBBF@MinEnterScore@
  0018a	8b 4d 08	 mov	 ecx, DWORD PTR _PlatformDBAide$[ebp]
  0018d	ff 15 00 00 00
	00		 call	 DWORD PTR __imp_?GetValue_LONGLONG@CDataBaseAide@@QAE_JPBD@Z
  00193	8b 4d 0c	 mov	 ecx, DWORD PTR _GameServerResult$[ebp]
  00196	89 81 98 00 00
	00		 mov	 DWORD PTR [ecx+152], eax
  0019c	89 91 9c 00 00
	00		 mov	 DWORD PTR [ecx+156], edx

; 790  : 	GameServerResult.lMaxEnterScore=PlatformDBAide.GetValue_LONGLONG(TEXT("MaxEnterScore"));

  001a2	68 00 00 00 00	 push	 OFFSET ??_C@_0O@HHJEDKGE@MaxEnterScore@
  001a7	8b 4d 08	 mov	 ecx, DWORD PTR _PlatformDBAide$[ebp]
  001aa	ff 15 00 00 00
	00		 call	 DWORD PTR __imp_?GetValue_LONGLONG@CDataBaseAide@@QAE_JPBD@Z
  001b0	8b 4d 0c	 mov	 ecx, DWORD PTR _GameServerResult$[ebp]
  001b3	89 81 a0 00 00
	00		 mov	 DWORD PTR [ecx+160], eax
  001b9	89 91 a4 00 00
	00		 mov	 DWORD PTR [ecx+164], edx

; 791  : 
; 792  : 	//会员限制
; 793  : 	GameServerResult.cbMinEnterMember=PlatformDBAide.GetValue_BYTE(TEXT("MinEnterMember"));

  001bf	68 00 00 00 00	 push	 OFFSET ??_C@_0P@LLHLENEP@MinEnterMember@
  001c4	8b 4d 08	 mov	 ecx, DWORD PTR _PlatformDBAide$[ebp]
  001c7	ff 15 00 00 00
	00		 call	 DWORD PTR __imp_?GetValue_BYTE@CDataBaseAide@@QAEEPBD@Z
  001cd	8b 4d 0c	 mov	 ecx, DWORD PTR _GameServerResult$[ebp]
  001d0	88 81 a8 00 00
	00		 mov	 BYTE PTR [ecx+168], al

; 794  : 	GameServerResult.cbMaxEnterMember=PlatformDBAide.GetValue_BYTE(TEXT("MaxEnterMember"));

  001d6	68 00 00 00 00	 push	 OFFSET ??_C@_0P@JMMACKHO@MaxEnterMember@
  001db	8b 4d 08	 mov	 ecx, DWORD PTR _PlatformDBAide$[ebp]
  001de	ff 15 00 00 00
	00		 call	 DWORD PTR __imp_?GetValue_BYTE@CDataBaseAide@@QAEEPBD@Z
  001e4	8b 4d 0c	 mov	 ecx, DWORD PTR _GameServerResult$[ebp]
  001e7	88 81 a9 00 00
	00		 mov	 BYTE PTR [ecx+169], al

; 795  : 
; 796  : 	//房间配置
; 797  : 	GameServerResult.dwServerRule=PlatformDBAide.GetValue_DWORD(TEXT("ServerRule"));

  001ed	68 00 00 00 00	 push	 OFFSET ??_C@_0L@COJBOHGN@ServerRule@
  001f2	8b 4d 08	 mov	 ecx, DWORD PTR _PlatformDBAide$[ebp]
  001f5	ff 15 00 00 00
	00		 call	 DWORD PTR __imp_?GetValue_DWORD@CDataBaseAide@@QAEKPBD@Z
  001fb	8b 4d 0c	 mov	 ecx, DWORD PTR _GameServerResult$[ebp]
  001fe	89 81 ac 00 00
	00		 mov	 DWORD PTR [ecx+172], eax

; 798  : 	GameServerResult.dwAttachUserRight=PlatformDBAide.GetValue_DWORD(TEXT("AttachUserRight"));

  00204	68 00 00 00 00	 push	 OFFSET ??_C@_0BA@IBOCBCNP@AttachUserRight@
  00209	8b 4d 08	 mov	 ecx, DWORD PTR _PlatformDBAide$[ebp]
  0020c	ff 15 00 00 00
	00		 call	 DWORD PTR __imp_?GetValue_DWORD@CDataBaseAide@@QAEKPBD@Z
  00212	8b 4d 0c	 mov	 ecx, DWORD PTR _GameServerResult$[ebp]
  00215	89 81 b0 00 00
	00		 mov	 DWORD PTR [ecx+176], eax

; 799  : 
; 800  : 	//房间属性
; 801  : 	GameServerResult.wMaxPlayer=PlatformDBAide.GetValue_WORD(TEXT("MaxPlayer"));

  0021b	68 00 00 00 00	 push	 OFFSET ??_C@_09POAPIBJJ@MaxPlayer@
  00220	8b 4d 08	 mov	 ecx, DWORD PTR _PlatformDBAide$[ebp]
  00223	ff 15 00 00 00
	00		 call	 DWORD PTR __imp_?GetValue_WORD@CDataBaseAide@@QAEGPBD@Z
  00229	8b 4d 0c	 mov	 ecx, DWORD PTR _GameServerResult$[ebp]
  0022c	66 89 81 b4 00
	00 00		 mov	 WORD PTR [ecx+180], ax

; 802  : 	GameServerResult.wTableCount=PlatformDBAide.GetValue_WORD(TEXT("TableCount"));

  00233	68 00 00 00 00	 push	 OFFSET ??_C@_0L@IJDAGCEH@TableCount@
  00238	8b 4d 08	 mov	 ecx, DWORD PTR _PlatformDBAide$[ebp]
  0023b	ff 15 00 00 00
	00		 call	 DWORD PTR __imp_?GetValue_WORD@CDataBaseAide@@QAEGPBD@Z
  00241	8b 4d 0c	 mov	 ecx, DWORD PTR _GameServerResult$[ebp]
  00244	66 89 81 b6 00
	00 00		 mov	 WORD PTR [ecx+182], ax

; 803  : 	GameServerResult.wServerPort=PlatformDBAide.GetValue_WORD(TEXT("ServerPort"));

  0024b	68 00 00 00 00	 push	 OFFSET ??_C@_0L@COJEKOJM@ServerPort@
  00250	8b 4d 08	 mov	 ecx, DWORD PTR _PlatformDBAide$[ebp]
  00253	ff 15 00 00 00
	00		 call	 DWORD PTR __imp_?GetValue_WORD@CDataBaseAide@@QAEGPBD@Z
  00259	8b 4d 0c	 mov	 ecx, DWORD PTR _GameServerResult$[ebp]
  0025c	66 89 81 b8 00
	00 00		 mov	 WORD PTR [ecx+184], ax

; 804  : 	GameServerResult.wServerKind=PlatformDBAide.GetValue_WORD(TEXT("ServerKind"));

  00263	68 00 00 00 00	 push	 OFFSET ??_C@_0L@EDDBBPJG@ServerKind@
  00268	8b 4d 08	 mov	 ecx, DWORD PTR _PlatformDBAide$[ebp]
  0026b	ff 15 00 00 00
	00		 call	 DWORD PTR __imp_?GetValue_WORD@CDataBaseAide@@QAEGPBD@Z
  00271	8b 4d 0c	 mov	 ecx, DWORD PTR _GameServerResult$[ebp]
  00274	66 89 81 ba 00
	00 00		 mov	 WORD PTR [ecx+186], ax

; 805  : 	GameServerResult.wServerType=PlatformDBAide.GetValue_WORD(TEXT("ServerType"));

  0027b	68 00 00 00 00	 push	 OFFSET ??_C@_0L@PODLPHGB@ServerType@
  00280	8b 4d 08	 mov	 ecx, DWORD PTR _PlatformDBAide$[ebp]
  00283	ff 15 00 00 00
	00		 call	 DWORD PTR __imp_?GetValue_WORD@CDataBaseAide@@QAEGPBD@Z
  00289	8b 4d 0c	 mov	 ecx, DWORD PTR _GameServerResult$[ebp]
  0028c	66 89 81 bc 00
	00 00		 mov	 WORD PTR [ecx+188], ax

; 806  : 	GameServerResult.wServerLevel=PlatformDBAide.GetValue_WORD(TEXT("ServerLevel"));

  00293	68 00 00 00 00	 push	 OFFSET ??_C@_0M@JMPNOLDL@ServerLevel@
  00298	8b 4d 08	 mov	 ecx, DWORD PTR _PlatformDBAide$[ebp]
  0029b	ff 15 00 00 00
	00		 call	 DWORD PTR __imp_?GetValue_WORD@CDataBaseAide@@QAEGPBD@Z
  002a1	8b 4d 0c	 mov	 ecx, DWORD PTR _GameServerResult$[ebp]
  002a4	66 89 81 be 00
	00 00		 mov	 WORD PTR [ecx+190], ax

; 807  : 	PlatformDBAide.GetValue_String(TEXT("ServerName"),GameServerResult.szServerName,CountArray(GameServerResult.szServerName));

  002ab	6a 20		 push	 32			; 00000020H
  002ad	8b 45 0c	 mov	 eax, DWORD PTR _GameServerResult$[ebp]
  002b0	05 c0 00 00 00	 add	 eax, 192		; 000000c0H
  002b5	50		 push	 eax
  002b6	68 00 00 00 00	 push	 OFFSET ??_C@_0L@FFDIDHBB@ServerName@
  002bb	8b 4d 08	 mov	 ecx, DWORD PTR _PlatformDBAide$[ebp]
  002be	ff 15 00 00 00
	00		 call	 DWORD PTR __imp_?GetValue_String@CDataBaseAide@@QAEXPBDPADI@Z

; 808  : 	PlatformDBAide.GetValue_String(TEXT("ServerPasswd"),GameServerResult.szServerPasswd,CountArray(GameServerResult.szServerPasswd));

  002c4	6a 21		 push	 33			; 00000021H
  002c6	8b 45 0c	 mov	 eax, DWORD PTR _GameServerResult$[ebp]
  002c9	05 e0 00 00 00	 add	 eax, 224		; 000000e0H
  002ce	50		 push	 eax
  002cf	68 00 00 00 00	 push	 OFFSET ??_C@_0N@CGAIMFGC@ServerPasswd@
  002d4	8b 4d 08	 mov	 ecx, DWORD PTR _PlatformDBAide$[ebp]
  002d7	ff 15 00 00 00
	00		 call	 DWORD PTR __imp_?GetValue_String@CDataBaseAide@@QAEXPBDPADI@Z

; 809  : 
; 810  : 	//分组属性
; 811  : 	GameServerResult.cbDistributeRule=PlatformDBAide.GetValue_BYTE(TEXT("DistributeRule"));

  002dd	68 00 00 00 00	 push	 OFFSET ??_C@_0P@HAKAMBIC@DistributeRule@
  002e2	8b 4d 08	 mov	 ecx, DWORD PTR _PlatformDBAide$[ebp]
  002e5	ff 15 00 00 00
	00		 call	 DWORD PTR __imp_?GetValue_BYTE@CDataBaseAide@@QAEEPBD@Z
  002eb	8b 4d 0c	 mov	 ecx, DWORD PTR _GameServerResult$[ebp]
  002ee	88 81 01 01 00
	00		 mov	 BYTE PTR [ecx+257], al

; 812  : 	GameServerResult.wMinDistributeUser=PlatformDBAide.GetValue_WORD(TEXT("MinDistributeUser"));

  002f4	68 00 00 00 00	 push	 OFFSET ??_C@_0BC@BPMHCGIJ@MinDistributeUser@
  002f9	8b 4d 08	 mov	 ecx, DWORD PTR _PlatformDBAide$[ebp]
  002fc	ff 15 00 00 00
	00		 call	 DWORD PTR __imp_?GetValue_WORD@CDataBaseAide@@QAEGPBD@Z
  00302	8b 4d 0c	 mov	 ecx, DWORD PTR _GameServerResult$[ebp]
  00305	66 89 81 02 01
	00 00		 mov	 WORD PTR [ecx+258], ax

; 813  : 	GameServerResult.wDistributeTimeSpace=PlatformDBAide.GetValue_WORD(TEXT("DistributeTimeSpace"));

  0030c	68 00 00 00 00	 push	 OFFSET ??_C@_0BE@NKJJGPNA@DistributeTimeSpace@
  00311	8b 4d 08	 mov	 ecx, DWORD PTR _PlatformDBAide$[ebp]
  00314	ff 15 00 00 00
	00		 call	 DWORD PTR __imp_?GetValue_WORD@CDataBaseAide@@QAEGPBD@Z
  0031a	8b 4d 0c	 mov	 ecx, DWORD PTR _GameServerResult$[ebp]
  0031d	66 89 81 04 01
	00 00		 mov	 WORD PTR [ecx+260], ax

; 814  : 	GameServerResult.wDistributeDrawCount=PlatformDBAide.GetValue_WORD(TEXT("DistributeDrawCount"));

  00324	68 00 00 00 00	 push	 OFFSET ??_C@_0BE@BBFANIHP@DistributeDrawCount@
  00329	8b 4d 08	 mov	 ecx, DWORD PTR _PlatformDBAide$[ebp]
  0032c	ff 15 00 00 00
	00		 call	 DWORD PTR __imp_?GetValue_WORD@CDataBaseAide@@QAEGPBD@Z
  00332	8b 4d 0c	 mov	 ecx, DWORD PTR _GameServerResult$[ebp]
  00335	66 89 81 06 01
	00 00		 mov	 WORD PTR [ecx+262], ax

; 815  : 	GameServerResult.wMinPartakeGameUser=PlatformDBAide.GetValue_WORD(TEXT("MinPartakeGameUser"));

  0033c	68 00 00 00 00	 push	 OFFSET ??_C@_0BD@JEHNMEJ@MinPartakeGameUser@
  00341	8b 4d 08	 mov	 ecx, DWORD PTR _PlatformDBAide$[ebp]
  00344	ff 15 00 00 00
	00		 call	 DWORD PTR __imp_?GetValue_WORD@CDataBaseAide@@QAEGPBD@Z
  0034a	8b 4d 0c	 mov	 ecx, DWORD PTR _GameServerResult$[ebp]
  0034d	66 89 81 08 01
	00 00		 mov	 WORD PTR [ecx+264], ax

; 816  : 	GameServerResult.wMaxPartakeGameUser=PlatformDBAide.GetValue_WORD(TEXT("MaxPartakeGameUser"));

  00354	68 00 00 00 00	 push	 OFFSET ??_C@_0BD@KOHDFMDA@MaxPartakeGameUser@
  00359	8b 4d 08	 mov	 ecx, DWORD PTR _PlatformDBAide$[ebp]
  0035c	ff 15 00 00 00
	00		 call	 DWORD PTR __imp_?GetValue_WORD@CDataBaseAide@@QAEGPBD@Z
  00362	8b 4d 0c	 mov	 ecx, DWORD PTR _GameServerResult$[ebp]
  00365	66 89 81 0a 01
	00 00		 mov	 WORD PTR [ecx+266], ax

; 817  : 
; 818  : 	//数据属性
; 819  : 	PlatformDBAide.GetValue_String(TEXT("DataBaseName"),GameServerResult.szDataBaseName,CountArray(GameServerResult.szDataBaseName));

  0036c	6a 20		 push	 32			; 00000020H
  0036e	8b 45 0c	 mov	 eax, DWORD PTR _GameServerResult$[ebp]
  00371	05 0c 01 00 00	 add	 eax, 268		; 0000010cH
  00376	50		 push	 eax
  00377	68 00 00 00 00	 push	 OFFSET ??_C@_0N@BLNGECDM@DataBaseName@
  0037c	8b 4d 08	 mov	 ecx, DWORD PTR _PlatformDBAide$[ebp]
  0037f	ff 15 00 00 00
	00		 call	 DWORD PTR __imp_?GetValue_String@CDataBaseAide@@QAEXPBDPADI@Z

; 820  : 	PlatformDBAide.GetValue_String(TEXT("DataBaseAddr"),GameServerResult.szDataBaseAddr,CountArray(GameServerResult.szDataBaseAddr));

  00385	6a 20		 push	 32			; 00000020H
  00387	8b 45 0c	 mov	 eax, DWORD PTR _GameServerResult$[ebp]
  0038a	05 2c 01 00 00	 add	 eax, 300		; 0000012cH
  0038f	50		 push	 eax
  00390	68 00 00 00 00	 push	 OFFSET ??_C@_0N@KEAKJKMG@DataBaseAddr@
  00395	8b 4d 08	 mov	 ecx, DWORD PTR _PlatformDBAide$[ebp]
  00398	ff 15 00 00 00
	00		 call	 DWORD PTR __imp_?GetValue_String@CDataBaseAide@@QAEXPBDPADI@Z

; 821  : 
; 822  : 	//扩展配置
; 823  : 	TCHAR szCustomRule[CountArray(GameServerResult.cbCustomRule)*2+1];
; 824  : 	PlatformDBAide.GetValue_String(TEXT("CustomRule"),szCustomRule,CountArray(szCustomRule));

  0039e	68 01 08 00 00	 push	 2049			; 00000801H
  003a3	8d 85 f4 f7 ff
	ff		 lea	 eax, DWORD PTR _szCustomRule$[ebp]
  003a9	50		 push	 eax
  003aa	68 00 00 00 00	 push	 OFFSET ??_C@_0L@KEGHFOHA@CustomRule@
  003af	8b 4d 08	 mov	 ecx, DWORD PTR _PlatformDBAide$[ebp]
  003b2	ff 15 00 00 00
	00		 call	 DWORD PTR __imp_?GetValue_String@CDataBaseAide@@QAEXPBDPADI@Z

; 825  : 	PlatformDBAide.GetValue_String(TEXT("ServiceMachine"),GameServerResult.szServiceMachine,CountArray(GameServerResult.szServiceMachine));

  003b8	6a 21		 push	 33			; 00000021H
  003ba	8b 45 0c	 mov	 eax, DWORD PTR _GameServerResult$[ebp]
  003bd	05 4c 05 00 00	 add	 eax, 1356		; 0000054cH
  003c2	50		 push	 eax
  003c3	68 00 00 00 00	 push	 OFFSET ??_C@_0P@NECLNLN@ServiceMachine@
  003c8	8b 4d 08	 mov	 ecx, DWORD PTR _PlatformDBAide$[ebp]
  003cb	ff 15 00 00 00
	00		 call	 DWORD PTR __imp_?GetValue_String@CDataBaseAide@@QAEXPBDPADI@Z

; 826  : 
; 827  : 	//扩展配置
; 828  : 	if (szCustomRule[0]!=0)

  003d1	b8 01 00 00 00	 mov	 eax, 1
  003d6	6b c8 00	 imul	 ecx, eax, 0
  003d9	0f be 94 0d f4
	f7 ff ff	 movsx	 edx, BYTE PTR _szCustomRule$[ebp+ecx]
  003e1	85 d2		 test	 edx, edx
  003e3	0f 84 48 02 00
	00		 je	 $LN8@ReadGameSe

; 829  : 	{
; 830  : 		//获取长度
; 831  : 		ASSERT(lstrlen(szCustomRule)%2==0);

  003e9	8d 85 f4 f7 ff
	ff		 lea	 eax, DWORD PTR _szCustomRule$[ebp]
  003ef	50		 push	 eax
  003f0	ff 15 00 00 00
	00		 call	 DWORD PTR __imp__lstrlenA@4
  003f6	25 01 00 00 80	 and	 eax, -2147483647	; 80000001H
  003fb	79 05		 jns	 SHORT $LN33@ReadGameSe
  003fd	48		 dec	 eax
  003fe	83 c8 fe	 or	 eax, -2			; fffffffeH
  00401	40		 inc	 eax
$LN33@ReadGameSe:
  00402	85 c0		 test	 eax, eax
  00404	74 19		 je	 SHORT $LN19@ReadGameSe
  00406	8b 0d 00 00 00
	00		 mov	 ecx, DWORD PTR ?__LINE__Var@?0??ReadGameServerInfo@CServerInfoManager@@AAE_NAAVCDataBaseAide@@AAUtagGameServerInfo@@@Z@4JA
  0040c	83 c1 48	 add	 ecx, 72			; 00000048H
  0040f	51		 push	 ecx
  00410	68 00 00 00 00	 push	 OFFSET ??_C@_0EO@GNEBGAKM@g?3?2?M?x?$LK?$PM?2happygamewh?2?$LH?$PO?N?q?$LG?K?2?O?$LF?M?$LD@
  00415	e8 00 00 00 00	 call	 ?AfxAssertFailedLine@@YGHPBDH@Z ; AfxAssertFailedLine
  0041a	85 c0		 test	 eax, eax
  0041c	74 01		 je	 SHORT $LN19@ReadGameSe
  0041e	cc		 int	 3
$LN19@ReadGameSe:

; 832  : 		INT nCustomRuleSize=lstrlen(szCustomRule)/2;

  0041f	8d 85 f4 f7 ff
	ff		 lea	 eax, DWORD PTR _szCustomRule$[ebp]
  00425	50		 push	 eax
  00426	ff 15 00 00 00
	00		 call	 DWORD PTR __imp__lstrlenA@4
  0042c	99		 cdq
  0042d	2b c2		 sub	 eax, edx
  0042f	d1 f8		 sar	 eax, 1
  00431	89 85 f0 f7 ff
	ff		 mov	 DWORD PTR _nCustomRuleSize$8[ebp], eax

; 833  : 
; 834  : 		//转换字符
; 835  : 		for (INT i=0;i<nCustomRuleSize;i++)

  00437	c7 85 ec f7 ff
	ff 00 00 00 00	 mov	 DWORD PTR _i$7[ebp], 0
  00441	eb 0f		 jmp	 SHORT $LN4@ReadGameSe
$LN2@ReadGameSe:
  00443	8b 85 ec f7 ff
	ff		 mov	 eax, DWORD PTR _i$7[ebp]
  00449	83 c0 01	 add	 eax, 1
  0044c	89 85 ec f7 ff
	ff		 mov	 DWORD PTR _i$7[ebp], eax
$LN4@ReadGameSe:
  00452	8b 85 ec f7 ff
	ff		 mov	 eax, DWORD PTR _i$7[ebp]
  00458	3b 85 f0 f7 ff
	ff		 cmp	 eax, DWORD PTR _nCustomRuleSize$8[ebp]
  0045e	0f 8d cd 01 00
	00		 jge	 $LN8@ReadGameSe

; 836  : 		{
; 837  : 			//获取字符
; 838  : 			TCHAR cbChar1=szCustomRule[i*2];

  00464	8b 85 ec f7 ff
	ff		 mov	 eax, DWORD PTR _i$7[ebp]
  0046a	8a 8c 45 f4 f7
	ff ff		 mov	 cl, BYTE PTR _szCustomRule$[ebp+eax*2]
  00471	88 8d eb f7 ff
	ff		 mov	 BYTE PTR _cbChar1$6[ebp], cl

; 839  : 			TCHAR cbChar2=szCustomRule[i*2+1];

  00477	8b 85 ec f7 ff
	ff		 mov	 eax, DWORD PTR _i$7[ebp]
  0047d	8a 8c 45 f5 f7
	ff ff		 mov	 cl, BYTE PTR _szCustomRule$[ebp+eax*2+1]
  00484	88 8d ea f7 ff
	ff		 mov	 BYTE PTR _cbChar2$5[ebp], cl

; 840  : 
; 841  : 			//效验字符
; 842  : 			ASSERT((cbChar1>=TEXT('0'))&&(cbChar1<=TEXT('9'))||(cbChar1>=TEXT('A'))&&(cbChar1<=TEXT('F')));

  0048a	0f be 85 eb f7
	ff ff		 movsx	 eax, BYTE PTR _cbChar1$6[ebp]
  00491	83 f8 30	 cmp	 eax, 48			; 00000030H
  00494	7c 0c		 jl	 SHORT $LN20@ReadGameSe
  00496	0f be 8d eb f7
	ff ff		 movsx	 ecx, BYTE PTR _cbChar1$6[ebp]
  0049d	83 f9 39	 cmp	 ecx, 57			; 00000039H
  004a0	7e 31		 jle	 SHORT $LN22@ReadGameSe
$LN20@ReadGameSe:
  004a2	0f be 95 eb f7
	ff ff		 movsx	 edx, BYTE PTR _cbChar1$6[ebp]
  004a9	83 fa 41	 cmp	 edx, 65			; 00000041H
  004ac	7c 0c		 jl	 SHORT $LN21@ReadGameSe
  004ae	0f be 85 eb f7
	ff ff		 movsx	 eax, BYTE PTR _cbChar1$6[ebp]
  004b5	83 f8 46	 cmp	 eax, 70			; 00000046H
  004b8	7e 19		 jle	 SHORT $LN22@ReadGameSe
$LN21@ReadGameSe:
  004ba	8b 0d 00 00 00
	00		 mov	 ecx, DWORD PTR ?__LINE__Var@?0??ReadGameServerInfo@CServerInfoManager@@AAE_NAAVCDataBaseAide@@AAUtagGameServerInfo@@@Z@4JA
  004c0	83 c1 53	 add	 ecx, 83			; 00000053H
  004c3	51		 push	 ecx
  004c4	68 00 00 00 00	 push	 OFFSET ??_C@_0EO@GNEBGAKM@g?3?2?M?x?$LK?$PM?2happygamewh?2?$LH?$PO?N?q?$LG?K?2?O?$LF?M?$LD@
  004c9	e8 00 00 00 00	 call	 ?AfxAssertFailedLine@@YGHPBDH@Z ; AfxAssertFailedLine
  004ce	85 c0		 test	 eax, eax
  004d0	74 01		 je	 SHORT $LN22@ReadGameSe
  004d2	cc		 int	 3
$LN22@ReadGameSe:

; 843  : 			ASSERT((cbChar2>=TEXT('0'))&&(cbChar2<=TEXT('9'))||(cbChar2>=TEXT('A'))&&(cbChar2<=TEXT('F')));

  004d3	0f be 85 ea f7
	ff ff		 movsx	 eax, BYTE PTR _cbChar2$5[ebp]
  004da	83 f8 30	 cmp	 eax, 48			; 00000030H
  004dd	7c 0c		 jl	 SHORT $LN23@ReadGameSe
  004df	0f be 8d ea f7
	ff ff		 movsx	 ecx, BYTE PTR _cbChar2$5[ebp]
  004e6	83 f9 39	 cmp	 ecx, 57			; 00000039H
  004e9	7e 31		 jle	 SHORT $LN25@ReadGameSe
$LN23@ReadGameSe:
  004eb	0f be 95 ea f7
	ff ff		 movsx	 edx, BYTE PTR _cbChar2$5[ebp]
  004f2	83 fa 41	 cmp	 edx, 65			; 00000041H
  004f5	7c 0c		 jl	 SHORT $LN24@ReadGameSe
  004f7	0f be 85 ea f7
	ff ff		 movsx	 eax, BYTE PTR _cbChar2$5[ebp]
  004fe	83 f8 46	 cmp	 eax, 70			; 00000046H
  00501	7e 19		 jle	 SHORT $LN25@ReadGameSe
$LN24@ReadGameSe:
  00503	8b 0d 00 00 00
	00		 mov	 ecx, DWORD PTR ?__LINE__Var@?0??ReadGameServerInfo@CServerInfoManager@@AAE_NAAVCDataBaseAide@@AAUtagGameServerInfo@@@Z@4JA
  00509	83 c1 54	 add	 ecx, 84			; 00000054H
  0050c	51		 push	 ecx
  0050d	68 00 00 00 00	 push	 OFFSET ??_C@_0EO@GNEBGAKM@g?3?2?M?x?$LK?$PM?2happygamewh?2?$LH?$PO?N?q?$LG?K?2?O?$LF?M?$LD@
  00512	e8 00 00 00 00	 call	 ?AfxAssertFailedLine@@YGHPBDH@Z ; AfxAssertFailedLine
  00517	85 c0		 test	 eax, eax
  00519	74 01		 je	 SHORT $LN25@ReadGameSe
  0051b	cc		 int	 3
$LN25@ReadGameSe:

; 844  : 
; 845  : 			//生成结果
; 846  : 			if ((cbChar2>=TEXT('0'))&&(cbChar2<=TEXT('9'))) GameServerResult.cbCustomRule[i]+=(cbChar2-TEXT('0'));

  0051c	0f be 85 ea f7
	ff ff		 movsx	 eax, BYTE PTR _cbChar2$5[ebp]
  00523	83 f8 30	 cmp	 eax, 48			; 00000030H
  00526	7c 36		 jl	 SHORT $LN9@ReadGameSe
  00528	0f be 85 ea f7
	ff ff		 movsx	 eax, BYTE PTR _cbChar2$5[ebp]
  0052f	83 f8 39	 cmp	 eax, 57			; 00000039H
  00532	7f 2a		 jg	 SHORT $LN9@ReadGameSe
  00534	0f be 85 ea f7
	ff ff		 movsx	 eax, BYTE PTR _cbChar2$5[ebp]
  0053b	8b 4d 0c	 mov	 ecx, DWORD PTR _GameServerResult$[ebp]
  0053e	03 8d ec f7 ff
	ff		 add	 ecx, DWORD PTR _i$7[ebp]
  00544	0f b6 91 4c 01
	00 00		 movzx	 edx, BYTE PTR [ecx+332]
  0054b	8d 44 02 d0	 lea	 eax, DWORD PTR [edx+eax-48]
  0054f	8b 4d 0c	 mov	 ecx, DWORD PTR _GameServerResult$[ebp]
  00552	03 8d ec f7 ff
	ff		 add	 ecx, DWORD PTR _i$7[ebp]
  00558	88 81 4c 01 00
	00		 mov	 BYTE PTR [ecx+332], al
$LN9@ReadGameSe:

; 847  : 			if ((cbChar2>=TEXT('A'))&&(cbChar2<=TEXT('F'))) GameServerResult.cbCustomRule[i]+=(cbChar2-TEXT('A')+0x0A);

  0055e	0f be 85 ea f7
	ff ff		 movsx	 eax, BYTE PTR _cbChar2$5[ebp]
  00565	83 f8 41	 cmp	 eax, 65			; 00000041H
  00568	7c 36		 jl	 SHORT $LN10@ReadGameSe
  0056a	0f be 85 ea f7
	ff ff		 movsx	 eax, BYTE PTR _cbChar2$5[ebp]
  00571	83 f8 46	 cmp	 eax, 70			; 00000046H
  00574	7f 2a		 jg	 SHORT $LN10@ReadGameSe
  00576	0f be 85 ea f7
	ff ff		 movsx	 eax, BYTE PTR _cbChar2$5[ebp]
  0057d	8b 4d 0c	 mov	 ecx, DWORD PTR _GameServerResult$[ebp]
  00580	03 8d ec f7 ff
	ff		 add	 ecx, DWORD PTR _i$7[ebp]
  00586	0f b6 91 4c 01
	00 00		 movzx	 edx, BYTE PTR [ecx+332]
  0058d	8d 44 02 c9	 lea	 eax, DWORD PTR [edx+eax-55]
  00591	8b 4d 0c	 mov	 ecx, DWORD PTR _GameServerResult$[ebp]
  00594	03 8d ec f7 ff
	ff		 add	 ecx, DWORD PTR _i$7[ebp]
  0059a	88 81 4c 01 00
	00		 mov	 BYTE PTR [ecx+332], al
$LN10@ReadGameSe:

; 848  : 
; 849  : 			//生成结果
; 850  : 			if ((cbChar1>=TEXT('0'))&&(cbChar1<=TEXT('9'))) GameServerResult.cbCustomRule[i]+=(cbChar1-TEXT('0'))*0x10;

  005a0	0f be 85 eb f7
	ff ff		 movsx	 eax, BYTE PTR _cbChar1$6[ebp]
  005a7	83 f8 30	 cmp	 eax, 48			; 00000030H
  005aa	7c 3a		 jl	 SHORT $LN11@ReadGameSe
  005ac	0f be 85 eb f7
	ff ff		 movsx	 eax, BYTE PTR _cbChar1$6[ebp]
  005b3	83 f8 39	 cmp	 eax, 57			; 00000039H
  005b6	7f 2e		 jg	 SHORT $LN11@ReadGameSe
  005b8	0f be 85 eb f7
	ff ff		 movsx	 eax, BYTE PTR _cbChar1$6[ebp]
  005bf	83 e8 30	 sub	 eax, 48			; 00000030H
  005c2	c1 e0 04	 shl	 eax, 4
  005c5	8b 4d 0c	 mov	 ecx, DWORD PTR _GameServerResult$[ebp]
  005c8	03 8d ec f7 ff
	ff		 add	 ecx, DWORD PTR _i$7[ebp]
  005ce	0f b6 91 4c 01
	00 00		 movzx	 edx, BYTE PTR [ecx+332]
  005d5	03 d0		 add	 edx, eax
  005d7	8b 45 0c	 mov	 eax, DWORD PTR _GameServerResult$[ebp]
  005da	03 85 ec f7 ff
	ff		 add	 eax, DWORD PTR _i$7[ebp]
  005e0	88 90 4c 01 00
	00		 mov	 BYTE PTR [eax+332], dl
$LN11@ReadGameSe:

; 851  : 			if ((cbChar1>=TEXT('A'))&&(cbChar1<=TEXT('F'))) GameServerResult.cbCustomRule[i]+=(cbChar1-TEXT('A')+0x0A)*0x10;

  005e6	0f be 85 eb f7
	ff ff		 movsx	 eax, BYTE PTR _cbChar1$6[ebp]
  005ed	83 f8 41	 cmp	 eax, 65			; 00000041H
  005f0	7c 3a		 jl	 SHORT $LN12@ReadGameSe
  005f2	0f be 85 eb f7
	ff ff		 movsx	 eax, BYTE PTR _cbChar1$6[ebp]
  005f9	83 f8 46	 cmp	 eax, 70			; 00000046H
  005fc	7f 2e		 jg	 SHORT $LN12@ReadGameSe
  005fe	0f be 85 eb f7
	ff ff		 movsx	 eax, BYTE PTR _cbChar1$6[ebp]
  00605	83 e8 37	 sub	 eax, 55			; 00000037H
  00608	c1 e0 04	 shl	 eax, 4
  0060b	8b 4d 0c	 mov	 ecx, DWORD PTR _GameServerResult$[ebp]
  0060e	03 8d ec f7 ff
	ff		 add	 ecx, DWORD PTR _i$7[ebp]
  00614	0f b6 91 4c 01
	00 00		 movzx	 edx, BYTE PTR [ecx+332]
  0061b	03 d0		 add	 edx, eax
  0061d	8b 45 0c	 mov	 eax, DWORD PTR _GameServerResult$[ebp]
  00620	03 85 ec f7 ff
	ff		 add	 eax, DWORD PTR _i$7[ebp]
  00626	88 90 4c 01 00
	00		 mov	 BYTE PTR [eax+332], dl
$LN12@ReadGameSe:

; 852  : 		}

  0062c	e9 12 fe ff ff	 jmp	 $LN2@ReadGameSe
$LN8@ReadGameSe:

; 853  : 	}
; 854  : 
; 855  : 	TCHAR szPersonalRule[CountArray(GameServerResult.cbCustomRule) * 2 + 1] = {};

  00631	68 01 08 00 00	 push	 2049			; 00000801H
  00636	6a 00		 push	 0
  00638	8d 85 e4 ef ff
	ff		 lea	 eax, DWORD PTR _szPersonalRule$[ebp]
  0063e	50		 push	 eax
  0063f	e8 00 00 00 00	 call	 _memset
  00644	83 c4 0c	 add	 esp, 12			; 0000000cH

; 856  : 	PlatformDBAide.GetValue_String(TEXT("PersonalRule"), szPersonalRule, CountArray(szPersonalRule));

  00647	68 01 08 00 00	 push	 2049			; 00000801H
  0064c	8d 85 e4 ef ff
	ff		 lea	 eax, DWORD PTR _szPersonalRule$[ebp]
  00652	50		 push	 eax
  00653	68 00 00 00 00	 push	 OFFSET ??_C@_0N@KBPJFFJC@PersonalRule@
  00658	8b 4d 08	 mov	 ecx, DWORD PTR _PlatformDBAide$[ebp]
  0065b	ff 15 00 00 00
	00		 call	 DWORD PTR __imp_?GetValue_String@CDataBaseAide@@QAEXPBDPADI@Z

; 857  : 
; 858  : 	//扩展配置
; 859  : 	if (szPersonalRule[0] != 0)

  00661	b8 01 00 00 00	 mov	 eax, 1
  00666	6b c8 00	 imul	 ecx, eax, 0
  00669	0f be 94 0d e4
	ef ff ff	 movsx	 edx, BYTE PTR _szPersonalRule$[ebp+ecx]
  00671	85 d2		 test	 edx, edx
  00673	0f 84 48 02 00
	00		 je	 $LN13@ReadGameSe

; 860  : 	{
; 861  : 		//获取长度
; 862  : 		ASSERT(lstrlen(szPersonalRule) % 2 == 0);

  00679	8d 85 e4 ef ff
	ff		 lea	 eax, DWORD PTR _szPersonalRule$[ebp]
  0067f	50		 push	 eax
  00680	ff 15 00 00 00
	00		 call	 DWORD PTR __imp__lstrlenA@4
  00686	25 01 00 00 80	 and	 eax, -2147483647	; 80000001H
  0068b	79 05		 jns	 SHORT $LN34@ReadGameSe
  0068d	48		 dec	 eax
  0068e	83 c8 fe	 or	 eax, -2			; fffffffeH
  00691	40		 inc	 eax
$LN34@ReadGameSe:
  00692	85 c0		 test	 eax, eax
  00694	74 19		 je	 SHORT $LN26@ReadGameSe
  00696	8b 0d 00 00 00
	00		 mov	 ecx, DWORD PTR ?__LINE__Var@?0??ReadGameServerInfo@CServerInfoManager@@AAE_NAAVCDataBaseAide@@AAUtagGameServerInfo@@@Z@4JA
  0069c	83 c1 67	 add	 ecx, 103		; 00000067H
  0069f	51		 push	 ecx
  006a0	68 00 00 00 00	 push	 OFFSET ??_C@_0EO@GNEBGAKM@g?3?2?M?x?$LK?$PM?2happygamewh?2?$LH?$PO?N?q?$LG?K?2?O?$LF?M?$LD@
  006a5	e8 00 00 00 00	 call	 ?AfxAssertFailedLine@@YGHPBDH@Z ; AfxAssertFailedLine
  006aa	85 c0		 test	 eax, eax
  006ac	74 01		 je	 SHORT $LN26@ReadGameSe
  006ae	cc		 int	 3
$LN26@ReadGameSe:

; 863  : 		INT nPersonalRuleSize = lstrlen(szPersonalRule) / 2;

  006af	8d 85 e4 ef ff
	ff		 lea	 eax, DWORD PTR _szPersonalRule$[ebp]
  006b5	50		 push	 eax
  006b6	ff 15 00 00 00
	00		 call	 DWORD PTR __imp__lstrlenA@4
  006bc	99		 cdq
  006bd	2b c2		 sub	 eax, edx
  006bf	d1 f8		 sar	 eax, 1
  006c1	89 85 e0 ef ff
	ff		 mov	 DWORD PTR _nPersonalRuleSize$4[ebp], eax

; 864  : 
; 865  : 		//转换字符
; 866  : 		for (INT i = 0; i<nPersonalRuleSize; i++)

  006c7	c7 85 dc ef ff
	ff 00 00 00 00	 mov	 DWORD PTR _i$3[ebp], 0
  006d1	eb 0f		 jmp	 SHORT $LN7@ReadGameSe
$LN5@ReadGameSe:
  006d3	8b 85 dc ef ff
	ff		 mov	 eax, DWORD PTR _i$3[ebp]
  006d9	83 c0 01	 add	 eax, 1
  006dc	89 85 dc ef ff
	ff		 mov	 DWORD PTR _i$3[ebp], eax
$LN7@ReadGameSe:
  006e2	8b 85 dc ef ff
	ff		 mov	 eax, DWORD PTR _i$3[ebp]
  006e8	3b 85 e0 ef ff
	ff		 cmp	 eax, DWORD PTR _nPersonalRuleSize$4[ebp]
  006ee	0f 8d cd 01 00
	00		 jge	 $LN13@ReadGameSe

; 867  : 		{
; 868  : 			//获取字符
; 869  : 			TCHAR cbChar1 = szPersonalRule[i * 2];

  006f4	8b 85 dc ef ff
	ff		 mov	 eax, DWORD PTR _i$3[ebp]
  006fa	8a 8c 45 e4 ef
	ff ff		 mov	 cl, BYTE PTR _szPersonalRule$[ebp+eax*2]
  00701	88 8d db ef ff
	ff		 mov	 BYTE PTR _cbChar1$2[ebp], cl

; 870  : 			TCHAR cbChar2 = szPersonalRule[i * 2 + 1];

  00707	8b 85 dc ef ff
	ff		 mov	 eax, DWORD PTR _i$3[ebp]
  0070d	8a 8c 45 e5 ef
	ff ff		 mov	 cl, BYTE PTR _szPersonalRule$[ebp+eax*2+1]
  00714	88 8d da ef ff
	ff		 mov	 BYTE PTR _cbChar2$1[ebp], cl

; 871  : 
; 872  : 			//效验字符
; 873  : 			ASSERT((cbChar1 >= TEXT('0')) && (cbChar1 <= TEXT('9')) || (cbChar1 >= TEXT('A')) && (cbChar1 <= TEXT('F')));

  0071a	0f be 85 db ef
	ff ff		 movsx	 eax, BYTE PTR _cbChar1$2[ebp]
  00721	83 f8 30	 cmp	 eax, 48			; 00000030H
  00724	7c 0c		 jl	 SHORT $LN27@ReadGameSe
  00726	0f be 8d db ef
	ff ff		 movsx	 ecx, BYTE PTR _cbChar1$2[ebp]
  0072d	83 f9 39	 cmp	 ecx, 57			; 00000039H
  00730	7e 31		 jle	 SHORT $LN29@ReadGameSe
$LN27@ReadGameSe:
  00732	0f be 95 db ef
	ff ff		 movsx	 edx, BYTE PTR _cbChar1$2[ebp]
  00739	83 fa 41	 cmp	 edx, 65			; 00000041H
  0073c	7c 0c		 jl	 SHORT $LN28@ReadGameSe
  0073e	0f be 85 db ef
	ff ff		 movsx	 eax, BYTE PTR _cbChar1$2[ebp]
  00745	83 f8 46	 cmp	 eax, 70			; 00000046H
  00748	7e 19		 jle	 SHORT $LN29@ReadGameSe
$LN28@ReadGameSe:
  0074a	8b 0d 00 00 00
	00		 mov	 ecx, DWORD PTR ?__LINE__Var@?0??ReadGameServerInfo@CServerInfoManager@@AAE_NAAVCDataBaseAide@@AAUtagGameServerInfo@@@Z@4JA
  00750	83 c1 72	 add	 ecx, 114		; 00000072H
  00753	51		 push	 ecx
  00754	68 00 00 00 00	 push	 OFFSET ??_C@_0EO@GNEBGAKM@g?3?2?M?x?$LK?$PM?2happygamewh?2?$LH?$PO?N?q?$LG?K?2?O?$LF?M?$LD@
  00759	e8 00 00 00 00	 call	 ?AfxAssertFailedLine@@YGHPBDH@Z ; AfxAssertFailedLine
  0075e	85 c0		 test	 eax, eax
  00760	74 01		 je	 SHORT $LN29@ReadGameSe
  00762	cc		 int	 3
$LN29@ReadGameSe:

; 874  : 			ASSERT((cbChar2 >= TEXT('0')) && (cbChar2 <= TEXT('9')) || (cbChar2 >= TEXT('A')) && (cbChar2 <= TEXT('F')));

  00763	0f be 85 da ef
	ff ff		 movsx	 eax, BYTE PTR _cbChar2$1[ebp]
  0076a	83 f8 30	 cmp	 eax, 48			; 00000030H
  0076d	7c 0c		 jl	 SHORT $LN30@ReadGameSe
  0076f	0f be 8d da ef
	ff ff		 movsx	 ecx, BYTE PTR _cbChar2$1[ebp]
  00776	83 f9 39	 cmp	 ecx, 57			; 00000039H
  00779	7e 31		 jle	 SHORT $LN32@ReadGameSe
$LN30@ReadGameSe:
  0077b	0f be 95 da ef
	ff ff		 movsx	 edx, BYTE PTR _cbChar2$1[ebp]
  00782	83 fa 41	 cmp	 edx, 65			; 00000041H
  00785	7c 0c		 jl	 SHORT $LN31@ReadGameSe
  00787	0f be 85 da ef
	ff ff		 movsx	 eax, BYTE PTR _cbChar2$1[ebp]
  0078e	83 f8 46	 cmp	 eax, 70			; 00000046H
  00791	7e 19		 jle	 SHORT $LN32@ReadGameSe
$LN31@ReadGameSe:
  00793	8b 0d 00 00 00
	00		 mov	 ecx, DWORD PTR ?__LINE__Var@?0??ReadGameServerInfo@CServerInfoManager@@AAE_NAAVCDataBaseAide@@AAUtagGameServerInfo@@@Z@4JA
  00799	83 c1 73	 add	 ecx, 115		; 00000073H
  0079c	51		 push	 ecx
  0079d	68 00 00 00 00	 push	 OFFSET ??_C@_0EO@GNEBGAKM@g?3?2?M?x?$LK?$PM?2happygamewh?2?$LH?$PO?N?q?$LG?K?2?O?$LF?M?$LD@
  007a2	e8 00 00 00 00	 call	 ?AfxAssertFailedLine@@YGHPBDH@Z ; AfxAssertFailedLine
  007a7	85 c0		 test	 eax, eax
  007a9	74 01		 je	 SHORT $LN32@ReadGameSe
  007ab	cc		 int	 3
$LN32@ReadGameSe:

; 875  : 
; 876  : 			//生成结果
; 877  : 			if ((cbChar2 >= TEXT('0')) && (cbChar2 <= TEXT('9'))) GameServerResult.cbPersonalRule[i] += (cbChar2 - TEXT('0'));

  007ac	0f be 85 da ef
	ff ff		 movsx	 eax, BYTE PTR _cbChar2$1[ebp]
  007b3	83 f8 30	 cmp	 eax, 48			; 00000030H
  007b6	7c 36		 jl	 SHORT $LN14@ReadGameSe
  007b8	0f be 85 da ef
	ff ff		 movsx	 eax, BYTE PTR _cbChar2$1[ebp]
  007bf	83 f8 39	 cmp	 eax, 57			; 00000039H
  007c2	7f 2a		 jg	 SHORT $LN14@ReadGameSe
  007c4	0f be 85 da ef
	ff ff		 movsx	 eax, BYTE PTR _cbChar2$1[ebp]
  007cb	8b 4d 0c	 mov	 ecx, DWORD PTR _GameServerResult$[ebp]
  007ce	03 8d dc ef ff
	ff		 add	 ecx, DWORD PTR _i$3[ebp]
  007d4	0f b6 91 6d 05
	00 00		 movzx	 edx, BYTE PTR [ecx+1389]
  007db	8d 44 02 d0	 lea	 eax, DWORD PTR [edx+eax-48]
  007df	8b 4d 0c	 mov	 ecx, DWORD PTR _GameServerResult$[ebp]
  007e2	03 8d dc ef ff
	ff		 add	 ecx, DWORD PTR _i$3[ebp]
  007e8	88 81 6d 05 00
	00		 mov	 BYTE PTR [ecx+1389], al
$LN14@ReadGameSe:

; 878  : 			if ((cbChar2 >= TEXT('A')) && (cbChar2 <= TEXT('F'))) GameServerResult.cbPersonalRule[i] += (cbChar2 - TEXT('A') + 0x0A);

  007ee	0f be 85 da ef
	ff ff		 movsx	 eax, BYTE PTR _cbChar2$1[ebp]
  007f5	83 f8 41	 cmp	 eax, 65			; 00000041H
  007f8	7c 36		 jl	 SHORT $LN15@ReadGameSe
  007fa	0f be 85 da ef
	ff ff		 movsx	 eax, BYTE PTR _cbChar2$1[ebp]
  00801	83 f8 46	 cmp	 eax, 70			; 00000046H
  00804	7f 2a		 jg	 SHORT $LN15@ReadGameSe
  00806	0f be 85 da ef
	ff ff		 movsx	 eax, BYTE PTR _cbChar2$1[ebp]
  0080d	8b 4d 0c	 mov	 ecx, DWORD PTR _GameServerResult$[ebp]
  00810	03 8d dc ef ff
	ff		 add	 ecx, DWORD PTR _i$3[ebp]
  00816	0f b6 91 6d 05
	00 00		 movzx	 edx, BYTE PTR [ecx+1389]
  0081d	8d 44 02 c9	 lea	 eax, DWORD PTR [edx+eax-55]
  00821	8b 4d 0c	 mov	 ecx, DWORD PTR _GameServerResult$[ebp]
  00824	03 8d dc ef ff
	ff		 add	 ecx, DWORD PTR _i$3[ebp]
  0082a	88 81 6d 05 00
	00		 mov	 BYTE PTR [ecx+1389], al
$LN15@ReadGameSe:

; 879  : 
; 880  : 			//生成结果
; 881  : 			if ((cbChar1 >= TEXT('0')) && (cbChar1 <= TEXT('9'))) GameServerResult.cbPersonalRule[i] += (cbChar1 - TEXT('0')) * 0x10;

  00830	0f be 85 db ef
	ff ff		 movsx	 eax, BYTE PTR _cbChar1$2[ebp]
  00837	83 f8 30	 cmp	 eax, 48			; 00000030H
  0083a	7c 3a		 jl	 SHORT $LN16@ReadGameSe
  0083c	0f be 85 db ef
	ff ff		 movsx	 eax, BYTE PTR _cbChar1$2[ebp]
  00843	83 f8 39	 cmp	 eax, 57			; 00000039H
  00846	7f 2e		 jg	 SHORT $LN16@ReadGameSe
  00848	0f be 85 db ef
	ff ff		 movsx	 eax, BYTE PTR _cbChar1$2[ebp]
  0084f	83 e8 30	 sub	 eax, 48			; 00000030H
  00852	c1 e0 04	 shl	 eax, 4
  00855	8b 4d 0c	 mov	 ecx, DWORD PTR _GameServerResult$[ebp]
  00858	03 8d dc ef ff
	ff		 add	 ecx, DWORD PTR _i$3[ebp]
  0085e	0f b6 91 6d 05
	00 00		 movzx	 edx, BYTE PTR [ecx+1389]
  00865	03 d0		 add	 edx, eax
  00867	8b 45 0c	 mov	 eax, DWORD PTR _GameServerResult$[ebp]
  0086a	03 85 dc ef ff
	ff		 add	 eax, DWORD PTR _i$3[ebp]
  00870	88 90 6d 05 00
	00		 mov	 BYTE PTR [eax+1389], dl
$LN16@ReadGameSe:

; 882  : 			if ((cbChar1 >= TEXT('A')) && (cbChar1 <= TEXT('F'))) GameServerResult.cbPersonalRule[i] += (cbChar1 - TEXT('A') + 0x0A) * 0x10;

  00876	0f be 85 db ef
	ff ff		 movsx	 eax, BYTE PTR _cbChar1$2[ebp]
  0087d	83 f8 41	 cmp	 eax, 65			; 00000041H
  00880	7c 3a		 jl	 SHORT $LN17@ReadGameSe
  00882	0f be 85 db ef
	ff ff		 movsx	 eax, BYTE PTR _cbChar1$2[ebp]
  00889	83 f8 46	 cmp	 eax, 70			; 00000046H
  0088c	7f 2e		 jg	 SHORT $LN17@ReadGameSe
  0088e	0f be 85 db ef
	ff ff		 movsx	 eax, BYTE PTR _cbChar1$2[ebp]
  00895	83 e8 37	 sub	 eax, 55			; 00000037H
  00898	c1 e0 04	 shl	 eax, 4
  0089b	8b 4d 0c	 mov	 ecx, DWORD PTR _GameServerResult$[ebp]
  0089e	03 8d dc ef ff
	ff		 add	 ecx, DWORD PTR _i$3[ebp]
  008a4	0f b6 91 6d 05
	00 00		 movzx	 edx, BYTE PTR [ecx+1389]
  008ab	03 d0		 add	 edx, eax
  008ad	8b 45 0c	 mov	 eax, DWORD PTR _GameServerResult$[ebp]
  008b0	03 85 dc ef ff
	ff		 add	 eax, DWORD PTR _i$3[ebp]
  008b6	88 90 6d 05 00
	00		 mov	 BYTE PTR [eax+1389], dl
$LN17@ReadGameSe:

; 883  : 		}

  008bc	e9 12 fe ff ff	 jmp	 $LN5@ReadGameSe
$LN13@ReadGameSe:

; 884  : 	}
; 885  : 
; 886  : 	//本地版本
; 887  : 	LPCTSTR pszServerDLLName=GameServerResult.szServerDLLName;

  008c1	8b 45 0c	 mov	 eax, DWORD PTR _GameServerResult$[ebp]
  008c4	83 c0 38	 add	 eax, 56			; 00000038H
  008c7	89 85 d4 ef ff
	ff		 mov	 DWORD PTR _pszServerDLLName$[ebp], eax

; 888  : 	CWHService::GetModuleVersion(pszServerDLLName,GameServerResult.dwNativeVersion);

  008cd	8b 45 0c	 mov	 eax, DWORD PTR _GameServerResult$[ebp]
  008d0	83 c0 14	 add	 eax, 20			; 00000014H
  008d3	50		 push	 eax
  008d4	8b 8d d4 ef ff
	ff		 mov	 ecx, DWORD PTR _pszServerDLLName$[ebp]
  008da	51		 push	 ecx
  008db	ff 15 00 00 00
	00		 call	 DWORD PTR __imp_?GetModuleVersion@CWHService@@SA_NPBDAAK@Z
  008e1	83 c4 08	 add	 esp, 8

; 889  : 
; 890  : 	return true;

  008e4	b0 01		 mov	 al, 1

; 891  : }

  008e6	5f		 pop	 edi
  008e7	5e		 pop	 esi
  008e8	5b		 pop	 ebx
  008e9	8b 4d fc	 mov	 ecx, DWORD PTR __$ArrayPad$[ebp]
  008ec	33 cd		 xor	 ecx, ebp
  008ee	e8 00 00 00 00	 call	 @__security_check_cookie@4
  008f3	8b e5		 mov	 esp, ebp
  008f5	5d		 pop	 ebp
  008f6	c2 08 00	 ret	 8
?ReadGameServerInfo@CServerInfoManager@@AAE_NAAVCDataBaseAide@@AAUtagGameServerInfo@@@Z ENDP ; CServerInfoManager::ReadGameServerInfo
_TEXT	ENDS
; Function compile flags: /Odtp /ZI
; File g:\网狐\happygamewh\服务端\系统模块\服务器组件\模块管理\serverinfomanager.cpp
;	COMDAT ?ConnectPlatformDB@CServerInfoManager@@AAE_NAAVCDataBaseHelper@@@Z
_TEXT	SEGMENT
tv144 = -80						; size = 4
tv92 = -80						; size = 4
_pDataBaseParameter$ = -12				; size = 4
_pModuleDBParameter$ = -8				; size = 4
_this$ = -4						; size = 4
_PlatformDBModule$ = 8					; size = 4
?ConnectPlatformDB@CServerInfoManager@@AAE_NAAVCDataBaseHelper@@@Z PROC ; CServerInfoManager::ConnectPlatformDB, COMDAT
; _this$ = ecx

; 735  : {

  00000	55		 push	 ebp
  00001	8b ec		 mov	 ebp, esp
  00003	83 ec 50	 sub	 esp, 80			; 00000050H
  00006	53		 push	 ebx
  00007	56		 push	 esi
  00008	57		 push	 edi
  00009	89 4d fc	 mov	 DWORD PTR _this$[ebp], ecx

; 736  : 	//获取参数
; 737  : 	CModuleDBParameter * pModuleDBParameter=CModuleDBParameter::GetModuleDBParameter();

  0000c	e8 00 00 00 00	 call	 ?GetModuleDBParameter@CModuleDBParameter@@SAPAV1@XZ ; CModuleDBParameter::GetModuleDBParameter
  00011	89 45 f8	 mov	 DWORD PTR _pModuleDBParameter$[ebp], eax

; 738  : 	tagDataBaseParameter * pDataBaseParameter=pModuleDBParameter->GetPlatformDBParameter();

  00014	8b 4d f8	 mov	 ecx, DWORD PTR _pModuleDBParameter$[ebp]
  00017	e8 00 00 00 00	 call	 ?GetPlatformDBParameter@CModuleDBParameter@@QAEPAUtagDataBaseParameter@@XZ ; CModuleDBParameter::GetPlatformDBParameter
  0001c	89 45 f4	 mov	 DWORD PTR _pDataBaseParameter$[ebp], eax

; 739  : 
; 740  : 	//创建对象
; 741  : 	if ((PlatformDBModule.GetInterface()==NULL)&&(PlatformDBModule.CreateInstance()==false))

  0001f	8b 4d 08	 mov	 ecx, DWORD PTR _PlatformDBModule$[ebp]
  00022	e8 00 00 00 00	 call	 ?GetInterface@?$CTempldateHelper@UIDataBase@@@@QBEPAUIDataBase@@XZ ; CTempldateHelper<IDataBase>::GetInterface
  00027	85 c0		 test	 eax, eax
  00029	75 21		 jne	 SHORT $LN2@ConnectPla
  0002b	8b 4d 08	 mov	 ecx, DWORD PTR _PlatformDBModule$[ebp]
  0002e	e8 00 00 00 00	 call	 ?CreateInstance@?$CTempldateHelper@UIDataBase@@@@QAE_NXZ ; CTempldateHelper<IDataBase>::CreateInstance
  00033	0f b6 c0	 movzx	 eax, al
  00036	85 c0		 test	 eax, eax
  00038	75 12		 jne	 SHORT $LN2@ConnectPla

; 742  : 	{
; 743  : 		AfxMessageBox(TEXT("CreateGameServer 创建 PlatformDBModule 对象失败"),MB_ICONERROR);

  0003a	6a 00		 push	 0
  0003c	6a 10		 push	 16			; 00000010H
  0003e	68 00 00 00 00	 push	 OFFSET ??_C@_0DA@PCJBGNDG@CreateGameServer?5?$LE?$LE?$LN?$KI?5PlatformD@
  00043	e8 00 00 00 00	 call	 ?AfxMessageBox@@YGHPBDII@Z ; AfxMessageBox

; 744  : 		return false;

  00048	32 c0		 xor	 al, al
  0004a	eb 55		 jmp	 SHORT $LN1@ConnectPla
$LN2@ConnectPla:

; 745  : 	}
; 746  : 
; 747  : 	//设置连接
; 748  : 	PlatformDBModule->SetConnectionInfo(pDataBaseParameter->szDataBaseAddr,pDataBaseParameter->wDataBasePort,

  0004c	8b 4d 08	 mov	 ecx, DWORD PTR _PlatformDBModule$[ebp]
  0004f	e8 00 00 00 00	 call	 ??C?$CTempldateHelper@UIDataBase@@@@QBEPAUIDataBase@@XZ ; CTempldateHelper<IDataBase>::operator->
  00054	89 45 b0	 mov	 DWORD PTR tv92[ebp], eax
  00057	8b 45 f4	 mov	 eax, DWORD PTR _pDataBaseParameter$[ebp]
  0005a	83 c0 42	 add	 eax, 66			; 00000042H
  0005d	50		 push	 eax
  0005e	8b 4d f4	 mov	 ecx, DWORD PTR _pDataBaseParameter$[ebp]
  00061	83 c1 22	 add	 ecx, 34			; 00000022H
  00064	51		 push	 ecx
  00065	8b 55 f4	 mov	 edx, DWORD PTR _pDataBaseParameter$[ebp]
  00068	83 c2 62	 add	 edx, 98			; 00000062H
  0006b	52		 push	 edx
  0006c	8b 45 f4	 mov	 eax, DWORD PTR _pDataBaseParameter$[ebp]
  0006f	0f b7 08	 movzx	 ecx, WORD PTR [eax]
  00072	51		 push	 ecx
  00073	8b 55 f4	 mov	 edx, DWORD PTR _pDataBaseParameter$[ebp]
  00076	83 c2 02	 add	 edx, 2
  00079	52		 push	 edx
  0007a	8b 45 b0	 mov	 eax, DWORD PTR tv92[ebp]
  0007d	8b 10		 mov	 edx, DWORD PTR [eax]
  0007f	8b 4d b0	 mov	 ecx, DWORD PTR tv92[ebp]
  00082	8b 42 10	 mov	 eax, DWORD PTR [edx+16]
  00085	ff d0		 call	 eax

; 749  : 		pDataBaseParameter->szDataBaseName,pDataBaseParameter->szDataBaseUser,pDataBaseParameter->szDataBasePass);
; 750  : 
; 751  : 	//发起连接
; 752  : 	PlatformDBModule->OpenConnection();

  00087	8b 4d 08	 mov	 ecx, DWORD PTR _PlatformDBModule$[ebp]
  0008a	e8 00 00 00 00	 call	 ??C?$CTempldateHelper@UIDataBase@@@@QBEPAUIDataBase@@XZ ; CTempldateHelper<IDataBase>::operator->
  0008f	89 45 b0	 mov	 DWORD PTR tv144[ebp], eax
  00092	8b 45 b0	 mov	 eax, DWORD PTR tv144[ebp]
  00095	8b 10		 mov	 edx, DWORD PTR [eax]
  00097	8b 4d b0	 mov	 ecx, DWORD PTR tv144[ebp]
  0009a	8b 42 08	 mov	 eax, DWORD PTR [edx+8]
  0009d	ff d0		 call	 eax

; 753  : 
; 754  : 	return true;

  0009f	b0 01		 mov	 al, 1
$LN1@ConnectPla:

; 755  : }

  000a1	5f		 pop	 edi
  000a2	5e		 pop	 esi
  000a3	5b		 pop	 ebx
  000a4	8b e5		 mov	 esp, ebp
  000a6	5d		 pop	 ebp
  000a7	c2 04 00	 ret	 4
?ConnectPlatformDB@CServerInfoManager@@AAE_NAAVCDataBaseHelper@@@Z ENDP ; CServerInfoManager::ConnectPlatformDB
_TEXT	ENDS
; Function compile flags: /Odtp /ZI
; File g:\网狐\happygamewh\服务端\系统模块\服务器组件\模块管理\serverinfomanager.cpp
;	COMDAT ?ModifyGameServer@CServerInfoManager@@QAE_NPAUtagGameServerCreate@@AAUtagGameServerInfo@@@Z
_TEXT	SEGMENT
tv453 = -5280						; size = 4
tv452 = -5280						; size = 4
tv65 = -5280						; size = 4
tv69 = -5276						; size = 1
$T2 = -5275						; size = 1
$T3 = -5274						; size = 1
$T4 = -5273						; size = 1
$T5 = -5272						; size = 4
$T6 = -5266						; size = 1
$T7 = -5265						; size = 1
_pszDescribe$8 = -4752					; size = 4
_pIException$9 = -4748					; size = 4
_szDescribeString$10 = -4744				; size = 128
_i$11 = -4616						; size = 4
_szPersonalRule$12 = -4612				; size = 2049
_i$13 = -2560						; size = 4
_szCustomRule$14 = -2556				; size = 2049
_PlatformDBModule$ = -504				; size = 472
_PlatformDBAide$ = -32					; size = 8
_this$ = -24						; size = 4
__$ArrayPad$ = -20					; size = 4
__$EHRec$ = -16						; size = 16
_pGameServerCreate$ = 8					; size = 4
_GameServerResult$ = 12					; size = 4
?ModifyGameServer@CServerInfoManager@@QAE_NPAUtagGameServerCreate@@AAUtagGameServerInfo@@@Z PROC ; CServerInfoManager::ModifyGameServer, COMDAT
; _this$ = ecx

; 629  : {

  00000	55		 push	 ebp
  00001	8b ec		 mov	 ebp, esp
  00003	6a ff		 push	 -1
  00005	68 00 00 00 00	 push	 __ehhandler$?ModifyGameServer@CServerInfoManager@@QAE_NPAUtagGameServerCreate@@AAUtagGameServerInfo@@@Z
  0000a	64 a1 00 00 00
	00		 mov	 eax, DWORD PTR fs:0
  00010	50		 push	 eax
  00011	51		 push	 ecx
  00012	b8 90 14 00 00	 mov	 eax, 5264		; 00001490H
  00017	e8 00 00 00 00	 call	 __chkstk
  0001c	a1 00 00 00 00	 mov	 eax, DWORD PTR ___security_cookie
  00021	33 c5		 xor	 eax, ebp
  00023	89 45 ec	 mov	 DWORD PTR __$ArrayPad$[ebp], eax
  00026	53		 push	 ebx
  00027	56		 push	 esi
  00028	57		 push	 edi
  00029	50		 push	 eax
  0002a	8d 45 f4	 lea	 eax, DWORD PTR __$EHRec$[ebp+4]
  0002d	64 a3 00 00 00
	00		 mov	 DWORD PTR fs:0, eax
  00033	89 65 f0	 mov	 DWORD PTR __$EHRec$[ebp], esp
  00036	89 4d e8	 mov	 DWORD PTR _this$[ebp], ecx

; 630  : 	//变量定义
; 631  : 	CDataBaseAide PlatformDBAide;

  00039	6a 00		 push	 0
  0003b	8d 4d e0	 lea	 ecx, DWORD PTR _PlatformDBAide$[ebp]
  0003e	ff 15 00 00 00
	00		 call	 DWORD PTR __imp_??0CDataBaseAide@@QAE@PAUIUnknownEx@@@Z
  00044	c7 45 fc 00 00
	00 00		 mov	 DWORD PTR __$EHRec$[ebp+12], 0

; 632  : 	CDataBaseHelper PlatformDBModule;

  0004b	8d 8d 08 fe ff
	ff		 lea	 ecx, DWORD PTR _PlatformDBModule$[ebp]
  00051	e8 00 00 00 00	 call	 ??0CDataBaseHelper@@QAE@XZ ; CDataBaseHelper::CDataBaseHelper
  00056	c6 45 fc 01	 mov	 BYTE PTR __$EHRec$[ebp+12], 1

; 633  : 
; 634  : 	//执行逻辑
; 635  : 	try

  0005a	c6 45 fc 02	 mov	 BYTE PTR __$EHRec$[ebp+12], 2

; 636  : 	{
; 637  : 		//连接数据库
; 638  : 		if (ConnectPlatformDB(PlatformDBModule)==false)

  0005e	8d 85 08 fe ff
	ff		 lea	 eax, DWORD PTR _PlatformDBModule$[ebp]
  00064	50		 push	 eax
  00065	8b 4d e8	 mov	 ecx, DWORD PTR _this$[ebp]
  00068	e8 00 00 00 00	 call	 ?ConnectPlatformDB@CServerInfoManager@@AAE_NAAVCDataBaseHelper@@@Z ; CServerInfoManager::ConnectPlatformDB
  0006d	88 85 64 eb ff
	ff		 mov	 BYTE PTR tv69[ebp], al
  00073	0f b6 8d 64 eb
	ff ff		 movzx	 ecx, BYTE PTR tv69[ebp]
  0007a	85 c9		 test	 ecx, ecx
  0007c	75 59		 jne	 SHORT $LN9@ModifyGame

; 639  : 		{
; 640  : 			ASSERT(FALSE);

  0007e	33 c0		 xor	 eax, eax
  00080	75 24		 jne	 SHORT $LN13@ModifyGame
  00082	8b 0d 00 00 00
	00		 mov	 ecx, DWORD PTR ?__LINE__Var@?0??ModifyGameServer@CServerInfoManager@@QAE_NPAUtagGameServerCreate@@AAUtagGameServerInfo@@@Z@4JA
  00088	83 c1 0b	 add	 ecx, 11			; 0000000bH
  0008b	51		 push	 ecx
  0008c	68 00 00 00 00	 push	 OFFSET ??_C@_0EO@GNEBGAKM@g?3?2?M?x?$LK?$PM?2happygamewh?2?$LH?$PO?N?q?$LG?K?2?O?$LF?M?$LD@
  00091	e8 00 00 00 00	 call	 ?AfxAssertFailedLine@@YGHPBDH@Z ; AfxAssertFailedLine
  00096	89 85 60 eb ff
	ff		 mov	 DWORD PTR tv65[ebp], eax
  0009c	83 bd 60 eb ff
	ff 00		 cmp	 DWORD PTR tv65[ebp], 0
  000a3	74 01		 je	 SHORT $LN13@ModifyGame
  000a5	cc		 int	 3
$LN13@ModifyGame:

; 641  : 			return false;

  000a6	c6 85 6f eb ff
	ff 00		 mov	 BYTE PTR $T7[ebp], 0
  000ad	c6 45 fc 00	 mov	 BYTE PTR __$EHRec$[ebp+12], 0
  000b1	8d 8d 08 fe ff
	ff		 lea	 ecx, DWORD PTR _PlatformDBModule$[ebp]
  000b7	e8 00 00 00 00	 call	 ??1CDataBaseHelper@@UAE@XZ
  000bc	c7 45 fc ff ff
	ff ff		 mov	 DWORD PTR __$EHRec$[ebp+12], -1
  000c3	8d 4d e0	 lea	 ecx, DWORD PTR _PlatformDBAide$[ebp]
  000c6	ff 15 00 00 00
	00		 call	 DWORD PTR __imp_??1CDataBaseAide@@UAE@XZ
  000cc	8a 85 6f eb ff
	ff		 mov	 al, BYTE PTR $T7[ebp]
  000d2	e9 75 06 00 00	 jmp	 $LN1@ModifyGame
$LN9@ModifyGame:

; 642  : 		}
; 643  : 
; 644  : 		//设置对象
; 645  : 		PlatformDBAide.SetDataBase(PlatformDBModule.GetInterface());

  000d7	8d 8d 08 fe ff
	ff		 lea	 ecx, DWORD PTR _PlatformDBModule$[ebp]
  000dd	e8 00 00 00 00	 call	 ?GetInterface@?$CTempldateHelper@UIDataBase@@@@QBEPAUIDataBase@@XZ ; CTempldateHelper<IDataBase>::GetInterface
  000e2	89 85 60 eb ff
	ff		 mov	 DWORD PTR tv452[ebp], eax
  000e8	8b 85 60 eb ff
	ff		 mov	 eax, DWORD PTR tv452[ebp]
  000ee	50		 push	 eax
  000ef	8d 4d e0	 lea	 ecx, DWORD PTR _PlatformDBAide$[ebp]
  000f2	ff 15 00 00 00
	00		 call	 DWORD PTR __imp_?SetDataBase@CDataBaseAide@@QAE_NPAUIUnknownEx@@@Z

; 646  : 
; 647  : 		//扩展配置
; 648  : 		TCHAR szCustomRule[CountArray(pGameServerCreate->cbCustomRule)*2+1]=TEXT("");

  000f8	a0 00 00 00 00	 mov	 al, BYTE PTR ??_C@_00CNPNBAHC@@
  000fd	88 85 04 f6 ff
	ff		 mov	 BYTE PTR _szCustomRule$14[ebp], al
  00103	68 00 08 00 00	 push	 2048			; 00000800H
  00108	6a 00		 push	 0
  0010a	8d 85 05 f6 ff
	ff		 lea	 eax, DWORD PTR _szCustomRule$14[ebp+1]
  00110	50		 push	 eax
  00111	e8 00 00 00 00	 call	 _memset
  00116	83 c4 0c	 add	 esp, 12			; 0000000cH

; 649  : 		for (INT i = 0; i<CountArray(pGameServerCreate->cbCustomRule); i++) _stprintf(&szCustomRule[i * 2], TEXT("%02X"), pGameServerCreate->cbCustomRule[i]);

  00119	c7 85 00 f6 ff
	ff 00 00 00 00	 mov	 DWORD PTR _i$13[ebp], 0
  00123	eb 0f		 jmp	 SHORT $LN4@ModifyGame
$LN2@ModifyGame:
  00125	8b 85 00 f6 ff
	ff		 mov	 eax, DWORD PTR _i$13[ebp]
  0012b	83 c0 01	 add	 eax, 1
  0012e	89 85 00 f6 ff
	ff		 mov	 DWORD PTR _i$13[ebp], eax
$LN4@ModifyGame:
  00134	81 bd 00 f6 ff
	ff 00 04 00 00	 cmp	 DWORD PTR _i$13[ebp], 1024 ; 00000400H
  0013e	73 2e		 jae	 SHORT $LN3@ModifyGame
  00140	8b 45 08	 mov	 eax, DWORD PTR _pGameServerCreate$[ebp]
  00143	03 85 00 f6 ff
	ff		 add	 eax, DWORD PTR _i$13[ebp]
  00149	0f b6 88 e4 00
	00 00		 movzx	 ecx, BYTE PTR [eax+228]
  00150	51		 push	 ecx
  00151	68 00 00 00 00	 push	 OFFSET ??_C@_04JFFKLGJF@?$CF02X@
  00156	8b 95 00 f6 ff
	ff		 mov	 edx, DWORD PTR _i$13[ebp]
  0015c	8d 84 55 04 f6
	ff ff		 lea	 eax, DWORD PTR _szCustomRule$14[ebp+edx*2]
  00163	50		 push	 eax
  00164	e8 00 00 00 00	 call	 _sprintf
  00169	83 c4 0c	 add	 esp, 12			; 0000000cH
  0016c	eb b7		 jmp	 SHORT $LN2@ModifyGame
$LN3@ModifyGame:

; 650  : 		TCHAR szPersonalRule[CountArray(pGameServerCreate->cbPersonalRule) * 2 + 1] = TEXT("");

  0016e	a0 00 00 00 00	 mov	 al, BYTE PTR ??_C@_00CNPNBAHC@@
  00173	88 85 fc ed ff
	ff		 mov	 BYTE PTR _szPersonalRule$12[ebp], al
  00179	68 00 08 00 00	 push	 2048			; 00000800H
  0017e	6a 00		 push	 0
  00180	8d 85 fd ed ff
	ff		 lea	 eax, DWORD PTR _szPersonalRule$12[ebp+1]
  00186	50		 push	 eax
  00187	e8 00 00 00 00	 call	 _memset
  0018c	83 c4 0c	 add	 esp, 12			; 0000000cH

; 651  : 		for (INT i = 0; i<CountArray(pGameServerCreate->cbPersonalRule); i++) _stprintf(&szPersonalRule[i * 2],TEXT("%02X"), pGameServerCreate->cbPersonalRule[i]);

  0018f	c7 85 f8 ed ff
	ff 00 00 00 00	 mov	 DWORD PTR _i$11[ebp], 0
  00199	eb 0f		 jmp	 SHORT $LN7@ModifyGame
$LN5@ModifyGame:
  0019b	8b 85 f8 ed ff
	ff		 mov	 eax, DWORD PTR _i$11[ebp]
  001a1	83 c0 01	 add	 eax, 1
  001a4	89 85 f8 ed ff
	ff		 mov	 DWORD PTR _i$11[ebp], eax
$LN7@ModifyGame:
  001aa	81 bd f8 ed ff
	ff 00 04 00 00	 cmp	 DWORD PTR _i$11[ebp], 1024 ; 00000400H
  001b4	73 2e		 jae	 SHORT $LN6@ModifyGame
  001b6	8b 45 08	 mov	 eax, DWORD PTR _pGameServerCreate$[ebp]
  001b9	03 85 f8 ed ff
	ff		 add	 eax, DWORD PTR _i$11[ebp]
  001bf	0f b6 88 05 05
	00 00		 movzx	 ecx, BYTE PTR [eax+1285]
  001c6	51		 push	 ecx
  001c7	68 00 00 00 00	 push	 OFFSET ??_C@_04JFFKLGJF@?$CF02X@
  001cc	8b 95 f8 ed ff
	ff		 mov	 edx, DWORD PTR _i$11[ebp]
  001d2	8d 84 55 fc ed
	ff ff		 lea	 eax, DWORD PTR _szPersonalRule$12[ebp+edx*2]
  001d9	50		 push	 eax
  001da	e8 00 00 00 00	 call	 _sprintf
  001df	83 c4 0c	 add	 esp, 12			; 0000000cH
  001e2	eb b7		 jmp	 SHORT $LN5@ModifyGame
$LN6@ModifyGame:

; 652  : 
; 653  : 		//插入参数
; 654  : 		PlatformDBAide.ResetParameter();

  001e4	8d 4d e0	 lea	 ecx, DWORD PTR _PlatformDBAide$[ebp]
  001e7	ff 15 00 00 00
	00		 call	 DWORD PTR __imp_?ResetParameter@CDataBaseAide@@QAEXXZ

; 655  : 		PlatformDBAide.AddParameter(TEXT("@wServerID"),pGameServerCreate->wServerID);

  001ed	6a 01		 push	 1
  001ef	8b 45 08	 mov	 eax, DWORD PTR _pGameServerCreate$[ebp]
  001f2	0f b7 48 02	 movzx	 ecx, WORD PTR [eax+2]
  001f6	51		 push	 ecx
  001f7	68 00 00 00 00	 push	 OFFSET ??_C@_0L@FIEHJJML@?$EAwServerID@
  001fc	8d 4d e0	 lea	 ecx, DWORD PTR _PlatformDBAide$[ebp]
  001ff	ff 15 00 00 00
	00		 call	 DWORD PTR __imp_?AddParameter@CDataBaseAide@@QAEXPBDGW4ParameterDirectionEnum@ADOCG@@@Z

; 656  : 		PlatformDBAide.AddParameter(TEXT("@wKindID"),pGameServerCreate->wKindID);

  00205	6a 01		 push	 1
  00207	8b 45 08	 mov	 eax, DWORD PTR _pGameServerCreate$[ebp]
  0020a	0f b7 48 04	 movzx	 ecx, WORD PTR [eax+4]
  0020e	51		 push	 ecx
  0020f	68 00 00 00 00	 push	 OFFSET ??_C@_08HBBOJKPI@?$EAwKindID@
  00214	8d 4d e0	 lea	 ecx, DWORD PTR _PlatformDBAide$[ebp]
  00217	ff 15 00 00 00
	00		 call	 DWORD PTR __imp_?AddParameter@CDataBaseAide@@QAEXPBDGW4ParameterDirectionEnum@ADOCG@@@Z

; 657  : 		PlatformDBAide.AddParameter(TEXT("@wNodeID"),pGameServerCreate->wNodeID);

  0021d	6a 01		 push	 1
  0021f	8b 45 08	 mov	 eax, DWORD PTR _pGameServerCreate$[ebp]
  00222	0f b7 48 06	 movzx	 ecx, WORD PTR [eax+6]
  00226	51		 push	 ecx
  00227	68 00 00 00 00	 push	 OFFSET ??_C@_08HHDCJIG@?$EAwNodeID@
  0022c	8d 4d e0	 lea	 ecx, DWORD PTR _PlatformDBAide$[ebp]
  0022f	ff 15 00 00 00
	00		 call	 DWORD PTR __imp_?AddParameter@CDataBaseAide@@QAEXPBDGW4ParameterDirectionEnum@ADOCG@@@Z

; 658  : 		PlatformDBAide.AddParameter(TEXT("@wSortID"),pGameServerCreate->wSortID);

  00235	6a 01		 push	 1
  00237	8b 45 08	 mov	 eax, DWORD PTR _pGameServerCreate$[ebp]
  0023a	0f b7 48 08	 movzx	 ecx, WORD PTR [eax+8]
  0023e	51		 push	 ecx
  0023f	68 00 00 00 00	 push	 OFFSET ??_C@_08GHPIGFA@?$EAwSortID@
  00244	8d 4d e0	 lea	 ecx, DWORD PTR _PlatformDBAide$[ebp]
  00247	ff 15 00 00 00
	00		 call	 DWORD PTR __imp_?AddParameter@CDataBaseAide@@QAEXPBDGW4ParameterDirectionEnum@ADOCG@@@Z

; 659  : 		PlatformDBAide.AddParameter(TEXT("@lCellScore"),pGameServerCreate->lCellScore);

  0024d	6a 01		 push	 1
  0024f	8b 45 08	 mov	 eax, DWORD PTR _pGameServerCreate$[ebp]
  00252	8b 48 0c	 mov	 ecx, DWORD PTR [eax+12]
  00255	51		 push	 ecx
  00256	68 00 00 00 00	 push	 OFFSET ??_C@_0M@DOJONCPP@?$EAlCellScore@
  0025b	8d 4d e0	 lea	 ecx, DWORD PTR _PlatformDBAide$[ebp]
  0025e	ff 15 00 00 00
	00		 call	 DWORD PTR __imp_?AddParameter@CDataBaseAide@@QAEXPBDJW4ParameterDirectionEnum@ADOCG@@@Z

; 660  : 		PlatformDBAide.AddParameter(TEXT("@wRevenueRatio"),pGameServerCreate->wRevenueRatio);

  00264	6a 01		 push	 1
  00266	8b 45 08	 mov	 eax, DWORD PTR _pGameServerCreate$[ebp]
  00269	0f b7 48 10	 movzx	 ecx, WORD PTR [eax+16]
  0026d	51		 push	 ecx
  0026e	68 00 00 00 00	 push	 OFFSET ??_C@_0P@JILOLBML@?$EAwRevenueRatio@
  00273	8d 4d e0	 lea	 ecx, DWORD PTR _PlatformDBAide$[ebp]
  00276	ff 15 00 00 00
	00		 call	 DWORD PTR __imp_?AddParameter@CDataBaseAide@@QAEXPBDGW4ParameterDirectionEnum@ADOCG@@@Z

; 661  : 		PlatformDBAide.AddParameter(TEXT("@lServiceScore"),pGameServerCreate->lServiceScore);

  0027c	6a 01		 push	 1
  0027e	8b 45 08	 mov	 eax, DWORD PTR _pGameServerCreate$[ebp]
  00281	8b 48 1c	 mov	 ecx, DWORD PTR [eax+28]
  00284	51		 push	 ecx
  00285	8b 50 18	 mov	 edx, DWORD PTR [eax+24]
  00288	52		 push	 edx
  00289	68 00 00 00 00	 push	 OFFSET ??_C@_0P@BCEPIHID@?$EAlServiceScore@
  0028e	8d 4d e0	 lea	 ecx, DWORD PTR _PlatformDBAide$[ebp]
  00291	ff 15 00 00 00
	00		 call	 DWORD PTR __imp_?AddParameter@CDataBaseAide@@QAEXPBD_JW4ParameterDirectionEnum@ADOCG@@@Z

; 662  : 		PlatformDBAide.AddParameter(TEXT("@lRestrictScore"),pGameServerCreate->lRestrictScore);

  00297	6a 01		 push	 1
  00299	8b 45 08	 mov	 eax, DWORD PTR _pGameServerCreate$[ebp]
  0029c	8b 48 24	 mov	 ecx, DWORD PTR [eax+36]
  0029f	51		 push	 ecx
  002a0	8b 50 20	 mov	 edx, DWORD PTR [eax+32]
  002a3	52		 push	 edx
  002a4	68 00 00 00 00	 push	 OFFSET ??_C@_0BA@MOGKDICI@?$EAlRestrictScore@
  002a9	8d 4d e0	 lea	 ecx, DWORD PTR _PlatformDBAide$[ebp]
  002ac	ff 15 00 00 00
	00		 call	 DWORD PTR __imp_?AddParameter@CDataBaseAide@@QAEXPBD_JW4ParameterDirectionEnum@ADOCG@@@Z

; 663  : 		PlatformDBAide.AddParameter(TEXT("@lMinTableScore"),pGameServerCreate->lMinTableScore);

  002b2	6a 01		 push	 1
  002b4	8b 45 08	 mov	 eax, DWORD PTR _pGameServerCreate$[ebp]
  002b7	8b 48 2c	 mov	 ecx, DWORD PTR [eax+44]
  002ba	51		 push	 ecx
  002bb	8b 50 28	 mov	 edx, DWORD PTR [eax+40]
  002be	52		 push	 edx
  002bf	68 00 00 00 00	 push	 OFFSET ??_C@_0BA@CGJIELGM@?$EAlMinTableScore@
  002c4	8d 4d e0	 lea	 ecx, DWORD PTR _PlatformDBAide$[ebp]
  002c7	ff 15 00 00 00
	00		 call	 DWORD PTR __imp_?AddParameter@CDataBaseAide@@QAEXPBD_JW4ParameterDirectionEnum@ADOCG@@@Z

; 664  : 		PlatformDBAide.AddParameter(TEXT("@lMinEnterScore"),pGameServerCreate->lMinEnterScore);

  002cd	6a 01		 push	 1
  002cf	8b 45 08	 mov	 eax, DWORD PTR _pGameServerCreate$[ebp]
  002d2	8b 48 34	 mov	 ecx, DWORD PTR [eax+52]
  002d5	51		 push	 ecx
  002d6	8b 50 30	 mov	 edx, DWORD PTR [eax+48]
  002d9	52		 push	 edx
  002da	68 00 00 00 00	 push	 OFFSET ??_C@_0BA@NKAHIJHK@?$EAlMinEnterScore@
  002df	8d 4d e0	 lea	 ecx, DWORD PTR _PlatformDBAide$[ebp]
  002e2	ff 15 00 00 00
	00		 call	 DWORD PTR __imp_?AddParameter@CDataBaseAide@@QAEXPBD_JW4ParameterDirectionEnum@ADOCG@@@Z

; 665  : 		PlatformDBAide.AddParameter(TEXT("@lMaxEnterScore"),pGameServerCreate->lMaxEnterScore);

  002e8	6a 01		 push	 1
  002ea	8b 45 08	 mov	 eax, DWORD PTR _pGameServerCreate$[ebp]
  002ed	8b 48 3c	 mov	 ecx, DWORD PTR [eax+60]
  002f0	51		 push	 ecx
  002f1	8b 50 38	 mov	 edx, DWORD PTR [eax+56]
  002f4	52		 push	 edx
  002f5	68 00 00 00 00	 push	 OFFSET ??_C@_0BA@GDCBBCAL@?$EAlMaxEnterScore@
  002fa	8d 4d e0	 lea	 ecx, DWORD PTR _PlatformDBAide$[ebp]
  002fd	ff 15 00 00 00
	00		 call	 DWORD PTR __imp_?AddParameter@CDataBaseAide@@QAEXPBD_JW4ParameterDirectionEnum@ADOCG@@@Z

; 666  : 		PlatformDBAide.AddParameter(TEXT("@cbMinEnterMember"),pGameServerCreate->cbMinEnterMember);

  00303	6a 01		 push	 1
  00305	8b 45 08	 mov	 eax, DWORD PTR _pGameServerCreate$[ebp]
  00308	0f b6 48 40	 movzx	 ecx, BYTE PTR [eax+64]
  0030c	51		 push	 ecx
  0030d	68 00 00 00 00	 push	 OFFSET ??_C@_0BC@CPKAFFOL@?$EAcbMinEnterMember@
  00312	8d 4d e0	 lea	 ecx, DWORD PTR _PlatformDBAide$[ebp]
  00315	ff 15 00 00 00
	00		 call	 DWORD PTR __imp_?AddParameter@CDataBaseAide@@QAEXPBDEW4ParameterDirectionEnum@ADOCG@@@Z

; 667  : 		PlatformDBAide.AddParameter(TEXT("@cbMaxEnterMember"),pGameServerCreate->cbMaxEnterMember);

  0031b	6a 01		 push	 1
  0031d	8b 45 08	 mov	 eax, DWORD PTR _pGameServerCreate$[ebp]
  00320	0f b6 48 41	 movzx	 ecx, BYTE PTR [eax+65]
  00324	51		 push	 ecx
  00325	68 00 00 00 00	 push	 OFFSET ??_C@_0BC@IBLDCNK@?$EAcbMaxEnterMember@
  0032a	8d 4d e0	 lea	 ecx, DWORD PTR _PlatformDBAide$[ebp]
  0032d	ff 15 00 00 00
	00		 call	 DWORD PTR __imp_?AddParameter@CDataBaseAide@@QAEXPBDEW4ParameterDirectionEnum@ADOCG@@@Z

; 668  : 		PlatformDBAide.AddParameter(TEXT("@dwServerRule"),pGameServerCreate->dwServerRule);

  00333	6a 01		 push	 1
  00335	8b 45 08	 mov	 eax, DWORD PTR _pGameServerCreate$[ebp]
  00338	8b 48 44	 mov	 ecx, DWORD PTR [eax+68]
  0033b	51		 push	 ecx
  0033c	68 00 00 00 00	 push	 OFFSET ??_C@_0O@ELIMAAAE@?$EAdwServerRule@
  00341	8d 4d e0	 lea	 ecx, DWORD PTR _PlatformDBAide$[ebp]
  00344	ff 15 00 00 00
	00		 call	 DWORD PTR __imp_?AddParameter@CDataBaseAide@@QAEXPBDKW4ParameterDirectionEnum@ADOCG@@@Z

; 669  : 		PlatformDBAide.AddParameter(TEXT("@dwAttachUserRight"),pGameServerCreate->dwAttachUserRight);

  0034a	6a 01		 push	 1
  0034c	8b 45 08	 mov	 eax, DWORD PTR _pGameServerCreate$[ebp]
  0034f	8b 48 48	 mov	 ecx, DWORD PTR [eax+72]
  00352	51		 push	 ecx
  00353	68 00 00 00 00	 push	 OFFSET ??_C@_0BD@FCBMNBKD@?$EAdwAttachUserRight@
  00358	8d 4d e0	 lea	 ecx, DWORD PTR _PlatformDBAide$[ebp]
  0035b	ff 15 00 00 00
	00		 call	 DWORD PTR __imp_?AddParameter@CDataBaseAide@@QAEXPBDKW4ParameterDirectionEnum@ADOCG@@@Z

; 670  : 		PlatformDBAide.AddParameter(TEXT("@wMaxPlayer"),pGameServerCreate->wMaxPlayer);

  00361	6a 01		 push	 1
  00363	8b 45 08	 mov	 eax, DWORD PTR _pGameServerCreate$[ebp]
  00366	0f b7 48 4c	 movzx	 ecx, WORD PTR [eax+76]
  0036a	51		 push	 ecx
  0036b	68 00 00 00 00	 push	 OFFSET ??_C@_0M@IBCKNPAA@?$EAwMaxPlayer@
  00370	8d 4d e0	 lea	 ecx, DWORD PTR _PlatformDBAide$[ebp]
  00373	ff 15 00 00 00
	00		 call	 DWORD PTR __imp_?AddParameter@CDataBaseAide@@QAEXPBDGW4ParameterDirectionEnum@ADOCG@@@Z

; 671  : 		PlatformDBAide.AddParameter(TEXT("@wTableCount"),pGameServerCreate->wTableCount);

  00379	6a 01		 push	 1
  0037b	8b 45 08	 mov	 eax, DWORD PTR _pGameServerCreate$[ebp]
  0037e	0f b7 48 4e	 movzx	 ecx, WORD PTR [eax+78]
  00382	51		 push	 ecx
  00383	68 00 00 00 00	 push	 OFFSET ??_C@_0N@JMGMPJ@?$EAwTableCount@
  00388	8d 4d e0	 lea	 ecx, DWORD PTR _PlatformDBAide$[ebp]
  0038b	ff 15 00 00 00
	00		 call	 DWORD PTR __imp_?AddParameter@CDataBaseAide@@QAEXPBDGW4ParameterDirectionEnum@ADOCG@@@Z

; 672  : 		PlatformDBAide.AddParameter(TEXT("@wServerPort"),pGameServerCreate->wServerPort);

  00391	6a 01		 push	 1
  00393	8b 45 08	 mov	 eax, DWORD PTR _pGameServerCreate$[ebp]
  00396	0f b7 48 50	 movzx	 ecx, WORD PTR [eax+80]
  0039a	51		 push	 ecx
  0039b	68 00 00 00 00	 push	 OFFSET ??_C@_0N@KHDIKACC@?$EAwServerPort@
  003a0	8d 4d e0	 lea	 ecx, DWORD PTR _PlatformDBAide$[ebp]
  003a3	ff 15 00 00 00
	00		 call	 DWORD PTR __imp_?AddParameter@CDataBaseAide@@QAEXPBDGW4ParameterDirectionEnum@ADOCG@@@Z

; 673  : 		PlatformDBAide.AddParameter(TEXT("@wServerKind"),pGameServerCreate->wServerKind);

  003a9	6a 01		 push	 1
  003ab	8b 45 08	 mov	 eax, DWORD PTR _pGameServerCreate$[ebp]
  003ae	0f b7 48 52	 movzx	 ecx, WORD PTR [eax+82]
  003b2	51		 push	 ecx
  003b3	68 00 00 00 00	 push	 OFFSET ??_C@_0N@MKJNBBCI@?$EAwServerKind@
  003b8	8d 4d e0	 lea	 ecx, DWORD PTR _PlatformDBAide$[ebp]
  003bb	ff 15 00 00 00
	00		 call	 DWORD PTR __imp_?AddParameter@CDataBaseAide@@QAEXPBDGW4ParameterDirectionEnum@ADOCG@@@Z

; 674  : 		PlatformDBAide.AddParameter(TEXT("@wServerType"),pGameServerCreate->wServerType);

  003c1	6a 01		 push	 1
  003c3	8b 45 08	 mov	 eax, DWORD PTR _pGameServerCreate$[ebp]
  003c6	0f b7 48 54	 movzx	 ecx, WORD PTR [eax+84]
  003ca	51		 push	 ecx
  003cb	68 00 00 00 00	 push	 OFFSET ??_C@_0N@HHJHPJNP@?$EAwServerType@
  003d0	8d 4d e0	 lea	 ecx, DWORD PTR _PlatformDBAide$[ebp]
  003d3	ff 15 00 00 00
	00		 call	 DWORD PTR __imp_?AddParameter@CDataBaseAide@@QAEXPBDGW4ParameterDirectionEnum@ADOCG@@@Z

; 675  : 		PlatformDBAide.AddParameter(TEXT("@wServerLevel"),pGameServerCreate->wServerLevel);

  003d9	6a 01		 push	 1
  003db	8b 45 08	 mov	 eax, DWORD PTR _pGameServerCreate$[ebp]
  003de	0f b7 48 56	 movzx	 ecx, WORD PTR [eax+86]
  003e2	51		 push	 ecx
  003e3	68 00 00 00 00	 push	 OFFSET ??_C@_0O@LAKNNJLO@?$EAwServerLevel@
  003e8	8d 4d e0	 lea	 ecx, DWORD PTR _PlatformDBAide$[ebp]
  003eb	ff 15 00 00 00
	00		 call	 DWORD PTR __imp_?AddParameter@CDataBaseAide@@QAEXPBDGW4ParameterDirectionEnum@ADOCG@@@Z

; 676  : 		PlatformDBAide.AddParameter(TEXT("@strServerName"),pGameServerCreate->szServerName);

  003f1	6a 01		 push	 1
  003f3	8b 45 08	 mov	 eax, DWORD PTR _pGameServerCreate$[ebp]
  003f6	83 c0 58	 add	 eax, 88			; 00000058H
  003f9	50		 push	 eax
  003fa	68 00 00 00 00	 push	 OFFSET ??_C@_0P@HKFGBIA@?$EAstrServerName@
  003ff	8d 4d e0	 lea	 ecx, DWORD PTR _PlatformDBAide$[ebp]
  00402	ff 15 00 00 00
	00		 call	 DWORD PTR __imp_?AddParameter@CDataBaseAide@@QAEXPBD0W4ParameterDirectionEnum@ADOCG@@@Z

; 677  : 		PlatformDBAide.AddParameter(TEXT("@strServerPasswd"),pGameServerCreate->szServerPasswd);

  00408	6a 01		 push	 1
  0040a	8b 45 08	 mov	 eax, DWORD PTR _pGameServerCreate$[ebp]
  0040d	83 c0 78	 add	 eax, 120		; 00000078H
  00410	50		 push	 eax
  00411	68 00 00 00 00	 push	 OFFSET ??_C@_0BB@MMFKNIGF@?$EAstrServerPasswd@
  00416	8d 4d e0	 lea	 ecx, DWORD PTR _PlatformDBAide$[ebp]
  00419	ff 15 00 00 00
	00		 call	 DWORD PTR __imp_?AddParameter@CDataBaseAide@@QAEXPBD0W4ParameterDirectionEnum@ADOCG@@@Z

; 678  : 		PlatformDBAide.AddParameter(TEXT("@cbDistributeRule"),pGameServerCreate->cbDistributeRule);

  0041f	6a 01		 push	 1
  00421	8b 45 08	 mov	 eax, DWORD PTR _pGameServerCreate$[ebp]
  00424	0f b6 88 99 00
	00 00		 movzx	 ecx, BYTE PTR [eax+153]
  0042b	51		 push	 ecx
  0042c	68 00 00 00 00	 push	 OFFSET ??_C@_0BC@OEHLNJCG@?$EAcbDistributeRule@
  00431	8d 4d e0	 lea	 ecx, DWORD PTR _PlatformDBAide$[ebp]
  00434	ff 15 00 00 00
	00		 call	 DWORD PTR __imp_?AddParameter@CDataBaseAide@@QAEXPBDEW4ParameterDirectionEnum@ADOCG@@@Z

; 679  : 		PlatformDBAide.AddParameter(TEXT("@wMinDistributeUser"),pGameServerCreate->wMinDistributeUser);

  0043a	6a 01		 push	 1
  0043c	8b 45 08	 mov	 eax, DWORD PTR _pGameServerCreate$[ebp]
  0043f	0f b7 88 9a 00
	00 00		 movzx	 ecx, WORD PTR [eax+154]
  00446	51		 push	 ecx
  00447	68 00 00 00 00	 push	 OFFSET ??_C@_0BE@HAABPICC@?$EAwMinDistributeUser@
  0044c	8d 4d e0	 lea	 ecx, DWORD PTR _PlatformDBAide$[ebp]
  0044f	ff 15 00 00 00
	00		 call	 DWORD PTR __imp_?AddParameter@CDataBaseAide@@QAEXPBDGW4ParameterDirectionEnum@ADOCG@@@Z

; 680  : 		PlatformDBAide.AddParameter(TEXT("@wDistributeTimeSpace"),pGameServerCreate->wDistributeTimeSpace);

  00455	6a 01		 push	 1
  00457	8b 45 08	 mov	 eax, DWORD PTR _pGameServerCreate$[ebp]
  0045a	0f b7 88 9c 00
	00 00		 movzx	 ecx, WORD PTR [eax+156]
  00461	51		 push	 ecx
  00462	68 00 00 00 00	 push	 OFFSET ??_C@_0BG@PGABJKOH@?$EAwDistributeTimeSpace@
  00467	8d 4d e0	 lea	 ecx, DWORD PTR _PlatformDBAide$[ebp]
  0046a	ff 15 00 00 00
	00		 call	 DWORD PTR __imp_?AddParameter@CDataBaseAide@@QAEXPBDGW4ParameterDirectionEnum@ADOCG@@@Z

; 681  : 		PlatformDBAide.AddParameter(TEXT("@wDistributeDrawCount"),pGameServerCreate->wDistributeDrawCount);

  00470	6a 01		 push	 1
  00472	8b 45 08	 mov	 eax, DWORD PTR _pGameServerCreate$[ebp]
  00475	0f b7 88 9e 00
	00 00		 movzx	 ecx, WORD PTR [eax+158]
  0047c	51		 push	 ecx
  0047d	68 00 00 00 00	 push	 OFFSET ??_C@_0BG@DNMICNEI@?$EAwDistributeDrawCount@
  00482	8d 4d e0	 lea	 ecx, DWORD PTR _PlatformDBAide$[ebp]
  00485	ff 15 00 00 00
	00		 call	 DWORD PTR __imp_?AddParameter@CDataBaseAide@@QAEXPBDGW4ParameterDirectionEnum@ADOCG@@@Z

; 682  : 		PlatformDBAide.AddParameter(TEXT("@wMinPartakeGameUser"),pGameServerCreate->wMinPartakeGameUser);

  0048b	6a 01		 push	 1
  0048d	8b 45 08	 mov	 eax, DWORD PTR _pGameServerCreate$[ebp]
  00490	0f b7 88 a0 00
	00 00		 movzx	 ecx, WORD PTR [eax+160]
  00497	51		 push	 ecx
  00498	68 00 00 00 00	 push	 OFFSET ??_C@_0BF@EICMGAPH@?$EAwMinPartakeGameUser@
  0049d	8d 4d e0	 lea	 ecx, DWORD PTR _PlatformDBAide$[ebp]
  004a0	ff 15 00 00 00
	00		 call	 DWORD PTR __imp_?AddParameter@CDataBaseAide@@QAEXPBDGW4ParameterDirectionEnum@ADOCG@@@Z

; 683  : 		PlatformDBAide.AddParameter(TEXT("@wMaxPartakeGameUser"),pGameServerCreate->wMaxPartakeGameUser);

  004a6	6a 01		 push	 1
  004a8	8b 45 08	 mov	 eax, DWORD PTR _pGameServerCreate$[ebp]
  004ab	0f b7 88 a2 00
	00 00		 movzx	 ecx, WORD PTR [eax+162]
  004b2	51		 push	 ecx
  004b3	68 00 00 00 00	 push	 OFFSET ??_C@_0BF@OPBIOAIO@?$EAwMaxPartakeGameUser@
  004b8	8d 4d e0	 lea	 ecx, DWORD PTR _PlatformDBAide$[ebp]
  004bb	ff 15 00 00 00
	00		 call	 DWORD PTR __imp_?AddParameter@CDataBaseAide@@QAEXPBDGW4ParameterDirectionEnum@ADOCG@@@Z

; 684  : 		PlatformDBAide.AddParameter(TEXT("@strDataBaseName"),pGameServerCreate->szDataBaseName);

  004c1	6a 01		 push	 1
  004c3	8b 45 08	 mov	 eax, DWORD PTR _pGameServerCreate$[ebp]
  004c6	05 a4 00 00 00	 add	 eax, 164		; 000000a4H
  004cb	50		 push	 eax
  004cc	68 00 00 00 00	 push	 OFFSET ??_C@_0BB@PBIEFPDL@?$EAstrDataBaseName@
  004d1	8d 4d e0	 lea	 ecx, DWORD PTR _PlatformDBAide$[ebp]
  004d4	ff 15 00 00 00
	00		 call	 DWORD PTR __imp_?AddParameter@CDataBaseAide@@QAEXPBD0W4ParameterDirectionEnum@ADOCG@@@Z

; 685  : 		PlatformDBAide.AddParameter(TEXT("@strDataBaseAddr"),pGameServerCreate->szDataBaseAddr);

  004da	6a 01		 push	 1
  004dc	8b 45 08	 mov	 eax, DWORD PTR _pGameServerCreate$[ebp]
  004df	05 c4 00 00 00	 add	 eax, 196		; 000000c4H
  004e4	50		 push	 eax
  004e5	68 00 00 00 00	 push	 OFFSET ??_C@_0BB@EOFIIHMB@?$EAstrDataBaseAddr@
  004ea	8d 4d e0	 lea	 ecx, DWORD PTR _PlatformDBAide$[ebp]
  004ed	ff 15 00 00 00
	00		 call	 DWORD PTR __imp_?AddParameter@CDataBaseAide@@QAEXPBD0W4ParameterDirectionEnum@ADOCG@@@Z

; 686  : 		PlatformDBAide.AddParameter(TEXT("@strCustomRule"),szCustomRule);

  004f3	6a 01		 push	 1
  004f5	8d 85 04 f6 ff
	ff		 lea	 eax, DWORD PTR _szCustomRule$14[ebp]
  004fb	50		 push	 eax
  004fc	68 00 00 00 00	 push	 OFFSET ??_C@_0P@PGPKAIOB@?$EAstrCustomRule@
  00501	8d 4d e0	 lea	 ecx, DWORD PTR _PlatformDBAide$[ebp]
  00504	ff 15 00 00 00
	00		 call	 DWORD PTR __imp_?AddParameter@CDataBaseAide@@QAEXPBD0W4ParameterDirectionEnum@ADOCG@@@Z

; 687  : 		PlatformDBAide.AddParameter(TEXT("@strServiceMachine"),pGameServerCreate->szServiceMachine);

  0050a	6a 01		 push	 1
  0050c	8b 45 08	 mov	 eax, DWORD PTR _pGameServerCreate$[ebp]
  0050f	05 e4 04 00 00	 add	 eax, 1252		; 000004e4H
  00514	50		 push	 eax
  00515	68 00 00 00 00	 push	 OFFSET ??_C@_0BD@CBAFKNPB@?$EAstrServiceMachine@
  0051a	8d 4d e0	 lea	 ecx, DWORD PTR _PlatformDBAide$[ebp]
  0051d	ff 15 00 00 00
	00		 call	 DWORD PTR __imp_?AddParameter@CDataBaseAide@@QAEXPBD0W4ParameterDirectionEnum@ADOCG@@@Z

; 688  : 		PlatformDBAide.AddParameter(TEXT("@strPersonalRule"), szPersonalRule);

  00523	6a 01		 push	 1
  00525	8d 85 fc ed ff
	ff		 lea	 eax, DWORD PTR _szPersonalRule$12[ebp]
  0052b	50		 push	 eax
  0052c	68 00 00 00 00	 push	 OFFSET ??_C@_0BB@ELKLEIJF@?$EAstrPersonalRule@
  00531	8d 4d e0	 lea	 ecx, DWORD PTR _PlatformDBAide$[ebp]
  00534	ff 15 00 00 00
	00		 call	 DWORD PTR __imp_?AddParameter@CDataBaseAide@@QAEXPBD0W4ParameterDirectionEnum@ADOCG@@@Z

; 689  : 
; 690  : 		//输出信息
; 691  : 		TCHAR szDescribeString[128]=TEXT("");

  0053a	a0 00 00 00 00	 mov	 al, BYTE PTR ??_C@_00CNPNBAHC@@
  0053f	88 85 78 ed ff
	ff		 mov	 BYTE PTR _szDescribeString$10[ebp], al
  00545	6a 7f		 push	 127			; 0000007fH
  00547	6a 00		 push	 0
  00549	8d 85 79 ed ff
	ff		 lea	 eax, DWORD PTR _szDescribeString$10[ebp+1]
  0054f	50		 push	 eax
  00550	e8 00 00 00 00	 call	 _memset
  00555	83 c4 0c	 add	 esp, 12			; 0000000cH

; 692  : 		PlatformDBAide.AddParameterOutput(TEXT("@strErrorDescribe"),szDescribeString,sizeof(szDescribeString),adParamOutput);

  00558	6a 02		 push	 2
  0055a	68 80 00 00 00	 push	 128			; 00000080H
  0055f	8d 85 78 ed ff
	ff		 lea	 eax, DWORD PTR _szDescribeString$10[ebp]
  00565	50		 push	 eax
  00566	68 00 00 00 00	 push	 OFFSET ??_C@_0BC@IIOJPJPJ@?$EAstrErrorDescribe@
  0056b	8d 4d e0	 lea	 ecx, DWORD PTR _PlatformDBAide$[ebp]
  0056e	ff 15 00 00 00
	00		 call	 DWORD PTR __imp_?AddParameterOutput@CDataBaseAide@@QAEXPBDPADIW4ParameterDirectionEnum@ADOCG@@@Z

; 693  : 
; 694  : 		//执行命令
; 695  : 		if (PlatformDBAide.ExecuteProcess(TEXT("GSP_GS_ModifyGameRoom"),true)!=DB_SUCCESS)

  00574	6a 01		 push	 1
  00576	68 00 00 00 00	 push	 OFFSET ??_C@_0BG@HDLIAPBG@GSP_GS_ModifyGameRoom@
  0057b	8d 4d e0	 lea	 ecx, DWORD PTR _PlatformDBAide$[ebp]
  0057e	ff 15 00 00 00
	00		 call	 DWORD PTR __imp_?ExecuteProcess@CDataBaseAide@@QAEJPBD_N@Z
  00584	89 85 60 eb ff
	ff		 mov	 DWORD PTR tv453[ebp], eax
  0058a	83 bd 60 eb ff
	ff 00		 cmp	 DWORD PTR tv453[ebp], 0
  00591	74 6d		 je	 SHORT $LN10@ModifyGame

; 696  : 		{
; 697  : 			//获取信息
; 698  : 			PlatformDBAide.GetParameter(TEXT("@strErrorDescribe"),szDescribeString,CountArray(szDescribeString));

  00593	68 80 00 00 00	 push	 128			; 00000080H
  00598	8d 85 78 ed ff
	ff		 lea	 eax, DWORD PTR _szDescribeString$10[ebp]
  0059e	50		 push	 eax
  0059f	68 00 00 00 00	 push	 OFFSET ??_C@_0BC@IIOJPJPJ@?$EAstrErrorDescribe@
  005a4	8d 4d e0	 lea	 ecx, DWORD PTR _PlatformDBAide$[ebp]
  005a7	ff 15 00 00 00
	00		 call	 DWORD PTR __imp_?GetParameter@CDataBaseAide@@QAEXPBDPADI@Z

; 699  : 
; 700  : 			//错误提示
; 701  : 			CTraceService::TraceString(szDescribeString,TraceLevel_Exception);

  005ad	6a 03		 push	 3
  005af	8d 85 78 ed ff
	ff		 lea	 eax, DWORD PTR _szDescribeString$10[ebp]
  005b5	50		 push	 eax
  005b6	ff 15 00 00 00
	00		 call	 DWORD PTR __imp_?TraceString@CTraceService@@SA_NPBDW4enTraceLevel@@@Z
  005bc	83 c4 08	 add	 esp, 8

; 702  : 
; 703  : 			//错误提示
; 704  : 			AfxMessageBox(szDescribeString,MB_ICONERROR);

  005bf	6a 00		 push	 0
  005c1	6a 10		 push	 16			; 00000010H
  005c3	8d 85 78 ed ff
	ff		 lea	 eax, DWORD PTR _szDescribeString$10[ebp]
  005c9	50		 push	 eax
  005ca	e8 00 00 00 00	 call	 ?AfxMessageBox@@YGHPBDII@Z ; AfxMessageBox

; 705  : 
; 706  : 			return false;

  005cf	c6 85 6e eb ff
	ff 00		 mov	 BYTE PTR $T6[ebp], 0
  005d6	c6 45 fc 00	 mov	 BYTE PTR __$EHRec$[ebp+12], 0
  005da	8d 8d 08 fe ff
	ff		 lea	 ecx, DWORD PTR _PlatformDBModule$[ebp]
  005e0	e8 00 00 00 00	 call	 ??1CDataBaseHelper@@UAE@XZ
  005e5	c7 45 fc ff ff
	ff ff		 mov	 DWORD PTR __$EHRec$[ebp+12], -1
  005ec	8d 4d e0	 lea	 ecx, DWORD PTR _PlatformDBAide$[ebp]
  005ef	ff 15 00 00 00
	00		 call	 DWORD PTR __imp_??1CDataBaseAide@@UAE@XZ
  005f5	8a 85 6e eb ff
	ff		 mov	 al, BYTE PTR $T6[ebp]
  005fb	e9 4c 01 00 00	 jmp	 $LN1@ModifyGame
$LN10@ModifyGame:

; 707  : 		}
; 708  : 
; 709  : 		//读取资料
; 710  : 		ReadGameServerInfo(PlatformDBAide,GameServerResult);

  00600	8b 45 0c	 mov	 eax, DWORD PTR _GameServerResult$[ebp]
  00603	50		 push	 eax
  00604	8d 4d e0	 lea	 ecx, DWORD PTR _PlatformDBAide$[ebp]
  00607	51		 push	 ecx
  00608	8b 4d e8	 mov	 ecx, DWORD PTR _this$[ebp]
  0060b	e8 00 00 00 00	 call	 ?ReadGameServerInfo@CServerInfoManager@@AAE_NAAVCDataBaseAide@@AAUtagGameServerInfo@@@Z ; CServerInfoManager::ReadGameServerInfo

; 711  : 		if(pGameServerCreate->wServerType == GAME_GENRE_PERSONAL)

  00610	8b 45 08	 mov	 eax, DWORD PTR _pGameServerCreate$[ebp]
  00613	0f b7 48 54	 movzx	 ecx, WORD PTR [eax+84]
  00617	83 f9 10	 cmp	 ecx, 16			; 00000010H
  0061a	75 52		 jne	 SHORT $LN11@ModifyGame

; 712  : 		{
; 713  : 			//修改私人房间参数
; 714  : 			ModifyPersonalRoomParameter(PlatformDBAide, m_PersonalRoomOption,  m_PersonalRoomOptionRightAndFee ,GameServerResult.wServerID, GameServerResult.wKindID);

  0061c	8b 45 0c	 mov	 eax, DWORD PTR _GameServerResult$[ebp]
  0061f	0f b7 48 04	 movzx	 ecx, WORD PTR [eax+4]
  00623	51		 push	 ecx
  00624	8b 55 0c	 mov	 edx, DWORD PTR _GameServerResult$[ebp]
  00627	0f b7 42 02	 movzx	 eax, WORD PTR [edx+2]
  0062b	50		 push	 eax
  0062c	8b 75 e8	 mov	 esi, DWORD PTR _this$[ebp]
  0062f	83 c6 75	 add	 esi, 117		; 00000075H
  00632	83 ec 74	 sub	 esp, 116		; 00000074H
  00635	b9 1d 00 00 00	 mov	 ecx, 29			; 0000001dH
  0063a	8b fc		 mov	 edi, esp
  0063c	f3 a5		 rep movsd
  0063e	8b 75 e8	 mov	 esi, DWORD PTR _this$[ebp]
  00641	83 c6 04	 add	 esi, 4
  00644	83 ec 74	 sub	 esp, 116		; 00000074H
  00647	b9 1c 00 00 00	 mov	 ecx, 28			; 0000001cH
  0064c	8b fc		 mov	 edi, esp
  0064e	f3 a5		 rep movsd
  00650	a4		 movsb
  00651	83 ec 08	 sub	 esp, 8
  00654	8b cc		 mov	 ecx, esp
  00656	89 a5 68 eb ff
	ff		 mov	 DWORD PTR $T5[ebp], esp
  0065c	8d 55 e0	 lea	 edx, DWORD PTR _PlatformDBAide$[ebp]
  0065f	52		 push	 edx
  00660	ff 15 00 00 00
	00		 call	 DWORD PTR __imp_??0CDataBaseAide@@QAE@ABV0@@Z
  00666	8b 4d e8	 mov	 ecx, DWORD PTR _this$[ebp]
  00669	e8 00 00 00 00	 call	 ?ModifyPersonalRoomParameter@CServerInfoManager@@QAE_NVCDataBaseAide@@UtagPersonalRoomOption@@UtagPersonalRoomOptionRightAndFee@@GG@Z ; CServerInfoManager::ModifyPersonalRoomParameter
$LN11@ModifyGame:

; 715  : 		}
; 716  : 		return true;

  0066e	c6 85 67 eb ff
	ff 01		 mov	 BYTE PTR $T4[ebp], 1
  00675	c6 45 fc 00	 mov	 BYTE PTR __$EHRec$[ebp+12], 0
  00679	8d 8d 08 fe ff
	ff		 lea	 ecx, DWORD PTR _PlatformDBModule$[ebp]
  0067f	e8 00 00 00 00	 call	 ??1CDataBaseHelper@@UAE@XZ
  00684	c7 45 fc ff ff
	ff ff		 mov	 DWORD PTR __$EHRec$[ebp+12], -1
  0068b	8d 4d e0	 lea	 ecx, DWORD PTR _PlatformDBAide$[ebp]
  0068e	ff 15 00 00 00
	00		 call	 DWORD PTR __imp_??1CDataBaseAide@@UAE@XZ
  00694	8a 85 67 eb ff
	ff		 mov	 al, BYTE PTR $T4[ebp]
  0069a	e9 ad 00 00 00	 jmp	 $LN1@ModifyGame
__catch$?ModifyGameServer@CServerInfoManager@@QAE_NPAUtagGameServerCreate@@AAUtagGameServerInfo@@@Z$0:

; 717  : 	}
; 718  : 	catch (IDataBaseException * pIException)
; 719  : 	{
; 720  : 		//错误信息
; 721  : 		LPCTSTR pszDescribe=pIException->GetExceptionDescribe();

  0069f	8b 85 74 ed ff
	ff		 mov	 eax, DWORD PTR _pIException$9[ebp]
  006a5	8b 10		 mov	 edx, DWORD PTR [eax]
  006a7	8b 8d 74 ed ff
	ff		 mov	 ecx, DWORD PTR _pIException$9[ebp]
  006ad	8b 42 0c	 mov	 eax, DWORD PTR [edx+12]
  006b0	ff d0		 call	 eax
  006b2	89 85 70 ed ff
	ff		 mov	 DWORD PTR _pszDescribe$8[ebp], eax

; 722  : 		CTraceService::TraceString(pszDescribe,TraceLevel_Exception);

  006b8	6a 03		 push	 3
  006ba	8b 85 70 ed ff
	ff		 mov	 eax, DWORD PTR _pszDescribe$8[ebp]
  006c0	50		 push	 eax
  006c1	ff 15 00 00 00
	00		 call	 DWORD PTR __imp_?TraceString@CTraceService@@SA_NPBDW4enTraceLevel@@@Z
  006c7	83 c4 08	 add	 esp, 8

; 723  : 
; 724  : 		//错误提示
; 725  : 		AfxMessageBox(pszDescribe,MB_ICONERROR);

  006ca	6a 00		 push	 0
  006cc	6a 10		 push	 16			; 00000010H
  006ce	8b 85 70 ed ff
	ff		 mov	 eax, DWORD PTR _pszDescribe$8[ebp]
  006d4	50		 push	 eax
  006d5	e8 00 00 00 00	 call	 ?AfxMessageBox@@YGHPBDII@Z ; AfxMessageBox

; 726  : 
; 727  : 		return false;

  006da	c6 85 66 eb ff
	ff 00		 mov	 BYTE PTR $T3[ebp], 0
  006e1	b8 00 00 00 00	 mov	 eax, $LN20@ModifyGame
  006e6	c3		 ret	 0

; 728  : 	}

  006e7	b8 00 00 00 00	 mov	 eax, __tryend$?ModifyGameServer@CServerInfoManager@@QAE_NPAUtagGameServerCreate@@AAUtagGameServerInfo@@@Z$1
  006ec	c3		 ret	 0
__tryend$?ModifyGameServer@CServerInfoManager@@QAE_NPAUtagGameServerCreate@@AAUtagGameServerInfo@@@Z$1:
  006ed	c7 45 fc 01 00
	00 00		 mov	 DWORD PTR __$EHRec$[ebp+12], 1
  006f4	eb 2a		 jmp	 SHORT $LN19@ModifyGame
$LN20@ModifyGame:

; 726  : 
; 727  : 		return false;

  006f6	c7 45 fc 00 00
	00 00		 mov	 DWORD PTR __$EHRec$[ebp+12], 0
  006fd	8d 8d 08 fe ff
	ff		 lea	 ecx, DWORD PTR _PlatformDBModule$[ebp]
  00703	e8 00 00 00 00	 call	 ??1CDataBaseHelper@@UAE@XZ
  00708	c7 45 fc ff ff
	ff ff		 mov	 DWORD PTR __$EHRec$[ebp+12], -1
  0070f	8d 4d e0	 lea	 ecx, DWORD PTR _PlatformDBAide$[ebp]
  00712	ff 15 00 00 00
	00		 call	 DWORD PTR __imp_??1CDataBaseAide@@UAE@XZ
  00718	8a 85 66 eb ff
	ff		 mov	 al, BYTE PTR $T3[ebp]
  0071e	eb 2c		 jmp	 SHORT $LN1@ModifyGame
$LN19@ModifyGame:

; 729  : 
; 730  : 	return false;

  00720	c6 85 65 eb ff
	ff 00		 mov	 BYTE PTR $T2[ebp], 0
  00727	c6 45 fc 00	 mov	 BYTE PTR __$EHRec$[ebp+12], 0
  0072b	8d 8d 08 fe ff
	ff		 lea	 ecx, DWORD PTR _PlatformDBModule$[ebp]
  00731	e8 00 00 00 00	 call	 ??1CDataBaseHelper@@UAE@XZ
  00736	c7 45 fc ff ff
	ff ff		 mov	 DWORD PTR __$EHRec$[ebp+12], -1
  0073d	8d 4d e0	 lea	 ecx, DWORD PTR _PlatformDBAide$[ebp]
  00740	ff 15 00 00 00
	00		 call	 DWORD PTR __imp_??1CDataBaseAide@@UAE@XZ
  00746	8a 85 65 eb ff
	ff		 mov	 al, BYTE PTR $T2[ebp]
$LN1@ModifyGame:

; 731  : }

  0074c	8b 4d f4	 mov	 ecx, DWORD PTR __$EHRec$[ebp+4]
  0074f	64 89 0d 00 00
	00 00		 mov	 DWORD PTR fs:0, ecx
  00756	59		 pop	 ecx
  00757	5f		 pop	 edi
  00758	5e		 pop	 esi
  00759	5b		 pop	 ebx
  0075a	8b 4d ec	 mov	 ecx, DWORD PTR __$ArrayPad$[ebp]
  0075d	33 cd		 xor	 ecx, ebp
  0075f	e8 00 00 00 00	 call	 @__security_check_cookie@4
  00764	8b e5		 mov	 esp, ebp
  00766	5d		 pop	 ebp
  00767	c2 08 00	 ret	 8
_TEXT	ENDS
;	COMDAT text$x
text$x	SEGMENT
__unwindfunclet$?ModifyGameServer@CServerInfoManager@@QAE_NPAUtagGameServerCreate@@AAUtagGameServerInfo@@@Z$2:
  00000	8d 4d e0	 lea	 ecx, DWORD PTR _PlatformDBAide$[ebp]
  00003	ff 25 00 00 00
	00		 jmp	 DWORD PTR __imp_??1CDataBaseAide@@UAE@XZ
__unwindfunclet$?ModifyGameServer@CServerInfoManager@@QAE_NPAUtagGameServerCreate@@AAUtagGameServerInfo@@@Z$3:
  00009	8d 8d 08 fe ff
	ff		 lea	 ecx, DWORD PTR _PlatformDBModule$[ebp]
  0000f	e9 00 00 00 00	 jmp	 ??1CDataBaseHelper@@UAE@XZ
__ehhandler$?ModifyGameServer@CServerInfoManager@@QAE_NPAUtagGameServerCreate@@AAUtagGameServerInfo@@@Z:
  00014	8b 54 24 08	 mov	 edx, DWORD PTR [esp+8]
  00018	8d 42 0c	 lea	 eax, DWORD PTR [edx+12]
  0001b	8b 8a 5c eb ff
	ff		 mov	 ecx, DWORD PTR [edx-5284]
  00021	33 c8		 xor	 ecx, eax
  00023	e8 00 00 00 00	 call	 @__security_check_cookie@4
  00028	8b 4a f8	 mov	 ecx, DWORD PTR [edx-8]
  0002b	33 c8		 xor	 ecx, eax
  0002d	e8 00 00 00 00	 call	 @__security_check_cookie@4
  00032	b8 00 00 00 00	 mov	 eax, OFFSET __ehfuncinfo$?ModifyGameServer@CServerInfoManager@@QAE_NPAUtagGameServerCreate@@AAUtagGameServerInfo@@@Z
  00037	e9 00 00 00 00	 jmp	 ___CxxFrameHandler3
text$x	ENDS
?ModifyGameServer@CServerInfoManager@@QAE_NPAUtagGameServerCreate@@AAUtagGameServerInfo@@@Z ENDP ; CServerInfoManager::ModifyGameServer
; Function compile flags: /Odtp /ZI
; File g:\网狐\happygamewh\服务端\系统模块\服务器组件\模块管理\serverinfomanager.cpp
;	COMDAT ?InsertGameServer@CServerInfoManager@@QAE_NPAUtagGameServerCreate@@AAUtagGameServerInfo@@@Z
_TEXT	SEGMENT
tv451 = -5280						; size = 4
tv450 = -5280						; size = 4
tv65 = -5280						; size = 4
tv69 = -5275						; size = 1
$T2 = -5274						; size = 1
$T3 = -5273						; size = 1
$T4 = -5272						; size = 4
$T5 = -5266						; size = 1
$T6 = -5265						; size = 1
_pszDescribe$7 = -4752					; size = 4
_pIException$8 = -4748					; size = 4
_szDescribeString$9 = -4744				; size = 128
_i$10 = -4616						; size = 4
_szPersonalRule$11 = -4612				; size = 2049
_i$12 = -2560						; size = 4
_szCustomRule$13 = -2556				; size = 2049
_PlatformDBModule$ = -504				; size = 472
_PlatformDBAide$ = -32					; size = 8
_this$ = -24						; size = 4
__$ArrayPad$ = -20					; size = 4
__$EHRec$ = -16						; size = 16
_pGameServerCreate$ = 8					; size = 4
_GameServerResult$ = 12					; size = 4
?InsertGameServer@CServerInfoManager@@QAE_NPAUtagGameServerCreate@@AAUtagGameServerInfo@@@Z PROC ; CServerInfoManager::InsertGameServer, COMDAT
; _this$ = ecx

; 524  : {

  00000	55		 push	 ebp
  00001	8b ec		 mov	 ebp, esp
  00003	6a ff		 push	 -1
  00005	68 00 00 00 00	 push	 __ehhandler$?InsertGameServer@CServerInfoManager@@QAE_NPAUtagGameServerCreate@@AAUtagGameServerInfo@@@Z
  0000a	64 a1 00 00 00
	00		 mov	 eax, DWORD PTR fs:0
  00010	50		 push	 eax
  00011	51		 push	 ecx
  00012	b8 90 14 00 00	 mov	 eax, 5264		; 00001490H
  00017	e8 00 00 00 00	 call	 __chkstk
  0001c	a1 00 00 00 00	 mov	 eax, DWORD PTR ___security_cookie
  00021	33 c5		 xor	 eax, ebp
  00023	89 45 ec	 mov	 DWORD PTR __$ArrayPad$[ebp], eax
  00026	53		 push	 ebx
  00027	56		 push	 esi
  00028	57		 push	 edi
  00029	50		 push	 eax
  0002a	8d 45 f4	 lea	 eax, DWORD PTR __$EHRec$[ebp+4]
  0002d	64 a3 00 00 00
	00		 mov	 DWORD PTR fs:0, eax
  00033	89 65 f0	 mov	 DWORD PTR __$EHRec$[ebp], esp
  00036	89 4d e8	 mov	 DWORD PTR _this$[ebp], ecx

; 525  : 	//变量定义
; 526  : 	CDataBaseAide PlatformDBAide;

  00039	6a 00		 push	 0
  0003b	8d 4d e0	 lea	 ecx, DWORD PTR _PlatformDBAide$[ebp]
  0003e	ff 15 00 00 00
	00		 call	 DWORD PTR __imp_??0CDataBaseAide@@QAE@PAUIUnknownEx@@@Z
  00044	c7 45 fc 00 00
	00 00		 mov	 DWORD PTR __$EHRec$[ebp+12], 0

; 527  : 	CDataBaseHelper PlatformDBModule;

  0004b	8d 8d 08 fe ff
	ff		 lea	 ecx, DWORD PTR _PlatformDBModule$[ebp]
  00051	e8 00 00 00 00	 call	 ??0CDataBaseHelper@@QAE@XZ ; CDataBaseHelper::CDataBaseHelper
  00056	c6 45 fc 01	 mov	 BYTE PTR __$EHRec$[ebp+12], 1

; 528  : 
; 529  : 	//执行逻辑
; 530  : 	try

  0005a	c6 45 fc 02	 mov	 BYTE PTR __$EHRec$[ebp+12], 2

; 531  : 	{
; 532  : 		//连接数据库
; 533  : 		if (ConnectPlatformDB(PlatformDBModule)==false)

  0005e	8d 85 08 fe ff
	ff		 lea	 eax, DWORD PTR _PlatformDBModule$[ebp]
  00064	50		 push	 eax
  00065	8b 4d e8	 mov	 ecx, DWORD PTR _this$[ebp]
  00068	e8 00 00 00 00	 call	 ?ConnectPlatformDB@CServerInfoManager@@AAE_NAAVCDataBaseHelper@@@Z ; CServerInfoManager::ConnectPlatformDB
  0006d	88 85 65 eb ff
	ff		 mov	 BYTE PTR tv69[ebp], al
  00073	0f b6 8d 65 eb
	ff ff		 movzx	 ecx, BYTE PTR tv69[ebp]
  0007a	85 c9		 test	 ecx, ecx
  0007c	75 59		 jne	 SHORT $LN9@InsertGame

; 534  : 		{
; 535  : 			ASSERT(FALSE);

  0007e	33 c0		 xor	 eax, eax
  00080	75 24		 jne	 SHORT $LN13@InsertGame
  00082	8b 0d 00 00 00
	00		 mov	 ecx, DWORD PTR ?__LINE__Var@?0??InsertGameServer@CServerInfoManager@@QAE_NPAUtagGameServerCreate@@AAUtagGameServerInfo@@@Z@4JA
  00088	83 c1 0b	 add	 ecx, 11			; 0000000bH
  0008b	51		 push	 ecx
  0008c	68 00 00 00 00	 push	 OFFSET ??_C@_0EO@GNEBGAKM@g?3?2?M?x?$LK?$PM?2happygamewh?2?$LH?$PO?N?q?$LG?K?2?O?$LF?M?$LD@
  00091	e8 00 00 00 00	 call	 ?AfxAssertFailedLine@@YGHPBDH@Z ; AfxAssertFailedLine
  00096	89 85 60 eb ff
	ff		 mov	 DWORD PTR tv65[ebp], eax
  0009c	83 bd 60 eb ff
	ff 00		 cmp	 DWORD PTR tv65[ebp], 0
  000a3	74 01		 je	 SHORT $LN13@InsertGame
  000a5	cc		 int	 3
$LN13@InsertGame:

; 536  : 			return false;

  000a6	c6 85 6f eb ff
	ff 00		 mov	 BYTE PTR $T6[ebp], 0
  000ad	c6 45 fc 00	 mov	 BYTE PTR __$EHRec$[ebp+12], 0
  000b1	8d 8d 08 fe ff
	ff		 lea	 ecx, DWORD PTR _PlatformDBModule$[ebp]
  000b7	e8 00 00 00 00	 call	 ??1CDataBaseHelper@@UAE@XZ
  000bc	c7 45 fc ff ff
	ff ff		 mov	 DWORD PTR __$EHRec$[ebp+12], -1
  000c3	8d 4d e0	 lea	 ecx, DWORD PTR _PlatformDBAide$[ebp]
  000c6	ff 15 00 00 00
	00		 call	 DWORD PTR __imp_??1CDataBaseAide@@UAE@XZ
  000cc	8a 85 6f eb ff
	ff		 mov	 al, BYTE PTR $T6[ebp]
  000d2	e9 41 06 00 00	 jmp	 $LN1@InsertGame
$LN9@InsertGame:

; 537  : 		}
; 538  : 
; 539  : 		//设置对象
; 540  : 		PlatformDBAide.SetDataBase(PlatformDBModule.GetInterface());

  000d7	8d 8d 08 fe ff
	ff		 lea	 ecx, DWORD PTR _PlatformDBModule$[ebp]
  000dd	e8 00 00 00 00	 call	 ?GetInterface@?$CTempldateHelper@UIDataBase@@@@QBEPAUIDataBase@@XZ ; CTempldateHelper<IDataBase>::GetInterface
  000e2	89 85 60 eb ff
	ff		 mov	 DWORD PTR tv450[ebp], eax
  000e8	8b 85 60 eb ff
	ff		 mov	 eax, DWORD PTR tv450[ebp]
  000ee	50		 push	 eax
  000ef	8d 4d e0	 lea	 ecx, DWORD PTR _PlatformDBAide$[ebp]
  000f2	ff 15 00 00 00
	00		 call	 DWORD PTR __imp_?SetDataBase@CDataBaseAide@@QAE_NPAUIUnknownEx@@@Z

; 541  : 
; 542  : 		//扩展配置
; 543  : 		TCHAR szCustomRule[CountArray(pGameServerCreate->cbCustomRule)*2+1]=TEXT("");

  000f8	a0 00 00 00 00	 mov	 al, BYTE PTR ??_C@_00CNPNBAHC@@
  000fd	88 85 04 f6 ff
	ff		 mov	 BYTE PTR _szCustomRule$13[ebp], al
  00103	68 00 08 00 00	 push	 2048			; 00000800H
  00108	6a 00		 push	 0
  0010a	8d 85 05 f6 ff
	ff		 lea	 eax, DWORD PTR _szCustomRule$13[ebp+1]
  00110	50		 push	 eax
  00111	e8 00 00 00 00	 call	 _memset
  00116	83 c4 0c	 add	 esp, 12			; 0000000cH

; 544  : 		for (INT i = 0; i<CountArray(pGameServerCreate->cbCustomRule); i++) _stprintf(&szCustomRule[i * 2], TEXT("%02X"), pGameServerCreate->cbCustomRule[i]);

  00119	c7 85 00 f6 ff
	ff 00 00 00 00	 mov	 DWORD PTR _i$12[ebp], 0
  00123	eb 0f		 jmp	 SHORT $LN4@InsertGame
$LN2@InsertGame:
  00125	8b 85 00 f6 ff
	ff		 mov	 eax, DWORD PTR _i$12[ebp]
  0012b	83 c0 01	 add	 eax, 1
  0012e	89 85 00 f6 ff
	ff		 mov	 DWORD PTR _i$12[ebp], eax
$LN4@InsertGame:
  00134	81 bd 00 f6 ff
	ff 00 04 00 00	 cmp	 DWORD PTR _i$12[ebp], 1024 ; 00000400H
  0013e	73 2e		 jae	 SHORT $LN3@InsertGame
  00140	8b 45 08	 mov	 eax, DWORD PTR _pGameServerCreate$[ebp]
  00143	03 85 00 f6 ff
	ff		 add	 eax, DWORD PTR _i$12[ebp]
  00149	0f b6 88 e4 00
	00 00		 movzx	 ecx, BYTE PTR [eax+228]
  00150	51		 push	 ecx
  00151	68 00 00 00 00	 push	 OFFSET ??_C@_04JFFKLGJF@?$CF02X@
  00156	8b 95 00 f6 ff
	ff		 mov	 edx, DWORD PTR _i$12[ebp]
  0015c	8d 84 55 04 f6
	ff ff		 lea	 eax, DWORD PTR _szCustomRule$13[ebp+edx*2]
  00163	50		 push	 eax
  00164	e8 00 00 00 00	 call	 _sprintf
  00169	83 c4 0c	 add	 esp, 12			; 0000000cH
  0016c	eb b7		 jmp	 SHORT $LN2@InsertGame
$LN3@InsertGame:

; 545  : 		TCHAR szPersonalRule[CountArray(pGameServerCreate->cbPersonalRule) * 2 + 1] = TEXT("");

  0016e	a0 00 00 00 00	 mov	 al, BYTE PTR ??_C@_00CNPNBAHC@@
  00173	88 85 fc ed ff
	ff		 mov	 BYTE PTR _szPersonalRule$11[ebp], al
  00179	68 00 08 00 00	 push	 2048			; 00000800H
  0017e	6a 00		 push	 0
  00180	8d 85 fd ed ff
	ff		 lea	 eax, DWORD PTR _szPersonalRule$11[ebp+1]
  00186	50		 push	 eax
  00187	e8 00 00 00 00	 call	 _memset
  0018c	83 c4 0c	 add	 esp, 12			; 0000000cH

; 546  : 		for (INT i = 0; i<CountArray(pGameServerCreate->cbPersonalRule); i++) _stprintf(&szPersonalRule[i * 2], TEXT("%02X"), pGameServerCreate->cbPersonalRule[i]);

  0018f	c7 85 f8 ed ff
	ff 00 00 00 00	 mov	 DWORD PTR _i$10[ebp], 0
  00199	eb 0f		 jmp	 SHORT $LN7@InsertGame
$LN5@InsertGame:
  0019b	8b 85 f8 ed ff
	ff		 mov	 eax, DWORD PTR _i$10[ebp]
  001a1	83 c0 01	 add	 eax, 1
  001a4	89 85 f8 ed ff
	ff		 mov	 DWORD PTR _i$10[ebp], eax
$LN7@InsertGame:
  001aa	81 bd f8 ed ff
	ff 00 04 00 00	 cmp	 DWORD PTR _i$10[ebp], 1024 ; 00000400H
  001b4	73 2e		 jae	 SHORT $LN6@InsertGame
  001b6	8b 45 08	 mov	 eax, DWORD PTR _pGameServerCreate$[ebp]
  001b9	03 85 f8 ed ff
	ff		 add	 eax, DWORD PTR _i$10[ebp]
  001bf	0f b6 88 05 05
	00 00		 movzx	 ecx, BYTE PTR [eax+1285]
  001c6	51		 push	 ecx
  001c7	68 00 00 00 00	 push	 OFFSET ??_C@_04JFFKLGJF@?$CF02X@
  001cc	8b 95 f8 ed ff
	ff		 mov	 edx, DWORD PTR _i$10[ebp]
  001d2	8d 84 55 fc ed
	ff ff		 lea	 eax, DWORD PTR _szPersonalRule$11[ebp+edx*2]
  001d9	50		 push	 eax
  001da	e8 00 00 00 00	 call	 _sprintf
  001df	83 c4 0c	 add	 esp, 12			; 0000000cH
  001e2	eb b7		 jmp	 SHORT $LN5@InsertGame
$LN6@InsertGame:

; 547  : 
; 548  : 		//插入参数
; 549  : 		PlatformDBAide.ResetParameter();

  001e4	8d 4d e0	 lea	 ecx, DWORD PTR _PlatformDBAide$[ebp]
  001e7	ff 15 00 00 00
	00		 call	 DWORD PTR __imp_?ResetParameter@CDataBaseAide@@QAEXXZ

; 550  : 		PlatformDBAide.AddParameter(TEXT("@wGameID"),pGameServerCreate->wGameID);

  001ed	6a 01		 push	 1
  001ef	8b 45 08	 mov	 eax, DWORD PTR _pGameServerCreate$[ebp]
  001f2	0f b7 08	 movzx	 ecx, WORD PTR [eax]
  001f5	51		 push	 ecx
  001f6	68 00 00 00 00	 push	 OFFSET ??_C@_08KFPBGPFE@?$EAwGameID@
  001fb	8d 4d e0	 lea	 ecx, DWORD PTR _PlatformDBAide$[ebp]
  001fe	ff 15 00 00 00
	00		 call	 DWORD PTR __imp_?AddParameter@CDataBaseAide@@QAEXPBDGW4ParameterDirectionEnum@ADOCG@@@Z

; 551  : 		PlatformDBAide.AddParameter(TEXT("@wKindID"),pGameServerCreate->wKindID);

  00204	6a 01		 push	 1
  00206	8b 45 08	 mov	 eax, DWORD PTR _pGameServerCreate$[ebp]
  00209	0f b7 48 04	 movzx	 ecx, WORD PTR [eax+4]
  0020d	51		 push	 ecx
  0020e	68 00 00 00 00	 push	 OFFSET ??_C@_08HBBOJKPI@?$EAwKindID@
  00213	8d 4d e0	 lea	 ecx, DWORD PTR _PlatformDBAide$[ebp]
  00216	ff 15 00 00 00
	00		 call	 DWORD PTR __imp_?AddParameter@CDataBaseAide@@QAEXPBDGW4ParameterDirectionEnum@ADOCG@@@Z

; 552  : 		PlatformDBAide.AddParameter(TEXT("@wNodeID"),pGameServerCreate->wNodeID);

  0021c	6a 01		 push	 1
  0021e	8b 45 08	 mov	 eax, DWORD PTR _pGameServerCreate$[ebp]
  00221	0f b7 48 06	 movzx	 ecx, WORD PTR [eax+6]
  00225	51		 push	 ecx
  00226	68 00 00 00 00	 push	 OFFSET ??_C@_08HHDCJIG@?$EAwNodeID@
  0022b	8d 4d e0	 lea	 ecx, DWORD PTR _PlatformDBAide$[ebp]
  0022e	ff 15 00 00 00
	00		 call	 DWORD PTR __imp_?AddParameter@CDataBaseAide@@QAEXPBDGW4ParameterDirectionEnum@ADOCG@@@Z

; 553  : 		PlatformDBAide.AddParameter(TEXT("@wSortID"),pGameServerCreate->wSortID);

  00234	6a 01		 push	 1
  00236	8b 45 08	 mov	 eax, DWORD PTR _pGameServerCreate$[ebp]
  00239	0f b7 48 08	 movzx	 ecx, WORD PTR [eax+8]
  0023d	51		 push	 ecx
  0023e	68 00 00 00 00	 push	 OFFSET ??_C@_08GHPIGFA@?$EAwSortID@
  00243	8d 4d e0	 lea	 ecx, DWORD PTR _PlatformDBAide$[ebp]
  00246	ff 15 00 00 00
	00		 call	 DWORD PTR __imp_?AddParameter@CDataBaseAide@@QAEXPBDGW4ParameterDirectionEnum@ADOCG@@@Z

; 554  : 		PlatformDBAide.AddParameter(TEXT("@lCellScore"),pGameServerCreate->lCellScore);

  0024c	6a 01		 push	 1
  0024e	8b 45 08	 mov	 eax, DWORD PTR _pGameServerCreate$[ebp]
  00251	8b 48 0c	 mov	 ecx, DWORD PTR [eax+12]
  00254	51		 push	 ecx
  00255	68 00 00 00 00	 push	 OFFSET ??_C@_0M@DOJONCPP@?$EAlCellScore@
  0025a	8d 4d e0	 lea	 ecx, DWORD PTR _PlatformDBAide$[ebp]
  0025d	ff 15 00 00 00
	00		 call	 DWORD PTR __imp_?AddParameter@CDataBaseAide@@QAEXPBDJW4ParameterDirectionEnum@ADOCG@@@Z

; 555  : 		PlatformDBAide.AddParameter(TEXT("@wRevenueRatio"),pGameServerCreate->wRevenueRatio);

  00263	6a 01		 push	 1
  00265	8b 45 08	 mov	 eax, DWORD PTR _pGameServerCreate$[ebp]
  00268	0f b7 48 10	 movzx	 ecx, WORD PTR [eax+16]
  0026c	51		 push	 ecx
  0026d	68 00 00 00 00	 push	 OFFSET ??_C@_0P@JILOLBML@?$EAwRevenueRatio@
  00272	8d 4d e0	 lea	 ecx, DWORD PTR _PlatformDBAide$[ebp]
  00275	ff 15 00 00 00
	00		 call	 DWORD PTR __imp_?AddParameter@CDataBaseAide@@QAEXPBDGW4ParameterDirectionEnum@ADOCG@@@Z

; 556  : 		PlatformDBAide.AddParameter(TEXT("@lServiceScore"),pGameServerCreate->lServiceScore);

  0027b	6a 01		 push	 1
  0027d	8b 45 08	 mov	 eax, DWORD PTR _pGameServerCreate$[ebp]
  00280	8b 48 1c	 mov	 ecx, DWORD PTR [eax+28]
  00283	51		 push	 ecx
  00284	8b 50 18	 mov	 edx, DWORD PTR [eax+24]
  00287	52		 push	 edx
  00288	68 00 00 00 00	 push	 OFFSET ??_C@_0P@BCEPIHID@?$EAlServiceScore@
  0028d	8d 4d e0	 lea	 ecx, DWORD PTR _PlatformDBAide$[ebp]
  00290	ff 15 00 00 00
	00		 call	 DWORD PTR __imp_?AddParameter@CDataBaseAide@@QAEXPBD_JW4ParameterDirectionEnum@ADOCG@@@Z

; 557  : 		PlatformDBAide.AddParameter(TEXT("@lRestrictScore"),pGameServerCreate->lRestrictScore);

  00296	6a 01		 push	 1
  00298	8b 45 08	 mov	 eax, DWORD PTR _pGameServerCreate$[ebp]
  0029b	8b 48 24	 mov	 ecx, DWORD PTR [eax+36]
  0029e	51		 push	 ecx
  0029f	8b 50 20	 mov	 edx, DWORD PTR [eax+32]
  002a2	52		 push	 edx
  002a3	68 00 00 00 00	 push	 OFFSET ??_C@_0BA@MOGKDICI@?$EAlRestrictScore@
  002a8	8d 4d e0	 lea	 ecx, DWORD PTR _PlatformDBAide$[ebp]
  002ab	ff 15 00 00 00
	00		 call	 DWORD PTR __imp_?AddParameter@CDataBaseAide@@QAEXPBD_JW4ParameterDirectionEnum@ADOCG@@@Z

; 558  : 		PlatformDBAide.AddParameter(TEXT("@lMinTableScore"),pGameServerCreate->lMinTableScore);

  002b1	6a 01		 push	 1
  002b3	8b 45 08	 mov	 eax, DWORD PTR _pGameServerCreate$[ebp]
  002b6	8b 48 2c	 mov	 ecx, DWORD PTR [eax+44]
  002b9	51		 push	 ecx
  002ba	8b 50 28	 mov	 edx, DWORD PTR [eax+40]
  002bd	52		 push	 edx
  002be	68 00 00 00 00	 push	 OFFSET ??_C@_0BA@CGJIELGM@?$EAlMinTableScore@
  002c3	8d 4d e0	 lea	 ecx, DWORD PTR _PlatformDBAide$[ebp]
  002c6	ff 15 00 00 00
	00		 call	 DWORD PTR __imp_?AddParameter@CDataBaseAide@@QAEXPBD_JW4ParameterDirectionEnum@ADOCG@@@Z

; 559  : 		PlatformDBAide.AddParameter(TEXT("@lMinEnterScore"),pGameServerCreate->lMinEnterScore);

  002cc	6a 01		 push	 1
  002ce	8b 45 08	 mov	 eax, DWORD PTR _pGameServerCreate$[ebp]
  002d1	8b 48 34	 mov	 ecx, DWORD PTR [eax+52]
  002d4	51		 push	 ecx
  002d5	8b 50 30	 mov	 edx, DWORD PTR [eax+48]
  002d8	52		 push	 edx
  002d9	68 00 00 00 00	 push	 OFFSET ??_C@_0BA@NKAHIJHK@?$EAlMinEnterScore@
  002de	8d 4d e0	 lea	 ecx, DWORD PTR _PlatformDBAide$[ebp]
  002e1	ff 15 00 00 00
	00		 call	 DWORD PTR __imp_?AddParameter@CDataBaseAide@@QAEXPBD_JW4ParameterDirectionEnum@ADOCG@@@Z

; 560  : 		PlatformDBAide.AddParameter(TEXT("@lMaxEnterScore"),pGameServerCreate->lMaxEnterScore);

  002e7	6a 01		 push	 1
  002e9	8b 45 08	 mov	 eax, DWORD PTR _pGameServerCreate$[ebp]
  002ec	8b 48 3c	 mov	 ecx, DWORD PTR [eax+60]
  002ef	51		 push	 ecx
  002f0	8b 50 38	 mov	 edx, DWORD PTR [eax+56]
  002f3	52		 push	 edx
  002f4	68 00 00 00 00	 push	 OFFSET ??_C@_0BA@GDCBBCAL@?$EAlMaxEnterScore@
  002f9	8d 4d e0	 lea	 ecx, DWORD PTR _PlatformDBAide$[ebp]
  002fc	ff 15 00 00 00
	00		 call	 DWORD PTR __imp_?AddParameter@CDataBaseAide@@QAEXPBD_JW4ParameterDirectionEnum@ADOCG@@@Z

; 561  : 		PlatformDBAide.AddParameter(TEXT("@cbMinEnterMember"),pGameServerCreate->cbMinEnterMember);

  00302	6a 01		 push	 1
  00304	8b 45 08	 mov	 eax, DWORD PTR _pGameServerCreate$[ebp]
  00307	0f b6 48 40	 movzx	 ecx, BYTE PTR [eax+64]
  0030b	51		 push	 ecx
  0030c	68 00 00 00 00	 push	 OFFSET ??_C@_0BC@CPKAFFOL@?$EAcbMinEnterMember@
  00311	8d 4d e0	 lea	 ecx, DWORD PTR _PlatformDBAide$[ebp]
  00314	ff 15 00 00 00
	00		 call	 DWORD PTR __imp_?AddParameter@CDataBaseAide@@QAEXPBDEW4ParameterDirectionEnum@ADOCG@@@Z

; 562  : 		PlatformDBAide.AddParameter(TEXT("@cbMaxEnterMember"),pGameServerCreate->cbMaxEnterMember);

  0031a	6a 01		 push	 1
  0031c	8b 45 08	 mov	 eax, DWORD PTR _pGameServerCreate$[ebp]
  0031f	0f b6 48 41	 movzx	 ecx, BYTE PTR [eax+65]
  00323	51		 push	 ecx
  00324	68 00 00 00 00	 push	 OFFSET ??_C@_0BC@IBLDCNK@?$EAcbMaxEnterMember@
  00329	8d 4d e0	 lea	 ecx, DWORD PTR _PlatformDBAide$[ebp]
  0032c	ff 15 00 00 00
	00		 call	 DWORD PTR __imp_?AddParameter@CDataBaseAide@@QAEXPBDEW4ParameterDirectionEnum@ADOCG@@@Z

; 563  : 		PlatformDBAide.AddParameter(TEXT("@dwServerRule"),pGameServerCreate->dwServerRule);

  00332	6a 01		 push	 1
  00334	8b 45 08	 mov	 eax, DWORD PTR _pGameServerCreate$[ebp]
  00337	8b 48 44	 mov	 ecx, DWORD PTR [eax+68]
  0033a	51		 push	 ecx
  0033b	68 00 00 00 00	 push	 OFFSET ??_C@_0O@ELIMAAAE@?$EAdwServerRule@
  00340	8d 4d e0	 lea	 ecx, DWORD PTR _PlatformDBAide$[ebp]
  00343	ff 15 00 00 00
	00		 call	 DWORD PTR __imp_?AddParameter@CDataBaseAide@@QAEXPBDKW4ParameterDirectionEnum@ADOCG@@@Z

; 564  : 		PlatformDBAide.AddParameter(TEXT("@dwAttachUserRight"),pGameServerCreate->dwAttachUserRight);

  00349	6a 01		 push	 1
  0034b	8b 45 08	 mov	 eax, DWORD PTR _pGameServerCreate$[ebp]
  0034e	8b 48 48	 mov	 ecx, DWORD PTR [eax+72]
  00351	51		 push	 ecx
  00352	68 00 00 00 00	 push	 OFFSET ??_C@_0BD@FCBMNBKD@?$EAdwAttachUserRight@
  00357	8d 4d e0	 lea	 ecx, DWORD PTR _PlatformDBAide$[ebp]
  0035a	ff 15 00 00 00
	00		 call	 DWORD PTR __imp_?AddParameter@CDataBaseAide@@QAEXPBDKW4ParameterDirectionEnum@ADOCG@@@Z

; 565  : 		PlatformDBAide.AddParameter(TEXT("@wMaxPlayer"),pGameServerCreate->wMaxPlayer);

  00360	6a 01		 push	 1
  00362	8b 45 08	 mov	 eax, DWORD PTR _pGameServerCreate$[ebp]
  00365	0f b7 48 4c	 movzx	 ecx, WORD PTR [eax+76]
  00369	51		 push	 ecx
  0036a	68 00 00 00 00	 push	 OFFSET ??_C@_0M@IBCKNPAA@?$EAwMaxPlayer@
  0036f	8d 4d e0	 lea	 ecx, DWORD PTR _PlatformDBAide$[ebp]
  00372	ff 15 00 00 00
	00		 call	 DWORD PTR __imp_?AddParameter@CDataBaseAide@@QAEXPBDGW4ParameterDirectionEnum@ADOCG@@@Z

; 566  : 		PlatformDBAide.AddParameter(TEXT("@wTableCount"),pGameServerCreate->wTableCount);

  00378	6a 01		 push	 1
  0037a	8b 45 08	 mov	 eax, DWORD PTR _pGameServerCreate$[ebp]
  0037d	0f b7 48 4e	 movzx	 ecx, WORD PTR [eax+78]
  00381	51		 push	 ecx
  00382	68 00 00 00 00	 push	 OFFSET ??_C@_0N@JMGMPJ@?$EAwTableCount@
  00387	8d 4d e0	 lea	 ecx, DWORD PTR _PlatformDBAide$[ebp]
  0038a	ff 15 00 00 00
	00		 call	 DWORD PTR __imp_?AddParameter@CDataBaseAide@@QAEXPBDGW4ParameterDirectionEnum@ADOCG@@@Z

; 567  : 		PlatformDBAide.AddParameter(TEXT("@wServerPort"),pGameServerCreate->wServerPort);

  00390	6a 01		 push	 1
  00392	8b 45 08	 mov	 eax, DWORD PTR _pGameServerCreate$[ebp]
  00395	0f b7 48 50	 movzx	 ecx, WORD PTR [eax+80]
  00399	51		 push	 ecx
  0039a	68 00 00 00 00	 push	 OFFSET ??_C@_0N@KHDIKACC@?$EAwServerPort@
  0039f	8d 4d e0	 lea	 ecx, DWORD PTR _PlatformDBAide$[ebp]
  003a2	ff 15 00 00 00
	00		 call	 DWORD PTR __imp_?AddParameter@CDataBaseAide@@QAEXPBDGW4ParameterDirectionEnum@ADOCG@@@Z

; 568  : 		PlatformDBAide.AddParameter(TEXT("@wServerKind"),pGameServerCreate->wServerKind);

  003a8	6a 01		 push	 1
  003aa	8b 45 08	 mov	 eax, DWORD PTR _pGameServerCreate$[ebp]
  003ad	0f b7 48 52	 movzx	 ecx, WORD PTR [eax+82]
  003b1	51		 push	 ecx
  003b2	68 00 00 00 00	 push	 OFFSET ??_C@_0N@MKJNBBCI@?$EAwServerKind@
  003b7	8d 4d e0	 lea	 ecx, DWORD PTR _PlatformDBAide$[ebp]
  003ba	ff 15 00 00 00
	00		 call	 DWORD PTR __imp_?AddParameter@CDataBaseAide@@QAEXPBDGW4ParameterDirectionEnum@ADOCG@@@Z

; 569  : 		PlatformDBAide.AddParameter(TEXT("@wServerType"),pGameServerCreate->wServerType);

  003c0	6a 01		 push	 1
  003c2	8b 45 08	 mov	 eax, DWORD PTR _pGameServerCreate$[ebp]
  003c5	0f b7 48 54	 movzx	 ecx, WORD PTR [eax+84]
  003c9	51		 push	 ecx
  003ca	68 00 00 00 00	 push	 OFFSET ??_C@_0N@HHJHPJNP@?$EAwServerType@
  003cf	8d 4d e0	 lea	 ecx, DWORD PTR _PlatformDBAide$[ebp]
  003d2	ff 15 00 00 00
	00		 call	 DWORD PTR __imp_?AddParameter@CDataBaseAide@@QAEXPBDGW4ParameterDirectionEnum@ADOCG@@@Z

; 570  : 		PlatformDBAide.AddParameter(TEXT("@wServerLevel"),pGameServerCreate->wServerLevel);

  003d8	6a 01		 push	 1
  003da	8b 45 08	 mov	 eax, DWORD PTR _pGameServerCreate$[ebp]
  003dd	0f b7 48 56	 movzx	 ecx, WORD PTR [eax+86]
  003e1	51		 push	 ecx
  003e2	68 00 00 00 00	 push	 OFFSET ??_C@_0O@LAKNNJLO@?$EAwServerLevel@
  003e7	8d 4d e0	 lea	 ecx, DWORD PTR _PlatformDBAide$[ebp]
  003ea	ff 15 00 00 00
	00		 call	 DWORD PTR __imp_?AddParameter@CDataBaseAide@@QAEXPBDGW4ParameterDirectionEnum@ADOCG@@@Z

; 571  : 		PlatformDBAide.AddParameter(TEXT("@strServerName"),pGameServerCreate->szServerName);

  003f0	6a 01		 push	 1
  003f2	8b 45 08	 mov	 eax, DWORD PTR _pGameServerCreate$[ebp]
  003f5	83 c0 58	 add	 eax, 88			; 00000058H
  003f8	50		 push	 eax
  003f9	68 00 00 00 00	 push	 OFFSET ??_C@_0P@HKFGBIA@?$EAstrServerName@
  003fe	8d 4d e0	 lea	 ecx, DWORD PTR _PlatformDBAide$[ebp]
  00401	ff 15 00 00 00
	00		 call	 DWORD PTR __imp_?AddParameter@CDataBaseAide@@QAEXPBD0W4ParameterDirectionEnum@ADOCG@@@Z

; 572  : 		PlatformDBAide.AddParameter(TEXT("@strServerPasswd"),pGameServerCreate->szServerPasswd);

  00407	6a 01		 push	 1
  00409	8b 45 08	 mov	 eax, DWORD PTR _pGameServerCreate$[ebp]
  0040c	83 c0 78	 add	 eax, 120		; 00000078H
  0040f	50		 push	 eax
  00410	68 00 00 00 00	 push	 OFFSET ??_C@_0BB@MMFKNIGF@?$EAstrServerPasswd@
  00415	8d 4d e0	 lea	 ecx, DWORD PTR _PlatformDBAide$[ebp]
  00418	ff 15 00 00 00
	00		 call	 DWORD PTR __imp_?AddParameter@CDataBaseAide@@QAEXPBD0W4ParameterDirectionEnum@ADOCG@@@Z

; 573  : 		PlatformDBAide.AddParameter(TEXT("@cbDistributeRule"),pGameServerCreate->cbDistributeRule);

  0041e	6a 01		 push	 1
  00420	8b 45 08	 mov	 eax, DWORD PTR _pGameServerCreate$[ebp]
  00423	0f b6 88 99 00
	00 00		 movzx	 ecx, BYTE PTR [eax+153]
  0042a	51		 push	 ecx
  0042b	68 00 00 00 00	 push	 OFFSET ??_C@_0BC@OEHLNJCG@?$EAcbDistributeRule@
  00430	8d 4d e0	 lea	 ecx, DWORD PTR _PlatformDBAide$[ebp]
  00433	ff 15 00 00 00
	00		 call	 DWORD PTR __imp_?AddParameter@CDataBaseAide@@QAEXPBDEW4ParameterDirectionEnum@ADOCG@@@Z

; 574  : 		PlatformDBAide.AddParameter(TEXT("@wMinDistributeUser"),pGameServerCreate->wMinDistributeUser);

  00439	6a 01		 push	 1
  0043b	8b 45 08	 mov	 eax, DWORD PTR _pGameServerCreate$[ebp]
  0043e	0f b7 88 9a 00
	00 00		 movzx	 ecx, WORD PTR [eax+154]
  00445	51		 push	 ecx
  00446	68 00 00 00 00	 push	 OFFSET ??_C@_0BE@HAABPICC@?$EAwMinDistributeUser@
  0044b	8d 4d e0	 lea	 ecx, DWORD PTR _PlatformDBAide$[ebp]
  0044e	ff 15 00 00 00
	00		 call	 DWORD PTR __imp_?AddParameter@CDataBaseAide@@QAEXPBDGW4ParameterDirectionEnum@ADOCG@@@Z

; 575  : 		PlatformDBAide.AddParameter(TEXT("@wDistributeTimeSpace"),pGameServerCreate->wDistributeTimeSpace);

  00454	6a 01		 push	 1
  00456	8b 45 08	 mov	 eax, DWORD PTR _pGameServerCreate$[ebp]
  00459	0f b7 88 9c 00
	00 00		 movzx	 ecx, WORD PTR [eax+156]
  00460	51		 push	 ecx
  00461	68 00 00 00 00	 push	 OFFSET ??_C@_0BG@PGABJKOH@?$EAwDistributeTimeSpace@
  00466	8d 4d e0	 lea	 ecx, DWORD PTR _PlatformDBAide$[ebp]
  00469	ff 15 00 00 00
	00		 call	 DWORD PTR __imp_?AddParameter@CDataBaseAide@@QAEXPBDGW4ParameterDirectionEnum@ADOCG@@@Z

; 576  : 		PlatformDBAide.AddParameter(TEXT("@wDistributeDrawCount"),pGameServerCreate->wDistributeDrawCount);

  0046f	6a 01		 push	 1
  00471	8b 45 08	 mov	 eax, DWORD PTR _pGameServerCreate$[ebp]
  00474	0f b7 88 9e 00
	00 00		 movzx	 ecx, WORD PTR [eax+158]
  0047b	51		 push	 ecx
  0047c	68 00 00 00 00	 push	 OFFSET ??_C@_0BG@DNMICNEI@?$EAwDistributeDrawCount@
  00481	8d 4d e0	 lea	 ecx, DWORD PTR _PlatformDBAide$[ebp]
  00484	ff 15 00 00 00
	00		 call	 DWORD PTR __imp_?AddParameter@CDataBaseAide@@QAEXPBDGW4ParameterDirectionEnum@ADOCG@@@Z

; 577  : 		PlatformDBAide.AddParameter(TEXT("@wMinPartakeGameUser"),pGameServerCreate->wMinPartakeGameUser);

  0048a	6a 01		 push	 1
  0048c	8b 45 08	 mov	 eax, DWORD PTR _pGameServerCreate$[ebp]
  0048f	0f b7 88 a0 00
	00 00		 movzx	 ecx, WORD PTR [eax+160]
  00496	51		 push	 ecx
  00497	68 00 00 00 00	 push	 OFFSET ??_C@_0BF@EICMGAPH@?$EAwMinPartakeGameUser@
  0049c	8d 4d e0	 lea	 ecx, DWORD PTR _PlatformDBAide$[ebp]
  0049f	ff 15 00 00 00
	00		 call	 DWORD PTR __imp_?AddParameter@CDataBaseAide@@QAEXPBDGW4ParameterDirectionEnum@ADOCG@@@Z

; 578  : 		PlatformDBAide.AddParameter(TEXT("@wMaxPartakeGameUser"),pGameServerCreate->wMaxPartakeGameUser);

  004a5	6a 01		 push	 1
  004a7	8b 45 08	 mov	 eax, DWORD PTR _pGameServerCreate$[ebp]
  004aa	0f b7 88 a2 00
	00 00		 movzx	 ecx, WORD PTR [eax+162]
  004b1	51		 push	 ecx
  004b2	68 00 00 00 00	 push	 OFFSET ??_C@_0BF@OPBIOAIO@?$EAwMaxPartakeGameUser@
  004b7	8d 4d e0	 lea	 ecx, DWORD PTR _PlatformDBAide$[ebp]
  004ba	ff 15 00 00 00
	00		 call	 DWORD PTR __imp_?AddParameter@CDataBaseAide@@QAEXPBDGW4ParameterDirectionEnum@ADOCG@@@Z

; 579  : 		PlatformDBAide.AddParameter(TEXT("@strDataBaseName"),pGameServerCreate->szDataBaseName);

  004c0	6a 01		 push	 1
  004c2	8b 45 08	 mov	 eax, DWORD PTR _pGameServerCreate$[ebp]
  004c5	05 a4 00 00 00	 add	 eax, 164		; 000000a4H
  004ca	50		 push	 eax
  004cb	68 00 00 00 00	 push	 OFFSET ??_C@_0BB@PBIEFPDL@?$EAstrDataBaseName@
  004d0	8d 4d e0	 lea	 ecx, DWORD PTR _PlatformDBAide$[ebp]
  004d3	ff 15 00 00 00
	00		 call	 DWORD PTR __imp_?AddParameter@CDataBaseAide@@QAEXPBD0W4ParameterDirectionEnum@ADOCG@@@Z

; 580  : 		PlatformDBAide.AddParameter(TEXT("@strDataBaseAddr"),pGameServerCreate->szDataBaseAddr);

  004d9	6a 01		 push	 1
  004db	8b 45 08	 mov	 eax, DWORD PTR _pGameServerCreate$[ebp]
  004de	05 c4 00 00 00	 add	 eax, 196		; 000000c4H
  004e3	50		 push	 eax
  004e4	68 00 00 00 00	 push	 OFFSET ??_C@_0BB@EOFIIHMB@?$EAstrDataBaseAddr@
  004e9	8d 4d e0	 lea	 ecx, DWORD PTR _PlatformDBAide$[ebp]
  004ec	ff 15 00 00 00
	00		 call	 DWORD PTR __imp_?AddParameter@CDataBaseAide@@QAEXPBD0W4ParameterDirectionEnum@ADOCG@@@Z

; 581  : 		PlatformDBAide.AddParameter(TEXT("@strCustomRule"),szCustomRule);

  004f2	6a 01		 push	 1
  004f4	8d 85 04 f6 ff
	ff		 lea	 eax, DWORD PTR _szCustomRule$13[ebp]
  004fa	50		 push	 eax
  004fb	68 00 00 00 00	 push	 OFFSET ??_C@_0P@PGPKAIOB@?$EAstrCustomRule@
  00500	8d 4d e0	 lea	 ecx, DWORD PTR _PlatformDBAide$[ebp]
  00503	ff 15 00 00 00
	00		 call	 DWORD PTR __imp_?AddParameter@CDataBaseAide@@QAEXPBD0W4ParameterDirectionEnum@ADOCG@@@Z

; 582  : 		PlatformDBAide.AddParameter(TEXT("@strServiceMachine"),pGameServerCreate->szServiceMachine);

  00509	6a 01		 push	 1
  0050b	8b 45 08	 mov	 eax, DWORD PTR _pGameServerCreate$[ebp]
  0050e	05 e4 04 00 00	 add	 eax, 1252		; 000004e4H
  00513	50		 push	 eax
  00514	68 00 00 00 00	 push	 OFFSET ??_C@_0BD@CBAFKNPB@?$EAstrServiceMachine@
  00519	8d 4d e0	 lea	 ecx, DWORD PTR _PlatformDBAide$[ebp]
  0051c	ff 15 00 00 00
	00		 call	 DWORD PTR __imp_?AddParameter@CDataBaseAide@@QAEXPBD0W4ParameterDirectionEnum@ADOCG@@@Z

; 583  : 		PlatformDBAide.AddParameter(TEXT("@strPersonalRule"), szPersonalRule);

  00522	6a 01		 push	 1
  00524	8d 85 fc ed ff
	ff		 lea	 eax, DWORD PTR _szPersonalRule$11[ebp]
  0052a	50		 push	 eax
  0052b	68 00 00 00 00	 push	 OFFSET ??_C@_0BB@ELKLEIJF@?$EAstrPersonalRule@
  00530	8d 4d e0	 lea	 ecx, DWORD PTR _PlatformDBAide$[ebp]
  00533	ff 15 00 00 00
	00		 call	 DWORD PTR __imp_?AddParameter@CDataBaseAide@@QAEXPBD0W4ParameterDirectionEnum@ADOCG@@@Z

; 584  : 
; 585  : 		//输出信息
; 586  : 		TCHAR szDescribeString[128]=TEXT("");

  00539	a0 00 00 00 00	 mov	 al, BYTE PTR ??_C@_00CNPNBAHC@@
  0053e	88 85 78 ed ff
	ff		 mov	 BYTE PTR _szDescribeString$9[ebp], al
  00544	6a 7f		 push	 127			; 0000007fH
  00546	6a 00		 push	 0
  00548	8d 85 79 ed ff
	ff		 lea	 eax, DWORD PTR _szDescribeString$9[ebp+1]
  0054e	50		 push	 eax
  0054f	e8 00 00 00 00	 call	 _memset
  00554	83 c4 0c	 add	 esp, 12			; 0000000cH

; 587  : 		PlatformDBAide.AddParameterOutput(TEXT("@strErrorDescribe"),szDescribeString,sizeof(szDescribeString),adParamOutput);

  00557	6a 02		 push	 2
  00559	68 80 00 00 00	 push	 128			; 00000080H
  0055e	8d 85 78 ed ff
	ff		 lea	 eax, DWORD PTR _szDescribeString$9[ebp]
  00564	50		 push	 eax
  00565	68 00 00 00 00	 push	 OFFSET ??_C@_0BC@IIOJPJPJ@?$EAstrErrorDescribe@
  0056a	8d 4d e0	 lea	 ecx, DWORD PTR _PlatformDBAide$[ebp]
  0056d	ff 15 00 00 00
	00		 call	 DWORD PTR __imp_?AddParameterOutput@CDataBaseAide@@QAEXPBDPADIW4ParameterDirectionEnum@ADOCG@@@Z

; 588  : 
; 589  : 		//执行命令
; 590  : 		if (PlatformDBAide.ExecuteProcess(TEXT("GSP_GS_InsertGameRoom"),true)!=DB_SUCCESS)

  00573	6a 01		 push	 1
  00575	68 00 00 00 00	 push	 OFFSET ??_C@_0BG@EDGEFKPJ@GSP_GS_InsertGameRoom@
  0057a	8d 4d e0	 lea	 ecx, DWORD PTR _PlatformDBAide$[ebp]
  0057d	ff 15 00 00 00
	00		 call	 DWORD PTR __imp_?ExecuteProcess@CDataBaseAide@@QAEJPBD_N@Z
  00583	89 85 60 eb ff
	ff		 mov	 DWORD PTR tv451[ebp], eax
  00589	83 bd 60 eb ff
	ff 00		 cmp	 DWORD PTR tv451[ebp], 0
  00590	74 6d		 je	 SHORT $LN10@InsertGame

; 591  : 		{
; 592  : 			//获取信息
; 593  : 			PlatformDBAide.GetParameter(TEXT("@strErrorDescribe"),szDescribeString,CountArray(szDescribeString));

  00592	68 80 00 00 00	 push	 128			; 00000080H
  00597	8d 85 78 ed ff
	ff		 lea	 eax, DWORD PTR _szDescribeString$9[ebp]
  0059d	50		 push	 eax
  0059e	68 00 00 00 00	 push	 OFFSET ??_C@_0BC@IIOJPJPJ@?$EAstrErrorDescribe@
  005a3	8d 4d e0	 lea	 ecx, DWORD PTR _PlatformDBAide$[ebp]
  005a6	ff 15 00 00 00
	00		 call	 DWORD PTR __imp_?GetParameter@CDataBaseAide@@QAEXPBDPADI@Z

; 594  : 
; 595  : 			//错误提示
; 596  : 			CTraceService::TraceString(szDescribeString,TraceLevel_Exception);

  005ac	6a 03		 push	 3
  005ae	8d 85 78 ed ff
	ff		 lea	 eax, DWORD PTR _szDescribeString$9[ebp]
  005b4	50		 push	 eax
  005b5	ff 15 00 00 00
	00		 call	 DWORD PTR __imp_?TraceString@CTraceService@@SA_NPBDW4enTraceLevel@@@Z
  005bb	83 c4 08	 add	 esp, 8

; 597  : 
; 598  : 			//错误提示
; 599  : 			AfxMessageBox(szDescribeString,MB_ICONERROR);

  005be	6a 00		 push	 0
  005c0	6a 10		 push	 16			; 00000010H
  005c2	8d 85 78 ed ff
	ff		 lea	 eax, DWORD PTR _szDescribeString$9[ebp]
  005c8	50		 push	 eax
  005c9	e8 00 00 00 00	 call	 ?AfxMessageBox@@YGHPBDII@Z ; AfxMessageBox

; 600  : 
; 601  : 			return false;

  005ce	c6 85 6e eb ff
	ff 00		 mov	 BYTE PTR $T5[ebp], 0
  005d5	c6 45 fc 00	 mov	 BYTE PTR __$EHRec$[ebp+12], 0
  005d9	8d 8d 08 fe ff
	ff		 lea	 ecx, DWORD PTR _PlatformDBModule$[ebp]
  005df	e8 00 00 00 00	 call	 ??1CDataBaseHelper@@UAE@XZ
  005e4	c7 45 fc ff ff
	ff ff		 mov	 DWORD PTR __$EHRec$[ebp+12], -1
  005eb	8d 4d e0	 lea	 ecx, DWORD PTR _PlatformDBAide$[ebp]
  005ee	ff 15 00 00 00
	00		 call	 DWORD PTR __imp_??1CDataBaseAide@@UAE@XZ
  005f4	8a 85 6e eb ff
	ff		 mov	 al, BYTE PTR $T5[ebp]
  005fa	e9 19 01 00 00	 jmp	 $LN1@InsertGame
$LN10@InsertGame:

; 602  : 		}
; 603  : 
; 604  : 		//读取资料
; 605  : 		ReadGameServerInfo(PlatformDBAide,GameServerResult);

  005ff	8b 45 0c	 mov	 eax, DWORD PTR _GameServerResult$[ebp]
  00602	50		 push	 eax
  00603	8d 4d e0	 lea	 ecx, DWORD PTR _PlatformDBAide$[ebp]
  00606	51		 push	 ecx
  00607	8b 4d e8	 mov	 ecx, DWORD PTR _this$[ebp]
  0060a	e8 00 00 00 00	 call	 ?ReadGameServerInfo@CServerInfoManager@@AAE_NAAVCDataBaseAide@@AAUtagGameServerInfo@@@Z ; CServerInfoManager::ReadGameServerInfo

; 606  : 
; 607  : 		if (pGameServerCreate->wServerType == GAME_GENRE_PERSONAL)

  0060f	8b 45 08	 mov	 eax, DWORD PTR _pGameServerCreate$[ebp]
  00612	0f b7 48 54	 movzx	 ecx, WORD PTR [eax+84]
  00616	83 f9 10	 cmp	 ecx, 16			; 00000010H
  00619	75 52		 jne	 SHORT $LN11@InsertGame

; 608  : 		{
; 609  : 			InsertPersonalRoomParameter(PlatformDBAide, m_PersonalRoomOption, m_PersonalRoomOptionRightAndFee, GameServerResult.wServerID,  GameServerResult.wKindID);

  0061b	8b 45 0c	 mov	 eax, DWORD PTR _GameServerResult$[ebp]
  0061e	0f b7 48 04	 movzx	 ecx, WORD PTR [eax+4]
  00622	51		 push	 ecx
  00623	8b 55 0c	 mov	 edx, DWORD PTR _GameServerResult$[ebp]
  00626	0f b7 42 02	 movzx	 eax, WORD PTR [edx+2]
  0062a	50		 push	 eax
  0062b	8b 75 e8	 mov	 esi, DWORD PTR _this$[ebp]
  0062e	83 c6 75	 add	 esi, 117		; 00000075H
  00631	83 ec 74	 sub	 esp, 116		; 00000074H
  00634	b9 1d 00 00 00	 mov	 ecx, 29			; 0000001dH
  00639	8b fc		 mov	 edi, esp
  0063b	f3 a5		 rep movsd
  0063d	8b 75 e8	 mov	 esi, DWORD PTR _this$[ebp]
  00640	83 c6 04	 add	 esi, 4
  00643	83 ec 74	 sub	 esp, 116		; 00000074H
  00646	b9 1c 00 00 00	 mov	 ecx, 28			; 0000001cH
  0064b	8b fc		 mov	 edi, esp
  0064d	f3 a5		 rep movsd
  0064f	a4		 movsb
  00650	83 ec 08	 sub	 esp, 8
  00653	8b cc		 mov	 ecx, esp
  00655	89 a5 68 eb ff
	ff		 mov	 DWORD PTR $T4[ebp], esp
  0065b	8d 55 e0	 lea	 edx, DWORD PTR _PlatformDBAide$[ebp]
  0065e	52		 push	 edx
  0065f	ff 15 00 00 00
	00		 call	 DWORD PTR __imp_??0CDataBaseAide@@QAE@ABV0@@Z
  00665	8b 4d e8	 mov	 ecx, DWORD PTR _this$[ebp]
  00668	e8 00 00 00 00	 call	 ?InsertPersonalRoomParameter@CServerInfoManager@@QAE_NVCDataBaseAide@@UtagPersonalRoomOption@@UtagPersonalRoomOptionRightAndFee@@GG@Z ; CServerInfoManager::InsertPersonalRoomParameter
$LN11@InsertGame:

; 610  : 		}
; 611  : 
; 612  : 		return true;

  0066d	c6 85 67 eb ff
	ff 01		 mov	 BYTE PTR $T3[ebp], 1
  00674	c6 45 fc 00	 mov	 BYTE PTR __$EHRec$[ebp+12], 0
  00678	8d 8d 08 fe ff
	ff		 lea	 ecx, DWORD PTR _PlatformDBModule$[ebp]
  0067e	e8 00 00 00 00	 call	 ??1CDataBaseHelper@@UAE@XZ
  00683	c7 45 fc ff ff
	ff ff		 mov	 DWORD PTR __$EHRec$[ebp+12], -1
  0068a	8d 4d e0	 lea	 ecx, DWORD PTR _PlatformDBAide$[ebp]
  0068d	ff 15 00 00 00
	00		 call	 DWORD PTR __imp_??1CDataBaseAide@@UAE@XZ
  00693	8a 85 67 eb ff
	ff		 mov	 al, BYTE PTR $T3[ebp]
  00699	eb 7d		 jmp	 SHORT $LN1@InsertGame
__catch$?InsertGameServer@CServerInfoManager@@QAE_NPAUtagGameServerCreate@@AAUtagGameServerInfo@@@Z$0:

; 613  : 	}
; 614  : 	catch (IDataBaseException * pIException)
; 615  : 	{
; 616  : 		//错误信息
; 617  : 		LPCTSTR pszDescribe=pIException->GetExceptionDescribe();

  0069b	8b 85 74 ed ff
	ff		 mov	 eax, DWORD PTR _pIException$8[ebp]
  006a1	8b 10		 mov	 edx, DWORD PTR [eax]
  006a3	8b 8d 74 ed ff
	ff		 mov	 ecx, DWORD PTR _pIException$8[ebp]
  006a9	8b 42 0c	 mov	 eax, DWORD PTR [edx+12]
  006ac	ff d0		 call	 eax
  006ae	89 85 70 ed ff
	ff		 mov	 DWORD PTR _pszDescribe$7[ebp], eax

; 618  : 		CTraceService::TraceString(pszDescribe,TraceLevel_Exception);

  006b4	6a 03		 push	 3
  006b6	8b 85 70 ed ff
	ff		 mov	 eax, DWORD PTR _pszDescribe$7[ebp]
  006bc	50		 push	 eax
  006bd	ff 15 00 00 00
	00		 call	 DWORD PTR __imp_?TraceString@CTraceService@@SA_NPBDW4enTraceLevel@@@Z
  006c3	83 c4 08	 add	 esp, 8

; 619  : 
; 620  : 		//错误提示
; 621  : 		AfxMessageBox(pszDescribe,MB_ICONERROR);

  006c6	6a 00		 push	 0
  006c8	6a 10		 push	 16			; 00000010H
  006ca	8b 85 70 ed ff
	ff		 mov	 eax, DWORD PTR _pszDescribe$7[ebp]
  006d0	50		 push	 eax
  006d1	e8 00 00 00 00	 call	 ?AfxMessageBox@@YGHPBDII@Z ; AfxMessageBox

; 622  : 	}

  006d6	b8 00 00 00 00	 mov	 eax, $LN20@InsertGame
  006db	c3		 ret	 0
  006dc	c7 45 fc 01 00
	00 00		 mov	 DWORD PTR __$EHRec$[ebp+12], 1
  006e3	eb 07		 jmp	 SHORT __tryend$?InsertGameServer@CServerInfoManager@@QAE_NPAUtagGameServerCreate@@AAUtagGameServerInfo@@@Z$1
$LN20@InsertGame:
  006e5	c7 45 fc 01 00
	00 00		 mov	 DWORD PTR __$EHRec$[ebp+12], 1
__tryend$?InsertGameServer@CServerInfoManager@@QAE_NPAUtagGameServerCreate@@AAUtagGameServerInfo@@@Z$1:

; 623  : 
; 624  : 	return false;

  006ec	c6 85 66 eb ff
	ff 00		 mov	 BYTE PTR $T2[ebp], 0
  006f3	c6 45 fc 00	 mov	 BYTE PTR __$EHRec$[ebp+12], 0
  006f7	8d 8d 08 fe ff
	ff		 lea	 ecx, DWORD PTR _PlatformDBModule$[ebp]
  006fd	e8 00 00 00 00	 call	 ??1CDataBaseHelper@@UAE@XZ
  00702	c7 45 fc ff ff
	ff ff		 mov	 DWORD PTR __$EHRec$[ebp+12], -1
  00709	8d 4d e0	 lea	 ecx, DWORD PTR _PlatformDBAide$[ebp]
  0070c	ff 15 00 00 00
	00		 call	 DWORD PTR __imp_??1CDataBaseAide@@UAE@XZ
  00712	8a 85 66 eb ff
	ff		 mov	 al, BYTE PTR $T2[ebp]
$LN1@InsertGame:

; 625  : }

  00718	8b 4d f4	 mov	 ecx, DWORD PTR __$EHRec$[ebp+4]
  0071b	64 89 0d 00 00
	00 00		 mov	 DWORD PTR fs:0, ecx
  00722	59		 pop	 ecx
  00723	5f		 pop	 edi
  00724	5e		 pop	 esi
  00725	5b		 pop	 ebx
  00726	8b 4d ec	 mov	 ecx, DWORD PTR __$ArrayPad$[ebp]
  00729	33 cd		 xor	 ecx, ebp
  0072b	e8 00 00 00 00	 call	 @__security_check_cookie@4
  00730	8b e5		 mov	 esp, ebp
  00732	5d		 pop	 ebp
  00733	c2 08 00	 ret	 8
_TEXT	ENDS
;	COMDAT text$x
text$x	SEGMENT
__unwindfunclet$?InsertGameServer@CServerInfoManager@@QAE_NPAUtagGameServerCreate@@AAUtagGameServerInfo@@@Z$2:
  00000	8d 4d e0	 lea	 ecx, DWORD PTR _PlatformDBAide$[ebp]
  00003	ff 25 00 00 00
	00		 jmp	 DWORD PTR __imp_??1CDataBaseAide@@UAE@XZ
__unwindfunclet$?InsertGameServer@CServerInfoManager@@QAE_NPAUtagGameServerCreate@@AAUtagGameServerInfo@@@Z$3:
  00009	8d 8d 08 fe ff
	ff		 lea	 ecx, DWORD PTR _PlatformDBModule$[ebp]
  0000f	e9 00 00 00 00	 jmp	 ??1CDataBaseHelper@@UAE@XZ
__ehhandler$?InsertGameServer@CServerInfoManager@@QAE_NPAUtagGameServerCreate@@AAUtagGameServerInfo@@@Z:
  00014	8b 54 24 08	 mov	 edx, DWORD PTR [esp+8]
  00018	8d 42 0c	 lea	 eax, DWORD PTR [edx+12]
  0001b	8b 8a 5c eb ff
	ff		 mov	 ecx, DWORD PTR [edx-5284]
  00021	33 c8		 xor	 ecx, eax
  00023	e8 00 00 00 00	 call	 @__security_check_cookie@4
  00028	8b 4a f8	 mov	 ecx, DWORD PTR [edx-8]
  0002b	33 c8		 xor	 ecx, eax
  0002d	e8 00 00 00 00	 call	 @__security_check_cookie@4
  00032	b8 00 00 00 00	 mov	 eax, OFFSET __ehfuncinfo$?InsertGameServer@CServerInfoManager@@QAE_NPAUtagGameServerCreate@@AAUtagGameServerInfo@@@Z
  00037	e9 00 00 00 00	 jmp	 ___CxxFrameHandler3
text$x	ENDS
?InsertGameServer@CServerInfoManager@@QAE_NPAUtagGameServerCreate@@AAUtagGameServerInfo@@@Z ENDP ; CServerInfoManager::InsertGameServer
; Function compile flags: /Odtp /ZI
; File g:\网狐\happygamewh\服务端\系统模块\服务器组件\模块管理\serverinfomanager.cpp
;	COMDAT ?DeleteGameServer@CServerInfoManager@@QAE_NG@Z
_TEXT	SEGMENT
tv180 = -776						; size = 4
tv179 = -776						; size = 4
tv65 = -776						; size = 4
tv69 = -773						; size = 1
$T2 = -772						; size = 1
$T3 = -771						; size = 1
$T4 = -770						; size = 1
$T5 = -769						; size = 1
_pszDescribe$6 = -640					; size = 4
_pIException$7 = -636					; size = 4
_szDescribeString$8 = -632				; size = 128
_PlatformDBModule$ = -504				; size = 472
_PlatformDBAide$ = -32					; size = 8
_this$ = -24						; size = 4
__$ArrayPad$ = -20					; size = 4
__$EHRec$ = -16						; size = 16
_wServerID$ = 8						; size = 2
?DeleteGameServer@CServerInfoManager@@QAE_NG@Z PROC	; CServerInfoManager::DeleteGameServer, COMDAT
; _this$ = ecx

; 466  : {

  00000	55		 push	 ebp
  00001	8b ec		 mov	 ebp, esp
  00003	6a ff		 push	 -1
  00005	68 00 00 00 00	 push	 __ehhandler$?DeleteGameServer@CServerInfoManager@@QAE_NG@Z
  0000a	64 a1 00 00 00
	00		 mov	 eax, DWORD PTR fs:0
  00010	50		 push	 eax
  00011	51		 push	 ecx
  00012	81 ec f8 02 00
	00		 sub	 esp, 760		; 000002f8H
  00018	a1 00 00 00 00	 mov	 eax, DWORD PTR ___security_cookie
  0001d	33 c5		 xor	 eax, ebp
  0001f	89 45 ec	 mov	 DWORD PTR __$ArrayPad$[ebp], eax
  00022	53		 push	 ebx
  00023	56		 push	 esi
  00024	57		 push	 edi
  00025	50		 push	 eax
  00026	8d 45 f4	 lea	 eax, DWORD PTR __$EHRec$[ebp+4]
  00029	64 a3 00 00 00
	00		 mov	 DWORD PTR fs:0, eax
  0002f	89 65 f0	 mov	 DWORD PTR __$EHRec$[ebp], esp
  00032	89 4d e8	 mov	 DWORD PTR _this$[ebp], ecx

; 467  : 	//变量定义
; 468  : 	CDataBaseAide PlatformDBAide;

  00035	6a 00		 push	 0
  00037	8d 4d e0	 lea	 ecx, DWORD PTR _PlatformDBAide$[ebp]
  0003a	ff 15 00 00 00
	00		 call	 DWORD PTR __imp_??0CDataBaseAide@@QAE@PAUIUnknownEx@@@Z
  00040	c7 45 fc 00 00
	00 00		 mov	 DWORD PTR __$EHRec$[ebp+12], 0

; 469  : 	CDataBaseHelper PlatformDBModule;

  00047	8d 8d 08 fe ff
	ff		 lea	 ecx, DWORD PTR _PlatformDBModule$[ebp]
  0004d	e8 00 00 00 00	 call	 ??0CDataBaseHelper@@QAE@XZ ; CDataBaseHelper::CDataBaseHelper
  00052	c6 45 fc 01	 mov	 BYTE PTR __$EHRec$[ebp+12], 1

; 470  : 
; 471  : 	//执行逻辑
; 472  : 	try

  00056	c6 45 fc 02	 mov	 BYTE PTR __$EHRec$[ebp+12], 2

; 473  : 	{
; 474  : 		//连接数据库
; 475  : 		if (ConnectPlatformDB(PlatformDBModule)==false)

  0005a	8d 85 08 fe ff
	ff		 lea	 eax, DWORD PTR _PlatformDBModule$[ebp]
  00060	50		 push	 eax
  00061	8b 4d e8	 mov	 ecx, DWORD PTR _this$[ebp]
  00064	e8 00 00 00 00	 call	 ?ConnectPlatformDB@CServerInfoManager@@AAE_NAAVCDataBaseHelper@@@Z ; CServerInfoManager::ConnectPlatformDB
  00069	88 85 fb fc ff
	ff		 mov	 BYTE PTR tv69[ebp], al
  0006f	0f b6 8d fb fc
	ff ff		 movzx	 ecx, BYTE PTR tv69[ebp]
  00076	85 c9		 test	 ecx, ecx
  00078	75 59		 jne	 SHORT $LN3@DeleteGame

; 476  : 		{
; 477  : 			ASSERT(FALSE);

  0007a	33 c0		 xor	 eax, eax
  0007c	75 24		 jne	 SHORT $LN6@DeleteGame
  0007e	8b 0d 00 00 00
	00		 mov	 ecx, DWORD PTR ?__LINE__Var@?0??DeleteGameServer@CServerInfoManager@@QAE_NG@Z@4JA
  00084	83 c1 0b	 add	 ecx, 11			; 0000000bH
  00087	51		 push	 ecx
  00088	68 00 00 00 00	 push	 OFFSET ??_C@_0EO@GNEBGAKM@g?3?2?M?x?$LK?$PM?2happygamewh?2?$LH?$PO?N?q?$LG?K?2?O?$LF?M?$LD@
  0008d	e8 00 00 00 00	 call	 ?AfxAssertFailedLine@@YGHPBDH@Z ; AfxAssertFailedLine
  00092	89 85 f8 fc ff
	ff		 mov	 DWORD PTR tv65[ebp], eax
  00098	83 bd f8 fc ff
	ff 00		 cmp	 DWORD PTR tv65[ebp], 0
  0009f	74 01		 je	 SHORT $LN6@DeleteGame
  000a1	cc		 int	 3
$LN6@DeleteGame:

; 478  : 			return false;

  000a2	c6 85 ff fc ff
	ff 00		 mov	 BYTE PTR $T5[ebp], 0
  000a9	c6 45 fc 00	 mov	 BYTE PTR __$EHRec$[ebp+12], 0
  000ad	8d 8d 08 fe ff
	ff		 lea	 ecx, DWORD PTR _PlatformDBModule$[ebp]
  000b3	e8 00 00 00 00	 call	 ??1CDataBaseHelper@@UAE@XZ
  000b8	c7 45 fc ff ff
	ff ff		 mov	 DWORD PTR __$EHRec$[ebp+12], -1
  000bf	8d 4d e0	 lea	 ecx, DWORD PTR _PlatformDBAide$[ebp]
  000c2	ff 15 00 00 00
	00		 call	 DWORD PTR __imp_??1CDataBaseAide@@UAE@XZ
  000c8	8a 85 ff fc ff
	ff		 mov	 al, BYTE PTR $T5[ebp]
  000ce	e9 b0 01 00 00	 jmp	 $LN1@DeleteGame
$LN3@DeleteGame:

; 479  : 		}
; 480  : 
; 481  : 		//设置对象
; 482  : 		PlatformDBAide.SetDataBase(PlatformDBModule.GetInterface());

  000d3	8d 8d 08 fe ff
	ff		 lea	 ecx, DWORD PTR _PlatformDBModule$[ebp]
  000d9	e8 00 00 00 00	 call	 ?GetInterface@?$CTempldateHelper@UIDataBase@@@@QBEPAUIDataBase@@XZ ; CTempldateHelper<IDataBase>::GetInterface
  000de	89 85 f8 fc ff
	ff		 mov	 DWORD PTR tv179[ebp], eax
  000e4	8b 85 f8 fc ff
	ff		 mov	 eax, DWORD PTR tv179[ebp]
  000ea	50		 push	 eax
  000eb	8d 4d e0	 lea	 ecx, DWORD PTR _PlatformDBAide$[ebp]
  000ee	ff 15 00 00 00
	00		 call	 DWORD PTR __imp_?SetDataBase@CDataBaseAide@@QAE_NPAUIUnknownEx@@@Z

; 483  : 
; 484  : 		//插入参数
; 485  : 		PlatformDBAide.ResetParameter();

  000f4	8d 4d e0	 lea	 ecx, DWORD PTR _PlatformDBAide$[ebp]
  000f7	ff 15 00 00 00
	00		 call	 DWORD PTR __imp_?ResetParameter@CDataBaseAide@@QAEXXZ

; 486  : 		PlatformDBAide.AddParameter(TEXT("@wServerID"),wServerID);

  000fd	6a 01		 push	 1
  000ff	0f b7 45 08	 movzx	 eax, WORD PTR _wServerID$[ebp]
  00103	50		 push	 eax
  00104	68 00 00 00 00	 push	 OFFSET ??_C@_0L@FIEHJJML@?$EAwServerID@
  00109	8d 4d e0	 lea	 ecx, DWORD PTR _PlatformDBAide$[ebp]
  0010c	ff 15 00 00 00
	00		 call	 DWORD PTR __imp_?AddParameter@CDataBaseAide@@QAEXPBDGW4ParameterDirectionEnum@ADOCG@@@Z

; 487  : 
; 488  : 		//输出信息
; 489  : 		TCHAR szDescribeString[128]=TEXT("");

  00112	a0 00 00 00 00	 mov	 al, BYTE PTR ??_C@_00CNPNBAHC@@
  00117	88 85 88 fd ff
	ff		 mov	 BYTE PTR _szDescribeString$8[ebp], al
  0011d	6a 7f		 push	 127			; 0000007fH
  0011f	6a 00		 push	 0
  00121	8d 85 89 fd ff
	ff		 lea	 eax, DWORD PTR _szDescribeString$8[ebp+1]
  00127	50		 push	 eax
  00128	e8 00 00 00 00	 call	 _memset
  0012d	83 c4 0c	 add	 esp, 12			; 0000000cH

; 490  : 		PlatformDBAide.AddParameterOutput(TEXT("@strErrorDescribe"),szDescribeString,sizeof(szDescribeString),adParamOutput);

  00130	6a 02		 push	 2
  00132	68 80 00 00 00	 push	 128			; 00000080H
  00137	8d 85 88 fd ff
	ff		 lea	 eax, DWORD PTR _szDescribeString$8[ebp]
  0013d	50		 push	 eax
  0013e	68 00 00 00 00	 push	 OFFSET ??_C@_0BC@IIOJPJPJ@?$EAstrErrorDescribe@
  00143	8d 4d e0	 lea	 ecx, DWORD PTR _PlatformDBAide$[ebp]
  00146	ff 15 00 00 00
	00		 call	 DWORD PTR __imp_?AddParameterOutput@CDataBaseAide@@QAEXPBDPADIW4ParameterDirectionEnum@ADOCG@@@Z

; 491  : 
; 492  : 		//执行命令
; 493  : 		if (PlatformDBAide.ExecuteProcess(TEXT("GSP_GS_DeleteGameRoom"),false)!=DB_SUCCESS)

  0014c	6a 00		 push	 0
  0014e	68 00 00 00 00	 push	 OFFSET ??_C@_0BG@EDPMEAGC@GSP_GS_DeleteGameRoom@
  00153	8d 4d e0	 lea	 ecx, DWORD PTR _PlatformDBAide$[ebp]
  00156	ff 15 00 00 00
	00		 call	 DWORD PTR __imp_?ExecuteProcess@CDataBaseAide@@QAEJPBD_N@Z
  0015c	89 85 f8 fc ff
	ff		 mov	 DWORD PTR tv180[ebp], eax
  00162	83 bd f8 fc ff
	ff 00		 cmp	 DWORD PTR tv180[ebp], 0
  00169	74 6d		 je	 SHORT $LN4@DeleteGame

; 494  : 		{
; 495  : 			//获取信息
; 496  : 			PlatformDBAide.GetParameter(TEXT("@strErrorDescribe"),szDescribeString,CountArray(szDescribeString));

  0016b	68 80 00 00 00	 push	 128			; 00000080H
  00170	8d 85 88 fd ff
	ff		 lea	 eax, DWORD PTR _szDescribeString$8[ebp]
  00176	50		 push	 eax
  00177	68 00 00 00 00	 push	 OFFSET ??_C@_0BC@IIOJPJPJ@?$EAstrErrorDescribe@
  0017c	8d 4d e0	 lea	 ecx, DWORD PTR _PlatformDBAide$[ebp]
  0017f	ff 15 00 00 00
	00		 call	 DWORD PTR __imp_?GetParameter@CDataBaseAide@@QAEXPBDPADI@Z

; 497  : 
; 498  : 			//错误提示
; 499  : 			CTraceService::TraceString(szDescribeString,TraceLevel_Exception);

  00185	6a 03		 push	 3
  00187	8d 85 88 fd ff
	ff		 lea	 eax, DWORD PTR _szDescribeString$8[ebp]
  0018d	50		 push	 eax
  0018e	ff 15 00 00 00
	00		 call	 DWORD PTR __imp_?TraceString@CTraceService@@SA_NPBDW4enTraceLevel@@@Z
  00194	83 c4 08	 add	 esp, 8

; 500  : 
; 501  : 			//错误提示
; 502  : 			AfxMessageBox(szDescribeString,MB_ICONERROR);

  00197	6a 00		 push	 0
  00199	6a 10		 push	 16			; 00000010H
  0019b	8d 85 88 fd ff
	ff		 lea	 eax, DWORD PTR _szDescribeString$8[ebp]
  001a1	50		 push	 eax
  001a2	e8 00 00 00 00	 call	 ?AfxMessageBox@@YGHPBDII@Z ; AfxMessageBox

; 503  : 
; 504  : 			return false;

  001a7	c6 85 fe fc ff
	ff 00		 mov	 BYTE PTR $T4[ebp], 0
  001ae	c6 45 fc 00	 mov	 BYTE PTR __$EHRec$[ebp+12], 0
  001b2	8d 8d 08 fe ff
	ff		 lea	 ecx, DWORD PTR _PlatformDBModule$[ebp]
  001b8	e8 00 00 00 00	 call	 ??1CDataBaseHelper@@UAE@XZ
  001bd	c7 45 fc ff ff
	ff ff		 mov	 DWORD PTR __$EHRec$[ebp+12], -1
  001c4	8d 4d e0	 lea	 ecx, DWORD PTR _PlatformDBAide$[ebp]
  001c7	ff 15 00 00 00
	00		 call	 DWORD PTR __imp_??1CDataBaseAide@@UAE@XZ
  001cd	8a 85 fe fc ff
	ff		 mov	 al, BYTE PTR $T4[ebp]
  001d3	e9 ab 00 00 00	 jmp	 $LN1@DeleteGame
$LN4@DeleteGame:

; 505  : 		}
; 506  : 
; 507  : 		return true;

  001d8	c6 85 fd fc ff
	ff 01		 mov	 BYTE PTR $T3[ebp], 1
  001df	c6 45 fc 00	 mov	 BYTE PTR __$EHRec$[ebp+12], 0
  001e3	8d 8d 08 fe ff
	ff		 lea	 ecx, DWORD PTR _PlatformDBModule$[ebp]
  001e9	e8 00 00 00 00	 call	 ??1CDataBaseHelper@@UAE@XZ
  001ee	c7 45 fc ff ff
	ff ff		 mov	 DWORD PTR __$EHRec$[ebp+12], -1
  001f5	8d 4d e0	 lea	 ecx, DWORD PTR _PlatformDBAide$[ebp]
  001f8	ff 15 00 00 00
	00		 call	 DWORD PTR __imp_??1CDataBaseAide@@UAE@XZ
  001fe	8a 85 fd fc ff
	ff		 mov	 al, BYTE PTR $T3[ebp]
  00204	eb 7d		 jmp	 SHORT $LN1@DeleteGame
__catch$?DeleteGameServer@CServerInfoManager@@QAE_NG@Z$0:

; 508  : 	}
; 509  : 	catch (IDataBaseException * pIException)
; 510  : 	{
; 511  : 		//错误信息
; 512  : 		LPCTSTR pszDescribe=pIException->GetExceptionDescribe();

  00206	8b 85 84 fd ff
	ff		 mov	 eax, DWORD PTR _pIException$7[ebp]
  0020c	8b 10		 mov	 edx, DWORD PTR [eax]
  0020e	8b 8d 84 fd ff
	ff		 mov	 ecx, DWORD PTR _pIException$7[ebp]
  00214	8b 42 0c	 mov	 eax, DWORD PTR [edx+12]
  00217	ff d0		 call	 eax
  00219	89 85 80 fd ff
	ff		 mov	 DWORD PTR _pszDescribe$6[ebp], eax

; 513  : 		CTraceService::TraceString(pszDescribe,TraceLevel_Exception);

  0021f	6a 03		 push	 3
  00221	8b 85 80 fd ff
	ff		 mov	 eax, DWORD PTR _pszDescribe$6[ebp]
  00227	50		 push	 eax
  00228	ff 15 00 00 00
	00		 call	 DWORD PTR __imp_?TraceString@CTraceService@@SA_NPBDW4enTraceLevel@@@Z
  0022e	83 c4 08	 add	 esp, 8

; 514  : 
; 515  : 		//错误提示
; 516  : 		AfxMessageBox(pszDescribe,MB_ICONERROR);

  00231	6a 00		 push	 0
  00233	6a 10		 push	 16			; 00000010H
  00235	8b 85 80 fd ff
	ff		 mov	 eax, DWORD PTR _pszDescribe$6[ebp]
  0023b	50		 push	 eax
  0023c	e8 00 00 00 00	 call	 ?AfxMessageBox@@YGHPBDII@Z ; AfxMessageBox

; 517  : 	}

  00241	b8 00 00 00 00	 mov	 eax, $LN12@DeleteGame
  00246	c3		 ret	 0
  00247	c7 45 fc 01 00
	00 00		 mov	 DWORD PTR __$EHRec$[ebp+12], 1
  0024e	eb 07		 jmp	 SHORT __tryend$?DeleteGameServer@CServerInfoManager@@QAE_NG@Z$1
$LN12@DeleteGame:
  00250	c7 45 fc 01 00
	00 00		 mov	 DWORD PTR __$EHRec$[ebp+12], 1
__tryend$?DeleteGameServer@CServerInfoManager@@QAE_NG@Z$1:

; 518  : 
; 519  : 	return false;

  00257	c6 85 fc fc ff
	ff 00		 mov	 BYTE PTR $T2[ebp], 0
  0025e	c6 45 fc 00	 mov	 BYTE PTR __$EHRec$[ebp+12], 0
  00262	8d 8d 08 fe ff
	ff		 lea	 ecx, DWORD PTR _PlatformDBModule$[ebp]
  00268	e8 00 00 00 00	 call	 ??1CDataBaseHelper@@UAE@XZ
  0026d	c7 45 fc ff ff
	ff ff		 mov	 DWORD PTR __$EHRec$[ebp+12], -1
  00274	8d 4d e0	 lea	 ecx, DWORD PTR _PlatformDBAide$[ebp]
  00277	ff 15 00 00 00
	00		 call	 DWORD PTR __imp_??1CDataBaseAide@@UAE@XZ
  0027d	8a 85 fc fc ff
	ff		 mov	 al, BYTE PTR $T2[ebp]
$LN1@DeleteGame:

; 520  : }

  00283	8b 4d f4	 mov	 ecx, DWORD PTR __$EHRec$[ebp+4]
  00286	64 89 0d 00 00
	00 00		 mov	 DWORD PTR fs:0, ecx
  0028d	59		 pop	 ecx
  0028e	5f		 pop	 edi
  0028f	5e		 pop	 esi
  00290	5b		 pop	 ebx
  00291	8b 4d ec	 mov	 ecx, DWORD PTR __$ArrayPad$[ebp]
  00294	33 cd		 xor	 ecx, ebp
  00296	e8 00 00 00 00	 call	 @__security_check_cookie@4
  0029b	8b e5		 mov	 esp, ebp
  0029d	5d		 pop	 ebp
  0029e	c2 04 00	 ret	 4
_TEXT	ENDS
;	COMDAT text$x
text$x	SEGMENT
__unwindfunclet$?DeleteGameServer@CServerInfoManager@@QAE_NG@Z$2:
  00000	8d 4d e0	 lea	 ecx, DWORD PTR _PlatformDBAide$[ebp]
  00003	ff 25 00 00 00
	00		 jmp	 DWORD PTR __imp_??1CDataBaseAide@@UAE@XZ
__unwindfunclet$?DeleteGameServer@CServerInfoManager@@QAE_NG@Z$3:
  00009	8d 8d 08 fe ff
	ff		 lea	 ecx, DWORD PTR _PlatformDBModule$[ebp]
  0000f	e9 00 00 00 00	 jmp	 ??1CDataBaseHelper@@UAE@XZ
__ehhandler$?DeleteGameServer@CServerInfoManager@@QAE_NG@Z:
  00014	8b 54 24 08	 mov	 edx, DWORD PTR [esp+8]
  00018	8d 42 0c	 lea	 eax, DWORD PTR [edx+12]
  0001b	8b 8a f4 fc ff
	ff		 mov	 ecx, DWORD PTR [edx-780]
  00021	33 c8		 xor	 ecx, eax
  00023	e8 00 00 00 00	 call	 @__security_check_cookie@4
  00028	8b 4a f8	 mov	 ecx, DWORD PTR [edx-8]
  0002b	33 c8		 xor	 ecx, eax
  0002d	e8 00 00 00 00	 call	 @__security_check_cookie@4
  00032	b8 00 00 00 00	 mov	 eax, OFFSET __ehfuncinfo$?DeleteGameServer@CServerInfoManager@@QAE_NG@Z
  00037	e9 00 00 00 00	 jmp	 ___CxxFrameHandler3
text$x	ENDS
?DeleteGameServer@CServerInfoManager@@QAE_NG@Z ENDP	; CServerInfoManager::DeleteGameServer
; Function compile flags: /Odtp /ZI
; File g:\网狐\happygamewh\服务端\系统模块\服务器组件\模块管理\serverinfomanager.cpp
;	COMDAT ?LoadGameServerInfo@CServerInfoManager@@QAE_NQADGAAUtagGameServerInfo@@@Z
_TEXT	SEGMENT
tv206 = -785						; size = 1
tv170 = -784						; size = 4
tv205 = -780						; size = 4
tv204 = -780						; size = 4
tv203 = -780						; size = 4
tv65 = -780						; size = 4
tv69 = -775						; size = 1
$T2 = -774						; size = 1
$T3 = -773						; size = 1
$T4 = -772						; size = 1
$T5 = -771						; size = 1
$T6 = -770						; size = 1
$T7 = -769						; size = 1
_pszDescribe$8 = -640					; size = 4
_pIException$9 = -636					; size = 4
_szDescribeString$10 = -632				; size = 128
_PlatformDBModule$ = -504				; size = 472
_PlatformDBAide$ = -32					; size = 8
_this$ = -24						; size = 4
__$ArrayPad$ = -20					; size = 4
__$EHRec$ = -16						; size = 16
_szMachineID$ = 8					; size = 4
_wServerID$ = 12					; size = 2
_GameServerResult$ = 16					; size = 4
?LoadGameServerInfo@CServerInfoManager@@QAE_NQADGAAUtagGameServerInfo@@@Z PROC ; CServerInfoManager::LoadGameServerInfo, COMDAT
; _this$ = ecx

; 398  : {

  00000	55		 push	 ebp
  00001	8b ec		 mov	 ebp, esp
  00003	6a ff		 push	 -1
  00005	68 00 00 00 00	 push	 __ehhandler$?LoadGameServerInfo@CServerInfoManager@@QAE_NQADGAAUtagGameServerInfo@@@Z
  0000a	64 a1 00 00 00
	00		 mov	 eax, DWORD PTR fs:0
  00010	50		 push	 eax
  00011	51		 push	 ecx
  00012	81 ec 04 03 00
	00		 sub	 esp, 772		; 00000304H
  00018	a1 00 00 00 00	 mov	 eax, DWORD PTR ___security_cookie
  0001d	33 c5		 xor	 eax, ebp
  0001f	89 45 ec	 mov	 DWORD PTR __$ArrayPad$[ebp], eax
  00022	53		 push	 ebx
  00023	56		 push	 esi
  00024	57		 push	 edi
  00025	50		 push	 eax
  00026	8d 45 f4	 lea	 eax, DWORD PTR __$EHRec$[ebp+4]
  00029	64 a3 00 00 00
	00		 mov	 DWORD PTR fs:0, eax
  0002f	89 65 f0	 mov	 DWORD PTR __$EHRec$[ebp], esp
  00032	89 4d e8	 mov	 DWORD PTR _this$[ebp], ecx

; 399  : 	//变量定义
; 400  : 	CDataBaseAide PlatformDBAide;

  00035	6a 00		 push	 0
  00037	8d 4d e0	 lea	 ecx, DWORD PTR _PlatformDBAide$[ebp]
  0003a	ff 15 00 00 00
	00		 call	 DWORD PTR __imp_??0CDataBaseAide@@QAE@PAUIUnknownEx@@@Z
  00040	c7 45 fc 00 00
	00 00		 mov	 DWORD PTR __$EHRec$[ebp+12], 0

; 401  : 	CDataBaseHelper PlatformDBModule;

  00047	8d 8d 08 fe ff
	ff		 lea	 ecx, DWORD PTR _PlatformDBModule$[ebp]
  0004d	e8 00 00 00 00	 call	 ??0CDataBaseHelper@@QAE@XZ ; CDataBaseHelper::CDataBaseHelper
  00052	c6 45 fc 01	 mov	 BYTE PTR __$EHRec$[ebp+12], 1

; 402  : 
; 403  : 	//执行逻辑
; 404  : 	try

  00056	c6 45 fc 02	 mov	 BYTE PTR __$EHRec$[ebp+12], 2

; 405  : 	{
; 406  : 		//连接数据库
; 407  : 		if (ConnectPlatformDB(PlatformDBModule)==false)

  0005a	8d 85 08 fe ff
	ff		 lea	 eax, DWORD PTR _PlatformDBModule$[ebp]
  00060	50		 push	 eax
  00061	8b 4d e8	 mov	 ecx, DWORD PTR _this$[ebp]
  00064	e8 00 00 00 00	 call	 ?ConnectPlatformDB@CServerInfoManager@@AAE_NAAVCDataBaseHelper@@@Z ; CServerInfoManager::ConnectPlatformDB
  00069	88 85 f9 fc ff
	ff		 mov	 BYTE PTR tv69[ebp], al
  0006f	0f b6 8d f9 fc
	ff ff		 movzx	 ecx, BYTE PTR tv69[ebp]
  00076	85 c9		 test	 ecx, ecx
  00078	75 59		 jne	 SHORT $LN3@LoadGameSe

; 408  : 		{
; 409  : 			ASSERT(FALSE);

  0007a	33 c0		 xor	 eax, eax
  0007c	75 24		 jne	 SHORT $LN7@LoadGameSe
  0007e	8b 0d 00 00 00
	00		 mov	 ecx, DWORD PTR ?__LINE__Var@?0??LoadGameServerInfo@CServerInfoManager@@QAE_NQADGAAUtagGameServerInfo@@@Z@4JA
  00084	83 c1 0b	 add	 ecx, 11			; 0000000bH
  00087	51		 push	 ecx
  00088	68 00 00 00 00	 push	 OFFSET ??_C@_0EO@GNEBGAKM@g?3?2?M?x?$LK?$PM?2happygamewh?2?$LH?$PO?N?q?$LG?K?2?O?$LF?M?$LD@
  0008d	e8 00 00 00 00	 call	 ?AfxAssertFailedLine@@YGHPBDH@Z ; AfxAssertFailedLine
  00092	89 85 f4 fc ff
	ff		 mov	 DWORD PTR tv65[ebp], eax
  00098	83 bd f4 fc ff
	ff 00		 cmp	 DWORD PTR tv65[ebp], 0
  0009f	74 01		 je	 SHORT $LN7@LoadGameSe
  000a1	cc		 int	 3
$LN7@LoadGameSe:

; 410  : 			return false;

  000a2	c6 85 ff fc ff
	ff 00		 mov	 BYTE PTR $T7[ebp], 0
  000a9	c6 45 fc 00	 mov	 BYTE PTR __$EHRec$[ebp+12], 0
  000ad	8d 8d 08 fe ff
	ff		 lea	 ecx, DWORD PTR _PlatformDBModule$[ebp]
  000b3	e8 00 00 00 00	 call	 ??1CDataBaseHelper@@UAE@XZ
  000b8	c7 45 fc ff ff
	ff ff		 mov	 DWORD PTR __$EHRec$[ebp+12], -1
  000bf	8d 4d e0	 lea	 ecx, DWORD PTR _PlatformDBAide$[ebp]
  000c2	ff 15 00 00 00
	00		 call	 DWORD PTR __imp_??1CDataBaseAide@@UAE@XZ
  000c8	8a 85 ff fc ff
	ff		 mov	 al, BYTE PTR $T7[ebp]
  000ce	e9 79 02 00 00	 jmp	 $LN1@LoadGameSe
$LN3@LoadGameSe:

; 411  : 		}
; 412  : 
; 413  : 		//设置对象
; 414  : 		PlatformDBAide.SetDataBase(PlatformDBModule.GetInterface());

  000d3	8d 8d 08 fe ff
	ff		 lea	 ecx, DWORD PTR _PlatformDBModule$[ebp]
  000d9	e8 00 00 00 00	 call	 ?GetInterface@?$CTempldateHelper@UIDataBase@@@@QBEPAUIDataBase@@XZ ; CTempldateHelper<IDataBase>::GetInterface
  000de	89 85 f4 fc ff
	ff		 mov	 DWORD PTR tv203[ebp], eax
  000e4	8b 85 f4 fc ff
	ff		 mov	 eax, DWORD PTR tv203[ebp]
  000ea	50		 push	 eax
  000eb	8d 4d e0	 lea	 ecx, DWORD PTR _PlatformDBAide$[ebp]
  000ee	ff 15 00 00 00
	00		 call	 DWORD PTR __imp_?SetDataBase@CDataBaseAide@@QAE_NPAUIUnknownEx@@@Z

; 415  : 
; 416  : 		//读取列表
; 417  : 		PlatformDBAide.ResetParameter();

  000f4	8d 4d e0	 lea	 ecx, DWORD PTR _PlatformDBAide$[ebp]
  000f7	ff 15 00 00 00
	00		 call	 DWORD PTR __imp_?ResetParameter@CDataBaseAide@@QAEXXZ

; 418  : 		PlatformDBAide.AddParameter(TEXT("@wServerID"),wServerID);

  000fd	6a 01		 push	 1
  000ff	0f b7 45 0c	 movzx	 eax, WORD PTR _wServerID$[ebp]
  00103	50		 push	 eax
  00104	68 00 00 00 00	 push	 OFFSET ??_C@_0L@FIEHJJML@?$EAwServerID@
  00109	8d 4d e0	 lea	 ecx, DWORD PTR _PlatformDBAide$[ebp]
  0010c	ff 15 00 00 00
	00		 call	 DWORD PTR __imp_?AddParameter@CDataBaseAide@@QAEXPBDGW4ParameterDirectionEnum@ADOCG@@@Z

; 419  : 		PlatformDBAide.AddParameter(TEXT("@strServiceMachine"),szMachineID);

  00112	6a 01		 push	 1
  00114	8b 45 08	 mov	 eax, DWORD PTR _szMachineID$[ebp]
  00117	50		 push	 eax
  00118	68 00 00 00 00	 push	 OFFSET ??_C@_0BD@CBAFKNPB@?$EAstrServiceMachine@
  0011d	8d 4d e0	 lea	 ecx, DWORD PTR _PlatformDBAide$[ebp]
  00120	ff 15 00 00 00
	00		 call	 DWORD PTR __imp_?AddParameter@CDataBaseAide@@QAEXPBD0W4ParameterDirectionEnum@ADOCG@@@Z

; 420  : 
; 421  : 		//输出信息
; 422  : 		TCHAR szDescribeString[128]=TEXT("");

  00126	a0 00 00 00 00	 mov	 al, BYTE PTR ??_C@_00CNPNBAHC@@
  0012b	88 85 88 fd ff
	ff		 mov	 BYTE PTR _szDescribeString$10[ebp], al
  00131	6a 7f		 push	 127			; 0000007fH
  00133	6a 00		 push	 0
  00135	8d 85 89 fd ff
	ff		 lea	 eax, DWORD PTR _szDescribeString$10[ebp+1]
  0013b	50		 push	 eax
  0013c	e8 00 00 00 00	 call	 _memset
  00141	83 c4 0c	 add	 esp, 12			; 0000000cH

; 423  : 		PlatformDBAide.AddParameterOutput(TEXT("@strErrorDescribe"),szDescribeString,sizeof(szDescribeString),adParamOutput);

  00144	6a 02		 push	 2
  00146	68 80 00 00 00	 push	 128			; 00000080H
  0014b	8d 85 88 fd ff
	ff		 lea	 eax, DWORD PTR _szDescribeString$10[ebp]
  00151	50		 push	 eax
  00152	68 00 00 00 00	 push	 OFFSET ??_C@_0BC@IIOJPJPJ@?$EAstrErrorDescribe@
  00157	8d 4d e0	 lea	 ecx, DWORD PTR _PlatformDBAide$[ebp]
  0015a	ff 15 00 00 00
	00		 call	 DWORD PTR __imp_?AddParameterOutput@CDataBaseAide@@QAEXPBDPADIW4ParameterDirectionEnum@ADOCG@@@Z

; 424  : 
; 425  : 		//读取列表
; 426  : 		if (PlatformDBAide.ExecuteProcess(TEXT("GSP_GS_LoadGameRoomItem"),true)!=DB_SUCCESS)

  00160	6a 01		 push	 1
  00162	68 00 00 00 00	 push	 OFFSET ??_C@_0BI@JPDDAIPE@GSP_GS_LoadGameRoomItem@
  00167	8d 4d e0	 lea	 ecx, DWORD PTR _PlatformDBAide$[ebp]
  0016a	ff 15 00 00 00
	00		 call	 DWORD PTR __imp_?ExecuteProcess@CDataBaseAide@@QAEJPBD_N@Z
  00170	89 85 f4 fc ff
	ff		 mov	 DWORD PTR tv204[ebp], eax
  00176	83 bd f4 fc ff
	ff 00		 cmp	 DWORD PTR tv204[ebp], 0
  0017d	74 6d		 je	 SHORT $LN4@LoadGameSe

; 427  : 		{
; 428  : 			//获取信息
; 429  : 			PlatformDBAide.GetParameter(TEXT("@strErrorDescribe"),szDescribeString,CountArray(szDescribeString));

  0017f	68 80 00 00 00	 push	 128			; 00000080H
  00184	8d 85 88 fd ff
	ff		 lea	 eax, DWORD PTR _szDescribeString$10[ebp]
  0018a	50		 push	 eax
  0018b	68 00 00 00 00	 push	 OFFSET ??_C@_0BC@IIOJPJPJ@?$EAstrErrorDescribe@
  00190	8d 4d e0	 lea	 ecx, DWORD PTR _PlatformDBAide$[ebp]
  00193	ff 15 00 00 00
	00		 call	 DWORD PTR __imp_?GetParameter@CDataBaseAide@@QAEXPBDPADI@Z

; 430  : 
; 431  : 			//错误提示
; 432  : 			CTraceService::TraceString(szDescribeString,TraceLevel_Exception);

  00199	6a 03		 push	 3
  0019b	8d 85 88 fd ff
	ff		 lea	 eax, DWORD PTR _szDescribeString$10[ebp]
  001a1	50		 push	 eax
  001a2	ff 15 00 00 00
	00		 call	 DWORD PTR __imp_?TraceString@CTraceService@@SA_NPBDW4enTraceLevel@@@Z
  001a8	83 c4 08	 add	 esp, 8

; 433  : 
; 434  : 			//错误提示
; 435  : 			AfxMessageBox(szDescribeString,MB_ICONERROR);

  001ab	6a 00		 push	 0
  001ad	6a 10		 push	 16			; 00000010H
  001af	8d 85 88 fd ff
	ff		 lea	 eax, DWORD PTR _szDescribeString$10[ebp]
  001b5	50		 push	 eax
  001b6	e8 00 00 00 00	 call	 ?AfxMessageBox@@YGHPBDII@Z ; AfxMessageBox

; 436  : 
; 437  : 			return false;

  001bb	c6 85 fe fc ff
	ff 00		 mov	 BYTE PTR $T6[ebp], 0
  001c2	c6 45 fc 00	 mov	 BYTE PTR __$EHRec$[ebp+12], 0
  001c6	8d 8d 08 fe ff
	ff		 lea	 ecx, DWORD PTR _PlatformDBModule$[ebp]
  001cc	e8 00 00 00 00	 call	 ??1CDataBaseHelper@@UAE@XZ
  001d1	c7 45 fc ff ff
	ff ff		 mov	 DWORD PTR __$EHRec$[ebp+12], -1
  001d8	8d 4d e0	 lea	 ecx, DWORD PTR _PlatformDBAide$[ebp]
  001db	ff 15 00 00 00
	00		 call	 DWORD PTR __imp_??1CDataBaseAide@@UAE@XZ
  001e1	8a 85 fe fc ff
	ff		 mov	 al, BYTE PTR $T6[ebp]
  001e7	e9 60 01 00 00	 jmp	 $LN1@LoadGameSe
$LN4@LoadGameSe:

; 438  : 		}
; 439  : 
; 440  : 		//读取数据
; 441  : 		if (PlatformDBModule->IsRecordsetEnd()==false)

  001ec	8d 8d 08 fe ff
	ff		 lea	 ecx, DWORD PTR _PlatformDBModule$[ebp]
  001f2	e8 00 00 00 00	 call	 ??C?$CTempldateHelper@UIDataBase@@@@QBEPAUIDataBase@@XZ ; CTempldateHelper<IDataBase>::operator->
  001f7	89 85 f4 fc ff
	ff		 mov	 DWORD PTR tv205[ebp], eax
  001fd	8b 85 f4 fc ff
	ff		 mov	 eax, DWORD PTR tv205[ebp]
  00203	89 85 f0 fc ff
	ff		 mov	 DWORD PTR tv170[ebp], eax
  00209	8b 8d f0 fc ff
	ff		 mov	 ecx, DWORD PTR tv170[ebp]
  0020f	8b 11		 mov	 edx, DWORD PTR [ecx]
  00211	8b 8d f0 fc ff
	ff		 mov	 ecx, DWORD PTR tv170[ebp]
  00217	8b 42 38	 mov	 eax, DWORD PTR [edx+56]
  0021a	ff d0		 call	 eax
  0021c	88 85 ef fc ff
	ff		 mov	 BYTE PTR tv206[ebp], al
  00222	0f b6 8d ef fc
	ff ff		 movzx	 ecx, BYTE PTR tv206[ebp]
  00229	85 c9		 test	 ecx, ecx
  0022b	75 41		 jne	 SHORT $LN5@LoadGameSe

; 442  : 		{
; 443  : 			ReadGameServerInfo(PlatformDBAide,GameServerResult);

  0022d	8b 45 10	 mov	 eax, DWORD PTR _GameServerResult$[ebp]
  00230	50		 push	 eax
  00231	8d 4d e0	 lea	 ecx, DWORD PTR _PlatformDBAide$[ebp]
  00234	51		 push	 ecx
  00235	8b 4d e8	 mov	 ecx, DWORD PTR _this$[ebp]
  00238	e8 00 00 00 00	 call	 ?ReadGameServerInfo@CServerInfoManager@@AAE_NAAVCDataBaseAide@@AAUtagGameServerInfo@@@Z ; CServerInfoManager::ReadGameServerInfo

; 444  : 			return true;

  0023d	c6 85 fd fc ff
	ff 01		 mov	 BYTE PTR $T5[ebp], 1
  00244	c6 45 fc 00	 mov	 BYTE PTR __$EHRec$[ebp+12], 0
  00248	8d 8d 08 fe ff
	ff		 lea	 ecx, DWORD PTR _PlatformDBModule$[ebp]
  0024e	e8 00 00 00 00	 call	 ??1CDataBaseHelper@@UAE@XZ
  00253	c7 45 fc ff ff
	ff ff		 mov	 DWORD PTR __$EHRec$[ebp+12], -1
  0025a	8d 4d e0	 lea	 ecx, DWORD PTR _PlatformDBAide$[ebp]
  0025d	ff 15 00 00 00
	00		 call	 DWORD PTR __imp_??1CDataBaseAide@@UAE@XZ
  00263	8a 85 fd fc ff
	ff		 mov	 al, BYTE PTR $T5[ebp]
  00269	e9 de 00 00 00	 jmp	 $LN1@LoadGameSe
$LN5@LoadGameSe:

; 445  : 		}
; 446  : 
; 447  : 		return false;

  0026e	c6 85 fc fc ff
	ff 00		 mov	 BYTE PTR $T4[ebp], 0
  00275	c6 45 fc 00	 mov	 BYTE PTR __$EHRec$[ebp+12], 0
  00279	8d 8d 08 fe ff
	ff		 lea	 ecx, DWORD PTR _PlatformDBModule$[ebp]
  0027f	e8 00 00 00 00	 call	 ??1CDataBaseHelper@@UAE@XZ
  00284	c7 45 fc ff ff
	ff ff		 mov	 DWORD PTR __$EHRec$[ebp+12], -1
  0028b	8d 4d e0	 lea	 ecx, DWORD PTR _PlatformDBAide$[ebp]
  0028e	ff 15 00 00 00
	00		 call	 DWORD PTR __imp_??1CDataBaseAide@@UAE@XZ
  00294	8a 85 fc fc ff
	ff		 mov	 al, BYTE PTR $T4[ebp]
  0029a	e9 ad 00 00 00	 jmp	 $LN1@LoadGameSe
__catch$?LoadGameServerInfo@CServerInfoManager@@QAE_NQADGAAUtagGameServerInfo@@@Z$0:

; 448  : 	}
; 449  : 	catch (IDataBaseException * pIException)
; 450  : 	{
; 451  : 		//错误信息
; 452  : 		LPCTSTR pszDescribe=pIException->GetExceptionDescribe();

  0029f	8b 85 84 fd ff
	ff		 mov	 eax, DWORD PTR _pIException$9[ebp]
  002a5	8b 10		 mov	 edx, DWORD PTR [eax]
  002a7	8b 8d 84 fd ff
	ff		 mov	 ecx, DWORD PTR _pIException$9[ebp]
  002ad	8b 42 0c	 mov	 eax, DWORD PTR [edx+12]
  002b0	ff d0		 call	 eax
  002b2	89 85 80 fd ff
	ff		 mov	 DWORD PTR _pszDescribe$8[ebp], eax

; 453  : 		CTraceService::TraceString(pszDescribe,TraceLevel_Exception);

  002b8	6a 03		 push	 3
  002ba	8b 85 80 fd ff
	ff		 mov	 eax, DWORD PTR _pszDescribe$8[ebp]
  002c0	50		 push	 eax
  002c1	ff 15 00 00 00
	00		 call	 DWORD PTR __imp_?TraceString@CTraceService@@SA_NPBDW4enTraceLevel@@@Z
  002c7	83 c4 08	 add	 esp, 8

; 454  : 
; 455  : 		//错误提示
; 456  : 		AfxMessageBox(pszDescribe,MB_ICONERROR);

  002ca	6a 00		 push	 0
  002cc	6a 10		 push	 16			; 00000010H
  002ce	8b 85 80 fd ff
	ff		 mov	 eax, DWORD PTR _pszDescribe$8[ebp]
  002d4	50		 push	 eax
  002d5	e8 00 00 00 00	 call	 ?AfxMessageBox@@YGHPBDII@Z ; AfxMessageBox

; 457  : 
; 458  : 		return false;

  002da	c6 85 fb fc ff
	ff 00		 mov	 BYTE PTR $T3[ebp], 0
  002e1	b8 00 00 00 00	 mov	 eax, $LN13@LoadGameSe
  002e6	c3		 ret	 0

; 459  : 	}

  002e7	b8 00 00 00 00	 mov	 eax, __tryend$?LoadGameServerInfo@CServerInfoManager@@QAE_NQADGAAUtagGameServerInfo@@@Z$1
  002ec	c3		 ret	 0
__tryend$?LoadGameServerInfo@CServerInfoManager@@QAE_NQADGAAUtagGameServerInfo@@@Z$1:
  002ed	c7 45 fc 01 00
	00 00		 mov	 DWORD PTR __$EHRec$[ebp+12], 1
  002f4	eb 2a		 jmp	 SHORT $LN12@LoadGameSe
$LN13@LoadGameSe:

; 457  : 
; 458  : 		return false;

  002f6	c7 45 fc 00 00
	00 00		 mov	 DWORD PTR __$EHRec$[ebp+12], 0
  002fd	8d 8d 08 fe ff
	ff		 lea	 ecx, DWORD PTR _PlatformDBModule$[ebp]
  00303	e8 00 00 00 00	 call	 ??1CDataBaseHelper@@UAE@XZ
  00308	c7 45 fc ff ff
	ff ff		 mov	 DWORD PTR __$EHRec$[ebp+12], -1
  0030f	8d 4d e0	 lea	 ecx, DWORD PTR _PlatformDBAide$[ebp]
  00312	ff 15 00 00 00
	00		 call	 DWORD PTR __imp_??1CDataBaseAide@@UAE@XZ
  00318	8a 85 fb fc ff
	ff		 mov	 al, BYTE PTR $T3[ebp]
  0031e	eb 2c		 jmp	 SHORT $LN1@LoadGameSe
$LN12@LoadGameSe:

; 460  : 
; 461  : 	return false;

  00320	c6 85 fa fc ff
	ff 00		 mov	 BYTE PTR $T2[ebp], 0
  00327	c6 45 fc 00	 mov	 BYTE PTR __$EHRec$[ebp+12], 0
  0032b	8d 8d 08 fe ff
	ff		 lea	 ecx, DWORD PTR _PlatformDBModule$[ebp]
  00331	e8 00 00 00 00	 call	 ??1CDataBaseHelper@@UAE@XZ
  00336	c7 45 fc ff ff
	ff ff		 mov	 DWORD PTR __$EHRec$[ebp+12], -1
  0033d	8d 4d e0	 lea	 ecx, DWORD PTR _PlatformDBAide$[ebp]
  00340	ff 15 00 00 00
	00		 call	 DWORD PTR __imp_??1CDataBaseAide@@UAE@XZ
  00346	8a 85 fa fc ff
	ff		 mov	 al, BYTE PTR $T2[ebp]
$LN1@LoadGameSe:

; 462  : }

  0034c	8b 4d f4	 mov	 ecx, DWORD PTR __$EHRec$[ebp+4]
  0034f	64 89 0d 00 00
	00 00		 mov	 DWORD PTR fs:0, ecx
  00356	59		 pop	 ecx
  00357	5f		 pop	 edi
  00358	5e		 pop	 esi
  00359	5b		 pop	 ebx
  0035a	8b 4d ec	 mov	 ecx, DWORD PTR __$ArrayPad$[ebp]
  0035d	33 cd		 xor	 ecx, ebp
  0035f	e8 00 00 00 00	 call	 @__security_check_cookie@4
  00364	8b e5		 mov	 esp, ebp
  00366	5d		 pop	 ebp
  00367	c2 0c 00	 ret	 12			; 0000000cH
_TEXT	ENDS
;	COMDAT text$x
text$x	SEGMENT
__unwindfunclet$?LoadGameServerInfo@CServerInfoManager@@QAE_NQADGAAUtagGameServerInfo@@@Z$2:
  00000	8d 4d e0	 lea	 ecx, DWORD PTR _PlatformDBAide$[ebp]
  00003	ff 25 00 00 00
	00		 jmp	 DWORD PTR __imp_??1CDataBaseAide@@UAE@XZ
__unwindfunclet$?LoadGameServerInfo@CServerInfoManager@@QAE_NQADGAAUtagGameServerInfo@@@Z$3:
  00009	8d 8d 08 fe ff
	ff		 lea	 ecx, DWORD PTR _PlatformDBModule$[ebp]
  0000f	e9 00 00 00 00	 jmp	 ??1CDataBaseHelper@@UAE@XZ
__ehhandler$?LoadGameServerInfo@CServerInfoManager@@QAE_NQADGAAUtagGameServerInfo@@@Z:
  00014	8b 54 24 08	 mov	 edx, DWORD PTR [esp+8]
  00018	8d 42 0c	 lea	 eax, DWORD PTR [edx+12]
  0001b	8b 8a e8 fc ff
	ff		 mov	 ecx, DWORD PTR [edx-792]
  00021	33 c8		 xor	 ecx, eax
  00023	e8 00 00 00 00	 call	 @__security_check_cookie@4
  00028	8b 4a f8	 mov	 ecx, DWORD PTR [edx-8]
  0002b	33 c8		 xor	 ecx, eax
  0002d	e8 00 00 00 00	 call	 @__security_check_cookie@4
  00032	b8 00 00 00 00	 mov	 eax, OFFSET __ehfuncinfo$?LoadGameServerInfo@CServerInfoManager@@QAE_NQADGAAUtagGameServerInfo@@@Z
  00037	e9 00 00 00 00	 jmp	 ___CxxFrameHandler3
text$x	ENDS
?LoadGameServerInfo@CServerInfoManager@@QAE_NQADGAAUtagGameServerInfo@@@Z ENDP ; CServerInfoManager::LoadGameServerInfo
; Function compile flags: /Odtp /ZI
; File g:\网狐\happygamewh\服务端\系统模块\服务器组件\模块管理\serverinfomanager.cpp
;	COMDAT ?LoadGameServerInfo@CServerInfoManager@@QAE_NQADAAVCServerInfoBuffer@@@Z
_TEXT	SEGMENT
tv217 = -3521						; size = 1
tv189 = -3520						; size = 4
tv171 = -3520						; size = 4
tv218 = -3516						; size = 4
tv216 = -3516						; size = 4
tv215 = -3516						; size = 4
tv214 = -3516						; size = 4
tv65 = -3516						; size = 4
tv69 = -3510						; size = 1
$T2 = -3509						; size = 1
$T3 = -3508						; size = 1
$T4 = -3507						; size = 1
$T5 = -3506						; size = 1
$T6 = -3505						; size = 1
_pszDescribe$7 = -3056					; size = 4
_pIException$8 = -3052					; size = 4
_GameServerResult$9 = -3048				; size = 2416
_szDescribeString$10 = -632				; size = 128
_PlatformDBModule$ = -504				; size = 472
_PlatformDBAide$ = -32					; size = 8
_this$ = -24						; size = 4
__$ArrayPad$ = -20					; size = 4
__$EHRec$ = -16						; size = 16
_szMachineID$ = 8					; size = 4
_ServerInfoBuffer$ = 12					; size = 4
?LoadGameServerInfo@CServerInfoManager@@QAE_NQADAAVCServerInfoBuffer@@@Z PROC ; CServerInfoManager::LoadGameServerInfo, COMDAT
; _this$ = ecx

; 320  : {

  00000	55		 push	 ebp
  00001	8b ec		 mov	 ebp, esp
  00003	6a ff		 push	 -1
  00005	68 00 00 00 00	 push	 __ehhandler$?LoadGameServerInfo@CServerInfoManager@@QAE_NQADAAVCServerInfoBuffer@@@Z
  0000a	64 a1 00 00 00
	00		 mov	 eax, DWORD PTR fs:0
  00010	50		 push	 eax
  00011	51		 push	 ecx
  00012	81 ec b4 0d 00
	00		 sub	 esp, 3508		; 00000db4H
  00018	a1 00 00 00 00	 mov	 eax, DWORD PTR ___security_cookie
  0001d	33 c5		 xor	 eax, ebp
  0001f	89 45 ec	 mov	 DWORD PTR __$ArrayPad$[ebp], eax
  00022	53		 push	 ebx
  00023	56		 push	 esi
  00024	57		 push	 edi
  00025	50		 push	 eax
  00026	8d 45 f4	 lea	 eax, DWORD PTR __$EHRec$[ebp+4]
  00029	64 a3 00 00 00
	00		 mov	 DWORD PTR fs:0, eax
  0002f	89 65 f0	 mov	 DWORD PTR __$EHRec$[ebp], esp
  00032	89 4d e8	 mov	 DWORD PTR _this$[ebp], ecx

; 321  : 	//变量定义
; 322  : 	CDataBaseAide PlatformDBAide;

  00035	6a 00		 push	 0
  00037	8d 4d e0	 lea	 ecx, DWORD PTR _PlatformDBAide$[ebp]
  0003a	ff 15 00 00 00
	00		 call	 DWORD PTR __imp_??0CDataBaseAide@@QAE@PAUIUnknownEx@@@Z
  00040	c7 45 fc 00 00
	00 00		 mov	 DWORD PTR __$EHRec$[ebp+12], 0

; 323  : 	CDataBaseHelper PlatformDBModule;

  00047	8d 8d 08 fe ff
	ff		 lea	 ecx, DWORD PTR _PlatformDBModule$[ebp]
  0004d	e8 00 00 00 00	 call	 ??0CDataBaseHelper@@QAE@XZ ; CDataBaseHelper::CDataBaseHelper
  00052	c6 45 fc 01	 mov	 BYTE PTR __$EHRec$[ebp+12], 1

; 324  : 
; 325  : 	//执行逻辑
; 326  : 	try

  00056	c6 45 fc 02	 mov	 BYTE PTR __$EHRec$[ebp+12], 2

; 327  : 	{
; 328  : 		//连接数据库
; 329  : 		if (ConnectPlatformDB(PlatformDBModule)==false)

  0005a	8d 85 08 fe ff
	ff		 lea	 eax, DWORD PTR _PlatformDBModule$[ebp]
  00060	50		 push	 eax
  00061	8b 4d e8	 mov	 ecx, DWORD PTR _this$[ebp]
  00064	e8 00 00 00 00	 call	 ?ConnectPlatformDB@CServerInfoManager@@AAE_NAAVCDataBaseHelper@@@Z ; CServerInfoManager::ConnectPlatformDB
  00069	88 85 4a f2 ff
	ff		 mov	 BYTE PTR tv69[ebp], al
  0006f	0f b6 8d 4a f2
	ff ff		 movzx	 ecx, BYTE PTR tv69[ebp]
  00076	85 c9		 test	 ecx, ecx
  00078	75 59		 jne	 SHORT $LN5@LoadGameSe

; 330  : 		{
; 331  : 			ASSERT(FALSE);

  0007a	33 c0		 xor	 eax, eax
  0007c	75 24		 jne	 SHORT $LN8@LoadGameSe
  0007e	8b 0d 00 00 00
	00		 mov	 ecx, DWORD PTR ?__LINE__Var@?0??LoadGameServerInfo@CServerInfoManager@@QAE_NQADAAVCServerInfoBuffer@@@Z@4JA
  00084	83 c1 0b	 add	 ecx, 11			; 0000000bH
  00087	51		 push	 ecx
  00088	68 00 00 00 00	 push	 OFFSET ??_C@_0EO@GNEBGAKM@g?3?2?M?x?$LK?$PM?2happygamewh?2?$LH?$PO?N?q?$LG?K?2?O?$LF?M?$LD@
  0008d	e8 00 00 00 00	 call	 ?AfxAssertFailedLine@@YGHPBDH@Z ; AfxAssertFailedLine
  00092	89 85 44 f2 ff
	ff		 mov	 DWORD PTR tv65[ebp], eax
  00098	83 bd 44 f2 ff
	ff 00		 cmp	 DWORD PTR tv65[ebp], 0
  0009f	74 01		 je	 SHORT $LN8@LoadGameSe
  000a1	cc		 int	 3
$LN8@LoadGameSe:

; 332  : 			return false;

  000a2	c6 85 4f f2 ff
	ff 00		 mov	 BYTE PTR $T6[ebp], 0
  000a9	c6 45 fc 00	 mov	 BYTE PTR __$EHRec$[ebp+12], 0
  000ad	8d 8d 08 fe ff
	ff		 lea	 ecx, DWORD PTR _PlatformDBModule$[ebp]
  000b3	e8 00 00 00 00	 call	 ??1CDataBaseHelper@@UAE@XZ
  000b8	c7 45 fc ff ff
	ff ff		 mov	 DWORD PTR __$EHRec$[ebp+12], -1
  000bf	8d 4d e0	 lea	 ecx, DWORD PTR _PlatformDBAide$[ebp]
  000c2	ff 15 00 00 00
	00		 call	 DWORD PTR __imp_??1CDataBaseAide@@UAE@XZ
  000c8	8a 85 4f f2 ff
	ff		 mov	 al, BYTE PTR $T6[ebp]
  000ce	e9 94 02 00 00	 jmp	 $LN1@LoadGameSe
$LN5@LoadGameSe:

; 333  : 		}
; 334  : 
; 335  : 		//设置对象
; 336  : 		PlatformDBAide.SetDataBase(PlatformDBModule.GetInterface());

  000d3	8d 8d 08 fe ff
	ff		 lea	 ecx, DWORD PTR _PlatformDBModule$[ebp]
  000d9	e8 00 00 00 00	 call	 ?GetInterface@?$CTempldateHelper@UIDataBase@@@@QBEPAUIDataBase@@XZ ; CTempldateHelper<IDataBase>::GetInterface
  000de	89 85 44 f2 ff
	ff		 mov	 DWORD PTR tv214[ebp], eax
  000e4	8b 85 44 f2 ff
	ff		 mov	 eax, DWORD PTR tv214[ebp]
  000ea	50		 push	 eax
  000eb	8d 4d e0	 lea	 ecx, DWORD PTR _PlatformDBAide$[ebp]
  000ee	ff 15 00 00 00
	00		 call	 DWORD PTR __imp_?SetDataBase@CDataBaseAide@@QAE_NPAUIUnknownEx@@@Z

; 337  : 
; 338  : 		//插入参数
; 339  : 		PlatformDBAide.ResetParameter();

  000f4	8d 4d e0	 lea	 ecx, DWORD PTR _PlatformDBAide$[ebp]
  000f7	ff 15 00 00 00
	00		 call	 DWORD PTR __imp_?ResetParameter@CDataBaseAide@@QAEXXZ

; 340  : 		PlatformDBAide.AddParameter(TEXT("@wServerID"),0);

  000fd	6a 01		 push	 1
  000ff	6a 00		 push	 0
  00101	68 00 00 00 00	 push	 OFFSET ??_C@_0L@FIEHJJML@?$EAwServerID@
  00106	8d 4d e0	 lea	 ecx, DWORD PTR _PlatformDBAide$[ebp]
  00109	ff 15 00 00 00
	00		 call	 DWORD PTR __imp_?AddParameter@CDataBaseAide@@QAEXPBDHW4ParameterDirectionEnum@ADOCG@@@Z

; 341  : 		PlatformDBAide.AddParameter(TEXT("@strServiceMachine"),szMachineID);

  0010f	6a 01		 push	 1
  00111	8b 45 08	 mov	 eax, DWORD PTR _szMachineID$[ebp]
  00114	50		 push	 eax
  00115	68 00 00 00 00	 push	 OFFSET ??_C@_0BD@CBAFKNPB@?$EAstrServiceMachine@
  0011a	8d 4d e0	 lea	 ecx, DWORD PTR _PlatformDBAide$[ebp]
  0011d	ff 15 00 00 00
	00		 call	 DWORD PTR __imp_?AddParameter@CDataBaseAide@@QAEXPBD0W4ParameterDirectionEnum@ADOCG@@@Z

; 342  : 
; 343  : 		//输出信息
; 344  : 		TCHAR szDescribeString[128]=TEXT("");

  00123	a0 00 00 00 00	 mov	 al, BYTE PTR ??_C@_00CNPNBAHC@@
  00128	88 85 88 fd ff
	ff		 mov	 BYTE PTR _szDescribeString$10[ebp], al
  0012e	6a 7f		 push	 127			; 0000007fH
  00130	6a 00		 push	 0
  00132	8d 85 89 fd ff
	ff		 lea	 eax, DWORD PTR _szDescribeString$10[ebp+1]
  00138	50		 push	 eax
  00139	e8 00 00 00 00	 call	 _memset
  0013e	83 c4 0c	 add	 esp, 12			; 0000000cH

; 345  : 		PlatformDBAide.AddParameterOutput(TEXT("@strErrorDescribe"),szDescribeString,sizeof(szDescribeString),adParamOutput);

  00141	6a 02		 push	 2
  00143	68 80 00 00 00	 push	 128			; 00000080H
  00148	8d 85 88 fd ff
	ff		 lea	 eax, DWORD PTR _szDescribeString$10[ebp]
  0014e	50		 push	 eax
  0014f	68 00 00 00 00	 push	 OFFSET ??_C@_0BC@IIOJPJPJ@?$EAstrErrorDescribe@
  00154	8d 4d e0	 lea	 ecx, DWORD PTR _PlatformDBAide$[ebp]
  00157	ff 15 00 00 00
	00		 call	 DWORD PTR __imp_?AddParameterOutput@CDataBaseAide@@QAEXPBDPADIW4ParameterDirectionEnum@ADOCG@@@Z

; 346  : 
; 347  : 		//读取列表
; 348  : 		if (PlatformDBAide.ExecuteProcess(TEXT("GSP_GS_LoadGameRoomItem"),true)!=DB_SUCCESS)

  0015d	6a 01		 push	 1
  0015f	68 00 00 00 00	 push	 OFFSET ??_C@_0BI@JPDDAIPE@GSP_GS_LoadGameRoomItem@
  00164	8d 4d e0	 lea	 ecx, DWORD PTR _PlatformDBAide$[ebp]
  00167	ff 15 00 00 00
	00		 call	 DWORD PTR __imp_?ExecuteProcess@CDataBaseAide@@QAEJPBD_N@Z
  0016d	89 85 44 f2 ff
	ff		 mov	 DWORD PTR tv215[ebp], eax
  00173	83 bd 44 f2 ff
	ff 00		 cmp	 DWORD PTR tv215[ebp], 0
  0017a	74 6d		 je	 SHORT $LN6@LoadGameSe

; 349  : 		{
; 350  : 			//获取信息
; 351  : 			PlatformDBAide.GetParameter(TEXT("@strErrorDescribe"),szDescribeString,CountArray(szDescribeString));

  0017c	68 80 00 00 00	 push	 128			; 00000080H
  00181	8d 85 88 fd ff
	ff		 lea	 eax, DWORD PTR _szDescribeString$10[ebp]
  00187	50		 push	 eax
  00188	68 00 00 00 00	 push	 OFFSET ??_C@_0BC@IIOJPJPJ@?$EAstrErrorDescribe@
  0018d	8d 4d e0	 lea	 ecx, DWORD PTR _PlatformDBAide$[ebp]
  00190	ff 15 00 00 00
	00		 call	 DWORD PTR __imp_?GetParameter@CDataBaseAide@@QAEXPBDPADI@Z

; 352  : 
; 353  : 			//错误提示
; 354  : 			CTraceService::TraceString(szDescribeString,TraceLevel_Exception);

  00196	6a 03		 push	 3
  00198	8d 85 88 fd ff
	ff		 lea	 eax, DWORD PTR _szDescribeString$10[ebp]
  0019e	50		 push	 eax
  0019f	ff 15 00 00 00
	00		 call	 DWORD PTR __imp_?TraceString@CTraceService@@SA_NPBDW4enTraceLevel@@@Z
  001a5	83 c4 08	 add	 esp, 8

; 355  : 
; 356  : 			//错误提示
; 357  : 			AfxMessageBox(szDescribeString,MB_ICONERROR);

  001a8	6a 00		 push	 0
  001aa	6a 10		 push	 16			; 00000010H
  001ac	8d 85 88 fd ff
	ff		 lea	 eax, DWORD PTR _szDescribeString$10[ebp]
  001b2	50		 push	 eax
  001b3	e8 00 00 00 00	 call	 ?AfxMessageBox@@YGHPBDII@Z ; AfxMessageBox

; 358  : 
; 359  : 			return false;

  001b8	c6 85 4e f2 ff
	ff 00		 mov	 BYTE PTR $T5[ebp], 0
  001bf	c6 45 fc 00	 mov	 BYTE PTR __$EHRec$[ebp+12], 0
  001c3	8d 8d 08 fe ff
	ff		 lea	 ecx, DWORD PTR _PlatformDBModule$[ebp]
  001c9	e8 00 00 00 00	 call	 ??1CDataBaseHelper@@UAE@XZ
  001ce	c7 45 fc ff ff
	ff ff		 mov	 DWORD PTR __$EHRec$[ebp+12], -1
  001d5	8d 4d e0	 lea	 ecx, DWORD PTR _PlatformDBAide$[ebp]
  001d8	ff 15 00 00 00
	00		 call	 DWORD PTR __imp_??1CDataBaseAide@@UAE@XZ
  001de	8a 85 4e f2 ff
	ff		 mov	 al, BYTE PTR $T5[ebp]
  001e4	e9 7e 01 00 00	 jmp	 $LN1@LoadGameSe
$LN6@LoadGameSe:

; 360  : 		}
; 361  : 
; 362  : 		//清空列表
; 363  : 		ServerInfoBuffer.ResetServerInfo();

  001e9	8b 4d 0c	 mov	 ecx, DWORD PTR _ServerInfoBuffer$[ebp]
  001ec	e8 00 00 00 00	 call	 ?ResetServerInfo@CServerInfoBuffer@@QAE_NXZ ; CServerInfoBuffer::ResetServerInfo
$LN2@LoadGameSe:

; 364  : 
; 365  : 		//读取列表
; 366  : 		while (PlatformDBModule->IsRecordsetEnd()==false)

  001f1	8d 8d 08 fe ff
	ff		 lea	 ecx, DWORD PTR _PlatformDBModule$[ebp]
  001f7	e8 00 00 00 00	 call	 ??C?$CTempldateHelper@UIDataBase@@@@QBEPAUIDataBase@@XZ ; CTempldateHelper<IDataBase>::operator->
  001fc	89 85 44 f2 ff
	ff		 mov	 DWORD PTR tv216[ebp], eax
  00202	8b 85 44 f2 ff
	ff		 mov	 eax, DWORD PTR tv216[ebp]
  00208	89 85 40 f2 ff
	ff		 mov	 DWORD PTR tv171[ebp], eax
  0020e	8b 8d 40 f2 ff
	ff		 mov	 ecx, DWORD PTR tv171[ebp]
  00214	8b 11		 mov	 edx, DWORD PTR [ecx]
  00216	8b 8d 40 f2 ff
	ff		 mov	 ecx, DWORD PTR tv171[ebp]
  0021c	8b 42 38	 mov	 eax, DWORD PTR [edx+56]
  0021f	ff d0		 call	 eax
  00221	88 85 3f f2 ff
	ff		 mov	 BYTE PTR tv217[ebp], al
  00227	0f b6 8d 3f f2
	ff ff		 movzx	 ecx, BYTE PTR tv217[ebp]
  0022e	85 c9		 test	 ecx, ecx
  00230	75 57		 jne	 SHORT $LN3@LoadGameSe

; 367  : 		{
; 368  : 			//读取数据
; 369  : 			tagGameServerInfo GameServerResult;
; 370  : 			ReadGameServerInfo(PlatformDBAide,GameServerResult);

  00232	8d 85 18 f4 ff
	ff		 lea	 eax, DWORD PTR _GameServerResult$9[ebp]
  00238	50		 push	 eax
  00239	8d 4d e0	 lea	 ecx, DWORD PTR _PlatformDBAide$[ebp]
  0023c	51		 push	 ecx
  0023d	8b 4d e8	 mov	 ecx, DWORD PTR _this$[ebp]
  00240	e8 00 00 00 00	 call	 ?ReadGameServerInfo@CServerInfoManager@@AAE_NAAVCDataBaseAide@@AAUtagGameServerInfo@@@Z ; CServerInfoManager::ReadGameServerInfo

; 371  : 
; 372  : 			//插入列表
; 373  : 			ServerInfoBuffer.InsertServerInfo(&GameServerResult);

  00245	8d 85 18 f4 ff
	ff		 lea	 eax, DWORD PTR _GameServerResult$9[ebp]
  0024b	50		 push	 eax
  0024c	8b 4d 0c	 mov	 ecx, DWORD PTR _ServerInfoBuffer$[ebp]
  0024f	e8 00 00 00 00	 call	 ?InsertServerInfo@CServerInfoBuffer@@QAE_NPAUtagGameServerInfo@@@Z ; CServerInfoBuffer::InsertServerInfo

; 374  : 
; 375  : 			//移动记录
; 376  : 			PlatformDBModule->MoveToNext();

  00254	8d 8d 08 fe ff
	ff		 lea	 ecx, DWORD PTR _PlatformDBModule$[ebp]
  0025a	e8 00 00 00 00	 call	 ??C?$CTempldateHelper@UIDataBase@@@@QBEPAUIDataBase@@XZ ; CTempldateHelper<IDataBase>::operator->
  0025f	89 85 44 f2 ff
	ff		 mov	 DWORD PTR tv218[ebp], eax
  00265	8b 85 44 f2 ff
	ff		 mov	 eax, DWORD PTR tv218[ebp]
  0026b	89 85 40 f2 ff
	ff		 mov	 DWORD PTR tv189[ebp], eax
  00271	8b 8d 40 f2 ff
	ff		 mov	 ecx, DWORD PTR tv189[ebp]
  00277	8b 11		 mov	 edx, DWORD PTR [ecx]
  00279	8b 8d 40 f2 ff
	ff		 mov	 ecx, DWORD PTR tv189[ebp]
  0027f	8b 42 30	 mov	 eax, DWORD PTR [edx+48]
  00282	ff d0		 call	 eax

; 377  : 		}

  00284	e9 68 ff ff ff	 jmp	 $LN2@LoadGameSe
$LN3@LoadGameSe:

; 378  : 
; 379  : 		return true;

  00289	c6 85 4d f2 ff
	ff 01		 mov	 BYTE PTR $T4[ebp], 1
  00290	c6 45 fc 00	 mov	 BYTE PTR __$EHRec$[ebp+12], 0
  00294	8d 8d 08 fe ff
	ff		 lea	 ecx, DWORD PTR _PlatformDBModule$[ebp]
  0029a	e8 00 00 00 00	 call	 ??1CDataBaseHelper@@UAE@XZ
  0029f	c7 45 fc ff ff
	ff ff		 mov	 DWORD PTR __$EHRec$[ebp+12], -1
  002a6	8d 4d e0	 lea	 ecx, DWORD PTR _PlatformDBAide$[ebp]
  002a9	ff 15 00 00 00
	00		 call	 DWORD PTR __imp_??1CDataBaseAide@@UAE@XZ
  002af	8a 85 4d f2 ff
	ff		 mov	 al, BYTE PTR $T4[ebp]
  002b5	e9 ad 00 00 00	 jmp	 $LN1@LoadGameSe
__catch$?LoadGameServerInfo@CServerInfoManager@@QAE_NQADAAVCServerInfoBuffer@@@Z$0:

; 380  : 	}
; 381  : 	catch (IDataBaseException * pIException)
; 382  : 	{
; 383  : 		//错误信息
; 384  : 		LPCTSTR pszDescribe=pIException->GetExceptionDescribe();

  002ba	8b 85 14 f4 ff
	ff		 mov	 eax, DWORD PTR _pIException$8[ebp]
  002c0	8b 10		 mov	 edx, DWORD PTR [eax]
  002c2	8b 8d 14 f4 ff
	ff		 mov	 ecx, DWORD PTR _pIException$8[ebp]
  002c8	8b 42 0c	 mov	 eax, DWORD PTR [edx+12]
  002cb	ff d0		 call	 eax
  002cd	89 85 10 f4 ff
	ff		 mov	 DWORD PTR _pszDescribe$7[ebp], eax

; 385  : 		CTraceService::TraceString(pszDescribe,TraceLevel_Exception);

  002d3	6a 03		 push	 3
  002d5	8b 85 10 f4 ff
	ff		 mov	 eax, DWORD PTR _pszDescribe$7[ebp]
  002db	50		 push	 eax
  002dc	ff 15 00 00 00
	00		 call	 DWORD PTR __imp_?TraceString@CTraceService@@SA_NPBDW4enTraceLevel@@@Z
  002e2	83 c4 08	 add	 esp, 8

; 386  : 
; 387  : 		//错误提示
; 388  : 		AfxMessageBox(pszDescribe,MB_ICONERROR);

  002e5	6a 00		 push	 0
  002e7	6a 10		 push	 16			; 00000010H
  002e9	8b 85 10 f4 ff
	ff		 mov	 eax, DWORD PTR _pszDescribe$7[ebp]
  002ef	50		 push	 eax
  002f0	e8 00 00 00 00	 call	 ?AfxMessageBox@@YGHPBDII@Z ; AfxMessageBox

; 389  : 
; 390  : 		return false;

  002f5	c6 85 4c f2 ff
	ff 00		 mov	 BYTE PTR $T3[ebp], 0
  002fc	b8 00 00 00 00	 mov	 eax, $LN14@LoadGameSe
  00301	c3		 ret	 0

; 391  : 	}

  00302	b8 00 00 00 00	 mov	 eax, __tryend$?LoadGameServerInfo@CServerInfoManager@@QAE_NQADAAVCServerInfoBuffer@@@Z$1
  00307	c3		 ret	 0
__tryend$?LoadGameServerInfo@CServerInfoManager@@QAE_NQADAAVCServerInfoBuffer@@@Z$1:
  00308	c7 45 fc 01 00
	00 00		 mov	 DWORD PTR __$EHRec$[ebp+12], 1
  0030f	eb 2a		 jmp	 SHORT $LN13@LoadGameSe
$LN14@LoadGameSe:

; 389  : 
; 390  : 		return false;

  00311	c7 45 fc 00 00
	00 00		 mov	 DWORD PTR __$EHRec$[ebp+12], 0
  00318	8d 8d 08 fe ff
	ff		 lea	 ecx, DWORD PTR _PlatformDBModule$[ebp]
  0031e	e8 00 00 00 00	 call	 ??1CDataBaseHelper@@UAE@XZ
  00323	c7 45 fc ff ff
	ff ff		 mov	 DWORD PTR __$EHRec$[ebp+12], -1
  0032a	8d 4d e0	 lea	 ecx, DWORD PTR _PlatformDBAide$[ebp]
  0032d	ff 15 00 00 00
	00		 call	 DWORD PTR __imp_??1CDataBaseAide@@UAE@XZ
  00333	8a 85 4c f2 ff
	ff		 mov	 al, BYTE PTR $T3[ebp]
  00339	eb 2c		 jmp	 SHORT $LN1@LoadGameSe
$LN13@LoadGameSe:

; 392  : 
; 393  : 	return false;

  0033b	c6 85 4b f2 ff
	ff 00		 mov	 BYTE PTR $T2[ebp], 0
  00342	c6 45 fc 00	 mov	 BYTE PTR __$EHRec$[ebp+12], 0
  00346	8d 8d 08 fe ff
	ff		 lea	 ecx, DWORD PTR _PlatformDBModule$[ebp]
  0034c	e8 00 00 00 00	 call	 ??1CDataBaseHelper@@UAE@XZ
  00351	c7 45 fc ff ff
	ff ff		 mov	 DWORD PTR __$EHRec$[ebp+12], -1
  00358	8d 4d e0	 lea	 ecx, DWORD PTR _PlatformDBAide$[ebp]
  0035b	ff 15 00 00 00
	00		 call	 DWORD PTR __imp_??1CDataBaseAide@@UAE@XZ
  00361	8a 85 4b f2 ff
	ff		 mov	 al, BYTE PTR $T2[ebp]
$LN1@LoadGameSe:

; 394  : }

  00367	8b 4d f4	 mov	 ecx, DWORD PTR __$EHRec$[ebp+4]
  0036a	64 89 0d 00 00
	00 00		 mov	 DWORD PTR fs:0, ecx
  00371	59		 pop	 ecx
  00372	5f		 pop	 edi
  00373	5e		 pop	 esi
  00374	5b		 pop	 ebx
  00375	8b 4d ec	 mov	 ecx, DWORD PTR __$ArrayPad$[ebp]
  00378	33 cd		 xor	 ecx, ebp
  0037a	e8 00 00 00 00	 call	 @__security_check_cookie@4
  0037f	8b e5		 mov	 esp, ebp
  00381	5d		 pop	 ebp
  00382	c2 08 00	 ret	 8
_TEXT	ENDS
;	COMDAT text$x
text$x	SEGMENT
__unwindfunclet$?LoadGameServerInfo@CServerInfoManager@@QAE_NQADAAVCServerInfoBuffer@@@Z$2:
  00000	8d 4d e0	 lea	 ecx, DWORD PTR _PlatformDBAide$[ebp]
  00003	ff 25 00 00 00
	00		 jmp	 DWORD PTR __imp_??1CDataBaseAide@@UAE@XZ
__unwindfunclet$?LoadGameServerInfo@CServerInfoManager@@QAE_NQADAAVCServerInfoBuffer@@@Z$3:
  00009	8d 8d 08 fe ff
	ff		 lea	 ecx, DWORD PTR _PlatformDBModule$[ebp]
  0000f	e9 00 00 00 00	 jmp	 ??1CDataBaseHelper@@UAE@XZ
__ehhandler$?LoadGameServerInfo@CServerInfoManager@@QAE_NQADAAVCServerInfoBuffer@@@Z:
  00014	8b 54 24 08	 mov	 edx, DWORD PTR [esp+8]
  00018	8d 42 0c	 lea	 eax, DWORD PTR [edx+12]
  0001b	8b 8a 38 f2 ff
	ff		 mov	 ecx, DWORD PTR [edx-3528]
  00021	33 c8		 xor	 ecx, eax
  00023	e8 00 00 00 00	 call	 @__security_check_cookie@4
  00028	8b 4a f8	 mov	 ecx, DWORD PTR [edx-8]
  0002b	33 c8		 xor	 ecx, eax
  0002d	e8 00 00 00 00	 call	 @__security_check_cookie@4
  00032	b8 00 00 00 00	 mov	 eax, OFFSET __ehfuncinfo$?LoadGameServerInfo@CServerInfoManager@@QAE_NQADAAVCServerInfoBuffer@@@Z
  00037	e9 00 00 00 00	 jmp	 ___CxxFrameHandler3
text$x	ENDS
?LoadGameServerInfo@CServerInfoManager@@QAE_NQADAAVCServerInfoBuffer@@@Z ENDP ; CServerInfoManager::LoadGameServerInfo
; Function compile flags: /Odtp /ZI
; File g:\网狐\happygamewh\服务端\系统模块\服务器组件\模块管理\serverinfomanager.cpp
;	COMDAT ??1CServerInfoManager@@UAE@XZ
_TEXT	SEGMENT
_this$ = -4						; size = 4
??1CServerInfoManager@@UAE@XZ PROC			; CServerInfoManager::~CServerInfoManager, COMDAT
; _this$ = ecx

; 315  : {

  00000	55		 push	 ebp
  00001	8b ec		 mov	 ebp, esp
  00003	83 ec 44	 sub	 esp, 68			; 00000044H
  00006	53		 push	 ebx
  00007	56		 push	 esi
  00008	57		 push	 edi
  00009	89 4d fc	 mov	 DWORD PTR _this$[ebp], ecx
  0000c	8b 45 fc	 mov	 eax, DWORD PTR _this$[ebp]
  0000f	c7 00 00 00 00
	00		 mov	 DWORD PTR [eax], OFFSET ??_7CServerInfoManager@@6B@

; 316  : }

  00015	5f		 pop	 edi
  00016	5e		 pop	 esi
  00017	5b		 pop	 ebx
  00018	8b e5		 mov	 esp, ebp
  0001a	5d		 pop	 ebp
  0001b	c3		 ret	 0
??1CServerInfoManager@@UAE@XZ ENDP			; CServerInfoManager::~CServerInfoManager
_TEXT	ENDS
; Function compile flags: /Odtp /ZI
; File g:\网狐\happygamewh\服务端\系统模块\服务器组件\模块管理\serverinfomanager.cpp
;	COMDAT ??0CServerInfoManager@@QAE@XZ
_TEXT	SEGMENT
_this$ = -4						; size = 4
??0CServerInfoManager@@QAE@XZ PROC			; CServerInfoManager::CServerInfoManager, COMDAT
; _this$ = ecx

; 310  : {

  00000	55		 push	 ebp
  00001	8b ec		 mov	 ebp, esp
  00003	83 ec 44	 sub	 esp, 68			; 00000044H
  00006	53		 push	 ebx
  00007	56		 push	 esi
  00008	57		 push	 edi
  00009	89 4d fc	 mov	 DWORD PTR _this$[ebp], ecx
  0000c	8b 45 fc	 mov	 eax, DWORD PTR _this$[ebp]
  0000f	c7 00 00 00 00
	00		 mov	 DWORD PTR [eax], OFFSET ??_7CServerInfoManager@@6B@
  00015	8b 4d fc	 mov	 ecx, DWORD PTR _this$[ebp]
  00018	83 c1 75	 add	 ecx, 117		; 00000075H
  0001b	e8 00 00 00 00	 call	 ??0tagPersonalRoomOptionRightAndFee@@QAE@XZ

; 311  : }

  00020	8b 45 fc	 mov	 eax, DWORD PTR _this$[ebp]
  00023	5f		 pop	 edi
  00024	5e		 pop	 esi
  00025	5b		 pop	 ebx
  00026	8b e5		 mov	 esp, ebp
  00028	5d		 pop	 ebp
  00029	c3		 ret	 0
??0CServerInfoManager@@QAE@XZ ENDP			; CServerInfoManager::CServerInfoManager
_TEXT	ENDS
; Function compile flags: /Odtp /ZI
;	COMDAT ??_ECMatchOptionBuffer@@UAEPAXI@Z
_TEXT	SEGMENT
_this$ = -16						; size = 4
__$EHRec$ = -12						; size = 12
___flags$ = 8						; size = 4
??_ECMatchOptionBuffer@@UAEPAXI@Z PROC			; CMatchOptionBuffer::`vector deleting destructor', COMDAT
; _this$ = ecx
  00000	55		 push	 ebp
  00001	8b ec		 mov	 ebp, esp
  00003	6a ff		 push	 -1
  00005	68 00 00 00 00	 push	 __ehhandler$??_ECMatchOptionBuffer@@UAEPAXI@Z
  0000a	64 a1 00 00 00
	00		 mov	 eax, DWORD PTR fs:0
  00010	50		 push	 eax
  00011	83 ec 44	 sub	 esp, 68			; 00000044H
  00014	53		 push	 ebx
  00015	56		 push	 esi
  00016	57		 push	 edi
  00017	a1 00 00 00 00	 mov	 eax, DWORD PTR ___security_cookie
  0001c	33 c5		 xor	 eax, ebp
  0001e	50		 push	 eax
  0001f	8d 45 f4	 lea	 eax, DWORD PTR __$EHRec$[ebp]
  00022	64 a3 00 00 00
	00		 mov	 DWORD PTR fs:0, eax
  00028	89 4d f0	 mov	 DWORD PTR _this$[ebp], ecx
  0002b	8b 45 08	 mov	 eax, DWORD PTR ___flags$[ebp]
  0002e	83 e0 02	 and	 eax, 2
  00031	74 41		 je	 SHORT $LN2@vector
  00033	68 00 00 00 00	 push	 OFFSET ??1CMatchOptionBuffer@@UAE@XZ ; CMatchOptionBuffer::~CMatchOptionBuffer
  00038	8b 45 f0	 mov	 eax, DWORD PTR _this$[ebp]
  0003b	8b 48 fc	 mov	 ecx, DWORD PTR [eax-4]
  0003e	51		 push	 ecx
  0003f	6a 2c		 push	 44			; 0000002cH
  00041	8b 55 f0	 mov	 edx, DWORD PTR _this$[ebp]
  00044	52		 push	 edx
  00045	e8 00 00 00 00	 call	 ??_M@YGXPAXIIP6EX0@Z@Z
  0004a	8b 45 08	 mov	 eax, DWORD PTR ___flags$[ebp]
  0004d	83 e0 01	 and	 eax, 1
  00050	74 1a		 je	 SHORT $LN3@vector
  00052	8b 45 f0	 mov	 eax, DWORD PTR _this$[ebp]
  00055	6b 48 fc 2c	 imul	 ecx, DWORD PTR [eax-4], 44
  00059	83 c1 04	 add	 ecx, 4
  0005c	51		 push	 ecx
  0005d	8b 55 f0	 mov	 edx, DWORD PTR _this$[ebp]
  00060	83 ea 04	 sub	 edx, 4
  00063	52		 push	 edx
  00064	e8 00 00 00 00	 call	 ??_V@YAXPAXI@Z		; operator delete[]
  00069	83 c4 08	 add	 esp, 8
$LN3@vector:
  0006c	8b 45 f0	 mov	 eax, DWORD PTR _this$[ebp]
  0006f	83 e8 04	 sub	 eax, 4
  00072	eb 21		 jmp	 SHORT $LN5@vector
$LN2@vector:
  00074	8b 4d f0	 mov	 ecx, DWORD PTR _this$[ebp]
  00077	e8 00 00 00 00	 call	 ??1CMatchOptionBuffer@@UAE@XZ ; CMatchOptionBuffer::~CMatchOptionBuffer
  0007c	8b 45 08	 mov	 eax, DWORD PTR ___flags$[ebp]
  0007f	83 e0 01	 and	 eax, 1
  00082	74 0e		 je	 SHORT $LN4@vector
  00084	6a 2c		 push	 44			; 0000002cH
  00086	8b 45 f0	 mov	 eax, DWORD PTR _this$[ebp]
  00089	50		 push	 eax
  0008a	e8 00 00 00 00	 call	 ??3@YAXPAXI@Z		; operator delete
  0008f	83 c4 08	 add	 esp, 8
$LN4@vector:
  00092	8b 45 f0	 mov	 eax, DWORD PTR _this$[ebp]
$LN5@vector:
  00095	8b 4d f4	 mov	 ecx, DWORD PTR __$EHRec$[ebp]
  00098	64 89 0d 00 00
	00 00		 mov	 DWORD PTR fs:0, ecx
  0009f	59		 pop	 ecx
  000a0	5f		 pop	 edi
  000a1	5e		 pop	 esi
  000a2	5b		 pop	 ebx
  000a3	8b e5		 mov	 esp, ebp
  000a5	5d		 pop	 ebp
  000a6	c2 04 00	 ret	 4
_TEXT	ENDS
;	COMDAT text$x
text$x	SEGMENT
__ehhandler$??_ECMatchOptionBuffer@@UAEPAXI@Z:
  00000	8b 54 24 08	 mov	 edx, DWORD PTR [esp+8]
  00004	8d 42 0c	 lea	 eax, DWORD PTR [edx+12]
  00007	8b 4a ac	 mov	 ecx, DWORD PTR [edx-84]
  0000a	33 c8		 xor	 ecx, eax
  0000c	e8 00 00 00 00	 call	 @__security_check_cookie@4
  00011	b8 00 00 00 00	 mov	 eax, OFFSET __ehfuncinfo$??_ECMatchOptionBuffer@@UAEPAXI@Z
  00016	e9 00 00 00 00	 jmp	 ___CxxFrameHandler3
text$x	ENDS
??_ECMatchOptionBuffer@@UAEPAXI@Z ENDP			; CMatchOptionBuffer::`vector deleting destructor'
; Function compile flags: /Odtp /ZI
;	COMDAT ??_GCMatchOptionBuffer@@UAEPAXI@Z
_TEXT	SEGMENT
_this$ = -4						; size = 4
___flags$ = 8						; size = 4
??_GCMatchOptionBuffer@@UAEPAXI@Z PROC			; CMatchOptionBuffer::`scalar deleting destructor', COMDAT
; _this$ = ecx
  00000	55		 push	 ebp
  00001	8b ec		 mov	 ebp, esp
  00003	83 ec 44	 sub	 esp, 68			; 00000044H
  00006	53		 push	 ebx
  00007	56		 push	 esi
  00008	57		 push	 edi
  00009	89 4d fc	 mov	 DWORD PTR _this$[ebp], ecx
  0000c	8b 4d fc	 mov	 ecx, DWORD PTR _this$[ebp]
  0000f	e8 00 00 00 00	 call	 ??1CMatchOptionBuffer@@UAE@XZ ; CMatchOptionBuffer::~CMatchOptionBuffer
  00014	8b 45 08	 mov	 eax, DWORD PTR ___flags$[ebp]
  00017	83 e0 01	 and	 eax, 1
  0001a	74 0e		 je	 SHORT $LN2@scalar
  0001c	6a 2c		 push	 44			; 0000002cH
  0001e	8b 45 fc	 mov	 eax, DWORD PTR _this$[ebp]
  00021	50		 push	 eax
  00022	e8 00 00 00 00	 call	 ??3@YAXPAXI@Z		; operator delete
  00027	83 c4 08	 add	 esp, 8
$LN2@scalar:
  0002a	8b 45 fc	 mov	 eax, DWORD PTR _this$[ebp]
  0002d	5f		 pop	 edi
  0002e	5e		 pop	 esi
  0002f	5b		 pop	 ebx
  00030	8b e5		 mov	 esp, ebp
  00032	5d		 pop	 ebp
  00033	c2 04 00	 ret	 4
??_GCMatchOptionBuffer@@UAEPAXI@Z ENDP			; CMatchOptionBuffer::`scalar deleting destructor'
_TEXT	ENDS
; Function compile flags: /Odtp /ZI
;	COMDAT ??4CMatchOptionBuffer@@QAEAAV0@ABV0@@Z
_TEXT	SEGMENT
_this$ = -4						; size = 4
___that$ = 8						; size = 4
??4CMatchOptionBuffer@@QAEAAV0@ABV0@@Z PROC		; CMatchOptionBuffer::operator=, COMDAT
; _this$ = ecx
  00000	55		 push	 ebp
  00001	8b ec		 mov	 ebp, esp
  00003	83 ec 44	 sub	 esp, 68			; 00000044H
  00006	53		 push	 ebx
  00007	56		 push	 esi
  00008	57		 push	 edi
  00009	89 4d fc	 mov	 DWORD PTR _this$[ebp], ecx
  0000c	8b 45 08	 mov	 eax, DWORD PTR ___that$[ebp]
  0000f	83 c0 04	 add	 eax, 4
  00012	50		 push	 eax
  00013	8b 4d fc	 mov	 ecx, DWORD PTR _this$[ebp]
  00016	83 c1 04	 add	 ecx, 4
  00019	e8 00 00 00 00	 call	 ??4?$CWHArray@PAUtagGameMatchOption@@ABQAU1@@@QAEAAV0@ABV0@@Z
  0001e	8b 45 08	 mov	 eax, DWORD PTR ___that$[ebp]
  00021	83 c0 18	 add	 eax, 24			; 00000018H
  00024	50		 push	 eax
  00025	8b 4d fc	 mov	 ecx, DWORD PTR _this$[ebp]
  00028	83 c1 18	 add	 ecx, 24			; 00000018H
  0002b	e8 00 00 00 00	 call	 ??4?$CWHArray@PAUtagGameMatchOption@@ABQAU1@@@QAEAAV0@ABV0@@Z
  00030	8b 45 fc	 mov	 eax, DWORD PTR _this$[ebp]
  00033	5f		 pop	 edi
  00034	5e		 pop	 esi
  00035	5b		 pop	 ebx
  00036	8b e5		 mov	 esp, ebp
  00038	5d		 pop	 ebp
  00039	c2 04 00	 ret	 4
??4CMatchOptionBuffer@@QAEAAV0@ABV0@@Z ENDP		; CMatchOptionBuffer::operator=
_TEXT	ENDS
; Function compile flags: /Odtp /ZI
;	COMDAT ??0CMatchOptionBuffer@@QAE@ABV0@@Z
_TEXT	SEGMENT
_this$ = -4						; size = 4
___that$ = 8						; size = 4
??0CMatchOptionBuffer@@QAE@ABV0@@Z PROC			; CMatchOptionBuffer::CMatchOptionBuffer, COMDAT
; _this$ = ecx
  00000	55		 push	 ebp
  00001	8b ec		 mov	 ebp, esp
  00003	83 ec 44	 sub	 esp, 68			; 00000044H
  00006	53		 push	 ebx
  00007	56		 push	 esi
  00008	57		 push	 edi
  00009	89 4d fc	 mov	 DWORD PTR _this$[ebp], ecx
  0000c	8b 45 fc	 mov	 eax, DWORD PTR _this$[ebp]
  0000f	c7 00 00 00 00
	00		 mov	 DWORD PTR [eax], OFFSET ??_7CMatchOptionBuffer@@6B@
  00015	8b 45 08	 mov	 eax, DWORD PTR ___that$[ebp]
  00018	83 c0 04	 add	 eax, 4
  0001b	50		 push	 eax
  0001c	8b 4d fc	 mov	 ecx, DWORD PTR _this$[ebp]
  0001f	83 c1 04	 add	 ecx, 4
  00022	e8 00 00 00 00	 call	 ??0?$CWHArray@PAUtagGameMatchOption@@ABQAU1@@@QAE@ABV0@@Z
  00027	8b 45 08	 mov	 eax, DWORD PTR ___that$[ebp]
  0002a	83 c0 18	 add	 eax, 24			; 00000018H
  0002d	50		 push	 eax
  0002e	8b 4d fc	 mov	 ecx, DWORD PTR _this$[ebp]
  00031	83 c1 18	 add	 ecx, 24			; 00000018H
  00034	e8 00 00 00 00	 call	 ??0?$CWHArray@PAUtagGameMatchOption@@ABQAU1@@@QAE@ABV0@@Z
  00039	8b 45 fc	 mov	 eax, DWORD PTR _this$[ebp]
  0003c	5f		 pop	 edi
  0003d	5e		 pop	 esi
  0003e	5b		 pop	 ebx
  0003f	8b e5		 mov	 esp, ebp
  00041	5d		 pop	 ebp
  00042	c2 04 00	 ret	 4
??0CMatchOptionBuffer@@QAE@ABV0@@Z ENDP			; CMatchOptionBuffer::CMatchOptionBuffer
_TEXT	ENDS
; Function compile flags: /Odtp /ZI
; File g:\网狐\happygamewh\服务端\系统模块\服务器组件\模块管理\serverinfomanager.cpp
;	COMDAT ?CreateMatchOption@CMatchOptionBuffer@@AAEPAUtagGameMatchOption@@XZ
_TEXT	SEGMENT
tv90 = -104						; size = 4
tv89 = -104						; size = 4
tv88 = -104						; size = 4
$T2 = -100						; size = 4
$T3 = -96						; size = 4
_nArrayCount$4 = -28					; size = 4
_pGameMatchOption$ = -24				; size = 4
_this$ = -20						; size = 4
__$EHRec$ = -16						; size = 16
?CreateMatchOption@CMatchOptionBuffer@@AAEPAUtagGameMatchOption@@XZ PROC ; CMatchOptionBuffer::CreateMatchOption, COMDAT
; _this$ = ecx

; 279  : {

  00000	55		 push	 ebp
  00001	8b ec		 mov	 ebp, esp
  00003	6a ff		 push	 -1
  00005	68 00 00 00 00	 push	 __ehhandler$?CreateMatchOption@CMatchOptionBuffer@@AAEPAUtagGameMatchOption@@XZ
  0000a	64 a1 00 00 00
	00		 mov	 eax, DWORD PTR fs:0
  00010	50		 push	 eax
  00011	51		 push	 ecx
  00012	83 ec 58	 sub	 esp, 88			; 00000058H
  00015	53		 push	 ebx
  00016	56		 push	 esi
  00017	57		 push	 edi
  00018	a1 00 00 00 00	 mov	 eax, DWORD PTR ___security_cookie
  0001d	33 c5		 xor	 eax, ebp
  0001f	50		 push	 eax
  00020	8d 45 f4	 lea	 eax, DWORD PTR __$EHRec$[ebp+4]
  00023	64 a3 00 00 00
	00		 mov	 DWORD PTR fs:0, eax
  00029	89 65 f0	 mov	 DWORD PTR __$EHRec$[ebp], esp
  0002c	89 4d ec	 mov	 DWORD PTR _this$[ebp], ecx

; 280  : 	//变量定义
; 281  : 	tagGameMatchOption * pGameMatchOption=NULL;

  0002f	c7 45 e8 00 00
	00 00		 mov	 DWORD PTR _pGameMatchOption$[ebp], 0

; 282  : 
; 283  : 	//创建对象
; 284  : 	try

  00036	c7 45 fc 00 00
	00 00		 mov	 DWORD PTR __$EHRec$[ebp+12], 0

; 285  : 	{
; 286  : 		INT_PTR nArrayCount=m_GameMatchOptionBuffer.GetCount();

  0003d	8b 4d ec	 mov	 ecx, DWORD PTR _this$[ebp]
  00040	83 c1 18	 add	 ecx, 24			; 00000018H
  00043	e8 00 00 00 00	 call	 ?GetCount@?$CWHArray@PAUtagGameMatchOption@@ABQAU1@@@QBEHXZ ; CWHArray<tagGameMatchOption *,tagGameMatchOption * const &>::GetCount
  00048	89 45 98	 mov	 DWORD PTR tv88[ebp], eax
  0004b	8b 45 98	 mov	 eax, DWORD PTR tv88[ebp]
  0004e	89 45 e4	 mov	 DWORD PTR _nArrayCount$4[ebp], eax

; 287  : 		if (nArrayCount>0)

  00051	83 7d e4 00	 cmp	 DWORD PTR _nArrayCount$4[ebp], 0
  00055	7e 33		 jle	 SHORT $LN3@CreateMatc

; 288  : 		{
; 289  : 			pGameMatchOption=m_GameMatchOptionBuffer[nArrayCount-1];

  00057	8b 45 e4	 mov	 eax, DWORD PTR _nArrayCount$4[ebp]
  0005a	83 e8 01	 sub	 eax, 1
  0005d	50		 push	 eax
  0005e	8b 4d ec	 mov	 ecx, DWORD PTR _this$[ebp]
  00061	83 c1 18	 add	 ecx, 24			; 00000018H
  00064	e8 00 00 00 00	 call	 ??A?$CWHArray@PAUtagGameMatchOption@@ABQAU1@@@QAEAAPAUtagGameMatchOption@@H@Z ; CWHArray<tagGameMatchOption *,tagGameMatchOption * const &>::operator[]
  00069	89 45 98	 mov	 DWORD PTR tv89[ebp], eax
  0006c	8b 4d 98	 mov	 ecx, DWORD PTR tv89[ebp]
  0006f	8b 11		 mov	 edx, DWORD PTR [ecx]
  00071	89 55 e8	 mov	 DWORD PTR _pGameMatchOption$[ebp], edx

; 290  : 			m_GameMatchOptionBuffer.RemoveAt(nArrayCount-1);

  00074	6a 01		 push	 1
  00076	8b 45 e4	 mov	 eax, DWORD PTR _nArrayCount$4[ebp]
  00079	83 e8 01	 sub	 eax, 1
  0007c	50		 push	 eax
  0007d	8b 4d ec	 mov	 ecx, DWORD PTR _this$[ebp]
  00080	83 c1 18	 add	 ecx, 24			; 00000018H
  00083	e8 00 00 00 00	 call	 ?RemoveAt@?$CWHArray@PAUtagGameMatchOption@@ABQAU1@@@QAEXHH@Z ; CWHArray<tagGameMatchOption *,tagGameMatchOption * const &>::RemoveAt

; 291  : 		}
; 292  : 		else

  00088	eb 26		 jmp	 SHORT $LN4@CreateMatc
$LN3@CreateMatc:

; 293  : 		{
; 294  : 			pGameMatchOption=new tagGameMatchOption;

  0008a	68 c8 02 00 00	 push	 712			; 000002c8H
  0008f	e8 00 00 00 00	 call	 ??2@YAPAXI@Z		; operator new
  00094	83 c4 04	 add	 esp, 4
  00097	89 45 98	 mov	 DWORD PTR tv90[ebp], eax
  0009a	8b 45 98	 mov	 eax, DWORD PTR tv90[ebp]
  0009d	89 45 a0	 mov	 DWORD PTR $T3[ebp], eax
  000a0	8b 4d a0	 mov	 ecx, DWORD PTR $T3[ebp]
  000a3	89 4d e8	 mov	 DWORD PTR _pGameMatchOption$[ebp], ecx

; 295  : 			if (pGameMatchOption==NULL) return NULL;

  000a6	83 7d e8 00	 cmp	 DWORD PTR _pGameMatchOption$[ebp], 0
  000aa	75 04		 jne	 SHORT $LN4@CreateMatc
  000ac	33 c0		 xor	 eax, eax
  000ae	eb 40		 jmp	 SHORT $LN1@CreateMatc
$LN4@CreateMatc:

; 296  : 		}
; 297  : 	}

  000b0	eb 13		 jmp	 SHORT $LN7@CreateMatc
__catch$?CreateMatchOption@CMatchOptionBuffer@@AAEPAUtagGameMatchOption@@XZ$0:

; 298  : 	catch (...) { return false; }

  000b2	c7 45 9c 00 00
	00 00		 mov	 DWORD PTR $T2[ebp], 0
  000b9	b8 00 00 00 00	 mov	 eax, $LN10@CreateMatc
  000be	c3		 ret	 0
  000bf	b8 00 00 00 00	 mov	 eax, $LN7@CreateMatc
  000c4	c3		 ret	 0
$LN7@CreateMatc:
  000c5	c7 45 fc ff ff
	ff ff		 mov	 DWORD PTR __$EHRec$[ebp+12], -1
  000cc	eb 0c		 jmp	 SHORT $LN9@CreateMatc
$LN10@CreateMatc:
  000ce	c7 45 fc ff ff
	ff ff		 mov	 DWORD PTR __$EHRec$[ebp+12], -1
  000d5	8b 45 9c	 mov	 eax, DWORD PTR $T2[ebp]
  000d8	eb 16		 jmp	 SHORT $LN1@CreateMatc
$LN9@CreateMatc:

; 299  : 
; 300  : 	//设置变量
; 301  : 	ZeroMemory(pGameMatchOption,sizeof(tagGameMatchOption));

  000da	68 c8 02 00 00	 push	 712			; 000002c8H
  000df	6a 00		 push	 0
  000e1	8b 45 e8	 mov	 eax, DWORD PTR _pGameMatchOption$[ebp]
  000e4	50		 push	 eax
  000e5	e8 00 00 00 00	 call	 _memset
  000ea	83 c4 0c	 add	 esp, 12			; 0000000cH

; 302  : 
; 303  : 	return pGameMatchOption;

  000ed	8b 45 e8	 mov	 eax, DWORD PTR _pGameMatchOption$[ebp]
$LN1@CreateMatc:

; 304  : }

  000f0	8b 4d f4	 mov	 ecx, DWORD PTR __$EHRec$[ebp+4]
  000f3	64 89 0d 00 00
	00 00		 mov	 DWORD PTR fs:0, ecx
  000fa	59		 pop	 ecx
  000fb	5f		 pop	 edi
  000fc	5e		 pop	 esi
  000fd	5b		 pop	 ebx
  000fe	8b e5		 mov	 esp, ebp
  00100	5d		 pop	 ebp
  00101	c3		 ret	 0
_TEXT	ENDS
;	COMDAT text$x
text$x	SEGMENT
__ehhandler$?CreateMatchOption@CMatchOptionBuffer@@AAEPAUtagGameMatchOption@@XZ:
  00000	8b 54 24 08	 mov	 edx, DWORD PTR [esp+8]
  00004	8d 42 0c	 lea	 eax, DWORD PTR [edx+12]
  00007	8b 4a 94	 mov	 ecx, DWORD PTR [edx-108]
  0000a	33 c8		 xor	 ecx, eax
  0000c	e8 00 00 00 00	 call	 @__security_check_cookie@4
  00011	b8 00 00 00 00	 mov	 eax, OFFSET __ehfuncinfo$?CreateMatchOption@CMatchOptionBuffer@@AAEPAUtagGameMatchOption@@XZ
  00016	e9 00 00 00 00	 jmp	 ___CxxFrameHandler3
text$x	ENDS
?CreateMatchOption@CMatchOptionBuffer@@AAEPAUtagGameMatchOption@@XZ ENDP ; CMatchOptionBuffer::CreateMatchOption
; Function compile flags: /Odtp /ZI
; File g:\网狐\happygamewh\服务端\系统模块\服务器组件\模块管理\serverinfomanager.cpp
;	COMDAT ?SearchMatchOption@CMatchOptionBuffer@@QAEPAUtagGameMatchOption@@K_J@Z
_TEXT	SEGMENT
tv87 = -80						; size = 4
_i$1 = -12						; size = 4
_pGameMatchOption$ = -8					; size = 4
_this$ = -4						; size = 4
_dwMatchID$ = 8						; size = 4
_wMatchNO$ = 12						; size = 8
?SearchMatchOption@CMatchOptionBuffer@@QAEPAUtagGameMatchOption@@K_J@Z PROC ; CMatchOptionBuffer::SearchMatchOption, COMDAT
; _this$ = ecx

; 260  : {

  00000	55		 push	 ebp
  00001	8b ec		 mov	 ebp, esp
  00003	83 ec 50	 sub	 esp, 80			; 00000050H
  00006	53		 push	 ebx
  00007	56		 push	 esi
  00008	57		 push	 edi
  00009	89 4d fc	 mov	 DWORD PTR _this$[ebp], ecx

; 261  : 	//变量定义
; 262  : 	tagGameMatchOption * pGameMatchOption=NULL;

  0000c	c7 45 f8 00 00
	00 00		 mov	 DWORD PTR _pGameMatchOption$[ebp], 0

; 263  : 
; 264  : 	//查找对象
; 265  : 	for(INT_PTR i=0;i<m_GameMatchOptionArray.GetCount();i++)

  00013	c7 45 f4 00 00
	00 00		 mov	 DWORD PTR _i$1[ebp], 0
  0001a	eb 09		 jmp	 SHORT $LN4@SearchMatc
$LN2@SearchMatc:
  0001c	8b 45 f4	 mov	 eax, DWORD PTR _i$1[ebp]
  0001f	83 c0 01	 add	 eax, 1
  00022	89 45 f4	 mov	 DWORD PTR _i$1[ebp], eax
$LN4@SearchMatc:
  00025	8b 4d fc	 mov	 ecx, DWORD PTR _this$[ebp]
  00028	83 c1 04	 add	 ecx, 4
  0002b	e8 00 00 00 00	 call	 ?GetCount@?$CWHArray@PAUtagGameMatchOption@@ABQAU1@@@QBEHXZ ; CWHArray<tagGameMatchOption *,tagGameMatchOption * const &>::GetCount
  00030	39 45 f4	 cmp	 DWORD PTR _i$1[ebp], eax
  00033	7d 41		 jge	 SHORT $LN3@SearchMatc

; 266  : 	{
; 267  : 		pGameMatchOption=m_GameMatchOptionArray[i];

  00035	8b 45 f4	 mov	 eax, DWORD PTR _i$1[ebp]
  00038	50		 push	 eax
  00039	8b 4d fc	 mov	 ecx, DWORD PTR _this$[ebp]
  0003c	83 c1 04	 add	 ecx, 4
  0003f	e8 00 00 00 00	 call	 ??A?$CWHArray@PAUtagGameMatchOption@@ABQAU1@@@QAEAAPAUtagGameMatchOption@@H@Z ; CWHArray<tagGameMatchOption *,tagGameMatchOption * const &>::operator[]
  00044	8b 08		 mov	 ecx, DWORD PTR [eax]
  00046	89 4d f8	 mov	 DWORD PTR _pGameMatchOption$[ebp], ecx

; 268  : 		if(pGameMatchOption->dwMatchID==dwMatchID && pGameMatchOption->lMatchNo==wMatchNO)

  00049	8b 45 f8	 mov	 eax, DWORD PTR _pGameMatchOption$[ebp]
  0004c	8b 08		 mov	 ecx, DWORD PTR [eax]
  0004e	3b 4d 08	 cmp	 ecx, DWORD PTR _dwMatchID$[ebp]
  00051	75 21		 jne	 SHORT $LN5@SearchMatc
  00053	8b 45 f8	 mov	 eax, DWORD PTR _pGameMatchOption$[ebp]
  00056	89 45 b0	 mov	 DWORD PTR tv87[ebp], eax
  00059	8b 4d b0	 mov	 ecx, DWORD PTR tv87[ebp]
  0005c	8b 51 08	 mov	 edx, DWORD PTR [ecx+8]
  0005f	3b 55 0c	 cmp	 edx, DWORD PTR _wMatchNO$[ebp]
  00062	75 10		 jne	 SHORT $LN5@SearchMatc
  00064	8b 45 b0	 mov	 eax, DWORD PTR tv87[ebp]
  00067	8b 48 0c	 mov	 ecx, DWORD PTR [eax+12]
  0006a	3b 4d 10	 cmp	 ecx, DWORD PTR _wMatchNO$[ebp+4]
  0006d	75 05		 jne	 SHORT $LN5@SearchMatc

; 269  : 		{
; 270  : 			return pGameMatchOption;

  0006f	8b 45 f8	 mov	 eax, DWORD PTR _pGameMatchOption$[ebp]
  00072	eb 04		 jmp	 SHORT $LN1@SearchMatc
$LN5@SearchMatc:

; 271  : 		}
; 272  : 	}

  00074	eb a6		 jmp	 SHORT $LN2@SearchMatc
$LN3@SearchMatc:

; 273  : 
; 274  : 	return NULL;

  00076	33 c0		 xor	 eax, eax
$LN1@SearchMatc:

; 275  : }

  00078	5f		 pop	 edi
  00079	5e		 pop	 esi
  0007a	5b		 pop	 ebx
  0007b	8b e5		 mov	 esp, ebp
  0007d	5d		 pop	 ebp
  0007e	c2 0c 00	 ret	 12			; 0000000cH
?SearchMatchOption@CMatchOptionBuffer@@QAEPAUtagGameMatchOption@@K_J@Z ENDP ; CMatchOptionBuffer::SearchMatchOption
_TEXT	ENDS
; Function compile flags: /Odtp /ZI
; File g:\网狐\happygamewh\服务端\系统模块\服务器组件\模块管理\serverinfomanager.cpp
;	COMDAT ?GetMatchOptionCount@CMatchOptionBuffer@@QAEKXZ
_TEXT	SEGMENT
_this$ = -4						; size = 4
?GetMatchOptionCount@CMatchOptionBuffer@@QAEKXZ PROC	; CMatchOptionBuffer::GetMatchOptionCount, COMDAT
; _this$ = ecx

; 254  : {

  00000	55		 push	 ebp
  00001	8b ec		 mov	 ebp, esp
  00003	83 ec 44	 sub	 esp, 68			; 00000044H
  00006	53		 push	 ebx
  00007	56		 push	 esi
  00008	57		 push	 edi
  00009	89 4d fc	 mov	 DWORD PTR _this$[ebp], ecx

; 255  : 	return (DWORD)(m_GameMatchOptionArray.GetCount());

  0000c	8b 4d fc	 mov	 ecx, DWORD PTR _this$[ebp]
  0000f	83 c1 04	 add	 ecx, 4
  00012	e8 00 00 00 00	 call	 ?GetCount@?$CWHArray@PAUtagGameMatchOption@@ABQAU1@@@QBEHXZ ; CWHArray<tagGameMatchOption *,tagGameMatchOption * const &>::GetCount

; 256  : }

  00017	5f		 pop	 edi
  00018	5e		 pop	 esi
  00019	5b		 pop	 ebx
  0001a	8b e5		 mov	 esp, ebp
  0001c	5d		 pop	 ebp
  0001d	c3		 ret	 0
?GetMatchOptionCount@CMatchOptionBuffer@@QAEKXZ ENDP	; CMatchOptionBuffer::GetMatchOptionCount
_TEXT	ENDS
; Function compile flags: /Odtp /ZI
; File g:\网狐\happygamewh\服务端\系统模块\服务器组件\模块管理\serverinfomanager.cpp
;	COMDAT ?InsertMatchOption@CMatchOptionBuffer@@QAE_NPAUtagGameMatchOption@@@Z
_TEXT	SEGMENT
_pGameMatchInsert$ = -8					; size = 4
_this$ = -4						; size = 4
_pGameMatchOption$ = 8					; size = 4
?InsertMatchOption@CMatchOptionBuffer@@QAE_NPAUtagGameMatchOption@@@Z PROC ; CMatchOptionBuffer::InsertMatchOption, COMDAT
; _this$ = ecx

; 223  : {

  00000	55		 push	 ebp
  00001	8b ec		 mov	 ebp, esp
  00003	83 ec 48	 sub	 esp, 72			; 00000048H
  00006	53		 push	 ebx
  00007	56		 push	 esi
  00008	57		 push	 edi
  00009	89 4d fc	 mov	 DWORD PTR _this$[ebp], ecx

; 224  : 	//效验参数
; 225  : 	ASSERT(pGameMatchOption!=NULL);

  0000c	83 7d 08 00	 cmp	 DWORD PTR _pGameMatchOption$[ebp], 0
  00010	75 18		 jne	 SHORT $LN6@InsertMatc
  00012	a1 00 00 00 00	 mov	 eax, DWORD PTR ?__LINE__Var@?0??InsertMatchOption@CMatchOptionBuffer@@QAE_NPAUtagGameMatchOption@@@Z@4JA
  00017	83 c0 02	 add	 eax, 2
  0001a	50		 push	 eax
  0001b	68 00 00 00 00	 push	 OFFSET ??_C@_0EO@GNEBGAKM@g?3?2?M?x?$LK?$PM?2happygamewh?2?$LH?$PO?N?q?$LG?K?2?O?$LF?M?$LD@
  00020	e8 00 00 00 00	 call	 ?AfxAssertFailedLine@@YGHPBDH@Z ; AfxAssertFailedLine
  00025	85 c0		 test	 eax, eax
  00027	74 01		 je	 SHORT $LN6@InsertMatc
  00029	cc		 int	 3
$LN6@InsertMatc:

; 226  : 	if (pGameMatchOption==NULL) return false;

  0002a	83 7d 08 00	 cmp	 DWORD PTR _pGameMatchOption$[ebp], 0
  0002e	75 04		 jne	 SHORT $LN2@InsertMatc
  00030	32 c0		 xor	 al, al
  00032	eb 7a		 jmp	 SHORT $LN1@InsertMatc
$LN2@InsertMatc:

; 227  : 
; 228  : 	//查找现存
; 229  : 	tagGameMatchOption * pGameMatchInsert=SearchMatchOption(pGameMatchOption->dwMatchID,pGameMatchOption->lMatchNo);

  00034	8b 45 08	 mov	 eax, DWORD PTR _pGameMatchOption$[ebp]
  00037	8b 48 0c	 mov	 ecx, DWORD PTR [eax+12]
  0003a	51		 push	 ecx
  0003b	8b 50 08	 mov	 edx, DWORD PTR [eax+8]
  0003e	52		 push	 edx
  0003f	8b 45 08	 mov	 eax, DWORD PTR _pGameMatchOption$[ebp]
  00042	8b 08		 mov	 ecx, DWORD PTR [eax]
  00044	51		 push	 ecx
  00045	8b 4d fc	 mov	 ecx, DWORD PTR _this$[ebp]
  00048	e8 00 00 00 00	 call	 ?SearchMatchOption@CMatchOptionBuffer@@QAEPAUtagGameMatchOption@@K_J@Z ; CMatchOptionBuffer::SearchMatchOption
  0004d	89 45 f8	 mov	 DWORD PTR _pGameMatchInsert$[ebp], eax

; 230  : 
; 231  : 	//创建判断
; 232  : 	if (pGameMatchInsert==NULL)

  00050	83 7d f8 00	 cmp	 DWORD PTR _pGameMatchInsert$[ebp], 0
  00054	75 32		 jne	 SHORT $LN3@InsertMatc

; 233  : 	{
; 234  : 		//创建对象
; 235  : 		pGameMatchInsert=CreateMatchOption();

  00056	8b 4d fc	 mov	 ecx, DWORD PTR _this$[ebp]
  00059	e8 00 00 00 00	 call	 ?CreateMatchOption@CMatchOptionBuffer@@AAEPAUtagGameMatchOption@@XZ ; CMatchOptionBuffer::CreateMatchOption
  0005e	89 45 f8	 mov	 DWORD PTR _pGameMatchInsert$[ebp], eax

; 236  : 
; 237  : 		//结果判断
; 238  : 		if (pGameMatchInsert==NULL)

  00061	83 7d f8 00	 cmp	 DWORD PTR _pGameMatchInsert$[ebp], 0
  00065	75 21		 jne	 SHORT $LN3@InsertMatc

; 239  : 		{
; 240  : 			ASSERT(FALSE);

  00067	33 c0		 xor	 eax, eax
  00069	75 19		 jne	 SHORT $LN7@InsertMatc
  0006b	8b 0d 00 00 00
	00		 mov	 ecx, DWORD PTR ?__LINE__Var@?0??InsertMatchOption@CMatchOptionBuffer@@QAE_NPAUtagGameMatchOption@@@Z@4JA
  00071	83 c1 11	 add	 ecx, 17			; 00000011H
  00074	51		 push	 ecx
  00075	68 00 00 00 00	 push	 OFFSET ??_C@_0EO@GNEBGAKM@g?3?2?M?x?$LK?$PM?2happygamewh?2?$LH?$PO?N?q?$LG?K?2?O?$LF?M?$LD@
  0007a	e8 00 00 00 00	 call	 ?AfxAssertFailedLine@@YGHPBDH@Z ; AfxAssertFailedLine
  0007f	85 c0		 test	 eax, eax
  00081	74 01		 je	 SHORT $LN7@InsertMatc
  00083	cc		 int	 3
$LN7@InsertMatc:

; 241  : 			return false;

  00084	32 c0		 xor	 al, al
  00086	eb 26		 jmp	 SHORT $LN1@InsertMatc
$LN3@InsertMatc:

; 242  : 		}
; 243  : 	}
; 244  : 
; 245  : 	//设置数据
; 246  : 	m_GameMatchOptionArray.Add(pGameMatchInsert);

  00088	8d 45 f8	 lea	 eax, DWORD PTR _pGameMatchInsert$[ebp]
  0008b	50		 push	 eax
  0008c	8b 4d fc	 mov	 ecx, DWORD PTR _this$[ebp]
  0008f	83 c1 04	 add	 ecx, 4
  00092	e8 00 00 00 00	 call	 ?Add@?$CWHArray@PAUtagGameMatchOption@@ABQAU1@@@QAEHABQAUtagGameMatchOption@@@Z ; CWHArray<tagGameMatchOption *,tagGameMatchOption * const &>::Add

; 247  : 	CopyMemory(pGameMatchInsert,pGameMatchOption,sizeof(tagGameMatchOption));

  00097	68 c8 02 00 00	 push	 712			; 000002c8H
  0009c	8b 45 08	 mov	 eax, DWORD PTR _pGameMatchOption$[ebp]
  0009f	50		 push	 eax
  000a0	8b 4d f8	 mov	 ecx, DWORD PTR _pGameMatchInsert$[ebp]
  000a3	51		 push	 ecx
  000a4	e8 00 00 00 00	 call	 _memcpy
  000a9	83 c4 0c	 add	 esp, 12			; 0000000cH

; 248  : 
; 249  : 	return true;

  000ac	b0 01		 mov	 al, 1
$LN1@InsertMatc:

; 250  : }

  000ae	5f		 pop	 edi
  000af	5e		 pop	 esi
  000b0	5b		 pop	 ebx
  000b1	8b e5		 mov	 esp, ebp
  000b3	5d		 pop	 ebp
  000b4	c2 04 00	 ret	 4
?InsertMatchOption@CMatchOptionBuffer@@QAE_NPAUtagGameMatchOption@@@Z ENDP ; CMatchOptionBuffer::InsertMatchOption
_TEXT	ENDS
; Function compile flags: /Odtp /ZI
; File g:\网狐\happygamewh\服务端\系统模块\服务器组件\模块管理\serverinfomanager.cpp
;	COMDAT ?DeleteMatchOption@CMatchOptionBuffer@@QAE_NKK@Z
_TEXT	SEGMENT
tv133 = -88						; size = 8
tv132 = -80						; size = 4
_i$1 = -12						; size = 4
_pGameMatchOption$ = -8					; size = 4
_this$ = -4						; size = 4
_dwMatchID$ = 8						; size = 4
_wMatchNO$ = 12						; size = 4
?DeleteMatchOption@CMatchOptionBuffer@@QAE_NKK@Z PROC	; CMatchOptionBuffer::DeleteMatchOption, COMDAT
; _this$ = ecx

; 197  : {

  00000	55		 push	 ebp
  00001	8b ec		 mov	 ebp, esp
  00003	83 ec 58	 sub	 esp, 88			; 00000058H
  00006	53		 push	 ebx
  00007	56		 push	 esi
  00008	57		 push	 edi
  00009	89 4d fc	 mov	 DWORD PTR _this$[ebp], ecx

; 198  : 	//变量定义
; 199  : 	tagGameMatchOption * pGameMatchOption=NULL;

  0000c	c7 45 f8 00 00
	00 00		 mov	 DWORD PTR _pGameMatchOption$[ebp], 0

; 200  : 
; 201  : 	//查找对象
; 202  : 	for(INT_PTR i=0;i<m_GameMatchOptionArray.GetCount();i++)

  00013	c7 45 f4 00 00
	00 00		 mov	 DWORD PTR _i$1[ebp], 0
  0001a	eb 09		 jmp	 SHORT $LN4@DeleteMatc
$LN2@DeleteMatc:
  0001c	8b 45 f4	 mov	 eax, DWORD PTR _i$1[ebp]
  0001f	83 c0 01	 add	 eax, 1
  00022	89 45 f4	 mov	 DWORD PTR _i$1[ebp], eax
$LN4@DeleteMatc:
  00025	8b 4d fc	 mov	 ecx, DWORD PTR _this$[ebp]
  00028	83 c1 04	 add	 ecx, 4
  0002b	e8 00 00 00 00	 call	 ?GetCount@?$CWHArray@PAUtagGameMatchOption@@ABQAU1@@@QBEHXZ ; CWHArray<tagGameMatchOption *,tagGameMatchOption * const &>::GetCount
  00030	39 45 f4	 cmp	 DWORD PTR _i$1[ebp], eax
  00033	7d 7f		 jge	 SHORT $LN3@DeleteMatc

; 203  : 	{
; 204  : 		pGameMatchOption=m_GameMatchOptionArray[i];

  00035	8b 45 f4	 mov	 eax, DWORD PTR _i$1[ebp]
  00038	50		 push	 eax
  00039	8b 4d fc	 mov	 ecx, DWORD PTR _this$[ebp]
  0003c	83 c1 04	 add	 ecx, 4
  0003f	e8 00 00 00 00	 call	 ??A?$CWHArray@PAUtagGameMatchOption@@ABQAU1@@@QAEAAPAUtagGameMatchOption@@H@Z ; CWHArray<tagGameMatchOption *,tagGameMatchOption * const &>::operator[]
  00044	8b 08		 mov	 ecx, DWORD PTR [eax]
  00046	89 4d f8	 mov	 DWORD PTR _pGameMatchOption$[ebp], ecx

; 205  : 		if(pGameMatchOption->dwMatchID==dwMatchID && pGameMatchOption->lMatchNo==wMatchNO)

  00049	8b 45 f8	 mov	 eax, DWORD PTR _pGameMatchOption$[ebp]
  0004c	8b 08		 mov	 ecx, DWORD PTR [eax]
  0004e	3b 4d 08	 cmp	 ecx, DWORD PTR _dwMatchID$[ebp]
  00051	75 5c		 jne	 SHORT $LN5@DeleteMatc
  00053	8b 45 0c	 mov	 eax, DWORD PTR _wMatchNO$[ebp]
  00056	33 c9		 xor	 ecx, ecx
  00058	8b 55 f8	 mov	 edx, DWORD PTR _pGameMatchOption$[ebp]
  0005b	89 55 b0	 mov	 DWORD PTR tv132[ebp], edx
  0005e	89 45 a8	 mov	 DWORD PTR tv133[ebp], eax
  00061	89 4d ac	 mov	 DWORD PTR tv133[ebp+4], ecx
  00064	8b 45 b0	 mov	 eax, DWORD PTR tv132[ebp]
  00067	8b 48 08	 mov	 ecx, DWORD PTR [eax+8]
  0006a	3b 4d a8	 cmp	 ecx, DWORD PTR tv133[ebp]
  0006d	75 40		 jne	 SHORT $LN5@DeleteMatc
  0006f	8b 55 b0	 mov	 edx, DWORD PTR tv132[ebp]
  00072	8b 42 0c	 mov	 eax, DWORD PTR [edx+12]
  00075	3b 45 ac	 cmp	 eax, DWORD PTR tv133[ebp+4]
  00078	75 35		 jne	 SHORT $LN5@DeleteMatc

; 206  : 		{
; 207  : 			//删除数据
; 208  : 			m_GameMatchOptionArray.RemoveAt(i);

  0007a	6a 01		 push	 1
  0007c	8b 45 f4	 mov	 eax, DWORD PTR _i$1[ebp]
  0007f	50		 push	 eax
  00080	8b 4d fc	 mov	 ecx, DWORD PTR _this$[ebp]
  00083	83 c1 04	 add	 ecx, 4
  00086	e8 00 00 00 00	 call	 ?RemoveAt@?$CWHArray@PAUtagGameMatchOption@@ABQAU1@@@QAEXHH@Z ; CWHArray<tagGameMatchOption *,tagGameMatchOption * const &>::RemoveAt

; 209  : 			m_GameMatchOptionBuffer.Add(pGameMatchOption);

  0008b	8d 45 f8	 lea	 eax, DWORD PTR _pGameMatchOption$[ebp]
  0008e	50		 push	 eax
  0008f	8b 4d fc	 mov	 ecx, DWORD PTR _this$[ebp]
  00092	83 c1 18	 add	 ecx, 24			; 00000018H
  00095	e8 00 00 00 00	 call	 ?Add@?$CWHArray@PAUtagGameMatchOption@@ABQAU1@@@QAEHABQAUtagGameMatchOption@@@Z ; CWHArray<tagGameMatchOption *,tagGameMatchOption * const &>::Add

; 210  : 
; 211  : 			//设置变量
; 212  : 			ZeroMemory(pGameMatchOption,sizeof(tagGameMatchOption));

  0009a	68 c8 02 00 00	 push	 712			; 000002c8H
  0009f	6a 00		 push	 0
  000a1	8b 45 f8	 mov	 eax, DWORD PTR _pGameMatchOption$[ebp]
  000a4	50		 push	 eax
  000a5	e8 00 00 00 00	 call	 _memset
  000aa	83 c4 0c	 add	 esp, 12			; 0000000cH

; 213  : 
; 214  : 			break;

  000ad	eb 05		 jmp	 SHORT $LN3@DeleteMatc
$LN5@DeleteMatc:

; 215  : 		}
; 216  : 	}	

  000af	e9 68 ff ff ff	 jmp	 $LN2@DeleteMatc
$LN3@DeleteMatc:

; 217  : 
; 218  : 	return true;

  000b4	b0 01		 mov	 al, 1

; 219  : }

  000b6	5f		 pop	 edi
  000b7	5e		 pop	 esi
  000b8	5b		 pop	 ebx
  000b9	8b e5		 mov	 esp, ebp
  000bb	5d		 pop	 ebp
  000bc	c2 08 00	 ret	 8
?DeleteMatchOption@CMatchOptionBuffer@@QAE_NKK@Z ENDP	; CMatchOptionBuffer::DeleteMatchOption
_TEXT	ENDS
; Function compile flags: /Odtp /ZI
; File g:\网狐\happygamewh\服务端\系统模块\服务器组件\模块管理\serverinfomanager.cpp
;	COMDAT ?ResetMatchOption@CMatchOptionBuffer@@QAE_NXZ
_TEXT	SEGMENT
_this$ = -4						; size = 4
?ResetMatchOption@CMatchOptionBuffer@@QAE_NXZ PROC	; CMatchOptionBuffer::ResetMatchOption, COMDAT
; _this$ = ecx

; 185  : {

  00000	55		 push	 ebp
  00001	8b ec		 mov	 ebp, esp
  00003	83 ec 44	 sub	 esp, 68			; 00000044H
  00006	53		 push	 ebx
  00007	56		 push	 esi
  00008	57		 push	 edi
  00009	89 4d fc	 mov	 DWORD PTR _this$[ebp], ecx

; 186  : 	//添加对象
; 187  : 	m_GameMatchOptionBuffer.Append(m_GameMatchOptionArray);

  0000c	8b 45 fc	 mov	 eax, DWORD PTR _this$[ebp]
  0000f	83 c0 04	 add	 eax, 4
  00012	50		 push	 eax
  00013	8b 4d fc	 mov	 ecx, DWORD PTR _this$[ebp]
  00016	83 c1 18	 add	 ecx, 24			; 00000018H
  00019	e8 00 00 00 00	 call	 ?Append@?$CWHArray@PAUtagGameMatchOption@@ABQAU1@@@QAEHABV1@@Z ; CWHArray<tagGameMatchOption *,tagGameMatchOption * const &>::Append

; 188  : 
; 189  : 	//删除元素
; 190  : 	m_GameMatchOptionArray.RemoveAll();

  0001e	8b 4d fc	 mov	 ecx, DWORD PTR _this$[ebp]
  00021	83 c1 04	 add	 ecx, 4
  00024	e8 00 00 00 00	 call	 ?RemoveAll@?$CWHArray@PAUtagGameMatchOption@@ABQAU1@@@QAEXXZ ; CWHArray<tagGameMatchOption *,tagGameMatchOption * const &>::RemoveAll

; 191  : 
; 192  : 	return true;

  00029	b0 01		 mov	 al, 1

; 193  : }

  0002b	5f		 pop	 edi
  0002c	5e		 pop	 esi
  0002d	5b		 pop	 ebx
  0002e	8b e5		 mov	 esp, ebp
  00030	5d		 pop	 ebp
  00031	c3		 ret	 0
?ResetMatchOption@CMatchOptionBuffer@@QAE_NXZ ENDP	; CMatchOptionBuffer::ResetMatchOption
_TEXT	ENDS
; Function compile flags: /Odtp /ZI
; File g:\网狐\happygamewh\服务端\系统模块\服务器组件\模块管理\serverinfomanager.cpp
;	COMDAT ??1CMatchOptionBuffer@@UAE@XZ
_TEXT	SEGMENT
$T2 = -96						; size = 4
_i$3 = -28						; size = 4
_pGameMatchOption$ = -24				; size = 4
_this$ = -20						; size = 4
__$EHRec$ = -16						; size = 16
??1CMatchOptionBuffer@@UAE@XZ PROC			; CMatchOptionBuffer::~CMatchOptionBuffer, COMDAT
; _this$ = ecx

; 164  : {

  00000	55		 push	 ebp
  00001	8b ec		 mov	 ebp, esp
  00003	6a ff		 push	 -1
  00005	68 00 00 00 00	 push	 __ehhandler$??1CMatchOptionBuffer@@UAE@XZ
  0000a	64 a1 00 00 00
	00		 mov	 eax, DWORD PTR fs:0
  00010	50		 push	 eax
  00011	51		 push	 ecx
  00012	83 ec 50	 sub	 esp, 80			; 00000050H
  00015	53		 push	 ebx
  00016	56		 push	 esi
  00017	57		 push	 edi
  00018	a1 00 00 00 00	 mov	 eax, DWORD PTR ___security_cookie
  0001d	33 c5		 xor	 eax, ebp
  0001f	50		 push	 eax
  00020	8d 45 f4	 lea	 eax, DWORD PTR __$EHRec$[ebp+4]
  00023	64 a3 00 00 00
	00		 mov	 DWORD PTR fs:0, eax
  00029	89 65 f0	 mov	 DWORD PTR __$EHRec$[ebp], esp
  0002c	89 4d ec	 mov	 DWORD PTR _this$[ebp], ecx
  0002f	8b 45 ec	 mov	 eax, DWORD PTR _this$[ebp]
  00032	c7 00 00 00 00
	00		 mov	 DWORD PTR [eax], OFFSET ??_7CMatchOptionBuffer@@6B@
  00038	c7 45 fc 01 00
	00 00		 mov	 DWORD PTR __$EHRec$[ebp+12], 1

; 165  : 	//变量定义
; 166  : 	tagGameMatchOption * pGameMatchOption=NULL;

  0003f	c7 45 e8 00 00
	00 00		 mov	 DWORD PTR _pGameMatchOption$[ebp], 0

; 167  : 
; 168  : 	//删除数组
; 169  : 	m_GameMatchOptionBuffer.Append(m_GameMatchOptionArray);

  00046	8b 45 ec	 mov	 eax, DWORD PTR _this$[ebp]
  00049	83 c0 04	 add	 eax, 4
  0004c	50		 push	 eax
  0004d	8b 4d ec	 mov	 ecx, DWORD PTR _this$[ebp]
  00050	83 c1 18	 add	 ecx, 24			; 00000018H
  00053	e8 00 00 00 00	 call	 ?Append@?$CWHArray@PAUtagGameMatchOption@@ABQAU1@@@QAEHABV1@@Z ; CWHArray<tagGameMatchOption *,tagGameMatchOption * const &>::Append

; 170  : 	for (INT_PTR i=0;i<m_GameMatchOptionBuffer.GetCount();i++)

  00058	c7 45 e4 00 00
	00 00		 mov	 DWORD PTR _i$3[ebp], 0
  0005f	eb 09		 jmp	 SHORT $LN4@CMatchOpti
$LN2@CMatchOpti:
  00061	8b 45 e4	 mov	 eax, DWORD PTR _i$3[ebp]
  00064	83 c0 01	 add	 eax, 1
  00067	89 45 e4	 mov	 DWORD PTR _i$3[ebp], eax
$LN4@CMatchOpti:
  0006a	8b 4d ec	 mov	 ecx, DWORD PTR _this$[ebp]
  0006d	83 c1 18	 add	 ecx, 24			; 00000018H
  00070	e8 00 00 00 00	 call	 ?GetCount@?$CWHArray@PAUtagGameMatchOption@@ABQAU1@@@QBEHXZ ; CWHArray<tagGameMatchOption *,tagGameMatchOption * const &>::GetCount
  00075	39 45 e4	 cmp	 DWORD PTR _i$3[ebp], eax
  00078	7d 70		 jge	 SHORT $LN3@CMatchOpti

; 171  : 	{
; 172  : 		pGameMatchOption=m_GameMatchOptionBuffer[i];

  0007a	8b 45 e4	 mov	 eax, DWORD PTR _i$3[ebp]
  0007d	50		 push	 eax
  0007e	8b 4d ec	 mov	 ecx, DWORD PTR _this$[ebp]
  00081	83 c1 18	 add	 ecx, 24			; 00000018H
  00084	e8 00 00 00 00	 call	 ??A?$CWHArray@PAUtagGameMatchOption@@ABQAU1@@@QAEAAPAUtagGameMatchOption@@H@Z ; CWHArray<tagGameMatchOption *,tagGameMatchOption * const &>::operator[]
  00089	8b 08		 mov	 ecx, DWORD PTR [eax]
  0008b	89 4d e8	 mov	 DWORD PTR _pGameMatchOption$[ebp], ecx

; 173  : 		SafeDelete(pGameMatchOption);

  0008e	c6 45 fc 02	 mov	 BYTE PTR __$EHRec$[ebp+12], 2
  00092	8b 45 e8	 mov	 eax, DWORD PTR _pGameMatchOption$[ebp]
  00095	89 45 a0	 mov	 DWORD PTR $T2[ebp], eax
  00098	68 c8 02 00 00	 push	 712			; 000002c8H
  0009d	8b 4d a0	 mov	 ecx, DWORD PTR $T2[ebp]
  000a0	51		 push	 ecx
  000a1	e8 00 00 00 00	 call	 ??3@YAXPAXI@Z		; operator delete
  000a6	83 c4 08	 add	 esp, 8
  000a9	eb 23		 jmp	 SHORT $LN8@CMatchOpti
__catch$??1CMatchOptionBuffer@@UAE@XZ$0:
  000ab	33 c0		 xor	 eax, eax
  000ad	75 19		 jne	 SHORT $LN7@CMatchOpti
  000af	8b 0d 00 00 00
	00		 mov	 ecx, DWORD PTR ?__LINE__Var@?0???1CMatchOptionBuffer@@UAE@XZ@4JA
  000b5	83 c1 09	 add	 ecx, 9
  000b8	51		 push	 ecx
  000b9	68 00 00 00 00	 push	 OFFSET ??_C@_0EO@GNEBGAKM@g?3?2?M?x?$LK?$PM?2happygamewh?2?$LH?$PO?N?q?$LG?K?2?O?$LF?M?$LD@
  000be	e8 00 00 00 00	 call	 ?AfxAssertFailedLine@@YGHPBDH@Z ; AfxAssertFailedLine
  000c3	85 c0		 test	 eax, eax
  000c5	74 01		 je	 SHORT $LN7@CMatchOpti
  000c7	cc		 int	 3
$LN7@CMatchOpti:
  000c8	b8 00 00 00 00	 mov	 eax, $LN13@CMatchOpti
  000cd	c3		 ret	 0
$LN8@CMatchOpti:
  000ce	c7 45 fc 01 00
	00 00		 mov	 DWORD PTR __$EHRec$[ebp+12], 1
  000d5	eb 07		 jmp	 SHORT __tryend$??1CMatchOptionBuffer@@UAE@XZ$1
$LN13@CMatchOpti:
  000d7	c7 45 fc 01 00
	00 00		 mov	 DWORD PTR __$EHRec$[ebp+12], 1
__tryend$??1CMatchOptionBuffer@@UAE@XZ$1:
  000de	c7 45 e8 00 00
	00 00		 mov	 DWORD PTR _pGameMatchOption$[ebp], 0

; 174  : 	}

  000e5	e9 77 ff ff ff	 jmp	 $LN2@CMatchOpti
$LN3@CMatchOpti:

; 175  : 
; 176  : 	//删除引用
; 177  : 	m_GameMatchOptionArray.RemoveAll();

  000ea	8b 4d ec	 mov	 ecx, DWORD PTR _this$[ebp]
  000ed	83 c1 04	 add	 ecx, 4
  000f0	e8 00 00 00 00	 call	 ?RemoveAll@?$CWHArray@PAUtagGameMatchOption@@ABQAU1@@@QAEXXZ ; CWHArray<tagGameMatchOption *,tagGameMatchOption * const &>::RemoveAll

; 178  : 	m_GameMatchOptionBuffer.RemoveAll();

  000f5	8b 4d ec	 mov	 ecx, DWORD PTR _this$[ebp]
  000f8	83 c1 18	 add	 ecx, 24			; 00000018H
  000fb	e8 00 00 00 00	 call	 ?RemoveAll@?$CWHArray@PAUtagGameMatchOption@@ABQAU1@@@QAEXXZ ; CWHArray<tagGameMatchOption *,tagGameMatchOption * const &>::RemoveAll

; 179  : 
; 180  : 	return;
; 181  : }

  00100	c6 45 fc 00	 mov	 BYTE PTR __$EHRec$[ebp+12], 0
  00104	8b 4d ec	 mov	 ecx, DWORD PTR _this$[ebp]
  00107	83 c1 18	 add	 ecx, 24			; 00000018H
  0010a	e8 00 00 00 00	 call	 ??1?$CWHArray@PAUtagGameMatchOption@@ABQAU1@@@UAE@XZ ; CWHArray<tagGameMatchOption *,tagGameMatchOption * const &>::~CWHArray<tagGameMatchOption *,tagGameMatchOption * const &>
  0010f	c7 45 fc ff ff
	ff ff		 mov	 DWORD PTR __$EHRec$[ebp+12], -1
  00116	8b 4d ec	 mov	 ecx, DWORD PTR _this$[ebp]
  00119	83 c1 04	 add	 ecx, 4
  0011c	e8 00 00 00 00	 call	 ??1?$CWHArray@PAUtagGameMatchOption@@ABQAU1@@@UAE@XZ ; CWHArray<tagGameMatchOption *,tagGameMatchOption * const &>::~CWHArray<tagGameMatchOption *,tagGameMatchOption * const &>
  00121	8b 4d f4	 mov	 ecx, DWORD PTR __$EHRec$[ebp+4]
  00124	64 89 0d 00 00
	00 00		 mov	 DWORD PTR fs:0, ecx
  0012b	59		 pop	 ecx
  0012c	5f		 pop	 edi
  0012d	5e		 pop	 esi
  0012e	5b		 pop	 ebx
  0012f	8b e5		 mov	 esp, ebp
  00131	5d		 pop	 ebp
  00132	c3		 ret	 0
_TEXT	ENDS
;	COMDAT text$x
text$x	SEGMENT
__unwindfunclet$??1CMatchOptionBuffer@@UAE@XZ$2:
  00000	8b 4d ec	 mov	 ecx, DWORD PTR _this$[ebp]
  00003	83 c1 04	 add	 ecx, 4
  00006	e9 00 00 00 00	 jmp	 ??1?$CWHArray@PAUtagGameMatchOption@@ABQAU1@@@UAE@XZ ; CWHArray<tagGameMatchOption *,tagGameMatchOption * const &>::~CWHArray<tagGameMatchOption *,tagGameMatchOption * const &>
__unwindfunclet$??1CMatchOptionBuffer@@UAE@XZ$3:
  0000b	8b 4d ec	 mov	 ecx, DWORD PTR _this$[ebp]
  0000e	83 c1 18	 add	 ecx, 24			; 00000018H
  00011	e9 00 00 00 00	 jmp	 ??1?$CWHArray@PAUtagGameMatchOption@@ABQAU1@@@UAE@XZ ; CWHArray<tagGameMatchOption *,tagGameMatchOption * const &>::~CWHArray<tagGameMatchOption *,tagGameMatchOption * const &>
__ehhandler$??1CMatchOptionBuffer@@UAE@XZ:
  00016	8b 54 24 08	 mov	 edx, DWORD PTR [esp+8]
  0001a	8d 42 0c	 lea	 eax, DWORD PTR [edx+12]
  0001d	8b 4a 9c	 mov	 ecx, DWORD PTR [edx-100]
  00020	33 c8		 xor	 ecx, eax
  00022	e8 00 00 00 00	 call	 @__security_check_cookie@4
  00027	b8 00 00 00 00	 mov	 eax, OFFSET __ehfuncinfo$??1CMatchOptionBuffer@@UAE@XZ
  0002c	e9 00 00 00 00	 jmp	 ___CxxFrameHandler3
text$x	ENDS
??1CMatchOptionBuffer@@UAE@XZ ENDP			; CMatchOptionBuffer::~CMatchOptionBuffer
; Function compile flags: /Odtp /ZI
; File g:\网狐\happygamewh\服务端\系统模块\服务器组件\模块管理\serverinfomanager.cpp
;	COMDAT ??0CMatchOptionBuffer@@QAE@XZ
_TEXT	SEGMENT
_this$ = -16						; size = 4
__$EHRec$ = -12						; size = 12
??0CMatchOptionBuffer@@QAE@XZ PROC			; CMatchOptionBuffer::CMatchOptionBuffer, COMDAT
; _this$ = ecx

; 159  : {

  00000	55		 push	 ebp
  00001	8b ec		 mov	 ebp, esp
  00003	6a ff		 push	 -1
  00005	68 00 00 00 00	 push	 __ehhandler$??0CMatchOptionBuffer@@QAE@XZ
  0000a	64 a1 00 00 00
	00		 mov	 eax, DWORD PTR fs:0
  00010	50		 push	 eax
  00011	83 ec 44	 sub	 esp, 68			; 00000044H
  00014	53		 push	 ebx
  00015	56		 push	 esi
  00016	57		 push	 edi
  00017	a1 00 00 00 00	 mov	 eax, DWORD PTR ___security_cookie
  0001c	33 c5		 xor	 eax, ebp
  0001e	50		 push	 eax
  0001f	8d 45 f4	 lea	 eax, DWORD PTR __$EHRec$[ebp]
  00022	64 a3 00 00 00
	00		 mov	 DWORD PTR fs:0, eax
  00028	89 4d f0	 mov	 DWORD PTR _this$[ebp], ecx
  0002b	8b 45 f0	 mov	 eax, DWORD PTR _this$[ebp]
  0002e	c7 00 00 00 00
	00		 mov	 DWORD PTR [eax], OFFSET ??_7CMatchOptionBuffer@@6B@
  00034	8b 4d f0	 mov	 ecx, DWORD PTR _this$[ebp]
  00037	83 c1 04	 add	 ecx, 4
  0003a	e8 00 00 00 00	 call	 ??0?$CWHArray@PAUtagGameMatchOption@@ABQAU1@@@QAE@XZ ; CWHArray<tagGameMatchOption *,tagGameMatchOption * const &>::CWHArray<tagGameMatchOption *,tagGameMatchOption * const &>
  0003f	c7 45 fc 00 00
	00 00		 mov	 DWORD PTR __$EHRec$[ebp+8], 0
  00046	8b 4d f0	 mov	 ecx, DWORD PTR _this$[ebp]
  00049	83 c1 18	 add	 ecx, 24			; 00000018H
  0004c	e8 00 00 00 00	 call	 ??0?$CWHArray@PAUtagGameMatchOption@@ABQAU1@@@QAE@XZ ; CWHArray<tagGameMatchOption *,tagGameMatchOption * const &>::CWHArray<tagGameMatchOption *,tagGameMatchOption * const &>

; 160  : }

  00051	c7 45 fc ff ff
	ff ff		 mov	 DWORD PTR __$EHRec$[ebp+8], -1
  00058	8b 45 f0	 mov	 eax, DWORD PTR _this$[ebp]
  0005b	8b 4d f4	 mov	 ecx, DWORD PTR __$EHRec$[ebp]
  0005e	64 89 0d 00 00
	00 00		 mov	 DWORD PTR fs:0, ecx
  00065	59		 pop	 ecx
  00066	5f		 pop	 edi
  00067	5e		 pop	 esi
  00068	5b		 pop	 ebx
  00069	8b e5		 mov	 esp, ebp
  0006b	5d		 pop	 ebp
  0006c	c3		 ret	 0
_TEXT	ENDS
;	COMDAT text$x
text$x	SEGMENT
__unwindfunclet$??0CMatchOptionBuffer@@QAE@XZ$0:
  00000	8b 4d f0	 mov	 ecx, DWORD PTR _this$[ebp]
  00003	83 c1 04	 add	 ecx, 4
  00006	e9 00 00 00 00	 jmp	 ??1?$CWHArray@PAUtagGameMatchOption@@ABQAU1@@@UAE@XZ ; CWHArray<tagGameMatchOption *,tagGameMatchOption * const &>::~CWHArray<tagGameMatchOption *,tagGameMatchOption * const &>
__ehhandler$??0CMatchOptionBuffer@@QAE@XZ:
  0000b	8b 54 24 08	 mov	 edx, DWORD PTR [esp+8]
  0000f	8d 42 0c	 lea	 eax, DWORD PTR [edx+12]
  00012	8b 4a ac	 mov	 ecx, DWORD PTR [edx-84]
  00015	33 c8		 xor	 ecx, eax
  00017	e8 00 00 00 00	 call	 @__security_check_cookie@4
  0001c	b8 00 00 00 00	 mov	 eax, OFFSET __ehfuncinfo$??0CMatchOptionBuffer@@QAE@XZ
  00021	e9 00 00 00 00	 jmp	 ___CxxFrameHandler3
text$x	ENDS
??0CMatchOptionBuffer@@QAE@XZ ENDP			; CMatchOptionBuffer::CMatchOptionBuffer
; Function compile flags: /Odtp /ZI
;	COMDAT ??_G?$CWHArray@PAUtagGameMatchOption@@ABQAU1@@@UAEPAXI@Z
_TEXT	SEGMENT
_this$ = -4						; size = 4
___flags$ = 8						; size = 4
??_G?$CWHArray@PAUtagGameMatchOption@@ABQAU1@@@UAEPAXI@Z PROC ; CWHArray<tagGameMatchOption *,tagGameMatchOption * const &>::`scalar deleting destructor', COMDAT
; _this$ = ecx
  00000	55		 push	 ebp
  00001	8b ec		 mov	 ebp, esp
  00003	83 ec 44	 sub	 esp, 68			; 00000044H
  00006	53		 push	 ebx
  00007	56		 push	 esi
  00008	57		 push	 edi
  00009	89 4d fc	 mov	 DWORD PTR _this$[ebp], ecx
  0000c	8b 4d fc	 mov	 ecx, DWORD PTR _this$[ebp]
  0000f	e8 00 00 00 00	 call	 ??1?$CWHArray@PAUtagGameMatchOption@@ABQAU1@@@UAE@XZ ; CWHArray<tagGameMatchOption *,tagGameMatchOption * const &>::~CWHArray<tagGameMatchOption *,tagGameMatchOption * const &>
  00014	8b 45 08	 mov	 eax, DWORD PTR ___flags$[ebp]
  00017	83 e0 01	 and	 eax, 1
  0001a	74 0e		 je	 SHORT $LN2@scalar
  0001c	6a 14		 push	 20			; 00000014H
  0001e	8b 45 fc	 mov	 eax, DWORD PTR _this$[ebp]
  00021	50		 push	 eax
  00022	e8 00 00 00 00	 call	 ??3@YAXPAXI@Z		; operator delete
  00027	83 c4 08	 add	 esp, 8
$LN2@scalar:
  0002a	8b 45 fc	 mov	 eax, DWORD PTR _this$[ebp]
  0002d	5f		 pop	 edi
  0002e	5e		 pop	 esi
  0002f	5b		 pop	 ebx
  00030	8b e5		 mov	 esp, ebp
  00032	5d		 pop	 ebp
  00033	c2 04 00	 ret	 4
??_G?$CWHArray@PAUtagGameMatchOption@@ABQAU1@@@UAEPAXI@Z ENDP ; CWHArray<tagGameMatchOption *,tagGameMatchOption * const &>::`scalar deleting destructor'
_TEXT	ENDS
; Function compile flags: /Odtp /ZI
;	COMDAT ??4?$CWHArray@PAUtagGameMatchOption@@ABQAU1@@@QAEAAV0@ABV0@@Z
_TEXT	SEGMENT
_this$ = -4						; size = 4
___that$ = 8						; size = 4
??4?$CWHArray@PAUtagGameMatchOption@@ABQAU1@@@QAEAAV0@ABV0@@Z PROC ; CWHArray<tagGameMatchOption *,tagGameMatchOption * const &>::operator=, COMDAT
; _this$ = ecx
  00000	55		 push	 ebp
  00001	8b ec		 mov	 ebp, esp
  00003	83 ec 44	 sub	 esp, 68			; 00000044H
  00006	53		 push	 ebx
  00007	56		 push	 esi
  00008	57		 push	 edi
  00009	89 4d fc	 mov	 DWORD PTR _this$[ebp], ecx
  0000c	8b 45 fc	 mov	 eax, DWORD PTR _this$[ebp]
  0000f	8b 4d 08	 mov	 ecx, DWORD PTR ___that$[ebp]
  00012	8b 51 04	 mov	 edx, DWORD PTR [ecx+4]
  00015	89 50 04	 mov	 DWORD PTR [eax+4], edx
  00018	8b 45 fc	 mov	 eax, DWORD PTR _this$[ebp]
  0001b	8b 4d 08	 mov	 ecx, DWORD PTR ___that$[ebp]
  0001e	8b 51 08	 mov	 edx, DWORD PTR [ecx+8]
  00021	89 50 08	 mov	 DWORD PTR [eax+8], edx
  00024	8b 45 fc	 mov	 eax, DWORD PTR _this$[ebp]
  00027	8b 4d 08	 mov	 ecx, DWORD PTR ___that$[ebp]
  0002a	8b 51 0c	 mov	 edx, DWORD PTR [ecx+12]
  0002d	89 50 0c	 mov	 DWORD PTR [eax+12], edx
  00030	8b 45 fc	 mov	 eax, DWORD PTR _this$[ebp]
  00033	8b 4d 08	 mov	 ecx, DWORD PTR ___that$[ebp]
  00036	8b 51 10	 mov	 edx, DWORD PTR [ecx+16]
  00039	89 50 10	 mov	 DWORD PTR [eax+16], edx
  0003c	8b 45 fc	 mov	 eax, DWORD PTR _this$[ebp]
  0003f	5f		 pop	 edi
  00040	5e		 pop	 esi
  00041	5b		 pop	 ebx
  00042	8b e5		 mov	 esp, ebp
  00044	5d		 pop	 ebp
  00045	c2 04 00	 ret	 4
??4?$CWHArray@PAUtagGameMatchOption@@ABQAU1@@@QAEAAV0@ABV0@@Z ENDP ; CWHArray<tagGameMatchOption *,tagGameMatchOption * const &>::operator=
_TEXT	ENDS
; Function compile flags: /Odtp /ZI
;	COMDAT ??0?$CWHArray@PAUtagGameMatchOption@@ABQAU1@@@QAE@ABV0@@Z
_TEXT	SEGMENT
_this$ = -4						; size = 4
___that$ = 8						; size = 4
??0?$CWHArray@PAUtagGameMatchOption@@ABQAU1@@@QAE@ABV0@@Z PROC ; CWHArray<tagGameMatchOption *,tagGameMatchOption * const &>::CWHArray<tagGameMatchOption *,tagGameMatchOption * const &>, COMDAT
; _this$ = ecx
  00000	55		 push	 ebp
  00001	8b ec		 mov	 ebp, esp
  00003	83 ec 44	 sub	 esp, 68			; 00000044H
  00006	53		 push	 ebx
  00007	56		 push	 esi
  00008	57		 push	 edi
  00009	89 4d fc	 mov	 DWORD PTR _this$[ebp], ecx
  0000c	8b 45 fc	 mov	 eax, DWORD PTR _this$[ebp]
  0000f	c7 00 00 00 00
	00		 mov	 DWORD PTR [eax], OFFSET ??_7?$CWHArray@PAUtagGameMatchOption@@ABQAU1@@@6B@
  00015	8b 45 fc	 mov	 eax, DWORD PTR _this$[ebp]
  00018	8b 4d 08	 mov	 ecx, DWORD PTR ___that$[ebp]
  0001b	8b 51 04	 mov	 edx, DWORD PTR [ecx+4]
  0001e	89 50 04	 mov	 DWORD PTR [eax+4], edx
  00021	8b 45 fc	 mov	 eax, DWORD PTR _this$[ebp]
  00024	8b 4d 08	 mov	 ecx, DWORD PTR ___that$[ebp]
  00027	8b 51 08	 mov	 edx, DWORD PTR [ecx+8]
  0002a	89 50 08	 mov	 DWORD PTR [eax+8], edx
  0002d	8b 45 fc	 mov	 eax, DWORD PTR _this$[ebp]
  00030	8b 4d 08	 mov	 ecx, DWORD PTR ___that$[ebp]
  00033	8b 51 0c	 mov	 edx, DWORD PTR [ecx+12]
  00036	89 50 0c	 mov	 DWORD PTR [eax+12], edx
  00039	8b 45 fc	 mov	 eax, DWORD PTR _this$[ebp]
  0003c	8b 4d 08	 mov	 ecx, DWORD PTR ___that$[ebp]
  0003f	8b 51 10	 mov	 edx, DWORD PTR [ecx+16]
  00042	89 50 10	 mov	 DWORD PTR [eax+16], edx
  00045	8b 45 fc	 mov	 eax, DWORD PTR _this$[ebp]
  00048	5f		 pop	 edi
  00049	5e		 pop	 esi
  0004a	5b		 pop	 ebx
  0004b	8b e5		 mov	 esp, ebp
  0004d	5d		 pop	 ebp
  0004e	c2 04 00	 ret	 4
??0?$CWHArray@PAUtagGameMatchOption@@ABQAU1@@@QAE@ABV0@@Z ENDP ; CWHArray<tagGameMatchOption *,tagGameMatchOption * const &>::CWHArray<tagGameMatchOption *,tagGameMatchOption * const &>
_TEXT	ENDS
; Function compile flags: /Odtp /ZI
; File g:\网狐\happygamewh\服务端\系统模块\全局定义\array.h
;	COMDAT ?AllocMemory@?$CWHArray@PAUtagGameMatchOption@@ABQAU1@@@QAEXH@Z
_TEXT	SEGMENT
tv78 = -92						; size = 4
tv79 = -88						; size = 4
$T1 = -84						; size = 4
$T2 = -80						; size = 4
_pNewData$3 = -12					; size = 4
_nGrowCount$4 = -8					; size = 4
_this$ = -4						; size = 4
_nNewCount$ = 8						; size = 4
?AllocMemory@?$CWHArray@PAUtagGameMatchOption@@ABQAU1@@@QAEXH@Z PROC ; CWHArray<tagGameMatchOption *,tagGameMatchOption * const &>::AllocMemory, COMDAT
; _this$ = ecx

; 413  : {

  00000	55		 push	 ebp
  00001	8b ec		 mov	 ebp, esp
  00003	83 ec 5c	 sub	 esp, 92			; 0000005cH
  00006	53		 push	 ebx
  00007	56		 push	 esi
  00008	57		 push	 edi
  00009	89 4d fc	 mov	 DWORD PTR _this$[ebp], ecx

; 414  : 	//效验参数
; 415  : 	ASSERT(nNewCount>=0);

  0000c	83 7d 08 00	 cmp	 DWORD PTR _nNewCount$[ebp], 0
  00010	7d 14		 jge	 SHORT $LN5@AllocMemor
  00012	68 9f 01 00 00	 push	 415			; 0000019fH
  00017	68 00 00 00 00	 push	 OFFSET ??_C@_0DF@LDFGAABH@g?3?2?M?x?$LK?$PM?2happygamewh?2?$LH?$PO?N?q?$LG?K?2?O?$LF?M?$LD@
  0001c	e8 00 00 00 00	 call	 ?AfxAssertFailedLine@@YGHPBDH@Z ; AfxAssertFailedLine
  00021	85 c0		 test	 eax, eax
  00023	74 01		 je	 SHORT $LN5@AllocMemor
  00025	cc		 int	 3
$LN5@AllocMemor:

; 416  : 
; 417  : 	if (nNewCount>m_nMaxCount)

  00026	8b 45 fc	 mov	 eax, DWORD PTR _this$[ebp]
  00029	8b 4d 08	 mov	 ecx, DWORD PTR _nNewCount$[ebp]
  0002c	3b 48 08	 cmp	 ecx, DWORD PTR [eax+8]
  0002f	0f 8e dd 00 00
	00		 jle	 $LN1@AllocMemor

; 418  : 	{
; 419  : 		//计算数目
; 420  : 		INT_PTR nGrowCount=m_nGrowCount;

  00035	8b 45 fc	 mov	 eax, DWORD PTR _this$[ebp]
  00038	8b 48 0c	 mov	 ecx, DWORD PTR [eax+12]
  0003b	89 4d f8	 mov	 DWORD PTR _nGrowCount$4[ebp], ecx

; 421  : 		if (nGrowCount==0)

  0003e	83 7d f8 00	 cmp	 DWORD PTR _nGrowCount$4[ebp], 0
  00042	75 45		 jne	 SHORT $LN3@AllocMemor

; 422  : 		{
; 423  : 			nGrowCount=m_nElementCount/8;

  00044	8b 45 fc	 mov	 eax, DWORD PTR _this$[ebp]
  00047	8b 40 10	 mov	 eax, DWORD PTR [eax+16]
  0004a	99		 cdq
  0004b	83 e2 07	 and	 edx, 7
  0004e	03 c2		 add	 eax, edx
  00050	c1 f8 03	 sar	 eax, 3
  00053	89 45 f8	 mov	 DWORD PTR _nGrowCount$4[ebp], eax

; 424  : 			nGrowCount=(nGrowCount<4)?4:((nGrowCount>1024)?1024:nGrowCount);

  00056	83 7d f8 04	 cmp	 DWORD PTR _nGrowCount$4[ebp], 4
  0005a	7d 09		 jge	 SHORT $LN8@AllocMemor
  0005c	c7 45 a8 04 00
	00 00		 mov	 DWORD PTR tv79[ebp], 4
  00063	eb 1e		 jmp	 SHORT $LN9@AllocMemor
$LN8@AllocMemor:
  00065	81 7d f8 00 04
	00 00		 cmp	 DWORD PTR _nGrowCount$4[ebp], 1024 ; 00000400H
  0006c	7e 09		 jle	 SHORT $LN6@AllocMemor
  0006e	c7 45 a4 00 04
	00 00		 mov	 DWORD PTR tv78[ebp], 1024 ; 00000400H
  00075	eb 06		 jmp	 SHORT $LN7@AllocMemor
$LN6@AllocMemor:
  00077	8b 45 f8	 mov	 eax, DWORD PTR _nGrowCount$4[ebp]
  0007a	89 45 a4	 mov	 DWORD PTR tv78[ebp], eax
$LN7@AllocMemor:
  0007d	8b 4d a4	 mov	 ecx, DWORD PTR tv78[ebp]
  00080	89 4d a8	 mov	 DWORD PTR tv79[ebp], ecx
$LN9@AllocMemor:
  00083	8b 55 a8	 mov	 edx, DWORD PTR tv79[ebp]
  00086	89 55 f8	 mov	 DWORD PTR _nGrowCount$4[ebp], edx
$LN3@AllocMemor:

; 425  : 		}
; 426  : 		nNewCount+=nGrowCount;

  00089	8b 45 08	 mov	 eax, DWORD PTR _nNewCount$[ebp]
  0008c	03 45 f8	 add	 eax, DWORD PTR _nGrowCount$4[ebp]
  0008f	89 45 08	 mov	 DWORD PTR _nNewCount$[ebp], eax

; 427  : 
; 428  : 		//申请内存
; 429  : 		TYPE * pNewData=(TYPE *) new BYTE[nNewCount*sizeof(TYPE)];

  00092	8b 45 08	 mov	 eax, DWORD PTR _nNewCount$[ebp]
  00095	c1 e0 02	 shl	 eax, 2
  00098	50		 push	 eax
  00099	e8 00 00 00 00	 call	 ??_U@YAPAXI@Z		; operator new[]
  0009e	83 c4 04	 add	 esp, 4
  000a1	89 45 b0	 mov	 DWORD PTR $T2[ebp], eax
  000a4	8b 4d b0	 mov	 ecx, DWORD PTR $T2[ebp]
  000a7	89 4d f4	 mov	 DWORD PTR _pNewData$3[ebp], ecx

; 430  : 		memcpy(pNewData,m_pData,m_nElementCount*sizeof(TYPE));

  000aa	8b 45 fc	 mov	 eax, DWORD PTR _this$[ebp]
  000ad	8b 48 10	 mov	 ecx, DWORD PTR [eax+16]
  000b0	c1 e1 02	 shl	 ecx, 2
  000b3	51		 push	 ecx
  000b4	8b 55 fc	 mov	 edx, DWORD PTR _this$[ebp]
  000b7	8b 42 04	 mov	 eax, DWORD PTR [edx+4]
  000ba	50		 push	 eax
  000bb	8b 4d f4	 mov	 ecx, DWORD PTR _pNewData$3[ebp]
  000be	51		 push	 ecx
  000bf	e8 00 00 00 00	 call	 _memcpy
  000c4	83 c4 0c	 add	 esp, 12			; 0000000cH

; 431  : 		memset(pNewData+m_nElementCount,0,(nNewCount-m_nElementCount)*sizeof(TYPE));

  000c7	8b 45 fc	 mov	 eax, DWORD PTR _this$[ebp]
  000ca	8b 4d 08	 mov	 ecx, DWORD PTR _nNewCount$[ebp]
  000cd	2b 48 10	 sub	 ecx, DWORD PTR [eax+16]
  000d0	c1 e1 02	 shl	 ecx, 2
  000d3	51		 push	 ecx
  000d4	6a 00		 push	 0
  000d6	8b 55 fc	 mov	 edx, DWORD PTR _this$[ebp]
  000d9	8b 42 10	 mov	 eax, DWORD PTR [edx+16]
  000dc	8b 4d f4	 mov	 ecx, DWORD PTR _pNewData$3[ebp]
  000df	8d 14 81	 lea	 edx, DWORD PTR [ecx+eax*4]
  000e2	52		 push	 edx
  000e3	e8 00 00 00 00	 call	 _memset
  000e8	83 c4 0c	 add	 esp, 12			; 0000000cH

; 432  : 		delete [] (BYTE *)m_pData;

  000eb	8b 45 fc	 mov	 eax, DWORD PTR _this$[ebp]
  000ee	8b 48 04	 mov	 ecx, DWORD PTR [eax+4]
  000f1	89 4d ac	 mov	 DWORD PTR $T1[ebp], ecx
  000f4	8b 55 ac	 mov	 edx, DWORD PTR $T1[ebp]
  000f7	52		 push	 edx
  000f8	e8 00 00 00 00	 call	 ??_V@YAXPAX@Z		; operator delete[]
  000fd	83 c4 04	 add	 esp, 4

; 433  : 
; 434  : 		//设置变量
; 435  : 		m_pData=pNewData;

  00100	8b 45 fc	 mov	 eax, DWORD PTR _this$[ebp]
  00103	8b 4d f4	 mov	 ecx, DWORD PTR _pNewData$3[ebp]
  00106	89 48 04	 mov	 DWORD PTR [eax+4], ecx

; 436  : 		m_nMaxCount=nNewCount;

  00109	8b 45 fc	 mov	 eax, DWORD PTR _this$[ebp]
  0010c	8b 4d 08	 mov	 ecx, DWORD PTR _nNewCount$[ebp]
  0010f	89 48 08	 mov	 DWORD PTR [eax+8], ecx
$LN1@AllocMemor:

; 437  : 	}
; 438  : 
; 439  : 	return;
; 440  : }

  00112	5f		 pop	 edi
  00113	5e		 pop	 esi
  00114	5b		 pop	 ebx
  00115	8b e5		 mov	 esp, ebp
  00117	5d		 pop	 ebp
  00118	c2 04 00	 ret	 4
?AllocMemory@?$CWHArray@PAUtagGameMatchOption@@ABQAU1@@@QAEXH@Z ENDP ; CWHArray<tagGameMatchOption *,tagGameMatchOption * const &>::AllocMemory
_TEXT	ENDS
; Function compile flags: /Odtp /ZI
; File g:\网狐\happygamewh\服务端\系统模块\全局定义\array.h
;	COMDAT ??A?$CWHArray@PAUtagGameMatchOption@@ABQAU1@@@QAEAAPAUtagGameMatchOption@@H@Z
_TEXT	SEGMENT
_this$ = -4						; size = 4
_nIndex$ = 8						; size = 4
??A?$CWHArray@PAUtagGameMatchOption@@ABQAU1@@@QAEAAPAUtagGameMatchOption@@H@Z PROC ; CWHArray<tagGameMatchOption *,tagGameMatchOption * const &>::operator[], COMDAT
; _this$ = ecx

; 114  : { 

  00000	55		 push	 ebp
  00001	8b ec		 mov	 ebp, esp
  00003	83 ec 44	 sub	 esp, 68			; 00000044H
  00006	53		 push	 ebx
  00007	56		 push	 esi
  00008	57		 push	 edi
  00009	89 4d fc	 mov	 DWORD PTR _this$[ebp], ecx

; 115  : 	return ElementAt(nIndex);

  0000c	8b 45 08	 mov	 eax, DWORD PTR _nIndex$[ebp]
  0000f	50		 push	 eax
  00010	8b 4d fc	 mov	 ecx, DWORD PTR _this$[ebp]
  00013	e8 00 00 00 00	 call	 ?ElementAt@?$CWHArray@PAUtagGameMatchOption@@ABQAU1@@@QAEAAPAUtagGameMatchOption@@H@Z ; CWHArray<tagGameMatchOption *,tagGameMatchOption * const &>::ElementAt

; 116  : }

  00018	5f		 pop	 edi
  00019	5e		 pop	 esi
  0001a	5b		 pop	 ebx
  0001b	8b e5		 mov	 esp, ebp
  0001d	5d		 pop	 ebp
  0001e	c2 04 00	 ret	 4
??A?$CWHArray@PAUtagGameMatchOption@@ABQAU1@@@QAEAAPAUtagGameMatchOption@@H@Z ENDP ; CWHArray<tagGameMatchOption *,tagGameMatchOption * const &>::operator[]
_TEXT	ENDS
; Function compile flags: /Odtp /ZI
; File g:\网狐\happygamewh\服务端\系统模块\全局定义\array.h
;	COMDAT ?RemoveAll@?$CWHArray@PAUtagGameMatchOption@@ABQAU1@@@QAEXXZ
_TEXT	SEGMENT
_i$1 = -8						; size = 4
_this$ = -4						; size = 4
?RemoveAll@?$CWHArray@PAUtagGameMatchOption@@ABQAU1@@@QAEXXZ PROC ; CWHArray<tagGameMatchOption *,tagGameMatchOption * const &>::RemoveAll, COMDAT
; _this$ = ecx

; 379  : {

  00000	55		 push	 ebp
  00001	8b ec		 mov	 ebp, esp
  00003	83 ec 48	 sub	 esp, 72			; 00000048H
  00006	53		 push	 ebx
  00007	56		 push	 esi
  00008	57		 push	 edi
  00009	89 4d fc	 mov	 DWORD PTR _this$[ebp], ecx

; 380  : 	if (m_nElementCount>0)

  0000c	8b 45 fc	 mov	 eax, DWORD PTR _this$[ebp]
  0000f	83 78 10 00	 cmp	 DWORD PTR [eax+16], 0
  00013	7e 44		 jle	 SHORT $LN1@RemoveAll

; 381  : 	{
; 382  : 		for (INT_PTR i=0;i<m_nElementCount;i++) (m_pData+i)->~TYPE();

  00015	c7 45 f8 00 00
	00 00		 mov	 DWORD PTR _i$1[ebp], 0
  0001c	eb 09		 jmp	 SHORT $LN4@RemoveAll
$LN2@RemoveAll:
  0001e	8b 45 f8	 mov	 eax, DWORD PTR _i$1[ebp]
  00021	83 c0 01	 add	 eax, 1
  00024	89 45 f8	 mov	 DWORD PTR _i$1[ebp], eax
$LN4@RemoveAll:
  00027	8b 45 fc	 mov	 eax, DWORD PTR _this$[ebp]
  0002a	8b 4d f8	 mov	 ecx, DWORD PTR _i$1[ebp]
  0002d	3b 48 10	 cmp	 ecx, DWORD PTR [eax+16]
  00030	7d 02		 jge	 SHORT $LN3@RemoveAll
  00032	eb ea		 jmp	 SHORT $LN2@RemoveAll
$LN3@RemoveAll:

; 383  : 		memset(m_pData,0,m_nElementCount*sizeof(TYPE));

  00034	8b 45 fc	 mov	 eax, DWORD PTR _this$[ebp]
  00037	8b 48 10	 mov	 ecx, DWORD PTR [eax+16]
  0003a	c1 e1 02	 shl	 ecx, 2
  0003d	51		 push	 ecx
  0003e	6a 00		 push	 0
  00040	8b 55 fc	 mov	 edx, DWORD PTR _this$[ebp]
  00043	8b 42 04	 mov	 eax, DWORD PTR [edx+4]
  00046	50		 push	 eax
  00047	e8 00 00 00 00	 call	 _memset
  0004c	83 c4 0c	 add	 esp, 12			; 0000000cH

; 384  : 		m_nElementCount=0;

  0004f	8b 45 fc	 mov	 eax, DWORD PTR _this$[ebp]
  00052	c7 40 10 00 00
	00 00		 mov	 DWORD PTR [eax+16], 0
$LN1@RemoveAll:

; 385  : 	}
; 386  : 
; 387  : 	return;
; 388  : }

  00059	5f		 pop	 edi
  0005a	5e		 pop	 esi
  0005b	5b		 pop	 ebx
  0005c	8b e5		 mov	 esp, ebp
  0005e	5d		 pop	 ebp
  0005f	c3		 ret	 0
?RemoveAll@?$CWHArray@PAUtagGameMatchOption@@ABQAU1@@@QAEXXZ ENDP ; CWHArray<tagGameMatchOption *,tagGameMatchOption * const &>::RemoveAll
_TEXT	ENDS
; Function compile flags: /Odtp /ZI
; File g:\网狐\happygamewh\服务端\系统模块\全局定义\array.h
;	COMDAT ?RemoveAt@?$CWHArray@PAUtagGameMatchOption@@ABQAU1@@@QAEXHH@Z
_TEXT	SEGMENT
_i$1 = -12						; size = 4
_nMoveCount$ = -8					; size = 4
_this$ = -4						; size = 4
_nIndex$ = 8						; size = 4
_nCount$ = 12						; size = 4
?RemoveAt@?$CWHArray@PAUtagGameMatchOption@@ABQAU1@@@QAEXHH@Z PROC ; CWHArray<tagGameMatchOption *,tagGameMatchOption * const &>::RemoveAt, COMDAT
; _this$ = ecx

; 360  : {

  00000	55		 push	 ebp
  00001	8b ec		 mov	 ebp, esp
  00003	83 ec 4c	 sub	 esp, 76			; 0000004cH
  00006	53		 push	 ebx
  00007	56		 push	 esi
  00008	57		 push	 edi
  00009	89 4d fc	 mov	 DWORD PTR _this$[ebp], ecx

; 361  : 	//效验参数
; 362  : 	ASSERT(nIndex>=0);

  0000c	83 7d 08 00	 cmp	 DWORD PTR _nIndex$[ebp], 0
  00010	7d 14		 jge	 SHORT $LN9@RemoveAt
  00012	68 6a 01 00 00	 push	 362			; 0000016aH
  00017	68 00 00 00 00	 push	 OFFSET ??_C@_0DF@LDFGAABH@g?3?2?M?x?$LK?$PM?2happygamewh?2?$LH?$PO?N?q?$LG?K?2?O?$LF?M?$LD@
  0001c	e8 00 00 00 00	 call	 ?AfxAssertFailedLine@@YGHPBDH@Z ; AfxAssertFailedLine
  00021	85 c0		 test	 eax, eax
  00023	74 01		 je	 SHORT $LN9@RemoveAt
  00025	cc		 int	 3
$LN9@RemoveAt:

; 363  : 	ASSERT(nCount>=0);

  00026	83 7d 0c 00	 cmp	 DWORD PTR _nCount$[ebp], 0
  0002a	7d 14		 jge	 SHORT $LN10@RemoveAt
  0002c	68 6b 01 00 00	 push	 363			; 0000016bH
  00031	68 00 00 00 00	 push	 OFFSET ??_C@_0DF@LDFGAABH@g?3?2?M?x?$LK?$PM?2happygamewh?2?$LH?$PO?N?q?$LG?K?2?O?$LF?M?$LD@
  00036	e8 00 00 00 00	 call	 ?AfxAssertFailedLine@@YGHPBDH@Z ; AfxAssertFailedLine
  0003b	85 c0		 test	 eax, eax
  0003d	74 01		 je	 SHORT $LN10@RemoveAt
  0003f	cc		 int	 3
$LN10@RemoveAt:

; 364  : 	ASSERT(nIndex+nCount<=m_nElementCount);

  00040	8b 45 08	 mov	 eax, DWORD PTR _nIndex$[ebp]
  00043	03 45 0c	 add	 eax, DWORD PTR _nCount$[ebp]
  00046	8b 4d fc	 mov	 ecx, DWORD PTR _this$[ebp]
  00049	3b 41 10	 cmp	 eax, DWORD PTR [ecx+16]
  0004c	7e 14		 jle	 SHORT $LN11@RemoveAt
  0004e	68 6c 01 00 00	 push	 364			; 0000016cH
  00053	68 00 00 00 00	 push	 OFFSET ??_C@_0DF@LDFGAABH@g?3?2?M?x?$LK?$PM?2happygamewh?2?$LH?$PO?N?q?$LG?K?2?O?$LF?M?$LD@
  00058	e8 00 00 00 00	 call	 ?AfxAssertFailedLine@@YGHPBDH@Z ; AfxAssertFailedLine
  0005d	85 c0		 test	 eax, eax
  0005f	74 01		 je	 SHORT $LN11@RemoveAt
  00061	cc		 int	 3
$LN11@RemoveAt:

; 365  : 	if ((nIndex<0)||(nCount<0)||((nIndex+nCount>m_nElementCount))) AfxThrowInvalidArgException();

  00062	83 7d 08 00	 cmp	 DWORD PTR _nIndex$[ebp], 0
  00066	7c 14		 jl	 SHORT $LN6@RemoveAt
  00068	83 7d 0c 00	 cmp	 DWORD PTR _nCount$[ebp], 0
  0006c	7c 0e		 jl	 SHORT $LN6@RemoveAt
  0006e	8b 45 08	 mov	 eax, DWORD PTR _nIndex$[ebp]
  00071	03 45 0c	 add	 eax, DWORD PTR _nCount$[ebp]
  00074	8b 4d fc	 mov	 ecx, DWORD PTR _this$[ebp]
  00077	3b 41 10	 cmp	 eax, DWORD PTR [ecx+16]
  0007a	7e 05		 jle	 SHORT $LN5@RemoveAt
$LN6@RemoveAt:
  0007c	e8 00 00 00 00	 call	 ?AfxThrowInvalidArgException@@YGXXZ ; AfxThrowInvalidArgException
$LN5@RemoveAt:

; 366  : 
; 367  : 	//删除数据
; 368  : 	INT_PTR nMoveCount=m_nElementCount-(nIndex+nCount);

  00081	8b 45 08	 mov	 eax, DWORD PTR _nIndex$[ebp]
  00084	03 45 0c	 add	 eax, DWORD PTR _nCount$[ebp]
  00087	8b 4d fc	 mov	 ecx, DWORD PTR _this$[ebp]
  0008a	8b 51 10	 mov	 edx, DWORD PTR [ecx+16]
  0008d	2b d0		 sub	 edx, eax
  0008f	89 55 f8	 mov	 DWORD PTR _nMoveCount$[ebp], edx

; 369  : 	for (INT_PTR i=0;i<nCount;i++) (m_pData+nIndex+i)->~TYPE();

  00092	c7 45 f4 00 00
	00 00		 mov	 DWORD PTR _i$1[ebp], 0
  00099	eb 09		 jmp	 SHORT $LN4@RemoveAt
$LN2@RemoveAt:
  0009b	8b 45 f4	 mov	 eax, DWORD PTR _i$1[ebp]
  0009e	83 c0 01	 add	 eax, 1
  000a1	89 45 f4	 mov	 DWORD PTR _i$1[ebp], eax
$LN4@RemoveAt:
  000a4	8b 45 f4	 mov	 eax, DWORD PTR _i$1[ebp]
  000a7	3b 45 0c	 cmp	 eax, DWORD PTR _nCount$[ebp]
  000aa	7d 02		 jge	 SHORT $LN3@RemoveAt
  000ac	eb ed		 jmp	 SHORT $LN2@RemoveAt
$LN3@RemoveAt:

; 370  : 	if (nMoveCount>0) memmove(m_pData+nIndex,m_pData+nIndex+nCount,nMoveCount*sizeof(TYPE));

  000ae	83 7d f8 00	 cmp	 DWORD PTR _nMoveCount$[ebp], 0
  000b2	7e 2f		 jle	 SHORT $LN7@RemoveAt
  000b4	8b 45 f8	 mov	 eax, DWORD PTR _nMoveCount$[ebp]
  000b7	c1 e0 02	 shl	 eax, 2
  000ba	50		 push	 eax
  000bb	8b 4d fc	 mov	 ecx, DWORD PTR _this$[ebp]
  000be	8b 51 04	 mov	 edx, DWORD PTR [ecx+4]
  000c1	8b 45 08	 mov	 eax, DWORD PTR _nIndex$[ebp]
  000c4	8d 0c 82	 lea	 ecx, DWORD PTR [edx+eax*4]
  000c7	8b 55 0c	 mov	 edx, DWORD PTR _nCount$[ebp]
  000ca	8d 04 91	 lea	 eax, DWORD PTR [ecx+edx*4]
  000cd	50		 push	 eax
  000ce	8b 4d fc	 mov	 ecx, DWORD PTR _this$[ebp]
  000d1	8b 51 04	 mov	 edx, DWORD PTR [ecx+4]
  000d4	8b 45 08	 mov	 eax, DWORD PTR _nIndex$[ebp]
  000d7	8d 0c 82	 lea	 ecx, DWORD PTR [edx+eax*4]
  000da	51		 push	 ecx
  000db	e8 00 00 00 00	 call	 _memmove
  000e0	83 c4 0c	 add	 esp, 12			; 0000000cH
$LN7@RemoveAt:

; 371  : 	m_nElementCount-=nCount;

  000e3	8b 45 fc	 mov	 eax, DWORD PTR _this$[ebp]
  000e6	8b 48 10	 mov	 ecx, DWORD PTR [eax+16]
  000e9	2b 4d 0c	 sub	 ecx, DWORD PTR _nCount$[ebp]
  000ec	8b 55 fc	 mov	 edx, DWORD PTR _this$[ebp]
  000ef	89 4a 10	 mov	 DWORD PTR [edx+16], ecx
$LN8@RemoveAt:

; 372  : 
; 373  : 	return;
; 374  : }

  000f2	5f		 pop	 edi
  000f3	5e		 pop	 esi
  000f4	5b		 pop	 ebx
  000f5	8b e5		 mov	 esp, ebp
  000f7	5d		 pop	 ebp
  000f8	c2 08 00	 ret	 8
?RemoveAt@?$CWHArray@PAUtagGameMatchOption@@ABQAU1@@@QAEXHH@Z ENDP ; CWHArray<tagGameMatchOption *,tagGameMatchOption * const &>::RemoveAt
_TEXT	ENDS
; Function compile flags: /Odtp /ZI
; File g:\网狐\happygamewh\服务端\系统模块\全局定义\array.h
;	COMDAT ?SetAtGrow@?$CWHArray@PAUtagGameMatchOption@@ABQAU1@@@QAEXHABQAUtagGameMatchOption@@@Z
_TEXT	SEGMENT
_this$ = -4						; size = 4
_nIndex$ = 8						; size = 4
_newElement$ = 12					; size = 4
?SetAtGrow@?$CWHArray@PAUtagGameMatchOption@@ABQAU1@@@QAEXHABQAUtagGameMatchOption@@@Z PROC ; CWHArray<tagGameMatchOption *,tagGameMatchOption * const &>::SetAtGrow, COMDAT
; _this$ = ecx

; 287  : {

  00000	55		 push	 ebp
  00001	8b ec		 mov	 ebp, esp
  00003	83 ec 44	 sub	 esp, 68			; 00000044H
  00006	53		 push	 ebx
  00007	56		 push	 esi
  00008	57		 push	 edi
  00009	89 4d fc	 mov	 DWORD PTR _this$[ebp], ecx

; 288  : 	//效验参数
; 289  : 	ASSERT(nIndex>=0);

  0000c	83 7d 08 00	 cmp	 DWORD PTR _nIndex$[ebp], 0
  00010	7d 14		 jge	 SHORT $LN5@SetAtGrow
  00012	68 21 01 00 00	 push	 289			; 00000121H
  00017	68 00 00 00 00	 push	 OFFSET ??_C@_0DF@LDFGAABH@g?3?2?M?x?$LK?$PM?2happygamewh?2?$LH?$PO?N?q?$LG?K?2?O?$LF?M?$LD@
  0001c	e8 00 00 00 00	 call	 ?AfxAssertFailedLine@@YGHPBDH@Z ; AfxAssertFailedLine
  00021	85 c0		 test	 eax, eax
  00023	74 01		 je	 SHORT $LN5@SetAtGrow
  00025	cc		 int	 3
$LN5@SetAtGrow:

; 290  : 	if (nIndex<0) AfxThrowInvalidArgException();

  00026	83 7d 08 00	 cmp	 DWORD PTR _nIndex$[ebp], 0
  0002a	7d 05		 jge	 SHORT $LN2@SetAtGrow
  0002c	e8 00 00 00 00	 call	 ?AfxThrowInvalidArgException@@YGXXZ ; AfxThrowInvalidArgException
$LN2@SetAtGrow:

; 291  : 
; 292  : 	//设置元素
; 293  : 	if (nIndex>=m_nElementCount) SetSize(m_nElementCount+1);

  00031	8b 45 fc	 mov	 eax, DWORD PTR _this$[ebp]
  00034	8b 4d 08	 mov	 ecx, DWORD PTR _nIndex$[ebp]
  00037	3b 48 10	 cmp	 ecx, DWORD PTR [eax+16]
  0003a	7c 12		 jl	 SHORT $LN3@SetAtGrow
  0003c	8b 45 fc	 mov	 eax, DWORD PTR _this$[ebp]
  0003f	8b 48 10	 mov	 ecx, DWORD PTR [eax+16]
  00042	83 c1 01	 add	 ecx, 1
  00045	51		 push	 ecx
  00046	8b 4d fc	 mov	 ecx, DWORD PTR _this$[ebp]
  00049	e8 00 00 00 00	 call	 ?SetSize@?$CWHArray@PAUtagGameMatchOption@@ABQAU1@@@QAEXH@Z ; CWHArray<tagGameMatchOption *,tagGameMatchOption * const &>::SetSize
$LN3@SetAtGrow:

; 294  : 	m_pData[nIndex]=newElement;

  0004e	8b 45 fc	 mov	 eax, DWORD PTR _this$[ebp]
  00051	8b 48 04	 mov	 ecx, DWORD PTR [eax+4]
  00054	8b 55 08	 mov	 edx, DWORD PTR _nIndex$[ebp]
  00057	8b 45 0c	 mov	 eax, DWORD PTR _newElement$[ebp]
  0005a	8b 00		 mov	 eax, DWORD PTR [eax]
  0005c	89 04 91	 mov	 DWORD PTR [ecx+edx*4], eax
$LN4@SetAtGrow:

; 295  : 
; 296  : 	return;
; 297  : }

  0005f	5f		 pop	 edi
  00060	5e		 pop	 esi
  00061	5b		 pop	 ebx
  00062	8b e5		 mov	 esp, ebp
  00064	5d		 pop	 ebp
  00065	c2 08 00	 ret	 8
?SetAtGrow@?$CWHArray@PAUtagGameMatchOption@@ABQAU1@@@QAEXHABQAUtagGameMatchOption@@@Z ENDP ; CWHArray<tagGameMatchOption *,tagGameMatchOption * const &>::SetAtGrow
_TEXT	ENDS
; Function compile flags: /Odtp /ZI
; File g:\网狐\happygamewh\服务端\系统模块\全局定义\array.h
;	COMDAT ?SetSize@?$CWHArray@PAUtagGameMatchOption@@ABQAU1@@@QAEXH@Z
_TEXT	SEGMENT
$T1 = -80						; size = 4
_i$2 = -12						; size = 4
_i$3 = -8						; size = 4
_this$ = -4						; size = 4
_nNewSize$ = 8						; size = 4
?SetSize@?$CWHArray@PAUtagGameMatchOption@@ABQAU1@@@QAEXH@Z PROC ; CWHArray<tagGameMatchOption *,tagGameMatchOption * const &>::SetSize, COMDAT
; _this$ = ecx

; 252  : {

  00000	55		 push	 ebp
  00001	8b ec		 mov	 ebp, esp
  00003	83 ec 50	 sub	 esp, 80			; 00000050H
  00006	53		 push	 ebx
  00007	56		 push	 esi
  00008	57		 push	 edi
  00009	89 4d fc	 mov	 DWORD PTR _this$[ebp], ecx

; 253  : 	//效验参数
; 254  : 	ASSERT(nNewSize>=0);

  0000c	83 7d 08 00	 cmp	 DWORD PTR _nNewSize$[ebp], 0
  00010	7d 14		 jge	 SHORT $LN13@SetSize
  00012	68 fe 00 00 00	 push	 254			; 000000feH
  00017	68 00 00 00 00	 push	 OFFSET ??_C@_0DF@LDFGAABH@g?3?2?M?x?$LK?$PM?2happygamewh?2?$LH?$PO?N?q?$LG?K?2?O?$LF?M?$LD@
  0001c	e8 00 00 00 00	 call	 ?AfxAssertFailedLine@@YGHPBDH@Z ; AfxAssertFailedLine
  00021	85 c0		 test	 eax, eax
  00023	74 01		 je	 SHORT $LN13@SetSize
  00025	cc		 int	 3
$LN13@SetSize:

; 255  : 	if (nNewSize<0)	AfxThrowInvalidArgException();

  00026	83 7d 08 00	 cmp	 DWORD PTR _nNewSize$[ebp], 0
  0002a	7d 05		 jge	 SHORT $LN8@SetSize
  0002c	e8 00 00 00 00	 call	 ?AfxThrowInvalidArgException@@YGXXZ ; AfxThrowInvalidArgException
$LN8@SetSize:

; 256  : 	
; 257  : 	//设置大小
; 258  : 	AllocMemory(nNewSize);

  00031	8b 45 08	 mov	 eax, DWORD PTR _nNewSize$[ebp]
  00034	50		 push	 eax
  00035	8b 4d fc	 mov	 ecx, DWORD PTR _this$[ebp]
  00038	e8 00 00 00 00	 call	 ?AllocMemory@?$CWHArray@PAUtagGameMatchOption@@ABQAU1@@@QAEXH@Z ; CWHArray<tagGameMatchOption *,tagGameMatchOption * const &>::AllocMemory

; 259  : 	if (nNewSize>m_nElementCount)

  0003d	8b 45 fc	 mov	 eax, DWORD PTR _this$[ebp]
  00040	8b 4d 08	 mov	 ecx, DWORD PTR _nNewSize$[ebp]
  00043	3b 48 10	 cmp	 ecx, DWORD PTR [eax+16]
  00046	7e 3a		 jle	 SHORT $LN9@SetSize

; 260  : 	{
; 261  : 		for (INT_PTR i=m_nElementCount;i<nNewSize;i++) new ((VOID *)(m_pData+i)) TYPE;

  00048	8b 45 fc	 mov	 eax, DWORD PTR _this$[ebp]
  0004b	8b 48 10	 mov	 ecx, DWORD PTR [eax+16]
  0004e	89 4d f8	 mov	 DWORD PTR _i$3[ebp], ecx
  00051	eb 09		 jmp	 SHORT $LN4@SetSize
$LN2@SetSize:
  00053	8b 45 f8	 mov	 eax, DWORD PTR _i$3[ebp]
  00056	83 c0 01	 add	 eax, 1
  00059	89 45 f8	 mov	 DWORD PTR _i$3[ebp], eax
$LN4@SetSize:
  0005c	8b 45 f8	 mov	 eax, DWORD PTR _i$3[ebp]
  0005f	3b 45 08	 cmp	 eax, DWORD PTR _nNewSize$[ebp]
  00062	7d 1c		 jge	 SHORT $LN3@SetSize
  00064	8b 45 fc	 mov	 eax, DWORD PTR _this$[ebp]
  00067	8b 48 04	 mov	 ecx, DWORD PTR [eax+4]
  0006a	8b 55 f8	 mov	 edx, DWORD PTR _i$3[ebp]
  0006d	8d 04 91	 lea	 eax, DWORD PTR [ecx+edx*4]
  00070	50		 push	 eax
  00071	6a 04		 push	 4
  00073	e8 00 00 00 00	 call	 ??2@YAPAXIPAX@Z		; operator new
  00078	83 c4 08	 add	 esp, 8
  0007b	89 45 b0	 mov	 DWORD PTR $T1[ebp], eax
  0007e	eb d3		 jmp	 SHORT $LN2@SetSize
$LN3@SetSize:

; 262  : 	}
; 263  : 	else if (nNewSize<m_nElementCount)

  00080	eb 4d		 jmp	 SHORT $LN10@SetSize
$LN9@SetSize:
  00082	8b 45 fc	 mov	 eax, DWORD PTR _this$[ebp]
  00085	8b 4d 08	 mov	 ecx, DWORD PTR _nNewSize$[ebp]
  00088	3b 48 10	 cmp	 ecx, DWORD PTR [eax+16]
  0008b	7d 42		 jge	 SHORT $LN10@SetSize

; 264  : 	{
; 265  : 		for (INT_PTR i=nNewSize;i<m_nElementCount;i++) (m_pData+i)->~TYPE();

  0008d	8b 45 08	 mov	 eax, DWORD PTR _nNewSize$[ebp]
  00090	89 45 f4	 mov	 DWORD PTR _i$2[ebp], eax
  00093	eb 09		 jmp	 SHORT $LN7@SetSize
$LN5@SetSize:
  00095	8b 45 f4	 mov	 eax, DWORD PTR _i$2[ebp]
  00098	83 c0 01	 add	 eax, 1
  0009b	89 45 f4	 mov	 DWORD PTR _i$2[ebp], eax
$LN7@SetSize:
  0009e	8b 45 fc	 mov	 eax, DWORD PTR _this$[ebp]
  000a1	8b 4d f4	 mov	 ecx, DWORD PTR _i$2[ebp]
  000a4	3b 48 10	 cmp	 ecx, DWORD PTR [eax+16]
  000a7	7d 02		 jge	 SHORT $LN6@SetSize
  000a9	eb ea		 jmp	 SHORT $LN5@SetSize
$LN6@SetSize:

; 266  : 		memset(m_pData+nNewSize,0,(m_nElementCount-nNewSize)*sizeof(TYPE));

  000ab	8b 45 fc	 mov	 eax, DWORD PTR _this$[ebp]
  000ae	8b 48 10	 mov	 ecx, DWORD PTR [eax+16]
  000b1	2b 4d 08	 sub	 ecx, DWORD PTR _nNewSize$[ebp]
  000b4	c1 e1 02	 shl	 ecx, 2
  000b7	51		 push	 ecx
  000b8	6a 00		 push	 0
  000ba	8b 55 fc	 mov	 edx, DWORD PTR _this$[ebp]
  000bd	8b 42 04	 mov	 eax, DWORD PTR [edx+4]
  000c0	8b 4d 08	 mov	 ecx, DWORD PTR _nNewSize$[ebp]
  000c3	8d 14 88	 lea	 edx, DWORD PTR [eax+ecx*4]
  000c6	52		 push	 edx
  000c7	e8 00 00 00 00	 call	 _memset
  000cc	83 c4 0c	 add	 esp, 12			; 0000000cH
$LN10@SetSize:

; 267  : 	}
; 268  : 	m_nElementCount=nNewSize;

  000cf	8b 45 fc	 mov	 eax, DWORD PTR _this$[ebp]
  000d2	8b 4d 08	 mov	 ecx, DWORD PTR _nNewSize$[ebp]
  000d5	89 48 10	 mov	 DWORD PTR [eax+16], ecx
$LN12@SetSize:

; 269  : 
; 270  : 	return;
; 271  : }

  000d8	5f		 pop	 edi
  000d9	5e		 pop	 esi
  000da	5b		 pop	 ebx
  000db	8b e5		 mov	 esp, ebp
  000dd	5d		 pop	 ebp
  000de	c2 04 00	 ret	 4
?SetSize@?$CWHArray@PAUtagGameMatchOption@@ABQAU1@@@QAEXH@Z ENDP ; CWHArray<tagGameMatchOption *,tagGameMatchOption * const &>::SetSize
_TEXT	ENDS
; Function compile flags: /Odtp /ZI
; File g:\网狐\happygamewh\服务端\系统模块\全局定义\array.h
;	COMDAT ?ElementAt@?$CWHArray@PAUtagGameMatchOption@@ABQAU1@@@QAEAAPAUtagGameMatchOption@@H@Z
_TEXT	SEGMENT
_this$ = -4						; size = 4
_nIndex$ = 8						; size = 4
?ElementAt@?$CWHArray@PAUtagGameMatchOption@@ABQAU1@@@QAEAAPAUtagGameMatchOption@@H@Z PROC ; CWHArray<tagGameMatchOption *,tagGameMatchOption * const &>::ElementAt, COMDAT
; _this$ = ecx

; 232  : {

  00000	55		 push	 ebp
  00001	8b ec		 mov	 ebp, esp
  00003	83 ec 44	 sub	 esp, 68			; 00000044H
  00006	53		 push	 ebx
  00007	56		 push	 esi
  00008	57		 push	 edi
  00009	89 4d fc	 mov	 DWORD PTR _this$[ebp], ecx

; 233  : 	ASSERT((nIndex>=0)&&(nIndex<m_nElementCount));

  0000c	83 7d 08 00	 cmp	 DWORD PTR _nIndex$[ebp], 0
  00010	7c 0b		 jl	 SHORT $LN4@ElementAt
  00012	8b 45 fc	 mov	 eax, DWORD PTR _this$[ebp]
  00015	8b 4d 08	 mov	 ecx, DWORD PTR _nIndex$[ebp]
  00018	3b 48 10	 cmp	 ecx, DWORD PTR [eax+16]
  0001b	7c 14		 jl	 SHORT $LN5@ElementAt
$LN4@ElementAt:
  0001d	68 e9 00 00 00	 push	 233			; 000000e9H
  00022	68 00 00 00 00	 push	 OFFSET ??_C@_0DF@LDFGAABH@g?3?2?M?x?$LK?$PM?2happygamewh?2?$LH?$PO?N?q?$LG?K?2?O?$LF?M?$LD@
  00027	e8 00 00 00 00	 call	 ?AfxAssertFailedLine@@YGHPBDH@Z ; AfxAssertFailedLine
  0002c	85 c0		 test	 eax, eax
  0002e	74 01		 je	 SHORT $LN5@ElementAt
  00030	cc		 int	 3
$LN5@ElementAt:

; 234  : 	if ((nIndex<0)&&(nIndex>=m_nElementCount)) AfxThrowInvalidArgException();

  00031	83 7d 08 00	 cmp	 DWORD PTR _nIndex$[ebp], 0
  00035	7d 10		 jge	 SHORT $LN2@ElementAt
  00037	8b 45 fc	 mov	 eax, DWORD PTR _this$[ebp]
  0003a	8b 4d 08	 mov	 ecx, DWORD PTR _nIndex$[ebp]
  0003d	3b 48 10	 cmp	 ecx, DWORD PTR [eax+16]
  00040	7c 05		 jl	 SHORT $LN2@ElementAt
  00042	e8 00 00 00 00	 call	 ?AfxThrowInvalidArgException@@YGXXZ ; AfxThrowInvalidArgException
$LN2@ElementAt:

; 235  : 	
; 236  : 	return m_pData[nIndex];

  00047	8b 45 fc	 mov	 eax, DWORD PTR _this$[ebp]
  0004a	8b 48 04	 mov	 ecx, DWORD PTR [eax+4]
  0004d	8b 55 08	 mov	 edx, DWORD PTR _nIndex$[ebp]
  00050	8d 04 91	 lea	 eax, DWORD PTR [ecx+edx*4]
$LN3@ElementAt:

; 237  : }

  00053	5f		 pop	 edi
  00054	5e		 pop	 esi
  00055	5b		 pop	 ebx
  00056	8b e5		 mov	 esp, ebp
  00058	5d		 pop	 ebp
  00059	c2 04 00	 ret	 4
?ElementAt@?$CWHArray@PAUtagGameMatchOption@@ABQAU1@@@QAEAAPAUtagGameMatchOption@@H@Z ENDP ; CWHArray<tagGameMatchOption *,tagGameMatchOption * const &>::ElementAt
_TEXT	ENDS
; Function compile flags: /Odtp /ZI
; File g:\网狐\happygamewh\服务端\系统模块\全局定义\array.h
;	COMDAT ?Append@?$CWHArray@PAUtagGameMatchOption@@ABQAU1@@@QAEHABV1@@Z
_TEXT	SEGMENT
_i$1 = -12						; size = 4
_nOldCount$2 = -8					; size = 4
_this$ = -4						; size = 4
_Src$ = 8						; size = 4
?Append@?$CWHArray@PAUtagGameMatchOption@@ABQAU1@@@QAEHABV1@@Z PROC ; CWHArray<tagGameMatchOption *,tagGameMatchOption * const &>::Append, COMDAT
; _this$ = ecx

; 192  : {

  00000	55		 push	 ebp
  00001	8b ec		 mov	 ebp, esp
  00003	83 ec 4c	 sub	 esp, 76			; 0000004cH
  00006	53		 push	 ebx
  00007	56		 push	 esi
  00008	57		 push	 edi
  00009	89 4d fc	 mov	 DWORD PTR _this$[ebp], ecx

; 193  : 	//效验参数
; 194  : 	ASSERT(this!=&Src);

  0000c	8b 45 fc	 mov	 eax, DWORD PTR _this$[ebp]
  0000f	3b 45 08	 cmp	 eax, DWORD PTR _Src$[ebp]
  00012	75 14		 jne	 SHORT $LN8@Append
  00014	68 c2 00 00 00	 push	 194			; 000000c2H
  00019	68 00 00 00 00	 push	 OFFSET ??_C@_0DF@LDFGAABH@g?3?2?M?x?$LK?$PM?2happygamewh?2?$LH?$PO?N?q?$LG?K?2?O?$LF?M?$LD@
  0001e	e8 00 00 00 00	 call	 ?AfxAssertFailedLine@@YGHPBDH@Z ; AfxAssertFailedLine
  00023	85 c0		 test	 eax, eax
  00025	74 01		 je	 SHORT $LN8@Append
  00027	cc		 int	 3
$LN8@Append:

; 195  : 	if (this==&Src) AfxThrowInvalidArgException();

  00028	8b 45 fc	 mov	 eax, DWORD PTR _this$[ebp]
  0002b	3b 45 08	 cmp	 eax, DWORD PTR _Src$[ebp]
  0002e	75 05		 jne	 SHORT $LN5@Append
  00030	e8 00 00 00 00	 call	 ?AfxThrowInvalidArgException@@YGXXZ ; AfxThrowInvalidArgException
$LN5@Append:

; 196  : 
; 197  : 	//拷贝数组
; 198  : 	if (Src.m_nElementCount>0)

  00035	8b 45 08	 mov	 eax, DWORD PTR _Src$[ebp]
  00038	83 78 10 00	 cmp	 DWORD PTR [eax+16], 0
  0003c	7e 6d		 jle	 SHORT $LN6@Append

; 199  : 	{
; 200  : 		INT_PTR nOldCount=m_nElementCount;

  0003e	8b 45 fc	 mov	 eax, DWORD PTR _this$[ebp]
  00041	8b 48 10	 mov	 ecx, DWORD PTR [eax+16]
  00044	89 4d f8	 mov	 DWORD PTR _nOldCount$2[ebp], ecx

; 201  : 		AllocMemory(m_nElementCount+Src.m_nElementCount);

  00047	8b 45 fc	 mov	 eax, DWORD PTR _this$[ebp]
  0004a	8b 48 10	 mov	 ecx, DWORD PTR [eax+16]
  0004d	8b 55 08	 mov	 edx, DWORD PTR _Src$[ebp]
  00050	03 4a 10	 add	 ecx, DWORD PTR [edx+16]
  00053	51		 push	 ecx
  00054	8b 4d fc	 mov	 ecx, DWORD PTR _this$[ebp]
  00057	e8 00 00 00 00	 call	 ?AllocMemory@?$CWHArray@PAUtagGameMatchOption@@ABQAU1@@@QAEXH@Z ; CWHArray<tagGameMatchOption *,tagGameMatchOption * const &>::AllocMemory

; 202  : 		for (INT_PTR i=0;i<Src.m_nElementCount;i++)	m_pData[m_nElementCount+i]=Src.m_pData[i];

  0005c	c7 45 f4 00 00
	00 00		 mov	 DWORD PTR _i$1[ebp], 0
  00063	eb 09		 jmp	 SHORT $LN4@Append
$LN2@Append:
  00065	8b 45 f4	 mov	 eax, DWORD PTR _i$1[ebp]
  00068	83 c0 01	 add	 eax, 1
  0006b	89 45 f4	 mov	 DWORD PTR _i$1[ebp], eax
$LN4@Append:
  0006e	8b 45 08	 mov	 eax, DWORD PTR _Src$[ebp]
  00071	8b 4d f4	 mov	 ecx, DWORD PTR _i$1[ebp]
  00074	3b 48 10	 cmp	 ecx, DWORD PTR [eax+16]
  00077	7d 20		 jge	 SHORT $LN3@Append
  00079	8b 45 08	 mov	 eax, DWORD PTR _Src$[ebp]
  0007c	8b 48 04	 mov	 ecx, DWORD PTR [eax+4]
  0007f	8b 55 fc	 mov	 edx, DWORD PTR _this$[ebp]
  00082	8b 42 10	 mov	 eax, DWORD PTR [edx+16]
  00085	03 45 f4	 add	 eax, DWORD PTR _i$1[ebp]
  00088	8b 55 fc	 mov	 edx, DWORD PTR _this$[ebp]
  0008b	8b 52 04	 mov	 edx, DWORD PTR [edx+4]
  0008e	8b 75 f4	 mov	 esi, DWORD PTR _i$1[ebp]
  00091	8b 0c b1	 mov	 ecx, DWORD PTR [ecx+esi*4]
  00094	89 0c 82	 mov	 DWORD PTR [edx+eax*4], ecx
  00097	eb cc		 jmp	 SHORT $LN2@Append
$LN3@Append:

; 203  : 		m_nElementCount+=Src.m_nElementCount;

  00099	8b 45 fc	 mov	 eax, DWORD PTR _this$[ebp]
  0009c	8b 48 10	 mov	 ecx, DWORD PTR [eax+16]
  0009f	8b 55 08	 mov	 edx, DWORD PTR _Src$[ebp]
  000a2	03 4a 10	 add	 ecx, DWORD PTR [edx+16]
  000a5	8b 45 fc	 mov	 eax, DWORD PTR _this$[ebp]
  000a8	89 48 10	 mov	 DWORD PTR [eax+16], ecx
$LN6@Append:

; 204  : 	}
; 205  : 
; 206  : 	return m_nElementCount;

  000ab	8b 45 fc	 mov	 eax, DWORD PTR _this$[ebp]
  000ae	8b 40 10	 mov	 eax, DWORD PTR [eax+16]
$LN7@Append:

; 207  : }

  000b1	5f		 pop	 edi
  000b2	5e		 pop	 esi
  000b3	5b		 pop	 ebx
  000b4	8b e5		 mov	 esp, ebp
  000b6	5d		 pop	 ebp
  000b7	c2 04 00	 ret	 4
?Append@?$CWHArray@PAUtagGameMatchOption@@ABQAU1@@@QAEHABV1@@Z ENDP ; CWHArray<tagGameMatchOption *,tagGameMatchOption * const &>::Append
_TEXT	ENDS
; Function compile flags: /Odtp /ZI
; File g:\网狐\happygamewh\服务端\系统模块\全局定义\array.h
;	COMDAT ?Add@?$CWHArray@PAUtagGameMatchOption@@ABQAU1@@@QAEHABQAUtagGameMatchOption@@@Z
_TEXT	SEGMENT
_nIndex$ = -8						; size = 4
_this$ = -4						; size = 4
_newElement$ = 8					; size = 4
?Add@?$CWHArray@PAUtagGameMatchOption@@ABQAU1@@@QAEHABQAUtagGameMatchOption@@@Z PROC ; CWHArray<tagGameMatchOption *,tagGameMatchOption * const &>::Add, COMDAT
; _this$ = ecx

; 105  : {

  00000	55		 push	 ebp
  00001	8b ec		 mov	 ebp, esp
  00003	83 ec 48	 sub	 esp, 72			; 00000048H
  00006	53		 push	 ebx
  00007	56		 push	 esi
  00008	57		 push	 edi
  00009	89 4d fc	 mov	 DWORD PTR _this$[ebp], ecx

; 106  : 	INT_PTR nIndex=m_nElementCount;

  0000c	8b 45 fc	 mov	 eax, DWORD PTR _this$[ebp]
  0000f	8b 48 10	 mov	 ecx, DWORD PTR [eax+16]
  00012	89 4d f8	 mov	 DWORD PTR _nIndex$[ebp], ecx

; 107  : 	SetAtGrow(nIndex,newElement);

  00015	8b 45 08	 mov	 eax, DWORD PTR _newElement$[ebp]
  00018	50		 push	 eax
  00019	8b 4d f8	 mov	 ecx, DWORD PTR _nIndex$[ebp]
  0001c	51		 push	 ecx
  0001d	8b 4d fc	 mov	 ecx, DWORD PTR _this$[ebp]
  00020	e8 00 00 00 00	 call	 ?SetAtGrow@?$CWHArray@PAUtagGameMatchOption@@ABQAU1@@@QAEXHABQAUtagGameMatchOption@@@Z ; CWHArray<tagGameMatchOption *,tagGameMatchOption * const &>::SetAtGrow

; 108  : 	return nIndex;

  00025	8b 45 f8	 mov	 eax, DWORD PTR _nIndex$[ebp]

; 109  : }

  00028	5f		 pop	 edi
  00029	5e		 pop	 esi
  0002a	5b		 pop	 ebx
  0002b	8b e5		 mov	 esp, ebp
  0002d	5d		 pop	 ebp
  0002e	c2 04 00	 ret	 4
?Add@?$CWHArray@PAUtagGameMatchOption@@ABQAU1@@@QAEHABQAUtagGameMatchOption@@@Z ENDP ; CWHArray<tagGameMatchOption *,tagGameMatchOption * const &>::Add
_TEXT	ENDS
; Function compile flags: /Odtp /ZI
; File g:\网狐\happygamewh\服务端\系统模块\全局定义\array.h
;	COMDAT ?GetCount@?$CWHArray@PAUtagGameMatchOption@@ABQAU1@@@QBEHXZ
_TEXT	SEGMENT
_this$ = -4						; size = 4
?GetCount@?$CWHArray@PAUtagGameMatchOption@@ABQAU1@@@QBEHXZ PROC ; CWHArray<tagGameMatchOption *,tagGameMatchOption * const &>::GetCount, COMDAT
; _this$ = ecx

; 98   : {

  00000	55		 push	 ebp
  00001	8b ec		 mov	 ebp, esp
  00003	83 ec 44	 sub	 esp, 68			; 00000044H
  00006	53		 push	 ebx
  00007	56		 push	 esi
  00008	57		 push	 edi
  00009	89 4d fc	 mov	 DWORD PTR _this$[ebp], ecx

; 99   : 	return m_nElementCount;

  0000c	8b 45 fc	 mov	 eax, DWORD PTR _this$[ebp]
  0000f	8b 40 10	 mov	 eax, DWORD PTR [eax+16]

; 100  : }

  00012	5f		 pop	 edi
  00013	5e		 pop	 esi
  00014	5b		 pop	 ebx
  00015	8b e5		 mov	 esp, ebp
  00017	5d		 pop	 ebp
  00018	c3		 ret	 0
?GetCount@?$CWHArray@PAUtagGameMatchOption@@ABQAU1@@@QBEHXZ ENDP ; CWHArray<tagGameMatchOption *,tagGameMatchOption * const &>::GetCount
_TEXT	ENDS
; Function compile flags: /Odtp /ZI
; File g:\网狐\happygamewh\服务端\系统模块\全局定义\array.h
;	COMDAT ??1?$CWHArray@PAUtagGameMatchOption@@ABQAU1@@@UAE@XZ
_TEXT	SEGMENT
$T1 = -76						; size = 4
_i$2 = -8						; size = 4
_this$ = -4						; size = 4
??1?$CWHArray@PAUtagGameMatchOption@@ABQAU1@@@UAE@XZ PROC ; CWHArray<tagGameMatchOption *,tagGameMatchOption * const &>::~CWHArray<tagGameMatchOption *,tagGameMatchOption * const &>, COMDAT
; _this$ = ecx

; 143  : {

  00000	55		 push	 ebp
  00001	8b ec		 mov	 ebp, esp
  00003	83 ec 4c	 sub	 esp, 76			; 0000004cH
  00006	53		 push	 ebx
  00007	56		 push	 esi
  00008	57		 push	 edi
  00009	89 4d fc	 mov	 DWORD PTR _this$[ebp], ecx
  0000c	8b 45 fc	 mov	 eax, DWORD PTR _this$[ebp]
  0000f	c7 00 00 00 00
	00		 mov	 DWORD PTR [eax], OFFSET ??_7?$CWHArray@PAUtagGameMatchOption@@ABQAU1@@@6B@

; 144  : 	if (m_pData!=NULL)

  00015	8b 45 fc	 mov	 eax, DWORD PTR _this$[ebp]
  00018	83 78 04 00	 cmp	 DWORD PTR [eax+4], 0
  0001c	74 3e		 je	 SHORT $LN6@CWHArray

; 145  : 	{
; 146  : 		for (INT_PTR i=0;i<m_nElementCount;i++)	(m_pData+i)->~TYPE();

  0001e	c7 45 f8 00 00
	00 00		 mov	 DWORD PTR _i$2[ebp], 0
  00025	eb 09		 jmp	 SHORT $LN4@CWHArray
$LN2@CWHArray:
  00027	8b 45 f8	 mov	 eax, DWORD PTR _i$2[ebp]
  0002a	83 c0 01	 add	 eax, 1
  0002d	89 45 f8	 mov	 DWORD PTR _i$2[ebp], eax
$LN4@CWHArray:
  00030	8b 45 fc	 mov	 eax, DWORD PTR _this$[ebp]
  00033	8b 4d f8	 mov	 ecx, DWORD PTR _i$2[ebp]
  00036	3b 48 10	 cmp	 ecx, DWORD PTR [eax+16]
  00039	7d 02		 jge	 SHORT $LN3@CWHArray
  0003b	eb ea		 jmp	 SHORT $LN2@CWHArray
$LN3@CWHArray:

; 147  : 		delete [] (BYTE *)m_pData;

  0003d	8b 45 fc	 mov	 eax, DWORD PTR _this$[ebp]
  00040	8b 48 04	 mov	 ecx, DWORD PTR [eax+4]
  00043	89 4d b4	 mov	 DWORD PTR $T1[ebp], ecx
  00046	8b 55 b4	 mov	 edx, DWORD PTR $T1[ebp]
  00049	52		 push	 edx
  0004a	e8 00 00 00 00	 call	 ??_V@YAXPAX@Z		; operator delete[]
  0004f	83 c4 04	 add	 esp, 4

; 148  : 		m_pData=NULL;

  00052	8b 45 fc	 mov	 eax, DWORD PTR _this$[ebp]
  00055	c7 40 04 00 00
	00 00		 mov	 DWORD PTR [eax+4], 0
$LN6@CWHArray:

; 149  : 	}
; 150  : 
; 151  : 	return;
; 152  : }

  0005c	5f		 pop	 edi
  0005d	5e		 pop	 esi
  0005e	5b		 pop	 ebx
  0005f	8b e5		 mov	 esp, ebp
  00061	5d		 pop	 ebp
  00062	c3		 ret	 0
??1?$CWHArray@PAUtagGameMatchOption@@ABQAU1@@@UAE@XZ ENDP ; CWHArray<tagGameMatchOption *,tagGameMatchOption * const &>::~CWHArray<tagGameMatchOption *,tagGameMatchOption * const &>
_TEXT	ENDS
; Function compile flags: /Odtp /ZI
; File g:\网狐\happygamewh\服务端\系统模块\全局定义\array.h
;	COMDAT ??0?$CWHArray@PAUtagGameMatchOption@@ABQAU1@@@QAE@XZ
_TEXT	SEGMENT
_this$ = -4						; size = 4
??0?$CWHArray@PAUtagGameMatchOption@@ABQAU1@@@QAE@XZ PROC ; CWHArray<tagGameMatchOption *,tagGameMatchOption * const &>::CWHArray<tagGameMatchOption *,tagGameMatchOption * const &>, COMDAT
; _this$ = ecx

; 131  : {

  00000	55		 push	 ebp
  00001	8b ec		 mov	 ebp, esp
  00003	83 ec 44	 sub	 esp, 68			; 00000044H
  00006	53		 push	 ebx
  00007	56		 push	 esi
  00008	57		 push	 edi
  00009	89 4d fc	 mov	 DWORD PTR _this$[ebp], ecx
  0000c	8b 45 fc	 mov	 eax, DWORD PTR _this$[ebp]
  0000f	c7 00 00 00 00
	00		 mov	 DWORD PTR [eax], OFFSET ??_7?$CWHArray@PAUtagGameMatchOption@@ABQAU1@@@6B@

; 132  : 	m_pData=NULL;

  00015	8b 45 fc	 mov	 eax, DWORD PTR _this$[ebp]
  00018	c7 40 04 00 00
	00 00		 mov	 DWORD PTR [eax+4], 0

; 133  : 	m_nMaxCount=0;

  0001f	8b 45 fc	 mov	 eax, DWORD PTR _this$[ebp]
  00022	c7 40 08 00 00
	00 00		 mov	 DWORD PTR [eax+8], 0

; 134  : 	m_nGrowCount=0;

  00029	8b 45 fc	 mov	 eax, DWORD PTR _this$[ebp]
  0002c	c7 40 0c 00 00
	00 00		 mov	 DWORD PTR [eax+12], 0

; 135  : 	m_nElementCount=0;

  00033	8b 45 fc	 mov	 eax, DWORD PTR _this$[ebp]
  00036	c7 40 10 00 00
	00 00		 mov	 DWORD PTR [eax+16], 0

; 136  : 
; 137  : 	return;
; 138  : }

  0003d	8b 45 fc	 mov	 eax, DWORD PTR _this$[ebp]
  00040	5f		 pop	 edi
  00041	5e		 pop	 esi
  00042	5b		 pop	 ebx
  00043	8b e5		 mov	 esp, ebp
  00045	5d		 pop	 ebp
  00046	c3		 ret	 0
??0?$CWHArray@PAUtagGameMatchOption@@ABQAU1@@@QAE@XZ ENDP ; CWHArray<tagGameMatchOption *,tagGameMatchOption * const &>::CWHArray<tagGameMatchOption *,tagGameMatchOption * const &>
_TEXT	ENDS
; Function compile flags: /Odtp /ZI
;	COMDAT ??_ECServerInfoBuffer@@UAEPAXI@Z
_TEXT	SEGMENT
_this$ = -16						; size = 4
__$EHRec$ = -12						; size = 12
___flags$ = 8						; size = 4
??_ECServerInfoBuffer@@UAEPAXI@Z PROC			; CServerInfoBuffer::`vector deleting destructor', COMDAT
; _this$ = ecx
  00000	55		 push	 ebp
  00001	8b ec		 mov	 ebp, esp
  00003	6a ff		 push	 -1
  00005	68 00 00 00 00	 push	 __ehhandler$??_ECServerInfoBuffer@@UAEPAXI@Z
  0000a	64 a1 00 00 00
	00		 mov	 eax, DWORD PTR fs:0
  00010	50		 push	 eax
  00011	83 ec 44	 sub	 esp, 68			; 00000044H
  00014	53		 push	 ebx
  00015	56		 push	 esi
  00016	57		 push	 edi
  00017	a1 00 00 00 00	 mov	 eax, DWORD PTR ___security_cookie
  0001c	33 c5		 xor	 eax, ebp
  0001e	50		 push	 eax
  0001f	8d 45 f4	 lea	 eax, DWORD PTR __$EHRec$[ebp]
  00022	64 a3 00 00 00
	00		 mov	 DWORD PTR fs:0, eax
  00028	89 4d f0	 mov	 DWORD PTR _this$[ebp], ecx
  0002b	8b 45 08	 mov	 eax, DWORD PTR ___flags$[ebp]
  0002e	83 e0 02	 and	 eax, 2
  00031	74 41		 je	 SHORT $LN2@vector
  00033	68 00 00 00 00	 push	 OFFSET ??1CServerInfoBuffer@@UAE@XZ ; CServerInfoBuffer::~CServerInfoBuffer
  00038	8b 45 f0	 mov	 eax, DWORD PTR _this$[ebp]
  0003b	8b 48 fc	 mov	 ecx, DWORD PTR [eax-4]
  0003e	51		 push	 ecx
  0003f	6a 34		 push	 52			; 00000034H
  00041	8b 55 f0	 mov	 edx, DWORD PTR _this$[ebp]
  00044	52		 push	 edx
  00045	e8 00 00 00 00	 call	 ??_M@YGXPAXIIP6EX0@Z@Z
  0004a	8b 45 08	 mov	 eax, DWORD PTR ___flags$[ebp]
  0004d	83 e0 01	 and	 eax, 1
  00050	74 1a		 je	 SHORT $LN3@vector
  00052	8b 45 f0	 mov	 eax, DWORD PTR _this$[ebp]
  00055	6b 48 fc 34	 imul	 ecx, DWORD PTR [eax-4], 52
  00059	83 c1 04	 add	 ecx, 4
  0005c	51		 push	 ecx
  0005d	8b 55 f0	 mov	 edx, DWORD PTR _this$[ebp]
  00060	83 ea 04	 sub	 edx, 4
  00063	52		 push	 edx
  00064	e8 00 00 00 00	 call	 ??_V@YAXPAXI@Z		; operator delete[]
  00069	83 c4 08	 add	 esp, 8
$LN3@vector:
  0006c	8b 45 f0	 mov	 eax, DWORD PTR _this$[ebp]
  0006f	83 e8 04	 sub	 eax, 4
  00072	eb 21		 jmp	 SHORT $LN5@vector
$LN2@vector:
  00074	8b 4d f0	 mov	 ecx, DWORD PTR _this$[ebp]
  00077	e8 00 00 00 00	 call	 ??1CServerInfoBuffer@@UAE@XZ ; CServerInfoBuffer::~CServerInfoBuffer
  0007c	8b 45 08	 mov	 eax, DWORD PTR ___flags$[ebp]
  0007f	83 e0 01	 and	 eax, 1
  00082	74 0e		 je	 SHORT $LN4@vector
  00084	6a 34		 push	 52			; 00000034H
  00086	8b 45 f0	 mov	 eax, DWORD PTR _this$[ebp]
  00089	50		 push	 eax
  0008a	e8 00 00 00 00	 call	 ??3@YAXPAXI@Z		; operator delete
  0008f	83 c4 08	 add	 esp, 8
$LN4@vector:
  00092	8b 45 f0	 mov	 eax, DWORD PTR _this$[ebp]
$LN5@vector:
  00095	8b 4d f4	 mov	 ecx, DWORD PTR __$EHRec$[ebp]
  00098	64 89 0d 00 00
	00 00		 mov	 DWORD PTR fs:0, ecx
  0009f	59		 pop	 ecx
  000a0	5f		 pop	 edi
  000a1	5e		 pop	 esi
  000a2	5b		 pop	 ebx
  000a3	8b e5		 mov	 esp, ebp
  000a5	5d		 pop	 ebp
  000a6	c2 04 00	 ret	 4
_TEXT	ENDS
;	COMDAT text$x
text$x	SEGMENT
__ehhandler$??_ECServerInfoBuffer@@UAEPAXI@Z:
  00000	8b 54 24 08	 mov	 edx, DWORD PTR [esp+8]
  00004	8d 42 0c	 lea	 eax, DWORD PTR [edx+12]
  00007	8b 4a ac	 mov	 ecx, DWORD PTR [edx-84]
  0000a	33 c8		 xor	 ecx, eax
  0000c	e8 00 00 00 00	 call	 @__security_check_cookie@4
  00011	b8 00 00 00 00	 mov	 eax, OFFSET __ehfuncinfo$??_ECServerInfoBuffer@@UAEPAXI@Z
  00016	e9 00 00 00 00	 jmp	 ___CxxFrameHandler3
text$x	ENDS
??_ECServerInfoBuffer@@UAEPAXI@Z ENDP			; CServerInfoBuffer::`vector deleting destructor'
; Function compile flags: /Odtp /ZI
;	COMDAT ??_GCServerInfoBuffer@@UAEPAXI@Z
_TEXT	SEGMENT
_this$ = -4						; size = 4
___flags$ = 8						; size = 4
??_GCServerInfoBuffer@@UAEPAXI@Z PROC			; CServerInfoBuffer::`scalar deleting destructor', COMDAT
; _this$ = ecx
  00000	55		 push	 ebp
  00001	8b ec		 mov	 ebp, esp
  00003	83 ec 44	 sub	 esp, 68			; 00000044H
  00006	53		 push	 ebx
  00007	56		 push	 esi
  00008	57		 push	 edi
  00009	89 4d fc	 mov	 DWORD PTR _this$[ebp], ecx
  0000c	8b 4d fc	 mov	 ecx, DWORD PTR _this$[ebp]
  0000f	e8 00 00 00 00	 call	 ??1CServerInfoBuffer@@UAE@XZ ; CServerInfoBuffer::~CServerInfoBuffer
  00014	8b 45 08	 mov	 eax, DWORD PTR ___flags$[ebp]
  00017	83 e0 01	 and	 eax, 1
  0001a	74 0e		 je	 SHORT $LN2@scalar
  0001c	6a 34		 push	 52			; 00000034H
  0001e	8b 45 fc	 mov	 eax, DWORD PTR _this$[ebp]
  00021	50		 push	 eax
  00022	e8 00 00 00 00	 call	 ??3@YAXPAXI@Z		; operator delete
  00027	83 c4 08	 add	 esp, 8
$LN2@scalar:
  0002a	8b 45 fc	 mov	 eax, DWORD PTR _this$[ebp]
  0002d	5f		 pop	 edi
  0002e	5e		 pop	 esi
  0002f	5b		 pop	 ebx
  00030	8b e5		 mov	 esp, ebp
  00032	5d		 pop	 ebp
  00033	c2 04 00	 ret	 4
??_GCServerInfoBuffer@@UAEPAXI@Z ENDP			; CServerInfoBuffer::`scalar deleting destructor'
_TEXT	ENDS
; Function compile flags: /Odtp /ZI
; File g:\网狐\happygamewh\服务端\系统模块\服务器组件\模块管理\serverinfomanager.cpp
;	COMDAT ?CreateServerInfo@CServerInfoBuffer@@AAEPAUtagGameServerInfo@@XZ
_TEXT	SEGMENT
tv90 = -104						; size = 4
tv89 = -104						; size = 4
tv88 = -104						; size = 4
$T2 = -100						; size = 4
$T3 = -96						; size = 4
_nArrayCount$4 = -28					; size = 4
_pGameServerInfo$ = -24					; size = 4
_this$ = -20						; size = 4
__$EHRec$ = -16						; size = 16
?CreateServerInfo@CServerInfoBuffer@@AAEPAUtagGameServerInfo@@XZ PROC ; CServerInfoBuffer::CreateServerInfo, COMDAT
; _this$ = ecx

; 127  : {

  00000	55		 push	 ebp
  00001	8b ec		 mov	 ebp, esp
  00003	6a ff		 push	 -1
  00005	68 00 00 00 00	 push	 __ehhandler$?CreateServerInfo@CServerInfoBuffer@@AAEPAUtagGameServerInfo@@XZ
  0000a	64 a1 00 00 00
	00		 mov	 eax, DWORD PTR fs:0
  00010	50		 push	 eax
  00011	51		 push	 ecx
  00012	83 ec 58	 sub	 esp, 88			; 00000058H
  00015	53		 push	 ebx
  00016	56		 push	 esi
  00017	57		 push	 edi
  00018	a1 00 00 00 00	 mov	 eax, DWORD PTR ___security_cookie
  0001d	33 c5		 xor	 eax, ebp
  0001f	50		 push	 eax
  00020	8d 45 f4	 lea	 eax, DWORD PTR __$EHRec$[ebp+4]
  00023	64 a3 00 00 00
	00		 mov	 DWORD PTR fs:0, eax
  00029	89 65 f0	 mov	 DWORD PTR __$EHRec$[ebp], esp
  0002c	89 4d ec	 mov	 DWORD PTR _this$[ebp], ecx

; 128  : 	//变量定义
; 129  : 	tagGameServerInfo * pGameServerInfo=NULL;

  0002f	c7 45 e8 00 00
	00 00		 mov	 DWORD PTR _pGameServerInfo$[ebp], 0

; 130  : 
; 131  : 	//创建对象
; 132  : 	try

  00036	c7 45 fc 00 00
	00 00		 mov	 DWORD PTR __$EHRec$[ebp+12], 0

; 133  : 	{
; 134  : 		INT_PTR nArrayCount=m_GameServerInfoArray.GetCount();

  0003d	8b 4d ec	 mov	 ecx, DWORD PTR _this$[ebp]
  00040	83 c1 20	 add	 ecx, 32			; 00000020H
  00043	e8 00 00 00 00	 call	 ?GetCount@?$CWHArray@PAUtagGameServerInfo@@ABQAU1@@@QBEHXZ ; CWHArray<tagGameServerInfo *,tagGameServerInfo * const &>::GetCount
  00048	89 45 98	 mov	 DWORD PTR tv88[ebp], eax
  0004b	8b 45 98	 mov	 eax, DWORD PTR tv88[ebp]
  0004e	89 45 e4	 mov	 DWORD PTR _nArrayCount$4[ebp], eax

; 135  : 		if (nArrayCount>0)

  00051	83 7d e4 00	 cmp	 DWORD PTR _nArrayCount$4[ebp], 0
  00055	7e 33		 jle	 SHORT $LN3@CreateServ

; 136  : 		{
; 137  : 			pGameServerInfo=m_GameServerInfoArray[nArrayCount-1];

  00057	8b 45 e4	 mov	 eax, DWORD PTR _nArrayCount$4[ebp]
  0005a	83 e8 01	 sub	 eax, 1
  0005d	50		 push	 eax
  0005e	8b 4d ec	 mov	 ecx, DWORD PTR _this$[ebp]
  00061	83 c1 20	 add	 ecx, 32			; 00000020H
  00064	e8 00 00 00 00	 call	 ??A?$CWHArray@PAUtagGameServerInfo@@ABQAU1@@@QAEAAPAUtagGameServerInfo@@H@Z ; CWHArray<tagGameServerInfo *,tagGameServerInfo * const &>::operator[]
  00069	89 45 98	 mov	 DWORD PTR tv89[ebp], eax
  0006c	8b 4d 98	 mov	 ecx, DWORD PTR tv89[ebp]
  0006f	8b 11		 mov	 edx, DWORD PTR [ecx]
  00071	89 55 e8	 mov	 DWORD PTR _pGameServerInfo$[ebp], edx

; 138  : 			m_GameServerInfoArray.RemoveAt(nArrayCount-1);

  00074	6a 01		 push	 1
  00076	8b 45 e4	 mov	 eax, DWORD PTR _nArrayCount$4[ebp]
  00079	83 e8 01	 sub	 eax, 1
  0007c	50		 push	 eax
  0007d	8b 4d ec	 mov	 ecx, DWORD PTR _this$[ebp]
  00080	83 c1 20	 add	 ecx, 32			; 00000020H
  00083	e8 00 00 00 00	 call	 ?RemoveAt@?$CWHArray@PAUtagGameServerInfo@@ABQAU1@@@QAEXHH@Z ; CWHArray<tagGameServerInfo *,tagGameServerInfo * const &>::RemoveAt

; 139  : 		}
; 140  : 		else

  00088	eb 26		 jmp	 SHORT $LN4@CreateServ
$LN3@CreateServ:

; 141  : 		{
; 142  : 			pGameServerInfo=new tagGameServerInfo;

  0008a	68 70 09 00 00	 push	 2416			; 00000970H
  0008f	e8 00 00 00 00	 call	 ??2@YAPAXI@Z		; operator new
  00094	83 c4 04	 add	 esp, 4
  00097	89 45 98	 mov	 DWORD PTR tv90[ebp], eax
  0009a	8b 45 98	 mov	 eax, DWORD PTR tv90[ebp]
  0009d	89 45 a0	 mov	 DWORD PTR $T3[ebp], eax
  000a0	8b 4d a0	 mov	 ecx, DWORD PTR $T3[ebp]
  000a3	89 4d e8	 mov	 DWORD PTR _pGameServerInfo$[ebp], ecx

; 143  : 			if (pGameServerInfo==NULL) return NULL;

  000a6	83 7d e8 00	 cmp	 DWORD PTR _pGameServerInfo$[ebp], 0
  000aa	75 04		 jne	 SHORT $LN4@CreateServ
  000ac	33 c0		 xor	 eax, eax
  000ae	eb 40		 jmp	 SHORT $LN1@CreateServ
$LN4@CreateServ:

; 144  : 		}
; 145  : 	}

  000b0	eb 13		 jmp	 SHORT $LN7@CreateServ
__catch$?CreateServerInfo@CServerInfoBuffer@@AAEPAUtagGameServerInfo@@XZ$0:

; 146  : 	catch (...) { return false; }

  000b2	c7 45 9c 00 00
	00 00		 mov	 DWORD PTR $T2[ebp], 0
  000b9	b8 00 00 00 00	 mov	 eax, $LN10@CreateServ
  000be	c3		 ret	 0
  000bf	b8 00 00 00 00	 mov	 eax, $LN7@CreateServ
  000c4	c3		 ret	 0
$LN7@CreateServ:
  000c5	c7 45 fc ff ff
	ff ff		 mov	 DWORD PTR __$EHRec$[ebp+12], -1
  000cc	eb 0c		 jmp	 SHORT $LN9@CreateServ
$LN10@CreateServ:
  000ce	c7 45 fc ff ff
	ff ff		 mov	 DWORD PTR __$EHRec$[ebp+12], -1
  000d5	8b 45 9c	 mov	 eax, DWORD PTR $T2[ebp]
  000d8	eb 16		 jmp	 SHORT $LN1@CreateServ
$LN9@CreateServ:

; 147  : 
; 148  : 	//设置变量
; 149  : 	ZeroMemory(pGameServerInfo,sizeof(tagGameServerInfo));

  000da	68 70 09 00 00	 push	 2416			; 00000970H
  000df	6a 00		 push	 0
  000e1	8b 45 e8	 mov	 eax, DWORD PTR _pGameServerInfo$[ebp]
  000e4	50		 push	 eax
  000e5	e8 00 00 00 00	 call	 _memset
  000ea	83 c4 0c	 add	 esp, 12			; 0000000cH

; 150  : 
; 151  : 	return pGameServerInfo;

  000ed	8b 45 e8	 mov	 eax, DWORD PTR _pGameServerInfo$[ebp]
$LN1@CreateServ:

; 152  : }

  000f0	8b 4d f4	 mov	 ecx, DWORD PTR __$EHRec$[ebp+4]
  000f3	64 89 0d 00 00
	00 00		 mov	 DWORD PTR fs:0, ecx
  000fa	59		 pop	 ecx
  000fb	5f		 pop	 edi
  000fc	5e		 pop	 esi
  000fd	5b		 pop	 ebx
  000fe	8b e5		 mov	 esp, ebp
  00100	5d		 pop	 ebp
  00101	c3		 ret	 0
_TEXT	ENDS
;	COMDAT text$x
text$x	SEGMENT
__ehhandler$?CreateServerInfo@CServerInfoBuffer@@AAEPAUtagGameServerInfo@@XZ:
  00000	8b 54 24 08	 mov	 edx, DWORD PTR [esp+8]
  00004	8d 42 0c	 lea	 eax, DWORD PTR [edx+12]
  00007	8b 4a 94	 mov	 ecx, DWORD PTR [edx-108]
  0000a	33 c8		 xor	 ecx, eax
  0000c	e8 00 00 00 00	 call	 @__security_check_cookie@4
  00011	b8 00 00 00 00	 mov	 eax, OFFSET __ehfuncinfo$?CreateServerInfo@CServerInfoBuffer@@AAEPAUtagGameServerInfo@@XZ
  00016	e9 00 00 00 00	 jmp	 ___CxxFrameHandler3
text$x	ENDS
?CreateServerInfo@CServerInfoBuffer@@AAEPAUtagGameServerInfo@@XZ ENDP ; CServerInfoBuffer::CreateServerInfo
; Function compile flags: /Odtp /ZI
; File g:\网狐\happygamewh\服务端\系统模块\服务器组件\模块管理\serverinfomanager.cpp
;	COMDAT ?SearchServerInfo@CServerInfoBuffer@@QAEPAUtagGameServerInfo@@G@Z
_TEXT	SEGMENT
_pGameServerInfo$ = -8					; size = 4
_this$ = -4						; size = 4
_wServerID$ = 8						; size = 2
?SearchServerInfo@CServerInfoBuffer@@QAEPAUtagGameServerInfo@@G@Z PROC ; CServerInfoBuffer::SearchServerInfo, COMDAT
; _this$ = ecx

; 119  : {

  00000	55		 push	 ebp
  00001	8b ec		 mov	 ebp, esp
  00003	83 ec 48	 sub	 esp, 72			; 00000048H
  00006	53		 push	 ebx
  00007	56		 push	 esi
  00008	57		 push	 edi
  00009	89 4d fc	 mov	 DWORD PTR _this$[ebp], ecx

; 120  : 	tagGameServerInfo * pGameServerInfo=NULL;

  0000c	c7 45 f8 00 00
	00 00		 mov	 DWORD PTR _pGameServerInfo$[ebp], 0

; 121  : 	m_GameServerInfoMap.Lookup(wServerID,pGameServerInfo);

  00013	8d 45 f8	 lea	 eax, DWORD PTR _pGameServerInfo$[ebp]
  00016	50		 push	 eax
  00017	0f b7 4d 08	 movzx	 ecx, WORD PTR _wServerID$[ebp]
  0001b	51		 push	 ecx
  0001c	8b 4d fc	 mov	 ecx, DWORD PTR _this$[ebp]
  0001f	83 c1 04	 add	 ecx, 4
  00022	e8 00 00 00 00	 call	 ?Lookup@?$CMap@GGPAUtagGameServerInfo@@PAU1@@@QBEHGAAPAUtagGameServerInfo@@@Z ; CMap<unsigned short,unsigned short,tagGameServerInfo *,tagGameServerInfo *>::Lookup

; 122  : 	return pGameServerInfo;

  00027	8b 45 f8	 mov	 eax, DWORD PTR _pGameServerInfo$[ebp]

; 123  : }

  0002a	5f		 pop	 edi
  0002b	5e		 pop	 esi
  0002c	5b		 pop	 ebx
  0002d	8b e5		 mov	 esp, ebp
  0002f	5d		 pop	 ebp
  00030	c2 04 00	 ret	 4
?SearchServerInfo@CServerInfoBuffer@@QAEPAUtagGameServerInfo@@G@Z ENDP ; CServerInfoBuffer::SearchServerInfo
_TEXT	ENDS
; Function compile flags: /Odtp /ZI
; File g:\网狐\happygamewh\服务端\系统模块\服务器组件\模块管理\serverinfomanager.cpp
;	COMDAT ?GetServerInfoCount@CServerInfoBuffer@@QAEKXZ
_TEXT	SEGMENT
_this$ = -4						; size = 4
?GetServerInfoCount@CServerInfoBuffer@@QAEKXZ PROC	; CServerInfoBuffer::GetServerInfoCount, COMDAT
; _this$ = ecx

; 113  : {

  00000	55		 push	 ebp
  00001	8b ec		 mov	 ebp, esp
  00003	83 ec 44	 sub	 esp, 68			; 00000044H
  00006	53		 push	 ebx
  00007	56		 push	 esi
  00008	57		 push	 edi
  00009	89 4d fc	 mov	 DWORD PTR _this$[ebp], ecx

; 114  : 	return (DWORD)(m_GameServerInfoMap.GetCount());

  0000c	8b 4d fc	 mov	 ecx, DWORD PTR _this$[ebp]
  0000f	83 c1 04	 add	 ecx, 4
  00012	e8 00 00 00 00	 call	 ?GetCount@?$CMap@GGPAUtagGameServerInfo@@PAU1@@@QBEHXZ ; CMap<unsigned short,unsigned short,tagGameServerInfo *,tagGameServerInfo *>::GetCount

; 115  : }

  00017	5f		 pop	 edi
  00018	5e		 pop	 esi
  00019	5b		 pop	 ebx
  0001a	8b e5		 mov	 esp, ebp
  0001c	5d		 pop	 ebp
  0001d	c3		 ret	 0
?GetServerInfoCount@CServerInfoBuffer@@QAEKXZ ENDP	; CServerInfoBuffer::GetServerInfoCount
_TEXT	ENDS
; Function compile flags: /Odtp /ZI
; File g:\网狐\happygamewh\服务端\系统模块\服务器组件\模块管理\serverinfomanager.cpp
;	COMDAT ?InsertServerInfo@CServerInfoBuffer@@QAE_NPAUtagGameServerInfo@@@Z
_TEXT	SEGMENT
_pGameServerInsert$ = -12				; size = 4
_wServerID$ = -8					; size = 2
_this$ = -4						; size = 4
_pGameServerInfo$ = 8					; size = 4
?InsertServerInfo@CServerInfoBuffer@@QAE_NPAUtagGameServerInfo@@@Z PROC ; CServerInfoBuffer::InsertServerInfo, COMDAT
; _this$ = ecx

; 81   : {

  00000	55		 push	 ebp
  00001	8b ec		 mov	 ebp, esp
  00003	83 ec 4c	 sub	 esp, 76			; 0000004cH
  00006	53		 push	 ebx
  00007	56		 push	 esi
  00008	57		 push	 edi
  00009	89 4d fc	 mov	 DWORD PTR _this$[ebp], ecx

; 82   : 	//效验参数
; 83   : 	ASSERT(pGameServerInfo!=NULL);

  0000c	83 7d 08 00	 cmp	 DWORD PTR _pGameServerInfo$[ebp], 0
  00010	75 18		 jne	 SHORT $LN6@InsertServ
  00012	a1 00 00 00 00	 mov	 eax, DWORD PTR ?__LINE__Var@?0??InsertServerInfo@CServerInfoBuffer@@QAE_NPAUtagGameServerInfo@@@Z@4JA
  00017	83 c0 02	 add	 eax, 2
  0001a	50		 push	 eax
  0001b	68 00 00 00 00	 push	 OFFSET ??_C@_0EO@GNEBGAKM@g?3?2?M?x?$LK?$PM?2happygamewh?2?$LH?$PO?N?q?$LG?K?2?O?$LF?M?$LD@
  00020	e8 00 00 00 00	 call	 ?AfxAssertFailedLine@@YGHPBDH@Z ; AfxAssertFailedLine
  00025	85 c0		 test	 eax, eax
  00027	74 01		 je	 SHORT $LN6@InsertServ
  00029	cc		 int	 3
$LN6@InsertServ:

; 84   : 	if (pGameServerInfo==NULL) return false;

  0002a	83 7d 08 00	 cmp	 DWORD PTR _pGameServerInfo$[ebp], 0
  0002e	75 04		 jne	 SHORT $LN2@InsertServ
  00030	32 c0		 xor	 al, al
  00032	eb 7f		 jmp	 SHORT $LN1@InsertServ
$LN2@InsertServ:

; 85   : 
; 86   : 	//查找现存
; 87   : 	WORD wServerID=pGameServerInfo->wServerID;

  00034	8b 45 08	 mov	 eax, DWORD PTR _pGameServerInfo$[ebp]
  00037	66 8b 48 02	 mov	 cx, WORD PTR [eax+2]
  0003b	66 89 4d f8	 mov	 WORD PTR _wServerID$[ebp], cx

; 88   : 	tagGameServerInfo * pGameServerInsert=SearchServerInfo(wServerID);

  0003f	0f b7 45 f8	 movzx	 eax, WORD PTR _wServerID$[ebp]
  00043	50		 push	 eax
  00044	8b 4d fc	 mov	 ecx, DWORD PTR _this$[ebp]
  00047	e8 00 00 00 00	 call	 ?SearchServerInfo@CServerInfoBuffer@@QAEPAUtagGameServerInfo@@G@Z ; CServerInfoBuffer::SearchServerInfo
  0004c	89 45 f4	 mov	 DWORD PTR _pGameServerInsert$[ebp], eax

; 89   : 
; 90   : 	//创建判断
; 91   : 	if (pGameServerInsert==NULL)

  0004f	83 7d f4 00	 cmp	 DWORD PTR _pGameServerInsert$[ebp], 0
  00053	75 32		 jne	 SHORT $LN3@InsertServ

; 92   : 	{
; 93   : 		//创建对象
; 94   : 		pGameServerInsert=CreateServerInfo();

  00055	8b 4d fc	 mov	 ecx, DWORD PTR _this$[ebp]
  00058	e8 00 00 00 00	 call	 ?CreateServerInfo@CServerInfoBuffer@@AAEPAUtagGameServerInfo@@XZ ; CServerInfoBuffer::CreateServerInfo
  0005d	89 45 f4	 mov	 DWORD PTR _pGameServerInsert$[ebp], eax

; 95   : 
; 96   : 		//结果判断
; 97   : 		if (pGameServerInsert==NULL)

  00060	83 7d f4 00	 cmp	 DWORD PTR _pGameServerInsert$[ebp], 0
  00064	75 21		 jne	 SHORT $LN3@InsertServ

; 98   : 		{
; 99   : 			ASSERT(FALSE);

  00066	33 c0		 xor	 eax, eax
  00068	75 19		 jne	 SHORT $LN7@InsertServ
  0006a	8b 0d 00 00 00
	00		 mov	 ecx, DWORD PTR ?__LINE__Var@?0??InsertServerInfo@CServerInfoBuffer@@QAE_NPAUtagGameServerInfo@@@Z@4JA
  00070	83 c1 12	 add	 ecx, 18			; 00000012H
  00073	51		 push	 ecx
  00074	68 00 00 00 00	 push	 OFFSET ??_C@_0EO@GNEBGAKM@g?3?2?M?x?$LK?$PM?2happygamewh?2?$LH?$PO?N?q?$LG?K?2?O?$LF?M?$LD@
  00079	e8 00 00 00 00	 call	 ?AfxAssertFailedLine@@YGHPBDH@Z ; AfxAssertFailedLine
  0007e	85 c0		 test	 eax, eax
  00080	74 01		 je	 SHORT $LN7@InsertServ
  00082	cc		 int	 3
$LN7@InsertServ:

; 100  : 			return false;

  00083	32 c0		 xor	 al, al
  00085	eb 2c		 jmp	 SHORT $LN1@InsertServ
$LN3@InsertServ:

; 101  : 		}
; 102  : 	}
; 103  : 
; 104  : 	//设置数据
; 105  : 	m_GameServerInfoMap[wServerID]=pGameServerInsert;

  00087	0f b7 45 f8	 movzx	 eax, WORD PTR _wServerID$[ebp]
  0008b	50		 push	 eax
  0008c	8b 4d fc	 mov	 ecx, DWORD PTR _this$[ebp]
  0008f	83 c1 04	 add	 ecx, 4
  00092	e8 00 00 00 00	 call	 ??A?$CMap@GGPAUtagGameServerInfo@@PAU1@@@QAEAAPAUtagGameServerInfo@@G@Z ; CMap<unsigned short,unsigned short,tagGameServerInfo *,tagGameServerInfo *>::operator[]
  00097	8b 4d f4	 mov	 ecx, DWORD PTR _pGameServerInsert$[ebp]
  0009a	89 08		 mov	 DWORD PTR [eax], ecx

; 106  : 	CopyMemory(pGameServerInsert,pGameServerInfo,sizeof(tagGameServerInfo));

  0009c	68 70 09 00 00	 push	 2416			; 00000970H
  000a1	8b 45 08	 mov	 eax, DWORD PTR _pGameServerInfo$[ebp]
  000a4	50		 push	 eax
  000a5	8b 4d f4	 mov	 ecx, DWORD PTR _pGameServerInsert$[ebp]
  000a8	51		 push	 ecx
  000a9	e8 00 00 00 00	 call	 _memcpy
  000ae	83 c4 0c	 add	 esp, 12			; 0000000cH

; 107  : 
; 108  : 	return true;

  000b1	b0 01		 mov	 al, 1
$LN1@InsertServ:

; 109  : }

  000b3	5f		 pop	 edi
  000b4	5e		 pop	 esi
  000b5	5b		 pop	 ebx
  000b6	8b e5		 mov	 esp, ebp
  000b8	5d		 pop	 ebp
  000b9	c2 04 00	 ret	 4
?InsertServerInfo@CServerInfoBuffer@@QAE_NPAUtagGameServerInfo@@@Z ENDP ; CServerInfoBuffer::InsertServerInfo
_TEXT	ENDS
; Function compile flags: /Odtp /ZI
; File g:\网狐\happygamewh\服务端\系统模块\服务器组件\模块管理\serverinfomanager.cpp
;	COMDAT ?DeleteServerInfo@CServerInfoBuffer@@QAE_NG@Z
_TEXT	SEGMENT
_pGameServerInfo$ = -8					; size = 4
_this$ = -4						; size = 4
_wServerID$ = 8						; size = 2
?DeleteServerInfo@CServerInfoBuffer@@QAE_NG@Z PROC	; CServerInfoBuffer::DeleteServerInfo, COMDAT
; _this$ = ecx

; 64   : {

  00000	55		 push	 ebp
  00001	8b ec		 mov	 ebp, esp
  00003	83 ec 48	 sub	 esp, 72			; 00000048H
  00006	53		 push	 ebx
  00007	56		 push	 esi
  00008	57		 push	 edi
  00009	89 4d fc	 mov	 DWORD PTR _this$[ebp], ecx

; 65   : 	//查找类型
; 66   : 	tagGameServerInfo * pGameServerInfo=NULL;

  0000c	c7 45 f8 00 00
	00 00		 mov	 DWORD PTR _pGameServerInfo$[ebp], 0

; 67   : 	if (m_GameServerInfoMap.Lookup(wServerID,pGameServerInfo)==FALSE) return false;

  00013	8d 45 f8	 lea	 eax, DWORD PTR _pGameServerInfo$[ebp]
  00016	50		 push	 eax
  00017	0f b7 4d 08	 movzx	 ecx, WORD PTR _wServerID$[ebp]
  0001b	51		 push	 ecx
  0001c	8b 4d fc	 mov	 ecx, DWORD PTR _this$[ebp]
  0001f	83 c1 04	 add	 ecx, 4
  00022	e8 00 00 00 00	 call	 ?Lookup@?$CMap@GGPAUtagGameServerInfo@@PAU1@@@QBEHGAAPAUtagGameServerInfo@@@Z ; CMap<unsigned short,unsigned short,tagGameServerInfo *,tagGameServerInfo *>::Lookup
  00027	85 c0		 test	 eax, eax
  00029	75 04		 jne	 SHORT $LN2@DeleteServ
  0002b	32 c0		 xor	 al, al
  0002d	eb 34		 jmp	 SHORT $LN1@DeleteServ
$LN2@DeleteServ:

; 68   : 
; 69   : 	//删除数据
; 70   : 	m_GameServerInfoMap.RemoveKey(wServerID);

  0002f	0f b7 45 08	 movzx	 eax, WORD PTR _wServerID$[ebp]
  00033	50		 push	 eax
  00034	8b 4d fc	 mov	 ecx, DWORD PTR _this$[ebp]
  00037	83 c1 04	 add	 ecx, 4
  0003a	e8 00 00 00 00	 call	 ?RemoveKey@?$CMap@GGPAUtagGameServerInfo@@PAU1@@@QAEHG@Z ; CMap<unsigned short,unsigned short,tagGameServerInfo *,tagGameServerInfo *>::RemoveKey

; 71   : 	m_GameServerInfoArray.Add(pGameServerInfo);

  0003f	8d 45 f8	 lea	 eax, DWORD PTR _pGameServerInfo$[ebp]
  00042	50		 push	 eax
  00043	8b 4d fc	 mov	 ecx, DWORD PTR _this$[ebp]
  00046	83 c1 20	 add	 ecx, 32			; 00000020H
  00049	e8 00 00 00 00	 call	 ?Add@?$CWHArray@PAUtagGameServerInfo@@ABQAU1@@@QAEHABQAUtagGameServerInfo@@@Z ; CWHArray<tagGameServerInfo *,tagGameServerInfo * const &>::Add

; 72   : 
; 73   : 	//设置变量
; 74   : 	ZeroMemory(pGameServerInfo,sizeof(tagGameServerInfo));

  0004e	68 70 09 00 00	 push	 2416			; 00000970H
  00053	6a 00		 push	 0
  00055	8b 45 f8	 mov	 eax, DWORD PTR _pGameServerInfo$[ebp]
  00058	50		 push	 eax
  00059	e8 00 00 00 00	 call	 _memset
  0005e	83 c4 0c	 add	 esp, 12			; 0000000cH

; 75   : 
; 76   : 	return true;

  00061	b0 01		 mov	 al, 1
$LN1@DeleteServ:

; 77   : }

  00063	5f		 pop	 edi
  00064	5e		 pop	 esi
  00065	5b		 pop	 ebx
  00066	8b e5		 mov	 esp, ebp
  00068	5d		 pop	 ebp
  00069	c2 04 00	 ret	 4
?DeleteServerInfo@CServerInfoBuffer@@QAE_NG@Z ENDP	; CServerInfoBuffer::DeleteServerInfo
_TEXT	ENDS
; Function compile flags: /Odtp /ZI
; File g:\网狐\happygamewh\服务端\系统模块\服务器组件\模块管理\serverinfomanager.cpp
;	COMDAT ?ResetServerInfo@CServerInfoBuffer@@QAE_NXZ
_TEXT	SEGMENT
_Position$ = -16					; size = 4
_pGameServerInfo$ = -12					; size = 4
_wServerID$ = -8					; size = 2
_this$ = -4						; size = 4
?ResetServerInfo@CServerInfoBuffer@@QAE_NXZ PROC	; CServerInfoBuffer::ResetServerInfo, COMDAT
; _this$ = ecx

; 43   : {

  00000	55		 push	 ebp
  00001	8b ec		 mov	 ebp, esp
  00003	83 ec 50	 sub	 esp, 80			; 00000050H
  00006	53		 push	 ebx
  00007	56		 push	 esi
  00008	57		 push	 edi
  00009	89 4d fc	 mov	 DWORD PTR _this$[ebp], ecx

; 44   : 	//变量定义
; 45   : 	WORD wServerID=0;

  0000c	33 c0		 xor	 eax, eax
  0000e	66 89 45 f8	 mov	 WORD PTR _wServerID$[ebp], ax

; 46   : 	tagGameServerInfo * pGameServerInfo=NULL;

  00012	c7 45 f4 00 00
	00 00		 mov	 DWORD PTR _pGameServerInfo$[ebp], 0

; 47   : 	POSITION Position=m_GameServerInfoMap.GetStartPosition();

  00019	8b 4d fc	 mov	 ecx, DWORD PTR _this$[ebp]
  0001c	83 c1 04	 add	 ecx, 4
  0001f	e8 00 00 00 00	 call	 ?GetStartPosition@?$CMap@GGPAUtagGameServerInfo@@PAU1@@@QBEPAU__POSITION@@XZ ; CMap<unsigned short,unsigned short,tagGameServerInfo *,tagGameServerInfo *>::GetStartPosition
  00024	89 45 f0	 mov	 DWORD PTR _Position$[ebp], eax
$LN2@ResetServe:

; 48   : 
; 49   : 	//删除对象
; 50   : 	while (Position!=NULL)

  00027	83 7d f0 00	 cmp	 DWORD PTR _Position$[ebp], 0
  0002b	74 28		 je	 SHORT $LN3@ResetServe

; 51   : 	{
; 52   : 		m_GameServerInfoMap.GetNextAssoc(Position,wServerID,pGameServerInfo);

  0002d	8d 45 f4	 lea	 eax, DWORD PTR _pGameServerInfo$[ebp]
  00030	50		 push	 eax
  00031	8d 4d f8	 lea	 ecx, DWORD PTR _wServerID$[ebp]
  00034	51		 push	 ecx
  00035	8d 55 f0	 lea	 edx, DWORD PTR _Position$[ebp]
  00038	52		 push	 edx
  00039	8b 4d fc	 mov	 ecx, DWORD PTR _this$[ebp]
  0003c	83 c1 04	 add	 ecx, 4
  0003f	e8 00 00 00 00	 call	 ?GetNextAssoc@?$CMap@GGPAUtagGameServerInfo@@PAU1@@@QBEXAAPAU__POSITION@@AAGAAPAUtagGameServerInfo@@@Z ; CMap<unsigned short,unsigned short,tagGameServerInfo *,tagGameServerInfo *>::GetNextAssoc

; 53   : 		m_GameServerInfoArray.Add(pGameServerInfo);

  00044	8d 45 f4	 lea	 eax, DWORD PTR _pGameServerInfo$[ebp]
  00047	50		 push	 eax
  00048	8b 4d fc	 mov	 ecx, DWORD PTR _this$[ebp]
  0004b	83 c1 20	 add	 ecx, 32			; 00000020H
  0004e	e8 00 00 00 00	 call	 ?Add@?$CWHArray@PAUtagGameServerInfo@@ABQAU1@@@QAEHABQAUtagGameServerInfo@@@Z ; CWHArray<tagGameServerInfo *,tagGameServerInfo * const &>::Add

; 54   : 	}

  00053	eb d2		 jmp	 SHORT $LN2@ResetServe
$LN3@ResetServe:

; 55   : 
; 56   : 	//删除索引
; 57   : 	m_GameServerInfoMap.RemoveAll();

  00055	8b 4d fc	 mov	 ecx, DWORD PTR _this$[ebp]
  00058	83 c1 04	 add	 ecx, 4
  0005b	e8 00 00 00 00	 call	 ?RemoveAll@?$CMap@GGPAUtagGameServerInfo@@PAU1@@@QAEXXZ ; CMap<unsigned short,unsigned short,tagGameServerInfo *,tagGameServerInfo *>::RemoveAll

; 58   : 
; 59   : 	return true;

  00060	b0 01		 mov	 al, 1

; 60   : }

  00062	5f		 pop	 edi
  00063	5e		 pop	 esi
  00064	5b		 pop	 ebx
  00065	8b e5		 mov	 esp, ebp
  00067	5d		 pop	 ebp
  00068	c3		 ret	 0
?ResetServerInfo@CServerInfoBuffer@@QAE_NXZ ENDP	; CServerInfoBuffer::ResetServerInfo
_TEXT	ENDS
; Function compile flags: /Odtp /ZI
; File g:\网狐\happygamewh\服务端\系统模块\服务器组件\模块管理\serverinfomanager.cpp
;	COMDAT ??1CServerInfoBuffer@@UAE@XZ
_TEXT	SEGMENT
$T2 = -108						; size = 4
$T3 = -104						; size = 4
_i$4 = -36						; size = 4
_Position$ = -32					; size = 4
_pGameServerInfo$ = -28					; size = 4
_wServerID$ = -24					; size = 2
_this$ = -20						; size = 4
__$EHRec$ = -16						; size = 16
??1CServerInfoBuffer@@UAE@XZ PROC			; CServerInfoBuffer::~CServerInfoBuffer, COMDAT
; _this$ = ecx

; 14   : {

  00000	55		 push	 ebp
  00001	8b ec		 mov	 ebp, esp
  00003	6a ff		 push	 -1
  00005	68 00 00 00 00	 push	 __ehhandler$??1CServerInfoBuffer@@UAE@XZ
  0000a	64 a1 00 00 00
	00		 mov	 eax, DWORD PTR fs:0
  00010	50		 push	 eax
  00011	51		 push	 ecx
  00012	83 ec 5c	 sub	 esp, 92			; 0000005cH
  00015	53		 push	 ebx
  00016	56		 push	 esi
  00017	57		 push	 edi
  00018	a1 00 00 00 00	 mov	 eax, DWORD PTR ___security_cookie
  0001d	33 c5		 xor	 eax, ebp
  0001f	50		 push	 eax
  00020	8d 45 f4	 lea	 eax, DWORD PTR __$EHRec$[ebp+4]
  00023	64 a3 00 00 00
	00		 mov	 DWORD PTR fs:0, eax
  00029	89 65 f0	 mov	 DWORD PTR __$EHRec$[ebp], esp
  0002c	89 4d ec	 mov	 DWORD PTR _this$[ebp], ecx
  0002f	8b 45 ec	 mov	 eax, DWORD PTR _this$[ebp]
  00032	c7 00 00 00 00
	00		 mov	 DWORD PTR [eax], OFFSET ??_7CServerInfoBuffer@@6B@
  00038	c7 45 fc 01 00
	00 00		 mov	 DWORD PTR __$EHRec$[ebp+12], 1

; 15   : 	//变量定义
; 16   : 	WORD wServerID=0;

  0003f	33 c0		 xor	 eax, eax
  00041	66 89 45 e8	 mov	 WORD PTR _wServerID$[ebp], ax

; 17   : 	tagGameServerInfo * pGameServerInfo=NULL;

  00045	c7 45 e4 00 00
	00 00		 mov	 DWORD PTR _pGameServerInfo$[ebp], 0

; 18   : 	POSITION Position=m_GameServerInfoMap.GetStartPosition();

  0004c	8b 4d ec	 mov	 ecx, DWORD PTR _this$[ebp]
  0004f	83 c1 04	 add	 ecx, 4
  00052	e8 00 00 00 00	 call	 ?GetStartPosition@?$CMap@GGPAUtagGameServerInfo@@PAU1@@@QBEPAU__POSITION@@XZ ; CMap<unsigned short,unsigned short,tagGameServerInfo *,tagGameServerInfo *>::GetStartPosition
  00057	89 45 e0	 mov	 DWORD PTR _Position$[ebp], eax
$LN2@CServerInf:

; 19   : 
; 20   : 	//删除索引
; 21   : 	while (Position!=NULL)

  0005a	83 7d e0 00	 cmp	 DWORD PTR _Position$[ebp], 0
  0005e	74 70		 je	 SHORT $LN3@CServerInf

; 22   : 	{
; 23   : 		m_GameServerInfoMap.GetNextAssoc(Position,wServerID,pGameServerInfo);

  00060	8d 45 e4	 lea	 eax, DWORD PTR _pGameServerInfo$[ebp]
  00063	50		 push	 eax
  00064	8d 4d e8	 lea	 ecx, DWORD PTR _wServerID$[ebp]
  00067	51		 push	 ecx
  00068	8d 55 e0	 lea	 edx, DWORD PTR _Position$[ebp]
  0006b	52		 push	 edx
  0006c	8b 4d ec	 mov	 ecx, DWORD PTR _this$[ebp]
  0006f	83 c1 04	 add	 ecx, 4
  00072	e8 00 00 00 00	 call	 ?GetNextAssoc@?$CMap@GGPAUtagGameServerInfo@@PAU1@@@QBEXAAPAU__POSITION@@AAGAAPAUtagGameServerInfo@@@Z ; CMap<unsigned short,unsigned short,tagGameServerInfo *,tagGameServerInfo *>::GetNextAssoc

; 24   : 		SafeDelete(pGameServerInfo);

  00077	c6 45 fc 02	 mov	 BYTE PTR __$EHRec$[ebp+12], 2
  0007b	8b 45 e4	 mov	 eax, DWORD PTR _pGameServerInfo$[ebp]
  0007e	89 45 98	 mov	 DWORD PTR $T3[ebp], eax
  00081	68 70 09 00 00	 push	 2416			; 00000970H
  00086	8b 4d 98	 mov	 ecx, DWORD PTR $T3[ebp]
  00089	51		 push	 ecx
  0008a	e8 00 00 00 00	 call	 ??3@YAXPAXI@Z		; operator delete
  0008f	83 c4 08	 add	 esp, 8
  00092	eb 23		 jmp	 SHORT $LN12@CServerInf
__catch$??1CServerInfoBuffer@@UAE@XZ$0:
  00094	33 c0		 xor	 eax, eax
  00096	75 19		 jne	 SHORT $LN10@CServerInf
  00098	8b 0d 00 00 00
	00		 mov	 ecx, DWORD PTR ?__LINE__Var@?0???1CServerInfoBuffer@@UAE@XZ@4JA
  0009e	83 c1 0a	 add	 ecx, 10			; 0000000aH
  000a1	51		 push	 ecx
  000a2	68 00 00 00 00	 push	 OFFSET ??_C@_0EO@GNEBGAKM@g?3?2?M?x?$LK?$PM?2happygamewh?2?$LH?$PO?N?q?$LG?K?2?O?$LF?M?$LD@
  000a7	e8 00 00 00 00	 call	 ?AfxAssertFailedLine@@YGHPBDH@Z ; AfxAssertFailedLine
  000ac	85 c0		 test	 eax, eax
  000ae	74 01		 je	 SHORT $LN10@CServerInf
  000b0	cc		 int	 3
$LN10@CServerInf:
  000b1	b8 00 00 00 00	 mov	 eax, $LN19@CServerInf
  000b6	c3		 ret	 0
$LN12@CServerInf:
  000b7	c7 45 fc 01 00
	00 00		 mov	 DWORD PTR __$EHRec$[ebp+12], 1
  000be	eb 07		 jmp	 SHORT __tryend$??1CServerInfoBuffer@@UAE@XZ$1
$LN19@CServerInf:
  000c0	c7 45 fc 01 00
	00 00		 mov	 DWORD PTR __$EHRec$[ebp+12], 1
__tryend$??1CServerInfoBuffer@@UAE@XZ$1:
  000c7	c7 45 e4 00 00
	00 00		 mov	 DWORD PTR _pGameServerInfo$[ebp], 0

; 25   : 	}

  000ce	eb 8a		 jmp	 SHORT $LN2@CServerInf
$LN3@CServerInf:

; 26   : 
; 27   : 	//删除数组
; 28   : 	for (INT_PTR i=0;i<m_GameServerInfoArray.GetCount();i++)

  000d0	c7 45 dc 00 00
	00 00		 mov	 DWORD PTR _i$4[ebp], 0
  000d7	eb 09		 jmp	 SHORT $LN6@CServerInf
$LN4@CServerInf:
  000d9	8b 45 dc	 mov	 eax, DWORD PTR _i$4[ebp]
  000dc	83 c0 01	 add	 eax, 1
  000df	89 45 dc	 mov	 DWORD PTR _i$4[ebp], eax
$LN6@CServerInf:
  000e2	8b 4d ec	 mov	 ecx, DWORD PTR _this$[ebp]
  000e5	83 c1 20	 add	 ecx, 32			; 00000020H
  000e8	e8 00 00 00 00	 call	 ?GetCount@?$CWHArray@PAUtagGameServerInfo@@ABQAU1@@@QBEHXZ ; CWHArray<tagGameServerInfo *,tagGameServerInfo * const &>::GetCount
  000ed	39 45 dc	 cmp	 DWORD PTR _i$4[ebp], eax
  000f0	7d 70		 jge	 SHORT $LN5@CServerInf

; 29   : 	{
; 30   : 		pGameServerInfo=m_GameServerInfoArray[i];

  000f2	8b 45 dc	 mov	 eax, DWORD PTR _i$4[ebp]
  000f5	50		 push	 eax
  000f6	8b 4d ec	 mov	 ecx, DWORD PTR _this$[ebp]
  000f9	83 c1 20	 add	 ecx, 32			; 00000020H
  000fc	e8 00 00 00 00	 call	 ??A?$CWHArray@PAUtagGameServerInfo@@ABQAU1@@@QAEAAPAUtagGameServerInfo@@H@Z ; CWHArray<tagGameServerInfo *,tagGameServerInfo * const &>::operator[]
  00101	8b 08		 mov	 ecx, DWORD PTR [eax]
  00103	89 4d e4	 mov	 DWORD PTR _pGameServerInfo$[ebp], ecx

; 31   : 		SafeDelete(pGameServerInfo);

  00106	c6 45 fc 04	 mov	 BYTE PTR __$EHRec$[ebp+12], 4
  0010a	8b 45 e4	 mov	 eax, DWORD PTR _pGameServerInfo$[ebp]
  0010d	89 45 94	 mov	 DWORD PTR $T2[ebp], eax
  00110	68 70 09 00 00	 push	 2416			; 00000970H
  00115	8b 4d 94	 mov	 ecx, DWORD PTR $T2[ebp]
  00118	51		 push	 ecx
  00119	e8 00 00 00 00	 call	 ??3@YAXPAXI@Z		; operator delete
  0011e	83 c4 08	 add	 esp, 8
  00121	eb 23		 jmp	 SHORT $LN14@CServerInf
__catch$??1CServerInfoBuffer@@UAE@XZ$2:
  00123	33 c0		 xor	 eax, eax
  00125	75 19		 jne	 SHORT $LN11@CServerInf
  00127	8b 0d 00 00 00
	00		 mov	 ecx, DWORD PTR ?__LINE__Var@?0???1CServerInfoBuffer@@UAE@XZ@4JA
  0012d	83 c1 11	 add	 ecx, 17			; 00000011H
  00130	51		 push	 ecx
  00131	68 00 00 00 00	 push	 OFFSET ??_C@_0EO@GNEBGAKM@g?3?2?M?x?$LK?$PM?2happygamewh?2?$LH?$PO?N?q?$LG?K?2?O?$LF?M?$LD@
  00136	e8 00 00 00 00	 call	 ?AfxAssertFailedLine@@YGHPBDH@Z ; AfxAssertFailedLine
  0013b	85 c0		 test	 eax, eax
  0013d	74 01		 je	 SHORT $LN11@CServerInf
  0013f	cc		 int	 3
$LN11@CServerInf:
  00140	b8 00 00 00 00	 mov	 eax, $LN21@CServerInf
  00145	c3		 ret	 0
$LN14@CServerInf:
  00146	c7 45 fc 01 00
	00 00		 mov	 DWORD PTR __$EHRec$[ebp+12], 1
  0014d	eb 07		 jmp	 SHORT __tryend$??1CServerInfoBuffer@@UAE@XZ$3
$LN21@CServerInf:
  0014f	c7 45 fc 01 00
	00 00		 mov	 DWORD PTR __$EHRec$[ebp+12], 1
__tryend$??1CServerInfoBuffer@@UAE@XZ$3:
  00156	c7 45 e4 00 00
	00 00		 mov	 DWORD PTR _pGameServerInfo$[ebp], 0

; 32   : 	}

  0015d	e9 77 ff ff ff	 jmp	 $LN4@CServerInf
$LN5@CServerInf:

; 33   : 
; 34   : 	//删除引用
; 35   : 	m_GameServerInfoMap.RemoveAll();

  00162	8b 4d ec	 mov	 ecx, DWORD PTR _this$[ebp]
  00165	83 c1 04	 add	 ecx, 4
  00168	e8 00 00 00 00	 call	 ?RemoveAll@?$CMap@GGPAUtagGameServerInfo@@PAU1@@@QAEXXZ ; CMap<unsigned short,unsigned short,tagGameServerInfo *,tagGameServerInfo *>::RemoveAll

; 36   : 	m_GameServerInfoArray.RemoveAll();

  0016d	8b 4d ec	 mov	 ecx, DWORD PTR _this$[ebp]
  00170	83 c1 20	 add	 ecx, 32			; 00000020H
  00173	e8 00 00 00 00	 call	 ?RemoveAll@?$CWHArray@PAUtagGameServerInfo@@ABQAU1@@@QAEXXZ ; CWHArray<tagGameServerInfo *,tagGameServerInfo * const &>::RemoveAll

; 37   : 
; 38   : 	return;
; 39   : }

  00178	c6 45 fc 00	 mov	 BYTE PTR __$EHRec$[ebp+12], 0
  0017c	8b 4d ec	 mov	 ecx, DWORD PTR _this$[ebp]
  0017f	83 c1 20	 add	 ecx, 32			; 00000020H
  00182	e8 00 00 00 00	 call	 ??1?$CWHArray@PAUtagGameServerInfo@@ABQAU1@@@UAE@XZ ; CWHArray<tagGameServerInfo *,tagGameServerInfo * const &>::~CWHArray<tagGameServerInfo *,tagGameServerInfo * const &>
  00187	c7 45 fc ff ff
	ff ff		 mov	 DWORD PTR __$EHRec$[ebp+12], -1
  0018e	8b 4d ec	 mov	 ecx, DWORD PTR _this$[ebp]
  00191	83 c1 04	 add	 ecx, 4
  00194	e8 00 00 00 00	 call	 ??1?$CMap@GGPAUtagGameServerInfo@@PAU1@@@UAE@XZ ; CMap<unsigned short,unsigned short,tagGameServerInfo *,tagGameServerInfo *>::~CMap<unsigned short,unsigned short,tagGameServerInfo *,tagGameServerInfo *>
  00199	8b 4d f4	 mov	 ecx, DWORD PTR __$EHRec$[ebp+4]
  0019c	64 89 0d 00 00
	00 00		 mov	 DWORD PTR fs:0, ecx
  001a3	59		 pop	 ecx
  001a4	5f		 pop	 edi
  001a5	5e		 pop	 esi
  001a6	5b		 pop	 ebx
  001a7	8b e5		 mov	 esp, ebp
  001a9	5d		 pop	 ebp
  001aa	c3		 ret	 0
_TEXT	ENDS
;	COMDAT text$x
text$x	SEGMENT
__unwindfunclet$??1CServerInfoBuffer@@UAE@XZ$4:
  00000	8b 4d ec	 mov	 ecx, DWORD PTR _this$[ebp]
  00003	83 c1 04	 add	 ecx, 4
  00006	e9 00 00 00 00	 jmp	 ??1?$CMap@GGPAUtagGameServerInfo@@PAU1@@@UAE@XZ ; CMap<unsigned short,unsigned short,tagGameServerInfo *,tagGameServerInfo *>::~CMap<unsigned short,unsigned short,tagGameServerInfo *,tagGameServerInfo *>
__unwindfunclet$??1CServerInfoBuffer@@UAE@XZ$5:
  0000b	8b 4d ec	 mov	 ecx, DWORD PTR _this$[ebp]
  0000e	83 c1 20	 add	 ecx, 32			; 00000020H
  00011	e9 00 00 00 00	 jmp	 ??1?$CWHArray@PAUtagGameServerInfo@@ABQAU1@@@UAE@XZ ; CWHArray<tagGameServerInfo *,tagGameServerInfo * const &>::~CWHArray<tagGameServerInfo *,tagGameServerInfo * const &>
__ehhandler$??1CServerInfoBuffer@@UAE@XZ:
  00016	8b 54 24 08	 mov	 edx, DWORD PTR [esp+8]
  0001a	8d 42 0c	 lea	 eax, DWORD PTR [edx+12]
  0001d	8b 4a 90	 mov	 ecx, DWORD PTR [edx-112]
  00020	33 c8		 xor	 ecx, eax
  00022	e8 00 00 00 00	 call	 @__security_check_cookie@4
  00027	b8 00 00 00 00	 mov	 eax, OFFSET __ehfuncinfo$??1CServerInfoBuffer@@UAE@XZ
  0002c	e9 00 00 00 00	 jmp	 ___CxxFrameHandler3
text$x	ENDS
??1CServerInfoBuffer@@UAE@XZ ENDP			; CServerInfoBuffer::~CServerInfoBuffer
; Function compile flags: /Odtp /ZI
; File g:\网狐\happygamewh\服务端\系统模块\服务器组件\模块管理\serverinfomanager.cpp
;	COMDAT ??0CServerInfoBuffer@@QAE@XZ
_TEXT	SEGMENT
_this$ = -16						; size = 4
__$EHRec$ = -12						; size = 12
??0CServerInfoBuffer@@QAE@XZ PROC			; CServerInfoBuffer::CServerInfoBuffer, COMDAT
; _this$ = ecx

; 9    : {

  00000	55		 push	 ebp
  00001	8b ec		 mov	 ebp, esp
  00003	6a ff		 push	 -1
  00005	68 00 00 00 00	 push	 __ehhandler$??0CServerInfoBuffer@@QAE@XZ
  0000a	64 a1 00 00 00
	00		 mov	 eax, DWORD PTR fs:0
  00010	50		 push	 eax
  00011	83 ec 44	 sub	 esp, 68			; 00000044H
  00014	53		 push	 ebx
  00015	56		 push	 esi
  00016	57		 push	 edi
  00017	a1 00 00 00 00	 mov	 eax, DWORD PTR ___security_cookie
  0001c	33 c5		 xor	 eax, ebp
  0001e	50		 push	 eax
  0001f	8d 45 f4	 lea	 eax, DWORD PTR __$EHRec$[ebp]
  00022	64 a3 00 00 00
	00		 mov	 DWORD PTR fs:0, eax
  00028	89 4d f0	 mov	 DWORD PTR _this$[ebp], ecx
  0002b	8b 45 f0	 mov	 eax, DWORD PTR _this$[ebp]
  0002e	c7 00 00 00 00
	00		 mov	 DWORD PTR [eax], OFFSET ??_7CServerInfoBuffer@@6B@
  00034	6a 0a		 push	 10			; 0000000aH
  00036	8b 4d f0	 mov	 ecx, DWORD PTR _this$[ebp]
  00039	83 c1 04	 add	 ecx, 4
  0003c	e8 00 00 00 00	 call	 ??0?$CMap@GGPAUtagGameServerInfo@@PAU1@@@QAE@H@Z ; CMap<unsigned short,unsigned short,tagGameServerInfo *,tagGameServerInfo *>::CMap<unsigned short,unsigned short,tagGameServerInfo *,tagGameServerInfo *>
  00041	c7 45 fc 00 00
	00 00		 mov	 DWORD PTR __$EHRec$[ebp+8], 0
  00048	8b 4d f0	 mov	 ecx, DWORD PTR _this$[ebp]
  0004b	83 c1 20	 add	 ecx, 32			; 00000020H
  0004e	e8 00 00 00 00	 call	 ??0?$CWHArray@PAUtagGameServerInfo@@ABQAU1@@@QAE@XZ ; CWHArray<tagGameServerInfo *,tagGameServerInfo * const &>::CWHArray<tagGameServerInfo *,tagGameServerInfo * const &>

; 10   : }

  00053	c7 45 fc ff ff
	ff ff		 mov	 DWORD PTR __$EHRec$[ebp+8], -1
  0005a	8b 45 f0	 mov	 eax, DWORD PTR _this$[ebp]
  0005d	8b 4d f4	 mov	 ecx, DWORD PTR __$EHRec$[ebp]
  00060	64 89 0d 00 00
	00 00		 mov	 DWORD PTR fs:0, ecx
  00067	59		 pop	 ecx
  00068	5f		 pop	 edi
  00069	5e		 pop	 esi
  0006a	5b		 pop	 ebx
  0006b	8b e5		 mov	 esp, ebp
  0006d	5d		 pop	 ebp
  0006e	c3		 ret	 0
_TEXT	ENDS
;	COMDAT text$x
text$x	SEGMENT
__unwindfunclet$??0CServerInfoBuffer@@QAE@XZ$0:
  00000	8b 4d f0	 mov	 ecx, DWORD PTR _this$[ebp]
  00003	83 c1 04	 add	 ecx, 4
  00006	e9 00 00 00 00	 jmp	 ??1?$CMap@GGPAUtagGameServerInfo@@PAU1@@@UAE@XZ ; CMap<unsigned short,unsigned short,tagGameServerInfo *,tagGameServerInfo *>::~CMap<unsigned short,unsigned short,tagGameServerInfo *,tagGameServerInfo *>
__ehhandler$??0CServerInfoBuffer@@QAE@XZ:
  0000b	8b 54 24 08	 mov	 edx, DWORD PTR [esp+8]
  0000f	8d 42 0c	 lea	 eax, DWORD PTR [edx+12]
  00012	8b 4a ac	 mov	 ecx, DWORD PTR [edx-84]
  00015	33 c8		 xor	 ecx, eax
  00017	e8 00 00 00 00	 call	 @__security_check_cookie@4
  0001c	b8 00 00 00 00	 mov	 eax, OFFSET __ehfuncinfo$??0CServerInfoBuffer@@QAE@XZ
  00021	e9 00 00 00 00	 jmp	 ___CxxFrameHandler3
text$x	ENDS
??0CServerInfoBuffer@@QAE@XZ ENDP			; CServerInfoBuffer::CServerInfoBuffer
; Function compile flags: /Odtp /ZI
;	COMDAT ??_G?$CWHArray@PAUtagGameServerInfo@@ABQAU1@@@UAEPAXI@Z
_TEXT	SEGMENT
_this$ = -4						; size = 4
___flags$ = 8						; size = 4
??_G?$CWHArray@PAUtagGameServerInfo@@ABQAU1@@@UAEPAXI@Z PROC ; CWHArray<tagGameServerInfo *,tagGameServerInfo * const &>::`scalar deleting destructor', COMDAT
; _this$ = ecx
  00000	55		 push	 ebp
  00001	8b ec		 mov	 ebp, esp
  00003	83 ec 44	 sub	 esp, 68			; 00000044H
  00006	53		 push	 ebx
  00007	56		 push	 esi
  00008	57		 push	 edi
  00009	89 4d fc	 mov	 DWORD PTR _this$[ebp], ecx
  0000c	8b 4d fc	 mov	 ecx, DWORD PTR _this$[ebp]
  0000f	e8 00 00 00 00	 call	 ??1?$CWHArray@PAUtagGameServerInfo@@ABQAU1@@@UAE@XZ ; CWHArray<tagGameServerInfo *,tagGameServerInfo * const &>::~CWHArray<tagGameServerInfo *,tagGameServerInfo * const &>
  00014	8b 45 08	 mov	 eax, DWORD PTR ___flags$[ebp]
  00017	83 e0 01	 and	 eax, 1
  0001a	74 0e		 je	 SHORT $LN2@scalar
  0001c	6a 14		 push	 20			; 00000014H
  0001e	8b 45 fc	 mov	 eax, DWORD PTR _this$[ebp]
  00021	50		 push	 eax
  00022	e8 00 00 00 00	 call	 ??3@YAXPAXI@Z		; operator delete
  00027	83 c4 08	 add	 esp, 8
$LN2@scalar:
  0002a	8b 45 fc	 mov	 eax, DWORD PTR _this$[ebp]
  0002d	5f		 pop	 edi
  0002e	5e		 pop	 esi
  0002f	5b		 pop	 ebx
  00030	8b e5		 mov	 esp, ebp
  00032	5d		 pop	 ebp
  00033	c2 04 00	 ret	 4
??_G?$CWHArray@PAUtagGameServerInfo@@ABQAU1@@@UAEPAXI@Z ENDP ; CWHArray<tagGameServerInfo *,tagGameServerInfo * const &>::`scalar deleting destructor'
_TEXT	ENDS
; Function compile flags: /Odtp /ZI
; File g:\网狐\happygamewh\服务端\系统模块\全局定义\array.h
;	COMDAT ?AllocMemory@?$CWHArray@PAUtagGameServerInfo@@ABQAU1@@@QAEXH@Z
_TEXT	SEGMENT
tv78 = -92						; size = 4
tv79 = -88						; size = 4
$T1 = -84						; size = 4
$T2 = -80						; size = 4
_pNewData$3 = -12					; size = 4
_nGrowCount$4 = -8					; size = 4
_this$ = -4						; size = 4
_nNewCount$ = 8						; size = 4
?AllocMemory@?$CWHArray@PAUtagGameServerInfo@@ABQAU1@@@QAEXH@Z PROC ; CWHArray<tagGameServerInfo *,tagGameServerInfo * const &>::AllocMemory, COMDAT
; _this$ = ecx

; 413  : {

  00000	55		 push	 ebp
  00001	8b ec		 mov	 ebp, esp
  00003	83 ec 5c	 sub	 esp, 92			; 0000005cH
  00006	53		 push	 ebx
  00007	56		 push	 esi
  00008	57		 push	 edi
  00009	89 4d fc	 mov	 DWORD PTR _this$[ebp], ecx

; 414  : 	//效验参数
; 415  : 	ASSERT(nNewCount>=0);

  0000c	83 7d 08 00	 cmp	 DWORD PTR _nNewCount$[ebp], 0
  00010	7d 14		 jge	 SHORT $LN5@AllocMemor
  00012	68 9f 01 00 00	 push	 415			; 0000019fH
  00017	68 00 00 00 00	 push	 OFFSET ??_C@_0DF@LDFGAABH@g?3?2?M?x?$LK?$PM?2happygamewh?2?$LH?$PO?N?q?$LG?K?2?O?$LF?M?$LD@
  0001c	e8 00 00 00 00	 call	 ?AfxAssertFailedLine@@YGHPBDH@Z ; AfxAssertFailedLine
  00021	85 c0		 test	 eax, eax
  00023	74 01		 je	 SHORT $LN5@AllocMemor
  00025	cc		 int	 3
$LN5@AllocMemor:

; 416  : 
; 417  : 	if (nNewCount>m_nMaxCount)

  00026	8b 45 fc	 mov	 eax, DWORD PTR _this$[ebp]
  00029	8b 4d 08	 mov	 ecx, DWORD PTR _nNewCount$[ebp]
  0002c	3b 48 08	 cmp	 ecx, DWORD PTR [eax+8]
  0002f	0f 8e dd 00 00
	00		 jle	 $LN1@AllocMemor

; 418  : 	{
; 419  : 		//计算数目
; 420  : 		INT_PTR nGrowCount=m_nGrowCount;

  00035	8b 45 fc	 mov	 eax, DWORD PTR _this$[ebp]
  00038	8b 48 0c	 mov	 ecx, DWORD PTR [eax+12]
  0003b	89 4d f8	 mov	 DWORD PTR _nGrowCount$4[ebp], ecx

; 421  : 		if (nGrowCount==0)

  0003e	83 7d f8 00	 cmp	 DWORD PTR _nGrowCount$4[ebp], 0
  00042	75 45		 jne	 SHORT $LN3@AllocMemor

; 422  : 		{
; 423  : 			nGrowCount=m_nElementCount/8;

  00044	8b 45 fc	 mov	 eax, DWORD PTR _this$[ebp]
  00047	8b 40 10	 mov	 eax, DWORD PTR [eax+16]
  0004a	99		 cdq
  0004b	83 e2 07	 and	 edx, 7
  0004e	03 c2		 add	 eax, edx
  00050	c1 f8 03	 sar	 eax, 3
  00053	89 45 f8	 mov	 DWORD PTR _nGrowCount$4[ebp], eax

; 424  : 			nGrowCount=(nGrowCount<4)?4:((nGrowCount>1024)?1024:nGrowCount);

  00056	83 7d f8 04	 cmp	 DWORD PTR _nGrowCount$4[ebp], 4
  0005a	7d 09		 jge	 SHORT $LN8@AllocMemor
  0005c	c7 45 a8 04 00
	00 00		 mov	 DWORD PTR tv79[ebp], 4
  00063	eb 1e		 jmp	 SHORT $LN9@AllocMemor
$LN8@AllocMemor:
  00065	81 7d f8 00 04
	00 00		 cmp	 DWORD PTR _nGrowCount$4[ebp], 1024 ; 00000400H
  0006c	7e 09		 jle	 SHORT $LN6@AllocMemor
  0006e	c7 45 a4 00 04
	00 00		 mov	 DWORD PTR tv78[ebp], 1024 ; 00000400H
  00075	eb 06		 jmp	 SHORT $LN7@AllocMemor
$LN6@AllocMemor:
  00077	8b 45 f8	 mov	 eax, DWORD PTR _nGrowCount$4[ebp]
  0007a	89 45 a4	 mov	 DWORD PTR tv78[ebp], eax
$LN7@AllocMemor:
  0007d	8b 4d a4	 mov	 ecx, DWORD PTR tv78[ebp]
  00080	89 4d a8	 mov	 DWORD PTR tv79[ebp], ecx
$LN9@AllocMemor:
  00083	8b 55 a8	 mov	 edx, DWORD PTR tv79[ebp]
  00086	89 55 f8	 mov	 DWORD PTR _nGrowCount$4[ebp], edx
$LN3@AllocMemor:

; 425  : 		}
; 426  : 		nNewCount+=nGrowCount;

  00089	8b 45 08	 mov	 eax, DWORD PTR _nNewCount$[ebp]
  0008c	03 45 f8	 add	 eax, DWORD PTR _nGrowCount$4[ebp]
  0008f	89 45 08	 mov	 DWORD PTR _nNewCount$[ebp], eax

; 427  : 
; 428  : 		//申请内存
; 429  : 		TYPE * pNewData=(TYPE *) new BYTE[nNewCount*sizeof(TYPE)];

  00092	8b 45 08	 mov	 eax, DWORD PTR _nNewCount$[ebp]
  00095	c1 e0 02	 shl	 eax, 2
  00098	50		 push	 eax
  00099	e8 00 00 00 00	 call	 ??_U@YAPAXI@Z		; operator new[]
  0009e	83 c4 04	 add	 esp, 4
  000a1	89 45 b0	 mov	 DWORD PTR $T2[ebp], eax
  000a4	8b 4d b0	 mov	 ecx, DWORD PTR $T2[ebp]
  000a7	89 4d f4	 mov	 DWORD PTR _pNewData$3[ebp], ecx

; 430  : 		memcpy(pNewData,m_pData,m_nElementCount*sizeof(TYPE));

  000aa	8b 45 fc	 mov	 eax, DWORD PTR _this$[ebp]
  000ad	8b 48 10	 mov	 ecx, DWORD PTR [eax+16]
  000b0	c1 e1 02	 shl	 ecx, 2
  000b3	51		 push	 ecx
  000b4	8b 55 fc	 mov	 edx, DWORD PTR _this$[ebp]
  000b7	8b 42 04	 mov	 eax, DWORD PTR [edx+4]
  000ba	50		 push	 eax
  000bb	8b 4d f4	 mov	 ecx, DWORD PTR _pNewData$3[ebp]
  000be	51		 push	 ecx
  000bf	e8 00 00 00 00	 call	 _memcpy
  000c4	83 c4 0c	 add	 esp, 12			; 0000000cH

; 431  : 		memset(pNewData+m_nElementCount,0,(nNewCount-m_nElementCount)*sizeof(TYPE));

  000c7	8b 45 fc	 mov	 eax, DWORD PTR _this$[ebp]
  000ca	8b 4d 08	 mov	 ecx, DWORD PTR _nNewCount$[ebp]
  000cd	2b 48 10	 sub	 ecx, DWORD PTR [eax+16]
  000d0	c1 e1 02	 shl	 ecx, 2
  000d3	51		 push	 ecx
  000d4	6a 00		 push	 0
  000d6	8b 55 fc	 mov	 edx, DWORD PTR _this$[ebp]
  000d9	8b 42 10	 mov	 eax, DWORD PTR [edx+16]
  000dc	8b 4d f4	 mov	 ecx, DWORD PTR _pNewData$3[ebp]
  000df	8d 14 81	 lea	 edx, DWORD PTR [ecx+eax*4]
  000e2	52		 push	 edx
  000e3	e8 00 00 00 00	 call	 _memset
  000e8	83 c4 0c	 add	 esp, 12			; 0000000cH

; 432  : 		delete [] (BYTE *)m_pData;

  000eb	8b 45 fc	 mov	 eax, DWORD PTR _this$[ebp]
  000ee	8b 48 04	 mov	 ecx, DWORD PTR [eax+4]
  000f1	89 4d ac	 mov	 DWORD PTR $T1[ebp], ecx
  000f4	8b 55 ac	 mov	 edx, DWORD PTR $T1[ebp]
  000f7	52		 push	 edx
  000f8	e8 00 00 00 00	 call	 ??_V@YAXPAX@Z		; operator delete[]
  000fd	83 c4 04	 add	 esp, 4

; 433  : 
; 434  : 		//设置变量
; 435  : 		m_pData=pNewData;

  00100	8b 45 fc	 mov	 eax, DWORD PTR _this$[ebp]
  00103	8b 4d f4	 mov	 ecx, DWORD PTR _pNewData$3[ebp]
  00106	89 48 04	 mov	 DWORD PTR [eax+4], ecx

; 436  : 		m_nMaxCount=nNewCount;

  00109	8b 45 fc	 mov	 eax, DWORD PTR _this$[ebp]
  0010c	8b 4d 08	 mov	 ecx, DWORD PTR _nNewCount$[ebp]
  0010f	89 48 08	 mov	 DWORD PTR [eax+8], ecx
$LN1@AllocMemor:

; 437  : 	}
; 438  : 
; 439  : 	return;
; 440  : }

  00112	5f		 pop	 edi
  00113	5e		 pop	 esi
  00114	5b		 pop	 ebx
  00115	8b e5		 mov	 esp, ebp
  00117	5d		 pop	 ebp
  00118	c2 04 00	 ret	 4
?AllocMemory@?$CWHArray@PAUtagGameServerInfo@@ABQAU1@@@QAEXH@Z ENDP ; CWHArray<tagGameServerInfo *,tagGameServerInfo * const &>::AllocMemory
_TEXT	ENDS
; Function compile flags: /Odtp /ZI
; File g:\网狐\happygamewh\服务端\系统模块\全局定义\array.h
;	COMDAT ??A?$CWHArray@PAUtagGameServerInfo@@ABQAU1@@@QAEAAPAUtagGameServerInfo@@H@Z
_TEXT	SEGMENT
_this$ = -4						; size = 4
_nIndex$ = 8						; size = 4
??A?$CWHArray@PAUtagGameServerInfo@@ABQAU1@@@QAEAAPAUtagGameServerInfo@@H@Z PROC ; CWHArray<tagGameServerInfo *,tagGameServerInfo * const &>::operator[], COMDAT
; _this$ = ecx

; 114  : { 

  00000	55		 push	 ebp
  00001	8b ec		 mov	 ebp, esp
  00003	83 ec 44	 sub	 esp, 68			; 00000044H
  00006	53		 push	 ebx
  00007	56		 push	 esi
  00008	57		 push	 edi
  00009	89 4d fc	 mov	 DWORD PTR _this$[ebp], ecx

; 115  : 	return ElementAt(nIndex);

  0000c	8b 45 08	 mov	 eax, DWORD PTR _nIndex$[ebp]
  0000f	50		 push	 eax
  00010	8b 4d fc	 mov	 ecx, DWORD PTR _this$[ebp]
  00013	e8 00 00 00 00	 call	 ?ElementAt@?$CWHArray@PAUtagGameServerInfo@@ABQAU1@@@QAEAAPAUtagGameServerInfo@@H@Z ; CWHArray<tagGameServerInfo *,tagGameServerInfo * const &>::ElementAt

; 116  : }

  00018	5f		 pop	 edi
  00019	5e		 pop	 esi
  0001a	5b		 pop	 ebx
  0001b	8b e5		 mov	 esp, ebp
  0001d	5d		 pop	 ebp
  0001e	c2 04 00	 ret	 4
??A?$CWHArray@PAUtagGameServerInfo@@ABQAU1@@@QAEAAPAUtagGameServerInfo@@H@Z ENDP ; CWHArray<tagGameServerInfo *,tagGameServerInfo * const &>::operator[]
_TEXT	ENDS
; Function compile flags: /Odtp /ZI
; File g:\网狐\happygamewh\服务端\系统模块\全局定义\array.h
;	COMDAT ?RemoveAll@?$CWHArray@PAUtagGameServerInfo@@ABQAU1@@@QAEXXZ
_TEXT	SEGMENT
_i$1 = -8						; size = 4
_this$ = -4						; size = 4
?RemoveAll@?$CWHArray@PAUtagGameServerInfo@@ABQAU1@@@QAEXXZ PROC ; CWHArray<tagGameServerInfo *,tagGameServerInfo * const &>::RemoveAll, COMDAT
; _this$ = ecx

; 379  : {

  00000	55		 push	 ebp
  00001	8b ec		 mov	 ebp, esp
  00003	83 ec 48	 sub	 esp, 72			; 00000048H
  00006	53		 push	 ebx
  00007	56		 push	 esi
  00008	57		 push	 edi
  00009	89 4d fc	 mov	 DWORD PTR _this$[ebp], ecx

; 380  : 	if (m_nElementCount>0)

  0000c	8b 45 fc	 mov	 eax, DWORD PTR _this$[ebp]
  0000f	83 78 10 00	 cmp	 DWORD PTR [eax+16], 0
  00013	7e 44		 jle	 SHORT $LN1@RemoveAll

; 381  : 	{
; 382  : 		for (INT_PTR i=0;i<m_nElementCount;i++) (m_pData+i)->~TYPE();

  00015	c7 45 f8 00 00
	00 00		 mov	 DWORD PTR _i$1[ebp], 0
  0001c	eb 09		 jmp	 SHORT $LN4@RemoveAll
$LN2@RemoveAll:
  0001e	8b 45 f8	 mov	 eax, DWORD PTR _i$1[ebp]
  00021	83 c0 01	 add	 eax, 1
  00024	89 45 f8	 mov	 DWORD PTR _i$1[ebp], eax
$LN4@RemoveAll:
  00027	8b 45 fc	 mov	 eax, DWORD PTR _this$[ebp]
  0002a	8b 4d f8	 mov	 ecx, DWORD PTR _i$1[ebp]
  0002d	3b 48 10	 cmp	 ecx, DWORD PTR [eax+16]
  00030	7d 02		 jge	 SHORT $LN3@RemoveAll
  00032	eb ea		 jmp	 SHORT $LN2@RemoveAll
$LN3@RemoveAll:

; 383  : 		memset(m_pData,0,m_nElementCount*sizeof(TYPE));

  00034	8b 45 fc	 mov	 eax, DWORD PTR _this$[ebp]
  00037	8b 48 10	 mov	 ecx, DWORD PTR [eax+16]
  0003a	c1 e1 02	 shl	 ecx, 2
  0003d	51		 push	 ecx
  0003e	6a 00		 push	 0
  00040	8b 55 fc	 mov	 edx, DWORD PTR _this$[ebp]
  00043	8b 42 04	 mov	 eax, DWORD PTR [edx+4]
  00046	50		 push	 eax
  00047	e8 00 00 00 00	 call	 _memset
  0004c	83 c4 0c	 add	 esp, 12			; 0000000cH

; 384  : 		m_nElementCount=0;

  0004f	8b 45 fc	 mov	 eax, DWORD PTR _this$[ebp]
  00052	c7 40 10 00 00
	00 00		 mov	 DWORD PTR [eax+16], 0
$LN1@RemoveAll:

; 385  : 	}
; 386  : 
; 387  : 	return;
; 388  : }

  00059	5f		 pop	 edi
  0005a	5e		 pop	 esi
  0005b	5b		 pop	 ebx
  0005c	8b e5		 mov	 esp, ebp
  0005e	5d		 pop	 ebp
  0005f	c3		 ret	 0
?RemoveAll@?$CWHArray@PAUtagGameServerInfo@@ABQAU1@@@QAEXXZ ENDP ; CWHArray<tagGameServerInfo *,tagGameServerInfo * const &>::RemoveAll
_TEXT	ENDS
; Function compile flags: /Odtp /ZI
; File g:\网狐\happygamewh\服务端\系统模块\全局定义\array.h
;	COMDAT ?RemoveAt@?$CWHArray@PAUtagGameServerInfo@@ABQAU1@@@QAEXHH@Z
_TEXT	SEGMENT
_i$1 = -12						; size = 4
_nMoveCount$ = -8					; size = 4
_this$ = -4						; size = 4
_nIndex$ = 8						; size = 4
_nCount$ = 12						; size = 4
?RemoveAt@?$CWHArray@PAUtagGameServerInfo@@ABQAU1@@@QAEXHH@Z PROC ; CWHArray<tagGameServerInfo *,tagGameServerInfo * const &>::RemoveAt, COMDAT
; _this$ = ecx

; 360  : {

  00000	55		 push	 ebp
  00001	8b ec		 mov	 ebp, esp
  00003	83 ec 4c	 sub	 esp, 76			; 0000004cH
  00006	53		 push	 ebx
  00007	56		 push	 esi
  00008	57		 push	 edi
  00009	89 4d fc	 mov	 DWORD PTR _this$[ebp], ecx

; 361  : 	//效验参数
; 362  : 	ASSERT(nIndex>=0);

  0000c	83 7d 08 00	 cmp	 DWORD PTR _nIndex$[ebp], 0
  00010	7d 14		 jge	 SHORT $LN9@RemoveAt
  00012	68 6a 01 00 00	 push	 362			; 0000016aH
  00017	68 00 00 00 00	 push	 OFFSET ??_C@_0DF@LDFGAABH@g?3?2?M?x?$LK?$PM?2happygamewh?2?$LH?$PO?N?q?$LG?K?2?O?$LF?M?$LD@
  0001c	e8 00 00 00 00	 call	 ?AfxAssertFailedLine@@YGHPBDH@Z ; AfxAssertFailedLine
  00021	85 c0		 test	 eax, eax
  00023	74 01		 je	 SHORT $LN9@RemoveAt
  00025	cc		 int	 3
$LN9@RemoveAt:

; 363  : 	ASSERT(nCount>=0);

  00026	83 7d 0c 00	 cmp	 DWORD PTR _nCount$[ebp], 0
  0002a	7d 14		 jge	 SHORT $LN10@RemoveAt
  0002c	68 6b 01 00 00	 push	 363			; 0000016bH
  00031	68 00 00 00 00	 push	 OFFSET ??_C@_0DF@LDFGAABH@g?3?2?M?x?$LK?$PM?2happygamewh?2?$LH?$PO?N?q?$LG?K?2?O?$LF?M?$LD@
  00036	e8 00 00 00 00	 call	 ?AfxAssertFailedLine@@YGHPBDH@Z ; AfxAssertFailedLine
  0003b	85 c0		 test	 eax, eax
  0003d	74 01		 je	 SHORT $LN10@RemoveAt
  0003f	cc		 int	 3
$LN10@RemoveAt:

; 364  : 	ASSERT(nIndex+nCount<=m_nElementCount);

  00040	8b 45 08	 mov	 eax, DWORD PTR _nIndex$[ebp]
  00043	03 45 0c	 add	 eax, DWORD PTR _nCount$[ebp]
  00046	8b 4d fc	 mov	 ecx, DWORD PTR _this$[ebp]
  00049	3b 41 10	 cmp	 eax, DWORD PTR [ecx+16]
  0004c	7e 14		 jle	 SHORT $LN11@RemoveAt
  0004e	68 6c 01 00 00	 push	 364			; 0000016cH
  00053	68 00 00 00 00	 push	 OFFSET ??_C@_0DF@LDFGAABH@g?3?2?M?x?$LK?$PM?2happygamewh?2?$LH?$PO?N?q?$LG?K?2?O?$LF?M?$LD@
  00058	e8 00 00 00 00	 call	 ?AfxAssertFailedLine@@YGHPBDH@Z ; AfxAssertFailedLine
  0005d	85 c0		 test	 eax, eax
  0005f	74 01		 je	 SHORT $LN11@RemoveAt
  00061	cc		 int	 3
$LN11@RemoveAt:

; 365  : 	if ((nIndex<0)||(nCount<0)||((nIndex+nCount>m_nElementCount))) AfxThrowInvalidArgException();

  00062	83 7d 08 00	 cmp	 DWORD PTR _nIndex$[ebp], 0
  00066	7c 14		 jl	 SHORT $LN6@RemoveAt
  00068	83 7d 0c 00	 cmp	 DWORD PTR _nCount$[ebp], 0
  0006c	7c 0e		 jl	 SHORT $LN6@RemoveAt
  0006e	8b 45 08	 mov	 eax, DWORD PTR _nIndex$[ebp]
  00071	03 45 0c	 add	 eax, DWORD PTR _nCount$[ebp]
  00074	8b 4d fc	 mov	 ecx, DWORD PTR _this$[ebp]
  00077	3b 41 10	 cmp	 eax, DWORD PTR [ecx+16]
  0007a	7e 05		 jle	 SHORT $LN5@RemoveAt
$LN6@RemoveAt:
  0007c	e8 00 00 00 00	 call	 ?AfxThrowInvalidArgException@@YGXXZ ; AfxThrowInvalidArgException
$LN5@RemoveAt:

; 366  : 
; 367  : 	//删除数据
; 368  : 	INT_PTR nMoveCount=m_nElementCount-(nIndex+nCount);

  00081	8b 45 08	 mov	 eax, DWORD PTR _nIndex$[ebp]
  00084	03 45 0c	 add	 eax, DWORD PTR _nCount$[ebp]
  00087	8b 4d fc	 mov	 ecx, DWORD PTR _this$[ebp]
  0008a	8b 51 10	 mov	 edx, DWORD PTR [ecx+16]
  0008d	2b d0		 sub	 edx, eax
  0008f	89 55 f8	 mov	 DWORD PTR _nMoveCount$[ebp], edx

; 369  : 	for (INT_PTR i=0;i<nCount;i++) (m_pData+nIndex+i)->~TYPE();

  00092	c7 45 f4 00 00
	00 00		 mov	 DWORD PTR _i$1[ebp], 0
  00099	eb 09		 jmp	 SHORT $LN4@RemoveAt
$LN2@RemoveAt:
  0009b	8b 45 f4	 mov	 eax, DWORD PTR _i$1[ebp]
  0009e	83 c0 01	 add	 eax, 1
  000a1	89 45 f4	 mov	 DWORD PTR _i$1[ebp], eax
$LN4@RemoveAt:
  000a4	8b 45 f4	 mov	 eax, DWORD PTR _i$1[ebp]
  000a7	3b 45 0c	 cmp	 eax, DWORD PTR _nCount$[ebp]
  000aa	7d 02		 jge	 SHORT $LN3@RemoveAt
  000ac	eb ed		 jmp	 SHORT $LN2@RemoveAt
$LN3@RemoveAt:

; 370  : 	if (nMoveCount>0) memmove(m_pData+nIndex,m_pData+nIndex+nCount,nMoveCount*sizeof(TYPE));

  000ae	83 7d f8 00	 cmp	 DWORD PTR _nMoveCount$[ebp], 0
  000b2	7e 2f		 jle	 SHORT $LN7@RemoveAt
  000b4	8b 45 f8	 mov	 eax, DWORD PTR _nMoveCount$[ebp]
  000b7	c1 e0 02	 shl	 eax, 2
  000ba	50		 push	 eax
  000bb	8b 4d fc	 mov	 ecx, DWORD PTR _this$[ebp]
  000be	8b 51 04	 mov	 edx, DWORD PTR [ecx+4]
  000c1	8b 45 08	 mov	 eax, DWORD PTR _nIndex$[ebp]
  000c4	8d 0c 82	 lea	 ecx, DWORD PTR [edx+eax*4]
  000c7	8b 55 0c	 mov	 edx, DWORD PTR _nCount$[ebp]
  000ca	8d 04 91	 lea	 eax, DWORD PTR [ecx+edx*4]
  000cd	50		 push	 eax
  000ce	8b 4d fc	 mov	 ecx, DWORD PTR _this$[ebp]
  000d1	8b 51 04	 mov	 edx, DWORD PTR [ecx+4]
  000d4	8b 45 08	 mov	 eax, DWORD PTR _nIndex$[ebp]
  000d7	8d 0c 82	 lea	 ecx, DWORD PTR [edx+eax*4]
  000da	51		 push	 ecx
  000db	e8 00 00 00 00	 call	 _memmove
  000e0	83 c4 0c	 add	 esp, 12			; 0000000cH
$LN7@RemoveAt:

; 371  : 	m_nElementCount-=nCount;

  000e3	8b 45 fc	 mov	 eax, DWORD PTR _this$[ebp]
  000e6	8b 48 10	 mov	 ecx, DWORD PTR [eax+16]
  000e9	2b 4d 0c	 sub	 ecx, DWORD PTR _nCount$[ebp]
  000ec	8b 55 fc	 mov	 edx, DWORD PTR _this$[ebp]
  000ef	89 4a 10	 mov	 DWORD PTR [edx+16], ecx
$LN8@RemoveAt:

; 372  : 
; 373  : 	return;
; 374  : }

  000f2	5f		 pop	 edi
  000f3	5e		 pop	 esi
  000f4	5b		 pop	 ebx
  000f5	8b e5		 mov	 esp, ebp
  000f7	5d		 pop	 ebp
  000f8	c2 08 00	 ret	 8
?RemoveAt@?$CWHArray@PAUtagGameServerInfo@@ABQAU1@@@QAEXHH@Z ENDP ; CWHArray<tagGameServerInfo *,tagGameServerInfo * const &>::RemoveAt
_TEXT	ENDS
; Function compile flags: /Odtp /ZI
; File g:\网狐\happygamewh\服务端\系统模块\全局定义\array.h
;	COMDAT ?SetAtGrow@?$CWHArray@PAUtagGameServerInfo@@ABQAU1@@@QAEXHABQAUtagGameServerInfo@@@Z
_TEXT	SEGMENT
_this$ = -4						; size = 4
_nIndex$ = 8						; size = 4
_newElement$ = 12					; size = 4
?SetAtGrow@?$CWHArray@PAUtagGameServerInfo@@ABQAU1@@@QAEXHABQAUtagGameServerInfo@@@Z PROC ; CWHArray<tagGameServerInfo *,tagGameServerInfo * const &>::SetAtGrow, COMDAT
; _this$ = ecx

; 287  : {

  00000	55		 push	 ebp
  00001	8b ec		 mov	 ebp, esp
  00003	83 ec 44	 sub	 esp, 68			; 00000044H
  00006	53		 push	 ebx
  00007	56		 push	 esi
  00008	57		 push	 edi
  00009	89 4d fc	 mov	 DWORD PTR _this$[ebp], ecx

; 288  : 	//效验参数
; 289  : 	ASSERT(nIndex>=0);

  0000c	83 7d 08 00	 cmp	 DWORD PTR _nIndex$[ebp], 0
  00010	7d 14		 jge	 SHORT $LN5@SetAtGrow
  00012	68 21 01 00 00	 push	 289			; 00000121H
  00017	68 00 00 00 00	 push	 OFFSET ??_C@_0DF@LDFGAABH@g?3?2?M?x?$LK?$PM?2happygamewh?2?$LH?$PO?N?q?$LG?K?2?O?$LF?M?$LD@
  0001c	e8 00 00 00 00	 call	 ?AfxAssertFailedLine@@YGHPBDH@Z ; AfxAssertFailedLine
  00021	85 c0		 test	 eax, eax
  00023	74 01		 je	 SHORT $LN5@SetAtGrow
  00025	cc		 int	 3
$LN5@SetAtGrow:

; 290  : 	if (nIndex<0) AfxThrowInvalidArgException();

  00026	83 7d 08 00	 cmp	 DWORD PTR _nIndex$[ebp], 0
  0002a	7d 05		 jge	 SHORT $LN2@SetAtGrow
  0002c	e8 00 00 00 00	 call	 ?AfxThrowInvalidArgException@@YGXXZ ; AfxThrowInvalidArgException
$LN2@SetAtGrow:

; 291  : 
; 292  : 	//设置元素
; 293  : 	if (nIndex>=m_nElementCount) SetSize(m_nElementCount+1);

  00031	8b 45 fc	 mov	 eax, DWORD PTR _this$[ebp]
  00034	8b 4d 08	 mov	 ecx, DWORD PTR _nIndex$[ebp]
  00037	3b 48 10	 cmp	 ecx, DWORD PTR [eax+16]
  0003a	7c 12		 jl	 SHORT $LN3@SetAtGrow
  0003c	8b 45 fc	 mov	 eax, DWORD PTR _this$[ebp]
  0003f	8b 48 10	 mov	 ecx, DWORD PTR [eax+16]
  00042	83 c1 01	 add	 ecx, 1
  00045	51		 push	 ecx
  00046	8b 4d fc	 mov	 ecx, DWORD PTR _this$[ebp]
  00049	e8 00 00 00 00	 call	 ?SetSize@?$CWHArray@PAUtagGameServerInfo@@ABQAU1@@@QAEXH@Z ; CWHArray<tagGameServerInfo *,tagGameServerInfo * const &>::SetSize
$LN3@SetAtGrow:

; 294  : 	m_pData[nIndex]=newElement;

  0004e	8b 45 fc	 mov	 eax, DWORD PTR _this$[ebp]
  00051	8b 48 04	 mov	 ecx, DWORD PTR [eax+4]
  00054	8b 55 08	 mov	 edx, DWORD PTR _nIndex$[ebp]
  00057	8b 45 0c	 mov	 eax, DWORD PTR _newElement$[ebp]
  0005a	8b 00		 mov	 eax, DWORD PTR [eax]
  0005c	89 04 91	 mov	 DWORD PTR [ecx+edx*4], eax
$LN4@SetAtGrow:

; 295  : 
; 296  : 	return;
; 297  : }

  0005f	5f		 pop	 edi
  00060	5e		 pop	 esi
  00061	5b		 pop	 ebx
  00062	8b e5		 mov	 esp, ebp
  00064	5d		 pop	 ebp
  00065	c2 08 00	 ret	 8
?SetAtGrow@?$CWHArray@PAUtagGameServerInfo@@ABQAU1@@@QAEXHABQAUtagGameServerInfo@@@Z ENDP ; CWHArray<tagGameServerInfo *,tagGameServerInfo * const &>::SetAtGrow
_TEXT	ENDS
; Function compile flags: /Odtp /ZI
; File g:\网狐\happygamewh\服务端\系统模块\全局定义\array.h
;	COMDAT ?SetSize@?$CWHArray@PAUtagGameServerInfo@@ABQAU1@@@QAEXH@Z
_TEXT	SEGMENT
$T1 = -80						; size = 4
_i$2 = -12						; size = 4
_i$3 = -8						; size = 4
_this$ = -4						; size = 4
_nNewSize$ = 8						; size = 4
?SetSize@?$CWHArray@PAUtagGameServerInfo@@ABQAU1@@@QAEXH@Z PROC ; CWHArray<tagGameServerInfo *,tagGameServerInfo * const &>::SetSize, COMDAT
; _this$ = ecx

; 252  : {

  00000	55		 push	 ebp
  00001	8b ec		 mov	 ebp, esp
  00003	83 ec 50	 sub	 esp, 80			; 00000050H
  00006	53		 push	 ebx
  00007	56		 push	 esi
  00008	57		 push	 edi
  00009	89 4d fc	 mov	 DWORD PTR _this$[ebp], ecx

; 253  : 	//效验参数
; 254  : 	ASSERT(nNewSize>=0);

  0000c	83 7d 08 00	 cmp	 DWORD PTR _nNewSize$[ebp], 0
  00010	7d 14		 jge	 SHORT $LN13@SetSize
  00012	68 fe 00 00 00	 push	 254			; 000000feH
  00017	68 00 00 00 00	 push	 OFFSET ??_C@_0DF@LDFGAABH@g?3?2?M?x?$LK?$PM?2happygamewh?2?$LH?$PO?N?q?$LG?K?2?O?$LF?M?$LD@
  0001c	e8 00 00 00 00	 call	 ?AfxAssertFailedLine@@YGHPBDH@Z ; AfxAssertFailedLine
  00021	85 c0		 test	 eax, eax
  00023	74 01		 je	 SHORT $LN13@SetSize
  00025	cc		 int	 3
$LN13@SetSize:

; 255  : 	if (nNewSize<0)	AfxThrowInvalidArgException();

  00026	83 7d 08 00	 cmp	 DWORD PTR _nNewSize$[ebp], 0
  0002a	7d 05		 jge	 SHORT $LN8@SetSize
  0002c	e8 00 00 00 00	 call	 ?AfxThrowInvalidArgException@@YGXXZ ; AfxThrowInvalidArgException
$LN8@SetSize:

; 256  : 	
; 257  : 	//设置大小
; 258  : 	AllocMemory(nNewSize);

  00031	8b 45 08	 mov	 eax, DWORD PTR _nNewSize$[ebp]
  00034	50		 push	 eax
  00035	8b 4d fc	 mov	 ecx, DWORD PTR _this$[ebp]
  00038	e8 00 00 00 00	 call	 ?AllocMemory@?$CWHArray@PAUtagGameServerInfo@@ABQAU1@@@QAEXH@Z ; CWHArray<tagGameServerInfo *,tagGameServerInfo * const &>::AllocMemory

; 259  : 	if (nNewSize>m_nElementCount)

  0003d	8b 45 fc	 mov	 eax, DWORD PTR _this$[ebp]
  00040	8b 4d 08	 mov	 ecx, DWORD PTR _nNewSize$[ebp]
  00043	3b 48 10	 cmp	 ecx, DWORD PTR [eax+16]
  00046	7e 3a		 jle	 SHORT $LN9@SetSize

; 260  : 	{
; 261  : 		for (INT_PTR i=m_nElementCount;i<nNewSize;i++) new ((VOID *)(m_pData+i)) TYPE;

  00048	8b 45 fc	 mov	 eax, DWORD PTR _this$[ebp]
  0004b	8b 48 10	 mov	 ecx, DWORD PTR [eax+16]
  0004e	89 4d f8	 mov	 DWORD PTR _i$3[ebp], ecx
  00051	eb 09		 jmp	 SHORT $LN4@SetSize
$LN2@SetSize:
  00053	8b 45 f8	 mov	 eax, DWORD PTR _i$3[ebp]
  00056	83 c0 01	 add	 eax, 1
  00059	89 45 f8	 mov	 DWORD PTR _i$3[ebp], eax
$LN4@SetSize:
  0005c	8b 45 f8	 mov	 eax, DWORD PTR _i$3[ebp]
  0005f	3b 45 08	 cmp	 eax, DWORD PTR _nNewSize$[ebp]
  00062	7d 1c		 jge	 SHORT $LN3@SetSize
  00064	8b 45 fc	 mov	 eax, DWORD PTR _this$[ebp]
  00067	8b 48 04	 mov	 ecx, DWORD PTR [eax+4]
  0006a	8b 55 f8	 mov	 edx, DWORD PTR _i$3[ebp]
  0006d	8d 04 91	 lea	 eax, DWORD PTR [ecx+edx*4]
  00070	50		 push	 eax
  00071	6a 04		 push	 4
  00073	e8 00 00 00 00	 call	 ??2@YAPAXIPAX@Z		; operator new
  00078	83 c4 08	 add	 esp, 8
  0007b	89 45 b0	 mov	 DWORD PTR $T1[ebp], eax
  0007e	eb d3		 jmp	 SHORT $LN2@SetSize
$LN3@SetSize:

; 262  : 	}
; 263  : 	else if (nNewSize<m_nElementCount)

  00080	eb 4d		 jmp	 SHORT $LN10@SetSize
$LN9@SetSize:
  00082	8b 45 fc	 mov	 eax, DWORD PTR _this$[ebp]
  00085	8b 4d 08	 mov	 ecx, DWORD PTR _nNewSize$[ebp]
  00088	3b 48 10	 cmp	 ecx, DWORD PTR [eax+16]
  0008b	7d 42		 jge	 SHORT $LN10@SetSize

; 264  : 	{
; 265  : 		for (INT_PTR i=nNewSize;i<m_nElementCount;i++) (m_pData+i)->~TYPE();

  0008d	8b 45 08	 mov	 eax, DWORD PTR _nNewSize$[ebp]
  00090	89 45 f4	 mov	 DWORD PTR _i$2[ebp], eax
  00093	eb 09		 jmp	 SHORT $LN7@SetSize
$LN5@SetSize:
  00095	8b 45 f4	 mov	 eax, DWORD PTR _i$2[ebp]
  00098	83 c0 01	 add	 eax, 1
  0009b	89 45 f4	 mov	 DWORD PTR _i$2[ebp], eax
$LN7@SetSize:
  0009e	8b 45 fc	 mov	 eax, DWORD PTR _this$[ebp]
  000a1	8b 4d f4	 mov	 ecx, DWORD PTR _i$2[ebp]
  000a4	3b 48 10	 cmp	 ecx, DWORD PTR [eax+16]
  000a7	7d 02		 jge	 SHORT $LN6@SetSize
  000a9	eb ea		 jmp	 SHORT $LN5@SetSize
$LN6@SetSize:

; 266  : 		memset(m_pData+nNewSize,0,(m_nElementCount-nNewSize)*sizeof(TYPE));

  000ab	8b 45 fc	 mov	 eax, DWORD PTR _this$[ebp]
  000ae	8b 48 10	 mov	 ecx, DWORD PTR [eax+16]
  000b1	2b 4d 08	 sub	 ecx, DWORD PTR _nNewSize$[ebp]
  000b4	c1 e1 02	 shl	 ecx, 2
  000b7	51		 push	 ecx
  000b8	6a 00		 push	 0
  000ba	8b 55 fc	 mov	 edx, DWORD PTR _this$[ebp]
  000bd	8b 42 04	 mov	 eax, DWORD PTR [edx+4]
  000c0	8b 4d 08	 mov	 ecx, DWORD PTR _nNewSize$[ebp]
  000c3	8d 14 88	 lea	 edx, DWORD PTR [eax+ecx*4]
  000c6	52		 push	 edx
  000c7	e8 00 00 00 00	 call	 _memset
  000cc	83 c4 0c	 add	 esp, 12			; 0000000cH
$LN10@SetSize:

; 267  : 	}
; 268  : 	m_nElementCount=nNewSize;

  000cf	8b 45 fc	 mov	 eax, DWORD PTR _this$[ebp]
  000d2	8b 4d 08	 mov	 ecx, DWORD PTR _nNewSize$[ebp]
  000d5	89 48 10	 mov	 DWORD PTR [eax+16], ecx
$LN12@SetSize:

; 269  : 
; 270  : 	return;
; 271  : }

  000d8	5f		 pop	 edi
  000d9	5e		 pop	 esi
  000da	5b		 pop	 ebx
  000db	8b e5		 mov	 esp, ebp
  000dd	5d		 pop	 ebp
  000de	c2 04 00	 ret	 4
?SetSize@?$CWHArray@PAUtagGameServerInfo@@ABQAU1@@@QAEXH@Z ENDP ; CWHArray<tagGameServerInfo *,tagGameServerInfo * const &>::SetSize
_TEXT	ENDS
; Function compile flags: /Odtp /ZI
; File g:\网狐\happygamewh\服务端\系统模块\全局定义\array.h
;	COMDAT ?ElementAt@?$CWHArray@PAUtagGameServerInfo@@ABQAU1@@@QAEAAPAUtagGameServerInfo@@H@Z
_TEXT	SEGMENT
_this$ = -4						; size = 4
_nIndex$ = 8						; size = 4
?ElementAt@?$CWHArray@PAUtagGameServerInfo@@ABQAU1@@@QAEAAPAUtagGameServerInfo@@H@Z PROC ; CWHArray<tagGameServerInfo *,tagGameServerInfo * const &>::ElementAt, COMDAT
; _this$ = ecx

; 232  : {

  00000	55		 push	 ebp
  00001	8b ec		 mov	 ebp, esp
  00003	83 ec 44	 sub	 esp, 68			; 00000044H
  00006	53		 push	 ebx
  00007	56		 push	 esi
  00008	57		 push	 edi
  00009	89 4d fc	 mov	 DWORD PTR _this$[ebp], ecx

; 233  : 	ASSERT((nIndex>=0)&&(nIndex<m_nElementCount));

  0000c	83 7d 08 00	 cmp	 DWORD PTR _nIndex$[ebp], 0
  00010	7c 0b		 jl	 SHORT $LN4@ElementAt
  00012	8b 45 fc	 mov	 eax, DWORD PTR _this$[ebp]
  00015	8b 4d 08	 mov	 ecx, DWORD PTR _nIndex$[ebp]
  00018	3b 48 10	 cmp	 ecx, DWORD PTR [eax+16]
  0001b	7c 14		 jl	 SHORT $LN5@ElementAt
$LN4@ElementAt:
  0001d	68 e9 00 00 00	 push	 233			; 000000e9H
  00022	68 00 00 00 00	 push	 OFFSET ??_C@_0DF@LDFGAABH@g?3?2?M?x?$LK?$PM?2happygamewh?2?$LH?$PO?N?q?$LG?K?2?O?$LF?M?$LD@
  00027	e8 00 00 00 00	 call	 ?AfxAssertFailedLine@@YGHPBDH@Z ; AfxAssertFailedLine
  0002c	85 c0		 test	 eax, eax
  0002e	74 01		 je	 SHORT $LN5@ElementAt
  00030	cc		 int	 3
$LN5@ElementAt:

; 234  : 	if ((nIndex<0)&&(nIndex>=m_nElementCount)) AfxThrowInvalidArgException();

  00031	83 7d 08 00	 cmp	 DWORD PTR _nIndex$[ebp], 0
  00035	7d 10		 jge	 SHORT $LN2@ElementAt
  00037	8b 45 fc	 mov	 eax, DWORD PTR _this$[ebp]
  0003a	8b 4d 08	 mov	 ecx, DWORD PTR _nIndex$[ebp]
  0003d	3b 48 10	 cmp	 ecx, DWORD PTR [eax+16]
  00040	7c 05		 jl	 SHORT $LN2@ElementAt
  00042	e8 00 00 00 00	 call	 ?AfxThrowInvalidArgException@@YGXXZ ; AfxThrowInvalidArgException
$LN2@ElementAt:

; 235  : 	
; 236  : 	return m_pData[nIndex];

  00047	8b 45 fc	 mov	 eax, DWORD PTR _this$[ebp]
  0004a	8b 48 04	 mov	 ecx, DWORD PTR [eax+4]
  0004d	8b 55 08	 mov	 edx, DWORD PTR _nIndex$[ebp]
  00050	8d 04 91	 lea	 eax, DWORD PTR [ecx+edx*4]
$LN3@ElementAt:

; 237  : }

  00053	5f		 pop	 edi
  00054	5e		 pop	 esi
  00055	5b		 pop	 ebx
  00056	8b e5		 mov	 esp, ebp
  00058	5d		 pop	 ebp
  00059	c2 04 00	 ret	 4
?ElementAt@?$CWHArray@PAUtagGameServerInfo@@ABQAU1@@@QAEAAPAUtagGameServerInfo@@H@Z ENDP ; CWHArray<tagGameServerInfo *,tagGameServerInfo * const &>::ElementAt
_TEXT	ENDS
; Function compile flags: /Odtp /ZI
; File g:\网狐\happygamewh\服务端\系统模块\全局定义\array.h
;	COMDAT ?Add@?$CWHArray@PAUtagGameServerInfo@@ABQAU1@@@QAEHABQAUtagGameServerInfo@@@Z
_TEXT	SEGMENT
_nIndex$ = -8						; size = 4
_this$ = -4						; size = 4
_newElement$ = 8					; size = 4
?Add@?$CWHArray@PAUtagGameServerInfo@@ABQAU1@@@QAEHABQAUtagGameServerInfo@@@Z PROC ; CWHArray<tagGameServerInfo *,tagGameServerInfo * const &>::Add, COMDAT
; _this$ = ecx

; 105  : {

  00000	55		 push	 ebp
  00001	8b ec		 mov	 ebp, esp
  00003	83 ec 48	 sub	 esp, 72			; 00000048H
  00006	53		 push	 ebx
  00007	56		 push	 esi
  00008	57		 push	 edi
  00009	89 4d fc	 mov	 DWORD PTR _this$[ebp], ecx

; 106  : 	INT_PTR nIndex=m_nElementCount;

  0000c	8b 45 fc	 mov	 eax, DWORD PTR _this$[ebp]
  0000f	8b 48 10	 mov	 ecx, DWORD PTR [eax+16]
  00012	89 4d f8	 mov	 DWORD PTR _nIndex$[ebp], ecx

; 107  : 	SetAtGrow(nIndex,newElement);

  00015	8b 45 08	 mov	 eax, DWORD PTR _newElement$[ebp]
  00018	50		 push	 eax
  00019	8b 4d f8	 mov	 ecx, DWORD PTR _nIndex$[ebp]
  0001c	51		 push	 ecx
  0001d	8b 4d fc	 mov	 ecx, DWORD PTR _this$[ebp]
  00020	e8 00 00 00 00	 call	 ?SetAtGrow@?$CWHArray@PAUtagGameServerInfo@@ABQAU1@@@QAEXHABQAUtagGameServerInfo@@@Z ; CWHArray<tagGameServerInfo *,tagGameServerInfo * const &>::SetAtGrow

; 108  : 	return nIndex;

  00025	8b 45 f8	 mov	 eax, DWORD PTR _nIndex$[ebp]

; 109  : }

  00028	5f		 pop	 edi
  00029	5e		 pop	 esi
  0002a	5b		 pop	 ebx
  0002b	8b e5		 mov	 esp, ebp
  0002d	5d		 pop	 ebp
  0002e	c2 04 00	 ret	 4
?Add@?$CWHArray@PAUtagGameServerInfo@@ABQAU1@@@QAEHABQAUtagGameServerInfo@@@Z ENDP ; CWHArray<tagGameServerInfo *,tagGameServerInfo * const &>::Add
_TEXT	ENDS
; Function compile flags: /Odtp /ZI
; File g:\网狐\happygamewh\服务端\系统模块\全局定义\array.h
;	COMDAT ?GetCount@?$CWHArray@PAUtagGameServerInfo@@ABQAU1@@@QBEHXZ
_TEXT	SEGMENT
_this$ = -4						; size = 4
?GetCount@?$CWHArray@PAUtagGameServerInfo@@ABQAU1@@@QBEHXZ PROC ; CWHArray<tagGameServerInfo *,tagGameServerInfo * const &>::GetCount, COMDAT
; _this$ = ecx

; 98   : {

  00000	55		 push	 ebp
  00001	8b ec		 mov	 ebp, esp
  00003	83 ec 44	 sub	 esp, 68			; 00000044H
  00006	53		 push	 ebx
  00007	56		 push	 esi
  00008	57		 push	 edi
  00009	89 4d fc	 mov	 DWORD PTR _this$[ebp], ecx

; 99   : 	return m_nElementCount;

  0000c	8b 45 fc	 mov	 eax, DWORD PTR _this$[ebp]
  0000f	8b 40 10	 mov	 eax, DWORD PTR [eax+16]

; 100  : }

  00012	5f		 pop	 edi
  00013	5e		 pop	 esi
  00014	5b		 pop	 ebx
  00015	8b e5		 mov	 esp, ebp
  00017	5d		 pop	 ebp
  00018	c3		 ret	 0
?GetCount@?$CWHArray@PAUtagGameServerInfo@@ABQAU1@@@QBEHXZ ENDP ; CWHArray<tagGameServerInfo *,tagGameServerInfo * const &>::GetCount
_TEXT	ENDS
; Function compile flags: /Odtp /ZI
; File g:\网狐\happygamewh\服务端\系统模块\全局定义\array.h
;	COMDAT ??1?$CWHArray@PAUtagGameServerInfo@@ABQAU1@@@UAE@XZ
_TEXT	SEGMENT
$T1 = -76						; size = 4
_i$2 = -8						; size = 4
_this$ = -4						; size = 4
??1?$CWHArray@PAUtagGameServerInfo@@ABQAU1@@@UAE@XZ PROC ; CWHArray<tagGameServerInfo *,tagGameServerInfo * const &>::~CWHArray<tagGameServerInfo *,tagGameServerInfo * const &>, COMDAT
; _this$ = ecx

; 143  : {

  00000	55		 push	 ebp
  00001	8b ec		 mov	 ebp, esp
  00003	83 ec 4c	 sub	 esp, 76			; 0000004cH
  00006	53		 push	 ebx
  00007	56		 push	 esi
  00008	57		 push	 edi
  00009	89 4d fc	 mov	 DWORD PTR _this$[ebp], ecx
  0000c	8b 45 fc	 mov	 eax, DWORD PTR _this$[ebp]
  0000f	c7 00 00 00 00
	00		 mov	 DWORD PTR [eax], OFFSET ??_7?$CWHArray@PAUtagGameServerInfo@@ABQAU1@@@6B@

; 144  : 	if (m_pData!=NULL)

  00015	8b 45 fc	 mov	 eax, DWORD PTR _this$[ebp]
  00018	83 78 04 00	 cmp	 DWORD PTR [eax+4], 0
  0001c	74 3e		 je	 SHORT $LN6@CWHArray

; 145  : 	{
; 146  : 		for (INT_PTR i=0;i<m_nElementCount;i++)	(m_pData+i)->~TYPE();

  0001e	c7 45 f8 00 00
	00 00		 mov	 DWORD PTR _i$2[ebp], 0
  00025	eb 09		 jmp	 SHORT $LN4@CWHArray
$LN2@CWHArray:
  00027	8b 45 f8	 mov	 eax, DWORD PTR _i$2[ebp]
  0002a	83 c0 01	 add	 eax, 1
  0002d	89 45 f8	 mov	 DWORD PTR _i$2[ebp], eax
$LN4@CWHArray:
  00030	8b 45 fc	 mov	 eax, DWORD PTR _this$[ebp]
  00033	8b 4d f8	 mov	 ecx, DWORD PTR _i$2[ebp]
  00036	3b 48 10	 cmp	 ecx, DWORD PTR [eax+16]
  00039	7d 02		 jge	 SHORT $LN3@CWHArray
  0003b	eb ea		 jmp	 SHORT $LN2@CWHArray
$LN3@CWHArray:

; 147  : 		delete [] (BYTE *)m_pData;

  0003d	8b 45 fc	 mov	 eax, DWORD PTR _this$[ebp]
  00040	8b 48 04	 mov	 ecx, DWORD PTR [eax+4]
  00043	89 4d b4	 mov	 DWORD PTR $T1[ebp], ecx
  00046	8b 55 b4	 mov	 edx, DWORD PTR $T1[ebp]
  00049	52		 push	 edx
  0004a	e8 00 00 00 00	 call	 ??_V@YAXPAX@Z		; operator delete[]
  0004f	83 c4 04	 add	 esp, 4

; 148  : 		m_pData=NULL;

  00052	8b 45 fc	 mov	 eax, DWORD PTR _this$[ebp]
  00055	c7 40 04 00 00
	00 00		 mov	 DWORD PTR [eax+4], 0
$LN6@CWHArray:

; 149  : 	}
; 150  : 
; 151  : 	return;
; 152  : }

  0005c	5f		 pop	 edi
  0005d	5e		 pop	 esi
  0005e	5b		 pop	 ebx
  0005f	8b e5		 mov	 esp, ebp
  00061	5d		 pop	 ebp
  00062	c3		 ret	 0
??1?$CWHArray@PAUtagGameServerInfo@@ABQAU1@@@UAE@XZ ENDP ; CWHArray<tagGameServerInfo *,tagGameServerInfo * const &>::~CWHArray<tagGameServerInfo *,tagGameServerInfo * const &>
_TEXT	ENDS
; Function compile flags: /Odtp /ZI
; File g:\网狐\happygamewh\服务端\系统模块\全局定义\array.h
;	COMDAT ??0?$CWHArray@PAUtagGameServerInfo@@ABQAU1@@@QAE@XZ
_TEXT	SEGMENT
_this$ = -4						; size = 4
??0?$CWHArray@PAUtagGameServerInfo@@ABQAU1@@@QAE@XZ PROC ; CWHArray<tagGameServerInfo *,tagGameServerInfo * const &>::CWHArray<tagGameServerInfo *,tagGameServerInfo * const &>, COMDAT
; _this$ = ecx

; 131  : {

  00000	55		 push	 ebp
  00001	8b ec		 mov	 ebp, esp
  00003	83 ec 44	 sub	 esp, 68			; 00000044H
  00006	53		 push	 ebx
  00007	56		 push	 esi
  00008	57		 push	 edi
  00009	89 4d fc	 mov	 DWORD PTR _this$[ebp], ecx
  0000c	8b 45 fc	 mov	 eax, DWORD PTR _this$[ebp]
  0000f	c7 00 00 00 00
	00		 mov	 DWORD PTR [eax], OFFSET ??_7?$CWHArray@PAUtagGameServerInfo@@ABQAU1@@@6B@

; 132  : 	m_pData=NULL;

  00015	8b 45 fc	 mov	 eax, DWORD PTR _this$[ebp]
  00018	c7 40 04 00 00
	00 00		 mov	 DWORD PTR [eax+4], 0

; 133  : 	m_nMaxCount=0;

  0001f	8b 45 fc	 mov	 eax, DWORD PTR _this$[ebp]
  00022	c7 40 08 00 00
	00 00		 mov	 DWORD PTR [eax+8], 0

; 134  : 	m_nGrowCount=0;

  00029	8b 45 fc	 mov	 eax, DWORD PTR _this$[ebp]
  0002c	c7 40 0c 00 00
	00 00		 mov	 DWORD PTR [eax+12], 0

; 135  : 	m_nElementCount=0;

  00033	8b 45 fc	 mov	 eax, DWORD PTR _this$[ebp]
  00036	c7 40 10 00 00
	00 00		 mov	 DWORD PTR [eax+16], 0

; 136  : 
; 137  : 	return;
; 138  : }

  0003d	8b 45 fc	 mov	 eax, DWORD PTR _this$[ebp]
  00040	5f		 pop	 edi
  00041	5e		 pop	 esi
  00042	5b		 pop	 ebx
  00043	8b e5		 mov	 esp, ebp
  00045	5d		 pop	 ebp
  00046	c3		 ret	 0
??0?$CWHArray@PAUtagGameServerInfo@@ABQAU1@@@QAE@XZ ENDP ; CWHArray<tagGameServerInfo *,tagGameServerInfo * const &>::CWHArray<tagGameServerInfo *,tagGameServerInfo * const &>
_TEXT	ENDS
; Function compile flags: /Odtp /ZI
;	COMDAT ??_G?$CMap@GGPAUtagGameServerInfo@@PAU1@@@UAEPAXI@Z
_TEXT	SEGMENT
_this$ = -4						; size = 4
___flags$ = 8						; size = 4
??_G?$CMap@GGPAUtagGameServerInfo@@PAU1@@@UAEPAXI@Z PROC ; CMap<unsigned short,unsigned short,tagGameServerInfo *,tagGameServerInfo *>::`scalar deleting destructor', COMDAT
; _this$ = ecx
  00000	55		 push	 ebp
  00001	8b ec		 mov	 ebp, esp
  00003	83 ec 44	 sub	 esp, 68			; 00000044H
  00006	53		 push	 ebx
  00007	56		 push	 esi
  00008	57		 push	 edi
  00009	89 4d fc	 mov	 DWORD PTR _this$[ebp], ecx
  0000c	8b 4d fc	 mov	 ecx, DWORD PTR _this$[ebp]
  0000f	e8 00 00 00 00	 call	 ??1?$CMap@GGPAUtagGameServerInfo@@PAU1@@@UAE@XZ ; CMap<unsigned short,unsigned short,tagGameServerInfo *,tagGameServerInfo *>::~CMap<unsigned short,unsigned short,tagGameServerInfo *,tagGameServerInfo *>
  00014	8b 45 08	 mov	 eax, DWORD PTR ___flags$[ebp]
  00017	83 e0 01	 and	 eax, 1
  0001a	74 21		 je	 SHORT $LN2@scalar
  0001c	8b 45 08	 mov	 eax, DWORD PTR ___flags$[ebp]
  0001f	83 e0 04	 and	 eax, 4
  00022	75 0b		 jne	 SHORT $LN3@scalar
  00024	8b 45 fc	 mov	 eax, DWORD PTR _this$[ebp]
  00027	50		 push	 eax
  00028	e8 00 00 00 00	 call	 ??3CObject@@SGXPAX@Z	; CObject::operator delete
  0002d	eb 0e		 jmp	 SHORT $LN2@scalar
$LN3@scalar:
  0002f	6a 1c		 push	 28			; 0000001cH
  00031	8b 45 fc	 mov	 eax, DWORD PTR _this$[ebp]
  00034	50		 push	 eax
  00035	e8 00 00 00 00	 call	 ?__global_delete@@YAXPAXI@Z ; __global_delete
  0003a	83 c4 08	 add	 esp, 8
$LN2@scalar:
  0003d	8b 45 fc	 mov	 eax, DWORD PTR _this$[ebp]
  00040	5f		 pop	 edi
  00041	5e		 pop	 esi
  00042	5b		 pop	 ebx
  00043	8b e5		 mov	 esp, ebp
  00045	5d		 pop	 ebp
  00046	c2 04 00	 ret	 4
??_G?$CMap@GGPAUtagGameServerInfo@@PAU1@@@UAEPAXI@Z ENDP ; CMap<unsigned short,unsigned short,tagGameServerInfo *,tagGameServerInfo *>::`scalar deleting destructor'
_TEXT	ENDS
; Function compile flags: /Odtp /ZI
; File c:\program files (x86)\microsoft visual studio\2017\community\vc\tools\msvc\14.16.27023\atlmfc\include\afxtempl.h
;	COMDAT ?AssertValid@?$CMap@GGPAUtagGameServerInfo@@PAU1@@@UBEXXZ
_TEXT	SEGMENT
_this$ = -4						; size = 4
?AssertValid@?$CMap@GGPAUtagGameServerInfo@@PAU1@@@UBEXXZ PROC ; CMap<unsigned short,unsigned short,tagGameServerInfo *,tagGameServerInfo *>::AssertValid, COMDAT
; _this$ = ecx

; 1820 : {

  00000	55		 push	 ebp
  00001	8b ec		 mov	 ebp, esp
  00003	83 ec 44	 sub	 esp, 68			; 00000044H
  00006	53		 push	 ebx
  00007	56		 push	 esi
  00008	57		 push	 edi
  00009	89 4d fc	 mov	 DWORD PTR _this$[ebp], ecx

; 1821 : 	CObject::AssertValid();

  0000c	8b 4d fc	 mov	 ecx, DWORD PTR _this$[ebp]
  0000f	e8 00 00 00 00	 call	 ?AssertValid@CObject@@UBEXXZ ; CObject::AssertValid

; 1822 : 
; 1823 : 	ASSERT(m_nHashTableSize > 0);

  00014	8b 45 fc	 mov	 eax, DWORD PTR _this$[ebp]
  00017	83 78 08 00	 cmp	 DWORD PTR [eax+8], 0
  0001b	77 14		 ja	 SHORT $LN3@AssertVali
  0001d	68 1f 07 00 00	 push	 1823			; 0000071fH
  00022	68 00 00 00 00	 push	 OFFSET ??_C@_0HC@HBCNBCLF@c?3?2program?5files?5?$CIx86?$CJ?2microsof@
  00027	e8 00 00 00 00	 call	 ?AfxAssertFailedLine@@YGHPBDH@Z ; AfxAssertFailedLine
  0002c	85 c0		 test	 eax, eax
  0002e	74 01		 je	 SHORT $LN3@AssertVali
  00030	cc		 int	 3
$LN3@AssertVali:

; 1824 : 	ASSERT(m_nCount == 0 || m_pHashTable != NULL);

  00031	8b 45 fc	 mov	 eax, DWORD PTR _this$[ebp]
  00034	83 78 0c 00	 cmp	 DWORD PTR [eax+12], 0
  00038	74 1d		 je	 SHORT $LN1@AssertVali
  0003a	8b 4d fc	 mov	 ecx, DWORD PTR _this$[ebp]
  0003d	83 79 04 00	 cmp	 DWORD PTR [ecx+4], 0
  00041	75 14		 jne	 SHORT $LN1@AssertVali
  00043	68 20 07 00 00	 push	 1824			; 00000720H
  00048	68 00 00 00 00	 push	 OFFSET ??_C@_0HC@HBCNBCLF@c?3?2program?5files?5?$CIx86?$CJ?2microsof@
  0004d	e8 00 00 00 00	 call	 ?AfxAssertFailedLine@@YGHPBDH@Z ; AfxAssertFailedLine
  00052	85 c0		 test	 eax, eax
  00054	74 01		 je	 SHORT $LN1@AssertVali
  00056	cc		 int	 3
$LN1@AssertVali:

; 1825 : 		// non-empty map should have hash table
; 1826 : }

  00057	5f		 pop	 edi
  00058	5e		 pop	 esi
  00059	5b		 pop	 ebx
  0005a	8b e5		 mov	 esp, ebp
  0005c	5d		 pop	 ebp
  0005d	c3		 ret	 0
?AssertValid@?$CMap@GGPAUtagGameServerInfo@@PAU1@@@UBEXXZ ENDP ; CMap<unsigned short,unsigned short,tagGameServerInfo *,tagGameServerInfo *>::AssertValid
_TEXT	ENDS
; Function compile flags: /Odtp /ZI
; File c:\program files (x86)\microsoft visual studio\2017\community\vc\tools\msvc\14.16.27023\atlmfc\include\afxtempl.h
;	COMDAT ?Dump@?$CMap@GGPAUtagGameServerInfo@@PAU1@@@UBEXAAVCDumpContext@@@Z
_TEXT	SEGMENT
_pos$1 = -16						; size = 4
_val$2 = -12						; size = 4
_key$3 = -8						; size = 2
_this$ = -4						; size = 4
_dc$ = 8						; size = 4
?Dump@?$CMap@GGPAUtagGameServerInfo@@PAU1@@@UBEXAAVCDumpContext@@@Z PROC ; CMap<unsigned short,unsigned short,tagGameServerInfo *,tagGameServerInfo *>::Dump, COMDAT
; _this$ = ecx

; 1794 : {

  00000	55		 push	 ebp
  00001	8b ec		 mov	 ebp, esp
  00003	83 ec 50	 sub	 esp, 80			; 00000050H
  00006	53		 push	 ebx
  00007	56		 push	 esi
  00008	57		 push	 edi
  00009	89 4d fc	 mov	 DWORD PTR _this$[ebp], ecx

; 1795 : 	CObject::Dump(dc);

  0000c	8b 45 08	 mov	 eax, DWORD PTR _dc$[ebp]
  0000f	50		 push	 eax
  00010	8b 4d fc	 mov	 ecx, DWORD PTR _this$[ebp]
  00013	e8 00 00 00 00	 call	 ?Dump@CObject@@UBEXAAVCDumpContext@@@Z ; CObject::Dump

; 1796 : 
; 1797 : 	dc << "with " << m_nCount << " elements";

  00018	68 00 00 00 00	 push	 OFFSET ??_C@_09HCLNAIDE@?5elements@
  0001d	8b 45 fc	 mov	 eax, DWORD PTR _this$[ebp]
  00020	8b 48 0c	 mov	 ecx, DWORD PTR [eax+12]
  00023	51		 push	 ecx
  00024	68 00 00 00 00	 push	 OFFSET ??_C@_05PLCFPPOI@with?5@
  00029	8b 4d 08	 mov	 ecx, DWORD PTR _dc$[ebp]
  0002c	e8 00 00 00 00	 call	 ??6CDumpContext@@QAEAAV0@PBD@Z ; CDumpContext::operator<<
  00031	8b c8		 mov	 ecx, eax
  00033	e8 00 00 00 00	 call	 ??6CDumpContext@@QAEAAV0@H@Z ; CDumpContext::operator<<
  00038	8b c8		 mov	 ecx, eax
  0003a	e8 00 00 00 00	 call	 ??6CDumpContext@@QAEAAV0@PBD@Z ; CDumpContext::operator<<

; 1798 : 	if (dc.GetDepth() > 0)

  0003f	8b 4d 08	 mov	 ecx, DWORD PTR _dc$[ebp]
  00042	e8 00 00 00 00	 call	 ?GetDepth@CDumpContext@@QBEHXZ ; CDumpContext::GetDepth
  00047	85 c0		 test	 eax, eax
  00049	7e 71		 jle	 SHORT $LN4@Dump

; 1799 : 	{
; 1800 : 		// Dump in format "[key] -> value"
; 1801 : 		KEY key[1];
; 1802 : 		VALUE val[1];
; 1803 : 
; 1804 : 		POSITION pos = GetStartPosition();

  0004b	8b 4d fc	 mov	 ecx, DWORD PTR _this$[ebp]
  0004e	e8 00 00 00 00	 call	 ?GetStartPosition@?$CMap@GGPAUtagGameServerInfo@@PAU1@@@QBEPAU__POSITION@@XZ ; CMap<unsigned short,unsigned short,tagGameServerInfo *,tagGameServerInfo *>::GetStartPosition
  00053	89 45 f0	 mov	 DWORD PTR _pos$1[ebp], eax
$LN2@Dump:

; 1805 : 		while (pos != NULL)

  00056	83 7d f0 00	 cmp	 DWORD PTR _pos$1[ebp], 0
  0005a	74 60		 je	 SHORT $LN4@Dump

; 1806 : 		{
; 1807 : 			GetNextAssoc(pos, key[0], val[0]);

  0005c	b8 04 00 00 00	 mov	 eax, 4
  00061	6b c8 00	 imul	 ecx, eax, 0
  00064	8d 54 0d f4	 lea	 edx, DWORD PTR _val$2[ebp+ecx]
  00068	52		 push	 edx
  00069	b8 02 00 00 00	 mov	 eax, 2
  0006e	6b c8 00	 imul	 ecx, eax, 0
  00071	8d 54 0d f8	 lea	 edx, DWORD PTR _key$3[ebp+ecx]
  00075	52		 push	 edx
  00076	8d 45 f0	 lea	 eax, DWORD PTR _pos$1[ebp]
  00079	50		 push	 eax
  0007a	8b 4d fc	 mov	 ecx, DWORD PTR _this$[ebp]
  0007d	e8 00 00 00 00	 call	 ?GetNextAssoc@?$CMap@GGPAUtagGameServerInfo@@PAU1@@@QBEXAAPAU__POSITION@@AAGAAPAUtagGameServerInfo@@@Z ; CMap<unsigned short,unsigned short,tagGameServerInfo *,tagGameServerInfo *>::GetNextAssoc

; 1808 : 			dc << "\n\t[";

  00082	68 00 00 00 00	 push	 OFFSET ??_C@_03OHJIHPJH@?6?7?$FL@
  00087	8b 4d 08	 mov	 ecx, DWORD PTR _dc$[ebp]
  0008a	e8 00 00 00 00	 call	 ??6CDumpContext@@QAEAAV0@PBD@Z ; CDumpContext::operator<<

; 1809 : 			DumpElements<KEY>(dc, key, 1);

  0008f	6a 01		 push	 1
  00091	8d 45 f8	 lea	 eax, DWORD PTR _key$3[ebp]
  00094	50		 push	 eax
  00095	8b 4d 08	 mov	 ecx, DWORD PTR _dc$[ebp]
  00098	51		 push	 ecx
  00099	e8 00 00 00 00	 call	 ??$DumpElements@G@@YGXAAVCDumpContext@@PBGH@Z ; DumpElements<unsigned short>

; 1810 : 			dc << "] = ";

  0009e	68 00 00 00 00	 push	 OFFSET ??_C@_04OAFLPOMH@?$FN?5?$DN?5@
  000a3	8b 4d 08	 mov	 ecx, DWORD PTR _dc$[ebp]
  000a6	e8 00 00 00 00	 call	 ??6CDumpContext@@QAEAAV0@PBD@Z ; CDumpContext::operator<<

; 1811 : 			DumpElements<VALUE>(dc, val, 1);

  000ab	6a 01		 push	 1
  000ad	8d 45 f4	 lea	 eax, DWORD PTR _val$2[ebp]
  000b0	50		 push	 eax
  000b1	8b 4d 08	 mov	 ecx, DWORD PTR _dc$[ebp]
  000b4	51		 push	 ecx
  000b5	e8 00 00 00 00	 call	 ??$DumpElements@PAUtagGameServerInfo@@@@YGXAAVCDumpContext@@PBQAUtagGameServerInfo@@H@Z ; DumpElements<tagGameServerInfo *>

; 1812 : 		}

  000ba	eb 9a		 jmp	 SHORT $LN2@Dump
$LN4@Dump:

; 1813 : 	}
; 1814 : 
; 1815 : 	dc << "\n";

  000bc	68 00 00 00 00	 push	 OFFSET ??_C@_01EEMJAFIK@?6@
  000c1	8b 4d 08	 mov	 ecx, DWORD PTR _dc$[ebp]
  000c4	e8 00 00 00 00	 call	 ??6CDumpContext@@QAEAAV0@PBD@Z ; CDumpContext::operator<<

; 1816 : }

  000c9	5f		 pop	 edi
  000ca	5e		 pop	 esi
  000cb	5b		 pop	 ebx
  000cc	8b e5		 mov	 esp, ebp
  000ce	5d		 pop	 ebp
  000cf	c2 04 00	 ret	 4
?Dump@?$CMap@GGPAUtagGameServerInfo@@PAU1@@@UBEXAAVCDumpContext@@@Z ENDP ; CMap<unsigned short,unsigned short,tagGameServerInfo *,tagGameServerInfo *>::Dump
_TEXT	ENDS
; Function compile flags: /Odtp /ZI
; File c:\program files (x86)\microsoft visual studio\2017\community\vc\tools\msvc\14.16.27023\atlmfc\include\afxtempl.h
;	COMDAT ?Serialize@?$CMap@GGPAUtagGameServerInfo@@PAU1@@@UAEXAAVCArchive@@@Z
_TEXT	SEGMENT
tv154 = -100						; size = 4
_newValue$1 = -32					; size = 4
_newKey$2 = -28						; size = 2
_nNewCount$3 = -24					; size = 4
_pValue$4 = -20						; size = 4
_pKey$5 = -16						; size = 4
_pAssoc$6 = -12						; size = 4
_nHash$7 = -8						; size = 4
_this$ = -4						; size = 4
_ar$ = 8						; size = 4
?Serialize@?$CMap@GGPAUtagGameServerInfo@@PAU1@@@UAEXAAVCArchive@@@Z PROC ; CMap<unsigned short,unsigned short,tagGameServerInfo *,tagGameServerInfo *>::Serialize, COMDAT
; _this$ = ecx

; 1743 : {

  00000	55		 push	 ebp
  00001	8b ec		 mov	 ebp, esp
  00003	83 ec 64	 sub	 esp, 100		; 00000064H
  00006	53		 push	 ebx
  00007	56		 push	 esi
  00008	57		 push	 edi
  00009	89 4d fc	 mov	 DWORD PTR _this$[ebp], ecx

; 1744 : 	ASSERT_VALID(this);

  0000c	68 d0 06 00 00	 push	 1744			; 000006d0H
  00011	68 00 00 00 00	 push	 OFFSET ??_C@_0HC@HBCNBCLF@c?3?2program?5files?5?$CIx86?$CJ?2microsof@
  00016	8b 45 fc	 mov	 eax, DWORD PTR _this$[ebp]
  00019	50		 push	 eax
  0001a	e8 00 00 00 00	 call	 ?AfxAssertValidObject@@YGXPBVCObject@@PBDH@Z ; AfxAssertValidObject

; 1745 : 
; 1746 : 	CObject::Serialize(ar);

  0001f	8b 45 08	 mov	 eax, DWORD PTR _ar$[ebp]
  00022	50		 push	 eax
  00023	8b 4d fc	 mov	 ecx, DWORD PTR _this$[ebp]
  00026	e8 00 00 00 00	 call	 ?Serialize@CObject@@UAEXAAVCArchive@@@Z ; CObject::Serialize

; 1747 : 
; 1748 : 	if (ar.IsStoring())

  0002b	8b 4d 08	 mov	 ecx, DWORD PTR _ar$[ebp]
  0002e	e8 00 00 00 00	 call	 ?IsStoring@CArchive@@QBEHXZ ; CArchive::IsStoring
  00033	85 c0		 test	 eax, eax
  00035	0f 84 b3 00 00
	00		 je	 $LN10@Serialize

; 1749 : 	{
; 1750 : 		ar.WriteCount(m_nCount);

  0003b	8b 45 fc	 mov	 eax, DWORD PTR _this$[ebp]
  0003e	8b 48 0c	 mov	 ecx, DWORD PTR [eax+12]
  00041	51		 push	 ecx
  00042	8b 4d 08	 mov	 ecx, DWORD PTR _ar$[ebp]
  00045	e8 00 00 00 00	 call	 ?WriteCount@CArchive@@QAEXK@Z ; CArchive::WriteCount

; 1751 : 		if (m_nCount == 0)

  0004a	8b 45 fc	 mov	 eax, DWORD PTR _this$[ebp]
  0004d	83 78 0c 00	 cmp	 DWORD PTR [eax+12], 0
  00051	75 05		 jne	 SHORT $LN12@Serialize

; 1752 : 			return;  // nothing more to do

  00053	e9 f9 00 00 00	 jmp	 $LN1@Serialize
$LN12@Serialize:

; 1753 : 
; 1754 : 		ASSERT(m_pHashTable != NULL);

  00058	8b 45 fc	 mov	 eax, DWORD PTR _this$[ebp]
  0005b	83 78 04 00	 cmp	 DWORD PTR [eax+4], 0
  0005f	75 14		 jne	 SHORT $LN15@Serialize
  00061	68 da 06 00 00	 push	 1754			; 000006daH
  00066	68 00 00 00 00	 push	 OFFSET ??_C@_0HC@HBCNBCLF@c?3?2program?5files?5?$CIx86?$CJ?2microsof@
  0006b	e8 00 00 00 00	 call	 ?AfxAssertFailedLine@@YGHPBDH@Z ; AfxAssertFailedLine
  00070	85 c0		 test	 eax, eax
  00072	74 01		 je	 SHORT $LN15@Serialize
  00074	cc		 int	 3
$LN15@Serialize:

; 1755 : 		if (m_pHashTable != NULL)

  00075	8b 45 fc	 mov	 eax, DWORD PTR _this$[ebp]
  00078	83 78 04 00	 cmp	 DWORD PTR [eax+4], 0
  0007c	74 6e		 je	 SHORT $LN13@Serialize

; 1756 : 		{
; 1757 : 			for (UINT nHash = 0; nHash < m_nHashTableSize; nHash++)

  0007e	c7 45 f8 00 00
	00 00		 mov	 DWORD PTR _nHash$7[ebp], 0
  00085	eb 09		 jmp	 SHORT $LN4@Serialize
$LN2@Serialize:
  00087	8b 45 f8	 mov	 eax, DWORD PTR _nHash$7[ebp]
  0008a	83 c0 01	 add	 eax, 1
  0008d	89 45 f8	 mov	 DWORD PTR _nHash$7[ebp], eax
$LN4@Serialize:
  00090	8b 45 fc	 mov	 eax, DWORD PTR _this$[ebp]
  00093	8b 4d f8	 mov	 ecx, DWORD PTR _nHash$7[ebp]
  00096	3b 48 08	 cmp	 ecx, DWORD PTR [eax+8]
  00099	73 51		 jae	 SHORT $LN13@Serialize

; 1758 : 			{
; 1759 : 				CAssoc* pAssoc;
; 1760 : 				for (pAssoc = m_pHashTable[nHash]; pAssoc != NULL; pAssoc = pAssoc->pNext)

  0009b	8b 45 fc	 mov	 eax, DWORD PTR _this$[ebp]
  0009e	8b 48 04	 mov	 ecx, DWORD PTR [eax+4]
  000a1	8b 55 f8	 mov	 edx, DWORD PTR _nHash$7[ebp]
  000a4	8b 04 91	 mov	 eax, DWORD PTR [ecx+edx*4]
  000a7	89 45 f4	 mov	 DWORD PTR _pAssoc$6[ebp], eax
  000aa	eb 09		 jmp	 SHORT $LN7@Serialize
$LN5@Serialize:
  000ac	8b 45 f4	 mov	 eax, DWORD PTR _pAssoc$6[ebp]
  000af	8b 48 08	 mov	 ecx, DWORD PTR [eax+8]
  000b2	89 4d f4	 mov	 DWORD PTR _pAssoc$6[ebp], ecx
$LN7@Serialize:
  000b5	83 7d f4 00	 cmp	 DWORD PTR _pAssoc$6[ebp], 0
  000b9	74 2f		 je	 SHORT $LN6@Serialize

; 1761 : 				{
; 1762 : 					KEY* pKey;
; 1763 : 					VALUE* pValue;
; 1764 : 					/*
; 1765 : 					* in some cases the & operator might be overloaded, and we cannot use it to
; 1766 : 					* obtain the address of a given object.  We then use the following trick to
; 1767 : 					* get the address
; 1768 : 					*/
; 1769 : 					pKey = reinterpret_cast< KEY* >( &reinterpret_cast< int& >( const_cast< KEY& > ( static_cast< const KEY& >( pAssoc->key ) ) ) );

  000bb	8b 45 f4	 mov	 eax, DWORD PTR _pAssoc$6[ebp]
  000be	89 45 f0	 mov	 DWORD PTR _pKey$5[ebp], eax

; 1770 : 					pValue = reinterpret_cast< VALUE* >( &reinterpret_cast< int& >( static_cast< VALUE& >( pAssoc->value ) ) );

  000c1	8b 45 f4	 mov	 eax, DWORD PTR _pAssoc$6[ebp]
  000c4	83 c0 04	 add	 eax, 4
  000c7	89 45 ec	 mov	 DWORD PTR _pValue$4[ebp], eax

; 1771 : 					SerializeElements<KEY>(ar, pKey, 1);

  000ca	6a 01		 push	 1
  000cc	8b 45 f0	 mov	 eax, DWORD PTR _pKey$5[ebp]
  000cf	50		 push	 eax
  000d0	8b 4d 08	 mov	 ecx, DWORD PTR _ar$[ebp]
  000d3	51		 push	 ecx
  000d4	e8 00 00 00 00	 call	 ??$SerializeElements@G@@YGXAAVCArchive@@PAGH@Z ; SerializeElements<unsigned short>

; 1772 : 					SerializeElements<VALUE>(ar, pValue, 1);

  000d9	6a 01		 push	 1
  000db	8b 45 ec	 mov	 eax, DWORD PTR _pValue$4[ebp]
  000de	50		 push	 eax
  000df	8b 4d 08	 mov	 ecx, DWORD PTR _ar$[ebp]
  000e2	51		 push	 ecx
  000e3	e8 00 00 00 00	 call	 ??$SerializeElements@PAUtagGameServerInfo@@@@YGXAAVCArchive@@PAPAUtagGameServerInfo@@H@Z ; SerializeElements<tagGameServerInfo *>

; 1773 : 				}

  000e8	eb c2		 jmp	 SHORT $LN5@Serialize
$LN6@Serialize:

; 1774 : 			}

  000ea	eb 9b		 jmp	 SHORT $LN2@Serialize
$LN13@Serialize:

; 1775 : 		}
; 1776 : 	}
; 1777 : 	else

  000ec	eb 63		 jmp	 SHORT $LN1@Serialize
$LN10@Serialize:

; 1778 : 	{
; 1779 : 		DWORD_PTR nNewCount = ar.ReadCount();

  000ee	8b 4d 08	 mov	 ecx, DWORD PTR _ar$[ebp]
  000f1	e8 00 00 00 00	 call	 ?ReadCount@CArchive@@QAEKXZ ; CArchive::ReadCount
  000f6	89 45 e8	 mov	 DWORD PTR _nNewCount$3[ebp], eax
$LN8@Serialize:

; 1780 : 		while (nNewCount--)

  000f9	8b 45 e8	 mov	 eax, DWORD PTR _nNewCount$3[ebp]
  000fc	89 45 9c	 mov	 DWORD PTR tv154[ebp], eax
  000ff	8b 4d e8	 mov	 ecx, DWORD PTR _nNewCount$3[ebp]
  00102	83 e9 01	 sub	 ecx, 1
  00105	89 4d e8	 mov	 DWORD PTR _nNewCount$3[ebp], ecx
  00108	83 7d 9c 00	 cmp	 DWORD PTR tv154[ebp], 0
  0010c	74 43		 je	 SHORT $LN1@Serialize

; 1781 : 		{
; 1782 : 			KEY newKey[1];
; 1783 : 			VALUE newValue[1];
; 1784 : 			SerializeElements<KEY>(ar, newKey, 1);

  0010e	6a 01		 push	 1
  00110	8d 45 e4	 lea	 eax, DWORD PTR _newKey$2[ebp]
  00113	50		 push	 eax
  00114	8b 4d 08	 mov	 ecx, DWORD PTR _ar$[ebp]
  00117	51		 push	 ecx
  00118	e8 00 00 00 00	 call	 ??$SerializeElements@G@@YGXAAVCArchive@@PAGH@Z ; SerializeElements<unsigned short>

; 1785 : 			SerializeElements<VALUE>(ar, newValue, 1);

  0011d	6a 01		 push	 1
  0011f	8d 45 e0	 lea	 eax, DWORD PTR _newValue$1[ebp]
  00122	50		 push	 eax
  00123	8b 4d 08	 mov	 ecx, DWORD PTR _ar$[ebp]
  00126	51		 push	 ecx
  00127	e8 00 00 00 00	 call	 ??$SerializeElements@PAUtagGameServerInfo@@@@YGXAAVCArchive@@PAPAUtagGameServerInfo@@H@Z ; SerializeElements<tagGameServerInfo *>

; 1786 : 			SetAt(newKey[0], newValue[0]);

  0012c	b8 04 00 00 00	 mov	 eax, 4
  00131	6b c8 00	 imul	 ecx, eax, 0
  00134	8b 54 0d e0	 mov	 edx, DWORD PTR _newValue$1[ebp+ecx]
  00138	52		 push	 edx
  00139	b8 02 00 00 00	 mov	 eax, 2
  0013e	6b c8 00	 imul	 ecx, eax, 0
  00141	0f b7 54 0d e4	 movzx	 edx, WORD PTR _newKey$2[ebp+ecx]
  00146	52		 push	 edx
  00147	8b 4d fc	 mov	 ecx, DWORD PTR _this$[ebp]
  0014a	e8 00 00 00 00	 call	 ?SetAt@?$CMap@GGPAUtagGameServerInfo@@PAU1@@@QAEXGPAUtagGameServerInfo@@@Z ; CMap<unsigned short,unsigned short,tagGameServerInfo *,tagGameServerInfo *>::SetAt

; 1787 : 		}

  0014f	eb a8		 jmp	 SHORT $LN8@Serialize
$LN1@Serialize:

; 1788 : 	}
; 1789 : }

  00151	5f		 pop	 edi
  00152	5e		 pop	 esi
  00153	5b		 pop	 ebx
  00154	8b e5		 mov	 esp, ebp
  00156	5d		 pop	 ebp
  00157	c2 04 00	 ret	 4
?Serialize@?$CMap@GGPAUtagGameServerInfo@@PAU1@@@UAEXAAVCArchive@@@Z ENDP ; CMap<unsigned short,unsigned short,tagGameServerInfo *,tagGameServerInfo *>::Serialize
_TEXT	ENDS
; Function compile flags: /Odtp /ZI
; File c:\program files (x86)\microsoft visual studio\2017\community\vc\tools\msvc\14.16.27023\atlmfc\include\afxtempl.h
;	COMDAT ??1?$CMap@GGPAUtagGameServerInfo@@PAU1@@@UAE@XZ
_TEXT	SEGMENT
_this$ = -16						; size = 4
__$EHRec$ = -12						; size = 12
??1?$CMap@GGPAUtagGameServerInfo@@PAU1@@@UAE@XZ PROC	; CMap<unsigned short,unsigned short,tagGameServerInfo *,tagGameServerInfo *>::~CMap<unsigned short,unsigned short,tagGameServerInfo *,tagGameServerInfo *>, COMDAT
; _this$ = ecx

; 1472 : {

  00000	55		 push	 ebp
  00001	8b ec		 mov	 ebp, esp
  00003	6a ff		 push	 -1
  00005	68 00 00 00 00	 push	 __ehhandler$??1?$CMap@GGPAUtagGameServerInfo@@PAU1@@@UAE@XZ
  0000a	64 a1 00 00 00
	00		 mov	 eax, DWORD PTR fs:0
  00010	50		 push	 eax
  00011	83 ec 44	 sub	 esp, 68			; 00000044H
  00014	53		 push	 ebx
  00015	56		 push	 esi
  00016	57		 push	 edi
  00017	a1 00 00 00 00	 mov	 eax, DWORD PTR ___security_cookie
  0001c	33 c5		 xor	 eax, ebp
  0001e	50		 push	 eax
  0001f	8d 45 f4	 lea	 eax, DWORD PTR __$EHRec$[ebp]
  00022	64 a3 00 00 00
	00		 mov	 DWORD PTR fs:0, eax
  00028	89 4d f0	 mov	 DWORD PTR _this$[ebp], ecx
  0002b	8b 45 f0	 mov	 eax, DWORD PTR _this$[ebp]
  0002e	c7 00 00 00 00
	00		 mov	 DWORD PTR [eax], OFFSET ??_7?$CMap@GGPAUtagGameServerInfo@@PAU1@@@6B@

; 1473 : 	RemoveAll();

  00034	8b 4d f0	 mov	 ecx, DWORD PTR _this$[ebp]
  00037	e8 00 00 00 00	 call	 ?RemoveAll@?$CMap@GGPAUtagGameServerInfo@@PAU1@@@QAEXXZ ; CMap<unsigned short,unsigned short,tagGameServerInfo *,tagGameServerInfo *>::RemoveAll

; 1474 : 	ASSERT(m_nCount == 0);

  0003c	8b 45 f0	 mov	 eax, DWORD PTR _this$[ebp]
  0003f	83 78 0c 00	 cmp	 DWORD PTR [eax+12], 0
  00043	74 14		 je	 SHORT $LN1@CMap
  00045	68 c2 05 00 00	 push	 1474			; 000005c2H
  0004a	68 00 00 00 00	 push	 OFFSET ??_C@_0HC@HBCNBCLF@c?3?2program?5files?5?$CIx86?$CJ?2microsof@
  0004f	e8 00 00 00 00	 call	 ?AfxAssertFailedLine@@YGHPBDH@Z ; AfxAssertFailedLine
  00054	85 c0		 test	 eax, eax
  00056	74 01		 je	 SHORT $LN1@CMap
  00058	cc		 int	 3
$LN1@CMap:

; 1475 : }

  00059	8b 4d f0	 mov	 ecx, DWORD PTR _this$[ebp]
  0005c	e8 00 00 00 00	 call	 ??1CObject@@UAE@XZ	; CObject::~CObject
  00061	8b 4d f4	 mov	 ecx, DWORD PTR __$EHRec$[ebp]
  00064	64 89 0d 00 00
	00 00		 mov	 DWORD PTR fs:0, ecx
  0006b	59		 pop	 ecx
  0006c	5f		 pop	 edi
  0006d	5e		 pop	 esi
  0006e	5b		 pop	 ebx
  0006f	8b e5		 mov	 esp, ebp
  00071	5d		 pop	 ebp
  00072	c3		 ret	 0
_TEXT	ENDS
;	COMDAT text$x
text$x	SEGMENT
__ehhandler$??1?$CMap@GGPAUtagGameServerInfo@@PAU1@@@UAE@XZ:
  00000	8b 54 24 08	 mov	 edx, DWORD PTR [esp+8]
  00004	8d 42 0c	 lea	 eax, DWORD PTR [edx+12]
  00007	8b 4a ac	 mov	 ecx, DWORD PTR [edx-84]
  0000a	33 c8		 xor	 ecx, eax
  0000c	e8 00 00 00 00	 call	 @__security_check_cookie@4
  00011	b8 00 00 00 00	 mov	 eax, OFFSET __ehfuncinfo$??1?$CMap@GGPAUtagGameServerInfo@@PAU1@@@UAE@XZ
  00016	e9 00 00 00 00	 jmp	 ___CxxFrameHandler3
text$x	ENDS
??1?$CMap@GGPAUtagGameServerInfo@@PAU1@@@UAE@XZ ENDP	; CMap<unsigned short,unsigned short,tagGameServerInfo *,tagGameServerInfo *>::~CMap<unsigned short,unsigned short,tagGameServerInfo *,tagGameServerInfo *>
; Function compile flags: /Odtp /ZI
; File c:\program files (x86)\microsoft visual studio\2017\community\vc\tools\msvc\14.16.27023\atlmfc\include\afxtempl.h
;	COMDAT ?GetAssocAt@?$CMap@GGPAUtagGameServerInfo@@PAU1@@@IBEPAVCAssoc@1@GAAI0@Z
_TEXT	SEGMENT
_pAssoc$ = -8						; size = 4
_this$ = -4						; size = 4
_key$ = 8						; size = 2
_nHashBucket$ = 12					; size = 4
_nHashValue$ = 16					; size = 4
?GetAssocAt@?$CMap@GGPAUtagGameServerInfo@@PAU1@@@IBEPAVCAssoc@1@GAAI0@Z PROC ; CMap<unsigned short,unsigned short,tagGameServerInfo *,tagGameServerInfo *>::GetAssocAt, COMDAT
; _this$ = ecx

; 1532 : {

  00000	55		 push	 ebp
  00001	8b ec		 mov	 ebp, esp
  00003	83 ec 48	 sub	 esp, 72			; 00000048H
  00006	53		 push	 ebx
  00007	56		 push	 esi
  00008	57		 push	 edi
  00009	89 4d fc	 mov	 DWORD PTR _this$[ebp], ecx

; 1533 : 	nHashValue = HashKey<ARG_KEY>(key);

  0000c	0f b7 45 08	 movzx	 eax, WORD PTR _key$[ebp]
  00010	50		 push	 eax
  00011	e8 00 00 00 00	 call	 ??$HashKey@G@@YGIG@Z	; HashKey<unsigned short>
  00016	8b 4d 10	 mov	 ecx, DWORD PTR _nHashValue$[ebp]
  00019	89 01		 mov	 DWORD PTR [ecx], eax

; 1534 : 	nHashBucket = nHashValue % m_nHashTableSize;

  0001b	8b 45 10	 mov	 eax, DWORD PTR _nHashValue$[ebp]
  0001e	8b 4d fc	 mov	 ecx, DWORD PTR _this$[ebp]
  00021	8b 00		 mov	 eax, DWORD PTR [eax]
  00023	33 d2		 xor	 edx, edx
  00025	f7 71 08	 div	 DWORD PTR [ecx+8]
  00028	8b 45 0c	 mov	 eax, DWORD PTR _nHashBucket$[ebp]
  0002b	89 10		 mov	 DWORD PTR [eax], edx

; 1535 : 
; 1536 : 	if (m_pHashTable == NULL)

  0002d	8b 45 fc	 mov	 eax, DWORD PTR _this$[ebp]
  00030	83 78 04 00	 cmp	 DWORD PTR [eax+4], 0
  00034	75 04		 jne	 SHORT $LN5@GetAssocAt

; 1537 : 		return NULL;

  00036	33 c0		 xor	 eax, eax
  00038	eb 49		 jmp	 SHORT $LN1@GetAssocAt
$LN5@GetAssocAt:

; 1538 : 
; 1539 : 	// see if it exists
; 1540 : 	CAssoc* pAssoc;
; 1541 : 	for (pAssoc = m_pHashTable[nHashBucket]; pAssoc != NULL; pAssoc = pAssoc->pNext)

  0003a	8b 45 0c	 mov	 eax, DWORD PTR _nHashBucket$[ebp]
  0003d	8b 08		 mov	 ecx, DWORD PTR [eax]
  0003f	8b 55 fc	 mov	 edx, DWORD PTR _this$[ebp]
  00042	8b 42 04	 mov	 eax, DWORD PTR [edx+4]
  00045	8b 0c 88	 mov	 ecx, DWORD PTR [eax+ecx*4]
  00048	89 4d f8	 mov	 DWORD PTR _pAssoc$[ebp], ecx
  0004b	eb 09		 jmp	 SHORT $LN4@GetAssocAt
$LN2@GetAssocAt:
  0004d	8b 45 f8	 mov	 eax, DWORD PTR _pAssoc$[ebp]
  00050	8b 48 08	 mov	 ecx, DWORD PTR [eax+8]
  00053	89 4d f8	 mov	 DWORD PTR _pAssoc$[ebp], ecx
$LN4@GetAssocAt:
  00056	83 7d f8 00	 cmp	 DWORD PTR _pAssoc$[ebp], 0
  0005a	74 25		 je	 SHORT $LN3@GetAssocAt

; 1542 : 	{
; 1543 : 		if (pAssoc->nHashValue == nHashValue && CompareElements(&pAssoc->key, &key))

  0005c	8b 45 f8	 mov	 eax, DWORD PTR _pAssoc$[ebp]
  0005f	8b 4d 10	 mov	 ecx, DWORD PTR _nHashValue$[ebp]
  00062	8b 50 0c	 mov	 edx, DWORD PTR [eax+12]
  00065	3b 11		 cmp	 edx, DWORD PTR [ecx]
  00067	75 16		 jne	 SHORT $LN6@GetAssocAt
  00069	8d 45 08	 lea	 eax, DWORD PTR _key$[ebp]
  0006c	50		 push	 eax
  0006d	8b 4d f8	 mov	 ecx, DWORD PTR _pAssoc$[ebp]
  00070	51		 push	 ecx
  00071	e8 00 00 00 00	 call	 ??$CompareElements@GG@@YGHPBG0@Z ; CompareElements<unsigned short,unsigned short>
  00076	85 c0		 test	 eax, eax
  00078	74 05		 je	 SHORT $LN6@GetAssocAt

; 1544 : 			return pAssoc;

  0007a	8b 45 f8	 mov	 eax, DWORD PTR _pAssoc$[ebp]
  0007d	eb 04		 jmp	 SHORT $LN1@GetAssocAt
$LN6@GetAssocAt:

; 1545 : 	}

  0007f	eb cc		 jmp	 SHORT $LN2@GetAssocAt
$LN3@GetAssocAt:

; 1546 : 	return NULL;

  00081	33 c0		 xor	 eax, eax
$LN1@GetAssocAt:

; 1547 : }

  00083	5f		 pop	 edi
  00084	5e		 pop	 esi
  00085	5b		 pop	 ebx
  00086	8b e5		 mov	 esp, ebp
  00088	5d		 pop	 ebp
  00089	c2 0c 00	 ret	 12			; 0000000cH
?GetAssocAt@?$CMap@GGPAUtagGameServerInfo@@PAU1@@@IBEPAVCAssoc@1@GAAI0@Z ENDP ; CMap<unsigned short,unsigned short,tagGameServerInfo *,tagGameServerInfo *>::GetAssocAt
_TEXT	ENDS
; Function compile flags: /Odtp /ZI
; File c:\program files (x86)\microsoft visual studio\2017\community\vc\tools\msvc\14.16.27023\atlmfc\include\afxtempl.h
;	COMDAT ?FreeAssoc@?$CMap@GGPAUtagGameServerInfo@@PAU1@@@IAEXPAVCAssoc@1@@Z
_TEXT	SEGMENT
_this$ = -4						; size = 4
_pAssoc$ = 8						; size = 4
?FreeAssoc@?$CMap@GGPAUtagGameServerInfo@@PAU1@@@IAEXPAVCAssoc@1@@Z PROC ; CMap<unsigned short,unsigned short,tagGameServerInfo *,tagGameServerInfo *>::FreeAssoc, COMDAT
; _this$ = ecx

; 1516 : {

  00000	55		 push	 ebp
  00001	8b ec		 mov	 ebp, esp
  00003	83 ec 44	 sub	 esp, 68			; 00000044H
  00006	53		 push	 ebx
  00007	56		 push	 esi
  00008	57		 push	 edi
  00009	89 4d fc	 mov	 DWORD PTR _this$[ebp], ecx

; 1517 : 	pAssoc->CAssoc::~CAssoc();
; 1518 : 	pAssoc->pNext = m_pFreeList;

  0000c	8b 45 08	 mov	 eax, DWORD PTR _pAssoc$[ebp]
  0000f	8b 4d fc	 mov	 ecx, DWORD PTR _this$[ebp]
  00012	8b 51 10	 mov	 edx, DWORD PTR [ecx+16]
  00015	89 50 08	 mov	 DWORD PTR [eax+8], edx

; 1519 : 	m_pFreeList = pAssoc;

  00018	8b 45 fc	 mov	 eax, DWORD PTR _this$[ebp]
  0001b	8b 4d 08	 mov	 ecx, DWORD PTR _pAssoc$[ebp]
  0001e	89 48 10	 mov	 DWORD PTR [eax+16], ecx

; 1520 : 	m_nCount--;

  00021	8b 45 fc	 mov	 eax, DWORD PTR _this$[ebp]
  00024	8b 48 0c	 mov	 ecx, DWORD PTR [eax+12]
  00027	83 e9 01	 sub	 ecx, 1
  0002a	8b 55 fc	 mov	 edx, DWORD PTR _this$[ebp]
  0002d	89 4a 0c	 mov	 DWORD PTR [edx+12], ecx

; 1521 : 	ASSERT(m_nCount >= 0);  // make sure we don't underflow

  00030	8b 45 fc	 mov	 eax, DWORD PTR _this$[ebp]
  00033	83 78 0c 00	 cmp	 DWORD PTR [eax+12], 0
  00037	7d 14		 jge	 SHORT $LN4@FreeAssoc
  00039	68 f1 05 00 00	 push	 1521			; 000005f1H
  0003e	68 00 00 00 00	 push	 OFFSET ??_C@_0HC@HBCNBCLF@c?3?2program?5files?5?$CIx86?$CJ?2microsof@
  00043	e8 00 00 00 00	 call	 ?AfxAssertFailedLine@@YGHPBDH@Z ; AfxAssertFailedLine
  00048	85 c0		 test	 eax, eax
  0004a	74 01		 je	 SHORT $LN4@FreeAssoc
  0004c	cc		 int	 3
$LN4@FreeAssoc:

; 1522 : 
; 1523 : 	// if no more elements, cleanup completely
; 1524 : 	if (m_nCount == 0)

  0004d	8b 45 fc	 mov	 eax, DWORD PTR _this$[ebp]
  00050	83 78 0c 00	 cmp	 DWORD PTR [eax+12], 0
  00054	75 08		 jne	 SHORT $LN1@FreeAssoc

; 1525 : 		RemoveAll();

  00056	8b 4d fc	 mov	 ecx, DWORD PTR _this$[ebp]
  00059	e8 00 00 00 00	 call	 ?RemoveAll@?$CMap@GGPAUtagGameServerInfo@@PAU1@@@QAEXXZ ; CMap<unsigned short,unsigned short,tagGameServerInfo *,tagGameServerInfo *>::RemoveAll
$LN1@FreeAssoc:

; 1526 : }

  0005e	5f		 pop	 edi
  0005f	5e		 pop	 esi
  00060	5b		 pop	 ebx
  00061	8b e5		 mov	 esp, ebp
  00063	5d		 pop	 ebp
  00064	c2 04 00	 ret	 4
?FreeAssoc@?$CMap@GGPAUtagGameServerInfo@@PAU1@@@IAEXPAVCAssoc@1@@Z ENDP ; CMap<unsigned short,unsigned short,tagGameServerInfo *,tagGameServerInfo *>::FreeAssoc
_TEXT	ENDS
; Function compile flags: /Odtp /ZI
; File c:\program files (x86)\microsoft visual studio\2017\community\vc\tools\msvc\14.16.27023\atlmfc\include\afxtempl.h
;	COMDAT ?NewAssoc@?$CMap@GGPAUtagGameServerInfo@@PAU1@@@IAEPAVCAssoc@1@G@Z
_TEXT	SEGMENT
tv88 = -100						; size = 4
$T1 = -96						; size = 4
_pTemp$ = -28						; size = 4
_pAssoc$ = -24						; size = 4
___afx_condVal$2 = -20					; size = 4
_i$3 = -16						; size = 4
_pAssoc$4 = -12						; size = 4
_newBlock$5 = -8					; size = 4
_this$ = -4						; size = 4
_key$ = 8						; size = 2
?NewAssoc@?$CMap@GGPAUtagGameServerInfo@@PAU1@@@IAEPAVCAssoc@1@G@Z PROC ; CMap<unsigned short,unsigned short,tagGameServerInfo *,tagGameServerInfo *>::NewAssoc, COMDAT
; _this$ = ecx

; 1480 : {

  00000	55		 push	 ebp
  00001	8b ec		 mov	 ebp, esp
  00003	83 ec 64	 sub	 esp, 100		; 00000064H
  00006	53		 push	 ebx
  00007	56		 push	 esi
  00008	57		 push	 edi
  00009	89 4d fc	 mov	 DWORD PTR _this$[ebp], ecx

; 1481 : 	if (m_pFreeList == NULL)

  0000c	8b 45 fc	 mov	 eax, DWORD PTR _this$[ebp]
  0000f	83 78 10 00	 cmp	 DWORD PTR [eax+16], 0
  00013	75 72		 jne	 SHORT $LN7@NewAssoc

; 1482 : 	{
; 1483 : 		// add another block
; 1484 : 		CPlex* newBlock = CPlex::Create(m_pBlocks, m_nBlockSize, sizeof(CMap::CAssoc));

  00015	6a 10		 push	 16			; 00000010H
  00017	8b 45 fc	 mov	 eax, DWORD PTR _this$[ebp]
  0001a	8b 48 18	 mov	 ecx, DWORD PTR [eax+24]
  0001d	51		 push	 ecx
  0001e	8b 55 fc	 mov	 edx, DWORD PTR _this$[ebp]
  00021	83 c2 14	 add	 edx, 20			; 00000014H
  00024	52		 push	 edx
  00025	e8 00 00 00 00	 call	 ?Create@CPlex@@SGPAU1@AAPAU1@II@Z ; CPlex::Create
  0002a	89 45 f8	 mov	 DWORD PTR _newBlock$5[ebp], eax

; 1485 : 		// chain them into free list
; 1486 : 		CMap::CAssoc* pAssoc = (CMap::CAssoc*) newBlock->data();

  0002d	8b 4d f8	 mov	 ecx, DWORD PTR _newBlock$5[ebp]
  00030	e8 00 00 00 00	 call	 ?data@CPlex@@QAEPAXXZ	; CPlex::data
  00035	89 45 f4	 mov	 DWORD PTR _pAssoc$4[ebp], eax

; 1487 : 		// free in reverse order to make it easier to debug
; 1488 : 		pAssoc += m_nBlockSize - 1;

  00038	8b 45 fc	 mov	 eax, DWORD PTR _this$[ebp]
  0003b	8b 48 18	 mov	 ecx, DWORD PTR [eax+24]
  0003e	83 e9 01	 sub	 ecx, 1
  00041	c1 e1 04	 shl	 ecx, 4
  00044	03 4d f4	 add	 ecx, DWORD PTR _pAssoc$4[ebp]
  00047	89 4d f4	 mov	 DWORD PTR _pAssoc$4[ebp], ecx

; 1489 : 		for (INT_PTR i = m_nBlockSize-1; i >= 0; i--, pAssoc--)

  0004a	8b 45 fc	 mov	 eax, DWORD PTR _this$[ebp]
  0004d	8b 48 18	 mov	 ecx, DWORD PTR [eax+24]
  00050	83 e9 01	 sub	 ecx, 1
  00053	89 4d f0	 mov	 DWORD PTR _i$3[ebp], ecx
  00056	eb 12		 jmp	 SHORT $LN4@NewAssoc
$LN2@NewAssoc:
  00058	8b 45 f0	 mov	 eax, DWORD PTR _i$3[ebp]
  0005b	83 e8 01	 sub	 eax, 1
  0005e	89 45 f0	 mov	 DWORD PTR _i$3[ebp], eax
  00061	8b 4d f4	 mov	 ecx, DWORD PTR _pAssoc$4[ebp]
  00064	83 e9 10	 sub	 ecx, 16			; 00000010H
  00067	89 4d f4	 mov	 DWORD PTR _pAssoc$4[ebp], ecx
$LN4@NewAssoc:
  0006a	83 7d f0 00	 cmp	 DWORD PTR _i$3[ebp], 0
  0006e	7c 17		 jl	 SHORT $LN7@NewAssoc

; 1490 : 		{
; 1491 : 			pAssoc->pNext = m_pFreeList;

  00070	8b 45 f4	 mov	 eax, DWORD PTR _pAssoc$4[ebp]
  00073	8b 4d fc	 mov	 ecx, DWORD PTR _this$[ebp]
  00076	8b 51 10	 mov	 edx, DWORD PTR [ecx+16]
  00079	89 50 08	 mov	 DWORD PTR [eax+8], edx

; 1492 : 			m_pFreeList = pAssoc;

  0007c	8b 45 fc	 mov	 eax, DWORD PTR _this$[ebp]
  0007f	8b 4d f4	 mov	 ecx, DWORD PTR _pAssoc$4[ebp]
  00082	89 48 10	 mov	 DWORD PTR [eax+16], ecx

; 1493 : 		}

  00085	eb d1		 jmp	 SHORT $LN2@NewAssoc
$LN7@NewAssoc:

; 1494 : 	}
; 1495 : 	ENSURE(m_pFreeList != NULL);  // we must have something

  00087	8b 45 fc	 mov	 eax, DWORD PTR _this$[ebp]
  0008a	83 78 10 00	 cmp	 DWORD PTR [eax+16], 0
  0008e	74 09		 je	 SHORT $LN11@NewAssoc
  00090	c7 45 9c 01 00
	00 00		 mov	 DWORD PTR tv88[ebp], 1
  00097	eb 07		 jmp	 SHORT $LN12@NewAssoc
$LN11@NewAssoc:
  00099	c7 45 9c 00 00
	00 00		 mov	 DWORD PTR tv88[ebp], 0
$LN12@NewAssoc:
  000a0	8b 4d 9c	 mov	 ecx, DWORD PTR tv88[ebp]
  000a3	89 4d ec	 mov	 DWORD PTR ___afx_condVal$2[ebp], ecx
  000a6	83 7d ec 00	 cmp	 DWORD PTR ___afx_condVal$2[ebp], 0
  000aa	75 14		 jne	 SHORT $LN13@NewAssoc
  000ac	68 d7 05 00 00	 push	 1495			; 000005d7H
  000b1	68 00 00 00 00	 push	 OFFSET ??_C@_0HC@HBCNBCLF@c?3?2program?5files?5?$CIx86?$CJ?2microsof@
  000b6	e8 00 00 00 00	 call	 ?AfxAssertFailedLine@@YGHPBDH@Z ; AfxAssertFailedLine
  000bb	85 c0		 test	 eax, eax
  000bd	74 01		 je	 SHORT $LN13@NewAssoc
  000bf	cc		 int	 3
$LN13@NewAssoc:
  000c0	83 7d ec 00	 cmp	 DWORD PTR ___afx_condVal$2[ebp], 0
  000c4	75 05		 jne	 SHORT $LN5@NewAssoc
  000c6	e8 00 00 00 00	 call	 ?AfxThrowInvalidArgException@@YGXXZ ; AfxThrowInvalidArgException
$LN5@NewAssoc:
  000cb	33 c0		 xor	 eax, eax
  000cd	75 b8		 jne	 SHORT $LN7@NewAssoc

; 1496 : 
; 1497 : 	CMap::CAssoc* pAssoc = m_pFreeList;

  000cf	8b 45 fc	 mov	 eax, DWORD PTR _this$[ebp]
  000d2	8b 48 10	 mov	 ecx, DWORD PTR [eax+16]
  000d5	89 4d e8	 mov	 DWORD PTR _pAssoc$[ebp], ecx

; 1498 : 
; 1499 : 	// zero the memory
; 1500 : 	CMap::CAssoc* pTemp = pAssoc->pNext;

  000d8	8b 45 e8	 mov	 eax, DWORD PTR _pAssoc$[ebp]
  000db	8b 48 08	 mov	 ecx, DWORD PTR [eax+8]
  000de	89 4d e4	 mov	 DWORD PTR _pTemp$[ebp], ecx

; 1501 : 	memset( pAssoc, 0, sizeof(CMap::CAssoc) );

  000e1	6a 10		 push	 16			; 00000010H
  000e3	6a 00		 push	 0
  000e5	8b 45 e8	 mov	 eax, DWORD PTR _pAssoc$[ebp]
  000e8	50		 push	 eax
  000e9	e8 00 00 00 00	 call	 _memset
  000ee	83 c4 0c	 add	 esp, 12			; 0000000cH

; 1502 : 	pAssoc->pNext = pTemp;

  000f1	8b 45 e8	 mov	 eax, DWORD PTR _pAssoc$[ebp]
  000f4	8b 4d e4	 mov	 ecx, DWORD PTR _pTemp$[ebp]
  000f7	89 48 08	 mov	 DWORD PTR [eax+8], ecx

; 1503 : 
; 1504 : 	m_pFreeList = m_pFreeList->pNext;

  000fa	8b 45 fc	 mov	 eax, DWORD PTR _this$[ebp]
  000fd	8b 48 10	 mov	 ecx, DWORD PTR [eax+16]
  00100	8b 55 fc	 mov	 edx, DWORD PTR _this$[ebp]
  00103	8b 41 08	 mov	 eax, DWORD PTR [ecx+8]
  00106	89 42 10	 mov	 DWORD PTR [edx+16], eax

; 1505 : 	m_nCount++;

  00109	8b 45 fc	 mov	 eax, DWORD PTR _this$[ebp]
  0010c	8b 48 0c	 mov	 ecx, DWORD PTR [eax+12]
  0010f	83 c1 01	 add	 ecx, 1
  00112	8b 55 fc	 mov	 edx, DWORD PTR _this$[ebp]
  00115	89 4a 0c	 mov	 DWORD PTR [edx+12], ecx

; 1506 : 	ASSERT(m_nCount > 0);  // make sure we don't overflow

  00118	8b 45 fc	 mov	 eax, DWORD PTR _this$[ebp]
  0011b	83 78 0c 00	 cmp	 DWORD PTR [eax+12], 0
  0011f	7f 14		 jg	 SHORT $LN14@NewAssoc
  00121	68 e2 05 00 00	 push	 1506			; 000005e2H
  00126	68 00 00 00 00	 push	 OFFSET ??_C@_0HC@HBCNBCLF@c?3?2program?5files?5?$CIx86?$CJ?2microsof@
  0012b	e8 00 00 00 00	 call	 ?AfxAssertFailedLine@@YGHPBDH@Z ; AfxAssertFailedLine
  00130	85 c0		 test	 eax, eax
  00132	74 01		 je	 SHORT $LN14@NewAssoc
  00134	cc		 int	 3
$LN14@NewAssoc:

; 1507 : #pragma push_macro("new")
; 1508 : #undef new
; 1509 : 	::new(pAssoc) CMap::CAssoc(key);

  00135	8b 45 e8	 mov	 eax, DWORD PTR _pAssoc$[ebp]
  00138	50		 push	 eax
  00139	6a 10		 push	 16			; 00000010H
  0013b	e8 00 00 00 00	 call	 ??2@YAPAXIPAX@Z		; operator new
  00140	83 c4 08	 add	 esp, 8
  00143	89 45 a0	 mov	 DWORD PTR $T1[ebp], eax
  00146	0f b7 4d 08	 movzx	 ecx, WORD PTR _key$[ebp]
  0014a	51		 push	 ecx
  0014b	8b 4d a0	 mov	 ecx, DWORD PTR $T1[ebp]
  0014e	e8 00 00 00 00	 call	 ??0CAssoc@?$CMap@GGPAUtagGameServerInfo@@PAU1@@@QAE@G@Z ; CMap<unsigned short,unsigned short,tagGameServerInfo *,tagGameServerInfo *>::CAssoc::CAssoc

; 1510 : #pragma pop_macro("new")
; 1511 : 	return pAssoc;

  00153	8b 45 e8	 mov	 eax, DWORD PTR _pAssoc$[ebp]
$LN10@NewAssoc:

; 1512 : }

  00156	5f		 pop	 edi
  00157	5e		 pop	 esi
  00158	5b		 pop	 ebx
  00159	8b e5		 mov	 esp, ebp
  0015b	5d		 pop	 ebp
  0015c	c2 04 00	 ret	 4
?NewAssoc@?$CMap@GGPAUtagGameServerInfo@@PAU1@@@IAEPAVCAssoc@1@G@Z ENDP ; CMap<unsigned short,unsigned short,tagGameServerInfo *,tagGameServerInfo *>::NewAssoc
_TEXT	ENDS
; Function compile flags: /Odtp /ZI
; File c:\program files (x86)\microsoft visual studio\2017\community\vc\tools\msvc\14.16.27023\atlmfc\include\afxtempl.h
;	COMDAT ?InitHashTable@?$CMap@GGPAUtagGameServerInfo@@PAU1@@@QAEXIH@Z
_TEXT	SEGMENT
tv137 = -84						; size = 4
$T1 = -80						; size = 4
$T2 = -76						; size = 4
___afx_condVal$3 = -8					; size = 4
_this$ = -4						; size = 4
_nHashSize$ = 8						; size = 4
_bAllocNow$ = 12					; size = 4
?InitHashTable@?$CMap@GGPAUtagGameServerInfo@@PAU1@@@QAEXIH@Z PROC ; CMap<unsigned short,unsigned short,tagGameServerInfo *,tagGameServerInfo *>::InitHashTable, COMDAT
; _this$ = ecx

; 1420 : {

  00000	55		 push	 ebp
  00001	8b ec		 mov	 ebp, esp
  00003	83 ec 54	 sub	 esp, 84			; 00000054H
  00006	53		 push	 ebx
  00007	56		 push	 esi
  00008	57		 push	 edi
  00009	89 4d fc	 mov	 DWORD PTR _this$[ebp], ecx

; 1421 : 	ASSERT_VALID(this);

  0000c	68 8d 05 00 00	 push	 1421			; 0000058dH
  00011	68 00 00 00 00	 push	 OFFSET ??_C@_0HC@HBCNBCLF@c?3?2program?5files?5?$CIx86?$CJ?2microsof@
  00016	8b 45 fc	 mov	 eax, DWORD PTR _this$[ebp]
  00019	50		 push	 eax
  0001a	e8 00 00 00 00	 call	 ?AfxAssertValidObject@@YGXPBVCObject@@PBDH@Z ; AfxAssertValidObject

; 1422 : 	ASSERT(m_nCount == 0);

  0001f	8b 45 fc	 mov	 eax, DWORD PTR _this$[ebp]
  00022	83 78 0c 00	 cmp	 DWORD PTR [eax+12], 0
  00026	74 14		 je	 SHORT $LN9@InitHashTa
  00028	68 8e 05 00 00	 push	 1422			; 0000058eH
  0002d	68 00 00 00 00	 push	 OFFSET ??_C@_0HC@HBCNBCLF@c?3?2program?5files?5?$CIx86?$CJ?2microsof@
  00032	e8 00 00 00 00	 call	 ?AfxAssertFailedLine@@YGHPBDH@Z ; AfxAssertFailedLine
  00037	85 c0		 test	 eax, eax
  00039	74 01		 je	 SHORT $LN9@InitHashTa
  0003b	cc		 int	 3
$LN9@InitHashTa:

; 1423 : 	ASSERT(nHashSize > 0);

  0003c	83 7d 08 00	 cmp	 DWORD PTR _nHashSize$[ebp], 0
  00040	77 14		 ja	 SHORT $LN10@InitHashTa
  00042	68 8f 05 00 00	 push	 1423			; 0000058fH
  00047	68 00 00 00 00	 push	 OFFSET ??_C@_0HC@HBCNBCLF@c?3?2program?5files?5?$CIx86?$CJ?2microsof@
  0004c	e8 00 00 00 00	 call	 ?AfxAssertFailedLine@@YGHPBDH@Z ; AfxAssertFailedLine
  00051	85 c0		 test	 eax, eax
  00053	74 01		 je	 SHORT $LN10@InitHashTa
  00055	cc		 int	 3
$LN10@InitHashTa:

; 1424 : 
; 1425 : 	if (m_pHashTable != NULL)

  00056	8b 45 fc	 mov	 eax, DWORD PTR _this$[ebp]
  00059	83 78 04 00	 cmp	 DWORD PTR [eax+4], 0
  0005d	74 1f		 je	 SHORT $LN5@InitHashTa

; 1426 : 	{
; 1427 : 		// free hash table
; 1428 : 		delete[] m_pHashTable;

  0005f	8b 45 fc	 mov	 eax, DWORD PTR _this$[ebp]
  00062	8b 48 04	 mov	 ecx, DWORD PTR [eax+4]
  00065	89 4d b4	 mov	 DWORD PTR $T2[ebp], ecx
  00068	8b 55 b4	 mov	 edx, DWORD PTR $T2[ebp]
  0006b	52		 push	 edx
  0006c	e8 00 00 00 00	 call	 ??_V@YAXPAX@Z		; operator delete[]
  00071	83 c4 04	 add	 esp, 4

; 1429 : 		m_pHashTable = NULL;

  00074	8b 45 fc	 mov	 eax, DWORD PTR _this$[ebp]
  00077	c7 40 04 00 00
	00 00		 mov	 DWORD PTR [eax+4], 0
$LN5@InitHashTa:

; 1430 : 	}
; 1431 : 
; 1432 : 	if (bAllocNow)

  0007e	83 7d 0c 00	 cmp	 DWORD PTR _bAllocNow$[ebp], 0
  00082	0f 84 92 00 00
	00		 je	 $LN6@InitHashTa

; 1433 : 	{
; 1434 : 		m_pHashTable = new CAssoc* [nHashSize];

  00088	68 9a 05 00 00	 push	 1434			; 0000059aH
  0008d	68 00 00 00 00	 push	 OFFSET ??_C@_0HC@HBCNBCLF@c?3?2program?5files?5?$CIx86?$CJ?2microsof@
  00092	33 c9		 xor	 ecx, ecx
  00094	8b 45 08	 mov	 eax, DWORD PTR _nHashSize$[ebp]
  00097	ba 04 00 00 00	 mov	 edx, 4
  0009c	f7 e2		 mul	 edx
  0009e	0f 90 c1	 seto	 cl
  000a1	f7 d9		 neg	 ecx
  000a3	0b c8		 or	 ecx, eax
  000a5	51		 push	 ecx
  000a6	e8 00 00 00 00	 call	 ??_U@YAPAXIPBDH@Z	; operator new[]
  000ab	83 c4 0c	 add	 esp, 12			; 0000000cH
  000ae	89 45 b0	 mov	 DWORD PTR $T1[ebp], eax
  000b1	8b 45 fc	 mov	 eax, DWORD PTR _this$[ebp]
  000b4	8b 4d b0	 mov	 ecx, DWORD PTR $T1[ebp]
  000b7	89 48 04	 mov	 DWORD PTR [eax+4], ecx
$LN4@InitHashTa:

; 1435 : 		ENSURE(m_pHashTable != NULL);

  000ba	8b 45 fc	 mov	 eax, DWORD PTR _this$[ebp]
  000bd	83 78 04 00	 cmp	 DWORD PTR [eax+4], 0
  000c1	74 09		 je	 SHORT $LN11@InitHashTa
  000c3	c7 45 ac 01 00
	00 00		 mov	 DWORD PTR tv137[ebp], 1
  000ca	eb 07		 jmp	 SHORT $LN12@InitHashTa
$LN11@InitHashTa:
  000cc	c7 45 ac 00 00
	00 00		 mov	 DWORD PTR tv137[ebp], 0
$LN12@InitHashTa:
  000d3	8b 4d ac	 mov	 ecx, DWORD PTR tv137[ebp]
  000d6	89 4d f8	 mov	 DWORD PTR ___afx_condVal$3[ebp], ecx
  000d9	83 7d f8 00	 cmp	 DWORD PTR ___afx_condVal$3[ebp], 0
  000dd	75 14		 jne	 SHORT $LN13@InitHashTa
  000df	68 9b 05 00 00	 push	 1435			; 0000059bH
  000e4	68 00 00 00 00	 push	 OFFSET ??_C@_0HC@HBCNBCLF@c?3?2program?5files?5?$CIx86?$CJ?2microsof@
  000e9	e8 00 00 00 00	 call	 ?AfxAssertFailedLine@@YGHPBDH@Z ; AfxAssertFailedLine
  000ee	85 c0		 test	 eax, eax
  000f0	74 01		 je	 SHORT $LN13@InitHashTa
  000f2	cc		 int	 3
$LN13@InitHashTa:
  000f3	83 7d f8 00	 cmp	 DWORD PTR ___afx_condVal$3[ebp], 0
  000f7	75 05		 jne	 SHORT $LN2@InitHashTa
  000f9	e8 00 00 00 00	 call	 ?AfxThrowInvalidArgException@@YGXXZ ; AfxThrowInvalidArgException
$LN2@InitHashTa:
  000fe	33 c0		 xor	 eax, eax
  00100	75 b8		 jne	 SHORT $LN4@InitHashTa

; 1436 : 		memset(m_pHashTable, 0, sizeof(CAssoc*) * nHashSize);

  00102	8b 45 08	 mov	 eax, DWORD PTR _nHashSize$[ebp]
  00105	c1 e0 02	 shl	 eax, 2
  00108	50		 push	 eax
  00109	6a 00		 push	 0
  0010b	8b 4d fc	 mov	 ecx, DWORD PTR _this$[ebp]
  0010e	8b 51 04	 mov	 edx, DWORD PTR [ecx+4]
  00111	52		 push	 edx
  00112	e8 00 00 00 00	 call	 _memset
  00117	83 c4 0c	 add	 esp, 12			; 0000000cH
$LN6@InitHashTa:

; 1437 : 	}
; 1438 : 	m_nHashTableSize = nHashSize;

  0011a	8b 45 fc	 mov	 eax, DWORD PTR _this$[ebp]
  0011d	8b 4d 08	 mov	 ecx, DWORD PTR _nHashSize$[ebp]
  00120	89 48 08	 mov	 DWORD PTR [eax+8], ecx
$LN8@InitHashTa:

; 1439 : }

  00123	5f		 pop	 edi
  00124	5e		 pop	 esi
  00125	5b		 pop	 ebx
  00126	8b e5		 mov	 esp, ebp
  00128	5d		 pop	 ebp
  00129	c2 08 00	 ret	 8
?InitHashTable@?$CMap@GGPAUtagGameServerInfo@@PAU1@@@QAEXIH@Z ENDP ; CMap<unsigned short,unsigned short,tagGameServerInfo *,tagGameServerInfo *>::InitHashTable
_TEXT	ENDS
; Function compile flags: /Odtp /ZI
; File c:\program files (x86)\microsoft visual studio\2017\community\vc\tools\msvc\14.16.27023\atlmfc\include\afxtempl.h
;	COMDAT ?GetNextAssoc@?$CMap@GGPAUtagGameServerInfo@@PAU1@@@QBEXAAPAU__POSITION@@AAGAAPAUtagGameServerInfo@@@Z
_TEXT	SEGMENT
tv133 = -100						; size = 4
tv83 = -100						; size = 4
tv73 = -100						; size = 4
_nBucket$1 = -32					; size = 4
_pAssocNext$ = -28					; size = 4
___afx_condVal$2 = -24					; size = 4
_nBucket$3 = -20					; size = 4
___afx_condVal$4 = -16					; size = 4
_pAssocRet$ = -12					; size = 4
___afx_condVal$5 = -8					; size = 4
_this$ = -4						; size = 4
_rNextPosition$ = 8					; size = 4
_rKey$ = 12						; size = 4
_rValue$ = 16						; size = 4
?GetNextAssoc@?$CMap@GGPAUtagGameServerInfo@@PAU1@@@QBEXAAPAU__POSITION@@AAGAAPAUtagGameServerInfo@@@Z PROC ; CMap<unsigned short,unsigned short,tagGameServerInfo *,tagGameServerInfo *>::GetNextAssoc, COMDAT
; _this$ = ecx

; 1640 : {

  00000	55		 push	 ebp
  00001	8b ec		 mov	 ebp, esp
  00003	83 ec 64	 sub	 esp, 100		; 00000064H
  00006	53		 push	 ebx
  00007	56		 push	 esi
  00008	57		 push	 edi
  00009	89 4d fc	 mov	 DWORD PTR _this$[ebp], ecx

; 1641 : 	ASSERT_VALID(this);

  0000c	68 69 06 00 00	 push	 1641			; 00000669H
  00011	68 00 00 00 00	 push	 OFFSET ??_C@_0HC@HBCNBCLF@c?3?2program?5files?5?$CIx86?$CJ?2microsof@
  00016	8b 45 fc	 mov	 eax, DWORD PTR _this$[ebp]
  00019	50		 push	 eax
  0001a	e8 00 00 00 00	 call	 ?AfxAssertValidObject@@YGXPBVCObject@@PBDH@Z ; AfxAssertValidObject
$LN4@GetNextAss:

; 1642 : 	ENSURE(m_pHashTable != NULL);  // never call on empty map

  0001f	8b 45 fc	 mov	 eax, DWORD PTR _this$[ebp]
  00022	83 78 04 00	 cmp	 DWORD PTR [eax+4], 0
  00026	74 09		 je	 SHORT $LN25@GetNextAss
  00028	c7 45 9c 01 00
	00 00		 mov	 DWORD PTR tv73[ebp], 1
  0002f	eb 07		 jmp	 SHORT $LN26@GetNextAss
$LN25@GetNextAss:
  00031	c7 45 9c 00 00
	00 00		 mov	 DWORD PTR tv73[ebp], 0
$LN26@GetNextAss:
  00038	8b 4d 9c	 mov	 ecx, DWORD PTR tv73[ebp]
  0003b	89 4d f8	 mov	 DWORD PTR ___afx_condVal$5[ebp], ecx
  0003e	83 7d f8 00	 cmp	 DWORD PTR ___afx_condVal$5[ebp], 0
  00042	75 14		 jne	 SHORT $LN27@GetNextAss
  00044	68 6a 06 00 00	 push	 1642			; 0000066aH
  00049	68 00 00 00 00	 push	 OFFSET ??_C@_0HC@HBCNBCLF@c?3?2program?5files?5?$CIx86?$CJ?2microsof@
  0004e	e8 00 00 00 00	 call	 ?AfxAssertFailedLine@@YGHPBDH@Z ; AfxAssertFailedLine
  00053	85 c0		 test	 eax, eax
  00055	74 01		 je	 SHORT $LN27@GetNextAss
  00057	cc		 int	 3
$LN27@GetNextAss:
  00058	83 7d f8 00	 cmp	 DWORD PTR ___afx_condVal$5[ebp], 0
  0005c	75 05		 jne	 SHORT $LN2@GetNextAss
  0005e	e8 00 00 00 00	 call	 ?AfxThrowInvalidArgException@@YGXXZ ; AfxThrowInvalidArgException
$LN2@GetNextAss:
  00063	33 c0		 xor	 eax, eax
  00065	75 b8		 jne	 SHORT $LN4@GetNextAss

; 1643 : 
; 1644 : 	CAssoc* pAssocRet = (CAssoc*)rNextPosition;

  00067	8b 45 08	 mov	 eax, DWORD PTR _rNextPosition$[ebp]
  0006a	8b 08		 mov	 ecx, DWORD PTR [eax]
  0006c	89 4d f4	 mov	 DWORD PTR _pAssocRet$[ebp], ecx
$LN7@GetNextAss:

; 1645 : 	ENSURE(pAssocRet != NULL);

  0006f	83 7d f4 00	 cmp	 DWORD PTR _pAssocRet$[ebp], 0
  00073	74 09		 je	 SHORT $LN28@GetNextAss
  00075	c7 45 9c 01 00
	00 00		 mov	 DWORD PTR tv83[ebp], 1
  0007c	eb 07		 jmp	 SHORT $LN29@GetNextAss
$LN28@GetNextAss:
  0007e	c7 45 9c 00 00
	00 00		 mov	 DWORD PTR tv83[ebp], 0
$LN29@GetNextAss:
  00085	8b 45 9c	 mov	 eax, DWORD PTR tv83[ebp]
  00088	89 45 f0	 mov	 DWORD PTR ___afx_condVal$4[ebp], eax
  0008b	83 7d f0 00	 cmp	 DWORD PTR ___afx_condVal$4[ebp], 0
  0008f	75 14		 jne	 SHORT $LN30@GetNextAss
  00091	68 6d 06 00 00	 push	 1645			; 0000066dH
  00096	68 00 00 00 00	 push	 OFFSET ??_C@_0HC@HBCNBCLF@c?3?2program?5files?5?$CIx86?$CJ?2microsof@
  0009b	e8 00 00 00 00	 call	 ?AfxAssertFailedLine@@YGHPBDH@Z ; AfxAssertFailedLine
  000a0	85 c0		 test	 eax, eax
  000a2	74 01		 je	 SHORT $LN30@GetNextAss
  000a4	cc		 int	 3
$LN30@GetNextAss:
  000a5	83 7d f0 00	 cmp	 DWORD PTR ___afx_condVal$4[ebp], 0
  000a9	75 05		 jne	 SHORT $LN5@GetNextAss
  000ab	e8 00 00 00 00	 call	 ?AfxThrowInvalidArgException@@YGXXZ ; AfxThrowInvalidArgException
$LN5@GetNextAss:
  000b0	33 c0		 xor	 eax, eax
  000b2	75 bb		 jne	 SHORT $LN7@GetNextAss

; 1646 : 
; 1647 : 	if (pAssocRet == (CAssoc*) BEFORE_START_POSITION)

  000b4	83 7d f4 ff	 cmp	 DWORD PTR _pAssocRet$[ebp], -1
  000b8	75 7b		 jne	 SHORT $LN19@GetNextAss

; 1648 : 	{
; 1649 : 		// find the first association
; 1650 : 		for (UINT nBucket = 0; nBucket < m_nHashTableSize; nBucket++)

  000ba	c7 45 ec 00 00
	00 00		 mov	 DWORD PTR _nBucket$3[ebp], 0
  000c1	eb 09		 jmp	 SHORT $LN10@GetNextAss
$LN8@GetNextAss:
  000c3	8b 45 ec	 mov	 eax, DWORD PTR _nBucket$3[ebp]
  000c6	83 c0 01	 add	 eax, 1
  000c9	89 45 ec	 mov	 DWORD PTR _nBucket$3[ebp], eax
$LN10@GetNextAss:
  000cc	8b 45 fc	 mov	 eax, DWORD PTR _this$[ebp]
  000cf	8b 4d ec	 mov	 ecx, DWORD PTR _nBucket$3[ebp]
  000d2	3b 48 08	 cmp	 ecx, DWORD PTR [eax+8]
  000d5	73 19		 jae	 SHORT $LN13@GetNextAss

; 1651 : 		{
; 1652 : 			if ((pAssocRet = m_pHashTable[nBucket]) != NULL)

  000d7	8b 45 fc	 mov	 eax, DWORD PTR _this$[ebp]
  000da	8b 48 04	 mov	 ecx, DWORD PTR [eax+4]
  000dd	8b 55 ec	 mov	 edx, DWORD PTR _nBucket$3[ebp]
  000e0	8b 04 91	 mov	 eax, DWORD PTR [ecx+edx*4]
  000e3	89 45 f4	 mov	 DWORD PTR _pAssocRet$[ebp], eax
  000e6	83 7d f4 00	 cmp	 DWORD PTR _pAssocRet$[ebp], 0
  000ea	74 02		 je	 SHORT $LN20@GetNextAss

; 1653 : 			{
; 1654 : 				break;

  000ec	eb 02		 jmp	 SHORT $LN13@GetNextAss
$LN20@GetNextAss:

; 1655 : 			}
; 1656 : 		}

  000ee	eb d3		 jmp	 SHORT $LN8@GetNextAss
$LN13@GetNextAss:

; 1657 : 		ENSURE(pAssocRet != NULL);  // must find something

  000f0	83 7d f4 00	 cmp	 DWORD PTR _pAssocRet$[ebp], 0
  000f4	74 09		 je	 SHORT $LN31@GetNextAss
  000f6	c7 45 9c 01 00
	00 00		 mov	 DWORD PTR tv133[ebp], 1
  000fd	eb 07		 jmp	 SHORT $LN32@GetNextAss
$LN31@GetNextAss:
  000ff	c7 45 9c 00 00
	00 00		 mov	 DWORD PTR tv133[ebp], 0
$LN32@GetNextAss:
  00106	8b 45 9c	 mov	 eax, DWORD PTR tv133[ebp]
  00109	89 45 e8	 mov	 DWORD PTR ___afx_condVal$2[ebp], eax
  0010c	83 7d e8 00	 cmp	 DWORD PTR ___afx_condVal$2[ebp], 0
  00110	75 14		 jne	 SHORT $LN33@GetNextAss
  00112	68 79 06 00 00	 push	 1657			; 00000679H
  00117	68 00 00 00 00	 push	 OFFSET ??_C@_0HC@HBCNBCLF@c?3?2program?5files?5?$CIx86?$CJ?2microsof@
  0011c	e8 00 00 00 00	 call	 ?AfxAssertFailedLine@@YGHPBDH@Z ; AfxAssertFailedLine
  00121	85 c0		 test	 eax, eax
  00123	74 01		 je	 SHORT $LN33@GetNextAss
  00125	cc		 int	 3
$LN33@GetNextAss:
  00126	83 7d e8 00	 cmp	 DWORD PTR ___afx_condVal$2[ebp], 0
  0012a	75 05		 jne	 SHORT $LN11@GetNextAss
  0012c	e8 00 00 00 00	 call	 ?AfxThrowInvalidArgException@@YGXXZ ; AfxThrowInvalidArgException
$LN11@GetNextAss:
  00131	33 c0		 xor	 eax, eax
  00133	75 bb		 jne	 SHORT $LN13@GetNextAss
$LN19@GetNextAss:

; 1658 : 	}
; 1659 : 
; 1660 : 	// find next association
; 1661 : 	ASSERT(AfxIsValidAddress(pAssocRet, sizeof(CAssoc)));

  00135	6a 01		 push	 1
  00137	6a 10		 push	 16			; 00000010H
  00139	8b 45 f4	 mov	 eax, DWORD PTR _pAssocRet$[ebp]
  0013c	50		 push	 eax
  0013d	e8 00 00 00 00	 call	 ?AfxIsValidAddress@@YGHPBXIH@Z ; AfxIsValidAddress
  00142	85 c0		 test	 eax, eax
  00144	75 14		 jne	 SHORT $LN34@GetNextAss
  00146	68 7d 06 00 00	 push	 1661			; 0000067dH
  0014b	68 00 00 00 00	 push	 OFFSET ??_C@_0HC@HBCNBCLF@c?3?2program?5files?5?$CIx86?$CJ?2microsof@
  00150	e8 00 00 00 00	 call	 ?AfxAssertFailedLine@@YGHPBDH@Z ; AfxAssertFailedLine
  00155	85 c0		 test	 eax, eax
  00157	74 01		 je	 SHORT $LN34@GetNextAss
  00159	cc		 int	 3
$LN34@GetNextAss:

; 1662 : 	CAssoc* pAssocNext;
; 1663 : 	if ((pAssocNext = pAssocRet->pNext) == NULL)

  0015a	8b 45 f4	 mov	 eax, DWORD PTR _pAssocRet$[ebp]
  0015d	8b 48 08	 mov	 ecx, DWORD PTR [eax+8]
  00160	89 4d e4	 mov	 DWORD PTR _pAssocNext$[ebp], ecx
  00163	83 7d e4 00	 cmp	 DWORD PTR _pAssocNext$[ebp], 0
  00167	75 43		 jne	 SHORT $LN22@GetNextAss

; 1664 : 	{
; 1665 : 		// go to next bucket
; 1666 : 		for (UINT nBucket = (pAssocRet->nHashValue % m_nHashTableSize) + 1;

  00169	8b 45 f4	 mov	 eax, DWORD PTR _pAssocRet$[ebp]
  0016c	8b 4d fc	 mov	 ecx, DWORD PTR _this$[ebp]
  0016f	8b 40 0c	 mov	 eax, DWORD PTR [eax+12]
  00172	33 d2		 xor	 edx, edx
  00174	f7 71 08	 div	 DWORD PTR [ecx+8]
  00177	83 c2 01	 add	 edx, 1
  0017a	89 55 e0	 mov	 DWORD PTR _nBucket$1[ebp], edx
  0017d	eb 09		 jmp	 SHORT $LN16@GetNextAss
$LN14@GetNextAss:

; 1667 : 		  nBucket < m_nHashTableSize; nBucket++)

  0017f	8b 45 e0	 mov	 eax, DWORD PTR _nBucket$1[ebp]
  00182	83 c0 01	 add	 eax, 1
  00185	89 45 e0	 mov	 DWORD PTR _nBucket$1[ebp], eax
$LN16@GetNextAss:
  00188	8b 45 fc	 mov	 eax, DWORD PTR _this$[ebp]
  0018b	8b 4d e0	 mov	 ecx, DWORD PTR _nBucket$1[ebp]
  0018e	3b 48 08	 cmp	 ecx, DWORD PTR [eax+8]
  00191	73 19		 jae	 SHORT $LN22@GetNextAss

; 1668 : 			if ((pAssocNext = m_pHashTable[nBucket]) != NULL)

  00193	8b 45 fc	 mov	 eax, DWORD PTR _this$[ebp]
  00196	8b 48 04	 mov	 ecx, DWORD PTR [eax+4]
  00199	8b 55 e0	 mov	 edx, DWORD PTR _nBucket$1[ebp]
  0019c	8b 04 91	 mov	 eax, DWORD PTR [ecx+edx*4]
  0019f	89 45 e4	 mov	 DWORD PTR _pAssocNext$[ebp], eax
  001a2	83 7d e4 00	 cmp	 DWORD PTR _pAssocNext$[ebp], 0
  001a6	74 02		 je	 SHORT $LN23@GetNextAss

; 1669 : 				break;

  001a8	eb 02		 jmp	 SHORT $LN22@GetNextAss
$LN23@GetNextAss:

; 1670 : 	}

  001aa	eb d3		 jmp	 SHORT $LN14@GetNextAss
$LN22@GetNextAss:

; 1671 : 
; 1672 : 	rNextPosition = (POSITION) pAssocNext;

  001ac	8b 45 08	 mov	 eax, DWORD PTR _rNextPosition$[ebp]
  001af	8b 4d e4	 mov	 ecx, DWORD PTR _pAssocNext$[ebp]
  001b2	89 08		 mov	 DWORD PTR [eax], ecx

; 1673 : 
; 1674 : 	// fill in return data
; 1675 : 	rKey = pAssocRet->key;

  001b4	8b 45 0c	 mov	 eax, DWORD PTR _rKey$[ebp]
  001b7	8b 4d f4	 mov	 ecx, DWORD PTR _pAssocRet$[ebp]
  001ba	66 8b 11	 mov	 dx, WORD PTR [ecx]
  001bd	66 89 10	 mov	 WORD PTR [eax], dx

; 1676 : 	rValue = pAssocRet->value;

  001c0	8b 45 10	 mov	 eax, DWORD PTR _rValue$[ebp]
  001c3	8b 4d f4	 mov	 ecx, DWORD PTR _pAssocRet$[ebp]
  001c6	8b 51 04	 mov	 edx, DWORD PTR [ecx+4]
  001c9	89 10		 mov	 DWORD PTR [eax], edx
$LN24@GetNextAss:

; 1677 : }

  001cb	5f		 pop	 edi
  001cc	5e		 pop	 esi
  001cd	5b		 pop	 ebx
  001ce	8b e5		 mov	 esp, ebp
  001d0	5d		 pop	 ebp
  001d1	c2 0c 00	 ret	 12			; 0000000cH
?GetNextAssoc@?$CMap@GGPAUtagGameServerInfo@@PAU1@@@QBEXAAPAU__POSITION@@AAGAAPAUtagGameServerInfo@@@Z ENDP ; CMap<unsigned short,unsigned short,tagGameServerInfo *,tagGameServerInfo *>::GetNextAssoc
_TEXT	ENDS
; Function compile flags: /Odtp /ZI
; File c:\program files (x86)\microsoft visual studio\2017\community\vc\tools\msvc\14.16.27023\atlmfc\include\afxtempl.h
;	COMDAT ?GetStartPosition@?$CMap@GGPAUtagGameServerInfo@@PAU1@@@QBEPAU__POSITION@@XZ
_TEXT	SEGMENT
tv66 = -72						; size = 4
_this$ = -4						; size = 4
?GetStartPosition@?$CMap@GGPAUtagGameServerInfo@@PAU1@@@QBEPAU__POSITION@@XZ PROC ; CMap<unsigned short,unsigned short,tagGameServerInfo *,tagGameServerInfo *>::GetStartPosition, COMDAT
; _this$ = ecx

; 1354 : 	{ return (m_nCount == 0) ? NULL : BEFORE_START_POSITION; }

  00000	55		 push	 ebp
  00001	8b ec		 mov	 ebp, esp
  00003	83 ec 48	 sub	 esp, 72			; 00000048H
  00006	53		 push	 ebx
  00007	56		 push	 esi
  00008	57		 push	 edi
  00009	89 4d fc	 mov	 DWORD PTR _this$[ebp], ecx
  0000c	8b 45 fc	 mov	 eax, DWORD PTR _this$[ebp]
  0000f	83 78 0c 00	 cmp	 DWORD PTR [eax+12], 0
  00013	75 09		 jne	 SHORT $LN3@GetStartPo
  00015	c7 45 b8 00 00
	00 00		 mov	 DWORD PTR tv66[ebp], 0
  0001c	eb 07		 jmp	 SHORT $LN4@GetStartPo
$LN3@GetStartPo:
  0001e	c7 45 b8 ff ff
	ff ff		 mov	 DWORD PTR tv66[ebp], -1
$LN4@GetStartPo:
  00025	8b 45 b8	 mov	 eax, DWORD PTR tv66[ebp]
  00028	5f		 pop	 edi
  00029	5e		 pop	 esi
  0002a	5b		 pop	 ebx
  0002b	8b e5		 mov	 esp, ebp
  0002d	5d		 pop	 ebp
  0002e	c3		 ret	 0
?GetStartPosition@?$CMap@GGPAUtagGameServerInfo@@PAU1@@@QBEPAU__POSITION@@XZ ENDP ; CMap<unsigned short,unsigned short,tagGameServerInfo *,tagGameServerInfo *>::GetStartPosition
_TEXT	ENDS
; Function compile flags: /Odtp /ZI
; File c:\program files (x86)\microsoft visual studio\2017\community\vc\tools\msvc\14.16.27023\atlmfc\include\afxtempl.h
;	COMDAT ?RemoveAll@?$CMap@GGPAUtagGameServerInfo@@PAU1@@@QAEXXZ
_TEXT	SEGMENT
$T1 = -80						; size = 4
_pAssoc$2 = -12						; size = 4
_nHash$3 = -8						; size = 4
_this$ = -4						; size = 4
?RemoveAll@?$CMap@GGPAUtagGameServerInfo@@PAU1@@@QAEXXZ PROC ; CMap<unsigned short,unsigned short,tagGameServerInfo *,tagGameServerInfo *>::RemoveAll, COMDAT
; _this$ = ecx

; 1443 : {

  00000	55		 push	 ebp
  00001	8b ec		 mov	 ebp, esp
  00003	83 ec 50	 sub	 esp, 80			; 00000050H
  00006	53		 push	 ebx
  00007	56		 push	 esi
  00008	57		 push	 edi
  00009	89 4d fc	 mov	 DWORD PTR _this$[ebp], ecx

; 1444 : 	ASSERT_VALID(this);

  0000c	68 a4 05 00 00	 push	 1444			; 000005a4H
  00011	68 00 00 00 00	 push	 OFFSET ??_C@_0HC@HBCNBCLF@c?3?2program?5files?5?$CIx86?$CJ?2microsof@
  00016	8b 45 fc	 mov	 eax, DWORD PTR _this$[ebp]
  00019	50		 push	 eax
  0001a	e8 00 00 00 00	 call	 ?AfxAssertValidObject@@YGXPBVCObject@@PBDH@Z ; AfxAssertValidObject

; 1445 : 
; 1446 : 	if (m_pHashTable != NULL)

  0001f	8b 45 fc	 mov	 eax, DWORD PTR _this$[ebp]
  00022	83 78 04 00	 cmp	 DWORD PTR [eax+4], 0
  00026	74 60		 je	 SHORT $LN8@RemoveAll

; 1447 : 	{
; 1448 : 		// destroy elements (values and keys)
; 1449 : 		for (UINT nHash = 0; nHash < m_nHashTableSize; nHash++)

  00028	c7 45 f8 00 00
	00 00		 mov	 DWORD PTR _nHash$3[ebp], 0
  0002f	eb 09		 jmp	 SHORT $LN4@RemoveAll
$LN2@RemoveAll:
  00031	8b 45 f8	 mov	 eax, DWORD PTR _nHash$3[ebp]
  00034	83 c0 01	 add	 eax, 1
  00037	89 45 f8	 mov	 DWORD PTR _nHash$3[ebp], eax
$LN4@RemoveAll:
  0003a	8b 45 fc	 mov	 eax, DWORD PTR _this$[ebp]
  0003d	8b 4d f8	 mov	 ecx, DWORD PTR _nHash$3[ebp]
  00040	3b 48 08	 cmp	 ecx, DWORD PTR [eax+8]
  00043	73 24		 jae	 SHORT $LN3@RemoveAll

; 1450 : 		{
; 1451 : 			CAssoc* pAssoc;
; 1452 : 			for (pAssoc = m_pHashTable[nHash]; pAssoc != NULL;

  00045	8b 45 fc	 mov	 eax, DWORD PTR _this$[ebp]
  00048	8b 48 04	 mov	 ecx, DWORD PTR [eax+4]
  0004b	8b 55 f8	 mov	 edx, DWORD PTR _nHash$3[ebp]
  0004e	8b 04 91	 mov	 eax, DWORD PTR [ecx+edx*4]
  00051	89 45 f4	 mov	 DWORD PTR _pAssoc$2[ebp], eax
  00054	eb 09		 jmp	 SHORT $LN7@RemoveAll
$LN5@RemoveAll:

; 1453 : 			  pAssoc = pAssoc->pNext)

  00056	8b 45 f4	 mov	 eax, DWORD PTR _pAssoc$2[ebp]
  00059	8b 48 08	 mov	 ecx, DWORD PTR [eax+8]
  0005c	89 4d f4	 mov	 DWORD PTR _pAssoc$2[ebp], ecx
$LN7@RemoveAll:

; 1450 : 		{
; 1451 : 			CAssoc* pAssoc;
; 1452 : 			for (pAssoc = m_pHashTable[nHash]; pAssoc != NULL;

  0005f	83 7d f4 00	 cmp	 DWORD PTR _pAssoc$2[ebp], 0
  00063	74 02		 je	 SHORT $LN6@RemoveAll

; 1454 : 			{
; 1455 : 				pAssoc->CAssoc::~CAssoc();
; 1456 : 			}

  00065	eb ef		 jmp	 SHORT $LN5@RemoveAll
$LN6@RemoveAll:

; 1457 : 		}

  00067	eb c8		 jmp	 SHORT $LN2@RemoveAll
$LN3@RemoveAll:

; 1458 : 
; 1459 : 		// free hash table
; 1460 : 		delete[] m_pHashTable;

  00069	8b 45 fc	 mov	 eax, DWORD PTR _this$[ebp]
  0006c	8b 48 04	 mov	 ecx, DWORD PTR [eax+4]
  0006f	89 4d b0	 mov	 DWORD PTR $T1[ebp], ecx
  00072	8b 55 b0	 mov	 edx, DWORD PTR $T1[ebp]
  00075	52		 push	 edx
  00076	e8 00 00 00 00	 call	 ??_V@YAXPAX@Z		; operator delete[]
  0007b	83 c4 04	 add	 esp, 4

; 1461 : 		m_pHashTable = NULL;

  0007e	8b 45 fc	 mov	 eax, DWORD PTR _this$[ebp]
  00081	c7 40 04 00 00
	00 00		 mov	 DWORD PTR [eax+4], 0
$LN8@RemoveAll:

; 1462 : 	}
; 1463 : 
; 1464 : 	m_nCount = 0;

  00088	8b 45 fc	 mov	 eax, DWORD PTR _this$[ebp]
  0008b	c7 40 0c 00 00
	00 00		 mov	 DWORD PTR [eax+12], 0

; 1465 : 	m_pFreeList = NULL;

  00092	8b 45 fc	 mov	 eax, DWORD PTR _this$[ebp]
  00095	c7 40 10 00 00
	00 00		 mov	 DWORD PTR [eax+16], 0

; 1466 : 	m_pBlocks->FreeDataChain();

  0009c	8b 45 fc	 mov	 eax, DWORD PTR _this$[ebp]
  0009f	8b 48 14	 mov	 ecx, DWORD PTR [eax+20]
  000a2	e8 00 00 00 00	 call	 ?FreeDataChain@CPlex@@QAEXXZ ; CPlex::FreeDataChain

; 1467 : 	m_pBlocks = NULL;

  000a7	8b 45 fc	 mov	 eax, DWORD PTR _this$[ebp]
  000aa	c7 40 14 00 00
	00 00		 mov	 DWORD PTR [eax+20], 0

; 1468 : }

  000b1	5f		 pop	 edi
  000b2	5e		 pop	 esi
  000b3	5b		 pop	 ebx
  000b4	8b e5		 mov	 esp, ebp
  000b6	5d		 pop	 ebp
  000b7	c3		 ret	 0
?RemoveAll@?$CMap@GGPAUtagGameServerInfo@@PAU1@@@QAEXXZ ENDP ; CMap<unsigned short,unsigned short,tagGameServerInfo *,tagGameServerInfo *>::RemoveAll
_TEXT	ENDS
; Function compile flags: /Odtp /ZI
; File c:\program files (x86)\microsoft visual studio\2017\community\vc\tools\msvc\14.16.27023\atlmfc\include\afxtempl.h
;	COMDAT ?RemoveKey@?$CMap@GGPAUtagGameServerInfo@@PAU1@@@QAEHG@Z
_TEXT	SEGMENT
_pAssoc$ = -16						; size = 4
_ppAssocPrev$ = -12					; size = 4
_nHashValue$ = -8					; size = 4
_this$ = -4						; size = 4
_key$ = 8						; size = 2
?RemoveKey@?$CMap@GGPAUtagGameServerInfo@@PAU1@@@QAEHG@Z PROC ; CMap<unsigned short,unsigned short,tagGameServerInfo *,tagGameServerInfo *>::RemoveKey, COMDAT
; _this$ = ecx

; 1611 : {

  00000	55		 push	 ebp
  00001	8b ec		 mov	 ebp, esp
  00003	83 ec 50	 sub	 esp, 80			; 00000050H
  00006	53		 push	 ebx
  00007	56		 push	 esi
  00008	57		 push	 edi
  00009	89 4d fc	 mov	 DWORD PTR _this$[ebp], ecx

; 1612 : 	ASSERT_VALID(this);

  0000c	68 4c 06 00 00	 push	 1612			; 0000064cH
  00011	68 00 00 00 00	 push	 OFFSET ??_C@_0HC@HBCNBCLF@c?3?2program?5files?5?$CIx86?$CJ?2microsof@
  00016	8b 45 fc	 mov	 eax, DWORD PTR _this$[ebp]
  00019	50		 push	 eax
  0001a	e8 00 00 00 00	 call	 ?AfxAssertValidObject@@YGXPBVCObject@@PBDH@Z ; AfxAssertValidObject

; 1613 : 
; 1614 : 	if (m_pHashTable == NULL)

  0001f	8b 45 fc	 mov	 eax, DWORD PTR _this$[ebp]
  00022	83 78 04 00	 cmp	 DWORD PTR [eax+4], 0
  00026	75 07		 jne	 SHORT $LN5@RemoveKey

; 1615 : 		return FALSE;  // nothing in the table

  00028	33 c0		 xor	 eax, eax
  0002a	e9 84 00 00 00	 jmp	 $LN1@RemoveKey
$LN5@RemoveKey:

; 1616 : 
; 1617 : 	UINT nHashValue;
; 1618 : 	CAssoc** ppAssocPrev;
; 1619 : 	nHashValue = HashKey<ARG_KEY>(key);

  0002f	0f b7 45 08	 movzx	 eax, WORD PTR _key$[ebp]
  00033	50		 push	 eax
  00034	e8 00 00 00 00	 call	 ??$HashKey@G@@YGIG@Z	; HashKey<unsigned short>
  00039	89 45 f8	 mov	 DWORD PTR _nHashValue$[ebp], eax

; 1620 : 	ppAssocPrev = &m_pHashTable[nHashValue%m_nHashTableSize];

  0003c	8b 4d fc	 mov	 ecx, DWORD PTR _this$[ebp]
  0003f	8b 45 f8	 mov	 eax, DWORD PTR _nHashValue$[ebp]
  00042	33 d2		 xor	 edx, edx
  00044	f7 71 08	 div	 DWORD PTR [ecx+8]
  00047	8b 45 fc	 mov	 eax, DWORD PTR _this$[ebp]
  0004a	8b 48 04	 mov	 ecx, DWORD PTR [eax+4]
  0004d	8d 14 91	 lea	 edx, DWORD PTR [ecx+edx*4]
  00050	89 55 f4	 mov	 DWORD PTR _ppAssocPrev$[ebp], edx

; 1621 : 
; 1622 : 	CAssoc* pAssoc;
; 1623 : 	for (pAssoc = *ppAssocPrev; pAssoc != NULL; pAssoc = pAssoc->pNext)

  00053	8b 45 f4	 mov	 eax, DWORD PTR _ppAssocPrev$[ebp]
  00056	8b 08		 mov	 ecx, DWORD PTR [eax]
  00058	89 4d f0	 mov	 DWORD PTR _pAssoc$[ebp], ecx
  0005b	eb 09		 jmp	 SHORT $LN4@RemoveKey
$LN2@RemoveKey:
  0005d	8b 45 f0	 mov	 eax, DWORD PTR _pAssoc$[ebp]
  00060	8b 48 08	 mov	 ecx, DWORD PTR [eax+8]
  00063	89 4d f0	 mov	 DWORD PTR _pAssoc$[ebp], ecx
$LN4@RemoveKey:
  00066	83 7d f0 00	 cmp	 DWORD PTR _pAssoc$[ebp], 0
  0006a	74 45		 je	 SHORT $LN3@RemoveKey

; 1624 : 	{
; 1625 : 		if ((pAssoc->nHashValue == nHashValue) && CompareElements(&pAssoc->key, &key))

  0006c	8b 45 f0	 mov	 eax, DWORD PTR _pAssoc$[ebp]
  0006f	8b 48 0c	 mov	 ecx, DWORD PTR [eax+12]
  00072	3b 4d f8	 cmp	 ecx, DWORD PTR _nHashValue$[ebp]
  00075	75 2f		 jne	 SHORT $LN6@RemoveKey
  00077	8d 45 08	 lea	 eax, DWORD PTR _key$[ebp]
  0007a	50		 push	 eax
  0007b	8b 4d f0	 mov	 ecx, DWORD PTR _pAssoc$[ebp]
  0007e	51		 push	 ecx
  0007f	e8 00 00 00 00	 call	 ??$CompareElements@GG@@YGHPBG0@Z ; CompareElements<unsigned short,unsigned short>
  00084	85 c0		 test	 eax, eax
  00086	74 1e		 je	 SHORT $LN6@RemoveKey

; 1626 : 		{
; 1627 : 			// remove it
; 1628 : 			*ppAssocPrev = pAssoc->pNext;  // remove from list

  00088	8b 45 f4	 mov	 eax, DWORD PTR _ppAssocPrev$[ebp]
  0008b	8b 4d f0	 mov	 ecx, DWORD PTR _pAssoc$[ebp]
  0008e	8b 51 08	 mov	 edx, DWORD PTR [ecx+8]
  00091	89 10		 mov	 DWORD PTR [eax], edx

; 1629 : 			FreeAssoc(pAssoc);

  00093	8b 45 f0	 mov	 eax, DWORD PTR _pAssoc$[ebp]
  00096	50		 push	 eax
  00097	8b 4d fc	 mov	 ecx, DWORD PTR _this$[ebp]
  0009a	e8 00 00 00 00	 call	 ?FreeAssoc@?$CMap@GGPAUtagGameServerInfo@@PAU1@@@IAEXPAVCAssoc@1@@Z ; CMap<unsigned short,unsigned short,tagGameServerInfo *,tagGameServerInfo *>::FreeAssoc

; 1630 : 			return TRUE;

  0009f	b8 01 00 00 00	 mov	 eax, 1
  000a4	eb 0d		 jmp	 SHORT $LN1@RemoveKey
$LN6@RemoveKey:

; 1631 : 		}
; 1632 : 		ppAssocPrev = &pAssoc->pNext;

  000a6	8b 45 f0	 mov	 eax, DWORD PTR _pAssoc$[ebp]
  000a9	83 c0 08	 add	 eax, 8
  000ac	89 45 f4	 mov	 DWORD PTR _ppAssocPrev$[ebp], eax

; 1633 : 	}

  000af	eb ac		 jmp	 SHORT $LN2@RemoveKey
$LN3@RemoveKey:

; 1634 : 	return FALSE;  // not found

  000b1	33 c0		 xor	 eax, eax
$LN1@RemoveKey:

; 1635 : }

  000b3	5f		 pop	 edi
  000b4	5e		 pop	 esi
  000b5	5b		 pop	 ebx
  000b6	8b e5		 mov	 esp, ebp
  000b8	5d		 pop	 ebp
  000b9	c2 04 00	 ret	 4
?RemoveKey@?$CMap@GGPAUtagGameServerInfo@@PAU1@@@QAEHG@Z ENDP ; CMap<unsigned short,unsigned short,tagGameServerInfo *,tagGameServerInfo *>::RemoveKey
_TEXT	ENDS
; Function compile flags: /Odtp /ZI
; File c:\program files (x86)\microsoft visual studio\2017\community\vc\tools\msvc\14.16.27023\atlmfc\include\afxtempl.h
;	COMDAT ?SetAt@?$CMap@GGPAUtagGameServerInfo@@PAU1@@@QAEXGPAUtagGameServerInfo@@@Z
_TEXT	SEGMENT
_this$ = -4						; size = 4
_key$ = 8						; size = 2
_newValue$ = 12						; size = 4
?SetAt@?$CMap@GGPAUtagGameServerInfo@@PAU1@@@QAEXGPAUtagGameServerInfo@@@Z PROC ; CMap<unsigned short,unsigned short,tagGameServerInfo *,tagGameServerInfo *>::SetAt, COMDAT
; _this$ = ecx

; 1350 : 	{ (*this)[key] = newValue; }

  00000	55		 push	 ebp
  00001	8b ec		 mov	 ebp, esp
  00003	83 ec 44	 sub	 esp, 68			; 00000044H
  00006	53		 push	 ebx
  00007	56		 push	 esi
  00008	57		 push	 edi
  00009	89 4d fc	 mov	 DWORD PTR _this$[ebp], ecx
  0000c	0f b7 45 08	 movzx	 eax, WORD PTR _key$[ebp]
  00010	50		 push	 eax
  00011	8b 4d fc	 mov	 ecx, DWORD PTR _this$[ebp]
  00014	e8 00 00 00 00	 call	 ??A?$CMap@GGPAUtagGameServerInfo@@PAU1@@@QAEAAPAUtagGameServerInfo@@G@Z ; CMap<unsigned short,unsigned short,tagGameServerInfo *,tagGameServerInfo *>::operator[]
  00019	8b 4d 0c	 mov	 ecx, DWORD PTR _newValue$[ebp]
  0001c	89 08		 mov	 DWORD PTR [eax], ecx
  0001e	5f		 pop	 edi
  0001f	5e		 pop	 esi
  00020	5b		 pop	 ebx
  00021	8b e5		 mov	 esp, ebp
  00023	5d		 pop	 ebp
  00024	c2 08 00	 ret	 8
?SetAt@?$CMap@GGPAUtagGameServerInfo@@PAU1@@@QAEXGPAUtagGameServerInfo@@@Z ENDP ; CMap<unsigned short,unsigned short,tagGameServerInfo *,tagGameServerInfo *>::SetAt
_TEXT	ENDS
; Function compile flags: /Odtp /ZI
; File c:\program files (x86)\microsoft visual studio\2017\community\vc\tools\msvc\14.16.27023\atlmfc\include\afxtempl.h
;	COMDAT ??A?$CMap@GGPAUtagGameServerInfo@@PAU1@@@QAEAAPAUtagGameServerInfo@@G@Z
_TEXT	SEGMENT
tv85 = -88						; size = 4
___afx_condVal$1 = -20					; size = 4
_pAssoc$ = -16						; size = 4
_nHashValue$ = -12					; size = 4
_nHashBucket$ = -8					; size = 4
_this$ = -4						; size = 4
_key$ = 8						; size = 2
??A?$CMap@GGPAUtagGameServerInfo@@PAU1@@@QAEAAPAUtagGameServerInfo@@G@Z PROC ; CMap<unsigned short,unsigned short,tagGameServerInfo *,tagGameServerInfo *>::operator[], COMDAT
; _this$ = ecx

; 1585 : {

  00000	55		 push	 ebp
  00001	8b ec		 mov	 ebp, esp
  00003	83 ec 58	 sub	 esp, 88			; 00000058H
  00006	53		 push	 ebx
  00007	56		 push	 esi
  00008	57		 push	 edi
  00009	89 4d fc	 mov	 DWORD PTR _this$[ebp], ecx

; 1586 : 	ASSERT_VALID(this);

  0000c	68 32 06 00 00	 push	 1586			; 00000632H
  00011	68 00 00 00 00	 push	 OFFSET ??_C@_0HC@HBCNBCLF@c?3?2program?5files?5?$CIx86?$CJ?2microsof@
  00016	8b 45 fc	 mov	 eax, DWORD PTR _this$[ebp]
  00019	50		 push	 eax
  0001a	e8 00 00 00 00	 call	 ?AfxAssertValidObject@@YGXPBVCObject@@PBDH@Z ; AfxAssertValidObject

; 1587 : 
; 1588 : 	UINT nHashBucket, nHashValue;
; 1589 : 	CAssoc* pAssoc;
; 1590 : 	if ((pAssoc = GetAssocAt(key, nHashBucket, nHashValue)) == NULL)

  0001f	8d 45 f4	 lea	 eax, DWORD PTR _nHashValue$[ebp]
  00022	50		 push	 eax
  00023	8d 4d f8	 lea	 ecx, DWORD PTR _nHashBucket$[ebp]
  00026	51		 push	 ecx
  00027	0f b7 55 08	 movzx	 edx, WORD PTR _key$[ebp]
  0002b	52		 push	 edx
  0002c	8b 4d fc	 mov	 ecx, DWORD PTR _this$[ebp]
  0002f	e8 00 00 00 00	 call	 ?GetAssocAt@?$CMap@GGPAUtagGameServerInfo@@PAU1@@@IBEPAVCAssoc@1@GAAI0@Z ; CMap<unsigned short,unsigned short,tagGameServerInfo *,tagGameServerInfo *>::GetAssocAt
  00034	89 45 f0	 mov	 DWORD PTR _pAssoc$[ebp], eax
  00037	83 7d f0 00	 cmp	 DWORD PTR _pAssoc$[ebp], 0
  0003b	0f 85 9c 00 00
	00		 jne	 $LN5@operator

; 1591 : 	{
; 1592 : 		if (m_pHashTable == NULL)

  00041	8b 45 fc	 mov	 eax, DWORD PTR _this$[ebp]
  00044	83 78 04 00	 cmp	 DWORD PTR [eax+4], 0
  00048	75 11		 jne	 SHORT $LN4@operator

; 1593 : 			InitHashTable(m_nHashTableSize);

  0004a	6a 01		 push	 1
  0004c	8b 45 fc	 mov	 eax, DWORD PTR _this$[ebp]
  0004f	8b 48 08	 mov	 ecx, DWORD PTR [eax+8]
  00052	51		 push	 ecx
  00053	8b 4d fc	 mov	 ecx, DWORD PTR _this$[ebp]
  00056	e8 00 00 00 00	 call	 ?InitHashTable@?$CMap@GGPAUtagGameServerInfo@@PAU1@@@QAEXIH@Z ; CMap<unsigned short,unsigned short,tagGameServerInfo *,tagGameServerInfo *>::InitHashTable
$LN4@operator:

; 1594 : 
; 1595 : 		ENSURE(m_pHashTable);

  0005b	8b 45 fc	 mov	 eax, DWORD PTR _this$[ebp]
  0005e	83 78 04 00	 cmp	 DWORD PTR [eax+4], 0
  00062	74 09		 je	 SHORT $LN9@operator
  00064	c7 45 a8 01 00
	00 00		 mov	 DWORD PTR tv85[ebp], 1
  0006b	eb 07		 jmp	 SHORT $LN10@operator
$LN9@operator:
  0006d	c7 45 a8 00 00
	00 00		 mov	 DWORD PTR tv85[ebp], 0
$LN10@operator:
  00074	8b 4d a8	 mov	 ecx, DWORD PTR tv85[ebp]
  00077	89 4d ec	 mov	 DWORD PTR ___afx_condVal$1[ebp], ecx
  0007a	83 7d ec 00	 cmp	 DWORD PTR ___afx_condVal$1[ebp], 0
  0007e	75 14		 jne	 SHORT $LN11@operator
  00080	68 3b 06 00 00	 push	 1595			; 0000063bH
  00085	68 00 00 00 00	 push	 OFFSET ??_C@_0HC@HBCNBCLF@c?3?2program?5files?5?$CIx86?$CJ?2microsof@
  0008a	e8 00 00 00 00	 call	 ?AfxAssertFailedLine@@YGHPBDH@Z ; AfxAssertFailedLine
  0008f	85 c0		 test	 eax, eax
  00091	74 01		 je	 SHORT $LN11@operator
  00093	cc		 int	 3
$LN11@operator:
  00094	83 7d ec 00	 cmp	 DWORD PTR ___afx_condVal$1[ebp], 0
  00098	75 05		 jne	 SHORT $LN2@operator
  0009a	e8 00 00 00 00	 call	 ?AfxThrowInvalidArgException@@YGXXZ ; AfxThrowInvalidArgException
$LN2@operator:
  0009f	33 c0		 xor	 eax, eax
  000a1	75 b8		 jne	 SHORT $LN4@operator

; 1596 : 		// it doesn't exist, add a new Association
; 1597 : 		pAssoc = NewAssoc(key);

  000a3	0f b7 45 08	 movzx	 eax, WORD PTR _key$[ebp]
  000a7	50		 push	 eax
  000a8	8b 4d fc	 mov	 ecx, DWORD PTR _this$[ebp]
  000ab	e8 00 00 00 00	 call	 ?NewAssoc@?$CMap@GGPAUtagGameServerInfo@@PAU1@@@IAEPAVCAssoc@1@G@Z ; CMap<unsigned short,unsigned short,tagGameServerInfo *,tagGameServerInfo *>::NewAssoc
  000b0	89 45 f0	 mov	 DWORD PTR _pAssoc$[ebp], eax

; 1598 : 		pAssoc->nHashValue = nHashValue;

  000b3	8b 45 f0	 mov	 eax, DWORD PTR _pAssoc$[ebp]
  000b6	8b 4d f4	 mov	 ecx, DWORD PTR _nHashValue$[ebp]
  000b9	89 48 0c	 mov	 DWORD PTR [eax+12], ecx

; 1599 : 		//'pAssoc->value' is a constructed object, nothing more
; 1600 : 
; 1601 : 		// put into hash table
; 1602 : 		pAssoc->pNext = m_pHashTable[nHashBucket];

  000bc	8b 45 fc	 mov	 eax, DWORD PTR _this$[ebp]
  000bf	8b 48 04	 mov	 ecx, DWORD PTR [eax+4]
  000c2	8b 55 f0	 mov	 edx, DWORD PTR _pAssoc$[ebp]
  000c5	8b 45 f8	 mov	 eax, DWORD PTR _nHashBucket$[ebp]
  000c8	8b 0c 81	 mov	 ecx, DWORD PTR [ecx+eax*4]
  000cb	89 4a 08	 mov	 DWORD PTR [edx+8], ecx

; 1603 : 		m_pHashTable[nHashBucket] = pAssoc;

  000ce	8b 45 fc	 mov	 eax, DWORD PTR _this$[ebp]
  000d1	8b 48 04	 mov	 ecx, DWORD PTR [eax+4]
  000d4	8b 55 f8	 mov	 edx, DWORD PTR _nHashBucket$[ebp]
  000d7	8b 45 f0	 mov	 eax, DWORD PTR _pAssoc$[ebp]
  000da	89 04 91	 mov	 DWORD PTR [ecx+edx*4], eax
$LN5@operator:

; 1604 : 	}
; 1605 : 	return pAssoc->value;  // return new reference

  000dd	8b 45 f0	 mov	 eax, DWORD PTR _pAssoc$[ebp]
  000e0	83 c0 04	 add	 eax, 4
$LN8@operator:

; 1606 : }

  000e3	5f		 pop	 edi
  000e4	5e		 pop	 esi
  000e5	5b		 pop	 ebx
  000e6	8b e5		 mov	 esp, ebp
  000e8	5d		 pop	 ebp
  000e9	c2 04 00	 ret	 4
??A?$CMap@GGPAUtagGameServerInfo@@PAU1@@@QAEAAPAUtagGameServerInfo@@G@Z ENDP ; CMap<unsigned short,unsigned short,tagGameServerInfo *,tagGameServerInfo *>::operator[]
_TEXT	ENDS
; Function compile flags: /Odtp /ZI
; File c:\program files (x86)\microsoft visual studio\2017\community\vc\tools\msvc\14.16.27023\atlmfc\include\afxtempl.h
;	COMDAT ?Lookup@?$CMap@GGPAUtagGameServerInfo@@PAU1@@@QBEHGAAPAUtagGameServerInfo@@@Z
_TEXT	SEGMENT
_pAssoc$ = -16						; size = 4
_nHashValue$ = -12					; size = 4
_nHashBucket$ = -8					; size = 4
_this$ = -4						; size = 4
_key$ = 8						; size = 2
_rValue$ = 12						; size = 4
?Lookup@?$CMap@GGPAUtagGameServerInfo@@PAU1@@@QBEHGAAPAUtagGameServerInfo@@@Z PROC ; CMap<unsigned short,unsigned short,tagGameServerInfo *,tagGameServerInfo *>::Lookup, COMDAT
; _this$ = ecx

; 1551 : {

  00000	55		 push	 ebp
  00001	8b ec		 mov	 ebp, esp
  00003	83 ec 50	 sub	 esp, 80			; 00000050H
  00006	53		 push	 ebx
  00007	56		 push	 esi
  00008	57		 push	 edi
  00009	89 4d fc	 mov	 DWORD PTR _this$[ebp], ecx

; 1552 : 	ASSERT_VALID(this);

  0000c	68 10 06 00 00	 push	 1552			; 00000610H
  00011	68 00 00 00 00	 push	 OFFSET ??_C@_0HC@HBCNBCLF@c?3?2program?5files?5?$CIx86?$CJ?2microsof@
  00016	8b 45 fc	 mov	 eax, DWORD PTR _this$[ebp]
  00019	50		 push	 eax
  0001a	e8 00 00 00 00	 call	 ?AfxAssertValidObject@@YGXPBVCObject@@PBDH@Z ; AfxAssertValidObject

; 1553 : 
; 1554 : 	UINT nHashBucket, nHashValue;
; 1555 : 	CAssoc* pAssoc = GetAssocAt(key, nHashBucket, nHashValue);

  0001f	8d 45 f4	 lea	 eax, DWORD PTR _nHashValue$[ebp]
  00022	50		 push	 eax
  00023	8d 4d f8	 lea	 ecx, DWORD PTR _nHashBucket$[ebp]
  00026	51		 push	 ecx
  00027	0f b7 55 08	 movzx	 edx, WORD PTR _key$[ebp]
  0002b	52		 push	 edx
  0002c	8b 4d fc	 mov	 ecx, DWORD PTR _this$[ebp]
  0002f	e8 00 00 00 00	 call	 ?GetAssocAt@?$CMap@GGPAUtagGameServerInfo@@PAU1@@@IBEPAVCAssoc@1@GAAI0@Z ; CMap<unsigned short,unsigned short,tagGameServerInfo *,tagGameServerInfo *>::GetAssocAt
  00034	89 45 f0	 mov	 DWORD PTR _pAssoc$[ebp], eax

; 1556 : 	if (pAssoc == NULL)

  00037	83 7d f0 00	 cmp	 DWORD PTR _pAssoc$[ebp], 0
  0003b	75 04		 jne	 SHORT $LN2@Lookup

; 1557 : 		return FALSE;  // not in map

  0003d	33 c0		 xor	 eax, eax
  0003f	eb 10		 jmp	 SHORT $LN1@Lookup
$LN2@Lookup:

; 1558 : 
; 1559 : 	rValue = pAssoc->value;

  00041	8b 45 0c	 mov	 eax, DWORD PTR _rValue$[ebp]
  00044	8b 4d f0	 mov	 ecx, DWORD PTR _pAssoc$[ebp]
  00047	8b 51 04	 mov	 edx, DWORD PTR [ecx+4]
  0004a	89 10		 mov	 DWORD PTR [eax], edx

; 1560 : 	return TRUE;

  0004c	b8 01 00 00 00	 mov	 eax, 1
$LN1@Lookup:

; 1561 : }

  00051	5f		 pop	 edi
  00052	5e		 pop	 esi
  00053	5b		 pop	 ebx
  00054	8b e5		 mov	 esp, ebp
  00056	5d		 pop	 ebp
  00057	c2 08 00	 ret	 8
?Lookup@?$CMap@GGPAUtagGameServerInfo@@PAU1@@@QBEHGAAPAUtagGameServerInfo@@@Z ENDP ; CMap<unsigned short,unsigned short,tagGameServerInfo *,tagGameServerInfo *>::Lookup
_TEXT	ENDS
; Function compile flags: /Odtp /ZI
; File c:\program files (x86)\microsoft visual studio\2017\community\vc\tools\msvc\14.16.27023\atlmfc\include\afxtempl.h
;	COMDAT ?GetCount@?$CMap@GGPAUtagGameServerInfo@@PAU1@@@QBEHXZ
_TEXT	SEGMENT
_this$ = -4						; size = 4
?GetCount@?$CMap@GGPAUtagGameServerInfo@@PAU1@@@QBEHXZ PROC ; CMap<unsigned short,unsigned short,tagGameServerInfo *,tagGameServerInfo *>::GetCount, COMDAT
; _this$ = ecx

; 1338 : 	{ return m_nCount; }

  00000	55		 push	 ebp
  00001	8b ec		 mov	 ebp, esp
  00003	83 ec 44	 sub	 esp, 68			; 00000044H
  00006	53		 push	 ebx
  00007	56		 push	 esi
  00008	57		 push	 edi
  00009	89 4d fc	 mov	 DWORD PTR _this$[ebp], ecx
  0000c	8b 45 fc	 mov	 eax, DWORD PTR _this$[ebp]
  0000f	8b 40 0c	 mov	 eax, DWORD PTR [eax+12]
  00012	5f		 pop	 edi
  00013	5e		 pop	 esi
  00014	5b		 pop	 ebx
  00015	8b e5		 mov	 esp, ebp
  00017	5d		 pop	 ebp
  00018	c3		 ret	 0
?GetCount@?$CMap@GGPAUtagGameServerInfo@@PAU1@@@QBEHXZ ENDP ; CMap<unsigned short,unsigned short,tagGameServerInfo *,tagGameServerInfo *>::GetCount
_TEXT	ENDS
; Function compile flags: /Odtp /ZI
; File c:\program files (x86)\microsoft visual studio\2017\community\vc\tools\msvc\14.16.27023\atlmfc\include\afxtempl.h
;	COMDAT ??0?$CMap@GGPAUtagGameServerInfo@@PAU1@@@QAE@H@Z
_TEXT	SEGMENT
_this$ = -16						; size = 4
__$EHRec$ = -12						; size = 12
_nBlockSize$ = 8					; size = 4
??0?$CMap@GGPAUtagGameServerInfo@@PAU1@@@QAE@H@Z PROC	; CMap<unsigned short,unsigned short,tagGameServerInfo *,tagGameServerInfo *>::CMap<unsigned short,unsigned short,tagGameServerInfo *,tagGameServerInfo *>, COMDAT
; _this$ = ecx

; 1403 : {

  00000	55		 push	 ebp
  00001	8b ec		 mov	 ebp, esp
  00003	6a ff		 push	 -1
  00005	68 00 00 00 00	 push	 __ehhandler$??0?$CMap@GGPAUtagGameServerInfo@@PAU1@@@QAE@H@Z
  0000a	64 a1 00 00 00
	00		 mov	 eax, DWORD PTR fs:0
  00010	50		 push	 eax
  00011	83 ec 44	 sub	 esp, 68			; 00000044H
  00014	53		 push	 ebx
  00015	56		 push	 esi
  00016	57		 push	 edi
  00017	a1 00 00 00 00	 mov	 eax, DWORD PTR ___security_cookie
  0001c	33 c5		 xor	 eax, ebp
  0001e	50		 push	 eax
  0001f	8d 45 f4	 lea	 eax, DWORD PTR __$EHRec$[ebp]
  00022	64 a3 00 00 00
	00		 mov	 DWORD PTR fs:0, eax
  00028	89 4d f0	 mov	 DWORD PTR _this$[ebp], ecx
  0002b	8b 4d f0	 mov	 ecx, DWORD PTR _this$[ebp]
  0002e	e8 00 00 00 00	 call	 ??0CObject@@IAE@XZ	; CObject::CObject
  00033	c7 45 fc 00 00
	00 00		 mov	 DWORD PTR __$EHRec$[ebp+8], 0
  0003a	8b 45 f0	 mov	 eax, DWORD PTR _this$[ebp]
  0003d	c7 00 00 00 00
	00		 mov	 DWORD PTR [eax], OFFSET ??_7?$CMap@GGPAUtagGameServerInfo@@PAU1@@@6B@

; 1404 : 	ASSERT(nBlockSize > 0);

  00043	83 7d 08 00	 cmp	 DWORD PTR _nBlockSize$[ebp], 0
  00047	7f 14		 jg	 SHORT $LN3@CMap
  00049	68 7c 05 00 00	 push	 1404			; 0000057cH
  0004e	68 00 00 00 00	 push	 OFFSET ??_C@_0HC@HBCNBCLF@c?3?2program?5files?5?$CIx86?$CJ?2microsof@
  00053	e8 00 00 00 00	 call	 ?AfxAssertFailedLine@@YGHPBDH@Z ; AfxAssertFailedLine
  00058	85 c0		 test	 eax, eax
  0005a	74 01		 je	 SHORT $LN3@CMap
  0005c	cc		 int	 3
$LN3@CMap:

; 1405 : 
; 1406 : 	m_pHashTable = NULL;

  0005d	8b 45 f0	 mov	 eax, DWORD PTR _this$[ebp]
  00060	c7 40 04 00 00
	00 00		 mov	 DWORD PTR [eax+4], 0

; 1407 : 	m_nHashTableSize = 17;  // default size

  00067	8b 45 f0	 mov	 eax, DWORD PTR _this$[ebp]
  0006a	c7 40 08 11 00
	00 00		 mov	 DWORD PTR [eax+8], 17	; 00000011H

; 1408 : 	m_nCount = 0;

  00071	8b 45 f0	 mov	 eax, DWORD PTR _this$[ebp]
  00074	c7 40 0c 00 00
	00 00		 mov	 DWORD PTR [eax+12], 0

; 1409 : 	m_pFreeList = NULL;

  0007b	8b 45 f0	 mov	 eax, DWORD PTR _this$[ebp]
  0007e	c7 40 10 00 00
	00 00		 mov	 DWORD PTR [eax+16], 0

; 1410 : 	m_pBlocks = NULL;

  00085	8b 45 f0	 mov	 eax, DWORD PTR _this$[ebp]
  00088	c7 40 14 00 00
	00 00		 mov	 DWORD PTR [eax+20], 0

; 1411 : 	m_nBlockSize = nBlockSize;

  0008f	8b 45 f0	 mov	 eax, DWORD PTR _this$[ebp]
  00092	8b 4d 08	 mov	 ecx, DWORD PTR _nBlockSize$[ebp]
  00095	89 48 18	 mov	 DWORD PTR [eax+24], ecx

; 1412 : }

  00098	c7 45 fc ff ff
	ff ff		 mov	 DWORD PTR __$EHRec$[ebp+8], -1
  0009f	8b 45 f0	 mov	 eax, DWORD PTR _this$[ebp]
  000a2	8b 4d f4	 mov	 ecx, DWORD PTR __$EHRec$[ebp]
  000a5	64 89 0d 00 00
	00 00		 mov	 DWORD PTR fs:0, ecx
  000ac	59		 pop	 ecx
  000ad	5f		 pop	 edi
  000ae	5e		 pop	 esi
  000af	5b		 pop	 ebx
  000b0	8b e5		 mov	 esp, ebp
  000b2	5d		 pop	 ebp
  000b3	c2 04 00	 ret	 4
_TEXT	ENDS
;	COMDAT text$x
text$x	SEGMENT
__unwindfunclet$??0?$CMap@GGPAUtagGameServerInfo@@PAU1@@@QAE@H@Z$0:
  00000	8b 4d f0	 mov	 ecx, DWORD PTR _this$[ebp]
  00003	e9 00 00 00 00	 jmp	 ??1CObject@@UAE@XZ	; CObject::~CObject
__ehhandler$??0?$CMap@GGPAUtagGameServerInfo@@PAU1@@@QAE@H@Z:
  00008	8b 54 24 08	 mov	 edx, DWORD PTR [esp+8]
  0000c	8d 42 0c	 lea	 eax, DWORD PTR [edx+12]
  0000f	8b 4a ac	 mov	 ecx, DWORD PTR [edx-84]
  00012	33 c8		 xor	 ecx, eax
  00014	e8 00 00 00 00	 call	 @__security_check_cookie@4
  00019	b8 00 00 00 00	 mov	 eax, OFFSET __ehfuncinfo$??0?$CMap@GGPAUtagGameServerInfo@@PAU1@@@QAE@H@Z
  0001e	e9 00 00 00 00	 jmp	 ___CxxFrameHandler3
text$x	ENDS
??0?$CMap@GGPAUtagGameServerInfo@@PAU1@@@QAE@H@Z ENDP	; CMap<unsigned short,unsigned short,tagGameServerInfo *,tagGameServerInfo *>::CMap<unsigned short,unsigned short,tagGameServerInfo *,tagGameServerInfo *>
; Function compile flags: /Odtp /ZI
;	COMDAT ??_ECModuleDBParameter@@UAEPAXI@Z
_TEXT	SEGMENT
_this$ = -16						; size = 4
__$EHRec$ = -12						; size = 12
___flags$ = 8						; size = 4
??_ECModuleDBParameter@@UAEPAXI@Z PROC			; CModuleDBParameter::`vector deleting destructor', COMDAT
; _this$ = ecx
  00000	55		 push	 ebp
  00001	8b ec		 mov	 ebp, esp
  00003	6a ff		 push	 -1
  00005	68 00 00 00 00	 push	 __ehhandler$??_ECModuleDBParameter@@UAEPAXI@Z
  0000a	64 a1 00 00 00
	00		 mov	 eax, DWORD PTR fs:0
  00010	50		 push	 eax
  00011	83 ec 44	 sub	 esp, 68			; 00000044H
  00014	53		 push	 ebx
  00015	56		 push	 esi
  00016	57		 push	 edi
  00017	a1 00 00 00 00	 mov	 eax, DWORD PTR ___security_cookie
  0001c	33 c5		 xor	 eax, ebp
  0001e	50		 push	 eax
  0001f	8d 45 f4	 lea	 eax, DWORD PTR __$EHRec$[ebp]
  00022	64 a3 00 00 00
	00		 mov	 DWORD PTR fs:0, eax
  00028	89 4d f0	 mov	 DWORD PTR _this$[ebp], ecx
  0002b	8b 45 08	 mov	 eax, DWORD PTR ___flags$[ebp]
  0002e	83 e0 02	 and	 eax, 2
  00031	74 47		 je	 SHORT $LN2@vector
  00033	68 00 00 00 00	 push	 OFFSET ??1CModuleDBParameter@@UAE@XZ ; CModuleDBParameter::~CModuleDBParameter
  00038	8b 45 f0	 mov	 eax, DWORD PTR _this$[ebp]
  0003b	8b 48 fc	 mov	 ecx, DWORD PTR [eax-4]
  0003e	51		 push	 ecx
  0003f	68 08 01 00 00	 push	 264			; 00000108H
  00044	8b 55 f0	 mov	 edx, DWORD PTR _this$[ebp]
  00047	52		 push	 edx
  00048	e8 00 00 00 00	 call	 ??_M@YGXPAXIIP6EX0@Z@Z
  0004d	8b 45 08	 mov	 eax, DWORD PTR ___flags$[ebp]
  00050	83 e0 01	 and	 eax, 1
  00053	74 1d		 je	 SHORT $LN3@vector
  00055	8b 45 f0	 mov	 eax, DWORD PTR _this$[ebp]
  00058	69 48 fc 08 01
	00 00		 imul	 ecx, DWORD PTR [eax-4], 264
  0005f	83 c1 04	 add	 ecx, 4
  00062	51		 push	 ecx
  00063	8b 55 f0	 mov	 edx, DWORD PTR _this$[ebp]
  00066	83 ea 04	 sub	 edx, 4
  00069	52		 push	 edx
  0006a	e8 00 00 00 00	 call	 ??_V@YAXPAXI@Z		; operator delete[]
  0006f	83 c4 08	 add	 esp, 8
$LN3@vector:
  00072	8b 45 f0	 mov	 eax, DWORD PTR _this$[ebp]
  00075	83 e8 04	 sub	 eax, 4
  00078	eb 24		 jmp	 SHORT $LN5@vector
$LN2@vector:
  0007a	8b 4d f0	 mov	 ecx, DWORD PTR _this$[ebp]
  0007d	e8 00 00 00 00	 call	 ??1CModuleDBParameter@@UAE@XZ ; CModuleDBParameter::~CModuleDBParameter
  00082	8b 45 08	 mov	 eax, DWORD PTR ___flags$[ebp]
  00085	83 e0 01	 and	 eax, 1
  00088	74 11		 je	 SHORT $LN4@vector
  0008a	68 08 01 00 00	 push	 264			; 00000108H
  0008f	8b 45 f0	 mov	 eax, DWORD PTR _this$[ebp]
  00092	50		 push	 eax
  00093	e8 00 00 00 00	 call	 ??3@YAXPAXI@Z		; operator delete
  00098	83 c4 08	 add	 esp, 8
$LN4@vector:
  0009b	8b 45 f0	 mov	 eax, DWORD PTR _this$[ebp]
$LN5@vector:
  0009e	8b 4d f4	 mov	 ecx, DWORD PTR __$EHRec$[ebp]
  000a1	64 89 0d 00 00
	00 00		 mov	 DWORD PTR fs:0, ecx
  000a8	59		 pop	 ecx
  000a9	5f		 pop	 edi
  000aa	5e		 pop	 esi
  000ab	5b		 pop	 ebx
  000ac	8b e5		 mov	 esp, ebp
  000ae	5d		 pop	 ebp
  000af	c2 04 00	 ret	 4
_TEXT	ENDS
;	COMDAT text$x
text$x	SEGMENT
__ehhandler$??_ECModuleDBParameter@@UAEPAXI@Z:
  00000	8b 54 24 08	 mov	 edx, DWORD PTR [esp+8]
  00004	8d 42 0c	 lea	 eax, DWORD PTR [edx+12]
  00007	8b 4a ac	 mov	 ecx, DWORD PTR [edx-84]
  0000a	33 c8		 xor	 ecx, eax
  0000c	e8 00 00 00 00	 call	 @__security_check_cookie@4
  00011	b8 00 00 00 00	 mov	 eax, OFFSET __ehfuncinfo$??_ECModuleDBParameter@@UAEPAXI@Z
  00016	e9 00 00 00 00	 jmp	 ___CxxFrameHandler3
text$x	ENDS
??_ECModuleDBParameter@@UAEPAXI@Z ENDP			; CModuleDBParameter::`vector deleting destructor'
; Function compile flags: /Odtp /ZI
;	COMDAT ??_GCModuleDBParameter@@UAEPAXI@Z
_TEXT	SEGMENT
_this$ = -4						; size = 4
___flags$ = 8						; size = 4
??_GCModuleDBParameter@@UAEPAXI@Z PROC			; CModuleDBParameter::`scalar deleting destructor', COMDAT
; _this$ = ecx
  00000	55		 push	 ebp
  00001	8b ec		 mov	 ebp, esp
  00003	83 ec 44	 sub	 esp, 68			; 00000044H
  00006	53		 push	 ebx
  00007	56		 push	 esi
  00008	57		 push	 edi
  00009	89 4d fc	 mov	 DWORD PTR _this$[ebp], ecx
  0000c	8b 4d fc	 mov	 ecx, DWORD PTR _this$[ebp]
  0000f	e8 00 00 00 00	 call	 ??1CModuleDBParameter@@UAE@XZ ; CModuleDBParameter::~CModuleDBParameter
  00014	8b 45 08	 mov	 eax, DWORD PTR ___flags$[ebp]
  00017	83 e0 01	 and	 eax, 1
  0001a	74 11		 je	 SHORT $LN2@scalar
  0001c	68 08 01 00 00	 push	 264			; 00000108H
  00021	8b 45 fc	 mov	 eax, DWORD PTR _this$[ebp]
  00024	50		 push	 eax
  00025	e8 00 00 00 00	 call	 ??3@YAXPAXI@Z		; operator delete
  0002a	83 c4 08	 add	 esp, 8
$LN2@scalar:
  0002d	8b 45 fc	 mov	 eax, DWORD PTR _this$[ebp]
  00030	5f		 pop	 edi
  00031	5e		 pop	 esi
  00032	5b		 pop	 ebx
  00033	8b e5		 mov	 esp, ebp
  00035	5d		 pop	 ebp
  00036	c2 04 00	 ret	 4
??_GCModuleDBParameter@@UAEPAXI@Z ENDP			; CModuleDBParameter::`scalar deleting destructor'
_TEXT	ENDS
; Function compile flags: /Odtp /ZI
;	COMDAT ??4CModuleDBParameter@@QAEAAV0@ABV0@@Z
_TEXT	SEGMENT
_this$ = -4						; size = 4
___that$ = 8						; size = 4
??4CModuleDBParameter@@QAEAAV0@ABV0@@Z PROC		; CModuleDBParameter::operator=, COMDAT
; _this$ = ecx
  00000	55		 push	 ebp
  00001	8b ec		 mov	 ebp, esp
  00003	83 ec 44	 sub	 esp, 68			; 00000044H
  00006	53		 push	 ebx
  00007	56		 push	 esi
  00008	57		 push	 edi
  00009	89 4d fc	 mov	 DWORD PTR _this$[ebp], ecx
  0000c	8b 75 08	 mov	 esi, DWORD PTR ___that$[ebp]
  0000f	83 c6 04	 add	 esi, 4
  00012	8b 7d fc	 mov	 edi, DWORD PTR _this$[ebp]
  00015	83 c7 04	 add	 edi, 4
  00018	b9 20 00 00 00	 mov	 ecx, 32			; 00000020H
  0001d	f3 a5		 rep movsd
  0001f	66 a5		 movsw
  00021	8b 75 08	 mov	 esi, DWORD PTR ___that$[ebp]
  00024	81 c6 86 00 00
	00		 add	 esi, 134		; 00000086H
  0002a	8b 7d fc	 mov	 edi, DWORD PTR _this$[ebp]
  0002d	81 c7 86 00 00
	00		 add	 edi, 134		; 00000086H
  00033	b9 20 00 00 00	 mov	 ecx, 32			; 00000020H
  00038	f3 a5		 rep movsd
  0003a	66 a5		 movsw
  0003c	8b 45 fc	 mov	 eax, DWORD PTR _this$[ebp]
  0003f	5f		 pop	 edi
  00040	5e		 pop	 esi
  00041	5b		 pop	 ebx
  00042	8b e5		 mov	 esp, ebp
  00044	5d		 pop	 ebp
  00045	c2 04 00	 ret	 4
??4CModuleDBParameter@@QAEAAV0@ABV0@@Z ENDP		; CModuleDBParameter::operator=
_TEXT	ENDS
; Function compile flags: /Odtp /ZI
;	COMDAT ??0CModuleDBParameter@@QAE@ABV0@@Z
_TEXT	SEGMENT
_this$ = -4						; size = 4
___that$ = 8						; size = 4
??0CModuleDBParameter@@QAE@ABV0@@Z PROC			; CModuleDBParameter::CModuleDBParameter, COMDAT
; _this$ = ecx
  00000	55		 push	 ebp
  00001	8b ec		 mov	 ebp, esp
  00003	83 ec 44	 sub	 esp, 68			; 00000044H
  00006	53		 push	 ebx
  00007	56		 push	 esi
  00008	57		 push	 edi
  00009	89 4d fc	 mov	 DWORD PTR _this$[ebp], ecx
  0000c	8b 45 fc	 mov	 eax, DWORD PTR _this$[ebp]
  0000f	c7 00 00 00 00
	00		 mov	 DWORD PTR [eax], OFFSET ??_7CModuleDBParameter@@6B@
  00015	8b 75 08	 mov	 esi, DWORD PTR ___that$[ebp]
  00018	83 c6 04	 add	 esi, 4
  0001b	8b 7d fc	 mov	 edi, DWORD PTR _this$[ebp]
  0001e	83 c7 04	 add	 edi, 4
  00021	b9 20 00 00 00	 mov	 ecx, 32			; 00000020H
  00026	f3 a5		 rep movsd
  00028	66 a5		 movsw
  0002a	8b 75 08	 mov	 esi, DWORD PTR ___that$[ebp]
  0002d	81 c6 86 00 00
	00		 add	 esi, 134		; 00000086H
  00033	8b 7d fc	 mov	 edi, DWORD PTR _this$[ebp]
  00036	81 c7 86 00 00
	00		 add	 edi, 134		; 00000086H
  0003c	b9 20 00 00 00	 mov	 ecx, 32			; 00000020H
  00041	f3 a5		 rep movsd
  00043	66 a5		 movsw
  00045	8b 45 fc	 mov	 eax, DWORD PTR _this$[ebp]
  00048	5f		 pop	 edi
  00049	5e		 pop	 esi
  0004a	5b		 pop	 ebx
  0004b	8b e5		 mov	 esp, ebp
  0004d	5d		 pop	 ebp
  0004e	c2 04 00	 ret	 4
??0CModuleDBParameter@@QAE@ABV0@@Z ENDP			; CModuleDBParameter::CModuleDBParameter
_TEXT	ENDS
; Function compile flags: /Odtp /ZI
; File g:\网狐\happygamewh\服务端\系统模块\服务器组件\模块管理\moduledbparameter.h
;	COMDAT ?GetModuleDBParameter@CModuleDBParameter@@SAPAV1@XZ
_TEXT	SEGMENT
?GetModuleDBParameter@CModuleDBParameter@@SAPAV1@XZ PROC ; CModuleDBParameter::GetModuleDBParameter, COMDAT

; 46   : 	static CModuleDBParameter * GetModuleDBParameter() { return m_pModuleDBParameter; }

  00000	55		 push	 ebp
  00001	8b ec		 mov	 ebp, esp
  00003	83 ec 40	 sub	 esp, 64			; 00000040H
  00006	53		 push	 ebx
  00007	56		 push	 esi
  00008	57		 push	 edi
  00009	a1 00 00 00 00	 mov	 eax, DWORD PTR ?m_pModuleDBParameter@CModuleDBParameter@@1PAV1@A ; CModuleDBParameter::m_pModuleDBParameter
  0000e	5f		 pop	 edi
  0000f	5e		 pop	 esi
  00010	5b		 pop	 ebx
  00011	8b e5		 mov	 esp, ebp
  00013	5d		 pop	 ebp
  00014	c3		 ret	 0
?GetModuleDBParameter@CModuleDBParameter@@SAPAV1@XZ ENDP ; CModuleDBParameter::GetModuleDBParameter
_TEXT	ENDS
; Function compile flags: /Odtp /ZI
; File g:\网狐\happygamewh\服务端\系统模块\服务器组件\模块管理\moduledbparameter.h
;	COMDAT ?SetGameMatchDBParameter@CModuleDBParameter@@QAEXAAUtagDataBaseParameter@@@Z
_TEXT	SEGMENT
_this$ = -4						; size = 4
_GameMatchDBParameter$ = 8				; size = 4
?SetGameMatchDBParameter@CModuleDBParameter@@QAEXAAUtagDataBaseParameter@@@Z PROC ; CModuleDBParameter::SetGameMatchDBParameter, COMDAT
; _this$ = ecx

; 41   : 	VOID SetGameMatchDBParameter(tagDataBaseParameter & GameMatchDBParameter) { m_GameMatchDBParameter=GameMatchDBParameter; }

  00000	55		 push	 ebp
  00001	8b ec		 mov	 ebp, esp
  00003	83 ec 44	 sub	 esp, 68			; 00000044H
  00006	53		 push	 ebx
  00007	56		 push	 esi
  00008	57		 push	 edi
  00009	89 4d fc	 mov	 DWORD PTR _this$[ebp], ecx
  0000c	8b 7d fc	 mov	 edi, DWORD PTR _this$[ebp]
  0000f	81 c7 86 00 00
	00		 add	 edi, 134		; 00000086H
  00015	b9 20 00 00 00	 mov	 ecx, 32			; 00000020H
  0001a	8b 75 08	 mov	 esi, DWORD PTR _GameMatchDBParameter$[ebp]
  0001d	f3 a5		 rep movsd
  0001f	66 a5		 movsw
  00021	5f		 pop	 edi
  00022	5e		 pop	 esi
  00023	5b		 pop	 ebx
  00024	8b e5		 mov	 esp, ebp
  00026	5d		 pop	 ebp
  00027	c2 04 00	 ret	 4
?SetGameMatchDBParameter@CModuleDBParameter@@QAEXAAUtagDataBaseParameter@@@Z ENDP ; CModuleDBParameter::SetGameMatchDBParameter
_TEXT	ENDS
; Function compile flags: /Odtp /ZI
; File g:\网狐\happygamewh\服务端\系统模块\服务器组件\模块管理\moduledbparameter.h
;	COMDAT ?GetGameMatchDBParameter@CModuleDBParameter@@QAEPAUtagDataBaseParameter@@XZ
_TEXT	SEGMENT
_this$ = -4						; size = 4
?GetGameMatchDBParameter@CModuleDBParameter@@QAEPAUtagDataBaseParameter@@XZ PROC ; CModuleDBParameter::GetGameMatchDBParameter, COMDAT
; _this$ = ecx

; 39   : 	tagDataBaseParameter * GetGameMatchDBParameter() { return &m_GameMatchDBParameter; }

  00000	55		 push	 ebp
  00001	8b ec		 mov	 ebp, esp
  00003	83 ec 44	 sub	 esp, 68			; 00000044H
  00006	53		 push	 ebx
  00007	56		 push	 esi
  00008	57		 push	 edi
  00009	89 4d fc	 mov	 DWORD PTR _this$[ebp], ecx
  0000c	8b 45 fc	 mov	 eax, DWORD PTR _this$[ebp]
  0000f	05 86 00 00 00	 add	 eax, 134		; 00000086H
  00014	5f		 pop	 edi
  00015	5e		 pop	 esi
  00016	5b		 pop	 ebx
  00017	8b e5		 mov	 esp, ebp
  00019	5d		 pop	 ebp
  0001a	c3		 ret	 0
?GetGameMatchDBParameter@CModuleDBParameter@@QAEPAUtagDataBaseParameter@@XZ ENDP ; CModuleDBParameter::GetGameMatchDBParameter
_TEXT	ENDS
; Function compile flags: /Odtp /ZI
; File g:\网狐\happygamewh\服务端\系统模块\服务器组件\模块管理\moduledbparameter.h
;	COMDAT ?SetPlatformDBParameter@CModuleDBParameter@@QAEXAAUtagDataBaseParameter@@@Z
_TEXT	SEGMENT
_this$ = -4						; size = 4
_PlatformDBParameter$ = 8				; size = 4
?SetPlatformDBParameter@CModuleDBParameter@@QAEXAAUtagDataBaseParameter@@@Z PROC ; CModuleDBParameter::SetPlatformDBParameter, COMDAT
; _this$ = ecx

; 34   : 	VOID SetPlatformDBParameter(tagDataBaseParameter & PlatformDBParameter) { m_PlatformDBParameter=PlatformDBParameter; }

  00000	55		 push	 ebp
  00001	8b ec		 mov	 ebp, esp
  00003	83 ec 44	 sub	 esp, 68			; 00000044H
  00006	53		 push	 ebx
  00007	56		 push	 esi
  00008	57		 push	 edi
  00009	89 4d fc	 mov	 DWORD PTR _this$[ebp], ecx
  0000c	8b 7d fc	 mov	 edi, DWORD PTR _this$[ebp]
  0000f	83 c7 04	 add	 edi, 4
  00012	b9 20 00 00 00	 mov	 ecx, 32			; 00000020H
  00017	8b 75 08	 mov	 esi, DWORD PTR _PlatformDBParameter$[ebp]
  0001a	f3 a5		 rep movsd
  0001c	66 a5		 movsw
  0001e	5f		 pop	 edi
  0001f	5e		 pop	 esi
  00020	5b		 pop	 ebx
  00021	8b e5		 mov	 esp, ebp
  00023	5d		 pop	 ebp
  00024	c2 04 00	 ret	 4
?SetPlatformDBParameter@CModuleDBParameter@@QAEXAAUtagDataBaseParameter@@@Z ENDP ; CModuleDBParameter::SetPlatformDBParameter
_TEXT	ENDS
; Function compile flags: /Odtp /ZI
; File g:\网狐\happygamewh\服务端\系统模块\服务器组件\模块管理\moduledbparameter.h
;	COMDAT ?GetPlatformDBParameter@CModuleDBParameter@@QAEPAUtagDataBaseParameter@@XZ
_TEXT	SEGMENT
_this$ = -4						; size = 4
?GetPlatformDBParameter@CModuleDBParameter@@QAEPAUtagDataBaseParameter@@XZ PROC ; CModuleDBParameter::GetPlatformDBParameter, COMDAT
; _this$ = ecx

; 32   : 	tagDataBaseParameter * GetPlatformDBParameter() { return &m_PlatformDBParameter; }

  00000	55		 push	 ebp
  00001	8b ec		 mov	 ebp, esp
  00003	83 ec 44	 sub	 esp, 68			; 00000044H
  00006	53		 push	 ebx
  00007	56		 push	 esi
  00008	57		 push	 edi
  00009	89 4d fc	 mov	 DWORD PTR _this$[ebp], ecx
  0000c	8b 45 fc	 mov	 eax, DWORD PTR _this$[ebp]
  0000f	83 c0 04	 add	 eax, 4
  00012	5f		 pop	 edi
  00013	5e		 pop	 esi
  00014	5b		 pop	 ebx
  00015	8b e5		 mov	 esp, ebp
  00017	5d		 pop	 ebp
  00018	c3		 ret	 0
?GetPlatformDBParameter@CModuleDBParameter@@QAEPAUtagDataBaseParameter@@XZ ENDP ; CModuleDBParameter::GetPlatformDBParameter
_TEXT	ENDS
; Function compile flags: /Odtp /ZI
;	COMDAT ??_GCDataBaseHelper@@UAEPAXI@Z
_TEXT	SEGMENT
_this$ = -4						; size = 4
___flags$ = 8						; size = 4
??_GCDataBaseHelper@@UAEPAXI@Z PROC			; CDataBaseHelper::`scalar deleting destructor', COMDAT
; _this$ = ecx
  00000	55		 push	 ebp
  00001	8b ec		 mov	 ebp, esp
  00003	83 ec 44	 sub	 esp, 68			; 00000044H
  00006	53		 push	 ebx
  00007	56		 push	 esi
  00008	57		 push	 edi
  00009	89 4d fc	 mov	 DWORD PTR _this$[ebp], ecx
  0000c	8b 4d fc	 mov	 ecx, DWORD PTR _this$[ebp]
  0000f	e8 00 00 00 00	 call	 ??1CDataBaseHelper@@UAE@XZ
  00014	8b 45 08	 mov	 eax, DWORD PTR ___flags$[ebp]
  00017	83 e0 01	 and	 eax, 1
  0001a	74 11		 je	 SHORT $LN2@scalar
  0001c	68 d8 01 00 00	 push	 472			; 000001d8H
  00021	8b 45 fc	 mov	 eax, DWORD PTR _this$[ebp]
  00024	50		 push	 eax
  00025	e8 00 00 00 00	 call	 ??3@YAXPAXI@Z		; operator delete
  0002a	83 c4 08	 add	 esp, 8
$LN2@scalar:
  0002d	8b 45 fc	 mov	 eax, DWORD PTR _this$[ebp]
  00030	5f		 pop	 edi
  00031	5e		 pop	 esi
  00032	5b		 pop	 ebx
  00033	8b e5		 mov	 esp, ebp
  00035	5d		 pop	 ebp
  00036	c2 04 00	 ret	 4
??_GCDataBaseHelper@@UAEPAXI@Z ENDP			; CDataBaseHelper::`scalar deleting destructor'
_TEXT	ENDS
; Function compile flags: /Odtp /ZI
;	COMDAT ??1CDataBaseHelper@@UAE@XZ
_TEXT	SEGMENT
_this$ = -4						; size = 4
??1CDataBaseHelper@@UAE@XZ PROC				; CDataBaseHelper::~CDataBaseHelper, COMDAT
; _this$ = ecx
  00000	55		 push	 ebp
  00001	8b ec		 mov	 ebp, esp
  00003	83 ec 44	 sub	 esp, 68			; 00000044H
  00006	53		 push	 ebx
  00007	56		 push	 esi
  00008	57		 push	 edi
  00009	89 4d fc	 mov	 DWORD PTR _this$[ebp], ecx
  0000c	8b 4d fc	 mov	 ecx, DWORD PTR _this$[ebp]
  0000f	e8 00 00 00 00	 call	 ??1?$CTempldateHelper@UIDataBase@@@@UAE@XZ ; CTempldateHelper<IDataBase>::~CTempldateHelper<IDataBase>
  00014	5f		 pop	 edi
  00015	5e		 pop	 esi
  00016	5b		 pop	 ebx
  00017	8b e5		 mov	 esp, ebp
  00019	5d		 pop	 ebp
  0001a	c3		 ret	 0
??1CDataBaseHelper@@UAE@XZ ENDP				; CDataBaseHelper::~CDataBaseHelper
_TEXT	ENDS
; Function compile flags: /Odtp /ZI
; File g:\网狐\happygamewh\服务端\系统模块\服务器组件\内核引擎\kernelenginehead.h
;	COMDAT ??0CDataBaseHelper@@QAE@XZ
_TEXT	SEGMENT
_this$ = -4						; size = 4
??0CDataBaseHelper@@QAE@XZ PROC				; CDataBaseHelper::CDataBaseHelper, COMDAT
; _this$ = ecx

; 842  : DECLARE_MODULE_HELPER(DataBase, KERNEL_ENGINE_DLL_NAME, "CreateDataBase")

  00000	55		 push	 ebp
  00001	8b ec		 mov	 ebp, esp
  00003	83 ec 44	 sub	 esp, 68			; 00000044H
  00006	53		 push	 ebx
  00007	56		 push	 esi
  00008	57		 push	 edi
  00009	89 4d fc	 mov	 DWORD PTR _this$[ebp], ecx
  0000c	68 00 00 00 00	 push	 OFFSET ??_C@_0P@IKJBDFNG@CreateDataBase@
  00011	68 00 00 00 00	 push	 OFFSET ??_C@_0BB@BEMLEOHB@KernelEngine?4dll@
  00016	68 00 01 01 06	 push	 100729088		; 06010100H
  0001b	68 00 00 00 00	 push	 OFFSET ?IID_IDataBase@@3U_GUID@@B
  00020	8b 4d fc	 mov	 ecx, DWORD PTR _this$[ebp]
  00023	e8 00 00 00 00	 call	 ??0?$CTempldateHelper@UIDataBase@@@@QAE@ABU_GUID@@KPBD1@Z ; CTempldateHelper<IDataBase>::CTempldateHelper<IDataBase>
  00028	8b 45 fc	 mov	 eax, DWORD PTR _this$[ebp]
  0002b	c7 00 00 00 00
	00		 mov	 DWORD PTR [eax], OFFSET ??_7CDataBaseHelper@@6B@
  00031	8b 45 fc	 mov	 eax, DWORD PTR _this$[ebp]
  00034	5f		 pop	 edi
  00035	5e		 pop	 esi
  00036	5b		 pop	 ebx
  00037	8b e5		 mov	 esp, ebp
  00039	5d		 pop	 ebp
  0003a	c3		 ret	 0
??0CDataBaseHelper@@QAE@XZ ENDP				; CDataBaseHelper::CDataBaseHelper
_TEXT	ENDS
; Function compile flags: /Odtp /ZI
;	COMDAT ??_G?$CTempldateHelper@UIDataBase@@@@UAEPAXI@Z
_TEXT	SEGMENT
_this$ = -4						; size = 4
___flags$ = 8						; size = 4
??_G?$CTempldateHelper@UIDataBase@@@@UAEPAXI@Z PROC	; CTempldateHelper<IDataBase>::`scalar deleting destructor', COMDAT
; _this$ = ecx
  00000	55		 push	 ebp
  00001	8b ec		 mov	 ebp, esp
  00003	83 ec 44	 sub	 esp, 68			; 00000044H
  00006	53		 push	 ebx
  00007	56		 push	 esi
  00008	57		 push	 edi
  00009	89 4d fc	 mov	 DWORD PTR _this$[ebp], ecx
  0000c	8b 4d fc	 mov	 ecx, DWORD PTR _this$[ebp]
  0000f	e8 00 00 00 00	 call	 ??1?$CTempldateHelper@UIDataBase@@@@UAE@XZ ; CTempldateHelper<IDataBase>::~CTempldateHelper<IDataBase>
  00014	8b 45 08	 mov	 eax, DWORD PTR ___flags$[ebp]
  00017	83 e0 01	 and	 eax, 1
  0001a	74 11		 je	 SHORT $LN2@scalar
  0001c	68 d8 01 00 00	 push	 472			; 000001d8H
  00021	8b 45 fc	 mov	 eax, DWORD PTR _this$[ebp]
  00024	50		 push	 eax
  00025	e8 00 00 00 00	 call	 ??3@YAXPAXI@Z		; operator delete
  0002a	83 c4 08	 add	 esp, 8
$LN2@scalar:
  0002d	8b 45 fc	 mov	 eax, DWORD PTR _this$[ebp]
  00030	5f		 pop	 edi
  00031	5e		 pop	 esi
  00032	5b		 pop	 ebx
  00033	8b e5		 mov	 esp, ebp
  00035	5d		 pop	 ebp
  00036	c2 04 00	 ret	 4
??_G?$CTempldateHelper@UIDataBase@@@@UAEPAXI@Z ENDP	; CTempldateHelper<IDataBase>::`scalar deleting destructor'
_TEXT	ENDS
; Function compile flags: /Odtp /ZI
; File g:\网狐\happygamewh\服务端\系统模块\全局定义\module.h
;	COMDAT ?GetInterface@?$CTempldateHelper@UIDataBase@@@@QBEPAUIDataBase@@XZ
_TEXT	SEGMENT
_this$ = -4						; size = 4
?GetInterface@?$CTempldateHelper@UIDataBase@@@@QBEPAUIDataBase@@XZ PROC ; CTempldateHelper<IDataBase>::GetInterface, COMDAT
; _this$ = ecx

; 316  : { 

  00000	55		 push	 ebp
  00001	8b ec		 mov	 ebp, esp
  00003	83 ec 44	 sub	 esp, 68			; 00000044H
  00006	53		 push	 ebx
  00007	56		 push	 esi
  00008	57		 push	 edi
  00009	89 4d fc	 mov	 DWORD PTR _this$[ebp], ecx

; 317  : 	return m_pIModeluInterface; 

  0000c	8b 45 fc	 mov	 eax, DWORD PTR _this$[ebp]
  0000f	8b 80 54 01 00
	00		 mov	 eax, DWORD PTR [eax+340]

; 318  : }

  00015	5f		 pop	 edi
  00016	5e		 pop	 esi
  00017	5b		 pop	 ebx
  00018	8b e5		 mov	 esp, ebp
  0001a	5d		 pop	 ebp
  0001b	c3		 ret	 0
?GetInterface@?$CTempldateHelper@UIDataBase@@@@QBEPAUIDataBase@@XZ ENDP ; CTempldateHelper<IDataBase>::GetInterface
_TEXT	ENDS
; Function compile flags: /Odtp /ZI
; File g:\网狐\happygamewh\服务端\系统模块\全局定义\module.h
;	COMDAT ??C?$CTempldateHelper@UIDataBase@@@@QBEPAUIDataBase@@XZ
_TEXT	SEGMENT
_this$ = -4						; size = 4
??C?$CTempldateHelper@UIDataBase@@@@QBEPAUIDataBase@@XZ PROC ; CTempldateHelper<IDataBase>::operator->, COMDAT
; _this$ = ecx

; 309  : { 

  00000	55		 push	 ebp
  00001	8b ec		 mov	 ebp, esp
  00003	83 ec 44	 sub	 esp, 68			; 00000044H
  00006	53		 push	 ebx
  00007	56		 push	 esi
  00008	57		 push	 edi
  00009	89 4d fc	 mov	 DWORD PTR _this$[ebp], ecx

; 310  : 	return GetInterface(); 

  0000c	8b 4d fc	 mov	 ecx, DWORD PTR _this$[ebp]
  0000f	e8 00 00 00 00	 call	 ?GetInterface@?$CTempldateHelper@UIDataBase@@@@QBEPAUIDataBase@@XZ ; CTempldateHelper<IDataBase>::GetInterface

; 311  : }

  00014	5f		 pop	 edi
  00015	5e		 pop	 esi
  00016	5b		 pop	 ebx
  00017	8b e5		 mov	 esp, ebp
  00019	5d		 pop	 ebp
  0001a	c3		 ret	 0
??C?$CTempldateHelper@UIDataBase@@@@QBEPAUIDataBase@@XZ ENDP ; CTempldateHelper<IDataBase>::operator->
_TEXT	ENDS
; Function compile flags: /Odtp /ZI
; File g:\网狐\happygamewh\服务端\系统模块\全局定义\module.h
;	COMDAT ?CreateInstance@?$CTempldateHelper@UIDataBase@@@@QAE_NXZ
_TEXT	SEGMENT
tv173 = -100						; size = 4
tv172 = -100						; size = 4
tv171 = -100						; size = 4
tv170 = -100						; size = 4
$T2 = -94						; size = 1
$T3 = -93						; size = 1
_pszError$4 = -28					; size = 4
_CreateProc$5 = -24					; size = 4
_this$ = -20						; size = 4
__$EHRec$ = -16						; size = 16
?CreateInstance@?$CTempldateHelper@UIDataBase@@@@QAE_NXZ PROC ; CTempldateHelper<IDataBase>::CreateInstance, COMDAT
; _this$ = ecx

; 212  : {

  00000	55		 push	 ebp
  00001	8b ec		 mov	 ebp, esp
  00003	6a ff		 push	 -1
  00005	68 00 00 00 00	 push	 __ehhandler$?CreateInstance@?$CTempldateHelper@UIDataBase@@@@QAE_NXZ
  0000a	64 a1 00 00 00
	00		 mov	 eax, DWORD PTR fs:0
  00010	50		 push	 eax
  00011	51		 push	 ecx
  00012	83 ec 54	 sub	 esp, 84			; 00000054H
  00015	53		 push	 ebx
  00016	56		 push	 esi
  00017	57		 push	 edi
  00018	a1 00 00 00 00	 mov	 eax, DWORD PTR ___security_cookie
  0001d	33 c5		 xor	 eax, ebp
  0001f	50		 push	 eax
  00020	8d 45 f4	 lea	 eax, DWORD PTR __$EHRec$[ebp+4]
  00023	64 a3 00 00 00
	00		 mov	 DWORD PTR fs:0, eax
  00029	89 65 f0	 mov	 DWORD PTR __$EHRec$[ebp], esp
  0002c	89 4d ec	 mov	 DWORD PTR _this$[ebp], ecx

; 213  : 	//释放组件
; 214  : 	CloseInstance();

  0002f	8b 4d ec	 mov	 ecx, DWORD PTR _this$[ebp]
  00032	e8 00 00 00 00	 call	 ?CloseInstance@?$CTempldateHelper@UIDataBase@@@@QAE_NXZ ; CTempldateHelper<IDataBase>::CloseInstance

; 215  : 
; 216  : 	//创建组件
; 217  : 	try

  00037	c7 45 fc 00 00
	00 00		 mov	 DWORD PTR __$EHRec$[ebp+12], 0

; 218  : 	{
; 219  : 		//效验参数
; 220  : 		ASSERT(m_szCreateProc[0]!=0);

  0003e	b8 01 00 00 00	 mov	 eax, 1
  00043	6b c8 00	 imul	 ecx, eax, 0
  00046	8b 55 ec	 mov	 edx, DWORD PTR _this$[ebp]
  00049	0f be 44 0a 0c	 movsx	 eax, BYTE PTR [edx+ecx+12]
  0004e	85 c0		 test	 eax, eax
  00050	75 19		 jne	 SHORT $LN7@CreateInst
  00052	68 dc 00 00 00	 push	 220			; 000000dcH
  00057	68 00 00 00 00	 push	 OFFSET ??_C@_0DG@CDIFDKED@g?3?2?M?x?$LK?$PM?2happygamewh?2?$LH?$PO?N?q?$LG?K?2?O?$LF?M?$LD@
  0005c	e8 00 00 00 00	 call	 ?AfxAssertFailedLine@@YGHPBDH@Z ; AfxAssertFailedLine
  00061	89 45 9c	 mov	 DWORD PTR tv170[ebp], eax
  00064	83 7d 9c 00	 cmp	 DWORD PTR tv170[ebp], 0
  00068	74 01		 je	 SHORT $LN7@CreateInst
  0006a	cc		 int	 3
$LN7@CreateInst:

; 221  : 		ASSERT(m_szModuleDllName[0]!=0);

  0006b	b8 01 00 00 00	 mov	 eax, 1
  00070	6b c8 00	 imul	 ecx, eax, 0
  00073	8b 55 ec	 mov	 edx, DWORD PTR _this$[ebp]
  00076	0f be 44 0a 4c	 movsx	 eax, BYTE PTR [edx+ecx+76]
  0007b	85 c0		 test	 eax, eax
  0007d	75 19		 jne	 SHORT $LN8@CreateInst
  0007f	68 dd 00 00 00	 push	 221			; 000000ddH
  00084	68 00 00 00 00	 push	 OFFSET ??_C@_0DG@CDIFDKED@g?3?2?M?x?$LK?$PM?2happygamewh?2?$LH?$PO?N?q?$LG?K?2?O?$LF?M?$LD@
  00089	e8 00 00 00 00	 call	 ?AfxAssertFailedLine@@YGHPBDH@Z ; AfxAssertFailedLine
  0008e	89 45 9c	 mov	 DWORD PTR tv171[ebp], eax
  00091	83 7d 9c 00	 cmp	 DWORD PTR tv171[ebp], 0
  00095	74 01		 je	 SHORT $LN8@CreateInst
  00097	cc		 int	 3
$LN8@CreateInst:

; 222  : 
; 223  : 		//加载模块
; 224  : 		m_hDllInstance=AfxLoadLibrary(m_szModuleDllName);

  00098	8b 45 ec	 mov	 eax, DWORD PTR _this$[ebp]
  0009b	83 c0 4c	 add	 eax, 76			; 0000004cH
  0009e	50		 push	 eax
  0009f	e8 00 00 00 00	 call	 ?AfxLoadLibrary@@YGPAUHINSTANCE__@@PBD@Z ; AfxLoadLibrary
  000a4	89 45 9c	 mov	 DWORD PTR tv172[ebp], eax
  000a7	8b 4d ec	 mov	 ecx, DWORD PTR _this$[ebp]
  000aa	8b 55 9c	 mov	 edx, DWORD PTR tv172[ebp]
  000ad	89 91 50 01 00
	00		 mov	 DWORD PTR [ecx+336], edx

; 225  : 		if (m_hDllInstance==NULL) 

  000b3	8b 45 ec	 mov	 eax, DWORD PTR _this$[ebp]
  000b6	83 b8 50 01 00
	00 00		 cmp	 DWORD PTR [eax+336], 0
  000bd	75 2a		 jne	 SHORT $LN3@CreateInst

; 226  : 		{
; 227  : 			_sntprintf_s(m_szDescribe,CountArray(m_szDescribe),TEXT("“%s”模块加载失败"),m_szModuleDllName);

  000bf	8b 45 ec	 mov	 eax, DWORD PTR _this$[ebp]
  000c2	83 c0 4c	 add	 eax, 76			; 0000004cH
  000c5	50		 push	 eax
  000c6	68 00 00 00 00	 push	 OFFSET ??_C@_0BD@LMOFNGMO@?$KB?$LA?$CFs?$KB?$LB?D?$KD?$LP?i?$LM?S?T?X?J?$KH?$LA?$NM@
  000cb	68 80 00 00 00	 push	 128			; 00000080H
  000d0	8b 4d ec	 mov	 ecx, DWORD PTR _this$[ebp]
  000d3	81 c1 58 01 00
	00		 add	 ecx, 344		; 00000158H
  000d9	51		 push	 ecx
  000da	e8 00 00 00 00	 call	 ??$_snprintf_s@$0IA@@@YAHAAY0IA@DIPBDZZ ; _snprintf_s<128>
  000df	83 c4 10	 add	 esp, 16			; 00000010H

; 228  : 			return false;

  000e2	32 c0		 xor	 al, al
  000e4	e9 34 01 00 00	 jmp	 $LN1@CreateInst
$LN3@CreateInst:

; 229  : 		}
; 230  : 
; 231  : 		//寻找函数
; 232  : 		ModuleCreateProc * CreateProc=(ModuleCreateProc *)GetProcAddress(m_hDllInstance,m_szCreateProc);

  000e9	8b 45 ec	 mov	 eax, DWORD PTR _this$[ebp]
  000ec	83 c0 0c	 add	 eax, 12			; 0000000cH
  000ef	50		 push	 eax
  000f0	8b 4d ec	 mov	 ecx, DWORD PTR _this$[ebp]
  000f3	8b 91 50 01 00
	00		 mov	 edx, DWORD PTR [ecx+336]
  000f9	52		 push	 edx
  000fa	ff 15 00 00 00
	00		 call	 DWORD PTR __imp__GetProcAddress@8
  00100	89 45 e8	 mov	 DWORD PTR _CreateProc$5[ebp], eax

; 233  : 		if (CreateProc==NULL) 

  00103	83 7d e8 00	 cmp	 DWORD PTR _CreateProc$5[ebp], 0
  00107	75 31		 jne	 SHORT $LN4@CreateInst

; 234  : 		{		
; 235  : 			_sntprintf_s(m_szDescribe, CountArray(m_szDescribe), TEXT("找不到组件创建函数“%s”:%d"), m_szCreateProc, GetLastError());

  00109	ff 15 00 00 00
	00		 call	 DWORD PTR __imp__GetLastError@0
  0010f	50		 push	 eax
  00110	8b 45 ec	 mov	 eax, DWORD PTR _this$[ebp]
  00113	83 c0 0c	 add	 eax, 12			; 0000000cH
  00116	50		 push	 eax
  00117	68 00 00 00 00	 push	 OFFSET ??_C@_0BM@PEGNCJOH@?U?R?$LC?$LL?$LF?$LN?W?i?$LM?$PO?$LE?$LE?$LN?$KI?$LK?$KP?J?$PN?$KB?$LA?$CFs?$KB?$LB?3?$CFd@
  0011c	68 80 00 00 00	 push	 128			; 00000080H
  00121	8b 4d ec	 mov	 ecx, DWORD PTR _this$[ebp]
  00124	81 c1 58 01 00
	00		 add	 ecx, 344		; 00000158H
  0012a	51		 push	 ecx
  0012b	e8 00 00 00 00	 call	 ??$_snprintf_s@$0IA@@@YAHAAY0IA@DIPBDZZ ; _snprintf_s<128>
  00130	83 c4 14	 add	 esp, 20			; 00000014H

; 236  : 			return false;

  00133	32 c0		 xor	 al, al
  00135	e9 e3 00 00 00	 jmp	 $LN1@CreateInst
$LN4@CreateInst:

; 237  : 		}
; 238  : 
; 239  : 		//创建组件
; 240  : 		m_pIModeluInterface=(IModeluInterface *)CreateProc(m_Guid,m_dwVersion);

  0013a	8b 45 ec	 mov	 eax, DWORD PTR _this$[ebp]
  0013d	8b 48 08	 mov	 ecx, DWORD PTR [eax+8]
  00140	51		 push	 ecx
  00141	8b 55 ec	 mov	 edx, DWORD PTR _this$[ebp]
  00144	8b 42 04	 mov	 eax, DWORD PTR [edx+4]
  00147	50		 push	 eax
  00148	ff 55 e8	 call	 DWORD PTR _CreateProc$5[ebp]
  0014b	83 c4 08	 add	 esp, 8
  0014e	89 45 9c	 mov	 DWORD PTR tv173[ebp], eax
  00151	8b 4d ec	 mov	 ecx, DWORD PTR _this$[ebp]
  00154	8b 55 9c	 mov	 edx, DWORD PTR tv173[ebp]
  00157	89 91 54 01 00
	00		 mov	 DWORD PTR [ecx+340], edx

; 241  : 		if (m_pIModeluInterface==NULL) 

  0015d	8b 45 ec	 mov	 eax, DWORD PTR _this$[ebp]
  00160	83 b8 54 01 00
	00 00		 cmp	 DWORD PTR [eax+340], 0
  00167	75 2a		 jne	 SHORT $LN5@CreateInst

; 242  : 		{
; 243  : 			_sntprintf_s(m_szDescribe,CountArray(m_szDescribe),TEXT("调用函数“%s”生成对象失败"),m_szCreateProc);

  00169	8b 45 ec	 mov	 eax, DWORD PTR _this$[ebp]
  0016c	83 c0 0c	 add	 eax, 12			; 0000000cH
  0016f	50		 push	 eax
  00170	68 00 00 00 00	 push	 OFFSET ??_C@_0BL@PDAODLKM@?$LF?w?S?C?$LK?$KP?J?$PN?$KB?$LA?$CFs?$KB?$LB?I?z?$LD?I?$LG?T?O?s?J?$KH?$LA?$NM@
  00175	68 80 00 00 00	 push	 128			; 00000080H
  0017a	8b 4d ec	 mov	 ecx, DWORD PTR _this$[ebp]
  0017d	81 c1 58 01 00
	00		 add	 ecx, 344		; 00000158H
  00183	51		 push	 ecx
  00184	e8 00 00 00 00	 call	 ??$_snprintf_s@$0IA@@@YAHAAY0IA@DIPBDZZ ; _snprintf_s<128>
  00189	83 c4 10	 add	 esp, 16			; 00000010H

; 244  : 			return false;

  0018c	32 c0		 xor	 al, al
  0018e	e9 8a 00 00 00	 jmp	 $LN1@CreateInst
$LN5@CreateInst:

; 245  : 		}
; 246  : 	}

  00193	eb 63		 jmp	 SHORT $LN9@CreateInst
__catch$?CreateInstance@?$CTempldateHelper@UIDataBase@@@@QAE_NXZ$0:

; 247  : 	catch (LPCTSTR pszError)
; 248  : 	{
; 249  : 		_sntprintf_s(m_szDescribe,CountArray(m_szDescribe),TEXT("由于“%s”，组件创建失败"),pszError);

  00195	8b 45 e4	 mov	 eax, DWORD PTR _pszError$4[ebp]
  00198	50		 push	 eax
  00199	68 00 00 00 00	 push	 OFFSET ??_C@_0BJ@JGPFHIJF@?S?I?S?Z?$KB?$LA?$CFs?$KB?$LB?$KD?$KM?W?i?$LM?$PO?$LE?$LE?$LN?$KI?J?$KH?$LA?$NM@
  0019e	68 80 00 00 00	 push	 128			; 00000080H
  001a3	8b 4d ec	 mov	 ecx, DWORD PTR _this$[ebp]
  001a6	81 c1 58 01 00
	00		 add	 ecx, 344		; 00000158H
  001ac	51		 push	 ecx
  001ad	e8 00 00 00 00	 call	 ??$_snprintf_s@$0IA@@@YAHAAY0IA@DIPBDZZ ; _snprintf_s<128>
  001b2	83 c4 10	 add	 esp, 16			; 00000010H

; 250  : 		return false;

  001b5	c6 45 a3 00	 mov	 BYTE PTR $T3[ebp], 0
  001b9	b8 00 00 00 00	 mov	 eax, $LN13@CreateInst
  001be	c3		 ret	 0

; 251  : 	}

  001bf	b8 00 00 00 00	 mov	 eax, $LN9@CreateInst
  001c4	c3		 ret	 0
__catch$?CreateInstance@?$CTempldateHelper@UIDataBase@@@@QAE_NXZ$1:

; 252  : 	catch (...)	
; 253  : 	{ 
; 254  : 		_sntprintf_s(m_szDescribe,CountArray(m_szDescribe),TEXT("组件创建函数“%s”产生未知异常错误，组件创建失败"),m_szCreateProc);

  001c5	8b 45 ec	 mov	 eax, DWORD PTR _this$[ebp]
  001c8	83 c0 0c	 add	 eax, 12			; 0000000cH
  001cb	50		 push	 eax
  001cc	68 00 00 00 00	 push	 OFFSET ??_C@_0DB@JBNKENAJ@?W?i?$LM?$PO?$LE?$LE?$LN?$KI?$LK?$KP?J?$PN?$KB?$LA?$CFs?$KB?$LB?$LC?z?I?z?N?$LE?V?$KK?R?l?$LD?$KD?$LE@
  001d1	68 80 00 00 00	 push	 128			; 00000080H
  001d6	8b 4d ec	 mov	 ecx, DWORD PTR _this$[ebp]
  001d9	81 c1 58 01 00
	00		 add	 ecx, 344		; 00000158H
  001df	51		 push	 ecx
  001e0	e8 00 00 00 00	 call	 ??$_snprintf_s@$0IA@@@YAHAAY0IA@DIPBDZZ ; _snprintf_s<128>
  001e5	83 c4 10	 add	 esp, 16			; 00000010H

; 255  : 		return false;

  001e8	c6 45 a2 00	 mov	 BYTE PTR $T2[ebp], 0
  001ec	b8 00 00 00 00	 mov	 eax, $LN15@CreateInst
  001f1	c3		 ret	 0

; 256  : 	}

  001f2	b8 00 00 00 00	 mov	 eax, $LN9@CreateInst
  001f7	c3		 ret	 0
$LN9@CreateInst:
  001f8	c7 45 fc ff ff
	ff ff		 mov	 DWORD PTR __$EHRec$[ebp+12], -1
  001ff	eb 0c		 jmp	 SHORT $LN14@CreateInst
$LN15@CreateInst:
  00201	c7 45 fc ff ff
	ff ff		 mov	 DWORD PTR __$EHRec$[ebp+12], -1

; 255  : 		return false;

  00208	8a 45 a2	 mov	 al, BYTE PTR $T2[ebp]
  0020b	eb 10		 jmp	 SHORT $LN1@CreateInst
$LN14@CreateInst:
  0020d	eb 0c		 jmp	 SHORT $LN12@CreateInst
$LN13@CreateInst:
  0020f	c7 45 fc ff ff
	ff ff		 mov	 DWORD PTR __$EHRec$[ebp+12], -1

; 250  : 		return false;

  00216	8a 45 a3	 mov	 al, BYTE PTR $T3[ebp]
  00219	eb 02		 jmp	 SHORT $LN1@CreateInst
$LN12@CreateInst:

; 257  : 
; 258  : 	return true;

  0021b	b0 01		 mov	 al, 1
$LN1@CreateInst:

; 259  : }

  0021d	8b 4d f4	 mov	 ecx, DWORD PTR __$EHRec$[ebp+4]
  00220	64 89 0d 00 00
	00 00		 mov	 DWORD PTR fs:0, ecx
  00227	59		 pop	 ecx
  00228	5f		 pop	 edi
  00229	5e		 pop	 esi
  0022a	5b		 pop	 ebx
  0022b	8b e5		 mov	 esp, ebp
  0022d	5d		 pop	 ebp
  0022e	c3		 ret	 0
_TEXT	ENDS
;	COMDAT text$x
text$x	SEGMENT
__ehhandler$?CreateInstance@?$CTempldateHelper@UIDataBase@@@@QAE_NXZ:
  00000	8b 54 24 08	 mov	 edx, DWORD PTR [esp+8]
  00004	8d 42 0c	 lea	 eax, DWORD PTR [edx+12]
  00007	8b 4a 98	 mov	 ecx, DWORD PTR [edx-104]
  0000a	33 c8		 xor	 ecx, eax
  0000c	e8 00 00 00 00	 call	 @__security_check_cookie@4
  00011	b8 00 00 00 00	 mov	 eax, OFFSET __ehfuncinfo$?CreateInstance@?$CTempldateHelper@UIDataBase@@@@QAE_NXZ
  00016	e9 00 00 00 00	 jmp	 ___CxxFrameHandler3
text$x	ENDS
?CreateInstance@?$CTempldateHelper@UIDataBase@@@@QAE_NXZ ENDP ; CTempldateHelper<IDataBase>::CreateInstance
; Function compile flags: /Odtp /ZI
; File g:\网狐\happygamewh\服务端\系统模块\全局定义\module.h
;	COMDAT ?CloseInstance@?$CTempldateHelper@UIDataBase@@@@QAE_NXZ
_TEXT	SEGMENT
_this$ = -4						; size = 4
?CloseInstance@?$CTempldateHelper@UIDataBase@@@@QAE_NXZ PROC ; CTempldateHelper<IDataBase>::CloseInstance, COMDAT
; _this$ = ecx

; 264  : {

  00000	55		 push	 ebp
  00001	8b ec		 mov	 ebp, esp
  00003	83 ec 44	 sub	 esp, 68			; 00000044H
  00006	53		 push	 ebx
  00007	56		 push	 esi
  00008	57		 push	 edi
  00009	89 4d fc	 mov	 DWORD PTR _this$[ebp], ecx

; 265  : 	//设置变量
; 266  : 	m_szDescribe[0]=0;

  0000c	b8 01 00 00 00	 mov	 eax, 1
  00011	6b c8 00	 imul	 ecx, eax, 0
  00014	8b 55 fc	 mov	 edx, DWORD PTR _this$[ebp]
  00017	c6 84 0a 58 01
	00 00 00	 mov	 BYTE PTR [edx+ecx+344], 0

; 267  : 
; 268  : 	//销毁对象
; 269  : 	if (m_pIModeluInterface!=NULL)

  0001f	8b 45 fc	 mov	 eax, DWORD PTR _this$[ebp]
  00022	83 b8 54 01 00
	00 00		 cmp	 DWORD PTR [eax+340], 0
  00029	74 25		 je	 SHORT $LN2@CloseInsta

; 270  : 	{
; 271  : 		m_pIModeluInterface->Release();

  0002b	8b 45 fc	 mov	 eax, DWORD PTR _this$[ebp]
  0002e	8b 88 54 01 00
	00		 mov	 ecx, DWORD PTR [eax+340]
  00034	8b 55 fc	 mov	 edx, DWORD PTR _this$[ebp]
  00037	8b 01		 mov	 eax, DWORD PTR [ecx]
  00039	8b 8a 54 01 00
	00		 mov	 ecx, DWORD PTR [edx+340]
  0003f	8b 10		 mov	 edx, DWORD PTR [eax]
  00041	ff d2		 call	 edx

; 272  : 		m_pIModeluInterface=NULL;

  00043	8b 45 fc	 mov	 eax, DWORD PTR _this$[ebp]
  00046	c7 80 54 01 00
	00 00 00 00 00	 mov	 DWORD PTR [eax+340], 0
$LN2@CloseInsta:

; 273  : 	}
; 274  : 
; 275  : 	//释放 DLL
; 276  : 	if (m_hDllInstance!=NULL)

  00050	8b 45 fc	 mov	 eax, DWORD PTR _this$[ebp]
  00053	83 b8 50 01 00
	00 00		 cmp	 DWORD PTR [eax+336], 0
  0005a	74 1c		 je	 SHORT $LN3@CloseInsta

; 277  : 	{
; 278  : 		AfxFreeLibrary(m_hDllInstance);

  0005c	8b 45 fc	 mov	 eax, DWORD PTR _this$[ebp]
  0005f	8b 88 50 01 00
	00		 mov	 ecx, DWORD PTR [eax+336]
  00065	51		 push	 ecx
  00066	e8 00 00 00 00	 call	 ?AfxFreeLibrary@@YGHPAUHINSTANCE__@@@Z ; AfxFreeLibrary

; 279  : 		m_hDllInstance=NULL;

  0006b	8b 45 fc	 mov	 eax, DWORD PTR _this$[ebp]
  0006e	c7 80 50 01 00
	00 00 00 00 00	 mov	 DWORD PTR [eax+336], 0
$LN3@CloseInsta:

; 280  : 	}
; 281  : 
; 282  : 	return true;

  00078	b0 01		 mov	 al, 1

; 283  : }

  0007a	5f		 pop	 edi
  0007b	5e		 pop	 esi
  0007c	5b		 pop	 ebx
  0007d	8b e5		 mov	 esp, ebp
  0007f	5d		 pop	 ebp
  00080	c3		 ret	 0
?CloseInstance@?$CTempldateHelper@UIDataBase@@@@QAE_NXZ ENDP ; CTempldateHelper<IDataBase>::CloseInstance
_TEXT	ENDS
; Function compile flags: /Odtp /ZI
; File g:\网狐\happygamewh\服务端\系统模块\全局定义\module.h
;	COMDAT ??1?$CTempldateHelper@UIDataBase@@@@UAE@XZ
_TEXT	SEGMENT
_this$ = -16						; size = 4
__$EHRec$ = -12						; size = 12
??1?$CTempldateHelper@UIDataBase@@@@UAE@XZ PROC		; CTempldateHelper<IDataBase>::~CTempldateHelper<IDataBase>, COMDAT
; _this$ = ecx

; 205  : {

  00000	55		 push	 ebp
  00001	8b ec		 mov	 ebp, esp
  00003	6a ff		 push	 -1
  00005	68 00 00 00 00	 push	 __ehhandler$??1?$CTempldateHelper@UIDataBase@@@@UAE@XZ
  0000a	64 a1 00 00 00
	00		 mov	 eax, DWORD PTR fs:0
  00010	50		 push	 eax
  00011	83 ec 44	 sub	 esp, 68			; 00000044H
  00014	53		 push	 ebx
  00015	56		 push	 esi
  00016	57		 push	 edi
  00017	a1 00 00 00 00	 mov	 eax, DWORD PTR ___security_cookie
  0001c	33 c5		 xor	 eax, ebp
  0001e	50		 push	 eax
  0001f	8d 45 f4	 lea	 eax, DWORD PTR __$EHRec$[ebp]
  00022	64 a3 00 00 00
	00		 mov	 DWORD PTR fs:0, eax
  00028	89 4d f0	 mov	 DWORD PTR _this$[ebp], ecx
  0002b	8b 45 f0	 mov	 eax, DWORD PTR _this$[ebp]
  0002e	c7 00 00 00 00
	00		 mov	 DWORD PTR [eax], OFFSET ??_7?$CTempldateHelper@UIDataBase@@@@6B@

; 206  : 	CloseInstance();

  00034	8b 4d f0	 mov	 ecx, DWORD PTR _this$[ebp]
  00037	e8 00 00 00 00	 call	 ?CloseInstance@?$CTempldateHelper@UIDataBase@@@@QAE_NXZ ; CTempldateHelper<IDataBase>::CloseInstance

; 207  : }

  0003c	8b 4d f4	 mov	 ecx, DWORD PTR __$EHRec$[ebp]
  0003f	64 89 0d 00 00
	00 00		 mov	 DWORD PTR fs:0, ecx
  00046	59		 pop	 ecx
  00047	5f		 pop	 edi
  00048	5e		 pop	 esi
  00049	5b		 pop	 ebx
  0004a	8b e5		 mov	 esp, ebp
  0004c	5d		 pop	 ebp
  0004d	c3		 ret	 0
_TEXT	ENDS
;	COMDAT text$x
text$x	SEGMENT
__ehhandler$??1?$CTempldateHelper@UIDataBase@@@@UAE@XZ:
  00000	8b 54 24 08	 mov	 edx, DWORD PTR [esp+8]
  00004	8d 42 0c	 lea	 eax, DWORD PTR [edx+12]
  00007	8b 4a ac	 mov	 ecx, DWORD PTR [edx-84]
  0000a	33 c8		 xor	 ecx, eax
  0000c	e8 00 00 00 00	 call	 @__security_check_cookie@4
  00011	b8 00 00 00 00	 mov	 eax, OFFSET __ehfuncinfo$??1?$CTempldateHelper@UIDataBase@@@@UAE@XZ
  00016	e9 00 00 00 00	 jmp	 ___CxxFrameHandler3
text$x	ENDS
??1?$CTempldateHelper@UIDataBase@@@@UAE@XZ ENDP		; CTempldateHelper<IDataBase>::~CTempldateHelper<IDataBase>
; Function compile flags: /Odtp /ZI
; File g:\网狐\happygamewh\服务端\系统模块\全局定义\module.h
;	COMDAT ??0?$CTempldateHelper@UIDataBase@@@@QAE@ABU_GUID@@KPBD1@Z
_TEXT	SEGMENT
_this$ = -4						; size = 4
_Guid$ = 8						; size = 4
_dwVersion$ = 12					; size = 4
_pszModuleDll$ = 16					; size = 4
_pszCreateProc$ = 20					; size = 4
??0?$CTempldateHelper@UIDataBase@@@@QAE@ABU_GUID@@KPBD1@Z PROC ; CTempldateHelper<IDataBase>::CTempldateHelper<IDataBase>, COMDAT
; _this$ = ecx

; 187  : {

  00000	55		 push	 ebp
  00001	8b ec		 mov	 ebp, esp
  00003	83 ec 44	 sub	 esp, 68			; 00000044H
  00006	53		 push	 ebx
  00007	56		 push	 esi
  00008	57		 push	 edi
  00009	89 4d fc	 mov	 DWORD PTR _this$[ebp], ecx
  0000c	8b 45 fc	 mov	 eax, DWORD PTR _this$[ebp]
  0000f	c7 00 00 00 00
	00		 mov	 DWORD PTR [eax], OFFSET ??_7?$CTempldateHelper@UIDataBase@@@@6B@

; 186  : CTempldateHelper<IModeluInterface>::CTempldateHelper(REFGUID Guid, DWORD dwVersion, LPCTSTR pszModuleDll, LPCSTR pszCreateProc) : m_dwVersion(dwVersion), m_Guid(Guid)

  00015	8b 45 fc	 mov	 eax, DWORD PTR _this$[ebp]
  00018	8b 4d 08	 mov	 ecx, DWORD PTR _Guid$[ebp]
  0001b	89 48 04	 mov	 DWORD PTR [eax+4], ecx
  0001e	8b 45 fc	 mov	 eax, DWORD PTR _this$[ebp]
  00021	8b 4d 0c	 mov	 ecx, DWORD PTR _dwVersion$[ebp]
  00024	89 48 08	 mov	 DWORD PTR [eax+8], ecx

; 188  : 	//辅助变量
; 189  : 	m_szDescribe[0]=0;

  00027	b8 01 00 00 00	 mov	 eax, 1
  0002c	6b c8 00	 imul	 ecx, eax, 0
  0002f	8b 55 fc	 mov	 edx, DWORD PTR _this$[ebp]
  00032	c6 84 0a 58 01
	00 00 00	 mov	 BYTE PTR [edx+ecx+344], 0

; 190  : 
; 191  : 	//内核信息
; 192  : 	m_hDllInstance=NULL;

  0003a	8b 45 fc	 mov	 eax, DWORD PTR _this$[ebp]
  0003d	c7 80 50 01 00
	00 00 00 00 00	 mov	 DWORD PTR [eax+336], 0

; 193  : 	m_pIModeluInterface=NULL;

  00047	8b 45 fc	 mov	 eax, DWORD PTR _this$[ebp]
  0004a	c7 80 54 01 00
	00 00 00 00 00	 mov	 DWORD PTR [eax+340], 0

; 194  : 
; 195  : 	//组件属性
; 196  : 	lstrcpynA(m_szCreateProc,pszCreateProc,CountArray(m_szCreateProc));

  00054	6a 40		 push	 64			; 00000040H
  00056	8b 45 14	 mov	 eax, DWORD PTR _pszCreateProc$[ebp]
  00059	50		 push	 eax
  0005a	8b 4d fc	 mov	 ecx, DWORD PTR _this$[ebp]
  0005d	83 c1 0c	 add	 ecx, 12			; 0000000cH
  00060	51		 push	 ecx
  00061	ff 15 00 00 00
	00		 call	 DWORD PTR __imp__lstrcpynA@12

; 197  : 	lstrcpyn(m_szModuleDllName,pszModuleDll,CountArray(m_szModuleDllName));

  00067	68 04 01 00 00	 push	 260			; 00000104H
  0006c	8b 45 10	 mov	 eax, DWORD PTR _pszModuleDll$[ebp]
  0006f	50		 push	 eax
  00070	8b 4d fc	 mov	 ecx, DWORD PTR _this$[ebp]
  00073	83 c1 4c	 add	 ecx, 76			; 0000004cH
  00076	51		 push	 ecx
  00077	ff 15 00 00 00
	00		 call	 DWORD PTR __imp__lstrcpynA@12

; 198  : 
; 199  : 	return;
; 200  : }

  0007d	8b 45 fc	 mov	 eax, DWORD PTR _this$[ebp]
  00080	5f		 pop	 edi
  00081	5e		 pop	 esi
  00082	5b		 pop	 ebx
  00083	8b e5		 mov	 esp, ebp
  00085	5d		 pop	 ebp
  00086	c2 10 00	 ret	 16			; 00000010H
??0?$CTempldateHelper@UIDataBase@@@@QAE@ABU_GUID@@KPBD1@Z ENDP ; CTempldateHelper<IDataBase>::CTempldateHelper<IDataBase>
_TEXT	ENDS
; Function compile flags: /Odtp /ZI
; File c:\program files (x86)\microsoft visual studio\2017\community\vc\tools\msvc\14.16.27023\include\xloctime
;	COMDAT ??$_Getvals@_W@?$time_get@_WV?$istreambuf_iterator@_WU?$char_traits@_W@std@@@std@@@std@@IAEX_WABV_Locinfo@1@@Z
_TEXT	SEGMENT
$T1 = -116						; size = 44
_this$ = -8						; size = 4
__$ArrayPad$ = -4					; size = 4
___formal$ = 8						; size = 2
__Lobj$ = 12						; size = 4
??$_Getvals@_W@?$time_get@_WV?$istreambuf_iterator@_WU?$char_traits@_W@std@@@std@@@std@@IAEX_WABV_Locinfo@1@@Z PROC ; std::time_get<wchar_t,std::istreambuf_iterator<wchar_t,std::char_traits<wchar_t> > >::_Getvals<wchar_t>, COMDAT
; _this$ = ecx

; 216  : 		{	// get values

  00000	55		 push	 ebp
  00001	8b ec		 mov	 ebp, esp
  00003	83 ec 74	 sub	 esp, 116		; 00000074H
  00006	a1 00 00 00 00	 mov	 eax, DWORD PTR ___security_cookie
  0000b	33 c5		 xor	 eax, ebp
  0000d	89 45 fc	 mov	 DWORD PTR __$ArrayPad$[ebp], eax
  00010	53		 push	 ebx
  00011	56		 push	 esi
  00012	57		 push	 edi
  00013	89 4d f8	 mov	 DWORD PTR _this$[ebp], ecx

; 217  : 		_Cvt = _Lobj._Getcvt();

  00016	8d 45 8c	 lea	 eax, DWORD PTR $T1[ebp]
  00019	50		 push	 eax
  0001a	8b 4d 0c	 mov	 ecx, DWORD PTR __Lobj$[ebp]
  0001d	ff 15 00 00 00
	00		 call	 DWORD PTR __imp_?_Getcvt@_Locinfo@std@@QBE?AU_Cvtvec@@XZ
  00023	8b 7d f8	 mov	 edi, DWORD PTR _this$[ebp]
  00026	83 c7 18	 add	 edi, 24			; 00000018H
  00029	b9 0b 00 00 00	 mov	 ecx, 11			; 0000000bH
  0002e	8b f0		 mov	 esi, eax
  00030	f3 a5		 rep movsd

; 218  : 
; 219  : 		if (is_same_v<_Elem2, wchar_t>)

  00032	b8 01 00 00 00	 mov	 eax, 1
  00037	85 c0		 test	 eax, eax
  00039	74 45		 je	 SHORT $LN2@Getvals

; 220  : 			{
; 221  : 			_Days = (const _Elem *)_Maklocwcs((const wchar_t *)_Lobj._W_Getdays());

  0003b	8b 4d 0c	 mov	 ecx, DWORD PTR __Lobj$[ebp]
  0003e	ff 15 00 00 00
	00		 call	 DWORD PTR __imp_?_W_Getdays@_Locinfo@std@@QBEPBGXZ
  00044	50		 push	 eax
  00045	e8 00 00 00 00	 call	 ?_Maklocwcs@std@@YAPA_WPB_W@Z ; std::_Maklocwcs
  0004a	83 c4 04	 add	 esp, 4
  0004d	8b 4d f8	 mov	 ecx, DWORD PTR _this$[ebp]
  00050	89 41 08	 mov	 DWORD PTR [ecx+8], eax

; 222  : 			_Months = (const _Elem *)_Maklocwcs((const wchar_t *)_Lobj._W_Getmonths());

  00053	8b 4d 0c	 mov	 ecx, DWORD PTR __Lobj$[ebp]
  00056	ff 15 00 00 00
	00		 call	 DWORD PTR __imp_?_W_Getmonths@_Locinfo@std@@QBEPBGXZ
  0005c	50		 push	 eax
  0005d	e8 00 00 00 00	 call	 ?_Maklocwcs@std@@YAPA_WPB_W@Z ; std::_Maklocwcs
  00062	83 c4 04	 add	 esp, 4
  00065	8b 4d f8	 mov	 ecx, DWORD PTR _this$[ebp]
  00068	89 41 0c	 mov	 DWORD PTR [ecx+12], eax

; 223  : 			_Ampm = (const _Elem *)_Maklocwcs(L":AM:am:PM:pm");

  0006b	68 00 00 00 00	 push	 OFFSET ??_C@_1BK@MHIKGOKE@?$AA?3?$AAA?$AAM?$AA?3?$AAa?$AAm?$AA?3?$AAP?$AAM?$AA?3?$AAp?$AAm@
  00070	e8 00 00 00 00	 call	 ?_Maklocwcs@std@@YAPA_WPB_W@Z ; std::_Maklocwcs
  00075	83 c4 04	 add	 esp, 4
  00078	8b 4d f8	 mov	 ecx, DWORD PTR _this$[ebp]
  0007b	89 41 10	 mov	 DWORD PTR [ecx+16], eax

; 224  : 			}
; 225  : 		else

  0007e	eb 5e		 jmp	 SHORT $LN1@Getvals
$LN2@Getvals:

; 226  : 			{
; 227  : 			_Days = _Maklocstr(_Lobj._Getdays(), static_cast<_Elem *>(nullptr), _Cvt);

  00080	8b 45 f8	 mov	 eax, DWORD PTR _this$[ebp]
  00083	83 c0 18	 add	 eax, 24			; 00000018H
  00086	50		 push	 eax
  00087	6a 00		 push	 0
  00089	8b 4d 0c	 mov	 ecx, DWORD PTR __Lobj$[ebp]
  0008c	ff 15 00 00 00
	00		 call	 DWORD PTR __imp_?_Getdays@_Locinfo@std@@QBEPBDXZ
  00092	50		 push	 eax
  00093	e8 00 00 00 00	 call	 ??$_Maklocstr@_W@std@@YAPA_WPBDPA_WABU_Cvtvec@@@Z ; std::_Maklocstr<wchar_t>
  00098	83 c4 0c	 add	 esp, 12			; 0000000cH
  0009b	8b 4d f8	 mov	 ecx, DWORD PTR _this$[ebp]
  0009e	89 41 08	 mov	 DWORD PTR [ecx+8], eax

; 228  : 			_Months = _Maklocstr(_Lobj._Getmonths(), static_cast<_Elem *>(nullptr), _Cvt);

  000a1	8b 45 f8	 mov	 eax, DWORD PTR _this$[ebp]
  000a4	83 c0 18	 add	 eax, 24			; 00000018H
  000a7	50		 push	 eax
  000a8	6a 00		 push	 0
  000aa	8b 4d 0c	 mov	 ecx, DWORD PTR __Lobj$[ebp]
  000ad	ff 15 00 00 00
	00		 call	 DWORD PTR __imp_?_Getmonths@_Locinfo@std@@QBEPBDXZ
  000b3	50		 push	 eax
  000b4	e8 00 00 00 00	 call	 ??$_Maklocstr@_W@std@@YAPA_WPBDPA_WABU_Cvtvec@@@Z ; std::_Maklocstr<wchar_t>
  000b9	83 c4 0c	 add	 esp, 12			; 0000000cH
  000bc	8b 4d f8	 mov	 ecx, DWORD PTR _this$[ebp]
  000bf	89 41 0c	 mov	 DWORD PTR [ecx+12], eax

; 229  : 			_Ampm = _Maklocstr(":AM:am:PM:pm", static_cast<_Elem *>(nullptr), _Cvt);

  000c2	8b 45 f8	 mov	 eax, DWORD PTR _this$[ebp]
  000c5	83 c0 18	 add	 eax, 24			; 00000018H
  000c8	50		 push	 eax
  000c9	6a 00		 push	 0
  000cb	68 00 00 00 00	 push	 OFFSET ??_C@_0N@LPFKKEBD@?3AM?3am?3PM?3pm@
  000d0	e8 00 00 00 00	 call	 ??$_Maklocstr@_W@std@@YAPA_WPBDPA_WABU_Cvtvec@@@Z ; std::_Maklocstr<wchar_t>
  000d5	83 c4 0c	 add	 esp, 12			; 0000000cH
  000d8	8b 4d f8	 mov	 ecx, DWORD PTR _this$[ebp]
  000db	89 41 10	 mov	 DWORD PTR [ecx+16], eax
$LN1@Getvals:

; 230  : 			}
; 231  : 		}

  000de	5f		 pop	 edi
  000df	5e		 pop	 esi
  000e0	5b		 pop	 ebx
  000e1	8b 4d fc	 mov	 ecx, DWORD PTR __$ArrayPad$[ebp]
  000e4	33 cd		 xor	 ecx, ebp
  000e6	e8 00 00 00 00	 call	 @__security_check_cookie@4
  000eb	8b e5		 mov	 esp, ebp
  000ed	5d		 pop	 ebp
  000ee	c2 08 00	 ret	 8
??$_Getvals@_W@?$time_get@_WV?$istreambuf_iterator@_WU?$char_traits@_W@std@@@std@@@std@@IAEX_WABV_Locinfo@1@@Z ENDP ; std::time_get<wchar_t,std::istreambuf_iterator<wchar_t,std::char_traits<wchar_t> > >::_Getvals<wchar_t>
_TEXT	ENDS
; Function compile flags: /Odtp /ZI
; File c:\program files (x86)\microsoft visual studio\2017\community\vc\tools\msvc\14.16.27023\include\xloctime
;	COMDAT ??$_Getvals@_W@?$time_get@DV?$istreambuf_iterator@DU?$char_traits@D@std@@@std@@@std@@IAEX_WABV_Locinfo@1@@Z
_TEXT	SEGMENT
$T1 = -116						; size = 44
_this$ = -8						; size = 4
__$ArrayPad$ = -4					; size = 4
___formal$ = 8						; size = 2
__Lobj$ = 12						; size = 4
??$_Getvals@_W@?$time_get@DV?$istreambuf_iterator@DU?$char_traits@D@std@@@std@@@std@@IAEX_WABV_Locinfo@1@@Z PROC ; std::time_get<char,std::istreambuf_iterator<char,std::char_traits<char> > >::_Getvals<wchar_t>, COMDAT
; _this$ = ecx

; 216  : 		{	// get values

  00000	55		 push	 ebp
  00001	8b ec		 mov	 ebp, esp
  00003	83 ec 74	 sub	 esp, 116		; 00000074H
  00006	a1 00 00 00 00	 mov	 eax, DWORD PTR ___security_cookie
  0000b	33 c5		 xor	 eax, ebp
  0000d	89 45 fc	 mov	 DWORD PTR __$ArrayPad$[ebp], eax
  00010	53		 push	 ebx
  00011	56		 push	 esi
  00012	57		 push	 edi
  00013	89 4d f8	 mov	 DWORD PTR _this$[ebp], ecx

; 217  : 		_Cvt = _Lobj._Getcvt();

  00016	8d 45 8c	 lea	 eax, DWORD PTR $T1[ebp]
  00019	50		 push	 eax
  0001a	8b 4d 0c	 mov	 ecx, DWORD PTR __Lobj$[ebp]
  0001d	ff 15 00 00 00
	00		 call	 DWORD PTR __imp_?_Getcvt@_Locinfo@std@@QBE?AU_Cvtvec@@XZ
  00023	8b 7d f8	 mov	 edi, DWORD PTR _this$[ebp]
  00026	83 c7 18	 add	 edi, 24			; 00000018H
  00029	b9 0b 00 00 00	 mov	 ecx, 11			; 0000000bH
  0002e	8b f0		 mov	 esi, eax
  00030	f3 a5		 rep movsd

; 218  : 
; 219  : 		if (is_same_v<_Elem2, wchar_t>)

  00032	b8 01 00 00 00	 mov	 eax, 1
  00037	85 c0		 test	 eax, eax
  00039	74 45		 je	 SHORT $LN2@Getvals

; 220  : 			{
; 221  : 			_Days = (const _Elem *)_Maklocwcs((const wchar_t *)_Lobj._W_Getdays());

  0003b	8b 4d 0c	 mov	 ecx, DWORD PTR __Lobj$[ebp]
  0003e	ff 15 00 00 00
	00		 call	 DWORD PTR __imp_?_W_Getdays@_Locinfo@std@@QBEPBGXZ
  00044	50		 push	 eax
  00045	e8 00 00 00 00	 call	 ?_Maklocwcs@std@@YAPA_WPB_W@Z ; std::_Maklocwcs
  0004a	83 c4 04	 add	 esp, 4
  0004d	8b 4d f8	 mov	 ecx, DWORD PTR _this$[ebp]
  00050	89 41 08	 mov	 DWORD PTR [ecx+8], eax

; 222  : 			_Months = (const _Elem *)_Maklocwcs((const wchar_t *)_Lobj._W_Getmonths());

  00053	8b 4d 0c	 mov	 ecx, DWORD PTR __Lobj$[ebp]
  00056	ff 15 00 00 00
	00		 call	 DWORD PTR __imp_?_W_Getmonths@_Locinfo@std@@QBEPBGXZ
  0005c	50		 push	 eax
  0005d	e8 00 00 00 00	 call	 ?_Maklocwcs@std@@YAPA_WPB_W@Z ; std::_Maklocwcs
  00062	83 c4 04	 add	 esp, 4
  00065	8b 4d f8	 mov	 ecx, DWORD PTR _this$[ebp]
  00068	89 41 0c	 mov	 DWORD PTR [ecx+12], eax

; 223  : 			_Ampm = (const _Elem *)_Maklocwcs(L":AM:am:PM:pm");

  0006b	68 00 00 00 00	 push	 OFFSET ??_C@_1BK@MHIKGOKE@?$AA?3?$AAA?$AAM?$AA?3?$AAa?$AAm?$AA?3?$AAP?$AAM?$AA?3?$AAp?$AAm@
  00070	e8 00 00 00 00	 call	 ?_Maklocwcs@std@@YAPA_WPB_W@Z ; std::_Maklocwcs
  00075	83 c4 04	 add	 esp, 4
  00078	8b 4d f8	 mov	 ecx, DWORD PTR _this$[ebp]
  0007b	89 41 10	 mov	 DWORD PTR [ecx+16], eax

; 224  : 			}
; 225  : 		else

  0007e	eb 5e		 jmp	 SHORT $LN1@Getvals
$LN2@Getvals:

; 226  : 			{
; 227  : 			_Days = _Maklocstr(_Lobj._Getdays(), static_cast<_Elem *>(nullptr), _Cvt);

  00080	8b 45 f8	 mov	 eax, DWORD PTR _this$[ebp]
  00083	83 c0 18	 add	 eax, 24			; 00000018H
  00086	50		 push	 eax
  00087	6a 00		 push	 0
  00089	8b 4d 0c	 mov	 ecx, DWORD PTR __Lobj$[ebp]
  0008c	ff 15 00 00 00
	00		 call	 DWORD PTR __imp_?_Getdays@_Locinfo@std@@QBEPBDXZ
  00092	50		 push	 eax
  00093	e8 00 00 00 00	 call	 ??$_Maklocstr@D@std@@YAPADPBDPADABU_Cvtvec@@@Z ; std::_Maklocstr<char>
  00098	83 c4 0c	 add	 esp, 12			; 0000000cH
  0009b	8b 4d f8	 mov	 ecx, DWORD PTR _this$[ebp]
  0009e	89 41 08	 mov	 DWORD PTR [ecx+8], eax

; 228  : 			_Months = _Maklocstr(_Lobj._Getmonths(), static_cast<_Elem *>(nullptr), _Cvt);

  000a1	8b 45 f8	 mov	 eax, DWORD PTR _this$[ebp]
  000a4	83 c0 18	 add	 eax, 24			; 00000018H
  000a7	50		 push	 eax
  000a8	6a 00		 push	 0
  000aa	8b 4d 0c	 mov	 ecx, DWORD PTR __Lobj$[ebp]
  000ad	ff 15 00 00 00
	00		 call	 DWORD PTR __imp_?_Getmonths@_Locinfo@std@@QBEPBDXZ
  000b3	50		 push	 eax
  000b4	e8 00 00 00 00	 call	 ??$_Maklocstr@D@std@@YAPADPBDPADABU_Cvtvec@@@Z ; std::_Maklocstr<char>
  000b9	83 c4 0c	 add	 esp, 12			; 0000000cH
  000bc	8b 4d f8	 mov	 ecx, DWORD PTR _this$[ebp]
  000bf	89 41 0c	 mov	 DWORD PTR [ecx+12], eax

; 229  : 			_Ampm = _Maklocstr(":AM:am:PM:pm", static_cast<_Elem *>(nullptr), _Cvt);

  000c2	8b 45 f8	 mov	 eax, DWORD PTR _this$[ebp]
  000c5	83 c0 18	 add	 eax, 24			; 00000018H
  000c8	50		 push	 eax
  000c9	6a 00		 push	 0
  000cb	68 00 00 00 00	 push	 OFFSET ??_C@_0N@LPFKKEBD@?3AM?3am?3PM?3pm@
  000d0	e8 00 00 00 00	 call	 ??$_Maklocstr@D@std@@YAPADPBDPADABU_Cvtvec@@@Z ; std::_Maklocstr<char>
  000d5	83 c4 0c	 add	 esp, 12			; 0000000cH
  000d8	8b 4d f8	 mov	 ecx, DWORD PTR _this$[ebp]
  000db	89 41 10	 mov	 DWORD PTR [ecx+16], eax
$LN1@Getvals:

; 230  : 			}
; 231  : 		}

  000de	5f		 pop	 edi
  000df	5e		 pop	 esi
  000e0	5b		 pop	 ebx
  000e1	8b 4d fc	 mov	 ecx, DWORD PTR __$ArrayPad$[ebp]
  000e4	33 cd		 xor	 ecx, ebp
  000e6	e8 00 00 00 00	 call	 @__security_check_cookie@4
  000eb	8b e5		 mov	 esp, ebp
  000ed	5d		 pop	 ebp
  000ee	c2 08 00	 ret	 8
??$_Getvals@_W@?$time_get@DV?$istreambuf_iterator@DU?$char_traits@D@std@@@std@@@std@@IAEX_WABV_Locinfo@1@@Z ENDP ; std::time_get<char,std::istreambuf_iterator<char,std::char_traits<char> > >::_Getvals<wchar_t>
_TEXT	ENDS
; Function compile flags: /Odtp /ZI
;	COMDAT ??0tagPersonalRoomOptionRightAndFee@@QAE@XZ
_TEXT	SEGMENT
_this$ = -4						; size = 4
??0tagPersonalRoomOptionRightAndFee@@QAE@XZ PROC	; tagPersonalRoomOptionRightAndFee::tagPersonalRoomOptionRightAndFee, COMDAT
; _this$ = ecx
  00000	55		 push	 ebp
  00001	8b ec		 mov	 ebp, esp
  00003	83 ec 44	 sub	 esp, 68			; 00000044H
  00006	53		 push	 ebx
  00007	56		 push	 esi
  00008	57		 push	 edi
  00009	89 4d fc	 mov	 DWORD PTR _this$[ebp], ecx
  0000c	68 00 00 00 00	 push	 OFFSET ??0CreateRoomPayFee@@QAE@XZ ; CreateRoomPayFee::CreateRoomPayFee
  00011	6a 05		 push	 5
  00013	6a 13		 push	 19			; 00000013H
  00015	8b 45 fc	 mov	 eax, DWORD PTR _this$[ebp]
  00018	83 c0 15	 add	 eax, 21			; 00000015H
  0001b	50		 push	 eax
  0001c	e8 00 00 00 00	 call	 ??_H@YGXPAXIIP6EPAX0@Z@Z
  00021	8b 45 fc	 mov	 eax, DWORD PTR _this$[ebp]
  00024	5f		 pop	 edi
  00025	5e		 pop	 esi
  00026	5b		 pop	 ebx
  00027	8b e5		 mov	 esp, ebp
  00029	5d		 pop	 ebp
  0002a	c3		 ret	 0
??0tagPersonalRoomOptionRightAndFee@@QAE@XZ ENDP	; tagPersonalRoomOptionRightAndFee::tagPersonalRoomOptionRightAndFee
_TEXT	ENDS
; Function compile flags: /Odtp /ZI
; File g:\网狐\happygamewh\服务端\系统模块\全局定义\struct.h
;	COMDAT ??0CreateRoomPayFee@@QAE@XZ
_TEXT	SEGMENT
_this$ = -4						; size = 4
??0CreateRoomPayFee@@QAE@XZ PROC			; CreateRoomPayFee::CreateRoomPayFee, COMDAT
; _this$ = ecx

; 1056 : 	CreateRoomPayFee()

  00000	55		 push	 ebp
  00001	8b ec		 mov	 ebp, esp
  00003	83 ec 44	 sub	 esp, 68			; 00000044H
  00006	53		 push	 ebx
  00007	56		 push	 esi
  00008	57		 push	 edi
  00009	89 4d fc	 mov	 DWORD PTR _this$[ebp], ecx

; 1057 : 	{
; 1058 : 		cbGameMode		= 0;

  0000c	8b 45 fc	 mov	 eax, DWORD PTR _this$[ebp]
  0000f	c6 00 00	 mov	 BYTE PTR [eax], 0

; 1059 : 		dwPlayTurnLimit = 0;

  00012	8b 45 fc	 mov	 eax, DWORD PTR _this$[ebp]
  00015	c7 40 01 00 00
	00 00		 mov	 DWORD PTR [eax+1], 0

; 1060 : 		dwPlayTimeLimit = 0;

  0001c	8b 45 fc	 mov	 eax, DWORD PTR _this$[ebp]
  0001f	c7 40 05 00 00
	00 00		 mov	 DWORD PTR [eax+5], 0

; 1061 : 		dwPayFee		= 0;

  00026	8b 45 fc	 mov	 eax, DWORD PTR _this$[ebp]
  00029	c7 40 09 00 00
	00 00		 mov	 DWORD PTR [eax+9], 0

; 1062 : 		wAAPayFee		= 0;

  00030	33 c0		 xor	 eax, eax
  00032	8b 4d fc	 mov	 ecx, DWORD PTR _this$[ebp]
  00035	66 89 41 0d	 mov	 WORD PTR [ecx+13], ax

; 1063 : 		dwIniScore		= 0;

  00039	8b 45 fc	 mov	 eax, DWORD PTR _this$[ebp]
  0003c	c7 40 0f 00 00
	00 00		 mov	 DWORD PTR [eax+15], 0

; 1064 : 	}

  00043	8b 45 fc	 mov	 eax, DWORD PTR _this$[ebp]
  00046	5f		 pop	 edi
  00047	5e		 pop	 esi
  00048	5b		 pop	 ebx
  00049	8b e5		 mov	 esp, ebp
  0004b	5d		 pop	 ebp
  0004c	c3		 ret	 0
??0CreateRoomPayFee@@QAE@XZ ENDP			; CreateRoomPayFee::CreateRoomPayFee
_TEXT	ENDS
; Function compile flags: /Odtp /ZI
; File c:\program files (x86)\microsoft visual studio\2017\community\vc\tools\msvc\14.16.27023\include\xlocnum
;	COMDAT ?_Maklocwcs@std@@YAPA_WPB_W@Z
_TEXT	SEGMENT
__Ptrdest$ = -8						; size = 4
__Count$ = -4						; size = 4
__Ptr$ = 8						; size = 4
?_Maklocwcs@std@@YAPA_WPB_W@Z PROC			; std::_Maklocwcs, COMDAT

; 97   : 	{	// copy NTWCS to allocated storage

  00000	55		 push	 ebp
  00001	8b ec		 mov	 ebp, esp
  00003	83 ec 48	 sub	 esp, 72			; 00000048H
  00006	53		 push	 ebx
  00007	56		 push	 esi
  00008	57		 push	 edi

; 98   : 	const size_t _Count = _CSTD wcslen(_Ptr) + 1;

  00009	8b 45 08	 mov	 eax, DWORD PTR __Ptr$[ebp]
  0000c	50		 push	 eax
  0000d	ff 15 00 00 00
	00		 call	 DWORD PTR __imp__wcslen
  00013	83 c4 04	 add	 esp, 4
  00016	83 c0 01	 add	 eax, 1
  00019	89 45 fc	 mov	 DWORD PTR __Count$[ebp], eax

; 99   : 
; 100  : 	wchar_t *_Ptrdest = (wchar_t *)_calloc_dbg(_Count, sizeof (wchar_t),

  0001c	a1 00 00 00 00	 mov	 eax, DWORD PTR ?__LINE__Var@?0??_Maklocwcs@std@@YAPA_WPB_W@Z@4JA
  00021	83 c0 04	 add	 eax, 4
  00024	50		 push	 eax
  00025	68 00 00 00 00	 push	 OFFSET ??_C@_0GI@DJFLDKBN@c?3?2program?5files?5?$CIx86?$CJ?2microsof@
  0002a	6a 02		 push	 2
  0002c	6a 02		 push	 2
  0002e	8b 4d fc	 mov	 ecx, DWORD PTR __Count$[ebp]
  00031	51		 push	 ecx
  00032	ff 15 00 00 00
	00		 call	 DWORD PTR __imp___calloc_dbg
  00038	83 c4 14	 add	 esp, 20			; 00000014H
  0003b	89 45 f8	 mov	 DWORD PTR __Ptrdest$[ebp], eax

; 101  : 		_CRT_BLOCK, __FILE__, __LINE__);
; 102  : 
; 103  : 	if (!_Ptrdest)

  0003e	83 7d f8 00	 cmp	 DWORD PTR __Ptrdest$[ebp], 0
  00042	75 05		 jne	 SHORT $LN2@Maklocwcs

; 104  : 		_Xbad_alloc();

  00044	e8 00 00 00 00	 call	 ?_Xbad_alloc@std@@YAXXZ	; std::_Xbad_alloc
$LN2@Maklocwcs:

; 105  : 	_CSTD wmemcpy(_Ptrdest, _Ptr, _Count);

  00049	8b 45 fc	 mov	 eax, DWORD PTR __Count$[ebp]
  0004c	50		 push	 eax
  0004d	8b 4d 08	 mov	 ecx, DWORD PTR __Ptr$[ebp]
  00050	51		 push	 ecx
  00051	8b 55 f8	 mov	 edx, DWORD PTR __Ptrdest$[ebp]
  00054	52		 push	 edx
  00055	e8 00 00 00 00	 call	 _wmemcpy
  0005a	83 c4 0c	 add	 esp, 12			; 0000000cH

; 106  : 	return (_Ptrdest);

  0005d	8b 45 f8	 mov	 eax, DWORD PTR __Ptrdest$[ebp]
$LN3@Maklocwcs:

; 107  : 	}

  00060	5f		 pop	 edi
  00061	5e		 pop	 esi
  00062	5b		 pop	 ebx
  00063	8b e5		 mov	 esp, ebp
  00065	5d		 pop	 ebp
  00066	c3		 ret	 0
?_Maklocwcs@std@@YAPA_WPB_W@Z ENDP			; std::_Maklocwcs
_TEXT	ENDS
; Function compile flags: /Odtp /ZI
; File c:\program files (x86)\microsoft visual studio\2017\community\vc\tools\msvc\14.16.27023\include\xlocale
;	COMDAT ??$_Maklocstr@_W@std@@YAPA_WPBDPA_WABU_Cvtvec@@@Z
_TEXT	SEGMENT
__Mbst2$ = -48						; size = 8
__Ptrnext$ = -40					; size = 4
__Ptrdest$ = -36					; size = 4
__Mbst1$ = -32						; size = 8
__Wc$ = -24						; size = 2
__Bytes$ = -20						; size = 4
__Ptr1$ = -16						; size = 4
__Wchars$ = -12						; size = 4
__Count1$ = -8						; size = 4
__Count$ = -4						; size = 4
__Ptr$ = 8						; size = 4
___formal$ = 12						; size = 4
__Cvt$ = 16						; size = 4
??$_Maklocstr@_W@std@@YAPA_WPBDPA_WABU_Cvtvec@@@Z PROC	; std::_Maklocstr<wchar_t>, COMDAT

; 682  : 	{	// convert C string to wchar_t sequence using _Cvtvec

  00000	55		 push	 ebp
  00001	8b ec		 mov	 ebp, esp
  00003	83 ec 70	 sub	 esp, 112		; 00000070H
  00006	53		 push	 ebx
  00007	56		 push	 esi
  00008	57		 push	 edi

; 683  : 	size_t _Count, _Count1;
; 684  : 	size_t _Wchars;
; 685  : 	const char *_Ptr1;
; 686  : 	int _Bytes;
; 687  : 	wchar_t _Wc;
; 688  : 	mbstate_t _Mbst1 = {};

  00009	33 c0		 xor	 eax, eax
  0000b	89 45 e0	 mov	 DWORD PTR __Mbst1$[ebp], eax
  0000e	89 45 e4	 mov	 DWORD PTR __Mbst1$[ebp+4], eax

; 689  : 
; 690  : 	_Count1 = _CSTD strlen(_Ptr) + 1;

  00011	8b 45 08	 mov	 eax, DWORD PTR __Ptr$[ebp]
  00014	50		 push	 eax
  00015	e8 00 00 00 00	 call	 _strlen
  0001a	83 c4 04	 add	 esp, 4
  0001d	83 c0 01	 add	 eax, 1
  00020	89 45 f8	 mov	 DWORD PTR __Count1$[ebp], eax

; 691  : 	for (_Count = _Count1, _Wchars = 0, _Ptr1 = _Ptr; 0 < _Count;

  00023	8b 45 f8	 mov	 eax, DWORD PTR __Count1$[ebp]
  00026	89 45 fc	 mov	 DWORD PTR __Count$[ebp], eax
  00029	c7 45 f4 00 00
	00 00		 mov	 DWORD PTR __Wchars$[ebp], 0
  00030	8b 4d 08	 mov	 ecx, DWORD PTR __Ptr$[ebp]
  00033	89 4d f0	 mov	 DWORD PTR __Ptr1$[ebp], ecx
  00036	eb 1b		 jmp	 SHORT $LN4@Maklocstr
$LN2@Maklocstr:

; 692  : 		_Count -= _Bytes, _Ptr1 += _Bytes, ++_Wchars)

  00038	8b 45 fc	 mov	 eax, DWORD PTR __Count$[ebp]
  0003b	2b 45 ec	 sub	 eax, DWORD PTR __Bytes$[ebp]
  0003e	89 45 fc	 mov	 DWORD PTR __Count$[ebp], eax
  00041	8b 4d f0	 mov	 ecx, DWORD PTR __Ptr1$[ebp]
  00044	03 4d ec	 add	 ecx, DWORD PTR __Bytes$[ebp]
  00047	89 4d f0	 mov	 DWORD PTR __Ptr1$[ebp], ecx
  0004a	8b 55 f4	 mov	 edx, DWORD PTR __Wchars$[ebp]
  0004d	83 c2 01	 add	 edx, 1
  00050	89 55 f4	 mov	 DWORD PTR __Wchars$[ebp], edx
$LN4@Maklocstr:

; 691  : 	for (_Count = _Count1, _Wchars = 0, _Ptr1 = _Ptr; 0 < _Count;

  00053	83 7d fc 00	 cmp	 DWORD PTR __Count$[ebp], 0
  00057	76 29		 jbe	 SHORT $LN3@Maklocstr

; 693  : 		if ((_Bytes = _Mbrtowc(&_Wc, _Ptr1, _Count, &_Mbst1, &_Cvt)) <= 0)

  00059	8b 45 10	 mov	 eax, DWORD PTR __Cvt$[ebp]
  0005c	50		 push	 eax
  0005d	8d 4d e0	 lea	 ecx, DWORD PTR __Mbst1$[ebp]
  00060	51		 push	 ecx
  00061	8b 55 fc	 mov	 edx, DWORD PTR __Count$[ebp]
  00064	52		 push	 edx
  00065	8b 45 f0	 mov	 eax, DWORD PTR __Ptr1$[ebp]
  00068	50		 push	 eax
  00069	8d 4d e8	 lea	 ecx, DWORD PTR __Wc$[ebp]
  0006c	51		 push	 ecx
  0006d	e8 00 00 00 00	 call	 __Mbrtowc
  00072	83 c4 14	 add	 esp, 20			; 00000014H
  00075	89 45 ec	 mov	 DWORD PTR __Bytes$[ebp], eax
  00078	83 7d ec 00	 cmp	 DWORD PTR __Bytes$[ebp], 0
  0007c	7f 02		 jg	 SHORT $LN8@Maklocstr

; 694  : 			break;

  0007e	eb 02		 jmp	 SHORT $LN3@Maklocstr
$LN8@Maklocstr:

; 695  : 	++_Wchars;	// count terminating nul

  00080	eb b6		 jmp	 SHORT $LN2@Maklocstr
$LN3@Maklocstr:
  00082	8b 45 f4	 mov	 eax, DWORD PTR __Wchars$[ebp]
  00085	83 c0 01	 add	 eax, 1
  00088	89 45 f4	 mov	 DWORD PTR __Wchars$[ebp], eax

; 696  : 
; 697  : 	wchar_t *_Ptrdest = (wchar_t *)_calloc_dbg(_Wchars, sizeof (wchar_t),

  0008b	68 ba 02 00 00	 push	 698			; 000002baH
  00090	68 00 00 00 00	 push	 OFFSET ??_C@_0GI@LKBGDILM@c?3?2program?5files?5?$CIx86?$CJ?2microsof@
  00095	6a 02		 push	 2
  00097	6a 02		 push	 2
  00099	8b 45 f4	 mov	 eax, DWORD PTR __Wchars$[ebp]
  0009c	50		 push	 eax
  0009d	ff 15 00 00 00
	00		 call	 DWORD PTR __imp___calloc_dbg
  000a3	83 c4 14	 add	 esp, 20			; 00000014H
  000a6	89 45 dc	 mov	 DWORD PTR __Ptrdest$[ebp], eax

; 698  : 		_CRT_BLOCK, __FILE__, __LINE__);
; 699  : 
; 700  : 	if (!_Ptrdest)

  000a9	83 7d dc 00	 cmp	 DWORD PTR __Ptrdest$[ebp], 0
  000ad	75 05		 jne	 SHORT $LN9@Maklocstr

; 701  : 		_Xbad_alloc();

  000af	e8 00 00 00 00	 call	 ?_Xbad_alloc@std@@YAXXZ	; std::_Xbad_alloc
$LN9@Maklocstr:

; 702  : 	wchar_t *_Ptrnext = _Ptrdest;

  000b4	8b 45 dc	 mov	 eax, DWORD PTR __Ptrdest$[ebp]
  000b7	89 45 d8	 mov	 DWORD PTR __Ptrnext$[ebp], eax

; 703  : 	mbstate_t _Mbst2 = {};

  000ba	33 c0		 xor	 eax, eax
  000bc	89 45 d0	 mov	 DWORD PTR __Mbst2$[ebp], eax
  000bf	89 45 d4	 mov	 DWORD PTR __Mbst2$[ebp+4], eax

; 704  : 
; 705  : 	for (; 0 < _Wchars;

  000c2	eb 24		 jmp	 SHORT $LN7@Maklocstr
$LN5@Maklocstr:

; 706  : 		_Count -= _Bytes, _Ptr += _Bytes, --_Wchars, ++_Ptrnext)

  000c4	8b 45 fc	 mov	 eax, DWORD PTR __Count$[ebp]
  000c7	2b 45 ec	 sub	 eax, DWORD PTR __Bytes$[ebp]
  000ca	89 45 fc	 mov	 DWORD PTR __Count$[ebp], eax
  000cd	8b 4d 08	 mov	 ecx, DWORD PTR __Ptr$[ebp]
  000d0	03 4d ec	 add	 ecx, DWORD PTR __Bytes$[ebp]
  000d3	89 4d 08	 mov	 DWORD PTR __Ptr$[ebp], ecx
  000d6	8b 55 f4	 mov	 edx, DWORD PTR __Wchars$[ebp]
  000d9	83 ea 01	 sub	 edx, 1
  000dc	89 55 f4	 mov	 DWORD PTR __Wchars$[ebp], edx
  000df	8b 45 d8	 mov	 eax, DWORD PTR __Ptrnext$[ebp]
  000e2	83 c0 02	 add	 eax, 2
  000e5	89 45 d8	 mov	 DWORD PTR __Ptrnext$[ebp], eax
$LN7@Maklocstr:

; 704  : 
; 705  : 	for (; 0 < _Wchars;

  000e8	83 7d f4 00	 cmp	 DWORD PTR __Wchars$[ebp], 0
  000ec	76 29		 jbe	 SHORT $LN6@Maklocstr

; 707  : 		if ((_Bytes = _Mbrtowc(_Ptrnext, _Ptr, _Count1, &_Mbst2, &_Cvt)) <= 0)

  000ee	8b 45 10	 mov	 eax, DWORD PTR __Cvt$[ebp]
  000f1	50		 push	 eax
  000f2	8d 4d d0	 lea	 ecx, DWORD PTR __Mbst2$[ebp]
  000f5	51		 push	 ecx
  000f6	8b 55 f8	 mov	 edx, DWORD PTR __Count1$[ebp]
  000f9	52		 push	 edx
  000fa	8b 45 08	 mov	 eax, DWORD PTR __Ptr$[ebp]
  000fd	50		 push	 eax
  000fe	8b 4d d8	 mov	 ecx, DWORD PTR __Ptrnext$[ebp]
  00101	51		 push	 ecx
  00102	e8 00 00 00 00	 call	 __Mbrtowc
  00107	83 c4 14	 add	 esp, 20			; 00000014H
  0010a	89 45 ec	 mov	 DWORD PTR __Bytes$[ebp], eax
  0010d	83 7d ec 00	 cmp	 DWORD PTR __Bytes$[ebp], 0
  00111	7f 02		 jg	 SHORT $LN10@Maklocstr

; 708  : 			break;

  00113	eb 02		 jmp	 SHORT $LN6@Maklocstr
$LN10@Maklocstr:

; 709  : 	*_Ptrnext = L'\0';

  00115	eb ad		 jmp	 SHORT $LN5@Maklocstr
$LN6@Maklocstr:
  00117	33 c0		 xor	 eax, eax
  00119	8b 4d d8	 mov	 ecx, DWORD PTR __Ptrnext$[ebp]
  0011c	66 89 01	 mov	 WORD PTR [ecx], ax

; 710  : 
; 711  : 	return (_Ptrdest);

  0011f	8b 45 dc	 mov	 eax, DWORD PTR __Ptrdest$[ebp]
$LN11@Maklocstr:

; 712  : 	}

  00122	5f		 pop	 edi
  00123	5e		 pop	 esi
  00124	5b		 pop	 ebx
  00125	8b e5		 mov	 esp, ebp
  00127	5d		 pop	 ebp
  00128	c3		 ret	 0
??$_Maklocstr@_W@std@@YAPA_WPBDPA_WABU_Cvtvec@@@Z ENDP	; std::_Maklocstr<wchar_t>
_TEXT	ENDS
; Function compile flags: /Odtp /ZI
; File c:\program files (x86)\microsoft visual studio\2017\community\vc\tools\msvc\14.16.27023\atlmfc\include\afxplex_.h
;	COMDAT ?data@CPlex@@QAEPAXXZ
_TEXT	SEGMENT
_this$ = -4						; size = 4
?data@CPlex@@QAEPAXXZ PROC				; CPlex::data, COMDAT
; _this$ = ecx

; 35   : 	void* data() { return this+1; }

  00000	55		 push	 ebp
  00001	8b ec		 mov	 ebp, esp
  00003	83 ec 44	 sub	 esp, 68			; 00000044H
  00006	53		 push	 ebx
  00007	56		 push	 esi
  00008	57		 push	 edi
  00009	89 4d fc	 mov	 DWORD PTR _this$[ebp], ecx
  0000c	8b 45 fc	 mov	 eax, DWORD PTR _this$[ebp]
  0000f	83 c0 08	 add	 eax, 8
  00012	5f		 pop	 edi
  00013	5e		 pop	 esi
  00014	5b		 pop	 ebx
  00015	8b e5		 mov	 esp, ebp
  00017	5d		 pop	 ebp
  00018	c3		 ret	 0
?data@CPlex@@QAEPAXXZ ENDP				; CPlex::data
_TEXT	ENDS
; Function compile flags: /Odtp /ZI
; File c:\program files (x86)\windows kits\10\include\10.0.17763.0\ucrt\wchar.h
;	COMDAT _wmemcpy
_TEXT	SEGMENT
__S1$ = 8						; size = 4
__S2$ = 12						; size = 4
__N$ = 16						; size = 4
_wmemcpy PROC						; COMDAT

; 230  :     {

  00000	55		 push	 ebp
  00001	8b ec		 mov	 ebp, esp
  00003	83 ec 40	 sub	 esp, 64			; 00000040H
  00006	53		 push	 ebx
  00007	56		 push	 esi
  00008	57		 push	 edi

; 231  :         #pragma warning(push)
; 232  :         #pragma warning(disable : 4995 4996 6386)
; 233  :         return (wchar_t*)memcpy(_S1, _S2, _N*sizeof(wchar_t));

  00009	8b 45 10	 mov	 eax, DWORD PTR __N$[ebp]
  0000c	d1 e0		 shl	 eax, 1
  0000e	50		 push	 eax
  0000f	8b 4d 0c	 mov	 ecx, DWORD PTR __S2$[ebp]
  00012	51		 push	 ecx
  00013	8b 55 08	 mov	 edx, DWORD PTR __S1$[ebp]
  00016	52		 push	 edx
  00017	e8 00 00 00 00	 call	 _memcpy
  0001c	83 c4 0c	 add	 esp, 12			; 0000000cH

; 234  :         #pragma warning(pop)
; 235  :     }

  0001f	5f		 pop	 edi
  00020	5e		 pop	 esi
  00021	5b		 pop	 ebx
  00022	8b e5		 mov	 esp, ebp
  00024	5d		 pop	 ebp
  00025	c3		 ret	 0
_wmemcpy ENDP
_TEXT	ENDS
; Function compile flags: /Odtp /ZI
; File c:\program files (x86)\microsoft visual studio\2017\community\vc\tools\msvc\14.16.27023\atlmfc\include\afx.h
;	COMDAT ?AfxAssertFailedLine@@YGHPBDH@Z
_TEXT	SEGMENT
_bResult$ = -36						; size = 4
_bQuit$ = -32						; size = 4
_msg$ = -28						; size = 28
_lpszFileName$ = 8					; size = 4
_nLine$ = 12						; size = 4
?AfxAssertFailedLine@@YGHPBDH@Z PROC			; AfxAssertFailedLine, COMDAT

; 312  : {

  00000	55		 push	 ebp
  00001	8b ec		 mov	 ebp, esp
  00003	83 ec 64	 sub	 esp, 100		; 00000064H
  00006	53		 push	 ebx
  00007	56		 push	 esi
  00008	57		 push	 edi

; 313  : 	// we remove WM_QUIT because if it is in the queue then the message box
; 314  : 	// won't display
; 315  : 	MSG msg;
; 316  : 	BOOL bQuit = PeekMessage(&msg, NULL, WM_QUIT, WM_QUIT, PM_REMOVE);

  00009	6a 01		 push	 1
  0000b	6a 12		 push	 18			; 00000012H
  0000d	6a 12		 push	 18			; 00000012H
  0000f	6a 00		 push	 0
  00011	8d 45 e4	 lea	 eax, DWORD PTR _msg$[ebp]
  00014	50		 push	 eax
  00015	ff 15 00 00 00
	00		 call	 DWORD PTR __imp__PeekMessageA@20
  0001b	89 45 e0	 mov	 DWORD PTR _bQuit$[ebp], eax

; 317  : 	BOOL bResult = _CrtDbgReport(_CRT_ASSERT, lpszFileName, nLine, NULL, NULL);

  0001e	6a 00		 push	 0
  00020	6a 00		 push	 0
  00022	8b 45 0c	 mov	 eax, DWORD PTR _nLine$[ebp]
  00025	50		 push	 eax
  00026	8b 4d 08	 mov	 ecx, DWORD PTR _lpszFileName$[ebp]
  00029	51		 push	 ecx
  0002a	6a 02		 push	 2
  0002c	ff 15 00 00 00
	00		 call	 DWORD PTR __imp___CrtDbgReport
  00032	83 c4 14	 add	 esp, 20			; 00000014H
  00035	89 45 dc	 mov	 DWORD PTR _bResult$[ebp], eax

; 318  : 	if (bQuit)

  00038	83 7d e0 00	 cmp	 DWORD PTR _bQuit$[ebp], 0
  0003c	74 0a		 je	 SHORT $LN2@AfxAssertF

; 319  : 		PostQuitMessage((int)msg.wParam);

  0003e	8b 45 ec	 mov	 eax, DWORD PTR _msg$[ebp+8]
  00041	50		 push	 eax
  00042	ff 15 00 00 00
	00		 call	 DWORD PTR __imp__PostQuitMessage@4
$LN2@AfxAssertF:

; 320  : 	return bResult;

  00048	8b 45 dc	 mov	 eax, DWORD PTR _bResult$[ebp]

; 321  : }

  0004b	5f		 pop	 edi
  0004c	5e		 pop	 esi
  0004d	5b		 pop	 ebx
  0004e	8b e5		 mov	 esp, ebp
  00050	5d		 pop	 ebp
  00051	c2 08 00	 ret	 8
?AfxAssertFailedLine@@YGHPBDH@Z ENDP			; AfxAssertFailedLine
_TEXT	ENDS
; Function compile flags: /Odtp /ZI
; File c:\program files (x86)\windows kits\10\include\10.0.17763.0\ucrt\stdio.h
;	COMDAT __snprintf
_TEXT	SEGMENT
__ArgList$ = -8						; size = 4
__Result$ = -4						; size = 4
__Buffer$ = 8						; size = 4
__BufferCount$ = 12					; size = 4
__Format$ = 16						; size = 4
__snprintf PROC						; COMDAT

; 1969 :     {

  00000	55		 push	 ebp
  00001	8b ec		 mov	 ebp, esp
  00003	83 ec 4c	 sub	 esp, 76			; 0000004cH
  00006	53		 push	 ebx
  00007	56		 push	 esi
  00008	57		 push	 edi

; 1970 :         int _Result;
; 1971 :         va_list _ArgList;
; 1972 :         __crt_va_start(_ArgList, _Format);

  00009	8d 45 14	 lea	 eax, DWORD PTR __Format$[ebp+4]
  0000c	89 45 f8	 mov	 DWORD PTR __ArgList$[ebp], eax

; 1973 :     #pragma warning(suppress:28719)    // 28719
; 1974 :         _Result = _vsnprintf(_Buffer, _BufferCount, _Format, _ArgList);

  0000f	8b 45 f8	 mov	 eax, DWORD PTR __ArgList$[ebp]
  00012	50		 push	 eax
  00013	8b 4d 10	 mov	 ecx, DWORD PTR __Format$[ebp]
  00016	51		 push	 ecx
  00017	8b 55 0c	 mov	 edx, DWORD PTR __BufferCount$[ebp]
  0001a	52		 push	 edx
  0001b	8b 45 08	 mov	 eax, DWORD PTR __Buffer$[ebp]
  0001e	50		 push	 eax
  0001f	e8 00 00 00 00	 call	 __vsnprintf
  00024	83 c4 10	 add	 esp, 16			; 00000010H
  00027	89 45 fc	 mov	 DWORD PTR __Result$[ebp], eax

; 1975 :         __crt_va_end(_ArgList);

  0002a	c7 45 f8 00 00
	00 00		 mov	 DWORD PTR __ArgList$[ebp], 0

; 1976 :         return _Result;

  00031	8b 45 fc	 mov	 eax, DWORD PTR __Result$[ebp]

; 1977 :     }

  00034	5f		 pop	 edi
  00035	5e		 pop	 esi
  00036	5b		 pop	 ebx
  00037	8b e5		 mov	 esp, ebp
  00039	5d		 pop	 ebp
  0003a	c3		 ret	 0
__snprintf ENDP
_TEXT	ENDS
; Function compile flags: /Odtp /ZI
; File c:\program files (x86)\windows kits\10\include\10.0.17763.0\ucrt\stdio.h
;	COMDAT _sprintf
_TEXT	SEGMENT
__ArgList$ = -8						; size = 4
__Result$ = -4						; size = 4
__Buffer$ = 8						; size = 4
__Format$ = 12						; size = 4
_sprintf PROC						; COMDAT

; 1781 :     {

  00000	55		 push	 ebp
  00001	8b ec		 mov	 ebp, esp
  00003	83 ec 4c	 sub	 esp, 76			; 0000004cH
  00006	53		 push	 ebx
  00007	56		 push	 esi
  00008	57		 push	 edi

; 1782 :         int _Result;
; 1783 :         va_list _ArgList;
; 1784 :         __crt_va_start(_ArgList, _Format);

  00009	8d 45 10	 lea	 eax, DWORD PTR __Format$[ebp+4]
  0000c	89 45 f8	 mov	 DWORD PTR __ArgList$[ebp], eax

; 1785 : 
; 1786 :         #pragma warning(push)
; 1787 :         #pragma warning(disable: 4996) // Deprecation
; 1788 :         _Result = _vsprintf_l(_Buffer, _Format, NULL, _ArgList);

  0000f	8b 45 f8	 mov	 eax, DWORD PTR __ArgList$[ebp]
  00012	50		 push	 eax
  00013	6a 00		 push	 0
  00015	8b 4d 0c	 mov	 ecx, DWORD PTR __Format$[ebp]
  00018	51		 push	 ecx
  00019	8b 55 08	 mov	 edx, DWORD PTR __Buffer$[ebp]
  0001c	52		 push	 edx
  0001d	e8 00 00 00 00	 call	 __vsprintf_l
  00022	83 c4 10	 add	 esp, 16			; 00000010H
  00025	89 45 fc	 mov	 DWORD PTR __Result$[ebp], eax

; 1789 :         #pragma warning(pop)
; 1790 : 
; 1791 :         __crt_va_end(_ArgList);

  00028	c7 45 f8 00 00
	00 00		 mov	 DWORD PTR __ArgList$[ebp], 0

; 1792 :         return _Result;

  0002f	8b 45 fc	 mov	 eax, DWORD PTR __Result$[ebp]

; 1793 :     }

  00032	5f		 pop	 edi
  00033	5e		 pop	 esi
  00034	5b		 pop	 ebx
  00035	8b e5		 mov	 esp, ebp
  00037	5d		 pop	 ebp
  00038	c3		 ret	 0
_sprintf ENDP
_TEXT	ENDS
; Function compile flags: /Odtp /ZI
; File c:\program files (x86)\windows kits\10\include\10.0.17763.0\ucrt\stdio.h
;	COMDAT __vsnprintf_s
_TEXT	SEGMENT
__Buffer$ = 8						; size = 4
__BufferCount$ = 12					; size = 4
__MaxCount$ = 16					; size = 4
__Format$ = 20						; size = 4
__ArgList$ = 24						; size = 4
__vsnprintf_s PROC					; COMDAT

; 1605 :     {

  00000	55		 push	 ebp
  00001	8b ec		 mov	 ebp, esp
  00003	83 ec 40	 sub	 esp, 64			; 00000040H
  00006	53		 push	 ebx
  00007	56		 push	 esi
  00008	57		 push	 edi

; 1606 :         return _vsnprintf_s_l(_Buffer, _BufferCount, _MaxCount, _Format, NULL, _ArgList);

  00009	8b 45 18	 mov	 eax, DWORD PTR __ArgList$[ebp]
  0000c	50		 push	 eax
  0000d	6a 00		 push	 0
  0000f	8b 4d 14	 mov	 ecx, DWORD PTR __Format$[ebp]
  00012	51		 push	 ecx
  00013	8b 55 10	 mov	 edx, DWORD PTR __MaxCount$[ebp]
  00016	52		 push	 edx
  00017	8b 45 0c	 mov	 eax, DWORD PTR __BufferCount$[ebp]
  0001a	50		 push	 eax
  0001b	8b 4d 08	 mov	 ecx, DWORD PTR __Buffer$[ebp]
  0001e	51		 push	 ecx
  0001f	e8 00 00 00 00	 call	 __vsnprintf_s_l
  00024	83 c4 18	 add	 esp, 24			; 00000018H

; 1607 :     }

  00027	5f		 pop	 edi
  00028	5e		 pop	 esi
  00029	5b		 pop	 ebx
  0002a	8b e5		 mov	 esp, ebp
  0002c	5d		 pop	 ebp
  0002d	c3		 ret	 0
__vsnprintf_s ENDP
_TEXT	ENDS
; Function compile flags: /Odtp /ZI
; File c:\program files (x86)\windows kits\10\include\10.0.17763.0\ucrt\stdio.h
;	COMDAT __vsnprintf_s_l
_TEXT	SEGMENT
tv74 = -72						; size = 4
__Result$ = -4						; size = 4
__Buffer$ = 8						; size = 4
__BufferCount$ = 12					; size = 4
__MaxCount$ = 16					; size = 4
__Format$ = 20						; size = 4
__Locale$ = 24						; size = 4
__ArgList$ = 28						; size = 4
__vsnprintf_s_l PROC					; COMDAT

; 1584 :     {

  00000	55		 push	 ebp
  00001	8b ec		 mov	 ebp, esp
  00003	83 ec 48	 sub	 esp, 72			; 00000048H
  00006	53		 push	 ebx
  00007	56		 push	 esi
  00008	57		 push	 edi

; 1585 :         int const _Result = __stdio_common_vsnprintf_s(

  00009	8b 45 1c	 mov	 eax, DWORD PTR __ArgList$[ebp]
  0000c	50		 push	 eax
  0000d	8b 4d 18	 mov	 ecx, DWORD PTR __Locale$[ebp]
  00010	51		 push	 ecx
  00011	8b 55 14	 mov	 edx, DWORD PTR __Format$[ebp]
  00014	52		 push	 edx
  00015	8b 45 10	 mov	 eax, DWORD PTR __MaxCount$[ebp]
  00018	50		 push	 eax
  00019	8b 4d 0c	 mov	 ecx, DWORD PTR __BufferCount$[ebp]
  0001c	51		 push	 ecx
  0001d	8b 55 08	 mov	 edx, DWORD PTR __Buffer$[ebp]
  00020	52		 push	 edx
  00021	e8 00 00 00 00	 call	 ___local_stdio_printf_options
  00026	8b 48 04	 mov	 ecx, DWORD PTR [eax+4]
  00029	51		 push	 ecx
  0002a	8b 10		 mov	 edx, DWORD PTR [eax]
  0002c	52		 push	 edx
  0002d	ff 15 00 00 00
	00		 call	 DWORD PTR __imp____stdio_common_vsnprintf_s
  00033	83 c4 20	 add	 esp, 32			; 00000020H
  00036	89 45 fc	 mov	 DWORD PTR __Result$[ebp], eax

; 1586 :             _CRT_INTERNAL_LOCAL_PRINTF_OPTIONS,
; 1587 :             _Buffer, _BufferCount, _MaxCount, _Format, _Locale, _ArgList);
; 1588 : 
; 1589 :         return _Result < 0 ? -1 : _Result;

  00039	83 7d fc 00	 cmp	 DWORD PTR __Result$[ebp], 0
  0003d	7d 09		 jge	 SHORT $LN3@vsnprintf_
  0003f	c7 45 b8 ff ff
	ff ff		 mov	 DWORD PTR tv74[ebp], -1
  00046	eb 06		 jmp	 SHORT $LN4@vsnprintf_
$LN3@vsnprintf_:
  00048	8b 45 fc	 mov	 eax, DWORD PTR __Result$[ebp]
  0004b	89 45 b8	 mov	 DWORD PTR tv74[ebp], eax
$LN4@vsnprintf_:
  0004e	8b 45 b8	 mov	 eax, DWORD PTR tv74[ebp]

; 1590 :     }

  00051	5f		 pop	 edi
  00052	5e		 pop	 esi
  00053	5b		 pop	 ebx
  00054	8b e5		 mov	 esp, ebp
  00056	5d		 pop	 ebp
  00057	c3		 ret	 0
__vsnprintf_s_l ENDP
_TEXT	ENDS
; Function compile flags: /Odtp /ZI
; File c:\program files (x86)\windows kits\10\include\10.0.17763.0\ucrt\stdio.h
;	COMDAT __vsprintf_l
_TEXT	SEGMENT
__Buffer$ = 8						; size = 4
__Format$ = 12						; size = 4
__Locale$ = 16						; size = 4
__ArgList$ = 20						; size = 4
__vsprintf_l PROC					; COMDAT

; 1459 :     {

  00000	55		 push	 ebp
  00001	8b ec		 mov	 ebp, esp
  00003	83 ec 40	 sub	 esp, 64			; 00000040H
  00006	53		 push	 ebx
  00007	56		 push	 esi
  00008	57		 push	 edi

; 1460 :         #pragma warning(push)
; 1461 :         #pragma warning(disable: 4996) // Deprecation
; 1462 :         return _vsnprintf_l(_Buffer, (size_t)-1, _Format, _Locale, _ArgList);

  00009	8b 45 14	 mov	 eax, DWORD PTR __ArgList$[ebp]
  0000c	50		 push	 eax
  0000d	8b 4d 10	 mov	 ecx, DWORD PTR __Locale$[ebp]
  00010	51		 push	 ecx
  00011	8b 55 0c	 mov	 edx, DWORD PTR __Format$[ebp]
  00014	52		 push	 edx
  00015	6a ff		 push	 -1
  00017	8b 45 08	 mov	 eax, DWORD PTR __Buffer$[ebp]
  0001a	50		 push	 eax
  0001b	e8 00 00 00 00	 call	 __vsnprintf_l
  00020	83 c4 14	 add	 esp, 20			; 00000014H

; 1463 :         #pragma warning(pop)
; 1464 :     }

  00023	5f		 pop	 edi
  00024	5e		 pop	 esi
  00025	5b		 pop	 ebx
  00026	8b e5		 mov	 esp, ebp
  00028	5d		 pop	 ebp
  00029	c3		 ret	 0
__vsprintf_l ENDP
_TEXT	ENDS
; Function compile flags: /Odtp /ZI
; File c:\program files (x86)\windows kits\10\include\10.0.17763.0\ucrt\stdio.h
;	COMDAT __vsnprintf
_TEXT	SEGMENT
__Buffer$ = 8						; size = 4
__BufferCount$ = 12					; size = 4
__Format$ = 16						; size = 4
__ArgList$ = 20						; size = 4
__vsnprintf PROC					; COMDAT

; 1409 :     {

  00000	55		 push	 ebp
  00001	8b ec		 mov	 ebp, esp
  00003	83 ec 40	 sub	 esp, 64			; 00000040H
  00006	53		 push	 ebx
  00007	56		 push	 esi
  00008	57		 push	 edi

; 1410 :         #pragma warning(push)
; 1411 :         #pragma warning(disable: 4996) // Deprecation
; 1412 :         return _vsnprintf_l(_Buffer, _BufferCount, _Format, NULL, _ArgList);

  00009	8b 45 14	 mov	 eax, DWORD PTR __ArgList$[ebp]
  0000c	50		 push	 eax
  0000d	6a 00		 push	 0
  0000f	8b 4d 10	 mov	 ecx, DWORD PTR __Format$[ebp]
  00012	51		 push	 ecx
  00013	8b 55 0c	 mov	 edx, DWORD PTR __BufferCount$[ebp]
  00016	52		 push	 edx
  00017	8b 45 08	 mov	 eax, DWORD PTR __Buffer$[ebp]
  0001a	50		 push	 eax
  0001b	e8 00 00 00 00	 call	 __vsnprintf_l
  00020	83 c4 14	 add	 esp, 20			; 00000014H

; 1413 :         #pragma warning(pop)
; 1414 :     }

  00023	5f		 pop	 edi
  00024	5e		 pop	 esi
  00025	5b		 pop	 ebx
  00026	8b e5		 mov	 esp, ebp
  00028	5d		 pop	 ebp
  00029	c3		 ret	 0
__vsnprintf ENDP
_TEXT	ENDS
; Function compile flags: /Odtp /ZI
; File c:\program files (x86)\windows kits\10\include\10.0.17763.0\ucrt\stdio.h
;	COMDAT __vsnprintf_l
_TEXT	SEGMENT
tv74 = -72						; size = 4
__Result$ = -4						; size = 4
__Buffer$ = 8						; size = 4
__BufferCount$ = 12					; size = 4
__Format$ = 16						; size = 4
__Locale$ = 20						; size = 4
__ArgList$ = 24						; size = 4
__vsnprintf_l PROC					; COMDAT

; 1389 :     {

  00000	55		 push	 ebp
  00001	8b ec		 mov	 ebp, esp
  00003	83 ec 48	 sub	 esp, 72			; 00000048H
  00006	53		 push	 ebx
  00007	56		 push	 esi
  00008	57		 push	 edi

; 1390 :         int const _Result = __stdio_common_vsprintf(

  00009	8b 45 18	 mov	 eax, DWORD PTR __ArgList$[ebp]
  0000c	50		 push	 eax
  0000d	8b 4d 14	 mov	 ecx, DWORD PTR __Locale$[ebp]
  00010	51		 push	 ecx
  00011	8b 55 10	 mov	 edx, DWORD PTR __Format$[ebp]
  00014	52		 push	 edx
  00015	8b 45 0c	 mov	 eax, DWORD PTR __BufferCount$[ebp]
  00018	50		 push	 eax
  00019	8b 4d 08	 mov	 ecx, DWORD PTR __Buffer$[ebp]
  0001c	51		 push	 ecx
  0001d	e8 00 00 00 00	 call	 ___local_stdio_printf_options
  00022	8b 10		 mov	 edx, DWORD PTR [eax]
  00024	83 ca 01	 or	 edx, 1
  00027	8b 40 04	 mov	 eax, DWORD PTR [eax+4]
  0002a	50		 push	 eax
  0002b	52		 push	 edx
  0002c	ff 15 00 00 00
	00		 call	 DWORD PTR __imp____stdio_common_vsprintf
  00032	83 c4 1c	 add	 esp, 28			; 0000001cH
  00035	89 45 fc	 mov	 DWORD PTR __Result$[ebp], eax

; 1391 :             _CRT_INTERNAL_LOCAL_PRINTF_OPTIONS | _CRT_INTERNAL_PRINTF_LEGACY_VSPRINTF_NULL_TERMINATION,
; 1392 :             _Buffer, _BufferCount, _Format, _Locale, _ArgList);
; 1393 : 
; 1394 :         return _Result < 0 ? -1 : _Result;

  00038	83 7d fc 00	 cmp	 DWORD PTR __Result$[ebp], 0
  0003c	7d 09		 jge	 SHORT $LN3@vsnprintf_
  0003e	c7 45 b8 ff ff
	ff ff		 mov	 DWORD PTR tv74[ebp], -1
  00045	eb 06		 jmp	 SHORT $LN4@vsnprintf_
$LN3@vsnprintf_:
  00047	8b 45 fc	 mov	 eax, DWORD PTR __Result$[ebp]
  0004a	89 45 b8	 mov	 DWORD PTR tv74[ebp], eax
$LN4@vsnprintf_:
  0004d	8b 45 b8	 mov	 eax, DWORD PTR tv74[ebp]

; 1395 :     }

  00050	5f		 pop	 edi
  00051	5e		 pop	 esi
  00052	5b		 pop	 ebx
  00053	8b e5		 mov	 esp, ebp
  00055	5d		 pop	 ebp
  00056	c3		 ret	 0
__vsnprintf_l ENDP
_TEXT	ENDS
; Function compile flags: /Odtp /ZI
; File c:\program files (x86)\windows kits\10\include\10.0.17763.0\ucrt\corecrt_stdio_config.h
;	COMDAT ___local_stdio_printf_options
_TEXT	SEGMENT
___local_stdio_printf_options PROC			; COMDAT

; 86   :     {

  00000	55		 push	 ebp
  00001	8b ec		 mov	 ebp, esp
  00003	83 ec 40	 sub	 esp, 64			; 00000040H
  00006	53		 push	 ebx
  00007	56		 push	 esi
  00008	57		 push	 edi

; 87   :         static unsigned __int64 _OptionsStorage;
; 88   :         return &_OptionsStorage;

  00009	b8 00 00 00 00	 mov	 eax, OFFSET ?_OptionsStorage@?1??__local_stdio_printf_options@@9@4_KA ; `__local_stdio_printf_options'::`2'::_OptionsStorage

; 89   :     }

  0000e	5f		 pop	 edi
  0000f	5e		 pop	 esi
  00010	5b		 pop	 ebx
  00011	8b e5		 mov	 esp, ebp
  00013	5d		 pop	 ebp
  00014	c3		 ret	 0
___local_stdio_printf_options ENDP
_TEXT	ENDS
; Function compile flags: /Odtp /ZI
; File c:\program files (x86)\microsoft visual studio\2017\community\vc\tools\msvc\14.16.27023\include\vcruntime_new.h
;	COMDAT ??2@YAPAXIPAX@Z
_TEXT	SEGMENT
__Size$ = 8						; size = 4
__Where$ = 12						; size = 4
??2@YAPAXIPAX@Z PROC					; operator new, COMDAT

; 185  :     {

  00000	55		 push	 ebp
  00001	8b ec		 mov	 ebp, esp
  00003	83 ec 40	 sub	 esp, 64			; 00000040H
  00006	53		 push	 ebx
  00007	56		 push	 esi
  00008	57		 push	 edi

; 186  :         (void)_Size;
; 187  :         return _Where;

  00009	8b 45 0c	 mov	 eax, DWORD PTR __Where$[ebp]

; 188  :     }

  0000c	5f		 pop	 edi
  0000d	5e		 pop	 esi
  0000e	5b		 pop	 ebx
  0000f	8b e5		 mov	 esp, ebp
  00011	5d		 pop	 ebp
  00012	c3		 ret	 0
??2@YAPAXIPAX@Z ENDP					; operator new
_TEXT	ENDS
; Function compile flags: /Odtp /ZI
; File g:\网狐\happygamewh\服务端\系统模块\服务器组件\模块管理\serverinfomanager.cpp
;	COMDAT ?__empty_global_delete@@YAXPAXI@Z
_TEXT	SEGMENT
___formal$ = 8						; size = 4
___formal$ = 12						; size = 4
?__empty_global_delete@@YAXPAXI@Z PROC			; __empty_global_delete, COMDAT

  00000	55		 push	 ebp
  00001	8b ec		 mov	 ebp, esp
  00003	83 ec 40	 sub	 esp, 64			; 00000040H
  00006	53		 push	 ebx
  00007	56		 push	 esi
  00008	57		 push	 edi
  00009	5f		 pop	 edi
  0000a	5e		 pop	 esi
  0000b	5b		 pop	 ebx
  0000c	8b e5		 mov	 esp, ebp
  0000e	5d		 pop	 ebp
  0000f	c3		 ret	 0
?__empty_global_delete@@YAXPAXI@Z ENDP			; __empty_global_delete
_TEXT	ENDS
; Function compile flags: /Odtp /ZI
; File g:\网狐\happygamewh\服务端\系统模块\服务器组件\模块管理\serverinfomanager.cpp
;	COMDAT ?__empty_global_delete@@YAXPAX@Z
_TEXT	SEGMENT
___formal$ = 8						; size = 4
?__empty_global_delete@@YAXPAX@Z PROC			; __empty_global_delete, COMDAT

  00000	55		 push	 ebp
  00001	8b ec		 mov	 ebp, esp
  00003	83 ec 40	 sub	 esp, 64			; 00000040H
  00006	53		 push	 ebx
  00007	56		 push	 esi
  00008	57		 push	 edi
  00009	5f		 pop	 edi
  0000a	5e		 pop	 esi
  0000b	5b		 pop	 ebx
  0000c	8b e5		 mov	 esp, ebp
  0000e	5d		 pop	 ebp
  0000f	c3		 ret	 0
?__empty_global_delete@@YAXPAX@Z ENDP			; __empty_global_delete
_TEXT	ENDS
; Function compile flags: /Odtp /ZI
;	COMDAT ??_H@YGXPAXIIP6EPAX0@Z@Z
_TEXT	SEGMENT
tv66 = -68						; size = 4
___t$ = 8						; size = 4
___s$ = 12						; size = 4
___n$ = 16						; size = 4
___f$ = 20						; size = 4
??_H@YGXPAXIIP6EPAX0@Z@Z PROC				; `vector constructor iterator', COMDAT
  00000	55		 push	 ebp
  00001	8b ec		 mov	 ebp, esp
  00003	83 ec 44	 sub	 esp, 68			; 00000044H
  00006	53		 push	 ebx
  00007	56		 push	 esi
  00008	57		 push	 edi
$LN2@vector:
  00009	8b 45 10	 mov	 eax, DWORD PTR ___n$[ebp]
  0000c	89 45 bc	 mov	 DWORD PTR tv66[ebp], eax
  0000f	8b 4d 10	 mov	 ecx, DWORD PTR ___n$[ebp]
  00012	83 e9 01	 sub	 ecx, 1
  00015	89 4d 10	 mov	 DWORD PTR ___n$[ebp], ecx
  00018	83 7d bc 00	 cmp	 DWORD PTR tv66[ebp], 0
  0001c	76 11		 jbe	 SHORT $LN1@vector
  0001e	8b 4d 08	 mov	 ecx, DWORD PTR ___t$[ebp]
  00021	ff 55 14	 call	 DWORD PTR ___f$[ebp]
  00024	8b 45 08	 mov	 eax, DWORD PTR ___t$[ebp]
  00027	03 45 0c	 add	 eax, DWORD PTR ___s$[ebp]
  0002a	89 45 08	 mov	 DWORD PTR ___t$[ebp], eax
  0002d	eb da		 jmp	 SHORT $LN2@vector
$LN1@vector:
  0002f	5f		 pop	 edi
  00030	5e		 pop	 esi
  00031	5b		 pop	 ebx
  00032	8b e5		 mov	 esp, ebp
  00034	5d		 pop	 ebp
  00035	c2 10 00	 ret	 16			; 00000010H
??_H@YGXPAXIIP6EPAX0@Z@Z ENDP				; `vector constructor iterator'
_TEXT	ENDS
END
