; Listing generated by Microsoft (R) Optimizing Compiler Version 19.16.27032.1 

	TITLE	G:\网狐\HappyGameWH\服务端\系统模块\服务器组件\模块管理\ServerInfoManager.cpp
	.686P
	.XMM
	include listing.inc
	.model	flat

INCLUDELIB MSVCRTD
INCLUDELIB OLDNAMES

CONST	SEGMENT
?IID_ITraceServiceManager@@3U_GUID@@B DD 08bfc36dbH	; IID_ITraceServiceManager
	DW	05ba2H
	DW	042baH
	DB	081H
	DB	0b0H
	DB	087H
	DB	0b0H
	DB	01cH
	DB	09eH
	DB	0afH
	DB	0feH
?IID_IAsynchronismEngine@@3U_GUID@@B DD 0c7a13074H	; IID_IAsynchronismEngine
	DW	075c5H
	DW	04b8eH
	DB	0b5H
	DB	04bH
	DB	0eeH
	DB	0eH
	DB	0ecH
	DB	0feH
	DB	0b9H
	DB	0ebH
?IID_IDataBase@@3U_GUID@@B DD 0a2e38a78H		; IID_IDataBase
	DW	01e4fH
	DW	04de4H
	DB	0a5H
	DB	0d1H
	DB	0b9H
	DB	019H
	DB	09bH
	DB	0ceH
	DB	041H
	DB	0aeH
?IID_IDataBaseEngine@@3U_GUID@@B DD 047b5a119H		; IID_IDataBaseEngine
	DW	01676H
	DW	049a3H
	DB	0beH
	DB	0aeH
	DB	0caH
	DB	027H
	DB	0ebH
	DB	059H
	DB	097H
	DB	022H
?IID_IUDPNetworkEngine@@3U_GUID@@B DD 08d138a9bH	; IID_IUDPNetworkEngine
	DW	0a97dH
	DW	04d51H
	DB	09dH
	DB	06cH
	DB	0d8H
	DB	06eH
	DB	0a1H
	DB	084H
	DB	045H
	DB	02eH
?IID_ITCPNetworkEngine@@3U_GUID@@B DD 07747f683H	; IID_ITCPNetworkEngine
	DW	0c0daH
	DW	04588H
	DB	089H
	DB	0ccH
	DB	015H
	DB	093H
	DB	0acH
	DB	0c0H
	DB	044H
	DB	0c8H
?IID_ITCPSocketService@@3U_GUID@@B DD 0709a4449H	; IID_ITCPSocketService
	DW	0ad77H
	DW	04b3dH
	DB	0b4H
	DB	0d6H
	DB	08dH
	DB	0bH
	DB	028H
	DB	065H
	DB	0ecH
	DB	0aeH
?IID_IWEBSocketService@@3U_GUID@@B DD 091052ff2H	; IID_IWEBSocketService
	DW	0eb29H
	DW	040b9H
	DB	0b2H
	DB	0a2H
	DB	08aH
	DB	0a2H
	DB	098H
	DB	036H
	DB	02cH
	DB	084H
?IID_ITimerEngine@@3U_GUID@@B DD 0496401aeH		; IID_ITimerEngine
	DW	06fb0H
	DW	04e9fH
	DB	090H
	DB	098H
	DB	044H
	DB	09dH
	DB	09cH
	DB	0b2H
	DB	0bdH
	DB	097H
?IID_IAttemperEngine@@3U_GUID@@B DD 0b070b2cH		; IID_IAttemperEngine
	DW	09d72H
	DW	042d2H
	DB	0a5H
	DB	070H
	DB	0baH
	DB	02cH
	DB	0bfH
	DB	06fH
	DB	0bbH
	DB	01cH
?IID_IGameServiceManager@@3U_GUID@@B DD 04b2b9d8fH	; IID_IGameServiceManager
	DW	0ce1bH
	DW	044f3H
	DB	0a5H
	DB	022H
	DB	065H
	DB	01aH
	DB	065H
	DB	0c9H
	DB	0aH
	DB	025H
?IID_IAndroidUserItemSink@@3U_GUID@@B DD 01e8a1918H	; IID_IAndroidUserItemSink
	DW	0572bH
	DW	0453bH
	DB	0bcH
	DB	0bH
	DB	06bH
	DB	061H
	DB	070H
	DB	0a3H
	DB	03cH
	DB	0caH
CONST	ENDS
PUBLIC	??_H@YGXPAXIIP6EPAX0@Z@Z			; `vector constructor iterator'
PUBLIC	?__empty_global_delete@@YAXPAX@Z		; __empty_global_delete
PUBLIC	?__empty_global_delete@@YAXPAXI@Z		; __empty_global_delete
PUBLIC	??2@YAPAXIPAX@Z					; operator new
PUBLIC	___local_stdio_printf_options
PUBLIC	__vsnprintf_l
PUBLIC	__vsnprintf
PUBLIC	__vsprintf_l
PUBLIC	__vsnprintf_s_l
PUBLIC	__vsnprintf_s
PUBLIC	_sprintf
PUBLIC	__snprintf
PUBLIC	?AfxAssertFailedLine@@YGHPBDH@Z			; AfxAssertFailedLine
PUBLIC	_wmemcpy
PUBLIC	?data@CPlex@@QAEPAXXZ				; CPlex::data
PUBLIC	??$_Maklocstr@_W@std@@YAPA_WPBDPA_WABU_Cvtvec@@@Z ; std::_Maklocstr<wchar_t>
PUBLIC	?_Maklocwcs@std@@YAPA_WPB_W@Z			; std::_Maklocwcs
PUBLIC	??0CreateRoomPayFee@@QAE@XZ			; CreateRoomPayFee::CreateRoomPayFee
PUBLIC	??0tagPersonalRoomOptionRightAndFee@@QAE@XZ	; tagPersonalRoomOptionRightAndFee::tagPersonalRoomOptionRightAndFee
PUBLIC	??$_Getvals@_W@?$time_get@DV?$istreambuf_iterator@DU?$char_traits@D@std@@@std@@@std@@IAEX_WABV_Locinfo@1@@Z ; std::time_get<char,std::istreambuf_iterator<char,std::char_traits<char> > >::_Getvals<wchar_t>
PUBLIC	??$_Getvals@_W@?$time_get@_WV?$istreambuf_iterator@_WU?$char_traits@_W@std@@@std@@@std@@IAEX_WABV_Locinfo@1@@Z ; std::time_get<wchar_t,std::istreambuf_iterator<wchar_t,std::char_traits<wchar_t> > >::_Getvals<wchar_t>
PUBLIC	??0?$CTempldateHelper@UIDataBase@@@@QAE@ABU_GUID@@KPBD1@Z ; CTempldateHelper<IDataBase>::CTempldateHelper<IDataBase>
PUBLIC	??1?$CTempldateHelper@UIDataBase@@@@UAE@XZ	; CTempldateHelper<IDataBase>::~CTempldateHelper<IDataBase>
PUBLIC	?CloseInstance@?$CTempldateHelper@UIDataBase@@@@QAE_NXZ ; CTempldateHelper<IDataBase>::CloseInstance
PUBLIC	?CreateInstance@?$CTempldateHelper@UIDataBase@@@@QAE_NXZ ; CTempldateHelper<IDataBase>::CreateInstance
PUBLIC	??C?$CTempldateHelper@UIDataBase@@@@QBEPAUIDataBase@@XZ ; CTempldateHelper<IDataBase>::operator->
PUBLIC	?GetInterface@?$CTempldateHelper@UIDataBase@@@@QBEPAUIDataBase@@XZ ; CTempldateHelper<IDataBase>::GetInterface
PUBLIC	??_G?$CTempldateHelper@UIDataBase@@@@UAEPAXI@Z	; CTempldateHelper<IDataBase>::`scalar deleting destructor'
PUBLIC	??0CDataBaseHelper@@QAE@XZ			; CDataBaseHelper::CDataBaseHelper
PUBLIC	??1CDataBaseHelper@@UAE@XZ			; CDataBaseHelper::~CDataBaseHelper
PUBLIC	??_GCDataBaseHelper@@UAEPAXI@Z			; CDataBaseHelper::`scalar deleting destructor'
PUBLIC	?GetPlatformDBParameter@CModuleDBParameter@@QAEPAUtagDataBaseParameter@@XZ ; CModuleDBParameter::GetPlatformDBParameter
PUBLIC	?SetPlatformDBParameter@CModuleDBParameter@@QAEXAAUtagDataBaseParameter@@@Z ; CModuleDBParameter::SetPlatformDBParameter
PUBLIC	?GetGameMatchDBParameter@CModuleDBParameter@@QAEPAUtagDataBaseParameter@@XZ ; CModuleDBParameter::GetGameMatchDBParameter
PUBLIC	?SetGameMatchDBParameter@CModuleDBParameter@@QAEXAAUtagDataBaseParameter@@@Z ; CModuleDBParameter::SetGameMatchDBParameter
PUBLIC	?GetModuleDBParameter@CModuleDBParameter@@SAPAV1@XZ ; CModuleDBParameter::GetModuleDBParameter
PUBLIC	??0CModuleDBParameter@@QAE@ABV0@@Z		; CModuleDBParameter::CModuleDBParameter
PUBLIC	??4CModuleDBParameter@@QAEAAV0@ABV0@@Z		; CModuleDBParameter::operator=
PUBLIC	??_GCModuleDBParameter@@UAEPAXI@Z		; CModuleDBParameter::`scalar deleting destructor'
PUBLIC	??_ECModuleDBParameter@@UAEPAXI@Z		; CModuleDBParameter::`vector deleting destructor'
PUBLIC	??0?$CMap@GGPAUtagGameServerInfo@@PAU1@@@QAE@H@Z ; CMap<unsigned short,unsigned short,tagGameServerInfo *,tagGameServerInfo *>::CMap<unsigned short,unsigned short,tagGameServerInfo *,tagGameServerInfo *>
PUBLIC	?GetCount@?$CMap@GGPAUtagGameServerInfo@@PAU1@@@QBEHXZ ; CMap<unsigned short,unsigned short,tagGameServerInfo *,tagGameServerInfo *>::GetCount
PUBLIC	?Lookup@?$CMap@GGPAUtagGameServerInfo@@PAU1@@@QBEHGAAPAUtagGameServerInfo@@@Z ; CMap<unsigned short,unsigned short,tagGameServerInfo *,tagGameServerInfo *>::Lookup
PUBLIC	??A?$CMap@GGPAUtagGameServerInfo@@PAU1@@@QAEAAPAUtagGameServerInfo@@G@Z ; CMap<unsigned short,unsigned short,tagGameServerInfo *,tagGameServerInfo *>::operator[]
PUBLIC	?SetAt@?$CMap@GGPAUtagGameServerInfo@@PAU1@@@QAEXGPAUtagGameServerInfo@@@Z ; CMap<unsigned short,unsigned short,tagGameServerInfo *,tagGameServerInfo *>::SetAt
PUBLIC	?RemoveKey@?$CMap@GGPAUtagGameServerInfo@@PAU1@@@QAEHG@Z ; CMap<unsigned short,unsigned short,tagGameServerInfo *,tagGameServerInfo *>::RemoveKey
PUBLIC	?RemoveAll@?$CMap@GGPAUtagGameServerInfo@@PAU1@@@QAEXXZ ; CMap<unsigned short,unsigned short,tagGameServerInfo *,tagGameServerInfo *>::RemoveAll
PUBLIC	?GetStartPosition@?$CMap@GGPAUtagGameServerInfo@@PAU1@@@QBEPAU__POSITION@@XZ ; CMap<unsigned short,unsigned short,tagGameServerInfo *,tagGameServerInfo *>::GetStartPosition
PUBLIC	?GetNextAssoc@?$CMap@GGPAUtagGameServerInfo@@PAU1@@@QBEXAAPAU__POSITION@@AAGAAPAUtagGameServerInfo@@@Z ; CMap<unsigned short,unsigned short,tagGameServerInfo *,tagGameServerInfo *>::GetNextAssoc
PUBLIC	?InitHashTable@?$CMap@GGPAUtagGameServerInfo@@PAU1@@@QAEXIH@Z ; CMap<unsigned short,unsigned short,tagGameServerInfo *,tagGameServerInfo *>::InitHashTable
PUBLIC	?NewAssoc@?$CMap@GGPAUtagGameServerInfo@@PAU1@@@IAEPAVCAssoc@1@G@Z ; CMap<unsigned short,unsigned short,tagGameServerInfo *,tagGameServerInfo *>::NewAssoc
PUBLIC	?FreeAssoc@?$CMap@GGPAUtagGameServerInfo@@PAU1@@@IAEXPAVCAssoc@1@@Z ; CMap<unsigned short,unsigned short,tagGameServerInfo *,tagGameServerInfo *>::FreeAssoc
PUBLIC	?GetAssocAt@?$CMap@GGPAUtagGameServerInfo@@PAU1@@@IBEPAVCAssoc@1@GAAI0@Z ; CMap<unsigned short,unsigned short,tagGameServerInfo *,tagGameServerInfo *>::GetAssocAt
PUBLIC	??1?$CMap@GGPAUtagGameServerInfo@@PAU1@@@UAE@XZ	; CMap<unsigned short,unsigned short,tagGameServerInfo *,tagGameServerInfo *>::~CMap<unsigned short,unsigned short,tagGameServerInfo *,tagGameServerInfo *>
PUBLIC	?Serialize@?$CMap@GGPAUtagGameServerInfo@@PAU1@@@UAEXAAVCArchive@@@Z ; CMap<unsigned short,unsigned short,tagGameServerInfo *,tagGameServerInfo *>::Serialize
PUBLIC	?Dump@?$CMap@GGPAUtagGameServerInfo@@PAU1@@@UBEXAAVCDumpContext@@@Z ; CMap<unsigned short,unsigned short,tagGameServerInfo *,tagGameServerInfo *>::Dump
PUBLIC	?AssertValid@?$CMap@GGPAUtagGameServerInfo@@PAU1@@@UBEXXZ ; CMap<unsigned short,unsigned short,tagGameServerInfo *,tagGameServerInfo *>::AssertValid
PUBLIC	??_G?$CMap@GGPAUtagGameServerInfo@@PAU1@@@UAEPAXI@Z ; CMap<unsigned short,unsigned short,tagGameServerInfo *,tagGameServerInfo *>::`scalar deleting destructor'
PUBLIC	??0?$CWHArray@PAUtagGameServerInfo@@ABQAU1@@@QAE@XZ ; CWHArray<tagGameServerInfo *,tagGameServerInfo * const &>::CWHArray<tagGameServerInfo *,tagGameServerInfo * const &>
PUBLIC	??1?$CWHArray@PAUtagGameServerInfo@@ABQAU1@@@UAE@XZ ; CWHArray<tagGameServerInfo *,tagGameServerInfo * const &>::~CWHArray<tagGameServerInfo *,tagGameServerInfo * const &>
PUBLIC	?GetCount@?$CWHArray@PAUtagGameServerInfo@@ABQAU1@@@QBEHXZ ; CWHArray<tagGameServerInfo *,tagGameServerInfo * const &>::GetCount
PUBLIC	?Add@?$CWHArray@PAUtagGameServerInfo@@ABQAU1@@@QAEHABQAUtagGameServerInfo@@@Z ; CWHArray<tagGameServerInfo *,tagGameServerInfo * const &>::Add
PUBLIC	?ElementAt@?$CWHArray@PAUtagGameServerInfo@@ABQAU1@@@QAEAAPAUtagGameServerInfo@@H@Z ; CWHArray<tagGameServerInfo *,tagGameServerInfo * const &>::ElementAt
PUBLIC	?SetSize@?$CWHArray@PAUtagGameServerInfo@@ABQAU1@@@QAEXH@Z ; CWHArray<tagGameServerInfo *,tagGameServerInfo * const &>::SetSize
PUBLIC	?SetAtGrow@?$CWHArray@PAUtagGameServerInfo@@ABQAU1@@@QAEXHABQAUtagGameServerInfo@@@Z ; CWHArray<tagGameServerInfo *,tagGameServerInfo * const &>::SetAtGrow
PUBLIC	?RemoveAt@?$CWHArray@PAUtagGameServerInfo@@ABQAU1@@@QAEXHH@Z ; CWHArray<tagGameServerInfo *,tagGameServerInfo * const &>::RemoveAt
PUBLIC	?RemoveAll@?$CWHArray@PAUtagGameServerInfo@@ABQAU1@@@QAEXXZ ; CWHArray<tagGameServerInfo *,tagGameServerInfo * const &>::RemoveAll
PUBLIC	??A?$CWHArray@PAUtagGameServerInfo@@ABQAU1@@@QAEAAPAUtagGameServerInfo@@H@Z ; CWHArray<tagGameServerInfo *,tagGameServerInfo * const &>::operator[]
PUBLIC	?AllocMemory@?$CWHArray@PAUtagGameServerInfo@@ABQAU1@@@QAEXH@Z ; CWHArray<tagGameServerInfo *,tagGameServerInfo * const &>::AllocMemory
PUBLIC	??_G?$CWHArray@PAUtagGameServerInfo@@ABQAU1@@@UAEPAXI@Z ; CWHArray<tagGameServerInfo *,tagGameServerInfo * const &>::`scalar deleting destructor'
PUBLIC	??0CServerInfoBuffer@@QAE@XZ			; CServerInfoBuffer::CServerInfoBuffer
PUBLIC	??1CServerInfoBuffer@@UAE@XZ			; CServerInfoBuffer::~CServerInfoBuffer
PUBLIC	?ResetServerInfo@CServerInfoBuffer@@QAE_NXZ	; CServerInfoBuffer::ResetServerInfo
PUBLIC	?DeleteServerInfo@CServerInfoBuffer@@QAE_NG@Z	; CServerInfoBuffer::DeleteServerInfo
PUBLIC	?InsertServerInfo@CServerInfoBuffer@@QAE_NPAUtagGameServerInfo@@@Z ; CServerInfoBuffer::InsertServerInfo
PUBLIC	?GetServerInfoCount@CServerInfoBuffer@@QAEKXZ	; CServerInfoBuffer::GetServerInfoCount
PUBLIC	?SearchServerInfo@CServerInfoBuffer@@QAEPAUtagGameServerInfo@@G@Z ; CServerInfoBuffer::SearchServerInfo
PUBLIC	?CreateServerInfo@CServerInfoBuffer@@AAEPAUtagGameServerInfo@@XZ ; CServerInfoBuffer::CreateServerInfo
PUBLIC	??_GCServerInfoBuffer@@UAEPAXI@Z		; CServerInfoBuffer::`scalar deleting destructor'
PUBLIC	??_ECServerInfoBuffer@@UAEPAXI@Z		; CServerInfoBuffer::`vector deleting destructor'
PUBLIC	??0?$CWHArray@PAUtagGameMatchOption@@ABQAU1@@@QAE@XZ ; CWHArray<tagGameMatchOption *,tagGameMatchOption * const &>::CWHArray<tagGameMatchOption *,tagGameMatchOption * const &>
PUBLIC	??1?$CWHArray@PAUtagGameMatchOption@@ABQAU1@@@UAE@XZ ; CWHArray<tagGameMatchOption *,tagGameMatchOption * const &>::~CWHArray<tagGameMatchOption *,tagGameMatchOption * const &>
PUBLIC	?GetCount@?$CWHArray@PAUtagGameMatchOption@@ABQAU1@@@QBEHXZ ; CWHArray<tagGameMatchOption *,tagGameMatchOption * const &>::GetCount
PUBLIC	?Add@?$CWHArray@PAUtagGameMatchOption@@ABQAU1@@@QAEHABQAUtagGameMatchOption@@@Z ; CWHArray<tagGameMatchOption *,tagGameMatchOption * const &>::Add
PUBLIC	?Append@?$CWHArray@PAUtagGameMatchOption@@ABQAU1@@@QAEHABV1@@Z ; CWHArray<tagGameMatchOption *,tagGameMatchOption * const &>::Append
PUBLIC	?ElementAt@?$CWHArray@PAUtagGameMatchOption@@ABQAU1@@@QAEAAPAUtagGameMatchOption@@H@Z ; CWHArray<tagGameMatchOption *,tagGameMatchOption * const &>::ElementAt
PUBLIC	?SetSize@?$CWHArray@PAUtagGameMatchOption@@ABQAU1@@@QAEXH@Z ; CWHArray<tagGameMatchOption *,tagGameMatchOption * const &>::SetSize
PUBLIC	?SetAtGrow@?$CWHArray@PAUtagGameMatchOption@@ABQAU1@@@QAEXHABQAUtagGameMatchOption@@@Z ; CWHArray<tagGameMatchOption *,tagGameMatchOption * const &>::SetAtGrow
PUBLIC	?RemoveAt@?$CWHArray@PAUtagGameMatchOption@@ABQAU1@@@QAEXHH@Z ; CWHArray<tagGameMatchOption *,tagGameMatchOption * const &>::RemoveAt
PUBLIC	?RemoveAll@?$CWHArray@PAUtagGameMatchOption@@ABQAU1@@@QAEXXZ ; CWHArray<tagGameMatchOption *,tagGameMatchOption * const &>::RemoveAll
PUBLIC	??A?$CWHArray@PAUtagGameMatchOption@@ABQAU1@@@QAEAAPAUtagGameMatchOption@@H@Z ; CWHArray<tagGameMatchOption *,tagGameMatchOption * const &>::operator[]
PUBLIC	?AllocMemory@?$CWHArray@PAUtagGameMatchOption@@ABQAU1@@@QAEXH@Z ; CWHArray<tagGameMatchOption *,tagGameMatchOption * const &>::AllocMemory
PUBLIC	??0?$CWHArray@PAUtagGameMatchOption@@ABQAU1@@@QAE@ABV0@@Z ; CWHArray<tagGameMatchOption *,tagGameMatchOption * const &>::CWHArray<tagGameMatchOption *,tagGameMatchOption * const &>
PUBLIC	??4?$CWHArray@PAUtagGameMatchOption@@ABQAU1@@@QAEAAV0@ABV0@@Z ; CWHArray<tagGameMatchOption *,tagGameMatchOption * const &>::operator=
PUBLIC	??_G?$CWHArray@PAUtagGameMatchOption@@ABQAU1@@@UAEPAXI@Z ; CWHArray<tagGameMatchOption *,tagGameMatchOption * const &>::`scalar deleting destructor'
PUBLIC	??0CMatchOptionBuffer@@QAE@XZ			; CMatchOptionBuffer::CMatchOptionBuffer
PUBLIC	??1CMatchOptionBuffer@@UAE@XZ			; CMatchOptionBuffer::~CMatchOptionBuffer
PUBLIC	?ResetMatchOption@CMatchOptionBuffer@@QAE_NXZ	; CMatchOptionBuffer::ResetMatchOption
PUBLIC	?DeleteMatchOption@CMatchOptionBuffer@@QAE_NKK@Z ; CMatchOptionBuffer::DeleteMatchOption
PUBLIC	?InsertMatchOption@CMatchOptionBuffer@@QAE_NPAUtagGameMatchOption@@@Z ; CMatchOptionBuffer::InsertMatchOption
PUBLIC	?GetMatchOptionCount@CMatchOptionBuffer@@QAEKXZ	; CMatchOptionBuffer::GetMatchOptionCount
PUBLIC	?SearchMatchOption@CMatchOptionBuffer@@QAEPAUtagGameMatchOption@@K_J@Z ; CMatchOptionBuffer::SearchMatchOption
PUBLIC	?CreateMatchOption@CMatchOptionBuffer@@AAEPAUtagGameMatchOption@@XZ ; CMatchOptionBuffer::CreateMatchOption
PUBLIC	??0CMatchOptionBuffer@@QAE@ABV0@@Z		; CMatchOptionBuffer::CMatchOptionBuffer
PUBLIC	??4CMatchOptionBuffer@@QAEAAV0@ABV0@@Z		; CMatchOptionBuffer::operator=
PUBLIC	??_GCMatchOptionBuffer@@UAEPAXI@Z		; CMatchOptionBuffer::`scalar deleting destructor'
PUBLIC	??_ECMatchOptionBuffer@@UAEPAXI@Z		; CMatchOptionBuffer::`vector deleting destructor'
PUBLIC	??0CServerInfoManager@@QAE@XZ			; CServerInfoManager::CServerInfoManager
PUBLIC	??1CServerInfoManager@@UAE@XZ			; CServerInfoManager::~CServerInfoManager
PUBLIC	?LoadGameServerInfo@CServerInfoManager@@QAE_NQADAAVCServerInfoBuffer@@@Z ; CServerInfoManager::LoadGameServerInfo
PUBLIC	?LoadGameServerInfo@CServerInfoManager@@QAE_NQADGAAUtagGameServerInfo@@@Z ; CServerInfoManager::LoadGameServerInfo
PUBLIC	?DeleteGameServer@CServerInfoManager@@QAE_NG@Z	; CServerInfoManager::DeleteGameServer
PUBLIC	?InsertGameServer@CServerInfoManager@@QAE_NPAUtagGameServerCreate@@AAUtagGameServerInfo@@@Z ; CServerInfoManager::InsertGameServer
PUBLIC	?ModifyGameServer@CServerInfoManager@@QAE_NPAUtagGameServerCreate@@AAUtagGameServerInfo@@@Z ; CServerInfoManager::ModifyGameServer
PUBLIC	?ConnectPlatformDB@CServerInfoManager@@AAE_NAAVCDataBaseHelper@@@Z ; CServerInfoManager::ConnectPlatformDB
PUBLIC	?ReadGameServerInfo@CServerInfoManager@@AAE_NAAVCDataBaseAide@@AAUtagGameServerInfo@@@Z ; CServerInfoManager::ReadGameServerInfo
PUBLIC	?SetPersonalRoomOption@CServerInfoManager@@QAEXUtagPersonalRoomOption@@UtagPersonalRoomOptionRightAndFee@@@Z ; CServerInfoManager::SetPersonalRoomOption
PUBLIC	?LoadPersonalRoomParameter@CServerInfoManager@@QAE_NAAUtagPersonalRoomOption@@AAUtagPersonalRoomOptionRightAndFee@@G@Z ; CServerInfoManager::LoadPersonalRoomParameter
PUBLIC	?InsertPersonalRoomParameter@CServerInfoManager@@QAE_NVCDataBaseAide@@UtagPersonalRoomOption@@UtagPersonalRoomOptionRightAndFee@@GG@Z ; CServerInfoManager::InsertPersonalRoomParameter
PUBLIC	?ModifyPersonalRoomParameter@CServerInfoManager@@QAE_NVCDataBaseAide@@UtagPersonalRoomOption@@UtagPersonalRoomOptionRightAndFee@@GG@Z ; CServerInfoManager::ModifyPersonalRoomParameter
PUBLIC	?WriteFileValue@CServerInfoManager@@QAEXPBD0I0@Z ; CServerInfoManager::WriteFileValue
PUBLIC	?WritePersonalRoomInfo@CServerInfoManager@@QAE_NUtagPersonalRoomOption@@UtagPersonalRoomOptionRightAndFee@@G@Z ; CServerInfoManager::WritePersonalRoomInfo
PUBLIC	??0CServerInfoManager@@QAE@ABV0@@Z		; CServerInfoManager::CServerInfoManager
PUBLIC	??4CServerInfoManager@@QAEAAV0@ABV0@@Z		; CServerInfoManager::operator=
PUBLIC	??_GCServerInfoManager@@UAEPAXI@Z		; CServerInfoManager::`scalar deleting destructor'
PUBLIC	??_ECServerInfoManager@@UAEPAXI@Z		; CServerInfoManager::`vector deleting destructor'
PUBLIC	??$_Maklocstr@D@std@@YAPADPBDPADABU_Cvtvec@@@Z	; std::_Maklocstr<char>
PUBLIC	??$_snprintf_s@$0IA@@@YAHAAY0IA@DIPBDZZ		; _snprintf_s<128>
PUBLIC	??$SerializeElements@G@@YGXAAVCArchive@@PAGH@Z	; SerializeElements<unsigned short>
PUBLIC	??$DumpElements@G@@YGXAAVCDumpContext@@PBGH@Z	; DumpElements<unsigned short>
PUBLIC	??0CPair@?$CMap@GGPAUtagGameServerInfo@@PAU1@@@IAE@G@Z ; CMap<unsigned short,unsigned short,tagGameServerInfo *,tagGameServerInfo *>::CPair::CPair
PUBLIC	??0CAssoc@?$CMap@GGPAUtagGameServerInfo@@PAU1@@@QAE@G@Z ; CMap<unsigned short,unsigned short,tagGameServerInfo *,tagGameServerInfo *>::CAssoc::CAssoc
PUBLIC	??$HashKey@G@@YGIG@Z				; HashKey<unsigned short>
PUBLIC	??$CompareElements@GG@@YGHPBG0@Z		; CompareElements<unsigned short,unsigned short>
PUBLIC	??$SerializeElements@PAUtagGameServerInfo@@@@YGXAAVCArchive@@PAPAUtagGameServerInfo@@H@Z ; SerializeElements<tagGameServerInfo *>
PUBLIC	??$DumpElements@PAUtagGameServerInfo@@@@YGXAAVCDumpContext@@PBQAUtagGameServerInfo@@H@Z ; DumpElements<tagGameServerInfo *>
PUBLIC	?_OptionsStorage@?1??__local_stdio_printf_options@@9@4_KA ; `__local_stdio_printf_options'::`2'::_OptionsStorage
PUBLIC	??_C@_02DPKJAMEF@?$CFd@				; `string'
PUBLIC	??_C@_00CNPNBAHC@@				; `string'
PUBLIC	??_C@_0HC@HBCNBCLF@c?3?2program?5files?5?$CIx86?$CJ?2microsof@ ; `string'
PUBLIC	??_C@_05PLCFPPOI@with?5@			; `string'
PUBLIC	??_C@_09HCLNAIDE@?5elements@			; `string'
PUBLIC	??_C@_01EEMJAFIK@?6@				; `string'
PUBLIC	??_R1A@?0A@EA@CObject@@8			; CObject::`RTTI Base Class Descriptor at (0,-1,0,64)'
PUBLIC	??_R0?AVCObject@@@8				; CObject `RTTI Type Descriptor'
PUBLIC	??_R3CObject@@8					; CObject::`RTTI Class Hierarchy Descriptor'
PUBLIC	??_R2CObject@@8					; CObject::`RTTI Base Class Array'
PUBLIC	??_C@_0GI@LKBGDILM@c?3?2program?5files?5?$CIx86?$CJ?2microsof@ ; `string'
PUBLIC	?__LINE__Var@?0??_Maklocwcs@std@@YAPA_WPB_W@Z@4JA ; `std::_Maklocwcs'::`1'::__LINE__Var
PUBLIC	??_C@_0GI@DJFLDKBN@c?3?2program?5files?5?$CIx86?$CJ?2microsof@ ; `string'
PUBLIC	??_7?$CTempldateHelper@UIDataBase@@@@6B@	; CTempldateHelper<IDataBase>::`vftable'
PUBLIC	??_7CDataBaseHelper@@6B@			; CDataBaseHelper::`vftable'
PUBLIC	??_C@_0P@IKJBDFNG@CreateDataBase@		; `string'
PUBLIC	??_C@_0BB@BEMLEOHB@KernelEngine?4dll@		; `string'
PUBLIC	??_7CModuleDBParameter@@6B@			; CModuleDBParameter::`vftable'
PUBLIC	??_7?$CMap@GGPAUtagGameServerInfo@@PAU1@@@6B@	; CMap<unsigned short,unsigned short,tagGameServerInfo *,tagGameServerInfo *>::`vftable'
PUBLIC	??_7?$CWHArray@PAUtagGameServerInfo@@ABQAU1@@@6B@ ; CWHArray<tagGameServerInfo *,tagGameServerInfo * const &>::`vftable'
PUBLIC	??_7CServerInfoBuffer@@6B@			; CServerInfoBuffer::`vftable'
PUBLIC	??_7?$CWHArray@PAUtagGameMatchOption@@ABQAU1@@@6B@ ; CWHArray<tagGameMatchOption *,tagGameMatchOption * const &>::`vftable'
PUBLIC	??_7CMatchOptionBuffer@@6B@			; CMatchOptionBuffer::`vftable'
PUBLIC	??_7CServerInfoManager@@6B@			; CServerInfoManager::`vftable'
PUBLIC	?__LINE__Var@?0???1CServerInfoBuffer@@UAE@XZ@4JA ; `CServerInfoBuffer::~CServerInfoBuffer'::`1'::__LINE__Var
PUBLIC	??_C@_0EO@GNEBGAKM@g?3?2?M?x?$LK?$PM?2happygamewh?2?$LH?$PO?N?q?$LG?K?2?O?$LF?M?$LD@ ; `string'
PUBLIC	?__LINE__Var@?0??InsertServerInfo@CServerInfoBuffer@@QAE_NPAUtagGameServerInfo@@@Z@4JA ; `CServerInfoBuffer::InsertServerInfo'::`1'::__LINE__Var
PUBLIC	?__LINE__Var@?0???1CMatchOptionBuffer@@UAE@XZ@4JA ; `CMatchOptionBuffer::~CMatchOptionBuffer'::`1'::__LINE__Var
PUBLIC	?__LINE__Var@?0??InsertMatchOption@CMatchOptionBuffer@@QAE_NPAUtagGameMatchOption@@@Z@4JA ; `CMatchOptionBuffer::InsertMatchOption'::`1'::__LINE__Var
PUBLIC	?__LINE__Var@?0??LoadGameServerInfo@CServerInfoManager@@QAE_NQADAAVCServerInfoBuffer@@@Z@4JA ; `CServerInfoManager::LoadGameServerInfo'::`1'::__LINE__Var
PUBLIC	??_C@_0L@FIEHJJML@?$EAwServerID@		; `string'
PUBLIC	??_C@_0BD@CBAFKNPB@?$EAstrServiceMachine@	; `string'
PUBLIC	??_C@_0BC@IIOJPJPJ@?$EAstrErrorDescribe@	; `string'
PUBLIC	??_C@_0BI@JPDDAIPE@GSP_GS_LoadGameRoomItem@	; `string'
PUBLIC	??_R0PAUIDataBaseException@@@8			; IDataBaseException * `RTTI Type Descriptor'
PUBLIC	?__LINE__Var@?0??LoadGameServerInfo@CServerInfoManager@@QAE_NQADGAAUtagGameServerInfo@@@Z@4JA ; `CServerInfoManager::LoadGameServerInfo'::`1'::__LINE__Var
PUBLIC	?__LINE__Var@?0??DeleteGameServer@CServerInfoManager@@QAE_NG@Z@4JA ; `CServerInfoManager::DeleteGameServer'::`1'::__LINE__Var
PUBLIC	??_C@_0BG@EDPMEAGC@GSP_GS_DeleteGameRoom@	; `string'
PUBLIC	?__LINE__Var@?0??InsertGameServer@CServerInfoManager@@QAE_NPAUtagGameServerCreate@@AAUtagGameServerInfo@@@Z@4JA ; `CServerInfoManager::InsertGameServer'::`1'::__LINE__Var
PUBLIC	??_C@_04JFFKLGJF@?$CF02X@			; `string'
PUBLIC	??_C@_08KFPBGPFE@?$EAwGameID@			; `string'
PUBLIC	??_C@_08HBBOJKPI@?$EAwKindID@			; `string'
PUBLIC	??_C@_08HHDCJIG@?$EAwNodeID@			; `string'
PUBLIC	??_C@_08GHPIGFA@?$EAwSortID@			; `string'
PUBLIC	??_C@_0M@DOJONCPP@?$EAlCellScore@		; `string'
PUBLIC	??_C@_0P@JILOLBML@?$EAwRevenueRatio@		; `string'
PUBLIC	??_C@_0P@BCEPIHID@?$EAlServiceScore@		; `string'
PUBLIC	??_C@_0BA@MOGKDICI@?$EAlRestrictScore@		; `string'
PUBLIC	??_C@_0BA@CGJIELGM@?$EAlMinTableScore@		; `string'
PUBLIC	??_C@_0BA@NKAHIJHK@?$EAlMinEnterScore@		; `string'
PUBLIC	??_C@_0BA@GDCBBCAL@?$EAlMaxEnterScore@		; `string'
PUBLIC	??_C@_0BC@CPKAFFOL@?$EAcbMinEnterMember@	; `string'
PUBLIC	??_C@_0BC@IBLDCNK@?$EAcbMaxEnterMember@		; `string'
PUBLIC	??_C@_0O@ELIMAAAE@?$EAdwServerRule@		; `string'
PUBLIC	??_C@_0BD@FCBMNBKD@?$EAdwAttachUserRight@	; `string'
PUBLIC	??_C@_0M@IBCKNPAA@?$EAwMaxPlayer@		; `string'
PUBLIC	??_C@_0N@JMGMPJ@?$EAwTableCount@		; `string'
PUBLIC	??_C@_0N@KHDIKACC@?$EAwServerPort@		; `string'
PUBLIC	??_C@_0N@MKJNBBCI@?$EAwServerKind@		; `string'
PUBLIC	??_C@_0N@HHJHPJNP@?$EAwServerType@		; `string'
PUBLIC	??_C@_0O@LAKNNJLO@?$EAwServerLevel@		; `string'
PUBLIC	??_C@_0P@HKFGBIA@?$EAstrServerName@		; `string'
PUBLIC	??_C@_0BB@MMFKNIGF@?$EAstrServerPasswd@		; `string'
PUBLIC	??_C@_0BC@OEHLNJCG@?$EAcbDistributeRule@	; `string'
PUBLIC	??_C@_0BE@HAABPICC@?$EAwMinDistributeUser@	; `string'
PUBLIC	??_C@_0BG@PGABJKOH@?$EAwDistributeTimeSpace@	; `string'
PUBLIC	??_C@_0BG@DNMICNEI@?$EAwDistributeDrawCount@	; `string'
PUBLIC	??_C@_0BF@EICMGAPH@?$EAwMinPartakeGameUser@	; `string'
PUBLIC	??_C@_0BF@OPBIOAIO@?$EAwMaxPartakeGameUser@	; `string'
PUBLIC	??_C@_0BB@PBIEFPDL@?$EAstrDataBaseName@		; `string'
PUBLIC	??_C@_0BB@EOFIIHMB@?$EAstrDataBaseAddr@		; `string'
PUBLIC	??_C@_0P@PGPKAIOB@?$EAstrCustomRule@		; `string'
PUBLIC	??_C@_0BB@ELKLEIJF@?$EAstrPersonalRule@		; `string'
PUBLIC	??_C@_0BG@EDGEFKPJ@GSP_GS_InsertGameRoom@	; `string'
PUBLIC	?__LINE__Var@?0??ModifyGameServer@CServerInfoManager@@QAE_NPAUtagGameServerCreate@@AAUtagGameServerInfo@@@Z@4JA ; `CServerInfoManager::ModifyGameServer'::`1'::__LINE__Var
PUBLIC	??_C@_0BG@HDLIAPBG@GSP_GS_ModifyGameRoom@	; `string'
PUBLIC	??_C@_0DA@PCJBGNDG@CreateGameServer?5?$LE?$LE?$LN?$KI?5PlatformD@ ; `string'
PUBLIC	?__LINE__Var@?0??ReadGameServerInfo@CServerInfoManager@@AAE_NAAVCDataBaseAide@@AAUtagGameServerInfo@@@Z@4JA ; `CServerInfoManager::ReadGameServerInfo'::`1'::__LINE__Var
PUBLIC	??_C@_06KGJDDPAK@GameID@			; `string'
PUBLIC	??_C@_08BHBELLIH@ServerID@			; `string'
PUBLIC	??_C@_06HCHMMKKG@KindID@			; `string'
PUBLIC	??_C@_06EBBHJNI@NodeID@				; `string'
PUBLIC	??_C@_06FBNNGAO@SortID@				; `string'
PUBLIC	??_C@_0O@DNEICACF@ClientVersion@		; `string'
PUBLIC	??_C@_0O@BNALHPOE@ServerVersion@		; `string'
PUBLIC	??_C@_08DBMACHKJ@GameName@			; `string'
PUBLIC	??_C@_0O@DLLFAKFN@ServerDLLName@		; `string'
PUBLIC	??_C@_0O@GDMCLMBH@ClientEXEName@		; `string'
PUBLIC	??_C@_09MMGMMPOJ@CellScore@			; `string'
PUBLIC	??_C@_0N@FEAJGFG@RevenueRatio@			; `string'
PUBLIC	??_C@_0N@KGDLKHJP@ServiceScore@			; `string'
PUBLIC	??_C@_0O@NKNPBAEH@RestrictScore@		; `string'
PUBLIC	??_C@_0O@DCCNGDAD@MinTableScore@		; `string'
PUBLIC	??_C@_0O@MOLCKBBF@MinEnterScore@		; `string'
PUBLIC	??_C@_0O@HHJEDKGE@MaxEnterScore@		; `string'
PUBLIC	??_C@_0P@LLHLENEP@MinEnterMember@		; `string'
PUBLIC	??_C@_0P@JMMACKHO@MaxEnterMember@		; `string'
PUBLIC	??_C@_0L@COJBOHGN@ServerRule@			; `string'
PUBLIC	??_C@_0BA@IBOCBCNP@AttachUserRight@		; `string'
PUBLIC	??_C@_09POAPIBJJ@MaxPlayer@			; `string'
PUBLIC	??_C@_0L@IJDAGCEH@TableCount@			; `string'
PUBLIC	??_C@_0L@COJEKOJM@ServerPort@			; `string'
PUBLIC	??_C@_0L@EDDBBPJG@ServerKind@			; `string'
PUBLIC	??_C@_0L@PODLPHGB@ServerType@			; `string'
PUBLIC	??_C@_0M@JMPNOLDL@ServerLevel@			; `string'
PUBLIC	??_C@_0L@FFDIDHBB@ServerName@			; `string'
PUBLIC	??_C@_0N@CGAIMFGC@ServerPasswd@			; `string'
PUBLIC	??_C@_0P@HAKAMBIC@DistributeRule@		; `string'
PUBLIC	??_C@_0BC@BPMHCGIJ@MinDistributeUser@		; `string'
PUBLIC	??_C@_0BE@NKJJGPNA@DistributeTimeSpace@		; `string'
PUBLIC	??_C@_0BE@BBFANIHP@DistributeDrawCount@		; `string'
PUBLIC	??_C@_0BD@JEHNMEJ@MinPartakeGameUser@		; `string'
PUBLIC	??_C@_0BD@KOHDFMDA@MaxPartakeGameUser@		; `string'
PUBLIC	??_C@_0N@BLNGECDM@DataBaseName@			; `string'
PUBLIC	??_C@_0N@KEAKJKMG@DataBaseAddr@			; `string'
PUBLIC	??_C@_0L@KEGHFOHA@CustomRule@			; `string'
PUBLIC	??_C@_0P@NECLNLN@ServiceMachine@		; `string'
PUBLIC	??_C@_0N@KBPJFFJC@PersonalRule@			; `string'
PUBLIC	?__LINE__Var@?0??LoadPersonalRoomParameter@CServerInfoManager@@QAE_NAAUtagPersonalRoomOption@@AAUtagPersonalRoomOptionRightAndFee@@G@Z@4JA ; `CServerInfoManager::LoadPersonalRoomParameter'::`1'::__LINE__Var
PUBLIC	??_C@_0CB@MMPODBFJ@GSP_GS_LoadPersonalRoomParamete@ ; `string'
PUBLIC	??_C@_0L@HLGININO@IsJoinGame@			; `string'
PUBLIC	??_C@_09BAGGAEBH@MinPeople@			; `string'
PUBLIC	??_C@_09BBGKJOKD@MaxPeople@			; `string'
PUBLIC	??_C@_0N@CNCFIDBJ@MaxCellScore@			; `string'
PUBLIC	??_C@_0BA@GCOMLPGF@PersonalRoomTax@		; `string'
PUBLIC	??_C@_0P@LNMJOPEM@CanCreateCount@		; `string'
PUBLIC	??_C@_0O@FDPMPBME@PlayTurnCount@		; `string'
PUBLIC	??_C@_0O@FAGABJFM@PlayTimeLimit@		; `string'
PUBLIC	??_C@_0BE@NHDBBOLF@TimeAfterBeginCount@		; `string'
PUBLIC	??_C@_0BB@BHHEMCMJ@TimeOffLineCount@		; `string'
PUBLIC	??_C@_0BB@EFKEMBID@TimeNotBeginGame@		; `string'
PUBLIC	??_C@_0BM@CMLNFFIM@TimeNotBeginAfterCreateRoom@	; `string'
PUBLIC	??_C@_0O@DEEAMCAI@BeginFreeTime@		; `string'
PUBLIC	??_C@_0M@OHDGOHJM@EndFreeTime@			; `string'
PUBLIC	??_C@_0M@JGNJEEEJ@CreateRight@			; `string'
PUBLIC	??_C@_09DFDKDCCP@?$EAdwKindID@			; `string'
PUBLIC	??_C@_0BP@BLHAELOH@GSP_MB_GetPersonalFeeParameter@ ; `string'
PUBLIC	??_C@_0P@MBIIKCNO@DrawCountLimit@		; `string'
PUBLIC	??_C@_08PACNKABG@TableFee@			; `string'
PUBLIC	??_C@_08MJHOBIFI@AAPayFee@			; `string'
PUBLIC	??_C@_08MILKFGPP@IniScore@			; `string'
PUBLIC	??_C@_08JJGOBBMF@GameMode@			; `string'
PUBLIC	??_C@_0O@PHLNKDAD@?$EAcbIsJoinGame@		; `string'
PUBLIC	??_C@_0N@BGGBCKEJ@?$EAcbMinPeople@		; `string'
PUBLIC	??_C@_0N@BHGNLAPN@?$EAcbMaxPeople@		; `string'
PUBLIC	??_C@_0BC@LFDMHEEC@?$EAlPersonalRoomTax@	; `string'
PUBLIC	??_C@_0P@JJFBKDAF@?$EAlMaxCellScore@		; `string'
PUBLIC	??_C@_0BB@NMCMDDIO@?$EAwCanCreateCount@		; `string'
PUBLIC	??_C@_0BA@NNNPOABK@?$EAwPlayTurnCount@		; `string'
PUBLIC	??_C@_0BA@NOEDAIIC@?$EAwPlayTimeLimit@		; `string'
PUBLIC	??_C@_0BG@PLKJOLIC@?$EAwTimeAfterBeginCount@	; `string'
PUBLIC	??_C@_0BD@GBNNIIBP@?$EAwTimeOffLineCount@	; `string'
PUBLIC	??_C@_0BD@DDANILFF@?$EAwTimeNotBeginGame@	; `string'
PUBLIC	??_C@_0BO@GAPHEMLN@?$EAwTimeNotBeginAfterCreateRoom@ ; `string'
PUBLIC	??_C@_0P@GODHDPFL@?$EAcbCreateRight@		; `string'
PUBLIC	??_C@_0BA@LKGDNDNG@?$EAwBeginFreeTime@		; `string'
PUBLIC	??_C@_0O@MLGGNFBJ@?$EAwEndFreeTime@		; `string'
PUBLIC	??_C@_0CD@MBGOMFKI@GSP_GS_InsertPersonalRoomParame@ ; `string'
PUBLIC	??_C@_0CC@PJKIIGNE@GSP_GS_DeletePersonalFeeParamet@ ; `string'
PUBLIC	??_C@_0BA@NEJOBMJG@?$EADrawCountLimit@		; `string'
PUBLIC	??_C@_0P@PPHKCKBK@?$EADrawTimeLimit@		; `string'
PUBLIC	??_C@_09GLBENLGO@?$EATableFee@			; `string'
PUBLIC	??_C@_09FCEHGDCA@?$EAAAPayFee@			; `string'
PUBLIC	??_C@_09FDIDCNIH@?$EAIniScore@			; `string'
PUBLIC	??_C@_0M@CIPFFAIA@?$EAcbGameMode@		; `string'
PUBLIC	??_C@_0CB@BGEDMOGM@GSP_GS_WritePersonalFeeParamete@ ; `string'
PUBLIC	??_C@_0BB@LABICMHO@?$LC?e?H?k?S?N?O?$LH?$LH?Q?S?C?$LD?v?$LE?m@ ; `string'
PUBLIC	??_C@_0BP@BNMLDPEJ@GSP_GR_DeletePersonalCellScore@ ; `string'
PUBLIC	??_C@_0BP@GEFHPGBC@GSP_GR_InsertPersonalCellScore@ ; `string'
PUBLIC	??_C@_0BB@HEGDPGKB@?$LC?e?H?k?S?N?O?$LH?$LF?W?$LH?V?$LD?v?$LE?m@ ; `string'
PUBLIC	??_C@_0M@EODDKFON@?$EAdwServerID@		; `string'
PUBLIC	??_C@_0CD@IBOJDKIM@GSP_GS_ModifyPersonalRoomParame@ ; `string'
PUBLIC	??_C@_09LOOPACNL@?$CFs?2?$CFd?4ini@		; `string'
PUBLIC	??_C@_07DOAOMMKG@Enabled@			; `string'
PUBLIC	??_C@_06CKGENIKG@Enable@			; `string'
PUBLIC	??_C@_06CJHLBMGC@Option@			; `string'
PUBLIC	??_C@_0BE@MAFCEFJP@TimeAfterCreateRoom@		; `string'
PUBLIC	??_C@_0BA@MEGPCNND@CreateRoomRight@		; `string'
PUBLIC	??_C@_0BB@NDJBEBBP@PlayTurnLimit_?$CFd@		; `string'
PUBLIC	??_C@_0N@BPNJNFLH@FeeParameter@			; `string'
PUBLIC	??_C@_09NPCPBNFG@PayFee_?$CFd@			; `string'
PUBLIC	??_C@_0M@PLHAIOPP@AAPayFee_?$CFd@		; `string'
PUBLIC	??_C@_0M@NFLEKBDJ@IniScore_?$CFd@		; `string'
PUBLIC	??_C@_0M@MCMOAOCB@GameMode_?$CFd@		; `string'
PUBLIC	??_C@_0N@LPFKKEBD@?3AM?3am?3PM?3pm@		; `string'
PUBLIC	??_C@_1BK@MHIKGOKE@?$AA?3?$AAA?$AAM?$AA?3?$AAa?$AAm?$AA?3?$AAP?$AAM?$AA?3?$AAp?$AAm@ ; `string'
PUBLIC	??_C@_0DG@CDIFDKED@g?3?2?M?x?$LK?$PM?2happygamewh?2?$LH?$PO?N?q?$LG?K?2?O?$LF?M?$LD@ ; `string'
PUBLIC	??_C@_0BD@LMOFNGMO@?$KB?$LA?$CFs?$KB?$LB?D?$KD?$LP?i?$LM?S?T?X?J?$KH?$LA?$NM@ ; `string'
PUBLIC	??_C@_0BM@PEGNCJOH@?U?R?$LC?$LL?$LF?$LN?W?i?$LM?$PO?$LE?$LE?$LN?$KI?$LK?$KP?J?$PN?$KB?$LA?$CFs?$KB?$LB?3?$CFd@ ; `string'
PUBLIC	??_C@_0BL@PDAODLKM@?$LF?w?S?C?$LK?$KP?J?$PN?$KB?$LA?$CFs?$KB?$LB?I?z?$LD?I?$LG?T?O?s?J?$KH?$LA?$NM@ ; `string'
PUBLIC	??_R0PAD@8					; char * `RTTI Type Descriptor'
PUBLIC	??_C@_0BJ@JGPFHIJF@?S?I?S?Z?$KB?$LA?$CFs?$KB?$LB?$KD?$KM?W?i?$LM?$PO?$LE?$LE?$LN?$KI?J?$KH?$LA?$NM@ ; `string'
PUBLIC	??_C@_0DB@JBNKENAJ@?W?i?$LM?$PO?$LE?$LE?$LN?$KI?$LK?$KP?J?$PN?$KB?$LA?$CFs?$KB?$LB?$LC?z?I?z?N?$LE?V?$KK?R?l?$LD?$KD?$LE@ ; `string'
PUBLIC	??_C@_03OHJIHPJH@?6?7?$FL@			; `string'
PUBLIC	??_C@_04OAFLPOMH@?$FN?5?$DN?5@			; `string'
PUBLIC	??_C@_0DF@LDFGAABH@g?3?2?M?x?$LK?$PM?2happygamewh?2?$LH?$PO?N?q?$LG?K?2?O?$LF?M?$LD@ ; `string'
PUBLIC	??_R4CDataBaseHelper@@6B@			; CDataBaseHelper::`RTTI Complete Object Locator'
PUBLIC	??_R0?AVCDataBaseHelper@@@8			; CDataBaseHelper `RTTI Type Descriptor'
PUBLIC	??_R3CDataBaseHelper@@8				; CDataBaseHelper::`RTTI Class Hierarchy Descriptor'
PUBLIC	??_R2CDataBaseHelper@@8				; CDataBaseHelper::`RTTI Base Class Array'
PUBLIC	??_R1A@?0A@EA@CDataBaseHelper@@8		; CDataBaseHelper::`RTTI Base Class Descriptor at (0,-1,0,64)'
PUBLIC	??_R1A@?0A@EA@?$CTempldateHelper@UIDataBase@@@@8 ; CTempldateHelper<IDataBase>::`RTTI Base Class Descriptor at (0,-1,0,64)'
PUBLIC	??_R0?AV?$CTempldateHelper@UIDataBase@@@@@8	; CTempldateHelper<IDataBase> `RTTI Type Descriptor'
PUBLIC	??_R3?$CTempldateHelper@UIDataBase@@@@8		; CTempldateHelper<IDataBase>::`RTTI Class Hierarchy Descriptor'
PUBLIC	??_R2?$CTempldateHelper@UIDataBase@@@@8		; CTempldateHelper<IDataBase>::`RTTI Base Class Array'
PUBLIC	??_R4?$CTempldateHelper@UIDataBase@@@@6B@	; CTempldateHelper<IDataBase>::`RTTI Complete Object Locator'
PUBLIC	??_R4CModuleDBParameter@@6B@			; CModuleDBParameter::`RTTI Complete Object Locator'
PUBLIC	??_R0?AVCModuleDBParameter@@@8			; CModuleDBParameter `RTTI Type Descriptor'
PUBLIC	??_R3CModuleDBParameter@@8			; CModuleDBParameter::`RTTI Class Hierarchy Descriptor'
PUBLIC	??_R2CModuleDBParameter@@8			; CModuleDBParameter::`RTTI Base Class Array'
PUBLIC	??_R1A@?0A@EA@CModuleDBParameter@@8		; CModuleDBParameter::`RTTI Base Class Descriptor at (0,-1,0,64)'
PUBLIC	??_R4?$CWHArray@PAUtagGameServerInfo@@ABQAU1@@@6B@ ; CWHArray<tagGameServerInfo *,tagGameServerInfo * const &>::`RTTI Complete Object Locator'
PUBLIC	??_R0?AV?$CWHArray@PAUtagGameServerInfo@@ABQAU1@@@@8 ; CWHArray<tagGameServerInfo *,tagGameServerInfo * const &> `RTTI Type Descriptor'
PUBLIC	??_R3?$CWHArray@PAUtagGameServerInfo@@ABQAU1@@@8 ; CWHArray<tagGameServerInfo *,tagGameServerInfo * const &>::`RTTI Class Hierarchy Descriptor'
PUBLIC	??_R2?$CWHArray@PAUtagGameServerInfo@@ABQAU1@@@8 ; CWHArray<tagGameServerInfo *,tagGameServerInfo * const &>::`RTTI Base Class Array'
PUBLIC	??_R1A@?0A@EA@?$CWHArray@PAUtagGameServerInfo@@ABQAU1@@@8 ; CWHArray<tagGameServerInfo *,tagGameServerInfo * const &>::`RTTI Base Class Descriptor at (0,-1,0,64)'
PUBLIC	??_R4?$CWHArray@PAUtagGameMatchOption@@ABQAU1@@@6B@ ; CWHArray<tagGameMatchOption *,tagGameMatchOption * const &>::`RTTI Complete Object Locator'
PUBLIC	??_R0?AV?$CWHArray@PAUtagGameMatchOption@@ABQAU1@@@@8 ; CWHArray<tagGameMatchOption *,tagGameMatchOption * const &> `RTTI Type Descriptor'
PUBLIC	??_R3?$CWHArray@PAUtagGameMatchOption@@ABQAU1@@@8 ; CWHArray<tagGameMatchOption *,tagGameMatchOption * const &>::`RTTI Class Hierarchy Descriptor'
PUBLIC	??_R2?$CWHArray@PAUtagGameMatchOption@@ABQAU1@@@8 ; CWHArray<tagGameMatchOption *,tagGameMatchOption * const &>::`RTTI Base Class Array'
PUBLIC	??_R1A@?0A@EA@?$CWHArray@PAUtagGameMatchOption@@ABQAU1@@@8 ; CWHArray<tagGameMatchOption *,tagGameMatchOption * const &>::`RTTI Base Class Descriptor at (0,-1,0,64)'
PUBLIC	??_R4?$CMap@GGPAUtagGameServerInfo@@PAU1@@@6B@	; CMap<unsigned short,unsigned short,tagGameServerInfo *,tagGameServerInfo *>::`RTTI Complete Object Locator'
PUBLIC	??_R0?AV?$CMap@GGPAUtagGameServerInfo@@PAU1@@@@8 ; CMap<unsigned short,unsigned short,tagGameServerInfo *,tagGameServerInfo *> `RTTI Type Descriptor'
PUBLIC	??_R3?$CMap@GGPAUtagGameServerInfo@@PAU1@@@8	; CMap<unsigned short,unsigned short,tagGameServerInfo *,tagGameServerInfo *>::`RTTI Class Hierarchy Descriptor'
PUBLIC	??_R2?$CMap@GGPAUtagGameServerInfo@@PAU1@@@8	; CMap<unsigned short,unsigned short,tagGameServerInfo *,tagGameServerInfo *>::`RTTI Base Class Array'
PUBLIC	??_R1A@?0A@EA@?$CMap@GGPAUtagGameServerInfo@@PAU1@@@8 ; CMap<unsigned short,unsigned short,tagGameServerInfo *,tagGameServerInfo *>::`RTTI Base Class Descriptor at (0,-1,0,64)'
PUBLIC	??_R4CServerInfoBuffer@@6B@			; CServerInfoBuffer::`RTTI Complete Object Locator'
PUBLIC	??_R0?AVCServerInfoBuffer@@@8			; CServerInfoBuffer `RTTI Type Descriptor'
PUBLIC	??_R3CServerInfoBuffer@@8			; CServerInfoBuffer::`RTTI Class Hierarchy Descriptor'
PUBLIC	??_R2CServerInfoBuffer@@8			; CServerInfoBuffer::`RTTI Base Class Array'
PUBLIC	??_R1A@?0A@EA@CServerInfoBuffer@@8		; CServerInfoBuffer::`RTTI Base Class Descriptor at (0,-1,0,64)'
PUBLIC	??_R4CMatchOptionBuffer@@6B@			; CMatchOptionBuffer::`RTTI Complete Object Locator'
PUBLIC	??_R0?AVCMatchOptionBuffer@@@8			; CMatchOptionBuffer `RTTI Type Descriptor'
PUBLIC	??_R3CMatchOptionBuffer@@8			; CMatchOptionBuffer::`RTTI Class Hierarchy Descriptor'
PUBLIC	??_R2CMatchOptionBuffer@@8			; CMatchOptionBuffer::`RTTI Base Class Array'
PUBLIC	??_R1A@?0A@EA@CMatchOptionBuffer@@8		; CMatchOptionBuffer::`RTTI Base Class Descriptor at (0,-1,0,64)'
PUBLIC	??_R4CServerInfoManager@@6B@			; CServerInfoManager::`RTTI Complete Object Locator'
PUBLIC	??_R0?AVCServerInfoManager@@@8			; CServerInfoManager `RTTI Type Descriptor'
PUBLIC	??_R3CServerInfoManager@@8			; CServerInfoManager::`RTTI Class Hierarchy Descriptor'
PUBLIC	??_R2CServerInfoManager@@8			; CServerInfoManager::`RTTI Base Class Array'
PUBLIC	??_R1A@?0A@EA@CServerInfoManager@@8		; CServerInfoManager::`RTTI Base Class Descriptor at (0,-1,0,64)'
EXTRN	??_M@YGXPAXIIP6EX0@Z@Z:PROC			; `eh vector destructor iterator'
EXTRN	??2@YAPAXI@Z:PROC				; operator new
EXTRN	??3@YAXPAXI@Z:PROC				; operator delete
EXTRN	?__global_delete@@YAXPAXI@Z:PROC		; __global_delete
EXTRN	??_U@YAPAXI@Z:PROC				; operator new[]
EXTRN	??_V@YAXPAX@Z:PROC				; operator delete[]
EXTRN	??_V@YAXPAXI@Z:PROC				; operator delete[]
EXTRN	_memcpy:PROC
EXTRN	_memmove:PROC
EXTRN	_memset:PROC
EXTRN	__imp__wcslen:PROC
EXTRN	_strlen:PROC
EXTRN	__imp__GetLastError@0:PROC
EXTRN	__imp__GetProcAddress@8:PROC
EXTRN	__imp__lstrcpynA@12:PROC
EXTRN	__imp__lstrlenA@4:PROC
EXTRN	__imp__WritePrivateProfileStringA@16:PROC
EXTRN	__imp__wsprintfA:PROC
EXTRN	__imp__PeekMessageA@20:PROC
EXTRN	__imp__PostQuitMessage@4:PROC
EXTRN	__imp____stdio_common_vsprintf:PROC
EXTRN	__imp____stdio_common_vsnprintf_s:PROC
EXTRN	__imp__ldiv:PROC
EXTRN	__imp___calloc_dbg:PROC
EXTRN	__imp___CrtDbgReport:PROC
EXTRN	?AfxAssertValidObject@@YGXPBVCObject@@PBDH@Z:PROC ; AfxAssertValidObject
EXTRN	?AfxThrowInvalidArgException@@YGXXZ:PROC	; AfxThrowInvalidArgException
EXTRN	?GetRuntimeClass@CObject@@UBEPAUCRuntimeClass@@XZ:PROC ; CObject::GetRuntimeClass
EXTRN	??1CObject@@UAE@XZ:PROC				; CObject::~CObject
EXTRN	??3CObject@@SGXPAX@Z:PROC			; CObject::operator delete
EXTRN	??0CObject@@IAE@XZ:PROC				; CObject::CObject
EXTRN	?Serialize@CObject@@UAEXAAVCArchive@@@Z:PROC	; CObject::Serialize
EXTRN	?AssertValid@CObject@@UBEXXZ:PROC		; CObject::AssertValid
EXTRN	?Dump@CObject@@UBEXAAVCDumpContext@@@Z:PROC	; CObject::Dump
EXTRN	?AfxIsValidAddress@@YGHPBXIH@Z:PROC		; AfxIsValidAddress
EXTRN	??_U@YAPAXIPBDH@Z:PROC				; operator new[]
EXTRN	?IsStoring@CArchive@@QBEHXZ:PROC		; CArchive::IsStoring
EXTRN	?EnsureRead@CArchive@@QAEXPAXI@Z:PROC		; CArchive::EnsureRead
EXTRN	?Write@CArchive@@QAEXPBXI@Z:PROC		; CArchive::Write
EXTRN	?ReadCount@CArchive@@QAEKXZ:PROC		; CArchive::ReadCount
EXTRN	?WriteCount@CArchive@@QAEXK@Z:PROC		; CArchive::WriteCount
EXTRN	?GetDepth@CDumpContext@@QBEHXZ:PROC		; CDumpContext::GetDepth
EXTRN	??6CDumpContext@@QAEAAV0@PBD@Z:PROC		; CDumpContext::operator<<
EXTRN	??6CDumpContext@@QAEAAV0@H@Z:PROC		; CDumpContext::operator<<
EXTRN	?Create@CPlex@@SGPAU1@AAPAU1@II@Z:PROC		; CPlex::Create
EXTRN	?FreeDataChain@CPlex@@QAEXXZ:PROC		; CPlex::FreeDataChain
EXTRN	?AfxMessageBox@@YGHPBDII@Z:PROC			; AfxMessageBox
EXTRN	?AfxLoadLibrary@@YGPAUHINSTANCE__@@PBD@Z:PROC	; AfxLoadLibrary
EXTRN	?AfxFreeLibrary@@YGHPAUHINSTANCE__@@@Z:PROC	; AfxFreeLibrary
EXTRN	?_Xbad_alloc@std@@YAXXZ:PROC			; std::_Xbad_alloc
EXTRN	__Mbrtowc:PROC
EXTRN	__imp_?_Getcvt@_Locinfo@std@@QBE?AU_Cvtvec@@XZ:PROC
EXTRN	__imp_?_Getdays@_Locinfo@std@@QBEPBDXZ:PROC
EXTRN	__imp_?_Getmonths@_Locinfo@std@@QBEPBDXZ:PROC
EXTRN	__imp_?_W_Getdays@_Locinfo@std@@QBEPBGXZ:PROC
EXTRN	__imp_?_W_Getmonths@_Locinfo@std@@QBEPBGXZ:PROC
EXTRN	__imp_?GetWorkDirectory@CWHService@@SA_NQADG@Z:PROC
EXTRN	__imp_?GetModuleVersion@CWHService@@SA_NPBDAAK@Z:PROC
EXTRN	??_E?$CTempldateHelper@UIDataBase@@@@UAEPAXI@Z:PROC ; CTempldateHelper<IDataBase>::`vector deleting destructor'
EXTRN	??_ECDataBaseHelper@@UAEPAXI@Z:PROC		; CDataBaseHelper::`vector deleting destructor'
EXTRN	__imp_??0CDataBaseAide@@QAE@PAUIUnknownEx@@@Z:PROC
EXTRN	__imp_??1CDataBaseAide@@UAE@XZ:PROC
EXTRN	__imp_?SetDataBase@CDataBaseAide@@QAE_NPAUIUnknownEx@@@Z:PROC
EXTRN	__imp_?GetValue_INT@CDataBaseAide@@QAEHPBD@Z:PROC
EXTRN	__imp_?GetValue_LONG@CDataBaseAide@@QAEJPBD@Z:PROC
EXTRN	__imp_?GetValue_BYTE@CDataBaseAide@@QAEEPBD@Z:PROC
EXTRN	__imp_?GetValue_WORD@CDataBaseAide@@QAEGPBD@Z:PROC
EXTRN	__imp_?GetValue_DWORD@CDataBaseAide@@QAEKPBD@Z:PROC
EXTRN	__imp_?GetValue_LONGLONG@CDataBaseAide@@QAE_JPBD@Z:PROC
EXTRN	__imp_?GetValue_String@CDataBaseAide@@QAEXPBDPADI@Z:PROC
EXTRN	__imp_?ResetParameter@CDataBaseAide@@QAEXXZ:PROC
EXTRN	__imp_?GetParameter@CDataBaseAide@@QAEXPBDPADI@Z:PROC
EXTRN	__imp_?AddParameter@CDataBaseAide@@QAEXPBDHW4ParameterDirectionEnum@ADOCG@@@Z:PROC
EXTRN	__imp_?AddParameter@CDataBaseAide@@QAEXPBDJW4ParameterDirectionEnum@ADOCG@@@Z:PROC
EXTRN	__imp_?AddParameter@CDataBaseAide@@QAEXPBD_JW4ParameterDirectionEnum@ADOCG@@@Z:PROC
EXTRN	__imp_?AddParameter@CDataBaseAide@@QAEXPBDEW4ParameterDirectionEnum@ADOCG@@@Z:PROC
EXTRN	__imp_?AddParameter@CDataBaseAide@@QAEXPBDGW4ParameterDirectionEnum@ADOCG@@@Z:PROC
EXTRN	__imp_?AddParameter@CDataBaseAide@@QAEXPBDKW4ParameterDirectionEnum@ADOCG@@@Z:PROC
EXTRN	__imp_?AddParameter@CDataBaseAide@@QAEXPBD0W4ParameterDirectionEnum@ADOCG@@@Z:PROC
EXTRN	__imp_?AddParameterOutput@CDataBaseAide@@QAEXPBDPADIW4ParameterDirectionEnum@ADOCG@@@Z:PROC
EXTRN	__imp_?ExecuteProcess@CDataBaseAide@@QAEJPBD_N@Z:PROC
EXTRN	__imp_??0CDataBaseAide@@QAE@ABV0@@Z:PROC
EXTRN	__imp_?TraceString@CTraceService@@SA_NPBDW4enTraceLevel@@@Z:PROC
EXTRN	??1CModuleDBParameter@@UAE@XZ:PROC		; CModuleDBParameter::~CModuleDBParameter
EXTRN	??_E?$CMap@GGPAUtagGameServerInfo@@PAU1@@@UAEPAXI@Z:PROC ; CMap<unsigned short,unsigned short,tagGameServerInfo *,tagGameServerInfo *>::`vector deleting destructor'
EXTRN	??_E?$CWHArray@PAUtagGameServerInfo@@ABQAU1@@@UAEPAXI@Z:PROC ; CWHArray<tagGameServerInfo *,tagGameServerInfo * const &>::`vector deleting destructor'
EXTRN	??_E?$CWHArray@PAUtagGameMatchOption@@ABQAU1@@@UAEPAXI@Z:PROC ; CWHArray<tagGameMatchOption *,tagGameMatchOption * const &>::`vector deleting destructor'
EXTRN	@__security_check_cookie@4:PROC
EXTRN	___CxxFrameHandler3:PROC
EXTRN	__chkstk:PROC
EXTRN	_memset:PROC
EXTRN	??_7type_info@@6B@:QWORD			; type_info::`vftable'
EXTRN	?m_pModuleDBParameter@CModuleDBParameter@@1PAV1@A:DWORD ; CModuleDBParameter::m_pModuleDBParameter
EXTRN	___security_cookie:DWORD
;	COMDAT ?_OptionsStorage@?1??__local_stdio_printf_options@@9@4_KA
_BSS	SEGMENT
?_OptionsStorage@?1??__local_stdio_printf_options@@9@4_KA DQ 01H DUP (?) ; `__local_stdio_printf_options'::`2'::_OptionsStorage
_BSS	ENDS
;	COMDAT ??_R1A@?0A@EA@CServerInfoManager@@8
rdata$r	SEGMENT
??_R1A@?0A@EA@CServerInfoManager@@8 DD FLAT:??_R0?AVCServerInfoManager@@@8 ; CServerInfoManager::`RTTI Base Class Descriptor at (0,-1,0,64)'
	DD	00H
	DD	00H
	DD	0ffffffffH
	DD	00H
	DD	040H
	DD	FLAT:??_R3CServerInfoManager@@8
rdata$r	ENDS
;	COMDAT ??_R2CServerInfoManager@@8
rdata$r	SEGMENT
??_R2CServerInfoManager@@8 DD FLAT:??_R1A@?0A@EA@CServerInfoManager@@8 ; CServerInfoManager::`RTTI Base Class Array'
rdata$r	ENDS
;	COMDAT ??_R3CServerInfoManager@@8
rdata$r	SEGMENT
??_R3CServerInfoManager@@8 DD 00H			; CServerInfoManager::`RTTI Class Hierarchy Descriptor'
	DD	00H
	DD	01H
	DD	FLAT:??_R2CServerInfoManager@@8
rdata$r	ENDS
;	COMDAT ??_R0?AVCServerInfoManager@@@8
data$r	SEGMENT
??_R0?AVCServerInfoManager@@@8 DD FLAT:??_7type_info@@6B@ ; CServerInfoManager `RTTI Type Descriptor'
	DD	00H
	DB	'.?AVCServerInfoManager@@', 00H
data$r	ENDS
;	COMDAT ??_R4CServerInfoManager@@6B@
rdata$r	SEGMENT
??_R4CServerInfoManager@@6B@ DD 00H			; CServerInfoManager::`RTTI Complete Object Locator'
	DD	00H
	DD	00H
	DD	FLAT:??_R0?AVCServerInfoManager@@@8
	DD	FLAT:??_R3CServerInfoManager@@8
rdata$r	ENDS
;	COMDAT ??_R1A@?0A@EA@CMatchOptionBuffer@@8
rdata$r	SEGMENT
??_R1A@?0A@EA@CMatchOptionBuffer@@8 DD FLAT:??_R0?AVCMatchOptionBuffer@@@8 ; CMatchOptionBuffer::`RTTI Base Class Descriptor at (0,-1,0,64)'
	DD	00H
	DD	00H
	DD	0ffffffffH
	DD	00H
	DD	040H
	DD	FLAT:??_R3CMatchOptionBuffer@@8
rdata$r	ENDS
;	COMDAT ??_R2CMatchOptionBuffer@@8
rdata$r	SEGMENT
??_R2CMatchOptionBuffer@@8 DD FLAT:??_R1A@?0A@EA@CMatchOptionBuffer@@8 ; CMatchOptionBuffer::`RTTI Base Class Array'
rdata$r	ENDS
;	COMDAT ??_R3CMatchOptionBuffer@@8
rdata$r	SEGMENT
??_R3CMatchOptionBuffer@@8 DD 00H			; CMatchOptionBuffer::`RTTI Class Hierarchy Descriptor'
	DD	00H
	DD	01H
	DD	FLAT:??_R2CMatchOptionBuffer@@8
rdata$r	ENDS
;	COMDAT ??_R0?AVCMatchOptionBuffer@@@8
data$r	SEGMENT
??_R0?AVCMatchOptionBuffer@@@8 DD FLAT:??_7type_info@@6B@ ; CMatchOptionBuffer `RTTI Type Descriptor'
	DD	00H
	DB	'.?AVCMatchOptionBuffer@@', 00H
data$r	ENDS
;	COMDAT ??_R4CMatchOptionBuffer@@6B@
rdata$r	SEGMENT
??_R4CMatchOptionBuffer@@6B@ DD 00H			; CMatchOptionBuffer::`RTTI Complete Object Locator'
	DD	00H
	DD	00H
	DD	FLAT:??_R0?AVCMatchOptionBuffer@@@8
	DD	FLAT:??_R3CMatchOptionBuffer@@8
rdata$r	ENDS
;	COMDAT ??_R1A@?0A@EA@CServerInfoBuffer@@8
rdata$r	SEGMENT
??_R1A@?0A@EA@CServerInfoBuffer@@8 DD FLAT:??_R0?AVCServerInfoBuffer@@@8 ; CServerInfoBuffer::`RTTI Base Class Descriptor at (0,-1,0,64)'
	DD	00H
	DD	00H
	DD	0ffffffffH
	DD	00H
	DD	040H
	DD	FLAT:??_R3CServerInfoBuffer@@8
rdata$r	ENDS
;	COMDAT ??_R2CServerInfoBuffer@@8
rdata$r	SEGMENT
??_R2CServerInfoBuffer@@8 DD FLAT:??_R1A@?0A@EA@CServerInfoBuffer@@8 ; CServerInfoBuffer::`RTTI Base Class Array'
rdata$r	ENDS
;	COMDAT ??_R3CServerInfoBuffer@@8
rdata$r	SEGMENT
??_R3CServerInfoBuffer@@8 DD 00H			; CServerInfoBuffer::`RTTI Class Hierarchy Descriptor'
	DD	00H
	DD	01H
	DD	FLAT:??_R2CServerInfoBuffer@@8
rdata$r	ENDS
;	COMDAT ??_R0?AVCServerInfoBuffer@@@8
data$r	SEGMENT
??_R0?AVCServerInfoBuffer@@@8 DD FLAT:??_7type_info@@6B@ ; CServerInfoBuffer `RTTI Type Descriptor'
	DD	00H
	DB	'.?AVCServerInfoBuffer@@', 00H
data$r	ENDS
;	COMDAT ??_R4CServerInfoBuffer@@6B@
rdata$r	SEGMENT
??_R4CServerInfoBuffer@@6B@ DD 00H			; CServerInfoBuffer::`RTTI Complete Object Locator'
	DD	00H
	DD	00H
	DD	FLAT:??_R0?AVCServerInfoBuffer@@@8
	DD	FLAT:??_R3CServerInfoBuffer@@8
rdata$r	ENDS
;	COMDAT ??_R1A@?0A@EA@?$CMap@GGPAUtagGameServerInfo@@PAU1@@@8
rdata$r	SEGMENT
??_R1A@?0A@EA@?$CMap@GGPAUtagGameServerInfo@@PAU1@@@8 DD FLAT:??_R0?AV?$CMap@GGPAUtagGameServerInfo@@PAU1@@@@8 ; CMap<unsigned short,unsigned short,tagGameServerInfo *,tagGameServerInfo *>::`RTTI Base Class Descriptor at (0,-1,0,64)'
	DD	01H
	DD	00H
	DD	0ffffffffH
	DD	00H
	DD	040H
	DD	FLAT:??_R3?$CMap@GGPAUtagGameServerInfo@@PAU1@@@8
rdata$r	ENDS
;	COMDAT ??_R2?$CMap@GGPAUtagGameServerInfo@@PAU1@@@8
rdata$r	SEGMENT
??_R2?$CMap@GGPAUtagGameServerInfo@@PAU1@@@8 DD FLAT:??_R1A@?0A@EA@?$CMap@GGPAUtagGameServerInfo@@PAU1@@@8 ; CMap<unsigned short,unsigned short,tagGameServerInfo *,tagGameServerInfo *>::`RTTI Base Class Array'
	DD	FLAT:??_R1A@?0A@EA@CObject@@8
rdata$r	ENDS
;	COMDAT ??_R3?$CMap@GGPAUtagGameServerInfo@@PAU1@@@8
rdata$r	SEGMENT
??_R3?$CMap@GGPAUtagGameServerInfo@@PAU1@@@8 DD 00H	; CMap<unsigned short,unsigned short,tagGameServerInfo *,tagGameServerInfo *>::`RTTI Class Hierarchy Descriptor'
	DD	00H
	DD	02H
	DD	FLAT:??_R2?$CMap@GGPAUtagGameServerInfo@@PAU1@@@8
rdata$r	ENDS
;	COMDAT ??_R0?AV?$CMap@GGPAUtagGameServerInfo@@PAU1@@@@8
data$r	SEGMENT
??_R0?AV?$CMap@GGPAUtagGameServerInfo@@PAU1@@@@8 DD FLAT:??_7type_info@@6B@ ; CMap<unsigned short,unsigned short,tagGameServerInfo *,tagGameServerInfo *> `RTTI Type Descriptor'
	DD	00H
	DB	'.?AV?$CMap@GGPAUtagGameServerInfo@@PAU1@@@', 00H
data$r	ENDS
;	COMDAT ??_R4?$CMap@GGPAUtagGameServerInfo@@PAU1@@@6B@
rdata$r	SEGMENT
??_R4?$CMap@GGPAUtagGameServerInfo@@PAU1@@@6B@ DD 00H	; CMap<unsigned short,unsigned short,tagGameServerInfo *,tagGameServerInfo *>::`RTTI Complete Object Locator'
	DD	00H
	DD	00H
	DD	FLAT:??_R0?AV?$CMap@GGPAUtagGameServerInfo@@PAU1@@@@8
	DD	FLAT:??_R3?$CMap@GGPAUtagGameServerInfo@@PAU1@@@8
rdata$r	ENDS
;	COMDAT ??_R1A@?0A@EA@?$CWHArray@PAUtagGameMatchOption@@ABQAU1@@@8
rdata$r	SEGMENT
??_R1A@?0A@EA@?$CWHArray@PAUtagGameMatchOption@@ABQAU1@@@8 DD FLAT:??_R0?AV?$CWHArray@PAUtagGameMatchOption@@ABQAU1@@@@8 ; CWHArray<tagGameMatchOption *,tagGameMatchOption * const &>::`RTTI Base Class Descriptor at (0,-1,0,64)'
	DD	00H
	DD	00H
	DD	0ffffffffH
	DD	00H
	DD	040H
	DD	FLAT:??_R3?$CWHArray@PAUtagGameMatchOption@@ABQAU1@@@8
rdata$r	ENDS
;	COMDAT ??_R2?$CWHArray@PAUtagGameMatchOption@@ABQAU1@@@8
rdata$r	SEGMENT
??_R2?$CWHArray@PAUtagGameMatchOption@@ABQAU1@@@8 DD FLAT:??_R1A@?0A@EA@?$CWHArray@PAUtagGameMatchOption@@ABQAU1@@@8 ; CWHArray<tagGameMatchOption *,tagGameMatchOption * const &>::`RTTI Base Class Array'
rdata$r	ENDS
;	COMDAT ??_R3?$CWHArray@PAUtagGameMatchOption@@ABQAU1@@@8
rdata$r	SEGMENT
??_R3?$CWHArray@PAUtagGameMatchOption@@ABQAU1@@@8 DD 00H ; CWHArray<tagGameMatchOption *,tagGameMatchOption * const &>::`RTTI Class Hierarchy Descriptor'
	DD	00H
	DD	01H
	DD	FLAT:??_R2?$CWHArray@PAUtagGameMatchOption@@ABQAU1@@@8
rdata$r	ENDS
;	COMDAT ??_R0?AV?$CWHArray@PAUtagGameMatchOption@@ABQAU1@@@@8
data$r	SEGMENT
??_R0?AV?$CWHArray@PAUtagGameMatchOption@@ABQAU1@@@@8 DD FLAT:??_7type_info@@6B@ ; CWHArray<tagGameMatchOption *,tagGameMatchOption * const &> `RTTI Type Descriptor'
	DD	00H
	DB	'.?AV?$CWHArray@PAUtagGameMatchOption@@ABQAU1@@@', 00H
data$r	ENDS
;	COMDAT ??_R4?$CWHArray@PAUtagGameMatchOption@@ABQAU1@@@6B@
rdata$r	SEGMENT
??_R4?$CWHArray@PAUtagGameMatchOption@@ABQAU1@@@6B@ DD 00H ; CWHArray<tagGameMatchOption *,tagGameMatchOption * const &>::`RTTI Complete Object Locator'
	DD	00H
	DD	00H
	DD	FLAT:??_R0?AV?$CWHArray@PAUtagGameMatchOption@@ABQAU1@@@@8
	DD	FLAT:??_R3?$CWHArray@PAUtagGameMatchOption@@ABQAU1@@@8
rdata$r	ENDS
;	COMDAT ??_R1A@?0A@EA@?$CWHArray@PAUtagGameServerInfo@@ABQAU1@@@8
rdata$r	SEGMENT
??_R1A@?0A@EA@?$CWHArray@PAUtagGameServerInfo@@ABQAU1@@@8 DD FLAT:??_R0?AV?$CWHArray@PAUtagGameServerInfo@@ABQAU1@@@@8 ; CWHArray<tagGameServerInfo *,tagGameServerInfo * const &>::`RTTI Base Class Descriptor at (0,-1,0,64)'
	DD	00H
	DD	00H
	DD	0ffffffffH
	DD	00H
	DD	040H
	DD	FLAT:??_R3?$CWHArray@PAUtagGameServerInfo@@ABQAU1@@@8
rdata$r	ENDS
;	COMDAT ??_R2?$CWHArray@PAUtagGameServerInfo@@ABQAU1@@@8
rdata$r	SEGMENT
??_R2?$CWHArray@PAUtagGameServerInfo@@ABQAU1@@@8 DD FLAT:??_R1A@?0A@EA@?$CWHArray@PAUtagGameServerInfo@@ABQAU1@@@8 ; CWHArray<tagGameServerInfo *,tagGameServerInfo * const &>::`RTTI Base Class Array'
rdata$r	ENDS
;	COMDAT ??_R3?$CWHArray@PAUtagGameServerInfo@@ABQAU1@@@8
rdata$r	SEGMENT
??_R3?$CWHArray@PAUtagGameServerInfo@@ABQAU1@@@8 DD 00H	; CWHArray<tagGameServerInfo *,tagGameServerInfo * const &>::`RTTI Class Hierarchy Descriptor'
	DD	00H
	DD	01H
	DD	FLAT:??_R2?$CWHArray@PAUtagGameServerInfo@@ABQAU1@@@8
rdata$r	ENDS
;	COMDAT ??_R0?AV?$CWHArray@PAUtagGameServerInfo@@ABQAU1@@@@8
data$r	SEGMENT
??_R0?AV?$CWHArray@PAUtagGameServerInfo@@ABQAU1@@@@8 DD FLAT:??_7type_info@@6B@ ; CWHArray<tagGameServerInfo *,tagGameServerInfo * const &> `RTTI Type Descriptor'
	DD	00H
	DB	'.?AV?$CWHArray@PAUtagGameServerInfo@@ABQAU1@@@', 00H
data$r	ENDS
;	COMDAT ??_R4?$CWHArray@PAUtagGameServerInfo@@ABQAU1@@@6B@
rdata$r	SEGMENT
??_R4?$CWHArray@PAUtagGameServerInfo@@ABQAU1@@@6B@ DD 00H ; CWHArray<tagGameServerInfo *,tagGameServerInfo * const &>::`RTTI Complete Object Locator'
	DD	00H
	DD	00H
	DD	FLAT:??_R0?AV?$CWHArray@PAUtagGameServerInfo@@ABQAU1@@@@8
	DD	FLAT:??_R3?$CWHArray@PAUtagGameServerInfo@@ABQAU1@@@8
rdata$r	ENDS
;	COMDAT ??_R1A@?0A@EA@CModuleDBParameter@@8
rdata$r	SEGMENT
??_R1A@?0A@EA@CModuleDBParameter@@8 DD FLAT:??_R0?AVCModuleDBParameter@@@8 ; CModuleDBParameter::`RTTI Base Class Descriptor at (0,-1,0,64)'
	DD	00H
	DD	00H
	DD	0ffffffffH
	DD	00H
	DD	040H
	DD	FLAT:??_R3CModuleDBParameter@@8
rdata$r	ENDS
;	COMDAT ??_R2CModuleDBParameter@@8
rdata$r	SEGMENT
??_R2CModuleDBParameter@@8 DD FLAT:??_R1A@?0A@EA@CModuleDBParameter@@8 ; CModuleDBParameter::`RTTI Base Class Array'
rdata$r	ENDS
;	COMDAT ??_R3CModuleDBParameter@@8
rdata$r	SEGMENT
??_R3CModuleDBParameter@@8 DD 00H			; CModuleDBParameter::`RTTI Class Hierarchy Descriptor'
	DD	00H
	DD	01H
	DD	FLAT:??_R2CModuleDBParameter@@8
rdata$r	ENDS
;	COMDAT ??_R0?AVCModuleDBParameter@@@8
data$r	SEGMENT
??_R0?AVCModuleDBParameter@@@8 DD FLAT:??_7type_info@@6B@ ; CModuleDBParameter `RTTI Type Descriptor'
	DD	00H
	DB	'.?AVCModuleDBParameter@@', 00H
data$r	ENDS
;	COMDAT ??_R4CModuleDBParameter@@6B@
rdata$r	SEGMENT
??_R4CModuleDBParameter@@6B@ DD 00H			; CModuleDBParameter::`RTTI Complete Object Locator'
	DD	00H
	DD	00H
	DD	FLAT:??_R0?AVCModuleDBParameter@@@8
	DD	FLAT:??_R3CModuleDBParameter@@8
rdata$r	ENDS
;	COMDAT ??_R4?$CTempldateHelper@UIDataBase@@@@6B@
rdata$r	SEGMENT
??_R4?$CTempldateHelper@UIDataBase@@@@6B@ DD 00H	; CTempldateHelper<IDataBase>::`RTTI Complete Object Locator'
	DD	00H
	DD	00H
	DD	FLAT:??_R0?AV?$CTempldateHelper@UIDataBase@@@@@8
	DD	FLAT:??_R3?$CTempldateHelper@UIDataBase@@@@8
rdata$r	ENDS
;	COMDAT ??_R2?$CTempldateHelper@UIDataBase@@@@8
rdata$r	SEGMENT
??_R2?$CTempldateHelper@UIDataBase@@@@8 DD FLAT:??_R1A@?0A@EA@?$CTempldateHelper@UIDataBase@@@@8 ; CTempldateHelper<IDataBase>::`RTTI Base Class Array'
rdata$r	ENDS
;	COMDAT ??_R3?$CTempldateHelper@UIDataBase@@@@8
rdata$r	SEGMENT
??_R3?$CTempldateHelper@UIDataBase@@@@8 DD 00H		; CTempldateHelper<IDataBase>::`RTTI Class Hierarchy Descriptor'
	DD	00H
	DD	01H
	DD	FLAT:??_R2?$CTempldateHelper@UIDataBase@@@@8
rdata$r	ENDS
;	COMDAT ??_R0?AV?$CTempldateHelper@UIDataBase@@@@@8
data$r	SEGMENT
??_R0?AV?$CTempldateHelper@UIDataBase@@@@@8 DD FLAT:??_7type_info@@6B@ ; CTempldateHelper<IDataBase> `RTTI Type Descriptor'
	DD	00H
	DB	'.?AV?$CTempldateHelper@UIDataBase@@@@', 00H
data$r	ENDS
;	COMDAT ??_R1A@?0A@EA@?$CTempldateHelper@UIDataBase@@@@8
rdata$r	SEGMENT
??_R1A@?0A@EA@?$CTempldateHelper@UIDataBase@@@@8 DD FLAT:??_R0?AV?$CTempldateHelper@UIDataBase@@@@@8 ; CTempldateHelper<IDataBase>::`RTTI Base Class Descriptor at (0,-1,0,64)'
	DD	00H
	DD	00H
	DD	0ffffffffH
	DD	00H
	DD	040H
	DD	FLAT:??_R3?$CTempldateHelper@UIDataBase@@@@8
rdata$r	ENDS
;	COMDAT ??_R1A@?0A@EA@CDataBaseHelper@@8
rdata$r	SEGMENT
??_R1A@?0A@EA@CDataBaseHelper@@8 DD FLAT:??_R0?AVCDataBaseHelper@@@8 ; CDataBaseHelper::`RTTI Base Class Descriptor at (0,-1,0,64)'
	DD	01H
	DD	00H
	DD	0ffffffffH
	DD	00H
	DD	040H
	DD	FLAT:??_R3CDataBaseHelper@@8
rdata$r	ENDS
;	COMDAT ??_R2CDataBaseHelper@@8
rdata$r	SEGMENT
??_R2CDataBaseHelper@@8 DD FLAT:??_R1A@?0A@EA@CDataBaseHelper@@8 ; CDataBaseHelper::`RTTI Base Class Array'
	DD	FLAT:??_R1A@?0A@EA@?$CTempldateHelper@UIDataBase@@@@8
rdata$r	ENDS
;	COMDAT ??_R3CDataBaseHelper@@8
rdata$r	SEGMENT
??_R3CDataBaseHelper@@8 DD 00H				; CDataBaseHelper::`RTTI Class Hierarchy Descriptor'
	DD	00H
	DD	02H
	DD	FLAT:??_R2CDataBaseHelper@@8
rdata$r	ENDS
;	COMDAT ??_R0?AVCDataBaseHelper@@@8
data$r	SEGMENT
??_R0?AVCDataBaseHelper@@@8 DD FLAT:??_7type_info@@6B@	; CDataBaseHelper `RTTI Type Descriptor'
	DD	00H
	DB	'.?AVCDataBaseHelper@@', 00H
data$r	ENDS
;	COMDAT ??_R4CDataBaseHelper@@6B@
rdata$r	SEGMENT
??_R4CDataBaseHelper@@6B@ DD 00H			; CDataBaseHelper::`RTTI Complete Object Locator'
	DD	00H
	DD	00H
	DD	FLAT:??_R0?AVCDataBaseHelper@@@8
	DD	FLAT:??_R3CDataBaseHelper@@8
rdata$r	ENDS
;	COMDAT ??_C@_0DF@LDFGAABH@g?3?2?M?x?$LK?$PM?2happygamewh?2?$LH?$PO?N?q?$LG?K?2?O?$LF?M?$LD@
CONST	SEGMENT
??_C@_0DF@LDFGAABH@g?3?2?M?x?$LK?$PM?2happygamewh?2?$LH?$PO?N?q?$LG?K?2?O?$LF?M?$LD@ DB 'g'
	DB	':\', 0cdH, 0f8H, 0baH, 0fcH, '\happygamewh\', 0b7H, 0feH, 0ceH
	DB	0f1H, 0b6H, 0cbH, '\', 0cfH, 0b5H, 0cdH, 0b3H, 0c4H, 0a3H, 0bfH
	DB	0e9H, '\', 0c8H, 0abH, 0beH, 0d6H, 0b6H, 0a8H, 0d2H, 0e5H, '\a'
	DB	'rray.h', 00H				; `string'
CONST	ENDS
;	COMDAT ??_C@_04OAFLPOMH@?$FN?5?$DN?5@
CONST	SEGMENT
??_C@_04OAFLPOMH@?$FN?5?$DN?5@ DB '] = ', 00H		; `string'
CONST	ENDS
;	COMDAT ??_C@_03OHJIHPJH@?6?7?$FL@
CONST	SEGMENT
??_C@_03OHJIHPJH@?6?7?$FL@ DB 0aH, 09H, '[', 00H	; `string'
CONST	ENDS
;	COMDAT ??_C@_0DB@JBNKENAJ@?W?i?$LM?$PO?$LE?$LE?$LN?$KI?$LK?$KP?J?$PN?$KB?$LA?$CFs?$KB?$LB?$LC?z?I?z?N?$LE?V?$KK?R?l?$LD?$KD?$LE@
CONST	SEGMENT
??_C@_0DB@JBNKENAJ@?W?i?$LM?$PO?$LE?$LE?$LN?$KI?$LK?$KP?J?$PN?$KB?$LA?$CFs?$KB?$LB?$LC?z?I?z?N?$LE?V?$KK?R?l?$LD?$KD?$LE@ DB 0d7H
	DB	0e9H, 0bcH, 0feH, 0b4H, 0b4H, 0bdH, 0a8H, 0baH, 0afH, 0caH, 0fdH
	DB	0a1H, 0b0H, '%s', 0a1H, 0b1H, 0b2H, 0faH, 0c9H, 0faH, 0ceH, 0b4H
	DB	0d6H, 0aaH, 0d2H, 0ecH, 0b3H, 0a3H, 0b4H, 0edH, 0ceH, 0f3H, 0a3H
	DB	0acH, 0d7H, 0e9H, 0bcH, 0feH, 0b4H, 0b4H, 0bdH, 0a8H, 0caH, 0a7H
	DB	0b0H, 0dcH, 00H				; `string'
CONST	ENDS
;	COMDAT ??_C@_0BJ@JGPFHIJF@?S?I?S?Z?$KB?$LA?$CFs?$KB?$LB?$KD?$KM?W?i?$LM?$PO?$LE?$LE?$LN?$KI?J?$KH?$LA?$NM@
CONST	SEGMENT
??_C@_0BJ@JGPFHIJF@?S?I?S?Z?$KB?$LA?$CFs?$KB?$LB?$KD?$KM?W?i?$LM?$PO?$LE?$LE?$LN?$KI?J?$KH?$LA?$NM@ DB 0d3H
	DB	0c9H, 0d3H, 0daH, 0a1H, 0b0H, '%s', 0a1H, 0b1H, 0a3H, 0acH, 0d7H
	DB	0e9H, 0bcH, 0feH, 0b4H, 0b4H, 0bdH, 0a8H, 0caH, 0a7H, 0b0H, 0dcH
	DB	00H						; `string'
CONST	ENDS
;	COMDAT ??_R0PAD@8
data$r	SEGMENT
??_R0PAD@8 DD	FLAT:??_7type_info@@6B@			; char * `RTTI Type Descriptor'
	DD	00H
	DB	'.PAD', 00H
data$r	ENDS
;	COMDAT ??_C@_0BL@PDAODLKM@?$LF?w?S?C?$LK?$KP?J?$PN?$KB?$LA?$CFs?$KB?$LB?I?z?$LD?I?$LG?T?O?s?J?$KH?$LA?$NM@
CONST	SEGMENT
??_C@_0BL@PDAODLKM@?$LF?w?S?C?$LK?$KP?J?$PN?$KB?$LA?$CFs?$KB?$LB?I?z?$LD?I?$LG?T?O?s?J?$KH?$LA?$NM@ DB 0b5H
	DB	0f7H, 0d3H, 0c3H, 0baH, 0afH, 0caH, 0fdH, 0a1H, 0b0H, '%s', 0a1H
	DB	0b1H, 0c9H, 0faH, 0b3H, 0c9H, 0b6H, 0d4H, 0cfH, 0f3H, 0caH, 0a7H
	DB	0b0H, 0dcH, 00H				; `string'
CONST	ENDS
;	COMDAT ??_C@_0BM@PEGNCJOH@?U?R?$LC?$LL?$LF?$LN?W?i?$LM?$PO?$LE?$LE?$LN?$KI?$LK?$KP?J?$PN?$KB?$LA?$CFs?$KB?$LB?3?$CFd@
CONST	SEGMENT
??_C@_0BM@PEGNCJOH@?U?R?$LC?$LL?$LF?$LN?W?i?$LM?$PO?$LE?$LE?$LN?$KI?$LK?$KP?J?$PN?$KB?$LA?$CFs?$KB?$LB?3?$CFd@ DB 0d5H
	DB	0d2H, 0b2H, 0bbH, 0b5H, 0bdH, 0d7H, 0e9H, 0bcH, 0feH, 0b4H, 0b4H
	DB	0bdH, 0a8H, 0baH, 0afH, 0caH, 0fdH, 0a1H, 0b0H, '%s', 0a1H, 0b1H
	DB	':%d', 00H					; `string'
CONST	ENDS
;	COMDAT ??_C@_0BD@LMOFNGMO@?$KB?$LA?$CFs?$KB?$LB?D?$KD?$LP?i?$LM?S?T?X?J?$KH?$LA?$NM@
CONST	SEGMENT
??_C@_0BD@LMOFNGMO@?$KB?$LA?$CFs?$KB?$LB?D?$KD?$LP?i?$LM?S?T?X?J?$KH?$LA?$NM@ DB 0a1H
	DB	0b0H, '%s', 0a1H, 0b1H, 0c4H, 0a3H, 0bfH, 0e9H, 0bcH, 0d3H, 0d4H
	DB	0d8H, 0caH, 0a7H, 0b0H, 0dcH, 00H		; `string'
CONST	ENDS
;	COMDAT ??_C@_0DG@CDIFDKED@g?3?2?M?x?$LK?$PM?2happygamewh?2?$LH?$PO?N?q?$LG?K?2?O?$LF?M?$LD@
CONST	SEGMENT
??_C@_0DG@CDIFDKED@g?3?2?M?x?$LK?$PM?2happygamewh?2?$LH?$PO?N?q?$LG?K?2?O?$LF?M?$LD@ DB 'g'
	DB	':\', 0cdH, 0f8H, 0baH, 0fcH, '\happygamewh\', 0b7H, 0feH, 0ceH
	DB	0f1H, 0b6H, 0cbH, '\', 0cfH, 0b5H, 0cdH, 0b3H, 0c4H, 0a3H, 0bfH
	DB	0e9H, '\', 0c8H, 0abH, 0beH, 0d6H, 0b6H, 0a8H, 0d2H, 0e5H, '\m'
	DB	'odule.h', 00H				; `string'
CONST	ENDS
;	COMDAT ??_C@_1BK@MHIKGOKE@?$AA?3?$AAA?$AAM?$AA?3?$AAa?$AAm?$AA?3?$AAP?$AAM?$AA?3?$AAp?$AAm@
CONST	SEGMENT
??_C@_1BK@MHIKGOKE@?$AA?3?$AAA?$AAM?$AA?3?$AAa?$AAm?$AA?3?$AAP?$AAM?$AA?3?$AAp?$AAm@ DB ':'
	DB	00H, 'A', 00H, 'M', 00H, ':', 00H, 'a', 00H, 'm', 00H, ':', 00H
	DB	'P', 00H, 'M', 00H, ':', 00H, 'p', 00H, 'm', 00H, 00H, 00H ; `string'
CONST	ENDS
;	COMDAT ??_C@_0N@LPFKKEBD@?3AM?3am?3PM?3pm@
CONST	SEGMENT
??_C@_0N@LPFKKEBD@?3AM?3am?3PM?3pm@ DB ':AM:am:PM:pm', 00H ; `string'
CONST	ENDS
;	COMDAT ??_C@_0M@MCMOAOCB@GameMode_?$CFd@
CONST	SEGMENT
??_C@_0M@MCMOAOCB@GameMode_?$CFd@ DB 'GameMode_%d', 00H	; `string'
CONST	ENDS
;	COMDAT ??_C@_0M@NFLEKBDJ@IniScore_?$CFd@
CONST	SEGMENT
??_C@_0M@NFLEKBDJ@IniScore_?$CFd@ DB 'IniScore_%d', 00H	; `string'
CONST	ENDS
;	COMDAT ??_C@_0M@PLHAIOPP@AAPayFee_?$CFd@
CONST	SEGMENT
??_C@_0M@PLHAIOPP@AAPayFee_?$CFd@ DB 'AAPayFee_%d', 00H	; `string'
CONST	ENDS
;	COMDAT ??_C@_09NPCPBNFG@PayFee_?$CFd@
CONST	SEGMENT
??_C@_09NPCPBNFG@PayFee_?$CFd@ DB 'PayFee_%d', 00H	; `string'
CONST	ENDS
;	COMDAT ??_C@_0N@BPNJNFLH@FeeParameter@
CONST	SEGMENT
??_C@_0N@BPNJNFLH@FeeParameter@ DB 'FeeParameter', 00H	; `string'
CONST	ENDS
;	COMDAT ??_C@_0BB@NDJBEBBP@PlayTurnLimit_?$CFd@
CONST	SEGMENT
??_C@_0BB@NDJBEBBP@PlayTurnLimit_?$CFd@ DB 'PlayTurnLimit_%d', 00H ; `string'
CONST	ENDS
;	COMDAT ??_C@_0BA@MEGPCNND@CreateRoomRight@
CONST	SEGMENT
??_C@_0BA@MEGPCNND@CreateRoomRight@ DB 'CreateRoomRight', 00H ; `string'
CONST	ENDS
;	COMDAT ??_C@_0BE@MAFCEFJP@TimeAfterCreateRoom@
CONST	SEGMENT
??_C@_0BE@MAFCEFJP@TimeAfterCreateRoom@ DB 'TimeAfterCreateRoom', 00H ; `string'
CONST	ENDS
;	COMDAT ??_C@_06CJHLBMGC@Option@
CONST	SEGMENT
??_C@_06CJHLBMGC@Option@ DB 'Option', 00H		; `string'
CONST	ENDS
;	COMDAT ??_C@_06CKGENIKG@Enable@
CONST	SEGMENT
??_C@_06CKGENIKG@Enable@ DB 'Enable', 00H		; `string'
CONST	ENDS
;	COMDAT ??_C@_07DOAOMMKG@Enabled@
CONST	SEGMENT
??_C@_07DOAOMMKG@Enabled@ DB 'Enabled', 00H		; `string'
CONST	ENDS
;	COMDAT ??_C@_09LOOPACNL@?$CFs?2?$CFd?4ini@
CONST	SEGMENT
??_C@_09LOOPACNL@?$CFs?2?$CFd?4ini@ DB '%s\%d.ini', 00H	; `string'
CONST	ENDS
;	COMDAT ??_C@_0CD@IBOJDKIM@GSP_GS_ModifyPersonalRoomParame@
CONST	SEGMENT
??_C@_0CD@IBOJDKIM@GSP_GS_ModifyPersonalRoomParame@ DB 'GSP_GS_ModifyPers'
	DB	'onalRoomParameter', 00H			; `string'
CONST	ENDS
;	COMDAT ??_C@_0M@EODDKFON@?$EAdwServerID@
CONST	SEGMENT
??_C@_0M@EODDKFON@?$EAdwServerID@ DB '@dwServerID', 00H	; `string'
CONST	ENDS
;	COMDAT ??_C@_0BB@HEGDPGKB@?$LC?e?H?k?S?N?O?$LH?$LF?W?$LH?V?$LD?v?$LE?m@
CONST	SEGMENT
??_C@_0BB@HEGDPGKB@?$LC?e?H?k?S?N?O?$LH?$LF?W?$LH?V?$LD?v?$LE?m@ DB 0b2H, 0e5H
	DB	0c8H, 0ebH, 0d3H, 0ceH, 0cfH, 0b7H, 0b5H, 0d7H, 0b7H, 0d6H, 0b3H
	DB	0f6H, 0b4H, 0edH, 00H			; `string'
CONST	ENDS
;	COMDAT ??_C@_0BP@GEFHPGBC@GSP_GR_InsertPersonalCellScore@
CONST	SEGMENT
??_C@_0BP@GEFHPGBC@GSP_GR_InsertPersonalCellScore@ DB 'GSP_GR_InsertPerso'
	DB	'nalCellScore', 00H				; `string'
CONST	ENDS
;	COMDAT ??_C@_0BP@BNMLDPEJ@GSP_GR_DeletePersonalCellScore@
CONST	SEGMENT
??_C@_0BP@BNMLDPEJ@GSP_GR_DeletePersonalCellScore@ DB 'GSP_GR_DeletePerso'
	DB	'nalCellScore', 00H				; `string'
CONST	ENDS
;	COMDAT ??_C@_0BB@LABICMHO@?$LC?e?H?k?S?N?O?$LH?$LH?Q?S?C?$LD?v?$LE?m@
CONST	SEGMENT
??_C@_0BB@LABICMHO@?$LC?e?H?k?S?N?O?$LH?$LH?Q?S?C?$LD?v?$LE?m@ DB 0b2H, 0e5H
	DB	0c8H, 0ebH, 0d3H, 0ceH, 0cfH, 0b7H, 0b7H, 0d1H, 0d3H, 0c3H, 0b3H
	DB	0f6H, 0b4H, 0edH, 00H			; `string'
CONST	ENDS
;	COMDAT ??_C@_0CB@BGEDMOGM@GSP_GS_WritePersonalFeeParamete@
CONST	SEGMENT
??_C@_0CB@BGEDMOGM@GSP_GS_WritePersonalFeeParamete@ DB 'GSP_GS_WritePerso'
	DB	'nalFeeParameter', 00H			; `string'
CONST	ENDS
;	COMDAT ??_C@_0M@CIPFFAIA@?$EAcbGameMode@
CONST	SEGMENT
??_C@_0M@CIPFFAIA@?$EAcbGameMode@ DB '@cbGameMode', 00H	; `string'
CONST	ENDS
;	COMDAT ??_C@_09FDIDCNIH@?$EAIniScore@
CONST	SEGMENT
??_C@_09FDIDCNIH@?$EAIniScore@ DB '@IniScore', 00H	; `string'
CONST	ENDS
;	COMDAT ??_C@_09FCEHGDCA@?$EAAAPayFee@
CONST	SEGMENT
??_C@_09FCEHGDCA@?$EAAAPayFee@ DB '@AAPayFee', 00H	; `string'
CONST	ENDS
;	COMDAT ??_C@_09GLBENLGO@?$EATableFee@
CONST	SEGMENT
??_C@_09GLBENLGO@?$EATableFee@ DB '@TableFee', 00H	; `string'
CONST	ENDS
;	COMDAT ??_C@_0P@PPHKCKBK@?$EADrawTimeLimit@
CONST	SEGMENT
??_C@_0P@PPHKCKBK@?$EADrawTimeLimit@ DB '@DrawTimeLimit', 00H ; `string'
CONST	ENDS
;	COMDAT ??_C@_0BA@NEJOBMJG@?$EADrawCountLimit@
CONST	SEGMENT
??_C@_0BA@NEJOBMJG@?$EADrawCountLimit@ DB '@DrawCountLimit', 00H ; `string'
CONST	ENDS
;	COMDAT ??_C@_0CC@PJKIIGNE@GSP_GS_DeletePersonalFeeParamet@
CONST	SEGMENT
??_C@_0CC@PJKIIGNE@GSP_GS_DeletePersonalFeeParamet@ DB 'GSP_GS_DeletePers'
	DB	'onalFeeParameter', 00H			; `string'
CONST	ENDS
;	COMDAT ??_C@_0CD@MBGOMFKI@GSP_GS_InsertPersonalRoomParame@
CONST	SEGMENT
??_C@_0CD@MBGOMFKI@GSP_GS_InsertPersonalRoomParame@ DB 'GSP_GS_InsertPers'
	DB	'onalRoomParameter', 00H			; `string'
CONST	ENDS
;	COMDAT ??_C@_0O@MLGGNFBJ@?$EAwEndFreeTime@
CONST	SEGMENT
??_C@_0O@MLGGNFBJ@?$EAwEndFreeTime@ DB '@wEndFreeTime', 00H ; `string'
CONST	ENDS
;	COMDAT ??_C@_0BA@LKGDNDNG@?$EAwBeginFreeTime@
CONST	SEGMENT
??_C@_0BA@LKGDNDNG@?$EAwBeginFreeTime@ DB '@wBeginFreeTime', 00H ; `string'
CONST	ENDS
;	COMDAT ??_C@_0P@GODHDPFL@?$EAcbCreateRight@
CONST	SEGMENT
??_C@_0P@GODHDPFL@?$EAcbCreateRight@ DB '@cbCreateRight', 00H ; `string'
CONST	ENDS
;	COMDAT ??_C@_0BO@GAPHEMLN@?$EAwTimeNotBeginAfterCreateRoom@
CONST	SEGMENT
??_C@_0BO@GAPHEMLN@?$EAwTimeNotBeginAfterCreateRoom@ DB '@wTimeNotBeginAf'
	DB	'terCreateRoom', 00H				; `string'
CONST	ENDS
;	COMDAT ??_C@_0BD@DDANILFF@?$EAwTimeNotBeginGame@
CONST	SEGMENT
??_C@_0BD@DDANILFF@?$EAwTimeNotBeginGame@ DB '@wTimeNotBeginGame', 00H ; `string'
CONST	ENDS
;	COMDAT ??_C@_0BD@GBNNIIBP@?$EAwTimeOffLineCount@
CONST	SEGMENT
??_C@_0BD@GBNNIIBP@?$EAwTimeOffLineCount@ DB '@wTimeOffLineCount', 00H ; `string'
CONST	ENDS
;	COMDAT ??_C@_0BG@PLKJOLIC@?$EAwTimeAfterBeginCount@
CONST	SEGMENT
??_C@_0BG@PLKJOLIC@?$EAwTimeAfterBeginCount@ DB '@wTimeAfterBeginCount', 00H ; `string'
CONST	ENDS
;	COMDAT ??_C@_0BA@NOEDAIIC@?$EAwPlayTimeLimit@
CONST	SEGMENT
??_C@_0BA@NOEDAIIC@?$EAwPlayTimeLimit@ DB '@wPlayTimeLimit', 00H ; `string'
CONST	ENDS
;	COMDAT ??_C@_0BA@NNNPOABK@?$EAwPlayTurnCount@
CONST	SEGMENT
??_C@_0BA@NNNPOABK@?$EAwPlayTurnCount@ DB '@wPlayTurnCount', 00H ; `string'
CONST	ENDS
;	COMDAT ??_C@_0BB@NMCMDDIO@?$EAwCanCreateCount@
CONST	SEGMENT
??_C@_0BB@NMCMDDIO@?$EAwCanCreateCount@ DB '@wCanCreateCount', 00H ; `string'
CONST	ENDS
;	COMDAT ??_C@_0P@JJFBKDAF@?$EAlMaxCellScore@
CONST	SEGMENT
??_C@_0P@JJFBKDAF@?$EAlMaxCellScore@ DB '@lMaxCellScore', 00H ; `string'
CONST	ENDS
;	COMDAT ??_C@_0BC@LFDMHEEC@?$EAlPersonalRoomTax@
CONST	SEGMENT
??_C@_0BC@LFDMHEEC@?$EAlPersonalRoomTax@ DB '@lPersonalRoomTax', 00H ; `string'
CONST	ENDS
;	COMDAT ??_C@_0N@BHGNLAPN@?$EAcbMaxPeople@
CONST	SEGMENT
??_C@_0N@BHGNLAPN@?$EAcbMaxPeople@ DB '@cbMaxPeople', 00H ; `string'
CONST	ENDS
;	COMDAT ??_C@_0N@BGGBCKEJ@?$EAcbMinPeople@
CONST	SEGMENT
??_C@_0N@BGGBCKEJ@?$EAcbMinPeople@ DB '@cbMinPeople', 00H ; `string'
CONST	ENDS
;	COMDAT ??_C@_0O@PHLNKDAD@?$EAcbIsJoinGame@
CONST	SEGMENT
??_C@_0O@PHLNKDAD@?$EAcbIsJoinGame@ DB '@cbIsJoinGame', 00H ; `string'
CONST	ENDS
;	COMDAT ??_C@_08JJGOBBMF@GameMode@
CONST	SEGMENT
??_C@_08JJGOBBMF@GameMode@ DB 'GameMode', 00H		; `string'
CONST	ENDS
;	COMDAT ??_C@_08MILKFGPP@IniScore@
CONST	SEGMENT
??_C@_08MILKFGPP@IniScore@ DB 'IniScore', 00H		; `string'
CONST	ENDS
;	COMDAT ??_C@_08MJHOBIFI@AAPayFee@
CONST	SEGMENT
??_C@_08MJHOBIFI@AAPayFee@ DB 'AAPayFee', 00H		; `string'
CONST	ENDS
;	COMDAT ??_C@_08PACNKABG@TableFee@
CONST	SEGMENT
??_C@_08PACNKABG@TableFee@ DB 'TableFee', 00H		; `string'
CONST	ENDS
;	COMDAT ??_C@_0P@MBIIKCNO@DrawCountLimit@
CONST	SEGMENT
??_C@_0P@MBIIKCNO@DrawCountLimit@ DB 'DrawCountLimit', 00H ; `string'
CONST	ENDS
;	COMDAT ??_C@_0BP@BLHAELOH@GSP_MB_GetPersonalFeeParameter@
CONST	SEGMENT
??_C@_0BP@BLHAELOH@GSP_MB_GetPersonalFeeParameter@ DB 'GSP_MB_GetPersonal'
	DB	'FeeParameter', 00H				; `string'
CONST	ENDS
;	COMDAT ??_C@_09DFDKDCCP@?$EAdwKindID@
CONST	SEGMENT
??_C@_09DFDKDCCP@?$EAdwKindID@ DB '@dwKindID', 00H	; `string'
CONST	ENDS
;	COMDAT ??_C@_0M@JGNJEEEJ@CreateRight@
CONST	SEGMENT
??_C@_0M@JGNJEEEJ@CreateRight@ DB 'CreateRight', 00H	; `string'
CONST	ENDS
;	COMDAT ??_C@_0M@OHDGOHJM@EndFreeTime@
CONST	SEGMENT
??_C@_0M@OHDGOHJM@EndFreeTime@ DB 'EndFreeTime', 00H	; `string'
CONST	ENDS
;	COMDAT ??_C@_0O@DEEAMCAI@BeginFreeTime@
CONST	SEGMENT
??_C@_0O@DEEAMCAI@BeginFreeTime@ DB 'BeginFreeTime', 00H ; `string'
CONST	ENDS
;	COMDAT ??_C@_0BM@CMLNFFIM@TimeNotBeginAfterCreateRoom@
CONST	SEGMENT
??_C@_0BM@CMLNFFIM@TimeNotBeginAfterCreateRoom@ DB 'TimeNotBeginAfterCrea'
	DB	'teRoom', 00H				; `string'
CONST	ENDS
;	COMDAT ??_C@_0BB@EFKEMBID@TimeNotBeginGame@
CONST	SEGMENT
??_C@_0BB@EFKEMBID@TimeNotBeginGame@ DB 'TimeNotBeginGame', 00H ; `string'
CONST	ENDS
;	COMDAT ??_C@_0BB@BHHEMCMJ@TimeOffLineCount@
CONST	SEGMENT
??_C@_0BB@BHHEMCMJ@TimeOffLineCount@ DB 'TimeOffLineCount', 00H ; `string'
CONST	ENDS
;	COMDAT ??_C@_0BE@NHDBBOLF@TimeAfterBeginCount@
CONST	SEGMENT
??_C@_0BE@NHDBBOLF@TimeAfterBeginCount@ DB 'TimeAfterBeginCount', 00H ; `string'
CONST	ENDS
;	COMDAT ??_C@_0O@FAGABJFM@PlayTimeLimit@
CONST	SEGMENT
??_C@_0O@FAGABJFM@PlayTimeLimit@ DB 'PlayTimeLimit', 00H ; `string'
CONST	ENDS
;	COMDAT ??_C@_0O@FDPMPBME@PlayTurnCount@
CONST	SEGMENT
??_C@_0O@FDPMPBME@PlayTurnCount@ DB 'PlayTurnCount', 00H ; `string'
CONST	ENDS
;	COMDAT ??_C@_0P@LNMJOPEM@CanCreateCount@
CONST	SEGMENT
??_C@_0P@LNMJOPEM@CanCreateCount@ DB 'CanCreateCount', 00H ; `string'
CONST	ENDS
;	COMDAT ??_C@_0BA@GCOMLPGF@PersonalRoomTax@
CONST	SEGMENT
??_C@_0BA@GCOMLPGF@PersonalRoomTax@ DB 'PersonalRoomTax', 00H ; `string'
CONST	ENDS
;	COMDAT ??_C@_0N@CNCFIDBJ@MaxCellScore@
CONST	SEGMENT
??_C@_0N@CNCFIDBJ@MaxCellScore@ DB 'MaxCellScore', 00H	; `string'
CONST	ENDS
;	COMDAT ??_C@_09BBGKJOKD@MaxPeople@
CONST	SEGMENT
??_C@_09BBGKJOKD@MaxPeople@ DB 'MaxPeople', 00H		; `string'
CONST	ENDS
;	COMDAT ??_C@_09BAGGAEBH@MinPeople@
CONST	SEGMENT
??_C@_09BAGGAEBH@MinPeople@ DB 'MinPeople', 00H		; `string'
CONST	ENDS
;	COMDAT ??_C@_0L@HLGININO@IsJoinGame@
CONST	SEGMENT
??_C@_0L@HLGININO@IsJoinGame@ DB 'IsJoinGame', 00H	; `string'
CONST	ENDS
;	COMDAT ??_C@_0CB@MMPODBFJ@GSP_GS_LoadPersonalRoomParamete@
CONST	SEGMENT
??_C@_0CB@MMPODBFJ@GSP_GS_LoadPersonalRoomParamete@ DB 'GSP_GS_LoadPerson'
	DB	'alRoomParameter', 00H			; `string'
CONST	ENDS
;	COMDAT ?__LINE__Var@?0??LoadPersonalRoomParameter@CServerInfoManager@@QAE_NAAUtagPersonalRoomOption@@AAUtagPersonalRoomOptionRightAndFee@@G@Z@4JA
_DATA	SEGMENT
?__LINE__Var@?0??LoadPersonalRoomParameter@CServerInfoManager@@QAE_NAAUtagPersonalRoomOption@@AAUtagPersonalRoomOptionRightAndFee@@G@Z@4JA DD 037fH ; `CServerInfoManager::LoadPersonalRoomParameter'::`1'::__LINE__Var
_DATA	ENDS
;	COMDAT ??_C@_0N@KBPJFFJC@PersonalRule@
CONST	SEGMENT
??_C@_0N@KBPJFFJC@PersonalRule@ DB 'PersonalRule', 00H	; `string'
CONST	ENDS
;	COMDAT ??_C@_0P@NECLNLN@ServiceMachine@
CONST	SEGMENT
??_C@_0P@NECLNLN@ServiceMachine@ DB 'ServiceMachine', 00H ; `string'
CONST	ENDS
;	COMDAT ??_C@_0L@KEGHFOHA@CustomRule@
CONST	SEGMENT
??_C@_0L@KEGHFOHA@CustomRule@ DB 'CustomRule', 00H	; `string'
CONST	ENDS
;	COMDAT ??_C@_0N@KEAKJKMG@DataBaseAddr@
CONST	SEGMENT
??_C@_0N@KEAKJKMG@DataBaseAddr@ DB 'DataBaseAddr', 00H	; `string'
CONST	ENDS
;	COMDAT ??_C@_0N@BLNGECDM@DataBaseName@
CONST	SEGMENT
??_C@_0N@BLNGECDM@DataBaseName@ DB 'DataBaseName', 00H	; `string'
CONST	ENDS
;	COMDAT ??_C@_0BD@KOHDFMDA@MaxPartakeGameUser@
CONST	SEGMENT
??_C@_0BD@KOHDFMDA@MaxPartakeGameUser@ DB 'MaxPartakeGameUser', 00H ; `string'
CONST	ENDS
;	COMDAT ??_C@_0BD@JEHNMEJ@MinPartakeGameUser@
CONST	SEGMENT
??_C@_0BD@JEHNMEJ@MinPartakeGameUser@ DB 'MinPartakeGameUser', 00H ; `string'
CONST	ENDS
;	COMDAT ??_C@_0BE@BBFANIHP@DistributeDrawCount@
CONST	SEGMENT
??_C@_0BE@BBFANIHP@DistributeDrawCount@ DB 'DistributeDrawCount', 00H ; `string'
CONST	ENDS
;	COMDAT ??_C@_0BE@NKJJGPNA@DistributeTimeSpace@
CONST	SEGMENT
??_C@_0BE@NKJJGPNA@DistributeTimeSpace@ DB 'DistributeTimeSpace', 00H ; `string'
CONST	ENDS
;	COMDAT ??_C@_0BC@BPMHCGIJ@MinDistributeUser@
CONST	SEGMENT
??_C@_0BC@BPMHCGIJ@MinDistributeUser@ DB 'MinDistributeUser', 00H ; `string'
CONST	ENDS
;	COMDAT ??_C@_0P@HAKAMBIC@DistributeRule@
CONST	SEGMENT
??_C@_0P@HAKAMBIC@DistributeRule@ DB 'DistributeRule', 00H ; `string'
CONST	ENDS
;	COMDAT ??_C@_0N@CGAIMFGC@ServerPasswd@
CONST	SEGMENT
??_C@_0N@CGAIMFGC@ServerPasswd@ DB 'ServerPasswd', 00H	; `string'
CONST	ENDS
;	COMDAT ??_C@_0L@FFDIDHBB@ServerName@
CONST	SEGMENT
??_C@_0L@FFDIDHBB@ServerName@ DB 'ServerName', 00H	; `string'
CONST	ENDS
;	COMDAT ??_C@_0M@JMPNOLDL@ServerLevel@
CONST	SEGMENT
??_C@_0M@JMPNOLDL@ServerLevel@ DB 'ServerLevel', 00H	; `string'
CONST	ENDS
;	COMDAT ??_C@_0L@PODLPHGB@ServerType@
CONST	SEGMENT
??_C@_0L@PODLPHGB@ServerType@ DB 'ServerType', 00H	; `string'
CONST	ENDS
;	COMDAT ??_C@_0L@EDDBBPJG@ServerKind@
CONST	SEGMENT
??_C@_0L@EDDBBPJG@ServerKind@ DB 'ServerKind', 00H	; `string'
CONST	ENDS
;	COMDAT ??_C@_0L@COJEKOJM@ServerPort@
CONST	SEGMENT
??_C@_0L@COJEKOJM@ServerPort@ DB 'ServerPort', 00H	; `string'
CONST	ENDS
;	COMDAT ??_C@_0L@IJDAGCEH@TableCount@
CONST	SEGMENT
??_C@_0L@IJDAGCEH@TableCount@ DB 'TableCount', 00H	; `string'
CONST	ENDS
;	COMDAT ??_C@_09POAPIBJJ@MaxPlayer@
CONST	SEGMENT
??_C@_09POAPIBJJ@MaxPlayer@ DB 'MaxPlayer', 00H		; `string'
CONST	ENDS
;	COMDAT ??_C@_0BA@IBOCBCNP@AttachUserRight@
CONST	SEGMENT
??_C@_0BA@IBOCBCNP@AttachUserRight@ DB 'AttachUserRight', 00H ; `string'
CONST	ENDS
;	COMDAT ??_C@_0L@COJBOHGN@ServerRule@
CONST	SEGMENT
??_C@_0L@COJBOHGN@ServerRule@ DB 'ServerRule', 00H	; `string'
CONST	ENDS
;	COMDAT ??_C@_0P@JMMACKHO@MaxEnterMember@
CONST	SEGMENT
??_C@_0P@JMMACKHO@MaxEnterMember@ DB 'MaxEnterMember', 00H ; `string'
CONST	ENDS
;	COMDAT ??_C@_0P@LLHLENEP@MinEnterMember@
CONST	SEGMENT
??_C@_0P@LLHLENEP@MinEnterMember@ DB 'MinEnterMember', 00H ; `string'
CONST	ENDS
;	COMDAT ??_C@_0O@HHJEDKGE@MaxEnterScore@
CONST	SEGMENT
??_C@_0O@HHJEDKGE@MaxEnterScore@ DB 'MaxEnterScore', 00H ; `string'
CONST	ENDS
;	COMDAT ??_C@_0O@MOLCKBBF@MinEnterScore@
CONST	SEGMENT
??_C@_0O@MOLCKBBF@MinEnterScore@ DB 'MinEnterScore', 00H ; `string'
CONST	ENDS
;	COMDAT ??_C@_0O@DCCNGDAD@MinTableScore@
CONST	SEGMENT
??_C@_0O@DCCNGDAD@MinTableScore@ DB 'MinTableScore', 00H ; `string'
CONST	ENDS
;	COMDAT ??_C@_0O@NKNPBAEH@RestrictScore@
CONST	SEGMENT
??_C@_0O@NKNPBAEH@RestrictScore@ DB 'RestrictScore', 00H ; `string'
CONST	ENDS
;	COMDAT ??_C@_0N@KGDLKHJP@ServiceScore@
CONST	SEGMENT
??_C@_0N@KGDLKHJP@ServiceScore@ DB 'ServiceScore', 00H	; `string'
CONST	ENDS
;	COMDAT ??_C@_0N@FEAJGFG@RevenueRatio@
CONST	SEGMENT
??_C@_0N@FEAJGFG@RevenueRatio@ DB 'RevenueRatio', 00H	; `string'
CONST	ENDS
;	COMDAT ??_C@_09MMGMMPOJ@CellScore@
CONST	SEGMENT
??_C@_09MMGMMPOJ@CellScore@ DB 'CellScore', 00H		; `string'
CONST	ENDS
;	COMDAT ??_C@_0O@GDMCLMBH@ClientEXEName@
CONST	SEGMENT
??_C@_0O@GDMCLMBH@ClientEXEName@ DB 'ClientEXEName', 00H ; `string'
CONST	ENDS
;	COMDAT ??_C@_0O@DLLFAKFN@ServerDLLName@
CONST	SEGMENT
??_C@_0O@DLLFAKFN@ServerDLLName@ DB 'ServerDLLName', 00H ; `string'
CONST	ENDS
;	COMDAT ??_C@_08DBMACHKJ@GameName@
CONST	SEGMENT
??_C@_08DBMACHKJ@GameName@ DB 'GameName', 00H		; `string'
CONST	ENDS
;	COMDAT ??_C@_0O@BNALHPOE@ServerVersion@
CONST	SEGMENT
??_C@_0O@BNALHPOE@ServerVersion@ DB 'ServerVersion', 00H ; `string'
CONST	ENDS
;	COMDAT ??_C@_0O@DNEICACF@ClientVersion@
CONST	SEGMENT
??_C@_0O@DNEICACF@ClientVersion@ DB 'ClientVersion', 00H ; `string'
CONST	ENDS
;	COMDAT ??_C@_06FBNNGAO@SortID@
CONST	SEGMENT
??_C@_06FBNNGAO@SortID@ DB 'SortID', 00H		; `string'
CONST	ENDS
;	COMDAT ??_C@_06EBBHJNI@NodeID@
CONST	SEGMENT
??_C@_06EBBHJNI@NodeID@ DB 'NodeID', 00H		; `string'
CONST	ENDS
;	COMDAT ??_C@_06HCHMMKKG@KindID@
CONST	SEGMENT
??_C@_06HCHMMKKG@KindID@ DB 'KindID', 00H		; `string'
CONST	ENDS
;	COMDAT ??_C@_08BHBELLIH@ServerID@
CONST	SEGMENT
??_C@_08BHBELLIH@ServerID@ DB 'ServerID', 00H		; `string'
CONST	ENDS
;	COMDAT ??_C@_06KGJDDPAK@GameID@
CONST	SEGMENT
??_C@_06KGJDDPAK@GameID@ DB 'GameID', 00H		; `string'
CONST	ENDS
;	COMDAT ?__LINE__Var@?0??ReadGameServerInfo@CServerInfoManager@@AAE_NAAVCDataBaseAide@@AAUtagGameServerInfo@@@Z@4JA
_DATA	SEGMENT
?__LINE__Var@?0??ReadGameServerInfo@CServerInfoManager@@AAE_NAAVCDataBaseAide@@AAUtagGameServerInfo@@@Z@4JA DD 02f7H ; `CServerInfoManager::ReadGameServerInfo'::`1'::__LINE__Var
_DATA	ENDS
;	COMDAT ??_C@_0DA@PCJBGNDG@CreateGameServer?5?$LE?$LE?$LN?$KI?5PlatformD@
CONST	SEGMENT
??_C@_0DA@PCJBGNDG@CreateGameServer?5?$LE?$LE?$LN?$KI?5PlatformD@ DB 'Cre'
	DB	'ateGameServer ', 0b4H, 0b4H, 0bdH, 0a8H, ' PlatformDBModule ', 0b6H
	DB	0d4H, 0cfH, 0f3H, 0caH, 0a7H, 0b0H, 0dcH, 00H ; `string'
CONST	ENDS
;	COMDAT ??_C@_0BG@HDLIAPBG@GSP_GS_ModifyGameRoom@
CONST	SEGMENT
??_C@_0BG@HDLIAPBG@GSP_GS_ModifyGameRoom@ DB 'GSP_GS_ModifyGameRoom', 00H ; `string'
CONST	ENDS
;	COMDAT ?__LINE__Var@?0??ModifyGameServer@CServerInfoManager@@QAE_NPAUtagGameServerCreate@@AAUtagGameServerInfo@@@Z@4JA
_DATA	SEGMENT
?__LINE__Var@?0??ModifyGameServer@CServerInfoManager@@QAE_NPAUtagGameServerCreate@@AAUtagGameServerInfo@@@Z@4JA DD 0275H ; `CServerInfoManager::ModifyGameServer'::`1'::__LINE__Var
_DATA	ENDS
;	COMDAT ??_C@_0BG@EDGEFKPJ@GSP_GS_InsertGameRoom@
CONST	SEGMENT
??_C@_0BG@EDGEFKPJ@GSP_GS_InsertGameRoom@ DB 'GSP_GS_InsertGameRoom', 00H ; `string'
CONST	ENDS
;	COMDAT ??_C@_0BB@ELKLEIJF@?$EAstrPersonalRule@
CONST	SEGMENT
??_C@_0BB@ELKLEIJF@?$EAstrPersonalRule@ DB '@strPersonalRule', 00H ; `string'
CONST	ENDS
;	COMDAT ??_C@_0P@PGPKAIOB@?$EAstrCustomRule@
CONST	SEGMENT
??_C@_0P@PGPKAIOB@?$EAstrCustomRule@ DB '@strCustomRule', 00H ; `string'
CONST	ENDS
;	COMDAT ??_C@_0BB@EOFIIHMB@?$EAstrDataBaseAddr@
CONST	SEGMENT
??_C@_0BB@EOFIIHMB@?$EAstrDataBaseAddr@ DB '@strDataBaseAddr', 00H ; `string'
CONST	ENDS
;	COMDAT ??_C@_0BB@PBIEFPDL@?$EAstrDataBaseName@
CONST	SEGMENT
??_C@_0BB@PBIEFPDL@?$EAstrDataBaseName@ DB '@strDataBaseName', 00H ; `string'
CONST	ENDS
;	COMDAT ??_C@_0BF@OPBIOAIO@?$EAwMaxPartakeGameUser@
CONST	SEGMENT
??_C@_0BF@OPBIOAIO@?$EAwMaxPartakeGameUser@ DB '@wMaxPartakeGameUser', 00H ; `string'
CONST	ENDS
;	COMDAT ??_C@_0BF@EICMGAPH@?$EAwMinPartakeGameUser@
CONST	SEGMENT
??_C@_0BF@EICMGAPH@?$EAwMinPartakeGameUser@ DB '@wMinPartakeGameUser', 00H ; `string'
CONST	ENDS
;	COMDAT ??_C@_0BG@DNMICNEI@?$EAwDistributeDrawCount@
CONST	SEGMENT
??_C@_0BG@DNMICNEI@?$EAwDistributeDrawCount@ DB '@wDistributeDrawCount', 00H ; `string'
CONST	ENDS
;	COMDAT ??_C@_0BG@PGABJKOH@?$EAwDistributeTimeSpace@
CONST	SEGMENT
??_C@_0BG@PGABJKOH@?$EAwDistributeTimeSpace@ DB '@wDistributeTimeSpace', 00H ; `string'
CONST	ENDS
;	COMDAT ??_C@_0BE@HAABPICC@?$EAwMinDistributeUser@
CONST	SEGMENT
??_C@_0BE@HAABPICC@?$EAwMinDistributeUser@ DB '@wMinDistributeUser', 00H ; `string'
CONST	ENDS
;	COMDAT ??_C@_0BC@OEHLNJCG@?$EAcbDistributeRule@
CONST	SEGMENT
??_C@_0BC@OEHLNJCG@?$EAcbDistributeRule@ DB '@cbDistributeRule', 00H ; `string'
CONST	ENDS
;	COMDAT ??_C@_0BB@MMFKNIGF@?$EAstrServerPasswd@
CONST	SEGMENT
??_C@_0BB@MMFKNIGF@?$EAstrServerPasswd@ DB '@strServerPasswd', 00H ; `string'
CONST	ENDS
;	COMDAT ??_C@_0P@HKFGBIA@?$EAstrServerName@
CONST	SEGMENT
??_C@_0P@HKFGBIA@?$EAstrServerName@ DB '@strServerName', 00H ; `string'
CONST	ENDS
;	COMDAT ??_C@_0O@LAKNNJLO@?$EAwServerLevel@
CONST	SEGMENT
??_C@_0O@LAKNNJLO@?$EAwServerLevel@ DB '@wServerLevel', 00H ; `string'
CONST	ENDS
;	COMDAT ??_C@_0N@HHJHPJNP@?$EAwServerType@
CONST	SEGMENT
??_C@_0N@HHJHPJNP@?$EAwServerType@ DB '@wServerType', 00H ; `string'
CONST	ENDS
;	COMDAT ??_C@_0N@MKJNBBCI@?$EAwServerKind@
CONST	SEGMENT
??_C@_0N@MKJNBBCI@?$EAwServerKind@ DB '@wServerKind', 00H ; `string'
CONST	ENDS
;	COMDAT ??_C@_0N@KHDIKACC@?$EAwServerPort@
CONST	SEGMENT
??_C@_0N@KHDIKACC@?$EAwServerPort@ DB '@wServerPort', 00H ; `string'
CONST	ENDS
;	COMDAT ??_C@_0N@JMGMPJ@?$EAwTableCount@
CONST	SEGMENT
??_C@_0N@JMGMPJ@?$EAwTableCount@ DB '@wTableCount', 00H	; `string'
CONST	ENDS
;	COMDAT ??_C@_0M@IBCKNPAA@?$EAwMaxPlayer@
CONST	SEGMENT
??_C@_0M@IBCKNPAA@?$EAwMaxPlayer@ DB '@wMaxPlayer', 00H	; `string'
CONST	ENDS
;	COMDAT ??_C@_0BD@FCBMNBKD@?$EAdwAttachUserRight@
CONST	SEGMENT
??_C@_0BD@FCBMNBKD@?$EAdwAttachUserRight@ DB '@dwAttachUserRight', 00H ; `string'
CONST	ENDS
;	COMDAT ??_C@_0O@ELIMAAAE@?$EAdwServerRule@
CONST	SEGMENT
??_C@_0O@ELIMAAAE@?$EAdwServerRule@ DB '@dwServerRule', 00H ; `string'
CONST	ENDS
;	COMDAT ??_C@_0BC@IBLDCNK@?$EAcbMaxEnterMember@
CONST	SEGMENT
??_C@_0BC@IBLDCNK@?$EAcbMaxEnterMember@ DB '@cbMaxEnterMember', 00H ; `string'
CONST	ENDS
;	COMDAT ??_C@_0BC@CPKAFFOL@?$EAcbMinEnterMember@
CONST	SEGMENT
??_C@_0BC@CPKAFFOL@?$EAcbMinEnterMember@ DB '@cbMinEnterMember', 00H ; `string'
CONST	ENDS
;	COMDAT ??_C@_0BA@GDCBBCAL@?$EAlMaxEnterScore@
CONST	SEGMENT
??_C@_0BA@GDCBBCAL@?$EAlMaxEnterScore@ DB '@lMaxEnterScore', 00H ; `string'
CONST	ENDS
;	COMDAT ??_C@_0BA@NKAHIJHK@?$EAlMinEnterScore@
CONST	SEGMENT
??_C@_0BA@NKAHIJHK@?$EAlMinEnterScore@ DB '@lMinEnterScore', 00H ; `string'
CONST	ENDS
;	COMDAT ??_C@_0BA@CGJIELGM@?$EAlMinTableScore@
CONST	SEGMENT
??_C@_0BA@CGJIELGM@?$EAlMinTableScore@ DB '@lMinTableScore', 00H ; `string'
CONST	ENDS
;	COMDAT ??_C@_0BA@MOGKDICI@?$EAlRestrictScore@
CONST	SEGMENT
??_C@_0BA@MOGKDICI@?$EAlRestrictScore@ DB '@lRestrictScore', 00H ; `string'
CONST	ENDS
;	COMDAT ??_C@_0P@BCEPIHID@?$EAlServiceScore@
CONST	SEGMENT
??_C@_0P@BCEPIHID@?$EAlServiceScore@ DB '@lServiceScore', 00H ; `string'
CONST	ENDS
;	COMDAT ??_C@_0P@JILOLBML@?$EAwRevenueRatio@
CONST	SEGMENT
??_C@_0P@JILOLBML@?$EAwRevenueRatio@ DB '@wRevenueRatio', 00H ; `string'
CONST	ENDS
;	COMDAT ??_C@_0M@DOJONCPP@?$EAlCellScore@
CONST	SEGMENT
??_C@_0M@DOJONCPP@?$EAlCellScore@ DB '@lCellScore', 00H	; `string'
CONST	ENDS
;	COMDAT ??_C@_08GHPIGFA@?$EAwSortID@
CONST	SEGMENT
??_C@_08GHPIGFA@?$EAwSortID@ DB '@wSortID', 00H		; `string'
CONST	ENDS
;	COMDAT ??_C@_08HHDCJIG@?$EAwNodeID@
CONST	SEGMENT
??_C@_08HHDCJIG@?$EAwNodeID@ DB '@wNodeID', 00H		; `string'
CONST	ENDS
;	COMDAT ??_C@_08HBBOJKPI@?$EAwKindID@
CONST	SEGMENT
??_C@_08HBBOJKPI@?$EAwKindID@ DB '@wKindID', 00H	; `string'
CONST	ENDS
;	COMDAT ??_C@_08KFPBGPFE@?$EAwGameID@
CONST	SEGMENT
??_C@_08KFPBGPFE@?$EAwGameID@ DB '@wGameID', 00H	; `string'
CONST	ENDS
;	COMDAT ??_C@_04JFFKLGJF@?$CF02X@
CONST	SEGMENT
??_C@_04JFFKLGJF@?$CF02X@ DB '%02X', 00H		; `string'
CONST	ENDS
;	COMDAT ?__LINE__Var@?0??InsertGameServer@CServerInfoManager@@QAE_NPAUtagGameServerCreate@@AAUtagGameServerInfo@@@Z@4JA
_DATA	SEGMENT
?__LINE__Var@?0??InsertGameServer@CServerInfoManager@@QAE_NPAUtagGameServerCreate@@AAUtagGameServerInfo@@@Z@4JA DD 020cH ; `CServerInfoManager::InsertGameServer'::`1'::__LINE__Var
_DATA	ENDS
;	COMDAT ??_C@_0BG@EDPMEAGC@GSP_GS_DeleteGameRoom@
CONST	SEGMENT
??_C@_0BG@EDPMEAGC@GSP_GS_DeleteGameRoom@ DB 'GSP_GS_DeleteGameRoom', 00H ; `string'
CONST	ENDS
;	COMDAT ?__LINE__Var@?0??DeleteGameServer@CServerInfoManager@@QAE_NG@Z@4JA
_DATA	SEGMENT
?__LINE__Var@?0??DeleteGameServer@CServerInfoManager@@QAE_NG@Z@4JA DD 01d2H ; `CServerInfoManager::DeleteGameServer'::`1'::__LINE__Var
_DATA	ENDS
;	COMDAT ?__LINE__Var@?0??LoadGameServerInfo@CServerInfoManager@@QAE_NQADGAAUtagGameServerInfo@@@Z@4JA
_DATA	SEGMENT
?__LINE__Var@?0??LoadGameServerInfo@CServerInfoManager@@QAE_NQADGAAUtagGameServerInfo@@@Z@4JA DD 018eH ; `CServerInfoManager::LoadGameServerInfo'::`1'::__LINE__Var
_DATA	ENDS
;	COMDAT ??_R0PAUIDataBaseException@@@8
data$r	SEGMENT
??_R0PAUIDataBaseException@@@8 DD FLAT:??_7type_info@@6B@ ; IDataBaseException * `RTTI Type Descriptor'
	DD	00H
	DB	'.PAUIDataBaseException@@', 00H
data$r	ENDS
;	COMDAT ??_C@_0BI@JPDDAIPE@GSP_GS_LoadGameRoomItem@
CONST	SEGMENT
??_C@_0BI@JPDDAIPE@GSP_GS_LoadGameRoomItem@ DB 'GSP_GS_LoadGameRoomItem', 00H ; `string'
CONST	ENDS
;	COMDAT ??_C@_0BC@IIOJPJPJ@?$EAstrErrorDescribe@
CONST	SEGMENT
??_C@_0BC@IIOJPJPJ@?$EAstrErrorDescribe@ DB '@strErrorDescribe', 00H ; `string'
CONST	ENDS
;	COMDAT ??_C@_0BD@CBAFKNPB@?$EAstrServiceMachine@
CONST	SEGMENT
??_C@_0BD@CBAFKNPB@?$EAstrServiceMachine@ DB '@strServiceMachine', 00H ; `string'
CONST	ENDS
;	COMDAT ??_C@_0L@FIEHJJML@?$EAwServerID@
CONST	SEGMENT
??_C@_0L@FIEHJJML@?$EAwServerID@ DB '@wServerID', 00H	; `string'
CONST	ENDS
;	COMDAT ?__LINE__Var@?0??LoadGameServerInfo@CServerInfoManager@@QAE_NQADAAVCServerInfoBuffer@@@Z@4JA
_DATA	SEGMENT
?__LINE__Var@?0??LoadGameServerInfo@CServerInfoManager@@QAE_NQADAAVCServerInfoBuffer@@@Z@4JA DD 0140H ; `CServerInfoManager::LoadGameServerInfo'::`1'::__LINE__Var
_DATA	ENDS
;	COMDAT ?__LINE__Var@?0??InsertMatchOption@CMatchOptionBuffer@@QAE_NPAUtagGameMatchOption@@@Z@4JA
_DATA	SEGMENT
?__LINE__Var@?0??InsertMatchOption@CMatchOptionBuffer@@QAE_NPAUtagGameMatchOption@@@Z@4JA DD 0dfH ; `CMatchOptionBuffer::InsertMatchOption'::`1'::__LINE__Var
_DATA	ENDS
;	COMDAT ?__LINE__Var@?0???1CMatchOptionBuffer@@UAE@XZ@4JA
_DATA	SEGMENT
?__LINE__Var@?0???1CMatchOptionBuffer@@UAE@XZ@4JA DD 0a4H ; `CMatchOptionBuffer::~CMatchOptionBuffer'::`1'::__LINE__Var
_DATA	ENDS
;	COMDAT ?__LINE__Var@?0??InsertServerInfo@CServerInfoBuffer@@QAE_NPAUtagGameServerInfo@@@Z@4JA
_DATA	SEGMENT
?__LINE__Var@?0??InsertServerInfo@CServerInfoBuffer@@QAE_NPAUtagGameServerInfo@@@Z@4JA DD 051H ; `CServerInfoBuffer::InsertServerInfo'::`1'::__LINE__Var
_DATA	ENDS
;	COMDAT ??_C@_0EO@GNEBGAKM@g?3?2?M?x?$LK?$PM?2happygamewh?2?$LH?$PO?N?q?$LG?K?2?O?$LF?M?$LD@
CONST	SEGMENT
??_C@_0EO@GNEBGAKM@g?3?2?M?x?$LK?$PM?2happygamewh?2?$LH?$PO?N?q?$LG?K?2?O?$LF?M?$LD@ DB 'g'
	DB	':\', 0cdH, 0f8H, 0baH, 0fcH, '\happygamewh\', 0b7H, 0feH, 0ceH
	DB	0f1H, 0b6H, 0cbH, '\', 0cfH, 0b5H, 0cdH, 0b3H, 0c4H, 0a3H, 0bfH
	DB	0e9H, '\', 0b7H, 0feH, 0ceH, 0f1H, 0c6H, 0f7H, 0d7H, 0e9H, 0bcH
	DB	0feH, '\', 0c4H, 0a3H, 0bfH, 0e9H, 0b9H, 0dcH, 0c0H, 0edH, '\s'
	DB	'erverinfomanager.cpp', 00H			; `string'
CONST	ENDS
;	COMDAT ?__LINE__Var@?0???1CServerInfoBuffer@@UAE@XZ@4JA
_DATA	SEGMENT
?__LINE__Var@?0???1CServerInfoBuffer@@UAE@XZ@4JA DD 0eH	; `CServerInfoBuffer::~CServerInfoBuffer'::`1'::__LINE__Var
_DATA	ENDS
;	COMDAT ??_7CServerInfoManager@@6B@
CONST	SEGMENT
??_7CServerInfoManager@@6B@ DD FLAT:??_R4CServerInfoManager@@6B@ ; CServerInfoManager::`vftable'
	DD	FLAT:??_ECServerInfoManager@@UAEPAXI@Z
CONST	ENDS
;	COMDAT ??_7CMatchOptionBuffer@@6B@
CONST	SEGMENT
??_7CMatchOptionBuffer@@6B@ DD FLAT:??_R4CMatchOptionBuffer@@6B@ ; CMatchOptionBuffer::`vftable'
	DD	FLAT:??_ECMatchOptionBuffer@@UAEPAXI@Z
CONST	ENDS
;	COMDAT ??_7?$CWHArray@PAUtagGameMatchOption@@ABQAU1@@@6B@
CONST	SEGMENT
??_7?$CWHArray@PAUtagGameMatchOption@@ABQAU1@@@6B@ DD FLAT:??_R4?$CWHArray@PAUtagGameMatchOption@@ABQAU1@@@6B@ ; CWHArray<tagGameMatchOption *,tagGameMatchOption * const &>::`vftable'
	DD	FLAT:??_E?$CWHArray@PAUtagGameMatchOption@@ABQAU1@@@UAEPAXI@Z
CONST	ENDS
;	COMDAT ??_7CServerInfoBuffer@@6B@
CONST	SEGMENT
??_7CServerInfoBuffer@@6B@ DD FLAT:??_R4CServerInfoBuffer@@6B@ ; CServerInfoBuffer::`vftable'
	DD	FLAT:??_ECServerInfoBuffer@@UAEPAXI@Z
CONST	ENDS
;	COMDAT ??_7?$CWHArray@PAUtagGameServerInfo@@ABQAU1@@@6B@
CONST	SEGMENT
??_7?$CWHArray@PAUtagGameServerInfo@@ABQAU1@@@6B@ DD FLAT:??_R4?$CWHArray@PAUtagGameServerInfo@@ABQAU1@@@6B@ ; CWHArray<tagGameServerInfo *,tagGameServerInfo * const &>::`vftable'
	DD	FLAT:??_E?$CWHArray@PAUtagGameServerInfo@@ABQAU1@@@UAEPAXI@Z
CONST	ENDS
;	COMDAT ??_7?$CMap@GGPAUtagGameServerInfo@@PAU1@@@6B@
CONST	SEGMENT
??_7?$CMap@GGPAUtagGameServerInfo@@PAU1@@@6B@ DD FLAT:??_R4?$CMap@GGPAUtagGameServerInfo@@PAU1@@@6B@ ; CMap<unsigned short,unsigned short,tagGameServerInfo *,tagGameServerInfo *>::`vftable'
	DD	FLAT:?GetRuntimeClass@CObject@@UBEPAUCRuntimeClass@@XZ
	DD	FLAT:??_E?$CMap@GGPAUtagGameServerInfo@@PAU1@@@UAEPAXI@Z
	DD	FLAT:?Serialize@?$CMap@GGPAUtagGameServerInfo@@PAU1@@@UAEXAAVCArchive@@@Z
	DD	FLAT:?AssertValid@?$CMap@GGPAUtagGameServerInfo@@PAU1@@@UBEXXZ
	DD	FLAT:?Dump@?$CMap@GGPAUtagGameServerInfo@@PAU1@@@UBEXAAVCDumpContext@@@Z
CONST	ENDS
;	COMDAT ??_7CModuleDBParameter@@6B@
CONST	SEGMENT
??_7CModuleDBParameter@@6B@ DD FLAT:??_R4CModuleDBParameter@@6B@ ; CModuleDBParameter::`vftable'
	DD	FLAT:??_ECModuleDBParameter@@UAEPAXI@Z
CONST	ENDS
;	COMDAT ??_C@_0BB@BEMLEOHB@KernelEngine?4dll@
CONST	SEGMENT
??_C@_0BB@BEMLEOHB@KernelEngine?4dll@ DB 'KernelEngine.dll', 00H ; `string'
CONST	ENDS
;	COMDAT ??_C@_0P@IKJBDFNG@CreateDataBase@
CONST	SEGMENT
??_C@_0P@IKJBDFNG@CreateDataBase@ DB 'CreateDataBase', 00H ; `string'
CONST	ENDS
;	COMDAT ??_7CDataBaseHelper@@6B@
CONST	SEGMENT
??_7CDataBaseHelper@@6B@ DD FLAT:??_R4CDataBaseHelper@@6B@ ; CDataBaseHelper::`vftable'
	DD	FLAT:??_ECDataBaseHelper@@UAEPAXI@Z
CONST	ENDS
;	COMDAT ??_7?$CTempldateHelper@UIDataBase@@@@6B@
CONST	SEGMENT
??_7?$CTempldateHelper@UIDataBase@@@@6B@ DD FLAT:??_R4?$CTempldateHelper@UIDataBase@@@@6B@ ; CTempldateHelper<IDataBase>::`vftable'
	DD	FLAT:??_E?$CTempldateHelper@UIDataBase@@@@UAEPAXI@Z
CONST	ENDS
;	COMDAT ??_C@_0GI@DJFLDKBN@c?3?2program?5files?5?$CIx86?$CJ?2microsof@
CONST	SEGMENT
??_C@_0GI@DJFLDKBN@c?3?2program?5files?5?$CIx86?$CJ?2microsof@ DB 'c:\pro'
	DB	'gram files (x86)\microsoft visual studio\2017\community\vc\to'
	DB	'ols\msvc\14.16.27023\include\xlocnum', 00H	; `string'
CONST	ENDS
;	COMDAT ?__LINE__Var@?0??_Maklocwcs@std@@YAPA_WPB_W@Z@4JA
_DATA	SEGMENT
?__LINE__Var@?0??_Maklocwcs@std@@YAPA_WPB_W@Z@4JA DD 061H ; `std::_Maklocwcs'::`1'::__LINE__Var
_DATA	ENDS
;	COMDAT ??_C@_0GI@LKBGDILM@c?3?2program?5files?5?$CIx86?$CJ?2microsof@
CONST	SEGMENT
??_C@_0GI@LKBGDILM@c?3?2program?5files?5?$CIx86?$CJ?2microsof@ DB 'c:\pro'
	DB	'gram files (x86)\microsoft visual studio\2017\community\vc\to'
	DB	'ols\msvc\14.16.27023\include\xlocale', 00H	; `string'
CONST	ENDS
;	COMDAT ??_R2CObject@@8
rdata$r	SEGMENT
??_R2CObject@@8 DD FLAT:??_R1A@?0A@EA@CObject@@8	; CObject::`RTTI Base Class Array'
rdata$r	ENDS
;	COMDAT ??_R3CObject@@8
rdata$r	SEGMENT
??_R3CObject@@8 DD 00H					; CObject::`RTTI Class Hierarchy Descriptor'
	DD	00H
	DD	01H
	DD	FLAT:??_R2CObject@@8
rdata$r	ENDS
;	COMDAT ??_R0?AVCObject@@@8
data$r	SEGMENT
??_R0?AVCObject@@@8 DD FLAT:??_7type_info@@6B@		; CObject `RTTI Type Descriptor'
	DD	00H
	DB	'.?AVCObject@@', 00H
data$r	ENDS
;	COMDAT ??_R1A@?0A@EA@CObject@@8
rdata$r	SEGMENT
??_R1A@?0A@EA@CObject@@8 DD FLAT:??_R0?AVCObject@@@8	; CObject::`RTTI Base Class Descriptor at (0,-1,0,64)'
	DD	00H
	DD	00H
	DD	0ffffffffH
	DD	00H
	DD	040H
	DD	FLAT:??_R3CObject@@8
rdata$r	ENDS
;	COMDAT ??_C@_01EEMJAFIK@?6@
CONST	SEGMENT
??_C@_01EEMJAFIK@?6@ DB 0aH, 00H			; `string'
CONST	ENDS
;	COMDAT ??_C@_09HCLNAIDE@?5elements@
CONST	SEGMENT
??_C@_09HCLNAIDE@?5elements@ DB ' elements', 00H	; `string'
CONST	ENDS
;	COMDAT ??_C@_05PLCFPPOI@with?5@
CONST	SEGMENT
??_C@_05PLCFPPOI@with?5@ DB 'with ', 00H		; `string'
CONST	ENDS
;	COMDAT ??_C@_0HC@HBCNBCLF@c?3?2program?5files?5?$CIx86?$CJ?2microsof@
CONST	SEGMENT
??_C@_0HC@HBCNBCLF@c?3?2program?5files?5?$CIx86?$CJ?2microsof@ DB 'c:\pro'
	DB	'gram files (x86)\microsoft visual studio\2017\community\vc\to'
	DB	'ols\msvc\14.16.27023\atlmfc\include\afxtempl.h', 00H ; `string'
CONST	ENDS
;	COMDAT ??_C@_00CNPNBAHC@@
CONST	SEGMENT
??_C@_00CNPNBAHC@@ DB 00H				; `string'
CONST	ENDS
;	COMDAT ??_C@_02DPKJAMEF@?$CFd@
CONST	SEGMENT
??_C@_02DPKJAMEF@?$CFd@ DB '%d', 00H			; `string'
CONST	ENDS
;	COMDAT xdata$x
xdata$x	SEGMENT
__ehfuncinfo$??_ECServerInfoManager@@UAEPAXI@Z DD 019930522H
	DD	00H
	DD	00H
	DD	2 DUP(00H)
	DD	2 DUP(00H)
	DD	00H
	DD	05H
xdata$x	ENDS
;	COMDAT xdata$x
xdata$x	SEGMENT
__catchsym$?ModifyPersonalRoomParameter@CServerInfoManager@@QAE_NVCDataBaseAide@@UtagPersonalRoomOption@@UtagPersonalRoomOptionRightAndFee@@GG@Z$3 DD 00H
	DD	FLAT:??_R0PAUIDataBaseException@@@8
	DD	0fffffe5cH
	DD	FLAT:__catch$?ModifyPersonalRoomParameter@CServerInfoManager@@QAE_NVCDataBaseAide@@UtagPersonalRoomOption@@UtagPersonalRoomOptionRightAndFee@@GG@Z$0
__tryblocktable$?ModifyPersonalRoomParameter@CServerInfoManager@@QAE_NVCDataBaseAide@@UtagPersonalRoomOption@@UtagPersonalRoomOptionRightAndFee@@GG@Z DD 01H
	DD	01H
	DD	02H
	DD	01H
	DD	FLAT:__catchsym$?ModifyPersonalRoomParameter@CServerInfoManager@@QAE_NVCDataBaseAide@@UtagPersonalRoomOption@@UtagPersonalRoomOptionRightAndFee@@GG@Z$3
__unwindtable$?ModifyPersonalRoomParameter@CServerInfoManager@@QAE_NVCDataBaseAide@@UtagPersonalRoomOption@@UtagPersonalRoomOptionRightAndFee@@GG@Z DD 0ffffffffH
	DD	FLAT:__unwindfunclet$?ModifyPersonalRoomParameter@CServerInfoManager@@QAE_NVCDataBaseAide@@UtagPersonalRoomOption@@UtagPersonalRoomOptionRightAndFee@@GG@Z$2
	DD	00H
	DD	00H
	DD	00H
	DD	00H
__ehfuncinfo$?ModifyPersonalRoomParameter@CServerInfoManager@@QAE_NVCDataBaseAide@@UtagPersonalRoomOption@@UtagPersonalRoomOptionRightAndFee@@GG@Z DD 019930522H
	DD	03H
	DD	FLAT:__unwindtable$?ModifyPersonalRoomParameter@CServerInfoManager@@QAE_NVCDataBaseAide@@UtagPersonalRoomOption@@UtagPersonalRoomOptionRightAndFee@@GG@Z
	DD	01H
	DD	FLAT:__tryblocktable$?ModifyPersonalRoomParameter@CServerInfoManager@@QAE_NVCDataBaseAide@@UtagPersonalRoomOption@@UtagPersonalRoomOptionRightAndFee@@GG@Z
	DD	2 DUP(00H)
	DD	00H
	DD	01H
xdata$x	ENDS
;	COMDAT xdata$x
xdata$x	SEGMENT
__catchsym$?InsertPersonalRoomParameter@CServerInfoManager@@QAE_NVCDataBaseAide@@UtagPersonalRoomOption@@UtagPersonalRoomOptionRightAndFee@@GG@Z$3 DD 00H
	DD	FLAT:??_R0PAUIDataBaseException@@@8
	DD	0fffffe5cH
	DD	FLAT:__catch$?InsertPersonalRoomParameter@CServerInfoManager@@QAE_NVCDataBaseAide@@UtagPersonalRoomOption@@UtagPersonalRoomOptionRightAndFee@@GG@Z$0
__tryblocktable$?InsertPersonalRoomParameter@CServerInfoManager@@QAE_NVCDataBaseAide@@UtagPersonalRoomOption@@UtagPersonalRoomOptionRightAndFee@@GG@Z DD 01H
	DD	01H
	DD	02H
	DD	01H
	DD	FLAT:__catchsym$?InsertPersonalRoomParameter@CServerInfoManager@@QAE_NVCDataBaseAide@@UtagPersonalRoomOption@@UtagPersonalRoomOptionRightAndFee@@GG@Z$3
__unwindtable$?InsertPersonalRoomParameter@CServerInfoManager@@QAE_NVCDataBaseAide@@UtagPersonalRoomOption@@UtagPersonalRoomOptionRightAndFee@@GG@Z DD 0ffffffffH
	DD	FLAT:__unwindfunclet$?InsertPersonalRoomParameter@CServerInfoManager@@QAE_NVCDataBaseAide@@UtagPersonalRoomOption@@UtagPersonalRoomOptionRightAndFee@@GG@Z$2
	DD	00H
	DD	00H
	DD	00H
	DD	00H
__ehfuncinfo$?InsertPersonalRoomParameter@CServerInfoManager@@QAE_NVCDataBaseAide@@UtagPersonalRoomOption@@UtagPersonalRoomOptionRightAndFee@@GG@Z DD 019930522H
	DD	03H
	DD	FLAT:__unwindtable$?InsertPersonalRoomParameter@CServerInfoManager@@QAE_NVCDataBaseAide@@UtagPersonalRoomOption@@UtagPersonalRoomOptionRightAndFee@@GG@Z
	DD	01H
	DD	FLAT:__tryblocktable$?InsertPersonalRoomParameter@CServerInfoManager@@QAE_NVCDataBaseAide@@UtagPersonalRoomOption@@UtagPersonalRoomOptionRightAndFee@@GG@Z
	DD	2 DUP(00H)
	DD	00H
	DD	01H
xdata$x	ENDS
;	COMDAT xdata$x
xdata$x	SEGMENT
__catchsym$?LoadPersonalRoomParameter@CServerInfoManager@@QAE_NAAUtagPersonalRoomOption@@AAUtagPersonalRoomOptionRightAndFee@@G@Z$4 DD 00H
	DD	FLAT:??_R0PAUIDataBaseException@@@8
	DD	0ffffbd74H
	DD	FLAT:__catch$?LoadPersonalRoomParameter@CServerInfoManager@@QAE_NAAUtagPersonalRoomOption@@AAUtagPersonalRoomOptionRightAndFee@@G@Z$0
__tryblocktable$?LoadPersonalRoomParameter@CServerInfoManager@@QAE_NAAUtagPersonalRoomOption@@AAUtagPersonalRoomOptionRightAndFee@@G@Z DD 02H
	DD	02H
	DD	03H
	DD	01H
	DD	FLAT:__catchsym$?LoadPersonalRoomParameter@CServerInfoManager@@QAE_NAAUtagPersonalRoomOption@@AAUtagPersonalRoomOptionRightAndFee@@G@Z$4
__unwindtable$?LoadPersonalRoomParameter@CServerInfoManager@@QAE_NAAUtagPersonalRoomOption@@AAUtagPersonalRoomOptionRightAndFee@@G@Z DD 0ffffffffH
	DD	FLAT:__unwindfunclet$?LoadPersonalRoomParameter@CServerInfoManager@@QAE_NAAUtagPersonalRoomOption@@AAUtagPersonalRoomOptionRightAndFee@@G@Z$2
	DD	00H
	DD	FLAT:__unwindfunclet$?LoadPersonalRoomParameter@CServerInfoManager@@QAE_NAAUtagPersonalRoomOption@@AAUtagPersonalRoomOptionRightAndFee@@G@Z$3
	DD	01H
	DD	00H
	DD	01H
	DD	00H
__ehfuncinfo$?LoadPersonalRoomParameter@CServerInfoManager@@QAE_NAAUtagPersonalRoomOption@@AAUtagPersonalRoomOptionRightAndFee@@G@Z DD 019930522H
	DD	04H
	DD	FLAT:__unwindtable$?LoadPersonalRoomParameter@CServerInfoManager@@QAE_NAAUtagPersonalRoomOption@@AAUtagPersonalRoomOptionRightAndFee@@G@Z
	DD	01H
	DD	FLAT:__tryblocktable$?LoadPersonalRoomParameter@CServerInfoManager@@QAE_NAAUtagPersonalRoomOption@@AAUtagPersonalRoomOptionRightAndFee@@G@Z
	DD	2 DUP(00H)
	DD	00H
	DD	01H
xdata$x	ENDS
;	COMDAT xdata$x
xdata$x	SEGMENT
__catchsym$?ModifyGameServer@CServerInfoManager@@QAE_NPAUtagGameServerCreate@@AAUtagGameServerInfo@@@Z$5 DD 00H
	DD	FLAT:??_R0PAUIDataBaseException@@@8
	DD	0ffffed74H
	DD	FLAT:__catch$?ModifyGameServer@CServerInfoManager@@QAE_NPAUtagGameServerCreate@@AAUtagGameServerInfo@@@Z$0
__tryblocktable$?ModifyGameServer@CServerInfoManager@@QAE_NPAUtagGameServerCreate@@AAUtagGameServerInfo@@@Z DD 02H
	DD	02H
	DD	03H
	DD	01H
	DD	FLAT:__catchsym$?ModifyGameServer@CServerInfoManager@@QAE_NPAUtagGameServerCreate@@AAUtagGameServerInfo@@@Z$5
__unwindtable$?ModifyGameServer@CServerInfoManager@@QAE_NPAUtagGameServerCreate@@AAUtagGameServerInfo@@@Z DD 0ffffffffH
	DD	FLAT:__unwindfunclet$?ModifyGameServer@CServerInfoManager@@QAE_NPAUtagGameServerCreate@@AAUtagGameServerInfo@@@Z$2
	DD	00H
	DD	FLAT:__unwindfunclet$?ModifyGameServer@CServerInfoManager@@QAE_NPAUtagGameServerCreate@@AAUtagGameServerInfo@@@Z$3
	DD	01H
	DD	00H
	DD	01H
	DD	00H
__ehfuncinfo$?ModifyGameServer@CServerInfoManager@@QAE_NPAUtagGameServerCreate@@AAUtagGameServerInfo@@@Z DD 019930522H
	DD	04H
	DD	FLAT:__unwindtable$?ModifyGameServer@CServerInfoManager@@QAE_NPAUtagGameServerCreate@@AAUtagGameServerInfo@@@Z
	DD	01H
	DD	FLAT:__tryblocktable$?ModifyGameServer@CServerInfoManager@@QAE_NPAUtagGameServerCreate@@AAUtagGameServerInfo@@@Z
	DD	2 DUP(00H)
	DD	00H
	DD	01H
xdata$x	ENDS
;	COMDAT xdata$x
xdata$x	SEGMENT
__catchsym$?InsertGameServer@CServerInfoManager@@QAE_NPAUtagGameServerCreate@@AAUtagGameServerInfo@@@Z$5 DD 00H
	DD	FLAT:??_R0PAUIDataBaseException@@@8
	DD	0ffffed74H
	DD	FLAT:__catch$?InsertGameServer@CServerInfoManager@@QAE_NPAUtagGameServerCreate@@AAUtagGameServerInfo@@@Z$0
__tryblocktable$?InsertGameServer@CServerInfoManager@@QAE_NPAUtagGameServerCreate@@AAUtagGameServerInfo@@@Z DD 02H
	DD	02H
	DD	03H
	DD	01H
	DD	FLAT:__catchsym$?InsertGameServer@CServerInfoManager@@QAE_NPAUtagGameServerCreate@@AAUtagGameServerInfo@@@Z$5
__unwindtable$?InsertGameServer@CServerInfoManager@@QAE_NPAUtagGameServerCreate@@AAUtagGameServerInfo@@@Z DD 0ffffffffH
	DD	FLAT:__unwindfunclet$?InsertGameServer@CServerInfoManager@@QAE_NPAUtagGameServerCreate@@AAUtagGameServerInfo@@@Z$2
	DD	00H
	DD	FLAT:__unwindfunclet$?InsertGameServer@CServerInfoManager@@QAE_NPAUtagGameServerCreate@@AAUtagGameServerInfo@@@Z$3
	DD	01H
	DD	00H
	DD	01H
	DD	00H
__ehfuncinfo$?InsertGameServer@CServerInfoManager@@QAE_NPAUtagGameServerCreate@@AAUtagGameServerInfo@@@Z DD 019930522H
	DD	04H
	DD	FLAT:__unwindtable$?InsertGameServer@CServerInfoManager@@QAE_NPAUtagGameServerCreate@@AAUtagGameServerInfo@@@Z
	DD	01H
	DD	FLAT:__tryblocktable$?InsertGameServer@CServerInfoManager@@QAE_NPAUtagGameServerCreate@@AAUtagGameServerInfo@@@Z
	DD	2 DUP(00H)
	DD	00H
	DD	01H
xdata$x	ENDS
;	COMDAT xdata$x
xdata$x	SEGMENT
__catchsym$?DeleteGameServer@CServerInfoManager@@QAE_NG@Z$4 DD 00H
	DD	FLAT:??_R0PAUIDataBaseException@@@8
	DD	0fffffd84H
	DD	FLAT:__catch$?DeleteGameServer@CServerInfoManager@@QAE_NG@Z$0
__tryblocktable$?DeleteGameServer@CServerInfoManager@@QAE_NG@Z DD 02H
	DD	02H
	DD	03H
	DD	01H
	DD	FLAT:__catchsym$?DeleteGameServer@CServerInfoManager@@QAE_NG@Z$4
__unwindtable$?DeleteGameServer@CServerInfoManager@@QAE_NG@Z DD 0ffffffffH
	DD	FLAT:__unwindfunclet$?DeleteGameServer@CServerInfoManager@@QAE_NG@Z$2
	DD	00H
	DD	FLAT:__unwindfunclet$?DeleteGameServer@CServerInfoManager@@QAE_NG@Z$3
	DD	01H
	DD	00H
	DD	01H
	DD	00H
__ehfuncinfo$?DeleteGameServer@CServerInfoManager@@QAE_NG@Z DD 019930522H
	DD	04H
	DD	FLAT:__unwindtable$?DeleteGameServer@CServerInfoManager@@QAE_NG@Z
	DD	01H
	DD	FLAT:__tryblocktable$?DeleteGameServer@CServerInfoManager@@QAE_NG@Z
	DD	2 DUP(00H)
	DD	00H
	DD	01H
xdata$x	ENDS
;	COMDAT xdata$x
xdata$x	SEGMENT
__catchsym$?LoadGameServerInfo@CServerInfoManager@@QAE_NQADGAAUtagGameServerInfo@@@Z$4 DD 00H
	DD	FLAT:??_R0PAUIDataBaseException@@@8
	DD	0fffffd84H
	DD	FLAT:__catch$?LoadGameServerInfo@CServerInfoManager@@QAE_NQADGAAUtagGameServerInfo@@@Z$0
__tryblocktable$?LoadGameServerInfo@CServerInfoManager@@QAE_NQADGAAUtagGameServerInfo@@@Z DD 02H
	DD	02H
	DD	03H
	DD	01H
	DD	FLAT:__catchsym$?LoadGameServerInfo@CServerInfoManager@@QAE_NQADGAAUtagGameServerInfo@@@Z$4
__unwindtable$?LoadGameServerInfo@CServerInfoManager@@QAE_NQADGAAUtagGameServerInfo@@@Z DD 0ffffffffH
	DD	FLAT:__unwindfunclet$?LoadGameServerInfo@CServerInfoManager@@QAE_NQADGAAUtagGameServerInfo@@@Z$2
	DD	00H
	DD	FLAT:__unwindfunclet$?LoadGameServerInfo@CServerInfoManager@@QAE_NQADGAAUtagGameServerInfo@@@Z$3
	DD	01H
	DD	00H
	DD	01H
	DD	00H
__ehfuncinfo$?LoadGameServerInfo@CServerInfoManager@@QAE_NQADGAAUtagGameServerInfo@@@Z DD 019930522H
	DD	04H
	DD	FLAT:__unwindtable$?LoadGameServerInfo@CServerInfoManager@@QAE_NQADGAAUtagGameServerInfo@@@Z
	DD	01H
	DD	FLAT:__tryblocktable$?LoadGameServerInfo@CServerInfoManager@@QAE_NQADGAAUtagGameServerInfo@@@Z
	DD	2 DUP(00H)
	DD	00H
	DD	01H
xdata$x	ENDS
;	COMDAT xdata$x
xdata$x	SEGMENT
__catchsym$?LoadGameServerInfo@CServerInfoManager@@QAE_NQADAAVCServerInfoBuffer@@@Z$4 DD 00H
	DD	FLAT:??_R0PAUIDataBaseException@@@8
	DD	0fffff414H
	DD	FLAT:__catch$?LoadGameServerInfo@CServerInfoManager@@QAE_NQADAAVCServerInfoBuffer@@@Z$0
__tryblocktable$?LoadGameServerInfo@CServerInfoManager@@QAE_NQADAAVCServerInfoBuffer@@@Z DD 02H
	DD	02H
	DD	03H
	DD	01H
	DD	FLAT:__catchsym$?LoadGameServerInfo@CServerInfoManager@@QAE_NQADAAVCServerInfoBuffer@@@Z$4
__unwindtable$?LoadGameServerInfo@CServerInfoManager@@QAE_NQADAAVCServerInfoBuffer@@@Z DD 0ffffffffH
	DD	FLAT:__unwindfunclet$?LoadGameServerInfo@CServerInfoManager@@QAE_NQADAAVCServerInfoBuffer@@@Z$2
	DD	00H
	DD	FLAT:__unwindfunclet$?LoadGameServerInfo@CServerInfoManager@@QAE_NQADAAVCServerInfoBuffer@@@Z$3
	DD	01H
	DD	00H
	DD	01H
	DD	00H
__ehfuncinfo$?LoadGameServerInfo@CServerInfoManager@@QAE_NQADAAVCServerInfoBuffer@@@Z DD 019930522H
	DD	04H
	DD	FLAT:__unwindtable$?LoadGameServerInfo@CServerInfoManager@@QAE_NQADAAVCServerInfoBuffer@@@Z
	DD	01H
	DD	FLAT:__tryblocktable$?LoadGameServerInfo@CServerInfoManager@@QAE_NQADAAVCServerInfoBuffer@@@Z
	DD	2 DUP(00H)
	DD	00H
	DD	01H
xdata$x	ENDS
;	COMDAT xdata$x
xdata$x	SEGMENT
__ehfuncinfo$??_ECMatchOptionBuffer@@UAEPAXI@Z DD 019930522H
	DD	00H
	DD	00H
	DD	2 DUP(00H)
	DD	2 DUP(00H)
	DD	00H
	DD	05H
xdata$x	ENDS
;	COMDAT xdata$x
xdata$x	SEGMENT
__catchsym$?CreateMatchOption@CMatchOptionBuffer@@AAEPAUtagGameMatchOption@@XZ$2 DD 040H
	DD	00H
	DD	00H
	DD	FLAT:__catch$?CreateMatchOption@CMatchOptionBuffer@@AAEPAUtagGameMatchOption@@XZ$0
__unwindtable$?CreateMatchOption@CMatchOptionBuffer@@AAEPAUtagGameMatchOption@@XZ DD 0ffffffffH
	DD	00H
	DD	0ffffffffH
	DD	00H
__tryblocktable$?CreateMatchOption@CMatchOptionBuffer@@AAEPAUtagGameMatchOption@@XZ DD 00H
	DD	00H
	DD	01H
	DD	01H
	DD	FLAT:__catchsym$?CreateMatchOption@CMatchOptionBuffer@@AAEPAUtagGameMatchOption@@XZ$2
__ehfuncinfo$?CreateMatchOption@CMatchOptionBuffer@@AAEPAUtagGameMatchOption@@XZ DD 019930522H
	DD	02H
	DD	FLAT:__unwindtable$?CreateMatchOption@CMatchOptionBuffer@@AAEPAUtagGameMatchOption@@XZ
	DD	01H
	DD	FLAT:__tryblocktable$?CreateMatchOption@CMatchOptionBuffer@@AAEPAUtagGameMatchOption@@XZ
	DD	2 DUP(00H)
	DD	00H
	DD	01H
xdata$x	ENDS
;	COMDAT xdata$x
xdata$x	SEGMENT
__catchsym$??1CMatchOptionBuffer@@UAE@XZ$4 DD 040H
	DD	00H
	DD	00H
	DD	FLAT:__catch$??1CMatchOptionBuffer@@UAE@XZ$0
__tryblocktable$??1CMatchOptionBuffer@@UAE@XZ DD 02H
	DD	02H
	DD	03H
	DD	01H
	DD	FLAT:__catchsym$??1CMatchOptionBuffer@@UAE@XZ$4
__unwindtable$??1CMatchOptionBuffer@@UAE@XZ DD 0ffffffffH
	DD	FLAT:__unwindfunclet$??1CMatchOptionBuffer@@UAE@XZ$2
	DD	00H
	DD	FLAT:__unwindfunclet$??1CMatchOptionBuffer@@UAE@XZ$3
	DD	01H
	DD	00H
	DD	01H
	DD	00H
__ehfuncinfo$??1CMatchOptionBuffer@@UAE@XZ DD 019930522H
	DD	04H
	DD	FLAT:__unwindtable$??1CMatchOptionBuffer@@UAE@XZ
	DD	01H
	DD	FLAT:__tryblocktable$??1CMatchOptionBuffer@@UAE@XZ
	DD	2 DUP(00H)
	DD	00H
	DD	05H
xdata$x	ENDS
;	COMDAT xdata$x
xdata$x	SEGMENT
__unwindtable$??0CMatchOptionBuffer@@QAE@XZ DD 0ffffffffH
	DD	FLAT:__unwindfunclet$??0CMatchOptionBuffer@@QAE@XZ$0
__ehfuncinfo$??0CMatchOptionBuffer@@QAE@XZ DD 019930522H
	DD	01H
	DD	FLAT:__unwindtable$??0CMatchOptionBuffer@@QAE@XZ
	DD	2 DUP(00H)
	DD	2 DUP(00H)
	DD	00H
	DD	01H
xdata$x	ENDS
;	COMDAT xdata$x
xdata$x	SEGMENT
__ehfuncinfo$??_ECServerInfoBuffer@@UAEPAXI@Z DD 019930522H
	DD	00H
	DD	00H
	DD	2 DUP(00H)
	DD	2 DUP(00H)
	DD	00H
	DD	05H
xdata$x	ENDS
;	COMDAT xdata$x
xdata$x	SEGMENT
__catchsym$?CreateServerInfo@CServerInfoBuffer@@AAEPAUtagGameServerInfo@@XZ$2 DD 040H
	DD	00H
	DD	00H
	DD	FLAT:__catch$?CreateServerInfo@CServerInfoBuffer@@AAEPAUtagGameServerInfo@@XZ$0
__unwindtable$?CreateServerInfo@CServerInfoBuffer@@AAEPAUtagGameServerInfo@@XZ DD 0ffffffffH
	DD	00H
	DD	0ffffffffH
	DD	00H
__tryblocktable$?CreateServerInfo@CServerInfoBuffer@@AAEPAUtagGameServerInfo@@XZ DD 00H
	DD	00H
	DD	01H
	DD	01H
	DD	FLAT:__catchsym$?CreateServerInfo@CServerInfoBuffer@@AAEPAUtagGameServerInfo@@XZ$2
__ehfuncinfo$?CreateServerInfo@CServerInfoBuffer@@AAEPAUtagGameServerInfo@@XZ DD 019930522H
	DD	02H
	DD	FLAT:__unwindtable$?CreateServerInfo@CServerInfoBuffer@@AAEPAUtagGameServerInfo@@XZ
	DD	01H
	DD	FLAT:__tryblocktable$?CreateServerInfo@CServerInfoBuffer@@AAEPAUtagGameServerInfo@@XZ
	DD	2 DUP(00H)
	DD	00H
	DD	01H
xdata$x	ENDS
;	COMDAT xdata$x
xdata$x	SEGMENT
__catchsym$??1CServerInfoBuffer@@UAE@XZ$7 DD 040H
	DD	00H
	DD	00H
	DD	FLAT:__catch$??1CServerInfoBuffer@@UAE@XZ$2
__catchsym$??1CServerInfoBuffer@@UAE@XZ$6 DD 040H
	DD	00H
	DD	00H
	DD	FLAT:__catch$??1CServerInfoBuffer@@UAE@XZ$0
__ehfuncinfo$??1CServerInfoBuffer@@UAE@XZ DD 019930522H
	DD	06H
	DD	FLAT:__unwindtable$??1CServerInfoBuffer@@UAE@XZ
	DD	02H
	DD	FLAT:__tryblocktable$??1CServerInfoBuffer@@UAE@XZ
	DD	2 DUP(00H)
	DD	00H
	DD	05H
__tryblocktable$??1CServerInfoBuffer@@UAE@XZ DD 02H
	DD	02H
	DD	03H
	DD	01H
	DD	FLAT:__catchsym$??1CServerInfoBuffer@@UAE@XZ$6
	DD	04H
	DD	04H
	DD	05H
	DD	01H
	DD	FLAT:__catchsym$??1CServerInfoBuffer@@UAE@XZ$7
__unwindtable$??1CServerInfoBuffer@@UAE@XZ DD 0ffffffffH
	DD	FLAT:__unwindfunclet$??1CServerInfoBuffer@@UAE@XZ$4
	DD	00H
	DD	FLAT:__unwindfunclet$??1CServerInfoBuffer@@UAE@XZ$5
	DD	01H
	DD	00H
	DD	01H
	DD	00H
	DD	01H
	DD	00H
	DD	01H
	DD	00H
xdata$x	ENDS
;	COMDAT xdata$x
xdata$x	SEGMENT
__unwindtable$??0CServerInfoBuffer@@QAE@XZ DD 0ffffffffH
	DD	FLAT:__unwindfunclet$??0CServerInfoBuffer@@QAE@XZ$0
__ehfuncinfo$??0CServerInfoBuffer@@QAE@XZ DD 019930522H
	DD	01H
	DD	FLAT:__unwindtable$??0CServerInfoBuffer@@QAE@XZ
	DD	2 DUP(00H)
	DD	2 DUP(00H)
	DD	00H
	DD	01H
xdata$x	ENDS
;	COMDAT xdata$x
xdata$x	SEGMENT
__ehfuncinfo$??1?$CMap@GGPAUtagGameServerInfo@@PAU1@@@UAE@XZ DD 019930522H
	DD	00H
	DD	00H
	DD	2 DUP(00H)
	DD	2 DUP(00H)
	DD	00H
	DD	05H
xdata$x	ENDS
;	COMDAT xdata$x
xdata$x	SEGMENT
__unwindtable$??0?$CMap@GGPAUtagGameServerInfo@@PAU1@@@QAE@H@Z DD 0ffffffffH
	DD	FLAT:__unwindfunclet$??0?$CMap@GGPAUtagGameServerInfo@@PAU1@@@QAE@H@Z$0
__ehfuncinfo$??0?$CMap@GGPAUtagGameServerInfo@@PAU1@@@QAE@H@Z DD 019930522H
	DD	01H
	DD	FLAT:__unwindtable$??0?$CMap@GGPAUtagGameServerInfo@@PAU1@@@QAE@H@Z
	DD	2 DUP(00H)
	DD	2 DUP(00H)
	DD	00H
	DD	01H
xdata$x	ENDS
;	COMDAT xdata$x
xdata$x	SEGMENT
__ehfuncinfo$??_ECModuleDBParameter@@UAEPAXI@Z DD 019930522H
	DD	00H
	DD	00H
	DD	2 DUP(00H)
	DD	2 DUP(00H)
	DD	00H
	DD	05H
xdata$x	ENDS
;	COMDAT xdata$x
xdata$x	SEGMENT
__unwindtable$?CreateInstance@?$CTempldateHelper@UIDataBase@@@@QAE_NXZ DD 0ffffffffH
	DD	00H
	DD	0ffffffffH
	DD	00H
__tryblocktable$?CreateInstance@?$CTempldateHelper@UIDataBase@@@@QAE_NXZ DD 00H
	DD	00H
	DD	01H
	DD	02H
	DD	FLAT:__catchsym$?CreateInstance@?$CTempldateHelper@UIDataBase@@@@QAE_NXZ$3
__catchsym$?CreateInstance@?$CTempldateHelper@UIDataBase@@@@QAE_NXZ$3 DD 01H
	DD	FLAT:??_R0PAD@8
	DD	0ffffffe4H
	DD	FLAT:__catch$?CreateInstance@?$CTempldateHelper@UIDataBase@@@@QAE_NXZ$0
	DD	040H
	DD	00H
	DD	00H
	DD	FLAT:__catch$?CreateInstance@?$CTempldateHelper@UIDataBase@@@@QAE_NXZ$1
__ehfuncinfo$?CreateInstance@?$CTempldateHelper@UIDataBase@@@@QAE_NXZ DD 019930522H
	DD	02H
	DD	FLAT:__unwindtable$?CreateInstance@?$CTempldateHelper@UIDataBase@@@@QAE_NXZ
	DD	01H
	DD	FLAT:__tryblocktable$?CreateInstance@?$CTempldateHelper@UIDataBase@@@@QAE_NXZ
	DD	2 DUP(00H)
	DD	00H
	DD	01H
xdata$x	ENDS
;	COMDAT xdata$x
xdata$x	SEGMENT
__ehfuncinfo$??1?$CTempldateHelper@UIDataBase@@@@UAE@XZ DD 019930522H
	DD	00H
	DD	00H
	DD	2 DUP(00H)
	DD	2 DUP(00H)
	DD	00H
	DD	05H
xdata$x	ENDS
; Function compile flags: /Odtp /ZI
; File c:\program files (x86)\microsoft visual studio\2017\community\vc\tools\msvc\14.16.27023\atlmfc\include\afxtempl.h
;	COMDAT ??$DumpElements@PAUtagGameServerInfo@@@@YGXAAVCDumpContext@@PBQAUtagGameServerInfo@@H@Z
_TEXT	SEGMENT
tv66 = -72						; size = 4
___afx_condVal$1 = -4					; size = 4
_dc$ = 8						; size = 4
_pElements$ = 12					; size = 4
_nCount$ = 16						; size = 4
??$DumpElements@PAUtagGameServerInfo@@@@YGXAAVCDumpContext@@PBQAUtagGameServerInfo@@H@Z PROC ; DumpElements<tagGameServerInfo *>, COMDAT

; 137  : {

  00000	55		 push	 ebp
  00001	8b ec		 mov	 ebp, esp
  00003	83 ec 48	 sub	 esp, 72			; 00000048H
  00006	53		 push	 ebx
  00007	56		 push	 esi
  00008	57		 push	 edi
$LN4@DumpElemen:

; 138  : 	ENSURE(nCount == 0 || pElements != NULL);

  00009	83 7d 10 00	 cmp	 DWORD PTR _nCount$[ebp], 0
  0000d	74 0f		 je	 SHORT $LN7@DumpElemen
  0000f	83 7d 0c 00	 cmp	 DWORD PTR _pElements$[ebp], 0
  00013	75 09		 jne	 SHORT $LN7@DumpElemen
  00015	c7 45 b8 00 00
	00 00		 mov	 DWORD PTR tv66[ebp], 0
  0001c	eb 07		 jmp	 SHORT $LN8@DumpElemen
$LN7@DumpElemen:
  0001e	c7 45 b8 01 00
	00 00		 mov	 DWORD PTR tv66[ebp], 1
$LN8@DumpElemen:
  00025	8b 45 b8	 mov	 eax, DWORD PTR tv66[ebp]
  00028	89 45 fc	 mov	 DWORD PTR ___afx_condVal$1[ebp], eax
  0002b	83 7d fc 00	 cmp	 DWORD PTR ___afx_condVal$1[ebp], 0
  0002f	75 14		 jne	 SHORT $LN9@DumpElemen
  00031	68 8a 00 00 00	 push	 138			; 0000008aH
  00036	68 00 00 00 00	 push	 OFFSET ??_C@_0HC@HBCNBCLF@c?3?2program?5files?5?$CIx86?$CJ?2microsof@
  0003b	e8 00 00 00 00	 call	 ?AfxAssertFailedLine@@YGHPBDH@Z ; AfxAssertFailedLine
  00040	85 c0		 test	 eax, eax
  00042	74 01		 je	 SHORT $LN9@DumpElemen
  00044	cc		 int	 3
$LN9@DumpElemen:
  00045	83 7d fc 00	 cmp	 DWORD PTR ___afx_condVal$1[ebp], 0
  00049	75 05		 jne	 SHORT $LN2@DumpElemen
  0004b	e8 00 00 00 00	 call	 ?AfxThrowInvalidArgException@@YGXXZ ; AfxThrowInvalidArgException
$LN2@DumpElemen:
  00050	33 c0		 xor	 eax, eax
  00052	75 b5		 jne	 SHORT $LN4@DumpElemen

; 139  : 	ASSERT(nCount == 0 ||

  00054	83 7d 10 00	 cmp	 DWORD PTR _nCount$[ebp], 0
  00058	74 2a		 je	 SHORT $LN6@DumpElemen
  0005a	6a 00		 push	 0
  0005c	8b 45 10	 mov	 eax, DWORD PTR _nCount$[ebp]
  0005f	c1 e0 02	 shl	 eax, 2
  00062	50		 push	 eax
  00063	8b 4d 0c	 mov	 ecx, DWORD PTR _pElements$[ebp]
  00066	51		 push	 ecx
  00067	e8 00 00 00 00	 call	 ?AfxIsValidAddress@@YGHPBXIH@Z ; AfxIsValidAddress
  0006c	85 c0		 test	 eax, eax
  0006e	75 14		 jne	 SHORT $LN6@DumpElemen
  00070	68 8c 00 00 00	 push	 140			; 0000008cH
  00075	68 00 00 00 00	 push	 OFFSET ??_C@_0HC@HBCNBCLF@c?3?2program?5files?5?$CIx86?$CJ?2microsof@
  0007a	e8 00 00 00 00	 call	 ?AfxAssertFailedLine@@YGHPBDH@Z ; AfxAssertFailedLine
  0007f	85 c0		 test	 eax, eax
  00081	74 01		 je	 SHORT $LN6@DumpElemen
  00083	cc		 int	 3
$LN6@DumpElemen:

; 140  : 		AfxIsValidAddress(pElements, (size_t)nCount * sizeof(TYPE), FALSE));
; 141  : 	(dc); // not used
; 142  : 	(pElements);  // not used
; 143  : 	(nCount); // not used
; 144  : 
; 145  : 	// default does nothing
; 146  : }

  00084	5f		 pop	 edi
  00085	5e		 pop	 esi
  00086	5b		 pop	 ebx
  00087	8b e5		 mov	 esp, ebp
  00089	5d		 pop	 ebp
  0008a	c2 0c 00	 ret	 12			; 0000000cH
??$DumpElements@PAUtagGameServerInfo@@@@YGXAAVCDumpContext@@PBQAUtagGameServerInfo@@H@Z ENDP ; DumpElements<tagGameServerInfo *>
_TEXT	ENDS
; Function compile flags: /Odtp /ZI
; File c:\program files (x86)\microsoft visual studio\2017\community\vc\tools\msvc\14.16.27023\atlmfc\include\afxtempl.h
;	COMDAT ??$SerializeElements@PAUtagGameServerInfo@@@@YGXAAVCArchive@@PAPAUtagGameServerInfo@@H@Z
_TEXT	SEGMENT
tv134 = -96						; size = 4
tv92 = -96						; size = 4
tv66 = -96						; size = 4
_nElementsToRead$1 = -28				; size = 4
_nElementsLeft$2 = -24					; size = 4
_pData$3 = -20						; size = 4
_nElementsToWrite$4 = -16				; size = 4
_nElementsLeft$5 = -12					; size = 4
_pData$6 = -8						; size = 4
___afx_condVal$7 = -4					; size = 4
_ar$ = 8						; size = 4
_pElements$ = 12					; size = 4
_nCount$ = 16						; size = 4
??$SerializeElements@PAUtagGameServerInfo@@@@YGXAAVCArchive@@PAPAUtagGameServerInfo@@H@Z PROC ; SerializeElements<tagGameServerInfo *>, COMDAT

; 67   : {

  00000	55		 push	 ebp
  00001	8b ec		 mov	 ebp, esp
  00003	83 ec 60	 sub	 esp, 96			; 00000060H
  00006	53		 push	 ebx
  00007	56		 push	 esi
  00008	57		 push	 edi
$LN4@SerializeE:

; 68   : 	ENSURE(nCount == 0 || pElements != NULL);

  00009	83 7d 10 00	 cmp	 DWORD PTR _nCount$[ebp], 0
  0000d	74 0f		 je	 SHORT $LN13@SerializeE
  0000f	83 7d 0c 00	 cmp	 DWORD PTR _pElements$[ebp], 0
  00013	75 09		 jne	 SHORT $LN13@SerializeE
  00015	c7 45 a0 00 00
	00 00		 mov	 DWORD PTR tv66[ebp], 0
  0001c	eb 07		 jmp	 SHORT $LN14@SerializeE
$LN13@SerializeE:
  0001e	c7 45 a0 01 00
	00 00		 mov	 DWORD PTR tv66[ebp], 1
$LN14@SerializeE:
  00025	8b 45 a0	 mov	 eax, DWORD PTR tv66[ebp]
  00028	89 45 fc	 mov	 DWORD PTR ___afx_condVal$7[ebp], eax
  0002b	83 7d fc 00	 cmp	 DWORD PTR ___afx_condVal$7[ebp], 0
  0002f	75 11		 jne	 SHORT $LN15@SerializeE
  00031	6a 44		 push	 68			; 00000044H
  00033	68 00 00 00 00	 push	 OFFSET ??_C@_0HC@HBCNBCLF@c?3?2program?5files?5?$CIx86?$CJ?2microsof@
  00038	e8 00 00 00 00	 call	 ?AfxAssertFailedLine@@YGHPBDH@Z ; AfxAssertFailedLine
  0003d	85 c0		 test	 eax, eax
  0003f	74 01		 je	 SHORT $LN15@SerializeE
  00041	cc		 int	 3
$LN15@SerializeE:
  00042	83 7d fc 00	 cmp	 DWORD PTR ___afx_condVal$7[ebp], 0
  00046	75 05		 jne	 SHORT $LN2@SerializeE
  00048	e8 00 00 00 00	 call	 ?AfxThrowInvalidArgException@@YGXXZ ; AfxThrowInvalidArgException
$LN2@SerializeE:
  0004d	33 c0		 xor	 eax, eax
  0004f	75 b8		 jne	 SHORT $LN4@SerializeE

; 69   : 	ASSERT(nCount == 0 ||

  00051	83 7d 10 00	 cmp	 DWORD PTR _nCount$[ebp], 0
  00055	74 27		 je	 SHORT $LN16@SerializeE
  00057	6a 01		 push	 1
  00059	8b 45 10	 mov	 eax, DWORD PTR _nCount$[ebp]
  0005c	c1 e0 02	 shl	 eax, 2
  0005f	50		 push	 eax
  00060	8b 4d 0c	 mov	 ecx, DWORD PTR _pElements$[ebp]
  00063	51		 push	 ecx
  00064	e8 00 00 00 00	 call	 ?AfxIsValidAddress@@YGHPBXIH@Z ; AfxIsValidAddress
  00069	85 c0		 test	 eax, eax
  0006b	75 11		 jne	 SHORT $LN16@SerializeE
  0006d	6a 46		 push	 70			; 00000046H
  0006f	68 00 00 00 00	 push	 OFFSET ??_C@_0HC@HBCNBCLF@c?3?2program?5files?5?$CIx86?$CJ?2microsof@
  00074	e8 00 00 00 00	 call	 ?AfxAssertFailedLine@@YGHPBDH@Z ; AfxAssertFailedLine
  00079	85 c0		 test	 eax, eax
  0007b	74 01		 je	 SHORT $LN16@SerializeE
  0007d	cc		 int	 3
$LN16@SerializeE:

; 70   : 		AfxIsValidAddress(pElements, (size_t)nCount * sizeof(TYPE)));
; 71   : 
; 72   : 	// default is bit-wise read/write
; 73   : 	if (ar.IsStoring())

  0007e	8b 4d 08	 mov	 ecx, DWORD PTR _ar$[ebp]
  00081	e8 00 00 00 00	 call	 ?IsStoring@CArchive@@QBEHXZ ; CArchive::IsStoring
  00086	85 c0		 test	 eax, eax
  00088	74 5c		 je	 SHORT $LN10@SerializeE

; 74   : 	{
; 75   : 		TYPE* pData;
; 76   : 		UINT_PTR nElementsLeft;
; 77   : 
; 78   : 		nElementsLeft = nCount;

  0008a	8b 45 10	 mov	 eax, DWORD PTR _nCount$[ebp]
  0008d	89 45 f4	 mov	 DWORD PTR _nElementsLeft$5[ebp], eax

; 79   : 		pData = pElements;

  00090	8b 45 0c	 mov	 eax, DWORD PTR _pElements$[ebp]
  00093	89 45 f8	 mov	 DWORD PTR _pData$6[ebp], eax
$LN5@SerializeE:

; 80   : 		while( nElementsLeft > 0 )

  00096	83 7d f4 00	 cmp	 DWORD PTR _nElementsLeft$5[ebp], 0
  0009a	76 48		 jbe	 SHORT $LN6@SerializeE

; 81   : 		{
; 82   : 			UINT nElementsToWrite;
; 83   : 
; 84   : 			nElementsToWrite = UINT(__min(nElementsLeft, INT_MAX/sizeof(TYPE)));

  0009c	81 7d f4 ff ff
	ff 1f		 cmp	 DWORD PTR _nElementsLeft$5[ebp], 536870911 ; 1fffffffH
  000a3	73 08		 jae	 SHORT $LN17@SerializeE
  000a5	8b 45 f4	 mov	 eax, DWORD PTR _nElementsLeft$5[ebp]
  000a8	89 45 a0	 mov	 DWORD PTR tv92[ebp], eax
  000ab	eb 07		 jmp	 SHORT $LN18@SerializeE
$LN17@SerializeE:
  000ad	c7 45 a0 ff ff
	ff 1f		 mov	 DWORD PTR tv92[ebp], 536870911 ; 1fffffffH
$LN18@SerializeE:
  000b4	8b 4d a0	 mov	 ecx, DWORD PTR tv92[ebp]
  000b7	89 4d f0	 mov	 DWORD PTR _nElementsToWrite$4[ebp], ecx

; 85   : 			ar.Write(pData, nElementsToWrite*sizeof(TYPE));

  000ba	8b 45 f0	 mov	 eax, DWORD PTR _nElementsToWrite$4[ebp]
  000bd	c1 e0 02	 shl	 eax, 2
  000c0	50		 push	 eax
  000c1	8b 4d f8	 mov	 ecx, DWORD PTR _pData$6[ebp]
  000c4	51		 push	 ecx
  000c5	8b 4d 08	 mov	 ecx, DWORD PTR _ar$[ebp]
  000c8	e8 00 00 00 00	 call	 ?Write@CArchive@@QAEXPBXI@Z ; CArchive::Write

; 86   : 			nElementsLeft -= nElementsToWrite;

  000cd	8b 45 f4	 mov	 eax, DWORD PTR _nElementsLeft$5[ebp]
  000d0	2b 45 f0	 sub	 eax, DWORD PTR _nElementsToWrite$4[ebp]
  000d3	89 45 f4	 mov	 DWORD PTR _nElementsLeft$5[ebp], eax

; 87   : 			pData += nElementsToWrite;

  000d6	8b 45 f0	 mov	 eax, DWORD PTR _nElementsToWrite$4[ebp]
  000d9	8b 4d f8	 mov	 ecx, DWORD PTR _pData$6[ebp]
  000dc	8d 14 81	 lea	 edx, DWORD PTR [ecx+eax*4]
  000df	89 55 f8	 mov	 DWORD PTR _pData$6[ebp], edx

; 88   : 		}

  000e2	eb b2		 jmp	 SHORT $LN5@SerializeE
$LN6@SerializeE:

; 89   : 	}
; 90   : 	else

  000e4	eb 5a		 jmp	 SHORT $LN12@SerializeE
$LN10@SerializeE:

; 91   : 	{
; 92   : 		TYPE* pData;
; 93   : 		UINT_PTR nElementsLeft;
; 94   : 
; 95   : 		nElementsLeft = nCount;

  000e6	8b 45 10	 mov	 eax, DWORD PTR _nCount$[ebp]
  000e9	89 45 e8	 mov	 DWORD PTR _nElementsLeft$2[ebp], eax

; 96   : 		pData = pElements;

  000ec	8b 45 0c	 mov	 eax, DWORD PTR _pElements$[ebp]
  000ef	89 45 ec	 mov	 DWORD PTR _pData$3[ebp], eax
$LN7@SerializeE:

; 97   : 		while( nElementsLeft > 0 )

  000f2	83 7d e8 00	 cmp	 DWORD PTR _nElementsLeft$2[ebp], 0
  000f6	76 48		 jbe	 SHORT $LN12@SerializeE

; 98   : 		{
; 99   : 			UINT nElementsToRead;
; 100  : 
; 101  : 			nElementsToRead = UINT(__min(nElementsLeft, INT_MAX/sizeof(TYPE)));

  000f8	81 7d e8 ff ff
	ff 1f		 cmp	 DWORD PTR _nElementsLeft$2[ebp], 536870911 ; 1fffffffH
  000ff	73 08		 jae	 SHORT $LN19@SerializeE
  00101	8b 45 e8	 mov	 eax, DWORD PTR _nElementsLeft$2[ebp]
  00104	89 45 a0	 mov	 DWORD PTR tv134[ebp], eax
  00107	eb 07		 jmp	 SHORT $LN20@SerializeE
$LN19@SerializeE:
  00109	c7 45 a0 ff ff
	ff 1f		 mov	 DWORD PTR tv134[ebp], 536870911 ; 1fffffffH
$LN20@SerializeE:
  00110	8b 4d a0	 mov	 ecx, DWORD PTR tv134[ebp]
  00113	89 4d e4	 mov	 DWORD PTR _nElementsToRead$1[ebp], ecx

; 102  : 			ar.EnsureRead(pData, nElementsToRead*sizeof(TYPE));

  00116	8b 45 e4	 mov	 eax, DWORD PTR _nElementsToRead$1[ebp]
  00119	c1 e0 02	 shl	 eax, 2
  0011c	50		 push	 eax
  0011d	8b 4d ec	 mov	 ecx, DWORD PTR _pData$3[ebp]
  00120	51		 push	 ecx
  00121	8b 4d 08	 mov	 ecx, DWORD PTR _ar$[ebp]
  00124	e8 00 00 00 00	 call	 ?EnsureRead@CArchive@@QAEXPAXI@Z ; CArchive::EnsureRead

; 103  : 			nElementsLeft -= nElementsToRead;

  00129	8b 45 e8	 mov	 eax, DWORD PTR _nElementsLeft$2[ebp]
  0012c	2b 45 e4	 sub	 eax, DWORD PTR _nElementsToRead$1[ebp]
  0012f	89 45 e8	 mov	 DWORD PTR _nElementsLeft$2[ebp], eax

; 104  : 			pData += nElementsToRead;

  00132	8b 45 e4	 mov	 eax, DWORD PTR _nElementsToRead$1[ebp]
  00135	8b 4d ec	 mov	 ecx, DWORD PTR _pData$3[ebp]
  00138	8d 14 81	 lea	 edx, DWORD PTR [ecx+eax*4]
  0013b	89 55 ec	 mov	 DWORD PTR _pData$3[ebp], edx

; 105  : 		}

  0013e	eb b2		 jmp	 SHORT $LN7@SerializeE
$LN12@SerializeE:

; 106  : 	}
; 107  : }

  00140	5f		 pop	 edi
  00141	5e		 pop	 esi
  00142	5b		 pop	 ebx
  00143	8b e5		 mov	 esp, ebp
  00145	5d		 pop	 ebp
  00146	c2 0c 00	 ret	 12			; 0000000cH
??$SerializeElements@PAUtagGameServerInfo@@@@YGXAAVCArchive@@PAPAUtagGameServerInfo@@H@Z ENDP ; SerializeElements<tagGameServerInfo *>
_TEXT	ENDS
; Function compile flags: /Odtp /ZI
; File c:\program files (x86)\microsoft visual studio\2017\community\vc\tools\msvc\14.16.27023\atlmfc\include\afxtempl.h
;	COMDAT ??$CompareElements@GG@@YGHPBG0@Z
_TEXT	SEGMENT
tv130 = -72						; size = 4
tv66 = -72						; size = 4
___afx_condVal$1 = -4					; size = 4
_pElement1$ = 8						; size = 4
_pElement2$ = 12					; size = 4
??$CompareElements@GG@@YGHPBG0@Z PROC			; CompareElements<unsigned short,unsigned short>, COMDAT

; 151  : {

  00000	55		 push	 ebp
  00001	8b ec		 mov	 ebp, esp
  00003	83 ec 48	 sub	 esp, 72			; 00000048H
  00006	53		 push	 ebx
  00007	56		 push	 esi
  00008	57		 push	 edi
$LN4@CompareEle:

; 152  : 	ENSURE(pElement1 != NULL && pElement2 != NULL);

  00009	83 7d 08 00	 cmp	 DWORD PTR _pElement1$[ebp], 0
  0000d	74 0f		 je	 SHORT $LN7@CompareEle
  0000f	83 7d 0c 00	 cmp	 DWORD PTR _pElement2$[ebp], 0
  00013	74 09		 je	 SHORT $LN7@CompareEle
  00015	c7 45 b8 01 00
	00 00		 mov	 DWORD PTR tv66[ebp], 1
  0001c	eb 07		 jmp	 SHORT $LN8@CompareEle
$LN7@CompareEle:
  0001e	c7 45 b8 00 00
	00 00		 mov	 DWORD PTR tv66[ebp], 0
$LN8@CompareEle:
  00025	8b 45 b8	 mov	 eax, DWORD PTR tv66[ebp]
  00028	89 45 fc	 mov	 DWORD PTR ___afx_condVal$1[ebp], eax
  0002b	83 7d fc 00	 cmp	 DWORD PTR ___afx_condVal$1[ebp], 0
  0002f	75 14		 jne	 SHORT $LN9@CompareEle
  00031	68 98 00 00 00	 push	 152			; 00000098H
  00036	68 00 00 00 00	 push	 OFFSET ??_C@_0HC@HBCNBCLF@c?3?2program?5files?5?$CIx86?$CJ?2microsof@
  0003b	e8 00 00 00 00	 call	 ?AfxAssertFailedLine@@YGHPBDH@Z ; AfxAssertFailedLine
  00040	85 c0		 test	 eax, eax
  00042	74 01		 je	 SHORT $LN9@CompareEle
  00044	cc		 int	 3
$LN9@CompareEle:
  00045	83 7d fc 00	 cmp	 DWORD PTR ___afx_condVal$1[ebp], 0
  00049	75 05		 jne	 SHORT $LN2@CompareEle
  0004b	e8 00 00 00 00	 call	 ?AfxThrowInvalidArgException@@YGXXZ ; AfxThrowInvalidArgException
$LN2@CompareEle:
  00050	33 c0		 xor	 eax, eax
  00052	75 b5		 jne	 SHORT $LN4@CompareEle

; 153  : 	ASSERT(AfxIsValidAddress(pElement1, sizeof(TYPE), FALSE));

  00054	6a 00		 push	 0
  00056	6a 02		 push	 2
  00058	8b 45 08	 mov	 eax, DWORD PTR _pElement1$[ebp]
  0005b	50		 push	 eax
  0005c	e8 00 00 00 00	 call	 ?AfxIsValidAddress@@YGHPBXIH@Z ; AfxIsValidAddress
  00061	85 c0		 test	 eax, eax
  00063	75 14		 jne	 SHORT $LN10@CompareEle
  00065	68 99 00 00 00	 push	 153			; 00000099H
  0006a	68 00 00 00 00	 push	 OFFSET ??_C@_0HC@HBCNBCLF@c?3?2program?5files?5?$CIx86?$CJ?2microsof@
  0006f	e8 00 00 00 00	 call	 ?AfxAssertFailedLine@@YGHPBDH@Z ; AfxAssertFailedLine
  00074	85 c0		 test	 eax, eax
  00076	74 01		 je	 SHORT $LN10@CompareEle
  00078	cc		 int	 3
$LN10@CompareEle:

; 154  : 	ASSERT(AfxIsValidAddress(pElement2, sizeof(ARG_TYPE), FALSE));

  00079	6a 00		 push	 0
  0007b	6a 02		 push	 2
  0007d	8b 45 0c	 mov	 eax, DWORD PTR _pElement2$[ebp]
  00080	50		 push	 eax
  00081	e8 00 00 00 00	 call	 ?AfxIsValidAddress@@YGHPBXIH@Z ; AfxIsValidAddress
  00086	85 c0		 test	 eax, eax
  00088	75 14		 jne	 SHORT $LN11@CompareEle
  0008a	68 9a 00 00 00	 push	 154			; 0000009aH
  0008f	68 00 00 00 00	 push	 OFFSET ??_C@_0HC@HBCNBCLF@c?3?2program?5files?5?$CIx86?$CJ?2microsof@
  00094	e8 00 00 00 00	 call	 ?AfxAssertFailedLine@@YGHPBDH@Z ; AfxAssertFailedLine
  00099	85 c0		 test	 eax, eax
  0009b	74 01		 je	 SHORT $LN11@CompareEle
  0009d	cc		 int	 3
$LN11@CompareEle:

; 155  : 
; 156  : 	return *pElement1 == *pElement2;

  0009e	8b 45 08	 mov	 eax, DWORD PTR _pElement1$[ebp]
  000a1	0f b7 08	 movzx	 ecx, WORD PTR [eax]
  000a4	8b 55 0c	 mov	 edx, DWORD PTR _pElement2$[ebp]
  000a7	0f b7 02	 movzx	 eax, WORD PTR [edx]
  000aa	3b c8		 cmp	 ecx, eax
  000ac	75 09		 jne	 SHORT $LN12@CompareEle
  000ae	c7 45 b8 01 00
	00 00		 mov	 DWORD PTR tv130[ebp], 1
  000b5	eb 07		 jmp	 SHORT $LN13@CompareEle
$LN12@CompareEle:
  000b7	c7 45 b8 00 00
	00 00		 mov	 DWORD PTR tv130[ebp], 0
$LN13@CompareEle:
  000be	8b 45 b8	 mov	 eax, DWORD PTR tv130[ebp]
$LN6@CompareEle:

; 157  : }

  000c1	5f		 pop	 edi
  000c2	5e		 pop	 esi
  000c3	5b		 pop	 ebx
  000c4	8b e5		 mov	 esp, ebp
  000c6	5d		 pop	 ebp
  000c7	c2 08 00	 ret	 8
??$CompareElements@GG@@YGHPBG0@Z ENDP			; CompareElements<unsigned short,unsigned short>
_TEXT	ENDS
; Function compile flags: /Odtp /ZI
; File c:\program files (x86)\microsoft visual studio\2017\community\vc\tools\msvc\14.16.27023\atlmfc\include\afxtempl.h
;	COMDAT ??$HashKey@G@@YGIG@Z
_TEXT	SEGMENT
$T1 = -80						; size = 8
_HashVal$ = -8						; size = 8
_key$ = 8						; size = 2
??$HashKey@G@@YGIG@Z PROC				; HashKey<unsigned short>, COMDAT

; 161  : {

  00000	55		 push	 ebp
  00001	8b ec		 mov	 ebp, esp
  00003	83 ec 50	 sub	 esp, 80			; 00000050H
  00006	53		 push	 ebx
  00007	56		 push	 esi
  00008	57		 push	 edi

; 162  : 	// (algorithm copied from STL hash in xfunctional)
; 163  : #pragma warning(suppress: 4302) // 'type cast' : truncation
; 164  : #pragma warning(suppress: 4311) // pointer truncation
; 165  : 	ldiv_t HashVal = ldiv((long)(ARG_KEY)key, 127773);

  00009	68 1d f3 01 00	 push	 127773			; 0001f31dH
  0000e	0f b7 45 08	 movzx	 eax, WORD PTR _key$[ebp]
  00012	50		 push	 eax
  00013	ff 15 00 00 00
	00		 call	 DWORD PTR __imp__ldiv
  00019	83 c4 08	 add	 esp, 8
  0001c	89 45 b0	 mov	 DWORD PTR $T1[ebp], eax
  0001f	89 55 b4	 mov	 DWORD PTR $T1[ebp+4], edx
  00022	8b 4d b0	 mov	 ecx, DWORD PTR $T1[ebp]
  00025	89 4d f8	 mov	 DWORD PTR _HashVal$[ebp], ecx
  00028	8b 55 b4	 mov	 edx, DWORD PTR $T1[ebp+4]
  0002b	89 55 fc	 mov	 DWORD PTR _HashVal$[ebp+4], edx

; 166  : 	HashVal.rem = 16807 * HashVal.rem - 2836 * HashVal.quot;

  0002e	69 45 fc a7 41
	00 00		 imul	 eax, DWORD PTR _HashVal$[ebp+4], 16807
  00035	69 4d f8 14 0b
	00 00		 imul	 ecx, DWORD PTR _HashVal$[ebp], 2836
  0003c	2b c1		 sub	 eax, ecx
  0003e	89 45 fc	 mov	 DWORD PTR _HashVal$[ebp+4], eax

; 167  : 	if (HashVal.rem < 0)

  00041	79 0b		 jns	 SHORT $LN2@HashKey

; 168  : 		HashVal.rem += 2147483647;

  00043	8b 45 fc	 mov	 eax, DWORD PTR _HashVal$[ebp+4]
  00046	05 ff ff ff 7f	 add	 eax, 2147483647		; 7fffffffH
  0004b	89 45 fc	 mov	 DWORD PTR _HashVal$[ebp+4], eax
$LN2@HashKey:

; 169  : 	return ((UINT)HashVal.rem);

  0004e	8b 45 fc	 mov	 eax, DWORD PTR _HashVal$[ebp+4]

; 170  : }

  00051	5f		 pop	 edi
  00052	5e		 pop	 esi
  00053	5b		 pop	 ebx
  00054	8b e5		 mov	 esp, ebp
  00056	5d		 pop	 ebp
  00057	c2 04 00	 ret	 4
??$HashKey@G@@YGIG@Z ENDP				; HashKey<unsigned short>
_TEXT	ENDS
; Function compile flags: /Odtp /ZI
; File c:\program files (x86)\microsoft visual studio\2017\community\vc\tools\msvc\14.16.27023\atlmfc\include\afxtempl.h
;	COMDAT ??0CAssoc@?$CMap@GGPAUtagGameServerInfo@@PAU1@@@QAE@G@Z
_TEXT	SEGMENT
_this$ = -4						; size = 4
_key$ = 8						; size = 2
??0CAssoc@?$CMap@GGPAUtagGameServerInfo@@PAU1@@@QAE@G@Z PROC ; CMap<unsigned short,unsigned short,tagGameServerInfo *,tagGameServerInfo *>::CAssoc::CAssoc, COMDAT
; _this$ = ecx

; 1267 : 		CAssoc( ARG_KEY key ) : CPair( key ) {}

  00000	55		 push	 ebp
  00001	8b ec		 mov	 ebp, esp
  00003	83 ec 44	 sub	 esp, 68			; 00000044H
  00006	53		 push	 ebx
  00007	56		 push	 esi
  00008	57		 push	 edi
  00009	89 4d fc	 mov	 DWORD PTR _this$[ebp], ecx
  0000c	0f b7 45 08	 movzx	 eax, WORD PTR _key$[ebp]
  00010	50		 push	 eax
  00011	8b 4d fc	 mov	 ecx, DWORD PTR _this$[ebp]
  00014	e8 00 00 00 00	 call	 ??0CPair@?$CMap@GGPAUtagGameServerInfo@@PAU1@@@IAE@G@Z ; CMap<unsigned short,unsigned short,tagGameServerInfo *,tagGameServerInfo *>::CPair::CPair
  00019	8b 45 fc	 mov	 eax, DWORD PTR _this$[ebp]
  0001c	5f		 pop	 edi
  0001d	5e		 pop	 esi
  0001e	5b		 pop	 ebx
  0001f	8b e5		 mov	 esp, ebp
  00021	5d		 pop	 ebp
  00022	c2 04 00	 ret	 4
??0CAssoc@?$CMap@GGPAUtagGameServerInfo@@PAU1@@@QAE@G@Z ENDP ; CMap<unsigned short,unsigned short,tagGameServerInfo *,tagGameServerInfo *>::CAssoc::CAssoc
_TEXT	ENDS
; Function compile flags: /Odtp /ZI
; File c:\program files (x86)\microsoft visual studio\2017\community\vc\tools\msvc\14.16.27023\atlmfc\include\afxtempl.h
;	COMDAT ??0CPair@?$CMap@GGPAUtagGameServerInfo@@PAU1@@@IAE@G@Z
_TEXT	SEGMENT
_this$ = -4						; size = 4
_keyval$ = 8						; size = 2
??0CPair@?$CMap@GGPAUtagGameServerInfo@@PAU1@@@IAE@G@Z PROC ; CMap<unsigned short,unsigned short,tagGameServerInfo *,tagGameServerInfo *>::CPair::CPair, COMDAT
; _this$ = ecx

; 1256 : 		CPair( ARG_KEY keyval ) : key( keyval )	{}

  00000	55		 push	 ebp
  00001	8b ec		 mov	 ebp, esp
  00003	83 ec 44	 sub	 esp, 68			; 00000044H
  00006	53		 push	 ebx
  00007	56		 push	 esi
  00008	57		 push	 edi
  00009	89 4d fc	 mov	 DWORD PTR _this$[ebp], ecx
  0000c	8b 45 fc	 mov	 eax, DWORD PTR _this$[ebp]
  0000f	66 8b 4d 08	 mov	 cx, WORD PTR _keyval$[ebp]
  00013	66 89 08	 mov	 WORD PTR [eax], cx
  00016	8b 45 fc	 mov	 eax, DWORD PTR _this$[ebp]
  00019	5f		 pop	 edi
  0001a	5e		 pop	 esi
  0001b	5b		 pop	 ebx
  0001c	8b e5		 mov	 esp, ebp
  0001e	5d		 pop	 ebp
  0001f	c2 04 00	 ret	 4
??0CPair@?$CMap@GGPAUtagGameServerInfo@@PAU1@@@IAE@G@Z ENDP ; CMap<unsigned short,unsigned short,tagGameServerInfo *,tagGameServerInfo *>::CPair::CPair
_TEXT	ENDS
; Function compile flags: /Odtp /ZI
; File c:\program files (x86)\microsoft visual studio\2017\community\vc\tools\msvc\14.16.27023\atlmfc\include\afxtempl.h
;	COMDAT ??$DumpElements@G@@YGXAAVCDumpContext@@PBGH@Z
_TEXT	SEGMENT
tv66 = -72						; size = 4
___afx_condVal$1 = -4					; size = 4
_dc$ = 8						; size = 4
_pElements$ = 12					; size = 4
_nCount$ = 16						; size = 4
??$DumpElements@G@@YGXAAVCDumpContext@@PBGH@Z PROC	; DumpElements<unsigned short>, COMDAT

; 137  : {

  00000	55		 push	 ebp
  00001	8b ec		 mov	 ebp, esp
  00003	83 ec 48	 sub	 esp, 72			; 00000048H
  00006	53		 push	 ebx
  00007	56		 push	 esi
  00008	57		 push	 edi
$LN4@DumpElemen:

; 138  : 	ENSURE(nCount == 0 || pElements != NULL);

  00009	83 7d 10 00	 cmp	 DWORD PTR _nCount$[ebp], 0
  0000d	74 0f		 je	 SHORT $LN7@DumpElemen
  0000f	83 7d 0c 00	 cmp	 DWORD PTR _pElements$[ebp], 0
  00013	75 09		 jne	 SHORT $LN7@DumpElemen
  00015	c7 45 b8 00 00
	00 00		 mov	 DWORD PTR tv66[ebp], 0
  0001c	eb 07		 jmp	 SHORT $LN8@DumpElemen
$LN7@DumpElemen:
  0001e	c7 45 b8 01 00
	00 00		 mov	 DWORD PTR tv66[ebp], 1
$LN8@DumpElemen:
  00025	8b 45 b8	 mov	 eax, DWORD PTR tv66[ebp]
  00028	89 45 fc	 mov	 DWORD PTR ___afx_condVal$1[ebp], eax
  0002b	83 7d fc 00	 cmp	 DWORD PTR ___afx_condVal$1[ebp], 0
  0002f	75 14		 jne	 SHORT $LN9@DumpElemen
  00031	68 8a 00 00 00	 push	 138			; 0000008aH
  00036	68 00 00 00 00	 push	 OFFSET ??_C@_0HC@HBCNBCLF@c?3?2program?5files?5?$CIx86?$CJ?2microsof@
  0003b	e8 00 00 00 00	 call	 ?AfxAssertFailedLine@@YGHPBDH@Z ; AfxAssertFailedLine
  00040	85 c0		 test	 eax, eax
  00042	74 01		 je	 SHORT $LN9@DumpElemen
  00044	cc		 int	 3
$LN9@DumpElemen:
  00045	83 7d fc 00	 cmp	 DWORD PTR ___afx_condVal$1[ebp], 0
  00049	75 05		 jne	 SHORT $LN2@DumpElemen
  0004b	e8 00 00 00 00	 call	 ?AfxThrowInvalidArgException@@YGXXZ ; AfxThrowInvalidArgException
$LN2@DumpElemen:
  00050	33 c0		 xor	 eax, eax
  00052	75 b5		 jne	 SHORT $LN4@DumpElemen

; 139  : 	ASSERT(nCount == 0 ||

  00054	83 7d 10 00	 cmp	 DWORD PTR _nCount$[ebp], 0
  00058	74 29		 je	 SHORT $LN6@DumpElemen
  0005a	6a 00		 push	 0
  0005c	8b 45 10	 mov	 eax, DWORD PTR _nCount$[ebp]
  0005f	d1 e0		 shl	 eax, 1
  00061	50		 push	 eax
  00062	8b 4d 0c	 mov	 ecx, DWORD PTR _pElements$[ebp]
  00065	51		 push	 ecx
  00066	e8 00 00 00 00	 call	 ?AfxIsValidAddress@@YGHPBXIH@Z ; AfxIsValidAddress
  0006b	85 c0		 test	 eax, eax
  0006d	75 14		 jne	 SHORT $LN6@DumpElemen
  0006f	68 8c 00 00 00	 push	 140			; 0000008cH
  00074	68 00 00 00 00	 push	 OFFSET ??_C@_0HC@HBCNBCLF@c?3?2program?5files?5?$CIx86?$CJ?2microsof@
  00079	e8 00 00 00 00	 call	 ?AfxAssertFailedLine@@YGHPBDH@Z ; AfxAssertFailedLine
  0007e	85 c0		 test	 eax, eax
  00080	74 01		 je	 SHORT $LN6@DumpElemen
  00082	cc		 int	 3
$LN6@DumpElemen:

; 140  : 		AfxIsValidAddress(pElements, (size_t)nCount * sizeof(TYPE), FALSE));
; 141  : 	(dc); // not used
; 142  : 	(pElements);  // not used
; 143  : 	(nCount); // not used
; 144  : 
; 145  : 	// default does nothing
; 146  : }

  00083	5f		 pop	 edi
  00084	5e		 pop	 esi
  00085	5b		 pop	 ebx
  00086	8b e5		 mov	 esp, ebp
  00088	5d		 pop	 ebp
  00089	c2 0c 00	 ret	 12			; 0000000cH
??$DumpElements@G@@YGXAAVCDumpContext@@PBGH@Z ENDP	; DumpElements<unsigned short>
_TEXT	ENDS
; Function compile flags: /Odtp /ZI
; File c:\program files (x86)\microsoft visual studio\2017\community\vc\tools\msvc\14.16.27023\atlmfc\include\afxtempl.h
;	COMDAT ??$SerializeElements@G@@YGXAAVCArchive@@PAGH@Z
_TEXT	SEGMENT
tv134 = -96						; size = 4
tv92 = -96						; size = 4
tv66 = -96						; size = 4
_nElementsToRead$1 = -28				; size = 4
_nElementsLeft$2 = -24					; size = 4
_pData$3 = -20						; size = 4
_nElementsToWrite$4 = -16				; size = 4
_nElementsLeft$5 = -12					; size = 4
_pData$6 = -8						; size = 4
___afx_condVal$7 = -4					; size = 4
_ar$ = 8						; size = 4
_pElements$ = 12					; size = 4
_nCount$ = 16						; size = 4
??$SerializeElements@G@@YGXAAVCArchive@@PAGH@Z PROC	; SerializeElements<unsigned short>, COMDAT

; 67   : {

  00000	55		 push	 ebp
  00001	8b ec		 mov	 ebp, esp
  00003	83 ec 60	 sub	 esp, 96			; 00000060H
  00006	53		 push	 ebx
  00007	56		 push	 esi
  00008	57		 push	 edi
$LN4@SerializeE:

; 68   : 	ENSURE(nCount == 0 || pElements != NULL);

  00009	83 7d 10 00	 cmp	 DWORD PTR _nCount$[ebp], 0
  0000d	74 0f		 je	 SHORT $LN13@SerializeE
  0000f	83 7d 0c 00	 cmp	 DWORD PTR _pElements$[ebp], 0
  00013	75 09		 jne	 SHORT $LN13@SerializeE
  00015	c7 45 a0 00 00
	00 00		 mov	 DWORD PTR tv66[ebp], 0
  0001c	eb 07		 jmp	 SHORT $LN14@SerializeE
$LN13@SerializeE:
  0001e	c7 45 a0 01 00
	00 00		 mov	 DWORD PTR tv66[ebp], 1
$LN14@SerializeE:
  00025	8b 45 a0	 mov	 eax, DWORD PTR tv66[ebp]
  00028	89 45 fc	 mov	 DWORD PTR ___afx_condVal$7[ebp], eax
  0002b	83 7d fc 00	 cmp	 DWORD PTR ___afx_condVal$7[ebp], 0
  0002f	75 11		 jne	 SHORT $LN15@SerializeE
  00031	6a 44		 push	 68			; 00000044H
  00033	68 00 00 00 00	 push	 OFFSET ??_C@_0HC@HBCNBCLF@c?3?2program?5files?5?$CIx86?$CJ?2microsof@
  00038	e8 00 00 00 00	 call	 ?AfxAssertFailedLine@@YGHPBDH@Z ; AfxAssertFailedLine
  0003d	85 c0		 test	 eax, eax
  0003f	74 01		 je	 SHORT $LN15@SerializeE
  00041	cc		 int	 3
$LN15@SerializeE:
  00042	83 7d fc 00	 cmp	 DWORD PTR ___afx_condVal$7[ebp], 0
  00046	75 05		 jne	 SHORT $LN2@SerializeE
  00048	e8 00 00 00 00	 call	 ?AfxThrowInvalidArgException@@YGXXZ ; AfxThrowInvalidArgException
$LN2@SerializeE:
  0004d	33 c0		 xor	 eax, eax
  0004f	75 b8		 jne	 SHORT $LN4@SerializeE

; 69   : 	ASSERT(nCount == 0 ||

  00051	83 7d 10 00	 cmp	 DWORD PTR _nCount$[ebp], 0
  00055	74 26		 je	 SHORT $LN16@SerializeE
  00057	6a 01		 push	 1
  00059	8b 45 10	 mov	 eax, DWORD PTR _nCount$[ebp]
  0005c	d1 e0		 shl	 eax, 1
  0005e	50		 push	 eax
  0005f	8b 4d 0c	 mov	 ecx, DWORD PTR _pElements$[ebp]
  00062	51		 push	 ecx
  00063	e8 00 00 00 00	 call	 ?AfxIsValidAddress@@YGHPBXIH@Z ; AfxIsValidAddress
  00068	85 c0		 test	 eax, eax
  0006a	75 11		 jne	 SHORT $LN16@SerializeE
  0006c	6a 46		 push	 70			; 00000046H
  0006e	68 00 00 00 00	 push	 OFFSET ??_C@_0HC@HBCNBCLF@c?3?2program?5files?5?$CIx86?$CJ?2microsof@
  00073	e8 00 00 00 00	 call	 ?AfxAssertFailedLine@@YGHPBDH@Z ; AfxAssertFailedLine
  00078	85 c0		 test	 eax, eax
  0007a	74 01		 je	 SHORT $LN16@SerializeE
  0007c	cc		 int	 3
$LN16@SerializeE:

; 70   : 		AfxIsValidAddress(pElements, (size_t)nCount * sizeof(TYPE)));
; 71   : 
; 72   : 	// default is bit-wise read/write
; 73   : 	if (ar.IsStoring())

  0007d	8b 4d 08	 mov	 ecx, DWORD PTR _ar$[ebp]
  00080	e8 00 00 00 00	 call	 ?IsStoring@CArchive@@QBEHXZ ; CArchive::IsStoring
  00085	85 c0		 test	 eax, eax
  00087	74 5b		 je	 SHORT $LN10@SerializeE

; 74   : 	{
; 75   : 		TYPE* pData;
; 76   : 		UINT_PTR nElementsLeft;
; 77   : 
; 78   : 		nElementsLeft = nCount;

  00089	8b 45 10	 mov	 eax, DWORD PTR _nCount$[ebp]
  0008c	89 45 f4	 mov	 DWORD PTR _nElementsLeft$5[ebp], eax

; 79   : 		pData = pElements;

  0008f	8b 45 0c	 mov	 eax, DWORD PTR _pElements$[ebp]
  00092	89 45 f8	 mov	 DWORD PTR _pData$6[ebp], eax
$LN5@SerializeE:

; 80   : 		while( nElementsLeft > 0 )

  00095	83 7d f4 00	 cmp	 DWORD PTR _nElementsLeft$5[ebp], 0
  00099	76 47		 jbe	 SHORT $LN6@SerializeE

; 81   : 		{
; 82   : 			UINT nElementsToWrite;
; 83   : 
; 84   : 			nElementsToWrite = UINT(__min(nElementsLeft, INT_MAX/sizeof(TYPE)));

  0009b	81 7d f4 ff ff
	ff 3f		 cmp	 DWORD PTR _nElementsLeft$5[ebp], 1073741823 ; 3fffffffH
  000a2	73 08		 jae	 SHORT $LN17@SerializeE
  000a4	8b 45 f4	 mov	 eax, DWORD PTR _nElementsLeft$5[ebp]
  000a7	89 45 a0	 mov	 DWORD PTR tv92[ebp], eax
  000aa	eb 07		 jmp	 SHORT $LN18@SerializeE
$LN17@SerializeE:
  000ac	c7 45 a0 ff ff
	ff 3f		 mov	 DWORD PTR tv92[ebp], 1073741823 ; 3fffffffH
$LN18@SerializeE:
  000b3	8b 4d a0	 mov	 ecx, DWORD PTR tv92[ebp]
  000b6	89 4d f0	 mov	 DWORD PTR _nElementsToWrite$4[ebp], ecx

; 85   : 			ar.Write(pData, nElementsToWrite*sizeof(TYPE));

  000b9	8b 45 f0	 mov	 eax, DWORD PTR _nElementsToWrite$4[ebp]
  000bc	d1 e0		 shl	 eax, 1
  000be	50		 push	 eax
  000bf	8b 4d f8	 mov	 ecx, DWORD PTR _pData$6[ebp]
  000c2	51		 push	 ecx
  000c3	8b 4d 08	 mov	 ecx, DWORD PTR _ar$[ebp]
  000c6	e8 00 00 00 00	 call	 ?Write@CArchive@@QAEXPBXI@Z ; CArchive::Write

; 86   : 			nElementsLeft -= nElementsToWrite;

  000cb	8b 45 f4	 mov	 eax, DWORD PTR _nElementsLeft$5[ebp]
  000ce	2b 45 f0	 sub	 eax, DWORD PTR _nElementsToWrite$4[ebp]
  000d1	89 45 f4	 mov	 DWORD PTR _nElementsLeft$5[ebp], eax

; 87   : 			pData += nElementsToWrite;

  000d4	8b 45 f0	 mov	 eax, DWORD PTR _nElementsToWrite$4[ebp]
  000d7	8b 4d f8	 mov	 ecx, DWORD PTR _pData$6[ebp]
  000da	8d 14 41	 lea	 edx, DWORD PTR [ecx+eax*2]
  000dd	89 55 f8	 mov	 DWORD PTR _pData$6[ebp], edx

; 88   : 		}

  000e0	eb b3		 jmp	 SHORT $LN5@SerializeE
$LN6@SerializeE:

; 89   : 	}
; 90   : 	else

  000e2	eb 59		 jmp	 SHORT $LN12@SerializeE
$LN10@SerializeE:

; 91   : 	{
; 92   : 		TYPE* pData;
; 93   : 		UINT_PTR nElementsLeft;
; 94   : 
; 95   : 		nElementsLeft = nCount;

  000e4	8b 45 10	 mov	 eax, DWORD PTR _nCount$[ebp]
  000e7	89 45 e8	 mov	 DWORD PTR _nElementsLeft$2[ebp], eax

; 96   : 		pData = pElements;

  000ea	8b 45 0c	 mov	 eax, DWORD PTR _pElements$[ebp]
  000ed	89 45 ec	 mov	 DWORD PTR _pData$3[ebp], eax
$LN7@SerializeE:

; 97   : 		while( nElementsLeft > 0 )

  000f0	83 7d e8 00	 cmp	 DWORD PTR _nElementsLeft$2[ebp], 0
  000f4	76 47		 jbe	 SHORT $LN12@SerializeE

; 98   : 		{
; 99   : 			UINT nElementsToRead;
; 100  : 
; 101  : 			nElementsToRead = UINT(__min(nElementsLeft, INT_MAX/sizeof(TYPE)));

  000f6	81 7d e8 ff ff
	ff 3f		 cmp	 DWORD PTR _nElementsLeft$2[ebp], 1073741823 ; 3fffffffH
  000fd	73 08		 jae	 SHORT $LN19@SerializeE
  000ff	8b 45 e8	 mov	 eax, DWORD PTR _nElementsLeft$2[ebp]
  00102	89 45 a0	 mov	 DWORD PTR tv134[ebp], eax
  00105	eb 07		 jmp	 SHORT $LN20@SerializeE
$LN19@SerializeE:
  00107	c7 45 a0 ff ff
	ff 3f		 mov	 DWORD PTR tv134[ebp], 1073741823 ; 3fffffffH
$LN20@SerializeE:
  0010e	8b 4d a0	 mov	 ecx, DWORD PTR tv134[ebp]
  00111	89 4d e4	 mov	 DWORD PTR _nElementsToRead$1[ebp], ecx

; 102  : 			ar.EnsureRead(pData, nElementsToRead*sizeof(TYPE));

  00114	8b 45 e4	 mov	 eax, DWORD PTR _nElementsToRead$1[ebp]
  00117	d1 e0		 shl	 eax, 1
  00119	50		 push	 eax
  0011a	8b 4d ec	 mov	 ecx, DWORD PTR _pData$3[ebp]
  0011d	51		 push	 ecx
  0011e	8b 4d 08	 mov	 ecx, DWORD PTR _ar$[ebp]
  00121	e8 00 00 00 00	 call	 ?EnsureRead@CArchive@@QAEXPAXI@Z ; CArchive::EnsureRead

; 103  : 			nElementsLeft -= nElementsToRead;

  00126	8b 45 e8	 mov	 eax, DWORD PTR _nElementsLeft$2[ebp]
  00129	2b 45 e4	 sub	 eax, DWORD PTR _nElementsToRead$1[ebp]
  0012c	89 45 e8	 mov	 DWORD PTR _nElementsLeft$2[ebp], eax

; 104  : 			pData += nElementsToRead;

  0012f	8b 45 e4	 mov	 eax, DWORD PTR _nElementsToRead$1[ebp]
  00132	8b 4d ec	 mov	 ecx, DWORD PTR _pData$3[ebp]
  00135	8d 14 41	 lea	 edx, DWORD PTR [ecx+eax*2]
  00138	89 55 ec	 mov	 DWORD PTR _pData$3[ebp], edx

; 105  : 		}

  0013b	eb b3		 jmp	 SHORT $LN7@SerializeE
$LN12@SerializeE:

; 106  : 	}
; 107  : }

  0013d	5f		 pop	 edi
  0013e	5e		 pop	 esi
  0013f	5b		 pop	 ebx
  00140	8b e5		 mov	 esp, ebp
  00142	5d		 pop	 ebp
  00143	c2 0c 00	 ret	 12			; 0000000cH
??$SerializeElements@G@@YGXAAVCArchive@@PAGH@Z ENDP	; SerializeElements<unsigned short>
_TEXT	ENDS
; Function compile flags: /Odtp /ZI
; File c:\program files (x86)\windows kits\10\include\10.0.17763.0\ucrt\stdio.h
;	COMDAT ??$_snprintf_s@$0IA@@@YAHAAY0IA@DIPBDZZ
_TEXT	SEGMENT
__ArgList$ = -4						; size = 4
__Buffer$ = 8						; size = 4
__BufferCount$ = 12					; size = 4
__Format$ = 16						; size = 4
??$_snprintf_s@$0IA@@@YAHAAY0IA@DIPBDZZ PROC		; _snprintf_s<128>, COMDAT

; 2079 :         )

  00000	55		 push	 ebp
  00001	8b ec		 mov	 ebp, esp
  00003	83 ec 48	 sub	 esp, 72			; 00000048H
  00006	53		 push	 ebx
  00007	56		 push	 esi
  00008	57		 push	 edi

; 2073 :     __DEFINE_CPP_OVERLOAD_SECURE_FUNC_0_2_ARGLIST(

  00009	8d 45 14	 lea	 eax, DWORD PTR __Format$[ebp+4]
  0000c	89 45 fc	 mov	 DWORD PTR __ArgList$[ebp], eax
  0000f	8b 45 fc	 mov	 eax, DWORD PTR __ArgList$[ebp]
  00012	50		 push	 eax
  00013	8b 4d 10	 mov	 ecx, DWORD PTR __Format$[ebp]
  00016	51		 push	 ecx
  00017	8b 55 0c	 mov	 edx, DWORD PTR __BufferCount$[ebp]
  0001a	52		 push	 edx
  0001b	68 80 00 00 00	 push	 128			; 00000080H
  00020	8b 45 08	 mov	 eax, DWORD PTR __Buffer$[ebp]
  00023	50		 push	 eax
  00024	e8 00 00 00 00	 call	 __vsnprintf_s
  00029	83 c4 14	 add	 esp, 20			; 00000014H
  0002c	5f		 pop	 edi
  0002d	5e		 pop	 esi
  0002e	5b		 pop	 ebx
  0002f	8b e5		 mov	 esp, ebp
  00031	5d		 pop	 ebp
  00032	c3		 ret	 0
??$_snprintf_s@$0IA@@@YAHAAY0IA@DIPBDZZ ENDP		; _snprintf_s<128>
_TEXT	ENDS
; Function compile flags: /Odtp /ZI
; File c:\program files (x86)\microsoft visual studio\2017\community\vc\tools\msvc\14.16.27023\include\xlocale
;	COMDAT ??$_Maklocstr@D@std@@YAPADPBDPADABU_Cvtvec@@@Z
_TEXT	SEGMENT
__Ptrnext$1 = -12					; size = 4
__Ptrdest$ = -8						; size = 4
__Count$ = -4						; size = 4
__Ptr$ = 8						; size = 4
___formal$ = 12						; size = 4
___formal$ = 16						; size = 4
??$_Maklocstr@D@std@@YAPADPBDPADABU_Cvtvec@@@Z PROC	; std::_Maklocstr<char>, COMDAT

; 664  : 	{	// convert C string to _Elem sequence using _Cvtvec

  00000	55		 push	 ebp
  00001	8b ec		 mov	 ebp, esp
  00003	83 ec 4c	 sub	 esp, 76			; 0000004cH
  00006	53		 push	 ebx
  00007	56		 push	 esi
  00008	57		 push	 edi

; 665  : 	size_t _Count = _CSTD strlen(_Ptr) + 1;

  00009	8b 45 08	 mov	 eax, DWORD PTR __Ptr$[ebp]
  0000c	50		 push	 eax
  0000d	e8 00 00 00 00	 call	 _strlen
  00012	83 c4 04	 add	 esp, 4
  00015	83 c0 01	 add	 eax, 1
  00018	89 45 fc	 mov	 DWORD PTR __Count$[ebp], eax

; 666  : 
; 667  : 	_Elem *_Ptrdest = (_Elem *)_calloc_dbg(_Count, sizeof (_Elem),

  0001b	68 9c 02 00 00	 push	 668			; 0000029cH
  00020	68 00 00 00 00	 push	 OFFSET ??_C@_0GI@LKBGDILM@c?3?2program?5files?5?$CIx86?$CJ?2microsof@
  00025	6a 02		 push	 2
  00027	6a 01		 push	 1
  00029	8b 45 fc	 mov	 eax, DWORD PTR __Count$[ebp]
  0002c	50		 push	 eax
  0002d	ff 15 00 00 00
	00		 call	 DWORD PTR __imp___calloc_dbg
  00033	83 c4 14	 add	 esp, 20			; 00000014H
  00036	89 45 f8	 mov	 DWORD PTR __Ptrdest$[ebp], eax

; 668  : 		_CRT_BLOCK, __FILE__, __LINE__);
; 669  : 
; 670  : 	if (!_Ptrdest)

  00039	83 7d f8 00	 cmp	 DWORD PTR __Ptrdest$[ebp], 0
  0003d	75 05		 jne	 SHORT $LN5@Maklocstr

; 671  : 		_Xbad_alloc();

  0003f	e8 00 00 00 00	 call	 ?_Xbad_alloc@std@@YAXXZ	; std::_Xbad_alloc
$LN5@Maklocstr:

; 672  : 
; 673  : 	for (_Elem *_Ptrnext = _Ptrdest; 0 < _Count; --_Count, ++_Ptrnext, ++_Ptr)

  00044	8b 45 f8	 mov	 eax, DWORD PTR __Ptrdest$[ebp]
  00047	89 45 f4	 mov	 DWORD PTR __Ptrnext$1[ebp], eax
  0004a	eb 1b		 jmp	 SHORT $LN4@Maklocstr
$LN2@Maklocstr:
  0004c	8b 45 fc	 mov	 eax, DWORD PTR __Count$[ebp]
  0004f	83 e8 01	 sub	 eax, 1
  00052	89 45 fc	 mov	 DWORD PTR __Count$[ebp], eax
  00055	8b 4d f4	 mov	 ecx, DWORD PTR __Ptrnext$1[ebp]
  00058	83 c1 01	 add	 ecx, 1
  0005b	89 4d f4	 mov	 DWORD PTR __Ptrnext$1[ebp], ecx
  0005e	8b 55 08	 mov	 edx, DWORD PTR __Ptr$[ebp]
  00061	83 c2 01	 add	 edx, 1
  00064	89 55 08	 mov	 DWORD PTR __Ptr$[ebp], edx
$LN4@Maklocstr:
  00067	83 7d fc 00	 cmp	 DWORD PTR __Count$[ebp], 0
  0006b	76 0c		 jbe	 SHORT $LN3@Maklocstr

; 674  : 		*_Ptrnext = (_Elem)(unsigned char)*_Ptr;

  0006d	8b 45 f4	 mov	 eax, DWORD PTR __Ptrnext$1[ebp]
  00070	8b 4d 08	 mov	 ecx, DWORD PTR __Ptr$[ebp]
  00073	8a 11		 mov	 dl, BYTE PTR [ecx]
  00075	88 10		 mov	 BYTE PTR [eax], dl
  00077	eb d3		 jmp	 SHORT $LN2@Maklocstr
$LN3@Maklocstr:

; 675  : 
; 676  : 	return (_Ptrdest);

  00079	8b 45 f8	 mov	 eax, DWORD PTR __Ptrdest$[ebp]
$LN6@Maklocstr:

; 677  : 	}

  0007c	5f		 pop	 edi
  0007d	5e		 pop	 esi
  0007e	5b		 pop	 ebx
  0007f	8b e5		 mov	 esp, ebp
  00081	5d		 pop	 ebp
  00082	c3		 ret	 0
??$_Maklocstr@D@std@@YAPADPBDPADABU_Cvtvec@@@Z ENDP	; std::_Maklocstr<char>
_TEXT	ENDS
; Function compile flags: /Odtp /ZI
;	COMDAT ??_ECServerInfoManager@@UAEPAXI@Z
_TEXT	SEGMENT
_this$ = -16						; size = 4
__$EHRec$ = -12						; size = 12
___flags$ = 8						; size = 4
??_ECServerInfoManager@@UAEPAXI@Z PROC			; CServerInfoManager::`vector deleting destructor', COMDAT
; _this$ = ecx
  00000	55		 push	 ebp
  00001	8b ec		 mov	 ebp, esp
  00003	6a ff		 push	 -1
  00005	68 00 00 00 00	 push	 __ehhandler$??_ECServerInfoManager@@UAEPAXI@Z
  0000a	64 a1 00 00 00
	00		 mov	 eax, DWORD PTR fs:0
  00010	50		 push	 eax
  00011	83 ec 44	 sub	 esp, 68			; 00000044H
  00014	53		 push	 ebx
  00015	56		 push	 esi
  00016	57		 push	 edi
  00017	a1 00 00 00 00	 mov	 eax, DWORD PTR ___security_cookie
  0001c	33 c5		 xor	 eax, ebp
  0001e	50		 push	 eax
  0001f	8d 45 f4	 lea	 eax, DWORD PTR __$EHRec$[ebp]
  00022	64 a3 00 00 00
	00		 mov	 DWORD PTR fs:0, eax
  00028	89 4d f0	 mov	 DWORD PTR _this$[ebp], ecx
  0002b	8b 45 08	 mov	 eax, DWORD PTR ___flags$[ebp]
  0002e	83 e0 02	 and	 eax, 2
  00031	74 47		 je	 SHORT $LN2@vector
  00033	68 00 00 00 00	 push	 OFFSET ??1CServerInfoManager@@UAE@XZ ; CServerInfoManager::~CServerInfoManager
  00038	8b 45 f0	 mov	 eax, DWORD PTR _this$[ebp]
  0003b	8b 48 fc	 mov	 ecx, DWORD PTR [eax-4]
  0003e	51		 push	 ecx
  0003f	68 ec 00 00 00	 push	 236			; 000000ecH
  00044	8b 55 f0	 mov	 edx, DWORD PTR _this$[ebp]
  00047	52		 push	 edx
  00048	e8 00 00 00 00	 call	 ??_M@YGXPAXIIP6EX0@Z@Z
  0004d	8b 45 08	 mov	 eax, DWORD PTR ___flags$[ebp]
  00050	83 e0 01	 and	 eax, 1
  00053	74 1d		 je	 SHORT $LN3@vector
  00055	8b 45 f0	 mov	 eax, DWORD PTR _this$[ebp]
  00058	69 48 fc ec 00
	00 00		 imul	 ecx, DWORD PTR [eax-4], 236
  0005f	83 c1 04	 add	 ecx, 4
  00062	51		 push	 ecx
  00063	8b 55 f0	 mov	 edx, DWORD PTR _this$[ebp]
  00066	83 ea 04	 sub	 edx, 4
  00069	52		 push	 edx
  0006a	e8 00 00 00 00	 call	 ??_V@YAXPAXI@Z		; operator delete[]
  0006f	83 c4 08	 add	 esp, 8
$LN3@vector:
  00072	8b 45 f0	 mov	 eax, DWORD PTR _this$[ebp]
  00075	83 e8 04	 sub	 eax, 4
  00078	eb 24		 jmp	 SHORT $LN5@vector
$LN2@vector:
  0007a	8b 4d f0	 mov	 ecx, DWORD PTR _this$[ebp]
  0007d	e8 00 00 00 00	 call	 ??1CServerInfoManager@@UAE@XZ ; CServerInfoManager::~CServerInfoManager
  00082	8b 45 08	 mov	 eax, DWORD PTR ___flags$[ebp]
  00085	83 e0 01	 and	 eax, 1
  00088	74 11		 je	 SHORT $LN4@vector
  0008a	68 ec 00 00 00	 push	 236			; 000000ecH
  0008f	8b 45 f0	 mov	 eax, DWORD PTR _this$[ebp]
  00092	50		 push	 eax
  00093	e8 00 00 00 00	 call	 ??3@YAXPAXI@Z		; operator delete
  00098	83 c4 08	 add	 esp, 8
$LN4@vector:
  0009b	8b 45 f0	 mov	 eax, DWORD PTR _this$[ebp]
$LN5@vector:
  0009e	8b 4d f4	 mov	 ecx, DWORD PTR __$EHRec$[ebp]
  000a1	64 89 0d 00 00
	00 00		 mov	 DWORD PTR fs:0, ecx
  000a8	59		 pop	 ecx
  000a9	5f		 pop	 edi
  000aa	5e		 pop	 esi
  000ab	5b		 pop	 ebx
  000ac	8b e5		 mov	 esp, ebp
  000ae	5d		 pop	 ebp
  000af	c2 04 00	 ret	 4
_TEXT	ENDS
;	COMDAT text$x
text$x	SEGMENT
__ehhandler$??_ECServerInfoManager@@UAEPAXI@Z:
  00000	8b 54 24 08	 mov	 edx, DWORD PTR [esp+8]
  00004	8d 42 0c	 lea	 eax, DWORD PTR [edx+12]
  00007	8b 4a ac	 mov	 ecx, DWORD PTR [edx-84]
  0000a	33 c8		 xor	 ecx, eax
  0000c	e8 00 00 00 00	 call	 @__security_check_cookie@4
  00011	b8 00 00 00 00	 mov	 eax, OFFSET __ehfuncinfo$??_ECServerInfoManager@@UAEPAXI@Z
  00016	e9 00 00 00 00	 jmp	 ___CxxFrameHandler3
text$x	ENDS
??_ECServerInfoManager@@UAEPAXI@Z ENDP			; CServerInfoManager::`vector deleting destructor'
; Function compile flags: /Odtp /ZI
;	COMDAT ??_GCServerInfoManager@@UAEPAXI@Z
_TEXT	SEGMENT
_this$ = -4						; size = 4
___flags$ = 8						; size = 4
??_GCServerInfoManager@@UAEPAXI@Z PROC			; CServerInfoManager::`scalar deleting destructor', COMDAT
; _this$ = ecx
  00000	55		 push	 ebp
  00001	8b ec		 mov	 ebp, esp
  00003	83 ec 44	 sub	 esp, 68			; 00000044H
  00006	53		 push	 ebx
  00007	56		 push	 esi
  00008	57		 push	 edi
  00009	89 4d fc	 mov	 DWORD PTR _this$[ebp], ecx
  0000c	8b 4d fc	 mov	 ecx, DWORD PTR _this$[ebp]
  0000f	e8 00 00 00 00	 call	 ??1CServerInfoManager@@UAE@XZ ; CServerInfoManager::~CServerInfoManager
  00014	8b 45 08	 mov	 eax, DWORD PTR ___flags$[ebp]
  00017	83 e0 01	 and	 eax, 1
  0001a	74 11		 je	 SHORT $LN2@scalar
  0001c	68 ec 00 00 00	 push	 236			; 000000ecH
  00021	8b 45 fc	 mov	 eax, DWORD PTR _this$[ebp]
  00024	50		 push	 eax
  00025	e8 00 00 00 00	 call	 ??3@YAXPAXI@Z		; operator delete
  0002a	83 c4 08	 add	 esp, 8
$LN2@scalar:
  0002d	8b 45 fc	 mov	 eax, DWORD PTR _this$[ebp]
  00030	5f		 pop	 edi
  00031	5e		 pop	 esi
  00032	5b		 pop	 ebx
  00033	8b e5		 mov	 esp, ebp
  00035	5d		 pop	 ebp
  00036	c2 04 00	 ret	 4
??_GCServerInfoManager@@UAEPAXI@Z ENDP			; CServerInfoManager::`scalar deleting destructor'
_TEXT	ENDS
; Function compile flags: /Odtp /ZI
;	COMDAT ??4CServerInfoManager@@QAEAAV0@ABV0@@Z
_TEXT	SEGMENT
_this$ = -4						; size = 4
___that$ = 8						; size = 4
??4CServerInfoManager@@QAEAAV0@ABV0@@Z PROC		; CServerInfoManager::operator=, COMDAT
; _this$ = ecx
  00000	55		 push	 ebp
  00001	8b ec		 mov	 ebp, esp
  00003	83 ec 44	 sub	 esp, 68			; 00000044H
  00006	53		 push	 ebx
  00007	56		 push	 esi
  00008	57		 push	 edi
  00009	89 4d fc	 mov	 DWORD PTR _this$[ebp], ecx
  0000c	8b 75 08	 mov	 esi, DWORD PTR ___that$[ebp]
  0000f	83 c6 04	 add	 esi, 4
  00012	8b 7d fc	 mov	 edi, DWORD PTR _this$[ebp]
  00015	83 c7 04	 add	 edi, 4
  00018	b9 1c 00 00 00	 mov	 ecx, 28			; 0000001cH
  0001d	f3 a5		 rep movsd
  0001f	a4		 movsb
  00020	8b 75 08	 mov	 esi, DWORD PTR ___that$[ebp]
  00023	83 c6 75	 add	 esi, 117		; 00000075H
  00026	8b 7d fc	 mov	 edi, DWORD PTR _this$[ebp]
  00029	83 c7 75	 add	 edi, 117		; 00000075H
  0002c	b9 1d 00 00 00	 mov	 ecx, 29			; 0000001dH
  00031	f3 a5		 rep movsd
  00033	8b 45 fc	 mov	 eax, DWORD PTR _this$[ebp]
  00036	5f		 pop	 edi
  00037	5e		 pop	 esi
  00038	5b		 pop	 ebx
  00039	8b e5		 mov	 esp, ebp
  0003b	5d		 pop	 ebp
  0003c	c2 04 00	 ret	 4
??4CServerInfoManager@@QAEAAV0@ABV0@@Z ENDP		; CServerInfoManager::operator=
_TEXT	ENDS
; Function compile flags: /Odtp /ZI
;	COMDAT ??0CServerInfoManager@@QAE@ABV0@@Z
_TEXT	SEGMENT
_this$ = -4						; size = 4
___that$ = 8						; size = 4
??0CServerInfoManager@@QAE@ABV0@@Z PROC			; CServerInfoManager::CServerInfoManager, COMDAT
; _this$ = ecx
  00000	55		 push	 ebp
  00001	8b ec		 mov	 ebp, esp
  00003	83 ec 44	 sub	 esp, 68			; 00000044H
  00006	53		 push	 ebx
  00007	56		 push	 esi
  00008	57		 push	 edi
  00009	89 4d fc	 mov	 DWORD PTR _this$[ebp], ecx
  0000c	8b 45 fc	 mov	 eax, DWORD PTR _this$[ebp]
  0000f	c7 00 00 00 00
	00		 mov	 DWORD PTR [eax], OFFSET ??_7CServerInfoManager@@6B@
  00015	8b 75 08	 mov	 esi, DWORD PTR ___that$[ebp]
  00018	83 c6 04	 add	 esi, 4
  0001b	8b 7d fc	 mov	 edi, DWORD PTR _this$[ebp]
  0001e	83 c7 04	 add	 edi, 4
  00021	b9 1c 00 00 00	 mov	 ecx, 28			; 0000001cH
  00026	f3 a5		 rep movsd
  00028	a4		 movsb
  00029	8b 75 08	 mov	 esi, DWORD PTR ___that$[ebp]
  0002c	83 c6 75	 add	 esi, 117		; 00000075H
  0002f	8b 7d fc	 mov	 edi, DWORD PTR _this$[ebp]
  00032	83 c7 75	 add	 edi, 117		; 00000075H
  00035	b9 1d 00 00 00	 mov	 ecx, 29			; 0000001dH
  0003a	f3 a5		 rep movsd
  0003c	8b 45 fc	 mov	 eax, DWORD PTR _this$[ebp]
  0003f	5f		 pop	 edi
  00040	5e		 pop	 esi
  00041	5b		 pop	 ebx
  00042	8b e5		 mov	 esp, ebp
  00044	5d		 pop	 ebp
  00045	c2 04 00	 ret	 4
??0CServerInfoManager@@QAE@ABV0@@Z ENDP			; CServerInfoManager::CServerInfoManager
_TEXT	ENDS
; Function compile flags: /Odtp /ZI
; File g:\网狐\happygamewh\服务端\系统模块\服务器组件\模块管理\serverinfomanager.cpp
;	COMDAT ?WritePersonalRoomInfo@CServerInfoManager@@QAE_NUtagPersonalRoomOption@@UtagPersonalRoomOptionRightAndFee@@G@Z
_TEXT	SEGMENT
_i$1 = -584						; size = 4
_szReadKey$ = -580					; size = 50
_szIniFile$ = -528					; size = 260
_szWorkDir$ = -268					; size = 260
_this$ = -8						; size = 4
__$ArrayPad$ = -4					; size = 4
_PersonalRoomOption$ = 8				; size = 113
_PersonalRoomOptionRightAndFee$ = 124			; size = 116
_dwKindID$ = 240					; size = 2
?WritePersonalRoomInfo@CServerInfoManager@@QAE_NUtagPersonalRoomOption@@UtagPersonalRoomOptionRightAndFee@@G@Z PROC ; CServerInfoManager::WritePersonalRoomInfo, COMDAT
; _this$ = ecx

; 1369 : {

  00000	55		 push	 ebp
  00001	8b ec		 mov	 ebp, esp
  00003	81 ec c8 02 00
	00		 sub	 esp, 712		; 000002c8H
  00009	a1 00 00 00 00	 mov	 eax, DWORD PTR ___security_cookie
  0000e	33 c5		 xor	 eax, ebp
  00010	89 45 fc	 mov	 DWORD PTR __$ArrayPad$[ebp], eax
  00013	53		 push	 ebx
  00014	56		 push	 esi
  00015	57		 push	 edi
  00016	89 4d f8	 mov	 DWORD PTR _this$[ebp], ecx

; 1370 : 
; 1371 : 	//获取路径
; 1372 : 	TCHAR szWorkDir[MAX_PATH]=TEXT("");

  00019	a0 00 00 00 00	 mov	 al, BYTE PTR ??_C@_00CNPNBAHC@@
  0001e	88 85 f4 fe ff
	ff		 mov	 BYTE PTR _szWorkDir$[ebp], al
  00024	68 03 01 00 00	 push	 259			; 00000103H
  00029	6a 00		 push	 0
  0002b	8d 85 f5 fe ff
	ff		 lea	 eax, DWORD PTR _szWorkDir$[ebp+1]
  00031	50		 push	 eax
  00032	e8 00 00 00 00	 call	 _memset
  00037	83 c4 0c	 add	 esp, 12			; 0000000cH

; 1373 : 	CWHService::GetWorkDirectory(szWorkDir,CountArray(szWorkDir));

  0003a	68 04 01 00 00	 push	 260			; 00000104H
  0003f	8d 85 f4 fe ff
	ff		 lea	 eax, DWORD PTR _szWorkDir$[ebp]
  00045	50		 push	 eax
  00046	ff 15 00 00 00
	00		 call	 DWORD PTR __imp_?GetWorkDirectory@CWHService@@SA_NQADG@Z
  0004c	83 c4 08	 add	 esp, 8

; 1374 : 
; 1375 : 	//构造路径
; 1376 : 	TCHAR szIniFile[MAX_PATH]=TEXT("");

  0004f	a0 00 00 00 00	 mov	 al, BYTE PTR ??_C@_00CNPNBAHC@@
  00054	88 85 f0 fd ff
	ff		 mov	 BYTE PTR _szIniFile$[ebp], al
  0005a	68 03 01 00 00	 push	 259			; 00000103H
  0005f	6a 00		 push	 0
  00061	8d 85 f1 fd ff
	ff		 lea	 eax, DWORD PTR _szIniFile$[ebp+1]
  00067	50		 push	 eax
  00068	e8 00 00 00 00	 call	 _memset
  0006d	83 c4 0c	 add	 esp, 12			; 0000000cH

; 1377 : 	_sntprintf(szIniFile,CountArray(szIniFile),TEXT("%s\\%d.ini"),szWorkDir, dwKindID);

  00070	0f b7 85 f0 00
	00 00		 movzx	 eax, WORD PTR _dwKindID$[ebp]
  00077	50		 push	 eax
  00078	8d 8d f4 fe ff
	ff		 lea	 ecx, DWORD PTR _szWorkDir$[ebp]
  0007e	51		 push	 ecx
  0007f	68 00 00 00 00	 push	 OFFSET ??_C@_09LOOPACNL@?$CFs?2?$CFd?4ini@
  00084	68 04 01 00 00	 push	 260			; 00000104H
  00089	8d 95 f0 fd ff
	ff		 lea	 edx, DWORD PTR _szIniFile$[ebp]
  0008f	52		 push	 edx
  00090	e8 00 00 00 00	 call	 __snprintf
  00095	83 c4 14	 add	 esp, 20			; 00000014H

; 1378 : 
; 1379 : 	WriteFileValue(TEXT("Enable"), TEXT("Enabled"), 1, szIniFile);

  00098	8d 85 f0 fd ff
	ff		 lea	 eax, DWORD PTR _szIniFile$[ebp]
  0009e	50		 push	 eax
  0009f	6a 01		 push	 1
  000a1	68 00 00 00 00	 push	 OFFSET ??_C@_07DOAOMMKG@Enabled@
  000a6	68 00 00 00 00	 push	 OFFSET ??_C@_06CKGENIKG@Enable@
  000ab	8b 4d f8	 mov	 ecx, DWORD PTR _this$[ebp]
  000ae	e8 00 00 00 00	 call	 ?WriteFileValue@CServerInfoManager@@QAEXPBD0I0@Z ; CServerInfoManager::WriteFileValue

; 1380 : 	//WriteFileValue(TEXT("Option"), TEXT("CardOrBean"), PersonalRoomOption.cbCardOrBean, szIniFile);
; 1381 : //	WriteFileValue(TEXT("Option"), TEXT("FeeCardOrBeanCount"), PersonalRoomOption.lFeeCardOrBeanCount,  szIniFile);
; 1382 : 	WriteFileValue(TEXT("Option"), TEXT("IsJoinGame"), PersonalRoomOption.cbIsJoinGame, szIniFile);

  000b3	8d 85 f0 fd ff
	ff		 lea	 eax, DWORD PTR _szIniFile$[ebp]
  000b9	50		 push	 eax
  000ba	0f b6 4d 08	 movzx	 ecx, BYTE PTR _PersonalRoomOption$[ebp]
  000be	51		 push	 ecx
  000bf	68 00 00 00 00	 push	 OFFSET ??_C@_0L@HLGININO@IsJoinGame@
  000c4	68 00 00 00 00	 push	 OFFSET ??_C@_06CJHLBMGC@Option@
  000c9	8b 4d f8	 mov	 ecx, DWORD PTR _this$[ebp]
  000cc	e8 00 00 00 00	 call	 ?WriteFileValue@CServerInfoManager@@QAEXPBD0I0@Z ; CServerInfoManager::WriteFileValue

; 1383 : 	WriteFileValue(TEXT("Option"), TEXT("MinPeople"), PersonalRoomOption.cbMinPeople, szIniFile);

  000d1	8d 85 f0 fd ff
	ff		 lea	 eax, DWORD PTR _szIniFile$[ebp]
  000d7	50		 push	 eax
  000d8	0f b6 4d 09	 movzx	 ecx, BYTE PTR _PersonalRoomOption$[ebp+1]
  000dc	51		 push	 ecx
  000dd	68 00 00 00 00	 push	 OFFSET ??_C@_09BAGGAEBH@MinPeople@
  000e2	68 00 00 00 00	 push	 OFFSET ??_C@_06CJHLBMGC@Option@
  000e7	8b 4d f8	 mov	 ecx, DWORD PTR _this$[ebp]
  000ea	e8 00 00 00 00	 call	 ?WriteFileValue@CServerInfoManager@@QAEXPBD0I0@Z ; CServerInfoManager::WriteFileValue

; 1384 : 	WriteFileValue(TEXT("Option"), TEXT("MaxCellScore"), PersonalRoomOption.cbMaxPeople , szIniFile);

  000ef	8d 85 f0 fd ff
	ff		 lea	 eax, DWORD PTR _szIniFile$[ebp]
  000f5	50		 push	 eax
  000f6	0f b6 4d 0a	 movzx	 ecx, BYTE PTR _PersonalRoomOption$[ebp+2]
  000fa	51		 push	 ecx
  000fb	68 00 00 00 00	 push	 OFFSET ??_C@_0N@CNCFIDBJ@MaxCellScore@
  00100	68 00 00 00 00	 push	 OFFSET ??_C@_06CJHLBMGC@Option@
  00105	8b 4d f8	 mov	 ecx, DWORD PTR _this$[ebp]
  00108	e8 00 00 00 00	 call	 ?WriteFileValue@CServerInfoManager@@QAEXPBD0I0@Z ; CServerInfoManager::WriteFileValue

; 1385 : 	WriteFileValue(TEXT("Option"), TEXT("MaxCellScore"), (UINT)PersonalRoomOption.lMaxCellScore, szIniFile);

  0010d	8d 85 f0 fd ff
	ff		 lea	 eax, DWORD PTR _szIniFile$[ebp]
  00113	50		 push	 eax
  00114	8b 4d 0b	 mov	 ecx, DWORD PTR _PersonalRoomOption$[ebp+3]
  00117	51		 push	 ecx
  00118	68 00 00 00 00	 push	 OFFSET ??_C@_0N@CNCFIDBJ@MaxCellScore@
  0011d	68 00 00 00 00	 push	 OFFSET ??_C@_06CJHLBMGC@Option@
  00122	8b 4d f8	 mov	 ecx, DWORD PTR _this$[ebp]
  00125	e8 00 00 00 00	 call	 ?WriteFileValue@CServerInfoManager@@QAEXPBD0I0@Z ; CServerInfoManager::WriteFileValue

; 1386 : 	WriteFileValue(TEXT("Option"), TEXT("PersonalRoomTax"), (UINT)PersonalRoomOption.lPersonalRoomTax, szIniFile);

  0012a	8d 85 f0 fd ff
	ff		 lea	 eax, DWORD PTR _szIniFile$[ebp]
  00130	50		 push	 eax
  00131	8b 4d 13	 mov	 ecx, DWORD PTR _PersonalRoomOption$[ebp+11]
  00134	51		 push	 ecx
  00135	68 00 00 00 00	 push	 OFFSET ??_C@_0BA@GCOMLPGF@PersonalRoomTax@
  0013a	68 00 00 00 00	 push	 OFFSET ??_C@_06CJHLBMGC@Option@
  0013f	8b 4d f8	 mov	 ecx, DWORD PTR _this$[ebp]
  00142	e8 00 00 00 00	 call	 ?WriteFileValue@CServerInfoManager@@QAEXPBD0I0@Z ; CServerInfoManager::WriteFileValue

; 1387 : 	WriteFileValue(TEXT("Option"), TEXT("CanCreateCount"), PersonalRoomOption.wCanCreateCount, szIniFile);

  00147	8d 85 f0 fd ff
	ff		 lea	 eax, DWORD PTR _szIniFile$[ebp]
  0014d	50		 push	 eax
  0014e	0f b7 4d 5b	 movzx	 ecx, WORD PTR _PersonalRoomOption$[ebp+83]
  00152	51		 push	 ecx
  00153	68 00 00 00 00	 push	 OFFSET ??_C@_0P@LNMJOPEM@CanCreateCount@
  00158	68 00 00 00 00	 push	 OFFSET ??_C@_06CJHLBMGC@Option@
  0015d	8b 4d f8	 mov	 ecx, DWORD PTR _this$[ebp]
  00160	e8 00 00 00 00	 call	 ?WriteFileValue@CServerInfoManager@@QAEXPBD0I0@Z ; CServerInfoManager::WriteFileValue

; 1388 : 	WriteFileValue(TEXT("Option"), TEXT("PlayTurnCount"), PersonalRoomOption.dwPlayTurnCount,  szIniFile);

  00165	8d 85 f0 fd ff
	ff		 lea	 eax, DWORD PTR _szIniFile$[ebp]
  0016b	50		 push	 eax
  0016c	8b 4d 5d	 mov	 ecx, DWORD PTR _PersonalRoomOption$[ebp+85]
  0016f	51		 push	 ecx
  00170	68 00 00 00 00	 push	 OFFSET ??_C@_0O@FDPMPBME@PlayTurnCount@
  00175	68 00 00 00 00	 push	 OFFSET ??_C@_06CJHLBMGC@Option@
  0017a	8b 4d f8	 mov	 ecx, DWORD PTR _this$[ebp]
  0017d	e8 00 00 00 00	 call	 ?WriteFileValue@CServerInfoManager@@QAEXPBD0I0@Z ; CServerInfoManager::WriteFileValue

; 1389 : 	WriteFileValue(TEXT("Option"), TEXT("PlayTimeLimit"), PersonalRoomOption.dwPlayTimeLimit, szIniFile);

  00182	8d 85 f0 fd ff
	ff		 lea	 eax, DWORD PTR _szIniFile$[ebp]
  00188	50		 push	 eax
  00189	8b 4d 61	 mov	 ecx, DWORD PTR _PersonalRoomOption$[ebp+89]
  0018c	51		 push	 ecx
  0018d	68 00 00 00 00	 push	 OFFSET ??_C@_0O@FAGABJFM@PlayTimeLimit@
  00192	68 00 00 00 00	 push	 OFFSET ??_C@_06CJHLBMGC@Option@
  00197	8b 4d f8	 mov	 ecx, DWORD PTR _this$[ebp]
  0019a	e8 00 00 00 00	 call	 ?WriteFileValue@CServerInfoManager@@QAEXPBD0I0@Z ; CServerInfoManager::WriteFileValue

; 1390 : 	WriteFileValue(TEXT("Option"), TEXT("TimeAfterBeginCount"), PersonalRoomOption.dwTimeAfterBeginCount, szIniFile);

  0019f	8d 85 f0 fd ff
	ff		 lea	 eax, DWORD PTR _szIniFile$[ebp]
  001a5	50		 push	 eax
  001a6	8b 4d 65	 mov	 ecx, DWORD PTR _PersonalRoomOption$[ebp+93]
  001a9	51		 push	 ecx
  001aa	68 00 00 00 00	 push	 OFFSET ??_C@_0BE@NHDBBOLF@TimeAfterBeginCount@
  001af	68 00 00 00 00	 push	 OFFSET ??_C@_06CJHLBMGC@Option@
  001b4	8b 4d f8	 mov	 ecx, DWORD PTR _this$[ebp]
  001b7	e8 00 00 00 00	 call	 ?WriteFileValue@CServerInfoManager@@QAEXPBD0I0@Z ; CServerInfoManager::WriteFileValue

; 1391 : 	WriteFileValue(TEXT("Option"), TEXT("TimeOffLineCount"), PersonalRoomOption.dwTimeOffLineCount, szIniFile);

  001bc	8d 85 f0 fd ff
	ff		 lea	 eax, DWORD PTR _szIniFile$[ebp]
  001c2	50		 push	 eax
  001c3	8b 4d 69	 mov	 ecx, DWORD PTR _PersonalRoomOption$[ebp+97]
  001c6	51		 push	 ecx
  001c7	68 00 00 00 00	 push	 OFFSET ??_C@_0BB@BHHEMCMJ@TimeOffLineCount@
  001cc	68 00 00 00 00	 push	 OFFSET ??_C@_06CJHLBMGC@Option@
  001d1	8b 4d f8	 mov	 ecx, DWORD PTR _this$[ebp]
  001d4	e8 00 00 00 00	 call	 ?WriteFileValue@CServerInfoManager@@QAEXPBD0I0@Z ; CServerInfoManager::WriteFileValue

; 1392 : 	WriteFileValue(TEXT("Option"), TEXT("TimeNotBeginGame"), PersonalRoomOption.dwTimeNotBeginGame, szIniFile);

  001d9	8d 85 f0 fd ff
	ff		 lea	 eax, DWORD PTR _szIniFile$[ebp]
  001df	50		 push	 eax
  001e0	8b 4d 6d	 mov	 ecx, DWORD PTR _PersonalRoomOption$[ebp+101]
  001e3	51		 push	 ecx
  001e4	68 00 00 00 00	 push	 OFFSET ??_C@_0BB@EFKEMBID@TimeNotBeginGame@
  001e9	68 00 00 00 00	 push	 OFFSET ??_C@_06CJHLBMGC@Option@
  001ee	8b 4d f8	 mov	 ecx, DWORD PTR _this$[ebp]
  001f1	e8 00 00 00 00	 call	 ?WriteFileValue@CServerInfoManager@@QAEXPBD0I0@Z ; CServerInfoManager::WriteFileValue

; 1393 : 	WriteFileValue(TEXT("Option"), TEXT("TimeAfterCreateRoom"), PersonalRoomOption.dwTimeAfterCreateRoom, szIniFile);

  001f6	8d 85 f0 fd ff
	ff		 lea	 eax, DWORD PTR _szIniFile$[ebp]
  001fc	50		 push	 eax
  001fd	8b 4d 71	 mov	 ecx, DWORD PTR _PersonalRoomOption$[ebp+105]
  00200	51		 push	 ecx
  00201	68 00 00 00 00	 push	 OFFSET ??_C@_0BE@MAFCEFJP@TimeAfterCreateRoom@
  00206	68 00 00 00 00	 push	 OFFSET ??_C@_06CJHLBMGC@Option@
  0020b	8b 4d f8	 mov	 ecx, DWORD PTR _this$[ebp]
  0020e	e8 00 00 00 00	 call	 ?WriteFileValue@CServerInfoManager@@QAEXPBD0I0@Z ; CServerInfoManager::WriteFileValue

; 1394 : 	WriteFileValue(TEXT("Option"), TEXT("BeginFreeTime"), PersonalRoomOption.wBeginFreeTime, szIniFile);

  00213	8d 85 f0 fd ff
	ff		 lea	 eax, DWORD PTR _szIniFile$[ebp]
  00219	50		 push	 eax
  0021a	0f b7 4d 75	 movzx	 ecx, WORD PTR _PersonalRoomOption$[ebp+109]
  0021e	51		 push	 ecx
  0021f	68 00 00 00 00	 push	 OFFSET ??_C@_0O@DEEAMCAI@BeginFreeTime@
  00224	68 00 00 00 00	 push	 OFFSET ??_C@_06CJHLBMGC@Option@
  00229	8b 4d f8	 mov	 ecx, DWORD PTR _this$[ebp]
  0022c	e8 00 00 00 00	 call	 ?WriteFileValue@CServerInfoManager@@QAEXPBD0I0@Z ; CServerInfoManager::WriteFileValue

; 1395 : 	WriteFileValue(TEXT("Option"), TEXT("EndFreeTime"), PersonalRoomOption.wEndFreeTime, szIniFile);

  00231	8d 85 f0 fd ff
	ff		 lea	 eax, DWORD PTR _szIniFile$[ebp]
  00237	50		 push	 eax
  00238	0f b7 4d 77	 movzx	 ecx, WORD PTR _PersonalRoomOption$[ebp+111]
  0023c	51		 push	 ecx
  0023d	68 00 00 00 00	 push	 OFFSET ??_C@_0M@OHDGOHJM@EndFreeTime@
  00242	68 00 00 00 00	 push	 OFFSET ??_C@_06CJHLBMGC@Option@
  00247	8b 4d f8	 mov	 ecx, DWORD PTR _this$[ebp]
  0024a	e8 00 00 00 00	 call	 ?WriteFileValue@CServerInfoManager@@QAEXPBD0I0@Z ; CServerInfoManager::WriteFileValue

; 1396 : 
; 1397 : 	//创建私人房间的权限及费用
; 1398 : 	WriteFileValue(TEXT("CreateRoomRight"), TEXT("CreateRight"), PersonalRoomOptionRightAndFee.cbCreateRight, szIniFile);

  0024f	8d 85 f0 fd ff
	ff		 lea	 eax, DWORD PTR _szIniFile$[ebp]
  00255	50		 push	 eax
  00256	0f b6 4d 7c	 movzx	 ecx, BYTE PTR _PersonalRoomOptionRightAndFee$[ebp]
  0025a	51		 push	 ecx
  0025b	68 00 00 00 00	 push	 OFFSET ??_C@_0M@JGNJEEEJ@CreateRight@
  00260	68 00 00 00 00	 push	 OFFSET ??_C@_0BA@MEGPCNND@CreateRoomRight@
  00265	8b 4d f8	 mov	 ecx, DWORD PTR _this$[ebp]
  00268	e8 00 00 00 00	 call	 ?WriteFileValue@CServerInfoManager@@QAEXPBD0I0@Z ; CServerInfoManager::WriteFileValue

; 1399 : 
; 1400 : 	TCHAR szReadKey[50] = { 0 };

  0026d	6a 32		 push	 50			; 00000032H
  0026f	6a 00		 push	 0
  00271	8d 85 bc fd ff
	ff		 lea	 eax, DWORD PTR _szReadKey$[ebp]
  00277	50		 push	 eax
  00278	e8 00 00 00 00	 call	 _memset
  0027d	83 c4 0c	 add	 esp, 12			; 0000000cH

; 1401 : 
; 1402 : 	for (int i = 0; i < FEE_OPTION_COUNT ; i++)

  00280	c7 85 b8 fd ff
	ff 00 00 00 00	 mov	 DWORD PTR _i$1[ebp], 0
  0028a	eb 0f		 jmp	 SHORT $LN4@WritePerso
$LN2@WritePerso:
  0028c	8b 85 b8 fd ff
	ff		 mov	 eax, DWORD PTR _i$1[ebp]
  00292	83 c0 01	 add	 eax, 1
  00295	89 85 b8 fd ff
	ff		 mov	 DWORD PTR _i$1[ebp], eax
$LN4@WritePerso:
  0029b	83 bd b8 fd ff
	ff 05		 cmp	 DWORD PTR _i$1[ebp], 5
  002a2	0f 8d 65 01 00
	00		 jge	 $LN3@WritePerso

; 1403 : 	{
; 1404 : 		wsprintf(szReadKey, TEXT("PlayTurnLimit_%d"), i);

  002a8	8b 85 b8 fd ff
	ff		 mov	 eax, DWORD PTR _i$1[ebp]
  002ae	50		 push	 eax
  002af	68 00 00 00 00	 push	 OFFSET ??_C@_0BB@NDJBEBBP@PlayTurnLimit_?$CFd@
  002b4	8d 8d bc fd ff
	ff		 lea	 ecx, DWORD PTR _szReadKey$[ebp]
  002ba	51		 push	 ecx
  002bb	ff 15 00 00 00
	00		 call	 DWORD PTR __imp__wsprintfA
  002c1	83 c4 0c	 add	 esp, 12			; 0000000cH

; 1405 : 		WriteFileValue(TEXT("FeeParameter"), szReadKey, PersonalRoomOptionRightAndFee.stCreateRoomPayFee[i].dwPlayTurnLimit, szIniFile);

  002c4	8d 85 f0 fd ff
	ff		 lea	 eax, DWORD PTR _szIniFile$[ebp]
  002ca	50		 push	 eax
  002cb	6b 8d b8 fd ff
	ff 13		 imul	 ecx, DWORD PTR _i$1[ebp], 19
  002d2	8b 94 0d 92 00
	00 00		 mov	 edx, DWORD PTR _PersonalRoomOptionRightAndFee$[ebp+ecx+22]
  002d9	52		 push	 edx
  002da	8d 85 bc fd ff
	ff		 lea	 eax, DWORD PTR _szReadKey$[ebp]
  002e0	50		 push	 eax
  002e1	68 00 00 00 00	 push	 OFFSET ??_C@_0N@BPNJNFLH@FeeParameter@
  002e6	8b 4d f8	 mov	 ecx, DWORD PTR _this$[ebp]
  002e9	e8 00 00 00 00	 call	 ?WriteFileValue@CServerInfoManager@@QAEXPBD0I0@Z ; CServerInfoManager::WriteFileValue

; 1406 : 
; 1407 : 		wsprintf(szReadKey, TEXT("PayFee_%d"), i);

  002ee	8b 85 b8 fd ff
	ff		 mov	 eax, DWORD PTR _i$1[ebp]
  002f4	50		 push	 eax
  002f5	68 00 00 00 00	 push	 OFFSET ??_C@_09NPCPBNFG@PayFee_?$CFd@
  002fa	8d 8d bc fd ff
	ff		 lea	 ecx, DWORD PTR _szReadKey$[ebp]
  00300	51		 push	 ecx
  00301	ff 15 00 00 00
	00		 call	 DWORD PTR __imp__wsprintfA
  00307	83 c4 0c	 add	 esp, 12			; 0000000cH

; 1408 : 		WriteFileValue(TEXT("FeeParameter"), szReadKey, PersonalRoomOptionRightAndFee.stCreateRoomPayFee[i].dwPayFee, szIniFile);

  0030a	8d 85 f0 fd ff
	ff		 lea	 eax, DWORD PTR _szIniFile$[ebp]
  00310	50		 push	 eax
  00311	6b 8d b8 fd ff
	ff 13		 imul	 ecx, DWORD PTR _i$1[ebp], 19
  00318	8b 94 0d 9a 00
	00 00		 mov	 edx, DWORD PTR _PersonalRoomOptionRightAndFee$[ebp+ecx+30]
  0031f	52		 push	 edx
  00320	8d 85 bc fd ff
	ff		 lea	 eax, DWORD PTR _szReadKey$[ebp]
  00326	50		 push	 eax
  00327	68 00 00 00 00	 push	 OFFSET ??_C@_0N@BPNJNFLH@FeeParameter@
  0032c	8b 4d f8	 mov	 ecx, DWORD PTR _this$[ebp]
  0032f	e8 00 00 00 00	 call	 ?WriteFileValue@CServerInfoManager@@QAEXPBD0I0@Z ; CServerInfoManager::WriteFileValue

; 1409 : 		
; 1410 : 		wsprintf(szReadKey, TEXT("AAPayFee_%d"), i);

  00334	8b 85 b8 fd ff
	ff		 mov	 eax, DWORD PTR _i$1[ebp]
  0033a	50		 push	 eax
  0033b	68 00 00 00 00	 push	 OFFSET ??_C@_0M@PLHAIOPP@AAPayFee_?$CFd@
  00340	8d 8d bc fd ff
	ff		 lea	 ecx, DWORD PTR _szReadKey$[ebp]
  00346	51		 push	 ecx
  00347	ff 15 00 00 00
	00		 call	 DWORD PTR __imp__wsprintfA
  0034d	83 c4 0c	 add	 esp, 12			; 0000000cH

; 1411 : 		WriteFileValue(TEXT("FeeParameter"), szReadKey, PersonalRoomOptionRightAndFee.stCreateRoomPayFee[i].wAAPayFee, szIniFile);

  00350	8d 85 f0 fd ff
	ff		 lea	 eax, DWORD PTR _szIniFile$[ebp]
  00356	50		 push	 eax
  00357	6b 8d b8 fd ff
	ff 13		 imul	 ecx, DWORD PTR _i$1[ebp], 19
  0035e	0f b7 94 0d 9e
	00 00 00	 movzx	 edx, WORD PTR _PersonalRoomOptionRightAndFee$[ebp+ecx+34]
  00366	52		 push	 edx
  00367	8d 85 bc fd ff
	ff		 lea	 eax, DWORD PTR _szReadKey$[ebp]
  0036d	50		 push	 eax
  0036e	68 00 00 00 00	 push	 OFFSET ??_C@_0N@BPNJNFLH@FeeParameter@
  00373	8b 4d f8	 mov	 ecx, DWORD PTR _this$[ebp]
  00376	e8 00 00 00 00	 call	 ?WriteFileValue@CServerInfoManager@@QAEXPBD0I0@Z ; CServerInfoManager::WriteFileValue

; 1412 : 
; 1413 : 		wsprintf(szReadKey, TEXT("IniScore_%d"), i);

  0037b	8b 85 b8 fd ff
	ff		 mov	 eax, DWORD PTR _i$1[ebp]
  00381	50		 push	 eax
  00382	68 00 00 00 00	 push	 OFFSET ??_C@_0M@NFLEKBDJ@IniScore_?$CFd@
  00387	8d 8d bc fd ff
	ff		 lea	 ecx, DWORD PTR _szReadKey$[ebp]
  0038d	51		 push	 ecx
  0038e	ff 15 00 00 00
	00		 call	 DWORD PTR __imp__wsprintfA
  00394	83 c4 0c	 add	 esp, 12			; 0000000cH

; 1414 : 		WriteFileValue(TEXT("FeeParameter"), szReadKey, PersonalRoomOptionRightAndFee.stCreateRoomPayFee[i].dwIniScore, szIniFile);

  00397	8d 85 f0 fd ff
	ff		 lea	 eax, DWORD PTR _szIniFile$[ebp]
  0039d	50		 push	 eax
  0039e	6b 8d b8 fd ff
	ff 13		 imul	 ecx, DWORD PTR _i$1[ebp], 19
  003a5	8b 94 0d a0 00
	00 00		 mov	 edx, DWORD PTR _PersonalRoomOptionRightAndFee$[ebp+ecx+36]
  003ac	52		 push	 edx
  003ad	8d 85 bc fd ff
	ff		 lea	 eax, DWORD PTR _szReadKey$[ebp]
  003b3	50		 push	 eax
  003b4	68 00 00 00 00	 push	 OFFSET ??_C@_0N@BPNJNFLH@FeeParameter@
  003b9	8b 4d f8	 mov	 ecx, DWORD PTR _this$[ebp]
  003bc	e8 00 00 00 00	 call	 ?WriteFileValue@CServerInfoManager@@QAEXPBD0I0@Z ; CServerInfoManager::WriteFileValue

; 1415 : 
; 1416 : 		wsprintf(szReadKey, TEXT("GameMode_%d"), i);

  003c1	8b 85 b8 fd ff
	ff		 mov	 eax, DWORD PTR _i$1[ebp]
  003c7	50		 push	 eax
  003c8	68 00 00 00 00	 push	 OFFSET ??_C@_0M@MCMOAOCB@GameMode_?$CFd@
  003cd	8d 8d bc fd ff
	ff		 lea	 ecx, DWORD PTR _szReadKey$[ebp]
  003d3	51		 push	 ecx
  003d4	ff 15 00 00 00
	00		 call	 DWORD PTR __imp__wsprintfA
  003da	83 c4 0c	 add	 esp, 12			; 0000000cH

; 1417 : 		WriteFileValue(TEXT("FeeParameter"), szReadKey, PersonalRoomOptionRightAndFee.stCreateRoomPayFee[i].cbGameMode, szIniFile);

  003dd	8d 85 f0 fd ff
	ff		 lea	 eax, DWORD PTR _szIniFile$[ebp]
  003e3	50		 push	 eax
  003e4	6b 8d b8 fd ff
	ff 13		 imul	 ecx, DWORD PTR _i$1[ebp], 19
  003eb	0f b6 94 0d 91
	00 00 00	 movzx	 edx, BYTE PTR _PersonalRoomOptionRightAndFee$[ebp+ecx+21]
  003f3	52		 push	 edx
  003f4	8d 85 bc fd ff
	ff		 lea	 eax, DWORD PTR _szReadKey$[ebp]
  003fa	50		 push	 eax
  003fb	68 00 00 00 00	 push	 OFFSET ??_C@_0N@BPNJNFLH@FeeParameter@
  00400	8b 4d f8	 mov	 ecx, DWORD PTR _this$[ebp]
  00403	e8 00 00 00 00	 call	 ?WriteFileValue@CServerInfoManager@@QAEXPBD0I0@Z ; CServerInfoManager::WriteFileValue

; 1418 : 	}

  00408	e9 7f fe ff ff	 jmp	 $LN2@WritePerso
$LN3@WritePerso:

; 1419 : 
; 1420 : 	return true;

  0040d	b0 01		 mov	 al, 1

; 1421 : }

  0040f	5f		 pop	 edi
  00410	5e		 pop	 esi
  00411	5b		 pop	 ebx
  00412	8b 4d fc	 mov	 ecx, DWORD PTR __$ArrayPad$[ebp]
  00415	33 cd		 xor	 ecx, ebp
  00417	e8 00 00 00 00	 call	 @__security_check_cookie@4
  0041c	8b e5		 mov	 esp, ebp
  0041e	5d		 pop	 ebp
  0041f	c2 ec 00	 ret	 236			; 000000ecH
?WritePersonalRoomInfo@CServerInfoManager@@QAE_NUtagPersonalRoomOption@@UtagPersonalRoomOptionRightAndFee@@G@Z ENDP ; CServerInfoManager::WritePersonalRoomInfo
_TEXT	ENDS
; Function compile flags: /Odtp /ZI
; File g:\网狐\happygamewh\服务端\系统模块\服务器组件\模块管理\serverinfomanager.cpp
;	COMDAT ?WriteFileValue@CServerInfoManager@@QAEXPBD0I0@Z
_TEXT	SEGMENT
_szString$ = -24					; size = 16
_this$ = -8						; size = 4
__$ArrayPad$ = -4					; size = 4
_pszKeyName$ = 8					; size = 4
_pszItemName$ = 12					; size = 4
_nValue$ = 16						; size = 4
_szPath$ = 20						; size = 4
?WriteFileValue@CServerInfoManager@@QAEXPBD0I0@Z PROC	; CServerInfoManager::WriteFileValue, COMDAT
; _this$ = ecx

; 1356 : {

  00000	55		 push	 ebp
  00001	8b ec		 mov	 ebp, esp
  00003	83 ec 58	 sub	 esp, 88			; 00000058H
  00006	a1 00 00 00 00	 mov	 eax, DWORD PTR ___security_cookie
  0000b	33 c5		 xor	 eax, ebp
  0000d	89 45 fc	 mov	 DWORD PTR __$ArrayPad$[ebp], eax
  00010	53		 push	 ebx
  00011	56		 push	 esi
  00012	57		 push	 edi
  00013	89 4d f8	 mov	 DWORD PTR _this$[ebp], ecx

; 1357 : 
; 1358 : 	//构造数据
; 1359 : 	TCHAR szString[16]=TEXT("");

  00016	a0 00 00 00 00	 mov	 al, BYTE PTR ??_C@_00CNPNBAHC@@
  0001b	88 45 e8	 mov	 BYTE PTR _szString$[ebp], al
  0001e	33 c0		 xor	 eax, eax
  00020	89 45 e9	 mov	 DWORD PTR _szString$[ebp+1], eax
  00023	89 45 ed	 mov	 DWORD PTR _szString$[ebp+5], eax
  00026	89 45 f1	 mov	 DWORD PTR _szString$[ebp+9], eax
  00029	66 89 45 f5	 mov	 WORD PTR _szString$[ebp+13], ax
  0002d	88 45 f7	 mov	 BYTE PTR _szString$[ebp+15], al

; 1360 : 	_sntprintf(szString,CountArray(szString),TEXT("%d"),nValue);

  00030	8b 45 10	 mov	 eax, DWORD PTR _nValue$[ebp]
  00033	50		 push	 eax
  00034	68 00 00 00 00	 push	 OFFSET ??_C@_02DPKJAMEF@?$CFd@
  00039	6a 10		 push	 16			; 00000010H
  0003b	8d 4d e8	 lea	 ecx, DWORD PTR _szString$[ebp]
  0003e	51		 push	 ecx
  0003f	e8 00 00 00 00	 call	 __snprintf
  00044	83 c4 10	 add	 esp, 16			; 00000010H

; 1361 : 
; 1362 : 	//写入数据
; 1363 : 	WritePrivateProfileString(pszKeyName,pszItemName,szString,szPath);

  00047	8b 45 14	 mov	 eax, DWORD PTR _szPath$[ebp]
  0004a	50		 push	 eax
  0004b	8d 4d e8	 lea	 ecx, DWORD PTR _szString$[ebp]
  0004e	51		 push	 ecx
  0004f	8b 55 0c	 mov	 edx, DWORD PTR _pszItemName$[ebp]
  00052	52		 push	 edx
  00053	8b 45 08	 mov	 eax, DWORD PTR _pszKeyName$[ebp]
  00056	50		 push	 eax
  00057	ff 15 00 00 00
	00		 call	 DWORD PTR __imp__WritePrivateProfileStringA@16

; 1364 : 
; 1365 : 	return;
; 1366 : }

  0005d	5f		 pop	 edi
  0005e	5e		 pop	 esi
  0005f	5b		 pop	 ebx
  00060	8b 4d fc	 mov	 ecx, DWORD PTR __$ArrayPad$[ebp]
  00063	33 cd		 xor	 ecx, ebp
  00065	e8 00 00 00 00	 call	 @__security_check_cookie@4
  0006a	8b e5		 mov	 esp, ebp
  0006c	5d		 pop	 ebp
  0006d	c2 10 00	 ret	 16			; 00000010H
?WriteFileValue@CServerInfoManager@@QAEXPBD0I0@Z ENDP	; CServerInfoManager::WriteFileValue
_TEXT	ENDS
; Function compile flags: /Odtp /ZI
; File g:\网狐\happygamewh\服务端\系统模块\服务器组件\模块管理\serverinfomanager.cpp
;	COMDAT ?ModifyPersonalRoomParameter@CServerInfoManager@@QAE_NVCDataBaseAide@@UtagPersonalRoomOption@@UtagPersonalRoomOptionRightAndFee@@GG@Z
_TEXT	SEGMENT
tv453 = -496						; size = 4
tv452 = -496						; size = 4
tv451 = -496						; size = 4
tv450 = -496						; size = 4
tv449 = -496						; size = 4
$T2 = -492						; size = 1
$T3 = -491						; size = 1
$T4 = -490						; size = 1
$T5 = -489						; size = 1
_pszDescribe$6 = -424					; size = 4
_pIException$7 = -420					; size = 4
_szDescribeString$8 = -416				; size = 128
_i$9 = -288						; size = 4
_szDescribeString$10 = -284				; size = 128
_i$11 = -156						; size = 4
_szDescribeString$12 = -152				; size = 128
_this$ = -24						; size = 4
__$ArrayPad$ = -20					; size = 4
__$EHRec$ = -16						; size = 16
_PlatformDBAide$ = 8					; size = 8
_PersonalRoomOption$ = 16				; size = 113
_PersonalRoomOptionRightAndFee$ = 132			; size = 116
_dwServerID$ = 248					; size = 2
_dwKindID$ = 252					; size = 2
?ModifyPersonalRoomParameter@CServerInfoManager@@QAE_NVCDataBaseAide@@UtagPersonalRoomOption@@UtagPersonalRoomOptionRightAndFee@@GG@Z PROC ; CServerInfoManager::ModifyPersonalRoomParameter, COMDAT
; _this$ = ecx

; 1192 : {

  00000	55		 push	 ebp
  00001	8b ec		 mov	 ebp, esp
  00003	6a ff		 push	 -1
  00005	68 00 00 00 00	 push	 __ehhandler$?ModifyPersonalRoomParameter@CServerInfoManager@@QAE_NVCDataBaseAide@@UtagPersonalRoomOption@@UtagPersonalRoomOptionRightAndFee@@GG@Z
  0000a	64 a1 00 00 00
	00		 mov	 eax, DWORD PTR fs:0
  00010	50		 push	 eax
  00011	51		 push	 ecx
  00012	81 ec e0 01 00
	00		 sub	 esp, 480		; 000001e0H
  00018	a1 00 00 00 00	 mov	 eax, DWORD PTR ___security_cookie
  0001d	33 c5		 xor	 eax, ebp
  0001f	89 45 ec	 mov	 DWORD PTR __$ArrayPad$[ebp], eax
  00022	53		 push	 ebx
  00023	56		 push	 esi
  00024	57		 push	 edi
  00025	50		 push	 eax
  00026	8d 45 f4	 lea	 eax, DWORD PTR __$EHRec$[ebp+4]
  00029	64 a3 00 00 00
	00		 mov	 DWORD PTR fs:0, eax
  0002f	89 65 f0	 mov	 DWORD PTR __$EHRec$[ebp], esp
  00032	89 4d e8	 mov	 DWORD PTR _this$[ebp], ecx
  00035	c7 45 fc 00 00
	00 00		 mov	 DWORD PTR __$EHRec$[ebp+12], 0

; 1193 : 	try

  0003c	c6 45 fc 01	 mov	 BYTE PTR __$EHRec$[ebp+12], 1

; 1194 : 	{
; 1195 : 		//插入参数
; 1196 : 		PlatformDBAide.ResetParameter();

  00040	8d 4d 08	 lea	 ecx, DWORD PTR _PlatformDBAide$[ebp]
  00043	ff 15 00 00 00
	00		 call	 DWORD PTR __imp_?ResetParameter@CDataBaseAide@@QAEXXZ

; 1197 : 		PlatformDBAide.AddParameter(TEXT("@dwServerID"),dwServerID);

  00049	6a 01		 push	 1
  0004b	0f b7 85 f8 00
	00 00		 movzx	 eax, WORD PTR _dwServerID$[ebp]
  00052	50		 push	 eax
  00053	68 00 00 00 00	 push	 OFFSET ??_C@_0M@EODDKFON@?$EAdwServerID@
  00058	8d 4d 08	 lea	 ecx, DWORD PTR _PlatformDBAide$[ebp]
  0005b	ff 15 00 00 00
	00		 call	 DWORD PTR __imp_?AddParameter@CDataBaseAide@@QAEXPBDGW4ParameterDirectionEnum@ADOCG@@@Z

; 1198 : 		PlatformDBAide.AddParameter(TEXT("@wKindID"),dwKindID);

  00061	6a 01		 push	 1
  00063	0f b7 85 fc 00
	00 00		 movzx	 eax, WORD PTR _dwKindID$[ebp]
  0006a	50		 push	 eax
  0006b	68 00 00 00 00	 push	 OFFSET ??_C@_08HBBOJKPI@?$EAwKindID@
  00070	8d 4d 08	 lea	 ecx, DWORD PTR _PlatformDBAide$[ebp]
  00073	ff 15 00 00 00
	00		 call	 DWORD PTR __imp_?AddParameter@CDataBaseAide@@QAEXPBDGW4ParameterDirectionEnum@ADOCG@@@Z

; 1199 : 		//PlatformDBAide.AddParameter(TEXT("@lDiamondCount"),PersonalRoomOption.lFeeCardOrBeanCount);
; 1200 : 		PlatformDBAide.AddParameter(TEXT("@cbIsJoinGame"),PersonalRoomOption.cbIsJoinGame);

  00079	6a 01		 push	 1
  0007b	0f b6 45 10	 movzx	 eax, BYTE PTR _PersonalRoomOption$[ebp]
  0007f	50		 push	 eax
  00080	68 00 00 00 00	 push	 OFFSET ??_C@_0O@PHLNKDAD@?$EAcbIsJoinGame@
  00085	8d 4d 08	 lea	 ecx, DWORD PTR _PlatformDBAide$[ebp]
  00088	ff 15 00 00 00
	00		 call	 DWORD PTR __imp_?AddParameter@CDataBaseAide@@QAEXPBDEW4ParameterDirectionEnum@ADOCG@@@Z

; 1201 : 		PlatformDBAide.AddParameter(TEXT("@cbMinPeople"),PersonalRoomOption.cbMinPeople);

  0008e	6a 01		 push	 1
  00090	0f b6 45 11	 movzx	 eax, BYTE PTR _PersonalRoomOption$[ebp+1]
  00094	50		 push	 eax
  00095	68 00 00 00 00	 push	 OFFSET ??_C@_0N@BGGBCKEJ@?$EAcbMinPeople@
  0009a	8d 4d 08	 lea	 ecx, DWORD PTR _PlatformDBAide$[ebp]
  0009d	ff 15 00 00 00
	00		 call	 DWORD PTR __imp_?AddParameter@CDataBaseAide@@QAEXPBDEW4ParameterDirectionEnum@ADOCG@@@Z

; 1202 : 		PlatformDBAide.AddParameter(TEXT("@cbMaxPeople"),PersonalRoomOption.cbMaxPeople);

  000a3	6a 01		 push	 1
  000a5	0f b6 45 12	 movzx	 eax, BYTE PTR _PersonalRoomOption$[ebp+2]
  000a9	50		 push	 eax
  000aa	68 00 00 00 00	 push	 OFFSET ??_C@_0N@BHGNLAPN@?$EAcbMaxPeople@
  000af	8d 4d 08	 lea	 ecx, DWORD PTR _PlatformDBAide$[ebp]
  000b2	ff 15 00 00 00
	00		 call	 DWORD PTR __imp_?AddParameter@CDataBaseAide@@QAEXPBDEW4ParameterDirectionEnum@ADOCG@@@Z

; 1203 : 		PlatformDBAide.AddParameter(TEXT("@lPersonalRoomTax"),PersonalRoomOption.lPersonalRoomTax);

  000b8	6a 01		 push	 1
  000ba	8b 45 1f	 mov	 eax, DWORD PTR _PersonalRoomOption$[ebp+15]
  000bd	50		 push	 eax
  000be	8b 4d 1b	 mov	 ecx, DWORD PTR _PersonalRoomOption$[ebp+11]
  000c1	51		 push	 ecx
  000c2	68 00 00 00 00	 push	 OFFSET ??_C@_0BC@LFDMHEEC@?$EAlPersonalRoomTax@
  000c7	8d 4d 08	 lea	 ecx, DWORD PTR _PlatformDBAide$[ebp]
  000ca	ff 15 00 00 00
	00		 call	 DWORD PTR __imp_?AddParameter@CDataBaseAide@@QAEXPBD_JW4ParameterDirectionEnum@ADOCG@@@Z

; 1204 : 		PlatformDBAide.AddParameter(TEXT("@lMaxCellScore"),PersonalRoomOption.lMaxCellScore);

  000d0	6a 01		 push	 1
  000d2	8b 45 17	 mov	 eax, DWORD PTR _PersonalRoomOption$[ebp+7]
  000d5	50		 push	 eax
  000d6	8b 4d 13	 mov	 ecx, DWORD PTR _PersonalRoomOption$[ebp+3]
  000d9	51		 push	 ecx
  000da	68 00 00 00 00	 push	 OFFSET ??_C@_0P@JJFBKDAF@?$EAlMaxCellScore@
  000df	8d 4d 08	 lea	 ecx, DWORD PTR _PlatformDBAide$[ebp]
  000e2	ff 15 00 00 00
	00		 call	 DWORD PTR __imp_?AddParameter@CDataBaseAide@@QAEXPBD_JW4ParameterDirectionEnum@ADOCG@@@Z

; 1205 : 		PlatformDBAide.AddParameter(TEXT("@wCanCreateCount"),PersonalRoomOption.wCanCreateCount);

  000e8	6a 01		 push	 1
  000ea	0f b7 45 63	 movzx	 eax, WORD PTR _PersonalRoomOption$[ebp+83]
  000ee	50		 push	 eax
  000ef	68 00 00 00 00	 push	 OFFSET ??_C@_0BB@NMCMDDIO@?$EAwCanCreateCount@
  000f4	8d 4d 08	 lea	 ecx, DWORD PTR _PlatformDBAide$[ebp]
  000f7	ff 15 00 00 00
	00		 call	 DWORD PTR __imp_?AddParameter@CDataBaseAide@@QAEXPBDGW4ParameterDirectionEnum@ADOCG@@@Z

; 1206 : 		PlatformDBAide.AddParameter(TEXT("@wPlayTurnCount"),PersonalRoomOption.dwPlayTurnCount);

  000fd	6a 01		 push	 1
  000ff	8b 45 65	 mov	 eax, DWORD PTR _PersonalRoomOption$[ebp+85]
  00102	50		 push	 eax
  00103	68 00 00 00 00	 push	 OFFSET ??_C@_0BA@NNNPOABK@?$EAwPlayTurnCount@
  00108	8d 4d 08	 lea	 ecx, DWORD PTR _PlatformDBAide$[ebp]
  0010b	ff 15 00 00 00
	00		 call	 DWORD PTR __imp_?AddParameter@CDataBaseAide@@QAEXPBDKW4ParameterDirectionEnum@ADOCG@@@Z

; 1207 : 		PlatformDBAide.AddParameter(TEXT("@wPlayTimeLimit"),PersonalRoomOption.dwPlayTimeLimit);

  00111	6a 01		 push	 1
  00113	8b 45 69	 mov	 eax, DWORD PTR _PersonalRoomOption$[ebp+89]
  00116	50		 push	 eax
  00117	68 00 00 00 00	 push	 OFFSET ??_C@_0BA@NOEDAIIC@?$EAwPlayTimeLimit@
  0011c	8d 4d 08	 lea	 ecx, DWORD PTR _PlatformDBAide$[ebp]
  0011f	ff 15 00 00 00
	00		 call	 DWORD PTR __imp_?AddParameter@CDataBaseAide@@QAEXPBDKW4ParameterDirectionEnum@ADOCG@@@Z

; 1208 : 
; 1209 : 		if (PersonalRoomOption.dwTimeAfterBeginCount == 0)

  00125	83 7d 6d 00	 cmp	 DWORD PTR _PersonalRoomOption$[ebp+93], 0
  00129	75 07		 jne	 SHORT $LN9@ModifyPers

; 1210 : 		{
; 1211 : 			PersonalRoomOption.dwTimeAfterBeginCount  = 1400;

  0012b	c7 45 6d 78 05
	00 00		 mov	 DWORD PTR _PersonalRoomOption$[ebp+93], 1400 ; 00000578H
$LN9@ModifyPers:

; 1212 : 		}
; 1213 : 
; 1214 : 		if (PersonalRoomOption.dwTimeOffLineCount == 0)

  00132	83 7d 71 00	 cmp	 DWORD PTR _PersonalRoomOption$[ebp+97], 0
  00136	75 07		 jne	 SHORT $LN10@ModifyPers

; 1215 : 		{
; 1216 : 			PersonalRoomOption.dwTimeOffLineCount  = 1400;

  00138	c7 45 71 78 05
	00 00		 mov	 DWORD PTR _PersonalRoomOption$[ebp+97], 1400 ; 00000578H
$LN10@ModifyPers:

; 1217 : 		}
; 1218 : 
; 1219 : 		if (PersonalRoomOption.dwTimeNotBeginGame == 0)

  0013f	83 7d 75 00	 cmp	 DWORD PTR _PersonalRoomOption$[ebp+101], 0
  00143	75 07		 jne	 SHORT $LN11@ModifyPers

; 1220 : 		{
; 1221 : 			PersonalRoomOption.dwTimeNotBeginGame  = 1400;

  00145	c7 45 75 78 05
	00 00		 mov	 DWORD PTR _PersonalRoomOption$[ebp+101], 1400 ; 00000578H
$LN11@ModifyPers:

; 1222 : 		}
; 1223 : 
; 1224 : 		if (PersonalRoomOption.dwTimeAfterCreateRoom == 0)

  0014c	83 7d 79 00	 cmp	 DWORD PTR _PersonalRoomOption$[ebp+105], 0
  00150	75 07		 jne	 SHORT $LN12@ModifyPers

; 1225 : 		{
; 1226 : 			PersonalRoomOption.dwTimeAfterCreateRoom  = 1400;

  00152	c7 45 79 78 05
	00 00		 mov	 DWORD PTR _PersonalRoomOption$[ebp+105], 1400 ; 00000578H
$LN12@ModifyPers:

; 1227 : 		}
; 1228 : 		PlatformDBAide.AddParameter(TEXT("@wTimeAfterBeginCount"),PersonalRoomOption.dwTimeAfterBeginCount);

  00159	6a 01		 push	 1
  0015b	8b 45 6d	 mov	 eax, DWORD PTR _PersonalRoomOption$[ebp+93]
  0015e	50		 push	 eax
  0015f	68 00 00 00 00	 push	 OFFSET ??_C@_0BG@PLKJOLIC@?$EAwTimeAfterBeginCount@
  00164	8d 4d 08	 lea	 ecx, DWORD PTR _PlatformDBAide$[ebp]
  00167	ff 15 00 00 00
	00		 call	 DWORD PTR __imp_?AddParameter@CDataBaseAide@@QAEXPBDKW4ParameterDirectionEnum@ADOCG@@@Z

; 1229 : 		PlatformDBAide.AddParameter(TEXT("@wTimeOffLineCount"),PersonalRoomOption.dwTimeOffLineCount);

  0016d	6a 01		 push	 1
  0016f	8b 45 71	 mov	 eax, DWORD PTR _PersonalRoomOption$[ebp+97]
  00172	50		 push	 eax
  00173	68 00 00 00 00	 push	 OFFSET ??_C@_0BD@GBNNIIBP@?$EAwTimeOffLineCount@
  00178	8d 4d 08	 lea	 ecx, DWORD PTR _PlatformDBAide$[ebp]
  0017b	ff 15 00 00 00
	00		 call	 DWORD PTR __imp_?AddParameter@CDataBaseAide@@QAEXPBDKW4ParameterDirectionEnum@ADOCG@@@Z

; 1230 : 		PlatformDBAide.AddParameter(TEXT("@wTimeNotBeginGame"),PersonalRoomOption.dwTimeNotBeginGame);

  00181	6a 01		 push	 1
  00183	8b 45 75	 mov	 eax, DWORD PTR _PersonalRoomOption$[ebp+101]
  00186	50		 push	 eax
  00187	68 00 00 00 00	 push	 OFFSET ??_C@_0BD@DDANILFF@?$EAwTimeNotBeginGame@
  0018c	8d 4d 08	 lea	 ecx, DWORD PTR _PlatformDBAide$[ebp]
  0018f	ff 15 00 00 00
	00		 call	 DWORD PTR __imp_?AddParameter@CDataBaseAide@@QAEXPBDKW4ParameterDirectionEnum@ADOCG@@@Z

; 1231 : 		PlatformDBAide.AddParameter(TEXT("@wTimeNotBeginAfterCreateRoom"),PersonalRoomOption.dwTimeAfterCreateRoom);

  00195	6a 01		 push	 1
  00197	8b 45 79	 mov	 eax, DWORD PTR _PersonalRoomOption$[ebp+105]
  0019a	50		 push	 eax
  0019b	68 00 00 00 00	 push	 OFFSET ??_C@_0BO@GAPHEMLN@?$EAwTimeNotBeginAfterCreateRoom@
  001a0	8d 4d 08	 lea	 ecx, DWORD PTR _PlatformDBAide$[ebp]
  001a3	ff 15 00 00 00
	00		 call	 DWORD PTR __imp_?AddParameter@CDataBaseAide@@QAEXPBDKW4ParameterDirectionEnum@ADOCG@@@Z

; 1232 : 		PlatformDBAide.AddParameter(TEXT("@cbCreateRight"),PersonalRoomOptionRightAndFee.cbCreateRight);

  001a9	6a 01		 push	 1
  001ab	0f b6 85 84 00
	00 00		 movzx	 eax, BYTE PTR _PersonalRoomOptionRightAndFee$[ebp]
  001b2	50		 push	 eax
  001b3	68 00 00 00 00	 push	 OFFSET ??_C@_0P@GODHDPFL@?$EAcbCreateRight@
  001b8	8d 4d 08	 lea	 ecx, DWORD PTR _PlatformDBAide$[ebp]
  001bb	ff 15 00 00 00
	00		 call	 DWORD PTR __imp_?AddParameter@CDataBaseAide@@QAEXPBDEW4ParameterDirectionEnum@ADOCG@@@Z

; 1233 : 		
; 1234 : 		PlatformDBAide.AddParameter(TEXT("@wBeginFreeTime"), PersonalRoomOption.wBeginFreeTime);

  001c1	6a 01		 push	 1
  001c3	0f b7 45 7d	 movzx	 eax, WORD PTR _PersonalRoomOption$[ebp+109]
  001c7	50		 push	 eax
  001c8	68 00 00 00 00	 push	 OFFSET ??_C@_0BA@LKGDNDNG@?$EAwBeginFreeTime@
  001cd	8d 4d 08	 lea	 ecx, DWORD PTR _PlatformDBAide$[ebp]
  001d0	ff 15 00 00 00
	00		 call	 DWORD PTR __imp_?AddParameter@CDataBaseAide@@QAEXPBDGW4ParameterDirectionEnum@ADOCG@@@Z

; 1235 : 		PlatformDBAide.AddParameter(TEXT("@wEndFreeTime"), PersonalRoomOption.wEndFreeTime);

  001d6	6a 01		 push	 1
  001d8	0f b7 45 7f	 movzx	 eax, WORD PTR _PersonalRoomOption$[ebp+111]
  001dc	50		 push	 eax
  001dd	68 00 00 00 00	 push	 OFFSET ??_C@_0O@MLGGNFBJ@?$EAwEndFreeTime@
  001e2	8d 4d 08	 lea	 ecx, DWORD PTR _PlatformDBAide$[ebp]
  001e5	ff 15 00 00 00
	00		 call	 DWORD PTR __imp_?AddParameter@CDataBaseAide@@QAEXPBDGW4ParameterDirectionEnum@ADOCG@@@Z

; 1236 : 		//输出信息
; 1237 : 		TCHAR szDescribeString[128]=TEXT("");

  001eb	a0 00 00 00 00	 mov	 al, BYTE PTR ??_C@_00CNPNBAHC@@
  001f0	88 85 68 ff ff
	ff		 mov	 BYTE PTR _szDescribeString$12[ebp], al
  001f6	6a 7f		 push	 127			; 0000007fH
  001f8	6a 00		 push	 0
  001fa	8d 85 69 ff ff
	ff		 lea	 eax, DWORD PTR _szDescribeString$12[ebp+1]
  00200	50		 push	 eax
  00201	e8 00 00 00 00	 call	 _memset
  00206	83 c4 0c	 add	 esp, 12			; 0000000cH

; 1238 : 		PlatformDBAide.AddParameterOutput(TEXT("@strErrorDescribe"),szDescribeString,sizeof(szDescribeString),adParamOutput);

  00209	6a 02		 push	 2
  0020b	68 80 00 00 00	 push	 128			; 00000080H
  00210	8d 85 68 ff ff
	ff		 lea	 eax, DWORD PTR _szDescribeString$12[ebp]
  00216	50		 push	 eax
  00217	68 00 00 00 00	 push	 OFFSET ??_C@_0BC@IIOJPJPJ@?$EAstrErrorDescribe@
  0021c	8d 4d 08	 lea	 ecx, DWORD PTR _PlatformDBAide$[ebp]
  0021f	ff 15 00 00 00
	00		 call	 DWORD PTR __imp_?AddParameterOutput@CDataBaseAide@@QAEXPBDPADIW4ParameterDirectionEnum@ADOCG@@@Z

; 1239 : 
; 1240 : 		//执行命令
; 1241 : 		if (PlatformDBAide.ExecuteProcess(TEXT("GSP_GS_ModifyPersonalRoomParameter"),true)!=DB_SUCCESS)

  00225	6a 01		 push	 1
  00227	68 00 00 00 00	 push	 OFFSET ??_C@_0CD@IBOJDKIM@GSP_GS_ModifyPersonalRoomParame@
  0022c	8d 4d 08	 lea	 ecx, DWORD PTR _PlatformDBAide$[ebp]
  0022f	ff 15 00 00 00
	00		 call	 DWORD PTR __imp_?ExecuteProcess@CDataBaseAide@@QAEJPBD_N@Z
  00235	89 85 10 fe ff
	ff		 mov	 DWORD PTR tv449[ebp], eax
  0023b	83 bd 10 fe ff
	ff 00		 cmp	 DWORD PTR tv449[ebp], 0
  00242	74 5e		 je	 SHORT $LN13@ModifyPers

; 1242 : 		{
; 1243 : 			//获取信息
; 1244 : 			PlatformDBAide.GetParameter(TEXT("@strErrorDescribe"),szDescribeString,CountArray(szDescribeString));

  00244	68 80 00 00 00	 push	 128			; 00000080H
  00249	8d 85 68 ff ff
	ff		 lea	 eax, DWORD PTR _szDescribeString$12[ebp]
  0024f	50		 push	 eax
  00250	68 00 00 00 00	 push	 OFFSET ??_C@_0BC@IIOJPJPJ@?$EAstrErrorDescribe@
  00255	8d 4d 08	 lea	 ecx, DWORD PTR _PlatformDBAide$[ebp]
  00258	ff 15 00 00 00
	00		 call	 DWORD PTR __imp_?GetParameter@CDataBaseAide@@QAEXPBDPADI@Z

; 1245 : 
; 1246 : 			//错误提示
; 1247 : 			CTraceService::TraceString(szDescribeString,TraceLevel_Exception);

  0025e	6a 03		 push	 3
  00260	8d 85 68 ff ff
	ff		 lea	 eax, DWORD PTR _szDescribeString$12[ebp]
  00266	50		 push	 eax
  00267	ff 15 00 00 00
	00		 call	 DWORD PTR __imp_?TraceString@CTraceService@@SA_NPBDW4enTraceLevel@@@Z
  0026d	83 c4 08	 add	 esp, 8

; 1248 : 
; 1249 : 			//错误提示
; 1250 : 			AfxMessageBox(szDescribeString,MB_ICONERROR);

  00270	6a 00		 push	 0
  00272	6a 10		 push	 16			; 00000010H
  00274	8d 85 68 ff ff
	ff		 lea	 eax, DWORD PTR _szDescribeString$12[ebp]
  0027a	50		 push	 eax
  0027b	e8 00 00 00 00	 call	 ?AfxMessageBox@@YGHPBDII@Z ; AfxMessageBox

; 1251 : 
; 1252 : 			return false;

  00280	c6 85 17 fe ff
	ff 00		 mov	 BYTE PTR $T5[ebp], 0
  00287	c7 45 fc ff ff
	ff ff		 mov	 DWORD PTR __$EHRec$[ebp+12], -1
  0028e	8d 4d 08	 lea	 ecx, DWORD PTR _PlatformDBAide$[ebp]
  00291	ff 15 00 00 00
	00		 call	 DWORD PTR __imp_??1CDataBaseAide@@UAE@XZ
  00297	8a 85 17 fe ff
	ff		 mov	 al, BYTE PTR $T5[ebp]
  0029d	e9 ba 04 00 00	 jmp	 $LN1@ModifyPers
$LN13@ModifyPers:

; 1253 : 		}
; 1254 : 
; 1255 : 		PlatformDBAide.ResetParameter();

  002a2	8d 4d 08	 lea	 ecx, DWORD PTR _PlatformDBAide$[ebp]
  002a5	ff 15 00 00 00
	00		 call	 DWORD PTR __imp_?ResetParameter@CDataBaseAide@@QAEXXZ

; 1256 : 		PlatformDBAide.AddParameter(TEXT("@wKindID"),dwKindID);

  002ab	6a 01		 push	 1
  002ad	0f b7 85 fc 00
	00 00		 movzx	 eax, WORD PTR _dwKindID$[ebp]
  002b4	50		 push	 eax
  002b5	68 00 00 00 00	 push	 OFFSET ??_C@_08HBBOJKPI@?$EAwKindID@
  002ba	8d 4d 08	 lea	 ecx, DWORD PTR _PlatformDBAide$[ebp]
  002bd	ff 15 00 00 00
	00		 call	 DWORD PTR __imp_?AddParameter@CDataBaseAide@@QAEXPBDGW4ParameterDirectionEnum@ADOCG@@@Z

; 1257 : 		PlatformDBAide.AddParameterOutput(TEXT("@strErrorDescribe"),szDescribeString,sizeof(szDescribeString),adParamOutput);

  002c3	6a 02		 push	 2
  002c5	68 80 00 00 00	 push	 128			; 00000080H
  002ca	8d 85 68 ff ff
	ff		 lea	 eax, DWORD PTR _szDescribeString$12[ebp]
  002d0	50		 push	 eax
  002d1	68 00 00 00 00	 push	 OFFSET ??_C@_0BC@IIOJPJPJ@?$EAstrErrorDescribe@
  002d6	8d 4d 08	 lea	 ecx, DWORD PTR _PlatformDBAide$[ebp]
  002d9	ff 15 00 00 00
	00		 call	 DWORD PTR __imp_?AddParameterOutput@CDataBaseAide@@QAEXPBDPADIW4ParameterDirectionEnum@ADOCG@@@Z

; 1258 : 
; 1259 : 		if (PlatformDBAide.ExecuteProcess(TEXT("GSP_GS_DeletePersonalFeeParameter"),true) ==DB_SUCCESS)

  002df	6a 01		 push	 1
  002e1	68 00 00 00 00	 push	 OFFSET ??_C@_0CC@PJKIIGNE@GSP_GS_DeletePersonalFeeParamet@
  002e6	8d 4d 08	 lea	 ecx, DWORD PTR _PlatformDBAide$[ebp]
  002e9	ff 15 00 00 00
	00		 call	 DWORD PTR __imp_?ExecuteProcess@CDataBaseAide@@QAEJPBD_N@Z
  002ef	89 85 10 fe ff
	ff		 mov	 DWORD PTR tv450[ebp], eax
  002f5	83 bd 10 fe ff
	ff 00		 cmp	 DWORD PTR tv450[ebp], 0
  002fc	0f 85 42 02 00
	00		 jne	 $LN14@ModifyPers

; 1260 : 		{
; 1261 : 			if (PersonalRoomOptionRightAndFee.stCreateRoomPayFee[0].dwPlayTimeLimit == 0 && PersonalRoomOptionRightAndFee.stCreateRoomPayFee[0].dwPlayTurnLimit == 0)

  00302	b8 13 00 00 00	 mov	 eax, 19			; 00000013H
  00307	6b c8 00	 imul	 ecx, eax, 0
  0030a	83 bc 0d 9e 00
	00 00 00	 cmp	 DWORD PTR _PersonalRoomOptionRightAndFee$[ebp+ecx+26], 0
  00312	75 4b		 jne	 SHORT $LN15@ModifyPers
  00314	b8 13 00 00 00	 mov	 eax, 19			; 00000013H
  00319	6b c8 00	 imul	 ecx, eax, 0
  0031c	83 bc 0d 9a 00
	00 00 00	 cmp	 DWORD PTR _PersonalRoomOptionRightAndFee$[ebp+ecx+22], 0
  00324	75 39		 jne	 SHORT $LN15@ModifyPers

; 1262 : 			{
; 1263 : 				PersonalRoomOptionRightAndFee.stCreateRoomPayFee[0].dwPlayTurnLimit = 5;

  00326	b8 13 00 00 00	 mov	 eax, 19			; 00000013H
  0032b	6b c8 00	 imul	 ecx, eax, 0
  0032e	c7 84 0d 9a 00
	00 00 05 00 00
	00		 mov	 DWORD PTR _PersonalRoomOptionRightAndFee$[ebp+ecx+22], 5

; 1264 : 				PersonalRoomOptionRightAndFee.stCreateRoomPayFee[0].dwPayFee = 1;

  00339	b8 13 00 00 00	 mov	 eax, 19			; 00000013H
  0033e	6b c8 00	 imul	 ecx, eax, 0
  00341	c7 84 0d a2 00
	00 00 01 00 00
	00		 mov	 DWORD PTR _PersonalRoomOptionRightAndFee$[ebp+ecx+30], 1

; 1265 : 				PersonalRoomOptionRightAndFee.stCreateRoomPayFee[0].dwIniScore = 1000;

  0034c	b8 13 00 00 00	 mov	 eax, 19			; 00000013H
  00351	6b c8 00	 imul	 ecx, eax, 0
  00354	c7 84 0d a8 00
	00 00 e8 03 00
	00		 mov	 DWORD PTR _PersonalRoomOptionRightAndFee$[ebp+ecx+36], 1000 ; 000003e8H
$LN15@ModifyPers:

; 1266 : 			}
; 1267 : 
; 1268 : 			for (int i = 0; i < FEE_OPTION_COUNT; i++)

  0035f	c7 85 64 ff ff
	ff 00 00 00 00	 mov	 DWORD PTR _i$11[ebp], 0
  00369	eb 0f		 jmp	 SHORT $LN4@ModifyPers
$LN2@ModifyPers:
  0036b	8b 85 64 ff ff
	ff		 mov	 eax, DWORD PTR _i$11[ebp]
  00371	83 c0 01	 add	 eax, 1
  00374	89 85 64 ff ff
	ff		 mov	 DWORD PTR _i$11[ebp], eax
$LN4@ModifyPers:
  0037a	83 bd 64 ff ff
	ff 05		 cmp	 DWORD PTR _i$11[ebp], 5
  00381	0f 8d bd 01 00
	00		 jge	 $LN14@ModifyPers

; 1269 : 			{
; 1270 : 				if (PersonalRoomOptionRightAndFee.stCreateRoomPayFee[i].dwPlayTimeLimit != 0 || PersonalRoomOptionRightAndFee.stCreateRoomPayFee[i].dwPlayTurnLimit != 0)

  00387	6b 85 64 ff ff
	ff 13		 imul	 eax, DWORD PTR _i$11[ebp], 19
  0038e	83 bc 05 9e 00
	00 00 00	 cmp	 DWORD PTR _PersonalRoomOptionRightAndFee$[ebp+eax+26], 0
  00396	75 15		 jne	 SHORT $LN17@ModifyPers
  00398	6b 85 64 ff ff
	ff 13		 imul	 eax, DWORD PTR _i$11[ebp], 19
  0039f	83 bc 05 9a 00
	00 00 00	 cmp	 DWORD PTR _PersonalRoomOptionRightAndFee$[ebp+eax+22], 0
  003a7	0f 84 92 01 00
	00		 je	 $LN16@ModifyPers
$LN17@ModifyPers:

; 1271 : 				{
; 1272 : 					//插入参数
; 1273 : 					PlatformDBAide.ResetParameter();

  003ad	8d 4d 08	 lea	 ecx, DWORD PTR _PlatformDBAide$[ebp]
  003b0	ff 15 00 00 00
	00		 call	 DWORD PTR __imp_?ResetParameter@CDataBaseAide@@QAEXXZ

; 1274 : 					PlatformDBAide.AddParameter(TEXT("@wKindID"),dwKindID);

  003b6	6a 01		 push	 1
  003b8	0f b7 85 fc 00
	00 00		 movzx	 eax, WORD PTR _dwKindID$[ebp]
  003bf	50		 push	 eax
  003c0	68 00 00 00 00	 push	 OFFSET ??_C@_08HBBOJKPI@?$EAwKindID@
  003c5	8d 4d 08	 lea	 ecx, DWORD PTR _PlatformDBAide$[ebp]
  003c8	ff 15 00 00 00
	00		 call	 DWORD PTR __imp_?AddParameter@CDataBaseAide@@QAEXPBDGW4ParameterDirectionEnum@ADOCG@@@Z

; 1275 : 					PlatformDBAide.AddParameter(TEXT("@DrawCountLimit"),PersonalRoomOptionRightAndFee.stCreateRoomPayFee[i].dwPlayTurnLimit );

  003ce	6a 01		 push	 1
  003d0	6b 85 64 ff ff
	ff 13		 imul	 eax, DWORD PTR _i$11[ebp], 19
  003d7	8b 8c 05 9a 00
	00 00		 mov	 ecx, DWORD PTR _PersonalRoomOptionRightAndFee$[ebp+eax+22]
  003de	51		 push	 ecx
  003df	68 00 00 00 00	 push	 OFFSET ??_C@_0BA@NEJOBMJG@?$EADrawCountLimit@
  003e4	8d 4d 08	 lea	 ecx, DWORD PTR _PlatformDBAide$[ebp]
  003e7	ff 15 00 00 00
	00		 call	 DWORD PTR __imp_?AddParameter@CDataBaseAide@@QAEXPBDKW4ParameterDirectionEnum@ADOCG@@@Z

; 1276 : 					PlatformDBAide.AddParameter(TEXT("@DrawTimeLimit"),PersonalRoomOptionRightAndFee.stCreateRoomPayFee[i].dwPlayTimeLimit);

  003ed	6a 01		 push	 1
  003ef	6b 85 64 ff ff
	ff 13		 imul	 eax, DWORD PTR _i$11[ebp], 19
  003f6	8b 8c 05 9e 00
	00 00		 mov	 ecx, DWORD PTR _PersonalRoomOptionRightAndFee$[ebp+eax+26]
  003fd	51		 push	 ecx
  003fe	68 00 00 00 00	 push	 OFFSET ??_C@_0P@PPHKCKBK@?$EADrawTimeLimit@
  00403	8d 4d 08	 lea	 ecx, DWORD PTR _PlatformDBAide$[ebp]
  00406	ff 15 00 00 00
	00		 call	 DWORD PTR __imp_?AddParameter@CDataBaseAide@@QAEXPBDKW4ParameterDirectionEnum@ADOCG@@@Z

; 1277 : 					PlatformDBAide.AddParameter(TEXT("@TableFee"),PersonalRoomOptionRightAndFee.stCreateRoomPayFee[i].dwPayFee);

  0040c	6a 01		 push	 1
  0040e	6b 85 64 ff ff
	ff 13		 imul	 eax, DWORD PTR _i$11[ebp], 19
  00415	8b 8c 05 a2 00
	00 00		 mov	 ecx, DWORD PTR _PersonalRoomOptionRightAndFee$[ebp+eax+30]
  0041c	51		 push	 ecx
  0041d	68 00 00 00 00	 push	 OFFSET ??_C@_09GLBENLGO@?$EATableFee@
  00422	8d 4d 08	 lea	 ecx, DWORD PTR _PlatformDBAide$[ebp]
  00425	ff 15 00 00 00
	00		 call	 DWORD PTR __imp_?AddParameter@CDataBaseAide@@QAEXPBDKW4ParameterDirectionEnum@ADOCG@@@Z

; 1278 : 					PlatformDBAide.AddParameter(TEXT("@AAPayFee"), PersonalRoomOptionRightAndFee.stCreateRoomPayFee[i].wAAPayFee);

  0042b	6a 01		 push	 1
  0042d	6b 85 64 ff ff
	ff 13		 imul	 eax, DWORD PTR _i$11[ebp], 19
  00434	0f b7 8c 05 a6
	00 00 00	 movzx	 ecx, WORD PTR _PersonalRoomOptionRightAndFee$[ebp+eax+34]
  0043c	51		 push	 ecx
  0043d	68 00 00 00 00	 push	 OFFSET ??_C@_09FCEHGDCA@?$EAAAPayFee@
  00442	8d 4d 08	 lea	 ecx, DWORD PTR _PlatformDBAide$[ebp]
  00445	ff 15 00 00 00
	00		 call	 DWORD PTR __imp_?AddParameter@CDataBaseAide@@QAEXPBDGW4ParameterDirectionEnum@ADOCG@@@Z

; 1279 : 					PlatformDBAide.AddParameter(TEXT("@IniScore"),PersonalRoomOptionRightAndFee.stCreateRoomPayFee[i].dwIniScore);

  0044b	6a 01		 push	 1
  0044d	6b 85 64 ff ff
	ff 13		 imul	 eax, DWORD PTR _i$11[ebp], 19
  00454	8b 8c 05 a8 00
	00 00		 mov	 ecx, DWORD PTR _PersonalRoomOptionRightAndFee$[ebp+eax+36]
  0045b	51		 push	 ecx
  0045c	68 00 00 00 00	 push	 OFFSET ??_C@_09FDIDCNIH@?$EAIniScore@
  00461	8d 4d 08	 lea	 ecx, DWORD PTR _PlatformDBAide$[ebp]
  00464	ff 15 00 00 00
	00		 call	 DWORD PTR __imp_?AddParameter@CDataBaseAide@@QAEXPBDKW4ParameterDirectionEnum@ADOCG@@@Z

; 1280 : 					PlatformDBAide.AddParameter(TEXT("@cbGameMode"), PersonalRoomOptionRightAndFee.stCreateRoomPayFee[i].cbGameMode);

  0046a	6a 01		 push	 1
  0046c	6b 85 64 ff ff
	ff 13		 imul	 eax, DWORD PTR _i$11[ebp], 19
  00473	0f b6 8c 05 99
	00 00 00	 movzx	 ecx, BYTE PTR _PersonalRoomOptionRightAndFee$[ebp+eax+21]
  0047b	51		 push	 ecx
  0047c	68 00 00 00 00	 push	 OFFSET ??_C@_0M@CIPFFAIA@?$EAcbGameMode@
  00481	8d 4d 08	 lea	 ecx, DWORD PTR _PlatformDBAide$[ebp]
  00484	ff 15 00 00 00
	00		 call	 DWORD PTR __imp_?AddParameter@CDataBaseAide@@QAEXPBDEW4ParameterDirectionEnum@ADOCG@@@Z

; 1281 : 					//输出信息
; 1282 : 					TCHAR szDescribeString[128]=TEXT("");

  0048a	a0 00 00 00 00	 mov	 al, BYTE PTR ??_C@_00CNPNBAHC@@
  0048f	88 85 e4 fe ff
	ff		 mov	 BYTE PTR _szDescribeString$10[ebp], al
  00495	6a 7f		 push	 127			; 0000007fH
  00497	6a 00		 push	 0
  00499	8d 85 e5 fe ff
	ff		 lea	 eax, DWORD PTR _szDescribeString$10[ebp+1]
  0049f	50		 push	 eax
  004a0	e8 00 00 00 00	 call	 _memset
  004a5	83 c4 0c	 add	 esp, 12			; 0000000cH

; 1283 : 					PlatformDBAide.AddParameterOutput(TEXT("@strErrorDescribe"),szDescribeString,sizeof(szDescribeString),adParamOutput);

  004a8	6a 02		 push	 2
  004aa	68 80 00 00 00	 push	 128			; 00000080H
  004af	8d 85 e4 fe ff
	ff		 lea	 eax, DWORD PTR _szDescribeString$10[ebp]
  004b5	50		 push	 eax
  004b6	68 00 00 00 00	 push	 OFFSET ??_C@_0BC@IIOJPJPJ@?$EAstrErrorDescribe@
  004bb	8d 4d 08	 lea	 ecx, DWORD PTR _PlatformDBAide$[ebp]
  004be	ff 15 00 00 00
	00		 call	 DWORD PTR __imp_?AddParameterOutput@CDataBaseAide@@QAEXPBDPADIW4ParameterDirectionEnum@ADOCG@@@Z

; 1284 : 					//执行命令
; 1285 : 					if (PlatformDBAide.ExecuteProcess(TEXT("GSP_GS_WritePersonalFeeParameter"),true)!=DB_SUCCESS)

  004c4	6a 01		 push	 1
  004c6	68 00 00 00 00	 push	 OFFSET ??_C@_0CB@BGEDMOGM@GSP_GS_WritePersonalFeeParamete@
  004cb	8d 4d 08	 lea	 ecx, DWORD PTR _PlatformDBAide$[ebp]
  004ce	ff 15 00 00 00
	00		 call	 DWORD PTR __imp_?ExecuteProcess@CDataBaseAide@@QAEJPBD_N@Z
  004d4	89 85 10 fe ff
	ff		 mov	 DWORD PTR tv451[ebp], eax
  004da	83 bd 10 fe ff
	ff 00		 cmp	 DWORD PTR tv451[ebp], 0
  004e1	74 5c		 je	 SHORT $LN16@ModifyPers

; 1286 : 					{
; 1287 : 						//获取信息
; 1288 : 						PlatformDBAide.GetParameter(TEXT("@strErrorDescribe"),szDescribeString,CountArray(szDescribeString));

  004e3	68 80 00 00 00	 push	 128			; 00000080H
  004e8	8d 85 e4 fe ff
	ff		 lea	 eax, DWORD PTR _szDescribeString$10[ebp]
  004ee	50		 push	 eax
  004ef	68 00 00 00 00	 push	 OFFSET ??_C@_0BC@IIOJPJPJ@?$EAstrErrorDescribe@
  004f4	8d 4d 08	 lea	 ecx, DWORD PTR _PlatformDBAide$[ebp]
  004f7	ff 15 00 00 00
	00		 call	 DWORD PTR __imp_?GetParameter@CDataBaseAide@@QAEXPBDPADI@Z

; 1289 : 
; 1290 : 						//错误提示
; 1291 : 						CTraceService::TraceString(TEXT("插入游戏费用出错"),TraceLevel_Exception);

  004fd	6a 03		 push	 3
  004ff	68 00 00 00 00	 push	 OFFSET ??_C@_0BB@LABICMHO@?$LC?e?H?k?S?N?O?$LH?$LH?Q?S?C?$LD?v?$LE?m@
  00504	ff 15 00 00 00
	00		 call	 DWORD PTR __imp_?TraceString@CTraceService@@SA_NPBDW4enTraceLevel@@@Z
  0050a	83 c4 08	 add	 esp, 8

; 1292 : 
; 1293 : 						//错误提示
; 1294 : 						AfxMessageBox(szDescribeString,MB_ICONERROR);

  0050d	6a 00		 push	 0
  0050f	6a 10		 push	 16			; 00000010H
  00511	8d 85 e4 fe ff
	ff		 lea	 eax, DWORD PTR _szDescribeString$10[ebp]
  00517	50		 push	 eax
  00518	e8 00 00 00 00	 call	 ?AfxMessageBox@@YGHPBDII@Z ; AfxMessageBox

; 1295 : 
; 1296 : 						return false;

  0051d	c6 85 16 fe ff
	ff 00		 mov	 BYTE PTR $T4[ebp], 0
  00524	c7 45 fc ff ff
	ff ff		 mov	 DWORD PTR __$EHRec$[ebp+12], -1
  0052b	8d 4d 08	 lea	 ecx, DWORD PTR _PlatformDBAide$[ebp]
  0052e	ff 15 00 00 00
	00		 call	 DWORD PTR __imp_??1CDataBaseAide@@UAE@XZ
  00534	8a 85 16 fe ff
	ff		 mov	 al, BYTE PTR $T4[ebp]
  0053a	e9 1d 02 00 00	 jmp	 $LN1@ModifyPers
$LN16@ModifyPers:

; 1297 : 					}
; 1298 : 				}
; 1299 : 			}

  0053f	e9 27 fe ff ff	 jmp	 $LN2@ModifyPers
$LN14@ModifyPers:

; 1300 : 		}
; 1301 : 		
; 1302 : 		//写配置信息
; 1303 : 		WritePersonalRoomInfo(PersonalRoomOption,  PersonalRoomOptionRightAndFee,dwKindID);

  00544	0f b7 85 fc 00
	00 00		 movzx	 eax, WORD PTR _dwKindID$[ebp]
  0054b	50		 push	 eax
  0054c	83 ec 74	 sub	 esp, 116		; 00000074H
  0054f	b9 1d 00 00 00	 mov	 ecx, 29			; 0000001dH
  00554	8d b5 84 00 00
	00		 lea	 esi, DWORD PTR _PersonalRoomOptionRightAndFee$[ebp]
  0055a	8b fc		 mov	 edi, esp
  0055c	f3 a5		 rep movsd
  0055e	83 ec 74	 sub	 esp, 116		; 00000074H
  00561	b9 1c 00 00 00	 mov	 ecx, 28			; 0000001cH
  00566	8d 75 10	 lea	 esi, DWORD PTR _PersonalRoomOption$[ebp]
  00569	8b fc		 mov	 edi, esp
  0056b	f3 a5		 rep movsd
  0056d	a4		 movsb
  0056e	8b 4d e8	 mov	 ecx, DWORD PTR _this$[ebp]
  00571	e8 00 00 00 00	 call	 ?WritePersonalRoomInfo@CServerInfoManager@@QAE_NUtagPersonalRoomOption@@UtagPersonalRoomOptionRightAndFee@@G@Z ; CServerInfoManager::WritePersonalRoomInfo

; 1304 : 		PlatformDBAide.ResetParameter();

  00576	8d 4d 08	 lea	 ecx, DWORD PTR _PlatformDBAide$[ebp]
  00579	ff 15 00 00 00
	00		 call	 DWORD PTR __imp_?ResetParameter@CDataBaseAide@@QAEXXZ

; 1305 : 		PlatformDBAide.AddParameter(TEXT("@wKindID"), dwKindID);

  0057f	6a 01		 push	 1
  00581	0f b7 85 fc 00
	00 00		 movzx	 eax, WORD PTR _dwKindID$[ebp]
  00588	50		 push	 eax
  00589	68 00 00 00 00	 push	 OFFSET ??_C@_08HBBOJKPI@?$EAwKindID@
  0058e	8d 4d 08	 lea	 ecx, DWORD PTR _PlatformDBAide$[ebp]
  00591	ff 15 00 00 00
	00		 call	 DWORD PTR __imp_?AddParameter@CDataBaseAide@@QAEXPBDGW4ParameterDirectionEnum@ADOCG@@@Z

; 1306 : 
; 1307 : 		if (PlatformDBAide.ExecuteProcess(TEXT("GSP_GR_DeletePersonalCellScore"), true) == DB_SUCCESS)

  00597	6a 01		 push	 1
  00599	68 00 00 00 00	 push	 OFFSET ??_C@_0BP@BNMLDPEJ@GSP_GR_DeletePersonalCellScore@
  0059e	8d 4d 08	 lea	 ecx, DWORD PTR _PlatformDBAide$[ebp]
  005a1	ff 15 00 00 00
	00		 call	 DWORD PTR __imp_?ExecuteProcess@CDataBaseAide@@QAEJPBD_N@Z
  005a7	89 85 10 fe ff
	ff		 mov	 DWORD PTR tv452[ebp], eax
  005ad	83 bd 10 fe ff
	ff 00		 cmp	 DWORD PTR tv452[ebp], 0
  005b4	0f 85 32 01 00
	00		 jne	 $LN19@ModifyPers

; 1308 : 		{
; 1309 : 			//写入底分配置
; 1310 : 			for (int i = 0; i < CELLSCORE_COUNT; i++)

  005ba	c7 85 e0 fe ff
	ff 00 00 00 00	 mov	 DWORD PTR _i$9[ebp], 0
  005c4	eb 0f		 jmp	 SHORT $LN7@ModifyPers
$LN5@ModifyPers:
  005c6	8b 85 e0 fe ff
	ff		 mov	 eax, DWORD PTR _i$9[ebp]
  005cc	83 c0 01	 add	 eax, 1
  005cf	89 85 e0 fe ff
	ff		 mov	 DWORD PTR _i$9[ebp], eax
$LN7@ModifyPers:
  005d5	83 bd e0 fe ff
	ff 05		 cmp	 DWORD PTR _i$9[ebp], 5
  005dc	0f 8d 0a 01 00
	00		 jge	 $LN19@ModifyPers

; 1311 : 			{
; 1312 : 				if (PersonalRoomOptionRightAndFee.nCellScore[i] != 0)

  005e2	8b 85 e0 fe ff
	ff		 mov	 eax, DWORD PTR _i$9[ebp]
  005e8	83 bc 85 85 00
	00 00 00	 cmp	 DWORD PTR _PersonalRoomOptionRightAndFee$[ebp+eax*4+1], 0
  005f0	0f 84 f1 00 00
	00		 je	 $LN20@ModifyPers

; 1313 : 				{
; 1314 : 					PlatformDBAide.ResetParameter();

  005f6	8d 4d 08	 lea	 ecx, DWORD PTR _PlatformDBAide$[ebp]
  005f9	ff 15 00 00 00
	00		 call	 DWORD PTR __imp_?ResetParameter@CDataBaseAide@@QAEXXZ

; 1315 : 					PlatformDBAide.AddParameter(TEXT("@wKindID"), dwKindID);

  005ff	6a 01		 push	 1
  00601	0f b7 85 fc 00
	00 00		 movzx	 eax, WORD PTR _dwKindID$[ebp]
  00608	50		 push	 eax
  00609	68 00 00 00 00	 push	 OFFSET ??_C@_08HBBOJKPI@?$EAwKindID@
  0060e	8d 4d 08	 lea	 ecx, DWORD PTR _PlatformDBAide$[ebp]
  00611	ff 15 00 00 00
	00		 call	 DWORD PTR __imp_?AddParameter@CDataBaseAide@@QAEXPBDGW4ParameterDirectionEnum@ADOCG@@@Z

; 1316 : 					PlatformDBAide.AddParameter(TEXT("@lCellScore"), PersonalRoomOptionRightAndFee.nCellScore[i]);

  00617	6a 01		 push	 1
  00619	8b 85 e0 fe ff
	ff		 mov	 eax, DWORD PTR _i$9[ebp]
  0061f	8b 8c 85 85 00
	00 00		 mov	 ecx, DWORD PTR _PersonalRoomOptionRightAndFee$[ebp+eax*4+1]
  00626	51		 push	 ecx
  00627	68 00 00 00 00	 push	 OFFSET ??_C@_0M@DOJONCPP@?$EAlCellScore@
  0062c	8d 4d 08	 lea	 ecx, DWORD PTR _PlatformDBAide$[ebp]
  0062f	ff 15 00 00 00
	00		 call	 DWORD PTR __imp_?AddParameter@CDataBaseAide@@QAEXPBDHW4ParameterDirectionEnum@ADOCG@@@Z

; 1317 : 
; 1318 : 					//输出信息
; 1319 : 					TCHAR szDescribeString[128] = TEXT("");

  00635	a0 00 00 00 00	 mov	 al, BYTE PTR ??_C@_00CNPNBAHC@@
  0063a	88 85 60 fe ff
	ff		 mov	 BYTE PTR _szDescribeString$8[ebp], al
  00640	6a 7f		 push	 127			; 0000007fH
  00642	6a 00		 push	 0
  00644	8d 85 61 fe ff
	ff		 lea	 eax, DWORD PTR _szDescribeString$8[ebp+1]
  0064a	50		 push	 eax
  0064b	e8 00 00 00 00	 call	 _memset
  00650	83 c4 0c	 add	 esp, 12			; 0000000cH

; 1320 : 					PlatformDBAide.AddParameterOutput(TEXT("@strErrorDescribe"), szDescribeString, sizeof(szDescribeString), adParamOutput);

  00653	6a 02		 push	 2
  00655	68 80 00 00 00	 push	 128			; 00000080H
  0065a	8d 85 60 fe ff
	ff		 lea	 eax, DWORD PTR _szDescribeString$8[ebp]
  00660	50		 push	 eax
  00661	68 00 00 00 00	 push	 OFFSET ??_C@_0BC@IIOJPJPJ@?$EAstrErrorDescribe@
  00666	8d 4d 08	 lea	 ecx, DWORD PTR _PlatformDBAide$[ebp]
  00669	ff 15 00 00 00
	00		 call	 DWORD PTR __imp_?AddParameterOutput@CDataBaseAide@@QAEXPBDPADIW4ParameterDirectionEnum@ADOCG@@@Z

; 1321 : 
; 1322 : 					//执行命令
; 1323 : 					if (PlatformDBAide.ExecuteProcess(TEXT("GSP_GR_InsertPersonalCellScore"), true) != DB_SUCCESS)

  0066f	6a 01		 push	 1
  00671	68 00 00 00 00	 push	 OFFSET ??_C@_0BP@GEFHPGBC@GSP_GR_InsertPersonalCellScore@
  00676	8d 4d 08	 lea	 ecx, DWORD PTR _PlatformDBAide$[ebp]
  00679	ff 15 00 00 00
	00		 call	 DWORD PTR __imp_?ExecuteProcess@CDataBaseAide@@QAEJPBD_N@Z
  0067f	89 85 10 fe ff
	ff		 mov	 DWORD PTR tv453[ebp], eax
  00685	83 bd 10 fe ff
	ff 00		 cmp	 DWORD PTR tv453[ebp], 0
  0068c	74 59		 je	 SHORT $LN20@ModifyPers

; 1324 : 					{
; 1325 : 						//获取信息
; 1326 : 						PlatformDBAide.GetParameter(TEXT("@strErrorDescribe"), szDescribeString, CountArray(szDescribeString));

  0068e	68 80 00 00 00	 push	 128			; 00000080H
  00693	8d 85 60 fe ff
	ff		 lea	 eax, DWORD PTR _szDescribeString$8[ebp]
  00699	50		 push	 eax
  0069a	68 00 00 00 00	 push	 OFFSET ??_C@_0BC@IIOJPJPJ@?$EAstrErrorDescribe@
  0069f	8d 4d 08	 lea	 ecx, DWORD PTR _PlatformDBAide$[ebp]
  006a2	ff 15 00 00 00
	00		 call	 DWORD PTR __imp_?GetParameter@CDataBaseAide@@QAEXPBDPADI@Z

; 1327 : 
; 1328 : 						//错误提示
; 1329 : 						CTraceService::TraceString(TEXT("插入游戏底分出错"), TraceLevel_Exception);

  006a8	6a 03		 push	 3
  006aa	68 00 00 00 00	 push	 OFFSET ??_C@_0BB@HEGDPGKB@?$LC?e?H?k?S?N?O?$LH?$LF?W?$LH?V?$LD?v?$LE?m@
  006af	ff 15 00 00 00
	00		 call	 DWORD PTR __imp_?TraceString@CTraceService@@SA_NPBDW4enTraceLevel@@@Z
  006b5	83 c4 08	 add	 esp, 8

; 1330 : 
; 1331 : 						//错误提示
; 1332 : 						AfxMessageBox(szDescribeString, MB_ICONERROR);

  006b8	6a 00		 push	 0
  006ba	6a 10		 push	 16			; 00000010H
  006bc	8d 85 60 fe ff
	ff		 lea	 eax, DWORD PTR _szDescribeString$8[ebp]
  006c2	50		 push	 eax
  006c3	e8 00 00 00 00	 call	 ?AfxMessageBox@@YGHPBDII@Z ; AfxMessageBox

; 1333 : 
; 1334 : 						return false;

  006c8	c6 85 15 fe ff
	ff 00		 mov	 BYTE PTR $T3[ebp], 0
  006cf	c7 45 fc ff ff
	ff ff		 mov	 DWORD PTR __$EHRec$[ebp+12], -1
  006d6	8d 4d 08	 lea	 ecx, DWORD PTR _PlatformDBAide$[ebp]
  006d9	ff 15 00 00 00
	00		 call	 DWORD PTR __imp_??1CDataBaseAide@@UAE@XZ
  006df	8a 85 15 fe ff
	ff		 mov	 al, BYTE PTR $T3[ebp]
  006e5	eb 75		 jmp	 SHORT $LN1@ModifyPers
$LN20@ModifyPers:

; 1335 : 					}
; 1336 : 				}
; 1337 : 
; 1338 : 			}

  006e7	e9 da fe ff ff	 jmp	 $LN5@ModifyPers
$LN19@ModifyPers:

; 1339 : 		}
; 1340 : 
; 1341 : 
; 1342 : 	}

  006ec	eb 41		 jmp	 SHORT $LN23@ModifyPers
__catch$?ModifyPersonalRoomParameter@CServerInfoManager@@QAE_NVCDataBaseAide@@UtagPersonalRoomOption@@UtagPersonalRoomOptionRightAndFee@@GG@Z$0:

; 1343 : 	catch (IDataBaseException * pIException)
; 1344 : 	{
; 1345 : 		//错误信息
; 1346 : 		LPCTSTR pszDescribe=pIException->GetExceptionDescribe();

  006ee	8b 85 5c fe ff
	ff		 mov	 eax, DWORD PTR _pIException$7[ebp]
  006f4	8b 10		 mov	 edx, DWORD PTR [eax]
  006f6	8b 8d 5c fe ff
	ff		 mov	 ecx, DWORD PTR _pIException$7[ebp]
  006fc	8b 42 0c	 mov	 eax, DWORD PTR [edx+12]
  006ff	ff d0		 call	 eax
  00701	89 85 58 fe ff
	ff		 mov	 DWORD PTR _pszDescribe$6[ebp], eax

; 1347 : 		CTraceService::TraceString(pszDescribe,TraceLevel_Exception);

  00707	6a 03		 push	 3
  00709	8b 85 58 fe ff
	ff		 mov	 eax, DWORD PTR _pszDescribe$6[ebp]
  0070f	50		 push	 eax
  00710	ff 15 00 00 00
	00		 call	 DWORD PTR __imp_?TraceString@CTraceService@@SA_NPBDW4enTraceLevel@@@Z
  00716	83 c4 08	 add	 esp, 8

; 1348 : 
; 1349 : 		//错误提示
; 1350 : 		AfxMessageBox(pszDescribe,MB_ICONERROR);

  00719	6a 00		 push	 0
  0071b	6a 10		 push	 16			; 00000010H
  0071d	8b 85 58 fe ff
	ff		 mov	 eax, DWORD PTR _pszDescribe$6[ebp]
  00723	50		 push	 eax
  00724	e8 00 00 00 00	 call	 ?AfxMessageBox@@YGHPBDII@Z ; AfxMessageBox

; 1351 : 	}

  00729	b8 00 00 00 00	 mov	 eax, $LN27@ModifyPers
  0072e	c3		 ret	 0
$LN23@ModifyPers:
  0072f	c7 45 fc 00 00
	00 00		 mov	 DWORD PTR __$EHRec$[ebp+12], 0
  00736	eb 07		 jmp	 SHORT __tryend$?ModifyPersonalRoomParameter@CServerInfoManager@@QAE_NVCDataBaseAide@@UtagPersonalRoomOption@@UtagPersonalRoomOptionRightAndFee@@GG@Z$1
$LN27@ModifyPers:
  00738	c7 45 fc 00 00
	00 00		 mov	 DWORD PTR __$EHRec$[ebp+12], 0
__tryend$?ModifyPersonalRoomParameter@CServerInfoManager@@QAE_NVCDataBaseAide@@UtagPersonalRoomOption@@UtagPersonalRoomOptionRightAndFee@@GG@Z$1:

; 1352 : 	return true;

  0073f	c6 85 14 fe ff
	ff 01		 mov	 BYTE PTR $T2[ebp], 1
  00746	c7 45 fc ff ff
	ff ff		 mov	 DWORD PTR __$EHRec$[ebp+12], -1
  0074d	8d 4d 08	 lea	 ecx, DWORD PTR _PlatformDBAide$[ebp]
  00750	ff 15 00 00 00
	00		 call	 DWORD PTR __imp_??1CDataBaseAide@@UAE@XZ
  00756	8a 85 14 fe ff
	ff		 mov	 al, BYTE PTR $T2[ebp]
$LN1@ModifyPers:

; 1353 : }

  0075c	8b 4d f4	 mov	 ecx, DWORD PTR __$EHRec$[ebp+4]
  0075f	64 89 0d 00 00
	00 00		 mov	 DWORD PTR fs:0, ecx
  00766	59		 pop	 ecx
  00767	5f		 pop	 edi
  00768	5e		 pop	 esi
  00769	5b		 pop	 ebx
  0076a	8b 4d ec	 mov	 ecx, DWORD PTR __$ArrayPad$[ebp]
  0076d	33 cd		 xor	 ecx, ebp
  0076f	e8 00 00 00 00	 call	 @__security_check_cookie@4
  00774	8b e5		 mov	 esp, ebp
  00776	5d		 pop	 ebp
  00777	c2 f8 00	 ret	 248			; 000000f8H
_TEXT	ENDS
;	COMDAT text$x
text$x	SEGMENT
__unwindfunclet$?ModifyPersonalRoomParameter@CServerInfoManager@@QAE_NVCDataBaseAide@@UtagPersonalRoomOption@@UtagPersonalRoomOptionRightAndFee@@GG@Z$2:
  00000	8d 4d 08	 lea	 ecx, DWORD PTR _PlatformDBAide$[ebp]
  00003	ff 25 00 00 00
	00		 jmp	 DWORD PTR __imp_??1CDataBaseAide@@UAE@XZ
__ehhandler$?ModifyPersonalRoomParameter@CServerInfoManager@@QAE_NVCDataBaseAide@@UtagPersonalRoomOption@@UtagPersonalRoomOptionRightAndFee@@GG@Z:
  00009	8b 54 24 08	 mov	 edx, DWORD PTR [esp+8]
  0000d	8d 42 0c	 lea	 eax, DWORD PTR [edx+12]
  00010	8b 8a 0c fe ff
	ff		 mov	 ecx, DWORD PTR [edx-500]
  00016	33 c8		 xor	 ecx, eax
  00018	e8 00 00 00 00	 call	 @__security_check_cookie@4
  0001d	8b 4a f8	 mov	 ecx, DWORD PTR [edx-8]
  00020	33 c8		 xor	 ecx, eax
  00022	e8 00 00 00 00	 call	 @__security_check_cookie@4
  00027	b8 00 00 00 00	 mov	 eax, OFFSET __ehfuncinfo$?ModifyPersonalRoomParameter@CServerInfoManager@@QAE_NVCDataBaseAide@@UtagPersonalRoomOption@@UtagPersonalRoomOptionRightAndFee@@GG@Z
  0002c	e9 00 00 00 00	 jmp	 ___CxxFrameHandler3
text$x	ENDS
?ModifyPersonalRoomParameter@CServerInfoManager@@QAE_NVCDataBaseAide@@UtagPersonalRoomOption@@UtagPersonalRoomOptionRightAndFee@@GG@Z ENDP ; CServerInfoManager::ModifyPersonalRoomParameter
; Function compile flags: /Odtp /ZI
; File g:\网狐\happygamewh\服务端\系统模块\服务器组件\模块管理\serverinfomanager.cpp
;	COMDAT ?InsertPersonalRoomParameter@CServerInfoManager@@QAE_NVCDataBaseAide@@UtagPersonalRoomOption@@UtagPersonalRoomOptionRightAndFee@@GG@Z
_TEXT	SEGMENT
tv453 = -496						; size = 4
tv452 = -496						; size = 4
tv451 = -496						; size = 4
tv450 = -496						; size = 4
$T2 = -492						; size = 1
$T3 = -491						; size = 1
$T4 = -490						; size = 1
$T5 = -489						; size = 1
_pszDescribe$6 = -424					; size = 4
_pIException$7 = -420					; size = 4
_szDescribeString$8 = -416				; size = 128
_i$9 = -288						; size = 4
_szDescribeString$10 = -284				; size = 128
_i$11 = -156						; size = 4
_szDescribeString$12 = -152				; size = 128
_this$ = -24						; size = 4
__$ArrayPad$ = -20					; size = 4
__$EHRec$ = -16						; size = 16
_PlatformDBAide$ = 8					; size = 8
_PersonalRoomOption$ = 16				; size = 113
_PersonalRoomOptionRightAndFee$ = 132			; size = 116
_dwServerID$ = 248					; size = 2
_dwKindID$ = 252					; size = 2
?InsertPersonalRoomParameter@CServerInfoManager@@QAE_NVCDataBaseAide@@UtagPersonalRoomOption@@UtagPersonalRoomOptionRightAndFee@@GG@Z PROC ; CServerInfoManager::InsertPersonalRoomParameter, COMDAT
; _this$ = ecx

; 1019 : {

  00000	55		 push	 ebp
  00001	8b ec		 mov	 ebp, esp
  00003	6a ff		 push	 -1
  00005	68 00 00 00 00	 push	 __ehhandler$?InsertPersonalRoomParameter@CServerInfoManager@@QAE_NVCDataBaseAide@@UtagPersonalRoomOption@@UtagPersonalRoomOptionRightAndFee@@GG@Z
  0000a	64 a1 00 00 00
	00		 mov	 eax, DWORD PTR fs:0
  00010	50		 push	 eax
  00011	51		 push	 ecx
  00012	81 ec e0 01 00
	00		 sub	 esp, 480		; 000001e0H
  00018	a1 00 00 00 00	 mov	 eax, DWORD PTR ___security_cookie
  0001d	33 c5		 xor	 eax, ebp
  0001f	89 45 ec	 mov	 DWORD PTR __$ArrayPad$[ebp], eax
  00022	53		 push	 ebx
  00023	56		 push	 esi
  00024	57		 push	 edi
  00025	50		 push	 eax
  00026	8d 45 f4	 lea	 eax, DWORD PTR __$EHRec$[ebp+4]
  00029	64 a3 00 00 00
	00		 mov	 DWORD PTR fs:0, eax
  0002f	89 65 f0	 mov	 DWORD PTR __$EHRec$[ebp], esp
  00032	89 4d e8	 mov	 DWORD PTR _this$[ebp], ecx
  00035	c7 45 fc 00 00
	00 00		 mov	 DWORD PTR __$EHRec$[ebp+12], 0

; 1020 : 	try

  0003c	c6 45 fc 01	 mov	 BYTE PTR __$EHRec$[ebp+12], 1

; 1021 : 	{
; 1022 : 		//插入参数
; 1023 : 		PlatformDBAide.ResetParameter();

  00040	8d 4d 08	 lea	 ecx, DWORD PTR _PlatformDBAide$[ebp]
  00043	ff 15 00 00 00
	00		 call	 DWORD PTR __imp_?ResetParameter@CDataBaseAide@@QAEXXZ

; 1024 : 		PlatformDBAide.AddParameter(TEXT("@wServerID"),dwServerID);

  00049	6a 01		 push	 1
  0004b	0f b7 85 f8 00
	00 00		 movzx	 eax, WORD PTR _dwServerID$[ebp]
  00052	50		 push	 eax
  00053	68 00 00 00 00	 push	 OFFSET ??_C@_0L@FIEHJJML@?$EAwServerID@
  00058	8d 4d 08	 lea	 ecx, DWORD PTR _PlatformDBAide$[ebp]
  0005b	ff 15 00 00 00
	00		 call	 DWORD PTR __imp_?AddParameter@CDataBaseAide@@QAEXPBDGW4ParameterDirectionEnum@ADOCG@@@Z

; 1025 : 		PlatformDBAide.AddParameter(TEXT("@wKindID"),dwKindID);		

  00061	6a 01		 push	 1
  00063	0f b7 85 fc 00
	00 00		 movzx	 eax, WORD PTR _dwKindID$[ebp]
  0006a	50		 push	 eax
  0006b	68 00 00 00 00	 push	 OFFSET ??_C@_08HBBOJKPI@?$EAwKindID@
  00070	8d 4d 08	 lea	 ecx, DWORD PTR _PlatformDBAide$[ebp]
  00073	ff 15 00 00 00
	00		 call	 DWORD PTR __imp_?AddParameter@CDataBaseAide@@QAEXPBDGW4ParameterDirectionEnum@ADOCG@@@Z

; 1026 : 		//PlatformDBAide.AddParameter(TEXT("@lDiamondCount"),PersonalRoomOption.lFeeCardOrBeanCount);
; 1027 : 		PlatformDBAide.AddParameter(TEXT("@cbIsJoinGame"),PersonalRoomOption.cbIsJoinGame);		

  00079	6a 01		 push	 1
  0007b	0f b6 45 10	 movzx	 eax, BYTE PTR _PersonalRoomOption$[ebp]
  0007f	50		 push	 eax
  00080	68 00 00 00 00	 push	 OFFSET ??_C@_0O@PHLNKDAD@?$EAcbIsJoinGame@
  00085	8d 4d 08	 lea	 ecx, DWORD PTR _PlatformDBAide$[ebp]
  00088	ff 15 00 00 00
	00		 call	 DWORD PTR __imp_?AddParameter@CDataBaseAide@@QAEXPBDEW4ParameterDirectionEnum@ADOCG@@@Z

; 1028 : 		PlatformDBAide.AddParameter(TEXT("@cbMinPeople"),PersonalRoomOption.cbMinPeople);

  0008e	6a 01		 push	 1
  00090	0f b6 45 11	 movzx	 eax, BYTE PTR _PersonalRoomOption$[ebp+1]
  00094	50		 push	 eax
  00095	68 00 00 00 00	 push	 OFFSET ??_C@_0N@BGGBCKEJ@?$EAcbMinPeople@
  0009a	8d 4d 08	 lea	 ecx, DWORD PTR _PlatformDBAide$[ebp]
  0009d	ff 15 00 00 00
	00		 call	 DWORD PTR __imp_?AddParameter@CDataBaseAide@@QAEXPBDEW4ParameterDirectionEnum@ADOCG@@@Z

; 1029 : 		PlatformDBAide.AddParameter(TEXT("@cbMaxPeople"),PersonalRoomOption.cbMaxPeople);

  000a3	6a 01		 push	 1
  000a5	0f b6 45 12	 movzx	 eax, BYTE PTR _PersonalRoomOption$[ebp+2]
  000a9	50		 push	 eax
  000aa	68 00 00 00 00	 push	 OFFSET ??_C@_0N@BHGNLAPN@?$EAcbMaxPeople@
  000af	8d 4d 08	 lea	 ecx, DWORD PTR _PlatformDBAide$[ebp]
  000b2	ff 15 00 00 00
	00		 call	 DWORD PTR __imp_?AddParameter@CDataBaseAide@@QAEXPBDEW4ParameterDirectionEnum@ADOCG@@@Z

; 1030 : 		PlatformDBAide.AddParameter(TEXT("@lPersonalRoomTax"),PersonalRoomOption.lPersonalRoomTax);

  000b8	6a 01		 push	 1
  000ba	8b 45 1f	 mov	 eax, DWORD PTR _PersonalRoomOption$[ebp+15]
  000bd	50		 push	 eax
  000be	8b 4d 1b	 mov	 ecx, DWORD PTR _PersonalRoomOption$[ebp+11]
  000c1	51		 push	 ecx
  000c2	68 00 00 00 00	 push	 OFFSET ??_C@_0BC@LFDMHEEC@?$EAlPersonalRoomTax@
  000c7	8d 4d 08	 lea	 ecx, DWORD PTR _PlatformDBAide$[ebp]
  000ca	ff 15 00 00 00
	00		 call	 DWORD PTR __imp_?AddParameter@CDataBaseAide@@QAEXPBD_JW4ParameterDirectionEnum@ADOCG@@@Z

; 1031 : 		PlatformDBAide.AddParameter(TEXT("@lMaxCellScore"),PersonalRoomOption.lMaxCellScore);

  000d0	6a 01		 push	 1
  000d2	8b 45 17	 mov	 eax, DWORD PTR _PersonalRoomOption$[ebp+7]
  000d5	50		 push	 eax
  000d6	8b 4d 13	 mov	 ecx, DWORD PTR _PersonalRoomOption$[ebp+3]
  000d9	51		 push	 ecx
  000da	68 00 00 00 00	 push	 OFFSET ??_C@_0P@JJFBKDAF@?$EAlMaxCellScore@
  000df	8d 4d 08	 lea	 ecx, DWORD PTR _PlatformDBAide$[ebp]
  000e2	ff 15 00 00 00
	00		 call	 DWORD PTR __imp_?AddParameter@CDataBaseAide@@QAEXPBD_JW4ParameterDirectionEnum@ADOCG@@@Z

; 1032 : 		PlatformDBAide.AddParameter(TEXT("@wCanCreateCount"),PersonalRoomOption.wCanCreateCount);

  000e8	6a 01		 push	 1
  000ea	0f b7 45 63	 movzx	 eax, WORD PTR _PersonalRoomOption$[ebp+83]
  000ee	50		 push	 eax
  000ef	68 00 00 00 00	 push	 OFFSET ??_C@_0BB@NMCMDDIO@?$EAwCanCreateCount@
  000f4	8d 4d 08	 lea	 ecx, DWORD PTR _PlatformDBAide$[ebp]
  000f7	ff 15 00 00 00
	00		 call	 DWORD PTR __imp_?AddParameter@CDataBaseAide@@QAEXPBDGW4ParameterDirectionEnum@ADOCG@@@Z

; 1033 : 		PlatformDBAide.AddParameter(TEXT("@wPlayTurnCount"),PersonalRoomOption.dwPlayTurnCount);

  000fd	6a 01		 push	 1
  000ff	8b 45 65	 mov	 eax, DWORD PTR _PersonalRoomOption$[ebp+85]
  00102	50		 push	 eax
  00103	68 00 00 00 00	 push	 OFFSET ??_C@_0BA@NNNPOABK@?$EAwPlayTurnCount@
  00108	8d 4d 08	 lea	 ecx, DWORD PTR _PlatformDBAide$[ebp]
  0010b	ff 15 00 00 00
	00		 call	 DWORD PTR __imp_?AddParameter@CDataBaseAide@@QAEXPBDKW4ParameterDirectionEnum@ADOCG@@@Z

; 1034 : 		PlatformDBAide.AddParameter(TEXT("@wPlayTimeLimit"),PersonalRoomOption.dwPlayTimeLimit);

  00111	6a 01		 push	 1
  00113	8b 45 69	 mov	 eax, DWORD PTR _PersonalRoomOption$[ebp+89]
  00116	50		 push	 eax
  00117	68 00 00 00 00	 push	 OFFSET ??_C@_0BA@NOEDAIIC@?$EAwPlayTimeLimit@
  0011c	8d 4d 08	 lea	 ecx, DWORD PTR _PlatformDBAide$[ebp]
  0011f	ff 15 00 00 00
	00		 call	 DWORD PTR __imp_?AddParameter@CDataBaseAide@@QAEXPBDKW4ParameterDirectionEnum@ADOCG@@@Z

; 1035 : 		if (PersonalRoomOption.dwTimeAfterBeginCount == 0)

  00125	83 7d 6d 00	 cmp	 DWORD PTR _PersonalRoomOption$[ebp+93], 0
  00129	75 07		 jne	 SHORT $LN9@InsertPers

; 1036 : 		{
; 1037 : 			PersonalRoomOption.dwTimeAfterBeginCount  = 120;

  0012b	c7 45 6d 78 00
	00 00		 mov	 DWORD PTR _PersonalRoomOption$[ebp+93], 120 ; 00000078H
$LN9@InsertPers:

; 1038 : 		}
; 1039 : 
; 1040 : 		if (PersonalRoomOption.dwTimeOffLineCount == 0)

  00132	83 7d 71 00	 cmp	 DWORD PTR _PersonalRoomOption$[ebp+97], 0
  00136	75 07		 jne	 SHORT $LN10@InsertPers

; 1041 : 		{
; 1042 : 			PersonalRoomOption.dwTimeOffLineCount = 120;

  00138	c7 45 71 78 00
	00 00		 mov	 DWORD PTR _PersonalRoomOption$[ebp+97], 120 ; 00000078H
$LN10@InsertPers:

; 1043 : 		}
; 1044 : 
; 1045 : 		if (PersonalRoomOption.dwTimeNotBeginGame == 0)

  0013f	83 7d 75 00	 cmp	 DWORD PTR _PersonalRoomOption$[ebp+101], 0
  00143	75 07		 jne	 SHORT $LN11@InsertPers

; 1046 : 		{
; 1047 : 			PersonalRoomOption.dwTimeNotBeginGame = 120;

  00145	c7 45 75 78 00
	00 00		 mov	 DWORD PTR _PersonalRoomOption$[ebp+101], 120 ; 00000078H
$LN11@InsertPers:

; 1048 : 		}
; 1049 : 
; 1050 : 		if (PersonalRoomOption.dwTimeAfterCreateRoom == 0)

  0014c	83 7d 79 00	 cmp	 DWORD PTR _PersonalRoomOption$[ebp+105], 0
  00150	75 07		 jne	 SHORT $LN12@InsertPers

; 1051 : 		{
; 1052 : 			PersonalRoomOption.dwTimeAfterCreateRoom = 120;

  00152	c7 45 79 78 00
	00 00		 mov	 DWORD PTR _PersonalRoomOption$[ebp+105], 120 ; 00000078H
$LN12@InsertPers:

; 1053 : 		}
; 1054 : 
; 1055 : 		PlatformDBAide.AddParameter(TEXT("@wTimeAfterBeginCount"),PersonalRoomOption.dwTimeAfterBeginCount);

  00159	6a 01		 push	 1
  0015b	8b 45 6d	 mov	 eax, DWORD PTR _PersonalRoomOption$[ebp+93]
  0015e	50		 push	 eax
  0015f	68 00 00 00 00	 push	 OFFSET ??_C@_0BG@PLKJOLIC@?$EAwTimeAfterBeginCount@
  00164	8d 4d 08	 lea	 ecx, DWORD PTR _PlatformDBAide$[ebp]
  00167	ff 15 00 00 00
	00		 call	 DWORD PTR __imp_?AddParameter@CDataBaseAide@@QAEXPBDKW4ParameterDirectionEnum@ADOCG@@@Z

; 1056 : 		PlatformDBAide.AddParameter(TEXT("@wTimeOffLineCount"),PersonalRoomOption.dwTimeOffLineCount);

  0016d	6a 01		 push	 1
  0016f	8b 45 71	 mov	 eax, DWORD PTR _PersonalRoomOption$[ebp+97]
  00172	50		 push	 eax
  00173	68 00 00 00 00	 push	 OFFSET ??_C@_0BD@GBNNIIBP@?$EAwTimeOffLineCount@
  00178	8d 4d 08	 lea	 ecx, DWORD PTR _PlatformDBAide$[ebp]
  0017b	ff 15 00 00 00
	00		 call	 DWORD PTR __imp_?AddParameter@CDataBaseAide@@QAEXPBDKW4ParameterDirectionEnum@ADOCG@@@Z

; 1057 : 		PlatformDBAide.AddParameter(TEXT("@wTimeNotBeginGame"),PersonalRoomOption.dwTimeNotBeginGame);

  00181	6a 01		 push	 1
  00183	8b 45 75	 mov	 eax, DWORD PTR _PersonalRoomOption$[ebp+101]
  00186	50		 push	 eax
  00187	68 00 00 00 00	 push	 OFFSET ??_C@_0BD@DDANILFF@?$EAwTimeNotBeginGame@
  0018c	8d 4d 08	 lea	 ecx, DWORD PTR _PlatformDBAide$[ebp]
  0018f	ff 15 00 00 00
	00		 call	 DWORD PTR __imp_?AddParameter@CDataBaseAide@@QAEXPBDKW4ParameterDirectionEnum@ADOCG@@@Z

; 1058 : 		PlatformDBAide.AddParameter(TEXT("@wTimeNotBeginAfterCreateRoom"),PersonalRoomOption.dwTimeAfterCreateRoom);

  00195	6a 01		 push	 1
  00197	8b 45 79	 mov	 eax, DWORD PTR _PersonalRoomOption$[ebp+105]
  0019a	50		 push	 eax
  0019b	68 00 00 00 00	 push	 OFFSET ??_C@_0BO@GAPHEMLN@?$EAwTimeNotBeginAfterCreateRoom@
  001a0	8d 4d 08	 lea	 ecx, DWORD PTR _PlatformDBAide$[ebp]
  001a3	ff 15 00 00 00
	00		 call	 DWORD PTR __imp_?AddParameter@CDataBaseAide@@QAEXPBDKW4ParameterDirectionEnum@ADOCG@@@Z

; 1059 : 		PlatformDBAide.AddParameter(TEXT("@cbCreateRight"),PersonalRoomOptionRightAndFee.cbCreateRight);

  001a9	6a 01		 push	 1
  001ab	0f b6 85 84 00
	00 00		 movzx	 eax, BYTE PTR _PersonalRoomOptionRightAndFee$[ebp]
  001b2	50		 push	 eax
  001b3	68 00 00 00 00	 push	 OFFSET ??_C@_0P@GODHDPFL@?$EAcbCreateRight@
  001b8	8d 4d 08	 lea	 ecx, DWORD PTR _PlatformDBAide$[ebp]
  001bb	ff 15 00 00 00
	00		 call	 DWORD PTR __imp_?AddParameter@CDataBaseAide@@QAEXPBDEW4ParameterDirectionEnum@ADOCG@@@Z

; 1060 : 		
; 1061 : 		PlatformDBAide.AddParameter(TEXT("@wBeginFreeTime"), PersonalRoomOption.wBeginFreeTime);

  001c1	6a 01		 push	 1
  001c3	0f b7 45 7d	 movzx	 eax, WORD PTR _PersonalRoomOption$[ebp+109]
  001c7	50		 push	 eax
  001c8	68 00 00 00 00	 push	 OFFSET ??_C@_0BA@LKGDNDNG@?$EAwBeginFreeTime@
  001cd	8d 4d 08	 lea	 ecx, DWORD PTR _PlatformDBAide$[ebp]
  001d0	ff 15 00 00 00
	00		 call	 DWORD PTR __imp_?AddParameter@CDataBaseAide@@QAEXPBDGW4ParameterDirectionEnum@ADOCG@@@Z

; 1062 : 		PlatformDBAide.AddParameter(TEXT("@wEndFreeTime"), PersonalRoomOption.wEndFreeTime);

  001d6	6a 01		 push	 1
  001d8	0f b7 45 7f	 movzx	 eax, WORD PTR _PersonalRoomOption$[ebp+111]
  001dc	50		 push	 eax
  001dd	68 00 00 00 00	 push	 OFFSET ??_C@_0O@MLGGNFBJ@?$EAwEndFreeTime@
  001e2	8d 4d 08	 lea	 ecx, DWORD PTR _PlatformDBAide$[ebp]
  001e5	ff 15 00 00 00
	00		 call	 DWORD PTR __imp_?AddParameter@CDataBaseAide@@QAEXPBDGW4ParameterDirectionEnum@ADOCG@@@Z

; 1063 : 
; 1064 : 		//输出信息
; 1065 : 		TCHAR szDescribeString[128]=TEXT("");

  001eb	a0 00 00 00 00	 mov	 al, BYTE PTR ??_C@_00CNPNBAHC@@
  001f0	88 85 68 ff ff
	ff		 mov	 BYTE PTR _szDescribeString$12[ebp], al
  001f6	6a 7f		 push	 127			; 0000007fH
  001f8	6a 00		 push	 0
  001fa	8d 85 69 ff ff
	ff		 lea	 eax, DWORD PTR _szDescribeString$12[ebp+1]
  00200	50		 push	 eax
  00201	e8 00 00 00 00	 call	 _memset
  00206	83 c4 0c	 add	 esp, 12			; 0000000cH

; 1066 : 		PlatformDBAide.AddParameterOutput(TEXT("@strErrorDescribe"),szDescribeString,sizeof(szDescribeString),adParamOutput);

  00209	6a 02		 push	 2
  0020b	68 80 00 00 00	 push	 128			; 00000080H
  00210	8d 85 68 ff ff
	ff		 lea	 eax, DWORD PTR _szDescribeString$12[ebp]
  00216	50		 push	 eax
  00217	68 00 00 00 00	 push	 OFFSET ??_C@_0BC@IIOJPJPJ@?$EAstrErrorDescribe@
  0021c	8d 4d 08	 lea	 ecx, DWORD PTR _PlatformDBAide$[ebp]
  0021f	ff 15 00 00 00
	00		 call	 DWORD PTR __imp_?AddParameterOutput@CDataBaseAide@@QAEXPBDPADIW4ParameterDirectionEnum@ADOCG@@@Z

; 1067 : 
; 1068 : 		//执行命令
; 1069 : 		if (PlatformDBAide.ExecuteProcess(TEXT("GSP_GS_InsertPersonalRoomParameter"),true)!=DB_SUCCESS)

  00225	6a 01		 push	 1
  00227	68 00 00 00 00	 push	 OFFSET ??_C@_0CD@MBGOMFKI@GSP_GS_InsertPersonalRoomParame@
  0022c	8d 4d 08	 lea	 ecx, DWORD PTR _PlatformDBAide$[ebp]
  0022f	ff 15 00 00 00
	00		 call	 DWORD PTR __imp_?ExecuteProcess@CDataBaseAide@@QAEJPBD_N@Z
  00235	89 85 10 fe ff
	ff		 mov	 DWORD PTR tv450[ebp], eax
  0023b	83 bd 10 fe ff
	ff 00		 cmp	 DWORD PTR tv450[ebp], 0
  00242	74 5e		 je	 SHORT $LN13@InsertPers

; 1070 : 		{
; 1071 : 			//获取信息
; 1072 : 			PlatformDBAide.GetParameter(TEXT("@strErrorDescribe"),szDescribeString,CountArray(szDescribeString));

  00244	68 80 00 00 00	 push	 128			; 00000080H
  00249	8d 85 68 ff ff
	ff		 lea	 eax, DWORD PTR _szDescribeString$12[ebp]
  0024f	50		 push	 eax
  00250	68 00 00 00 00	 push	 OFFSET ??_C@_0BC@IIOJPJPJ@?$EAstrErrorDescribe@
  00255	8d 4d 08	 lea	 ecx, DWORD PTR _PlatformDBAide$[ebp]
  00258	ff 15 00 00 00
	00		 call	 DWORD PTR __imp_?GetParameter@CDataBaseAide@@QAEXPBDPADI@Z

; 1073 : 
; 1074 : 			//错误提示
; 1075 : 			CTraceService::TraceString(szDescribeString,TraceLevel_Exception);

  0025e	6a 03		 push	 3
  00260	8d 85 68 ff ff
	ff		 lea	 eax, DWORD PTR _szDescribeString$12[ebp]
  00266	50		 push	 eax
  00267	ff 15 00 00 00
	00		 call	 DWORD PTR __imp_?TraceString@CTraceService@@SA_NPBDW4enTraceLevel@@@Z
  0026d	83 c4 08	 add	 esp, 8

; 1076 : 
; 1077 : 			//错误提示
; 1078 : 			AfxMessageBox(szDescribeString,MB_ICONERROR);

  00270	6a 00		 push	 0
  00272	6a 10		 push	 16			; 00000010H
  00274	8d 85 68 ff ff
	ff		 lea	 eax, DWORD PTR _szDescribeString$12[ebp]
  0027a	50		 push	 eax
  0027b	e8 00 00 00 00	 call	 ?AfxMessageBox@@YGHPBDII@Z ; AfxMessageBox

; 1079 : 
; 1080 : 			return false;

  00280	c6 85 17 fe ff
	ff 00		 mov	 BYTE PTR $T5[ebp], 0
  00287	c7 45 fc ff ff
	ff ff		 mov	 DWORD PTR __$EHRec$[ebp+12], -1
  0028e	8d 4d 08	 lea	 ecx, DWORD PTR _PlatformDBAide$[ebp]
  00291	ff 15 00 00 00
	00		 call	 DWORD PTR __imp_??1CDataBaseAide@@UAE@XZ
  00297	8a 85 17 fe ff
	ff		 mov	 al, BYTE PTR $T5[ebp]
  0029d	e9 bc 04 00 00	 jmp	 $LN1@InsertPers
$LN13@InsertPers:

; 1081 : 		}
; 1082 : 
; 1083 : 		PlatformDBAide.ResetParameter();

  002a2	8d 4d 08	 lea	 ecx, DWORD PTR _PlatformDBAide$[ebp]
  002a5	ff 15 00 00 00
	00		 call	 DWORD PTR __imp_?ResetParameter@CDataBaseAide@@QAEXXZ

; 1084 : 		PlatformDBAide.AddParameter(TEXT("@wKindID"),dwKindID);

  002ab	6a 01		 push	 1
  002ad	0f b7 85 fc 00
	00 00		 movzx	 eax, WORD PTR _dwKindID$[ebp]
  002b4	50		 push	 eax
  002b5	68 00 00 00 00	 push	 OFFSET ??_C@_08HBBOJKPI@?$EAwKindID@
  002ba	8d 4d 08	 lea	 ecx, DWORD PTR _PlatformDBAide$[ebp]
  002bd	ff 15 00 00 00
	00		 call	 DWORD PTR __imp_?AddParameter@CDataBaseAide@@QAEXPBDGW4ParameterDirectionEnum@ADOCG@@@Z

; 1085 : 
; 1086 : 		PlatformDBAide.AddParameterOutput(TEXT("@strErrorDescribe"),szDescribeString,sizeof(szDescribeString),adParamOutput);

  002c3	6a 02		 push	 2
  002c5	68 80 00 00 00	 push	 128			; 00000080H
  002ca	8d 85 68 ff ff
	ff		 lea	 eax, DWORD PTR _szDescribeString$12[ebp]
  002d0	50		 push	 eax
  002d1	68 00 00 00 00	 push	 OFFSET ??_C@_0BC@IIOJPJPJ@?$EAstrErrorDescribe@
  002d6	8d 4d 08	 lea	 ecx, DWORD PTR _PlatformDBAide$[ebp]
  002d9	ff 15 00 00 00
	00		 call	 DWORD PTR __imp_?AddParameterOutput@CDataBaseAide@@QAEXPBDPADIW4ParameterDirectionEnum@ADOCG@@@Z

; 1087 : 		PlatformDBAide.ExecuteProcess(TEXT("GSP_GS_DeletePersonalFeeParameter"),true);

  002df	6a 01		 push	 1
  002e1	68 00 00 00 00	 push	 OFFSET ??_C@_0CC@PJKIIGNE@GSP_GS_DeletePersonalFeeParamet@
  002e6	8d 4d 08	 lea	 ecx, DWORD PTR _PlatformDBAide$[ebp]
  002e9	ff 15 00 00 00
	00		 call	 DWORD PTR __imp_?ExecuteProcess@CDataBaseAide@@QAEJPBD_N@Z

; 1088 : 
; 1089 : 		if (PersonalRoomOptionRightAndFee.stCreateRoomPayFee[0].dwPlayTimeLimit == 0 && PersonalRoomOptionRightAndFee.stCreateRoomPayFee[0].dwPlayTurnLimit == 0)

  002ef	b8 13 00 00 00	 mov	 eax, 19			; 00000013H
  002f4	6b c8 00	 imul	 ecx, eax, 0
  002f7	83 bc 0d 9e 00
	00 00 00	 cmp	 DWORD PTR _PersonalRoomOptionRightAndFee$[ebp+ecx+26], 0
  002ff	75 60		 jne	 SHORT $LN14@InsertPers
  00301	b8 13 00 00 00	 mov	 eax, 19			; 00000013H
  00306	6b c8 00	 imul	 ecx, eax, 0
  00309	83 bc 0d 9a 00
	00 00 00	 cmp	 DWORD PTR _PersonalRoomOptionRightAndFee$[ebp+ecx+22], 0
  00311	75 4e		 jne	 SHORT $LN14@InsertPers

; 1090 : 		{
; 1091 : 			PersonalRoomOptionRightAndFee.stCreateRoomPayFee[0].dwPlayTurnLimit = 5;

  00313	b8 13 00 00 00	 mov	 eax, 19			; 00000013H
  00318	6b c8 00	 imul	 ecx, eax, 0
  0031b	c7 84 0d 9a 00
	00 00 05 00 00
	00		 mov	 DWORD PTR _PersonalRoomOptionRightAndFee$[ebp+ecx+22], 5

; 1092 : 			PersonalRoomOptionRightAndFee.stCreateRoomPayFee[0].dwPayFee = 1;

  00326	b8 13 00 00 00	 mov	 eax, 19			; 00000013H
  0032b	6b c8 00	 imul	 ecx, eax, 0
  0032e	c7 84 0d a2 00
	00 00 01 00 00
	00		 mov	 DWORD PTR _PersonalRoomOptionRightAndFee$[ebp+ecx+30], 1

; 1093 : 			PersonalRoomOptionRightAndFee.stCreateRoomPayFee[0].wAAPayFee = 1;

  00339	b8 13 00 00 00	 mov	 eax, 19			; 00000013H
  0033e	6b c8 00	 imul	 ecx, eax, 0
  00341	ba 01 00 00 00	 mov	 edx, 1
  00346	66 89 94 0d a6
	00 00 00	 mov	 WORD PTR _PersonalRoomOptionRightAndFee$[ebp+ecx+34], dx

; 1094 : 			PersonalRoomOptionRightAndFee.stCreateRoomPayFee[0].dwIniScore = 1000;

  0034e	b8 13 00 00 00	 mov	 eax, 19			; 00000013H
  00353	6b c8 00	 imul	 ecx, eax, 0
  00356	c7 84 0d a8 00
	00 00 e8 03 00
	00		 mov	 DWORD PTR _PersonalRoomOptionRightAndFee$[ebp+ecx+36], 1000 ; 000003e8H
$LN14@InsertPers:

; 1095 : 		}
; 1096 : 
; 1097 : 		for (int i = 0; i < FEE_OPTION_COUNT; i++)

  00361	c7 85 64 ff ff
	ff 00 00 00 00	 mov	 DWORD PTR _i$11[ebp], 0
  0036b	eb 0f		 jmp	 SHORT $LN4@InsertPers
$LN2@InsertPers:
  0036d	8b 85 64 ff ff
	ff		 mov	 eax, DWORD PTR _i$11[ebp]
  00373	83 c0 01	 add	 eax, 1
  00376	89 85 64 ff ff
	ff		 mov	 DWORD PTR _i$11[ebp], eax
$LN4@InsertPers:
  0037c	83 bd 64 ff ff
	ff 05		 cmp	 DWORD PTR _i$11[ebp], 5
  00383	0f 8d bd 01 00
	00		 jge	 $LN3@InsertPers

; 1098 : 		{
; 1099 : 			if (PersonalRoomOptionRightAndFee.stCreateRoomPayFee[i].dwPlayTimeLimit != 0 || PersonalRoomOptionRightAndFee.stCreateRoomPayFee[i].dwPlayTurnLimit != 0)

  00389	6b 85 64 ff ff
	ff 13		 imul	 eax, DWORD PTR _i$11[ebp], 19
  00390	83 bc 05 9e 00
	00 00 00	 cmp	 DWORD PTR _PersonalRoomOptionRightAndFee$[ebp+eax+26], 0
  00398	75 15		 jne	 SHORT $LN16@InsertPers
  0039a	6b 85 64 ff ff
	ff 13		 imul	 eax, DWORD PTR _i$11[ebp], 19
  003a1	83 bc 05 9a 00
	00 00 00	 cmp	 DWORD PTR _PersonalRoomOptionRightAndFee$[ebp+eax+22], 0
  003a9	0f 84 92 01 00
	00		 je	 $LN15@InsertPers
$LN16@InsertPers:

; 1100 : 			{
; 1101 : 				//插入参数
; 1102 : 				PlatformDBAide.ResetParameter();

  003af	8d 4d 08	 lea	 ecx, DWORD PTR _PlatformDBAide$[ebp]
  003b2	ff 15 00 00 00
	00		 call	 DWORD PTR __imp_?ResetParameter@CDataBaseAide@@QAEXXZ

; 1103 : 				PlatformDBAide.AddParameter(TEXT("@wKindID"),dwKindID);

  003b8	6a 01		 push	 1
  003ba	0f b7 85 fc 00
	00 00		 movzx	 eax, WORD PTR _dwKindID$[ebp]
  003c1	50		 push	 eax
  003c2	68 00 00 00 00	 push	 OFFSET ??_C@_08HBBOJKPI@?$EAwKindID@
  003c7	8d 4d 08	 lea	 ecx, DWORD PTR _PlatformDBAide$[ebp]
  003ca	ff 15 00 00 00
	00		 call	 DWORD PTR __imp_?AddParameter@CDataBaseAide@@QAEXPBDGW4ParameterDirectionEnum@ADOCG@@@Z

; 1104 : 				PlatformDBAide.AddParameter(TEXT("@DrawCountLimit"),PersonalRoomOptionRightAndFee.stCreateRoomPayFee[i].dwPlayTurnLimit );

  003d0	6a 01		 push	 1
  003d2	6b 85 64 ff ff
	ff 13		 imul	 eax, DWORD PTR _i$11[ebp], 19
  003d9	8b 8c 05 9a 00
	00 00		 mov	 ecx, DWORD PTR _PersonalRoomOptionRightAndFee$[ebp+eax+22]
  003e0	51		 push	 ecx
  003e1	68 00 00 00 00	 push	 OFFSET ??_C@_0BA@NEJOBMJG@?$EADrawCountLimit@
  003e6	8d 4d 08	 lea	 ecx, DWORD PTR _PlatformDBAide$[ebp]
  003e9	ff 15 00 00 00
	00		 call	 DWORD PTR __imp_?AddParameter@CDataBaseAide@@QAEXPBDKW4ParameterDirectionEnum@ADOCG@@@Z

; 1105 : 				PlatformDBAide.AddParameter(TEXT("@DrawTimeLimit"),PersonalRoomOptionRightAndFee.stCreateRoomPayFee[i].dwPlayTimeLimit);

  003ef	6a 01		 push	 1
  003f1	6b 85 64 ff ff
	ff 13		 imul	 eax, DWORD PTR _i$11[ebp], 19
  003f8	8b 8c 05 9e 00
	00 00		 mov	 ecx, DWORD PTR _PersonalRoomOptionRightAndFee$[ebp+eax+26]
  003ff	51		 push	 ecx
  00400	68 00 00 00 00	 push	 OFFSET ??_C@_0P@PPHKCKBK@?$EADrawTimeLimit@
  00405	8d 4d 08	 lea	 ecx, DWORD PTR _PlatformDBAide$[ebp]
  00408	ff 15 00 00 00
	00		 call	 DWORD PTR __imp_?AddParameter@CDataBaseAide@@QAEXPBDKW4ParameterDirectionEnum@ADOCG@@@Z

; 1106 : 				PlatformDBAide.AddParameter(TEXT("@TableFee"),PersonalRoomOptionRightAndFee.stCreateRoomPayFee[i].dwPayFee);

  0040e	6a 01		 push	 1
  00410	6b 85 64 ff ff
	ff 13		 imul	 eax, DWORD PTR _i$11[ebp], 19
  00417	8b 8c 05 a2 00
	00 00		 mov	 ecx, DWORD PTR _PersonalRoomOptionRightAndFee$[ebp+eax+30]
  0041e	51		 push	 ecx
  0041f	68 00 00 00 00	 push	 OFFSET ??_C@_09GLBENLGO@?$EATableFee@
  00424	8d 4d 08	 lea	 ecx, DWORD PTR _PlatformDBAide$[ebp]
  00427	ff 15 00 00 00
	00		 call	 DWORD PTR __imp_?AddParameter@CDataBaseAide@@QAEXPBDKW4ParameterDirectionEnum@ADOCG@@@Z

; 1107 : 				PlatformDBAide.AddParameter(TEXT("@AAPayFee"), PersonalRoomOptionRightAndFee.stCreateRoomPayFee[i].wAAPayFee);

  0042d	6a 01		 push	 1
  0042f	6b 85 64 ff ff
	ff 13		 imul	 eax, DWORD PTR _i$11[ebp], 19
  00436	0f b7 8c 05 a6
	00 00 00	 movzx	 ecx, WORD PTR _PersonalRoomOptionRightAndFee$[ebp+eax+34]
  0043e	51		 push	 ecx
  0043f	68 00 00 00 00	 push	 OFFSET ??_C@_09FCEHGDCA@?$EAAAPayFee@
  00444	8d 4d 08	 lea	 ecx, DWORD PTR _PlatformDBAide$[ebp]
  00447	ff 15 00 00 00
	00		 call	 DWORD PTR __imp_?AddParameter@CDataBaseAide@@QAEXPBDGW4ParameterDirectionEnum@ADOCG@@@Z

; 1108 : 				PlatformDBAide.AddParameter(TEXT("@IniScore"),PersonalRoomOptionRightAndFee.stCreateRoomPayFee[i].dwIniScore);

  0044d	6a 01		 push	 1
  0044f	6b 85 64 ff ff
	ff 13		 imul	 eax, DWORD PTR _i$11[ebp], 19
  00456	8b 8c 05 a8 00
	00 00		 mov	 ecx, DWORD PTR _PersonalRoomOptionRightAndFee$[ebp+eax+36]
  0045d	51		 push	 ecx
  0045e	68 00 00 00 00	 push	 OFFSET ??_C@_09FDIDCNIH@?$EAIniScore@
  00463	8d 4d 08	 lea	 ecx, DWORD PTR _PlatformDBAide$[ebp]
  00466	ff 15 00 00 00
	00		 call	 DWORD PTR __imp_?AddParameter@CDataBaseAide@@QAEXPBDKW4ParameterDirectionEnum@ADOCG@@@Z

; 1109 : 				PlatformDBAide.AddParameter(TEXT("@cbGameMode"), PersonalRoomOptionRightAndFee.stCreateRoomPayFee[i].cbGameMode);

  0046c	6a 01		 push	 1
  0046e	6b 85 64 ff ff
	ff 13		 imul	 eax, DWORD PTR _i$11[ebp], 19
  00475	0f b6 8c 05 99
	00 00 00	 movzx	 ecx, BYTE PTR _PersonalRoomOptionRightAndFee$[ebp+eax+21]
  0047d	51		 push	 ecx
  0047e	68 00 00 00 00	 push	 OFFSET ??_C@_0M@CIPFFAIA@?$EAcbGameMode@
  00483	8d 4d 08	 lea	 ecx, DWORD PTR _PlatformDBAide$[ebp]
  00486	ff 15 00 00 00
	00		 call	 DWORD PTR __imp_?AddParameter@CDataBaseAide@@QAEXPBDEW4ParameterDirectionEnum@ADOCG@@@Z

; 1110 : 				//输出信息
; 1111 : 				TCHAR szDescribeString[128]=TEXT("");

  0048c	a0 00 00 00 00	 mov	 al, BYTE PTR ??_C@_00CNPNBAHC@@
  00491	88 85 e4 fe ff
	ff		 mov	 BYTE PTR _szDescribeString$10[ebp], al
  00497	6a 7f		 push	 127			; 0000007fH
  00499	6a 00		 push	 0
  0049b	8d 85 e5 fe ff
	ff		 lea	 eax, DWORD PTR _szDescribeString$10[ebp+1]
  004a1	50		 push	 eax
  004a2	e8 00 00 00 00	 call	 _memset
  004a7	83 c4 0c	 add	 esp, 12			; 0000000cH

; 1112 : 				PlatformDBAide.AddParameterOutput(TEXT("@strErrorDescribe"),szDescribeString,sizeof(szDescribeString),adParamOutput);

  004aa	6a 02		 push	 2
  004ac	68 80 00 00 00	 push	 128			; 00000080H
  004b1	8d 85 e4 fe ff
	ff		 lea	 eax, DWORD PTR _szDescribeString$10[ebp]
  004b7	50		 push	 eax
  004b8	68 00 00 00 00	 push	 OFFSET ??_C@_0BC@IIOJPJPJ@?$EAstrErrorDescribe@
  004bd	8d 4d 08	 lea	 ecx, DWORD PTR _PlatformDBAide$[ebp]
  004c0	ff 15 00 00 00
	00		 call	 DWORD PTR __imp_?AddParameterOutput@CDataBaseAide@@QAEXPBDPADIW4ParameterDirectionEnum@ADOCG@@@Z

; 1113 : 				//执行命令
; 1114 : 				if (PlatformDBAide.ExecuteProcess(TEXT("GSP_GS_WritePersonalFeeParameter"),true)!=DB_SUCCESS)

  004c6	6a 01		 push	 1
  004c8	68 00 00 00 00	 push	 OFFSET ??_C@_0CB@BGEDMOGM@GSP_GS_WritePersonalFeeParamete@
  004cd	8d 4d 08	 lea	 ecx, DWORD PTR _PlatformDBAide$[ebp]
  004d0	ff 15 00 00 00
	00		 call	 DWORD PTR __imp_?ExecuteProcess@CDataBaseAide@@QAEJPBD_N@Z
  004d6	89 85 10 fe ff
	ff		 mov	 DWORD PTR tv451[ebp], eax
  004dc	83 bd 10 fe ff
	ff 00		 cmp	 DWORD PTR tv451[ebp], 0
  004e3	74 5c		 je	 SHORT $LN15@InsertPers

; 1115 : 				{
; 1116 : 					//获取信息
; 1117 : 					PlatformDBAide.GetParameter(TEXT("@strErrorDescribe"),szDescribeString,CountArray(szDescribeString));

  004e5	68 80 00 00 00	 push	 128			; 00000080H
  004ea	8d 85 e4 fe ff
	ff		 lea	 eax, DWORD PTR _szDescribeString$10[ebp]
  004f0	50		 push	 eax
  004f1	68 00 00 00 00	 push	 OFFSET ??_C@_0BC@IIOJPJPJ@?$EAstrErrorDescribe@
  004f6	8d 4d 08	 lea	 ecx, DWORD PTR _PlatformDBAide$[ebp]
  004f9	ff 15 00 00 00
	00		 call	 DWORD PTR __imp_?GetParameter@CDataBaseAide@@QAEXPBDPADI@Z

; 1118 : 
; 1119 : 					//错误提示
; 1120 : 					CTraceService::TraceString(TEXT("插入游戏费用出错"),TraceLevel_Exception);

  004ff	6a 03		 push	 3
  00501	68 00 00 00 00	 push	 OFFSET ??_C@_0BB@LABICMHO@?$LC?e?H?k?S?N?O?$LH?$LH?Q?S?C?$LD?v?$LE?m@
  00506	ff 15 00 00 00
	00		 call	 DWORD PTR __imp_?TraceString@CTraceService@@SA_NPBDW4enTraceLevel@@@Z
  0050c	83 c4 08	 add	 esp, 8

; 1121 : 
; 1122 : 					//错误提示
; 1123 : 					AfxMessageBox(szDescribeString,MB_ICONERROR);

  0050f	6a 00		 push	 0
  00511	6a 10		 push	 16			; 00000010H
  00513	8d 85 e4 fe ff
	ff		 lea	 eax, DWORD PTR _szDescribeString$10[ebp]
  00519	50		 push	 eax
  0051a	e8 00 00 00 00	 call	 ?AfxMessageBox@@YGHPBDII@Z ; AfxMessageBox

; 1124 : 
; 1125 : 					return false;

  0051f	c6 85 16 fe ff
	ff 00		 mov	 BYTE PTR $T4[ebp], 0
  00526	c7 45 fc ff ff
	ff ff		 mov	 DWORD PTR __$EHRec$[ebp+12], -1
  0052d	8d 4d 08	 lea	 ecx, DWORD PTR _PlatformDBAide$[ebp]
  00530	ff 15 00 00 00
	00		 call	 DWORD PTR __imp_??1CDataBaseAide@@UAE@XZ
  00536	8a 85 16 fe ff
	ff		 mov	 al, BYTE PTR $T4[ebp]
  0053c	e9 1d 02 00 00	 jmp	 $LN1@InsertPers
$LN15@InsertPers:

; 1126 : 				}
; 1127 : 			}
; 1128 : 		}

  00541	e9 27 fe ff ff	 jmp	 $LN2@InsertPers
$LN3@InsertPers:

; 1129 : 
; 1130 : 		//写配置信息
; 1131 : 		WritePersonalRoomInfo(PersonalRoomOption,  PersonalRoomOptionRightAndFee, dwKindID);

  00546	0f b7 85 fc 00
	00 00		 movzx	 eax, WORD PTR _dwKindID$[ebp]
  0054d	50		 push	 eax
  0054e	83 ec 74	 sub	 esp, 116		; 00000074H
  00551	b9 1d 00 00 00	 mov	 ecx, 29			; 0000001dH
  00556	8d b5 84 00 00
	00		 lea	 esi, DWORD PTR _PersonalRoomOptionRightAndFee$[ebp]
  0055c	8b fc		 mov	 edi, esp
  0055e	f3 a5		 rep movsd
  00560	83 ec 74	 sub	 esp, 116		; 00000074H
  00563	b9 1c 00 00 00	 mov	 ecx, 28			; 0000001cH
  00568	8d 75 10	 lea	 esi, DWORD PTR _PersonalRoomOption$[ebp]
  0056b	8b fc		 mov	 edi, esp
  0056d	f3 a5		 rep movsd
  0056f	a4		 movsb
  00570	8b 4d e8	 mov	 ecx, DWORD PTR _this$[ebp]
  00573	e8 00 00 00 00	 call	 ?WritePersonalRoomInfo@CServerInfoManager@@QAE_NUtagPersonalRoomOption@@UtagPersonalRoomOptionRightAndFee@@G@Z ; CServerInfoManager::WritePersonalRoomInfo

; 1132 : 		PlatformDBAide.ResetParameter();

  00578	8d 4d 08	 lea	 ecx, DWORD PTR _PlatformDBAide$[ebp]
  0057b	ff 15 00 00 00
	00		 call	 DWORD PTR __imp_?ResetParameter@CDataBaseAide@@QAEXXZ

; 1133 : 		PlatformDBAide.AddParameter(TEXT("@wKindID"), dwKindID);

  00581	6a 01		 push	 1
  00583	0f b7 85 fc 00
	00 00		 movzx	 eax, WORD PTR _dwKindID$[ebp]
  0058a	50		 push	 eax
  0058b	68 00 00 00 00	 push	 OFFSET ??_C@_08HBBOJKPI@?$EAwKindID@
  00590	8d 4d 08	 lea	 ecx, DWORD PTR _PlatformDBAide$[ebp]
  00593	ff 15 00 00 00
	00		 call	 DWORD PTR __imp_?AddParameter@CDataBaseAide@@QAEXPBDGW4ParameterDirectionEnum@ADOCG@@@Z

; 1134 : 
; 1135 : 		if (PlatformDBAide.ExecuteProcess(TEXT("GSP_GR_DeletePersonalCellScore"), true) == DB_SUCCESS)

  00599	6a 01		 push	 1
  0059b	68 00 00 00 00	 push	 OFFSET ??_C@_0BP@BNMLDPEJ@GSP_GR_DeletePersonalCellScore@
  005a0	8d 4d 08	 lea	 ecx, DWORD PTR _PlatformDBAide$[ebp]
  005a3	ff 15 00 00 00
	00		 call	 DWORD PTR __imp_?ExecuteProcess@CDataBaseAide@@QAEJPBD_N@Z
  005a9	89 85 10 fe ff
	ff		 mov	 DWORD PTR tv452[ebp], eax
  005af	83 bd 10 fe ff
	ff 00		 cmp	 DWORD PTR tv452[ebp], 0
  005b6	0f 85 32 01 00
	00		 jne	 $LN18@InsertPers

; 1136 : 		{
; 1137 : 			//写入底分配置
; 1138 : 			for (int i = 0; i < CELLSCORE_COUNT; i++)

  005bc	c7 85 e0 fe ff
	ff 00 00 00 00	 mov	 DWORD PTR _i$9[ebp], 0
  005c6	eb 0f		 jmp	 SHORT $LN7@InsertPers
$LN5@InsertPers:
  005c8	8b 85 e0 fe ff
	ff		 mov	 eax, DWORD PTR _i$9[ebp]
  005ce	83 c0 01	 add	 eax, 1
  005d1	89 85 e0 fe ff
	ff		 mov	 DWORD PTR _i$9[ebp], eax
$LN7@InsertPers:
  005d7	83 bd e0 fe ff
	ff 05		 cmp	 DWORD PTR _i$9[ebp], 5
  005de	0f 8d 0a 01 00
	00		 jge	 $LN18@InsertPers

; 1139 : 			{
; 1140 : 				if (PersonalRoomOptionRightAndFee.nCellScore[i] != 0)

  005e4	8b 85 e0 fe ff
	ff		 mov	 eax, DWORD PTR _i$9[ebp]
  005ea	83 bc 85 85 00
	00 00 00	 cmp	 DWORD PTR _PersonalRoomOptionRightAndFee$[ebp+eax*4+1], 0
  005f2	0f 84 f1 00 00
	00		 je	 $LN19@InsertPers

; 1141 : 				{
; 1142 : 					PlatformDBAide.ResetParameter();

  005f8	8d 4d 08	 lea	 ecx, DWORD PTR _PlatformDBAide$[ebp]
  005fb	ff 15 00 00 00
	00		 call	 DWORD PTR __imp_?ResetParameter@CDataBaseAide@@QAEXXZ

; 1143 : 					PlatformDBAide.AddParameter(TEXT("@wKindID"), dwKindID);

  00601	6a 01		 push	 1
  00603	0f b7 85 fc 00
	00 00		 movzx	 eax, WORD PTR _dwKindID$[ebp]
  0060a	50		 push	 eax
  0060b	68 00 00 00 00	 push	 OFFSET ??_C@_08HBBOJKPI@?$EAwKindID@
  00610	8d 4d 08	 lea	 ecx, DWORD PTR _PlatformDBAide$[ebp]
  00613	ff 15 00 00 00
	00		 call	 DWORD PTR __imp_?AddParameter@CDataBaseAide@@QAEXPBDGW4ParameterDirectionEnum@ADOCG@@@Z

; 1144 : 					PlatformDBAide.AddParameter(TEXT("@lCellScore"), PersonalRoomOptionRightAndFee.nCellScore[i]);

  00619	6a 01		 push	 1
  0061b	8b 85 e0 fe ff
	ff		 mov	 eax, DWORD PTR _i$9[ebp]
  00621	8b 8c 85 85 00
	00 00		 mov	 ecx, DWORD PTR _PersonalRoomOptionRightAndFee$[ebp+eax*4+1]
  00628	51		 push	 ecx
  00629	68 00 00 00 00	 push	 OFFSET ??_C@_0M@DOJONCPP@?$EAlCellScore@
  0062e	8d 4d 08	 lea	 ecx, DWORD PTR _PlatformDBAide$[ebp]
  00631	ff 15 00 00 00
	00		 call	 DWORD PTR __imp_?AddParameter@CDataBaseAide@@QAEXPBDHW4ParameterDirectionEnum@ADOCG@@@Z

; 1145 : 
; 1146 : 					//输出信息
; 1147 : 					TCHAR szDescribeString[128] = TEXT("");

  00637	a0 00 00 00 00	 mov	 al, BYTE PTR ??_C@_00CNPNBAHC@@
  0063c	88 85 60 fe ff
	ff		 mov	 BYTE PTR _szDescribeString$8[ebp], al
  00642	6a 7f		 push	 127			; 0000007fH
  00644	6a 00		 push	 0
  00646	8d 85 61 fe ff
	ff		 lea	 eax, DWORD PTR _szDescribeString$8[ebp+1]
  0064c	50		 push	 eax
  0064d	e8 00 00 00 00	 call	 _memset
  00652	83 c4 0c	 add	 esp, 12			; 0000000cH

; 1148 : 					PlatformDBAide.AddParameterOutput(TEXT("@strErrorDescribe"), szDescribeString, sizeof(szDescribeString), adParamOutput);

  00655	6a 02		 push	 2
  00657	68 80 00 00 00	 push	 128			; 00000080H
  0065c	8d 85 60 fe ff
	ff		 lea	 eax, DWORD PTR _szDescribeString$8[ebp]
  00662	50		 push	 eax
  00663	68 00 00 00 00	 push	 OFFSET ??_C@_0BC@IIOJPJPJ@?$EAstrErrorDescribe@
  00668	8d 4d 08	 lea	 ecx, DWORD PTR _PlatformDBAide$[ebp]
  0066b	ff 15 00 00 00
	00		 call	 DWORD PTR __imp_?AddParameterOutput@CDataBaseAide@@QAEXPBDPADIW4ParameterDirectionEnum@ADOCG@@@Z

; 1149 : 
; 1150 : 					//执行命令
; 1151 : 					if (PlatformDBAide.ExecuteProcess(TEXT("GSP_GR_InsertPersonalCellScore"), true) != DB_SUCCESS)

  00671	6a 01		 push	 1
  00673	68 00 00 00 00	 push	 OFFSET ??_C@_0BP@GEFHPGBC@GSP_GR_InsertPersonalCellScore@
  00678	8d 4d 08	 lea	 ecx, DWORD PTR _PlatformDBAide$[ebp]
  0067b	ff 15 00 00 00
	00		 call	 DWORD PTR __imp_?ExecuteProcess@CDataBaseAide@@QAEJPBD_N@Z
  00681	89 85 10 fe ff
	ff		 mov	 DWORD PTR tv453[ebp], eax
  00687	83 bd 10 fe ff
	ff 00		 cmp	 DWORD PTR tv453[ebp], 0
  0068e	74 59		 je	 SHORT $LN19@InsertPers

; 1152 : 					{
; 1153 : 						//获取信息
; 1154 : 						PlatformDBAide.GetParameter(TEXT("@strErrorDescribe"), szDescribeString, CountArray(szDescribeString));

  00690	68 80 00 00 00	 push	 128			; 00000080H
  00695	8d 85 60 fe ff
	ff		 lea	 eax, DWORD PTR _szDescribeString$8[ebp]
  0069b	50		 push	 eax
  0069c	68 00 00 00 00	 push	 OFFSET ??_C@_0BC@IIOJPJPJ@?$EAstrErrorDescribe@
  006a1	8d 4d 08	 lea	 ecx, DWORD PTR _PlatformDBAide$[ebp]
  006a4	ff 15 00 00 00
	00		 call	 DWORD PTR __imp_?GetParameter@CDataBaseAide@@QAEXPBDPADI@Z

; 1155 : 
; 1156 : 						//错误提示
; 1157 : 						CTraceService::TraceString(TEXT("插入游戏底分出错"), TraceLevel_Exception);

  006aa	6a 03		 push	 3
  006ac	68 00 00 00 00	 push	 OFFSET ??_C@_0BB@HEGDPGKB@?$LC?e?H?k?S?N?O?$LH?$LF?W?$LH?V?$LD?v?$LE?m@
  006b1	ff 15 00 00 00
	00		 call	 DWORD PTR __imp_?TraceString@CTraceService@@SA_NPBDW4enTraceLevel@@@Z
  006b7	83 c4 08	 add	 esp, 8

; 1158 : 
; 1159 : 						//错误提示
; 1160 : 						AfxMessageBox(szDescribeString, MB_ICONERROR);

  006ba	6a 00		 push	 0
  006bc	6a 10		 push	 16			; 00000010H
  006be	8d 85 60 fe ff
	ff		 lea	 eax, DWORD PTR _szDescribeString$8[ebp]
  006c4	50		 push	 eax
  006c5	e8 00 00 00 00	 call	 ?AfxMessageBox@@YGHPBDII@Z ; AfxMessageBox

; 1161 : 
; 1162 : 						return false;

  006ca	c6 85 15 fe ff
	ff 00		 mov	 BYTE PTR $T3[ebp], 0
  006d1	c7 45 fc ff ff
	ff ff		 mov	 DWORD PTR __$EHRec$[ebp+12], -1
  006d8	8d 4d 08	 lea	 ecx, DWORD PTR _PlatformDBAide$[ebp]
  006db	ff 15 00 00 00
	00		 call	 DWORD PTR __imp_??1CDataBaseAide@@UAE@XZ
  006e1	8a 85 15 fe ff
	ff		 mov	 al, BYTE PTR $T3[ebp]
  006e7	eb 75		 jmp	 SHORT $LN1@InsertPers
$LN19@InsertPers:

; 1163 : 					}
; 1164 : 				}
; 1165 : 
; 1166 : 			}

  006e9	e9 da fe ff ff	 jmp	 $LN5@InsertPers
$LN18@InsertPers:

; 1167 : 		}
; 1168 : 	}

  006ee	eb 41		 jmp	 SHORT $LN22@InsertPers
__catch$?InsertPersonalRoomParameter@CServerInfoManager@@QAE_NVCDataBaseAide@@UtagPersonalRoomOption@@UtagPersonalRoomOptionRightAndFee@@GG@Z$0:

; 1169 : 	catch (IDataBaseException * pIException)
; 1170 : 	{
; 1171 : 		//错误信息
; 1172 : 		LPCTSTR pszDescribe=pIException->GetExceptionDescribe();

  006f0	8b 85 5c fe ff
	ff		 mov	 eax, DWORD PTR _pIException$7[ebp]
  006f6	8b 10		 mov	 edx, DWORD PTR [eax]
  006f8	8b 8d 5c fe ff
	ff		 mov	 ecx, DWORD PTR _pIException$7[ebp]
  006fe	8b 42 0c	 mov	 eax, DWORD PTR [edx+12]
  00701	ff d0		 call	 eax
  00703	89 85 58 fe ff
	ff		 mov	 DWORD PTR _pszDescribe$6[ebp], eax

; 1173 : 		CTraceService::TraceString(pszDescribe,TraceLevel_Exception);

  00709	6a 03		 push	 3
  0070b	8b 85 58 fe ff
	ff		 mov	 eax, DWORD PTR _pszDescribe$6[ebp]
  00711	50		 push	 eax
  00712	ff 15 00 00 00
	00		 call	 DWORD PTR __imp_?TraceString@CTraceService@@SA_NPBDW4enTraceLevel@@@Z
  00718	83 c4 08	 add	 esp, 8

; 1174 : 
; 1175 : 		//错误提示
; 1176 : 		AfxMessageBox(pszDescribe,MB_ICONERROR);

  0071b	6a 00		 push	 0
  0071d	6a 10		 push	 16			; 00000010H
  0071f	8b 85 58 fe ff
	ff		 mov	 eax, DWORD PTR _pszDescribe$6[ebp]
  00725	50		 push	 eax
  00726	e8 00 00 00 00	 call	 ?AfxMessageBox@@YGHPBDII@Z ; AfxMessageBox

; 1177 : 	}

  0072b	b8 00 00 00 00	 mov	 eax, $LN26@InsertPers
  00730	c3		 ret	 0
$LN22@InsertPers:
  00731	c7 45 fc 00 00
	00 00		 mov	 DWORD PTR __$EHRec$[ebp+12], 0
  00738	eb 07		 jmp	 SHORT __tryend$?InsertPersonalRoomParameter@CServerInfoManager@@QAE_NVCDataBaseAide@@UtagPersonalRoomOption@@UtagPersonalRoomOptionRightAndFee@@GG@Z$1
$LN26@InsertPers:
  0073a	c7 45 fc 00 00
	00 00		 mov	 DWORD PTR __$EHRec$[ebp+12], 0
__tryend$?InsertPersonalRoomParameter@CServerInfoManager@@QAE_NVCDataBaseAide@@UtagPersonalRoomOption@@UtagPersonalRoomOptionRightAndFee@@GG@Z$1:

; 1178 : 
; 1179 : 	return true;

  00741	c6 85 14 fe ff
	ff 01		 mov	 BYTE PTR $T2[ebp], 1
  00748	c7 45 fc ff ff
	ff ff		 mov	 DWORD PTR __$EHRec$[ebp+12], -1
  0074f	8d 4d 08	 lea	 ecx, DWORD PTR _PlatformDBAide$[ebp]
  00752	ff 15 00 00 00
	00		 call	 DWORD PTR __imp_??1CDataBaseAide@@UAE@XZ
  00758	8a 85 14 fe ff
	ff		 mov	 al, BYTE PTR $T2[ebp]
$LN1@InsertPers:

; 1180 : }

  0075e	8b 4d f4	 mov	 ecx, DWORD PTR __$EHRec$[ebp+4]
