; Listing generated by Microsoft (R) Optimizing Compiler Version 19.16.27032.1 

	TITLE	G:\网狐\HappyGameWH\服务端\系统模块\服务器组件\聊天服务器\AttemperEngineSink.cpp
	.686P
	.XMM
	include listing.inc
	.model	flat

INCLUDELIB MSVCRTD
INCLUDELIB OLDNAMES

CONST	SEGMENT
?IID_IUnknownEx@@3U_GUID@@B DD 05feec21eH		; IID_IUnknownEx
	DW	0dbf3H
	DW	046f0H
	DB	09fH
	DB	057H
	DB	0d1H
	DB	0cdH
	DB	071H
	DB	01cH
	DB	046H
	DB	0deH
?IID_IAttemperEngineSink@@3U_GUID@@B DD 0831b9001H	; IID_IAttemperEngineSink
	DW	04450H
	DW	045ddH
	DB	091H
	DB	037H
	DB	0dH
	DB	026H
	DB	016H
	DB	0e3H
	DB	075H
	DB	032H
CONST	ENDS
PUBLIC	?__empty_global_delete@@YAXPAX@Z		; __empty_global_delete
PUBLIC	?__empty_global_delete@@YAXPAXI@Z		; __empty_global_delete
PUBLIC	??2@YAPAXIPAX@Z					; operator new
PUBLIC	_IsEqualGUID
PUBLIC	_==
PUBLIC	___local_stdio_printf_options
PUBLIC	__vsnprintf_l
PUBLIC	__vsnprintf
PUBLIC	__vsprintf_l
PUBLIC	_sprintf
PUBLIC	__snprintf
PUBLIC	?AfxAssertFailedLine@@YGHPBDH@Z			; AfxAssertFailedLine
PUBLIC	??0IUnknownEx@@QAE@XZ				; IUnknownEx::IUnknownEx
PUBLIC	?GetProductVer@@YAEK@Z				; GetProductVer
PUBLIC	?GetMainVer@@YAEK@Z				; GetMainVer
PUBLIC	?GetSubVer@@YAEK@Z				; GetSubVer
PUBLIC	?GetBuildVer@@YAEK@Z				; GetBuildVer
PUBLIC	?InterfaceVersionCompare@@YA_NKK@Z		; InterfaceVersionCompare
PUBLIC	??0CSendPacketHelper@@QAE@PAXG@Z		; CSendPacketHelper::CSendPacketHelper
PUBLIC	?GetDataSize@CSendPacketHelper@@QAEGXZ		; CSendPacketHelper::GetDataSize
PUBLIC	?AddPacket@CSendPacketHelper@@QAE_NPAXGG@Z	; CSendPacketHelper::AddPacket
PUBLIC	??0IAttemperEngineSink@@QAE@XZ			; IAttemperEngineSink::IAttemperEngineSink
PUBLIC	?GetUserItemKind@CServerUserItem@@QAE?AW4enUserItemKind@@XZ ; CServerUserItem::GetUserItemKind
PUBLIC	?GetCount@?$CWHArray@PAUtagNearUserInfo@@ABQAU1@@@QBEHXZ ; CWHArray<tagNearUserInfo *,tagNearUserInfo * const &>::GetCount
PUBLIC	?GetUserItemCount@CNearUserManager@@UAEKXZ	; CNearUserManager::GetUserItemCount
PUBLIC	?SetOwnerUserID@CUserFriendGroup@@QAEXK@Z	; CUserFriendGroup::SetOwnerUserID
PUBLIC	??0?$CWHArray@PAUtagSystemMessage@@ABQAU1@@@QAE@XZ ; CWHArray<tagSystemMessage *,tagSystemMessage * const &>::CWHArray<tagSystemMessage *,tagSystemMessage * const &>
PUBLIC	??1?$CWHArray@PAUtagSystemMessage@@ABQAU1@@@UAE@XZ ; CWHArray<tagSystemMessage *,tagSystemMessage * const &>::~CWHArray<tagSystemMessage *,tagSystemMessage * const &>
PUBLIC	?GetCount@?$CWHArray@PAUtagSystemMessage@@ABQAU1@@@QBEHXZ ; CWHArray<tagSystemMessage *,tagSystemMessage * const &>::GetCount
PUBLIC	?Add@?$CWHArray@PAUtagSystemMessage@@ABQAU1@@@QAEHABQAUtagSystemMessage@@@Z ; CWHArray<tagSystemMessage *,tagSystemMessage * const &>::Add
PUBLIC	?Append@?$CWHArray@PAUtagSystemMessage@@ABQAU1@@@QAEHABV1@@Z ; CWHArray<tagSystemMessage *,tagSystemMessage * const &>::Append
PUBLIC	?ElementAt@?$CWHArray@PAUtagSystemMessage@@ABQAU1@@@QAEAAPAUtagSystemMessage@@H@Z ; CWHArray<tagSystemMessage *,tagSystemMessage * const &>::ElementAt
PUBLIC	?SetSize@?$CWHArray@PAUtagSystemMessage@@ABQAU1@@@QAEXH@Z ; CWHArray<tagSystemMessage *,tagSystemMessage * const &>::SetSize
PUBLIC	?SetAtGrow@?$CWHArray@PAUtagSystemMessage@@ABQAU1@@@QAEXHABQAUtagSystemMessage@@@Z ; CWHArray<tagSystemMessage *,tagSystemMessage * const &>::SetAtGrow
PUBLIC	?RemoveAt@?$CWHArray@PAUtagSystemMessage@@ABQAU1@@@QAEXHH@Z ; CWHArray<tagSystemMessage *,tagSystemMessage * const &>::RemoveAt
PUBLIC	?RemoveAll@?$CWHArray@PAUtagSystemMessage@@ABQAU1@@@QAEXXZ ; CWHArray<tagSystemMessage *,tagSystemMessage * const &>::RemoveAll
PUBLIC	??A?$CWHArray@PAUtagSystemMessage@@ABQAU1@@@QAEAAPAUtagSystemMessage@@H@Z ; CWHArray<tagSystemMessage *,tagSystemMessage * const &>::operator[]
PUBLIC	?AllocMemory@?$CWHArray@PAUtagSystemMessage@@ABQAU1@@@QAEXH@Z ; CWHArray<tagSystemMessage *,tagSystemMessage * const &>::AllocMemory
PUBLIC	??_G?$CWHArray@PAUtagSystemMessage@@ABQAU1@@@UAEPAXI@Z ; CWHArray<tagSystemMessage *,tagSystemMessage * const &>::`scalar deleting destructor'
PUBLIC	??0CAttemperEngineSink@@QAE@XZ			; CAttemperEngineSink::CAttemperEngineSink
PUBLIC	??1CAttemperEngineSink@@UAE@XZ			; CAttemperEngineSink::~CAttemperEngineSink
PUBLIC	?Release@CAttemperEngineSink@@UAEXXZ		; CAttemperEngineSink::Release
PUBLIC	?QueryInterface@CAttemperEngineSink@@UAEPAXABU_GUID@@K@Z ; CAttemperEngineSink::QueryInterface
PUBLIC	?OnAttemperEngineStart@CAttemperEngineSink@@UAE_NPAUIUnknownEx@@@Z ; CAttemperEngineSink::OnAttemperEngineStart
PUBLIC	?OnAttemperEngineConclude@CAttemperEngineSink@@UAE_NPAUIUnknownEx@@@Z ; CAttemperEngineSink::OnAttemperEngineConclude
PUBLIC	?OnEventControl@CAttemperEngineSink@@UAE_NGPAXG@Z ; CAttemperEngineSink::OnEventControl
PUBLIC	?OnEventAttemperData@CAttemperEngineSink@@UAE_NGPAXG@Z ; CAttemperEngineSink::OnEventAttemperData
PUBLIC	?OnEventTimer@CAttemperEngineSink@@UAE_NKI@Z	; CAttemperEngineSink::OnEventTimer
PUBLIC	?OnEventTCPSocketLink@CAttemperEngineSink@@UAE_NGH@Z ; CAttemperEngineSink::OnEventTCPSocketLink
PUBLIC	?OnEventTCPSocketShut@CAttemperEngineSink@@UAE_NGE@Z ; CAttemperEngineSink::OnEventTCPSocketShut
PUBLIC	?OnEventTCPSocketRead@CAttemperEngineSink@@UAE_NGUTCP_Command@@PAXG@Z ; CAttemperEngineSink::OnEventTCPSocketRead
PUBLIC	?OnEventTCPSocketMainServiceInfo@CAttemperEngineSink@@IAE_NGPAXG@Z ; CAttemperEngineSink::OnEventTCPSocketMainServiceInfo
PUBLIC	?OnEventTCPSocketMainUserCollect@CAttemperEngineSink@@IAE_NGPAXG@Z ; CAttemperEngineSink::OnEventTCPSocketMainUserCollect
PUBLIC	?OnEventTCPSocketSubUserStatus@CAttemperEngineSink@@IAE_NPAXG@Z ; CAttemperEngineSink::OnEventTCPSocketSubUserStatus
PUBLIC	?OnTCPSocketMainManagerService@CAttemperEngineSink@@IAE_NGPAXG@Z ; CAttemperEngineSink::OnTCPSocketMainManagerService
PUBLIC	?SendUIControlPacket@CAttemperEngineSink@@QAE_NGPAXG@Z ; CAttemperEngineSink::SendUIControlPacket
PUBLIC	?OnEventTCPNetworkBind@CAttemperEngineSink@@UAE_NKK@Z ; CAttemperEngineSink::OnEventTCPNetworkBind
PUBLIC	?OnEventTCPNetworkShut@CAttemperEngineSink@@UAE_NKKK@Z ; CAttemperEngineSink::OnEventTCPNetworkShut
PUBLIC	?OnEventTCPNetworkRead@CAttemperEngineSink@@UAE_NUTCP_Command@@PAXGK@Z ; CAttemperEngineSink::OnEventTCPNetworkRead
PUBLIC	?OnTCPNetworkMainUser@CAttemperEngineSink@@IAE_NGPAXGK@Z ; CAttemperEngineSink::OnTCPNetworkMainUser
PUBLIC	?OnTCPNetworkMainLogon@CAttemperEngineSink@@IAE_NGPAXGK@Z ; CAttemperEngineSink::OnTCPNetworkMainLogon
PUBLIC	?OnTCPNetworkSubMBLogonByUserID@CAttemperEngineSink@@IAE_NPAXGK@Z ; CAttemperEngineSink::OnTCPNetworkSubMBLogonByUserID
PUBLIC	?OnTCPNetworkSubApplyForFriend@CAttemperEngineSink@@IAE_NPAXGK@Z ; CAttemperEngineSink::OnTCPNetworkSubApplyForFriend
PUBLIC	?OnTCPNetworkSubRespondFriend@CAttemperEngineSink@@IAE_NPAXGK@Z ; CAttemperEngineSink::OnTCPNetworkSubRespondFriend
PUBLIC	?OnTCPNetworkSubRoomInvite@CAttemperEngineSink@@IAE_NPAXGK@Z ; CAttemperEngineSink::OnTCPNetworkSubRoomInvite
PUBLIC	?OnTCPNetworkSubInvitePersonal@CAttemperEngineSink@@IAE_NPAXGK@Z ; CAttemperEngineSink::OnTCPNetworkSubInvitePersonal
PUBLIC	?OnTCPNetworkSubUserChat@CAttemperEngineSink@@IAE_NPAXGK@Z ; CAttemperEngineSink::OnTCPNetworkSubUserChat
PUBLIC	?OnTCPNetworkSubSearchUser@CAttemperEngineSink@@IAE_NPAXGK@Z ; CAttemperEngineSink::OnTCPNetworkSubSearchUser
PUBLIC	?OnTCPNetworkSubTrumpet@CAttemperEngineSink@@IAE_NPAXGK@Z ; CAttemperEngineSink::OnTCPNetworkSubTrumpet
PUBLIC	?OnTCPNetworkDeleteFriend@CAttemperEngineSink@@IAE_NPAXGK@Z ; CAttemperEngineSink::OnTCPNetworkDeleteFriend
PUBLIC	?OnTCPNetworkUpdateCoordinate@CAttemperEngineSink@@IAE_NPAXGK@Z ; CAttemperEngineSink::OnTCPNetworkUpdateCoordinate
PUBLIC	?OnTCPNetworkGetNearuser@CAttemperEngineSink@@IAE_NPAXGK@Z ; CAttemperEngineSink::OnTCPNetworkGetNearuser
PUBLIC	?OnTCPNetworkQueryNearuser@CAttemperEngineSink@@IAE_NPAXGK@Z ; CAttemperEngineSink::OnTCPNetworkQueryNearuser
PUBLIC	?OnTCPNetworkSubUserShare@CAttemperEngineSink@@IAE_NPAXGK@Z ; CAttemperEngineSink::OnTCPNetworkSubUserShare
PUBLIC	?SendData@CAttemperEngineSink@@IAE_NKGGPAXG@Z	; CAttemperEngineSink::SendData
PUBLIC	?SendChatServerConfig@CAttemperEngineSink@@IAE_NK@Z ; CAttemperEngineSink::SendChatServerConfig
PUBLIC	?SendSystemMessage@CAttemperEngineSink@@IAE_NPBDG@Z ; CAttemperEngineSink::SendSystemMessage
PUBLIC	?SendSystemMessage@CAttemperEngineSink@@IAE_NKPBDG@Z ; CAttemperEngineSink::SendSystemMessage
PUBLIC	?SendLogonFailure@CAttemperEngineSink@@IAE_NPBDJK@Z ; CAttemperEngineSink::SendLogonFailure
PUBLIC	?SendOperateFailure@CAttemperEngineSink@@IAE_NPBDJJK@Z ; CAttemperEngineSink::SendOperateFailure
PUBLIC	?SendOperateSuccess@CAttemperEngineSink@@IAE_NPBDJK@Z ; CAttemperEngineSink::SendOperateSuccess
PUBLIC	?SendDataToUserFriend@CAttemperEngineSink@@IAE_NKGGPAXG@Z ; CAttemperEngineSink::SendDataToUserFriend
PUBLIC	?SaveOfflineMessage@CAttemperEngineSink@@IAE_NKGPAXGK@Z ; CAttemperEngineSink::SaveOfflineMessage
PUBLIC	?GetBindUserItem@CAttemperEngineSink@@IAEPAVCServerUserItem@@G@Z ; CAttemperEngineSink::GetBindUserItem
PUBLIC	?GetBindParameter@CAttemperEngineSink@@IAEPAUtagBindParameter@@G@Z ; CAttemperEngineSink::GetBindParameter
PUBLIC	?RemoveSystemMessage@CAttemperEngineSink@@IAEXXZ ; CAttemperEngineSink::RemoveSystemMessage
PUBLIC	?OnEventDataBase@CAttemperEngineSink@@MAE_NGKPAXG@Z ; CAttemperEngineSink::OnEventDataBase
PUBLIC	?OnDBLogonSuccess@CAttemperEngineSink@@IAE_NKPAXG@Z ; CAttemperEngineSink::OnDBLogonSuccess
PUBLIC	?OnDBLogonFailure@CAttemperEngineSink@@IAE_NKPAXG@Z ; CAttemperEngineSink::OnDBLogonFailure
PUBLIC	?OnDBLoadUserGroup@CAttemperEngineSink@@IAE_NKPAXG@Z ; CAttemperEngineSink::OnDBLoadUserGroup
PUBLIC	?OnDBLoadUserFriend@CAttemperEngineSink@@IAE_NKPAXG@Z ; CAttemperEngineSink::OnDBLoadUserFriend
PUBLIC	?OnDBLoadUserRemarksInfo@CAttemperEngineSink@@IAE_NKPAXG@Z ; CAttemperEngineSink::OnDBLoadUserRemarksInfo
PUBLIC	?OnDBLoadUserSimpleIndividual@CAttemperEngineSink@@IAE_NKPAXG@Z ; CAttemperEngineSink::OnDBLoadUserSimpleIndividual
PUBLIC	?OnDBLoadUserOfflineMessage@CAttemperEngineSink@@IAE_NKPAXG@Z ; CAttemperEngineSink::OnDBLoadUserOfflineMessage
PUBLIC	?OnDBLoadDeleteFriend@CAttemperEngineSink@@IAE_NKPAXG@Z ; CAttemperEngineSink::OnDBLoadDeleteFriend
PUBLIC	?OnDBUserAddFriend@CAttemperEngineSink@@IAE_NKPAXG@Z ; CAttemperEngineSink::OnDBUserAddFriend
PUBLIC	?OnDBUserOperateResult@CAttemperEngineSink@@IAE_NKPAXG@Z ; CAttemperEngineSink::OnDBUserOperateResult
PUBLIC	?OnDBSearchUserResult@CAttemperEngineSink@@IAE_NKPAXG@Z ; CAttemperEngineSink::OnDBSearchUserResult
PUBLIC	?OnDBTrumpetResult@CAttemperEngineSink@@IAE_NKPAXG@Z ; CAttemperEngineSink::OnDBTrumpetResult
PUBLIC	?OnDBSystemMessage@CAttemperEngineSink@@IAE_NKPAXG@Z ; CAttemperEngineSink::OnDBSystemMessage
PUBLIC	?OnDBSystemMessageFinish@CAttemperEngineSink@@IAE_NKPAXG@Z ; CAttemperEngineSink::OnDBSystemMessageFinish
PUBLIC	??_GCAttemperEngineSink@@UAEPAXI@Z		; CAttemperEngineSink::`scalar deleting destructor'
PUBLIC	?_OptionsStorage@?1??__local_stdio_printf_options@@9@4_KA ; `__local_stdio_printf_options'::`2'::_OptionsStorage
PUBLIC	??_C@_00CNPNBAHC@@				; `string'
PUBLIC	??_7IUnknownEx@@6B@				; IUnknownEx::`vftable'
PUBLIC	??_C@_0DK@NEJIDGKJ@g?3?2?M?x?$LK?$PM?2happygamewh?2?$LH?$PO?N?q?$LG?K?2?O?$LF?M?$LD@ ; `string'
PUBLIC	?__LINE__Var@?0??AddPacket@CSendPacketHelper@@QAE_NPAXGG@Z@4JA ; `CSendPacketHelper::AddPacket'::`1'::__LINE__Var
PUBLIC	??_7IAttemperEngineSink@@6B@			; IAttemperEngineSink::`vftable'
PUBLIC	??_7?$CWHArray@PAUtagSystemMessage@@ABQAU1@@@6B@ ; CWHArray<tagSystemMessage *,tagSystemMessage * const &>::`vftable'
PUBLIC	??_7CAttemperEngineSink@@6B@			; CAttemperEngineSink::`vftable'
PUBLIC	?__LINE__Var@?0???1CAttemperEngineSink@@UAE@XZ@4JA ; `CAttemperEngineSink::~CAttemperEngineSink'::`1'::__LINE__Var
PUBLIC	?__LINE__Var@?0??OnAttemperEngineStart@CAttemperEngineSink@@UAE_NPAUIUnknownEx@@@Z@4JA ; `CAttemperEngineSink::OnAttemperEngineStart'::`1'::__LINE__Var
PUBLIC	?__LINE__Var@?0??OnAttemperEngineConclude@CAttemperEngineSink@@UAE_NPAUIUnknownEx@@@Z@4JA ; `CAttemperEngineSink::OnAttemperEngineConclude'::`1'::__LINE__Var
PUBLIC	??_C@_0BN@EEJNAPCD@?U?$PN?T?Z?A?$KM?$LN?S?P?$KN?$LF?w?$LH?$PO?N?q?F?w?5?$FL?5?$CFs?3?$CFd?5?$FN@ ; `string'
PUBLIC	?__LINE__Var@?0??OnEventTimer@CAttemperEngineSink@@UAE_NKI@Z@4JA ; `CAttemperEngineSink::OnEventTimer'::`1'::__LINE__Var
PUBLIC	?__LINE__Var@?0??OnEventTCPSocketLink@CAttemperEngineSink@@UAE_NGH@Z@4JA ; `CAttemperEngineSink::OnEventTCPSocketLink'::`1'::__LINE__Var
PUBLIC	??_C@_0CP@NEANHCGA@?P?$KN?$LF?w?$LH?$PO?N?q?F?w?A?$KM?$LN?S?J?$KH?$LA?$NM?5?$FL?5?$CFld?5?$FN?$KD?$KM?$CFld@ ; `string'
PUBLIC	??_C@_0BK@HFEPLLFN@?U?$PN?T?Z?W?$KC?$LC?a?S?N?O?$LH?A?D?L?l?$LH?$PO?N?q?F?w?4?4?4@ ; `string'
PUBLIC	?__LINE__Var@?0??OnEventTCPSocketShut@CAttemperEngineSink@@UAE_NGE@Z@4JA ; `CAttemperEngineSink::OnEventTCPSocketShut'::`1'::__LINE__Var
PUBLIC	??_C@_0CN@HPLNLDC@?S?k?P?$KN?$LF?w?$LH?$PO?N?q?F?w?$LF?D?A?$KM?$LN?S?$LJ?X?$LB?U?A?K?$KD?$KM?$CFld?5?C@ ; `string'
PUBLIC	?__LINE__Var@?0??OnEventTCPSocketSubUserStatus@CAttemperEngineSink@@IAE_NPAXG@Z@4JA ; `CAttemperEngineSink::OnEventTCPSocketSubUserStatus'::`1'::__LINE__Var
PUBLIC	?__LINE__Var@?0??OnEventTCPNetworkBind@CAttemperEngineSink@@UAE_NKK@Z@4JA ; `CAttemperEngineSink::OnEventTCPNetworkBind'::`1'::__LINE__Var
PUBLIC	??_C@_0BM@DDKDJNDD@?$LJ?X?$LB?U?A?$KM?$LN?S?R?l?$LD?$KD?3?5dwSocketID?$DN?$CFd@ ; `string'
PUBLIC	?__LINE__Var@?0??OnTCPNetworkSubMBLogonByUserID@CAttemperEngineSink@@IAE_NPAXGK@Z@4JA ; `CAttemperEngineSink::OnTCPNetworkSubMBLogonByUserID'::`1'::__LINE__Var
PUBLIC	??_C@_0CM@HGMNIANO@?D?z?J?d?H?k?$LF?D?U?K?$LK?E?$LL?r?C?$NM?B?k?$LC?$LL?U?$PN?H?$LH?0?G?k?H?$LH?H?O@ ; `string'
PUBLIC	??_C@_0CA@GNINJEOM@?D?z?$LF?D?U?K?$LK?E?T?Z?$LB?p?$LE?$KG?$LF?G?B?$LM?0?D?z?$LB?$LL?F?H?O?B?O?$NP?$KD?$KB@ ; `string'
PUBLIC	?__LINE__Var@?0??OnTCPNetworkSubApplyForFriend@CAttemperEngineSink@@IAE_NPAXGK@Z@4JA ; `CAttemperEngineSink::OnTCPNetworkSubApplyForFriend'::`1'::__LINE__Var
PUBLIC	??_C@_0BF@HIDGIOJB@?R?Q?$LO?$KN?J?G?$LK?C?S?Q?$KD?$KM?N?$NO?P?h?I?j?G?k@ ; `string'
PUBLIC	?__LINE__Var@?0??OnTCPNetworkSubRespondFriend@CAttemperEngineSink@@IAE_NPAXGK@Z@4JA ; `CAttemperEngineSink::OnTCPNetworkSubRespondFriend'::`1'::__LINE__Var
PUBLIC	??_C@_0N@CHHLMELJ@?N?$LE?U?R?$LF?$LN?$LE?K?S?C?$LL?$KH@ ; `string'
PUBLIC	??_C@_0L@IPJFNCOP@?R?Q?$LO?$KN?J?G?$LK?C?S?Q@	; `string'
PUBLIC	??_C@_0BI@KMJOMEDM@?$CFs?5?$LO?$NM?$LO?x?A?K?D?z?$LF?D?$LK?C?S?Q?I?j?G?k?$KD?$KB@ ; `string'
PUBLIC	?__LINE__Var@?0??OnTCPNetworkSubRoomInvite@CAttemperEngineSink@@IAE_NPAXGK@Z@4JA ; `CAttemperEngineSink::OnTCPNetworkSubRoomInvite'::`1'::__LINE__Var
PUBLIC	??_C@_08GAAKOEKK@?P?E?O?$KC?$LD?$KM?J?$LB@	; `string'
PUBLIC	??_C@_0N@KFADCKOF@?S?C?$LL?$KH?R?Q?$LO?$KN?$MA?k?O?$NP@ ; `string'
PUBLIC	?__LINE__Var@?0??OnTCPNetworkSubInvitePersonal@CAttemperEngineSink@@IAE_NPAXGK@Z@4JA ; `CAttemperEngineSink::OnTCPNetworkSubInvitePersonal'::`1'::__LINE__Var
PUBLIC	?__LINE__Var@?0??OnTCPNetworkSubUserChat@CAttemperEngineSink@@IAE_NPAXGK@Z@4JA ; `CAttemperEngineSink::OnTCPNetworkSubUserChat'::`1'::__LINE__Var
PUBLIC	??_C@_0BH@NFEJGOJI@?$LH?$KC?K?M?J?$KH?$LA?$NM?$KD?$KM?$LG?T?$LH?$LN?R?Q?$LO?$KN?$MA?k?O?$NP@ ; `string'
PUBLIC	?__LINE__Var@?0??OnTCPNetworkSubSearchUser@CAttemperEngineSink@@IAE_NPAXGK@Z@4JA ; `CAttemperEngineSink::OnTCPNetworkSubSearchUser'::`1'::__LINE__Var
PUBLIC	?__LINE__Var@?0??OnTCPNetworkSubTrumpet@CAttemperEngineSink@@IAE_NPAXGK@Z@4JA ; `CAttemperEngineSink::OnTCPNetworkSubTrumpet'::`1'::__LINE__Var
PUBLIC	?__LINE__Var@?0??OnTCPNetworkDeleteFriend@CAttemperEngineSink@@IAE_NPAXGK@Z@4JA ; `CAttemperEngineSink::OnTCPNetworkDeleteFriend'::`1'::__LINE__Var
PUBLIC	?__LINE__Var@?0??OnTCPNetworkUpdateCoordinate@CAttemperEngineSink@@IAE_NPAXGK@Z@4JA ; `CAttemperEngineSink::OnTCPNetworkUpdateCoordinate'::`1'::__LINE__Var
PUBLIC	??_C@_08BBDBIKKL@?W?x?$LB?j?$LE?m?N?s@		; `string'
PUBLIC	?__LINE__Var@?0??OnTCPNetworkGetNearuser@CAttemperEngineSink@@IAE_NPAXGK@Z@4JA ; `CAttemperEngineSink::OnTCPNetworkGetNearuser'::`1'::__LINE__Var
PUBLIC	?__LINE__Var@?0??OnTCPNetworkQueryNearuser@CAttemperEngineSink@@IAE_NPAXGK@Z@4JA ; `CAttemperEngineSink::OnTCPNetworkQueryNearuser'::`1'::__LINE__Var
PUBLIC	??_C@_0BH@GDPICBPP@?G?k?G?s?J?$KH?$LA?$NM?$KD?$KM?$LG?T?$LH?$LN?R?Q?$LO?$KN?$MA?k?O?$NP@ ; `string'
PUBLIC	?__LINE__Var@?0??OnTCPNetworkSubUserShare@CAttemperEngineSink@@IAE_NPAXGK@Z@4JA ; `CAttemperEngineSink::OnTCPNetworkSubUserShare'::`1'::__LINE__Var
PUBLIC	?__LINE__Var@?0??SendDataToUserFriend@CAttemperEngineSink@@IAE_NKGGPAXG@Z@4JA ; `CAttemperEngineSink::SendDataToUserFriend'::`1'::__LINE__Var
PUBLIC	??_C@_04JFFKLGJF@?$CF02X@			; `string'
PUBLIC	?__LINE__Var@?0??GetBindUserItem@CAttemperEngineSink@@IAEPAVCServerUserItem@@G@Z@4JA ; `CAttemperEngineSink::GetBindUserItem'::`1'::__LINE__Var
PUBLIC	?__LINE__Var@?0??GetBindParameter@CAttemperEngineSink@@IAEPAUtagBindParameter@@G@Z@4JA ; `CAttemperEngineSink::GetBindParameter'::`1'::__LINE__Var
PUBLIC	??_C@_0BO@JLBNFFBE@OnEventDataBase?9wRequestID?$DN?$CFd@ ; `string'
PUBLIC	?__LINE__Var@?0??OnDBLogonSuccess@CAttemperEngineSink@@IAE_NKPAXG@Z@4JA ; `CAttemperEngineSink::OnDBLogonSuccess'::`1'::__LINE__Var
PUBLIC	?__LINE__Var@?0??OnDBLoadUserGroup@CAttemperEngineSink@@IAE_NKPAXG@Z@4JA ; `CAttemperEngineSink::OnDBLoadUserGroup'::`1'::__LINE__Var
PUBLIC	?__LINE__Var@?0??OnDBLoadUserFriend@CAttemperEngineSink@@IAE_NKPAXG@Z@4JA ; `CAttemperEngineSink::OnDBLoadUserFriend'::`1'::__LINE__Var
PUBLIC	?__LINE__Var@?0??OnDBLoadUserRemarksInfo@CAttemperEngineSink@@IAE_NKPAXG@Z@4JA ; `CAttemperEngineSink::OnDBLoadUserRemarksInfo'::`1'::__LINE__Var
PUBLIC	?__LINE__Var@?0??OnDBLoadUserSimpleIndividual@CAttemperEngineSink@@IAE_NKPAXG@Z@4JA ; `CAttemperEngineSink::OnDBLoadUserSimpleIndividual'::`1'::__LINE__Var
PUBLIC	?__LINE__Var@?0??OnDBLoadUserOfflineMessage@CAttemperEngineSink@@IAE_NKPAXG@Z@4JA ; `CAttemperEngineSink::OnDBLoadUserOfflineMessage'::`1'::__LINE__Var
PUBLIC	?__LINE__Var@?0??OnDBLoadDeleteFriend@CAttemperEngineSink@@IAE_NKPAXG@Z@4JA ; `CAttemperEngineSink::OnDBLoadDeleteFriend'::`1'::__LINE__Var
PUBLIC	?__LINE__Var@?0??OnDBSearchUserResult@CAttemperEngineSink@@IAE_NKPAXG@Z@4JA ; `CAttemperEngineSink::OnDBSearchUserResult'::`1'::__LINE__Var
PUBLIC	??_C@_0N@MPINKGKI@?$LC?i?Q?$KP?$LC?$LL?$LF?$LN?S?C?$LL?$KH@ ; `string'
PUBLIC	?__LINE__Var@?0??OnDBUserAddFriend@CAttemperEngineSink@@IAE_NKPAXG@Z@4JA ; `CAttemperEngineSink::OnDBUserAddFriend'::`1'::__LINE__Var
PUBLIC	??_C@_0BI@IHOMHEOO@?$CFs?5?M?$KM?R?b?A?K?D?z?$LF?D?$LK?C?S?Q?I?j?G?k?$KD?$KB@ ; `string'
PUBLIC	?__LINE__Var@?0??OnDBTrumpetResult@CAttemperEngineSink@@IAE_NKPAXG@Z@4JA ; `CAttemperEngineSink::OnDBTrumpetResult'::`1'::__LINE__Var
PUBLIC	?__LINE__Var@?0??OnDBUserOperateResult@CAttemperEngineSink@@IAE_NKPAXG@Z@4JA ; `CAttemperEngineSink::OnDBUserOperateResult'::`1'::__LINE__Var
PUBLIC	?__LINE__Var@?0??OnDBSystemMessage@CAttemperEngineSink@@IAE_NKPAXG@Z@4JA ; `CAttemperEngineSink::OnDBSystemMessage'::`1'::__LINE__Var
PUBLIC	??_C@_0DF@LDFGAABH@g?3?2?M?x?$LK?$PM?2happygamewh?2?$LH?$PO?N?q?$LG?K?2?O?$LF?M?$LD@ ; `string'
PUBLIC	??_R4IUnknownEx@@6B@				; IUnknownEx::`RTTI Complete Object Locator'
PUBLIC	??_R0?AUIUnknownEx@@@8				; IUnknownEx `RTTI Type Descriptor'
PUBLIC	??_R3IUnknownEx@@8				; IUnknownEx::`RTTI Class Hierarchy Descriptor'
PUBLIC	??_R2IUnknownEx@@8				; IUnknownEx::`RTTI Base Class Array'
PUBLIC	??_R1A@?0A@EA@IUnknownEx@@8			; IUnknownEx::`RTTI Base Class Descriptor at (0,-1,0,64)'
PUBLIC	??_R4IAttemperEngineSink@@6B@			; IAttemperEngineSink::`RTTI Complete Object Locator'
PUBLIC	??_R0?AUIAttemperEngineSink@@@8			; IAttemperEngineSink `RTTI Type Descriptor'
PUBLIC	??_R3IAttemperEngineSink@@8			; IAttemperEngineSink::`RTTI Class Hierarchy Descriptor'
PUBLIC	??_R2IAttemperEngineSink@@8			; IAttemperEngineSink::`RTTI Base Class Array'
PUBLIC	??_R1A@?0A@EA@IAttemperEngineSink@@8		; IAttemperEngineSink::`RTTI Base Class Descriptor at (0,-1,0,64)'
PUBLIC	??_R4?$CWHArray@PAUtagSystemMessage@@ABQAU1@@@6B@ ; CWHArray<tagSystemMessage *,tagSystemMessage * const &>::`RTTI Complete Object Locator'
PUBLIC	??_R0?AV?$CWHArray@PAUtagSystemMessage@@ABQAU1@@@@8 ; CWHArray<tagSystemMessage *,tagSystemMessage * const &> `RTTI Type Descriptor'
PUBLIC	??_R3?$CWHArray@PAUtagSystemMessage@@ABQAU1@@@8	; CWHArray<tagSystemMessage *,tagSystemMessage * const &>::`RTTI Class Hierarchy Descriptor'
PUBLIC	??_R2?$CWHArray@PAUtagSystemMessage@@ABQAU1@@@8	; CWHArray<tagSystemMessage *,tagSystemMessage * const &>::`RTTI Base Class Array'
PUBLIC	??_R1A@?0A@EA@?$CWHArray@PAUtagSystemMessage@@ABQAU1@@@8 ; CWHArray<tagSystemMessage *,tagSystemMessage * const &>::`RTTI Base Class Descriptor at (0,-1,0,64)'
PUBLIC	??_R4CAttemperEngineSink@@6B@			; CAttemperEngineSink::`RTTI Complete Object Locator'
PUBLIC	??_R0?AVCAttemperEngineSink@@@8			; CAttemperEngineSink `RTTI Type Descriptor'
PUBLIC	??_R3CAttemperEngineSink@@8			; CAttemperEngineSink::`RTTI Class Hierarchy Descriptor'
PUBLIC	??_R2CAttemperEngineSink@@8			; CAttemperEngineSink::`RTTI Base Class Array'
PUBLIC	??_R1A@?0A@EA@CAttemperEngineSink@@8		; CAttemperEngineSink::`RTTI Base Class Descriptor at (0,-1,0,64)'
PUBLIC	__real@4066800000000000
EXTRN	__purecall:PROC
EXTRN	??3@YAXPAXI@Z:PROC				; operator delete
EXTRN	??_U@YAPAXI@Z:PROC				; operator new[]
EXTRN	??_V@YAXPAX@Z:PROC				; operator delete[]
EXTRN	_memcmp:PROC
EXTRN	_memcpy:PROC
EXTRN	_memmove:PROC
EXTRN	_memset:PROC
EXTRN	__imp__GetTickCount@0:PROC
EXTRN	__imp__lstrcpynA@12:PROC
EXTRN	__imp__lstrlenA@4:PROC
EXTRN	__imp__PeekMessageA@20:PROC
EXTRN	__imp__PostQuitMessage@4:PROC
EXTRN	__imp____stdio_common_vsprintf:PROC
EXTRN	__imp___time64:PROC
EXTRN	__imp___CrtDbgReport:PROC
EXTRN	?AfxThrowInvalidArgException@@YGXXZ:PROC	; AfxThrowInvalidArgException
EXTRN	??2@YAPAXIPBDH@Z:PROC				; operator new
EXTRN	??_U@YAPAXIPBDH@Z:PROC				; operator new[]
EXTRN	__imp_?TraceString@CTraceService@@SA_NPBDW4enTraceLevel@@@Z:PROC
EXTRN	??0CNearUserManager@@QAE@XZ:PROC		; CNearUserManager::CNearUserManager
EXTRN	??1CNearUserManager@@UAE@XZ:PROC		; CNearUserManager::~CNearUserManager
EXTRN	?EnumUserItem@CNearUserManager@@UAEPAUtagNearUserInfo@@K@Z:PROC ; CNearUserManager::EnumUserItem
EXTRN	??0CServerUserManager@@QAE@XZ:PROC		; CServerUserManager::CServerUserManager
EXTRN	??1CServerUserManager@@UAE@XZ:PROC		; CServerUserManager::~CServerUserManager
EXTRN	?AppendFriendInfo@CUserFriendGroup@@QAE_NAAUtagServerFriendInfo@@@Z:PROC ; CUserFriendGroup::AppendFriendInfo
EXTRN	?RemoveFriendInfo@CUserFriendGroup@@QAE_NK@Z:PROC ; CUserFriendGroup::RemoveFriendInfo
EXTRN	?SearchFriendItem@CUserFriendGroup@@QAEPAUtagServerFriendInfo@@K@Z:PROC ; CUserFriendGroup::SearchFriendItem
EXTRN	?EnumFriendItem@CUserFriendGroup@@QAEPAUtagServerFriendInfo@@G@Z:PROC ; CUserFriendGroup::EnumFriendItem
EXTRN	?ResetFriendGroup@CUserFriendGroup@@QAEXXZ:PROC	; CUserFriendGroup::ResetFriendGroup
EXTRN	??0CFriendGroupManager@@QAE@XZ:PROC		; CFriendGroupManager::CFriendGroupManager
EXTRN	??1CFriendGroupManager@@UAE@XZ:PROC		; CFriendGroupManager::~CFriendGroupManager
EXTRN	?ActiveFriendGroup@CFriendGroupManager@@QAEPAVCUserFriendGroup@@G@Z:PROC ; CFriendGroupManager::ActiveFriendGroup
EXTRN	??_E?$CWHArray@PAUtagSystemMessage@@ABQAU1@@@UAEPAXI@Z:PROC ; CWHArray<tagSystemMessage *,tagSystemMessage * const &>::`vector deleting destructor'
EXTRN	??_ECAttemperEngineSink@@UAEPAXI@Z:PROC		; CAttemperEngineSink::`vector deleting destructor'
EXTRN	?PostControlRequest@CServiceUnits@@QAE_NGPAXG@Z:PROC ; CServiceUnits::PostControlRequest
EXTRN	@__security_check_cookie@4:PROC
EXTRN	___CxxFrameHandler3:PROC
EXTRN	__chkstk:PROC
EXTRN	_memset:PROC
EXTRN	??_7type_info@@6B@:QWORD			; type_info::`vftable'
EXTRN	?g_pServiceUnits@CServiceUnits@@2PAV1@A:DWORD	; CServiceUnits::g_pServiceUnits
EXTRN	___security_cookie:DWORD
EXTRN	__fltused:DWORD
;	COMDAT ?_OptionsStorage@?1??__local_stdio_printf_options@@9@4_KA
_BSS	SEGMENT
?_OptionsStorage@?1??__local_stdio_printf_options@@9@4_KA DQ 01H DUP (?) ; `__local_stdio_printf_options'::`2'::_OptionsStorage
_BSS	ENDS
;	COMDAT __real@4066800000000000
CONST	SEGMENT
__real@4066800000000000 DQ 04066800000000000r	; 180
CONST	ENDS
;	COMDAT ??_R1A@?0A@EA@CAttemperEngineSink@@8
rdata$r	SEGMENT
??_R1A@?0A@EA@CAttemperEngineSink@@8 DD FLAT:??_R0?AVCAttemperEngineSink@@@8 ; CAttemperEngineSink::`RTTI Base Class Descriptor at (0,-1,0,64)'
	DD	02H
	DD	00H
	DD	0ffffffffH
	DD	00H
	DD	040H
	DD	FLAT:??_R3CAttemperEngineSink@@8
rdata$r	ENDS
;	COMDAT ??_R2CAttemperEngineSink@@8
rdata$r	SEGMENT
??_R2CAttemperEngineSink@@8 DD FLAT:??_R1A@?0A@EA@CAttemperEngineSink@@8 ; CAttemperEngineSink::`RTTI Base Class Array'
	DD	FLAT:??_R1A@?0A@EA@IAttemperEngineSink@@8
	DD	FLAT:??_R1A@?0A@EA@IUnknownEx@@8
rdata$r	ENDS
;	COMDAT ??_R3CAttemperEngineSink@@8
rdata$r	SEGMENT
??_R3CAttemperEngineSink@@8 DD 00H			; CAttemperEngineSink::`RTTI Class Hierarchy Descriptor'
	DD	00H
	DD	03H
	DD	FLAT:??_R2CAttemperEngineSink@@8
rdata$r	ENDS
;	COMDAT ??_R0?AVCAttemperEngineSink@@@8
data$r	SEGMENT
??_R0?AVCAttemperEngineSink@@@8 DD FLAT:??_7type_info@@6B@ ; CAttemperEngineSink `RTTI Type Descriptor'
	DD	00H
	DB	'.?AVCAttemperEngineSink@@', 00H
data$r	ENDS
;	COMDAT ??_R4CAttemperEngineSink@@6B@
rdata$r	SEGMENT
??_R4CAttemperEngineSink@@6B@ DD 00H			; CAttemperEngineSink::`RTTI Complete Object Locator'
	DD	00H
	DD	00H
	DD	FLAT:??_R0?AVCAttemperEngineSink@@@8
	DD	FLAT:??_R3CAttemperEngineSink@@8
rdata$r	ENDS
;	COMDAT ??_R1A@?0A@EA@?$CWHArray@PAUtagSystemMessage@@ABQAU1@@@8
rdata$r	SEGMENT
??_R1A@?0A@EA@?$CWHArray@PAUtagSystemMessage@@ABQAU1@@@8 DD FLAT:??_R0?AV?$CWHArray@PAUtagSystemMessage@@ABQAU1@@@@8 ; CWHArray<tagSystemMessage *,tagSystemMessage * const &>::`RTTI Base Class Descriptor at (0,-1,0,64)'
	DD	00H
	DD	00H
	DD	0ffffffffH
	DD	00H
	DD	040H
	DD	FLAT:??_R3?$CWHArray@PAUtagSystemMessage@@ABQAU1@@@8
rdata$r	ENDS
;	COMDAT ??_R2?$CWHArray@PAUtagSystemMessage@@ABQAU1@@@8
rdata$r	SEGMENT
??_R2?$CWHArray@PAUtagSystemMessage@@ABQAU1@@@8 DD FLAT:??_R1A@?0A@EA@?$CWHArray@PAUtagSystemMessage@@ABQAU1@@@8 ; CWHArray<tagSystemMessage *,tagSystemMessage * const &>::`RTTI Base Class Array'
rdata$r	ENDS
;	COMDAT ??_R3?$CWHArray@PAUtagSystemMessage@@ABQAU1@@@8
rdata$r	SEGMENT
??_R3?$CWHArray@PAUtagSystemMessage@@ABQAU1@@@8 DD 00H	; CWHArray<tagSystemMessage *,tagSystemMessage * const &>::`RTTI Class Hierarchy Descriptor'
	DD	00H
	DD	01H
	DD	FLAT:??_R2?$CWHArray@PAUtagSystemMessage@@ABQAU1@@@8
rdata$r	ENDS
;	COMDAT ??_R0?AV?$CWHArray@PAUtagSystemMessage@@ABQAU1@@@@8
data$r	SEGMENT
??_R0?AV?$CWHArray@PAUtagSystemMessage@@ABQAU1@@@@8 DD FLAT:??_7type_info@@6B@ ; CWHArray<tagSystemMessage *,tagSystemMessage * const &> `RTTI Type Descriptor'
	DD	00H
	DB	'.?AV?$CWHArray@PAUtagSystemMessage@@ABQAU1@@@', 00H
data$r	ENDS
;	COMDAT ??_R4?$CWHArray@PAUtagSystemMessage@@ABQAU1@@@6B@
rdata$r	SEGMENT
??_R4?$CWHArray@PAUtagSystemMessage@@ABQAU1@@@6B@ DD 00H ; CWHArray<tagSystemMessage *,tagSystemMessage * const &>::`RTTI Complete Object Locator'
	DD	00H
	DD	00H
	DD	FLAT:??_R0?AV?$CWHArray@PAUtagSystemMessage@@ABQAU1@@@@8
	DD	FLAT:??_R3?$CWHArray@PAUtagSystemMessage@@ABQAU1@@@8
rdata$r	ENDS
;	COMDAT ??_R1A@?0A@EA@IAttemperEngineSink@@8
rdata$r	SEGMENT
??_R1A@?0A@EA@IAttemperEngineSink@@8 DD FLAT:??_R0?AUIAttemperEngineSink@@@8 ; IAttemperEngineSink::`RTTI Base Class Descriptor at (0,-1,0,64)'
	DD	01H
	DD	00H
	DD	0ffffffffH
	DD	00H
	DD	040H
	DD	FLAT:??_R3IAttemperEngineSink@@8
rdata$r	ENDS
;	COMDAT ??_R2IAttemperEngineSink@@8
rdata$r	SEGMENT
??_R2IAttemperEngineSink@@8 DD FLAT:??_R1A@?0A@EA@IAttemperEngineSink@@8 ; IAttemperEngineSink::`RTTI Base Class Array'
	DD	FLAT:??_R1A@?0A@EA@IUnknownEx@@8
rdata$r	ENDS
;	COMDAT ??_R3IAttemperEngineSink@@8
rdata$r	SEGMENT
??_R3IAttemperEngineSink@@8 DD 00H			; IAttemperEngineSink::`RTTI Class Hierarchy Descriptor'
	DD	00H
	DD	02H
	DD	FLAT:??_R2IAttemperEngineSink@@8
rdata$r	ENDS
;	COMDAT ??_R0?AUIAttemperEngineSink@@@8
data$r	SEGMENT
??_R0?AUIAttemperEngineSink@@@8 DD FLAT:??_7type_info@@6B@ ; IAttemperEngineSink `RTTI Type Descriptor'
	DD	00H
	DB	'.?AUIAttemperEngineSink@@', 00H
data$r	ENDS
;	COMDAT ??_R4IAttemperEngineSink@@6B@
rdata$r	SEGMENT
??_R4IAttemperEngineSink@@6B@ DD 00H			; IAttemperEngineSink::`RTTI Complete Object Locator'
	DD	00H
	DD	00H
	DD	FLAT:??_R0?AUIAttemperEngineSink@@@8
	DD	FLAT:??_R3IAttemperEngineSink@@8
rdata$r	ENDS
;	COMDAT ??_R1A@?0A@EA@IUnknownEx@@8
rdata$r	SEGMENT
??_R1A@?0A@EA@IUnknownEx@@8 DD FLAT:??_R0?AUIUnknownEx@@@8 ; IUnknownEx::`RTTI Base Class Descriptor at (0,-1,0,64)'
	DD	00H
	DD	00H
	DD	0ffffffffH
	DD	00H
	DD	040H
	DD	FLAT:??_R3IUnknownEx@@8
rdata$r	ENDS
;	COMDAT ??_R2IUnknownEx@@8
rdata$r	SEGMENT
??_R2IUnknownEx@@8 DD FLAT:??_R1A@?0A@EA@IUnknownEx@@8	; IUnknownEx::`RTTI Base Class Array'
rdata$r	ENDS
;	COMDAT ??_R3IUnknownEx@@8
rdata$r	SEGMENT
??_R3IUnknownEx@@8 DD 00H				; IUnknownEx::`RTTI Class Hierarchy Descriptor'
	DD	00H
	DD	01H
	DD	FLAT:??_R2IUnknownEx@@8
rdata$r	ENDS
;	COMDAT ??_R0?AUIUnknownEx@@@8
data$r	SEGMENT
??_R0?AUIUnknownEx@@@8 DD FLAT:??_7type_info@@6B@	; IUnknownEx `RTTI Type Descriptor'
	DD	00H
	DB	'.?AUIUnknownEx@@', 00H
data$r	ENDS
;	COMDAT ??_R4IUnknownEx@@6B@
rdata$r	SEGMENT
??_R4IUnknownEx@@6B@ DD 00H				; IUnknownEx::`RTTI Complete Object Locator'
	DD	00H
	DD	00H
	DD	FLAT:??_R0?AUIUnknownEx@@@8
	DD	FLAT:??_R3IUnknownEx@@8
rdata$r	ENDS
;	COMDAT ??_C@_0DF@LDFGAABH@g?3?2?M?x?$LK?$PM?2happygamewh?2?$LH?$PO?N?q?$LG?K?2?O?$LF?M?$LD@
CONST	SEGMENT
??_C@_0DF@LDFGAABH@g?3?2?M?x?$LK?$PM?2happygamewh?2?$LH?$PO?N?q?$LG?K?2?O?$LF?M?$LD@ DB 'g'
	DB	':\', 0cdH, 0f8H, 0baH, 0fcH, '\happygamewh\', 0b7H, 0feH, 0ceH
	DB	0f1H, 0b6H, 0cbH, '\', 0cfH, 0b5H, 0cdH, 0b3H, 0c4H, 0a3H, 0bfH
	DB	0e9H, '\', 0c8H, 0abH, 0beH, 0d6H, 0b6H, 0a8H, 0d2H, 0e5H, '\a'
	DB	'rray.h', 00H				; `string'
CONST	ENDS
;	COMDAT ?__LINE__Var@?0??OnDBSystemMessage@CAttemperEngineSink@@IAE_NKPAXG@Z@4JA
_DATA	SEGMENT
?__LINE__Var@?0??OnDBSystemMessage@CAttemperEngineSink@@IAE_NKPAXG@Z@4JA DD 0ab1H ; `CAttemperEngineSink::OnDBSystemMessage'::`1'::__LINE__Var
_DATA	ENDS
;	COMDAT ?__LINE__Var@?0??OnDBUserOperateResult@CAttemperEngineSink@@IAE_NKPAXG@Z@4JA
_DATA	SEGMENT
?__LINE__Var@?0??OnDBUserOperateResult@CAttemperEngineSink@@IAE_NKPAXG@Z@4JA DD 0a90H ; `CAttemperEngineSink::OnDBUserOperateResult'::`1'::__LINE__Var
_DATA	ENDS
;	COMDAT ?__LINE__Var@?0??OnDBTrumpetResult@CAttemperEngineSink@@IAE_NKPAXG@Z@4JA
_DATA	SEGMENT
?__LINE__Var@?0??OnDBTrumpetResult@CAttemperEngineSink@@IAE_NKPAXG@Z@4JA DD 0a5cH ; `CAttemperEngineSink::OnDBTrumpetResult'::`1'::__LINE__Var
_DATA	ENDS
;	COMDAT ??_C@_0BI@IHOMHEOO@?$CFs?5?M?$KM?R?b?A?K?D?z?$LF?D?$LK?C?S?Q?I?j?G?k?$KD?$KB@
CONST	SEGMENT
??_C@_0BI@IHOMHEOO@?$CFs?5?M?$KM?R?b?A?K?D?z?$LF?D?$LK?C?S?Q?I?j?G?k?$KD?$KB@ DB '%'
	DB	's ', 0cdH, 0acH, 0d2H, 0e2H, 0c1H, 0cbH, 0c4H, 0faH, 0b5H, 0c4H
	DB	0baH, 0c3H, 0d3H, 0d1H, 0c9H, 0eaH, 0c7H, 0ebH, 0a3H, 0a1H, 00H ; `string'
CONST	ENDS
;	COMDAT ?__LINE__Var@?0??OnDBUserAddFriend@CAttemperEngineSink@@IAE_NKPAXG@Z@4JA
_DATA	SEGMENT
?__LINE__Var@?0??OnDBUserAddFriend@CAttemperEngineSink@@IAE_NKPAXG@Z@4JA DD 09abH ; `CAttemperEngineSink::OnDBUserAddFriend'::`1'::__LINE__Var
_DATA	ENDS
;	COMDAT ??_C@_0N@MPINKGKI@?$LC?i?Q?$KP?$LC?$LL?$LF?$LN?S?C?$LL?$KH@
CONST	SEGMENT
??_C@_0N@MPINKGKI@?$LC?i?Q?$KP?$LC?$LL?$LF?$LN?S?C?$LL?$KH@ DB 0b2H, 0e9H
	DB	0d1H, 0afH, 0b2H, 0bbH, 0b5H, 0bdH, 0d3H, 0c3H, 0bbH, 0a7H, 00H ; `string'
CONST	ENDS
;	COMDAT ?__LINE__Var@?0??OnDBSearchUserResult@CAttemperEngineSink@@IAE_NKPAXG@Z@4JA
_DATA	SEGMENT
?__LINE__Var@?0??OnDBSearchUserResult@CAttemperEngineSink@@IAE_NKPAXG@Z@4JA DD 096cH ; `CAttemperEngineSink::OnDBSearchUserResult'::`1'::__LINE__Var
_DATA	ENDS
;	COMDAT ?__LINE__Var@?0??OnDBLoadDeleteFriend@CAttemperEngineSink@@IAE_NKPAXG@Z@4JA
_DATA	SEGMENT
?__LINE__Var@?0??OnDBLoadDeleteFriend@CAttemperEngineSink@@IAE_NKPAXG@Z@4JA DD 0926H ; `CAttemperEngineSink::OnDBLoadDeleteFriend'::`1'::__LINE__Var
_DATA	ENDS
;	COMDAT ?__LINE__Var@?0??OnDBLoadUserOfflineMessage@CAttemperEngineSink@@IAE_NKPAXG@Z@4JA
_DATA	SEGMENT
?__LINE__Var@?0??OnDBLoadUserOfflineMessage@CAttemperEngineSink@@IAE_NKPAXG@Z@4JA DD 08f7H ; `CAttemperEngineSink::OnDBLoadUserOfflineMessage'::`1'::__LINE__Var
_DATA	ENDS
;	COMDAT ?__LINE__Var@?0??OnDBLoadUserSimpleIndividual@CAttemperEngineSink@@IAE_NKPAXG@Z@4JA
_DATA	SEGMENT
?__LINE__Var@?0??OnDBLoadUserSimpleIndividual@CAttemperEngineSink@@IAE_NKPAXG@Z@4JA DD 088bH ; `CAttemperEngineSink::OnDBLoadUserSimpleIndividual'::`1'::__LINE__Var
_DATA	ENDS
;	COMDAT ?__LINE__Var@?0??OnDBLoadUserRemarksInfo@CAttemperEngineSink@@IAE_NKPAXG@Z@4JA
_DATA	SEGMENT
?__LINE__Var@?0??OnDBLoadUserRemarksInfo@CAttemperEngineSink@@IAE_NKPAXG@Z@4JA DD 084dH ; `CAttemperEngineSink::OnDBLoadUserRemarksInfo'::`1'::__LINE__Var
_DATA	ENDS
;	COMDAT ?__LINE__Var@?0??OnDBLoadUserFriend@CAttemperEngineSink@@IAE_NKPAXG@Z@4JA
_DATA	SEGMENT
?__LINE__Var@?0??OnDBLoadUserFriend@CAttemperEngineSink@@IAE_NKPAXG@Z@4JA DD 07d5H ; `CAttemperEngineSink::OnDBLoadUserFriend'::`1'::__LINE__Var
_DATA	ENDS
;	COMDAT ?__LINE__Var@?0??OnDBLoadUserGroup@CAttemperEngineSink@@IAE_NKPAXG@Z@4JA
_DATA	SEGMENT
?__LINE__Var@?0??OnDBLoadUserGroup@CAttemperEngineSink@@IAE_NKPAXG@Z@4JA DD 0796H ; `CAttemperEngineSink::OnDBLoadUserGroup'::`1'::__LINE__Var
_DATA	ENDS
;	COMDAT ?__LINE__Var@?0??OnDBLogonSuccess@CAttemperEngineSink@@IAE_NKPAXG@Z@4JA
_DATA	SEGMENT
?__LINE__Var@?0??OnDBLogonSuccess@CAttemperEngineSink@@IAE_NKPAXG@Z@4JA DD 073aH ; `CAttemperEngineSink::OnDBLogonSuccess'::`1'::__LINE__Var
_DATA	ENDS
;	COMDAT ??_C@_0BO@JLBNFFBE@OnEventDataBase?9wRequestID?$DN?$CFd@
CONST	SEGMENT
??_C@_0BO@JLBNFFBE@OnEventDataBase?9wRequestID?$DN?$CFd@ DB 'OnEventDataB'
	DB	'ase-wRequestID=%d', 00H			; `string'
CONST	ENDS
;	COMDAT ?__LINE__Var@?0??GetBindParameter@CAttemperEngineSink@@IAEPAUtagBindParameter@@G@Z@4JA
_DATA	SEGMENT
?__LINE__Var@?0??GetBindParameter@CAttemperEngineSink@@IAEPAUtagBindParameter@@G@Z@4JA DD 06dbH ; `CAttemperEngineSink::GetBindParameter'::`1'::__LINE__Var
_DATA	ENDS
;	COMDAT ?__LINE__Var@?0??GetBindUserItem@CAttemperEngineSink@@IAEPAVCServerUserItem@@G@Z@4JA
_DATA	SEGMENT
?__LINE__Var@?0??GetBindUserItem@CAttemperEngineSink@@IAEPAVCServerUserItem@@G@Z@4JA DD 06c9H ; `CAttemperEngineSink::GetBindUserItem'::`1'::__LINE__Var
_DATA	ENDS
;	COMDAT ??_C@_04JFFKLGJF@?$CF02X@
CONST	SEGMENT
??_C@_04JFFKLGJF@?$CF02X@ DB '%02X', 00H		; `string'
CONST	ENDS
;	COMDAT ?__LINE__Var@?0??SendDataToUserFriend@CAttemperEngineSink@@IAE_NKGGPAXG@Z@4JA
_DATA	SEGMENT
?__LINE__Var@?0??SendDataToUserFriend@CAttemperEngineSink@@IAE_NKGGPAXG@Z@4JA DD 0685H ; `CAttemperEngineSink::SendDataToUserFriend'::`1'::__LINE__Var
_DATA	ENDS
;	COMDAT ?__LINE__Var@?0??OnTCPNetworkSubUserShare@CAttemperEngineSink@@IAE_NPAXGK@Z@4JA
_DATA	SEGMENT
?__LINE__Var@?0??OnTCPNetworkSubUserShare@CAttemperEngineSink@@IAE_NPAXGK@Z@4JA DD 0601H ; `CAttemperEngineSink::OnTCPNetworkSubUserShare'::`1'::__LINE__Var
_DATA	ENDS
;	COMDAT ??_C@_0BH@GDPICBPP@?G?k?G?s?J?$KH?$LA?$NM?$KD?$KM?$LG?T?$LH?$LN?R?Q?$LO?$KN?$MA?k?O?$NP@
CONST	SEGMENT
??_C@_0BH@GDPICBPP@?G?k?G?s?J?$KH?$LA?$NM?$KD?$KM?$LG?T?$LH?$LN?R?Q?$LO?$KN?$MA?k?O?$NP@ DB 0c7H
	DB	0ebH, 0c7H, 0f3H, 0caH, 0a7H, 0b0H, 0dcH, 0a3H, 0acH, 0b6H, 0d4H
	DB	0b7H, 0bdH, 0d2H, 0d1H, 0beH, 0adH, 0c0H, 0ebH, 0cfH, 0dfH, 00H ; `string'
CONST	ENDS
;	COMDAT ?__LINE__Var@?0??OnTCPNetworkQueryNearuser@CAttemperEngineSink@@IAE_NPAXGK@Z@4JA
_DATA	SEGMENT
?__LINE__Var@?0??OnTCPNetworkQueryNearuser@CAttemperEngineSink@@IAE_NPAXGK@Z@4JA DD 05c0H ; `CAttemperEngineSink::OnTCPNetworkQueryNearuser'::`1'::__LINE__Var
_DATA	ENDS
;	COMDAT ?__LINE__Var@?0??OnTCPNetworkGetNearuser@CAttemperEngineSink@@IAE_NPAXGK@Z@4JA
_DATA	SEGMENT
?__LINE__Var@?0??OnTCPNetworkGetNearuser@CAttemperEngineSink@@IAE_NPAXGK@Z@4JA DD 0574H ; `CAttemperEngineSink::OnTCPNetworkGetNearuser'::`1'::__LINE__Var
_DATA	ENDS
;	COMDAT ??_C@_08BBDBIKKL@?W?x?$LB?j?$LE?m?N?s@
CONST	SEGMENT
??_C@_08BBDBIKKL@?W?x?$LB?j?$LE?m?N?s@ DB 0d7H, 0f8H, 0b1H, 0eaH, 0b4H, 0edH
	DB	0ceH, 0f3H, 00H				; `string'
CONST	ENDS
;	COMDAT ?__LINE__Var@?0??OnTCPNetworkUpdateCoordinate@CAttemperEngineSink@@IAE_NPAXGK@Z@4JA
_DATA	SEGMENT
?__LINE__Var@?0??OnTCPNetworkUpdateCoordinate@CAttemperEngineSink@@IAE_NPAXGK@Z@4JA DD 0529H ; `CAttemperEngineSink::OnTCPNetworkUpdateCoordinate'::`1'::__LINE__Var
_DATA	ENDS
;	COMDAT ?__LINE__Var@?0??OnTCPNetworkDeleteFriend@CAttemperEngineSink@@IAE_NPAXGK@Z@4JA
_DATA	SEGMENT
?__LINE__Var@?0??OnTCPNetworkDeleteFriend@CAttemperEngineSink@@IAE_NPAXGK@Z@4JA DD 0504H ; `CAttemperEngineSink::OnTCPNetworkDeleteFriend'::`1'::__LINE__Var
_DATA	ENDS
;	COMDAT ?__LINE__Var@?0??OnTCPNetworkSubTrumpet@CAttemperEngineSink@@IAE_NPAXGK@Z@4JA
_DATA	SEGMENT
?__LINE__Var@?0??OnTCPNetworkSubTrumpet@CAttemperEngineSink@@IAE_NPAXGK@Z@4JA DD 04d8H ; `CAttemperEngineSink::OnTCPNetworkSubTrumpet'::`1'::__LINE__Var
_DATA	ENDS
;	COMDAT ?__LINE__Var@?0??OnTCPNetworkSubSearchUser@CAttemperEngineSink@@IAE_NPAXGK@Z@4JA
_DATA	SEGMENT
?__LINE__Var@?0??OnTCPNetworkSubSearchUser@CAttemperEngineSink@@IAE_NPAXGK@Z@4JA DD 04c3H ; `CAttemperEngineSink::OnTCPNetworkSubSearchUser'::`1'::__LINE__Var
_DATA	ENDS
;	COMDAT ??_C@_0BH@NFEJGOJI@?$LH?$KC?K?M?J?$KH?$LA?$NM?$KD?$KM?$LG?T?$LH?$LN?R?Q?$LO?$KN?$MA?k?O?$NP@
CONST	SEGMENT
??_C@_0BH@NFEJGOJI@?$LH?$KC?K?M?J?$KH?$LA?$NM?$KD?$KM?$LG?T?$LH?$LN?R?Q?$LO?$KN?$MA?k?O?$NP@ DB 0b7H
	DB	0a2H, 0cbH, 0cdH, 0caH, 0a7H, 0b0H, 0dcH, 0a3H, 0acH, 0b6H, 0d4H
	DB	0b7H, 0bdH, 0d2H, 0d1H, 0beH, 0adH, 0c0H, 0ebH, 0cfH, 0dfH, 00H ; `string'
CONST	ENDS
;	COMDAT ?__LINE__Var@?0??OnTCPNetworkSubUserChat@CAttemperEngineSink@@IAE_NPAXGK@Z@4JA
_DATA	SEGMENT
?__LINE__Var@?0??OnTCPNetworkSubUserChat@CAttemperEngineSink@@IAE_NPAXGK@Z@4JA DD 0484H ; `CAttemperEngineSink::OnTCPNetworkSubUserChat'::`1'::__LINE__Var
_DATA	ENDS
;	COMDAT ?__LINE__Var@?0??OnTCPNetworkSubInvitePersonal@CAttemperEngineSink@@IAE_NPAXGK@Z@4JA
_DATA	SEGMENT
?__LINE__Var@?0??OnTCPNetworkSubInvitePersonal@CAttemperEngineSink@@IAE_NPAXGK@Z@4JA DD 042fH ; `CAttemperEngineSink::OnTCPNetworkSubInvitePersonal'::`1'::__LINE__Var
_DATA	ENDS
;	COMDAT ??_C@_0N@KFADCKOF@?S?C?$LL?$KH?R?Q?$LO?$KN?$MA?k?O?$NP@
CONST	SEGMENT
??_C@_0N@KFADCKOF@?S?C?$LL?$KH?R?Q?$LO?$KN?$MA?k?O?$NP@ DB 0d3H, 0c3H, 0bbH
	DB	0a7H, 0d2H, 0d1H, 0beH, 0adH, 0c0H, 0ebH, 0cfH, 0dfH, 00H ; `string'
CONST	ENDS
;	COMDAT ??_C@_08GAAKOEKK@?P?E?O?$KC?$LD?$KM?J?$LB@
CONST	SEGMENT
??_C@_08GAAKOEKK@?P?E?O?$KC?$LD?$KM?J?$LB@ DB 0d0H, 0c5H, 0cfH, 0a2H, 0b3H
	DB	0acH, 0caH, 0b1H, 00H			; `string'
CONST	ENDS
;	COMDAT ?__LINE__Var@?0??OnTCPNetworkSubRoomInvite@CAttemperEngineSink@@IAE_NPAXGK@Z@4JA
_DATA	SEGMENT
?__LINE__Var@?0??OnTCPNetworkSubRoomInvite@CAttemperEngineSink@@IAE_NPAXGK@Z@4JA DD 03dbH ; `CAttemperEngineSink::OnTCPNetworkSubRoomInvite'::`1'::__LINE__Var
_DATA	ENDS
;	COMDAT ??_C@_0BI@KMJOMEDM@?$CFs?5?$LO?$NM?$LO?x?A?K?D?z?$LF?D?$LK?C?S?Q?I?j?G?k?$KD?$KB@
CONST	SEGMENT
??_C@_0BI@KMJOMEDM@?$CFs?5?$LO?$NM?$LO?x?A?K?D?z?$LF?D?$LK?C?S?Q?I?j?G?k?$KD?$KB@ DB '%'
	DB	's ', 0beH, 0dcH, 0beH, 0f8H, 0c1H, 0cbH, 0c4H, 0faH, 0b5H, 0c4H
	DB	0baH, 0c3H, 0d3H, 0d1H, 0c9H, 0eaH, 0c7H, 0ebH, 0a3H, 0a1H, 00H ; `string'
CONST	ENDS
;	COMDAT ??_C@_0L@IPJFNCOP@?R?Q?$LO?$KN?J?G?$LK?C?S?Q@
CONST	SEGMENT
??_C@_0L@IPJFNCOP@?R?Q?$LO?$KN?J?G?$LK?C?S?Q@ DB 0d2H, 0d1H, 0beH, 0adH, 0caH
	DB	0c7H, 0baH, 0c3H, 0d3H, 0d1H, 00H		; `string'
CONST	ENDS
;	COMDAT ??_C@_0N@CHHLMELJ@?N?$LE?U?R?$LF?$LN?$LE?K?S?C?$LL?$KH@
CONST	SEGMENT
??_C@_0N@CHHLMELJ@?N?$LE?U?R?$LF?$LN?$LE?K?S?C?$LL?$KH@ DB 0ceH, 0b4H, 0d5H
	DB	0d2H, 0b5H, 0bdH, 0b4H, 0cbH, 0d3H, 0c3H, 0bbH, 0a7H, 00H ; `string'
CONST	ENDS
;	COMDAT ?__LINE__Var@?0??OnTCPNetworkSubRespondFriend@CAttemperEngineSink@@IAE_NPAXGK@Z@4JA
_DATA	SEGMENT
?__LINE__Var@?0??OnTCPNetworkSubRespondFriend@CAttemperEngineSink@@IAE_NPAXGK@Z@4JA DD 0375H ; `CAttemperEngineSink::OnTCPNetworkSubRespondFriend'::`1'::__LINE__Var
_DATA	ENDS
;	COMDAT ??_C@_0BF@HIDGIOJB@?R?Q?$LO?$KN?J?G?$LK?C?S?Q?$KD?$KM?N?$NO?P?h?I?j?G?k@
CONST	SEGMENT
??_C@_0BF@HIDGIOJB@?R?Q?$LO?$KN?J?G?$LK?C?S?Q?$KD?$KM?N?$NO?P?h?I?j?G?k@ DB 0d2H
	DB	0d1H, 0beH, 0adH, 0caH, 0c7H, 0baH, 0c3H, 0d3H, 0d1H, 0a3H, 0acH
	DB	0ceH, 0deH, 0d0H, 0e8H, 0c9H, 0eaH, 0c7H, 0ebH, 00H ; `string'
CONST	ENDS
;	COMDAT ?__LINE__Var@?0??OnTCPNetworkSubApplyForFriend@CAttemperEngineSink@@IAE_NPAXGK@Z@4JA
_DATA	SEGMENT
?__LINE__Var@?0??OnTCPNetworkSubApplyForFriend@CAttemperEngineSink@@IAE_NPAXGK@Z@4JA DD 0321H ; `CAttemperEngineSink::OnTCPNetworkSubApplyForFriend'::`1'::__LINE__Var
_DATA	ENDS
;	COMDAT ??_C@_0CA@GNINJEOM@?D?z?$LF?D?U?K?$LK?E?T?Z?$LB?p?$LE?$KG?$LF?G?B?$LM?0?D?z?$LB?$LL?F?H?O?B?O?$NP?$KD?$KB@
CONST	SEGMENT
??_C@_0CA@GNINJEOM@?D?z?$LF?D?U?K?$LK?E?T?Z?$LB?p?$LE?$KG?$LF?G?B?$LM?0?D?z?$LB?$LL?F?H?O?B?O?$NP?$KD?$KB@ DB 0c4H
	DB	0faH, 0b5H, 0c4H, 0d5H, 0cbH, 0baH, 0c5H, 0d4H, 0daH, 0b1H, 0f0H
	DB	0b4H, 0a6H, 0b5H, 0c7H, 0c2H, 0bcH, ',', 0c4H, 0faH, 0b1H, 0bbH
	DB	0c6H, 0c8H, 0cfH, 0c2H, 0cfH, 0dfH, 0a3H, 0a1H, 00H ; `string'
CONST	ENDS
;	COMDAT ??_C@_0CM@HGMNIANO@?D?z?J?d?H?k?$LF?D?U?K?$LK?E?$LL?r?C?$NM?B?k?$LC?$LL?U?$PN?H?$LH?0?G?k?H?$LH?H?O@
CONST	SEGMENT
??_C@_0CM@HGMNIANO@?D?z?J?d?H?k?$LF?D?U?K?$LK?E?$LL?r?C?$NM?B?k?$LC?$LL?U?$PN?H?$LH?0?G?k?H?$LH?H?O@ DB 0c4H
	DB	0faH, 0caH, 0e4H, 0c8H, 0ebH, 0b5H, 0c4H, 0d5H, 0cbH, 0baH, 0c5H
	DB	0bbH, 0f2H, 0c3H, 0dcH, 0c2H, 0ebH, 0b2H, 0bbH, 0d5H, 0fdH, 0c8H
	DB	0b7H, ',', 0c7H, 0ebH, 0c8H, 0b7H, 0c8H, 0cfH, 0baH, 0f3H, 0d6H
	DB	0d8H, 0d0H, 0c2H, 0b5H, 0c7H, 0c2H, 0bcH, 0a3H, 0a1H, 00H ; `string'
CONST	ENDS
;	COMDAT ?__LINE__Var@?0??OnTCPNetworkSubMBLogonByUserID@CAttemperEngineSink@@IAE_NPAXGK@Z@4JA
_DATA	SEGMENT
?__LINE__Var@?0??OnTCPNetworkSubMBLogonByUserID@CAttemperEngineSink@@IAE_NPAXGK@Z@4JA DD 02c7H ; `CAttemperEngineSink::OnTCPNetworkSubMBLogonByUserID'::`1'::__LINE__Var
_DATA	ENDS
;	COMDAT ??_C@_0BM@DDKDJNDD@?$LJ?X?$LB?U?A?$KM?$LN?S?R?l?$LD?$KD?3?5dwSocketID?$DN?$CFd@
CONST	SEGMENT
??_C@_0BM@DDKDJNDD@?$LJ?X?$LB?U?A?$KM?$LN?S?R?l?$LD?$KD?3?5dwSocketID?$DN?$CFd@ DB 0b9H
	DB	0d8H, 0b1H, 0d5H, 0c1H, 0acH, 0bdH, 0d3H, 0d2H, 0ecH, 0b3H, 0a3H
	DB	': dwSocketID=%d', 00H			; `string'
CONST	ENDS
;	COMDAT ?__LINE__Var@?0??OnEventTCPNetworkBind@CAttemperEngineSink@@UAE_NKK@Z@4JA
_DATA	SEGMENT
?__LINE__Var@?0??OnEventTCPNetworkBind@CAttemperEngineSink@@UAE_NKK@Z@4JA DD 01ceH ; `CAttemperEngineSink::OnEventTCPNetworkBind'::`1'::__LINE__Var
_DATA	ENDS
;	COMDAT ?__LINE__Var@?0??OnEventTCPSocketSubUserStatus@CAttemperEngineSink@@IAE_NPAXG@Z@4JA
_DATA	SEGMENT
?__LINE__Var@?0??OnEventTCPSocketSubUserStatus@CAttemperEngineSink@@IAE_NPAXG@Z@4JA DD 0190H ; `CAttemperEngineSink::OnEventTCPSocketSubUserStatus'::`1'::__LINE__Var
_DATA	ENDS
;	COMDAT ??_C@_0CN@HPLNLDC@?S?k?P?$KN?$LF?w?$LH?$PO?N?q?F?w?$LF?D?A?$KM?$LN?S?$LJ?X?$LB?U?A?K?$KD?$KM?$CFld?5?C@
CONST	SEGMENT
??_C@_0CN@HPLNLDC@?S?k?P?$KN?$LF?w?$LH?$PO?N?q?F?w?$LF?D?A?$KM?$LN?S?$LJ?X?$LB?U?A?K?$KD?$KM?$CFld?5?C@ DB 0d3H
	DB	0ebH, 0d0H, 0adH, 0b5H, 0f7H, 0b7H, 0feH, 0ceH, 0f1H, 0c6H, 0f7H
	DB	0b5H, 0c4H, 0c1H, 0acH, 0bdH, 0d3H, 0b9H, 0d8H, 0b1H, 0d5H, 0c1H
	DB	0cbH, 0a3H, 0acH, '%ld ', 0c3H, 0ebH, 0baH, 0f3H, 0bdH, 0abH, 0d6H
	DB	0d8H, 0d0H, 0c2H, 0c1H, 0acH, 0bdH, 0d3H, 00H ; `string'
CONST	ENDS
;	COMDAT ?__LINE__Var@?0??OnEventTCPSocketShut@CAttemperEngineSink@@UAE_NGE@Z@4JA
_DATA	SEGMENT
?__LINE__Var@?0??OnEventTCPSocketShut@CAttemperEngineSink@@UAE_NGE@Z@4JA DD 0126H ; `CAttemperEngineSink::OnEventTCPSocketShut'::`1'::__LINE__Var
_DATA	ENDS
;	COMDAT ??_C@_0BK@HFEPLLFN@?U?$PN?T?Z?W?$KC?$LC?a?S?N?O?$LH?A?D?L?l?$LH?$PO?N?q?F?w?4?4?4@
CONST	SEGMENT
??_C@_0BK@HFEPLLFN@?U?$PN?T?Z?W?$KC?$LC?a?S?N?O?$LH?A?D?L?l?$LH?$PO?N?q?F?w?4?4?4@ DB 0d5H
	DB	0fdH, 0d4H, 0daH, 0d7H, 0a2H, 0b2H, 0e1H, 0d3H, 0ceH, 0cfH, 0b7H
	DB	0c1H, 0c4H, 0ccH, 0ecH, 0b7H, 0feH, 0ceH, 0f1H, 0c6H, 0f7H, '.'
	DB	'..', 00H					; `string'
CONST	ENDS
;	COMDAT ??_C@_0CP@NEANHCGA@?P?$KN?$LF?w?$LH?$PO?N?q?F?w?A?$KM?$LN?S?J?$KH?$LA?$NM?5?$FL?5?$CFld?5?$FN?$KD?$KM?$CFld@
CONST	SEGMENT
??_C@_0CP@NEANHCGA@?P?$KN?$LF?w?$LH?$PO?N?q?F?w?A?$KM?$LN?S?J?$KH?$LA?$NM?5?$FL?5?$CFld?5?$FN?$KD?$KM?$CFld@ DB 0d0H
	DB	0adH, 0b5H, 0f7H, 0b7H, 0feH, 0ceH, 0f1H, 0c6H, 0f7H, 0c1H, 0acH
	DB	0bdH, 0d3H, 0caH, 0a7H, 0b0H, 0dcH, ' [ %ld ]', 0a3H, 0acH, '%'
	DB	'ld ', 0c3H, 0ebH, 0baH, 0f3H, 0bdH, 0abH, 0d6H, 0d8H, 0d0H, 0c2H
	DB	0c1H, 0acH, 0bdH, 0d3H, 00H			; `string'
CONST	ENDS
;	COMDAT ?__LINE__Var@?0??OnEventTCPSocketLink@CAttemperEngineSink@@UAE_NGH@Z@4JA
_DATA	SEGMENT
?__LINE__Var@?0??OnEventTCPSocketLink@CAttemperEngineSink@@UAE_NGH@Z@4JA DD 0fcH ; `CAttemperEngineSink::OnEventTCPSocketLink'::`1'::__LINE__Var
_DATA	ENDS
;	COMDAT ?__LINE__Var@?0??OnEventTimer@CAttemperEngineSink@@UAE_NKI@Z@4JA
_DATA	SEGMENT
?__LINE__Var@?0??OnEventTimer@CAttemperEngineSink@@UAE_NKI@Z@4JA DD 0aaH ; `CAttemperEngineSink::OnEventTimer'::`1'::__LINE__Var
_DATA	ENDS
;	COMDAT ??_C@_0BN@EEJNAPCD@?U?$PN?T?Z?A?$KM?$LN?S?P?$KN?$LF?w?$LH?$PO?N?q?F?w?5?$FL?5?$CFs?3?$CFd?5?$FN@
CONST	SEGMENT
??_C@_0BN@EEJNAPCD@?U?$PN?T?Z?A?$KM?$LN?S?P?$KN?$LF?w?$LH?$PO?N?q?F?w?5?$FL?5?$CFs?3?$CFd?5?$FN@ DB 0d5H
	DB	0fdH, 0d4H, 0daH, 0c1H, 0acH, 0bdH, 0d3H, 0d0H, 0adH, 0b5H, 0f7H
	DB	0b7H, 0feH, 0ceH, 0f1H, 0c6H, 0f7H, ' [ %s:%d ]', 00H ; `string'
CONST	ENDS
;	COMDAT ?__LINE__Var@?0??OnAttemperEngineConclude@CAttemperEngineSink@@UAE_NPAUIUnknownEx@@@Z@4JA
_DATA	SEGMENT
?__LINE__Var@?0??OnAttemperEngineConclude@CAttemperEngineSink@@UAE_NPAUIUnknownEx@@@Z@4JA DD 065H ; `CAttemperEngineSink::OnAttemperEngineConclude'::`1'::__LINE__Var
_DATA	ENDS
;	COMDAT ?__LINE__Var@?0??OnAttemperEngineStart@CAttemperEngineSink@@UAE_NPAUIUnknownEx@@@Z@4JA
_DATA	SEGMENT
?__LINE__Var@?0??OnAttemperEngineStart@CAttemperEngineSink@@UAE_NPAUIUnknownEx@@@Z@4JA DD 057H ; `CAttemperEngineSink::OnAttemperEngineStart'::`1'::__LINE__Var
_DATA	ENDS
;	COMDAT ?__LINE__Var@?0???1CAttemperEngineSink@@UAE@XZ@4JA
_DATA	SEGMENT
?__LINE__Var@?0???1CAttemperEngineSink@@UAE@XZ@4JA DD 03aH ; `CAttemperEngineSink::~CAttemperEngineSink'::`1'::__LINE__Var
_DATA	ENDS
_DATA	SEGMENT
?THIS_FILE@@3PADA DB 'g:\', 0cdH, 0f8H, 0baH, 0fcH, '\happygamewh\', 0b7H
	DB	0feH, 0ceH, 0f1H, 0b6H, 0cbH, '\', 0cfH, 0b5H, 0cdH, 0b3H, 0c4H
	DB	0a3H, 0bfH, 0e9H, '\', 0b7H, 0feH, 0ceH, 0f1H, 0c6H, 0f7H, 0d7H
	DB	0e9H, 0bcH, 0feH, '\', 0c1H, 0c4H, 0ccH, 0ecH, 0b7H, 0feH, 0ceH
	DB	0f1H, 0c6H, 0f7H, '\attemperenginesink.cpp', 00H ; THIS_FILE
_DATA	ENDS
;	COMDAT ??_7CAttemperEngineSink@@6B@
CONST	SEGMENT
??_7CAttemperEngineSink@@6B@ DD FLAT:??_R4CAttemperEngineSink@@6B@ ; CAttemperEngineSink::`vftable'
	DD	FLAT:?Release@CAttemperEngineSink@@UAEXXZ
	DD	FLAT:?QueryInterface@CAttemperEngineSink@@UAEPAXABU_GUID@@K@Z
	DD	FLAT:?OnAttemperEngineStart@CAttemperEngineSink@@UAE_NPAUIUnknownEx@@@Z
	DD	FLAT:?OnAttemperEngineConclude@CAttemperEngineSink@@UAE_NPAUIUnknownEx@@@Z
	DD	FLAT:?OnEventControl@CAttemperEngineSink@@UAE_NGPAXG@Z
	DD	FLAT:?OnEventAttemperData@CAttemperEngineSink@@UAE_NGPAXG@Z
	DD	FLAT:?OnEventTimer@CAttemperEngineSink@@UAE_NKI@Z
	DD	FLAT:?OnEventDataBase@CAttemperEngineSink@@MAE_NGKPAXG@Z
	DD	FLAT:?OnEventTCPSocketLink@CAttemperEngineSink@@UAE_NGH@Z
	DD	FLAT:?OnEventTCPSocketShut@CAttemperEngineSink@@UAE_NGE@Z
	DD	FLAT:?OnEventTCPSocketRead@CAttemperEngineSink@@UAE_NGUTCP_Command@@PAXG@Z
	DD	FLAT:?OnEventTCPNetworkBind@CAttemperEngineSink@@UAE_NKK@Z
	DD	FLAT:?OnEventTCPNetworkShut@CAttemperEngineSink@@UAE_NKKK@Z
	DD	FLAT:?OnEventTCPNetworkRead@CAttemperEngineSink@@UAE_NUTCP_Command@@PAXGK@Z
	DD	FLAT:??_ECAttemperEngineSink@@UAEPAXI@Z
CONST	ENDS
;	COMDAT ??_7?$CWHArray@PAUtagSystemMessage@@ABQAU1@@@6B@
CONST	SEGMENT
??_7?$CWHArray@PAUtagSystemMessage@@ABQAU1@@@6B@ DD FLAT:??_R4?$CWHArray@PAUtagSystemMessage@@ABQAU1@@@6B@ ; CWHArray<tagSystemMessage *,tagSystemMessage * const &>::`vftable'
	DD	FLAT:??_E?$CWHArray@PAUtagSystemMessage@@ABQAU1@@@UAEPAXI@Z
CONST	ENDS
;	COMDAT ??_7IAttemperEngineSink@@6B@
CONST	SEGMENT
??_7IAttemperEngineSink@@6B@ DD FLAT:??_R4IAttemperEngineSink@@6B@ ; IAttemperEngineSink::`vftable'
	DD	FLAT:__purecall
	DD	FLAT:__purecall
	DD	FLAT:__purecall
	DD	FLAT:__purecall
	DD	FLAT:__purecall
	DD	FLAT:__purecall
	DD	FLAT:__purecall
	DD	FLAT:__purecall
	DD	FLAT:__purecall
	DD	FLAT:__purecall
	DD	FLAT:__purecall
	DD	FLAT:__purecall
	DD	FLAT:__purecall
	DD	FLAT:__purecall
CONST	ENDS
;	COMDAT ?__LINE__Var@?0??AddPacket@CSendPacketHelper@@QAE_NPAXGG@Z@4JA
_DATA	SEGMENT
?__LINE__Var@?0??AddPacket@CSendPacketHelper@@QAE_NPAXGG@Z@4JA DD 072H ; `CSendPacketHelper::AddPacket'::`1'::__LINE__Var
_DATA	ENDS
;	COMDAT ??_C@_0DK@NEJIDGKJ@g?3?2?M?x?$LK?$PM?2happygamewh?2?$LH?$PO?N?q?$LG?K?2?O?$LF?M?$LD@
CONST	SEGMENT
??_C@_0DK@NEJIDGKJ@g?3?2?M?x?$LK?$PM?2happygamewh?2?$LH?$PO?N?q?$LG?K?2?O?$LF?M?$LD@ DB 'g'
	DB	':\', 0cdH, 0f8H, 0baH, 0fcH, '\happygamewh\', 0b7H, 0feH, 0ceH
	DB	0f1H, 0b6H, 0cbH, '\', 0cfH, 0b5H, 0cdH, 0b3H, 0c4H, 0a3H, 0bfH
	DB	0e9H, '\', 0c8H, 0abH, 0beH, 0d6H, 0b6H, 0a8H, 0d2H, 0e5H, '\p'
	DB	'acketaide.h', 00H				; `string'
CONST	ENDS
;	COMDAT ??_7IUnknownEx@@6B@
CONST	SEGMENT
??_7IUnknownEx@@6B@ DD FLAT:??_R4IUnknownEx@@6B@	; IUnknownEx::`vftable'
	DD	FLAT:__purecall
	DD	FLAT:__purecall
CONST	ENDS
;	COMDAT ??_C@_00CNPNBAHC@@
CONST	SEGMENT
??_C@_00CNPNBAHC@@ DB 00H				; `string'
CONST	ENDS
;	COMDAT xdata$x
xdata$x	SEGMENT
__catchsym$?OnEventDataBase@CAttemperEngineSink@@MAE_NGKPAXG@Z$2 DD 040H
	DD	00H
	DD	00H
	DD	FLAT:__catch$?OnEventDataBase@CAttemperEngineSink@@MAE_NGKPAXG@Z$0
__unwindtable$?OnEventDataBase@CAttemperEngineSink@@MAE_NGKPAXG@Z DD 0ffffffffH
	DD	00H
	DD	0ffffffffH
	DD	00H
__tryblocktable$?OnEventDataBase@CAttemperEngineSink@@MAE_NGKPAXG@Z DD 00H
	DD	00H
	DD	01H
	DD	01H
	DD	FLAT:__catchsym$?OnEventDataBase@CAttemperEngineSink@@MAE_NGKPAXG@Z$2
__ehfuncinfo$?OnEventDataBase@CAttemperEngineSink@@MAE_NGKPAXG@Z DD 019930522H
	DD	02H
	DD	FLAT:__unwindtable$?OnEventDataBase@CAttemperEngineSink@@MAE_NGKPAXG@Z
	DD	01H
	DD	FLAT:__tryblocktable$?OnEventDataBase@CAttemperEngineSink@@MAE_NGKPAXG@Z
	DD	2 DUP(00H)
	DD	00H
	DD	01H
xdata$x	ENDS
;	COMDAT xdata$x
xdata$x	SEGMENT
__unwindtable$?OnTCPNetworkQueryNearuser@CAttemperEngineSink@@IAE_NPAXGK@Z DD 0ffffffffH
	DD	FLAT:__unwindfunclet$?OnTCPNetworkQueryNearuser@CAttemperEngineSink@@IAE_NPAXGK@Z$0
__ehfuncinfo$?OnTCPNetworkQueryNearuser@CAttemperEngineSink@@IAE_NPAXGK@Z DD 019930522H
	DD	01H
	DD	FLAT:__unwindtable$?OnTCPNetworkQueryNearuser@CAttemperEngineSink@@IAE_NPAXGK@Z
	DD	2 DUP(00H)
	DD	2 DUP(00H)
	DD	00H
	DD	01H
xdata$x	ENDS
;	COMDAT xdata$x
xdata$x	SEGMENT
__unwindtable$?OnTCPNetworkGetNearuser@CAttemperEngineSink@@IAE_NPAXGK@Z DD 0ffffffffH
	DD	FLAT:__unwindfunclet$?OnTCPNetworkGetNearuser@CAttemperEngineSink@@IAE_NPAXGK@Z$0
__ehfuncinfo$?OnTCPNetworkGetNearuser@CAttemperEngineSink@@IAE_NPAXGK@Z DD 019930522H
	DD	01H
	DD	FLAT:__unwindtable$?OnTCPNetworkGetNearuser@CAttemperEngineSink@@IAE_NPAXGK@Z
	DD	2 DUP(00H)
	DD	2 DUP(00H)
	DD	00H
	DD	01H
xdata$x	ENDS
;	COMDAT xdata$x
xdata$x	SEGMENT
__catchsym$?OnEventTCPNetworkShut@CAttemperEngineSink@@UAE_NKKK@Z$2 DD 040H
	DD	00H
	DD	00H
	DD	FLAT:__catch$?OnEventTCPNetworkShut@CAttemperEngineSink@@UAE_NKKK@Z$0
__unwindtable$?OnEventTCPNetworkShut@CAttemperEngineSink@@UAE_NKKK@Z DD 0ffffffffH
	DD	00H
	DD	0ffffffffH
	DD	00H
__tryblocktable$?OnEventTCPNetworkShut@CAttemperEngineSink@@UAE_NKKK@Z DD 00H
	DD	00H
	DD	01H
	DD	01H
	DD	FLAT:__catchsym$?OnEventTCPNetworkShut@CAttemperEngineSink@@UAE_NKKK@Z$2
__ehfuncinfo$?OnEventTCPNetworkShut@CAttemperEngineSink@@UAE_NKKK@Z DD 019930522H
	DD	02H
	DD	FLAT:__unwindtable$?OnEventTCPNetworkShut@CAttemperEngineSink@@UAE_NKKK@Z
	DD	01H
	DD	FLAT:__tryblocktable$?OnEventTCPNetworkShut@CAttemperEngineSink@@UAE_NKKK@Z
	DD	2 DUP(00H)
	DD	00H
	DD	01H
xdata$x	ENDS
;	COMDAT xdata$x
xdata$x	SEGMENT
__catchsym$?OnEventTimer@CAttemperEngineSink@@UAE_NKI@Z$2 DD 040H
	DD	00H
	DD	00H
	DD	FLAT:__catch$?OnEventTimer@CAttemperEngineSink@@UAE_NKI@Z$0
__unwindtable$?OnEventTimer@CAttemperEngineSink@@UAE_NKI@Z DD 0ffffffffH
	DD	00H
	DD	0ffffffffH
	DD	00H
__tryblocktable$?OnEventTimer@CAttemperEngineSink@@UAE_NKI@Z DD 00H
	DD	00H
	DD	01H
	DD	01H
	DD	FLAT:__catchsym$?OnEventTimer@CAttemperEngineSink@@UAE_NKI@Z$2
__ehfuncinfo$?OnEventTimer@CAttemperEngineSink@@UAE_NKI@Z DD 019930522H
	DD	02H
	DD	FLAT:__unwindtable$?OnEventTimer@CAttemperEngineSink@@UAE_NKI@Z
	DD	01H
	DD	FLAT:__tryblocktable$?OnEventTimer@CAttemperEngineSink@@UAE_NKI@Z
	DD	2 DUP(00H)
	DD	00H
	DD	01H
xdata$x	ENDS
;	COMDAT xdata$x
xdata$x	SEGMENT
__catchsym$?OnAttemperEngineConclude@CAttemperEngineSink@@UAE_NPAUIUnknownEx@@@Z$5 DD 040H
	DD	00H
	DD	00H
	DD	FLAT:__catch$?OnAttemperEngineConclude@CAttemperEngineSink@@UAE_NPAUIUnknownEx@@@Z$2
__catchsym$?OnAttemperEngineConclude@CAttemperEngineSink@@UAE_NPAUIUnknownEx@@@Z$4 DD 040H
	DD	00H
	DD	00H
	DD	FLAT:__catch$?OnAttemperEngineConclude@CAttemperEngineSink@@UAE_NPAUIUnknownEx@@@Z$0
__unwindtable$?OnAttemperEngineConclude@CAttemperEngineSink@@UAE_NPAUIUnknownEx@@@Z DD 0ffffffffH
	DD	00H
	DD	0ffffffffH
	DD	00H
	DD	0ffffffffH
	DD	00H
	DD	0ffffffffH
	DD	00H
__ehfuncinfo$?OnAttemperEngineConclude@CAttemperEngineSink@@UAE_NPAUIUnknownEx@@@Z DD 019930522H
	DD	04H
	DD	FLAT:__unwindtable$?OnAttemperEngineConclude@CAttemperEngineSink@@UAE_NPAUIUnknownEx@@@Z
	DD	02H
	DD	FLAT:__tryblocktable$?OnAttemperEngineConclude@CAttemperEngineSink@@UAE_NPAUIUnknownEx@@@Z
	DD	2 DUP(00H)
	DD	00H
	DD	01H
__tryblocktable$?OnAttemperEngineConclude@CAttemperEngineSink@@UAE_NPAUIUnknownEx@@@Z DD 00H
	DD	00H
	DD	01H
	DD	01H
	DD	FLAT:__catchsym$?OnAttemperEngineConclude@CAttemperEngineSink@@UAE_NPAUIUnknownEx@@@Z$4
	DD	02H
	DD	02H
	DD	03H
	DD	01H
	DD	FLAT:__catchsym$?OnAttemperEngineConclude@CAttemperEngineSink@@UAE_NPAUIUnknownEx@@@Z$5
xdata$x	ENDS
;	COMDAT xdata$x
xdata$x	SEGMENT
__catchsym$??1CAttemperEngineSink@@UAE@XZ$12 DD 040H
	DD	00H
	DD	00H
	DD	FLAT:__catch$??1CAttemperEngineSink@@UAE@XZ$4
__catchsym$??1CAttemperEngineSink@@UAE@XZ$11 DD 040H
	DD	00H
	DD	00H
	DD	FLAT:__catch$??1CAttemperEngineSink@@UAE@XZ$2
__catchsym$??1CAttemperEngineSink@@UAE@XZ$10 DD 040H
	DD	00H
	DD	00H
	DD	FLAT:__catch$??1CAttemperEngineSink@@UAE@XZ$0
__ehfuncinfo$??1CAttemperEngineSink@@UAE@XZ DD 019930522H
	DD	0aH
	DD	FLAT:__unwindtable$??1CAttemperEngineSink@@UAE@XZ
	DD	03H
	DD	FLAT:__tryblocktable$??1CAttemperEngineSink@@UAE@XZ
	DD	2 DUP(00H)
	DD	00H
	DD	05H
__tryblocktable$??1CAttemperEngineSink@@UAE@XZ DD 04H
	DD	04H
	DD	05H
	DD	01H
	DD	FLAT:__catchsym$??1CAttemperEngineSink@@UAE@XZ$10
	DD	06H
	DD	06H
	DD	07H
	DD	01H
	DD	FLAT:__catchsym$??1CAttemperEngineSink@@UAE@XZ$11
	DD	08H
	DD	08H
	DD	09H
	DD	01H
	DD	FLAT:__catchsym$??1CAttemperEngineSink@@UAE@XZ$12
__unwindtable$??1CAttemperEngineSink@@UAE@XZ DD 0ffffffffH
	DD	FLAT:__unwindfunclet$??1CAttemperEngineSink@@UAE@XZ$6
	DD	00H
	DD	FLAT:__unwindfunclet$??1CAttemperEngineSink@@UAE@XZ$7
	DD	01H
	DD	FLAT:__unwindfunclet$??1CAttemperEngineSink@@UAE@XZ$8
	DD	02H
	DD	FLAT:__unwindfunclet$??1CAttemperEngineSink@@UAE@XZ$9
	DD	03H
	DD	00H
	DD	03H
	DD	00H
	DD	03H
	DD	00H
	DD	03H
	DD	00H
	DD	03H
	DD	00H
	DD	03H
	DD	00H
xdata$x	ENDS
;	COMDAT xdata$x
xdata$x	SEGMENT
__unwindtable$??0CAttemperEngineSink@@QAE@XZ DD 0ffffffffH
	DD	FLAT:__unwindfunclet$??0CAttemperEngineSink@@QAE@XZ$0
	DD	00H
	DD	FLAT:__unwindfunclet$??0CAttemperEngineSink@@QAE@XZ$1
	DD	01H
	DD	FLAT:__unwindfunclet$??0CAttemperEngineSink@@QAE@XZ$2
__ehfuncinfo$??0CAttemperEngineSink@@QAE@XZ DD 019930522H
	DD	03H
	DD	FLAT:__unwindtable$??0CAttemperEngineSink@@QAE@XZ
	DD	2 DUP(00H)
	DD	2 DUP(00H)
	DD	00H
	DD	01H
xdata$x	ENDS
; Function compile flags: /Odtp /ZI
;	COMDAT ??_GCAttemperEngineSink@@UAEPAXI@Z
_TEXT	SEGMENT
_this$ = -4						; size = 4
___flags$ = 8						; size = 4
??_GCAttemperEngineSink@@UAEPAXI@Z PROC			; CAttemperEngineSink::`scalar deleting destructor', COMDAT
; _this$ = ecx
  00000	55		 push	 ebp
  00001	8b ec		 mov	 ebp, esp
  00003	83 ec 44	 sub	 esp, 68			; 00000044H
  00006	53		 push	 ebx
  00007	56		 push	 esi
  00008	57		 push	 edi
  00009	89 4d fc	 mov	 DWORD PTR _this$[ebp], ecx
  0000c	8b 4d fc	 mov	 ecx, DWORD PTR _this$[ebp]
  0000f	e8 00 00 00 00	 call	 ??1CAttemperEngineSink@@UAE@XZ ; CAttemperEngineSink::~CAttemperEngineSink
  00014	8b 45 08	 mov	 eax, DWORD PTR ___flags$[ebp]
  00017	83 e0 01	 and	 eax, 1
  0001a	74 11		 je	 SHORT $LN2@scalar
  0001c	68 ec 00 00 00	 push	 236			; 000000ecH
  00021	8b 45 fc	 mov	 eax, DWORD PTR _this$[ebp]
  00024	50		 push	 eax
  00025	e8 00 00 00 00	 call	 ??3@YAXPAXI@Z		; operator delete
  0002a	83 c4 08	 add	 esp, 8
$LN2@scalar:
  0002d	8b 45 fc	 mov	 eax, DWORD PTR _this$[ebp]
  00030	5f		 pop	 edi
  00031	5e		 pop	 esi
  00032	5b		 pop	 ebx
  00033	8b e5		 mov	 esp, ebp
  00035	5d		 pop	 ebp
  00036	c2 04 00	 ret	 4
??_GCAttemperEngineSink@@UAEPAXI@Z ENDP			; CAttemperEngineSink::`scalar deleting destructor'
_TEXT	ENDS
; Function compile flags: /Odtp /ZI
; File g:\网狐\happygamewh\服务端\系统模块\服务器组件\聊天服务器\attemperenginesink.cpp
;	COMDAT ?OnDBSystemMessageFinish@CAttemperEngineSink@@IAE_NKPAXG@Z
_TEXT	SEGMENT
_nIndex$1 = -12						; size = 4
_pTagSystemMessage$2 = -8				; size = 4
_this$ = -4						; size = 4
_dwContextID$ = 8					; size = 4
_pData$ = 12						; size = 4
_wDataSize$ = 16					; size = 2
?OnDBSystemMessageFinish@CAttemperEngineSink@@IAE_NKPAXG@Z PROC ; CAttemperEngineSink::OnDBSystemMessageFinish, COMDAT
; _this$ = ecx

; 2775 : {

  00000	55		 push	 ebp
  00001	8b ec		 mov	 ebp, esp
  00003	83 ec 4c	 sub	 esp, 76			; 0000004cH
  00006	53		 push	 ebx
  00007	56		 push	 esi
  00008	57		 push	 edi
  00009	89 4d fc	 mov	 DWORD PTR _this$[ebp], ecx

; 2776 : 	//处理临时消息
; 2777 : 	if (m_SystemMessageBuffer.GetCount()>0)

  0000c	8b 4d fc	 mov	 ecx, DWORD PTR _this$[ebp]
  0000f	81 c1 c4 00 00
	00		 add	 ecx, 196		; 000000c4H
  00015	e8 00 00 00 00	 call	 ?GetCount@?$CWHArray@PAUtagSystemMessage@@ABQAU1@@@QBEHXZ ; CWHArray<tagSystemMessage *,tagSystemMessage * const &>::GetCount
  0001a	85 c0		 test	 eax, eax
  0001c	7e 7a		 jle	 SHORT $LN5@OnDBSystem

; 2778 : 	{
; 2779 : 		//变量定义
; 2780 : 		tagSystemMessage *pTagSystemMessage = NULL;

  0001e	c7 45 f8 00 00
	00 00		 mov	 DWORD PTR _pTagSystemMessage$2[ebp], 0

; 2781 : 
; 2782 : 		for (INT_PTR nIndex = m_SystemMessageBuffer.GetCount() - 1; nIndex >= 0; nIndex--)

  00025	8b 4d fc	 mov	 ecx, DWORD PTR _this$[ebp]
  00028	81 c1 c4 00 00
	00		 add	 ecx, 196		; 000000c4H
  0002e	e8 00 00 00 00	 call	 ?GetCount@?$CWHArray@PAUtagSystemMessage@@ABQAU1@@@QBEHXZ ; CWHArray<tagSystemMessage *,tagSystemMessage * const &>::GetCount
  00033	83 e8 01	 sub	 eax, 1
  00036	89 45 f4	 mov	 DWORD PTR _nIndex$1[ebp], eax
  00039	eb 09		 jmp	 SHORT $LN4@OnDBSystem
$LN2@OnDBSystem:
  0003b	8b 45 f4	 mov	 eax, DWORD PTR _nIndex$1[ebp]
  0003e	83 e8 01	 sub	 eax, 1
  00041	89 45 f4	 mov	 DWORD PTR _nIndex$1[ebp], eax
$LN4@OnDBSystem:
  00044	83 7d f4 00	 cmp	 DWORD PTR _nIndex$1[ebp], 0
  00048	7c 4e		 jl	 SHORT $LN5@OnDBSystem

; 2783 : 		{
; 2784 : 			pTagSystemMessage = m_SystemMessageBuffer[nIndex];

  0004a	8b 45 f4	 mov	 eax, DWORD PTR _nIndex$1[ebp]
  0004d	50		 push	 eax
  0004e	8b 4d fc	 mov	 ecx, DWORD PTR _this$[ebp]
  00051	81 c1 c4 00 00
	00		 add	 ecx, 196		; 000000c4H
  00057	e8 00 00 00 00	 call	 ??A?$CWHArray@PAUtagSystemMessage@@ABQAU1@@@QAEAAPAUtagSystemMessage@@H@Z ; CWHArray<tagSystemMessage *,tagSystemMessage * const &>::operator[]
  0005c	8b 08		 mov	 ecx, DWORD PTR [eax]
  0005e	89 4d f8	 mov	 DWORD PTR _pTagSystemMessage$2[ebp], ecx

; 2785 : 			if (pTagSystemMessage && pTagSystemMessage->SystemMessage.dwMessageID == TEMP_MESSAGE_ID)

  00061	83 7d f8 00	 cmp	 DWORD PTR _pTagSystemMessage$2[ebp], 0
  00065	74 2f		 je	 SHORT $LN6@OnDBSystem
  00067	8b 45 f8	 mov	 eax, DWORD PTR _pTagSystemMessage$2[ebp]
  0006a	83 78 04 ff	 cmp	 DWORD PTR [eax+4], -1
  0006e	75 26		 jne	 SHORT $LN6@OnDBSystem

; 2786 : 			{
; 2787 : 				m_SystemMessageActive.Add(pTagSystemMessage);

  00070	8d 45 f8	 lea	 eax, DWORD PTR _pTagSystemMessage$2[ebp]
  00073	50		 push	 eax
  00074	8b 4d fc	 mov	 ecx, DWORD PTR _this$[ebp]
  00077	81 c1 b0 00 00
	00		 add	 ecx, 176		; 000000b0H
  0007d	e8 00 00 00 00	 call	 ?Add@?$CWHArray@PAUtagSystemMessage@@ABQAU1@@@QAEHABQAUtagSystemMessage@@@Z ; CWHArray<tagSystemMessage *,tagSystemMessage * const &>::Add

; 2788 : 				m_SystemMessageBuffer.RemoveAt(nIndex);

  00082	6a 01		 push	 1
  00084	8b 45 f4	 mov	 eax, DWORD PTR _nIndex$1[ebp]
  00087	50		 push	 eax
  00088	8b 4d fc	 mov	 ecx, DWORD PTR _this$[ebp]
  0008b	81 c1 c4 00 00
	00		 add	 ecx, 196		; 000000c4H
  00091	e8 00 00 00 00	 call	 ?RemoveAt@?$CWHArray@PAUtagSystemMessage@@ABQAU1@@@QAEXHH@Z ; CWHArray<tagSystemMessage *,tagSystemMessage * const &>::RemoveAt
$LN6@OnDBSystem:

; 2789 : 			}
; 2790 : 		}

  00096	eb a3		 jmp	 SHORT $LN2@OnDBSystem
$LN5@OnDBSystem:

; 2791 : 	}
; 2792 : 
; 2793 : 	return true;

  00098	b0 01		 mov	 al, 1

; 2794 : }

  0009a	5f		 pop	 edi
  0009b	5e		 pop	 esi
  0009c	5b		 pop	 ebx
  0009d	8b e5		 mov	 esp, ebp
  0009f	5d		 pop	 ebp
  000a0	c2 0c 00	 ret	 12			; 0000000cH
?OnDBSystemMessageFinish@CAttemperEngineSink@@IAE_NKPAXG@Z ENDP ; CAttemperEngineSink::OnDBSystemMessageFinish
_TEXT	ENDS
; Function compile flags: /Odtp /ZI
; File g:\网狐\happygamewh\服务端\系统模块\服务器组件\聊天服务器\attemperenginesink.cpp
;	COMDAT ?OnDBSystemMessage@CAttemperEngineSink@@IAE_NKPAXG@Z
_TEXT	SEGMENT
$T1 = -88						; size = 4
_pSendMessage$ = -20					; size = 4
_pTagSystemMessage$2 = -16				; size = 4
_nIndex$3 = -12						; size = 4
_pSystemMessage$ = -8					; size = 4
_this$ = -4						; size = 4
_dwContextID$ = 8					; size = 4
_pData$ = 12						; size = 4
_wDataSize$ = 16					; size = 2
?OnDBSystemMessage@CAttemperEngineSink@@IAE_NKPAXG@Z PROC ; CAttemperEngineSink::OnDBSystemMessage, COMDAT
; _this$ = ecx

; 2737 : {

  00000	55		 push	 ebp
  00001	8b ec		 mov	 ebp, esp
  00003	83 ec 58	 sub	 esp, 88			; 00000058H
  00006	53		 push	 ebx
  00007	56		 push	 esi
  00008	57		 push	 edi
  00009	89 4d fc	 mov	 DWORD PTR _this$[ebp], ecx

; 2738 : 	//参数校验
; 2739 : 	ASSERT(wDataSize == sizeof(tag_GR_SystemMessage));

  0000c	0f b7 45 10	 movzx	 eax, WORD PTR _wDataSize$[ebp]
  00010	3d 9a 00 00 00	 cmp	 eax, 154		; 0000009aH
  00015	74 19		 je	 SHORT $LN9@OnDBSystem
  00017	8b 0d 00 00 00
	00		 mov	 ecx, DWORD PTR ?__LINE__Var@?0??OnDBSystemMessage@CAttemperEngineSink@@IAE_NKPAXG@Z@4JA
  0001d	83 c1 02	 add	 ecx, 2
  00020	51		 push	 ecx
  00021	68 00 00 00 00	 push	 OFFSET ?THIS_FILE@@3PADA
  00026	e8 00 00 00 00	 call	 ?AfxAssertFailedLine@@YGHPBDH@Z ; AfxAssertFailedLine
  0002b	85 c0		 test	 eax, eax
  0002d	74 01		 je	 SHORT $LN9@OnDBSystem
  0002f	cc		 int	 3
$LN9@OnDBSystem:

; 2740 : 	if (wDataSize != sizeof(tag_GR_SystemMessage)) return false;

  00030	0f b7 45 10	 movzx	 eax, WORD PTR _wDataSize$[ebp]
  00034	3d 9a 00 00 00	 cmp	 eax, 154		; 0000009aH
  00039	74 07		 je	 SHORT $LN5@OnDBSystem
  0003b	32 c0		 xor	 al, al
  0003d	e9 14 01 00 00	 jmp	 $LN1@OnDBSystem
$LN5@OnDBSystem:

; 2741 : 
; 2742 : 	//提取数据
; 2743 : 	tag_GR_SystemMessage * pSystemMessage = (tag_GR_SystemMessage *)pData;

  00042	8b 45 0c	 mov	 eax, DWORD PTR _pData$[ebp]
  00045	89 45 f8	 mov	 DWORD PTR _pSystemMessage$[ebp], eax

; 2744 : 	if (pSystemMessage == NULL) return false;

  00048	83 7d f8 00	 cmp	 DWORD PTR _pSystemMessage$[ebp], 0
  0004c	75 07		 jne	 SHORT $LN6@OnDBSystem
  0004e	32 c0		 xor	 al, al
  00050	e9 01 01 00 00	 jmp	 $LN1@OnDBSystem
$LN6@OnDBSystem:

; 2745 : 
; 2746 : 	for (INT_PTR nIndex = m_SystemMessageBuffer.GetCount() - 1; nIndex >= 0; nIndex--)

  00055	8b 4d fc	 mov	 ecx, DWORD PTR _this$[ebp]
  00058	81 c1 c4 00 00
	00		 add	 ecx, 196		; 000000c4H
  0005e	e8 00 00 00 00	 call	 ?GetCount@?$CWHArray@PAUtagSystemMessage@@ABQAU1@@@QBEHXZ ; CWHArray<tagSystemMessage *,tagSystemMessage * const &>::GetCount
  00063	83 e8 01	 sub	 eax, 1
  00066	89 45 f4	 mov	 DWORD PTR _nIndex$3[ebp], eax
  00069	eb 09		 jmp	 SHORT $LN4@OnDBSystem
$LN2@OnDBSystem:
  0006b	8b 45 f4	 mov	 eax, DWORD PTR _nIndex$3[ebp]
  0006e	83 e8 01	 sub	 eax, 1
  00071	89 45 f4	 mov	 DWORD PTR _nIndex$3[ebp], eax
$LN4@OnDBSystem:
  00074	83 7d f4 00	 cmp	 DWORD PTR _nIndex$3[ebp], 0
  00078	7c 6e		 jl	 SHORT $LN3@OnDBSystem

; 2747 : 	{
; 2748 : 		tagSystemMessage *pTagSystemMessage = m_SystemMessageBuffer[nIndex];

  0007a	8b 45 f4	 mov	 eax, DWORD PTR _nIndex$3[ebp]
  0007d	50		 push	 eax
  0007e	8b 4d fc	 mov	 ecx, DWORD PTR _this$[ebp]
  00081	81 c1 c4 00 00
	00		 add	 ecx, 196		; 000000c4H
  00087	e8 00 00 00 00	 call	 ??A?$CWHArray@PAUtagSystemMessage@@ABQAU1@@@QAEAAPAUtagSystemMessage@@H@Z ; CWHArray<tagSystemMessage *,tagSystemMessage * const &>::operator[]
  0008c	8b 08		 mov	 ecx, DWORD PTR [eax]
  0008e	89 4d f0	 mov	 DWORD PTR _pTagSystemMessage$2[ebp], ecx

; 2749 : 		if (pTagSystemMessage && pTagSystemMessage->SystemMessage.dwMessageID == pSystemMessage->dwMessageID)

  00091	83 7d f0 00	 cmp	 DWORD PTR _pTagSystemMessage$2[ebp], 0
  00095	74 4f		 je	 SHORT $LN7@OnDBSystem
  00097	8b 45 f0	 mov	 eax, DWORD PTR _pTagSystemMessage$2[ebp]
  0009a	8b 4d f8	 mov	 ecx, DWORD PTR _pSystemMessage$[ebp]
  0009d	8b 50 04	 mov	 edx, DWORD PTR [eax+4]
  000a0	3b 11		 cmp	 edx, DWORD PTR [ecx]
  000a2	75 42		 jne	 SHORT $LN7@OnDBSystem

; 2750 : 		{
; 2751 : 			CopyMemory(&pTagSystemMessage->SystemMessage, pSystemMessage, sizeof(tag_GR_SystemMessage));

  000a4	68 9a 00 00 00	 push	 154			; 0000009aH
  000a9	8b 45 f8	 mov	 eax, DWORD PTR _pSystemMessage$[ebp]
  000ac	50		 push	 eax
  000ad	8b 4d f0	 mov	 ecx, DWORD PTR _pTagSystemMessage$2[ebp]
  000b0	83 c1 04	 add	 ecx, 4
  000b3	51		 push	 ecx
  000b4	e8 00 00 00 00	 call	 _memcpy
  000b9	83 c4 0c	 add	 esp, 12			; 0000000cH

; 2752 : 			m_SystemMessageActive.Add(pTagSystemMessage);

  000bc	8d 45 f0	 lea	 eax, DWORD PTR _pTagSystemMessage$2[ebp]
  000bf	50		 push	 eax
  000c0	8b 4d fc	 mov	 ecx, DWORD PTR _this$[ebp]
  000c3	81 c1 b0 00 00
	00		 add	 ecx, 176		; 000000b0H
  000c9	e8 00 00 00 00	 call	 ?Add@?$CWHArray@PAUtagSystemMessage@@ABQAU1@@@QAEHABQAUtagSystemMessage@@@Z ; CWHArray<tagSystemMessage *,tagSystemMessage * const &>::Add

; 2753 : 			m_SystemMessageBuffer.RemoveAt(nIndex);

  000ce	6a 01		 push	 1
  000d0	8b 45 f4	 mov	 eax, DWORD PTR _nIndex$3[ebp]
  000d3	50		 push	 eax
  000d4	8b 4d fc	 mov	 ecx, DWORD PTR _this$[ebp]
  000d7	81 c1 c4 00 00
	00		 add	 ecx, 196		; 000000c4H
  000dd	e8 00 00 00 00	 call	 ?RemoveAt@?$CWHArray@PAUtagSystemMessage@@ABQAU1@@@QAEXHH@Z ; CWHArray<tagSystemMessage *,tagSystemMessage * const &>::RemoveAt

; 2754 : 
; 2755 : 			return true;

  000e2	b0 01		 mov	 al, 1
  000e4	eb 70		 jmp	 SHORT $LN1@OnDBSystem
$LN7@OnDBSystem:

; 2756 : 		}
; 2757 : 	}

  000e6	eb 83		 jmp	 SHORT $LN2@OnDBSystem
$LN3@OnDBSystem:

; 2758 : 
; 2759 : 	//定义变量
; 2760 : 	tagSystemMessage  *pSendMessage = new tagSystemMessage;

  000e8	a1 00 00 00 00	 mov	 eax, DWORD PTR ?__LINE__Var@?0??OnDBSystemMessage@CAttemperEngineSink@@IAE_NKPAXG@Z@4JA
  000ed	83 c0 17	 add	 eax, 23			; 00000017H
  000f0	50		 push	 eax
  000f1	68 00 00 00 00	 push	 OFFSET ?THIS_FILE@@3PADA
  000f6	68 9e 00 00 00	 push	 158			; 0000009eH
  000fb	e8 00 00 00 00	 call	 ??2@YAPAXIPBDH@Z	; operator new
  00100	83 c4 0c	 add	 esp, 12			; 0000000cH
  00103	89 45 a8	 mov	 DWORD PTR $T1[ebp], eax
  00106	8b 4d a8	 mov	 ecx, DWORD PTR $T1[ebp]
  00109	89 4d ec	 mov	 DWORD PTR _pSendMessage$[ebp], ecx

; 2761 : 	ZeroMemory(pSendMessage, sizeof(tagSystemMessage));

  0010c	68 9e 00 00 00	 push	 158			; 0000009eH
  00111	6a 00		 push	 0
  00113	8b 45 ec	 mov	 eax, DWORD PTR _pSendMessage$[ebp]
  00116	50		 push	 eax
  00117	e8 00 00 00 00	 call	 _memset
  0011c	83 c4 0c	 add	 esp, 12			; 0000000cH

; 2762 : 
; 2763 : 	//设置变量
; 2764 : 	pSendMessage->dwLastTime = (DWORD)pSystemMessage->tStartTime;

  0011f	8b 45 f8	 mov	 eax, DWORD PTR _pSystemMessage$[ebp]
  00122	8b 48 0a	 mov	 ecx, DWORD PTR [eax+10]
  00125	8b 55 ec	 mov	 edx, DWORD PTR _pSendMessage$[ebp]
  00128	89 0a		 mov	 DWORD PTR [edx], ecx

; 2765 : 	CopyMemory(&pSendMessage->SystemMessage, pSystemMessage, sizeof(tag_GR_SystemMessage));

  0012a	68 9a 00 00 00	 push	 154			; 0000009aH
  0012f	8b 45 f8	 mov	 eax, DWORD PTR _pSystemMessage$[ebp]
  00132	50		 push	 eax
  00133	8b 4d ec	 mov	 ecx, DWORD PTR _pSendMessage$[ebp]
  00136	83 c1 04	 add	 ecx, 4
  00139	51		 push	 ecx
  0013a	e8 00 00 00 00	 call	 _memcpy
  0013f	83 c4 0c	 add	 esp, 12			; 0000000cH

; 2766 : 
; 2767 : 	//记录消息
; 2768 : 	m_SystemMessageActive.Add(pSendMessage);

  00142	8d 45 ec	 lea	 eax, DWORD PTR _pSendMessage$[ebp]
  00145	50		 push	 eax
  00146	8b 4d fc	 mov	 ecx, DWORD PTR _this$[ebp]
  00149	81 c1 b0 00 00
	00		 add	 ecx, 176		; 000000b0H
  0014f	e8 00 00 00 00	 call	 ?Add@?$CWHArray@PAUtagSystemMessage@@ABQAU1@@@QAEHABQAUtagSystemMessage@@@Z ; CWHArray<tagSystemMessage *,tagSystemMessage * const &>::Add

; 2769 : 
; 2770 : 	return true;

  00154	b0 01		 mov	 al, 1
$LN1@OnDBSystem:

; 2771 : }

  00156	5f		 pop	 edi
  00157	5e		 pop	 esi
  00158	5b		 pop	 ebx
  00159	8b e5		 mov	 esp, ebp
  0015b	5d		 pop	 ebp
  0015c	c2 0c 00	 ret	 12			; 0000000cH
?OnDBSystemMessage@CAttemperEngineSink@@IAE_NKPAXG@Z ENDP ; CAttemperEngineSink::OnDBSystemMessage
_TEXT	ENDS
; Function compile flags: /Odtp /ZI
; File g:\网狐\happygamewh\服务端\系统模块\服务器组件\聊天服务器\attemperenginesink.cpp
;	COMDAT ?OnDBTrumpetResult@CAttemperEngineSink@@IAE_NKPAXG@Z
_TEXT	SEGMENT
_wHeadSize$1 = -464					; size = 2
_wDataSize$2 = -460					; size = 2
_TrumpetEcho$3 = -456					; size = 132
_Trumpet$4 = -324					; size = 170
_wHeadSize$5 = -152					; size = 2
_wDataSize2$6 = -148					; size = 2
_TrumpetEcho$7 = -144					; size = 132
_pTrumpetResult$ = -12					; size = 4
_this$ = -8						; size = 4
__$ArrayPad$ = -4					; size = 4
_dwContextID$ = 8					; size = 4
_pData$ = 12						; size = 4
_wDataSize$ = 16					; size = 2
?OnDBTrumpetResult@CAttemperEngineSink@@IAE_NKPAXG@Z PROC ; CAttemperEngineSink::OnDBTrumpetResult, COMDAT
; _this$ = ecx

; 2652 : {

  00000	55		 push	 ebp
  00001	8b ec		 mov	 ebp, esp
  00003	81 ec 10 02 00
	00		 sub	 esp, 528		; 00000210H
  00009	a1 00 00 00 00	 mov	 eax, DWORD PTR ___security_cookie
  0000e	33 c5		 xor	 eax, ebp
  00010	89 45 fc	 mov	 DWORD PTR __$ArrayPad$[ebp], eax
  00013	53		 push	 ebx
  00014	56		 push	 esi
  00015	57		 push	 edi
  00016	89 4d f8	 mov	 DWORD PTR _this$[ebp], ecx

; 2653 : 	//参数校验
; 2654 : 	ASSERT(wDataSize==sizeof(DBO_GR_TrumpetResult));

  00019	0f b7 45 10	 movzx	 eax, WORD PTR _wDataSize$[ebp]
  0001d	3d 30 01 00 00	 cmp	 eax, 304		; 00000130H
  00022	74 19		 je	 SHORT $LN6@OnDBTrumpe
  00024	8b 0d 00 00 00
	00		 mov	 ecx, DWORD PTR ?__LINE__Var@?0??OnDBTrumpetResult@CAttemperEngineSink@@IAE_NKPAXG@Z@4JA
  0002a	83 c1 02	 add	 ecx, 2
  0002d	51		 push	 ecx
  0002e	68 00 00 00 00	 push	 OFFSET ?THIS_FILE@@3PADA
  00033	e8 00 00 00 00	 call	 ?AfxAssertFailedLine@@YGHPBDH@Z ; AfxAssertFailedLine
  00038	85 c0		 test	 eax, eax
  0003a	74 01		 je	 SHORT $LN6@OnDBTrumpe
  0003c	cc		 int	 3
$LN6@OnDBTrumpe:

; 2655 : 	if(wDataSize!=sizeof(DBO_GR_TrumpetResult)) return false;

  0003d	0f b7 45 10	 movzx	 eax, WORD PTR _wDataSize$[ebp]
  00041	3d 30 01 00 00	 cmp	 eax, 304		; 00000130H
  00046	74 07		 je	 SHORT $LN2@OnDBTrumpe
  00048	32 c0		 xor	 al, al
  0004a	e9 dd 01 00 00	 jmp	 $LN1@OnDBTrumpe
$LN2@OnDBTrumpe:

; 2656 : 
; 2657 : 	//提取数据
; 2658 : 	DBO_GR_TrumpetResult * pTrumpetResult = (DBO_GR_TrumpetResult *)pData;

  0004f	8b 45 0c	 mov	 eax, DWORD PTR _pData$[ebp]
  00052	89 45 f4	 mov	 DWORD PTR _pTrumpetResult$[ebp], eax

; 2659 : 	ASSERT(pTrumpetResult);

  00055	83 7d f4 00	 cmp	 DWORD PTR _pTrumpetResult$[ebp], 0
  00059	75 18		 jne	 SHORT $LN7@OnDBTrumpe
  0005b	a1 00 00 00 00	 mov	 eax, DWORD PTR ?__LINE__Var@?0??OnDBTrumpetResult@CAttemperEngineSink@@IAE_NKPAXG@Z@4JA
  00060	83 c0 07	 add	 eax, 7
  00063	50		 push	 eax
  00064	68 00 00 00 00	 push	 OFFSET ?THIS_FILE@@3PADA
  00069	e8 00 00 00 00	 call	 ?AfxAssertFailedLine@@YGHPBDH@Z ; AfxAssertFailedLine
  0006e	85 c0		 test	 eax, eax
  00070	74 01		 je	 SHORT $LN7@OnDBTrumpe
  00072	cc		 int	 3
$LN7@OnDBTrumpe:

; 2660 : 
; 2661 : 
; 2662 : 
; 2663 : 	if (pTrumpetResult->lResult == 0)

  00073	8b 45 f4	 mov	 eax, DWORD PTR _pTrumpetResult$[ebp]
  00076	83 38 00	 cmp	 DWORD PTR [eax], 0
  00079	0f 85 22 01 00
	00		 jne	 $LN3@OnDBTrumpe

; 2664 : 	{
; 2665 : 		//喇叭反馈
; 2666 : 		CMD_GC_TrumpetEcho TrumpetEcho;
; 2667 : 		ZeroMemory(&TrumpetEcho,sizeof(TrumpetEcho));

  0007f	68 84 00 00 00	 push	 132			; 00000084H
  00084	6a 00		 push	 0
  00086	8d 85 70 ff ff
	ff		 lea	 eax, DWORD PTR _TrumpetEcho$7[ebp]
  0008c	50		 push	 eax
  0008d	e8 00 00 00 00	 call	 _memset
  00092	83 c4 0c	 add	 esp, 12			; 0000000cH

; 2668 : 		TrumpetEcho.lErrorCode=CHAT_MSG_OK;

  00095	c7 85 70 ff ff
	ff 00 00 00 00	 mov	 DWORD PTR _TrumpetEcho$7[ebp], 0

; 2669 : 		lstrcpyn(TrumpetEcho.szDescribeString,pTrumpetResult->szNotifyContent,CountArray(TrumpetEcho.szDescribeString));

  0009f	68 80 00 00 00	 push	 128			; 00000080H
  000a4	8b 45 f4	 mov	 eax, DWORD PTR _pTrumpetResult$[ebp]
  000a7	05 b0 00 00 00	 add	 eax, 176		; 000000b0H
  000ac	50		 push	 eax
  000ad	8d 8d 74 ff ff
	ff		 lea	 ecx, DWORD PTR _TrumpetEcho$7[ebp+4]
  000b3	51		 push	 ecx
  000b4	ff 15 00 00 00
	00		 call	 DWORD PTR __imp__lstrcpynA@12

; 2670 : 		WORD wDataSize2=CountStringBuffer(TrumpetEcho.szDescribeString);

  000ba	8d 85 74 ff ff
	ff		 lea	 eax, DWORD PTR _TrumpetEcho$7[ebp+4]
  000c0	50		 push	 eax
  000c1	ff 15 00 00 00
	00		 call	 DWORD PTR __imp__lstrlenA@4
  000c7	83 c0 01	 add	 eax, 1
  000ca	66 89 85 6c ff
	ff ff		 mov	 WORD PTR _wDataSize2$6[ebp], ax

; 2671 : 		WORD wHeadSize=sizeof(TrumpetEcho)-sizeof(TrumpetEcho.szDescribeString);

  000d1	b8 04 00 00 00	 mov	 eax, 4
  000d6	66 89 85 68 ff
	ff ff		 mov	 WORD PTR _wHeadSize$5[ebp], ax

; 2672 : 		SendData(dwContextID,MDM_GC_USER,SUB_GC_TRUMPET_ECHO,&TrumpetEcho,wHeadSize+wDataSize2);

  000dd	0f b7 85 68 ff
	ff ff		 movzx	 eax, WORD PTR _wHeadSize$5[ebp]
  000e4	0f b7 8d 6c ff
	ff ff		 movzx	 ecx, WORD PTR _wDataSize2$6[ebp]
  000eb	03 c1		 add	 eax, ecx
  000ed	50		 push	 eax
  000ee	8d 95 70 ff ff
	ff		 lea	 edx, DWORD PTR _TrumpetEcho$7[ebp]
  000f4	52		 push	 edx
  000f5	68 31 01 00 00	 push	 305			; 00000131H
  000fa	6a 03		 push	 3
  000fc	8b 45 08	 mov	 eax, DWORD PTR _dwContextID$[ebp]
  000ff	50		 push	 eax
  00100	8b 4d f8	 mov	 ecx, DWORD PTR _this$[ebp]
  00103	e8 00 00 00 00	 call	 ?SendData@CAttemperEngineSink@@IAE_NKGGPAXG@Z ; CAttemperEngineSink::SendData

; 2673 : 
; 2674 : 		CMD_GC_Trumpet Trumpet;
; 2675 : 		ZeroMemory(&Trumpet, sizeof(Trumpet));

  00108	68 aa 00 00 00	 push	 170			; 000000aaH
  0010d	6a 00		 push	 0
  0010f	8d 85 bc fe ff
	ff		 lea	 eax, DWORD PTR _Trumpet$4[ebp]
  00115	50		 push	 eax
  00116	e8 00 00 00 00	 call	 _memset
  0011b	83 c4 0c	 add	 esp, 12			; 0000000cH

; 2676 : 		Trumpet.wPropertyID = pTrumpetResult->wPropertyID;

  0011e	8b 45 f4	 mov	 eax, DWORD PTR _pTrumpetResult$[ebp]
  00121	66 8b 48 04	 mov	 cx, WORD PTR [eax+4]
  00125	66 89 8d bc fe
	ff ff		 mov	 WORD PTR _Trumpet$4[ebp], cx

; 2677 : 		Trumpet.dwSendUserID = pTrumpetResult->dwSendUserID;

  0012c	8b 45 f4	 mov	 eax, DWORD PTR _pTrumpetResult$[ebp]
  0012f	8b 48 08	 mov	 ecx, DWORD PTR [eax+8]
  00132	89 8d be fe ff
	ff		 mov	 DWORD PTR _Trumpet$4[ebp+2], ecx

; 2678 : 		Trumpet.TrumpetColor = pTrumpetResult->TrumpetColor;

  00138	8b 45 f4	 mov	 eax, DWORD PTR _pTrumpetResult$[ebp]
  0013b	8b 48 0c	 mov	 ecx, DWORD PTR [eax+12]
  0013e	89 8d c2 fe ff
	ff		 mov	 DWORD PTR _Trumpet$4[ebp+6], ecx

; 2679 : 		lstrcpyn(Trumpet.szSendNickName, pTrumpetResult->szSendNickName, CountArray(Trumpet.szSendNickName));

  00144	6a 20		 push	 32			; 00000020H
  00146	8b 45 f4	 mov	 eax, DWORD PTR _pTrumpetResult$[ebp]
  00149	83 c0 10	 add	 eax, 16			; 00000010H
  0014c	50		 push	 eax
  0014d	8d 8d c6 fe ff
	ff		 lea	 ecx, DWORD PTR _Trumpet$4[ebp+10]
  00153	51		 push	 ecx
  00154	ff 15 00 00 00
	00		 call	 DWORD PTR __imp__lstrcpynA@12

; 2680 : 		lstrcpyn(Trumpet.szTrumpetContent, pTrumpetResult->szTrumpetContent, CountArray(Trumpet.szTrumpetContent));

  0015a	68 80 00 00 00	 push	 128			; 00000080H
  0015f	8b 45 f4	 mov	 eax, DWORD PTR _pTrumpetResult$[ebp]
  00162	83 c0 30	 add	 eax, 48			; 00000030H
  00165	50		 push	 eax
  00166	8d 8d e6 fe ff
	ff		 lea	 ecx, DWORD PTR _Trumpet$4[ebp+42]
  0016c	51		 push	 ecx
  0016d	ff 15 00 00 00
	00		 call	 DWORD PTR __imp__lstrcpynA@12

; 2681 : 
; 2682 : 		m_pITCPSocketService->SendData(MDM_CS_MANAGER_SERVICE,SUB_CS_C_PROPERTY_TRUMPET,&Trumpet,sizeof(Trumpet));

  00173	68 aa 00 00 00	 push	 170			; 000000aaH
  00178	8d 85 bc fe ff
	ff		 lea	 eax, DWORD PTR _Trumpet$4[ebp]
  0017e	50		 push	 eax
  0017f	6a 02		 push	 2
  00181	6a 05		 push	 5
  00183	8b 4d f8	 mov	 ecx, DWORD PTR _this$[ebp]
  00186	8b 91 e0 00 00
	00		 mov	 edx, DWORD PTR [ecx+224]
  0018c	8b 45 f8	 mov	 eax, DWORD PTR _this$[ebp]
  0018f	8b 12		 mov	 edx, DWORD PTR [edx]
  00191	8b 88 e0 00 00
	00		 mov	 ecx, DWORD PTR [eax+224]
  00197	8b 42 24	 mov	 eax, DWORD PTR [edx+36]
  0019a	ff d0		 call	 eax

; 2683 : 		
; 2684 : 	}
; 2685 : 	else

  0019c	e9 89 00 00 00	 jmp	 $LN4@OnDBTrumpe
$LN3@OnDBTrumpe:

; 2686 : 	{
; 2687 : 		//喇叭反馈
; 2688 : 		CMD_GC_TrumpetEcho TrumpetEcho;
; 2689 : 		ZeroMemory(&TrumpetEcho,sizeof(TrumpetEcho));

  001a1	68 84 00 00 00	 push	 132			; 00000084H
  001a6	6a 00		 push	 0
  001a8	8d 85 38 fe ff
	ff		 lea	 eax, DWORD PTR _TrumpetEcho$3[ebp]
  001ae	50		 push	 eax
  001af	e8 00 00 00 00	 call	 _memset
  001b4	83 c4 0c	 add	 esp, 12			; 0000000cH

; 2690 : 		TrumpetEcho.lErrorCode=CHAT_MSG_ERR;

  001b7	c7 85 38 fe ff
	ff 01 00 00 00	 mov	 DWORD PTR _TrumpetEcho$3[ebp], 1

; 2691 : 		lstrcpyn(TrumpetEcho.szDescribeString,pTrumpetResult->szNotifyContent,CountArray(TrumpetEcho.szDescribeString));

  001c1	68 80 00 00 00	 push	 128			; 00000080H
  001c6	8b 45 f4	 mov	 eax, DWORD PTR _pTrumpetResult$[ebp]
  001c9	05 b0 00 00 00	 add	 eax, 176		; 000000b0H
  001ce	50		 push	 eax
  001cf	8d 8d 3c fe ff
	ff		 lea	 ecx, DWORD PTR _TrumpetEcho$3[ebp+4]
  001d5	51		 push	 ecx
  001d6	ff 15 00 00 00
	00		 call	 DWORD PTR __imp__lstrcpynA@12

; 2692 : 		WORD wDataSize=CountStringBuffer(TrumpetEcho.szDescribeString);

  001dc	8d 85 3c fe ff
	ff		 lea	 eax, DWORD PTR _TrumpetEcho$3[ebp+4]
  001e2	50		 push	 eax
  001e3	ff 15 00 00 00
	00		 call	 DWORD PTR __imp__lstrlenA@4
  001e9	83 c0 01	 add	 eax, 1
  001ec	66 89 85 34 fe
	ff ff		 mov	 WORD PTR _wDataSize$2[ebp], ax

; 2693 : 		WORD wHeadSize=sizeof(TrumpetEcho)-sizeof(TrumpetEcho.szDescribeString);

  001f3	b8 04 00 00 00	 mov	 eax, 4
  001f8	66 89 85 30 fe
	ff ff		 mov	 WORD PTR _wHeadSize$1[ebp], ax

; 2694 : 		SendData(dwContextID,MDM_GC_USER,SUB_GC_TRUMPET_ECHO,&TrumpetEcho,wHeadSize+wDataSize);

  001ff	0f b7 85 30 fe
	ff ff		 movzx	 eax, WORD PTR _wHeadSize$1[ebp]
  00206	0f b7 8d 34 fe
	ff ff		 movzx	 ecx, WORD PTR _wDataSize$2[ebp]
  0020d	03 c1		 add	 eax, ecx
  0020f	50		 push	 eax
  00210	8d 95 38 fe ff
	ff		 lea	 edx, DWORD PTR _TrumpetEcho$3[ebp]
  00216	52		 push	 edx
  00217	68 31 01 00 00	 push	 305			; 00000131H
  0021c	6a 03		 push	 3
  0021e	8b 45 08	 mov	 eax, DWORD PTR _dwContextID$[ebp]
  00221	50		 push	 eax
  00222	8b 4d f8	 mov	 ecx, DWORD PTR _this$[ebp]
  00225	e8 00 00 00 00	 call	 ?SendData@CAttemperEngineSink@@IAE_NKGGPAXG@Z ; CAttemperEngineSink::SendData
$LN4@OnDBTrumpe:

; 2695 : 	}
; 2696 : 
; 2697 : 
; 2698 : 
; 2699 : 	return true;

  0022a	b0 01		 mov	 al, 1
$LN1@OnDBTrumpe:

; 2700 : }

  0022c	5f		 pop	 edi
  0022d	5e		 pop	 esi
  0022e	5b		 pop	 ebx
  0022f	8b 4d fc	 mov	 ecx, DWORD PTR __$ArrayPad$[ebp]
  00232	33 cd		 xor	 ecx, ebp
  00234	e8 00 00 00 00	 call	 @__security_check_cookie@4
  00239	8b e5		 mov	 esp, ebp
  0023b	5d		 pop	 ebp
  0023c	c2 0c 00	 ret	 12			; 0000000cH
?OnDBTrumpetResult@CAttemperEngineSink@@IAE_NKPAXG@Z ENDP ; CAttemperEngineSink::OnDBTrumpetResult
_TEXT	ENDS
; Function compile flags: /Odtp /ZI
; File g:\网狐\happygamewh\服务端\系统模块\服务器组件\聊天服务器\attemperenginesink.cpp
;	COMDAT ?OnDBSearchUserResult@CAttemperEngineSink@@IAE_NKPAXG@Z
_TEXT	SEGMENT
_wHeadSize$1 = -336					; size = 2
_wDataSize$2 = -332					; size = 2
_SearchUserEcho$3 = -328				; size = 132
_cbUserCount$ = -193					; size = 1
_SearchUserResult$ = -192				; size = 166
_pUserInfo$4 = -24					; size = 4
_pLocalUserItem$5 = -20					; size = 4
_pServerUserItem$ = -16					; size = 4
_pSearchUserResult$ = -12				; size = 4
_this$ = -8						; size = 4
__$ArrayPad$ = -4					; size = 4
_dwContextID$ = 8					; size = 4
_pData$ = 12						; size = 4
_wDataSize$ = 16					; size = 2
?OnDBSearchUserResult@CAttemperEngineSink@@IAE_NKPAXG@Z PROC ; CAttemperEngineSink::OnDBSearchUserResult, COMDAT
; _this$ = ecx

; 2412 : {	

  00000	55		 push	 ebp
  00001	8b ec		 mov	 ebp, esp
  00003	81 ec 90 01 00
	00		 sub	 esp, 400		; 00000190H
  00009	a1 00 00 00 00	 mov	 eax, DWORD PTR ___security_cookie
  0000e	33 c5		 xor	 eax, ebp
  00010	89 45 fc	 mov	 DWORD PTR __$ArrayPad$[ebp], eax
  00013	53		 push	 ebx
  00014	56		 push	 esi
  00015	57		 push	 edi
  00016	89 4d f8	 mov	 DWORD PTR _this$[ebp], ecx

; 2413 : 	//参数校验
; 2414 : 	ASSERT(wDataSize<=sizeof(DBO_GR_SearchUserResult));

  00019	0f b7 45 10	 movzx	 eax, WORD PTR _wDataSize$[ebp]
  0001d	3d a6 00 00 00	 cmp	 eax, 166		; 000000a6H
  00022	76 19		 jbe	 SHORT $LN8@OnDBSearch
  00024	8b 0d 00 00 00
	00		 mov	 ecx, DWORD PTR ?__LINE__Var@?0??OnDBSearchUserResult@CAttemperEngineSink@@IAE_NKPAXG@Z@4JA
  0002a	83 c1 02	 add	 ecx, 2
  0002d	51		 push	 ecx
  0002e	68 00 00 00 00	 push	 OFFSET ?THIS_FILE@@3PADA
  00033	e8 00 00 00 00	 call	 ?AfxAssertFailedLine@@YGHPBDH@Z ; AfxAssertFailedLine
  00038	85 c0		 test	 eax, eax
  0003a	74 01		 je	 SHORT $LN8@OnDBSearch
  0003c	cc		 int	 3
$LN8@OnDBSearch:

; 2415 : 	if(wDataSize>sizeof(DBO_GR_SearchUserResult)) return false;

  0003d	0f b7 45 10	 movzx	 eax, WORD PTR _wDataSize$[ebp]
  00041	3d a6 00 00 00	 cmp	 eax, 166		; 000000a6H
  00046	76 07		 jbe	 SHORT $LN2@OnDBSearch
  00048	32 c0		 xor	 al, al
  0004a	e9 7a 02 00 00	 jmp	 $LN1@OnDBSearch
$LN2@OnDBSearch:

; 2416 : 
; 2417 : 	//提取数据
; 2418 : 	DBO_GR_SearchUserResult * pSearchUserResult = (DBO_GR_SearchUserResult *)pData;

  0004f	8b 45 0c	 mov	 eax, DWORD PTR _pData$[ebp]
  00052	89 45 f4	 mov	 DWORD PTR _pSearchUserResult$[ebp], eax

; 2419 : 	ASSERT(pSearchUserResult);

  00055	83 7d f4 00	 cmp	 DWORD PTR _pSearchUserResult$[ebp], 0
  00059	75 18		 jne	 SHORT $LN9@OnDBSearch
  0005b	a1 00 00 00 00	 mov	 eax, DWORD PTR ?__LINE__Var@?0??OnDBSearchUserResult@CAttemperEngineSink@@IAE_NKPAXG@Z@4JA
  00060	83 c0 07	 add	 eax, 7
  00063	50		 push	 eax
  00064	68 00 00 00 00	 push	 OFFSET ?THIS_FILE@@3PADA
  00069	e8 00 00 00 00	 call	 ?AfxAssertFailedLine@@YGHPBDH@Z ; AfxAssertFailedLine
  0006e	85 c0		 test	 eax, eax
  00070	74 01		 je	 SHORT $LN9@OnDBSearch
  00072	cc		 int	 3
$LN9@OnDBSearch:

; 2420 : 
; 2421 : 	//填充数据
; 2422 : 	CServerUserItem * pServerUserItem=m_ServerUserManager.SearchUserItem(pSearchUserResult->FriendInfo.dwUserID);

  00073	8b 45 f4	 mov	 eax, DWORD PTR _pSearchUserResult$[ebp]
  00076	8b 48 01	 mov	 ecx, DWORD PTR [eax+1]
  00079	51		 push	 ecx
  0007a	8b 4d f8	 mov	 ecx, DWORD PTR _this$[ebp]
  0007d	83 c1 1c	 add	 ecx, 28			; 0000001cH
  00080	8b 55 f8	 mov	 edx, DWORD PTR _this$[ebp]
  00083	8b 42 1c	 mov	 eax, DWORD PTR [edx+28]
  00086	8b 50 08	 mov	 edx, DWORD PTR [eax+8]
  00089	ff d2		 call	 edx
  0008b	89 45 f0	 mov	 DWORD PTR _pServerUserItem$[ebp], eax

; 2423 : 	if(pServerUserItem==NULL)

  0008e	83 7d f0 00	 cmp	 DWORD PTR _pServerUserItem$[ebp], 0
  00092	75 74		 jne	 SHORT $LN3@OnDBSearch

; 2424 : 	{
; 2425 : 		pSearchUserResult->FriendInfo.cbMainStatus=FRIEND_US_OFFLINE;

  00094	8b 45 f4	 mov	 eax, DWORD PTR _pSearchUserResult$[ebp]
  00097	c6 40 7c 00	 mov	 BYTE PTR [eax+124], 0

; 2426 : 		pSearchUserResult->FriendInfo.cbGameStatus=US_NULL;

  0009b	8b 45 f4	 mov	 eax, DWORD PTR _pSearchUserResult$[ebp]
  0009e	c6 40 7d 00	 mov	 BYTE PTR [eax+125], 0

; 2427 : 		pSearchUserResult->FriendInfo.wKindID=INVALID_KIND;

  000a2	b8 ff ff 00 00	 mov	 eax, 65535		; 0000ffffH
  000a7	8b 4d f4	 mov	 ecx, DWORD PTR _pSearchUserResult$[ebp]
  000aa	66 89 41 7e	 mov	 WORD PTR [ecx+126], ax

; 2428 : 		pSearchUserResult->FriendInfo.wServerID=INVALID_SERVER;

  000ae	b8 ff ff 00 00	 mov	 eax, 65535		; 0000ffffH
  000b3	8b 4d f4	 mov	 ecx, DWORD PTR _pSearchUserResult$[ebp]
  000b6	66 89 81 80 00
	00 00		 mov	 WORD PTR [ecx+128], ax

; 2429 : 		pSearchUserResult->FriendInfo.wTableID=INVALID_TABLE;

  000bd	b8 ff ff 00 00	 mov	 eax, 65535		; 0000ffffH
  000c2	8b 4d f4	 mov	 ecx, DWORD PTR _pSearchUserResult$[ebp]
  000c5	66 89 81 82 00
	00 00		 mov	 WORD PTR [ecx+130], ax

; 2430 : 		pSearchUserResult->FriendInfo.wChairID=INVALID_CHAIR;

  000cc	b8 ff ff 00 00	 mov	 eax, 65535		; 0000ffffH
  000d1	8b 4d f4	 mov	 ecx, DWORD PTR _pSearchUserResult$[ebp]
  000d4	66 89 81 84 00
	00 00		 mov	 WORD PTR [ecx+132], ax

; 2431 : 		ZeroMemory(pSearchUserResult->FriendInfo.szServerName,CountArray(pSearchUserResult->FriendInfo.szServerName));

  000db	6a 20		 push	 32			; 00000020H
  000dd	6a 00		 push	 0
  000df	8b 45 f4	 mov	 eax, DWORD PTR _pSearchUserResult$[ebp]
  000e2	05 86 00 00 00	 add	 eax, 134		; 00000086H
  000e7	50		 push	 eax
  000e8	e8 00 00 00 00	 call	 _memset
  000ed	83 c4 0c	 add	 esp, 12			; 0000000cH

; 2432 : 		ZeroMemory(pSearchUserResult->FriendInfo.szPhoneMode,CountArray(pSearchUserResult->FriendInfo.szPhoneMode));

  000f0	6a 15		 push	 21			; 00000015H
  000f2	6a 00		 push	 0
  000f4	8b 45 f4	 mov	 eax, DWORD PTR _pSearchUserResult$[ebp]
  000f7	83 c0 66	 add	 eax, 102		; 00000066H
  000fa	50		 push	 eax
  000fb	e8 00 00 00 00	 call	 _memset
  00100	83 c4 0c	 add	 esp, 12			; 0000000cH

; 2433 : 	}
; 2434 : 	else

  00103	e9 bc 00 00 00	 jmp	 $LN4@OnDBSearch
$LN3@OnDBSearch:

; 2435 : 	{
; 2436 : 		CLocalUserItem * pLocalUserItem = (CLocalUserItem *)pServerUserItem;

  00108	8b 45 f0	 mov	 eax, DWORD PTR _pServerUserItem$[ebp]
  0010b	89 45 ec	 mov	 DWORD PTR _pLocalUserItem$5[ebp], eax

; 2437 : 		tagFriendUserInfo * pUserInfo = pLocalUserItem->GetUserInfo();

  0010e	8b 45 ec	 mov	 eax, DWORD PTR _pLocalUserItem$5[ebp]
  00111	8b 10		 mov	 edx, DWORD PTR [eax]
  00113	8b 4d ec	 mov	 ecx, DWORD PTR _pLocalUserItem$5[ebp]
  00116	8b 42 28	 mov	 eax, DWORD PTR [edx+40]
  00119	ff d0		 call	 eax
  0011b	89 45 e8	 mov	 DWORD PTR _pUserInfo$4[ebp], eax

; 2438 : 		pSearchUserResult->FriendInfo.cbMainStatus=pServerUserItem->GetMainStatus();

  0011e	8b 45 f0	 mov	 eax, DWORD PTR _pServerUserItem$[ebp]
  00121	8b 10		 mov	 edx, DWORD PTR [eax]
  00123	8b 4d f0	 mov	 ecx, DWORD PTR _pServerUserItem$[ebp]
  00126	8b 42 10	 mov	 eax, DWORD PTR [edx+16]
  00129	ff d0		 call	 eax
  0012b	8b 4d f4	 mov	 ecx, DWORD PTR _pSearchUserResult$[ebp]
  0012e	88 41 7c	 mov	 BYTE PTR [ecx+124], al

; 2439 : 		pSearchUserResult->FriendInfo.cbGameStatus=pServerUserItem->GetGameStatus();

  00131	8b 45 f0	 mov	 eax, DWORD PTR _pServerUserItem$[ebp]
  00134	8b 10		 mov	 edx, DWORD PTR [eax]
  00136	8b 4d f0	 mov	 ecx, DWORD PTR _pServerUserItem$[ebp]
  00139	8b 42 14	 mov	 eax, DWORD PTR [edx+20]
  0013c	ff d0		 call	 eax
  0013e	8b 4d f4	 mov	 ecx, DWORD PTR _pSearchUserResult$[ebp]
  00141	88 41 7d	 mov	 BYTE PTR [ecx+125], al

; 2440 : 		pSearchUserResult->FriendInfo.wKindID=pUserInfo->wKindID;

  00144	8b 45 f4	 mov	 eax, DWORD PTR _pSearchUserResult$[ebp]
  00147	8b 4d e8	 mov	 ecx, DWORD PTR _pUserInfo$4[ebp]
  0014a	66 8b 91 6e 01
	00 00		 mov	 dx, WORD PTR [ecx+366]
  00151	66 89 50 7e	 mov	 WORD PTR [eax+126], dx

; 2441 : 		pSearchUserResult->FriendInfo.wServerID=pUserInfo->wServerID;

  00155	8b 45 f4	 mov	 eax, DWORD PTR _pSearchUserResult$[ebp]
  00158	8b 4d e8	 mov	 ecx, DWORD PTR _pUserInfo$4[ebp]
  0015b	66 8b 91 70 01
	00 00		 mov	 dx, WORD PTR [ecx+368]
  00162	66 89 90 80 00
	00 00		 mov	 WORD PTR [eax+128], dx

; 2442 : 		pSearchUserResult->FriendInfo.wTableID=pUserInfo->wTableID;

  00169	8b 45 f4	 mov	 eax, DWORD PTR _pSearchUserResult$[ebp]
  0016c	8b 4d e8	 mov	 ecx, DWORD PTR _pUserInfo$4[ebp]
  0016f	66 8b 91 72 01
	00 00		 mov	 dx, WORD PTR [ecx+370]
  00176	66 89 90 82 00
	00 00		 mov	 WORD PTR [eax+130], dx

; 2443 : 		pSearchUserResult->FriendInfo.wChairID=pUserInfo->wChairID;

  0017d	8b 45 f4	 mov	 eax, DWORD PTR _pSearchUserResult$[ebp]
  00180	8b 4d e8	 mov	 ecx, DWORD PTR _pUserInfo$4[ebp]
  00183	66 8b 91 74 01
	00 00		 mov	 dx, WORD PTR [ecx+372]
  0018a	66 89 90 84 00
	00 00		 mov	 WORD PTR [eax+132], dx

; 2444 : 		lstrcpyn(pSearchUserResult->FriendInfo.szServerName,pUserInfo->szServerName,CountArray(pSearchUserResult->FriendInfo.szServerName));

  00191	6a 20		 push	 32			; 00000020H
  00193	8b 45 e8	 mov	 eax, DWORD PTR _pUserInfo$4[ebp]
  00196	05 76 01 00 00	 add	 eax, 374		; 00000176H
  0019b	50		 push	 eax
  0019c	8b 4d f4	 mov	 ecx, DWORD PTR _pSearchUserResult$[ebp]
  0019f	81 c1 86 00 00
	00		 add	 ecx, 134		; 00000086H
  001a5	51		 push	 ecx
  001a6	ff 15 00 00 00
	00		 call	 DWORD PTR __imp__lstrcpynA@12

; 2445 : 		lstrcpyn(pSearchUserResult->FriendInfo.szPhoneMode,pUserInfo->szPhoneMode,CountArray(pSearchUserResult->FriendInfo.szPhoneMode));

  001ac	6a 15		 push	 21			; 00000015H
  001ae	8b 45 e8	 mov	 eax, DWORD PTR _pUserInfo$4[ebp]
  001b1	05 96 01 00 00	 add	 eax, 406		; 00000196H
  001b6	50		 push	 eax
  001b7	8b 4d f4	 mov	 ecx, DWORD PTR _pSearchUserResult$[ebp]
  001ba	83 c1 66	 add	 ecx, 102		; 00000066H
  001bd	51		 push	 ecx
  001be	ff 15 00 00 00
	00		 call	 DWORD PTR __imp__lstrcpynA@12
$LN4@OnDBSearch:

; 2446 : 	}
; 2447 : 
; 2448 : 	//变量定义	
; 2449 : 	CMD_GC_SearchByGameIDResult SearchUserResult;
; 2450 : 	ZeroMemory(&SearchUserResult,sizeof(SearchUserResult));

  001c4	68 a6 00 00 00	 push	 166			; 000000a6H
  001c9	6a 00		 push	 0
  001cb	8d 85 40 ff ff
	ff		 lea	 eax, DWORD PTR _SearchUserResult$[ebp]
  001d1	50		 push	 eax
  001d2	e8 00 00 00 00	 call	 _memset
  001d7	83 c4 0c	 add	 esp, 12			; 0000000cH

; 2451 : 	SearchUserResult.cbUserCount =pSearchUserResult->cbUserCount;

  001da	8b 45 f4	 mov	 eax, DWORD PTR _pSearchUserResult$[ebp]
  001dd	8a 08		 mov	 cl, BYTE PTR [eax]
  001df	88 8d 40 ff ff
	ff		 mov	 BYTE PTR _SearchUserResult$[ebp], cl

; 2452 : 	BYTE cbUserCount=pSearchUserResult->cbUserCount;

  001e5	8b 45 f4	 mov	 eax, DWORD PTR _pSearchUserResult$[ebp]
  001e8	8a 08		 mov	 cl, BYTE PTR [eax]
  001ea	88 8d 3f ff ff
	ff		 mov	 BYTE PTR _cbUserCount$[ebp], cl

; 2453 : 	if(cbUserCount>0)

  001f0	0f b6 85 3f ff
	ff ff		 movzx	 eax, BYTE PTR _cbUserCount$[ebp]
  001f7	85 c0		 test	 eax, eax
  001f9	7e 47		 jle	 SHORT $LN5@OnDBSearch

; 2454 : 	{
; 2455 : 		CopyMemory(&(SearchUserResult.FriendInfo),&(pSearchUserResult->FriendInfo),sizeof(tagClientFriendInfo)*(pSearchUserResult->cbUserCount));

  001fb	8b 45 f4	 mov	 eax, DWORD PTR _pSearchUserResult$[ebp]
  001fe	0f b6 08	 movzx	 ecx, BYTE PTR [eax]
  00201	69 d1 a5 00 00
	00		 imul	 edx, ecx, 165
  00207	52		 push	 edx
  00208	8b 45 f4	 mov	 eax, DWORD PTR _pSearchUserResult$[ebp]
  0020b	83 c0 01	 add	 eax, 1
  0020e	50		 push	 eax
  0020f	8d 8d 41 ff ff
	ff		 lea	 ecx, DWORD PTR _SearchUserResult$[ebp+1]
  00215	51		 push	 ecx
  00216	e8 00 00 00 00	 call	 _memcpy
  0021b	83 c4 0c	 add	 esp, 12			; 0000000cH

; 2456 : 
; 2457 : 		SendData(dwContextID,MDM_GC_USER,SUB_GC_SEARCH_USER_RESULT,&SearchUserResult,sizeof(SearchUserResult));

  0021e	68 a6 00 00 00	 push	 166			; 000000a6H
  00223	8d 85 40 ff ff
	ff		 lea	 eax, DWORD PTR _SearchUserResult$[ebp]
  00229	50		 push	 eax
  0022a	68 cb 00 00 00	 push	 203			; 000000cbH
  0022f	6a 03		 push	 3
  00231	8b 4d 08	 mov	 ecx, DWORD PTR _dwContextID$[ebp]
  00234	51		 push	 ecx
  00235	8b 4d f8	 mov	 ecx, DWORD PTR _this$[ebp]
  00238	e8 00 00 00 00	 call	 ?SendData@CAttemperEngineSink@@IAE_NKGGPAXG@Z ; CAttemperEngineSink::SendData

; 2458 : 	}
; 2459 : 	else

  0023d	e9 85 00 00 00	 jmp	 $LN6@OnDBSearch
$LN5@OnDBSearch:

; 2460 : 	{
; 2461 : 		//回应反馈
; 2462 : 		CMD_GC_SearchByGameIDEcho SearchUserEcho;
; 2463 : 		ZeroMemory(&SearchUserEcho,sizeof(SearchUserEcho));

  00242	68 84 00 00 00	 push	 132			; 00000084H
  00247	6a 00		 push	 0
  00249	8d 85 b8 fe ff
	ff		 lea	 eax, DWORD PTR _SearchUserEcho$3[ebp]
  0024f	50		 push	 eax
  00250	e8 00 00 00 00	 call	 _memset
  00255	83 c4 0c	 add	 esp, 12			; 0000000cH

; 2464 : 		SearchUserEcho.lErrorCode=CHAT_MSG_ERR;

  00258	c7 85 b8 fe ff
	ff 01 00 00 00	 mov	 DWORD PTR _SearchUserEcho$3[ebp], 1

; 2465 : 		lstrcpyn(SearchUserEcho.szDescribeString,_T("查询不到用户"),CountArray(SearchUserEcho.szDescribeString));

  00262	68 80 00 00 00	 push	 128			; 00000080H
  00267	68 00 00 00 00	 push	 OFFSET ??_C@_0N@MPINKGKI@?$LC?i?Q?$KP?$LC?$LL?$LF?$LN?S?C?$LL?$KH@
  0026c	8d 85 bc fe ff
	ff		 lea	 eax, DWORD PTR _SearchUserEcho$3[ebp+4]
  00272	50		 push	 eax
  00273	ff 15 00 00 00
	00		 call	 DWORD PTR __imp__lstrcpynA@12

; 2466 : 		WORD wDataSize=CountStringBuffer(SearchUserEcho.szDescribeString);

  00279	8d 85 bc fe ff
	ff		 lea	 eax, DWORD PTR _SearchUserEcho$3[ebp+4]
  0027f	50		 push	 eax
  00280	ff 15 00 00 00
	00		 call	 DWORD PTR __imp__lstrlenA@4
  00286	83 c0 01	 add	 eax, 1
  00289	66 89 85 b4 fe
	ff ff		 mov	 WORD PTR _wDataSize$2[ebp], ax

; 2467 : 		WORD wHeadSize=sizeof(SearchUserEcho)-sizeof(SearchUserEcho.szDescribeString);

  00290	b8 04 00 00 00	 mov	 eax, 4
  00295	66 89 85 b0 fe
	ff ff		 mov	 WORD PTR _wHeadSize$1[ebp], ax

; 2468 : 		SendData(dwContextID,MDM_GC_USER,SUB_GC_SEARCH_USER_ECHO,&SearchUserEcho,wHeadSize+wDataSize);

  0029c	0f b7 85 b0 fe
	ff ff		 movzx	 eax, WORD PTR _wHeadSize$1[ebp]
  002a3	0f b7 8d b4 fe
	ff ff		 movzx	 ecx, WORD PTR _wDataSize$2[ebp]
  002aa	03 c1		 add	 eax, ecx
  002ac	50		 push	 eax
  002ad	8d 95 b8 fe ff
	ff		 lea	 edx, DWORD PTR _SearchUserEcho$3[ebp]
  002b3	52		 push	 edx
  002b4	68 2f 01 00 00	 push	 303			; 0000012fH
  002b9	6a 03		 push	 3
  002bb	8b 45 08	 mov	 eax, DWORD PTR _dwContextID$[ebp]
  002be	50		 push	 eax
  002bf	8b 4d f8	 mov	 ecx, DWORD PTR _this$[ebp]
  002c2	e8 00 00 00 00	 call	 ?SendData@CAttemperEngineSink@@IAE_NKGGPAXG@Z ; CAttemperEngineSink::SendData
$LN6@OnDBSearch:

; 2469 : 	}
; 2470 : 	return  true;

  002c7	b0 01		 mov	 al, 1
$LN1@OnDBSearch:

; 2471 : }

  002c9	5f		 pop	 edi
  002ca	5e		 pop	 esi
  002cb	5b		 pop	 ebx
  002cc	8b 4d fc	 mov	 ecx, DWORD PTR __$ArrayPad$[ebp]
  002cf	33 cd		 xor	 ecx, ebp
  002d1	e8 00 00 00 00	 call	 @__security_check_cookie@4
  002d6	8b e5		 mov	 esp, ebp
  002d8	5d		 pop	 ebp
  002d9	c2 0c 00	 ret	 12			; 0000000cH
?OnDBSearchUserResult@CAttemperEngineSink@@IAE_NKPAXG@Z ENDP ; CAttemperEngineSink::OnDBSearchUserResult
_TEXT	ENDS
; Function compile flags: /Odtp /ZI
; File g:\网狐\happygamewh\服务端\系统模块\服务器组件\聊天服务器\attemperenginesink.cpp
;	COMDAT ?OnDBUserOperateResult@CAttemperEngineSink@@IAE_NKPAXG@Z
_TEXT	SEGMENT
_pUserOperateResult$ = -8				; size = 4
_this$ = -4						; size = 4
_dwContextID$ = 8					; size = 4
_pData$ = 12						; size = 4
_wDataSize$ = 16					; size = 2
?OnDBUserOperateResult@CAttemperEngineSink@@IAE_NKPAXG@Z PROC ; CAttemperEngineSink::OnDBUserOperateResult, COMDAT
; _this$ = ecx

; 2704 : {

  00000	55		 push	 ebp
  00001	8b ec		 mov	 ebp, esp
  00003	83 ec 48	 sub	 esp, 72			; 00000048H
  00006	53		 push	 ebx
  00007	56		 push	 esi
  00008	57		 push	 edi
  00009	89 4d fc	 mov	 DWORD PTR _this$[ebp], ecx

; 2705 : 	//参数校验
; 2706 : 	ASSERT(wDataSize<=sizeof(DBO_GR_OperateResult));

  0000c	0f b7 45 10	 movzx	 eax, WORD PTR _wDataSize$[ebp]
  00010	3d 8c 00 00 00	 cmp	 eax, 140		; 0000008cH
  00015	76 19		 jbe	 SHORT $LN6@OnDBUserOp
  00017	8b 0d 00 00 00
	00		 mov	 ecx, DWORD PTR ?__LINE__Var@?0??OnDBUserOperateResult@CAttemperEngineSink@@IAE_NKPAXG@Z@4JA
  0001d	83 c1 02	 add	 ecx, 2
  00020	51		 push	 ecx
  00021	68 00 00 00 00	 push	 OFFSET ?THIS_FILE@@3PADA
  00026	e8 00 00 00 00	 call	 ?AfxAssertFailedLine@@YGHPBDH@Z ; AfxAssertFailedLine
  0002b	85 c0		 test	 eax, eax
  0002d	74 01		 je	 SHORT $LN6@OnDBUserOp
  0002f	cc		 int	 3
$LN6@OnDBUserOp:

; 2707 : 	if(wDataSize>sizeof(DBO_GR_OperateResult)) return false;

  00030	0f b7 45 10	 movzx	 eax, WORD PTR _wDataSize$[ebp]
  00034	3d 8c 00 00 00	 cmp	 eax, 140		; 0000008cH
  00039	76 04		 jbe	 SHORT $LN2@OnDBUserOp
  0003b	32 c0		 xor	 al, al
  0003d	eb 70		 jmp	 SHORT $LN1@OnDBUserOp
$LN2@OnDBUserOp:

; 2708 : 
; 2709 : 	//提取数据
; 2710 : 	DBO_GR_OperateResult * pUserOperateResult = (DBO_GR_OperateResult *)pData;

  0003f	8b 45 0c	 mov	 eax, DWORD PTR _pData$[ebp]
  00042	89 45 f8	 mov	 DWORD PTR _pUserOperateResult$[ebp], eax

; 2711 : 	ASSERT(pUserOperateResult);

  00045	83 7d f8 00	 cmp	 DWORD PTR _pUserOperateResult$[ebp], 0
  00049	75 18		 jne	 SHORT $LN7@OnDBUserOp
  0004b	a1 00 00 00 00	 mov	 eax, DWORD PTR ?__LINE__Var@?0??OnDBUserOperateResult@CAttemperEngineSink@@IAE_NKPAXG@Z@4JA
  00050	83 c0 07	 add	 eax, 7
  00053	50		 push	 eax
  00054	68 00 00 00 00	 push	 OFFSET ?THIS_FILE@@3PADA
  00059	e8 00 00 00 00	 call	 ?AfxAssertFailedLine@@YGHPBDH@Z ; AfxAssertFailedLine
  0005e	85 c0		 test	 eax, eax
  00060	74 01		 je	 SHORT $LN7@OnDBUserOp
  00062	cc		 int	 3
$LN7@OnDBUserOp:

; 2712 : 
; 2713 : 	//获取用户
; 2714 : 	if(pUserOperateResult->bModifySucesss==true)

  00063	8b 45 f8	 mov	 eax, DWORD PTR _pUserOperateResult$[ebp]
  00066	0f b6 08	 movzx	 ecx, BYTE PTR [eax]
  00069	83 f9 01	 cmp	 ecx, 1
  0006c	75 1d		 jne	 SHORT $LN3@OnDBUserOp

; 2715 : 	{
; 2716 : 		//发送成功
; 2717 : 		SendOperateSuccess(pUserOperateResult->szDescribeString,pUserOperateResult->wOperateCode,dwContextID);

  0006e	8b 45 08	 mov	 eax, DWORD PTR _dwContextID$[ebp]
  00071	50		 push	 eax
  00072	8b 4d f8	 mov	 ecx, DWORD PTR _pUserOperateResult$[ebp]
  00075	0f b7 51 08	 movzx	 edx, WORD PTR [ecx+8]
  00079	52		 push	 edx
  0007a	8b 45 f8	 mov	 eax, DWORD PTR _pUserOperateResult$[ebp]
  0007d	83 c0 0a	 add	 eax, 10			; 0000000aH
  00080	50		 push	 eax
  00081	8b 4d fc	 mov	 ecx, DWORD PTR _this$[ebp]
  00084	e8 00 00 00 00	 call	 ?SendOperateSuccess@CAttemperEngineSink@@IAE_NPBDJK@Z ; CAttemperEngineSink::SendOperateSuccess

; 2718 : 	}
; 2719 : 	else

  00089	eb 22		 jmp	 SHORT $LN4@OnDBUserOp
$LN3@OnDBUserOp:

; 2720 : 	{
; 2721 : 		//发送失败
; 2722 : 		SendOperateFailure(pUserOperateResult->szDescribeString,pUserOperateResult->dwErrorCode,pUserOperateResult->wOperateCode,dwContextID);

  0008b	8b 45 08	 mov	 eax, DWORD PTR _dwContextID$[ebp]
  0008e	50		 push	 eax
  0008f	8b 4d f8	 mov	 ecx, DWORD PTR _pUserOperateResult$[ebp]
  00092	0f b7 51 08	 movzx	 edx, WORD PTR [ecx+8]
  00096	52		 push	 edx
  00097	8b 45 f8	 mov	 eax, DWORD PTR _pUserOperateResult$[ebp]
  0009a	8b 48 04	 mov	 ecx, DWORD PTR [eax+4]
  0009d	51		 push	 ecx
  0009e	8b 55 f8	 mov	 edx, DWORD PTR _pUserOperateResult$[ebp]
  000a1	83 c2 0a	 add	 edx, 10			; 0000000aH
  000a4	52		 push	 edx
  000a5	8b 4d fc	 mov	 ecx, DWORD PTR _this$[ebp]
  000a8	e8 00 00 00 00	 call	 ?SendOperateFailure@CAttemperEngineSink@@IAE_NPBDJJK@Z ; CAttemperEngineSink::SendOperateFailure
$LN4@OnDBUserOp:

; 2723 : 	}
; 2724 : 
; 2725 : 	return true;

  000ad	b0 01		 mov	 al, 1
$LN1@OnDBUserOp:

; 2726 : }

  000af	5f		 pop	 edi
  000b0	5e		 pop	 esi
  000b1	5b		 pop	 ebx
  000b2	8b e5		 mov	 esp, ebp
  000b4	5d		 pop	 ebp
  000b5	c2 0c 00	 ret	 12			; 0000000cH
?OnDBUserOperateResult@CAttemperEngineSink@@IAE_NKPAXG@Z ENDP ; CAttemperEngineSink::OnDBUserOperateResult
_TEXT	ENDS
; Function compile flags: /Odtp /ZI
; File g:\网狐\happygamewh\服务端\系统模块\服务器组件\聊天服务器\attemperenginesink.cpp
;	COMDAT ?OnDBUserAddFriend@CAttemperEngineSink@@IAE_NKPAXG@Z
_TEXT	SEGMENT
_RespondNotify$1 = -1844				; size = 128
_wSize$2 = -1716					; size = 2
_UserFriendInfo$3 = -1712				; size = 827
_ServerFriendInfo$4 = -884				; size = 7
_pUserFriendGroup$5 = -876				; size = 4
_pServerLocalInfo$6 = -872				; size = 4
_wSize$7 = -868						; size = 2
_UserFriendInfo$8 = -864				; size = 827
_ServerFriendInfo$9 = -36				; size = 7
_pUserFriendGroup$10 = -28				; size = 4
_pRequestLocalInfo$11 = -24				; size = 4
_pRequestUserItem$ = -20				; size = 4
_pServerUserItem$ = -16					; size = 4
_pAddFriend$ = -12					; size = 4
_this$ = -8						; size = 4
__$ArrayPad$ = -4					; size = 4
_dwContextID$ = 8					; size = 4
_pData$ = 12						; size = 4
_wDataSize$ = 16					; size = 2
?OnDBUserAddFriend@CAttemperEngineSink@@IAE_NKPAXG@Z PROC ; CAttemperEngineSink::OnDBUserAddFriend, COMDAT
; _this$ = ecx

; 2475 : {

  00000	55		 push	 ebp
  00001	8b ec		 mov	 ebp, esp
  00003	81 ec 34 08 00
	00		 sub	 esp, 2100		; 00000834H
  00009	a1 00 00 00 00	 mov	 eax, DWORD PTR ___security_cookie
  0000e	33 c5		 xor	 eax, ebp
  00010	89 45 fc	 mov	 DWORD PTR __$ArrayPad$[ebp], eax
  00013	53		 push	 ebx
  00014	56		 push	 esi
  00015	57		 push	 edi
  00016	89 4d f8	 mov	 DWORD PTR _this$[ebp], ecx

; 2476 : 	//参数校验
; 2477 : 	ASSERT(wDataSize==sizeof(DBO_GR_AddFriend));

  00019	0f b7 45 10	 movzx	 eax, WORD PTR _wDataSize$[ebp]
  0001d	83 f8 10	 cmp	 eax, 16			; 00000010H
  00020	74 19		 je	 SHORT $LN17@OnDBUserAd
  00022	8b 0d 00 00 00
	00		 mov	 ecx, DWORD PTR ?__LINE__Var@?0??OnDBUserAddFriend@CAttemperEngineSink@@IAE_NKPAXG@Z@4JA
  00028	83 c1 02	 add	 ecx, 2
  0002b	51		 push	 ecx
  0002c	68 00 00 00 00	 push	 OFFSET ?THIS_FILE@@3PADA
  00031	e8 00 00 00 00	 call	 ?AfxAssertFailedLine@@YGHPBDH@Z ; AfxAssertFailedLine
  00036	85 c0		 test	 eax, eax
  00038	74 01		 je	 SHORT $LN17@OnDBUserAd
  0003a	cc		 int	 3
$LN17@OnDBUserAd:

; 2478 : 	if(wDataSize!=sizeof(DBO_GR_AddFriend)) return false;

  0003b	0f b7 45 10	 movzx	 eax, WORD PTR _wDataSize$[ebp]
  0003f	83 f8 10	 cmp	 eax, 16			; 00000010H
  00042	74 07		 je	 SHORT $LN2@OnDBUserAd
  00044	32 c0		 xor	 al, al
  00046	e9 e6 07 00 00	 jmp	 $LN1@OnDBUserAd
$LN2@OnDBUserAd:

; 2479 : 
; 2480 : 	//提取数据
; 2481 : 	DBO_GR_AddFriend * pAddFriend = (DBO_GR_AddFriend *)pData;

  0004b	8b 45 0c	 mov	 eax, DWORD PTR _pData$[ebp]
  0004e	89 45 f4	 mov	 DWORD PTR _pAddFriend$[ebp], eax

; 2482 : 	ASSERT(pAddFriend);

  00051	83 7d f4 00	 cmp	 DWORD PTR _pAddFriend$[ebp], 0
  00055	75 18		 jne	 SHORT $LN18@OnDBUserAd
  00057	a1 00 00 00 00	 mov	 eax, DWORD PTR ?__LINE__Var@?0??OnDBUserAddFriend@CAttemperEngineSink@@IAE_NKPAXG@Z@4JA
  0005c	83 c0 07	 add	 eax, 7
  0005f	50		 push	 eax
  00060	68 00 00 00 00	 push	 OFFSET ?THIS_FILE@@3PADA
  00065	e8 00 00 00 00	 call	 ?AfxAssertFailedLine@@YGHPBDH@Z ; AfxAssertFailedLine
  0006a	85 c0		 test	 eax, eax
  0006c	74 01		 je	 SHORT $LN18@OnDBUserAd
  0006e	cc		 int	 3
$LN18@OnDBUserAd:

; 2483 : 
; 2484 : 	//查找用户
; 2485 : 	CServerUserItem * pServerUserItem = m_ServerUserManager.SearchUserItem(pAddFriend->dwUserID);

  0006f	8b 45 f4	 mov	 eax, DWORD PTR _pAddFriend$[ebp]
  00072	8b 48 04	 mov	 ecx, DWORD PTR [eax+4]
  00075	51		 push	 ecx
  00076	8b 4d f8	 mov	 ecx, DWORD PTR _this$[ebp]
  00079	83 c1 1c	 add	 ecx, 28			; 0000001cH
  0007c	8b 55 f8	 mov	 edx, DWORD PTR _this$[ebp]
  0007f	8b 42 1c	 mov	 eax, DWORD PTR [edx+28]
  00082	8b 50 08	 mov	 edx, DWORD PTR [eax+8]
  00085	ff d2		 call	 edx
  00087	89 45 f0	 mov	 DWORD PTR _pServerUserItem$[ebp], eax

; 2486 : 	CServerUserItem * pRequestUserItem = m_ServerUserManager.SearchUserItem(pAddFriend->dwRequestUserID);

  0008a	8b 45 f4	 mov	 eax, DWORD PTR _pAddFriend$[ebp]
  0008d	8b 48 08	 mov	 ecx, DWORD PTR [eax+8]
  00090	51		 push	 ecx
  00091	8b 4d f8	 mov	 ecx, DWORD PTR _this$[ebp]
  00094	83 c1 1c	 add	 ecx, 28			; 0000001cH
  00097	8b 55 f8	 mov	 edx, DWORD PTR _this$[ebp]
  0009a	8b 42 1c	 mov	 eax, DWORD PTR [edx+28]
  0009d	8b 50 08	 mov	 edx, DWORD PTR [eax+8]
  000a0	ff d2		 call	 edx
  000a2	89 45 ec	 mov	 DWORD PTR _pRequestUserItem$[ebp], eax

; 2487 : 	if(pServerUserItem==NULL || pServerUserItem->GetUserItemKind()!=enLocalKind) return false;

  000a5	83 7d f0 00	 cmp	 DWORD PTR _pServerUserItem$[ebp], 0
  000a9	74 0d		 je	 SHORT $LN4@OnDBUserAd
  000ab	8b 4d f0	 mov	 ecx, DWORD PTR _pServerUserItem$[ebp]
  000ae	e8 00 00 00 00	 call	 ?GetUserItemKind@CServerUserItem@@QAE?AW4enUserItemKind@@XZ ; CServerUserItem::GetUserItemKind
  000b3	83 f8 01	 cmp	 eax, 1
  000b6	74 07		 je	 SHORT $LN3@OnDBUserAd
$LN4@OnDBUserAd:
  000b8	32 c0		 xor	 al, al
  000ba	e9 72 07 00 00	 jmp	 $LN1@OnDBUserAd
$LN3@OnDBUserAd:

; 2488 : 
; 2489 : 	//处理用户
; 2490 : 	if(pServerUserItem!=NULL)

  000bf	83 7d f0 00	 cmp	 DWORD PTR _pServerUserItem$[ebp], 0
  000c3	0f 84 22 03 00
	00		 je	 $LN5@OnDBUserAd

; 2491 : 	{
; 2492 : 		if(pAddFriend->bLoadUserInfo==false && pRequestUserItem && pRequestUserItem->GetUserItemKind()==enLocalKind)

  000c9	8b 45 f4	 mov	 eax, DWORD PTR _pAddFriend$[ebp]
  000cc	0f b6 08	 movzx	 ecx, BYTE PTR [eax]
  000cf	85 c9		 test	 ecx, ecx
  000d1	0f 85 14 03 00
	00		 jne	 $LN5@OnDBUserAd
  000d7	83 7d ec 00	 cmp	 DWORD PTR _pRequestUserItem$[ebp], 0
  000db	0f 84 0a 03 00
	00		 je	 $LN5@OnDBUserAd
  000e1	8b 4d ec	 mov	 ecx, DWORD PTR _pRequestUserItem$[ebp]
  000e4	e8 00 00 00 00	 call	 ?GetUserItemKind@CServerUserItem@@QAE?AW4enUserItemKind@@XZ ; CServerUserItem::GetUserItemKind
  000e9	83 f8 01	 cmp	 eax, 1
  000ec	0f 85 f9 02 00
	00		 jne	 $LN5@OnDBUserAd

; 2493 : 		{
; 2494 : 			//变量定义
; 2495 : 			CLocalUserItem * pRequestLocalInfo = (CLocalUserItem *)pRequestUserItem;

  000f2	8b 45 ec	 mov	 eax, DWORD PTR _pRequestUserItem$[ebp]
  000f5	89 45 e8	 mov	 DWORD PTR _pRequestLocalInfo$11[ebp], eax

; 2496 : 
; 2497 : 			//获取好友
; 2498 : 			CUserFriendGroup * pUserFriendGroup = m_FriendGroupManager.SearchGroupItem(pAddFriend->dwUserID);

  000f8	8b 45 f4	 mov	 eax, DWORD PTR _pAddFriend$[ebp]
  000fb	8b 48 04	 mov	 ecx, DWORD PTR [eax+4]
  000fe	51		 push	 ecx
  000ff	8b 4d f8	 mov	 ecx, DWORD PTR _this$[ebp]
  00102	83 c1 68	 add	 ecx, 104		; 00000068H
  00105	8b 55 f8	 mov	 edx, DWORD PTR _this$[ebp]
  00108	8b 42 68	 mov	 eax, DWORD PTR [edx+104]
  0010b	8b 50 08	 mov	 edx, DWORD PTR [eax+8]
  0010e	ff d2		 call	 edx
  00110	89 45 e4	 mov	 DWORD PTR _pUserFriendGroup$10[ebp], eax

; 2499 : 			if(pUserFriendGroup==NULL) 

  00113	83 7d e4 00	 cmp	 DWORD PTR _pUserFriendGroup$10[ebp], 0
  00117	75 10		 jne	 SHORT $LN7@OnDBUserAd

; 2500 : 			{
; 2501 : 				pUserFriendGroup = m_FriendGroupManager.ActiveFriendGroup(MIN_FRIEND_CONTENT);

  00119	6a 14		 push	 20			; 00000014H
  0011b	8b 4d f8	 mov	 ecx, DWORD PTR _this$[ebp]
  0011e	83 c1 68	 add	 ecx, 104		; 00000068H
  00121	e8 00 00 00 00	 call	 ?ActiveFriendGroup@CFriendGroupManager@@QAEPAVCUserFriendGroup@@G@Z ; CFriendGroupManager::ActiveFriendGroup
  00126	89 45 e4	 mov	 DWORD PTR _pUserFriendGroup$10[ebp], eax
$LN7@OnDBUserAd:

; 2502 : 			}
; 2503 : 
; 2504 : 			//变量定义
; 2505 : 			tagServerFriendInfo ServerFriendInfo; 
; 2506 : 			ZeroMemory(&ServerFriendInfo,sizeof(ServerFriendInfo));

  00129	6a 07		 push	 7
  0012b	6a 00		 push	 0
  0012d	8d 45 dc	 lea	 eax, DWORD PTR _ServerFriendInfo$9[ebp]
  00130	50		 push	 eax
  00131	e8 00 00 00 00	 call	 _memset
  00136	83 c4 0c	 add	 esp, 12			; 0000000cH

; 2507 : 
; 2508 : 			//设置变量
; 2509 : 			ServerFriendInfo.dwUserID=pAddFriend->dwRequestUserID;

  00139	8b 45 f4	 mov	 eax, DWORD PTR _pAddFriend$[ebp]
  0013c	8b 48 08	 mov	 ecx, DWORD PTR [eax+8]
  0013f	89 4d dc	 mov	 DWORD PTR _ServerFriendInfo$9[ebp], ecx

; 2510 : 			ServerFriendInfo.cbGroupID=pAddFriend->cbGroupID;

  00142	8b 45 f4	 mov	 eax, DWORD PTR _pAddFriend$[ebp]
  00145	8a 48 0c	 mov	 cl, BYTE PTR [eax+12]
  00148	88 4d e2	 mov	 BYTE PTR _ServerFriendInfo$9[ebp+6], cl

; 2511 : 			ServerFriendInfo.cbMainStatus=FRIEND_US_OFFLINE;

  0014b	c6 45 e0 00	 mov	 BYTE PTR _ServerFriendInfo$9[ebp+4], 0

; 2512 : 			ServerFriendInfo.cbGameStatus=US_OFFLINE;

  0014f	c6 45 e1 06	 mov	 BYTE PTR _ServerFriendInfo$9[ebp+5], 6

; 2513 : 
; 2514 : 			//获取用户
; 2515 : 			if(pRequestUserItem!=NULL)

  00153	83 7d ec 00	 cmp	 DWORD PTR _pRequestUserItem$[ebp], 0
  00157	74 20		 je	 SHORT $LN8@OnDBUserAd

; 2516 : 			{
; 2517 : 				ServerFriendInfo.cbMainStatus=pRequestUserItem->GetMainStatus();

  00159	8b 45 ec	 mov	 eax, DWORD PTR _pRequestUserItem$[ebp]
  0015c	8b 10		 mov	 edx, DWORD PTR [eax]
  0015e	8b 4d ec	 mov	 ecx, DWORD PTR _pRequestUserItem$[ebp]
  00161	8b 42 10	 mov	 eax, DWORD PTR [edx+16]
  00164	ff d0		 call	 eax
  00166	88 45 e0	 mov	 BYTE PTR _ServerFriendInfo$9[ebp+4], al

; 2518 : 				ServerFriendInfo.cbGameStatus=pRequestUserItem->GetGameStatus();

  00169	8b 45 ec	 mov	 eax, DWORD PTR _pRequestUserItem$[ebp]
  0016c	8b 10		 mov	 edx, DWORD PTR [eax]
  0016e	8b 4d ec	 mov	 ecx, DWORD PTR _pRequestUserItem$[ebp]
  00171	8b 42 14	 mov	 eax, DWORD PTR [edx+20]
  00174	ff d0		 call	 eax
  00176	88 45 e1	 mov	 BYTE PTR _ServerFriendInfo$9[ebp+5], al
$LN8@OnDBUserAd:

; 2519 : 			}		
; 2520 : 
; 2521 : 			//添加好友
; 2522 : 			pUserFriendGroup->AppendFriendInfo(ServerFriendInfo);

  00179	8d 45 dc	 lea	 eax, DWORD PTR _ServerFriendInfo$9[ebp]
  0017c	50		 push	 eax
  0017d	8b 4d e4	 mov	 ecx, DWORD PTR _pUserFriendGroup$10[ebp]
  00180	e8 00 00 00 00	 call	 ?AppendFriendInfo@CUserFriendGroup@@QAE_NAAUtagServerFriendInfo@@@Z ; CUserFriendGroup::AppendFriendInfo

; 2523 : 
; 2524 : 			//变量定义
; 2525 : 			CMD_GC_UserFriendInfo UserFriendInfo;
; 2526 : 
; 2527 : 			ZeroMemory(&UserFriendInfo.FriendInfo,sizeof(tagClientFriendInfo)*MAX_FRIEND_TRANSFER);

  00185	68 39 03 00 00	 push	 825			; 00000339H
  0018a	6a 00		 push	 0
  0018c	8d 85 a2 fc ff
	ff		 lea	 eax, DWORD PTR _UserFriendInfo$8[ebp+2]
  00192	50		 push	 eax
  00193	e8 00 00 00 00	 call	 _memset
  00198	83 c4 0c	 add	 esp, 12			; 0000000cH

; 2528 : 
; 2529 : 			//构造结构
; 2530 : 			UserFriendInfo.wFriendCount = 1;

  0019b	b8 01 00 00 00	 mov	 eax, 1
  001a0	66 89 85 a0 fc
	ff ff		 mov	 WORD PTR _UserFriendInfo$8[ebp], ax

; 2531 : 
; 2532 : 			//基本信息
; 2533 : 			UserFriendInfo.FriendInfo[0].dwUserID=pRequestLocalInfo->GetUserID();

  001a7	8b 45 e8	 mov	 eax, DWORD PTR _pRequestLocalInfo$11[ebp]
  001aa	8b 10		 mov	 edx, DWORD PTR [eax]
  001ac	8b 4d e8	 mov	 ecx, DWORD PTR _pRequestLocalInfo$11[ebp]
  001af	8b 42 04	 mov	 eax, DWORD PTR [edx+4]
  001b2	ff d0		 call	 eax
  001b4	b9 a5 00 00 00	 mov	 ecx, 165		; 000000a5H
  001b9	6b d1 00	 imul	 edx, ecx, 0
  001bc	89 84 15 a2 fc
	ff ff		 mov	 DWORD PTR _UserFriendInfo$8[ebp+edx+2], eax

; 2534 : 			UserFriendInfo.FriendInfo[0].dwGameID= pRequestLocalInfo->GetGameID();

  001c3	8b 45 e8	 mov	 eax, DWORD PTR _pRequestLocalInfo$11[ebp]
  001c6	8b 10		 mov	 edx, DWORD PTR [eax]
  001c8	8b 4d e8	 mov	 ecx, DWORD PTR _pRequestLocalInfo$11[ebp]
  001cb	8b 42 30	 mov	 eax, DWORD PTR [edx+48]
  001ce	ff d0		 call	 eax
  001d0	b9 a5 00 00 00	 mov	 ecx, 165		; 000000a5H
  001d5	6b d1 00	 imul	 edx, ecx, 0
  001d8	89 84 15 a6 fc
	ff ff		 mov	 DWORD PTR _UserFriendInfo$8[ebp+edx+6], eax

; 2535 : 			UserFriendInfo.FriendInfo[0].cbGroupID =pAddFriend->cbGroupID;

  001df	b8 a5 00 00 00	 mov	 eax, 165		; 000000a5H
  001e4	6b c8 00	 imul	 ecx, eax, 0
  001e7	8b 55 f4	 mov	 edx, DWORD PTR _pAddFriend$[ebp]
  001ea	8a 42 0c	 mov	 al, BYTE PTR [edx+12]
  001ed	88 84 0d 1c fd
	ff ff		 mov	 BYTE PTR _UserFriendInfo$8[ebp+ecx+124], al

; 2536 : 			UserFriendInfo.FriendInfo[0].dwFaceID =pRequestLocalInfo->GetUserInfo()->dwFaceID;

  001f4	8b 45 e8	 mov	 eax, DWORD PTR _pRequestLocalInfo$11[ebp]
  001f7	8b 10		 mov	 edx, DWORD PTR [eax]
  001f9	8b 4d e8	 mov	 ecx, DWORD PTR _pRequestLocalInfo$11[ebp]
  001fc	8b 42 28	 mov	 eax, DWORD PTR [edx+40]
  001ff	ff d0		 call	 eax
  00201	b9 a5 00 00 00	 mov	 ecx, 165		; 000000a5H
  00206	6b d1 00	 imul	 edx, ecx, 0
  00209	8b 40 49	 mov	 eax, DWORD PTR [eax+73]
  0020c	89 84 15 ca fc
	ff ff		 mov	 DWORD PTR _UserFriendInfo$8[ebp+edx+42], eax

; 2537 : 			UserFriendInfo.FriendInfo[0].cbGender =pRequestLocalInfo->GetUserInfo()->cbGender;

  00213	8b 45 e8	 mov	 eax, DWORD PTR _pRequestLocalInfo$11[ebp]
  00216	8b 10		 mov	 edx, DWORD PTR [eax]
  00218	8b 4d e8	 mov	 ecx, DWORD PTR _pRequestLocalInfo$11[ebp]
  0021b	8b 42 28	 mov	 eax, DWORD PTR [edx+40]
  0021e	ff d0		 call	 eax
  00220	b9 a5 00 00 00	 mov	 ecx, 165		; 000000a5H
  00225	6b d1 00	 imul	 edx, ecx, 0
  00228	8a 40 51	 mov	 al, BYTE PTR [eax+81]
  0022b	88 84 15 d2 fc
	ff ff		 mov	 BYTE PTR _UserFriendInfo$8[ebp+edx+50], al

; 2538 : 			UserFriendInfo.FriendInfo[0].dwCustomID =pRequestLocalInfo->GetUserInfo()->dwCustomID;

  00232	8b 45 e8	 mov	 eax, DWORD PTR _pRequestLocalInfo$11[ebp]
  00235	8b 10		 mov	 edx, DWORD PTR [eax]
  00237	8b 4d e8	 mov	 ecx, DWORD PTR _pRequestLocalInfo$11[ebp]
  0023a	8b 42 28	 mov	 eax, DWORD PTR [edx+40]
  0023d	ff d0		 call	 eax
  0023f	b9 a5 00 00 00	 mov	 ecx, 165		; 000000a5H
  00244	6b d1 00	 imul	 edx, ecx, 0
  00247	8b 40 4d	 mov	 eax, DWORD PTR [eax+77]
  0024a	89 84 15 ce fc
	ff ff		 mov	 DWORD PTR _UserFriendInfo$8[ebp+edx+46], eax

; 2539 : 			UserFriendInfo.FriendInfo[0].wMemberOrder =pRequestLocalInfo->GetUserInfo()->wMemberOrder;

  00251	8b 45 e8	 mov	 eax, DWORD PTR _pRequestLocalInfo$11[ebp]
  00254	8b 10		 mov	 edx, DWORD PTR [eax]
  00256	8b 4d e8	 mov	 ecx, DWORD PTR _pRequestLocalInfo$11[ebp]
  00259	8b 42 28	 mov	 eax, DWORD PTR [edx+40]
  0025c	ff d0		 call	 eax
  0025e	b9 a5 00 00 00	 mov	 ecx, 165		; 000000a5H
  00263	6b d1 00	 imul	 edx, ecx, 0
  00266	66 8b 40 52	 mov	 ax, WORD PTR [eax+82]
  0026a	66 89 84 15 d3
	fc ff ff	 mov	 WORD PTR _UserFriendInfo$8[ebp+edx+51], ax

; 2540 : 			UserFriendInfo.FriendInfo[0].wGrowLevel =pRequestLocalInfo->GetUserInfo()->wGrowLevel;

  00272	8b 45 e8	 mov	 eax, DWORD PTR _pRequestLocalInfo$11[ebp]
  00275	8b 10		 mov	 edx, DWORD PTR [eax]
  00277	8b 4d e8	 mov	 ecx, DWORD PTR _pRequestLocalInfo$11[ebp]
  0027a	8b 42 28	 mov	 eax, DWORD PTR [edx+40]
  0027d	ff d0		 call	 eax
  0027f	b9 a5 00 00 00	 mov	 ecx, 165		; 000000a5H
  00284	6b d1 00	 imul	 edx, ecx, 0
  00287	66 8b 40 54	 mov	 ax, WORD PTR [eax+84]
  0028b	66 89 84 15 d5
	fc ff ff	 mov	 WORD PTR _UserFriendInfo$8[ebp+edx+53], ax

; 2541 : 			lstrcpyn(UserFriendInfo.FriendInfo[0].szNickName,pRequestLocalInfo->GetNickName(),CountArray(UserFriendInfo.FriendInfo[0].szNickName));

  00293	6a 20		 push	 32			; 00000020H
  00295	8b 45 e8	 mov	 eax, DWORD PTR _pRequestLocalInfo$11[ebp]
  00298	8b 10		 mov	 edx, DWORD PTR [eax]
  0029a	8b 4d e8	 mov	 ecx, DWORD PTR _pRequestLocalInfo$11[ebp]
  0029d	8b 42 34	 mov	 eax, DWORD PTR [edx+52]
  002a0	ff d0		 call	 eax
  002a2	50		 push	 eax
  002a3	b9 a5 00 00 00	 mov	 ecx, 165		; 000000a5H
  002a8	6b d1 00	 imul	 edx, ecx, 0
  002ab	8d 84 15 aa fc
	ff ff		 lea	 eax, DWORD PTR _UserFriendInfo$8[ebp+edx+10]
  002b2	50		 push	 eax
  002b3	ff 15 00 00 00
	00		 call	 DWORD PTR __imp__lstrcpynA@12

; 2542 : 			lstrcpyn(UserFriendInfo.FriendInfo[0].szUnderWrite,pRequestLocalInfo->GetUserInfo()->szUnderWrite,CountArray(UserFriendInfo.FriendInfo[0].szUnderWrite));

  002b9	6a 20		 push	 32			; 00000020H
  002bb	8b 45 e8	 mov	 eax, DWORD PTR _pRequestLocalInfo$11[ebp]
  002be	8b 10		 mov	 edx, DWORD PTR [eax]
  002c0	8b 4d e8	 mov	 ecx, DWORD PTR _pRequestLocalInfo$11[ebp]
  002c3	8b 42 28	 mov	 eax, DWORD PTR [edx+40]
  002c6	ff d0		 call	 eax
  002c8	83 c0 56	 add	 eax, 86			; 00000056H
  002cb	50		 push	 eax
  002cc	b9 a5 00 00 00	 mov	 ecx, 165		; 000000a5H
  002d1	6b d1 00	 imul	 edx, ecx, 0
  002d4	8d 84 15 d7 fc
	ff ff		 lea	 eax, DWORD PTR _UserFriendInfo$8[ebp+edx+55]
  002db	50		 push	 eax
  002dc	ff 15 00 00 00
	00		 call	 DWORD PTR __imp__lstrcpynA@12

; 2543 : 			lstrcpyn(UserFriendInfo.FriendInfo[0].szCompellation,pRequestLocalInfo->GetUserInfo()->szCompellation,CountArray(UserFriendInfo.FriendInfo[0].szCompellation));

  002e2	6a 10		 push	 16			; 00000010H
  002e4	8b 45 e8	 mov	 eax, DWORD PTR _pRequestLocalInfo$11[ebp]
  002e7	8b 10		 mov	 edx, DWORD PTR [eax]
  002e9	8b 4d e8	 mov	 ecx, DWORD PTR _pRequestLocalInfo$11[ebp]
  002ec	8b 42 28	 mov	 eax, DWORD PTR [edx+40]
  002ef	ff d0		 call	 eax
  002f1	83 c0 76	 add	 eax, 118		; 00000076H
  002f4	50		 push	 eax
  002f5	b9 a5 00 00 00	 mov	 ecx, 165		; 000000a5H
  002fa	6b d1 00	 imul	 edx, ecx, 0
  002fd	8d 84 15 f7 fc
	ff ff		 lea	 eax, DWORD PTR _UserFriendInfo$8[ebp+edx+87]
  00304	50		 push	 eax
  00305	ff 15 00 00 00
	00		 call	 DWORD PTR __imp__lstrcpynA@12

; 2544 : 			lstrcpyn(UserFriendInfo.FriendInfo[0].szPhoneMode,pRequestLocalInfo->GetUserInfo()->szPhoneMode,CountArray(UserFriendInfo.FriendInfo[0].szPhoneMode));

  0030b	6a 15		 push	 21			; 00000015H
  0030d	8b 45 e8	 mov	 eax, DWORD PTR _pRequestLocalInfo$11[ebp]
  00310	8b 10		 mov	 edx, DWORD PTR [eax]
  00312	8b 4d e8	 mov	 ecx, DWORD PTR _pRequestLocalInfo$11[ebp]
  00315	8b 42 28	 mov	 eax, DWORD PTR [edx+40]
  00318	ff d0		 call	 eax
  0031a	05 96 01 00 00	 add	 eax, 406		; 00000196H
  0031f	50		 push	 eax
  00320	b9 a5 00 00 00	 mov	 ecx, 165		; 000000a5H
  00325	6b d1 00	 imul	 edx, ecx, 0
  00328	8d 84 15 07 fd
	ff ff		 lea	 eax, DWORD PTR _UserFriendInfo$8[ebp+edx+103]
  0032f	50		 push	 eax
  00330	ff 15 00 00 00
	00		 call	 DWORD PTR __imp__lstrcpynA@12

; 2545 : 
; 2546 : 			//在线信息
; 2547 : 			UserFriendInfo.FriendInfo[0].cbMainStatus=pRequestLocalInfo->GetMainStatus();

  00336	8b 45 e8	 mov	 eax, DWORD PTR _pRequestLocalInfo$11[ebp]
  00339	8b 10		 mov	 edx, DWORD PTR [eax]
  0033b	8b 4d e8	 mov	 ecx, DWORD PTR _pRequestLocalInfo$11[ebp]
  0033e	8b 42 10	 mov	 eax, DWORD PTR [edx+16]
  00341	ff d0		 call	 eax
  00343	b9 a5 00 00 00	 mov	 ecx, 165		; 000000a5H
  00348	6b d1 00	 imul	 edx, ecx, 0
  0034b	88 84 15 1d fd
	ff ff		 mov	 BYTE PTR _UserFriendInfo$8[ebp+edx+125], al

; 2548 : 			UserFriendInfo.FriendInfo[0].cbGameStatus=pRequestLocalInfo->GetGameStatus();

  00352	8b 45 e8	 mov	 eax, DWORD PTR _pRequestLocalInfo$11[ebp]
  00355	8b 10		 mov	 edx, DWORD PTR [eax]
  00357	8b 4d e8	 mov	 ecx, DWORD PTR _pRequestLocalInfo$11[ebp]
  0035a	8b 42 14	 mov	 eax, DWORD PTR [edx+20]
  0035d	ff d0		 call	 eax
  0035f	b9 a5 00 00 00	 mov	 ecx, 165		; 000000a5H
  00364	6b d1 00	 imul	 edx, ecx, 0
  00367	88 84 15 1e fd
	ff ff		 mov	 BYTE PTR _UserFriendInfo$8[ebp+edx+126], al

; 2549 : 			UserFriendInfo.FriendInfo[0].wServerID=pRequestLocalInfo->GetServerID();

  0036e	8b 45 e8	 mov	 eax, DWORD PTR _pRequestLocalInfo$11[ebp]
  00371	8b 10		 mov	 edx, DWORD PTR [eax]
  00373	8b 4d e8	 mov	 ecx, DWORD PTR _pRequestLocalInfo$11[ebp]
  00376	8b 42 18	 mov	 eax, DWORD PTR [edx+24]
  00379	ff d0		 call	 eax
  0037b	b9 a5 00 00 00	 mov	 ecx, 165		; 000000a5H
  00380	6b d1 00	 imul	 edx, ecx, 0
  00383	66 89 84 15 21
	fd ff ff	 mov	 WORD PTR _UserFriendInfo$8[ebp+edx+129], ax

; 2550 : 			UserFriendInfo.FriendInfo[0].wTableID = pRequestLocalInfo->GetTableID();

  0038b	8b 45 e8	 mov	 eax, DWORD PTR _pRequestLocalInfo$11[ebp]
  0038e	8b 10		 mov	 edx, DWORD PTR [eax]
  00390	8b 4d e8	 mov	 ecx, DWORD PTR _pRequestLocalInfo$11[ebp]
  00393	8b 42 1c	 mov	 eax, DWORD PTR [edx+28]
  00396	ff d0		 call	 eax
  00398	b9 a5 00 00 00	 mov	 ecx, 165		; 000000a5H
  0039d	6b d1 00	 imul	 edx, ecx, 0
  003a0	66 89 84 15 23
	fd ff ff	 mov	 WORD PTR _UserFriendInfo$8[ebp+edx+131], ax

; 2551 : 
; 2552 : 
; 2553 : 			//发送数据
; 2554 : 			WORD wSize = sizeof(UserFriendInfo)-sizeof(UserFriendInfo.FriendInfo)+sizeof(tagClientFriendInfo)*UserFriendInfo.wFriendCount;

  003a8	0f b7 85 a0 fc
	ff ff		 movzx	 eax, WORD PTR _UserFriendInfo$8[ebp]
  003af	69 c8 a5 00 00
	00		 imul	 ecx, eax, 165
  003b5	83 c1 02	 add	 ecx, 2
  003b8	66 89 8d 9c fc
	ff ff		 mov	 WORD PTR _wSize$7[ebp], cx

; 2555 : 			SendData(((CLocalUserItem *)pServerUserItem)->GetSocketID(),MDM_GC_LOGON,SUB_S_USER_FRIEND,&UserFriendInfo,wSize);

  003bf	0f b7 85 9c fc
	ff ff		 movzx	 eax, WORD PTR _wSize$7[ebp]
  003c6	50		 push	 eax
  003c7	8d 8d a0 fc ff
	ff		 lea	 ecx, DWORD PTR _UserFriendInfo$8[ebp]
  003cd	51		 push	 ecx
  003ce	68 2f 01 00 00	 push	 303			; 0000012fH
  003d3	6a 01		 push	 1
  003d5	8b 55 f0	 mov	 edx, DWORD PTR _pServerUserItem$[ebp]
  003d8	8b 02		 mov	 eax, DWORD PTR [edx]
  003da	8b 4d f0	 mov	 ecx, DWORD PTR _pServerUserItem$[ebp]
  003dd	8b 50 38	 mov	 edx, DWORD PTR [eax+56]
  003e0	ff d2		 call	 edx
  003e2	50		 push	 eax
  003e3	8b 4d f8	 mov	 ecx, DWORD PTR _this$[ebp]
  003e6	e8 00 00 00 00	 call	 ?SendData@CAttemperEngineSink@@IAE_NKGGPAXG@Z ; CAttemperEngineSink::SendData
$LN5@OnDBUserAd:

; 2556 : 
; 2557 : 		}		
; 2558 : 	}
; 2559 : 
; 2560 : 	//处理用户
; 2561 : 	if(pRequestUserItem!=NULL)

  003eb	83 7d ec 00	 cmp	 DWORD PTR _pRequestUserItem$[ebp], 0
  003ef	0f 84 3a 04 00
	00		 je	 $LN9@OnDBUserAd

; 2562 : 	{
; 2563 : 		if(pRequestUserItem->GetUserItemKind()==enLocalKind)

  003f5	8b 4d ec	 mov	 ecx, DWORD PTR _pRequestUserItem$[ebp]
  003f8	e8 00 00 00 00	 call	 ?GetUserItemKind@CServerUserItem@@QAE?AW4enUserItemKind@@XZ ; CServerUserItem::GetUserItemKind
  003fd	83 f8 01	 cmp	 eax, 1
  00400	0f 85 29 04 00
	00		 jne	 $LN9@OnDBUserAd

; 2564 : 		{
; 2565 : 			//变量定义
; 2566 : 			CLocalUserItem * pServerLocalInfo = (CLocalUserItem *)pServerUserItem;

  00406	8b 45 f0	 mov	 eax, DWORD PTR _pServerUserItem$[ebp]
  00409	89 85 98 fc ff
	ff		 mov	 DWORD PTR _pServerLocalInfo$6[ebp], eax

; 2567 : 
; 2568 : 			//获取好友
; 2569 : 			CUserFriendGroup * pUserFriendGroup = m_FriendGroupManager.SearchGroupItem(pAddFriend->dwRequestUserID);

  0040f	8b 45 f4	 mov	 eax, DWORD PTR _pAddFriend$[ebp]
  00412	8b 48 08	 mov	 ecx, DWORD PTR [eax+8]
  00415	51		 push	 ecx
  00416	8b 4d f8	 mov	 ecx, DWORD PTR _this$[ebp]
  00419	83 c1 68	 add	 ecx, 104		; 00000068H
  0041c	8b 55 f8	 mov	 edx, DWORD PTR _this$[ebp]
  0041f	8b 42 68	 mov	 eax, DWORD PTR [edx+104]
  00422	8b 50 08	 mov	 edx, DWORD PTR [eax+8]
  00425	ff d2		 call	 edx
  00427	89 85 94 fc ff
	ff		 mov	 DWORD PTR _pUserFriendGroup$5[ebp], eax

; 2570 : 			if(pUserFriendGroup==NULL) 

  0042d	83 bd 94 fc ff
	ff 00		 cmp	 DWORD PTR _pUserFriendGroup$5[ebp], 0
  00434	75 13		 jne	 SHORT $LN11@OnDBUserAd

; 2571 : 			{
; 2572 : 				pUserFriendGroup = m_FriendGroupManager.ActiveFriendGroup(MIN_FRIEND_CONTENT);

  00436	6a 14		 push	 20			; 00000014H
  00438	8b 4d f8	 mov	 ecx, DWORD PTR _this$[ebp]
  0043b	83 c1 68	 add	 ecx, 104		; 00000068H
  0043e	e8 00 00 00 00	 call	 ?ActiveFriendGroup@CFriendGroupManager@@QAEPAVCUserFriendGroup@@G@Z ; CFriendGroupManager::ActiveFriendGroup
  00443	89 85 94 fc ff
	ff		 mov	 DWORD PTR _pUserFriendGroup$5[ebp], eax
$LN11@OnDBUserAd:

; 2573 : 			}
; 2574 : 
; 2575 : 			//变量定义
; 2576 : 			tagServerFriendInfo ServerFriendInfo; 
; 2577 : 			ZeroMemory(&ServerFriendInfo,sizeof(ServerFriendInfo));

  00449	6a 07		 push	 7
  0044b	6a 00		 push	 0
  0044d	8d 85 8c fc ff
	ff		 lea	 eax, DWORD PTR _ServerFriendInfo$4[ebp]
  00453	50		 push	 eax
  00454	e8 00 00 00 00	 call	 _memset
  00459	83 c4 0c	 add	 esp, 12			; 0000000cH

; 2578 : 
; 2579 : 			//设置变量
; 2580 : 			ServerFriendInfo.dwUserID=pAddFriend->dwUserID;

  0045c	8b 45 f4	 mov	 eax, DWORD PTR _pAddFriend$[ebp]
  0045f	8b 48 04	 mov	 ecx, DWORD PTR [eax+4]
  00462	89 8d 8c fc ff
	ff		 mov	 DWORD PTR _ServerFriendInfo$4[ebp], ecx

; 2581 : 			ServerFriendInfo.cbGroupID=pAddFriend->cbRequestGroupID;

  00468	8b 45 f4	 mov	 eax, DWORD PTR _pAddFriend$[ebp]
  0046b	8a 48 0d	 mov	 cl, BYTE PTR [eax+13]
  0046e	88 8d 92 fc ff
	ff		 mov	 BYTE PTR _ServerFriendInfo$4[ebp+6], cl

; 2582 : 			ServerFriendInfo.cbMainStatus=FRIEND_US_OFFLINE;

  00474	c6 85 90 fc ff
	ff 00		 mov	 BYTE PTR _ServerFriendInfo$4[ebp+4], 0

; 2583 : 			ServerFriendInfo.cbGameStatus=US_OFFLINE;

  0047b	c6 85 91 fc ff
	ff 06		 mov	 BYTE PTR _ServerFriendInfo$4[ebp+5], 6

; 2584 : 
; 2585 : 			//获取用户
; 2586 : 			if(pServerUserItem!=NULL)

  00482	83 7d f0 00	 cmp	 DWORD PTR _pServerUserItem$[ebp], 0
  00486	74 26		 je	 SHORT $LN12@OnDBUserAd

; 2587 : 			{
; 2588 : 				ServerFriendInfo.cbMainStatus=pServerUserItem->GetMainStatus();

  00488	8b 45 f0	 mov	 eax, DWORD PTR _pServerUserItem$[ebp]
  0048b	8b 10		 mov	 edx, DWORD PTR [eax]
  0048d	8b 4d f0	 mov	 ecx, DWORD PTR _pServerUserItem$[ebp]
  00490	8b 42 10	 mov	 eax, DWORD PTR [edx+16]
  00493	ff d0		 call	 eax
  00495	88 85 90 fc ff
	ff		 mov	 BYTE PTR _ServerFriendInfo$4[ebp+4], al

; 2589 : 				ServerFriendInfo.cbGameStatus=pServerUserItem->GetGameStatus();

  0049b	8b 45 f0	 mov	 eax, DWORD PTR _pServerUserItem$[ebp]
  0049e	8b 10		 mov	 edx, DWORD PTR [eax]
  004a0	8b 4d f0	 mov	 ecx, DWORD PTR _pServerUserItem$[ebp]
  004a3	8b 42 14	 mov	 eax, DWORD PTR [edx+20]
  004a6	ff d0		 call	 eax
  004a8	88 85 91 fc ff
	ff		 mov	 BYTE PTR _ServerFriendInfo$4[ebp+5], al
$LN12@OnDBUserAd:

; 2590 : 			}		
; 2591 : 
; 2592 : 			//添加好友
; 2593 : 			pUserFriendGroup->AppendFriendInfo(ServerFriendInfo);

  004ae	8d 85 8c fc ff
	ff		 lea	 eax, DWORD PTR _ServerFriendInfo$4[ebp]
  004b4	50		 push	 eax
  004b5	8b 8d 94 fc ff
	ff		 mov	 ecx, DWORD PTR _pUserFriendGroup$5[ebp]
  004bb	e8 00 00 00 00	 call	 ?AppendFriendInfo@CUserFriendGroup@@QAE_NAAUtagServerFriendInfo@@@Z ; CUserFriendGroup::AppendFriendInfo

; 2594 : 
; 2595 : 
; 2596 : 			if(pRequestUserItem->GetMainStatus()!=FRIEND_US_OFFLINE)

  004c0	8b 45 ec	 mov	 eax, DWORD PTR _pRequestUserItem$[ebp]
  004c3	8b 10		 mov	 edx, DWORD PTR [eax]
  004c5	8b 4d ec	 mov	 ecx, DWORD PTR _pRequestUserItem$[ebp]
  004c8	8b 42 10	 mov	 eax, DWORD PTR [edx+16]
  004cb	ff d0		 call	 eax
  004cd	0f b6 c8	 movzx	 ecx, al
  004d0	85 c9		 test	 ecx, ecx
  004d2	0f 84 c0 02 00
	00		 je	 $LN13@OnDBUserAd

; 2597 : 			{
; 2598 : 				//变量定义
; 2599 : 				CMD_GC_UserFriendInfo UserFriendInfo;
; 2600 : 
; 2601 : 				ZeroMemory(&UserFriendInfo.FriendInfo,sizeof(tagClientFriendInfo)*MAX_FRIEND_TRANSFER);

  004d8	68 39 03 00 00	 push	 825			; 00000339H
  004dd	6a 00		 push	 0
  004df	8d 85 52 f9 ff
	ff		 lea	 eax, DWORD PTR _UserFriendInfo$3[ebp+2]
  004e5	50		 push	 eax
  004e6	e8 00 00 00 00	 call	 _memset
  004eb	83 c4 0c	 add	 esp, 12			; 0000000cH

; 2602 : 
; 2603 : 				//构造结构
; 2604 : 				UserFriendInfo.wFriendCount = 1;

  004ee	b8 01 00 00 00	 mov	 eax, 1
  004f3	66 89 85 50 f9
	ff ff		 mov	 WORD PTR _UserFriendInfo$3[ebp], ax

; 2605 : 
; 2606 : 				//基本信息
; 2607 : 				UserFriendInfo.FriendInfo[0].dwUserID=pServerLocalInfo->GetUserID();

  004fa	8b 85 98 fc ff
	ff		 mov	 eax, DWORD PTR _pServerLocalInfo$6[ebp]
  00500	8b 10		 mov	 edx, DWORD PTR [eax]
  00502	8b 8d 98 fc ff
	ff		 mov	 ecx, DWORD PTR _pServerLocalInfo$6[ebp]
  00508	8b 42 04	 mov	 eax, DWORD PTR [edx+4]
  0050b	ff d0		 call	 eax
  0050d	b9 a5 00 00 00	 mov	 ecx, 165		; 000000a5H
  00512	6b d1 00	 imul	 edx, ecx, 0
  00515	89 84 15 52 f9
	ff ff		 mov	 DWORD PTR _UserFriendInfo$3[ebp+edx+2], eax

; 2608 : 				UserFriendInfo.FriendInfo[0].dwGameID= pServerLocalInfo->GetGameID();

  0051c	8b 85 98 fc ff
	ff		 mov	 eax, DWORD PTR _pServerLocalInfo$6[ebp]
  00522	8b 10		 mov	 edx, DWORD PTR [eax]
  00524	8b 8d 98 fc ff
	ff		 mov	 ecx, DWORD PTR _pServerLocalInfo$6[ebp]
  0052a	8b 42 30	 mov	 eax, DWORD PTR [edx+48]
  0052d	ff d0		 call	 eax
  0052f	b9 a5 00 00 00	 mov	 ecx, 165		; 000000a5H
  00534	6b d1 00	 imul	 edx, ecx, 0
  00537	89 84 15 56 f9
	ff ff		 mov	 DWORD PTR _UserFriendInfo$3[ebp+edx+6], eax

; 2609 : 				UserFriendInfo.FriendInfo[0].cbGroupID =pAddFriend->cbRequestGroupID;

  0053e	b8 a5 00 00 00	 mov	 eax, 165		; 000000a5H
  00543	6b c8 00	 imul	 ecx, eax, 0
  00546	8b 55 f4	 mov	 edx, DWORD PTR _pAddFriend$[ebp]
  00549	8a 42 0d	 mov	 al, BYTE PTR [edx+13]
  0054c	88 84 0d cc f9
	ff ff		 mov	 BYTE PTR _UserFriendInfo$3[ebp+ecx+124], al

; 2610 : 				UserFriendInfo.FriendInfo[0].dwFaceID =pServerLocalInfo->GetUserInfo()->dwFaceID;

  00553	8b 85 98 fc ff
	ff		 mov	 eax, DWORD PTR _pServerLocalInfo$6[ebp]
  00559	8b 10		 mov	 edx, DWORD PTR [eax]
  0055b	8b 8d 98 fc ff
	ff		 mov	 ecx, DWORD PTR _pServerLocalInfo$6[ebp]
  00561	8b 42 28	 mov	 eax, DWORD PTR [edx+40]
  00564	ff d0		 call	 eax
  00566	b9 a5 00 00 00	 mov	 ecx, 165		; 000000a5H
  0056b	6b d1 00	 imul	 edx, ecx, 0
  0056e	8b 40 49	 mov	 eax, DWORD PTR [eax+73]
  00571	89 84 15 7a f9
	ff ff		 mov	 DWORD PTR _UserFriendInfo$3[ebp+edx+42], eax

; 2611 : 				UserFriendInfo.FriendInfo[0].dwCustomID =pServerLocalInfo->GetUserInfo()->dwCustomID;

  00578	8b 85 98 fc ff
	ff		 mov	 eax, DWORD PTR _pServerLocalInfo$6[ebp]
  0057e	8b 10		 mov	 edx, DWORD PTR [eax]
  00580	8b 8d 98 fc ff
	ff		 mov	 ecx, DWORD PTR _pServerLocalInfo$6[ebp]
  00586	8b 42 28	 mov	 eax, DWORD PTR [edx+40]
  00589	ff d0		 call	 eax
  0058b	b9 a5 00 00 00	 mov	 ecx, 165		; 000000a5H
  00590	6b d1 00	 imul	 edx, ecx, 0
  00593	8b 40 4d	 mov	 eax, DWORD PTR [eax+77]
  00596	89 84 15 7e f9
	ff ff		 mov	 DWORD PTR _UserFriendInfo$3[ebp+edx+46], eax

; 2612 : 				UserFriendInfo.FriendInfo[0].cbGender =pServerLocalInfo->GetUserInfo()->cbGender;

  0059d	8b 85 98 fc ff
	ff		 mov	 eax, DWORD PTR _pServerLocalInfo$6[ebp]
  005a3	8b 10		 mov	 edx, DWORD PTR [eax]
  005a5	8b 8d 98 fc ff
	ff		 mov	 ecx, DWORD PTR _pServerLocalInfo$6[ebp]
  005ab	8b 42 28	 mov	 eax, DWORD PTR [edx+40]
  005ae	ff d0		 call	 eax
  005b0	b9 a5 00 00 00	 mov	 ecx, 165		; 000000a5H
  005b5	6b d1 00	 imul	 edx, ecx, 0
  005b8	8a 40 51	 mov	 al, BYTE PTR [eax+81]
  005bb	88 84 15 82 f9
	ff ff		 mov	 BYTE PTR _UserFriendInfo$3[ebp+edx+50], al

; 2613 : 				UserFriendInfo.FriendInfo[0].wMemberOrder =pServerLocalInfo->GetUserInfo()->wMemberOrder;

  005c2	8b 85 98 fc ff
	ff		 mov	 eax, DWORD PTR _pServerLocalInfo$6[ebp]
  005c8	8b 10		 mov	 edx, DWORD PTR [eax]
  005ca	8b 8d 98 fc ff
	ff		 mov	 ecx, DWORD PTR _pServerLocalInfo$6[ebp]
  005d0	8b 42 28	 mov	 eax, DWORD PTR [edx+40]
  005d3	ff d0		 call	 eax
  005d5	b9 a5 00 00 00	 mov	 ecx, 165		; 000000a5H
  005da	6b d1 00	 imul	 edx, ecx, 0
  005dd	66 8b 40 52	 mov	 ax, WORD PTR [eax+82]
  005e1	66 89 84 15 83
	f9 ff ff	 mov	 WORD PTR _UserFriendInfo$3[ebp+edx+51], ax

; 2614 : 				UserFriendInfo.FriendInfo[0].wGrowLevel =pServerLocalInfo->GetUserInfo()->wGrowLevel;

  005e9	8b 85 98 fc ff
	ff		 mov	 eax, DWORD PTR _pServerLocalInfo$6[ebp]
  005ef	8b 10		 mov	 edx, DWORD PTR [eax]
  005f1	8b 8d 98 fc ff
	ff		 mov	 ecx, DWORD PTR _pServerLocalInfo$6[ebp]
  005f7	8b 42 28	 mov	 eax, DWORD PTR [edx+40]
  005fa	ff d0		 call	 eax
  005fc	b9 a5 00 00 00	 mov	 ecx, 165		; 000000a5H
  00601	6b d1 00	 imul	 edx, ecx, 0
  00604	66 8b 40 54	 mov	 ax, WORD PTR [eax+84]
  00608	66 89 84 15 85
	f9 ff ff	 mov	 WORD PTR _UserFriendInfo$3[ebp+edx+53], ax

; 2615 : 				lstrcpyn(UserFriendInfo.FriendInfo[0].szNickName,pServerLocalInfo->GetNickName(),CountArray(UserFriendInfo.FriendInfo[0].szNickName));

  00610	6a 20		 push	 32			; 00000020H
  00612	8b 85 98 fc ff
	ff		 mov	 eax, DWORD PTR _pServerLocalInfo$6[ebp]
  00618	8b 10		 mov	 edx, DWORD PTR [eax]
  0061a	8b 8d 98 fc ff
	ff		 mov	 ecx, DWORD PTR _pServerLocalInfo$6[ebp]
  00620	8b 42 34	 mov	 eax, DWORD PTR [edx+52]
  00623	ff d0		 call	 eax
  00625	50		 push	 eax
  00626	b9 a5 00 00 00	 mov	 ecx, 165		; 000000a5H
  0062b	6b d1 00	 imul	 edx, ecx, 0
  0062e	8d 84 15 5a f9
	ff ff		 lea	 eax, DWORD PTR _UserFriendInfo$3[ebp+edx+10]
  00635	50		 push	 eax
  00636	ff 15 00 00 00
	00		 call	 DWORD PTR __imp__lstrcpynA@12

; 2616 : 				lstrcpyn(UserFriendInfo.FriendInfo[0].szUnderWrite,pServerLocalInfo->GetUserInfo()->szUnderWrite,CountArray(UserFriendInfo.FriendInfo[0].szUnderWrite));

  0063c	6a 20		 push	 32			; 00000020H
  0063e	8b 85 98 fc ff
	ff		 mov	 eax, DWORD PTR _pServerLocalInfo$6[ebp]
  00644	8b 10		 mov	 edx, DWORD PTR [eax]
  00646	8b 8d 98 fc ff
	ff		 mov	 ecx, DWORD PTR _pServerLocalInfo$6[ebp]
  0064c	8b 42 28	 mov	 eax, DWORD PTR [edx+40]
  0064f	ff d0		 call	 eax
  00651	83 c0 56	 add	 eax, 86			; 00000056H
  00654	50		 push	 eax
  00655	b9 a5 00 00 00	 mov	 ecx, 165		; 000000a5H
  0065a	6b d1 00	 imul	 edx, ecx, 0
  0065d	8d 84 15 87 f9
	ff ff		 lea	 eax, DWORD PTR _UserFriendInfo$3[ebp+edx+55]
  00664	50		 push	 eax
  00665	ff 15 00 00 00
	00		 call	 DWORD PTR __imp__lstrcpynA@12

; 2617 : 				lstrcpyn(UserFriendInfo.FriendInfo[0].szCompellation,pServerLocalInfo->GetUserInfo()->szCompellation,CountArray(UserFriendInfo.FriendInfo[0].szCompellation));

  0066b	6a 10		 push	 16			; 00000010H
  0066d	8b 85 98 fc ff
	ff		 mov	 eax, DWORD PTR _pServerLocalInfo$6[ebp]
  00673	8b 10		 mov	 edx, DWORD PTR [eax]
  00675	8b 8d 98 fc ff
	ff		 mov	 ecx, DWORD PTR _pServerLocalInfo$6[ebp]
  0067b	8b 42 28	 mov	 eax, DWORD PTR [edx+40]
  0067e	ff d0		 call	 eax
  00680	83 c0 76	 add	 eax, 118		; 00000076H
  00683	50		 push	 eax
  00684	b9 a5 00 00 00	 mov	 ecx, 165		; 000000a5H
  00689	6b d1 00	 imul	 edx, ecx, 0
  0068c	8d 84 15 a7 f9
	ff ff		 lea	 eax, DWORD PTR _UserFriendInfo$3[ebp+edx+87]
  00693	50		 push	 eax
  00694	ff 15 00 00 00
	00		 call	 DWORD PTR __imp__lstrcpynA@12

; 2618 : 				lstrcpyn(UserFriendInfo.FriendInfo[0].szPhoneMode,pServerLocalInfo->GetUserInfo()->szPhoneMode,CountArray(UserFriendInfo.FriendInfo[0].szPhoneMode));

  0069a	6a 15		 push	 21			; 00000015H
  0069c	8b 85 98 fc ff
	ff		 mov	 eax, DWORD PTR _pServerLocalInfo$6[ebp]
  006a2	8b 10		 mov	 edx, DWORD PTR [eax]
  006a4	8b 8d 98 fc ff
	ff		 mov	 ecx, DWORD PTR _pServerLocalInfo$6[ebp]
  006aa	8b 42 28	 mov	 eax, DWORD PTR [edx+40]
  006ad	ff d0		 call	 eax
  006af	05 96 01 00 00	 add	 eax, 406		; 00000196H
  006b4	50		 push	 eax
  006b5	b9 a5 00 00 00	 mov	 ecx, 165		; 000000a5H
  006ba	6b d1 00	 imul	 edx, ecx, 0
  006bd	8d 84 15 b7 f9
	ff ff		 lea	 eax, DWORD PTR _UserFriendInfo$3[ebp+edx+103]
  006c4	50		 push	 eax
  006c5	ff 15 00 00 00
	00		 call	 DWORD PTR __imp__lstrcpynA@12

; 2619 : 
; 2620 : 				//在线信息
; 2621 : 				UserFriendInfo.FriendInfo[0].cbMainStatus=pServerLocalInfo->GetMainStatus();

  006cb	8b 85 98 fc ff
	ff		 mov	 eax, DWORD PTR _pServerLocalInfo$6[ebp]
  006d1	8b 10		 mov	 edx, DWORD PTR [eax]
  006d3	8b 8d 98 fc ff
	ff		 mov	 ecx, DWORD PTR _pServerLocalInfo$6[ebp]
  006d9	8b 42 10	 mov	 eax, DWORD PTR [edx+16]
  006dc	ff d0		 call	 eax
  006de	b9 a5 00 00 00	 mov	 ecx, 165		; 000000a5H
  006e3	6b d1 00	 imul	 edx, ecx, 0
  006e6	88 84 15 cd f9
	ff ff		 mov	 BYTE PTR _UserFriendInfo$3[ebp+edx+125], al

; 2622 : 				UserFriendInfo.FriendInfo[0].cbGameStatus=pServerLocalInfo->GetGameStatus();

  006ed	8b 85 98 fc ff
	ff		 mov	 eax, DWORD PTR _pServerLocalInfo$6[ebp]
  006f3	8b 10		 mov	 edx, DWORD PTR [eax]
  006f5	8b 8d 98 fc ff
	ff		 mov	 ecx, DWORD PTR _pServerLocalInfo$6[ebp]
  006fb	8b 42 14	 mov	 eax, DWORD PTR [edx+20]
  006fe	ff d0		 call	 eax
  00700	b9 a5 00 00 00	 mov	 ecx, 165		; 000000a5H
  00705	6b d1 00	 imul	 edx, ecx, 0
  00708	88 84 15 ce f9
	ff ff		 mov	 BYTE PTR _UserFriendInfo$3[ebp+edx+126], al

; 2623 : 				UserFriendInfo.FriendInfo[0].wServerID=pServerLocalInfo->GetServerID();

  0070f	8b 85 98 fc ff
	ff		 mov	 eax, DWORD PTR _pServerLocalInfo$6[ebp]
  00715	8b 10		 mov	 edx, DWORD PTR [eax]
  00717	8b 8d 98 fc ff
	ff		 mov	 ecx, DWORD PTR _pServerLocalInfo$6[ebp]
  0071d	8b 42 18	 mov	 eax, DWORD PTR [edx+24]
  00720	ff d0		 call	 eax
  00722	b9 a5 00 00 00	 mov	 ecx, 165		; 000000a5H
  00727	6b d1 00	 imul	 edx, ecx, 0
  0072a	66 89 84 15 d1
	f9 ff ff	 mov	 WORD PTR _UserFriendInfo$3[ebp+edx+129], ax

; 2624 : 				UserFriendInfo.FriendInfo[0].wTableID = pServerLocalInfo->GetTableID();

  00732	8b 85 98 fc ff
	ff		 mov	 eax, DWORD PTR _pServerLocalInfo$6[ebp]
  00738	8b 10		 mov	 edx, DWORD PTR [eax]
  0073a	8b 8d 98 fc ff
	ff		 mov	 ecx, DWORD PTR _pServerLocalInfo$6[ebp]
  00740	8b 42 1c	 mov	 eax, DWORD PTR [edx+28]
  00743	ff d0		 call	 eax
  00745	b9 a5 00 00 00	 mov	 ecx, 165		; 000000a5H
  0074a	6b d1 00	 imul	 edx, ecx, 0
  0074d	66 89 84 15 d3
	f9 ff ff	 mov	 WORD PTR _UserFriendInfo$3[ebp+edx+131], ax

; 2625 : 
; 2626 : 				//发送数据
; 2627 : 				WORD wSize = sizeof(UserFriendInfo)-sizeof(UserFriendInfo.FriendInfo)+sizeof(tagClientFriendInfo)*UserFriendInfo.wFriendCount;

  00755	0f b7 85 50 f9
	ff ff		 movzx	 eax, WORD PTR _UserFriendInfo$3[ebp]
  0075c	69 c8 a5 00 00
	00		 imul	 ecx, eax, 165
  00762	83 c1 02	 add	 ecx, 2
  00765	66 89 8d 4c f9
	ff ff		 mov	 WORD PTR _wSize$2[ebp], cx

; 2628 : 				SendData(((CLocalUserItem *)pRequestUserItem)->GetSocketID(),MDM_GC_LOGON,SUB_S_USER_FRIEND,&UserFriendInfo,wSize);

  0076c	0f b7 85 4c f9
	ff ff		 movzx	 eax, WORD PTR _wSize$2[ebp]
  00773	50		 push	 eax
  00774	8d 8d 50 f9 ff
	ff		 lea	 ecx, DWORD PTR _UserFriendInfo$3[ebp]
  0077a	51		 push	 ecx
  0077b	68 2f 01 00 00	 push	 303			; 0000012fH
  00780	6a 01		 push	 1
  00782	8b 55 ec	 mov	 edx, DWORD PTR _pRequestUserItem$[ebp]
  00785	8b 02		 mov	 eax, DWORD PTR [edx]
  00787	8b 4d ec	 mov	 ecx, DWORD PTR _pRequestUserItem$[ebp]
  0078a	8b 50 38	 mov	 edx, DWORD PTR [eax+56]
  0078d	ff d2		 call	 edx
  0078f	50		 push	 eax
  00790	8b 4d f8	 mov	 ecx, DWORD PTR _this$[ebp]
  00793	e8 00 00 00 00	 call	 ?SendData@CAttemperEngineSink@@IAE_NKGGPAXG@Z ; CAttemperEngineSink::SendData
$LN13@OnDBUserAd:

; 2629 : 
; 2630 : 			}	
; 2631 : 
; 2632 : 			//消息提醒
; 2633 : 			CMD_GC_RespondNotify RespondNotify;
; 2634 : 			_sntprintf(RespondNotify.szNotifyContent,CountArray(RespondNotify.szNotifyContent),TEXT("%s 同意了您的好友申请！"),pServerLocalInfo->GetNickName());

  00798	8b 85 98 fc ff
	ff		 mov	 eax, DWORD PTR _pServerLocalInfo$6[ebp]
  0079e	8b 10		 mov	 edx, DWORD PTR [eax]
  007a0	8b 8d 98 fc ff
	ff		 mov	 ecx, DWORD PTR _pServerLocalInfo$6[ebp]
  007a6	8b 42 34	 mov	 eax, DWORD PTR [edx+52]
  007a9	ff d0		 call	 eax
  007ab	50		 push	 eax
  007ac	68 00 00 00 00	 push	 OFFSET ??_C@_0BI@IHOMHEOO@?$CFs?5?M?$KM?R?b?A?K?D?z?$LF?D?$LK?C?S?Q?I?j?G?k?$KD?$KB@
  007b1	68 80 00 00 00	 push	 128			; 00000080H
  007b6	8d 8d cc f8 ff
	ff		 lea	 ecx, DWORD PTR _RespondNotify$1[ebp]
  007bc	51		 push	 ecx
  007bd	e8 00 00 00 00	 call	 __snprintf
  007c2	83 c4 10	 add	 esp, 16			; 00000010H

; 2635 : 
; 2636 : 			if(pRequestUserItem->GetMainStatus()==FRIEND_US_OFFLINE)

  007c5	8b 45 ec	 mov	 eax, DWORD PTR _pRequestUserItem$[ebp]
  007c8	8b 10		 mov	 edx, DWORD PTR [eax]
  007ca	8b 4d ec	 mov	 ecx, DWORD PTR _pRequestUserItem$[ebp]
  007cd	8b 42 10	 mov	 eax, DWORD PTR [edx+16]
  007d0	ff d0		 call	 eax
  007d2	0f b6 c8	 movzx	 ecx, al
  007d5	85 c9		 test	 ecx, ecx
  007d7	75 2d		 jne	 SHORT $LN14@OnDBUserAd

; 2637 : 			{
; 2638 : 				SaveOfflineMessage(pRequestUserItem->GetUserID(),SUB_GC_RESPOND_NOTIFY,&RespondNotify,sizeof(RespondNotify),dwContextID);

  007d9	8b 45 08	 mov	 eax, DWORD PTR _dwContextID$[ebp]
  007dc	50		 push	 eax
  007dd	68 80 00 00 00	 push	 128			; 00000080H
  007e2	8d 8d cc f8 ff
	ff		 lea	 ecx, DWORD PTR _RespondNotify$1[ebp]
  007e8	51		 push	 ecx
  007e9	68 ca 00 00 00	 push	 202			; 000000caH
  007ee	8b 55 ec	 mov	 edx, DWORD PTR _pRequestUserItem$[ebp]
  007f1	8b 02		 mov	 eax, DWORD PTR [edx]
  007f3	8b 4d ec	 mov	 ecx, DWORD PTR _pRequestUserItem$[ebp]
  007f6	8b 50 04	 mov	 edx, DWORD PTR [eax+4]
  007f9	ff d2		 call	 edx
  007fb	50		 push	 eax
  007fc	8b 4d f8	 mov	 ecx, DWORD PTR _this$[ebp]
  007ff	e8 00 00 00 00	 call	 ?SaveOfflineMessage@CAttemperEngineSink@@IAE_NKGPAXGK@Z ; CAttemperEngineSink::SaveOfflineMessage

; 2639 : 			}
; 2640 : 			else

  00804	eb 29		 jmp	 SHORT $LN9@OnDBUserAd
$LN14@OnDBUserAd:

; 2641 : 			{
; 2642 : 				//发送数据
; 2643 : 				SendData(((CLocalUserItem *)pRequestUserItem)->GetSocketID(),MDM_GC_USER,SUB_GC_RESPOND_NOTIFY,&RespondNotify,sizeof(RespondNotify));

  00806	68 80 00 00 00	 push	 128			; 00000080H
  0080b	8d 85 cc f8 ff
	ff		 lea	 eax, DWORD PTR _RespondNotify$1[ebp]
  00811	50		 push	 eax
  00812	68 ca 00 00 00	 push	 202			; 000000caH
  00817	6a 03		 push	 3
  00819	8b 4d ec	 mov	 ecx, DWORD PTR _pRequestUserItem$[ebp]
  0081c	8b 11		 mov	 edx, DWORD PTR [ecx]
  0081e	8b 4d ec	 mov	 ecx, DWORD PTR _pRequestUserItem$[ebp]
  00821	8b 42 38	 mov	 eax, DWORD PTR [edx+56]
  00824	ff d0		 call	 eax
  00826	50		 push	 eax
  00827	8b 4d f8	 mov	 ecx, DWORD PTR _this$[ebp]
  0082a	e8 00 00 00 00	 call	 ?SendData@CAttemperEngineSink@@IAE_NKGGPAXG@Z ; CAttemperEngineSink::SendData
$LN9@OnDBUserAd:

; 2644 : 			}
; 2645 : 		}		
; 2646 : 	}
; 2647 : 
; 2648 : 	return true;

  0082f	b0 01		 mov	 al, 1
$LN1@OnDBUserAd:

; 2649 : }

  00831	5f		 pop	 edi
  00832	5e		 pop	 esi
  00833	5b		 pop	 ebx
  00834	8b 4d fc	 mov	 ecx, DWORD PTR __$ArrayPad$[ebp]
  00837	33 cd		 xor	 ecx, ebp
  00839	e8 00 00 00 00	 call	 @__security_check_cookie@4
  0083e	8b e5		 mov	 esp, ebp
  00840	5d		 pop	 ebp
  00841	c2 0c 00	 ret	 12			; 0000000cH
?OnDBUserAddFriend@CAttemperEngineSink@@IAE_NKPAXG@Z ENDP ; CAttemperEngineSink::OnDBUserAddFriend
_TEXT	ENDS
; Function compile flags: /Odtp /ZI
; File g:\网狐\happygamewh\服务端\系统模块\服务器组件\聊天服务器\attemperenginesink.cpp
;	COMDAT ?OnDBLoadDeleteFriend@CAttemperEngineSink@@IAE_NKPAXG@Z
_TEXT	SEGMENT
_DeleteFriendNotify$ = -36				; size = 4
_DeleteFriendNotify$1 = -32				; size = 4
_pFriendUserItem$2 = -28				; size = 4
_pDestFriendGroup$3 = -24				; size = 4
_pUserFriendGroup$4 = -20				; size = 4
_pFriendGroup$5 = -16					; size = 4
_pServerUserItem$ = -12					; size = 4
_pDeleteFriend$ = -8					; size = 4
_this$ = -4						; size = 4
_dwContextID$ = 8					; size = 4
_pData$ = 12						; size = 4
_wDataSize$ = 16					; size = 2
?OnDBLoadDeleteFriend@CAttemperEngineSink@@IAE_NKPAXG@Z PROC ; CAttemperEngineSink::OnDBLoadDeleteFriend, COMDAT
; _this$ = ecx

; 2342 : {

  00000	55		 push	 ebp
  00001	8b ec		 mov	 ebp, esp
  00003	83 ec 64	 sub	 esp, 100		; 00000064H
  00006	53		 push	 ebx
  00007	56		 push	 esi
  00008	57		 push	 edi
  00009	89 4d fc	 mov	 DWORD PTR _this$[ebp], ecx

; 2343 : 	//参数校验
; 2344 : 	ASSERT(wDataSize<=sizeof(DBO_GR_DeleteFriend));

  0000c	0f b7 45 10	 movzx	 eax, WORD PTR _wDataSize$[ebp]
  00010	83 f8 10	 cmp	 eax, 16			; 00000010H
  00013	76 19		 jbe	 SHORT $LN10@OnDBLoadDe
  00015	8b 0d 00 00 00
	00		 mov	 ecx, DWORD PTR ?__LINE__Var@?0??OnDBLoadDeleteFriend@CAttemperEngineSink@@IAE_NKPAXG@Z@4JA
  0001b	83 c1 02	 add	 ecx, 2
  0001e	51		 push	 ecx
  0001f	68 00 00 00 00	 push	 OFFSET ?THIS_FILE@@3PADA
  00024	e8 00 00 00 00	 call	 ?AfxAssertFailedLine@@YGHPBDH@Z ; AfxAssertFailedLine
  00029	85 c0		 test	 eax, eax
  0002b	74 01		 je	 SHORT $LN10@OnDBLoadDe
  0002d	cc		 int	 3
$LN10@OnDBLoadDe:

; 2345 : 	if(wDataSize>sizeof(DBO_GR_DeleteFriend)) return false;

  0002e	0f b7 45 10	 movzx	 eax, WORD PTR _wDataSize$[ebp]
  00032	83 f8 10	 cmp	 eax, 16			; 00000010H
  00035	76 07		 jbe	 SHORT $LN2@OnDBLoadDe
  00037	32 c0		 xor	 al, al
  00039	e9 88 01 00 00	 jmp	 $LN1@OnDBLoadDe
$LN2@OnDBLoadDe:

; 2346 : 
; 2347 : 	//提取数据
; 2348 : 	DBO_GR_DeleteFriend * pDeleteFriend = (DBO_GR_DeleteFriend *)pData;

  0003e	8b 45 0c	 mov	 eax, DWORD PTR _pData$[ebp]
  00041	89 45 f8	 mov	 DWORD PTR _pDeleteFriend$[ebp], eax

; 2349 : 	ASSERT(pDeleteFriend);

  00044	83 7d f8 00	 cmp	 DWORD PTR _pDeleteFriend$[ebp], 0
  00048	75 18		 jne	 SHORT $LN11@OnDBLoadDe
  0004a	a1 00 00 00 00	 mov	 eax, DWORD PTR ?__LINE__Var@?0??OnDBLoadDeleteFriend@CAttemperEngineSink@@IAE_NKPAXG@Z@4JA
  0004f	83 c0 07	 add	 eax, 7
  00052	50		 push	 eax
  00053	68 00 00 00 00	 push	 OFFSET ?THIS_FILE@@3PADA
  00058	e8 00 00 00 00	 call	 ?AfxAssertFailedLine@@YGHPBDH@Z ; AfxAssertFailedLine
  0005d	85 c0		 test	 eax, eax
  0005f	74 01		 je	 SHORT $LN11@OnDBLoadDe
  00061	cc		 int	 3
$LN11@OnDBLoadDe:

; 2350 : 
; 2351 : 	//获取用户
; 2352 : 	CServerUserItem * pServerUserItem = m_ServerUserManager.SearchUserItem(pDeleteFriend->dwUserID);

  00062	8b 45 f8	 mov	 eax, DWORD PTR _pDeleteFriend$[ebp]
  00065	8b 48 04	 mov	 ecx, DWORD PTR [eax+4]
  00068	51		 push	 ecx
  00069	8b 4d fc	 mov	 ecx, DWORD PTR _this$[ebp]
  0006c	83 c1 1c	 add	 ecx, 28			; 0000001cH
  0006f	8b 55 fc	 mov	 edx, DWORD PTR _this$[ebp]
  00072	8b 42 1c	 mov	 eax, DWORD PTR [edx+28]
  00075	8b 50 08	 mov	 edx, DWORD PTR [eax+8]
  00078	ff d2		 call	 edx
  0007a	89 45 f4	 mov	 DWORD PTR _pServerUserItem$[ebp], eax

; 2353 : 	if(pServerUserItem!=NULL)

  0007d	83 7d f4 00	 cmp	 DWORD PTR _pServerUserItem$[ebp], 0
  00081	0f 84 1b 01 00
	00		 je	 $LN3@OnDBLoadDe

; 2354 : 	{
; 2355 : 		CUserFriendGroup * pFriendGroup = m_FriendGroupManager.SearchGroupItem(pDeleteFriend->dwUserID);

  00087	8b 45 f8	 mov	 eax, DWORD PTR _pDeleteFriend$[ebp]
  0008a	8b 48 04	 mov	 ecx, DWORD PTR [eax+4]
  0008d	51		 push	 ecx
  0008e	8b 4d fc	 mov	 ecx, DWORD PTR _this$[ebp]
  00091	83 c1 68	 add	 ecx, 104		; 00000068H
  00094	8b 55 fc	 mov	 edx, DWORD PTR _this$[ebp]
  00097	8b 42 68	 mov	 eax, DWORD PTR [edx+104]
  0009a	8b 50 08	 mov	 edx, DWORD PTR [eax+8]
  0009d	ff d2		 call	 edx
  0009f	89 45 f0	 mov	 DWORD PTR _pFriendGroup$5[ebp], eax

; 2356 : 		if(pFriendGroup!=NULL) 

  000a2	83 7d f0 00	 cmp	 DWORD PTR _pFriendGroup$5[ebp], 0
  000a6	74 1e		 je	 SHORT $LN4@OnDBLoadDe

; 2357 : 		{
; 2358 : 			//移除好友
; 2359 : 			pFriendGroup->RemoveFriendInfo(pDeleteFriend->dwFriendUserID);

  000a8	8b 45 f8	 mov	 eax, DWORD PTR _pDeleteFriend$[ebp]
  000ab	8b 48 08	 mov	 ecx, DWORD PTR [eax+8]
  000ae	51		 push	 ecx
  000af	8b 4d f0	 mov	 ecx, DWORD PTR _pFriendGroup$5[ebp]
  000b2	e8 00 00 00 00	 call	 ?RemoveFriendInfo@CUserFriendGroup@@QAE_NK@Z ; CUserFriendGroup::RemoveFriendInfo

; 2360 : 			pFriendGroup->RemoveFriendInfo(pDeleteFriend->dwUserID);

  000b7	8b 45 f8	 mov	 eax, DWORD PTR _pDeleteFriend$[ebp]
  000ba	8b 48 04	 mov	 ecx, DWORD PTR [eax+4]
  000bd	51		 push	 ecx
  000be	8b 4d f0	 mov	 ecx, DWORD PTR _pFriendGroup$5[ebp]
  000c1	e8 00 00 00 00	 call	 ?RemoveFriendInfo@CUserFriendGroup@@QAE_NK@Z ; CUserFriendGroup::RemoveFriendInfo
$LN4@OnDBLoadDe:

; 2361 : 
; 2362 : 		}
; 2363 : 
; 2364 : 		//获取好友
; 2365 : 		CUserFriendGroup * pUserFriendGroup = m_FriendGroupManager.SearchGroupItem(pDeleteFriend->dwUserID);

  000c6	8b 45 f8	 mov	 eax, DWORD PTR _pDeleteFriend$[ebp]
  000c9	8b 48 04	 mov	 ecx, DWORD PTR [eax+4]
  000cc	51		 push	 ecx
  000cd	8b 4d fc	 mov	 ecx, DWORD PTR _this$[ebp]
  000d0	83 c1 68	 add	 ecx, 104		; 00000068H
  000d3	8b 55 fc	 mov	 edx, DWORD PTR _this$[ebp]
  000d6	8b 42 68	 mov	 eax, DWORD PTR [edx+104]
  000d9	8b 50 08	 mov	 edx, DWORD PTR [eax+8]
  000dc	ff d2		 call	 edx
  000de	89 45 ec	 mov	 DWORD PTR _pUserFriendGroup$4[ebp], eax

; 2366 : 		if(pUserFriendGroup==NULL) 

  000e1	83 7d ec 00	 cmp	 DWORD PTR _pUserFriendGroup$4[ebp], 0
  000e5	75 10		 jne	 SHORT $LN5@OnDBLoadDe

; 2367 : 		{
; 2368 : 			pUserFriendGroup = m_FriendGroupManager.ActiveFriendGroup(MIN_FRIEND_CONTENT);

  000e7	6a 14		 push	 20			; 00000014H
  000e9	8b 4d fc	 mov	 ecx, DWORD PTR _this$[ebp]
  000ec	83 c1 68	 add	 ecx, 104		; 00000068H
  000ef	e8 00 00 00 00	 call	 ?ActiveFriendGroup@CFriendGroupManager@@QAEPAVCUserFriendGroup@@G@Z ; CFriendGroupManager::ActiveFriendGroup
  000f4	89 45 ec	 mov	 DWORD PTR _pUserFriendGroup$4[ebp], eax
$LN5@OnDBLoadDe:

; 2369 : 		}
; 2370 : 
; 2371 : 		if(pUserFriendGroup!=NULL)

  000f7	83 7d ec 00	 cmp	 DWORD PTR _pUserFriendGroup$4[ebp], 0
  000fb	0f 84 a1 00 00
	00		 je	 $LN3@OnDBLoadDe

; 2372 : 		{
; 2373 : 			//获取好友分组
; 2374 : 			CUserFriendGroup * pDestFriendGroup = m_FriendGroupManager.SearchGroupItem(pDeleteFriend->dwFriendUserID);

  00101	8b 45 f8	 mov	 eax, DWORD PTR _pDeleteFriend$[ebp]
  00104	8b 48 08	 mov	 ecx, DWORD PTR [eax+8]
  00107	51		 push	 ecx
  00108	8b 4d fc	 mov	 ecx, DWORD PTR _this$[ebp]
  0010b	83 c1 68	 add	 ecx, 104		; 00000068H
  0010e	8b 55 fc	 mov	 edx, DWORD PTR _this$[ebp]
  00111	8b 42 68	 mov	 eax, DWORD PTR [edx+104]
  00114	8b 50 08	 mov	 edx, DWORD PTR [eax+8]
  00117	ff d2		 call	 edx
  00119	89 45 e8	 mov	 DWORD PTR _pDestFriendGroup$3[ebp], eax

; 2375 : 			if(pDestFriendGroup!=NULL) 

  0011c	83 7d e8 00	 cmp	 DWORD PTR _pDestFriendGroup$3[ebp], 0
  00120	74 1e		 je	 SHORT $LN7@OnDBLoadDe

; 2376 : 			{
; 2377 : 				//移除好友
; 2378 : 				pUserFriendGroup->RemoveFriendInfo(pDeleteFriend->dwFriendUserID);

  00122	8b 45 f8	 mov	 eax, DWORD PTR _pDeleteFriend$[ebp]
  00125	8b 48 08	 mov	 ecx, DWORD PTR [eax+8]
  00128	51		 push	 ecx
  00129	8b 4d ec	 mov	 ecx, DWORD PTR _pUserFriendGroup$4[ebp]
  0012c	e8 00 00 00 00	 call	 ?RemoveFriendInfo@CUserFriendGroup@@QAE_NK@Z ; CUserFriendGroup::RemoveFriendInfo

; 2379 : 				pDestFriendGroup->RemoveFriendInfo(pDeleteFriend->dwUserID);

  00131	8b 45 f8	 mov	 eax, DWORD PTR _pDeleteFriend$[ebp]
  00134	8b 48 04	 mov	 ecx, DWORD PTR [eax+4]
  00137	51		 push	 ecx
  00138	8b 4d e8	 mov	 ecx, DWORD PTR _pDestFriendGroup$3[ebp]
  0013b	e8 00 00 00 00	 call	 ?RemoveFriendInfo@CUserFriendGroup@@QAE_NK@Z ; CUserFriendGroup::RemoveFriendInfo
$LN7@OnDBLoadDe:

; 2380 : 
; 2381 : 			}
; 2382 : 
; 2383 : 
; 2384 : 
; 2385 : 			CServerUserItem * pFriendUserItem = m_ServerUserManager.SearchUserItem(pDeleteFriend->dwFriendUserID);

  00140	8b 45 f8	 mov	 eax, DWORD PTR _pDeleteFriend$[ebp]
  00143	8b 48 08	 mov	 ecx, DWORD PTR [eax+8]
  00146	51		 push	 ecx
  00147	8b 4d fc	 mov	 ecx, DWORD PTR _this$[ebp]
  0014a	83 c1 1c	 add	 ecx, 28			; 0000001cH
  0014d	8b 55 fc	 mov	 edx, DWORD PTR _this$[ebp]
  00150	8b 42 1c	 mov	 eax, DWORD PTR [edx+28]
  00153	8b 50 08	 mov	 edx, DWORD PTR [eax+8]
  00156	ff d2		 call	 edx
  00158	89 45 e4	 mov	 DWORD PTR _pFriendUserItem$2[ebp], eax

; 2386 : 			if(pFriendUserItem!=NULL&&pFriendUserItem->GetMainStatus()==FRIEND_US_ONLINE)

  0015b	83 7d e4 00	 cmp	 DWORD PTR _pFriendUserItem$2[ebp], 0
  0015f	74 41		 je	 SHORT $LN3@OnDBLoadDe
  00161	8b 45 e4	 mov	 eax, DWORD PTR _pFriendUserItem$2[ebp]
  00164	8b 10		 mov	 edx, DWORD PTR [eax]
  00166	8b 4d e4	 mov	 ecx, DWORD PTR _pFriendUserItem$2[ebp]
  00169	8b 42 10	 mov	 eax, DWORD PTR [edx+16]
  0016c	ff d0		 call	 eax
  0016e	0f b6 c8	 movzx	 ecx, al
  00171	83 f9 01	 cmp	 ecx, 1
  00174	75 2c		 jne	 SHORT $LN3@OnDBLoadDe

; 2387 : 			{
; 2388 : 				//构造结构
; 2389 : 				CMD_GC_DeleteFriendNotify DeleteFriendNotify;
; 2390 : 				DeleteFriendNotify.dwFriendUserID=pDeleteFriend->dwUserID;

  00176	8b 45 f8	 mov	 eax, DWORD PTR _pDeleteFriend$[ebp]
  00179	8b 48 04	 mov	 ecx, DWORD PTR [eax+4]
  0017c	89 4d e0	 mov	 DWORD PTR _DeleteFriendNotify$1[ebp], ecx

; 2391 : 
; 2392 : 				//发送数据
; 2393 : 				SendData(((CLocalUserItem *)pFriendUserItem)->GetSocketID(),MDM_GC_USER,SUB_GC_DELETE_FRIEND_NOTIFY,&DeleteFriendNotify,sizeof(DeleteFriendNotify));

  0017f	6a 04		 push	 4
  00181	8d 45 e0	 lea	 eax, DWORD PTR _DeleteFriendNotify$1[ebp]
  00184	50		 push	 eax
  00185	68 ce 00 00 00	 push	 206			; 000000ceH
  0018a	6a 03		 push	 3
  0018c	8b 4d e4	 mov	 ecx, DWORD PTR _pFriendUserItem$2[ebp]
  0018f	8b 11		 mov	 edx, DWORD PTR [ecx]
  00191	8b 4d e4	 mov	 ecx, DWORD PTR _pFriendUserItem$2[ebp]
  00194	8b 42 38	 mov	 eax, DWORD PTR [edx+56]
  00197	ff d0		 call	 eax
  00199	50		 push	 eax
  0019a	8b 4d fc	 mov	 ecx, DWORD PTR _this$[ebp]
  0019d	e8 00 00 00 00	 call	 ?SendData@CAttemperEngineSink@@IAE_NKGGPAXG@Z ; CAttemperEngineSink::SendData
$LN3@OnDBLoadDe:

; 2394 : 			}
; 2395 : 					
; 2396 : 		}
; 2397 : 	}
; 2398 : 
; 2399 : 		//构造结构
; 2400 : 		CMD_GC_DeleteFriendNotify DeleteFriendNotify;
; 2401 : 		DeleteFriendNotify.dwFriendUserID=pDeleteFriend->dwFriendUserID;

  001a2	8b 45 f8	 mov	 eax, DWORD PTR _pDeleteFriend$[ebp]
  001a5	8b 48 08	 mov	 ecx, DWORD PTR [eax+8]
  001a8	89 4d dc	 mov	 DWORD PTR _DeleteFriendNotify$[ebp], ecx

; 2402 : 
; 2403 : 		//发送数据
; 2404 : 		SendData(dwContextID,MDM_GC_USER,SUB_GC_DELETE_FRIEND_NOTIFY,&DeleteFriendNotify,sizeof(DeleteFriendNotify));

  001ab	6a 04		 push	 4
  001ad	8d 45 dc	 lea	 eax, DWORD PTR _DeleteFriendNotify$[ebp]
  001b0	50		 push	 eax
  001b1	68 ce 00 00 00	 push	 206			; 000000ceH
  001b6	6a 03		 push	 3
  001b8	8b 4d 08	 mov	 ecx, DWORD PTR _dwContextID$[ebp]
  001bb	51		 push	 ecx
  001bc	8b 4d fc	 mov	 ecx, DWORD PTR _this$[ebp]
  001bf	e8 00 00 00 00	 call	 ?SendData@CAttemperEngineSink@@IAE_NKGGPAXG@Z ; CAttemperEngineSink::SendData

; 2405 : 
; 2406 : 		return true;

  001c4	b0 01		 mov	 al, 1
$LN1@OnDBLoadDe:

; 2407 : 
; 2408 : }

  001c6	5f		 pop	 edi
  001c7	5e		 pop	 esi
  001c8	5b		 pop	 ebx
  001c9	8b e5		 mov	 esp, ebp
  001cb	5d		 pop	 ebp
  001cc	c2 0c 00	 ret	 12			; 0000000cH
?OnDBLoadDeleteFriend@CAttemperEngineSink@@IAE_NKPAXG@Z ENDP ; CAttemperEngineSink::OnDBLoadDeleteFriend
_TEXT	ENDS
; Function compile flags: /Odtp /ZI
; File g:\网狐\happygamewh\服务端\系统模块\服务器组件\聊天服务器\attemperenginesink.cpp
;	COMDAT ?OnDBLoadUserOfflineMessage@CAttemperEngineSink@@IAE_NKPAXG@Z
_TEXT	SEGMENT
_cbChar2$1 = -2422					; size = 1
_cbChar1$2 = -2421					; size = 1
_i$3 = -2420						; size = 4
_nCustomRuleSize$4 = -2416				; size = 4
_cbOfflineData$ = -2412					; size = 2400
_pUserUserOfflineMessage$ = -12				; size = 4
_this$ = -8						; size = 4
__$ArrayPad$ = -4					; size = 4
_dwContextID$ = 8					; size = 4
_pData$ = 12						; size = 4
_wDataSize$ = 16					; size = 2
?OnDBLoadUserOfflineMessage@CAttemperEngineSink@@IAE_NKPAXG@Z PROC ; CAttemperEngineSink::OnDBLoadUserOfflineMessage, COMDAT
; _this$ = ecx

; 2295 : {

  00000	55		 push	 ebp
  00001	8b ec		 mov	 ebp, esp
  00003	81 ec b8 0a 00
	00		 sub	 esp, 2744		; 00000ab8H
  00009	a1 00 00 00 00	 mov	 eax, DWORD PTR ___security_cookie
  0000e	33 c5		 xor	 eax, ebp
  00010	89 45 fc	 mov	 DWORD PTR __$ArrayPad$[ebp], eax
  00013	53		 push	 ebx
  00014	56		 push	 esi
  00015	57		 push	 edi
  00016	89 4d f8	 mov	 DWORD PTR _this$[ebp], ecx

; 2296 : 	//参数校验
; 2297 : 	ASSERT(wDataSize<=sizeof(DBO_GR_UserOfflineMessage));

  00019	0f b7 45 10	 movzx	 eax, WORD PTR _wDataSize$[ebp]
  0001d	3d 64 09 00 00	 cmp	 eax, 2404		; 00000964H
  00022	76 19		 jbe	 SHORT $LN12@OnDBLoadUs
  00024	8b 0d 00 00 00
	00		 mov	 ecx, DWORD PTR ?__LINE__Var@?0??OnDBLoadUserOfflineMessage@CAttemperEngineSink@@IAE_NKPAXG@Z@4JA
  0002a	83 c1 02	 add	 ecx, 2
  0002d	51		 push	 ecx
  0002e	68 00 00 00 00	 push	 OFFSET ?THIS_FILE@@3PADA
  00033	e8 00 00 00 00	 call	 ?AfxAssertFailedLine@@YGHPBDH@Z ; AfxAssertFailedLine
  00038	85 c0		 test	 eax, eax
  0003a	74 01		 je	 SHORT $LN12@OnDBLoadUs
  0003c	cc		 int	 3
$LN12@OnDBLoadUs:

; 2298 : 	if(wDataSize>sizeof(DBO_GR_UserOfflineMessage)) return false;

  0003d	0f b7 45 10	 movzx	 eax, WORD PTR _wDataSize$[ebp]
  00041	3d 64 09 00 00	 cmp	 eax, 2404		; 00000964H
  00046	76 07		 jbe	 SHORT $LN5@OnDBLoadUs
  00048	32 c0		 xor	 al, al
  0004a	e9 7a 02 00 00	 jmp	 $LN1@OnDBLoadUs
$LN5@OnDBLoadUs:

; 2299 : 
; 2300 : 	//提取数据
; 2301 : 	DBO_GR_UserOfflineMessage * pUserUserOfflineMessage = (DBO_GR_UserOfflineMessage *)pData;

  0004f	8b 45 0c	 mov	 eax, DWORD PTR _pData$[ebp]
  00052	89 45 f4	 mov	 DWORD PTR _pUserUserOfflineMessage$[ebp], eax

; 2302 : 	ASSERT(pUserUserOfflineMessage);

  00055	83 7d f4 00	 cmp	 DWORD PTR _pUserUserOfflineMessage$[ebp], 0
  00059	75 18		 jne	 SHORT $LN13@OnDBLoadUs
  0005b	a1 00 00 00 00	 mov	 eax, DWORD PTR ?__LINE__Var@?0??OnDBLoadUserOfflineMessage@CAttemperEngineSink@@IAE_NKPAXG@Z@4JA
  00060	83 c0 07	 add	 eax, 7
  00063	50		 push	 eax
  00064	68 00 00 00 00	 push	 OFFSET ?THIS_FILE@@3PADA
  00069	e8 00 00 00 00	 call	 ?AfxAssertFailedLine@@YGHPBDH@Z ; AfxAssertFailedLine
  0006e	85 c0		 test	 eax, eax
  00070	74 01		 je	 SHORT $LN13@OnDBLoadUs
  00072	cc		 int	 3
$LN13@OnDBLoadUs:

; 2303 : 
; 2304 : 	//变量定义
; 2305 : 	BYTE cbOfflineData[CountArray(pUserUserOfflineMessage->szOfflineData)];
; 2306 : 	ZeroMemory(cbOfflineData,sizeof(cbOfflineData));

  00073	68 60 09 00 00	 push	 2400			; 00000960H
  00078	6a 00		 push	 0
  0007a	8d 85 94 f6 ff
	ff		 lea	 eax, DWORD PTR _cbOfflineData$[ebp]
  00080	50		 push	 eax
  00081	e8 00 00 00 00	 call	 _memset
  00086	83 c4 0c	 add	 esp, 12			; 0000000cH

; 2307 : 
; 2308 : 	//解析数据	
; 2309 : 	if (pUserUserOfflineMessage->szOfflineData[0]!=0)

  00089	b8 01 00 00 00	 mov	 eax, 1
  0008e	6b c8 00	 imul	 ecx, eax, 0
  00091	8b 55 f4	 mov	 edx, DWORD PTR _pUserUserOfflineMessage$[ebp]
  00094	0f be 44 0a 04	 movsx	 eax, BYTE PTR [edx+ecx+4]
  00099	85 c0		 test	 eax, eax
  0009b	0f 84 02 02 00
	00		 je	 $LN6@OnDBLoadUs

; 2310 : 	{
; 2311 : 		//获取长度
; 2312 : 		INT nCustomRuleSize=lstrlen(pUserUserOfflineMessage->szOfflineData)/2;

  000a1	8b 45 f4	 mov	 eax, DWORD PTR _pUserUserOfflineMessage$[ebp]
  000a4	83 c0 04	 add	 eax, 4
  000a7	50		 push	 eax
  000a8	ff 15 00 00 00
	00		 call	 DWORD PTR __imp__lstrlenA@4
  000ae	99		 cdq
  000af	2b c2		 sub	 eax, edx
  000b1	d1 f8		 sar	 eax, 1
  000b3	89 85 90 f6 ff
	ff		 mov	 DWORD PTR _nCustomRuleSize$4[ebp], eax

; 2313 : 
; 2314 : 		//转换字符
; 2315 : 		for (INT i=0;i<nCustomRuleSize;i++)

  000b9	c7 85 8c f6 ff
	ff 00 00 00 00	 mov	 DWORD PTR _i$3[ebp], 0
  000c3	eb 0f		 jmp	 SHORT $LN4@OnDBLoadUs
$LN2@OnDBLoadUs:
  000c5	8b 85 8c f6 ff
	ff		 mov	 eax, DWORD PTR _i$3[ebp]
  000cb	83 c0 01	 add	 eax, 1
  000ce	89 85 8c f6 ff
	ff		 mov	 DWORD PTR _i$3[ebp], eax
$LN4@OnDBLoadUs:
  000d4	8b 85 8c f6 ff
	ff		 mov	 eax, DWORD PTR _i$3[ebp]
  000da	3b 85 90 f6 ff
	ff		 cmp	 eax, DWORD PTR _nCustomRuleSize$4[ebp]
  000e0	0f 8d bd 01 00
	00		 jge	 $LN6@OnDBLoadUs

; 2316 : 		{
; 2317 : 			//获取字符
; 2318 : 			TCHAR cbChar1=pUserUserOfflineMessage->szOfflineData[i*2];

  000e6	8b 85 8c f6 ff
	ff		 mov	 eax, DWORD PTR _i$3[ebp]
  000ec	8b 4d f4	 mov	 ecx, DWORD PTR _pUserUserOfflineMessage$[ebp]
  000ef	8a 54 41 04	 mov	 dl, BYTE PTR [ecx+eax*2+4]
  000f3	88 95 8b f6 ff
	ff		 mov	 BYTE PTR _cbChar1$2[ebp], dl

; 2319 : 			TCHAR cbChar2=pUserUserOfflineMessage->szOfflineData[i*2+1];

  000f9	8b 85 8c f6 ff
	ff		 mov	 eax, DWORD PTR _i$3[ebp]
  000ff	8b 4d f4	 mov	 ecx, DWORD PTR _pUserUserOfflineMessage$[ebp]
  00102	8a 54 41 05	 mov	 dl, BYTE PTR [ecx+eax*2+5]
  00106	88 95 8a f6 ff
	ff		 mov	 BYTE PTR _cbChar2$1[ebp], dl

; 2320 : 
; 2321 : 			//效验字符
; 2322 : 			ASSERT((cbChar1>=TEXT('0'))&&(cbChar1<=TEXT('9'))||(cbChar1>=TEXT('A'))&&(cbChar1<=TEXT('F')));

  0010c	0f be 85 8b f6
	ff ff		 movsx	 eax, BYTE PTR _cbChar1$2[ebp]
  00113	83 f8 30	 cmp	 eax, 48			; 00000030H
  00116	7c 0c		 jl	 SHORT $LN14@OnDBLoadUs
  00118	0f be 8d 8b f6
	ff ff		 movsx	 ecx, BYTE PTR _cbChar1$2[ebp]
  0011f	83 f9 39	 cmp	 ecx, 57			; 00000039H
  00122	7e 31		 jle	 SHORT $LN16@OnDBLoadUs
$LN14@OnDBLoadUs:
  00124	0f be 95 8b f6
	ff ff		 movsx	 edx, BYTE PTR _cbChar1$2[ebp]
  0012b	83 fa 41	 cmp	 edx, 65			; 00000041H
  0012e	7c 0c		 jl	 SHORT $LN15@OnDBLoadUs
  00130	0f be 85 8b f6
	ff ff		 movsx	 eax, BYTE PTR _cbChar1$2[ebp]
  00137	83 f8 46	 cmp	 eax, 70			; 00000046H
  0013a	7e 19		 jle	 SHORT $LN16@OnDBLoadUs
$LN15@OnDBLoadUs:
  0013c	8b 0d 00 00 00
	00		 mov	 ecx, DWORD PTR ?__LINE__Var@?0??OnDBLoadUserOfflineMessage@CAttemperEngineSink@@IAE_NKPAXG@Z@4JA
  00142	83 c1 1b	 add	 ecx, 27			; 0000001bH
  00145	51		 push	 ecx
  00146	68 00 00 00 00	 push	 OFFSET ?THIS_FILE@@3PADA
  0014b	e8 00 00 00 00	 call	 ?AfxAssertFailedLine@@YGHPBDH@Z ; AfxAssertFailedLine
  00150	85 c0		 test	 eax, eax
  00152	74 01		 je	 SHORT $LN16@OnDBLoadUs
  00154	cc		 int	 3
$LN16@OnDBLoadUs:

; 2323 : 			ASSERT((cbChar2>=TEXT('0'))&&(cbChar2<=TEXT('9'))||(cbChar2>=TEXT('A'))&&(cbChar2<=TEXT('F')));

  00155	0f be 85 8a f6
	ff ff		 movsx	 eax, BYTE PTR _cbChar2$1[ebp]
  0015c	83 f8 30	 cmp	 eax, 48			; 00000030H
  0015f	7c 0c		 jl	 SHORT $LN17@OnDBLoadUs
  00161	0f be 8d 8a f6
	ff ff		 movsx	 ecx, BYTE PTR _cbChar2$1[ebp]
  00168	83 f9 39	 cmp	 ecx, 57			; 00000039H
  0016b	7e 31		 jle	 SHORT $LN19@OnDBLoadUs
$LN17@OnDBLoadUs:
  0016d	0f be 95 8a f6
	ff ff		 movsx	 edx, BYTE PTR _cbChar2$1[ebp]
  00174	83 fa 41	 cmp	 edx, 65			; 00000041H
  00177	7c 0c		 jl	 SHORT $LN18@OnDBLoadUs
  00179	0f be 85 8a f6
	ff ff		 movsx	 eax, BYTE PTR _cbChar2$1[ebp]
  00180	83 f8 46	 cmp	 eax, 70			; 00000046H
  00183	7e 19		 jle	 SHORT $LN19@OnDBLoadUs
$LN18@OnDBLoadUs:
  00185	8b 0d 00 00 00
	00		 mov	 ecx, DWORD PTR ?__LINE__Var@?0??OnDBLoadUserOfflineMessage@CAttemperEngineSink@@IAE_NKPAXG@Z@4JA
  0018b	83 c1 1c	 add	 ecx, 28			; 0000001cH
  0018e	51		 push	 ecx
  0018f	68 00 00 00 00	 push	 OFFSET ?THIS_FILE@@3PADA
  00194	e8 00 00 00 00	 call	 ?AfxAssertFailedLine@@YGHPBDH@Z ; AfxAssertFailedLine
  00199	85 c0		 test	 eax, eax
  0019b	74 01		 je	 SHORT $LN19@OnDBLoadUs
  0019d	cc		 int	 3
$LN19@OnDBLoadUs:

; 2324 : 
; 2325 : 			//生成结果
; 2326 : 			if ((cbChar2>=TEXT('0'))&&(cbChar2<=TEXT('9'))) cbOfflineData[i]+=(cbChar2-TEXT('0'));

  0019e	0f be 85 8a f6
	ff ff		 movsx	 eax, BYTE PTR _cbChar2$1[ebp]
  001a5	83 f8 30	 cmp	 eax, 48			; 00000030H
  001a8	7c 32		 jl	 SHORT $LN7@OnDBLoadUs
  001aa	0f be 85 8a f6
	ff ff		 movsx	 eax, BYTE PTR _cbChar2$1[ebp]
  001b1	83 f8 39	 cmp	 eax, 57			; 00000039H
  001b4	7f 26		 jg	 SHORT $LN7@OnDBLoadUs
  001b6	0f be 85 8a f6
	ff ff		 movsx	 eax, BYTE PTR _cbChar2$1[ebp]
  001bd	8b 8d 8c f6 ff
	ff		 mov	 ecx, DWORD PTR _i$3[ebp]
  001c3	0f b6 94 0d 94
	f6 ff ff	 movzx	 edx, BYTE PTR _cbOfflineData$[ebp+ecx]
  001cb	8d 44 02 d0	 lea	 eax, DWORD PTR [edx+eax-48]
  001cf	8b 8d 8c f6 ff
	ff		 mov	 ecx, DWORD PTR _i$3[ebp]
  001d5	88 84 0d 94 f6
	ff ff		 mov	 BYTE PTR _cbOfflineData$[ebp+ecx], al
$LN7@OnDBLoadUs:

; 2327 : 			if ((cbChar2>=TEXT('A'))&&(cbChar2<=TEXT('F'))) cbOfflineData[i]+=(cbChar2-TEXT('A')+0x0A);

  001dc	0f be 85 8a f6
	ff ff		 movsx	 eax, BYTE PTR _cbChar2$1[ebp]
  001e3	83 f8 41	 cmp	 eax, 65			; 00000041H
  001e6	7c 32		 jl	 SHORT $LN8@OnDBLoadUs
  001e8	0f be 85 8a f6
	ff ff		 movsx	 eax, BYTE PTR _cbChar2$1[ebp]
  001ef	83 f8 46	 cmp	 eax, 70			; 00000046H
  001f2	7f 26		 jg	 SHORT $LN8@OnDBLoadUs
  001f4	0f be 85 8a f6
	ff ff		 movsx	 eax, BYTE PTR _cbChar2$1[ebp]
  001fb	8b 8d 8c f6 ff
	ff		 mov	 ecx, DWORD PTR _i$3[ebp]
  00201	0f b6 94 0d 94
	f6 ff ff	 movzx	 edx, BYTE PTR _cbOfflineData$[ebp+ecx]
  00209	8d 44 02 c9	 lea	 eax, DWORD PTR [edx+eax-55]
  0020d	8b 8d 8c f6 ff
	ff		 mov	 ecx, DWORD PTR _i$3[ebp]
  00213	88 84 0d 94 f6
	ff ff		 mov	 BYTE PTR _cbOfflineData$[ebp+ecx], al
$LN8@OnDBLoadUs:

; 2328 : 
; 2329 : 			//生成结果
; 2330 : 			if ((cbChar1>=TEXT('0'))&&(cbChar1<=TEXT('9'))) cbOfflineData[i]+=(cbChar1-TEXT('0'))*0x10;

  0021a	0f be 85 8b f6
	ff ff		 movsx	 eax, BYTE PTR _cbChar1$2[ebp]
  00221	83 f8 30	 cmp	 eax, 48			; 00000030H
  00224	7c 36		 jl	 SHORT $LN9@OnDBLoadUs
  00226	0f be 85 8b f6
	ff ff		 movsx	 eax, BYTE PTR _cbChar1$2[ebp]
  0022d	83 f8 39	 cmp	 eax, 57			; 00000039H
  00230	7f 2a		 jg	 SHORT $LN9@OnDBLoadUs
  00232	0f be 85 8b f6
	ff ff		 movsx	 eax, BYTE PTR _cbChar1$2[ebp]
  00239	83 e8 30	 sub	 eax, 48			; 00000030H
  0023c	c1 e0 04	 shl	 eax, 4
  0023f	8b 8d 8c f6 ff
	ff		 mov	 ecx, DWORD PTR _i$3[ebp]
  00245	0f b6 94 0d 94
	f6 ff ff	 movzx	 edx, BYTE PTR _cbOfflineData$[ebp+ecx]
  0024d	03 d0		 add	 edx, eax
  0024f	8b 85 8c f6 ff
	ff		 mov	 eax, DWORD PTR _i$3[ebp]
  00255	88 94 05 94 f6
	ff ff		 mov	 BYTE PTR _cbOfflineData$[ebp+eax], dl
$LN9@OnDBLoadUs:

; 2331 : 			if ((cbChar1>=TEXT('A'))&&(cbChar1<=TEXT('F'))) cbOfflineData[i]+=(cbChar1-TEXT('A')+0x0A)*0x10;

  0025c	0f be 85 8b f6
	ff ff		 movsx	 eax, BYTE PTR _cbChar1$2[ebp]
  00263	83 f8 41	 cmp	 eax, 65			; 00000041H
  00266	7c 36		 jl	 SHORT $LN10@OnDBLoadUs
  00268	0f be 85 8b f6
	ff ff		 movsx	 eax, BYTE PTR _cbChar1$2[ebp]
  0026f	83 f8 46	 cmp	 eax, 70			; 00000046H
  00272	7f 2a		 jg	 SHORT $LN10@OnDBLoadUs
  00274	0f be 85 8b f6
	ff ff		 movsx	 eax, BYTE PTR _cbChar1$2[ebp]
  0027b	83 e8 37	 sub	 eax, 55			; 00000037H
  0027e	c1 e0 04	 shl	 eax, 4
  00281	8b 8d 8c f6 ff
	ff		 mov	 ecx, DWORD PTR _i$3[ebp]
  00287	0f b6 94 0d 94
	f6 ff ff	 movzx	 edx, BYTE PTR _cbOfflineData$[ebp+ecx]
  0028f	03 d0		 add	 edx, eax
  00291	8b 85 8c f6 ff
	ff		 mov	 eax, DWORD PTR _i$3[ebp]
  00297	88 94 05 94 f6
	ff ff		 mov	 BYTE PTR _cbOfflineData$[ebp+eax], dl
$LN10@OnDBLoadUs:

; 2332 : 		}

  0029e	e9 22 fe ff ff	 jmp	 $LN2@OnDBLoadUs
$LN6@OnDBLoadUs:

; 2333 : 	}
; 2334 : 
; 2335 : 	//发送消息
; 2336 : 	SendData(dwContextID,MDM_GC_USER,pUserUserOfflineMessage->wMessageType,&cbOfflineData,pUserUserOfflineMessage->wDataSize);

  002a3	8b 45 f4	 mov	 eax, DWORD PTR _pUserUserOfflineMessage$[ebp]
  002a6	0f b7 48 02	 movzx	 ecx, WORD PTR [eax+2]
  002aa	51		 push	 ecx
  002ab	8d 95 94 f6 ff
	ff		 lea	 edx, DWORD PTR _cbOfflineData$[ebp]
  002b1	52		 push	 edx
  002b2	8b 45 f4	 mov	 eax, DWORD PTR _pUserUserOfflineMessage$[ebp]
  002b5	0f b7 08	 movzx	 ecx, WORD PTR [eax]
  002b8	51		 push	 ecx
  002b9	6a 03		 push	 3
  002bb	8b 55 08	 mov	 edx, DWORD PTR _dwContextID$[ebp]
  002be	52		 push	 edx
  002bf	8b 4d f8	 mov	 ecx, DWORD PTR _this$[ebp]
  002c2	e8 00 00 00 00	 call	 ?SendData@CAttemperEngineSink@@IAE_NKGGPAXG@Z ; CAttemperEngineSink::SendData

; 2337 : 
; 2338 : 	return true;

  002c7	b0 01		 mov	 al, 1
$LN1@OnDBLoadUs:

; 2339 : }

  002c9	5f		 pop	 edi
  002ca	5e		 pop	 esi
  002cb	5b		 pop	 ebx
  002cc	8b 4d fc	 mov	 ecx, DWORD PTR __$ArrayPad$[ebp]
  002cf	33 cd		 xor	 ecx, ebp
  002d1	e8 00 00 00 00	 call	 @__security_check_cookie@4
  002d6	8b e5		 mov	 esp, ebp
  002d8	5d		 pop	 ebp
  002d9	c2 0c 00	 ret	 12			; 0000000cH
?OnDBLoadUserOfflineMessage@CAttemperEngineSink@@IAE_NKPAXG@Z ENDP ; CAttemperEngineSink::OnDBLoadUserOfflineMessage
_TEXT	ENDS
; Function compile flags: /Odtp /ZI
; File g:\网狐\happygamewh\服务端\系统模块\服务器组件\聊天服务器\attemperenginesink.cpp
;	COMDAT ?OnDBLoadUserSimpleIndividual@CAttemperEngineSink@@IAE_NKPAXG@Z
_TEXT	SEGMENT
_wBufferSize$1 = -32816					; size = 2
_wBufferSize$2 = -32812					; size = 2
_wBufferSize$3 = -32808					; size = 2
_wBufferSize$4 = -32804					; size = 2
_wBufferSize$5 = -32800					; size = 2
_wBufferSize$6 = -32796					; size = 2
_SendPacket$7 = -32792					; size = 8
_pUserIndividual$8 = -32784				; size = 4
_nIndex$9 = -32780					; size = 4
_wPacketSize$ = -32776					; size = 2
_wDataIndex$ = -32772					; size = 2
_cbDataBuffer$ = -32768					; size = 16376
_cbSendBuffer$ = -16392					; size = 16376
_pUserSimpleIndividual$ = -16				; size = 4
_pDBOUserSimpleIndividual$ = -12			; size = 4
_this$ = -8						; size = 4
__$ArrayPad$ = -4					; size = 4
_dwContextID$ = 8					; size = 4
_pData$ = 12						; size = 4
_wDataSize$ = 16					; size = 2
?OnDBLoadUserSimpleIndividual@CAttemperEngineSink@@IAE_NKPAXG@Z PROC ; CAttemperEngineSink::OnDBLoadUserSimpleIndividual, COMDAT
; _this$ = ecx

; 2187 : {

  00000	55		 push	 ebp
  00001	8b ec		 mov	 ebp, esp
  00003	b8 30 82 00 00	 mov	 eax, 33328		; 00008230H
  00008	e8 00 00 00 00	 call	 __chkstk
  0000d	a1 00 00 00 00	 mov	 eax, DWORD PTR ___security_cookie
  00012	33 c5		 xor	 eax, ebp
  00014	89 45 fc	 mov	 DWORD PTR __$ArrayPad$[ebp], eax
  00017	53		 push	 ebx
  00018	56		 push	 esi
  00019	57		 push	 edi
  0001a	89 4d f8	 mov	 DWORD PTR _this$[ebp], ecx

; 2188 : 	//参数校验
; 2189 : 	ASSERT(wDataSize<=sizeof(DBO_GR_UserIndividual));

  0001d	0f b7 45 10	 movzx	 eax, WORD PTR _wDataSize$[ebp]
  00021	3d 18 92 03 00	 cmp	 eax, 234008		; 00039218H
  00026	76 19		 jbe	 SHORT $LN15@OnDBLoadUs
  00028	8b 0d 00 00 00
	00		 mov	 ecx, DWORD PTR ?__LINE__Var@?0??OnDBLoadUserSimpleIndividual@CAttemperEngineSink@@IAE_NKPAXG@Z@4JA
  0002e	83 c1 02	 add	 ecx, 2
  00031	51		 push	 ecx
  00032	68 00 00 00 00	 push	 OFFSET ?THIS_FILE@@3PADA
  00037	e8 00 00 00 00	 call	 ?AfxAssertFailedLine@@YGHPBDH@Z ; AfxAssertFailedLine
  0003c	85 c0		 test	 eax, eax
  0003e	74 01		 je	 SHORT $LN15@OnDBLoadUs
  00040	cc		 int	 3
$LN15@OnDBLoadUs:

; 2190 : 	if(wDataSize>sizeof(DBO_GR_UserIndividual)) return false;

  00041	0f b7 45 10	 movzx	 eax, WORD PTR _wDataSize$[ebp]
  00045	3d 18 92 03 00	 cmp	 eax, 234008		; 00039218H
  0004a	76 07		 jbe	 SHORT $LN5@OnDBLoadUs
  0004c	32 c0		 xor	 al, al
  0004e	e9 7c 03 00 00	 jmp	 $LN1@OnDBLoadUs
$LN5@OnDBLoadUs:

; 2191 : 
; 2192 : 	//提取数据
; 2193 : 	DBO_GR_UserIndividual * pDBOUserSimpleIndividual = (DBO_GR_UserIndividual *)pData;

  00053	8b 45 0c	 mov	 eax, DWORD PTR _pData$[ebp]
  00056	89 45 f4	 mov	 DWORD PTR _pDBOUserSimpleIndividual$[ebp], eax

; 2194 : 	ASSERT(pDBOUserSimpleIndividual);

  00059	83 7d f4 00	 cmp	 DWORD PTR _pDBOUserSimpleIndividual$[ebp], 0
  0005d	75 18		 jne	 SHORT $LN16@OnDBLoadUs
  0005f	a1 00 00 00 00	 mov	 eax, DWORD PTR ?__LINE__Var@?0??OnDBLoadUserSimpleIndividual@CAttemperEngineSink@@IAE_NKPAXG@Z@4JA
  00064	83 c0 07	 add	 eax, 7
  00067	50		 push	 eax
  00068	68 00 00 00 00	 push	 OFFSET ?THIS_FILE@@3PADA
  0006d	e8 00 00 00 00	 call	 ?AfxAssertFailedLine@@YGHPBDH@Z ; AfxAssertFailedLine
  00072	85 c0		 test	 eax, eax
  00074	74 01		 je	 SHORT $LN16@OnDBLoadUs
  00076	cc		 int	 3
$LN16@OnDBLoadUs:

; 2195 : 
; 2196 : 	//变量定义
; 2197 : 	tagUserIndividual * pUserSimpleIndividual=NULL;

  00077	c7 45 f0 00 00
	00 00		 mov	 DWORD PTR _pUserSimpleIndividual$[ebp], 0

; 2198 : 	BYTE cbSendBuffer[SOCKET_TCP_PACKET];
; 2199 : 	BYTE cbDataBuffer[SOCKET_TCP_PACKET];
; 2200 : 	WORD wDataIndex=0,wPacketSize=0;

  0007e	33 c0		 xor	 eax, eax
  00080	66 89 85 fc 7f
	ff ff		 mov	 WORD PTR _wDataIndex$[ebp], ax
  00087	33 c0		 xor	 eax, eax
  00089	66 89 85 f8 7f
	ff ff		 mov	 WORD PTR _wPacketSize$[ebp], ax

; 2201 : 
; 2202 : 	//循环发送
; 2203 : 	for(int nIndex=0;nIndex<pDBOUserSimpleIndividual->wUserCount;++nIndex)

  00090	c7 85 f4 7f ff
	ff 00 00 00 00	 mov	 DWORD PTR _nIndex$9[ebp], 0
  0009a	eb 0f		 jmp	 SHORT $LN4@OnDBLoadUs
$LN2@OnDBLoadUs:
  0009c	8b 85 f4 7f ff
	ff		 mov	 eax, DWORD PTR _nIndex$9[ebp]
  000a2	83 c0 01	 add	 eax, 1
  000a5	89 85 f4 7f ff
	ff		 mov	 DWORD PTR _nIndex$9[ebp], eax
$LN4@OnDBLoadUs:
  000ab	8b 45 f4	 mov	 eax, DWORD PTR _pDBOUserSimpleIndividual$[ebp]
  000ae	0f b7 48 04	 movzx	 ecx, WORD PTR [eax+4]
  000b2	39 8d f4 7f ff
	ff		 cmp	 DWORD PTR _nIndex$9[ebp], ecx
  000b8	0f 8d e2 02 00
	00		 jge	 $LN3@OnDBLoadUs

; 2204 : 	{
; 2205 : 		//设置变量
; 2206 : 		pUserSimpleIndividual = &pDBOUserSimpleIndividual->UserIndividual[nIndex];

  000be	69 85 f4 7f ff
	ff ea 00 00 00	 imul	 eax, DWORD PTR _nIndex$9[ebp], 234
  000c8	8b 4d f4	 mov	 ecx, DWORD PTR _pDBOUserSimpleIndividual$[ebp]
  000cb	8d 54 01 06	 lea	 edx, DWORD PTR [ecx+eax+6]
  000cf	89 55 f0	 mov	 DWORD PTR _pUserSimpleIndividual$[ebp], edx

; 2207 : 
; 2208 : 		//变量定义		
; 2209 : 		CMD_GC_UserIndividual * pUserIndividual=(CMD_GC_UserIndividual *)&cbDataBuffer;

  000d2	8d 85 00 80 ff
	ff		 lea	 eax, DWORD PTR _cbDataBuffer$[ebp]
  000d8	89 85 f0 7f ff
	ff		 mov	 DWORD PTR _pUserIndividual$8[ebp], eax

; 2210 : 		CSendPacketHelper SendPacket(pUserIndividual+1,sizeof(cbDataBuffer)-sizeof(CMD_GC_UserIndividual));

  000de	68 f4 3f 00 00	 push	 16372			; 00003ff4H
  000e3	8b 85 f0 7f ff
	ff		 mov	 eax, DWORD PTR _pUserIndividual$8[ebp]
  000e9	83 c0 04	 add	 eax, 4
  000ec	50		 push	 eax
  000ed	8d 8d e8 7f ff
	ff		 lea	 ecx, DWORD PTR _SendPacket$7[ebp]
  000f3	e8 00 00 00 00	 call	 ??0CSendPacketHelper@@QAE@PAXG@Z ; CSendPacketHelper::CSendPacketHelper

; 2211 : 
; 2212 : 		//构造结构
; 2213 : 		pUserIndividual->dwUserID = pUserSimpleIndividual->dwUserID;

  000f8	8b 85 f0 7f ff
	ff		 mov	 eax, DWORD PTR _pUserIndividual$8[ebp]
  000fe	8b 4d f0	 mov	 ecx, DWORD PTR _pUserSimpleIndividual$[ebp]
  00101	8b 11		 mov	 edx, DWORD PTR [ecx]
  00103	89 10		 mov	 DWORD PTR [eax], edx

; 2214 : 
; 2215 : 		//设置变量
; 2216 : 		wPacketSize = sizeof(CMD_GC_UserIndividual);

  00105	b8 04 00 00 00	 mov	 eax, 4
  0010a	66 89 85 f8 7f
	ff ff		 mov	 WORD PTR _wPacketSize$[ebp], ax

; 2217 : 
; 2218 : 		//QQ号码
; 2219 : 		if (pUserSimpleIndividual->szQQ[0]!=0)

  00111	b8 01 00 00 00	 mov	 eax, 1
  00116	6b c8 00	 imul	 ecx, eax, 0
  00119	8b 55 f0	 mov	 edx, DWORD PTR _pUserSimpleIndividual$[ebp]
  0011c	0f be 44 0a 04	 movsx	 eax, BYTE PTR [edx+ecx+4]
  00121	85 c0		 test	 eax, eax
  00123	74 33		 je	 SHORT $LN6@OnDBLoadUs

; 2220 : 		{
; 2221 : 			WORD wBufferSize=CountStringBuffer(pUserSimpleIndividual->szQQ);

  00125	8b 45 f0	 mov	 eax, DWORD PTR _pUserSimpleIndividual$[ebp]
  00128	83 c0 04	 add	 eax, 4
  0012b	50		 push	 eax
  0012c	ff 15 00 00 00
	00		 call	 DWORD PTR __imp__lstrlenA@4
  00132	83 c0 01	 add	 eax, 1
  00135	66 89 85 e4 7f
	ff ff		 mov	 WORD PTR _wBufferSize$6[ebp], ax

; 2222 : 			SendPacket.AddPacket(pUserSimpleIndividual->szQQ,wBufferSize,DTP_GP_UI_QQ);

  0013c	6a 01		 push	 1
  0013e	0f b7 85 e4 7f
	ff ff		 movzx	 eax, WORD PTR _wBufferSize$6[ebp]
  00145	50		 push	 eax
  00146	8b 4d f0	 mov	 ecx, DWORD PTR _pUserSimpleIndividual$[ebp]
  00149	83 c1 04	 add	 ecx, 4
  0014c	51		 push	 ecx
  0014d	8d 8d e8 7f ff
	ff		 lea	 ecx, DWORD PTR _SendPacket$7[ebp]
  00153	e8 00 00 00 00	 call	 ?AddPacket@CSendPacketHelper@@QAE_NPAXGG@Z ; CSendPacketHelper::AddPacket
$LN6@OnDBLoadUs:

; 2223 : 		}
; 2224 : 
; 2225 : 		//Email
; 2226 : 		if (pUserSimpleIndividual->szEMail[0]!=0)

  00158	b8 01 00 00 00	 mov	 eax, 1
  0015d	6b c8 00	 imul	 ecx, eax, 0
  00160	8b 55 f0	 mov	 edx, DWORD PTR _pUserSimpleIndividual$[ebp]
  00163	0f be 44 0a 14	 movsx	 eax, BYTE PTR [edx+ecx+20]
  00168	85 c0		 test	 eax, eax
  0016a	74 33		 je	 SHORT $LN7@OnDBLoadUs

; 2227 : 		{
; 2228 : 			WORD wBufferSize=CountStringBuffer(pUserSimpleIndividual->szEMail);

  0016c	8b 45 f0	 mov	 eax, DWORD PTR _pUserSimpleIndividual$[ebp]
  0016f	83 c0 14	 add	 eax, 20			; 00000014H
  00172	50		 push	 eax
  00173	ff 15 00 00 00
	00		 call	 DWORD PTR __imp__lstrlenA@4
  00179	83 c0 01	 add	 eax, 1
  0017c	66 89 85 e0 7f
	ff ff		 mov	 WORD PTR _wBufferSize$5[ebp], ax

; 2229 : 			SendPacket.AddPacket(pUserSimpleIndividual->szEMail,wBufferSize,DTP_GP_UI_EMAIL);

  00183	6a 02		 push	 2
  00185	0f b7 85 e0 7f
	ff ff		 movzx	 eax, WORD PTR _wBufferSize$5[ebp]
  0018c	50		 push	 eax
  0018d	8b 4d f0	 mov	 ecx, DWORD PTR _pUserSimpleIndividual$[ebp]
  00190	83 c1 14	 add	 ecx, 20			; 00000014H
  00193	51		 push	 ecx
  00194	8d 8d e8 7f ff
	ff		 lea	 ecx, DWORD PTR _SendPacket$7[ebp]
  0019a	e8 00 00 00 00	 call	 ?AddPacket@CSendPacketHelper@@QAE_NPAXGG@Z ; CSendPacketHelper::AddPacket
$LN7@OnDBLoadUs:

; 2230 : 		}
; 2231 : 
; 2232 : 		//固定电话
; 2233 : 		if (pUserSimpleIndividual->szSeatPhone[0]!=0)

  0019f	b8 01 00 00 00	 mov	 eax, 1
  001a4	6b c8 00	 imul	 ecx, eax, 0
  001a7	8b 55 f0	 mov	 edx, DWORD PTR _pUserSimpleIndividual$[ebp]
  001aa	0f be 44 0a 35	 movsx	 eax, BYTE PTR [edx+ecx+53]
  001af	85 c0		 test	 eax, eax
  001b1	74 33		 je	 SHORT $LN8@OnDBLoadUs

; 2234 : 		{
; 2235 : 			WORD wBufferSize=CountStringBuffer(pUserSimpleIndividual->szSeatPhone);

  001b3	8b 45 f0	 mov	 eax, DWORD PTR _pUserSimpleIndividual$[ebp]
  001b6	83 c0 35	 add	 eax, 53			; 00000035H
  001b9	50		 push	 eax
  001ba	ff 15 00 00 00
	00		 call	 DWORD PTR __imp__lstrlenA@4
  001c0	83 c0 01	 add	 eax, 1
  001c3	66 89 85 dc 7f
	ff ff		 mov	 WORD PTR _wBufferSize$4[ebp], ax

; 2236 : 			SendPacket.AddPacket(pUserSimpleIndividual->szSeatPhone,wBufferSize,DTP_GP_UI_SEATPHOHE);

  001ca	6a 03		 push	 3
  001cc	0f b7 85 dc 7f
	ff ff		 movzx	 eax, WORD PTR _wBufferSize$4[ebp]
  001d3	50		 push	 eax
  001d4	8b 4d f0	 mov	 ecx, DWORD PTR _pUserSimpleIndividual$[ebp]
  001d7	83 c1 35	 add	 ecx, 53			; 00000035H
  001da	51		 push	 ecx
  001db	8d 8d e8 7f ff
	ff		 lea	 ecx, DWORD PTR _SendPacket$7[ebp]
  001e1	e8 00 00 00 00	 call	 ?AddPacket@CSendPacketHelper@@QAE_NPAXGG@Z ; CSendPacketHelper::AddPacket
$LN8@OnDBLoadUs:

; 2237 : 		}
; 2238 : 
; 2239 : 
; 2240 : 		//手机号码
; 2241 : 		if (pUserSimpleIndividual->szMobilePhone[0]!=0)

  001e6	b8 01 00 00 00	 mov	 eax, 1
  001eb	6b c8 00	 imul	 ecx, eax, 0
  001ee	8b 55 f0	 mov	 edx, DWORD PTR _pUserSimpleIndividual$[ebp]
  001f1	0f be 44 0a 56	 movsx	 eax, BYTE PTR [edx+ecx+86]
  001f6	85 c0		 test	 eax, eax
  001f8	74 33		 je	 SHORT $LN9@OnDBLoadUs

; 2242 : 		{
; 2243 : 			WORD wBufferSize=CountStringBuffer(pUserSimpleIndividual->szMobilePhone);

  001fa	8b 45 f0	 mov	 eax, DWORD PTR _pUserSimpleIndividual$[ebp]
  001fd	83 c0 56	 add	 eax, 86			; 00000056H
  00200	50		 push	 eax
  00201	ff 15 00 00 00
	00		 call	 DWORD PTR __imp__lstrlenA@4
  00207	83 c0 01	 add	 eax, 1
  0020a	66 89 85 d8 7f
	ff ff		 mov	 WORD PTR _wBufferSize$3[ebp], ax

; 2244 : 			SendPacket.AddPacket(pUserSimpleIndividual->szMobilePhone,wBufferSize,DTP_GP_UI_MOBILEPHONE);			

  00211	6a 04		 push	 4
  00213	0f b7 85 d8 7f
	ff ff		 movzx	 eax, WORD PTR _wBufferSize$3[ebp]
  0021a	50		 push	 eax
  0021b	8b 4d f0	 mov	 ecx, DWORD PTR _pUserSimpleIndividual$[ebp]
  0021e	83 c1 56	 add	 ecx, 86			; 00000056H
  00221	51		 push	 ecx
  00222	8d 8d e8 7f ff
	ff		 lea	 ecx, DWORD PTR _SendPacket$7[ebp]
  00228	e8 00 00 00 00	 call	 ?AddPacket@CSendPacketHelper@@QAE_NPAXGG@Z ; CSendPacketHelper::AddPacket
$LN9@OnDBLoadUs:

; 2245 : 		}
; 2246 : 
; 2247 : 		//联系地址
; 2248 : 		if (pUserSimpleIndividual->szDwellingPlace[0]!=0)

  0022d	b8 01 00 00 00	 mov	 eax, 1
  00232	6b c8 00	 imul	 ecx, eax, 0
  00235	8b 55 f0	 mov	 edx, DWORD PTR _pUserSimpleIndividual$[ebp]
  00238	0f be 44 0a 62	 movsx	 eax, BYTE PTR [edx+ecx+98]
  0023d	85 c0		 test	 eax, eax
  0023f	74 33		 je	 SHORT $LN10@OnDBLoadUs

; 2249 : 		{
; 2250 : 			WORD wBufferSize=CountStringBuffer(pUserSimpleIndividual->szDwellingPlace);

  00241	8b 45 f0	 mov	 eax, DWORD PTR _pUserSimpleIndividual$[ebp]
  00244	83 c0 62	 add	 eax, 98			; 00000062H
  00247	50		 push	 eax
  00248	ff 15 00 00 00
	00		 call	 DWORD PTR __imp__lstrlenA@4
  0024e	83 c0 01	 add	 eax, 1
  00251	66 89 85 d4 7f
	ff ff		 mov	 WORD PTR _wBufferSize$2[ebp], ax

; 2251 : 			SendPacket.AddPacket(pUserSimpleIndividual->szDwellingPlace,wBufferSize,DTP_GP_UI_DWELLINGPLACE);

  00258	6a 05		 push	 5
  0025a	0f b7 85 d4 7f
	ff ff		 movzx	 eax, WORD PTR _wBufferSize$2[ebp]
  00261	50		 push	 eax
  00262	8b 4d f0	 mov	 ecx, DWORD PTR _pUserSimpleIndividual$[ebp]
  00265	83 c1 62	 add	 ecx, 98			; 00000062H
  00268	51		 push	 ecx
  00269	8d 8d e8 7f ff
	ff		 lea	 ecx, DWORD PTR _SendPacket$7[ebp]
  0026f	e8 00 00 00 00	 call	 ?AddPacket@CSendPacketHelper@@QAE_NPAXGG@Z ; CSendPacketHelper::AddPacket
$LN10@OnDBLoadUs:

; 2252 : 		}
; 2253 : 
; 2254 : 		//邮政编码
; 2255 : 		if (pUserSimpleIndividual->szPostalCode[0]!=0)

  00274	b8 01 00 00 00	 mov	 eax, 1
  00279	6b c8 00	 imul	 ecx, eax, 0
  0027c	8b 55 f0	 mov	 edx, DWORD PTR _pUserSimpleIndividual$[ebp]
  0027f	0f be 84 0a e2
	00 00 00	 movsx	 eax, BYTE PTR [edx+ecx+226]
  00287	85 c0		 test	 eax, eax
  00289	74 38		 je	 SHORT $LN11@OnDBLoadUs

; 2256 : 		{
; 2257 : 			WORD wBufferSize=CountStringBuffer(pUserSimpleIndividual->szPostalCode);

  0028b	8b 45 f0	 mov	 eax, DWORD PTR _pUserSimpleIndividual$[ebp]
  0028e	05 e2 00 00 00	 add	 eax, 226		; 000000e2H
  00293	50		 push	 eax
  00294	ff 15 00 00 00
	00		 call	 DWORD PTR __imp__lstrlenA@4
  0029a	83 c0 01	 add	 eax, 1
  0029d	66 89 85 d0 7f
	ff ff		 mov	 WORD PTR _wBufferSize$1[ebp], ax

; 2258 : 			SendPacket.AddPacket(pUserSimpleIndividual->szPostalCode,wBufferSize,DTP_GP_UI_POSTALCODE);

  002a4	6a 06		 push	 6
  002a6	0f b7 85 d0 7f
	ff ff		 movzx	 eax, WORD PTR _wBufferSize$1[ebp]
  002ad	50		 push	 eax
  002ae	8b 4d f0	 mov	 ecx, DWORD PTR _pUserSimpleIndividual$[ebp]
  002b1	81 c1 e2 00 00
	00		 add	 ecx, 226		; 000000e2H
  002b7	51		 push	 ecx
  002b8	8d 8d e8 7f ff
	ff		 lea	 ecx, DWORD PTR _SendPacket$7[ebp]
  002be	e8 00 00 00 00	 call	 ?AddPacket@CSendPacketHelper@@QAE_NPAXGG@Z ; CSendPacketHelper::AddPacket
$LN11@OnDBLoadUs:

; 2259 : 		}
; 2260 : 
; 2261 : 		//设置变量
; 2262 : 		wPacketSize += SendPacket.GetDataSize();

  002c3	8d 8d e8 7f ff
	ff		 lea	 ecx, DWORD PTR _SendPacket$7[ebp]
  002c9	e8 00 00 00 00	 call	 ?GetDataSize@CSendPacketHelper@@QAEGXZ ; CSendPacketHelper::GetDataSize
  002ce	0f b7 c0	 movzx	 eax, ax
  002d1	0f b7 8d f8 7f
	ff ff		 movzx	 ecx, WORD PTR _wPacketSize$[ebp]
  002d8	03 c8		 add	 ecx, eax
  002da	66 89 8d f8 7f
	ff ff		 mov	 WORD PTR _wPacketSize$[ebp], cx

; 2263 : 
; 2264 : 		//发送判断
; 2265 : 		if(wDataIndex+wPacketSize+sizeof(WORD)>CountArray(cbSendBuffer))

  002e1	0f b7 85 fc 7f
	ff ff		 movzx	 eax, WORD PTR _wDataIndex$[ebp]
  002e8	0f b7 8d f8 7f
	ff ff		 movzx	 ecx, WORD PTR _wPacketSize$[ebp]
  002ef	8d 54 08 02	 lea	 edx, DWORD PTR [eax+ecx+2]
  002f3	81 fa f8 3f 00
	00		 cmp	 edx, 16376		; 00003ff8H
  002f9	76 41		 jbe	 SHORT $LN12@OnDBLoadUs

; 2266 : 		{			
; 2267 : 			//发送消息
; 2268 : 			SendData(dwContextID,MDM_GC_LOGON,SUB_S_USER_SINDIVIDUAL,cbSendBuffer,wDataIndex);

  002fb	0f b7 85 fc 7f
	ff ff		 movzx	 eax, WORD PTR _wDataIndex$[ebp]
  00302	50		 push	 eax
  00303	8d 8d f8 bf ff
	ff		 lea	 ecx, DWORD PTR _cbSendBuffer$[ebp]
  00309	51		 push	 ecx
  0030a	68 31 01 00 00	 push	 305			; 00000131H
  0030f	6a 01		 push	 1
  00311	8b 55 08	 mov	 edx, DWORD PTR _dwContextID$[ebp]
  00314	52		 push	 edx
  00315	8b 4d f8	 mov	 ecx, DWORD PTR _this$[ebp]
  00318	e8 00 00 00 00	 call	 ?SendData@CAttemperEngineSink@@IAE_NKGGPAXG@Z ; CAttemperEngineSink::SendData

; 2269 : 
; 2270 : 			//设置变量
; 2271 : 			ZeroMemory(cbSendBuffer,sizeof(cbSendBuffer));

  0031d	68 f8 3f 00 00	 push	 16376			; 00003ff8H
  00322	6a 00		 push	 0
  00324	8d 85 f8 bf ff
	ff		 lea	 eax, DWORD PTR _cbSendBuffer$[ebp]
  0032a	50		 push	 eax
  0032b	e8 00 00 00 00	 call	 _memset
  00330	83 c4 0c	 add	 esp, 12			; 0000000cH

; 2272 : 			wDataIndex = 0;

  00333	33 c0		 xor	 eax, eax
  00335	66 89 85 fc 7f
	ff ff		 mov	 WORD PTR _wDataIndex$[ebp], ax
$LN12@OnDBLoadUs:

; 2273 : 		}
; 2274 : 
; 2275 : 		//拷贝数据
; 2276 : 		CopyMemory(&cbSendBuffer[wDataIndex],&wPacketSize,sizeof(WORD));

  0033c	6a 02		 push	 2
  0033e	8d 85 f8 7f ff
	ff		 lea	 eax, DWORD PTR _wPacketSize$[ebp]
  00344	50		 push	 eax
  00345	0f b7 8d fc 7f
	ff ff		 movzx	 ecx, WORD PTR _wDataIndex$[ebp]
  0034c	8d 94 0d f8 bf
	ff ff		 lea	 edx, DWORD PTR _cbSendBuffer$[ebp+ecx]
  00353	52		 push	 edx
  00354	e8 00 00 00 00	 call	 _memcpy
  00359	83 c4 0c	 add	 esp, 12			; 0000000cH

; 2277 : 		CopyMemory(&cbSendBuffer[wDataIndex+sizeof(WORD)],cbDataBuffer,wPacketSize);

  0035c	0f b7 85 f8 7f
	ff ff		 movzx	 eax, WORD PTR _wPacketSize$[ebp]
  00363	50		 push	 eax
  00364	8d 8d 00 80 ff
	ff		 lea	 ecx, DWORD PTR _cbDataBuffer$[ebp]
  0036a	51		 push	 ecx
  0036b	0f b7 95 fc 7f
	ff ff		 movzx	 edx, WORD PTR _wDataIndex$[ebp]
  00372	8d 84 15 fa bf
	ff ff		 lea	 eax, DWORD PTR _cbSendBuffer$[ebp+edx+2]
  00379	50		 push	 eax
  0037a	e8 00 00 00 00	 call	 _memcpy
  0037f	83 c4 0c	 add	 esp, 12			; 0000000cH

; 2278 : 
; 2279 : 		//设置变量
; 2280 : 		wDataIndex += sizeof(WORD)+wPacketSize;

  00382	0f b7 85 f8 7f
	ff ff		 movzx	 eax, WORD PTR _wPacketSize$[ebp]
  00389	0f b7 8d fc 7f
	ff ff		 movzx	 ecx, WORD PTR _wDataIndex$[ebp]
  00390	8d 54 01 02	 lea	 edx, DWORD PTR [ecx+eax+2]
  00394	66 89 95 fc 7f
	ff ff		 mov	 WORD PTR _wDataIndex$[ebp], dx

; 2281 : 	}

  0039b	e9 fc fc ff ff	 jmp	 $LN2@OnDBLoadUs
$LN3@OnDBLoadUs:

; 2282 : 
; 2283 : 	//剩余发送
; 2284 : 	if(wDataIndex>0)

  003a0	0f b7 85 fc 7f
	ff ff		 movzx	 eax, WORD PTR _wDataIndex$[ebp]
  003a7	85 c0		 test	 eax, eax
  003a9	7e 22		 jle	 SHORT $LN13@OnDBLoadUs

; 2285 : 	{
; 2286 : 		//发送消息
; 2287 : 		SendData(dwContextID,MDM_GC_LOGON,SUB_S_USER_SINDIVIDUAL,cbSendBuffer,wDataIndex);			

  003ab	0f b7 85 fc 7f
	ff ff		 movzx	 eax, WORD PTR _wDataIndex$[ebp]
  003b2	50		 push	 eax
  003b3	8d 8d f8 bf ff
	ff		 lea	 ecx, DWORD PTR _cbSendBuffer$[ebp]
  003b9	51		 push	 ecx
  003ba	68 31 01 00 00	 push	 305			; 00000131H
  003bf	6a 01		 push	 1
  003c1	8b 55 08	 mov	 edx, DWORD PTR _dwContextID$[ebp]
  003c4	52		 push	 edx
  003c5	8b 4d f8	 mov	 ecx, DWORD PTR _this$[ebp]
  003c8	e8 00 00 00 00	 call	 ?SendData@CAttemperEngineSink@@IAE_NKGGPAXG@Z ; CAttemperEngineSink::SendData
$LN13@OnDBLoadUs:

; 2288 : 	}
; 2289 : 
; 2290 : 	return true;

  003cd	b0 01		 mov	 al, 1
$LN1@OnDBLoadUs:

; 2291 : }

  003cf	5f		 pop	 edi
  003d0	5e		 pop	 esi
  003d1	5b		 pop	 ebx
  003d2	8b 4d fc	 mov	 ecx, DWORD PTR __$ArrayPad$[ebp]
  003d5	33 cd		 xor	 ecx, ebp
  003d7	e8 00 00 00 00	 call	 @__security_check_cookie@4
  003dc	8b e5		 mov	 esp, ebp
  003de	5d		 pop	 ebp
  003df	c2 0c 00	 ret	 12			; 0000000cH
?OnDBLoadUserSimpleIndividual@CAttemperEngineSink@@IAE_NKPAXG@Z ENDP ; CAttemperEngineSink::OnDBLoadUserSimpleIndividual
_TEXT	ENDS
; Function compile flags: /Odtp /ZI
; File g:\网狐\happygamewh\服务端\系统模块\服务器组件\聊天服务器\attemperenginesink.cpp
;	COMDAT ?OnDBLoadUserRemarksInfo@CAttemperEngineSink@@IAE_NKPAXG@Z
_TEXT	SEGMENT
_pSendUserRemarksInfo$1 = -16444			; size = 4
_nIndex$2 = -16440					; size = 4
_wPacketSize$ = -16436					; size = 2
_wDataIndex$ = -16432					; size = 2
_cbDataBuffer$ = -16428					; size = 36
_cbSendBuffer$ = -16392					; size = 16376
_pUserRemarksInfo$ = -16				; size = 4
_pDBOUserRemarksInfo$ = -12				; size = 4
_this$ = -8						; size = 4
__$ArrayPad$ = -4					; size = 4
_dwContextID$ = 8					; size = 4
_pData$ = 12						; size = 4
_wDataSize$ = 16					; size = 2
?OnDBLoadUserRemarksInfo@CAttemperEngineSink@@IAE_NKPAXG@Z PROC ; CAttemperEngineSink::OnDBLoadUserRemarksInfo, COMDAT
; _this$ = ecx

; 2125 : {

  00000	55		 push	 ebp
  00001	8b ec		 mov	 ebp, esp
  00003	b8 3c 42 00 00	 mov	 eax, 16956		; 0000423cH
  00008	e8 00 00 00 00	 call	 __chkstk
  0000d	a1 00 00 00 00	 mov	 eax, DWORD PTR ___security_cookie
  00012	33 c5		 xor	 eax, ebp
  00014	89 45 fc	 mov	 DWORD PTR __$ArrayPad$[ebp], eax
  00017	53		 push	 ebx
  00018	56		 push	 esi
  00019	57		 push	 edi
  0001a	89 4d f8	 mov	 DWORD PTR _this$[ebp], ecx

; 2126 : 	//参数校验
; 2127 : 	ASSERT(wDataSize<=sizeof(DBO_GR_UserRemarksInfo));

  0001d	0f b7 45 10	 movzx	 eax, WORD PTR _wDataSize$[ebp]
  00021	3d a8 8c 00 00	 cmp	 eax, 36008		; 00008ca8H
  00026	76 19		 jbe	 SHORT $LN9@OnDBLoadUs
  00028	8b 0d 00 00 00
	00		 mov	 ecx, DWORD PTR ?__LINE__Var@?0??OnDBLoadUserRemarksInfo@CAttemperEngineSink@@IAE_NKPAXG@Z@4JA
  0002e	83 c1 02	 add	 ecx, 2
  00031	51		 push	 ecx
  00032	68 00 00 00 00	 push	 OFFSET ?THIS_FILE@@3PADA
  00037	e8 00 00 00 00	 call	 ?AfxAssertFailedLine@@YGHPBDH@Z ; AfxAssertFailedLine
  0003c	85 c0		 test	 eax, eax
  0003e	74 01		 je	 SHORT $LN9@OnDBLoadUs
  00040	cc		 int	 3
$LN9@OnDBLoadUs:

; 2128 : 	if(wDataSize>sizeof(DBO_GR_UserRemarksInfo)) return false;

  00041	0f b7 45 10	 movzx	 eax, WORD PTR _wDataSize$[ebp]
  00045	3d a8 8c 00 00	 cmp	 eax, 36008		; 00008ca8H
  0004a	76 07		 jbe	 SHORT $LN5@OnDBLoadUs
  0004c	32 c0		 xor	 al, al
  0004e	e9 b6 01 00 00	 jmp	 $LN1@OnDBLoadUs
$LN5@OnDBLoadUs:

; 2129 : 
; 2130 : 	//提取数据
; 2131 : 	DBO_GR_UserRemarksInfo * pDBOUserRemarksInfo = (DBO_GR_UserRemarksInfo *)pData;

  00053	8b 45 0c	 mov	 eax, DWORD PTR _pData$[ebp]
  00056	89 45 f4	 mov	 DWORD PTR _pDBOUserRemarksInfo$[ebp], eax

; 2132 : 	ASSERT(pDBOUserRemarksInfo);

  00059	83 7d f4 00	 cmp	 DWORD PTR _pDBOUserRemarksInfo$[ebp], 0
  0005d	75 18		 jne	 SHORT $LN10@OnDBLoadUs
  0005f	a1 00 00 00 00	 mov	 eax, DWORD PTR ?__LINE__Var@?0??OnDBLoadUserRemarksInfo@CAttemperEngineSink@@IAE_NKPAXG@Z@4JA
  00064	83 c0 07	 add	 eax, 7
  00067	50		 push	 eax
  00068	68 00 00 00 00	 push	 OFFSET ?THIS_FILE@@3PADA
  0006d	e8 00 00 00 00	 call	 ?AfxAssertFailedLine@@YGHPBDH@Z ; AfxAssertFailedLine
  00072	85 c0		 test	 eax, eax
  00074	74 01		 je	 SHORT $LN10@OnDBLoadUs
  00076	cc		 int	 3
$LN10@OnDBLoadUs:

; 2133 : 
; 2134 : 	//变量定义
; 2135 : 	tagUserRemarksInfo * pUserRemarksInfo=NULL;

  00077	c7 45 f0 00 00
	00 00		 mov	 DWORD PTR _pUserRemarksInfo$[ebp], 0

; 2136 : 	BYTE cbSendBuffer[SOCKET_TCP_PACKET];
; 2137 : 	BYTE cbDataBuffer[sizeof(tagUserRemarksInfo)];
; 2138 : 	WORD wDataIndex=0,wPacketSize=0;

  0007e	33 c0		 xor	 eax, eax
  00080	66 89 85 d0 bf
	ff ff		 mov	 WORD PTR _wDataIndex$[ebp], ax
  00087	33 c0		 xor	 eax, eax
  00089	66 89 85 cc bf
	ff ff		 mov	 WORD PTR _wPacketSize$[ebp], ax

; 2139 : 
; 2140 : 	//循环发送
; 2141 : 	for(int nIndex=0;nIndex<pDBOUserRemarksInfo->wFriendCount;++nIndex)

  00090	c7 85 c8 bf ff
	ff 00 00 00 00	 mov	 DWORD PTR _nIndex$2[ebp], 0
  0009a	eb 0f		 jmp	 SHORT $LN4@OnDBLoadUs
$LN2@OnDBLoadUs:
  0009c	8b 85 c8 bf ff
	ff		 mov	 eax, DWORD PTR _nIndex$2[ebp]
  000a2	83 c0 01	 add	 eax, 1
  000a5	89 85 c8 bf ff
	ff		 mov	 DWORD PTR _nIndex$2[ebp], eax
$LN4@OnDBLoadUs:
  000ab	8b 45 f4	 mov	 eax, DWORD PTR _pDBOUserRemarksInfo$[ebp]
  000ae	0f b7 48 04	 movzx	 ecx, WORD PTR [eax+4]
  000b2	39 8d c8 bf ff
	ff		 cmp	 DWORD PTR _nIndex$2[ebp], ecx
  000b8	0f 8d 1c 01 00
	00		 jge	 $LN3@OnDBLoadUs

; 2142 : 	{
; 2143 : 		//设置变量
; 2144 : 		pUserRemarksInfo = &pDBOUserRemarksInfo->RemarksInfo[nIndex];

  000be	6b 85 c8 bf ff
	ff 24		 imul	 eax, DWORD PTR _nIndex$2[ebp], 36
  000c5	8b 4d f4	 mov	 ecx, DWORD PTR _pDBOUserRemarksInfo$[ebp]
  000c8	8d 54 01 06	 lea	 edx, DWORD PTR [ecx+eax+6]
  000cc	89 55 f0	 mov	 DWORD PTR _pUserRemarksInfo$[ebp], edx

; 2145 : 
; 2146 : 		//变量定义		
; 2147 : 		tagUserRemarksInfo * pSendUserRemarksInfo=(tagUserRemarksInfo *)&cbDataBuffer;

  000cf	8d 85 d4 bf ff
	ff		 lea	 eax, DWORD PTR _cbDataBuffer$[ebp]
  000d5	89 85 c4 bf ff
	ff		 mov	 DWORD PTR _pSendUserRemarksInfo$1[ebp], eax

; 2148 : 
; 2149 : 		//设置变量
; 2150 : 		pSendUserRemarksInfo->dwFriendUserID=pUserRemarksInfo->dwFriendUserID;

  000db	8b 85 c4 bf ff
	ff		 mov	 eax, DWORD PTR _pSendUserRemarksInfo$1[ebp]
  000e1	8b 4d f0	 mov	 ecx, DWORD PTR _pUserRemarksInfo$[ebp]
  000e4	8b 11		 mov	 edx, DWORD PTR [ecx]
  000e6	89 10		 mov	 DWORD PTR [eax], edx

; 2151 : 		lstrcpyn(pSendUserRemarksInfo->szRemarksInfo,pUserRemarksInfo->szRemarksInfo,CountArray(pSendUserRemarksInfo->szRemarksInfo));

  000e8	6a 20		 push	 32			; 00000020H
  000ea	8b 45 f0	 mov	 eax, DWORD PTR _pUserRemarksInfo$[ebp]
  000ed	83 c0 04	 add	 eax, 4
  000f0	50		 push	 eax
  000f1	8b 8d c4 bf ff
	ff		 mov	 ecx, DWORD PTR _pSendUserRemarksInfo$1[ebp]
  000f7	83 c1 04	 add	 ecx, 4
  000fa	51		 push	 ecx
  000fb	ff 15 00 00 00
	00		 call	 DWORD PTR __imp__lstrcpynA@12

; 2152 : 
; 2153 : 		//设置变量
; 2154 : 		wPacketSize = sizeof(tagUserRemarksInfo)-sizeof(pSendUserRemarksInfo->szRemarksInfo)+CountStringBuffer(pSendUserRemarksInfo->szRemarksInfo);

  00101	8b 85 c4 bf ff
	ff		 mov	 eax, DWORD PTR _pSendUserRemarksInfo$1[ebp]
  00107	83 c0 04	 add	 eax, 4
  0010a	50		 push	 eax
  0010b	ff 15 00 00 00
	00		 call	 DWORD PTR __imp__lstrlenA@4
  00111	83 c0 05	 add	 eax, 5
  00114	66 89 85 cc bf
	ff ff		 mov	 WORD PTR _wPacketSize$[ebp], ax

; 2155 : 
; 2156 : 		//发送判断
; 2157 : 		if(wDataIndex+wPacketSize+sizeof(BYTE)>CountArray(cbSendBuffer))

  0011b	0f b7 85 d0 bf
	ff ff		 movzx	 eax, WORD PTR _wDataIndex$[ebp]
  00122	0f b7 8d cc bf
	ff ff		 movzx	 ecx, WORD PTR _wPacketSize$[ebp]
  00129	8d 54 08 01	 lea	 edx, DWORD PTR [eax+ecx+1]
  0012d	81 fa f8 3f 00
	00		 cmp	 edx, 16376		; 00003ff8H
  00133	76 41		 jbe	 SHORT $LN6@OnDBLoadUs

; 2158 : 		{			
; 2159 : 			//发送消息
; 2160 : 			SendData(dwContextID,MDM_GC_LOGON,SUB_S_USER_REMARKS,cbSendBuffer,wDataIndex);

  00135	0f b7 85 d0 bf
	ff ff		 movzx	 eax, WORD PTR _wDataIndex$[ebp]
  0013c	50		 push	 eax
  0013d	8d 8d f8 bf ff
	ff		 lea	 ecx, DWORD PTR _cbSendBuffer$[ebp]
  00143	51		 push	 ecx
  00144	68 30 01 00 00	 push	 304			; 00000130H
  00149	6a 01		 push	 1
  0014b	8b 55 08	 mov	 edx, DWORD PTR _dwContextID$[ebp]
  0014e	52		 push	 edx
  0014f	8b 4d f8	 mov	 ecx, DWORD PTR _this$[ebp]
  00152	e8 00 00 00 00	 call	 ?SendData@CAttemperEngineSink@@IAE_NKGGPAXG@Z ; CAttemperEngineSink::SendData

; 2161 : 
; 2162 : 			//设置变量
; 2163 : 			ZeroMemory(cbSendBuffer,sizeof(cbSendBuffer));

  00157	68 f8 3f 00 00	 push	 16376			; 00003ff8H
  0015c	6a 00		 push	 0
  0015e	8d 85 f8 bf ff
	ff		 lea	 eax, DWORD PTR _cbSendBuffer$[ebp]
  00164	50		 push	 eax
  00165	e8 00 00 00 00	 call	 _memset
  0016a	83 c4 0c	 add	 esp, 12			; 0000000cH

; 2164 : 			wDataIndex = 0;

  0016d	33 c0		 xor	 eax, eax
  0016f	66 89 85 d0 bf
	ff ff		 mov	 WORD PTR _wDataIndex$[ebp], ax
$LN6@OnDBLoadUs:

; 2165 : 		}
; 2166 : 
; 2167 : 		//拷贝数据
; 2168 : 		CopyMemory(&cbSendBuffer[wDataIndex],&wPacketSize,sizeof(BYTE));

  00176	6a 01		 push	 1
  00178	8d 85 cc bf ff
	ff		 lea	 eax, DWORD PTR _wPacketSize$[ebp]
  0017e	50		 push	 eax
  0017f	0f b7 8d d0 bf
	ff ff		 movzx	 ecx, WORD PTR _wDataIndex$[ebp]
  00186	8d 94 0d f8 bf
	ff ff		 lea	 edx, DWORD PTR _cbSendBuffer$[ebp+ecx]
  0018d	52		 push	 edx
  0018e	e8 00 00 00 00	 call	 _memcpy
  00193	83 c4 0c	 add	 esp, 12			; 0000000cH

; 2169 : 		CopyMemory(&cbSendBuffer[wDataIndex+sizeof(BYTE)],cbDataBuffer,wPacketSize);

  00196	0f b7 85 cc bf
	ff ff		 movzx	 eax, WORD PTR _wPacketSize$[ebp]
  0019d	50		 push	 eax
  0019e	8d 8d d4 bf ff
	ff		 lea	 ecx, DWORD PTR _cbDataBuffer$[ebp]
  001a4	51		 push	 ecx
  001a5	0f b7 95 d0 bf
	ff ff		 movzx	 edx, WORD PTR _wDataIndex$[ebp]
  001ac	8d 84 15 f9 bf
	ff ff		 lea	 eax, DWORD PTR _cbSendBuffer$[ebp+edx+1]
  001b3	50		 push	 eax
  001b4	e8 00 00 00 00	 call	 _memcpy
  001b9	83 c4 0c	 add	 esp, 12			; 0000000cH

; 2170 : 
; 2171 : 		//设置变量
; 2172 : 		wDataIndex += sizeof(BYTE)+wPacketSize;

  001bc	0f b7 85 cc bf
	ff ff		 movzx	 eax, WORD PTR _wPacketSize$[ebp]
  001c3	0f b7 8d d0 bf
	ff ff		 movzx	 ecx, WORD PTR _wDataIndex$[ebp]
  001ca	8d 54 01 01	 lea	 edx, DWORD PTR [ecx+eax+1]
  001ce	66 89 95 d0 bf
	ff ff		 mov	 WORD PTR _wDataIndex$[ebp], dx

; 2173 : 	}

  001d5	e9 c2 fe ff ff	 jmp	 $LN2@OnDBLoadUs
$LN3@OnDBLoadUs:

; 2174 : 
; 2175 : 	//剩余发送
; 2176 : 	if(wDataIndex>0)

  001da	0f b7 85 d0 bf
	ff ff		 movzx	 eax, WORD PTR _wDataIndex$[ebp]
  001e1	85 c0		 test	 eax, eax
  001e3	7e 22		 jle	 SHORT $LN7@OnDBLoadUs

; 2177 : 	{
; 2178 : 		//发送消息
; 2179 : 		SendData(dwContextID,MDM_GC_LOGON,SUB_S_USER_REMARKS,cbSendBuffer,wDataIndex);			

  001e5	0f b7 85 d0 bf
	ff ff		 movzx	 eax, WORD PTR _wDataIndex$[ebp]
  001ec	50		 push	 eax
  001ed	8d 8d f8 bf ff
	ff		 lea	 ecx, DWORD PTR _cbSendBuffer$[ebp]
  001f3	51		 push	 ecx
  001f4	68 30 01 00 00	 push	 304			; 00000130H
  001f9	6a 01		 push	 1
  001fb	8b 55 08	 mov	 edx, DWORD PTR _dwContextID$[ebp]
  001fe	52		 push	 edx
  001ff	8b 4d f8	 mov	 ecx, DWORD PTR _this$[ebp]
  00202	e8 00 00 00 00	 call	 ?SendData@CAttemperEngineSink@@IAE_NKGGPAXG@Z ; CAttemperEngineSink::SendData
$LN7@OnDBLoadUs:

; 2180 : 	}
; 2181 : 
; 2182 : 	return true;

  00207	b0 01		 mov	 al, 1
$LN1@OnDBLoadUs:

; 2183 : }

  00209	5f		 pop	 edi
  0020a	5e		 pop	 esi
  0020b	5b		 pop	 ebx
  0020c	8b 4d fc	 mov	 ecx, DWORD PTR __$ArrayPad$[ebp]
  0020f	33 cd		 xor	 ecx, ebp
  00211	e8 00 00 00 00	 call	 @__security_check_cookie@4
  00216	8b e5		 mov	 esp, ebp
  00218	5d		 pop	 ebp
  00219	c2 0c 00	 ret	 12			; 0000000cH
?OnDBLoadUserRemarksInfo@CAttemperEngineSink@@IAE_NKPAXG@Z ENDP ; CAttemperEngineSink::OnDBLoadUserRemarksInfo
_TEXT	ENDS
; Function compile flags: /Odtp /ZI
; File g:\网狐\happygamewh\服务端\系统模块\服务器组件\聊天服务器\attemperenginesink.cpp
;	COMDAT ?OnDBLoadUserFriend@CAttemperEngineSink@@IAE_NKPAXG@Z
_TEXT	SEGMENT
_wIndex$1 = -880					; size = 2
_pUserFriendGroup$ = -876				; size = 4
_ServerFriendInfo$ = -872				; size = 7
_wPacketDataSize$2 = -864				; size = 2
_IPCUserFriendInfo$ = -860				; size = 827
_wFriendCount$ = -32					; size = 2
_pUserInfo$3 = -28					; size = 4
_pLocalUserItem$4 = -24					; size = 4
_pServerUserItem$5 = -20				; size = 4
_wIndex$6 = -16						; size = 2
_pUserFriendInfo$ = -12					; size = 4
_this$ = -8						; size = 4
__$ArrayPad$ = -4					; size = 4
_dwContextID$ = 8					; size = 4
_pData$ = 12						; size = 4
_wDataSize$ = 16					; size = 2
?OnDBLoadUserFriend@CAttemperEngineSink@@IAE_NKPAXG@Z PROC ; CAttemperEngineSink::OnDBLoadUserFriend, COMDAT
; _this$ = ecx

; 2005 : {

  00000	55		 push	 ebp
  00001	8b ec		 mov	 ebp, esp
  00003	81 ec f0 03 00
	00		 sub	 esp, 1008		; 000003f0H
  00009	a1 00 00 00 00	 mov	 eax, DWORD PTR ___security_cookie
  0000e	33 c5		 xor	 eax, ebp
  00010	89 45 fc	 mov	 DWORD PTR __$ArrayPad$[ebp], eax
  00013	53		 push	 ebx
  00014	56		 push	 esi
  00015	57		 push	 edi
  00016	89 4d f8	 mov	 DWORD PTR _this$[ebp], ecx

; 2006 : 	//参数校验
; 2007 : 	ASSERT(wDataSize<=sizeof(DBO_GR_UserFriendInfo));

  00019	0f b7 45 10	 movzx	 eax, WORD PTR _wDataSize$[ebp]
  0001d	3d 94 84 02 00	 cmp	 eax, 165012		; 00028494H
  00022	76 19		 jbe	 SHORT $LN18@OnDBLoadUs
  00024	8b 0d 00 00 00
	00		 mov	 ecx, DWORD PTR ?__LINE__Var@?0??OnDBLoadUserFriend@CAttemperEngineSink@@IAE_NKPAXG@Z@4JA
  0002a	83 c1 02	 add	 ecx, 2
  0002d	51		 push	 ecx
  0002e	68 00 00 00 00	 push	 OFFSET ?THIS_FILE@@3PADA
  00033	e8 00 00 00 00	 call	 ?AfxAssertFailedLine@@YGHPBDH@Z ; AfxAssertFailedLine
  00038	85 c0		 test	 eax, eax
  0003a	74 01		 je	 SHORT $LN18@OnDBLoadUs
  0003c	cc		 int	 3
$LN18@OnDBLoadUs:

; 2008 : 	if(wDataSize>sizeof(DBO_GR_UserFriendInfo)) return false;

  0003d	0f b7 45 10	 movzx	 eax, WORD PTR _wDataSize$[ebp]
  00041	3d 94 84 02 00	 cmp	 eax, 165012		; 00028494H
  00046	76 07		 jbe	 SHORT $LN10@OnDBLoadUs
  00048	32 c0		 xor	 al, al
  0004a	e9 e8 04 00 00	 jmp	 $LN1@OnDBLoadUs
$LN10@OnDBLoadUs:

; 2009 : 
; 2010 : 	//提取数据
; 2011 : 	DBO_GR_UserFriendInfo * pUserFriendInfo = (DBO_GR_UserFriendInfo *)pData;

  0004f	8b 45 0c	 mov	 eax, DWORD PTR _pData$[ebp]
  00052	89 45 f4	 mov	 DWORD PTR _pUserFriendInfo$[ebp], eax

; 2012 : 	ASSERT(pUserFriendInfo);

  00055	83 7d f4 00	 cmp	 DWORD PTR _pUserFriendInfo$[ebp], 0
  00059	75 18		 jne	 SHORT $LN19@OnDBLoadUs
  0005b	a1 00 00 00 00	 mov	 eax, DWORD PTR ?__LINE__Var@?0??OnDBLoadUserFriend@CAttemperEngineSink@@IAE_NKPAXG@Z@4JA
  00060	83 c0 07	 add	 eax, 7
  00063	50		 push	 eax
  00064	68 00 00 00 00	 push	 OFFSET ?THIS_FILE@@3PADA
  00069	e8 00 00 00 00	 call	 ?AfxAssertFailedLine@@YGHPBDH@Z ; AfxAssertFailedLine
  0006e	85 c0		 test	 eax, eax
  00070	74 01		 je	 SHORT $LN19@OnDBLoadUs
  00072	cc		 int	 3
$LN19@OnDBLoadUs:

; 2013 : 
; 2014 : 	//在线信息
; 2015 : 	for(WORD wIndex=0;wIndex<pUserFriendInfo->wFriendCount;++wIndex)

  00073	33 c0		 xor	 eax, eax
  00075	66 89 45 f0	 mov	 WORD PTR _wIndex$6[ebp], ax
  00079	eb 0c		 jmp	 SHORT $LN4@OnDBLoadUs
$LN2@OnDBLoadUs:
  0007b	66 8b 45 f0	 mov	 ax, WORD PTR _wIndex$6[ebp]
  0007f	66 83 c0 01	 add	 ax, 1
  00083	66 89 45 f0	 mov	 WORD PTR _wIndex$6[ebp], ax
$LN4@OnDBLoadUs:
  00087	0f b7 45 f0	 movzx	 eax, WORD PTR _wIndex$6[ebp]
  0008b	8b 4d f4	 mov	 ecx, DWORD PTR _pUserFriendInfo$[ebp]
  0008e	0f b7 51 08	 movzx	 edx, WORD PTR [ecx+8]
  00092	3b c2		 cmp	 eax, edx
  00094	0f 8d 28 02 00
	00		 jge	 $LN3@OnDBLoadUs

; 2016 : 	{
; 2017 : 		//查找用户
; 2018 : 		CServerUserItem * pServerUserItem=m_ServerUserManager.SearchUserItem(pUserFriendInfo->FriendInfo[wIndex].dwUserID);

  0009a	0f b7 45 f0	 movzx	 eax, WORD PTR _wIndex$6[ebp]
  0009e	69 c8 a5 00 00
	00		 imul	 ecx, eax, 165
  000a4	8b 55 f4	 mov	 edx, DWORD PTR _pUserFriendInfo$[ebp]
  000a7	8b 44 0a 0a	 mov	 eax, DWORD PTR [edx+ecx+10]
  000ab	50		 push	 eax
  000ac	8b 4d f8	 mov	 ecx, DWORD PTR _this$[ebp]
  000af	83 c1 1c	 add	 ecx, 28			; 0000001cH
  000b2	8b 55 f8	 mov	 edx, DWORD PTR _this$[ebp]
  000b5	8b 42 1c	 mov	 eax, DWORD PTR [edx+28]
  000b8	8b 50 08	 mov	 edx, DWORD PTR [eax+8]
  000bb	ff d2		 call	 edx
  000bd	89 45 ec	 mov	 DWORD PTR _pServerUserItem$5[ebp], eax

; 2019 : 		if(pServerUserItem==NULL)

  000c0	83 7d ec 00	 cmp	 DWORD PTR _pServerUserItem$5[ebp], 0
  000c4	0f 85 d6 00 00
	00		 jne	 $LN11@OnDBLoadUs

; 2020 : 		{
; 2021 : 			//设置状态
; 2022 : 			pUserFriendInfo->FriendInfo[wIndex].cbMainStatus=FRIEND_US_OFFLINE;

  000ca	0f b7 45 f0	 movzx	 eax, WORD PTR _wIndex$6[ebp]
  000ce	69 c8 a5 00 00
	00		 imul	 ecx, eax, 165
  000d4	8b 55 f4	 mov	 edx, DWORD PTR _pUserFriendInfo$[ebp]
  000d7	c6 84 0a 85 00
	00 00 00	 mov	 BYTE PTR [edx+ecx+133], 0

; 2023 : 			pUserFriendInfo->FriendInfo[wIndex].cbGameStatus=US_NULL;

  000df	0f b7 45 f0	 movzx	 eax, WORD PTR _wIndex$6[ebp]
  000e3	69 c8 a5 00 00
	00		 imul	 ecx, eax, 165
  000e9	8b 55 f4	 mov	 edx, DWORD PTR _pUserFriendInfo$[ebp]
  000ec	c6 84 0a 86 00
	00 00 00	 mov	 BYTE PTR [edx+ecx+134], 0

; 2024 : 			pUserFriendInfo->FriendInfo[wIndex].wKindID=INVALID_KIND;

  000f4	0f b7 45 f0	 movzx	 eax, WORD PTR _wIndex$6[ebp]
  000f8	69 c8 a5 00 00
	00		 imul	 ecx, eax, 165
  000fe	ba ff ff 00 00	 mov	 edx, 65535		; 0000ffffH
  00103	8b 45 f4	 mov	 eax, DWORD PTR _pUserFriendInfo$[ebp]
  00106	66 89 94 08 87
	00 00 00	 mov	 WORD PTR [eax+ecx+135], dx

; 2025 : 			pUserFriendInfo->FriendInfo[wIndex].wServerID=INVALID_SERVER;

  0010e	0f b7 45 f0	 movzx	 eax, WORD PTR _wIndex$6[ebp]
  00112	69 c8 a5 00 00
	00		 imul	 ecx, eax, 165
  00118	ba ff ff 00 00	 mov	 edx, 65535		; 0000ffffH
  0011d	8b 45 f4	 mov	 eax, DWORD PTR _pUserFriendInfo$[ebp]
  00120	66 89 94 08 89
	00 00 00	 mov	 WORD PTR [eax+ecx+137], dx

; 2026 : 			pUserFriendInfo->FriendInfo[wIndex].wTableID=INVALID_TABLE;

  00128	0f b7 45 f0	 movzx	 eax, WORD PTR _wIndex$6[ebp]
  0012c	69 c8 a5 00 00
	00		 imul	 ecx, eax, 165
  00132	ba ff ff 00 00	 mov	 edx, 65535		; 0000ffffH
  00137	8b 45 f4	 mov	 eax, DWORD PTR _pUserFriendInfo$[ebp]
  0013a	66 89 94 08 8b
	00 00 00	 mov	 WORD PTR [eax+ecx+139], dx

; 2027 : 			pUserFriendInfo->FriendInfo[wIndex].wChairID=INVALID_CHAIR;

  00142	0f b7 45 f0	 movzx	 eax, WORD PTR _wIndex$6[ebp]
  00146	69 c8 a5 00 00
	00		 imul	 ecx, eax, 165
  0014c	ba ff ff 00 00	 mov	 edx, 65535		; 0000ffffH
  00151	8b 45 f4	 mov	 eax, DWORD PTR _pUserFriendInfo$[ebp]
  00154	66 89 94 08 8d
	00 00 00	 mov	 WORD PTR [eax+ecx+141], dx

; 2028 : 			ZeroMemory(pUserFriendInfo->FriendInfo[wIndex].szServerName,CountArray(pUserFriendInfo->FriendInfo[wIndex].szServerName));

  0015c	6a 20		 push	 32			; 00000020H
  0015e	6a 00		 push	 0
  00160	0f b7 45 f0	 movzx	 eax, WORD PTR _wIndex$6[ebp]
  00164	69 c8 a5 00 00
	00		 imul	 ecx, eax, 165
  0016a	8b 55 f4	 mov	 edx, DWORD PTR _pUserFriendInfo$[ebp]
  0016d	8d 84 0a 8f 00
	00 00		 lea	 eax, DWORD PTR [edx+ecx+143]
  00174	50		 push	 eax
  00175	e8 00 00 00 00	 call	 _memset
  0017a	83 c4 0c	 add	 esp, 12			; 0000000cH

; 2029 : 			ZeroMemory(pUserFriendInfo->FriendInfo[wIndex].szPhoneMode,CountArray(pUserFriendInfo->FriendInfo[wIndex].szPhoneMode));

  0017d	6a 15		 push	 21			; 00000015H
  0017f	6a 00		 push	 0
  00181	0f b7 45 f0	 movzx	 eax, WORD PTR _wIndex$6[ebp]
  00185	69 c8 a5 00 00
	00		 imul	 ecx, eax, 165
  0018b	8b 55 f4	 mov	 edx, DWORD PTR _pUserFriendInfo$[ebp]
  0018e	8d 44 0a 6f	 lea	 eax, DWORD PTR [edx+ecx+111]
  00192	50		 push	 eax
  00193	e8 00 00 00 00	 call	 _memset
  00198	83 c4 0c	 add	 esp, 12			; 0000000cH

; 2030 : 			continue;

  0019b	e9 db fe ff ff	 jmp	 $LN2@OnDBLoadUs
$LN11@OnDBLoadUs:

; 2031 : 		}
; 2032 : 
; 2033 : 		CLocalUserItem * pLocalUserItem = (CLocalUserItem *)pServerUserItem;

  001a0	8b 45 ec	 mov	 eax, DWORD PTR _pServerUserItem$5[ebp]
  001a3	89 45 e8	 mov	 DWORD PTR _pLocalUserItem$4[ebp], eax

; 2034 : 		tagFriendUserInfo * pUserInfo = pLocalUserItem->GetUserInfo();

  001a6	8b 45 e8	 mov	 eax, DWORD PTR _pLocalUserItem$4[ebp]
  001a9	8b 10		 mov	 edx, DWORD PTR [eax]
  001ab	8b 4d e8	 mov	 ecx, DWORD PTR _pLocalUserItem$4[ebp]
  001ae	8b 42 28	 mov	 eax, DWORD PTR [edx+40]
  001b1	ff d0		 call	 eax
  001b3	89 45 e4	 mov	 DWORD PTR _pUserInfo$3[ebp], eax

; 2035 : 
; 2036 : 		//设置变量
; 2037 : 		pUserFriendInfo->FriendInfo[wIndex].cbMainStatus=pServerUserItem->GetMainStatus();

  001b6	8b 45 ec	 mov	 eax, DWORD PTR _pServerUserItem$5[ebp]
  001b9	8b 10		 mov	 edx, DWORD PTR [eax]
  001bb	8b 4d ec	 mov	 ecx, DWORD PTR _pServerUserItem$5[ebp]
  001be	8b 42 10	 mov	 eax, DWORD PTR [edx+16]
  001c1	ff d0		 call	 eax
  001c3	0f b7 4d f0	 movzx	 ecx, WORD PTR _wIndex$6[ebp]
  001c7	69 d1 a5 00 00
	00		 imul	 edx, ecx, 165
  001cd	8b 4d f4	 mov	 ecx, DWORD PTR _pUserFriendInfo$[ebp]
  001d0	88 84 11 85 00
	00 00		 mov	 BYTE PTR [ecx+edx+133], al

; 2038 : 		pUserFriendInfo->FriendInfo[wIndex].cbGameStatus=pServerUserItem->GetGameStatus();

  001d7	8b 45 ec	 mov	 eax, DWORD PTR _pServerUserItem$5[ebp]
  001da	8b 10		 mov	 edx, DWORD PTR [eax]
  001dc	8b 4d ec	 mov	 ecx, DWORD PTR _pServerUserItem$5[ebp]
  001df	8b 42 14	 mov	 eax, DWORD PTR [edx+20]
  001e2	ff d0		 call	 eax
  001e4	0f b7 4d f0	 movzx	 ecx, WORD PTR _wIndex$6[ebp]
  001e8	69 d1 a5 00 00
	00		 imul	 edx, ecx, 165
  001ee	8b 4d f4	 mov	 ecx, DWORD PTR _pUserFriendInfo$[ebp]
  001f1	88 84 11 86 00
	00 00		 mov	 BYTE PTR [ecx+edx+134], al

; 2039 : 		pUserFriendInfo->FriendInfo[wIndex].wKindID=pUserInfo->wKindID;

  001f8	0f b7 45 f0	 movzx	 eax, WORD PTR _wIndex$6[ebp]
  001fc	69 c8 a5 00 00
	00		 imul	 ecx, eax, 165
  00202	8b 55 f4	 mov	 edx, DWORD PTR _pUserFriendInfo$[ebp]
  00205	8b 45 e4	 mov	 eax, DWORD PTR _pUserInfo$3[ebp]
  00208	66 8b 80 6e 01
	00 00		 mov	 ax, WORD PTR [eax+366]
  0020f	66 89 84 0a 87
	00 00 00	 mov	 WORD PTR [edx+ecx+135], ax

; 2040 : 		pUserFriendInfo->FriendInfo[wIndex].wServerID=pUserInfo->wServerID;

  00217	0f b7 45 f0	 movzx	 eax, WORD PTR _wIndex$6[ebp]
  0021b	69 c8 a5 00 00
	00		 imul	 ecx, eax, 165
  00221	8b 55 f4	 mov	 edx, DWORD PTR _pUserFriendInfo$[ebp]
  00224	8b 45 e4	 mov	 eax, DWORD PTR _pUserInfo$3[ebp]
  00227	66 8b 80 70 01
	00 00		 mov	 ax, WORD PTR [eax+368]
  0022e	66 89 84 0a 89
	00 00 00	 mov	 WORD PTR [edx+ecx+137], ax

; 2041 : 		pUserFriendInfo->FriendInfo[wIndex].wTableID=pUserInfo->wTableID;

  00236	0f b7 45 f0	 movzx	 eax, WORD PTR _wIndex$6[ebp]
  0023a	69 c8 a5 00 00
	00		 imul	 ecx, eax, 165
  00240	8b 55 f4	 mov	 edx, DWORD PTR _pUserFriendInfo$[ebp]
  00243	8b 45 e4	 mov	 eax, DWORD PTR _pUserInfo$3[ebp]
  00246	66 8b 80 72 01
	00 00		 mov	 ax, WORD PTR [eax+370]
  0024d	66 89 84 0a 8b
	00 00 00	 mov	 WORD PTR [edx+ecx+139], ax

; 2042 : 		pUserFriendInfo->FriendInfo[wIndex].wChairID=pUserInfo->wChairID;

  00255	0f b7 45 f0	 movzx	 eax, WORD PTR _wIndex$6[ebp]
  00259	69 c8 a5 00 00
	00		 imul	 ecx, eax, 165
  0025f	8b 55 f4	 mov	 edx, DWORD PTR _pUserFriendInfo$[ebp]
  00262	8b 45 e4	 mov	 eax, DWORD PTR _pUserInfo$3[ebp]
  00265	66 8b 80 74 01
	00 00		 mov	 ax, WORD PTR [eax+372]
  0026c	66 89 84 0a 8d
	00 00 00	 mov	 WORD PTR [edx+ecx+141], ax

; 2043 : 		lstrcpyn(pUserFriendInfo->FriendInfo[wIndex].szServerName,pUserInfo->szServerName,CountArray(pUserFriendInfo->FriendInfo[wIndex].szServerName));

  00274	6a 20		 push	 32			; 00000020H
  00276	8b 45 e4	 mov	 eax, DWORD PTR _pUserInfo$3[ebp]
  00279	05 76 01 00 00	 add	 eax, 374		; 00000176H
  0027e	50		 push	 eax
  0027f	0f b7 4d f0	 movzx	 ecx, WORD PTR _wIndex$6[ebp]
  00283	69 d1 a5 00 00
	00		 imul	 edx, ecx, 165
  00289	8b 45 f4	 mov	 eax, DWORD PTR _pUserFriendInfo$[ebp]
  0028c	8d 8c 10 8f 00
	00 00		 lea	 ecx, DWORD PTR [eax+edx+143]
  00293	51		 push	 ecx
  00294	ff 15 00 00 00
	00		 call	 DWORD PTR __imp__lstrcpynA@12

; 2044 : 		lstrcpyn(pUserFriendInfo->FriendInfo[wIndex].szPhoneMode,pUserInfo->szPhoneMode,CountArray(pUserFriendInfo->FriendInfo[wIndex].szPhoneMode));

  0029a	6a 15		 push	 21			; 00000015H
  0029c	8b 45 e4	 mov	 eax, DWORD PTR _pUserInfo$3[ebp]
  0029f	05 96 01 00 00	 add	 eax, 406		; 00000196H
  002a4	50		 push	 eax
  002a5	0f b7 4d f0	 movzx	 ecx, WORD PTR _wIndex$6[ebp]
  002a9	69 d1 a5 00 00
	00		 imul	 edx, ecx, 165
  002af	8b 45 f4	 mov	 eax, DWORD PTR _pUserFriendInfo$[ebp]
  002b2	8d 4c 10 6f	 lea	 ecx, DWORD PTR [eax+edx+111]
  002b6	51		 push	 ecx
  002b7	ff 15 00 00 00
	00		 call	 DWORD PTR __imp__lstrcpynA@12

; 2045 : 	}

  002bd	e9 b9 fd ff ff	 jmp	 $LN2@OnDBLoadUs
$LN3@OnDBLoadUs:

; 2046 : 
; 2047 : 	//变量定义
; 2048 : 	WORD wFriendCount=pUserFriendInfo->wFriendCount;

  002c2	8b 45 f4	 mov	 eax, DWORD PTR _pUserFriendInfo$[ebp]
  002c5	66 8b 48 08	 mov	 cx, WORD PTR [eax+8]
  002c9	66 89 4d e0	 mov	 WORD PTR _wFriendCount$[ebp], cx
$LN5@OnDBLoadUs:

; 2049 : 	CMD_GC_UserFriendInfo IPCUserFriendInfo;
; 2050 : 
; 2051 : 
; 2052 : 	//循环发送
; 2053 : 	while(wFriendCount>CountArray(IPCUserFriendInfo.FriendInfo))

  002cd	0f b7 45 e0	 movzx	 eax, WORD PTR _wFriendCount$[ebp]
  002d1	83 f8 05	 cmp	 eax, 5
  002d4	76 70		 jbe	 SHORT $LN6@OnDBLoadUs

; 2054 : 	{
; 2055 : 		//拷贝数据
; 2056 : 		IPCUserFriendInfo.wFriendCount=CountArray(IPCUserFriendInfo.FriendInfo);

  002d6	b8 05 00 00 00	 mov	 eax, 5
  002db	66 89 85 a4 fc
	ff ff		 mov	 WORD PTR _IPCUserFriendInfo$[ebp], ax

; 2057 : 		CopyMemory(IPCUserFriendInfo.FriendInfo,&pUserFriendInfo->FriendInfo[pUserFriendInfo->wFriendCount-wFriendCount],sizeof(tagClientFriendInfo)*IPCUserFriendInfo.wFriendCount);

  002e2	0f b7 85 a4 fc
	ff ff		 movzx	 eax, WORD PTR _IPCUserFriendInfo$[ebp]
  002e9	69 c8 a5 00 00
	00		 imul	 ecx, eax, 165
  002ef	51		 push	 ecx
  002f0	8b 55 f4	 mov	 edx, DWORD PTR _pUserFriendInfo$[ebp]
  002f3	0f b7 42 08	 movzx	 eax, WORD PTR [edx+8]
  002f7	0f b7 4d e0	 movzx	 ecx, WORD PTR _wFriendCount$[ebp]
  002fb	2b c1		 sub	 eax, ecx
  002fd	69 d0 a5 00 00
	00		 imul	 edx, eax, 165
  00303	8b 45 f4	 mov	 eax, DWORD PTR _pUserFriendInfo$[ebp]
  00306	8d 4c 10 0a	 lea	 ecx, DWORD PTR [eax+edx+10]
  0030a	51		 push	 ecx
  0030b	8d 95 a6 fc ff
	ff		 lea	 edx, DWORD PTR _IPCUserFriendInfo$[ebp+2]
  00311	52		 push	 edx
  00312	e8 00 00 00 00	 call	 _memcpy
  00317	83 c4 0c	 add	 esp, 12			; 0000000cH

; 2058 : 
; 2059 : 		//发送数据
; 2060 : 		SendData(dwContextID,MDM_GC_LOGON,SUB_S_USER_FRIEND,&IPCUserFriendInfo,sizeof(IPCUserFriendInfo));

  0031a	68 3b 03 00 00	 push	 827			; 0000033bH
  0031f	8d 85 a4 fc ff
	ff		 lea	 eax, DWORD PTR _IPCUserFriendInfo$[ebp]
  00325	50		 push	 eax
  00326	68 2f 01 00 00	 push	 303			; 0000012fH
  0032b	6a 01		 push	 1
  0032d	8b 4d 08	 mov	 ecx, DWORD PTR _dwContextID$[ebp]
  00330	51		 push	 ecx
  00331	8b 4d f8	 mov	 ecx, DWORD PTR _this$[ebp]
  00334	e8 00 00 00 00	 call	 ?SendData@CAttemperEngineSink@@IAE_NKGGPAXG@Z ; CAttemperEngineSink::SendData

; 2061 : 
; 2062 : 		//设置变量
; 2063 : 		wFriendCount -= CountArray(IPCUserFriendInfo.FriendInfo);

  00339	0f b7 45 e0	 movzx	 eax, WORD PTR _wFriendCount$[ebp]
  0033d	83 e8 05	 sub	 eax, 5
  00340	66 89 45 e0	 mov	 WORD PTR _wFriendCount$[ebp], ax

; 2064 : 	}

  00344	eb 87		 jmp	 SHORT $LN5@OnDBLoadUs
$LN6@OnDBLoadUs:

; 2065 : 
; 2066 : 	//剩余发送
; 2067 : 	if(wFriendCount>0)

  00346	0f b7 45 e0	 movzx	 eax, WORD PTR _wFriendCount$[ebp]
  0034a	85 c0		 test	 eax, eax
  0034c	7e 76		 jle	 SHORT $LN12@OnDBLoadUs

; 2068 : 	{
; 2069 : 		//拷贝数据
; 2070 : 		IPCUserFriendInfo.wFriendCount=wFriendCount;

  0034e	66 8b 45 e0	 mov	 ax, WORD PTR _wFriendCount$[ebp]
  00352	66 89 85 a4 fc
	ff ff		 mov	 WORD PTR _IPCUserFriendInfo$[ebp], ax

; 2071 : 		CopyMemory(IPCUserFriendInfo.FriendInfo,&pUserFriendInfo->FriendInfo[pUserFriendInfo->wFriendCount-wFriendCount],sizeof(tagClientFriendInfo)*wFriendCount);

  00359	0f b7 45 e0	 movzx	 eax, WORD PTR _wFriendCount$[ebp]
  0035d	69 c8 a5 00 00
	00		 imul	 ecx, eax, 165
  00363	51		 push	 ecx
  00364	8b 55 f4	 mov	 edx, DWORD PTR _pUserFriendInfo$[ebp]
  00367	0f b7 42 08	 movzx	 eax, WORD PTR [edx+8]
  0036b	0f b7 4d e0	 movzx	 ecx, WORD PTR _wFriendCount$[ebp]
  0036f	2b c1		 sub	 eax, ecx
  00371	69 d0 a5 00 00
	00		 imul	 edx, eax, 165
  00377	8b 45 f4	 mov	 eax, DWORD PTR _pUserFriendInfo$[ebp]
  0037a	8d 4c 10 0a	 lea	 ecx, DWORD PTR [eax+edx+10]
  0037e	51		 push	 ecx
  0037f	8d 95 a6 fc ff
	ff		 lea	 edx, DWORD PTR _IPCUserFriendInfo$[ebp+2]
  00385	52		 push	 edx
  00386	e8 00 00 00 00	 call	 _memcpy
  0038b	83 c4 0c	 add	 esp, 12			; 0000000cH

; 2072 : 
; 2073 : 		//发送数据
; 2074 : 		WORD wPacketDataSize = sizeof(IPCUserFriendInfo)-sizeof(IPCUserFriendInfo.FriendInfo)+sizeof(tagClientFriendInfo)*wFriendCount;

  0038e	0f b7 45 e0	 movzx	 eax, WORD PTR _wFriendCount$[ebp]
  00392	69 c8 a5 00 00
	00		 imul	 ecx, eax, 165
  00398	83 c1 02	 add	 ecx, 2
  0039b	66 89 8d a0 fc
	ff ff		 mov	 WORD PTR _wPacketDataSize$2[ebp], cx

; 2075 : 
; 2076 : 		SendData(dwContextID,MDM_GC_LOGON,SUB_S_USER_FRIEND,&IPCUserFriendInfo,wPacketDataSize);

  003a2	0f b7 85 a0 fc
	ff ff		 movzx	 eax, WORD PTR _wPacketDataSize$2[ebp]
  003a9	50		 push	 eax
  003aa	8d 8d a4 fc ff
	ff		 lea	 ecx, DWORD PTR _IPCUserFriendInfo$[ebp]
  003b0	51		 push	 ecx
  003b1	68 2f 01 00 00	 push	 303			; 0000012fH
  003b6	6a 01		 push	 1
  003b8	8b 55 08	 mov	 edx, DWORD PTR _dwContextID$[ebp]
  003bb	52		 push	 edx
  003bc	8b 4d f8	 mov	 ecx, DWORD PTR _this$[ebp]
  003bf	e8 00 00 00 00	 call	 ?SendData@CAttemperEngineSink@@IAE_NKGGPAXG@Z ; CAttemperEngineSink::SendData
$LN12@OnDBLoadUs:

; 2077 : 
; 2078 : 	}
; 2079 : 
; 2080 : 	if(pUserFriendInfo->bLogonFlag==true)

  003c4	8b 45 f4	 mov	 eax, DWORD PTR _pUserFriendInfo$[ebp]
  003c7	0f b6 08	 movzx	 ecx, BYTE PTR [eax]
  003ca	83 f9 01	 cmp	 ecx, 1
  003cd	75 17		 jne	 SHORT $LN13@OnDBLoadUs

; 2081 : 	{
; 2082 : 		//登录完成
; 2083 : 		SendData(dwContextID,MDM_GC_LOGON,SUB_S_LOGON_FINISH);

  003cf	6a 00		 push	 0
  003d1	6a 00		 push	 0
  003d3	68 33 01 00 00	 push	 307			; 00000133H
  003d8	6a 01		 push	 1
  003da	8b 45 08	 mov	 eax, DWORD PTR _dwContextID$[ebp]
  003dd	50		 push	 eax
  003de	8b 4d f8	 mov	 ecx, DWORD PTR _this$[ebp]
  003e1	e8 00 00 00 00	 call	 ?SendData@CAttemperEngineSink@@IAE_NKGGPAXG@Z ; CAttemperEngineSink::SendData
$LN13@OnDBLoadUs:

; 2084 : 
; 2085 : 		////提示信息
; 2086 : 		//CTraceService::TraceString(TEXT("发送上线同步信息"),TraceLevel_Normal);
; 2087 : 	}
; 2088 : 
; 2089 : 	//变量定义
; 2090 : 	tagServerFriendInfo ServerFriendInfo;
; 2091 : 
; 2092 : 	//插入好友
; 2093 : 	CUserFriendGroup * pUserFriendGroup = m_FriendGroupManager.SearchGroupItem(pUserFriendInfo->dwUserID);

  003e6	8b 45 f4	 mov	 eax, DWORD PTR _pUserFriendInfo$[ebp]
  003e9	8b 48 04	 mov	 ecx, DWORD PTR [eax+4]
  003ec	51		 push	 ecx
  003ed	8b 4d f8	 mov	 ecx, DWORD PTR _this$[ebp]
  003f0	83 c1 68	 add	 ecx, 104		; 00000068H
  003f3	8b 55 f8	 mov	 edx, DWORD PTR _this$[ebp]
  003f6	8b 42 68	 mov	 eax, DWORD PTR [edx+104]
  003f9	8b 50 08	 mov	 edx, DWORD PTR [eax+8]
  003fc	ff d2		 call	 edx
  003fe	89 85 94 fc ff
	ff		 mov	 DWORD PTR _pUserFriendGroup$[ebp], eax

; 2094 : 	if(pUserFriendGroup==NULL)

  00404	83 bd 94 fc ff
	ff 00		 cmp	 DWORD PTR _pUserFriendGroup$[ebp], 0
  0040b	75 38		 jne	 SHORT $LN14@OnDBLoadUs

; 2095 : 	{
; 2096 : 		//激活分组
; 2097 : 		pUserFriendGroup = m_FriendGroupManager.ActiveFriendGroup(pUserFriendInfo->wFriendCount);

  0040d	8b 45 f4	 mov	 eax, DWORD PTR _pUserFriendInfo$[ebp]
  00410	0f b7 48 08	 movzx	 ecx, WORD PTR [eax+8]
  00414	51		 push	 ecx
  00415	8b 4d f8	 mov	 ecx, DWORD PTR _this$[ebp]
  00418	83 c1 68	 add	 ecx, 104		; 00000068H
  0041b	e8 00 00 00 00	 call	 ?ActiveFriendGroup@CFriendGroupManager@@QAEPAVCUserFriendGroup@@G@Z ; CFriendGroupManager::ActiveFriendGroup
  00420	89 85 94 fc ff
	ff		 mov	 DWORD PTR _pUserFriendGroup$[ebp], eax

; 2098 : 		m_FriendGroupManager.InsertFriendGroup(pUserFriendInfo->dwUserID,pUserFriendGroup);

  00426	8b 85 94 fc ff
	ff		 mov	 eax, DWORD PTR _pUserFriendGroup$[ebp]
  0042c	50		 push	 eax
  0042d	8b 4d f4	 mov	 ecx, DWORD PTR _pUserFriendInfo$[ebp]
  00430	8b 51 04	 mov	 edx, DWORD PTR [ecx+4]
  00433	52		 push	 edx
  00434	8b 4d f8	 mov	 ecx, DWORD PTR _this$[ebp]
  00437	83 c1 68	 add	 ecx, 104		; 00000068H
  0043a	8b 45 f8	 mov	 eax, DWORD PTR _this$[ebp]
  0043d	8b 50 68	 mov	 edx, DWORD PTR [eax+104]
  00440	8b 42 14	 mov	 eax, DWORD PTR [edx+20]
  00443	ff d0		 call	 eax
$LN14@OnDBLoadUs:

; 2099 : 	}
; 2100 : 
; 2101 : 	if(pUserFriendGroup!=NULL)

  00445	83 bd 94 fc ff
	ff 00		 cmp	 DWORD PTR _pUserFriendGroup$[ebp], 0
  0044c	0f 84 e3 00 00
	00		 je	 $LN15@OnDBLoadUs

; 2102 : 	{
; 2103 : 		//重置分组
; 2104 : 		if(pUserFriendInfo->bLogonFlag==true)

  00452	8b 45 f4	 mov	 eax, DWORD PTR _pUserFriendInfo$[ebp]
  00455	0f b6 08	 movzx	 ecx, BYTE PTR [eax]
  00458	83 f9 01	 cmp	 ecx, 1
  0045b	75 1d		 jne	 SHORT $LN16@OnDBLoadUs

; 2105 : 		{
; 2106 : 			pUserFriendGroup->ResetFriendGroup();

  0045d	8b 8d 94 fc ff
	ff		 mov	 ecx, DWORD PTR _pUserFriendGroup$[ebp]
  00463	e8 00 00 00 00	 call	 ?ResetFriendGroup@CUserFriendGroup@@QAEXXZ ; CUserFriendGroup::ResetFriendGroup

; 2107 : 			pUserFriendGroup->SetOwnerUserID(pUserFriendInfo->dwUserID);

  00468	8b 45 f4	 mov	 eax, DWORD PTR _pUserFriendInfo$[ebp]
  0046b	8b 48 04	 mov	 ecx, DWORD PTR [eax+4]
  0046e	51		 push	 ecx
  0046f	8b 8d 94 fc ff
	ff		 mov	 ecx, DWORD PTR _pUserFriendGroup$[ebp]
  00475	e8 00 00 00 00	 call	 ?SetOwnerUserID@CUserFriendGroup@@QAEXK@Z ; CUserFriendGroup::SetOwnerUserID
$LN16@OnDBLoadUs:

; 2108 : 		}
; 2109 : 
; 2110 : 		for(WORD wIndex=0;wIndex<pUserFriendInfo->wFriendCount;++wIndex)

  0047a	33 c0		 xor	 eax, eax
  0047c	66 89 85 90 fc
	ff ff		 mov	 WORD PTR _wIndex$1[ebp], ax
  00483	eb 12		 jmp	 SHORT $LN9@OnDBLoadUs
$LN7@OnDBLoadUs:
  00485	66 8b 85 90 fc
	ff ff		 mov	 ax, WORD PTR _wIndex$1[ebp]
  0048c	66 83 c0 01	 add	 ax, 1
  00490	66 89 85 90 fc
	ff ff		 mov	 WORD PTR _wIndex$1[ebp], ax
$LN9@OnDBLoadUs:
  00497	0f b7 85 90 fc
	ff ff		 movzx	 eax, WORD PTR _wIndex$1[ebp]
  0049e	8b 4d f4	 mov	 ecx, DWORD PTR _pUserFriendInfo$[ebp]
  004a1	0f b7 51 08	 movzx	 edx, WORD PTR [ecx+8]
  004a5	3b c2		 cmp	 eax, edx
  004a7	0f 8d 88 00 00
	00		 jge	 $LN15@OnDBLoadUs

; 2111 : 		{
; 2112 : 			ServerFriendInfo.dwUserID=pUserFriendInfo->FriendInfo[wIndex].dwUserID;

  004ad	0f b7 85 90 fc
	ff ff		 movzx	 eax, WORD PTR _wIndex$1[ebp]
  004b4	69 c8 a5 00 00
	00		 imul	 ecx, eax, 165
  004ba	8b 55 f4	 mov	 edx, DWORD PTR _pUserFriendInfo$[ebp]
  004bd	8b 44 0a 0a	 mov	 eax, DWORD PTR [edx+ecx+10]
  004c1	89 85 98 fc ff
	ff		 mov	 DWORD PTR _ServerFriendInfo$[ebp], eax

; 2113 : 			ServerFriendInfo.cbMainStatus=pUserFriendInfo->FriendInfo[wIndex].cbMainStatus;

  004c7	0f b7 85 90 fc
	ff ff		 movzx	 eax, WORD PTR _wIndex$1[ebp]
  004ce	69 c8 a5 00 00
	00		 imul	 ecx, eax, 165
  004d4	8b 55 f4	 mov	 edx, DWORD PTR _pUserFriendInfo$[ebp]
  004d7	8a 84 0a 85 00
	00 00		 mov	 al, BYTE PTR [edx+ecx+133]
  004de	88 85 9c fc ff
	ff		 mov	 BYTE PTR _ServerFriendInfo$[ebp+4], al

; 2114 : 			ServerFriendInfo.cbGameStatus=pUserFriendInfo->FriendInfo[wIndex].cbGameStatus;

  004e4	0f b7 85 90 fc
	ff ff		 movzx	 eax, WORD PTR _wIndex$1[ebp]
  004eb	69 c8 a5 00 00
	00		 imul	 ecx, eax, 165
  004f1	8b 55 f4	 mov	 edx, DWORD PTR _pUserFriendInfo$[ebp]
  004f4	8a 84 0a 86 00
	00 00		 mov	 al, BYTE PTR [edx+ecx+134]
  004fb	88 85 9d fc ff
	ff		 mov	 BYTE PTR _ServerFriendInfo$[ebp+5], al

; 2115 : 			ServerFriendInfo.cbGroupID=pUserFriendInfo->FriendInfo[wIndex].cbGroupID;

  00501	0f b7 85 90 fc
	ff ff		 movzx	 eax, WORD PTR _wIndex$1[ebp]
  00508	69 c8 a5 00 00
	00		 imul	 ecx, eax, 165
  0050e	8b 55 f4	 mov	 edx, DWORD PTR _pUserFriendInfo$[ebp]
  00511	8a 84 0a 84 00
	00 00		 mov	 al, BYTE PTR [edx+ecx+132]
  00518	88 85 9e fc ff
	ff		 mov	 BYTE PTR _ServerFriendInfo$[ebp+6], al

; 2116 : 			pUserFriendGroup->AppendFriendInfo(ServerFriendInfo);

  0051e	8d 85 98 fc ff
	ff		 lea	 eax, DWORD PTR _ServerFriendInfo$[ebp]
  00524	50		 push	 eax
  00525	8b 8d 94 fc ff
	ff		 mov	 ecx, DWORD PTR _pUserFriendGroup$[ebp]
  0052b	e8 00 00 00 00	 call	 ?AppendFriendInfo@CUserFriendGroup@@QAE_NAAUtagServerFriendInfo@@@Z ; CUserFriendGroup::AppendFriendInfo

; 2117 : 		}		

  00530	e9 50 ff ff ff	 jmp	 $LN7@OnDBLoadUs
$LN15@OnDBLoadUs:

; 2118 : 	}
; 2119 : 
; 2120 : 	return true;

  00535	b0 01		 mov	 al, 1
$LN1@OnDBLoadUs:

; 2121 : }

  00537	5f		 pop	 edi
  00538	5e		 pop	 esi
  00539	5b		 pop	 ebx
  0053a	8b 4d fc	 mov	 ecx, DWORD PTR __$ArrayPad$[ebp]
  0053d	33 cd		 xor	 ecx, ebp
  0053f	e8 00 00 00 00	 call	 @__security_check_cookie@4
  00544	8b e5		 mov	 esp, ebp
  00546	5d		 pop	 ebp
  00547	c2 0c 00	 ret	 12			; 0000000cH
?OnDBLoadUserFriend@CAttemperEngineSink@@IAE_NKPAXG@Z ENDP ; CAttemperEngineSink::OnDBLoadUserFriend
_TEXT	ENDS
; Function compile flags: /Odtp /ZI
; File g:\网狐\happygamewh\服务端\系统模块\服务器组件\聊天服务器\attemperenginesink.cpp
;	COMDAT ?OnDBLoadUserGroup@CAttemperEngineSink@@IAE_NKPAXG@Z
_TEXT	SEGMENT
_pSendGroupInfo$1 = -16444				; size = 4
_nIndex$2 = -16440					; size = 4
_wPacketSize$ = -16436					; size = 2
_wDataIndex$ = -16432					; size = 2
_cbDataBuffer$ = -16428					; size = 33
_cbSendBuffer$ = -16392					; size = 16376
_pTempGroupInfo$ = -16					; size = 4
_pDBOUserGroupInfo$ = -12				; size = 4
_this$ = -8						; size = 4
__$ArrayPad$ = -4					; size = 4
_dwContextID$ = 8					; size = 4
_pData$ = 12						; size = 4
_wDataSize$ = 16					; size = 2
?OnDBLoadUserGroup@CAttemperEngineSink@@IAE_NKPAXG@Z PROC ; CAttemperEngineSink::OnDBLoadUserGroup, COMDAT
; _this$ = ecx

; 1942 : {

  00000	55		 push	 ebp
  00001	8b ec		 mov	 ebp, esp
  00003	b8 3c 42 00 00	 mov	 eax, 16956		; 0000423cH
  00008	e8 00 00 00 00	 call	 __chkstk
  0000d	a1 00 00 00 00	 mov	 eax, DWORD PTR ___security_cookie
  00012	33 c5		 xor	 eax, ebp
  00014	89 45 fc	 mov	 DWORD PTR __$ArrayPad$[ebp], eax
  00017	53		 push	 ebx
  00018	56		 push	 esi
  00019	57		 push	 edi
  0001a	89 4d f8	 mov	 DWORD PTR _this$[ebp], ecx

; 1943 : 	//参数校验
; 1944 : 	ASSERT(wDataSize<=sizeof(DBO_GR_UserGroupInfo));

  0001d	0f b7 45 10	 movzx	 eax, WORD PTR _wDataSize$[ebp]
  00021	3d 22 04 00 00	 cmp	 eax, 1058		; 00000422H
  00026	76 19		 jbe	 SHORT $LN9@OnDBLoadUs
  00028	8b 0d 00 00 00
	00		 mov	 ecx, DWORD PTR ?__LINE__Var@?0??OnDBLoadUserGroup@CAttemperEngineSink@@IAE_NKPAXG@Z@4JA
  0002e	83 c1 02	 add	 ecx, 2
  00031	51		 push	 ecx
  00032	68 00 00 00 00	 push	 OFFSET ?THIS_FILE@@3PADA
  00037	e8 00 00 00 00	 call	 ?AfxAssertFailedLine@@YGHPBDH@Z ; AfxAssertFailedLine
  0003c	85 c0		 test	 eax, eax
  0003e	74 01		 je	 SHORT $LN9@OnDBLoadUs
  00040	cc		 int	 3
$LN9@OnDBLoadUs:

; 1945 : 	if(wDataSize>sizeof(DBO_GR_UserGroupInfo)) return false;

  00041	0f b7 45 10	 movzx	 eax, WORD PTR _wDataSize$[ebp]
  00045	3d 22 04 00 00	 cmp	 eax, 1058		; 00000422H
  0004a	76 07		 jbe	 SHORT $LN5@OnDBLoadUs
  0004c	32 c0		 xor	 al, al
  0004e	e9 b5 01 00 00	 jmp	 $LN1@OnDBLoadUs
$LN5@OnDBLoadUs:

; 1946 : 
; 1947 : 	//提取数据
; 1948 : 	DBO_GR_UserGroupInfo * pDBOUserGroupInfo = (DBO_GR_UserGroupInfo *)pData;

  00053	8b 45 0c	 mov	 eax, DWORD PTR _pData$[ebp]
  00056	89 45 f4	 mov	 DWORD PTR _pDBOUserGroupInfo$[ebp], eax

; 1949 : 	ASSERT(pDBOUserGroupInfo);

  00059	83 7d f4 00	 cmp	 DWORD PTR _pDBOUserGroupInfo$[ebp], 0
  0005d	75 18		 jne	 SHORT $LN10@OnDBLoadUs
  0005f	a1 00 00 00 00	 mov	 eax, DWORD PTR ?__LINE__Var@?0??OnDBLoadUserGroup@CAttemperEngineSink@@IAE_NKPAXG@Z@4JA
  00064	83 c0 07	 add	 eax, 7
  00067	50		 push	 eax
  00068	68 00 00 00 00	 push	 OFFSET ?THIS_FILE@@3PADA
  0006d	e8 00 00 00 00	 call	 ?AfxAssertFailedLine@@YGHPBDH@Z ; AfxAssertFailedLine
  00072	85 c0		 test	 eax, eax
  00074	74 01		 je	 SHORT $LN10@OnDBLoadUs
  00076	cc		 int	 3
$LN10@OnDBLoadUs:

; 1950 : 
; 1951 : 	//变量定义
; 1952 : 	tagClientGroupInfo * pTempGroupInfo=NULL;

  00077	c7 45 f0 00 00
	00 00		 mov	 DWORD PTR _pTempGroupInfo$[ebp], 0

; 1953 : 	BYTE cbSendBuffer[SOCKET_TCP_PACKET];
; 1954 : 	BYTE cbDataBuffer[sizeof(tagClientGroupInfo)];
; 1955 : 	WORD wDataIndex=0,wPacketSize=0;

  0007e	33 c0		 xor	 eax, eax
  00080	66 89 85 d0 bf
	ff ff		 mov	 WORD PTR _wDataIndex$[ebp], ax
  00087	33 c0		 xor	 eax, eax
  00089	66 89 85 cc bf
	ff ff		 mov	 WORD PTR _wPacketSize$[ebp], ax

; 1956 : 
; 1957 : 	//循环发送
; 1958 : 	for(int nIndex=0;nIndex<pDBOUserGroupInfo->wGroupCount;++nIndex)

  00090	c7 85 c8 bf ff
	ff 00 00 00 00	 mov	 DWORD PTR _nIndex$2[ebp], 0
  0009a	eb 0f		 jmp	 SHORT $LN4@OnDBLoadUs
$LN2@OnDBLoadUs:
  0009c	8b 85 c8 bf ff
	ff		 mov	 eax, DWORD PTR _nIndex$2[ebp]
  000a2	83 c0 01	 add	 eax, 1
  000a5	89 85 c8 bf ff
	ff		 mov	 DWORD PTR _nIndex$2[ebp], eax
$LN4@OnDBLoadUs:
  000ab	8b 45 f4	 mov	 eax, DWORD PTR _pDBOUserGroupInfo$[ebp]
  000ae	0f b7 08	 movzx	 ecx, WORD PTR [eax]
  000b1	39 8d c8 bf ff
	ff		 cmp	 DWORD PTR _nIndex$2[ebp], ecx
  000b7	0f 8d 1c 01 00
	00		 jge	 $LN3@OnDBLoadUs

; 1959 : 	{
; 1960 : 		//设置变量
; 1961 : 		pTempGroupInfo = &pDBOUserGroupInfo->GroupInfo[nIndex];

  000bd	6b 85 c8 bf ff
	ff 21		 imul	 eax, DWORD PTR _nIndex$2[ebp], 33
  000c4	8b 4d f4	 mov	 ecx, DWORD PTR _pDBOUserGroupInfo$[ebp]
  000c7	8d 54 01 02	 lea	 edx, DWORD PTR [ecx+eax+2]
  000cb	89 55 f0	 mov	 DWORD PTR _pTempGroupInfo$[ebp], edx

; 1962 : 
; 1963 : 		//变量定义		
; 1964 : 		tagClientGroupInfo * pSendGroupInfo=(tagClientGroupInfo *)&cbDataBuffer;

  000ce	8d 85 d4 bf ff
	ff		 lea	 eax, DWORD PTR _cbDataBuffer$[ebp]
  000d4	89 85 c4 bf ff
	ff		 mov	 DWORD PTR _pSendGroupInfo$1[ebp], eax

; 1965 : 
; 1966 : 		//设置变量
; 1967 : 		pSendGroupInfo->cbGroupIndex=pTempGroupInfo->cbGroupIndex;

  000da	8b 85 c4 bf ff
	ff		 mov	 eax, DWORD PTR _pSendGroupInfo$1[ebp]
  000e0	8b 4d f0	 mov	 ecx, DWORD PTR _pTempGroupInfo$[ebp]
  000e3	8a 11		 mov	 dl, BYTE PTR [ecx]
  000e5	88 10		 mov	 BYTE PTR [eax], dl

; 1968 : 		lstrcpyn(pSendGroupInfo->szGroupName,pTempGroupInfo->szGroupName,CountArray(pSendGroupInfo->szGroupName));

  000e7	6a 20		 push	 32			; 00000020H
  000e9	8b 45 f0	 mov	 eax, DWORD PTR _pTempGroupInfo$[ebp]
  000ec	83 c0 01	 add	 eax, 1
  000ef	50		 push	 eax
  000f0	8b 8d c4 bf ff
	ff		 mov	 ecx, DWORD PTR _pSendGroupInfo$1[ebp]
  000f6	83 c1 01	 add	 ecx, 1
  000f9	51		 push	 ecx
  000fa	ff 15 00 00 00
	00		 call	 DWORD PTR __imp__lstrcpynA@12

; 1969 : 
; 1970 : 		//设置变量
; 1971 : 		wPacketSize = sizeof(tagClientGroupInfo)-sizeof(pSendGroupInfo->szGroupName)+CountStringBuffer(pSendGroupInfo->szGroupName);

  00100	8b 85 c4 bf ff
	ff		 mov	 eax, DWORD PTR _pSendGroupInfo$1[ebp]
  00106	83 c0 01	 add	 eax, 1
  00109	50		 push	 eax
  0010a	ff 15 00 00 00
	00		 call	 DWORD PTR __imp__lstrlenA@4
  00110	83 c0 02	 add	 eax, 2
  00113	66 89 85 cc bf
	ff ff		 mov	 WORD PTR _wPacketSize$[ebp], ax

; 1972 : 
; 1973 : 		//发送判断
; 1974 : 		if(wDataIndex+wPacketSize+sizeof(BYTE)>CountArray(cbSendBuffer))

  0011a	0f b7 85 d0 bf
	ff ff		 movzx	 eax, WORD PTR _wDataIndex$[ebp]
  00121	0f b7 8d cc bf
	ff ff		 movzx	 ecx, WORD PTR _wPacketSize$[ebp]
  00128	8d 54 08 01	 lea	 edx, DWORD PTR [eax+ecx+1]
  0012c	81 fa f8 3f 00
	00		 cmp	 edx, 16376		; 00003ff8H
  00132	76 41		 jbe	 SHORT $LN6@OnDBLoadUs

; 1975 : 		{			
; 1976 : 			//发送消息
; 1977 : 			SendData(dwContextID,MDM_GC_LOGON,SUB_S_USER_GROUP,cbSendBuffer,wDataIndex);

  00134	0f b7 85 d0 bf
	ff ff		 movzx	 eax, WORD PTR _wDataIndex$[ebp]
  0013b	50		 push	 eax
  0013c	8d 8d f8 bf ff
	ff		 lea	 ecx, DWORD PTR _cbSendBuffer$[ebp]
  00142	51		 push	 ecx
  00143	68 2e 01 00 00	 push	 302			; 0000012eH
  00148	6a 01		 push	 1
  0014a	8b 55 08	 mov	 edx, DWORD PTR _dwContextID$[ebp]
  0014d	52		 push	 edx
  0014e	8b 4d f8	 mov	 ecx, DWORD PTR _this$[ebp]
  00151	e8 00 00 00 00	 call	 ?SendData@CAttemperEngineSink@@IAE_NKGGPAXG@Z ; CAttemperEngineSink::SendData

; 1978 : 
; 1979 : 			//设置变量
; 1980 : 			ZeroMemory(cbSendBuffer,sizeof(cbSendBuffer));

  00156	68 f8 3f 00 00	 push	 16376			; 00003ff8H
  0015b	6a 00		 push	 0
  0015d	8d 85 f8 bf ff
	ff		 lea	 eax, DWORD PTR _cbSendBuffer$[ebp]
  00163	50		 push	 eax
  00164	e8 00 00 00 00	 call	 _memset
  00169	83 c4 0c	 add	 esp, 12			; 0000000cH

; 1981 : 			wDataIndex = 0;

  0016c	33 c0		 xor	 eax, eax
  0016e	66 89 85 d0 bf
	ff ff		 mov	 WORD PTR _wDataIndex$[ebp], ax
$LN6@OnDBLoadUs:

; 1982 : 		}
; 1983 : 
; 1984 : 		//拷贝数据
; 1985 : 		CopyMemory(&cbSendBuffer[wDataIndex],&wPacketSize,sizeof(BYTE));

  00175	6a 01		 push	 1
  00177	8d 85 cc bf ff
	ff		 lea	 eax, DWORD PTR _wPacketSize$[ebp]
  0017d	50		 push	 eax
  0017e	0f b7 8d d0 bf
	ff ff		 movzx	 ecx, WORD PTR _wDataIndex$[ebp]
  00185	8d 94 0d f8 bf
	ff ff		 lea	 edx, DWORD PTR _cbSendBuffer$[ebp+ecx]
  0018c	52		 push	 edx
  0018d	e8 00 00 00 00	 call	 _memcpy
  00192	83 c4 0c	 add	 esp, 12			; 0000000cH

; 1986 : 		CopyMemory(&cbSendBuffer[wDataIndex+sizeof(BYTE)],cbDataBuffer,wPacketSize);

  00195	0f b7 85 cc bf
	ff ff		 movzx	 eax, WORD PTR _wPacketSize$[ebp]
  0019c	50		 push	 eax
  0019d	8d 8d d4 bf ff
	ff		 lea	 ecx, DWORD PTR _cbDataBuffer$[ebp]
  001a3	51		 push	 ecx
  001a4	0f b7 95 d0 bf
	ff ff		 movzx	 edx, WORD PTR _wDataIndex$[ebp]
  001ab	8d 84 15 f9 bf
	ff ff		 lea	 eax, DWORD PTR _cbSendBuffer$[ebp+edx+1]
  001b2	50		 push	 eax
  001b3	e8 00 00 00 00	 call	 _memcpy
  001b8	83 c4 0c	 add	 esp, 12			; 0000000cH

; 1987 : 
; 1988 : 		//设置变量
; 1989 : 		wDataIndex += sizeof(BYTE)+wPacketSize;

  001bb	0f b7 85 cc bf
	ff ff		 movzx	 eax, WORD PTR _wPacketSize$[ebp]
  001c2	0f b7 8d d0 bf
	ff ff		 movzx	 ecx, WORD PTR _wDataIndex$[ebp]
  001c9	8d 54 01 01	 lea	 edx, DWORD PTR [ecx+eax+1]
  001cd	66 89 95 d0 bf
	ff ff		 mov	 WORD PTR _wDataIndex$[ebp], dx

; 1990 : 	}

  001d4	e9 c3 fe ff ff	 jmp	 $LN2@OnDBLoadUs
$LN3@OnDBLoadUs:

; 1991 : 
; 1992 : 	//剩余发送
; 1993 : 	if(wDataIndex>0)

  001d9	0f b7 85 d0 bf
	ff ff		 movzx	 eax, WORD PTR _wDataIndex$[ebp]
  001e0	85 c0		 test	 eax, eax
  001e2	7e 22		 jle	 SHORT $LN7@OnDBLoadUs

; 1994 : 	{
; 1995 : 		//发送消息
; 1996 : 		SendData(dwContextID,MDM_GC_LOGON,SUB_S_USER_GROUP,cbSendBuffer,wDataIndex);			

  001e4	0f b7 85 d0 bf
	ff ff		 movzx	 eax, WORD PTR _wDataIndex$[ebp]
  001eb	50		 push	 eax
  001ec	8d 8d f8 bf ff
	ff		 lea	 ecx, DWORD PTR _cbSendBuffer$[ebp]
  001f2	51		 push	 ecx
  001f3	68 2e 01 00 00	 push	 302			; 0000012eH
  001f8	6a 01		 push	 1
  001fa	8b 55 08	 mov	 edx, DWORD PTR _dwContextID$[ebp]
  001fd	52		 push	 edx
  001fe	8b 4d f8	 mov	 ecx, DWORD PTR _this$[ebp]
  00201	e8 00 00 00 00	 call	 ?SendData@CAttemperEngineSink@@IAE_NKGGPAXG@Z ; CAttemperEngineSink::SendData
$LN7@OnDBLoadUs:

; 1997 : 	}
; 1998 : 
; 1999 : 
; 2000 : 	return true;

  00206	b0 01		 mov	 al, 1
$LN1@OnDBLoadUs:

; 2001 : }

  00208	5f		 pop	 edi
  00209	5e		 pop	 esi
  0020a	5b		 pop	 ebx
  0020b	8b 4d fc	 mov	 ecx, DWORD PTR __$ArrayPad$[ebp]
  0020e	33 cd		 xor	 ecx, ebp
  00210	e8 00 00 00 00	 call	 @__security_check_cookie@4
  00215	8b e5		 mov	 esp, ebp
  00217	5d		 pop	 ebp
  00218	c2 0c 00	 ret	 12			; 0000000cH
?OnDBLoadUserGroup@CAttemperEngineSink@@IAE_NKPAXG@Z ENDP ; CAttemperEngineSink::OnDBLoadUserGroup
_TEXT	ENDS
; Function compile flags: /Odtp /ZI
; File g:\网狐\happygamewh\服务端\系统模块\服务器组件\聊天服务器\attemperenginesink.cpp
;	COMDAT ?OnDBLogonFailure@CAttemperEngineSink@@IAE_NKPAXG@Z
_TEXT	SEGMENT
_pLogonFailure$ = -8					; size = 4
_this$ = -4						; size = 4
_dwContextID$ = 8					; size = 4
_pData$ = 12						; size = 4
_wDataSize$ = 16					; size = 2
?OnDBLogonFailure@CAttemperEngineSink@@IAE_NKPAXG@Z PROC ; CAttemperEngineSink::OnDBLogonFailure, COMDAT
; _this$ = ecx

; 626  : {

  00000	55		 push	 ebp
  00001	8b ec		 mov	 ebp, esp
  00003	83 ec 48	 sub	 esp, 72			; 00000048H
  00006	53		 push	 ebx
  00007	56		 push	 esi
  00008	57		 push	 edi
  00009	89 4d fc	 mov	 DWORD PTR _this$[ebp], ecx

; 627  : 	//发送错误
; 628  : 	DBO_GR_LogonFailure * pLogonFailure=(DBO_GR_LogonFailure *)pData;

  0000c	8b 45 0c	 mov	 eax, DWORD PTR _pData$[ebp]
  0000f	89 45 f8	 mov	 DWORD PTR _pLogonFailure$[ebp], eax

; 629  : 	SendLogonFailure(pLogonFailure->szDescribeString,pLogonFailure->lResultCode,dwContextID);

  00012	8b 45 08	 mov	 eax, DWORD PTR _dwContextID$[ebp]
  00015	50		 push	 eax
  00016	8b 4d f8	 mov	 ecx, DWORD PTR _pLogonFailure$[ebp]
  00019	8b 11		 mov	 edx, DWORD PTR [ecx]
  0001b	52		 push	 edx
  0001c	8b 45 f8	 mov	 eax, DWORD PTR _pLogonFailure$[ebp]
  0001f	83 c0 04	 add	 eax, 4
  00022	50		 push	 eax
  00023	8b 4d fc	 mov	 ecx, DWORD PTR _this$[ebp]
  00026	e8 00 00 00 00	 call	 ?SendLogonFailure@CAttemperEngineSink@@IAE_NPBDJK@Z ; CAttemperEngineSink::SendLogonFailure

; 630  : 
; 631  : 	return true;

  0002b	b0 01		 mov	 al, 1

; 632  : }

  0002d	5f		 pop	 edi
  0002e	5e		 pop	 esi
  0002f	5b		 pop	 ebx
  00030	8b e5		 mov	 esp, ebp
  00032	5d		 pop	 ebp
  00033	c2 0c 00	 ret	 12			; 0000000cH
?OnDBLogonFailure@CAttemperEngineSink@@IAE_NKPAXG@Z ENDP ; CAttemperEngineSink::OnDBLogonFailure
_TEXT	ENDS
; Function compile flags: /Odtp /ZI
; File g:\网狐\happygamewh\服务端\系统模块\服务器组件\聊天服务器\attemperenginesink.cpp
;	COMDAT ?OnDBLogonSuccess@CAttemperEngineSink@@IAE_NKPAXG@Z
_TEXT	SEGMENT
_UserOnLine$ = -660					; size = 5
_pBindParameter$ = -652					; size = 4
_wBindIndex$ = -648					; size = 2
_wLogonDataSize$ = -644					; size = 2
_LogonSuccess$ = -640					; size = 132
_InsertLocalUserInfo$ = -508				; size = 8
_UserInfo$ = -500					; size = 481
_pServerUserItem$ = -16					; size = 4
_pDBOLogonSuccess$ = -12				; size = 4
_this$ = -8						; size = 4
__$ArrayPad$ = -4					; size = 4
_dwContextID$ = 8					; size = 4
_pData$ = 12						; size = 4
_wDataSize$ = 16					; size = 2
?OnDBLogonSuccess@CAttemperEngineSink@@IAE_NKPAXG@Z PROC ; CAttemperEngineSink::OnDBLogonSuccess, COMDAT
; _this$ = ecx

; 1850 : {

  00000	55		 push	 ebp
  00001	8b ec		 mov	 ebp, esp
  00003	81 ec 14 03 00
	00		 sub	 esp, 788		; 00000314H
  00009	a1 00 00 00 00	 mov	 eax, DWORD PTR ___security_cookie
  0000e	33 c5		 xor	 eax, ebp
  00010	89 45 fc	 mov	 DWORD PTR __$ArrayPad$[ebp], eax
  00013	53		 push	 ebx
  00014	56		 push	 esi
  00015	57		 push	 edi
  00016	89 4d f8	 mov	 DWORD PTR _this$[ebp], ecx

; 1851 : 	//参数校验
; 1852 : 	ASSERT(wDataSize<=sizeof(DBO_GR_LogonSuccess));

  00019	0f b7 45 10	 movzx	 eax, WORD PTR _wDataSize$[ebp]
  0001d	3d 8c 01 00 00	 cmp	 eax, 396		; 0000018cH
  00022	76 19		 jbe	 SHORT $LN5@OnDBLogonS
  00024	8b 0d 00 00 00
	00		 mov	 ecx, DWORD PTR ?__LINE__Var@?0??OnDBLogonSuccess@CAttemperEngineSink@@IAE_NKPAXG@Z@4JA
  0002a	83 c1 02	 add	 ecx, 2
  0002d	51		 push	 ecx
  0002e	68 00 00 00 00	 push	 OFFSET ?THIS_FILE@@3PADA
  00033	e8 00 00 00 00	 call	 ?AfxAssertFailedLine@@YGHPBDH@Z ; AfxAssertFailedLine
  00038	85 c0		 test	 eax, eax
  0003a	74 01		 je	 SHORT $LN5@OnDBLogonS
  0003c	cc		 int	 3
$LN5@OnDBLogonS:

; 1853 : 	if(wDataSize>sizeof(DBO_GR_LogonSuccess)) return false;

  0003d	0f b7 45 10	 movzx	 eax, WORD PTR _wDataSize$[ebp]
  00041	3d 8c 01 00 00	 cmp	 eax, 396		; 0000018cH
  00046	76 07		 jbe	 SHORT $LN2@OnDBLogonS
  00048	32 c0		 xor	 al, al
  0004a	e9 33 03 00 00	 jmp	 $LN1@OnDBLogonS
$LN2@OnDBLogonS:

; 1854 : 
; 1855 : 	//变量定义
; 1856 : 	DBO_GR_LogonSuccess * pDBOLogonSuccess=(DBO_GR_LogonSuccess *)pData;

  0004f	8b 45 0c	 mov	 eax, DWORD PTR _pData$[ebp]
  00052	89 45 f4	 mov	 DWORD PTR _pDBOLogonSuccess$[ebp], eax

; 1857 : 
; 1858 : 	//重复登录
; 1859 : 	CServerUserItem * pServerUserItem = m_ServerUserManager.SearchUserItem(pDBOLogonSuccess->dwUserID);

  00055	8b 45 f4	 mov	 eax, DWORD PTR _pDBOLogonSuccess$[ebp]
  00058	8b 08		 mov	 ecx, DWORD PTR [eax]
  0005a	51		 push	 ecx
  0005b	8b 4d f8	 mov	 ecx, DWORD PTR _this$[ebp]
  0005e	83 c1 1c	 add	 ecx, 28			; 0000001cH
  00061	8b 55 f8	 mov	 edx, DWORD PTR _this$[ebp]
  00064	8b 42 1c	 mov	 eax, DWORD PTR [edx+28]
  00067	8b 50 08	 mov	 edx, DWORD PTR [eax+8]
  0006a	ff d2		 call	 edx
  0006c	89 45 f0	 mov	 DWORD PTR _pServerUserItem$[ebp], eax

; 1860 : 	if(pServerUserItem!=NULL)

  0006f	83 7d f0 00	 cmp	 DWORD PTR _pServerUserItem$[ebp], 0
  00073	74 17		 je	 SHORT $LN3@OnDBLogonS

; 1861 : 	{
; 1862 : 		m_ServerUserManager.DeleteUserItem(pDBOLogonSuccess->dwUserID);

  00075	8b 45 f4	 mov	 eax, DWORD PTR _pDBOLogonSuccess$[ebp]
  00078	8b 08		 mov	 ecx, DWORD PTR [eax]
  0007a	51		 push	 ecx
  0007b	8b 4d f8	 mov	 ecx, DWORD PTR _this$[ebp]
  0007e	83 c1 1c	 add	 ecx, 28			; 0000001cH
  00081	8b 55 f8	 mov	 edx, DWORD PTR _this$[ebp]
  00084	8b 42 1c	 mov	 eax, DWORD PTR [edx+28]
  00087	8b 50 10	 mov	 edx, DWORD PTR [eax+16]
  0008a	ff d2		 call	 edx
$LN3@OnDBLogonS:

; 1863 : 	}
; 1864 : 
; 1865 : 
; 1866 : 	//用户变量
; 1867 : 	tagFriendUserInfo UserInfo;
; 1868 : 	ZeroMemory(&UserInfo,sizeof(UserInfo));

  0008c	68 e1 01 00 00	 push	 481			; 000001e1H
  00091	6a 00		 push	 0
  00093	8d 85 0c fe ff
	ff		 lea	 eax, DWORD PTR _UserInfo$[ebp]
  00099	50		 push	 eax
  0009a	e8 00 00 00 00	 call	 _memset
  0009f	83 c4 0c	 add	 esp, 12			; 0000000cH

; 1869 : 
; 1870 : 	//基本资料
; 1871 : 	UserInfo.dwUserID=pDBOLogonSuccess->dwUserID;

  000a2	8b 45 f4	 mov	 eax, DWORD PTR _pDBOLogonSuccess$[ebp]
  000a5	8b 08		 mov	 ecx, DWORD PTR [eax]
  000a7	89 8d 0c fe ff
	ff		 mov	 DWORD PTR _UserInfo$[ebp], ecx

; 1872 : 	UserInfo.dwGameID = pDBOLogonSuccess->dwGameID;

  000ad	8b 45 f4	 mov	 eax, DWORD PTR _pDBOLogonSuccess$[ebp]
  000b0	8b 48 04	 mov	 ecx, DWORD PTR [eax+4]
  000b3	89 8d 10 fe ff
	ff		 mov	 DWORD PTR _UserInfo$[ebp+4], ecx

; 1873 : 	lstrcpyn(UserInfo.szNickName,pDBOLogonSuccess->szNickName,CountArray(UserInfo.szNickName));

  000b9	6a 20		 push	 32			; 00000020H
  000bb	8b 45 f4	 mov	 eax, DWORD PTR _pDBOLogonSuccess$[ebp]
  000be	83 c0 08	 add	 eax, 8
  000c1	50		 push	 eax
  000c2	8d 8d 14 fe ff
	ff		 lea	 ecx, DWORD PTR _UserInfo$[ebp+8]
  000c8	51		 push	 ecx
  000c9	ff 15 00 00 00
	00		 call	 DWORD PTR __imp__lstrcpynA@12

; 1874 : 	lstrcpyn(UserInfo.szPassword,pDBOLogonSuccess->szPassword,CountArray(UserInfo.szPassword));

  000cf	6a 21		 push	 33			; 00000021H
  000d1	8b 45 f4	 mov	 eax, DWORD PTR _pDBOLogonSuccess$[ebp]
  000d4	83 c0 28	 add	 eax, 40			; 00000028H
  000d7	50		 push	 eax
  000d8	8d 8d 34 fe ff
	ff		 lea	 ecx, DWORD PTR _UserInfo$[ebp+40]
  000de	51		 push	 ecx
  000df	ff 15 00 00 00
	00		 call	 DWORD PTR __imp__lstrcpynA@12

; 1875 : 	UserInfo.cbGender=pDBOLogonSuccess->cbGender;

  000e5	8b 45 f4	 mov	 eax, DWORD PTR _pDBOLogonSuccess$[ebp]
  000e8	8a 48 54	 mov	 cl, BYTE PTR [eax+84]
  000eb	88 8d 5d fe ff
	ff		 mov	 BYTE PTR _UserInfo$[ebp+81], cl

; 1876 : 	UserInfo.dwFaceID =pDBOLogonSuccess->dwFaceID;

  000f1	8b 45 f4	 mov	 eax, DWORD PTR _pDBOLogonSuccess$[ebp]
  000f4	8b 48 4c	 mov	 ecx, DWORD PTR [eax+76]
  000f7	89 8d 55 fe ff
	ff		 mov	 DWORD PTR _UserInfo$[ebp+73], ecx

; 1877 : 	UserInfo.dwCustomID =pDBOLogonSuccess->dwCustomID;

  000fd	8b 45 f4	 mov	 eax, DWORD PTR _pDBOLogonSuccess$[ebp]
  00100	8b 48 50	 mov	 ecx, DWORD PTR [eax+80]
  00103	89 8d 59 fe ff
	ff		 mov	 DWORD PTR _UserInfo$[ebp+77], ecx

; 1878 : 	UserInfo.wMemberOrder = pDBOLogonSuccess->wMemberOrder;

  00109	8b 45 f4	 mov	 eax, DWORD PTR _pDBOLogonSuccess$[ebp]
  0010c	66 8b 48 56	 mov	 cx, WORD PTR [eax+86]
  00110	66 89 8d 5e fe
	ff ff		 mov	 WORD PTR _UserInfo$[ebp+82], cx

; 1879 : 	UserInfo.wGrowLevel =pDBOLogonSuccess->wGrowLevel;

  00117	8b 45 f4	 mov	 eax, DWORD PTR _pDBOLogonSuccess$[ebp]
  0011a	66 8b 48 58	 mov	 cx, WORD PTR [eax+88]
  0011e	66 89 8d 60 fe
	ff ff		 mov	 WORD PTR _UserInfo$[ebp+84], cx

; 1880 : 	lstrcpyn(UserInfo.szUnderWrite,pDBOLogonSuccess->szUnderWrite,CountArray(UserInfo.szUnderWrite));

  00125	6a 20		 push	 32			; 00000020H
  00127	8b 45 f4	 mov	 eax, DWORD PTR _pDBOLogonSuccess$[ebp]
  0012a	83 c0 5a	 add	 eax, 90			; 0000005aH
  0012d	50		 push	 eax
  0012e	8d 8d 62 fe ff
	ff		 lea	 ecx, DWORD PTR _UserInfo$[ebp+86]
  00134	51		 push	 ecx
  00135	ff 15 00 00 00
	00		 call	 DWORD PTR __imp__lstrcpynA@12

; 1881 : 	lstrcpyn(UserInfo.szCompellation,pDBOLogonSuccess->szCompellation,CountArray(UserInfo.szCompellation));

  0013b	6a 10		 push	 16			; 00000010H
  0013d	8b 45 f4	 mov	 eax, DWORD PTR _pDBOLogonSuccess$[ebp]
  00140	83 c0 7a	 add	 eax, 122		; 0000007aH
  00143	50		 push	 eax
  00144	8d 8d 82 fe ff
	ff		 lea	 ecx, DWORD PTR _UserInfo$[ebp+118]
  0014a	51		 push	 ecx
  0014b	ff 15 00 00 00
	00		 call	 DWORD PTR __imp__lstrcpynA@12

; 1882 : 	
; 1883 : 	//用户状态
; 1884 : 	UserInfo.cbMainStatus=FRIEND_US_ONLINE;

  00151	c6 85 78 ff ff
	ff 01		 mov	 BYTE PTR _UserInfo$[ebp+364], 1

; 1885 : 	UserInfo.cbGameStatus=US_NULL;

  00158	c6 85 79 ff ff
	ff 00		 mov	 BYTE PTR _UserInfo$[ebp+365], 0

; 1886 : 	UserInfo.wKindID=INVALID_KIND;

  0015f	b8 ff ff 00 00	 mov	 eax, 65535		; 0000ffffH
  00164	66 89 85 7a ff
	ff ff		 mov	 WORD PTR _UserInfo$[ebp+366], ax

; 1887 : 	UserInfo.wServerID=INVALID_SERVER;

  0016b	b8 ff ff 00 00	 mov	 eax, 65535		; 0000ffffH
  00170	66 89 85 7c ff
	ff ff		 mov	 WORD PTR _UserInfo$[ebp+368], ax

; 1888 : 	UserInfo.wTableID=INVALID_TABLE;

  00177	b8 ff ff 00 00	 mov	 eax, 65535		; 0000ffffH
  0017c	66 89 85 7e ff
	ff ff		 mov	 WORD PTR _UserInfo$[ebp+370], ax

; 1889 : 	UserInfo.wChairID=INVALID_CHAIR;

  00183	b8 ff ff 00 00	 mov	 eax, 65535		; 0000ffffH
  00188	66 89 45 80	 mov	 WORD PTR _UserInfo$[ebp+372], ax

; 1890 : 	ZeroMemory(UserInfo.szServerName,CountArray(UserInfo.szServerName));

  0018c	6a 20		 push	 32			; 00000020H
  0018e	6a 00		 push	 0
  00190	8d 45 82	 lea	 eax, DWORD PTR _UserInfo$[ebp+374]
  00193	50		 push	 eax
  00194	e8 00 00 00 00	 call	 _memset
  00199	83 c4 0c	 add	 esp, 12			; 0000000cH

; 1891 : 	UserInfo.dwClientAddr=pDBOLogonSuccess->dwClientAddr;

  0019c	8b 45 f4	 mov	 eax, DWORD PTR _pDBOLogonSuccess$[ebp]
  0019f	8b 88 a0 00 00
	00		 mov	 ecx, DWORD PTR [eax+160]
  001a5	89 4d b7	 mov	 DWORD PTR _UserInfo$[ebp+427], ecx

; 1892 : 	lstrcpyn(UserInfo.szPhoneMode,pDBOLogonSuccess->szPhoneMode,CountArray(UserInfo.szPhoneMode));

  001a8	6a 15		 push	 21			; 00000015H
  001aa	8b 45 f4	 mov	 eax, DWORD PTR _pDBOLogonSuccess$[ebp]
  001ad	05 8a 00 00 00	 add	 eax, 138		; 0000008aH
  001b2	50		 push	 eax
  001b3	8d 4d a2	 lea	 ecx, DWORD PTR _UserInfo$[ebp+406]
  001b6	51		 push	 ecx
  001b7	ff 15 00 00 00
	00		 call	 DWORD PTR __imp__lstrcpynA@12

; 1893 : 
; 1894 : 	//用户资料	
; 1895 : 	lstrcpyn(UserInfo.szQQ,pDBOLogonSuccess->szQQ,CountArray(UserInfo.szQQ));

  001bd	6a 10		 push	 16			; 00000010H
  001bf	8b 45 f4	 mov	 eax, DWORD PTR _pDBOLogonSuccess$[ebp]
  001c2	05 a4 00 00 00	 add	 eax, 164		; 000000a4H
  001c7	50		 push	 eax
  001c8	8d 8d 92 fe ff
	ff		 lea	 ecx, DWORD PTR _UserInfo$[ebp+134]
  001ce	51		 push	 ecx
  001cf	ff 15 00 00 00
	00		 call	 DWORD PTR __imp__lstrcpynA@12

; 1896 : 	lstrcpyn(UserInfo.szEMail,pDBOLogonSuccess->szEMail,CountArray(UserInfo.szEMail));

  001d5	6a 21		 push	 33			; 00000021H
  001d7	8b 45 f4	 mov	 eax, DWORD PTR _pDBOLogonSuccess$[ebp]
  001da	05 b4 00 00 00	 add	 eax, 180		; 000000b4H
  001df	50		 push	 eax
  001e0	8d 8d a2 fe ff
	ff		 lea	 ecx, DWORD PTR _UserInfo$[ebp+150]
  001e6	51		 push	 ecx
  001e7	ff 15 00 00 00
	00		 call	 DWORD PTR __imp__lstrcpynA@12

; 1897 : 	lstrcpyn(UserInfo.szSeatPhone,pDBOLogonSuccess->szSeatPhone,CountArray(UserInfo.szSeatPhone));

  001ed	6a 21		 push	 33			; 00000021H
  001ef	8b 45 f4	 mov	 eax, DWORD PTR _pDBOLogonSuccess$[ebp]
  001f2	05 d5 00 00 00	 add	 eax, 213		; 000000d5H
  001f7	50		 push	 eax
  001f8	8d 8d c3 fe ff
	ff		 lea	 ecx, DWORD PTR _UserInfo$[ebp+183]
  001fe	51		 push	 ecx
  001ff	ff 15 00 00 00
	00		 call	 DWORD PTR __imp__lstrcpynA@12

; 1898 : 	lstrcpyn(UserInfo.szMobilePhone,pDBOLogonSuccess->szMobilePhone,CountArray(UserInfo.szMobilePhone));

  00205	6a 0c		 push	 12			; 0000000cH
  00207	8b 45 f4	 mov	 eax, DWORD PTR _pDBOLogonSuccess$[ebp]
  0020a	05 f6 00 00 00	 add	 eax, 246		; 000000f6H
  0020f	50		 push	 eax
  00210	8d 8d e4 fe ff
	ff		 lea	 ecx, DWORD PTR _UserInfo$[ebp+216]
  00216	51		 push	 ecx
  00217	ff 15 00 00 00
	00		 call	 DWORD PTR __imp__lstrcpynA@12

; 1899 : 	lstrcpyn(UserInfo.szDwellingPlace,pDBOLogonSuccess->szDwellingPlace,CountArray(UserInfo.szDwellingPlace));

  0021d	68 80 00 00 00	 push	 128			; 00000080H
  00222	8b 45 f4	 mov	 eax, DWORD PTR _pDBOLogonSuccess$[ebp]
  00225	05 02 01 00 00	 add	 eax, 258		; 00000102H
  0022a	50		 push	 eax
  0022b	8d 8d f0 fe ff
	ff		 lea	 ecx, DWORD PTR _UserInfo$[ebp+228]
  00231	51		 push	 ecx
  00232	ff 15 00 00 00
	00		 call	 DWORD PTR __imp__lstrcpynA@12

; 1900 : 	lstrcpyn(UserInfo.szPostalCode,pDBOLogonSuccess->szPostalCode,CountArray(UserInfo.szPostalCode));

  00238	6a 08		 push	 8
  0023a	8b 45 f4	 mov	 eax, DWORD PTR _pDBOLogonSuccess$[ebp]
  0023d	05 82 01 00 00	 add	 eax, 386		; 00000182H
  00242	50		 push	 eax
  00243	8d 8d 70 ff ff
	ff		 lea	 ecx, DWORD PTR _UserInfo$[ebp+356]
  00249	51		 push	 ecx
  0024a	ff 15 00 00 00
	00		 call	 DWORD PTR __imp__lstrcpynA@12

; 1901 : 
; 1902 : 	//变量定义
; 1903 : 	tagInsertLocalUserInfo InsertLocalUserInfo;
; 1904 : 	InsertLocalUserInfo.dwSocketID=dwContextID;

  00250	8b 45 08	 mov	 eax, DWORD PTR _dwContextID$[ebp]
  00253	89 85 04 fe ff
	ff		 mov	 DWORD PTR _InsertLocalUserInfo$[ebp], eax

; 1905 : 	InsertLocalUserInfo.dwLogonTime=GetTickCount();

  00259	ff 15 00 00 00
	00		 call	 DWORD PTR __imp__GetTickCount@0
  0025f	89 85 08 fe ff
	ff		 mov	 DWORD PTR _InsertLocalUserInfo$[ebp+4], eax

; 1906 : 
; 1907 : 	//激活用户
; 1908 : 	m_ServerUserManager.InsertLocalUserItem(InsertLocalUserInfo,UserInfo,pDBOLogonSuccess->szPassword);

  00265	8b 45 f4	 mov	 eax, DWORD PTR _pDBOLogonSuccess$[ebp]
  00268	83 c0 28	 add	 eax, 40			; 00000028H
  0026b	50		 push	 eax
  0026c	8d 8d 0c fe ff
	ff		 lea	 ecx, DWORD PTR _UserInfo$[ebp]
  00272	51		 push	 ecx
  00273	8d 95 04 fe ff
	ff		 lea	 edx, DWORD PTR _InsertLocalUserInfo$[ebp]
  00279	52		 push	 edx
  0027a	8b 4d f8	 mov	 ecx, DWORD PTR _this$[ebp]
  0027d	83 c1 1c	 add	 ecx, 28			; 0000001cH
  00280	8b 45 f8	 mov	 eax, DWORD PTR _this$[ebp]
  00283	8b 50 1c	 mov	 edx, DWORD PTR [eax+28]
  00286	8b 42 18	 mov	 eax, DWORD PTR [edx+24]
  00289	ff d0		 call	 eax

; 1909 : 
; 1910 : 	//发送数据
; 1911 : 	CMD_GC_LogonEcho LogonSuccess;
; 1912 : 	ZeroMemory(&LogonSuccess,sizeof(LogonSuccess));

  0028b	68 84 00 00 00	 push	 132			; 00000084H
  00290	6a 00		 push	 0
  00292	8d 85 80 fd ff
	ff		 lea	 eax, DWORD PTR _LogonSuccess$[ebp]
  00298	50		 push	 eax
  00299	e8 00 00 00 00	 call	 _memset
  0029e	83 c4 0c	 add	 esp, 12			; 0000000cH

; 1913 : 	WORD wLogonDataSize = sizeof(LogonSuccess);

  002a1	b8 84 00 00 00	 mov	 eax, 132		; 00000084H
  002a6	66 89 85 7c fd
	ff ff		 mov	 WORD PTR _wLogonDataSize$[ebp], ax

; 1914 : 	SendData(dwContextID,MDM_GC_LOGON,SUB_GC_LOGON_SUCCESS,&LogonSuccess,wLogonDataSize);

  002ad	0f b7 85 7c fd
	ff ff		 movzx	 eax, WORD PTR _wLogonDataSize$[ebp]
  002b4	50		 push	 eax
  002b5	8d 8d 80 fd ff
	ff		 lea	 ecx, DWORD PTR _LogonSuccess$[ebp]
  002bb	51		 push	 ecx
  002bc	68 c8 00 00 00	 push	 200			; 000000c8H
  002c1	6a 01		 push	 1
  002c3	8b 55 08	 mov	 edx, DWORD PTR _dwContextID$[ebp]
  002c6	52		 push	 edx
  002c7	8b 4d f8	 mov	 ecx, DWORD PTR _this$[ebp]
  002ca	e8 00 00 00 00	 call	 ?SendData@CAttemperEngineSink@@IAE_NKGGPAXG@Z ; CAttemperEngineSink::SendData

; 1915 : 
; 1916 : 	//设置用户
; 1917 : 	WORD wBindIndex=LOWORD(dwContextID);

  002cf	8b 45 08	 mov	 eax, DWORD PTR _dwContextID$[ebp]
  002d2	25 ff ff 00 00	 and	 eax, 65535		; 0000ffffH
  002d7	66 89 85 78 fd
	ff ff		 mov	 WORD PTR _wBindIndex$[ebp], ax

; 1918 : 	tagBindParameter * pBindParameter=GetBindParameter(wBindIndex);

  002de	0f b7 85 78 fd
	ff ff		 movzx	 eax, WORD PTR _wBindIndex$[ebp]
  002e5	50		 push	 eax
  002e6	8b 4d f8	 mov	 ecx, DWORD PTR _this$[ebp]
  002e9	e8 00 00 00 00	 call	 ?GetBindParameter@CAttemperEngineSink@@IAEPAUtagBindParameter@@G@Z ; CAttemperEngineSink::GetBindParameter
  002ee	89 85 74 fd ff
	ff		 mov	 DWORD PTR _pBindParameter$[ebp], eax

; 1919 : 	pServerUserItem = m_ServerUserManager.SearchUserItem(pDBOLogonSuccess->dwUserID);

  002f4	8b 45 f4	 mov	 eax, DWORD PTR _pDBOLogonSuccess$[ebp]
  002f7	8b 08		 mov	 ecx, DWORD PTR [eax]
  002f9	51		 push	 ecx
  002fa	8b 4d f8	 mov	 ecx, DWORD PTR _this$[ebp]
  002fd	83 c1 1c	 add	 ecx, 28			; 0000001cH
  00300	8b 55 f8	 mov	 edx, DWORD PTR _this$[ebp]
  00303	8b 42 1c	 mov	 eax, DWORD PTR [edx+28]
  00306	8b 50 08	 mov	 edx, DWORD PTR [eax+8]
  00309	ff d2		 call	 edx
  0030b	89 45 f0	 mov	 DWORD PTR _pServerUserItem$[ebp], eax

; 1920 : 	pBindParameter->pServerUserItem=pServerUserItem;

  0030e	8b 85 74 fd ff
	ff		 mov	 eax, DWORD PTR _pBindParameter$[ebp]
  00314	8b 4d f0	 mov	 ecx, DWORD PTR _pServerUserItem$[ebp]
  00317	89 48 1c	 mov	 DWORD PTR [eax+28], ecx

; 1921 : 
; 1922 : 	//用户上线
; 1923 : 	CMD_GC_UserOnlineStatusNotify UserOnLine;
; 1924 : 	UserOnLine.dwUserID=pServerUserItem->GetUserID();

  0031a	8b 45 f0	 mov	 eax, DWORD PTR _pServerUserItem$[ebp]
  0031d	8b 10		 mov	 edx, DWORD PTR [eax]
  0031f	8b 4d f0	 mov	 ecx, DWORD PTR _pServerUserItem$[ebp]
  00322	8b 42 04	 mov	 eax, DWORD PTR [edx+4]
  00325	ff d0		 call	 eax
  00327	89 85 6c fd ff
	ff		 mov	 DWORD PTR _UserOnLine$[ebp], eax

; 1925 : 	UserOnLine.cbMainStatus=pServerUserItem->GetMainStatus();	

  0032d	8b 45 f0	 mov	 eax, DWORD PTR _pServerUserItem$[ebp]
  00330	8b 10		 mov	 edx, DWORD PTR [eax]
  00332	8b 4d f0	 mov	 ecx, DWORD PTR _pServerUserItem$[ebp]
  00335	8b 42 10	 mov	 eax, DWORD PTR [edx+16]
  00338	ff d0		 call	 eax
  0033a	88 85 70 fd ff
	ff		 mov	 BYTE PTR _UserOnLine$[ebp+4], al

; 1926 : 	SendDataToUserFriend(UserOnLine.dwUserID,MDM_GC_USER,SUB_GC_USER_STATUS_NOTIFY,&UserOnLine,sizeof(UserOnLine));

  00340	6a 05		 push	 5
  00342	8d 85 6c fd ff
	ff		 lea	 eax, DWORD PTR _UserOnLine$[ebp]
  00348	50		 push	 eax
  00349	6a 01		 push	 1
  0034b	6a 03		 push	 3
  0034d	8b 8d 6c fd ff
	ff		 mov	 ecx, DWORD PTR _UserOnLine$[ebp]
  00353	51		 push	 ecx
  00354	8b 4d f8	 mov	 ecx, DWORD PTR _this$[ebp]
  00357	e8 00 00 00 00	 call	 ?SendDataToUserFriend@CAttemperEngineSink@@IAE_NKGGPAXG@Z ; CAttemperEngineSink::SendDataToUserFriend

; 1927 : 
; 1928 : 	//TCHAR szMessage[256]=TEXT("");
; 1929 : 	//_sntprintf(szMessage,CountArray(szMessage),TEXT("%d-----上线通知"),UserOnLine.dwUserID);
; 1930 : 	//CTraceService::TraceString(szMessage,TraceLevel_Normal);
; 1931 : 
; 1932 : 	//允许群发
; 1933 : 	m_pITCPNetworkEngine->AllowBatchSend(dwContextID,true,0xFF);

  0035c	68 ff 00 00 00	 push	 255			; 000000ffH
  00361	6a 01		 push	 1
  00363	8b 45 08	 mov	 eax, DWORD PTR _dwContextID$[ebp]
  00366	50		 push	 eax
  00367	8b 4d f8	 mov	 ecx, DWORD PTR _this$[ebp]
  0036a	8b 91 e4 00 00
	00		 mov	 edx, DWORD PTR [ecx+228]
  00370	8b 45 f8	 mov	 eax, DWORD PTR _this$[ebp]
  00373	8b 12		 mov	 edx, DWORD PTR [edx]
  00375	8b 88 e4 00 00
	00		 mov	 ecx, DWORD PTR [eax+228]
  0037b	8b 42 34	 mov	 eax, DWORD PTR [edx+52]
  0037e	ff d0		 call	 eax

; 1934 : 
; 1935 : 	return true;

  00380	b0 01		 mov	 al, 1
$LN1@OnDBLogonS:

; 1936 : }

  00382	5f		 pop	 edi
  00383	5e		 pop	 esi
  00384	5b		 pop	 ebx
  00385	8b 4d fc	 mov	 ecx, DWORD PTR __$ArrayPad$[ebp]
  00388	33 cd		 xor	 ecx, ebp
  0038a	e8 00 00 00 00	 call	 @__security_check_cookie@4
  0038f	8b e5		 mov	 esp, ebp
  00391	5d		 pop	 ebp
  00392	c2 0c 00	 ret	 12			; 0000000cH
?OnDBLogonSuccess@CAttemperEngineSink@@IAE_NKPAXG@Z ENDP ; CAttemperEngineSink::OnDBLogonSuccess
_TEXT	ENDS
; Function compile flags: /Odtp /ZI
; File g:\网狐\happygamewh\服务端\系统模块\服务器组件\聊天服务器\attemperenginesink.cpp
;	COMDAT ?OnEventDataBase@CAttemperEngineSink@@MAE_NGKPAXG@Z
_TEXT	SEGMENT
tv65 = -348						; size = 4
tv207 = -345						; size = 1
tv206 = -345						; size = 1
tv205 = -345						; size = 1
tv204 = -345						; size = 1
tv203 = -345						; size = 1
tv202 = -345						; size = 1
tv201 = -345						; size = 1
tv200 = -345						; size = 1
tv199 = -345						; size = 1
tv198 = -345						; size = 1
tv197 = -345						; size = 1
tv196 = -345						; size = 1
tv195 = -345						; size = 1
tv194 = -345						; size = 1
_szMessage$2 = -280					; size = 256
_this$ = -24						; size = 4
__$ArrayPad$ = -20					; size = 4
__$EHRec$ = -16						; size = 16
_wRequestID$ = 8					; size = 2
_dwContextID$ = 12					; size = 4
_pData$ = 16						; size = 4
_wDataSize$ = 20					; size = 2
?OnEventDataBase@CAttemperEngineSink@@MAE_NGKPAXG@Z PROC ; CAttemperEngineSink::OnEventDataBase, COMDAT
; _this$ = ecx

; 1775 : {

  00000	55		 push	 ebp
  00001	8b ec		 mov	 ebp, esp
  00003	6a ff		 push	 -1
  00005	68 00 00 00 00	 push	 __ehhandler$?OnEventDataBase@CAttemperEngineSink@@MAE_NGKPAXG@Z
  0000a	64 a1 00 00 00
	00		 mov	 eax, DWORD PTR fs:0
  00010	50		 push	 eax
  00011	51		 push	 ecx
  00012	81 ec 4c 01 00
