; Listing generated by Microsoft (R) Optimizing Compiler Version 19.16.27032.1 

	TITLE	G:\网狐\HappyGameWH\服务端\系统模块\服务器组件\聊天服务器\ChatServerDlg.cpp
	.686P
	.XMM
	include listing.inc
	.model	flat

INCLUDELIB MSVCRTD
INCLUDELIB OLDNAMES

PUBLIC	?OnBnClickedStartService@CChatServerDlg@@IAEXXZ	; CChatServerDlg::OnBnClickedStartService
PUBLIC	?OnBnClickedStopService@CChatServerDlg@@IAEXXZ	; CChatServerDlg::OnBnClickedStopService
PUBLIC	?OnQueryEndSession@CChatServerDlg@@QAEHXZ	; CChatServerDlg::OnQueryEndSession
PUBLIC	?OnMessageProcessCmdLine@CChatServerDlg@@QAEJIJ@Z ; CChatServerDlg::OnMessageProcessCmdLine
EXTRN	?GetThisMessageMap@CDialog@@KGPBUAFX_MSGMAP@@XZ:PROC ; CDialog::GetThisMessageMap
CONST	SEGMENT
?_messageEntries@?1??GetThisMessageMap@CChatServerDlg@@KGPBUAFX_MSGMAP@@XZ@4QBUAFX_MSGMAP_ENTRY@@B DD 011H ; `CChatServerDlg::GetThisMessageMap'::`2'::_messageEntries
	DD	00H
	DD	00H
	DD	00H
	DD	01eH
	DD	FLAT:?OnQueryEndSession@CChatServerDlg@@QAEHXZ
	DD	0111H
	DD	00H
	DD	03eaH
	DD	03eaH
	DD	03aH
	DD	FLAT:?OnBnClickedStopService@CChatServerDlg@@IAEXXZ
	DD	0111H
	DD	00H
	DD	03e8H
	DD	03e8H
	DD	03aH
	DD	FLAT:?OnBnClickedStartService@CChatServerDlg@@IAEXXZ
	DD	0464H
	DD	00H
	DD	00H
	DD	00H
	DD	0eH
	DD	FLAT:?OnMessageProcessCmdLine@CChatServerDlg@@QAEJIJ@Z
	DD	00H
	DD	00H
	DD	00H
	DD	00H
	DD	00H
	DD	00H
?messageMap@?1??GetThisMessageMap@CChatServerDlg@@KGPBUAFX_MSGMAP@@XZ@4U3@B DD FLAT:?GetThisMessageMap@CDialog@@KGPBUAFX_MSGMAP@@XZ ; `CChatServerDlg::GetThisMessageMap'::`2'::messageMap
	DD	FLAT:?_messageEntries@?1??GetThisMessageMap@CChatServerDlg@@KGPBUAFX_MSGMAP@@XZ@4QBUAFX_MSGMAP_ENTRY@@B
CONST	ENDS
PUBLIC	?__empty_global_delete@@YAXPAX@Z		; __empty_global_delete
PUBLIC	?__empty_global_delete@@YAXPAXI@Z		; __empty_global_delete
PUBLIC	___local_stdio_printf_options
PUBLIC	__vsnprintf_l
PUBLIC	__vsnprintf
PUBLIC	__snprintf
PUBLIC	?AfxAssertFailedLine@@YGHPBDH@Z			; AfxAssertFailedLine
PUBLIC	??0CInitParameter@@QAE@ABV0@@Z			; CInitParameter::CInitParameter
PUBLIC	??_GCInitParameter@@UAEPAXI@Z			; CInitParameter::`scalar deleting destructor'
PUBLIC	??0IServiceUnitsSink@@QAE@XZ			; IServiceUnitsSink::IServiceUnitsSink
PUBLIC	?GetServiceStatus@CServiceUnits@@QAE?AW4enServiceStatus@@XZ ; CServiceUnits::GetServiceStatus
PUBLIC	?GetInitParameter@CServiceUnits@@QAE?AVCInitParameter@@XZ ; CServiceUnits::GetInitParameter
PUBLIC	??0CChatServerDlg@@QAE@XZ			; CChatServerDlg::CChatServerDlg
PUBLIC	??1CChatServerDlg@@UAE@XZ			; CChatServerDlg::~CChatServerDlg
PUBLIC	?DoDataExchange@CChatServerDlg@@MAEXPAVCDataExchange@@@Z ; CChatServerDlg::DoDataExchange
PUBLIC	?OnInitDialog@CChatServerDlg@@MAEHXZ		; CChatServerDlg::OnInitDialog
PUBLIC	?OnOK@CChatServerDlg@@MAEXXZ			; CChatServerDlg::OnOK
PUBLIC	?OnCancel@CChatServerDlg@@MAEXXZ		; CChatServerDlg::OnCancel
PUBLIC	?PreTranslateMessage@CChatServerDlg@@MAEHPAUtagMSG@@@Z ; CChatServerDlg::PreTranslateMessage
PUBLIC	?OnServiceUnitsStatus@CChatServerDlg@@UAEXW4enServiceStatus@@@Z ; CChatServerDlg::OnServiceUnitsStatus
PUBLIC	?UpdateServerTitle@CChatServerDlg@@IAEXW4enServiceStatus@@@Z ; CChatServerDlg::UpdateServerTitle
PUBLIC	?StartServerService@CChatServerDlg@@IAE_NG@Z	; CChatServerDlg::StartServerService
PUBLIC	?GetThisMessageMap@CChatServerDlg@@KGPBUAFX_MSGMAP@@XZ ; CChatServerDlg::GetThisMessageMap
PUBLIC	?GetMessageMap@CChatServerDlg@@MBEPBUAFX_MSGMAP@@XZ ; CChatServerDlg::GetMessageMap
PUBLIC	??_GCChatServerDlg@@UAEPAXI@Z			; CChatServerDlg::`scalar deleting destructor'
PUBLIC	?_OptionsStorage@?1??__local_stdio_printf_options@@9@4_KA ; `__local_stdio_printf_options'::`2'::_OptionsStorage
PUBLIC	??_C@_00CNPNBAHC@@				; `string'
PUBLIC	??_R1A@?0A@EA@CObject@@8			; CObject::`RTTI Base Class Descriptor at (0,-1,0,64)'
PUBLIC	??_R0?AVCObject@@@8				; CObject `RTTI Type Descriptor'
PUBLIC	??_R3CObject@@8					; CObject::`RTTI Class Hierarchy Descriptor'
PUBLIC	??_R2CObject@@8					; CObject::`RTTI Base Class Array'
PUBLIC	??_R1A@?0A@EA@CDialog@@8			; CDialog::`RTTI Base Class Descriptor at (0,-1,0,64)'
PUBLIC	??_R0?AVCDialog@@@8				; CDialog `RTTI Type Descriptor'
PUBLIC	??_R3CDialog@@8					; CDialog::`RTTI Class Hierarchy Descriptor'
PUBLIC	??_R2CDialog@@8					; CDialog::`RTTI Base Class Array'
PUBLIC	??_R1A@?0A@EA@CWnd@@8				; CWnd::`RTTI Base Class Descriptor at (0,-1,0,64)'
PUBLIC	??_R0?AVCWnd@@@8				; CWnd `RTTI Type Descriptor'
PUBLIC	??_R3CWnd@@8					; CWnd::`RTTI Class Hierarchy Descriptor'
PUBLIC	??_R2CWnd@@8					; CWnd::`RTTI Base Class Array'
PUBLIC	??_R1A@?0A@EA@CCmdTarget@@8			; CCmdTarget::`RTTI Base Class Descriptor at (0,-1,0,64)'
PUBLIC	??_R0?AVCCmdTarget@@@8				; CCmdTarget `RTTI Type Descriptor'
PUBLIC	??_R3CCmdTarget@@8				; CCmdTarget::`RTTI Class Hierarchy Descriptor'
PUBLIC	??_R2CCmdTarget@@8				; CCmdTarget::`RTTI Base Class Array'
PUBLIC	??_7CInitParameter@@6B@				; CInitParameter::`vftable'
PUBLIC	??_7IServiceUnitsSink@@6B@			; IServiceUnitsSink::`vftable'
PUBLIC	??_7CChatServerDlg@@6BCDialog@@@		; CChatServerDlg::`vftable'
PUBLIC	??_7CChatServerDlg@@6BIServiceUnitsSink@@@	; CChatServerDlg::`vftable'
PUBLIC	??_C@_0BH@EAHGGLJH@?A?D?L?l?$LH?$PO?N?q?F?w?5?9?9?5?$FL?5?M?$KD?V?$LJ?5?$FN@ ; `string'
PUBLIC	??_C@_0CN@IKJEBACB@?S?N?O?$LH?$LH?$PO?N?q?F?w?U?$PN?T?Z?T?K?P?P?V?P?$KD?$KM?D?z?H?$LH?J?$LF?R?$KK?$LJ@ ; `string'
PUBLIC	??_C@_0N@HNGKNHMM@?$LH?$PO?N?q?M?$KD?V?$LJ?$LD?I?$LJ?$KG@ ; `string'
PUBLIC	??_C@_0BC@OFPAKDFO@?U?$PN?T?Z?$LD?u?J?$LM?$LL?$KP?W?i?$LM?$PO?4?4?4@ ; `string'
PUBLIC	??_C@_0BJ@HLOOMBNP@?$LH?$PO?N?q?F?t?$LG?$KP?$LD?I?$LJ?$KG?5?$FL?5?$LG?K?$LP?Z?3?$CFd?5?$FN@ ; `string'
PUBLIC	??_C@_04MLIFMOBA@?M?$KD?V?$LJ@			; `string'
PUBLIC	??_C@_06CCMEENJJ@?$LD?u?J?$LM?$LL?$KP@		; `string'
PUBLIC	??_C@_04OIFFEIFD@?T?K?P?P@			; `string'
PUBLIC	??_C@_0BF@FCJKJFHE@?A?D?L?l?$LH?$PO?N?q?F?w?5?9?9?5?$FL?5?$CFs?5?$FN@ ; `string'
PUBLIC	?__LINE__Var@?0??StartServerService@CChatServerDlg@@IAE_NG@Z@4JA ; `CChatServerDlg::StartServerService'::`1'::__LINE__Var
PUBLIC	??_C@_0EM@GBAEOLBJ@g?3?2?M?x?$LK?$PM?2happygamewh?2?$LH?$PO?N?q?$LG?K?2?O?$LF?M?$LD@ ; `string'
PUBLIC	?__LINE__Var@?0??OnBnClickedStartService@CChatServerDlg@@IAEXXZ@4JA ; `CChatServerDlg::OnBnClickedStartService'::`1'::__LINE__Var
PUBLIC	?__LINE__Var@?0??OnBnClickedStopService@CChatServerDlg@@IAEXXZ@4JA ; `CChatServerDlg::OnBnClickedStopService'::`1'::__LINE__Var
PUBLIC	??_C@_0CJ@LFENAACN@?$LH?$PO?N?q?U?$PN?T?Z?T?K?P?P?V?P?$KD?$KM?O?$LF?M?$LD?R?$KK?G?s?W?$KC?O?z?$LL?X?$LL@ ; `string'
PUBLIC	??_C@_0L@MLALHOMK@?1ServerID?3@			; `string'
PUBLIC	??_R4CInitParameter@@6B@			; CInitParameter::`RTTI Complete Object Locator'
PUBLIC	??_R0?AVCInitParameter@@@8			; CInitParameter `RTTI Type Descriptor'
PUBLIC	??_R3CInitParameter@@8				; CInitParameter::`RTTI Class Hierarchy Descriptor'
PUBLIC	??_R2CInitParameter@@8				; CInitParameter::`RTTI Base Class Array'
PUBLIC	??_R1A@?0A@EA@CInitParameter@@8			; CInitParameter::`RTTI Base Class Descriptor at (0,-1,0,64)'
PUBLIC	??_R4IServiceUnitsSink@@6B@			; IServiceUnitsSink::`RTTI Complete Object Locator'
PUBLIC	??_R0?AUIServiceUnitsSink@@@8			; IServiceUnitsSink `RTTI Type Descriptor'
PUBLIC	??_R3IServiceUnitsSink@@8			; IServiceUnitsSink::`RTTI Class Hierarchy Descriptor'
PUBLIC	??_R2IServiceUnitsSink@@8			; IServiceUnitsSink::`RTTI Base Class Array'
PUBLIC	??_R1A@?0A@EA@IServiceUnitsSink@@8		; IServiceUnitsSink::`RTTI Base Class Descriptor at (0,-1,0,64)'
PUBLIC	??_R4CChatServerDlg@@6BCDialog@@@		; CChatServerDlg::`RTTI Complete Object Locator'
PUBLIC	??_R0?AVCChatServerDlg@@@8			; CChatServerDlg `RTTI Type Descriptor'
PUBLIC	??_R3CChatServerDlg@@8				; CChatServerDlg::`RTTI Class Hierarchy Descriptor'
PUBLIC	??_R2CChatServerDlg@@8				; CChatServerDlg::`RTTI Base Class Array'
PUBLIC	??_R1A@?0A@EA@CChatServerDlg@@8			; CChatServerDlg::`RTTI Base Class Descriptor at (0,-1,0,64)'
PUBLIC	??_R1KI@?0A@EA@IServiceUnitsSink@@8		; IServiceUnitsSink::`RTTI Base Class Descriptor at (168,-1,0,64)'
PUBLIC	??_R4CChatServerDlg@@6BIServiceUnitsSink@@@	; CChatServerDlg::`RTTI Complete Object Locator'
EXTRN	__purecall:PROC
EXTRN	??3@YAXPAXI@Z:PROC				; operator delete
EXTRN	?__global_delete@@YAXPAXI@Z:PROC		; __global_delete
EXTRN	__imp__PeekMessageA@20:PROC
EXTRN	__imp__PostQuitMessage@4:PROC
EXTRN	__imp__LoadIconA@8:PROC
EXTRN	__imp____stdio_common_vsprintf:PROC
EXTRN	__imp__atol:PROC
EXTRN	__imp___CrtDbgReport:PROC
EXTRN	??3CObject@@SGXPAX@Z:PROC			; CObject::operator delete
EXTRN	?Serialize@CObject@@UAEXAAVCArchive@@@Z:PROC	; CObject::Serialize
EXTRN	?DDX_Control@@YGXPAVCDataExchange@@HAAVCWnd@@@Z:PROC ; DDX_Control
EXTRN	?IsInvokeAllowed@CCmdTarget@@UAEHJ@Z:PROC	; CCmdTarget::IsInvokeAllowed
EXTRN	?GetDispatchIID@CCmdTarget@@UAEHPAU_GUID@@@Z:PROC ; CCmdTarget::GetDispatchIID
EXTRN	?GetTypeInfoCount@CCmdTarget@@UAEIXZ:PROC	; CCmdTarget::GetTypeInfoCount
EXTRN	?GetTypeLibCache@CCmdTarget@@UAEPAVCTypeLibCache@@XZ:PROC ; CCmdTarget::GetTypeLibCache
EXTRN	?GetTypeLib@CCmdTarget@@UAEJKPAPAUITypeLib@@@Z:PROC ; CCmdTarget::GetTypeLib
EXTRN	?GetCommandMap@CCmdTarget@@MBEPBUAFX_OLECMDMAP@@XZ:PROC ; CCmdTarget::GetCommandMap
EXTRN	?GetDispatchMap@CCmdTarget@@MBEPBUAFX_DISPMAP@@XZ:PROC ; CCmdTarget::GetDispatchMap
EXTRN	?GetConnectionMap@CCmdTarget@@MBEPBUAFX_CONNECTIONMAP@@XZ:PROC ; CCmdTarget::GetConnectionMap
EXTRN	?GetEventSinkMap@CCmdTarget@@MBEPBUAFX_EVENTSINKMAP@@XZ:PROC ; CCmdTarget::GetEventSinkMap
EXTRN	?OnCreateAggregates@CCmdTarget@@UAEHXZ:PROC	; CCmdTarget::OnCreateAggregates
EXTRN	?GetInterfaceHook@CCmdTarget@@UAEPAUIUnknown@@PBX@Z:PROC ; CCmdTarget::GetInterfaceHook
EXTRN	?GetExtraConnectionPoints@CCmdTarget@@MAEHPAVCPtrArray@@@Z:PROC ; CCmdTarget::GetExtraConnectionPoints
EXTRN	?GetConnectionHook@CCmdTarget@@MAEPAUIConnectionPoint@@ABU_GUID@@@Z:PROC ; CCmdTarget::GetConnectionHook
EXTRN	?PreSubclassWindow@CWnd@@UAEXXZ:PROC		; CWnd::PreSubclassWindow
EXTRN	?Create@CWnd@@UAEHPBD0KABUtagRECT@@PAV1@IPAUCCreateContext@@@Z:PROC ; CWnd::Create
EXTRN	?CreateEx@CWnd@@UAEHKPBD0KHHHHPAUHWND__@@PAUHMENU__@@PAX@Z:PROC ; CWnd::CreateEx
EXTRN	?CreateEx@CWnd@@UAEHKPBD0KABUtagRECT@@PAV1@IPAX@Z:PROC ; CWnd::CreateEx
EXTRN	?DestroyWindow@CWnd@@UAEHXZ:PROC		; CWnd::DestroyWindow
EXTRN	?PreCreateWindow@CWnd@@UAEHAAUtagCREATESTRUCTA@@@Z:PROC ; CWnd::PreCreateWindow
EXTRN	?CalcWindowRect@CWnd@@UAEXPAUtagRECT@@I@Z:PROC	; CWnd::CalcWindowRect
EXTRN	?GetDlgItem@CWnd@@QBEPAV1@H@Z:PROC		; CWnd::GetDlgItem
EXTRN	?PostMessageA@CWnd@@QAEHIIJ@Z:PROC		; CWnd::PostMessageA
EXTRN	?SetWindowTextA@CWnd@@QAEXPBD@Z:PROC		; CWnd::SetWindowTextA
EXTRN	?GetMenu@CWnd@@UBEPAVCMenu@@XZ:PROC		; CWnd::GetMenu
EXTRN	?SetMenu@CWnd@@UAEHPAVCMenu@@@Z:PROC		; CWnd::SetMenu
EXTRN	?OnToolHitTest@CWnd@@UBEHVCPoint@@PAUtagTOOLINFOA@@@Z:PROC ; CWnd::OnToolHitTest
EXTRN	?EnableWindow@CWnd@@QAEHH@Z:PROC		; CWnd::EnableWindow
EXTRN	?GetScrollBarCtrl@CWnd@@UBEPAVCScrollBar@@H@Z:PROC ; CWnd::GetScrollBarCtrl
EXTRN	?SetIcon@CWnd@@QAEPAUHICON__@@PAU2@H@Z:PROC	; CWnd::SetIcon
EXTRN	?WinHelpA@CWnd@@UAEXKI@Z:PROC			; CWnd::WinHelpA
EXTRN	?HtmlHelpA@CWnd@@UAEXKI@Z:PROC			; CWnd::HtmlHelpA
EXTRN	?WinHelpInternal@CWnd@@UAEXKI@Z:PROC		; CWnd::WinHelpInternal
EXTRN	?ContinueModal@CWnd@@UAEHXZ:PROC		; CWnd::ContinueModal
EXTRN	?EndModalLoop@CWnd@@UAEXH@Z:PROC		; CWnd::EndModalLoop
EXTRN	?OnDrawIconicThumbnailOrLivePreview@CWnd@@UAEXAAVCDC@@VCRect@@VCSize@@HAAH@Z:PROC ; CWnd::OnDrawIconicThumbnailOrLivePreview
EXTRN	?GetInterfaceMap@CWnd@@MBEPBUAFX_INTERFACEMAP@@XZ:PROC ; CWnd::GetInterfaceMap
EXTRN	?EnsureStdObj@CWnd@@UAEJXZ:PROC			; CWnd::EnsureStdObj
EXTRN	?get_accParent@CWnd@@UAEJPAPAUIDispatch@@@Z:PROC ; CWnd::get_accParent
EXTRN	?get_accChildCount@CWnd@@UAEJPAJ@Z:PROC		; CWnd::get_accChildCount
EXTRN	?get_accChild@CWnd@@UAEJUtagVARIANT@@PAPAUIDispatch@@@Z:PROC ; CWnd::get_accChild
EXTRN	?get_accName@CWnd@@UAEJUtagVARIANT@@PAPA_W@Z:PROC ; CWnd::get_accName
EXTRN	?get_accValue@CWnd@@UAEJUtagVARIANT@@PAPA_W@Z:PROC ; CWnd::get_accValue
EXTRN	?get_accDescription@CWnd@@UAEJUtagVARIANT@@PAPA_W@Z:PROC ; CWnd::get_accDescription
EXTRN	?get_accRole@CWnd@@UAEJUtagVARIANT@@PAU2@@Z:PROC ; CWnd::get_accRole
EXTRN	?get_accState@CWnd@@UAEJUtagVARIANT@@PAU2@@Z:PROC ; CWnd::get_accState
EXTRN	?get_accHelp@CWnd@@UAEJUtagVARIANT@@PAPA_W@Z:PROC ; CWnd::get_accHelp
EXTRN	?get_accHelpTopic@CWnd@@UAEJPAPA_WUtagVARIANT@@PAJ@Z:PROC ; CWnd::get_accHelpTopic
EXTRN	?get_accKeyboardShortcut@CWnd@@UAEJUtagVARIANT@@PAPA_W@Z:PROC ; CWnd::get_accKeyboardShortcut
EXTRN	?get_accFocus@CWnd@@UAEJPAUtagVARIANT@@@Z:PROC	; CWnd::get_accFocus
EXTRN	?get_accSelection@CWnd@@UAEJPAUtagVARIANT@@@Z:PROC ; CWnd::get_accSelection
EXTRN	?get_accDefaultAction@CWnd@@UAEJUtagVARIANT@@PAPA_W@Z:PROC ; CWnd::get_accDefaultAction
EXTRN	?accSelect@CWnd@@UAEJJUtagVARIANT@@@Z:PROC	; CWnd::accSelect
EXTRN	?accLocation@CWnd@@UAEJPAJ000UtagVARIANT@@@Z:PROC ; CWnd::accLocation
EXTRN	?accNavigate@CWnd@@UAEJJUtagVARIANT@@PAU2@@Z:PROC ; CWnd::accNavigate
EXTRN	?accHitTest@CWnd@@UAEJJJPAUtagVARIANT@@@Z:PROC	; CWnd::accHitTest
EXTRN	?accDoDefaultAction@CWnd@@UAEJUtagVARIANT@@@Z:PROC ; CWnd::accDoDefaultAction
EXTRN	?put_accName@CWnd@@UAEJUtagVARIANT@@PA_W@Z:PROC	; CWnd::put_accName
EXTRN	?put_accValue@CWnd@@UAEJUtagVARIANT@@PA_W@Z:PROC ; CWnd::put_accValue
EXTRN	?SetProxy@CWnd@@UAEJPAUIAccessibleProxy@@@Z:PROC ; CWnd::SetProxy
EXTRN	?CreateAccessibleProxy@CWnd@@UAEJIJPAJ@Z:PROC	; CWnd::CreateAccessibleProxy
EXTRN	?OnCommand@CWnd@@MAEHIJ@Z:PROC			; CWnd::OnCommand
EXTRN	?OnNotify@CWnd@@MAEHIJPAJ@Z:PROC		; CWnd::OnNotify
EXTRN	?GetSuperWndProcAddr@CWnd@@MAEPAP6GJPAUHWND__@@IIJ@ZXZ:PROC ; CWnd::GetSuperWndProcAddr
EXTRN	?DoDataExchange@CWnd@@MAEXPAVCDataExchange@@@Z:PROC ; CWnd::DoDataExchange
EXTRN	?BeginModalState@CWnd@@UAEXXZ:PROC		; CWnd::BeginModalState
EXTRN	?EndModalState@CWnd@@UAEXXZ:PROC		; CWnd::EndModalState
EXTRN	?OnAmbientProperty@CWnd@@UAEHPAVCOleControlSite@@JPAUtagVARIANT@@@Z:PROC ; CWnd::OnAmbientProperty
EXTRN	?WindowProc@CWnd@@MAEJIIJ@Z:PROC		; CWnd::WindowProc
EXTRN	?OnWndMsg@CWnd@@MAEHIIJPAJ@Z:PROC		; CWnd::OnWndMsg
EXTRN	?DefWindowProcA@CWnd@@MAEJIIJ@Z:PROC		; CWnd::DefWindowProcA
EXTRN	?PostNcDestroy@CWnd@@MAEXXZ:PROC		; CWnd::PostNcDestroy
EXTRN	?OnChildNotify@CWnd@@MAEHIIJPAJ@Z:PROC		; CWnd::OnChildNotify
EXTRN	?OnTouchInputs@CWnd@@MAEHIPAUtagTOUCHINPUT@@@Z:PROC ; CWnd::OnTouchInputs
EXTRN	?OnTouchInput@CWnd@@MAEHVCPoint@@HHPAUtagTOUCHINPUT@@@Z:PROC ; CWnd::OnTouchInput
EXTRN	?GetGestureStatus@CWnd@@MAEKVCPoint@@@Z:PROC	; CWnd::GetGestureStatus
EXTRN	?OnGestureZoom@CWnd@@MAEHVCPoint@@J@Z:PROC	; CWnd::OnGestureZoom
EXTRN	?OnGesturePan@CWnd@@MAEHVCPoint@@0@Z:PROC	; CWnd::OnGesturePan
EXTRN	?OnGestureRotate@CWnd@@MAEHVCPoint@@N@Z:PROC	; CWnd::OnGestureRotate
EXTRN	?OnGestureTwoFingerTap@CWnd@@MAEHVCPoint@@@Z:PROC ; CWnd::OnGestureTwoFingerTap
EXTRN	?OnGesturePressAndTap@CWnd@@MAEHVCPoint@@J@Z:PROC ; CWnd::OnGesturePressAndTap
EXTRN	?ResizeDynamicLayout@CWnd@@MAEXXZ:PROC		; CWnd::ResizeDynamicLayout
EXTRN	?IsFrameWnd@CWnd@@UBEHXZ:PROC			; CWnd::IsFrameWnd
EXTRN	?OnFinalRelease@CWnd@@UAEXXZ:PROC		; CWnd::OnFinalRelease
EXTRN	?CreateControlContainer@CWnd@@MAEHPAPAVCOleControlContainer@@@Z:PROC ; CWnd::CreateControlContainer
EXTRN	?CreateControlSite@CWnd@@MAEHPAVCOleControlContainer@@PAPAVCOleControlSite@@IABU_GUID@@@Z:PROC ; CWnd::CreateControlSite
EXTRN	?GetRuntimeClass@CDialog@@UBEPAUCRuntimeClass@@XZ:PROC ; CDialog::GetRuntimeClass
EXTRN	?Create@CDialog@@UAEHPBDPAVCWnd@@@Z:PROC	; CDialog::Create
EXTRN	?Create@CDialog@@UAEHIPAVCWnd@@@Z:PROC		; CDialog::Create
EXTRN	?CreateIndirect@CDialog@@UAEHPBUDLGTEMPLATE@@PAVCWnd@@PAX@Z:PROC ; CDialog::CreateIndirect
EXTRN	?CreateIndirect@CDialog@@UAEHPAXPAVCWnd@@@Z:PROC ; CDialog::CreateIndirect
EXTRN	??0CDialog@@QAE@IPAVCWnd@@@Z:PROC		; CDialog::CDialog
EXTRN	?DoModal@CDialog@@UAEHXZ:PROC			; CDialog::DoModal
EXTRN	?OnInitDialog@CDialog@@UAEHXZ:PROC		; CDialog::OnInitDialog
EXTRN	?OnSetFont@CDialog@@UAEXPAVCFont@@@Z:PROC	; CDialog::OnSetFont
EXTRN	?OnCancel@CDialog@@MAEXXZ:PROC			; CDialog::OnCancel
EXTRN	??1CDialog@@UAE@XZ:PROC				; CDialog::~CDialog
EXTRN	?AssertValid@CDialog@@UBEXXZ:PROC		; CDialog::AssertValid
EXTRN	?Dump@CDialog@@UBEXAAVCDumpContext@@@Z:PROC	; CDialog::Dump
EXTRN	?PreTranslateMessage@CDialog@@UAEHPAUtagMSG@@@Z:PROC ; CDialog::PreTranslateMessage
EXTRN	?OnCmdMsg@CDialog@@UAEHIHPAXPAUAFX_CMDHANDLERINFO@@@Z:PROC ; CDialog::OnCmdMsg
EXTRN	?CheckAutoCenter@CDialog@@UAEHXZ:PROC		; CDialog::CheckAutoCenter
EXTRN	?SetOccDialogInfo@CDialog@@MAEHPAU_AFX_OCC_DIALOG_INFO@@@Z:PROC ; CDialog::SetOccDialogInfo
EXTRN	?GetOccDialogInfo@CDialog@@MAEPAU_AFX_OCC_DIALOG_INFO@@XZ:PROC ; CDialog::GetOccDialogInfo
EXTRN	?PreInitDialog@CDialog@@MAEXXZ:PROC		; CDialog::PreInitDialog
EXTRN	?AfxGetApp@@YGPAVCWinApp@@XZ:PROC		; AfxGetApp
EXTRN	?AfxGetInstanceHandle@@YGPAUHINSTANCE__@@XZ:PROC ; AfxGetInstanceHandle
EXTRN	?AfxMessageBox@@YGHPBDII@Z:PROC			; AfxMessageBox
EXTRN	__imp_??0CWHCommandLine@@QAE@XZ:PROC
EXTRN	__imp_??1CWHCommandLine@@UAE@XZ:PROC
EXTRN	__imp_?SearchCommandItem@CWHCommandLine@@QAE_NPBD0QADG@Z:PROC
EXTRN	__imp_?TraceString@CTraceService@@SA_NPBDW4enTraceLevel@@@Z:PROC
EXTRN	__imp_??0CTraceServiceControl@@QAE@XZ:PROC
EXTRN	__imp_??1CTraceServiceControl@@UAE@XZ:PROC
EXTRN	??1CInitParameter@@UAE@XZ:PROC			; CInitParameter::~CInitParameter
EXTRN	??_ECInitParameter@@UAEPAXI@Z:PROC		; CInitParameter::`vector deleting destructor'
EXTRN	??0CServiceUnits@@QAE@XZ:PROC			; CServiceUnits::CServiceUnits
EXTRN	??1CServiceUnits@@UAE@XZ:PROC			; CServiceUnits::~CServiceUnits
EXTRN	?SetServiceUnitsSink@CServiceUnits@@QAE_NPAUIServiceUnitsSink@@@Z:PROC ; CServiceUnits::SetServiceUnitsSink
EXTRN	?StartService@CServiceUnits@@QAE_NXZ:PROC	; CServiceUnits::StartService
EXTRN	?ConcludeService@CServiceUnits@@QAE_NXZ:PROC	; CServiceUnits::ConcludeService
EXTRN	??_ECChatServerDlg@@UAEPAXI@Z:PROC		; CChatServerDlg::`vector deleting destructor'
EXTRN	@__security_check_cookie@4:PROC
EXTRN	___CxxFrameHandler3:PROC
EXTRN	_memset:PROC
EXTRN	??_7type_info@@6B@:QWORD			; type_info::`vftable'
EXTRN	___security_cookie:DWORD
;	COMDAT ?_OptionsStorage@?1??__local_stdio_printf_options@@9@4_KA
_BSS	SEGMENT
?_OptionsStorage@?1??__local_stdio_printf_options@@9@4_KA DQ 01H DUP (?) ; `__local_stdio_printf_options'::`2'::_OptionsStorage
_BSS	ENDS
;	COMDAT ??_R4CChatServerDlg@@6BIServiceUnitsSink@@@
rdata$r	SEGMENT
??_R4CChatServerDlg@@6BIServiceUnitsSink@@@ DD 00H	; CChatServerDlg::`RTTI Complete Object Locator'
	DD	0a8H
	DD	00H
	DD	FLAT:??_R0?AVCChatServerDlg@@@8
	DD	FLAT:??_R3CChatServerDlg@@8
rdata$r	ENDS
;	COMDAT ??_R1KI@?0A@EA@IServiceUnitsSink@@8
rdata$r	SEGMENT
??_R1KI@?0A@EA@IServiceUnitsSink@@8 DD FLAT:??_R0?AUIServiceUnitsSink@@@8 ; IServiceUnitsSink::`RTTI Base Class Descriptor at (168,-1,0,64)'
	DD	00H
	DD	0a8H
	DD	0ffffffffH
	DD	00H
	DD	040H
	DD	FLAT:??_R3IServiceUnitsSink@@8
rdata$r	ENDS
;	COMDAT ??_R1A@?0A@EA@CChatServerDlg@@8
rdata$r	SEGMENT
??_R1A@?0A@EA@CChatServerDlg@@8 DD FLAT:??_R0?AVCChatServerDlg@@@8 ; CChatServerDlg::`RTTI Base Class Descriptor at (0,-1,0,64)'
	DD	05H
	DD	00H
	DD	0ffffffffH
	DD	00H
	DD	040H
	DD	FLAT:??_R3CChatServerDlg@@8
rdata$r	ENDS
;	COMDAT ??_R2CChatServerDlg@@8
rdata$r	SEGMENT
??_R2CChatServerDlg@@8 DD FLAT:??_R1A@?0A@EA@CChatServerDlg@@8 ; CChatServerDlg::`RTTI Base Class Array'
	DD	FLAT:??_R1A@?0A@EA@CDialog@@8
	DD	FLAT:??_R1A@?0A@EA@CWnd@@8
	DD	FLAT:??_R1A@?0A@EA@CCmdTarget@@8
	DD	FLAT:??_R1A@?0A@EA@CObject@@8
	DD	FLAT:??_R1KI@?0A@EA@IServiceUnitsSink@@8
rdata$r	ENDS
;	COMDAT ??_R3CChatServerDlg@@8
rdata$r	SEGMENT
??_R3CChatServerDlg@@8 DD 00H				; CChatServerDlg::`RTTI Class Hierarchy Descriptor'
	DD	01H
	DD	06H
	DD	FLAT:??_R2CChatServerDlg@@8
rdata$r	ENDS
;	COMDAT ??_R0?AVCChatServerDlg@@@8
data$r	SEGMENT
??_R0?AVCChatServerDlg@@@8 DD FLAT:??_7type_info@@6B@	; CChatServerDlg `RTTI Type Descriptor'
	DD	00H
	DB	'.?AVCChatServerDlg@@', 00H
data$r	ENDS
;	COMDAT ??_R4CChatServerDlg@@6BCDialog@@@
rdata$r	SEGMENT
??_R4CChatServerDlg@@6BCDialog@@@ DD 00H		; CChatServerDlg::`RTTI Complete Object Locator'
	DD	00H
	DD	00H
	DD	FLAT:??_R0?AVCChatServerDlg@@@8
	DD	FLAT:??_R3CChatServerDlg@@8
rdata$r	ENDS
;	COMDAT ??_R1A@?0A@EA@IServiceUnitsSink@@8
rdata$r	SEGMENT
??_R1A@?0A@EA@IServiceUnitsSink@@8 DD FLAT:??_R0?AUIServiceUnitsSink@@@8 ; IServiceUnitsSink::`RTTI Base Class Descriptor at (0,-1,0,64)'
	DD	00H
	DD	00H
	DD	0ffffffffH
	DD	00H
	DD	040H
	DD	FLAT:??_R3IServiceUnitsSink@@8
rdata$r	ENDS
;	COMDAT ??_R2IServiceUnitsSink@@8
rdata$r	SEGMENT
??_R2IServiceUnitsSink@@8 DD FLAT:??_R1A@?0A@EA@IServiceUnitsSink@@8 ; IServiceUnitsSink::`RTTI Base Class Array'
rdata$r	ENDS
;	COMDAT ??_R3IServiceUnitsSink@@8
rdata$r	SEGMENT
??_R3IServiceUnitsSink@@8 DD 00H			; IServiceUnitsSink::`RTTI Class Hierarchy Descriptor'
	DD	00H
	DD	01H
	DD	FLAT:??_R2IServiceUnitsSink@@8
rdata$r	ENDS
;	COMDAT ??_R0?AUIServiceUnitsSink@@@8
data$r	SEGMENT
??_R0?AUIServiceUnitsSink@@@8 DD FLAT:??_7type_info@@6B@ ; IServiceUnitsSink `RTTI Type Descriptor'
	DD	00H
	DB	'.?AUIServiceUnitsSink@@', 00H
data$r	ENDS
;	COMDAT ??_R4IServiceUnitsSink@@6B@
rdata$r	SEGMENT
??_R4IServiceUnitsSink@@6B@ DD 00H			; IServiceUnitsSink::`RTTI Complete Object Locator'
	DD	00H
	DD	00H
	DD	FLAT:??_R0?AUIServiceUnitsSink@@@8
	DD	FLAT:??_R3IServiceUnitsSink@@8
rdata$r	ENDS
;	COMDAT ??_R1A@?0A@EA@CInitParameter@@8
rdata$r	SEGMENT
??_R1A@?0A@EA@CInitParameter@@8 DD FLAT:??_R0?AVCInitParameter@@@8 ; CInitParameter::`RTTI Base Class Descriptor at (0,-1,0,64)'
	DD	00H
	DD	00H
	DD	0ffffffffH
	DD	00H
	DD	040H
	DD	FLAT:??_R3CInitParameter@@8
rdata$r	ENDS
;	COMDAT ??_R2CInitParameter@@8
rdata$r	SEGMENT
??_R2CInitParameter@@8 DD FLAT:??_R1A@?0A@EA@CInitParameter@@8 ; CInitParameter::`RTTI Base Class Array'
rdata$r	ENDS
;	COMDAT ??_R3CInitParameter@@8
rdata$r	SEGMENT
??_R3CInitParameter@@8 DD 00H				; CInitParameter::`RTTI Class Hierarchy Descriptor'
	DD	00H
	DD	01H
	DD	FLAT:??_R2CInitParameter@@8
rdata$r	ENDS
;	COMDAT ??_R0?AVCInitParameter@@@8
data$r	SEGMENT
??_R0?AVCInitParameter@@@8 DD FLAT:??_7type_info@@6B@	; CInitParameter `RTTI Type Descriptor'
	DD	00H
	DB	'.?AVCInitParameter@@', 00H
data$r	ENDS
;	COMDAT ??_R4CInitParameter@@6B@
rdata$r	SEGMENT
??_R4CInitParameter@@6B@ DD 00H				; CInitParameter::`RTTI Complete Object Locator'
	DD	00H
	DD	00H
	DD	FLAT:??_R0?AVCInitParameter@@@8
	DD	FLAT:??_R3CInitParameter@@8
rdata$r	ENDS
;	COMDAT ??_C@_0L@MLALHOMK@?1ServerID?3@
CONST	SEGMENT
??_C@_0L@MLALHOMK@?1ServerID?3@ DB '/ServerID:', 00H	; `string'
CONST	ENDS
;	COMDAT ??_C@_0CJ@LFENAACN@?$LH?$PO?N?q?U?$PN?T?Z?T?K?P?P?V?P?$KD?$KM?O?$LF?M?$LD?R?$KK?G?s?W?$KC?O?z?$LL?X?$LL@
CONST	SEGMENT
??_C@_0CJ@LFENAACN@?$LH?$PO?N?q?U?$PN?T?Z?T?K?P?P?V?P?$KD?$KM?O?$LF?M?$LD?R?$KK?G?s?W?$KC?O?z?$LL?X?$LL@ DB 0b7H
	DB	0feH, 0ceH, 0f1H, 0d5H, 0fdH, 0d4H, 0daH, 0d4H, 0cbH, 0d0H, 0d0H
	DB	0d6H, 0d0H, 0a3H, 0acH, 0cfH, 0b5H, 0cdH, 0b3H, 0d2H, 0aaH, 0c7H
	DB	0f3H, 0d7H, 0a2H, 0cfH, 0faH, 0bbH, 0d8H, 0bbH, 0b0H, 0c7H, 0ebH
	DB	0c7H, 0f3H, 0caH, 0a7H, 0b0H, 0dcH, 00H	; `string'
CONST	ENDS
;	COMDAT ?__LINE__Var@?0??OnBnClickedStopService@CChatServerDlg@@IAEXXZ@4JA
_DATA	SEGMENT
?__LINE__Var@?0??OnBnClickedStopService@CChatServerDlg@@IAEXXZ@4JA DD 0e8H ; `CChatServerDlg::OnBnClickedStopService'::`1'::__LINE__Var
_DATA	ENDS
;	COMDAT ?__LINE__Var@?0??OnBnClickedStartService@CChatServerDlg@@IAEXXZ@4JA
_DATA	SEGMENT
?__LINE__Var@?0??OnBnClickedStartService@CChatServerDlg@@IAEXXZ@4JA DD 0d8H ; `CChatServerDlg::OnBnClickedStartService'::`1'::__LINE__Var
_DATA	ENDS
;	COMDAT ??_C@_0EM@GBAEOLBJ@g?3?2?M?x?$LK?$PM?2happygamewh?2?$LH?$PO?N?q?$LG?K?2?O?$LF?M?$LD@
CONST	SEGMENT
??_C@_0EM@GBAEOLBJ@g?3?2?M?x?$LK?$PM?2happygamewh?2?$LH?$PO?N?q?$LG?K?2?O?$LF?M?$LD@ DB 'g'
	DB	':\', 0cdH, 0f8H, 0baH, 0fcH, '\happygamewh\', 0b7H, 0feH, 0ceH
	DB	0f1H, 0b6H, 0cbH, '\', 0cfH, 0b5H, 0cdH, 0b3H, 0c4H, 0a3H, 0bfH
	DB	0e9H, '\', 0b7H, 0feH, 0ceH, 0f1H, 0c6H, 0f7H, 0d7H, 0e9H, 0bcH
	DB	0feH, '\', 0c1H, 0c4H, 0ccH, 0ecH, 0b7H, 0feH, 0ceH, 0f1H, 0c6H
	DB	0f7H, '\chatserverdlg.cpp', 00H		; `string'
CONST	ENDS
;	COMDAT ?__LINE__Var@?0??StartServerService@CChatServerDlg@@IAE_NG@Z@4JA
_DATA	SEGMENT
?__LINE__Var@?0??StartServerService@CChatServerDlg@@IAE_NG@Z@4JA DD 0c8H ; `CChatServerDlg::StartServerService'::`1'::__LINE__Var
_DATA	ENDS
;	COMDAT ??_C@_0BF@FCJKJFHE@?A?D?L?l?$LH?$PO?N?q?F?w?5?9?9?5?$FL?5?$CFs?5?$FN@
CONST	SEGMENT
??_C@_0BF@FCJKJFHE@?A?D?L?l?$LH?$PO?N?q?F?w?5?9?9?5?$FL?5?$CFs?5?$FN@ DB 0c1H
	DB	0c4H, 0ccH, 0ecH, 0b7H, 0feH, 0ceH, 0f1H, 0c6H, 0f7H, ' -- [ %'
	DB	's ]', 00H					; `string'
CONST	ENDS
;	COMDAT ??_C@_04OIFFEIFD@?T?K?P?P@
CONST	SEGMENT
??_C@_04OIFFEIFD@?T?K?P?P@ DB 0d4H, 0cbH, 0d0H, 0d0H, 00H ; `string'
CONST	ENDS
;	COMDAT ??_C@_06CCMEENJJ@?$LD?u?J?$LM?$LL?$KP@
CONST	SEGMENT
??_C@_06CCMEENJJ@?$LD?u?J?$LM?$LL?$KP@ DB 0b3H, 0f5H, 0caH, 0bcH, 0bbH, 0afH
	DB	00H						; `string'
CONST	ENDS
;	COMDAT ??_C@_04MLIFMOBA@?M?$KD?V?$LJ@
CONST	SEGMENT
??_C@_04MLIFMOBA@?M?$KD?V?$LJ@ DB 0cdH, 0a3H, 0d6H, 0b9H, 00H ; `string'
CONST	ENDS
;	COMDAT ??_C@_0BJ@HLOOMBNP@?$LH?$PO?N?q?F?t?$LG?$KP?$LD?I?$LJ?$KG?5?$FL?5?$LG?K?$LP?Z?3?$CFd?5?$FN@
CONST	SEGMENT
??_C@_0BJ@HLOOMBNP@?$LH?$PO?N?q?F?t?$LG?$KP?$LD?I?$LJ?$KG?5?$FL?5?$LG?K?$LP?Z?3?$CFd?5?$FN@ DB 0b7H
	DB	0feH, 0ceH, 0f1H, 0c6H, 0f4H, 0b6H, 0afH, 0b3H, 0c9H, 0b9H, 0a6H
	DB	' [ ', 0b6H, 0cbH, 0bfH, 0daH, ':%d ]', 00H	; `string'
CONST	ENDS
;	COMDAT ??_C@_0BC@OFPAKDFO@?U?$PN?T?Z?$LD?u?J?$LM?$LL?$KP?W?i?$LM?$PO?4?4?4@
CONST	SEGMENT
??_C@_0BC@OFPAKDFO@?U?$PN?T?Z?$LD?u?J?$LM?$LL?$KP?W?i?$LM?$PO?4?4?4@ DB 0d5H
	DB	0fdH, 0d4H, 0daH, 0b3H, 0f5H, 0caH, 0bcH, 0bbH, 0afH, 0d7H, 0e9H
	DB	0bcH, 0feH, '...', 00H			; `string'
CONST	ENDS
;	COMDAT ??_C@_0N@HNGKNHMM@?$LH?$PO?N?q?M?$KD?V?$LJ?$LD?I?$LJ?$KG@
CONST	SEGMENT
??_C@_0N@HNGKNHMM@?$LH?$PO?N?q?M?$KD?V?$LJ?$LD?I?$LJ?$KG@ DB 0b7H, 0feH, 0ceH
	DB	0f1H, 0cdH, 0a3H, 0d6H, 0b9H, 0b3H, 0c9H, 0b9H, 0a6H, 00H ; `string'
CONST	ENDS
;	COMDAT ??_C@_0CN@IKJEBACB@?S?N?O?$LH?$LH?$PO?N?q?F?w?U?$PN?T?Z?T?K?P?P?V?P?$KD?$KM?D?z?H?$LH?J?$LF?R?$KK?$LJ@
CONST	SEGMENT
??_C@_0CN@IKJEBACB@?S?N?O?$LH?$LH?$PO?N?q?F?w?U?$PN?T?Z?T?K?P?P?V?P?$KD?$KM?D?z?H?$LH?J?$LF?R?$KK?$LJ@ DB 0d3H
	DB	0ceH, 0cfH, 0b7H, 0b7H, 0feH, 0ceH, 0f1H, 0c6H, 0f7H, 0d5H, 0fdH
	DB	0d4H, 0daH, 0d4H, 0cbH, 0d0H, 0d0H, 0d6H, 0d0H, 0a3H, 0acH, 0c4H
	DB	0faH, 0c8H, 0b7H, 0caH, 0b5H, 0d2H, 0aaH, 0b9H, 0d8H, 0b1H, 0d5H
	DB	0b7H, 0feH, 0ceH, 0f1H, 0c6H, 0f7H, 0c2H, 0f0H, 0a3H, 0bfH, 00H ; `string'
CONST	ENDS
;	COMDAT ??_C@_0BH@EAHGGLJH@?A?D?L?l?$LH?$PO?N?q?F?w?5?9?9?5?$FL?5?M?$KD?V?$LJ?5?$FN@
CONST	SEGMENT
??_C@_0BH@EAHGGLJH@?A?D?L?l?$LH?$PO?N?q?F?w?5?9?9?5?$FL?5?M?$KD?V?$LJ?5?$FN@ DB 0c1H
	DB	0c4H, 0ccH, 0ecH, 0b7H, 0feH, 0ceH, 0f1H, 0c6H, 0f7H, ' -- [ ', 0cdH
	DB	0a3H, 0d6H, 0b9H, ' ]', 00H			; `string'
CONST	ENDS
;	COMDAT ??_7CChatServerDlg@@6BIServiceUnitsSink@@@
CONST	SEGMENT
??_7CChatServerDlg@@6BIServiceUnitsSink@@@ DD FLAT:??_R4CChatServerDlg@@6BIServiceUnitsSink@@@ ; CChatServerDlg::`vftable'
	DD	FLAT:?OnServiceUnitsStatus@CChatServerDlg@@UAEXW4enServiceStatus@@@Z
CONST	ENDS
;	COMDAT ??_7CChatServerDlg@@6BCDialog@@@
CONST	SEGMENT
??_7CChatServerDlg@@6BCDialog@@@ DD FLAT:??_R4CChatServerDlg@@6BCDialog@@@ ; CChatServerDlg::`vftable'
	DD	FLAT:?GetRuntimeClass@CDialog@@UBEPAUCRuntimeClass@@XZ
	DD	FLAT:??_ECChatServerDlg@@UAEPAXI@Z
	DD	FLAT:?Serialize@CObject@@UAEXAAVCArchive@@@Z
	DD	FLAT:?AssertValid@CDialog@@UBEXXZ
	DD	FLAT:?Dump@CDialog@@UBEXAAVCDumpContext@@@Z
	DD	FLAT:?OnCmdMsg@CDialog@@UAEHIHPAXPAUAFX_CMDHANDLERINFO@@@Z
	DD	FLAT:?OnFinalRelease@CWnd@@UAEXXZ
	DD	FLAT:?IsInvokeAllowed@CCmdTarget@@UAEHJ@Z
	DD	FLAT:?GetDispatchIID@CCmdTarget@@UAEHPAU_GUID@@@Z
	DD	FLAT:?GetTypeInfoCount@CCmdTarget@@UAEIXZ
	DD	FLAT:?GetTypeLibCache@CCmdTarget@@UAEPAVCTypeLibCache@@XZ
	DD	FLAT:?GetTypeLib@CCmdTarget@@UAEJKPAPAUITypeLib@@@Z
	DD	FLAT:?GetMessageMap@CChatServerDlg@@MBEPBUAFX_MSGMAP@@XZ
	DD	FLAT:?GetCommandMap@CCmdTarget@@MBEPBUAFX_OLECMDMAP@@XZ
	DD	FLAT:?GetDispatchMap@CCmdTarget@@MBEPBUAFX_DISPMAP@@XZ
	DD	FLAT:?GetConnectionMap@CCmdTarget@@MBEPBUAFX_CONNECTIONMAP@@XZ
	DD	FLAT:?GetInterfaceMap@CWnd@@MBEPBUAFX_INTERFACEMAP@@XZ
	DD	FLAT:?GetEventSinkMap@CCmdTarget@@MBEPBUAFX_EVENTSINKMAP@@XZ
	DD	FLAT:?OnCreateAggregates@CCmdTarget@@UAEHXZ
	DD	FLAT:?GetInterfaceHook@CCmdTarget@@UAEPAUIUnknown@@PBX@Z
	DD	FLAT:?GetExtraConnectionPoints@CCmdTarget@@MAEHPAVCPtrArray@@@Z
	DD	FLAT:?GetConnectionHook@CCmdTarget@@MAEPAUIConnectionPoint@@ABU_GUID@@@Z
	DD	FLAT:?PreSubclassWindow@CWnd@@UAEXXZ
	DD	FLAT:?Create@CWnd@@UAEHPBD0KABUtagRECT@@PAV1@IPAUCCreateContext@@@Z
	DD	FLAT:?CreateEx@CWnd@@UAEHKPBD0KABUtagRECT@@PAV1@IPAX@Z
	DD	FLAT:?CreateEx@CWnd@@UAEHKPBD0KHHHHPAUHWND__@@PAUHMENU__@@PAX@Z
	DD	FLAT:?DestroyWindow@CWnd@@UAEHXZ
	DD	FLAT:?PreCreateWindow@CWnd@@UAEHAAUtagCREATESTRUCTA@@@Z
	DD	FLAT:?CalcWindowRect@CWnd@@UAEXPAUtagRECT@@I@Z
	DD	FLAT:?GetMenu@CWnd@@UBEPAVCMenu@@XZ
	DD	FLAT:?SetMenu@CWnd@@UAEHPAVCMenu@@@Z
	DD	FLAT:?OnToolHitTest@CWnd@@UBEHVCPoint@@PAUtagTOOLINFOA@@@Z
	DD	FLAT:?GetScrollBarCtrl@CWnd@@UBEPAVCScrollBar@@H@Z
	DD	FLAT:?WinHelpA@CWnd@@UAEXKI@Z
	DD	FLAT:?HtmlHelpA@CWnd@@UAEXKI@Z
	DD	FLAT:?WinHelpInternal@CWnd@@UAEXKI@Z
	DD	FLAT:?ContinueModal@CWnd@@UAEHXZ
	DD	FLAT:?EndModalLoop@CWnd@@UAEXH@Z
	DD	FLAT:?OnDrawIconicThumbnailOrLivePreview@CWnd@@UAEXAAVCDC@@VCRect@@VCSize@@HAAH@Z
	DD	FLAT:?EnsureStdObj@CWnd@@UAEJXZ
	DD	FLAT:?get_accParent@CWnd@@UAEJPAPAUIDispatch@@@Z
	DD	FLAT:?get_accChildCount@CWnd@@UAEJPAJ@Z
	DD	FLAT:?get_accChild@CWnd@@UAEJUtagVARIANT@@PAPAUIDispatch@@@Z
	DD	FLAT:?get_accName@CWnd@@UAEJUtagVARIANT@@PAPA_W@Z
	DD	FLAT:?get_accValue@CWnd@@UAEJUtagVARIANT@@PAPA_W@Z
	DD	FLAT:?get_accDescription@CWnd@@UAEJUtagVARIANT@@PAPA_W@Z
	DD	FLAT:?get_accRole@CWnd@@UAEJUtagVARIANT@@PAU2@@Z
	DD	FLAT:?get_accState@CWnd@@UAEJUtagVARIANT@@PAU2@@Z
	DD	FLAT:?get_accHelp@CWnd@@UAEJUtagVARIANT@@PAPA_W@Z
	DD	FLAT:?get_accHelpTopic@CWnd@@UAEJPAPA_WUtagVARIANT@@PAJ@Z
	DD	FLAT:?get_accKeyboardShortcut@CWnd@@UAEJUtagVARIANT@@PAPA_W@Z
	DD	FLAT:?get_accFocus@CWnd@@UAEJPAUtagVARIANT@@@Z
	DD	FLAT:?get_accSelection@CWnd@@UAEJPAUtagVARIANT@@@Z
	DD	FLAT:?get_accDefaultAction@CWnd@@UAEJUtagVARIANT@@PAPA_W@Z
	DD	FLAT:?accSelect@CWnd@@UAEJJUtagVARIANT@@@Z
	DD	FLAT:?accLocation@CWnd@@UAEJPAJ000UtagVARIANT@@@Z
	DD	FLAT:?accNavigate@CWnd@@UAEJJUtagVARIANT@@PAU2@@Z
	DD	FLAT:?accHitTest@CWnd@@UAEJJJPAUtagVARIANT@@@Z
	DD	FLAT:?accDoDefaultAction@CWnd@@UAEJUtagVARIANT@@@Z
	DD	FLAT:?put_accName@CWnd@@UAEJUtagVARIANT@@PA_W@Z
	DD	FLAT:?put_accValue@CWnd@@UAEJUtagVARIANT@@PA_W@Z
	DD	FLAT:?SetProxy@CWnd@@UAEJPAUIAccessibleProxy@@@Z
	DD	FLAT:?CreateAccessibleProxy@CWnd@@UAEJIJPAJ@Z
	DD	FLAT:?OnCommand@CWnd@@MAEHIJ@Z
	DD	FLAT:?OnNotify@CWnd@@MAEHIJPAJ@Z
	DD	FLAT:?GetSuperWndProcAddr@CWnd@@MAEPAP6GJPAUHWND__@@IIJ@ZXZ
	DD	FLAT:?DoDataExchange@CChatServerDlg@@MAEXPAVCDataExchange@@@Z
	DD	FLAT:?BeginModalState@CWnd@@UAEXXZ
	DD	FLAT:?EndModalState@CWnd@@UAEXXZ
	DD	FLAT:?PreTranslateMessage@CChatServerDlg@@MAEHPAUtagMSG@@@Z
	DD	FLAT:?OnAmbientProperty@CWnd@@UAEHPAVCOleControlSite@@JPAUtagVARIANT@@@Z
	DD	FLAT:?WindowProc@CWnd@@MAEJIIJ@Z
	DD	FLAT:?OnWndMsg@CWnd@@MAEHIIJPAJ@Z
	DD	FLAT:?DefWindowProcA@CWnd@@MAEJIIJ@Z
	DD	FLAT:?PostNcDestroy@CWnd@@MAEXXZ
	DD	FLAT:?OnChildNotify@CWnd@@MAEHIIJPAJ@Z
	DD	FLAT:?OnTouchInputs@CWnd@@MAEHIPAUtagTOUCHINPUT@@@Z
	DD	FLAT:?OnTouchInput@CWnd@@MAEHVCPoint@@HHPAUtagTOUCHINPUT@@@Z
	DD	FLAT:?GetGestureStatus@CWnd@@MAEKVCPoint@@@Z
	DD	FLAT:?OnGestureZoom@CWnd@@MAEHVCPoint@@J@Z
	DD	FLAT:?OnGesturePan@CWnd@@MAEHVCPoint@@0@Z
	DD	FLAT:?OnGestureRotate@CWnd@@MAEHVCPoint@@N@Z
	DD	FLAT:?OnGestureTwoFingerTap@CWnd@@MAEHVCPoint@@@Z
	DD	FLAT:?OnGesturePressAndTap@CWnd@@MAEHVCPoint@@J@Z
	DD	FLAT:?ResizeDynamicLayout@CWnd@@MAEXXZ
	DD	FLAT:?CheckAutoCenter@CDialog@@UAEHXZ
	DD	FLAT:?IsFrameWnd@CWnd@@UBEHXZ
	DD	FLAT:?CreateControlContainer@CWnd@@MAEHPAPAVCOleControlContainer@@@Z
	DD	FLAT:?CreateControlSite@CWnd@@MAEHPAVCOleControlContainer@@PAPAVCOleControlSite@@IABU_GUID@@@Z
	DD	FLAT:?SetOccDialogInfo@CDialog@@MAEHPAU_AFX_OCC_DIALOG_INFO@@@Z
	DD	FLAT:?GetOccDialogInfo@CDialog@@MAEPAU_AFX_OCC_DIALOG_INFO@@XZ
	DD	FLAT:?Create@CDialog@@UAEHIPAVCWnd@@@Z
	DD	FLAT:?Create@CDialog@@UAEHPBDPAVCWnd@@@Z
	DD	FLAT:?CreateIndirect@CDialog@@UAEHPAXPAVCWnd@@@Z
	DD	FLAT:?CreateIndirect@CDialog@@UAEHPBUDLGTEMPLATE@@PAVCWnd@@PAX@Z
	DD	FLAT:?DoModal@CDialog@@UAEHXZ
	DD	FLAT:?OnInitDialog@CChatServerDlg@@MAEHXZ
	DD	FLAT:?OnSetFont@CDialog@@UAEXPAVCFont@@@Z
	DD	FLAT:?OnOK@CChatServerDlg@@MAEXXZ
	DD	FLAT:?OnCancel@CChatServerDlg@@MAEXXZ
	DD	FLAT:?PreInitDialog@CDialog@@MAEXXZ
CONST	ENDS
;	COMDAT ??_7IServiceUnitsSink@@6B@
CONST	SEGMENT
??_7IServiceUnitsSink@@6B@ DD FLAT:??_R4IServiceUnitsSink@@6B@ ; IServiceUnitsSink::`vftable'
	DD	FLAT:__purecall
CONST	ENDS
;	COMDAT ??_7CInitParameter@@6B@
CONST	SEGMENT
??_7CInitParameter@@6B@ DD FLAT:??_R4CInitParameter@@6B@ ; CInitParameter::`vftable'
	DD	FLAT:??_ECInitParameter@@UAEPAXI@Z
CONST	ENDS
;	COMDAT ??_R2CCmdTarget@@8
rdata$r	SEGMENT
??_R2CCmdTarget@@8 DD FLAT:??_R1A@?0A@EA@CCmdTarget@@8	; CCmdTarget::`RTTI Base Class Array'
	DD	FLAT:??_R1A@?0A@EA@CObject@@8
rdata$r	ENDS
;	COMDAT ??_R3CCmdTarget@@8
rdata$r	SEGMENT
??_R3CCmdTarget@@8 DD 00H				; CCmdTarget::`RTTI Class Hierarchy Descriptor'
	DD	00H
	DD	02H
	DD	FLAT:??_R2CCmdTarget@@8
rdata$r	ENDS
;	COMDAT ??_R0?AVCCmdTarget@@@8
data$r	SEGMENT
??_R0?AVCCmdTarget@@@8 DD FLAT:??_7type_info@@6B@	; CCmdTarget `RTTI Type Descriptor'
	DD	00H
	DB	'.?AVCCmdTarget@@', 00H
data$r	ENDS
;	COMDAT ??_R1A@?0A@EA@CCmdTarget@@8
rdata$r	SEGMENT
??_R1A@?0A@EA@CCmdTarget@@8 DD FLAT:??_R0?AVCCmdTarget@@@8 ; CCmdTarget::`RTTI Base Class Descriptor at (0,-1,0,64)'
	DD	01H
	DD	00H
	DD	0ffffffffH
	DD	00H
	DD	040H
	DD	FLAT:??_R3CCmdTarget@@8
rdata$r	ENDS
;	COMDAT ??_R2CWnd@@8
rdata$r	SEGMENT
??_R2CWnd@@8 DD	FLAT:??_R1A@?0A@EA@CWnd@@8		; CWnd::`RTTI Base Class Array'
	DD	FLAT:??_R1A@?0A@EA@CCmdTarget@@8
	DD	FLAT:??_R1A@?0A@EA@CObject@@8
rdata$r	ENDS
;	COMDAT ??_R3CWnd@@8
rdata$r	SEGMENT
??_R3CWnd@@8 DD	00H					; CWnd::`RTTI Class Hierarchy Descriptor'
	DD	00H
	DD	03H
	DD	FLAT:??_R2CWnd@@8
rdata$r	ENDS
;	COMDAT ??_R0?AVCWnd@@@8
data$r	SEGMENT
??_R0?AVCWnd@@@8 DD FLAT:??_7type_info@@6B@		; CWnd `RTTI Type Descriptor'
	DD	00H
	DB	'.?AVCWnd@@', 00H
data$r	ENDS
;	COMDAT ??_R1A@?0A@EA@CWnd@@8
rdata$r	SEGMENT
??_R1A@?0A@EA@CWnd@@8 DD FLAT:??_R0?AVCWnd@@@8		; CWnd::`RTTI Base Class Descriptor at (0,-1,0,64)'
	DD	02H
	DD	00H
	DD	0ffffffffH
	DD	00H
	DD	040H
	DD	FLAT:??_R3CWnd@@8
rdata$r	ENDS
;	COMDAT ??_R2CDialog@@8
rdata$r	SEGMENT
??_R2CDialog@@8 DD FLAT:??_R1A@?0A@EA@CDialog@@8	; CDialog::`RTTI Base Class Array'
	DD	FLAT:??_R1A@?0A@EA@CWnd@@8
	DD	FLAT:??_R1A@?0A@EA@CCmdTarget@@8
	DD	FLAT:??_R1A@?0A@EA@CObject@@8
rdata$r	ENDS
;	COMDAT ??_R3CDialog@@8
rdata$r	SEGMENT
??_R3CDialog@@8 DD 00H					; CDialog::`RTTI Class Hierarchy Descriptor'
	DD	00H
	DD	04H
	DD	FLAT:??_R2CDialog@@8
rdata$r	ENDS
;	COMDAT ??_R0?AVCDialog@@@8
data$r	SEGMENT
??_R0?AVCDialog@@@8 DD FLAT:??_7type_info@@6B@		; CDialog `RTTI Type Descriptor'
	DD	00H
	DB	'.?AVCDialog@@', 00H
data$r	ENDS
;	COMDAT ??_R1A@?0A@EA@CDialog@@8
rdata$r	SEGMENT
??_R1A@?0A@EA@CDialog@@8 DD FLAT:??_R0?AVCDialog@@@8	; CDialog::`RTTI Base Class Descriptor at (0,-1,0,64)'
	DD	03H
	DD	00H
	DD	0ffffffffH
	DD	00H
	DD	040H
	DD	FLAT:??_R3CDialog@@8
rdata$r	ENDS
;	COMDAT ??_R2CObject@@8
rdata$r	SEGMENT
??_R2CObject@@8 DD FLAT:??_R1A@?0A@EA@CObject@@8	; CObject::`RTTI Base Class Array'
rdata$r	ENDS
;	COMDAT ??_R3CObject@@8
rdata$r	SEGMENT
??_R3CObject@@8 DD 00H					; CObject::`RTTI Class Hierarchy Descriptor'
	DD	00H
	DD	01H
	DD	FLAT:??_R2CObject@@8
rdata$r	ENDS
;	COMDAT ??_R0?AVCObject@@@8
data$r	SEGMENT
??_R0?AVCObject@@@8 DD FLAT:??_7type_info@@6B@		; CObject `RTTI Type Descriptor'
	DD	00H
	DB	'.?AVCObject@@', 00H
data$r	ENDS
;	COMDAT ??_R1A@?0A@EA@CObject@@8
rdata$r	SEGMENT
??_R1A@?0A@EA@CObject@@8 DD FLAT:??_R0?AVCObject@@@8	; CObject::`RTTI Base Class Descriptor at (0,-1,0,64)'
	DD	00H
	DD	00H
	DD	0ffffffffH
	DD	00H
	DD	040H
	DD	FLAT:??_R3CObject@@8
rdata$r	ENDS
;	COMDAT ??_C@_00CNPNBAHC@@
CONST	SEGMENT
??_C@_00CNPNBAHC@@ DB 00H				; `string'
CONST	ENDS
;	COMDAT xdata$x
xdata$x	SEGMENT
__unwindtable$?OnMessageProcessCmdLine@CChatServerDlg@@QAEJIJ@Z DD 0ffffffffH
	DD	FLAT:__unwindfunclet$?OnMessageProcessCmdLine@CChatServerDlg@@QAEJIJ@Z$0
__ehfuncinfo$?OnMessageProcessCmdLine@CChatServerDlg@@QAEJIJ@Z DD 019930522H
	DD	01H
	DD	FLAT:__unwindtable$?OnMessageProcessCmdLine@CChatServerDlg@@QAEJIJ@Z
	DD	2 DUP(00H)
	DD	2 DUP(00H)
	DD	00H
	DD	01H
xdata$x	ENDS
;	COMDAT xdata$x
xdata$x	SEGMENT
__catchsym$?OnBnClickedStopService@CChatServerDlg@@IAEXXZ$2 DD 040H
	DD	00H
	DD	00H
	DD	FLAT:__catch$?OnBnClickedStopService@CChatServerDlg@@IAEXXZ$0
__unwindtable$?OnBnClickedStopService@CChatServerDlg@@IAEXXZ DD 0ffffffffH
	DD	00H
	DD	0ffffffffH
	DD	00H
__tryblocktable$?OnBnClickedStopService@CChatServerDlg@@IAEXXZ DD 00H
	DD	00H
	DD	01H
	DD	01H
	DD	FLAT:__catchsym$?OnBnClickedStopService@CChatServerDlg@@IAEXXZ$2
__ehfuncinfo$?OnBnClickedStopService@CChatServerDlg@@IAEXXZ DD 019930522H
	DD	02H
	DD	FLAT:__unwindtable$?OnBnClickedStopService@CChatServerDlg@@IAEXXZ
	DD	01H
	DD	FLAT:__tryblocktable$?OnBnClickedStopService@CChatServerDlg@@IAEXXZ
	DD	2 DUP(00H)
	DD	00H
	DD	01H
xdata$x	ENDS
;	COMDAT xdata$x
xdata$x	SEGMENT
__catchsym$?OnBnClickedStartService@CChatServerDlg@@IAEXXZ$2 DD 040H
	DD	00H
	DD	00H
	DD	FLAT:__catch$?OnBnClickedStartService@CChatServerDlg@@IAEXXZ$0
__unwindtable$?OnBnClickedStartService@CChatServerDlg@@IAEXXZ DD 0ffffffffH
	DD	00H
	DD	0ffffffffH
	DD	00H
__tryblocktable$?OnBnClickedStartService@CChatServerDlg@@IAEXXZ DD 00H
	DD	00H
	DD	01H
	DD	01H
	DD	FLAT:__catchsym$?OnBnClickedStartService@CChatServerDlg@@IAEXXZ$2
__ehfuncinfo$?OnBnClickedStartService@CChatServerDlg@@IAEXXZ DD 019930522H
	DD	02H
	DD	FLAT:__unwindtable$?OnBnClickedStartService@CChatServerDlg@@IAEXXZ
	DD	01H
	DD	FLAT:__tryblocktable$?OnBnClickedStartService@CChatServerDlg@@IAEXXZ
	DD	2 DUP(00H)
	DD	00H
	DD	01H
xdata$x	ENDS
;	COMDAT xdata$x
xdata$x	SEGMENT
__catchsym$?StartServerService@CChatServerDlg@@IAE_NG@Z$2 DD 040H
	DD	00H
	DD	00H
	DD	FLAT:__catch$?StartServerService@CChatServerDlg@@IAE_NG@Z$0
__unwindtable$?StartServerService@CChatServerDlg@@IAE_NG@Z DD 0ffffffffH
	DD	00H
	DD	0ffffffffH
	DD	00H
__tryblocktable$?StartServerService@CChatServerDlg@@IAE_NG@Z DD 00H
	DD	00H
	DD	01H
	DD	01H
	DD	FLAT:__catchsym$?StartServerService@CChatServerDlg@@IAE_NG@Z$2
__ehfuncinfo$?StartServerService@CChatServerDlg@@IAE_NG@Z DD 019930522H
	DD	02H
	DD	FLAT:__unwindtable$?StartServerService@CChatServerDlg@@IAE_NG@Z
	DD	01H
	DD	FLAT:__tryblocktable$?StartServerService@CChatServerDlg@@IAE_NG@Z
	DD	2 DUP(00H)
	DD	00H
	DD	01H
xdata$x	ENDS
;	COMDAT xdata$x
xdata$x	SEGMENT
__unwindtable$??0CChatServerDlg@@QAE@XZ DD 0ffffffffH
	DD	FLAT:__unwindfunclet$??0CChatServerDlg@@QAE@XZ$0
	DD	00H
	DD	FLAT:__unwindfunclet$??0CChatServerDlg@@QAE@XZ$1
__ehfuncinfo$??0CChatServerDlg@@QAE@XZ DD 019930522H
	DD	02H
	DD	FLAT:__unwindtable$??0CChatServerDlg@@QAE@XZ
	DD	2 DUP(00H)
	DD	2 DUP(00H)
	DD	00H
	DD	01H
xdata$x	ENDS
; Function compile flags: /Odtp /ZI
;	COMDAT ??_GCChatServerDlg@@UAEPAXI@Z
_TEXT	SEGMENT
_this$ = -4						; size = 4
___flags$ = 8						; size = 4
??_GCChatServerDlg@@UAEPAXI@Z PROC			; CChatServerDlg::`scalar deleting destructor', COMDAT
; _this$ = ecx
  00000	55		 push	 ebp
  00001	8b ec		 mov	 ebp, esp
  00003	83 ec 44	 sub	 esp, 68			; 00000044H
  00006	53		 push	 ebx
  00007	56		 push	 esi
  00008	57		 push	 edi
  00009	89 4d fc	 mov	 DWORD PTR _this$[ebp], ecx
  0000c	8b 4d fc	 mov	 ecx, DWORD PTR _this$[ebp]
  0000f	e8 00 00 00 00	 call	 ??1CChatServerDlg@@UAE@XZ ; CChatServerDlg::~CChatServerDlg
  00014	8b 45 08	 mov	 eax, DWORD PTR ___flags$[ebp]
  00017	83 e0 01	 and	 eax, 1
  0001a	74 24		 je	 SHORT $LN2@scalar
  0001c	8b 45 08	 mov	 eax, DWORD PTR ___flags$[ebp]
  0001f	83 e0 04	 and	 eax, 4
  00022	75 0b		 jne	 SHORT $LN3@scalar
  00024	8b 45 fc	 mov	 eax, DWORD PTR _this$[ebp]
  00027	50		 push	 eax
  00028	e8 00 00 00 00	 call	 ??3CObject@@SGXPAX@Z	; CObject::operator delete
  0002d	eb 11		 jmp	 SHORT $LN2@scalar
$LN3@scalar:
  0002f	68 50 6d 00 00	 push	 27984			; 00006d50H
  00034	8b 45 fc	 mov	 eax, DWORD PTR _this$[ebp]
  00037	50		 push	 eax
  00038	e8 00 00 00 00	 call	 ?__global_delete@@YAXPAXI@Z ; __global_delete
  0003d	83 c4 08	 add	 esp, 8
$LN2@scalar:
  00040	8b 45 fc	 mov	 eax, DWORD PTR _this$[ebp]
  00043	5f		 pop	 edi
  00044	5e		 pop	 esi
  00045	5b		 pop	 ebx
  00046	8b e5		 mov	 esp, ebp
  00048	5d		 pop	 ebp
  00049	c2 04 00	 ret	 4
??_GCChatServerDlg@@UAEPAXI@Z ENDP			; CChatServerDlg::`scalar deleting destructor'
_TEXT	ENDS
; Function compile flags: /Odtp /ZI
; File g:\网狐\happygamewh\服务端\系统模块\服务器组件\聊天服务器\chatserverdlg.cpp
;	COMDAT ?GetMessageMap@CChatServerDlg@@MBEPBUAFX_MSGMAP@@XZ
_TEXT	SEGMENT
_this$ = -4						; size = 4
?GetMessageMap@CChatServerDlg@@MBEPBUAFX_MSGMAP@@XZ PROC ; CChatServerDlg::GetMessageMap, COMDAT
; _this$ = ecx

; 11   : BEGIN_MESSAGE_MAP(CChatServerDlg, CDialog)

  00000	55		 push	 ebp
  00001	8b ec		 mov	 ebp, esp
  00003	83 ec 44	 sub	 esp, 68			; 00000044H
  00006	53		 push	 ebx
  00007	56		 push	 esi
  00008	57		 push	 edi
  00009	89 4d fc	 mov	 DWORD PTR _this$[ebp], ecx
  0000c	e8 00 00 00 00	 call	 ?GetThisMessageMap@CChatServerDlg@@KGPBUAFX_MSGMAP@@XZ ; CChatServerDlg::GetThisMessageMap
  00011	5f		 pop	 edi
  00012	5e		 pop	 esi
  00013	5b		 pop	 ebx
  00014	8b e5		 mov	 esp, ebp
  00016	5d		 pop	 ebp
  00017	c3		 ret	 0
?GetMessageMap@CChatServerDlg@@MBEPBUAFX_MSGMAP@@XZ ENDP ; CChatServerDlg::GetMessageMap
_TEXT	ENDS
; Function compile flags: /Odtp /ZI
; File g:\网狐\happygamewh\服务端\系统模块\服务器组件\聊天服务器\chatserverdlg.cpp
;	COMDAT ?GetThisMessageMap@CChatServerDlg@@KGPBUAFX_MSGMAP@@XZ
_TEXT	SEGMENT
?GetThisMessageMap@CChatServerDlg@@KGPBUAFX_MSGMAP@@XZ PROC ; CChatServerDlg::GetThisMessageMap, COMDAT

; 11   : BEGIN_MESSAGE_MAP(CChatServerDlg, CDialog)

  00000	55		 push	 ebp
  00001	8b ec		 mov	 ebp, esp
  00003	83 ec 40	 sub	 esp, 64			; 00000040H
  00006	53		 push	 ebx
  00007	56		 push	 esi
  00008	57		 push	 edi

; 12   : 
; 13   : 	//系统消息
; 14   : 	ON_WM_QUERYENDSESSION()
; 15   : 
; 16   : 	ON_BN_CLICKED(IDC_STOP_SERVICE, OnBnClickedStopService)
; 17   : 	ON_BN_CLICKED(IDC_START_SERVICE, OnBnClickedStartService)
; 18   : 	//自定消息
; 19   : 	ON_MESSAGE(WM_PROCESS_CMD_LINE,OnMessageProcessCmdLine)
; 20   : 
; 21   : END_MESSAGE_MAP()

  00009	b8 00 00 00 00	 mov	 eax, OFFSET ?messageMap@?1??GetThisMessageMap@CChatServerDlg@@KGPBUAFX_MSGMAP@@XZ@4U3@B
  0000e	5f		 pop	 edi
  0000f	5e		 pop	 esi
  00010	5b		 pop	 ebx
  00011	8b e5		 mov	 esp, ebp
  00013	5d		 pop	 ebp
  00014	c3		 ret	 0
?GetThisMessageMap@CChatServerDlg@@KGPBUAFX_MSGMAP@@XZ ENDP ; CChatServerDlg::GetThisMessageMap
_TEXT	ENDS
; Function compile flags: /Odtp /ZI
; File g:\网狐\happygamewh\服务端\系统模块\服务器组件\聊天服务器\chatserverdlg.cpp
;	COMDAT ?OnMessageProcessCmdLine@CChatServerDlg@@QAEJIJ@Z
_TEXT	SEGMENT
$T2 = -132						; size = 4
_wServerID$3 = -64					; size = 2
_szSrverID$ = -60					; size = 32
_pszCommandLine$ = -28					; size = 4
_CommandLine$ = -24					; size = 4
_this$ = -20						; size = 4
__$ArrayPad$ = -16					; size = 4
__$EHRec$ = -12						; size = 12
_wParam$ = 8						; size = 4
_lParam$ = 12						; size = 4
?OnMessageProcessCmdLine@CChatServerDlg@@QAEJIJ@Z PROC	; CChatServerDlg::OnMessageProcessCmdLine, COMDAT
; _this$ = ecx

; 261  : {

  00000	55		 push	 ebp
  00001	8b ec		 mov	 ebp, esp
  00003	6a ff		 push	 -1
  00005	68 00 00 00 00	 push	 __ehhandler$?OnMessageProcessCmdLine@CChatServerDlg@@QAEJIJ@Z
  0000a	64 a1 00 00 00
	00		 mov	 eax, DWORD PTR fs:0
  00010	50		 push	 eax
  00011	83 ec 78	 sub	 esp, 120		; 00000078H
  00014	a1 00 00 00 00	 mov	 eax, DWORD PTR ___security_cookie
  00019	33 c5		 xor	 eax, ebp
  0001b	89 45 f0	 mov	 DWORD PTR __$ArrayPad$[ebp], eax
  0001e	53		 push	 ebx
  0001f	56		 push	 esi
  00020	57		 push	 edi
  00021	50		 push	 eax
  00022	8d 45 f4	 lea	 eax, DWORD PTR __$EHRec$[ebp]
  00025	64 a3 00 00 00
	00		 mov	 DWORD PTR fs:0, eax
  0002b	89 4d ec	 mov	 DWORD PTR _this$[ebp], ecx

; 262  : 	//变量定义
; 263  : 	CWHCommandLine CommandLine;

  0002e	8d 4d e8	 lea	 ecx, DWORD PTR _CommandLine$[ebp]
  00031	ff 15 00 00 00
	00		 call	 DWORD PTR __imp_??0CWHCommandLine@@QAE@XZ
  00037	c7 45 fc 00 00
	00 00		 mov	 DWORD PTR __$EHRec$[ebp+8], 0

; 264  : 	LPCTSTR pszCommandLine=(LPCTSTR)(lParam);

  0003e	8b 45 0c	 mov	 eax, DWORD PTR _lParam$[ebp]
  00041	89 45 e4	 mov	 DWORD PTR _pszCommandLine$[ebp], eax

; 265  : 
; 266  : 	//房间标识
; 267  : 	TCHAR szSrverID[32]=TEXT("");

  00044	a0 00 00 00 00	 mov	 al, BYTE PTR ??_C@_00CNPNBAHC@@
  00049	88 45 c4	 mov	 BYTE PTR _szSrverID$[ebp], al
  0004c	33 c0		 xor	 eax, eax
  0004e	89 45 c5	 mov	 DWORD PTR _szSrverID$[ebp+1], eax
  00051	89 45 c9	 mov	 DWORD PTR _szSrverID$[ebp+5], eax
  00054	89 45 cd	 mov	 DWORD PTR _szSrverID$[ebp+9], eax
  00057	89 45 d1	 mov	 DWORD PTR _szSrverID$[ebp+13], eax
  0005a	89 45 d5	 mov	 DWORD PTR _szSrverID$[ebp+17], eax
  0005d	89 45 d9	 mov	 DWORD PTR _szSrverID$[ebp+21], eax
  00060	89 45 dd	 mov	 DWORD PTR _szSrverID$[ebp+25], eax
  00063	66 89 45 e1	 mov	 WORD PTR _szSrverID$[ebp+29], ax
  00067	88 45 e3	 mov	 BYTE PTR _szSrverID$[ebp+31], al

; 268  : 	if (CommandLine.SearchCommandItem(pszCommandLine,TEXT("/ServerID:"),szSrverID,CountArray(szSrverID))==true)

  0006a	6a 20		 push	 32			; 00000020H
  0006c	8d 45 c4	 lea	 eax, DWORD PTR _szSrverID$[ebp]
  0006f	50		 push	 eax
  00070	68 00 00 00 00	 push	 OFFSET ??_C@_0L@MLALHOMK@?1ServerID?3@
  00075	8b 4d e4	 mov	 ecx, DWORD PTR _pszCommandLine$[ebp]
  00078	51		 push	 ecx
  00079	8d 4d e8	 lea	 ecx, DWORD PTR _CommandLine$[ebp]
  0007c	ff 15 00 00 00
	00		 call	 DWORD PTR __imp_?SearchCommandItem@CWHCommandLine@@QAE_NPBD0QADG@Z
  00082	0f b6 d0	 movzx	 edx, al
  00085	83 fa 01	 cmp	 edx, 1
  00088	75 30		 jne	 SHORT $LN2@OnMessageP

; 269  : 	{
; 270  : 		//获取房间
; 271  : 		WORD wServerID=(WORD)(_tstol(szSrverID));

  0008a	8d 45 c4	 lea	 eax, DWORD PTR _szSrverID$[ebp]
  0008d	50		 push	 eax
  0008e	ff 15 00 00 00
	00		 call	 DWORD PTR __imp__atol
  00094	83 c4 04	 add	 esp, 4
  00097	66 89 45 c0	 mov	 WORD PTR _wServerID$3[ebp], ax

; 272  : 
; 273  : 		//启动房间
; 274  : 		if (wServerID!=0)

  0009b	0f b7 45 c0	 movzx	 eax, WORD PTR _wServerID$3[ebp]
  0009f	85 c0		 test	 eax, eax
  000a1	74 17		 je	 SHORT $LN2@OnMessageP

; 275  : 		{
; 276  : 			//设置变量
; 277  : 			m_bAutoControl=true;

  000a3	8b 45 ec	 mov	 eax, DWORD PTR _this$[ebp]
  000a6	c6 80 48 6d 00
	00 01		 mov	 BYTE PTR [eax+27976], 1

; 278  : 
; 279  : 			//启动房间
; 280  : 			StartServerService(wServerID);

  000ad	0f b7 45 c0	 movzx	 eax, WORD PTR _wServerID$3[ebp]
  000b1	50		 push	 eax
  000b2	8b 4d ec	 mov	 ecx, DWORD PTR _this$[ebp]
  000b5	e8 00 00 00 00	 call	 ?StartServerService@CChatServerDlg@@IAE_NG@Z ; CChatServerDlg::StartServerService
$LN2@OnMessageP:

; 281  : 		}
; 282  : 	}
; 283  : 
; 284  : 	return 0L;

  000ba	c7 85 7c ff ff
	ff 00 00 00 00	 mov	 DWORD PTR $T2[ebp], 0
  000c4	c7 45 fc ff ff
	ff ff		 mov	 DWORD PTR __$EHRec$[ebp+8], -1
  000cb	8d 4d e8	 lea	 ecx, DWORD PTR _CommandLine$[ebp]
  000ce	ff 15 00 00 00
	00		 call	 DWORD PTR __imp_??1CWHCommandLine@@UAE@XZ
  000d4	8b 85 7c ff ff
	ff		 mov	 eax, DWORD PTR $T2[ebp]

; 285  : }

  000da	8b 4d f4	 mov	 ecx, DWORD PTR __$EHRec$[ebp]
  000dd	64 89 0d 00 00
	00 00		 mov	 DWORD PTR fs:0, ecx
  000e4	59		 pop	 ecx
  000e5	5f		 pop	 edi
  000e6	5e		 pop	 esi
  000e7	5b		 pop	 ebx
  000e8	8b 4d f0	 mov	 ecx, DWORD PTR __$ArrayPad$[ebp]
  000eb	33 cd		 xor	 ecx, ebp
  000ed	e8 00 00 00 00	 call	 @__security_check_cookie@4
  000f2	8b e5		 mov	 esp, ebp
  000f4	5d		 pop	 ebp
  000f5	c2 08 00	 ret	 8
_TEXT	ENDS
;	COMDAT text$x
text$x	SEGMENT
__unwindfunclet$?OnMessageProcessCmdLine@CChatServerDlg@@QAEJIJ@Z$0:
  00000	8d 4d e8	 lea	 ecx, DWORD PTR _CommandLine$[ebp]
  00003	ff 25 00 00 00
	00		 jmp	 DWORD PTR __imp_??1CWHCommandLine@@UAE@XZ
__ehhandler$?OnMessageProcessCmdLine@CChatServerDlg@@QAEJIJ@Z:
  00009	8b 54 24 08	 mov	 edx, DWORD PTR [esp+8]
  0000d	8d 42 0c	 lea	 eax, DWORD PTR [edx+12]
  00010	8b 8a 78 ff ff
	ff		 mov	 ecx, DWORD PTR [edx-136]
  00016	33 c8		 xor	 ecx, eax
  00018	e8 00 00 00 00	 call	 @__security_check_cookie@4
  0001d	8b 4a fc	 mov	 ecx, DWORD PTR [edx-4]
  00020	33 c8		 xor	 ecx, eax
  00022	e8 00 00 00 00	 call	 @__security_check_cookie@4
  00027	b8 00 00 00 00	 mov	 eax, OFFSET __ehfuncinfo$?OnMessageProcessCmdLine@CChatServerDlg@@QAEJIJ@Z
  0002c	e9 00 00 00 00	 jmp	 ___CxxFrameHandler3
text$x	ENDS
?OnMessageProcessCmdLine@CChatServerDlg@@QAEJIJ@Z ENDP	; CChatServerDlg::OnMessageProcessCmdLine
; Function compile flags: /Odtp /ZI
; File g:\网狐\happygamewh\服务端\系统模块\服务器组件\聊天服务器\chatserverdlg.cpp
;	COMDAT ?OnQueryEndSession@CChatServerDlg@@QAEHXZ
_TEXT	SEGMENT
_this$ = -4						; size = 4
?OnQueryEndSession@CChatServerDlg@@QAEHXZ PROC		; CChatServerDlg::OnQueryEndSession, COMDAT
; _this$ = ecx

; 248  : {

  00000	55		 push	 ebp
  00001	8b ec		 mov	 ebp, esp
  00003	83 ec 44	 sub	 esp, 68			; 00000044H
  00006	53		 push	 ebx
  00007	56		 push	 esi
  00008	57		 push	 edi
  00009	89 4d fc	 mov	 DWORD PTR _this$[ebp], ecx

; 249  : 	//提示消息
; 250  : 	if (m_ServiceUnits.GetServiceStatus()!=ServiceStatus_Stop)

  0000c	8b 4d fc	 mov	 ecx, DWORD PTR _this$[ebp]
  0000f	81 c1 b0 00 00
	00		 add	 ecx, 176		; 000000b0H
  00015	e8 00 00 00 00	 call	 ?GetServiceStatus@CServiceUnits@@QAE?AW4enServiceStatus@@XZ ; CServiceUnits::GetServiceStatus
  0001a	85 c0		 test	 eax, eax
  0001c	74 14		 je	 SHORT $LN2@OnQueryEnd

; 251  : 	{
; 252  : 		CTraceService::TraceString(TEXT("服务正在运行中，系统要求注销回话请求失败"),TraceLevel_Warning);

  0001e	6a 02		 push	 2
  00020	68 00 00 00 00	 push	 OFFSET ??_C@_0CJ@LFENAACN@?$LH?$PO?N?q?U?$PN?T?Z?T?K?P?P?V?P?$KD?$KM?O?$LF?M?$LD?R?$KK?G?s?W?$KC?O?z?$LL?X?$LL@
  00025	ff 15 00 00 00
	00		 call	 DWORD PTR __imp_?TraceString@CTraceService@@SA_NPBDW4enTraceLevel@@@Z
  0002b	83 c4 08	 add	 esp, 8

; 253  : 		return FALSE;

  0002e	33 c0		 xor	 eax, eax
  00030	eb 05		 jmp	 SHORT $LN1@OnQueryEnd
$LN2@OnQueryEnd:

; 254  : 	}
; 255  : 
; 256  : 	return TRUE;

  00032	b8 01 00 00 00	 mov	 eax, 1
$LN1@OnQueryEnd:

; 257  : }

  00037	5f		 pop	 edi
  00038	5e		 pop	 esi
  00039	5b		 pop	 ebx
  0003a	8b e5		 mov	 esp, ebp
  0003c	5d		 pop	 ebp
  0003d	c3		 ret	 0
?OnQueryEndSession@CChatServerDlg@@QAEHXZ ENDP		; CChatServerDlg::OnQueryEndSession
_TEXT	ENDS
; Function compile flags: /Odtp /ZI
; File g:\网狐\happygamewh\服务端\系统模块\服务器组件\聊天服务器\chatserverdlg.cpp
;	COMDAT ?OnBnClickedStopService@CChatServerDlg@@IAEXXZ
_TEXT	SEGMENT
_this$ = -20						; size = 4
__$EHRec$ = -16						; size = 16
?OnBnClickedStopService@CChatServerDlg@@IAEXXZ PROC	; CChatServerDlg::OnBnClickedStopService, COMDAT
; _this$ = ecx

; 232  : {

  00000	55		 push	 ebp
  00001	8b ec		 mov	 ebp, esp
  00003	6a ff		 push	 -1
  00005	68 00 00 00 00	 push	 __ehhandler$?OnBnClickedStopService@CChatServerDlg@@IAEXXZ
  0000a	64 a1 00 00 00
	00		 mov	 eax, DWORD PTR fs:0
  00010	50		 push	 eax
  00011	51		 push	 ecx
  00012	83 ec 44	 sub	 esp, 68			; 00000044H
  00015	53		 push	 ebx
  00016	56		 push	 esi
  00017	57		 push	 edi
  00018	a1 00 00 00 00	 mov	 eax, DWORD PTR ___security_cookie
  0001d	33 c5		 xor	 eax, ebp
  0001f	50		 push	 eax
  00020	8d 45 f4	 lea	 eax, DWORD PTR __$EHRec$[ebp+4]
  00023	64 a3 00 00 00
	00		 mov	 DWORD PTR fs:0, eax
  00029	89 65 f0	 mov	 DWORD PTR __$EHRec$[ebp], esp
  0002c	89 4d ec	 mov	 DWORD PTR _this$[ebp], ecx

; 233  : 	//停止服务
; 234  : 	try

  0002f	c7 45 fc 00 00
	00 00		 mov	 DWORD PTR __$EHRec$[ebp+12], 0

; 235  : 	{
; 236  : 		m_ServiceUnits.ConcludeService();

  00036	8b 4d ec	 mov	 ecx, DWORD PTR _this$[ebp]
  00039	81 c1 b0 00 00
	00		 add	 ecx, 176		; 000000b0H
  0003f	e8 00 00 00 00	 call	 ?ConcludeService@CServiceUnits@@QAE_NXZ ; CServiceUnits::ConcludeService

; 237  : 	}

  00044	eb 23		 jmp	 SHORT $LN5@OnBnClicke
__catch$?OnBnClickedStopService@CChatServerDlg@@IAEXXZ$0:

; 238  : 	catch (...)
; 239  : 	{
; 240  : 		ASSERT(FALSE);

  00046	33 c0		 xor	 eax, eax
  00048	75 19		 jne	 SHORT $LN4@OnBnClicke
  0004a	8b 0d 00 00 00
	00		 mov	 ecx, DWORD PTR ?__LINE__Var@?0??OnBnClickedStopService@CChatServerDlg@@IAEXXZ@4JA
  00050	83 c1 08	 add	 ecx, 8
  00053	51		 push	 ecx
  00054	68 00 00 00 00	 push	 OFFSET ??_C@_0EM@GBAEOLBJ@g?3?2?M?x?$LK?$PM?2happygamewh?2?$LH?$PO?N?q?$LG?K?2?O?$LF?M?$LD@
  00059	e8 00 00 00 00	 call	 ?AfxAssertFailedLine@@YGHPBDH@Z ; AfxAssertFailedLine
  0005e	85 c0		 test	 eax, eax
  00060	74 01		 je	 SHORT $LN4@OnBnClicke
  00062	cc		 int	 3
$LN4@OnBnClicke:

; 241  : 	}

  00063	b8 00 00 00 00	 mov	 eax, $LN8@OnBnClicke
  00068	c3		 ret	 0
$LN5@OnBnClicke:
  00069	c7 45 fc ff ff
	ff ff		 mov	 DWORD PTR __$EHRec$[ebp+12], -1
  00070	eb 07		 jmp	 SHORT $LN1@OnBnClicke
$LN8@OnBnClicke:
  00072	c7 45 fc ff ff
	ff ff		 mov	 DWORD PTR __$EHRec$[ebp+12], -1
$LN1@OnBnClicke:

; 242  : 
; 243  : 	return;
; 244  : }

  00079	8b 4d f4	 mov	 ecx, DWORD PTR __$EHRec$[ebp+4]
  0007c	64 89 0d 00 00
	00 00		 mov	 DWORD PTR fs:0, ecx
  00083	59		 pop	 ecx
  00084	5f		 pop	 edi
  00085	5e		 pop	 esi
  00086	5b		 pop	 ebx
  00087	8b e5		 mov	 esp, ebp
  00089	5d		 pop	 ebp
  0008a	c3		 ret	 0
_TEXT	ENDS
;	COMDAT text$x
text$x	SEGMENT
__ehhandler$?OnBnClickedStopService@CChatServerDlg@@IAEXXZ:
  00000	8b 54 24 08	 mov	 edx, DWORD PTR [esp+8]
  00004	8d 42 0c	 lea	 eax, DWORD PTR [edx+12]
  00007	8b 4a a8	 mov	 ecx, DWORD PTR [edx-88]
  0000a	33 c8		 xor	 ecx, eax
  0000c	e8 00 00 00 00	 call	 @__security_check_cookie@4
  00011	b8 00 00 00 00	 mov	 eax, OFFSET __ehfuncinfo$?OnBnClickedStopService@CChatServerDlg@@IAEXXZ
  00016	e9 00 00 00 00	 jmp	 ___CxxFrameHandler3
text$x	ENDS
?OnBnClickedStopService@CChatServerDlg@@IAEXXZ ENDP	; CChatServerDlg::OnBnClickedStopService
; Function compile flags: /Odtp /ZI
; File g:\网狐\happygamewh\服务端\系统模块\服务器组件\聊天服务器\chatserverdlg.cpp
;	COMDAT ?OnBnClickedStartService@CChatServerDlg@@IAEXXZ
_TEXT	SEGMENT
_this$ = -20						; size = 4
__$EHRec$ = -16						; size = 16
?OnBnClickedStartService@CChatServerDlg@@IAEXXZ PROC	; CChatServerDlg::OnBnClickedStartService, COMDAT
; _this$ = ecx

; 216  : {

  00000	55		 push	 ebp
  00001	8b ec		 mov	 ebp, esp
  00003	6a ff		 push	 -1
  00005	68 00 00 00 00	 push	 __ehhandler$?OnBnClickedStartService@CChatServerDlg@@IAEXXZ
  0000a	64 a1 00 00 00
	00		 mov	 eax, DWORD PTR fs:0
  00010	50		 push	 eax
  00011	51		 push	 ecx
  00012	83 ec 44	 sub	 esp, 68			; 00000044H
  00015	53		 push	 ebx
  00016	56		 push	 esi
  00017	57		 push	 edi
  00018	a1 00 00 00 00	 mov	 eax, DWORD PTR ___security_cookie
  0001d	33 c5		 xor	 eax, ebp
  0001f	50		 push	 eax
  00020	8d 45 f4	 lea	 eax, DWORD PTR __$EHRec$[ebp+4]
  00023	64 a3 00 00 00
	00		 mov	 DWORD PTR fs:0, eax
  00029	89 65 f0	 mov	 DWORD PTR __$EHRec$[ebp], esp
  0002c	89 4d ec	 mov	 DWORD PTR _this$[ebp], ecx

; 217  : 	//启动服务
; 218  : 	try

  0002f	c7 45 fc 00 00
	00 00		 mov	 DWORD PTR __$EHRec$[ebp+12], 0

; 219  : 	{
; 220  : 		m_ServiceUnits.StartService();

  00036	8b 4d ec	 mov	 ecx, DWORD PTR _this$[ebp]
  00039	81 c1 b0 00 00
	00		 add	 ecx, 176		; 000000b0H
  0003f	e8 00 00 00 00	 call	 ?StartService@CServiceUnits@@QAE_NXZ ; CServiceUnits::StartService

; 221  : 	}

  00044	eb 23		 jmp	 SHORT $LN5@OnBnClicke
__catch$?OnBnClickedStartService@CChatServerDlg@@IAEXXZ$0:

; 222  : 	catch (...)
; 223  : 	{
; 224  : 		ASSERT(FALSE);

  00046	33 c0		 xor	 eax, eax
  00048	75 19		 jne	 SHORT $LN4@OnBnClicke
  0004a	8b 0d 00 00 00
	00		 mov	 ecx, DWORD PTR ?__LINE__Var@?0??OnBnClickedStartService@CChatServerDlg@@IAEXXZ@4JA
  00050	83 c1 08	 add	 ecx, 8
  00053	51		 push	 ecx
  00054	68 00 00 00 00	 push	 OFFSET ??_C@_0EM@GBAEOLBJ@g?3?2?M?x?$LK?$PM?2happygamewh?2?$LH?$PO?N?q?$LG?K?2?O?$LF?M?$LD@
  00059	e8 00 00 00 00	 call	 ?AfxAssertFailedLine@@YGHPBDH@Z ; AfxAssertFailedLine
  0005e	85 c0		 test	 eax, eax
  00060	74 01		 je	 SHORT $LN4@OnBnClicke
  00062	cc		 int	 3
$LN4@OnBnClicke:

; 225  : 	}

  00063	b8 00 00 00 00	 mov	 eax, $LN8@OnBnClicke
  00068	c3		 ret	 0
$LN5@OnBnClicke:
  00069	c7 45 fc ff ff
	ff ff		 mov	 DWORD PTR __$EHRec$[ebp+12], -1
  00070	eb 07		 jmp	 SHORT $LN1@OnBnClicke
$LN8@OnBnClicke:
  00072	c7 45 fc ff ff
	ff ff		 mov	 DWORD PTR __$EHRec$[ebp+12], -1
$LN1@OnBnClicke:

; 226  : 
; 227  : 	return;
; 228  : }

  00079	8b 4d f4	 mov	 ecx, DWORD PTR __$EHRec$[ebp+4]
  0007c	64 89 0d 00 00
	00 00		 mov	 DWORD PTR fs:0, ecx
  00083	59		 pop	 ecx
  00084	5f		 pop	 edi
  00085	5e		 pop	 esi
  00086	5b		 pop	 ebx
  00087	8b e5		 mov	 esp, ebp
  00089	5d		 pop	 ebp
  0008a	c3		 ret	 0
_TEXT	ENDS
;	COMDAT text$x
text$x	SEGMENT
__ehhandler$?OnBnClickedStartService@CChatServerDlg@@IAEXXZ:
  00000	8b 54 24 08	 mov	 edx, DWORD PTR [esp+8]
  00004	8d 42 0c	 lea	 eax, DWORD PTR [edx+12]
  00007	8b 4a a8	 mov	 ecx, DWORD PTR [edx-88]
  0000a	33 c8		 xor	 ecx, eax
  0000c	e8 00 00 00 00	 call	 @__security_check_cookie@4
  00011	b8 00 00 00 00	 mov	 eax, OFFSET __ehfuncinfo$?OnBnClickedStartService@CChatServerDlg@@IAEXXZ
  00016	e9 00 00 00 00	 jmp	 ___CxxFrameHandler3
text$x	ENDS
?OnBnClickedStartService@CChatServerDlg@@IAEXXZ ENDP	; CChatServerDlg::OnBnClickedStartService
; Function compile flags: /Odtp /ZI
; File g:\网狐\happygamewh\服务端\系统模块\服务器组件\聊天服务器\chatserverdlg.cpp
;	COMDAT ?StartServerService@CChatServerDlg@@IAE_NG@Z
_TEXT	SEGMENT
_this$ = -20						; size = 4
__$EHRec$ = -16						; size = 16
_wServerID$ = 8						; size = 2
?StartServerService@CChatServerDlg@@IAE_NG@Z PROC	; CChatServerDlg::StartServerService, COMDAT
; _this$ = ecx

; 200  : {

  00000	55		 push	 ebp
  00001	8b ec		 mov	 ebp, esp
  00003	6a ff		 push	 -1
  00005	68 00 00 00 00	 push	 __ehhandler$?StartServerService@CChatServerDlg@@IAE_NG@Z
  0000a	64 a1 00 00 00
	00		 mov	 eax, DWORD PTR fs:0
  00010	50		 push	 eax
  00011	51		 push	 ecx
  00012	83 ec 44	 sub	 esp, 68			; 00000044H
  00015	53		 push	 ebx
  00016	56		 push	 esi
  00017	57		 push	 edi
  00018	a1 00 00 00 00	 mov	 eax, DWORD PTR ___security_cookie
  0001d	33 c5		 xor	 eax, ebp
  0001f	50		 push	 eax
  00020	8d 45 f4	 lea	 eax, DWORD PTR __$EHRec$[ebp+4]
  00023	64 a3 00 00 00
	00		 mov	 DWORD PTR fs:0, eax
  00029	89 65 f0	 mov	 DWORD PTR __$EHRec$[ebp], esp
  0002c	89 4d ec	 mov	 DWORD PTR _this$[ebp], ecx

; 201  : 	//启动服务
; 202  : 	try

  0002f	c7 45 fc 00 00
	00 00		 mov	 DWORD PTR __$EHRec$[ebp+12], 0

; 203  : 	{
; 204  : 		m_ServiceUnits.StartService();

  00036	8b 4d ec	 mov	 ecx, DWORD PTR _this$[ebp]
  00039	81 c1 b0 00 00
	00		 add	 ecx, 176		; 000000b0H
  0003f	e8 00 00 00 00	 call	 ?StartService@CServiceUnits@@QAE_NXZ ; CServiceUnits::StartService

; 205  : 	}

  00044	eb 23		 jmp	 SHORT $LN5@StartServe
__catch$?StartServerService@CChatServerDlg@@IAE_NG@Z$0:

; 206  : 	catch (...)
; 207  : 	{
; 208  : 		ASSERT(FALSE);

  00046	33 c0		 xor	 eax, eax
  00048	75 19		 jne	 SHORT $LN4@StartServe
  0004a	8b 0d 00 00 00
	00		 mov	 ecx, DWORD PTR ?__LINE__Var@?0??StartServerService@CChatServerDlg@@IAE_NG@Z@4JA
  00050	83 c1 08	 add	 ecx, 8
  00053	51		 push	 ecx
  00054	68 00 00 00 00	 push	 OFFSET ??_C@_0EM@GBAEOLBJ@g?3?2?M?x?$LK?$PM?2happygamewh?2?$LH?$PO?N?q?$LG?K?2?O?$LF?M?$LD@
  00059	e8 00 00 00 00	 call	 ?AfxAssertFailedLine@@YGHPBDH@Z ; AfxAssertFailedLine
  0005e	85 c0		 test	 eax, eax
  00060	74 01		 je	 SHORT $LN4@StartServe
  00062	cc		 int	 3
$LN4@StartServe:

; 209  : 	}

  00063	b8 00 00 00 00	 mov	 eax, $LN8@StartServe
  00068	c3		 ret	 0
$LN5@StartServe:
  00069	c7 45 fc ff ff
	ff ff		 mov	 DWORD PTR __$EHRec$[ebp+12], -1
  00070	eb 07		 jmp	 SHORT __tryend$?StartServerService@CChatServerDlg@@IAE_NG@Z$1
$LN8@StartServe:
  00072	c7 45 fc ff ff
	ff ff		 mov	 DWORD PTR __$EHRec$[ebp+12], -1
__tryend$?StartServerService@CChatServerDlg@@IAE_NG@Z$1:

; 210  : 
; 211  : 	return true;

  00079	b0 01		 mov	 al, 1

; 212  : }

  0007b	8b 4d f4	 mov	 ecx, DWORD PTR __$EHRec$[ebp+4]
  0007e	64 89 0d 00 00
	00 00		 mov	 DWORD PTR fs:0, ecx
  00085	59		 pop	 ecx
  00086	5f		 pop	 edi
  00087	5e		 pop	 esi
  00088	5b		 pop	 ebx
  00089	8b e5		 mov	 esp, ebp
  0008b	5d		 pop	 ebp
  0008c	c2 04 00	 ret	 4
_TEXT	ENDS
;	COMDAT text$x
text$x	SEGMENT
__ehhandler$?StartServerService@CChatServerDlg@@IAE_NG@Z:
  00000	8b 54 24 08	 mov	 edx, DWORD PTR [esp+8]
  00004	8d 42 0c	 lea	 eax, DWORD PTR [edx+12]
  00007	8b 4a a8	 mov	 ecx, DWORD PTR [edx-88]
  0000a	33 c8		 xor	 ecx, eax
  0000c	e8 00 00 00 00	 call	 @__security_check_cookie@4
  00011	b8 00 00 00 00	 mov	 eax, OFFSET __ehfuncinfo$?StartServerService@CChatServerDlg@@IAE_NG@Z
  00016	e9 00 00 00 00	 jmp	 ___CxxFrameHandler3
text$x	ENDS
?StartServerService@CChatServerDlg@@IAE_NG@Z ENDP	; CChatServerDlg::StartServerService
; Function compile flags: /Odtp /ZI
; File g:\网狐\happygamewh\服务端\系统模块\服务器组件\聊天服务器\chatserverdlg.cpp
;	COMDAT ?UpdateServerTitle@CChatServerDlg@@IAEXW4enServiceStatus@@@Z
_TEXT	SEGMENT
tv64 = -212						; size = 4
_szTitle$ = -144					; size = 128
_pszServerName$ = -16					; size = 4
_pszStatusName$ = -12					; size = 4
_this$ = -8						; size = 4
__$ArrayPad$ = -4					; size = 4
_ServiceStatus$ = 8					; size = 4
?UpdateServerTitle@CChatServerDlg@@IAEXW4enServiceStatus@@@Z PROC ; CChatServerDlg::UpdateServerTitle, COMDAT
; _this$ = ecx

; 163  : {

  00000	55		 push	 ebp
  00001	8b ec		 mov	 ebp, esp
  00003	81 ec d4 00 00
	00		 sub	 esp, 212		; 000000d4H
  00009	a1 00 00 00 00	 mov	 eax, DWORD PTR ___security_cookie
  0000e	33 c5		 xor	 eax, ebp
  00010	89 45 fc	 mov	 DWORD PTR __$ArrayPad$[ebp], eax
  00013	53		 push	 ebx
  00014	56		 push	 esi
  00015	57		 push	 edi
  00016	89 4d f8	 mov	 DWORD PTR _this$[ebp], ecx

; 164  : 	//变量定义
; 165  : 	LPCTSTR pszStatusName=NULL;

  00019	c7 45 f4 00 00
	00 00		 mov	 DWORD PTR _pszStatusName$[ebp], 0

; 166  : 	LPCTSTR pszServerName=NULL;

  00020	c7 45 f0 00 00
	00 00		 mov	 DWORD PTR _pszServerName$[ebp], 0

; 167  : 
; 168  : 	//状态字符
; 169  : 	switch (ServiceStatus)

  00027	8b 45 08	 mov	 eax, DWORD PTR _ServiceStatus$[ebp]
  0002a	89 85 2c ff ff
	ff		 mov	 DWORD PTR tv64[ebp], eax
  00030	83 bd 2c ff ff
	ff 00		 cmp	 DWORD PTR tv64[ebp], 0
  00037	74 14		 je	 SHORT $LN4@UpdateServ
  00039	83 bd 2c ff ff
	ff 01		 cmp	 DWORD PTR tv64[ebp], 1
  00040	74 14		 je	 SHORT $LN5@UpdateServ
  00042	83 bd 2c ff ff
	ff 02		 cmp	 DWORD PTR tv64[ebp], 2
  00049	74 14		 je	 SHORT $LN6@UpdateServ
  0004b	eb 19		 jmp	 SHORT $LN2@UpdateServ
$LN4@UpdateServ:

; 170  : 	{
; 171  : 	case ServiceStatus_Stop:	//停止状态
; 172  : 		{
; 173  : 			pszStatusName=TEXT("停止");

  0004d	c7 45 f4 00 00
	00 00		 mov	 DWORD PTR _pszStatusName$[ebp], OFFSET ??_C@_04MLIFMOBA@?M?$KD?V?$LJ@

; 174  : 			break;

  00054	eb 10		 jmp	 SHORT $LN2@UpdateServ
$LN5@UpdateServ:

; 175  : 		}
; 176  : 	case ServiceStatus_Config:	//配置状态
; 177  : 		{
; 178  : 			pszStatusName=TEXT("初始化");

  00056	c7 45 f4 00 00
	00 00		 mov	 DWORD PTR _pszStatusName$[ebp], OFFSET ??_C@_06CCMEENJJ@?$LD?u?J?$LM?$LL?$KP@

; 179  : 			break;

  0005d	eb 07		 jmp	 SHORT $LN2@UpdateServ
$LN6@UpdateServ:

; 180  : 		}
; 181  : 	case ServiceStatus_Service:	//运行状态
; 182  : 		{
; 183  : 			pszStatusName=TEXT("运行");

  0005f	c7 45 f4 00 00
	00 00		 mov	 DWORD PTR _pszStatusName$[ebp], OFFSET ??_C@_04OIFFEIFD@?T?K?P?P@
$LN2@UpdateServ:

; 184  : 			break;
; 185  : 		}
; 186  : 	}
; 187  : 
; 188  : 	//构造标题
; 189  : 	TCHAR szTitle[128]=TEXT("");

  00066	a0 00 00 00 00	 mov	 al, BYTE PTR ??_C@_00CNPNBAHC@@
  0006b	88 85 70 ff ff
	ff		 mov	 BYTE PTR _szTitle$[ebp], al
  00071	6a 7f		 push	 127			; 0000007fH
  00073	6a 00		 push	 0
  00075	8d 85 71 ff ff
	ff		 lea	 eax, DWORD PTR _szTitle$[ebp+1]
  0007b	50		 push	 eax
  0007c	e8 00 00 00 00	 call	 _memset
  00081	83 c4 0c	 add	 esp, 12			; 0000000cH

; 190  : 	_sntprintf(szTitle,CountArray(szTitle),TEXT("聊天服务器 -- [ %s ]"),pszStatusName);

  00084	8b 45 f4	 mov	 eax, DWORD PTR _pszStatusName$[ebp]
  00087	50		 push	 eax
  00088	68 00 00 00 00	 push	 OFFSET ??_C@_0BF@FCJKJFHE@?A?D?L?l?$LH?$PO?N?q?F?w?5?9?9?5?$FL?5?$CFs?5?$FN@
  0008d	68 80 00 00 00	 push	 128			; 00000080H
  00092	8d 8d 70 ff ff
	ff		 lea	 ecx, DWORD PTR _szTitle$[ebp]
  00098	51		 push	 ecx
  00099	e8 00 00 00 00	 call	 __snprintf
  0009e	83 c4 10	 add	 esp, 16			; 00000010H

; 191  : 
; 192  : 	//设置标题
; 193  : 	SetWindowText(szTitle);

  000a1	8d 85 70 ff ff
	ff		 lea	 eax, DWORD PTR _szTitle$[ebp]
  000a7	50		 push	 eax
  000a8	8b 4d f8	 mov	 ecx, DWORD PTR _this$[ebp]
  000ab	e8 00 00 00 00	 call	 ?SetWindowTextA@CWnd@@QAEXPBD@Z ; CWnd::SetWindowTextA

; 194  : 
; 195  : 	return;
; 196  : }

  000b0	5f		 pop	 edi
  000b1	5e		 pop	 esi
  000b2	5b		 pop	 ebx
  000b3	8b 4d fc	 mov	 ecx, DWORD PTR __$ArrayPad$[ebp]
  000b6	33 cd		 xor	 ecx, ebp
  000b8	e8 00 00 00 00	 call	 @__security_check_cookie@4
  000bd	8b e5		 mov	 esp, ebp
  000bf	5d		 pop	 ebp
  000c0	c2 04 00	 ret	 4
?UpdateServerTitle@CChatServerDlg@@IAEXW4enServiceStatus@@@Z ENDP ; CChatServerDlg::UpdateServerTitle
_TEXT	ENDS
; Function compile flags: /Odtp /ZI
; File g:\网狐\happygamewh\服务端\系统模块\服务器组件\聊天服务器\chatserverdlg.cpp
;	COMDAT ?OnServiceUnitsStatus@CChatServerDlg@@UAEXW4enServiceStatus@@@Z
_TEXT	SEGMENT
tv197 = -1144						; size = 4
tv64 = -1144						; size = 4
$T1 = -1140						; size = 484
_szString$2 = -528					; size = 512
_pszDescribe$3 = -16					; size = 4
_pszDescribe$4 = -12					; size = 4
_this$ = -8						; size = 4
__$ArrayPad$ = -4					; size = 4
_ServiceStatus$ = 8					; size = 4
?OnServiceUnitsStatus@CChatServerDlg@@UAEXW4enServiceStatus@@@Z PROC ; CChatServerDlg::OnServiceUnitsStatus, COMDAT
; _this$ = ecx

; 106  : {

  00000	55		 push	 ebp
  00001	8b ec		 mov	 ebp, esp
  00003	81 ec 78 04 00
	00		 sub	 esp, 1144		; 00000478H
  00009	a1 00 00 00 00	 mov	 eax, DWORD PTR ___security_cookie
  0000e	33 c5		 xor	 eax, ebp
  00010	89 45 fc	 mov	 DWORD PTR __$ArrayPad$[ebp], eax
  00013	53		 push	 ebx
  00014	56		 push	 esi
  00015	57		 push	 edi
  00016	89 4d f8	 mov	 DWORD PTR _this$[ebp], ecx

; 107  : 	//状态设置
; 108  : 	switch (ServiceStatus)

  00019	8b 45 08	 mov	 eax, DWORD PTR _ServiceStatus$[ebp]
  0001c	89 85 88 fb ff
	ff		 mov	 DWORD PTR tv64[ebp], eax
  00022	83 bd 88 fb ff
	ff 00		 cmp	 DWORD PTR tv64[ebp], 0
  00029	74 1b		 je	 SHORT $LN4@OnServiceU
  0002b	83 bd 88 fb ff
	ff 01		 cmp	 DWORD PTR tv64[ebp], 1
  00032	74 77		 je	 SHORT $LN5@OnServiceU
  00034	83 bd 88 fb ff
	ff 02		 cmp	 DWORD PTR tv64[ebp], 2
  0003b	0f 84 cf 00 00
	00		 je	 $LN6@OnServiceU
  00041	e9 8e 01 00 00	 jmp	 $LN1@OnServiceU
$LN4@OnServiceU:

; 109  : 	{
; 110  : 	case ServiceStatus_Stop:	//停止状态
; 111  : 		{
; 112  : 			//更新标题
; 113  : 			UpdateServerTitle(ServiceStatus);

  00046	8b 45 08	 mov	 eax, DWORD PTR _ServiceStatus$[ebp]
  00049	50		 push	 eax
  0004a	8b 4d f8	 mov	 ecx, DWORD PTR _this$[ebp]
  0004d	81 e9 a8 00 00
	00		 sub	 ecx, 168		; 000000a8H
  00053	e8 00 00 00 00	 call	 ?UpdateServerTitle@CChatServerDlg@@IAEXW4enServiceStatus@@@Z ; CChatServerDlg::UpdateServerTitle

; 114  : 
; 115  : 			//服务按钮
; 116  : 			GetDlgItem(IDC_STOP_SERVICE)->EnableWindow(FALSE);

  00058	6a 00		 push	 0
  0005a	68 ea 03 00 00	 push	 1002			; 000003eaH
  0005f	8b 4d f8	 mov	 ecx, DWORD PTR _this$[ebp]
  00062	81 e9 a8 00 00
	00		 sub	 ecx, 168		; 000000a8H
  00068	e8 00 00 00 00	 call	 ?GetDlgItem@CWnd@@QBEPAV1@H@Z ; CWnd::GetDlgItem
  0006d	8b c8		 mov	 ecx, eax
  0006f	e8 00 00 00 00	 call	 ?EnableWindow@CWnd@@QAEHH@Z ; CWnd::EnableWindow

; 117  : 			GetDlgItem(IDC_START_SERVICE)->EnableWindow(TRUE);

  00074	6a 01		 push	 1
  00076	68 e8 03 00 00	 push	 1000			; 000003e8H
  0007b	8b 4d f8	 mov	 ecx, DWORD PTR _this$[ebp]
  0007e	81 e9 a8 00 00
	00		 sub	 ecx, 168		; 000000a8H
  00084	e8 00 00 00 00	 call	 ?GetDlgItem@CWnd@@QBEPAV1@H@Z ; CWnd::GetDlgItem
  00089	8b c8		 mov	 ecx, eax
  0008b	e8 00 00 00 00	 call	 ?EnableWindow@CWnd@@QAEHH@Z ; CWnd::EnableWindow

; 118  : 
; 119  : 			//提示信息
; 120  : 			LPCTSTR pszDescribe=TEXT("服务停止成功");

  00090	c7 45 f4 00 00
	00 00		 mov	 DWORD PTR _pszDescribe$4[ebp], OFFSET ??_C@_0N@HNGKNHMM@?$LH?$PO?N?q?M?$KD?V?$LJ?$LD?I?$LJ?$KG@

; 121  : 			CTraceService::TraceString(pszDescribe,TraceLevel_Normal);

  00097	6a 01		 push	 1
  00099	8b 45 f4	 mov	 eax, DWORD PTR _pszDescribe$4[ebp]
  0009c	50		 push	 eax
  0009d	ff 15 00 00 00
	00		 call	 DWORD PTR __imp_?TraceString@CTraceService@@SA_NPBDW4enTraceLevel@@@Z
  000a3	83 c4 08	 add	 esp, 8

; 122  : 
; 123  : 			break;

  000a6	e9 29 01 00 00	 jmp	 $LN1@OnServiceU
$LN5@OnServiceU:

; 124  : 		}
; 125  : 	case ServiceStatus_Config:	//配置状态
; 126  : 		{
; 127  : 			//更新标题
; 128  : 			UpdateServerTitle(ServiceStatus);

  000ab	8b 45 08	 mov	 eax, DWORD PTR _ServiceStatus$[ebp]
  000ae	50		 push	 eax
  000af	8b 4d f8	 mov	 ecx, DWORD PTR _this$[ebp]
  000b2	81 e9 a8 00 00
	00		 sub	 ecx, 168		; 000000a8H
  000b8	e8 00 00 00 00	 call	 ?UpdateServerTitle@CChatServerDlg@@IAEXW4enServiceStatus@@@Z ; CChatServerDlg::UpdateServerTitle

; 129  : 
; 130  : 			//设置按钮
; 131  : 			GetDlgItem(IDC_STOP_SERVICE)->EnableWindow(TRUE);

  000bd	6a 01		 push	 1
  000bf	68 ea 03 00 00	 push	 1002			; 000003eaH
  000c4	8b 4d f8	 mov	 ecx, DWORD PTR _this$[ebp]
  000c7	81 e9 a8 00 00
	00		 sub	 ecx, 168		; 000000a8H
  000cd	e8 00 00 00 00	 call	 ?GetDlgItem@CWnd@@QBEPAV1@H@Z ; CWnd::GetDlgItem
  000d2	8b c8		 mov	 ecx, eax
  000d4	e8 00 00 00 00	 call	 ?EnableWindow@CWnd@@QAEHH@Z ; CWnd::EnableWindow

; 132  : 			GetDlgItem(IDC_START_SERVICE)->EnableWindow(FALSE);

  000d9	6a 00		 push	 0
  000db	68 e8 03 00 00	 push	 1000			; 000003e8H
  000e0	8b 4d f8	 mov	 ecx, DWORD PTR _this$[ebp]
  000e3	81 e9 a8 00 00
	00		 sub	 ecx, 168		; 000000a8H
  000e9	e8 00 00 00 00	 call	 ?GetDlgItem@CWnd@@QBEPAV1@H@Z ; CWnd::GetDlgItem
  000ee	8b c8		 mov	 ecx, eax
  000f0	e8 00 00 00 00	 call	 ?EnableWindow@CWnd@@QAEHH@Z ; CWnd::EnableWindow

; 133  : 
; 134  : 			//提示信息
; 135  : 			LPCTSTR pszDescribe=TEXT("正在初始化组件...");

  000f5	c7 45 f0 00 00
	00 00		 mov	 DWORD PTR _pszDescribe$3[ebp], OFFSET ??_C@_0BC@OFPAKDFO@?U?$PN?T?Z?$LD?u?J?$LM?$LL?$KP?W?i?$LM?$PO?4?4?4@

; 136  : 			CTraceService::TraceString(pszDescribe,TraceLevel_Normal);

  000fc	6a 01		 push	 1
  000fe	8b 45 f0	 mov	 eax, DWORD PTR _pszDescribe$3[ebp]
  00101	50		 push	 eax
  00102	ff 15 00 00 00
	00		 call	 DWORD PTR __imp_?TraceString@CTraceService@@SA_NPBDW4enTraceLevel@@@Z
  00108	83 c4 08	 add	 esp, 8

; 137  : 
; 138  : 			break;

  0010b	e9 c4 00 00 00	 jmp	 $LN1@OnServiceU
$LN6@OnServiceU:

; 139  : 		}
; 140  : 	case ServiceStatus_Service:	//服务状态
; 141  : 		{
; 142  : 			//更新标题
; 143  : 			UpdateServerTitle(ServiceStatus);

  00110	8b 45 08	 mov	 eax, DWORD PTR _ServiceStatus$[ebp]
  00113	50		 push	 eax
  00114	8b 4d f8	 mov	 ecx, DWORD PTR _this$[ebp]
  00117	81 e9 a8 00 00
	00		 sub	 ecx, 168		; 000000a8H
  0011d	e8 00 00 00 00	 call	 ?UpdateServerTitle@CChatServerDlg@@IAEXW4enServiceStatus@@@Z ; CChatServerDlg::UpdateServerTitle

; 144  : 
; 145  : 			//服务按钮
; 146  : 			GetDlgItem(IDC_STOP_SERVICE)->EnableWindow(TRUE);

  00122	6a 01		 push	 1
  00124	68 ea 03 00 00	 push	 1002			; 000003eaH
  00129	8b 4d f8	 mov	 ecx, DWORD PTR _this$[ebp]
  0012c	81 e9 a8 00 00
	00		 sub	 ecx, 168		; 000000a8H
  00132	e8 00 00 00 00	 call	 ?GetDlgItem@CWnd@@QBEPAV1@H@Z ; CWnd::GetDlgItem
  00137	8b c8		 mov	 ecx, eax
  00139	e8 00 00 00 00	 call	 ?EnableWindow@CWnd@@QAEHH@Z ; CWnd::EnableWindow

; 147  : 			GetDlgItem(IDC_START_SERVICE)->EnableWindow(FALSE);

  0013e	6a 00		 push	 0
  00140	68 e8 03 00 00	 push	 1000			; 000003e8H
  00145	8b 4d f8	 mov	 ecx, DWORD PTR _this$[ebp]
  00148	81 e9 a8 00 00
	00		 sub	 ecx, 168		; 000000a8H
  0014e	e8 00 00 00 00	 call	 ?GetDlgItem@CWnd@@QBEPAV1@H@Z ; CWnd::GetDlgItem
  00153	8b c8		 mov	 ecx, eax
  00155	e8 00 00 00 00	 call	 ?EnableWindow@CWnd@@QAEHH@Z ; CWnd::EnableWindow

; 148  : 
; 149  : 			//提示信息
; 150  : 			TCHAR szString[512] = TEXT("");

  0015a	a0 00 00 00 00	 mov	 al, BYTE PTR ??_C@_00CNPNBAHC@@
  0015f	88 85 f0 fd ff
	ff		 mov	 BYTE PTR _szString$2[ebp], al
  00165	68 ff 01 00 00	 push	 511			; 000001ffH
  0016a	6a 00		 push	 0
  0016c	8d 85 f1 fd ff
	ff		 lea	 eax, DWORD PTR _szString$2[ebp+1]
  00172	50		 push	 eax
  00173	e8 00 00 00 00	 call	 _memset
  00178	83 c4 0c	 add	 esp, 12			; 0000000cH

; 151  : 			_sntprintf(szString, CountArray(szString), TEXT("服务启动成功 [ 端口:%d ]"), m_ServiceUnits.GetInitParameter().m_wServicePort);

  0017b	8d 85 8c fb ff
	ff		 lea	 eax, DWORD PTR $T1[ebp]
  00181	50		 push	 eax
  00182	8b 4d f8	 mov	 ecx, DWORD PTR _this$[ebp]
  00185	83 c1 08	 add	 ecx, 8
  00188	e8 00 00 00 00	 call	 ?GetInitParameter@CServiceUnits@@QAE?AVCInitParameter@@XZ ; CServiceUnits::GetInitParameter
  0018d	89 85 88 fb ff
	ff		 mov	 DWORD PTR tv197[ebp], eax
  00193	8b 8d 88 fb ff
	ff		 mov	 ecx, DWORD PTR tv197[ebp]
  00199	0f b7 51 0a	 movzx	 edx, WORD PTR [ecx+10]
  0019d	52		 push	 edx
  0019e	68 00 00 00 00	 push	 OFFSET ??_C@_0BJ@HLOOMBNP@?$LH?$PO?N?q?F?t?$LG?$KP?$LD?I?$LJ?$KG?5?$FL?5?$LG?K?$LP?Z?3?$CFd?5?$FN@
  001a3	68 00 02 00 00	 push	 512			; 00000200H
  001a8	8d 85 f0 fd ff
	ff		 lea	 eax, DWORD PTR _szString$2[ebp]
  001ae	50		 push	 eax
  001af	e8 00 00 00 00	 call	 __snprintf
  001b4	83 c4 10	 add	 esp, 16			; 00000010H
  001b7	8d 8d 8c fb ff
	ff		 lea	 ecx, DWORD PTR $T1[ebp]
  001bd	e8 00 00 00 00	 call	 ??1CInitParameter@@UAE@XZ ; CInitParameter::~CInitParameter

; 152  : 			CTraceService::TraceString(szString,TraceLevel_Normal);

  001c2	6a 01		 push	 1
  001c4	8d 85 f0 fd ff
	ff		 lea	 eax, DWORD PTR _szString$2[ebp]
  001ca	50		 push	 eax
  001cb	ff 15 00 00 00
	00		 call	 DWORD PTR __imp_?TraceString@CTraceService@@SA_NPBDW4enTraceLevel@@@Z
  001d1	83 c4 08	 add	 esp, 8
$LN1@OnServiceU:

; 153  : 
; 154  : 			break;
; 155  : 		}
; 156  : 	}
; 157  : 
; 158  : 	return;
; 159  : }

  001d4	5f		 pop	 edi
  001d5	5e		 pop	 esi
  001d6	5b		 pop	 ebx
  001d7	8b 4d fc	 mov	 ecx, DWORD PTR __$ArrayPad$[ebp]
  001da	33 cd		 xor	 ecx, ebp
  001dc	e8 00 00 00 00	 call	 @__security_check_cookie@4
  001e1	8b e5		 mov	 esp, ebp
  001e3	5d		 pop	 ebp
  001e4	c2 04 00	 ret	 4
?OnServiceUnitsStatus@CChatServerDlg@@UAEXW4enServiceStatus@@@Z ENDP ; CChatServerDlg::OnServiceUnitsStatus
_TEXT	ENDS
; Function compile flags: /Odtp /ZI
; File g:\网狐\happygamewh\服务端\系统模块\服务器组件\聊天服务器\chatserverdlg.cpp
;	COMDAT ?PreTranslateMessage@CChatServerDlg@@MAEHPAUtagMSG@@@Z
_TEXT	SEGMENT
_this$ = -4						; size = 4
_pMsg$ = 8						; size = 4
?PreTranslateMessage@CChatServerDlg@@MAEHPAUtagMSG@@@Z PROC ; CChatServerDlg::PreTranslateMessage, COMDAT
; _this$ = ecx

; 94   : {

  00000	55		 push	 ebp
  00001	8b ec		 mov	 ebp, esp
  00003	83 ec 44	 sub	 esp, 68			; 00000044H
  00006	53		 push	 ebx
  00007	56		 push	 esi
  00008	57		 push	 edi
  00009	89 4d fc	 mov	 DWORD PTR _this$[ebp], ecx

; 95   : 	//按键过滤
; 96   : 	if ((pMsg->message==WM_KEYDOWN)&&(pMsg->wParam==VK_ESCAPE))

  0000c	8b 45 08	 mov	 eax, DWORD PTR _pMsg$[ebp]
  0000f	81 78 04 00 01
	00 00		 cmp	 DWORD PTR [eax+4], 256	; 00000100H
  00016	75 10		 jne	 SHORT $LN2@PreTransla
  00018	8b 45 08	 mov	 eax, DWORD PTR _pMsg$[ebp]
  0001b	83 78 08 1b	 cmp	 DWORD PTR [eax+8], 27	; 0000001bH
  0001f	75 07		 jne	 SHORT $LN2@PreTransla

; 97   : 	{
; 98   : 		return TRUE;

  00021	b8 01 00 00 00	 mov	 eax, 1
  00026	eb 0c		 jmp	 SHORT $LN1@PreTransla
$LN2@PreTransla:

; 99   : 	}
; 100  : 
; 101  : 	return __super::PreTranslateMessage(pMsg);

  00028	8b 45 08	 mov	 eax, DWORD PTR _pMsg$[ebp]
  0002b	50		 push	 eax
  0002c	8b 4d fc	 mov	 ecx, DWORD PTR _this$[ebp]
  0002f	e8 00 00 00 00	 call	 ?PreTranslateMessage@CDialog@@UAEHPAUtagMSG@@@Z ; CDialog::PreTranslateMessage
$LN1@PreTransla:

; 102  : }

  00034	5f		 pop	 edi
  00035	5e		 pop	 esi
  00036	5b		 pop	 ebx
  00037	8b e5		 mov	 esp, ebp
  00039	5d		 pop	 ebp
  0003a	c2 04 00	 ret	 4
?PreTranslateMessage@CChatServerDlg@@MAEHPAUtagMSG@@@Z ENDP ; CChatServerDlg::PreTranslateMessage
_TEXT	ENDS
; Function compile flags: /Odtp /ZI
; File g:\网狐\happygamewh\服务端\系统模块\服务器组件\聊天服务器\chatserverdlg.cpp
;	COMDAT ?OnCancel@CChatServerDlg@@MAEXXZ
_TEXT	SEGMENT
_pszQuestion$1 = -8					; size = 4
_this$ = -4						; size = 4
?OnCancel@CChatServerDlg@@MAEXXZ PROC			; CChatServerDlg::OnCancel, COMDAT
; _this$ = ecx

; 78   : {

  00000	55		 push	 ebp
  00001	8b ec		 mov	 ebp, esp
  00003	83 ec 48	 sub	 esp, 72			; 00000048H
  00006	53		 push	 ebx
  00007	56		 push	 esi
  00008	57		 push	 edi
  00009	89 4d fc	 mov	 DWORD PTR _this$[ebp], ecx

; 79   : 	//关闭询问
; 80   : 	if (m_ServiceUnits.GetServiceStatus()!=ServiceStatus_Stop)

  0000c	8b 4d fc	 mov	 ecx, DWORD PTR _this$[ebp]
  0000f	81 c1 b0 00 00
	00		 add	 ecx, 176		; 000000b0H
  00015	e8 00 00 00 00	 call	 ?GetServiceStatus@CServiceUnits@@QAE?AW4enServiceStatus@@XZ ; CServiceUnits::GetServiceStatus
  0001a	85 c0		 test	 eax, eax
  0001c	74 1e		 je	 SHORT $LN2@OnCancel

; 81   : 	{
; 82   : 		LPCTSTR pszQuestion=TEXT("游戏服务器正在运行中，您确实要关闭服务器吗？");

  0001e	c7 45 f8 00 00
	00 00		 mov	 DWORD PTR _pszQuestion$1[ebp], OFFSET ??_C@_0CN@IKJEBACB@?S?N?O?$LH?$LH?$PO?N?q?F?w?U?$PN?T?Z?T?K?P?P?V?P?$KD?$KM?D?z?H?$LH?J?$LF?R?$KK?$LJ@

; 83   : 		if (AfxMessageBox(pszQuestion,MB_YESNO|MB_DEFBUTTON2|MB_ICONQUESTION)!=IDYES) return;

  00025	6a 00		 push	 0
  00027	68 24 01 00 00	 push	 292			; 00000124H
  0002c	8b 45 f8	 mov	 eax, DWORD PTR _pszQuestion$1[ebp]
  0002f	50		 push	 eax
  00030	e8 00 00 00 00	 call	 ?AfxMessageBox@@YGHPBDII@Z ; AfxMessageBox
  00035	83 f8 06	 cmp	 eax, 6
  00038	74 02		 je	 SHORT $LN2@OnCancel
  0003a	eb 16		 jmp	 SHORT $LN1@OnCancel
$LN2@OnCancel:

; 84   : 	}
; 85   : 
; 86   : 	//停止服务
; 87   : 	m_ServiceUnits.ConcludeService();

  0003c	8b 4d fc	 mov	 ecx, DWORD PTR _this$[ebp]
  0003f	81 c1 b0 00 00
	00		 add	 ecx, 176		; 000000b0H
  00045	e8 00 00 00 00	 call	 ?ConcludeService@CServiceUnits@@QAE_NXZ ; CServiceUnits::ConcludeService

; 88   : 
; 89   : 	__super::OnCancel();

  0004a	8b 4d fc	 mov	 ecx, DWORD PTR _this$[ebp]
  0004d	e8 00 00 00 00	 call	 ?OnCancel@CDialog@@MAEXXZ ; CDialog::OnCancel
$LN1@OnCancel:

; 90   : }

  00052	5f		 pop	 edi
  00053	5e		 pop	 esi
  00054	5b		 pop	 ebx
  00055	8b e5		 mov	 esp, ebp
  00057	5d		 pop	 ebp
  00058	c3		 ret	 0
?OnCancel@CChatServerDlg@@MAEXXZ ENDP			; CChatServerDlg::OnCancel
_TEXT	ENDS
; Function compile flags: /Odtp /ZI
; File g:\网狐\happygamewh\服务端\系统模块\服务器组件\聊天服务器\chatserverdlg.cpp
;	COMDAT ?OnOK@CChatServerDlg@@MAEXXZ
_TEXT	SEGMENT
_this$ = -4						; size = 4
?OnOK@CChatServerDlg@@MAEXXZ PROC			; CChatServerDlg::OnOK, COMDAT
; _this$ = ecx

; 72   : {

  00000	55		 push	 ebp
  00001	8b ec		 mov	 ebp, esp
  00003	83 ec 44	 sub	 esp, 68			; 00000044H
  00006	53		 push	 ebx
  00007	56		 push	 esi
  00008	57		 push	 edi
  00009	89 4d fc	 mov	 DWORD PTR _this$[ebp], ecx

; 73   : 	return;
; 74   : }

  0000c	5f		 pop	 edi
  0000d	5e		 pop	 esi
  0000e	5b		 pop	 ebx
  0000f	8b e5		 mov	 esp, ebp
  00011	5d		 pop	 ebp
  00012	c3		 ret	 0
?OnOK@CChatServerDlg@@MAEXXZ ENDP			; CChatServerDlg::OnOK
_TEXT	ENDS
; Function compile flags: /Odtp /ZI
; File g:\网狐\happygamewh\服务端\系统模块\服务器组件\聊天服务器\chatserverdlg.cpp
;	COMDAT ?OnInitDialog@CChatServerDlg@@MAEHXZ
_TEXT	SEGMENT
tv132 = -80						; size = 4
_pszCmdLine$ = -12					; size = 4
_hIcon$ = -8						; size = 4
_this$ = -4						; size = 4
?OnInitDialog@CChatServerDlg@@MAEHXZ PROC		; CChatServerDlg::OnInitDialog, COMDAT
; _this$ = ecx

; 49   : {

  00000	55		 push	 ebp
  00001	8b ec		 mov	 ebp, esp
  00003	83 ec 50	 sub	 esp, 80			; 00000050H
  00006	53		 push	 ebx
  00007	56		 push	 esi
  00008	57		 push	 edi
  00009	89 4d fc	 mov	 DWORD PTR _this$[ebp], ecx

; 50   : 	__super::OnInitDialog();

  0000c	8b 4d fc	 mov	 ecx, DWORD PTR _this$[ebp]
  0000f	e8 00 00 00 00	 call	 ?OnInitDialog@CDialog@@UAEHXZ ; CDialog::OnInitDialog

; 51   : 
; 52   : 	//设置标题
; 53   : 	SetWindowText(TEXT("聊天服务器 -- [ 停止 ]"));

  00014	68 00 00 00 00	 push	 OFFSET ??_C@_0BH@EAHGGLJH@?A?D?L?l?$LH?$PO?N?q?F?w?5?9?9?5?$FL?5?M?$KD?V?$LJ?5?$FN@
  00019	8b 4d fc	 mov	 ecx, DWORD PTR _this$[ebp]
  0001c	e8 00 00 00 00	 call	 ?SetWindowTextA@CWnd@@QAEXPBD@Z ; CWnd::SetWindowTextA

; 54   : 
; 55   : 	//设置图标
; 56   : 	HICON hIcon=LoadIcon(AfxGetInstanceHandle(),MAKEINTRESOURCE(IDR_MAINFRAME));

  00021	68 80 00 00 00	 push	 128			; 00000080H
  00026	e8 00 00 00 00	 call	 ?AfxGetInstanceHandle@@YGPAUHINSTANCE__@@XZ ; AfxGetInstanceHandle
  0002b	50		 push	 eax
  0002c	ff 15 00 00 00
	00		 call	 DWORD PTR __imp__LoadIconA@8
  00032	89 45 f8	 mov	 DWORD PTR _hIcon$[ebp], eax

; 57   : 	SetIcon(hIcon,TRUE);

  00035	6a 01		 push	 1
  00037	8b 45 f8	 mov	 eax, DWORD PTR _hIcon$[ebp]
  0003a	50		 push	 eax
  0003b	8b 4d fc	 mov	 ecx, DWORD PTR _this$[ebp]
  0003e	e8 00 00 00 00	 call	 ?SetIcon@CWnd@@QAEPAUHICON__@@PAU2@H@Z ; CWnd::SetIcon

; 58   : 	SetIcon(hIcon,FALSE);

  00043	6a 00		 push	 0
  00045	8b 45 f8	 mov	 eax, DWORD PTR _hIcon$[ebp]
  00048	50		 push	 eax
  00049	8b 4d fc	 mov	 ecx, DWORD PTR _this$[ebp]
  0004c	e8 00 00 00 00	 call	 ?SetIcon@CWnd@@QAEPAUHICON__@@PAU2@H@Z ; CWnd::SetIcon

; 59   : 
; 60   : 	//设置组件
; 61   : 	m_ServiceUnits.SetServiceUnitsSink(this);

  00051	83 7d fc 00	 cmp	 DWORD PTR _this$[ebp], 0
  00055	74 0d		 je	 SHORT $LN4@OnInitDial
  00057	8b 45 fc	 mov	 eax, DWORD PTR _this$[ebp]
  0005a	05 a8 00 00 00	 add	 eax, 168		; 000000a8H
  0005f	89 45 b0	 mov	 DWORD PTR tv132[ebp], eax
  00062	eb 07		 jmp	 SHORT $LN5@OnInitDial
$LN4@OnInitDial:
  00064	c7 45 b0 00 00
	00 00		 mov	 DWORD PTR tv132[ebp], 0
$LN5@OnInitDial:
  0006b	8b 4d b0	 mov	 ecx, DWORD PTR tv132[ebp]
  0006e	51		 push	 ecx
  0006f	8b 4d fc	 mov	 ecx, DWORD PTR _this$[ebp]
  00072	81 c1 b0 00 00
	00		 add	 ecx, 176		; 000000b0H
  00078	e8 00 00 00 00	 call	 ?SetServiceUnitsSink@CServiceUnits@@QAE_NPAUIServiceUnitsSink@@@Z ; CServiceUnits::SetServiceUnitsSink

; 62   : 
; 63   : 	//命令处理
; 64   : 	LPCTSTR pszCmdLine=AfxGetApp()->m_lpCmdLine;

  0007d	e8 00 00 00 00	 call	 ?AfxGetApp@@YGPAVCWinApp@@XZ ; AfxGetApp
  00082	8b 40 48	 mov	 eax, DWORD PTR [eax+72]
  00085	89 45 f4	 mov	 DWORD PTR _pszCmdLine$[ebp], eax

; 65   : 	if (pszCmdLine[0]!=0) PostMessage(WM_PROCESS_CMD_LINE,0,(LPARAM)pszCmdLine);

  00088	b8 01 00 00 00	 mov	 eax, 1
  0008d	6b c8 00	 imul	 ecx, eax, 0
  00090	8b 55 f4	 mov	 edx, DWORD PTR _pszCmdLine$[ebp]
  00093	0f be 04 0a	 movsx	 eax, BYTE PTR [edx+ecx]
  00097	85 c0		 test	 eax, eax
  00099	74 13		 je	 SHORT $LN2@OnInitDial
  0009b	8b 45 f4	 mov	 eax, DWORD PTR _pszCmdLine$[ebp]
  0009e	50		 push	 eax
  0009f	6a 00		 push	 0
  000a1	68 64 04 00 00	 push	 1124			; 00000464H
  000a6	8b 4d fc	 mov	 ecx, DWORD PTR _this$[ebp]
  000a9	e8 00 00 00 00	 call	 ?PostMessageA@CWnd@@QAEHIIJ@Z ; CWnd::PostMessageA
$LN2@OnInitDial:

; 66   : 
; 67   : 	return TRUE;

  000ae	b8 01 00 00 00	 mov	 eax, 1

; 68   : }

  000b3	5f		 pop	 edi
  000b4	5e		 pop	 esi
  000b5	5b		 pop	 ebx
  000b6	8b e5		 mov	 esp, ebp
  000b8	5d		 pop	 ebp
  000b9	c3		 ret	 0
?OnInitDialog@CChatServerDlg@@MAEHXZ ENDP		; CChatServerDlg::OnInitDialog
_TEXT	ENDS
; Function compile flags: /Odtp /ZI
; File g:\网狐\happygamewh\服务端\系统模块\服务器组件\聊天服务器\chatserverdlg.cpp
;	COMDAT ?DoDataExchange@CChatServerDlg@@MAEXPAVCDataExchange@@@Z
_TEXT	SEGMENT
_this$ = -4						; size = 4
_pDX$ = 8						; size = 4
?DoDataExchange@CChatServerDlg@@MAEXPAVCDataExchange@@@Z PROC ; CChatServerDlg::DoDataExchange, COMDAT
; _this$ = ecx

; 42   : {

  00000	55		 push	 ebp
  00001	8b ec		 mov	 ebp, esp
  00003	83 ec 44	 sub	 esp, 68			; 00000044H
  00006	53		 push	 ebx
  00007	56		 push	 esi
  00008	57		 push	 edi
  00009	89 4d fc	 mov	 DWORD PTR _this$[ebp], ecx

; 43   : 	__super::DoDataExchange(pDX);

  0000c	8b 45 08	 mov	 eax, DWORD PTR _pDX$[ebp]
  0000f	50		 push	 eax
  00010	8b 4d fc	 mov	 ecx, DWORD PTR _this$[ebp]
  00013	e8 00 00 00 00	 call	 ?DoDataExchange@CWnd@@MAEXPAVCDataExchange@@@Z ; CWnd::DoDataExchange

; 44   : 	DDX_Control(pDX, IDC_TRACE_MESSAGE, m_TraceServiceControl);

  00018	8b 45 fc	 mov	 eax, DWORD PTR _this$[ebp]
  0001b	05 78 2c 00 00	 add	 eax, 11384		; 00002c78H
  00020	50		 push	 eax
  00021	68 ec 03 00 00	 push	 1004			; 000003ecH
  00026	8b 4d 08	 mov	 ecx, DWORD PTR _pDX$[ebp]
  00029	51		 push	 ecx
  0002a	e8 00 00 00 00	 call	 ?DDX_Control@@YGXPAVCDataExchange@@HAAVCWnd@@@Z ; DDX_Control

; 45   : }

  0002f	5f		 pop	 edi
  00030	5e		 pop	 esi
  00031	5b		 pop	 ebx
  00032	8b e5		 mov	 esp, ebp
  00034	5d		 pop	 ebp
  00035	c2 04 00	 ret	 4
?DoDataExchange@CChatServerDlg@@MAEXPAVCDataExchange@@@Z ENDP ; CChatServerDlg::DoDataExchange
_TEXT	ENDS
; Function compile flags: /Odtp /ZI
; File g:\网狐\happygamewh\服务端\系统模块\服务器组件\聊天服务器\chatserverdlg.cpp
;	COMDAT ??1CChatServerDlg@@UAE@XZ
_TEXT	SEGMENT
_this$ = -4						; size = 4
??1CChatServerDlg@@UAE@XZ PROC				; CChatServerDlg::~CChatServerDlg, COMDAT
; _this$ = ecx

; 37   : {

  00000	55		 push	 ebp
  00001	8b ec		 mov	 ebp, esp
  00003	83 ec 44	 sub	 esp, 68			; 00000044H
  00006	53		 push	 ebx
  00007	56		 push	 esi
  00008	57		 push	 edi
  00009	89 4d fc	 mov	 DWORD PTR _this$[ebp], ecx
  0000c	8b 45 fc	 mov	 eax, DWORD PTR _this$[ebp]
  0000f	c7 00 00 00 00
	00		 mov	 DWORD PTR [eax], OFFSET ??_7CChatServerDlg@@6BCDialog@@@
  00015	8b 45 fc	 mov	 eax, DWORD PTR _this$[ebp]
  00018	c7 80 a8 00 00
	00 00 00 00 00	 mov	 DWORD PTR [eax+168], OFFSET ??_7CChatServerDlg@@6BIServiceUnitsSink@@@

; 38   : }

  00022	8b 4d fc	 mov	 ecx, DWORD PTR _this$[ebp]
  00025	81 c1 78 2c 00
	00		 add	 ecx, 11384		; 00002c78H
  0002b	ff 15 00 00 00
	00		 call	 DWORD PTR __imp_??1CTraceServiceControl@@UAE@XZ
  00031	8b 4d fc	 mov	 ecx, DWORD PTR _this$[ebp]
  00034	81 c1 b0 00 00
	00		 add	 ecx, 176		; 000000b0H
  0003a	e8 00 00 00 00	 call	 ??1CServiceUnits@@UAE@XZ ; CServiceUnits::~CServiceUnits
  0003f	8b 4d fc	 mov	 ecx, DWORD PTR _this$[ebp]
  00042	e8 00 00 00 00	 call	 ??1CDialog@@UAE@XZ	; CDialog::~CDialog
  00047	5f		 pop	 edi
  00048	5e		 pop	 esi
  00049	5b		 pop	 ebx
  0004a	8b e5		 mov	 esp, ebp
  0004c	5d		 pop	 ebp
  0004d	c3		 ret	 0
??1CChatServerDlg@@UAE@XZ ENDP				; CChatServerDlg::~CChatServerDlg
_TEXT	ENDS
; Function compile flags: /Odtp /ZI
; File g:\网狐\happygamewh\服务端\系统模块\服务器组件\聊天服务器\chatserverdlg.cpp
;	COMDAT ??0CChatServerDlg@@QAE@XZ
_TEXT	SEGMENT
_this$ = -16						; size = 4
__$EHRec$ = -12						; size = 12
??0CChatServerDlg@@QAE@XZ PROC				; CChatServerDlg::CChatServerDlg, COMDAT
; _this$ = ecx

; 27   : {

  00000	55		 push	 ebp
  00001	8b ec		 mov	 ebp, esp
  00003	6a ff		 push	 -1
  00005	68 00 00 00 00	 push	 __ehhandler$??0CChatServerDlg@@QAE@XZ
  0000a	64 a1 00 00 00
	00		 mov	 eax, DWORD PTR fs:0
  00010	50		 push	 eax
  00011	83 ec 44	 sub	 esp, 68			; 00000044H
  00014	53		 push	 ebx
  00015	56		 push	 esi
  00016	57		 push	 edi
  00017	a1 00 00 00 00	 mov	 eax, DWORD PTR ___security_cookie
  0001c	33 c5		 xor	 eax, ebp
  0001e	50		 push	 eax
  0001f	8d 45 f4	 lea	 eax, DWORD PTR __$EHRec$[ebp]
  00022	64 a3 00 00 00
	00		 mov	 DWORD PTR fs:0, eax
  00028	89 4d f0	 mov	 DWORD PTR _this$[ebp], ecx

; 26   : CChatServerDlg::CChatServerDlg() : CDialog(IDD_DLG_GAME_SERVER)

  0002b	6a 00		 push	 0
  0002d	6a 67		 push	 103			; 00000067H
  0002f	8b 4d f0	 mov	 ecx, DWORD PTR _this$[ebp]
  00032	e8 00 00 00 00	 call	 ??0CDialog@@QAE@IPAVCWnd@@@Z ; CDialog::CDialog
  00037	c7 45 fc 00 00
	00 00		 mov	 DWORD PTR __$EHRec$[ebp+8], 0

; 27   : {

  0003e	8b 4d f0	 mov	 ecx, DWORD PTR _this$[ebp]
  00041	81 c1 a8 00 00
	00		 add	 ecx, 168		; 000000a8H
  00047	e8 00 00 00 00	 call	 ??0IServiceUnitsSink@@QAE@XZ
  0004c	8b 45 f0	 mov	 eax, DWORD PTR _this$[ebp]
  0004f	c7 00 00 00 00
	00		 mov	 DWORD PTR [eax], OFFSET ??_7CChatServerDlg@@6BCDialog@@@
  00055	8b 45 f0	 mov	 eax, DWORD PTR _this$[ebp]
  00058	c7 80 a8 00 00
	00 00 00 00 00	 mov	 DWORD PTR [eax+168], OFFSET ??_7CChatServerDlg@@6BIServiceUnitsSink@@@
  00062	8b 4d f0	 mov	 ecx, DWORD PTR _this$[ebp]
  00065	81 c1 b0 00 00
	00		 add	 ecx, 176		; 000000b0H
  0006b	e8 00 00 00 00	 call	 ??0CServiceUnits@@QAE@XZ ; CServiceUnits::CServiceUnits
  00070	c6 45 fc 01	 mov	 BYTE PTR __$EHRec$[ebp+8], 1
  00074	8b 4d f0	 mov	 ecx, DWORD PTR _this$[ebp]
  00077	81 c1 78 2c 00
	00		 add	 ecx, 11384		; 00002c78H
  0007d	ff 15 00 00 00
	00		 call	 DWORD PTR __imp_??0CTraceServiceControl@@QAE@XZ

; 28   : 	//配置参数
; 29   : 	m_bAutoControl=false;

  00083	8b 45 f0	 mov	 eax, DWORD PTR _this$[ebp]
  00086	c6 80 48 6d 00
	00 00		 mov	 BYTE PTR [eax+27976], 0

; 30   : 	m_bOptionSuccess=false;

  0008d	8b 45 f0	 mov	 eax, DWORD PTR _this$[ebp]
  00090	c6 80 49 6d 00
	00 00		 mov	 BYTE PTR [eax+27977], 0

; 31   : 
; 32   : 	return;
; 33   : }

  00097	c7 45 fc ff ff
	ff ff		 mov	 DWORD PTR __$EHRec$[ebp+8], -1
  0009e	8b 45 f0	 mov	 eax, DWORD PTR _this$[ebp]
  000a1	8b 4d f4	 mov	 ecx, DWORD PTR __$EHRec$[ebp]
  000a4	64 89 0d 00 00
	00 00		 mov	 DWORD PTR fs:0, ecx
  000ab	59		 pop	 ecx
  000ac	5f		 pop	 edi
  000ad	5e		 pop	 esi
  000ae	5b		 pop	 ebx
  000af	8b e5		 mov	 esp, ebp
  000b1	5d		 pop	 ebp
  000b2	c3		 ret	 0
_TEXT	ENDS
;	COMDAT text$x
text$x	SEGMENT
__unwindfunclet$??0CChatServerDlg@@QAE@XZ$0:
  00000	8b 4d f0	 mov	 ecx, DWORD PTR _this$[ebp]
  00003	e9 00 00 00 00	 jmp	 ??1CDialog@@UAE@XZ	; CDialog::~CDialog
__unwindfunclet$??0CChatServerDlg@@QAE@XZ$1:
  00008	8b 4d f0	 mov	 ecx, DWORD PTR _this$[ebp]
  0000b	81 c1 b0 00 00
	00		 add	 ecx, 176		; 000000b0H
  00011	e9 00 00 00 00	 jmp	 ??1CServiceUnits@@UAE@XZ ; CServiceUnits::~CServiceUnits
__ehhandler$??0CChatServerDlg@@QAE@XZ:
  00016	8b 54 24 08	 mov	 edx, DWORD PTR [esp+8]
  0001a	8d 42 0c	 lea	 eax, DWORD PTR [edx+12]
  0001d	8b 4a ac	 mov	 ecx, DWORD PTR [edx-84]
  00020	33 c8		 xor	 ecx, eax
  00022	e8 00 00 00 00	 call	 @__security_check_cookie@4
  00027	b8 00 00 00 00	 mov	 eax, OFFSET __ehfuncinfo$??0CChatServerDlg@@QAE@XZ
  0002c	e9 00 00 00 00	 jmp	 ___CxxFrameHandler3
text$x	ENDS
??0CChatServerDlg@@QAE@XZ ENDP				; CChatServerDlg::CChatServerDlg
; Function compile flags: /Odtp /ZI
; File g:\网狐\happygamewh\服务端\系统模块\服务器组件\聊天服务器\serviceunits.h
;	COMDAT ?GetInitParameter@CServiceUnits@@QAE?AVCInitParameter@@XZ
_TEXT	SEGMENT
$T1 = -72						; size = 4
_this$ = -4						; size = 4
___$ReturnUdt$ = 8					; size = 4
?GetInitParameter@CServiceUnits@@QAE?AVCInitParameter@@XZ PROC ; CServiceUnits::GetInitParameter, COMDAT
; _this$ = ecx

; 96   : 	CInitParameter GetInitParameter() { return m_InitParameter; }

  00000	55		 push	 ebp
  00001	8b ec		 mov	 ebp, esp
  00003	83 ec 48	 sub	 esp, 72			; 00000048H
  00006	53		 push	 ebx
  00007	56		 push	 esi
  00008	57		 push	 edi
  00009	89 4d fc	 mov	 DWORD PTR _this$[ebp], ecx
  0000c	c7 45 b8 00 00
	00 00		 mov	 DWORD PTR $T1[ebp], 0
  00013	8b 45 fc	 mov	 eax, DWORD PTR _this$[ebp]
  00016	05 84 00 00 00	 add	 eax, 132		; 00000084H
  0001b	50		 push	 eax
  0001c	8b 4d 08	 mov	 ecx, DWORD PTR ___$ReturnUdt$[ebp]
  0001f	e8 00 00 00 00	 call	 ??0CInitParameter@@QAE@ABV0@@Z
  00024	8b 4d b8	 mov	 ecx, DWORD PTR $T1[ebp]
  00027	83 c9 01	 or	 ecx, 1
  0002a	89 4d b8	 mov	 DWORD PTR $T1[ebp], ecx
  0002d	8b 45 08	 mov	 eax, DWORD PTR ___$ReturnUdt$[ebp]
  00030	5f		 pop	 edi
  00031	5e		 pop	 esi
  00032	5b		 pop	 ebx
  00033	8b e5		 mov	 esp, ebp
  00035	5d		 pop	 ebp
  00036	c2 04 00	 ret	 4
?GetInitParameter@CServiceUnits@@QAE?AVCInitParameter@@XZ ENDP ; CServiceUnits::GetInitParameter
_TEXT	ENDS
; Function compile flags: /Odtp /ZI
; File g:\网狐\happygamewh\服务端\系统模块\服务器组件\聊天服务器\serviceunits.h
;	COMDAT ?GetServiceStatus@CServiceUnits@@QAE?AW4enServiceStatus@@XZ
_TEXT	SEGMENT
_this$ = -4						; size = 4
?GetServiceStatus@CServiceUnits@@QAE?AW4enServiceStatus@@XZ PROC ; CServiceUnits::GetServiceStatus, COMDAT
; _this$ = ecx

; 94   : 	enServiceStatus GetServiceStatus() { return m_ServiceStatus; }

  00000	55		 push	 ebp
  00001	8b ec		 mov	 ebp, esp
  00003	83 ec 44	 sub	 esp, 68			; 00000044H
  00006	53		 push	 ebx
  00007	56		 push	 esi
  00008	57		 push	 edi
  00009	89 4d fc	 mov	 DWORD PTR _this$[ebp], ecx
  0000c	8b 45 fc	 mov	 eax, DWORD PTR _this$[ebp]
  0000f	8b 80 80 00 00
	00		 mov	 eax, DWORD PTR [eax+128]
  00015	5f		 pop	 edi
  00016	5e		 pop	 esi
  00017	5b		 pop	 ebx
  00018	8b e5		 mov	 esp, ebp
  0001a	5d		 pop	 ebp
  0001b	c3		 ret	 0
?GetServiceStatus@CServiceUnits@@QAE?AW4enServiceStatus@@XZ ENDP ; CServiceUnits::GetServiceStatus
_TEXT	ENDS
; Function compile flags: /Odtp /ZI
;	COMDAT ??0IServiceUnitsSink@@QAE@XZ
_TEXT	SEGMENT
_this$ = -4						; size = 4
??0IServiceUnitsSink@@QAE@XZ PROC			; IServiceUnitsSink::IServiceUnitsSink, COMDAT
; _this$ = ecx
  00000	55		 push	 ebp
  00001	8b ec		 mov	 ebp, esp
  00003	83 ec 44	 sub	 esp, 68			; 00000044H
  00006	53		 push	 ebx
  00007	56		 push	 esi
  00008	57		 push	 edi
  00009	89 4d fc	 mov	 DWORD PTR _this$[ebp], ecx
  0000c	8b 45 fc	 mov	 eax, DWORD PTR _this$[ebp]
  0000f	c7 00 00 00 00
	00		 mov	 DWORD PTR [eax], OFFSET ??_7IServiceUnitsSink@@6B@
  00015	8b 45 fc	 mov	 eax, DWORD PTR _this$[ebp]
  00018	5f		 pop	 edi
  00019	5e		 pop	 esi
  0001a	5b		 pop	 ebx
  0001b	8b e5		 mov	 esp, ebp
  0001d	5d		 pop	 ebp
  0001e	c3		 ret	 0
??0IServiceUnitsSink@@QAE@XZ ENDP			; IServiceUnitsSink::IServiceUnitsSink
_TEXT	ENDS
; Function compile flags: /Odtp /ZI
;	COMDAT ??_GCInitParameter@@UAEPAXI@Z
_TEXT	SEGMENT
_this$ = -4						; size = 4
___flags$ = 8						; size = 4
??_GCInitParameter@@UAEPAXI@Z PROC			; CInitParameter::`scalar deleting destructor', COMDAT
; _this$ = ecx
  00000	55		 push	 ebp
  00001	8b ec		 mov	 ebp, esp
  00003	83 ec 44	 sub	 esp, 68			; 00000044H
  00006	53		 push	 ebx
  00007	56		 push	 esi
  00008	57		 push	 edi
  00009	89 4d fc	 mov	 DWORD PTR _this$[ebp], ecx
  0000c	8b 4d fc	 mov	 ecx, DWORD PTR _this$[ebp]
  0000f	e8 00 00 00 00	 call	 ??1CInitParameter@@UAE@XZ ; CInitParameter::~CInitParameter
  00014	8b 45 08	 mov	 eax, DWORD PTR ___flags$[ebp]
  00017	83 e0 01	 and	 eax, 1
  0001a	74 11		 je	 SHORT $LN2@scalar
  0001c	68 e4 01 00 00	 push	 484			; 000001e4H
  00021	8b 45 fc	 mov	 eax, DWORD PTR _this$[ebp]
  00024	50		 push	 eax
  00025	e8 00 00 00 00	 call	 ??3@YAXPAXI@Z		; operator delete
  0002a	83 c4 08	 add	 esp, 8
$LN2@scalar:
  0002d	8b 45 fc	 mov	 eax, DWORD PTR _this$[ebp]
  00030	5f		 pop	 edi
  00031	5e		 pop	 esi
  00032	5b		 pop	 ebx
  00033	8b e5		 mov	 esp, ebp
  00035	5d		 pop	 ebp
  00036	c2 04 00	 ret	 4
??_GCInitParameter@@UAEPAXI@Z ENDP			; CInitParameter::`scalar deleting destructor'
_TEXT	ENDS
; Function compile flags: /Odtp /ZI
;	COMDAT ??0CInitParameter@@QAE@ABV0@@Z
_TEXT	SEGMENT
_this$ = -4						; size = 4
___that$ = 8						; size = 4
??0CInitParameter@@QAE@ABV0@@Z PROC			; CInitParameter::CInitParameter, COMDAT
; _this$ = ecx
  00000	55		 push	 ebp
  00001	8b ec		 mov	 ebp, esp
  00003	83 ec 44	 sub	 esp, 68			; 00000044H
  00006	53		 push	 ebx
  00007	56		 push	 esi
  00008	57		 push	 edi
  00009	89 4d fc	 mov	 DWORD PTR _this$[ebp], ecx
  0000c	8b 45 fc	 mov	 eax, DWORD PTR _this$[ebp]
  0000f	c7 00 00 00 00
	00		 mov	 DWORD PTR [eax], OFFSET ??_7CInitParameter@@6B@
  00015	8b 45 fc	 mov	 eax, DWORD PTR _this$[ebp]
  00018	8b 4d 08	 mov	 ecx, DWORD PTR ___that$[ebp]
  0001b	66 8b 51 04	 mov	 dx, WORD PTR [ecx+4]
  0001f	66 89 50 04	 mov	 WORD PTR [eax+4], dx
  00023	8b 45 fc	 mov	 eax, DWORD PTR _this$[ebp]
  00026	8b 4d 08	 mov	 ecx, DWORD PTR ___that$[ebp]
  00029	66 8b 51 06	 mov	 dx, WORD PTR [ecx+6]
  0002d	66 89 50 06	 mov	 WORD PTR [eax+6], dx
  00031	8b 45 fc	 mov	 eax, DWORD PTR _this$[ebp]
  00034	8b 4d 08	 mov	 ecx, DWORD PTR ___that$[ebp]
  00037	66 8b 51 08	 mov	 dx, WORD PTR [ecx+8]
  0003b	66 89 50 08	 mov	 WORD PTR [eax+8], dx
  0003f	8b 45 fc	 mov	 eax, DWORD PTR _this$[ebp]
  00042	8b 4d 08	 mov	 ecx, DWORD PTR ___that$[ebp]
  00045	66 8b 51 0a	 mov	 dx, WORD PTR [ecx+10]
  00049	66 89 50 0a	 mov	 WORD PTR [eax+10], dx
  0004d	8b 45 fc	 mov	 eax, DWORD PTR _this$[ebp]
  00050	8b 4d 08	 mov	 ecx, DWORD PTR ___that$[ebp]
  00053	8b 51 0c	 mov	 edx, DWORD PTR [ecx+12]
  00056	89 50 0c	 mov	 DWORD PTR [eax+12], edx
  00059	8b 45 fc	 mov	 eax, DWORD PTR _this$[ebp]
  0005c	8b 4d 08	 mov	 ecx, DWORD PTR ___that$[ebp]
  0005f	8b 51 10	 mov	 edx, DWORD PTR [ecx+16]
  00062	89 50 10	 mov	 DWORD PTR [eax+16], edx
  00065	8b 45 fc	 mov	 eax, DWORD PTR _this$[ebp]
  00068	8b 4d 08	 mov	 ecx, DWORD PTR ___that$[ebp]
  0006b	66 8b 51 14	 mov	 dx, WORD PTR [ecx+20]
  0006f	66 89 50 14	 mov	 WORD PTR [eax+20], dx
  00073	8b 45 fc	 mov	 eax, DWORD PTR _this$[ebp]
  00076	8b 4d 08	 mov	 ecx, DWORD PTR ___that$[ebp]
  00079	8a 51 16	 mov	 dl, BYTE PTR [ecx+22]
  0007c	88 50 16	 mov	 BYTE PTR [eax+22], dl
  0007f	8b 45 fc	 mov	 eax, DWORD PTR _this$[ebp]
  00082	8b 4d 08	 mov	 ecx, DWORD PTR ___that$[ebp]
  00085	8b 51 18	 mov	 edx, DWORD PTR [ecx+24]
  00088	89 50 18	 mov	 DWORD PTR [eax+24], edx
  0008b	8b 45 fc	 mov	 eax, DWORD PTR _this$[ebp]
  0008e	8b 4d 08	 mov	 ecx, DWORD PTR ___that$[ebp]
  00091	66 8b 51 1c	 mov	 dx, WORD PTR [ecx+28]
  00095	66 89 50 1c	 mov	 WORD PTR [eax+28], dx
  00099	8b 75 08	 mov	 esi, DWORD PTR ___that$[ebp]
  0009c	83 c6 1e	 add	 esi, 30			; 0000001eH
  0009f	8b 7d fc	 mov	 edi, DWORD PTR _this$[ebp]
  000a2	83 c7 1e	 add	 edi, 30			; 0000001eH
  000a5	b9 08 00 00 00	 mov	 ecx, 8
  000aa	f3 a5		 rep movsd
  000ac	8b 75 08	 mov	 esi, DWORD PTR ___that$[ebp]
  000af	83 c6 3e	 add	 esi, 62			; 0000003eH
  000b2	8b 7d fc	 mov	 edi, DWORD PTR _this$[ebp]
  000b5	83 c7 3e	 add	 edi, 62			; 0000003eH
  000b8	b9 08 00 00 00	 mov	 ecx, 8
  000bd	f3 a5		 rep movsd
  000bf	8b 75 08	 mov	 esi, DWORD PTR ___that$[ebp]
  000c2	83 c6 5e	 add	 esi, 94			; 0000005eH
  000c5	8b 7d fc	 mov	 edi, DWORD PTR _this$[ebp]
  000c8	83 c7 5e	 add	 edi, 94			; 0000005eH
  000cb	b9 20 00 00 00	 mov	 ecx, 32			; 00000020H
  000d0	f3 a5		 rep movsd
  000d2	66 a5		 movsw
  000d4	8b 75 08	 mov	 esi, DWORD PTR ___that$[ebp]
  000d7	81 c6 e0 00 00
	00		 add	 esi, 224		; 000000e0H
  000dd	8b 7d fc	 mov	 edi, DWORD PTR _this$[ebp]
  000e0	81 c7 e0 00 00
	00		 add	 edi, 224		; 000000e0H
  000e6	b9 20 00 00 00	 mov	 ecx, 32			; 00000020H
  000eb	f3 a5		 rep movsd
  000ed	66 a5		 movsw
  000ef	8b 75 08	 mov	 esi, DWORD PTR ___that$[ebp]
  000f2	81 c6 62 01 00
	00		 add	 esi, 354		; 00000162H
  000f8	8b 7d fc	 mov	 edi, DWORD PTR _this$[ebp]
  000fb	81 c7 62 01 00
	00		 add	 edi, 354		; 00000162H
  00101	b9 20 00 00 00	 mov	 ecx, 32			; 00000020H
  00106	f3 a5		 rep movsd
  00108	66 a5		 movsw
  0010a	8b 45 fc	 mov	 eax, DWORD PTR _this$[ebp]
  0010d	5f		 pop	 edi
  0010e	5e		 pop	 esi
  0010f	5b		 pop	 ebx
  00110	8b e5		 mov	 esp, ebp
  00112	5d		 pop	 ebp
  00113	c2 04 00	 ret	 4
??0CInitParameter@@QAE@ABV0@@Z ENDP			; CInitParameter::CInitParameter
_TEXT	ENDS
; Function compile flags: /Odtp /ZI
; File c:\program files (x86)\microsoft visual studio\2017\community\vc\tools\msvc\14.16.27023\atlmfc\include\afx.h
;	COMDAT ?AfxAssertFailedLine@@YGHPBDH@Z
_TEXT	SEGMENT
_bResult$ = -36						; size = 4
_bQuit$ = -32						; size = 4
_msg$ = -28						; size = 28
_lpszFileName$ = 8					; size = 4
_nLine$ = 12						; size = 4
?AfxAssertFailedLine@@YGHPBDH@Z PROC			; AfxAssertFailedLine, COMDAT

; 312  : {

  00000	55		 push	 ebp
  00001	8b ec		 mov	 ebp, esp
  00003	83 ec 64	 sub	 esp, 100		; 00000064H
  00006	53		 push	 ebx
  00007	56		 push	 esi
  00008	57		 push	 edi

; 313  : 	// we remove WM_QUIT because if it is in the queue then the message box
; 314  : 	// won't display
; 315  : 	MSG msg;
; 316  : 	BOOL bQuit = PeekMessage(&msg, NULL, WM_QUIT, WM_QUIT, PM_REMOVE);

  00009	6a 01		 push	 1
  0000b	6a 12		 push	 18			; 00000012H
  0000d	6a 12		 push	 18			; 00000012H
  0000f	6a 00		 push	 0
  00011	8d 45 e4	 lea	 eax, DWORD PTR _msg$[ebp]
  00014	50		 push	 eax
  00015	ff 15 00 00 00
	00		 call	 DWORD PTR __imp__PeekMessageA@20
  0001b	89 45 e0	 mov	 DWORD PTR _bQuit$[ebp], eax

; 317  : 	BOOL bResult = _CrtDbgReport(_CRT_ASSERT, lpszFileName, nLine, NULL, NULL);

  0001e	6a 00		 push	 0
  00020	6a 00		 push	 0
  00022	8b 45 0c	 mov	 eax, DWORD PTR _nLine$[ebp]
  00025	50		 push	 eax
  00026	8b 4d 08	 mov	 ecx, DWORD PTR _lpszFileName$[ebp]
  00029	51		 push	 ecx
  0002a	6a 02		 push	 2
  0002c	ff 15 00 00 00
	00		 call	 DWORD PTR __imp___CrtDbgReport
  00032	83 c4 14	 add	 esp, 20			; 00000014H
  00035	89 45 dc	 mov	 DWORD PTR _bResult$[ebp], eax

; 318  : 	if (bQuit)

  00038	83 7d e0 00	 cmp	 DWORD PTR _bQuit$[ebp], 0
  0003c	74 0a		 je	 SHORT $LN2@AfxAssertF

; 319  : 		PostQuitMessage((int)msg.wParam);

  0003e	8b 45 ec	 mov	 eax, DWORD PTR _msg$[ebp+8]
  00041	50		 push	 eax
  00042	ff 15 00 00 00
	00		 call	 DWORD PTR __imp__PostQuitMessage@4
$LN2@AfxAssertF:

; 320  : 	return bResult;

  00048	8b 45 dc	 mov	 eax, DWORD PTR _bResult$[ebp]

; 321  : }

  0004b	5f		 pop	 edi
  0004c	5e		 pop	 esi
  0004d	5b		 pop	 ebx
  0004e	8b e5		 mov	 esp, ebp
  00050	5d		 pop	 ebp
  00051	c2 08 00	 ret	 8
?AfxAssertFailedLine@@YGHPBDH@Z ENDP			; AfxAssertFailedLine
_TEXT	ENDS
; Function compile flags: /Odtp /ZI
; File c:\program files (x86)\windows kits\10\include\10.0.17763.0\ucrt\stdio.h
;	COMDAT __snprintf
_TEXT	SEGMENT
__ArgList$ = -8						; size = 4
__Result$ = -4						; size = 4
__Buffer$ = 8						; size = 4
__BufferCount$ = 12					; size = 4
__Format$ = 16						; size = 4
__snprintf PROC						; COMDAT

; 1969 :     {

  00000	55		 push	 ebp
  00001	8b ec		 mov	 ebp, esp
  00003	83 ec 4c	 sub	 esp, 76			; 0000004cH
  00006	53		 push	 ebx
  00007	56		 push	 esi
  00008	57		 push	 edi

; 1970 :         int _Result;
; 1971 :         va_list _ArgList;
; 1972 :         __crt_va_start(_ArgList, _Format);

  00009	8d 45 14	 lea	 eax, DWORD PTR __Format$[ebp+4]
  0000c	89 45 f8	 mov	 DWORD PTR __ArgList$[ebp], eax

; 1973 :     #pragma warning(suppress:28719)    // 28719
; 1974 :         _Result = _vsnprintf(_Buffer, _BufferCount, _Format, _ArgList);

  0000f	8b 45 f8	 mov	 eax, DWORD PTR __ArgList$[ebp]
  00012	50		 push	 eax
  00013	8b 4d 10	 mov	 ecx, DWORD PTR __Format$[ebp]
  00016	51		 push	 ecx
  00017	8b 55 0c	 mov	 edx, DWORD PTR __BufferCount$[ebp]
  0001a	52		 push	 edx
  0001b	8b 45 08	 mov	 eax, DWORD PTR __Buffer$[ebp]
  0001e	50		 push	 eax
  0001f	e8 00 00 00 00	 call	 __vsnprintf
  00024	83 c4 10	 add	 esp, 16			; 00000010H
  00027	89 45 fc	 mov	 DWORD PTR __Result$[ebp], eax

; 1975 :         __crt_va_end(_ArgList);

  0002a	c7 45 f8 00 00
	00 00		 mov	 DWORD PTR __ArgList$[ebp], 0

; 1976 :         return _Result;

  00031	8b 45 fc	 mov	 eax, DWORD PTR __Result$[ebp]

; 1977 :     }

  00034	5f		 pop	 edi
  00035	5e		 pop	 esi
  00036	5b		 pop	 ebx
  00037	8b e5		 mov	 esp, ebp
  00039	5d		 pop	 ebp
  0003a	c3		 ret	 0
__snprintf ENDP
_TEXT	ENDS
; Function compile flags: /Odtp /ZI
; File c:\program files (x86)\windows kits\10\include\10.0.17763.0\ucrt\stdio.h
;	COMDAT __vsnprintf
_TEXT	SEGMENT
__Buffer$ = 8						; size = 4
__BufferCount$ = 12					; size = 4
__Format$ = 16						; size = 4
__ArgList$ = 20						; size = 4
__vsnprintf PROC					; COMDAT

; 1409 :     {

  00000	55		 push	 ebp
  00001	8b ec		 mov	 ebp, esp
  00003	83 ec 40	 sub	 esp, 64			; 00000040H
  00006	53		 push	 ebx
  00007	56		 push	 esi
  00008	57		 push	 edi

; 1410 :         #pragma warning(push)
; 1411 :         #pragma warning(disable: 4996) // Deprecation
; 1412 :         return _vsnprintf_l(_Buffer, _BufferCount, _Format, NULL, _ArgList);

  00009	8b 45 14	 mov	 eax, DWORD PTR __ArgList$[ebp]
  0000c	50		 push	 eax
  0000d	6a 00		 push	 0
  0000f	8b 4d 10	 mov	 ecx, DWORD PTR __Format$[ebp]
  00012	51		 push	 ecx
  00013	8b 55 0c	 mov	 edx, DWORD PTR __BufferCount$[ebp]
  00016	52		 push	 edx
  00017	8b 45 08	 mov	 eax, DWORD PTR __Buffer$[ebp]
  0001a	50		 push	 eax
  0001b	e8 00 00 00 00	 call	 __vsnprintf_l
  00020	83 c4 14	 add	 esp, 20			; 00000014H

; 1413 :         #pragma warning(pop)
; 1414 :     }

  00023	5f		 pop	 edi
  00024	5e		 pop	 esi
  00025	5b		 pop	 ebx
  00026	8b e5		 mov	 esp, ebp
  00028	5d		 pop	 ebp
  00029	c3		 ret	 0
__vsnprintf ENDP
_TEXT	ENDS
; Function compile flags: /Odtp /ZI
; File c:\program files (x86)\windows kits\10\include\10.0.17763.0\ucrt\stdio.h
;	COMDAT __vsnprintf_l
_TEXT	SEGMENT
tv74 = -72						; size = 4
__Result$ = -4						; size = 4
__Buffer$ = 8						; size = 4
__BufferCount$ = 12					; size = 4
__Format$ = 16						; size = 4
__Locale$ = 20						; size = 4
__ArgList$ = 24						; size = 4
__vsnprintf_l PROC					; COMDAT

; 1389 :     {

  00000	55		 push	 ebp
  00001	8b ec		 mov	 ebp, esp
  00003	83 ec 48	 sub	 esp, 72			; 00000048H
  00006	53		 push	 ebx
  00007	56		 push	 esi
  00008	57		 push	 edi

; 1390 :         int const _Result = __stdio_common_vsprintf(

  00009	8b 45 18	 mov	 eax, DWORD PTR __ArgList$[ebp]
  0000c	50		 push	 eax
  0000d	8b 4d 14	 mov	 ecx, DWORD PTR __Locale$[ebp]
  00010	51		 push	 ecx
  00011	8b 55 10	 mov	 edx, DWORD PTR __Format$[ebp]
  00014	52		 push	 edx
  00015	8b 45 0c	 mov	 eax, DWORD PTR __BufferCount$[ebp]
  00018	50		 push	 eax
  00019	8b 4d 08	 mov	 ecx, DWORD PTR __Buffer$[ebp]
  0001c	51		 push	 ecx
  0001d	e8 00 00 00 00	 call	 ___local_stdio_printf_options
  00022	8b 10		 mov	 edx, DWORD PTR [eax]
  00024	83 ca 01	 or	 edx, 1
  00027	8b 40 04	 mov	 eax, DWORD PTR [eax+4]
  0002a	50		 push	 eax
  0002b	52		 push	 edx
  0002c	ff 15 00 00 00
	00		 call	 DWORD PTR __imp____stdio_common_vsprintf
  00032	83 c4 1c	 add	 esp, 28			; 0000001cH
  00035	89 45 fc	 mov	 DWORD PTR __Result$[ebp], eax

; 1391 :             _CRT_INTERNAL_LOCAL_PRINTF_OPTIONS | _CRT_INTERNAL_PRINTF_LEGACY_VSPRINTF_NULL_TERMINATION,
; 1392 :             _Buffer, _BufferCount, _Format, _Locale, _ArgList);
; 1393 : 
; 1394 :         return _Result < 0 ? -1 : _Result;

  00038	83 7d fc 00	 cmp	 DWORD PTR __Result$[ebp], 0
  0003c	7d 09		 jge	 SHORT $LN3@vsnprintf_
  0003e	c7 45 b8 ff ff
	ff ff		 mov	 DWORD PTR tv74[ebp], -1
  00045	eb 06		 jmp	 SHORT $LN4@vsnprintf_
$LN3@vsnprintf_:
  00047	8b 45 fc	 mov	 eax, DWORD PTR __Result$[ebp]
  0004a	89 45 b8	 mov	 DWORD PTR tv74[ebp], eax
$LN4@vsnprintf_:
  0004d	8b 45 b8	 mov	 eax, DWORD PTR tv74[ebp]

; 1395 :     }

  00050	5f		 pop	 edi
  00051	5e		 pop	 esi
  00052	5b		 pop	 ebx
  00053	8b e5		 mov	 esp, ebp
  00055	5d		 pop	 ebp
  00056	c3		 ret	 0
__vsnprintf_l ENDP
_TEXT	ENDS
; Function compile flags: /Odtp /ZI
; File c:\program files (x86)\windows kits\10\include\10.0.17763.0\ucrt\corecrt_stdio_config.h
;	COMDAT ___local_stdio_printf_options
_TEXT	SEGMENT
___local_stdio_printf_options PROC			; COMDAT

; 86   :     {

  00000	55		 push	 ebp
  00001	8b ec		 mov	 ebp, esp
  00003	83 ec 40	 sub	 esp, 64			; 00000040H
  00006	53		 push	 ebx
  00007	56		 push	 esi
  00008	57		 push	 edi

; 87   :         static unsigned __int64 _OptionsStorage;
; 88   :         return &_OptionsStorage;

  00009	b8 00 00 00 00	 mov	 eax, OFFSET ?_OptionsStorage@?1??__local_stdio_printf_options@@9@4_KA ; `__local_stdio_printf_options'::`2'::_OptionsStorage

; 89   :     }

  0000e	5f		 pop	 edi
  0000f	5e		 pop	 esi
  00010	5b		 pop	 ebx
  00011	8b e5		 mov	 esp, ebp
  00013	5d		 pop	 ebp
  00014	c3		 ret	 0
___local_stdio_printf_options ENDP
_TEXT	ENDS
; Function compile flags: /Odtp /ZI
; File g:\网狐\happygamewh\服务端\系统模块\服务器组件\聊天服务器\chatserverdlg.cpp
;	COMDAT ?__empty_global_delete@@YAXPAXI@Z
_TEXT	SEGMENT
___formal$ = 8						; size = 4
___formal$ = 12						; size = 4
?__empty_global_delete@@YAXPAXI@Z PROC			; __empty_global_delete, COMDAT

  00000	55		 push	 ebp
  00001	8b ec		 mov	 ebp, esp
  00003	83 ec 40	 sub	 esp, 64			; 00000040H
  00006	53		 push	 ebx
  00007	56		 push	 esi
  00008	57		 push	 edi
  00009	5f		 pop	 edi
  0000a	5e		 pop	 esi
  0000b	5b		 pop	 ebx
  0000c	8b e5		 mov	 esp, ebp
  0000e	5d		 pop	 ebp
  0000f	c3		 ret	 0
?__empty_global_delete@@YAXPAXI@Z ENDP			; __empty_global_delete
_TEXT	ENDS
; Function compile flags: /Odtp /ZI
; File g:\网狐\happygamewh\服务端\系统模块\服务器组件\聊天服务器\chatserverdlg.cpp
;	COMDAT ?__empty_global_delete@@YAXPAX@Z
_TEXT	SEGMENT
___formal$ = 8						; size = 4
?__empty_global_delete@@YAXPAX@Z PROC			; __empty_global_delete, COMDAT

  00000	55		 push	 ebp
  00001	8b ec		 mov	 ebp, esp
  00003	83 ec 40	 sub	 esp, 64			; 00000040H
  00006	53		 push	 ebx
  00007	56		 push	 esi
  00008	57		 push	 edi
  00009	5f		 pop	 edi
  0000a	5e		 pop	 esi
  0000b	5b		 pop	 ebx
  0000c	8b e5		 mov	 esp, ebp
  0000e	5d		 pop	 ebp
  0000f	c3		 ret	 0
?__empty_global_delete@@YAXPAX@Z ENDP			; __empty_global_delete
_TEXT	ENDS
END
