; Listing generated by Microsoft (R) Optimizing Compiler Version 19.16.27032.1 

	TITLE	G:\网狐\HappyGameWH\服务端\系统模块\服务器组件\聊天服务器\ChatServer.cpp
	.686P
	.XMM
	include listing.inc
	.model	flat

INCLUDELIB MSVCRTD
INCLUDELIB OLDNAMES

EXTRN	?GetThisMessageMap@CWinApp@@KGPBUAFX_MSGMAP@@XZ:PROC ; CWinApp::GetThisMessageMap
CONST	SEGMENT
?szProduct@@3QBDB DB 0cdH, 0f8H, 0baH, 0fcH, 0c6H, 0e5H, 0c5H, 0c6H, 0beH
	DB	0abH, 0bbH, 0aaH, 0c6H, 0bdH, 0ccH, 0a8H, 00H ; szProduct
	ORG $+3
?_messageEntries@?1??GetThisMessageMap@CChatServerApp@@KGPBUAFX_MSGMAP@@XZ@4QBUAFX_MSGMAP_ENTRY@@B DD 00H ; `CChatServerApp::GetThisMessageMap'::`2'::_messageEntries
	DD	00H
	DD	00H
	DD	00H
	DD	00H
	DD	00H
?messageMap@?1??GetThisMessageMap@CChatServerApp@@KGPBUAFX_MSGMAP@@XZ@4U3@B DD FLAT:?GetThisMessageMap@CWinApp@@KGPBUAFX_MSGMAP@@XZ ; `CChatServerApp::GetThisMessageMap'::`2'::messageMap
	DD	FLAT:?_messageEntries@?1??GetThisMessageMap@CChatServerApp@@KGPBUAFX_MSGMAP@@XZ@4QBUAFX_MSGMAP_ENTRY@@B
CONST	ENDS
PUBLIC	?__empty_global_delete@@YAXPAX@Z		; __empty_global_delete
PUBLIC	?__empty_global_delete@@YAXPAXI@Z		; __empty_global_delete
PUBLIC	?SupportsRestartManager@CWinApp@@UBEHXZ		; CWinApp::SupportsRestartManager
PUBLIC	?SupportsApplicationRecovery@CWinApp@@UBEHXZ	; CWinApp::SupportsApplicationRecovery
PUBLIC	?SupportsAutosaveAtRestart@CWinApp@@UBEHXZ	; CWinApp::SupportsAutosaveAtRestart
PUBLIC	?SupportsAutosaveAtInterval@CWinApp@@UBEHXZ	; CWinApp::SupportsAutosaveAtInterval
PUBLIC	?ReopenPreviousFilesAtRestart@CWinApp@@UBEHXZ	; CWinApp::ReopenPreviousFilesAtRestart
PUBLIC	?RestoreAutosavedFilesAtRestart@CWinApp@@UBEHXZ	; CWinApp::RestoreAutosavedFilesAtRestart
PUBLIC	?GetApplicationRestartFlags@CWinApp@@UAEKXZ	; CWinApp::GetApplicationRestartFlags
PUBLIC	?GetApplicationRecoveryParameter@CWinApp@@UAEPAXXZ ; CWinApp::GetApplicationRecoveryParameter
PUBLIC	?GetApplicationRecoveryPingInterval@CWinApp@@UAEKXZ ; CWinApp::GetApplicationRecoveryPingInterval
PUBLIC	??0CChatServerApp@@QAE@XZ			; CChatServerApp::CChatServerApp
PUBLIC	?InitInstance@CChatServerApp@@UAEHXZ		; CChatServerApp::InitInstance
PUBLIC	?GetThisMessageMap@CChatServerApp@@KGPBUAFX_MSGMAP@@XZ ; CChatServerApp::GetThisMessageMap
PUBLIC	?GetMessageMap@CChatServerApp@@MBEPBUAFX_MSGMAP@@XZ ; CChatServerApp::GetMessageMap
PUBLIC	??1CChatServerApp@@UAE@XZ			; CChatServerApp::~CChatServerApp
PUBLIC	??_GCChatServerApp@@UAEPAXI@Z			; CChatServerApp::`scalar deleting destructor'
PUBLIC	??_R1A@?0A@EA@CObject@@8			; CObject::`RTTI Base Class Descriptor at (0,-1,0,64)'
PUBLIC	??_R0?AVCObject@@@8				; CObject `RTTI Type Descriptor'
PUBLIC	??_R3CObject@@8					; CObject::`RTTI Class Hierarchy Descriptor'
PUBLIC	??_R2CObject@@8					; CObject::`RTTI Base Class Array'
PUBLIC	??_R1A@?0A@EA@CCmdTarget@@8			; CCmdTarget::`RTTI Base Class Descriptor at (0,-1,0,64)'
PUBLIC	??_R0?AVCCmdTarget@@@8				; CCmdTarget `RTTI Type Descriptor'
PUBLIC	??_R3CCmdTarget@@8				; CCmdTarget::`RTTI Class Hierarchy Descriptor'
PUBLIC	??_R2CCmdTarget@@8				; CCmdTarget::`RTTI Base Class Array'
PUBLIC	??_7CChatServerApp@@6B@				; CChatServerApp::`vftable'
PUBLIC	?theApp@@3VCChatServerApp@@A			; theApp
PUBLIC	??_R4CChatServerApp@@6B@			; CChatServerApp::`RTTI Complete Object Locator'
PUBLIC	??_R0?AVCChatServerApp@@@8			; CChatServerApp `RTTI Type Descriptor'
PUBLIC	??_R3CChatServerApp@@8				; CChatServerApp::`RTTI Class Hierarchy Descriptor'
PUBLIC	??_R2CChatServerApp@@8				; CChatServerApp::`RTTI Base Class Array'
PUBLIC	??_R1A@?0A@EA@CChatServerApp@@8			; CChatServerApp::`RTTI Base Class Descriptor at (0,-1,0,64)'
PUBLIC	??_R1A@?0A@EA@CWinApp@@8			; CWinApp::`RTTI Base Class Descriptor at (0,-1,0,64)'
PUBLIC	??_R0?AVCWinApp@@@8				; CWinApp `RTTI Type Descriptor'
PUBLIC	??_R3CWinApp@@8					; CWinApp::`RTTI Class Hierarchy Descriptor'
PUBLIC	??_R2CWinApp@@8					; CWinApp::`RTTI Base Class Array'
PUBLIC	??_R1A@?0A@EA@CWinThread@@8			; CWinThread::`RTTI Base Class Descriptor at (0,-1,0,64)'
PUBLIC	??_R0?AVCWinThread@@@8				; CWinThread `RTTI Type Descriptor'
PUBLIC	??_R3CWinThread@@8				; CWinThread::`RTTI Class Hierarchy Descriptor'
PUBLIC	??_R2CWinThread@@8				; CWinThread::`RTTI Base Class Array'
EXTRN	?__global_delete@@YAXPAXI@Z:PROC		; __global_delete
EXTRN	_atexit:PROC
EXTRN	__imp__InitCommonControls@0:PROC
EXTRN	??3CObject@@SGXPAX@Z:PROC			; CObject::operator delete
EXTRN	?Serialize@CObject@@UAEXAAVCArchive@@@Z:PROC	; CObject::Serialize
EXTRN	?OnCmdMsg@CCmdTarget@@UAEHIHPAXPAUAFX_CMDHANDLERINFO@@@Z:PROC ; CCmdTarget::OnCmdMsg
EXTRN	?OnFinalRelease@CCmdTarget@@UAEXXZ:PROC		; CCmdTarget::OnFinalRelease
EXTRN	?IsInvokeAllowed@CCmdTarget@@UAEHJ@Z:PROC	; CCmdTarget::IsInvokeAllowed
EXTRN	?GetDispatchIID@CCmdTarget@@UAEHPAU_GUID@@@Z:PROC ; CCmdTarget::GetDispatchIID
EXTRN	?GetTypeInfoCount@CCmdTarget@@UAEIXZ:PROC	; CCmdTarget::GetTypeInfoCount
EXTRN	?GetTypeLibCache@CCmdTarget@@UAEPAVCTypeLibCache@@XZ:PROC ; CCmdTarget::GetTypeLibCache
EXTRN	?GetTypeLib@CCmdTarget@@UAEJKPAPAUITypeLib@@@Z:PROC ; CCmdTarget::GetTypeLib
EXTRN	?GetCommandMap@CCmdTarget@@MBEPBUAFX_OLECMDMAP@@XZ:PROC ; CCmdTarget::GetCommandMap
EXTRN	?GetDispatchMap@CCmdTarget@@MBEPBUAFX_DISPMAP@@XZ:PROC ; CCmdTarget::GetDispatchMap
EXTRN	?GetConnectionMap@CCmdTarget@@MBEPBUAFX_CONNECTIONMAP@@XZ:PROC ; CCmdTarget::GetConnectionMap
EXTRN	?GetInterfaceMap@CCmdTarget@@MBEPBUAFX_INTERFACEMAP@@XZ:PROC ; CCmdTarget::GetInterfaceMap
EXTRN	?GetEventSinkMap@CCmdTarget@@MBEPBUAFX_EVENTSINKMAP@@XZ:PROC ; CCmdTarget::GetEventSinkMap
EXTRN	?OnCreateAggregates@CCmdTarget@@UAEHXZ:PROC	; CCmdTarget::OnCreateAggregates
EXTRN	?GetInterfaceHook@CCmdTarget@@UAEPAUIUnknown@@PBX@Z:PROC ; CCmdTarget::GetInterfaceHook
EXTRN	?GetExtraConnectionPoints@CCmdTarget@@MAEHPAVCPtrArray@@@Z:PROC ; CCmdTarget::GetExtraConnectionPoints
EXTRN	?GetConnectionHook@CCmdTarget@@MAEPAUIConnectionPoint@@ABU_GUID@@@Z:PROC ; CCmdTarget::GetConnectionHook
EXTRN	?AfxInitRichEdit2@@YGHXZ:PROC			; AfxInitRichEdit2
EXTRN	?DoModal@CDialog@@UAEHXZ:PROC			; CDialog::DoModal
EXTRN	?PreTranslateMessage@CWinThread@@UAEHPAUtagMSG@@@Z:PROC ; CWinThread::PreTranslateMessage
EXTRN	?PumpMessage@CWinThread@@UAEHXZ:PROC		; CWinThread::PumpMessage
EXTRN	?IsIdleMessage@CWinThread@@UAEHPAUtagMSG@@@Z:PROC ; CWinThread::IsIdleMessage
EXTRN	?ProcessMessageFilter@CWinThread@@UAEHHPAUtagMSG@@@Z:PROC ; CWinThread::ProcessMessageFilter
EXTRN	?GetMainWnd@CWinThread@@UAEPAVCWnd@@XZ:PROC	; CWinThread::GetMainWnd
EXTRN	?Delete@CWinThread@@UAEXXZ:PROC			; CWinThread::Delete
EXTRN	?GetRuntimeClass@CWinApp@@UBEPAUCRuntimeClass@@XZ:PROC ; CWinApp::GetRuntimeClass
EXTRN	??0CWinApp@@QAE@PBD@Z:PROC			; CWinApp::CWinApp
EXTRN	?SetRegistryKey@CWinApp@@IAEXPBD@Z:PROC		; CWinApp::SetRegistryKey
EXTRN	?GetProfileIntA@CWinApp@@UAEIPBD0H@Z:PROC	; CWinApp::GetProfileIntA
EXTRN	?WriteProfileInt@CWinApp@@UAEHPBD0H@Z:PROC	; CWinApp::WriteProfileInt
EXTRN	?GetProfileStringA@CWinApp@@UAE?AV?$CStringT@DV?$StrTraitMFC_DLL@DV?$ChTraitsCRT@D@ATL@@@@@ATL@@PBD00@Z:PROC ; CWinApp::GetProfileStringA
EXTRN	?WriteProfileStringA@CWinApp@@UAEHPBD00@Z:PROC	; CWinApp::WriteProfileStringA
EXTRN	?GetProfileBinary@CWinApp@@UAEHPBD0PAPAEPAI@Z:PROC ; CWinApp::GetProfileBinary
EXTRN	?WriteProfileBinary@CWinApp@@UAEHPBD0PAEI@Z:PROC ; CWinApp::WriteProfileBinary
EXTRN	?InitLibId@CWinApp@@UAEXXZ:PROC			; CWinApp::InitLibId
EXTRN	?Register@CWinApp@@UAEHXZ:PROC			; CWinApp::Register
EXTRN	?Unregister@CWinApp@@UAEHXZ:PROC		; CWinApp::Unregister
EXTRN	?OpenDocumentFile@CWinApp@@UAEPAVCDocument@@PBD@Z:PROC ; CWinApp::OpenDocumentFile
EXTRN	?OpenDocumentFile@CWinApp@@UAEPAVCDocument@@PBDH@Z:PROC ; CWinApp::OpenDocumentFile
EXTRN	?AddToRecentFileList@CWinApp@@UAEXPBD@Z:PROC	; CWinApp::AddToRecentFileList
EXTRN	?InitApplication@CWinApp@@UAEHXZ:PROC		; CWinApp::InitApplication
EXTRN	?SaveAllModified@CWinApp@@UAEHXZ:PROC		; CWinApp::SaveAllModified
EXTRN	?DoMessageBox@CWinApp@@UAEHPBDII@Z:PROC		; CWinApp::DoMessageBox
EXTRN	?DoWaitCursor@CWinApp@@UAEXH@Z:PROC		; CWinApp::DoWaitCursor
EXTRN	?OnDDECommand@CWinApp@@UAEHPAD@Z:PROC		; CWinApp::OnDDECommand
EXTRN	?WinHelpA@CWinApp@@UAEXKI@Z:PROC		; CWinApp::WinHelpA
EXTRN	?HtmlHelpA@CWinApp@@UAEXKI@Z:PROC		; CWinApp::HtmlHelpA
EXTRN	?WinHelpInternal@CWinApp@@UAEXKI@Z:PROC		; CWinApp::WinHelpInternal
EXTRN	?RegisterWithRestartManager@CWinApp@@UAEJHABV?$CStringT@DV?$StrTraitMFC_DLL@DV?$ChTraitsCRT@D@ATL@@@@@ATL@@@Z:PROC ; CWinApp::RegisterWithRestartManager
EXTRN	?RegisterWithRestartManager@CWinApp@@UAEJPB_WKP6GKPAX@Z1KK@Z:PROC ; CWinApp::RegisterWithRestartManager
EXTRN	?ApplicationRecoveryCallback@CWinApp@@UAEKPAX@Z:PROC ; CWinApp::ApplicationRecoveryCallback
EXTRN	?GetDataRecoveryHandler@CWinApp@@UAEPAVCDataRecoveryHandler@@XZ:PROC ; CWinApp::GetDataRecoveryHandler
EXTRN	?IsTaskbarInteractionEnabled@CWinApp@@UAEHXZ:PROC ; CWinApp::IsTaskbarInteractionEnabled
EXTRN	?InitInstance@CWinApp@@UAEHXZ:PROC		; CWinApp::InitInstance
EXTRN	?ExitInstance@CWinApp@@UAEHXZ:PROC		; CWinApp::ExitInstance
EXTRN	?RestartInstance@CWinApp@@UAEHXZ:PROC		; CWinApp::RestartInstance
EXTRN	?Run@CWinApp@@UAEHXZ:PROC			; CWinApp::Run
EXTRN	?OnIdle@CWinApp@@UAEHJ@Z:PROC			; CWinApp::OnIdle
EXTRN	?ProcessWndProcException@CWinApp@@UAEJPAVCException@@PBUtagMSG@@@Z:PROC ; CWinApp::ProcessWndProcException
EXTRN	?LoadAppLangResourceDLL@CWinApp@@UAEPAUHINSTANCE__@@XZ:PROC ; CWinApp::LoadAppLangResourceDLL
EXTRN	??1CWinApp@@UAE@XZ:PROC				; CWinApp::~CWinApp
EXTRN	?AssertValid@CWinApp@@UBEXXZ:PROC		; CWinApp::AssertValid
EXTRN	?Dump@CWinApp@@UBEXAAVCDumpContext@@@Z:PROC	; CWinApp::Dump
EXTRN	?LoadSysPolicies@CWinApp@@UAEHXZ:PROC		; CWinApp::LoadSysPolicies
EXTRN	?AfxEnableControlContainer@@YAXPAVCOccManager@@@Z:PROC ; AfxEnableControlContainer
EXTRN	??_ECChatServerApp@@UAEPAXI@Z:PROC		; CChatServerApp::`vector deleting destructor'
EXTRN	??0CChatServerDlg@@QAE@XZ:PROC			; CChatServerDlg::CChatServerDlg
EXTRN	??1CChatServerDlg@@UAE@XZ:PROC			; CChatServerDlg::~CChatServerDlg
EXTRN	@__security_check_cookie@4:PROC
EXTRN	___CxxFrameHandler3:PROC
EXTRN	__chkstk:PROC
EXTRN	??_7type_info@@6B@:QWORD			; type_info::`vftable'
EXTRN	___security_cookie:DWORD
_BSS	SEGMENT
?theApp@@3VCChatServerApp@@A DB 0ccH DUP (?)		; theApp
_BSS	ENDS
CRT$XCU	SEGMENT
?theApp$initializer$@@3P6AXXZA DD FLAT:??__EtheApp@@YAXXZ ; theApp$initializer$
CRT$XCU	ENDS
;	COMDAT ??_R2CWinThread@@8
rdata$r	SEGMENT
??_R2CWinThread@@8 DD FLAT:??_R1A@?0A@EA@CWinThread@@8	; CWinThread::`RTTI Base Class Array'
	DD	FLAT:??_R1A@?0A@EA@CCmdTarget@@8
	DD	FLAT:??_R1A@?0A@EA@CObject@@8
rdata$r	ENDS
;	COMDAT ??_R3CWinThread@@8
rdata$r	SEGMENT
??_R3CWinThread@@8 DD 00H				; CWinThread::`RTTI Class Hierarchy Descriptor'
	DD	00H
	DD	03H
	DD	FLAT:??_R2CWinThread@@8
rdata$r	ENDS
;	COMDAT ??_R0?AVCWinThread@@@8
data$r	SEGMENT
??_R0?AVCWinThread@@@8 DD FLAT:??_7type_info@@6B@	; CWinThread `RTTI Type Descriptor'
	DD	00H
	DB	'.?AVCWinThread@@', 00H
data$r	ENDS
;	COMDAT ??_R1A@?0A@EA@CWinThread@@8
rdata$r	SEGMENT
??_R1A@?0A@EA@CWinThread@@8 DD FLAT:??_R0?AVCWinThread@@@8 ; CWinThread::`RTTI Base Class Descriptor at (0,-1,0,64)'
	DD	02H
	DD	00H
	DD	0ffffffffH
	DD	00H
	DD	040H
	DD	FLAT:??_R3CWinThread@@8
rdata$r	ENDS
;	COMDAT ??_R2CWinApp@@8
rdata$r	SEGMENT
??_R2CWinApp@@8 DD FLAT:??_R1A@?0A@EA@CWinApp@@8	; CWinApp::`RTTI Base Class Array'
	DD	FLAT:??_R1A@?0A@EA@CWinThread@@8
	DD	FLAT:??_R1A@?0A@EA@CCmdTarget@@8
	DD	FLAT:??_R1A@?0A@EA@CObject@@8
rdata$r	ENDS
;	COMDAT ??_R3CWinApp@@8
rdata$r	SEGMENT
??_R3CWinApp@@8 DD 00H					; CWinApp::`RTTI Class Hierarchy Descriptor'
	DD	00H
	DD	04H
	DD	FLAT:??_R2CWinApp@@8
rdata$r	ENDS
;	COMDAT ??_R0?AVCWinApp@@@8
data$r	SEGMENT
??_R0?AVCWinApp@@@8 DD FLAT:??_7type_info@@6B@		; CWinApp `RTTI Type Descriptor'
	DD	00H
	DB	'.?AVCWinApp@@', 00H
data$r	ENDS
;	COMDAT ??_R1A@?0A@EA@CWinApp@@8
rdata$r	SEGMENT
??_R1A@?0A@EA@CWinApp@@8 DD FLAT:??_R0?AVCWinApp@@@8	; CWinApp::`RTTI Base Class Descriptor at (0,-1,0,64)'
	DD	03H
	DD	00H
	DD	0ffffffffH
	DD	00H
	DD	040H
	DD	FLAT:??_R3CWinApp@@8
rdata$r	ENDS
;	COMDAT ??_R1A@?0A@EA@CChatServerApp@@8
rdata$r	SEGMENT
??_R1A@?0A@EA@CChatServerApp@@8 DD FLAT:??_R0?AVCChatServerApp@@@8 ; CChatServerApp::`RTTI Base Class Descriptor at (0,-1,0,64)'
	DD	04H
	DD	00H
	DD	0ffffffffH
	DD	00H
	DD	040H
	DD	FLAT:??_R3CChatServerApp@@8
rdata$r	ENDS
;	COMDAT ??_R2CChatServerApp@@8
rdata$r	SEGMENT
??_R2CChatServerApp@@8 DD FLAT:??_R1A@?0A@EA@CChatServerApp@@8 ; CChatServerApp::`RTTI Base Class Array'
	DD	FLAT:??_R1A@?0A@EA@CWinApp@@8
	DD	FLAT:??_R1A@?0A@EA@CWinThread@@8
	DD	FLAT:??_R1A@?0A@EA@CCmdTarget@@8
	DD	FLAT:??_R1A@?0A@EA@CObject@@8
rdata$r	ENDS
;	COMDAT ??_R3CChatServerApp@@8
rdata$r	SEGMENT
??_R3CChatServerApp@@8 DD 00H				; CChatServerApp::`RTTI Class Hierarchy Descriptor'
	DD	00H
	DD	05H
	DD	FLAT:??_R2CChatServerApp@@8
rdata$r	ENDS
;	COMDAT ??_R0?AVCChatServerApp@@@8
data$r	SEGMENT
??_R0?AVCChatServerApp@@@8 DD FLAT:??_7type_info@@6B@	; CChatServerApp `RTTI Type Descriptor'
	DD	00H
	DB	'.?AVCChatServerApp@@', 00H
data$r	ENDS
;	COMDAT ??_R4CChatServerApp@@6B@
rdata$r	SEGMENT
??_R4CChatServerApp@@6B@ DD 00H				; CChatServerApp::`RTTI Complete Object Locator'
	DD	00H
	DD	00H
	DD	FLAT:??_R0?AVCChatServerApp@@@8
	DD	FLAT:??_R3CChatServerApp@@8
rdata$r	ENDS
;	COMDAT ??_7CChatServerApp@@6B@
CONST	SEGMENT
??_7CChatServerApp@@6B@ DD FLAT:??_R4CChatServerApp@@6B@ ; CChatServerApp::`vftable'
	DD	FLAT:?GetRuntimeClass@CWinApp@@UBEPAUCRuntimeClass@@XZ
	DD	FLAT:??_ECChatServerApp@@UAEPAXI@Z
	DD	FLAT:?Serialize@CObject@@UAEXAAVCArchive@@@Z
	DD	FLAT:?AssertValid@CWinApp@@UBEXXZ
	DD	FLAT:?Dump@CWinApp@@UBEXAAVCDumpContext@@@Z
	DD	FLAT:?OnCmdMsg@CCmdTarget@@UAEHIHPAXPAUAFX_CMDHANDLERINFO@@@Z
	DD	FLAT:?OnFinalRelease@CCmdTarget@@UAEXXZ
	DD	FLAT:?IsInvokeAllowed@CCmdTarget@@UAEHJ@Z
	DD	FLAT:?GetDispatchIID@CCmdTarget@@UAEHPAU_GUID@@@Z
	DD	FLAT:?GetTypeInfoCount@CCmdTarget@@UAEIXZ
	DD	FLAT:?GetTypeLibCache@CCmdTarget@@UAEPAVCTypeLibCache@@XZ
	DD	FLAT:?GetTypeLib@CCmdTarget@@UAEJKPAPAUITypeLib@@@Z
	DD	FLAT:?GetMessageMap@CChatServerApp@@MBEPBUAFX_MSGMAP@@XZ
	DD	FLAT:?GetCommandMap@CCmdTarget@@MBEPBUAFX_OLECMDMAP@@XZ
	DD	FLAT:?GetDispatchMap@CCmdTarget@@MBEPBUAFX_DISPMAP@@XZ
	DD	FLAT:?GetConnectionMap@CCmdTarget@@MBEPBUAFX_CONNECTIONMAP@@XZ
	DD	FLAT:?GetInterfaceMap@CCmdTarget@@MBEPBUAFX_INTERFACEMAP@@XZ
	DD	FLAT:?GetEventSinkMap@CCmdTarget@@MBEPBUAFX_EVENTSINKMAP@@XZ
	DD	FLAT:?OnCreateAggregates@CCmdTarget@@UAEHXZ
	DD	FLAT:?GetInterfaceHook@CCmdTarget@@UAEPAUIUnknown@@PBX@Z
	DD	FLAT:?GetExtraConnectionPoints@CCmdTarget@@MAEHPAVCPtrArray@@@Z
	DD	FLAT:?GetConnectionHook@CCmdTarget@@MAEPAUIConnectionPoint@@ABU_GUID@@@Z
	DD	FLAT:?InitInstance@CChatServerApp@@UAEHXZ
	DD	FLAT:?Run@CWinApp@@UAEHXZ
	DD	FLAT:?PreTranslateMessage@CWinThread@@UAEHPAUtagMSG@@@Z
	DD	FLAT:?PumpMessage@CWinThread@@UAEHXZ
	DD	FLAT:?OnIdle@CWinApp@@UAEHJ@Z
	DD	FLAT:?IsIdleMessage@CWinThread@@UAEHPAUtagMSG@@@Z
	DD	FLAT:?ExitInstance@CWinApp@@UAEHXZ
	DD	FLAT:?ProcessWndProcException@CWinApp@@UAEJPAVCException@@PBUtagMSG@@@Z
	DD	FLAT:?ProcessMessageFilter@CWinThread@@UAEHHPAUtagMSG@@@Z
	DD	FLAT:?GetMainWnd@CWinThread@@UAEPAVCWnd@@XZ
	DD	FLAT:?Delete@CWinThread@@UAEXXZ
	DD	FLAT:?GetProfileIntA@CWinApp@@UAEIPBD0H@Z
	DD	FLAT:?WriteProfileInt@CWinApp@@UAEHPBD0H@Z
	DD	FLAT:?GetProfileStringA@CWinApp@@UAE?AV?$CStringT@DV?$StrTraitMFC_DLL@DV?$ChTraitsCRT@D@ATL@@@@@ATL@@PBD00@Z
	DD	FLAT:?WriteProfileStringA@CWinApp@@UAEHPBD00@Z
	DD	FLAT:?GetProfileBinary@CWinApp@@UAEHPBD0PAPAEPAI@Z
	DD	FLAT:?WriteProfileBinary@CWinApp@@UAEHPBD0PAEI@Z
	DD	FLAT:?InitLibId@CWinApp@@UAEXXZ
	DD	FLAT:?Register@CWinApp@@UAEHXZ
	DD	FLAT:?Unregister@CWinApp@@UAEHXZ
	DD	FLAT:?OpenDocumentFile@CWinApp@@UAEPAVCDocument@@PBDH@Z
	DD	FLAT:?OpenDocumentFile@CWinApp@@UAEPAVCDocument@@PBD@Z
	DD	FLAT:?AddToRecentFileList@CWinApp@@UAEXPBD@Z
	DD	FLAT:?InitApplication@CWinApp@@UAEHXZ
	DD	FLAT:?SaveAllModified@CWinApp@@UAEHXZ
	DD	FLAT:?DoMessageBox@CWinApp@@UAEHPBDII@Z
	DD	FLAT:?DoWaitCursor@CWinApp@@UAEXH@Z
	DD	FLAT:?OnDDECommand@CWinApp@@UAEHPAD@Z
	DD	FLAT:?WinHelpA@CWinApp@@UAEXKI@Z
	DD	FLAT:?HtmlHelpA@CWinApp@@UAEXKI@Z
	DD	FLAT:?WinHelpInternal@CWinApp@@UAEXKI@Z
	DD	FLAT:?RegisterWithRestartManager@CWinApp@@UAEJPB_WKP6GKPAX@Z1KK@Z
	DD	FLAT:?RegisterWithRestartManager@CWinApp@@UAEJHABV?$CStringT@DV?$StrTraitMFC_DLL@DV?$ChTraitsCRT@D@ATL@@@@@ATL@@@Z
	DD	FLAT:?ApplicationRecoveryCallback@CWinApp@@UAEKPAX@Z
	DD	FLAT:?SupportsRestartManager@CWinApp@@UBEHXZ
	DD	FLAT:?SupportsApplicationRecovery@CWinApp@@UBEHXZ
	DD	FLAT:?SupportsAutosaveAtRestart@CWinApp@@UBEHXZ
	DD	FLAT:?SupportsAutosaveAtInterval@CWinApp@@UBEHXZ
	DD	FLAT:?ReopenPreviousFilesAtRestart@CWinApp@@UBEHXZ
	DD	FLAT:?RestoreAutosavedFilesAtRestart@CWinApp@@UBEHXZ
	DD	FLAT:?GetApplicationRestartFlags@CWinApp@@UAEKXZ
	DD	FLAT:?GetApplicationRecoveryParameter@CWinApp@@UAEPAXXZ
	DD	FLAT:?GetApplicationRecoveryPingInterval@CWinApp@@UAEKXZ
	DD	FLAT:?GetDataRecoveryHandler@CWinApp@@UAEPAVCDataRecoveryHandler@@XZ
	DD	FLAT:?IsTaskbarInteractionEnabled@CWinApp@@UAEHXZ
	DD	FLAT:?RestartInstance@CWinApp@@UAEHXZ
	DD	FLAT:?LoadAppLangResourceDLL@CWinApp@@UAEPAUHINSTANCE__@@XZ
	DD	FLAT:?LoadSysPolicies@CWinApp@@UAEHXZ
CONST	ENDS
;	COMDAT ??_R2CCmdTarget@@8
rdata$r	SEGMENT
??_R2CCmdTarget@@8 DD FLAT:??_R1A@?0A@EA@CCmdTarget@@8	; CCmdTarget::`RTTI Base Class Array'
	DD	FLAT:??_R1A@?0A@EA@CObject@@8
rdata$r	ENDS
;	COMDAT ??_R3CCmdTarget@@8
rdata$r	SEGMENT
??_R3CCmdTarget@@8 DD 00H				; CCmdTarget::`RTTI Class Hierarchy Descriptor'
	DD	00H
	DD	02H
	DD	FLAT:??_R2CCmdTarget@@8
rdata$r	ENDS
;	COMDAT ??_R0?AVCCmdTarget@@@8
data$r	SEGMENT
??_R0?AVCCmdTarget@@@8 DD FLAT:??_7type_info@@6B@	; CCmdTarget `RTTI Type Descriptor'
	DD	00H
	DB	'.?AVCCmdTarget@@', 00H
data$r	ENDS
;	COMDAT ??_R1A@?0A@EA@CCmdTarget@@8
rdata$r	SEGMENT
??_R1A@?0A@EA@CCmdTarget@@8 DD FLAT:??_R0?AVCCmdTarget@@@8 ; CCmdTarget::`RTTI Base Class Descriptor at (0,-1,0,64)'
	DD	01H
	DD	00H
	DD	0ffffffffH
	DD	00H
	DD	040H
	DD	FLAT:??_R3CCmdTarget@@8
rdata$r	ENDS
;	COMDAT ??_R2CObject@@8
rdata$r	SEGMENT
??_R2CObject@@8 DD FLAT:??_R1A@?0A@EA@CObject@@8	; CObject::`RTTI Base Class Array'
rdata$r	ENDS
;	COMDAT ??_R3CObject@@8
rdata$r	SEGMENT
??_R3CObject@@8 DD 00H					; CObject::`RTTI Class Hierarchy Descriptor'
	DD	00H
	DD	01H
	DD	FLAT:??_R2CObject@@8
rdata$r	ENDS
;	COMDAT ??_R0?AVCObject@@@8
data$r	SEGMENT
??_R0?AVCObject@@@8 DD FLAT:??_7type_info@@6B@		; CObject `RTTI Type Descriptor'
	DD	00H
	DB	'.?AVCObject@@', 00H
data$r	ENDS
;	COMDAT ??_R1A@?0A@EA@CObject@@8
rdata$r	SEGMENT
??_R1A@?0A@EA@CObject@@8 DD FLAT:??_R0?AVCObject@@@8	; CObject::`RTTI Base Class Descriptor at (0,-1,0,64)'
	DD	00H
	DD	00H
	DD	0ffffffffH
	DD	00H
	DD	040H
	DD	FLAT:??_R3CObject@@8
rdata$r	ENDS
;	COMDAT xdata$x
xdata$x	SEGMENT
__unwindtable$?InitInstance@CChatServerApp@@UAEHXZ DD 0ffffffffH
	DD	FLAT:__unwindfunclet$?InitInstance@CChatServerApp@@UAEHXZ$0
__ehfuncinfo$?InitInstance@CChatServerApp@@UAEHXZ DD 019930522H
	DD	01H
	DD	FLAT:__unwindtable$?InitInstance@CChatServerApp@@UAEHXZ
	DD	2 DUP(00H)
	DD	2 DUP(00H)
	DD	00H
	DD	01H
xdata$x	ENDS
; Function compile flags: /Odtp /ZI
;	COMDAT ??__FtheApp@@YAXXZ
text$yd	SEGMENT
??__FtheApp@@YAXXZ PROC					; `dynamic atexit destructor for 'theApp'', COMDAT
  00000	55		 push	 ebp
  00001	8b ec		 mov	 ebp, esp
  00003	83 ec 40	 sub	 esp, 64			; 00000040H
  00006	53		 push	 ebx
  00007	56		 push	 esi
  00008	57		 push	 edi
  00009	b9 00 00 00 00	 mov	 ecx, OFFSET ?theApp@@3VCChatServerApp@@A ; theApp
  0000e	e8 00 00 00 00	 call	 ??1CChatServerApp@@UAE@XZ
  00013	5f		 pop	 edi
  00014	5e		 pop	 esi
  00015	5b		 pop	 ebx
  00016	8b e5		 mov	 esp, ebp
  00018	5d		 pop	 ebp
  00019	c3		 ret	 0
??__FtheApp@@YAXXZ ENDP					; `dynamic atexit destructor for 'theApp''
text$yd	ENDS
; Function compile flags: /Odtp /ZI
; File g:\网狐\happygamewh\服务端\系统模块\服务器组件\聊天服务器\chatserver.cpp
;	COMDAT ??__EtheApp@@YAXXZ
text$di	SEGMENT
??__EtheApp@@YAXXZ PROC					; `dynamic initializer for 'theApp'', COMDAT

; 8    : CChatServerApp theApp;

  00000	55		 push	 ebp
  00001	8b ec		 mov	 ebp, esp
  00003	83 ec 40	 sub	 esp, 64			; 00000040H
  00006	53		 push	 ebx
  00007	56		 push	 esi
  00008	57		 push	 edi
  00009	b9 00 00 00 00	 mov	 ecx, OFFSET ?theApp@@3VCChatServerApp@@A ; theApp
  0000e	e8 00 00 00 00	 call	 ??0CChatServerApp@@QAE@XZ ; CChatServerApp::CChatServerApp
  00013	68 00 00 00 00	 push	 OFFSET ??__FtheApp@@YAXXZ ; `dynamic atexit destructor for 'theApp''
  00018	e8 00 00 00 00	 call	 _atexit
  0001d	83 c4 04	 add	 esp, 4
  00020	5f		 pop	 edi
  00021	5e		 pop	 esi
  00022	5b		 pop	 ebx
  00023	8b e5		 mov	 esp, ebp
  00025	5d		 pop	 ebp
  00026	c3		 ret	 0
??__EtheApp@@YAXXZ ENDP					; `dynamic initializer for 'theApp''
text$di	ENDS
; Function compile flags: /Odtp /ZI
;	COMDAT ??_GCChatServerApp@@UAEPAXI@Z
_TEXT	SEGMENT
_this$ = -4						; size = 4
___flags$ = 8						; size = 4
??_GCChatServerApp@@UAEPAXI@Z PROC			; CChatServerApp::`scalar deleting destructor', COMDAT
; _this$ = ecx
  00000	55		 push	 ebp
  00001	8b ec		 mov	 ebp, esp
  00003	83 ec 44	 sub	 esp, 68			; 00000044H
  00006	53		 push	 ebx
  00007	56		 push	 esi
  00008	57		 push	 edi
  00009	89 4d fc	 mov	 DWORD PTR _this$[ebp], ecx
  0000c	8b 4d fc	 mov	 ecx, DWORD PTR _this$[ebp]
  0000f	e8 00 00 00 00	 call	 ??1CChatServerApp@@UAE@XZ
  00014	8b 45 08	 mov	 eax, DWORD PTR ___flags$[ebp]
  00017	83 e0 01	 and	 eax, 1
  0001a	74 24		 je	 SHORT $LN2@scalar
  0001c	8b 45 08	 mov	 eax, DWORD PTR ___flags$[ebp]
  0001f	83 e0 04	 and	 eax, 4
  00022	75 0b		 jne	 SHORT $LN3@scalar
  00024	8b 45 fc	 mov	 eax, DWORD PTR _this$[ebp]
  00027	50		 push	 eax
  00028	e8 00 00 00 00	 call	 ??3CObject@@SGXPAX@Z	; CObject::operator delete
  0002d	eb 11		 jmp	 SHORT $LN2@scalar
$LN3@scalar:
  0002f	68 cc 00 00 00	 push	 204			; 000000ccH
  00034	8b 45 fc	 mov	 eax, DWORD PTR _this$[ebp]
  00037	50		 push	 eax
  00038	e8 00 00 00 00	 call	 ?__global_delete@@YAXPAXI@Z ; __global_delete
  0003d	83 c4 08	 add	 esp, 8
$LN2@scalar:
  00040	8b 45 fc	 mov	 eax, DWORD PTR _this$[ebp]
  00043	5f		 pop	 edi
  00044	5e		 pop	 esi
  00045	5b		 pop	 ebx
  00046	8b e5		 mov	 esp, ebp
  00048	5d		 pop	 ebp
  00049	c2 04 00	 ret	 4
??_GCChatServerApp@@UAEPAXI@Z ENDP			; CChatServerApp::`scalar deleting destructor'
_TEXT	ENDS
; Function compile flags: /Odtp /ZI
;	COMDAT ??1CChatServerApp@@UAE@XZ
_TEXT	SEGMENT
_this$ = -4						; size = 4
??1CChatServerApp@@UAE@XZ PROC				; CChatServerApp::~CChatServerApp, COMDAT
; _this$ = ecx
  00000	55		 push	 ebp
  00001	8b ec		 mov	 ebp, esp
  00003	83 ec 44	 sub	 esp, 68			; 00000044H
  00006	53		 push	 ebx
  00007	56		 push	 esi
  00008	57		 push	 edi
  00009	89 4d fc	 mov	 DWORD PTR _this$[ebp], ecx
  0000c	8b 4d fc	 mov	 ecx, DWORD PTR _this$[ebp]
  0000f	e8 00 00 00 00	 call	 ??1CWinApp@@UAE@XZ	; CWinApp::~CWinApp
  00014	5f		 pop	 edi
  00015	5e		 pop	 esi
  00016	5b		 pop	 ebx
  00017	8b e5		 mov	 esp, ebp
  00019	5d		 pop	 ebp
  0001a	c3		 ret	 0
??1CChatServerApp@@UAE@XZ ENDP				; CChatServerApp::~CChatServerApp
_TEXT	ENDS
; Function compile flags: /Odtp /ZI
; File g:\网狐\happygamewh\服务端\系统模块\服务器组件\聊天服务器\chatserver.cpp
;	COMDAT ?GetMessageMap@CChatServerApp@@MBEPBUAFX_MSGMAP@@XZ
_TEXT	SEGMENT
_this$ = -4						; size = 4
?GetMessageMap@CChatServerApp@@MBEPBUAFX_MSGMAP@@XZ PROC ; CChatServerApp::GetMessageMap, COMDAT
; _this$ = ecx

; 12   : BEGIN_MESSAGE_MAP(CChatServerApp, CWinApp)

  00000	55		 push	 ebp
  00001	8b ec		 mov	 ebp, esp
  00003	83 ec 44	 sub	 esp, 68			; 00000044H
  00006	53		 push	 ebx
  00007	56		 push	 esi
  00008	57		 push	 edi
  00009	89 4d fc	 mov	 DWORD PTR _this$[ebp], ecx
  0000c	e8 00 00 00 00	 call	 ?GetThisMessageMap@CChatServerApp@@KGPBUAFX_MSGMAP@@XZ ; CChatServerApp::GetThisMessageMap
  00011	5f		 pop	 edi
  00012	5e		 pop	 esi
  00013	5b		 pop	 ebx
  00014	8b e5		 mov	 esp, ebp
  00016	5d		 pop	 ebp
  00017	c3		 ret	 0
?GetMessageMap@CChatServerApp@@MBEPBUAFX_MSGMAP@@XZ ENDP ; CChatServerApp::GetMessageMap
_TEXT	ENDS
; Function compile flags: /Odtp /ZI
; File g:\网狐\happygamewh\服务端\系统模块\服务器组件\聊天服务器\chatserver.cpp
;	COMDAT ?GetThisMessageMap@CChatServerApp@@KGPBUAFX_MSGMAP@@XZ
_TEXT	SEGMENT
?GetThisMessageMap@CChatServerApp@@KGPBUAFX_MSGMAP@@XZ PROC ; CChatServerApp::GetThisMessageMap, COMDAT

; 12   : BEGIN_MESSAGE_MAP(CChatServerApp, CWinApp)

  00000	55		 push	 ebp
  00001	8b ec		 mov	 ebp, esp
  00003	83 ec 40	 sub	 esp, 64			; 00000040H
  00006	53		 push	 ebx
  00007	56		 push	 esi
  00008	57		 push	 edi

; 13   : END_MESSAGE_MAP()

  00009	b8 00 00 00 00	 mov	 eax, OFFSET ?messageMap@?1??GetThisMessageMap@CChatServerApp@@KGPBUAFX_MSGMAP@@XZ@4U3@B
  0000e	5f		 pop	 edi
  0000f	5e		 pop	 esi
  00010	5b		 pop	 ebx
  00011	8b e5		 mov	 esp, ebp
  00013	5d		 pop	 ebp
  00014	c3		 ret	 0
?GetThisMessageMap@CChatServerApp@@KGPBUAFX_MSGMAP@@XZ ENDP ; CChatServerApp::GetThisMessageMap
_TEXT	ENDS
; Function compile flags: /Odtp /ZI
; File g:\网狐\happygamewh\服务端\系统模块\服务器组件\聊天服务器\chatserver.cpp
;	COMDAT ?InitInstance@CChatServerApp@@UAEHXZ
_TEXT	SEGMENT
$T2 = -28520						; size = 4
_ChatServerDlg$ = -28004				; size = 27984
_this$ = -20						; size = 4
__$ArrayPad$ = -16					; size = 4
__$EHRec$ = -12						; size = 12
?InitInstance@CChatServerApp@@UAEHXZ PROC		; CChatServerApp::InitInstance, COMDAT
; _this$ = ecx

; 24   : {

  00000	55		 push	 ebp
  00001	8b ec		 mov	 ebp, esp
  00003	6a ff		 push	 -1
  00005	68 00 00 00 00	 push	 __ehhandler$?InitInstance@CChatServerApp@@UAEHXZ
  0000a	64 a1 00 00 00
	00		 mov	 eax, DWORD PTR fs:0
  00010	50		 push	 eax
  00011	b8 5c 6f 00 00	 mov	 eax, 28508		; 00006f5cH
  00016	e8 00 00 00 00	 call	 __chkstk
  0001b	a1 00 00 00 00	 mov	 eax, DWORD PTR ___security_cookie
  00020	33 c5		 xor	 eax, ebp
  00022	89 45 f0	 mov	 DWORD PTR __$ArrayPad$[ebp], eax
  00025	53		 push	 ebx
  00026	56		 push	 esi
  00027	57		 push	 edi
  00028	50		 push	 eax
  00029	8d 45 f4	 lea	 eax, DWORD PTR __$EHRec$[ebp]
  0002c	64 a3 00 00 00
	00		 mov	 DWORD PTR fs:0, eax
  00032	89 4d ec	 mov	 DWORD PTR _this$[ebp], ecx

; 25   : 	__super::InitInstance();

  00035	8b 4d ec	 mov	 ecx, DWORD PTR _this$[ebp]
  00038	e8 00 00 00 00	 call	 ?InitInstance@CWinApp@@UAEHXZ ; CWinApp::InitInstance

; 26   : 
; 27   : 	//设置组件
; 28   : 	AfxInitRichEdit2();

  0003d	e8 00 00 00 00	 call	 ?AfxInitRichEdit2@@YGHXZ ; AfxInitRichEdit2

; 29   : 	InitCommonControls();

  00042	ff 15 00 00 00
	00		 call	 DWORD PTR __imp__InitCommonControls@0

; 30   : 	AfxEnableControlContainer();

  00048	6a 00		 push	 0
  0004a	e8 00 00 00 00	 call	 ?AfxEnableControlContainer@@YAXPAVCOccManager@@@Z ; AfxEnableControlContainer
  0004f	83 c4 04	 add	 esp, 4

; 31   : 
; 32   : 	//设置注册表
; 33   : 	SetRegistryKey(szProduct);

  00052	68 00 00 00 00	 push	 OFFSET ?szProduct@@3QBDB
  00057	8b 4d ec	 mov	 ecx, DWORD PTR _this$[ebp]
  0005a	e8 00 00 00 00	 call	 ?SetRegistryKey@CWinApp@@IAEXPBD@Z ; CWinApp::SetRegistryKey

; 34   : 
; 35   : 	//显示窗口
; 36   : 	CChatServerDlg ChatServerDlg;

  0005f	8d 8d 9c 92 ff
	ff		 lea	 ecx, DWORD PTR _ChatServerDlg$[ebp]
  00065	e8 00 00 00 00	 call	 ??0CChatServerDlg@@QAE@XZ ; CChatServerDlg::CChatServerDlg
  0006a	c7 45 fc 00 00
	00 00		 mov	 DWORD PTR __$EHRec$[ebp+8], 0

; 37   : 	m_pMainWnd=&ChatServerDlg;

  00071	8b 45 ec	 mov	 eax, DWORD PTR _this$[ebp]
  00074	8d 8d 9c 92 ff
	ff		 lea	 ecx, DWORD PTR _ChatServerDlg$[ebp]
  0007a	89 48 20	 mov	 DWORD PTR [eax+32], ecx

; 38   : 	ChatServerDlg.DoModal();

  0007d	8d 8d 9c 92 ff
	ff		 lea	 ecx, DWORD PTR _ChatServerDlg$[ebp]
  00083	e8 00 00 00 00	 call	 ?DoModal@CDialog@@UAEHXZ ; CDialog::DoModal

; 39   : 
; 40   : 	return FALSE;

  00088	c7 85 98 90 ff
	ff 00 00 00 00	 mov	 DWORD PTR $T2[ebp], 0
  00092	c7 45 fc ff ff
	ff ff		 mov	 DWORD PTR __$EHRec$[ebp+8], -1
  00099	8d 8d 9c 92 ff
	ff		 lea	 ecx, DWORD PTR _ChatServerDlg$[ebp]
  0009f	e8 00 00 00 00	 call	 ??1CChatServerDlg@@UAE@XZ ; CChatServerDlg::~CChatServerDlg
  000a4	8b 85 98 90 ff
	ff		 mov	 eax, DWORD PTR $T2[ebp]

; 41   : }

  000aa	8b 4d f4	 mov	 ecx, DWORD PTR __$EHRec$[ebp]
  000ad	64 89 0d 00 00
	00 00		 mov	 DWORD PTR fs:0, ecx
  000b4	59		 pop	 ecx
  000b5	5f		 pop	 edi
  000b6	5e		 pop	 esi
  000b7	5b		 pop	 ebx
  000b8	8b 4d f0	 mov	 ecx, DWORD PTR __$ArrayPad$[ebp]
  000bb	33 cd		 xor	 ecx, ebp
  000bd	e8 00 00 00 00	 call	 @__security_check_cookie@4
  000c2	8b e5		 mov	 esp, ebp
  000c4	5d		 pop	 ebp
  000c5	c3		 ret	 0
_TEXT	ENDS
;	COMDAT text$x
text$x	SEGMENT
__unwindfunclet$?InitInstance@CChatServerApp@@UAEHXZ$0:
  00000	8d 8d 9c 92 ff
	ff		 lea	 ecx, DWORD PTR _ChatServerDlg$[ebp]
  00006	e9 00 00 00 00	 jmp	 ??1CChatServerDlg@@UAE@XZ ; CChatServerDlg::~CChatServerDlg
__ehhandler$?InitInstance@CChatServerApp@@UAEHXZ:
  0000b	8b 54 24 08	 mov	 edx, DWORD PTR [esp+8]
  0000f	8d 42 0c	 lea	 eax, DWORD PTR [edx+12]
  00012	8b 8a 94 90 ff
	ff		 mov	 ecx, DWORD PTR [edx-28524]
  00018	33 c8		 xor	 ecx, eax
  0001a	e8 00 00 00 00	 call	 @__security_check_cookie@4
  0001f	8b 4a fc	 mov	 ecx, DWORD PTR [edx-4]
  00022	33 c8		 xor	 ecx, eax
  00024	e8 00 00 00 00	 call	 @__security_check_cookie@4
  00029	b8 00 00 00 00	 mov	 eax, OFFSET __ehfuncinfo$?InitInstance@CChatServerApp@@UAEHXZ
  0002e	e9 00 00 00 00	 jmp	 ___CxxFrameHandler3
text$x	ENDS
?InitInstance@CChatServerApp@@UAEHXZ ENDP		; CChatServerApp::InitInstance
; Function compile flags: /Odtp /ZI
; File g:\网狐\happygamewh\服务端\系统模块\服务器组件\聊天服务器\chatserver.cpp
;	COMDAT ??0CChatServerApp@@QAE@XZ
_TEXT	SEGMENT
_this$ = -4						; size = 4
??0CChatServerApp@@QAE@XZ PROC				; CChatServerApp::CChatServerApp, COMDAT
; _this$ = ecx

; 19   : {

  00000	55		 push	 ebp
  00001	8b ec		 mov	 ebp, esp
  00003	83 ec 44	 sub	 esp, 68			; 00000044H
  00006	53		 push	 ebx
  00007	56		 push	 esi
  00008	57		 push	 edi
  00009	89 4d fc	 mov	 DWORD PTR _this$[ebp], ecx
  0000c	6a 00		 push	 0
  0000e	8b 4d fc	 mov	 ecx, DWORD PTR _this$[ebp]
  00011	e8 00 00 00 00	 call	 ??0CWinApp@@QAE@PBD@Z	; CWinApp::CWinApp
  00016	8b 45 fc	 mov	 eax, DWORD PTR _this$[ebp]
  00019	c7 00 00 00 00
	00		 mov	 DWORD PTR [eax], OFFSET ??_7CChatServerApp@@6B@

; 20   : }

  0001f	8b 45 fc	 mov	 eax, DWORD PTR _this$[ebp]
  00022	5f		 pop	 edi
  00023	5e		 pop	 esi
  00024	5b		 pop	 ebx
  00025	8b e5		 mov	 esp, ebp
  00027	5d		 pop	 ebp
  00028	c3		 ret	 0
??0CChatServerApp@@QAE@XZ ENDP				; CChatServerApp::CChatServerApp
_TEXT	ENDS
; Function compile flags: /Odtp /ZI
; File c:\program files (x86)\microsoft visual studio\2017\community\vc\tools\msvc\14.16.27023\atlmfc\include\afxwin.h
;	COMDAT ?GetApplicationRecoveryPingInterval@CWinApp@@UAEKXZ
_TEXT	SEGMENT
_this$ = -4						; size = 4
?GetApplicationRecoveryPingInterval@CWinApp@@UAEKXZ PROC ; CWinApp::GetApplicationRecoveryPingInterval, COMDAT
; _this$ = ecx

; 5370 : 	virtual DWORD GetApplicationRecoveryPingInterval() { return RECOVERY_DEFAULT_PING_INTERVAL; }  // Ping interval for RegisterApplicationRecoveryCallback

  00000	55		 push	 ebp
  00001	8b ec		 mov	 ebp, esp
  00003	83 ec 44	 sub	 esp, 68			; 00000044H
  00006	53		 push	 ebx
  00007	56		 push	 esi
  00008	57		 push	 edi
  00009	89 4d fc	 mov	 DWORD PTR _this$[ebp], ecx
  0000c	b8 88 13 00 00	 mov	 eax, 5000		; 00001388H
  00011	5f		 pop	 edi
  00012	5e		 pop	 esi
  00013	5b		 pop	 ebx
  00014	8b e5		 mov	 esp, ebp
  00016	5d		 pop	 ebp
  00017	c3		 ret	 0
?GetApplicationRecoveryPingInterval@CWinApp@@UAEKXZ ENDP ; CWinApp::GetApplicationRecoveryPingInterval
_TEXT	ENDS
; Function compile flags: /Odtp /ZI
; File c:\program files (x86)\microsoft visual studio\2017\community\vc\tools\msvc\14.16.27023\atlmfc\include\afxwin.h
;	COMDAT ?GetApplicationRecoveryParameter@CWinApp@@UAEPAXXZ
_TEXT	SEGMENT
_this$ = -4						; size = 4
?GetApplicationRecoveryParameter@CWinApp@@UAEPAXXZ PROC	; CWinApp::GetApplicationRecoveryParameter, COMDAT
; _this$ = ecx

; 5369 : 	virtual LPVOID GetApplicationRecoveryParameter() { return NULL; }  // Parameter to be passed along to RegisterApplicationRecoveryCallback

  00000	55		 push	 ebp
  00001	8b ec		 mov	 ebp, esp
  00003	83 ec 44	 sub	 esp, 68			; 00000044H
  00006	53		 push	 ebx
  00007	56		 push	 esi
  00008	57		 push	 edi
  00009	89 4d fc	 mov	 DWORD PTR _this$[ebp], ecx
  0000c	33 c0		 xor	 eax, eax
  0000e	5f		 pop	 edi
  0000f	5e		 pop	 esi
  00010	5b		 pop	 ebx
  00011	8b e5		 mov	 esp, ebp
  00013	5d		 pop	 ebp
  00014	c3		 ret	 0
?GetApplicationRecoveryParameter@CWinApp@@UAEPAXXZ ENDP	; CWinApp::GetApplicationRecoveryParameter
_TEXT	ENDS
; Function compile flags: /Odtp /ZI
; File c:\program files (x86)\microsoft visual studio\2017\community\vc\tools\msvc\14.16.27023\atlmfc\include\afxwin.h
;	COMDAT ?GetApplicationRestartFlags@CWinApp@@UAEKXZ
_TEXT	SEGMENT
_this$ = -4						; size = 4
?GetApplicationRestartFlags@CWinApp@@UAEKXZ PROC	; CWinApp::GetApplicationRestartFlags, COMDAT
; _this$ = ecx

; 5368 : 	virtual DWORD GetApplicationRestartFlags() { return 0; }  // Flags for RegisterApplicationRestart: default is none of RESTART_NO_CRASH/RESTART_NO_HANG/RESTART_NO_PATCH/RESTART_NO_REBOOT

  00000	55		 push	 ebp
  00001	8b ec		 mov	 ebp, esp
  00003	83 ec 44	 sub	 esp, 68			; 00000044H
  00006	53		 push	 ebx
  00007	56		 push	 esi
  00008	57		 push	 edi
  00009	89 4d fc	 mov	 DWORD PTR _this$[ebp], ecx
  0000c	33 c0		 xor	 eax, eax
  0000e	5f		 pop	 edi
  0000f	5e		 pop	 esi
  00010	5b		 pop	 ebx
  00011	8b e5		 mov	 esp, ebp
  00013	5d		 pop	 ebp
  00014	c3		 ret	 0
?GetApplicationRestartFlags@CWinApp@@UAEKXZ ENDP	; CWinApp::GetApplicationRestartFlags
_TEXT	ENDS
; Function compile flags: /Odtp /ZI
; File c:\program files (x86)\microsoft visual studio\2017\community\vc\tools\msvc\14.16.27023\atlmfc\include\afxwin.h
;	COMDAT ?RestoreAutosavedFilesAtRestart@CWinApp@@UBEHXZ
_TEXT	SEGMENT
_this$ = -4						; size = 4
?RestoreAutosavedFilesAtRestart@CWinApp@@UBEHXZ PROC	; CWinApp::RestoreAutosavedFilesAtRestart, COMDAT
; _this$ = ecx

; 5366 : 	virtual BOOL RestoreAutosavedFilesAtRestart() const { return m_dwRestartManagerSupportFlags & AFX_RESTART_MANAGER_RESTORE_AUTOSAVED_FILES; }

  00000	55		 push	 ebp
  00001	8b ec		 mov	 ebp, esp
  00003	83 ec 44	 sub	 esp, 68			; 00000044H
  00006	53		 push	 ebx
  00007	56		 push	 esi
  00008	57		 push	 edi
  00009	89 4d fc	 mov	 DWORD PTR _this$[ebp], ecx
  0000c	8b 45 fc	 mov	 eax, DWORD PTR _this$[ebp]
  0000f	8b 80 ac 00 00
	00		 mov	 eax, DWORD PTR [eax+172]
  00015	83 e0 20	 and	 eax, 32			; 00000020H
  00018	5f		 pop	 edi
  00019	5e		 pop	 esi
  0001a	5b		 pop	 ebx
  0001b	8b e5		 mov	 esp, ebp
  0001d	5d		 pop	 ebp
  0001e	c3		 ret	 0
?RestoreAutosavedFilesAtRestart@CWinApp@@UBEHXZ ENDP	; CWinApp::RestoreAutosavedFilesAtRestart
_TEXT	ENDS
; Function compile flags: /Odtp /ZI
; File c:\program files (x86)\microsoft visual studio\2017\community\vc\tools\msvc\14.16.27023\atlmfc\include\afxwin.h
;	COMDAT ?ReopenPreviousFilesAtRestart@CWinApp@@UBEHXZ
_TEXT	SEGMENT
_this$ = -4						; size = 4
?ReopenPreviousFilesAtRestart@CWinApp@@UBEHXZ PROC	; CWinApp::ReopenPreviousFilesAtRestart, COMDAT
; _this$ = ecx

; 5365 : 	virtual BOOL ReopenPreviousFilesAtRestart() const { return m_dwRestartManagerSupportFlags & AFX_RESTART_MANAGER_REOPEN_PREVIOUS_FILES; }

  00000	55		 push	 ebp
  00001	8b ec		 mov	 ebp, esp
  00003	83 ec 44	 sub	 esp, 68			; 00000044H
  00006	53		 push	 ebx
  00007	56		 push	 esi
  00008	57		 push	 edi
  00009	89 4d fc	 mov	 DWORD PTR _this$[ebp], ecx
  0000c	8b 45 fc	 mov	 eax, DWORD PTR _this$[ebp]
  0000f	8b 80 ac 00 00
	00		 mov	 eax, DWORD PTR [eax+172]
  00015	83 e0 10	 and	 eax, 16			; 00000010H
  00018	5f		 pop	 edi
  00019	5e		 pop	 esi
  0001a	5b		 pop	 ebx
  0001b	8b e5		 mov	 esp, ebp
  0001d	5d		 pop	 ebp
  0001e	c3		 ret	 0
?ReopenPreviousFilesAtRestart@CWinApp@@UBEHXZ ENDP	; CWinApp::ReopenPreviousFilesAtRestart
_TEXT	ENDS
; Function compile flags: /Odtp /ZI
; File c:\program files (x86)\microsoft visual studio\2017\community\vc\tools\msvc\14.16.27023\atlmfc\include\afxwin.h
;	COMDAT ?SupportsAutosaveAtInterval@CWinApp@@UBEHXZ
_TEXT	SEGMENT
_this$ = -4						; size = 4
?SupportsAutosaveAtInterval@CWinApp@@UBEHXZ PROC	; CWinApp::SupportsAutosaveAtInterval, COMDAT
; _this$ = ecx

; 5364 : 	virtual BOOL SupportsAutosaveAtInterval() const { return m_dwRestartManagerSupportFlags & AFX_RESTART_MANAGER_AUTOSAVE_AT_INTERVAL; }

  00000	55		 push	 ebp
  00001	8b ec		 mov	 ebp, esp
  00003	83 ec 44	 sub	 esp, 68			; 00000044H
  00006	53		 push	 ebx
  00007	56		 push	 esi
  00008	57		 push	 edi
  00009	89 4d fc	 mov	 DWORD PTR _this$[ebp], ecx
  0000c	8b 45 fc	 mov	 eax, DWORD PTR _this$[ebp]
  0000f	8b 80 ac 00 00
	00		 mov	 eax, DWORD PTR [eax+172]
  00015	83 e0 08	 and	 eax, 8
  00018	5f		 pop	 edi
  00019	5e		 pop	 esi
  0001a	5b		 pop	 ebx
  0001b	8b e5		 mov	 esp, ebp
  0001d	5d		 pop	 ebp
  0001e	c3		 ret	 0
?SupportsAutosaveAtInterval@CWinApp@@UBEHXZ ENDP	; CWinApp::SupportsAutosaveAtInterval
_TEXT	ENDS
; Function compile flags: /Odtp /ZI
; File c:\program files (x86)\microsoft visual studio\2017\community\vc\tools\msvc\14.16.27023\atlmfc\include\afxwin.h
;	COMDAT ?SupportsAutosaveAtRestart@CWinApp@@UBEHXZ
_TEXT	SEGMENT
_this$ = -4						; size = 4
?SupportsAutosaveAtRestart@CWinApp@@UBEHXZ PROC		; CWinApp::SupportsAutosaveAtRestart, COMDAT
; _this$ = ecx

; 5363 : 	virtual BOOL SupportsAutosaveAtRestart() const { return m_dwRestartManagerSupportFlags & AFX_RESTART_MANAGER_AUTOSAVE_AT_RESTART; }

  00000	55		 push	 ebp
  00001	8b ec		 mov	 ebp, esp
  00003	83 ec 44	 sub	 esp, 68			; 00000044H
  00006	53		 push	 ebx
  00007	56		 push	 esi
  00008	57		 push	 edi
  00009	89 4d fc	 mov	 DWORD PTR _this$[ebp], ecx
  0000c	8b 45 fc	 mov	 eax, DWORD PTR _this$[ebp]
  0000f	8b 80 ac 00 00
	00		 mov	 eax, DWORD PTR [eax+172]
  00015	83 e0 04	 and	 eax, 4
  00018	5f		 pop	 edi
  00019	5e		 pop	 esi
  0001a	5b		 pop	 ebx
  0001b	8b e5		 mov	 esp, ebp
  0001d	5d		 pop	 ebp
  0001e	c3		 ret	 0
?SupportsAutosaveAtRestart@CWinApp@@UBEHXZ ENDP		; CWinApp::SupportsAutosaveAtRestart
_TEXT	ENDS
; Function compile flags: /Odtp /ZI
; File c:\program files (x86)\microsoft visual studio\2017\community\vc\tools\msvc\14.16.27023\atlmfc\include\afxwin.h
;	COMDAT ?SupportsApplicationRecovery@CWinApp@@UBEHXZ
_TEXT	SEGMENT
_this$ = -4						; size = 4
?SupportsApplicationRecovery@CWinApp@@UBEHXZ PROC	; CWinApp::SupportsApplicationRecovery, COMDAT
; _this$ = ecx

; 5362 : 	virtual BOOL SupportsApplicationRecovery() const { return m_dwRestartManagerSupportFlags & AFX_RESTART_MANAGER_SUPPORT_RECOVERY; }

  00000	55		 push	 ebp
  00001	8b ec		 mov	 ebp, esp
  00003	83 ec 44	 sub	 esp, 68			; 00000044H
  00006	53		 push	 ebx
  00007	56		 push	 esi
  00008	57		 push	 edi
  00009	89 4d fc	 mov	 DWORD PTR _this$[ebp], ecx
  0000c	8b 45 fc	 mov	 eax, DWORD PTR _this$[ebp]
  0000f	8b 80 ac 00 00
	00		 mov	 eax, DWORD PTR [eax+172]
  00015	83 e0 02	 and	 eax, 2
  00018	5f		 pop	 edi
  00019	5e		 pop	 esi
  0001a	5b		 pop	 ebx
  0001b	8b e5		 mov	 esp, ebp
  0001d	5d		 pop	 ebp
  0001e	c3		 ret	 0
?SupportsApplicationRecovery@CWinApp@@UBEHXZ ENDP	; CWinApp::SupportsApplicationRecovery
_TEXT	ENDS
; Function compile flags: /Odtp /ZI
; File c:\program files (x86)\microsoft visual studio\2017\community\vc\tools\msvc\14.16.27023\atlmfc\include\afxwin.h
;	COMDAT ?SupportsRestartManager@CWinApp@@UBEHXZ
_TEXT	SEGMENT
_this$ = -4						; size = 4
?SupportsRestartManager@CWinApp@@UBEHXZ PROC		; CWinApp::SupportsRestartManager, COMDAT
; _this$ = ecx

; 5361 : 	virtual BOOL SupportsRestartManager() const { return m_dwRestartManagerSupportFlags & AFX_RESTART_MANAGER_SUPPORT_RESTART; }

  00000	55		 push	 ebp
  00001	8b ec		 mov	 ebp, esp
  00003	83 ec 44	 sub	 esp, 68			; 00000044H
  00006	53		 push	 ebx
  00007	56		 push	 esi
  00008	57		 push	 edi
  00009	89 4d fc	 mov	 DWORD PTR _this$[ebp], ecx
  0000c	8b 45 fc	 mov	 eax, DWORD PTR _this$[ebp]
  0000f	8b 80 ac 00 00
	00		 mov	 eax, DWORD PTR [eax+172]
  00015	83 e0 01	 and	 eax, 1
  00018	5f		 pop	 edi
  00019	5e		 pop	 esi
  0001a	5b		 pop	 ebx
  0001b	8b e5		 mov	 esp, ebp
  0001d	5d		 pop	 ebp
  0001e	c3		 ret	 0
?SupportsRestartManager@CWinApp@@UBEHXZ ENDP		; CWinApp::SupportsRestartManager
_TEXT	ENDS
; Function compile flags: /Odtp /ZI
; File g:\网狐\happygamewh\服务端\系统模块\服务器组件\聊天服务器\chatserver.cpp
;	COMDAT ?__empty_global_delete@@YAXPAXI@Z
_TEXT	SEGMENT
___formal$ = 8						; size = 4
___formal$ = 12						; size = 4
?__empty_global_delete@@YAXPAXI@Z PROC			; __empty_global_delete, COMDAT

  00000	55		 push	 ebp
  00001	8b ec		 mov	 ebp, esp
  00003	83 ec 40	 sub	 esp, 64			; 00000040H
  00006	53		 push	 ebx
  00007	56		 push	 esi
  00008	57		 push	 edi
  00009	5f		 pop	 edi
  0000a	5e		 pop	 esi
  0000b	5b		 pop	 ebx
  0000c	8b e5		 mov	 esp, ebp
  0000e	5d		 pop	 ebp
  0000f	c3		 ret	 0
?__empty_global_delete@@YAXPAXI@Z ENDP			; __empty_global_delete
_TEXT	ENDS
; Function compile flags: /Odtp /ZI
; File g:\网狐\happygamewh\服务端\系统模块\服务器组件\聊天服务器\chatserver.cpp
;	COMDAT ?__empty_global_delete@@YAXPAX@Z
_TEXT	SEGMENT
___formal$ = 8						; size = 4
?__empty_global_delete@@YAXPAX@Z PROC			; __empty_global_delete, COMDAT

  00000	55		 push	 ebp
  00001	8b ec		 mov	 ebp, esp
  00003	83 ec 40	 sub	 esp, 64			; 00000040H
  00006	53		 push	 ebx
  00007	56		 push	 esi
  00008	57		 push	 edi
  00009	5f		 pop	 edi
  0000a	5e		 pop	 esi
  0000b	5b		 pop	 ebx
  0000c	8b e5		 mov	 esp, ebp
  0000e	5d		 pop	 ebp
  0000f	c3		 ret	 0
?__empty_global_delete@@YAXPAX@Z ENDP			; __empty_global_delete
_TEXT	ENDS
END
