; Listing generated by Microsoft (R) Optimizing Compiler Version 19.16.27032.1 

	TITLE	G:\网狐\HappyGameWH\服务端\系统模块\服务器组件\聊天服务器\DataBaseEngineSink.cpp
	.686P
	.XMM
	include listing.inc
	.model	flat

INCLUDELIB MSVCRTD
INCLUDELIB OLDNAMES

CONST	SEGMENT
?IID_IUnknownEx@@3U_GUID@@B DD 05feec21eH		; IID_IUnknownEx
	DW	0dbf3H
	DW	046f0H
	DB	09fH
	DB	057H
	DB	0d1H
	DB	0cdH
	DB	071H
	DB	01cH
	DB	046H
	DB	0deH
?IID_IDataBase@@3U_GUID@@B DD 0a2e38a78H		; IID_IDataBase
	DW	01e4fH
	DW	04de4H
	DB	0a5H
	DB	0d1H
	DB	0b9H
	DB	019H
	DB	09bH
	DB	0ceH
	DB	041H
	DB	0aeH
?IID_IDataBaseEngineSink@@3U_GUID@@B DD 0ed26ed6H	; IID_IDataBaseEngineSink
	DW	069d7H
	DW	04f5bH
	DB	0b0H
	DB	0caH
	DB	017H
	DB	0aeH
	DB	0abH
	DB	0baH
	DB	06H
	DB	0dfH
CONST	ENDS
PUBLIC	?__empty_global_delete@@YAXPAX@Z		; __empty_global_delete
PUBLIC	?__empty_global_delete@@YAXPAXI@Z		; __empty_global_delete
PUBLIC	_IsEqualGUID
PUBLIC	_==
PUBLIC	_HRESULT_FROM_WIN32
PUBLIC	___local_stdio_printf_options
PUBLIC	__vswprintf_s_l
PUBLIC	_swprintf_s
PUBLIC	__vsnprintf_l
PUBLIC	__vsnprintf
PUBLIC	__vsnprintf_s_l
PUBLIC	__vsnprintf_s
PUBLIC	__vscprintf_l
PUBLIC	__vscprintf
PUBLIC	__snprintf
PUBLIC	?AfxAssertFailedLine@@YGHPBDH@Z			; AfxAssertFailedLine
PUBLIC	?AtlThrowImpl@ATL@@YGXJ@Z			; ATL::AtlThrowImpl
PUBLIC	?AtlThrowLastWin32@ATL@@YGXXZ			; ATL::AtlThrowLastWin32
PUBLIC	??$AtlMultiply@I@ATL@@YAJPAIII@Z		; ATL::AtlMultiply<unsigned int>
PUBLIC	?Allocate@CCRTAllocator@ATL@@SAPAXI@Z		; ATL::CCRTAllocator::Allocate
PUBLIC	?Free@CCRTAllocator@ATL@@SAXPAX@Z		; ATL::CCRTAllocator::Free
PUBLIC	?_AtlGetConversionACP@ATL@@YGIXZ		; ATL::_AtlGetConversionACP
PUBLIC	??0?$CTraceCategoryEx@$0CAAA@$0A@@ATL@@QAE@PBD@Z ; ATL::CTraceCategoryEx<8192,0>::CTraceCategoryEx<8192,0>
PUBLIC	??B?$CTraceCategoryEx@$0CAAA@$0A@@ATL@@QAEIXZ	; ATL::CTraceCategoryEx<8192,0>::operator unsigned int
PUBLIC	?GetCategoryName@CTrace@ATL@@CAPA_WI@Z		; ATL::CTrace::GetCategoryName
PUBLIC	?TraceV@CTrace@ATL@@CAXPBDHIIPB_W@Z		; ATL::CTrace::TraceV
PUBLIC	?TraceV@CTrace@ATL@@SAXPBDHII0PAD@Z		; ATL::CTrace::TraceV
PUBLIC	?RegisterCategory@CTrace@ATL@@SAXPBDI@Z		; ATL::CTrace::RegisterCategory
PUBLIC	??0?$CHeapPtrBase@_WVCCRTAllocator@ATL@@@ATL@@IAE@XZ ; ATL::CHeapPtrBase<wchar_t,ATL::CCRTAllocator>::CHeapPtrBase<wchar_t,ATL::CCRTAllocator>
PUBLIC	??1?$CHeapPtrBase@_WVCCRTAllocator@ATL@@@ATL@@QAE@XZ ; ATL::CHeapPtrBase<wchar_t,ATL::CCRTAllocator>::~CHeapPtrBase<wchar_t,ATL::CCRTAllocator>
PUBLIC	??B?$CHeapPtrBase@_WVCCRTAllocator@ATL@@@ATL@@QBEPA_WXZ ; ATL::CHeapPtrBase<wchar_t,ATL::CCRTAllocator>::operator wchar_t *
PUBLIC	?AllocateBytes@?$CHeapPtrBase@_WVCCRTAllocator@ATL@@@ATL@@QAE_NI@Z ; ATL::CHeapPtrBase<wchar_t,ATL::CCRTAllocator>::AllocateBytes
PUBLIC	?Free@?$CHeapPtrBase@_WVCCRTAllocator@ATL@@@ATL@@QAEXXZ ; ATL::CHeapPtrBase<wchar_t,ATL::CCRTAllocator>::Free
PUBLIC	??0?$CHeapPtr@_WVCCRTAllocator@ATL@@@ATL@@QAE@XZ ; ATL::CHeapPtr<wchar_t,ATL::CCRTAllocator>::CHeapPtr<wchar_t,ATL::CCRTAllocator>
PUBLIC	?Allocate@?$CHeapPtr@_WVCCRTAllocator@ATL@@@ATL@@QAE_NI@Z ; ATL::CHeapPtr<wchar_t,ATL::CCRTAllocator>::Allocate
PUBLIC	??1?$CHeapPtr@_WVCCRTAllocator@ATL@@@ATL@@QAE@XZ ; ATL::CHeapPtr<wchar_t,ATL::CCRTAllocator>::~CHeapPtr<wchar_t,ATL::CCRTAllocator>
PUBLIC	??0?$CHeapPtrBase@DVCCRTAllocator@ATL@@@ATL@@IAE@XZ ; ATL::CHeapPtrBase<char,ATL::CCRTAllocator>::CHeapPtrBase<char,ATL::CCRTAllocator>
PUBLIC	??1?$CHeapPtrBase@DVCCRTAllocator@ATL@@@ATL@@QAE@XZ ; ATL::CHeapPtrBase<char,ATL::CCRTAllocator>::~CHeapPtrBase<char,ATL::CCRTAllocator>
PUBLIC	??B?$CHeapPtrBase@DVCCRTAllocator@ATL@@@ATL@@QBEPADXZ ; ATL::CHeapPtrBase<char,ATL::CCRTAllocator>::operator char *
PUBLIC	?AllocateBytes@?$CHeapPtrBase@DVCCRTAllocator@ATL@@@ATL@@QAE_NI@Z ; ATL::CHeapPtrBase<char,ATL::CCRTAllocator>::AllocateBytes
PUBLIC	?Free@?$CHeapPtrBase@DVCCRTAllocator@ATL@@@ATL@@QAEXXZ ; ATL::CHeapPtrBase<char,ATL::CCRTAllocator>::Free
PUBLIC	??0?$CHeapPtr@DVCCRTAllocator@ATL@@@ATL@@QAE@XZ	; ATL::CHeapPtr<char,ATL::CCRTAllocator>::CHeapPtr<char,ATL::CCRTAllocator>
PUBLIC	?Allocate@?$CHeapPtr@DVCCRTAllocator@ATL@@@ATL@@QAE_NI@Z ; ATL::CHeapPtr<char,ATL::CCRTAllocator>::Allocate
PUBLIC	??1?$CHeapPtr@DVCCRTAllocator@ATL@@@ATL@@QAE@XZ	; ATL::CHeapPtr<char,ATL::CCRTAllocator>::~CHeapPtr<char,ATL::CCRTAllocator>
PUBLIC	??0CPreserveLastError@ATL@@QAE@XZ		; ATL::CPreserveLastError::CPreserveLastError
PUBLIC	??1CPreserveLastError@ATL@@QAE@XZ		; ATL::CPreserveLastError::~CPreserveLastError
PUBLIC	??0CTraceFileAndLineInfo@ATL@@QAE@PBDH@Z	; ATL::CTraceFileAndLineInfo::CTraceFileAndLineInfo
PUBLIC	??RCTraceFileAndLineInfo@ATL@@QBAXHIPBDZZ	; ATL::CTraceFileAndLineInfo::operator()
PUBLIC	??0CTime@ATL@@QAE@_J@Z				; ATL::CTime::CTime
PUBLIC	??0CTime@ATL@@QAE@HHHHHHH@Z			; ATL::CTime::CTime
PUBLIC	??0CTime@ATL@@QAE@ABU_SYSTEMTIME@@H@Z		; ATL::CTime::CTime
PUBLIC	?GetTime@CTime@ATL@@QBE_JXZ			; ATL::CTime::GetTime
PUBLIC	??0IUnknownEx@@QAE@XZ				; IUnknownEx::IUnknownEx
PUBLIC	?GetProductVer@@YAEK@Z				; GetProductVer
PUBLIC	?GetMainVer@@YAEK@Z				; GetMainVer
PUBLIC	?GetSubVer@@YAEK@Z				; GetSubVer
PUBLIC	?GetBuildVer@@YAEK@Z				; GetBuildVer
PUBLIC	?InterfaceVersionCompare@@YA_NKK@Z		; InterfaceVersionCompare
PUBLIC	??0_variant_t@@QAE@XZ				; _variant_t::_variant_t
PUBLIC	??1_variant_t@@QAE@XZ				; _variant_t::~_variant_t
PUBLIC	??0IDataBaseEngineSink@@QAE@XZ			; IDataBaseEngineSink::IDataBaseEngineSink
PUBLIC	??0?$CTempldateHelper@UIDataBase@@@@QAE@ABU_GUID@@KPBD1@Z ; CTempldateHelper<IDataBase>::CTempldateHelper<IDataBase>
PUBLIC	??1?$CTempldateHelper@UIDataBase@@@@UAE@XZ	; CTempldateHelper<IDataBase>::~CTempldateHelper<IDataBase>
PUBLIC	?CloseInstance@?$CTempldateHelper@UIDataBase@@@@QAE_NXZ ; CTempldateHelper<IDataBase>::CloseInstance
PUBLIC	?CreateInstance@?$CTempldateHelper@UIDataBase@@@@QAE_NXZ ; CTempldateHelper<IDataBase>::CreateInstance
PUBLIC	??C?$CTempldateHelper@UIDataBase@@@@QBEPAUIDataBase@@XZ ; CTempldateHelper<IDataBase>::operator->
PUBLIC	?GetInterface@?$CTempldateHelper@UIDataBase@@@@QBEPAUIDataBase@@XZ ; CTempldateHelper<IDataBase>::GetInterface
PUBLIC	??_G?$CTempldateHelper@UIDataBase@@@@UAEPAXI@Z	; CTempldateHelper<IDataBase>::`scalar deleting destructor'
PUBLIC	??0CDataBaseHelper@@QAE@XZ			; CDataBaseHelper::CDataBaseHelper
PUBLIC	??1CDataBaseHelper@@UAE@XZ			; CDataBaseHelper::~CDataBaseHelper
PUBLIC	??_GCDataBaseHelper@@UAEPAXI@Z			; CDataBaseHelper::`scalar deleting destructor'
PUBLIC	??0CDataBaseEngineSink@@QAE@XZ			; CDataBaseEngineSink::CDataBaseEngineSink
PUBLIC	??1CDataBaseEngineSink@@UAE@XZ			; CDataBaseEngineSink::~CDataBaseEngineSink
PUBLIC	?Release@CDataBaseEngineSink@@UAEXXZ		; CDataBaseEngineSink::Release
PUBLIC	?QueryInterface@CDataBaseEngineSink@@UAEPAXABU_GUID@@K@Z ; CDataBaseEngineSink::QueryInterface
PUBLIC	?OnDataBaseEngineStart@CDataBaseEngineSink@@UAE_NPAUIUnknownEx@@@Z ; CDataBaseEngineSink::OnDataBaseEngineStart
PUBLIC	?OnDataBaseEngineConclude@CDataBaseEngineSink@@UAE_NPAUIUnknownEx@@@Z ; CDataBaseEngineSink::OnDataBaseEngineConclude
PUBLIC	?OnDataBaseEngineTimer@CDataBaseEngineSink@@UAE_NKI@Z ; CDataBaseEngineSink::OnDataBaseEngineTimer
PUBLIC	?OnDataBaseEngineControl@CDataBaseEngineSink@@UAE_NGPAXG@Z ; CDataBaseEngineSink::OnDataBaseEngineControl
PUBLIC	?OnDataBaseEngineRequest@CDataBaseEngineSink@@UAE_NGKPAXG@Z ; CDataBaseEngineSink::OnDataBaseEngineRequest
PUBLIC	?OnRequestLogonUserID@CDataBaseEngineSink@@IAE_NKPAXG@Z ; CDataBaseEngineSink::OnRequestLogonUserID
PUBLIC	?OnRequestModifyFriend@CDataBaseEngineSink@@IAE_NKPAXG@Z ; CDataBaseEngineSink::OnRequestModifyFriend
PUBLIC	?OnRequestAddFriend@CDataBaseEngineSink@@IAE_NKPAXG@Z ; CDataBaseEngineSink::OnRequestAddFriend
PUBLIC	?OnRequestDeleteFriend@CDataBaseEngineSink@@IAE_NKPAXG@Z ; CDataBaseEngineSink::OnRequestDeleteFriend
PUBLIC	?OnRequestModifyGroup@CDataBaseEngineSink@@IAE_NKPAXG@Z ; CDataBaseEngineSink::OnRequestModifyGroup
PUBLIC	?OnRequestModifyRemarks@CDataBaseEngineSink@@IAE_NKPAXG@Z ; CDataBaseEngineSink::OnRequestModifyRemarks
PUBLIC	?OnRequestSearchUser@CDataBaseEngineSink@@IAE_NKPAXG@Z ; CDataBaseEngineSink::OnRequestSearchUser
PUBLIC	?OnRequestSaveOfflineMessage@CDataBaseEngineSink@@IAE_NKPAXG@Z ; CDataBaseEngineSink::OnRequestSaveOfflineMessage
PUBLIC	?OnRequestTrumpet@CDataBaseEngineSink@@IAE_NKPAXG@Z ; CDataBaseEngineSink::OnRequestTrumpet
PUBLIC	?OnRequestUpdatePlaceName@CDataBaseEngineSink@@IAE_NKPAXG@Z ; CDataBaseEngineSink::OnRequestUpdatePlaceName
PUBLIC	?OnRequestLoadSystemMessage@CDataBaseEngineSink@@IAE_NKPAXG@Z ; CDataBaseEngineSink::OnRequestLoadSystemMessage
PUBLIC	?OnLogonDisposeResult@CDataBaseEngineSink@@AAEXKKPBD_NGG@Z ; CDataBaseEngineSink::OnLogonDisposeResult
PUBLIC	?OnUserOperateResult@CDataBaseEngineSink@@AAEXK_NKGPBD@Z ; CDataBaseEngineSink::OnUserOperateResult
PUBLIC	??_GCDataBaseEngineSink@@UAEPAXI@Z		; CDataBaseEngineSink::`scalar deleting destructor'
PUBLIC	??0?$CW2AEX@$0IA@@ATL@@QAE@PB_W@Z		; ATL::CW2AEX<128>::CW2AEX<128>
PUBLIC	??1?$CW2AEX@$0IA@@ATL@@QAE@XZ			; ATL::CW2AEX<128>::~CW2AEX<128>
PUBLIC	??B?$CW2AEX@$0IA@@ATL@@QBEPADXZ			; ATL::CW2AEX<128>::operator char *
PUBLIC	?Init@?$CW2AEX@$0IA@@ATL@@AAEXPB_WI@Z		; ATL::CW2AEX<128>::Init
PUBLIC	??$AtlConvFreeMemory@D@ATL@@YAXPAD0H@Z		; ATL::AtlConvFreeMemory<char>
PUBLIC	??$AtlConvAllocMemory@D@ATL@@YAXPAPADHPADH@Z	; ATL::AtlConvAllocMemory<char>
PUBLIC	??$_snprintf_s@$0IA@@@YAHAAY0IA@DIPBDZZ		; _snprintf_s<128>
PUBLIC	?_OptionsStorage@?1??__local_stdio_printf_options@@9@4_KA ; `__local_stdio_printf_options'::`2'::_OptionsStorage
PUBLIC	??_C@_17CNPHIMPH@?$AA?$CF?$AAl?$AAs@		; `string'
PUBLIC	??_C@_1OE@IAPLKPHI@?$AAc?$AA?3?$AA?2?$AAp?$AAr?$AAo?$AAg?$AAr?$AAa?$AAm?$AA?5?$AAf?$AAi?$AAl?$AAe@ ; `string'
PUBLIC	??_C@_1OC@PNEKCFJL@?$AAc?$AA?3?$AA?2?$AAp?$AAr?$AAo?$AAg?$AAr?$AAa?$AAm?$AA?5?$AAf?$AAi?$AAl?$AAe@ ; `string'
PUBLIC	?atlTraceException@ATL@@3V?$CTraceCategoryEx@$0CAAA@$0A@@1@A ; ATL::atlTraceException
PUBLIC	??_C@_0BC@PGMFNIFA@atlTraceException@		; `string'
PUBLIC	?m_nLevel@CTrace@ATL@@1IA			; ATL::CTrace::m_nLevel
PUBLIC	?m_nCategory@CTrace@ATL@@1IA			; ATL::CTrace::m_nCategory
PUBLIC	?m_nLastCategory@CTrace@ATL@@1IA		; ATL::CTrace::m_nLastCategory
PUBLIC	?m_nMap@CTrace@ATL@@1PAUCategoryMap@12@A	; ATL::CTrace::m_nMap
PUBLIC	??_C@_1O@LFNDFEBP@?$AA?$CF?$AAl?$AAs?$AA?5?$AA?9?$AA?5@ ; `string'
PUBLIC	??_C@_1M@PGKOAACE@?$AA?$CF?$AAu?$AA?5?$AA?9?$AA?5@ ; `string'
PUBLIC	??_C@_1O@OAIPCDPO@?$AA?$CF?$AAl?$AAs?$AA?$CF?$AAl?$AAs@ ; `string'
PUBLIC	??_C@_17LGGGMOOB@?$AA?$CF?$AAh?$AAs@		; `string'
PUBLIC	??_C@_1EO@EBPPKGOM@?$AAf?$AAa?$AAl?$AAs?$AAe?$AA?5?$AA?$CG?$AA?$CG?$AA?5?$AA?$CC?$AAT?$AAo?$AAo?$AA?5?$AAm@ ; `string'
PUBLIC	??_C@_1OE@PDFAMNPL@?$AAc?$AA?3?$AA?2?$AAp?$AAr?$AAo?$AAg?$AAr?$AAa?$AAm?$AA?5?$AAf?$AAi?$AAl?$AAe@ ; `string'
PUBLIC	?__LINE__Var@?0??AtlThrowImpl@ATL@@YGXJ@Z@4JA	; `ATL::AtlThrowImpl'::`1'::__LINE__Var
PUBLIC	??_C@_0HD@OEBHCJKM@c?3?2program?5files?5?$CIx86?$CJ?2microsof@ ; `string'
PUBLIC	??_C@_0BF@IAAKIJDJ@AtlThrow?3?5hr?5?$DN?50x?$CFx?6@ ; `string'
PUBLIC	??_C@_1BM@GBBOFEAE@?$AA_?$AA_?$AAa?$AAt?$AAl?$AA_?$AAc?$AAo?$AAn?$AAd?$AAV?$AAa?$AAl@ ; `string'
PUBLIC	?__LINE__Var@?0???0CTime@ATL@@QAE@HHHHHHH@Z@4JA	; `ATL::CTime::CTime'::`1'::__LINE__Var
PUBLIC	??_C@_1OC@IALJLBM@?$AAc?$AA?3?$AA?2?$AAp?$AAr?$AAo?$AAg?$AAr?$AAa?$AAm?$AA?5?$AAf?$AAi?$AAl?$AAe@ ; `string'
PUBLIC	??_C@_1BK@NHHHCKNA@?$AAm?$AA_?$AAt?$AAi?$AAm?$AAe?$AA?5?$AA?$CB?$AA?$DN?$AA?5?$AA?9?$AA1@ ; `string'
PUBLIC	??_C@_00CNPNBAHC@@				; `string'
PUBLIC	??_7IUnknownEx@@6B@				; IUnknownEx::`vftable'
PUBLIC	??_7IDataBaseEngineSink@@6B@			; IDataBaseEngineSink::`vftable'
PUBLIC	??_7?$CTempldateHelper@UIDataBase@@@@6B@	; CTempldateHelper<IDataBase>::`vftable'
PUBLIC	??_7CDataBaseHelper@@6B@			; CDataBaseHelper::`vftable'
PUBLIC	??_C@_0P@IKJBDFNG@CreateDataBase@		; `string'
PUBLIC	??_C@_0BB@BEMLEOHB@KernelEngine?4dll@		; `string'
PUBLIC	??_C@_1BK@NHECDDNK@?$AAm?$AA_?$AAp?$AAD?$AAa?$AAt?$AAa?$AA?5?$AA?$DN?$AA?$DN?$AA?5?$AA0@ ; `string'
PUBLIC	??_R4CDataBaseHelper@@6B@			; CDataBaseHelper::`RTTI Complete Object Locator'
PUBLIC	??_R0?AVCDataBaseHelper@@@8			; CDataBaseHelper `RTTI Type Descriptor'
PUBLIC	??_R3CDataBaseHelper@@8				; CDataBaseHelper::`RTTI Class Hierarchy Descriptor'
PUBLIC	??_R2CDataBaseHelper@@8				; CDataBaseHelper::`RTTI Base Class Array'
PUBLIC	??_R1A@?0A@EA@CDataBaseHelper@@8		; CDataBaseHelper::`RTTI Base Class Descriptor at (0,-1,0,64)'
PUBLIC	??_R1A@?0A@EA@?$CTempldateHelper@UIDataBase@@@@8 ; CTempldateHelper<IDataBase>::`RTTI Base Class Descriptor at (0,-1,0,64)'
PUBLIC	??_R0?AV?$CTempldateHelper@UIDataBase@@@@@8	; CTempldateHelper<IDataBase> `RTTI Type Descriptor'
PUBLIC	??_R3?$CTempldateHelper@UIDataBase@@@@8		; CTempldateHelper<IDataBase>::`RTTI Class Hierarchy Descriptor'
PUBLIC	??_R2?$CTempldateHelper@UIDataBase@@@@8		; CTempldateHelper<IDataBase>::`RTTI Base Class Array'
PUBLIC	??_R4?$CTempldateHelper@UIDataBase@@@@6B@	; CTempldateHelper<IDataBase>::`RTTI Complete Object Locator'
PUBLIC	??_7CDataBaseEngineSink@@6B@			; CDataBaseEngineSink::`vftable'
PUBLIC	?__LINE__Var@?0??OnDataBaseEngineStart@CDataBaseEngineSink@@UAE_NPAUIUnknownEx@@@Z@4JA ; `CDataBaseEngineSink::OnDataBaseEngineStart'::`1'::__LINE__Var
PUBLIC	??_R0PAUIDataBaseException@@@8			; IDataBaseException * `RTTI Type Descriptor'
PUBLIC	?__LINE__Var@?0??OnDataBaseEngineRequest@CDataBaseEngineSink@@UAE_NGKPAXG@Z@4JA ; `CDataBaseEngineSink::OnDataBaseEngineRequest'::`1'::__LINE__Var
PUBLIC	?__LINE__Var@?0??OnRequestLogonUserID@CDataBaseEngineSink@@IAE_NKPAXG@Z@4JA ; `CDataBaseEngineSink::OnRequestLogonUserID'::`1'::__LINE__Var
PUBLIC	??_C@_0M@PCENNPGA@?$CFd?4?$CFd?4?$CFd?4?$CFd@	; `string'
PUBLIC	??_C@_09KCDEMNBD@?$EAdwUserID@			; `string'
PUBLIC	??_C@_0N@OCODJCJL@?$EAstrPassword@		; `string'
PUBLIC	??_C@_0N@IDHGAHBD@?$EAstrClientIP@		; `string'
PUBLIC	??_C@_0BC@IIOJPJPJ@?$EAstrErrorDescribe@	; `string'
PUBLIC	??_C@_0BM@NOBDEOGG@GSP_GP_EfficacyAccountsChat@	; `string'
PUBLIC	??_C@_0BG@DCPAFIBB@GSP_GP_LoadUserGroups@	; `string'
PUBLIC	??_C@_07IKIDGEIC@GroupID@			; `string'
PUBLIC	??_C@_09DOCDJBIG@GroupName@			; `string'
PUBLIC	??_C@_0BH@LNCMBLMH@GSP_GP_LoadUserFriends@	; `string'
PUBLIC	??_C@_06OFHCDFJK@UserID@			; `string'
PUBLIC	??_C@_06KGJDDPAK@GameID@			; `string'
PUBLIC	??_C@_06LPNEIKNP@FaceID@			; `string'
PUBLIC	??_C@_08GOBKDNAK@CustomID@			; `string'
PUBLIC	??_C@_06HKFFEOFI@Gender@			; `string'
PUBLIC	??_C@_0M@CEFIIFDG@MemberOrder@			; `string'
PUBLIC	??_C@_09HOAKNMLL@GrowLevel@			; `string'
PUBLIC	??_C@_08CELDJAGK@NickName@			; `string'
PUBLIC	??_C@_0L@CPAJNIME@UnderWrite@			; `string'
PUBLIC	??_C@_0N@CLIEFGAF@Compellation@			; `string'
PUBLIC	??_C@_02MOGAAOHP@QQ@				; `string'
PUBLIC	??_C@_05LMBPBNBJ@EMail@				; `string'
PUBLIC	??_C@_09MAIOJANC@SeatPhone@			; `string'
PUBLIC	??_C@_0M@OJIHCJC@MobilePhone@			; `string'
PUBLIC	??_C@_0O@GKEPGAEM@DwellingPlace@		; `string'
PUBLIC	??_C@_0L@FEKLBNBC@PostalCode@			; `string'
PUBLIC	??_C@_0BJ@KGPDMKAJ@GSP_GP_LoadFriendRemarks@	; `string'
PUBLIC	??_C@_08FDHMOIIA@UserNote@			; `string'
PUBLIC	??_C@_0BK@LIJMOBAN@GSP_GP_LoadOfflineMessage@	; `string'
PUBLIC	??_C@_0M@ECIDEJHH@MessageType@			; `string'
PUBLIC	??_C@_08CFDHEOEO@DataSize@			; `string'
PUBLIC	??_C@_0M@FFPBKNKJ@OfflineData@			; `string'
PUBLIC	??_C@_0DH@NMJACNII@?S?I?S?Z?J?$PN?$LO?$NN?$LP?b?$LC?Y?W?w?R?l?$LD?$KD?$KD?$KM?G?k?D?z?I?T?$LK?s?V?X?J@ ; `string'
PUBLIC	?__LINE__Var@?0??OnRequestModifyFriend@CDataBaseEngineSink@@IAE_NKPAXG@Z@4JA ; `CDataBaseEngineSink::OnRequestModifyFriend'::`1'::__LINE__Var
PUBLIC	??_C@_0BA@PEHFKMKN@?$EAdwFriendUserID@		; `string'
PUBLIC	??_C@_0P@FPAAEPDL@?$EAcbOperateKind@		; `string'
PUBLIC	??_C@_0L@BKCLAFLJ@?$EAcbGroupID@		; `string'
PUBLIC	??_C@_0BI@BCODNHPM@GSP_GP_ModifyUserFriend@	; `string'
PUBLIC	?__LINE__Var@?0??OnRequestAddFriend@CDataBaseEngineSink@@IAE_NKPAXG@Z@4JA ; `CDataBaseEngineSink::OnRequestAddFriend'::`1'::__LINE__Var
PUBLIC	??_C@_0O@MGOPHJEC@?$EAdwDestUserID@		; `string'
PUBLIC	??_C@_0P@MOENBMCB@?$EAcbDestGroupID@		; `string'
PUBLIC	??_C@_0BA@JCDGDHKF@?$EAcbLoadUserInfo@		; `string'
PUBLIC	??_C@_0BF@GFGAEEKM@GSP_GP_AddUserFriend@	; `string'
PUBLIC	?__LINE__Var@?0??OnRequestDeleteFriend@CDataBaseEngineSink@@IAE_NKPAXG@Z@4JA ; `CDataBaseEngineSink::OnRequestDeleteFriend'::`1'::__LINE__Var
PUBLIC	??_C@_0BI@LPNDAHEL@GSP_GP_DeleteUserFriend@	; `string'
PUBLIC	?__LINE__Var@?0??OnRequestModifyGroup@CDataBaseEngineSink@@IAE_NKPAXG@Z@4JA ; `CDataBaseEngineSink::OnRequestModifyGroup'::`1'::__LINE__Var
PUBLIC	??_C@_0O@MLJHDGDF@?$EAstrGroupName@		; `string'
PUBLIC	??_C@_0BH@DILBBJMO@GSP_GP_ModifyUserGroup@	; `string'
PUBLIC	?__LINE__Var@?0??OnRequestModifyRemarks@CDataBaseEngineSink@@IAE_NKPAXG@Z@4JA ; `CDataBaseEngineSink::OnRequestModifyRemarks'::`1'::__LINE__Var
PUBLIC	??_C@_0P@KAOHGEPI@?$EAszRemarksInfo@		; `string'
PUBLIC	??_C@_0BJ@JFABKBII@GSP_GP_ModifyUserRemarks@	; `string'
PUBLIC	?__LINE__Var@?0??OnRequestSearchUser@CDataBaseEngineSink@@IAE_NKPAXG@Z@4JA ; `CDataBaseEngineSink::OnRequestSearchUser'::`1'::__LINE__Var
PUBLIC	??_C@_09OBNFMHID@?$EAdwGameID@			; `string'
PUBLIC	??_C@_0BC@FMPJFMGP@GSP_GP_SearchUser@		; `string'
PUBLIC	??_C@_0CL@OKPGMGNM@?$LB?$KH?G?$LI?0?S?I?S?Z?J?$PN?$LO?$NN?$LP?b?$LC?Y?W?w?R?l?$LD?$KD?0?D?z?$LF?D?G?k?G@ ; `string'
PUBLIC	?__LINE__Var@?0??OnRequestUpdatePlaceName@CDataBaseEngineSink@@IAE_NKPAXG@Z@4JA ; `CDataBaseEngineSink::OnRequestUpdatePlaceName'::`1'::__LINE__Var
PUBLIC	??_C@_0N@MDOGFMDG@?$EAszPlaceName@		; `string'
PUBLIC	??_C@_0BH@JIPKFPPO@GSP_GP_UpdatePlaceName@	; `string'
PUBLIC	?__LINE__Var@?0??OnRequestSaveOfflineMessage@CDataBaseEngineSink@@IAE_NKPAXG@Z@4JA ; `CDataBaseEngineSink::OnRequestSaveOfflineMessage'::`1'::__LINE__Var
PUBLIC	??_C@_0O@GONDHLPC@?$EAwMessageType@		; `string'
PUBLIC	??_C@_0L@GKGEGMAC@?$EAwDataSize@		; `string'
PUBLIC	??_C@_0P@CFKJJPGA@?$EAszOfflineData@		; `string'
PUBLIC	??_C@_0BK@GIMHCKOH@GSP_GP_SaveOfflineMessage@	; `string'
PUBLIC	?__LINE__Var@?0??OnRequestTrumpet@CDataBaseEngineSink@@IAE_NKPAXG@Z@4JA ; `CDataBaseEngineSink::OnRequestTrumpet'::`1'::__LINE__Var
PUBLIC	??_C@_0O@BBLJBDHL@?$EAstrClientIP?5@		; `string'
PUBLIC	??_C@_0BC@FHFGCAEO@GSP_GP_UseTrumpet@		; `string'
PUBLIC	??_C@_0L@FIEHJJML@?$EAwServerID@		; `string'
PUBLIC	??_C@_0BJ@GFLIDCFB@GSP_GR_LoadSystemMessage@	; `string'
PUBLIC	??_C@_02OLOABKKD@ID@				; `string'
PUBLIC	??_C@_08MBIPKANE@TimeRate@			; `string'
PUBLIC	??_C@_0O@EOKEIOEE@MessageString@		; `string'
PUBLIC	??_C@_09MHCEAAPI@StartTime@			; `string'
PUBLIC	??_C@_0N@DIGHLIGE@ConcludeTime@			; `string'
PUBLIC	??_C@_0DG@CDIFDKED@g?3?2?M?x?$LK?$PM?2happygamewh?2?$LH?$PO?N?q?$LG?K?2?O?$LF?M?$LD@ ; `string'
PUBLIC	??_C@_0BD@LMOFNGMO@?$KB?$LA?$CFs?$KB?$LB?D?$KD?$LP?i?$LM?S?T?X?J?$KH?$LA?$NM@ ; `string'
PUBLIC	??_C@_0BM@PEGNCJOH@?U?R?$LC?$LL?$LF?$LN?W?i?$LM?$PO?$LE?$LE?$LN?$KI?$LK?$KP?J?$PN?$KB?$LA?$CFs?$KB?$LB?3?$CFd@ ; `string'
PUBLIC	??_C@_0BL@PDAODLKM@?$LF?w?S?C?$LK?$KP?J?$PN?$KB?$LA?$CFs?$KB?$LB?I?z?$LD?I?$LG?T?O?s?J?$KH?$LA?$NM@ ; `string'
PUBLIC	??_R0PAD@8					; char * `RTTI Type Descriptor'
PUBLIC	??_C@_0BJ@JGPFHIJF@?S?I?S?Z?$KB?$LA?$CFs?$KB?$LB?$KD?$KM?W?i?$LM?$PO?$LE?$LE?$LN?$KI?J?$KH?$LA?$NM@ ; `string'
PUBLIC	??_C@_0DB@JBNKENAJ@?W?i?$LM?$PO?$LE?$LE?$LN?$KI?$LK?$KP?J?$PN?$KB?$LA?$CFs?$KB?$LB?$LC?z?I?z?N?$LE?V?$KK?R?l?$LD?$KD?$LE@ ; `string'
PUBLIC	??_R4IUnknownEx@@6B@				; IUnknownEx::`RTTI Complete Object Locator'
PUBLIC	??_R0?AUIUnknownEx@@@8				; IUnknownEx `RTTI Type Descriptor'
PUBLIC	??_R3IUnknownEx@@8				; IUnknownEx::`RTTI Class Hierarchy Descriptor'
PUBLIC	??_R2IUnknownEx@@8				; IUnknownEx::`RTTI Base Class Array'
PUBLIC	??_R1A@?0A@EA@IUnknownEx@@8			; IUnknownEx::`RTTI Base Class Descriptor at (0,-1,0,64)'
PUBLIC	??_R4IDataBaseEngineSink@@6B@			; IDataBaseEngineSink::`RTTI Complete Object Locator'
PUBLIC	??_R0?AUIDataBaseEngineSink@@@8			; IDataBaseEngineSink `RTTI Type Descriptor'
PUBLIC	??_R3IDataBaseEngineSink@@8			; IDataBaseEngineSink::`RTTI Class Hierarchy Descriptor'
PUBLIC	??_R2IDataBaseEngineSink@@8			; IDataBaseEngineSink::`RTTI Base Class Array'
PUBLIC	??_R1A@?0A@EA@IDataBaseEngineSink@@8		; IDataBaseEngineSink::`RTTI Base Class Descriptor at (0,-1,0,64)'
PUBLIC	??_R4CDataBaseEngineSink@@6B@			; CDataBaseEngineSink::`RTTI Complete Object Locator'
PUBLIC	??_R0?AVCDataBaseEngineSink@@@8			; CDataBaseEngineSink `RTTI Type Descriptor'
PUBLIC	??_R3CDataBaseEngineSink@@8			; CDataBaseEngineSink::`RTTI Class Hierarchy Descriptor'
PUBLIC	??_R2CDataBaseEngineSink@@8			; CDataBaseEngineSink::`RTTI Base Class Array'
PUBLIC	??_R1A@?0A@EA@CDataBaseEngineSink@@8		; CDataBaseEngineSink::`RTTI Base Class Descriptor at (0,-1,0,64)'
EXTRN	__purecall:PROC
EXTRN	??3@YAXPAXI@Z:PROC				; operator delete
EXTRN	_memcmp:PROC
EXTRN	_memset:PROC
EXTRN	__imp__wcscpy_s:PROC
EXTRN	__imp__wcslen:PROC
EXTRN	__imp__GetLastError@0:PROC
EXTRN	__imp__SetLastError@4:PROC
EXTRN	__imp__GetProcAddress@8:PROC
EXTRN	__imp__lstrcpynA@12:PROC
EXTRN	__imp__lstrlenA@4:PROC
EXTRN	__imp__PeekMessageA@20:PROC
EXTRN	__imp__PostQuitMessage@4:PROC
EXTRN	__imp__MultiByteToWideChar@24:PROC
EXTRN	__imp__WideCharToMultiByte@32:PROC
EXTRN	__imp____stdio_common_vswprintf_s:PROC
EXTRN	__imp____stdio_common_vsprintf:PROC
EXTRN	__imp____stdio_common_vsnprintf_s:PROC
EXTRN	__imp__calloc:PROC
EXTRN	__imp__free:PROC
EXTRN	__imp__malloc:PROC
EXTRN	__imp___recalloc:PROC
EXTRN	__imp___mktime64:PROC
EXTRN	__imp___CrtDbgReport:PROC
EXTRN	__imp___CrtDbgReportW:PROC
EXTRN	__imp__VariantInit@4:PROC
EXTRN	__imp__VariantClear@4:PROC
EXTRN	?AfxThrowMemoryException@@YGXXZ:PROC		; AfxThrowMemoryException
EXTRN	?AfxThrowOleException@@YGXJ@Z:PROC		; AfxThrowOleException
EXTRN	__imp_??0?$CStringT@DV?$StrTraitMFC_DLL@DV?$ChTraitsCRT@D@ATL@@@@@ATL@@QAE@XZ:PROC
EXTRN	__imp_??1?$CStringT@DV?$StrTraitMFC_DLL@DV?$ChTraitsCRT@D@ATL@@@@@ATL@@QAE@XZ:PROC
EXTRN	?AfxLoadLibrary@@YGPAUHINSTANCE__@@PBD@Z:PROC	; AfxLoadLibrary
EXTRN	?AfxFreeLibrary@@YGHPAUHINSTANCE__@@@Z:PROC	; AfxFreeLibrary
EXTRN	??_E?$CTempldateHelper@UIDataBase@@@@UAEPAXI@Z:PROC ; CTempldateHelper<IDataBase>::`vector deleting destructor'
EXTRN	??_ECDataBaseHelper@@UAEPAXI@Z:PROC		; CDataBaseHelper::`vector deleting destructor'
EXTRN	__imp_??0CDataBaseAide@@QAE@PAUIUnknownEx@@@Z:PROC
EXTRN	__imp_??1CDataBaseAide@@UAE@XZ:PROC
EXTRN	__imp_?SetDataBase@CDataBaseAide@@QAE_NPAUIUnknownEx@@@Z:PROC
EXTRN	__imp_?GetValue_BYTE@CDataBaseAide@@QAEEPBD@Z:PROC
EXTRN	__imp_?GetValue_WORD@CDataBaseAide@@QAEGPBD@Z:PROC
EXTRN	__imp_?GetValue_DWORD@CDataBaseAide@@QAEKPBD@Z:PROC
EXTRN	__imp_?GetValue_SystemTime@CDataBaseAide@@QAEXPBDAAU_SYSTEMTIME@@@Z:PROC
EXTRN	__imp_?GetValue_String@CDataBaseAide@@QAEXPBDPADI@Z:PROC
EXTRN	__imp_?ResetParameter@CDataBaseAide@@QAEXXZ:PROC
EXTRN	__imp_?AddParameter@CDataBaseAide@@QAEXPBDHW4ParameterDirectionEnum@ADOCG@@@Z:PROC
EXTRN	__imp_?AddParameter@CDataBaseAide@@QAEXPBDEW4ParameterDirectionEnum@ADOCG@@@Z:PROC
EXTRN	__imp_?AddParameter@CDataBaseAide@@QAEXPBDGW4ParameterDirectionEnum@ADOCG@@@Z:PROC
EXTRN	__imp_?AddParameter@CDataBaseAide@@QAEXPBDKW4ParameterDirectionEnum@ADOCG@@@Z:PROC
EXTRN	__imp_?AddParameter@CDataBaseAide@@QAEXPBD0W4ParameterDirectionEnum@ADOCG@@@Z:PROC
EXTRN	__imp_?AddParameterOutput@CDataBaseAide@@QAEXPBDPADIW4ParameterDirectionEnum@ADOCG@@@Z:PROC
EXTRN	__imp_?ExecuteProcess@CDataBaseAide@@QAEJPBD_N@Z:PROC
EXTRN	__imp_?TraceString@CTraceService@@SA_NPBDW4enTraceLevel@@@Z:PROC
EXTRN	??_ECDataBaseEngineSink@@UAEPAXI@Z:PROC		; CDataBaseEngineSink::`vector deleting destructor'
EXTRN	@__security_check_cookie@4:PROC
EXTRN	___CxxFrameHandler3:PROC
EXTRN	__chkstk:PROC
EXTRN	_memset:PROC
EXTRN	??_7type_info@@6B@:QWORD			; type_info::`vftable'
EXTRN	___security_cookie:DWORD
;	COMDAT ?_OptionsStorage@?1??__local_stdio_printf_options@@9@4_KA
_BSS	SEGMENT
?_OptionsStorage@?1??__local_stdio_printf_options@@9@4_KA DQ 01H DUP (?) ; `__local_stdio_printf_options'::`2'::_OptionsStorage
_BSS	ENDS
;	COMDAT ?atlTraceException@ATL@@3V?$CTraceCategoryEx@$0CAAA@$0A@@1@A
_BSS	SEGMENT
?atlTraceException@ATL@@3V?$CTraceCategoryEx@$0CAAA@$0A@@1@A DD 01H DUP (?) ; ATL::atlTraceException
_BSS	ENDS
;	COMDAT ?m_nLevel@CTrace@ATL@@1IA
_BSS	SEGMENT
?m_nLevel@CTrace@ATL@@1IA DD 01H DUP (?)		; ATL::CTrace::m_nLevel
_BSS	ENDS
;	COMDAT ?m_nLastCategory@CTrace@ATL@@1IA
_BSS	SEGMENT
?m_nLastCategory@CTrace@ATL@@1IA DD 01H DUP (?)		; ATL::CTrace::m_nLastCategory
_BSS	ENDS
;	COMDAT ?m_nMap@CTrace@ATL@@1PAUCategoryMap@12@A
_BSS	SEGMENT
?m_nMap@CTrace@ATL@@1PAUCategoryMap@12@A DB 02080H DUP (?) ; ATL::CTrace::m_nMap
_BSS	ENDS
;	COMDAT CRT$XCU
CRT$XCU	SEGMENT
?atlTraceException$initializer$@ATL@@3P6AXXZA DD FLAT:??__EatlTraceException@ATL@@YAXXZ ; ATL::atlTraceException$initializer$
CRT$XCU	ENDS
;	COMDAT ??_R1A@?0A@EA@CDataBaseEngineSink@@8
rdata$r	SEGMENT
??_R1A@?0A@EA@CDataBaseEngineSink@@8 DD FLAT:??_R0?AVCDataBaseEngineSink@@@8 ; CDataBaseEngineSink::`RTTI Base Class Descriptor at (0,-1,0,64)'
	DD	02H
	DD	00H
	DD	0ffffffffH
	DD	00H
	DD	040H
	DD	FLAT:??_R3CDataBaseEngineSink@@8
rdata$r	ENDS
;	COMDAT ??_R2CDataBaseEngineSink@@8
rdata$r	SEGMENT
??_R2CDataBaseEngineSink@@8 DD FLAT:??_R1A@?0A@EA@CDataBaseEngineSink@@8 ; CDataBaseEngineSink::`RTTI Base Class Array'
	DD	FLAT:??_R1A@?0A@EA@IDataBaseEngineSink@@8
	DD	FLAT:??_R1A@?0A@EA@IUnknownEx@@8
rdata$r	ENDS
;	COMDAT ??_R3CDataBaseEngineSink@@8
rdata$r	SEGMENT
??_R3CDataBaseEngineSink@@8 DD 00H			; CDataBaseEngineSink::`RTTI Class Hierarchy Descriptor'
	DD	00H
	DD	03H
	DD	FLAT:??_R2CDataBaseEngineSink@@8
rdata$r	ENDS
;	COMDAT ??_R0?AVCDataBaseEngineSink@@@8
data$r	SEGMENT
??_R0?AVCDataBaseEngineSink@@@8 DD FLAT:??_7type_info@@6B@ ; CDataBaseEngineSink `RTTI Type Descriptor'
	DD	00H
	DB	'.?AVCDataBaseEngineSink@@', 00H
data$r	ENDS
;	COMDAT ??_R4CDataBaseEngineSink@@6B@
rdata$r	SEGMENT
??_R4CDataBaseEngineSink@@6B@ DD 00H			; CDataBaseEngineSink::`RTTI Complete Object Locator'
	DD	00H
	DD	00H
	DD	FLAT:??_R0?AVCDataBaseEngineSink@@@8
	DD	FLAT:??_R3CDataBaseEngineSink@@8
rdata$r	ENDS
;	COMDAT ??_R1A@?0A@EA@IDataBaseEngineSink@@8
rdata$r	SEGMENT
??_R1A@?0A@EA@IDataBaseEngineSink@@8 DD FLAT:??_R0?AUIDataBaseEngineSink@@@8 ; IDataBaseEngineSink::`RTTI Base Class Descriptor at (0,-1,0,64)'
	DD	01H
	DD	00H
	DD	0ffffffffH
	DD	00H
	DD	040H
	DD	FLAT:??_R3IDataBaseEngineSink@@8
rdata$r	ENDS
;	COMDAT ??_R2IDataBaseEngineSink@@8
rdata$r	SEGMENT
??_R2IDataBaseEngineSink@@8 DD FLAT:??_R1A@?0A@EA@IDataBaseEngineSink@@8 ; IDataBaseEngineSink::`RTTI Base Class Array'
	DD	FLAT:??_R1A@?0A@EA@IUnknownEx@@8
rdata$r	ENDS
;	COMDAT ??_R3IDataBaseEngineSink@@8
rdata$r	SEGMENT
??_R3IDataBaseEngineSink@@8 DD 00H			; IDataBaseEngineSink::`RTTI Class Hierarchy Descriptor'
	DD	00H
	DD	02H
	DD	FLAT:??_R2IDataBaseEngineSink@@8
rdata$r	ENDS
;	COMDAT ??_R0?AUIDataBaseEngineSink@@@8
data$r	SEGMENT
??_R0?AUIDataBaseEngineSink@@@8 DD FLAT:??_7type_info@@6B@ ; IDataBaseEngineSink `RTTI Type Descriptor'
	DD	00H
	DB	'.?AUIDataBaseEngineSink@@', 00H
data$r	ENDS
;	COMDAT ??_R4IDataBaseEngineSink@@6B@
rdata$r	SEGMENT
??_R4IDataBaseEngineSink@@6B@ DD 00H			; IDataBaseEngineSink::`RTTI Complete Object Locator'
	DD	00H
	DD	00H
	DD	FLAT:??_R0?AUIDataBaseEngineSink@@@8
	DD	FLAT:??_R3IDataBaseEngineSink@@8
rdata$r	ENDS
;	COMDAT ??_R1A@?0A@EA@IUnknownEx@@8
rdata$r	SEGMENT
??_R1A@?0A@EA@IUnknownEx@@8 DD FLAT:??_R0?AUIUnknownEx@@@8 ; IUnknownEx::`RTTI Base Class Descriptor at (0,-1,0,64)'
	DD	00H
	DD	00H
	DD	0ffffffffH
	DD	00H
	DD	040H
	DD	FLAT:??_R3IUnknownEx@@8
rdata$r	ENDS
;	COMDAT ??_R2IUnknownEx@@8
rdata$r	SEGMENT
??_R2IUnknownEx@@8 DD FLAT:??_R1A@?0A@EA@IUnknownEx@@8	; IUnknownEx::`RTTI Base Class Array'
rdata$r	ENDS
;	COMDAT ??_R3IUnknownEx@@8
rdata$r	SEGMENT
??_R3IUnknownEx@@8 DD 00H				; IUnknownEx::`RTTI Class Hierarchy Descriptor'
	DD	00H
	DD	01H
	DD	FLAT:??_R2IUnknownEx@@8
rdata$r	ENDS
;	COMDAT ??_R0?AUIUnknownEx@@@8
data$r	SEGMENT
??_R0?AUIUnknownEx@@@8 DD FLAT:??_7type_info@@6B@	; IUnknownEx `RTTI Type Descriptor'
	DD	00H
	DB	'.?AUIUnknownEx@@', 00H
data$r	ENDS
;	COMDAT ??_R4IUnknownEx@@6B@
rdata$r	SEGMENT
??_R4IUnknownEx@@6B@ DD 00H				; IUnknownEx::`RTTI Complete Object Locator'
	DD	00H
	DD	00H
	DD	FLAT:??_R0?AUIUnknownEx@@@8
	DD	FLAT:??_R3IUnknownEx@@8
rdata$r	ENDS
;	COMDAT ??_C@_0DB@JBNKENAJ@?W?i?$LM?$PO?$LE?$LE?$LN?$KI?$LK?$KP?J?$PN?$KB?$LA?$CFs?$KB?$LB?$LC?z?I?z?N?$LE?V?$KK?R?l?$LD?$KD?$LE@
CONST	SEGMENT
??_C@_0DB@JBNKENAJ@?W?i?$LM?$PO?$LE?$LE?$LN?$KI?$LK?$KP?J?$PN?$KB?$LA?$CFs?$KB?$LB?$LC?z?I?z?N?$LE?V?$KK?R?l?$LD?$KD?$LE@ DB 0d7H
	DB	0e9H, 0bcH, 0feH, 0b4H, 0b4H, 0bdH, 0a8H, 0baH, 0afH, 0caH, 0fdH
	DB	0a1H, 0b0H, '%s', 0a1H, 0b1H, 0b2H, 0faH, 0c9H, 0faH, 0ceH, 0b4H
	DB	0d6H, 0aaH, 0d2H, 0ecH, 0b3H, 0a3H, 0b4H, 0edH, 0ceH, 0f3H, 0a3H
	DB	0acH, 0d7H, 0e9H, 0bcH, 0feH, 0b4H, 0b4H, 0bdH, 0a8H, 0caH, 0a7H
	DB	0b0H, 0dcH, 00H				; `string'
CONST	ENDS
;	COMDAT ??_C@_0BJ@JGPFHIJF@?S?I?S?Z?$KB?$LA?$CFs?$KB?$LB?$KD?$KM?W?i?$LM?$PO?$LE?$LE?$LN?$KI?J?$KH?$LA?$NM@
CONST	SEGMENT
??_C@_0BJ@JGPFHIJF@?S?I?S?Z?$KB?$LA?$CFs?$KB?$LB?$KD?$KM?W?i?$LM?$PO?$LE?$LE?$LN?$KI?J?$KH?$LA?$NM@ DB 0d3H
	DB	0c9H, 0d3H, 0daH, 0a1H, 0b0H, '%s', 0a1H, 0b1H, 0a3H, 0acH, 0d7H
	DB	0e9H, 0bcH, 0feH, 0b4H, 0b4H, 0bdH, 0a8H, 0caH, 0a7H, 0b0H, 0dcH
	DB	00H						; `string'
CONST	ENDS
;	COMDAT ??_R0PAD@8
data$r	SEGMENT
??_R0PAD@8 DD	FLAT:??_7type_info@@6B@			; char * `RTTI Type Descriptor'
	DD	00H
	DB	'.PAD', 00H
data$r	ENDS
;	COMDAT ??_C@_0BL@PDAODLKM@?$LF?w?S?C?$LK?$KP?J?$PN?$KB?$LA?$CFs?$KB?$LB?I?z?$LD?I?$LG?T?O?s?J?$KH?$LA?$NM@
CONST	SEGMENT
??_C@_0BL@PDAODLKM@?$LF?w?S?C?$LK?$KP?J?$PN?$KB?$LA?$CFs?$KB?$LB?I?z?$LD?I?$LG?T?O?s?J?$KH?$LA?$NM@ DB 0b5H
	DB	0f7H, 0d3H, 0c3H, 0baH, 0afH, 0caH, 0fdH, 0a1H, 0b0H, '%s', 0a1H
	DB	0b1H, 0c9H, 0faH, 0b3H, 0c9H, 0b6H, 0d4H, 0cfH, 0f3H, 0caH, 0a7H
	DB	0b0H, 0dcH, 00H				; `string'
CONST	ENDS
;	COMDAT ??_C@_0BM@PEGNCJOH@?U?R?$LC?$LL?$LF?$LN?W?i?$LM?$PO?$LE?$LE?$LN?$KI?$LK?$KP?J?$PN?$KB?$LA?$CFs?$KB?$LB?3?$CFd@
CONST	SEGMENT
??_C@_0BM@PEGNCJOH@?U?R?$LC?$LL?$LF?$LN?W?i?$LM?$PO?$LE?$LE?$LN?$KI?$LK?$KP?J?$PN?$KB?$LA?$CFs?$KB?$LB?3?$CFd@ DB 0d5H
	DB	0d2H, 0b2H, 0bbH, 0b5H, 0bdH, 0d7H, 0e9H, 0bcH, 0feH, 0b4H, 0b4H
	DB	0bdH, 0a8H, 0baH, 0afH, 0caH, 0fdH, 0a1H, 0b0H, '%s', 0a1H, 0b1H
	DB	':%d', 00H					; `string'
CONST	ENDS
;	COMDAT ??_C@_0BD@LMOFNGMO@?$KB?$LA?$CFs?$KB?$LB?D?$KD?$LP?i?$LM?S?T?X?J?$KH?$LA?$NM@
CONST	SEGMENT
??_C@_0BD@LMOFNGMO@?$KB?$LA?$CFs?$KB?$LB?D?$KD?$LP?i?$LM?S?T?X?J?$KH?$LA?$NM@ DB 0a1H
	DB	0b0H, '%s', 0a1H, 0b1H, 0c4H, 0a3H, 0bfH, 0e9H, 0bcH, 0d3H, 0d4H
	DB	0d8H, 0caH, 0a7H, 0b0H, 0dcH, 00H		; `string'
CONST	ENDS
;	COMDAT ??_C@_0DG@CDIFDKED@g?3?2?M?x?$LK?$PM?2happygamewh?2?$LH?$PO?N?q?$LG?K?2?O?$LF?M?$LD@
CONST	SEGMENT
??_C@_0DG@CDIFDKED@g?3?2?M?x?$LK?$PM?2happygamewh?2?$LH?$PO?N?q?$LG?K?2?O?$LF?M?$LD@ DB 'g'
	DB	':\', 0cdH, 0f8H, 0baH, 0fcH, '\happygamewh\', 0b7H, 0feH, 0ceH
	DB	0f1H, 0b6H, 0cbH, '\', 0cfH, 0b5H, 0cdH, 0b3H, 0c4H, 0a3H, 0bfH
	DB	0e9H, '\', 0c8H, 0abH, 0beH, 0d6H, 0b6H, 0a8H, 0d2H, 0e5H, '\m'
	DB	'odule.h', 00H				; `string'
CONST	ENDS
;	COMDAT ??_C@_0N@DIGHLIGE@ConcludeTime@
CONST	SEGMENT
??_C@_0N@DIGHLIGE@ConcludeTime@ DB 'ConcludeTime', 00H	; `string'
CONST	ENDS
;	COMDAT ??_C@_09MHCEAAPI@StartTime@
CONST	SEGMENT
??_C@_09MHCEAAPI@StartTime@ DB 'StartTime', 00H		; `string'
CONST	ENDS
;	COMDAT ??_C@_0O@EOKEIOEE@MessageString@
CONST	SEGMENT
??_C@_0O@EOKEIOEE@MessageString@ DB 'MessageString', 00H ; `string'
CONST	ENDS
;	COMDAT ??_C@_08MBIPKANE@TimeRate@
CONST	SEGMENT
??_C@_08MBIPKANE@TimeRate@ DB 'TimeRate', 00H		; `string'
CONST	ENDS
;	COMDAT ??_C@_02OLOABKKD@ID@
CONST	SEGMENT
??_C@_02OLOABKKD@ID@ DB 'ID', 00H			; `string'
CONST	ENDS
;	COMDAT ??_C@_0BJ@GFLIDCFB@GSP_GR_LoadSystemMessage@
CONST	SEGMENT
??_C@_0BJ@GFLIDCFB@GSP_GR_LoadSystemMessage@ DB 'GSP_GR_LoadSystemMessage'
	DB	00H						; `string'
CONST	ENDS
;	COMDAT ??_C@_0L@FIEHJJML@?$EAwServerID@
CONST	SEGMENT
??_C@_0L@FIEHJJML@?$EAwServerID@ DB '@wServerID', 00H	; `string'
CONST	ENDS
;	COMDAT ??_C@_0BC@FHFGCAEO@GSP_GP_UseTrumpet@
CONST	SEGMENT
??_C@_0BC@FHFGCAEO@GSP_GP_UseTrumpet@ DB 'GSP_GP_UseTrumpet', 00H ; `string'
CONST	ENDS
;	COMDAT ??_C@_0O@BBLJBDHL@?$EAstrClientIP?5@
CONST	SEGMENT
??_C@_0O@BBLJBDHL@?$EAstrClientIP?5@ DB '@strClientIP ', 00H ; `string'
CONST	ENDS
;	COMDAT ?__LINE__Var@?0??OnRequestTrumpet@CDataBaseEngineSink@@IAE_NKPAXG@Z@4JA
_DATA	SEGMENT
?__LINE__Var@?0??OnRequestTrumpet@CDataBaseEngineSink@@IAE_NKPAXG@Z@4JA DD 0392H ; `CDataBaseEngineSink::OnRequestTrumpet'::`1'::__LINE__Var
_DATA	ENDS
;	COMDAT ??_C@_0BK@GIMHCKOH@GSP_GP_SaveOfflineMessage@
CONST	SEGMENT
??_C@_0BK@GIMHCKOH@GSP_GP_SaveOfflineMessage@ DB 'GSP_GP_SaveOfflineMessa'
	DB	'ge', 00H					; `string'
CONST	ENDS
;	COMDAT ??_C@_0P@CFKJJPGA@?$EAszOfflineData@
CONST	SEGMENT
??_C@_0P@CFKJJPGA@?$EAszOfflineData@ DB '@szOfflineData', 00H ; `string'
CONST	ENDS
;	COMDAT ??_C@_0L@GKGEGMAC@?$EAwDataSize@
CONST	SEGMENT
??_C@_0L@GKGEGMAC@?$EAwDataSize@ DB '@wDataSize', 00H	; `string'
CONST	ENDS
;	COMDAT ??_C@_0O@GONDHLPC@?$EAwMessageType@
CONST	SEGMENT
??_C@_0O@GONDHLPC@?$EAwMessageType@ DB '@wMessageType', 00H ; `string'
CONST	ENDS
;	COMDAT ?__LINE__Var@?0??OnRequestSaveOfflineMessage@CDataBaseEngineSink@@IAE_NKPAXG@Z@4JA
_DATA	SEGMENT
?__LINE__Var@?0??OnRequestSaveOfflineMessage@CDataBaseEngineSink@@IAE_NKPAXG@Z@4JA DD 036eH ; `CDataBaseEngineSink::OnRequestSaveOfflineMessage'::`1'::__LINE__Var
_DATA	ENDS
;	COMDAT ??_C@_0BH@JIPKFPPO@GSP_GP_UpdatePlaceName@
CONST	SEGMENT
??_C@_0BH@JIPKFPPO@GSP_GP_UpdatePlaceName@ DB 'GSP_GP_UpdatePlaceName', 00H ; `string'
CONST	ENDS
;	COMDAT ??_C@_0N@MDOGFMDG@?$EAszPlaceName@
CONST	SEGMENT
??_C@_0N@MDOGFMDG@?$EAszPlaceName@ DB '@szPlaceName', 00H ; `string'
CONST	ENDS
;	COMDAT ?__LINE__Var@?0??OnRequestUpdatePlaceName@CDataBaseEngineSink@@IAE_NKPAXG@Z@4JA
_DATA	SEGMENT
?__LINE__Var@?0??OnRequestUpdatePlaceName@CDataBaseEngineSink@@IAE_NKPAXG@Z@4JA DD 034cH ; `CDataBaseEngineSink::OnRequestUpdatePlaceName'::`1'::__LINE__Var
_DATA	ENDS
;	COMDAT ??_C@_0CL@OKPGMGNM@?$LB?$KH?G?$LI?0?S?I?S?Z?J?$PN?$LO?$NN?$LP?b?$LC?Y?W?w?R?l?$LD?$KD?0?D?z?$LF?D?G?k?G@
CONST	SEGMENT
??_C@_0CL@OKPGMGNM@?$LB?$KH?G?$LI?0?S?I?S?Z?J?$PN?$LO?$NN?$LP?b?$LC?Y?W?w?R?l?$LD?$KD?0?D?z?$LF?D?G?k?G@ DB 0b1H
	DB	0a7H, 0c7H, 0b8H, ',', 0d3H, 0c9H, 0d3H, 0daH, 0caH, 0fdH, 0beH
	DB	0ddH, 0bfH, 0e2H, 0b2H, 0d9H, 0d7H, 0f7H, 0d2H, 0ecH, 0b3H, 0a3H
	DB	',', 0c4H, 0faH, 0b5H, 0c4H, 0c7H, 0ebH, 0c7H, 0f3H, 0ceH, 0deH
	DB	0b7H, 0a8H, 0cdH, 0eaH, 0b3H, 0c9H, 0a3H, 0a1H, 00H ; `string'
CONST	ENDS
;	COMDAT ??_C@_0BC@FMPJFMGP@GSP_GP_SearchUser@
CONST	SEGMENT
??_C@_0BC@FMPJFMGP@GSP_GP_SearchUser@ DB 'GSP_GP_SearchUser', 00H ; `string'
CONST	ENDS
;	COMDAT ??_C@_09OBNFMHID@?$EAdwGameID@
CONST	SEGMENT
??_C@_09OBNFMHID@?$EAdwGameID@ DB '@dwGameID', 00H	; `string'
CONST	ENDS
;	COMDAT ?__LINE__Var@?0??OnRequestSearchUser@CDataBaseEngineSink@@IAE_NKPAXG@Z@4JA
_DATA	SEGMENT
?__LINE__Var@?0??OnRequestSearchUser@CDataBaseEngineSink@@IAE_NKPAXG@Z@4JA DD 0312H ; `CDataBaseEngineSink::OnRequestSearchUser'::`1'::__LINE__Var
_DATA	ENDS
;	COMDAT ??_C@_0BJ@JFABKBII@GSP_GP_ModifyUserRemarks@
CONST	SEGMENT
??_C@_0BJ@JFABKBII@GSP_GP_ModifyUserRemarks@ DB 'GSP_GP_ModifyUserRemarks'
	DB	00H						; `string'
CONST	ENDS
;	COMDAT ??_C@_0P@KAOHGEPI@?$EAszRemarksInfo@
CONST	SEGMENT
??_C@_0P@KAOHGEPI@?$EAszRemarksInfo@ DB '@szRemarksInfo', 00H ; `string'
CONST	ENDS
;	COMDAT ?__LINE__Var@?0??OnRequestModifyRemarks@CDataBaseEngineSink@@IAE_NKPAXG@Z@4JA
_DATA	SEGMENT
?__LINE__Var@?0??OnRequestModifyRemarks@CDataBaseEngineSink@@IAE_NKPAXG@Z@4JA DD 02dfH ; `CDataBaseEngineSink::OnRequestModifyRemarks'::`1'::__LINE__Var
_DATA	ENDS
;	COMDAT ??_C@_0BH@DILBBJMO@GSP_GP_ModifyUserGroup@
CONST	SEGMENT
??_C@_0BH@DILBBJMO@GSP_GP_ModifyUserGroup@ DB 'GSP_GP_ModifyUserGroup', 00H ; `string'
CONST	ENDS
;	COMDAT ??_C@_0O@MLJHDGDF@?$EAstrGroupName@
CONST	SEGMENT
??_C@_0O@MLJHDGDF@?$EAstrGroupName@ DB '@strGroupName', 00H ; `string'
CONST	ENDS
;	COMDAT ?__LINE__Var@?0??OnRequestModifyGroup@CDataBaseEngineSink@@IAE_NKPAXG@Z@4JA
_DATA	SEGMENT
?__LINE__Var@?0??OnRequestModifyGroup@CDataBaseEngineSink@@IAE_NKPAXG@Z@4JA DD 0293H ; `CDataBaseEngineSink::OnRequestModifyGroup'::`1'::__LINE__Var
_DATA	ENDS
;	COMDAT ??_C@_0BI@LPNDAHEL@GSP_GP_DeleteUserFriend@
CONST	SEGMENT
??_C@_0BI@LPNDAHEL@GSP_GP_DeleteUserFriend@ DB 'GSP_GP_DeleteUserFriend', 00H ; `string'
CONST	ENDS
;	COMDAT ?__LINE__Var@?0??OnRequestDeleteFriend@CDataBaseEngineSink@@IAE_NKPAXG@Z@4JA
_DATA	SEGMENT
?__LINE__Var@?0??OnRequestDeleteFriend@CDataBaseEngineSink@@IAE_NKPAXG@Z@4JA DD 0261H ; `CDataBaseEngineSink::OnRequestDeleteFriend'::`1'::__LINE__Var
_DATA	ENDS
;	COMDAT ??_C@_0BF@GFGAEEKM@GSP_GP_AddUserFriend@
CONST	SEGMENT
??_C@_0BF@GFGAEEKM@GSP_GP_AddUserFriend@ DB 'GSP_GP_AddUserFriend', 00H ; `string'
CONST	ENDS
;	COMDAT ??_C@_0BA@JCDGDHKF@?$EAcbLoadUserInfo@
CONST	SEGMENT
??_C@_0BA@JCDGDHKF@?$EAcbLoadUserInfo@ DB '@cbLoadUserInfo', 00H ; `string'
CONST	ENDS
;	COMDAT ??_C@_0P@MOENBMCB@?$EAcbDestGroupID@
CONST	SEGMENT
??_C@_0P@MOENBMCB@?$EAcbDestGroupID@ DB '@cbDestGroupID', 00H ; `string'
CONST	ENDS
;	COMDAT ??_C@_0O@MGOPHJEC@?$EAdwDestUserID@
CONST	SEGMENT
??_C@_0O@MGOPHJEC@?$EAdwDestUserID@ DB '@dwDestUserID', 00H ; `string'
CONST	ENDS
;	COMDAT ?__LINE__Var@?0??OnRequestAddFriend@CDataBaseEngineSink@@IAE_NKPAXG@Z@4JA
_DATA	SEGMENT
?__LINE__Var@?0??OnRequestAddFriend@CDataBaseEngineSink@@IAE_NKPAXG@Z@4JA DD 0212H ; `CDataBaseEngineSink::OnRequestAddFriend'::`1'::__LINE__Var
_DATA	ENDS
;	COMDAT ??_C@_0BI@BCODNHPM@GSP_GP_ModifyUserFriend@
CONST	SEGMENT
??_C@_0BI@BCODNHPM@GSP_GP_ModifyUserFriend@ DB 'GSP_GP_ModifyUserFriend', 00H ; `string'
CONST	ENDS
;	COMDAT ??_C@_0L@BKCLAFLJ@?$EAcbGroupID@
CONST	SEGMENT
??_C@_0L@BKCLAFLJ@?$EAcbGroupID@ DB '@cbGroupID', 00H	; `string'
CONST	ENDS
;	COMDAT ??_C@_0P@FPAAEPDL@?$EAcbOperateKind@
CONST	SEGMENT
??_C@_0P@FPAAEPDL@?$EAcbOperateKind@ DB '@cbOperateKind', 00H ; `string'
CONST	ENDS
;	COMDAT ??_C@_0BA@PEHFKMKN@?$EAdwFriendUserID@
CONST	SEGMENT
??_C@_0BA@PEHFKMKN@?$EAdwFriendUserID@ DB '@dwFriendUserID', 00H ; `string'
CONST	ENDS
;	COMDAT ?__LINE__Var@?0??OnRequestModifyFriend@CDataBaseEngineSink@@IAE_NKPAXG@Z@4JA
_DATA	SEGMENT
?__LINE__Var@?0??OnRequestModifyFriend@CDataBaseEngineSink@@IAE_NKPAXG@Z@4JA DD 01d7H ; `CDataBaseEngineSink::OnRequestModifyFriend'::`1'::__LINE__Var
_DATA	ENDS
;	COMDAT ??_C@_0DH@NMJACNII@?S?I?S?Z?J?$PN?$LO?$NN?$LP?b?$LC?Y?W?w?R?l?$LD?$KD?$KD?$KM?G?k?D?z?I?T?$LK?s?V?X?J@
CONST	SEGMENT
??_C@_0DH@NMJACNII@?S?I?S?Z?J?$PN?$LO?$NN?$LP?b?$LC?Y?W?w?R?l?$LD?$KD?$KD?$KM?G?k?D?z?I?T?$LK?s?V?X?J@ DB 0d3H
	DB	0c9H, 0d3H, 0daH, 0caH, 0fdH, 0beH, 0ddH, 0bfH, 0e2H, 0b2H, 0d9H
	DB	0d7H, 0f7H, 0d2H, 0ecH, 0b3H, 0a3H, 0a3H, 0acH, 0c7H, 0ebH, 0c4H
	DB	0faH, 0c9H, 0d4H, 0baH, 0f3H, 0d6H, 0d8H, 0caH, 0d4H, 0bbH, 0f2H
	DB	0d1H, 0a1H, 0d4H, 0f1H, 0c1H, 0edH, 0d2H, 0bbH, 0b7H, 0feH, 0ceH
	DB	0f1H, 0c6H, 0f7H, 0b5H, 0c7H, 0c2H, 0bcH, 0a3H, 0a1H, 00H ; `string'
CONST	ENDS
;	COMDAT ??_C@_0M@FFPBKNKJ@OfflineData@
CONST	SEGMENT
??_C@_0M@FFPBKNKJ@OfflineData@ DB 'OfflineData', 00H	; `string'
CONST	ENDS
;	COMDAT ??_C@_08CFDHEOEO@DataSize@
CONST	SEGMENT
??_C@_08CFDHEOEO@DataSize@ DB 'DataSize', 00H		; `string'
CONST	ENDS
;	COMDAT ??_C@_0M@ECIDEJHH@MessageType@
CONST	SEGMENT
??_C@_0M@ECIDEJHH@MessageType@ DB 'MessageType', 00H	; `string'
CONST	ENDS
;	COMDAT ??_C@_0BK@LIJMOBAN@GSP_GP_LoadOfflineMessage@
CONST	SEGMENT
??_C@_0BK@LIJMOBAN@GSP_GP_LoadOfflineMessage@ DB 'GSP_GP_LoadOfflineMessa'
	DB	'ge', 00H					; `string'
CONST	ENDS
;	COMDAT ??_C@_08FDHMOIIA@UserNote@
CONST	SEGMENT
??_C@_08FDHMOIIA@UserNote@ DB 'UserNote', 00H		; `string'
CONST	ENDS
;	COMDAT ??_C@_0BJ@KGPDMKAJ@GSP_GP_LoadFriendRemarks@
CONST	SEGMENT
??_C@_0BJ@KGPDMKAJ@GSP_GP_LoadFriendRemarks@ DB 'GSP_GP_LoadFriendRemarks'
	DB	00H						; `string'
CONST	ENDS
;	COMDAT ??_C@_0L@FEKLBNBC@PostalCode@
CONST	SEGMENT
??_C@_0L@FEKLBNBC@PostalCode@ DB 'PostalCode', 00H	; `string'
CONST	ENDS
;	COMDAT ??_C@_0O@GKEPGAEM@DwellingPlace@
CONST	SEGMENT
??_C@_0O@GKEPGAEM@DwellingPlace@ DB 'DwellingPlace', 00H ; `string'
CONST	ENDS
;	COMDAT ??_C@_0M@OJIHCJC@MobilePhone@
CONST	SEGMENT
??_C@_0M@OJIHCJC@MobilePhone@ DB 'MobilePhone', 00H	; `string'
CONST	ENDS
;	COMDAT ??_C@_09MAIOJANC@SeatPhone@
CONST	SEGMENT
??_C@_09MAIOJANC@SeatPhone@ DB 'SeatPhone', 00H		; `string'
CONST	ENDS
;	COMDAT ??_C@_05LMBPBNBJ@EMail@
CONST	SEGMENT
??_C@_05LMBPBNBJ@EMail@ DB 'EMail', 00H			; `string'
CONST	ENDS
;	COMDAT ??_C@_02MOGAAOHP@QQ@
CONST	SEGMENT
??_C@_02MOGAAOHP@QQ@ DB 'QQ', 00H			; `string'
CONST	ENDS
;	COMDAT ??_C@_0N@CLIEFGAF@Compellation@
CONST	SEGMENT
??_C@_0N@CLIEFGAF@Compellation@ DB 'Compellation', 00H	; `string'
CONST	ENDS
;	COMDAT ??_C@_0L@CPAJNIME@UnderWrite@
CONST	SEGMENT
??_C@_0L@CPAJNIME@UnderWrite@ DB 'UnderWrite', 00H	; `string'
CONST	ENDS
;	COMDAT ??_C@_08CELDJAGK@NickName@
CONST	SEGMENT
??_C@_08CELDJAGK@NickName@ DB 'NickName', 00H		; `string'
CONST	ENDS
;	COMDAT ??_C@_09HOAKNMLL@GrowLevel@
CONST	SEGMENT
??_C@_09HOAKNMLL@GrowLevel@ DB 'GrowLevel', 00H		; `string'
CONST	ENDS
;	COMDAT ??_C@_0M@CEFIIFDG@MemberOrder@
CONST	SEGMENT
??_C@_0M@CEFIIFDG@MemberOrder@ DB 'MemberOrder', 00H	; `string'
CONST	ENDS
;	COMDAT ??_C@_06HKFFEOFI@Gender@
CONST	SEGMENT
??_C@_06HKFFEOFI@Gender@ DB 'Gender', 00H		; `string'
CONST	ENDS
;	COMDAT ??_C@_08GOBKDNAK@CustomID@
CONST	SEGMENT
??_C@_08GOBKDNAK@CustomID@ DB 'CustomID', 00H		; `string'
CONST	ENDS
;	COMDAT ??_C@_06LPNEIKNP@FaceID@
CONST	SEGMENT
??_C@_06LPNEIKNP@FaceID@ DB 'FaceID', 00H		; `string'
CONST	ENDS
;	COMDAT ??_C@_06KGJDDPAK@GameID@
CONST	SEGMENT
??_C@_06KGJDDPAK@GameID@ DB 'GameID', 00H		; `string'
CONST	ENDS
;	COMDAT ??_C@_06OFHCDFJK@UserID@
CONST	SEGMENT
??_C@_06OFHCDFJK@UserID@ DB 'UserID', 00H		; `string'
CONST	ENDS
;	COMDAT ??_C@_0BH@LNCMBLMH@GSP_GP_LoadUserFriends@
CONST	SEGMENT
??_C@_0BH@LNCMBLMH@GSP_GP_LoadUserFriends@ DB 'GSP_GP_LoadUserFriends', 00H ; `string'
CONST	ENDS
;	COMDAT ??_C@_09DOCDJBIG@GroupName@
CONST	SEGMENT
??_C@_09DOCDJBIG@GroupName@ DB 'GroupName', 00H		; `string'
CONST	ENDS
;	COMDAT ??_C@_07IKIDGEIC@GroupID@
CONST	SEGMENT
??_C@_07IKIDGEIC@GroupID@ DB 'GroupID', 00H		; `string'
CONST	ENDS
;	COMDAT ??_C@_0BG@DCPAFIBB@GSP_GP_LoadUserGroups@
CONST	SEGMENT
??_C@_0BG@DCPAFIBB@GSP_GP_LoadUserGroups@ DB 'GSP_GP_LoadUserGroups', 00H ; `string'
CONST	ENDS
;	COMDAT ??_C@_0BM@NOBDEOGG@GSP_GP_EfficacyAccountsChat@
CONST	SEGMENT
??_C@_0BM@NOBDEOGG@GSP_GP_EfficacyAccountsChat@ DB 'GSP_GP_EfficacyAccoun'
	DB	'tsChat', 00H				; `string'
CONST	ENDS
;	COMDAT ??_C@_0BC@IIOJPJPJ@?$EAstrErrorDescribe@
CONST	SEGMENT
??_C@_0BC@IIOJPJPJ@?$EAstrErrorDescribe@ DB '@strErrorDescribe', 00H ; `string'
CONST	ENDS
;	COMDAT ??_C@_0N@IDHGAHBD@?$EAstrClientIP@
CONST	SEGMENT
??_C@_0N@IDHGAHBD@?$EAstrClientIP@ DB '@strClientIP', 00H ; `string'
CONST	ENDS
;	COMDAT ??_C@_0N@OCODJCJL@?$EAstrPassword@
CONST	SEGMENT
??_C@_0N@OCODJCJL@?$EAstrPassword@ DB '@strPassword', 00H ; `string'
CONST	ENDS
;	COMDAT ??_C@_09KCDEMNBD@?$EAdwUserID@
CONST	SEGMENT
??_C@_09KCDEMNBD@?$EAdwUserID@ DB '@dwUserID', 00H	; `string'
CONST	ENDS
;	COMDAT ??_C@_0M@PCENNPGA@?$CFd?4?$CFd?4?$CFd?4?$CFd@
CONST	SEGMENT
??_C@_0M@PCENNPGA@?$CFd?4?$CFd?4?$CFd?4?$CFd@ DB '%d.%d.%d.%d', 00H ; `string'
CONST	ENDS
;	COMDAT ?__LINE__Var@?0??OnRequestLogonUserID@CDataBaseEngineSink@@IAE_NKPAXG@Z@4JA
_DATA	SEGMENT
?__LINE__Var@?0??OnRequestLogonUserID@CDataBaseEngineSink@@IAE_NKPAXG@Z@4JA DD 0d8H ; `CDataBaseEngineSink::OnRequestLogonUserID'::`1'::__LINE__Var
_DATA	ENDS
;	COMDAT ?__LINE__Var@?0??OnDataBaseEngineRequest@CDataBaseEngineSink@@UAE_NGKPAXG@Z@4JA
_DATA	SEGMENT
?__LINE__Var@?0??OnDataBaseEngineRequest@CDataBaseEngineSink@@UAE_NGKPAXG@Z@4JA DD 09aH ; `CDataBaseEngineSink::OnDataBaseEngineRequest'::`1'::__LINE__Var
_DATA	ENDS
;	COMDAT ??_R0PAUIDataBaseException@@@8
data$r	SEGMENT
??_R0PAUIDataBaseException@@@8 DD FLAT:??_7type_info@@6B@ ; IDataBaseException * `RTTI Type Descriptor'
	DD	00H
	DB	'.PAUIDataBaseException@@', 00H
data$r	ENDS
;	COMDAT ?__LINE__Var@?0??OnDataBaseEngineStart@CDataBaseEngineSink@@UAE_NPAUIUnknownEx@@@Z@4JA
_DATA	SEGMENT
?__LINE__Var@?0??OnDataBaseEngineStart@CDataBaseEngineSink@@UAE_NPAUIUnknownEx@@@Z@4JA DD 029H ; `CDataBaseEngineSink::OnDataBaseEngineStart'::`1'::__LINE__Var
_DATA	ENDS
_DATA	SEGMENT
?THIS_FILE@@3PADA DB 'g:\', 0cdH, 0f8H, 0baH, 0fcH, '\happygamewh\', 0b7H
	DB	0feH, 0ceH, 0f1H, 0b6H, 0cbH, '\', 0cfH, 0b5H, 0cdH, 0b3H, 0c4H
	DB	0a3H, 0bfH, 0e9H, '\', 0b7H, 0feH, 0ceH, 0f1H, 0c6H, 0f7H, 0d7H
	DB	0e9H, 0bcH, 0feH, '\', 0c1H, 0c4H, 0ccH, 0ecH, 0b7H, 0feH, 0ceH
	DB	0f1H, 0c6H, 0f7H, '\databaseenginesink.cpp', 00H ; THIS_FILE
_DATA	ENDS
;	COMDAT ??_7CDataBaseEngineSink@@6B@
CONST	SEGMENT
??_7CDataBaseEngineSink@@6B@ DD FLAT:??_R4CDataBaseEngineSink@@6B@ ; CDataBaseEngineSink::`vftable'
	DD	FLAT:?Release@CDataBaseEngineSink@@UAEXXZ
	DD	FLAT:?QueryInterface@CDataBaseEngineSink@@UAEPAXABU_GUID@@K@Z
	DD	FLAT:?OnDataBaseEngineStart@CDataBaseEngineSink@@UAE_NPAUIUnknownEx@@@Z
	DD	FLAT:?OnDataBaseEngineConclude@CDataBaseEngineSink@@UAE_NPAUIUnknownEx@@@Z
	DD	FLAT:?OnDataBaseEngineTimer@CDataBaseEngineSink@@UAE_NKI@Z
	DD	FLAT:?OnDataBaseEngineControl@CDataBaseEngineSink@@UAE_NGPAXG@Z
	DD	FLAT:?OnDataBaseEngineRequest@CDataBaseEngineSink@@UAE_NGKPAXG@Z
	DD	FLAT:??_ECDataBaseEngineSink@@UAEPAXI@Z
CONST	ENDS
;	COMDAT ??_R4?$CTempldateHelper@UIDataBase@@@@6B@
rdata$r	SEGMENT
??_R4?$CTempldateHelper@UIDataBase@@@@6B@ DD 00H	; CTempldateHelper<IDataBase>::`RTTI Complete Object Locator'
	DD	00H
	DD	00H
	DD	FLAT:??_R0?AV?$CTempldateHelper@UIDataBase@@@@@8
	DD	FLAT:??_R3?$CTempldateHelper@UIDataBase@@@@8
rdata$r	ENDS
;	COMDAT ??_R2?$CTempldateHelper@UIDataBase@@@@8
rdata$r	SEGMENT
??_R2?$CTempldateHelper@UIDataBase@@@@8 DD FLAT:??_R1A@?0A@EA@?$CTempldateHelper@UIDataBase@@@@8 ; CTempldateHelper<IDataBase>::`RTTI Base Class Array'
rdata$r	ENDS
;	COMDAT ??_R3?$CTempldateHelper@UIDataBase@@@@8
rdata$r	SEGMENT
??_R3?$CTempldateHelper@UIDataBase@@@@8 DD 00H		; CTempldateHelper<IDataBase>::`RTTI Class Hierarchy Descriptor'
	DD	00H
	DD	01H
	DD	FLAT:??_R2?$CTempldateHelper@UIDataBase@@@@8
rdata$r	ENDS
;	COMDAT ??_R0?AV?$CTempldateHelper@UIDataBase@@@@@8
data$r	SEGMENT
??_R0?AV?$CTempldateHelper@UIDataBase@@@@@8 DD FLAT:??_7type_info@@6B@ ; CTempldateHelper<IDataBase> `RTTI Type Descriptor'
	DD	00H
	DB	'.?AV?$CTempldateHelper@UIDataBase@@@@', 00H
data$r	ENDS
;	COMDAT ??_R1A@?0A@EA@?$CTempldateHelper@UIDataBase@@@@8
rdata$r	SEGMENT
??_R1A@?0A@EA@?$CTempldateHelper@UIDataBase@@@@8 DD FLAT:??_R0?AV?$CTempldateHelper@UIDataBase@@@@@8 ; CTempldateHelper<IDataBase>::`RTTI Base Class Descriptor at (0,-1,0,64)'
	DD	00H
	DD	00H
	DD	0ffffffffH
	DD	00H
	DD	040H
	DD	FLAT:??_R3?$CTempldateHelper@UIDataBase@@@@8
rdata$r	ENDS
;	COMDAT ??_R1A@?0A@EA@CDataBaseHelper@@8
rdata$r	SEGMENT
??_R1A@?0A@EA@CDataBaseHelper@@8 DD FLAT:??_R0?AVCDataBaseHelper@@@8 ; CDataBaseHelper::`RTTI Base Class Descriptor at (0,-1,0,64)'
	DD	01H
	DD	00H
	DD	0ffffffffH
	DD	00H
	DD	040H
	DD	FLAT:??_R3CDataBaseHelper@@8
rdata$r	ENDS
;	COMDAT ??_R2CDataBaseHelper@@8
rdata$r	SEGMENT
??_R2CDataBaseHelper@@8 DD FLAT:??_R1A@?0A@EA@CDataBaseHelper@@8 ; CDataBaseHelper::`RTTI Base Class Array'
	DD	FLAT:??_R1A@?0A@EA@?$CTempldateHelper@UIDataBase@@@@8
rdata$r	ENDS
;	COMDAT ??_R3CDataBaseHelper@@8
rdata$r	SEGMENT
??_R3CDataBaseHelper@@8 DD 00H				; CDataBaseHelper::`RTTI Class Hierarchy Descriptor'
	DD	00H
	DD	02H
	DD	FLAT:??_R2CDataBaseHelper@@8
rdata$r	ENDS
;	COMDAT ??_R0?AVCDataBaseHelper@@@8
data$r	SEGMENT
??_R0?AVCDataBaseHelper@@@8 DD FLAT:??_7type_info@@6B@	; CDataBaseHelper `RTTI Type Descriptor'
	DD	00H
	DB	'.?AVCDataBaseHelper@@', 00H
data$r	ENDS
;	COMDAT ??_R4CDataBaseHelper@@6B@
rdata$r	SEGMENT
??_R4CDataBaseHelper@@6B@ DD 00H			; CDataBaseHelper::`RTTI Complete Object Locator'
	DD	00H
	DD	00H
	DD	FLAT:??_R0?AVCDataBaseHelper@@@8
	DD	FLAT:??_R3CDataBaseHelper@@8
rdata$r	ENDS
;	COMDAT ??_C@_1BK@NHECDDNK@?$AAm?$AA_?$AAp?$AAD?$AAa?$AAt?$AAa?$AA?5?$AA?$DN?$AA?$DN?$AA?5?$AA0@
CONST	SEGMENT
??_C@_1BK@NHECDDNK@?$AAm?$AA_?$AAp?$AAD?$AAa?$AAt?$AAa?$AA?5?$AA?$DN?$AA?$DN?$AA?5?$AA0@ DB 'm'
	DB	00H, '_', 00H, 'p', 00H, 'D', 00H, 'a', 00H, 't', 00H, 'a', 00H
	DB	' ', 00H, '=', 00H, '=', 00H, ' ', 00H, '0', 00H, 00H, 00H ; `string'
CONST	ENDS
;	COMDAT ??_C@_0BB@BEMLEOHB@KernelEngine?4dll@
CONST	SEGMENT
??_C@_0BB@BEMLEOHB@KernelEngine?4dll@ DB 'KernelEngine.dll', 00H ; `string'
CONST	ENDS
;	COMDAT ??_C@_0P@IKJBDFNG@CreateDataBase@
CONST	SEGMENT
??_C@_0P@IKJBDFNG@CreateDataBase@ DB 'CreateDataBase', 00H ; `string'
CONST	ENDS
;	COMDAT ??_7CDataBaseHelper@@6B@
CONST	SEGMENT
??_7CDataBaseHelper@@6B@ DD FLAT:??_R4CDataBaseHelper@@6B@ ; CDataBaseHelper::`vftable'
	DD	FLAT:??_ECDataBaseHelper@@UAEPAXI@Z
CONST	ENDS
;	COMDAT ??_7?$CTempldateHelper@UIDataBase@@@@6B@
CONST	SEGMENT
??_7?$CTempldateHelper@UIDataBase@@@@6B@ DD FLAT:??_R4?$CTempldateHelper@UIDataBase@@@@6B@ ; CTempldateHelper<IDataBase>::`vftable'
	DD	FLAT:??_E?$CTempldateHelper@UIDataBase@@@@UAEPAXI@Z
CONST	ENDS
;	COMDAT ??_7IDataBaseEngineSink@@6B@
CONST	SEGMENT
??_7IDataBaseEngineSink@@6B@ DD FLAT:??_R4IDataBaseEngineSink@@6B@ ; IDataBaseEngineSink::`vftable'
	DD	FLAT:__purecall
	DD	FLAT:__purecall
	DD	FLAT:__purecall
	DD	FLAT:__purecall
	DD	FLAT:__purecall
	DD	FLAT:__purecall
	DD	FLAT:__purecall
CONST	ENDS
;	COMDAT ??_7IUnknownEx@@6B@
CONST	SEGMENT
??_7IUnknownEx@@6B@ DD FLAT:??_R4IUnknownEx@@6B@	; IUnknownEx::`vftable'
	DD	FLAT:__purecall
	DD	FLAT:__purecall
CONST	ENDS
;	COMDAT ??_C@_00CNPNBAHC@@
CONST	SEGMENT
??_C@_00CNPNBAHC@@ DB 00H				; `string'
CONST	ENDS
;	COMDAT ??_C@_1BK@NHHHCKNA@?$AAm?$AA_?$AAt?$AAi?$AAm?$AAe?$AA?5?$AA?$CB?$AA?$DN?$AA?5?$AA?9?$AA1@
CONST	SEGMENT
??_C@_1BK@NHHHCKNA@?$AAm?$AA_?$AAt?$AAi?$AAm?$AAe?$AA?5?$AA?$CB?$AA?$DN?$AA?5?$AA?9?$AA1@ DB 'm'
	DB	00H, '_', 00H, 't', 00H, 'i', 00H, 'm', 00H, 'e', 00H, ' ', 00H
	DB	'!', 00H, '=', 00H, ' ', 00H, '-', 00H, '1', 00H, 00H, 00H ; `string'
CONST	ENDS
;	COMDAT ??_C@_1OC@IALJLBM@?$AAc?$AA?3?$AA?2?$AAp?$AAr?$AAo?$AAg?$AAr?$AAa?$AAm?$AA?5?$AAf?$AAi?$AAl?$AAe@
CONST	SEGMENT
??_C@_1OC@IALJLBM@?$AAc?$AA?3?$AA?2?$AAp?$AAr?$AAo?$AAg?$AAr?$AAa?$AAm?$AA?5?$AAf?$AAi?$AAl?$AAe@ DB 'c'
	DB	00H, ':', 00H, '\', 00H, 'p', 00H, 'r', 00H, 'o', 00H, 'g', 00H
	DB	'r', 00H, 'a', 00H, 'm', 00H, ' ', 00H, 'f', 00H, 'i', 00H, 'l'
	DB	00H, 'e', 00H, 's', 00H, ' ', 00H, '(', 00H, 'x', 00H, '8', 00H
	DB	'6', 00H, ')', 00H, '\', 00H, 'm', 00H, 'i', 00H, 'c', 00H, 'r'
	DB	00H, 'o', 00H, 's', 00H, 'o', 00H, 'f', 00H, 't', 00H, ' ', 00H
	DB	'v', 00H, 'i', 00H, 's', 00H, 'u', 00H, 'a', 00H, 'l', 00H, ' '
	DB	00H, 's', 00H, 't', 00H, 'u', 00H, 'd', 00H, 'i', 00H, 'o', 00H
	DB	'\', 00H, '2', 00H, '0', 00H, '1', 00H, '7', 00H, '\', 00H, 'c'
	DB	00H, 'o', 00H, 'm', 00H, 'm', 00H, 'u', 00H, 'n', 00H, 'i', 00H
	DB	't', 00H, 'y', 00H, '\', 00H, 'v', 00H, 'c', 00H, '\', 00H, 't'
	DB	00H, 'o', 00H, 'o', 00H, 'l', 00H, 's', 00H, '\', 00H, 'm', 00H
	DB	's', 00H, 'v', 00H, 'c', 00H, '\', 00H, '1', 00H, '4', 00H, '.'
	DB	00H, '1', 00H, '6', 00H, '.', 00H, '2', 00H, '7', 00H, '0', 00H
	DB	'2', 00H, '3', 00H, '\', 00H, 'a', 00H, 't', 00H, 'l', 00H, 'm'
	DB	00H, 'f', 00H, 'c', 00H, '\', 00H, 'i', 00H, 'n', 00H, 'c', 00H
	DB	'l', 00H, 'u', 00H, 'd', 00H, 'e', 00H, '\', 00H, 'a', 00H, 't'
	DB	00H, 'l', 00H, 't', 00H, 'i', 00H, 'm', 00H, 'e', 00H, '.', 00H
	DB	'h', 00H, 00H, 00H				; `string'
CONST	ENDS
;	COMDAT ?__LINE__Var@?0???0CTime@ATL@@QAE@HHHHHHH@Z@4JA
_DATA	SEGMENT
?__LINE__Var@?0???0CTime@ATL@@QAE@HHHHHHH@Z@4JA DD 01adH ; `ATL::CTime::CTime'::`1'::__LINE__Var
_DATA	ENDS
;	COMDAT ??_C@_1BM@GBBOFEAE@?$AA_?$AA_?$AAa?$AAt?$AAl?$AA_?$AAc?$AAo?$AAn?$AAd?$AAV?$AAa?$AAl@
CONST	SEGMENT
??_C@_1BM@GBBOFEAE@?$AA_?$AA_?$AAa?$AAt?$AAl?$AA_?$AAc?$AAo?$AAn?$AAd?$AAV?$AAa?$AAl@ DB '_'
	DB	00H, '_', 00H, 'a', 00H, 't', 00H, 'l', 00H, '_', 00H, 'c', 00H
	DB	'o', 00H, 'n', 00H, 'd', 00H, 'V', 00H, 'a', 00H, 'l', 00H, 00H
	DB	00H						; `string'
CONST	ENDS
;	COMDAT ??_C@_0BF@IAAKIJDJ@AtlThrow?3?5hr?5?$DN?50x?$CFx?6@
CONST	SEGMENT
??_C@_0BF@IAAKIJDJ@AtlThrow?3?5hr?5?$DN?50x?$CFx?6@ DB 'AtlThrow: hr = 0x'
	DB	'%x', 0aH, 00H				; `string'
CONST	ENDS
;	COMDAT ??_C@_0HD@OEBHCJKM@c?3?2program?5files?5?$CIx86?$CJ?2microsof@
CONST	SEGMENT
??_C@_0HD@OEBHCJKM@c?3?2program?5files?5?$CIx86?$CJ?2microsof@ DB 'c:\pro'
	DB	'gram files (x86)\microsoft visual studio\2017\community\vc\to'
	DB	'ols\msvc\14.16.27023\atlmfc\include\atlexcept.h', 00H ; `string'
CONST	ENDS
;	COMDAT ?__LINE__Var@?0??AtlThrowImpl@ATL@@YGXJ@Z@4JA
_DATA	SEGMENT
?__LINE__Var@?0??AtlThrowImpl@ATL@@YGXJ@Z@4JA DD 041H	; `ATL::AtlThrowImpl'::`1'::__LINE__Var
_DATA	ENDS
;	COMDAT ??_C@_1OE@PDFAMNPL@?$AAc?$AA?3?$AA?2?$AAp?$AAr?$AAo?$AAg?$AAr?$AAa?$AAm?$AA?5?$AAf?$AAi?$AAl?$AAe@
CONST	SEGMENT
??_C@_1OE@PDFAMNPL@?$AAc?$AA?3?$AA?2?$AAp?$AAr?$AAo?$AAg?$AAr?$AAa?$AAm?$AA?5?$AAf?$AAi?$AAl?$AAe@ DB 'c'
	DB	00H, ':', 00H, '\', 00H, 'p', 00H, 'r', 00H, 'o', 00H, 'g', 00H
	DB	'r', 00H, 'a', 00H, 'm', 00H, ' ', 00H, 'f', 00H, 'i', 00H, 'l'
	DB	00H, 'e', 00H, 's', 00H, ' ', 00H, '(', 00H, 'x', 00H, '8', 00H
	DB	'6', 00H, ')', 00H, '\', 00H, 'm', 00H, 'i', 00H, 'c', 00H, 'r'
	DB	00H, 'o', 00H, 's', 00H, 'o', 00H, 'f', 00H, 't', 00H, ' ', 00H
	DB	'v', 00H, 'i', 00H, 's', 00H, 'u', 00H, 'a', 00H, 'l', 00H, ' '
	DB	00H, 's', 00H, 't', 00H, 'u', 00H, 'd', 00H, 'i', 00H, 'o', 00H
	DB	'\', 00H, '2', 00H, '0', 00H, '1', 00H, '7', 00H, '\', 00H, 'c'
	DB	00H, 'o', 00H, 'm', 00H, 'm', 00H, 'u', 00H, 'n', 00H, 'i', 00H
	DB	't', 00H, 'y', 00H, '\', 00H, 'v', 00H, 'c', 00H, '\', 00H, 't'
	DB	00H, 'o', 00H, 'o', 00H, 'l', 00H, 's', 00H, '\', 00H, 'm', 00H
	DB	's', 00H, 'v', 00H, 'c', 00H, '\', 00H, '1', 00H, '4', 00H, '.'
	DB	00H, '1', 00H, '6', 00H, '.', 00H, '2', 00H, '7', 00H, '0', 00H
	DB	'2', 00H, '3', 00H, '\', 00H, 'a', 00H, 't', 00H, 'l', 00H, 'm'
	DB	00H, 'f', 00H, 'c', 00H, '\', 00H, 'i', 00H, 'n', 00H, 'c', 00H
	DB	'l', 00H, 'u', 00H, 'd', 00H, 'e', 00H, '\', 00H, 'a', 00H, 't'
	DB	00H, 'l', 00H, 't', 00H, 'r', 00H, 'a', 00H, 'c', 00H, 'e', 00H
	DB	'.', 00H, 'h', 00H, 00H, 00H			; `string'
CONST	ENDS
;	COMDAT ??_C@_1EO@EBPPKGOM@?$AAf?$AAa?$AAl?$AAs?$AAe?$AA?5?$AA?$CG?$AA?$CG?$AA?5?$AA?$CC?$AAT?$AAo?$AAo?$AA?5?$AAm@
CONST	SEGMENT
??_C@_1EO@EBPPKGOM@?$AAf?$AAa?$AAl?$AAs?$AAe?$AA?5?$AA?$CG?$AA?$CG?$AA?5?$AA?$CC?$AAT?$AAo?$AAo?$AA?5?$AAm@ DB 'f'
	DB	00H, 'a', 00H, 'l', 00H, 's', 00H, 'e', 00H, ' ', 00H, '&', 00H
	DB	'&', 00H, ' ', 00H, '"', 00H, 'T', 00H, 'o', 00H, 'o', 00H, ' '
	DB	00H, 'm', 00H, 'a', 00H, 'n', 00H, 'y', 00H, ' ', 00H, 'c', 00H
	DB	'a', 00H, 't', 00H, 'e', 00H, 'g', 00H, 'o', 00H, 'r', 00H, 'i'
	DB	00H, 'e', 00H, 's', 00H, ' ', 00H, 'd', 00H, 'e', 00H, 'f', 00H
	DB	'i', 00H, 'n', 00H, 'e', 00H, 'd', 00H, '"', 00H, 00H, 00H ; `string'
CONST	ENDS
;	COMDAT ??_C@_17LGGGMOOB@?$AA?$CF?$AAh?$AAs@
CONST	SEGMENT
??_C@_17LGGGMOOB@?$AA?$CF?$AAh?$AAs@ DB '%', 00H, 'h', 00H, 's', 00H, 00H
	DB	00H						; `string'
CONST	ENDS
;	COMDAT ??_C@_1O@OAIPCDPO@?$AA?$CF?$AAl?$AAs?$AA?$CF?$AAl?$AAs@
CONST	SEGMENT
??_C@_1O@OAIPCDPO@?$AA?$CF?$AAl?$AAs?$AA?$CF?$AAl?$AAs@ DB '%', 00H, 'l', 00H
	DB	's', 00H, '%', 00H, 'l', 00H, 's', 00H, 00H, 00H ; `string'
CONST	ENDS
;	COMDAT ??_C@_1M@PGKOAACE@?$AA?$CF?$AAu?$AA?5?$AA?9?$AA?5@
CONST	SEGMENT
??_C@_1M@PGKOAACE@?$AA?$CF?$AAu?$AA?5?$AA?9?$AA?5@ DB '%', 00H, 'u', 00H, ' '
	DB	00H, '-', 00H, ' ', 00H, 00H, 00H		; `string'
CONST	ENDS
;	COMDAT ??_C@_1O@LFNDFEBP@?$AA?$CF?$AAl?$AAs?$AA?5?$AA?9?$AA?5@
CONST	SEGMENT
??_C@_1O@LFNDFEBP@?$AA?$CF?$AAl?$AAs?$AA?5?$AA?9?$AA?5@ DB '%', 00H, 'l', 00H
	DB	's', 00H, ' ', 00H, '-', 00H, ' ', 00H, 00H, 00H ; `string'
CONST	ENDS
;	COMDAT ?m_nCategory@CTrace@ATL@@1IA
_DATA	SEGMENT
?m_nCategory@CTrace@ATL@@1IA DD 0ffffffffH		; ATL::CTrace::m_nCategory
_DATA	ENDS
;	COMDAT ??_C@_0BC@PGMFNIFA@atlTraceException@
CONST	SEGMENT
??_C@_0BC@PGMFNIFA@atlTraceException@ DB 'atlTraceException', 00H ; `string'
CONST	ENDS
;	COMDAT ??_C@_1OC@PNEKCFJL@?$AAc?$AA?3?$AA?2?$AAp?$AAr?$AAo?$AAg?$AAr?$AAa?$AAm?$AA?5?$AAf?$AAi?$AAl?$AAe@
CONST	SEGMENT
??_C@_1OC@PNEKCFJL@?$AAc?$AA?3?$AA?2?$AAp?$AAr?$AAo?$AAg?$AAr?$AAa?$AAm?$AA?5?$AAf?$AAi?$AAl?$AAe@ DB 'c'
	DB	00H, ':', 00H, '\', 00H, 'p', 00H, 'r', 00H, 'o', 00H, 'g', 00H
	DB	'r', 00H, 'a', 00H, 'm', 00H, ' ', 00H, 'f', 00H, 'i', 00H, 'l'
	DB	00H, 'e', 00H, 's', 00H, ' ', 00H, '(', 00H, 'x', 00H, '8', 00H
	DB	'6', 00H, ')', 00H, '\', 00H, 'm', 00H, 'i', 00H, 'c', 00H, 'r'
	DB	00H, 'o', 00H, 's', 00H, 'o', 00H, 'f', 00H, 't', 00H, ' ', 00H
	DB	'v', 00H, 'i', 00H, 's', 00H, 'u', 00H, 'a', 00H, 'l', 00H, ' '
	DB	00H, 's', 00H, 't', 00H, 'u', 00H, 'd', 00H, 'i', 00H, 'o', 00H
	DB	'\', 00H, '2', 00H, '0', 00H, '1', 00H, '7', 00H, '\', 00H, 'c'
	DB	00H, 'o', 00H, 'm', 00H, 'm', 00H, 'u', 00H, 'n', 00H, 'i', 00H
	DB	't', 00H, 'y', 00H, '\', 00H, 'v', 00H, 'c', 00H, '\', 00H, 't'
	DB	00H, 'o', 00H, 'o', 00H, 'l', 00H, 's', 00H, '\', 00H, 'm', 00H
	DB	's', 00H, 'v', 00H, 'c', 00H, '\', 00H, '1', 00H, '4', 00H, '.'
	DB	00H, '1', 00H, '6', 00H, '.', 00H, '2', 00H, '7', 00H, '0', 00H
	DB	'2', 00H, '3', 00H, '\', 00H, 'a', 00H, 't', 00H, 'l', 00H, 'm'
	DB	00H, 'f', 00H, 'c', 00H, '\', 00H, 'i', 00H, 'n', 00H, 'c', 00H
	DB	'l', 00H, 'u', 00H, 'd', 00H, 'e', 00H, '\', 00H, 'a', 00H, 't'
	DB	00H, 'l', 00H, 'c', 00H, 'o', 00H, 'n', 00H, 'v', 00H, '.', 00H
	DB	'h', 00H, 00H, 00H				; `string'
CONST	ENDS
;	COMDAT ??_C@_1OE@IAPLKPHI@?$AAc?$AA?3?$AA?2?$AAp?$AAr?$AAo?$AAg?$AAr?$AAa?$AAm?$AA?5?$AAf?$AAi?$AAl?$AAe@
CONST	SEGMENT
??_C@_1OE@IAPLKPHI@?$AAc?$AA?3?$AA?2?$AAp?$AAr?$AAo?$AAg?$AAr?$AAa?$AAm?$AA?5?$AAf?$AAi?$AAl?$AAe@ DB 'c'
	DB	00H, ':', 00H, '\', 00H, 'p', 00H, 'r', 00H, 'o', 00H, 'g', 00H
	DB	'r', 00H, 'a', 00H, 'm', 00H, ' ', 00H, 'f', 00H, 'i', 00H, 'l'
	DB	00H, 'e', 00H, 's', 00H, ' ', 00H, '(', 00H, 'x', 00H, '8', 00H
	DB	'6', 00H, ')', 00H, '\', 00H, 'm', 00H, 'i', 00H, 'c', 00H, 'r'
	DB	00H, 'o', 00H, 's', 00H, 'o', 00H, 'f', 00H, 't', 00H, ' ', 00H
	DB	'v', 00H, 'i', 00H, 's', 00H, 'u', 00H, 'a', 00H, 'l', 00H, ' '
	DB	00H, 's', 00H, 't', 00H, 'u', 00H, 'd', 00H, 'i', 00H, 'o', 00H
	DB	'\', 00H, '2', 00H, '0', 00H, '1', 00H, '7', 00H, '\', 00H, 'c'
	DB	00H, 'o', 00H, 'm', 00H, 'm', 00H, 'u', 00H, 'n', 00H, 'i', 00H
	DB	't', 00H, 'y', 00H, '\', 00H, 'v', 00H, 'c', 00H, '\', 00H, 't'
	DB	00H, 'o', 00H, 'o', 00H, 'l', 00H, 's', 00H, '\', 00H, 'm', 00H
	DB	's', 00H, 'v', 00H, 'c', 00H, '\', 00H, '1', 00H, '4', 00H, '.'
	DB	00H, '1', 00H, '6', 00H, '.', 00H, '2', 00H, '7', 00H, '0', 00H
	DB	'2', 00H, '3', 00H, '\', 00H, 'a', 00H, 't', 00H, 'l', 00H, 'm'
	DB	00H, 'f', 00H, 'c', 00H, '\', 00H, 'i', 00H, 'n', 00H, 'c', 00H
	DB	'l', 00H, 'u', 00H, 'd', 00H, 'e', 00H, '\', 00H, 'a', 00H, 't'
	DB	00H, 'l', 00H, 'a', 00H, 'l', 00H, 'l', 00H, 'o', 00H, 'c', 00H
	DB	'.', 00H, 'h', 00H, 00H, 00H			; `string'
CONST	ENDS
;	COMDAT ??_C@_17CNPHIMPH@?$AA?$CF?$AAl?$AAs@
CONST	SEGMENT
??_C@_17CNPHIMPH@?$AA?$CF?$AAl?$AAs@ DB '%', 00H, 'l', 00H, 's', 00H, 00H
	DB	00H						; `string'
CONST	ENDS
;	COMDAT xdata$x
xdata$x	SEGMENT
__catchsym$?OnRequestLoadSystemMessage@CDataBaseEngineSink@@IAE_NKPAXG@Z$3 DD 00H
	DD	FLAT:??_R0PAUIDataBaseException@@@8
	DD	0fffffb1cH
	DD	FLAT:__catch$?OnRequestLoadSystemMessage@CDataBaseEngineSink@@IAE_NKPAXG@Z$0
__tryblocktable$?OnRequestLoadSystemMessage@CDataBaseEngineSink@@IAE_NKPAXG@Z DD 00H
	DD	01H
	DD	02H
	DD	01H
	DD	FLAT:__catchsym$?OnRequestLoadSystemMessage@CDataBaseEngineSink@@IAE_NKPAXG@Z$3
__unwindtable$?OnRequestLoadSystemMessage@CDataBaseEngineSink@@IAE_NKPAXG@Z DD 0ffffffffH
	DD	00H
	DD	00H
	DD	FLAT:__unwindfunclet$?OnRequestLoadSystemMessage@CDataBaseEngineSink@@IAE_NKPAXG@Z$2
	DD	0ffffffffH
	DD	00H
__ehfuncinfo$?OnRequestLoadSystemMessage@CDataBaseEngineSink@@IAE_NKPAXG@Z DD 019930522H
	DD	03H
	DD	FLAT:__unwindtable$?OnRequestLoadSystemMessage@CDataBaseEngineSink@@IAE_NKPAXG@Z
	DD	01H
	DD	FLAT:__tryblocktable$?OnRequestLoadSystemMessage@CDataBaseEngineSink@@IAE_NKPAXG@Z
	DD	2 DUP(00H)
	DD	00H
	DD	01H
xdata$x	ENDS
;	COMDAT xdata$x
xdata$x	SEGMENT
__catchsym$?OnRequestUpdatePlaceName@CDataBaseEngineSink@@IAE_NKPAXG@Z$2 DD 00H
	DD	FLAT:??_R0PAUIDataBaseException@@@8
	DD	0ffffff5cH
	DD	FLAT:__catch$?OnRequestUpdatePlaceName@CDataBaseEngineSink@@IAE_NKPAXG@Z$0
__unwindtable$?OnRequestUpdatePlaceName@CDataBaseEngineSink@@IAE_NKPAXG@Z DD 0ffffffffH
	DD	00H
	DD	0ffffffffH
	DD	00H
__tryblocktable$?OnRequestUpdatePlaceName@CDataBaseEngineSink@@IAE_NKPAXG@Z DD 00H
	DD	00H
	DD	01H
	DD	01H
	DD	FLAT:__catchsym$?OnRequestUpdatePlaceName@CDataBaseEngineSink@@IAE_NKPAXG@Z$2
__ehfuncinfo$?OnRequestUpdatePlaceName@CDataBaseEngineSink@@IAE_NKPAXG@Z DD 019930522H
	DD	02H
	DD	FLAT:__unwindtable$?OnRequestUpdatePlaceName@CDataBaseEngineSink@@IAE_NKPAXG@Z
	DD	01H
	DD	FLAT:__tryblocktable$?OnRequestUpdatePlaceName@CDataBaseEngineSink@@IAE_NKPAXG@Z
	DD	2 DUP(00H)
	DD	00H
	DD	01H
xdata$x	ENDS
;	COMDAT xdata$x
xdata$x	SEGMENT
__catchsym$?OnRequestTrumpet@CDataBaseEngineSink@@IAE_NKPAXG@Z$2 DD 00H
	DD	FLAT:??_R0PAUIDataBaseException@@@8
	DD	0fffffe2cH
	DD	FLAT:__catch$?OnRequestTrumpet@CDataBaseEngineSink@@IAE_NKPAXG@Z$0
__unwindtable$?OnRequestTrumpet@CDataBaseEngineSink@@IAE_NKPAXG@Z DD 0ffffffffH
	DD	00H
	DD	0ffffffffH
	DD	00H
__tryblocktable$?OnRequestTrumpet@CDataBaseEngineSink@@IAE_NKPAXG@Z DD 00H
	DD	00H
	DD	01H
	DD	01H
	DD	FLAT:__catchsym$?OnRequestTrumpet@CDataBaseEngineSink@@IAE_NKPAXG@Z$2
__ehfuncinfo$?OnRequestTrumpet@CDataBaseEngineSink@@IAE_NKPAXG@Z DD 019930522H
	DD	02H
	DD	FLAT:__unwindtable$?OnRequestTrumpet@CDataBaseEngineSink@@IAE_NKPAXG@Z
	DD	01H
	DD	FLAT:__tryblocktable$?OnRequestTrumpet@CDataBaseEngineSink@@IAE_NKPAXG@Z
	DD	2 DUP(00H)
	DD	00H
	DD	01H
xdata$x	ENDS
;	COMDAT xdata$x
xdata$x	SEGMENT
__catchsym$?OnRequestSaveOfflineMessage@CDataBaseEngineSink@@IAE_NKPAXG@Z$2 DD 00H
	DD	FLAT:??_R0PAUIDataBaseException@@@8
	DD	0ffffff5cH
	DD	FLAT:__catch$?OnRequestSaveOfflineMessage@CDataBaseEngineSink@@IAE_NKPAXG@Z$0
__unwindtable$?OnRequestSaveOfflineMessage@CDataBaseEngineSink@@IAE_NKPAXG@Z DD 0ffffffffH
	DD	00H
	DD	0ffffffffH
	DD	00H
__tryblocktable$?OnRequestSaveOfflineMessage@CDataBaseEngineSink@@IAE_NKPAXG@Z DD 00H
	DD	00H
	DD	01H
	DD	01H
	DD	FLAT:__catchsym$?OnRequestSaveOfflineMessage@CDataBaseEngineSink@@IAE_NKPAXG@Z$2
__ehfuncinfo$?OnRequestSaveOfflineMessage@CDataBaseEngineSink@@IAE_NKPAXG@Z DD 019930522H
	DD	02H
	DD	FLAT:__unwindtable$?OnRequestSaveOfflineMessage@CDataBaseEngineSink@@IAE_NKPAXG@Z
	DD	01H
	DD	FLAT:__tryblocktable$?OnRequestSaveOfflineMessage@CDataBaseEngineSink@@IAE_NKPAXG@Z
	DD	2 DUP(00H)
	DD	00H
	DD	01H
xdata$x	ENDS
;	COMDAT xdata$x
xdata$x	SEGMENT
__catchsym$?OnRequestSearchUser@CDataBaseEngineSink@@IAE_NKPAXG@Z$2 DD 00H
	DD	FLAT:??_R0PAUIDataBaseException@@@8
	DD	0ffffff34H
	DD	FLAT:__catch$?OnRequestSearchUser@CDataBaseEngineSink@@IAE_NKPAXG@Z$0
__unwindtable$?OnRequestSearchUser@CDataBaseEngineSink@@IAE_NKPAXG@Z DD 0ffffffffH
	DD	00H
	DD	0ffffffffH
	DD	00H
__tryblocktable$?OnRequestSearchUser@CDataBaseEngineSink@@IAE_NKPAXG@Z DD 00H
	DD	00H
	DD	01H
	DD	01H
	DD	FLAT:__catchsym$?OnRequestSearchUser@CDataBaseEngineSink@@IAE_NKPAXG@Z$2
__ehfuncinfo$?OnRequestSearchUser@CDataBaseEngineSink@@IAE_NKPAXG@Z DD 019930522H
	DD	02H
	DD	FLAT:__unwindtable$?OnRequestSearchUser@CDataBaseEngineSink@@IAE_NKPAXG@Z
	DD	01H
	DD	FLAT:__tryblocktable$?OnRequestSearchUser@CDataBaseEngineSink@@IAE_NKPAXG@Z
	DD	2 DUP(00H)
	DD	00H
	DD	01H
xdata$x	ENDS
;	COMDAT xdata$x
xdata$x	SEGMENT
__catchsym$?OnRequestModifyRemarks@CDataBaseEngineSink@@IAE_NKPAXG@Z$2 DD 00H
	DD	FLAT:??_R0PAUIDataBaseException@@@8
	DD	0ffffffb0H
	DD	FLAT:__catch$?OnRequestModifyRemarks@CDataBaseEngineSink@@IAE_NKPAXG@Z$0
__unwindtable$?OnRequestModifyRemarks@CDataBaseEngineSink@@IAE_NKPAXG@Z DD 0ffffffffH
	DD	00H
	DD	0ffffffffH
	DD	00H
__tryblocktable$?OnRequestModifyRemarks@CDataBaseEngineSink@@IAE_NKPAXG@Z DD 00H
	DD	00H
	DD	01H
	DD	01H
	DD	FLAT:__catchsym$?OnRequestModifyRemarks@CDataBaseEngineSink@@IAE_NKPAXG@Z$2
__ehfuncinfo$?OnRequestModifyRemarks@CDataBaseEngineSink@@IAE_NKPAXG@Z DD 019930522H
	DD	02H
	DD	FLAT:__unwindtable$?OnRequestModifyRemarks@CDataBaseEngineSink@@IAE_NKPAXG@Z
	DD	01H
	DD	FLAT:__tryblocktable$?OnRequestModifyRemarks@CDataBaseEngineSink@@IAE_NKPAXG@Z
	DD	2 DUP(00H)
	DD	00H
	DD	01H
xdata$x	ENDS
;	COMDAT xdata$x
xdata$x	SEGMENT
__catchsym$?OnRequestModifyGroup@CDataBaseEngineSink@@IAE_NKPAXG@Z$4 DD 00H
	DD	FLAT:??_R0PAUIDataBaseException@@@8
	DD	0fffffe9cH
	DD	FLAT:__catch$?OnRequestModifyGroup@CDataBaseEngineSink@@IAE_NKPAXG@Z$0
__tryblocktable$?OnRequestModifyGroup@CDataBaseEngineSink@@IAE_NKPAXG@Z DD 00H
	DD	01H
	DD	02H
	DD	01H
	DD	FLAT:__catchsym$?OnRequestModifyGroup@CDataBaseEngineSink@@IAE_NKPAXG@Z$4
__unwindtable$?OnRequestModifyGroup@CDataBaseEngineSink@@IAE_NKPAXG@Z DD 0ffffffffH
	DD	00H
	DD	00H
	DD	FLAT:__unwindfunclet$?OnRequestModifyGroup@CDataBaseEngineSink@@IAE_NKPAXG@Z$2
	DD	0ffffffffH
	DD	00H
__ehfuncinfo$?OnRequestModifyGroup@CDataBaseEngineSink@@IAE_NKPAXG@Z DD 019930522H
	DD	03H
	DD	FLAT:__unwindtable$?OnRequestModifyGroup@CDataBaseEngineSink@@IAE_NKPAXG@Z
	DD	01H
	DD	FLAT:__tryblocktable$?OnRequestModifyGroup@CDataBaseEngineSink@@IAE_NKPAXG@Z
	DD	2 DUP(00H)
	DD	00H
	DD	01H
xdata$x	ENDS
;	COMDAT xdata$x
xdata$x	SEGMENT
__catchsym$?OnRequestDeleteFriend@CDataBaseEngineSink@@IAE_NKPAXG@Z$2 DD 00H
	DD	FLAT:??_R0PAUIDataBaseException@@@8
	DD	0ffffff4cH
	DD	FLAT:__catch$?OnRequestDeleteFriend@CDataBaseEngineSink@@IAE_NKPAXG@Z$0
__unwindtable$?OnRequestDeleteFriend@CDataBaseEngineSink@@IAE_NKPAXG@Z DD 0ffffffffH
	DD	00H
	DD	0ffffffffH
	DD	00H
__tryblocktable$?OnRequestDeleteFriend@CDataBaseEngineSink@@IAE_NKPAXG@Z DD 00H
	DD	00H
	DD	01H
	DD	01H
	DD	FLAT:__catchsym$?OnRequestDeleteFriend@CDataBaseEngineSink@@IAE_NKPAXG@Z$2
__ehfuncinfo$?OnRequestDeleteFriend@CDataBaseEngineSink@@IAE_NKPAXG@Z DD 019930522H
	DD	02H
	DD	FLAT:__unwindtable$?OnRequestDeleteFriend@CDataBaseEngineSink@@IAE_NKPAXG@Z
	DD	01H
	DD	FLAT:__tryblocktable$?OnRequestDeleteFriend@CDataBaseEngineSink@@IAE_NKPAXG@Z
	DD	2 DUP(00H)
	DD	00H
	DD	01H
xdata$x	ENDS
;	COMDAT xdata$x
xdata$x	SEGMENT
__catchsym$?OnRequestAddFriend@CDataBaseEngineSink@@IAE_NKPAXG@Z$2 DD 00H
	DD	FLAT:??_R0PAUIDataBaseException@@@8
	DD	0fffd7ab4H
	DD	FLAT:__catch$?OnRequestAddFriend@CDataBaseEngineSink@@IAE_NKPAXG@Z$0
__unwindtable$?OnRequestAddFriend@CDataBaseEngineSink@@IAE_NKPAXG@Z DD 0ffffffffH
	DD	00H
	DD	0ffffffffH
	DD	00H
__tryblocktable$?OnRequestAddFriend@CDataBaseEngineSink@@IAE_NKPAXG@Z DD 00H
	DD	00H
	DD	01H
	DD	01H
	DD	FLAT:__catchsym$?OnRequestAddFriend@CDataBaseEngineSink@@IAE_NKPAXG@Z$2
__ehfuncinfo$?OnRequestAddFriend@CDataBaseEngineSink@@IAE_NKPAXG@Z DD 019930522H
	DD	02H
	DD	FLAT:__unwindtable$?OnRequestAddFriend@CDataBaseEngineSink@@IAE_NKPAXG@Z
	DD	01H
	DD	FLAT:__tryblocktable$?OnRequestAddFriend@CDataBaseEngineSink@@IAE_NKPAXG@Z
	DD	2 DUP(00H)
	DD	00H
	DD	01H
xdata$x	ENDS
;	COMDAT xdata$x
xdata$x	SEGMENT
__catchsym$?OnRequestModifyFriend@CDataBaseEngineSink@@IAE_NKPAXG@Z$2 DD 00H
	DD	FLAT:??_R0PAUIDataBaseException@@@8
	DD	0ffffff50H
	DD	FLAT:__catch$?OnRequestModifyFriend@CDataBaseEngineSink@@IAE_NKPAXG@Z$0
__unwindtable$?OnRequestModifyFriend@CDataBaseEngineSink@@IAE_NKPAXG@Z DD 0ffffffffH
	DD	00H
	DD	0ffffffffH
	DD	00H
__tryblocktable$?OnRequestModifyFriend@CDataBaseEngineSink@@IAE_NKPAXG@Z DD 00H
	DD	00H
	DD	01H
	DD	01H
	DD	FLAT:__catchsym$?OnRequestModifyFriend@CDataBaseEngineSink@@IAE_NKPAXG@Z$2
__ehfuncinfo$?OnRequestModifyFriend@CDataBaseEngineSink@@IAE_NKPAXG@Z DD 019930522H
	DD	02H
	DD	FLAT:__unwindtable$?OnRequestModifyFriend@CDataBaseEngineSink@@IAE_NKPAXG@Z
	DD	01H
	DD	FLAT:__tryblocktable$?OnRequestModifyFriend@CDataBaseEngineSink@@IAE_NKPAXG@Z
	DD	2 DUP(00H)
	DD	00H
	DD	01H
xdata$x	ENDS
;	COMDAT xdata$x
xdata$x	SEGMENT
__catchsym$?OnRequestLogonUserID@CDataBaseEngineSink@@IAE_NKPAXG@Z$4 DD 00H
	DD	FLAT:??_R0PAUIDataBaseException@@@8
	DD	0fff94a24H
	DD	FLAT:__catch$?OnRequestLogonUserID@CDataBaseEngineSink@@IAE_NKPAXG@Z$0
__tryblocktable$?OnRequestLogonUserID@CDataBaseEngineSink@@IAE_NKPAXG@Z DD 00H
	DD	02H
	DD	03H
	DD	01H
	DD	FLAT:__catchsym$?OnRequestLogonUserID@CDataBaseEngineSink@@IAE_NKPAXG@Z$4
__unwindtable$?OnRequestLogonUserID@CDataBaseEngineSink@@IAE_NKPAXG@Z DD 0ffffffffH
	DD	00H
	DD	00H
	DD	FLAT:__unwindfunclet$?OnRequestLogonUserID@CDataBaseEngineSink@@IAE_NKPAXG@Z$2
	DD	01H
	DD	FLAT:__unwindfunclet$?OnRequestLogonUserID@CDataBaseEngineSink@@IAE_NKPAXG@Z$3
	DD	0ffffffffH
	DD	00H
__ehfuncinfo$?OnRequestLogonUserID@CDataBaseEngineSink@@IAE_NKPAXG@Z DD 019930522H
	DD	04H
	DD	FLAT:__unwindtable$?OnRequestLogonUserID@CDataBaseEngineSink@@IAE_NKPAXG@Z
	DD	01H
	DD	FLAT:__tryblocktable$?OnRequestLogonUserID@CDataBaseEngineSink@@IAE_NKPAXG@Z
	DD	2 DUP(00H)
	DD	00H
	DD	01H
xdata$x	ENDS
;	COMDAT xdata$x
xdata$x	SEGMENT
__catchsym$?OnDataBaseEngineStart@CDataBaseEngineSink@@UAE_NPAUIUnknownEx@@@Z$2 DD 00H
	DD	FLAT:??_R0PAUIDataBaseException@@@8
	DD	0ffffffdcH
	DD	FLAT:__catch$?OnDataBaseEngineStart@CDataBaseEngineSink@@UAE_NPAUIUnknownEx@@@Z$0
__unwindtable$?OnDataBaseEngineStart@CDataBaseEngineSink@@UAE_NPAUIUnknownEx@@@Z DD 0ffffffffH
	DD	00H
	DD	0ffffffffH
	DD	00H
__tryblocktable$?OnDataBaseEngineStart@CDataBaseEngineSink@@UAE_NPAUIUnknownEx@@@Z DD 00H
	DD	00H
	DD	01H
	DD	01H
	DD	FLAT:__catchsym$?OnDataBaseEngineStart@CDataBaseEngineSink@@UAE_NPAUIUnknownEx@@@Z$2
__ehfuncinfo$?OnDataBaseEngineStart@CDataBaseEngineSink@@UAE_NPAUIUnknownEx@@@Z DD 019930522H
	DD	02H
	DD	FLAT:__unwindtable$?OnDataBaseEngineStart@CDataBaseEngineSink@@UAE_NPAUIUnknownEx@@@Z
	DD	01H
	DD	FLAT:__tryblocktable$?OnDataBaseEngineStart@CDataBaseEngineSink@@UAE_NPAUIUnknownEx@@@Z
	DD	2 DUP(00H)
	DD	00H
	DD	01H
xdata$x	ENDS
;	COMDAT xdata$x
xdata$x	SEGMENT
__ehfuncinfo$??0CDataBaseEngineSink@@QAE@XZ DD 019930522H
	DD	05H
	DD	FLAT:__unwindtable$??0CDataBaseEngineSink@@QAE@XZ
	DD	2 DUP(00H)
	DD	2 DUP(00H)
	DD	00H
	DD	01H
__unwindtable$??0CDataBaseEngineSink@@QAE@XZ DD 0ffffffffH
	DD	FLAT:__unwindfunclet$??0CDataBaseEngineSink@@QAE@XZ$0
	DD	00H
	DD	FLAT:__unwindfunclet$??0CDataBaseEngineSink@@QAE@XZ$1
	DD	01H
	DD	FLAT:__unwindfunclet$??0CDataBaseEngineSink@@QAE@XZ$2
	DD	02H
	DD	FLAT:__unwindfunclet$??0CDataBaseEngineSink@@QAE@XZ$3
	DD	03H
	DD	FLAT:__unwindfunclet$??0CDataBaseEngineSink@@QAE@XZ$4
xdata$x	ENDS
;	COMDAT xdata$x
xdata$x	SEGMENT
__unwindtable$?CreateInstance@?$CTempldateHelper@UIDataBase@@@@QAE_NXZ DD 0ffffffffH
	DD	00H
	DD	0ffffffffH
	DD	00H
__tryblocktable$?CreateInstance@?$CTempldateHelper@UIDataBase@@@@QAE_NXZ DD 00H
	DD	00H
	DD	01H
	DD	02H
	DD	FLAT:__catchsym$?CreateInstance@?$CTempldateHelper@UIDataBase@@@@QAE_NXZ$3
__catchsym$?CreateInstance@?$CTempldateHelper@UIDataBase@@@@QAE_NXZ$3 DD 01H
	DD	FLAT:??_R0PAD@8
	DD	0ffffffe4H
	DD	FLAT:__catch$?CreateInstance@?$CTempldateHelper@UIDataBase@@@@QAE_NXZ$0
	DD	040H
	DD	00H
	DD	00H
	DD	FLAT:__catch$?CreateInstance@?$CTempldateHelper@UIDataBase@@@@QAE_NXZ$1
__ehfuncinfo$?CreateInstance@?$CTempldateHelper@UIDataBase@@@@QAE_NXZ DD 019930522H
	DD	02H
	DD	FLAT:__unwindtable$?CreateInstance@?$CTempldateHelper@UIDataBase@@@@QAE_NXZ
	DD	01H
	DD	FLAT:__tryblocktable$?CreateInstance@?$CTempldateHelper@UIDataBase@@@@QAE_NXZ
	DD	2 DUP(00H)
	DD	00H
	DD	01H
xdata$x	ENDS
;	COMDAT xdata$x
xdata$x	SEGMENT
__ehfuncinfo$??1?$CTempldateHelper@UIDataBase@@@@UAE@XZ DD 019930522H
	DD	00H
	DD	00H
	DD	2 DUP(00H)
	DD	2 DUP(00H)
	DD	00H
	DD	05H
xdata$x	ENDS
;	COMDAT xdata$x
xdata$x	SEGMENT
__unwindtable$??RCTraceFileAndLineInfo@ATL@@QBAXHIPBDZZ DD 0ffffffffH
	DD	FLAT:__unwindfunclet$??RCTraceFileAndLineInfo@ATL@@QBAXHIPBDZZ$0
__ehfuncinfo$??RCTraceFileAndLineInfo@ATL@@QBAXHIPBDZZ DD 019930522H
	DD	01H
	DD	FLAT:__unwindtable$??RCTraceFileAndLineInfo@ATL@@QBAXHIPBDZZ
	DD	2 DUP(00H)
	DD	2 DUP(00H)
	DD	00H
	DD	01H
xdata$x	ENDS
;	COMDAT xdata$x
xdata$x	SEGMENT
__unwindtable$?TraceV@CTrace@ATL@@SAXPBDHII0PAD@Z DD 0ffffffffH
	DD	FLAT:__unwindfunclet$?TraceV@CTrace@ATL@@SAXPBDHII0PAD@Z$0
	DD	00H
	DD	FLAT:__unwindfunclet$?TraceV@CTrace@ATL@@SAXPBDHII0PAD@Z$1
__ehfuncinfo$?TraceV@CTrace@ATL@@SAXPBDHII0PAD@Z DD 019930522H
	DD	02H
	DD	FLAT:__unwindtable$?TraceV@CTrace@ATL@@SAXPBDHII0PAD@Z
	DD	2 DUP(00H)
	DD	2 DUP(00H)
	DD	00H
	DD	01H
xdata$x	ENDS
; Function compile flags: /Odtp /ZI
; File c:\program files (x86)\windows kits\10\include\10.0.17763.0\ucrt\stdio.h
;	COMDAT ??$_snprintf_s@$0IA@@@YAHAAY0IA@DIPBDZZ
_TEXT	SEGMENT
__ArgList$ = -4						; size = 4
__Buffer$ = 8						; size = 4
__BufferCount$ = 12					; size = 4
__Format$ = 16						; size = 4
??$_snprintf_s@$0IA@@@YAHAAY0IA@DIPBDZZ PROC		; _snprintf_s<128>, COMDAT

; 2079 :         )

  00000	55		 push	 ebp
  00001	8b ec		 mov	 ebp, esp
  00003	83 ec 48	 sub	 esp, 72			; 00000048H
  00006	53		 push	 ebx
  00007	56		 push	 esi
  00008	57		 push	 edi

; 2073 :     __DEFINE_CPP_OVERLOAD_SECURE_FUNC_0_2_ARGLIST(

  00009	8d 45 14	 lea	 eax, DWORD PTR __Format$[ebp+4]
  0000c	89 45 fc	 mov	 DWORD PTR __ArgList$[ebp], eax
  0000f	8b 45 fc	 mov	 eax, DWORD PTR __ArgList$[ebp]
  00012	50		 push	 eax
  00013	8b 4d 10	 mov	 ecx, DWORD PTR __Format$[ebp]
  00016	51		 push	 ecx
  00017	8b 55 0c	 mov	 edx, DWORD PTR __BufferCount$[ebp]
  0001a	52		 push	 edx
  0001b	68 80 00 00 00	 push	 128			; 00000080H
  00020	8b 45 08	 mov	 eax, DWORD PTR __Buffer$[ebp]
  00023	50		 push	 eax
  00024	e8 00 00 00 00	 call	 __vsnprintf_s
  00029	83 c4 14	 add	 esp, 20			; 00000014H
  0002c	5f		 pop	 edi
  0002d	5e		 pop	 esi
  0002e	5b		 pop	 ebx
  0002f	8b e5		 mov	 esp, ebp
  00031	5d		 pop	 ebp
  00032	c3		 ret	 0
??$_snprintf_s@$0IA@@@YAHAAY0IA@DIPBDZZ ENDP		; _snprintf_s<128>
_TEXT	ENDS
; Function compile flags: /Odtp /ZI
; File c:\program files (x86)\microsoft visual studio\2017\community\vc\tools\msvc\14.16.27023\atlmfc\include\atlconv.h
;	COMDAT ??$AtlConvAllocMemory@D@ATL@@YAXPAPADHPADH@Z
_TEXT	SEGMENT
tv129 = -84						; size = 4
tv81 = -84						; size = 4
tv65 = -84						; size = 4
_ppReallocBuf$1 = -16					; size = 4
___atl_condVal$2 = -12					; size = 4
___atl_condVal$3 = -8					; size = 4
___atl_condVal$4 = -4					; size = 4
_ppBuff$ = 8						; size = 4
_nLength$ = 12						; size = 4
_pszFixedBuffer$ = 16					; size = 4
_nFixedBufferLength$ = 20				; size = 4
??$AtlConvAllocMemory@D@ATL@@YAXPAPADHPADH@Z PROC	; ATL::AtlConvAllocMemory<char>, COMDAT

; 112  : {

  00000	55		 push	 ebp
  00001	8b ec		 mov	 ebp, esp
  00003	83 ec 54	 sub	 esp, 84			; 00000054H
  00006	53		 push	 ebx
  00007	56		 push	 esi
  00008	57		 push	 edi
$LN4@AtlConvAll:

; 113  : 	ATLENSURE_THROW(ppBuff != NULL, E_INVALIDARG);

  00009	83 7d 08 00	 cmp	 DWORD PTR _ppBuff$[ebp], 0
  0000d	74 09		 je	 SHORT $LN32@AtlConvAll
  0000f	c7 45 ac 01 00
	00 00		 mov	 DWORD PTR tv65[ebp], 1
  00016	eb 07		 jmp	 SHORT $LN33@AtlConvAll
$LN32@AtlConvAll:
  00018	c7 45 ac 00 00
	00 00		 mov	 DWORD PTR tv65[ebp], 0
$LN33@AtlConvAll:
  0001f	8b 45 ac	 mov	 eax, DWORD PTR tv65[ebp]
  00022	89 45 fc	 mov	 DWORD PTR ___atl_condVal$4[ebp], eax
$LN7@AtlConvAll:
  00025	83 7d fc 00	 cmp	 DWORD PTR ___atl_condVal$4[ebp], 0
  00029	75 24		 jne	 SHORT $LN5@AtlConvAll
  0002b	68 00 00 00 00	 push	 OFFSET ??_C@_1BM@GBBOFEAE@?$AA_?$AA_?$AAa?$AAt?$AAl?$AA_?$AAc?$AAo?$AAn?$AAd?$AAV?$AAa?$AAl@
  00030	68 00 00 00 00	 push	 OFFSET ??_C@_17CNPHIMPH@?$AA?$CF?$AAl?$AAs@
  00035	6a 00		 push	 0
  00037	6a 71		 push	 113			; 00000071H
  00039	68 00 00 00 00	 push	 OFFSET ??_C@_1OC@PNEKCFJL@?$AAc?$AA?3?$AA?2?$AAp?$AAr?$AAo?$AAg?$AAr?$AAa?$AAm?$AA?5?$AAf?$AAi?$AAl?$AAe@
  0003e	6a 02		 push	 2
  00040	ff 15 00 00 00
	00		 call	 DWORD PTR __imp___CrtDbgReportW
  00046	83 c4 18	 add	 esp, 24			; 00000018H
  00049	83 f8 01	 cmp	 eax, 1
  0004c	75 01		 jne	 SHORT $LN5@AtlConvAll
  0004e	cc		 int	 3
$LN5@AtlConvAll:
  0004f	33 c0		 xor	 eax, eax
  00051	75 d2		 jne	 SHORT $LN7@AtlConvAll
  00053	83 7d fc 00	 cmp	 DWORD PTR ___atl_condVal$4[ebp], 0
  00057	75 0a		 jne	 SHORT $LN2@AtlConvAll
  00059	68 57 00 07 80	 push	 -2147024809		; 80070057H
  0005e	e8 00 00 00 00	 call	 ?AtlThrowImpl@ATL@@YGXJ@Z ; ATL::AtlThrowImpl
$LN2@AtlConvAll:
  00063	33 c0		 xor	 eax, eax
  00065	75 a2		 jne	 SHORT $LN4@AtlConvAll
$LN10@AtlConvAll:

; 114  : 	ATLENSURE_THROW(nLength >= 0, E_INVALIDARG);

  00067	83 7d 0c 00	 cmp	 DWORD PTR _nLength$[ebp], 0
  0006b	7c 09		 jl	 SHORT $LN35@AtlConvAll
  0006d	c7 45 ac 01 00
	00 00		 mov	 DWORD PTR tv81[ebp], 1
  00074	eb 07		 jmp	 SHORT $LN36@AtlConvAll
$LN35@AtlConvAll:
  00076	c7 45 ac 00 00
	00 00		 mov	 DWORD PTR tv81[ebp], 0
$LN36@AtlConvAll:
  0007d	8b 45 ac	 mov	 eax, DWORD PTR tv81[ebp]
  00080	89 45 f8	 mov	 DWORD PTR ___atl_condVal$3[ebp], eax
$LN13@AtlConvAll:
  00083	83 7d f8 00	 cmp	 DWORD PTR ___atl_condVal$3[ebp], 0
  00087	75 24		 jne	 SHORT $LN11@AtlConvAll
  00089	68 00 00 00 00	 push	 OFFSET ??_C@_1BM@GBBOFEAE@?$AA_?$AA_?$AAa?$AAt?$AAl?$AA_?$AAc?$AAo?$AAn?$AAd?$AAV?$AAa?$AAl@
  0008e	68 00 00 00 00	 push	 OFFSET ??_C@_17CNPHIMPH@?$AA?$CF?$AAl?$AAs@
  00093	6a 00		 push	 0
  00095	6a 72		 push	 114			; 00000072H
  00097	68 00 00 00 00	 push	 OFFSET ??_C@_1OC@PNEKCFJL@?$AAc?$AA?3?$AA?2?$AAp?$AAr?$AAo?$AAg?$AAr?$AAa?$AAm?$AA?5?$AAf?$AAi?$AAl?$AAe@
  0009c	6a 02		 push	 2
  0009e	ff 15 00 00 00
	00		 call	 DWORD PTR __imp___CrtDbgReportW
  000a4	83 c4 18	 add	 esp, 24			; 00000018H
  000a7	83 f8 01	 cmp	 eax, 1
  000aa	75 01		 jne	 SHORT $LN11@AtlConvAll
  000ac	cc		 int	 3
$LN11@AtlConvAll:
  000ad	33 c0		 xor	 eax, eax
  000af	75 d2		 jne	 SHORT $LN13@AtlConvAll
  000b1	83 7d f8 00	 cmp	 DWORD PTR ___atl_condVal$3[ebp], 0
  000b5	75 0a		 jne	 SHORT $LN8@AtlConvAll
  000b7	68 57 00 07 80	 push	 -2147024809		; 80070057H
  000bc	e8 00 00 00 00	 call	 ?AtlThrowImpl@ATL@@YGXJ@Z ; ATL::AtlThrowImpl
$LN8@AtlConvAll:
  000c1	33 c0		 xor	 eax, eax
  000c3	75 a2		 jne	 SHORT $LN10@AtlConvAll
$LN16@AtlConvAll:

; 115  : 	ATLENSURE_THROW(pszFixedBuffer != NULL, E_INVALIDARG);

  000c5	83 7d 10 00	 cmp	 DWORD PTR _pszFixedBuffer$[ebp], 0
  000c9	74 09		 je	 SHORT $LN38@AtlConvAll
  000cb	c7 45 ac 01 00
	00 00		 mov	 DWORD PTR tv129[ebp], 1
  000d2	eb 07		 jmp	 SHORT $LN39@AtlConvAll
$LN38@AtlConvAll:
  000d4	c7 45 ac 00 00
	00 00		 mov	 DWORD PTR tv129[ebp], 0
$LN39@AtlConvAll:
  000db	8b 45 ac	 mov	 eax, DWORD PTR tv129[ebp]
  000de	89 45 f4	 mov	 DWORD PTR ___atl_condVal$2[ebp], eax
$LN19@AtlConvAll:
  000e1	83 7d f4 00	 cmp	 DWORD PTR ___atl_condVal$2[ebp], 0
  000e5	75 24		 jne	 SHORT $LN17@AtlConvAll
  000e7	68 00 00 00 00	 push	 OFFSET ??_C@_1BM@GBBOFEAE@?$AA_?$AA_?$AAa?$AAt?$AAl?$AA_?$AAc?$AAo?$AAn?$AAd?$AAV?$AAa?$AAl@
  000ec	68 00 00 00 00	 push	 OFFSET ??_C@_17CNPHIMPH@?$AA?$CF?$AAl?$AAs@
  000f1	6a 00		 push	 0
  000f3	6a 73		 push	 115			; 00000073H
  000f5	68 00 00 00 00	 push	 OFFSET ??_C@_1OC@PNEKCFJL@?$AAc?$AA?3?$AA?2?$AAp?$AAr?$AAo?$AAg?$AAr?$AAa?$AAm?$AA?5?$AAf?$AAi?$AAl?$AAe@
  000fa	6a 02		 push	 2
  000fc	ff 15 00 00 00
	00		 call	 DWORD PTR __imp___CrtDbgReportW
  00102	83 c4 18	 add	 esp, 24			; 00000018H
  00105	83 f8 01	 cmp	 eax, 1
  00108	75 01		 jne	 SHORT $LN17@AtlConvAll
  0010a	cc		 int	 3
$LN17@AtlConvAll:
  0010b	33 c0		 xor	 eax, eax
  0010d	75 d2		 jne	 SHORT $LN19@AtlConvAll
  0010f	83 7d f4 00	 cmp	 DWORD PTR ___atl_condVal$2[ebp], 0
  00113	75 0a		 jne	 SHORT $LN14@AtlConvAll
  00115	68 57 00 07 80	 push	 -2147024809		; 80070057H
  0011a	e8 00 00 00 00	 call	 ?AtlThrowImpl@ATL@@YGXJ@Z ; ATL::AtlThrowImpl
$LN14@AtlConvAll:
  0011f	33 c0		 xor	 eax, eax
  00121	75 a2		 jne	 SHORT $LN16@AtlConvAll

; 116  : 
; 117  : 	//if buffer malloced, try to realloc.
; 118  : 	if (*ppBuff != pszFixedBuffer)

  00123	8b 45 08	 mov	 eax, DWORD PTR _ppBuff$[ebp]
  00126	8b 08		 mov	 ecx, DWORD PTR [eax]
  00128	3b 4d 10	 cmp	 ecx, DWORD PTR _pszFixedBuffer$[ebp]
  0012b	74 53		 je	 SHORT $LN23@AtlConvAll

; 119  : 	{
; 120  : 		if( nLength > nFixedBufferLength )

  0012d	8b 45 0c	 mov	 eax, DWORD PTR _nLength$[ebp]
  00130	3b 45 14	 cmp	 eax, DWORD PTR _nFixedBufferLength$[ebp]
  00133	7e 32		 jle	 SHORT $LN25@AtlConvAll

; 121  : 		{
; 122  : 			_CharType* ppReallocBuf = static_cast< _CharType* >( _recalloc(*ppBuff, nLength,sizeof( _CharType ) ) );

  00135	6a 01		 push	 1
  00137	8b 45 0c	 mov	 eax, DWORD PTR _nLength$[ebp]
  0013a	50		 push	 eax
  0013b	8b 4d 08	 mov	 ecx, DWORD PTR _ppBuff$[ebp]
  0013e	8b 11		 mov	 edx, DWORD PTR [ecx]
  00140	52		 push	 edx
  00141	ff 15 00 00 00
	00		 call	 DWORD PTR __imp___recalloc
  00147	83 c4 0c	 add	 esp, 12			; 0000000cH
  0014a	89 45 f0	 mov	 DWORD PTR _ppReallocBuf$1[ebp], eax

; 123  : 			if (ppReallocBuf == NULL)

  0014d	83 7d f0 00	 cmp	 DWORD PTR _ppReallocBuf$1[ebp], 0
  00151	75 0a		 jne	 SHORT $LN27@AtlConvAll

; 124  : 			{
; 125  : 				AtlThrow( E_OUTOFMEMORY );

  00153	68 0e 00 07 80	 push	 -2147024882		; 8007000eH
  00158	e8 00 00 00 00	 call	 ?AtlThrowImpl@ATL@@YGXJ@Z ; ATL::AtlThrowImpl
$LN27@AtlConvAll:

; 126  : 			}
; 127  : 			*ppBuff = ppReallocBuf;

  0015d	8b 45 08	 mov	 eax, DWORD PTR _ppBuff$[ebp]
  00160	8b 4d f0	 mov	 ecx, DWORD PTR _ppReallocBuf$1[ebp]
  00163	89 08		 mov	 DWORD PTR [eax], ecx

; 128  : 		} else

  00165	eb 17		 jmp	 SHORT $LN26@AtlConvAll
$LN25@AtlConvAll:

; 129  : 		{
; 130  : 			free(*ppBuff);

  00167	8b 45 08	 mov	 eax, DWORD PTR _ppBuff$[ebp]
  0016a	8b 08		 mov	 ecx, DWORD PTR [eax]
  0016c	51		 push	 ecx
  0016d	ff 15 00 00 00
	00		 call	 DWORD PTR __imp__free
  00173	83 c4 04	 add	 esp, 4

; 131  : 			*ppBuff=pszFixedBuffer;

  00176	8b 45 08	 mov	 eax, DWORD PTR _ppBuff$[ebp]
  00179	8b 4d 10	 mov	 ecx, DWORD PTR _pszFixedBuffer$[ebp]
  0017c	89 08		 mov	 DWORD PTR [eax], ecx
$LN26@AtlConvAll:

; 132  : 		}
; 133  : 
; 134  : 	} else //Buffer is not currently malloced.

  0017e	eb 26		 jmp	 SHORT $LN24@AtlConvAll
$LN23@AtlConvAll:

; 135  : 	{
; 136  : 		if( nLength > nFixedBufferLength )

  00180	8b 45 0c	 mov	 eax, DWORD PTR _nLength$[ebp]
  00183	3b 45 14	 cmp	 eax, DWORD PTR _nFixedBufferLength$[ebp]
  00186	7e 16		 jle	 SHORT $LN28@AtlConvAll

; 137  : 		{
; 138  : 			*ppBuff = static_cast< _CharType* >( calloc(nLength,sizeof( _CharType ) ) );

  00188	6a 01		 push	 1
  0018a	8b 45 0c	 mov	 eax, DWORD PTR _nLength$[ebp]
  0018d	50		 push	 eax
  0018e	ff 15 00 00 00
	00		 call	 DWORD PTR __imp__calloc
  00194	83 c4 08	 add	 esp, 8
  00197	8b 4d 08	 mov	 ecx, DWORD PTR _ppBuff$[ebp]
  0019a	89 01		 mov	 DWORD PTR [ecx], eax

; 139  : 		} else

  0019c	eb 08		 jmp	 SHORT $LN24@AtlConvAll
$LN28@AtlConvAll:

; 140  : 		{
; 141  : 			*ppBuff=pszFixedBuffer;

  0019e	8b 45 08	 mov	 eax, DWORD PTR _ppBuff$[ebp]
  001a1	8b 4d 10	 mov	 ecx, DWORD PTR _pszFixedBuffer$[ebp]
  001a4	89 08		 mov	 DWORD PTR [eax], ecx
$LN24@AtlConvAll:

; 142  : 		}
; 143  : 	}
; 144  : 
; 145  : 	if (*ppBuff == NULL)

  001a6	8b 45 08	 mov	 eax, DWORD PTR _ppBuff$[ebp]
  001a9	83 38 00	 cmp	 DWORD PTR [eax], 0
  001ac	75 0a		 jne	 SHORT $LN31@AtlConvAll

; 146  : 	{
; 147  : 		AtlThrow( E_OUTOFMEMORY );

  001ae	68 0e 00 07 80	 push	 -2147024882		; 8007000eH
  001b3	e8 00 00 00 00	 call	 ?AtlThrowImpl@ATL@@YGXJ@Z ; ATL::AtlThrowImpl
$LN31@AtlConvAll:

; 148  : 	}
; 149  : }

  001b8	5f		 pop	 edi
  001b9	5e		 pop	 esi
  001ba	5b		 pop	 ebx
  001bb	8b e5		 mov	 esp, ebp
  001bd	5d		 pop	 ebp
  001be	c3		 ret	 0
??$AtlConvAllocMemory@D@ATL@@YAXPAPADHPADH@Z ENDP	; ATL::AtlConvAllocMemory<char>
_TEXT	ENDS
; Function compile flags: /Odtp /ZI
; File c:\program files (x86)\microsoft visual studio\2017\community\vc\tools\msvc\14.16.27023\atlmfc\include\atlconv.h
;	COMDAT ??$AtlConvFreeMemory@D@ATL@@YAXPAD0H@Z
_TEXT	SEGMENT
_pBuff$ = 8						; size = 4
_pszFixedBuffer$ = 12					; size = 4
_nFixedBufferLength$ = 16				; size = 4
??$AtlConvFreeMemory@D@ATL@@YAXPAD0H@Z PROC		; ATL::AtlConvFreeMemory<char>, COMDAT

; 156  : {

  00000	55		 push	 ebp
  00001	8b ec		 mov	 ebp, esp
  00003	83 ec 40	 sub	 esp, 64			; 00000040H
  00006	53		 push	 ebx
  00007	56		 push	 esi
  00008	57		 push	 edi

; 157  : 	(nFixedBufferLength);
; 158  : 	if( pBuff != pszFixedBuffer )

  00009	8b 45 08	 mov	 eax, DWORD PTR _pBuff$[ebp]
  0000c	3b 45 0c	 cmp	 eax, DWORD PTR _pszFixedBuffer$[ebp]
  0000f	74 0f		 je	 SHORT $LN2@AtlConvFre

; 159  : 	{
; 160  : 		free( pBuff );

  00011	8b 45 08	 mov	 eax, DWORD PTR _pBuff$[ebp]
  00014	50		 push	 eax
  00015	ff 15 00 00 00
	00		 call	 DWORD PTR __imp__free
  0001b	83 c4 04	 add	 esp, 4

; 161  : 	}
; 162  : #ifdef _DEBUG
; 163  : 	else

  0001e	eb 15		 jmp	 SHORT $LN1@AtlConvFre
$LN2@AtlConvFre:

; 164  : 	{
; 165  : 		memset(pszFixedBuffer,ATLCONV_DEADLAND_FILL,nFixedBufferLength*sizeof(_CharType));

  00020	8b 45 10	 mov	 eax, DWORD PTR _nFixedBufferLength$[ebp]
  00023	50		 push	 eax
  00024	68 fe 00 00 00	 push	 254			; 000000feH
  00029	8b 4d 0c	 mov	 ecx, DWORD PTR _pszFixedBuffer$[ebp]
  0002c	51		 push	 ecx
  0002d	e8 00 00 00 00	 call	 _memset
  00032	83 c4 0c	 add	 esp, 12			; 0000000cH
$LN1@AtlConvFre:

; 166  : 	}
; 167  : #endif
; 168  : }

  00035	5f		 pop	 edi
  00036	5e		 pop	 esi
  00037	5b		 pop	 ebx
  00038	8b e5		 mov	 esp, ebp
  0003a	5d		 pop	 ebp
  0003b	c3		 ret	 0
??$AtlConvFreeMemory@D@ATL@@YAXPAD0H@Z ENDP		; ATL::AtlConvFreeMemory<char>
_TEXT	ENDS
; Function compile flags: /Odtp /ZI
; File c:\program files (x86)\microsoft visual studio\2017\community\vc\tools\msvc\14.16.27023\atlmfc\include\atlconv.h
;	COMDAT ?Init@?$CW2AEX@$0IA@@ATL@@AAEXPB_WI@Z
_TEXT	SEGMENT
tv149 = -84						; size = 4
tv87 = -84						; size = 4
_bFailed$ = -16						; size = 4
_nLengthA$ = -12					; size = 4
_nLengthW$ = -8						; size = 4
_this$ = -4						; size = 4
_psz$ = 8						; size = 4
_nConvertCodePage$ = 12					; size = 4
?Init@?$CW2AEX@$0IA@@ATL@@AAEXPB_WI@Z PROC		; ATL::CW2AEX<128>::Init, COMDAT
; _this$ = ecx

; 439  : 	{

  00000	55		 push	 ebp
  00001	8b ec		 mov	 ebp, esp
  00003	83 ec 54	 sub	 esp, 84			; 00000054H
  00006	53		 push	 ebx
  00007	56		 push	 esi
  00008	57		 push	 edi
  00009	89 4d fc	 mov	 DWORD PTR _this$[ebp], ecx

; 440  : 		if (psz == NULL)

  0000c	83 7d 08 00	 cmp	 DWORD PTR _psz$[ebp], 0
  00010	75 0e		 jne	 SHORT $LN2@Init

; 441  : 		{
; 442  : 			m_psz = NULL;

  00012	8b 45 fc	 mov	 eax, DWORD PTR _this$[ebp]
  00015	c7 00 00 00 00
	00		 mov	 DWORD PTR [eax], 0

; 443  : 			return;

  0001b	e9 25 01 00 00	 jmp	 $LN6@Init
$LN2@Init:

; 444  : 		}
; 445  : 		int nLengthW = static_cast<int>(wcslen( psz ))+1;

  00020	8b 45 08	 mov	 eax, DWORD PTR _psz$[ebp]
  00023	50		 push	 eax
  00024	ff 15 00 00 00
	00		 call	 DWORD PTR __imp__wcslen
  0002a	83 c4 04	 add	 esp, 4
  0002d	83 c0 01	 add	 eax, 1
  00030	89 45 f8	 mov	 DWORD PTR _nLengthW$[ebp], eax

; 446  : 		int nLengthA = nLengthW*4;

  00033	8b 45 f8	 mov	 eax, DWORD PTR _nLengthW$[ebp]
  00036	c1 e0 02	 shl	 eax, 2
  00039	89 45 f4	 mov	 DWORD PTR _nLengthA$[ebp], eax

; 447  : 
; 448  : 		AtlConvAllocMemory(&m_psz,nLengthA,m_szBuffer,t_nBufferLength);

  0003c	68 80 00 00 00	 push	 128			; 00000080H
  00041	8b 45 fc	 mov	 eax, DWORD PTR _this$[ebp]
  00044	83 c0 04	 add	 eax, 4
  00047	50		 push	 eax
  00048	8b 4d f4	 mov	 ecx, DWORD PTR _nLengthA$[ebp]
  0004b	51		 push	 ecx
  0004c	8b 55 fc	 mov	 edx, DWORD PTR _this$[ebp]
  0004f	52		 push	 edx
  00050	e8 00 00 00 00	 call	 ??$AtlConvAllocMemory@D@ATL@@YAXPAPADHPADH@Z ; ATL::AtlConvAllocMemory<char>
  00055	83 c4 10	 add	 esp, 16			; 00000010H

; 449  : 
; 450  : 		BOOL bFailed=(0 == ::WideCharToMultiByte( nConvertCodePage, 0, psz, nLengthW, m_psz, nLengthA, NULL, NULL ));

  00058	6a 00		 push	 0
  0005a	6a 00		 push	 0
  0005c	8b 45 f4	 mov	 eax, DWORD PTR _nLengthA$[ebp]
  0005f	50		 push	 eax
  00060	8b 4d fc	 mov	 ecx, DWORD PTR _this$[ebp]
  00063	8b 11		 mov	 edx, DWORD PTR [ecx]
  00065	52		 push	 edx
  00066	8b 45 f8	 mov	 eax, DWORD PTR _nLengthW$[ebp]
  00069	50		 push	 eax
  0006a	8b 4d 08	 mov	 ecx, DWORD PTR _psz$[ebp]
  0006d	51		 push	 ecx
  0006e	6a 00		 push	 0
  00070	8b 55 0c	 mov	 edx, DWORD PTR _nConvertCodePage$[ebp]
  00073	52		 push	 edx
  00074	ff 15 00 00 00
	00		 call	 DWORD PTR __imp__WideCharToMultiByte@32
  0007a	85 c0		 test	 eax, eax
  0007c	75 09		 jne	 SHORT $LN7@Init
  0007e	c7 45 ac 01 00
	00 00		 mov	 DWORD PTR tv87[ebp], 1
  00085	eb 07		 jmp	 SHORT $LN8@Init
$LN7@Init:
  00087	c7 45 ac 00 00
	00 00		 mov	 DWORD PTR tv87[ebp], 0
$LN8@Init:
  0008e	8b 45 ac	 mov	 eax, DWORD PTR tv87[ebp]
  00091	89 45 f0	 mov	 DWORD PTR _bFailed$[ebp], eax

; 451  : 		if (bFailed)

  00094	83 7d f0 00	 cmp	 DWORD PTR _bFailed$[ebp], 0
  00098	0f 84 82 00 00
	00		 je	 $LN3@Init

; 452  : 		{
; 453  : 			if (GetLastError()==ERROR_INSUFFICIENT_BUFFER)

  0009e	ff 15 00 00 00
	00		 call	 DWORD PTR __imp__GetLastError@0
  000a4	83 f8 7a	 cmp	 eax, 122		; 0000007aH
  000a7	75 77		 jne	 SHORT $LN3@Init

; 454  : 			{
; 455  : 				nLengthA = ::WideCharToMultiByte( nConvertCodePage, 0, psz, nLengthW, NULL, 0, NULL, NULL );

  000a9	6a 00		 push	 0
  000ab	6a 00		 push	 0
  000ad	6a 00		 push	 0
  000af	6a 00		 push	 0
  000b1	8b 45 f8	 mov	 eax, DWORD PTR _nLengthW$[ebp]
  000b4	50		 push	 eax
  000b5	8b 4d 08	 mov	 ecx, DWORD PTR _psz$[ebp]
  000b8	51		 push	 ecx
  000b9	6a 00		 push	 0
  000bb	8b 55 0c	 mov	 edx, DWORD PTR _nConvertCodePage$[ebp]
  000be	52		 push	 edx
  000bf	ff 15 00 00 00
	00		 call	 DWORD PTR __imp__WideCharToMultiByte@32
  000c5	89 45 f4	 mov	 DWORD PTR _nLengthA$[ebp], eax

; 456  : ATLPREFAST_SUPPRESS(6102)
; 457  :                 AtlConvAllocMemory(&m_psz,nLengthA,m_szBuffer,t_nBufferLength);

  000c8	68 80 00 00 00	 push	 128			; 00000080H
  000cd	8b 45 fc	 mov	 eax, DWORD PTR _this$[ebp]
  000d0	83 c0 04	 add	 eax, 4
  000d3	50		 push	 eax
  000d4	8b 4d f4	 mov	 ecx, DWORD PTR _nLengthA$[ebp]
  000d7	51		 push	 ecx
  000d8	8b 55 fc	 mov	 edx, DWORD PTR _this$[ebp]
  000db	52		 push	 edx
  000dc	e8 00 00 00 00	 call	 ??$AtlConvAllocMemory@D@ATL@@YAXPAPADHPADH@Z ; ATL::AtlConvAllocMemory<char>
  000e1	83 c4 10	 add	 esp, 16			; 00000010H

; 458  : ATLPREFAST_UNSUPPRESS()
; 459  : 				bFailed=(0 == ::WideCharToMultiByte( nConvertCodePage, 0, psz, nLengthW, m_psz, nLengthA, NULL, NULL ));

  000e4	6a 00		 push	 0
  000e6	6a 00		 push	 0
  000e8	8b 45 f4	 mov	 eax, DWORD PTR _nLengthA$[ebp]
  000eb	50		 push	 eax
  000ec	8b 4d fc	 mov	 ecx, DWORD PTR _this$[ebp]
  000ef	8b 11		 mov	 edx, DWORD PTR [ecx]
  000f1	52		 push	 edx
  000f2	8b 45 f8	 mov	 eax, DWORD PTR _nLengthW$[ebp]
  000f5	50		 push	 eax
  000f6	8b 4d 08	 mov	 ecx, DWORD PTR _psz$[ebp]
  000f9	51		 push	 ecx
  000fa	6a 00		 push	 0
  000fc	8b 55 0c	 mov	 edx, DWORD PTR _nConvertCodePage$[ebp]
  000ff	52		 push	 edx
  00100	ff 15 00 00 00
	00		 call	 DWORD PTR __imp__WideCharToMultiByte@32
  00106	85 c0		 test	 eax, eax
  00108	75 09		 jne	 SHORT $LN9@Init
  0010a	c7 45 ac 01 00
	00 00		 mov	 DWORD PTR tv149[ebp], 1
  00111	eb 07		 jmp	 SHORT $LN10@Init
$LN9@Init:
  00113	c7 45 ac 00 00
	00 00		 mov	 DWORD PTR tv149[ebp], 0
$LN10@Init:
  0011a	8b 45 ac	 mov	 eax, DWORD PTR tv149[ebp]
  0011d	89 45 f0	 mov	 DWORD PTR _bFailed$[ebp], eax
$LN3@Init:

; 460  : 			}
; 461  : 		}
; 462  : 		if (bFailed)

  00120	83 7d f0 00	 cmp	 DWORD PTR _bFailed$[ebp], 0
  00124	74 1f		 je	 SHORT $LN6@Init

; 463  : 		{
; 464  : 			AtlConvFreeMemory(m_psz, m_szBuffer, t_nBufferLength);

  00126	68 80 00 00 00	 push	 128			; 00000080H
  0012b	8b 45 fc	 mov	 eax, DWORD PTR _this$[ebp]
  0012e	83 c0 04	 add	 eax, 4
  00131	50		 push	 eax
  00132	8b 4d fc	 mov	 ecx, DWORD PTR _this$[ebp]
  00135	8b 11		 mov	 edx, DWORD PTR [ecx]
  00137	52		 push	 edx
  00138	e8 00 00 00 00	 call	 ??$AtlConvFreeMemory@D@ATL@@YAXPAD0H@Z ; ATL::AtlConvFreeMemory<char>
  0013d	83 c4 0c	 add	 esp, 12			; 0000000cH

; 465  : 			AtlThrowLastWin32();

  00140	e8 00 00 00 00	 call	 ?AtlThrowLastWin32@ATL@@YGXXZ ; ATL::AtlThrowLastWin32
$LN6@Init:

; 466  : 		}
; 467  : 	}

  00145	5f		 pop	 edi
  00146	5e		 pop	 esi
  00147	5b		 pop	 ebx
  00148	8b e5		 mov	 esp, ebp
  0014a	5d		 pop	 ebp
  0014b	c2 08 00	 ret	 8
?Init@?$CW2AEX@$0IA@@ATL@@AAEXPB_WI@Z ENDP		; ATL::CW2AEX<128>::Init
_TEXT	ENDS
; Function compile flags: /Odtp /ZI
; File c:\program files (x86)\microsoft visual studio\2017\community\vc\tools\msvc\14.16.27023\atlmfc\include\atlconv.h
;	COMDAT ??B?$CW2AEX@$0IA@@ATL@@QBEPADXZ
_TEXT	SEGMENT
_this$ = -4						; size = 4
??B?$CW2AEX@$0IA@@ATL@@QBEPADXZ PROC			; ATL::CW2AEX<128>::operator char *, COMDAT
; _this$ = ecx

; 431  : 	{

  00000	55		 push	 ebp
  00001	8b ec		 mov	 ebp, esp
  00003	83 ec 44	 sub	 esp, 68			; 00000044H
  00006	53		 push	 ebx
  00007	56		 push	 esi
  00008	57		 push	 edi
  00009	89 4d fc	 mov	 DWORD PTR _this$[ebp], ecx

; 432  : 		return( m_psz );

  0000c	8b 45 fc	 mov	 eax, DWORD PTR _this$[ebp]
  0000f	8b 00		 mov	 eax, DWORD PTR [eax]

; 433  : 	}

  00011	5f		 pop	 edi
  00012	5e		 pop	 esi
  00013	5b		 pop	 ebx
  00014	8b e5		 mov	 esp, ebp
  00016	5d		 pop	 ebp
  00017	c3		 ret	 0
??B?$CW2AEX@$0IA@@ATL@@QBEPADXZ ENDP			; ATL::CW2AEX<128>::operator char *
_TEXT	ENDS
; Function compile flags: /Odtp /ZI
; File c:\program files (x86)\microsoft visual studio\2017\community\vc\tools\msvc\14.16.27023\atlmfc\include\atlconv.h
;	COMDAT ??1?$CW2AEX@$0IA@@ATL@@QAE@XZ
_TEXT	SEGMENT
_this$ = -4						; size = 4
??1?$CW2AEX@$0IA@@ATL@@QAE@XZ PROC			; ATL::CW2AEX<128>::~CW2AEX<128>, COMDAT
; _this$ = ecx

; 426  : 	{

  00000	55		 push	 ebp
  00001	8b ec		 mov	 ebp, esp
  00003	83 ec 44	 sub	 esp, 68			; 00000044H
  00006	53		 push	 ebx
  00007	56		 push	 esi
  00008	57		 push	 edi
  00009	89 4d fc	 mov	 DWORD PTR _this$[ebp], ecx

; 427  : 		AtlConvFreeMemory(m_psz,m_szBuffer,t_nBufferLength);

  0000c	68 80 00 00 00	 push	 128			; 00000080H
  00011	8b 45 fc	 mov	 eax, DWORD PTR _this$[ebp]
  00014	83 c0 04	 add	 eax, 4
  00017	50		 push	 eax
  00018	8b 4d fc	 mov	 ecx, DWORD PTR _this$[ebp]
  0001b	8b 11		 mov	 edx, DWORD PTR [ecx]
  0001d	52		 push	 edx
  0001e	e8 00 00 00 00	 call	 ??$AtlConvFreeMemory@D@ATL@@YAXPAD0H@Z ; ATL::AtlConvFreeMemory<char>
  00023	83 c4 0c	 add	 esp, 12			; 0000000cH

; 428  : 	}

  00026	5f		 pop	 edi
  00027	5e		 pop	 esi
  00028	5b		 pop	 ebx
  00029	8b e5		 mov	 esp, ebp
  0002b	5d		 pop	 ebp
  0002c	c3		 ret	 0
??1?$CW2AEX@$0IA@@ATL@@QAE@XZ ENDP			; ATL::CW2AEX<128>::~CW2AEX<128>
_TEXT	ENDS
; Function compile flags: /Odtp /ZI
; File c:\program files (x86)\microsoft visual studio\2017\community\vc\tools\msvc\14.16.27023\atlmfc\include\atlconv.h
;	COMDAT ??0?$CW2AEX@$0IA@@ATL@@QAE@PB_W@Z
_TEXT	SEGMENT
_this$ = -4						; size = 4
_psz$ = 8						; size = 4
??0?$CW2AEX@$0IA@@ATL@@QAE@PB_W@Z PROC			; ATL::CW2AEX<128>::CW2AEX<128>, COMDAT
; _this$ = ecx

; 415  : 	{

  00000	55		 push	 ebp
  00001	8b ec		 mov	 ebp, esp
  00003	83 ec 44	 sub	 esp, 68			; 00000044H
  00006	53		 push	 ebx
  00007	56		 push	 esi
  00008	57		 push	 edi
  00009	89 4d fc	 mov	 DWORD PTR _this$[ebp], ecx

; 414  : 		m_psz( m_szBuffer )

  0000c	8b 45 fc	 mov	 eax, DWORD PTR _this$[ebp]
  0000f	83 c0 04	 add	 eax, 4
  00012	8b 4d fc	 mov	 ecx, DWORD PTR _this$[ebp]
  00015	89 01		 mov	 DWORD PTR [ecx], eax

; 416  : 		Init( psz, _AtlGetConversionACP() );

  00017	e8 00 00 00 00	 call	 ?_AtlGetConversionACP@ATL@@YGIXZ ; ATL::_AtlGetConversionACP
  0001c	50		 push	 eax
  0001d	8b 45 08	 mov	 eax, DWORD PTR _psz$[ebp]
  00020	50		 push	 eax
  00021	8b 4d fc	 mov	 ecx, DWORD PTR _this$[ebp]
  00024	e8 00 00 00 00	 call	 ?Init@?$CW2AEX@$0IA@@ATL@@AAEXPB_WI@Z ; ATL::CW2AEX<128>::Init

; 417  : 	}

  00029	8b 45 fc	 mov	 eax, DWORD PTR _this$[ebp]
  0002c	5f		 pop	 edi
  0002d	5e		 pop	 esi
  0002e	5b		 pop	 ebx
  0002f	8b e5		 mov	 esp, ebp
  00031	5d		 pop	 ebp
  00032	c2 04 00	 ret	 4
??0?$CW2AEX@$0IA@@ATL@@QAE@PB_W@Z ENDP			; ATL::CW2AEX<128>::CW2AEX<128>
_TEXT	ENDS
; Function compile flags: /Odtp /ZI
;	COMDAT ??_GCDataBaseEngineSink@@UAEPAXI@Z
_TEXT	SEGMENT
_this$ = -4						; size = 4
___flags$ = 8						; size = 4
??_GCDataBaseEngineSink@@UAEPAXI@Z PROC			; CDataBaseEngineSink::`scalar deleting destructor', COMDAT
; _this$ = ecx
  00000	55		 push	 ebp
  00001	8b ec		 mov	 ebp, esp
  00003	83 ec 44	 sub	 esp, 68			; 00000044H
  00006	53		 push	 ebx
  00007	56		 push	 esi
  00008	57		 push	 edi
  00009	89 4d fc	 mov	 DWORD PTR _this$[ebp], ecx
  0000c	8b 4d fc	 mov	 ecx, DWORD PTR _this$[ebp]
  0000f	e8 00 00 00 00	 call	 ??1CDataBaseEngineSink@@UAE@XZ ; CDataBaseEngineSink::~CDataBaseEngineSink
  00014	8b 45 08	 mov	 eax, DWORD PTR ___flags$[ebp]
  00017	83 e0 01	 and	 eax, 1
  0001a	74 11		 je	 SHORT $LN2@scalar
  0001c	68 bc 07 00 00	 push	 1980			; 000007bcH
  00021	8b 45 fc	 mov	 eax, DWORD PTR _this$[ebp]
  00024	50		 push	 eax
  00025	e8 00 00 00 00	 call	 ??3@YAXPAXI@Z		; operator delete
  0002a	83 c4 08	 add	 esp, 8
$LN2@scalar:
  0002d	8b 45 fc	 mov	 eax, DWORD PTR _this$[ebp]
  00030	5f		 pop	 edi
  00031	5e		 pop	 esi
  00032	5b		 pop	 ebx
  00033	8b e5		 mov	 esp, ebp
  00035	5d		 pop	 ebp
  00036	c2 04 00	 ret	 4
??_GCDataBaseEngineSink@@UAEPAXI@Z ENDP			; CDataBaseEngineSink::`scalar deleting destructor'
_TEXT	ENDS
; Function compile flags: /Odtp /ZI
; File g:\网狐\happygamewh\服务端\系统模块\服务器组件\聊天服务器\databaseenginesink.cpp
;	COMDAT ?OnUserOperateResult@CDataBaseEngineSink@@AAEXK_NKGPBD@Z
_TEXT	SEGMENT
_wHeadSize$ = -152					; size = 2
_OperateResult$ = -148					; size = 140
_this$ = -8						; size = 4
__$ArrayPad$ = -4					; size = 4
_dwContextID$ = 8					; size = 4
_bOperateSucess$ = 12					; size = 1
_dwErrorCode$ = 16					; size = 4
_wOperateCode$ = 20					; size = 2
_pszDescribeString$ = 24				; size = 4
?OnUserOperateResult@CDataBaseEngineSink@@AAEXK_NKGPBD@Z PROC ; CDataBaseEngineSink::OnUserOperateResult, COMDAT
; _this$ = ecx

; 1119 : {

  00000	55		 push	 ebp
  00001	8b ec		 mov	 ebp, esp
  00003	81 ec d8 00 00
	00		 sub	 esp, 216		; 000000d8H
  00009	a1 00 00 00 00	 mov	 eax, DWORD PTR ___security_cookie
  0000e	33 c5		 xor	 eax, ebp
  00010	89 45 fc	 mov	 DWORD PTR __$ArrayPad$[ebp], eax
  00013	53		 push	 ebx
  00014	56		 push	 esi
  00015	57		 push	 edi
  00016	89 4d f8	 mov	 DWORD PTR _this$[ebp], ecx

; 1120 : 	//变量定义
; 1121 : 	DBO_GR_OperateResult OperateResult;
; 1122 : 
; 1123 : 	//设置变量
; 1124 : 	OperateResult.bModifySucesss=bOperateSucess;

  00019	8a 45 0c	 mov	 al, BYTE PTR _bOperateSucess$[ebp]
  0001c	88 85 6c ff ff
	ff		 mov	 BYTE PTR _OperateResult$[ebp], al

; 1125 : 	OperateResult.dwErrorCode=dwErrorCode;

  00022	8b 45 10	 mov	 eax, DWORD PTR _dwErrorCode$[ebp]
  00025	89 85 70 ff ff
	ff		 mov	 DWORD PTR _OperateResult$[ebp+4], eax

; 1126 : 	OperateResult.wOperateCode=wOperateCode;

  0002b	66 8b 45 14	 mov	 ax, WORD PTR _wOperateCode$[ebp]
  0002f	66 89 85 74 ff
	ff ff		 mov	 WORD PTR _OperateResult$[ebp+8], ax

; 1127 : 	lstrcpyn(OperateResult.szDescribeString,pszDescribeString,CountArray(OperateResult.szDescribeString));

  00036	68 80 00 00 00	 push	 128			; 00000080H
  0003b	8b 45 18	 mov	 eax, DWORD PTR _pszDescribeString$[ebp]
  0003e	50		 push	 eax
  0003f	8d 8d 76 ff ff
	ff		 lea	 ecx, DWORD PTR _OperateResult$[ebp+10]
  00045	51		 push	 ecx
  00046	ff 15 00 00 00
	00		 call	 DWORD PTR __imp__lstrcpynA@12

; 1128 : 
; 1129 : 	//发送结果
; 1130 : 	WORD wHeadSize=sizeof(OperateResult);

  0004c	b8 8c 00 00 00	 mov	 eax, 140		; 0000008cH
  00051	66 89 85 68 ff
	ff ff		 mov	 WORD PTR _wHeadSize$[ebp], ax

; 1131 : 	m_pIDataBaseEngineEvent->OnEventDataBaseResult(DBO_GR_OPERATE_RESULT,dwContextID,&OperateResult,wHeadSize);

  00058	0f b7 85 68 ff
	ff ff		 movzx	 eax, WORD PTR _wHeadSize$[ebp]
  0005f	50		 push	 eax
  00060	8d 8d 6c ff ff
	ff		 lea	 ecx, DWORD PTR _OperateResult$[ebp]
  00066	51		 push	 ecx
  00067	8b 55 08	 mov	 edx, DWORD PTR _dwContextID$[ebp]
  0006a	52		 push	 edx
  0006b	68 99 01 00 00	 push	 409			; 00000199H
  00070	8b 45 f8	 mov	 eax, DWORD PTR _this$[ebp]
  00073	8b 88 a8 05 00
	00		 mov	 ecx, DWORD PTR [eax+1448]
  00079	8b 55 f8	 mov	 edx, DWORD PTR _this$[ebp]
  0007c	8b 01		 mov	 eax, DWORD PTR [ecx]
  0007e	8b 8a a8 05 00
	00		 mov	 ecx, DWORD PTR [edx+1448]
  00084	8b 50 08	 mov	 edx, DWORD PTR [eax+8]
  00087	ff d2		 call	 edx

; 1132 : }

  00089	5f		 pop	 edi
  0008a	5e		 pop	 esi
  0008b	5b		 pop	 ebx
  0008c	8b 4d fc	 mov	 ecx, DWORD PTR __$ArrayPad$[ebp]
  0008f	33 cd		 xor	 ecx, ebp
  00091	e8 00 00 00 00	 call	 @__security_check_cookie@4
  00096	8b e5		 mov	 esp, ebp
  00098	5d		 pop	 ebp
  00099	c2 14 00	 ret	 20			; 00000014H
?OnUserOperateResult@CDataBaseEngineSink@@AAEXK_NKGPBD@Z ENDP ; CDataBaseEngineSink::OnUserOperateResult
_TEXT	ENDS
; Function compile flags: /Odtp /ZI
; File g:\网狐\happygamewh\服务端\系统模块\服务器组件\聊天服务器\databaseenginesink.cpp
;	COMDAT ?OnLogonDisposeResult@CDataBaseEngineSink@@AAEXKKPBD_NGG@Z
_TEXT	SEGMENT
_wHeadSize$1 = -152					; size = 2
_wDataSize$2 = -148					; size = 2
_LogonFailure$3 = -144					; size = 132
_wHeadSize$4 = -12					; size = 2
_this$ = -8						; size = 4
__$ArrayPad$ = -4					; size = 4
_dwContextID$ = 8					; size = 4
_dwErrorCode$ = 12					; size = 4
_pszErrorString$ = 16					; size = 4
_bMobileClient$ = 20					; size = 1
_wBehaviorFlags$ = 24					; size = 2
_wPageTableCount$ = 28					; size = 2
?OnLogonDisposeResult@CDataBaseEngineSink@@AAEXKKPBD_NGG@Z PROC ; CDataBaseEngineSink::OnLogonDisposeResult, COMDAT
; _this$ = ecx

; 1071 : {

  00000	55		 push	 ebp
  00001	8b ec		 mov	 ebp, esp
  00003	81 ec d8 00 00
	00		 sub	 esp, 216		; 000000d8H
  00009	a1 00 00 00 00	 mov	 eax, DWORD PTR ___security_cookie
  0000e	33 c5		 xor	 eax, ebp
  00010	89 45 fc	 mov	 DWORD PTR __$ArrayPad$[ebp], eax
  00013	53		 push	 ebx
  00014	56		 push	 esi
  00015	57		 push	 edi
  00016	89 4d f8	 mov	 DWORD PTR _this$[ebp], ecx

; 1072 : 	if (dwErrorCode==DB_SUCCESS)

  00019	83 7d 0c 00	 cmp	 DWORD PTR _dwErrorCode$[ebp], 0
  0001d	0f 85 fb 01 00
	00		 jne	 $LN2@OnLogonDis

; 1073 : 	{
; 1074 : 		//基本资料
; 1075 : 		m_LogonSuccess.dwUserID=m_AccountsDBAide.GetValue_DWORD(TEXT("UserID"));

  00023	68 00 00 00 00	 push	 OFFSET ??_C@_06OFHCDFJK@UserID@
  00028	8b 4d f8	 mov	 ecx, DWORD PTR _this$[ebp]
  0002b	83 c1 04	 add	 ecx, 4
  0002e	ff 15 00 00 00
	00		 call	 DWORD PTR __imp_?GetValue_DWORD@CDataBaseAide@@QAEKPBD@Z
  00034	8b 4d f8	 mov	 ecx, DWORD PTR _this$[ebp]
  00037	89 81 30 06 00
	00		 mov	 DWORD PTR [ecx+1584], eax

; 1076 : 		m_LogonSuccess.dwGameID=m_AccountsDBAide.GetValue_DWORD(TEXT("GameID"));

  0003d	68 00 00 00 00	 push	 OFFSET ??_C@_06KGJDDPAK@GameID@
  00042	8b 4d f8	 mov	 ecx, DWORD PTR _this$[ebp]
  00045	83 c1 04	 add	 ecx, 4
  00048	ff 15 00 00 00
	00		 call	 DWORD PTR __imp_?GetValue_DWORD@CDataBaseAide@@QAEKPBD@Z
  0004e	8b 4d f8	 mov	 ecx, DWORD PTR _this$[ebp]
  00051	89 81 34 06 00
	00		 mov	 DWORD PTR [ecx+1588], eax

; 1077 : 		m_AccountsDBAide.GetValue_String(TEXT("NickName"),m_LogonSuccess.szNickName,CountArray(m_LogonSuccess.szNickName));

  00057	6a 20		 push	 32			; 00000020H
  00059	8b 45 f8	 mov	 eax, DWORD PTR _this$[ebp]
  0005c	05 38 06 00 00	 add	 eax, 1592		; 00000638H
  00061	50		 push	 eax
  00062	68 00 00 00 00	 push	 OFFSET ??_C@_08CELDJAGK@NickName@
  00067	8b 4d f8	 mov	 ecx, DWORD PTR _this$[ebp]
  0006a	83 c1 04	 add	 ecx, 4
  0006d	ff 15 00 00 00
	00		 call	 DWORD PTR __imp_?GetValue_String@CDataBaseAide@@QAEXPBDPADI@Z

; 1078 : 		m_LogonSuccess.dwFaceID=m_AccountsDBAide.GetValue_DWORD(TEXT("FaceID"));

  00073	68 00 00 00 00	 push	 OFFSET ??_C@_06LPNEIKNP@FaceID@
  00078	8b 4d f8	 mov	 ecx, DWORD PTR _this$[ebp]
  0007b	83 c1 04	 add	 ecx, 4
  0007e	ff 15 00 00 00
	00		 call	 DWORD PTR __imp_?GetValue_DWORD@CDataBaseAide@@QAEKPBD@Z
  00084	8b 4d f8	 mov	 ecx, DWORD PTR _this$[ebp]
  00087	89 81 7c 06 00
	00		 mov	 DWORD PTR [ecx+1660], eax

; 1079 : 		m_LogonSuccess.dwCustomID=m_AccountsDBAide.GetValue_DWORD(TEXT("CustomID"));

  0008d	68 00 00 00 00	 push	 OFFSET ??_C@_08GOBKDNAK@CustomID@
  00092	8b 4d f8	 mov	 ecx, DWORD PTR _this$[ebp]
  00095	83 c1 04	 add	 ecx, 4
  00098	ff 15 00 00 00
	00		 call	 DWORD PTR __imp_?GetValue_DWORD@CDataBaseAide@@QAEKPBD@Z
  0009e	8b 4d f8	 mov	 ecx, DWORD PTR _this$[ebp]
  000a1	89 81 80 06 00
	00		 mov	 DWORD PTR [ecx+1664], eax

; 1080 : 		m_LogonSuccess.cbGender=m_AccountsDBAide.GetValue_BYTE(TEXT("Gender"));

  000a7	68 00 00 00 00	 push	 OFFSET ??_C@_06HKFFEOFI@Gender@
  000ac	8b 4d f8	 mov	 ecx, DWORD PTR _this$[ebp]
  000af	83 c1 04	 add	 ecx, 4
  000b2	ff 15 00 00 00
	00		 call	 DWORD PTR __imp_?GetValue_BYTE@CDataBaseAide@@QAEEPBD@Z
  000b8	8b 4d f8	 mov	 ecx, DWORD PTR _this$[ebp]
  000bb	88 81 84 06 00
	00		 mov	 BYTE PTR [ecx+1668], al

; 1081 : 		m_LogonSuccess.wMemberOrder=m_AccountsDBAide.GetValue_BYTE(TEXT("MemberOrder"));

  000c1	68 00 00 00 00	 push	 OFFSET ??_C@_0M@CEFIIFDG@MemberOrder@
  000c6	8b 4d f8	 mov	 ecx, DWORD PTR _this$[ebp]
  000c9	83 c1 04	 add	 ecx, 4
  000cc	ff 15 00 00 00
	00		 call	 DWORD PTR __imp_?GetValue_BYTE@CDataBaseAide@@QAEEPBD@Z
  000d2	66 0f b6 c0	 movzx	 ax, al
  000d6	8b 4d f8	 mov	 ecx, DWORD PTR _this$[ebp]
  000d9	66 89 81 86 06
	00 00		 mov	 WORD PTR [ecx+1670], ax

; 1082 : 		m_LogonSuccess.wGrowLevel=m_AccountsDBAide.GetValue_BYTE(TEXT("GrowLevel"));

  000e0	68 00 00 00 00	 push	 OFFSET ??_C@_09HOAKNMLL@GrowLevel@
  000e5	8b 4d f8	 mov	 ecx, DWORD PTR _this$[ebp]
  000e8	83 c1 04	 add	 ecx, 4
  000eb	ff 15 00 00 00
	00		 call	 DWORD PTR __imp_?GetValue_BYTE@CDataBaseAide@@QAEEPBD@Z
  000f1	66 0f b6 c0	 movzx	 ax, al
  000f5	8b 4d f8	 mov	 ecx, DWORD PTR _this$[ebp]
  000f8	66 89 81 88 06
	00 00		 mov	 WORD PTR [ecx+1672], ax

; 1083 : 		m_AccountsDBAide.GetValue_String(TEXT("UnderWrite"),m_LogonSuccess.szUnderWrite,CountArray(m_LogonSuccess.szUnderWrite));

  000ff	6a 20		 push	 32			; 00000020H
  00101	8b 45 f8	 mov	 eax, DWORD PTR _this$[ebp]
  00104	05 8a 06 00 00	 add	 eax, 1674		; 0000068aH
  00109	50		 push	 eax
  0010a	68 00 00 00 00	 push	 OFFSET ??_C@_0L@CPAJNIME@UnderWrite@
  0010f	8b 4d f8	 mov	 ecx, DWORD PTR _this$[ebp]
  00112	83 c1 04	 add	 ecx, 4
  00115	ff 15 00 00 00
	00		 call	 DWORD PTR __imp_?GetValue_String@CDataBaseAide@@QAEXPBDPADI@Z

; 1084 : 		m_AccountsDBAide.GetValue_String(TEXT("Compellation"),m_LogonSuccess.szCompellation,CountArray(m_LogonSuccess.szCompellation));

  0011b	6a 10		 push	 16			; 00000010H
  0011d	8b 45 f8	 mov	 eax, DWORD PTR _this$[ebp]
  00120	05 aa 06 00 00	 add	 eax, 1706		; 000006aaH
  00125	50		 push	 eax
  00126	68 00 00 00 00	 push	 OFFSET ??_C@_0N@CLIEFGAF@Compellation@
  0012b	8b 4d f8	 mov	 ecx, DWORD PTR _this$[ebp]
  0012e	83 c1 04	 add	 ecx, 4
  00131	ff 15 00 00 00
	00		 call	 DWORD PTR __imp_?GetValue_String@CDataBaseAide@@QAEXPBDPADI@Z

; 1085 : 
; 1086 :         //用户资料
; 1087 : 		m_AccountsDBAide.GetValue_String(TEXT("QQ"),m_LogonSuccess.szQQ,CountArray(m_LogonSuccess.szQQ));

  00137	6a 10		 push	 16			; 00000010H
  00139	8b 45 f8	 mov	 eax, DWORD PTR _this$[ebp]
  0013c	05 d4 06 00 00	 add	 eax, 1748		; 000006d4H
  00141	50		 push	 eax
  00142	68 00 00 00 00	 push	 OFFSET ??_C@_02MOGAAOHP@QQ@
  00147	8b 4d f8	 mov	 ecx, DWORD PTR _this$[ebp]
  0014a	83 c1 04	 add	 ecx, 4
  0014d	ff 15 00 00 00
	00		 call	 DWORD PTR __imp_?GetValue_String@CDataBaseAide@@QAEXPBDPADI@Z

; 1088 : 		m_AccountsDBAide.GetValue_String(TEXT("EMail"),m_LogonSuccess.szEMail,CountArray(m_LogonSuccess.szEMail));

  00153	6a 21		 push	 33			; 00000021H
  00155	8b 45 f8	 mov	 eax, DWORD PTR _this$[ebp]
  00158	05 e4 06 00 00	 add	 eax, 1764		; 000006e4H
  0015d	50		 push	 eax
  0015e	68 00 00 00 00	 push	 OFFSET ??_C@_05LMBPBNBJ@EMail@
  00163	8b 4d f8	 mov	 ecx, DWORD PTR _this$[ebp]
  00166	83 c1 04	 add	 ecx, 4
  00169	ff 15 00 00 00
	00		 call	 DWORD PTR __imp_?GetValue_String@CDataBaseAide@@QAEXPBDPADI@Z

; 1089 : 		m_AccountsDBAide.GetValue_String(TEXT("SeatPhone"),m_LogonSuccess.szSeatPhone,CountArray(m_LogonSuccess.szSeatPhone));

  0016f	6a 21		 push	 33			; 00000021H
  00171	8b 45 f8	 mov	 eax, DWORD PTR _this$[ebp]
  00174	05 05 07 00 00	 add	 eax, 1797		; 00000705H
  00179	50		 push	 eax
  0017a	68 00 00 00 00	 push	 OFFSET ??_C@_09MAIOJANC@SeatPhone@
  0017f	8b 4d f8	 mov	 ecx, DWORD PTR _this$[ebp]
  00182	83 c1 04	 add	 ecx, 4
  00185	ff 15 00 00 00
	00		 call	 DWORD PTR __imp_?GetValue_String@CDataBaseAide@@QAEXPBDPADI@Z

; 1090 : 		m_AccountsDBAide.GetValue_String(TEXT("MobilePhone"),m_LogonSuccess.szMobilePhone,CountArray(m_LogonSuccess.szMobilePhone));

  0018b	6a 0c		 push	 12			; 0000000cH
  0018d	8b 45 f8	 mov	 eax, DWORD PTR _this$[ebp]
  00190	05 26 07 00 00	 add	 eax, 1830		; 00000726H
  00195	50		 push	 eax
  00196	68 00 00 00 00	 push	 OFFSET ??_C@_0M@OJIHCJC@MobilePhone@
  0019b	8b 4d f8	 mov	 ecx, DWORD PTR _this$[ebp]
  0019e	83 c1 04	 add	 ecx, 4
  001a1	ff 15 00 00 00
	00		 call	 DWORD PTR __imp_?GetValue_String@CDataBaseAide@@QAEXPBDPADI@Z

; 1091 : 		m_AccountsDBAide.GetValue_String(TEXT("DwellingPlace"),m_LogonSuccess.szDwellingPlace,CountArray(m_LogonSuccess.szDwellingPlace));

  001a7	68 80 00 00 00	 push	 128			; 00000080H
  001ac	8b 45 f8	 mov	 eax, DWORD PTR _this$[ebp]
  001af	05 32 07 00 00	 add	 eax, 1842		; 00000732H
  001b4	50		 push	 eax
  001b5	68 00 00 00 00	 push	 OFFSET ??_C@_0O@GKEPGAEM@DwellingPlace@
  001ba	8b 4d f8	 mov	 ecx, DWORD PTR _this$[ebp]
  001bd	83 c1 04	 add	 ecx, 4
  001c0	ff 15 00 00 00
	00		 call	 DWORD PTR __imp_?GetValue_String@CDataBaseAide@@QAEXPBDPADI@Z

; 1092 : 		m_AccountsDBAide.GetValue_String(TEXT("PostalCode"),m_LogonSuccess.szPostalCode,CountArray(m_LogonSuccess.szPostalCode));

  001c6	6a 08		 push	 8
  001c8	8b 45 f8	 mov	 eax, DWORD PTR _this$[ebp]
  001cb	05 b2 07 00 00	 add	 eax, 1970		; 000007b2H
  001d0	50		 push	 eax
  001d1	68 00 00 00 00	 push	 OFFSET ??_C@_0L@FEKLBNBC@PostalCode@
  001d6	8b 4d f8	 mov	 ecx, DWORD PTR _this$[ebp]
  001d9	83 c1 04	 add	 ecx, 4
  001dc	ff 15 00 00 00
	00		 call	 DWORD PTR __imp_?GetValue_String@CDataBaseAide@@QAEXPBDPADI@Z

; 1093 : 
; 1094 : 		//发送结果
; 1095 : 		WORD wHeadSize=sizeof(m_LogonSuccess);

  001e2	b8 8c 01 00 00	 mov	 eax, 396		; 0000018cH
  001e7	66 89 45 f4	 mov	 WORD PTR _wHeadSize$4[ebp], ax

; 1096 : 		m_pIDataBaseEngineEvent->OnEventDataBaseResult(DBO_GR_LOGON_SUCCESS,dwContextID,&m_LogonSuccess,wHeadSize);

  001eb	0f b7 45 f4	 movzx	 eax, WORD PTR _wHeadSize$4[ebp]
  001ef	50		 push	 eax
  001f0	8b 4d f8	 mov	 ecx, DWORD PTR _this$[ebp]
  001f3	81 c1 30 06 00
	00		 add	 ecx, 1584		; 00000630H
  001f9	51		 push	 ecx
  001fa	8b 55 08	 mov	 edx, DWORD PTR _dwContextID$[ebp]
  001fd	52		 push	 edx
  001fe	6a 64		 push	 100			; 00000064H
  00200	8b 45 f8	 mov	 eax, DWORD PTR _this$[ebp]
  00203	8b 88 a8 05 00
	00		 mov	 ecx, DWORD PTR [eax+1448]
  00209	8b 55 f8	 mov	 edx, DWORD PTR _this$[ebp]
  0020c	8b 01		 mov	 eax, DWORD PTR [ecx]
  0020e	8b 8a a8 05 00
	00		 mov	 ecx, DWORD PTR [edx+1448]
  00214	8b 50 08	 mov	 edx, DWORD PTR [eax+8]
  00217	ff d2		 call	 edx

; 1097 : 	}
; 1098 : 	else

  00219	e9 8f 00 00 00	 jmp	 $LN1@OnLogonDis
$LN2@OnLogonDis:

; 1099 : 	{
; 1100 : 		//变量定义
; 1101 : 		DBO_GR_LogonFailure LogonFailure;
; 1102 : 		ZeroMemory(&LogonFailure,sizeof(LogonFailure));

  0021e	68 84 00 00 00	 push	 132			; 00000084H
  00223	6a 00		 push	 0
  00225	8d 85 70 ff ff
	ff		 lea	 eax, DWORD PTR _LogonFailure$3[ebp]
  0022b	50		 push	 eax
  0022c	e8 00 00 00 00	 call	 _memset
  00231	83 c4 0c	 add	 esp, 12			; 0000000cH

; 1103 : 
; 1104 : 		//构造数据
; 1105 : 		LogonFailure.lResultCode=dwErrorCode;

  00234	8b 45 0c	 mov	 eax, DWORD PTR _dwErrorCode$[ebp]
  00237	89 85 70 ff ff
	ff		 mov	 DWORD PTR _LogonFailure$3[ebp], eax

; 1106 : 		lstrcpyn(LogonFailure.szDescribeString,pszErrorString,CountArray(LogonFailure.szDescribeString));

  0023d	68 80 00 00 00	 push	 128			; 00000080H
  00242	8b 45 10	 mov	 eax, DWORD PTR _pszErrorString$[ebp]
  00245	50		 push	 eax
  00246	8d 8d 74 ff ff
	ff		 lea	 ecx, DWORD PTR _LogonFailure$3[ebp+4]
  0024c	51		 push	 ecx
  0024d	ff 15 00 00 00
	00		 call	 DWORD PTR __imp__lstrcpynA@12

; 1107 : 
; 1108 : 		//发送结果
; 1109 : 		WORD wDataSize=CountStringBuffer(LogonFailure.szDescribeString);

  00253	8d 85 74 ff ff
	ff		 lea	 eax, DWORD PTR _LogonFailure$3[ebp+4]
  00259	50		 push	 eax
  0025a	ff 15 00 00 00
	00		 call	 DWORD PTR __imp__lstrlenA@4
  00260	83 c0 01	 add	 eax, 1
  00263	66 89 85 6c ff
	ff ff		 mov	 WORD PTR _wDataSize$2[ebp], ax

; 1110 : 		WORD wHeadSize=sizeof(LogonFailure)-sizeof(LogonFailure.szDescribeString);

  0026a	b8 04 00 00 00	 mov	 eax, 4
  0026f	66 89 85 68 ff
	ff ff		 mov	 WORD PTR _wHeadSize$1[ebp], ax

; 1111 : 		m_pIDataBaseEngineEvent->OnEventDataBaseResult(DBO_GR_LOGON_FAILURE,dwContextID,&LogonFailure,wHeadSize+wDataSize);

  00276	0f b7 85 68 ff
	ff ff		 movzx	 eax, WORD PTR _wHeadSize$1[ebp]
  0027d	0f b7 8d 6c ff
	ff ff		 movzx	 ecx, WORD PTR _wDataSize$2[ebp]
  00284	03 c1		 add	 eax, ecx
  00286	50		 push	 eax
  00287	8d 95 70 ff ff
	ff		 lea	 edx, DWORD PTR _LogonFailure$3[ebp]
  0028d	52		 push	 edx
  0028e	8b 45 08	 mov	 eax, DWORD PTR _dwContextID$[ebp]
  00291	50		 push	 eax
  00292	6a 65		 push	 101			; 00000065H
  00294	8b 4d f8	 mov	 ecx, DWORD PTR _this$[ebp]
  00297	8b 91 a8 05 00
	00		 mov	 edx, DWORD PTR [ecx+1448]
  0029d	8b 45 f8	 mov	 eax, DWORD PTR _this$[ebp]
  002a0	8b 12		 mov	 edx, DWORD PTR [edx]
  002a2	8b 88 a8 05 00
	00		 mov	 ecx, DWORD PTR [eax+1448]
  002a8	8b 42 08	 mov	 eax, DWORD PTR [edx+8]
  002ab	ff d0		 call	 eax
$LN1@OnLogonDis:

; 1112 : 	}
; 1113 : 
; 1114 : 	return;
; 1115 : }

  002ad	5f		 pop	 edi
  002ae	5e		 pop	 esi
  002af	5b		 pop	 ebx
  002b0	8b 4d fc	 mov	 ecx, DWORD PTR __$ArrayPad$[ebp]
  002b3	33 cd		 xor	 ecx, ebp
  002b5	e8 00 00 00 00	 call	 @__security_check_cookie@4
  002ba	8b e5		 mov	 esp, ebp
  002bc	5d		 pop	 ebp
  002bd	c2 18 00	 ret	 24			; 00000018H
?OnLogonDisposeResult@CDataBaseEngineSink@@AAEXKKPBD_NGG@Z ENDP ; CDataBaseEngineSink::OnLogonDisposeResult
_TEXT	ENDS
; Function compile flags: /Odtp /ZI
; File g:\网狐\happygamewh\服务端\系统模块\服务器组件\聊天服务器\databaseenginesink.cpp
;	COMDAT ?OnRequestLoadSystemMessage@CDataBaseEngineSink@@IAE_NKPAXG@Z
_TEXT	SEGMENT
tv218 = -1457						; size = 1
tv194 = -1456						; size = 4
tv86 = -1456						; size = 4
tv221 = -1452						; size = 4
tv220 = -1452						; size = 4
tv217 = -1452						; size = 4
tv216 = -1452						; size = 4
tv147 = -1452						; size = 4
tv128 = -1452						; size = 4
tv219 = -1446						; size = 1
$T2 = -1445						; size = 1
_pIException$3 = -1252					; size = 4
_ConcludeTime$4 = -1248					; size = 8
_StarTime$5 = -1240					; size = 8
_systime$6 = -1232					; size = 16
_SystemMessage$7 = -1216				; size = 154
_bAllRoom$8 = -1058					; size = 1
_bSendMessage$9 = -1057					; size = 1
_strServerRange$10 = -1056				; size = 4
_szServerRange$11 = -1052				; size = 1024
_lReturnValue$12 = -28					; size = 4
_this$ = -24						; size = 4
__$ArrayPad$ = -20					; size = 4
__$EHRec$ = -16						; size = 16
_dwContextID$ = 8					; size = 4
_pData$ = 12						; size = 4
_wDataSize$ = 16					; size = 2
?OnRequestLoadSystemMessage@CDataBaseEngineSink@@IAE_NKPAXG@Z PROC ; CDataBaseEngineSink::OnRequestLoadSystemMessage, COMDAT
; _this$ = ecx

; 963  : {

  00000	55		 push	 ebp
  00001	8b ec		 mov	 ebp, esp
  00003	6a ff		 push	 -1
  00005	68 00 00 00 00	 push	 __ehhandler$?OnRequestLoadSystemMessage@CDataBaseEngineSink@@IAE_NKPAXG@Z
  0000a	64 a1 00 00 00
	00		 mov	 eax, DWORD PTR fs:0
  00010	50		 push	 eax
  00011	51		 push	 ecx
  00012	81 ec a4 05 00
	00		 sub	 esp, 1444		; 000005a4H
  00018	a1 00 00 00 00	 mov	 eax, DWORD PTR ___security_cookie
  0001d	33 c5		 xor	 eax, ebp
  0001f	89 45 ec	 mov	 DWORD PTR __$ArrayPad$[ebp], eax
  00022	53		 push	 ebx
  00023	56		 push	 esi
  00024	57		 push	 edi
  00025	50		 push	 eax
  00026	8d 45 f4	 lea	 eax, DWORD PTR __$EHRec$[ebp+4]
  00029	64 a3 00 00 00
	00		 mov	 DWORD PTR fs:0, eax
  0002f	89 65 f0	 mov	 DWORD PTR __$EHRec$[ebp], esp
  00032	89 4d e8	 mov	 DWORD PTR _this$[ebp], ecx

; 964  : 	try

  00035	c7 45 fc 00 00
	00 00		 mov	 DWORD PTR __$EHRec$[ebp+12], 0

; 965  : 	{
; 966  : 		//构造参数
; 967  : 		m_PlatformDBAide.ResetParameter();

  0003c	8b 4d e8	 mov	 ecx, DWORD PTR _this$[ebp]
  0003f	81 c1 c4 03 00
	00		 add	 ecx, 964		; 000003c4H
  00045	ff 15 00 00 00
	00		 call	 DWORD PTR __imp_?ResetParameter@CDataBaseAide@@QAEXXZ

; 968  : 		m_PlatformDBAide.AddParameter(TEXT("@wServerID"), 0);

  0004b	6a 01		 push	 1
  0004d	6a 00		 push	 0
  0004f	68 00 00 00 00	 push	 OFFSET ??_C@_0L@FIEHJJML@?$EAwServerID@
  00054	8b 4d e8	 mov	 ecx, DWORD PTR _this$[ebp]
  00057	81 c1 c4 03 00
	00		 add	 ecx, 964		; 000003c4H
  0005d	ff 15 00 00 00
	00		 call	 DWORD PTR __imp_?AddParameter@CDataBaseAide@@QAEXPBDHW4ParameterDirectionEnum@ADOCG@@@Z

; 969  : 
; 970  : 		//执行查询
; 971  : 		LONG lReturnValue = m_PlatformDBAide.ExecuteProcess(TEXT("GSP_GR_LoadSystemMessage"), true);

  00063	6a 01		 push	 1
  00065	68 00 00 00 00	 push	 OFFSET ??_C@_0BJ@GFLIDCFB@GSP_GR_LoadSystemMessage@
  0006a	8b 4d e8	 mov	 ecx, DWORD PTR _this$[ebp]
  0006d	81 c1 c4 03 00
	00		 add	 ecx, 964		; 000003c4H
  00073	ff 15 00 00 00
	00		 call	 DWORD PTR __imp_?ExecuteProcess@CDataBaseAide@@QAEJPBD_N@Z
  00079	89 85 54 fa ff
	ff		 mov	 DWORD PTR tv216[ebp], eax
  0007f	8b 85 54 fa ff
	ff		 mov	 eax, DWORD PTR tv216[ebp]
  00085	89 45 e4	 mov	 DWORD PTR _lReturnValue$12[ebp], eax

; 972  : 
; 973  : 		//结果处理
; 974  : 		if (lReturnValue == 0)

  00088	83 7d e4 00	 cmp	 DWORD PTR _lReturnValue$12[ebp], 0
  0008c	0f 85 9b 02 00
	00		 jne	 $LN5@OnRequestL
$LN2@OnRequestL:

; 975  : 		{
; 976  : 			while (true)

  00092	b8 01 00 00 00	 mov	 eax, 1
  00097	85 c0		 test	 eax, eax
  00099	0f 84 68 02 00
	00		 je	 $LN3@OnRequestL

; 977  : 			{
; 978  : 				//结束判断
; 979  : 				if (m_PlatformDBModule->IsRecordsetEnd() == true) break;

  0009f	8b 4d e8	 mov	 ecx, DWORD PTR _this$[ebp]
  000a2	81 c1 cc 03 00
	00		 add	 ecx, 972		; 000003ccH
  000a8	e8 00 00 00 00	 call	 ??C?$CTempldateHelper@UIDataBase@@@@QBEPAUIDataBase@@XZ ; CTempldateHelper<IDataBase>::operator->
  000ad	89 85 54 fa ff
	ff		 mov	 DWORD PTR tv217[ebp], eax
  000b3	8b 85 54 fa ff
	ff		 mov	 eax, DWORD PTR tv217[ebp]
  000b9	89 85 50 fa ff
	ff		 mov	 DWORD PTR tv86[ebp], eax
  000bf	8b 8d 50 fa ff
	ff		 mov	 ecx, DWORD PTR tv86[ebp]
  000c5	8b 11		 mov	 edx, DWORD PTR [ecx]
  000c7	8b 8d 50 fa ff
	ff		 mov	 ecx, DWORD PTR tv86[ebp]
  000cd	8b 42 38	 mov	 eax, DWORD PTR [edx+56]
  000d0	ff d0		 call	 eax
  000d2	88 85 4f fa ff
	ff		 mov	 BYTE PTR tv218[ebp], al
  000d8	0f b6 8d 4f fa
	ff ff		 movzx	 ecx, BYTE PTR tv218[ebp]
  000df	83 f9 01	 cmp	 ecx, 1
  000e2	75 05		 jne	 SHORT $LN6@OnRequestL
  000e4	e9 1e 02 00 00	 jmp	 $LN3@OnRequestL
$LN6@OnRequestL:

; 980  : 
; 981  : 				//定义变量
; 982  : 				TCHAR szServerRange[1024] = { 0 };

  000e9	68 00 04 00 00	 push	 1024			; 00000400H
  000ee	6a 00		 push	 0
  000f0	8d 85 e4 fb ff
	ff		 lea	 eax, DWORD PTR _szServerRange$11[ebp]
  000f6	50		 push	 eax
  000f7	e8 00 00 00 00	 call	 _memset
  000fc	83 c4 0c	 add	 esp, 12			; 0000000cH

; 983  : 				CString strServerRange;

  000ff	8d 8d e0 fb ff
	ff		 lea	 ecx, DWORD PTR _strServerRange$10[ebp]
  00105	ff 15 00 00 00
	00		 call	 DWORD PTR __imp_??0?$CStringT@DV?$StrTraitMFC_DLL@DV?$ChTraitsCRT@D@ATL@@@@@ATL@@QAE@XZ
  0010b	c6 45 fc 01	 mov	 BYTE PTR __$EHRec$[ebp+12], 1

; 984  : 				bool bSendMessage = false;

  0010f	c6 85 df fb ff
	ff 00		 mov	 BYTE PTR _bSendMessage$9[ebp], 0

; 985  : 				bool bAllRoom = false;

  00116	c6 85 de fb ff
	ff 00		 mov	 BYTE PTR _bAllRoom$8[ebp], 0

; 986  : 
; 987  : 				//读取范围
; 988  : 				//m_PlatformDBAide.GetValue_String(TEXT("ServerRange"), szServerRange, CountArray(szServerRange));
; 989  : 				//szServerRange[1023] = 0;
; 990  : 				//strServerRange.Format(TEXT("%s"), szServerRange);
; 991  : 
; 992  : 				////范围判断
; 993  : 				//while (true)
; 994  : 				//{
; 995  : 				//	int nfind = strServerRange.Find(TEXT(','));
; 996  : 				//	if (nfind != -1 && nfind>0)
; 997  : 				//	{
; 998  : 				//		CString strID = strServerRange.Left(nfind);
; 999  : 				//		WORD wServerID = StrToInt(strID);
; 1000 : 				//		bSendMessage = (wServerID == 0 || wServerID == m_pGameServiceOption->wServerID);
; 1001 : 				//		if (wServerID == 0)bAllRoom = true;
; 1002 : 
; 1003 : 				//		if (bSendMessage) break;
; 1004 : 
; 1005 : 				//		strServerRange = strServerRange.Right(strServerRange.GetLength() - nfind - 1);
; 1006 : 				//	}
; 1007 : 				//	else
; 1008 : 				//	{
; 1009 : 				//		WORD wServerID = StrToInt(szServerRange);
; 1010 : 				//		bSendMessage = (wServerID == 0 || wServerID == m_pGameServiceOption->wServerID);
; 1011 : 				//		if (wServerID == 0)bAllRoom = true;
; 1012 : 
; 1013 : 				//		break;
; 1014 : 				//	}
; 1015 : 				//}
; 1016 : 
; 1017 : 				//发送消息
; 1018 : 			//	if (bSendMessage)
; 1019 : 			//	{
; 1020 : 					//定义变量
; 1021 : 					tag_GR_SystemMessage SystemMessage;
; 1022 : 					ZeroMemory(&SystemMessage, sizeof(SystemMessage));

  0011d	68 9a 00 00 00	 push	 154			; 0000009aH
  00122	6a 00		 push	 0
  00124	8d 85 40 fb ff
	ff		 lea	 eax, DWORD PTR _SystemMessage$7[ebp]
  0012a	50		 push	 eax
  0012b	e8 00 00 00 00	 call	 _memset
  00130	83 c4 0c	 add	 esp, 12			; 0000000cH

; 1023 : 
; 1024 : 					//读取消息
; 1025 : 					SystemMessage.dwMessageID = m_PlatformDBAide.GetValue_DWORD(TEXT("ID"));

  00133	68 00 00 00 00	 push	 OFFSET ??_C@_02OLOABKKD@ID@
  00138	8b 4d e8	 mov	 ecx, DWORD PTR _this$[ebp]
  0013b	81 c1 c4 03 00
	00		 add	 ecx, 964		; 000003c4H
  00141	ff 15 00 00 00
	00		 call	 DWORD PTR __imp_?GetValue_DWORD@CDataBaseAide@@QAEKPBD@Z
  00147	89 85 54 fa ff
	ff		 mov	 DWORD PTR tv128[ebp], eax
  0014d	8b 85 54 fa ff
	ff		 mov	 eax, DWORD PTR tv128[ebp]
  00153	89 85 40 fb ff
	ff		 mov	 DWORD PTR _SystemMessage$7[ebp], eax

; 1026 : 					SystemMessage.cbMessageType = m_PlatformDBAide.GetValue_BYTE(TEXT("MessageType"));

  00159	68 00 00 00 00	 push	 OFFSET ??_C@_0M@ECIDEJHH@MessageType@
  0015e	8b 4d e8	 mov	 ecx, DWORD PTR _this$[ebp]
  00161	81 c1 c4 03 00
	00		 add	 ecx, 964		; 000003c4H
  00167	ff 15 00 00 00
	00		 call	 DWORD PTR __imp_?GetValue_BYTE@CDataBaseAide@@QAEEPBD@Z
  0016d	88 85 5a fa ff
	ff		 mov	 BYTE PTR tv219[ebp], al
  00173	8a 85 5a fa ff
	ff		 mov	 al, BYTE PTR tv219[ebp]
  00179	88 85 44 fb ff
	ff		 mov	 BYTE PTR _SystemMessage$7[ebp+4], al

; 1027 : 					SystemMessage.dwTimeRate = m_PlatformDBAide.GetValue_DWORD(TEXT("TimeRate"));

  0017f	68 00 00 00 00	 push	 OFFSET ??_C@_08MBIPKANE@TimeRate@
  00184	8b 4d e8	 mov	 ecx, DWORD PTR _this$[ebp]
  00187	81 c1 c4 03 00
	00		 add	 ecx, 964		; 000003c4H
  0018d	ff 15 00 00 00
	00		 call	 DWORD PTR __imp_?GetValue_DWORD@CDataBaseAide@@QAEKPBD@Z
  00193	89 85 54 fa ff
	ff		 mov	 DWORD PTR tv220[ebp], eax
  00199	8b 85 54 fa ff
	ff		 mov	 eax, DWORD PTR tv220[ebp]
  0019f	89 85 46 fb ff
	ff		 mov	 DWORD PTR _SystemMessage$7[ebp+6], eax

; 1028 : 					SystemMessage.cbAllRoom = bAllRoom ? TRUE : FALSE;

  001a5	0f b6 85 de fb
	ff ff		 movzx	 eax, BYTE PTR _bAllRoom$8[ebp]
  001ac	85 c0		 test	 eax, eax
  001ae	74 0c		 je	 SHORT $LN8@OnRequestL
  001b0	c7 85 54 fa ff
	ff 01 00 00 00	 mov	 DWORD PTR tv147[ebp], 1
  001ba	eb 0a		 jmp	 SHORT $LN9@OnRequestL
$LN8@OnRequestL:
  001bc	c7 85 54 fa ff
	ff 00 00 00 00	 mov	 DWORD PTR tv147[ebp], 0
$LN9@OnRequestL:
  001c6	8a 8d 54 fa ff
	ff		 mov	 cl, BYTE PTR tv147[ebp]
  001cc	88 8d 45 fb ff
	ff		 mov	 BYTE PTR _SystemMessage$7[ebp+5], cl

; 1029 : 					m_PlatformDBAide.GetValue_String(TEXT("MessageString"), SystemMessage.szSystemMessage, CountArray(SystemMessage.szSystemMessage));

  001d2	68 80 00 00 00	 push	 128			; 00000080H
  001d7	8d 85 5a fb ff
	ff		 lea	 eax, DWORD PTR _SystemMessage$7[ebp+26]
  001dd	50		 push	 eax
  001de	68 00 00 00 00	 push	 OFFSET ??_C@_0O@EOKEIOEE@MessageString@
  001e3	8b 4d e8	 mov	 ecx, DWORD PTR _this$[ebp]
  001e6	81 c1 c4 03 00
	00		 add	 ecx, 964		; 000003c4H
  001ec	ff 15 00 00 00
	00		 call	 DWORD PTR __imp_?GetValue_String@CDataBaseAide@@QAEXPBDPADI@Z

; 1030 : 
; 1031 : 					//读取时间
; 1032 : 					SYSTEMTIME systime;
; 1033 : 					ZeroMemory(&systime, sizeof(systime));

  001f2	6a 10		 push	 16			; 00000010H
  001f4	6a 00		 push	 0
  001f6	8d 85 30 fb ff
	ff		 lea	 eax, DWORD PTR _systime$6[ebp]
  001fc	50		 push	 eax
  001fd	e8 00 00 00 00	 call	 _memset
  00202	83 c4 0c	 add	 esp, 12			; 0000000cH

; 1034 : 
; 1035 : 					//开始时间
; 1036 : 					m_PlatformDBAide.GetValue_SystemTime(TEXT("StartTime"), systime);

  00205	8d 85 30 fb ff
	ff		 lea	 eax, DWORD PTR _systime$6[ebp]
  0020b	50		 push	 eax
  0020c	68 00 00 00 00	 push	 OFFSET ??_C@_09MHCEAAPI@StartTime@
  00211	8b 4d e8	 mov	 ecx, DWORD PTR _this$[ebp]
  00214	81 c1 c4 03 00
	00		 add	 ecx, 964		; 000003c4H
  0021a	ff 15 00 00 00
	00		 call	 DWORD PTR __imp_?GetValue_SystemTime@CDataBaseAide@@QAEXPBDAAU_SYSTEMTIME@@@Z

; 1037 : 					CTime StarTime(systime);

  00220	6a ff		 push	 -1
  00222	8d 85 30 fb ff
	ff		 lea	 eax, DWORD PTR _systime$6[ebp]
  00228	50		 push	 eax
  00229	8d 8d 28 fb ff
	ff		 lea	 ecx, DWORD PTR _StarTime$5[ebp]
  0022f	e8 00 00 00 00	 call	 ??0CTime@ATL@@QAE@ABU_SYSTEMTIME@@H@Z ; ATL::CTime::CTime

; 1038 : 					SystemMessage.tStartTime = StarTime.GetTime();

  00234	8d 8d 28 fb ff
	ff		 lea	 ecx, DWORD PTR _StarTime$5[ebp]
  0023a	e8 00 00 00 00	 call	 ?GetTime@CTime@ATL@@QBE_JXZ ; ATL::CTime::GetTime
  0023f	89 85 4a fb ff
	ff		 mov	 DWORD PTR _SystemMessage$7[ebp+10], eax
  00245	89 95 4e fb ff
	ff		 mov	 DWORD PTR _SystemMessage$7[ebp+14], edx

; 1039 : 
; 1040 : 					//结束时间
; 1041 : 					m_PlatformDBAide.GetValue_SystemTime(TEXT("ConcludeTime"), systime);

  0024b	8d 85 30 fb ff
	ff		 lea	 eax, DWORD PTR _systime$6[ebp]
  00251	50		 push	 eax
  00252	68 00 00 00 00	 push	 OFFSET ??_C@_0N@DIGHLIGE@ConcludeTime@
  00257	8b 4d e8	 mov	 ecx, DWORD PTR _this$[ebp]
  0025a	81 c1 c4 03 00
	00		 add	 ecx, 964		; 000003c4H
  00260	ff 15 00 00 00
	00		 call	 DWORD PTR __imp_?GetValue_SystemTime@CDataBaseAide@@QAEXPBDAAU_SYSTEMTIME@@@Z

; 1042 : 					CTime ConcludeTime(systime);

  00266	6a ff		 push	 -1
  00268	8d 85 30 fb ff
	ff		 lea	 eax, DWORD PTR _systime$6[ebp]
  0026e	50		 push	 eax
  0026f	8d 8d 20 fb ff
	ff		 lea	 ecx, DWORD PTR _ConcludeTime$4[ebp]
  00275	e8 00 00 00 00	 call	 ??0CTime@ATL@@QAE@ABU_SYSTEMTIME@@H@Z ; ATL::CTime::CTime

; 1043 : 					SystemMessage.tConcludeTime = ConcludeTime.GetTime();

  0027a	8d 8d 20 fb ff
	ff		 lea	 ecx, DWORD PTR _ConcludeTime$4[ebp]
  00280	e8 00 00 00 00	 call	 ?GetTime@CTime@ATL@@QBE_JXZ ; ATL::CTime::GetTime
  00285	89 85 52 fb ff
	ff		 mov	 DWORD PTR _SystemMessage$7[ebp+18], eax
  0028b	89 95 56 fb ff
	ff		 mov	 DWORD PTR _SystemMessage$7[ebp+22], edx

; 1044 : 
; 1045 : 					//发送结果
; 1046 : 					m_pIDataBaseEngineEvent->OnEventDataBaseResult(DBO_GR_SYSTEM_MESSAGE_RESULT, dwContextID, &SystemMessage, sizeof(SystemMessage));

  00291	68 9a 00 00 00	 push	 154			; 0000009aH
  00296	8d 85 40 fb ff
	ff		 lea	 eax, DWORD PTR _SystemMessage$7[ebp]
  0029c	50		 push	 eax
  0029d	8b 4d 08	 mov	 ecx, DWORD PTR _dwContextID$[ebp]
  002a0	51		 push	 ecx
  002a1	68 58 02 00 00	 push	 600			; 00000258H
  002a6	8b 55 e8	 mov	 edx, DWORD PTR _this$[ebp]
  002a9	8b 45 e8	 mov	 eax, DWORD PTR _this$[ebp]
  002ac	8b 88 a8 05 00
	00		 mov	 ecx, DWORD PTR [eax+1448]
  002b2	8b 01		 mov	 eax, DWORD PTR [ecx]
  002b4	8b 8a a8 05 00
	00		 mov	 ecx, DWORD PTR [edx+1448]
  002ba	8b 50 08	 mov	 edx, DWORD PTR [eax+8]
  002bd	ff d2		 call	 edx

; 1047 : 		//		}
; 1048 : 
; 1049 : 				//下一条
; 1050 : 				m_PlatformDBModule->MoveToNext();

  002bf	8b 4d e8	 mov	 ecx, DWORD PTR _this$[ebp]
  002c2	81 c1 cc 03 00
	00		 add	 ecx, 972		; 000003ccH
  002c8	e8 00 00 00 00	 call	 ??C?$CTempldateHelper@UIDataBase@@@@QBEPAUIDataBase@@XZ ; CTempldateHelper<IDataBase>::operator->
  002cd	89 85 54 fa ff
	ff		 mov	 DWORD PTR tv221[ebp], eax
  002d3	8b 85 54 fa ff
	ff		 mov	 eax, DWORD PTR tv221[ebp]
  002d9	89 85 50 fa ff
	ff		 mov	 DWORD PTR tv194[ebp], eax
  002df	8b 8d 50 fa ff
	ff		 mov	 ecx, DWORD PTR tv194[ebp]
  002e5	8b 11		 mov	 edx, DWORD PTR [ecx]
  002e7	8b 8d 50 fa ff
	ff		 mov	 ecx, DWORD PTR tv194[ebp]
  002ed	8b 42 30	 mov	 eax, DWORD PTR [edx+48]
  002f0	ff d0		 call	 eax

; 1051 : 			}

  002f2	c6 45 fc 00	 mov	 BYTE PTR __$EHRec$[ebp+12], 0
  002f6	8d 8d e0 fb ff
	ff		 lea	 ecx, DWORD PTR _strServerRange$10[ebp]
  002fc	ff 15 00 00 00
	00		 call	 DWORD PTR __imp_??1?$CStringT@DV?$StrTraitMFC_DLL@DV?$ChTraitsCRT@D@ATL@@@@@ATL@@QAE@XZ
  00302	e9 8b fd ff ff	 jmp	 $LN2@OnRequestL
$LN3@OnRequestL:

; 1052 : 
; 1053 : 			//加载完成
; 1054 : 			m_pIDataBaseEngineEvent->OnEventDataBaseResult(DBO_GR_SYSTEM_MESSAGE_FINISH, dwContextID, NULL, 0);

  00307	6a 00		 push	 0
  00309	6a 00		 push	 0
  0030b	8b 45 08	 mov	 eax, DWORD PTR _dwContextID$[ebp]
  0030e	50		 push	 eax
  0030f	68 59 02 00 00	 push	 601			; 00000259H
  00314	8b 4d e8	 mov	 ecx, DWORD PTR _this$[ebp]
  00317	8b 55 e8	 mov	 edx, DWORD PTR _this$[ebp]
  0031a	8b 82 a8 05 00
	00		 mov	 eax, DWORD PTR [edx+1448]
  00320	8b 10		 mov	 edx, DWORD PTR [eax]
  00322	8b 89 a8 05 00
	00		 mov	 ecx, DWORD PTR [ecx+1448]
  00328	8b 42 08	 mov	 eax, DWORD PTR [edx+8]
  0032b	ff d0		 call	 eax
$LN5@OnRequestL:

; 1055 : 		}
; 1056 : 
; 1057 : 		return true;

  0032d	b0 01		 mov	 al, 1
  0032f	eb 4c		 jmp	 SHORT $LN1@OnRequestL
__catch$?OnRequestLoadSystemMessage@CDataBaseEngineSink@@IAE_NKPAXG@Z$0:

; 1058 : 	}
; 1059 : 	catch (IDataBaseException * pIException)
; 1060 : 	{		
; 1061 : 		//输出错误
; 1062 : 		CTraceService::TraceString(pIException->GetExceptionDescribe(), TraceLevel_Exception);

  00331	6a 03		 push	 3
  00333	8b 85 1c fb ff
	ff		 mov	 eax, DWORD PTR _pIException$3[ebp]
  00339	8b 10		 mov	 edx, DWORD PTR [eax]
  0033b	8b 8d 1c fb ff
	ff		 mov	 ecx, DWORD PTR _pIException$3[ebp]
  00341	8b 42 0c	 mov	 eax, DWORD PTR [edx+12]
  00344	ff d0		 call	 eax
  00346	50		 push	 eax
  00347	ff 15 00 00 00
	00		 call	 DWORD PTR __imp_?TraceString@CTraceService@@SA_NPBDW4enTraceLevel@@@Z
  0034d	83 c4 08	 add	 esp, 8

; 1063 : 		return false;

  00350	c6 85 5b fa ff
	ff 00		 mov	 BYTE PTR $T2[ebp], 0
  00357	b8 00 00 00 00	 mov	 eax, $LN14@OnRequestL
  0035c	c3		 ret	 0

; 1064 : 	}

  0035d	b8 00 00 00 00	 mov	 eax, __tryend$?OnRequestLoadSystemMessage@CDataBaseEngineSink@@IAE_NKPAXG@Z$1
  00362	c3		 ret	 0
__tryend$?OnRequestLoadSystemMessage@CDataBaseEngineSink@@IAE_NKPAXG@Z$1:
  00363	c7 45 fc ff ff
	ff ff		 mov	 DWORD PTR __$EHRec$[ebp+12], -1
  0036a	eb 0f		 jmp	 SHORT $LN13@OnRequestL
$LN14@OnRequestL:
  0036c	c7 45 fc ff ff
	ff ff		 mov	 DWORD PTR __$EHRec$[ebp+12], -1

; 1063 : 		return false;

  00373	8a 85 5b fa ff
	ff		 mov	 al, BYTE PTR $T2[ebp]
  00379	eb 02		 jmp	 SHORT $LN1@OnRequestL
$LN13@OnRequestL:

; 1065 : 
; 1066 : 	return true;

  0037b	b0 01		 mov	 al, 1
$LN1@OnRequestL:

; 1067 : }

  0037d	8b 4d f4	 mov	 ecx, DWORD PTR __$EHRec$[ebp+4]
  00380	64 89 0d 00 00
	00 00		 mov	 DWORD PTR fs:0, ecx
  00387	59		 pop	 ecx
  00388	5f		 pop	 edi
  00389	5e		 pop	 esi
  0038a	5b		 pop	 ebx
  0038b	8b 4d ec	 mov	 ecx, DWORD PTR __$ArrayPad$[ebp]
  0038e	33 cd		 xor	 ecx, ebp
  00390	e8 00 00 00 00	 call	 @__security_check_cookie@4
  00395	8b e5		 mov	 esp, ebp
  00397	5d		 pop	 ebp
  00398	c2 0c 00	 ret	 12			; 0000000cH
_TEXT	ENDS
;	COMDAT text$x
text$x	SEGMENT
__unwindfunclet$?OnRequestLoadSystemMessage@CDataBaseEngineSink@@IAE_NKPAXG@Z$2:
  00000	8d 8d e0 fb ff
	ff		 lea	 ecx, DWORD PTR _strServerRange$10[ebp]
  00006	ff 25 00 00 00
	00		 jmp	 DWORD PTR __imp_??1?$CStringT@DV?$StrTraitMFC_DLL@DV?$ChTraitsCRT@D@ATL@@@@@ATL@@QAE@XZ
__ehhandler$?OnRequestLoadSystemMessage@CDataBaseEngineSink@@IAE_NKPAXG@Z:
  0000c	8b 54 24 08	 mov	 edx, DWORD PTR [esp+8]
  00010	8d 42 0c	 lea	 eax, DWORD PTR [edx+12]
  00013	8b 8a 48 fa ff
	ff		 mov	 ecx, DWORD PTR [edx-1464]
  00019	33 c8		 xor	 ecx, eax
  0001b	e8 00 00 00 00	 call	 @__security_check_cookie@4
  00020	8b 4a f8	 mov	 ecx, DWORD PTR [edx-8]
  00023	33 c8		 xor	 ecx, eax
  00025	e8 00 00 00 00	 call	 @__security_check_cookie@4
  0002a	b8 00 00 00 00	 mov	 eax, OFFSET __ehfuncinfo$?OnRequestLoadSystemMessage@CDataBaseEngineSink@@IAE_NKPAXG@Z
  0002f	e9 00 00 00 00	 jmp	 ___CxxFrameHandler3
text$x	ENDS
?OnRequestLoadSystemMessage@CDataBaseEngineSink@@IAE_NKPAXG@Z ENDP ; CDataBaseEngineSink::OnRequestLoadSystemMessage
; Function compile flags: /Odtp /ZI
; File g:\网狐\happygamewh\服务端\系统模块\服务器组件\聊天服务器\databaseenginesink.cpp
;	COMDAT ?OnRequestUpdatePlaceName@CDataBaseEngineSink@@IAE_NKPAXG@Z
_TEXT	SEGMENT
tv144 = -236						; size = 4
tv143 = -236						; size = 4
$T2 = -229						; size = 1
_pIException$3 = -164					; size = 4
_lResultCode$4 = -160					; size = 4
_szDescribeString$5 = -156				; size = 128
_pPlaceName$6 = -28					; size = 4
_this$ = -24						; size = 4
__$ArrayPad$ = -20					; size = 4
__$EHRec$ = -16						; size = 16
_dwContextID$ = 8					; size = 4
_pData$ = 12						; size = 4
_wDataSize$ = 16					; size = 2
?OnRequestUpdatePlaceName@CDataBaseEngineSink@@IAE_NKPAXG@Z PROC ; CDataBaseEngineSink::OnRequestUpdatePlaceName, COMDAT
; _this$ = ecx

; 844  : {

  00000	55		 push	 ebp
  00001	8b ec		 mov	 ebp, esp
  00003	6a ff		 push	 -1
  00005	68 00 00 00 00	 push	 __ehhandler$?OnRequestUpdatePlaceName@CDataBaseEngineSink@@IAE_NKPAXG@Z
  0000a	64 a1 00 00 00
	00		 mov	 eax, DWORD PTR fs:0
  00010	50		 push	 eax
  00011	51		 push	 ecx
  00012	81 ec dc 00 00
	00		 sub	 esp, 220		; 000000dcH
  00018	a1 00 00 00 00	 mov	 eax, DWORD PTR ___security_cookie
  0001d	33 c5		 xor	 eax, ebp
  0001f	89 45 ec	 mov	 DWORD PTR __$ArrayPad$[ebp], eax
  00022	53		 push	 ebx
  00023	56		 push	 esi
  00024	57		 push	 edi
  00025	50		 push	 eax
  00026	8d 45 f4	 lea	 eax, DWORD PTR __$EHRec$[ebp+4]
  00029	64 a3 00 00 00
	00		 mov	 DWORD PTR fs:0, eax
  0002f	89 65 f0	 mov	 DWORD PTR __$EHRec$[ebp], esp
  00032	89 4d e8	 mov	 DWORD PTR _this$[ebp], ecx

; 845  : 	try

  00035	c7 45 fc 00 00
	00 00		 mov	 DWORD PTR __$EHRec$[ebp+12], 0

; 846  : 	{
; 847  : 		//提取变量
; 848  : 		DBR_GR_UpdatePlaceName * pPlaceName = (DBR_GR_UpdatePlaceName *)pData;

  0003c	8b 45 0c	 mov	 eax, DWORD PTR _pData$[ebp]
  0003f	89 45 e4	 mov	 DWORD PTR _pPlaceName$6[ebp], eax

; 849  : 		ASSERT(pPlaceName != NULL);

  00042	83 7d e4 00	 cmp	 DWORD PTR _pPlaceName$6[ebp], 0
  00046	75 23		 jne	 SHORT $LN4@OnRequestU
  00048	a1 00 00 00 00	 mov	 eax, DWORD PTR ?__LINE__Var@?0??OnRequestUpdatePlaceName@CDataBaseEngineSink@@IAE_NKPAXG@Z@4JA
  0004d	83 c0 05	 add	 eax, 5
  00050	50		 push	 eax
  00051	68 00 00 00 00	 push	 OFFSET ?THIS_FILE@@3PADA
  00056	e8 00 00 00 00	 call	 ?AfxAssertFailedLine@@YGHPBDH@Z ; AfxAssertFailedLine
  0005b	89 85 14 ff ff
	ff		 mov	 DWORD PTR tv143[ebp], eax
  00061	83 bd 14 ff ff
	ff 00		 cmp	 DWORD PTR tv143[ebp], 0
  00068	74 01		 je	 SHORT $LN4@OnRequestU
  0006a	cc		 int	 3
$LN4@OnRequestU:

; 850  : 
; 851  : 		//执行查询
; 852  : 		m_AccountsDBAide.ResetParameter();

  0006b	8b 4d e8	 mov	 ecx, DWORD PTR _this$[ebp]
  0006e	83 c1 04	 add	 ecx, 4
  00071	ff 15 00 00 00
	00		 call	 DWORD PTR __imp_?ResetParameter@CDataBaseAide@@QAEXXZ

; 853  : 		m_AccountsDBAide.AddParameter(TEXT("@dwUserID"), pPlaceName->dwUserID);

  00077	6a 01		 push	 1
  00079	8b 45 e4	 mov	 eax, DWORD PTR _pPlaceName$6[ebp]
  0007c	8b 08		 mov	 ecx, DWORD PTR [eax]
  0007e	51		 push	 ecx
  0007f	68 00 00 00 00	 push	 OFFSET ??_C@_09KCDEMNBD@?$EAdwUserID@
  00084	8b 4d e8	 mov	 ecx, DWORD PTR _this$[ebp]
  00087	83 c1 04	 add	 ecx, 4
  0008a	ff 15 00 00 00
	00		 call	 DWORD PTR __imp_?AddParameter@CDataBaseAide@@QAEXPBDKW4ParameterDirectionEnum@ADOCG@@@Z

; 854  : 		m_AccountsDBAide.AddParameter(TEXT("@szPlaceName"), pPlaceName->szPlaceName);

  00090	6a 01		 push	 1
  00092	8b 45 e4	 mov	 eax, DWORD PTR _pPlaceName$6[ebp]
  00095	83 c0 04	 add	 eax, 4
  00098	50		 push	 eax
  00099	68 00 00 00 00	 push	 OFFSET ??_C@_0N@MDOGFMDG@?$EAszPlaceName@
  0009e	8b 4d e8	 mov	 ecx, DWORD PTR _this$[ebp]
  000a1	83 c1 04	 add	 ecx, 4
  000a4	ff 15 00 00 00
	00		 call	 DWORD PTR __imp_?AddParameter@CDataBaseAide@@QAEXPBD0W4ParameterDirectionEnum@ADOCG@@@Z

; 855  : 		
; 856  : 		//变量定义
; 857  : 		TCHAR szDescribeString[128] = TEXT("");

  000aa	a0 00 00 00 00	 mov	 al, BYTE PTR ??_C@_00CNPNBAHC@@
  000af	88 85 64 ff ff
	ff		 mov	 BYTE PTR _szDescribeString$5[ebp], al
  000b5	6a 7f		 push	 127			; 0000007fH
  000b7	6a 00		 push	 0
  000b9	8d 85 65 ff ff
	ff		 lea	 eax, DWORD PTR _szDescribeString$5[ebp+1]
  000bf	50		 push	 eax
  000c0	e8 00 00 00 00	 call	 _memset
  000c5	83 c4 0c	 add	 esp, 12			; 0000000cH

; 858  : 		m_AccountsDBAide.AddParameterOutput(TEXT("@strErrorDescribe"), szDescribeString, sizeof(szDescribeString), adParamOutput);

  000c8	6a 02		 push	 2
  000ca	68 80 00 00 00	 push	 128			; 00000080H
  000cf	8d 85 64 ff ff
	ff		 lea	 eax, DWORD PTR _szDescribeString$5[ebp]
  000d5	50		 push	 eax
  000d6	68 00 00 00 00	 push	 OFFSET ??_C@_0BC@IIOJPJPJ@?$EAstrErrorDescribe@
  000db	8b 4d e8	 mov	 ecx, DWORD PTR _this$[ebp]
  000de	83 c1 04	 add	 ecx, 4
  000e1	ff 15 00 00 00
	00		 call	 DWORD PTR __imp_?AddParameterOutput@CDataBaseAide@@QAEXPBDPADIW4ParameterDirectionEnum@ADOCG@@@Z

; 859  : 
; 860  : 		//执行查询
; 861  : 		LONG lResultCode = m_AccountsDBAide.ExecuteProcess(TEXT("GSP_GP_UpdatePlaceName"), true);

  000e7	6a 01		 push	 1
  000e9	68 00 00 00 00	 push	 OFFSET ??_C@_0BH@JIPKFPPO@GSP_GP_UpdatePlaceName@
  000ee	8b 4d e8	 mov	 ecx, DWORD PTR _this$[ebp]
  000f1	83 c1 04	 add	 ecx, 4
  000f4	ff 15 00 00 00
	00		 call	 DWORD PTR __imp_?ExecuteProcess@CDataBaseAide@@QAEJPBD_N@Z
  000fa	89 85 14 ff ff
	ff		 mov	 DWORD PTR tv144[ebp], eax
  00100	8b 85 14 ff ff
	ff		 mov	 eax, DWORD PTR tv144[ebp]
  00106	89 85 60 ff ff
	ff		 mov	 DWORD PTR _lResultCode$4[ebp], eax

; 862  : 		
; 863  : 		return true;

  0010c	b0 01		 mov	 al, 1
  0010e	eb 4c		 jmp	 SHORT $LN1@OnRequestU
__catch$?OnRequestUpdatePlaceName@CDataBaseEngineSink@@IAE_NKPAXG@Z$0:

; 864  : 	}
; 865  : 	catch (IDataBaseException * pIException)
; 866  : 	{
; 867  : 		//输出错误
; 868  : 		CTraceService::TraceString(pIException->GetExceptionDescribe(), TraceLevel_Exception);

  00110	6a 03		 push	 3
  00112	8b 85 5c ff ff
	ff		 mov	 eax, DWORD PTR _pIException$3[ebp]
  00118	8b 10		 mov	 edx, DWORD PTR [eax]
  0011a	8b 8d 5c ff ff
	ff		 mov	 ecx, DWORD PTR _pIException$3[ebp]
  00120	8b 42 0c	 mov	 eax, DWORD PTR [edx+12]
  00123	ff d0		 call	 eax
  00125	50		 push	 eax
  00126	ff 15 00 00 00
	00		 call	 DWORD PTR __imp_?TraceString@CTraceService@@SA_NPBDW4enTraceLevel@@@Z
  0012c	83 c4 08	 add	 esp, 8

; 869  : 
; 870  : 		return false;

  0012f	c6 85 1b ff ff
	ff 00		 mov	 BYTE PTR $T2[ebp], 0
  00136	b8 00 00 00 00	 mov	 eax, $LN8@OnRequestU
  0013b	c3		 ret	 0

; 871  : 	}

  0013c	b8 00 00 00 00	 mov	 eax, __tryend$?OnRequestUpdatePlaceName@CDataBaseEngineSink@@IAE_NKPAXG@Z$1
  00141	c3		 ret	 0
__tryend$?OnRequestUpdatePlaceName@CDataBaseEngineSink@@IAE_NKPAXG@Z$1:
  00142	c7 45 fc ff ff
	ff ff		 mov	 DWORD PTR __$EHRec$[ebp+12], -1
  00149	eb 0f		 jmp	 SHORT $LN7@OnRequestU
$LN8@OnRequestU:
  0014b	c7 45 fc ff ff
	ff ff		 mov	 DWORD PTR __$EHRec$[ebp+12], -1

; 869  : 
; 870  : 		return false;

  00152	8a 85 1b ff ff
	ff		 mov	 al, BYTE PTR $T2[ebp]
  00158	eb 02		 jmp	 SHORT $LN1@OnRequestU
$LN7@OnRequestU:

; 872  : 
; 873  : 	return true;

  0015a	b0 01		 mov	 al, 1
$LN1@OnRequestU:

; 874  : }

  0015c	8b 4d f4	 mov	 ecx, DWORD PTR __$EHRec$[ebp+4]
  0015f	64 89 0d 00 00
	00 00		 mov	 DWORD PTR fs:0, ecx
  00166	59		 pop	 ecx
  00167	5f		 pop	 edi
  00168	5e		 pop	 esi
  00169	5b		 pop	 ebx
  0016a	8b 4d ec	 mov	 ecx, DWORD PTR __$ArrayPad$[ebp]
  0016d	33 cd		 xor	 ecx, ebp
  0016f	e8 00 00 00 00	 call	 @__security_check_cookie@4
  00174	8b e5		 mov	 esp, ebp
  00176	5d		 pop	 ebp
  00177	c2 0c 00	 ret	 12			; 0000000cH
_TEXT	ENDS
;	COMDAT text$x
text$x	SEGMENT
__ehhandler$?OnRequestUpdatePlaceName@CDataBaseEngineSink@@IAE_NKPAXG@Z:
  00000	8b 54 24 08	 mov	 edx, DWORD PTR [esp+8]
  00004	8d 42 0c	 lea	 eax, DWORD PTR [edx+12]
  00007	8b 8a 10 ff ff
	ff		 mov	 ecx, DWORD PTR [edx-240]
  0000d	33 c8		 xor	 ecx, eax
  0000f	e8 00 00 00 00	 call	 @__security_check_cookie@4
  00014	8b 4a f8	 mov	 ecx, DWORD PTR [edx-8]
  00017	33 c8		 xor	 ecx, eax
  00019	e8 00 00 00 00	 call	 @__security_check_cookie@4
  0001e	b8 00 00 00 00	 mov	 eax, OFFSET __ehfuncinfo$?OnRequestUpdatePlaceName@CDataBaseEngineSink@@IAE_NKPAXG@Z
  00023	e9 00 00 00 00	 jmp	 ___CxxFrameHandler3
text$x	ENDS
?OnRequestUpdatePlaceName@CDataBaseEngineSink@@IAE_NKPAXG@Z ENDP ; CDataBaseEngineSink::OnRequestUpdatePlaceName
; Function compile flags: /Odtp /ZI
; File g:\网狐\happygamewh\服务端\系统模块\服务器组件\聊天服务器\databaseenginesink.cpp
;	COMDAT ?OnRequestTrumpet@CDataBaseEngineSink@@IAE_NKPAXG@Z
_TEXT	SEGMENT
tv169 = -540						; size = 4
tv168 = -540						; size = 4
$T2 = -533						; size = 1
_pIException$3 = -468					; size = 4
_TrumpetResult$4 = -464					; size = 304
_lResultCode$5 = -160					; size = 4
_szDescribeString$6 = -156				; size = 128
_pTrumpet$7 = -28					; size = 4
_this$ = -24						; size = 4
__$ArrayPad$ = -20					; size = 4
__$EHRec$ = -16						; size = 16
_dwContextID$ = 8					; size = 4
_pData$ = 12						; size = 4
_wDataSize$ = 16					; size = 2
?OnRequestTrumpet@CDataBaseEngineSink@@IAE_NKPAXG@Z PROC ; CDataBaseEngineSink::OnRequestTrumpet, COMDAT
; _this$ = ecx

; 914  : {

  00000	55		 push	 ebp
  00001	8b ec		 mov	 ebp, esp
  00003	6a ff		 push	 -1
  00005	68 00 00 00 00	 push	 __ehhandler$?OnRequestTrumpet@CDataBaseEngineSink@@IAE_NKPAXG@Z
  0000a	64 a1 00 00 00
	00		 mov	 eax, DWORD PTR fs:0
  00010	50		 push	 eax
  00011	51		 push	 ecx
  00012	81 ec 0c 02 00
	00		 sub	 esp, 524		; 0000020cH
  00018	a1 00 00 00 00	 mov	 eax, DWORD PTR ___security_cookie
  0001d	33 c5		 xor	 eax, ebp
  0001f	89 45 ec	 mov	 DWORD PTR __$ArrayPad$[ebp], eax
  00022	53		 push	 ebx
  00023	56		 push	 esi
  00024	57		 push	 edi
  00025	50		 push	 eax
  00026	8d 45 f4	 lea	 eax, DWORD PTR __$EHRec$[ebp+4]
  00029	64 a3 00 00 00
	00		 mov	 DWORD PTR fs:0, eax
  0002f	89 65 f0	 mov	 DWORD PTR __$EHRec$[ebp], esp
  00032	89 4d e8	 mov	 DWORD PTR _this$[ebp], ecx

; 915  : 	//提取变量
; 916  : 	try

  00035	c7 45 fc 00 00
	00 00		 mov	 DWORD PTR __$EHRec$[ebp+12], 0

; 917  : 	{
; 918  : 		DBR_GR_Trumpet * pTrumpet=(DBR_GR_Trumpet * )pData;

  0003c	8b 45 0c	 mov	 eax, DWORD PTR _pData$[ebp]
  0003f	89 45 e4	 mov	 DWORD PTR _pTrumpet$7[ebp], eax

; 919  : 		ASSERT(pTrumpet!=NULL);

  00042	83 7d e4 00	 cmp	 DWORD PTR _pTrumpet$7[ebp], 0
  00046	75 23		 jne	 SHORT $LN4@OnRequestT
  00048	a1 00 00 00 00	 mov	 eax, DWORD PTR ?__LINE__Var@?0??OnRequestTrumpet@CDataBaseEngineSink@@IAE_NKPAXG@Z@4JA
  0004d	83 c0 05	 add	 eax, 5
  00050	50		 push	 eax
  00051	68 00 00 00 00	 push	 OFFSET ?THIS_FILE@@3PADA
  00056	e8 00 00 00 00	 call	 ?AfxAssertFailedLine@@YGHPBDH@Z ; AfxAssertFailedLine
  0005b	89 85 e4 fd ff
	ff		 mov	 DWORD PTR tv168[ebp], eax
  00061	83 bd e4 fd ff
	ff 00		 cmp	 DWORD PTR tv168[ebp], 0
  00068	74 01		 je	 SHORT $LN4@OnRequestT
  0006a	cc		 int	 3
$LN4@OnRequestT:

; 920  : 
; 921  : 		//执行查询
; 922  : 		m_PlatformDBAide.ResetParameter();

  0006b	8b 4d e8	 mov	 ecx, DWORD PTR _this$[ebp]
  0006e	81 c1 c4 03 00
	00		 add	 ecx, 964		; 000003c4H
  00074	ff 15 00 00 00
	00		 call	 DWORD PTR __imp_?ResetParameter@CDataBaseAide@@QAEXXZ

; 923  : 		m_PlatformDBAide.AddParameter(TEXT("@dwUserID"),pTrumpet->dwSendUserID);

  0007a	6a 01		 push	 1
  0007c	8b 45 e4	 mov	 eax, DWORD PTR _pTrumpet$7[ebp]
  0007f	8b 48 08	 mov	 ecx, DWORD PTR [eax+8]
  00082	51		 push	 ecx
  00083	68 00 00 00 00	 push	 OFFSET ??_C@_09KCDEMNBD@?$EAdwUserID@
  00088	8b 4d e8	 mov	 ecx, DWORD PTR _this$[ebp]
  0008b	81 c1 c4 03 00
	00		 add	 ecx, 964		; 000003c4H
  00091	ff 15 00 00 00
	00		 call	 DWORD PTR __imp_?AddParameter@CDataBaseAide@@QAEXPBDKW4ParameterDirectionEnum@ADOCG@@@Z

; 924  : 		m_PlatformDBAide.AddParameter(TEXT("@strClientIP "),pTrumpet->dwClientAddr);

  00097	6a 01		 push	 1
  00099	8b 45 e4	 mov	 eax, DWORD PTR _pTrumpet$7[ebp]
  0009c	8b 08		 mov	 ecx, DWORD PTR [eax]
  0009e	51		 push	 ecx
  0009f	68 00 00 00 00	 push	 OFFSET ??_C@_0O@BBLJBDHL@?$EAstrClientIP?5@
  000a4	8b 4d e8	 mov	 ecx, DWORD PTR _this$[ebp]
  000a7	81 c1 c4 03 00
	00		 add	 ecx, 964		; 000003c4H
  000ad	ff 15 00 00 00
	00		 call	 DWORD PTR __imp_?AddParameter@CDataBaseAide@@QAEXPBDKW4ParameterDirectionEnum@ADOCG@@@Z

; 925  : 
; 926  : 		//变量定义
; 927  : 		TCHAR szDescribeString[128]=TEXT("");

  000b3	a0 00 00 00 00	 mov	 al, BYTE PTR ??_C@_00CNPNBAHC@@
  000b8	88 85 64 ff ff
	ff		 mov	 BYTE PTR _szDescribeString$6[ebp], al
  000be	6a 7f		 push	 127			; 0000007fH
  000c0	6a 00		 push	 0
  000c2	8d 85 65 ff ff
	ff		 lea	 eax, DWORD PTR _szDescribeString$6[ebp+1]
  000c8	50		 push	 eax
  000c9	e8 00 00 00 00	 call	 _memset
  000ce	83 c4 0c	 add	 esp, 12			; 0000000cH

; 928  : 		m_PlatformDBAide.AddParameterOutput(TEXT("@strErrorDescribe"),szDescribeString,sizeof(szDescribeString),adParamOutput);

  000d1	6a 02		 push	 2
  000d3	68 80 00 00 00	 push	 128			; 00000080H
  000d8	8d 85 64 ff ff
	ff		 lea	 eax, DWORD PTR _szDescribeString$6[ebp]
  000de	50		 push	 eax
  000df	68 00 00 00 00	 push	 OFFSET ??_C@_0BC@IIOJPJPJ@?$EAstrErrorDescribe@
  000e4	8b 4d e8	 mov	 ecx, DWORD PTR _this$[ebp]
  000e7	81 c1 c4 03 00
	00		 add	 ecx, 964		; 000003c4H
  000ed	ff 15 00 00 00
	00		 call	 DWORD PTR __imp_?AddParameterOutput@CDataBaseAide@@QAEXPBDPADIW4ParameterDirectionEnum@ADOCG@@@Z

; 929  : 
; 930  : 		//执行查询
; 931  : 		LONG lResultCode=m_PlatformDBAide.ExecuteProcess(TEXT("GSP_GP_UseTrumpet"),true);

  000f3	6a 01		 push	 1
  000f5	68 00 00 00 00	 push	 OFFSET ??_C@_0BC@FHFGCAEO@GSP_GP_UseTrumpet@
  000fa	8b 4d e8	 mov	 ecx, DWORD PTR _this$[ebp]
  000fd	81 c1 c4 03 00
	00		 add	 ecx, 964		; 000003c4H
  00103	ff 15 00 00 00
	00		 call	 DWORD PTR __imp_?ExecuteProcess@CDataBaseAide@@QAEJPBD_N@Z
  00109	89 85 e4 fd ff
	ff		 mov	 DWORD PTR tv169[ebp], eax
  0010f	8b 85 e4 fd ff
	ff		 mov	 eax, DWORD PTR tv169[ebp]
  00115	89 85 60 ff ff
	ff		 mov	 DWORD PTR _lResultCode$5[ebp], eax

; 932  : 
; 933  : 		//变量定义
; 934  : 		DBO_GR_TrumpetResult  TrumpetResult;
; 935  : 		TrumpetResult.lResult=lResultCode;

  0011b	8b 85 60 ff ff
	ff		 mov	 eax, DWORD PTR _lResultCode$5[ebp]
  00121	89 85 30 fe ff
	ff		 mov	 DWORD PTR _TrumpetResult$4[ebp], eax

; 936  : 		TrumpetResult.wPropertyID = pTrumpet->wPropertyID;

  00127	8b 45 e4	 mov	 eax, DWORD PTR _pTrumpet$7[ebp]
  0012a	66 8b 48 04	 mov	 cx, WORD PTR [eax+4]
  0012e	66 89 8d 34 fe
	ff ff		 mov	 WORD PTR _TrumpetResult$4[ebp+4], cx

; 937  : 		TrumpetResult.dwSendUserID = pTrumpet->dwSendUserID;

  00135	8b 45 e4	 mov	 eax, DWORD PTR _pTrumpet$7[ebp]
  00138	8b 48 08	 mov	 ecx, DWORD PTR [eax+8]
  0013b	89 8d 38 fe ff
	ff		 mov	 DWORD PTR _TrumpetResult$4[ebp+8], ecx

; 938  : 		TrumpetResult.TrumpetColor = pTrumpet->TrumpetColor;

  00141	8b 45 e4	 mov	 eax, DWORD PTR _pTrumpet$7[ebp]
  00144	8b 48 0c	 mov	 ecx, DWORD PTR [eax+12]
  00147	89 8d 3c fe ff
	ff		 mov	 DWORD PTR _TrumpetResult$4[ebp+12], ecx

; 939  : 		lstrcpyn(TrumpetResult.szSendNickName, pTrumpet->szSendNickName, CountArray(TrumpetResult.szSendNickName));

  0014d	6a 20		 push	 32			; 00000020H
  0014f	8b 45 e4	 mov	 eax, DWORD PTR _pTrumpet$7[ebp]
  00152	83 c0 10	 add	 eax, 16			; 00000010H
  00155	50		 push	 eax
  00156	8d 8d 40 fe ff
	ff		 lea	 ecx, DWORD PTR _TrumpetResult$4[ebp+16]
  0015c	51		 push	 ecx
  0015d	ff 15 00 00 00
	00		 call	 DWORD PTR __imp__lstrcpynA@12

; 940  : 		lstrcpyn(TrumpetResult.szTrumpetContent, pTrumpet->szTrumpetContent, CountArray(TrumpetResult.szTrumpetContent));

  00163	68 80 00 00 00	 push	 128			; 00000080H
  00168	8b 45 e4	 mov	 eax, DWORD PTR _pTrumpet$7[ebp]
  0016b	83 c0 30	 add	 eax, 48			; 00000030H
  0016e	50		 push	 eax
  0016f	8d 8d 60 fe ff
	ff		 lea	 ecx, DWORD PTR _TrumpetResult$4[ebp+48]
  00175	51		 push	 ecx
  00176	ff 15 00 00 00
	00		 call	 DWORD PTR __imp__lstrcpynA@12

; 941  : 		lstrcpyn(TrumpetResult.szNotifyContent, szDescribeString, CountArray(TrumpetResult.szNotifyContent));

  0017c	68 80 00 00 00	 push	 128			; 00000080H
  00181	8d 85 64 ff ff
	ff		 lea	 eax, DWORD PTR _szDescribeString$6[ebp]
  00187	50		 push	 eax
  00188	8d 8d e0 fe ff
	ff		 lea	 ecx, DWORD PTR _TrumpetResult$4[ebp+176]
  0018e	51		 push	 ecx
  0018f	ff 15 00 00 00
	00		 call	 DWORD PTR __imp__lstrcpynA@12

; 942  : 
; 943  : 		//投递数据
; 944  : 		m_pIDataBaseEngineEvent->OnEventDataBaseResult(DBO_GR_TRUMPET_RESULT,dwContextID,&TrumpetResult,sizeof(TrumpetResult));

  00195	68 30 01 00 00	 push	 304			; 00000130H
  0019a	8d 85 30 fe ff
	ff		 lea	 eax, DWORD PTR _TrumpetResult$4[ebp]
  001a0	50		 push	 eax
  001a1	8b 4d 08	 mov	 ecx, DWORD PTR _dwContextID$[ebp]
  001a4	51		 push	 ecx
  001a5	68 9b 01 00 00	 push	 411			; 0000019bH
  001aa	8b 55 e8	 mov	 edx, DWORD PTR _this$[ebp]
  001ad	8b 45 e8	 mov	 eax, DWORD PTR _this$[ebp]
  001b0	8b 88 a8 05 00
	00		 mov	 ecx, DWORD PTR [eax+1448]
  001b6	8b 01		 mov	 eax, DWORD PTR [ecx]
  001b8	8b 8a a8 05 00
	00		 mov	 ecx, DWORD PTR [edx+1448]
  001be	8b 50 08	 mov	 edx, DWORD PTR [eax+8]
  001c1	ff d2		 call	 edx

; 945  : 
; 946  : 
; 947  : 		return true;

  001c3	b0 01		 mov	 al, 1
  001c5	eb 4c		 jmp	 SHORT $LN1@OnRequestT
__catch$?OnRequestTrumpet@CDataBaseEngineSink@@IAE_NKPAXG@Z$0:

; 948  : 	}
; 949  : 	catch (IDataBaseException * pIException)
; 950  : 	{
; 951  : 		//输出错误
; 952  : 		CTraceService::TraceString(pIException->GetExceptionDescribe(),TraceLevel_Exception);

  001c7	6a 03		 push	 3
  001c9	8b 85 2c fe ff
	ff		 mov	 eax, DWORD PTR _pIException$3[ebp]
  001cf	8b 10		 mov	 edx, DWORD PTR [eax]
  001d1	8b 8d 2c fe ff
	ff		 mov	 ecx, DWORD PTR _pIException$3[ebp]
  001d7	8b 42 0c	 mov	 eax, DWORD PTR [edx+12]
  001da	ff d0		 call	 eax
  001dc	50		 push	 eax
  001dd	ff 15 00 00 00
	00		 call	 DWORD PTR __imp_?TraceString@CTraceService@@SA_NPBDW4enTraceLevel@@@Z
  001e3	83 c4 08	 add	 esp, 8

; 953  : 
; 954  : 		return false;

  001e6	c6 85 eb fd ff
	ff 00		 mov	 BYTE PTR $T2[ebp], 0
  001ed	b8 00 00 00 00	 mov	 eax, $LN8@OnRequestT
  001f2	c3		 ret	 0

; 955  : 	}

  001f3	b8 00 00 00 00	 mov	 eax, __tryend$?OnRequestTrumpet@CDataBaseEngineSink@@IAE_NKPAXG@Z$1
  001f8	c3		 ret	 0
__tryend$?OnRequestTrumpet@CDataBaseEngineSink@@IAE_NKPAXG@Z$1:
  001f9	c7 45 fc ff ff
	ff ff		 mov	 DWORD PTR __$EHRec$[ebp+12], -1
  00200	eb 0f		 jmp	 SHORT $LN7@OnRequestT
$LN8@OnRequestT:
  00202	c7 45 fc ff ff
	ff ff		 mov	 DWORD PTR __$EHRec$[ebp+12], -1

; 953  : 
; 954  : 		return false;

  00209	8a 85 eb fd ff
	ff		 mov	 al, BYTE PTR $T2[ebp]
  0020f	eb 02		 jmp	 SHORT $LN1@OnRequestT
$LN7@OnRequestT:

; 956  : 
; 957  : 	return true;

  00211	b0 01		 mov	 al, 1
$LN1@OnRequestT:

; 958  : }

  00213	8b 4d f4	 mov	 ecx, DWORD PTR __$EHRec$[ebp+4]
  00216	64 89 0d 00 00
	00 00		 mov	 DWORD PTR fs:0, ecx
  0021d	59		 pop	 ecx
  0021e	5f		 pop	 edi
  0021f	5e		 pop	 esi
  00220	5b		 pop	 ebx
  00221	8b 4d ec	 mov	 ecx, DWORD PTR __$ArrayPad$[ebp]
  00224	33 cd		 xor	 ecx, ebp
  00226	e8 00 00 00 00	 call	 @__security_check_cookie@4
  0022b	8b e5		 mov	 esp, ebp
  0022d	5d		 pop	 ebp
  0022e	c2 0c 00	 ret	 12			; 0000000cH
_TEXT	ENDS
;	COMDAT text$x
text$x	SEGMENT
__ehhandler$?OnRequestTrumpet@CDataBaseEngineSink@@IAE_NKPAXG@Z:
  00000	8b 54 24 08	 mov	 edx, DWORD PTR [esp+8]
  00004	8d 42 0c	 lea	 eax, DWORD PTR [edx+12]
  00007	8b 8a e0 fd ff
	ff		 mov	 ecx, DWORD PTR [edx-544]
  0000d	33 c8		 xor	 ecx, eax
  0000f	e8 00 00 00 00	 call	 @__security_check_cookie@4
  00014	8b 4a f8	 mov	 ecx, DWORD PTR [edx-8]
  00017	33 c8		 xor	 ecx, eax
  00019	e8 00 00 00 00	 call	 @__security_check_cookie@4
  0001e	b8 00 00 00 00	 mov	 eax, OFFSET __ehfuncinfo$?OnRequestTrumpet@CDataBaseEngineSink@@IAE_NKPAXG@Z
  00023	e9 00 00 00 00	 jmp	 ___CxxFrameHandler3
text$x	ENDS
?OnRequestTrumpet@CDataBaseEngineSink@@IAE_NKPAXG@Z ENDP ; CDataBaseEngineSink::OnRequestTrumpet
; Function compile flags: /Odtp /ZI
; File g:\网狐\happygamewh\服务端\系统模块\服务器组件\聊天服务器\databaseenginesink.cpp
;	COMDAT ?OnRequestSaveOfflineMessage@CDataBaseEngineSink@@IAE_NKPAXG@Z
_TEXT	SEGMENT
tv156 = -236						; size = 4
tv155 = -236						; size = 4
$T2 = -229						; size = 1
_pIException$3 = -164					; size = 4
_lResultCode$4 = -160					; size = 4
_szDescribeString$5 = -156				; size = 128
_pSaveOfflineMessage$6 = -28				; size = 4
_this$ = -24						; size = 4
__$ArrayPad$ = -20					; size = 4
__$EHRec$ = -16						; size = 16
_dwContextID$ = 8					; size = 4
_pData$ = 12						; size = 4
_wDataSize$ = 16					; size = 2
?OnRequestSaveOfflineMessage@CDataBaseEngineSink@@IAE_NKPAXG@Z PROC ; CDataBaseEngineSink::OnRequestSaveOfflineMessage, COMDAT
; _this$ = ecx

; 878  : {

  00000	55		 push	 ebp
  00001	8b ec		 mov	 ebp, esp
  00003	6a ff		 push	 -1
  00005	68 00 00 00 00	 push	 __ehhandler$?OnRequestSaveOfflineMessage@CDataBaseEngineSink@@IAE_NKPAXG@Z
  0000a	64 a1 00 00 00
	00		 mov	 eax, DWORD PTR fs:0
  00010	50		 push	 eax
  00011	51		 push	 ecx
  00012	81 ec dc 00 00
	00		 sub	 esp, 220		; 000000dcH
  00018	a1 00 00 00 00	 mov	 eax, DWORD PTR ___security_cookie
  0001d	33 c5		 xor	 eax, ebp
  0001f	89 45 ec	 mov	 DWORD PTR __$ArrayPad$[ebp], eax
  00022	53		 push	 ebx
  00023	56		 push	 esi
  00024	57		 push	 edi
  00025	50		 push	 eax
  00026	8d 45 f4	 lea	 eax, DWORD PTR __$EHRec$[ebp+4]
  00029	64 a3 00 00 00
	00		 mov	 DWORD PTR fs:0, eax
  0002f	89 65 f0	 mov	 DWORD PTR __$EHRec$[ebp], esp
  00032	89 4d e8	 mov	 DWORD PTR _this$[ebp], ecx

; 879  : 	//提取变量
; 880  : 	try

  00035	c7 45 fc 00 00
	00 00		 mov	 DWORD PTR __$EHRec$[ebp+12], 0

; 881  : 	{
; 882  : 		DBR_GR_SaveOfflineMessage * pSaveOfflineMessage=(DBR_GR_SaveOfflineMessage * )pData;

  0003c	8b 45 0c	 mov	 eax, DWORD PTR _pData$[ebp]
  0003f	89 45 e4	 mov	 DWORD PTR _pSaveOfflineMessage$6[ebp], eax

; 883  : 		ASSERT(pSaveOfflineMessage!=NULL);

  00042	83 7d e4 00	 cmp	 DWORD PTR _pSaveOfflineMessage$6[ebp], 0
  00046	75 23		 jne	 SHORT $LN4@OnRequestS
  00048	a1 00 00 00 00	 mov	 eax, DWORD PTR ?__LINE__Var@?0??OnRequestSaveOfflineMessage@CDataBaseEngineSink@@IAE_NKPAXG@Z@4JA
  0004d	83 c0 05	 add	 eax, 5
  00050	50		 push	 eax
  00051	68 00 00 00 00	 push	 OFFSET ?THIS_FILE@@3PADA
  00056	e8 00 00 00 00	 call	 ?AfxAssertFailedLine@@YGHPBDH@Z ; AfxAssertFailedLine
  0005b	89 85 14 ff ff
	ff		 mov	 DWORD PTR tv155[ebp], eax
  00061	83 bd 14 ff ff
	ff 00		 cmp	 DWORD PTR tv155[ebp], 0
  00068	74 01		 je	 SHORT $LN4@OnRequestS
  0006a	cc		 int	 3
$LN4@OnRequestS:

; 884  : 
; 885  : 		//执行查询
; 886  : 		m_AccountsDBAide.ResetParameter();

  0006b	8b 4d e8	 mov	 ecx, DWORD PTR _this$[ebp]
  0006e	83 c1 04	 add	 ecx, 4
  00071	ff 15 00 00 00
	00		 call	 DWORD PTR __imp_?ResetParameter@CDataBaseAide@@QAEXXZ

; 887  : 		m_AccountsDBAide.AddParameter(TEXT("@dwUserID"),pSaveOfflineMessage->dwUserID);

  00077	6a 01		 push	 1
  00079	8b 45 e4	 mov	 eax, DWORD PTR _pSaveOfflineMessage$6[ebp]
  0007c	8b 08		 mov	 ecx, DWORD PTR [eax]
  0007e	51		 push	 ecx
  0007f	68 00 00 00 00	 push	 OFFSET ??_C@_09KCDEMNBD@?$EAdwUserID@
  00084	8b 4d e8	 mov	 ecx, DWORD PTR _this$[ebp]
  00087	83 c1 04	 add	 ecx, 4
  0008a	ff 15 00 00 00
	00		 call	 DWORD PTR __imp_?AddParameter@CDataBaseAide@@QAEXPBDKW4ParameterDirectionEnum@ADOCG@@@Z

; 888  : 		m_AccountsDBAide.AddParameter(TEXT("@wMessageType"),pSaveOfflineMessage->wMessageType);

  00090	6a 01		 push	 1
  00092	8b 45 e4	 mov	 eax, DWORD PTR _pSaveOfflineMessage$6[ebp]
  00095	0f b7 48 04	 movzx	 ecx, WORD PTR [eax+4]
  00099	51		 push	 ecx
  0009a	68 00 00 00 00	 push	 OFFSET ??_C@_0O@GONDHLPC@?$EAwMessageType@
  0009f	8b 4d e8	 mov	 ecx, DWORD PTR _this$[ebp]
  000a2	83 c1 04	 add	 ecx, 4
  000a5	ff 15 00 00 00
	00		 call	 DWORD PTR __imp_?AddParameter@CDataBaseAide@@QAEXPBDGW4ParameterDirectionEnum@ADOCG@@@Z

; 889  : 		m_AccountsDBAide.AddParameter(TEXT("@wDataSize"),pSaveOfflineMessage->wDataSize);

  000ab	6a 01		 push	 1
  000ad	8b 45 e4	 mov	 eax, DWORD PTR _pSaveOfflineMessage$6[ebp]
  000b0	0f b7 48 06	 movzx	 ecx, WORD PTR [eax+6]
  000b4	51		 push	 ecx
  000b5	68 00 00 00 00	 push	 OFFSET ??_C@_0L@GKGEGMAC@?$EAwDataSize@
  000ba	8b 4d e8	 mov	 ecx, DWORD PTR _this$[ebp]
  000bd	83 c1 04	 add	 ecx, 4
  000c0	ff 15 00 00 00
	00		 call	 DWORD PTR __imp_?AddParameter@CDataBaseAide@@QAEXPBDGW4ParameterDirectionEnum@ADOCG@@@Z

; 890  : 		m_AccountsDBAide.AddParameter(TEXT("@szOfflineData"),pSaveOfflineMessage->szOfflineData);

  000c6	6a 01		 push	 1
  000c8	8b 45 e4	 mov	 eax, DWORD PTR _pSaveOfflineMessage$6[ebp]
  000cb	83 c0 08	 add	 eax, 8
  000ce	50		 push	 eax
  000cf	68 00 00 00 00	 push	 OFFSET ??_C@_0P@CFKJJPGA@?$EAszOfflineData@
  000d4	8b 4d e8	 mov	 ecx, DWORD PTR _this$[ebp]
  000d7	83 c1 04	 add	 ecx, 4
  000da	ff 15 00 00 00
	00		 call	 DWORD PTR __imp_?AddParameter@CDataBaseAide@@QAEXPBD0W4ParameterDirectionEnum@ADOCG@@@Z

; 891  : 
; 892  : 		//变量定义
; 893  : 		TCHAR szDescribeString[128]=TEXT("");

  000e0	a0 00 00 00 00	 mov	 al, BYTE PTR ??_C@_00CNPNBAHC@@
  000e5	88 85 64 ff ff
	ff		 mov	 BYTE PTR _szDescribeString$5[ebp], al
  000eb	6a 7f		 push	 127			; 0000007fH
  000ed	6a 00		 push	 0
  000ef	8d 85 65 ff ff
	ff		 lea	 eax, DWORD PTR _szDescribeString$5[ebp+1]
  000f5	50		 push	 eax
  000f6	e8 00 00 00 00	 call	 _memset
  000fb	83 c4 0c	 add	 esp, 12			; 0000000cH

; 894  : 		m_AccountsDBAide.AddParameterOutput(TEXT("@strErrorDescribe"),szDescribeString,sizeof(szDescribeString),adParamOutput);

  000fe	6a 02		 push	 2
  00100	68 80 00 00 00	 push	 128			; 00000080H
  00105	8d 85 64 ff ff
	ff		 lea	 eax, DWORD PTR _szDescribeString$5[ebp]
  0010b	50		 push	 eax
  0010c	68 00 00 00 00	 push	 OFFSET ??_C@_0BC@IIOJPJPJ@?$EAstrErrorDescribe@
  00111	8b 4d e8	 mov	 ecx, DWORD PTR _this$[ebp]
  00114	83 c1 04	 add	 ecx, 4
  00117	ff 15 00 00 00
	00		 call	 DWORD PTR __imp_?AddParameterOutput@CDataBaseAide@@QAEXPBDPADIW4ParameterDirectionEnum@ADOCG@@@Z

; 895  : 
; 896  : 		//执行查询
; 897  : 		LONG lResultCode=m_AccountsDBAide.ExecuteProcess(TEXT("GSP_GP_SaveOfflineMessage"),true);

  0011d	6a 01		 push	 1
  0011f	68 00 00 00 00	 push	 OFFSET ??_C@_0BK@GIMHCKOH@GSP_GP_SaveOfflineMessage@
  00124	8b 4d e8	 mov	 ecx, DWORD PTR _this$[ebp]
  00127	83 c1 04	 add	 ecx, 4
  0012a	ff 15 00 00 00
	00		 call	 DWORD PTR __imp_?ExecuteProcess@CDataBaseAide@@QAEJPBD_N@Z
  00130	89 85 14 ff ff
	ff		 mov	 DWORD PTR tv156[ebp], eax
  00136	8b 85 14 ff ff
	ff		 mov	 eax, DWORD PTR tv156[ebp]
  0013c	89 85 60 ff ff
	ff		 mov	 DWORD PTR _lResultCode$4[ebp], eax

; 898  : 
; 899  : 		return true;

  00142	b0 01		 mov	 al, 1
  00144	eb 4c		 jmp	 SHORT $LN1@OnRequestS
__catch$?OnRequestSaveOfflineMessage@CDataBaseEngineSink@@IAE_NKPAXG@Z$0:

; 900  : 	}
; 901  : 	catch (IDataBaseException * pIException)
; 902  : 	{
; 903  : 		//输出错误
; 904  : 		CTraceService::TraceString(pIException->GetExceptionDescribe(),TraceLevel_Exception);

  00146	6a 03		 push	 3
  00148	8b 85 5c ff ff
	ff		 mov	 eax, DWORD PTR _pIException$3[ebp]
  0014e	8b 10		 mov	 edx, DWORD PTR [eax]
  00150	8b 8d 5c ff ff
	ff		 mov	 ecx, DWORD PTR _pIException$3[ebp]
  00156	8b 42 0c	 mov	 eax, DWORD PTR [edx+12]
  00159	ff d0		 call	 eax
  0015b	50		 push	 eax
  0015c	ff 15 00 00 00
	00		 call	 DWORD PTR __imp_?TraceString@CTraceService@@SA_NPBDW4enTraceLevel@@@Z
  00162	83 c4 08	 add	 esp, 8

; 905  : 
; 906  : 		return false;

  00165	c6 85 1b ff ff
	ff 00		 mov	 BYTE PTR $T2[ebp], 0
  0016c	b8 00 00 00 00	 mov	 eax, $LN8@OnRequestS
  00171	c3		 ret	 0

; 907  : 	}

  00172	b8 00 00 00 00	 mov	 eax, __tryend$?OnRequestSaveOfflineMessage@CDataBaseEngineSink@@IAE_NKPAXG@Z$1
  00177	c3		 ret	 0
__tryend$?OnRequestSaveOfflineMessage@CDataBaseEngineSink@@IAE_NKPAXG@Z$1:
  00178	c7 45 fc ff ff
	ff ff		 mov	 DWORD PTR __$EHRec$[ebp+12], -1
  0017f	eb 0f		 jmp	 SHORT $LN7@OnRequestS
$LN8@OnRequestS:
  00181	c7 45 fc ff ff
	ff ff		 mov	 DWORD PTR __$EHRec$[ebp+12], -1

; 905  : 
; 906  : 		return false;

  00188	8a 85 1b ff ff
	ff		 mov	 al, BYTE PTR $T2[ebp]
  0018e	eb 02		 jmp	 SHORT $LN1@OnRequestS
$LN7@OnRequestS:

; 908  : 
; 909  : 	return true;

  00190	b0 01		 mov	 al, 1
$LN1@OnRequestS:

; 910  : }

  00192	8b 4d f4	 mov	 ecx, DWORD PTR __$EHRec$[ebp+4]
  00195	64 89 0d 00 00
	00 00		 mov	 DWORD PTR fs:0, ecx
  0019c	59		 pop	 ecx
  0019d	5f		 pop	 edi
  0019e	5e		 pop	 esi
  0019f	5b		 pop	 ebx
  001a0	8b 4d ec	 mov	 ecx, DWORD PTR __$ArrayPad$[ebp]
  001a3	33 cd		 xor	 ecx, ebp
  001a5	e8 00 00 00 00	 call	 @__security_check_cookie@4
  001aa	8b e5		 mov	 esp, ebp
  001ac	5d		 pop	 ebp
  001ad	c2 0c 00	 ret	 12			; 0000000cH
_TEXT	ENDS
;	COMDAT text$x
text$x	SEGMENT
__ehhandler$?OnRequestSaveOfflineMessage@CDataBaseEngineSink@@IAE_NKPAXG@Z:
  00000	8b 54 24 08	 mov	 edx, DWORD PTR [esp+8]
  00004	8d 42 0c	 lea	 eax, DWORD PTR [edx+12]
  00007	8b 8a 10 ff ff
	ff		 mov	 ecx, DWORD PTR [edx-240]
  0000d	33 c8		 xor	 ecx, eax
  0000f	e8 00 00 00 00	 call	 @__security_check_cookie@4
  00014	8b 4a f8	 mov	 ecx, DWORD PTR [edx-8]
  00017	33 c8		 xor	 ecx, eax
  00019	e8 00 00 00 00	 call	 @__security_check_cookie@4
  0001e	b8 00 00 00 00	 mov	 eax, OFFSET __ehfuncinfo$?OnRequestSaveOfflineMessage@CDataBaseEngineSink@@IAE_NKPAXG@Z
  00023	e9 00 00 00 00	 jmp	 ___CxxFrameHandler3
text$x	ENDS
?OnRequestSaveOfflineMessage@CDataBaseEngineSink@@IAE_NKPAXG@Z ENDP ; CDataBaseEngineSink::OnRequestSaveOfflineMessage
; Function compile flags: /Odtp /ZI
; File g:\网狐\happygamewh\服务端\系统模块\服务器组件\聊天服务器\databaseenginesink.cpp
;	COMDAT ?OnRequestSearchUser@CDataBaseEngineSink@@IAE_NKPAXG@Z
_TEXT	SEGMENT
tv209 = -281						; size = 1
tv136 = -280						; size = 4
tv213 = -276						; size = 4
tv211 = -276						; size = 4
tv210 = -276						; size = 4
tv208 = -276						; size = 4
tv207 = -276						; size = 4
tv206 = -276						; size = 4
tv205 = -276						; size = 4
tv216 = -272						; size = 2
tv215 = -272						; size = 2
tv214 = -270						; size = 1
tv212 = -270						; size = 1
$T2 = -269						; size = 1
_pIException$3 = -204					; size = 4
_SearchUserResult$4 = -200				; size = 166
_lResultCode$5 = -32					; size = 4
_pSearchUser$6 = -28					; size = 4
_this$ = -24						; size = 4
__$ArrayPad$ = -20					; size = 4
__$EHRec$ = -16						; size = 16
_dwContextID$ = 8					; size = 4
_pData$ = 12						; size = 4
_wDataSize$ = 16					; size = 2
?OnRequestSearchUser@CDataBaseEngineSink@@IAE_NKPAXG@Z PROC ; CDataBaseEngineSink::OnRequestSearchUser, COMDAT
; _this$ = ecx

; 786  : {

  00000	55		 push	 ebp
  00001	8b ec		 mov	 ebp, esp
  00003	6a ff		 push	 -1
  00005	68 00 00 00 00	 push	 __ehhandler$?OnRequestSearchUser@CDataBaseEngineSink@@IAE_NKPAXG@Z
  0000a	64 a1 00 00 00
	00		 mov	 eax, DWORD PTR fs:0
  00010	50		 push	 eax
  00011	51		 push	 ecx
  00012	81 ec 0c 01 00
	00		 sub	 esp, 268		; 0000010cH
  00018	a1 00 00 00 00	 mov	 eax, DWORD PTR ___security_cookie
  0001d	33 c5		 xor	 eax, ebp
  0001f	89 45 ec	 mov	 DWORD PTR __$ArrayPad$[ebp], eax
  00022	53		 push	 ebx
  00023	56		 push	 esi
  00024	57		 push	 edi
  00025	50		 push	 eax
  00026	8d 45 f4	 lea	 eax, DWORD PTR __$EHRec$[ebp+4]
  00029	64 a3 00 00 00
	00		 mov	 DWORD PTR fs:0, eax
  0002f	89 65 f0	 mov	 DWORD PTR __$EHRec$[ebp], esp
  00032	89 4d e8	 mov	 DWORD PTR _this$[ebp], ecx

; 787  : 	try

  00035	c7 45 fc 00 00
	00 00		 mov	 DWORD PTR __$EHRec$[ebp+12], 0

; 788  : 	{
; 789  : 		//提取变量
; 790  : 		DBR_GR_SearchUser * pSearchUser=(DBR_GR_SearchUser * )pData;

  0003c	8b 45 0c	 mov	 eax, DWORD PTR _pData$[ebp]
  0003f	89 45 e4	 mov	 DWORD PTR _pSearchUser$6[ebp], eax

; 791  : 		ASSERT(pSearchUser!=NULL);

  00042	83 7d e4 00	 cmp	 DWORD PTR _pSearchUser$6[ebp], 0
  00046	75 23		 jne	 SHORT $LN6@OnRequestS
  00048	a1 00 00 00 00	 mov	 eax, DWORD PTR ?__LINE__Var@?0??OnRequestSearchUser@CDataBaseEngineSink@@IAE_NKPAXG@Z@4JA
  0004d	83 c0 05	 add	 eax, 5
  00050	50		 push	 eax
  00051	68 00 00 00 00	 push	 OFFSET ?THIS_FILE@@3PADA
  00056	e8 00 00 00 00	 call	 ?AfxAssertFailedLine@@YGHPBDH@Z ; AfxAssertFailedLine
  0005b	89 85 ec fe ff
	ff		 mov	 DWORD PTR tv205[ebp], eax
  00061	83 bd ec fe ff
	ff 00		 cmp	 DWORD PTR tv205[ebp], 0
  00068	74 01		 je	 SHORT $LN6@OnRequestS
  0006a	cc		 int	 3
$LN6@OnRequestS:

; 792  : 
; 793  : 		//执行查询
; 794  : 		m_AccountsDBAide.ResetParameter();

  0006b	8b 4d e8	 mov	 ecx, DWORD PTR _this$[ebp]
  0006e	83 c1 04	 add	 ecx, 4
  00071	ff 15 00 00 00
	00		 call	 DWORD PTR __imp_?ResetParameter@CDataBaseAide@@QAEXXZ

; 795  : 		m_AccountsDBAide.AddParameter(TEXT("@dwGameID"),pSearchUser->dwSearchByGameID);

  00077	6a 01		 push	 1
  00079	8b 45 e4	 mov	 eax, DWORD PTR _pSearchUser$6[ebp]
  0007c	8b 08		 mov	 ecx, DWORD PTR [eax]
  0007e	51		 push	 ecx
  0007f	68 00 00 00 00	 push	 OFFSET ??_C@_09OBNFMHID@?$EAdwGameID@
  00084	8b 4d e8	 mov	 ecx, DWORD PTR _this$[ebp]
  00087	83 c1 04	 add	 ecx, 4
  0008a	ff 15 00 00 00
	00		 call	 DWORD PTR __imp_?AddParameter@CDataBaseAide@@QAEXPBDKW4ParameterDirectionEnum@ADOCG@@@Z

; 796  : 
; 797  : 		//执行查询
; 798  : 		LONG lResultCode=m_AccountsDBAide.ExecuteProcess(TEXT("GSP_GP_SearchUser"),true);

  00090	6a 01		 push	 1
  00092	68 00 00 00 00	 push	 OFFSET ??_C@_0BC@FMPJFMGP@GSP_GP_SearchUser@
  00097	8b 4d e8	 mov	 ecx, DWORD PTR _this$[ebp]
  0009a	83 c1 04	 add	 ecx, 4
  0009d	ff 15 00 00 00
	00		 call	 DWORD PTR __imp_?ExecuteProcess@CDataBaseAide@@QAEJPBD_N@Z
  000a3	89 85 ec fe ff
	ff		 mov	 DWORD PTR tv206[ebp], eax
  000a9	8b 85 ec fe ff
	ff		 mov	 eax, DWORD PTR tv206[ebp]
  000af	89 45 e0	 mov	 DWORD PTR _lResultCode$5[ebp], eax

; 799  : 
; 800  : 		//变量定义
; 801  : 		DBO_GR_SearchUserResult	SearchUserResult;
; 802  : 		ZeroMemory(&SearchUserResult,sizeof(SearchUserResult));

  000b2	68 a6 00 00 00	 push	 166			; 000000a6H
  000b7	6a 00		 push	 0
  000b9	8d 85 38 ff ff
	ff		 lea	 eax, DWORD PTR _SearchUserResult$4[ebp]
  000bf	50		 push	 eax
  000c0	e8 00 00 00 00	 call	 _memset
  000c5	83 c4 0c	 add	 esp, 12			; 0000000cH

; 803  : 
; 804  : 		//执行成功
; 805  : 		if(lResultCode==DB_SUCCESS && m_AccountsDBModule.GetInterface())

  000c8	83 7d e0 00	 cmp	 DWORD PTR _lResultCode$5[ebp], 0
  000cc	0f 85 9e 01 00
	00		 jne	 $LN3@OnRequestS
  000d2	8b 4d e8	 mov	 ecx, DWORD PTR _this$[ebp]
  000d5	83 c1 0c	 add	 ecx, 12			; 0000000cH
  000d8	e8 00 00 00 00	 call	 ?GetInterface@?$CTempldateHelper@UIDataBase@@@@QBEPAUIDataBase@@XZ ; CTempldateHelper<IDataBase>::GetInterface
  000dd	89 85 ec fe ff
	ff		 mov	 DWORD PTR tv207[ebp], eax
  000e3	83 bd ec fe ff
	ff 00		 cmp	 DWORD PTR tv207[ebp], 0
  000ea	0f 84 80 01 00
	00		 je	 $LN3@OnRequestS

; 806  : 		{
; 807  : 			if(m_AccountsDBModule->IsRecordsetEnd()==false)

  000f0	8b 4d e8	 mov	 ecx, DWORD PTR _this$[ebp]
  000f3	83 c1 0c	 add	 ecx, 12			; 0000000cH
  000f6	e8 00 00 00 00	 call	 ??C?$CTempldateHelper@UIDataBase@@@@QBEPAUIDataBase@@XZ ; CTempldateHelper<IDataBase>::operator->
  000fb	89 85 ec fe ff
	ff		 mov	 DWORD PTR tv208[ebp], eax
  00101	8b 85 ec fe ff
	ff		 mov	 eax, DWORD PTR tv208[ebp]
  00107	89 85 e8 fe ff
	ff		 mov	 DWORD PTR tv136[ebp], eax
  0010d	8b 8d e8 fe ff
	ff		 mov	 ecx, DWORD PTR tv136[ebp]
  00113	8b 11		 mov	 edx, DWORD PTR [ecx]
  00115	8b 8d e8 fe ff
	ff		 mov	 ecx, DWORD PTR tv136[ebp]
  0011b	8b 42 38	 mov	 eax, DWORD PTR [edx+56]
  0011e	ff d0		 call	 eax
  00120	88 85 e7 fe ff
	ff		 mov	 BYTE PTR tv209[ebp], al
  00126	0f b6 8d e7 fe
	ff ff		 movzx	 ecx, BYTE PTR tv209[ebp]
  0012d	85 c9		 test	 ecx, ecx
  0012f	0f 85 3b 01 00
	00		 jne	 $LN3@OnRequestS

; 808  : 			{
; 809  : 				SearchUserResult.FriendInfo.dwUserID=m_AccountsDBAide.GetValue_DWORD(TEXT("UserID"));

  00135	68 00 00 00 00	 push	 OFFSET ??_C@_06OFHCDFJK@UserID@
  0013a	8b 4d e8	 mov	 ecx, DWORD PTR _this$[ebp]
  0013d	83 c1 04	 add	 ecx, 4
  00140	ff 15 00 00 00
	00		 call	 DWORD PTR __imp_?GetValue_DWORD@CDataBaseAide@@QAEKPBD@Z
  00146	89 85 ec fe ff
	ff		 mov	 DWORD PTR tv210[ebp], eax
  0014c	8b 85 ec fe ff
	ff		 mov	 eax, DWORD PTR tv210[ebp]
  00152	89 85 39 ff ff
	ff		 mov	 DWORD PTR _SearchUserResult$4[ebp+1], eax

; 810  : 				SearchUserResult.FriendInfo.dwGameID=m_AccountsDBAide.GetValue_DWORD(TEXT("GameID"));

  00158	68 00 00 00 00	 push	 OFFSET ??_C@_06KGJDDPAK@GameID@
  0015d	8b 4d e8	 mov	 ecx, DWORD PTR _this$[ebp]
  00160	83 c1 04	 add	 ecx, 4
  00163	ff 15 00 00 00
	00		 call	 DWORD PTR __imp_?GetValue_DWORD@CDataBaseAide@@QAEKPBD@Z
  00169	89 85 ec fe ff
	ff		 mov	 DWORD PTR tv211[ebp], eax
  0016f	8b 85 ec fe ff
	ff		 mov	 eax, DWORD PTR tv211[ebp]
  00175	89 85 3d ff ff
	ff		 mov	 DWORD PTR _SearchUserResult$4[ebp+5], eax

; 811  : 				SearchUserResult.FriendInfo.cbGroupID =0;

  0017b	c6 45 b3 00	 mov	 BYTE PTR _SearchUserResult$4[ebp+123], 0

; 812  : 				SearchUserResult.FriendInfo.dwFaceID =m_AccountsDBAide.GetValue_BYTE(TEXT("FaceID"));

  0017f	68 00 00 00 00	 push	 OFFSET ??_C@_06LPNEIKNP@FaceID@
  00184	8b 4d e8	 mov	 ecx, DWORD PTR _this$[ebp]
  00187	83 c1 04	 add	 ecx, 4
  0018a	ff 15 00 00 00
	00		 call	 DWORD PTR __imp_?GetValue_BYTE@CDataBaseAide@@QAEEPBD@Z
  00190	88 85 f2 fe ff
	ff		 mov	 BYTE PTR tv212[ebp], al
  00196	0f b6 85 f2 fe
	ff ff		 movzx	 eax, BYTE PTR tv212[ebp]
  0019d	89 85 61 ff ff
	ff		 mov	 DWORD PTR _SearchUserResult$4[ebp+41], eax

; 813  : 				SearchUserResult.FriendInfo.dwCustomID =m_AccountsDBAide.GetValue_DWORD(TEXT("CustomID"));

  001a3	68 00 00 00 00	 push	 OFFSET ??_C@_08GOBKDNAK@CustomID@
  001a8	8b 4d e8	 mov	 ecx, DWORD PTR _this$[ebp]
  001ab	83 c1 04	 add	 ecx, 4
  001ae	ff 15 00 00 00
	00		 call	 DWORD PTR __imp_?GetValue_DWORD@CDataBaseAide@@QAEKPBD@Z
  001b4	89 85 ec fe ff
	ff		 mov	 DWORD PTR tv213[ebp], eax
  001ba	8b 85 ec fe ff
	ff		 mov	 eax, DWORD PTR tv213[ebp]
  001c0	89 85 65 ff ff
	ff		 mov	 DWORD PTR _SearchUserResult$4[ebp+45], eax

; 814  : 				SearchUserResult.FriendInfo.cbGender =m_AccountsDBAide.GetValue_BYTE(TEXT("Gender"));

  001c6	68 00 00 00 00	 push	 OFFSET ??_C@_06HKFFEOFI@Gender@
  001cb	8b 4d e8	 mov	 ecx, DWORD PTR _this$[ebp]
  001ce	83 c1 04	 add	 ecx, 4
  001d1	ff 15 00 00 00
	00		 call	 DWORD PTR __imp_?GetValue_BYTE@CDataBaseAide@@QAEEPBD@Z
  001d7	88 85 f2 fe ff
	ff		 mov	 BYTE PTR tv214[ebp], al
  001dd	8a 85 f2 fe ff
	ff		 mov	 al, BYTE PTR tv214[ebp]
  001e3	88 85 69 ff ff
	ff		 mov	 BYTE PTR _SearchUserResult$4[ebp+49], al

; 815  : 				SearchUserResult.FriendInfo.wMemberOrder =m_AccountsDBAide.GetValue_WORD(TEXT("MemberOrder"));

  001e9	68 00 00 00 00	 push	 OFFSET ??_C@_0M@CEFIIFDG@MemberOrder@
  001ee	8b 4d e8	 mov	 ecx, DWORD PTR _this$[ebp]
  001f1	83 c1 04	 add	 ecx, 4
  001f4	ff 15 00 00 00
	00		 call	 DWORD PTR __imp_?GetValue_WORD@CDataBaseAide@@QAEGPBD@Z
  001fa	66 89 85 f0 fe
	ff ff		 mov	 WORD PTR tv215[ebp], ax
  00201	66 8b 85 f0 fe
	ff ff		 mov	 ax, WORD PTR tv215[ebp]
  00208	66 89 85 6a ff
	ff ff		 mov	 WORD PTR _SearchUserResult$4[ebp+50], ax

; 816  : 				SearchUserResult.FriendInfo.wGrowLevel =m_AccountsDBAide.GetValue_WORD(TEXT("GrowLevel"));

  0020f	68 00 00 00 00	 push	 OFFSET ??_C@_09HOAKNMLL@GrowLevel@
  00214	8b 4d e8	 mov	 ecx, DWORD PTR _this$[ebp]
  00217	83 c1 04	 add	 ecx, 4
  0021a	ff 15 00 00 00
	00		 call	 DWORD PTR __imp_?GetValue_WORD@CDataBaseAide@@QAEGPBD@Z
  00220	66 89 85 f0 fe
	ff ff		 mov	 WORD PTR tv216[ebp], ax
  00227	66 8b 85 f0 fe
	ff ff		 mov	 ax, WORD PTR tv216[ebp]
  0022e	66 89 85 6c ff
	ff ff		 mov	 WORD PTR _SearchUserResult$4[ebp+52], ax

; 817  : 				m_AccountsDBAide.GetValue_String(TEXT("NickName"),    SearchUserResult.FriendInfo.szNickName    ,CountArray(SearchUserResult.FriendInfo.szNickName));

  00235	6a 20		 push	 32			; 00000020H
  00237	8d 85 41 ff ff
	ff		 lea	 eax, DWORD PTR _SearchUserResult$4[ebp+9]
  0023d	50		 push	 eax
  0023e	68 00 00 00 00	 push	 OFFSET ??_C@_08CELDJAGK@NickName@
  00243	8b 4d e8	 mov	 ecx, DWORD PTR _this$[ebp]
  00246	83 c1 04	 add	 ecx, 4
  00249	ff 15 00 00 00
	00		 call	 DWORD PTR __imp_?GetValue_String@CDataBaseAide@@QAEXPBDPADI@Z

; 818  : 				m_AccountsDBAide.GetValue_String(TEXT("UnderWrite"),  SearchUserResult.FriendInfo.szUnderWrite  ,CountArray(SearchUserResult.FriendInfo.szUnderWrite));

  0024f	6a 20		 push	 32			; 00000020H
  00251	8d 85 6e ff ff
	ff		 lea	 eax, DWORD PTR _SearchUserResult$4[ebp+54]
  00257	50		 push	 eax
  00258	68 00 00 00 00	 push	 OFFSET ??_C@_0L@CPAJNIME@UnderWrite@
  0025d	8b 4d e8	 mov	 ecx, DWORD PTR _this$[ebp]
  00260	83 c1 04	 add	 ecx, 4
  00263	ff 15 00 00 00
	00		 call	 DWORD PTR __imp_?GetValue_String@CDataBaseAide@@QAEXPBDPADI@Z

; 819  : 				SearchUserResult.cbUserCount = 1;

  00269	c6 85 38 ff ff
	ff 01		 mov	 BYTE PTR _SearchUserResult$4[ebp], 1
$LN3@OnRequestS:

; 820  : 			}
; 821  : 		}
; 822  : 
; 823  : 		//发送结果
; 824  : 		m_pIDataBaseEngineEvent->OnEventDataBaseResult(DBO_GR_SEARCH_USER_RESULT,dwContextID,&SearchUserResult,sizeof(SearchUserResult));

  00270	68 a6 00 00 00	 push	 166			; 000000a6H
  00275	8d 85 38 ff ff
	ff		 lea	 eax, DWORD PTR _SearchUserResult$4[ebp]
  0027b	50		 push	 eax
  0027c	8b 4d 08	 mov	 ecx, DWORD PTR _dwContextID$[ebp]
  0027f	51		 push	 ecx
  00280	68 98 01 00 00	 push	 408			; 00000198H
  00285	8b 55 e8	 mov	 edx, DWORD PTR _this$[ebp]
  00288	8b 45 e8	 mov	 eax, DWORD PTR _this$[ebp]
  0028b	8b 88 a8 05 00
	00		 mov	 ecx, DWORD PTR [eax+1448]
  00291	8b 01		 mov	 eax, DWORD PTR [ecx]
  00293	8b 8a a8 05 00
	00		 mov	 ecx, DWORD PTR [edx+1448]
  00299	8b 50 08	 mov	 edx, DWORD PTR [eax+8]
  0029c	ff d2		 call	 edx

; 825  : 
; 826  : 		return true;

  0029e	b0 01		 mov	 al, 1
  002a0	eb 63		 jmp	 SHORT $LN1@OnRequestS
__catch$?OnRequestSearchUser@CDataBaseEngineSink@@IAE_NKPAXG@Z$0:

; 827  : 	}
; 828  : 	catch (IDataBaseException * pIException)
; 829  : 	{
; 830  : 		//输出错误
; 831  : 		CTraceService::TraceString(pIException->GetExceptionDescribe(),TraceLevel_Exception);

  002a2	6a 03		 push	 3
  002a4	8b 85 34 ff ff
	ff		 mov	 eax, DWORD PTR _pIException$3[ebp]
  002aa	8b 10		 mov	 edx, DWORD PTR [eax]
  002ac	8b 8d 34 ff ff
	ff		 mov	 ecx, DWORD PTR _pIException$3[ebp]
  002b2	8b 42 0c	 mov	 eax, DWORD PTR [edx+12]
  002b5	ff d0		 call	 eax
  002b7	50		 push	 eax
  002b8	ff 15 00 00 00
	00		 call	 DWORD PTR __imp_?TraceString@CTraceService@@SA_NPBDW4enTraceLevel@@@Z
  002be	83 c4 08	 add	 esp, 8

; 832  : 
; 833  : 		//操作失败
; 834  : 		OnUserOperateResult(dwContextID,false,0L,SUB_GC_SEARCH_USER,TEXT("抱歉,由于数据库操作异常,您的请求无法完成！"));

  002c1	68 00 00 00 00	 push	 OFFSET ??_C@_0CL@OKPGMGNM@?$LB?$KH?G?$LI?0?S?I?S?Z?J?$PN?$LO?$NN?$LP?b?$LC?Y?W?w?R?l?$LD?$KD?0?D?z?$LF?D?G?k?G@
  002c6	6a 67		 push	 103			; 00000067H
  002c8	6a 00		 push	 0
  002ca	6a 00		 push	 0
  002cc	8b 45 08	 mov	 eax, DWORD PTR _dwContextID$[ebp]
  002cf	50		 push	 eax
  002d0	8b 4d e8	 mov	 ecx, DWORD PTR _this$[ebp]
  002d3	e8 00 00 00 00	 call	 ?OnUserOperateResult@CDataBaseEngineSink@@AAEXK_NKGPBD@Z ; CDataBaseEngineSink::OnUserOperateResult

; 835  : 
; 836  : 		return false;

  002d8	c6 85 f3 fe ff
	ff 00		 mov	 BYTE PTR $T2[ebp], 0
  002df	b8 00 00 00 00	 mov	 eax, $LN10@OnRequestS
  002e4	c3		 ret	 0

; 837  : 	}

  002e5	b8 00 00 00 00	 mov	 eax, __tryend$?OnRequestSearchUser@CDataBaseEngineSink@@IAE_NKPAXG@Z$1
  002ea	c3		 ret	 0
__tryend$?OnRequestSearchUser@CDataBaseEngineSink@@IAE_NKPAXG@Z$1:
  002eb	c7 45 fc ff ff
	ff ff		 mov	 DWORD PTR __$EHRec$[ebp+12], -1
  002f2	eb 0f		 jmp	 SHORT $LN9@OnRequestS
$LN10@OnRequestS:
  002f4	c7 45 fc ff ff
	ff ff		 mov	 DWORD PTR __$EHRec$[ebp+12], -1

; 835  : 
; 836  : 		return false;

  002fb	8a 85 f3 fe ff
	ff		 mov	 al, BYTE PTR $T2[ebp]
  00301	eb 02		 jmp	 SHORT $LN1@OnRequestS
$LN9@OnRequestS:

; 838  : 
; 839  : 	return true;

  00303	b0 01		 mov	 al, 1
$LN1@OnRequestS:

; 840  : }

  00305	8b 4d f4	 mov	 ecx, DWORD PTR __$EHRec$[ebp+4]
  00308	64 89 0d 00 00
	00 00		 mov	 DWORD PTR fs:0, ecx
  0030f	59		 pop	 ecx
  00310	5f		 pop	 edi
  00311	5e		 pop	 esi
  00312	5b		 pop	 ebx
  00313	8b 4d ec	 mov	 ecx, DWORD PTR __$ArrayPad$[ebp]
  00316	33 cd		 xor	 ecx, ebp
  00318	e8 00 00 00 00	 call	 @__security_check_cookie@4
  0031d	8b e5		 mov	 esp, ebp
  0031f	5d		 pop	 ebp
  00320	c2 0c 00	 ret	 12			; 0000000cH
_TEXT	ENDS
;	COMDAT text$x
text$x	SEGMENT
__ehhandler$?OnRequestSearchUser@CDataBaseEngineSink@@IAE_NKPAXG@Z:
  00000	8b 54 24 08	 mov	 edx, DWORD PTR [esp+8]
  00004	8d 42 0c	 lea	 eax, DWORD PTR [edx+12]
  00007	8b 8a e0 fe ff
	ff		 mov	 ecx, DWORD PTR [edx-288]
  0000d	33 c8		 xor	 ecx, eax
  0000f	e8 00 00 00 00	 call	 @__security_check_cookie@4
  00014	8b 4a f8	 mov	 ecx, DWORD PTR [edx-8]
  00017	33 c8		 xor	 ecx, eax
  00019	e8 00 00 00 00	 call	 @__security_check_cookie@4
  0001e	b8 00 00 00 00	 mov	 eax, OFFSET __ehfuncinfo$?OnRequestSearchUser@CDataBaseEngineSink@@IAE_NKPAXG@Z
  00023	e9 00 00 00 00	 jmp	 ___CxxFrameHandler3
text$x	ENDS
?OnRequestSearchUser@CDataBaseEngineSink@@IAE_NKPAXG@Z ENDP ; CDataBaseEngineSink::OnRequestSearchUser
; Function compile flags: /Odtp /ZI
; File g:\网狐\happygamewh\服务端\系统模块\服务器组件\聊天服务器\databaseenginesink.cpp
;	COMDAT ?OnRequestModifyRemarks@CDataBaseEngineSink@@IAE_NKPAXG@Z
_TEXT	SEGMENT
tv172 = -196						; size = 4
tv129 = -196						; size = 4
$T2 = -189						; size = 1
_ModifyRemarks$3 = -124					; size = 44
_pIException$4 = -80					; size = 4
_ModifyRemarks$5 = -76					; size = 44
_lResultCode$6 = -32					; size = 4
_pModifyRemarks$ = -28					; size = 4
_this$ = -24						; size = 4
__$ArrayPad$ = -20					; size = 4
__$EHRec$ = -16						; size = 16
_dwContextID$ = 8					; size = 4
_pData$ = 12						; size = 4
_wDataSize$ = 16					; size = 2
?OnRequestModifyRemarks@CDataBaseEngineSink@@IAE_NKPAXG@Z PROC ; CDataBaseEngineSink::OnRequestModifyRemarks, COMDAT
; _this$ = ecx

; 735  : {

  00000	55		 push	 ebp
  00001	8b ec		 mov	 ebp, esp
  00003	6a ff		 push	 -1
  00005	68 00 00 00 00	 push	 __ehhandler$?OnRequestModifyRemarks@CDataBaseEngineSink@@IAE_NKPAXG@Z
  0000a	64 a1 00 00 00
	00		 mov	 eax, DWORD PTR fs:0
  00010	50		 push	 eax
  00011	51		 push	 ecx
  00012	81 ec b4 00 00
	00		 sub	 esp, 180		; 000000b4H
  00018	a1 00 00 00 00	 mov	 eax, DWORD PTR ___security_cookie
  0001d	33 c5		 xor	 eax, ebp
  0001f	89 45 ec	 mov	 DWORD PTR __$ArrayPad$[ebp], eax
  00022	53		 push	 ebx
  00023	56		 push	 esi
  00024	57		 push	 edi
  00025	50		 push	 eax
  00026	8d 45 f4	 lea	 eax, DWORD PTR __$EHRec$[ebp+4]
  00029	64 a3 00 00 00
	00		 mov	 DWORD PTR fs:0, eax
  0002f	89 65 f0	 mov	 DWORD PTR __$EHRec$[ebp], esp
  00032	89 4d e8	 mov	 DWORD PTR _this$[ebp], ecx

; 736  : 	//提取变量
; 737  : 	DBR_GR_ModifyRemarks * pModifyRemarks=(DBR_GR_ModifyRemarks * )pData;

  00035	8b 45 0c	 mov	 eax, DWORD PTR _pData$[ebp]
  00038	89 45 e4	 mov	 DWORD PTR _pModifyRemarks$[ebp], eax

; 738  : 	ASSERT(pModifyRemarks!=NULL);

  0003b	83 7d e4 00	 cmp	 DWORD PTR _pModifyRemarks$[ebp], 0
  0003f	75 18		 jne	 SHORT $LN4@OnRequestM
  00041	a1 00 00 00 00	 mov	 eax, DWORD PTR ?__LINE__Var@?0??OnRequestModifyRemarks@CDataBaseEngineSink@@IAE_NKPAXG@Z@4JA
  00046	83 c0 03	 add	 eax, 3
  00049	50		 push	 eax
  0004a	68 00 00 00 00	 push	 OFFSET ?THIS_FILE@@3PADA
  0004f	e8 00 00 00 00	 call	 ?AfxAssertFailedLine@@YGHPBDH@Z ; AfxAssertFailedLine
  00054	85 c0		 test	 eax, eax
  00056	74 01		 je	 SHORT $LN4@OnRequestM
  00058	cc		 int	 3
$LN4@OnRequestM:

; 739  : 
; 740  : 	try

  00059	c7 45 fc 00 00
	00 00		 mov	 DWORD PTR __$EHRec$[ebp+12], 0

; 741  : 	{	
; 742  : 		//执行查询
; 743  : 		m_AccountsDBAide.ResetParameter();

  00060	8b 4d e8	 mov	 ecx, DWORD PTR _this$[ebp]
  00063	83 c1 04	 add	 ecx, 4
  00066	ff 15 00 00 00
	00		 call	 DWORD PTR __imp_?ResetParameter@CDataBaseAide@@QAEXXZ

; 744  : 		m_AccountsDBAide.AddParameter(TEXT("@dwUserID"),pModifyRemarks->dwUserID);

  0006c	6a 01		 push	 1
  0006e	8b 45 e4	 mov	 eax, DWORD PTR _pModifyRemarks$[ebp]
  00071	8b 08		 mov	 ecx, DWORD PTR [eax]
  00073	51		 push	 ecx
  00074	68 00 00 00 00	 push	 OFFSET ??_C@_09KCDEMNBD@?$EAdwUserID@
  00079	8b 4d e8	 mov	 ecx, DWORD PTR _this$[ebp]
  0007c	83 c1 04	 add	 ecx, 4
  0007f	ff 15 00 00 00
	00		 call	 DWORD PTR __imp_?AddParameter@CDataBaseAide@@QAEXPBDKW4ParameterDirectionEnum@ADOCG@@@Z

; 745  : 		m_AccountsDBAide.AddParameter(TEXT("@dwFriendUserID"),pModifyRemarks->dwFriendID);

  00085	6a 01		 push	 1
  00087	8b 45 e4	 mov	 eax, DWORD PTR _pModifyRemarks$[ebp]
  0008a	8b 48 04	 mov	 ecx, DWORD PTR [eax+4]
  0008d	51		 push	 ecx
  0008e	68 00 00 00 00	 push	 OFFSET ??_C@_0BA@PEHFKMKN@?$EAdwFriendUserID@
  00093	8b 4d e8	 mov	 ecx, DWORD PTR _this$[ebp]
  00096	83 c1 04	 add	 ecx, 4
  00099	ff 15 00 00 00
	00		 call	 DWORD PTR __imp_?AddParameter@CDataBaseAide@@QAEXPBDKW4ParameterDirectionEnum@ADOCG@@@Z

; 746  : 		m_AccountsDBAide.AddParameter(TEXT("@szRemarksInfo"),pModifyRemarks->szUserRemarks);

  0009f	6a 01		 push	 1
  000a1	8b 45 e4	 mov	 eax, DWORD PTR _pModifyRemarks$[ebp]
  000a4	83 c0 08	 add	 eax, 8
  000a7	50		 push	 eax
  000a8	68 00 00 00 00	 push	 OFFSET ??_C@_0P@KAOHGEPI@?$EAszRemarksInfo@
  000ad	8b 4d e8	 mov	 ecx, DWORD PTR _this$[ebp]
  000b0	83 c1 04	 add	 ecx, 4
  000b3	ff 15 00 00 00
	00		 call	 DWORD PTR __imp_?AddParameter@CDataBaseAide@@QAEXPBD0W4ParameterDirectionEnum@ADOCG@@@Z

; 747  : 
; 748  : 		//执行查询
; 749  : 		LONG lResultCode=m_AccountsDBAide.ExecuteProcess(TEXT("GSP_GP_ModifyUserRemarks"),true);

  000b9	6a 01		 push	 1
  000bb	68 00 00 00 00	 push	 OFFSET ??_C@_0BJ@JFABKBII@GSP_GP_ModifyUserRemarks@
  000c0	8b 4d e8	 mov	 ecx, DWORD PTR _this$[ebp]
  000c3	83 c1 04	 add	 ecx, 4
  000c6	ff 15 00 00 00
	00		 call	 DWORD PTR __imp_?ExecuteProcess@CDataBaseAide@@QAEJPBD_N@Z
  000cc	89 85 3c ff ff
	ff		 mov	 DWORD PTR tv172[ebp], eax
  000d2	8b 85 3c ff ff
	ff		 mov	 eax, DWORD PTR tv172[ebp]
  000d8	89 45 e0	 mov	 DWORD PTR _lResultCode$6[ebp], eax

; 750  : 
; 751  : 		//变量定义
; 752  : 		DBO_GR_ModifyRemarks  ModifyRemarks;
; 753  : 		ModifyRemarks.bSuccessed=lResultCode==DB_SUCCESS;

  000db	83 7d e0 00	 cmp	 DWORD PTR _lResultCode$6[ebp], 0
  000df	75 0c		 jne	 SHORT $LN5@OnRequestM
  000e1	c7 85 3c ff ff
	ff 01 00 00 00	 mov	 DWORD PTR tv129[ebp], 1
  000eb	eb 0a		 jmp	 SHORT $LN6@OnRequestM
$LN5@OnRequestM:
  000ed	c7 85 3c ff ff
	ff 00 00 00 00	 mov	 DWORD PTR tv129[ebp], 0
$LN6@OnRequestM:
  000f7	8a 85 3c ff ff
	ff		 mov	 al, BYTE PTR tv129[ebp]
  000fd	88 45 b4	 mov	 BYTE PTR _ModifyRemarks$5[ebp], al

; 754  : 		ModifyRemarks.dwUserID=pModifyRemarks->dwUserID;

  00100	8b 45 e4	 mov	 eax, DWORD PTR _pModifyRemarks$[ebp]
  00103	8b 08		 mov	 ecx, DWORD PTR [eax]
  00105	89 4d b8	 mov	 DWORD PTR _ModifyRemarks$5[ebp+4], ecx

; 755  : 		ModifyRemarks.dwFriendID = pModifyRemarks->dwFriendID;

  00108	8b 45 e4	 mov	 eax, DWORD PTR _pModifyRemarks$[ebp]
  0010b	8b 48 04	 mov	 ecx, DWORD PTR [eax+4]
  0010e	89 4d bc	 mov	 DWORD PTR _ModifyRemarks$5[ebp+8], ecx

; 756  : 		lstrcpyn(ModifyRemarks.szUserRemarks,pModifyRemarks->szUserRemarks,CountArray(ModifyRemarks.szUserRemarks));

  00111	6a 20		 push	 32			; 00000020H
  00113	8b 45 e4	 mov	 eax, DWORD PTR _pModifyRemarks$[ebp]
  00116	83 c0 08	 add	 eax, 8
  00119	50		 push	 eax
  0011a	8d 4d c0	 lea	 ecx, DWORD PTR _ModifyRemarks$5[ebp+12]
  0011d	51		 push	 ecx
  0011e	ff 15 00 00 00
	00		 call	 DWORD PTR __imp__lstrcpynA@12

; 757  : 
; 758  : 		//投递数据
; 759  : 		m_pIDataBaseEngineEvent->OnEventDataBaseResult(DBO_GR_MODIFY_REMARKS,dwContextID,&ModifyRemarks,sizeof(ModifyRemarks));

  00124	6a 2c		 push	 44			; 0000002cH
  00126	8d 45 b4	 lea	 eax, DWORD PTR _ModifyRemarks$5[ebp]
  00129	50		 push	 eax
  0012a	8b 4d 08	 mov	 ecx, DWORD PTR _dwContextID$[ebp]
  0012d	51		 push	 ecx
  0012e	68 96 01 00 00	 push	 406			; 00000196H
  00133	8b 55 e8	 mov	 edx, DWORD PTR _this$[ebp]
  00136	8b 45 e8	 mov	 eax, DWORD PTR _this$[ebp]
  00139	8b 88 a8 05 00
	00		 mov	 ecx, DWORD PTR [eax+1448]
  0013f	8b 01		 mov	 eax, DWORD PTR [ecx]
  00141	8b 8a a8 05 00
	00		 mov	 ecx, DWORD PTR [edx+1448]
  00147	8b 50 08	 mov	 edx, DWORD PTR [eax+8]
  0014a	ff d2		 call	 edx

; 760  : 
; 761  : 		return true;

  0014c	b0 01		 mov	 al, 1
  0014e	e9 96 00 00 00	 jmp	 $LN1@OnRequestM
__catch$?OnRequestModifyRemarks@CDataBaseEngineSink@@IAE_NKPAXG@Z$0:

; 762  : 	}
; 763  : 	catch (IDataBaseException * pIException)
; 764  : 	{
; 765  : 		//输出错误
; 766  : 		CTraceService::TraceString(pIException->GetExceptionDescribe(),TraceLevel_Exception);

  00153	6a 03		 push	 3
  00155	8b 45 b0	 mov	 eax, DWORD PTR _pIException$4[ebp]
  00158	8b 10		 mov	 edx, DWORD PTR [eax]
  0015a	8b 4d b0	 mov	 ecx, DWORD PTR _pIException$4[ebp]
  0015d	8b 42 0c	 mov	 eax, DWORD PTR [edx+12]
  00160	ff d0		 call	 eax
  00162	50		 push	 eax
  00163	ff 15 00 00 00
	00		 call	 DWORD PTR __imp_?TraceString@CTraceService@@SA_NPBDW4enTraceLevel@@@Z
  00169	83 c4 08	 add	 esp, 8

; 767  : 
; 768  : 		//变量定义
; 769  : 		DBO_GR_ModifyRemarks  ModifyRemarks;
; 770  : 		ModifyRemarks.bSuccessed=false;

  0016c	c6 45 84 00	 mov	 BYTE PTR _ModifyRemarks$3[ebp], 0

; 771  : 		ModifyRemarks.dwUserID=pModifyRemarks->dwUserID;

  00170	8b 45 e4	 mov	 eax, DWORD PTR _pModifyRemarks$[ebp]
  00173	8b 08		 mov	 ecx, DWORD PTR [eax]
  00175	89 4d 88	 mov	 DWORD PTR _ModifyRemarks$3[ebp+4], ecx

; 772  : 		ModifyRemarks.dwFriendID = pModifyRemarks->dwFriendID;

  00178	8b 45 e4	 mov	 eax, DWORD PTR _pModifyRemarks$[ebp]
  0017b	8b 48 04	 mov	 ecx, DWORD PTR [eax+4]
  0017e	89 4d 8c	 mov	 DWORD PTR _ModifyRemarks$3[ebp+8], ecx

; 773  : 		lstrcpyn(ModifyRemarks.szUserRemarks,pModifyRemarks->szUserRemarks,CountArray(ModifyRemarks.szUserRemarks));

  00181	6a 20		 push	 32			; 00000020H
  00183	8b 45 e4	 mov	 eax, DWORD PTR _pModifyRemarks$[ebp]
  00186	83 c0 08	 add	 eax, 8
  00189	50		 push	 eax
  0018a	8d 4d 90	 lea	 ecx, DWORD PTR _ModifyRemarks$3[ebp+12]
  0018d	51		 push	 ecx
  0018e	ff 15 00 00 00
	00		 call	 DWORD PTR __imp__lstrcpynA@12

; 774  : 
; 775  : 		//投递数据
; 776  : 		m_pIDataBaseEngineEvent->OnEventDataBaseResult(DBO_GR_MODIFY_REMARKS,dwContextID,&ModifyRemarks,sizeof(ModifyRemarks));

  00194	6a 2c		 push	 44			; 0000002cH
  00196	8d 45 84	 lea	 eax, DWORD PTR _ModifyRemarks$3[ebp]
  00199	50		 push	 eax
  0019a	8b 4d 08	 mov	 ecx, DWORD PTR _dwContextID$[ebp]
  0019d	51		 push	 ecx
  0019e	68 96 01 00 00	 push	 406			; 00000196H
  001a3	8b 55 e8	 mov	 edx, DWORD PTR _this$[ebp]
  001a6	8b 45 e8	 mov	 eax, DWORD PTR _this$[ebp]
  001a9	8b 88 a8 05 00
	00		 mov	 ecx, DWORD PTR [eax+1448]
  001af	8b 01		 mov	 eax, DWORD PTR [ecx]
  001b1	8b 8a a8 05 00
	00		 mov	 ecx, DWORD PTR [edx+1448]
  001b7	8b 50 08	 mov	 edx, DWORD PTR [eax+8]
  001ba	ff d2		 call	 edx

; 777  : 
; 778  : 		return false;

  001bc	c6 85 43 ff ff
	ff 00		 mov	 BYTE PTR $T2[ebp], 0
  001c3	b8 00 00 00 00	 mov	 eax, $LN10@OnRequestM
  001c8	c3		 ret	 0

; 779  : 	}

  001c9	b8 00 00 00 00	 mov	 eax, __tryend$?OnRequestModifyRemarks@CDataBaseEngineSink@@IAE_NKPAXG@Z$1
  001ce	c3		 ret	 0
__tryend$?OnRequestModifyRemarks@CDataBaseEngineSink@@IAE_NKPAXG@Z$1:
  001cf	c7 45 fc ff ff
	ff ff		 mov	 DWORD PTR __$EHRec$[ebp+12], -1
  001d6	eb 0f		 jmp	 SHORT $LN9@OnRequestM
$LN10@OnRequestM:
  001d8	c7 45 fc ff ff
	ff ff		 mov	 DWORD PTR __$EHRec$[ebp+12], -1

; 777  : 
; 778  : 		return false;

  001df	8a 85 43 ff ff
	ff		 mov	 al, BYTE PTR $T2[ebp]
  001e5	eb 02		 jmp	 SHORT $LN1@OnRequestM
$LN9@OnRequestM:

; 780  : 
; 781  : 	return true;

  001e7	b0 01		 mov	 al, 1
$LN1@OnRequestM:

; 782  : }

  001e9	8b 4d f4	 mov	 ecx, DWORD PTR __$EHRec$[ebp+4]
  001ec	64 89 0d 00 00
	00 00		 mov	 DWORD PTR fs:0, ecx
  001f3	59		 pop	 ecx
  001f4	5f		 pop	 edi
  001f5	5e		 pop	 esi
  001f6	5b		 pop	 ebx
  001f7	8b 4d ec	 mov	 ecx, DWORD PTR __$ArrayPad$[ebp]
  001fa	33 cd		 xor	 ecx, ebp
  001fc	e8 00 00 00 00	 call	 @__security_check_cookie@4
  00201	8b e5		 mov	 esp, ebp
  00203	5d		 pop	 ebp
  00204	c2 0c 00	 ret	 12			; 0000000cH
_TEXT	ENDS
;	COMDAT text$x
text$x	SEGMENT
__ehhandler$?OnRequestModifyRemarks@CDataBaseEngineSink@@IAE_NKPAXG@Z:
  00000	8b 54 24 08	 mov	 edx, DWORD PTR [esp+8]
  00004	8d 42 0c	 lea	 eax, DWORD PTR [edx+12]
  00007	8b 8a 38 ff ff
	ff		 mov	 ecx, DWORD PTR [edx-200]
  0000d	33 c8		 xor	 ecx, eax
  0000f	e8 00 00 00 00	 call	 @__security_check_cookie@4
  00014	8b 4a f8	 mov	 ecx, DWORD PTR [edx-8]
  00017	33 c8		 xor	 ecx, eax
  00019	e8 00 00 00 00	 call	 @__security_check_cookie@4
  0001e	b8 00 00 00 00	 mov	 eax, OFFSET __ehfuncinfo$?OnRequestModifyRemarks@CDataBaseEngineSink@@IAE_NKPAXG@Z
  00023	e9 00 00 00 00	 jmp	 ___CxxFrameHandler3
text$x	ENDS
?OnRequestModifyRemarks@CDataBaseEngineSink@@IAE_NKPAXG@Z ENDP ; CDataBaseEngineSink::OnRequestModifyRemarks
; Function compile flags: /Odtp /ZI
; File g:\网狐\happygamewh\服务端\系统模块\服务器组件\聊天服务器\databaseenginesink.cpp
;	COMDAT ?OnRequestModifyGroup@CDataBaseEngineSink@@IAE_NKPAXG@Z
_TEXT	SEGMENT
tv182 = -800						; size = 4
tv249 = -796						; size = 4
tv247 = -796						; size = 4
tv172 = -796						; size = 4
tv155 = -796						; size = 4
tv250 = -790						; size = 1
$T2 = -789						; size = 1
$T3 = -788						; size = 132
_ModifyGroup$4 = -528					; size = 172
_pIException$5 = -356					; size = 4
_wSize$6 = -352						; size = 2
_DBVarValue$7 = -348					; size = 16
_ModifyGroup$8 = -332					; size = 172
_lResultCode$9 = -160					; size = 4
_szDescribeString$10 = -156				; size = 128
_pModifyGroup$ = -28					; size = 4
_this$ = -24						; size = 4
__$ArrayPad$ = -20					; size = 4
__$EHRec$ = -16						; size = 16
_dwContextID$ = 8					; size = 4
_pData$ = 12						; size = 4
_wDataSize$ = 16					; size = 2
?OnRequestModifyGroup@CDataBaseEngineSink@@IAE_NKPAXG@Z PROC ; CDataBaseEngineSink::OnRequestModifyGroup, COMDAT
; _this$ = ecx

; 659  : {

  00000	55		 push	 ebp
  00001	8b ec		 mov	 ebp, esp
  00003	6a ff		 push	 -1
  00005	68 00 00 00 00	 push	 __ehhandler$?OnRequestModifyGroup@CDataBaseEngineSink@@IAE_NKPAXG@Z
  0000a	64 a1 00 00 00
	00		 mov	 eax, DWORD PTR fs:0
  00010	50		 push	 eax
  00011	51		 push	 ecx
  00012	81 ec 10 03 00
	00		 sub	 esp, 784		; 00000310H
  00018	a1 00 00 00 00	 mov	 eax, DWORD PTR ___security_cookie
  0001d	33 c5		 xor	 eax, ebp
  0001f	89 45 ec	 mov	 DWORD PTR __$ArrayPad$[ebp], eax
  00022	53		 push	 ebx
  00023	56		 push	 esi
  00024	57		 push	 edi
  00025	50		 push	 eax
  00026	8d 45 f4	 lea	 eax, DWORD PTR __$EHRec$[ebp+4]
  00029	64 a3 00 00 00
	00		 mov	 DWORD PTR fs:0, eax
  0002f	89 65 f0	 mov	 DWORD PTR __$EHRec$[ebp], esp
  00032	89 4d e8	 mov	 DWORD PTR _this$[ebp], ecx

; 660  : 	//提取变量
; 661  : 	DBR_GR_ModifyGroup * pModifyGroup=(DBR_GR_ModifyGroup * )pData;

  00035	8b 45 0c	 mov	 eax, DWORD PTR _pData$[ebp]
  00038	89 45 e4	 mov	 DWORD PTR _pModifyGroup$[ebp], eax

; 662  : 	ASSERT(pModifyGroup!=NULL);

  0003b	83 7d e4 00	 cmp	 DWORD PTR _pModifyGroup$[ebp], 0
  0003f	75 18		 jne	 SHORT $LN6@OnRequestM
  00041	a1 00 00 00 00	 mov	 eax, DWORD PTR ?__LINE__Var@?0??OnRequestModifyGroup@CDataBaseEngineSink@@IAE_NKPAXG@Z@4JA
  00046	83 c0 03	 add	 eax, 3
  00049	50		 push	 eax
  0004a	68 00 00 00 00	 push	 OFFSET ?THIS_FILE@@3PADA
  0004f	e8 00 00 00 00	 call	 ?AfxAssertFailedLine@@YGHPBDH@Z ; AfxAssertFailedLine
  00054	85 c0		 test	 eax, eax
  00056	74 01		 je	 SHORT $LN6@OnRequestM
  00058	cc		 int	 3
$LN6@OnRequestM:

; 663  : 
; 664  : 	try

  00059	c7 45 fc 00 00
	00 00		 mov	 DWORD PTR __$EHRec$[ebp+12], 0

; 665  : 	{
; 666  : 		//执行查询
; 667  : 		m_AccountsDBAide.ResetParameter();

  00060	8b 4d e8	 mov	 ecx, DWORD PTR _this$[ebp]
  00063	83 c1 04	 add	 ecx, 4
  00066	ff 15 00 00 00
	00		 call	 DWORD PTR __imp_?ResetParameter@CDataBaseAide@@QAEXXZ

; 668  : 		m_AccountsDBAide.AddParameter(TEXT("@dwUserID"),pModifyGroup->dwUserID);

  0006c	6a 01		 push	 1
  0006e	8b 45 e4	 mov	 eax, DWORD PTR _pModifyGroup$[ebp]
  00071	8b 08		 mov	 ecx, DWORD PTR [eax]
  00073	51		 push	 ecx
  00074	68 00 00 00 00	 push	 OFFSET ??_C@_09KCDEMNBD@?$EAdwUserID@
  00079	8b 4d e8	 mov	 ecx, DWORD PTR _this$[ebp]
  0007c	83 c1 04	 add	 ecx, 4
  0007f	ff 15 00 00 00
	00		 call	 DWORD PTR __imp_?AddParameter@CDataBaseAide@@QAEXPBDKW4ParameterDirectionEnum@ADOCG@@@Z

; 669  : 		m_AccountsDBAide.AddParameter(TEXT("@strPassword"),pModifyGroup->szPassword);

  00085	6a 01		 push	 1
  00087	8b 45 e4	 mov	 eax, DWORD PTR _pModifyGroup$[ebp]
  0008a	83 c0 04	 add	 eax, 4
  0008d	50		 push	 eax
  0008e	68 00 00 00 00	 push	 OFFSET ??_C@_0N@OCODJCJL@?$EAstrPassword@
  00093	8b 4d e8	 mov	 ecx, DWORD PTR _this$[ebp]
  00096	83 c1 04	 add	 ecx, 4
  00099	ff 15 00 00 00
	00		 call	 DWORD PTR __imp_?AddParameter@CDataBaseAide@@QAEXPBD0W4ParameterDirectionEnum@ADOCG@@@Z

; 670  : 		m_AccountsDBAide.AddParameter(TEXT("@cbGroupID"),pModifyGroup->cbGroupID);

  0009f	6a 01		 push	 1
  000a1	8b 45 e4	 mov	 eax, DWORD PTR _pModifyGroup$[ebp]
  000a4	0f b6 48 26	 movzx	 ecx, BYTE PTR [eax+38]
  000a8	51		 push	 ecx
  000a9	68 00 00 00 00	 push	 OFFSET ??_C@_0L@BKCLAFLJ@?$EAcbGroupID@
  000ae	8b 4d e8	 mov	 ecx, DWORD PTR _this$[ebp]
  000b1	83 c1 04	 add	 ecx, 4
  000b4	ff 15 00 00 00
	00		 call	 DWORD PTR __imp_?AddParameter@CDataBaseAide@@QAEXPBDEW4ParameterDirectionEnum@ADOCG@@@Z

; 671  : 		m_AccountsDBAide.AddParameter(TEXT("@cbOperateKind"),pModifyGroup->cbOperateKind);

  000ba	6a 01		 push	 1
  000bc	8b 45 e4	 mov	 eax, DWORD PTR _pModifyGroup$[ebp]
  000bf	0f b6 48 25	 movzx	 ecx, BYTE PTR [eax+37]
  000c3	51		 push	 ecx
  000c4	68 00 00 00 00	 push	 OFFSET ??_C@_0P@FPAAEPDL@?$EAcbOperateKind@
  000c9	8b 4d e8	 mov	 ecx, DWORD PTR _this$[ebp]
  000cc	83 c1 04	 add	 ecx, 4
  000cf	ff 15 00 00 00
	00		 call	 DWORD PTR __imp_?AddParameter@CDataBaseAide@@QAEXPBDEW4ParameterDirectionEnum@ADOCG@@@Z

; 672  : 		m_AccountsDBAide.AddParameter(TEXT("@strGroupName"),pModifyGroup->szGroupName);

  000d5	6a 01		 push	 1
  000d7	8b 45 e4	 mov	 eax, DWORD PTR _pModifyGroup$[ebp]
  000da	83 c0 27	 add	 eax, 39			; 00000027H
  000dd	50		 push	 eax
  000de	68 00 00 00 00	 push	 OFFSET ??_C@_0O@MLJHDGDF@?$EAstrGroupName@
  000e3	8b 4d e8	 mov	 ecx, DWORD PTR _this$[ebp]
  000e6	83 c1 04	 add	 ecx, 4
  000e9	ff 15 00 00 00
	00		 call	 DWORD PTR __imp_?AddParameter@CDataBaseAide@@QAEXPBD0W4ParameterDirectionEnum@ADOCG@@@Z

; 673  : 
; 674  : 		//变量定义
; 675  : 		TCHAR szDescribeString[128]=TEXT("");

  000ef	a0 00 00 00 00	 mov	 al, BYTE PTR ??_C@_00CNPNBAHC@@
  000f4	88 85 64 ff ff
	ff		 mov	 BYTE PTR _szDescribeString$10[ebp], al
  000fa	6a 7f		 push	 127			; 0000007fH
  000fc	6a 00		 push	 0
  000fe	8d 85 65 ff ff
	ff		 lea	 eax, DWORD PTR _szDescribeString$10[ebp+1]
  00104	50		 push	 eax
  00105	e8 00 00 00 00	 call	 _memset
  0010a	83 c4 0c	 add	 esp, 12			; 0000000cH

; 676  : 		m_AccountsDBAide.AddParameterOutput(TEXT("@strErrorDescribe"),szDescribeString,sizeof(szDescribeString),adParamOutput);

  0010d	6a 02		 push	 2
  0010f	68 80 00 00 00	 push	 128			; 00000080H
  00114	8d 85 64 ff ff
	ff		 lea	 eax, DWORD PTR _szDescribeString$10[ebp]
  0011a	50		 push	 eax
  0011b	68 00 00 00 00	 push	 OFFSET ??_C@_0BC@IIOJPJPJ@?$EAstrErrorDescribe@
  00120	8b 4d e8	 mov	 ecx, DWORD PTR _this$[ebp]
  00123	83 c1 04	 add	 ecx, 4
  00126	ff 15 00 00 00
	00		 call	 DWORD PTR __imp_?AddParameterOutput@CDataBaseAide@@QAEXPBDPADIW4ParameterDirectionEnum@ADOCG@@@Z

; 677  : 
; 678  : 		//执行查询
; 679  : 		LONG lResultCode=m_AccountsDBAide.ExecuteProcess(TEXT("GSP_GP_ModifyUserGroup"),true);

  0012c	6a 01		 push	 1
  0012e	68 00 00 00 00	 push	 OFFSET ??_C@_0BH@DILBBJMO@GSP_GP_ModifyUserGroup@
  00133	8b 4d e8	 mov	 ecx, DWORD PTR _this$[ebp]
  00136	83 c1 04	 add	 ecx, 4
  00139	ff 15 00 00 00
	00		 call	 DWORD PTR __imp_?ExecuteProcess@CDataBaseAide@@QAEJPBD_N@Z
  0013f	89 85 e4 fc ff
	ff		 mov	 DWORD PTR tv249[ebp], eax
  00145	8b 85 e4 fc ff
	ff		 mov	 eax, DWORD PTR tv249[ebp]
  0014b	89 85 60 ff ff
	ff		 mov	 DWORD PTR _lResultCode$9[ebp], eax

; 680  : 
; 681  : 		//变量定义
; 682  : 		DBO_GR_ModifyGroup	ModifyGroup;
; 683  : 		ModifyGroup.bSuccessed=lResultCode==DB_SUCCESS;

  00151	83 bd 60 ff ff
	ff 00		 cmp	 DWORD PTR _lResultCode$9[ebp], 0
  00158	75 0c		 jne	 SHORT $LN7@OnRequestM
  0015a	c7 85 e4 fc ff
	ff 01 00 00 00	 mov	 DWORD PTR tv155[ebp], 1
  00164	eb 0a		 jmp	 SHORT $LN8@OnRequestM
$LN7@OnRequestM:
  00166	c7 85 e4 fc ff
	ff 00 00 00 00	 mov	 DWORD PTR tv155[ebp], 0
$LN8@OnRequestM:
  00170	8a 85 e4 fc ff
	ff		 mov	 al, BYTE PTR tv155[ebp]
  00176	88 85 b8 fe ff
	ff		 mov	 BYTE PTR _ModifyGroup$8[ebp+4], al

; 684  : 		ModifyGroup.dwUserID=pModifyGroup->dwUserID;

  0017c	8b 45 e4	 mov	 eax, DWORD PTR _pModifyGroup$[ebp]
  0017f	8b 08		 mov	 ecx, DWORD PTR [eax]
  00181	89 8d b4 fe ff
	ff		 mov	 DWORD PTR _ModifyGroup$8[ebp], ecx

; 685  : 		ModifyGroup.cbOperateKind = pModifyGroup->cbOperateKind;

  00187	8b 45 e4	 mov	 eax, DWORD PTR _pModifyGroup$[ebp]
  0018a	8a 48 25	 mov	 cl, BYTE PTR [eax+37]
  0018d	88 8d b9 fe ff
	ff		 mov	 BYTE PTR _ModifyGroup$8[ebp+5], cl

; 686  : 		ModifyGroup.lErrorCode=lResultCode;

  00193	8b 85 60 ff ff
	ff		 mov	 eax, DWORD PTR _lResultCode$9[ebp]
  00199	89 85 dc fe ff
	ff		 mov	 DWORD PTR _ModifyGroup$8[ebp+40], eax

; 687  : 		lstrcpyn(ModifyGroup.szGroupName,pModifyGroup->szGroupName,CountArray(ModifyGroup.szGroupName));

  0019f	6a 20		 push	 32			; 00000020H
  001a1	8b 45 e4	 mov	 eax, DWORD PTR _pModifyGroup$[ebp]
  001a4	83 c0 27	 add	 eax, 39			; 00000027H
  001a7	50		 push	 eax
  001a8	8d 8d bb fe ff
	ff		 lea	 ecx, DWORD PTR _ModifyGroup$8[ebp+7]
  001ae	51		 push	 ecx
  001af	ff 15 00 00 00
	00		 call	 DWORD PTR __imp__lstrcpynA@12

; 688  : 
; 689  : 		//结果判断
; 690  : 		if(lResultCode==DB_SUCCESS)

  001b5	83 bd 60 ff ff
	ff 00		 cmp	 DWORD PTR _lResultCode$9[ebp], 0
  001bc	75 38		 jne	 SHORT $LN3@OnRequestM

; 691  : 		{			
; 692  : 			ModifyGroup.cbGroupID =m_AccountsDBAide.GetValue_BYTE(TEXT("GroupID"));			

  001be	68 00 00 00 00	 push	 OFFSET ??_C@_07IKIDGEIC@GroupID@
  001c3	8b 4d e8	 mov	 ecx, DWORD PTR _this$[ebp]
  001c6	83 c1 04	 add	 ecx, 4
  001c9	ff 15 00 00 00
	00		 call	 DWORD PTR __imp_?GetValue_BYTE@CDataBaseAide@@QAEEPBD@Z
  001cf	88 85 ea fc ff
	ff		 mov	 BYTE PTR tv250[ebp], al
  001d5	8a 85 ea fc ff
	ff		 mov	 al, BYTE PTR tv250[ebp]
  001db	88 85 ba fe ff
	ff		 mov	 BYTE PTR _ModifyGroup$8[ebp+6], al

; 693  : 			ModifyGroup.szDescribeString[0]=0;

  001e1	b8 01 00 00 00	 mov	 eax, 1
  001e6	6b c8 00	 imul	 ecx, eax, 0
  001e9	c6 84 0d e0 fe
	ff ff 00	 mov	 BYTE PTR _ModifyGroup$8[ebp+ecx+44], 0

; 694  : 		}
; 695  : 		else

  001f1	e9 a7 00 00 00	 jmp	 $LN4@OnRequestM
$LN3@OnRequestM:

; 696  : 		{			
; 697  : 			ModifyGroup.cbGroupID =pModifyGroup->cbGroupID;

  001f6	8b 45 e4	 mov	 eax, DWORD PTR _pModifyGroup$[ebp]
  001f9	8a 48 26	 mov	 cl, BYTE PTR [eax+38]
  001fc	88 8d ba fe ff
	ff		 mov	 BYTE PTR _ModifyGroup$8[ebp+6], cl

; 698  : 
; 699  : 			//变量定义
; 700  : 			CDBVarValue DBVarValue;

  00202	8d 8d a4 fe ff
	ff		 lea	 ecx, DWORD PTR _DBVarValue$7[ebp]
  00208	e8 00 00 00 00	 call	 ??0_variant_t@@QAE@XZ	; _variant_t::_variant_t
  0020d	c6 45 fc 01	 mov	 BYTE PTR __$EHRec$[ebp+12], 1

; 701  : 			m_AccountsDBModule->GetParameter(TEXT("@strErrorDescribe"),DBVarValue);

  00211	8b 4d e8	 mov	 ecx, DWORD PTR _this$[ebp]
  00214	83 c1 0c	 add	 ecx, 12			; 0000000cH
  00217	e8 00 00 00 00	 call	 ??C?$CTempldateHelper@UIDataBase@@@@QBEPAUIDataBase@@XZ ; CTempldateHelper<IDataBase>::operator->
  0021c	89 85 e4 fc ff
	ff		 mov	 DWORD PTR tv172[ebp], eax
  00222	8b 85 e4 fc ff
	ff		 mov	 eax, DWORD PTR tv172[ebp]
  00228	89 85 e0 fc ff
	ff		 mov	 DWORD PTR tv182[ebp], eax
  0022e	8d 8d a4 fe ff
	ff		 lea	 ecx, DWORD PTR _DBVarValue$7[ebp]
  00234	51		 push	 ecx
  00235	68 00 00 00 00	 push	 OFFSET ??_C@_0BC@IIOJPJPJ@?$EAstrErrorDescribe@
  0023a	8b 95 e0 fc ff
	ff		 mov	 edx, DWORD PTR tv182[ebp]
  00240	8b 02		 mov	 eax, DWORD PTR [edx]
  00242	8b 8d e0 fc ff
	ff		 mov	 ecx, DWORD PTR tv182[ebp]
  00248	8b 50 1c	 mov	 edx, DWORD PTR [eax+28]
  0024b	ff d2		 call	 edx

; 702  : 			lstrcpyn(ModifyGroup.szDescribeString,CW2CT(DBVarValue.bstrVal),CountArray(ModifyGroup.szDescribeString));

  0024d	8b 85 ac fe ff
	ff		 mov	 eax, DWORD PTR _DBVarValue$7[ebp+8]
  00253	50		 push	 eax
  00254	8d 8d ec fc ff
	ff		 lea	 ecx, DWORD PTR $T3[ebp]
  0025a	e8 00 00 00 00	 call	 ??0?$CW2AEX@$0IA@@ATL@@QAE@PB_W@Z ; ATL::CW2AEX<128>::CW2AEX<128>
  0025f	89 85 e4 fc ff
	ff		 mov	 DWORD PTR tv247[ebp], eax
  00265	68 80 00 00 00	 push	 128			; 00000080H
  0026a	8b 8d e4 fc ff
	ff		 mov	 ecx, DWORD PTR tv247[ebp]
  00270	e8 00 00 00 00	 call	 ??B?$CW2AEX@$0IA@@ATL@@QBEPADXZ ; ATL::CW2AEX<128>::operator char *
  00275	50		 push	 eax
  00276	8d 8d e0 fe ff
	ff		 lea	 ecx, DWORD PTR _ModifyGroup$8[ebp+44]
  0027c	51		 push	 ecx
  0027d	ff 15 00 00 00
	00		 call	 DWORD PTR __imp__lstrcpynA@12
  00283	8d 8d ec fc ff
	ff		 lea	 ecx, DWORD PTR $T3[ebp]
  00289	e8 00 00 00 00	 call	 ??1?$CW2AEX@$0IA@@ATL@@QAE@XZ ; ATL::CW2AEX<128>::~CW2AEX<128>

; 703  : 		}

  0028e	c6 45 fc 00	 mov	 BYTE PTR __$EHRec$[ebp+12], 0
  00292	8d 8d a4 fe ff
	ff		 lea	 ecx, DWORD PTR _DBVarValue$7[ebp]
  00298	e8 00 00 00 00	 call	 ??1_variant_t@@QAE@XZ	; _variant_t::~_variant_t
$LN4@OnRequestM:

; 704  : 
; 705  : 		//投递数据
; 706  : 		WORD wSize = sizeof(ModifyGroup)-sizeof(ModifyGroup.szDescribeString)+CountStringBuffer(ModifyGroup.szDescribeString);

  0029d	8d 85 e0 fe ff
	ff		 lea	 eax, DWORD PTR _ModifyGroup$8[ebp+44]
  002a3	50		 push	 eax
  002a4	ff 15 00 00 00
	00		 call	 DWORD PTR __imp__lstrlenA@4
  002aa	83 c0 2d	 add	 eax, 45			; 0000002dH
  002ad	66 89 85 a0 fe
	ff ff		 mov	 WORD PTR _wSize$6[ebp], ax

; 707  : 		m_pIDataBaseEngineEvent->OnEventDataBaseResult(DBO_GR_MODIFY_GROUP,dwContextID,&ModifyGroup,wSize);

  002b4	0f b7 85 a0 fe
	ff ff		 movzx	 eax, WORD PTR _wSize$6[ebp]
  002bb	50		 push	 eax
  002bc	8d 8d b4 fe ff
	ff		 lea	 ecx, DWORD PTR _ModifyGroup$8[ebp]
  002c2	51		 push	 ecx
  002c3	8b 55 08	 mov	 edx, DWORD PTR _dwContextID$[ebp]
  002c6	52		 push	 edx
  002c7	68 94 01 00 00	 push	 404			; 00000194H
  002cc	8b 45 e8	 mov	 eax, DWORD PTR _this$[ebp]
  002cf	8b 4d e8	 mov	 ecx, DWORD PTR _this$[ebp]
  002d2	8b 91 a8 05 00
	00		 mov	 edx, DWORD PTR [ecx+1448]
  002d8	8b 12		 mov	 edx, DWORD PTR [edx]
  002da	8b 88 a8 05 00
	00		 mov	 ecx, DWORD PTR [eax+1448]
  002e0	8b 42 08	 mov	 eax, DWORD PTR [edx+8]
  002e3	ff d0		 call	 eax

; 708  : 
; 709  : 		return true;

  002e5	b0 01		 mov	 al, 1
  002e7	e9 c5 00 00 00	 jmp	 $LN1@OnRequestM
__catch$?OnRequestModifyGroup@CDataBaseEngineSink@@IAE_NKPAXG@Z$0:

; 710  : 	}
; 711  : 	catch (IDataBaseException * pIException)
; 712  : 	{
; 713  : 		//输出错误
; 714  : 		CTraceService::TraceString(pIException->GetExceptionDescribe(),TraceLevel_Exception);

  002ec	6a 03		 push	 3
  002ee	8b 85 9c fe ff
	ff		 mov	 eax, DWORD PTR _pIException$5[ebp]
  002f4	8b 10		 mov	 edx, DWORD PTR [eax]
  002f6	8b 8d 9c fe ff
	ff		 mov	 ecx, DWORD PTR _pIException$5[ebp]
  002fc	8b 42 0c	 mov	 eax, DWORD PTR [edx+12]
  002ff	ff d0		 call	 eax
  00301	50		 push	 eax
  00302	ff 15 00 00 00
	00		 call	 DWORD PTR __imp_?TraceString@CTraceService@@SA_NPBDW4enTraceLevel@@@Z
  00308	83 c4 08	 add	 esp, 8

; 715  : 
; 716  : 		//变量定义
; 717  : 		DBO_GR_ModifyGroup	ModifyGroup;
; 718  : 		ModifyGroup.bSuccessed=false;

  0030b	c6 85 f4 fd ff
	ff 00		 mov	 BYTE PTR _ModifyGroup$4[ebp+4], 0

; 719  : 		ModifyGroup.dwUserID=pModifyGroup->dwUserID;

  00312	8b 45 e4	 mov	 eax, DWORD PTR _pModifyGroup$[ebp]
  00315	8b 08		 mov	 ecx, DWORD PTR [eax]
  00317	89 8d f0 fd ff
	ff		 mov	 DWORD PTR _ModifyGroup$4[ebp], ecx

; 720  : 		ModifyGroup.cbOperateKind = pModifyGroup->cbOperateKind;

  0031d	8b 45 e4	 mov	 eax, DWORD PTR _pModifyGroup$[ebp]
  00320	8a 48 25	 mov	 cl, BYTE PTR [eax+37]
  00323	88 8d f5 fd ff
	ff		 mov	 BYTE PTR _ModifyGroup$4[ebp+5], cl

; 721  : 		ModifyGroup.cbGroupID =m_AccountsDBAide.GetValue_BYTE(TEXT("GroupID"));

  00329	68 00 00 00 00	 push	 OFFSET ??_C@_07IKIDGEIC@GroupID@
  0032e	8b 4d e8	 mov	 ecx, DWORD PTR _this$[ebp]
  00331	83 c1 04	 add	 ecx, 4
  00334	ff 15 00 00 00
	00		 call	 DWORD PTR __imp_?GetValue_BYTE@CDataBaseAide@@QAEEPBD@Z
  0033a	88 85 f6 fd ff
	ff		 mov	 BYTE PTR _ModifyGroup$4[ebp+6], al

; 722  : 		lstrcpyn(ModifyGroup.szGroupName,pModifyGroup->szGroupName,CountArray(ModifyGroup.szGroupName));

  00340	6a 20		 push	 32			; 00000020H
  00342	8b 45 e4	 mov	 eax, DWORD PTR _pModifyGroup$[ebp]
  00345	83 c0 27	 add	 eax, 39			; 00000027H
  00348	50		 push	 eax
  00349	8d 8d f7 fd ff
	ff		 lea	 ecx, DWORD PTR _ModifyGroup$4[ebp+7]
  0034f	51		 push	 ecx
  00350	ff 15 00 00 00
	00		 call	 DWORD PTR __imp__lstrcpynA@12

; 723  : 
; 724  : 		//投递数据
; 725  : 		m_pIDataBaseEngineEvent->OnEventDataBaseResult(DBO_GR_MODIFY_GROUP,dwContextID,&ModifyGroup,sizeof(ModifyGroup));

  00356	68 ac 00 00 00	 push	 172			; 000000acH
  0035b	8d 85 f0 fd ff
	ff		 lea	 eax, DWORD PTR _ModifyGroup$4[ebp]
  00361	50		 push	 eax
  00362	8b 4d 08	 mov	 ecx, DWORD PTR _dwContextID$[ebp]
  00365	51		 push	 ecx
  00366	68 94 01 00 00	 push	 404			; 00000194H
  0036b	8b 55 e8	 mov	 edx, DWORD PTR _this$[ebp]
  0036e	8b 45 e8	 mov	 eax, DWORD PTR _this$[ebp]
  00371	8b 88 a8 05 00
	00		 mov	 ecx, DWORD PTR [eax+1448]
  00377	8b 01		 mov	 eax, DWORD PTR [ecx]
  00379	8b 8a a8 05 00
	00		 mov	 ecx, DWORD PTR [edx+1448]
  0037f	8b 50 08	 mov	 edx, DWORD PTR [eax+8]
  00382	ff d2		 call	 edx

; 726  : 
; 727  : 		return false;

  00384	c6 85 eb fc ff
	ff 00		 mov	 BYTE PTR $T2[ebp], 0
  0038b	b8 00 00 00 00	 mov	 eax, $LN14@OnRequestM
  00390	c3		 ret	 0

; 728  : 	}

  00391	b8 00 00 00 00	 mov	 eax, __tryend$?OnRequestModifyGroup@CDataBaseEngineSink@@IAE_NKPAXG@Z$1
  00396	c3		 ret	 0
__tryend$?OnRequestModifyGroup@CDataBaseEngineSink@@IAE_NKPAXG@Z$1:
  00397	c7 45 fc ff ff
	ff ff		 mov	 DWORD PTR __$EHRec$[ebp+12], -1
  0039e	eb 0f		 jmp	 SHORT $LN13@OnRequestM
$LN14@OnRequestM:
  003a0	c7 45 fc ff ff
	ff ff		 mov	 DWORD PTR __$EHRec$[ebp+12], -1

; 726  : 
; 727  : 		return false;

  003a7	8a 85 eb fc ff
	ff		 mov	 al, BYTE PTR $T2[ebp]
  003ad	eb 02		 jmp	 SHORT $LN1@OnRequestM
$LN13@OnRequestM:

; 729  : 
; 730  : 	return true;

  003af	b0 01		 mov	 al, 1
$LN1@OnRequestM:

; 731  : }

  003b1	8b 4d f4	 mov	 ecx, DWORD PTR __$EHRec$[ebp+4]
  003b4	64 89 0d 00 00
	00 00		 mov	 DWORD PTR fs:0, ecx
  003bb	59		 pop	 ecx
  003bc	5f		 pop	 edi
  003bd	5e		 pop	 esi
  003be	5b		 pop	 ebx
  003bf	8b 4d ec	 mov	 ecx, DWORD PTR __$ArrayPad$[ebp]
  003c2	33 cd		 xor	 ecx, ebp
  003c4	e8 00 00 00 00	 call	 @__security_check_cookie@4
  003c9	8b e5		 mov	 esp, ebp
  003cb	5d		 pop	 ebp
  003cc	c2 0c 00	 ret	 12			; 0000000cH
_TEXT	ENDS
;	COMDAT text$x
text$x	SEGMENT
__unwindfunclet$?OnRequestModifyGroup@CDataBaseEngineSink@@IAE_NKPAXG@Z$2:
  00000	8d 8d a4 fe ff
	ff		 lea	 ecx, DWORD PTR _DBVarValue$7[ebp]
  00006	e9 00 00 00 00	 jmp	 ??1_variant_t@@QAE@XZ	; _variant_t::~_variant_t
__ehhandler$?OnRequestModifyGroup@CDataBaseEngineSink@@IAE_NKPAXG@Z:
  0000b	8b 54 24 08	 mov	 edx, DWORD PTR [esp+8]
  0000f	8d 42 0c	 lea	 eax, DWORD PTR [edx+12]
  00012	8b 8a dc fc ff
	ff		 mov	 ecx, DWORD PTR [edx-804]
  00018	33 c8		 xor	 ecx, eax
  0001a	e8 00 00 00 00	 call	 @__security_check_cookie@4
  0001f	8b 4a f8	 mov	 ecx, DWORD PTR [edx-8]
  00022	33 c8		 xor	 ecx, eax
  00024	e8 00 00 00 00	 call	 @__security_check_cookie@4
  00029	b8 00 00 00 00	 mov	 eax, OFFSET __ehfuncinfo$?OnRequestModifyGroup@CDataBaseEngineSink@@IAE_NKPAXG@Z
  0002e	e9 00 00 00 00	 jmp	 ___CxxFrameHandler3
text$x	ENDS
?OnRequestModifyGroup@CDataBaseEngineSink@@IAE_NKPAXG@Z ENDP ; CDataBaseEngineSink::OnRequestModifyGroup
; Function compile flags: /Odtp /ZI
; File g:\网狐\happygamewh\服务端\系统模块\服务器组件\聊天服务器\databaseenginesink.cpp
;	COMDAT ?OnRequestDeleteFriend@CDataBaseEngineSink@@IAE_NKPAXG@Z
_TEXT	SEGMENT
tv168 = -252						; size = 4
tv167 = -252						; size = 4
$T2 = -245						; size = 1
_pIException$3 = -180					; size = 4
_DeleteFriend$4 = -176					; size = 16
_lResultCode$5 = -160					; size = 4
_szDescribeString$6 = -156				; size = 128
_pDeleteFriend$7 = -28					; size = 4
_this$ = -24						; size = 4
__$ArrayPad$ = -20					; size = 4
__$EHRec$ = -16						; size = 16
_dwContextID$ = 8					; size = 4
_pData$ = 12						; size = 4
_wDataSize$ = 16					; size = 2
?OnRequestDeleteFriend@CDataBaseEngineSink@@IAE_NKPAXG@Z PROC ; CDataBaseEngineSink::OnRequestDeleteFriend, COMDAT
; _this$ = ecx

; 609  : {

  00000	55		 push	 ebp
  00001	8b ec		 mov	 ebp, esp
  00003	6a ff		 push	 -1
  00005	68 00 00 00 00	 push	 __ehhandler$?OnRequestDeleteFriend@CDataBaseEngineSink@@IAE_NKPAXG@Z
  0000a	64 a1 00 00 00
	00		 mov	 eax, DWORD PTR fs:0
  00010	50		 push	 eax
  00011	51		 push	 ecx
  00012	81 ec ec 00 00
	00		 sub	 esp, 236		; 000000ecH
  00018	a1 00 00 00 00	 mov	 eax, DWORD PTR ___security_cookie
  0001d	33 c5		 xor	 eax, ebp
  0001f	89 45 ec	 mov	 DWORD PTR __$ArrayPad$[ebp], eax
  00022	53		 push	 ebx
  00023	56		 push	 esi
  00024	57		 push	 edi
  00025	50		 push	 eax
  00026	8d 45 f4	 lea	 eax, DWORD PTR __$EHRec$[ebp+4]
  00029	64 a3 00 00 00
	00		 mov	 DWORD PTR fs:0, eax
  0002f	89 65 f0	 mov	 DWORD PTR __$EHRec$[ebp], esp
  00032	89 4d e8	 mov	 DWORD PTR _this$[ebp], ecx

; 610  : 	try

  00035	c7 45 fc 00 00
	00 00		 mov	 DWORD PTR __$EHRec$[ebp+12], 0

; 611  : 	{
; 612  : 		//提取变量
; 613  : 		DBR_GR_DeleteFriend * pDeleteFriend=(DBR_GR_DeleteFriend * )pData;

  0003c	8b 45 0c	 mov	 eax, DWORD PTR _pData$[ebp]
  0003f	89 45 e4	 mov	 DWORD PTR _pDeleteFriend$7[ebp], eax

; 614  : 		ASSERT(pDeleteFriend!=NULL);

  00042	83 7d e4 00	 cmp	 DWORD PTR _pDeleteFriend$7[ebp], 0
  00046	75 23		 jne	 SHORT $LN5@OnRequestD
  00048	a1 00 00 00 00	 mov	 eax, DWORD PTR ?__LINE__Var@?0??OnRequestDeleteFriend@CDataBaseEngineSink@@IAE_NKPAXG@Z@4JA
  0004d	83 c0 05	 add	 eax, 5
  00050	50		 push	 eax
  00051	68 00 00 00 00	 push	 OFFSET ?THIS_FILE@@3PADA
  00056	e8 00 00 00 00	 call	 ?AfxAssertFailedLine@@YGHPBDH@Z ; AfxAssertFailedLine
  0005b	89 85 04 ff ff
	ff		 mov	 DWORD PTR tv167[ebp], eax
  00061	83 bd 04 ff ff
	ff 00		 cmp	 DWORD PTR tv167[ebp], 0
  00068	74 01		 je	 SHORT $LN5@OnRequestD
  0006a	cc		 int	 3
$LN5@OnRequestD:

; 615  : 
; 616  : 		//执行查询
; 617  : 		m_AccountsDBAide.ResetParameter();

  0006b	8b 4d e8	 mov	 ecx, DWORD PTR _this$[ebp]
  0006e	83 c1 04	 add	 ecx, 4
  00071	ff 15 00 00 00
	00		 call	 DWORD PTR __imp_?ResetParameter@CDataBaseAide@@QAEXXZ

; 618  : 		m_AccountsDBAide.AddParameter(TEXT("@dwUserID"),pDeleteFriend->dwUserID);

  00077	6a 01		 push	 1
  00079	8b 45 e4	 mov	 eax, DWORD PTR _pDeleteFriend$7[ebp]
  0007c	8b 08		 mov	 ecx, DWORD PTR [eax]
  0007e	51		 push	 ecx
  0007f	68 00 00 00 00	 push	 OFFSET ??_C@_09KCDEMNBD@?$EAdwUserID@
  00084	8b 4d e8	 mov	 ecx, DWORD PTR _this$[ebp]
  00087	83 c1 04	 add	 ecx, 4
  0008a	ff 15 00 00 00
	00		 call	 DWORD PTR __imp_?AddParameter@CDataBaseAide@@QAEXPBDKW4ParameterDirectionEnum@ADOCG@@@Z

; 619  : 		m_AccountsDBAide.AddParameter(TEXT("@dwFriendUserID"),pDeleteFriend->dwFriendUserID);

  00090	6a 01		 push	 1
  00092	8b 45 e4	 mov	 eax, DWORD PTR _pDeleteFriend$7[ebp]
  00095	8b 48 04	 mov	 ecx, DWORD PTR [eax+4]
  00098	51		 push	 ecx
  00099	68 00 00 00 00	 push	 OFFSET ??_C@_0BA@PEHFKMKN@?$EAdwFriendUserID@
  0009e	8b 4d e8	 mov	 ecx, DWORD PTR _this$[ebp]
  000a1	83 c1 04	 add	 ecx, 4
  000a4	ff 15 00 00 00
	00		 call	 DWORD PTR __imp_?AddParameter@CDataBaseAide@@QAEXPBDKW4ParameterDirectionEnum@ADOCG@@@Z

; 620  : 		m_AccountsDBAide.AddParameter(TEXT("@cbGroupID"),pDeleteFriend->cbGroupID);

  000aa	6a 01		 push	 1
  000ac	8b 45 e4	 mov	 eax, DWORD PTR _pDeleteFriend$7[ebp]
  000af	0f b6 48 08	 movzx	 ecx, BYTE PTR [eax+8]
  000b3	51		 push	 ecx
  000b4	68 00 00 00 00	 push	 OFFSET ??_C@_0L@BKCLAFLJ@?$EAcbGroupID@
  000b9	8b 4d e8	 mov	 ecx, DWORD PTR _this$[ebp]
  000bc	83 c1 04	 add	 ecx, 4
  000bf	ff 15 00 00 00
	00		 call	 DWORD PTR __imp_?AddParameter@CDataBaseAide@@QAEXPBDEW4ParameterDirectionEnum@ADOCG@@@Z

; 621  : 
; 622  : 		//变量定义
; 623  : 		TCHAR szDescribeString[128]=TEXT("");

  000c5	a0 00 00 00 00	 mov	 al, BYTE PTR ??_C@_00CNPNBAHC@@
  000ca	88 85 64 ff ff
	ff		 mov	 BYTE PTR _szDescribeString$6[ebp], al
  000d0	6a 7f		 push	 127			; 0000007fH
  000d2	6a 00		 push	 0
  000d4	8d 85 65 ff ff
	ff		 lea	 eax, DWORD PTR _szDescribeString$6[ebp+1]
  000da	50		 push	 eax
  000db	e8 00 00 00 00	 call	 _memset
  000e0	83 c4 0c	 add	 esp, 12			; 0000000cH

; 624  : 		m_AccountsDBAide.AddParameterOutput(TEXT("@strErrorDescribe"),szDescribeString,sizeof(szDescribeString),adParamOutput);

  000e3	6a 02		 push	 2
  000e5	68 80 00 00 00	 push	 128			; 00000080H
  000ea	8d 85 64 ff ff
	ff		 lea	 eax, DWORD PTR _szDescribeString$6[ebp]
  000f0	50		 push	 eax
  000f1	68 00 00 00 00	 push	 OFFSET ??_C@_0BC@IIOJPJPJ@?$EAstrErrorDescribe@
  000f6	8b 4d e8	 mov	 ecx, DWORD PTR _this$[ebp]
  000f9	83 c1 04	 add	 ecx, 4
  000fc	ff 15 00 00 00
	00		 call	 DWORD PTR __imp_?AddParameterOutput@CDataBaseAide@@QAEXPBDPADIW4ParameterDirectionEnum@ADOCG@@@Z

; 625  : 
; 626  : 		//执行查询
; 627  : 		LONG lResultCode=m_AccountsDBAide.ExecuteProcess(TEXT("GSP_GP_DeleteUserFriend"),true);

  00102	6a 01		 push	 1
  00104	68 00 00 00 00	 push	 OFFSET ??_C@_0BI@LPNDAHEL@GSP_GP_DeleteUserFriend@
  00109	8b 4d e8	 mov	 ecx, DWORD PTR _this$[ebp]
  0010c	83 c1 04	 add	 ecx, 4
  0010f	ff 15 00 00 00
	00		 call	 DWORD PTR __imp_?ExecuteProcess@CDataBaseAide@@QAEJPBD_N@Z
  00115	89 85 04 ff ff
	ff		 mov	 DWORD PTR tv168[ebp], eax
  0011b	8b 85 04 ff ff
	ff		 mov	 eax, DWORD PTR tv168[ebp]
  00121	89 85 60 ff ff
	ff		 mov	 DWORD PTR _lResultCode$5[ebp], eax

; 628  : 
; 629  : 		//变量定义
; 630  : 		DBO_GR_DeleteFriend DeleteFriend;
; 631  : 		ZeroMemory(&DeleteFriend,sizeof(DeleteFriend));

  00127	6a 10		 push	 16			; 00000010H
  00129	6a 00		 push	 0
  0012b	8d 85 50 ff ff
	ff		 lea	 eax, DWORD PTR _DeleteFriend$4[ebp]
  00131	50		 push	 eax
  00132	e8 00 00 00 00	 call	 _memset
  00137	83 c4 0c	 add	 esp, 12			; 0000000cH

; 632  : 
; 633  : 		if(lResultCode==DB_SUCCESS)

  0013a	83 bd 60 ff ff
	ff 00		 cmp	 DWORD PTR _lResultCode$5[ebp], 0
  00141	75 2a		 jne	 SHORT $LN3@OnRequestD

; 634  : 		{
; 635  : 			DeleteFriend.dwUserID=pDeleteFriend->dwUserID;

  00143	8b 45 e4	 mov	 eax, DWORD PTR _pDeleteFriend$7[ebp]
  00146	8b 08		 mov	 ecx, DWORD PTR [eax]
  00148	89 8d 54 ff ff
	ff		 mov	 DWORD PTR _DeleteFriend$4[ebp+4], ecx

; 636  : 			DeleteFriend.dwFriendUserID=pDeleteFriend->dwFriendUserID;

  0014e	8b 45 e4	 mov	 eax, DWORD PTR _pDeleteFriend$7[ebp]
  00151	8b 48 04	 mov	 ecx, DWORD PTR [eax+4]
  00154	89 8d 58 ff ff
	ff		 mov	 DWORD PTR _DeleteFriend$4[ebp+8], ecx

; 637  : 			DeleteFriend.bSuccessed=true;

  0015a	c6 85 50 ff ff
	ff 01		 mov	 BYTE PTR _DeleteFriend$4[ebp], 1

; 638  : 			DeleteFriend.cbGroupID=pDeleteFriend->cbGroupID;

  00161	8b 45 e4	 mov	 eax, DWORD PTR _pDeleteFriend$7[ebp]
  00164	8a 48 08	 mov	 cl, BYTE PTR [eax+8]
  00167	88 8d 5c ff ff
	ff		 mov	 BYTE PTR _DeleteFriend$4[ebp+12], cl
$LN3@OnRequestD:

; 639  : 		}
; 640  : 
; 641  : 		//投递数据
; 642  : 		m_pIDataBaseEngineEvent->OnEventDataBaseResult(DBO_GR_DELETE_FRIEND,dwContextID,&DeleteFriend,sizeof(DeleteFriend));

  0016d	6a 10		 push	 16			; 00000010H
  0016f	8d 85 50 ff ff
	ff		 lea	 eax, DWORD PTR _DeleteFriend$4[ebp]
  00175	50		 push	 eax
  00176	8b 4d 08	 mov	 ecx, DWORD PTR _dwContextID$[ebp]
  00179	51		 push	 ecx
  0017a	68 9c 01 00 00	 push	 412			; 0000019cH
  0017f	8b 55 e8	 mov	 edx, DWORD PTR _this$[ebp]
  00182	8b 45 e8	 mov	 eax, DWORD PTR _this$[ebp]
  00185	8b 88 a8 05 00
	00		 mov	 ecx, DWORD PTR [eax+1448]
  0018b	8b 01		 mov	 eax, DWORD PTR [ecx]
  0018d	8b 8a a8 05 00
	00		 mov	 ecx, DWORD PTR [edx+1448]
  00193	8b 50 08	 mov	 edx, DWORD PTR [eax+8]
  00196	ff d2		 call	 edx

; 643  : 
; 644  : 		return true;

  00198	b0 01		 mov	 al, 1
  0019a	eb 4c		 jmp	 SHORT $LN1@OnRequestD
__catch$?OnRequestDeleteFriend@CDataBaseEngineSink@@IAE_NKPAXG@Z$0:

; 645  : 	}
; 646  : 	catch (IDataBaseException * pIException)
; 647  : 	{
; 648  : 		//输出错误
; 649  : 		CTraceService::TraceString(pIException->GetExceptionDescribe(),TraceLevel_Exception);

  0019c	6a 03		 push	 3
  0019e	8b 85 4c ff ff
	ff		 mov	 eax, DWORD PTR _pIException$3[ebp]
  001a4	8b 10		 mov	 edx, DWORD PTR [eax]
  001a6	8b 8d 4c ff ff
	ff		 mov	 ecx, DWORD PTR _pIException$3[ebp]
  001ac	8b 42 0c	 mov	 eax, DWORD PTR [edx+12]
  001af	ff d0		 call	 eax
  001b1	50		 push	 eax
  001b2	ff 15 00 00 00
	00		 call	 DWORD PTR __imp_?TraceString@CTraceService@@SA_NPBDW4enTraceLevel@@@Z
  001b8	83 c4 08	 add	 esp, 8

; 650  : 
; 651  : 		return false;

  001bb	c6 85 0b ff ff
	ff 00		 mov	 BYTE PTR $T2[ebp], 0
  001c2	b8 00 00 00 00	 mov	 eax, $LN9@OnRequestD
  001c7	c3		 ret	 0

; 652  : 	}

  001c8	b8 00 00 00 00	 mov	 eax, __tryend$?OnRequestDeleteFriend@CDataBaseEngineSink@@IAE_NKPAXG@Z$1
  001cd	c3		 ret	 0
__tryend$?OnRequestDeleteFriend@CDataBaseEngineSink@@IAE_NKPAXG@Z$1:
  001ce	c7 45 fc ff ff
	ff ff		 mov	 DWORD PTR __$EHRec$[ebp+12], -1
  001d5	eb 0f		 jmp	 SHORT $LN8@OnRequestD
$LN9@OnRequestD:
  001d7	c7 45 fc ff ff
	ff ff		 mov	 DWORD PTR __$EHRec$[ebp+12], -1

; 650  : 
; 651  : 		return false;

  001de	8a 85 0b ff ff
	ff		 mov	 al, BYTE PTR $T2[ebp]
  001e4	eb 02		 jmp	 SHORT $LN1@OnRequestD
$LN8@OnRequestD:

; 653  : 
; 654  : 	return true;

  001e6	b0 01		 mov	 al, 1
$LN1@OnRequestD:

; 655  : }

  001e8	8b 4d f4	 mov	 ecx, DWORD PTR __$EHRec$[ebp+4]
  001eb	64 89 0d 00 00
	00 00		 mov	 DWORD PTR fs:0, ecx
  001f2	59		 pop	 ecx
  001f3	5f		 pop	 edi
  001f4	5e		 pop	 esi
  001f5	5b		 pop	 ebx
  001f6	8b 4d ec	 mov	 ecx, DWORD PTR __$ArrayPad$[ebp]
  001f9	33 cd		 xor	 ecx, ebp
  001fb	e8 00 00 00 00	 call	 @__security_check_cookie@4
  00200	8b e5		 mov	 esp, ebp
  00202	5d		 pop	 ebp
  00203	c2 0c 00	 ret	 12			; 0000000cH
_TEXT	ENDS
;	COMDAT text$x
text$x	SEGMENT
__ehhandler$?OnRequestDeleteFriend@CDataBaseEngineSink@@IAE_NKPAXG@Z:
  00000	8b 54 24 08	 mov	 edx, DWORD PTR [esp+8]
  00004	8d 42 0c	 lea	 eax, DWORD PTR [edx+12]
  00007	8b 8a 00 ff ff
	ff		 mov	 ecx, DWORD PTR [edx-256]
  0000d	33 c8		 xor	 ecx, eax
  0000f	e8 00 00 00 00	 call	 @__security_check_cookie@4
  00014	8b 4a f8	 mov	 ecx, DWORD PTR [edx-8]
  00017	33 c8		 xor	 ecx, eax
  00019	e8 00 00 00 00	 call	 @__security_check_cookie@4
  0001e	b8 00 00 00 00	 mov	 eax, OFFSET __ehfuncinfo$?OnRequestDeleteFriend@CDataBaseEngineSink@@IAE_NKPAXG@Z
  00023	e9 00 00 00 00	 jmp	 ___CxxFrameHandler3
text$x	ENDS
?OnRequestDeleteFriend@CDataBaseEngineSink@@IAE_NKPAXG@Z ENDP ; CDataBaseEngineSink::OnRequestDeleteFriend
; Function compile flags: /Odtp /ZI
; File g:\网狐\happygamewh\服务端\系统模块\服务器组件\聊天服务器\databaseenginesink.cpp
;	COMDAT ?OnRequestAddFriend@CDataBaseEngineSink@@IAE_NKPAXG@Z
_TEXT	SEGMENT
tv284 = -165716						; size = 4
tv280 = -165716						; size = 4
tv279 = -165716						; size = 4
tv278 = -165716						; size = 4
tv287 = -165712						; size = 2
tv286 = -165712						; size = 2
tv285 = -165710						; size = 1
tv283 = -165710						; size = 1
tv282 = -165710						; size = 1
tv281 = -165710						; size = 1
$T2 = -165709						; size = 1
_pIException$3 = -165196				; size = 4
_wDataSize$4 = -165192					; size = 2
_UserFriendInfo$5 = -165188				; size = 165012
_AddFriend$6 = -176					; size = 16
_lResultCode$7 = -160					; size = 4
_szDescribeString$8 = -156				; size = 128
_pAddFriend$9 = -28					; size = 4
_this$ = -24						; size = 4
__$ArrayPad$ = -20					; size = 4
__$EHRec$ = -16						; size = 16
_dwContextID$ = 8					; size = 4
_pData$ = 12						; size = 4
_wDataSize$ = 16					; size = 2
?OnRequestAddFriend@CDataBaseEngineSink@@IAE_NKPAXG@Z PROC ; CDataBaseEngineSink::OnRequestAddFriend, COMDAT
; _this$ = ecx

; 530  : {

  00000	55		 push	 ebp
  00001	8b ec		 mov	 ebp, esp
  00003	6a ff		 push	 -1
  00005	68 00 00 00 00	 push	 __ehhandler$?OnRequestAddFriend@CDataBaseEngineSink@@IAE_NKPAXG@Z
  0000a	64 a1 00 00 00
	00		 mov	 eax, DWORD PTR fs:0
  00010	50		 push	 eax
  00011	51		 push	 ecx
  00012	b8 44 87 02 00	 mov	 eax, 165700		; 00028744H
  00017	e8 00 00 00 00	 call	 __chkstk
  0001c	a1 00 00 00 00	 mov	 eax, DWORD PTR ___security_cookie
  00021	33 c5		 xor	 eax, ebp
  00023	89 45 ec	 mov	 DWORD PTR __$ArrayPad$[ebp], eax
  00026	53		 push	 ebx
  00027	56		 push	 esi
  00028	57		 push	 edi
  00029	50		 push	 eax
  0002a	8d 45 f4	 lea	 eax, DWORD PTR __$EHRec$[ebp+4]
  0002d	64 a3 00 00 00
	00		 mov	 DWORD PTR fs:0, eax
  00033	89 65 f0	 mov	 DWORD PTR __$EHRec$[ebp], esp
  00036	89 4d e8	 mov	 DWORD PTR _this$[ebp], ecx

; 531  : 	try

  00039	c7 45 fc 00 00
	00 00		 mov	 DWORD PTR __$EHRec$[ebp+12], 0

; 532  : 	{
; 533  : 		//提取变量
; 534  : 		DBR_GR_AddFriend * pAddFriend=(DBR_GR_AddFriend * )pData;

  00040	8b 45 0c	 mov	 eax, DWORD PTR _pData$[ebp]
  00043	89 45 e4	 mov	 DWORD PTR _pAddFriend$9[ebp], eax

; 535  : 		ASSERT(pAddFriend!=NULL);

  00046	83 7d e4 00	 cmp	 DWORD PTR _pAddFriend$9[ebp], 0
  0004a	75 23		 jne	 SHORT $LN6@OnRequestA
  0004c	a1 00 00 00 00	 mov	 eax, DWORD PTR ?__LINE__Var@?0??OnRequestAddFriend@CDataBaseEngineSink@@IAE_NKPAXG@Z@4JA
  00051	83 c0 05	 add	 eax, 5
  00054	50		 push	 eax
  00055	68 00 00 00 00	 push	 OFFSET ?THIS_FILE@@3PADA
  0005a	e8 00 00 00 00	 call	 ?AfxAssertFailedLine@@YGHPBDH@Z ; AfxAssertFailedLine
  0005f	89 85 ac 78 fd
	ff		 mov	 DWORD PTR tv278[ebp], eax
  00065	83 bd ac 78 fd
	ff 00		 cmp	 DWORD PTR tv278[ebp], 0
  0006c	74 01		 je	 SHORT $LN6@OnRequestA
  0006e	cc		 int	 3
$LN6@OnRequestA:

; 536  : 
; 537  : 		//执行查询
; 538  : 		m_AccountsDBAide.ResetParameter();

  0006f	8b 4d e8	 mov	 ecx, DWORD PTR _this$[ebp]
  00072	83 c1 04	 add	 ecx, 4
  00075	ff 15 00 00 00
	00		 call	 DWORD PTR __imp_?ResetParameter@CDataBaseAide@@QAEXXZ

; 539  : 		m_AccountsDBAide.AddParameter(TEXT("@dwUserID"),pAddFriend->dwUserID);

  0007b	6a 01		 push	 1
  0007d	8b 45 e4	 mov	 eax, DWORD PTR _pAddFriend$9[ebp]
  00080	8b 48 04	 mov	 ecx, DWORD PTR [eax+4]
  00083	51		 push	 ecx
  00084	68 00 00 00 00	 push	 OFFSET ??_C@_09KCDEMNBD@?$EAdwUserID@
  00089	8b 4d e8	 mov	 ecx, DWORD PTR _this$[ebp]
  0008c	83 c1 04	 add	 ecx, 4
  0008f	ff 15 00 00 00
	00		 call	 DWORD PTR __imp_?AddParameter@CDataBaseAide@@QAEXPBDKW4ParameterDirectionEnum@ADOCG@@@Z

; 540  : 		m_AccountsDBAide.AddParameter(TEXT("@dwDestUserID"),pAddFriend->dwRequestUserID);

  00095	6a 01		 push	 1
  00097	8b 45 e4	 mov	 eax, DWORD PTR _pAddFriend$9[ebp]
  0009a	8b 48 08	 mov	 ecx, DWORD PTR [eax+8]
  0009d	51		 push	 ecx
  0009e	68 00 00 00 00	 push	 OFFSET ??_C@_0O@MGOPHJEC@?$EAdwDestUserID@
  000a3	8b 4d e8	 mov	 ecx, DWORD PTR _this$[ebp]
  000a6	83 c1 04	 add	 ecx, 4
  000a9	ff 15 00 00 00
	00		 call	 DWORD PTR __imp_?AddParameter@CDataBaseAide@@QAEXPBDKW4ParameterDirectionEnum@ADOCG@@@Z

; 541  : 		m_AccountsDBAide.AddParameter(TEXT("@cbGroupID"),pAddFriend->cbGroupID);

  000af	6a 01		 push	 1
  000b1	8b 45 e4	 mov	 eax, DWORD PTR _pAddFriend$9[ebp]
  000b4	0f b6 48 0c	 movzx	 ecx, BYTE PTR [eax+12]
  000b8	51		 push	 ecx
  000b9	68 00 00 00 00	 push	 OFFSET ??_C@_0L@BKCLAFLJ@?$EAcbGroupID@
  000be	8b 4d e8	 mov	 ecx, DWORD PTR _this$[ebp]
  000c1	83 c1 04	 add	 ecx, 4
  000c4	ff 15 00 00 00
	00		 call	 DWORD PTR __imp_?AddParameter@CDataBaseAide@@QAEXPBDEW4ParameterDirectionEnum@ADOCG@@@Z

; 542  : 		m_AccountsDBAide.AddParameter(TEXT("@cbDestGroupID"),pAddFriend->cbRequestGroupID);

  000ca	6a 01		 push	 1
  000cc	8b 45 e4	 mov	 eax, DWORD PTR _pAddFriend$9[ebp]
  000cf	0f b6 48 0d	 movzx	 ecx, BYTE PTR [eax+13]
  000d3	51		 push	 ecx
  000d4	68 00 00 00 00	 push	 OFFSET ??_C@_0P@MOENBMCB@?$EAcbDestGroupID@
  000d9	8b 4d e8	 mov	 ecx, DWORD PTR _this$[ebp]
  000dc	83 c1 04	 add	 ecx, 4
  000df	ff 15 00 00 00
	00		 call	 DWORD PTR __imp_?AddParameter@CDataBaseAide@@QAEXPBDEW4ParameterDirectionEnum@ADOCG@@@Z

; 543  : 		m_AccountsDBAide.AddParameter(TEXT("@cbLoadUserInfo"),pAddFriend->bLoadUserInfo);

  000e5	6a 01		 push	 1
  000e7	8b 45 e4	 mov	 eax, DWORD PTR _pAddFriend$9[ebp]
  000ea	0f b6 08	 movzx	 ecx, BYTE PTR [eax]
  000ed	51		 push	 ecx
  000ee	68 00 00 00 00	 push	 OFFSET ??_C@_0BA@JCDGDHKF@?$EAcbLoadUserInfo@
  000f3	8b 4d e8	 mov	 ecx, DWORD PTR _this$[ebp]
  000f6	83 c1 04	 add	 ecx, 4
  000f9	ff 15 00 00 00
	00		 call	 DWORD PTR __imp_?AddParameter@CDataBaseAide@@QAEXPBDHW4ParameterDirectionEnum@ADOCG@@@Z

; 544  : 
; 545  : 		//变量定义
; 546  : 		TCHAR szDescribeString[128]=TEXT("");

  000ff	a0 00 00 00 00	 mov	 al, BYTE PTR ??_C@_00CNPNBAHC@@
  00104	88 85 64 ff ff
	ff		 mov	 BYTE PTR _szDescribeString$8[ebp], al
  0010a	6a 7f		 push	 127			; 0000007fH
  0010c	6a 00		 push	 0
  0010e	8d 85 65 ff ff
	ff		 lea	 eax, DWORD PTR _szDescribeString$8[ebp+1]
  00114	50		 push	 eax
  00115	e8 00 00 00 00	 call	 _memset
  0011a	83 c4 0c	 add	 esp, 12			; 0000000cH

; 547  : 		m_AccountsDBAide.AddParameterOutput(TEXT("@strErrorDescribe"),szDescribeString,sizeof(szDescribeString),adParamOutput);

  0011d	6a 02		 push	 2
  0011f	68 80 00 00 00	 push	 128			; 00000080H
  00124	8d 85 64 ff ff
	ff		 lea	 eax, DWORD PTR _szDescribeString$8[ebp]
  0012a	50		 push	 eax
  0012b	68 00 00 00 00	 push	 OFFSET ??_C@_0BC@IIOJPJPJ@?$EAstrErrorDescribe@
  00130	8b 4d e8	 mov	 ecx, DWORD PTR _this$[ebp]
  00133	83 c1 04	 add	 ecx, 4
  00136	ff 15 00 00 00
	00		 call	 DWORD PTR __imp_?AddParameterOutput@CDataBaseAide@@QAEXPBDPADIW4ParameterDirectionEnum@ADOCG@@@Z

; 548  : 
; 549  : 		//执行查询
; 550  : 		LONG lResultCode=m_AccountsDBAide.ExecuteProcess(TEXT("GSP_GP_AddUserFriend"),true);

  0013c	6a 01		 push	 1
  0013e	68 00 00 00 00	 push	 OFFSET ??_C@_0BF@GFGAEEKM@GSP_GP_AddUserFriend@
  00143	8b 4d e8	 mov	 ecx, DWORD PTR _this$[ebp]
  00146	83 c1 04	 add	 ecx, 4
  00149	ff 15 00 00 00
	00		 call	 DWORD PTR __imp_?ExecuteProcess@CDataBaseAide@@QAEJPBD_N@Z
  0014f	89 85 ac 78 fd
	ff		 mov	 DWORD PTR tv279[ebp], eax
  00155	8b 85 ac 78 fd
	ff		 mov	 eax, DWORD PTR tv279[ebp]
  0015b	89 85 60 ff ff
	ff		 mov	 DWORD PTR _lResultCode$7[ebp], eax

; 551  : 
; 552  : 		if(lResultCode==DB_SUCCESS)

  00161	83 bd 60 ff ff
	ff 00		 cmp	 DWORD PTR _lResultCode$7[ebp], 0
  00168	0f 85 ae 02 00
	00		 jne	 $LN3@OnRequestA

; 553  : 		{
; 554  : 			//变量定义
; 555  : 			DBO_GR_AddFriend AddFriend;
; 556  : 			AddFriend.dwUserID = pAddFriend->dwUserID;

  0016e	8b 45 e4	 mov	 eax, DWORD PTR _pAddFriend$9[ebp]
  00171	8b 48 04	 mov	 ecx, DWORD PTR [eax+4]
  00174	89 8d 54 ff ff
	ff		 mov	 DWORD PTR _AddFriend$6[ebp+4], ecx

; 557  : 			AddFriend.dwRequestUserID = pAddFriend->dwRequestUserID;

  0017a	8b 45 e4	 mov	 eax, DWORD PTR _pAddFriend$9[ebp]
  0017d	8b 48 08	 mov	 ecx, DWORD PTR [eax+8]
  00180	89 8d 58 ff ff
	ff		 mov	 DWORD PTR _AddFriend$6[ebp+8], ecx

; 558  : 			AddFriend.cbGroupID = pAddFriend->cbGroupID;

  00186	8b 45 e4	 mov	 eax, DWORD PTR _pAddFriend$9[ebp]
  00189	8a 48 0c	 mov	 cl, BYTE PTR [eax+12]
  0018c	88 8d 5c ff ff
	ff		 mov	 BYTE PTR _AddFriend$6[ebp+12], cl

; 559  : 			AddFriend.cbRequestGroupID = pAddFriend->cbRequestGroupID;

  00192	8b 45 e4	 mov	 eax, DWORD PTR _pAddFriend$9[ebp]
  00195	8a 48 0d	 mov	 cl, BYTE PTR [eax+13]
  00198	88 8d 5d ff ff
	ff		 mov	 BYTE PTR _AddFriend$6[ebp+13], cl

; 560  : 			AddFriend.bLoadUserInfo = pAddFriend->bLoadUserInfo;

  0019e	8b 45 e4	 mov	 eax, DWORD PTR _pAddFriend$9[ebp]
  001a1	8a 08		 mov	 cl, BYTE PTR [eax]
  001a3	88 8d 50 ff ff
	ff		 mov	 BYTE PTR _AddFriend$6[ebp], cl

; 561  : 
; 562  : 			//加载用户信息
; 563  : 			if(AddFriend.bLoadUserInfo==true)

  001a9	0f b6 85 50 ff
	ff ff		 movzx	 eax, BYTE PTR _AddFriend$6[ebp]
  001b0	83 f8 01	 cmp	 eax, 1
  001b3	0f 85 38 02 00
	00		 jne	 $LN4@OnRequestA

; 564  : 			{
; 565  : 				//构造结构
; 566  : 				DBO_GR_UserFriendInfo UserFriendInfo;
; 567  : 				UserFriendInfo.dwUserID = AddFriend.dwUserID;

  001b9	8b 85 54 ff ff
	ff		 mov	 eax, DWORD PTR _AddFriend$6[ebp+4]
  001bf	89 85 c0 7a fd
	ff		 mov	 DWORD PTR _UserFriendInfo$5[ebp+4], eax

; 568  : 				UserFriendInfo.wFriendCount = 1;

  001c5	b8 01 00 00 00	 mov	 eax, 1
  001ca	66 89 85 c4 7a
	fd ff		 mov	 WORD PTR _UserFriendInfo$5[ebp+8], ax

; 569  : 				UserFriendInfo.bLogonFlag=false;

  001d1	c6 85 bc 7a fd
	ff 00		 mov	 BYTE PTR _UserFriendInfo$5[ebp], 0

; 570  : 
; 571  : 				//获取记录
; 572  : 				UserFriendInfo.FriendInfo[0].dwUserID=m_AccountsDBAide.GetValue_DWORD(TEXT("UserID"));

  001d8	68 00 00 00 00	 push	 OFFSET ??_C@_06OFHCDFJK@UserID@
  001dd	8b 4d e8	 mov	 ecx, DWORD PTR _this$[ebp]
  001e0	83 c1 04	 add	 ecx, 4
  001e3	ff 15 00 00 00
	00		 call	 DWORD PTR __imp_?GetValue_DWORD@CDataBaseAide@@QAEKPBD@Z
  001e9	89 85 ac 78 fd
	ff		 mov	 DWORD PTR tv280[ebp], eax
  001ef	b8 a5 00 00 00	 mov	 eax, 165		; 000000a5H
  001f4	6b c8 00	 imul	 ecx, eax, 0
  001f7	8b 95 ac 78 fd
	ff		 mov	 edx, DWORD PTR tv280[ebp]
  001fd	89 94 0d c6 7a
	fd ff		 mov	 DWORD PTR _UserFriendInfo$5[ebp+ecx+10], edx

; 573  : 				UserFriendInfo.FriendInfo[0].dwGameID =m_AccountsDBAide.GetValue_BYTE(TEXT("GameID"));

  00204	68 00 00 00 00	 push	 OFFSET ??_C@_06KGJDDPAK@GameID@
  00209	8b 4d e8	 mov	 ecx, DWORD PTR _this$[ebp]
  0020c	83 c1 04	 add	 ecx, 4
  0020f	ff 15 00 00 00
	00		 call	 DWORD PTR __imp_?GetValue_BYTE@CDataBaseAide@@QAEEPBD@Z
  00215	88 85 b2 78 fd
	ff		 mov	 BYTE PTR tv281[ebp], al
  0021b	0f b6 85 b2 78
	fd ff		 movzx	 eax, BYTE PTR tv281[ebp]
  00222	b9 a5 00 00 00	 mov	 ecx, 165		; 000000a5H
  00227	6b d1 00	 imul	 edx, ecx, 0
  0022a	89 84 15 ca 7a
	fd ff		 mov	 DWORD PTR _UserFriendInfo$5[ebp+edx+14], eax

; 574  : 				UserFriendInfo.FriendInfo[0].cbGroupID =m_AccountsDBAide.GetValue_BYTE(TEXT("GroupID"));

  00231	68 00 00 00 00	 push	 OFFSET ??_C@_07IKIDGEIC@GroupID@
  00236	8b 4d e8	 mov	 ecx, DWORD PTR _this$[ebp]
  00239	83 c1 04	 add	 ecx, 4
  0023c	ff 15 00 00 00
	00		 call	 DWORD PTR __imp_?GetValue_BYTE@CDataBaseAide@@QAEEPBD@Z
  00242	88 85 b2 78 fd
	ff		 mov	 BYTE PTR tv282[ebp], al
  00248	b8 a5 00 00 00	 mov	 eax, 165		; 000000a5H
  0024d	6b c8 00	 imul	 ecx, eax, 0
  00250	8a 95 b2 78 fd
	ff		 mov	 dl, BYTE PTR tv282[ebp]
  00256	88 94 0d 40 7b
	fd ff		 mov	 BYTE PTR _UserFriendInfo$5[ebp+ecx+132], dl

; 575  : 				UserFriendInfo.FriendInfo[0].dwFaceID =m_AccountsDBAide.GetValue_BYTE(TEXT("FaceID"));

  0025d	68 00 00 00 00	 push	 OFFSET ??_C@_06LPNEIKNP@FaceID@
  00262	8b 4d e8	 mov	 ecx, DWORD PTR _this$[ebp]
  00265	83 c1 04	 add	 ecx, 4
  00268	ff 15 00 00 00
	00		 call	 DWORD PTR __imp_?GetValue_BYTE@CDataBaseAide@@QAEEPBD@Z
  0026e	88 85 b2 78 fd
	ff		 mov	 BYTE PTR tv283[ebp], al
  00274	0f b6 85 b2 78
	fd ff		 movzx	 eax, BYTE PTR tv283[ebp]
  0027b	b9 a5 00 00 00	 mov	 ecx, 165		; 000000a5H
  00280	6b d1 00	 imul	 edx, ecx, 0
  00283	89 84 15 ee 7a
	fd ff		 mov	 DWORD PTR _UserFriendInfo$5[ebp+edx+50], eax

; 576  : 				UserFriendInfo.FriendInfo[0].dwCustomID =m_AccountsDBAide.GetValue_DWORD(TEXT("CustomID"));

  0028a	68 00 00 00 00	 push	 OFFSET ??_C@_08GOBKDNAK@CustomID@
  0028f	8b 4d e8	 mov	 ecx, DWORD PTR _this$[ebp]
  00292	83 c1 04	 add	 ecx, 4
  00295	ff 15 00 00 00
	00		 call	 DWORD PTR __imp_?GetValue_DWORD@CDataBaseAide@@QAEKPBD@Z
  0029b	89 85 ac 78 fd
	ff		 mov	 DWORD PTR tv284[ebp], eax
  002a1	b8 a5 00 00 00	 mov	 eax, 165		; 000000a5H
  002a6	6b c8 00	 imul	 ecx, eax, 0
  002a9	8b 95 ac 78 fd
	ff		 mov	 edx, DWORD PTR tv284[ebp]
  002af	89 94 0d f2 7a
	fd ff		 mov	 DWORD PTR _UserFriendInfo$5[ebp+ecx+54], edx

; 577  : 				UserFriendInfo.FriendInfo[0].cbGender =m_AccountsDBAide.GetValue_BYTE(TEXT("Gender"));

  002b6	68 00 00 00 00	 push	 OFFSET ??_C@_06HKFFEOFI@Gender@
  002bb	8b 4d e8	 mov	 ecx, DWORD PTR _this$[ebp]
  002be	83 c1 04	 add	 ecx, 4
  002c1	ff 15 00 00 00
	00		 call	 DWORD PTR __imp_?GetValue_BYTE@CDataBaseAide@@QAEEPBD@Z
  002c7	88 85 b2 78 fd
	ff		 mov	 BYTE PTR tv285[ebp], al
  002cd	b8 a5 00 00 00	 mov	 eax, 165		; 000000a5H
  002d2	6b c8 00	 imul	 ecx, eax, 0
  002d5	8a 95 b2 78 fd
	ff		 mov	 dl, BYTE PTR tv285[ebp]
  002db	88 94 0d f6 7a
	fd ff		 mov	 BYTE PTR _UserFriendInfo$5[ebp+ecx+58], dl

; 578  : 				UserFriendInfo.FriendInfo[0].wMemberOrder =m_AccountsDBAide.GetValue_WORD(TEXT("MemberOrder"));

  002e2	68 00 00 00 00	 push	 OFFSET ??_C@_0M@CEFIIFDG@MemberOrder@
  002e7	8b 4d e8	 mov	 ecx, DWORD PTR _this$[ebp]
  002ea	83 c1 04	 add	 ecx, 4
  002ed	ff 15 00 00 00
	00		 call	 DWORD PTR __imp_?GetValue_WORD@CDataBaseAide@@QAEGPBD@Z
  002f3	66 89 85 b0 78
	fd ff		 mov	 WORD PTR tv286[ebp], ax
  002fa	b8 a5 00 00 00	 mov	 eax, 165		; 000000a5H
  002ff	6b c8 00	 imul	 ecx, eax, 0
  00302	66 8b 95 b0 78
	fd ff		 mov	 dx, WORD PTR tv286[ebp]
  00309	66 89 94 0d f7
	7a fd ff	 mov	 WORD PTR _UserFriendInfo$5[ebp+ecx+59], dx

; 579  : 				UserFriendInfo.FriendInfo[0].wGrowLevel =m_AccountsDBAide.GetValue_WORD(TEXT("GrowLevel"));

  00311	68 00 00 00 00	 push	 OFFSET ??_C@_09HOAKNMLL@GrowLevel@
  00316	8b 4d e8	 mov	 ecx, DWORD PTR _this$[ebp]
  00319	83 c1 04	 add	 ecx, 4
  0031c	ff 15 00 00 00
	00		 call	 DWORD PTR __imp_?GetValue_WORD@CDataBaseAide@@QAEGPBD@Z
  00322	66 89 85 b0 78
	fd ff		 mov	 WORD PTR tv287[ebp], ax
  00329	b8 a5 00 00 00	 mov	 eax, 165		; 000000a5H
  0032e	6b c8 00	 imul	 ecx, eax, 0
  00331	66 8b 95 b0 78
	fd ff		 mov	 dx, WORD PTR tv287[ebp]
  00338	66 89 94 0d f9
	7a fd ff	 mov	 WORD PTR _UserFriendInfo$5[ebp+ecx+61], dx

; 580  : 				m_AccountsDBAide.GetValue_String(TEXT("NickName"),UserFriendInfo.FriendInfo[0].szNickName,CountArray(UserFriendInfo.FriendInfo[0].szNickName));

  00340	6a 20		 push	 32			; 00000020H
  00342	b8 a5 00 00 00	 mov	 eax, 165		; 000000a5H
  00347	6b c8 00	 imul	 ecx, eax, 0
  0034a	8d 94 0d ce 7a
	fd ff		 lea	 edx, DWORD PTR _UserFriendInfo$5[ebp+ecx+18]
  00351	52		 push	 edx
  00352	68 00 00 00 00	 push	 OFFSET ??_C@_08CELDJAGK@NickName@
  00357	8b 4d e8	 mov	 ecx, DWORD PTR _this$[ebp]
  0035a	83 c1 04	 add	 ecx, 4
  0035d	ff 15 00 00 00
	00		 call	 DWORD PTR __imp_?GetValue_String@CDataBaseAide@@QAEXPBDPADI@Z

; 581  : 				m_AccountsDBAide.GetValue_String(TEXT("UnderWrite"),UserFriendInfo.FriendInfo[0].szUnderWrite,CountArray(UserFriendInfo.FriendInfo[0].szUnderWrite));

  00363	6a 20		 push	 32			; 00000020H
  00365	b8 a5 00 00 00	 mov	 eax, 165		; 000000a5H
  0036a	6b c8 00	 imul	 ecx, eax, 0
  0036d	8d 94 0d fb 7a
	fd ff		 lea	 edx, DWORD PTR _UserFriendInfo$5[ebp+ecx+63]
  00374	52		 push	 edx
  00375	68 00 00 00 00	 push	 OFFSET ??_C@_0L@CPAJNIME@UnderWrite@
  0037a	8b 4d e8	 mov	 ecx, DWORD PTR _this$[ebp]
  0037d	83 c1 04	 add	 ecx, 4
  00380	ff 15 00 00 00
	00		 call	 DWORD PTR __imp_?GetValue_String@CDataBaseAide@@QAEXPBDPADI@Z

; 582  : 				m_AccountsDBAide.GetValue_String(TEXT("Compellation"),UserFriendInfo.FriendInfo[0].szCompellation,CountArray(UserFriendInfo.FriendInfo[0].szCompellation));

  00386	6a 10		 push	 16			; 00000010H
  00388	b8 a5 00 00 00	 mov	 eax, 165		; 000000a5H
  0038d	6b c8 00	 imul	 ecx, eax, 0
  00390	8d 94 0d 1b 7b
	fd ff		 lea	 edx, DWORD PTR _UserFriendInfo$5[ebp+ecx+95]
  00397	52		 push	 edx
  00398	68 00 00 00 00	 push	 OFFSET ??_C@_0N@CLIEFGAF@Compellation@
  0039d	8b 4d e8	 mov	 ecx, DWORD PTR _this$[ebp]
  003a0	83 c1 04	 add	 ecx, 4
  003a3	ff 15 00 00 00
	00		 call	 DWORD PTR __imp_?GetValue_String@CDataBaseAide@@QAEXPBDPADI@Z

; 583  : 
; 584  : 				//投递数据
; 585  : 				WORD wDataSize = sizeof(UserFriendInfo)-sizeof(UserFriendInfo.FriendInfo)+sizeof(tagClientFriendInfo)*UserFriendInfo.wFriendCount;

  003a9	0f b7 85 c4 7a
	fd ff		 movzx	 eax, WORD PTR _UserFriendInfo$5[ebp+8]
  003b0	69 c8 a5 00 00
	00		 imul	 ecx, eax, 165
  003b6	83 c1 0c	 add	 ecx, 12			; 0000000cH
  003b9	66 89 8d b8 7a
	fd ff		 mov	 WORD PTR _wDataSize$4[ebp], cx

; 586  : 				m_pIDataBaseEngineEvent->OnEventDataBaseResult(DBO_GR_USER_FRIENDINFO,dwContextID,&UserFriendInfo,wDataSize);

  003c0	0f b7 85 b8 7a
	fd ff		 movzx	 eax, WORD PTR _wDataSize$4[ebp]
  003c7	50		 push	 eax
  003c8	8d 8d bc 7a fd
	ff		 lea	 ecx, DWORD PTR _UserFriendInfo$5[ebp]
  003ce	51		 push	 ecx
  003cf	8b 55 08	 mov	 edx, DWORD PTR _dwContextID$[ebp]
  003d2	52		 push	 edx
  003d3	68 c9 00 00 00	 push	 201			; 000000c9H
  003d8	8b 45 e8	 mov	 eax, DWORD PTR _this$[ebp]
  003db	8b 4d e8	 mov	 ecx, DWORD PTR _this$[ebp]
  003de	8b 91 a8 05 00
	00		 mov	 edx, DWORD PTR [ecx+1448]
  003e4	8b 12		 mov	 edx, DWORD PTR [edx]
  003e6	8b 88 a8 05 00
	00		 mov	 ecx, DWORD PTR [eax+1448]
  003ec	8b 42 08	 mov	 eax, DWORD PTR [edx+8]
  003ef	ff d0		 call	 eax
$LN4@OnRequestA:

; 587  : 
; 588  : 			}
; 589  : 
; 590  : 			//投递数据
; 591  : 			m_pIDataBaseEngineEvent->OnEventDataBaseResult(DBO_GR_ADD_FRIEND,dwContextID,&AddFriend,sizeof(AddFriend));

  003f1	6a 10		 push	 16			; 00000010H
  003f3	8d 85 50 ff ff
	ff		 lea	 eax, DWORD PTR _AddFriend$6[ebp]
  003f9	50		 push	 eax
  003fa	8b 4d 08	 mov	 ecx, DWORD PTR _dwContextID$[ebp]
  003fd	51		 push	 ecx
  003fe	68 97 01 00 00	 push	 407			; 00000197H
  00403	8b 55 e8	 mov	 edx, DWORD PTR _this$[ebp]
  00406	8b 45 e8	 mov	 eax, DWORD PTR _this$[ebp]
  00409	8b 88 a8 05 00
	00		 mov	 ecx, DWORD PTR [eax+1448]
  0040f	8b 01		 mov	 eax, DWORD PTR [ecx]
  00411	8b 8a a8 05 00
	00		 mov	 ecx, DWORD PTR [edx+1448]
  00417	8b 50 08	 mov	 edx, DWORD PTR [eax+8]
  0041a	ff d2		 call	 edx
$LN3@OnRequestA:

; 592  : 		}
; 593  : 
; 594  : 		return true;

  0041c	b0 01		 mov	 al, 1
  0041e	eb 4c		 jmp	 SHORT $LN1@OnRequestA
__catch$?OnRequestAddFriend@CDataBaseEngineSink@@IAE_NKPAXG@Z$0:

; 595  : 	}
; 596  : 	catch (IDataBaseException * pIException)
; 597  : 	{
; 598  : 		//输出错误
; 599  : 		CTraceService::TraceString(pIException->GetExceptionDescribe(),TraceLevel_Exception);

  00420	6a 03		 push	 3
  00422	8b 85 b4 7a fd
	ff		 mov	 eax, DWORD PTR _pIException$3[ebp]
  00428	8b 10		 mov	 edx, DWORD PTR [eax]
  0042a	8b 8d b4 7a fd
	ff		 mov	 ecx, DWORD PTR _pIException$3[ebp]
  00430	8b 42 0c	 mov	 eax, DWORD PTR [edx+12]
  00433	ff d0		 call	 eax
  00435	50		 push	 eax
  00436	ff 15 00 00 00
	00		 call	 DWORD PTR __imp_?TraceString@CTraceService@@SA_NPBDW4enTraceLevel@@@Z
  0043c	83 c4 08	 add	 esp, 8

; 600  : 
; 601  : 		return false;

  0043f	c6 85 b3 78 fd
	ff 00		 mov	 BYTE PTR $T2[ebp], 0
  00446	b8 00 00 00 00	 mov	 eax, $LN10@OnRequestA
  0044b	c3		 ret	 0

; 602  : 	}

  0044c	b8 00 00 00 00	 mov	 eax, __tryend$?OnRequestAddFriend@CDataBaseEngineSink@@IAE_NKPAXG@Z$1
  00451	c3		 ret	 0
__tryend$?OnRequestAddFriend@CDataBaseEngineSink@@IAE_NKPAXG@Z$1:
  00452	c7 45 fc ff ff
	ff ff		 mov	 DWORD PTR __$EHRec$[ebp+12], -1
  00459	eb 0f		 jmp	 SHORT $LN9@OnRequestA
$LN10@OnRequestA:
  0045b	c7 45 fc ff ff
	ff ff		 mov	 DWORD PTR __$EHRec$[ebp+12], -1

; 600  : 
; 601  : 		return false;

  00462	8a 85 b3 78 fd
	ff		 mov	 al, BYTE PTR $T2[ebp]
  00468	eb 02		 jmp	 SHORT $LN1@OnRequestA
$LN9@OnRequestA:

; 603  : 
; 604  : 	return true;

  0046a	b0 01		 mov	 al, 1
$LN1@OnRequestA:

; 605  : }

  0046c	8b 4d f4	 mov	 ecx, DWORD PTR __$EHRec$[ebp+4]
  0046f	64 89 0d 00 00
	00 00		 mov	 DWORD PTR fs:0, ecx
  00476	59		 pop	 ecx
  00477	5f		 pop	 edi
  00478	5e		 pop	 esi
  00479	5b		 pop	 ebx
  0047a	8b 4d ec	 mov	 ecx, DWORD PTR __$ArrayPad$[ebp]
  0047d	33 cd		 xor	 ecx, ebp
  0047f	e8 00 00 00 00	 call	 @__security_check_cookie@4
  00484	8b e5		 mov	 esp, ebp
  00486	5d		 pop	 ebp
  00487	c2 0c 00	 ret	 12			; 0000000cH
_TEXT	ENDS
;	COMDAT text$x
text$x	SEGMENT
__ehhandler$?OnRequestAddFriend@CDataBaseEngineSink@@IAE_NKPAXG@Z:
  00000	8b 54 24 08	 mov	 edx, DWORD PTR [esp+8]
  00004	8d 42 0c	 lea	 eax, DWORD PTR [edx+12]
  00007	8b 8a a8 78 fd
	ff		 mov	 ecx, DWORD PTR [edx-165720]
  0000d	33 c8		 xor	 ecx, eax
  0000f	e8 00 00 00 00	 call	 @__security_check_cookie@4
  00014	8b 4a f8	 mov	 ecx, DWORD PTR [edx-8]
  00017	33 c8		 xor	 ecx, eax
  00019	e8 00 00 00 00	 call	 @__security_check_cookie@4
  0001e	b8 00 00 00 00	 mov	 eax, OFFSET __ehfuncinfo$?OnRequestAddFriend@CDataBaseEngineSink@@IAE_NKPAXG@Z
  00023	e9 00 00 00 00	 jmp	 ___CxxFrameHandler3
text$x	ENDS
?OnRequestAddFriend@CDataBaseEngineSink@@IAE_NKPAXG@Z ENDP ; CDataBaseEngineSink::OnRequestAddFriend
; Function compile flags: /Odtp /ZI
; File g:\网狐\happygamewh\服务端\系统模块\服务器组件\聊天服务器\databaseenginesink.cpp
;	COMDAT ?OnRequestModifyFriend@CDataBaseEngineSink@@IAE_NKPAXG@Z
_TEXT	SEGMENT
tv194 = -260						; size = 4
tv157 = -260						; size = 4
$T2 = -253						; size = 1
_ModifyFriend$3 = -188					; size = 12
_pIException$4 = -176					; size = 4
_ModifyFriend$5 = -172					; size = 12
_lResultCode$6 = -160					; size = 4
_szDescribeString$7 = -156				; size = 128
_pModifyFriend$ = -28					; size = 4
_this$ = -24						; size = 4
__$ArrayPad$ = -20					; size = 4
__$EHRec$ = -16						; size = 16
_dwContextID$ = 8					; size = 4
_pData$ = 12						; size = 4
_wDataSize$ = 16					; size = 2
?OnRequestModifyFriend@CDataBaseEngineSink@@IAE_NKPAXG@Z PROC ; CDataBaseEngineSink::OnRequestModifyFriend, COMDAT
; _this$ = ecx

; 471  : {

  00000	55		 push	 ebp
  00001	8b ec		 mov	 ebp, esp
  00003	6a ff		 push	 -1
  00005	68 00 00 00 00	 push	 __ehhandler$?OnRequestModifyFriend@CDataBaseEngineSink@@IAE_NKPAXG@Z
  0000a	64 a1 00 00 00
	00		 mov	 eax, DWORD PTR fs:0
  00010	50		 push	 eax
  00011	51		 push	 ecx
  00012	81 ec f4 00 00
	00		 sub	 esp, 244		; 000000f4H
  00018	a1 00 00 00 00	 mov	 eax, DWORD PTR ___security_cookie
  0001d	33 c5		 xor	 eax, ebp
  0001f	89 45 ec	 mov	 DWORD PTR __$ArrayPad$[ebp], eax
  00022	53		 push	 ebx
  00023	56		 push	 esi
  00024	57		 push	 edi
  00025	50		 push	 eax
  00026	8d 45 f4	 lea	 eax, DWORD PTR __$EHRec$[ebp+4]
  00029	64 a3 00 00 00
	00		 mov	 DWORD PTR fs:0, eax
  0002f	89 65 f0	 mov	 DWORD PTR __$EHRec$[ebp], esp
  00032	89 4d e8	 mov	 DWORD PTR _this$[ebp], ecx

; 472  : 	//提取变量
; 473  : 	DBR_GR_ModifyFriend * pModifyFriend=(DBR_GR_ModifyFriend * )pData;

  00035	8b 45 0c	 mov	 eax, DWORD PTR _pData$[ebp]
  00038	89 45 e4	 mov	 DWORD PTR _pModifyFriend$[ebp], eax

; 474  : 	ASSERT(pModifyFriend!=NULL);

  0003b	83 7d e4 00	 cmp	 DWORD PTR _pModifyFriend$[ebp], 0
  0003f	75 18		 jne	 SHORT $LN4@OnRequestM
  00041	a1 00 00 00 00	 mov	 eax, DWORD PTR ?__LINE__Var@?0??OnRequestModifyFriend@CDataBaseEngineSink@@IAE_NKPAXG@Z@4JA
  00046	83 c0 03	 add	 eax, 3
  00049	50		 push	 eax
  0004a	68 00 00 00 00	 push	 OFFSET ?THIS_FILE@@3PADA
  0004f	e8 00 00 00 00	 call	 ?AfxAssertFailedLine@@YGHPBDH@Z ; AfxAssertFailedLine
  00054	85 c0		 test	 eax, eax
  00056	74 01		 je	 SHORT $LN4@OnRequestM
  00058	cc		 int	 3
$LN4@OnRequestM:

; 475  : 
; 476  : 	try

  00059	c7 45 fc 00 00
	00 00		 mov	 DWORD PTR __$EHRec$[ebp+12], 0

; 477  : 	{
; 478  : 		//执行查询
; 479  : 		m_AccountsDBAide.ResetParameter();

  00060	8b 4d e8	 mov	 ecx, DWORD PTR _this$[ebp]
  00063	83 c1 04	 add	 ecx, 4
  00066	ff 15 00 00 00
	00		 call	 DWORD PTR __imp_?ResetParameter@CDataBaseAide@@QAEXXZ

; 480  : 		m_AccountsDBAide.AddParameter(TEXT("@dwUserID"),pModifyFriend->dwUserID);

  0006c	6a 01		 push	 1
  0006e	8b 45 e4	 mov	 eax, DWORD PTR _pModifyFriend$[ebp]
  00071	8b 08		 mov	 ecx, DWORD PTR [eax]
  00073	51		 push	 ecx
  00074	68 00 00 00 00	 push	 OFFSET ??_C@_09KCDEMNBD@?$EAdwUserID@
  00079	8b 4d e8	 mov	 ecx, DWORD PTR _this$[ebp]
  0007c	83 c1 04	 add	 ecx, 4
  0007f	ff 15 00 00 00
	00		 call	 DWORD PTR __imp_?AddParameter@CDataBaseAide@@QAEXPBDKW4ParameterDirectionEnum@ADOCG@@@Z

; 481  : 		m_AccountsDBAide.AddParameter(TEXT("@dwFriendUserID"),pModifyFriend->dwFriendUserID);

  00085	6a 01		 push	 1
  00087	8b 45 e4	 mov	 eax, DWORD PTR _pModifyFriend$[ebp]
  0008a	8b 48 04	 mov	 ecx, DWORD PTR [eax+4]
  0008d	51		 push	 ecx
  0008e	68 00 00 00 00	 push	 OFFSET ??_C@_0BA@PEHFKMKN@?$EAdwFriendUserID@
  00093	8b 4d e8	 mov	 ecx, DWORD PTR _this$[ebp]
  00096	83 c1 04	 add	 ecx, 4
  00099	ff 15 00 00 00
	00		 call	 DWORD PTR __imp_?AddParameter@CDataBaseAide@@QAEXPBDKW4ParameterDirectionEnum@ADOCG@@@Z

; 482  : 		m_AccountsDBAide.AddParameter(TEXT("@strPassword"),pModifyFriend->szPassword);

  0009f	6a 01		 push	 1
  000a1	8b 45 e4	 mov	 eax, DWORD PTR _pModifyFriend$[ebp]
  000a4	83 c0 08	 add	 eax, 8
  000a7	50		 push	 eax
  000a8	68 00 00 00 00	 push	 OFFSET ??_C@_0N@OCODJCJL@?$EAstrPassword@
  000ad	8b 4d e8	 mov	 ecx, DWORD PTR _this$[ebp]
  000b0	83 c1 04	 add	 ecx, 4
  000b3	ff 15 00 00 00
	00		 call	 DWORD PTR __imp_?AddParameter@CDataBaseAide@@QAEXPBD0W4ParameterDirectionEnum@ADOCG@@@Z

; 483  : 		m_AccountsDBAide.AddParameter(TEXT("@cbOperateKind"),pModifyFriend->cbOperateKind);

  000b9	6a 01		 push	 1
  000bb	8b 45 e4	 mov	 eax, DWORD PTR _pModifyFriend$[ebp]
  000be	0f b6 48 29	 movzx	 ecx, BYTE PTR [eax+41]
  000c2	51		 push	 ecx
  000c3	68 00 00 00 00	 push	 OFFSET ??_C@_0P@FPAAEPDL@?$EAcbOperateKind@
  000c8	8b 4d e8	 mov	 ecx, DWORD PTR _this$[ebp]
  000cb	83 c1 04	 add	 ecx, 4
  000ce	ff 15 00 00 00
	00		 call	 DWORD PTR __imp_?AddParameter@CDataBaseAide@@QAEXPBDEW4ParameterDirectionEnum@ADOCG@@@Z

; 484  : 		m_AccountsDBAide.AddParameter(TEXT("@cbGroupID"),pModifyFriend->cbGroupID);

  000d4	6a 01		 push	 1
  000d6	8b 45 e4	 mov	 eax, DWORD PTR _pModifyFriend$[ebp]
  000d9	0f b6 48 2a	 movzx	 ecx, BYTE PTR [eax+42]
  000dd	51		 push	 ecx
  000de	68 00 00 00 00	 push	 OFFSET ??_C@_0L@BKCLAFLJ@?$EAcbGroupID@
  000e3	8b 4d e8	 mov	 ecx, DWORD PTR _this$[ebp]
  000e6	83 c1 04	 add	 ecx, 4
  000e9	ff 15 00 00 00
	00		 call	 DWORD PTR __imp_?AddParameter@CDataBaseAide@@QAEXPBDEW4ParameterDirectionEnum@ADOCG@@@Z

; 485  : 
; 486  : 		//变量定义
; 487  : 		TCHAR szDescribeString[128]=TEXT("");

  000ef	a0 00 00 00 00	 mov	 al, BYTE PTR ??_C@_00CNPNBAHC@@
  000f4	88 85 64 ff ff
	ff		 mov	 BYTE PTR _szDescribeString$7[ebp], al
  000fa	6a 7f		 push	 127			; 0000007fH
  000fc	6a 00		 push	 0
  000fe	8d 85 65 ff ff
	ff		 lea	 eax, DWORD PTR _szDescribeString$7[ebp+1]
  00104	50		 push	 eax
  00105	e8 00 00 00 00	 call	 _memset
  0010a	83 c4 0c	 add	 esp, 12			; 0000000cH

; 488  : 		m_AccountsDBAide.AddParameterOutput(TEXT("@strErrorDescribe"),szDescribeString,sizeof(szDescribeString),adParamOutput);

  0010d	6a 02		 push	 2
  0010f	68 80 00 00 00	 push	 128			; 00000080H
  00114	8d 85 64 ff ff
	ff		 lea	 eax, DWORD PTR _szDescribeString$7[ebp]
  0011a	50		 push	 eax
  0011b	68 00 00 00 00	 push	 OFFSET ??_C@_0BC@IIOJPJPJ@?$EAstrErrorDescribe@
  00120	8b 4d e8	 mov	 ecx, DWORD PTR _this$[ebp]
  00123	83 c1 04	 add	 ecx, 4
  00126	ff 15 00 00 00
	00		 call	 DWORD PTR __imp_?AddParameterOutput@CDataBaseAide@@QAEXPBDPADIW4ParameterDirectionEnum@ADOCG@@@Z

; 489  : 
; 490  : 		//执行查询
; 491  : 		LONG lResultCode=m_AccountsDBAide.ExecuteProcess(TEXT("GSP_GP_ModifyUserFriend"),true);

  0012c	6a 01		 push	 1
  0012e	68 00 00 00 00	 push	 OFFSET ??_C@_0BI@BCODNHPM@GSP_GP_ModifyUserFriend@
  00133	8b 4d e8	 mov	 ecx, DWORD PTR _this$[ebp]
  00136	83 c1 04	 add	 ecx, 4
  00139	ff 15 00 00 00
	00		 call	 DWORD PTR __imp_?ExecuteProcess@CDataBaseAide@@QAEJPBD_N@Z
  0013f	89 85 fc fe ff
	ff		 mov	 DWORD PTR tv194[ebp], eax
  00145	8b 85 fc fe ff
	ff		 mov	 eax, DWORD PTR tv194[ebp]
  0014b	89 85 60 ff ff
	ff		 mov	 DWORD PTR _lResultCode$6[ebp], eax

; 492  : 
; 493  : 		//变量定义
; 494  : 		DBO_GR_ModifyFriend ModifyFriend;
; 495  : 		ModifyFriend.dwUserID=pModifyFriend->dwUserID;

  00151	8b 45 e4	 mov	 eax, DWORD PTR _pModifyFriend$[ebp]
  00154	8b 08		 mov	 ecx, DWORD PTR [eax]
  00156	89 8d 54 ff ff
	ff		 mov	 DWORD PTR _ModifyFriend$5[ebp], ecx

; 496  : 		ModifyFriend.dwFriendUserID=pModifyFriend->dwFriendUserID;

  0015c	8b 45 e4	 mov	 eax, DWORD PTR _pModifyFriend$[ebp]
  0015f	8b 48 04	 mov	 ecx, DWORD PTR [eax+4]
  00162	89 8d 58 ff ff
	ff		 mov	 DWORD PTR _ModifyFriend$5[ebp+4], ecx

; 497  : 		ModifyFriend.bSuccessed=lResultCode==DB_SUCCESS;

  00168	83 bd 60 ff ff
	ff 00		 cmp	 DWORD PTR _lResultCode$6[ebp], 0
  0016f	75 0c		 jne	 SHORT $LN5@OnRequestM
  00171	c7 85 fc fe ff
	ff 01 00 00 00	 mov	 DWORD PTR tv157[ebp], 1
  0017b	eb 0a		 jmp	 SHORT $LN6@OnRequestM
$LN5@OnRequestM:
  0017d	c7 85 fc fe ff
	ff 00 00 00 00	 mov	 DWORD PTR tv157[ebp], 0
$LN6@OnRequestM:
  00187	8a 85 fc fe ff
	ff		 mov	 al, BYTE PTR tv157[ebp]
  0018d	88 85 5c ff ff
	ff		 mov	 BYTE PTR _ModifyFriend$5[ebp+8], al

; 498  : 		ModifyFriend.cbOperateKind=pModifyFriend->cbOperateKind;

  00193	8b 45 e4	 mov	 eax, DWORD PTR _pModifyFriend$[ebp]
  00196	8a 48 29	 mov	 cl, BYTE PTR [eax+41]
  00199	88 8d 5d ff ff
	ff		 mov	 BYTE PTR _ModifyFriend$5[ebp+9], cl

; 499  : 		ModifyFriend.cbGroupID=pModifyFriend->cbGroupID;

  0019f	8b 45 e4	 mov	 eax, DWORD PTR _pModifyFriend$[ebp]
  001a2	8a 48 2a	 mov	 cl, BYTE PTR [eax+42]
  001a5	88 8d 5e ff ff
	ff		 mov	 BYTE PTR _ModifyFriend$5[ebp+10], cl

; 500  : 
; 501  : 		//投递数据
; 502  : 		m_pIDataBaseEngineEvent->OnEventDataBaseResult(DBO_GR_MODIFY_FRIEND,dwContextID,&ModifyFriend,sizeof(ModifyFriend));

  001ab	6a 0c		 push	 12			; 0000000cH
  001ad	8d 85 54 ff ff
	ff		 lea	 eax, DWORD PTR _ModifyFriend$5[ebp]
  001b3	50		 push	 eax
  001b4	8b 4d 08	 mov	 ecx, DWORD PTR _dwContextID$[ebp]
  001b7	51		 push	 ecx
  001b8	68 95 01 00 00	 push	 405			; 00000195H
  001bd	8b 55 e8	 mov	 edx, DWORD PTR _this$[ebp]
  001c0	8b 45 e8	 mov	 eax, DWORD PTR _this$[ebp]
  001c3	8b 88 a8 05 00
	00		 mov	 ecx, DWORD PTR [eax+1448]
  001c9	8b 01		 mov	 eax, DWORD PTR [ecx]
  001cb	8b 8a a8 05 00
	00		 mov	 ecx, DWORD PTR [edx+1448]
  001d1	8b 50 08	 mov	 edx, DWORD PTR [eax+8]
  001d4	ff d2		 call	 edx

; 503  : 
; 504  : 		return true;

  001d6	b0 01		 mov	 al, 1
  001d8	e9 ad 00 00 00	 jmp	 $LN1@OnRequestM
__catch$?OnRequestModifyFriend@CDataBaseEngineSink@@IAE_NKPAXG@Z$0:

; 505  : 	}
; 506  : 	catch (IDataBaseException * pIException)
; 507  : 	{
; 508  : 		//输出错误
; 509  : 		CTraceService::TraceString(pIException->GetExceptionDescribe(),TraceLevel_Exception);

  001dd	6a 03		 push	 3
  001df	8b 85 50 ff ff
	ff		 mov	 eax, DWORD PTR _pIException$4[ebp]
  001e5	8b 10		 mov	 edx, DWORD PTR [eax]
  001e7	8b 8d 50 ff ff
	ff		 mov	 ecx, DWORD PTR _pIException$4[ebp]
  001ed	8b 42 0c	 mov	 eax, DWORD PTR [edx+12]
  001f0	ff d0		 call	 eax
  001f2	50		 push	 eax
  001f3	ff 15 00 00 00
	00		 call	 DWORD PTR __imp_?TraceString@CTraceService@@SA_NPBDW4enTraceLevel@@@Z
  001f9	83 c4 08	 add	 esp, 8

; 510  : 
; 511  : 		//变量定义
; 512  : 		DBO_GR_ModifyFriend ModifyFriend;
; 513  : 		ModifyFriend.dwUserID=pModifyFriend->dwUserID;

  001fc	8b 45 e4	 mov	 eax, DWORD PTR _pModifyFriend$[ebp]
  001ff	8b 08		 mov	 ecx, DWORD PTR [eax]
  00201	89 8d 44 ff ff
	ff		 mov	 DWORD PTR _ModifyFriend$3[ebp], ecx

; 514  : 		ModifyFriend.dwFriendUserID=pModifyFriend->dwFriendUserID;

  00207	8b 45 e4	 mov	 eax, DWORD PTR _pModifyFriend$[ebp]
  0020a	8b 48 04	 mov	 ecx, DWORD PTR [eax+4]
  0020d	89 8d 48 ff ff
	ff		 mov	 DWORD PTR _ModifyFriend$3[ebp+4], ecx

; 515  : 		ModifyFriend.bSuccessed=false;

  00213	c6 85 4c ff ff
	ff 00		 mov	 BYTE PTR _ModifyFriend$3[ebp+8], 0

; 516  : 		ModifyFriend.cbOperateKind=pModifyFriend->cbOperateKind;

  0021a	8b 45 e4	 mov	 eax, DWORD PTR _pModifyFriend$[ebp]
  0021d	8a 48 29	 mov	 cl, BYTE PTR [eax+41]
  00220	88 8d 4d ff ff
	ff		 mov	 BYTE PTR _ModifyFriend$3[ebp+9], cl

; 517  : 		ModifyFriend.cbGroupID=pModifyFriend->cbGroupID;

  00226	8b 45 e4	 mov	 eax, DWORD PTR _pModifyFriend$[ebp]
  00229	8a 48 2a	 mov	 cl, BYTE PTR [eax+42]
  0022c	88 8d 4e ff ff
	ff		 mov	 BYTE PTR _ModifyFriend$3[ebp+10], cl

; 518  : 
; 519  : 		//投递数据
; 520  : 		m_pIDataBaseEngineEvent->OnEventDataBaseResult(DBO_GR_MODIFY_FRIEND,dwContextID,&ModifyFriend,sizeof(ModifyFriend));

  00232	6a 0c		 push	 12			; 0000000cH
  00234	8d 85 44 ff ff
	ff		 lea	 eax, DWORD PTR _ModifyFriend$3[ebp]
  0023a	50		 push	 eax
  0023b	8b 4d 08	 mov	 ecx, DWORD PTR _dwContextID$[ebp]
  0023e	51		 push	 ecx
  0023f	68 95 01 00 00	 push	 405			; 00000195H
  00244	8b 55 e8	 mov	 edx, DWORD PTR _this$[ebp]
  00247	8b 45 e8	 mov	 eax, DWORD PTR _this$[ebp]
  0024a	8b 88 a8 05 00
	00		 mov	 ecx, DWORD PTR [eax+1448]
  00250	8b 01		 mov	 eax, DWORD PTR [ecx]
  00252	8b 8a a8 05 00
	00		 mov	 ecx, DWORD PTR [edx+1448]
  00258	8b 50 08	 mov	 edx, DWORD PTR [eax+8]
  0025b	ff d2		 call	 edx

; 521  : 
; 522  : 		return false;

  0025d	c6 85 03 ff ff
	ff 00		 mov	 BYTE PTR $T2[ebp], 0
  00264	b8 00 00 00 00	 mov	 eax, $LN10@OnRequestM
  00269	c3		 ret	 0

; 523  : 	}

  0026a	b8 00 00 00 00	 mov	 eax, __tryend$?OnRequestModifyFriend@CDataBaseEngineSink@@IAE_NKPAXG@Z$1
  0026f	c3		 ret	 0
__tryend$?OnRequestModifyFriend@CDataBaseEngineSink@@IAE_NKPAXG@Z$1:
  00270	c7 45 fc ff ff
	ff ff		 mov	 DWORD PTR __$EHRec$[ebp+12], -1
  00277	eb 0f		 jmp	 SHORT $LN9@OnRequestM
$LN10@OnRequestM:
  00279	c7 45 fc ff ff
	ff ff		 mov	 DWORD PTR __$EHRec$[ebp+12], -1

; 521  : 
; 522  : 		return false;

  00280	8a 85 03 ff ff
	ff		 mov	 al, BYTE PTR $T2[ebp]
  00286	eb 02		 jmp	 SHORT $LN1@OnRequestM
$LN9@OnRequestM:

; 524  : 
; 525  : 	return true;

  00288	b0 01		 mov	 al, 1
$LN1@OnRequestM:

; 526  : }

  0028a	8b 4d f4	 mov	 ecx, DWORD PTR __$EHRec$[ebp+4]
  0028d	64 89 0d 00 00
	00 00		 mov	 DWORD PTR fs:0, ecx
  00294	59		 pop	 ecx
  00295	5f		 pop	 edi
  00296	5e		 pop	 esi
  00297	5b		 pop	 ebx
  00298	8b 4d ec	 mov	 ecx, DWORD PTR __$ArrayPad$[ebp]
  0029b	33 cd		 xor	 ecx, ebp
  0029d	e8 00 00 00 00	 call	 @__security_check_cookie@4
  002a2	8b e5		 mov	 esp, ebp
  002a4	5d		 pop	 ebp
  002a5	c2 0c 00	 ret	 12			; 0000000cH
_TEXT	ENDS
;	COMDAT text$x
text$x	SEGMENT
__ehhandler$?OnRequestModifyFriend@CDataBaseEngineSink@@IAE_NKPAXG@Z:
  00000	8b 54 24 08	 mov	 edx, DWORD PTR [esp+8]
  00004	8d 42 0c	 lea	 eax, DWORD PTR [edx+12]
  00007	8b 8a f8 fe ff
	ff		 mov	 ecx, DWORD PTR [edx-264]
  0000d	33 c8		 xor	 ecx, eax
  0000f	e8 00 00 00 00	 call	 @__security_check_cookie@4
  00014	8b 4a f8	 mov	 ecx, DWORD PTR [edx-8]
  00017	33 c8		 xor	 ecx, eax
  00019	e8 00 00 00 00	 call	 @__security_check_cookie@4
  0001e	b8 00 00 00 00	 mov	 eax, OFFSET __ehfuncinfo$?OnRequestModifyFriend@CDataBaseEngineSink@@IAE_NKPAXG@Z
  00023	e9 00 00 00 00	 jmp	 ___CxxFrameHandler3
text$x	ENDS
?OnRequestModifyFriend@CDataBaseEngineSink@@IAE_NKPAXG@Z ENDP ; CDataBaseEngineSink::OnRequestModifyFriend
; Function compile flags: /Odtp /ZI
; File g:\网狐\happygamewh\服务端\系统模块\服务器组件\聊天服务器\databaseenginesink.cpp
;	COMDAT ?OnRequestLogonUserID@CDataBaseEngineSink@@IAE_NKPAXG@Z
_TEXT	SEGMENT
tv895 = -440429						; size = 1
tv889 = -440429						; size = 1
tv875 = -440429						; size = 1
tv869 = -440429						; size = 1
tv861 = -440428						; size = 4
tv832 = -440428						; size = 4
tv773 = -440428						; size = 4
tv706 = -440428						; size = 4
tv674 = -440428						; size = 4
tv595 = -440428						; size = 4
tv425 = -440428						; size = 4
tv324 = -440428						; size = 4
tv290 = -440428						; size = 4
tv196 = -440428						; size = 4
tv898 = -440424						; size = 4
tv894 = -440424						; size = 4
tv893 = -440424						; size = 4
tv892 = -440424						; size = 4
tv891 = -440424						; size = 4
tv890 = -440424						; size = 4
tv888 = -440424						; size = 4
tv887 = -440424						; size = 4
tv886 = -440424						; size = 4
tv885 = -440424						; size = 4
tv884 = -440424						; size = 4
tv880 = -440424						; size = 4
tv877 = -440424						; size = 4
tv876 = -440424						; size = 4
tv874 = -440424						; size = 4
tv873 = -440424						; size = 4
tv872 = -440424						; size = 4
tv871 = -440424						; size = 4
tv868 = -440424						; size = 4
tv867 = -440424						; size = 4
tv866 = -440424						; size = 4
tv865 = -440424						; size = 4
tv864 = -440424						; size = 4
tv186 = -440424						; size = 4
tv897 = -440420						; size = 2
tv896 = -440420						; size = 2
tv883 = -440420						; size = 2
tv882 = -440420						; size = 2
tv881 = -440419						; size = 1
tv879 = -440419						; size = 1
tv878 = -440419						; size = 1
tv870 = -440419						; size = 1
$T2 = -440418						; size = 1
$T3 = -440417						; size = 1
$T4 = -440416						; size = 132
_pIException$5 = -439772				; size = 4
_UserOfflineMessage$6 = -439768				; size = 2404
_lResultCode$7 = -437364				; size = 4
_szDescribeString$8 = -437360				; size = 128
_UserRemarksInfo$9 = -437232				; size = 36008
_lResultCode$10 = -401224				; size = 4
_wDataSize$11 = -401220					; size = 2
_UserFriendInfo$12 = -401216				; size = 165012
_UserIndividual$13 = -236204				; size = 234008
_lResultCode$14 = -2196					; size = 4
_wDataSize$15 = -2192					; size = 2
_UserGroupInfo$16 = -2188				; size = 1058
_szTempGroupName$17 = -1128				; size = 32
_szGroupName$18 = -1096					; size = 957
_szGroupID$19 = -136					; size = 64
_lResultCode$20 = -72					; size = 4
_DBVarValue$21 = -68					; size = 16
_lResultCode$22 = -52					; size = 4
_pClientAddr$23 = -48					; size = 4
_szClientAddr$24 = -44					; size = 16
_pLogonUserID$ = -28					; size = 4
_this$ = -24						; size = 4
__$ArrayPad$ = -20					; size = 4
__$EHRec$ = -16						; size = 16
_dwContextID$ = 8					; size = 4
_pData$ = 12						; size = 4
_wDataSize$ = 16					; size = 2
?OnRequestLogonUserID@CDataBaseEngineSink@@IAE_NKPAXG@Z PROC ; CDataBaseEngineSink::OnRequestLogonUserID, COMDAT
; _this$ = ecx

; 216  : {

  00000	55		 push	 ebp
  00001	8b ec		 mov	 ebp, esp
  00003	6a ff		 push	 -1
  00005	68 00 00 00 00	 push	 __ehhandler$?OnRequestLogonUserID@CDataBaseEngineSink@@IAE_NKPAXG@Z
  0000a	64 a1 00 00 00
	00		 mov	 eax, DWORD PTR fs:0
  00010	50		 push	 eax
  00011	51		 push	 ecx
  00012	b8 60 b8 06 00	 mov	 eax, 440416		; 0006b860H
  00017	e8 00 00 00 00	 call	 __chkstk
  0001c	a1 00 00 00 00	 mov	 eax, DWORD PTR ___security_cookie
  00021	33 c5		 xor	 eax, ebp
  00023	89 45 ec	 mov	 DWORD PTR __$ArrayPad$[ebp], eax
  00026	53		 push	 ebx
  00027	56		 push	 esi
  00028	57		 push	 edi
  00029	50		 push	 eax
  0002a	8d 45 f4	 lea	 eax, DWORD PTR __$EHRec$[ebp+4]
  0002d	64 a3 00 00 00
	00		 mov	 DWORD PTR fs:0, eax
  00033	89 65 f0	 mov	 DWORD PTR __$EHRec$[ebp], esp
  00036	89 4d e8	 mov	 DWORD PTR _this$[ebp], ecx

; 217  : 	//执行查询
; 218  : 	DBR_GR_LogonUserID * pLogonUserID=(DBR_GR_LogonUserID *)pData;

  00039	8b 45 0c	 mov	 eax, DWORD PTR _pData$[ebp]
  0003c	89 45 e4	 mov	 DWORD PTR _pLogonUserID$[ebp], eax

; 219  : 
; 220  : 	//效验参数
; 221  : 	ASSERT(wDataSize==sizeof(DBR_GR_LogonUserID));

  0003f	0f b7 45 10	 movzx	 eax, WORD PTR _wDataSize$[ebp]
  00043	83 f8 40	 cmp	 eax, 64			; 00000040H
  00046	74 19		 je	 SHORT $LN25@OnRequestL
  00048	8b 0d 00 00 00
	00		 mov	 ecx, DWORD PTR ?__LINE__Var@?0??OnRequestLogonUserID@CDataBaseEngineSink@@IAE_NKPAXG@Z@4JA
  0004e	83 c1 05	 add	 ecx, 5
  00051	51		 push	 ecx
  00052	68 00 00 00 00	 push	 OFFSET ?THIS_FILE@@3PADA
  00057	e8 00 00 00 00	 call	 ?AfxAssertFailedLine@@YGHPBDH@Z ; AfxAssertFailedLine
  0005c	85 c0		 test	 eax, eax
  0005e	74 01		 je	 SHORT $LN25@OnRequestL
  00060	cc		 int	 3
$LN25@OnRequestL:

; 222  : 	if (wDataSize!=sizeof(DBR_GR_LogonUserID)) return false;

  00061	0f b7 45 10	 movzx	 eax, WORD PTR _wDataSize$[ebp]
  00065	83 f8 40	 cmp	 eax, 64			; 00000040H
  00068	74 07		 je	 SHORT $LN10@OnRequestL
  0006a	32 c0		 xor	 al, al
  0006c	e9 23 0e 00 00	 jmp	 $LN1@OnRequestL
$LN10@OnRequestL:

; 223  : 
; 224  : 	try

  00071	c7 45 fc 00 00
	00 00		 mov	 DWORD PTR __$EHRec$[ebp+12], 0

; 225  : 	{
; 226  : 		//用户信息
; 227  : 		if(pLogonUserID->wLogonComand&LOGON_COMMAND_USERINFO)

  00078	8b 45 e4	 mov	 eax, DWORD PTR _pLogonUserID$[ebp]
  0007b	0f b6 48 3a	 movzx	 ecx, BYTE PTR [eax+58]
  0007f	83 e1 01	 and	 ecx, 1
  00082	0f 84 1a 02 00
	00		 je	 $LN12@OnRequestL

; 228  : 		{
; 229  : 			//转化地址
; 230  : 			TCHAR szClientAddr[16]=TEXT("");

  00088	a0 00 00 00 00	 mov	 al, BYTE PTR ??_C@_00CNPNBAHC@@
  0008d	88 45 d4	 mov	 BYTE PTR _szClientAddr$24[ebp], al
  00090	33 c0		 xor	 eax, eax
  00092	89 45 d5	 mov	 DWORD PTR _szClientAddr$24[ebp+1], eax
  00095	89 45 d9	 mov	 DWORD PTR _szClientAddr$24[ebp+5], eax
  00098	89 45 dd	 mov	 DWORD PTR _szClientAddr$24[ebp+9], eax
  0009b	66 89 45 e1	 mov	 WORD PTR _szClientAddr$24[ebp+13], ax
  0009f	88 45 e3	 mov	 BYTE PTR _szClientAddr$24[ebp+15], al

; 231  : 			BYTE * pClientAddr=(BYTE *)&pLogonUserID->dwClientAddr;

  000a2	8b 45 e4	 mov	 eax, DWORD PTR _pLogonUserID$[ebp]
  000a5	83 c0 3c	 add	 eax, 60			; 0000003cH
  000a8	89 45 d0	 mov	 DWORD PTR _pClientAddr$23[ebp], eax

; 232  : 			_sntprintf(szClientAddr,CountArray(szClientAddr),TEXT("%d.%d.%d.%d"),pClientAddr[0],pClientAddr[1],pClientAddr[2],pClientAddr[3]);

  000ab	b8 01 00 00 00	 mov	 eax, 1
  000b0	6b c8 03	 imul	 ecx, eax, 3
  000b3	8b 55 d0	 mov	 edx, DWORD PTR _pClientAddr$23[ebp]
  000b6	0f b6 04 0a	 movzx	 eax, BYTE PTR [edx+ecx]
  000ba	50		 push	 eax
  000bb	b9 01 00 00 00	 mov	 ecx, 1
  000c0	d1 e1		 shl	 ecx, 1
  000c2	8b 55 d0	 mov	 edx, DWORD PTR _pClientAddr$23[ebp]
  000c5	0f b6 04 0a	 movzx	 eax, BYTE PTR [edx+ecx]
  000c9	50		 push	 eax
  000ca	b9 01 00 00 00	 mov	 ecx, 1
  000cf	c1 e1 00	 shl	 ecx, 0
  000d2	8b 55 d0	 mov	 edx, DWORD PTR _pClientAddr$23[ebp]
  000d5	0f b6 04 0a	 movzx	 eax, BYTE PTR [edx+ecx]
  000d9	50		 push	 eax
  000da	b9 01 00 00 00	 mov	 ecx, 1
  000df	6b d1 00	 imul	 edx, ecx, 0
  000e2	8b 45 d0	 mov	 eax, DWORD PTR _pClientAddr$23[ebp]
  000e5	0f b6 0c 10	 movzx	 ecx, BYTE PTR [eax+edx]
  000e9	51		 push	 ecx
  000ea	68 00 00 00 00	 push	 OFFSET ??_C@_0M@PCENNPGA@?$CFd?4?$CFd?4?$CFd?4?$CFd@
  000ef	6a 10		 push	 16			; 00000010H
  000f1	8d 55 d4	 lea	 edx, DWORD PTR _szClientAddr$24[ebp]
  000f4	52		 push	 edx
  000f5	e8 00 00 00 00	 call	 __snprintf
  000fa	83 c4 1c	 add	 esp, 28			; 0000001cH

; 233  : 			//构造参数
; 234  : 			m_AccountsDBAide.ResetParameter();

  000fd	8b 4d e8	 mov	 ecx, DWORD PTR _this$[ebp]
  00100	83 c1 04	 add	 ecx, 4
  00103	ff 15 00 00 00
	00		 call	 DWORD PTR __imp_?ResetParameter@CDataBaseAide@@QAEXXZ

; 235  : 			m_AccountsDBAide.AddParameter(TEXT("@dwUserID"),pLogonUserID->dwUserID);

  00109	6a 01		 push	 1
  0010b	8b 45 e4	 mov	 eax, DWORD PTR _pLogonUserID$[ebp]
  0010e	8b 08		 mov	 ecx, DWORD PTR [eax]
  00110	51		 push	 ecx
  00111	68 00 00 00 00	 push	 OFFSET ??_C@_09KCDEMNBD@?$EAdwUserID@
  00116	8b 4d e8	 mov	 ecx, DWORD PTR _this$[ebp]
  00119	83 c1 04	 add	 ecx, 4
  0011c	ff 15 00 00 00
	00		 call	 DWORD PTR __imp_?AddParameter@CDataBaseAide@@QAEXPBDKW4ParameterDirectionEnum@ADOCG@@@Z

; 236  : 			m_AccountsDBAide.AddParameter(TEXT("@strPassword"),pLogonUserID->szPassword);

  00122	6a 01		 push	 1
  00124	8b 45 e4	 mov	 eax, DWORD PTR _pLogonUserID$[ebp]
  00127	83 c0 04	 add	 eax, 4
  0012a	50		 push	 eax
  0012b	68 00 00 00 00	 push	 OFFSET ??_C@_0N@OCODJCJL@?$EAstrPassword@
  00130	8b 4d e8	 mov	 ecx, DWORD PTR _this$[ebp]
  00133	83 c1 04	 add	 ecx, 4
  00136	ff 15 00 00 00
	00		 call	 DWORD PTR __imp_?AddParameter@CDataBaseAide@@QAEXPBD0W4ParameterDirectionEnum@ADOCG@@@Z

; 237  : 			m_AccountsDBAide.AddParameter(TEXT("@strClientIP"),szClientAddr);

  0013c	6a 01		 push	 1
  0013e	8d 45 d4	 lea	 eax, DWORD PTR _szClientAddr$24[ebp]
  00141	50		 push	 eax
  00142	68 00 00 00 00	 push	 OFFSET ??_C@_0N@IDHGAHBD@?$EAstrClientIP@
  00147	8b 4d e8	 mov	 ecx, DWORD PTR _this$[ebp]
  0014a	83 c1 04	 add	 ecx, 4
  0014d	ff 15 00 00 00
	00		 call	 DWORD PTR __imp_?AddParameter@CDataBaseAide@@QAEXPBD0W4ParameterDirectionEnum@ADOCG@@@Z

; 238  : 			m_AccountsDBAide.AddParameterOutput(TEXT("@strErrorDescribe"),m_LogonFailure.szDescribeString,sizeof(m_LogonFailure.szDescribeString),adParamOutput);

  00153	6a 02		 push	 2
  00155	68 80 00 00 00	 push	 128			; 00000080H
  0015a	8b 45 e8	 mov	 eax, DWORD PTR _this$[ebp]
  0015d	05 b0 05 00 00	 add	 eax, 1456		; 000005b0H
  00162	50		 push	 eax
  00163	68 00 00 00 00	 push	 OFFSET ??_C@_0BC@IIOJPJPJ@?$EAstrErrorDescribe@
  00168	8b 4d e8	 mov	 ecx, DWORD PTR _this$[ebp]
  0016b	83 c1 04	 add	 ecx, 4
  0016e	ff 15 00 00 00
	00		 call	 DWORD PTR __imp_?AddParameterOutput@CDataBaseAide@@QAEXPBDPADIW4ParameterDirectionEnum@ADOCG@@@Z

; 239  : 
; 240  : 			//执行查询
; 241  : 			LONG lResultCode=m_AccountsDBAide.ExecuteProcess(TEXT("GSP_GP_EfficacyAccountsChat"),true);

  00174	6a 01		 push	 1
  00176	68 00 00 00 00	 push	 OFFSET ??_C@_0BM@NOBDEOGG@GSP_GP_EfficacyAccountsChat@
  0017b	8b 4d e8	 mov	 ecx, DWORD PTR _this$[ebp]
  0017e	83 c1 04	 add	 ecx, 4
  00181	ff 15 00 00 00
	00		 call	 DWORD PTR __imp_?ExecuteProcess@CDataBaseAide@@QAEJPBD_N@Z
  00187	89 85 98 47 f9
	ff		 mov	 DWORD PTR tv864[ebp], eax
  0018d	8b 85 98 47 f9
	ff		 mov	 eax, DWORD PTR tv864[ebp]
  00193	89 45 cc	 mov	 DWORD PTR _lResultCode$22[ebp], eax

; 242  : 
; 243  : 			//用户信息
; 244  : 			lstrcpyn(m_LogonSuccess.szPassword,pLogonUserID->szPassword,CountArray(m_LogonSuccess.szPassword));

  00196	6a 21		 push	 33			; 00000021H
  00198	8b 45 e4	 mov	 eax, DWORD PTR _pLogonUserID$[ebp]
  0019b	83 c0 04	 add	 eax, 4
  0019e	50		 push	 eax
  0019f	8b 4d e8	 mov	 ecx, DWORD PTR _this$[ebp]
  001a2	81 c1 58 06 00
	00		 add	 ecx, 1624		; 00000658H
  001a8	51		 push	 ecx
  001a9	ff 15 00 00 00
	00		 call	 DWORD PTR __imp__lstrcpynA@12

; 245  : 			lstrcpyn(m_LogonSuccess.szPhoneMode,pLogonUserID->szPhoneMode,CountArray(m_LogonSuccess.szPhoneMode));

  001af	6a 15		 push	 21			; 00000015H
  001b1	8b 45 e4	 mov	 eax, DWORD PTR _pLogonUserID$[ebp]
  001b4	83 c0 25	 add	 eax, 37			; 00000025H
  001b7	50		 push	 eax
  001b8	8b 4d e8	 mov	 ecx, DWORD PTR _this$[ebp]
  001bb	81 c1 ba 06 00
	00		 add	 ecx, 1722		; 000006baH
  001c1	51		 push	 ecx
  001c2	ff 15 00 00 00
	00		 call	 DWORD PTR __imp__lstrcpynA@12

; 246  : 			m_LogonSuccess.dwClientAddr = pLogonUserID->dwClientAddr;

  001c8	8b 45 e8	 mov	 eax, DWORD PTR _this$[ebp]
  001cb	8b 4d e4	 mov	 ecx, DWORD PTR _pLogonUserID$[ebp]
  001ce	8b 51 3c	 mov	 edx, DWORD PTR [ecx+60]
  001d1	89 90 d0 06 00
	00		 mov	 DWORD PTR [eax+1744], edx

; 247  : 
; 248  : 			//结果处理
; 249  : 			CDBVarValue DBVarValue;

  001d7	8d 4d bc	 lea	 ecx, DWORD PTR _DBVarValue$21[ebp]
  001da	e8 00 00 00 00	 call	 ??0_variant_t@@QAE@XZ	; _variant_t::_variant_t
  001df	c6 45 fc 01	 mov	 BYTE PTR __$EHRec$[ebp+12], 1

; 250  : 			m_AccountsDBModule->GetParameter(TEXT("@strErrorDescribe"),DBVarValue);

  001e3	8b 4d e8	 mov	 ecx, DWORD PTR _this$[ebp]
  001e6	83 c1 0c	 add	 ecx, 12			; 0000000cH
  001e9	e8 00 00 00 00	 call	 ??C?$CTempldateHelper@UIDataBase@@@@QBEPAUIDataBase@@XZ ; CTempldateHelper<IDataBase>::operator->
  001ee	89 85 98 47 f9
	ff		 mov	 DWORD PTR tv186[ebp], eax
  001f4	8b 85 98 47 f9
	ff		 mov	 eax, DWORD PTR tv186[ebp]
  001fa	89 85 94 47 f9
	ff		 mov	 DWORD PTR tv196[ebp], eax
  00200	8d 4d bc	 lea	 ecx, DWORD PTR _DBVarValue$21[ebp]
  00203	51		 push	 ecx
  00204	68 00 00 00 00	 push	 OFFSET ??_C@_0BC@IIOJPJPJ@?$EAstrErrorDescribe@
  00209	8b 95 94 47 f9
	ff		 mov	 edx, DWORD PTR tv196[ebp]
  0020f	8b 02		 mov	 eax, DWORD PTR [edx]
  00211	8b 8d 94 47 f9
	ff		 mov	 ecx, DWORD PTR tv196[ebp]
  00217	8b 50 1c	 mov	 edx, DWORD PTR [eax+28]
  0021a	ff d2		 call	 edx

; 251  : 			OnLogonDisposeResult(dwContextID,lResultCode,CW2CT(DBVarValue.bstrVal),false);

  0021c	8b 45 c4	 mov	 eax, DWORD PTR _DBVarValue$21[ebp+8]
  0021f	50		 push	 eax
  00220	8d 8d a0 47 f9
	ff		 lea	 ecx, DWORD PTR $T4[ebp]
  00226	e8 00 00 00 00	 call	 ??0?$CW2AEX@$0IA@@ATL@@QAE@PB_W@Z ; ATL::CW2AEX<128>::CW2AEX<128>
  0022b	89 85 98 47 f9
	ff		 mov	 DWORD PTR tv865[ebp], eax
  00231	8b 8d 98 47 f9
	ff		 mov	 ecx, DWORD PTR tv865[ebp]
  00237	89 8d 94 47 f9
	ff		 mov	 DWORD PTR tv861[ebp], ecx
  0023d	c6 45 fc 02	 mov	 BYTE PTR __$EHRec$[ebp+12], 2
  00241	6a 00		 push	 0
  00243	6a 00		 push	 0
  00245	6a 00		 push	 0
  00247	8b 8d 94 47 f9
	ff		 mov	 ecx, DWORD PTR tv861[ebp]
  0024d	e8 00 00 00 00	 call	 ??B?$CW2AEX@$0IA@@ATL@@QBEPADXZ ; ATL::CW2AEX<128>::operator char *
  00252	50		 push	 eax
  00253	8b 55 cc	 mov	 edx, DWORD PTR _lResultCode$22[ebp]
  00256	52		 push	 edx
  00257	8b 45 08	 mov	 eax, DWORD PTR _dwContextID$[ebp]
  0025a	50		 push	 eax
  0025b	8b 4d e8	 mov	 ecx, DWORD PTR _this$[ebp]
  0025e	e8 00 00 00 00	 call	 ?OnLogonDisposeResult@CDataBaseEngineSink@@AAEXKKPBD_NGG@Z ; CDataBaseEngineSink::OnLogonDisposeResult
  00263	c6 45 fc 01	 mov	 BYTE PTR __$EHRec$[ebp+12], 1
  00267	8d 8d a0 47 f9
	ff		 lea	 ecx, DWORD PTR $T4[ebp]
  0026d	e8 00 00 00 00	 call	 ??1?$CW2AEX@$0IA@@ATL@@QAE@XZ ; ATL::CW2AEX<128>::~CW2AEX<128>

; 252  : 
; 253  : 			if(lResultCode!=DB_SUCCESS) return true;

  00272	83 7d cc 00	 cmp	 DWORD PTR _lResultCode$22[ebp], 0
  00276	74 1e		 je	 SHORT $LN13@OnRequestL
  00278	c6 85 9f 47 f9
	ff 01		 mov	 BYTE PTR $T3[ebp], 1
  0027f	c6 45 fc 00	 mov	 BYTE PTR __$EHRec$[ebp+12], 0
  00283	8d 4d bc	 lea	 ecx, DWORD PTR _DBVarValue$21[ebp]
  00286	e8 00 00 00 00	 call	 ??1_variant_t@@QAE@XZ	; _variant_t::~_variant_t
  0028b	8a 85 9f 47 f9
	ff		 mov	 al, BYTE PTR $T3[ebp]
  00291	e9 fe 0b 00 00	 jmp	 $LN1@OnRequestL
$LN13@OnRequestL:

; 254  : 		}

  00296	c6 45 fc 00	 mov	 BYTE PTR __$EHRec$[ebp+12], 0
  0029a	8d 4d bc	 lea	 ecx, DWORD PTR _DBVarValue$21[ebp]
  0029d	e8 00 00 00 00	 call	 ??1_variant_t@@QAE@XZ	; _variant_t::~_variant_t
$LN12@OnRequestL:

; 255  : 
; 256  : 		//加载分组
; 257  : 		if(pLogonUserID->wLogonComand&LOGON_COMMAND_GROUPINFO)

  002a2	8b 45 e4	 mov	 eax, DWORD PTR _pLogonUserID$[ebp]
  002a5	0f b6 48 3a	 movzx	 ecx, BYTE PTR [eax+58]
  002a9	83 e1 02	 and	 ecx, 2
  002ac	0f 84 68 02 00
	00		 je	 $LN14@OnRequestL

; 258  : 		{
; 259  : 			//构造参数
; 260  : 			m_AccountsDBAide.ResetParameter();

  002b2	8b 4d e8	 mov	 ecx, DWORD PTR _this$[ebp]
  002b5	83 c1 04	 add	 ecx, 4
  002b8	ff 15 00 00 00
	00		 call	 DWORD PTR __imp_?ResetParameter@CDataBaseAide@@QAEXXZ

; 261  : 			m_AccountsDBAide.AddParameter(TEXT("@dwUserID"),pLogonUserID->dwUserID);

  002be	6a 01		 push	 1
  002c0	8b 45 e4	 mov	 eax, DWORD PTR _pLogonUserID$[ebp]
  002c3	8b 08		 mov	 ecx, DWORD PTR [eax]
  002c5	51		 push	 ecx
  002c6	68 00 00 00 00	 push	 OFFSET ??_C@_09KCDEMNBD@?$EAdwUserID@
  002cb	8b 4d e8	 mov	 ecx, DWORD PTR _this$[ebp]
  002ce	83 c1 04	 add	 ecx, 4
  002d1	ff 15 00 00 00
	00		 call	 DWORD PTR __imp_?AddParameter@CDataBaseAide@@QAEXPBDKW4ParameterDirectionEnum@ADOCG@@@Z

; 262  : 			m_AccountsDBAide.AddParameterOutput(TEXT("@strErrorDescribe"),m_LogonFailure.szDescribeString,sizeof(m_LogonFailure.szDescribeString),adParamOutput);

  002d7	6a 02		 push	 2
  002d9	68 80 00 00 00	 push	 128			; 00000080H
  002de	8b 45 e8	 mov	 eax, DWORD PTR _this$[ebp]
  002e1	05 b0 05 00 00	 add	 eax, 1456		; 000005b0H
  002e6	50		 push	 eax
  002e7	68 00 00 00 00	 push	 OFFSET ??_C@_0BC@IIOJPJPJ@?$EAstrErrorDescribe@
  002ec	8b 4d e8	 mov	 ecx, DWORD PTR _this$[ebp]
  002ef	83 c1 04	 add	 ecx, 4
  002f2	ff 15 00 00 00
	00		 call	 DWORD PTR __imp_?AddParameterOutput@CDataBaseAide@@QAEXPBDPADIW4ParameterDirectionEnum@ADOCG@@@Z

; 263  : 
; 264  : 			//执行查询
; 265  : 			LONG lResultCode=m_AccountsDBAide.ExecuteProcess(TEXT("GSP_GP_LoadUserGroups"),true);

  002f8	6a 01		 push	 1
  002fa	68 00 00 00 00	 push	 OFFSET ??_C@_0BG@DCPAFIBB@GSP_GP_LoadUserGroups@
  002ff	8b 4d e8	 mov	 ecx, DWORD PTR _this$[ebp]
  00302	83 c1 04	 add	 ecx, 4
  00305	ff 15 00 00 00
	00		 call	 DWORD PTR __imp_?ExecuteProcess@CDataBaseAide@@QAEJPBD_N@Z
  0030b	89 85 98 47 f9
	ff		 mov	 DWORD PTR tv866[ebp], eax
  00311	8b 85 98 47 f9
	ff		 mov	 eax, DWORD PTR tv866[ebp]
  00317	89 45 b8	 mov	 DWORD PTR _lResultCode$20[ebp], eax

; 266  : 
; 267  : 			//执行成功
; 268  : 			if(lResultCode==DB_SUCCESS && m_AccountsDBModule.GetInterface())

  0031a	83 7d b8 00	 cmp	 DWORD PTR _lResultCode$20[ebp], 0
  0031e	0f 85 e9 01 00
	00		 jne	 $LN15@OnRequestL
  00324	8b 4d e8	 mov	 ecx, DWORD PTR _this$[ebp]
  00327	83 c1 0c	 add	 ecx, 12			; 0000000cH
  0032a	e8 00 00 00 00	 call	 ?GetInterface@?$CTempldateHelper@UIDataBase@@@@QBEPAUIDataBase@@XZ ; CTempldateHelper<IDataBase>::GetInterface
  0032f	89 85 98 47 f9
	ff		 mov	 DWORD PTR tv867[ebp], eax
  00335	83 bd 98 47 f9
	ff 00		 cmp	 DWORD PTR tv867[ebp], 0
  0033c	0f 84 cb 01 00
	00		 je	 $LN15@OnRequestL

; 269  : 			{
; 270  : 				//变量定义
; 271  : 				TCHAR szGroupID[64]=TEXT("");

  00342	a0 00 00 00 00	 mov	 al, BYTE PTR ??_C@_00CNPNBAHC@@
  00347	88 85 78 ff ff
	ff		 mov	 BYTE PTR _szGroupID$19[ebp], al
  0034d	6a 3f		 push	 63			; 0000003fH
  0034f	6a 00		 push	 0
  00351	8d 85 79 ff ff
	ff		 lea	 eax, DWORD PTR _szGroupID$19[ebp+1]
  00357	50		 push	 eax
  00358	e8 00 00 00 00	 call	 _memset
  0035d	83 c4 0c	 add	 esp, 12			; 0000000cH

; 272  : 				TCHAR szGroupName[GROUP_LEN_INFO-64]=TEXT("");

  00360	a0 00 00 00 00	 mov	 al, BYTE PTR ??_C@_00CNPNBAHC@@
  00365	88 85 b8 fb ff
	ff		 mov	 BYTE PTR _szGroupName$18[ebp], al
  0036b	68 bc 03 00 00	 push	 956			; 000003bcH
  00370	6a 00		 push	 0
  00372	8d 85 b9 fb ff
	ff		 lea	 eax, DWORD PTR _szGroupName$18[ebp+1]
  00378	50		 push	 eax
  00379	e8 00 00 00 00	 call	 _memset
  0037e	83 c4 0c	 add	 esp, 12			; 0000000cH

; 273  : 				TCHAR szTempGroupName[GROUP_LEN_NAME]=TEXT("");

  00381	a0 00 00 00 00	 mov	 al, BYTE PTR ??_C@_00CNPNBAHC@@
  00386	88 85 98 fb ff
	ff		 mov	 BYTE PTR _szTempGroupName$17[ebp], al
  0038c	33 c0		 xor	 eax, eax
  0038e	89 85 99 fb ff
	ff		 mov	 DWORD PTR _szTempGroupName$17[ebp+1], eax
  00394	89 85 9d fb ff
	ff		 mov	 DWORD PTR _szTempGroupName$17[ebp+5], eax
  0039a	89 85 a1 fb ff
	ff		 mov	 DWORD PTR _szTempGroupName$17[ebp+9], eax
  003a0	89 85 a5 fb ff
	ff		 mov	 DWORD PTR _szTempGroupName$17[ebp+13], eax
  003a6	89 85 a9 fb ff
	ff		 mov	 DWORD PTR _szTempGroupName$17[ebp+17], eax
  003ac	89 85 ad fb ff
	ff		 mov	 DWORD PTR _szTempGroupName$17[ebp+21], eax
  003b2	89 85 b1 fb ff
	ff		 mov	 DWORD PTR _szTempGroupName$17[ebp+25], eax
  003b8	66 89 85 b5 fb
	ff ff		 mov	 WORD PTR _szTempGroupName$17[ebp+29], ax
  003bf	88 85 b7 fb ff
	ff		 mov	 BYTE PTR _szTempGroupName$17[ebp+31], al

; 274  : 
; 275  : 				//变量定义
; 276  : 				DBO_GR_UserGroupInfo UserGroupInfo;	
; 277  : 				ZeroMemory(&UserGroupInfo,sizeof(UserGroupInfo));

  003c5	68 22 04 00 00	 push	 1058			; 00000422H
  003ca	6a 00		 push	 0
  003cc	8d 85 74 f7 ff
	ff		 lea	 eax, DWORD PTR _UserGroupInfo$16[ebp]
  003d2	50		 push	 eax
  003d3	e8 00 00 00 00	 call	 _memset
  003d8	83 c4 0c	 add	 esp, 12			; 0000000cH
$LN2@OnRequestL:

; 278  : 
; 279  : 				//遍历记录集
; 280  : 				while(m_AccountsDBModule->IsRecordsetEnd()==false)

  003db	8b 4d e8	 mov	 ecx, DWORD PTR _this$[ebp]
  003de	83 c1 0c	 add	 ecx, 12			; 0000000cH
  003e1	e8 00 00 00 00	 call	 ??C?$CTempldateHelper@UIDataBase@@@@QBEPAUIDataBase@@XZ ; CTempldateHelper<IDataBase>::operator->
  003e6	89 85 98 47 f9
	ff		 mov	 DWORD PTR tv868[ebp], eax
  003ec	8b 85 98 47 f9
	ff		 mov	 eax, DWORD PTR tv868[ebp]
  003f2	89 85 94 47 f9
	ff		 mov	 DWORD PTR tv290[ebp], eax
  003f8	8b 8d 94 47 f9
	ff		 mov	 ecx, DWORD PTR tv290[ebp]
  003fe	8b 11		 mov	 edx, DWORD PTR [ecx]
  00400	8b 8d 94 47 f9
	ff		 mov	 ecx, DWORD PTR tv290[ebp]
  00406	8b 42 38	 mov	 eax, DWORD PTR [edx+56]
  00409	ff d0		 call	 eax
  0040b	88 85 93 47 f9
	ff		 mov	 BYTE PTR tv869[ebp], al
  00411	0f b6 8d 93 47
	f9 ff		 movzx	 ecx, BYTE PTR tv869[ebp]
  00418	85 c9		 test	 ecx, ecx
  0041a	0f 85 a8 00 00
	00		 jne	 $LN3@OnRequestL

; 281  : 				{
; 282  : 					//获取记录
; 283  : 					UserGroupInfo.GroupInfo[UserGroupInfo.wGroupCount].cbGroupIndex = m_AccountsDBAide.GetValue_BYTE(TEXT("GroupID"));

  00420	68 00 00 00 00	 push	 OFFSET ??_C@_07IKIDGEIC@GroupID@
  00425	8b 4d e8	 mov	 ecx, DWORD PTR _this$[ebp]
  00428	83 c1 04	 add	 ecx, 4
  0042b	ff 15 00 00 00
	00		 call	 DWORD PTR __imp_?GetValue_BYTE@CDataBaseAide@@QAEEPBD@Z
  00431	88 85 9d 47 f9
	ff		 mov	 BYTE PTR tv870[ebp], al
  00437	0f b7 85 74 f7
	ff ff		 movzx	 eax, WORD PTR _UserGroupInfo$16[ebp]
  0043e	6b c8 21	 imul	 ecx, eax, 33
  00441	8a 95 9d 47 f9
	ff		 mov	 dl, BYTE PTR tv870[ebp]
  00447	88 94 0d 76 f7
	ff ff		 mov	 BYTE PTR _UserGroupInfo$16[ebp+ecx+2], dl

; 284  : 					m_AccountsDBAide.GetValue_String(TEXT("GroupName"),UserGroupInfo.GroupInfo[UserGroupInfo.wGroupCount].szGroupName,CountArray(UserGroupInfo.GroupInfo[UserGroupInfo.wGroupCount].szGroupName));

  0044e	6a 20		 push	 32			; 00000020H
  00450	0f b7 85 74 f7
	ff ff		 movzx	 eax, WORD PTR _UserGroupInfo$16[ebp]
  00457	6b c8 21	 imul	 ecx, eax, 33
  0045a	8d 94 0d 77 f7
	ff ff		 lea	 edx, DWORD PTR _UserGroupInfo$16[ebp+ecx+3]
  00461	52		 push	 edx
  00462	68 00 00 00 00	 push	 OFFSET ??_C@_09DOCDJBIG@GroupName@
  00467	8b 4d e8	 mov	 ecx, DWORD PTR _this$[ebp]
  0046a	83 c1 04	 add	 ecx, 4
  0046d	ff 15 00 00 00
	00		 call	 DWORD PTR __imp_?GetValue_String@CDataBaseAide@@QAEXPBDPADI@Z

; 285  : 
; 286  : 					//设置变量
; 287  : 					++UserGroupInfo.wGroupCount;

  00473	66 8b 85 74 f7
	ff ff		 mov	 ax, WORD PTR _UserGroupInfo$16[ebp]
  0047a	66 83 c0 01	 add	 ax, 1
  0047e	66 89 85 74 f7
	ff ff		 mov	 WORD PTR _UserGroupInfo$16[ebp], ax

; 288  : 
; 289  : 					//退出判断
; 290  : 					if(UserGroupInfo.wGroupCount>=GROUP_MAX_COUNT) break;

  00485	0f b7 85 74 f7
	ff ff		 movzx	 eax, WORD PTR _UserGroupInfo$16[ebp]
  0048c	83 f8 20	 cmp	 eax, 32			; 00000020H
  0048f	7c 02		 jl	 SHORT $LN16@OnRequestL
  00491	eb 35		 jmp	 SHORT $LN3@OnRequestL
$LN16@OnRequestL:

; 291  : 
; 292  : 					//移动记录
; 293  : 					m_AccountsDBModule->MoveToNext();						

  00493	8b 4d e8	 mov	 ecx, DWORD PTR _this$[ebp]
  00496	83 c1 0c	 add	 ecx, 12			; 0000000cH
  00499	e8 00 00 00 00	 call	 ??C?$CTempldateHelper@UIDataBase@@@@QBEPAUIDataBase@@XZ ; CTempldateHelper<IDataBase>::operator->
  0049e	89 85 98 47 f9
	ff		 mov	 DWORD PTR tv871[ebp], eax
  004a4	8b 85 98 47 f9
	ff		 mov	 eax, DWORD PTR tv871[ebp]
  004aa	89 85 94 47 f9
	ff		 mov	 DWORD PTR tv324[ebp], eax
  004b0	8b 8d 94 47 f9
	ff		 mov	 ecx, DWORD PTR tv324[ebp]
  004b6	8b 11		 mov	 edx, DWORD PTR [ecx]
  004b8	8b 8d 94 47 f9
	ff		 mov	 ecx, DWORD PTR tv324[ebp]
  004be	8b 42 30	 mov	 eax, DWORD PTR [edx+48]
  004c1	ff d0		 call	 eax

; 294  : 				}

  004c3	e9 13 ff ff ff	 jmp	 $LN2@OnRequestL
$LN3@OnRequestL:

; 295  : 
; 296  : 				//投递数据
; 297  : 				WORD wDataSize = sizeof(UserGroupInfo)-sizeof(UserGroupInfo.GroupInfo)+UserGroupInfo.wGroupCount*sizeof(tagClientGroupInfo);

  004c8	0f b7 85 74 f7
	ff ff		 movzx	 eax, WORD PTR _UserGroupInfo$16[ebp]
  004cf	6b c8 21	 imul	 ecx, eax, 33
  004d2	83 c1 02	 add	 ecx, 2
  004d5	66 89 8d 70 f7
	ff ff		 mov	 WORD PTR _wDataSize$15[ebp], cx

; 298  : 				m_pIDataBaseEngineEvent->OnEventDataBaseResult(DBO_GR_USER_GROUPINFO,dwContextID,&UserGroupInfo,wDataSize);

  004dc	0f b7 85 70 f7
	ff ff		 movzx	 eax, WORD PTR _wDataSize$15[ebp]
  004e3	50		 push	 eax
  004e4	8d 8d 74 f7 ff
	ff		 lea	 ecx, DWORD PTR _UserGroupInfo$16[ebp]
  004ea	51		 push	 ecx
  004eb	8b 55 08	 mov	 edx, DWORD PTR _dwContextID$[ebp]
  004ee	52		 push	 edx
  004ef	68 c8 00 00 00	 push	 200			; 000000c8H
  004f4	8b 45 e8	 mov	 eax, DWORD PTR _this$[ebp]
  004f7	8b 4d e8	 mov	 ecx, DWORD PTR _this$[ebp]
  004fa	8b 91 a8 05 00
	00		 mov	 edx, DWORD PTR [ecx+1448]
  00500	8b 12		 mov	 edx, DWORD PTR [edx]
  00502	8b 88 a8 05 00
	00		 mov	 ecx, DWORD PTR [eax+1448]
  00508	8b 42 08	 mov	 eax, DWORD PTR [edx+8]
  0050b	ff d0		 call	 eax
$LN15@OnRequestL:

; 299  : 			}
; 300  : 
; 301  : 			if(lResultCode!=DB_SUCCESS) return true;

  0050d	83 7d b8 00	 cmp	 DWORD PTR _lResultCode$20[ebp], 0
  00511	74 07		 je	 SHORT $LN14@OnRequestL
  00513	b0 01		 mov	 al, 1
  00515	e9 7a 09 00 00	 jmp	 $LN1@OnRequestL
$LN14@OnRequestL:

; 302  : 		}
; 303  : 
; 304  : 		//加载好友
; 305  : 		if(pLogonUserID->wLogonComand&LOGON_COMMAND_FRIENDS)

  0051a	8b 45 e4	 mov	 eax, DWORD PTR _pLogonUserID$[ebp]
  0051d	0f b6 48 3a	 movzx	 ecx, BYTE PTR [eax+58]
  00521	83 e1 08	 and	 ecx, 8
  00524	0f 84 38 05 00
	00		 je	 $LN18@OnRequestL

; 306  : 		{
; 307  : 			//读取好友
; 308  : 			m_AccountsDBAide.ResetParameter();

  0052a	8b 4d e8	 mov	 ecx, DWORD PTR _this$[ebp]
  0052d	83 c1 04	 add	 ecx, 4
  00530	ff 15 00 00 00
	00		 call	 DWORD PTR __imp_?ResetParameter@CDataBaseAide@@QAEXXZ

; 309  : 			m_AccountsDBAide.AddParameter(TEXT("@dwUserID"),pLogonUserID->dwUserID);

  00536	6a 01		 push	 1
  00538	8b 45 e4	 mov	 eax, DWORD PTR _pLogonUserID$[ebp]
  0053b	8b 08		 mov	 ecx, DWORD PTR [eax]
  0053d	51		 push	 ecx
  0053e	68 00 00 00 00	 push	 OFFSET ??_C@_09KCDEMNBD@?$EAdwUserID@
  00543	8b 4d e8	 mov	 ecx, DWORD PTR _this$[ebp]
  00546	83 c1 04	 add	 ecx, 4
  00549	ff 15 00 00 00
	00		 call	 DWORD PTR __imp_?AddParameter@CDataBaseAide@@QAEXPBDKW4ParameterDirectionEnum@ADOCG@@@Z

; 310  : 			m_AccountsDBAide.AddParameterOutput(TEXT("@strErrorDescribe"),m_LogonFailure.szDescribeString,sizeof(m_LogonFailure.szDescribeString),adParamOutput);

  0054f	6a 02		 push	 2
  00551	68 80 00 00 00	 push	 128			; 00000080H
  00556	8b 45 e8	 mov	 eax, DWORD PTR _this$[ebp]
  00559	05 b0 05 00 00	 add	 eax, 1456		; 000005b0H
  0055e	50		 push	 eax
  0055f	68 00 00 00 00	 push	 OFFSET ??_C@_0BC@IIOJPJPJ@?$EAstrErrorDescribe@
  00564	8b 4d e8	 mov	 ecx, DWORD PTR _this$[ebp]
  00567	83 c1 04	 add	 ecx, 4
  0056a	ff 15 00 00 00
	00		 call	 DWORD PTR __imp_?AddParameterOutput@CDataBaseAide@@QAEXPBDPADIW4ParameterDirectionEnum@ADOCG@@@Z

; 311  : 
; 312  : 			//执行查询
; 313  : 			LONG lResultCode=m_AccountsDBAide.ExecuteProcess(TEXT("GSP_GP_LoadUserFriends"),true);

  00570	6a 01		 push	 1
  00572	68 00 00 00 00	 push	 OFFSET ??_C@_0BH@LNCMBLMH@GSP_GP_LoadUserFriends@
  00577	8b 4d e8	 mov	 ecx, DWORD PTR _this$[ebp]
  0057a	83 c1 04	 add	 ecx, 4
  0057d	ff 15 00 00 00
	00		 call	 DWORD PTR __imp_?ExecuteProcess@CDataBaseAide@@QAEJPBD_N@Z
  00583	89 85 98 47 f9
	ff		 mov	 DWORD PTR tv872[ebp], eax
  00589	8b 85 98 47 f9
	ff		 mov	 eax, DWORD PTR tv872[ebp]
  0058f	89 85 6c f7 ff
	ff		 mov	 DWORD PTR _lResultCode$14[ebp], eax

; 314  : 
; 315  : 			//执行成功
; 316  : 			if(lResultCode==DB_SUCCESS && m_AccountsDBModule.GetInterface())

  00595	83 bd 6c f7 ff
	ff 00		 cmp	 DWORD PTR _lResultCode$14[ebp], 0
  0059c	0f 85 c0 04 00
	00		 jne	 $LN18@OnRequestL
  005a2	8b 4d e8	 mov	 ecx, DWORD PTR _this$[ebp]
  005a5	83 c1 0c	 add	 ecx, 12			; 0000000cH
  005a8	e8 00 00 00 00	 call	 ?GetInterface@?$CTempldateHelper@UIDataBase@@@@QBEPAUIDataBase@@XZ ; CTempldateHelper<IDataBase>::GetInterface
  005ad	89 85 98 47 f9
	ff		 mov	 DWORD PTR tv873[ebp], eax
  005b3	83 bd 98 47 f9
	ff 00		 cmp	 DWORD PTR tv873[ebp], 0
  005ba	0f 84 a2 04 00
	00		 je	 $LN18@OnRequestL

; 317  : 			{
; 318  : 				//变量定义
; 319  : 				DBO_GR_UserIndividual UserIndividual;
; 320  : 				DBO_GR_UserFriendInfo	UserFriendInfo;
; 321  : 
; 322  : 				//重置数据
; 323  : 				ZeroMemory(&UserFriendInfo,sizeof(UserFriendInfo));

  005c0	68 94 84 02 00	 push	 165012			; 00028494H
  005c5	6a 00		 push	 0
  005c7	8d 85 c0 e0 f9
	ff		 lea	 eax, DWORD PTR _UserFriendInfo$12[ebp]
  005cd	50		 push	 eax
  005ce	e8 00 00 00 00	 call	 _memset
  005d3	83 c4 0c	 add	 esp, 12			; 0000000cH

; 324  : 				ZeroMemory(&UserIndividual,sizeof(UserIndividual));

  005d6	68 18 92 03 00	 push	 234008			; 00039218H
  005db	6a 00		 push	 0
  005dd	8d 85 54 65 fc
	ff		 lea	 eax, DWORD PTR _UserIndividual$13[ebp]
  005e3	50		 push	 eax
  005e4	e8 00 00 00 00	 call	 _memset
  005e9	83 c4 0c	 add	 esp, 12			; 0000000cH

; 325  : 
; 326  : 				//设置变量
; 327  : 				UserFriendInfo.dwUserID = pLogonUserID->dwUserID;

  005ec	8b 45 e4	 mov	 eax, DWORD PTR _pLogonUserID$[ebp]
  005ef	8b 08		 mov	 ecx, DWORD PTR [eax]
  005f1	89 8d c4 e0 f9
	ff		 mov	 DWORD PTR _UserFriendInfo$12[ebp+4], ecx

; 328  : 				UserFriendInfo.bLogonFlag = true;

  005f7	c6 85 c0 e0 f9
	ff 01		 mov	 BYTE PTR _UserFriendInfo$12[ebp], 1

; 329  : 				UserIndividual.dwUserID = pLogonUserID->dwUserID;

  005fe	8b 45 e4	 mov	 eax, DWORD PTR _pLogonUserID$[ebp]
  00601	8b 08		 mov	 ecx, DWORD PTR [eax]
  00603	89 8d 54 65 fc
	ff		 mov	 DWORD PTR _UserIndividual$13[ebp], ecx
$LN4@OnRequestL:

; 330  : 
; 331  : 				//遍历记录集
; 332  : 				while(m_AccountsDBModule->IsRecordsetEnd()==false)

  00609	8b 4d e8	 mov	 ecx, DWORD PTR _this$[ebp]
  0060c	83 c1 0c	 add	 ecx, 12			; 0000000cH
  0060f	e8 00 00 00 00	 call	 ??C?$CTempldateHelper@UIDataBase@@@@QBEPAUIDataBase@@XZ ; CTempldateHelper<IDataBase>::operator->
  00614	89 85 98 47 f9
	ff		 mov	 DWORD PTR tv874[ebp], eax
  0061a	8b 85 98 47 f9
	ff		 mov	 eax, DWORD PTR tv874[ebp]
  00620	89 85 94 47 f9
	ff		 mov	 DWORD PTR tv425[ebp], eax
  00626	8b 8d 94 47 f9
	ff		 mov	 ecx, DWORD PTR tv425[ebp]
  0062c	8b 11		 mov	 edx, DWORD PTR [ecx]
  0062e	8b 8d 94 47 f9
	ff		 mov	 ecx, DWORD PTR tv425[ebp]
  00634	8b 42 38	 mov	 eax, DWORD PTR [edx+56]
  00637	ff d0		 call	 eax
  00639	88 85 93 47 f9
	ff		 mov	 BYTE PTR tv875[ebp], al
  0063f	0f b6 8d 93 47
	f9 ff		 movzx	 ecx, BYTE PTR tv875[ebp]
  00646	85 c9		 test	 ecx, ecx
  00648	0f 85 84 03 00
	00		 jne	 $LN5@OnRequestL

; 333  : 				{
; 334  : 					//好友信息
; 335  : 					UserFriendInfo.FriendInfo[UserFriendInfo.wFriendCount].dwUserID=m_AccountsDBAide.GetValue_DWORD(TEXT("UserID"));

  0064e	68 00 00 00 00	 push	 OFFSET ??_C@_06OFHCDFJK@UserID@
  00653	8b 4d e8	 mov	 ecx, DWORD PTR _this$[ebp]
  00656	83 c1 04	 add	 ecx, 4
  00659	ff 15 00 00 00
	00		 call	 DWORD PTR __imp_?GetValue_DWORD@CDataBaseAide@@QAEKPBD@Z
  0065f	89 85 98 47 f9
	ff		 mov	 DWORD PTR tv876[ebp], eax
  00665	0f b7 85 c8 e0
	f9 ff		 movzx	 eax, WORD PTR _UserFriendInfo$12[ebp+8]
  0066c	69 c8 a5 00 00
	00		 imul	 ecx, eax, 165
  00672	8b 95 98 47 f9
	ff		 mov	 edx, DWORD PTR tv876[ebp]
  00678	89 94 0d ca e0
	f9 ff		 mov	 DWORD PTR _UserFriendInfo$12[ebp+ecx+10], edx

; 336  : 					UserFriendInfo.FriendInfo[UserFriendInfo.wFriendCount].dwGameID=m_AccountsDBAide.GetValue_DWORD(TEXT("GameID"));

  0067f	68 00 00 00 00	 push	 OFFSET ??_C@_06KGJDDPAK@GameID@
  00684	8b 4d e8	 mov	 ecx, DWORD PTR _this$[ebp]
  00687	83 c1 04	 add	 ecx, 4
  0068a	ff 15 00 00 00
	00		 call	 DWORD PTR __imp_?GetValue_DWORD@CDataBaseAide@@QAEKPBD@Z
  00690	89 85 98 47 f9
	ff		 mov	 DWORD PTR tv877[ebp], eax
  00696	0f b7 85 c8 e0
	f9 ff		 movzx	 eax, WORD PTR _UserFriendInfo$12[ebp+8]
  0069d	69 c8 a5 00 00
	00		 imul	 ecx, eax, 165
  006a3	8b 95 98 47 f9
	ff		 mov	 edx, DWORD PTR tv877[ebp]
  006a9	89 94 0d ce e0
	f9 ff		 mov	 DWORD PTR _UserFriendInfo$12[ebp+ecx+14], edx

; 337  : 					UserFriendInfo.FriendInfo[UserFriendInfo.wFriendCount].cbGroupID =m_AccountsDBAide.GetValue_BYTE(TEXT("GroupID"));

  006b0	68 00 00 00 00	 push	 OFFSET ??_C@_07IKIDGEIC@GroupID@
  006b5	8b 4d e8	 mov	 ecx, DWORD PTR _this$[ebp]
  006b8	83 c1 04	 add	 ecx, 4
  006bb	ff 15 00 00 00
	00		 call	 DWORD PTR __imp_?GetValue_BYTE@CDataBaseAide@@QAEEPBD@Z
  006c1	88 85 9d 47 f9
	ff		 mov	 BYTE PTR tv878[ebp], al
  006c7	0f b7 85 c8 e0
	f9 ff		 movzx	 eax, WORD PTR _UserFriendInfo$12[ebp+8]
  006ce	69 c8 a5 00 00
	00		 imul	 ecx, eax, 165
  006d4	8a 95 9d 47 f9
	ff		 mov	 dl, BYTE PTR tv878[ebp]
  006da	88 94 0d 44 e1
	f9 ff		 mov	 BYTE PTR _UserFriendInfo$12[ebp+ecx+132], dl

; 338  : 					UserFriendInfo.FriendInfo[UserFriendInfo.wFriendCount].dwFaceID =m_AccountsDBAide.GetValue_BYTE(TEXT("FaceID"));

  006e1	68 00 00 00 00	 push	 OFFSET ??_C@_06LPNEIKNP@FaceID@
  006e6	8b 4d e8	 mov	 ecx, DWORD PTR _this$[ebp]
  006e9	83 c1 04	 add	 ecx, 4
  006ec	ff 15 00 00 00
	00		 call	 DWORD PTR __imp_?GetValue_BYTE@CDataBaseAide@@QAEEPBD@Z
  006f2	88 85 9d 47 f9
	ff		 mov	 BYTE PTR tv879[ebp], al
  006f8	0f b6 85 9d 47
	f9 ff		 movzx	 eax, BYTE PTR tv879[ebp]
  006ff	0f b7 8d c8 e0
	f9 ff		 movzx	 ecx, WORD PTR _UserFriendInfo$12[ebp+8]
  00706	69 d1 a5 00 00
	00		 imul	 edx, ecx, 165
  0070c	89 84 15 f2 e0
	f9 ff		 mov	 DWORD PTR _UserFriendInfo$12[ebp+edx+50], eax

; 339  : 					UserFriendInfo.FriendInfo[UserFriendInfo.wFriendCount].dwCustomID =m_AccountsDBAide.GetValue_DWORD(TEXT("CustomID"));

  00713	68 00 00 00 00	 push	 OFFSET ??_C@_08GOBKDNAK@CustomID@
  00718	8b 4d e8	 mov	 ecx, DWORD PTR _this$[ebp]
  0071b	83 c1 04	 add	 ecx, 4
  0071e	ff 15 00 00 00
	00		 call	 DWORD PTR __imp_?GetValue_DWORD@CDataBaseAide@@QAEKPBD@Z
  00724	89 85 98 47 f9
	ff		 mov	 DWORD PTR tv880[ebp], eax
  0072a	0f b7 85 c8 e0
	f9 ff		 movzx	 eax, WORD PTR _UserFriendInfo$12[ebp+8]
  00731	69 c8 a5 00 00
	00		 imul	 ecx, eax, 165
  00737	8b 95 98 47 f9
	ff		 mov	 edx, DWORD PTR tv880[ebp]
  0073d	89 94 0d f6 e0
	f9 ff		 mov	 DWORD PTR _UserFriendInfo$12[ebp+ecx+54], edx

; 340  : 					UserFriendInfo.FriendInfo[UserFriendInfo.wFriendCount].cbGender =m_AccountsDBAide.GetValue_BYTE(TEXT("Gender"));

  00744	68 00 00 00 00	 push	 OFFSET ??_C@_06HKFFEOFI@Gender@
  00749	8b 4d e8	 mov	 ecx, DWORD PTR _this$[ebp]
  0074c	83 c1 04	 add	 ecx, 4
  0074f	ff 15 00 00 00
	00		 call	 DWORD PTR __imp_?GetValue_BYTE@CDataBaseAide@@QAEEPBD@Z
  00755	88 85 9d 47 f9
	ff		 mov	 BYTE PTR tv881[ebp], al
  0075b	0f b7 85 c8 e0
	f9 ff		 movzx	 eax, WORD PTR _UserFriendInfo$12[ebp+8]
  00762	69 c8 a5 00 00
	00		 imul	 ecx, eax, 165
  00768	8a 95 9d 47 f9
	ff		 mov	 dl, BYTE PTR tv881[ebp]
  0076e	88 94 0d fa e0
	f9 ff		 mov	 BYTE PTR _UserFriendInfo$12[ebp+ecx+58], dl

; 341  : 					UserFriendInfo.FriendInfo[UserFriendInfo.wFriendCount].wMemberOrder =m_AccountsDBAide.GetValue_WORD(TEXT("MemberOrder"));

  00775	68 00 00 00 00	 push	 OFFSET ??_C@_0M@CEFIIFDG@MemberOrder@
  0077a	8b 4d e8	 mov	 ecx, DWORD PTR _this$[ebp]
  0077d	83 c1 04	 add	 ecx, 4
  00780	ff 15 00 00 00
	00		 call	 DWORD PTR __imp_?GetValue_WORD@CDataBaseAide@@QAEGPBD@Z
  00786	66 89 85 9c 47
	f9 ff		 mov	 WORD PTR tv882[ebp], ax
  0078d	0f b7 85 c8 e0
	f9 ff		 movzx	 eax, WORD PTR _UserFriendInfo$12[ebp+8]
  00794	69 c8 a5 00 00
	00		 imul	 ecx, eax, 165
  0079a	66 8b 95 9c 47
	f9 ff		 mov	 dx, WORD PTR tv882[ebp]
  007a1	66 89 94 0d fb
	e0 f9 ff	 mov	 WORD PTR _UserFriendInfo$12[ebp+ecx+59], dx

; 342  : 					UserFriendInfo.FriendInfo[UserFriendInfo.wFriendCount].wGrowLevel =m_AccountsDBAide.GetValue_WORD(TEXT("GrowLevel"));

  007a9	68 00 00 00 00	 push	 OFFSET ??_C@_09HOAKNMLL@GrowLevel@
  007ae	8b 4d e8	 mov	 ecx, DWORD PTR _this$[ebp]
  007b1	83 c1 04	 add	 ecx, 4
  007b4	ff 15 00 00 00
	00		 call	 DWORD PTR __imp_?GetValue_WORD@CDataBaseAide@@QAEGPBD@Z
  007ba	66 89 85 9c 47
	f9 ff		 mov	 WORD PTR tv883[ebp], ax
  007c1	0f b7 85 c8 e0
	f9 ff		 movzx	 eax, WORD PTR _UserFriendInfo$12[ebp+8]
  007c8	69 c8 a5 00 00
	00		 imul	 ecx, eax, 165
  007ce	66 8b 95 9c 47
	f9 ff		 mov	 dx, WORD PTR tv883[ebp]
  007d5	66 89 94 0d fd
	e0 f9 ff	 mov	 WORD PTR _UserFriendInfo$12[ebp+ecx+61], dx

; 343  : 					m_AccountsDBAide.GetValue_String(TEXT("NickName"),UserFriendInfo.FriendInfo[UserFriendInfo.wFriendCount].szNickName,CountArray(UserFriendInfo.FriendInfo[UserFriendInfo.wFriendCount].szNickName));

  007dd	6a 20		 push	 32			; 00000020H
  007df	0f b7 85 c8 e0
	f9 ff		 movzx	 eax, WORD PTR _UserFriendInfo$12[ebp+8]
  007e6	69 c8 a5 00 00
	00		 imul	 ecx, eax, 165
  007ec	8d 94 0d d2 e0
	f9 ff		 lea	 edx, DWORD PTR _UserFriendInfo$12[ebp+ecx+18]
  007f3	52		 push	 edx
  007f4	68 00 00 00 00	 push	 OFFSET ??_C@_08CELDJAGK@NickName@
  007f9	8b 4d e8	 mov	 ecx, DWORD PTR _this$[ebp]
  007fc	83 c1 04	 add	 ecx, 4
  007ff	ff 15 00 00 00
	00		 call	 DWORD PTR __imp_?GetValue_String@CDataBaseAide@@QAEXPBDPADI@Z

; 344  : 					m_AccountsDBAide.GetValue_String(TEXT("UnderWrite"),UserFriendInfo.FriendInfo[UserFriendInfo.wFriendCount].szUnderWrite,CountArray(UserFriendInfo.FriendInfo[UserFriendInfo.wFriendCount].szUnderWrite));

  00805	6a 20		 push	 32			; 00000020H
  00807	0f b7 85 c8 e0
	f9 ff		 movzx	 eax, WORD PTR _UserFriendInfo$12[ebp+8]
  0080e	69 c8 a5 00 00
	00		 imul	 ecx, eax, 165
  00814	8d 94 0d ff e0
	f9 ff		 lea	 edx, DWORD PTR _UserFriendInfo$12[ebp+ecx+63]
  0081b	52		 push	 edx
  0081c	68 00 00 00 00	 push	 OFFSET ??_C@_0L@CPAJNIME@UnderWrite@
  00821	8b 4d e8	 mov	 ecx, DWORD PTR _this$[ebp]
  00824	83 c1 04	 add	 ecx, 4
  00827	ff 15 00 00 00
	00		 call	 DWORD PTR __imp_?GetValue_String@CDataBaseAide@@QAEXPBDPADI@Z

; 345  : 					m_AccountsDBAide.GetValue_String(TEXT("Compellation"),UserFriendInfo.FriendInfo[UserFriendInfo.wFriendCount].szCompellation,CountArray(UserFriendInfo.FriendInfo[UserFriendInfo.wFriendCount].szCompellation));

  0082d	6a 10		 push	 16			; 00000010H
  0082f	0f b7 85 c8 e0
	f9 ff		 movzx	 eax, WORD PTR _UserFriendInfo$12[ebp+8]
  00836	69 c8 a5 00 00
	00		 imul	 ecx, eax, 165
  0083c	8d 94 0d 1f e1
	f9 ff		 lea	 edx, DWORD PTR _UserFriendInfo$12[ebp+ecx+95]
  00843	52		 push	 edx
  00844	68 00 00 00 00	 push	 OFFSET ??_C@_0N@CLIEFGAF@Compellation@
  00849	8b 4d e8	 mov	 ecx, DWORD PTR _this$[ebp]
  0084c	83 c1 04	 add	 ecx, 4
  0084f	ff 15 00 00 00
	00		 call	 DWORD PTR __imp_?GetValue_String@CDataBaseAide@@QAEXPBDPADI@Z

; 346  : 
; 347  : 					//简易资料					
; 348  : 					UserIndividual.UserIndividual[UserIndividual.wUserCount].dwUserID =m_AccountsDBAide.GetValue_DWORD(TEXT("UserID"));

  00855	68 00 00 00 00	 push	 OFFSET ??_C@_06OFHCDFJK@UserID@
  0085a	8b 4d e8	 mov	 ecx, DWORD PTR _this$[ebp]
  0085d	83 c1 04	 add	 ecx, 4
  00860	ff 15 00 00 00
	00		 call	 DWORD PTR __imp_?GetValue_DWORD@CDataBaseAide@@QAEKPBD@Z
  00866	89 85 98 47 f9
	ff		 mov	 DWORD PTR tv884[ebp], eax
  0086c	0f b7 85 58 65
	fc ff		 movzx	 eax, WORD PTR _UserIndividual$13[ebp+4]
  00873	69 c8 ea 00 00
	00		 imul	 ecx, eax, 234
  00879	8b 95 98 47 f9
	ff		 mov	 edx, DWORD PTR tv884[ebp]
  0087f	89 94 0d 5a 65
	fc ff		 mov	 DWORD PTR _UserIndividual$13[ebp+ecx+6], edx

; 349  : 					m_AccountsDBAide.GetValue_String(TEXT("QQ"),UserIndividual.UserIndividual[UserIndividual.wUserCount].szQQ,CountArray(UserIndividual.UserIndividual[UserIndividual.wUserCount].szQQ));

  00886	6a 10		 push	 16			; 00000010H
  00888	0f b7 85 58 65
	fc ff		 movzx	 eax, WORD PTR _UserIndividual$13[ebp+4]
  0088f	69 c8 ea 00 00
	00		 imul	 ecx, eax, 234
  00895	8d 94 0d 5e 65
	fc ff		 lea	 edx, DWORD PTR _UserIndividual$13[ebp+ecx+10]
  0089c	52		 push	 edx
  0089d	68 00 00 00 00	 push	 OFFSET ??_C@_02MOGAAOHP@QQ@
  008a2	8b 4d e8	 mov	 ecx, DWORD PTR _this$[ebp]
  008a5	83 c1 04	 add	 ecx, 4
  008a8	ff 15 00 00 00
	00		 call	 DWORD PTR __imp_?GetValue_String@CDataBaseAide@@QAEXPBDPADI@Z

; 350  : 					m_AccountsDBAide.GetValue_String(TEXT("EMail"),UserIndividual.UserIndividual[UserIndividual.wUserCount].szEMail,CountArray(UserIndividual.UserIndividual[UserIndividual.wUserCount].szEMail));

  008ae	6a 21		 push	 33			; 00000021H
  008b0	0f b7 85 58 65
	fc ff		 movzx	 eax, WORD PTR _UserIndividual$13[ebp+4]
  008b7	69 c8 ea 00 00
	00		 imul	 ecx, eax, 234
  008bd	8d 94 0d 6e 65
	fc ff		 lea	 edx, DWORD PTR _UserIndividual$13[ebp+ecx+26]
  008c4	52		 push	 edx
  008c5	68 00 00 00 00	 push	 OFFSET ??_C@_05LMBPBNBJ@EMail@
  008ca	8b 4d e8	 mov	 ecx, DWORD PTR _this$[ebp]
  008cd	83 c1 04	 add	 ecx, 4
  008d0	ff 15 00 00 00
	00		 call	 DWORD PTR __imp_?GetValue_String@CDataBaseAide@@QAEXPBDPADI@Z

; 351  : 					m_AccountsDBAide.GetValue_String(TEXT("SeatPhone"),UserIndividual.UserIndividual[UserIndividual.wUserCount].szSeatPhone,CountArray(UserIndividual.UserIndividual[UserIndividual.wUserCount].szSeatPhone));

  008d6	6a 21		 push	 33			; 00000021H
  008d8	0f b7 85 58 65
	fc ff		 movzx	 eax, WORD PTR _UserIndividual$13[ebp+4]
  008df	69 c8 ea 00 00
	00		 imul	 ecx, eax, 234
  008e5	8d 94 0d 8f 65
	fc ff		 lea	 edx, DWORD PTR _UserIndividual$13[ebp+ecx+59]
  008ec	52		 push	 edx
  008ed	68 00 00 00 00	 push	 OFFSET ??_C@_09MAIOJANC@SeatPhone@
  008f2	8b 4d e8	 mov	 ecx, DWORD PTR _this$[ebp]
  008f5	83 c1 04	 add	 ecx, 4
  008f8	ff 15 00 00 00
	00		 call	 DWORD PTR __imp_?GetValue_String@CDataBaseAide@@QAEXPBDPADI@Z

; 352  : 					m_AccountsDBAide.GetValue_String(TEXT("MobilePhone"),UserIndividual.UserIndividual[UserIndividual.wUserCount].szMobilePhone,CountArray(UserIndividual.UserIndividual[UserIndividual.wUserCount].szMobilePhone));

  008fe	6a 0c		 push	 12			; 0000000cH
  00900	0f b7 85 58 65
	fc ff		 movzx	 eax, WORD PTR _UserIndividual$13[ebp+4]
  00907	69 c8 ea 00 00
	00		 imul	 ecx, eax, 234
  0090d	8d 94 0d b0 65
	fc ff		 lea	 edx, DWORD PTR _UserIndividual$13[ebp+ecx+92]
  00914	52		 push	 edx
  00915	68 00 00 00 00	 push	 OFFSET ??_C@_0M@OJIHCJC@MobilePhone@
  0091a	8b 4d e8	 mov	 ecx, DWORD PTR _this$[ebp]
  0091d	83 c1 04	 add	 ecx, 4
  00920	ff 15 00 00 00
	00		 call	 DWORD PTR __imp_?GetValue_String@CDataBaseAide@@QAEXPBDPADI@Z

; 353  : 					m_AccountsDBAide.GetValue_String(TEXT("DwellingPlace"),UserIndividual.UserIndividual[UserIndividual.wUserCount].szDwellingPlace,CountArray(UserIndividual.UserIndividual[UserIndividual.wUserCount].szDwellingPlace));

  00926	68 80 00 00 00	 push	 128			; 00000080H
  0092b	0f b7 85 58 65
	fc ff		 movzx	 eax, WORD PTR _UserIndividual$13[ebp+4]
  00932	69 c8 ea 00 00
	00		 imul	 ecx, eax, 234
  00938	8d 94 0d bc 65
	fc ff		 lea	 edx, DWORD PTR _UserIndividual$13[ebp+ecx+104]
  0093f	52		 push	 edx
  00940	68 00 00 00 00	 push	 OFFSET ??_C@_0O@GKEPGAEM@DwellingPlace@
  00945	8b 4d e8	 mov	 ecx, DWORD PTR _this$[ebp]
  00948	83 c1 04	 add	 ecx, 4
  0094b	ff 15 00 00 00
	00		 call	 DWORD PTR __imp_?GetValue_String@CDataBaseAide@@QAEXPBDPADI@Z

; 354  : 					m_AccountsDBAide.GetValue_String(TEXT("PostalCode"),UserIndividual.UserIndividual[UserIndividual.wUserCount].szPostalCode,CountArray(UserIndividual.UserIndividual[UserIndividual.wUserCount].szPostalCode));

  00951	6a 08		 push	 8
  00953	0f b7 85 58 65
	fc ff		 movzx	 eax, WORD PTR _UserIndividual$13[ebp+4]
  0095a	69 c8 ea 00 00
	00		 imul	 ecx, eax, 234
  00960	8d 94 0d 3c 66
	fc ff		 lea	 edx, DWORD PTR _UserIndividual$13[ebp+ecx+232]
  00967	52		 push	 edx
  00968	68 00 00 00 00	 push	 OFFSET ??_C@_0L@FEKLBNBC@PostalCode@
  0096d	8b 4d e8	 mov	 ecx, DWORD PTR _this$[ebp]
  00970	83 c1 04	 add	 ecx, 4
  00973	ff 15 00 00 00
	00		 call	 DWORD PTR __imp_?GetValue_String@CDataBaseAide@@QAEXPBDPADI@Z

; 355  : 
; 356  : 					//设置变量
; 357  : 					++UserFriendInfo.wFriendCount;

  00979	66 8b 85 c8 e0
	f9 ff		 mov	 ax, WORD PTR _UserFriendInfo$12[ebp+8]
  00980	66 83 c0 01	 add	 ax, 1
  00984	66 89 85 c8 e0
	f9 ff		 mov	 WORD PTR _UserFriendInfo$12[ebp+8], ax

; 358  : 					++UserIndividual.wUserCount;

  0098b	66 8b 85 58 65
	fc ff		 mov	 ax, WORD PTR _UserIndividual$13[ebp+4]
  00992	66 83 c0 01	 add	 ax, 1
  00996	66 89 85 58 65
	fc ff		 mov	 WORD PTR _UserIndividual$13[ebp+4], ax

; 359  : 
; 360  : 					//移动记录
; 361  : 					m_AccountsDBModule->MoveToNext();						

  0099d	8b 4d e8	 mov	 ecx, DWORD PTR _this$[ebp]
  009a0	83 c1 0c	 add	 ecx, 12			; 0000000cH
  009a3	e8 00 00 00 00	 call	 ??C?$CTempldateHelper@UIDataBase@@@@QBEPAUIDataBase@@XZ ; CTempldateHelper<IDataBase>::operator->
  009a8	89 85 98 47 f9
	ff		 mov	 DWORD PTR tv885[ebp], eax
  009ae	8b 85 98 47 f9
	ff		 mov	 eax, DWORD PTR tv885[ebp]
  009b4	89 85 94 47 f9
	ff		 mov	 DWORD PTR tv595[ebp], eax
  009ba	8b 8d 94 47 f9
	ff		 mov	 ecx, DWORD PTR tv595[ebp]
  009c0	8b 11		 mov	 edx, DWORD PTR [ecx]
  009c2	8b 8d 94 47 f9
	ff		 mov	 ecx, DWORD PTR tv595[ebp]
  009c8	8b 42 30	 mov	 eax, DWORD PTR [edx+48]
  009cb	ff d0		 call	 eax

; 362  : 				}

  009cd	e9 37 fc ff ff	 jmp	 $LN4@OnRequestL
$LN5@OnRequestL:

; 363  : 
; 364  : 				//投递数据
; 365  : 				WORD wDataSize = sizeof(UserFriendInfo)-sizeof(UserFriendInfo.FriendInfo)+sizeof(tagClientFriendInfo)*UserFriendInfo.wFriendCount;

  009d2	0f b7 85 c8 e0
	f9 ff		 movzx	 eax, WORD PTR _UserFriendInfo$12[ebp+8]
  009d9	69 c8 a5 00 00
	00		 imul	 ecx, eax, 165
  009df	83 c1 0c	 add	 ecx, 12			; 0000000cH
  009e2	66 89 8d bc e0
	f9 ff		 mov	 WORD PTR _wDataSize$11[ebp], cx

; 366  : 				m_pIDataBaseEngineEvent->OnEventDataBaseResult(DBO_GR_USER_FRIENDINFO,dwContextID,&UserFriendInfo,wDataSize);

  009e9	0f b7 85 bc e0
	f9 ff		 movzx	 eax, WORD PTR _wDataSize$11[ebp]
  009f0	50		 push	 eax
  009f1	8d 8d c0 e0 f9
	ff		 lea	 ecx, DWORD PTR _UserFriendInfo$12[ebp]
  009f7	51		 push	 ecx
  009f8	8b 55 08	 mov	 edx, DWORD PTR _dwContextID$[ebp]
  009fb	52		 push	 edx
  009fc	68 c9 00 00 00	 push	 201			; 000000c9H
  00a01	8b 45 e8	 mov	 eax, DWORD PTR _this$[ebp]
  00a04	8b 4d e8	 mov	 ecx, DWORD PTR _this$[ebp]
  00a07	8b 91 a8 05 00
	00		 mov	 edx, DWORD PTR [ecx+1448]
  00a0d	8b 12		 mov	 edx, DWORD PTR [edx]
  00a0f	8b 88 a8 05 00
	00		 mov	 ecx, DWORD PTR [eax+1448]
  00a15	8b 42 08	 mov	 eax, DWORD PTR [edx+8]
  00a18	ff d0		 call	 eax

; 367  : 
; 368  : 
; 369  : 				//投递数据
; 370  : 				wDataSize = sizeof(UserIndividual)-sizeof(UserIndividual.UserIndividual)+sizeof(tagUserIndividual)*UserIndividual.wUserCount;

  00a1a	0f b7 85 58 65
	fc ff		 movzx	 eax, WORD PTR _UserIndividual$13[ebp+4]
  00a21	69 c8 ea 00 00
	00		 imul	 ecx, eax, 234
  00a27	83 c1 08	 add	 ecx, 8
  00a2a	66 89 8d bc e0
	f9 ff		 mov	 WORD PTR _wDataSize$11[ebp], cx

; 371  : 				m_pIDataBaseEngineEvent->OnEventDataBaseResult(DBO_GR_USER_SINDIVIDUAL,dwContextID,&UserIndividual,wDataSize);

  00a31	0f b7 85 bc e0
	f9 ff		 movzx	 eax, WORD PTR _wDataSize$11[ebp]
  00a38	50		 push	 eax
  00a39	8d 8d 54 65 fc
	ff		 lea	 ecx, DWORD PTR _UserIndividual$13[ebp]
  00a3f	51		 push	 ecx
  00a40	8b 55 08	 mov	 edx, DWORD PTR _dwContextID$[ebp]
  00a43	52		 push	 edx
  00a44	68 cb 00 00 00	 push	 203			; 000000cbH
  00a49	8b 45 e8	 mov	 eax, DWORD PTR _this$[ebp]
  00a4c	8b 4d e8	 mov	 ecx, DWORD PTR _this$[ebp]
  00a4f	8b 91 a8 05 00
	00		 mov	 edx, DWORD PTR [ecx+1448]
  00a55	8b 12		 mov	 edx, DWORD PTR [edx]
  00a57	8b 88 a8 05 00
	00		 mov	 ecx, DWORD PTR [eax+1448]
  00a5d	8b 42 08	 mov	 eax, DWORD PTR [edx+8]
  00a60	ff d0		 call	 eax
$LN18@OnRequestL:

; 372  : 			}
; 373  : 		}
; 374  : 
; 375  : 		//加载备注
; 376  : 		if(pLogonUserID->wLogonComand&LOGON_COMMAND_REMARKS)

  00a62	8b 45 e4	 mov	 eax, DWORD PTR _pLogonUserID$[ebp]
  00a65	0f b6 48 3a	 movzx	 ecx, BYTE PTR [eax+58]
  00a69	83 e1 10	 and	 ecx, 16			; 00000010H
  00a6c	0f 84 e0 01 00
	00		 je	 $LN20@OnRequestL

; 377  : 		{
; 378  : 			//构造参数
; 379  : 			m_AccountsDBAide.ResetParameter();

  00a72	8b 4d e8	 mov	 ecx, DWORD PTR _this$[ebp]
  00a75	83 c1 04	 add	 ecx, 4
  00a78	ff 15 00 00 00
	00		 call	 DWORD PTR __imp_?ResetParameter@CDataBaseAide@@QAEXXZ

; 380  : 			m_AccountsDBAide.AddParameter(TEXT("@dwUserID"),pLogonUserID->dwUserID);

  00a7e	6a 01		 push	 1
  00a80	8b 45 e4	 mov	 eax, DWORD PTR _pLogonUserID$[ebp]
  00a83	8b 08		 mov	 ecx, DWORD PTR [eax]
  00a85	51		 push	 ecx
  00a86	68 00 00 00 00	 push	 OFFSET ??_C@_09KCDEMNBD@?$EAdwUserID@
  00a8b	8b 4d e8	 mov	 ecx, DWORD PTR _this$[ebp]
  00a8e	83 c1 04	 add	 ecx, 4
  00a91	ff 15 00 00 00
	00		 call	 DWORD PTR __imp_?AddParameter@CDataBaseAide@@QAEXPBDKW4ParameterDirectionEnum@ADOCG@@@Z

; 381  : 			m_AccountsDBAide.AddParameterOutput(TEXT("@strErrorDescribe"),m_LogonFailure.szDescribeString,sizeof(m_LogonFailure.szDescribeString),adParamOutput);

  00a97	6a 02		 push	 2
  00a99	68 80 00 00 00	 push	 128			; 00000080H
  00a9e	8b 45 e8	 mov	 eax, DWORD PTR _this$[ebp]
  00aa1	05 b0 05 00 00	 add	 eax, 1456		; 000005b0H
  00aa6	50		 push	 eax
  00aa7	68 00 00 00 00	 push	 OFFSET ??_C@_0BC@IIOJPJPJ@?$EAstrErrorDescribe@
  00aac	8b 4d e8	 mov	 ecx, DWORD PTR _this$[ebp]
  00aaf	83 c1 04	 add	 ecx, 4
  00ab2	ff 15 00 00 00
	00		 call	 DWORD PTR __imp_?AddParameterOutput@CDataBaseAide@@QAEXPBDPADIW4ParameterDirectionEnum@ADOCG@@@Z

; 382  : 
; 383  : 			//执行查询
; 384  : 			LONG lResultCode=m_AccountsDBAide.ExecuteProcess(TEXT("GSP_GP_LoadFriendRemarks"),true);

  00ab8	6a 01		 push	 1
  00aba	68 00 00 00 00	 push	 OFFSET ??_C@_0BJ@KGPDMKAJ@GSP_GP_LoadFriendRemarks@
  00abf	8b 4d e8	 mov	 ecx, DWORD PTR _this$[ebp]
  00ac2	83 c1 04	 add	 ecx, 4
  00ac5	ff 15 00 00 00
	00		 call	 DWORD PTR __imp_?ExecuteProcess@CDataBaseAide@@QAEJPBD_N@Z
  00acb	89 85 98 47 f9
	ff		 mov	 DWORD PTR tv886[ebp], eax
  00ad1	8b 85 98 47 f9
	ff		 mov	 eax, DWORD PTR tv886[ebp]
  00ad7	89 85 b8 e0 f9
	ff		 mov	 DWORD PTR _lResultCode$10[ebp], eax

; 385  : 
; 386  : 			//执行成功
; 387  : 			if(lResultCode==DB_SUCCESS && m_AccountsDBModule.GetInterface())

  00add	83 bd b8 e0 f9
	ff 00		 cmp	 DWORD PTR _lResultCode$10[ebp], 0
  00ae4	0f 85 68 01 00
	00		 jne	 $LN20@OnRequestL
  00aea	8b 4d e8	 mov	 ecx, DWORD PTR _this$[ebp]
  00aed	83 c1 0c	 add	 ecx, 12			; 0000000cH
  00af0	e8 00 00 00 00	 call	 ?GetInterface@?$CTempldateHelper@UIDataBase@@@@QBEPAUIDataBase@@XZ ; CTempldateHelper<IDataBase>::GetInterface
  00af5	89 85 98 47 f9
	ff		 mov	 DWORD PTR tv887[ebp], eax
  00afb	83 bd 98 47 f9
	ff 00		 cmp	 DWORD PTR tv887[ebp], 0
  00b02	0f 84 4a 01 00
	00		 je	 $LN20@OnRequestL

; 388  : 			{
; 389  : 				//变量定义
; 390  : 				DBO_GR_UserRemarksInfo UserRemarksInfo;
; 391  : 				ZeroMemory(&UserRemarksInfo,sizeof(UserRemarksInfo));

  00b08	68 a8 8c 00 00	 push	 36008			; 00008ca8H
  00b0d	6a 00		 push	 0
  00b0f	8d 85 10 54 f9
	ff		 lea	 eax, DWORD PTR _UserRemarksInfo$9[ebp]
  00b15	50		 push	 eax
  00b16	e8 00 00 00 00	 call	 _memset
  00b1b	83 c4 0c	 add	 esp, 12			; 0000000cH

; 392  : 
; 393  : 				//设置变量
; 394  : 				UserRemarksInfo.dwUserID = pLogonUserID->dwUserID;

  00b1e	8b 45 e4	 mov	 eax, DWORD PTR _pLogonUserID$[ebp]
  00b21	8b 08		 mov	 ecx, DWORD PTR [eax]
  00b23	89 8d 10 54 f9
	ff		 mov	 DWORD PTR _UserRemarksInfo$9[ebp], ecx
$LN6@OnRequestL:

; 395  : 
; 396  : 				//遍历记录集
; 397  : 				while(m_AccountsDBModule->IsRecordsetEnd()==false)

  00b29	8b 4d e8	 mov	 ecx, DWORD PTR _this$[ebp]
  00b2c	83 c1 0c	 add	 ecx, 12			; 0000000cH
  00b2f	e8 00 00 00 00	 call	 ??C?$CTempldateHelper@UIDataBase@@@@QBEPAUIDataBase@@XZ ; CTempldateHelper<IDataBase>::operator->
  00b34	89 85 98 47 f9
	ff		 mov	 DWORD PTR tv888[ebp], eax
  00b3a	8b 85 98 47 f9
	ff		 mov	 eax, DWORD PTR tv888[ebp]
  00b40	89 85 94 47 f9
	ff		 mov	 DWORD PTR tv674[ebp], eax
  00b46	8b 8d 94 47 f9
	ff		 mov	 ecx, DWORD PTR tv674[ebp]
  00b4c	8b 11		 mov	 edx, DWORD PTR [ecx]
  00b4e	8b 8d 94 47 f9
	ff		 mov	 ecx, DWORD PTR tv674[ebp]
  00b54	8b 42 38	 mov	 eax, DWORD PTR [edx+56]
  00b57	ff d0		 call	 eax
  00b59	88 85 93 47 f9
	ff		 mov	 BYTE PTR tv889[ebp], al
  00b5f	0f b6 8d 93 47
	f9 ff		 movzx	 ecx, BYTE PTR tv889[ebp]
  00b66	85 c9		 test	 ecx, ecx
  00b68	0f 85 9a 00 00
	00		 jne	 $LN7@OnRequestL

; 398  : 				{
; 399  : 					//好友信息
; 400  : 					UserRemarksInfo.RemarksInfo[UserRemarksInfo.wFriendCount].dwFriendUserID=m_AccountsDBAide.GetValue_DWORD(TEXT("UserID"));

  00b6e	68 00 00 00 00	 push	 OFFSET ??_C@_06OFHCDFJK@UserID@
  00b73	8b 4d e8	 mov	 ecx, DWORD PTR _this$[ebp]
  00b76	83 c1 04	 add	 ecx, 4
  00b79	ff 15 00 00 00
	00		 call	 DWORD PTR __imp_?GetValue_DWORD@CDataBaseAide@@QAEKPBD@Z
  00b7f	89 85 98 47 f9
	ff		 mov	 DWORD PTR tv890[ebp], eax
  00b85	0f b7 85 14 54
	f9 ff		 movzx	 eax, WORD PTR _UserRemarksInfo$9[ebp+4]
  00b8c	6b c8 24	 imul	 ecx, eax, 36
  00b8f	8b 95 98 47 f9
	ff		 mov	 edx, DWORD PTR tv890[ebp]
  00b95	89 94 0d 16 54
	f9 ff		 mov	 DWORD PTR _UserRemarksInfo$9[ebp+ecx+6], edx

; 401  : 					m_AccountsDBAide.GetValue_String(TEXT("UserNote"),UserRemarksInfo.RemarksInfo[UserRemarksInfo.wFriendCount].szRemarksInfo,CountArray(UserRemarksInfo.RemarksInfo[UserRemarksInfo.wFriendCount].szRemarksInfo));

  00b9c	6a 20		 push	 32			; 00000020H
  00b9e	0f b7 85 14 54
	f9 ff		 movzx	 eax, WORD PTR _UserRemarksInfo$9[ebp+4]
  00ba5	6b c8 24	 imul	 ecx, eax, 36
  00ba8	8d 94 0d 1a 54
	f9 ff		 lea	 edx, DWORD PTR _UserRemarksInfo$9[ebp+ecx+10]
  00baf	52		 push	 edx
  00bb0	68 00 00 00 00	 push	 OFFSET ??_C@_08FDHMOIIA@UserNote@
  00bb5	8b 4d e8	 mov	 ecx, DWORD PTR _this$[ebp]
  00bb8	83 c1 04	 add	 ecx, 4
  00bbb	ff 15 00 00 00
	00		 call	 DWORD PTR __imp_?GetValue_String@CDataBaseAide@@QAEXPBDPADI@Z

; 402  : 
; 403  : 					//设置变量
; 404  : 					++UserRemarksInfo.wFriendCount;

  00bc1	66 8b 85 14 54
	f9 ff		 mov	 ax, WORD PTR _UserRemarksInfo$9[ebp+4]
  00bc8	66 83 c0 01	 add	 ax, 1
  00bcc	66 89 85 14 54
	f9 ff		 mov	 WORD PTR _UserRemarksInfo$9[ebp+4], ax

; 405  : 
; 406  : 					//移动记录
; 407  : 					m_AccountsDBModule->MoveToNext();						

  00bd3	8b 4d e8	 mov	 ecx, DWORD PTR _this$[ebp]
  00bd6	83 c1 0c	 add	 ecx, 12			; 0000000cH
  00bd9	e8 00 00 00 00	 call	 ??C?$CTempldateHelper@UIDataBase@@@@QBEPAUIDataBase@@XZ ; CTempldateHelper<IDataBase>::operator->
  00bde	89 85 98 47 f9
	ff		 mov	 DWORD PTR tv891[ebp], eax
  00be4	8b 85 98 47 f9
	ff		 mov	 eax, DWORD PTR tv891[ebp]
  00bea	89 85 94 47 f9
	ff		 mov	 DWORD PTR tv706[ebp], eax
  00bf0	8b 8d 94 47 f9
	ff		 mov	 ecx, DWORD PTR tv706[ebp]
  00bf6	8b 11		 mov	 edx, DWORD PTR [ecx]
  00bf8	8b 8d 94 47 f9
	ff		 mov	 ecx, DWORD PTR tv706[ebp]
  00bfe	8b 42 30	 mov	 eax, DWORD PTR [edx+48]
  00c01	ff d0		 call	 eax

; 408  : 				}

  00c03	e9 21 ff ff ff	 jmp	 $LN6@OnRequestL
$LN7@OnRequestL:

; 409  : 
; 410  : 				//数目判断
; 411  : 				if(UserRemarksInfo.wFriendCount>0)

  00c08	0f b7 85 14 54
	f9 ff		 movzx	 eax, WORD PTR _UserRemarksInfo$9[ebp+4]
  00c0f	85 c0		 test	 eax, eax
  00c11	7e 3f		 jle	 SHORT $LN20@OnRequestL

; 412  : 				{
; 413  : 					//投递数据
; 414  : 					wDataSize = sizeof(UserRemarksInfo)-sizeof(UserRemarksInfo.RemarksInfo)+sizeof(tagUserRemarksInfo)*UserRemarksInfo.wFriendCount;

  00c13	0f b7 85 14 54
	f9 ff		 movzx	 eax, WORD PTR _UserRemarksInfo$9[ebp+4]
  00c1a	6b c8 24	 imul	 ecx, eax, 36
  00c1d	83 c1 08	 add	 ecx, 8
  00c20	66 89 4d 10	 mov	 WORD PTR _wDataSize$[ebp], cx

; 415  : 					m_pIDataBaseEngineEvent->OnEventDataBaseResult(DBO_GR_USER_REMARKS,dwContextID,&UserRemarksInfo,wDataSize);

  00c24	0f b7 45 10	 movzx	 eax, WORD PTR _wDataSize$[ebp]
  00c28	50		 push	 eax
  00c29	8d 8d 10 54 f9
	ff		 lea	 ecx, DWORD PTR _UserRemarksInfo$9[ebp]
  00c2f	51		 push	 ecx
  00c30	8b 55 08	 mov	 edx, DWORD PTR _dwContextID$[ebp]
  00c33	52		 push	 edx
  00c34	68 ca 00 00 00	 push	 202			; 000000caH
  00c39	8b 45 e8	 mov	 eax, DWORD PTR _this$[ebp]
  00c3c	8b 4d e8	 mov	 ecx, DWORD PTR _this$[ebp]
  00c3f	8b 91 a8 05 00
	00		 mov	 edx, DWORD PTR [ecx+1448]
  00c45	8b 12		 mov	 edx, DWORD PTR [edx]
  00c47	8b 88 a8 05 00
	00		 mov	 ecx, DWORD PTR [eax+1448]
  00c4d	8b 42 08	 mov	 eax, DWORD PTR [edx+8]
  00c50	ff d0		 call	 eax
$LN20@OnRequestL:

; 416  : 				}
; 417  : 			}
; 418  : 		}
; 419  : 
; 420  : 		//变量定义
; 421  : 		TCHAR szDescribeString[128]=TEXT("");

  00c52	a0 00 00 00 00	 mov	 al, BYTE PTR ??_C@_00CNPNBAHC@@
  00c57	88 85 90 53 f9
	ff		 mov	 BYTE PTR _szDescribeString$8[ebp], al
  00c5d	6a 7f		 push	 127			; 0000007fH
  00c5f	6a 00		 push	 0
  00c61	8d 85 91 53 f9
	ff		 lea	 eax, DWORD PTR _szDescribeString$8[ebp+1]
  00c67	50		 push	 eax
  00c68	e8 00 00 00 00	 call	 _memset
  00c6d	83 c4 0c	 add	 esp, 12			; 0000000cH

; 422  : 
; 423  : 		//加载离线消息
; 424  : 		m_AccountsDBAide.ResetParameter();

  00c70	8b 4d e8	 mov	 ecx, DWORD PTR _this$[ebp]
  00c73	83 c1 04	 add	 ecx, 4
  00c76	ff 15 00 00 00
	00		 call	 DWORD PTR __imp_?ResetParameter@CDataBaseAide@@QAEXXZ

; 425  : 		m_AccountsDBAide.AddParameter(TEXT("@dwUserID"),pLogonUserID->dwUserID);

  00c7c	6a 01		 push	 1
  00c7e	8b 45 e4	 mov	 eax, DWORD PTR _pLogonUserID$[ebp]
  00c81	8b 08		 mov	 ecx, DWORD PTR [eax]
  00c83	51		 push	 ecx
  00c84	68 00 00 00 00	 push	 OFFSET ??_C@_09KCDEMNBD@?$EAdwUserID@
  00c89	8b 4d e8	 mov	 ecx, DWORD PTR _this$[ebp]
  00c8c	83 c1 04	 add	 ecx, 4
  00c8f	ff 15 00 00 00
	00		 call	 DWORD PTR __imp_?AddParameter@CDataBaseAide@@QAEXPBDKW4ParameterDirectionEnum@ADOCG@@@Z

; 426  : 		m_AccountsDBAide.AddParameterOutput(TEXT("@strErrorDescribe"),szDescribeString,sizeof(szDescribeString),adParamOutput);

  00c95	6a 02		 push	 2
  00c97	68 80 00 00 00	 push	 128			; 00000080H
  00c9c	8d 85 90 53 f9
	ff		 lea	 eax, DWORD PTR _szDescribeString$8[ebp]
  00ca2	50		 push	 eax
  00ca3	68 00 00 00 00	 push	 OFFSET ??_C@_0BC@IIOJPJPJ@?$EAstrErrorDescribe@
  00ca8	8b 4d e8	 mov	 ecx, DWORD PTR _this$[ebp]
  00cab	83 c1 04	 add	 ecx, 4
  00cae	ff 15 00 00 00
	00		 call	 DWORD PTR __imp_?AddParameterOutput@CDataBaseAide@@QAEXPBDPADIW4ParameterDirectionEnum@ADOCG@@@Z

; 427  : 
; 428  : 		//执行查询
; 429  : 		LONG lResultCode=m_AccountsDBAide.ExecuteProcess(TEXT("GSP_GP_LoadOfflineMessage"),true);

  00cb4	6a 01		 push	 1
  00cb6	68 00 00 00 00	 push	 OFFSET ??_C@_0BK@LIJMOBAN@GSP_GP_LoadOfflineMessage@
  00cbb	8b 4d e8	 mov	 ecx, DWORD PTR _this$[ebp]
  00cbe	83 c1 04	 add	 ecx, 4
  00cc1	ff 15 00 00 00
	00		 call	 DWORD PTR __imp_?ExecuteProcess@CDataBaseAide@@QAEJPBD_N@Z
  00cc7	89 85 98 47 f9
	ff		 mov	 DWORD PTR tv892[ebp], eax
  00ccd	8b 85 98 47 f9
	ff		 mov	 eax, DWORD PTR tv892[ebp]
  00cd3	89 85 8c 53 f9
	ff		 mov	 DWORD PTR _lResultCode$7[ebp], eax

; 430  : 
; 431  : 		//执行成功
; 432  : 		if(lResultCode==DB_SUCCESS && m_AccountsDBModule.GetInterface())

  00cd9	83 bd 8c 53 f9
	ff 00		 cmp	 DWORD PTR _lResultCode$7[ebp], 0
  00ce0	0f 85 45 01 00
	00		 jne	 $LN23@OnRequestL
  00ce6	8b 4d e8	 mov	 ecx, DWORD PTR _this$[ebp]
  00ce9	83 c1 0c	 add	 ecx, 12			; 0000000cH
  00cec	e8 00 00 00 00	 call	 ?GetInterface@?$CTempldateHelper@UIDataBase@@@@QBEPAUIDataBase@@XZ ; CTempldateHelper<IDataBase>::GetInterface
  00cf1	89 85 98 47 f9
	ff		 mov	 DWORD PTR tv893[ebp], eax
  00cf7	83 bd 98 47 f9
	ff 00		 cmp	 DWORD PTR tv893[ebp], 0
  00cfe	0f 84 27 01 00
	00		 je	 $LN23@OnRequestL

; 433  : 		{
; 434  : 			//变量定义
; 435  : 			DBO_GR_UserOfflineMessage UserOfflineMessage;
; 436  : 			ZeroMemory(&UserOfflineMessage,sizeof(UserOfflineMessage));

  00d04	68 64 09 00 00	 push	 2404			; 00000964H
  00d09	6a 00		 push	 0
  00d0b	8d 85 28 4a f9
	ff		 lea	 eax, DWORD PTR _UserOfflineMessage$6[ebp]
  00d11	50		 push	 eax
  00d12	e8 00 00 00 00	 call	 _memset
  00d17	83 c4 0c	 add	 esp, 12			; 0000000cH
$LN8@OnRequestL:

; 437  : 
; 438  : 			//遍历记录集
; 439  : 			while(m_AccountsDBModule->IsRecordsetEnd()==false)

  00d1a	8b 4d e8	 mov	 ecx, DWORD PTR _this$[ebp]
  00d1d	83 c1 0c	 add	 ecx, 12			; 0000000cH
  00d20	e8 00 00 00 00	 call	 ??C?$CTempldateHelper@UIDataBase@@@@QBEPAUIDataBase@@XZ ; CTempldateHelper<IDataBase>::operator->
  00d25	89 85 98 47 f9
	ff		 mov	 DWORD PTR tv894[ebp], eax
  00d2b	8b 85 98 47 f9
	ff		 mov	 eax, DWORD PTR tv894[ebp]
  00d31	89 85 94 47 f9
	ff		 mov	 DWORD PTR tv773[ebp], eax
  00d37	8b 8d 94 47 f9
	ff		 mov	 ecx, DWORD PTR tv773[ebp]
  00d3d	8b 11		 mov	 edx, DWORD PTR [ecx]
  00d3f	8b 8d 94 47 f9
	ff		 mov	 ecx, DWORD PTR tv773[ebp]
  00d45	8b 42 38	 mov	 eax, DWORD PTR [edx+56]
  00d48	ff d0		 call	 eax
  00d4a	88 85 93 47 f9
	ff		 mov	 BYTE PTR tv895[ebp], al
  00d50	0f b6 8d 93 47
	f9 ff		 movzx	 ecx, BYTE PTR tv895[ebp]
  00d57	85 c9		 test	 ecx, ecx
  00d59	0f 85 cc 00 00
	00		 jne	 $LN23@OnRequestL

; 440  : 			{				
; 441  : 				UserOfflineMessage.wMessageType=m_AccountsDBAide.GetValue_WORD(TEXT("MessageType"));

  00d5f	68 00 00 00 00	 push	 OFFSET ??_C@_0M@ECIDEJHH@MessageType@
  00d64	8b 4d e8	 mov	 ecx, DWORD PTR _this$[ebp]
  00d67	83 c1 04	 add	 ecx, 4
  00d6a	ff 15 00 00 00
	00		 call	 DWORD PTR __imp_?GetValue_WORD@CDataBaseAide@@QAEGPBD@Z
  00d70	66 89 85 9c 47
	f9 ff		 mov	 WORD PTR tv896[ebp], ax
  00d77	66 8b 85 9c 47
	f9 ff		 mov	 ax, WORD PTR tv896[ebp]
  00d7e	66 89 85 28 4a
	f9 ff		 mov	 WORD PTR _UserOfflineMessage$6[ebp], ax

; 442  : 				UserOfflineMessage.wDataSize =m_AccountsDBAide.GetValue_WORD(TEXT("DataSize"));

  00d85	68 00 00 00 00	 push	 OFFSET ??_C@_08CFDHEOEO@DataSize@
  00d8a	8b 4d e8	 mov	 ecx, DWORD PTR _this$[ebp]
  00d8d	83 c1 04	 add	 ecx, 4
  00d90	ff 15 00 00 00
	00		 call	 DWORD PTR __imp_?GetValue_WORD@CDataBaseAide@@QAEGPBD@Z
  00d96	66 89 85 9c 47
	f9 ff		 mov	 WORD PTR tv897[ebp], ax
  00d9d	66 8b 85 9c 47
	f9 ff		 mov	 ax, WORD PTR tv897[ebp]
  00da4	66 89 85 2a 4a
	f9 ff		 mov	 WORD PTR _UserOfflineMessage$6[ebp+2], ax

; 443  : 				m_AccountsDBAide.GetValue_String(TEXT("OfflineData"),UserOfflineMessage.szOfflineData,CountArray(UserOfflineMessage.szOfflineData));

  00dab	68 60 09 00 00	 push	 2400			; 00000960H
  00db0	8d 85 2c 4a f9
	ff		 lea	 eax, DWORD PTR _UserOfflineMessage$6[ebp+4]
  00db6	50		 push	 eax
  00db7	68 00 00 00 00	 push	 OFFSET ??_C@_0M@FFPBKNKJ@OfflineData@
  00dbc	8b 4d e8	 mov	 ecx, DWORD PTR _this$[ebp]
  00dbf	83 c1 04	 add	 ecx, 4
  00dc2	ff 15 00 00 00
	00		 call	 DWORD PTR __imp_?GetValue_String@CDataBaseAide@@QAEXPBDPADI@Z

; 444  : 
; 445  : 				//移动记录
; 446  : 				m_AccountsDBModule->MoveToNext();	

  00dc8	8b 4d e8	 mov	 ecx, DWORD PTR _this$[ebp]
  00dcb	83 c1 0c	 add	 ecx, 12			; 0000000cH
  00dce	e8 00 00 00 00	 call	 ??C?$CTempldateHelper@UIDataBase@@@@QBEPAUIDataBase@@XZ ; CTempldateHelper<IDataBase>::operator->
  00dd3	89 85 98 47 f9
	ff		 mov	 DWORD PTR tv898[ebp], eax
  00dd9	8b 85 98 47 f9
	ff		 mov	 eax, DWORD PTR tv898[ebp]
  00ddf	89 85 94 47 f9
	ff		 mov	 DWORD PTR tv832[ebp], eax
  00de5	8b 8d 94 47 f9
	ff		 mov	 ecx, DWORD PTR tv832[ebp]
  00deb	8b 11		 mov	 edx, DWORD PTR [ecx]
  00ded	8b 8d 94 47 f9
	ff		 mov	 ecx, DWORD PTR tv832[ebp]
  00df3	8b 42 30	 mov	 eax, DWORD PTR [edx+48]
  00df6	ff d0		 call	 eax

; 447  : 
; 448  : 				//投递数据
; 449  : 				m_pIDataBaseEngineEvent->OnEventDataBaseResult(DBO_GR_LOAD_OFFLINEMESSAGE,dwContextID,&UserOfflineMessage,sizeof(UserOfflineMessage));		

  00df8	68 64 09 00 00	 push	 2404			; 00000964H
  00dfd	8d 85 28 4a f9
	ff		 lea	 eax, DWORD PTR _UserOfflineMessage$6[ebp]
  00e03	50		 push	 eax
  00e04	8b 4d 08	 mov	 ecx, DWORD PTR _dwContextID$[ebp]
  00e07	51		 push	 ecx
  00e08	68 cc 00 00 00	 push	 204			; 000000ccH
  00e0d	8b 55 e8	 mov	 edx, DWORD PTR _this$[ebp]
  00e10	8b 45 e8	 mov	 eax, DWORD PTR _this$[ebp]
  00e13	8b 88 a8 05 00
	00		 mov	 ecx, DWORD PTR [eax+1448]
  00e19	8b 01		 mov	 eax, DWORD PTR [ecx]
  00e1b	8b 8a a8 05 00
	00		 mov	 ecx, DWORD PTR [edx+1448]
  00e21	8b 50 08	 mov	 edx, DWORD PTR [eax+8]
  00e24	ff d2		 call	 edx

; 450  : 			}

  00e26	e9 ef fe ff ff	 jmp	 $LN8@OnRequestL
$LN23@OnRequestL:

; 451  : 		}
; 452  : 
; 453  : 		return true;

  00e2b	b0 01		 mov	 al, 1
  00e2d	eb 65		 jmp	 SHORT $LN1@OnRequestL
__catch$?OnRequestLogonUserID@CDataBaseEngineSink@@IAE_NKPAXG@Z$0:

; 454  : 	}
; 455  : 	catch (IDataBaseException * pIException)
; 456  : 	{
; 457  : 		//错误信息
; 458  : 		CTraceService::TraceString(pIException->GetExceptionDescribe(),TraceLevel_Exception);

  00e2f	6a 03		 push	 3
  00e31	8b 85 24 4a f9
	ff		 mov	 eax, DWORD PTR _pIException$5[ebp]
  00e37	8b 10		 mov	 edx, DWORD PTR [eax]
  00e39	8b 8d 24 4a f9
	ff		 mov	 ecx, DWORD PTR _pIException$5[ebp]
  00e3f	8b 42 0c	 mov	 eax, DWORD PTR [edx+12]
  00e42	ff d0		 call	 eax
  00e44	50		 push	 eax
  00e45	ff 15 00 00 00
	00		 call	 DWORD PTR __imp_?TraceString@CTraceService@@SA_NPBDW4enTraceLevel@@@Z
  00e4b	83 c4 08	 add	 esp, 8

; 459  : 
; 460  : 		//错误处理
; 461  : 		OnLogonDisposeResult(dwContextID,DB_ERROR,TEXT("由于数据库操作异常，请您稍后重试或选择另一服务器登录！"),false);

  00e4e	6a 00		 push	 0
  00e50	6a 00		 push	 0
  00e52	6a 00		 push	 0
  00e54	68 00 00 00 00	 push	 OFFSET ??_C@_0DH@NMJACNII@?S?I?S?Z?J?$PN?$LO?$NN?$LP?b?$LC?Y?W?w?R?l?$LD?$KD?$KD?$KM?G?k?D?z?I?T?$LK?s?V?X?J@
  00e59	6a ff		 push	 -1
  00e5b	8b 45 08	 mov	 eax, DWORD PTR _dwContextID$[ebp]
  00e5e	50		 push	 eax
  00e5f	8b 4d e8	 mov	 ecx, DWORD PTR _this$[ebp]
  00e62	e8 00 00 00 00	 call	 ?OnLogonDisposeResult@CDataBaseEngineSink@@AAEXKKPBD_NGG@Z ; CDataBaseEngineSink::OnLogonDisposeResult

; 462  : 
; 463  : 		return false;

  00e67	c6 85 9e 47 f9
	ff 00		 mov	 BYTE PTR $T2[ebp], 0
  00e6e	b8 00 00 00 00	 mov	 eax, $LN31@OnRequestL
  00e73	c3		 ret	 0

; 464  : 	}

  00e74	b8 00 00 00 00	 mov	 eax, __tryend$?OnRequestLogonUserID@CDataBaseEngineSink@@IAE_NKPAXG@Z$1
  00e79	c3		 ret	 0
__tryend$?OnRequestLogonUserID@CDataBaseEngineSink@@IAE_NKPAXG@Z$1:
  00e7a	c7 45 fc ff ff
	ff ff		 mov	 DWORD PTR __$EHRec$[ebp+12], -1
  00e81	eb 0f		 jmp	 SHORT $LN30@OnRequestL
$LN31@OnRequestL:
  00e83	c7 45 fc ff ff
	ff ff		 mov	 DWORD PTR __$EHRec$[ebp+12], -1

; 462  : 
; 463  : 		return false;

  00e8a	8a 85 9e 47 f9
	ff		 mov	 al, BYTE PTR $T2[ebp]
  00e90	eb 02		 jmp	 SHORT $LN1@OnRequestL
$LN30@OnRequestL:

; 465  : 
; 466  : 	return true;

  00e92	b0 01		 mov	 al, 1
$LN1@OnRequestL:

; 467  : }

  00e94	8b 4d f4	 mov	 ecx, DWORD PTR __$EHRec$[ebp+4]
  00e97	64 89 0d 00 00
	00 00		 mov	 DWORD PTR fs:0, ecx
  00e9e	59		 pop	 ecx
  00e9f	5f		 pop	 edi
  00ea0	5e		 pop	 esi
  00ea1	5b		 pop	 ebx
  00ea2	8b 4d ec	 mov	 ecx, DWORD PTR __$ArrayPad$[ebp]
  00ea5	33 cd		 xor	 ecx, ebp
  00ea7	e8 00 00 00 00	 call	 @__security_check_cookie@4
  00eac	8b e5		 mov	 esp, ebp
  00eae	5d		 pop	 ebp
  00eaf	c2 0c 00	 ret	 12			; 0000000cH
_TEXT	ENDS
;	COMDAT text$x
text$x	SEGMENT
__unwindfunclet$?OnRequestLogonUserID@CDataBaseEngineSink@@IAE_NKPAXG@Z$2:
  00000	8d 4d bc	 lea	 ecx, DWORD PTR _DBVarValue$21[ebp]
  00003	e9 00 00 00 00	 jmp	 ??1_variant_t@@QAE@XZ	; _variant_t::~_variant_t
__unwindfunclet$?OnRequestLogonUserID@CDataBaseEngineSink@@IAE_NKPAXG@Z$3:
  00008	8d 8d a0 47 f9
	ff		 lea	 ecx, DWORD PTR $T4[ebp]
  0000e	e9 00 00 00 00	 jmp	 ??1?$CW2AEX@$0IA@@ATL@@QAE@XZ ; ATL::CW2AEX<128>::~CW2AEX<128>
__ehhandler$?OnRequestLogonUserID@CDataBaseEngineSink@@IAE_NKPAXG@Z:
  00013	8b 54 24 08	 mov	 edx, DWORD PTR [esp+8]
  00017	8d 42 0c	 lea	 eax, DWORD PTR [edx+12]
  0001a	8b 8a 8c 47 f9
	ff		 mov	 ecx, DWORD PTR [edx-440436]
  00020	33 c8		 xor	 ecx, eax
  00022	e8 00 00 00 00	 call	 @__security_check_cookie@4
  00027	8b 4a f8	 mov	 ecx, DWORD PTR [edx-8]
  0002a	33 c8		 xor	 ecx, eax
  0002c	e8 00 00 00 00	 call	 @__security_check_cookie@4
  00031	b8 00 00 00 00	 mov	 eax, OFFSET __ehfuncinfo$?OnRequestLogonUserID@CDataBaseEngineSink@@IAE_NKPAXG@Z
  00036	e9 00 00 00 00	 jmp	 ___CxxFrameHandler3
text$x	ENDS
?OnRequestLogonUserID@CDataBaseEngineSink@@IAE_NKPAXG@Z ENDP ; CDataBaseEngineSink::OnRequestLogonUserID
; Function compile flags: /Odtp /ZI
; File g:\网狐\happygamewh\服务端\系统模块\服务器组件\聊天服务器\databaseenginesink.cpp
;	COMDAT ?OnDataBaseEngineRequest@CDataBaseEngineSink@@UAE_NGKPAXG@Z
_TEXT	SEGMENT
tv65 = -72						; size = 4
_this$ = -4						; size = 4
_wRequestID$ = 8					; size = 2
_dwContextID$ = 12					; size = 4
_pData$ = 16						; size = 4
_wDataSize$ = 20					; size = 2
?OnDataBaseEngineRequest@CDataBaseEngineSink@@UAE_NGKPAXG@Z PROC ; CDataBaseEngineSink::OnDataBaseEngineRequest, COMDAT
; _this$ = ecx

; 154  : {

  00000	55		 push	 ebp
  00001	8b ec		 mov	 ebp, esp
  00003	83 ec 48	 sub	 esp, 72			; 00000048H
  00006	53		 push	 ebx
  00007	56		 push	 esi
  00008	57		 push	 edi
  00009	89 4d fc	 mov	 DWORD PTR _this$[ebp], ecx

; 155  : 	//请求处理
; 156  : 	switch (wRequestID)

  0000c	0f b7 45 08	 movzx	 eax, WORD PTR _wRequestID$[ebp]
  00010	89 45 b8	 mov	 DWORD PTR tv65[ebp], eax
  00013	8b 4d b8	 mov	 ecx, DWORD PTR tv65[ebp]
  00016	83 e9 64	 sub	 ecx, 100		; 00000064H
  00019	89 4d b8	 mov	 DWORD PTR tv65[ebp], ecx
  0001c	81 7d b8 d2 00
	00 00		 cmp	 DWORD PTR tv65[ebp], 210 ; 000000d2H
  00023	0f 87 20 01 00
	00		 ja	 $LN15@OnDataBase
  00029	8b 55 b8	 mov	 edx, DWORD PTR tv65[ebp]
  0002c	0f b6 82 00 00
	00 00		 movzx	 eax, BYTE PTR $LN18@OnDataBase[edx]
  00033	ff 24 85 00 00
	00 00		 jmp	 DWORD PTR $LN19@OnDataBase[eax*4]
$LN4@OnDataBase:

; 157  : 	{
; 158  : 	case DBR_GR_LOGON_USERID:			//I D 登录
; 159  : 		{
; 160  : 			return OnRequestLogonUserID(dwContextID,pData,wDataSize);

  0003a	0f b7 45 14	 movzx	 eax, WORD PTR _wDataSize$[ebp]
  0003e	50		 push	 eax
  0003f	8b 4d 10	 mov	 ecx, DWORD PTR _pData$[ebp]
  00042	51		 push	 ecx
  00043	8b 55 0c	 mov	 edx, DWORD PTR _dwContextID$[ebp]
  00046	52		 push	 edx
  00047	8b 4d fc	 mov	 ecx, DWORD PTR _this$[ebp]
  0004a	e8 00 00 00 00	 call	 ?OnRequestLogonUserID@CDataBaseEngineSink@@IAE_NKPAXG@Z ; CDataBaseEngineSink::OnRequestLogonUserID
  0004f	e9 14 01 00 00	 jmp	 $LN1@OnDataBase
$LN5@OnDataBase:

; 161  : 		}
; 162  : 	case DBR_GR_MODIFY_FRIEND:			//修改好友
; 163  : 		{
; 164  : 			return OnRequestModifyFriend(dwContextID,pData,wDataSize);

  00054	0f b7 45 14	 movzx	 eax, WORD PTR _wDataSize$[ebp]
  00058	50		 push	 eax
  00059	8b 4d 10	 mov	 ecx, DWORD PTR _pData$[ebp]
  0005c	51		 push	 ecx
  0005d	8b 55 0c	 mov	 edx, DWORD PTR _dwContextID$[ebp]
  00060	52		 push	 edx
  00061	8b 4d fc	 mov	 ecx, DWORD PTR _this$[ebp]
  00064	e8 00 00 00 00	 call	 ?OnRequestModifyFriend@CDataBaseEngineSink@@IAE_NKPAXG@Z ; CDataBaseEngineSink::OnRequestModifyFriend
  00069	e9 fa 00 00 00	 jmp	 $LN1@OnDataBase
$LN6@OnDataBase:

; 165  : 		}
; 166  : 	case DBR_GR_ADD_FRIEND:				//添加好友
; 167  : 		{
; 168  : 			return OnRequestAddFriend(dwContextID,pData,wDataSize);

  0006e	0f b7 45 14	 movzx	 eax, WORD PTR _wDataSize$[ebp]
  00072	50		 push	 eax
  00073	8b 4d 10	 mov	 ecx, DWORD PTR _pData$[ebp]
  00076	51		 push	 ecx
  00077	8b 55 0c	 mov	 edx, DWORD PTR _dwContextID$[ebp]
  0007a	52		 push	 edx
  0007b	8b 4d fc	 mov	 ecx, DWORD PTR _this$[ebp]
  0007e	e8 00 00 00 00	 call	 ?OnRequestAddFriend@CDataBaseEngineSink@@IAE_NKPAXG@Z ; CDataBaseEngineSink::OnRequestAddFriend
  00083	e9 e0 00 00 00	 jmp	 $LN1@OnDataBase
$LN7@OnDataBase:

; 169  : 		}
; 170  : 	case DBR_GR_DELETE_FRIEND:			//删除好友
; 171  : 		{
; 172  : 			return OnRequestDeleteFriend(dwContextID,pData,wDataSize);

  00088	0f b7 45 14	 movzx	 eax, WORD PTR _wDataSize$[ebp]
  0008c	50		 push	 eax
  0008d	8b 4d 10	 mov	 ecx, DWORD PTR _pData$[ebp]
  00090	51		 push	 ecx
  00091	8b 55 0c	 mov	 edx, DWORD PTR _dwContextID$[ebp]
  00094	52		 push	 edx
  00095	8b 4d fc	 mov	 ecx, DWORD PTR _this$[ebp]
  00098	e8 00 00 00 00	 call	 ?OnRequestDeleteFriend@CDataBaseEngineSink@@IAE_NKPAXG@Z ; CDataBaseEngineSink::OnRequestDeleteFriend
  0009d	e9 c6 00 00 00	 jmp	 $LN1@OnDataBase
$LN8@OnDataBase:

; 173  : 		}
; 174  : 	case DBR_GR_SEARCH_USER:			//查找用户
; 175  : 		{
; 176  : 			return OnRequestSearchUser(dwContextID,pData,wDataSize);

  000a2	0f b7 45 14	 movzx	 eax, WORD PTR _wDataSize$[ebp]
  000a6	50		 push	 eax
  000a7	8b 4d 10	 mov	 ecx, DWORD PTR _pData$[ebp]
  000aa	51		 push	 ecx
  000ab	8b 55 0c	 mov	 edx, DWORD PTR _dwContextID$[ebp]
  000ae	52		 push	 edx
  000af	8b 4d fc	 mov	 ecx, DWORD PTR _this$[ebp]
  000b2	e8 00 00 00 00	 call	 ?OnRequestSearchUser@CDataBaseEngineSink@@IAE_NKPAXG@Z ; CDataBaseEngineSink::OnRequestSearchUser
  000b7	e9 ac 00 00 00	 jmp	 $LN1@OnDataBase
$LN9@OnDataBase:

; 177  : 		}
; 178  : 	case DBR_GR_LOAD_SYSTEM_MESSAGE:   //系统消息
; 179  : 		{
; 180  : 			return OnRequestLoadSystemMessage(dwContextID, pData, wDataSize);

  000bc	0f b7 45 14	 movzx	 eax, WORD PTR _wDataSize$[ebp]
  000c0	50		 push	 eax
  000c1	8b 4d 10	 mov	 ecx, DWORD PTR _pData$[ebp]
  000c4	51		 push	 ecx
  000c5	8b 55 0c	 mov	 edx, DWORD PTR _dwContextID$[ebp]
  000c8	52		 push	 edx
  000c9	8b 4d fc	 mov	 ecx, DWORD PTR _this$[ebp]
  000cc	e8 00 00 00 00	 call	 ?OnRequestLoadSystemMessage@CDataBaseEngineSink@@IAE_NKPAXG@Z ; CDataBaseEngineSink::OnRequestLoadSystemMessage
  000d1	e9 92 00 00 00	 jmp	 $LN1@OnDataBase
$LN10@OnDataBase:

; 181  : 		}	
; 182  : 	case DBR_GR_MODIFY_GROUP:			//修改分组
; 183  : 		{
; 184  : 			return OnRequestModifyGroup(dwContextID,pData,wDataSize);

  000d6	0f b7 45 14	 movzx	 eax, WORD PTR _wDataSize$[ebp]
  000da	50		 push	 eax
  000db	8b 4d 10	 mov	 ecx, DWORD PTR _pData$[ebp]
  000de	51		 push	 ecx
  000df	8b 55 0c	 mov	 edx, DWORD PTR _dwContextID$[ebp]
  000e2	52		 push	 edx
  000e3	8b 4d fc	 mov	 ecx, DWORD PTR _this$[ebp]
  000e6	e8 00 00 00 00	 call	 ?OnRequestModifyGroup@CDataBaseEngineSink@@IAE_NKPAXG@Z ; CDataBaseEngineSink::OnRequestModifyGroup
  000eb	eb 7b		 jmp	 SHORT $LN1@OnDataBase
$LN11@OnDataBase:

; 185  : 		}
; 186  : 	case DBR_GR_MODIFY_REMARKS:			//修改备注
; 187  : 		{
; 188  : 			return OnRequestModifyRemarks(dwContextID,pData,wDataSize);

  000ed	0f b7 45 14	 movzx	 eax, WORD PTR _wDataSize$[ebp]
  000f1	50		 push	 eax
  000f2	8b 4d 10	 mov	 ecx, DWORD PTR _pData$[ebp]
  000f5	51		 push	 ecx
  000f6	8b 55 0c	 mov	 edx, DWORD PTR _dwContextID$[ebp]
  000f9	52		 push	 edx
  000fa	8b 4d fc	 mov	 ecx, DWORD PTR _this$[ebp]
  000fd	e8 00 00 00 00	 call	 ?OnRequestModifyRemarks@CDataBaseEngineSink@@IAE_NKPAXG@Z ; CDataBaseEngineSink::OnRequestModifyRemarks
  00102	eb 64		 jmp	 SHORT $LN1@OnDataBase
$LN12@OnDataBase:

; 189  : 		}
; 190  : 
; 191  : 	case DBR_GR_SAVE_OFFLINEMESSAGE:	//离线消息
; 192  : 		{
; 193  : 			return OnRequestSaveOfflineMessage(dwContextID,pData,wDataSize);

  00104	0f b7 45 14	 movzx	 eax, WORD PTR _wDataSize$[ebp]
  00108	50		 push	 eax
  00109	8b 4d 10	 mov	 ecx, DWORD PTR _pData$[ebp]
  0010c	51		 push	 ecx
  0010d	8b 55 0c	 mov	 edx, DWORD PTR _dwContextID$[ebp]
  00110	52		 push	 edx
  00111	8b 4d fc	 mov	 ecx, DWORD PTR _this$[ebp]
  00114	e8 00 00 00 00	 call	 ?OnRequestSaveOfflineMessage@CDataBaseEngineSink@@IAE_NKPAXG@Z ; CDataBaseEngineSink::OnRequestSaveOfflineMessage
  00119	eb 4d		 jmp	 SHORT $LN1@OnDataBase
$LN13@OnDataBase:

; 194  : 		}
; 195  : 	case DBR_GR_TRUMPET:
; 196  : 		{
; 197  : 			return OnRequestTrumpet(dwContextID,pData,wDataSize);

  0011b	0f b7 45 14	 movzx	 eax, WORD PTR _wDataSize$[ebp]
  0011f	50		 push	 eax
  00120	8b 4d 10	 mov	 ecx, DWORD PTR _pData$[ebp]
  00123	51		 push	 ecx
  00124	8b 55 0c	 mov	 edx, DWORD PTR _dwContextID$[ebp]
  00127	52		 push	 edx
  00128	8b 4d fc	 mov	 ecx, DWORD PTR _this$[ebp]
  0012b	e8 00 00 00 00	 call	 ?OnRequestTrumpet@CDataBaseEngineSink@@IAE_NKPAXG@Z ; CDataBaseEngineSink::OnRequestTrumpet
  00130	eb 36		 jmp	 SHORT $LN1@OnDataBase
$LN14@OnDataBase:

; 198  : 		}
; 199  : 	case DBR_GR_UPDATE_PLACENAME:
; 200  : 		{
; 201  : 			return OnRequestUpdatePlaceName(dwContextID, pData, wDataSize);

  00132	0f b7 45 14	 movzx	 eax, WORD PTR _wDataSize$[ebp]
  00136	50		 push	 eax
  00137	8b 4d 10	 mov	 ecx, DWORD PTR _pData$[ebp]
  0013a	51		 push	 ecx
  0013b	8b 55 0c	 mov	 edx, DWORD PTR _dwContextID$[ebp]
  0013e	52		 push	 edx
  0013f	8b 4d fc	 mov	 ecx, DWORD PTR _this$[ebp]
  00142	e8 00 00 00 00	 call	 ?OnRequestUpdatePlaceName@CDataBaseEngineSink@@IAE_NKPAXG@Z ; CDataBaseEngineSink::OnRequestUpdatePlaceName
  00147	eb 1f		 jmp	 SHORT $LN1@OnDataBase
$LN15@OnDataBase:

; 202  : 		}
; 203  : 	default:
; 204  : 		{
; 205  : 			ASSERT(FALSE);

  00149	33 c0		 xor	 eax, eax
  0014b	75 19		 jne	 SHORT $LN2@OnDataBase
  0014d	8b 0d 00 00 00
	00		 mov	 ecx, DWORD PTR ?__LINE__Var@?0??OnDataBaseEngineRequest@CDataBaseEngineSink@@UAE_NGKPAXG@Z@4JA
  00153	83 c1 33	 add	 ecx, 51			; 00000033H
  00156	51		 push	 ecx
  00157	68 00 00 00 00	 push	 OFFSET ?THIS_FILE@@3PADA
  0015c	e8 00 00 00 00	 call	 ?AfxAssertFailedLine@@YGHPBDH@Z ; AfxAssertFailedLine
  00161	85 c0		 test	 eax, eax
  00163	74 01		 je	 SHORT $LN2@OnDataBase
  00165	cc		 int	 3
$LN2@OnDataBase:

; 206  : 			break;
; 207  : 		}
; 208  : 	}
; 209  : 
; 210  : 	return false;

  00166	32 c0		 xor	 al, al
$LN1@OnDataBase:

; 211  : }

  00168	5f		 pop	 edi
  00169	5e		 pop	 esi
  0016a	5b		 pop	 ebx
  0016b	8b e5		 mov	 esp, ebp
  0016d	5d		 pop	 ebp
  0016e	c2 10 00	 ret	 16			; 00000010H
  00171	0f 1f 00	 npad	 3
$LN19@OnDataBase:
  00174	00 00 00 00	 DD	 $LN4@OnDataBase
  00178	00 00 00 00	 DD	 $LN5@OnDataBase
  0017c	00 00 00 00	 DD	 $LN10@OnDataBase
  00180	00 00 00 00	 DD	 $LN11@OnDataBase
  00184	00 00 00 00	 DD	 $LN8@OnDataBase
  00188	00 00 00 00	 DD	 $LN6@OnDataBase
  0018c	00 00 00 00	 DD	 $LN12@OnDataBase
  00190	00 00 00 00	 DD	 $LN13@OnDataBase
  00194	00 00 00 00	 DD	 $LN7@OnDataBase
  00198	00 00 00 00	 DD	 $LN14@OnDataBase
  0019c	00 00 00 00	 DD	 $LN9@OnDataBase
  001a0	00 00 00 00	 DD	 $LN15@OnDataBase
$LN18@OnDataBase:
  001a4	00		 DB	 0
  001a5	0b		 DB	 11			; 0000000bH
  001a6	0b		 DB	 11			; 0000000bH
  001a7	0b		 DB	 11			; 0000000bH
  001a8	0b		 DB	 11			; 0000000bH
  001a9	0b		 DB	 11			; 0000000bH
  001aa	0b		 DB	 11			; 0000000bH
  001ab	0b		 DB	 11			; 0000000bH
  001ac	0b		 DB	 11			; 0000000bH
  001ad	0b		 DB	 11			; 0000000bH
  001ae	0b		 DB	 11			; 0000000bH
  001af	0b		 DB	 11			; 0000000bH
  001b0	0b		 DB	 11			; 0000000bH
  001b1	0b		 DB	 11			; 0000000bH
  001b2	0b		 DB	 11			; 0000000bH
  001b3	0b		 DB	 11			; 0000000bH
  001b4	0b		 DB	 11			; 0000000bH
  001b5	0b		 DB	 11			; 0000000bH
  001b6	0b		 DB	 11			; 0000000bH
  001b7	0b		 DB	 11			; 0000000bH
  001b8	0b		 DB	 11			; 0000000bH
  001b9	0b		 DB	 11			; 0000000bH
  001ba	0b		 DB	 11			; 0000000bH
  001bb	0b		 DB	 11			; 0000000bH
  001bc	0b		 DB	 11			; 0000000bH
  001bd	0b		 DB	 11			; 0000000bH
  001be	0b		 DB	 11			; 0000000bH
  001bf	0b		 DB	 11			; 0000000bH
  001c0	0b		 DB	 11			; 0000000bH
  001c1	0b		 DB	 11			; 0000000bH
  001c2	0b		 DB	 11			; 0000000bH
  001c3	0b		 DB	 11			; 0000000bH
  001c4	0b		 DB	 11			; 0000000bH
  001c5	0b		 DB	 11			; 0000000bH
  001c6	0b		 DB	 11			; 0000000bH
  001c7	0b		 DB	 11			; 0000000bH
  001c8	0b		 DB	 11			; 0000000bH
  001c9	0b		 DB	 11			; 0000000bH
  001ca	0b		 DB	 11			; 0000000bH
  001cb	0b		 DB	 11			; 0000000bH
  001cc	0b		 DB	 11			; 0000000bH
  001cd	0b		 DB	 11			; 0000000bH
  001ce	0b		 DB	 11			; 0000000bH
  001cf	0b		 DB	 11			; 0000000bH
  001d0	0b		 DB	 11			; 0000000bH
  001d1	0b		 DB	 11			; 0000000bH
  001d2	0b		 DB	 11			; 0000000bH
  001d3	0b		 DB	 11			; 0000000bH
  001d4	0b		 DB	 11			; 0000000bH
  001d5	0b		 DB	 11			; 0000000bH
  001d6	0b		 DB	 11			; 0000000bH
  001d7	0b		 DB	 11			; 0000000bH
  001d8	0b		 DB	 11			; 0000000bH
  001d9	0b		 DB	 11			; 0000000bH
  001da	0b		 DB	 11			; 0000000bH
  001db	0b		 DB	 11			; 0000000bH
  001dc	0b		 DB	 11			; 0000000bH
  001dd	0b		 DB	 11			; 0000000bH
  001de	0b		 DB	 11			; 0000000bH
  001df	0b		 DB	 11			; 0000000bH
  001e0	0b		 DB	 11			; 0000000bH
  001e1	0b		 DB	 11			; 0000000bH
  001e2	0b		 DB	 11			; 0000000bH
  001e3	0b		 DB	 11			; 0000000bH
  001e4	0b		 DB	 11			; 0000000bH
  001e5	0b		 DB	 11			; 0000000bH
  001e6	0b		 DB	 11			; 0000000bH
  001e7	0b		 DB	 11			; 0000000bH
  001e8	0b		 DB	 11			; 0000000bH
  001e9	0b		 DB	 11			; 0000000bH
  001ea	0b		 DB	 11			; 0000000bH
  001eb	0b		 DB	 11			; 0000000bH
  001ec	0b		 DB	 11			; 0000000bH
  001ed	0b		 DB	 11			; 0000000bH
  001ee	0b		 DB	 11			; 0000000bH
  001ef	0b		 DB	 11			; 0000000bH
  001f0	0b		 DB	 11			; 0000000bH
  001f1	0b		 DB	 11			; 0000000bH
  001f2	0b		 DB	 11			; 0000000bH
  001f3	0b		 DB	 11			; 0000000bH
  001f4	0b		 DB	 11			; 0000000bH
  001f5	0b		 DB	 11			; 0000000bH
  001f6	0b		 DB	 11			; 0000000bH
  001f7	0b		 DB	 11			; 0000000bH
  001f8	0b		 DB	 11			; 0000000bH
  001f9	0b		 DB	 11			; 0000000bH
  001fa	0b		 DB	 11			; 0000000bH
  001fb	0b		 DB	 11			; 0000000bH
  001fc	0b		 DB	 11			; 0000000bH
  001fd	0b		 DB	 11			; 0000000bH
  001fe	0b		 DB	 11			; 0000000bH
  001ff	0b		 DB	 11			; 0000000bH
  00200	0b		 DB	 11			; 0000000bH
  00201	0b		 DB	 11			; 0000000bH
  00202	0b		 DB	 11			; 0000000bH
  00203	0b		 DB	 11			; 0000000bH
  00204	0b		 DB	 11			; 0000000bH
  00205	0b		 DB	 11			; 0000000bH
  00206	0b		 DB	 11			; 0000000bH
  00207	0b		 DB	 11			; 0000000bH
  00208	0b		 DB	 11			; 0000000bH
  00209	0b		 DB	 11			; 0000000bH
  0020a	0b		 DB	 11			; 0000000bH
  0020b	0b		 DB	 11			; 0000000bH
  0020c	01		 DB	 1
  0020d	02		 DB	 2
  0020e	03		 DB	 3
  0020f	04		 DB	 4
  00210	05		 DB	 5
  00211	0b		 DB	 11			; 0000000bH
  00212	0b		 DB	 11			; 0000000bH
  00213	0b		 DB	 11			; 0000000bH
  00214	06		 DB	 6
  00215	0b		 DB	 11			; 0000000bH
  00216	07		 DB	 7
  00217	08		 DB	 8
  00218	09		 DB	 9
  00219	0b		 DB	 11			; 0000000bH
  0021a	0b		 DB	 11			; 0000000bH
  0021b	0b		 DB	 11			; 0000000bH
  0021c	0b		 DB	 11			; 0000000bH
  0021d	0b		 DB	 11			; 0000000bH
  0021e	0b		 DB	 11			; 0000000bH
  0021f	0b		 DB	 11			; 0000000bH
  00220	0b		 DB	 11			; 0000000bH
  00221	0b		 DB	 11			; 0000000bH
  00222	0b		 DB	 11			; 0000000bH
  00223	0b		 DB	 11			; 0000000bH
  00224	0b		 DB	 11			; 0000000bH
  00225	0b		 DB	 11			; 0000000bH
  00226	0b		 DB	 11			; 0000000bH
  00227	0b		 DB	 11			; 0000000bH
  00228	0b		 DB	 11			; 0000000bH
  00229	0b		 DB	 11			; 0000000bH
  0022a	0b		 DB	 11			; 0000000bH
  0022b	0b		 DB	 11			; 0000000bH
  0022c	0b		 DB	 11			; 0000000bH
  0022d	0b		 DB	 11			; 0000000bH
  0022e	0b		 DB	 11			; 0000000bH
  0022f	0b		 DB	 11			; 0000000bH
  00230	0b		 DB	 11			; 0000000bH
  00231	0b		 DB	 11			; 0000000bH
  00232	0b		 DB	 11			; 0000000bH
  00233	0b		 DB	 11			; 0000000bH
  00234	0b		 DB	 11			; 0000000bH
  00235	0b		 DB	 11			; 0000000bH
  00236	0b		 DB	 11			; 0000000bH
  00237	0b		 DB	 11			; 0000000bH
  00238	0b		 DB	 11			; 0000000bH
  00239	0b		 DB	 11			; 0000000bH
  0023a	0b		 DB	 11			; 0000000bH
  0023b	0b		 DB	 11			; 0000000bH
  0023c	0b		 DB	 11			; 0000000bH
  0023d	0b		 DB	 11			; 0000000bH
  0023e	0b		 DB	 11			; 0000000bH
  0023f	0b		 DB	 11			; 0000000bH
  00240	0b		 DB	 11			; 0000000bH
  00241	0b		 DB	 11			; 0000000bH
  00242	0b		 DB	 11			; 0000000bH
  00243	0b		 DB	 11			; 0000000bH
  00244	0b		 DB	 11			; 0000000bH
  00245	0b		 DB	 11			; 0000000bH
  00246	0b		 DB	 11			; 0000000bH
  00247	0b		 DB	 11			; 0000000bH
  00248	0b		 DB	 11			; 0000000bH
  00249	0b		 DB	 11			; 0000000bH
  0024a	0b		 DB	 11			; 0000000bH
  0024b	0b		 DB	 11			; 0000000bH
  0024c	0b		 DB	 11			; 0000000bH
  0024d	0b		 DB	 11			; 0000000bH
  0024e	0b		 DB	 11			; 0000000bH
  0024f	0b		 DB	 11			; 0000000bH
  00250	0b		 DB	 11			; 0000000bH
  00251	0b		 DB	 11			; 0000000bH
  00252	0b		 DB	 11			; 0000000bH
  00253	0b		 DB	 11			; 0000000bH
  00254	0b		 DB	 11			; 0000000bH
  00255	0b		 DB	 11			; 0000000bH
  00256	0b		 DB	 11			; 0000000bH
  00257	0b		 DB	 11			; 0000000bH
  00258	0b		 DB	 11			; 0000000bH
  00259	0b		 DB	 11			; 0000000bH
  0025a	0b		 DB	 11			; 0000000bH
  0025b	0b		 DB	 11			; 0000000bH
  0025c	0b		 DB	 11			; 0000000bH
  0025d	0b		 DB	 11			; 0000000bH
  0025e	0b		 DB	 11			; 0000000bH
  0025f	0b		 DB	 11			; 0000000bH
  00260	0b		 DB	 11			; 0000000bH
  00261	0b		 DB	 11			; 0000000bH
  00262	0b		 DB	 11			; 0000000bH
  00263	0b		 DB	 11			; 0000000bH
  00264	0b		 DB	 11			; 0000000bH
  00265	0b		 DB	 11			; 0000000bH
  00266	0b		 DB	 11			; 0000000bH
  00267	0b		 DB	 11			; 0000000bH
  00268	0b		 DB	 11			; 0000000bH
  00269	0b		 DB	 11			; 0000000bH
  0026a	0b		 DB	 11			; 0000000bH
  0026b	0b		 DB	 11			; 0000000bH
  0026c	0b		 DB	 11			; 0000000bH
  0026d	0b		 DB	 11			; 0000000bH
  0026e	0b		 DB	 11			; 0000000bH
  0026f	0b		 DB	 11			; 0000000bH
  00270	0b		 DB	 11			; 0000000bH
  00271	0b		 DB	 11			; 0000000bH
  00272	0b		 DB	 11			; 0000000bH
  00273	0b		 DB	 11			; 0000000bH
  00274	0b		 DB	 11			; 0000000bH
  00275	0b		 DB	 11			; 0000000bH
  00276	0a		 DB	 10			; 0000000aH
?OnDataBaseEngineRequest@CDataBaseEngineSink@@UAE_NGKPAXG@Z ENDP ; CDataBaseEngineSink::OnDataBaseEngineRequest
_TEXT	ENDS
; Function compile flags: /Odtp /ZI
; File g:\网狐\happygamewh\服务端\系统模块\服务器组件\聊天服务器\databaseenginesink.cpp
;	COMDAT ?OnDataBaseEngineControl@CDataBaseEngineSink@@UAE_NGPAXG@Z
_TEXT	SEGMENT
_this$ = -4						; size = 4
_wControlID$ = 8					; size = 2
_pData$ = 12						; size = 4
_wDataSize$ = 16					; size = 2
?OnDataBaseEngineControl@CDataBaseEngineSink@@UAE_NGPAXG@Z PROC ; CDataBaseEngineSink::OnDataBaseEngineControl, COMDAT
; _this$ = ecx

; 148  : {

  00000	55		 push	 ebp
  00001	8b ec		 mov	 ebp, esp
  00003	83 ec 44	 sub	 esp, 68			; 00000044H
  00006	53		 push	 ebx
  00007	56		 push	 esi
  00008	57		 push	 edi
  00009	89 4d fc	 mov	 DWORD PTR _this$[ebp], ecx

; 149  : 	return false;

  0000c	32 c0		 xor	 al, al

; 150  : }

  0000e	5f		 pop	 edi
  0000f	5e		 pop	 esi
  00010	5b		 pop	 ebx
  00011	8b e5		 mov	 esp, ebp
  00013	5d		 pop	 ebp
  00014	c2 0c 00	 ret	 12			; 0000000cH
?OnDataBaseEngineControl@CDataBaseEngineSink@@UAE_NGPAXG@Z ENDP ; CDataBaseEngineSink::OnDataBaseEngineControl
_TEXT	ENDS
; Function compile flags: /Odtp /ZI
; File g:\网狐\happygamewh\服务端\系统模块\服务器组件\聊天服务器\databaseenginesink.cpp
;	COMDAT ?OnDataBaseEngineTimer@CDataBaseEngineSink@@UAE_NKI@Z
_TEXT	SEGMENT
_this$ = -4						; size = 4
_dwTimerID$ = 8						; size = 4
_dwBindParameter$ = 12					; size = 4
?OnDataBaseEngineTimer@CDataBaseEngineSink@@UAE_NKI@Z PROC ; CDataBaseEngineSink::OnDataBaseEngineTimer, COMDAT
; _this$ = ecx

; 142  : {

  00000	55		 push	 ebp
  00001	8b ec		 mov	 ebp, esp
  00003	83 ec 44	 sub	 esp, 68			; 00000044H
  00006	53		 push	 ebx
  00007	56		 push	 esi
  00008	57		 push	 edi
  00009	89 4d fc	 mov	 DWORD PTR _this$[ebp], ecx

; 143  : 	return false;

  0000c	32 c0		 xor	 al, al

; 144  : }

  0000e	5f		 pop	 edi
  0000f	5e		 pop	 esi
  00010	5b		 pop	 ebx
  00011	8b e5		 mov	 esp, ebp
  00013	5d		 pop	 ebp
  00014	c2 08 00	 ret	 8
?OnDataBaseEngineTimer@CDataBaseEngineSink@@UAE_NKI@Z ENDP ; CDataBaseEngineSink::OnDataBaseEngineTimer
_TEXT	ENDS
; Function compile flags: /Odtp /ZI
; File g:\网狐\happygamewh\服务端\系统模块\服务器组件\聊天服务器\databaseenginesink.cpp
;	COMDAT ?OnDataBaseEngineConclude@CDataBaseEngineSink@@UAE_NPAUIUnknownEx@@@Z
_TEXT	SEGMENT
tv171 = -72						; size = 4
tv146 = -72						; size = 4
tv89 = -72						; size = 4
_this$ = -4						; size = 4
_pIUnknownEx$ = 8					; size = 4
?OnDataBaseEngineConclude@CDataBaseEngineSink@@UAE_NPAUIUnknownEx@@@Z PROC ; CDataBaseEngineSink::OnDataBaseEngineConclude, COMDAT
; _this$ = ecx

; 106  : {

  00000	55		 push	 ebp
  00001	8b ec		 mov	 ebp, esp
  00003	83 ec 48	 sub	 esp, 72			; 00000048H
  00006	53		 push	 ebx
  00007	56		 push	 esi
  00008	57		 push	 edi
  00009	89 4d fc	 mov	 DWORD PTR _this$[ebp], ecx

; 107  : 	//设置对象
; 108  : 	m_AccountsDBAide.SetDataBase(NULL);

  0000c	6a 00		 push	 0
  0000e	8b 4d fc	 mov	 ecx, DWORD PTR _this$[ebp]
  00011	83 c1 04	 add	 ecx, 4
  00014	ff 15 00 00 00
	00		 call	 DWORD PTR __imp_?SetDataBase@CDataBaseAide@@QAE_NPAUIUnknownEx@@@Z

; 109  : 	m_TreasureDBAide.SetDataBase(NULL);

  0001a	6a 00		 push	 0
  0001c	8b 4d fc	 mov	 ecx, DWORD PTR _this$[ebp]
  0001f	81 c1 e4 01 00
	00		 add	 ecx, 484		; 000001e4H
  00025	ff 15 00 00 00
	00		 call	 DWORD PTR __imp_?SetDataBase@CDataBaseAide@@QAE_NPAUIUnknownEx@@@Z

; 110  : 	m_PlatformDBAide.SetDataBase(NULL);

  0002b	6a 00		 push	 0
  0002d	8b 4d fc	 mov	 ecx, DWORD PTR _this$[ebp]
  00030	81 c1 c4 03 00
	00		 add	 ecx, 964		; 000003c4H
  00036	ff 15 00 00 00
	00		 call	 DWORD PTR __imp_?SetDataBase@CDataBaseAide@@QAE_NPAUIUnknownEx@@@Z

; 111  : 
; 112  : 	//关闭连接
; 113  : 	if (m_AccountsDBModule.GetInterface()!=NULL)

  0003c	8b 4d fc	 mov	 ecx, DWORD PTR _this$[ebp]
  0003f	83 c1 0c	 add	 ecx, 12			; 0000000cH
  00042	e8 00 00 00 00	 call	 ?GetInterface@?$CTempldateHelper@UIDataBase@@@@QBEPAUIDataBase@@XZ ; CTempldateHelper<IDataBase>::GetInterface
  00047	85 c0		 test	 eax, eax
  00049	74 26		 je	 SHORT $LN2@OnDataBase

; 114  : 	{
; 115  : 		m_AccountsDBModule->CloseConnection();

  0004b	8b 4d fc	 mov	 ecx, DWORD PTR _this$[ebp]
  0004e	83 c1 0c	 add	 ecx, 12			; 0000000cH
  00051	e8 00 00 00 00	 call	 ??C?$CTempldateHelper@UIDataBase@@@@QBEPAUIDataBase@@XZ ; CTempldateHelper<IDataBase>::operator->
  00056	89 45 b8	 mov	 DWORD PTR tv89[ebp], eax
  00059	8b 45 b8	 mov	 eax, DWORD PTR tv89[ebp]
  0005c	8b 10		 mov	 edx, DWORD PTR [eax]
  0005e	8b 4d b8	 mov	 ecx, DWORD PTR tv89[ebp]
  00061	8b 42 0c	 mov	 eax, DWORD PTR [edx+12]
  00064	ff d0		 call	 eax

; 116  : 		m_AccountsDBModule.CloseInstance();

  00066	8b 4d fc	 mov	 ecx, DWORD PTR _this$[ebp]
  00069	83 c1 0c	 add	 ecx, 12			; 0000000cH
  0006c	e8 00 00 00 00	 call	 ?CloseInstance@?$CTempldateHelper@UIDataBase@@@@QAE_NXZ ; CTempldateHelper<IDataBase>::CloseInstance
$LN2@OnDataBase:

; 117  : 	}
; 118  : 
; 119  : 	//关闭连接
; 120  : 	if (m_TreasureDBModule.GetInterface()!=NULL)

  00071	8b 4d fc	 mov	 ecx, DWORD PTR _this$[ebp]
  00074	81 c1 ec 01 00
	00		 add	 ecx, 492		; 000001ecH
  0007a	e8 00 00 00 00	 call	 ?GetInterface@?$CTempldateHelper@UIDataBase@@@@QBEPAUIDataBase@@XZ ; CTempldateHelper<IDataBase>::GetInterface
  0007f	85 c0		 test	 eax, eax
  00081	74 2c		 je	 SHORT $LN3@OnDataBase

; 121  : 	{
; 122  : 		m_TreasureDBModule->CloseConnection();

  00083	8b 4d fc	 mov	 ecx, DWORD PTR _this$[ebp]
  00086	81 c1 ec 01 00
	00		 add	 ecx, 492		; 000001ecH
  0008c	e8 00 00 00 00	 call	 ??C?$CTempldateHelper@UIDataBase@@@@QBEPAUIDataBase@@XZ ; CTempldateHelper<IDataBase>::operator->
  00091	89 45 b8	 mov	 DWORD PTR tv146[ebp], eax
  00094	8b 45 b8	 mov	 eax, DWORD PTR tv146[ebp]
  00097	8b 10		 mov	 edx, DWORD PTR [eax]
  00099	8b 4d b8	 mov	 ecx, DWORD PTR tv146[ebp]
  0009c	8b 42 0c	 mov	 eax, DWORD PTR [edx+12]
  0009f	ff d0		 call	 eax

; 123  : 		m_TreasureDBModule.CloseInstance();

  000a1	8b 4d fc	 mov	 ecx, DWORD PTR _this$[ebp]
  000a4	81 c1 ec 01 00
	00		 add	 ecx, 492		; 000001ecH
  000aa	e8 00 00 00 00	 call	 ?CloseInstance@?$CTempldateHelper@UIDataBase@@@@QAE_NXZ ; CTempldateHelper<IDataBase>::CloseInstance
$LN3@OnDataBase:

; 124  : 	}
; 125  : 
; 126  : 	//关闭连接
; 127  : 	if (m_PlatformDBModule.GetInterface()!=NULL)

  000af	8b 4d fc	 mov	 ecx, DWORD PTR _this$[ebp]
  000b2	81 c1 cc 03 00
	00		 add	 ecx, 972		; 000003ccH
  000b8	e8 00 00 00 00	 call	 ?GetInterface@?$CTempldateHelper@UIDataBase@@@@QBEPAUIDataBase@@XZ ; CTempldateHelper<IDataBase>::GetInterface
  000bd	85 c0		 test	 eax, eax
  000bf	74 2c		 je	 SHORT $LN4@OnDataBase

; 128  : 	{
; 129  : 		m_PlatformDBModule->CloseConnection();

  000c1	8b 4d fc	 mov	 ecx, DWORD PTR _this$[ebp]
  000c4	81 c1 cc 03 00
	00		 add	 ecx, 972		; 000003ccH
  000ca	e8 00 00 00 00	 call	 ??C?$CTempldateHelper@UIDataBase@@@@QBEPAUIDataBase@@XZ ; CTempldateHelper<IDataBase>::operator->
  000cf	89 45 b8	 mov	 DWORD PTR tv171[ebp], eax
  000d2	8b 45 b8	 mov	 eax, DWORD PTR tv171[ebp]
  000d5	8b 10		 mov	 edx, DWORD PTR [eax]
  000d7	8b 4d b8	 mov	 ecx, DWORD PTR tv171[ebp]
  000da	8b 42 0c	 mov	 eax, DWORD PTR [edx+12]
  000dd	ff d0		 call	 eax

; 130  : 		m_PlatformDBModule.CloseInstance();

  000df	8b 4d fc	 mov	 ecx, DWORD PTR _this$[ebp]
  000e2	81 c1 cc 03 00
	00		 add	 ecx, 972		; 000003ccH
  000e8	e8 00 00 00 00	 call	 ?CloseInstance@?$CTempldateHelper@UIDataBase@@@@QAE_NXZ ; CTempldateHelper<IDataBase>::CloseInstance
$LN4@OnDataBase:

; 131  : 	}
; 132  : 
; 133  : 	//组件变量
; 134  : 	m_pInitParameter=NULL;

  000ed	8b 45 fc	 mov	 eax, DWORD PTR _this$[ebp]
  000f0	c7 80 a4 05 00
	00 00 00 00 00	 mov	 DWORD PTR [eax+1444], 0

; 135  : 	m_pIDataBaseEngineEvent=NULL;

  000fa	8b 45 fc	 mov	 eax, DWORD PTR _this$[ebp]
  000fd	c7 80 a8 05 00
	00 00 00 00 00	 mov	 DWORD PTR [eax+1448], 0

; 136  : 
; 137  : 	return true;

  00107	b0 01		 mov	 al, 1

; 138  : }

  00109	5f		 pop	 edi
  0010a	5e		 pop	 esi
  0010b	5b		 pop	 ebx
  0010c	8b e5		 mov	 esp, ebp
  0010e	5d		 pop	 ebp
  0010f	c2 04 00	 ret	 4
?OnDataBaseEngineConclude@CDataBaseEngineSink@@UAE_NPAUIUnknownEx@@@Z ENDP ; CDataBaseEngineSink::OnDataBaseEngineConclude
_TEXT	ENDS
; Function compile flags: /Odtp /ZI
; File g:\网狐\happygamewh\服务端\系统模块\服务器组件\聊天服务器\databaseenginesink.cpp
;	COMDAT ?OnDataBaseEngineStart@CDataBaseEngineSink@@UAE_NPAUIUnknownEx@@@Z
_TEXT	SEGMENT
tv295 = -116						; size = 4
tv270 = -116						; size = 4
tv245 = -116						; size = 4
tv224 = -116						; size = 4
tv203 = -116						; size = 4
tv182 = -116						; size = 4
tv327 = -112						; size = 4
tv326 = -112						; size = 4
tv325 = -112						; size = 4
tv324 = -112						; size = 4
tv323 = -112						; size = 4
tv322 = -112						; size = 4
tv321 = -112						; size = 4
tv320 = -112						; size = 4
tv319 = -112						; size = 4
$T2 = -105						; size = 1
_pszDescribe$3 = -40					; size = 4
_pIException$4 = -36					; size = 4
_pPlatformDBParameter$5 = -32				; size = 4
_pTreasureDBParameter$6 = -28				; size = 4
_pAccountsDBParameter$7 = -24				; size = 4
_this$ = -20						; size = 4
__$EHRec$ = -16						; size = 16
_pIUnknownEx$ = 8					; size = 4
?OnDataBaseEngineStart@CDataBaseEngineSink@@UAE_NPAUIUnknownEx@@@Z PROC ; CDataBaseEngineSink::OnDataBaseEngineStart, COMDAT
; _this$ = ecx

; 41   : {

  00000	55		 push	 ebp
  00001	8b ec		 mov	 ebp, esp
  00003	6a ff		 push	 -1
  00005	68 00 00 00 00	 push	 __ehhandler$?OnDataBaseEngineStart@CDataBaseEngineSink@@UAE_NPAUIUnknownEx@@@Z
  0000a	64 a1 00 00 00
	00		 mov	 eax, DWORD PTR fs:0
  00010	50		 push	 eax
  00011	51		 push	 ecx
  00012	83 ec 64	 sub	 esp, 100		; 00000064H
  00015	53		 push	 ebx
  00016	56		 push	 esi
  00017	57		 push	 edi
  00018	a1 00 00 00 00	 mov	 eax, DWORD PTR ___security_cookie
  0001d	33 c5		 xor	 eax, ebp
  0001f	50		 push	 eax
  00020	8d 45 f4	 lea	 eax, DWORD PTR __$EHRec$[ebp+4]
  00023	64 a3 00 00 00
	00		 mov	 DWORD PTR fs:0, eax
  00029	89 65 f0	 mov	 DWORD PTR __$EHRec$[ebp], esp
  0002c	89 4d ec	 mov	 DWORD PTR _this$[ebp], ecx

; 42   : 	//创建对象
; 43   : 	if ((m_AccountsDBModule.GetInterface()==NULL)&&(m_AccountsDBModule.CreateInstance()==false))

  0002f	8b 4d ec	 mov	 ecx, DWORD PTR _this$[ebp]
  00032	83 c1 0c	 add	 ecx, 12			; 0000000cH
  00035	e8 00 00 00 00	 call	 ?GetInterface@?$CTempldateHelper@UIDataBase@@@@QBEPAUIDataBase@@XZ ; CTempldateHelper<IDataBase>::GetInterface
  0003a	85 c0		 test	 eax, eax
  0003c	75 36		 jne	 SHORT $LN2@OnDataBase
  0003e	8b 4d ec	 mov	 ecx, DWORD PTR _this$[ebp]
  00041	83 c1 0c	 add	 ecx, 12			; 0000000cH
  00044	e8 00 00 00 00	 call	 ?CreateInstance@?$CTempldateHelper@UIDataBase@@@@QAE_NXZ ; CTempldateHelper<IDataBase>::CreateInstance
  00049	0f b6 c0	 movzx	 eax, al
  0004c	85 c0		 test	 eax, eax
  0004e	75 24		 jne	 SHORT $LN2@OnDataBase

; 44   : 	{
; 45   : 		ASSERT(FALSE);

  00050	33 c0		 xor	 eax, eax
  00052	75 19		 jne	 SHORT $LN7@OnDataBase
  00054	8b 0d 00 00 00
	00		 mov	 ecx, DWORD PTR ?__LINE__Var@?0??OnDataBaseEngineStart@CDataBaseEngineSink@@UAE_NPAUIUnknownEx@@@Z@4JA
  0005a	83 c1 04	 add	 ecx, 4
  0005d	51		 push	 ecx
  0005e	68 00 00 00 00	 push	 OFFSET ?THIS_FILE@@3PADA
  00063	e8 00 00 00 00	 call	 ?AfxAssertFailedLine@@YGHPBDH@Z ; AfxAssertFailedLine
  00068	85 c0		 test	 eax, eax
  0006a	74 01		 je	 SHORT $LN7@OnDataBase
  0006c	cc		 int	 3
$LN7@OnDataBase:

; 46   : 		return false;

  0006d	32 c0		 xor	 al, al
  0006f	e9 bb 02 00 00	 jmp	 $LN1@OnDataBase
$LN2@OnDataBase:

; 47   : 	}
; 48   : 
; 49   : 	//创建对象
; 50   : 	if ((m_TreasureDBModule.GetInterface()==NULL)&&(m_TreasureDBModule.CreateInstance()==false))

  00074	8b 4d ec	 mov	 ecx, DWORD PTR _this$[ebp]
  00077	81 c1 ec 01 00
	00		 add	 ecx, 492		; 000001ecH
  0007d	e8 00 00 00 00	 call	 ?GetInterface@?$CTempldateHelper@UIDataBase@@@@QBEPAUIDataBase@@XZ ; CTempldateHelper<IDataBase>::GetInterface
  00082	85 c0		 test	 eax, eax
  00084	75 39		 jne	 SHORT $LN3@OnDataBase
  00086	8b 4d ec	 mov	 ecx, DWORD PTR _this$[ebp]
  00089	81 c1 ec 01 00
	00		 add	 ecx, 492		; 000001ecH
  0008f	e8 00 00 00 00	 call	 ?CreateInstance@?$CTempldateHelper@UIDataBase@@@@QAE_NXZ ; CTempldateHelper<IDataBase>::CreateInstance
  00094	0f b6 c0	 movzx	 eax, al
  00097	85 c0		 test	 eax, eax
  00099	75 24		 jne	 SHORT $LN3@OnDataBase

; 51   : 	{
; 52   : 		ASSERT(FALSE);

  0009b	33 c0		 xor	 eax, eax
  0009d	75 19		 jne	 SHORT $LN8@OnDataBase
  0009f	8b 0d 00 00 00
	00		 mov	 ecx, DWORD PTR ?__LINE__Var@?0??OnDataBaseEngineStart@CDataBaseEngineSink@@UAE_NPAUIUnknownEx@@@Z@4JA
  000a5	83 c1 0b	 add	 ecx, 11			; 0000000bH
  000a8	51		 push	 ecx
  000a9	68 00 00 00 00	 push	 OFFSET ?THIS_FILE@@3PADA
  000ae	e8 00 00 00 00	 call	 ?AfxAssertFailedLine@@YGHPBDH@Z ; AfxAssertFailedLine
  000b3	85 c0		 test	 eax, eax
  000b5	74 01		 je	 SHORT $LN8@OnDataBase
  000b7	cc		 int	 3
$LN8@OnDataBase:

; 53   : 		return false;

  000b8	32 c0		 xor	 al, al
  000ba	e9 70 02 00 00	 jmp	 $LN1@OnDataBase
$LN3@OnDataBase:

; 54   : 	}
; 55   : 
; 56   : 	//创建对象
; 57   : 	if ((m_PlatformDBModule.GetInterface()==NULL)&&(m_PlatformDBModule.CreateInstance()==false))

  000bf	8b 4d ec	 mov	 ecx, DWORD PTR _this$[ebp]
  000c2	81 c1 cc 03 00
	00		 add	 ecx, 972		; 000003ccH
  000c8	e8 00 00 00 00	 call	 ?GetInterface@?$CTempldateHelper@UIDataBase@@@@QBEPAUIDataBase@@XZ ; CTempldateHelper<IDataBase>::GetInterface
  000cd	85 c0		 test	 eax, eax
  000cf	75 39		 jne	 SHORT $LN4@OnDataBase
  000d1	8b 4d ec	 mov	 ecx, DWORD PTR _this$[ebp]
  000d4	81 c1 cc 03 00
	00		 add	 ecx, 972		; 000003ccH
  000da	e8 00 00 00 00	 call	 ?CreateInstance@?$CTempldateHelper@UIDataBase@@@@QAE_NXZ ; CTempldateHelper<IDataBase>::CreateInstance
  000df	0f b6 c0	 movzx	 eax, al
  000e2	85 c0		 test	 eax, eax
  000e4	75 24		 jne	 SHORT $LN4@OnDataBase

; 58   : 	{
; 59   : 		ASSERT(FALSE);

  000e6	33 c0		 xor	 eax, eax
  000e8	75 19		 jne	 SHORT $LN9@OnDataBase
  000ea	8b 0d 00 00 00
	00		 mov	 ecx, DWORD PTR ?__LINE__Var@?0??OnDataBaseEngineStart@CDataBaseEngineSink@@UAE_NPAUIUnknownEx@@@Z@4JA
  000f0	83 c1 12	 add	 ecx, 18			; 00000012H
  000f3	51		 push	 ecx
  000f4	68 00 00 00 00	 push	 OFFSET ?THIS_FILE@@3PADA
  000f9	e8 00 00 00 00	 call	 ?AfxAssertFailedLine@@YGHPBDH@Z ; AfxAssertFailedLine
  000fe	85 c0		 test	 eax, eax
  00100	74 01		 je	 SHORT $LN9@OnDataBase
  00102	cc		 int	 3
$LN9@OnDataBase:

; 60   : 		return false;

  00103	32 c0		 xor	 al, al
  00105	e9 25 02 00 00	 jmp	 $LN1@OnDataBase
$LN4@OnDataBase:

; 61   : 	}
; 62   : 
; 63   : 	try

  0010a	c7 45 fc 00 00
	00 00		 mov	 DWORD PTR __$EHRec$[ebp+12], 0

; 64   : 	{
; 65   : 		//连接信息
; 66   : 		tagDataBaseParameter * pAccountsDBParameter=&m_pInitParameter->m_AccountsDBParameter;

  00111	8b 45 ec	 mov	 eax, DWORD PTR _this$[ebp]
  00114	8b 88 a4 05 00
	00		 mov	 ecx, DWORD PTR [eax+1444]
  0011a	83 c1 5e	 add	 ecx, 94			; 0000005eH
  0011d	89 4d e8	 mov	 DWORD PTR _pAccountsDBParameter$7[ebp], ecx

; 67   : 		tagDataBaseParameter * pTreasureDBParameter=&m_pInitParameter->m_TreasureDBParameter;

  00120	8b 45 ec	 mov	 eax, DWORD PTR _this$[ebp]
  00123	8b 88 a4 05 00
	00		 mov	 ecx, DWORD PTR [eax+1444]
  00129	81 c1 e0 00 00
	00		 add	 ecx, 224		; 000000e0H
  0012f	89 4d e4	 mov	 DWORD PTR _pTreasureDBParameter$6[ebp], ecx

; 68   : 		tagDataBaseParameter * pPlatformDBParameter=&m_pInitParameter->m_PlatformDBParameter;

  00132	8b 45 ec	 mov	 eax, DWORD PTR _this$[ebp]
  00135	8b 88 a4 05 00
	00		 mov	 ecx, DWORD PTR [eax+1444]
  0013b	81 c1 62 01 00
	00		 add	 ecx, 354		; 00000162H
  00141	89 4d e0	 mov	 DWORD PTR _pPlatformDBParameter$5[ebp], ecx

; 69   : 
; 70   : 		//设置连接
; 71   : 		m_AccountsDBModule->SetConnectionInfo(pAccountsDBParameter->szDataBaseAddr,pAccountsDBParameter->wDataBasePort,

  00144	8b 4d ec	 mov	 ecx, DWORD PTR _this$[ebp]
  00147	83 c1 0c	 add	 ecx, 12			; 0000000cH
  0014a	e8 00 00 00 00	 call	 ??C?$CTempldateHelper@UIDataBase@@@@QBEPAUIDataBase@@XZ ; CTempldateHelper<IDataBase>::operator->
  0014f	89 45 90	 mov	 DWORD PTR tv319[ebp], eax
  00152	8b 45 90	 mov	 eax, DWORD PTR tv319[ebp]
  00155	89 45 8c	 mov	 DWORD PTR tv182[ebp], eax
  00158	8b 4d e8	 mov	 ecx, DWORD PTR _pAccountsDBParameter$7[ebp]
  0015b	83 c1 42	 add	 ecx, 66			; 00000042H
  0015e	51		 push	 ecx
  0015f	8b 55 e8	 mov	 edx, DWORD PTR _pAccountsDBParameter$7[ebp]
  00162	83 c2 22	 add	 edx, 34			; 00000022H
  00165	52		 push	 edx
  00166	8b 45 e8	 mov	 eax, DWORD PTR _pAccountsDBParameter$7[ebp]
  00169	83 c0 62	 add	 eax, 98			; 00000062H
  0016c	50		 push	 eax
  0016d	8b 4d e8	 mov	 ecx, DWORD PTR _pAccountsDBParameter$7[ebp]
  00170	0f b7 11	 movzx	 edx, WORD PTR [ecx]
  00173	52		 push	 edx
  00174	8b 45 e8	 mov	 eax, DWORD PTR _pAccountsDBParameter$7[ebp]
  00177	83 c0 02	 add	 eax, 2
  0017a	50		 push	 eax
  0017b	8b 4d 8c	 mov	 ecx, DWORD PTR tv182[ebp]
  0017e	8b 11		 mov	 edx, DWORD PTR [ecx]
  00180	8b 4d 8c	 mov	 ecx, DWORD PTR tv182[ebp]
  00183	8b 42 10	 mov	 eax, DWORD PTR [edx+16]
  00186	ff d0		 call	 eax

; 72   : 			pAccountsDBParameter->szDataBaseName,pAccountsDBParameter->szDataBaseUser,pAccountsDBParameter->szDataBasePass);
; 73   : 		m_TreasureDBModule->SetConnectionInfo(pTreasureDBParameter->szDataBaseAddr,pTreasureDBParameter->wDataBasePort,

  00188	8b 4d ec	 mov	 ecx, DWORD PTR _this$[ebp]
  0018b	81 c1 ec 01 00
	00		 add	 ecx, 492		; 000001ecH
  00191	e8 00 00 00 00	 call	 ??C?$CTempldateHelper@UIDataBase@@@@QBEPAUIDataBase@@XZ ; CTempldateHelper<IDataBase>::operator->
  00196	89 45 90	 mov	 DWORD PTR tv320[ebp], eax
  00199	8b 45 90	 mov	 eax, DWORD PTR tv320[ebp]
  0019c	89 45 8c	 mov	 DWORD PTR tv203[ebp], eax
  0019f	8b 4d e4	 mov	 ecx, DWORD PTR _pTreasureDBParameter$6[ebp]
  001a2	83 c1 42	 add	 ecx, 66			; 00000042H
  001a5	51		 push	 ecx
  001a6	8b 55 e4	 mov	 edx, DWORD PTR _pTreasureDBParameter$6[ebp]
  001a9	83 c2 22	 add	 edx, 34			; 00000022H
  001ac	52		 push	 edx
  001ad	8b 45 e4	 mov	 eax, DWORD PTR _pTreasureDBParameter$6[ebp]
  001b0	83 c0 62	 add	 eax, 98			; 00000062H
  001b3	50		 push	 eax
  001b4	8b 4d e4	 mov	 ecx, DWORD PTR _pTreasureDBParameter$6[ebp]
  001b7	0f b7 11	 movzx	 edx, WORD PTR [ecx]
  001ba	52		 push	 edx
  001bb	8b 45 e4	 mov	 eax, DWORD PTR _pTreasureDBParameter$6[ebp]
  001be	83 c0 02	 add	 eax, 2
  001c1	50		 push	 eax
  001c2	8b 4d 8c	 mov	 ecx, DWORD PTR tv203[ebp]
  001c5	8b 11		 mov	 edx, DWORD PTR [ecx]
  001c7	8b 4d 8c	 mov	 ecx, DWORD PTR tv203[ebp]
  001ca	8b 42 10	 mov	 eax, DWORD PTR [edx+16]
  001cd	ff d0		 call	 eax

; 74   : 			pTreasureDBParameter->szDataBaseName,pTreasureDBParameter->szDataBaseUser,pTreasureDBParameter->szDataBasePass);
; 75   : 		m_PlatformDBModule->SetConnectionInfo(pPlatformDBParameter->szDataBaseAddr,pPlatformDBParameter->wDataBasePort,

  001cf	8b 4d ec	 mov	 ecx, DWORD PTR _this$[ebp]
  001d2	81 c1 cc 03 00
	00		 add	 ecx, 972		; 000003ccH
  001d8	e8 00 00 00 00	 call	 ??C?$CTempldateHelper@UIDataBase@@@@QBEPAUIDataBase@@XZ ; CTempldateHelper<IDataBase>::operator->
  001dd	89 45 90	 mov	 DWORD PTR tv321[ebp], eax
  001e0	8b 45 90	 mov	 eax, DWORD PTR tv321[ebp]
  001e3	89 45 8c	 mov	 DWORD PTR tv224[ebp], eax
  001e6	8b 4d e0	 mov	 ecx, DWORD PTR _pPlatformDBParameter$5[ebp]
  001e9	83 c1 42	 add	 ecx, 66			; 00000042H
  001ec	51		 push	 ecx
  001ed	8b 55 e0	 mov	 edx, DWORD PTR _pPlatformDBParameter$5[ebp]
  001f0	83 c2 22	 add	 edx, 34			; 00000022H
  001f3	52		 push	 edx
  001f4	8b 45 e0	 mov	 eax, DWORD PTR _pPlatformDBParameter$5[ebp]
  001f7	83 c0 62	 add	 eax, 98			; 00000062H
  001fa	50		 push	 eax
  001fb	8b 4d e0	 mov	 ecx, DWORD PTR _pPlatformDBParameter$5[ebp]
  001fe	0f b7 11	 movzx	 edx, WORD PTR [ecx]
  00201	52		 push	 edx
  00202	8b 45 e0	 mov	 eax, DWORD PTR _pPlatformDBParameter$5[ebp]
  00205	83 c0 02	 add	 eax, 2
  00208	50		 push	 eax
  00209	8b 4d 8c	 mov	 ecx, DWORD PTR tv224[ebp]
  0020c	8b 11		 mov	 edx, DWORD PTR [ecx]
  0020e	8b 4d 8c	 mov	 ecx, DWORD PTR tv224[ebp]
  00211	8b 42 10	 mov	 eax, DWORD PTR [edx+16]
  00214	ff d0		 call	 eax

; 76   : 			pPlatformDBParameter->szDataBaseName,pPlatformDBParameter->szDataBaseUser,pPlatformDBParameter->szDataBasePass);
; 77   : 
; 78   : 		//发起连接
; 79   : 		m_AccountsDBModule->OpenConnection();

  00216	8b 4d ec	 mov	 ecx, DWORD PTR _this$[ebp]
  00219	83 c1 0c	 add	 ecx, 12			; 0000000cH
  0021c	e8 00 00 00 00	 call	 ??C?$CTempldateHelper@UIDataBase@@@@QBEPAUIDataBase@@XZ ; CTempldateHelper<IDataBase>::operator->
  00221	89 45 90	 mov	 DWORD PTR tv322[ebp], eax
  00224	8b 45 90	 mov	 eax, DWORD PTR tv322[ebp]
  00227	89 45 8c	 mov	 DWORD PTR tv245[ebp], eax
  0022a	8b 4d 8c	 mov	 ecx, DWORD PTR tv245[ebp]
  0022d	8b 11		 mov	 edx, DWORD PTR [ecx]
  0022f	8b 4d 8c	 mov	 ecx, DWORD PTR tv245[ebp]
  00232	8b 42 08	 mov	 eax, DWORD PTR [edx+8]
  00235	ff d0		 call	 eax

; 80   : 		m_AccountsDBAide.SetDataBase(m_AccountsDBModule.GetInterface());

  00237	8b 4d ec	 mov	 ecx, DWORD PTR _this$[ebp]
  0023a	83 c1 0c	 add	 ecx, 12			; 0000000cH
  0023d	e8 00 00 00 00	 call	 ?GetInterface@?$CTempldateHelper@UIDataBase@@@@QBEPAUIDataBase@@XZ ; CTempldateHelper<IDataBase>::GetInterface
  00242	89 45 90	 mov	 DWORD PTR tv323[ebp], eax
  00245	8b 45 90	 mov	 eax, DWORD PTR tv323[ebp]
  00248	50		 push	 eax
  00249	8b 4d ec	 mov	 ecx, DWORD PTR _this$[ebp]
  0024c	83 c1 04	 add	 ecx, 4
  0024f	ff 15 00 00 00
	00		 call	 DWORD PTR __imp_?SetDataBase@CDataBaseAide@@QAE_NPAUIUnknownEx@@@Z

; 81   : 
; 82   : 		//发起连接
; 83   : 		m_TreasureDBModule->OpenConnection();

  00255	8b 4d ec	 mov	 ecx, DWORD PTR _this$[ebp]
  00258	81 c1 ec 01 00
	00		 add	 ecx, 492		; 000001ecH
  0025e	e8 00 00 00 00	 call	 ??C?$CTempldateHelper@UIDataBase@@@@QBEPAUIDataBase@@XZ ; CTempldateHelper<IDataBase>::operator->
  00263	89 45 90	 mov	 DWORD PTR tv324[ebp], eax
  00266	8b 45 90	 mov	 eax, DWORD PTR tv324[ebp]
  00269	89 45 8c	 mov	 DWORD PTR tv270[ebp], eax
  0026c	8b 4d 8c	 mov	 ecx, DWORD PTR tv270[ebp]
  0026f	8b 11		 mov	 edx, DWORD PTR [ecx]
  00271	8b 4d 8c	 mov	 ecx, DWORD PTR tv270[ebp]
  00274	8b 42 08	 mov	 eax, DWORD PTR [edx+8]
  00277	ff d0		 call	 eax

; 84   : 		m_TreasureDBAide.SetDataBase(m_TreasureDBModule.GetInterface());

  00279	8b 4d ec	 mov	 ecx, DWORD PTR _this$[ebp]
  0027c	81 c1 ec 01 00
	00		 add	 ecx, 492		; 000001ecH
  00282	e8 00 00 00 00	 call	 ?GetInterface@?$CTempldateHelper@UIDataBase@@@@QBEPAUIDataBase@@XZ ; CTempldateHelper<IDataBase>::GetInterface
  00287	89 45 90	 mov	 DWORD PTR tv325[ebp], eax
  0028a	8b 45 90	 mov	 eax, DWORD PTR tv325[ebp]
  0028d	50		 push	 eax
  0028e	8b 4d ec	 mov	 ecx, DWORD PTR _this$[ebp]
  00291	81 c1 e4 01 00
	00		 add	 ecx, 484		; 000001e4H
  00297	ff 15 00 00 00
	00		 call	 DWORD PTR __imp_?SetDataBase@CDataBaseAide@@QAE_NPAUIUnknownEx@@@Z

; 85   : 
; 86   : 		//发起连接
; 87   : 		m_PlatformDBModule->OpenConnection();

  0029d	8b 4d ec	 mov	 ecx, DWORD PTR _this$[ebp]
  002a0	81 c1 cc 03 00
	00		 add	 ecx, 972		; 000003ccH
  002a6	e8 00 00 00 00	 call	 ??C?$CTempldateHelper@UIDataBase@@@@QBEPAUIDataBase@@XZ ; CTempldateHelper<IDataBase>::operator->
  002ab	89 45 90	 mov	 DWORD PTR tv326[ebp], eax
  002ae	8b 45 90	 mov	 eax, DWORD PTR tv326[ebp]
  002b1	89 45 8c	 mov	 DWORD PTR tv295[ebp], eax
  002b4	8b 4d 8c	 mov	 ecx, DWORD PTR tv295[ebp]
  002b7	8b 11		 mov	 edx, DWORD PTR [ecx]
  002b9	8b 4d 8c	 mov	 ecx, DWORD PTR tv295[ebp]
  002bc	8b 42 08	 mov	 eax, DWORD PTR [edx+8]
  002bf	ff d0		 call	 eax

; 88   : 		m_PlatformDBAide.SetDataBase(m_PlatformDBModule.GetInterface());

  002c1	8b 4d ec	 mov	 ecx, DWORD PTR _this$[ebp]
  002c4	81 c1 cc 03 00
	00		 add	 ecx, 972		; 000003ccH
  002ca	e8 00 00 00 00	 call	 ?GetInterface@?$CTempldateHelper@UIDataBase@@@@QBEPAUIDataBase@@XZ ; CTempldateHelper<IDataBase>::GetInterface
  002cf	89 45 90	 mov	 DWORD PTR tv327[ebp], eax
  002d2	8b 45 90	 mov	 eax, DWORD PTR tv327[ebp]
  002d5	50		 push	 eax
  002d6	8b 4d ec	 mov	 ecx, DWORD PTR _this$[ebp]
  002d9	81 c1 c4 03 00
	00		 add	 ecx, 964		; 000003c4H
  002df	ff 15 00 00 00
	00		 call	 DWORD PTR __imp_?SetDataBase@CDataBaseAide@@QAE_NPAUIUnknownEx@@@Z

; 89   : 
; 90   : 		return true;

  002e5	b0 01		 mov	 al, 1
  002e7	eb 46		 jmp	 SHORT $LN1@OnDataBase
__catch$?OnDataBaseEngineStart@CDataBaseEngineSink@@UAE_NPAUIUnknownEx@@@Z$0:

; 91   : 	}
; 92   : 	catch (IDataBaseException * pIException)
; 93   : 	{
; 94   : 		//错误信息
; 95   : 		LPCTSTR pszDescribe=pIException->GetExceptionDescribe();

  002e9	8b 45 dc	 mov	 eax, DWORD PTR _pIException$4[ebp]
  002ec	8b 10		 mov	 edx, DWORD PTR [eax]
  002ee	8b 4d dc	 mov	 ecx, DWORD PTR _pIException$4[ebp]
  002f1	8b 42 0c	 mov	 eax, DWORD PTR [edx+12]
  002f4	ff d0		 call	 eax
  002f6	89 45 d8	 mov	 DWORD PTR _pszDescribe$3[ebp], eax

; 96   : 		CTraceService::TraceString(pszDescribe,TraceLevel_Exception);

  002f9	6a 03		 push	 3
  002fb	8b 45 d8	 mov	 eax, DWORD PTR _pszDescribe$3[ebp]
  002fe	50		 push	 eax
  002ff	ff 15 00 00 00
	00		 call	 DWORD PTR __imp_?TraceString@CTraceService@@SA_NPBDW4enTraceLevel@@@Z
  00305	83 c4 08	 add	 esp, 8

; 97   : 
; 98   : 		return false;

  00308	c6 45 97 00	 mov	 BYTE PTR $T2[ebp], 0
  0030c	b8 00 00 00 00	 mov	 eax, $LN13@OnDataBase
  00311	c3		 ret	 0

; 99   : 	}

  00312	b8 00 00 00 00	 mov	 eax, __tryend$?OnDataBaseEngineStart@CDataBaseEngineSink@@UAE_NPAUIUnknownEx@@@Z$1
  00317	c3		 ret	 0
__tryend$?OnDataBaseEngineStart@CDataBaseEngineSink@@UAE_NPAUIUnknownEx@@@Z$1:
  00318	c7 45 fc ff ff
	ff ff		 mov	 DWORD PTR __$EHRec$[ebp+12], -1
  0031f	eb 0c		 jmp	 SHORT $LN12@OnDataBase
$LN13@OnDataBase:
  00321	c7 45 fc ff ff
	ff ff		 mov	 DWORD PTR __$EHRec$[ebp+12], -1

; 97   : 
; 98   : 		return false;

  00328	8a 45 97	 mov	 al, BYTE PTR $T2[ebp]
  0032b	eb 02		 jmp	 SHORT $LN1@OnDataBase
$LN12@OnDataBase:

; 100  : 
; 101  : 	return true;

  0032d	b0 01		 mov	 al, 1
$LN1@OnDataBase:

; 102  : }

  0032f	8b 4d f4	 mov	 ecx, DWORD PTR __$EHRec$[ebp+4]
  00332	64 89 0d 00 00
	00 00		 mov	 DWORD PTR fs:0, ecx
  00339	59		 pop	 ecx
  0033a	5f		 pop	 edi
  0033b	5e		 pop	 esi
  0033c	5b		 pop	 ebx
  0033d	8b e5		 mov	 esp, ebp
  0033f	5d		 pop	 ebp
  00340	c2 04 00	 ret	 4
_TEXT	ENDS
;	COMDAT text$x
text$x	SEGMENT
__ehhandler$?OnDataBaseEngineStart@CDataBaseEngineSink@@UAE_NPAUIUnknownEx@@@Z:
  00000	8b 54 24 08	 mov	 edx, DWORD PTR [esp+8]
  00004	8d 42 0c	 lea	 eax, DWORD PTR [edx+12]
  00007	8b 4a 88	 mov	 ecx, DWORD PTR [edx-120]
  0000a	33 c8		 xor	 ecx, eax
  0000c	e8 00 00 00 00	 call	 @__security_check_cookie@4
  00011	b8 00 00 00 00	 mov	 eax, OFFSET __ehfuncinfo$?OnDataBaseEngineStart@CDataBaseEngineSink@@UAE_NPAUIUnknownEx@@@Z
  00016	e9 00 00 00 00	 jmp	 ___CxxFrameHandler3
text$x	ENDS
?OnDataBaseEngineStart@CDataBaseEngineSink@@UAE_NPAUIUnknownEx@@@Z ENDP ; CDataBaseEngineSink::OnDataBaseEngineStart
; Function compile flags: /Odtp /ZI
; File g:\网狐\happygamewh\服务端\系统模块\服务器组件\聊天服务器\databaseenginesink.cpp
;	COMDAT ?QueryInterface@CDataBaseEngineSink@@UAEPAXABU_GUID@@K@Z
_TEXT	SEGMENT
_this$ = -4						; size = 4
_Guid$ = 8						; size = 4
_dwQueryVer$ = 12					; size = 4
?QueryInterface@CDataBaseEngineSink@@UAEPAXABU_GUID@@K@Z PROC ; CDataBaseEngineSink::QueryInterface, COMDAT
; _this$ = ecx

; 33   : {

  00000	55		 push	 ebp
  00001	8b ec		 mov	 ebp, esp
  00003	83 ec 44	 sub	 esp, 68			; 00000044H
  00006	53		 push	 ebx
  00007	56		 push	 esi
  00008	57		 push	 edi
  00009	89 4d fc	 mov	 DWORD PTR _this$[ebp], ecx

; 34   : 	QUERYINTERFACE(IDataBaseEngineSink,Guid,dwQueryVer);

  0000c	68 00 00 00 00	 push	 OFFSET ?IID_IDataBaseEngineSink@@3U_GUID@@B
  00011	8b 45 08	 mov	 eax, DWORD PTR _Guid$[ebp]
  00014	50		 push	 eax
  00015	e8 00 00 00 00	 call	 _==
  0001a	83 c4 08	 add	 esp, 8
  0001d	0f b6 c8	 movzx	 ecx, al
  00020	85 c9		 test	 ecx, ecx
  00022	74 1d		 je	 SHORT $LN2@QueryInter
  00024	68 00 01 01 06	 push	 100729088		; 06010100H
  00029	8b 45 0c	 mov	 eax, DWORD PTR _dwQueryVer$[ebp]
  0002c	50		 push	 eax
  0002d	e8 00 00 00 00	 call	 ?InterfaceVersionCompare@@YA_NKK@Z ; InterfaceVersionCompare
  00032	83 c4 08	 add	 esp, 8
  00035	0f b6 c8	 movzx	 ecx, al
  00038	85 c9		 test	 ecx, ecx
  0003a	74 05		 je	 SHORT $LN2@QueryInter
  0003c	8b 45 fc	 mov	 eax, DWORD PTR _this$[ebp]
  0003f	eb 37		 jmp	 SHORT $LN1@QueryInter
$LN2@QueryInter:

; 35   : 	QUERYINTERFACE_IUNKNOWNEX(IDataBaseEngineSink,Guid,dwQueryVer);

  00041	68 00 00 00 00	 push	 OFFSET ?IID_IUnknownEx@@3U_GUID@@B
  00046	8b 45 08	 mov	 eax, DWORD PTR _Guid$[ebp]
  00049	50		 push	 eax
  0004a	e8 00 00 00 00	 call	 _==
  0004f	83 c4 08	 add	 esp, 8
  00052	0f b6 c8	 movzx	 ecx, al
  00055	85 c9		 test	 ecx, ecx
  00057	74 1d		 je	 SHORT $LN3@QueryInter
  00059	68 00 01 01 06	 push	 100729088		; 06010100H
  0005e	8b 45 0c	 mov	 eax, DWORD PTR _dwQueryVer$[ebp]
  00061	50		 push	 eax
  00062	e8 00 00 00 00	 call	 ?InterfaceVersionCompare@@YA_NKK@Z ; InterfaceVersionCompare
  00067	83 c4 08	 add	 esp, 8
  0006a	0f b6 c8	 movzx	 ecx, al
  0006d	85 c9		 test	 ecx, ecx
  0006f	74 05		 je	 SHORT $LN3@QueryInter
  00071	8b 45 fc	 mov	 eax, DWORD PTR _this$[ebp]
  00074	eb 02		 jmp	 SHORT $LN1@QueryInter
$LN3@QueryInter:

; 36   : 	return NULL;

  00076	33 c0		 xor	 eax, eax
$LN1@QueryInter:

; 37   : }

  00078	5f		 pop	 edi
  00079	5e		 pop	 esi
  0007a	5b		 pop	 ebx
  0007b	8b e5		 mov	 esp, ebp
  0007d	5d		 pop	 ebp
  0007e	c2 08 00	 ret	 8
?QueryInterface@CDataBaseEngineSink@@UAEPAXABU_GUID@@K@Z ENDP ; CDataBaseEngineSink::QueryInterface
_TEXT	ENDS
; Function compile flags: /Odtp /ZI
; File g:\网狐\happygamewh\服务端\系统模块\服务器组件\聊天服务器\databaseenginesink.h
;	COMDAT ?Release@CDataBaseEngineSink@@UAEXXZ
_TEXT	SEGMENT
_this$ = -4						; size = 4
?Release@CDataBaseEngineSink@@UAEXXZ PROC		; CDataBaseEngineSink::Release, COMDAT
; _this$ = ecx

; 52   : 	virtual VOID Release() { return; }

  00000	55		 push	 ebp
  00001	8b ec		 mov	 ebp, esp
  00003	83 ec 44	 sub	 esp, 68			; 00000044H
  00006	53		 push	 ebx
  00007	56		 push	 esi
  00008	57		 push	 edi
  00009	89 4d fc	 mov	 DWORD PTR _this$[ebp], ecx
  0000c	5f		 pop	 edi
  0000d	5e		 pop	 esi
  0000e	5b		 pop	 ebx
  0000f	8b e5		 mov	 esp, ebp
  00011	5d		 pop	 ebp
  00012	c3		 ret	 0
?Release@CDataBaseEngineSink@@UAEXXZ ENDP		; CDataBaseEngineSink::Release
_TEXT	ENDS
; Function compile flags: /Odtp /ZI
; File g:\网狐\happygamewh\服务端\系统模块\服务器组件\聊天服务器\databaseenginesink.cpp
;	COMDAT ??1CDataBaseEngineSink@@UAE@XZ
_TEXT	SEGMENT
_this$ = -4						; size = 4
??1CDataBaseEngineSink@@UAE@XZ PROC			; CDataBaseEngineSink::~CDataBaseEngineSink, COMDAT
; _this$ = ecx

; 28   : {

  00000	55		 push	 ebp
  00001	8b ec		 mov	 ebp, esp
  00003	83 ec 44	 sub	 esp, 68			; 00000044H
  00006	53		 push	 ebx
  00007	56		 push	 esi
  00008	57		 push	 edi
  00009	89 4d fc	 mov	 DWORD PTR _this$[ebp], ecx
  0000c	8b 45 fc	 mov	 eax, DWORD PTR _this$[ebp]
  0000f	c7 00 00 00 00
	00		 mov	 DWORD PTR [eax], OFFSET ??_7CDataBaseEngineSink@@6B@

; 29   : }

  00015	8b 4d fc	 mov	 ecx, DWORD PTR _this$[ebp]
  00018	81 c1 cc 03 00
	00		 add	 ecx, 972		; 000003ccH
  0001e	e8 00 00 00 00	 call	 ??1CDataBaseHelper@@UAE@XZ
  00023	8b 4d fc	 mov	 ecx, DWORD PTR _this$[ebp]
  00026	81 c1 c4 03 00
	00		 add	 ecx, 964		; 000003c4H
  0002c	ff 15 00 00 00
	00		 call	 DWORD PTR __imp_??1CDataBaseAide@@UAE@XZ
  00032	8b 4d fc	 mov	 ecx, DWORD PTR _this$[ebp]
  00035	81 c1 ec 01 00
	00		 add	 ecx, 492		; 000001ecH
  0003b	e8 00 00 00 00	 call	 ??1CDataBaseHelper@@UAE@XZ
  00040	8b 4d fc	 mov	 ecx, DWORD PTR _this$[ebp]
  00043	81 c1 e4 01 00
	00		 add	 ecx, 484		; 000001e4H
  00049	ff 15 00 00 00
	00		 call	 DWORD PTR __imp_??1CDataBaseAide@@UAE@XZ
  0004f	8b 4d fc	 mov	 ecx, DWORD PTR _this$[ebp]
  00052	83 c1 0c	 add	 ecx, 12			; 0000000cH
  00055	e8 00 00 00 00	 call	 ??1CDataBaseHelper@@UAE@XZ
  0005a	8b 4d fc	 mov	 ecx, DWORD PTR _this$[ebp]
  0005d	83 c1 04	 add	 ecx, 4
  00060	ff 15 00 00 00
	00		 call	 DWORD PTR __imp_??1CDataBaseAide@@UAE@XZ
  00066	5f		 pop	 edi
  00067	5e		 pop	 esi
  00068	5b		 pop	 ebx
  00069	8b e5		 mov	 esp, ebp
  0006b	5d		 pop	 ebp
  0006c	c3		 ret	 0
??1CDataBaseEngineSink@@UAE@XZ ENDP			; CDataBaseEngineSink::~CDataBaseEngineSink
_TEXT	ENDS
; Function compile flags: /Odtp /ZI
; File g:\网狐\happygamewh\服务端\系统模块\服务器组件\聊天服务器\databaseenginesink.cpp
;	COMDAT ??0CDataBaseEngineSink@@QAE@XZ
_TEXT	SEGMENT
_this$ = -16						; size = 4
__$EHRec$ = -12						; size = 12
??0CDataBaseEngineSink@@QAE@XZ PROC			; CDataBaseEngineSink::CDataBaseEngineSink, COMDAT
; _this$ = ecx

; 15   : {

  00000	55		 push	 ebp
  00001	8b ec		 mov	 ebp, esp
  00003	6a ff		 push	 -1
  00005	68 00 00 00 00	 push	 __ehhandler$??0CDataBaseEngineSink@@QAE@XZ
  0000a	64 a1 00 00 00
	00		 mov	 eax, DWORD PTR fs:0
  00010	50		 push	 eax
  00011	83 ec 44	 sub	 esp, 68			; 00000044H
  00014	53		 push	 ebx
  00015	56		 push	 esi
  00016	57		 push	 edi
  00017	a1 00 00 00 00	 mov	 eax, DWORD PTR ___security_cookie
  0001c	33 c5		 xor	 eax, ebp
  0001e	50		 push	 eax
  0001f	8d 45 f4	 lea	 eax, DWORD PTR __$EHRec$[ebp]
  00022	64 a3 00 00 00
	00		 mov	 DWORD PTR fs:0, eax
  00028	89 4d f0	 mov	 DWORD PTR _this$[ebp], ecx
  0002b	8b 4d f0	 mov	 ecx, DWORD PTR _this$[ebp]
  0002e	e8 00 00 00 00	 call	 ??0IDataBaseEngineSink@@QAE@XZ
  00033	8b 45 f0	 mov	 eax, DWORD PTR _this$[ebp]
  00036	c7 00 00 00 00
	00		 mov	 DWORD PTR [eax], OFFSET ??_7CDataBaseEngineSink@@6B@
  0003c	6a 00		 push	 0
  0003e	8b 4d f0	 mov	 ecx, DWORD PTR _this$[ebp]
  00041	83 c1 04	 add	 ecx, 4
  00044	ff 15 00 00 00
	00		 call	 DWORD PTR __imp_??0CDataBaseAide@@QAE@PAUIUnknownEx@@@Z
  0004a	c7 45 fc 00 00
	00 00		 mov	 DWORD PTR __$EHRec$[ebp+8], 0
  00051	8b 4d f0	 mov	 ecx, DWORD PTR _this$[ebp]
  00054	83 c1 0c	 add	 ecx, 12			; 0000000cH
  00057	e8 00 00 00 00	 call	 ??0CDataBaseHelper@@QAE@XZ ; CDataBaseHelper::CDataBaseHelper
  0005c	c6 45 fc 01	 mov	 BYTE PTR __$EHRec$[ebp+8], 1
  00060	6a 00		 push	 0
  00062	8b 4d f0	 mov	 ecx, DWORD PTR _this$[ebp]
  00065	81 c1 e4 01 00
	00		 add	 ecx, 484		; 000001e4H
  0006b	ff 15 00 00 00
	00		 call	 DWORD PTR __imp_??0CDataBaseAide@@QAE@PAUIUnknownEx@@@Z
  00071	c6 45 fc 02	 mov	 BYTE PTR __$EHRec$[ebp+8], 2
  00075	8b 4d f0	 mov	 ecx, DWORD PTR _this$[ebp]
  00078	81 c1 ec 01 00
	00		 add	 ecx, 492		; 000001ecH
  0007e	e8 00 00 00 00	 call	 ??0CDataBaseHelper@@QAE@XZ ; CDataBaseHelper::CDataBaseHelper
  00083	c6 45 fc 03	 mov	 BYTE PTR __$EHRec$[ebp+8], 3
  00087	6a 00		 push	 0
  00089	8b 4d f0	 mov	 ecx, DWORD PTR _this$[ebp]
  0008c	81 c1 c4 03 00
	00		 add	 ecx, 964		; 000003c4H
  00092	ff 15 00 00 00
	00		 call	 DWORD PTR __imp_??0CDataBaseAide@@QAE@PAUIUnknownEx@@@Z
  00098	c6 45 fc 04	 mov	 BYTE PTR __$EHRec$[ebp+8], 4
  0009c	8b 4d f0	 mov	 ecx, DWORD PTR _this$[ebp]
  0009f	81 c1 cc 03 00
	00		 add	 ecx, 972		; 000003ccH
  000a5	e8 00 00 00 00	 call	 ??0CDataBaseHelper@@QAE@XZ ; CDataBaseHelper::CDataBaseHelper

; 16   : 	//组件变量
; 17   : 	m_pInitParameter=NULL;

  000aa	8b 45 f0	 mov	 eax, DWORD PTR _this$[ebp]
  000ad	c7 80 a4 05 00
	00 00 00 00 00	 mov	 DWORD PTR [eax+1444], 0

; 18   : 	m_pIDataBaseEngineEvent=NULL;

  000b7	8b 45 f0	 mov	 eax, DWORD PTR _this$[ebp]
  000ba	c7 80 a8 05 00
	00 00 00 00 00	 mov	 DWORD PTR [eax+1448], 0

; 19   : 	//辅助变量
; 20   : 	ZeroMemory(&m_LogonFailure,sizeof(m_LogonFailure));

  000c4	68 84 00 00 00	 push	 132			; 00000084H
  000c9	6a 00		 push	 0
  000cb	8b 45 f0	 mov	 eax, DWORD PTR _this$[ebp]
  000ce	05 ac 05 00 00	 add	 eax, 1452		; 000005acH
  000d3	50		 push	 eax
  000d4	e8 00 00 00 00	 call	 _memset
  000d9	83 c4 0c	 add	 esp, 12			; 0000000cH

; 21   : 	ZeroMemory(&m_LogonSuccess,sizeof(m_LogonSuccess));

  000dc	68 8c 01 00 00	 push	 396			; 0000018cH
  000e1	6a 00		 push	 0
  000e3	8b 45 f0	 mov	 eax, DWORD PTR _this$[ebp]
  000e6	05 30 06 00 00	 add	 eax, 1584		; 00000630H
  000eb	50		 push	 eax
  000ec	e8 00 00 00 00	 call	 _memset
  000f1	83 c4 0c	 add	 esp, 12			; 0000000cH

; 22   : 
; 23   : 	return;
; 24   : }

  000f4	c7 45 fc ff ff
	ff ff		 mov	 DWORD PTR __$EHRec$[ebp+8], -1
  000fb	8b 45 f0	 mov	 eax, DWORD PTR _this$[ebp]
  000fe	8b 4d f4	 mov	 ecx, DWORD PTR __$EHRec$[ebp]
  00101	64 89 0d 00 00
	00 00		 mov	 DWORD PTR fs:0, ecx
  00108	59		 pop	 ecx
  00109	5f		 pop	 edi
  0010a	5e		 pop	 esi
  0010b	5b		 pop	 ebx
  0010c	8b e5		 mov	 esp, ebp
  0010e	5d		 pop	 ebp
  0010f	c3		 ret	 0
_TEXT	ENDS
;	COMDAT text$x
text$x	SEGMENT
__unwindfunclet$??0CDataBaseEngineSink@@QAE@XZ$0:
  00000	8b 4d f0	 mov	 ecx, DWORD PTR _this$[ebp]
  00003	83 c1 04	 add	 ecx, 4
  00006	ff 25 00 00 00
	00		 jmp	 DWORD PTR __imp_??1CDataBaseAide@@UAE@XZ
__unwindfunclet$??0CDataBaseEngineSink@@QAE@XZ$1:
  0000c	8b 4d f0	 mov	 ecx, DWORD PTR _this$[ebp]
  0000f	83 c1 0c	 add	 ecx, 12			; 0000000cH
  00012	e9 00 00 00 00	 jmp	 ??1CDataBaseHelper@@UAE@XZ
__unwindfunclet$??0CDataBaseEngineSink@@QAE@XZ$2:
  00017	8b 4d f0	 mov	 ecx, DWORD PTR _this$[ebp]
  0001a	81 c1 e4 01 00
	00		 add	 ecx, 484		; 000001e4H
  00020	ff 25 00 00 00
	00		 jmp	 DWORD PTR __imp_??1CDataBaseAide@@UAE@XZ
__unwindfunclet$??0CDataBaseEngineSink@@QAE@XZ$3:
  00026	8b 4d f0	 mov	 ecx, DWORD PTR _this$[ebp]
  00029	81 c1 ec 01 00
	00		 add	 ecx, 492		; 000001ecH
  0002f	e9 00 00 00 00	 jmp	 ??1CDataBaseHelper@@UAE@XZ
__unwindfunclet$??0CDataBaseEngineSink@@QAE@XZ$4:
  00034	8b 4d f0	 mov	 ecx, DWORD PTR _this$[ebp]
  00037	81 c1 c4 03 00
	00		 add	 ecx, 964		; 000003c4H
  0003d	ff 25 00 00 00
	00		 jmp	 DWORD PTR __imp_??1CDataBaseAide@@UAE@XZ
__ehhandler$??0CDataBaseEngineSink@@QAE@XZ:
  00043	8b 54 24 08	 mov	 edx, DWORD PTR [esp+8]
  00047	8d 42 0c	 lea	 eax, DWORD PTR [edx+12]
  0004a	8b 4a ac	 mov	 ecx, DWORD PTR [edx-84]
  0004d	33 c8		 xor	 ecx, eax
  0004f	e8 00 00 00 00	 call	 @__security_check_cookie@4
  00054	b8 00 00 00 00	 mov	 eax, OFFSET __ehfuncinfo$??0CDataBaseEngineSink@@QAE@XZ
  00059	e9 00 00 00 00	 jmp	 ___CxxFrameHandler3
text$x	ENDS
??0CDataBaseEngineSink@@QAE@XZ ENDP			; CDataBaseEngineSink::CDataBaseEngineSink
; Function compile flags: /Odtp /ZI
;	COMDAT ??_GCDataBaseHelper@@UAEPAXI@Z
_TEXT	SEGMENT
_this$ = -4						; size = 4
___flags$ = 8						; size = 4
??_GCDataBaseHelper@@UAEPAXI@Z PROC			; CDataBaseHelper::`scalar deleting destructor', COMDAT
; _this$ = ecx
  00000	55		 push	 ebp
  00001	8b ec		 mov	 ebp, esp
  00003	83 ec 44	 sub	 esp, 68			; 00000044H
  00006	53		 push	 ebx
  00007	56		 push	 esi
  00008	57		 push	 edi
  00009	89 4d fc	 mov	 DWORD PTR _this$[ebp], ecx
  0000c	8b 4d fc	 mov	 ecx, DWORD PTR _this$[ebp]
  0000f	e8 00 00 00 00	 call	 ??1CDataBaseHelper@@UAE@XZ
  00014	8b 45 08	 mov	 eax, DWORD PTR ___flags$[ebp]
  00017	83 e0 01	 and	 eax, 1
  0001a	74 11		 je	 SHORT $LN2@scalar
  0001c	68 d8 01 00 00	 push	 472			; 000001d8H
  00021	8b 45 fc	 mov	 eax, DWORD PTR _this$[ebp]
  00024	50		 push	 eax
  00025	e8 00 00 00 00	 call	 ??3@YAXPAXI@Z		; operator delete
  0002a	83 c4 08	 add	 esp, 8
$LN2@scalar:
  0002d	8b 45 fc	 mov	 eax, DWORD PTR _this$[ebp]
  00030	5f		 pop	 edi
  00031	5e		 pop	 esi
  00032	5b		 pop	 ebx
  00033	8b e5		 mov	 esp, ebp
  00035	5d		 pop	 ebp
  00036	c2 04 00	 ret	 4
??_GCDataBaseHelper@@UAEPAXI@Z ENDP			; CDataBaseHelper::`scalar deleting destructor'
_TEXT	ENDS
; Function compile flags: /Odtp /ZI
;	COMDAT ??1CDataBaseHelper@@UAE@XZ
_TEXT	SEGMENT
_this$ = -4						; size = 4
??1CDataBaseHelper@@UAE@XZ PROC				; CDataBaseHelper::~CDataBaseHelper, COMDAT
; _this$ = ecx
  00000	55		 push	 ebp
  00001	8b ec		 mov	 ebp, esp
  00003	83 ec 44	 sub	 esp, 68			; 00000044H
  00006	53		 push	 ebx
  00007	56		 push	 esi
  00008	57		 push	 edi
  00009	89 4d fc	 mov	 DWORD PTR _this$[ebp], ecx
  0000c	8b 4d fc	 mov	 ecx, DWORD PTR _this$[ebp]
  0000f	e8 00 00 00 00	 call	 ??1?$CTempldateHelper@UIDataBase@@@@UAE@XZ ; CTempldateHelper<IDataBase>::~CTempldateHelper<IDataBase>
  00014	5f		 pop	 edi
  00015	5e		 pop	 esi
  00016	5b		 pop	 ebx
  00017	8b e5		 mov	 esp, ebp
  00019	5d		 pop	 ebp
  0001a	c3		 ret	 0
??1CDataBaseHelper@@UAE@XZ ENDP				; CDataBaseHelper::~CDataBaseHelper
_TEXT	ENDS
; Function compile flags: /Odtp /ZI
; File g:\网狐\happygamewh\服务端\系统模块\服务器组件\内核引擎\kernelenginehead.h
;	COMDAT ??0CDataBaseHelper@@QAE@XZ
_TEXT	SEGMENT
_this$ = -4						; size = 4
??0CDataBaseHelper@@QAE@XZ PROC				; CDataBaseHelper::CDataBaseHelper, COMDAT
; _this$ = ecx

; 842  : DECLARE_MODULE_HELPER(DataBase, KERNEL_ENGINE_DLL_NAME, "CreateDataBase")

  00000	55		 push	 ebp
  00001	8b ec		 mov	 ebp, esp
  00003	83 ec 44	 sub	 esp, 68			; 00000044H
  00006	53		 push	 ebx
  00007	56		 push	 esi
  00008	57		 push	 edi
  00009	89 4d fc	 mov	 DWORD PTR _this$[ebp], ecx
  0000c	68 00 00 00 00	 push	 OFFSET ??_C@_0P@IKJBDFNG@CreateDataBase@
  00011	68 00 00 00 00	 push	 OFFSET ??_C@_0BB@BEMLEOHB@KernelEngine?4dll@
  00016	68 00 01 01 06	 push	 100729088		; 06010100H
  0001b	68 00 00 00 00	 push	 OFFSET ?IID_IDataBase@@3U_GUID@@B
  00020	8b 4d fc	 mov	 ecx, DWORD PTR _this$[ebp]
  00023	e8 00 00 00 00	 call	 ??0?$CTempldateHelper@UIDataBase@@@@QAE@ABU_GUID@@KPBD1@Z ; CTempldateHelper<IDataBase>::CTempldateHelper<IDataBase>
  00028	8b 45 fc	 mov	 eax, DWORD PTR _this$[ebp]
  0002b	c7 00 00 00 00
	00		 mov	 DWORD PTR [eax], OFFSET ??_7CDataBaseHelper@@6B@
  00031	8b 45 fc	 mov	 eax, DWORD PTR _this$[ebp]
  00034	5f		 pop	 edi
  00035	5e		 pop	 esi
  00036	5b		 pop	 ebx
  00037	8b e5		 mov	 esp, ebp
  00039	5d		 pop	 ebp
  0003a	c3		 ret	 0
??0CDataBaseHelper@@QAE@XZ ENDP				; CDataBaseHelper::CDataBaseHelper
_TEXT	ENDS
; Function compile flags: /Odtp /ZI
;	COMDAT ??_G?$CTempldateHelper@UIDataBase@@@@UAEPAXI@Z
_TEXT	SEGMENT
_this$ = -4						; size = 4
___flags$ = 8						; size = 4
??_G?$CTempldateHelper@UIDataBase@@@@UAEPAXI@Z PROC	; CTempldateHelper<IDataBase>::`scalar deleting destructor', COMDAT
; _this$ = ecx
  00000	55		 push	 ebp
  00001	8b ec		 mov	 ebp, esp
  00003	83 ec 44	 sub	 esp, 68			; 00000044H
  00006	53		 push	 ebx
  00007	56		 push	 esi
  00008	57		 push	 edi
  00009	89 4d fc	 mov	 DWORD PTR _this$[ebp], ecx
  0000c	8b 4d fc	 mov	 ecx, DWORD PTR _this$[ebp]
  0000f	e8 00 00 00 00	 call	 ??1?$CTempldateHelper@UIDataBase@@@@UAE@XZ ; CTempldateHelper<IDataBase>::~CTempldateHelper<IDataBase>
  00014	8b 45 08	 mov	 eax, DWORD PTR ___flags$[ebp]
  00017	83 e0 01	 and	 eax, 1
  0001a	74 11		 je	 SHORT $LN2@scalar
  0001c	68 d8 01 00 00	 push	 472			; 000001d8H
  00021	8b 45 fc	 mov	 eax, DWORD PTR _this$[ebp]
  00024	50		 push	 eax
  00025	e8 00 00 00 00	 call	 ??3@YAXPAXI@Z		; operator delete
  0002a	83 c4 08	 add	 esp, 8
$LN2@scalar:
  0002d	8b 45 fc	 mov	 eax, DWORD PTR _this$[ebp]
  00030	5f		 pop	 edi
  00031	5e		 pop	 esi
  00032	5b		 pop	 ebx
  00033	8b e5		 mov	 esp, ebp
  00035	5d		 pop	 ebp
  00036	c2 04 00	 ret	 4
??_G?$CTempldateHelper@UIDataBase@@@@UAEPAXI@Z ENDP	; CTempldateHelper<IDataBase>::`scalar deleting destructor'
_TEXT	ENDS
; Function compile flags: /Odtp /ZI
; File g:\网狐\happygamewh\服务端\系统模块\全局定义\module.h
;	COMDAT ?GetInterface@?$CTempldateHelper@UIDataBase@@@@QBEPAUIDataBase@@XZ
_TEXT	SEGMENT
_this$ = -4						; size = 4
?GetInterface@?$CTempldateHelper@UIDataBase@@@@QBEPAUIDataBase@@XZ PROC ; CTempldateHelper<IDataBase>::GetInterface, COMDAT
; _this$ = ecx

; 316  : { 

  00000	55		 push	 ebp
  00001	8b ec		 mov	 ebp, esp
  00003	83 ec 44	 sub	 esp, 68			; 00000044H
  00006	53		 push	 ebx
  00007	56		 push	 esi
  00008	57		 push	 edi
  00009	89 4d fc	 mov	 DWORD PTR _this$[ebp], ecx

; 317  : 	return m_pIModeluInterface; 

  0000c	8b 45 fc	 mov	 eax, DWORD PTR _this$[ebp]
  0000f	8b 80 54 01 00
	00		 mov	 eax, DWORD PTR [eax+340]

; 318  : }

  00015	5f		 pop	 edi
  00016	5e		 pop	 esi
  00017	5b		 pop	 ebx
  00018	8b e5		 mov	 esp, ebp
  0001a	5d		 pop	 ebp
  0001b	c3		 ret	 0
?GetInterface@?$CTempldateHelper@UIDataBase@@@@QBEPAUIDataBase@@XZ ENDP ; CTempldateHelper<IDataBase>::GetInterface
_TEXT	ENDS
; Function compile flags: /Odtp /ZI
; File g:\网狐\happygamewh\服务端\系统模块\全局定义\module.h
;	COMDAT ??C?$CTempldateHelper@UIDataBase@@@@QBEPAUIDataBase@@XZ
_TEXT	SEGMENT
_this$ = -4						; size = 4
??C?$CTempldateHelper@UIDataBase@@@@QBEPAUIDataBase@@XZ PROC ; CTempldateHelper<IDataBase>::operator->, COMDAT
; _this$ = ecx

; 309  : { 

  00000	55		 push	 ebp
  00001	8b ec		 mov	 ebp, esp
  00003	83 ec 44	 sub	 esp, 68			; 00000044H
  00006	53		 push	 ebx
  00007	56		 push	 esi
  00008	57		 push	 edi
  00009	89 4d fc	 mov	 DWORD PTR _this$[ebp], ecx

; 310  : 	return GetInterface(); 

  0000c	8b 4d fc	 mov	 ecx, DWORD PTR _this$[ebp]
  0000f	e8 00 00 00 00	 call	 ?GetInterface@?$CTempldateHelper@UIDataBase@@@@QBEPAUIDataBase@@XZ ; CTempldateHelper<IDataBase>::GetInterface

; 311  : }

  00014	5f		 pop	 edi
  00015	5e		 pop	 esi
  00016	5b		 pop	 ebx
  00017	8b e5		 mov	 esp, ebp
  00019	5d		 pop	 ebp
  0001a	c3		 ret	 0
??C?$CTempldateHelper@UIDataBase@@@@QBEPAUIDataBase@@XZ ENDP ; CTempldateHelper<IDataBase>::operator->
_TEXT	ENDS
; Function compile flags: /Odtp /ZI
; File g:\网狐\happygamewh\服务端\系统模块\全局定义\module.h
;	COMDAT ?CreateInstance@?$CTempldateHelper@UIDataBase@@@@QAE_NXZ
_TEXT	SEGMENT
tv173 = -100						; size = 4
tv172 = -100						; size = 4
tv171 = -100						; size = 4
tv170 = -100						; size = 4
$T2 = -94						; size = 1
$T3 = -93						; size = 1
_pszError$4 = -28					; size = 4
_CreateProc$5 = -24					; size = 4
_this$ = -20						; size = 4
__$EHRec$ = -16						; size = 16
?CreateInstance@?$CTempldateHelper@UIDataBase@@@@QAE_NXZ PROC ; CTempldateHelper<IDataBase>::CreateInstance, COMDAT
; _this$ = ecx

; 212  : {

  00000	55		 push	 ebp
  00001	8b ec		 mov	 ebp, esp
  00003	6a ff		 push	 -1
  00005	68 00 00 00 00	 push	 __ehhandler$?CreateInstance@?$CTempldateHelper@UIDataBase@@@@QAE_NXZ
  0000a	64 a1 00 00 00
	00		 mov	 eax, DWORD PTR fs:0
  00010	50		 push	 eax
  00011	51		 push	 ecx
  00012	83 ec 54	 sub	 esp, 84			; 00000054H
  00015	53		 push	 ebx
  00016	56		 push	 esi
  00017	57		 push	 edi
  00018	a1 00 00 00 00	 mov	 eax, DWORD PTR ___security_cookie
  0001d	33 c5		 xor	 eax, ebp
  0001f	50		 push	 eax
  00020	8d 45 f4	 lea	 eax, DWORD PTR __$EHRec$[ebp+4]
  00023	64 a3 00 00 00
	00		 mov	 DWORD PTR fs:0, eax
  00029	89 65 f0	 mov	 DWORD PTR __$EHRec$[ebp], esp
  0002c	89 4d ec	 mov	 DWORD PTR _this$[ebp], ecx

; 213  : 	//释放组件
; 214  : 	CloseInstance();

  0002f	8b 4d ec	 mov	 ecx, DWORD PTR _this$[ebp]
  00032	e8 00 00 00 00	 call	 ?CloseInstance@?$CTempldateHelper@UIDataBase@@@@QAE_NXZ ; CTempldateHelper<IDataBase>::CloseInstance

; 215  : 
; 216  : 	//创建组件
; 217  : 	try

  00037	c7 45 fc 00 00
	00 00		 mov	 DWORD PTR __$EHRec$[ebp+12], 0

; 218  : 	{
; 219  : 		//效验参数
; 220  : 		ASSERT(m_szCreateProc[0]!=0);

  0003e	b8 01 00 00 00	 mov	 eax, 1
  00043	6b c8 00	 imul	 ecx, eax, 0
  00046	8b 55 ec	 mov	 edx, DWORD PTR _this$[ebp]
  00049	0f be 44 0a 0c	 movsx	 eax, BYTE PTR [edx+ecx+12]
  0004e	85 c0		 test	 eax, eax
  00050	75 19		 jne	 SHORT $LN7@CreateInst
  00052	68 dc 00 00 00	 push	 220			; 000000dcH
  00057	68 00 00 00 00	 push	 OFFSET ??_C@_0DG@CDIFDKED@g?3?2?M?x?$LK?$PM?2happygamewh?2?$LH?$PO?N?q?$LG?K?2?O?$LF?M?$LD@
  0005c	e8 00 00 00 00	 call	 ?AfxAssertFailedLine@@YGHPBDH@Z ; AfxAssertFailedLine
  00061	89 45 9c	 mov	 DWORD PTR tv170[ebp], eax
  00064	83 7d 9c 00	 cmp	 DWORD PTR tv170[ebp], 0
  00068	74 01		 je	 SHORT $LN7@CreateInst
  0006a	cc		 int	 3
$LN7@CreateInst:

; 221  : 		ASSERT(m_szModuleDllName[0]!=0);

  0006b	b8 01 00 00 00	 mov	 eax, 1
  00070	6b c8 00	 imul	 ecx, eax, 0
  00073	8b 55 ec	 mov	 edx, DWORD PTR _this$[ebp]
  00076	0f be 44 0a 4c	 movsx	 eax, BYTE PTR [edx+ecx+76]
  0007b	85 c0		 test	 eax, eax
  0007d	75 19		 jne	 SHORT $LN8@CreateInst
  0007f	68 dd 00 00 00	 push	 221			; 000000ddH
  00084	68 00 00 00 00	 push	 OFFSET ??_C@_0DG@CDIFDKED@g?3?2?M?x?$LK?$PM?2happygamewh?2?$LH?$PO?N?q?$LG?K?2?O?$LF?M?$LD@
  00089	e8 00 00 00 00	 call	 ?AfxAssertFailedLine@@YGHPBDH@Z ; AfxAssertFailedLine
  0008e	89 45 9c	 mov	 DWORD PTR tv171[ebp], eax
  00091	83 7d 9c 00	 cmp	 DWORD PTR tv171[ebp], 0
  00095	74 01		 je	 SHORT $LN8@CreateInst
  00097	cc		 int	 3
$LN8@CreateInst:

; 222  : 
; 223  : 		//加载模块
; 224  : 		m_hDllInstance=AfxLoadLibrary(m_szModuleDllName);

  00098	8b 45 ec	 mov	 eax, DWORD PTR _this$[ebp]
  0009b	83 c0 4c	 add	 eax, 76			; 0000004cH
  0009e	50		 push	 eax
  0009f	e8 00 00 00 00	 call	 ?AfxLoadLibrary@@YGPAUHINSTANCE__@@PBD@Z ; AfxLoadLibrary
  000a4	89 45 9c	 mov	 DWORD PTR tv172[ebp], eax
  000a7	8b 4d ec	 mov	 ecx, DWORD PTR _this$[ebp]
  000aa	8b 55 9c	 mov	 edx, DWORD PTR tv172[ebp]
  000ad	89 91 50 01 00
	00		 mov	 DWORD PTR [ecx+336], edx

; 225  : 		if (m_hDllInstance==NULL) 

  000b3	8b 45 ec	 mov	 eax, DWORD PTR _this$[ebp]
  000b6	83 b8 50 01 00
	00 00		 cmp	 DWORD PTR [eax+336], 0
  000bd	75 2a		 jne	 SHORT $LN3@CreateInst

; 226  : 		{
; 227  : 			_sntprintf_s(m_szDescribe,CountArray(m_szDescribe),TEXT("“%s”模块加载失败"),m_szModuleDllName);

  000bf	8b 45 ec	 mov	 eax, DWORD PTR _this$[ebp]
  000c2	83 c0 4c	 add	 eax, 76			; 0000004cH
  000c5	50		 push	 eax
  000c6	68 00 00 00 00	 push	 OFFSET ??_C@_0BD@LMOFNGMO@?$KB?$LA?$CFs?$KB?$LB?D?$KD?$LP?i?$LM?S?T?X?J?$KH?$LA?$NM@
  000cb	68 80 00 00 00	 push	 128			; 00000080H
  000d0	8b 4d ec	 mov	 ecx, DWORD PTR _this$[ebp]
  000d3	81 c1 58 01 00
	00		 add	 ecx, 344		; 00000158H
  000d9	51		 push	 ecx
  000da	e8 00 00 00 00	 call	 ??$_snprintf_s@$0IA@@@YAHAAY0IA@DIPBDZZ ; _snprintf_s<128>
  000df	83 c4 10	 add	 esp, 16			; 00000010H

; 228  : 			return false;

  000e2	32 c0		 xor	 al, al
  000e4	e9 34 01 00 00	 jmp	 $LN1@CreateInst
$LN3@CreateInst:

; 229  : 		}
; 230  : 
; 231  : 		//寻找函数
; 232  : 		ModuleCreateProc * CreateProc=(ModuleCreateProc *)GetProcAddress(m_hDllInstance,m_szCreateProc);

  000e9	8b 45 ec	 mov	 eax, DWORD PTR _this$[ebp]
  000ec	83 c0 0c	 add	 eax, 12			; 0000000cH
  000ef	50		 push	 eax
  000f0	8b 4d ec	 mov	 ecx, DWORD PTR _this$[ebp]
  000f3	8b 91 50 01 00
	00		 mov	 edx, DWORD PTR [ecx+336]
  000f9	52		 push	 edx
  000fa	ff 15 00 00 00
	00		 call	 DWORD PTR __imp__GetProcAddress@8
  00100	89 45 e8	 mov	 DWORD PTR _CreateProc$5[ebp], eax

; 233  : 		if (CreateProc==NULL) 

  00103	83 7d e8 00	 cmp	 DWORD PTR _CreateProc$5[ebp], 0
  00107	75 31		 jne	 SHORT $LN4@CreateInst

; 234  : 		{		
; 235  : 			_sntprintf_s(m_szDescribe, CountArray(m_szDescribe), TEXT("找不到组件创建函数“%s”:%d"), m_szCreateProc, GetLastError());

  00109	ff 15 00 00 00
	00		 call	 DWORD PTR __imp__GetLastError@0
  0010f	50		 push	 eax
  00110	8b 45 ec	 mov	 eax, DWORD PTR _this$[ebp]
  00113	83 c0 0c	 add	 eax, 12			; 0000000cH
  00116	50		 push	 eax
  00117	68 00 00 00 00	 push	 OFFSET ??_C@_0BM@PEGNCJOH@?U?R?$LC?$LL?$LF?$LN?W?i?$LM?$PO?$LE?$LE?$LN?$KI?$LK?$KP?J?$PN?$KB?$LA?$CFs?$KB?$LB?3?$CFd@
  0011c	68 80 00 00 00	 push	 128			; 00000080H
  00121	8b 4d ec	 mov	 ecx, DWORD PTR _this$[ebp]
  00124	81 c1 58 01 00
	00		 add	 ecx, 344		; 00000158H
  0012a	51		 push	 ecx
  0012b	e8 00 00 00 00	 call	 ??$_snprintf_s@$0IA@@@YAHAAY0IA@DIPBDZZ ; _snprintf_s<128>
  00130	83 c4 14	 add	 esp, 20			; 00000014H

; 236  : 			return false;

  00133	32 c0		 xor	 al, al
  00135	e9 e3 00 00 00	 jmp	 $LN1@CreateInst
$LN4@CreateInst:

; 237  : 		}
; 238  : 
; 239  : 		//创建组件
; 240  : 		m_pIModeluInterface=(IModeluInterface *)CreateProc(m_Guid,m_dwVersion);

  0013a	8b 45 ec	 mov	 eax, DWORD PTR _this$[ebp]
  0013d	8b 48 08	 mov	 ecx, DWORD PTR [eax+8]
  00140	51		 push	 ecx
  00141	8b 55 ec	 mov	 edx, DWORD PTR _this$[ebp]
  00144	8b 42 04	 mov	 eax, DWORD PTR [edx+4]
  00147	50		 push	 eax
  00148	ff 55 e8	 call	 DWORD PTR _CreateProc$5[ebp]
  0014b	83 c4 08	 add	 esp, 8
  0014e	89 45 9c	 mov	 DWORD PTR tv173[ebp], eax
  00151	8b 4d ec	 mov	 ecx, DWORD PTR _this$[ebp]
  00154	8b 55 9c	 mov	 edx, DWORD PTR tv173[ebp]
  00157	89 91 54 01 00
	00		 mov	 DWORD PTR [ecx+340], edx

; 241  : 		if (m_pIModeluInterface==NULL) 

  0015d	8b 45 ec	 mov	 eax, DWORD PTR _this$[ebp]
  00160	83 b8 54 01 00
	00 00		 cmp	 DWORD PTR [eax+340], 0
  00167	75 2a		 jne	 SHORT $LN5@CreateInst

; 242  : 		{
; 243  : 			_sntprintf_s(m_szDescribe,CountArray(m_szDescribe),TEXT("调用函数“%s”生成对象失败"),m_szCreateProc);

  00169	8b 45 ec	 mov	 eax, DWORD PTR _this$[ebp]
  0016c	83 c0 0c	 add	 eax, 12			; 0000000cH
  0016f	50		 push	 eax
  00170	68 00 00 00 00	 push	 OFFSET ??_C@_0BL@PDAODLKM@?$LF?w?S?C?$LK?$KP?J?$PN?$KB?$LA?$CFs?$KB?$LB?I?z?$LD?I?$LG?T?O?s?J?$KH?$LA?$NM@
  00175	68 80 00 00 00	 push	 128			; 00000080H
  0017a	8b 4d ec	 mov	 ecx, DWORD PTR _this$[ebp]
  0017d	81 c1 58 01 00
	00		 add	 ecx, 344		; 00000158H
  00183	51		 push	 ecx
  00184	e8 00 00 00 00	 call	 ??$_snprintf_s@$0IA@@@YAHAAY0IA@DIPBDZZ ; _snprintf_s<128>
  00189	83 c4 10	 add	 esp, 16			; 00000010H

; 244  : 			return false;

  0018c	32 c0		 xor	 al, al
  0018e	e9 8a 00 00 00	 jmp	 $LN1@CreateInst
$LN5@CreateInst:

; 245  : 		}
; 246  : 	}

  00193	eb 63		 jmp	 SHORT $LN9@CreateInst
__catch$?CreateInstance@?$CTempldateHelper@UIDataBase@@@@QAE_NXZ$0:

; 247  : 	catch (LPCTSTR pszError)
; 248  : 	{
; 249  : 		_sntprintf_s(m_szDescribe,CountArray(m_szDescribe),TEXT("由于“%s”，组件创建失败"),pszError);

  00195	8b 45 e4	 mov	 eax, DWORD PTR _pszError$4[ebp]
  00198	50		 push	 eax
  00199	68 00 00 00 00	 push	 OFFSET ??_C@_0BJ@JGPFHIJF@?S?I?S?Z?$KB?$LA?$CFs?$KB?$LB?$KD?$KM?W?i?$LM?$PO?$LE?$LE?$LN?$KI?J?$KH?$LA?$NM@
  0019e	68 80 00 00 00	 push	 128			; 00000080H
  001a3	8b 4d ec	 mov	 ecx, DWORD PTR _this$[ebp]
  001a6	81 c1 58 01 00
	00		 add	 ecx, 344		; 00000158H
  001ac	51		 push	 ecx
  001ad	e8 00 00 00 00	 call	 ??$_snprintf_s@$0IA@@@YAHAAY0IA@DIPBDZZ ; _snprintf_s<128>
  001b2	83 c4 10	 add	 esp, 16			; 00000010H

; 250  : 		return false;

  001b5	c6 45 a3 00	 mov	 BYTE PTR $T3[ebp], 0
  001b9	b8 00 00 00 00	 mov	 eax, $LN13@CreateInst
  001be	c3		 ret	 0

; 251  : 	}

  001bf	b8 00 00 00 00	 mov	 eax, $LN9@CreateInst
  001c4	c3		 ret	 0
__catch$?CreateInstance@?$CTempldateHelper@UIDataBase@@@@QAE_NXZ$1:

; 252  : 	catch (...)	
; 253  : 	{ 
; 254  : 		_sntprintf_s(m_szDescribe,CountArray(m_szDescribe),TEXT("组件创建函数“%s”产生未知异常错误，组件创建失败"),m_szCreateProc);

  001c5	8b 45 ec	 mov	 eax, DWORD PTR _this$[ebp]
  001c8	83 c0 0c	 add	 eax, 12			; 0000000cH
  001cb	50		 push	 eax
  001cc	68 00 00 00 00	 push	 OFFSET ??_C@_0DB@JBNKENAJ@?W?i?$LM?$PO?$LE?$LE?$LN?$KI?$LK?$KP?J?$PN?$KB?$LA?$CFs?$KB?$LB?$LC?z?I?z?N?$LE?V?$KK?R?l?$LD?$KD?$LE@
  001d1	68 80 00 00 00	 push	 128			; 00000080H
  001d6	8b 4d ec	 mov	 ecx, DWORD PTR _this$[ebp]
  001d9	81 c1 58 01 00
	00		 add	 ecx, 344		; 00000158H
  001df	51		 push	 ecx
  001e0	e8 00 00 00 00	 call	 ??$_snprintf_s@$0IA@@@YAHAAY0IA@DIPBDZZ ; _snprintf_s<128>
  001e5	83 c4 10	 add	 esp, 16			; 00000010H

; 255  : 		return false;

  001e8	c6 45 a2 00	 mov	 BYTE PTR $T2[ebp], 0
  001ec	b8 00 00 00 00	 mov	 eax, $LN15@CreateInst
  001f1	c3		 ret	 0

; 256  : 	}

  001f2	b8 00 00 00 00	 mov	 eax, $LN9@CreateInst
  001f7	c3		 ret	 0
$LN9@CreateInst:
  001f8	c7 45 fc ff ff
	ff ff		 mov	 DWORD PTR __$EHRec$[ebp+12], -1
  001ff	eb 0c		 jmp	 SHORT $LN14@CreateInst
$LN15@CreateInst:
  00201	c7 45 fc ff ff
	ff ff		 mov	 DWORD PTR __$EHRec$[ebp+12], -1

; 255  : 		return false;

  00208	8a 45 a2	 mov	 al, BYTE PTR $T2[ebp]
  0020b	eb 10		 jmp	 SHORT $LN1@CreateInst
$LN14@CreateInst:
  0020d	eb 0c		 jmp	 SHORT $LN12@CreateInst
$LN13@CreateInst:
  0020f	c7 45 fc ff ff
	ff ff		 mov	 DWORD PTR __$EHRec$[ebp+12], -1

; 250  : 		return false;

  00216	8a 45 a3	 mov	 al, BYTE PTR $T3[ebp]
  00219	eb 02		 jmp	 SHORT $LN1@CreateInst
$LN12@CreateInst:

; 257  : 
; 258  : 	return true;

  0021b	b0 01		 mov	 al, 1
$LN1@CreateInst:

; 259  : }

  0021d	8b 4d f4	 mov	 ecx, DWORD PTR __$EHRec$[ebp+4]
  00220	64 89 0d 00 00
	00 00		 mov	 DWORD PTR fs:0, ecx
  00227	59		 pop	 ecx
  00228	5f		 pop	 edi
  00229	5e		 pop	 esi
  0022a	5b		 pop	 ebx
  0022b	8b e5		 mov	 esp, ebp
  0022d	5d		 pop	 ebp
  0022e	c3		 ret	 0
_TEXT	ENDS
;	COMDAT text$x
text$x	SEGMENT
__ehhandler$?CreateInstance@?$CTempldateHelper@UIDataBase@@@@QAE_NXZ:
  00000	8b 54 24 08	 mov	 edx, DWORD PTR [esp+8]
  00004	8d 42 0c	 lea	 eax, DWORD PTR [edx+12]
  00007	8b 4a 98	 mov	 ecx, DWORD PTR [edx-104]
  0000a	33 c8		 xor	 ecx, eax
  0000c	e8 00 00 00 00	 call	 @__security_check_cookie@4
  00011	b8 00 00 00 00	 mov	 eax, OFFSET __ehfuncinfo$?CreateInstance@?$CTempldateHelper@UIDataBase@@@@QAE_NXZ
  00016	e9 00 00 00 00	 jmp	 ___CxxFrameHandler3
text$x	ENDS
?CreateInstance@?$CTempldateHelper@UIDataBase@@@@QAE_NXZ ENDP ; CTempldateHelper<IDataBase>::CreateInstance
; Function compile flags: /Odtp /ZI
; File g:\网狐\happygamewh\服务端\系统模块\全局定义\module.h
;	COMDAT ?CloseInstance@?$CTempldateHelper@UIDataBase@@@@QAE_NXZ
_TEXT	SEGMENT
_this$ = -4						; size = 4
?CloseInstance@?$CTempldateHelper@UIDataBase@@@@QAE_NXZ PROC ; CTempldateHelper<IDataBase>::CloseInstance, COMDAT
; _this$ = ecx

; 264  : {

  00000	55		 push	 ebp
  00001	8b ec		 mov	 ebp, esp
  00003	83 ec 44	 sub	 esp, 68			; 00000044H
  00006	53		 push	 ebx
  00007	56		 push	 esi
  00008	57		 push	 edi
  00009	89 4d fc	 mov	 DWORD PTR _this$[ebp], ecx

; 265  : 	//设置变量
; 266  : 	m_szDescribe[0]=0;

  0000c	b8 01 00 00 00	 mov	 eax, 1
  00011	6b c8 00	 imul	 ecx, eax, 0
  00014	8b 55 fc	 mov	 edx, DWORD PTR _this$[ebp]
  00017	c6 84 0a 58 01
	00 00 00	 mov	 BYTE PTR [edx+ecx+344], 0

; 267  : 
; 268  : 	//销毁对象
; 269  : 	if (m_pIModeluInterface!=NULL)

  0001f	8b 45 fc	 mov	 eax, DWORD PTR _this$[ebp]
  00022	83 b8 54 01 00
	00 00		 cmp	 DWORD PTR [eax+340], 0
  00029	74 25		 je	 SHORT $LN2@CloseInsta

; 270  : 	{
; 271  : 		m_pIModeluInterface->Release();

  0002b	8b 45 fc	 mov	 eax, DWORD PTR _this$[ebp]
  0002e	8b 88 54 01 00
	00		 mov	 ecx, DWORD PTR [eax+340]
  00034	8b 55 fc	 mov	 edx, DWORD PTR _this$[ebp]
  00037	8b 01		 mov	 eax, DWORD PTR [ecx]
  00039	8b 8a 54 01 00
	00		 mov	 ecx, DWORD PTR [edx+340]
  0003f	8b 10		 mov	 edx, DWORD PTR [eax]
  00041	ff d2		 call	 edx

; 272  : 		m_pIModeluInterface=NULL;

  00043	8b 45 fc	 mov	 eax, DWORD PTR _this$[ebp]
  00046	c7 80 54 01 00
	00 00 00 00 00	 mov	 DWORD PTR [eax+340], 0
$LN2@CloseInsta:

; 273  : 	}
; 274  : 
; 275  : 	//释放 DLL
; 276  : 	if (m_hDllInstance!=NULL)

  00050	8b 45 fc	 mov	 eax, DWORD PTR _this$[ebp]
  00053	83 b8 50 01 00
	00 00		 cmp	 DWORD PTR [eax+336], 0
  0005a	74 1c		 je	 SHORT $LN3@CloseInsta

; 277  : 	{
; 278  : 		AfxFreeLibrary(m_hDllInstance);

  0005c	8b 45 fc	 mov	 eax, DWORD PTR _this$[ebp]
  0005f	8b 88 50 01 00
	00		 mov	 ecx, DWORD PTR [eax+336]
  00065	51		 push	 ecx
  00066	e8 00 00 00 00	 call	 ?AfxFreeLibrary@@YGHPAUHINSTANCE__@@@Z ; AfxFreeLibrary

; 279  : 		m_hDllInstance=NULL;

  0006b	8b 45 fc	 mov	 eax, DWORD PTR _this$[ebp]
  0006e	c7 80 50 01 00
	00 00 00 00 00	 mov	 DWORD PTR [eax+336], 0
$LN3@CloseInsta:

; 280  : 	}
; 281  : 
; 282  : 	return true;

  00078	b0 01		 mov	 al, 1

; 283  : }

  0007a	5f		 pop	 edi
  0007b	5e		 pop	 esi
  0007c	5b		 pop	 ebx
  0007d	8b e5		 mov	 esp, ebp
  0007f	5d		 pop	 ebp
  00080	c3		 ret	 0
?CloseInstance@?$CTempldateHelper@UIDataBase@@@@QAE_NXZ ENDP ; CTempldateHelper<IDataBase>::CloseInstance
_TEXT	ENDS
; Function compile flags: /Odtp /ZI
; File g:\网狐\happygamewh\服务端\系统模块\全局定义\module.h
;	COMDAT ??1?$CTempldateHelper@UIDataBase@@@@UAE@XZ
_TEXT	SEGMENT
_this$ = -16						; size = 4
__$EHRec$ = -12						; size = 12
??1?$CTempldateHelper@UIDataBase@@@@UAE@XZ PROC		; CTempldateHelper<IDataBase>::~CTempldateHelper<IDataBase>, COMDAT
; _this$ = ecx

; 205  : {

  00000	55		 push	 ebp
  00001	8b ec		 mov	 ebp, esp
  00003	6a ff		 push	 -1
  00005	68 00 00 00 00	 push	 __ehhandler$??1?$CTempldateHelper@UIDataBase@@@@UAE@XZ
  0000a	64 a1 00 00 00
	00		 mov	 eax, DWORD PTR fs:0
  00010	50		 push	 eax
  00011	83 ec 44	 sub	 esp, 68			; 00000044H
  00014	53		 push	 ebx
  00015	56		 push	 esi
  00016	57		 push	 edi
  00017	a1 00 00 00 00	 mov	 eax, DWORD PTR ___security_cookie
  0001c	33 c5		 xor	 eax, ebp
  0001e	50		 push	 eax
  0001f	8d 45 f4	 lea	 eax, DWORD PTR __$EHRec$[ebp]
  00022	64 a3 00 00 00
	00		 mov	 DWORD PTR fs:0, eax
  00028	89 4d f0	 mov	 DWORD PTR _this$[ebp], ecx
  0002b	8b 45 f0	 mov	 eax, DWORD PTR _this$[ebp]
  0002e	c7 00 00 00 00
	00		 mov	 DWORD PTR [eax], OFFSET ??_7?$CTempldateHelper@UIDataBase@@@@6B@

; 206  : 	CloseInstance();

  00034	8b 4d f0	 mov	 ecx, DWORD PTR _this$[ebp]
  00037	e8 00 00 00 00	 call	 ?CloseInstance@?$CTempldateHelper@UIDataBase@@@@QAE_NXZ ; CTempldateHelper<IDataBase>::CloseInstance

; 207  : }

  0003c	8b 4d f4	 mov	 ecx, DWORD PTR __$EHRec$[ebp]
  0003f	64 89 0d 00 00
	00 00		 mov	 DWORD PTR fs:0, ecx
  00046	59		 pop	 ecx
  00047	5f		 pop	 edi
  00048	5e		 pop	 esi
  00049	5b		 pop	 ebx
  0004a	8b e5		 mov	 esp, ebp
  0004c	5d		 pop	 ebp
  0004d	c3		 ret	 0
_TEXT	ENDS
;	COMDAT text$x
text$x	SEGMENT
__ehhandler$??1?$CTempldateHelper@UIDataBase@@@@UAE@XZ:
  00000	8b 54 24 08	 mov	 edx, DWORD PTR [esp+8]
  00004	8d 42 0c	 lea	 eax, DWORD PTR [edx+12]
  00007	8b 4a ac	 mov	 ecx, DWORD PTR [edx-84]
  0000a	33 c8		 xor	 ecx, eax
  0000c	e8 00 00 00 00	 call	 @__security_check_cookie@4
  00011	b8 00 00 00 00	 mov	 eax, OFFSET __ehfuncinfo$??1?$CTempldateHelper@UIDataBase@@@@UAE@XZ
  00016	e9 00 00 00 00	 jmp	 ___CxxFrameHandler3
text$x	ENDS
??1?$CTempldateHelper@UIDataBase@@@@UAE@XZ ENDP		; CTempldateHelper<IDataBase>::~CTempldateHelper<IDataBase>
; Function compile flags: /Odtp /ZI
; File g:\网狐\happygamewh\服务端\系统模块\全局定义\module.h
;	COMDAT ??0?$CTempldateHelper@UIDataBase@@@@QAE@ABU_GUID@@KPBD1@Z
_TEXT	SEGMENT
_this$ = -4						; size = 4
_Guid$ = 8						; size = 4
_dwVersion$ = 12					; size = 4
_pszModuleDll$ = 16					; size = 4
_pszCreateProc$ = 20					; size = 4
??0?$CTempldateHelper@UIDataBase@@@@QAE@ABU_GUID@@KPBD1@Z PROC ; CTempldateHelper<IDataBase>::CTempldateHelper<IDataBase>, COMDAT
; _this$ = ecx

; 187  : {

  00000	55		 push	 ebp
  00001	8b ec		 mov	 ebp, esp
  00003	83 ec 44	 sub	 esp, 68			; 00000044H
  00006	53		 push	 ebx
  00007	56		 push	 esi
  00008	57		 push	 edi
  00009	89 4d fc	 mov	 DWORD PTR _this$[ebp], ecx
  0000c	8b 45 fc	 mov	 eax, DWORD PTR _this$[ebp]
  0000f	c7 00 00 00 00
	00		 mov	 DWORD PTR [eax], OFFSET ??_7?$CTempldateHelper@UIDataBase@@@@6B@

; 186  : CTempldateHelper<IModeluInterface>::CTempldateHelper(REFGUID Guid, DWORD dwVersion, LPCTSTR pszModuleDll, LPCSTR pszCreateProc) : m_dwVersion(dwVersion), m_Guid(Guid)

  00015	8b 45 fc	 mov	 eax, DWORD PTR _this$[ebp]
  00018	8b 4d 08	 mov	 ecx, DWORD PTR _Guid$[ebp]
  0001b	89 48 04	 mov	 DWORD PTR [eax+4], ecx
  0001e	8b 45 fc	 mov	 eax, DWORD PTR _this$[ebp]
  00021	8b 4d 0c	 mov	 ecx, DWORD PTR _dwVersion$[ebp]
  00024	89 48 08	 mov	 DWORD PTR [eax+8], ecx

; 188  : 	//辅助变量
; 189  : 	m_szDescribe[0]=0;

  00027	b8 01 00 00 00	 mov	 eax, 1
  0002c	6b c8 00	 imul	 ecx, eax, 0
  0002f	8b 55 fc	 mov	 edx, DWORD PTR _this$[ebp]
  00032	c6 84 0a 58 01
	00 00 00	 mov	 BYTE PTR [edx+ecx+344], 0

; 190  : 
; 191  : 	//内核信息
; 192  : 	m_hDllInstance=NULL;

  0003a	8b 45 fc	 mov	 eax, DWORD PTR _this$[ebp]
  0003d	c7 80 50 01 00
	00 00 00 00 00	 mov	 DWORD PTR [eax+336], 0

; 193  : 	m_pIModeluInterface=NULL;

  00047	8b 45 fc	 mov	 eax, DWORD PTR _this$[ebp]
  0004a	c7 80 54 01 00
	00 00 00 00 00	 mov	 DWORD PTR [eax+340], 0

; 194  : 
; 195  : 	//组件属性
; 196  : 	lstrcpynA(m_szCreateProc,pszCreateProc,CountArray(m_szCreateProc));

  00054	6a 40		 push	 64			; 00000040H
  00056	8b 45 14	 mov	 eax, DWORD PTR _pszCreateProc$[ebp]
  00059	50		 push	 eax
  0005a	8b 4d fc	 mov	 ecx, DWORD PTR _this$[ebp]
  0005d	83 c1 0c	 add	 ecx, 12			; 0000000cH
  00060	51		 push	 ecx
  00061	ff 15 00 00 00
	00		 call	 DWORD PTR __imp__lstrcpynA@12

; 197  : 	lstrcpyn(m_szModuleDllName,pszModuleDll,CountArray(m_szModuleDllName));

  00067	68 04 01 00 00	 push	 260			; 00000104H
  0006c	8b 45 10	 mov	 eax, DWORD PTR _pszModuleDll$[ebp]
  0006f	50		 push	 eax
  00070	8b 4d fc	 mov	 ecx, DWORD PTR _this$[ebp]
  00073	83 c1 4c	 add	 ecx, 76			; 0000004cH
  00076	51		 push	 ecx
  00077	ff 15 00 00 00
	00		 call	 DWORD PTR __imp__lstrcpynA@12

; 198  : 
; 199  : 	return;
; 200  : }

  0007d	8b 45 fc	 mov	 eax, DWORD PTR _this$[ebp]
  00080	5f		 pop	 edi
  00081	5e		 pop	 esi
  00082	5b		 pop	 ebx
  00083	8b e5		 mov	 esp, ebp
  00085	5d		 pop	 ebp
  00086	c2 10 00	 ret	 16			; 00000010H
??0?$CTempldateHelper@UIDataBase@@@@QAE@ABU_GUID@@KPBD1@Z ENDP ; CTempldateHelper<IDataBase>::CTempldateHelper<IDataBase>
_TEXT	ENDS
; Function compile flags: /Odtp /ZI
;	COMDAT ??0IDataBaseEngineSink@@QAE@XZ
_TEXT	SEGMENT
_this$ = -4						; size = 4
??0IDataBaseEngineSink@@QAE@XZ PROC			; IDataBaseEngineSink::IDataBaseEngineSink, COMDAT
; _this$ = ecx
  00000	55		 push	 ebp
  00001	8b ec		 mov	 ebp, esp
  00003	83 ec 44	 sub	 esp, 68			; 00000044H
  00006	53		 push	 ebx
  00007	56		 push	 esi
  00008	57		 push	 edi
  00009	89 4d fc	 mov	 DWORD PTR _this$[ebp], ecx
  0000c	8b 4d fc	 mov	 ecx, DWORD PTR _this$[ebp]
  0000f	e8 00 00 00 00	 call	 ??0IUnknownEx@@QAE@XZ
  00014	8b 45 fc	 mov	 eax, DWORD PTR _this$[ebp]
  00017	c7 00 00 00 00
	00		 mov	 DWORD PTR [eax], OFFSET ??_7IDataBaseEngineSink@@6B@
  0001d	8b 45 fc	 mov	 eax, DWORD PTR _this$[ebp]
  00020	5f		 pop	 edi
  00021	5e		 pop	 esi
  00022	5b		 pop	 ebx
  00023	8b e5		 mov	 esp, ebp
  00025	5d		 pop	 ebp
  00026	c3		 ret	 0
??0IDataBaseEngineSink@@QAE@XZ ENDP			; IDataBaseEngineSink::IDataBaseEngineSink
_TEXT	ENDS
; Function compile flags: /Odtp /ZI
; File c:\program files (x86)\microsoft visual studio\2017\community\vc\tools\msvc\14.16.27023\include\comutil.h
;	COMDAT ??1_variant_t@@QAE@XZ
_TEXT	SEGMENT
_this$ = -4						; size = 4
??1_variant_t@@QAE@XZ PROC				; _variant_t::~_variant_t, COMDAT
; _this$ = ecx

; 2333 : {

  00000	55		 push	 ebp
  00001	8b ec		 mov	 ebp, esp
  00003	83 ec 44	 sub	 esp, 68			; 00000044H
  00006	53		 push	 ebx
  00007	56		 push	 esi
  00008	57		 push	 edi
  00009	89 4d fc	 mov	 DWORD PTR _this$[ebp], ecx

; 2334 :     ::VariantClear(this);

  0000c	8b 45 fc	 mov	 eax, DWORD PTR _this$[ebp]
  0000f	50		 push	 eax
  00010	ff 15 00 00 00
	00		 call	 DWORD PTR __imp__VariantClear@4

; 2335 : }

  00016	5f		 pop	 edi
  00017	5e		 pop	 esi
  00018	5b		 pop	 ebx
  00019	8b e5		 mov	 esp, ebp
  0001b	5d		 pop	 ebp
  0001c	c3		 ret	 0
??1_variant_t@@QAE@XZ ENDP				; _variant_t::~_variant_t
_TEXT	ENDS
; Function compile flags: /Odtp /ZI
; File c:\program files (x86)\microsoft visual studio\2017\community\vc\tools\msvc\14.16.27023\include\comutil.h
;	COMDAT ??0_variant_t@@QAE@XZ
_TEXT	SEGMENT
_this$ = -4						; size = 4
??0_variant_t@@QAE@XZ PROC				; _variant_t::_variant_t, COMDAT
; _this$ = ecx

; 1129 : {

  00000	55		 push	 ebp
  00001	8b ec		 mov	 ebp, esp
  00003	83 ec 44	 sub	 esp, 68			; 00000044H
  00006	53		 push	 ebx
  00007	56		 push	 esi
  00008	57		 push	 edi
  00009	89 4d fc	 mov	 DWORD PTR _this$[ebp], ecx

; 1130 :     ::VariantInit(this);

  0000c	8b 45 fc	 mov	 eax, DWORD PTR _this$[ebp]
  0000f	50		 push	 eax
  00010	ff 15 00 00 00
	00		 call	 DWORD PTR __imp__VariantInit@4

; 1131 : }

  00016	8b 45 fc	 mov	 eax, DWORD PTR _this$[ebp]
  00019	5f		 pop	 edi
  0001a	5e		 pop	 esi
  0001b	5b		 pop	 ebx
  0001c	8b e5		 mov	 esp, ebp
  0001e	5d		 pop	 ebp
  0001f	c3		 ret	 0
??0_variant_t@@QAE@XZ ENDP				; _variant_t::_variant_t
_TEXT	ENDS
; Function compile flags: /Odtp /ZI
; File g:\网狐\happygamewh\服务端\系统模块\全局定义\module.h
;	COMDAT ?InterfaceVersionCompare@@YA_NKK@Z
_TEXT	SEGMENT
_dwQueryVer$ = 8					; size = 4
_dwInterfaceVer$ = 12					; size = 4
?InterfaceVersionCompare@@YA_NKK@Z PROC			; InterfaceVersionCompare, COMDAT

; 68   : {

  00000	55		 push	 ebp
  00001	8b ec		 mov	 ebp, esp
  00003	83 ec 40	 sub	 esp, 64			; 00000040H
  00006	53		 push	 ebx
  00007	56		 push	 esi
  00008	57		 push	 edi

; 69   : 	if (GetSubVer(dwQueryVer)>GetSubVer(dwInterfaceVer)) return false;

  00009	8b 45 08	 mov	 eax, DWORD PTR _dwQueryVer$[ebp]
  0000c	50		 push	 eax
  0000d	e8 00 00 00 00	 call	 ?GetSubVer@@YAEK@Z	; GetSubVer
  00012	83 c4 04	 add	 esp, 4
  00015	0f b6 f0	 movzx	 esi, al
  00018	8b 4d 0c	 mov	 ecx, DWORD PTR _dwInterfaceVer$[ebp]
  0001b	51		 push	 ecx
  0001c	e8 00 00 00 00	 call	 ?GetSubVer@@YAEK@Z	; GetSubVer
  00021	83 c4 04	 add	 esp, 4
  00024	0f b6 d0	 movzx	 edx, al
  00027	3b f2		 cmp	 esi, edx
  00029	7e 04		 jle	 SHORT $LN2@InterfaceV
  0002b	32 c0		 xor	 al, al
  0002d	eb 74		 jmp	 SHORT $LN1@InterfaceV
$LN2@InterfaceV:

; 70   : 	if (GetMainVer(dwQueryVer)!=GetMainVer(dwInterfaceVer)) return false;

  0002f	8b 45 08	 mov	 eax, DWORD PTR _dwQueryVer$[ebp]
  00032	50		 push	 eax
  00033	e8 00 00 00 00	 call	 ?GetMainVer@@YAEK@Z	; GetMainVer
  00038	83 c4 04	 add	 esp, 4
  0003b	0f b6 f0	 movzx	 esi, al
  0003e	8b 4d 0c	 mov	 ecx, DWORD PTR _dwInterfaceVer$[ebp]
  00041	51		 push	 ecx
  00042	e8 00 00 00 00	 call	 ?GetMainVer@@YAEK@Z	; GetMainVer
  00047	83 c4 04	 add	 esp, 4
  0004a	0f b6 d0	 movzx	 edx, al
  0004d	3b f2		 cmp	 esi, edx
  0004f	74 04		 je	 SHORT $LN3@InterfaceV
  00051	32 c0		 xor	 al, al
  00053	eb 4e		 jmp	 SHORT $LN1@InterfaceV
$LN3@InterfaceV:

; 71   : 	if (GetBuildVer(dwQueryVer)!=GetBuildVer(dwInterfaceVer)) return false;

  00055	8b 45 08	 mov	 eax, DWORD PTR _dwQueryVer$[ebp]
  00058	50		 push	 eax
  00059	e8 00 00 00 00	 call	 ?GetBuildVer@@YAEK@Z	; GetBuildVer
  0005e	83 c4 04	 add	 esp, 4
  00061	0f b6 f0	 movzx	 esi, al
  00064	8b 4d 0c	 mov	 ecx, DWORD PTR _dwInterfaceVer$[ebp]
  00067	51		 push	 ecx
  00068	e8 00 00 00 00	 call	 ?GetBuildVer@@YAEK@Z	; GetBuildVer
  0006d	83 c4 04	 add	 esp, 4
  00070	0f b6 d0	 movzx	 edx, al
  00073	3b f2		 cmp	 esi, edx
  00075	74 04		 je	 SHORT $LN4@InterfaceV
  00077	32 c0		 xor	 al, al
  00079	eb 28		 jmp	 SHORT $LN1@InterfaceV
$LN4@InterfaceV:

; 72   : 	if (GetProductVer(dwQueryVer)!=GetProductVer(dwInterfaceVer)) return false;

  0007b	8b 45 08	 mov	 eax, DWORD PTR _dwQueryVer$[ebp]
  0007e	50		 push	 eax
  0007f	e8 00 00 00 00	 call	 ?GetProductVer@@YAEK@Z	; GetProductVer
  00084	83 c4 04	 add	 esp, 4
  00087	0f b6 f0	 movzx	 esi, al
  0008a	8b 4d 0c	 mov	 ecx, DWORD PTR _dwInterfaceVer$[ebp]
  0008d	51		 push	 ecx
  0008e	e8 00 00 00 00	 call	 ?GetProductVer@@YAEK@Z	; GetProductVer
  00093	83 c4 04	 add	 esp, 4
  00096	0f b6 d0	 movzx	 edx, al
  00099	3b f2		 cmp	 esi, edx
  0009b	74 04		 je	 SHORT $LN5@InterfaceV
  0009d	32 c0		 xor	 al, al
  0009f	eb 02		 jmp	 SHORT $LN1@InterfaceV
$LN5@InterfaceV:

; 73   : 	return true;

  000a1	b0 01		 mov	 al, 1
$LN1@InterfaceV:

; 74   : };

  000a3	5f		 pop	 edi
  000a4	5e		 pop	 esi
  000a5	5b		 pop	 ebx
  000a6	8b e5		 mov	 esp, ebp
  000a8	5d		 pop	 ebp
  000a9	c3		 ret	 0
?InterfaceVersionCompare@@YA_NKK@Z ENDP			; InterfaceVersionCompare
_TEXT	ENDS
; Function compile flags: /Odtp /ZI
; File g:\网狐\happygamewh\服务端\系统模块\全局定义\module.h
;	COMDAT ?GetBuildVer@@YAEK@Z
_TEXT	SEGMENT
_dwVersion$ = 8						; size = 4
?GetBuildVer@@YAEK@Z PROC				; GetBuildVer, COMDAT

; 62   : {

  00000	55		 push	 ebp
  00001	8b ec		 mov	 ebp, esp
  00003	83 ec 40	 sub	 esp, 64			; 00000040H
  00006	53		 push	 ebx
  00007	56		 push	 esi
  00008	57		 push	 edi

; 63   : 	return ((BYTE *)&dwVersion)[0];

  00009	b8 01 00 00 00	 mov	 eax, 1
  0000e	6b c8 00	 imul	 ecx, eax, 0
  00011	8a 44 0d 08	 mov	 al, BYTE PTR _dwVersion$[ebp+ecx]

; 64   : }

  00015	5f		 pop	 edi
  00016	5e		 pop	 esi
  00017	5b		 pop	 ebx
  00018	8b e5		 mov	 esp, ebp
  0001a	5d		 pop	 ebp
  0001b	c3		 ret	 0
?GetBuildVer@@YAEK@Z ENDP				; GetBuildVer
_TEXT	ENDS
; Function compile flags: /Odtp /ZI
; File g:\网狐\happygamewh\服务端\系统模块\全局定义\module.h
;	COMDAT ?GetSubVer@@YAEK@Z
_TEXT	SEGMENT
_dwVersion$ = 8						; size = 4
?GetSubVer@@YAEK@Z PROC					; GetSubVer, COMDAT

; 56   : {

  00000	55		 push	 ebp
  00001	8b ec		 mov	 ebp, esp
  00003	83 ec 40	 sub	 esp, 64			; 00000040H
  00006	53		 push	 ebx
  00007	56		 push	 esi
  00008	57		 push	 edi

; 57   : 	return ((BYTE *)&dwVersion)[1];

  00009	b8 01 00 00 00	 mov	 eax, 1
  0000e	c1 e0 00	 shl	 eax, 0
  00011	8a 44 05 08	 mov	 al, BYTE PTR _dwVersion$[ebp+eax]

; 58   : }

  00015	5f		 pop	 edi
  00016	5e		 pop	 esi
  00017	5b		 pop	 ebx
  00018	8b e5		 mov	 esp, ebp
  0001a	5d		 pop	 ebp
  0001b	c3		 ret	 0
?GetSubVer@@YAEK@Z ENDP					; GetSubVer
_TEXT	ENDS
; Function compile flags: /Odtp /ZI
; File g:\网狐\happygamewh\服务端\系统模块\全局定义\module.h
;	COMDAT ?GetMainVer@@YAEK@Z
_TEXT	SEGMENT
_dwVersion$ = 8						; size = 4
?GetMainVer@@YAEK@Z PROC				; GetMainVer, COMDAT

; 50   : {

  00000	55		 push	 ebp
  00001	8b ec		 mov	 ebp, esp
  00003	83 ec 40	 sub	 esp, 64			; 00000040H
  00006	53		 push	 ebx
  00007	56		 push	 esi
  00008	57		 push	 edi

; 51   : 	return ((BYTE *)&dwVersion)[2];

  00009	b8 01 00 00 00	 mov	 eax, 1
  0000e	d1 e0		 shl	 eax, 1
  00010	8a 44 05 08	 mov	 al, BYTE PTR _dwVersion$[ebp+eax]

; 52   : }

  00014	5f		 pop	 edi
  00015	5e		 pop	 esi
  00016	5b		 pop	 ebx
  00017	8b e5		 mov	 esp, ebp
  00019	5d		 pop	 ebp
  0001a	c3		 ret	 0
?GetMainVer@@YAEK@Z ENDP				; GetMainVer
_TEXT	ENDS
; Function compile flags: /Odtp /ZI
; File g:\网狐\happygamewh\服务端\系统模块\全局定义\module.h
;	COMDAT ?GetProductVer@@YAEK@Z
_TEXT	SEGMENT
_dwVersion$ = 8						; size = 4
?GetProductVer@@YAEK@Z PROC				; GetProductVer, COMDAT

; 44   : {

  00000	55		 push	 ebp
  00001	8b ec		 mov	 ebp, esp
  00003	83 ec 40	 sub	 esp, 64			; 00000040H
  00006	53		 push	 ebx
  00007	56		 push	 esi
  00008	57		 push	 edi

; 45   : 	return ((BYTE *)&dwVersion)[3];

  00009	b8 01 00 00 00	 mov	 eax, 1
  0000e	6b c8 03	 imul	 ecx, eax, 3
  00011	8a 44 0d 08	 mov	 al, BYTE PTR _dwVersion$[ebp+ecx]

; 46   : }

  00015	5f		 pop	 edi
  00016	5e		 pop	 esi
  00017	5b		 pop	 ebx
  00018	8b e5		 mov	 esp, ebp
  0001a	5d		 pop	 ebp
  0001b	c3		 ret	 0
?GetProductVer@@YAEK@Z ENDP				; GetProductVer
_TEXT	ENDS
; Function compile flags: /Odtp /ZI
;	COMDAT ??0IUnknownEx@@QAE@XZ
_TEXT	SEGMENT
_this$ = -4						; size = 4
??0IUnknownEx@@QAE@XZ PROC				; IUnknownEx::IUnknownEx, COMDAT
; _this$ = ecx
  00000	55		 push	 ebp
  00001	8b ec		 mov	 ebp, esp
  00003	83 ec 44	 sub	 esp, 68			; 00000044H
  00006	53		 push	 ebx
  00007	56		 push	 esi
  00008	57		 push	 edi
  00009	89 4d fc	 mov	 DWORD PTR _this$[ebp], ecx
  0000c	8b 45 fc	 mov	 eax, DWORD PTR _this$[ebp]
  0000f	c7 00 00 00 00
	00		 mov	 DWORD PTR [eax], OFFSET ??_7IUnknownEx@@6B@
  00015	8b 45 fc	 mov	 eax, DWORD PTR _this$[ebp]
  00018	5f		 pop	 edi
  00019	5e		 pop	 esi
  0001a	5b		 pop	 ebx
  0001b	8b e5		 mov	 esp, ebp
  0001d	5d		 pop	 ebp
  0001e	c3		 ret	 0
??0IUnknownEx@@QAE@XZ ENDP				; IUnknownEx::IUnknownEx
_TEXT	ENDS
; Function compile flags: /Odtp /ZI
; File c:\program files (x86)\microsoft visual studio\2017\community\vc\tools\msvc\14.16.27023\atlmfc\include\atltime.h
;	COMDAT ?GetTime@CTime@ATL@@QBE_JXZ
_TEXT	SEGMENT
_this$ = -4						; size = 4
?GetTime@CTime@ATL@@QBE_JXZ PROC			; ATL::CTime::GetTime, COMDAT
; _this$ = ecx

; 652  : {

  00000	55		 push	 ebp
  00001	8b ec		 mov	 ebp, esp
  00003	83 ec 44	 sub	 esp, 68			; 00000044H
  00006	53		 push	 ebx
  00007	56		 push	 esi
  00008	57		 push	 edi
  00009	89 4d fc	 mov	 DWORD PTR _this$[ebp], ecx

; 653  : 	return( m_time );

  0000c	8b 4d fc	 mov	 ecx, DWORD PTR _this$[ebp]
  0000f	8b 01		 mov	 eax, DWORD PTR [ecx]
  00011	8b 51 04	 mov	 edx, DWORD PTR [ecx+4]

; 654  : }

  00014	5f		 pop	 edi
  00015	5e		 pop	 esi
  00016	5b		 pop	 ebx
  00017	8b e5		 mov	 esp, ebp
  00019	5d		 pop	 ebp
  0001a	c3		 ret	 0
?GetTime@CTime@ATL@@QBE_JXZ ENDP			; ATL::CTime::GetTime
_TEXT	ENDS
; Function compile flags: /Odtp /ZI
; File c:\program files (x86)\microsoft visual studio\2017\community\vc\tools\msvc\14.16.27023\atlmfc\include\atltime.h
;	COMDAT ??0CTime@ATL@@QAE@ABU_SYSTEMTIME@@H@Z
_TEXT	SEGMENT
_timeT$1 = -28						; size = 8
_timeT$2 = -20						; size = 8
_time0$3 = -12						; size = 8
_this$ = -4						; size = 4
_sysTime$ = 8						; size = 4
_nDST$ = 12						; size = 4
??0CTime@ATL@@QAE@ABU_SYSTEMTIME@@H@Z PROC		; ATL::CTime::CTime, COMDAT
; _this$ = ecx

; 485  : {

  00000	55		 push	 ebp
  00001	8b ec		 mov	 ebp, esp
  00003	83 ec 5c	 sub	 esp, 92			; 0000005cH
  00006	53		 push	 ebx
  00007	56		 push	 esi
  00008	57		 push	 edi
  00009	89 4d fc	 mov	 DWORD PTR _this$[ebp], ecx

; 486  : 	if (sysTime.wYear < 1900)

  0000c	8b 45 08	 mov	 eax, DWORD PTR _sysTime$[ebp]
  0000f	0f b7 08	 movzx	 ecx, WORD PTR [eax]
  00012	81 f9 6c 07 00
	00		 cmp	 ecx, 1900		; 0000076cH
  00018	7d 28		 jge	 SHORT $LN2@CTime

; 487  : 	{
; 488  : 		__time64_t time0 = 0L;

  0001a	0f 57 c0	 xorps	 xmm0, xmm0
  0001d	66 0f 13 45 f4	 movlpd	 QWORD PTR _time0$3[ebp], xmm0

; 489  : 		CTime timeT(time0);

  00022	8b 45 f8	 mov	 eax, DWORD PTR _time0$3[ebp+4]
  00025	50		 push	 eax
  00026	8b 4d f4	 mov	 ecx, DWORD PTR _time0$3[ebp]
  00029	51		 push	 ecx
  0002a	8d 4d ec	 lea	 ecx, DWORD PTR _timeT$2[ebp]
  0002d	e8 00 00 00 00	 call	 ??0CTime@ATL@@QAE@_J@Z	; ATL::CTime::CTime

; 490  : 		*this = timeT;

  00032	8b 45 fc	 mov	 eax, DWORD PTR _this$[ebp]
  00035	8b 4d ec	 mov	 ecx, DWORD PTR _timeT$2[ebp]
  00038	89 08		 mov	 DWORD PTR [eax], ecx
  0003a	8b 55 f0	 mov	 edx, DWORD PTR _timeT$2[ebp+4]
  0003d	89 50 04	 mov	 DWORD PTR [eax+4], edx

; 491  : 	}
; 492  : 	else

  00040	eb 49		 jmp	 SHORT $LN1@CTime
$LN2@CTime:

; 493  : 	{
; 494  : 		CTime timeT(

  00042	8b 45 0c	 mov	 eax, DWORD PTR _nDST$[ebp]
  00045	50		 push	 eax
  00046	8b 4d 08	 mov	 ecx, DWORD PTR _sysTime$[ebp]
  00049	0f b7 51 0c	 movzx	 edx, WORD PTR [ecx+12]
  0004d	52		 push	 edx
  0004e	8b 45 08	 mov	 eax, DWORD PTR _sysTime$[ebp]
  00051	0f b7 48 0a	 movzx	 ecx, WORD PTR [eax+10]
  00055	51		 push	 ecx
  00056	8b 55 08	 mov	 edx, DWORD PTR _sysTime$[ebp]
  00059	0f b7 42 08	 movzx	 eax, WORD PTR [edx+8]
  0005d	50		 push	 eax
  0005e	8b 4d 08	 mov	 ecx, DWORD PTR _sysTime$[ebp]
  00061	0f b7 51 06	 movzx	 edx, WORD PTR [ecx+6]
  00065	52		 push	 edx
  00066	8b 45 08	 mov	 eax, DWORD PTR _sysTime$[ebp]
  00069	0f b7 48 02	 movzx	 ecx, WORD PTR [eax+2]
  0006d	51		 push	 ecx
  0006e	8b 55 08	 mov	 edx, DWORD PTR _sysTime$[ebp]
  00071	0f b7 02	 movzx	 eax, WORD PTR [edx]
  00074	50		 push	 eax
  00075	8d 4d e4	 lea	 ecx, DWORD PTR _timeT$1[ebp]
  00078	e8 00 00 00 00	 call	 ??0CTime@ATL@@QAE@HHHHHHH@Z ; ATL::CTime::CTime

; 495  : 			(int)sysTime.wYear, (int)sysTime.wMonth, (int)sysTime.wDay,
; 496  : 			(int)sysTime.wHour, (int)sysTime.wMinute, (int)sysTime.wSecond,
; 497  : 			nDST);
; 498  : 		*this = timeT;

  0007d	8b 45 fc	 mov	 eax, DWORD PTR _this$[ebp]
  00080	8b 4d e4	 mov	 ecx, DWORD PTR _timeT$1[ebp]
  00083	89 08		 mov	 DWORD PTR [eax], ecx
  00085	8b 55 e8	 mov	 edx, DWORD PTR _timeT$1[ebp+4]
  00088	89 50 04	 mov	 DWORD PTR [eax+4], edx
$LN1@CTime:

; 499  : 	}
; 500  : }

  0008b	8b 45 fc	 mov	 eax, DWORD PTR _this$[ebp]
  0008e	5f		 pop	 edi
  0008f	5e		 pop	 esi
  00090	5b		 pop	 ebx
  00091	8b e5		 mov	 esp, ebp
  00093	5d		 pop	 ebp
  00094	c2 08 00	 ret	 8
??0CTime@ATL@@QAE@ABU_SYSTEMTIME@@H@Z ENDP		; ATL::CTime::CTime
_TEXT	ENDS
; Function compile flags: /Odtp /ZI
; File c:\program files (x86)\microsoft visual studio\2017\community\vc\tools\msvc\14.16.27023\atlmfc\include\atltime.h
;	COMDAT ??0CTime@ATL@@QAE@HHHHHHH@Z
_TEXT	SEGMENT
tv287 = -136						; size = 4
tv276 = -136						; size = 4
tv187 = -136						; size = 4
tv169 = -136						; size = 4
tv151 = -136						; size = 4
tv133 = -136						; size = 4
tv83 = -136						; size = 4
tv65 = -136						; size = 4
_atm$ = -68						; size = 36
___atl_condVal$1 = -32					; size = 4
___atl_condVal$2 = -28					; size = 4
___atl_condVal$3 = -24					; size = 4
___atl_condVal$4 = -20					; size = 4
___atl_condVal$5 = -16					; size = 4
___atl_condVal$6 = -12					; size = 4
_this$ = -8						; size = 4
__$ArrayPad$ = -4					; size = 4
_nYear$ = 8						; size = 4
_nMonth$ = 12						; size = 4
_nDay$ = 16						; size = 4
_nHour$ = 20						; size = 4
_nMin$ = 24						; size = 4
_nSec$ = 28						; size = 4
_nDST$ = 32						; size = 4
??0CTime@ATL@@QAE@HHHHHHH@Z PROC			; ATL::CTime::CTime, COMDAT
; _this$ = ecx

; 429  : {

  00000	55		 push	 ebp
  00001	8b ec		 mov	 ebp, esp
  00003	81 ec 88 00 00
	00		 sub	 esp, 136		; 00000088H
  00009	a1 00 00 00 00	 mov	 eax, DWORD PTR ___security_cookie
  0000e	33 c5		 xor	 eax, ebp
  00010	89 45 fc	 mov	 DWORD PTR __$ArrayPad$[ebp], eax
  00013	53		 push	 ebx
  00014	56		 push	 esi
  00015	57		 push	 edi
  00016	89 4d f8	 mov	 DWORD PTR _this$[ebp], ecx
$LN4@CTime:

; 430  : #pragma warning (push)
; 431  : #pragma warning (disable: 4127)  // conditional expression constant
; 432  : 
; 433  : 	ATLENSURE( nYear >= 1970 );

  00019	81 7d 08 b2 07
	00 00		 cmp	 DWORD PTR _nYear$[ebp], 1970 ; 000007b2H
  00020	7c 0c		 jl	 SHORT $LN49@CTime
  00022	c7 85 78 ff ff
	ff 01 00 00 00	 mov	 DWORD PTR tv65[ebp], 1
  0002c	eb 0a		 jmp	 SHORT $LN50@CTime
$LN49@CTime:
  0002e	c7 85 78 ff ff
	ff 00 00 00 00	 mov	 DWORD PTR tv65[ebp], 0
$LN50@CTime:
  00038	8b 85 78 ff ff
	ff		 mov	 eax, DWORD PTR tv65[ebp]
  0003e	89 45 f4	 mov	 DWORD PTR ___atl_condVal$6[ebp], eax
$LN7@CTime:
  00041	83 7d f4 00	 cmp	 DWORD PTR ___atl_condVal$6[ebp], 0
  00045	75 2b		 jne	 SHORT $LN5@CTime
  00047	68 00 00 00 00	 push	 OFFSET ??_C@_1BM@GBBOFEAE@?$AA_?$AA_?$AAa?$AAt?$AAl?$AA_?$AAc?$AAo?$AAn?$AAd?$AAV?$AAa?$AAl@
  0004c	68 00 00 00 00	 push	 OFFSET ??_C@_17CNPHIMPH@?$AA?$CF?$AAl?$AAs@
  00051	6a 00		 push	 0
  00053	a1 00 00 00 00	 mov	 eax, DWORD PTR ?__LINE__Var@?0???0CTime@ATL@@QAE@HHHHHHH@Z@4JA
  00058	83 c0 04	 add	 eax, 4
  0005b	50		 push	 eax
  0005c	68 00 00 00 00	 push	 OFFSET ??_C@_1OC@IALJLBM@?$AAc?$AA?3?$AA?2?$AAp?$AAr?$AAo?$AAg?$AAr?$AAa?$AAm?$AA?5?$AAf?$AAi?$AAl?$AAe@
  00061	6a 02		 push	 2
  00063	ff 15 00 00 00
	00		 call	 DWORD PTR __imp___CrtDbgReportW
  00069	83 c4 18	 add	 esp, 24			; 00000018H
  0006c	83 f8 01	 cmp	 eax, 1
  0006f	75 01		 jne	 SHORT $LN5@CTime
  00071	cc		 int	 3
$LN5@CTime:
  00072	33 c0		 xor	 eax, eax
  00074	75 cb		 jne	 SHORT $LN7@CTime
  00076	83 7d f4 00	 cmp	 DWORD PTR ___atl_condVal$6[ebp], 0
  0007a	75 0a		 jne	 SHORT $LN2@CTime
  0007c	68 05 40 00 80	 push	 -2147467259		; 80004005H
  00081	e8 00 00 00 00	 call	 ?AtlThrowImpl@ATL@@YGXJ@Z ; ATL::AtlThrowImpl
$LN2@CTime:
  00086	33 c0		 xor	 eax, eax
  00088	75 8f		 jne	 SHORT $LN4@CTime
$LN10@CTime:

; 434  : 	ATLENSURE( nMonth >= 1 && nMonth <= 12 );

  0008a	83 7d 0c 01	 cmp	 DWORD PTR _nMonth$[ebp], 1
  0008e	7c 12		 jl	 SHORT $LN52@CTime
  00090	83 7d 0c 0c	 cmp	 DWORD PTR _nMonth$[ebp], 12 ; 0000000cH
  00094	7f 0c		 jg	 SHORT $LN52@CTime
  00096	c7 85 78 ff ff
	ff 01 00 00 00	 mov	 DWORD PTR tv83[ebp], 1
  000a0	eb 0a		 jmp	 SHORT $LN53@CTime
$LN52@CTime:
  000a2	c7 85 78 ff ff
	ff 00 00 00 00	 mov	 DWORD PTR tv83[ebp], 0
$LN53@CTime:
  000ac	8b 85 78 ff ff
	ff		 mov	 eax, DWORD PTR tv83[ebp]
  000b2	89 45 f0	 mov	 DWORD PTR ___atl_condVal$5[ebp], eax
$LN13@CTime:
  000b5	83 7d f0 00	 cmp	 DWORD PTR ___atl_condVal$5[ebp], 0
  000b9	75 2b		 jne	 SHORT $LN11@CTime
  000bb	68 00 00 00 00	 push	 OFFSET ??_C@_1BM@GBBOFEAE@?$AA_?$AA_?$AAa?$AAt?$AAl?$AA_?$AAc?$AAo?$AAn?$AAd?$AAV?$AAa?$AAl@
  000c0	68 00 00 00 00	 push	 OFFSET ??_C@_17CNPHIMPH@?$AA?$CF?$AAl?$AAs@
  000c5	6a 00		 push	 0
  000c7	a1 00 00 00 00	 mov	 eax, DWORD PTR ?__LINE__Var@?0???0CTime@ATL@@QAE@HHHHHHH@Z@4JA
  000cc	83 c0 05	 add	 eax, 5
  000cf	50		 push	 eax
  000d0	68 00 00 00 00	 push	 OFFSET ??_C@_1OC@IALJLBM@?$AAc?$AA?3?$AA?2?$AAp?$AAr?$AAo?$AAg?$AAr?$AAa?$AAm?$AA?5?$AAf?$AAi?$AAl?$AAe@
  000d5	6a 02		 push	 2
  000d7	ff 15 00 00 00
	00		 call	 DWORD PTR __imp___CrtDbgReportW
  000dd	83 c4 18	 add	 esp, 24			; 00000018H
  000e0	83 f8 01	 cmp	 eax, 1
  000e3	75 01		 jne	 SHORT $LN11@CTime
  000e5	cc		 int	 3
$LN11@CTime:
  000e6	33 c0		 xor	 eax, eax
  000e8	75 cb		 jne	 SHORT $LN13@CTime
  000ea	83 7d f0 00	 cmp	 DWORD PTR ___atl_condVal$5[ebp], 0
  000ee	75 0a		 jne	 SHORT $LN8@CTime
  000f0	68 05 40 00 80	 push	 -2147467259		; 80004005H
  000f5	e8 00 00 00 00	 call	 ?AtlThrowImpl@ATL@@YGXJ@Z ; ATL::AtlThrowImpl
$LN8@CTime:
  000fa	33 c0		 xor	 eax, eax
  000fc	75 8c		 jne	 SHORT $LN10@CTime
$LN16@CTime:

; 435  : 	ATLENSURE( nDay >= 1 && nDay <= 31 );

  000fe	83 7d 10 01	 cmp	 DWORD PTR _nDay$[ebp], 1
  00102	7c 12		 jl	 SHORT $LN55@CTime
  00104	83 7d 10 1f	 cmp	 DWORD PTR _nDay$[ebp], 31 ; 0000001fH
  00108	7f 0c		 jg	 SHORT $LN55@CTime
  0010a	c7 85 78 ff ff
	ff 01 00 00 00	 mov	 DWORD PTR tv133[ebp], 1
  00114	eb 0a		 jmp	 SHORT $LN56@CTime
$LN55@CTime:
  00116	c7 85 78 ff ff
	ff 00 00 00 00	 mov	 DWORD PTR tv133[ebp], 0
$LN56@CTime:
  00120	8b 85 78 ff ff
	ff		 mov	 eax, DWORD PTR tv133[ebp]
  00126	89 45 ec	 mov	 DWORD PTR ___atl_condVal$4[ebp], eax
$LN19@CTime:
  00129	83 7d ec 00	 cmp	 DWORD PTR ___atl_condVal$4[ebp], 0
  0012d	75 2b		 jne	 SHORT $LN17@CTime
  0012f	68 00 00 00 00	 push	 OFFSET ??_C@_1BM@GBBOFEAE@?$AA_?$AA_?$AAa?$AAt?$AAl?$AA_?$AAc?$AAo?$AAn?$AAd?$AAV?$AAa?$AAl@
  00134	68 00 00 00 00	 push	 OFFSET ??_C@_17CNPHIMPH@?$AA?$CF?$AAl?$AAs@
  00139	6a 00		 push	 0
  0013b	a1 00 00 00 00	 mov	 eax, DWORD PTR ?__LINE__Var@?0???0CTime@ATL@@QAE@HHHHHHH@Z@4JA
  00140	83 c0 06	 add	 eax, 6
  00143	50		 push	 eax
  00144	68 00 00 00 00	 push	 OFFSET ??_C@_1OC@IALJLBM@?$AAc?$AA?3?$AA?2?$AAp?$AAr?$AAo?$AAg?$AAr?$AAa?$AAm?$AA?5?$AAf?$AAi?$AAl?$AAe@
  00149	6a 02		 push	 2
  0014b	ff 15 00 00 00
	00		 call	 DWORD PTR __imp___CrtDbgReportW
  00151	83 c4 18	 add	 esp, 24			; 00000018H
  00154	83 f8 01	 cmp	 eax, 1
  00157	75 01		 jne	 SHORT $LN17@CTime
  00159	cc		 int	 3
$LN17@CTime:
  0015a	33 c0		 xor	 eax, eax
  0015c	75 cb		 jne	 SHORT $LN19@CTime
  0015e	83 7d ec 00	 cmp	 DWORD PTR ___atl_condVal$4[ebp], 0
  00162	75 0a		 jne	 SHORT $LN14@CTime
  00164	68 05 40 00 80	 push	 -2147467259		; 80004005H
  00169	e8 00 00 00 00	 call	 ?AtlThrowImpl@ATL@@YGXJ@Z ; ATL::AtlThrowImpl
$LN14@CTime:
  0016e	33 c0		 xor	 eax, eax
  00170	75 8c		 jne	 SHORT $LN16@CTime
$LN22@CTime:

; 436  : 	ATLENSURE( nHour >= 0 && nHour <= 23 );

  00172	83 7d 14 00	 cmp	 DWORD PTR _nHour$[ebp], 0
  00176	7c 12		 jl	 SHORT $LN58@CTime
  00178	83 7d 14 17	 cmp	 DWORD PTR _nHour$[ebp], 23 ; 00000017H
  0017c	7f 0c		 jg	 SHORT $LN58@CTime
  0017e	c7 85 78 ff ff
	ff 01 00 00 00	 mov	 DWORD PTR tv151[ebp], 1
  00188	eb 0a		 jmp	 SHORT $LN59@CTime
$LN58@CTime:
  0018a	c7 85 78 ff ff
	ff 00 00 00 00	 mov	 DWORD PTR tv151[ebp], 0
$LN59@CTime:
  00194	8b 85 78 ff ff
	ff		 mov	 eax, DWORD PTR tv151[ebp]
  0019a	89 45 e8	 mov	 DWORD PTR ___atl_condVal$3[ebp], eax
$LN25@CTime:
  0019d	83 7d e8 00	 cmp	 DWORD PTR ___atl_condVal$3[ebp], 0
  001a1	75 2b		 jne	 SHORT $LN23@CTime
  001a3	68 00 00 00 00	 push	 OFFSET ??_C@_1BM@GBBOFEAE@?$AA_?$AA_?$AAa?$AAt?$AAl?$AA_?$AAc?$AAo?$AAn?$AAd?$AAV?$AAa?$AAl@
  001a8	68 00 00 00 00	 push	 OFFSET ??_C@_17CNPHIMPH@?$AA?$CF?$AAl?$AAs@
  001ad	6a 00		 push	 0
  001af	a1 00 00 00 00	 mov	 eax, DWORD PTR ?__LINE__Var@?0???0CTime@ATL@@QAE@HHHHHHH@Z@4JA
  001b4	83 c0 07	 add	 eax, 7
  001b7	50		 push	 eax
  001b8	68 00 00 00 00	 push	 OFFSET ??_C@_1OC@IALJLBM@?$AAc?$AA?3?$AA?2?$AAp?$AAr?$AAo?$AAg?$AAr?$AAa?$AAm?$AA?5?$AAf?$AAi?$AAl?$AAe@
  001bd	6a 02		 push	 2
  001bf	ff 15 00 00 00
	00		 call	 DWORD PTR __imp___CrtDbgReportW
  001c5	83 c4 18	 add	 esp, 24			; 00000018H
  001c8	83 f8 01	 cmp	 eax, 1
  001cb	75 01		 jne	 SHORT $LN23@CTime
  001cd	cc		 int	 3
$LN23@CTime:
  001ce	33 c0		 xor	 eax, eax
  001d0	75 cb		 jne	 SHORT $LN25@CTime
  001d2	83 7d e8 00	 cmp	 DWORD PTR ___atl_condVal$3[ebp], 0
  001d6	75 0a		 jne	 SHORT $LN20@CTime
  001d8	68 05 40 00 80	 push	 -2147467259		; 80004005H
  001dd	e8 00 00 00 00	 call	 ?AtlThrowImpl@ATL@@YGXJ@Z ; ATL::AtlThrowImpl
$LN20@CTime:
  001e2	33 c0		 xor	 eax, eax
  001e4	75 8c		 jne	 SHORT $LN22@CTime
$LN28@CTime:

; 437  : 	ATLENSURE( nMin >= 0 && nMin <= 59 );

  001e6	83 7d 18 00	 cmp	 DWORD PTR _nMin$[ebp], 0
  001ea	7c 12		 jl	 SHORT $LN61@CTime
  001ec	83 7d 18 3b	 cmp	 DWORD PTR _nMin$[ebp], 59 ; 0000003bH
  001f0	7f 0c		 jg	 SHORT $LN61@CTime
  001f2	c7 85 78 ff ff
	ff 01 00 00 00	 mov	 DWORD PTR tv169[ebp], 1
  001fc	eb 0a		 jmp	 SHORT $LN62@CTime
$LN61@CTime:
  001fe	c7 85 78 ff ff
	ff 00 00 00 00	 mov	 DWORD PTR tv169[ebp], 0
$LN62@CTime:
  00208	8b 85 78 ff ff
	ff		 mov	 eax, DWORD PTR tv169[ebp]
  0020e	89 45 e4	 mov	 DWORD PTR ___atl_condVal$2[ebp], eax
$LN31@CTime:
  00211	83 7d e4 00	 cmp	 DWORD PTR ___atl_condVal$2[ebp], 0
  00215	75 2b		 jne	 SHORT $LN29@CTime
  00217	68 00 00 00 00	 push	 OFFSET ??_C@_1BM@GBBOFEAE@?$AA_?$AA_?$AAa?$AAt?$AAl?$AA_?$AAc?$AAo?$AAn?$AAd?$AAV?$AAa?$AAl@
  0021c	68 00 00 00 00	 push	 OFFSET ??_C@_17CNPHIMPH@?$AA?$CF?$AAl?$AAs@
  00221	6a 00		 push	 0
  00223	a1 00 00 00 00	 mov	 eax, DWORD PTR ?__LINE__Var@?0???0CTime@ATL@@QAE@HHHHHHH@Z@4JA
  00228	83 c0 08	 add	 eax, 8
  0022b	50		 push	 eax
  0022c	68 00 00 00 00	 push	 OFFSET ??_C@_1OC@IALJLBM@?$AAc?$AA?3?$AA?2?$AAp?$AAr?$AAo?$AAg?$AAr?$AAa?$AAm?$AA?5?$AAf?$AAi?$AAl?$AAe@
  00231	6a 02		 push	 2
  00233	ff 15 00 00 00
	00		 call	 DWORD PTR __imp___CrtDbgReportW
  00239	83 c4 18	 add	 esp, 24			; 00000018H
  0023c	83 f8 01	 cmp	 eax, 1
  0023f	75 01		 jne	 SHORT $LN29@CTime
  00241	cc		 int	 3
$LN29@CTime:
  00242	33 c0		 xor	 eax, eax
  00244	75 cb		 jne	 SHORT $LN31@CTime
  00246	83 7d e4 00	 cmp	 DWORD PTR ___atl_condVal$2[ebp], 0
  0024a	75 0a		 jne	 SHORT $LN26@CTime
  0024c	68 05 40 00 80	 push	 -2147467259		; 80004005H
  00251	e8 00 00 00 00	 call	 ?AtlThrowImpl@ATL@@YGXJ@Z ; ATL::AtlThrowImpl
$LN26@CTime:
  00256	33 c0		 xor	 eax, eax
  00258	75 8c		 jne	 SHORT $LN28@CTime
$LN34@CTime:

; 438  : 	ATLENSURE( nSec >= 0 && nSec <= 59 );

  0025a	83 7d 1c 00	 cmp	 DWORD PTR _nSec$[ebp], 0
  0025e	7c 12		 jl	 SHORT $LN64@CTime
  00260	83 7d 1c 3b	 cmp	 DWORD PTR _nSec$[ebp], 59 ; 0000003bH
  00264	7f 0c		 jg	 SHORT $LN64@CTime
  00266	c7 85 78 ff ff
	ff 01 00 00 00	 mov	 DWORD PTR tv187[ebp], 1
  00270	eb 0a		 jmp	 SHORT $LN65@CTime
$LN64@CTime:
  00272	c7 85 78 ff ff
	ff 00 00 00 00	 mov	 DWORD PTR tv187[ebp], 0
$LN65@CTime:
  0027c	8b 85 78 ff ff
	ff		 mov	 eax, DWORD PTR tv187[ebp]
  00282	89 45 e0	 mov	 DWORD PTR ___atl_condVal$1[ebp], eax
$LN37@CTime:
  00285	83 7d e0 00	 cmp	 DWORD PTR ___atl_condVal$1[ebp], 0
  00289	75 2b		 jne	 SHORT $LN35@CTime
  0028b	68 00 00 00 00	 push	 OFFSET ??_C@_1BM@GBBOFEAE@?$AA_?$AA_?$AAa?$AAt?$AAl?$AA_?$AAc?$AAo?$AAn?$AAd?$AAV?$AAa?$AAl@
  00290	68 00 00 00 00	 push	 OFFSET ??_C@_17CNPHIMPH@?$AA?$CF?$AAl?$AAs@
  00295	6a 00		 push	 0
  00297	a1 00 00 00 00	 mov	 eax, DWORD PTR ?__LINE__Var@?0???0CTime@ATL@@QAE@HHHHHHH@Z@4JA
  0029c	83 c0 09	 add	 eax, 9
  0029f	50		 push	 eax
  002a0	68 00 00 00 00	 push	 OFFSET ??_C@_1OC@IALJLBM@?$AAc?$AA?3?$AA?2?$AAp?$AAr?$AAo?$AAg?$AAr?$AAa?$AAm?$AA?5?$AAf?$AAi?$AAl?$AAe@
  002a5	6a 02		 push	 2
  002a7	ff 15 00 00 00
	00		 call	 DWORD PTR __imp___CrtDbgReportW
  002ad	83 c4 18	 add	 esp, 24			; 00000018H
  002b0	83 f8 01	 cmp	 eax, 1
  002b3	75 01		 jne	 SHORT $LN35@CTime
  002b5	cc		 int	 3
$LN35@CTime:
  002b6	33 c0		 xor	 eax, eax
  002b8	75 cb		 jne	 SHORT $LN37@CTime
  002ba	83 7d e0 00	 cmp	 DWORD PTR ___atl_condVal$1[ebp], 0
  002be	75 0a		 jne	 SHORT $LN32@CTime
  002c0	68 05 40 00 80	 push	 -2147467259		; 80004005H
  002c5	e8 00 00 00 00	 call	 ?AtlThrowImpl@ATL@@YGXJ@Z ; ATL::AtlThrowImpl
$LN32@CTime:
  002ca	33 c0		 xor	 eax, eax
  002cc	75 8c		 jne	 SHORT $LN34@CTime

; 439  : 
; 440  : #pragma warning (pop)
; 441  : 
; 442  : 	struct tm atm;
; 443  : 
; 444  : 	atm.tm_sec = nSec;

  002ce	8b 45 1c	 mov	 eax, DWORD PTR _nSec$[ebp]
  002d1	89 45 bc	 mov	 DWORD PTR _atm$[ebp], eax

; 445  : 	atm.tm_min = nMin;

  002d4	8b 45 18	 mov	 eax, DWORD PTR _nMin$[ebp]
  002d7	89 45 c0	 mov	 DWORD PTR _atm$[ebp+4], eax

; 446  : 	atm.tm_hour = nHour;

  002da	8b 45 14	 mov	 eax, DWORD PTR _nHour$[ebp]
  002dd	89 45 c4	 mov	 DWORD PTR _atm$[ebp+8], eax

; 447  : 	atm.tm_mday = nDay;

  002e0	8b 45 10	 mov	 eax, DWORD PTR _nDay$[ebp]
  002e3	89 45 c8	 mov	 DWORD PTR _atm$[ebp+12], eax

; 448  : 	atm.tm_mon = nMonth - 1;        // tm_mon is 0 based

  002e6	8b 45 0c	 mov	 eax, DWORD PTR _nMonth$[ebp]
  002e9	83 e8 01	 sub	 eax, 1
  002ec	89 45 cc	 mov	 DWORD PTR _atm$[ebp+16], eax

; 449  : 	atm.tm_year = nYear - 1900;     // tm_year is 1900 based

  002ef	8b 45 08	 mov	 eax, DWORD PTR _nYear$[ebp]
  002f2	2d 6c 07 00 00	 sub	 eax, 1900		; 0000076cH
  002f7	89 45 d0	 mov	 DWORD PTR _atm$[ebp+20], eax

; 450  : 	atm.tm_isdst = nDST;

  002fa	8b 45 20	 mov	 eax, DWORD PTR _nDST$[ebp]
  002fd	89 45 dc	 mov	 DWORD PTR _atm$[ebp+32], eax

; 451  : 
; 452  : 	m_time = _mktime64(&atm);

  00300	8d 45 bc	 lea	 eax, DWORD PTR _atm$[ebp]
  00303	50		 push	 eax
  00304	ff 15 00 00 00
	00		 call	 DWORD PTR __imp___mktime64
  0030a	83 c4 04	 add	 esp, 4
  0030d	8b 4d f8	 mov	 ecx, DWORD PTR _this$[ebp]
  00310	89 01		 mov	 DWORD PTR [ecx], eax
  00312	89 51 04	 mov	 DWORD PTR [ecx+4], edx
$LN40@CTime:

; 453  : 	ATLASSUME(m_time != -1);       // indicates an illegal input time

  00315	8b 45 f8	 mov	 eax, DWORD PTR _this$[ebp]
  00318	89 85 78 ff ff
	ff		 mov	 DWORD PTR tv276[ebp], eax
  0031e	8b 8d 78 ff ff
	ff		 mov	 ecx, DWORD PTR tv276[ebp]
  00324	8b 95 78 ff ff
	ff		 mov	 edx, DWORD PTR tv276[ebp]
  0032a	8b 01		 mov	 eax, DWORD PTR [ecx]
  0032c	23 42 04	 and	 eax, DWORD PTR [edx+4]
  0032f	83 f8 ff	 cmp	 eax, -1
  00332	75 2c		 jne	 SHORT $LN38@CTime
  00334	68 00 00 00 00	 push	 OFFSET ??_C@_1BK@NHHHCKNA@?$AAm?$AA_?$AAt?$AAi?$AAm?$AAe?$AA?5?$AA?$CB?$AA?$DN?$AA?5?$AA?9?$AA1@
  00339	68 00 00 00 00	 push	 OFFSET ??_C@_17CNPHIMPH@?$AA?$CF?$AAl?$AAs@
  0033e	6a 00		 push	 0
  00340	8b 0d 00 00 00
	00		 mov	 ecx, DWORD PTR ?__LINE__Var@?0???0CTime@ATL@@QAE@HHHHHHH@Z@4JA
  00346	83 c1 18	 add	 ecx, 24			; 00000018H
  00349	51		 push	 ecx
  0034a	68 00 00 00 00	 push	 OFFSET ??_C@_1OC@IALJLBM@?$AAc?$AA?3?$AA?2?$AAp?$AAr?$AAo?$AAg?$AAr?$AAa?$AAm?$AA?5?$AAf?$AAi?$AAl?$AAe@
  0034f	6a 02		 push	 2
  00351	ff 15 00 00 00
	00		 call	 DWORD PTR __imp___CrtDbgReportW
  00357	83 c4 18	 add	 esp, 24			; 00000018H
  0035a	83 f8 01	 cmp	 eax, 1
  0035d	75 01		 jne	 SHORT $LN38@CTime
  0035f	cc		 int	 3
$LN38@CTime:
  00360	33 c0		 xor	 eax, eax
  00362	75 b1		 jne	 SHORT $LN40@CTime

; 454  : 	if(m_time == -1)

  00364	8b 45 f8	 mov	 eax, DWORD PTR _this$[ebp]
  00367	89 85 78 ff ff
	ff		 mov	 DWORD PTR tv287[ebp], eax
  0036d	8b 8d 78 ff ff
	ff		 mov	 ecx, DWORD PTR tv287[ebp]
  00373	8b 95 78 ff ff
	ff		 mov	 edx, DWORD PTR tv287[ebp]
  00379	8b 01		 mov	 eax, DWORD PTR [ecx]
  0037b	23 42 04	 and	 eax, DWORD PTR [edx+4]
  0037e	83 f8 ff	 cmp	 eax, -1
  00381	75 0a		 jne	 SHORT $LN1@CTime

; 455  : 	{
; 456  : 		AtlThrow(E_INVALIDARG);

  00383	68 57 00 07 80	 push	 -2147024809		; 80070057H
  00388	e8 00 00 00 00	 call	 ?AtlThrowImpl@ATL@@YGXJ@Z ; ATL::AtlThrowImpl
$LN1@CTime:

; 457  : 	}
; 458  : }

  0038d	8b 45 f8	 mov	 eax, DWORD PTR _this$[ebp]
$LN48@CTime:
  00390	5f		 pop	 edi
  00391	5e		 pop	 esi
  00392	5b		 pop	 ebx
  00393	8b 4d fc	 mov	 ecx, DWORD PTR __$ArrayPad$[ebp]
  00396	33 cd		 xor	 ecx, ebp
  00398	e8 00 00 00 00	 call	 @__security_check_cookie@4
  0039d	8b e5		 mov	 esp, ebp
  0039f	5d		 pop	 ebp
  003a0	c2 1c 00	 ret	 28			; 0000001cH
??0CTime@ATL@@QAE@HHHHHHH@Z ENDP			; ATL::CTime::CTime
_TEXT	ENDS
; Function compile flags: /Odtp /ZI
; File c:\program files (x86)\microsoft visual studio\2017\community\vc\tools\msvc\14.16.27023\atlmfc\include\atltime.h
;	COMDAT ??0CTime@ATL@@QAE@_J@Z
_TEXT	SEGMENT
_this$ = -4						; size = 4
_time$ = 8						; size = 8
??0CTime@ATL@@QAE@_J@Z PROC				; ATL::CTime::CTime, COMDAT
; _this$ = ecx

; 418  : {

  00000	55		 push	 ebp
  00001	8b ec		 mov	 ebp, esp
  00003	83 ec 44	 sub	 esp, 68			; 00000044H
  00006	53		 push	 ebx
  00007	56		 push	 esi
  00008	57		 push	 edi
  00009	89 4d fc	 mov	 DWORD PTR _this$[ebp], ecx

; 417  : 	m_time( time )

  0000c	8b 45 fc	 mov	 eax, DWORD PTR _this$[ebp]
  0000f	8b 4d 08	 mov	 ecx, DWORD PTR _time$[ebp]
  00012	89 08		 mov	 DWORD PTR [eax], ecx
  00014	8b 55 0c	 mov	 edx, DWORD PTR _time$[ebp+4]
  00017	89 50 04	 mov	 DWORD PTR [eax+4], edx

; 419  : }

  0001a	8b 45 fc	 mov	 eax, DWORD PTR _this$[ebp]
  0001d	5f		 pop	 edi
  0001e	5e		 pop	 esi
  0001f	5b		 pop	 ebx
  00020	8b e5		 mov	 esp, ebp
  00022	5d		 pop	 ebp
  00023	c2 08 00	 ret	 8
??0CTime@ATL@@QAE@_J@Z ENDP				; ATL::CTime::CTime
_TEXT	ENDS
; Function compile flags: /Odtp /ZI
; File c:\program files (x86)\microsoft visual studio\2017\community\vc\tools\msvc\14.16.27023\atlmfc\include\atltrace.h
;	COMDAT ??RCTraceFileAndLineInfo@ATL@@QBAXHIPBDZZ
_TEXT	SEGMENT
_ptr$ = -20						; size = 4
_ple$ = -16						; size = 4
__$EHRec$ = -12						; size = 12
_this$ = 8						; size = 4
_dwCategory$ = 12					; size = 4
_nLevel$ = 16						; size = 4
_pszFmt$ = 20						; size = 4
??RCTraceFileAndLineInfo@ATL@@QBAXHIPBDZZ PROC		; ATL::CTraceFileAndLineInfo::operator(), COMDAT

; 421  : 	{

  00000	55		 push	 ebp
  00001	8b ec		 mov	 ebp, esp
  00003	6a ff		 push	 -1
  00005	68 00 00 00 00	 push	 __ehhandler$??RCTraceFileAndLineInfo@ATL@@QBAXHIPBDZZ
  0000a	64 a1 00 00 00
	00		 mov	 eax, DWORD PTR fs:0
  00010	50		 push	 eax
  00011	83 ec 4c	 sub	 esp, 76			; 0000004cH
  00014	53		 push	 ebx
  00015	56		 push	 esi
  00016	57		 push	 edi
  00017	a1 00 00 00 00	 mov	 eax, DWORD PTR ___security_cookie
  0001c	33 c5		 xor	 eax, ebp
  0001e	50		 push	 eax
  0001f	8d 45 f4	 lea	 eax, DWORD PTR __$EHRec$[ebp]
  00022	64 a3 00 00 00
	00		 mov	 DWORD PTR fs:0, eax

; 422  : 		CPreserveLastError ple;

  00028	8d 4d f0	 lea	 ecx, DWORD PTR _ple$[ebp]
  0002b	e8 00 00 00 00	 call	 ??0CPreserveLastError@ATL@@QAE@XZ ; ATL::CPreserveLastError::CPreserveLastError
  00030	c7 45 fc 00 00
	00 00		 mov	 DWORD PTR __$EHRec$[ebp+8], 0

; 423  : 		va_list ptr; va_start(ptr, pszFmt);

  00037	8d 45 18	 lea	 eax, DWORD PTR _pszFmt$[ebp+4]
  0003a	89 45 ec	 mov	 DWORD PTR _ptr$[ebp], eax

; 424  : 		ATL::CTrace::TraceV(m_pszFileName, m_nLineNo, dwCategory, nLevel, pszFmt, ptr);

  0003d	8b 45 ec	 mov	 eax, DWORD PTR _ptr$[ebp]
  00040	50		 push	 eax
  00041	8b 4d 14	 mov	 ecx, DWORD PTR _pszFmt$[ebp]
  00044	51		 push	 ecx
  00045	8b 55 10	 mov	 edx, DWORD PTR _nLevel$[ebp]
  00048	52		 push	 edx
  00049	8b 45 0c	 mov	 eax, DWORD PTR _dwCategory$[ebp]
  0004c	50		 push	 eax
  0004d	8b 4d 08	 mov	 ecx, DWORD PTR _this$[ebp]
  00050	8b 51 04	 mov	 edx, DWORD PTR [ecx+4]
  00053	52		 push	 edx
  00054	8b 45 08	 mov	 eax, DWORD PTR _this$[ebp]
  00057	8b 08		 mov	 ecx, DWORD PTR [eax]
  00059	51		 push	 ecx
  0005a	e8 00 00 00 00	 call	 ?TraceV@CTrace@ATL@@SAXPBDHII0PAD@Z ; ATL::CTrace::TraceV
  0005f	83 c4 18	 add	 esp, 24			; 00000018H

; 425  : 		va_end(ptr);

  00062	c7 45 ec 00 00
	00 00		 mov	 DWORD PTR _ptr$[ebp], 0

; 426  : 	}

  00069	c7 45 fc ff ff
	ff ff		 mov	 DWORD PTR __$EHRec$[ebp+8], -1
  00070	8d 4d f0	 lea	 ecx, DWORD PTR _ple$[ebp]
  00073	e8 00 00 00 00	 call	 ??1CPreserveLastError@ATL@@QAE@XZ ; ATL::CPreserveLastError::~CPreserveLastError
  00078	8b 4d f4	 mov	 ecx, DWORD PTR __$EHRec$[ebp]
  0007b	64 89 0d 00 00
	00 00		 mov	 DWORD PTR fs:0, ecx
  00082	59		 pop	 ecx
  00083	5f		 pop	 edi
  00084	5e		 pop	 esi
  00085	5b		 pop	 ebx
  00086	8b e5		 mov	 esp, ebp
  00088	5d		 pop	 ebp
  00089	c3		 ret	 0
_TEXT	ENDS
;	COMDAT text$x
text$x	SEGMENT
__unwindfunclet$??RCTraceFileAndLineInfo@ATL@@QBAXHIPBDZZ$0:
  00000	8d 4d f0	 lea	 ecx, DWORD PTR _ple$[ebp]
  00003	e9 00 00 00 00	 jmp	 ??1CPreserveLastError@ATL@@QAE@XZ ; ATL::CPreserveLastError::~CPreserveLastError
__ehhandler$??RCTraceFileAndLineInfo@ATL@@QBAXHIPBDZZ:
  00008	8b 54 24 08	 mov	 edx, DWORD PTR [esp+8]
  0000c	8d 42 0c	 lea	 eax, DWORD PTR [edx+12]
  0000f	8b 4a a4	 mov	 ecx, DWORD PTR [edx-92]
  00012	33 c8		 xor	 ecx, eax
  00014	e8 00 00 00 00	 call	 @__security_check_cookie@4
  00019	b8 00 00 00 00	 mov	 eax, OFFSET __ehfuncinfo$??RCTraceFileAndLineInfo@ATL@@QBAXHIPBDZZ
  0001e	e9 00 00 00 00	 jmp	 ___CxxFrameHandler3
text$x	ENDS
??RCTraceFileAndLineInfo@ATL@@QBAXHIPBDZZ ENDP		; ATL::CTraceFileAndLineInfo::operator()
; Function compile flags: /Odtp /ZI
; File c:\program files (x86)\microsoft visual studio\2017\community\vc\tools\msvc\14.16.27023\atlmfc\include\atltrace.h
;	COMDAT ??0CTraceFileAndLineInfo@ATL@@QAE@PBDH@Z
_TEXT	SEGMENT
_this$ = -4						; size = 4
_pszFileName$ = 8					; size = 4
_nLineNo$ = 12						; size = 4
??0CTraceFileAndLineInfo@ATL@@QAE@PBDH@Z PROC		; ATL::CTraceFileAndLineInfo::CTraceFileAndLineInfo, COMDAT
; _this$ = ecx

; 411  : 	{

  00000	55		 push	 ebp
  00001	8b ec		 mov	 ebp, esp
  00003	83 ec 44	 sub	 esp, 68			; 00000044H
  00006	53		 push	 ebx
  00007	56		 push	 esi
  00008	57		 push	 edi
  00009	89 4d fc	 mov	 DWORD PTR _this$[ebp], ecx

; 410  : 		: m_pszFileName(pszFileName), m_nLineNo(nLineNo)

  0000c	8b 45 fc	 mov	 eax, DWORD PTR _this$[ebp]
  0000f	8b 4d 08	 mov	 ecx, DWORD PTR _pszFileName$[ebp]
  00012	89 08		 mov	 DWORD PTR [eax], ecx
  00014	8b 45 fc	 mov	 eax, DWORD PTR _this$[ebp]
  00017	8b 4d 0c	 mov	 ecx, DWORD PTR _nLineNo$[ebp]
  0001a	89 48 04	 mov	 DWORD PTR [eax+4], ecx

; 412  : 	}

  0001d	8b 45 fc	 mov	 eax, DWORD PTR _this$[ebp]
  00020	5f		 pop	 edi
  00021	5e		 pop	 esi
  00022	5b		 pop	 ebx
  00023	8b e5		 mov	 esp, ebp
  00025	5d		 pop	 ebp
  00026	c2 08 00	 ret	 8
??0CTraceFileAndLineInfo@ATL@@QAE@PBDH@Z ENDP		; ATL::CTraceFileAndLineInfo::CTraceFileAndLineInfo
_TEXT	ENDS
; Function compile flags: /Odtp /ZI
; File c:\program files (x86)\microsoft visual studio\2017\community\vc\tools\msvc\14.16.27023\atlmfc\include\atltrace.h
;	COMDAT ??1CPreserveLastError@ATL@@QAE@XZ
_TEXT	SEGMENT
_this$ = -4						; size = 4
??1CPreserveLastError@ATL@@QAE@XZ PROC			; ATL::CPreserveLastError::~CPreserveLastError, COMDAT
; _this$ = ecx

; 396  : 	{

  00000	55		 push	 ebp
  00001	8b ec		 mov	 ebp, esp
  00003	83 ec 44	 sub	 esp, 68			; 00000044H
  00006	53		 push	 ebx
  00007	56		 push	 esi
  00008	57		 push	 edi
  00009	89 4d fc	 mov	 DWORD PTR _this$[ebp], ecx

; 397  : 		SetLastError(m_dwLastError);

  0000c	8b 45 fc	 mov	 eax, DWORD PTR _this$[ebp]
  0000f	8b 08		 mov	 ecx, DWORD PTR [eax]
  00011	51		 push	 ecx
  00012	ff 15 00 00 00
	00		 call	 DWORD PTR __imp__SetLastError@4

; 398  : 	}

  00018	5f		 pop	 edi
  00019	5e		 pop	 esi
  0001a	5b		 pop	 ebx
  0001b	8b e5		 mov	 esp, ebp
  0001d	5d		 pop	 ebp
  0001e	c3		 ret	 0
??1CPreserveLastError@ATL@@QAE@XZ ENDP			; ATL::CPreserveLastError::~CPreserveLastError
_TEXT	ENDS
; Function compile flags: /Odtp /ZI
; File c:\program files (x86)\microsoft visual studio\2017\community\vc\tools\msvc\14.16.27023\atlmfc\include\atltrace.h
;	COMDAT ??0CPreserveLastError@ATL@@QAE@XZ
_TEXT	SEGMENT
_this$ = -4						; size = 4
??0CPreserveLastError@ATL@@QAE@XZ PROC			; ATL::CPreserveLastError::CPreserveLastError, COMDAT
; _this$ = ecx

; 390  : 	CPreserveLastError()

  00000	55		 push	 ebp
  00001	8b ec		 mov	 ebp, esp
  00003	83 ec 44	 sub	 esp, 68			; 00000044H
  00006	53		 push	 ebx
  00007	56		 push	 esi
  00008	57		 push	 edi
  00009	89 4d fc	 mov	 DWORD PTR _this$[ebp], ecx

; 391  : 	{
; 392  : 		m_dwLastError = GetLastError();

  0000c	ff 15 00 00 00
	00		 call	 DWORD PTR __imp__GetLastError@0
  00012	8b 4d fc	 mov	 ecx, DWORD PTR _this$[ebp]
  00015	89 01		 mov	 DWORD PTR [ecx], eax

; 393  : 	}

  00017	8b 45 fc	 mov	 eax, DWORD PTR _this$[ebp]
  0001a	5f		 pop	 edi
  0001b	5e		 pop	 esi
  0001c	5b		 pop	 ebx
  0001d	8b e5		 mov	 esp, ebp
  0001f	5d		 pop	 ebp
  00020	c3		 ret	 0
??0CPreserveLastError@ATL@@QAE@XZ ENDP			; ATL::CPreserveLastError::CPreserveLastError
_TEXT	ENDS
; Function compile flags: /Odtp /ZI
;	COMDAT ??1?$CHeapPtr@DVCCRTAllocator@ATL@@@ATL@@QAE@XZ
_TEXT	SEGMENT
_this$ = -4						; size = 4
??1?$CHeapPtr@DVCCRTAllocator@ATL@@@ATL@@QAE@XZ PROC	; ATL::CHeapPtr<char,ATL::CCRTAllocator>::~CHeapPtr<char,ATL::CCRTAllocator>, COMDAT
; _this$ = ecx
  00000	55		 push	 ebp
  00001	8b ec		 mov	 ebp, esp
  00003	83 ec 44	 sub	 esp, 68			; 00000044H
  00006	53		 push	 ebx
  00007	56		 push	 esi
  00008	57		 push	 edi
  00009	89 4d fc	 mov	 DWORD PTR _this$[ebp], ecx
  0000c	8b 4d fc	 mov	 ecx, DWORD PTR _this$[ebp]
  0000f	e8 00 00 00 00	 call	 ??1?$CHeapPtrBase@DVCCRTAllocator@ATL@@@ATL@@QAE@XZ ; ATL::CHeapPtrBase<char,ATL::CCRTAllocator>::~CHeapPtrBase<char,ATL::CCRTAllocator>
  00014	5f		 pop	 edi
  00015	5e		 pop	 esi
  00016	5b		 pop	 ebx
  00017	8b e5		 mov	 esp, ebp
  00019	5d		 pop	 ebp
  0001a	c3		 ret	 0
??1?$CHeapPtr@DVCCRTAllocator@ATL@@@ATL@@QAE@XZ ENDP	; ATL::CHeapPtr<char,ATL::CCRTAllocator>::~CHeapPtr<char,ATL::CCRTAllocator>
_TEXT	ENDS
; Function compile flags: /Odtp /ZI
; File c:\program files (x86)\microsoft visual studio\2017\community\vc\tools\msvc\14.16.27023\atlmfc\include\atlalloc.h
;	COMDAT ?Allocate@?$CHeapPtr@DVCCRTAllocator@ATL@@@ATL@@QAE_NI@Z
_TEXT	SEGMENT
_nBytes$ = -8						; size = 4
_this$ = -4						; size = 4
_nElements$ = 8						; size = 4
?Allocate@?$CHeapPtr@DVCCRTAllocator@ATL@@@ATL@@QAE_NI@Z PROC ; ATL::CHeapPtr<char,ATL::CCRTAllocator>::Allocate, COMDAT
; _this$ = ecx

; 455  : 	{

  00000	55		 push	 ebp
  00001	8b ec		 mov	 ebp, esp
  00003	83 ec 48	 sub	 esp, 72			; 00000048H
  00006	53		 push	 ebx
  00007	56		 push	 esi
  00008	57		 push	 edi
  00009	89 4d fc	 mov	 DWORD PTR _this$[ebp], ecx

; 456  : 		size_t nBytes=0;

  0000c	c7 45 f8 00 00
	00 00		 mov	 DWORD PTR _nBytes$[ebp], 0

; 457  : 		if(FAILED(::ATL::AtlMultiply(&nBytes, nElements, sizeof(T))))

  00013	6a 01		 push	 1
  00015	8b 45 08	 mov	 eax, DWORD PTR _nElements$[ebp]
  00018	50		 push	 eax
  00019	8d 4d f8	 lea	 ecx, DWORD PTR _nBytes$[ebp]
  0001c	51		 push	 ecx
  0001d	e8 00 00 00 00	 call	 ??$AtlMultiply@I@ATL@@YAJPAIII@Z ; ATL::AtlMultiply<unsigned int>
  00022	83 c4 0c	 add	 esp, 12			; 0000000cH
  00025	85 c0		 test	 eax, eax
  00027	7d 04		 jge	 SHORT $LN2@Allocate

; 458  : 		{
; 459  : 			return false;

  00029	32 c0		 xor	 al, al
  0002b	eb 0c		 jmp	 SHORT $LN1@Allocate
$LN2@Allocate:

; 460  : 		}
; 461  : 		return this->AllocateBytes(nBytes);

  0002d	8b 45 f8	 mov	 eax, DWORD PTR _nBytes$[ebp]
  00030	50		 push	 eax
  00031	8b 4d fc	 mov	 ecx, DWORD PTR _this$[ebp]
  00034	e8 00 00 00 00	 call	 ?AllocateBytes@?$CHeapPtrBase@DVCCRTAllocator@ATL@@@ATL@@QAE_NI@Z ; ATL::CHeapPtrBase<char,ATL::CCRTAllocator>::AllocateBytes
$LN1@Allocate:

; 462  : 	}

  00039	5f		 pop	 edi
  0003a	5e		 pop	 esi
  0003b	5b		 pop	 ebx
  0003c	8b e5		 mov	 esp, ebp
  0003e	5d		 pop	 ebp
  0003f	c2 04 00	 ret	 4
?Allocate@?$CHeapPtr@DVCCRTAllocator@ATL@@@ATL@@QAE_NI@Z ENDP ; ATL::CHeapPtr<char,ATL::CCRTAllocator>::Allocate
_TEXT	ENDS
; Function compile flags: /Odtp /ZI
; File c:\program files (x86)\microsoft visual studio\2017\community\vc\tools\msvc\14.16.27023\atlmfc\include\atlalloc.h
;	COMDAT ??0?$CHeapPtr@DVCCRTAllocator@ATL@@@ATL@@QAE@XZ
_TEXT	SEGMENT
_this$ = -4						; size = 4
??0?$CHeapPtr@DVCCRTAllocator@ATL@@@ATL@@QAE@XZ PROC	; ATL::CHeapPtr<char,ATL::CCRTAllocator>::CHeapPtr<char,ATL::CCRTAllocator>, COMDAT
; _this$ = ecx

; 434  : 	CHeapPtr() throw()

  00000	55		 push	 ebp
  00001	8b ec		 mov	 ebp, esp
  00003	83 ec 44	 sub	 esp, 68			; 00000044H
  00006	53		 push	 ebx
  00007	56		 push	 esi
  00008	57		 push	 edi
  00009	89 4d fc	 mov	 DWORD PTR _this$[ebp], ecx

; 435  : 	{

  0000c	8b 4d fc	 mov	 ecx, DWORD PTR _this$[ebp]
  0000f	e8 00 00 00 00	 call	 ??0?$CHeapPtrBase@DVCCRTAllocator@ATL@@@ATL@@IAE@XZ ; ATL::CHeapPtrBase<char,ATL::CCRTAllocator>::CHeapPtrBase<char,ATL::CCRTAllocator>

; 436  : 	}

  00014	8b 45 fc	 mov	 eax, DWORD PTR _this$[ebp]
  00017	5f		 pop	 edi
  00018	5e		 pop	 esi
  00019	5b		 pop	 ebx
  0001a	8b e5		 mov	 esp, ebp
  0001c	5d		 pop	 ebp
  0001d	c3		 ret	 0
??0?$CHeapPtr@DVCCRTAllocator@ATL@@@ATL@@QAE@XZ ENDP	; ATL::CHeapPtr<char,ATL::CCRTAllocator>::CHeapPtr<char,ATL::CCRTAllocator>
_TEXT	ENDS
; Function compile flags: /Odtp /ZI
; File c:\program files (x86)\microsoft visual studio\2017\community\vc\tools\msvc\14.16.27023\atlmfc\include\atlalloc.h
;	COMDAT ?Free@?$CHeapPtrBase@DVCCRTAllocator@ATL@@@ATL@@QAEXXZ
_TEXT	SEGMENT
_this$ = -4						; size = 4
?Free@?$CHeapPtrBase@DVCCRTAllocator@ATL@@@ATL@@QAEXXZ PROC ; ATL::CHeapPtrBase<char,ATL::CCRTAllocator>::Free, COMDAT
; _this$ = ecx

; 407  : 	{

  00000	55		 push	 ebp
  00001	8b ec		 mov	 ebp, esp
  00003	83 ec 44	 sub	 esp, 68			; 00000044H
  00006	53		 push	 ebx
  00007	56		 push	 esi
  00008	57		 push	 edi
  00009	89 4d fc	 mov	 DWORD PTR _this$[ebp], ecx

; 408  : 		Allocator::Free(m_pData);

  0000c	8b 45 fc	 mov	 eax, DWORD PTR _this$[ebp]
  0000f	8b 08		 mov	 ecx, DWORD PTR [eax]
  00011	51		 push	 ecx
  00012	e8 00 00 00 00	 call	 ?Free@CCRTAllocator@ATL@@SAXPAX@Z ; ATL::CCRTAllocator::Free
  00017	83 c4 04	 add	 esp, 4

; 409  : 		m_pData = NULL;

  0001a	8b 45 fc	 mov	 eax, DWORD PTR _this$[ebp]
  0001d	c7 00 00 00 00
	00		 mov	 DWORD PTR [eax], 0

; 410  : 	}

  00023	5f		 pop	 edi
  00024	5e		 pop	 esi
  00025	5b		 pop	 ebx
  00026	8b e5		 mov	 esp, ebp
  00028	5d		 pop	 ebp
  00029	c3		 ret	 0
?Free@?$CHeapPtrBase@DVCCRTAllocator@ATL@@@ATL@@QAEXXZ ENDP ; ATL::CHeapPtrBase<char,ATL::CCRTAllocator>::Free
_TEXT	ENDS
; Function compile flags: /Odtp /ZI
; File c:\program files (x86)\microsoft visual studio\2017\community\vc\tools\msvc\14.16.27023\atlmfc\include\atlalloc.h
;	COMDAT ?AllocateBytes@?$CHeapPtrBase@DVCCRTAllocator@ATL@@@ATL@@QAE_NI@Z
_TEXT	SEGMENT
_this$ = -4						; size = 4
_nBytes$ = 8						; size = 4
?AllocateBytes@?$CHeapPtrBase@DVCCRTAllocator@ATL@@@ATL@@QAE_NI@Z PROC ; ATL::CHeapPtrBase<char,ATL::CCRTAllocator>::AllocateBytes, COMDAT
; _this$ = ecx

; 381  : 	{

  00000	55		 push	 ebp
  00001	8b ec		 mov	 ebp, esp
  00003	83 ec 44	 sub	 esp, 68			; 00000044H
  00006	53		 push	 ebx
  00007	56		 push	 esi
  00008	57		 push	 edi
  00009	89 4d fc	 mov	 DWORD PTR _this$[ebp], ecx

; 382  : 		ATLASSERT(m_pData == NULL);

  0000c	8b 45 fc	 mov	 eax, DWORD PTR _this$[ebp]
  0000f	83 38 00	 cmp	 DWORD PTR [eax], 0
  00012	74 27		 je	 SHORT $LN4@AllocateBy
  00014	68 00 00 00 00	 push	 OFFSET ??_C@_1BK@NHECDDNK@?$AAm?$AA_?$AAp?$AAD?$AAa?$AAt?$AAa?$AA?5?$AA?$DN?$AA?$DN?$AA?5?$AA0@
  00019	68 00 00 00 00	 push	 OFFSET ??_C@_17CNPHIMPH@?$AA?$CF?$AAl?$AAs@
  0001e	6a 00		 push	 0
  00020	68 7e 01 00 00	 push	 382			; 0000017eH
  00025	68 00 00 00 00	 push	 OFFSET ??_C@_1OE@IAPLKPHI@?$AAc?$AA?3?$AA?2?$AAp?$AAr?$AAo?$AAg?$AAr?$AAa?$AAm?$AA?5?$AAf?$AAi?$AAl?$AAe@
  0002a	6a 02		 push	 2
  0002c	ff 15 00 00 00
	00		 call	 DWORD PTR __imp___CrtDbgReportW
  00032	83 c4 18	 add	 esp, 24			; 00000018H
  00035	83 f8 01	 cmp	 eax, 1
  00038	75 01		 jne	 SHORT $LN4@AllocateBy
  0003a	cc		 int	 3
$LN4@AllocateBy:

; 383  : 		m_pData = static_cast<T*>(Allocator::Allocate(nBytes));

  0003b	8b 45 08	 mov	 eax, DWORD PTR _nBytes$[ebp]
  0003e	50		 push	 eax
  0003f	e8 00 00 00 00	 call	 ?Allocate@CCRTAllocator@ATL@@SAPAXI@Z ; ATL::CCRTAllocator::Allocate
  00044	83 c4 04	 add	 esp, 4
  00047	8b 4d fc	 mov	 ecx, DWORD PTR _this$[ebp]
  0004a	89 01		 mov	 DWORD PTR [ecx], eax

; 384  : 		if (m_pData == NULL)

  0004c	8b 45 fc	 mov	 eax, DWORD PTR _this$[ebp]
  0004f	83 38 00	 cmp	 DWORD PTR [eax], 0
  00052	75 04		 jne	 SHORT $LN2@AllocateBy

; 385  : 			return false;

  00054	32 c0		 xor	 al, al
  00056	eb 02		 jmp	 SHORT $LN1@AllocateBy
$LN2@AllocateBy:

; 386  : 
; 387  : 		return true;

  00058	b0 01		 mov	 al, 1
$LN1@AllocateBy:

; 388  : 	}

  0005a	5f		 pop	 edi
  0005b	5e		 pop	 esi
  0005c	5b		 pop	 ebx
  0005d	8b e5		 mov	 esp, ebp
  0005f	5d		 pop	 ebp
  00060	c2 04 00	 ret	 4
?AllocateBytes@?$CHeapPtrBase@DVCCRTAllocator@ATL@@@ATL@@QAE_NI@Z ENDP ; ATL::CHeapPtrBase<char,ATL::CCRTAllocator>::AllocateBytes
_TEXT	ENDS
; Function compile flags: /Odtp /ZI
; File c:\program files (x86)\microsoft visual studio\2017\community\vc\tools\msvc\14.16.27023\atlmfc\include\atlalloc.h
;	COMDAT ??B?$CHeapPtrBase@DVCCRTAllocator@ATL@@@ATL@@QBEPADXZ
_TEXT	SEGMENT
_this$ = -4						; size = 4
??B?$CHeapPtrBase@DVCCRTAllocator@ATL@@@ATL@@QBEPADXZ PROC ; ATL::CHeapPtrBase<char,ATL::CCRTAllocator>::operator char *, COMDAT
; _this$ = ecx

; 363  : 	{

  00000	55		 push	 ebp
  00001	8b ec		 mov	 ebp, esp
  00003	83 ec 44	 sub	 esp, 68			; 00000044H
  00006	53		 push	 ebx
  00007	56		 push	 esi
  00008	57		 push	 edi
  00009	89 4d fc	 mov	 DWORD PTR _this$[ebp], ecx

; 364  : 		return m_pData;

  0000c	8b 45 fc	 mov	 eax, DWORD PTR _this$[ebp]
  0000f	8b 00		 mov	 eax, DWORD PTR [eax]

; 365  : 	}

  00011	5f		 pop	 edi
  00012	5e		 pop	 esi
  00013	5b		 pop	 ebx
  00014	8b e5		 mov	 esp, ebp
  00016	5d		 pop	 ebp
  00017	c3		 ret	 0
??B?$CHeapPtrBase@DVCCRTAllocator@ATL@@@ATL@@QBEPADXZ ENDP ; ATL::CHeapPtrBase<char,ATL::CCRTAllocator>::operator char *
_TEXT	ENDS
; Function compile flags: /Odtp /ZI
; File c:\program files (x86)\microsoft visual studio\2017\community\vc\tools\msvc\14.16.27023\atlmfc\include\atlalloc.h
;	COMDAT ??1?$CHeapPtrBase@DVCCRTAllocator@ATL@@@ATL@@QAE@XZ
_TEXT	SEGMENT
_this$ = -4						; size = 4
??1?$CHeapPtrBase@DVCCRTAllocator@ATL@@@ATL@@QAE@XZ PROC ; ATL::CHeapPtrBase<char,ATL::CCRTAllocator>::~CHeapPtrBase<char,ATL::CCRTAllocator>, COMDAT
; _this$ = ecx

; 349  : 	{

  00000	55		 push	 ebp
  00001	8b ec		 mov	 ebp, esp
  00003	83 ec 44	 sub	 esp, 68			; 00000044H
  00006	53		 push	 ebx
  00007	56		 push	 esi
  00008	57		 push	 edi
  00009	89 4d fc	 mov	 DWORD PTR _this$[ebp], ecx

; 350  : 		Free();

  0000c	8b 4d fc	 mov	 ecx, DWORD PTR _this$[ebp]
  0000f	e8 00 00 00 00	 call	 ?Free@?$CHeapPtrBase@DVCCRTAllocator@ATL@@@ATL@@QAEXXZ ; ATL::CHeapPtrBase<char,ATL::CCRTAllocator>::Free

; 351  : 	}

  00014	5f		 pop	 edi
  00015	5e		 pop	 esi
  00016	5b		 pop	 ebx
  00017	8b e5		 mov	 esp, ebp
  00019	5d		 pop	 ebp
  0001a	c3		 ret	 0
??1?$CHeapPtrBase@DVCCRTAllocator@ATL@@@ATL@@QAE@XZ ENDP ; ATL::CHeapPtrBase<char,ATL::CCRTAllocator>::~CHeapPtrBase<char,ATL::CCRTAllocator>
_TEXT	ENDS
; Function compile flags: /Odtp /ZI
; File c:\program files (x86)\microsoft visual studio\2017\community\vc\tools\msvc\14.16.27023\atlmfc\include\atlalloc.h
;	COMDAT ??0?$CHeapPtrBase@DVCCRTAllocator@ATL@@@ATL@@IAE@XZ
_TEXT	SEGMENT
_this$ = -4						; size = 4
??0?$CHeapPtrBase@DVCCRTAllocator@ATL@@@ATL@@IAE@XZ PROC ; ATL::CHeapPtrBase<char,ATL::CCRTAllocator>::CHeapPtrBase<char,ATL::CCRTAllocator>, COMDAT
; _this$ = ecx

; 336  : 	{

  00000	55		 push	 ebp
  00001	8b ec		 mov	 ebp, esp
  00003	83 ec 44	 sub	 esp, 68			; 00000044H
  00006	53		 push	 ebx
  00007	56		 push	 esi
  00008	57		 push	 edi
  00009	89 4d fc	 mov	 DWORD PTR _this$[ebp], ecx

; 335  : 		m_pData(NULL)

  0000c	8b 45 fc	 mov	 eax, DWORD PTR _this$[ebp]
  0000f	c7 00 00 00 00
	00		 mov	 DWORD PTR [eax], 0

; 337  : 	}

  00015	8b 45 fc	 mov	 eax, DWORD PTR _this$[ebp]
  00018	5f		 pop	 edi
  00019	5e		 pop	 esi
  0001a	5b		 pop	 ebx
  0001b	8b e5		 mov	 esp, ebp
  0001d	5d		 pop	 ebp
  0001e	c3		 ret	 0
??0?$CHeapPtrBase@DVCCRTAllocator@ATL@@@ATL@@IAE@XZ ENDP ; ATL::CHeapPtrBase<char,ATL::CCRTAllocator>::CHeapPtrBase<char,ATL::CCRTAllocator>
_TEXT	ENDS
; Function compile flags: /Odtp /ZI
;	COMDAT ??1?$CHeapPtr@_WVCCRTAllocator@ATL@@@ATL@@QAE@XZ
_TEXT	SEGMENT
_this$ = -4						; size = 4
??1?$CHeapPtr@_WVCCRTAllocator@ATL@@@ATL@@QAE@XZ PROC	; ATL::CHeapPtr<wchar_t,ATL::CCRTAllocator>::~CHeapPtr<wchar_t,ATL::CCRTAllocator>, COMDAT
; _this$ = ecx
  00000	55		 push	 ebp
  00001	8b ec		 mov	 ebp, esp
  00003	83 ec 44	 sub	 esp, 68			; 00000044H
  00006	53		 push	 ebx
  00007	56		 push	 esi
  00008	57		 push	 edi
  00009	89 4d fc	 mov	 DWORD PTR _this$[ebp], ecx
  0000c	8b 4d fc	 mov	 ecx, DWORD PTR _this$[ebp]
  0000f	e8 00 00 00 00	 call	 ??1?$CHeapPtrBase@_WVCCRTAllocator@ATL@@@ATL@@QAE@XZ ; ATL::CHeapPtrBase<wchar_t,ATL::CCRTAllocator>::~CHeapPtrBase<wchar_t,ATL::CCRTAllocator>
  00014	5f		 pop	 edi
  00015	5e		 pop	 esi
  00016	5b		 pop	 ebx
  00017	8b e5		 mov	 esp, ebp
  00019	5d		 pop	 ebp
  0001a	c3		 ret	 0
??1?$CHeapPtr@_WVCCRTAllocator@ATL@@@ATL@@QAE@XZ ENDP	; ATL::CHeapPtr<wchar_t,ATL::CCRTAllocator>::~CHeapPtr<wchar_t,ATL::CCRTAllocator>
_TEXT	ENDS
; Function compile flags: /Odtp /ZI
; File c:\program files (x86)\microsoft visual studio\2017\community\vc\tools\msvc\14.16.27023\atlmfc\include\atlalloc.h
;	COMDAT ?Allocate@?$CHeapPtr@_WVCCRTAllocator@ATL@@@ATL@@QAE_NI@Z
_TEXT	SEGMENT
_nBytes$ = -8						; size = 4
_this$ = -4						; size = 4
_nElements$ = 8						; size = 4
?Allocate@?$CHeapPtr@_WVCCRTAllocator@ATL@@@ATL@@QAE_NI@Z PROC ; ATL::CHeapPtr<wchar_t,ATL::CCRTAllocator>::Allocate, COMDAT
; _this$ = ecx

; 455  : 	{

  00000	55		 push	 ebp
  00001	8b ec		 mov	 ebp, esp
  00003	83 ec 48	 sub	 esp, 72			; 00000048H
  00006	53		 push	 ebx
  00007	56		 push	 esi
  00008	57		 push	 edi
  00009	89 4d fc	 mov	 DWORD PTR _this$[ebp], ecx

; 456  : 		size_t nBytes=0;

  0000c	c7 45 f8 00 00
	00 00		 mov	 DWORD PTR _nBytes$[ebp], 0

; 457  : 		if(FAILED(::ATL::AtlMultiply(&nBytes, nElements, sizeof(T))))

  00013	6a 02		 push	 2
  00015	8b 45 08	 mov	 eax, DWORD PTR _nElements$[ebp]
  00018	50		 push	 eax
  00019	8d 4d f8	 lea	 ecx, DWORD PTR _nBytes$[ebp]
  0001c	51		 push	 ecx
  0001d	e8 00 00 00 00	 call	 ??$AtlMultiply@I@ATL@@YAJPAIII@Z ; ATL::AtlMultiply<unsigned int>
  00022	83 c4 0c	 add	 esp, 12			; 0000000cH
  00025	85 c0		 test	 eax, eax
  00027	7d 04		 jge	 SHORT $LN2@Allocate

; 458  : 		{
; 459  : 			return false;

  00029	32 c0		 xor	 al, al
  0002b	eb 0c		 jmp	 SHORT $LN1@Allocate
$LN2@Allocate:

; 460  : 		}
; 461  : 		return this->AllocateBytes(nBytes);

  0002d	8b 45 f8	 mov	 eax, DWORD PTR _nBytes$[ebp]
  00030	50		 push	 eax
  00031	8b 4d fc	 mov	 ecx, DWORD PTR _this$[ebp]
  00034	e8 00 00 00 00	 call	 ?AllocateBytes@?$CHeapPtrBase@_WVCCRTAllocator@ATL@@@ATL@@QAE_NI@Z ; ATL::CHeapPtrBase<wchar_t,ATL::CCRTAllocator>::AllocateBytes
$LN1@Allocate:

; 462  : 	}

  00039	5f		 pop	 edi
  0003a	5e		 pop	 esi
  0003b	5b		 pop	 ebx
  0003c	8b e5		 mov	 esp, ebp
  0003e	5d		 pop	 ebp
  0003f	c2 04 00	 ret	 4
?Allocate@?$CHeapPtr@_WVCCRTAllocator@ATL@@@ATL@@QAE_NI@Z ENDP ; ATL::CHeapPtr<wchar_t,ATL::CCRTAllocator>::Allocate
_TEXT	ENDS
; Function compile flags: /Odtp /ZI
; File c:\program files (x86)\microsoft visual studio\2017\community\vc\tools\msvc\14.16.27023\atlmfc\include\atlalloc.h
;	COMDAT ??0?$CHeapPtr@_WVCCRTAllocator@ATL@@@ATL@@QAE@XZ
_TEXT	SEGMENT
_this$ = -4						; size = 4
??0?$CHeapPtr@_WVCCRTAllocator@ATL@@@ATL@@QAE@XZ PROC	; ATL::CHeapPtr<wchar_t,ATL::CCRTAllocator>::CHeapPtr<wchar_t,ATL::CCRTAllocator>, COMDAT
; _this$ = ecx

; 434  : 	CHeapPtr() throw()

  00000	55		 push	 ebp
  00001	8b ec		 mov	 ebp, esp
  00003	83 ec 44	 sub	 esp, 68			; 00000044H
  00006	53		 push	 ebx
  00007	56		 push	 esi
  00008	57		 push	 edi
  00009	89 4d fc	 mov	 DWORD PTR _this$[ebp], ecx

; 435  : 	{

  0000c	8b 4d fc	 mov	 ecx, DWORD PTR _this$[ebp]
  0000f	e8 00 00 00 00	 call	 ??0?$CHeapPtrBase@_WVCCRTAllocator@ATL@@@ATL@@IAE@XZ ; ATL::CHeapPtrBase<wchar_t,ATL::CCRTAllocator>::CHeapPtrBase<wchar_t,ATL::CCRTAllocator>

; 436  : 	}

  00014	8b 45 fc	 mov	 eax, DWORD PTR _this$[ebp]
  00017	5f		 pop	 edi
  00018	5e		 pop	 esi
  00019	5b		 pop	 ebx
  0001a	8b e5		 mov	 esp, ebp
  0001c	5d		 pop	 ebp
  0001d	c3		 ret	 0
??0?$CHeapPtr@_WVCCRTAllocator@ATL@@@ATL@@QAE@XZ ENDP	; ATL::CHeapPtr<wchar_t,ATL::CCRTAllocator>::CHeapPtr<wchar_t,ATL::CCRTAllocator>
_TEXT	ENDS
; Function compile flags: /Odtp /ZI
; File c:\program files (x86)\microsoft visual studio\2017\community\vc\tools\msvc\14.16.27023\atlmfc\include\atlalloc.h
;	COMDAT ?Free@?$CHeapPtrBase@_WVCCRTAllocator@ATL@@@ATL@@QAEXXZ
_TEXT	SEGMENT
_this$ = -4						; size = 4
?Free@?$CHeapPtrBase@_WVCCRTAllocator@ATL@@@ATL@@QAEXXZ PROC ; ATL::CHeapPtrBase<wchar_t,ATL::CCRTAllocator>::Free, COMDAT
; _this$ = ecx

; 407  : 	{

  00000	55		 push	 ebp
  00001	8b ec		 mov	 ebp, esp
  00003	83 ec 44	 sub	 esp, 68			; 00000044H
  00006	53		 push	 ebx
  00007	56		 push	 esi
  00008	57		 push	 edi
  00009	89 4d fc	 mov	 DWORD PTR _this$[ebp], ecx

; 408  : 		Allocator::Free(m_pData);

  0000c	8b 45 fc	 mov	 eax, DWORD PTR _this$[ebp]
  0000f	8b 08		 mov	 ecx, DWORD PTR [eax]
  00011	51		 push	 ecx
  00012	e8 00 00 00 00	 call	 ?Free@CCRTAllocator@ATL@@SAXPAX@Z ; ATL::CCRTAllocator::Free
  00017	83 c4 04	 add	 esp, 4

; 409  : 		m_pData = NULL;

  0001a	8b 45 fc	 mov	 eax, DWORD PTR _this$[ebp]
  0001d	c7 00 00 00 00
	00		 mov	 DWORD PTR [eax], 0

; 410  : 	}

  00023	5f		 pop	 edi
  00024	5e		 pop	 esi
  00025	5b		 pop	 ebx
  00026	8b e5		 mov	 esp, ebp
  00028	5d		 pop	 ebp
  00029	c3		 ret	 0
?Free@?$CHeapPtrBase@_WVCCRTAllocator@ATL@@@ATL@@QAEXXZ ENDP ; ATL::CHeapPtrBase<wchar_t,ATL::CCRTAllocator>::Free
_TEXT	ENDS
; Function compile flags: /Odtp /ZI
; File c:\program files (x86)\microsoft visual studio\2017\community\vc\tools\msvc\14.16.27023\atlmfc\include\atlalloc.h
;	COMDAT ?AllocateBytes@?$CHeapPtrBase@_WVCCRTAllocator@ATL@@@ATL@@QAE_NI@Z
_TEXT	SEGMENT
_this$ = -4						; size = 4
_nBytes$ = 8						; size = 4
?AllocateBytes@?$CHeapPtrBase@_WVCCRTAllocator@ATL@@@ATL@@QAE_NI@Z PROC ; ATL::CHeapPtrBase<wchar_t,ATL::CCRTAllocator>::AllocateBytes, COMDAT
; _this$ = ecx

; 381  : 	{

  00000	55		 push	 ebp
  00001	8b ec		 mov	 ebp, esp
  00003	83 ec 44	 sub	 esp, 68			; 00000044H
  00006	53		 push	 ebx
  00007	56		 push	 esi
  00008	57		 push	 edi
  00009	89 4d fc	 mov	 DWORD PTR _this$[ebp], ecx

; 382  : 		ATLASSERT(m_pData == NULL);

  0000c	8b 45 fc	 mov	 eax, DWORD PTR _this$[ebp]
  0000f	83 38 00	 cmp	 DWORD PTR [eax], 0
  00012	74 27		 je	 SHORT $LN4@AllocateBy
  00014	68 00 00 00 00	 push	 OFFSET ??_C@_1BK@NHECDDNK@?$AAm?$AA_?$AAp?$AAD?$AAa?$AAt?$AAa?$AA?5?$AA?$DN?$AA?$DN?$AA?5?$AA0@
  00019	68 00 00 00 00	 push	 OFFSET ??_C@_17CNPHIMPH@?$AA?$CF?$AAl?$AAs@
  0001e	6a 00		 push	 0
  00020	68 7e 01 00 00	 push	 382			; 0000017eH
  00025	68 00 00 00 00	 push	 OFFSET ??_C@_1OE@IAPLKPHI@?$AAc?$AA?3?$AA?2?$AAp?$AAr?$AAo?$AAg?$AAr?$AAa?$AAm?$AA?5?$AAf?$AAi?$AAl?$AAe@
  0002a	6a 02		 push	 2
  0002c	ff 15 00 00 00
	00		 call	 DWORD PTR __imp___CrtDbgReportW
  00032	83 c4 18	 add	 esp, 24			; 00000018H
  00035	83 f8 01	 cmp	 eax, 1
  00038	75 01		 jne	 SHORT $LN4@AllocateBy
  0003a	cc		 int	 3
$LN4@AllocateBy:

; 383  : 		m_pData = static_cast<T*>(Allocator::Allocate(nBytes));

  0003b	8b 45 08	 mov	 eax, DWORD PTR _nBytes$[ebp]
  0003e	50		 push	 eax
  0003f	e8 00 00 00 00	 call	 ?Allocate@CCRTAllocator@ATL@@SAPAXI@Z ; ATL::CCRTAllocator::Allocate
  00044	83 c4 04	 add	 esp, 4
  00047	8b 4d fc	 mov	 ecx, DWORD PTR _this$[ebp]
  0004a	89 01		 mov	 DWORD PTR [ecx], eax

; 384  : 		if (m_pData == NULL)

  0004c	8b 45 fc	 mov	 eax, DWORD PTR _this$[ebp]
  0004f	83 38 00	 cmp	 DWORD PTR [eax], 0
  00052	75 04		 jne	 SHORT $LN2@AllocateBy

; 385  : 			return false;

  00054	32 c0		 xor	 al, al
  00056	eb 02		 jmp	 SHORT $LN1@AllocateBy
$LN2@AllocateBy:

; 386  : 
; 387  : 		return true;

  00058	b0 01		 mov	 al, 1
$LN1@AllocateBy:

; 388  : 	}

  0005a	5f		 pop	 edi
  0005b	5e		 pop	 esi
  0005c	5b		 pop	 ebx
  0005d	8b e5		 mov	 esp, ebp
  0005f	5d		 pop	 ebp
  00060	c2 04 00	 ret	 4
?AllocateBytes@?$CHeapPtrBase@_WVCCRTAllocator@ATL@@@ATL@@QAE_NI@Z ENDP ; ATL::CHeapPtrBase<wchar_t,ATL::CCRTAllocator>::AllocateBytes
_TEXT	ENDS
; Function compile flags: /Odtp /ZI
; File c:\program files (x86)\microsoft visual studio\2017\community\vc\tools\msvc\14.16.27023\atlmfc\include\atlalloc.h
;	COMDAT ??B?$CHeapPtrBase@_WVCCRTAllocator@ATL@@@ATL@@QBEPA_WXZ
_TEXT	SEGMENT
_this$ = -4						; size = 4
??B?$CHeapPtrBase@_WVCCRTAllocator@ATL@@@ATL@@QBEPA_WXZ PROC ; ATL::CHeapPtrBase<wchar_t,ATL::CCRTAllocator>::operator wchar_t *, COMDAT
; _this$ = ecx

; 363  : 	{

  00000	55		 push	 ebp
  00001	8b ec		 mov	 ebp, esp
  00003	83 ec 44	 sub	 esp, 68			; 00000044H
  00006	53		 push	 ebx
  00007	56		 push	 esi
  00008	57		 push	 edi
  00009	89 4d fc	 mov	 DWORD PTR _this$[ebp], ecx

; 364  : 		return m_pData;

  0000c	8b 45 fc	 mov	 eax, DWORD PTR _this$[ebp]
  0000f	8b 00		 mov	 eax, DWORD PTR [eax]

; 365  : 	}

  00011	5f		 pop	 edi
  00012	5e		 pop	 esi
  00013	5b		 pop	 ebx
  00014	8b e5		 mov	 esp, ebp
  00016	5d		 pop	 ebp
  00017	c3		 ret	 0
??B?$CHeapPtrBase@_WVCCRTAllocator@ATL@@@ATL@@QBEPA_WXZ ENDP ; ATL::CHeapPtrBase<wchar_t,ATL::CCRTAllocator>::operator wchar_t *
_TEXT	ENDS
; Function compile flags: /Odtp /ZI
; File c:\program files (x86)\microsoft visual studio\2017\community\vc\tools\msvc\14.16.27023\atlmfc\include\atlalloc.h
;	COMDAT ??1?$CHeapPtrBase@_WVCCRTAllocator@ATL@@@ATL@@QAE@XZ
_TEXT	SEGMENT
_this$ = -4						; size = 4
??1?$CHeapPtrBase@_WVCCRTAllocator@ATL@@@ATL@@QAE@XZ PROC ; ATL::CHeapPtrBase<wchar_t,ATL::CCRTAllocator>::~CHeapPtrBase<wchar_t,ATL::CCRTAllocator>, COMDAT
; _this$ = ecx

; 349  : 	{

  00000	55		 push	 ebp
  00001	8b ec		 mov	 ebp, esp
  00003	83 ec 44	 sub	 esp, 68			; 00000044H
  00006	53		 push	 ebx
  00007	56		 push	 esi
  00008	57		 push	 edi
  00009	89 4d fc	 mov	 DWORD PTR _this$[ebp], ecx

; 350  : 		Free();

  0000c	8b 4d fc	 mov	 ecx, DWORD PTR _this$[ebp]
  0000f	e8 00 00 00 00	 call	 ?Free@?$CHeapPtrBase@_WVCCRTAllocator@ATL@@@ATL@@QAEXXZ ; ATL::CHeapPtrBase<wchar_t,ATL::CCRTAllocator>::Free

; 351  : 	}

  00014	5f		 pop	 edi
  00015	5e		 pop	 esi
  00016	5b		 pop	 ebx
  00017	8b e5		 mov	 esp, ebp
  00019	5d		 pop	 ebp
  0001a	c3		 ret	 0
??1?$CHeapPtrBase@_WVCCRTAllocator@ATL@@@ATL@@QAE@XZ ENDP ; ATL::CHeapPtrBase<wchar_t,ATL::CCRTAllocator>::~CHeapPtrBase<wchar_t,ATL::CCRTAllocator>
_TEXT	ENDS
; Function compile flags: /Odtp /ZI
; File c:\program files (x86)\microsoft visual studio\2017\community\vc\tools\msvc\14.16.27023\atlmfc\include\atlalloc.h
;	COMDAT ??0?$CHeapPtrBase@_WVCCRTAllocator@ATL@@@ATL@@IAE@XZ
_TEXT	SEGMENT
_this$ = -4						; size = 4
??0?$CHeapPtrBase@_WVCCRTAllocator@ATL@@@ATL@@IAE@XZ PROC ; ATL::CHeapPtrBase<wchar_t,ATL::CCRTAllocator>::CHeapPtrBase<wchar_t,ATL::CCRTAllocator>, COMDAT
; _this$ = ecx

; 336  : 	{

  00000	55		 push	 ebp
  00001	8b ec		 mov	 ebp, esp
  00003	83 ec 44	 sub	 esp, 68			; 00000044H
  00006	53		 push	 ebx
  00007	56		 push	 esi
  00008	57		 push	 edi
  00009	89 4d fc	 mov	 DWORD PTR _this$[ebp], ecx

; 335  : 		m_pData(NULL)

  0000c	8b 45 fc	 mov	 eax, DWORD PTR _this$[ebp]
  0000f	c7 00 00 00 00
	00		 mov	 DWORD PTR [eax], 0

; 337  : 	}

  00015	8b 45 fc	 mov	 eax, DWORD PTR _this$[ebp]
  00018	5f		 pop	 edi
  00019	5e		 pop	 esi
  0001a	5b		 pop	 ebx
  0001b	8b e5		 mov	 esp, ebp
  0001d	5d		 pop	 ebp
  0001e	c3		 ret	 0
??0?$CHeapPtrBase@_WVCCRTAllocator@ATL@@@ATL@@IAE@XZ ENDP ; ATL::CHeapPtrBase<wchar_t,ATL::CCRTAllocator>::CHeapPtrBase<wchar_t,ATL::CCRTAllocator>
_TEXT	ENDS
; Function compile flags: /Odtp /ZI
; File c:\program files (x86)\microsoft visual studio\2017\community\vc\tools\msvc\14.16.27023\atlmfc\include\atltrace.h
;	COMDAT ?RegisterCategory@CTrace@ATL@@SAXPBDI@Z
_TEXT	SEGMENT
_buffer$ = -260						; size = 256
__$ArrayPad$ = -4					; size = 4
_pszCategory$ = 8					; size = 4
_nCategory$ = 12					; size = 4
?RegisterCategory@CTrace@ATL@@SAXPBDI@Z PROC		; ATL::CTrace::RegisterCategory, COMDAT

; 329  : 	{

  00000	55		 push	 ebp
  00001	8b ec		 mov	 ebp, esp
  00003	81 ec 44 01 00
	00		 sub	 esp, 324		; 00000144H
  00009	a1 00 00 00 00	 mov	 eax, DWORD PTR ___security_cookie
  0000e	33 c5		 xor	 eax, ebp
  00010	89 45 fc	 mov	 DWORD PTR __$ArrayPad$[ebp], eax
  00013	53		 push	 ebx
  00014	56		 push	 esi
  00015	57		 push	 edi

; 330  : 		if (pszCategory == nullptr)

  00016	83 7d 08 00	 cmp	 DWORD PTR _pszCategory$[ebp], 0
  0001a	75 05		 jne	 SHORT $LN2@RegisterCa

; 331  : 		{
; 332  : 			return;

  0001c	e9 a9 00 00 00	 jmp	 $LN1@RegisterCa
$LN2@RegisterCa:

; 333  : 		}
; 334  : 
; 335  : 		if (m_nLastCategory >= MaxCategoryArray) 

  00021	83 3d 00 00 00
	00 20		 cmp	 DWORD PTR ?m_nLastCategory@CTrace@ATL@@1IA, 32 ; ATL::CTrace::m_nLastCategory, 00000020H
  00028	72 2d		 jb	 SHORT $LN3@RegisterCa

; 336  : 		{
; 337  : 			ATLASSERT(false && "Too many categories defined");

  0002a	33 c0		 xor	 eax, eax
  0002c	75 27		 jne	 SHORT $LN5@RegisterCa
  0002e	68 00 00 00 00	 push	 OFFSET ??_C@_1EO@EBPPKGOM@?$AAf?$AAa?$AAl?$AAs?$AAe?$AA?5?$AA?$CG?$AA?$CG?$AA?5?$AA?$CC?$AAT?$AAo?$AAo?$AA?5?$AAm@
  00033	68 00 00 00 00	 push	 OFFSET ??_C@_17CNPHIMPH@?$AA?$CF?$AAl?$AAs@
  00038	6a 00		 push	 0
  0003a	68 51 01 00 00	 push	 337			; 00000151H
  0003f	68 00 00 00 00	 push	 OFFSET ??_C@_1OE@PDFAMNPL@?$AAc?$AA?3?$AA?2?$AAp?$AAr?$AAo?$AAg?$AAr?$AAa?$AAm?$AA?5?$AAf?$AAi?$AAl?$AAe@
  00044	6a 02		 push	 2
  00046	ff 15 00 00 00
	00		 call	 DWORD PTR __imp___CrtDbgReportW
  0004c	83 c4 18	 add	 esp, 24			; 00000018H
  0004f	83 f8 01	 cmp	 eax, 1
  00052	75 01		 jne	 SHORT $LN5@RegisterCa
  00054	cc		 int	 3
$LN5@RegisterCa:

; 338  : 			return;

  00055	eb 73		 jmp	 SHORT $LN1@RegisterCa
$LN3@RegisterCa:

; 339  : 		}
; 340  : 
; 341  : 		m_nMap[m_nLastCategory].nCategory = nCategory;

  00057	69 05 00 00 00
	00 04 01 00 00	 imul	 eax, DWORD PTR ?m_nLastCategory@CTrace@ATL@@1IA, 260 ; ATL::CTrace::m_nLastCategory
  00061	8b 4d 0c	 mov	 ecx, DWORD PTR _nCategory$[ebp]
  00064	89 88 00 00 00
	00		 mov	 DWORD PTR ?m_nMap@CTrace@ATL@@1PAUCategoryMap@12@A[eax], ecx

; 342  : #ifdef _UNICODE
; 343  : 		wcscpy_s(m_nMap[m_nLastCategory].categryName, MaxLengthOfCategoryName - 1, pszCategory);
; 344  : #else
; 345  : 		wchar_t buffer[MaxLengthOfCategoryName] = { 0 };	

  0006a	68 00 01 00 00	 push	 256			; 00000100H
  0006f	6a 00		 push	 0
  00071	8d 85 fc fe ff
	ff		 lea	 eax, DWORD PTR _buffer$[ebp]
  00077	50		 push	 eax
  00078	e8 00 00 00 00	 call	 _memset
  0007d	83 c4 0c	 add	 esp, 12			; 0000000cH

; 346  : #if _MSC_VER < 1900
; 347  : 		swprintf_s(buffer, MaxLengthOfCategoryName - 1, L"%S", pszCategory);
; 348  : #else
; 349  : 		swprintf_s(buffer, MaxLengthOfCategoryName - 1, L"%hs", pszCategory);

  00080	8b 45 08	 mov	 eax, DWORD PTR _pszCategory$[ebp]
  00083	50		 push	 eax
  00084	68 00 00 00 00	 push	 OFFSET ??_C@_17LGGGMOOB@?$AA?$CF?$AAh?$AAs@
  00089	6a 7f		 push	 127			; 0000007fH
  0008b	8d 8d fc fe ff
	ff		 lea	 ecx, DWORD PTR _buffer$[ebp]
  00091	51		 push	 ecx
  00092	e8 00 00 00 00	 call	 _swprintf_s
  00097	83 c4 10	 add	 esp, 16			; 00000010H

; 350  : #endif
; 351  : 		wcscpy_s(m_nMap[m_nLastCategory].categryName, MaxLengthOfCategoryName - 1, buffer);

  0009a	8d 85 fc fe ff
	ff		 lea	 eax, DWORD PTR _buffer$[ebp]
  000a0	50		 push	 eax
  000a1	6a 7f		 push	 127			; 0000007fH
  000a3	69 0d 00 00 00
	00 04 01 00 00	 imul	 ecx, DWORD PTR ?m_nLastCategory@CTrace@ATL@@1IA, 260 ; ATL::CTrace::m_nLastCategory
  000ad	81 c1 04 00 00
	00		 add	 ecx, OFFSET ?m_nMap@CTrace@ATL@@1PAUCategoryMap@12@A+4
  000b3	51		 push	 ecx
  000b4	ff 15 00 00 00
	00		 call	 DWORD PTR __imp__wcscpy_s
  000ba	83 c4 0c	 add	 esp, 12			; 0000000cH

; 352  : #endif
; 353  : 	
; 354  : 		m_nLastCategory++;

  000bd	a1 00 00 00 00	 mov	 eax, DWORD PTR ?m_nLastCategory@CTrace@ATL@@1IA ; ATL::CTrace::m_nLastCategory
  000c2	83 c0 01	 add	 eax, 1
  000c5	a3 00 00 00 00	 mov	 DWORD PTR ?m_nLastCategory@CTrace@ATL@@1IA, eax ; ATL::CTrace::m_nLastCategory
$LN1@RegisterCa:

; 355  : 	}

  000ca	5f		 pop	 edi
  000cb	5e		 pop	 esi
  000cc	5b		 pop	 ebx
  000cd	8b 4d fc	 mov	 ecx, DWORD PTR __$ArrayPad$[ebp]
  000d0	33 cd		 xor	 ecx, ebp
  000d2	e8 00 00 00 00	 call	 @__security_check_cookie@4
  000d7	8b e5		 mov	 esp, ebp
  000d9	5d		 pop	 ebp
  000da	c3		 ret	 0
?RegisterCategory@CTrace@ATL@@SAXPBDI@Z ENDP		; ATL::CTrace::RegisterCategory
_TEXT	ENDS
; Function compile flags: /Odtp /ZI
; File c:\program files (x86)\microsoft visual studio\2017\community\vc\tools\msvc\14.16.27023\atlmfc\include\atltrace.h
;	COMDAT ?TraceV@CTrace@ATL@@SAXPBDHII0PAD@Z
_TEXT	SEGMENT
_wszBuf$ = -24						; size = 4
_szBuf$ = -20						; size = 4
_cchNeeded$ = -16					; size = 4
__$EHRec$ = -12						; size = 12
_pszFileName$ = 8					; size = 4
_nLine$ = 12						; size = 4
_dwCategory$ = 16					; size = 4
_nLevel$ = 20						; size = 4
_pszFmt$ = 24						; size = 4
_args$ = 28						; size = 4
?TraceV@CTrace@ATL@@SAXPBDHII0PAD@Z PROC		; ATL::CTrace::TraceV, COMDAT

; 238  : 	{

  00000	55		 push	 ebp
  00001	8b ec		 mov	 ebp, esp
  00003	6a ff		 push	 -1
  00005	68 00 00 00 00	 push	 __ehhandler$?TraceV@CTrace@ATL@@SAXPBDHII0PAD@Z
  0000a	64 a1 00 00 00
	00		 mov	 eax, DWORD PTR fs:0
  00010	50		 push	 eax
  00011	83 ec 4c	 sub	 esp, 76			; 0000004cH
  00014	53		 push	 ebx
  00015	56		 push	 esi
  00016	57		 push	 edi
  00017	a1 00 00 00 00	 mov	 eax, DWORD PTR ___security_cookie
  0001c	33 c5		 xor	 eax, ebp
  0001e	50		 push	 eax
  0001f	8d 45 f4	 lea	 eax, DWORD PTR __$EHRec$[ebp]
  00022	64 a3 00 00 00
	00		 mov	 DWORD PTR fs:0, eax

; 239  : 		int cchNeeded = _vscprintf(pszFmt, args);

  00028	8b 45 1c	 mov	 eax, DWORD PTR _args$[ebp]
  0002b	50		 push	 eax
  0002c	8b 4d 18	 mov	 ecx, DWORD PTR _pszFmt$[ebp]
  0002f	51		 push	 ecx
  00030	e8 00 00 00 00	 call	 __vscprintf
  00035	83 c4 08	 add	 esp, 8
  00038	89 45 f0	 mov	 DWORD PTR _cchNeeded$[ebp], eax

; 240  : 		if (cchNeeded < 0)

  0003b	83 7d f0 00	 cmp	 DWORD PTR _cchNeeded$[ebp], 0
  0003f	7d 05		 jge	 SHORT $LN2@TraceV

; 241  : 		{
; 242  : 			return;

  00041	e9 64 01 00 00	 jmp	 $LN1@TraceV
$LN2@TraceV:

; 243  : 		}
; 244  : 
; 245  : 		CHeapPtr<char> szBuf;

  00046	8d 4d ec	 lea	 ecx, DWORD PTR _szBuf$[ebp]
  00049	e8 00 00 00 00	 call	 ??0?$CHeapPtr@DVCCRTAllocator@ATL@@@ATL@@QAE@XZ ; ATL::CHeapPtr<char,ATL::CCRTAllocator>::CHeapPtr<char,ATL::CCRTAllocator>
  0004e	c7 45 fc 00 00
	00 00		 mov	 DWORD PTR __$EHRec$[ebp+8], 0

; 246  : 		if (!szBuf.Allocate(cchNeeded + 1))

  00055	8b 45 f0	 mov	 eax, DWORD PTR _cchNeeded$[ebp]
  00058	83 c0 01	 add	 eax, 1
  0005b	50		 push	 eax
  0005c	8d 4d ec	 lea	 ecx, DWORD PTR _szBuf$[ebp]
  0005f	e8 00 00 00 00	 call	 ?Allocate@?$CHeapPtr@DVCCRTAllocator@ATL@@@ATL@@QAE_NI@Z ; ATL::CHeapPtr<char,ATL::CCRTAllocator>::Allocate
  00064	0f b6 c8	 movzx	 ecx, al
  00067	85 c9		 test	 ecx, ecx
  00069	75 14		 jne	 SHORT $LN3@TraceV

; 247  : 		{
; 248  : 			return;

  0006b	c7 45 fc ff ff
	ff ff		 mov	 DWORD PTR __$EHRec$[ebp+8], -1
  00072	8d 4d ec	 lea	 ecx, DWORD PTR _szBuf$[ebp]
  00075	e8 00 00 00 00	 call	 ??1?$CHeapPtr@DVCCRTAllocator@ATL@@@ATL@@QAE@XZ
  0007a	e9 2b 01 00 00	 jmp	 $LN1@TraceV
$LN3@TraceV:

; 249  : 		}
; 250  : 
; 251  : 		szBuf[0] = '\0';

  0007f	8d 4d ec	 lea	 ecx, DWORD PTR _szBuf$[ebp]
  00082	e8 00 00 00 00	 call	 ??B?$CHeapPtrBase@DVCCRTAllocator@ATL@@@ATL@@QBEPADXZ ; ATL::CHeapPtrBase<char,ATL::CCRTAllocator>::operator char *
  00087	b9 01 00 00 00	 mov	 ecx, 1
  0008c	6b d1 00	 imul	 edx, ecx, 0
  0008f	c6 04 10 00	 mov	 BYTE PTR [eax+edx], 0

; 252  : 
; 253  : 		if (_vsnprintf_s(szBuf, cchNeeded + 1, cchNeeded, pszFmt, args) == -1)

  00093	8b 45 1c	 mov	 eax, DWORD PTR _args$[ebp]
  00096	50		 push	 eax
  00097	8b 4d 18	 mov	 ecx, DWORD PTR _pszFmt$[ebp]
  0009a	51		 push	 ecx
  0009b	8b 55 f0	 mov	 edx, DWORD PTR _cchNeeded$[ebp]
  0009e	52		 push	 edx
  0009f	8b 45 f0	 mov	 eax, DWORD PTR _cchNeeded$[ebp]
  000a2	83 c0 01	 add	 eax, 1
  000a5	50		 push	 eax
  000a6	8d 4d ec	 lea	 ecx, DWORD PTR _szBuf$[ebp]
  000a9	e8 00 00 00 00	 call	 ??B?$CHeapPtrBase@DVCCRTAllocator@ATL@@@ATL@@QBEPADXZ ; ATL::CHeapPtrBase<char,ATL::CCRTAllocator>::operator char *
  000ae	50		 push	 eax
  000af	e8 00 00 00 00	 call	 __vsnprintf_s
  000b4	83 c4 14	 add	 esp, 20			; 00000014H
  000b7	83 f8 ff	 cmp	 eax, -1
  000ba	75 14		 jne	 SHORT $LN4@TraceV

; 254  : 		{
; 255  : 			return;

  000bc	c7 45 fc ff ff
	ff ff		 mov	 DWORD PTR __$EHRec$[ebp+8], -1
  000c3	8d 4d ec	 lea	 ecx, DWORD PTR _szBuf$[ebp]
  000c6	e8 00 00 00 00	 call	 ??1?$CHeapPtr@DVCCRTAllocator@ATL@@@ATL@@QAE@XZ
  000cb	e9 da 00 00 00	 jmp	 $LN1@TraceV
$LN4@TraceV:

; 256  : 		}
; 257  : 
; 258  : 		CHeapPtr<wchar_t> wszBuf;

  000d0	8d 4d e8	 lea	 ecx, DWORD PTR _wszBuf$[ebp]
  000d3	e8 00 00 00 00	 call	 ??0?$CHeapPtr@_WVCCRTAllocator@ATL@@@ATL@@QAE@XZ ; ATL::CHeapPtr<wchar_t,ATL::CCRTAllocator>::CHeapPtr<wchar_t,ATL::CCRTAllocator>
  000d8	c6 45 fc 01	 mov	 BYTE PTR __$EHRec$[ebp+8], 1

; 259  : 		if (!wszBuf.Allocate(cchNeeded + 1))

  000dc	8b 45 f0	 mov	 eax, DWORD PTR _cchNeeded$[ebp]
  000df	83 c0 01	 add	 eax, 1
  000e2	50		 push	 eax
  000e3	8d 4d e8	 lea	 ecx, DWORD PTR _wszBuf$[ebp]
  000e6	e8 00 00 00 00	 call	 ?Allocate@?$CHeapPtr@_WVCCRTAllocator@ATL@@@ATL@@QAE_NI@Z ; ATL::CHeapPtr<wchar_t,ATL::CCRTAllocator>::Allocate
  000eb	0f b6 c8	 movzx	 ecx, al
  000ee	85 c9		 test	 ecx, ecx
  000f0	75 20		 jne	 SHORT $LN5@TraceV

; 260  : 		{
; 261  : 			return;

  000f2	c6 45 fc 00	 mov	 BYTE PTR __$EHRec$[ebp+8], 0
  000f6	8d 4d e8	 lea	 ecx, DWORD PTR _wszBuf$[ebp]
  000f9	e8 00 00 00 00	 call	 ??1?$CHeapPtr@_WVCCRTAllocator@ATL@@@ATL@@QAE@XZ
  000fe	c7 45 fc ff ff
	ff ff		 mov	 DWORD PTR __$EHRec$[ebp+8], -1
  00105	8d 4d ec	 lea	 ecx, DWORD PTR _szBuf$[ebp]
  00108	e8 00 00 00 00	 call	 ??1?$CHeapPtr@DVCCRTAllocator@ATL@@@ATL@@QAE@XZ
  0010d	e9 98 00 00 00	 jmp	 $LN1@TraceV
$LN5@TraceV:

; 262  : 		}
; 263  : 
; 264  : 		wszBuf[0] = '\0';

  00112	8d 4d e8	 lea	 ecx, DWORD PTR _wszBuf$[ebp]
  00115	e8 00 00 00 00	 call	 ??B?$CHeapPtrBase@_WVCCRTAllocator@ATL@@@ATL@@QBEPA_WXZ ; ATL::CHeapPtrBase<wchar_t,ATL::CCRTAllocator>::operator wchar_t *
  0011a	b9 02 00 00 00	 mov	 ecx, 2
  0011f	6b d1 00	 imul	 edx, ecx, 0
  00122	33 c9		 xor	 ecx, ecx
  00124	66 89 0c 10	 mov	 WORD PTR [eax+edx], cx

; 265  : 
; 266  : 		if (::MultiByteToWideChar(CP_ACP, 0, szBuf, -1, wszBuf, cchNeeded + 1) == 0)

  00128	8b 45 f0	 mov	 eax, DWORD PTR _cchNeeded$[ebp]
  0012b	83 c0 01	 add	 eax, 1
  0012e	50		 push	 eax
  0012f	8d 4d e8	 lea	 ecx, DWORD PTR _wszBuf$[ebp]
  00132	e8 00 00 00 00	 call	 ??B?$CHeapPtrBase@_WVCCRTAllocator@ATL@@@ATL@@QBEPA_WXZ ; ATL::CHeapPtrBase<wchar_t,ATL::CCRTAllocator>::operator wchar_t *
  00137	50		 push	 eax
  00138	6a ff		 push	 -1
  0013a	8d 4d ec	 lea	 ecx, DWORD PTR _szBuf$[ebp]
  0013d	e8 00 00 00 00	 call	 ??B?$CHeapPtrBase@DVCCRTAllocator@ATL@@@ATL@@QBEPADXZ ; ATL::CHeapPtrBase<char,ATL::CCRTAllocator>::operator char *
  00142	50		 push	 eax
  00143	6a 00		 push	 0
  00145	6a 00		 push	 0
  00147	ff 15 00 00 00
	00		 call	 DWORD PTR __imp__MultiByteToWideChar@24
  0014d	85 c0		 test	 eax, eax
  0014f	75 1d		 jne	 SHORT $LN6@TraceV

; 267  : 		{
; 268  : 			return;

  00151	c6 45 fc 00	 mov	 BYTE PTR __$EHRec$[ebp+8], 0
  00155	8d 4d e8	 lea	 ecx, DWORD PTR _wszBuf$[ebp]
  00158	e8 00 00 00 00	 call	 ??1?$CHeapPtr@_WVCCRTAllocator@ATL@@@ATL@@QAE@XZ
  0015d	c7 45 fc ff ff
	ff ff		 mov	 DWORD PTR __$EHRec$[ebp+8], -1
  00164	8d 4d ec	 lea	 ecx, DWORD PTR _szBuf$[ebp]
  00167	e8 00 00 00 00	 call	 ??1?$CHeapPtr@DVCCRTAllocator@ATL@@@ATL@@QAE@XZ
  0016c	eb 3c		 jmp	 SHORT $LN1@TraceV
$LN6@TraceV:

; 269  : 		}
; 270  : 
; 271  : 		TraceV(pszFileName, nLine, dwCategory, nLevel, wszBuf);

  0016e	8d 4d e8	 lea	 ecx, DWORD PTR _wszBuf$[ebp]
  00171	e8 00 00 00 00	 call	 ??B?$CHeapPtrBase@_WVCCRTAllocator@ATL@@@ATL@@QBEPA_WXZ ; ATL::CHeapPtrBase<wchar_t,ATL::CCRTAllocator>::operator wchar_t *
  00176	50		 push	 eax
  00177	8b 45 14	 mov	 eax, DWORD PTR _nLevel$[ebp]
  0017a	50		 push	 eax
  0017b	8b 4d 10	 mov	 ecx, DWORD PTR _dwCategory$[ebp]
  0017e	51		 push	 ecx
  0017f	8b 55 0c	 mov	 edx, DWORD PTR _nLine$[ebp]
  00182	52		 push	 edx
  00183	8b 45 08	 mov	 eax, DWORD PTR _pszFileName$[ebp]
  00186	50		 push	 eax
  00187	e8 00 00 00 00	 call	 ?TraceV@CTrace@ATL@@CAXPBDHIIPB_W@Z ; ATL::CTrace::TraceV
  0018c	83 c4 14	 add	 esp, 20			; 00000014H

; 272  : 	}

  0018f	c6 45 fc 00	 mov	 BYTE PTR __$EHRec$[ebp+8], 0
  00193	8d 4d e8	 lea	 ecx, DWORD PTR _wszBuf$[ebp]
  00196	e8 00 00 00 00	 call	 ??1?$CHeapPtr@_WVCCRTAllocator@ATL@@@ATL@@QAE@XZ
  0019b	c7 45 fc ff ff
	ff ff		 mov	 DWORD PTR __$EHRec$[ebp+8], -1
  001a2	8d 4d ec	 lea	 ecx, DWORD PTR _szBuf$[ebp]
  001a5	e8 00 00 00 00	 call	 ??1?$CHeapPtr@DVCCRTAllocator@ATL@@@ATL@@QAE@XZ
$LN1@TraceV:
  001aa	8b 4d f4	 mov	 ecx, DWORD PTR __$EHRec$[ebp]
  001ad	64 89 0d 00 00
	00 00		 mov	 DWORD PTR fs:0, ecx
  001b4	59		 pop	 ecx
  001b5	5f		 pop	 edi
  001b6	5e		 pop	 esi
  001b7	5b		 pop	 ebx
  001b8	8b e5		 mov	 esp, ebp
  001ba	5d		 pop	 ebp
  001bb	c3		 ret	 0
_TEXT	ENDS
;	COMDAT text$x
text$x	SEGMENT
__unwindfunclet$?TraceV@CTrace@ATL@@SAXPBDHII0PAD@Z$0:
  00000	8d 4d ec	 lea	 ecx, DWORD PTR _szBuf$[ebp]
  00003	e9 00 00 00 00	 jmp	 ??1?$CHeapPtr@DVCCRTAllocator@ATL@@@ATL@@QAE@XZ
__unwindfunclet$?TraceV@CTrace@ATL@@SAXPBDHII0PAD@Z$1:
  00008	8d 4d e8	 lea	 ecx, DWORD PTR _wszBuf$[ebp]
  0000b	e9 00 00 00 00	 jmp	 ??1?$CHeapPtr@_WVCCRTAllocator@ATL@@@ATL@@QAE@XZ
__ehhandler$?TraceV@CTrace@ATL@@SAXPBDHII0PAD@Z:
  00010	8b 54 24 08	 mov	 edx, DWORD PTR [esp+8]
  00014	8d 42 0c	 lea	 eax, DWORD PTR [edx+12]
  00017	8b 4a a4	 mov	 ecx, DWORD PTR [edx-92]
  0001a	33 c8		 xor	 ecx, eax
  0001c	e8 00 00 00 00	 call	 @__security_check_cookie@4
  00021	b8 00 00 00 00	 mov	 eax, OFFSET __ehfuncinfo$?TraceV@CTrace@ATL@@SAXPBDHII0PAD@Z
  00026	e9 00 00 00 00	 jmp	 ___CxxFrameHandler3
text$x	ENDS
?TraceV@CTrace@ATL@@SAXPBDHII0PAD@Z ENDP		; ATL::CTrace::TraceV
; Function compile flags: /Odtp /ZI
; File c:\program files (x86)\microsoft visual studio\2017\community\vc\tools\msvc\14.16.27023\atlmfc\include\atltrace.h
;	COMDAT ?TraceV@CTrace@ATL@@CAXPBDHIIPB_W@Z
_TEXT	SEGMENT
_fileName$ = -2588					; size = 520
_wszBuf$ = -2068					; size = 4
_chCount$ = -2064					; size = 4
_pwszCategoryName$ = -2060				; size = 4
_categoryLength$ = -2056				; size = 4
_wszCategory$ = -2052					; size = 2048
__$ArrayPad$ = -4					; size = 4
_pszFileName$ = 8					; size = 4
_nLine$ = 12						; size = 4
_dwCategory$ = 16					; size = 4
_nLevel$ = 20						; size = 4
_pwszMessage$ = 24					; size = 4
?TraceV@CTrace@ATL@@CAXPBDHIIPB_W@Z PROC		; ATL::CTrace::TraceV, COMDAT

; 150  : 	{

  00000	55		 push	 ebp
  00001	8b ec		 mov	 ebp, esp
  00003	81 ec 9c 0b 00
	00		 sub	 esp, 2972		; 00000b9cH
  00009	a1 00 00 00 00	 mov	 eax, DWORD PTR ___security_cookie
  0000e	33 c5		 xor	 eax, ebp
  00010	89 45 fc	 mov	 DWORD PTR __$ArrayPad$[ebp], eax
  00013	53		 push	 ebx
  00014	56		 push	 esi
  00015	57		 push	 edi

; 151  : 		if (CTrace::m_nLevel == CTrace::DisableTracing || CTrace::m_nLevel < nLevel || (CTrace::m_nCategory & dwCategory) == 0)

  00016	83 3d 00 00 00
	00 ff		 cmp	 DWORD PTR ?m_nLevel@CTrace@ATL@@1IA, -1 ; ATL::CTrace::m_nLevel
  0001d	74 14		 je	 SHORT $LN3@TraceV
  0001f	a1 00 00 00 00	 mov	 eax, DWORD PTR ?m_nLevel@CTrace@ATL@@1IA ; ATL::CTrace::m_nLevel
  00024	3b 45 14	 cmp	 eax, DWORD PTR _nLevel$[ebp]
  00027	72 0a		 jb	 SHORT $LN3@TraceV
  00029	a1 00 00 00 00	 mov	 eax, DWORD PTR ?m_nCategory@CTrace@ATL@@1IA ; ATL::CTrace::m_nCategory
  0002e	23 45 10	 and	 eax, DWORD PTR _dwCategory$[ebp]
  00031	75 05		 jne	 SHORT $LN2@TraceV
$LN3@TraceV:

; 152  : 		{
; 153  : 			return;

  00033	e9 c2 01 00 00	 jmp	 $LN1@TraceV
$LN2@TraceV:

; 154  : 		}
; 155  : 
; 156  : 		wchar_t wszCategory[TraceBufferSize] = {'\0'};

  00038	68 00 08 00 00	 push	 2048			; 00000800H
  0003d	6a 00		 push	 0
  0003f	8d 85 fc f7 ff
	ff		 lea	 eax, DWORD PTR _wszCategory$[ebp]
  00045	50		 push	 eax
  00046	e8 00 00 00 00	 call	 _memset
  0004b	83 c4 0c	 add	 esp, 12			; 0000000cH

; 157  : 		int categoryLength = 0;

  0004e	c7 85 f8 f7 ff
	ff 00 00 00 00	 mov	 DWORD PTR _categoryLength$[ebp], 0

; 158  : 		const wchar_t *const pwszCategoryName = GetCategoryName(dwCategory);

  00058	8b 45 10	 mov	 eax, DWORD PTR _dwCategory$[ebp]
  0005b	50		 push	 eax
  0005c	e8 00 00 00 00	 call	 ?GetCategoryName@CTrace@ATL@@CAPA_WI@Z ; ATL::CTrace::GetCategoryName
  00061	83 c4 04	 add	 esp, 4
  00064	89 85 f4 f7 ff
	ff		 mov	 DWORD PTR _pwszCategoryName$[ebp], eax

; 159  : 		if (pwszCategoryName != nullptr)

  0006a	83 bd f4 f7 ff
	ff 00		 cmp	 DWORD PTR _pwszCategoryName$[ebp], 0
  00071	74 36		 je	 SHORT $LN4@TraceV

; 160  : 		{
; 161  : 			if ((categoryLength = swprintf_s(wszCategory, TraceBufferSize, L"%ls - ", pwszCategoryName)) == -1)

  00073	8b 85 f4 f7 ff
	ff		 mov	 eax, DWORD PTR _pwszCategoryName$[ebp]
  00079	50		 push	 eax
  0007a	68 00 00 00 00	 push	 OFFSET ??_C@_1O@LFNDFEBP@?$AA?$CF?$AAl?$AAs?$AA?5?$AA?9?$AA?5@
  0007f	68 00 04 00 00	 push	 1024			; 00000400H
  00084	8d 8d fc f7 ff
	ff		 lea	 ecx, DWORD PTR _wszCategory$[ebp]
  0008a	51		 push	 ecx
  0008b	e8 00 00 00 00	 call	 _swprintf_s
  00090	83 c4 10	 add	 esp, 16			; 00000010H
  00093	89 85 f8 f7 ff
	ff		 mov	 DWORD PTR _categoryLength$[ebp], eax
  00099	83 bd f8 f7 ff
	ff ff		 cmp	 DWORD PTR _categoryLength$[ebp], -1
  000a0	75 05		 jne	 SHORT $LN6@TraceV

; 162  : 			{
; 163  : 				return;

  000a2	e9 53 01 00 00	 jmp	 $LN1@TraceV
$LN6@TraceV:

; 164  : 			}
; 165  : 		}
; 166  : 		else

  000a7	eb 31		 jmp	 SHORT $LN5@TraceV
$LN4@TraceV:

; 167  : 		{
; 168  : 			if ((categoryLength = swprintf_s(wszCategory, TraceBufferSize, L"%u - ", dwCategory)) == -1)

  000a9	8b 45 10	 mov	 eax, DWORD PTR _dwCategory$[ebp]
  000ac	50		 push	 eax
  000ad	68 00 00 00 00	 push	 OFFSET ??_C@_1M@PGKOAACE@?$AA?$CF?$AAu?$AA?5?$AA?9?$AA?5@
  000b2	68 00 04 00 00	 push	 1024			; 00000400H
  000b7	8d 8d fc f7 ff
	ff		 lea	 ecx, DWORD PTR _wszCategory$[ebp]
  000bd	51		 push	 ecx
  000be	e8 00 00 00 00	 call	 _swprintf_s
  000c3	83 c4 10	 add	 esp, 16			; 00000010H
  000c6	89 85 f8 f7 ff
	ff		 mov	 DWORD PTR _categoryLength$[ebp], eax
  000cc	83 bd f8 f7 ff
	ff ff		 cmp	 DWORD PTR _categoryLength$[ebp], -1
  000d3	75 05		 jne	 SHORT $LN5@TraceV

; 169  : 			{
; 170  : 				return;

  000d5	e9 20 01 00 00	 jmp	 $LN1@TraceV
$LN5@TraceV:

; 171  : 			}
; 172  : 		}
; 173  : 
; 174  : 		int chCount = (int)wcslen(pwszMessage) + categoryLength + 1;

  000da	8b 45 18	 mov	 eax, DWORD PTR _pwszMessage$[ebp]
  000dd	50		 push	 eax
  000de	ff 15 00 00 00
	00		 call	 DWORD PTR __imp__wcslen
  000e4	83 c4 04	 add	 esp, 4
  000e7	8b 8d f8 f7 ff
	ff		 mov	 ecx, DWORD PTR _categoryLength$[ebp]
  000ed	8d 54 08 01	 lea	 edx, DWORD PTR [eax+ecx+1]
  000f1	89 95 f0 f7 ff
	ff		 mov	 DWORD PTR _chCount$[ebp], edx

; 175  : 		CHeapPtr<wchar_t> wszBuf;

  000f7	8d 8d ec f7 ff
	ff		 lea	 ecx, DWORD PTR _wszBuf$[ebp]
  000fd	e8 00 00 00 00	 call	 ??0?$CHeapPtr@_WVCCRTAllocator@ATL@@@ATL@@QAE@XZ ; ATL::CHeapPtr<wchar_t,ATL::CCRTAllocator>::CHeapPtr<wchar_t,ATL::CCRTAllocator>

; 176  : 		if (!wszBuf.Allocate(chCount))

  00102	8b 85 f0 f7 ff
	ff		 mov	 eax, DWORD PTR _chCount$[ebp]
  00108	50		 push	 eax
  00109	8d 8d ec f7 ff
	ff		 lea	 ecx, DWORD PTR _wszBuf$[ebp]
  0010f	e8 00 00 00 00	 call	 ?Allocate@?$CHeapPtr@_WVCCRTAllocator@ATL@@@ATL@@QAE_NI@Z ; ATL::CHeapPtr<wchar_t,ATL::CCRTAllocator>::Allocate
  00114	0f b6 c8	 movzx	 ecx, al
  00117	85 c9		 test	 ecx, ecx
  00119	75 10		 jne	 SHORT $LN8@TraceV

; 177  : 		{
; 178  : 			return;

  0011b	8d 8d ec f7 ff
	ff		 lea	 ecx, DWORD PTR _wszBuf$[ebp]
  00121	e8 00 00 00 00	 call	 ??1?$CHeapPtr@_WVCCRTAllocator@ATL@@@ATL@@QAE@XZ
  00126	e9 cf 00 00 00	 jmp	 $LN1@TraceV
$LN8@TraceV:

; 179  : 		}
; 180  : 
; 181  : 		wszBuf[0] = '\0';

  0012b	8d 8d ec f7 ff
	ff		 lea	 ecx, DWORD PTR _wszBuf$[ebp]
  00131	e8 00 00 00 00	 call	 ??B?$CHeapPtrBase@_WVCCRTAllocator@ATL@@@ATL@@QBEPA_WXZ ; ATL::CHeapPtrBase<wchar_t,ATL::CCRTAllocator>::operator wchar_t *
  00136	b9 02 00 00 00	 mov	 ecx, 2
  0013b	6b d1 00	 imul	 edx, ecx, 0
  0013e	33 c9		 xor	 ecx, ecx
  00140	66 89 0c 10	 mov	 WORD PTR [eax+edx], cx

; 182  : 
; 183  : 		if (swprintf_s(wszBuf, chCount, L"%ls%ls", wszCategory, pwszMessage) == -1)

  00144	8b 45 18	 mov	 eax, DWORD PTR _pwszMessage$[ebp]
  00147	50		 push	 eax
  00148	8d 8d fc f7 ff
	ff		 lea	 ecx, DWORD PTR _wszCategory$[ebp]
  0014e	51		 push	 ecx
  0014f	68 00 00 00 00	 push	 OFFSET ??_C@_1O@OAIPCDPO@?$AA?$CF?$AAl?$AAs?$AA?$CF?$AAl?$AAs@
  00154	8b 95 f0 f7 ff
	ff		 mov	 edx, DWORD PTR _chCount$[ebp]
  0015a	52		 push	 edx
  0015b	8d 8d ec f7 ff
	ff		 lea	 ecx, DWORD PTR _wszBuf$[ebp]
  00161	e8 00 00 00 00	 call	 ??B?$CHeapPtrBase@_WVCCRTAllocator@ATL@@@ATL@@QBEPA_WXZ ; ATL::CHeapPtrBase<wchar_t,ATL::CCRTAllocator>::operator wchar_t *
  00166	50		 push	 eax
  00167	e8 00 00 00 00	 call	 _swprintf_s
  0016c	83 c4 14	 add	 esp, 20			; 00000014H
  0016f	83 f8 ff	 cmp	 eax, -1
  00172	75 0d		 jne	 SHORT $LN9@TraceV

; 184  : 		{
; 185  : 			return;

  00174	8d 8d ec f7 ff
	ff		 lea	 ecx, DWORD PTR _wszBuf$[ebp]
  0017a	e8 00 00 00 00	 call	 ??1?$CHeapPtr@_WVCCRTAllocator@ATL@@@ATL@@QAE@XZ
  0017f	eb 79		 jmp	 SHORT $LN1@TraceV
$LN9@TraceV:

; 186  : 		}
; 187  : 
; 188  : 		wchar_t fileName[_MAX_PATH] = {'\0'};	

  00181	68 08 02 00 00	 push	 520			; 00000208H
  00186	6a 00		 push	 0
  00188	8d 85 e4 f5 ff
	ff		 lea	 eax, DWORD PTR _fileName$[ebp]
  0018e	50		 push	 eax
  0018f	e8 00 00 00 00	 call	 _memset
  00194	83 c4 0c	 add	 esp, 12			; 0000000cH

; 189  : #if _MSC_VER < 1900
; 190  : 		if (swprintf_s(fileName, _MAX_PATH, L"%S", pszFileName) == -1)
; 191  : #else
; 192  : 		if (swprintf_s(fileName, _MAX_PATH, L"%hs", pszFileName) == -1)

  00197	8b 45 08	 mov	 eax, DWORD PTR _pszFileName$[ebp]
  0019a	50		 push	 eax
  0019b	68 00 00 00 00	 push	 OFFSET ??_C@_17LGGGMOOB@?$AA?$CF?$AAh?$AAs@
  001a0	68 04 01 00 00	 push	 260			; 00000104H
  001a5	8d 8d e4 f5 ff
	ff		 lea	 ecx, DWORD PTR _fileName$[ebp]
  001ab	51		 push	 ecx
  001ac	e8 00 00 00 00	 call	 _swprintf_s
  001b1	83 c4 10	 add	 esp, 16			; 00000010H
  001b4	83 f8 ff	 cmp	 eax, -1
  001b7	75 0d		 jne	 SHORT $LN10@TraceV

; 193  : #endif
; 194  : 		{
; 195  : 			return;

  001b9	8d 8d ec f7 ff
	ff		 lea	 ecx, DWORD PTR _wszBuf$[ebp]
  001bf	e8 00 00 00 00	 call	 ??1?$CHeapPtr@_WVCCRTAllocator@ATL@@@ATL@@QAE@XZ
  001c4	eb 34		 jmp	 SHORT $LN1@TraceV
$LN10@TraceV:

; 196  : 		}
; 197  : 
; 198  : 		_CrtDbgReportW(_CRT_WARN, fileName, nLine, nullptr, L"%ls", static_cast<const wchar_t*>(wszBuf));

  001c6	8d 8d ec f7 ff
	ff		 lea	 ecx, DWORD PTR _wszBuf$[ebp]
  001cc	e8 00 00 00 00	 call	 ??B?$CHeapPtrBase@_WVCCRTAllocator@ATL@@@ATL@@QBEPA_WXZ ; ATL::CHeapPtrBase<wchar_t,ATL::CCRTAllocator>::operator wchar_t *
  001d1	50		 push	 eax
  001d2	68 00 00 00 00	 push	 OFFSET ??_C@_17CNPHIMPH@?$AA?$CF?$AAl?$AAs@
  001d7	6a 00		 push	 0
  001d9	8b 45 0c	 mov	 eax, DWORD PTR _nLine$[ebp]
  001dc	50		 push	 eax
  001dd	8d 8d e4 f5 ff
	ff		 lea	 ecx, DWORD PTR _fileName$[ebp]
  001e3	51		 push	 ecx
  001e4	6a 00		 push	 0
  001e6	ff 15 00 00 00
	00		 call	 DWORD PTR __imp___CrtDbgReportW
  001ec	83 c4 18	 add	 esp, 24			; 00000018H

; 199  : 	}

  001ef	8d 8d ec f7 ff
	ff		 lea	 ecx, DWORD PTR _wszBuf$[ebp]
  001f5	e8 00 00 00 00	 call	 ??1?$CHeapPtr@_WVCCRTAllocator@ATL@@@ATL@@QAE@XZ
$LN1@TraceV:
  001fa	5f		 pop	 edi
  001fb	5e		 pop	 esi
  001fc	5b		 pop	 ebx
  001fd	8b 4d fc	 mov	 ecx, DWORD PTR __$ArrayPad$[ebp]
  00200	33 cd		 xor	 ecx, ebp
  00202	e8 00 00 00 00	 call	 @__security_check_cookie@4
  00207	8b e5		 mov	 esp, ebp
  00209	5d		 pop	 ebp
  0020a	c3		 ret	 0
?TraceV@CTrace@ATL@@CAXPBDHIIPB_W@Z ENDP		; ATL::CTrace::TraceV
_TEXT	ENDS
; Function compile flags: /Odtp /ZI
; File c:\program files (x86)\microsoft visual studio\2017\community\vc\tools\msvc\14.16.27023\atlmfc\include\atltrace.h
;	COMDAT ?GetCategoryName@CTrace@ATL@@CAPA_WI@Z
_TEXT	SEGMENT
_i$1 = -4						; size = 4
_nCategory$ = 8						; size = 4
?GetCategoryName@CTrace@ATL@@CAPA_WI@Z PROC		; ATL::CTrace::GetCategoryName, COMDAT

; 132  : 	{

  00000	55		 push	 ebp
  00001	8b ec		 mov	 ebp, esp
  00003	83 ec 44	 sub	 esp, 68			; 00000044H
  00006	53		 push	 ebx
  00007	56		 push	 esi
  00008	57		 push	 edi

; 133  : 		for(unsigned int i = 0; i < m_nLastCategory; i++) 

  00009	c7 45 fc 00 00
	00 00		 mov	 DWORD PTR _i$1[ebp], 0
  00010	eb 09		 jmp	 SHORT $LN4@GetCategor
$LN2@GetCategor:
  00012	8b 45 fc	 mov	 eax, DWORD PTR _i$1[ebp]
  00015	83 c0 01	 add	 eax, 1
  00018	89 45 fc	 mov	 DWORD PTR _i$1[ebp], eax
$LN4@GetCategor:
  0001b	8b 45 fc	 mov	 eax, DWORD PTR _i$1[ebp]
  0001e	3b 05 00 00 00
	00		 cmp	 eax, DWORD PTR ?m_nLastCategory@CTrace@ATL@@1IA ; ATL::CTrace::m_nLastCategory
  00024	73 22		 jae	 SHORT $LN3@GetCategor

; 134  : 		{
; 135  : 			if (m_nMap[i].nCategory == nCategory)

  00026	69 45 fc 04 01
	00 00		 imul	 eax, DWORD PTR _i$1[ebp], 260
  0002d	8b 88 00 00 00
	00		 mov	 ecx, DWORD PTR ?m_nMap@CTrace@ATL@@1PAUCategoryMap@12@A[eax]
  00033	3b 4d 08	 cmp	 ecx, DWORD PTR _nCategory$[ebp]
  00036	75 0e		 jne	 SHORT $LN5@GetCategor

; 136  : 			{
; 137  : 				return m_nMap[i].categryName;

  00038	69 45 fc 04 01
	00 00		 imul	 eax, DWORD PTR _i$1[ebp], 260
  0003f	05 04 00 00 00	 add	 eax, OFFSET ?m_nMap@CTrace@ATL@@1PAUCategoryMap@12@A+4
  00044	eb 04		 jmp	 SHORT $LN1@GetCategor
$LN5@GetCategor:

; 138  : 			}
; 139  : 		}

  00046	eb ca		 jmp	 SHORT $LN2@GetCategor
$LN3@GetCategor:

; 140  : 
; 141  : 		return nullptr;

  00048	33 c0		 xor	 eax, eax
$LN1@GetCategor:

; 142  : 	}

  0004a	5f		 pop	 edi
  0004b	5e		 pop	 esi
  0004c	5b		 pop	 ebx
  0004d	8b e5		 mov	 esp, ebp
  0004f	5d		 pop	 ebp
  00050	c3		 ret	 0
?GetCategoryName@CTrace@ATL@@CAPA_WI@Z ENDP		; ATL::CTrace::GetCategoryName
_TEXT	ENDS
; Function compile flags: /Odtp /ZI
; File c:\program files (x86)\microsoft visual studio\2017\community\vc\tools\msvc\14.16.27023\atlmfc\include\atltrace.h
;	COMDAT ??__EatlTraceException@ATL@@YAXXZ
text$di	SEGMENT
??__EatlTraceException@ATL@@YAXXZ PROC			; ATL::`dynamic initializer for 'atlTraceException'', COMDAT

; 110  : __declspec(selectany) CTraceCategoryEx<CTraceCategoryEx<>::TraceException> atlTraceException(_T("atlTraceException"));

  00000	55		 push	 ebp
  00001	8b ec		 mov	 ebp, esp
  00003	83 ec 40	 sub	 esp, 64			; 00000040H
  00006	53		 push	 ebx
  00007	56		 push	 esi
  00008	57		 push	 edi
  00009	68 00 00 00 00	 push	 OFFSET ??_C@_0BC@PGMFNIFA@atlTraceException@
  0000e	b9 00 00 00 00	 mov	 ecx, OFFSET ?atlTraceException@ATL@@3V?$CTraceCategoryEx@$0CAAA@$0A@@1@A ; ATL::atlTraceException
  00013	e8 00 00 00 00	 call	 ??0?$CTraceCategoryEx@$0CAAA@$0A@@ATL@@QAE@PBD@Z ; ATL::CTraceCategoryEx<8192,0>::CTraceCategoryEx<8192,0>
  00018	5f		 pop	 edi
  00019	5e		 pop	 esi
  0001a	5b		 pop	 ebx
  0001b	8b e5		 mov	 esp, ebp
  0001d	5d		 pop	 ebp
  0001e	c3		 ret	 0
??__EatlTraceException@ATL@@YAXXZ ENDP			; ATL::`dynamic initializer for 'atlTraceException''
text$di	ENDS
; Function compile flags: /Odtp /ZI
; File c:\program files (x86)\microsoft visual studio\2017\community\vc\tools\msvc\14.16.27023\atlmfc\include\atltrace.h
;	COMDAT ??B?$CTraceCategoryEx@$0CAAA@$0A@@ATL@@QAEIXZ
_TEXT	SEGMENT
_this$ = -4						; size = 4
??B?$CTraceCategoryEx@$0CAAA@$0A@@ATL@@QAEIXZ PROC	; ATL::CTraceCategoryEx<8192,0>::operator unsigned int, COMDAT
; _this$ = ecx

; 79   : 	{

  00000	55		 push	 ebp
  00001	8b ec		 mov	 ebp, esp
  00003	83 ec 44	 sub	 esp, 68			; 00000044H
  00006	53		 push	 ebx
  00007	56		 push	 esi
  00008	57		 push	 edi
  00009	89 4d fc	 mov	 DWORD PTR _this$[ebp], ecx

; 80   : #ifdef _DEBUG
; 81   : 		return traceCategory;

  0000c	b8 00 20 00 00	 mov	 eax, 8192		; 00002000H

; 82   : #else
; 83   : 		return 0;
; 84   : #endif
; 85   : 	}

  00011	5f		 pop	 edi
  00012	5e		 pop	 esi
  00013	5b		 pop	 ebx
  00014	8b e5		 mov	 esp, ebp
  00016	5d		 pop	 ebp
  00017	c3		 ret	 0
??B?$CTraceCategoryEx@$0CAAA@$0A@@ATL@@QAEIXZ ENDP	; ATL::CTraceCategoryEx<8192,0>::operator unsigned int
_TEXT	ENDS
; Function compile flags: /Odtp /ZI
; File c:\program files (x86)\microsoft visual studio\2017\community\vc\tools\msvc\14.16.27023\atlmfc\include\atltrace.h
;	COMDAT ??0?$CTraceCategoryEx@$0CAAA@$0A@@ATL@@QAE@PBD@Z
_TEXT	SEGMENT
_this$ = -4						; size = 4
_pszCategoryName$ = 8					; size = 4
??0?$CTraceCategoryEx@$0CAAA@$0A@@ATL@@QAE@PBD@Z PROC	; ATL::CTraceCategoryEx<8192,0>::CTraceCategoryEx<8192,0>, COMDAT
; _this$ = ecx

; 480  : {

  00000	55		 push	 ebp
  00001	8b ec		 mov	 ebp, esp
  00003	83 ec 44	 sub	 esp, 68			; 00000044H
  00006	53		 push	 ebx
  00007	56		 push	 esi
  00008	57		 push	 edi
  00009	89 4d fc	 mov	 DWORD PTR _this$[ebp], ecx

; 481  : 	CTrace::RegisterCategory(pszCategoryName, traceCategory);

  0000c	68 00 20 00 00	 push	 8192			; 00002000H
  00011	8b 45 08	 mov	 eax, DWORD PTR _pszCategoryName$[ebp]
  00014	50		 push	 eax
  00015	e8 00 00 00 00	 call	 ?RegisterCategory@CTrace@ATL@@SAXPBDI@Z ; ATL::CTrace::RegisterCategory
  0001a	83 c4 08	 add	 esp, 8

; 482  : }

  0001d	8b 45 fc	 mov	 eax, DWORD PTR _this$[ebp]
  00020	5f		 pop	 edi
  00021	5e		 pop	 esi
  00022	5b		 pop	 ebx
  00023	8b e5		 mov	 esp, ebp
  00025	5d		 pop	 ebp
  00026	c2 04 00	 ret	 4
??0?$CTraceCategoryEx@$0CAAA@$0A@@ATL@@QAE@PBD@Z ENDP	; ATL::CTraceCategoryEx<8192,0>::CTraceCategoryEx<8192,0>
_TEXT	ENDS
; Function compile flags: /Odtp /ZI
; File c:\program files (x86)\microsoft visual studio\2017\community\vc\tools\msvc\14.16.27023\atlmfc\include\atlconv.h
;	COMDAT ?_AtlGetConversionACP@ATL@@YGIXZ
_TEXT	SEGMENT
?_AtlGetConversionACP@ATL@@YGIXZ PROC			; ATL::_AtlGetConversionACP, COMDAT

; 98   : {

  00000	55		 push	 ebp
  00001	8b ec		 mov	 ebp, esp
  00003	83 ec 40	 sub	 esp, 64			; 00000040H
  00006	53		 push	 ebx
  00007	56		 push	 esi
  00008	57		 push	 edi

; 99   : #ifdef _CONVERSION_DONT_USE_THREAD_LOCALE
; 100  : 	return CP_ACP;
; 101  : #else
; 102  : 	return CP_THREAD_ACP;

  00009	b8 03 00 00 00	 mov	 eax, 3

; 103  : #endif
; 104  : }

  0000e	5f		 pop	 edi
  0000f	5e		 pop	 esi
  00010	5b		 pop	 ebx
  00011	8b e5		 mov	 esp, ebp
  00013	5d		 pop	 ebp
  00014	c3		 ret	 0
?_AtlGetConversionACP@ATL@@YGIXZ ENDP			; ATL::_AtlGetConversionACP
_TEXT	ENDS
; Function compile flags: /Odtp /ZI
; File c:\program files (x86)\microsoft visual studio\2017\community\vc\tools\msvc\14.16.27023\atlmfc\include\atlalloc.h
;	COMDAT ?Free@CCRTAllocator@ATL@@SAXPAX@Z
_TEXT	SEGMENT
_p$ = 8							; size = 4
?Free@CCRTAllocator@ATL@@SAXPAX@Z PROC			; ATL::CCRTAllocator::Free, COMDAT

; 266  : 	{

  00000	55		 push	 ebp
  00001	8b ec		 mov	 ebp, esp
  00003	83 ec 40	 sub	 esp, 64			; 00000040H
  00006	53		 push	 ebx
  00007	56		 push	 esi
  00008	57		 push	 edi

; 267  : 		free(p);

  00009	8b 45 08	 mov	 eax, DWORD PTR _p$[ebp]
  0000c	50		 push	 eax
  0000d	ff 15 00 00 00
	00		 call	 DWORD PTR __imp__free
  00013	83 c4 04	 add	 esp, 4

; 268  : 	}

  00016	5f		 pop	 edi
  00017	5e		 pop	 esi
  00018	5b		 pop	 ebx
  00019	8b e5		 mov	 esp, ebp
  0001b	5d		 pop	 ebp
  0001c	c3		 ret	 0
?Free@CCRTAllocator@ATL@@SAXPAX@Z ENDP			; ATL::CCRTAllocator::Free
_TEXT	ENDS
; Function compile flags: /Odtp /ZI
; File c:\program files (x86)\microsoft visual studio\2017\community\vc\tools\msvc\14.16.27023\atlmfc\include\atlalloc.h
;	COMDAT ?Allocate@CCRTAllocator@ATL@@SAPAXI@Z
_TEXT	SEGMENT
_nBytes$ = 8						; size = 4
?Allocate@CCRTAllocator@ATL@@SAPAXI@Z PROC		; ATL::CCRTAllocator::Allocate, COMDAT

; 261  : 	{

  00000	55		 push	 ebp
  00001	8b ec		 mov	 ebp, esp
  00003	83 ec 40	 sub	 esp, 64			; 00000040H
  00006	53		 push	 ebx
  00007	56		 push	 esi
  00008	57		 push	 edi

; 262  : 		return malloc(nBytes);

  00009	8b 45 08	 mov	 eax, DWORD PTR _nBytes$[ebp]
  0000c	50		 push	 eax
  0000d	ff 15 00 00 00
	00		 call	 DWORD PTR __imp__malloc
  00013	83 c4 04	 add	 esp, 4

; 263  : 	}

  00016	5f		 pop	 edi
  00017	5e		 pop	 esi
  00018	5b		 pop	 ebx
  00019	8b e5		 mov	 esp, ebp
  0001b	5d		 pop	 ebp
  0001c	c3		 ret	 0
?Allocate@CCRTAllocator@ATL@@SAPAXI@Z ENDP		; ATL::CCRTAllocator::Allocate
_TEXT	ENDS
; Function compile flags: /Odtp /ZI
; File c:\program files (x86)\microsoft visual studio\2017\community\vc\tools\msvc\14.16.27023\atlmfc\include\atlalloc.h
;	COMDAT ??$AtlMultiply@I@ATL@@YAJPAIII@Z
_TEXT	SEGMENT
_i64Result$ = -8					; size = 8
_piResult$ = 8						; size = 4
_iLeft$ = 12						; size = 4
_iRight$ = 16						; size = 4
??$AtlMultiply@I@ATL@@YAJPAIII@Z PROC			; ATL::AtlMultiply<unsigned int>, COMDAT

; 135  : {

  00000	55		 push	 ebp
  00001	8b ec		 mov	 ebp, esp
  00003	83 ec 48	 sub	 esp, 72			; 00000048H
  00006	53		 push	 ebx
  00007	56		 push	 esi
  00008	57		 push	 edi

; 136  : 	unsigned __int64 i64Result=static_cast<unsigned __int64>(iLeft) * static_cast<unsigned __int64>(iRight);

  00009	8b 45 0c	 mov	 eax, DWORD PTR _iLeft$[ebp]
  0000c	f7 65 10	 mul	 DWORD PTR _iRight$[ebp]
  0000f	89 45 f8	 mov	 DWORD PTR _i64Result$[ebp], eax
  00012	89 55 fc	 mov	 DWORD PTR _i64Result$[ebp+4], edx

; 137  : 	if(i64Result>UINT_MAX)

  00015	83 7d fc 00	 cmp	 DWORD PTR _i64Result$[ebp+4], 0
  00019	77 06		 ja	 SHORT $LN4@AtlMultipl
  0001b	83 7d f8 ff	 cmp	 DWORD PTR _i64Result$[ebp], -1
  0001f	76 0f		 jbe	 SHORT $LN2@AtlMultipl
$LN4@AtlMultipl:

; 138  : 	{
; 139  : 		return HRESULT_FROM_WIN32(ERROR_ARITHMETIC_OVERFLOW);

  00021	68 16 02 00 00	 push	 534			; 00000216H
  00026	e8 00 00 00 00	 call	 _HRESULT_FROM_WIN32
  0002b	83 c4 04	 add	 esp, 4
  0002e	eb 0a		 jmp	 SHORT $LN1@AtlMultipl
$LN2@AtlMultipl:

; 140  : 	}
; 141  : 	*piResult=static_cast<unsigned int>(i64Result);

  00030	8b 45 f8	 mov	 eax, DWORD PTR _i64Result$[ebp]
  00033	8b 4d 08	 mov	 ecx, DWORD PTR _piResult$[ebp]
  00036	89 01		 mov	 DWORD PTR [ecx], eax

; 142  : 	return S_OK;

  00038	33 c0		 xor	 eax, eax
$LN1@AtlMultipl:

; 143  : }

  0003a	5f		 pop	 edi
  0003b	5e		 pop	 esi
  0003c	5b		 pop	 ebx
  0003d	8b e5		 mov	 esp, ebp
  0003f	5d		 pop	 ebp
  00040	c3		 ret	 0
??$AtlMultiply@I@ATL@@YAJPAIII@Z ENDP			; ATL::AtlMultiply<unsigned int>
_TEXT	ENDS
; Function compile flags: /Odtp /ZI
; File c:\program files (x86)\microsoft visual studio\2017\community\vc\tools\msvc\14.16.27023\atlmfc\include\atlexcept.h
;	COMDAT ?AtlThrowLastWin32@ATL@@YGXXZ
_TEXT	SEGMENT
_dwError$ = -4						; size = 4
?AtlThrowLastWin32@ATL@@YGXXZ PROC			; ATL::AtlThrowLastWin32, COMDAT

; 84   : {

  00000	55		 push	 ebp
  00001	8b ec		 mov	 ebp, esp
  00003	83 ec 44	 sub	 esp, 68			; 00000044H
  00006	53		 push	 ebx
  00007	56		 push	 esi
  00008	57		 push	 edi

; 85   : 	DWORD dwError = ::GetLastError();

  00009	ff 15 00 00 00
	00		 call	 DWORD PTR __imp__GetLastError@0
  0000f	89 45 fc	 mov	 DWORD PTR _dwError$[ebp], eax

; 86   : 	AtlThrow( HRESULT_FROM_WIN32( dwError ) );

  00012	8b 45 fc	 mov	 eax, DWORD PTR _dwError$[ebp]
  00015	50		 push	 eax
  00016	e8 00 00 00 00	 call	 _HRESULT_FROM_WIN32
  0001b	83 c4 04	 add	 esp, 4
  0001e	50		 push	 eax
  0001f	e8 00 00 00 00	 call	 ?AtlThrowImpl@ATL@@YGXJ@Z ; ATL::AtlThrowImpl
$LN2@AtlThrowLa:

; 87   : }

  00024	5f		 pop	 edi
  00025	5e		 pop	 esi
  00026	5b		 pop	 ebx
  00027	8b e5		 mov	 esp, ebp
  00029	5d		 pop	 ebp
  0002a	c3		 ret	 0
?AtlThrowLastWin32@ATL@@YGXXZ ENDP			; ATL::AtlThrowLastWin32
_TEXT	ENDS
; Function compile flags: /Odtp /ZI
; File c:\program files (x86)\microsoft visual studio\2017\community\vc\tools\msvc\14.16.27023\atlmfc\include\atlexcept.h
;	COMDAT ?AtlThrowImpl@ATL@@YGXJ@Z
_TEXT	SEGMENT
$T1 = -72						; size = 8
_hr$ = 8						; size = 4
?AtlThrowImpl@ATL@@YGXJ@Z PROC				; ATL::AtlThrowImpl, COMDAT

; 65   : {

  00000	55		 push	 ebp
  00001	8b ec		 mov	 ebp, esp
  00003	83 ec 48	 sub	 esp, 72			; 00000048H
  00006	53		 push	 ebx
  00007	56		 push	 esi
  00008	57		 push	 edi

; 66   : 	ATLTRACE(atlTraceException, 0, _T("AtlThrow: hr = 0x%x\n"), hr );

  00009	8b 45 08	 mov	 eax, DWORD PTR _hr$[ebp]
  0000c	50		 push	 eax
  0000d	68 00 00 00 00	 push	 OFFSET ??_C@_0BF@IAAKIJDJ@AtlThrow?3?5hr?5?$DN?50x?$CFx?6@
  00012	6a 00		 push	 0
  00014	b9 00 00 00 00	 mov	 ecx, OFFSET ?atlTraceException@ATL@@3V?$CTraceCategoryEx@$0CAAA@$0A@@1@A ; ATL::atlTraceException
  00019	e8 00 00 00 00	 call	 ??B?$CTraceCategoryEx@$0CAAA@$0A@@ATL@@QAEIXZ ; ATL::CTraceCategoryEx<8192,0>::operator unsigned int
  0001e	50		 push	 eax
  0001f	8b 0d 00 00 00
	00		 mov	 ecx, DWORD PTR ?__LINE__Var@?0??AtlThrowImpl@ATL@@YGXJ@Z@4JA
  00025	83 c1 01	 add	 ecx, 1
  00028	51		 push	 ecx
  00029	68 00 00 00 00	 push	 OFFSET ??_C@_0HD@OEBHCJKM@c?3?2program?5files?5?$CIx86?$CJ?2microsof@
  0002e	8d 4d b8	 lea	 ecx, DWORD PTR $T1[ebp]
  00031	e8 00 00 00 00	 call	 ??0CTraceFileAndLineInfo@ATL@@QAE@PBDH@Z ; ATL::CTraceFileAndLineInfo::CTraceFileAndLineInfo
  00036	50		 push	 eax
  00037	e8 00 00 00 00	 call	 ??RCTraceFileAndLineInfo@ATL@@QBAXHIPBDZZ ; ATL::CTraceFileAndLineInfo::operator()
  0003c	83 c4 14	 add	 esp, 20			; 00000014H

; 67   : #ifdef _AFX
; 68   : 	if( hr == E_OUTOFMEMORY )

  0003f	81 7d 08 0e 00
	07 80		 cmp	 DWORD PTR _hr$[ebp], -2147024882 ; 8007000eH
  00046	75 07		 jne	 SHORT $LN2@AtlThrowIm

; 69   : 	{
; 70   : 		AfxThrowMemoryException();

  00048	e8 00 00 00 00	 call	 ?AfxThrowMemoryException@@YGXXZ ; AfxThrowMemoryException

; 71   : 	}
; 72   : 	else

  0004d	eb 09		 jmp	 SHORT $LN4@AtlThrowIm
$LN2@AtlThrowIm:

; 73   : 	{
; 74   : 		AfxThrowOleException( hr );

  0004f	8b 45 08	 mov	 eax, DWORD PTR _hr$[ebp]
  00052	50		 push	 eax
  00053	e8 00 00 00 00	 call	 ?AfxThrowOleException@@YGXJ@Z ; AfxThrowOleException
$LN4@AtlThrowIm:

; 75   : 	}
; 76   : #else
; 77   : 	throw CAtlException( hr );
; 78   : #endif
; 79   : };

  00058	5f		 pop	 edi
  00059	5e		 pop	 esi
  0005a	5b		 pop	 ebx
  0005b	8b e5		 mov	 esp, ebp
  0005d	5d		 pop	 ebp
  0005e	c2 04 00	 ret	 4
?AtlThrowImpl@ATL@@YGXJ@Z ENDP				; ATL::AtlThrowImpl
_TEXT	ENDS
; Function compile flags: /Odtp /ZI
; File c:\program files (x86)\microsoft visual studio\2017\community\vc\tools\msvc\14.16.27023\atlmfc\include\afx.h
;	COMDAT ?AfxAssertFailedLine@@YGHPBDH@Z
_TEXT	SEGMENT
_bResult$ = -36						; size = 4
_bQuit$ = -32						; size = 4
_msg$ = -28						; size = 28
_lpszFileName$ = 8					; size = 4
_nLine$ = 12						; size = 4
?AfxAssertFailedLine@@YGHPBDH@Z PROC			; AfxAssertFailedLine, COMDAT

; 312  : {

  00000	55		 push	 ebp
  00001	8b ec		 mov	 ebp, esp
  00003	83 ec 64	 sub	 esp, 100		; 00000064H
  00006	53		 push	 ebx
  00007	56		 push	 esi
  00008	57		 push	 edi

; 313  : 	// we remove WM_QUIT because if it is in the queue then the message box
; 314  : 	// won't display
; 315  : 	MSG msg;
; 316  : 	BOOL bQuit = PeekMessage(&msg, NULL, WM_QUIT, WM_QUIT, PM_REMOVE);

  00009	6a 01		 push	 1
  0000b	6a 12		 push	 18			; 00000012H
  0000d	6a 12		 push	 18			; 00000012H
  0000f	6a 00		 push	 0
  00011	8d 45 e4	 lea	 eax, DWORD PTR _msg$[ebp]
  00014	50		 push	 eax
  00015	ff 15 00 00 00
	00		 call	 DWORD PTR __imp__PeekMessageA@20
  0001b	89 45 e0	 mov	 DWORD PTR _bQuit$[ebp], eax

; 317  : 	BOOL bResult = _CrtDbgReport(_CRT_ASSERT, lpszFileName, nLine, NULL, NULL);

  0001e	6a 00		 push	 0
  00020	6a 00		 push	 0
  00022	8b 45 0c	 mov	 eax, DWORD PTR _nLine$[ebp]
  00025	50		 push	 eax
  00026	8b 4d 08	 mov	 ecx, DWORD PTR _lpszFileName$[ebp]
  00029	51		 push	 ecx
  0002a	6a 02		 push	 2
  0002c	ff 15 00 00 00
	00		 call	 DWORD PTR __imp___CrtDbgReport
  00032	83 c4 14	 add	 esp, 20			; 00000014H
  00035	89 45 dc	 mov	 DWORD PTR _bResult$[ebp], eax

; 318  : 	if (bQuit)

  00038	83 7d e0 00	 cmp	 DWORD PTR _bQuit$[ebp], 0
  0003c	74 0a		 je	 SHORT $LN2@AfxAssertF

; 319  : 		PostQuitMessage((int)msg.wParam);

  0003e	8b 45 ec	 mov	 eax, DWORD PTR _msg$[ebp+8]
  00041	50		 push	 eax
  00042	ff 15 00 00 00
	00		 call	 DWORD PTR __imp__PostQuitMessage@4
$LN2@AfxAssertF:

; 320  : 	return bResult;

  00048	8b 45 dc	 mov	 eax, DWORD PTR _bResult$[ebp]

; 321  : }

  0004b	5f		 pop	 edi
  0004c	5e		 pop	 esi
  0004d	5b		 pop	 ebx
  0004e	8b e5		 mov	 esp, ebp
  00050	5d		 pop	 ebp
  00051	c2 08 00	 ret	 8
?AfxAssertFailedLine@@YGHPBDH@Z ENDP			; AfxAssertFailedLine
_TEXT	ENDS
; Function compile flags: /Odtp /ZI
; File c:\program files (x86)\windows kits\10\include\10.0.17763.0\ucrt\stdio.h
;	COMDAT __snprintf
_TEXT	SEGMENT
__ArgList$ = -8						; size = 4
__Result$ = -4						; size = 4
__Buffer$ = 8						; size = 4
__BufferCount$ = 12					; size = 4
__Format$ = 16						; size = 4
__snprintf PROC						; COMDAT

; 1969 :     {

  00000	55		 push	 ebp
  00001	8b ec		 mov	 ebp, esp
  00003	83 ec 4c	 sub	 esp, 76			; 0000004cH
  00006	53		 push	 ebx
  00007	56		 push	 esi
  00008	57		 push	 edi

; 1970 :         int _Result;
; 1971 :         va_list _ArgList;
; 1972 :         __crt_va_start(_ArgList, _Format);

  00009	8d 45 14	 lea	 eax, DWORD PTR __Format$[ebp+4]
  0000c	89 45 f8	 mov	 DWORD PTR __ArgList$[ebp], eax

; 1973 :     #pragma warning(suppress:28719)    // 28719
; 1974 :         _Result = _vsnprintf(_Buffer, _BufferCount, _Format, _ArgList);

  0000f	8b 45 f8	 mov	 eax, DWORD PTR __ArgList$[ebp]
  00012	50		 push	 eax
  00013	8b 4d 10	 mov	 ecx, DWORD PTR __Format$[ebp]
  00016	51		 push	 ecx
  00017	8b 55 0c	 mov	 edx, DWORD PTR __BufferCount$[ebp]
  0001a	52		 push	 edx
  0001b	8b 45 08	 mov	 eax, DWORD PTR __Buffer$[ebp]
  0001e	50		 push	 eax
  0001f	e8 00 00 00 00	 call	 __vsnprintf
  00024	83 c4 10	 add	 esp, 16			; 00000010H
  00027	89 45 fc	 mov	 DWORD PTR __Result$[ebp], eax

; 1975 :         __crt_va_end(_ArgList);

  0002a	c7 45 f8 00 00
	00 00		 mov	 DWORD PTR __ArgList$[ebp], 0

; 1976 :         return _Result;

  00031	8b 45 fc	 mov	 eax, DWORD PTR __Result$[ebp]

; 1977 :     }

  00034	5f		 pop	 edi
  00035	5e		 pop	 esi
  00036	5b		 pop	 ebx
  00037	8b e5		 mov	 esp, ebp
  00039	5d		 pop	 ebp
  0003a	c3		 ret	 0
__snprintf ENDP
_TEXT	ENDS
; Function compile flags: /Odtp /ZI
; File c:\program files (x86)\windows kits\10\include\10.0.17763.0\ucrt\stdio.h
;	COMDAT __vscprintf
_TEXT	SEGMENT
__Format$ = 8						; size = 4
__ArgList$ = 12						; size = 4
__vscprintf PROC					; COMDAT

; 1675 :     {

  00000	55		 push	 ebp
  00001	8b ec		 mov	 ebp, esp
  00003	83 ec 40	 sub	 esp, 64			; 00000040H
  00006	53		 push	 ebx
  00007	56		 push	 esi
  00008	57		 push	 edi

; 1676 :         return _vscprintf_l(_Format, NULL, _ArgList);

  00009	8b 45 0c	 mov	 eax, DWORD PTR __ArgList$[ebp]
  0000c	50		 push	 eax
  0000d	6a 00		 push	 0
  0000f	8b 4d 08	 mov	 ecx, DWORD PTR __Format$[ebp]
  00012	51		 push	 ecx
  00013	e8 00 00 00 00	 call	 __vscprintf_l
  00018	83 c4 0c	 add	 esp, 12			; 0000000cH

; 1677 :     }

  0001b	5f		 pop	 edi
  0001c	5e		 pop	 esi
  0001d	5b		 pop	 ebx
  0001e	8b e5		 mov	 esp, ebp
  00020	5d		 pop	 ebp
  00021	c3		 ret	 0
__vscprintf ENDP
_TEXT	ENDS
; Function compile flags: /Odtp /ZI
; File c:\program files (x86)\windows kits\10\include\10.0.17763.0\ucrt\stdio.h
;	COMDAT __vscprintf_l
_TEXT	SEGMENT
tv74 = -72						; size = 4
__Result$ = -4						; size = 4
__Format$ = 8						; size = 4
__Locale$ = 12						; size = 4
__ArgList$ = 16						; size = 4
__vscprintf_l PROC					; COMDAT

; 1658 :     {

  00000	55		 push	 ebp
  00001	8b ec		 mov	 ebp, esp
  00003	83 ec 48	 sub	 esp, 72			; 00000048H
  00006	53		 push	 ebx
  00007	56		 push	 esi
  00008	57		 push	 edi

; 1659 :         int const _Result = __stdio_common_vsprintf(

  00009	8b 45 10	 mov	 eax, DWORD PTR __ArgList$[ebp]
  0000c	50		 push	 eax
  0000d	8b 4d 0c	 mov	 ecx, DWORD PTR __Locale$[ebp]
  00010	51		 push	 ecx
  00011	8b 55 08	 mov	 edx, DWORD PTR __Format$[ebp]
  00014	52		 push	 edx
  00015	6a 00		 push	 0
  00017	6a 00		 push	 0
  00019	e8 00 00 00 00	 call	 ___local_stdio_printf_options
  0001e	8b 08		 mov	 ecx, DWORD PTR [eax]
  00020	83 c9 02	 or	 ecx, 2
  00023	8b 50 04	 mov	 edx, DWORD PTR [eax+4]
  00026	52		 push	 edx
  00027	51		 push	 ecx
  00028	ff 15 00 00 00
	00		 call	 DWORD PTR __imp____stdio_common_vsprintf
  0002e	83 c4 1c	 add	 esp, 28			; 0000001cH
  00031	89 45 fc	 mov	 DWORD PTR __Result$[ebp], eax

; 1660 :             _CRT_INTERNAL_LOCAL_PRINTF_OPTIONS | _CRT_INTERNAL_PRINTF_STANDARD_SNPRINTF_BEHAVIOR,
; 1661 :             NULL, 0, _Format, _Locale, _ArgList);
; 1662 : 
; 1663 :         return _Result < 0 ? -1 : _Result;

  00034	83 7d fc 00	 cmp	 DWORD PTR __Result$[ebp], 0
  00038	7d 09		 jge	 SHORT $LN3@vscprintf_
  0003a	c7 45 b8 ff ff
	ff ff		 mov	 DWORD PTR tv74[ebp], -1
  00041	eb 06		 jmp	 SHORT $LN4@vscprintf_
$LN3@vscprintf_:
  00043	8b 45 fc	 mov	 eax, DWORD PTR __Result$[ebp]
  00046	89 45 b8	 mov	 DWORD PTR tv74[ebp], eax
$LN4@vscprintf_:
  00049	8b 45 b8	 mov	 eax, DWORD PTR tv74[ebp]

; 1664 :     }

  0004c	5f		 pop	 edi
  0004d	5e		 pop	 esi
  0004e	5b		 pop	 ebx
  0004f	8b e5		 mov	 esp, ebp
  00051	5d		 pop	 ebp
  00052	c3		 ret	 0
__vscprintf_l ENDP
_TEXT	ENDS
; Function compile flags: /Odtp /ZI
; File c:\program files (x86)\windows kits\10\include\10.0.17763.0\ucrt\stdio.h
;	COMDAT __vsnprintf_s
_TEXT	SEGMENT
__Buffer$ = 8						; size = 4
__BufferCount$ = 12					; size = 4
__MaxCount$ = 16					; size = 4
__Format$ = 20						; size = 4
__ArgList$ = 24						; size = 4
__vsnprintf_s PROC					; COMDAT

; 1605 :     {

  00000	55		 push	 ebp
  00001	8b ec		 mov	 ebp, esp
  00003	83 ec 40	 sub	 esp, 64			; 00000040H
  00006	53		 push	 ebx
  00007	56		 push	 esi
  00008	57		 push	 edi

; 1606 :         return _vsnprintf_s_l(_Buffer, _BufferCount, _MaxCount, _Format, NULL, _ArgList);

  00009	8b 45 18	 mov	 eax, DWORD PTR __ArgList$[ebp]
  0000c	50		 push	 eax
  0000d	6a 00		 push	 0
  0000f	8b 4d 14	 mov	 ecx, DWORD PTR __Format$[ebp]
  00012	51		 push	 ecx
  00013	8b 55 10	 mov	 edx, DWORD PTR __MaxCount$[ebp]
  00016	52		 push	 edx
  00017	8b 45 0c	 mov	 eax, DWORD PTR __BufferCount$[ebp]
  0001a	50		 push	 eax
  0001b	8b 4d 08	 mov	 ecx, DWORD PTR __Buffer$[ebp]
  0001e	51		 push	 ecx
  0001f	e8 00 00 00 00	 call	 __vsnprintf_s_l
  00024	83 c4 18	 add	 esp, 24			; 00000018H

; 1607 :     }

  00027	5f		 pop	 edi
  00028	5e		 pop	 esi
  00029	5b		 pop	 ebx
  0002a	8b e5		 mov	 esp, ebp
  0002c	5d		 pop	 ebp
  0002d	c3		 ret	 0
__vsnprintf_s ENDP
_TEXT	ENDS
; Function compile flags: /Odtp /ZI
; File c:\program files (x86)\windows kits\10\include\10.0.17763.0\ucrt\stdio.h
;	COMDAT __vsnprintf_s_l
_TEXT	SEGMENT
tv74 = -72						; size = 4
__Result$ = -4						; size = 4
__Buffer$ = 8						; size = 4
__BufferCount$ = 12					; size = 4
__MaxCount$ = 16					; size = 4
__Format$ = 20						; size = 4
__Locale$ = 24						; size = 4
__ArgList$ = 28						; size = 4
__vsnprintf_s_l PROC					; COMDAT

; 1584 :     {

  00000	55		 push	 ebp
  00001	8b ec		 mov	 ebp, esp
  00003	83 ec 48	 sub	 esp, 72			; 00000048H
  00006	53		 push	 ebx
  00007	56		 push	 esi
  00008	57		 push	 edi

; 1585 :         int const _Result = __stdio_common_vsnprintf_s(

  00009	8b 45 1c	 mov	 eax, DWORD PTR __ArgList$[ebp]
  0000c	50		 push	 eax
  0000d	8b 4d 18	 mov	 ecx, DWORD PTR __Locale$[ebp]
  00010	51		 push	 ecx
  00011	8b 55 14	 mov	 edx, DWORD PTR __Format$[ebp]
  00014	52		 push	 edx
  00015	8b 45 10	 mov	 eax, DWORD PTR __MaxCount$[ebp]
  00018	50		 push	 eax
  00019	8b 4d 0c	 mov	 ecx, DWORD PTR __BufferCount$[ebp]
  0001c	51		 push	 ecx
  0001d	8b 55 08	 mov	 edx, DWORD PTR __Buffer$[ebp]
  00020	52		 push	 edx
  00021	e8 00 00 00 00	 call	 ___local_stdio_printf_options
  00026	8b 48 04	 mov	 ecx, DWORD PTR [eax+4]
  00029	51		 push	 ecx
  0002a	8b 10		 mov	 edx, DWORD PTR [eax]
  0002c	52		 push	 edx
  0002d	ff 15 00 00 00
	00		 call	 DWORD PTR __imp____stdio_common_vsnprintf_s
  00033	83 c4 20	 add	 esp, 32			; 00000020H
  00036	89 45 fc	 mov	 DWORD PTR __Result$[ebp], eax

; 1586 :             _CRT_INTERNAL_LOCAL_PRINTF_OPTIONS,
; 1587 :             _Buffer, _BufferCount, _MaxCount, _Format, _Locale, _ArgList);
; 1588 : 
; 1589 :         return _Result < 0 ? -1 : _Result;

  00039	83 7d fc 00	 cmp	 DWORD PTR __Result$[ebp], 0
  0003d	7d 09		 jge	 SHORT $LN3@vsnprintf_
  0003f	c7 45 b8 ff ff
	ff ff		 mov	 DWORD PTR tv74[ebp], -1
  00046	eb 06		 jmp	 SHORT $LN4@vsnprintf_
$LN3@vsnprintf_:
  00048	8b 45 fc	 mov	 eax, DWORD PTR __Result$[ebp]
  0004b	89 45 b8	 mov	 DWORD PTR tv74[ebp], eax
$LN4@vsnprintf_:
  0004e	8b 45 b8	 mov	 eax, DWORD PTR tv74[ebp]

; 1590 :     }

  00051	5f		 pop	 edi
  00052	5e		 pop	 esi
  00053	5b		 pop	 ebx
  00054	8b e5		 mov	 esp, ebp
  00056	5d		 pop	 ebp
  00057	c3		 ret	 0
__vsnprintf_s_l ENDP
_TEXT	ENDS
; Function compile flags: /Odtp /ZI
; File c:\program files (x86)\windows kits\10\include\10.0.17763.0\ucrt\stdio.h
;	COMDAT __vsnprintf
_TEXT	SEGMENT
__Buffer$ = 8						; size = 4
__BufferCount$ = 12					; size = 4
__Format$ = 16						; size = 4
__ArgList$ = 20						; size = 4
__vsnprintf PROC					; COMDAT

; 1409 :     {

  00000	55		 push	 ebp
  00001	8b ec		 mov	 ebp, esp
  00003	83 ec 40	 sub	 esp, 64			; 00000040H
  00006	53		 push	 ebx
  00007	56		 push	 esi
  00008	57		 push	 edi

; 1410 :         #pragma warning(push)
; 1411 :         #pragma warning(disable: 4996) // Deprecation
; 1412 :         return _vsnprintf_l(_Buffer, _BufferCount, _Format, NULL, _ArgList);

  00009	8b 45 14	 mov	 eax, DWORD PTR __ArgList$[ebp]
  0000c	50		 push	 eax
  0000d	6a 00		 push	 0
  0000f	8b 4d 10	 mov	 ecx, DWORD PTR __Format$[ebp]
  00012	51		 push	 ecx
  00013	8b 55 0c	 mov	 edx, DWORD PTR __BufferCount$[ebp]
  00016	52		 push	 edx
  00017	8b 45 08	 mov	 eax, DWORD PTR __Buffer$[ebp]
  0001a	50		 push	 eax
  0001b	e8 00 00 00 00	 call	 __vsnprintf_l
  00020	83 c4 14	 add	 esp, 20			; 00000014H

; 1413 :         #pragma warning(pop)
; 1414 :     }

  00023	5f		 pop	 edi
  00024	5e		 pop	 esi
  00025	5b		 pop	 ebx
  00026	8b e5		 mov	 esp, ebp
  00028	5d		 pop	 ebp
  00029	c3		 ret	 0
__vsnprintf ENDP
_TEXT	ENDS
; Function compile flags: /Odtp /ZI
; File c:\program files (x86)\windows kits\10\include\10.0.17763.0\ucrt\stdio.h
;	COMDAT __vsnprintf_l
_TEXT	SEGMENT
tv74 = -72						; size = 4
__Result$ = -4						; size = 4
__Buffer$ = 8						; size = 4
__BufferCount$ = 12					; size = 4
__Format$ = 16						; size = 4
__Locale$ = 20						; size = 4
__ArgList$ = 24						; size = 4
__vsnprintf_l PROC					; COMDAT

; 1389 :     {

  00000	55		 push	 ebp
  00001	8b ec		 mov	 ebp, esp
  00003	83 ec 48	 sub	 esp, 72			; 00000048H
  00006	53		 push	 ebx
  00007	56		 push	 esi
  00008	57		 push	 edi

; 1390 :         int const _Result = __stdio_common_vsprintf(

  00009	8b 45 18	 mov	 eax, DWORD PTR __ArgList$[ebp]
  0000c	50		 push	 eax
  0000d	8b 4d 14	 mov	 ecx, DWORD PTR __Locale$[ebp]
  00010	51		 push	 ecx
  00011	8b 55 10	 mov	 edx, DWORD PTR __Format$[ebp]
  00014	52		 push	 edx
  00015	8b 45 0c	 mov	 eax, DWORD PTR __BufferCount$[ebp]
  00018	50		 push	 eax
  00019	8b 4d 08	 mov	 ecx, DWORD PTR __Buffer$[ebp]
  0001c	51		 push	 ecx
  0001d	e8 00 00 00 00	 call	 ___local_stdio_printf_options
  00022	8b 10		 mov	 edx, DWORD PTR [eax]
  00024	83 ca 01	 or	 edx, 1
  00027	8b 40 04	 mov	 eax, DWORD PTR [eax+4]
  0002a	50		 push	 eax
  0002b	52		 push	 edx
  0002c	ff 15 00 00 00
	00		 call	 DWORD PTR __imp____stdio_common_vsprintf
  00032	83 c4 1c	 add	 esp, 28			; 0000001cH
  00035	89 45 fc	 mov	 DWORD PTR __Result$[ebp], eax

; 1391 :             _CRT_INTERNAL_LOCAL_PRINTF_OPTIONS | _CRT_INTERNAL_PRINTF_LEGACY_VSPRINTF_NULL_TERMINATION,
; 1392 :             _Buffer, _BufferCount, _Format, _Locale, _ArgList);
; 1393 : 
; 1394 :         return _Result < 0 ? -1 : _Result;

  00038	83 7d fc 00	 cmp	 DWORD PTR __Result$[ebp], 0
  0003c	7d 09		 jge	 SHORT $LN3@vsnprintf_
  0003e	c7 45 b8 ff ff
	ff ff		 mov	 DWORD PTR tv74[ebp], -1
  00045	eb 06		 jmp	 SHORT $LN4@vsnprintf_
$LN3@vsnprintf_:
  00047	8b 45 fc	 mov	 eax, DWORD PTR __Result$[ebp]
  0004a	89 45 b8	 mov	 DWORD PTR tv74[ebp], eax
$LN4@vsnprintf_:
  0004d	8b 45 b8	 mov	 eax, DWORD PTR tv74[ebp]

; 1395 :     }

  00050	5f		 pop	 edi
  00051	5e		 pop	 esi
  00052	5b		 pop	 ebx
  00053	8b e5		 mov	 esp, ebp
  00055	5d		 pop	 ebp
  00056	c3		 ret	 0
__vsnprintf_l ENDP
_TEXT	ENDS
; Function compile flags: /Odtp /ZI
; File c:\program files (x86)\windows kits\10\include\10.0.17763.0\ucrt\corecrt_wstdio.h
;	COMDAT _swprintf_s
_TEXT	SEGMENT
__ArgList$ = -8						; size = 4
__Result$ = -4						; size = 4
__Buffer$ = 8						; size = 4
__BufferCount$ = 12					; size = 4
__Format$ = 16						; size = 4
_swprintf_s PROC					; COMDAT

; 1538 :         {

  00000	55		 push	 ebp
  00001	8b ec		 mov	 ebp, esp
  00003	83 ec 4c	 sub	 esp, 76			; 0000004cH
  00006	53		 push	 ebx
  00007	56		 push	 esi
  00008	57		 push	 edi

; 1539 :             int _Result;
; 1540 :             va_list _ArgList;
; 1541 :             __crt_va_start(_ArgList, _Format);

  00009	8d 45 14	 lea	 eax, DWORD PTR __Format$[ebp+4]
  0000c	89 45 f8	 mov	 DWORD PTR __ArgList$[ebp], eax

; 1542 :             _Result = _vswprintf_s_l(_Buffer, _BufferCount, _Format, NULL, _ArgList);

  0000f	8b 45 f8	 mov	 eax, DWORD PTR __ArgList$[ebp]
  00012	50		 push	 eax
  00013	6a 00		 push	 0
  00015	8b 4d 10	 mov	 ecx, DWORD PTR __Format$[ebp]
  00018	51		 push	 ecx
  00019	8b 55 0c	 mov	 edx, DWORD PTR __BufferCount$[ebp]
  0001c	52		 push	 edx
  0001d	8b 45 08	 mov	 eax, DWORD PTR __Buffer$[ebp]
  00020	50		 push	 eax
  00021	e8 00 00 00 00	 call	 __vswprintf_s_l
  00026	83 c4 14	 add	 esp, 20			; 00000014H
  00029	89 45 fc	 mov	 DWORD PTR __Result$[ebp], eax

; 1543 :             __crt_va_end(_ArgList);

  0002c	c7 45 f8 00 00
	00 00		 mov	 DWORD PTR __ArgList$[ebp], 0

; 1544 :             return _Result;

  00033	8b 45 fc	 mov	 eax, DWORD PTR __Result$[ebp]

; 1545 :         }

  00036	5f		 pop	 edi
  00037	5e		 pop	 esi
  00038	5b		 pop	 ebx
  00039	8b e5		 mov	 esp, ebp
  0003b	5d		 pop	 ebp
  0003c	c3		 ret	 0
_swprintf_s ENDP
_TEXT	ENDS
; Function compile flags: /Odtp /ZI
; File c:\program files (x86)\windows kits\10\include\10.0.17763.0\ucrt\corecrt_wstdio.h
;	COMDAT __vswprintf_s_l
_TEXT	SEGMENT
tv73 = -72						; size = 4
__Result$ = -4						; size = 4
__Buffer$ = 8						; size = 4
__BufferCount$ = 12					; size = 4
__Format$ = 16						; size = 4
__Locale$ = 20						; size = 4
__ArgList$ = 24						; size = 4
__vswprintf_s_l PROC					; COMDAT

; 1264 :     {

  00000	55		 push	 ebp
  00001	8b ec		 mov	 ebp, esp
  00003	83 ec 48	 sub	 esp, 72			; 00000048H
  00006	53		 push	 ebx
  00007	56		 push	 esi
  00008	57		 push	 edi

; 1265 :         int const _Result = __stdio_common_vswprintf_s(

  00009	8b 45 18	 mov	 eax, DWORD PTR __ArgList$[ebp]
  0000c	50		 push	 eax
  0000d	8b 4d 14	 mov	 ecx, DWORD PTR __Locale$[ebp]
  00010	51		 push	 ecx
  00011	8b 55 10	 mov	 edx, DWORD PTR __Format$[ebp]
  00014	52		 push	 edx
  00015	8b 45 0c	 mov	 eax, DWORD PTR __BufferCount$[ebp]
  00018	50		 push	 eax
  00019	8b 4d 08	 mov	 ecx, DWORD PTR __Buffer$[ebp]
  0001c	51		 push	 ecx
  0001d	e8 00 00 00 00	 call	 ___local_stdio_printf_options
  00022	8b 50 04	 mov	 edx, DWORD PTR [eax+4]
  00025	52		 push	 edx
  00026	8b 00		 mov	 eax, DWORD PTR [eax]
  00028	50		 push	 eax
  00029	ff 15 00 00 00
	00		 call	 DWORD PTR __imp____stdio_common_vswprintf_s
  0002f	83 c4 1c	 add	 esp, 28			; 0000001cH
  00032	89 45 fc	 mov	 DWORD PTR __Result$[ebp], eax

; 1266 :             _CRT_INTERNAL_LOCAL_PRINTF_OPTIONS,
; 1267 :             _Buffer, _BufferCount, _Format, _Locale, _ArgList);
; 1268 : 
; 1269 :         return _Result < 0 ? -1 : _Result;

  00035	83 7d fc 00	 cmp	 DWORD PTR __Result$[ebp], 0
  00039	7d 09		 jge	 SHORT $LN3@vswprintf_
  0003b	c7 45 b8 ff ff
	ff ff		 mov	 DWORD PTR tv73[ebp], -1
  00042	eb 06		 jmp	 SHORT $LN4@vswprintf_
$LN3@vswprintf_:
  00044	8b 45 fc	 mov	 eax, DWORD PTR __Result$[ebp]
  00047	89 45 b8	 mov	 DWORD PTR tv73[ebp], eax
$LN4@vswprintf_:
  0004a	8b 45 b8	 mov	 eax, DWORD PTR tv73[ebp]

; 1270 :     }

  0004d	5f		 pop	 edi
  0004e	5e		 pop	 esi
  0004f	5b		 pop	 ebx
  00050	8b e5		 mov	 esp, ebp
  00052	5d		 pop	 ebp
  00053	c3		 ret	 0
__vswprintf_s_l ENDP
_TEXT	ENDS
; Function compile flags: /Odtp /ZI
; File c:\program files (x86)\windows kits\10\include\10.0.17763.0\ucrt\corecrt_stdio_config.h
;	COMDAT ___local_stdio_printf_options
_TEXT	SEGMENT
___local_stdio_printf_options PROC			; COMDAT

; 86   :     {

  00000	55		 push	 ebp
  00001	8b ec		 mov	 ebp, esp
  00003	83 ec 40	 sub	 esp, 64			; 00000040H
  00006	53		 push	 ebx
  00007	56		 push	 esi
  00008	57		 push	 edi

; 87   :         static unsigned __int64 _OptionsStorage;
; 88   :         return &_OptionsStorage;

  00009	b8 00 00 00 00	 mov	 eax, OFFSET ?_OptionsStorage@?1??__local_stdio_printf_options@@9@4_KA ; `__local_stdio_printf_options'::`2'::_OptionsStorage

; 89   :     }

  0000e	5f		 pop	 edi
  0000f	5e		 pop	 esi
  00010	5b		 pop	 ebx
  00011	8b e5		 mov	 esp, ebp
  00013	5d		 pop	 ebp
  00014	c3		 ret	 0
___local_stdio_printf_options ENDP
_TEXT	ENDS
; Function compile flags: /Odtp /ZI
; File c:\program files (x86)\windows kits\10\include\10.0.17763.0\shared\winerror.h
;	COMDAT _HRESULT_FROM_WIN32
_TEXT	SEGMENT
tv68 = -68						; size = 4
_x$ = 8							; size = 4
_HRESULT_FROM_WIN32 PROC				; COMDAT

; 28640: FORCEINLINE _Translates_Win32_to_HRESULT_(x) HRESULT HRESULT_FROM_WIN32(unsigned long x) { return (HRESULT)(x) <= 0 ? (HRESULT)(x) : (HRESULT) (((x) & 0x0000FFFF) | (FACILITY_WIN32 << 16) | 0x80000000);}

  00000	55		 push	 ebp
  00001	8b ec		 mov	 ebp, esp
  00003	83 ec 44	 sub	 esp, 68			; 00000044H
  00006	53		 push	 ebx
  00007	56		 push	 esi
  00008	57		 push	 edi
  00009	83 7d 08 00	 cmp	 DWORD PTR _x$[ebp], 0
  0000d	7f 08		 jg	 SHORT $LN3@HRESULT_FR
  0000f	8b 45 08	 mov	 eax, DWORD PTR _x$[ebp]
  00012	89 45 bc	 mov	 DWORD PTR tv68[ebp], eax
  00015	eb 18		 jmp	 SHORT $LN4@HRESULT_FR
$LN3@HRESULT_FR:
  00017	8b 4d 08	 mov	 ecx, DWORD PTR _x$[ebp]
  0001a	81 e1 ff ff 00
	00		 and	 ecx, 65535		; 0000ffffH
  00020	81 c9 00 00 07
	00		 or	 ecx, 458752		; 00070000H
  00026	81 c9 00 00 00
	80		 or	 ecx, -2147483648	; 80000000H
  0002c	89 4d bc	 mov	 DWORD PTR tv68[ebp], ecx
$LN4@HRESULT_FR:
  0002f	8b 45 bc	 mov	 eax, DWORD PTR tv68[ebp]
  00032	5f		 pop	 edi
  00033	5e		 pop	 esi
  00034	5b		 pop	 ebx
  00035	8b e5		 mov	 esp, ebp
  00037	5d		 pop	 ebp
  00038	c3		 ret	 0
_HRESULT_FROM_WIN32 ENDP
_TEXT	ENDS
; Function compile flags: /Odtp /ZI
; File c:\program files (x86)\windows kits\10\include\10.0.17763.0\shared\guiddef.h
;	COMDAT _==
_TEXT	SEGMENT
tv68 = -68						; size = 4
_guidOne$ = 8						; size = 4
_guidOther$ = 12					; size = 4
_==	PROC						; COMDAT

; 193  : {

  00000	55		 push	 ebp
  00001	8b ec		 mov	 ebp, esp
  00003	83 ec 44	 sub	 esp, 68			; 00000044H
  00006	53		 push	 ebx
  00007	56		 push	 esi
  00008	57		 push	 edi

; 194  :     return !!IsEqualGUID(guidOne,guidOther);

  00009	8b 45 0c	 mov	 eax, DWORD PTR _guidOther$[ebp]
  0000c	50		 push	 eax
  0000d	8b 4d 08	 mov	 ecx, DWORD PTR _guidOne$[ebp]
  00010	51		 push	 ecx
  00011	e8 00 00 00 00	 call	 _IsEqualGUID
  00016	83 c4 08	 add	 esp, 8
  00019	85 c0		 test	 eax, eax
  0001b	74 09		 je	 SHORT $LN3@
  0001d	c7 45 bc 01 00
	00 00		 mov	 DWORD PTR tv68[ebp], 1
  00024	eb 07		 jmp	 SHORT $LN4@
$LN3@:
  00026	c7 45 bc 00 00
	00 00		 mov	 DWORD PTR tv68[ebp], 0
$LN4@:
  0002d	8a 45 bc	 mov	 al, BYTE PTR tv68[ebp]

; 195  : }

  00030	5f		 pop	 edi
  00031	5e		 pop	 esi
  00032	5b		 pop	 ebx
  00033	8b e5		 mov	 esp, ebp
  00035	5d		 pop	 ebp
  00036	c3		 ret	 0
_==	ENDP
_TEXT	ENDS
; Function compile flags: /Odtp /ZI
; File c:\program files (x86)\windows kits\10\include\10.0.17763.0\shared\guiddef.h
;	COMDAT _IsEqualGUID
_TEXT	SEGMENT
tv69 = -68						; size = 4
_rguid1$ = 8						; size = 4
_rguid2$ = 12						; size = 4
_IsEqualGUID PROC					; COMDAT

; 160  : {

  00000	55		 push	 ebp
  00001	8b ec		 mov	 ebp, esp
  00003	83 ec 44	 sub	 esp, 68			; 00000044H
  00006	53		 push	 ebx
  00007	56		 push	 esi
  00008	57		 push	 edi

; 161  :     return !memcmp(&rguid1, &rguid2, sizeof(GUID));

  00009	6a 10		 push	 16			; 00000010H
  0000b	8b 45 0c	 mov	 eax, DWORD PTR _rguid2$[ebp]
  0000e	50		 push	 eax
  0000f	8b 4d 08	 mov	 ecx, DWORD PTR _rguid1$[ebp]
  00012	51		 push	 ecx
  00013	e8 00 00 00 00	 call	 _memcmp
  00018	83 c4 0c	 add	 esp, 12			; 0000000cH
  0001b	85 c0		 test	 eax, eax
  0001d	75 09		 jne	 SHORT $LN3@IsEqualGUI
  0001f	c7 45 bc 01 00
	00 00		 mov	 DWORD PTR tv69[ebp], 1
  00026	eb 07		 jmp	 SHORT $LN4@IsEqualGUI
$LN3@IsEqualGUI:
  00028	c7 45 bc 00 00
	00 00		 mov	 DWORD PTR tv69[ebp], 0
$LN4@IsEqualGUI:
  0002f	8b 45 bc	 mov	 eax, DWORD PTR tv69[ebp]

; 162  : }

  00032	5f		 pop	 edi
  00033	5e		 pop	 esi
  00034	5b		 pop	 ebx
  00035	8b e5		 mov	 esp, ebp
  00037	5d		 pop	 ebp
  00038	c3		 ret	 0
_IsEqualGUID ENDP
_TEXT	ENDS
; Function compile flags: /Odtp /ZI
; File g:\网狐\happygamewh\服务端\系统模块\服务器组件\聊天服务器\databaseenginesink.cpp
;	COMDAT ?__empty_global_delete@@YAXPAXI@Z
_TEXT	SEGMENT
___formal$ = 8						; size = 4
___formal$ = 12						; size = 4
?__empty_global_delete@@YAXPAXI@Z PROC			; __empty_global_delete, COMDAT

  00000	55		 push	 ebp
  00001	8b ec		 mov	 ebp, esp
  00003	83 ec 40	 sub	 esp, 64			; 00000040H
  00006	53		 push	 ebx
  00007	56		 push	 esi
  00008	57		 push	 edi
  00009	5f		 pop	 edi
  0000a	5e		 pop	 esi
  0000b	5b		 pop	 ebx
  0000c	8b e5		 mov	 esp, ebp
  0000e	5d		 pop	 ebp
  0000f	c3		 ret	 0
?__empty_global_delete@@YAXPAXI@Z ENDP			; __empty_global_delete
_TEXT	ENDS
; Function compile flags: /Odtp /ZI
; File g:\网狐\happygamewh\服务端\系统模块\服务器组件\聊天服务器\databaseenginesink.cpp
;	COMDAT ?__empty_global_delete@@YAXPAX@Z
_TEXT	SEGMENT
___formal$ = 8						; size = 4
?__empty_global_delete@@YAXPAX@Z PROC			; __empty_global_delete, COMDAT

  00000	55		 push	 ebp
  00001	8b ec		 mov	 ebp, esp
  00003	83 ec 40	 sub	 esp, 64			; 00000040H
  00006	53		 push	 ebx
  00007	56		 push	 esi
  00008	57		 push	 edi
  00009	5f		 pop	 edi
  0000a	5e		 pop	 esi
  0000b	5b		 pop	 ebx
  0000c	8b e5		 mov	 esp, ebp
  0000e	5d		 pop	 ebp
  0000f	c3		 ret	 0
?__empty_global_delete@@YAXPAX@Z ENDP			; __empty_global_delete
_TEXT	ENDS
END
