; Listing generated by Microsoft (R) Optimizing Compiler Version 19.16.27032.1 

	TITLE	G:\网狐\HappyGameWH\服务端\系统模块\服务器组件\聊天服务器\DataBaseEngineSink.cpp
	.686P
	.XMM
	include listing.inc
	.model	flat

INCLUDELIB MSVCRTD
INCLUDELIB OLDNAMES

CONST	SEGMENT
?IID_IUnknownEx@@3U_GUID@@B DD 05feec21eH		; IID_IUnknownEx
	DW	0dbf3H
	DW	046f0H
	DB	09fH
	DB	057H
	DB	0d1H
	DB	0cdH
	DB	071H
	DB	01cH
	DB	046H
	DB	0deH
?IID_IDataBase@@3U_GUID@@B DD 0a2e38a78H		; IID_IDataBase
	DW	01e4fH
	DW	04de4H
	DB	0a5H
	DB	0d1H
	DB	0b9H
	DB	019H
	DB	09bH
	DB	0ceH
	DB	041H
	DB	0aeH
?IID_IDataBaseEngineSink@@3U_GUID@@B DD 0ed26ed6H	; IID_IDataBaseEngineSink
	DW	069d7H
	DW	04f5bH
	DB	0b0H
	DB	0caH
	DB	017H
	DB	0aeH
	DB	0abH
	DB	0baH
	DB	06H
	DB	0dfH
CONST	ENDS
PUBLIC	?__empty_global_delete@@YAXPAX@Z		; __empty_global_delete
PUBLIC	?__empty_global_delete@@YAXPAXI@Z		; __empty_global_delete
PUBLIC	_IsEqualGUID
PUBLIC	_==
PUBLIC	_HRESULT_FROM_WIN32
PUBLIC	___local_stdio_printf_options
PUBLIC	__vswprintf_s_l
PUBLIC	_swprintf_s
PUBLIC	__vsnprintf_l
PUBLIC	__vsnprintf
PUBLIC	__vsnprintf_s_l
PUBLIC	__vsnprintf_s
PUBLIC	__vscprintf_l
PUBLIC	__vscprintf
PUBLIC	__snprintf
PUBLIC	?AfxAssertFailedLine@@YGHPBDH@Z			; AfxAssertFailedLine
PUBLIC	?AtlThrowImpl@ATL@@YGXJ@Z			; ATL::AtlThrowImpl
PUBLIC	?AtlThrowLastWin32@ATL@@YGXXZ			; ATL::AtlThrowLastWin32
PUBLIC	??$AtlMultiply@I@ATL@@YAJPAIII@Z		; ATL::AtlMultiply<unsigned int>
PUBLIC	?Allocate@CCRTAllocator@ATL@@SAPAXI@Z		; ATL::CCRTAllocator::Allocate
PUBLIC	?Free@CCRTAllocator@ATL@@SAXPAX@Z		; ATL::CCRTAllocator::Free
PUBLIC	?_AtlGetConversionACP@ATL@@YGIXZ		; ATL::_AtlGetConversionACP
PUBLIC	??0?$CTraceCategoryEx@$0CAAA@$0A@@ATL@@QAE@PBD@Z ; ATL::CTraceCategoryEx<8192,0>::CTraceCategoryEx<8192,0>
PUBLIC	??B?$CTraceCategoryEx@$0CAAA@$0A@@ATL@@QAEIXZ	; ATL::CTraceCategoryEx<8192,0>::operator unsigned int
PUBLIC	?GetCategoryName@CTrace@ATL@@CAPA_WI@Z		; ATL::CTrace::GetCategoryName
PUBLIC	?TraceV@CTrace@ATL@@CAXPBDHIIPB_W@Z		; ATL::CTrace::TraceV
PUBLIC	?TraceV@CTrace@ATL@@SAXPBDHII0PAD@Z		; ATL::CTrace::TraceV
PUBLIC	?RegisterCategory@CTrace@ATL@@SAXPBDI@Z		; ATL::CTrace::RegisterCategory
PUBLIC	??0?$CHeapPtrBase@_WVCCRTAllocator@ATL@@@ATL@@IAE@XZ ; ATL::CHeapPtrBase<wchar_t,ATL::CCRTAllocator>::CHeapPtrBase<wchar_t,ATL::CCRTAllocator>
PUBLIC	??1?$CHeapPtrBase@_WVCCRTAllocator@ATL@@@ATL@@QAE@XZ ; ATL::CHeapPtrBase<wchar_t,ATL::CCRTAllocator>::~CHeapPtrBase<wchar_t,ATL::CCRTAllocator>
PUBLIC	??B?$CHeapPtrBase@_WVCCRTAllocator@ATL@@@ATL@@QBEPA_WXZ ; ATL::CHeapPtrBase<wchar_t,ATL::CCRTAllocator>::operator wchar_t *
PUBLIC	?AllocateBytes@?$CHeapPtrBase@_WVCCRTAllocator@ATL@@@ATL@@QAE_NI@Z ; ATL::CHeapPtrBase<wchar_t,ATL::CCRTAllocator>::AllocateBytes
PUBLIC	?Free@?$CHeapPtrBase@_WVCCRTAllocator@ATL@@@ATL@@QAEXXZ ; ATL::CHeapPtrBase<wchar_t,ATL::CCRTAllocator>::Free
PUBLIC	??0?$CHeapPtr@_WVCCRTAllocator@ATL@@@ATL@@QAE@XZ ; ATL::CHeapPtr<wchar_t,ATL::CCRTAllocator>::CHeapPtr<wchar_t,ATL::CCRTAllocator>
PUBLIC	?Allocate@?$CHeapPtr@_WVCCRTAllocator@ATL@@@ATL@@QAE_NI@Z ; ATL::CHeapPtr<wchar_t,ATL::CCRTAllocator>::Allocate
PUBLIC	??1?$CHeapPtr@_WVCCRTAllocator@ATL@@@ATL@@QAE@XZ ; ATL::CHeapPtr<wchar_t,ATL::CCRTAllocator>::~CHeapPtr<wchar_t,ATL::CCRTAllocator>
PUBLIC	??0?$CHeapPtrBase@DVCCRTAllocator@ATL@@@ATL@@IAE@XZ ; ATL::CHeapPtrBase<char,ATL::CCRTAllocator>::CHeapPtrBase<char,ATL::CCRTAllocator>
PUBLIC	??1?$CHeapPtrBase@DVCCRTAllocator@ATL@@@ATL@@QAE@XZ ; ATL::CHeapPtrBase<char,ATL::CCRTAllocator>::~CHeapPtrBase<char,ATL::CCRTAllocator>
PUBLIC	??B?$CHeapPtrBase@DVCCRTAllocator@ATL@@@ATL@@QBEPADXZ ; ATL::CHeapPtrBase<char,ATL::CCRTAllocator>::operator char *
PUBLIC	?AllocateBytes@?$CHeapPtrBase@DVCCRTAllocator@ATL@@@ATL@@QAE_NI@Z ; ATL::CHeapPtrBase<char,ATL::CCRTAllocator>::AllocateBytes
PUBLIC	?Free@?$CHeapPtrBase@DVCCRTAllocator@ATL@@@ATL@@QAEXXZ ; ATL::CHeapPtrBase<char,ATL::CCRTAllocator>::Free
PUBLIC	??0?$CHeapPtr@DVCCRTAllocator@ATL@@@ATL@@QAE@XZ	; ATL::CHeapPtr<char,ATL::CCRTAllocator>::CHeapPtr<char,ATL::CCRTAllocator>
PUBLIC	?Allocate@?$CHeapPtr@DVCCRTAllocator@ATL@@@ATL@@QAE_NI@Z ; ATL::CHeapPtr<char,ATL::CCRTAllocator>::Allocate
PUBLIC	??1?$CHeapPtr@DVCCRTAllocator@ATL@@@ATL@@QAE@XZ	; ATL::CHeapPtr<char,ATL::CCRTAllocator>::~CHeapPtr<char,ATL::CCRTAllocator>
PUBLIC	??0CPreserveLastError@ATL@@QAE@XZ		; ATL::CPreserveLastError::CPreserveLastError
PUBLIC	??1CPreserveLastError@ATL@@QAE@XZ		; ATL::CPreserveLastError::~CPreserveLastError
PUBLIC	??0CTraceFileAndLineInfo@ATL@@QAE@PBDH@Z	; ATL::CTraceFileAndLineInfo::CTraceFileAndLineInfo
PUBLIC	??RCTraceFileAndLineInfo@ATL@@QBAXHIPBDZZ	; ATL::CTraceFileAndLineInfo::operator()
PUBLIC	??0CTime@ATL@@QAE@_J@Z				; ATL::CTime::CTime
PUBLIC	??0CTime@ATL@@QAE@HHHHHHH@Z			; ATL::CTime::CTime
PUBLIC	??0CTime@ATL@@QAE@ABU_SYSTEMTIME@@H@Z		; ATL::CTime::CTime
PUBLIC	?GetTime@CTime@ATL@@QBE_JXZ			; ATL::CTime::GetTime
PUBLIC	??0IUnknownEx@@QAE@XZ				; IUnknownEx::IUnknownEx
PUBLIC	?GetProductVer@@YAEK@Z				; GetProductVer
PUBLIC	?GetMainVer@@YAEK@Z				; GetMainVer
PUBLIC	?GetSubVer@@YAEK@Z				; GetSubVer
PUBLIC	?GetBuildVer@@YAEK@Z				; GetBuildVer
PUBLIC	?InterfaceVersionCompare@@YA_NKK@Z		; InterfaceVersionCompare
PUBLIC	??0_variant_t@@QAE@XZ				; _variant_t::_variant_t
PUBLIC	??1_variant_t@@QAE@XZ				; _variant_t::~_variant_t
PUBLIC	??0IDataBaseEngineSink@@QAE@XZ			; IDataBaseEngineSink::IDataBaseEngineSink
PUBLIC	??0?$CTempldateHelper@UIDataBase@@@@QAE@ABU_GUID@@KPBD1@Z ; CTempldateHelper<IDataBase>::CTempldateHelper<IDataBase>
PUBLIC	??1?$CTempldateHelper@UIDataBase@@@@UAE@XZ	; CTempldateHelper<IDataBase>::~CTempldateHelper<IDataBase>
PUBLIC	?CloseInstance@?$CTempldateHelper@UIDataBase@@@@QAE_NXZ ; CTempldateHelper<IDataBase>::CloseInstance
PUBLIC	?CreateInstance@?$CTempldateHelper@UIDataBase@@@@QAE_NXZ ; CTempldateHelper<IDataBase>::CreateInstance
PUBLIC	??C?$CTempldateHelper@UIDataBase@@@@QBEPAUIDataBase@@XZ ; CTempldateHelper<IDataBase>::operator->
PUBLIC	?GetInterface@?$CTempldateHelper@UIDataBase@@@@QBEPAUIDataBase@@XZ ; CTempldateHelper<IDataBase>::GetInterface
PUBLIC	??_G?$CTempldateHelper@UIDataBase@@@@UAEPAXI@Z	; CTempldateHelper<IDataBase>::`scalar deleting destructor'
PUBLIC	??0CDataBaseHelper@@QAE@XZ			; CDataBaseHelper::CDataBaseHelper
PUBLIC	??1CDataBaseHelper@@UAE@XZ			; CDataBaseHelper::~CDataBaseHelper
PUBLIC	??_GCDataBaseHelper@@UAEPAXI@Z			; CDataBaseHelper::`scalar deleting destructor'
PUBLIC	??0CDataBaseEngineSink@@QAE@XZ			; CDataBaseEngineSink::CDataBaseEngineSink
PUBLIC	??1CDataBaseEngineSink@@UAE@XZ			; CDataBaseEngineSink::~CDataBaseEngineSink
PUBLIC	?Release@CDataBaseEngineSink@@UAEXXZ		; CDataBaseEngineSink::Release
PUBLIC	?QueryInterface@CDataBaseEngineSink@@UAEPAXABU_GUID@@K@Z ; CDataBaseEngineSink::QueryInterface
PUBLIC	?OnDataBaseEngineStart@CDataBaseEngineSink@@UAE_NPAUIUnknownEx@@@Z ; CDataBaseEngineSink::OnDataBaseEngineStart
PUBLIC	?OnDataBaseEngineConclude@CDataBaseEngineSink@@UAE_NPAUIUnknownEx@@@Z ; CDataBaseEngineSink::OnDataBaseEngineConclude
PUBLIC	?OnDataBaseEngineTimer@CDataBaseEngineSink@@UAE_NKI@Z ; CDataBaseEngineSink::OnDataBaseEngineTimer
PUBLIC	?OnDataBaseEngineControl@CDataBaseEngineSink@@UAE_NGPAXG@Z ; CDataBaseEngineSink::OnDataBaseEngineControl
PUBLIC	?OnDataBaseEngineRequest@CDataBaseEngineSink@@UAE_NGKPAXG@Z ; CDataBaseEngineSink::OnDataBaseEngineRequest
PUBLIC	?OnRequestLogonUserID@CDataBaseEngineSink@@IAE_NKPAXG@Z ; CDataBaseEngineSink::OnRequestLogonUserID
PUBLIC	?OnRequestModifyFriend@CDataBaseEngineSink@@IAE_NKPAXG@Z ; CDataBaseEngineSink::OnRequestModifyFriend
PUBLIC	?OnRequestAddFriend@CDataBaseEngineSink@@IAE_NKPAXG@Z ; CDataBaseEngineSink::OnRequestAddFriend
PUBLIC	?OnRequestDeleteFriend@CDataBaseEngineSink@@IAE_NKPAXG@Z ; CDataBaseEngineSink::OnRequestDeleteFriend
PUBLIC	?OnRequestModifyGroup@CDataBaseEngineSink@@IAE_NKPAXG@Z ; CDataBaseEngineSink::OnRequestModifyGroup
PUBLIC	?OnRequestModifyRemarks@CDataBaseEngineSink@@IAE_NKPAXG@Z ; CDataBaseEngineSink::OnRequestModifyRemarks
PUBLIC	?OnRequestSearchUser@CDataBaseEngineSink@@IAE_NKPAXG@Z ; CDataBaseEngineSink::OnRequestSearchUser
PUBLIC	?OnRequestSaveOfflineMessage@CDataBaseEngineSink@@IAE_NKPAXG@Z ; CDataBaseEngineSink::OnRequestSaveOfflineMessage
PUBLIC	?OnRequestTrumpet@CDataBaseEngineSink@@IAE_NKPAXG@Z ; CDataBaseEngineSink::OnRequestTrumpet
PUBLIC	?OnRequestUpdatePlaceName@CDataBaseEngineSink@@IAE_NKPAXG@Z ; CDataBaseEngineSink::OnRequestUpdatePlaceName
PUBLIC	?OnRequestLoadSystemMessage@CDataBaseEngineSink@@IAE_NKPAXG@Z ; CDataBaseEngineSink::OnRequestLoadSystemMessage
PUBLIC	?OnLogonDisposeResult@CDataBaseEngineSink@@AAEXKKPBD_NGG@Z ; CDataBaseEngineSink::OnLogonDisposeResult
PUBLIC	?OnUserOperateResult@CDataBaseEngineSink@@AAEXK_NKGPBD@Z ; CDataBaseEngineSink::OnUserOperateResult
PUBLIC	??_GCDataBaseEngineSink@@UAEPAXI@Z		; CDataBaseEngineSink::`scalar deleting destructor'
PUBLIC	??0?$CW2AEX@$0IA@@ATL@@QAE@PB_W@Z		; ATL::CW2AEX<128>::CW2AEX<128>
PUBLIC	??1?$CW2AEX@$0IA@@ATL@@QAE@XZ			; ATL::CW2AEX<128>::~CW2AEX<128>
PUBLIC	??B?$CW2AEX@$0IA@@ATL@@QBEPADXZ			; ATL::CW2AEX<128>::operator char *
PUBLIC	?Init@?$CW2AEX@$0IA@@ATL@@AAEXPB_WI@Z		; ATL::CW2AEX<128>::Init
PUBLIC	??$AtlConvFreeMemory@D@ATL@@YAXPAD0H@Z		; ATL::AtlConvFreeMemory<char>
PUBLIC	??$AtlConvAllocMemory@D@ATL@@YAXPAPADHPADH@Z	; ATL::AtlConvAllocMemory<char>
PUBLIC	??$_snprintf_s@$0IA@@@YAHAAY0IA@DIPBDZZ		; _snprintf_s<128>
PUBLIC	?_OptionsStorage@?1??__local_stdio_printf_options@@9@4_KA ; `__local_stdio_printf_options'::`2'::_OptionsStorage
PUBLIC	??_C@_17CNPHIMPH@?$AA?$CF?$AAl?$AAs@		; `string'
PUBLIC	??_C@_1OE@IAPLKPHI@?$AAc?$AA?3?$AA?2?$AAp?$AAr?$AAo?$AAg?$AAr?$AAa?$AAm?$AA?5?$AAf?$AAi?$AAl?$AAe@ ; `string'
PUBLIC	??_C@_1OC@PNEKCFJL@?$AAc?$AA?3?$AA?2?$AAp?$AAr?$AAo?$AAg?$AAr?$AAa?$AAm?$AA?5?$AAf?$AAi?$AAl?$AAe@ ; `string'
PUBLIC	?atlTraceException@ATL@@3V?$CTraceCategoryEx@$0CAAA@$0A@@1@A ; ATL::atlTraceException
PUBLIC	??_C@_0BC@PGMFNIFA@atlTraceException@		; `string'
PUBLIC	?m_nLevel@CTrace@ATL@@1IA			; ATL::CTrace::m_nLevel
PUBLIC	?m_nCategory@CTrace@ATL@@1IA			; ATL::CTrace::m_nCategory
PUBLIC	?m_nLastCategory@CTrace@ATL@@1IA		; ATL::CTrace::m_nLastCategory
PUBLIC	?m_nMap@CTrace@ATL@@1PAUCategoryMap@12@A	; ATL::CTrace::m_nMap
PUBLIC	??_C@_1O@LFNDFEBP@?$AA?$CF?$AAl?$AAs?$AA?5?$AA?9?$AA?5@ ; `string'
PUBLIC	??_C@_1M@PGKOAACE@?$AA?$CF?$AAu?$AA?5?$AA?9?$AA?5@ ; `string'
PUBLIC	??_C@_1O@OAIPCDPO@?$AA?$CF?$AAl?$AAs?$AA?$CF?$AAl?$AAs@ ; `string'
PUBLIC	??_C@_17LGGGMOOB@?$AA?$CF?$AAh?$AAs@		; `string'
PUBLIC	??_C@_1EO@EBPPKGOM@?$AAf?$AAa?$AAl?$AAs?$AAe?$AA?5?$AA?$CG?$AA?$CG?$AA?5?$AA?$CC?$AAT?$AAo?$AAo?$AA?5?$AAm@ ; `string'
PUBLIC	??_C@_1OE@PDFAMNPL@?$AAc?$AA?3?$AA?2?$AAp?$AAr?$AAo?$AAg?$AAr?$AAa?$AAm?$AA?5?$AAf?$AAi?$AAl?$AAe@ ; `string'
PUBLIC	?__LINE__Var@?0??AtlThrowImpl@ATL@@YGXJ@Z@4JA	; `ATL::AtlThrowImpl'::`1'::__LINE__Var
PUBLIC	??_C@_0HD@OEBHCJKM@c?3?2program?5files?5?$CIx86?$CJ?2microsof@ ; `string'
PUBLIC	??_C@_0BF@IAAKIJDJ@AtlThrow?3?5hr?5?$DN?50x?$CFx?6@ ; `string'
PUBLIC	??_C@_1BM@GBBOFEAE@?$AA_?$AA_?$AAa?$AAt?$AAl?$AA_?$AAc?$AAo?$AAn?$AAd?$AAV?$AAa?$AAl@ ; `string'
PUBLIC	?__LINE__Var@?0???0CTime@ATL@@QAE@HHHHHHH@Z@4JA	; `ATL::CTime::CTime'::`1'::__LINE__Var
PUBLIC	??_C@_1OC@IALJLBM@?$AAc?$AA?3?$AA?2?$AAp?$AAr?$AAo?$AAg?$AAr?$AAa?$AAm?$AA?5?$AAf?$AAi?$AAl?$AAe@ ; `string'
PUBLIC	??_C@_1BK@NHHHCKNA@?$AAm?$AA_?$AAt?$AAi?$AAm?$AAe?$AA?5?$AA?$CB?$AA?$DN?$AA?5?$AA?9?$AA1@ ; `string'
PUBLIC	??_C@_00CNPNBAHC@@				; `string'
PUBLIC	??_7IUnknownEx@@6B@				; IUnknownEx::`vftable'
PUBLIC	??_7IDataBaseEngineSink@@6B@			; IDataBaseEngineSink::`vftable'
PUBLIC	??_7?$CTempldateHelper@UIDataBase@@@@6B@	; CTempldateHelper<IDataBase>::`vftable'
PUBLIC	??_7CDataBaseHelper@@6B@			; CDataBaseHelper::`vftable'
PUBLIC	??_C@_0P@IKJBDFNG@CreateDataBase@		; `string'
PUBLIC	??_C@_0BB@BEMLEOHB@KernelEngine?4dll@		; `string'
PUBLIC	??_C@_1BK@NHECDDNK@?$AAm?$AA_?$AAp?$AAD?$AAa?$AAt?$AAa?$AA?5?$AA?$DN?$AA?$DN?$AA?5?$AA0@ ; `string'
PUBLIC	??_R4CDataBaseHelper@@6B@			; CDataBaseHelper::`RTTI Complete Object Locator'
PUBLIC	??_R0?AVCDataBaseHelper@@@8			; CDataBaseHelper `RTTI Type Descriptor'
PUBLIC	??_R3CDataBaseHelper@@8				; CDataBaseHelper::`RTTI Class Hierarchy Descriptor'
PUBLIC	??_R2CDataBaseHelper@@8				; CDataBaseHelper::`RTTI Base Class Array'
PUBLIC	??_R1A@?0A@EA@CDataBaseHelper@@8		; CDataBaseHelper::`RTTI Base Class Descriptor at (0,-1,0,64)'
PUBLIC	??_R1A@?0A@EA@?$CTempldateHelper@UIDataBase@@@@8 ; CTempldateHelper<IDataBase>::`RTTI Base Class Descriptor at (0,-1,0,64)'
PUBLIC	??_R0?AV?$CTempldateHelper@UIDataBase@@@@@8	; CTempldateHelper<IDataBase> `RTTI Type Descriptor'
PUBLIC	??_R3?$CTempldateHelper@UIDataBase@@@@8		; CTempldateHelper<IDataBase>::`RTTI Class Hierarchy Descriptor'
PUBLIC	??_R2?$CTempldateHelper@UIDataBase@@@@8		; CTempldateHelper<IDataBase>::`RTTI Base Class Array'
PUBLIC	??_R4?$CTempldateHelper@UIDataBase@@@@6B@	; CTempldateHelper<IDataBase>::`RTTI Complete Object Locator'
PUBLIC	??_7CDataBaseEngineSink@@6B@			; CDataBaseEngineSink::`vftable'
PUBLIC	?__LINE__Var@?0??OnDataBaseEngineStart@CDataBaseEngineSink@@UAE_NPAUIUnknownEx@@@Z@4JA ; `CDataBaseEngineSink::OnDataBaseEngineStart'::`1'::__LINE__Var
PUBLIC	??_R0PAUIDataBaseException@@@8			; IDataBaseException * `RTTI Type Descriptor'
PUBLIC	?__LINE__Var@?0??OnDataBaseEngineRequest@CDataBaseEngineSink@@UAE_NGKPAXG@Z@4JA ; `CDataBaseEngineSink::OnDataBaseEngineRequest'::`1'::__LINE__Var
PUBLIC	?__LINE__Var@?0??OnRequestLogonUserID@CDataBaseEngineSink@@IAE_NKPAXG@Z@4JA ; `CDataBaseEngineSink::OnRequestLogonUserID'::`1'::__LINE__Var
PUBLIC	??_C@_0M@PCENNPGA@?$CFd?4?$CFd?4?$CFd?4?$CFd@	; `string'
PUBLIC	??_C@_09KCDEMNBD@?$EAdwUserID@			; `string'
PUBLIC	??_C@_0N@OCODJCJL@?$EAstrPassword@		; `string'
PUBLIC	??_C@_0N@IDHGAHBD@?$EAstrClientIP@		; `string'
PUBLIC	??_C@_0BC@IIOJPJPJ@?$EAstrErrorDescribe@	; `string'
PUBLIC	??_C@_0BM@NOBDEOGG@GSP_GP_EfficacyAccountsChat@	; `string'
PUBLIC	??_C@_0BG@DCPAFIBB@GSP_GP_LoadUserGroups@	; `string'
PUBLIC	??_C@_07IKIDGEIC@GroupID@			; `string'
PUBLIC	??_C@_09DOCDJBIG@GroupName@			; `string'
PUBLIC	??_C@_0BH@LNCMBLMH@GSP_GP_LoadUserFriends@	; `string'
PUBLIC	??_C@_06OFHCDFJK@UserID@			; `string'
PUBLIC	??_C@_06KGJDDPAK@GameID@			; `string'
PUBLIC	??_C@_06LPNEIKNP@FaceID@			; `string'
PUBLIC	??_C@_08GOBKDNAK@CustomID@			; `string'
PUBLIC	??_C@_06HKFFEOFI@Gender@			; `string'
PUBLIC	??_C@_0M@CEFIIFDG@MemberOrder@			; `string'
PUBLIC	??_C@_09HOAKNMLL@GrowLevel@			; `string'
PUBLIC	??_C@_08CELDJAGK@NickName@			; `string'
PUBLIC	??_C@_0L@CPAJNIME@UnderWrite@			; `string'
PUBLIC	??_C@_0N@CLIEFGAF@Compellation@			; `string'
PUBLIC	??_C@_02MOGAAOHP@QQ@				; `string'
PUBLIC	??_C@_05LMBPBNBJ@EMail@				; `string'
PUBLIC	??_C@_09MAIOJANC@SeatPhone@			; `string'
PUBLIC	??_C@_0M@OJIHCJC@MobilePhone@			; `string'
PUBLIC	??_C@_0O@GKEPGAEM@DwellingPlace@		; `string'
PUBLIC	??_C@_0L@FEKLBNBC@PostalCode@			; `string'
PUBLIC	??_C@_0BJ@KGPDMKAJ@GSP_GP_LoadFriendRemarks@	; `string'
PUBLIC	??_C@_08FDHMOIIA@UserNote@			; `string'
PUBLIC	??_C@_0BK@LIJMOBAN@GSP_GP_LoadOfflineMessage@	; `string'
PUBLIC	??_C@_0M@ECIDEJHH@MessageType@			; `string'
PUBLIC	??_C@_08CFDHEOEO@DataSize@			; `string'
PUBLIC	??_C@_0M@FFPBKNKJ@OfflineData@			; `string'
PUBLIC	??_C@_0DH@NMJACNII@?S?I?S?Z?J?$PN?$LO?$NN?$LP?b?$LC?Y?W?w?R?l?$LD?$KD?$KD?$KM?G?k?D?z?I?T?$LK?s?V?X?J@ ; `string'
PUBLIC	?__LINE__Var@?0??OnRequestModifyFriend@CDataBaseEngineSink@@IAE_NKPAXG@Z@4JA ; `CDataBaseEngineSink::OnRequestModifyFriend'::`1'::__LINE__Var
PUBLIC	??_C@_0BA@PEHFKMKN@?$EAdwFriendUserID@		; `string'
PUBLIC	??_C@_0P@FPAAEPDL@?$EAcbOperateKind@		; `string'
PUBLIC	??_C@_0L@BKCLAFLJ@?$EAcbGroupID@		; `string'
PUBLIC	??_C@_0BI@BCODNHPM@GSP_GP_ModifyUserFriend@	; `string'
PUBLIC	?__LINE__Var@?0??OnRequestAddFriend@CDataBaseEngineSink@@IAE_NKPAXG@Z@4JA ; `CDataBaseEngineSink::OnRequestAddFriend'::`1'::__LINE__Var
PUBLIC	??_C@_0O@MGOPHJEC@?$EAdwDestUserID@		; `string'
PUBLIC	??_C@_0P@MOENBMCB@?$EAcbDestGroupID@		; `string'
PUBLIC	??_C@_0BA@JCDGDHKF@?$EAcbLoadUserInfo@		; `string'
PUBLIC	??_C@_0BF@GFGAEEKM@GSP_GP_AddUserFriend@	; `string'
PUBLIC	?__LINE__Var@?0??OnRequestDeleteFriend@CDataBaseEngineSink@@IAE_NKPAXG@Z@4JA ; `CDataBaseEngineSink::OnRequestDeleteFriend'::`1'::__LINE__Var
PUBLIC	??_C@_0BI@LPNDAHEL@GSP_GP_DeleteUserFriend@	; `string'
PUBLIC	?__LINE__Var@?0??OnRequestModifyGroup@CDataBaseEngineSink@@IAE_NKPAXG@Z@4JA ; `CDataBaseEngineSink::OnRequestModifyGroup'::`1'::__LINE__Var
PUBLIC	??_C@_0O@MLJHDGDF@?$EAstrGroupName@		; `string'
PUBLIC	??_C@_0BH@DILBBJMO@GSP_GP_ModifyUserGroup@	; `string'
PUBLIC	?__LINE__Var@?0??OnRequestModifyRemarks@CDataBaseEngineSink@@IAE_NKPAXG@Z@4JA ; `CDataBaseEngineSink::OnRequestModifyRemarks'::`1'::__LINE__Var
PUBLIC	??_C@_0P@KAOHGEPI@?$EAszRemarksInfo@		; `string'
PUBLIC	??_C@_0BJ@JFABKBII@GSP_GP_ModifyUserRemarks@	; `string'
PUBLIC	?__LINE__Var@?0??OnRequestSearchUser@CDataBaseEngineSink@@IAE_NKPAXG@Z@4JA ; `CDataBaseEngineSink::OnRequestSearchUser'::`1'::__LINE__Var
PUBLIC	??_C@_09OBNFMHID@?$EAdwGameID@			; `string'
PUBLIC	??_C@_0BC@FMPJFMGP@GSP_GP_SearchUser@		; `string'
PUBLIC	??_C@_0CL@OKPGMGNM@?$LB?$KH?G?$LI?0?S?I?S?Z?J?$PN?$LO?$NN?$LP?b?$LC?Y?W?w?R?l?$LD?$KD?0?D?z?$LF?D?G?k?G@ ; `string'
PUBLIC	?__LINE__Var@?0??OnRequestUpdatePlaceName@CDataBaseEngineSink@@IAE_NKPAXG@Z@4JA ; `CDataBaseEngineSink::OnRequestUpdatePlaceName'::`1'::__LINE__Var
PUBLIC	??_C@_0N@MDOGFMDG@?$EAszPlaceName@		; `string'
PUBLIC	??_C@_0BH@JIPKFPPO@GSP_GP_UpdatePlaceName@	; `string'
PUBLIC	?__LINE__Var@?0??OnRequestSaveOfflineMessage@CDataBaseEngineSink@@IAE_NKPAXG@Z@4JA ; `CDataBaseEngineSink::OnRequestSaveOfflineMessage'::`1'::__LINE__Var
PUBLIC	??_C@_0O@GONDHLPC@?$EAwMessageType@		; `string'
PUBLIC	??_C@_0L@GKGEGMAC@?$EAwDataSize@		; `string'
PUBLIC	??_C@_0P@CFKJJPGA@?$EAszOfflineData@		; `string'
PUBLIC	??_C@_0BK@GIMHCKOH@GSP_GP_SaveOfflineMessage@	; `string'
PUBLIC	?__LINE__Var@?0??OnRequestTrumpet@CDataBaseEngineSink@@IAE_NKPAXG@Z@4JA ; `CDataBaseEngineSink::OnRequestTrumpet'::`1'::__LINE__Var
PUBLIC	??_C@_0O@BBLJBDHL@?$EAstrClientIP?5@		; `string'
PUBLIC	??_C@_0BC@FHFGCAEO@GSP_GP_UseTrumpet@		; `string'
PUBLIC	??_C@_0L@FIEHJJML@?$EAwServerID@		; `string'
PUBLIC	??_C@_0BJ@GFLIDCFB@GSP_GR_LoadSystemMessage@	; `string'
PUBLIC	??_C@_02OLOABKKD@ID@				; `string'
PUBLIC	??_C@_08MBIPKANE@TimeRate@			; `string'
PUBLIC	??_C@_0O@EOKEIOEE@MessageString@		; `string'
PUBLIC	??_C@_09MHCEAAPI@StartTime@			; `string'
PUBLIC	??_C@_0N@DIGHLIGE@ConcludeTime@			; `string'
PUBLIC	??_C@_0DG@CDIFDKED@g?3?2?M?x?$LK?$PM?2happygamewh?2?$LH?$PO?N?q?$LG?K?2?O?$LF?M?$LD@ ; `string'
PUBLIC	??_C@_0BD@LMOFNGMO@?$KB?$LA?$CFs?$KB?$LB?D?$KD?$LP?i?$LM?S?T?X?J?$KH?$LA?$NM@ ; `string'
PUBLIC	??_C@_0BM@PEGNCJOH@?U?R?$LC?$LL?$LF?$LN?W?i?$LM?$PO?$LE?$LE?$LN?$KI?$LK?$KP?J?$PN?$KB?$LA?$CFs?$KB?$LB?3?$CFd@ ; `string'
PUBLIC	??_C@_0BL@PDAODLKM@?$LF?w?S?C?$LK?$KP?J?$PN?$KB?$LA?$CFs?$KB?$LB?I?z?$LD?I?$LG?T?O?s?J?$KH?$LA?$NM@ ; `string'
PUBLIC	??_R0PAD@8					; char * `RTTI Type Descriptor'
PUBLIC	??_C@_0BJ@JGPFHIJF@?S?I?S?Z?$KB?$LA?$CFs?$KB?$LB?$KD?$KM?W?i?$LM?$PO?$LE?$LE?$LN?$KI?J?$KH?$LA?$NM@ ; `string'
PUBLIC	??_C@_0DB@JBNKENAJ@?W?i?$LM?$PO?$LE?$LE?$LN?$KI?$LK?$KP?J?$PN?$KB?$LA?$CFs?$KB?$LB?$LC?z?I?z?N?$LE?V?$KK?R?l?$LD?$KD?$LE@ ; `string'
PUBLIC	??_R4IUnknownEx@@6B@				; IUnknownEx::`RTTI Complete Object Locator'
PUBLIC	??_R0?AUIUnknownEx@@@8				; IUnknownEx `RTTI Type Descriptor'
PUBLIC	??_R3IUnknownEx@@8				; IUnknownEx::`RTTI Class Hierarchy Descriptor'
PUBLIC	??_R2IUnknownEx@@8				; IUnknownEx::`RTTI Base Class Array'
PUBLIC	??_R1A@?0A@EA@IUnknownEx@@8			; IUnknownEx::`RTTI Base Class Descriptor at (0,-1,0,64)'
PUBLIC	??_R4IDataBaseEngineSink@@6B@			; IDataBaseEngineSink::`RTTI Complete Object Locator'
PUBLIC	??_R0?AUIDataBaseEngineSink@@@8			; IDataBaseEngineSink `RTTI Type Descriptor'
PUBLIC	??_R3IDataBaseEngineSink@@8			; IDataBaseEngineSink::`RTTI Class Hierarchy Descriptor'
PUBLIC	??_R2IDataBaseEngineSink@@8			; IDataBaseEngineSink::`RTTI Base Class Array'
PUBLIC	??_R1A@?0A@EA@IDataBaseEngineSink@@8		; IDataBaseEngineSink::`RTTI Base Class Descriptor at (0,-1,0,64)'
PUBLIC	??_R4CDataBaseEngineSink@@6B@			; CDataBaseEngineSink::`RTTI Complete Object Locator'
PUBLIC	??_R0?AVCDataBaseEngineSink@@@8			; CDataBaseEngineSink `RTTI Type Descriptor'
PUBLIC	??_R3CDataBaseEngineSink@@8			; CDataBaseEngineSink::`RTTI Class Hierarchy Descriptor'
PUBLIC	??_R2CDataBaseEngineSink@@8			; CDataBaseEngineSink::`RTTI Base Class Array'
PUBLIC	??_R1A@?0A@EA@CDataBaseEngineSink@@8		; CDataBaseEngineSink::`RTTI Base Class Descriptor at (0,-1,0,64)'
EXTRN	__purecall:PROC
EXTRN	??3@YAXPAXI@Z:PROC				; operator delete
EXTRN	_memcmp:PROC
EXTRN	_memset:PROC
EXTRN	__imp__wcscpy_s:PROC
EXTRN	__imp__wcslen:PROC
EXTRN	__imp__GetLastError@0:PROC
EXTRN	__imp__SetLastError@4:PROC
EXTRN	__imp__GetProcAddress@8:PROC
EXTRN	__imp__lstrcpynA@12:PROC
EXTRN	__imp__lstrlenA@4:PROC
EXTRN	__imp__PeekMessageA@20:PROC
EXTRN	__imp__PostQuitMessage@4:PROC
EXTRN	__imp__MultiByteToWideChar@24:PROC
EXTRN	__imp__WideCharToMultiByte@32:PROC
EXTRN	__imp____stdio_common_vswprintf_s:PROC
EXTRN	__imp____stdio_common_vsprintf:PROC
EXTRN	__imp____stdio_common_vsnprintf_s:PROC
EXTRN	__imp__calloc:PROC
EXTRN	__imp__free:PROC
EXTRN	__imp__malloc:PROC
EXTRN	__imp___recalloc:PROC
EXTRN	__imp___mktime64:PROC
EXTRN	__imp___CrtDbgReport:PROC
EXTRN	__imp___CrtDbgReportW:PROC
EXTRN	__imp__VariantInit@4:PROC
EXTRN	__imp__VariantClear@4:PROC
EXTRN	?AfxThrowMemoryException@@YGXXZ:PROC		; AfxThrowMemoryException
EXTRN	?AfxThrowOleException@@YGXJ@Z:PROC		; AfxThrowOleException
EXTRN	__imp_??0?$CStringT@DV?$StrTraitMFC_DLL@DV?$ChTraitsCRT@D@ATL@@@@@ATL@@QAE@XZ:PROC
EXTRN	__imp_??1?$CStringT@DV?$StrTraitMFC_DLL@DV?$ChTraitsCRT@D@ATL@@@@@ATL@@QAE@XZ:PROC
EXTRN	?AfxLoadLibrary@@YGPAUHINSTANCE__@@PBD@Z:PROC	; AfxLoadLibrary
EXTRN	?AfxFreeLibrary@@YGHPAUHINSTANCE__@@@Z:PROC	; AfxFreeLibrary
EXTRN	??_E?$CTempldateHelper@UIDataBase@@@@UAEPAXI@Z:PROC ; CTempldateHelper<IDataBase>::`vector deleting destructor'
EXTRN	??_ECDataBaseHelper@@UAEPAXI@Z:PROC		; CDataBaseHelper::`vector deleting destructor'
EXTRN	__imp_??0CDataBaseAide@@QAE@PAUIUnknownEx@@@Z:PROC
EXTRN	__imp_??1CDataBaseAide@@UAE@XZ:PROC
EXTRN	__imp_?SetDataBase@CDataBaseAide@@QAE_NPAUIUnknownEx@@@Z:PROC
EXTRN	__imp_?GetValue_BYTE@CDataBaseAide@@QAEEPBD@Z:PROC
EXTRN	__imp_?GetValue_WORD@CDataBaseAide@@QAEGPBD@Z:PROC
EXTRN	__imp_?GetValue_DWORD@CDataBaseAide@@QAEKPBD@Z:PROC
EXTRN	__imp_?GetValue_SystemTime@CDataBaseAide@@QAEXPBDAAU_SYSTEMTIME@@@Z:PROC
EXTRN	__imp_?GetValue_String@CDataBaseAide@@QAEXPBDPADI@Z:PROC
EXTRN	__imp_?ResetParameter@CDataBaseAide@@QAEXXZ:PROC
EXTRN	__imp_?AddParameter@CDataBaseAide@@QAEXPBDHW4ParameterDirectionEnum@ADOCG@@@Z:PROC
EXTRN	__imp_?AddParameter@CDataBaseAide@@QAEXPBDEW4ParameterDirectionEnum@ADOCG@@@Z:PROC
EXTRN	__imp_?AddParameter@CDataBaseAide@@QAEXPBDGW4ParameterDirectionEnum@ADOCG@@@Z:PROC
EXTRN	__imp_?AddParameter@CDataBaseAide@@QAEXPBDKW4ParameterDirectionEnum@ADOCG@@@Z:PROC
EXTRN	__imp_?AddParameter@CDataBaseAide@@QAEXPBD0W4ParameterDirectionEnum@ADOCG@@@Z:PROC
EXTRN	__imp_?AddParameterOutput@CDataBaseAide@@QAEXPBDPADIW4ParameterDirectionEnum@ADOCG@@@Z:PROC
EXTRN	__imp_?ExecuteProcess@CDataBaseAide@@QAEJPBD_N@Z:PROC
EXTRN	__imp_?TraceString@CTraceService@@SA_NPBDW4enTraceLevel@@@Z:PROC
EXTRN	??_ECDataBaseEngineSink@@UAEPAXI@Z:PROC		; CDataBaseEngineSink::`vector deleting destructor'
EXTRN	@__security_check_cookie@4:PROC
EXTRN	___CxxFrameHandler3:PROC
EXTRN	__chkstk:PROC
EXTRN	_memset:PROC
EXTRN	??_7type_info@@6B@:QWORD			; type_info::`vftable'
EXTRN	___security_cookie:DWORD
;	COMDAT ?_OptionsStorage@?1??__local_stdio_printf_options@@9@4_KA
_BSS	SEGMENT
?_OptionsStorage@?1??__local_stdio_printf_options@@9@4_KA DQ 01H DUP (?) ; `__local_stdio_printf_options'::`2'::_OptionsStorage
_BSS	ENDS
;	COMDAT ?atlTraceException@ATL@@3V?$CTraceCategoryEx@$0CAAA@$0A@@1@A
_BSS	SEGMENT
?atlTraceException@ATL@@3V?$CTraceCategoryEx@$0CAAA@$0A@@1@A DD 01H DUP (?) ; ATL::atlTraceException
_BSS	ENDS
;	COMDAT ?m_nLevel@CTrace@ATL@@1IA
_BSS	SEGMENT
?m_nLevel@CTrace@ATL@@1IA DD 01H DUP (?)		; ATL::CTrace::m_nLevel
_BSS	ENDS
;	COMDAT ?m_nLastCategory@CTrace@ATL@@1IA
_BSS	SEGMENT
?m_nLastCategory@CTrace@ATL@@1IA DD 01H DUP (?)		; ATL::CTrace::m_nLastCategory
_BSS	ENDS
;	COMDAT ?m_nMap@CTrace@ATL@@1PAUCategoryMap@12@A
_BSS	SEGMENT
?m_nMap@CTrace@ATL@@1PAUCategoryMap@12@A DB 02080H DUP (?) ; ATL::CTrace::m_nMap
_BSS	ENDS
;	COMDAT CRT$XCU
CRT$XCU	SEGMENT
?atlTraceException$initializer$@ATL@@3P6AXXZA DD FLAT:??__EatlTraceException@ATL@@YAXXZ ; ATL::atlTraceException$initializer$
CRT$XCU	ENDS
;	COMDAT ??_R1A@?0A@EA@CDataBaseEngineSink@@8
rdata$r	SEGMENT
??_R1A@?0A@EA@CDataBaseEngineSink@@8 DD FLAT:??_R0?AVCDataBaseEngineSink@@@8 ; CDataBaseEngineSink::`RTTI Base Class Descriptor at (0,-1,0,64)'
	DD	02H
	DD	00H
	DD	0ffffffffH
	DD	00H
	DD	040H
	DD	FLAT:??_R3CDataBaseEngineSink@@8
rdata$r	ENDS
;	COMDAT ??_R2CDataBaseEngineSink@@8
rdata$r	SEGMENT
??_R2CDataBaseEngineSink@@8 DD FLAT:??_R1A@?0A@EA@CDataBaseEngineSink@@8 ; CDataBaseEngineSink::`RTTI Base Class Array'
	DD	FLAT:??_R1A@?0A@EA@IDataBaseEngineSink@@8
	DD	FLAT:??_R1A@?0A@EA@IUnknownEx@@8
rdata$r	ENDS
;	COMDAT ??_R3CDataBaseEngineSink@@8
rdata$r	SEGMENT
??_R3CDataBaseEngineSink@@8 DD 00H			; CDataBaseEngineSink::`RTTI Class Hierarchy Descriptor'
	DD	00H
	DD	03H
	DD	FLAT:??_R2CDataBaseEngineSink@@8
rdata$r	ENDS
;	COMDAT ??_R0?AVCDataBaseEngineSink@@@8
data$r	SEGMENT
??_R0?AVCDataBaseEngineSink@@@8 DD FLAT:??_7type_info@@6B@ ; CDataBaseEngineSink `RTTI Type Descriptor'
	DD	00H
	DB	'.?AVCDataBaseEngineSink@@', 00H
data$r	ENDS
;	COMDAT ??_R4CDataBaseEngineSink@@6B@
rdata$r	SEGMENT
??_R4CDataBaseEngineSink@@6B@ DD 00H			; CDataBaseEngineSink::`RTTI Complete Object Locator'
	DD	00H
	DD	00H
	DD	FLAT:??_R0?AVCDataBaseEngineSink@@@8
	DD	FLAT:??_R3CDataBaseEngineSink@@8
rdata$r	ENDS
;	COMDAT ??_R1A@?0A@EA@IDataBaseEngineSink@@8
rdata$r	SEGMENT
??_R1A@?0A@EA@IDataBaseEngineSink@@8 DD FLAT:??_R0?AUIDataBaseEngineSink@@@8 ; IDataBaseEngineSink::`RTTI Base Class Descriptor at (0,-1,0,64)'
	DD	01H
	DD	00H
	DD	0ffffffffH
	DD	00H
	DD	040H
	DD	FLAT:??_R3IDataBaseEngineSink@@8
rdata$r	ENDS
;	COMDAT ??_R2IDataBaseEngineSink@@8
rdata$r	SEGMENT
??_R2IDataBaseEngineSink@@8 DD FLAT:??_R1A@?0A@EA@IDataBaseEngineSink@@8 ; IDataBaseEngineSink::`RTTI Base Class Array'
	DD	FLAT:??_R1A@?0A@EA@IUnknownEx@@8
rdata$r	ENDS
;	COMDAT ??_R3IDataBaseEngineSink@@8
rdata$r	SEGMENT
??_R3IDataBaseEngineSink@@8 DD 00H			; IDataBaseEngineSink::`RTTI Class Hierarchy Descriptor'
	DD	00H
	DD	02H
	DD	FLAT:??_R2IDataBaseEngineSink@@8
rdata$r	ENDS
;	COMDAT ??_R0?AUIDataBaseEngineSink@@@8
data$r	SEGMENT
??_R0?AUIDataBaseEngineSink@@@8 DD FLAT:??_7type_info@@6B@ ; IDataBaseEngineSink `RTTI Type Descriptor'
	DD	00H
	DB	'.?AUIDataBaseEngineSink@@', 00H
data$r	ENDS
;	COMDAT ??_R4IDataBaseEngineSink@@6B@
rdata$r	SEGMENT
??_R4IDataBaseEngineSink@@6B@ DD 00H			; IDataBaseEngineSink::`RTTI Complete Object Locator'
	DD	00H
	DD	00H
	DD	FLAT:??_R0?AUIDataBaseEngineSink@@@8
	DD	FLAT:??_R3IDataBaseEngineSink@@8
rdata$r	ENDS
;	COMDAT ??_R1A@?0A@EA@IUnknownEx@@8
rdata$r	SEGMENT
??_R1A@?0A@EA@IUnknownEx@@8 DD FLAT:??_R0?AUIUnknownEx@@@8 ; IUnknownEx::`RTTI Base Class Descriptor at (0,-1,0,64)'
	DD	00H
	DD	00H
	DD	0ffffffffH
	DD	00H
	DD	040H
	DD	FLAT:??_R3IUnknownEx@@8
rdata$r	ENDS
;	COMDAT ??_R2IUnknownEx@@8
rdata$r	SEGMENT
??_R2IUnknownEx@@8 DD FLAT:??_R1A@?0A@EA@IUnknownEx@@8	; IUnknownEx::`RTTI Base Class Array'
rdata$r	ENDS
;	COMDAT ??_R3IUnknownEx@@8
rdata$r	SEGMENT
??_R3IUnknownEx@@8 DD 00H				; IUnknownEx::`RTTI Class Hierarchy Descriptor'
	DD	00H
	DD	01H
	DD	FLAT:??_R2IUnknownEx@@8
rdata$r	ENDS
;	COMDAT ??_R0?AUIUnknownEx@@@8
data$r	SEGMENT
??_R0?AUIUnknownEx@@@8 DD FLAT:??_7type_info@@6B@	; IUnknownEx `RTTI Type Descriptor'
	DD	00H
	DB	'.?AUIUnknownEx@@', 00H
data$r	ENDS
;	COMDAT ??_R4IUnknownEx@@6B@
rdata$r	SEGMENT
??_R4IUnknownEx@@6B@ DD 00H				; IUnknownEx::`RTTI Complete Object Locator'
	DD	00H
	DD	00H
	DD	FLAT:??_R0?AUIUnknownEx@@@8
	DD	FLAT:??_R3IUnknownEx@@8
rdata$r	ENDS
;	COMDAT ??_C@_0DB@JBNKENAJ@?W?i?$LM?$PO?$LE?$LE?$LN?$KI?$LK?$KP?J?$PN?$KB?$LA?$CFs?$KB?$LB?$LC?z?I?z?N?$LE?V?$KK?R?l?$LD?$KD?$LE@
CONST	SEGMENT
??_C@_0DB@JBNKENAJ@?W?i?$LM?$PO?$LE?$LE?$LN?$KI?$LK?$KP?J?$PN?$KB?$LA?$CFs?$KB?$LB?$LC?z?I?z?N?$LE?V?$KK?R?l?$LD?$KD?$LE@ DB 0d7H
	DB	0e9H, 0bcH, 0feH, 0b4H, 0b4H, 0bdH, 0a8H, 0baH, 0afH, 0caH, 0fdH
	DB	0a1H, 0b0H, '%s', 0a1H, 0b1H, 0b2H, 0faH, 0c9H, 0faH, 0ceH, 0b4H
	DB	0d6H, 0aaH, 0d2H, 0ecH, 0b3H, 0a3H, 0b4H, 0edH, 0ceH, 0f3H, 0a3H
	DB	0acH, 0d7H, 0e9H, 0bcH, 0feH, 0b4H, 0b4H, 0bdH, 0a8H, 0caH, 0a7H
	DB	0b0H, 0dcH, 00H				; `string'
CONST	ENDS
;	COMDAT ??_C@_0BJ@JGPFHIJF@?S?I?S?Z?$KB?$LA?$CFs?$KB?$LB?$KD?$KM?W?i?$LM?$PO?$LE?$LE?$LN?$KI?J?$KH?$LA?$NM@
CONST	SEGMENT
??_C@_0BJ@JGPFHIJF@?S?I?S?Z?$KB?$LA?$CFs?$KB?$LB?$KD?$KM?W?i?$LM?$PO?$LE?$LE?$LN?$KI?J?$KH?$LA?$NM@ DB 0d3H
	DB	0c9H, 0d3H, 0daH, 0a1H, 0b0H, '%s', 0a1H, 0b1H, 0a3H, 0acH, 0d7H
	DB	0e9H, 0bcH, 0feH, 0b4H, 0b4H, 0bdH, 0a8H, 0caH, 0a7H, 0b0H, 0dcH
	DB	00H						; `string'
CONST	ENDS
;	COMDAT ??_R0PAD@8
data$r	SEGMENT
??_R0PAD@8 DD	FLAT:??_7type_info@@6B@			; char * `RTTI Type Descriptor'
	DD	00H
	DB	'.PAD', 00H
data$r	ENDS
;	COMDAT ??_C@_0BL@PDAODLKM@?$LF?w?S?C?$LK?$KP?J?$PN?$KB?$LA?$CFs?$KB?$LB?I?z?$LD?I?$LG?T?O?s?J?$KH?$LA?$NM@
CONST	SEGMENT
??_C@_0BL@PDAODLKM@?$LF?w?S?C?$LK?$KP?J?$PN?$KB?$LA?$CFs?$KB?$LB?I?z?$LD?I?$LG?T?O?s?J?$KH?$LA?$NM@ DB 0b5H
	DB	0f7H, 0d3H, 0c3H, 0baH, 0afH, 0caH, 0fdH, 0a1H, 0b0H, '%s', 0a1H
	DB	0b1H, 0c9H, 0faH, 0b3H, 0c9H, 0b6H, 0d4H, 0cfH, 0f3H, 0caH, 0a7H
	DB	0b0H, 0dcH, 00H				; `string'
CONST	ENDS
;	COMDAT ??_C@_0BM@PEGNCJOH@?U?R?$LC?$LL?$LF?$LN?W?i?$LM?$PO?$LE?$LE?$LN?$KI?$LK?$KP?J?$PN?$KB?$LA?$CFs?$KB?$LB?3?$CFd@
CONST	SEGMENT
??_C@_0BM@PEGNCJOH@?U?R?$LC?$LL?$LF?$LN?W?i?$LM?$PO?$LE?$LE?$LN?$KI?$LK?$KP?J?$PN?$KB?$LA?$CFs?$KB?$LB?3?$CFd@ DB 0d5H
	DB	0d2H, 0b2H, 0bbH, 0b5H, 0bdH, 0d7H, 0e9H, 0bcH, 0feH, 0b4H, 0b4H
	DB	0bdH, 0a8H, 0baH, 0afH, 0caH, 0fdH, 0a1H, 0b0H, '%s', 0a1H, 0b1H
	DB	':%d', 00H					; `string'
CONST	ENDS
;	COMDAT ??_C@_0BD@LMOFNGMO@?$KB?$LA?$CFs?$KB?$LB?D?$KD?$LP?i?$LM?S?T?X?J?$KH?$LA?$NM@
CONST	SEGMENT
??_C@_0BD@LMOFNGMO@?$KB?$LA?$CFs?$KB?$LB?D?$KD?$LP?i?$LM?S?T?X?J?$KH?$LA?$NM@ DB 0a1H
	DB	0b0H, '%s', 0a1H, 0b1H, 0c4H, 0a3H, 0bfH, 0e9H, 0bcH, 0d3H, 0d4H
	DB	0d8H, 0caH, 0a7H, 0b0H, 0dcH, 00H		; `string'
CONST	ENDS
;	COMDAT ??_C@_0DG@CDIFDKED@g?3?2?M?x?$LK?$PM?2happygamewh?2?$LH?$PO?N?q?$LG?K?2?O?$LF?M?$LD@
CONST	SEGMENT
??_C@_0DG@CDIFDKED@g?3?2?M?x?$LK?$PM?2happygamewh?2?$LH?$PO?N?q?$LG?K?2?O?$LF?M?$LD@ DB 'g'
	DB	':\', 0cdH, 0f8H, 0baH, 0fcH, '\happygamewh\', 0b7H, 0feH, 0ceH
	DB	0f1H, 0b6H, 0cbH, '\', 0cfH, 0b5H, 0cdH, 0b3H, 0c4H, 0a3H, 0bfH
	DB	0e9H, '\', 0c8H, 0abH, 0beH, 0d6H, 0b6H, 0a8H, 0d2H, 0e5H, '\m'
	DB	'odule.h', 00H				; `string'
CONST	ENDS
;	COMDAT ??_C@_0N@DIGHLIGE@ConcludeTime@
CONST	SEGMENT
??_C@_0N@DIGHLIGE@ConcludeTime@ DB 'ConcludeTime', 00H	; `string'
CONST	ENDS
;	COMDAT ??_C@_09MHCEAAPI@StartTime@
CONST	SEGMENT
??_C@_09MHCEAAPI@StartTime@ DB 'StartTime', 00H		; `string'
CONST	ENDS
;	COMDAT ??_C@_0O@EOKEIOEE@MessageString@
CONST	SEGMENT
??_C@_0O@EOKEIOEE@MessageString@ DB 'MessageString', 00H ; `string'
CONST	ENDS
;	COMDAT ??_C@_08MBIPKANE@TimeRate@
CONST	SEGMENT
??_C@_08MBIPKANE@TimeRate@ DB 'TimeRate', 00H		; `string'
CONST	ENDS
;	COMDAT ??_C@_02OLOABKKD@ID@
CONST	SEGMENT
??_C@_02OLOABKKD@ID@ DB 'ID', 00H			; `string'
CONST	ENDS
;	COMDAT ??_C@_0BJ@GFLIDCFB@GSP_GR_LoadSystemMessage@
CONST	SEGMENT
??_C@_0BJ@GFLIDCFB@GSP_GR_LoadSystemMessage@ DB 'GSP_GR_LoadSystemMessage'
	DB	00H						; `string'
CONST	ENDS
;	COMDAT ??_C@_0L@FIEHJJML@?$EAwServerID@
CONST	SEGMENT
??_C@_0L@FIEHJJML@?$EAwServerID@ DB '@wServerID', 00H	; `string'
CONST	ENDS
;	COMDAT ??_C@_0BC@FHFGCAEO@GSP_GP_UseTrumpet@
CONST	SEGMENT
??_C@_0BC@FHFGCAEO@GSP_GP_UseTrumpet@ DB 'GSP_GP_UseTrumpet', 00H ; `string'
CONST	ENDS
;	COMDAT ??_C@_0O@BBLJBDHL@?$EAstrClientIP?5@
CONST	SEGMENT
??_C@_0O@BBLJBDHL@?$EAstrClientIP?5@ DB '@strClientIP ', 00H ; `string'
CONST	ENDS
;	COMDAT ?__LINE__Var@?0??OnRequestTrumpet@CDataBaseEngineSink@@IAE_NKPAXG@Z@4JA
_DATA	SEGMENT
?__LINE__Var@?0??OnRequestTrumpet@CDataBaseEngineSink@@IAE_NKPAXG@Z@4JA DD 0392H ; `CDataBaseEngineSink::OnRequestTrumpet'::`1'::__LINE__Var
_DATA	ENDS
;	COMDAT ??_C@_0BK@GIMHCKOH@GSP_GP_SaveOfflineMessage@
CONST	SEGMENT
??_C@_0BK@GIMHCKOH@GSP_GP_SaveOfflineMessage@ DB 'GSP_GP_SaveOfflineMessa'
	DB	'ge', 00H					; `string'
CONST	ENDS
;	COMDAT ??_C@_0P@CFKJJPGA@?$EAszOfflineData@
CONST	SEGMENT
??_C@_0P@CFKJJPGA@?$EAszOfflineData@ DB '@szOfflineData', 00H ; `string'
CONST	ENDS
;	COMDAT ??_C@_0L@GKGEGMAC@?$EAwDataSize@
CONST	SEGMENT
??_C@_0L@GKGEGMAC@?$EAwDataSize@ DB '@wDataSize', 00H	; `string'
CONST	ENDS
;	COMDAT ??_C@_0O@GONDHLPC@?$EAwMessageType@
CONST	SEGMENT
??_C@_0O@GONDHLPC@?$EAwMessageType@ DB '@wMessageType', 00H ; `string'
CONST	ENDS
;	COMDAT ?__LINE__Var@?0??OnRequestSaveOfflineMessage@CDataBaseEngineSink@@IAE_NKPAXG@Z@4JA
_DATA	SEGMENT
?__LINE__Var@?0??OnRequestSaveOfflineMessage@CDataBaseEngineSink@@IAE_NKPAXG@Z@4JA DD 036eH ; `CDataBaseEngineSink::OnRequestSaveOfflineMessage'::`1'::__LINE__Var
_DATA	ENDS
;	COMDAT ??_C@_0BH@JIPKFPPO@GSP_GP_UpdatePlaceName@
CONST	SEGMENT
??_C@_0BH@JIPKFPPO@GSP_GP_UpdatePlaceName@ DB 'GSP_GP_UpdatePlaceName', 00H ; `string'
CONST	ENDS
;	COMDAT ??_C@_0N@MDOGFMDG@?$EAszPlaceName@
CONST	SEGMENT
??_C@_0N@MDOGFMDG@?$EAszPlaceName@ DB '@szPlaceName', 00H ; `string'
CONST	ENDS
;	COMDAT ?__LINE__Var@?0??OnRequestUpdatePlaceName@CDataBaseEngineSink@@IAE_NKPAXG@Z@4JA
_DATA	SEGMENT
?__LINE__Var@?0??OnRequestUpdatePlaceName@CDataBaseEngineSink@@IAE_NKPAXG@Z@4JA DD 034cH ; `CDataBaseEngineSink::OnRequestUpdatePlaceName'::`1'::__LINE__Var
_DATA	ENDS
;	COMDAT ??_C@_0CL@OKPGMGNM@?$LB?$KH?G?$LI?0?S?I?S?Z?J?$PN?$LO?$NN?$LP?b?$LC?Y?W?w?R?l?$LD?$KD?0?D?z?$LF?D?G?k?G@
CONST	SEGMENT
??_C@_0CL@OKPGMGNM@?$LB?$KH?G?$LI?0?S?I?S?Z?J?$PN?$LO?$NN?$LP?b?$LC?Y?W?w?R?l?$LD?$KD?0?D?z?$LF?D?G?k?G@ DB 0b1H
	DB	0a7H, 0c7H, 0b8H, ',', 0d3H, 0c9H, 0d3H, 0daH, 0caH, 0fdH, 0beH
	DB	0ddH, 0bfH, 0e2H, 0b2H, 0d9H, 0d7H, 0f7H, 0d2H, 0ecH, 0b3H, 0a3H
	DB	',', 0c4H, 0faH, 0b5H, 0c4H, 0c7H, 0ebH, 0c7H, 0f3H, 0ceH, 0deH
	DB	0b7H, 0a8H, 0cdH, 0eaH, 0b3H, 0c9H, 0a3H, 0a1H, 00H ; `string'
CONST	ENDS
;	COMDAT ??_C@_0BC@FMPJFMGP@GSP_GP_SearchUser@
CONST	SEGMENT
??_C@_0BC@FMPJFMGP@GSP_GP_SearchUser@ DB 'GSP_GP_SearchUser', 00H ; `string'
CONST	ENDS
;	COMDAT ??_C@_09OBNFMHID@?$EAdwGameID@
CONST	SEGMENT
??_C@_09OBNFMHID@?$EAdwGameID@ DB '@dwGameID', 00H	; `string'
CONST	ENDS
;	COMDAT ?__LINE__Var@?0??OnRequestSearchUser@CDataBaseEngineSink@@IAE_NKPAXG@Z@4JA
_DATA	SEGMENT
?__LINE__Var@?0??OnRequestSearchUser@CDataBaseEngineSink@@IAE_NKPAXG@Z@4JA DD 0312H ; `CDataBaseEngineSink::OnRequestSearchUser'::`1'::__LINE__Var
_DATA	ENDS
;	COMDAT ??_C@_0BJ@JFABKBII@GSP_GP_ModifyUserRemarks@
CONST	SEGMENT
??_C@_0BJ@JFABKBII@GSP_GP_ModifyUserRemarks@ DB 'GSP_GP_ModifyUserRemarks'
	DB	00H						; `string'
CONST	ENDS
;	COMDAT ??_C@_0P@KAOHGEPI@?$EAszRemarksInfo@
CONST	SEGMENT
??_C@_0P@KAOHGEPI@?$EAszRemarksInfo@ DB '@szRemarksInfo', 00H ; `string'
CONST	ENDS
;	COMDAT ?__LINE__Var@?0??OnRequestModifyRemarks@CDataBaseEngineSink@@IAE_NKPAXG@Z@4JA
_DATA	SEGMENT
?__LINE__Var@?0??OnRequestModifyRemarks@CDataBaseEngineSink@@IAE_NKPAXG@Z@4JA DD 02dfH ; `CDataBaseEngineSink::OnRequestModifyRemarks'::`1'::__LINE__Var
_DATA	ENDS
;	COMDAT ??_C@_0BH@DILBBJMO@GSP_GP_ModifyUserGroup@
CONST	SEGMENT
??_C@_0BH@DILBBJMO@GSP_GP_ModifyUserGroup@ DB 'GSP_GP_ModifyUserGroup', 00H ; `string'
CONST	ENDS
;	COMDAT ??_C@_0O@MLJHDGDF@?$EAstrGroupName@
CONST	SEGMENT
??_C@_0O@MLJHDGDF@?$EAstrGroupName@ DB '@strGroupName', 00H ; `string'
CONST	ENDS
;	COMDAT ?__LINE__Var@?0??OnRequestModifyGroup@CDataBaseEngineSink@@IAE_NKPAXG@Z@4JA
_DATA	SEGMENT
?__LINE__Var@?0??OnRequestModifyGroup@CDataBaseEngineSink@@IAE_NKPAXG@Z@4JA DD 0293H ; `CDataBaseEngineSink::OnRequestModifyGroup'::`1'::__LINE__Var
_DATA	ENDS
;	COMDAT ??_C@_0BI@LPNDAHEL@GSP_GP_DeleteUserFriend@
CONST	SEGMENT
??_C@_0BI@LPNDAHEL@GSP_GP_DeleteUserFriend@ DB 'GSP_GP_DeleteUserFriend', 00H ; `string'
CONST	ENDS
;	COMDAT ?__LINE__Var@?0??OnRequestDeleteFriend@CDataBaseEngineSink@@IAE_NKPAXG@Z@4JA
_DATA	SEGMENT
?__LINE__Var@?0??OnRequestDeleteFriend@CDataBaseEngineSink@@IAE_NKPAXG@Z@4JA DD 0261H ; `CDataBaseEngineSink::OnRequestDeleteFriend'::`1'::__LINE__Var
_DATA	ENDS
;	COMDAT ??_C@_0BF@GFGAEEKM@GSP_GP_AddUserFriend@
CONST	SEGMENT
??_C@_0BF@GFGAEEKM@GSP_GP_AddUserFriend@ DB 'GSP_GP_AddUserFriend', 00H ; `string'
CONST	ENDS
;	COMDAT ??_C@_0BA@JCDGDHKF@?$EAcbLoadUserInfo@
CONST	SEGMENT
??_C@_0BA@JCDGDHKF@?$EAcbLoadUserInfo@ DB '@cbLoadUserInfo', 00H ; `string'
CONST	ENDS
;	COMDAT ??_C@_0P@MOENBMCB@?$EAcbDestGroupID@
CONST	SEGMENT
??_C@_0P@MOENBMCB@?$EAcbDestGroupID@ DB '@cbDestGroupID', 00H ; `string'
CONST	ENDS
;	COMDAT ??_C@_0O@MGOPHJEC@?$EAdwDestUserID@
CONST	SEGMENT
??_C@_0O@MGOPHJEC@?$EAdwDestUserID@ DB '@dwDestUserID', 00H ; `string'
CONST	ENDS
;	COMDAT ?__LINE__Var@?0??OnRequestAddFriend@CDataBaseEngineSink@@IAE_NKPAXG@Z@4JA
_DATA	SEGMENT
?__LINE__Var@?0??OnRequestAddFriend@CDataBaseEngineSink@@IAE_NKPAXG@Z@4JA DD 0212H ; `CDataBaseEngineSink::OnRequestAddFriend'::`1'::__LINE__Var
_DATA	ENDS
;	COMDAT ??_C@_0BI@BCODNHPM@GSP_GP_ModifyUserFriend@
CONST	SEGMENT
??_C@_0BI@BCODNHPM@GSP_GP_ModifyUserFriend@ DB 'GSP_GP_ModifyUserFriend', 00H ; `string'
CONST	ENDS
;	COMDAT ??_C@_0L@BKCLAFLJ@?$EAcbGroupID@
CONST	SEGMENT
??_C@_0L@BKCLAFLJ@?$EAcbGroupID@ DB '@cbGroupID', 00H	; `string'
CONST	ENDS
;	COMDAT ??_C@_0P@FPAAEPDL@?$EAcbOperateKind@
CONST	SEGMENT
??_C@_0P@FPAAEPDL@?$EAcbOperateKind@ DB '@cbOperateKind', 00H ; `string'
CONST	ENDS
;	COMDAT ??_C@_0BA@PEHFKMKN@?$EAdwFriendUserID@
CONST	SEGMENT
??_C@_0BA@PEHFKMKN@?$EAdwFriendUserID@ DB '@dwFriendUserID', 00H ; `string'
CONST	ENDS
;	COMDAT ?__LINE__Var@?0??OnRequestModifyFriend@CDataBaseEngineSink@@IAE_NKPAXG@Z@4JA
_DATA	SEGMENT
?__LINE__Var@?0??OnRequestModifyFriend@CDataBaseEngineSink@@IAE_NKPAXG@Z@4JA DD 01d7H ; `CDataBaseEngineSink::OnRequestModifyFriend'::`1'::__LINE__Var
_DATA	ENDS
;	COMDAT ??_C@_0DH@NMJACNII@?S?I?S?Z?J?$PN?$LO?$NN?$LP?b?$LC?Y?W?w?R?l?$LD?$KD?$KD?$KM?G?k?D?z?I?T?$LK?s?V?X?J@
CONST	SEGMENT
??_C@_0DH@NMJACNII@?S?I?S?Z?J?$PN?$LO?$NN?$LP?b?$LC?Y?W?w?R?l?$LD?$KD?$KD?$KM?G?k?D?z?I?T?$LK?s?V?X?J@ DB 0d3H
	DB	0c9H, 0d3H, 0daH, 0caH, 0fdH, 0beH, 0ddH, 0bfH, 0e2H, 0b2H, 0d9H
	DB	0d7H, 0f7H, 0d2H, 0ecH, 0b3H, 0a3H, 0a3H, 0acH, 0c7H, 0ebH, 0c4H
	DB	0faH, 0c9H, 0d4H, 0baH, 0f3H, 0d6H, 0d8H, 0caH, 0d4H, 0bbH, 0f2H
	DB	0d1H, 0a1H, 0d4H, 0f1H, 0c1H, 0edH, 0d2H, 0bbH, 0b7H, 0feH, 0ceH
	DB	0f1H, 0c6H, 0f7H, 0b5H, 0c7H, 0c2H, 0bcH, 0a3H, 0a1H, 00H ; `string'
CONST	ENDS
;	COMDAT ??_C@_0M@FFPBKNKJ@OfflineData@
CONST	SEGMENT
??_C@_0M@FFPBKNKJ@OfflineData@ DB 'OfflineData', 00H	; `string'
CONST	ENDS
;	COMDAT ??_C@_08CFDHEOEO@DataSize@
CONST	SEGMENT
??_C@_08CFDHEOEO@DataSize@ DB 'DataSize', 00H		; `string'
CONST	ENDS
;	COMDAT ??_C@_0M@ECIDEJHH@MessageType@
CONST	SEGMENT
??_C@_0M@ECIDEJHH@MessageType@ DB 'MessageType', 00H	; `string'
CONST	ENDS
;	COMDAT ??_C@_0BK@LIJMOBAN@GSP_GP_LoadOfflineMessage@
CONST	SEGMENT
??_C@_0BK@LIJMOBAN@GSP_GP_LoadOfflineMessage@ DB 'GSP_GP_LoadOfflineMessa'
	DB	'ge', 00H					; `string'
CONST	ENDS
;	COMDAT ??_C@_08FDHMOIIA@UserNote@
CONST	SEGMENT
??_C@_08FDHMOIIA@UserNote@ DB 'UserNote', 00H		; `string'
CONST	ENDS
;	COMDAT ??_C@_0BJ@KGPDMKAJ@GSP_GP_LoadFriendRemarks@
CONST	SEGMENT
??_C@_0BJ@KGPDMKAJ@GSP_GP_LoadFriendRemarks@ DB 'GSP_GP_LoadFriendRemarks'
	DB	00H						; `string'
CONST	ENDS
;	COMDAT ??_C@_0L@FEKLBNBC@PostalCode@
CONST	SEGMENT
??_C@_0L@FEKLBNBC@PostalCode@ DB 'PostalCode', 00H	; `string'
CONST	ENDS
;	COMDAT ??_C@_0O@GKEPGAEM@DwellingPlace@
CONST	SEGMENT
??_C@_0O@GKEPGAEM@DwellingPlace@ DB 'DwellingPlace', 00H ; `string'
CONST	ENDS
;	COMDAT ??_C@_0M@OJIHCJC@MobilePhone@
CONST	SEGMENT
??_C@_0M@OJIHCJC@MobilePhone@ DB 'MobilePhone', 00H	; `string'
CONST	ENDS
;	COMDAT ??_C@_09MAIOJANC@SeatPhone@
CONST	SEGMENT
??_C@_09MAIOJANC@SeatPhone@ DB 'SeatPhone', 00H		; `string'
CONST	ENDS
;	COMDAT ??_C@_05LMBPBNBJ@EMail@
CONST	SEGMENT
??_C@_05LMBPBNBJ@EMail@ DB 'EMail', 00H			; `string'
CONST	ENDS
;	COMDAT ??_C@_02MOGAAOHP@QQ@
CONST	SEGMENT
??_C@_02MOGAAOHP@QQ@ DB 'QQ', 00H			; `string'
CONST	ENDS
;	COMDAT ??_C@_0N@CLIEFGAF@Compellation@
CONST	SEGMENT
??_C@_0N@CLIEFGAF@Compellation@ DB 'Compellation', 00H	; `string'
CONST	ENDS
;	COMDAT ??_C@_0L@CPAJNIME@UnderWrite@
CONST	SEGMENT
??_C@_0L@CPAJNIME@UnderWrite@ DB 'UnderWrite', 00H	; `string'
CONST	ENDS
;	COMDAT ??_C@_08CELDJAGK@NickName@
CONST	SEGMENT
??_C@_08CELDJAGK@NickName@ DB 'NickName', 00H		; `string'
CONST	ENDS
;	COMDAT ??_C@_09HOAKNMLL@GrowLevel@
CONST	SEGMENT
??_C@_09HOAKNMLL@GrowLevel@ DB 'GrowLevel', 00H		; `string'
CONST	ENDS
;	COMDAT ??_C@_0M@CEFIIFDG@MemberOrder@
CONST	SEGMENT
??_C@_0M@CEFIIFDG@MemberOrder@ DB 'MemberOrder', 00H	; `string'
CONST	ENDS
;	COMDAT ??_C@_06HKFFEOFI@Gender@
CONST	SEGMENT
??_C@_06HKFFEOFI@Gender@ DB 'Gender', 00H		; `string'
CONST	ENDS
;	COMDAT ??_C@_08GOBKDNAK@CustomID@
CONST	SEGMENT
??_C@_08GOBKDNAK@CustomID@ DB 'CustomID', 00H		; `string'
CONST	ENDS
;	COMDAT ??_C@_06LPNEIKNP@FaceID@
CONST	SEGMENT
??_C@_06LPNEIKNP@FaceID@ DB 'FaceID', 00H		; `string'
CONST	ENDS
;	COMDAT ??_C@_06KGJDDPAK@GameID@
CONST	SEGMENT
??_C@_06KGJDDPAK@GameID@ DB 'GameID', 00H		; `string'
CONST	ENDS
;	COMDAT ??_C@_06OFHCDFJK@UserID@
CONST	SEGMENT
??_C@_06OFHCDFJK@UserID@ DB 'UserID', 00H		; `string'
CONST	ENDS
;	COMDAT ??_C@_0BH@LNCMBLMH@GSP_GP_LoadUserFriends@
CONST	SEGMENT
??_C@_0BH@LNCMBLMH@GSP_GP_LoadUserFriends@ DB 'GSP_GP_LoadUserFriends', 00H ; `string'
CONST	ENDS
;	COMDAT ??_C@_09DOCDJBIG@GroupName@
CONST	SEGMENT
??_C@_09DOCDJBIG@GroupName@ DB 'GroupName', 00H		; `string'
CONST	ENDS
;	COMDAT ??_C@_07IKIDGEIC@GroupID@
CONST	SEGMENT
??_C@_07IKIDGEIC@GroupID@ DB 'GroupID', 00H		; `string'
CONST	ENDS
;	COMDAT ??_C@_0BG@DCPAFIBB@GSP_GP_LoadUserGroups@
CONST	SEGMENT
??_C@_0BG@DCPAFIBB@GSP_GP_LoadUserGroups@ DB 'GSP_GP_LoadUserGroups', 00H ; `string'
CONST	ENDS
;	COMDAT ??_C@_0BM@NOBDEOGG@GSP_GP_EfficacyAccountsChat@
CONST	SEGMENT
??_C@_0BM@NOBDEOGG@GSP_GP_EfficacyAccountsChat@ DB 'GSP_GP_EfficacyAccoun'
	DB	'tsChat', 00H				; `string'
CONST	ENDS
;	COMDAT ??_C@_0BC@IIOJPJPJ@?$EAstrErrorDescribe@
CONST	SEGMENT
??_C@_0BC@IIOJPJPJ@?$EAstrErrorDescribe@ DB '@strErrorDescribe', 00H ; `string'
CONST	ENDS
;	COMDAT ??_C@_0N@IDHGAHBD@?$EAstrClientIP@
CONST	SEGMENT
??_C@_0N@IDHGAHBD@?$EAstrClientIP@ DB '@strClientIP', 00H ; `string'
CONST	ENDS
;	COMDAT ??_C@_0N@OCODJCJL@?$EAstrPassword@
CONST	SEGMENT
??_C@_0N@OCODJCJL@?$EAstrPassword@ DB '@strPassword', 00H ; `string'
CONST	ENDS
;	COMDAT ??_C@_09KCDEMNBD@?$EAdwUserID@
CONST	SEGMENT
??_C@_09KCDEMNBD@?$EAdwUserID@ DB '@dwUserID', 00H	; `string'
CONST	ENDS
;	COMDAT ??_C@_0M@PCENNPGA@?$CFd?4?$CFd?4?$CFd?4?$CFd@
CONST	SEGMENT
??_C@_0M@PCENNPGA@?$CFd?4?$CFd?4?$CFd?4?$CFd@ DB '%d.%d.%d.%d', 00H ; `string'
CONST	ENDS
;	COMDAT ?__LINE__Var@?0??OnRequestLogonUserID@CDataBaseEngineSink@@IAE_NKPAXG@Z@4JA
_DATA	SEGMENT
?__LINE__Var@?0??OnRequestLogonUserID@CDataBaseEngineSink@@IAE_NKPAXG@Z@4JA DD 0d8H ; `CDataBaseEngineSink::OnRequestLogonUserID'::`1'::__LINE__Var
_DATA	ENDS
;	COMDAT ?__LINE__Var@?0??OnDataBaseEngineRequest@CDataBaseEngineSink@@UAE_NGKPAXG@Z@4JA
_DATA	SEGMENT
?__LINE__Var@?0??OnDataBaseEngineRequest@CDataBaseEngineSink@@UAE_NGKPAXG@Z@4JA DD 09aH ; `CDataBaseEngineSink::OnDataBaseEngineRequest'::`1'::__LINE__Var
_DATA	ENDS
;	COMDAT ??_R0PAUIDataBaseException@@@8
data$r	SEGMENT
??_R0PAUIDataBaseException@@@8 DD FLAT:??_7type_info@@6B@ ; IDataBaseException * `RTTI Type Descriptor'
	DD	00H
	DB	'.PAUIDataBaseException@@', 00H
data$r	ENDS
;	COMDAT ?__LINE__Var@?0??OnDataBaseEngineStart@CDataBaseEngineSink@@UAE_NPAUIUnknownEx@@@Z@4JA
_DATA	SEGMENT
?__LINE__Var@?0??OnDataBaseEngineStart@CDataBaseEngineSink@@UAE_NPAUIUnknownEx@@@Z@4JA DD 029H ; `CDataBaseEngineSink::OnDataBaseEngineStart'::`1'::__LINE__Var
_DATA	ENDS
_DATA	SEGMENT
?THIS_FILE@@3PADA DB 'g:\', 0cdH, 0f8H, 0baH, 0fcH, '\happygamewh\', 0b7H
	DB	0feH, 0ceH, 0f1H, 0b6H, 0cbH, '\', 0cfH, 0b5H, 0cdH, 0b3H, 0c4H
	DB	0a3H, 0bfH, 0e9H, '\', 0b7H, 0feH, 0ceH, 0f1H, 0c6H, 0f7H, 0d7H
	DB	0e9H, 0bcH, 0feH, '\', 0c1H, 0c4H, 0ccH, 0ecH, 0b7H, 0feH, 0ceH
	DB	0f1H, 0c6H, 0f7H, '\databaseenginesink.cpp', 00H ; THIS_FILE
_DATA	ENDS
;	COMDAT ??_7CDataBaseEngineSink@@6B@
CONST	SEGMENT
??_7CDataBaseEngineSink@@6B@ DD FLAT:??_R4CDataBaseEngineSink@@6B@ ; CDataBaseEngineSink::`vftable'
	DD	FLAT:?Release@CDataBaseEngineSink@@UAEXXZ
	DD	FLAT:?QueryInterface@CDataBaseEngineSink@@UAEPAXABU_GUID@@K@Z
	DD	FLAT:?OnDataBaseEngineStart@CDataBaseEngineSink@@UAE_NPAUIUnknownEx@@@Z
	DD	FLAT:?OnDataBaseEngineConclude@CDataBaseEngineSink@@UAE_NPAUIUnknownEx@@@Z
	DD	FLAT:?OnDataBaseEngineTimer@CDataBaseEngineSink@@UAE_NKI@Z
	DD	FLAT:?OnDataBaseEngineControl@CDataBaseEngineSink@@UAE_NGPAXG@Z
	DD	FLAT:?OnDataBaseEngineRequest@CDataBaseEngineSink@@UAE_NGKPAXG@Z
	DD	FLAT:??_ECDataBaseEngineSink@@UAEPAXI@Z
CONST	ENDS
;	COMDAT ??_R4?$CTempldateHelper@UIDataBase@@@@6B@
rdata$r	SEGMENT
??_R4?$CTempldateHelper@UIDataBase@@@@6B@ DD 00H	; CTempldateHelper<IDataBase>::`RTTI Complete Object Locator'
	DD	00H
	DD	00H
	DD	FLAT:??_R0?AV?$CTempldateHelper@UIDataBase@@@@@8
	DD	FLAT:??_R3?$CTempldateHelper@UIDataBase@@@@8
rdata$r	ENDS
;	COMDAT ??_R2?$CTempldateHelper@UIDataBase@@@@8
rdata$r	SEGMENT
??_R2?$CTempldateHelper@UIDataBase@@@@8 DD FLAT:??_R1A@?0A@EA@?$CTempldateHelper@UIDataBase@@@@8 ; CTempldateHelper<IDataBase>::`RTTI Base Class Array'
rdata$r	ENDS
;	COMDAT ??_R3?$CTempldateHelper@UIDataBase@@@@8
rdata$r	SEGMENT
??_R3?$CTempldateHelper@UIDataBase@@@@8 DD 00H		; CTempldateHelper<IDataBase>::`RTTI Class Hierarchy Descriptor'
	DD	00H
	DD	01H
	DD	FLAT:??_R2?$CTempldateHelper@UIDataBase@@@@8
rdata$r	ENDS
;	COMDAT ??_R0?AV?$CTempldateHelper@UIDataBase@@@@@8
data$r	SEGMENT
??_R0?AV?$CTempldateHelper@UIDataBase@@@@@8 DD FLAT:??_7type_info@@6B@ ; CTempldateHelper<IDataBase> `RTTI Type Descriptor'
	DD	00H
	DB	'.?AV?$CTempldateHelper@UIDataBase@@@@', 00H
data$r	ENDS
;	COMDAT ??_R1A@?0A@EA@?$CTempldateHelper@UIDataBase@@@@8
rdata$r	SEGMENT
??_R1A@?0A@EA@?$CTempldateHelper@UIDataBase@@@@8 DD FLAT:??_R0?AV?$CTempldateHelper@UIDataBase@@@@@8 ; CTempldateHelper<IDataBase>::`RTTI Base Class Descriptor at (0,-1,0,64)'
	DD	00H
	DD	00H
	DD	0ffffffffH
	DD	00H
	DD	040H
	DD	FLAT:??_R3?$CTempldateHelper@UIDataBase@@@@8
rdata$r	ENDS
;	COMDAT ??_R1A@?0A@EA@CDataBaseHelper@@8
rdata$r	SEGMENT
??_R1A@?0A@EA@CDataBaseHelper@@8 DD FLAT:??_R0?AVCDataBaseHelper@@@8 ; CDataBaseHelper::`RTTI Base Class Descriptor at (0,-1,0,64)'
	DD	01H
	DD	00H
	DD	0ffffffffH
	DD	00H
	DD	040H
	DD	FLAT:??_R3CDataBaseHelper@@8
rdata$r	ENDS
;	COMDAT ??_R2CDataBaseHelper@@8
rdata$r	SEGMENT
??_R2CDataBaseHelper@@8 DD FLAT:??_R1A@?0A@EA@CDataBaseHelper@@8 ; CDataBaseHelper::`RTTI Base Class Array'
	DD	FLAT:??_R1A@?0A@EA@?$CTempldateHelper@UIDataBase@@@@8
rdata$r	ENDS
;	COMDAT ??_R3CDataBaseHelper@@8
rdata$r	SEGMENT
??_R3CDataBaseHelper@@8 DD 00H				; CDataBaseHelper::`RTTI Class Hierarchy Descriptor'
	DD	00H
	DD	02H
	DD	FLAT:??_R2CDataBaseHelper@@8
rdata$r	ENDS
;	COMDAT ??_R0?AVCDataBaseHelper@@@8
data$r	SEGMENT
??_R0?AVCDataBaseHelper@@@8 DD FLAT:??_7type_info@@6B@	; CDataBaseHelper `RTTI Type Descriptor'
	DD	00H
	DB	'.?AVCDataBaseHelper@@', 00H
data$r	ENDS
;	COMDAT ??_R4CDataBaseHelper@@6B@
rdata$r	SEGMENT
??_R4CDataBaseHelper@@6B@ DD 00H			; CDataBaseHelper::`RTTI Complete Object Locator'
	DD	00H
	DD	00H
	DD	FLAT:??_R0?AVCDataBaseHelper@@@8
	DD	FLAT:??_R3CDataBaseHelper@@8
rdata$r	ENDS
;	COMDAT ??_C@_1BK@NHECDDNK@?$AAm?$AA_?$AAp?$AAD?$AAa?$AAt?$AAa?$AA?5?$AA?$DN?$AA?$DN?$AA?5?$AA0@
CONST	SEGMENT
??_C@_1BK@NHECDDNK@?$AAm?$AA_?$AAp?$AAD?$AAa?$AAt?$AAa?$AA?5?$AA?$DN?$AA?$DN?$AA?5?$AA0@ DB 'm'
	DB	00H, '_', 00H, 'p', 00H, 'D', 00H, 'a', 00H, 't', 00H, 'a', 00H
	DB	' ', 00H, '=', 00H, '=', 00H, ' ', 00H, '0', 00H, 00H, 00H ; `string'
CONST	ENDS
;	COMDAT ??_C@_0BB@BEMLEOHB@KernelEngine?4dll@
CONST	SEGMENT
??_C@_0BB@BEMLEOHB@KernelEngine?4dll@ DB 'KernelEngine.dll', 00H ; `string'
CONST	ENDS
;	COMDAT ??_C@_0P@IKJBDFNG@CreateDataBase@
CONST	SEGMENT
??_C@_0P@IKJBDFNG@CreateDataBase@ DB 'CreateDataBase', 00H ; `string'
CONST	ENDS
;	COMDAT ??_7CDataBaseHelper@@6B@
CONST	SEGMENT
??_7CDataBaseHelper@@6B@ DD FLAT:??_R4CDataBaseHelper@@6B@ ; CDataBaseHelper::`vftable'
	DD	FLAT:??_ECDataBaseHelper@@UAEPAXI@Z
CONST	ENDS
;	COMDAT ??_7?$CTempldateHelper@UIDataBase@@@@6B@
CONST	SEGMENT
??_7?$CTempldateHelper@UIDataBase@@@@6B@ DD FLAT:??_R4?$CTempldateHelper@UIDataBase@@@@6B@ ; CTempldateHelper<IDataBase>::`vftable'
	DD	FLAT:??_E?$CTempldateHelper@UIDataBase@@@@UAEPAXI@Z
CONST	ENDS
;	COMDAT ??_7IDataBaseEngineSink@@6B@
CONST	SEGMENT
??_7IDataBaseEngineSink@@6B@ DD FLAT:??_R4IDataBaseEngineSink@@6B@ ; IDataBaseEngineSink::`vftable'
	DD	FLAT:__purecall
	DD	FLAT:__purecall
	DD	FLAT:__purecall
	DD	FLAT:__purecall
	DD	FLAT:__purecall
	DD	FLAT:__purecall
	DD	FLAT:__purecall
CONST	ENDS
;	COMDAT ??_7IUnknownEx@@6B@
CONST	SEGMENT
??_7IUnknownEx@@6B@ DD FLAT:??_R4IUnknownEx@@6B@	; IUnknownEx::`vftable'
	DD	FLAT:__purecall
	DD	FLAT:__purecall
CONST	ENDS
;	COMDAT ??_C@_00CNPNBAHC@@
CONST	SEGMENT
??_C@_00CNPNBAHC@@ DB 00H				; `string'
CONST	ENDS
;	COMDAT ??_C@_1BK@NHHHCKNA@?$AAm?$AA_?$AAt?$AAi?$AAm?$AAe?$AA?5?$AA?$CB?$AA?$DN?$AA?5?$AA?9?$AA1@
CONST	SEGMENT
??_C@_1BK@NHHHCKNA@?$AAm?$AA_?$AAt?$AAi?$AAm?$AAe?$AA?5?$AA?$CB?$AA?$DN?$AA?5?$AA?9?$AA1@ DB 'm'
	DB	00H, '_', 00H, 't', 00H, 'i', 00H, 'm', 00H, 'e', 00H, ' ', 00H
	DB	'!', 00H, '=', 00H, ' ', 00H, '-', 00H, '1', 00H, 00H, 00H ; `string'
CONST	ENDS
;	COMDAT ??_C@_1OC@IALJLBM@?$AAc?$AA?3?$AA?2?$AAp?$AAr?$AAo?$AAg?$AAr?$AAa?$AAm?$AA?5?$AAf?$AAi?$AAl?$AAe@
CONST	SEGMENT
??_C@_1OC@IALJLBM@?$AAc?$AA?3?$AA?2?$AAp?$AAr?$AAo?$AAg?$AAr?$AAa?$AAm?$AA?5?$AAf?$AAi?$AAl?$AAe@ DB 'c'
	DB	00H, ':', 00H, '\', 00H, 'p', 00H, 'r', 00H, 'o', 00H, 'g', 00H
	DB	'r', 00H, 'a', 00H, 'm', 00H, ' ', 00H, 'f', 00H, 'i', 00H, 'l'
	DB	00H, 'e', 00H, 's', 00H, ' ', 00H, '(', 00H, 'x', 00H, '8', 00H
	DB	'6', 00H, ')', 00H, '\', 00H, 'm', 00H, 'i', 00H, 'c', 00H, 'r'
	DB	00H, 'o', 00H, 's', 00H, 'o', 00H, 'f', 00H, 't', 00H, ' ', 00H
	DB	'v', 00H, 'i', 00H, 's', 00H, 'u', 00H, 'a', 00H, 'l', 00H, ' '
	DB	00H, 's', 00H, 't', 00H, 'u', 00H, 'd', 00H, 'i', 00H, 'o', 00H
	DB	'\', 00H, '2', 00H, '0', 00H, '1', 00H, '7', 00H, '\', 00H, 'c'
	DB	00H, 'o', 00H, 'm', 00H, 'm', 00H, 'u', 00H, 'n', 00H, 'i', 00H
	DB	't', 00H, 'y', 00H, '\', 00H, 'v', 00H, 'c', 00H, '\', 00H, 't'
	DB	00H, 'o', 00H, 'o', 00H, 'l', 00H, 's', 00H, '\', 00H, 'm', 00H
	DB	's', 00H, 'v', 00H, 'c', 00H, '\', 00H, '1', 00H, '4', 00H, '.'
	DB	00H, '1', 00H, '6', 00H, '.', 00H, '2', 00H, '7', 00H, '0', 00H
	DB	'2', 00H, '3', 00H, '\', 00H, 'a', 00H, 't', 00H, 'l', 00H, 'm'
	DB	00H, 'f', 00H, 'c', 00H, '\', 00H, 'i', 00H, 'n', 00H, 'c', 00H
	DB	'l', 00H, 'u', 00H, 'd', 00H, 'e', 00H, '\', 00H, 'a', 00H, 't'
	DB	00H, 'l', 00H, 't', 00H, 'i', 00H, 'm', 00H, 'e', 00H, '.', 00H
	DB	'h', 00H, 00H, 00H				; `string'
CONST	ENDS
;	COMDAT ?__LINE__Var@?0???0CTime@ATL@@QAE@HHHHHHH@Z@4JA
_DATA	SEGMENT
?__LINE__Var@?0???0CTime@ATL@@QAE@HHHHHHH@Z@4JA DD 01adH ; `ATL::CTime::CTime'::`1'::__LINE__Var
_DATA	ENDS
;	COMDAT ??_C@_1BM@GBBOFEAE@?$AA_?$AA_?$AAa?$AAt?$AAl?$AA_?$AAc?$AAo?$AAn?$AAd?$AAV?$AAa?$AAl@
CONST	SEGMENT
??_C@_1BM@GBBOFEAE@?$AA_?$AA_?$AAa?$AAt?$AAl?$AA_?$AAc?$AAo?$AAn?$AAd?$AAV?$AAa?$AAl@ DB '_'
	DB	00H, '_', 00H, 'a', 00H, 't', 00H, 'l', 00H, '_', 00H, 'c', 00H
	DB	'o', 00H, 'n', 00H, 'd', 00H, 'V', 00H, 'a', 00H, 'l', 00H, 00H
	DB	00H						; `string'
CONST	ENDS
;	COMDAT ??_C@_0BF@IAAKIJDJ@AtlThrow?3?5hr?5?$DN?50x?$CFx?6@
CONST	SEGMENT
??_C@_0BF@IAAKIJDJ@AtlThrow?3?5hr?5?$DN?50x?$CFx?6@ DB 'AtlThrow: hr = 0x'
	DB	'%x', 0aH, 00H				; `string'
CONST	ENDS
;	COMDAT ??_C@_0HD@OEBHCJKM@c?3?2program?5files?5?$CIx86?$CJ?2microsof@
CONST	SEGMENT
??_C@_0HD@OEBHCJKM@c?3?2program?5files?5?$CIx86?$CJ?2microsof@ DB 'c:\pro'
	DB	'gram files (x86)\microsoft visual studio\2017\community\vc\to'
	DB	'ols\msvc\14.16.27023\atlmfc\include\atlexcept.h', 00H ; `string'
CONST	ENDS
;	COMDAT ?__LINE__Var@?0??AtlThrowImpl@ATL@@YGXJ@Z@4JA
_DATA	SEGMENT
?__LINE__Var@?0??AtlThrowImpl@ATL@@YGXJ@Z@4JA DD 041H	; `ATL::AtlThrowImpl'::`1'::__LINE__Var
_DATA	ENDS
;	COMDAT ??_C@_1OE@PDFAMNPL@?$AAc?$AA?3?$AA?2?$AAp?$AAr?$AAo?$AAg?$AAr?$AAa?$AAm?$AA?5?$AAf?$AAi?$AAl?$AAe@
CONST	SEGMENT
??_C@_1OE@PDFAMNPL@?$AAc?$AA?3?$AA?2?$AAp?$AAr?$AAo?$AAg?$AAr?$AAa?$AAm?$AA?5?$AAf?$AAi?$AAl?$AAe@ DB 'c'
	DB	00H, ':', 00H, '\', 00H, 'p', 00H, 'r', 00H, 'o', 00H, 'g', 00H
	DB	'r', 00H, 'a', 00H, 'm', 00H, ' ', 00H, 'f', 00H, 'i', 00H, 'l'
	DB	00H, 'e', 00H, 's', 00H, ' ', 00H, '(', 00H, 'x', 00H, '8', 00H
	DB	'6', 00H, ')', 00H, '\', 00H, 'm', 00H, 'i', 00H, 'c', 00H, 'r'
	DB	00H, 'o', 00H, 's', 00H, 'o', 00H, 'f', 00H, 't', 00H, ' ', 00H
	DB	'v', 00H, 'i', 00H, 's', 00H, 'u', 00H, 'a', 00H, 'l', 00H, ' '
	DB	00H, 's', 00H, 't', 00H, 'u', 00H, 'd', 00H, 'i', 00H, 'o', 00H
	DB	'\', 00H, '2', 00H, '0', 00H, '1', 00H, '7', 00H, '\', 00H, 'c'
	DB	00H, 'o', 00H, 'm', 00H, 'm', 00H, 'u', 00H, 'n', 00H, 'i', 00H
	DB	't', 00H, 'y', 00H, '\', 00H, 'v', 00H, 'c', 00H, '\', 00H, 't'
	DB	00H, 'o', 00H, 'o', 00H, 'l', 00H, 's', 00H, '\', 00H, 'm', 00H
	DB	's', 00H, 'v', 00H, 'c', 00H, '\', 00H, '1', 00H, '4', 00H, '.'
	DB	00H, '1', 00H, '6', 00H, '.', 00H, '2', 00H, '7', 00H, '0', 00H
	DB	'2', 00H, '3', 00H, '\', 00H, 'a', 00H, 't', 00H, 'l', 00H, 'm'
	DB	00H, 'f', 00H, 'c', 00H, '\', 00H, 'i', 00H, 'n', 00H, 'c', 00H
	DB	'l', 00H, 'u', 00H, 'd', 00H, 'e', 00H, '\', 00H, 'a', 00H, 't'
	DB	00H, 'l', 00H, 't', 00H, 'r', 00H, 'a', 00H, 'c', 00H, 'e', 00H
	DB	'.', 00H, 'h', 00H, 00H, 00H			; `string'
CONST	ENDS
;	COMDAT ??_C@_1EO@EBPPKGOM@?$AAf?$AAa?$AAl?$AAs?$AAe?$AA?5?$AA?$CG?$AA?$CG?$AA?5?$AA?$CC?$AAT?$AAo?$AAo?$AA?5?$AAm@
CONST	SEGMENT
??_C@_1EO@EBPPKGOM@?$AAf?$AAa?$AAl?$AAs?$AAe?$AA?5?$AA?$CG?$AA?$CG?$AA?5?$AA?$CC?$AAT?$AAo?$AAo?$AA?5?$AAm@ DB 'f'
	DB	00H, 'a', 00H, 'l', 00H, 's', 00H, 'e', 00H, ' ', 00H, '&', 00H
	DB	'&', 00H, ' ', 00H, '"', 00H, 'T', 00H, 'o', 00H, 'o', 00H, ' '
	DB	00H, 'm', 00H, 'a', 00H, 'n', 00H, 'y', 00H, ' ', 00H, 'c', 00H
	DB	'a', 00H, 't', 00H, 'e', 00H, 'g', 00H, 'o', 00H, 'r', 00H, 'i'
	DB	00H, 'e', 00H, 's', 00H, ' ', 00H, 'd', 00H, 'e', 00H, 'f', 00H
	DB	'i', 00H, 'n', 00H, 'e', 00H, 'd', 00H, '"', 00H, 00H, 00H ; `string'
CONST	ENDS
;	COMDAT ??_C@_17LGGGMOOB@?$AA?$CF?$AAh?$AAs@
CONST	SEGMENT
??_C@_17LGGGMOOB@?$AA?$CF?$AAh?$AAs@ DB '%', 00H, 'h', 00H, 's', 00H, 00H
	DB	00H						; `string'
CONST	ENDS
;	COMDAT ??_C@_1O@OAIPCDPO@?$AA?$CF?$AAl?$AAs?$AA?$CF?$AAl?$AAs@
CONST	SEGMENT
??_C@_1O@OAIPCDPO@?$AA?$CF?$AAl?$AAs?$AA?$CF?$AAl?$AAs@ DB '%', 00H, 'l', 00H
	DB	's', 00H, '%', 00H, 'l', 00H, 's', 00H, 00H, 00H ; `string'
CONST	ENDS
;	COMDAT ??_C@_1M@PGKOAACE@?$AA?$CF?$AAu?$AA?5?$AA?9?$AA?5@
CONST	SEGMENT
??_C@_1M@PGKOAACE@?$AA?$CF?$AAu?$AA?5?$AA?9?$AA?5@ DB '%', 00H, 'u', 00H, ' '
	DB	00H, '-', 00H, ' ', 00H, 00H, 00H		; `string'
CONST	ENDS
;	COMDAT ??_C@_1O@LFNDFEBP@?$AA?$CF?$AAl?$AAs?$AA?5?$AA?9?$AA?5@
CONST	SEGMENT
??_C@_1O@LFNDFEBP@?$AA?$CF?$AAl?$AAs?$AA?5?$AA?9?$AA?5@ DB '%', 00H, 'l', 00H
	DB	's', 00H, ' ', 00H, '-', 00H, ' ', 00H, 00H, 00H ; `string'
CONST	ENDS
;	COMDAT ?m_nCategory@CTrace@ATL@@1IA
_DATA	SEGMENT
?m_nCategory@CTrace@ATL@@1IA DD 0ffffffffH		; ATL::CTrace::m_nCategory
_DATA	ENDS
;	COMDAT ??_C@_0BC@PGMFNIFA@atlTraceException@
CONST	SEGMENT
??_C@_0BC@PGMFNIFA@atlTraceException@ DB 'atlTraceException', 00H ; `string'
CONST	ENDS
;	COMDAT ??_C@_1OC@PNEKCFJL@?$AAc?$AA?3?$AA?2?$AAp?$AAr?$AAo?$AAg?$AAr?$AAa?$AAm?$AA?5?$AAf?$AAi?$AAl?$AAe@
CONST	SEGMENT
??_C@_1OC@PNEKCFJL@?$AAc?$AA?3?$AA?2?$AAp?$AAr?$AAo?$AAg?$AAr?$AAa?$AAm?$AA?5?$AAf?$AAi?$AAl?$AAe@ DB 'c'
	DB	00H, ':', 00H, '\', 00H, 'p', 00H, 'r', 00H, 'o', 00H, 'g', 00H
	DB	'r', 00H, 'a', 00H, 'm', 00H, ' ', 00H, 'f', 00H, 'i', 00H, 'l'
	DB	00H, 'e', 00H, 's', 00H, ' ', 00H, '(', 00H, 'x', 00H, '8', 00H
	DB	'6', 00H, ')', 00H, '\', 00H, 'm', 00H, 'i', 00H, 'c', 00H, 'r'
	DB	00H, 'o', 00H, 's', 00H, 'o', 00H, 'f', 00H, 't', 00H, ' ', 00H
	DB	'v', 00H, 'i', 00H, 's', 00H, 'u', 00H, 'a', 00H, 'l', 00H, ' '
	DB	00H, 's', 00H, 't', 00H, 'u', 00H, 'd', 00H, 'i', 00H, 'o', 00H
	DB	'\', 00H, '2', 00H, '0', 00H, '1', 00H, '7', 00H, '\', 00H, 'c'
	DB	00H, 'o', 00H, 'm', 00H, 'm', 00H, 'u', 00H, 'n', 00H, 'i', 00H
	DB	't', 00H, 'y', 00H, '\', 00H, 'v', 00H, 'c', 00H, '\', 00H, 't'
	DB	00H, 'o', 00H, 'o', 00H, 'l', 00H, 's', 00H, '\', 00H, 'm', 00H
	DB	's', 00H, 'v', 00H, 'c', 00H, '\', 00H, '1', 00H, '4', 00H, '.'
	DB	00H, '1', 00H, '6', 00H, '.', 00H, '2', 00H, '7', 00H, '0', 00H
	DB	'2', 00H, '3', 00H, '\', 00H, 'a', 00H, 't', 00H, 'l', 00H, 'm'
	DB	00H, 'f', 00H, 'c', 00H, '\', 00H, 'i', 00H, 'n', 00H, 'c', 00H
	DB	'l', 00H, 'u', 00H, 'd', 00H, 'e', 00H, '\', 00H, 'a', 00H, 't'
	DB	00H, 'l', 00H, 'c', 00H, 'o', 00H, 'n', 00H, 'v', 00H, '.', 00H
	DB	'h', 00H, 00H, 00H				; `string'
CONST	ENDS
;	COMDAT ??_C@_1OE@IAPLKPHI@?$AAc?$AA?3?$AA?2?$AAp?$AAr?$AAo?$AAg?$AAr?$AAa?$AAm?$AA?5?$AAf?$AAi?$AAl?$AAe@
CONST	SEGMENT
??_C@_1OE@IAPLKPHI@?$AAc?$AA?3?$AA?2?$AAp?$AAr?$AAo?$AAg?$AAr?$AAa?$AAm?$AA?5?$AAf?$AAi?$AAl?$AAe@ DB 'c'
	DB	00H, ':', 00H, '\', 00H, 'p', 00H, 'r', 00H, 'o', 00H, 'g', 00H
	DB	'r', 00H, 'a', 00H, 'm', 00H, ' ', 00H, 'f', 00H, 'i', 00H, 'l'
	DB	00H, 'e', 00H, 's', 00H, ' ', 00H, '(', 00H, 'x', 00H, '8', 00H
	DB	'6', 00H, ')', 00H, '\', 00H, 'm', 00H, 'i', 00H, 'c', 00H, 'r'
	DB	00H, 'o', 00H, 's', 00H, 'o', 00H, 'f', 00H, 't', 00H, ' ', 00H
	DB	'v', 00H, 'i', 00H, 's', 00H, 'u', 00H, 'a', 00H, 'l', 00H, ' '
	DB	00H, 's', 00H, 't', 00H, 'u', 00H, 'd', 00H, 'i', 00H, 'o', 00H
	DB	'\', 00H, '2', 00H, '0', 00H, '1', 00H, '7', 00H, '\', 00H, 'c'
	DB	00H, 'o', 00H, 'm', 00H, 'm', 00H, 'u', 00H, 'n', 00H, 'i', 00H
	DB	't', 00H, 'y', 00H, '\', 00H, 'v', 00H, 'c', 00H, '\', 00H, 't'
	DB	00H, 'o', 00H, 'o', 00H, 'l', 00H, 's', 00H, '\', 00H, 'm', 00H
	DB	's', 00H, 'v', 00H, 'c', 00H, '\', 00H, '1', 00H, '4', 00H, '.'
	DB	00H, '1', 00H, '6', 00H, '.', 00H, '2', 00H, '7', 00H, '0', 00H
	DB	'2', 00H, '3', 00H, '\', 00H, 'a', 00H, 't', 00H, 'l', 00H, 'm'
	DB	00H, 'f', 00H, 'c', 00H, '\', 00H, 'i', 00H, 'n', 00H, 'c', 00H
	DB	'l', 00H, 'u', 00H, 'd', 00H, 'e', 00H, '\', 00H, 'a', 00H, 't'
	DB	00H, 'l', 00H, 'a', 00H, 'l', 00H, 'l', 00H, 'o', 00H, 'c', 00H
	DB	'.', 00H, 'h', 00H, 00H, 00H			; `string'
CONST	ENDS
;	COMDAT ??_C@_17CNPHIMPH@?$AA?$CF?$AAl?$AAs@
CONST	SEGMENT
??_C@_17CNPHIMPH@?$AA?$CF?$AAl?$AAs@ DB '%', 00H, 'l', 00H, 's', 00H, 00H
	DB	00H						; `string'
CONST	ENDS
;	COMDAT xdata$x
xdata$x	SEGMENT
__catchsym$?OnRequestLoadSystemMessage@CDataBaseEngineSink@@IAE_NKPAXG@Z$3 DD 00H
	DD	FLAT:??_R0PAUIDataBaseException@@@8
	DD	0fffffb1cH
	DD	FLAT:__catch$?OnRequestLoadSystemMessage@CDataBaseEngineSink@@IAE_NKPAXG@Z$0
__tryblocktable$?OnRequestLoadSystemMessage@CDataBaseEngineSink@@IAE_NKPAXG@Z DD 00H
	DD	01H
	DD	02H
	DD	01H
	DD	FLAT:__catchsym$?OnRequestLoadSystemMessage@CDataBaseEngineSink@@IAE_NKPAXG@Z$3
__unwindtable$?OnRequestLoadSystemMessage@CDataBaseEngineSink@@IAE_NKPAXG@Z DD 0ffffffffH
	DD	00H
	DD	00H
	DD	FLAT:__unwindfunclet$?OnRequestLoadSystemMessage@CDataBaseEngineSink@@IAE_NKPAXG@Z$2
	DD	0ffffffffH
	DD	00H
__ehfuncinfo$?OnRequestLoadSystemMessage@CDataBaseEngineSink@@IAE_NKPAXG@Z DD 019930522H
	DD	03H
	DD	FLAT:__unwindtable$?OnRequestLoadSystemMessage@CDataBaseEngineSink@@IAE_NKPAXG@Z
	DD	01H
	DD	FLAT:__tryblocktable$?OnRequestLoadSystemMessage@CDataBaseEngineSink@@IAE_NKPAXG@Z
	DD	2 DUP(00H)
	DD	00H
	DD	01H
xdata$x	ENDS
;	COMDAT xdata$x
xdata$x	SEGMENT
__catchsym$?OnRequestUpdatePlaceName@CDataBaseEngineSink@@IAE_NKPAXG@Z$2 DD 00H
	DD	FLAT:??_R0PAUIDataBaseException@@@8
	DD	0ffffff5cH
	DD	FLAT:__catch$?OnRequestUpdatePlaceName@CDataBaseEngineSink@@IAE_NKPAXG@Z$0
__unwindtable$?OnRequestUpdatePlaceName@CDataBaseEngineSink@@IAE_NKPAXG@Z DD 0ffffffffH
	DD	00H
	DD	0ffffffffH
	DD	00H
__tryblocktable$?OnRequestUpdatePlaceName@CDataBaseEngineSink@@IAE_NKPAXG@Z DD 00H
	DD	00H
	DD	01H
	DD	01H
	DD	FLAT:__catchsym$?OnRequestUpdatePlaceName@CDataBaseEngineSink@@IAE_NKPAXG@Z$2
__ehfuncinfo$?OnRequestUpdatePlaceName@CDataBaseEngineSink@@IAE_NKPAXG@Z DD 019930522H
	DD	02H
	DD	FLAT:__unwindtable$?OnRequestUpdatePlaceName@CDataBaseEngineSink@@IAE_NKPAXG@Z
	DD	01H
	DD	FLAT:__tryblocktable$?OnRequestUpdatePlaceName@CDataBaseEngineSink@@IAE_NKPAXG@Z
	DD	2 DUP(00H)
	DD	00H
	DD	01H
xdata$x	ENDS
;	COMDAT xdata$x
xdata$x	SEGMENT
__catchsym$?OnRequestTrumpet@CDataBaseEngineSink@@IAE_NKPAXG@Z$2 DD 00H
	DD	FLAT:??_R0PAUIDataBaseException@@@8
	DD	0fffffe2cH
	DD	FLAT:__catch$?OnRequestTrumpet@CDataBaseEngineSink@@IAE_NKPAXG@Z$0
__unwindtable$?OnRequestTrumpet@CDataBaseEngineSink@@IAE_NKPAXG@Z DD 0ffffffffH
	DD	00H
	DD	0ffffffffH
	DD	00H
__tryblocktable$?OnRequestTrumpet@CDataBaseEngineSink@@IAE_NKPAXG@Z DD 00H
	DD	00H
	DD	01H
	DD	01H
	DD	FLAT:__catchsym$?OnRequestTrumpet@CDataBaseEngineSink@@IAE_NKPAXG@Z$2
__ehfuncinfo$?OnRequestTrumpet@CDataBaseEngineSink@@IAE_NKPAXG@Z DD 019930522H
	DD	02H
	DD	FLAT:__unwindtable$?OnRequestTrumpet@CDataBaseEngineSink@@IAE_NKPAXG@Z
	DD	01H
	DD	FLAT:__tryblocktable$?OnRequestTrumpet@CDataBaseEngineSink@@IAE_NKPAXG@Z
	DD	2 DUP(00H)
	DD	00H
	DD	01H
xdata$x	ENDS
;	COMDAT xdata$x
xdata$x	SEGMENT
__catchsym$?OnRequestSaveOfflineMessage@CDataBaseEngineSink@@IAE_NKPAXG@Z$2 DD 00H
	DD	FLAT:??_R0PAUIDataBaseException@@@8
	DD	0ffffff5cH
	DD	FLAT:__catch$?OnRequestSaveOfflineMessage@CDataBaseEngineSink@@IAE_NKPAXG@Z$0
__unwindtable$?OnRequestSaveOfflineMessage@CDataBaseEngineSink@@IAE_NKPAXG@Z DD 0ffffffffH
	DD	00H
	DD	0ffffffffH
	DD	00H
__tryblocktable$?OnRequestSaveOfflineMessage@CDataBaseEngineSink@@IAE_NKPAXG@Z DD 00H
	DD	00H
	DD	01H
	DD	01H
	DD	FLAT:__catchsym$?OnRequestSaveOfflineMessage@CDataBaseEngineSink@@IAE_NKPAXG@Z$2
__ehfuncinfo$?OnRequestSaveOfflineMessage@CDataBaseEngineSink@@IAE_NKPAXG@Z DD 019930522H
	DD	02H
	DD	FLAT:__unwindtable$?OnRequestSaveOfflineMessage@CDataBaseEngineSink@@IAE_NKPAXG@Z
	DD	01H
	DD	FLAT:__tryblocktable$?OnRequestSaveOfflineMessage@CDataBaseEngineSink@@IAE_NKPAXG@Z
	DD	2 DUP(00H)
	DD	00H
	DD	01H
xdata$x	ENDS
;	COMDAT xdata$x
xdata$x	SEGMENT
__catchsym$?OnRequestSearchUser@CDataBaseEngineSink@@IAE_NKPAXG@Z$2 DD 00H
	DD	FLAT:??_R0PAUIDataBaseException@@@8
	DD	0ffffff34H
	DD	FLAT:__catch$?OnRequestSearchUser@CDataBaseEngineSink@@IAE_NKPAXG@Z$0
__unwindtable$?OnRequestSearchUser@CDataBaseEngineSink@@IAE_NKPAXG@Z DD 0ffffffffH
	DD	00H
	DD	0ffffffffH
	DD	00H
__tryblocktable$?OnRequestSearchUser@CDataBaseEngineSink@@IAE_NKPAXG@Z DD 00H
	DD	00H
	DD	01H
	DD	01H
	DD	FLAT:__catchsym$?OnRequestSearchUser@CDataBaseEngineSink@@IAE_NKPAXG@Z$2
__ehfuncinfo$?OnRequestSearchUser@CDataBaseEngineSink@@IAE_NKPAXG@Z DD 019930522H
	DD	02H
	DD	FLAT:__unwindtable$?OnRequestSearchUser@CDataBaseEngineSink@@IAE_NKPAXG@Z
	DD	01H
	DD	FLAT:__tryblocktable$?OnRequestSearchUser@CDataBaseEngineSink@@IAE_NKPAXG@Z
	DD	2 DUP(00H)
	DD	00H
	DD	01H
xdata$x	ENDS
;	COMDAT xdata$x
xdata$x	SEGMENT
__catchsym$?OnRequestModifyRemarks@CDataBaseEngineSink@@IAE_NKPAXG@Z$2 DD 00H
	DD	FLAT:??_R0PAUIDataBaseException@@@8
	DD	0ffffffb0H
	DD	FLAT:__catch$?OnRequestModifyRemarks@CDataBaseEngineSink@@IAE_NKPAXG@Z$0
__unwindtable$?OnRequestModifyRemarks@CDataBaseEngineSink@@IAE_NKPAXG@Z DD 0ffffffffH
	DD	00H
	DD	0ffffffffH
	DD	00H
__tryblocktable$?OnRequestModifyRemarks@CDataBaseEngineSink@@IAE_NKPAXG@Z DD 00H
	DD	00H
	DD	01H
	DD	01H
	DD	FLAT:__catchsym$?OnRequestModifyRemarks@CDataBaseEngineSink@@IAE_NKPAXG@Z$2
__ehfuncinfo$?OnRequestModifyRemarks@CDataBaseEngineSink@@IAE_NKPAXG@Z DD 019930522H
	DD	02H
	DD	FLAT:__unwindtable$?OnRequestModifyRemarks@CDataBaseEngineSink@@IAE_NKPAXG@Z
	DD	01H
	DD	FLAT:__tryblocktable$?OnRequestModifyRemarks@CDataBaseEngineSink@@IAE_NKPAXG@Z
	DD	2 DUP(00H)
	DD	00H
	DD	01H
xdata$x	ENDS
;	COMDAT xdata$x
xdata$x	SEGMENT
__catchsym$?OnRequestModifyGroup@CDataBaseEngineSink@@IAE_NKPAXG@Z$4 DD 00H
	DD	FLAT:??_R0PAUIDataBaseException@@@8
	DD	0fffffe9cH
	DD	FLAT:__catch$?OnRequestModifyGroup@CDataBaseEngineSink@@IAE_NKPAXG@Z$0
__tryblocktable$?OnRequestModifyGroup@CDataBaseEngineSink@@IAE_NKPAXG@Z DD 00H
	DD	01H
	DD	02H
	DD	01H
	DD	FLAT:__catchsym$?OnRequestModifyGroup@CDataBaseEngineSink@@IAE_NKPAXG@Z$4
__unwindtable$?OnRequestModifyGroup@CDataBaseEngineSink@@IAE_NKPAXG@Z DD 0ffffffffH
	DD	00H
	DD	00H
	DD	FLAT:__unwindfunclet$?OnRequestModifyGroup@CDataBaseEngineSink@@IAE_NKPAXG@Z$2
	DD	0ffffffffH
	DD	00H
__ehfuncinfo$?OnRequestModifyGroup@CDataBaseEngineSink@@IAE_NKPAXG@Z DD 019930522H
	DD	03H
	DD	FLAT:__unwindtable$?OnRequestModifyGroup@CDataBaseEngineSink@@IAE_NKPAXG@Z
	DD	01H
	DD	FLAT:__tryblocktable$?OnRequestModifyGroup@CDataBaseEngineSink@@IAE_NKPAXG@Z
	DD	2 DUP(00H)
	DD	00H
	DD	01H
xdata$x	ENDS
;	COMDAT xdata$x
xdata$x	SEGMENT
__catchsym$?OnRequestDeleteFriend@CDataBaseEngineSink@@IAE_NKPAXG@Z$2 DD 00H
	DD	FLAT:??_R0PAUIDataBaseException@@@8
	DD	0ffffff4cH
	DD	FLAT:__catch$?OnRequestDeleteFriend@CDataBaseEngineSink@@IAE_NKPAXG@Z$0
__unwindtable$?OnRequestDeleteFriend@CDataBaseEngineSink@@IAE_NKPAXG@Z DD 0ffffffffH
	DD	00H
	DD	0ffffffffH
	DD	00H
__tryblocktable$?OnRequestDeleteFriend@CDataBaseEngineSink@@IAE_NKPAXG@Z DD 00H
	DD	00H
	DD	01H
	DD	01H
	DD	FLAT:__catchsym$?OnRequestDeleteFriend@CDataBaseEngineSink@@IAE_NKPAXG@Z$2
__ehfuncinfo$?OnRequestDeleteFriend@CDataBaseEngineSink@@IAE_NKPAXG@Z DD 019930522H
	DD	02H
	DD	FLAT:__unwindtable$?OnRequestDeleteFriend@CDataBaseEngineSink@@IAE_NKPAXG@Z
	DD	01H
	DD	FLAT:__tryblocktable$?OnRequestDeleteFriend@CDataBaseEngineSink@@IAE_NKPAXG@Z
	DD	2 DUP(00H)
	DD	00H
	DD	01H
xdata$x	ENDS
;	COMDAT xdata$x
xdata$x	SEGMENT
__catchsym$?OnRequestAddFriend@CDataBaseEngineSink@@IAE_NKPAXG@Z$2 DD 00H
	DD	FLAT:??_R0PAUIDataBaseException@@@8
	DD	0fffd7ab4H
	DD	FLAT:__catch$?OnRequestAddFriend@CDataBaseEngineSink@@IAE_NKPAXG@Z$0
__unwindtable$?OnRequestAddFriend@CDataBaseEngineSink@@IAE_NKPAXG@Z DD 0ffffffffH
	DD	00H
	DD	0ffffffffH
	DD	00H
__tryblocktable$?OnRequestAddFriend@CDataBaseEngineSink@@IAE_NKPAXG@Z DD 00H
	DD	00H
	DD	01H
	DD	01H
	DD	FLAT:__catchsym$?OnRequestAddFriend@CDataBaseEngineSink@@IAE_NKPAXG@Z$2
__ehfuncinfo$?OnRequestAddFriend@CDataBaseEngineSink@@IAE_NKPAXG@Z DD 019930522H
	DD	02H
	DD	FLAT:__unwindtable$?OnRequestAddFriend@CDataBaseEngineSink@@IAE_NKPAXG@Z
	DD	01H
	DD	FLAT:__tryblocktable$?OnRequestAddFriend@CDataBaseEngineSink@@IAE_NKPAXG@Z
	DD	2 DUP(00H)
	DD	00H
	DD	01H
xdata$x	ENDS
;	COMDAT xdata$x
xdata$x	SEGMENT
__catchsym$?OnRequestModifyFriend@CDataBaseEngineSink@@IAE_NKPAXG@Z$2 DD 00H
	DD	FLAT:??_R0PAUIDataBaseException@@@8
	DD	0ffffff50H
	DD	FLAT:__catch$?OnRequestModifyFriend@CDataBaseEngineSink@@IAE_NKPAXG@Z$0
__unwindtable$?OnRequestModifyFriend@CDataBaseEngineSink@@IAE_NKPAXG@Z DD 0ffffffffH
	DD	00H
	DD	0ffffffffH
	DD	00H
__tryblocktable$?OnRequestModifyFriend@CDataBaseEngineSink@@IAE_NKPAXG@Z DD 00H
	DD	00H
	DD	01H
	DD	01H
	DD	FLAT:__catchsym$?OnRequestModifyFriend@CDataBaseEngineSink@@IAE_NKPAXG@Z$2
__ehfuncinfo$?OnRequestModifyFriend@CDataBaseEngineSink@@IAE_NKPAXG@Z DD 019930522H
	DD	02H
	DD	FLAT:__unwindtable$?OnRequestModifyFriend@CDataBaseEngineSink@@IAE_NKPAXG@Z
	DD	01H
	DD	FLAT:__tryblocktable$?OnRequestModifyFriend@CDataBaseEngineSink@@IAE_NKPAXG@Z
	DD	2 DUP(00H)
	DD	00H
	DD	01H
xdata$x	ENDS
;	COMDAT xdata$x
xdata$x	SEGMENT
__catchsym$?OnRequestLogonUserID@CDataBaseEngineSink@@IAE_NKPAXG@Z$4 DD 00H
	DD	FLAT:??_R0PAUIDataBaseException@@@8
	DD	0fff94a24H
	DD	FLAT:__catch$?OnRequestLogonUserID@CDataBaseEngineSink@@IAE_NKPAXG@Z$0
__tryblocktable$?OnRequestLogonUserID@CDataBaseEngineSink@@IAE_NKPAXG@Z DD 00H
	DD	02H
	DD	03H
	DD	01H
	DD	FLAT:__catchsym$?OnRequestLogonUserID@CDataBaseEngineSink@@IAE_NKPAXG@Z$4
__unwindtable$?OnRequestLogonUserID@CDataBaseEngineSink@@IAE_NKPAXG@Z DD 0ffffffffH
	DD	00H
	DD	00H
	DD	FLAT:__unwindfunclet$?OnRequestLogonUserID@CDataBaseEngineSink@@IAE_NKPAXG@Z$2
	DD	01H
	DD	FLAT:__unwindfunclet$?OnRequestLogonUserID@CDataBaseEngineSink@@IAE_NKPAXG@Z$3
	DD	0ffffffffH
	DD	00H
__ehfuncinfo$?OnRequestLogonUserID@CDataBaseEngineSink@@IAE_NKPAXG@Z DD 019930522H
	DD	04H
	DD	FLAT:__unwindtable$?OnRequestLogonUserID@CDataBaseEngineSink@@IAE_NKPAXG@Z
	DD	01H
	DD	FLAT:__tryblocktable$?OnRequestLogonUserID@CDataBaseEngineSink@@IAE_NKPAXG@Z
	DD	2 DUP(00H)
	DD	00H
	DD	01H
xdata$x	ENDS
;	COMDAT xdata$x
xdata$x	SEGMENT
__catchsym$?OnDataBaseEngineStart@CDataBaseEngineSink@@UAE_NPAUIUnknownEx@@@Z$2 DD 00H
	DD	FLAT:??_R0PAUIDataBaseException@@@8
	DD	0ffffffdcH
	DD	FLAT:__catch$?OnDataBaseEngineStart@CDataBaseEngineSink@@UAE_NPAUIUnknownEx@@@Z$0
__unwindtable$?OnDataBaseEngineStart@CDataBaseEngineSink@@UAE_NPAUIUnknownEx@@@Z DD 0ffffffffH
	DD	00H
	DD	0ffffffffH
	DD	00H
__tryblocktable$?OnDataBaseEngineStart@CDataBaseEngineSink@@UAE_NPAUIUnknownEx@@@Z DD 00H
	DD	00H
	DD	01H
	DD	01H
	DD	FLAT:__catchsym$?OnDataBaseEngineStart@CDataBaseEngineSink@@UAE_NPAUIUnknownEx@@@Z$2
__ehfuncinfo$?OnDataBaseEngineStart@CDataBaseEngineSink@@UAE_NPAUIUnknownEx@@@Z DD 019930522H
	DD	02H
	DD	FLAT:__unwindtable$?OnDataBaseEngineStart@CDataBaseEngineSink@@UAE_NPAUIUnknownEx@@@Z
	DD	01H
	DD	FLAT:__tryblocktable$?OnDataBaseEngineStart@CDataBaseEngineSink@@UAE_NPAUIUnknownEx@@@Z
	DD	2 DUP(00H)
	DD	00H
	DD	01H
xdata$x	ENDS
;	COMDAT xdata$x
xdata$x	SEGMENT
__ehfuncinfo$??0CDataBaseEngineSink@@QAE@XZ DD 019930522H
	DD	05H
	DD	FLAT:__unwindtable$??0CDataBaseEngineSink@@QAE@XZ
	DD	2 DUP(00H)
	DD	2 DUP(00H)
	DD	00H
	DD	01H
__unwindtable$??0CDataBaseEngineSink@@QAE@XZ DD 0ffffffffH
	DD	FLAT:__unwindfunclet$??0CDataBaseEngineSink@@QAE@XZ$0
	DD	00H
	DD	FLAT:__unwindfunclet$??0CDataBaseEngineSink@@QAE@XZ$1
	DD	01H
	DD	FLAT:__unwindfunclet$??0CDataBaseEngineSink@@QAE@XZ$2
	DD	02H
	DD	FLAT:__unwindfunclet$??0CDataBaseEngineSink@@QAE@XZ$3
	DD	03H
	DD	FLAT:__unwindfunclet$??0CDataBaseEngineSink@@QAE@XZ$4
xdata$x	ENDS
;	COMDAT xdata$x
xdata$x	SEGMENT
__unwindtable$?CreateInstance@?$CTempldateHelper@UIDataBase@@@@QAE_NXZ DD 0ffffffffH
	DD	00H
	DD	0ffffffffH
	DD	00H
__tryblocktable$?CreateInstance@?$CTempldateHelper@UIDataBase@@@@QAE_NXZ DD 00H
	DD	00H
	DD	01H
	DD	02H
	DD	FLAT:__catchsym$?CreateInstance@?$CTempldateHelper@UIDataBase@@@@QAE_NXZ$3
__catchsym$?CreateInstance@?$CTempldateHelper@UIDataBase@@@@QAE_NXZ$3 DD 01H
	DD	FLAT:??_R0PAD@8
	DD	0ffffffe4H
	DD	FLAT:__catch$?CreateInstance@?$CTempldateHelper@UIDataBase@@@@QAE_NXZ$0
	DD	040H
	DD	00H
	DD	00H
	DD	FLAT:__catch$?CreateInstance@?$CTempldateHelper@UIDataBase@@@@QAE_NXZ$1
__ehfuncinfo$?CreateInstance@?$CTempldateHelper@UIDataBase@@@@QAE_NXZ DD 019930522H
	DD	02H
	DD	FLAT:__unwindtable$?CreateInstance@?$CTempldateHelper@UIDataBase@@@@QAE_NXZ
	DD	01H
	DD	FLAT:__tryblocktable$?CreateInstance@?$CTempldateHelper@UIDataBase@@@@QAE_NXZ
	DD	2 DUP(00H)
	DD	00H
	DD	01H
xdata$x	ENDS
;	COMDAT xdata$x
xdata$x	SEGMENT
__ehfuncinfo$??1?$CTempldateHelper@UIDataBase@@@@UAE@XZ DD 019930522H
	DD	00H
	DD	00H
	DD	2 DUP(00H)
	DD	2 DUP(00H)
	DD	00H
	DD	05H
xdata$x	ENDS
;	COMDAT xdata$x
xdata$x	SEGMENT
__unwindtable$??RCTraceFileAndLineInfo@ATL@@QBAXHIPBDZZ DD 0ffffffffH
	DD	FLAT:__unwindfunclet$??RCTraceFileAndLineInfo@ATL@@QBAXHIPBDZZ$0
__ehfuncinfo$??RCTraceFileAndLineInfo@ATL@@QBAXHIPBDZZ DD 019930522H
	DD	01H
	DD	FLAT:__unwindtable$??RCTraceFileAndLineInfo@ATL@@QBAXHIPBDZZ
	DD	2 DUP(00H)
	DD	2 DUP(00H)
	DD	00H
	DD	01H
xdata$x	ENDS
;	COMDAT xdata$x
xdata$x	SEGMENT
__unwindtable$?TraceV@CTrace@ATL@@SAXPBDHII0PAD@Z DD 0ffffffffH
	DD	FLAT:__unwindfunclet$?TraceV@CTrace@ATL@@SAXPBDHII0PAD@Z$0
	DD	00H
	DD	FLAT:__unwindfunclet$?TraceV@CTrace@ATL@@SAXPBDHII0PAD@Z$1
__ehfuncinfo$?TraceV@CTrace@ATL@@SAXPBDHII0PAD@Z DD 019930522H
	DD	02H
	DD	FLAT:__unwindtable$?TraceV@CTrace@ATL@@SAXPBDHII0PAD@Z
	DD	2 DUP(00H)
	DD	2 DUP(00H)
	DD	00H
	DD	01H
xdata$x	ENDS
; Function compile flags: /Odtp /ZI
; File c:\program files (x86)\windows kits\10\include\10.0.17763.0\ucrt\stdio.h
;	COMDAT ??$_snprintf_s@$0IA@@@YAHAAY0IA@DIPBDZZ
_TEXT	SEGMENT
__ArgList$ = -4						; size = 4
__Buffer$ = 8						; size = 4
__BufferCount$ = 12					; size = 4
__Format$ = 16						; size = 4
??$_snprintf_s@$0IA@@@YAHAAY0IA@DIPBDZZ PROC		; _snprintf_s<128>, COMDAT

; 2079 :         )

  00000	55		 push	 ebp
  00001	8b ec		 mov	 ebp, esp
  00003	83 ec 48	 sub	 esp, 72			; 00000048H
  00006	53		 push	 ebx
  00007	56		 push	 esi
  00008	57		 push	 edi

; 2073 :     __DEFINE_CPP_OVERLOAD_SECURE_FUNC_0_2_ARGLIST(

  00009	8d 45 14	 lea	 eax, DWORD PTR __Format$[ebp+4]
  0000c	89 45 fc	 mov	 DWORD PTR __ArgList$[ebp], eax
  0000f	8b 45 fc	 mov	 eax, DWORD PTR __ArgList$[ebp]
  00012	50		 push	 eax
  00013	8b 4d 10	 mov	 ecx, DWORD PTR __Format$[ebp]
  00016	51		 push	 ecx
  00017	8b 55 0c	 mov	 edx, DWORD PTR __BufferCount$[ebp]
  0001a	52		 push	 edx
  0001b	68 80 00 00 00	 push	 128			; 00000080H
  00020	8b 45 08	 mov	 eax, DWORD PTR __Buffer$[ebp]
  00023	50		 push	 eax
  00024	e8 00 00 00 00	 call	 __vsnprintf_s
  00029	83 c4 14	 add	 esp, 20			; 00000014H
  0002c	5f		 pop	 edi
  0002d	5e		 pop	 esi
  0002e	5b		 pop	 ebx
  0002f	8b e5		 mov	 esp, ebp
  00031	5d		 pop	 ebp
  00032	c3		 ret	 0
??$_snprintf_s@$0IA@@@YAHAAY0IA@DIPBDZZ ENDP		; _snprintf_s<128>
_TEXT	ENDS
; Function compile flags: /Odtp /ZI
; File c:\program files (x86)\microsoft visual studio\2017\community\vc\tools\msvc\14.16.27023\atlmfc\include\atlconv.h
;	COMDAT ??$AtlConvAllocMemory@D@ATL@@YAXPAPADHPADH@Z
_TEXT	SEGMENT
tv129 = -84						; size = 4
tv81 = -84						; size = 4
tv65 = -84						; size = 4
_ppReallocBuf$1 = -16					; size = 4
___atl_condVal$2 = -12					; size = 4
___atl_condVal$3 = -8					; size = 4
___atl_condVal$4 = -4					; size = 4
_ppBuff$ = 8						; size = 4
_nLength$ = 12						; size = 4
_pszFixedBuffer$ = 16					; size = 4
_nFixedBufferLength$ = 20				; size = 4
??$AtlConvAllocMemory@D@ATL@@YAXPAPADHPADH@Z PROC	; ATL::AtlConvAllocMemory<char>, COMDAT

; 112  : {

  00000	55		 push	 ebp
  00001	8b ec		 mov	 ebp, esp
  00003	83 ec 54	 sub	 esp, 84			; 00000054H
  00006	53		 push	 ebx
  00007	56		 push	 esi
  00008	57		 push	 edi
$LN4@AtlConvAll:

; 113  : 	ATLENSURE_THROW(ppBuff != NULL, E_INVALIDARG);

  00009	83 7d 08 00	 cmp	 DWORD PTR _ppBuff$[ebp], 0
  0000d	74 09		 je	 SHORT $LN32@AtlConvAll
  0000f	c7 45 ac 01 00
	00 00		 mov	 DWORD PTR tv65[ebp], 1
  00016	eb 07		 jmp	 SHORT $LN33@AtlConvAll
$LN32@AtlConvAll:
  00018	c7 45 ac 00 00
	00 00		 mov	 DWORD PTR tv65[ebp], 0
$LN33@AtlConvAll:
  0001f	8b 45 ac	 mov	 eax, DWORD PTR tv65[ebp]
  00022	89 45 fc	 mov	 DWORD PTR ___atl_condVal$4[ebp], eax
$LN7@AtlConvAll:
  00025	83 7d fc 00	 cmp	 DWORD PTR ___atl_condVal$4[ebp], 0
  00029	75 24		 jne	 SHORT $LN5@AtlConvAll
  0002b	68 00 00 00 00	 push	 OFFSET ??_C@_1BM@GBBOFEAE@?$AA_?$AA_?$AAa?$AAt?$AAl?$AA_?$AAc?$AAo?$AAn?$AAd?$AAV?$AAa?$AAl@
  00030	68 00 00 00 00	 push	 OFFSET ??_C@_17CNPHIMPH@?$AA?$CF?$AAl?$AAs@
  00035	6a 00		 push	 0
  00037	6a 71		 push	 113			; 00000071H
  00039	68 00 00 00 00	 push	 OFFSET ??_C@_1OC@PNEKCFJL@?$AAc?$AA?3?$AA?2?$AAp?$AAr?$AAo?$AAg?$AAr?$AAa?$AAm?$AA?5?$AAf?$AAi?$AAl?$AAe@
  0003e	6a 02		 push	 2
  00040	ff 15 00 00 00
	00		 call	 DWORD PTR __imp___CrtDbgReportW
  00046	83 c4 18	 add	 esp, 24			; 00000018H
  00049	83 f8 01	 cmp	 eax, 1
  0004c	75 01		 jne	 SHORT $LN5@AtlConvAll
  0004e	cc		 int	 3
$LN5@AtlConvAll:
  0004f	33 c0		 xor	 eax, eax
  00051	75 d2		 jne	 SHORT $LN7@AtlConvAll
  00053	83 7d fc 00	 cmp	 DWORD PTR ___atl_condVal$4[ebp], 0
  00057	75 0a		 jne	 SHORT $LN2@AtlConvAll
  00059	68 57 00 07 80	 push	 -2147024809		; 80070057H
  0005e	e8 00 00 00 00	 call	 ?AtlThrowImpl@ATL@@YGXJ@Z ; ATL::AtlThrowImpl
$LN2@AtlConvAll:
  00063	33 c0		 xor	 eax, eax
  00065	75 a2		 jne	 SHORT $LN4@AtlConvAll
$LN10@AtlConvAll:

; 114  : 	ATLENSURE_THROW(nLength >= 0, E_INVALIDARG);

  00067	83 7d 0c 00	 cmp	 DWORD PTR _nLength$[ebp], 0
  0006b	7c 09		 jl	 SHORT $LN35@AtlConvAll
  0006d	c7 45 ac 01 00
	00 00		 mov	 DWORD PTR tv81[ebp], 1
  00074	eb 07		 jmp	 SHORT $LN36@AtlConvAll
$LN35@AtlConvAll:
  00076	c7 45 ac 00 00
	00 00		 mov	 DWORD PTR tv81[ebp], 0
$LN36@AtlConvAll:
  0007d	8b 45 ac	 mov	 eax, DWORD PTR tv81[ebp]
  00080	89 45 f8	 mov	 DWORD PTR ___atl_condVal$3[ebp], eax
$LN13@AtlConvAll:
  00083	83 7d f8 00	 cmp	 DWORD PTR ___atl_condVal$3[ebp], 0
  00087	75 24		 jne	 SHORT $LN11@AtlConvAll
  00089	68 00 00 00 00	 push	 OFFSET ??_C@_1BM@GBBOFEAE@?$AA_?$AA_?$AAa?$AAt?$AAl?$AA_?$AAc?$AAo?$AAn?$AAd?$AAV?$AAa?$AAl@
  0008e	68 00 00 00 00	 push	 OFFSET ??_C@_17CNPHIMPH@?$AA?$CF?$AAl?$AAs@
  00093	6a 00		 push	 0
  00095	6a 72		 push	 114			; 00000072H
  00097	68 00 00 00 00	 push	 OFFSET ??_C@_1OC@PNEKCFJL@?$AAc?$AA?3?$AA?2?$AAp?$AAr?$AAo?$AAg?$AAr?$AAa?$AAm?$AA?5?$AAf?$AAi?$AAl?$AAe@
  0009c	6a 02		 push	 2
  0009e	ff 15 00 00 00
	00		 call	 DWORD PTR __imp___CrtDbgReportW
  000a4	83 c4 18	 add	 esp, 24			; 00000018H
  000a7	83 f8 01	 cmp	 eax, 1
  000aa	75 01		 jne	 SHORT $LN11@AtlConvAll
  000ac	cc		 int	 3
$LN11@AtlConvAll:
  000ad	33 c0		 xor	 eax, eax
  000af	75 d2		 jne	 SHORT $LN13@AtlConvAll
  000b1	83 7d f8 00	 cmp	 DWORD PTR ___atl_condVal$3[ebp], 0
  000b5	75 0a		 jne	 SHORT $LN8@AtlConvAll
  000b7	68 57 00 07 80	 push	 -2147024809		; 80070057H
  000bc	e8 00 00 00 00	 call	 ?AtlThrowImpl@ATL@@YGXJ@Z ; ATL::AtlThrowImpl
$LN8@AtlConvAll:
  000c1	33 c0		 xor	 eax, eax
  000c3	75 a2		 jne	 SHORT $LN10@AtlConvAll
$LN16@AtlConvAll:

; 115  : 	ATLENSURE_THROW(pszFixedBuffer != NULL, E_INVALIDARG);

  000c5	83 7d 10 00	 cmp	 DWORD PTR _pszFixedBuffer$[ebp], 0
  000c9	74 09		 je	 SHORT $LN38@AtlConvAll
  000cb	c7 45 ac 01 00
	00 00		 mov	 DWORD PTR tv129[ebp], 1
  000d2	eb 07		 jmp	 SHORT $LN39@AtlConvAll
$LN38@AtlConvAll:
  000d4	c7 45 ac 00 00
	00 00		 mov	 DWORD PTR tv129[ebp], 0
$LN39@AtlConvAll:
  000db	8b 45 ac	 mov	 eax, DWORD PTR tv129[ebp]
  000de	89 45 f4	 mov	 DWORD PTR ___atl_condVal$2[ebp], eax
$LN19@AtlConvAll:
  000e1	83 7d f4 00	 cmp	 DWORD PTR ___atl_condVal$2[ebp], 0
  000e5	75 24		 jne	 SHORT $LN17@AtlConvAll
  000e7	68 00 00 00 00	 push	 OFFSET ??_C@_1BM@GBBOFEAE@?$AA_?$AA_?$AAa?$AAt?$AAl?$AA_?$AAc?$AAo?$AAn?$AAd?$AAV?$AAa?$AAl@
  000ec	68 00 00 00 00	 push	 OFFSET ??_C@_17CNPHIMPH@?$AA?$CF?$AAl?$AAs@
  000f1	6a 00		 push	 0
  000f3	6a 73		 push	 115			; 00000073H
  000f5	68 00 00 00 00	 push	 OFFSET ??_C@_1OC@PNEKCFJL@?$AAc?$AA?3?$AA?2?$AAp?$AAr?$AAo?$AAg?$AAr?$AAa?$AAm?$AA?5?$AAf?$AAi?$AAl?$AAe@
  000fa	6a 02		 push	 2
  000fc	ff 15 00 00 00
	00		 call	 DWORD PTR __imp___CrtDbgReportW
  00102	83 c4 18	 add	 esp, 24			; 00000018H
  00105	83 f8 01	 cmp	 eax, 1
  00108	75 01		 jne	 SHORT $LN17@AtlConvAll
  0010a	cc		 int	 3
$LN17@AtlConvAll:
  0010b	33 c0		 xor	 eax, eax
  0010d	75 d2		 jne	 SHORT $LN19@AtlConvAll
  0010f	83 7d f4 00	 cmp	 DWORD PTR ___atl_condVal$2[ebp], 0
  00113	75 0a		 jne	 SHORT $LN14@AtlConvAll
  00115	68 57 00 07 80	 push	 -2147024809		; 80070057H
  0011a	e8 00 00 00 00	 call	 ?AtlThrowImpl@ATL@@YGXJ@Z ; ATL::AtlThrowImpl
$LN14@AtlConvAll:
  0011f	33 c0		 xor	 eax, eax
  00121	75 a2		 jne	 SHORT $LN16@AtlConvAll

; 116  : 
; 117  : 	//if buffer malloced, try to realloc.
; 118  : 	if (*ppBuff != pszFixedBuffer)

  00123	8b 45 08	 mov	 eax, DWORD PTR _ppBuff$[ebp]
  00126	8b 08		 mov	 ecx, DWORD PTR [eax]
  00128	3b 4d 10	 cmp	 ecx, DWORD PTR _pszFixedBuffer$[ebp]
  0012b	74 53		 je	 SHORT $LN23@AtlConvAll

; 119  : 	{
; 120  : 		if( nLength > nFixedBufferLength )

  0012d	8b 45 0c	 mov	 eax, DWORD PTR _nLength$[ebp]
  00130	3b 45 14	 cmp	 eax, DWORD PTR _nFixedBufferLength$[ebp]
  00133	7e 32		 jle	 SHORT $LN25@AtlConvAll

; 121  : 		{
; 122  : 			_CharType* ppReallocBuf = static_cast< _CharType* >( _recalloc(*ppBuff, nLength,sizeof( _CharType ) ) );

  00135	6a 01		 push	 1
  00137	8b 45 0c	 mov	 eax, DWORD PTR _nLength$[ebp]
  0013a	50		 push	 eax
  0013b	8b 4d 08	 mov	 ecx, DWORD PTR _ppBuff$[ebp]
  0013e	8b 11		 mov	 edx, DWORD PTR [ecx]
  00140	52		 push	 edx
  00141	ff 15 00 00 00
	00		 call	 DWORD PTR __imp___recalloc
  00147	83 c4 0c	 add	 esp, 12			; 0000000cH
  0014a	89 45 f0	 mov	 DWORD PTR _ppReallocBuf$1[ebp], eax

; 123  : 			if (ppReallocBuf == NULL)

  0014d	83 7d f0 00	 cmp	 DWORD PTR _ppReallocBuf$1[ebp], 0
  00151	75 0a		 jne	 SHORT $LN27@AtlConvAll

; 124  : 			{
; 125  : 				AtlThrow( E_OUTOFMEMORY );

  00153	68 0e 00 07 80	 push	 -2147024882		; 8007000eH
  00158	e8 00 00 00 00	 call	 ?AtlThrowImpl@ATL@@YGXJ@Z ; ATL::AtlThrowImpl
$LN27@AtlConvAll:

; 126  : 			}
; 127  : 			*ppBuff = ppReallocBuf;

  0015d	8b 45 08	 mov	 eax, DWORD PTR _ppBuff$[ebp]
  00160	8b 4d f0	 mov	 ecx, DWORD PTR _ppReallocBuf$1[ebp]
  00163	89 08		 mov	 DWORD PTR [eax], ecx

; 128  : 		} else

  00165	eb 17		 jmp	 SHORT $LN26@AtlConvAll
$LN25@AtlConvAll:

; 129  : 		{
; 130  : 			free(*ppBuff);

  00167	8b 45 08	 mov	 eax, DWORD PTR _ppBuff$[ebp]
  0016a	8b 08		 mov	 ecx, DWORD PTR [eax]
  0016c	51		 push	 ecx
  0016d	ff 15 00 00 00
	00		 call	 DWORD PTR __imp__free
  00173	83 c4 04	 add	 esp, 4

; 131  : 			*ppBuff=pszFixedBuffer;

  00176	8b 45 08	 mov	 eax, DWORD PTR _ppBuff$[ebp]
  00179	8b 4d 10	 mov	 ecx, DWORD PTR _pszFixedBuffer$[ebp]
  0017c	89 08		 mov	 DWORD PTR [eax], ecx
$LN26@AtlConvAll:

; 132  : 		}
; 133  : 
; 134  : 	} else //Buffer is not currently malloced.

  0017e	eb 26		 jmp	 SHORT $LN24@AtlConvAll
$LN23@AtlConvAll:

; 135  : 	{
; 136  : 		if( nLength > nFixedBufferLength )

  00180	8b 45 0c	 mov	 eax, DWORD PTR _nLength$[ebp]
  00183	3b 45 14	 cmp	 eax, DWORD PTR _nFixedBufferLength$[ebp]
  00186	7e 16		 jle	 SHORT $LN28@AtlConvAll

; 137  : 		{
; 138  : 			*ppBuff = static_cast< _CharType* >( calloc(nLength,sizeof( _CharType ) ) );

  00188	6a 01		 push	 1
  0018a	8b 45 0c	 mov	 eax, DWORD PTR _nLength$[ebp]
  0018d	50		 push	 eax
  0018e	ff 15 00 00 00
	00		 call	 DWORD PTR __imp__calloc
  00194	83 c4 08	 add	 esp, 8
  00197	8b 4d 08	 mov	 ecx, DWORD PTR _ppBuff$[ebp]
  0019a	89 01		 mov	 DWORD PTR [ecx], eax

; 139  : 		} else

  0019c	eb 08		 jmp	 SHORT $LN24@AtlConvAll
$LN28@AtlConvAll:

; 140  : 		{
; 141  : 			*ppBuff=pszFixedBuffer;

  0019e	8b 45 08	 mov	 eax, DWORD PTR _ppBuff$[ebp]
  001a1	8b 4d 10	 mov	 ecx, DWORD PTR _pszFixedBuffer$[ebp]
  001a4	89 08		 mov	 DWORD PTR [eax], ecx
$LN24@AtlConvAll:

; 142  : 		}
; 143  : 	}
; 144  : 
; 145  : 	if (*ppBuff == NULL)

  001a6	8b 45 08	 mov	 eax, DWORD PTR _ppBuff$[ebp]
  001a9	83 38 00	 cmp	 DWORD PTR [eax], 0
  001ac	75 0a		 jne	 SHORT $LN31@AtlConvAll

; 146  : 	{
; 147  : 		AtlThrow( E_OUTOFMEMORY );

  001ae	68 0e 00 07 80	 push	 -2147024882		; 8007000eH
  001b3	e8 00 00 00 00	 call	 ?AtlThrowImpl@ATL@@YGXJ@Z ; ATL::AtlThrowImpl
$LN31@AtlConvAll:

; 148  : 	}
; 149  : }

  001b8	5f		 pop	 edi
  001b9	5e		 pop	 esi
  001ba	5b		 pop	 ebx
  001bb	8b e5		 mov	 esp, ebp
  001bd	5d		 pop	 ebp
  001be	c3		 ret	 0
??$AtlConvAllocMemory@D@ATL@@YAXPAPADHPADH@Z ENDP	; ATL::AtlConvAllocMemory<char>
_TEXT	ENDS
; Function compile flags: /Odtp /ZI
; File c:\program files (x86)\microsoft visual studio\2017\community\vc\tools\msvc\14.16.27023\atlmfc\include\atlconv.h
;	COMDAT ??$AtlConvFreeMemory@D@ATL@@YAXPAD0H@Z
_TEXT	SEGMENT
_pBuff$ = 8						; size = 4
_pszFixedBuffer$ = 12					; size = 4
_nFixedBufferLength$ = 16				; size = 4
??$AtlConvFreeMemory@D@ATL@@YAXPAD0H@Z PROC		; ATL::AtlConvFreeMemory<char>, COMDAT

; 156  : {

  00000	55		 push	 ebp
  00001	8b ec		 mov	 ebp, esp
  00003	83 ec 40	 sub	 esp, 64			; 00000040H
  00006	53		 push	 ebx
  00007	56		 push	 esi
  00008	57		 push	 edi

; 157  : 	(nFixedBufferLength);
; 158  : 	if( pBuff != pszFixedBuffer )

  00009	8b 45 08	 mov	 eax, DWORD PTR _pBuff$[ebp]
  0000c	3b 45 0c	 cmp	 eax, DWORD PTR _pszFixedBuffer$[ebp]
  0000f	74 0f		 je	 SHORT $LN2@AtlConvFre

; 159  : 	{
; 160  : 		free( pBuff );

  00011	8b 45 08	 mov	 eax, DWORD PTR _pBuff$[ebp]
  00014	50		 push	 eax
  00015	ff 15 00 00 00
	00		 call	 DWORD PTR __imp__free
  0001b	83 c4 04	 add	 esp, 4

; 161  : 	}
; 162  : #ifdef _DEBUG
; 163  : 	else

  0001e	eb 15		 jmp	 SHORT $LN1@AtlConvFre
$LN2@AtlConvFre:

; 164  : 	{
; 165  : 		memset(pszFixedBuffer,ATLCONV_DEADLAND_FILL,nFixedBufferLength*sizeof(_CharType));

  00020	8b 45 10	 mov	 eax, DWORD PTR _nFixedBufferLength$[ebp]
  00023	50		 push	 eax
  00024	68 fe 00 00 00	 push	 254			; 000000feH
  00029	8b 4d 0c	 mov	 ecx, DWORD PTR _pszFixedBuffer$[ebp]
  0002c	51		 push	 ecx
  0002d	e8 00 00 00 00	 call	 _memset
  00032	83 c4 0c	 add	 esp, 12			; 0000000cH
$LN1@AtlConvFre:

; 166  : 	}
; 167  : #endif
; 168  : }

  00035	5f		 pop	 edi
  00036	5e		 pop	 esi
  00037	5b		 pop	 ebx
  00038	8b e5		 mov	 esp, ebp
  0003a	5d		 pop	 ebp
  0003b	c3		 ret	 0
??$AtlConvFreeMemory@D@ATL@@YAXPAD0H@Z ENDP		; ATL::AtlConvFreeMemory<char>
_TEXT	ENDS
; Function compile flags: /Odtp /ZI
; File c:\program files (x86)\microsoft visual studio\2017\community\vc\tools\msvc\14.16.27023\atlmfc\include\atlconv.h
;	COMDAT ?Init@?$CW2AEX@$0IA@@ATL@@AAEXPB_WI@Z
_TEXT	SEGMENT
tv149 = -84						; size = 4
tv87 = -84						; size = 4
_bFailed$ = -16						; size = 4
_nLengthA$ = -12					; size = 4
_nLengthW$ = -8						; size = 4
_this$ = -4						; size = 4
_psz$ = 8						; size = 4
_nConvertCodePage$ = 12					; size = 4
?Init@?$CW2AEX@$0IA@@ATL@@AAEXPB_WI@Z PROC		; ATL::CW2AEX<128>::Init, COMDAT
; _this$ = ecx

; 439  : 	{

  00000	55		 push	 ebp
  00001	8b ec		 mov	 ebp, esp
  00003	83 ec 54	 sub	 esp, 84			; 00000054H
  00006	53		 push	 ebx
  00007	56		 push	 esi
  00008	57		 push	 edi
  00009	89 4d fc	 mov	 DWORD PTR _this$[ebp], ecx

; 440  : 		if (psz == NULL)

  0000c	83 7d 08 00	 cmp	 DWORD PTR _psz$[ebp], 0
  00010	75 0e		 jne	 SHORT $LN2@Init

; 441  : 		{
; 442  : 			m_psz = NULL;

  00012	8b 45 fc	 mov	 eax, DWORD PTR _this$[ebp]
  00015	c7 00 00 00 00
	00		 mov	 DWORD PTR [eax], 0

; 443  : 			return;

  0001b	e9 25 01 00 00	 jmp	 $LN6@Init
$LN2@Init:

; 444  : 		}
; 445  : 		int nLengthW = static_cast<int>(wcslen( psz ))+1;

  00020	8b 45 08	 mov	 eax, DWORD PTR _psz$[ebp]
  00023	50		 push	 eax
  00024	ff 15 00 00 00
	00		 call	 DWORD PTR __imp__wcslen
  0002a	83 c4 04	 add	 esp, 4
  0002d	83 c0 01	 add	 eax, 1
  00030	89 45 f8	 mov	 DWORD PTR _nLengthW$[ebp], eax

; 446  : 		int nLengthA = nLengthW*4;

  00033	8b 45 f8	 mov	 eax, DWORD PTR _nLengthW$[ebp]
  00036	c1 e0 02	 shl	 eax, 2
  00039	89 45 f4	 mov	 DWORD PTR _nLengthA$[ebp], eax

; 447  : 
; 448  : 		AtlConvAllocMemory(&m_psz,nLengthA,m_szBuffer,t_nBufferLength);

  0003c	68 80 00 00 00	 push	 128			; 00000080H
  00041	8b 45 fc	 mov	 eax, DWORD PTR _this$[ebp]
  00044	83 c0 04	 add	 eax, 4
  00047	50		 push	 eax
  00048	8b 4d f4	 mov	 ecx, DWORD PTR _nLengthA$[ebp]
  0004b	51		 push	 ecx
  0004c	8b 55 fc	 mov	 edx, DWORD PTR _this$[ebp]
  0004f	52		 push	 edx
  00050	e8 00 00 00 00	 call	 ??$AtlConvAllocMemory@D@ATL@@YAXPAPADHPADH@Z ; ATL::AtlConvAllocMemory<char>
  00055	83 c4 10	 add	 esp, 16			; 00000010H

; 449  : 
; 450  : 		BOOL bFailed=(0 == ::WideCharToMultiByte( nConvertCodePage, 0, psz, nLengthW, m_psz, nLengthA, NULL, NULL ));

  00058	6a 00		 push	 0
  0005a	6a 00		 push	 0
  0005c	8b 45 f4	 mov	 eax, DWORD PTR _nLengthA$[ebp]
  0005f	50		 push	 eax
  00060	8b 4d fc	 mov	 ecx, DWORD PTR _this$[ebp]
  00063	8b 11		 mov	 edx, DWORD PTR [ecx]
  00065	52		 push	 edx
  00066	8b 45 f8	 mov	 eax, DWORD PTR _nLengthW$[ebp]
  00069	50		 push	 eax
  0006a	8b 4d 08	 mov	 ecx, DWORD PTR _psz$[ebp]
  0006d	51		 push	 ecx
  0006e	6a 00		 push	 0
  00070	8b 55 0c	 mov	 edx, DWORD PTR _nConvertCodePage$[ebp]
  00073	52		 push	 edx
  00074	ff 15 00 00 00
	00		 call	 DWORD PTR __imp__WideCharToMultiByte@32
  0007a	85 c0		 test	 eax, eax
  0007c	75 09		 jne	 SHORT $LN7@Init
  0007e	c7 45 ac 01 00
	00 00		 mov	 DWORD PTR tv87[ebp], 1
  00085	eb 07		 jmp	 SHORT $LN8@Init
$LN7@Init:
  00087	c7 45 ac 00 00
	00 00		 mov	 DWORD PTR tv87[ebp], 0
$LN8@Init:
  0008e	8b 45 ac	 mov	 eax, DWORD PTR tv87[ebp]
  00091	89 45 f0	 mov	 DWORD PTR _bFailed$[ebp], eax

; 451  : 		if (bFailed)

  00094	83 7d f0 00	 cmp	 DWORD PTR _bFailed$[ebp], 0
  00098	0f 84 82 00 00
	00		 je	 $LN3@Init

; 452  : 		{
; 453  : 			if (GetLastError()==ERROR_INSUFFICIENT_BUFFER)

  0009e	ff 15 00 00 00
	00		 call	 DWORD PTR __imp__GetLastError@0
  000a4	83 f8 7a	 cmp	 eax, 122		; 0000007aH
  000a7	75 77		 jne	 SHORT $LN3@Init

; 454  : 			{
; 455  : 				nLengthA = ::WideCharToMultiByte( nConvertCodePage, 0, psz, nLengthW, NULL, 0, NULL, NULL );

  000a9	6a 00		 push	 0
  000ab	6a 00		 push	 0
  000ad	6a 00		 push	 0
  000af	6a 00		 push	 0
  000b1	8b 45 f8	 mov	 eax, DWORD PTR _nLengthW$[ebp]
  000b4	50		 push	 eax
  000b5	8b 4d 08	 mov	 ecx, DWORD PTR _psz$[ebp]
  000b8	51		 push	 ecx
  000b9	6a 00		 push	 0
  000bb	8b 55 0c	 mov	 edx, DWORD PTR _nConvertCodePage$[ebp]
  000be	52		 push	 edx
  000bf	ff 15 00 00 00
	00		 call	 DWORD PTR __imp__WideCharToMultiByte@32
  000c5	89 45 f4	 mov	 DWORD PTR _nLengthA$[ebp], eax

; 456  : ATLPREFAST_SUPPRESS(6102)
; 457  :                 AtlConvAllocMemory(&m_psz,nLengthA,m_szBuffer,t_nBufferLength);

  000c8	68 80 00 00 00	 push	 128			; 00000080H
  000cd	8b 45 fc	 mov	 eax, DWORD PTR _this$[ebp]
  000d0	83 c0 04	 add	 eax, 4
  000d3	50		 push	 eax
  000d4	8b 4d f4	 mov	 ecx, DWORD PTR _nLengthA$[ebp]
  000d7	51		 push	 ecx
  000d8	8b 55 fc	 mov	 edx, DWORD PTR _this$[ebp]
  000db	52		 push	 edx
  000dc	e8 00 00 00 00	 call	 ??$AtlConvAllocMemory@D@ATL@@YAXPAPADHPADH@Z ; ATL::AtlConvAllocMemory<char>
  000e1	83 c4 10	 add	 esp, 16			; 00000010H

; 458  : ATLPREFAST_UNSUPPRESS()
; 459  : 				bFailed=(0 == ::WideCharToMultiByte( nConvertCodePage, 0, psz, nLengthW, m_psz, nLengthA, NULL, NULL ));

  000e4	6a 00		 push	 0
  000e6	6a 00		 push	 0
  000e8	8b 45 f4	 mov	 eax, DWORD PTR _nLengthA$[ebp]
  000eb	50		 push	 eax
  000ec	8b 4d fc	 mov	 ecx, DWORD PTR _this$[ebp]
  000ef	8b 11		 mov	 edx, DWORD PTR [ecx]
  000f1	52		 push	 edx
  000f2	8b 45 f8	 mov	 eax, DWORD PTR _nLengthW$[ebp]
  000f5	50		 push	 eax
  000f6	8b 4d 08	 mov	 ecx, DWORD PTR _psz$[ebp]
  000f9	51		 push	 ecx
  000fa	6a 00		 push	 0
  000fc	8b 55 0c	 mov	 edx, DWORD PTR _nConvertCodePage$[ebp]
  000ff	52		 push	 edx
  00100	ff 15 00 00 00
	00		 call	 DWORD PTR __imp__WideCharToMultiByte@32
  00106	85 c0		 test	 eax, eax
  00108	75 09		 jne	 SHORT $LN9@Init
  0010a	c7 45 ac 01 00
	00 00		 mov	 DWORD PTR tv149[ebp], 1
  00111	eb 07		 jmp	 SHORT $LN10@Init
$LN9@Init:
  00113	c7 45 ac 00 00
	00 00		 mov	 DWORD PTR tv149[ebp], 0
$LN10@Init:
  0011a	8b 45 ac	 mov	 eax, DWORD PTR tv149[ebp]
  0011d	89 45 f0	 mov	 DWORD PTR _bFailed$[ebp], eax
$LN3@Init:

; 460  : 			}
; 461  : 		}
; 462  : 		if (bFailed)

  00120	83 7d f0 00	 cmp	 DWORD PTR _bFailed$[ebp], 0
  00124	74 1f		 je	 SHORT $LN6@Init

; 463  : 		{
; 464  : 			AtlConvFreeMemory(m_psz, m_szBuffer, t_nBufferLength);

  00126	68 80 00 00 00	 push	 128			; 00000080H
  0012b	8b 45 fc	 mov	 eax, DWORD PTR _this$[ebp]
  0012e	83 c0 04	 add	 eax, 4
  00131	50		 push	 eax
  00132	8b 4d fc	 mov	 ecx, DWORD PTR _this$[ebp]
  00135	8b 11		 mov	 edx, DWORD PTR [ecx]
  00137	52		 push	 edx
  00138	e8 00 00 00 00	 call	 ??$AtlConvFreeMemory@D@ATL@@YAXPAD0H@Z ; ATL::AtlConvFreeMemory<char>
  0013d	83 c4 0c	 add	 esp, 12			; 0000000cH

; 465  : 			AtlThrowLastWin32();

  00140	e8 00 00 00 00	 call	 ?AtlThrowLastWin32@ATL@@YGXXZ ; ATL::AtlThrowLastWin32
$LN6@Init:

; 466  : 		}
; 467  : 	}

  00145	5f		 pop	 edi
  00146	5e		 pop	 esi
  00147	5b		 pop	 ebx
  00148	8b e5		 mov	 esp, ebp
  0014a	5d		 pop	 ebp
  0014b	c2 08 00	 ret	 8
?Init@?$CW2AEX@$0IA@@ATL@@AAEXPB_WI@Z ENDP		; ATL::CW2AEX<128>::Init
_TEXT	ENDS
; Function compile flags: /Odtp /ZI
; File c:\program files (x86)\microsoft visual studio\2017\community\vc\tools\msvc\14.16.27023\atlmfc\include\atlconv.h
;	COMDAT ??B?$CW2AEX@$0IA@@ATL@@QBEPADXZ
_TEXT	SEGMENT
_this$ = -4						; size = 4
??B?$CW2AEX@$0IA@@ATL@@QBEPADXZ PROC			; ATL::CW2AEX<128>::operator char *, COMDAT
; _this$ = ecx

; 431  : 	{

  00000	55		 push	 ebp
  00001	8b ec		 mov	 ebp, esp
  00003	83 ec 44	 sub	 esp, 68			; 00000044H
  00006	53		 push	 ebx
  00007	56		 push	 esi
  00008	57		 push	 edi
  00009	89 4d fc	 mov	 DWORD PTR _this$[ebp], ecx

; 432  : 		return( m_psz );

  0000c	8b 45 fc	 mov	 eax, DWORD PTR _this$[ebp]
  0000f	8b 00		 mov	 eax, DWORD PTR [eax]

; 433  : 	}

  00011	5f		 pop	 edi
  00012	5e		 pop	 esi
  00013	5b		 pop	 ebx
  00014	8b e5		 mov	 esp, ebp
  00016	5d		 pop	 ebp
  00017	c3		 ret	 0
??B?$CW2AEX@$0IA@@ATL@@QBEPADXZ ENDP			; ATL::CW2AEX<128>::operator char *
_TEXT	ENDS
; Function compile flags: /Odtp /ZI
; File c:\program files (x86)\microsoft visual studio\2017\community\vc\tools\msvc\14.16.27023\atlmfc\include\atlconv.h
;	COMDAT ??1?$CW2AEX@$0IA@@ATL@@QAE@XZ
_TEXT	SEGMENT
_this$ = -4						; size = 4
??1?$CW2AEX@$0IA@@ATL@@QAE@XZ PROC			; ATL::CW2AEX<128>::~CW2AEX<128>, COMDAT
; _this$ = ecx

; 426  : 	{

  00000	55		 push	 ebp
  00001	8b ec		 mov	 ebp, esp
  00003	83 ec 44	 sub	 esp, 68			; 00000044H
  00006	53		 push	 ebx
  00007	56		 push	 esi
  00008	57		 push	 edi
  00009	89 4d fc	 mov	 DWORD PTR _this$[ebp], ecx

; 427  : 		AtlConvFreeMemory(m_psz,m_szBuffer,t_nBufferLength);

  0000c	68 80 00 00 00	 push	 128			; 00000080H
  00011	8b 45 fc	 mov	 eax, DWORD PTR _this$[ebp]
  00014	83 c0 04	 add	 eax, 4
  00017	50		 push	 eax
  00018	8b 4d fc	 mov	 ecx, DWORD PTR _this$[ebp]
  0001b	8b 11		 mov	 edx, DWORD PTR [ecx]
  0001d	52		 push	 edx
  0001e	e8 00 00 00 00	 call	 ??$AtlConvFreeMemory@D@ATL@@YAXPAD0H@Z ; ATL::AtlConvFreeMemory<char>
  00023	83 c4 0c	 add	 esp, 12			; 0000000cH

; 428  : 	}

  00026	5f		 pop	 edi
  00027	5e		 pop	 esi
  00028	5b		 pop	 ebx
  00029	8b e5		 mov	 esp, ebp
  0002b	5d		 pop	 ebp
  0002c	c3		 ret	 0
??1?$CW2AEX@$0IA@@ATL@@QAE@XZ ENDP			; ATL::CW2AEX<128>::~CW2AEX<128>
_TEXT	ENDS
; Function compile flags: /Odtp /ZI
; File c:\program files (x86)\microsoft visual studio\2017\community\vc\tools\msvc\14.16.27023\atlmfc\include\atlconv.h
;	COMDAT ??0?$CW2AEX@$0IA@@ATL@@QAE@PB_W@Z
_TEXT	SEGMENT
_this$ = -4						; size = 4
_psz$ = 8						; size = 4
??0?$CW2AEX@$0IA@@ATL@@QAE@PB_W@Z PROC			; ATL::CW2AEX<128>::CW2AEX<128>, COMDAT
; _this$ = ecx

; 415  : 	{

  00000	55		 push	 ebp
  00001	8b ec		 mov	 ebp, esp
  00003	83 ec 44	 sub	 esp, 68			; 00000044H
  00006	53		 push	 ebx
  00007	56		 push	 esi
  00008	57		 push	 edi
  00009	89 4d fc	 mov	 DWORD PTR _this$[ebp], ecx

; 414  : 		m_psz( m_szBuffer )

  0000c	8b 45 fc	 mov	 eax, DWORD PTR _this$[ebp]
  0000f	83 c0 04	 add	 eax, 4
  00012	8b 4d fc	 mov	 ecx, DWORD PTR _this$[ebp]
  00015	89 01		 mov	 DWORD PTR [ecx], eax

; 416  : 		Init( psz, _AtlGetConversionACP() );

  00017	e8 00 00 00 00	 call	 ?_AtlGetConversionACP@ATL@@YGIXZ ; ATL::_AtlGetConversionACP
  0001c	50		 push	 eax
  0001d	8b 45 08	 mov	 eax, DWORD PTR _psz$[ebp]
  00020	50		 push	 eax
  00021	8b 4d fc	 mov	 ecx, DWORD PTR _this$[ebp]
  00024	e8 00 00 00 00	 call	 ?Init@?$CW2AEX@$0IA@@ATL@@AAEXPB_WI@Z ; ATL::CW2AEX<128>::Init

; 417  : 	}

  00029	8b 45 fc	 mov	 eax, DWORD PTR _this$[ebp]
  0002c	5f		 pop	 edi
  0002d	5e		 pop	 esi
  0002e	5b		 pop	 ebx
  0002f	8b e5		 mov	 esp, ebp
  00031	5d		 pop	 ebp
  00032	c2 04 00	 ret	 4
??0?$CW2AEX@$0IA@@ATL@@QAE@PB_W@Z ENDP			; ATL::CW2AEX<128>::CW2AEX<128>
_TEXT	ENDS
; Function compile flags: /Odtp /ZI
;	COMDAT ??_GCDataBaseEngineSink@@UAEPAXI@Z
_TEXT	SEGMENT
_this$ = -4						; size = 4
___flags$ = 8						; size = 4
??_GCDataBaseEngineSink@@UAEPAXI@Z PROC			; CDataBaseEngineSink::`scalar deleting destructor', COMDAT
; _this$ = ecx
  00000	55		 push	 ebp
  00001	8b ec		 mov	 ebp, esp
  00003	83 ec 44	 sub	 esp, 68			; 00000044H
  00006	53		 push	 ebx
  00007	56		 push	 esi
  00008	57		 push	 edi
  00009	89 4d fc	 mov	 DWORD PTR _this$[ebp], ecx
  0000c	8b 4d fc	 mov	 ecx, DWORD PTR _this$[ebp]
  0000f	e8 00 00 00 00	 call	 ??1CDataBaseEngineSink@@UAE@XZ ; CDataBaseEngineSink::~CDataBaseEngineSink
  00014	8b 45 08	 mov	 eax, DWORD PTR ___flags$[ebp]
  00017	83 e0 01	 and	 eax, 1
  0001a	74 11		 je	 SHORT $LN2@scalar
  0001c	68 bc 07 00 00	 push	 1980			; 000007bcH
  00021	8b 45 fc	 mov	 eax, DWORD PTR _this$[ebp]
  00024	50		 push	 eax
  00025	e8 00 00 00 00	 call	 ??3@YAXPAXI@Z		; operator delete
  0002a	83 c4 08	 add	 esp, 8
$LN2@scalar:
  0002d	8b 45 fc	 mov	 eax, DWORD PTR _this$[ebp]
  00030	5f		 pop	 edi
  00031	5e		 pop	 esi
  00032	5b		 pop	 ebx
  00033	8b e5		 mov	 esp, ebp
  00035	5d		 pop	 ebp
  00036	c2 04 00	 ret	 4
??_GCDataBaseEngineSink@@UAEPAXI@Z ENDP			; CDataBaseEngineSink::`scalar deleting destructor'
_TEXT	ENDS
; Function compile flags: /Odtp /ZI
; File g:\网狐\happygamewh\服务端\系统模块\服务器组件\聊天服务器\databaseenginesink.cpp
;	COMDAT ?OnUserOperateResult@CDataBaseEngineSink@@AAEXK_NKGPBD@Z
_TEXT	SEGMENT
_wHeadSize$ = -152					; size = 2
_OperateResult$ = -148					; size = 140
_this$ = -8						; size = 4
__$ArrayPad$ = -4					; size = 4
_dwContextID$ = 8					; size = 4
_bOperateSucess$ = 12					; size = 1
_dwErrorCode$ = 16					; size = 4
_wOperateCode$ = 20					; size = 2
_pszDescribeString$ = 24				; size = 4
?OnUserOperateResult@CDataBaseEngineSink@@AAEXK_NKGPBD@Z PROC ; CDataBaseEngineSink::OnUserOperateResult, COMDAT
; _this$ = ecx

; 1119 : {

  00000	55		 push	 ebp
  00001	8b ec		 mov	 ebp, esp
  00003	81 ec d8 00 00
	00		 sub	 esp, 216		; 000000d8H
  00009	a1 00 00 00 00	 mov	 eax, DWORD PTR ___security_cookie
  0000e	33 c5		 xor	 eax, ebp
  00010	89 45 fc	 mov	 DWORD PTR __$ArrayPad$[ebp], eax
  00013	53		 push	 ebx
  00014	56		 push	 esi
  00015	57		 push	 edi
  00016	89 4d f8	 mov	 DWORD PTR _this$[ebp], ecx

; 1120 : 	//变量定义
; 1121 : 	DBO_GR_OperateResult OperateResult;
; 1122 : 
; 1123 : 	//设置变量
; 1124 : 	OperateResult.bModifySucesss=bOperateSucess;

  00019	8a 45 0c	 mov	 al, BYTE PTR _bOperateSucess$[ebp]
  0001c	88 85 6c ff ff
	ff		 mov	 BYTE PTR _OperateResult$[ebp], al

; 1125 : 	OperateResult.dwErrorCode=dwErrorCode;

  00022	8b 45 10	 mov	 eax, DWORD PTR _dwErrorCode$[ebp]
  00025	89 85 70 ff ff
	ff		 mov	 DWORD PTR _OperateResult$[ebp+4], eax

; 1126 : 	OperateResult.wOperateCode=wOperateCode;

  0002b	66 8b 45 14	 mov	 ax, WORD PTR _wOperateCode$[ebp]
  0002f	66 89 85 74 ff
	ff ff		 mov	 WORD PTR _OperateResult$[ebp+8], ax

; 1127 : 	lstrcpyn(OperateResult.szDescribeString,pszDescribeString,CountArray(OperateResult.szDescribeString));

  00036	68 80 00 00 00	 push	 128			; 00000080H
  0003b	8b 45 18	 mov	 eax, DWORD PTR _pszDescribeString$[ebp]
  0003e	50		 push	 eax
  0003f	8d 8d 76 ff ff
	ff		 lea	 ecx, DWORD PTR _OperateResult$[ebp+10]
  00045	51		 push	 ecx
  00046	ff 15 00 00 00
	00		 call	 DWORD PTR __imp__lstrcpynA@12

; 1128 : 
; 1129 : 	//发送结果
; 1130 : 	WORD wHeadSize=sizeof(OperateResult);

  0004c	b8 8c 00 00 00	 mov	 eax, 140		; 0000008cH
  00051	66 89 85 68 ff
	ff ff		 mov	 WORD PTR _wHeadSize$[ebp], ax

; 1131 : 	m_pIDataBaseEngineEvent->OnEventDataBaseResult(DBO_GR_OPERATE_RESULT,dwContextID,&OperateResult,wHeadSize);

  00058	0f b7 85 68 ff
	ff ff		 movzx	 eax, WORD PTR _wHeadSize$[ebp]
  0005f	50		 push	 eax
  00060	8d 8d 6c ff ff
	ff		 lea	 ecx, DWORD PTR _OperateResult$[ebp]
  00066	51		 push	 ecx
  00067	8b 55 08	 mov	 edx, DWORD PTR _dwContextID$[ebp]
  0006a	52		 push	 edx
  0006b	68 99 01 00 00	 push	 409			; 00000199H
  00070	8b 45 f8	 mov	 eax, DWORD PTR _this$[ebp]
  00073	8b 88 a8 05 00
	00		 mov	 ecx, DWORD PTR [eax+1448]
  00079	8b 55 f8	 mov	 edx, DWORD PTR _this$[ebp]
  0007c	8b 01		 mov	 eax, DWORD PTR [ecx]
  0007e	8b 8a a8 05 00
	00		 mov	 ecx, DWORD PTR [edx+1448]
  00084	8b 50 08	 mov	 edx, DWORD PTR [eax+8]
  00087	ff d2		 call	 edx

; 1132 : }

  00089	5f		 pop	 edi
  0008a	5e		 pop	 esi
  0008b	5b		 pop	 ebx
  0008c	8b 4d fc	 mov	 ecx, DWORD PTR __$ArrayPad$[ebp]
  0008f	33 cd		 xor	 ecx, ebp
  00091	e8 00 00 00 00	 call	 @__security_check_cookie@4
  00096	8b e5		 mov	 esp, ebp
  00098	5d		 pop	 ebp
  00099	c2 14 00	 ret	 20			; 00000014H
?OnUserOperateResult@CDataBaseEngineSink@@AAEXK_NKGPBD@Z ENDP ; CDataBaseEngineSink::OnUserOperateResult
_TEXT	ENDS
; Function compile flags: /Odtp /ZI
; File g:\网狐\happygamewh\服务端\系统模块\服务器组件\聊天服务器\databaseenginesink.cpp
;	COMDAT ?OnLogonDisposeResult@CDataBaseEngineSink@@AAEXKKPBD_NGG@Z
_TEXT	SEGMENT
_wHeadSize$1 = -152					; size = 2
_wDataSize$2 = -148					; size = 2
_LogonFailure$3 = -144					; size = 132
_wHeadSize$4 = -12					; size = 2
_this$ = -8						; size = 4
__$ArrayPad$ = -4					; size = 4
_dwContextID$ = 8					; size = 4
_dwErrorCode$ = 12					; size = 4
_pszErrorString$ = 16					; size = 4
_bMobileClient$ = 20					; size = 1
_wBehaviorFlags$ = 24					; size = 2
_wPageTableCount$ = 28					; size = 2
?OnLogonDisposeResult@CDataBaseEngineSink@@AAEXKKPBD_NGG@Z PROC ; CDataBaseEngineSink::OnLogonDisposeResult, COMDAT
; _this$ = ecx

; 1071 : {

  00000	55		 push	 ebp
  00001	8b ec		 mov	 ebp, esp
  00003	81 ec d8 00 00
	00		 sub	 esp, 216		; 000000d8H
  00009	a1 00 00 00 00	 mov	 eax, DWORD PTR ___security_cookie
  0000e	33 c5		 xor	 eax, ebp
  00010	89 45 fc	 mov	 DWORD PTR __$ArrayPad$[ebp], eax
  00013	53		 push	 ebx
  00014	56		 push	 esi
  00015	57		 push	 edi
  00016	89 4d f8	 mov	 DWORD PTR _this$[ebp], ecx

; 1072 : 	if (dwErrorCode==DB_SUCCESS)

  00019	83 7d 0c 00	 cmp	 DWORD PTR _dwErrorCode$[ebp], 0
  0001d	0f 85 fb 01 00
	00		 jne	 $LN2@OnLogonDis

; 1073 : 	{
; 1074 : 		//基本资料
; 1075 : 		m_LogonSuccess.dwUserID=m_AccountsDBAide.GetValue_DWORD(TEXT("UserID"));

  00023	68 00 00 00 00	 push	 OFFSET ??_C@_06OFHCDFJK@UserID@
  00028	8b 4d f8	 mov	 ecx, DWORD PTR _this$[ebp]
  0002b	83 c1 04	 add	 ecx, 4
  0002e	ff 15 00 00 00
	00		 call	 DWORD PTR __imp_?GetValue_DWORD@CDataBaseAide@@QAEKPBD@Z
  00034	8b 4d f8	 mov	 ecx, DWORD PTR _this$[ebp]
  00037	89 81 30 06 00
	00		 mov	 DWORD PTR [ecx+1584], eax

; 1076 : 		m_LogonSuccess.dwGameID=m_AccountsDBAide.GetValue_DWORD(TEXT("GameID"));

  0003d	68 00 00 00 00	 push	 OFFSET ??_C@_06KGJDDPAK@GameID@
  00042	8b 4d f8	 mov	 ecx, DWORD PTR _this$[ebp]
  00045	83 c1 04	 add	 ecx, 4
  00048	ff 15 00 00 00
	00		 call	 DWORD PTR __imp_?GetValue_DWORD@CDataBaseAide@@QAEKPBD@Z
  0004e	8b 4d f8	 mov	 ecx, DWORD PTR _this$[ebp]
  00051	89 81 34 06 00
	00		 mov	 DWORD PTR [ecx+1588], eax

; 1077 : 		m_AccountsDBAide.GetValue_String(TEXT("NickName"),m_LogonSuccess.szNickName,CountArray(m_LogonSuccess.szNickName));

  00057	6a 20		 push	 32			; 00000020H
  00059	8b 45 f8	 mov	 eax, DWORD PTR _this$[ebp]
  0005c	05 38 06 00 00	 add	 eax, 1592		; 00000638H
  00061	50		 push	 eax
  00062	68 00 00 00 00	 push	 OFFSET ??_C@_08CELDJAGK@NickName@
  00067	8b 4d f8	 mov	 ecx, DWORD PTR _this$[ebp]
  0006a	83 c1 04	 add	 ecx, 4
  0006d	ff 15 00 00 00
	00		 call	 DWORD PTR __imp_?GetValue_String@CDataBaseAide@@QAEXPBDPADI@Z

; 1078 : 		m_LogonSuccess.dwFaceID=m_AccountsDBAide.GetValue_DWORD(TEXT("FaceID"));

  00073	68 00 00 00 00	 push	 OFFSET ??_C@_06LPNEIKNP@FaceID@
  00078	8b 4d f8	 mov	 ecx, DWORD PTR _this$[ebp]
  0007b	83 c1 04	 add	 ecx, 4
  0007e	ff 15 00 00 00
	00		 call	 DWORD PTR __imp_?GetValue_DWORD@CDataBaseAide@@QAEKPBD@Z
  00084	8b 4d f8	 mov	 ecx, DWORD PTR _this$[ebp]
  00087	89 81 7c 06 00
	00		 mov	 DWORD PTR [ecx+1660], eax

; 1079 : 		m_LogonSuccess.dwCustomID=m_AccountsDBAide.GetValue_DWORD(TEXT("CustomID"));

  0008d	68 00 00 00 00	 push	 OFFSET ??_C@_08GOBKDNAK@CustomID@
  00092	8b 4d f8	 mov	 ecx, DWORD PTR _this$[ebp]
  00095	83 c1 04	 add	 ecx, 4
  00098	ff 15 00 00 00
	00		 call	 DWORD PTR __imp_?GetValue_DWORD@CDataBaseAide@@QAEKPBD@Z
  0009e	8b 4d f8	 mov	 ecx, DWORD PTR _this$[ebp]
  000a1	89 81 80 06 00
	00		 mov	 DWORD PTR [ecx+1664], eax

; 1080 : 		m_LogonSuccess.cbGender=m_AccountsDBAide.GetValue_BYTE(TEXT("Gender"));

  000a7	68 00 00 00 00	 push	 OFFSET ??_C@_06HKFFEOFI@Gender@
  000ac	8b 4d f8	 mov	 ecx, DWORD PTR _this$[ebp]
  000af	83 c1 04	 add	 ecx, 4
  000b2	ff 15 00 00 00
	00		 call	 DWORD PTR __imp_?GetValue_BYTE@CDataBaseAide@@QAEEPBD@Z
  000b8	8b 4d f8	 mov	 ecx, DWORD PTR _this$[ebp]
  000bb	88 81 84 06 00
	00		 mov	 BYTE PTR [ecx+1668], al

; 1081 : 		m_LogonSuccess.wMemberOrder=m_AccountsDBAide.GetValue_BYTE(TEXT("MemberOrder"));

  000c1	68 00 00 00 00	 push	 OFFSET ??_C@_0M@CEFIIFDG@MemberOrder@
  000c6	8b 4d f8	 mov	 ecx, DWORD PTR _this$[ebp]
  000c9	83 c1 04	 add	 ecx, 4
  000cc	ff 15 00 00 00
	00		 call	 DWORD PTR __imp_?GetValue_BYTE@CDataBaseAide@@QAEEPBD@Z
  000d2	66 0f b6 c0	 movzx	 ax, al
  000d6	8b 4d f8	 mov	 ecx, DWORD PTR _this$[ebp]
  000d9	66 89 81 86 06
	00 00		 mov	 WORD PTR [ecx+1670], ax

; 1082 : 		m_LogonSuccess.wGrowLevel=m_AccountsDBAide.GetValue_BYTE(TEXT("GrowLevel"));

  000e0	68 00 00 00 00	 push	 OFFSET ??_C@_09HOAKNMLL@GrowLevel@
  000e5	8b 4d f8	 mov	 ecx, DWORD PTR _this$[ebp]
  000e8	83 c1 04	 add	 ecx, 4
  000eb	ff 15 00 00 00
	00		 call	 DWORD PTR __imp_?GetValue_BYTE@CDataBaseAide@@QAEEPBD@Z
  000f1	66 0f b6 c0	 movzx	 ax, al
  000f5	8b 4d f8	 mov	 ecx, DWORD PTR _this$[ebp]
  000f8	66 89 81 88 06
	00 00		 mov	 WORD PTR [ecx+1672], ax

; 1083 : 		m_AccountsDBAide.GetValue_String(TEXT("UnderWrite"),m_LogonSuccess.szUnderWrite,CountArray(m_LogonSuccess.szUnderWrite));

  000ff	6a 20		 push	 32			; 00000020H
  00101	8b 45 f8	 mov	 eax, DWORD PTR _this$[ebp]
  00104	05 8a 06 00 00	 add	 eax, 1674		; 0000068aH
  00109	50		 push	 eax
  0010a	68 00 00 00 00	 push	 OFFSET ??_C@_0L@CPAJNIME@UnderWrite@
  0010f	8b 4d f8	 mov	 ecx, DWORD PTR _this$[ebp]
  00112	83 c1 04	 add	 ecx, 4
  00115	ff 15 00 00 00
	00		 call	 DWORD PTR __imp_?GetValue_String@CDataBaseAide@@QAEXPBDPADI@Z

; 1084 : 		m_AccountsDBAide.GetValue_String(TEXT("Compellation"),m_LogonSuccess.szCompellation,CountArray(m_LogonSuccess.szCompellation));

  0011b	6a 10		 push	 16			; 00000010H
  0011d	8b 45 f8	 mov	 eax, DWORD PTR _this$[ebp]
  00120	05 aa 06 00 00	 add	 eax, 1706		; 000006aaH
  00125	50		 push	 eax
  00126	68 00 00 00 00	 push	 OFFSET ??_C@_0N@CLIEFGAF@Compellation@
  0012b	8b 4d f8	 mov	 ecx, DWORD PTR _this$[ebp]
  0012e	83 c1 04	 add	 ecx, 4
  00131	ff 15 00 00 00
	00		 call	 DWORD PTR __imp_?GetValue_String@CDataBaseAide@@QAEXPBDPADI@Z

; 1085 : 
; 1086 :         //用户资料
; 1087 : 		m_AccountsDBAide.GetValue_String(TEXT("QQ"),m_LogonSuccess.szQQ,CountArray(m_LogonSuccess.szQQ));

  00137	6a 10		 push	 16			; 00000010H
  00139	8b 45 f8	 mov	 eax, DWORD PTR _this$[ebp]
  0013c	05 d4 06 00 00	 add	 eax, 1748		; 000006d4H
  00141	50		 push	 eax
  00142	68 00 00 00 00	 push	 OFFSET ??_C@_02MOGAAOHP@QQ@
  00147	8b 4d f8	 mov	 ecx, DWORD PTR _this$[ebp]
  0014a	83 c1 04	 add	 ecx, 4
  0014d	ff 15 00 00 00
	00		 call	 DWORD PTR __imp_?GetValue_String@CDataBaseAide@@QAEXPBDPADI@Z

; 1088 : 		m_AccountsDBAide.GetValue_String(TEXT("EMail"),m_LogonSuccess.szEMail,CountArray(m_LogonSuccess.szEMail));

  00153	6a 21		 push	 33			; 00000021H
  00155	8b 45 f8	 mov	 eax, DWORD PTR _this$[ebp]
  00158	05 e4 06 00 00	 add	 eax, 1764		; 000006e4H
  0015d	50		 push	 eax
  0015e	68 00 00 00 00	 push	 OFFSET ??_C@_05LMBPBNBJ@EMail@
  00163	8b 4d f8	 mov	 ecx, DWORD PTR _this$[ebp]
  00166	83 c1 04	 add	 ecx, 4
  00169	ff 15 00 00 00
	00		 call	 DWORD PTR __imp_?GetValue_String@CDataBaseAide@@QAEXPBDPADI@Z

; 1089 : 		m_AccountsDBAide.GetValue_String(TEXT("SeatPhone"),m_LogonSuccess.szSeatPhone,CountArray(m_LogonSuccess.szSeatPhone));

  0016f	6a 21		 push	 33			; 00000021H
  00171	8b 45 f8	 mov	 eax, DWORD PTR _this$[ebp]
  00174	05 05 07 00 00	 add	 eax, 1797		; 00000705H
  00179	50		 push	 eax
  0017a	68 00 00 00 00	 push	 OFFSET ??_C@_09MAIOJANC@SeatPhone@
  0017f	8b 4d f8	 mov	 ecx, DWORD PTR _this$[ebp]
  00182	83 c1 04	 add	 ecx, 4
  00185	ff 15 00 00 00
	00		 call	 DWORD PTR __imp_?GetValue_String@CDataBaseAide@@QAEXPBDPADI@Z

; 1090 : 		m_AccountsDBAide.GetValue_String(TEXT("MobilePhone"),m_LogonSuccess.szMobilePhone,CountArray(m_LogonSuccess.szMobilePhone));

  0018b	6a 0c		 push	 12			; 0000000cH
  0018d	8b 45 f8	 mov	 eax, DWORD PTR _this$[ebp]
  00190	05 26 07 00 00	 add	 eax, 1830		; 00000726H
  00195	50		 push	 eax
  00196	68 00 00 00 00	 push	 OFFSET ??_C@_0M@OJIHCJC@MobilePhone@
  0019b	8b 4d f8	 mov	 ecx, DWORD PTR _this$[ebp]
  0019e	83 c1 04	 add	 ecx, 4
  001a1	ff 15 00 00 00
	00		 call	 DWORD PTR __imp_?GetValue_String@CDataBaseAide@@QAEXPBDPADI@Z

; 1091 : 		m_AccountsDBAide.GetValue_String(TEXT("DwellingPlace"),m_LogonSuccess.szDwellingPlace,CountArray(m_LogonSuccess.szDwellingPlace));

  001a7	68 80 00 00 00	 push	 128			; 00000080H
  001ac	8b 45 f8	 mov	 eax, DWORD PTR _this$[ebp]
  001af	05 32 07 00 00	 add	 eax, 1842		; 00000732H
  001b4	50		 push	 eax
  001b5	68 00 00 00 00	 push	 OFFSET ??_C@_0O@GKEPGAEM@DwellingPlace@
  001ba	8b 4d f8	 mov	 ecx, DWORD PTR _this$[ebp]
  001bd	83 c1 04	 add	 ecx, 4
  001c0	ff 15 00 00 00
	00		 call	 DWORD PTR __imp_?GetValue_String@CDataBaseAide@@QAEXPBDPADI@Z

; 1092 : 		m_AccountsDBAide.GetValue_String(TEXT("PostalCode"),m_LogonSuccess.szPostalCode,CountArray(m_LogonSuccess.szPostalCode));

  001c6	6a 08		 push	 8
  001c8	8b 45 f8	 mov	 eax, DWORD PTR _this$[ebp]
  001cb	05 b2 07 00 00	 add	 eax, 1970		; 000007b2H
  001d0	50		 push	 eax
  001d1	68 00 00 00 00	 push	 OFFSET ??_C@_0L@FEKLBNBC@PostalCode@
  001d6	8b 4d f8	 mov	 ecx, DWORD PTR _this$[ebp]
  001d9	83 c1 04	 add	 ecx, 4
  001dc	ff 15 00 00 00
	00		 call	 DWORD PTR __imp_?GetValue_String@CDataBaseAide@@QAEXPBDPADI@Z

; 1093 : 
; 1094 : 		//发送结果
; 1095 : 		WORD wHeadSize=sizeof(m_LogonSuccess);

  001e2	b8 8c 01 00 00	 mov	 eax, 396		; 0000018cH
  001e7	66 89 45 f4	 mov	 WORD PTR _wHeadSize$4[ebp], ax

; 1096 : 		m_pIDataBaseEngineEvent->OnEventDataBaseResult(DBO_GR_LOGON_SUCCESS,dwContextID,&m_LogonSuccess,wHeadSize);

  001eb	0f b7 45 f4	 movzx	 eax, WORD PTR _wHeadSize$4[ebp]
  001ef	50		 push	 eax
  001f0	8b 4d f8	 mov	 ecx, DWORD PTR _this$[ebp]
  001f3	81 c1 30 06 00
	00		 add	 ecx, 1584		; 00000630H
  001f9	51		 push	 ecx
  001fa	8b 55 08	 mov	 edx, DWORD PTR _dwContextID$[ebp]
  001fd	52		 push	 edx
  001fe	6a 64		 push	 100			; 00000064H
  00200	8b 45 f8	 mov	 eax, DWORD PTR _this$[ebp]
  00203	8b 88 a8 05 00
	00		 mov	 ecx, DWORD PTR [eax+1448]
  00209	8b 55 f8	 mov	 edx, DWORD PTR _this$[ebp]
  0020c	8b 01		 mov	 eax, DWORD PTR [ecx]
  0020e	8b 8a a8 05 00
	00		 mov	 ecx, DWORD PTR [edx+1448]
  00214	8b 50 08	 mov	 edx, DWORD PTR [eax+8]
  00217	ff d2		 call	 edx

; 1097 : 	}
; 1098 : 	else

  00219	e9 8f 00 00 00	 jmp	 $LN1@OnLogonDis
$LN2@OnLogonDis:

; 1099 : 	{
; 1100 : 		//变量定义
; 1101 : 		DBO_GR_LogonFailure LogonFailure;
; 1102 : 		ZeroMemory(&LogonFailure,sizeof(LogonFailure));

  0021e	68 84 00 00 00	 push	 132			; 00000084H
  00223	6a 00		 push	 0
  00225	8d 85 70 ff ff
	ff		 lea	 eax, DWORD PTR _LogonFailure$3[ebp]
  0022b	50		 push	 eax
  0022c	e8 00 00 00 00	 call	 _memset
  00231	83 c4 0c	 add	 esp, 12			; 0000000cH

; 1103 : 
; 1104 : 		//构造数据
; 1105 : 		LogonFailure.lResultCode=dwErrorCode;

  00234	8b 45 0c	 mov	 eax, DWORD PTR _dwErrorCode$[ebp]
  00237	89 85 70 ff ff
	ff		 mov	 DWORD PTR _LogonFailure$3[ebp], eax

; 1106 : 		lstrcpyn(LogonFailure.szDescribeString,pszErrorString,CountArray(LogonFailure.szDescribeString));

  0023d	68 80 00 00 00	 push	 128			; 00000080H
  00242	8b 45 10	 mov	 eax, DWORD PTR _pszErrorString$[ebp]
  00245	50		 push	 eax
  00246	8d 8d 74 ff ff
	ff		 lea	 ecx, DWORD PTR _LogonFailure$3[ebp+4]
  0024c	51		 push	 ecx
  0024d	ff 15 00 00 00
	00		 call	 DWORD PTR __imp__lstrcpynA@12

; 1107 : 
; 1108 : 		//发送结果
; 1109 : 		WORD wDataSize=CountStringBuffer(LogonFailure.szDescribeString);

  00253	8d 85 74 ff ff
	ff		 lea	 eax, DWORD PTR _LogonFailure$3[ebp+4]
  00259	50		 push	 eax
  0025a	ff 15 00 00 00
	00		 call	 DWORD PTR __imp__lstrlenA@4
  00260	83 c0 01	 add	 eax, 1
  00263	66 89 85 6c ff
	ff ff		 mov	 WORD PTR _wDataSize$2[ebp], ax

; 1110 : 		WORD wHeadSize=sizeof(LogonFailure)-sizeof(LogonFailure.szDescribeString);

  0026a	b8 04 00 00 00	 mov	 eax, 4
  0026f	66 89 85 68 ff
	ff ff		 mov	 WORD PTR _wHeadSize$1[ebp], ax

; 1111 : 		m_pIDataBaseEngineEvent->OnEventDataBaseResult(DBO_GR_LOGON_FAILURE,dwContextID,&LogonFailure,wHeadSize+wDataSize);

  00276	0f b7 85 68 ff
	ff ff		 movzx	 eax, WORD PTR _wHeadSize$1[ebp]
  0027d	0f b7 8d 6c ff
	ff ff		 movzx	 ecx, WORD PTR _wDataSize$2[ebp]
  00284	03 c1		 add	 eax, ecx
  00286	50		 push	 eax
  00287	8d 95 70 ff ff
	ff		 lea	 edx, DWORD PTR _LogonFailure$3[ebp]
  0028d	52		 push	 edx
  0028e	8b 45 08	 mov	 eax, DWORD PTR _dwContextID$[ebp]
  00291	50		 push	 eax
  00292	6a 65		 push	 101			; 00000065H
  00294	8b 4d f8	 mov	 ecx, DWORD PTR _this$[ebp]
  00297	8b 91 a8 05 00
	00		 mov	 edx, DWORD PTR [ecx+1448]
  0029d	8b 45 f8	 mov	 eax, DWORD PTR _this$[ebp]
  002a0	8b 12		 mov	 edx, DWORD PTR [edx]
  002a2	8b 88 a8 05 00
	00		 mov	 ecx, DWORD PTR [eax+1448]
  002a8	8b 42 08	 mov	 eax, DWORD PTR [edx+8]
  002ab	ff d0		 call	 eax
$LN1@OnLogonDis:

; 1112 : 	}
; 1113 : 
; 1114 : 	return;
; 1115 : }

  002ad	5f		 pop	 edi
  002ae	5e		 pop	 esi
  002af	5b		 pop	 ebx
  002b0	8b 4d fc	 mov	 ecx, DWORD PTR __$ArrayPad$[ebp]
  002b3	33 cd		 xor	 ecx, ebp
  002b5	e8 00 00 00 00	 call	 @__security_check_cookie@4
  002ba	8b e5		 mov	 esp, ebp
  002bc	5d		 pop	 ebp
  002bd	c2 18 00	 ret	 24			; 00000018H
?OnLogonDisposeResult@CDataBaseEngineSink@@AAEXKKPBD_NGG@Z ENDP ; CDataBaseEngineSink::OnLogonDisposeResult
_TEXT	ENDS
; Function compile flags: /Odtp /ZI
; File g:\网狐\happygamewh\服务端\系统模块\服务器组件\聊天服务器\databaseenginesink.cpp
;	COMDAT ?OnRequestLoadSystemMessage@CDataBaseEngineSink@@IAE_NKPAXG@Z
_TEXT	SEGMENT
tv218 = -1457						; size = 1
tv194 = -1456						; size = 4
tv86 = -1456						; size = 4
tv221 = -1452						; size = 4
tv220 = -1452						; size = 4
tv217 = -1452						; size = 4
tv216 = -1452						; size = 4
tv147 = -1452						; size = 4
tv128 = -1452						; size = 4
tv219 = -1446						; size = 1
$T2 = -1445						; size = 1
_pIException$3 = -1252					; size = 4
_ConcludeTime$4 = -1248					; size = 8
_StarTime$5 = -1240					; size = 8
_systime$6 = -1232					; size = 16
_SystemMessage$7 = -1216				; size = 154
_bAllRoom$8 = -1058					; size = 1
_bSendMessage$9 = -1057					; size = 1
_strServerRange$10 = -1056				; size = 4
_szServerRange$11 = -1052				; size = 1024
_lReturnValue$12 = -28					; size = 4
_this$ = -24						; size = 4
__$ArrayPad$ = -20					; size = 4
__$EHRec$ = -16						; size = 16
_dwContextID$ = 8					; size = 4
_pData$ = 12						; size = 4
_wDataSize$ = 16					; size = 2
?OnRequestLoadSystemMessage@CDataBaseEngineSink@@IAE_NKPAXG@Z PROC ; CDataBaseEngineSink::OnRequestLoadSystemMessage, COMDAT
; _this$ = ecx

; 963  : {

  00000	55		 push	 ebp
  00001	8b ec		 mov	 ebp, esp
  00003	6a ff		 push	 -1
  00005	68 00 00 00 00	 push	 __ehhandler$?OnRequestLoadSystemMessage@CDataBaseEngineSink@@IAE_NKPAXG@Z
  0000a	64 a1 00 00 00
	00		 mov	 eax, DWORD PTR fs:0
  00010	50		 push	 eax
  00011	51		 push	 ecx
  00012	81 ec a4 05 00
	00		 sub	 esp, 1444		; 000005a4H
  00018	a1 00 00 00 00	 mov	 eax, DWORD PTR ___security_cookie
  0001d	33 c5		 xor	 eax, ebp
  0001f	89 45 ec	 mov	 DWORD PTR __$ArrayPad$[ebp], eax
  00022	53		 push	 ebx
  00023	56		 push	 esi
  00024	57		 push	 edi
  00025	50		 push	 eax
  00026	8d 45 f4	 lea	 eax, DWORD PTR __$EHRec$[ebp+4]
  00029	64 a3 00 00 00
	00		 mov	 DWORD PTR fs:0, eax
  0002f	89 65 f0	 mov	 DWORD PTR __$EHRec$[ebp], esp
  00032	89 4d e8	 mov	 DWORD PTR _this$[ebp], ecx

; 964  : 	try

  00035	c7 45 fc 00 00
	00 00		 mov	 DWORD PTR __$EHRec$[ebp+12], 0

; 965  : 	{
; 966  : 		//构造参数
; 967  : 		m_PlatformDBAide.ResetParameter();

  0003c	8b 4d e8	 mov	 ecx, DWORD PTR _this$[ebp]
  0003f	81 c1 c4 03 00
	00		 add	 ecx, 964		; 000003c4H
  00045	ff 15 00 00 00
	00		 call	 DWORD PTR __imp_?ResetParameter@CDataBaseAide@@QAEXXZ

; 968  : 		m_PlatformDBAide.AddParameter(TEXT("@wServerID"), 0);

  0004b	6a 01		 push	 1
  0004d	6a 00		 push	 0
  0004f	68 00 00 00 00	 push	 OFFSET ??_C@_0L@FIEHJJML@?$EAwServerID@
  00054	8b 4d e8	 mov	 ecx, DWORD PTR _this$[ebp]
  00057	81 c1 c4 03 00
	00		 add	 ecx, 964		; 000003c4H
  0005d	ff 15 00 00 00
	00		 call	 DWORD PTR __imp_?AddParameter@CDataBaseAide@@QAEXPBDHW4ParameterDirectionEnum@ADOCG@@@Z

; 969  : 
; 970  : 		//执行查询
; 971  : 		LONG lReturnValue = m_PlatformDBAide.ExecuteProcess(TEXT("GSP_GR_LoadSystemMessage"), true);

  00063	6a 01		 push	 1
  00065	68 00 00 00 00	 push	 OFFSET ??_C@_0BJ@GFLIDCFB@GSP_GR_LoadSystemMessage@
  0006a	8b 4d e8	 mov	 ecx, DWORD PTR _this$[ebp]
  0006d	81 c1 c4 03 00
	00		 add	 ecx, 964		; 000003c4H
  00073	ff 15 00 00 00
	00		 call	 DWORD PTR __imp_?ExecuteProcess@CDataBaseAide@@QAEJPBD_N@Z
  00079	89 85 54 fa ff
	ff		 mov	 DWORD PTR tv216[ebp], eax
  0007f	8b 85 54 fa ff
	ff		 mov	 eax, DWORD PTR tv216[ebp]
  00085	89 45 e4	 mov	 DWORD PTR _lReturnValue$12[ebp], eax

; 972  : 
; 973  : 		//结果处理
; 974  : 		if (lReturnValue == 0)

  00088	83 7d e4 00	 cmp	 DWORD PTR _lReturnValue$12[ebp], 0
  0008c	0f 85 9b 02 00
	00		 jne	 $LN5@OnRequestL
$LN2@OnRequestL:

; 975  : 		{
; 976  : 			while (true)

  00092	b8 01 00 00 00	 mov	 eax, 1
  00097	85 c0		 test	 eax, eax
  00099	0f 84 68 02 00
	00		 je	 $LN3@OnRequestL

; 977  : 			{
; 978  : 				//结束判断
; 979  : 				if (m_PlatformDBModule->IsRecordsetEnd() == true) break;

  0009f	8b 4d e8	 mov	 ecx, DWORD PTR _this$[ebp]
  000a2	81 c1 cc 03 00
	00		 add	 ecx, 972		; 000003ccH
  000a8	e8 00 00 00 00	 call	 ??C?$CTempldateHelper@UIDataBase@@@@QBEPAUIDataBase@@XZ ; CTempldateHelper<IDataBase>::operator->
  000ad	89 85 54 fa ff
	ff		 mov	 DWORD PTR tv217[ebp], eax
  000b3	8b 85 54 fa ff
	ff		 mov	 eax, DWORD PTR tv217[ebp]
  000b9	89 85 50 fa ff
	ff		 mov	 DWORD PTR tv86[ebp], eax
  000bf	8b 8d 50 fa ff
	ff		 mov	 ecx, DWORD PTR tv86[ebp]
  000c5	8b 11		 mov	 edx, DWORD PTR [ecx]
  000c7	8b 8d 50 fa ff
	ff		 mov	 ecx, DWORD PTR tv86[ebp]
  000cd	8b 42 38	 mov	 eax, DWORD PTR [edx+56]
  000d0	ff d0		 call	 eax
  000d2	88 85 4f fa ff
	ff		 mov	 BYTE PTR tv218[ebp], al
  000d8	0f b6 8d 4f fa
	ff ff		 movzx	 ecx, BYTE PTR tv218[ebp]
  000df	83 f9 01	 cmp	 ecx, 1
  000e2	75 05		 jne	 SHORT $LN6@OnRequestL
  000e4	e9 1e 02 00 00	 jmp	 $LN3@OnRequestL
$LN6@OnRequestL:

; 980  : 
; 981  : 				//定义变量
; 982  : 				TCHAR szServerRange[1024] = { 0 };

  000e9	68 00 04 00 00	 push	 1024			; 00000400H
  000ee	6a 00		 push	 0
  000f0	8d 85 e4 fb ff
	ff		 lea	 eax, DWORD PTR _szServerRange$11[ebp]
  000f6	50		 push	 eax
  000f7	e8 00 00 00 00	 call	 _memset
  000fc	83 c4 0c	 add	 esp, 12			; 0000000cH

; 983  : 				CString strServerRange;

  000ff	8d 8d e0 fb ff
	ff		 lea	 ecx, DWORD PTR _strServerRange$10[ebp]
  00105	ff 15 00 00 00
	00		 call	 DWORD PTR __imp_??0?$CStringT@DV?$StrTraitMFC_DLL@DV?$ChTraitsCRT@D@ATL@@@@@ATL@@QAE@XZ
  0010b	c6 45 fc 01	 mov	 BYTE PTR __$EHRec$[ebp+12], 1

; 984  : 				bool bSendMessage = false;

  0010f	c6 85 df fb ff
	ff 00		 mov	 BYTE PTR _bSendMessage$9[ebp], 0

; 985  : 				bool bAllRoom = false;

  00116	c6 85 de fb ff
	ff 00		 mov	 BYTE PTR _bAllRoom$8[ebp], 0

; 986  : 
; 987  : 				//读取范围
; 988  : 				//m_PlatformDBAide.GetValue_String(TEXT("ServerRange"), szServerRange, CountArray(szServerRange));
; 989  : 				//szServerRange[1023] = 0;
; 990  : 				//strServerRange.Format(TEXT("%s"), szServerRange);
; 991  : 
; 992  : 				////范围判断
; 993  : 				//while (true)
; 994  : 				//{
; 995  : 				//	int nfind = strServerRange.Find(TEXT(','));
; 996  : 				//	if (nfind != -1 && nfind>0)
; 997  : 				//	{
; 998  : 				//		CString strID = strServerRange.Left(nfind);
; 999  : 				//		WORD wServerID = StrToInt(strID);
; 1000 : 				//		bSendMessage = (wServerID == 0 || wServerID == m_pGameServiceOption->wServerID);
; 1001 : 				//		if (wServerID == 0)bAllRoom = true;
; 1002 : 
; 1003 : 				//		if (bSendMessage) break;
; 1004 : 
; 1005 : 				//		strServerRange = strServerRange.Right(strServerRange.GetLength() - nfind - 1);
; 1006 : 				//	}
; 1007 : 				//	else
; 1008 : 				//	{
; 1009 : 				//		WORD wServerID = StrToInt(szServerRange);
; 1010 : 				//		bSendMessage = (wServerID == 0 || wServerID == m_pGameServiceOption->wServerID);
; 1011 : 				//		if (wServerID == 0)bAllRoom = true;
; 1012 : 
; 1013 : 				//		break;
; 1014 : 				//	}
; 1015 : 				//}
; 1016 : 
; 1017 : 				//发送消息
; 1018 : 			//	if (bSendMessage)
; 1019 : 			//	{
; 1020 : 					//定义变量
; 1021 : 					tag_GR_SystemMessage SystemMessage;
; 1022 : 					ZeroMemory(&SystemMessage, sizeof(SystemMessage));

  0011d	68 9a 00 00 00	 push	 154			; 0000009aH
  00122	6a 00		 push	 0
  00124	8d 85 40 fb ff
	ff		 lea	 eax, DWORD PTR _SystemMessage$7[ebp]
  0012a	50		 push	 eax
  0012b	e8 00 00 00 00	 call	 _memset
  00130	83 c4 0c	 add	 esp, 12			; 0000000cH

; 1023 : 
; 1024 : 					//读取消息
; 1025 : 					SystemMessage.dwMessageID = m_PlatformDBAide.GetValue_DWORD(TEXT("ID"));

  00133	68 00 00 00 00	 push	 OFFSET ??_C@_02OLOABKKD@ID@
  00138	8b 4d e8	 mov	 ecx, DWORD PTR _this$[ebp]
  0013b	81 c1 c4 03 00
	00		 add	 ecx, 964		; 000003c4H
  00141	ff 15 00 00 00
	00		 call	 DWORD PTR __imp_?GetValue_DWORD@CDataBaseAide@@QAEKPBD@Z
  00147	89 85 54 fa ff
	ff		 mov	 DWORD PTR tv128[ebp], eax
  0014d	8b 85 54 fa ff
	ff		 mov	 eax, DWORD PTR tv128[ebp]
  00153	89 85 40 fb ff
	ff		 mov	 DWORD PTR _SystemMessage$7[ebp], eax

; 1026 : 					SystemMessage.cbMessageType = m_PlatformDBAide.GetValue_BYTE(TEXT("MessageType"));

  00159	68 00 00 00 00	 push	 OFFSET ??_C@_0M@ECIDEJHH@MessageType@
  0015e	8b 4d e8	 mov	 ecx, DWORD PTR _this$[ebp]
  00161	81 c1 c4 03 00
	00		 add	 ecx, 964		; 000003c4H
  00167	ff 15 00 00 00
	00		 call	 DWORD PTR __imp_?GetValue_BYTE@CDataBaseAide@@QAEEPBD@Z
  0016d	88 85 5a fa ff
	ff		 mov	 BYTE PTR tv219[ebp], al
  00173	8a 85 5a fa ff
	ff		 mov	 al, BYTE PTR tv219[ebp]
  00179	88 85 44 fb ff
	ff		 mov	 BYTE PTR _SystemMessage$7[ebp+4], al

; 1027 : 					SystemMessage.dwTimeRate = m_PlatformDBAide.GetValue_DWORD(TEXT("TimeRate"));

  0017f	68 00 00 00 00	 push	 OFFSET ??_C@_08MBIPKANE@TimeRate@
  00184	8b 4d e8	 mov	 ecx, DWORD PTR _this$[ebp]
  00187	81 c1 c4 03 00
	00		 add	 ecx, 964		; 000003c4H
  0018d	ff 15 00 00 00
	00		 call	 DWORD PTR __imp_?GetValue_DWORD@CDataBaseAide@@QAEKPBD@Z
  00193	89 85 54 fa ff
	ff		 mov	 DWORD PTR tv220[ebp], eax
  00199	8b 85 54 fa ff
	ff		 mov	 eax, DWORD PTR tv220[ebp]
  0019f	89 85 46 fb ff
	ff		 mov	 DWORD PTR _SystemMessage$7[ebp+6], eax

; 1028 : 					SystemMessage.cbAllRoom = bAllRoom ? TRUE : FALSE;

  001a5	0f b6 85 de fb
	ff ff		 movzx	 eax, BYTE PTR _bAllRoom$8[ebp]
  001ac	85 c0		 test	 eax, eax
  001ae	74 0c		 je	 SHORT $LN8@OnRequestL
  001b0	c7 85 54 fa ff
	ff 01 00 00 00	 mov	 DWORD PTR tv147[ebp], 1
  001ba	eb 0a		 jmp	 SHORT $LN9@OnRequestL
$LN8@OnRequestL:
  001bc	c7 85 54 fa ff
	ff 00 00 00 00	 mov	 DWORD PTR tv147[ebp], 0
$LN9@OnRequestL:
  001c6	8a 8d 54 fa ff
	ff		 mov	 cl, BYTE PTR tv147[ebp]
  001cc	88 8d 45 fb ff
	ff		 mov	 BYTE PTR _SystemMessage$7[ebp+5], cl

; 1029 : 					m_PlatformDBAide.GetValue_String(TEXT("MessageString"), SystemMessage.szSystemMessage, CountArray(SystemMessage.szSystemMessage));

  001d2	68 80 00 00 00	 push	 128			; 00000080H
  001d7	8d 85 5a fb ff
	ff		 lea	 eax, DWORD PTR _SystemMessage$7[ebp+26]
  001dd	50		 push	 eax
  001de	68 00 00 00 00	 push	 OFFSET ??_C@_0O@EOKEIOEE@MessageString@
  001e3	8b 4d e8	 mov	 ecx, DWORD PTR _this$[ebp]
  001e6	81 c1 c4 03 00
	00		 add	 ecx, 964		; 000003c4H
  001ec	ff 15 00 00 00
	00		 call	 DWORD PTR __imp_?GetValue_String@CDataBaseAide@@QAEXPBDPADI@Z

; 1030 : 
; 1031 : 					//读取时间
; 1032 : 					SYSTEMTIME systime;
; 1033 : 					ZeroMemory(&systime, sizeof(systime));

  001f2	6a 10		 push	 16			; 00000010H
  001f4	6a 00		 push	 0
  001f6	8d 85 30 fb ff
	ff		 lea	 eax, DWORD PTR _systime$6[ebp]
  001fc	50		 push	 eax
  001fd	e8 00 00 00 00	 call	 _memset
  00202	83 c4 0c	 add	 esp, 12			; 0000000cH

; 1034 : 
; 1035 : 					//开始时间
; 1036 : 					m_PlatformDBAide.GetValue_SystemTime(TEXT("StartTime"), systime);

  00205	8d 85 30 fb ff
	ff		 lea	 eax, DWORD PTR _systime$6[ebp]
  0020b	50		 push	 eax
  0020c	68 00 00 00 00	 push	 OFFSET ??_C@_09MHCEAAPI@StartTime@
  00211	8b 4d e8	 mov	 ecx, DWORD PTR _this$[ebp]
  00214	81 c1 c4 03 00
	00		 add	 ecx, 964		; 000003c4H
  0021a	ff 15 00 00 00
	00		 call	 DWORD PTR __imp_?GetValue_SystemTime@CDataBaseAide@@QAEXPBDAAU_SYSTEMTIME@@@Z

; 1037 : 					CTime StarTime(systime);

  00220	6a ff		 push	 -1
  00222	8d 85 30 fb ff
	ff		 lea	 eax, DWORD PTR _systime$6[ebp]
  00228	50		 push	 eax
  00229	8d 8d 28 fb ff
	ff		 lea	 ecx, DWORD PTR _StarTime$5[ebp]
  0022f	e8 00 00 00 00	 call	 ??0CTime@ATL@@QAE@ABU_SYSTEMTIME@@H@Z ; ATL::CTime::CTime

; 1038 : 					SystemMessage.tStartTime = StarTime.GetTime();

  00234	8d 8d 28 fb ff
	ff		 lea	 ecx, DWORD PTR _StarTime$5[ebp]
  0023a	e8 00 00 00 00	 call	 ?GetTime@CTime@ATL@@QBE_JXZ ; ATL::CTime::GetTime
  0023f	89 85 4a fb ff
	ff		 mov	 DWORD PTR _SystemMessage$7[ebp+10], eax
  00245	89 95 4e fb ff
	ff		 mov	 DWORD PTR _SystemMessage$7[ebp+14], edx

; 1039 : 
; 1040 : 					//结束时间
; 1041 : 					m_PlatformDBAide.GetValue_SystemTime(TEXT("ConcludeTime"), systime);

  0024b	8d 85 30 fb ff
	ff		 lea	 eax, DWORD PTR _systime$6[ebp]
  00251	50		 push	 eax
  00252	68 00 00 00 00	 push	 OFFSET ??_C@_0N@DIGHLIGE@ConcludeTime@
  00257	8b 4d e8	 mov	 ecx, DWORD PTR _this$[ebp]
  0025a	81 c1 c4 03 00
	00		 add	 ecx, 964		; 000003c4H
  00260	ff 15 00 00 00
	00		 call	 DWORD PTR __imp_?GetValue_SystemTime@CDataBaseAide@@QAEXPBDAAU_SYSTEMTIME@@@Z

; 1042 : 					CTime ConcludeTime(systime);

  00266	6a ff		 push	 -1
  00268	8d 85 30 fb ff
	ff		 lea	 eax, DWORD PTR _systime$6[ebp]
  0026e	50		 push	 eax
  0026f	8d 8d 20 fb ff
	ff		 lea	 ecx, DWORD PTR _ConcludeTime$4[ebp]
  00275	e8 00 00 00 00	 call	 ??0CTime@ATL@@QAE@ABU_SYSTEMTIME@@H@Z ; ATL::CTime::CTime

; 1043 : 					SystemMessage.tConcludeTime = ConcludeTime.GetTime();

  0027a	8d 8d 20 fb ff
	ff		 lea	 ecx, DWORD PTR _ConcludeTime$4[ebp]
  00280	e8 00 00 00 00	 call	 ?GetTime@CTime@ATL@@QBE_JXZ ; ATL::CTime::GetTime
  00285	89 85 52 fb ff
	ff		 mov	 DWORD PTR _SystemMessage$7[ebp+18], eax
  0028b	89 95 56 fb ff
	ff		 mov	 DWORD PTR _SystemMessage$7[ebp+22], edx

; 1044 : 
; 1045 : 					//发送结果
; 1046 : 					m_pIDataBaseEngineEvent->OnEventDataBaseResult(DBO_GR_SYSTEM_MESSAGE_RESULT, dwContextID, &SystemMessage, sizeof(SystemMessage));

  00291	68 9a 00 00 00	 push	 154			; 0000009aH
  00296	8d 85 40 fb ff
	ff		 lea	 eax, DWORD PTR _SystemMessage$7[ebp]
  0029c	50		 push	 eax
  0029d	8b 4d 08	 mov	 ecx, DWORD PTR _dwContextID$[ebp]
  002a0	51		 push	 ecx
  002a1	68 58 02 00 00	 push	 600			; 00000258H
  002a6	8b 55 e8	 mov	 edx, DWORD PTR _this$[ebp]
  002a9	8b 45 e8	 mov	 eax, DWORD PTR _this$[ebp]
  002ac	8b 88 a8 05 00
	00		 mov	 ecx, DWORD PTR [eax+1448]
  002b2	8b 01		 mov	 eax, DWORD PTR [ecx]
  002b4	8b 8a a8 05 00
	00		 mov	 ecx, DWORD PTR [edx+1448]
  002ba	8b 50 08	 mov	 edx, DWORD PTR [eax+8]
  002bd	ff d2		 call	 edx

; 1047 : 		//		}
; 1048 : 
; 1049 : 				//下一条
; 1050 : 				m_PlatformDBModule->MoveToNext();

  002bf	8b 4d e8	 mov	 ecx, DWORD PTR _this$[ebp]
  002c2	81 c1 cc 03 00
	00		 add	 ecx, 972		; 000003ccH
  002c8	e8 00 00 00 00	 call	 ??C?$CTempldateHelper@UIDataBase@@@@QBEPAUIDataBase@@XZ ; CTempldateHelper<IDataBase>::operator->
  002cd	89 85 54 fa ff
	ff		 mov	 DWORD PTR tv221[ebp], eax
  002d3	8b 85 54 fa ff
	ff		 mov	 eax, DWORD PTR tv221[ebp]
  002d9	89 85 50 fa ff
	ff		 mov	 DWORD PTR tv194[ebp], eax
  002df	8b 8d 50 fa ff
	ff		 mov	 ecx, DWORD PTR tv194[ebp]
  002e5	8b 11		 mov	 edx, DWORD PTR [ecx]
  002e7	8b 8d 50 fa ff
	ff		 mov	 ecx, DWORD PTR tv194[ebp]
  002ed	8b 42 30	 mov	 eax, DWORD PTR [edx+48]
  002f0	ff d0		 call	 eax

; 1051 : 			}

  002f2	c6 45 fc 00	 mov	 BYTE PTR __$EHRec$[ebp+12], 0
  002f6	8d 8d e0 fb ff
	ff		 lea	 ecx, DWORD PTR _strServerRange$10[ebp]
  002fc	ff 15 00 00 00
	00		 call	 DWORD PTR __imp_??1?$CStringT@DV?$StrTraitMFC_DLL@DV?$ChTraitsCRT@D@ATL@@@@@ATL@@QAE@XZ
  00302	e9 8b fd ff ff	 jmp	 $LN2@OnRequestL
$LN3@OnRequestL:

; 1052 : 
; 1053 : 			//加载完成
; 1054 : 			m_pIDataBaseEngineEvent->OnEventDataBaseResult(DBO_GR_SYSTEM_MESSAGE_FINISH, dwContextID, NULL, 0);

  00307	6a 00		 push	 0
  00309	6a 00		 push	 0
  0030b	8b 45 08	 mov	 eax, DWORD PTR _dwContextID$[ebp]
  0030e	50		 push	 eax
  0030f	68 59 02 00 00	 push	 601			; 00000259H
  00314	8b 4d e8	 mov	 ecx, DWORD PTR _this$[ebp]
  00317	8b 55 e8	 mov	 edx, DWORD PTR _this$[ebp]
  0031a	8b 82 a8 05 00
	00		 mov	 eax, DWORD PTR [edx+1448]
  00320	8b 10		 mov	 edx, DWORD PTR [eax]
  00322	8b 89 a8 05 00
	00		 mov	 ecx, DWORD PTR [ecx+1448]
  00328	8b 42 08	 mov	 eax, DWORD PTR [edx+8]
  0032b	ff d0		 call	 eax
$LN5@OnRequestL:

; 1055 : 		}
; 1056 : 
; 1057 : 		return true;

  0032d	b0 01		 mov	 al, 1
  0032f	eb 4c		 jmp	 SHORT $LN1@OnRequestL
__catch$?OnRequestLoadSystemMessage@CDataBaseEngineSink@@IAE_NKPAXG@Z$0:

; 1058 : 	}
; 1059 : 	catch (IDataBaseException * pIException)
; 1060 : 	{		
; 1061 : 		//输出错误
; 1062 : 		CTraceService::TraceString(pIException->GetExceptionDescribe(), TraceLevel_Exception);

  00331	6a 03		 push	 3
  00333	8b 85 1c fb ff
	ff		 mov	 eax, DWORD PTR _pIException$3[ebp]
  00339	8b 10		 mov	 edx, DWORD PTR [eax]
  0033b	8b 8d 1c fb ff
	ff		 mov	 ecx, DWORD PTR _pIException$3[ebp]
  00341	8b 42 0c	 mov	 eax, DWORD PTR [edx+12]
  00344	ff d0		 call	 eax
  00346	50		 push	 eax
  00347	ff 15 00 00 00
	00		 call	 DWORD PTR __imp_?TraceString@CTraceService@@SA_NPBDW4enTraceLevel@@@Z
  0034d	83 c4 08	 add	 esp, 8

; 1063 : 		return false;

  00350	c6 85 5b fa ff
	ff 00		 mov	 BYTE PTR $T2[ebp], 0
  00357	b8 00 00 00 00	 mov	 eax, $LN14@OnRequestL
  0035c	c3		 ret	 0

; 1064 : 	}

  0035d	b8 00 00 00 00	 mov	 eax, __tryend$?OnRequestLoadSystemMessage@CDataBaseEngineSink@@IAE_NKPAXG@Z$1
  00362	c3		 ret	 0
__tryend$?OnRequestLoadSystemMessage@CDataBaseEngineSink@@IAE_NKPAXG@Z$1:
  00363	c7 45 fc ff ff
	ff ff		 mov	 DWORD PTR __$EHRec$[ebp+12], -1
  0036a	eb 0f		 jmp	 SHORT $LN13@OnRequestL
$LN14@OnRequestL:
  0036c	c7 45 fc ff ff
	ff ff		 mov	 DWORD PTR __$EHRec$[ebp+12], -1

; 1063 : 		return false;

  00373	8a 85 5b fa ff
	ff		 mov	 al, BYTE PTR $T2[ebp]
  00379	eb 02		 jmp	 SHORT $LN1@OnRequestL
$LN13@OnRequestL:

; 1065 : 
; 1066 : 	return true;

  0037b	b0 01		 mov	 al, 1
$LN1@OnRequestL:

; 1067 : }

  0037d	8b 4d f4	 mov	 ecx, DWORD PTR __$EHRec$[ebp+4]
  00380	64 89 0d 00 00
	00 00		 mov	 DWORD PTR fs:0, ecx
  00387	59		 pop	 ecx
  00388	5f		 pop	 edi
  00389	5e		 pop	 esi
  0038a	5b		 pop	 ebx
  0038b	8b 4d ec	 mov	 ecx, DWORD PTR __$ArrayPad$[ebp]
  0038e	33 cd		 xor	 ecx, ebp
  00390	e8 00 00 00 00	 call	 @__security_check_cookie@4
  00395	8b e5		 mov	 esp, ebp
  00397	5d		 pop	 ebp
  00398	c2 0c 00	 ret	 12			; 0000000cH
_TEXT	ENDS
;	COMDAT text$x
text$x	SEGMENT
__unwindfunclet$?OnRequestLoadSystemMessage@CDataBaseEngineSink@@IAE_NKPAXG@Z$2:
  00000	8d 8d e0 fb ff
	ff		 lea	 ecx, DWORD PTR _strServerRange$10[ebp]
  00006	ff 25 00 00 00
	00		 jmp	 DWORD PTR __imp_??1?$CStringT@DV?$StrTraitMFC_DLL@DV?$ChTraitsCRT@D@ATL@@@@@ATL@@QAE@XZ
__ehhandler$?OnRequestLoadSystemMessage@CDataBaseEngineSink@@IAE_NKPAXG@Z:
  0000c	8b 54 24 08	 mov	 edx, DWORD PTR [esp+8]
  00010	8d 42 0c	 lea	 eax, DWORD PTR [edx+12]
  00013	8b 8a 48 fa ff
	ff		 mov	 ecx, DWORD PTR [edx-1464]
  00019	33 c8		 xor	 ecx, eax
  0001b	e8 00 00 00 00	 call	 @__security_check_cookie@4
  00020	8b 4a f8	 mov	 ecx, DWORD PTR [edx-8]
  00023	33 c8		 xor	 ecx, eax
  00025	e8 00 00 00 00	 call	 @__security_check_cookie@4
  0002a	b8 00 00 00 00	 mov	 eax, OFFSET __ehfuncinfo$?OnRequestLoadSystemMessage@CDataBaseEngineSink@@IAE_NKPAXG@Z
  0002f	e9 00 00 00 00	 jmp	 ___CxxFrameHandler3
text$x	ENDS
?OnRequestLoadSystemMessage@CDataBaseEngineSink@@IAE_NKPAXG@Z ENDP ; CDataBaseEngineSink::OnRequestLoadSystemMessage
; Function compile flags: /Odtp /ZI
; File g:\网狐\happygamewh\服务端\系统模块\服务器组件\聊天服务器\databaseenginesink.cpp
;	COMDAT ?OnRequestUpdatePlaceName@CDataBaseEngineSink@@IAE_NKPAXG@Z
_TEXT	SEGMENT
tv144 = -236						; size = 4
tv143 = -236						; size = 4
$T2 = -229						; size = 1
_pIException$3 = -164					; size = 4
_lResultCode$4 = -160					; size = 4
_szDescribeString$5 = -156				; size = 128
_pPlaceName$6 = -28					; size = 4
_this$ = -24						; size = 4
__$ArrayPad$ = -20					; size = 4
__$EHRec$ = -16						; size = 16
_dwContextID$ = 8					; size = 4
_pData$ = 12						; size = 4
_wDataSize$ = 16					; size = 2
?OnRequestUpdatePlaceName@CDataBaseEngineSink@@IAE_NKPAXG@Z PROC ; CDataBaseEngineSink::OnRequestUpdatePlaceName, COMDAT
; _this$ = ecx

; 844  : {

  00000	55		 push	 ebp
  00001	8b ec		 mov	 ebp, esp
  00003	6a ff		 push	 -1
  00005	68 00 00 00 00	 push	 __ehhandler$?OnRequestUpdatePlaceName@CDataBaseEngineSink@@IAE_NKPAXG@Z
  0000a	64 a1 00 00 00
	00		 mov	 eax, DWORD PTR fs:0
  00010	50		 push	 eax
  00011	51		 push	 ecx
  00012	81 ec dc 00 00
	00		 sub	 esp, 220		; 000000dcH
  00018	a1 00 00 00 00	 mov	 eax, DWORD PTR ___security_cookie
  0001d	33 c5		 xor	 eax, ebp
  0001f	89 45 ec	 mov	 DWORD PTR __$ArrayPad$[ebp], eax
  00022	53		 push	 ebx
  00023	56		 push	 esi
  00024	57		 push	 edi
  00025	50		 push	 eax
  00026	8d 45 f4	 lea	 eax, DWORD PTR __$EHRec$[ebp+4]
  00029	64 a3 00 00 00
	00		 mov	 DWORD PTR fs:0, eax
  0002f	89 65 f0	 mov	 DWORD PTR __$EHRec$[ebp], esp
  00032	89 4d e8	 mov	 DWORD PTR _this$[ebp], ecx

; 845  : 	try

  00035	c7 45 fc 00 00
	00 00		 mov	 DWORD PTR __$EHRec$[ebp+12], 0

; 846  : 	{
; 847  : 		//提取变量
; 848  : 		DBR_GR_UpdatePlaceName * pPlaceName = (DBR_GR_UpdatePlaceName *)pData;

  0003c	8b 45 0c	 mov	 eax, DWORD PTR _pData$[ebp]
  0003f	89 45 e4	 mov	 DWORD PTR _pPlaceName$6[ebp], eax

; 849  : 		ASSERT(pPlaceName != NULL);

  00042	83 7d e4 00	 cmp	 DWORD PTR _pPlaceName$6[ebp], 0
  00046	75 23		 jne	 SHORT $LN4@OnRequestU
  00048	a1 00 00 00 00	 mov	 eax, DWORD PTR ?__LINE__Var@?0??OnRequestUpdatePlaceName@CDataBaseEngineSink@@IAE_NKPAXG@Z@4JA
  0004d	83 c0 05	 add	 eax, 5
  00050	50		 push	 eax
  00051	68 00 00 00 00	 push	 OFFSET ?THIS_FILE@@3PADA
  00056	e8 00 00 00 00	 call	 ?AfxAssertFailedLine@@YGHPBDH@Z ; AfxAssertFailedLine
  0005b	89 85 14 ff ff
	ff		 mov	 DWORD PTR tv143[ebp], eax
  00061	83 bd 14 ff ff
	ff 00		 cmp	 DWORD PTR tv143[ebp], 0
  00068	74 01		 je	 SHORT $LN4@OnRequestU
  0006a	cc		 int	 3
$LN4@OnRequestU:

; 850  : 
; 851  : 		//执行查询
; 852  : 		m_AccountsDBAide.ResetParameter();

  0006b	8b 4d e8	 mov	 ecx, DWORD PTR _this$[ebp]
  0006e	83 c1 04	 add	 ecx, 4
  00071	ff 15 00 00 00
	00		 call	 DWORD PTR __imp_?ResetParameter@CDataBaseAide@@QAEXXZ

; 853  : 		m_AccountsDBAide.AddParameter(TEXT("@dwUserID"), pPlaceName->dwUserID);

  00077	6a 01		 push	 1
  00079	8b 45 e4	 mov	 eax, DWORD PTR _pPlaceName$6[ebp]
  0007c	8b 08		 mov	 ecx, DWORD PTR [eax]
  0007e	51		 push	 ecx
  0007f	68 00 00 00 00	 push	 OFFSET ??_C@_09KCDEMNBD@?$EAdwUserID@
  00084	8b 4d e8	 mov	 ecx, DWORD PTR _this$[ebp]
  00087	83 c1 04	 add	 ecx, 4
  0008a	ff 15 00 00 00
	00		 call	 DWORD PTR __imp_?AddParameter@CDataBaseAide@@QAEXPBDKW4ParameterDirectionEnum@ADOCG@@@Z

; 854  : 		m_AccountsDBAide.AddParameter(TEXT("@szPlaceName"), pPlaceName->szPlaceName);

  00090	6a 01		 push	 1
  00092	8b 45 e4	 mov	 eax, DWORD PTR _pPlaceName$6[ebp]
  00095	83 c0 04	 add	 eax, 4
  00098	50		 push	 eax
  00099	68 00 00 00 00	 push	 OFFSET ??_C@_0N@MDOGFMDG@?$EAszPlaceName@
  0009e	8b 4d e8	 mov	 ecx, DWORD PTR _this$[ebp]
  000a1	83 c1 04	 add	 ecx, 4
  000a4	ff 15 00 00 00
	00		 call	 DWORD PTR __imp_?AddParameter@CDataBaseAide@@QAEXPBD0W4ParameterDirectionEnum@ADOCG@@@Z

; 855  : 		
; 856  : 		//变量定义
; 857  : 		TCHAR szDescribeString[128] = TEXT("");

  000aa	a0 00 00 00 00	 mov	 al, BYTE PTR ??_C@_00CNPNBAHC@@
  000af	88 85 64 ff ff
	ff		 mov	 BYTE PTR _szDescribeString$5[ebp], al
  000b5	6a 7f		 push	 127			; 0000007fH
  000b7	6a 00		 push	 0
  000b9	8d 85 65 ff ff
	ff		 lea	 eax, DWORD PTR _szDescribeString$5[ebp+1]
  000bf	50		 push	 eax
  000c0	e8 00 00 00 00	 call	 _memset
  000c5	83 c4 0c	 add	 esp, 12			; 0000000cH

; 858  : 		m_AccountsDBAide.AddParameterOutput(TEXT("@strErrorDescribe"), szDescribeString, sizeof(szDescribeString), adParamOutput);

  000c8	6a 02		 push	 2
  000ca	68 80 00 00 00	 push	 128			; 00000080H
  000cf	8d 85 64 ff ff
	ff		 lea	 eax, DWORD PTR _szDescribeString$5[ebp]
  000d5	50		 push	 eax
  000d6	68 00 00 00 00	 push	 OFFSET ??_C@_0BC@IIOJPJPJ@?$EAstrErrorDescribe@
  000db	8b 4d e8	 mov	 ecx, DWORD PTR _this$[ebp]
  000de	83 c1 04	 add	 ecx, 4
  000e1	ff 15 00 00 00
	00		 call	 DWORD PTR __imp_?AddParameterOutput@CDataBaseAide@@QAEXPBDPADIW4ParameterDirectionEnum@ADOCG@@@Z

; 859  : 
; 860  : 		//执行查询
; 861  : 		LONG lResultCode = m_AccountsDBAide.ExecuteProcess(TEXT("GSP_GP_UpdatePlaceName"), true);

  000e7	6a 01		 push	 1
  000e9	68 00 00 00 00	 push	 OFFSET ??_C@_0BH@JIPKFPPO@GSP_GP_UpdatePlaceName@
  000ee	8b 4d e8	 mov	 ecx, DWORD PTR _this$[ebp]
  000f1	83 c1 04	 add	 ecx, 4
  000f4	ff 15 00 00 00
	00		 call	 DWORD PTR __imp_?ExecuteProcess@CDataBaseAide@@QAEJPBD_N@Z
  000fa	89 85 14 ff ff
	ff		 mov	 DWORD PTR tv144[ebp], eax
  00100	8b 85 14 ff ff
	ff		 mov	 eax, DWORD PTR tv144[ebp]
  00106	89 85 60 ff ff
	ff		 mov	 DWORD PTR _lResultCode$4[ebp], eax

; 862  : 		
; 863  : 		return true;

  0010c	b0 01		 mov	 al, 1
  0010e	eb 4c		 jmp	 SHORT $LN1@OnRequestU
__catch$?OnRequestUpdatePlaceName@CDataBaseEngineSink@@IAE_NKPAXG@Z$0:

; 864  : 	}
; 865  : 	catch (IDataBaseException * pIException)
; 866  : 	{
; 867  : 		//输出错误
; 868  : 		CTraceService::TraceString(pIException->GetExceptionDescribe(), TraceLevel_Exception);

  00110	6a 03		 push	 3
  00112	8b 85 5c ff ff
	ff		 mov	 eax, DWORD PTR _pIException$3[ebp]
  00118	8b 10		 mov	 edx, DWORD PTR [eax]
  0011a	8b 8d 5c ff ff
	ff		 mov	 ecx, DWORD PTR _pIException$3[ebp]
  00120	8b 42 0c	 mov	 eax, DWORD PTR [edx+12]
  00123	ff d0		 call	 eax
  00125	50		 push	 eax
  00126	ff 15 00 00 00
	00		 call	 DWORD PTR __imp_?TraceString@CTraceService@@SA_NPBDW4enTraceLevel@@@Z
  0012c	83 c4 08	 add	 esp, 8

; 869  : 
; 870  : 		return false;

  0012f	c6 85 1b ff ff
	ff 00		 mov	 BYTE PTR $T2[ebp], 0
  00136	b8 00 00 00 00	 mov	 eax, $LN8@OnRequestU
  0013b	c3		 ret	 0

; 871  : 	}

  0013c	b8 00 00 00 00	 mov	 eax, __tryend$?OnRequestUpdatePlaceName@CDataBaseEngineSink@@IAE_NKPAXG@Z$1
  00141	c3		 ret	 0
__tryend$?OnRequestUpdatePlaceName@CDataBaseEngineSink@@IAE_NKPAXG@Z$1:
  00142	c7 45 fc ff ff
	ff ff		 mov	 DWORD PTR __$EHRec$[ebp+12], -1
  00149	eb 0f		 jmp	 SHORT $LN7@OnRequestU
$LN8@OnRequestU:
  0014b	c7 45 fc ff ff
	ff ff		 mov	 DWORD PTR __$EHRec$[ebp+12], -1

; 869  : 
; 870  : 		return false;

  00152	8a 85 1b ff ff
	ff		 mov	 al, BYTE PTR $T2[ebp]
  00158	eb 02		 jmp	 SHORT $LN1@OnRequestU
$LN7@OnRequestU:

; 872  : 
; 873  : 	return true;

  0015a	b0 01		 mov	 al, 1
$LN1@OnRequestU:

; 874  : }

  0015c	8b 4d f4	 mov	 ecx, DWORD PTR __$EHRec$[ebp+4]
  0015f	64 89 0d 00 00
	00 00		 mov	 DWORD PTR fs:0, ecx
  00166	59		 pop	 ecx
  00167	5f		 pop	 edi
  00168	5e		 pop	 esi
  00169	5b		 pop	 ebx
  0016a	8b 4d ec	 mov	 ecx, DWORD PTR __$ArrayPad$[ebp]
  0016d	33 cd		 xor	 ecx, ebp
  0016f	e8 00 00 00 00	 call	 @__security_check_cookie@4
  00174	8b e5		 mov	 esp, ebp
  00176	5d		 pop	 ebp
  00177	c2 0c 00	 ret	 12			; 0000000cH
_TEXT	ENDS
;	COMDAT text$x
text$x	SEGMENT
__ehhandler$?OnRequestUpdatePlaceName@CDataBaseEngineSink@@IAE_NKPAXG@Z:
  00000	8b 54 24 08	 mov	 edx, DWORD PTR [esp+8]
  00004	8d 42 0c	 lea	 eax, DWORD PTR [edx+12]
  00007	8b 8a 10 ff ff
	ff		 mov	 ecx, DWORD PTR [edx-240]
  0000d	33 c8		 xor	 ecx, eax
  0000f	e8 00 00 00 00	 call	 @__security_check_cookie@4
  00014	8b 4a f8	 mov	 ecx, DWORD PTR [edx-8]
  00017	33 c8		 xor	 ecx, eax
  00019	e8 00 00 00 00	 call	 @__security_check_cookie@4
  0001e	b8 00 00 00 00	 mov	 eax, OFFSET __ehfuncinfo$?OnRequestUpdatePlaceName@CDataBaseEngineSink@@IAE_NKPAXG@Z
  00023	e9 00 00 00 00	 jmp	 ___CxxFrameHandler3
text$x	ENDS
?OnRequestUpdatePlaceName@CDataBaseEngineSink@@IAE_NKPAXG@Z ENDP ; CDataBaseEngineSink::OnRequestUpdatePlaceName
; Function compile flags: /Odtp /ZI
; File g:\网狐\happygamewh\服务端\系统模块\服务器组件\聊天服务器\databaseenginesink.cpp
;	COMDAT ?OnRequestTrumpet@CDataBaseEngineSink@@IAE_NKPAXG@Z
_TEXT	SEGMENT
tv169 = -540						; size = 4
tv168 = -540						; size = 4
$T2 = -533						; size = 1
_pIException$3 = -468					; size = 4
_TrumpetResult$4 = -464					; size = 304
_lResultCode$5 = -160					; size = 4
_szDescribeString$6 = -156				; size = 128
_pTrumpet$7 = -28					; size = 4
_this$ = -24						; size = 4
__$ArrayPad$ = -20					; size = 4
__$EHRec$ = -16						; size = 16
_dwContextID$ = 8					; size = 4
_pData$ = 12						; size = 4
_wDataSize$ = 16					; size = 2
?OnRequestTrumpet@CDataBaseEngineSink@@IAE_NKPAXG@Z PROC ; CDataBaseEngineSink::OnRequestTrumpet, COMDAT
; _this$ = ecx

; 914  : {

  00000	55		 push	 ebp
  00001	8b ec		 mov	 ebp, esp
  00003	6a ff		 push	 -1
  00005	68 00 00 00 00	 push	 __ehhandler$?OnRequestTrumpet@CDataBaseEngineSink@@IAE_NKPAXG@Z
  0000a	64 a1 00 00 00
	00		 mov	 eax, DWORD PTR fs:0
  00010	50		 push	 eax
  00011	51		 push	 ecx
  00012	81 ec 0c 02 00
	00		 sub	 esp, 524		; 0000020cH
  00018	a1 00 00 00 00	 mov	 eax, DWORD PTR ___security_cookie
  0001d	33 c5		 xor	 eax, ebp
  0001f	89 45 ec	 mov	 DWORD PTR __$ArrayPad$[ebp], eax
  00022	53		 push	 ebx
  00023	56		 push	 esi
  00024	57		 push	 edi
  00025	50		 push	 eax
  00026	8d 45 f4	 lea	 eax, DWORD PTR __$EHRec$[ebp+4]
  00029	64 a3 00 00 00
	00		 mov	 DWORD PTR fs:0, eax
  0002f	89 65 f0	 mov	 DWORD PTR __$EHRec$[ebp], esp
  00032	89 4d e8	 mov	 DWORD PTR _this$[ebp], ecx

; 915  : 	//提取变量
; 916  : 	try

  00035	c7 45 fc 00 00
	00 00		 mov	 DWORD PTR __$EHRec$[ebp+12], 0

; 917  : 	{
; 918  : 		DBR_GR_Trumpet * pTrumpet=(DBR_GR_Trumpet * )pData;

  0003c	8b 45 0c	 mov	 eax, DWORD PTR _pData$[ebp]
  0003f	89 45 e4	 mov	 DWORD PTR _pTrumpet$7[ebp], eax

; 919  : 		ASSERT(pTrumpet!=NULL);

  00042	83 7d e4 00	 cmp	 DWORD PTR _pTrumpet$7[ebp], 0
  00046	75 23		 jne	 SHORT $LN4@OnRequestT
  00048	a1 00 00 00 00	 mov	 eax, DWORD PTR ?__LINE__Var@?0??OnRequestTrumpet@CDataBaseEngineSink@@IAE_NKPAXG@Z@4JA
  0004d	83 c0 05	 add	 eax, 5
  00050	50		 push	 eax
  00051	68 00 00 00 00	 push	 OFFSET ?THIS_FILE@@3PADA
  00056	e8 00 00 00 00	 call	 ?AfxAssertFailedLine@@YGHPBDH@Z ; AfxAssertFailedLine
  0005b	89 85 e4 fd ff
	ff		 mov	 DWORD PTR tv168[ebp], eax
  00061	83 bd e4 fd ff
	ff 00		 cmp	 DWORD PTR tv168[ebp], 0
  00068	74 01		 je	 SHORT $LN4@OnRequestT
  0006a	cc		 int	 3
$LN4@OnRequestT:

; 920  : 
; 921  : 		//执行查询
; 922  : 		m_PlatformDBAide.ResetParameter();

  0006b	8b 4d e8	 mov	 ecx, DWORD PTR _this$[ebp]
  0006e	81 c1 c4 03 00
	00		 add	 ecx, 964		; 000003c4H
  00074	ff 15 00 00 00
	00		 call	 DWORD PTR __imp_?ResetParameter@CDataBaseAide@@QAEXXZ

; 923  : 		m_PlatformDBAide.AddParameter(TEXT("@dwUserID"),pTrumpet->dwSendUserID);

  0007a	6a 01		 push	 1
  0007c	8b 45 e4	 mov	 eax, DWORD PTR _pTrumpet$7[ebp]
  0007f	8b 48 08	 mov	 ecx, DWORD PTR [eax+8]
  00082	51		 push	 ecx
  00083	68 00 00 00 00	 push	 OFFSET ??_C@_09KCDEMNBD@?$EAdwUserID@
  00088	8b 4d e8	 mov	 ecx, DWORD PTR _this$[ebp]
  0008b	81 c1 c4 03 00
	00		 add	 ecx, 964		; 000003c4H
  00091	ff 15 00 00 00
	00		 call	 DWORD PTR __imp_?AddParameter@CDataBaseAide@@QAEXPBDKW4ParameterDirectionEnum@ADOCG@@@Z

; 924  : 		m_PlatformDBAide.AddParameter(TEXT("@strClientIP "),pTrumpet->dwClientAddr);

  00097	6a 01		 push	 1
  00099	8b 45 e4	 mov	 eax, DWORD PTR _pTrumpet$7[ebp]
  0009c	8b 08		 mov	 ecx, DWORD PTR [eax]
  0009e	51		 push	 ecx
  0009f	68 00 00 00 00	 push	 OFFSET ??_C@_0O@BBLJBDHL@?$EAstrClientIP?5@
  000a4	8b 4d e8	 mov	 ecx, DWORD PTR _this$[ebp]
  000a7	81 c1 c4 03 00
	00		 add	 ecx, 964		; 000003c4H
  000ad	ff 15 00 00 00
	00		 call	 DWORD PTR __imp_?AddParameter@CDataBaseAide@@QAEXPBDKW4ParameterDirectionEnum@ADOCG@@@Z

; 925  : 
; 926  : 		//变量定义
; 927  : 		TCHAR szDescribeString[128]=TEXT("");

  000b3	a0 00 00 00 00	 mov	 al, BYTE PTR ??_C@_00CNPNBAHC@@
  000b8	88 85 64 ff ff
	ff		 mov	 BYTE PTR _szDescribeString$6[ebp], al
  000be	6a 7f		 push	 127			; 0000007fH
  000c0	6a 00		 push	 0
  000c2	8d 85 65 ff ff
	ff		 lea	 eax, DWORD PTR _szDescribeString$6[ebp+1]
  000c8	50		 push	 eax
  000c9	e8 00 00 00 00	 call	 _memset
  000ce	83 c4 0c	 add	 esp, 12			; 0000000cH

; 928  : 		m_PlatformDBAide.AddParameterOutput(TEXT("@strErrorDescribe"),szDescribeString,sizeof(szDescribeString),adParamOutput);

  000d1	6a 02		 push	 2
  000d3	68 80 00 00 00	 push	 128			; 00000080H
  000d8	8d 85 64 ff ff
	ff		 lea	 eax, DWORD PTR _szDescribeString$6[ebp]
  000de	50		 push	 eax
  000df	68 00 00 00 00	 push	 OFFSET ??_C@_0BC@IIOJPJPJ@?$EAstrErrorDescribe@
  000e4	8b 4d e8	 mov	 ecx, DWORD PTR _this$[ebp]
  000e7	81 c1 c4 03 00
	00		 add	 ecx, 964		; 000003c4H
  000ed	ff 15 00 00 00
	00		 call	 DWORD PTR __imp_?AddParameterOutput@CDataBaseAide@@QAEXPBDPADIW4ParameterDirectionEnum@ADOCG@@@Z

; 929  : 
; 930  : 		//执行查询
; 931  : 		LONG lResultCode=m_PlatformDBAide.ExecuteProcess(TEXT("GSP_GP_UseTrumpet"),true);

  000f3	6a 01		 push	 1
  000f5	68 00 00 00 00	 push	 OFFSET ??_C@_0BC@FHFGCAEO@GSP_GP_UseTrumpet@
  000fa	8b 4d e8	 mov	 ecx, DWORD PTR _this$[ebp]
  000fd	81 c1 c4 03 00
	00		 add	 ecx, 964		; 000003c4H
  00103	ff 15 00 00 00
	00		 call	 DWORD PTR __imp_?ExecuteProcess@CDataBaseAide@@QAEJPBD_N@Z
  00109	89 85 e4 fd ff
	ff		 mov	 DWORD PTR tv169[ebp], eax
  0010f	8b 85 e4 fd ff
	ff		 mov	 eax, DWORD PTR tv169[ebp]
  00115	89 85 60 ff ff
	ff		 mov	 DWORD PTR _lResultCode$5[ebp], eax

; 932  : 
; 933  : 		//变量定义
; 934  : 		DBO_GR_TrumpetResult  TrumpetResult;
; 935  : 		TrumpetResult.lResult=lResultCode;

  0011b	8b 85 60 ff ff
	ff		 mov	 eax, DWORD PTR _lResultCode$5[ebp]
  00121	89 85 30 fe ff
	ff		 mov	 DWORD PTR _TrumpetResult$4[ebp], eax

; 936  : 		TrumpetResult.wPropertyID = pTrumpet->wPropertyID;

  00127	8b 45 e4	 mov	 eax, DWORD PTR _pTrumpet$7[ebp]
  0012a	66 8b 48 04	 mov	 cx, WORD PTR [eax+4]
  0012e	66 89 8d 34 fe
	ff ff		 mov	 WORD PTR _TrumpetResult$4[ebp+4], cx

; 937  : 		TrumpetResult.dwSendUserID = pTrumpet->dwSendUserID;

  00135	8b 45 e4	 mov	 eax, DWORD PTR _pTrumpet$7[ebp]
  00138	8b 48 08	 mov	 ecx, DWORD PTR [eax+8]
  0013b	89 8d 38 fe ff
	ff		 mov	 DWORD PTR _TrumpetResult$4[ebp+8], ecx

; 938  : 		TrumpetResult.TrumpetColor = pTrumpet->TrumpetColor;

  00141	8b 45 e4	 mov	 eax, DWORD PTR _pTrumpet$7[ebp]
  00144	8b 48 0c	 mov	 ecx, DWORD PTR [eax+12]
  00147	89 8d 3c fe ff
	ff		 mov	 DWORD PTR _TrumpetResult$4[ebp+12], ecx

; 939  : 		lstrcpyn(TrumpetResult.szSendNickName, pTrumpet->szSendNickName, CountArray(TrumpetResult.szSendNickName));

  0014d	6a 20		 push	 32			; 00000020H
  0014f	8b 45 e4	 mov	 eax, DWORD PTR _pTrumpet$7[ebp]
  00152	83 c0 10	 add	 eax, 16			; 00000010H
  00155	50		 push	 eax
  00156	8d 8d 40 fe ff
	ff		 lea	 ecx, DWORD PTR _TrumpetResult$4[ebp+16]
  0015c	51		 push	 ecx
  0015d	ff 15 00 00 00
	00		 call	 DWORD PTR __imp__lstrcpynA@12

; 940  : 		lstrcpyn(TrumpetResult.szTrumpetContent, pTrumpet->szTrumpetContent, CountArray(TrumpetResult.szTrumpetContent));

  00163	68 80 00 00 00	 push	 128			; 00000080H
  00168	8b 45 e4	 mov	 eax, DWORD PTR _pTrumpet$7[ebp]
  0016b	83 c0 30	 add	 eax, 48			; 00000030H
  0016e	50		 push	 eax
  0016f	8d 8d 60 fe ff
	ff		 lea	 ecx, DWORD PTR _TrumpetResult$4[ebp+48]
  00175	51		 push	 ecx
  00176	ff 15 00 00 00
	00		 call	 DWORD PTR __imp__lstrcpynA@12

; 941  : 		lstrcpyn(TrumpetResult.szNotifyContent, szDescribeString, CountArray(TrumpetResult.szNotifyContent));

  0017c	68 80 00 00 00	 push	 128			; 00000080H
  00181	8d 85 64 ff ff
	ff		 lea	 eax, DWORD PTR _szDescribeString$6[ebp]
  00187	50		 push	 eax
  00188	8d 8d e0 fe ff
	ff		 lea	 ecx, DWORD PTR _TrumpetResult$4[ebp+176]
  0018e	51		 push	 ecx
  0018f	ff 15 00 00 00
	00		 call	 DWORD PTR __imp__lstrcpynA@12

; 942  : 
; 943  : 		//投递数据
; 944  : 		m_pIDataBaseEngineEvent->OnEventDataBaseResult(DBO_GR_TRUMPET_RESULT,dwContextID,&TrumpetResult,sizeof(TrumpetResult));

  00195	68 30 01 00 00	 push	 304			; 00000130H
  0019a	8d 85 30 fe ff
	ff		 lea	 eax, DWORD PTR _TrumpetResult$4[ebp]
  001a0	50		 push	 eax
  001a1	8b 4d 08	 mov	 ecx, DWORD PTR _dwContextID$[ebp]
  001a4	51		 push	 ecx
  001a5	68 9b 01 00 00	 push	 411			; 0000019bH
  001aa	8b 55 e8	 mov	 edx, DWORD PTR _this$[ebp]
  001ad	8b 45 e8	 mov	 eax, DWORD PTR _this$[ebp]
  001b0	8b 88 a8 05 00
	00		 mov	 ecx, DWORD PTR [eax+1448]
  001b6	8b 01		 mov	 eax, DWORD PTR [ecx]
  001b8	8b 8a a8 05 00
	00		 mov	 ecx, DWORD PTR [edx+1448]
  001be	8b 50 08	 mov	 edx, DWORD PTR [eax+8]
  001c1	ff d2		 call	 edx

; 945  : 
; 946  : 
; 947  : 		return true;

  001c3	b0 01		 mov	 al, 1
  001c5	eb 4c		 jmp	 SHORT $LN1@OnRequestT
__catch$?OnRequestTrumpet@CDataBaseEngineSink@@IAE_NKPAXG@Z$0:

; 948  : 	}
; 949  : 	catch (IDataBaseException * pIException)
; 950  : 	{
; 951  : 		//输出错误
; 952  : 		CTraceService::TraceString(pIException->GetExceptionDescribe(),TraceLevel_Exception);

  001c7	6a 03		 push	 3
  001c9	8b 85 2c fe ff
	ff		 mov	 eax, DWORD PTR _pIException$3[ebp]
  001cf	8b 10		 mov	 edx, DWORD PTR [eax]
  001d1	8b 8d 2c fe ff
	ff		 mov	 ecx, DWORD PTR _pIException$3[ebp]
  001d7	8b 42 0c	 mov	 eax, DWORD PTR [edx+12]
  001da	ff d0		 call	 eax
  001dc	50		 push	 eax
  001dd	ff 15 00 00 00
	00		 call	 DWORD PTR __imp_?TraceString@CTraceService@@SA_NPBDW4enTraceLevel@@@Z
  001e3	83 c4 08	 add	 esp, 8

; 953  : 
; 954  : 		return false;

  001e6	c6 85 eb fd ff
	ff 00		 mov	 BYTE PTR $T2[ebp], 0
  001ed	b8 00 00 00 00	 mov	 eax, $LN8@OnRequestT
  001f2	c3		 ret	 0

; 955  : 	}

  001f3	b8 00 00 00 00	 mov	 eax, __tryend$?OnRequestTrumpet@CDataBaseEngineSink@@IAE_NKPAXG@Z$1
  001f8	c3		 ret	 0
__tryend$?OnRequestTrumpet@CDataBaseEngineSink@@IAE_NKPAXG@Z$1:
  001f9	c7 45 fc ff ff
	ff ff		 mov	 DWORD PTR __$EHRec$[ebp+12], -1
  00200	eb 0f		 jmp	 SHORT $LN7@OnRequestT
$LN8@OnRequestT:
  00202	c7 45 fc ff ff
	ff ff		 mov	 DWORD PTR __$EHRec$[ebp+12], -1

; 953  : 
; 954  : 		return false;

  00209	8a 85 eb fd ff
	ff		 mov	 al, BYTE PTR $T2[ebp]
  0020f	eb 02		 jmp	 SHORT $LN1@OnRequestT
$LN7@OnRequestT:

; 956  : 
; 957  : 	return true;

  00211	b0 01		 mov	 al, 1
$LN1@OnRequestT:

; 958  : }

  00213	8b 4d f4	 mov	 ecx, DWORD PTR __$EHRec$[ebp+4]
  00216	64 89 0d 00 00
	00 00		 mov	 DWORD PTR fs:0, ecx
  0021d	59		 pop	 ecx
  0021e	5f		 pop	 edi
  0021f	5e		 pop	 esi
  00220	5b		 pop	 ebx
  00221	8b 4d ec	 mov	 ecx, DWORD PTR __$ArrayPad$[ebp]
  00224	33 cd		 xor	 ecx, ebp
  00226	e8 00 00 00 00	 call	 @__security_check_cookie@4
  0022b	8b e5		 mov	 esp, ebp
  0022d	5d		 pop	 ebp
  0022e	c2 0c 00	 ret	 12			; 0000000cH
_TEXT	ENDS
;	COMDAT text$x
text$x	SEGMENT
__ehhandler$?OnRequestTrumpet@CDataBaseEngineSink@@IAE_NKPAXG@Z:
  00000	8b 54 24 08	 mov	 edx, DWORD PTR [esp+8]
  00004	8d 42 0c	 lea	 eax, DWORD PTR [edx+12]
  00007	8b 8a e0 fd ff
	ff		 mov	 ecx, DWORD PTR [edx-544]
  0000d	33 c8		 xor	 ecx, eax
  0000f	e8 00 00 00 00	 call	 @__security_check_cookie@4
  00014	8b 4a f8	 mov	 ecx, DWORD PTR [edx-8]
  00017	33 c8		 xor	 ecx, eax
  00019	e8 00 00 00 00	 call	 @__security_check_cookie@4
  0001e	b8 00 00 00 00	 mov	 eax, OFFSET __ehfuncinfo$?OnRequestTrumpet@CDataBaseEngineSink@@IAE_NKPAXG@Z
  00023	e9 00 00 00 00	 jmp	 ___CxxFrameHandler3
text$x	ENDS
?OnRequestTrumpet@CDataBaseEngineSink@@IAE_NKPAXG@Z ENDP ; CDataBaseEngineSink::OnRequestTrumpet
; Function compile flags: /Odtp /ZI
; File g:\网狐\happygamewh\服务端\系统模块\服务器组件\聊天服务器\databaseenginesink.cpp
;	COMDAT ?OnRequestSaveOfflineMessage@CDataBaseEngineSink@@IAE_NKPAXG@Z
_TEXT	SEGMENT
tv156 = -236						; size = 4
tv155 = -236						; size = 4
$T2 = -229						; size = 1
_pIException$3 = -164					; size = 4
_lResultCode$4 = -160					; size = 4
_szDescribeString$5 = -156				; size = 128
_pSaveOfflineMessage$6 = -28				; size = 4
_this$ = -24						; size = 4
__$ArrayPad$ = -20					; size = 4
__$EHRec$ = -16						; size = 16
_dwContextID$ = 8					; size = 4
_pData$ = 12						; size = 4
_wDataSize$ = 16					; size = 2
?OnRequestSaveOfflineMessage@CDataBaseEngineSink@@IAE_NKPAXG@Z PROC ; CDataBaseEngineSink::OnRequestSaveOfflineMessage, COMDAT
; _this$ = ecx

; 878  : {

  00000	55		 push	 ebp
  00001	8b ec		 mov	 ebp, esp
  00003	6a ff		 push	 -1
  00005	68 00 00 00 00	 push	 __ehhandler$?OnRequestSaveOfflineMessage@CDataBaseEngineSink@@IAE_NKPAXG@Z
  0000a	64 a1 00 00 00
	00		 mov	 eax, DWORD PTR fs:0
  00010	50		 push	 eax
  00011	51		 push	 ecx
  00012	81 ec dc 00 00
	00		 sub	 esp, 220		; 000000dcH
  00018	a1 00 00 00 00	 mov	 eax, DWORD PTR ___security_cookie
  0001d	33 c5		 xor	 eax, ebp
  0001f	89 45 ec	 mov	 DWORD PTR __$ArrayPad$[ebp], eax
  00022	53		 push	 ebx
  00023	56		 push	 esi
  00024	57		 push	 edi
  00025	50		 push	 eax
  00026	8d 45 f4	 lea	 eax, DWORD PTR __$EHRec$[ebp+4]
  00029	64 a3 00 00 00
	00		 mov	 DWORD PTR fs:0, eax
  0002f	89 65 f0	 mov	 DWORD PTR __$EHRec$[ebp], esp
  00032	89 4d e8	 mov	 DWORD PTR _this$[ebp], ecx

; 879  : 	//提取变量
; 880  : 	try

  00035	c7 45 fc 00 00
	00 00		 mov	 DWORD PTR __$EHRec$[ebp+12], 0

; 881  : 	{
; 882  : 		DBR_GR_SaveOfflineMessage * pSaveOfflineMessage=(DBR_GR_SaveOfflineMessage * )pData;

  0003c	8b 45 0c	 mov	 eax, DWORD PTR _pData$[ebp]
  0003f	89 45 e4	 mov	 DWORD PTR _pSaveOfflineMessage$6[ebp], eax

; 883  : 		ASSERT(pSaveOfflineMessage!=NULL);

  00042	83 7d e4 00	 cmp	 DWORD PTR _pSaveOfflineMessage$6[ebp], 0
  00046	75 23		 jne	 SHORT $LN4@OnRequestS
  00048	a1 00 00 00 00	 mov	 eax, DWORD PTR ?__LINE__Var@?0??OnRequestSaveOfflineMessage@CDataBaseEngineSink@@IAE_NKPAXG@Z@4JA
  0004d	83 c0 05	 add	 eax, 5
  00050	50		 push	 eax
  00051	68 00 00 00 00	 push	 OFFSET ?THIS_FILE@@3PADA
  00056	e8 00 00 00 00	 call	 ?AfxAssertFailedLine@@YGHPBDH@Z ; AfxAssertFailedLine
  0005b	89 85 14 ff ff
	ff		 mov	 DWORD PTR tv155[ebp], eax
  00061	83 bd 14 ff ff
	ff 00		 cmp	 DWORD PTR tv155[ebp], 0
  00068	74 01		 je	 SHORT $LN4@OnRequestS
  0006a	cc		 int	 3
$LN4@OnRequestS:

; 884  : 
; 885  : 		//执行查询
; 886  : 		m_AccountsDBAide.ResetParameter();

  0006b	8b 4d e8	 mov	 ecx, DWORD PTR _this$[ebp]
  0006e	83 c1 04	 add	 ecx, 4
  00071	ff 15 00 00 00
	00		 call	 DWORD PTR __imp_?ResetParameter@CDataBaseAide@@QAEXXZ

; 887  : 		m_AccountsDBAide.AddParameter(TEXT("@dwUserID"),pSaveOfflineMessage->dwUserID);

  00077	6a 01		 push	 1
  00079	8b 45 e4	 mov	 eax, DWORD PTR _pSaveOfflineMessage$6[ebp]
  0007c	8b 08		 mov	 ecx, DWORD PTR [eax]
  0007e	51		 push	 ecx
  0007f	68 00 00 00 00	 push	 OFFSET ??_C@_09KCDEMNBD@?$EAdwUserID@
  00084	8b 4d e8	 mov	 ecx, DWORD PTR _this$[ebp]
  00087	83 c1 04	 add	 ecx, 4
  0008a	ff 15 00 00 00
	00		 call	 DWORD PTR __imp_?AddParameter@CDataBaseAide@@QAEXPBDKW4ParameterDirectionEnum@ADOCG@@@Z

; 888  : 		m_AccountsDBAide.AddParameter(TEXT("@wMessageType"),pSaveOfflineMessage->wMessageType);

  00090	6a 01		 push	 1
  00092	8b 45 e4	 mov	 eax, DWORD PTR _pSaveOfflineMessage$6[ebp]
  00095	0f b7 48 04	 movzx	 ecx, WORD PTR [eax+4]
  00099	51		 push	 ecx
  0009a	68 00 00 00 00	 push	 OFFSET ??_C@_0O@GONDHLPC@?$EAwMessageType@
  0009f	8b 4d e8	 mov	 ecx, DWORD PTR _this$[ebp]
  000a2	83 c1 04	 add	 ecx, 4
  000a5	ff 15 00 00 00
	00		 call	 DWORD PTR __imp_?AddParameter@CDataBaseAide@@QAEXPBDGW4ParameterDirectionEnum@ADOCG@@@Z

; 889  : 		m_AccountsDBAide.AddParameter(TEXT("@wDataSize"),pSaveOfflineMessage->wDataSize);

  000ab	6a 01		 push	 1
  000ad	8b 45 e4	 mov	 eax, DWORD PTR _pSaveOfflineMessage$6[ebp]
  000b0	0f b7 48 06	 movzx	 ecx, WORD PTR [eax+6]
  000b4	51		 push	 ecx
  000b5	68 00 00 00 00	 push	 OFFSET ??_C@_0L@GKGEGMAC@?$EAwDataSize@
  000ba	8b 4d e8	 mov	 ecx, DWORD PTR _this$[ebp]
  000bd	83 c1 04	 add	 ecx, 4
  000c0	ff 15 00 00 00
	00		 call	 DWORD PTR __imp_?AddParameter@CDataBaseAide@@QAEXPBDGW4ParameterDirectionEnum@ADOCG@@@Z

; 890  : 		m_AccountsDBAide.AddParameter(TEXT("@szOfflineData"),pSaveOfflineMessage->szOfflineData);

  000c6	6a 01		 push	 1
  000c8	8b 45 e4	 mov	 eax, DWORD PTR _pSaveOfflineMessage$6[ebp]
  000cb	83 c0 08	 add	 eax, 8
  000ce	50		 push	 eax
  000cf	68 00 00 00 00	 push	 OFFSET ??_C@_0P@CFKJJPGA@?$EAszOfflineData@
  000d4	8b 4d e8	 mov	 ecx, DWORD PTR _this$[ebp]
  000d7	83 c1 04	 add	 ecx, 4
  000da	ff 15 00 00 00
	00		 call	 DWORD PTR __imp_?AddParameter@CDataBaseAide@@QAEXPBD0W4ParameterDirectionEnum@ADOCG@@@Z

; 891  : 
; 892  : 		//变量定义
; 893  : 		TCHAR szDescribeString[128]=TEXT("");

  000e0	a0 00 00 00 00	 mov	 al, BYTE PTR ??_C@_00CNPNBAHC@@
  000e5	88 85 64 ff ff
	ff		 mov	 BYTE PTR _szDescribeString$5[ebp], al
  000eb	6a 7f		 push	 127			; 0000007fH
  000ed	6a 00		 push	 0
  000ef	8d 85 65 ff ff
	ff		 lea	 eax, DWORD PTR _szDescribeString$5[ebp+1]
  000f5	50		 push	 eax
  000f6	e8 00 00 00 00	 call	 _memset
  000fb	83 c4 0c	 add	 esp, 12			; 0000000cH

; 894  : 		m_AccountsDBAide.AddParameterOutput(TEXT("@strErrorDescribe"),szDescribeString,sizeof(szDescribeString),adParamOutput);

  000fe	6a 02		 push	 2
  00100	68 80 00 00 00	 push	 128			; 00000080H
  00105	8d 85 64 ff ff
	ff		 lea	 eax, DWORD PTR _szDescribeString$5[ebp]
  0010b	50		 push	 eax
  0010c	68 00 00 00 00	 push	 OFFSET ??_C@_0BC@IIOJPJPJ@?$EAstrErrorDescribe@
  00111	8b 4d e8	 mov	 ecx, DWORD PTR _this$[ebp]
  00114	83 c1 04	 add	 ecx, 4
  00117	ff 15 00 00 00
	00		 call	 DWORD PTR __imp_?AddParameterOutput@CDataBaseAide@@QAEXPBDPADIW4ParameterDirectionEnum@ADOCG@@@Z

; 895  : 
; 896  : 		//执行查询
; 897  : 		LONG lResultCode=m_AccountsDBAide.ExecuteProcess(TEXT("GSP_GP_SaveOfflineMessage"),true);

  0011d	6a 01		 push	 1
  0011f	68 00 00 00 00	 push	 OFFSET ??_C@_0BK@GIMHCKOH@GSP_GP_SaveOfflineMessage@
  00124	8b 4d e8	 mov	 ecx, DWORD PTR _this$[ebp]
  00127	83 c1 04	 add	 ecx, 4
  0012a	ff 15 00 00 00
	00		 call	 DWORD PTR __imp_?ExecuteProcess@CDataBaseAide@@QAEJPBD_N@Z
  00130	89 85 14 ff ff
	ff		 mov	 DWORD PTR tv156[ebp], eax
  00136	8b 85 14 ff ff
	ff		 mov	 eax, DWORD PTR tv156[ebp]
  0013c	89 85 60 ff ff
	ff		 mov	 DWORD PTR _lResultCode$4[ebp], eax

; 898  : 
; 899  : 		return true;

  00142	b0 01		 mov	 al, 1
  00144	eb 4c		 jmp	 SHORT $LN1@OnRequestS
__catch$?OnRequestSaveOfflineMessage@CDataBaseEngineSink@@IAE_NKPAXG@Z$0:

; 900  : 	}
; 901  : 	catch (IDataBaseException * pIException)
; 902  : 	{
; 903  : 		//输出错误
; 904  : 		CTraceService::TraceString(pIException->GetExceptionDescribe(),TraceLevel_Exception);

  00146	6a 03		 push	 3
  00148	8b 85 5c ff ff
	ff		 mov	 eax, DWORD PTR _pIException$3[ebp]
  0014e	8b 10		 mov	 edx, DWORD PTR [eax]
  00150	8b 8d 5c ff ff
	ff		 mov	 ecx, DWORD PTR _pIException$3[ebp]
  00156	8b 42 0c	 mov	 eax, DWORD PTR [edx+12]
  00159	ff d0		 call	 eax
  0015b	50		 push	 eax
  0015c	ff 15 00 00 00
	00		 call	 DWORD PTR __imp_?TraceString@CTraceService@@SA_NPBDW4enTraceLevel@@@Z
  00162	83 c4 08	 add	 esp, 8

; 905  : 
; 906  : 		return false;

  00165	c6 85 1b ff ff
	ff 00		 mov	 BYTE PTR $T2[ebp], 0
  0016c	b8 00 00 00 00	 mov	 eax, $LN8@OnRequestS
  00171	c3		 ret	 0

; 907  : 	}

  00172	b8 00 00 00 00	 mov	 eax, __tryend$?OnRequestSaveOfflineMessage@CDataBaseEngineSink@@IAE_NKPAXG@Z$1
  00177	c3		 ret	 0
__tryend$?OnRequestSaveOfflineMessage@CDataBaseEngineSink@@IAE_NKPAXG@Z$1:
  00178	c7 45 fc ff ff
	ff ff		 mov	 DWORD PTR __$EHRec$[ebp+12], -1
  0017f	eb 0f		 jmp	 SHORT $LN7@OnRequestS
$LN8@OnRequestS:
  00181	c7 45 fc ff ff
	ff ff		 mov	 DWORD PTR __$EHRec$[ebp+12], -1

; 905  : 
; 906  : 		return false;

  00188	8a 85 1b ff ff
	ff		 mov	 al, BYTE PTR $T2[ebp]
  0018e	eb 02		 jmp	 SHORT $LN1@OnRequestS
$LN7@OnRequestS:

; 908  : 
; 909  : 	return true;

  00190	b0 01		 mov	 al, 1
$LN1@OnRequestS:

; 910  : }

  00192	8b 4d f4	 mov	 ecx, DWORD PTR __$EHRec$[ebp+4]
  00195	64 89 0d 00 00
	00 00		 mov	 DWORD PTR fs:0, ecx
  0019c	59		 pop	 ecx
  0019d	5f		 pop	 edi
  0019e	5e		 pop	 esi
  0019f	5b		 pop	 ebx
  001a0	8b 4d ec	 mov	 ecx, DWORD PTR __$ArrayPad$[ebp]
  001a3	33 cd		 xor	 ecx, ebp
  001a5	e8 00 00 00 00	 call	 @__security_check_cookie@4
  001aa	8b e5		 mov	 esp, ebp
  001ac	5d		 pop	 ebp
  001ad	c2 0c 00	 ret	 12			; 0000000cH
_TEXT	ENDS
;	COMDAT text$x
text$x	SEGMENT
__ehhandler$?OnRequestSaveOfflineMessage@CDataBaseEngineSink@@IAE_NKPAXG@Z:
  00000	8b 54 24 08	 mov	 edx, DWORD PTR [esp+8]
  00004	8d 42 0c	 lea	 eax, DWORD PTR [edx+12]
  00007	8b 8a 10 ff ff
	ff		 mov	 ecx, DWORD PTR [edx-240]
  0000d	33 c8		 xor	 ecx, eax
  0000f	e8 00 00 00 00	 call	 @__security_check_cookie@4
  00014	8b 4a f8	 mov	 ecx, DWORD PTR [edx-8]
  00017	33 c8		 xor	 ecx, eax
  00019	e8 00 00 00 00	 call	 @__security_check_cookie@4
  0001e	b8 00 00 00 00	 mov	 eax, OFFSET __ehfuncinfo$?OnRequestSaveOfflineMessage@CDataBaseEngineSink@@IAE_NKPAXG@Z
  00023	e9 00 00 00 00	 jmp	 ___CxxFrameHandler3
text$x	ENDS
?OnRequestSaveOfflineMessage@CDataBaseEngineSink@@IAE_NKPAXG@Z ENDP ; CDataBaseEngineSink::OnRequestSaveOfflineMessage
; Function compile flags: /Odtp /ZI
; File g:\网狐\happygamewh\服务端\系统模块\服务器组件\聊天服务器\databaseenginesink.cpp
;	COMDAT ?OnRequestSearchUser@CDataBaseEngineSink@@IAE_NKPAXG@Z
_TEXT	SEGMENT
tv209 = -281						; size = 1
tv136 = -280						; size = 4
tv213 = -276						; size = 4
tv211 = -276						; size = 4
tv210 = -276						; size = 4
tv208 = -276						; size = 4
tv207 = -276						; size = 4
tv206 = -276						; size = 4
tv205 = -276						; size = 4
tv216 = -272						; size = 2
tv215 = -272						; size = 2
tv214 = -270						; size = 1
tv212 = -270						; size = 1
$T2 = -269						; size = 1
_pIException$3 = -204					; size = 4
_SearchUserResult$4 = -200				; size = 166
_lResultCode$5 = -32					; size = 4
_pSearchUser$6 = -28					; size = 4
_this$ = -24						; size = 4
__$ArrayPad$ = -20					; size = 4
__$EHRec$ = -16						; size = 16
_dwContextID$ = 8					; size = 4
_pData$ = 12						; size = 4
_wDataSize$ = 16					; size = 2
?OnRequestSearchUser@CDataBaseEngineSink@@IAE_NKPAXG@Z PROC ; CDataBaseEngineSink::OnRequestSearchUser, COMDAT
; _this$ = ecx

; 786  : {

  00000	55		 push	 ebp
  00001	8b ec		 mov	 ebp, esp
  00003	6a ff		 push	 -1
  00005	68 00 00 00 00	 push	 __ehhandler$?OnRequestSearchUser@CDataBaseEngineSink@@IAE_NKPAXG@Z
  0000a	64 a1 00 00 00
	00		 mov	 eax, DWORD PTR fs:0
  00010	50		 push	 eax
  00011	51		 push	 ecx
  00012	81 ec 0c 01 00
	00		 sub	 esp, 268		; 0000010cH
  00018	a1 00 00 00 00	 mov	 eax, DWORD PTR ___security_cookie
  0001d	33 c5		 xor	 eax, ebp
  0001f	89 45 ec	 mov	 DWORD PTR __$ArrayPad$[ebp], eax
  00022	53		 push	 ebx
  00023	56		 push	 esi
  00024	57		 push	 edi
  00025	50		 push	 eax
  00026	8d 45 f4	 lea	 eax, DWORD PTR __$EHRec$[ebp+4]
  00029	64 a3 00 00 00
	00		 mov	 DWORD PTR fs:0, eax
  0002f	89 65 f0	 mov	 DWORD PTR __$EHRec$[ebp], esp
  00032	89 4d e8	 mov	 DWORD PTR _this$[ebp], ecx

; 787  : 	try

  00035	c7 45 fc 00 00
	00 00		 mov	 DWORD PTR __$EHRec$[ebp+12], 0

; 788  : 	{
; 789  : 		//提取变量
; 790  : 		DBR_GR_SearchUser * pSearchUser=(DBR_GR_SearchUser * )pData;

  0003c	8b 45 0c	 mov	 eax, DWORD PTR _pData$[ebp]
  0003f	89 45 e4	 mov	 DWORD PTR _pSearchUser$6[ebp], eax

; 791  : 		ASSERT(pSearchUser!=NULL);

  00042	83 7d e4 00	 cmp	 DWORD PTR _pSearchUser$6[ebp], 0
  00046	75 23		 jne	 SHORT $LN6@OnRequestS
  00048	a1 00 00 00 00	 mov	 eax, DWORD PTR ?__LINE__Var@?0??OnRequestSearchUser@CDataBaseEngineSink@@IAE_NKPAXG@Z@4JA
  0004d	83 c0 05	 add	 eax, 5
  00050	50		 push	 eax
  00051	68 00 00 00 00	 push	 OFFSET ?THIS_FILE@@3PADA
  00056	e8 00 00 00 00	 call	 ?AfxAssertFailedLine@@YGHPBDH@Z ; AfxAssertFailedLine
  0005b	89 85 ec fe ff
	ff		 mov	 DWORD PTR tv205[ebp], eax
  00061	83 bd ec fe ff
	ff 00		 cmp	 DWORD PTR tv205[ebp], 0
  00068	74 01		 je	 SHORT $LN6@OnRequestS
  0006a	cc		 int	 3
$LN6@OnRequestS:

; 792  : 
; 793  : 		//执行查询
; 794  : 		m_AccountsDBAide.ResetParameter();

  0006b	8b 4d e8	 mov	 ecx, DWORD PTR _this$[ebp]
  0006e	83 c1 04	 add	 ecx, 4
  00071	ff 15 00 00 00
	00		 call	 DWORD PTR __imp_?ResetParameter@CDataBaseAide@@QAEXXZ

; 795  : 		m_AccountsDBAide.AddParameter(TEXT("@dwGameID"),pSearchUser->dwSearchByGameID);

  00077	6a 01		 push	 1
  00079	8b 45 e4	 mov	 eax, DWORD PTR _pSearchUser$6[ebp]
  0007c	8b 08		 mov	 ecx, DWORD PTR [eax]
  0007e	51		 push	 ecx
  0007f	68 00 00 00 00	 push	 OFFSET ??_C@_09OBNFMHID@?$EAdwGameID@
  00084	8b 4d e8	 mov	 ecx, DWORD PTR _this$[ebp]
  00087	83 c1 04	 add	 ecx, 4
  0008a	ff 15 00 00 00
	00		 call	 DWORD PTR __imp_?AddParameter@CDataBaseAide@@QAEXPBDKW4ParameterDirectionEnum@ADOCG@@@Z

; 796  : 
; 797  : 		//执行查询
; 798  : 		LONG lResultCode=m_AccountsDBAide.ExecuteProcess(TEXT("GSP_GP_SearchUser"),true);

  00090	6a 01		 push	 1
  00092	68 00 00 00 00	 push	 OFFSET ??_C@_0BC@FMPJFMGP@GSP_GP_SearchUser@
  00097	8b 4d e8	 mov	 ecx, DWORD PTR _this$[ebp]
  0009a	83 c1 04	 add	 ecx, 4
  0009d	ff 15 00 00 00
	00		 call	 DWORD PTR __imp_?ExecuteProcess@CDataBaseAide@@QAEJPBD_N@Z
  000a3	89 85 ec fe ff
	ff		 mov	 DWORD PTR tv206[ebp], eax
  000a9	8b 85 ec fe ff
	ff		 mov	 eax, DWORD PTR tv206[ebp]
  000af	89 45 e0	 mov	 DWORD PTR _lResultCode$5[ebp], eax

; 799  : 
; 800  : 		//变量定义
; 801  : 		DBO_GR_SearchUserResult	SearchUserResult;
; 802  : 		ZeroMemory(&SearchUserResult,sizeof(SearchUserResult));

  000b2	68 a6 00 00 00	 push	 166			; 000000a6H
  000b7	6a 00		 push	 0
  000b9	8d 85 38 ff ff
	ff		 lea	 eax, DWORD PTR _SearchUserResult$4[ebp]
  000bf	50		 push	 eax
  000c0	e8 00 00 00 00	 call	 _memset
  000c5	83 c4 0c	 add	 esp, 12			; 0000000cH

; 803  : 
; 804  : 		//执行成功
; 805  : 		if(lResultCode==DB_SUCCESS && m_AccountsDBModule.GetInterface())

  000c8	83 7d e0 00	 cmp	 DWORD PTR _lResultCode$5[ebp], 0
  000cc	0f 85 9e 01 00
	00		 jne	 $LN3@OnRequestS
  000d2	8b 4d e8	 mov	 ecx, DWORD PTR _this$[ebp]
  000d5	83 c1 0c	 add	 ecx, 12			; 0000000cH
  000d8	e8 00 00 00 00	 call	 ?GetInterface@?$CTempldateHelper@UIDataBase@@@@QBEPAUIDataBase@@XZ ; CTempldateHelper<IDataBase>::GetInterface
  000dd	89 85 ec fe ff
	ff		 mov	 DWORD PTR tv207[ebp], eax
  000e3	83 bd ec fe ff
	ff 00		 cmp	 DWORD PTR tv207[ebp], 0
  000ea	0f 84 80 01 00
	00		 je	 $LN3@OnRequestS

; 806  : 		{
; 807  : 			if(m_AccountsDBModule->IsRecordsetEnd()==false)

  000f0	8b 4d e8	 mov	 ecx, DWORD PTR _this$[ebp]
  000f3	83 c1 0c	 add	 ecx, 12			; 0000000cH
  000f6	e8 00 00 00 00	 call	 ??C?$CTempldateHelper@UIDataBase@@@@QBEPAUIDataBase@@XZ ; CTempldateHelper<IDataBase>::operator->
  000fb	89 85 ec fe ff
	ff		 mov	 DWORD PTR tv208[ebp], eax
  00101	8b 85 ec fe ff
	ff		 mov	 eax, DWORD PTR tv208[ebp]
  00107	89 85 e8 fe ff
	ff		 mov	 DWORD PTR tv136[ebp], eax
  0010d	8b 8d e8 fe ff
	ff		 mov	 ecx, DWORD PTR tv136[ebp]
  00113	8b 11		 mov	 edx, DWORD PTR [ecx]
  00115	8b 8d e8 fe ff
	ff		 mov	 ecx, DWORD PTR tv136[ebp]
  0011b	8b 42 38	 mov	 eax, DWORD PTR [edx+56]
  0011e	ff d0		 call	 eax
  00120	88 85 e7 fe ff
	ff		 mov	 BYTE PTR tv209[ebp], al
  00126	0f b6 8d e7 fe
	ff ff		 movzx	 ecx, BYTE PTR tv209[ebp]
  0012d	85 c9		 test	 ecx, ecx
  0012f	0f 85 3b 01 00
	00		 jne	 $LN3@OnRequestS

; 808  : 			{
; 809  : 				SearchUserResult.FriendInfo.dwUserID=m_AccountsDBAide.GetValue_DWORD(TEXT("UserID"));

  00135	68 00 00 00 00	 push	 OFFSET ??_C@_06OFHCDFJK@UserID@
  0013a	8b 4d e8	 mov	 ecx, DWORD PTR _this$[ebp]
  0013d	83 c1 04	 add	 ecx, 4
  00140	ff 15 00 00 00
	00		 call	 DWORD PTR __imp_?GetValue_DWORD@CDataBaseAide@@QAEKPBD@Z
  00146	89 85 ec fe ff
	ff		 mov	 DWORD PTR tv210[ebp], eax
  0014c	8b 85 ec fe ff
	ff		 mov	 eax, DWORD PTR tv210[ebp]
  00152	89 85 39 ff ff
	ff		 mov	 DWORD PTR _SearchUserResult$4[ebp+1], eax

; 810  : 				SearchUserResult.FriendInfo.dwGameID=m_AccountsDBAide.GetValue_DWORD(TEXT("GameID"));

  00158	68 00 00 00 00	 push	 OFFSET ??_C@_06KGJDDPAK@GameID@
  0015d	8b 4d e8	 mov	 ecx, DWORD PTR _this$[ebp]
  00160	83 c1 04	 add	 ecx, 4
  00163	ff 15 00 00 00
	00		 call	 DWORD PTR __imp_?GetValue_DWORD@CDataBaseAide@@QAEKPBD@Z
  00169	89 85 ec fe ff
	ff		 mov	 DWORD PTR tv211[ebp], eax
  0016f	8b 85 ec fe ff
	ff		 mov	 eax, DWORD PTR tv211[ebp]
  00175	89 85 3d ff ff
	ff		 mov	 DWORD PTR _SearchUserResult$4[ebp+5], eax

; 811  : 				SearchUserResult.FriendInfo.cbGroupID =0;

  0017b	c6 45 b3 00	 mov	 BYTE PTR _SearchUserResult$4[ebp+123], 0

; 812  : 				SearchUserResult.FriendInfo.dwFaceID =m_AccountsDBAide.GetValue_BYTE(TEXT("FaceID"));

  0017f	68 00 00 00 00	 push	 OFFSET ??_C@_06LPNEIKNP@FaceID@
  00184	8b 4d e8	 mov	 ecx, DWORD PTR _this$[ebp]
  00187	83 c1 04	 add	 ecx, 4
  0018a	ff 15 00 00 00
	00		 call	 DWORD PTR __imp_?GetValue_BYTE@CDataBaseAide@@QAEEPBD@Z
  00190	88 85 f2 fe ff
	ff		 mov	 BYTE PTR tv212[ebp], al
  00196	0f b6 85 f2 fe
	ff ff		 movzx	 eax, BYTE PTR tv212[ebp]
  0019d	89 85 61 ff ff
	ff		 mov	 DWORD PTR _SearchUserResult$4[ebp+41], eax

; 813  : 				SearchUserResult.FriendInfo.dwCustomID =m_AccountsDBAide.GetValue_DWORD(TEXT("CustomID"));

  001a3	68 00 00 00 00	 push	 OFFSET ??_C@_08GOBKDNAK@CustomID@
  001a8	8b 4d e8	 mov	 ecx, DWORD PTR _this$[ebp]
  001ab	83 c1 04	 add	 ecx, 4
  001ae	ff 15 00 00 00
	00		 call	 DWORD PTR __imp_?GetValue_DWORD@CDataBaseAide@@QAEKPBD@Z
  001b4	89 85 ec fe ff
	ff		 mov	 DWORD PTR tv213[ebp], eax
  001ba	8b 85 ec fe ff
	ff		 mov	 eax, DWORD PTR tv213[ebp]
  001c0	89 85 65 ff ff
	ff		 mov	 DWORD PTR _SearchUserResult$4[ebp+45], eax

; 814  : 				SearchUserResult.FriendInfo.cbGender =m_AccountsDBAide.GetValue_BYTE(TEXT("Gender"));

  001c6	68 00 00 00 00	 push	 OFFSET ??_C@_06HKFFEOFI@Gender@
  001cb	8b 4d e8	 mov	 ecx, DWORD PTR _this$[ebp]
  001ce	83 c1 04	 add	 ecx, 4
  001d1	ff 15 00 00 00
	00		 call	 DWORD PTR __imp_?GetValue_BYTE@CDataBaseAide@@QAEEPBD@Z
  001d7	88 85 f2 fe ff
	ff		 mov	 BYTE PTR tv214[ebp], al
  001dd	8a 85 f2 fe ff
	ff		 mov	 al, BYTE PTR tv214[ebp]
  001e3	88 85 69 ff ff
	ff		 mov	 BYTE PTR _SearchUserResult$4[ebp+49], al

; 815  : 				SearchUserResult.FriendInfo.wMemberOrder =m_AccountsDBAide.GetValue_WORD(TEXT("MemberOrder"));

  001e9	68 00 00 00 00	 push	 OFFSET ??_C@_0M@CEFIIFDG@MemberOrder@
  001ee	8b 4d e8	 mov	 ecx, DWORD PTR _this$[ebp]
  001f1	83 c1 04	 add	 ecx, 4
  001f4	ff 15 00 00 00
	00		 call	 DWORD PTR __imp_?GetValue_WORD@CDataBaseAide@@QAEGPBD@Z
  001fa	66 89 85 f0 fe
	ff ff		 mov	 WORD PTR tv215[ebp], ax
  00201	66 8b 85 f0 fe
	ff ff		 mov	 ax, WORD PTR tv215[ebp]
  00208	66 89 85 6a ff
	ff ff		 mov	 WORD PTR _SearchUserResult$4[ebp+50], ax

; 816  : 				SearchUserResult.FriendInfo.wGrowLevel =m_AccountsDBAide.GetValue_WORD(TEXT("GrowLevel"));

  0020f	68 00 00 00 00	 push	 OFFSET ??_C@_09HOAKNMLL@GrowLevel@
  00214	8b 4d e8	 mov	 ecx, DWORD PTR _this$[ebp]
  00217	83 c1 04	 add	 ecx, 4
  0021a	ff 15 00 00 00
	00		 call	 DWORD PTR __imp_?GetValue_WORD@CDataBaseAide@@QAEGPBD@Z
  00220	66 89 85 f0 fe
	ff ff		 mov	 WORD PTR tv216[ebp], ax
  00227	66 8b 85 f0 fe
	ff ff		 mov	 ax, WORD PTR tv216[ebp]
  0022e	66 89 85 6c ff
	ff ff		 mov	 WORD PTR _SearchUserResult$4[ebp+52], ax

; 817  : 				m_AccountsDBAide.GetValue_String(TEXT("NickName"),    SearchUserResult.FriendInfo.szNickName    ,CountArray(SearchUserResult.FriendInfo.szNickName));

  00235	6a 20		 push	 32			; 00000020H
  00237	8d 85 41 ff ff
	ff		 lea	 eax, DWORD PTR _SearchUserResult$4[ebp+9]
  0023d	50		 push	 eax
  0023e	68 00 00 00 00	 push	 OFFSET ??_C@_08CELDJAGK@NickName@
  00243	8b 4d e8	 mov	 ecx, DWORD PTR _this$[ebp]
  00246	83 c1 04	 add	 ecx, 4
  00249	ff 15 00 00 00
	00		 call	 DWORD PTR __imp_?GetValue_String@CDataBaseAide@@QAEXPBDPADI@Z

; 818  : 				m_AccountsDBAide.GetValue_String(TEXT("UnderWrite"),  SearchUserResult.FriendInfo.szUnderWrite  ,CountArray(SearchUserResult.FriendInfo.szUnderWrite));

  0024f	6a 20		 push	 32			; 00000020H
  00251	8d 85 6e ff ff
	ff		 lea	 eax, DWORD PTR _SearchUserResult$4[ebp+54]
  00257	50		 push	 eax
  00258	68 00 00 00 00	 push	 OFFSET ??_C@_0L@CPAJNIME@UnderWrite@
  0025d	8b 4d e8	 mov	 ecx, DWORD PTR _this$[ebp]
  00260	83 c1 04	 add	 ecx, 4
  00263	ff 15 00 00 00
	00		 call	 DWORD PTR __imp_?GetValue_String@CDataBaseAide@@QAEXPBDPADI@Z

; 819  : 				SearchUserResult.cbUserCount = 1;

  00269	c6 85 38 ff ff
	ff 01		 mov	 BYTE PTR _SearchUserResult$4[ebp], 1
$LN3@OnRequestS:

; 820  : 			}
; 821  : 		}
; 822  : 
; 823  : 		//发送结果
; 824  : 		m_pIDataBaseEngineEvent->OnEventDataBaseResult(DBO_GR_SEARCH_USER_RESULT,dwContextID,&SearchUserResult,sizeof(SearchUserResult));

  00270	68 a6 00 00 00	 push	 166			; 000000a6H
  00275	8d 85 38 ff ff
	ff		 lea	 eax, DWORD PTR _SearchUserResult$4[ebp]
  0027b	50		 push	 eax
  0027c	8b 4d 08	 mov	 ecx, DWORD PTR _dwContextID$[ebp]
  0027f	51		 push	 ecx
  00280	68 98 01 00 00	 push	 408			; 00000198H
  00285	8b 55 e8	 mov	 edx, DWORD PTR _this$[ebp]
  00288	8b 45 e8	 mov	 eax, DWORD PTR _this$[ebp]
  0028b	8b 88 a8 05 00
	00		 mov	 ecx, DWORD PTR [eax+1448]
  00291	8b 01		 mov	 eax, DWORD PTR [ecx]
  00293	8b 8a a8 05 00
	00		 mov	 ecx, DWORD PTR [edx+1448]
  00299	8b 50 08	 mov	 edx, DWORD PTR [eax+8]
  0029c	ff d2		 call	 edx

; 825  : 
; 826  : 		return true;

  0029e	b0 01		 mov	 al, 1
  002a0	eb 63		 jmp	 SHORT $LN1@OnRequestS
__catch$?OnRequestSearchUser@CDataBaseEngineSink@@IAE_NKPAXG@Z$0:

; 827  : 	}
; 828  : 	catch (IDataBaseException * pIException)
; 829  : 	{
; 830  : 		//输出错误
; 831  : 		CTraceService::TraceString(pIException->GetExceptionDescribe(),TraceLevel_Exception);

  002a2	6a 03		 push	 3
  002a4	8b 85 34 ff ff
	ff		 mov	 eax, DWORD PTR _pIException$3[ebp]
  002aa	8b 10		 mov	 edx, DWORD PTR [eax]
  002ac	8b 8d 34 ff ff
	ff		 mov	 ecx, DWORD PTR _pIException$3[ebp]
  002b2	8b 42 0c	 mov	 eax, DWORD PTR [edx+12]
  002b5	ff d0		 call	 eax
  002b7	50		 push	 eax
  002b8	ff 15 00 00 00
	00		 call	 DWORD PTR __imp_?TraceString@CTraceService@@SA_NPBDW4enTraceLevel@@@Z
  002be	83 c4 08	 add	 esp, 8

; 832  : 
; 833  : 		//操作失败
; 834  : 		OnUserOperateResult(dwContextID,false,0L,SUB_GC_SEARCH_USER,TEXT("抱歉,由于数据库操作异常,您的请求无法完成！"));

  002c1	68 00 00 00 00	 push	 OFFSET ??_C@_0CL@OKPGMGNM@?$LB?$KH?G?$LI?0?S?I?S?Z?J?$PN?$LO?$NN?$LP?b?$LC?Y?W?w?R?l?$LD?$KD?0?D?z?$LF?D?G?k?G@
  002c6	6a 67		 push	 103			; 00000067H
  002c8	6a 00		 push	 0
  002ca	6a 00		 push	 0
  002cc	8b 45 08	 mov	 eax, DWORD PTR _dwContextID$[ebp]
  002cf	50		 push	 eax
  002d0	8b 4d e8	 mov	 ecx, DWORD PTR _this$[ebp]
  002d3	e8 00 00 00 00	 call	 ?OnUserOperateResult@CDataBaseEngineSink@@AAEXK_NKGPBD@Z ; CDataBaseEngineSink::OnUserOperateResult

; 835  : 
; 836  : 		return false;

  002d8	c6 85 f3 fe ff
	ff 00		 mov	 BYTE PTR $T2[ebp], 0
  002df	b8 00 00 00 00	 mov	 eax, $LN10@OnRequestS
  002e4	c3		 ret	 0

; 837  : 	}

  002e5	b8 00 00 00 00	 mov	 eax, __tryend$?OnRequestSearchUser@CDataBaseEngineSink@@IAE_NKPAXG@Z$1
  002ea	c3		 ret	 0
__tryend$?OnRequestSearchUser@CDataBaseEngineSink@@IAE_NKPAXG@Z$1:
  002eb	c7 45 fc ff ff
	ff ff		 mov	 DWORD PTR __$EHRec$[ebp+12], -1
  002f2	eb 0f		 jmp	 SHORT $LN9@OnRequestS
$LN10@OnRequestS:
  002f4	c7 45 fc ff ff
	ff ff		 mov	 DWORD PTR __$EHRec$[ebp+12], -1

; 835  : 
; 836  : 		return false;

  002fb	8a 85 f3 fe ff
	ff		 mov	 al, BYTE PTR $T2[ebp]
  00301	eb 02		 jmp	 SHORT $LN1@OnRequestS
$LN9@OnRequestS:

; 838  : 
; 839  : 	return true;

  00303	b0 01		 mov	 al, 1
$LN1@OnRequestS:

; 840  : }

  00305	8b 4d f4	 mov	 ecx, DWORD PTR __$EHRec$[ebp+4]
  00308	64 89 0d 00 00
	00 00		 mov	 DWORD PTR fs:0, ecx
  0030f	59		 pop	 ecx
  00310	5f		 pop	 edi
  00311	5e		 pop	 esi
  00312	5b		 pop	 ebx
  00313	8b 4d ec	 mov	 ecx, DWORD PTR __$ArrayPad$[ebp]
  00316	33 cd		 xor	 ecx, ebp
  00318	e8 00 00 00 00	 call	 @__security_check_cookie@4
  0031d	8b e5		 mov	 esp, ebp
  0031f	5d		 pop	 ebp
  00320	c2 0c 00	 ret	 12			; 0000000cH
_TEXT	ENDS
;	COMDAT text$x
text$x	SEGMENT
__ehhandler$?OnRequestSearchUser@CDataBaseEngineSink@@IAE_NKPAXG@Z:
  00000	8b 54 24 08	 mov	 edx, DWORD PTR [esp+8]
  00004	8d 42 0c	 lea	 eax, DWORD PTR [edx+12]
  00007	8b 8a e0 fe ff
	ff		 mov	 ecx, DWORD PTR [edx-288]
  0000d	33 c8		 xor	 ecx, eax
  0000f	e8 00 00 00 00	 call	 @__security_check_cookie@4
  00014	8b 4a f8	 mov	 ecx, DWORD PTR [edx-8]
  00017	33 c8		 xor	 ecx, eax
  00019	e8 00 00 00 00	 call	 @__security_check_cookie@4
  0001e	b8 00 00 00 00	 mov	 eax, OFFSET __ehfuncinfo$?OnRequestSearchUser@CDataBaseEngineSink@@IAE_NKPAXG@Z
  00023	e9 00 00 00 00	 jmp	 ___CxxFrameHandler3
text$x	ENDS
?OnRequestSearchUser@CDataBaseEngineSink@@IAE_NKPAXG@Z ENDP ; CDataBaseEngineSink::OnRequestSearchUser
; Function compile flags: /Odtp /ZI
; File g:\网狐\happygamewh\服务端\系统模块\服务器组件\聊天服务器\databaseenginesink.cpp
;	COMDAT ?OnRequestModifyRemarks@CDataBaseEngineSink@@IAE_NKPAXG@Z
_TEXT	SEGMENT
tv172 = -196						; size = 4
tv129 = -196						; size = 4
$T2 = -189						; size = 1
_ModifyRemarks$3 = -124					; size = 44
_pIException$4 = -80					; size = 4
_ModifyRemarks$5 = -76					; size = 44
_lResultCode$6 = -32					; size = 4
_pModifyRemarks$ = -28					; size = 4
_this$ = -24						; size = 4
__$ArrayPad$ = -20					; size = 4
__$EHRec$ = -16						; size = 16
_dwContextID$ = 8					; size = 4
_pData$ = 12						; size = 4
_wDataSize$ = 16					; size = 2
?OnRequestModifyRemarks@CDataBaseEngineSink@@IAE_NKPAXG@Z PROC ; CDataBaseEngineSink::OnRequestModifyRemarks, COMDAT
; _this$ = ecx

; 735  : {

  00000	55		 push	 ebp
  00001	8b ec		 mov	 ebp, esp
  00003	6a ff		 push	 -1
  00005	68 00 00 00 00	 push	 __ehhandler$?OnRequestModifyRemarks@CDataBaseEngineSink@@IAE_NKPAXG@Z
  0000a	64 a1 00 00 00
	00		 mov	 eax, DWORD PTR fs:0
  00010	50		 push	 eax
  00011	51		 push	 ecx
  00012	81 ec b4 00 00
	00		 sub	 esp, 180		; 000000b4H
  00018	a1 00 00 00 00	 mov	 eax, DWORD PTR ___security_cookie
  0001d	33 c5		 xor	 eax, ebp
  0001f	89 45 ec	 mov	 DWORD PTR __$ArrayPad$[ebp], eax
  00022	53		 push	 ebx
  00023	56		 push	 esi
  00024	57		 push	 edi
  00025	50		 push	 eax
  00026	8d 45 f4	 lea	 eax, DWORD PTR __$EHRec$[ebp+4]
  00029	64 a3 00 00 00
	00		 mov	 DWORD PTR fs:0, eax
  0002f	89 65 f0	 mov	 DWORD PTR __$EHRec$[ebp], esp
  00032	89 4d e8	 mov	 DWORD PTR _this$[ebp], ecx

; 736  : 	//提取变量
; 737  : 	DBR_GR_ModifyRemarks * pModifyRemarks=(DBR_GR_ModifyRemarks * )pData;

  00035	8b 45 0c	 mov	 eax, DWORD PTR _pData$[ebp]
  00038	89 45 e4	 mov	 DWORD PTR _pModifyRemarks$[ebp], eax

; 738  : 	ASSERT(pModifyRemarks!=NULL);

  0003b	83 7d e4 00	 cmp	 DWORD PTR _pModifyRemarks$[ebp], 0
  0003f	75 18		 jne	 SHORT $LN4@OnRequestM
  00041	a1 00 00 00 00	 mov	 eax, DWORD PTR ?__LINE__Var@?0??OnRequestModifyRemarks@CDataBaseEngineSink@@IAE_NKPAXG@Z@4JA
  00046	83 c0 03	 add	 eax, 3
  00049	50		 push	 eax
  0004a	68 00 00 00 00	 push	 OFFSET ?THIS_FILE@@3PADA
  0004f	e8 00 00 00 00	 call	 ?AfxAssertFailedLine@@YGHPBDH@Z ; AfxAssertFailedLine
  00054	85 c0		 test	 eax, eax
  00056	74 01		 je	 SHORT $LN4@OnRequestM
  00058	cc		 int	 3
$LN4@OnRequestM:

; 739  : 
; 740  : 	try

  00059	c7 45 fc 00 00
	00 00		 mov	 DWORD PTR __$EHRec$[ebp+12], 0

; 741  : 	{	
; 742  : 		//执行查询
; 743  : 		m_AccountsDBAide.ResetParameter();

  00060	8b 4d e8	 mov	 ecx, DWORD PTR _this$[ebp]
  00063	83 c1 04	 add	 ecx, 4
  00066	ff 15 00 00 00
	00		 call	 DWORD PTR __imp_?ResetParameter@CDataBaseAide@@QAEXXZ

; 744  : 		m_AccountsDBAide.AddParameter(TEXT("@dwUserID"),pModifyRemarks->dwUserID);

  0006c	6a 01		 push	 1
  0006e	8b 45 e4	 mov	 eax, DWORD PTR _pModifyRemarks$[ebp]
  00071	8b 08		 mov	 ecx, DWORD PTR [eax]
  00073	51		 push	 ecx
  00074	68 00 00 00 00	 push	 OFFSET ??_C@_09KCDEMNBD@?$EAdwUserID@
  00079	8b 4d e8	 mov	 ecx, DWORD PTR _this$[ebp]
  0007c	83 c1 04	 add	 ecx, 4
  0007f	ff 15 00 00 00
	00		 call	 DWORD PTR __imp_?AddParameter@CDataBaseAide@@QAEXPBDKW4ParameterDirectionEnum@ADOCG@@@Z

; 745  : 		m_AccountsDBAide.AddParameter(TEXT("@dwFriendUserID"),pModifyRemarks->dwFriendID);

  00085	6a 01		 push	 1
  00087	8b 45 e4	 mov	 eax, DWORD PTR _pModifyRemarks$[ebp]
  0008a	8b 48 04	 mov	 ecx, DWORD PTR [eax+4]
  0008d	51		 push	 ecx
  0008e	68 00 00 00 00	 push	 OFFSET ??_C@_0BA@PEHFKMKN@?$EAdwFriendUserID@
  00093	8b 4d e8	 mov	 ecx, DWORD PTR _this$[ebp]
  00096	83 c1 04	 add	 ecx, 4
  00099	ff 15 00 00 00
	00		 call	 DWORD PTR __imp_?AddParameter@CDataBaseAide@@QAEXPBDKW4ParameterDirectionEnum@ADOCG@@@Z

; 746  : 		m_AccountsDBAide.AddParameter(TEXT("@szRemarksInfo"),pModifyRemarks->szUserRemarks);

  0009f	6a 01		 push	 1
  000a1	8b 45 e4	 mov	 eax, DWORD PTR _pModifyRemarks$[ebp]
  000a4	83 c0 08	 add	 eax, 8
  000a7	50		 push	 eax
  000a8	68 00 00 00 00	 push	 OFFSET ??_C@_0P@KAOHGEPI@?$EAszRemarksInfo@
  000ad	8b 4d e8	 mov	 ecx, DWORD PTR _this$[ebp]
  000b0	83 c1 04	 add	 ecx, 4
  000b3	ff 15 00 00 00
	00		 call	 DWORD PTR __imp_?AddParameter@CDataBaseAide@@QAEXPBD0W4ParameterDirectionEnum@ADOCG@@@Z

; 747  : 
; 748  : 		//执行查询
; 749  : 		LONG lResultCode=m_AccountsDBAide.ExecuteProcess(TEXT("GSP_GP_ModifyUserRemarks"),true);

  000b9	6a 01		 push	 1
  000bb	68 00 00 00 00	 push	 OFFSET ??_C@_0BJ@JFABKBII@GSP_GP_ModifyUserRemarks@
  000c0	8b 4d e8	 mov	 ecx, DWORD PTR _this$[ebp]
  000c3	83 c1 04	 add	 ecx, 4
  000c6	ff 15 00 00 00
	00		 call	 DWORD PTR __imp_?ExecuteProcess@CDataBaseAide@@QAEJPBD_N@Z
  000cc	89 85 3c ff ff
	ff		 mov	 DWORD PTR tv172[ebp], eax
  000d2	8b 85 3c ff ff
	ff		 mov	 eax, DWORD PTR tv172[ebp]
  000d8	89 45 e0	 mov	 DWORD PTR _lResultCode$6[ebp], eax

; 750  : 
; 751  : 		//变量定义
; 752  : 		DBO_GR_ModifyRemarks  ModifyRemarks;
; 753  : 		ModifyRemarks.bSuccessed=lResultCode==DB_SUCCESS;

  000db	83 7d e0 00	 cmp	 DWORD PTR _lResultCode$6[ebp], 0
  000df	75 0c		 jne	 SHORT $LN5@OnRequestM
  000e1	c7 85 3c ff ff
	ff 01 00 00 00	 mov	 DWORD PTR tv129[ebp], 1
  000eb	eb 0a		 jmp	 SHORT $LN6@OnRequestM
$LN5@OnRequestM:
  000ed	c7 85 3c ff ff
	ff 00 00 00 00	 mov	 DWORD PTR tv129[ebp], 0
$LN6@OnRequestM:
  000f7	8a 85 3c ff ff
	ff		 mov	 al, BYTE PTR tv129[ebp]
  000fd	88 45 b4	 mov	 BYTE PTR _ModifyRemarks$5[ebp], al

; 754  : 		ModifyRemarks.dwUserID=pModifyRemarks->dwUserID;

  00100	8b 45 e4	 mov	 eax, DWORD PTR _pModifyRemarks$[ebp]
  00103	8b 08		 mov	 ecx, DWORD PTR [eax]
  00105	89 4d b8	 mov	 DWORD PTR _ModifyRemarks$5[ebp+4], ecx

; 755  : 		ModifyRemarks.dwFriendID = pModifyRemarks->dwFriendID;

  00108	8b 45 e4	 mov	 eax, DWORD PTR _pModifyRemarks$[ebp]
  0010b	8b 48 04	 mov	 ecx, DWORD PTR [eax+4]
  0010e	89 4d bc	 mov	 DWORD PTR _ModifyRemarks$5[ebp+8], ecx

; 756  : 		lstrcpyn(ModifyRemarks.szUserRemarks,pModifyRemarks->szUserRemarks,CountArray(ModifyRemarks.szUserRemarks));

  00111	6a 20		 push	 32			; 00000020H
  00113	8b 45 e4	 mov	 eax, DWORD PTR _pModifyRemarks$[ebp]
  00116	83 c0 08	 add	 eax, 8
  00119	50		 push	 eax
  0011a	8d 4d c0	 lea	 ecx, DWORD PTR _ModifyRemarks$5[ebp+12]
  0011d	51		 push	 ecx
  0011e	ff 15 00 00 00
	00		 call	 DWORD PTR __imp__lstrcpynA@12

; 757  : 
; 758  : 		//投递数据
; 759  : 		m_pIDataBaseEngineEvent->OnEventDataBaseResult(DBO_GR_MODIFY_REMARKS,dwContextID,&ModifyRemarks,sizeof(ModifyRemarks));

  00124	6a 2c		 push	 44			; 0000002cH
  00126	8d 45 b4	 lea	 eax, DWORD PTR _ModifyRemarks$5[ebp]
  00129	50		 push	 eax
  0012a	8b 4d 08	 mov	 ecx, DWORD PTR _dwContextID$[ebp]
  0012d	51		 push	 ecx
  0012e	68 96 01 00 00	 push	 406			; 00000196H
  00133	8b 55 e8	 mov	 edx, DWORD PTR _this$[ebp]
  00136	8b 45 e8	 mov	 eax, DWORD PTR _this$[ebp]
  00139	8b 88 a8 05 00
	00		 mov	 ecx, DWORD PTR [eax+1448]
  0013f	8b 01		 mov	 eax, DWORD PTR [ecx]
  00141	8b 8a a8 05 00
	00		 mov	 ecx, DWORD PTR [edx+1448]
  00147	8b 50 08	 mov	 edx, DWORD PTR [eax+8]
  0014a	ff d2		 call	 edx

; 760  : 
; 761  : 		return true;

  0014c	b0 01		 mov	 al, 1
  0014e	e9 96 00 00 00	 jmp	 $LN1@OnRequestM
__catch$?OnRequestModifyRemarks@CDataBaseEngineSink@@IAE_NKPAXG@Z$0:

; 762  : 	}
; 763  : 	catch (IDataBaseException * pIException)
; 764  : 	{
; 765  : 		//输出错误
; 766  : 		CTraceService::TraceString(pIException->GetExceptionDescribe(),TraceLevel_Exception);

  00153	6a 03		 push	 3
  00155	8b 45 b0	 mov	 eax, DWORD PTR _pIException$4[ebp]
  00158	8b 10		 mov	 edx, DWORD PTR [eax]
  0015a	8b 4d b0	 mov	 ecx, DWORD PTR _pIException$4[ebp]
  0015d	8b 42 0c	 mov	 eax, DWORD PTR [edx+12]
  00160	ff d0		 call	 eax
  00162	50		 push	 eax
  00163	ff 15 00 00 00
	00		 call	 DWORD PTR __imp_?TraceString@CTraceService@@SA_NPBDW4enTraceLevel@@@Z
  00169	83 c4 08	 add	 esp, 8

; 767  : 
; 768  : 		//变量定义
; 769  : 		DBO_GR_ModifyRemarks  ModifyRemarks;
; 770  : 		ModifyRemarks.bSuccessed=false;

  0016c	c6 45 84 00	 mov	 BYTE PTR _ModifyRemarks$3[ebp], 0

; 771  : 		ModifyRemarks.dwUserID=pModifyRemarks->dwUserID;

  00170	8b 45 e4	 mov	 eax, DWORD PTR _pModifyRemarks$[ebp]
  00173	8b 08		 mov	 ecx, DWORD PTR [eax]
  00175	89 4d 88	 mov	 DWORD PTR _ModifyRemarks$3[ebp+4], ecx

; 772  : 		ModifyRemarks.dwFriendID = pModifyRemarks->dwFriendID;

  00178	8b 45 e4	 mov	 eax, DWORD PTR _pModifyRemarks$[ebp]
  0017b	8b 48 04	 mov	 ecx, DWORD PTR [eax+4]
  0017e	89 4d 8c	 mov	 DWORD PTR _ModifyRemarks$3[ebp+8], ecx

; 773  : 		lstrcpyn(ModifyRemarks.szUserRemarks,pModifyRemarks->szUserRemarks,CountArray(ModifyRemarks.szUserRemarks));

  00181	6a 20		 push	 32			; 00000020H
  00183	8b 45 e4	 mov	 eax, DWORD PTR _pModifyRemarks$[ebp]
  00186	83 c0 08	 add	 eax, 8
  00189	50		 push	 eax
  0018a	8d 4d 90	 lea	 ecx, DWORD PTR _ModifyRemarks$3[ebp+12]
  0018d	51		 push	 ecx
  0018e	ff 15 00 00 00
	00		 call	 DWORD PTR __imp__lstrcpynA@12

; 774  : 
; 775  : 		//投递数据
; 776  : 		m_pIDataBaseEngineEvent->OnEventDataBaseResult(DBO_GR_MODIFY_REMARKS,dwContextID,&ModifyRemarks,sizeof(ModifyRemarks));

  00194	6a 2c		 push	 44			; 0000002cH
  00196	8d 45 84	 lea	 eax, DWORD PTR _ModifyRemarks$3[ebp]
  00199	50		 push	 eax
  0019a	8b 4d 08	 mov	 ecx, DWORD PTR _dwContextID$[ebp]
  0019d	51		 push	 ecx
  0019e	68 96 01 00 00	 push	 406			; 00000196H
  001a3	8b 55 e8	 mov	 edx, DWORD PTR _this$[ebp]
  001a6	8b 45 e8	 mov	 eax, DWORD PTR _this$[ebp]
  001a9	8b 88 a8 05 00
	00		 mov	 ecx, DWORD PTR [eax+1448]
  001af	8b 01		 mov	 eax, DWORD PTR [ecx]
  001b1	8b 8a a8 05 00
	00		 mov	 ecx, DWORD PTR [edx+1448]
  001b7	8b 50 08	 mov	 edx, DWORD PTR [eax+8]
  001ba	ff d2		 call	 edx

; 777  : 
; 778  : 		return false;

  001bc	c6 85 43 ff ff
	ff 00		 mov	 BYTE PTR $T2[ebp], 0
  001c3	b8 00 00 00 00	 mov	 eax, $LN10@OnRequestM
  001c8	c3		 ret	 0

; 779  : 	}

  001c9	b8 00 00 00 00	 mov	 eax, __tryend$?OnRequestModifyRemarks@CDataBaseEngineSink@@IAE_NKPAXG@Z$1
  001ce	c3		 ret	 0
__tryend$?OnRequestModifyRemarks@CDataBaseEngineSink@@IAE_NKPAXG@Z$1:
  001cf	c7 45 fc ff ff
	ff ff		 mov	 DWORD PTR __$EHRec$[ebp+12], -1
  001d6	eb 0f		 jmp	 SHORT $LN9@OnRequestM
$LN10@OnRequestM:
  001d8	c7 45 fc ff ff
	ff ff		 mov	 DWORD PTR __$EHRec$[ebp+12], -1

; 777  : 
; 778  : 		return false;

  001df	8a 85 43 ff ff
	ff		 mov	 al, BYTE PTR $T2[ebp]
  001e5	eb 02		 jmp	 SHORT $LN1@OnRequestM
$LN9@OnRequestM:

; 780  : 
; 781  : 	return true;

  001e7	b0 01		 mov	 al, 1
$LN1@OnRequestM:

; 782  : }

  001e9	8b 4d f4	 mov	 ecx, DWORD PTR __$EHRec$[ebp+4]
  001ec	64 89 0d 00 00
	00 00		 mov	 DWORD PTR fs:0, ecx
  001f3	59		 pop	 ecx
  001f4	5f		 pop	 edi
  001f5	5e		 pop	 esi
  001f6	5b		 pop	 ebx
  001f7	8b 4d ec	 mov	 ecx, DWORD PTR __$ArrayPad$[ebp]
  001fa	33 cd		 xor	 ecx, ebp
  001fc	e8 00 00 00 00	 call	 @__security_check_cookie@4
  00201	8b e5		 mov	 esp, ebp
  00203	5d		 pop	 ebp
  00204	c2 0c 00	 ret	 12			; 0000000cH
_TEXT	ENDS
;	COMDAT text$x
text$x	SEGMENT
__ehhandler$?OnRequestModifyRemarks@CDataBaseEngineSink@@IAE_NKPAXG@Z:
  00000	8b 54 24 08	 mov	 edx, DWORD PTR [esp+8]
  00004	8d 42 0c	 lea	 eax, DWORD PTR [edx+12]
  00007	8b 8a 38 ff ff
	ff		 mov	 ecx, DWORD PTR [edx-200]
  0000d	33 c8		 xor	 ecx, eax
  0000f	e8 00 00 00 00	 call	 @__security_check_cookie@4
  00014	8b 4a f8	 mov	 ecx, DWORD PTR [edx-8]
  00017	33 c8		 xor	 ecx, eax
  00019	e8 00 00 00 00	 call	 @__security_check_cookie@4
  0001e	b8 00 00 00 00	 mov	 eax, OFFSET __ehfuncinfo$?OnRequestModifyRemarks@CDataBaseEngineSink@@IAE_NKPAXG@Z
  00023	e9 00 00 00 00	 jmp	 ___CxxFrameHandler3
text$x	ENDS
?OnRequestModifyRemarks@CDataBaseEngineSink@@IAE_NKPAXG@Z ENDP ; CDataBaseEngineSink::OnRequestModifyRemarks
; Function compile flags: /Odtp /ZI
; File g:\网狐\happygamewh\服务端\系统模块\服务器组件\聊天服务器\databaseenginesink.cpp
;	COMDAT ?OnRequestModifyGroup@CDataBaseEngineSink@@IAE_NKPAXG@Z
_TEXT	SEGMENT
tv182 = -800						; size = 4
tv249 = -796						; size = 4
tv247 = -796						; size = 4
tv172 = -796						; size = 4
tv155 = -796						; size = 4
tv250 = -790						; size = 1
$T2 = -789						; size = 1
$T3 = -788						; size = 132
_ModifyGroup$4 = -528					; size = 172
_pIException$5 = -356					; size = 4
_wSize$6 = -352						; size = 2
_DBVarValue$7 = -348					; size = 16
_ModifyGroup$8 = -332					; size = 172
_lResultCode$9 = -160					; size = 4
_szDescribeString$10 = -156				; size = 128
_pModifyGroup$ = -28					; size = 4
_this$ = -24						; size = 4
__$ArrayPad$ = -20					; size = 4
__$EHRec$ = -16						; size = 16
_dwContextID$ = 8					; size = 4
_pData$ = 12						; size = 4
_wDataSize$ = 16					; size = 2
?OnRequestModifyGroup@CDataBaseEngineSink@@IAE_NKPAXG@Z PROC ; CDataBaseEngineSink::OnRequestModifyGroup, COMDAT
; _this$ = ecx

; 659  : {

  00000	55		 push	 ebp
  00001	8b ec		 mov	 ebp, esp
  00003	6a ff		 push	 -1
  00005	68 00 00 00 00	 push	 __ehhandler$?OnRequestModifyGroup@CDataBaseEngineSink@@IAE_NKPAXG@Z
  0000a	64 a1 00 00 00
	00		 mov	 eax, DWORD PTR fs:0
  00010	50		 push	 eax
  00011	51		 push	 ecx
  00012	81 ec 10 03 00
	00		 sub	 esp, 784		; 00000310H
  00018	a1 00 00 00 00	 mov	 eax, DWORD PTR ___security_cookie
  0001d	33 c5		 xor	 eax, ebp
  0001f	89 45 ec	 mov	 DWORD PTR __$ArrayPad$[ebp], eax
  00022	53		 push	 ebx
  00023	56		 push	 esi
  00024	57		 push	 edi
  00025	50		 push	 eax
  00026	8d 45 f4	 lea	 eax, DWORD PTR __$EHRec$[ebp+4]
  00029	64 a3 00 00 00
	00		 mov	 DWORD PTR fs:0, eax
  0002f	89 65 f0	 mov	 DWORD PTR __$EHRec$[ebp], esp
  00032	89 4d e8	 mov	 DWORD PTR _this$[ebp], ecx

; 660  : 	//提取变量
; 661  : 	DBR_GR_ModifyGroup * pModifyGroup=(DBR_GR_ModifyGroup * )pData;

  00035	8b 45 0c	 mov	 eax, DWORD PTR _pData$[ebp]
  00038	89 45 e4	 mov	 DWORD PTR _pModifyGroup$[ebp], eax

; 662  : 	ASSERT(pModifyGroup!=NULL);

  0003b	83 7d e4 00	 cmp	 DWORD PTR _pModifyGroup$[ebp], 0
  0003f	75 18		 jne	 SHORT $LN6@OnRequestM
  00041	a1 00 00 00 00	 mov	 eax, DWORD PTR ?__LINE__Var@?0??OnRequestModifyGroup@CDataBaseEngineSink@@IAE_NKPAXG@Z@4JA
  00046	83 c0 03	 add	 eax, 3
  00049	50		 push	 eax
  0004a	68 00 00 00 00	 push	 OFFSET ?THIS_FILE@@3PADA
  0004f	e8 00 00 00 00	 call	 ?AfxAssertFailedLine@@YGHPBDH@Z ; AfxAssertFailedLine
  00054	85 c0		 test	 eax, eax
  00056	74 01		 je	 SHORT $LN6@OnRequestM
  00058	cc		 int	 3
$LN6@OnRequestM:

; 663  : 
; 664  : 	try

  00059	c7 45 fc 00 00
	00 00		 mov	 DWORD PTR __$EHRec$[ebp+12], 0

; 665  : 	{
; 666  : 		//执行查询
; 667  : 		m_AccountsDBAide.ResetParameter();

  00060	8b 4d e8	 mov	 ecx, DWORD PTR _this$[ebp]
  00063	83 c1 04	 add	 ecx, 4
  00066	ff 15 00 00 00
	00		 call	 DWORD PTR __imp_?ResetParameter@CDataBaseAide@@QAEXXZ

; 668  : 		m_AccountsDBAide.AddParameter(TEXT("@dwUserID"),pModifyGroup->dwUserID);

  0006c	6a 01		 push	 1
  0006e	8b 45 e4	 mov	 eax, DWORD PTR _pModifyGroup$[ebp]
  00071	8b 08		 mov	 ecx, DWORD PTR [eax]
  00073	51		 push	 ecx
  00074	68 00 00 00 00	 push	 OFFSET ??_C@_09KCDEMNBD@?$EAdwUserID@
  00079	8b 4d e8	 mov	 ecx, DWORD PTR _this$[ebp]
  0007c	83 c1 04	 add	 ecx, 4
  0007f	ff 15 00 00 00
	00		 call	 DWORD PTR __imp_?AddParameter@CDataBaseAide@@QAEXPBDKW4ParameterDirectionEnum@ADOCG@@@Z

; 669  : 		m_AccountsDBAide.AddParameter(TEXT("@strPassword"),pModifyGroup->szPassword);

  00085	6a 01		 push	 1
  00087	8b 45 e4	 mov	 eax, DWORD PTR _pModifyGroup$[ebp]
  0008a	83 c0 04	 add	 eax, 4
  0008d	50		 push	 eax
  0008e	68 00 00 00 00	 push	 OFFSET ??_C@_0N@OCODJCJL@?$EAstrPassword@
  00093	8b 4d e8	 mov	 ecx, DWORD PTR _this$[ebp]
  00096	83 c1 04	 add	 ecx, 4
  00099	ff 15 00 00 00
	00		 call	 DWORD PTR __imp_?AddParameter@CDataBaseAide@@QAEXPBD0W4ParameterDirectionEnum@ADOCG@@@Z

; 670  : 		m_AccountsDBAide.AddParameter(TEXT("@cbGroupID"),pModifyGroup->cbGroupID);

  0009f	6a 01		 push	 1
  000a1	8b 45 e4	 mov	 eax, DWORD PTR _pModifyGroup$[ebp]
  000a4	0f b6 48 26	 movzx	 ecx, BYTE PTR [eax+38]
  000a8	51		 push	 ecx
  000a9	68 00 00 00 00	 push	 OFFSET ??_C@_0L@BKCLAFLJ@?$EAcbGroupID@
  000ae	8b 4d e8	 mov	 ecx, DWORD PTR _this$[ebp]
  000b1	83 c1 04	 add	 ecx, 4
  000b4	ff 15 00 00 00
	00		 call	 DWORD PTR __imp_?AddParameter@CDataBaseAide@@QAEXPBDEW4ParameterDirectionEnum@ADOCG@@@Z

; 671  : 		m_AccountsDBAide.AddParameter(TEXT("@cbOperateKind"),pModifyGroup->cbOperateKind);

  000ba	6a 01		 push	 1
  000bc	8b 45 e4	 mov	 eax, DWORD PTR _pModifyGroup$[ebp]
  000bf	0f b6 48 25	 movzx	 ecx, BYTE PTR [eax+37]
  000c3	51		 push	 ecx
  000c4	68 00 00 00 00	 push	 OFFSET ??_C@_0P@FPAAEPDL@?$EAcbOperateKind@
  000c9	8b 4d e8	 mov	 ecx, DWORD PTR _this$[ebp]
  000cc	83 c1 04	 add	 ecx, 4
  000cf	ff 15 00 00 00
	00		 call	 DWORD PTR __imp_?AddParameter@CDataBaseAide@@QAEXPBDEW4ParameterDirectionEnum@ADOCG@@@Z

; 672  : 		m_AccountsDBAide.AddParameter(TEXT("@strGroupName"),pModifyGroup->szGroupName);

  000d5	6a 01		 push	 1
  000d7	8b 45 e4	 mov	 eax, DWORD PTR _pModifyGroup$[ebp]
  000da	83 c0 27	 add	 eax, 39			; 00000027H
  000dd	50		 push	 eax
  000de	68 00 00 00 00	 push	 OFFSET ??_C@_0O@MLJHDGDF@?$EAstrGroupName@
  000e3	8b 4d e8	 mov	 ecx, DWORD PTR _this$[ebp]
  000e6	83 c1 04	 add	 ecx, 4
  000e9	ff 15 00 00 00
	00		 call	 DWORD PTR __imp_?AddParameter@CDataBaseAide@@QAEXPBD0W4ParameterDirectionEnum@ADOCG@@@Z

; 673  : 
; 674  : 		//变量定义
; 675  : 		TCHAR szDescribeString[128]=TEXT("");

  000ef	a0 00 00 00 00	 mov	 al, BYTE PTR ??_C@_00CNPNBAHC@@
  000f4	88 85 64 ff ff
	ff		 mov	 BYTE PTR _szDescribeString$10[ebp], al
  000fa	6a 7f		 push	 127			; 0000007fH
  000fc	6a 00		 push	 0
  000fe	8d 85 65 ff ff
	ff		 lea	 eax, DWORD PTR _szDescribeString$10[ebp+1]
  00104	50		 push	 eax
  00105	e8 00 00 00 00	 call	 _memset
  0010a	83 c4 0c	 add	 esp, 12			; 0000000cH

; 676  : 		m_AccountsDBAide.AddParameterOutput(TEXT("@strErrorDescribe"),szDescribeString,sizeof(szDescribeString),adParamOutput);

  0010d	6a 02		 push	 2
  0010f	68 80 00 00 00	 push	 128			; 00000080H
  00114	8d 85 64 ff ff
	ff		 lea	 eax, DWORD PTR _szDescribeString$10[ebp]
  0011a	50		 push	 eax
  0011b	68 00 00 00 00	 push	 OFFSET ??_C@_0BC@IIOJPJPJ@?$EAstrErrorDescribe@
  00120	8b 4d e8	 mov	 ecx, DWORD PTR _this$[ebp]
  00123	83 c1 04	 add	 ecx, 4
  00126	ff 15 00 00 00
	00		 call	 DWORD PTR __imp_?AddParameterOutput@CDataBaseAide@@QAEXPBDPADIW4ParameterDirectionEnum@ADOCG@@@Z

; 677  : 
; 678  : 		//执行查询
; 679  : 		LONG lResultCode=m_AccountsDBAide.ExecuteProcess(TEXT("GSP_GP_ModifyUserGroup"),true);

  0012c	6a 01		 push	 1
  0012e	68 00 00 00 00	 push	 OFFSET ??_C@_0BH@DILBBJMO@GSP_GP_ModifyUserGroup@
  00133	8b 4d e8	 mov	 ecx, DWORD PTR _this$[ebp]
  00136	83 c1 04	 add	 ecx, 4
  00139	ff 15 00 00 00
	00		 call	 DWORD PTR __imp_?ExecuteProcess@CDataBaseAide@@QAEJPBD_N@Z
  0013f	89 85 e4 fc ff
	ff		 mov	 DWORD PTR tv249[ebp], eax
  00145	8b 85 e4 fc ff
	ff		 mov	 eax, DWORD PTR tv249[ebp]
  0014b	89 85 60 ff ff
	ff		 mov	 DWORD PTR _lResultCode$9[ebp], eax

; 680  : 
; 681  : 		//变量定义
; 682  : 		DBO_GR_ModifyGroup	ModifyGroup;
; 683  : 		ModifyGroup.bSuccessed=lResultCode==DB_SUCCESS;

  00151	83 bd 60 ff ff
	ff 00		 cmp	 DWORD PTR _lResultCode$9[ebp], 0
  00158	75 0c		 jne	 SHORT $LN7@OnRequestM
  0015a	c7 85 e4 fc ff
	ff 01 00 00 00	 mov	 DWORD PTR tv155[ebp], 1
  00164	eb 0a		 jmp	 SHORT $LN8@OnRequestM
$LN7@OnRequestM:
  00166	c7 85 e4 fc ff
	ff 00 00 00 00	 mov	 DWORD PTR tv155[ebp], 0
$LN8@OnRequestM:
  00170	8a 85 e4 fc ff
	ff		 mov	 al, BYTE PTR tv155[ebp]
  00176	88 85 b8 fe ff
	ff		 mov	 BYTE PTR _ModifyGroup$8[ebp+4], al

; 684  : 		ModifyGroup.dwUserID=pModifyGroup->dwUserID;

  0017c	8b 45 e4	 mov	 eax, DWORD PTR _pModifyGroup$[ebp]
  0017f	8b 08		 mov	 ecx, DWORD PTR [eax]
  00181	89 8d b4 fe ff
	ff		 mov	 DWORD PTR _ModifyGroup$8[ebp], ecx

; 685  : 		ModifyGroup.cbOperateKind = pModifyGroup->cbOperateKind;

  00187	8b 45 e4	 mov	 eax, DWORD PTR _pModifyGroup$[ebp]
  0018a	8a 48 25	 mov	 cl, BYTE PTR [eax+37]
  0018d	88 8d b9 fe ff
	ff		 mov	 BYTE PTR _ModifyGroup$8[ebp+5], cl

; 686  : 		ModifyGroup.lErrorCode=lResultCode;

  00193	8b 85 60 ff ff
	ff		 mov	 eax, DWORD PTR _lResultCode$9[ebp]
  00199	89 85 dc fe ff
	ff		 mov	 DWORD PTR _ModifyGroup$8[ebp+40], eax

; 687  : 		lstrcpyn(ModifyGroup.szGroupName,pModifyGroup->szGroupName,CountArray(ModifyGroup.szGroupName));

  0019f	6a 20		 push	 32			; 00000020H
  001a1	8b 45 e4	 mov	 eax, DWORD PTR _pModifyGroup$[ebp]
  001a4	83 c0 27	 add	 eax, 39			; 00000027H
  001a7	50		 push	 eax
  001a8	8d 8d bb fe ff
	ff		 lea	 ecx, DWORD PTR _ModifyGroup$8[ebp+7]
  001ae	51		 push	 ecx
  001af	ff 15 00 00 00
	00		 call	 DWORD PTR __imp__lstrcpynA@12

; 688  : 
; 689  : 		//结果判断
; 690  : 		if(lResultCode==DB_SUCCESS)

  001b5	83 bd 60 ff ff
	ff 00		 cmp	 DWORD PTR _lResultCode$9[ebp], 0
  001bc	75 38		 jne	 SHORT $LN3@OnRequestM

; 691  : 		{			
; 692  : 			ModifyGroup.cbGroupID =m_AccountsDBAide.GetValue_BYTE(TEXT("GroupID"));			

  001be	68 00 00 00 00	 push	 OFFSET ??_C@_07IKIDGEIC@GroupID@
  001c3	8b 4d e8	 mov	 ecx, DWORD PTR _this$[ebp]
  001c6	83 c1 04	 add	 ecx, 4
  001c9	ff 15 00 00 00
	00		 call	 DWORD PTR __imp_?GetValue_BYTE@CDataBaseAide@@QAEEPBD@Z
  001cf	88 85 ea fc ff
	ff		 mov	 BYTE PTR tv250[ebp], al
  001d5	8a 85 ea fc ff
	ff		 mov	 al, BYTE PTR tv250[ebp]
  001db	88 85 ba fe ff
	ff		 mov	 BYTE PTR _ModifyGroup$8[ebp+6], al

; 693  : 			ModifyGroup.szDescribeString[0]=0;

  001e1	b8 01 00 00 00	 mov	 eax, 1
  001e6	6b c8 00	 imul	 ecx, eax, 0
  001e9	c6 84 0d e0 fe
	ff ff 00	 mov	 BYTE PTR _ModifyGroup$8[ebp+ecx+44], 0

; 694  : 		}
; 695  : 		else

  001f1	e9 a7 00 00 00	 jmp	 $LN4@OnRequestM
$LN3@OnRequestM:

; 696  : 		{			
; 697  : 			ModifyGroup.cbGroupID =pModifyGroup->cbGroupID;

  001f6	8b 45 e4	 mov	 eax, DWORD PTR _pModifyGroup$[ebp]
  001f9	8a 48 26	 mov	 cl, BYTE PTR [eax+38]
  001fc	88 8d ba fe ff
	ff		 mov	 BYTE PTR _ModifyGroup$8[ebp+6], cl

; 698  : 
; 699  : 			//变量定义
; 700  : 			CDBVarValue DBVarValue;

  00202	8d 8d a4 fe ff
	ff		 lea	 ecx, DWORD PTR _DBVarValue$7[ebp]
  00208	e8 00 00 00 00	 call	 ??0_variant_t@@QAE@XZ	; _variant_t::_variant_t
  0020d	c6 45 fc 01	 mov	 BYTE PTR __$EHRec$[ebp+12], 1

; 701  : 			m_AccountsDBModule->GetParameter(TEXT("@strErrorDescribe"),DBVarValue);

  00211	8b 4d e8	 mov	 ecx, DWORD PTR _this$[ebp]
  00214	83 c1 0c	 add	 ecx, 12			; 0000000cH
  00217	e8 00 00 00 00	 call	 ??C?$CTempldateHelper@UIDataBase@@@@QBEPAUIDataBase@@XZ ; CTempldateHelper<IDataBase>::operator->
  0021c	89 85 e4 fc ff
	ff		 mov	 DWORD PTR tv172[ebp], eax
  00222	8b 85 e4 fc ff
	ff		 mov	 eax, DWORD PTR tv172[ebp]
  00228	89 85 e0 fc ff
	ff		 mov	 DWORD PTR tv182[ebp], eax
  0022e	8d 8d a4 fe ff
	ff		 lea	 ecx, DWORD PTR _DBVarValue$7[ebp]
  00234	51		 push	 ecx
  00235	68 00 00 00 00	 push	 OFFSET ??_C@_0BC@IIOJPJPJ@?$EAstrErrorDescribe@
  0023a	8b 95 e0 fc ff
	ff		 mov	 edx, DWORD PTR tv182[ebp]
  00240	8b 02		 mov	 eax, DWORD PTR [edx]
  00242	8b 8d e0 fc ff
	ff		 mov	 ecx, DWORD PTR tv182[ebp]
  00248	8b 50 1c	 mov	 edx, DWORD PTR [eax+28]
  0024b	ff d2		 call	 edx

; 702  : 			lstrcpyn(ModifyGroup.szDescribeString,CW2CT(DBVarValue.bstrVal),CountArray(ModifyGroup.szDescribeString));

  0024d	8b 85 ac fe ff
	ff		 mov	 eax, DWORD PTR _DBVarValue$7[ebp+8]
  00253	50		 push	 eax
  00254	8d 8d ec fc ff
	ff		 lea	 ecx, DWORD PTR $T3[ebp]
  0025a	e8 00 00 00 00	 call	 ??0?$CW2AEX@$0IA@@ATL@@QAE@PB_W@Z ; ATL::CW2AEX<128>::CW2AEX<128>
  0025f	89 85 e4 fc ff
	ff		 mov	 DWORD PTR tv247[ebp], eax
  00265	68 80 00 00 00	 push	 128			; 00000080H
  0026a	8b 8d e4 fc ff
	ff		 mov	 ecx, DWORD PTR tv247[ebp]
  00270	e8 00 00 00 00	 call	 ??B?$CW2AEX@$0IA@@ATL@@QBEPADXZ ; ATL::CW2AEX<128>::operator char *
  00275	50		 push	 eax
  00276	8d 8d e0 fe ff
	ff		 lea	 ecx, DWORD PTR _ModifyGroup$8[ebp+44]
  0027c	51		 push	 ecx
  0027d	ff 15 00 00 00
	00		 call	 DWORD PTR __imp__lstrcpynA@12
  00283	8d 8d ec fc ff
	ff		 lea	 ecx, DWORD PTR $T3[ebp]
  00289	e8 00 00 00 00	 call	 ??1?$CW2AEX@$0IA@@ATL@@QAE@XZ ; ATL::CW2AEX<128>::~CW2AEX<128>

; 703  : 		}

  0028e	c6 45 fc 00	 mov	 BYTE PTR __$EHRec$[ebp+12], 0
  00292	8d 8d a4 fe ff
	ff		 lea	 ecx, DWORD PTR _DBVarValue$7[ebp]
  00298	e8 00 00 00 00	 call	 ??1_variant_t@@QAE@XZ	; _variant_t::~_variant_t
$LN4@OnRequestM:

; 704  : 
; 705  : 		//投递数据
; 706  : 		WORD wSize = sizeof(ModifyGroup)-sizeof(ModifyGroup.szDescribeString)+CountStringBuffer(ModifyGroup.szDescribeString);

  0029d	8d 85 e0 fe ff
	ff		 lea	 eax, DWORD PTR _ModifyGroup$8[ebp+44]
  002a3	50		 push	 eax
  002a4	ff 15 00 00 00
	00		 call	 DWORD PTR __imp__lstrlenA@4
  002aa	83 c0 2d	 add	 eax, 45			; 0000002dH
  002ad	66 89 85 a0 fe
	ff ff		 mov	 WORD PTR _wSize$6[ebp], ax

; 707  : 		m_pIDataBaseEngineEvent->OnEventDataBaseResult(DBO_GR_MODIFY_GROUP,dwContextID,&ModifyGroup,wSize);

  002b4	0f b7 85 a0 fe
	ff ff		 movzx	 eax, WORD PTR _wSize$6[ebp]
  002bb	50		 push	 eax
  002bc	8d 8d b4 fe ff
	ff		 lea	 ecx, DWORD PTR _ModifyGroup$8[ebp]
  002c2	51		 push	 ecx
  002c3	8b 55 08	 mov	 edx, DWORD PTR _dwContextID$[ebp]
  002c6	52		 push	 edx
  002c7	68 94 01 00 00	 push	 404			; 00000194H
  002cc	8b 45 e8	 mov	 eax, DWORD PTR _this$[ebp]
  002cf	8b 4d e8	 mov	 ecx, DWORD PTR _this$[ebp]
  002d2	8b 91 a8 05 00
	00		 mov	 edx, DWORD PTR [ecx+1448]
  002d8	8b 12		 mov	 edx, DWORD PTR [edx]
  002da	8b 88 a8 05 00
	00		 mov	 ecx, DWORD PTR [eax+1448]
  002e0	8b 42 08	 mov	 eax, DWORD PTR [edx+8]
  002e3	ff d0		 call	 eax

; 708  : 
; 709  : 		return true;

  002e5	b0 01		 mov	 al, 1
  002e7	e9 c5 00 00 00	 jmp	 $LN1@OnRequestM
__catch$?OnRequestModifyGroup@CDataBaseEngineSink@@IAE_NKPAXG@Z$0:

; 710  : 	}
; 711  : 	catch (IDataBaseException * pIException)
; 712  : 	{
; 713  : 		//输出错误
; 714  : 		CTraceService::TraceString(pIException->GetExceptionDescribe(),TraceLevel_Exception);

  002ec	6a 03		 push	 3
  002ee	8b 85 9c fe ff
	ff		 mov	 eax, DWORD PTR _pIException$5[ebp]
  002f4	8b 10		 mov	 edx, DWORD PTR [eax]
  002f6	8b 8d 9c fe ff
	ff		 mov	 ecx, DWORD PTR _pIException$5[ebp]
  002fc	8b 42 0c	 mov	 eax, DWORD PTR [edx+12]
  002ff	ff d0		 call	 eax
  00301	50		 push	 eax
  00302	ff 15 00 00 00
	00		 call	 DWORD PTR __imp_?TraceString@CTraceService@@SA_NPBDW4enTraceLevel@@@Z
  00308	83 c4 08	 add	 esp, 8

; 715  : 
; 716  : 		//变量定义
; 717  : 		DBO_GR_ModifyGroup	ModifyGroup;
; 718  : 		ModifyGroup.bSuccessed=false;

  0030b	c6 85 f4 fd ff
	ff 00		 mov	 BYTE PTR _ModifyGroup$4[ebp+4], 0

; 719  : 		ModifyGroup.dwUserID=pModifyGroup->dwUserID;

  00312	8b 45 e4	 mov	 eax, DWORD PTR _pModifyGroup$[ebp]
  00315	8b 08		 mov	 ecx, DWORD PTR [eax]
  00317	89 8d f0 fd ff
	ff		 mov	 DWORD PTR _ModifyGroup$4[ebp], ecx

; 720  : 		ModifyGroup.cbOperateKind = pModifyGroup->cbOperateKind;

  0031d	8b 45 e4	 mov	 eax, DWORD PTR _pModifyGroup$[ebp]
  00320	8a 48 25	 mov	 cl, BYTE PTR [eax+37]
  00323	88 8d f5 fd ff
	ff		 mov	 BYTE PTR _ModifyGroup$4[ebp+5], cl

; 721  : 		ModifyGroup.cbGroupID =m_AccountsDBAide.GetValue_BYTE(TEXT("GroupID"));

  00329	68 00 00 00 00	 push	 OFFSET ??_C@_07IKIDGEIC@GroupID@
  0032e	8b 4d e8	 mov	 ecx, DWORD PTR _this$[ebp]
  00331	83 c1 04	 add	 ecx, 4
  00334	ff 15 00 00 00
	00		 call	 DWORD PTR __imp_?GetValue_BYTE@CDataBaseAide@@QAEEPBD@Z
  0033a	88 85 f6 fd ff
	ff		 mov	 BYTE PTR _ModifyGroup$4[ebp+6], al

; 722  : 		lstrcpyn(ModifyGroup.szGroupName,pModifyGroup->szGroupName,CountArray(ModifyGroup.szGroupName));

  00340	6a 20		 push	 32			; 00000020H
  00342	8b 45 e4	 mov	 eax, DWORD PTR _pModifyGroup$[ebp]
  00345	83 c0 27	 add	 eax, 39			; 00000027H
  00348	50		 push	 eax
  00349	8d 8d f7 fd ff
	ff		 lea	 ecx, DWORD PTR _ModifyGroup$4[ebp+7]
  0034f	51		 push	 ecx
  00350	ff 15 00 00 00
	00		 call	 DWORD PTR __imp__lstrcpynA@12

; 723  : 
; 724  : 		//投递数据
; 725  : 		m_pIDataBaseEngineEvent->OnEventDataBaseResult(DBO_GR_MODIFY_GROUP,dwContextID,&ModifyGroup,sizeof(ModifyGroup));

  00356	68 ac 00 00 00	 push	 172			; 000000acH
  0035b	8d 85 f0 fd ff
	ff		 lea	 eax, DWORD PTR _ModifyGroup$4[ebp]
  00361	50		 push	 eax
  00362	8b 4d 08	 mov	 ecx, DWORD PTR _dwContextID$[ebp]
  00365	51		 push	 ecx
  00366	68 94 01 00 00	 push	 404			; 00000194H
  0036b	8b 55 e8	 mov	 edx, DWORD PTR _this$[ebp]
  0036e	8b 45 e8	 mov	 eax, DWORD PTR _this$[ebp]
  00371	8b 88 a8 05 00
	00		 mov	 ecx, DWORD PTR [eax+1448]
  00377	8b 01		 mov	 eax, DWORD PTR [ecx]
  00379	8b 8a a8 05 00
	00		 mov	 ecx, DWORD PTR [edx+1448]
  0037f	8b 50 08	 mov	 edx, DWORD PTR [eax+8]
  00382	ff d2		 call	 edx

; 726  : 
; 727  : 		return false;

  00384	c6 85 eb fc ff
	ff 00		 mov	 BYTE PTR $T2[ebp], 0
  0038b	b8 00 00 00 00	 mov	 eax, $LN14@OnRequestM
  00390	c3		 ret	 0

; 728  : 	}

  00391	b8 00 00 00 00	 mov	 eax, __tryend$?OnRequestModifyGroup@CDataBaseEngineSink@@IAE_NKPAXG@Z$1
  00396	c3		 ret	 0
__tryend$?OnRequestModifyGroup@CDataBaseEngineSink@@IAE_NKPAXG@Z$1:
  00397	c7 45 fc ff ff
	ff ff		 mov	 DWORD PTR __$EHRec$[ebp+12], -1
  0039e	eb 0f		 jmp	 SHORT $LN13@OnRequestM
$LN14@OnRequestM:
  003a0	c7 45 fc ff ff
	ff ff		 mov	 DWORD PTR __$EHRec$[ebp+12], -1

; 726  : 
; 727  : 		return false;

  003a7	8a 85 eb fc ff
	ff		 mov	 al, BYTE PTR $T2[ebp]
  003ad	eb 02		 jmp	 SHORT $LN1@OnRequestM
$LN13@OnRequestM:

; 729  : 
; 730  : 	return true;

  003af	b0 01		 mov	 al, 1
$LN1@OnRequestM:

; 731  : }

  003b1	8b 4d f4	 mov	 ecx, DWORD PTR __$EHRec$[ebp+4]
  003b4	64 89 0d 00 00
	00 00		 mov	 DWORD PTR fs:0, ecx
  003bb	59		 pop	 ecx
  003bc	5f		 pop	 edi
  003bd	5e		 pop	 esi
  003be	5b		 pop	 ebx
  003bf	8b 4d ec	 mov	 ecx, DWORD PTR __$ArrayPad$[ebp]
  003c2	33 cd		 xor	 ecx, ebp
  003c4	e8 00 00 00 00	 call	 @__security_check_cookie@4
  003c9	8b e5		 mov	 esp, ebp
  003cb	5d		 pop	 ebp
  003cc	c2 0c 00	 ret	 12			; 0000000cH
_TEXT	ENDS
;	COMDAT text$x
text$x	SEGMENT
__unwindfunclet$?OnRequestModifyGroup@CDataBaseEngineSink@@IAE_NKPAXG@Z$2:
  00000	8d 8d a4 fe ff
	ff		 lea	 ecx, DWORD PTR _DBVarValue$7[ebp]
  00006	e9 00 00 00 00	 jmp	 ??1_variant_t@@QAE@XZ	; _variant_t::~_variant_t
__ehhandler$?OnRequestModifyGroup@CDataBaseEngineSink@@IAE_NKPAXG@Z:
  0000b	8b 54 24 08	 mov	 edx, DWORD PTR [esp+8]
  0000f	8d 42 0c	 lea	 eax, DWORD PTR [edx+12]
  00012	8b 8a dc fc ff
	ff		 mov	 ecx, DWORD PTR [edx-804]
  00018	33 c8		 xor	 ecx, eax
  0001a	e8 00 00 00 00	 call	 @__security_check_cookie@4
  0001f	8b 4a f8	 mov	 ecx, DWORD PTR [edx-8]
  00022	33 c8		 xor	 ecx, eax
  00024	e8 00 00 00 00	 call	 @__security_check_cookie@4
  00029	b8 00 00 00 00	 mov	 eax, OFFSET __ehfuncinfo$?OnRequestModifyGroup@CDataBaseEngineSink@@IAE_NKPAXG@Z
  0002e	e9 00 00 00 00	 jmp	 ___CxxFrameHandler3
text$x	ENDS
?OnRequestModifyGroup@CDataBaseEngineSink@@IAE_NKPAXG@Z ENDP ; CDataBaseEngineSink::OnRequestModifyGroup
; Function compile flags: /Odtp /ZI
; File g:\网狐\happygamewh\服务端\系统模块\服务器组件\聊天服务器\databaseenginesink.cpp
;	COMDAT ?OnRequestDeleteFriend@CDataBaseEngineSink@@IAE_NKPAXG@Z
_TEXT	SEGMENT
tv168 = -252						; size = 4
tv167 = -252						; size = 4
$T2 = -245						; size = 1
_pIException$3 = -180					; size = 4
_DeleteFriend$4 = -176					; size = 16
_lResultCode$5 = -160					; size = 4
_szDescribeString$6 = -156				; size = 128
_pDeleteFriend$7 = -28					; size = 4
_this$ = -24						; size = 4
__$ArrayPad$ = -20					; size = 4
__$EHRec$ = -16						; size = 16
_dwContextID$ = 8					; size = 4
_pData$ = 12						; size = 4
_wDataSize$ = 16					; size = 2
?OnRequestDeleteFriend@CDataBaseEngineSink@@IAE_NKPAXG@Z PROC ; CDataBaseEngineSink::OnRequestDeleteFriend, COMDAT
; _this$ = ecx

; 609  : {

  00000	55		 push	 ebp
  00001	8b ec		 mov	 ebp, esp
  00003	6a ff		 push	 -1
  00005	68 00 00 00 00	 push	 __ehhandler$?OnRequestDeleteFriend@CDataBaseEngineSink@@IAE_NKPAXG@Z
  0000a	64 a1 00 00 00
	00		 mov	 eax, DWORD PTR fs:0
  00010	50		 push	 eax
  00011	51		 push	 ecx
  00012	81 ec ec 00 00
	00		 sub	 esp, 236		; 000000ecH
  00018	a1 00 00 00 00	 mov	 eax, DWORD PTR ___security_cookie
  0001d	33 c5		 xor	 eax, ebp
  0001f	89 45 ec	 mov	 DWORD PTR __$ArrayPad$[ebp], eax
  00022	53		 push	 ebx
  00023	56		 push	 esi
  00024	57		 push	 edi
  00025	50		 push	 eax
  00026	8d 45 f4	 lea	 eax, DWORD PTR __$EHRec$[ebp+4]
  00029	64 a3 00 00 00
	00		 mov	 DWORD PTR fs:0, eax
  0002f	89 65 f0	 mov	 DWORD PTR __$EHRec$[ebp], esp
  00032	89 4d e8	 mov	 DWORD PTR _this$[ebp], ecx

; 610  : 	try

  00035	c7 45 fc 00 00
	00 00		 mov	 DWORD PTR __$EHRec$[ebp+12], 0

; 611  : 	{
; 612  : 		//提取变量
; 613  : 		DBR_GR_DeleteFriend * pDeleteFriend=(DBR_GR_DeleteFriend * )pData;

  0003c	8b 45 0c	 mov	 eax, DWORD PTR _pData$[ebp]
  0003f	89 45 e4	 mov	 DWORD PTR _pDeleteFriend$7[ebp], eax

; 614  : 		ASSERT(pDeleteFriend!=NULL);

  00042	83 7d e4 00	 cmp	 DWORD PTR _pDeleteFriend$7[ebp], 0
  00046	75 23		 jne	 SHORT $LN5@OnRequestD
  00048	a1 00 00 00 00	 mov	 eax, DWORD PTR ?__LINE__Var@?0??OnRequestDeleteFriend@CDataBaseEngineSink@@IAE_NKPAXG@Z@4JA
  0004d	83 c0 05	 add	 eax, 5
  00050	50		 push	 eax
  00051	68 00 00 00 00	 push	 OFFSET ?THIS_FILE@@3PADA
  00056	e8 00 00 00 00	 call	 ?AfxAssertFailedLine@@YGHPBDH@Z ; AfxAssertFailedLine
  0005b	89 85 04 ff ff
	ff		 mov	 DWORD PTR tv167[ebp], eax
  00061	83 bd 04 ff ff
	ff 00		 cmp	 DWORD PTR tv167[ebp], 0
  00068	74 01		 je	 SHORT $LN5@OnRequestD
  0006a	cc		 int	 3
$LN5@OnRequestD:

; 615  : 
; 616  : 		//执行查询
; 617  : 		m_AccountsDBAide.ResetParameter();

  0006b	8b 4d e8	 mov	 ecx, DWORD PTR _this$[ebp]
  0006e	83 c1 04	 add	 ecx, 4
  00071	ff 15 00 00 00
	00		 call	 DWORD PTR __imp_?ResetParameter@CDataBaseAide@@QAEXXZ

; 618  : 		m_AccountsDBAide.AddParameter(TEXT("@dwUserID"),pDeleteFriend->dwUserID);

  00077	6a 01		 push	 1
  00079	8b 45 e4	 mov	 eax, DWORD PTR _pDeleteFriend$7[ebp]
  0007c	8b 08		 mov	 ecx, DWORD PTR [eax]
  0007e	51		 push	 ecx
  0007f	68 00 00 00 00	 push	 OFFSET ??_C@_09KCDEMNBD@?$EAdwUserID@
  00084	8b 4d e8	 mov	 ecx, DWORD PTR _this$[ebp]
  00087	83 c1 04	 add	 ecx, 4
  0008a	ff 15 00 00 00
	00		 call	 DWORD PTR __imp_?AddParameter@CDataBaseAide@@QAEXPBDKW4ParameterDirectionEnum@ADOCG@@@Z

; 619  : 		m_AccountsDBAide.AddParameter(TEXT("@dwFriendUserID"),pDeleteFriend->dwFriendUserID);

  00090	6a 01		 push	 1
  00092	8b 45 e4	 mov	 eax, DWORD PTR _pDeleteFriend$7[ebp]
  00095	8b 48 04	 mov	 ecx, DWORD PTR [eax+4]
  00098	51		 push	 ecx
  00099	68 00 00 00 00	 push	 OFFSET ??_C@_0BA@PEHFKMKN@?$EAdwFriendUserID@
  0009e	8b 4d e8	 mov	 ecx, DWORD PTR _this$[ebp]
  000a1	83 c1 04	 add	 ecx, 4
  000a4	ff 15 00 00 00
	00		 call	 DWORD PTR __imp_?AddParameter@CDataBaseAide@@QAEXPBDKW4ParameterDirectionEnum@ADOCG@@@Z

; 620  : 		m_AccountsDBAide.AddParameter(TEXT("@cbGroupID"),pDeleteFriend->cbGroupID);

  000aa	6a 01		 push	 1
  000ac	8b 45 e4	 mov	 eax, DWORD PTR _pDeleteFriend$7[ebp]
  000af	0f b6 48 08	 movzx	 ecx, BYTE PTR [eax+8]
  000b3	51		 push	 ecx
  000b4	68 00 00 00 00	 push	 OFFSET ??_C@_0L@BKCLAFLJ@?$EAcbGroupID@
  000b9	8b 4d e8	 mov	 ecx, DWORD PTR _this$[ebp]
  000bc	83 c1 04	 add	 ecx, 4
  000bf	ff 15 00 00 00
	00		 call	 DWORD PTR __imp_?AddParameter@CDataBaseAide@@QAEXPBDEW4ParameterDirectionEnum@ADOCG@@@Z

; 621  : 
; 622  : 		//变量定义
; 623  : 		TCHAR szDescribeString[128]=TEXT("");

  000c5	a0 00 00 00 00	 mov	 al, BYTE PTR ??_C@_00CNPNBAHC@@
  000ca	88 85 64 ff ff
	ff		 mov	 BYTE PTR _szDescribeString$6[ebp], al
  000d0	6a 7f		 push	 127			; 0000007fH
  000d2	6a 00		 push	 0
  000d4	8d 85 65 ff ff
	ff		 lea	 eax, DWORD PTR _szDescribeString$6[ebp+1]
  000da	50		 push	 eax
  000db	e8 00 00 00 00	 call	 _memset
  000e0	83 c4 0c	 add	 esp, 12			; 0000000cH

; 624  : 		m_AccountsDBAide.AddParameterOutput(TEXT("@strErrorDescribe"),szDescribeString,sizeof(szDescribeString),adParamOutput);

  000e3	6a 02		 push	 2
  000e5	68 80 00 00 00	 push	 128			; 00000080H
  000ea	8d 85 64 ff ff
	ff		 lea	 eax, DWORD PTR _szDescribeString$6[ebp]
  000f0	50		 push	 eax
  000f1	68 00 00 00 00	 push	 OFFSET ??_C@_0BC@IIOJPJPJ@?$EAstrErrorDescribe@
  000f6	8b 4d e8	 mov	 ecx, DWORD PTR _this$[ebp]
  000f9	83 c1 04	 add	 ecx, 4
  000fc	ff 15 00 00 00
	00		 call	 DWORD PTR __imp_?AddParameterOutput@CDataBaseAide@@QAEXPBDPADIW4ParameterDirectionEnum@ADOCG@@@Z

; 625  : 
; 626  : 		//执行查询
; 627  : 		LONG lResultCode=m_AccountsDBAide.ExecuteProcess(TEXT("GSP_GP_DeleteUserFriend"),true);

  00102	6a 01		 push	 1
  00104	68 00 00 00 00	 push	 OFFSET ??_C@_0BI@LPNDAHEL@GSP_GP_DeleteUserFriend@
  00109	8b 4d e8	 mov	 ecx, DWORD PTR _this$[ebp]
  0010c	83 c1 04	 add	 ecx, 4
  0010f	ff 15 00 00 00
	00		 call	 DWORD PTR __imp_?ExecuteProcess@CDataBaseAide@@QAEJPBD_N@Z
  00115	89 85 04 ff ff
	ff		 mov	 DWORD PTR tv168[ebp], eax
  0011b	8b 85 04 ff ff
	ff		 mov	 eax, DWORD PTR tv168[ebp]
  00121	89 85 60 ff ff
	ff		 mov	 DWORD PTR _lResultCode$5[ebp], eax

; 628  : 
; 629  : 		//变量定义
; 630  : 		DBO_GR_DeleteFriend DeleteFriend;
; 631  : 		ZeroMemory(&DeleteFriend,sizeof(DeleteFriend));

  00127	6a 10		 push	 16			; 00000010H
  00129	6a 00		 push	 0
  0012b	8d 85 50 ff ff
	ff		 lea	 eax, DWORD PTR _DeleteFriend$4[ebp]
  00131	50		 push	 eax
  00132	e8 00 00 00 00	 call	 _memset
  00137	83 c4 0c	 add	 esp, 12			; 0000000cH

; 632  : 
; 633  : 		if(lResultCode==DB_SUCCESS)

  0013a	83 bd 60 ff ff
	ff 00		 cmp	 DWORD PTR _lResultCode$5[ebp], 0
  00141	75 2a		 jne	 SHORT $LN3@OnRequestD

; 634  : 		{
; 635  : 			DeleteFriend.dwUserID=pDeleteFriend->dwUserID;

  00143	8b 45 e4	 mov	 eax, DWORD PTR _pDeleteFriend$7[ebp]
  00146	8b 08		 mov	 ecx, DWORD PTR [eax]
  00148	89 8d 54 ff ff
	ff		 mov	 DWORD PTR _DeleteFriend$4[ebp+4], ecx

; 636  : 			DeleteFriend.dwFriendUserID=pDeleteFriend->dwFriendUserID;

  0014e	8b 45 e4	 mov	 eax, DWORD PTR _pDeleteFriend$7[ebp]
  00151	8b 48 04	 mov	 ecx, DWORD PTR [eax+4]
  00154	89 8d 58 ff ff
	ff		 mov	 DWORD PTR _DeleteFriend$4[ebp+8], ecx

; 637  : 			DeleteFriend.bSuccessed=true;

  0015a	c6 85 50 ff ff
	ff 01		 mov	 BYTE PTR _DeleteFriend$4[ebp], 1

; 638  : 			DeleteFriend.cbGroupID=pDeleteFriend->cbGroupID;

  00161	8b 45 e4	 mov	 eax, DWORD PTR _pDeleteFriend$7[ebp]
  00164	8a 48 08	 mov	 cl, BYTE PTR [eax+8]
  00167	88 8d 5c ff ff
	ff		 mov	 BYTE PTR _DeleteFriend$4[ebp+12], cl
$LN3@OnRequestD:

; 639  : 		}
; 640  : 
; 641  : 		//投递数据
; 642  : 		m_pIDataBaseEngineEvent->OnEventDataBaseResult(DBO_GR_DELETE_FRIEND,dwContextID,&DeleteFriend,sizeof(DeleteFriend));

  0016d	6a 10		 push	 16			; 00000010H
  0016f	8d 85 50 ff ff
	ff		 lea	 eax, DWORD PTR _DeleteFriend$4[ebp]
  00175	50		 push	 eax
  00176	8b 4d 08	 mov	 ecx, DWORD PTR _dwContextID$[ebp]
  00179	51		 push	 ecx
  0017a	68 9c 01 00 00	 push	 412			; 0000019cH
  0017f	8b 55 e8	 mov	 edx, DWORD PTR _this$[ebp]
  00182	8b 45 e8	 mov	 eax, DWORD PTR _this$[ebp]
  00185	8b 88 a8 05 00
	00		 mov	 ecx, DWORD PTR [eax+1448]
  0018b	8b 01		 mov	 eax, DWORD PTR [ecx]
  0018d	8b 8a a8 05 00
	00		 mov	 ecx, DWORD PTR [edx+1448]
  00193	8b 50 08	 mov	 edx, DWORD PTR [eax+8]
  00196	ff d2		 call	 edx

; 643  : 
; 644  : 		return true;

  00198	b0 01		 mov	 al, 1
  0019a	eb 4c		 jmp	 SHORT $LN1@OnRequestD
__catch$?OnRequestDeleteFriend@CDataBaseEngineSink@@IAE_NKPAXG@Z$0:

; 645  : 	}
; 646  : 	catch (IDataBaseException * pIException)
; 647  : 	{
; 648  : 		//输出错误
; 649  : 		CTraceService::TraceString(pIException->GetExceptionDescribe(),TraceLevel_Exception);

  0019c	6a 03		 push	 3
  0019e	8b 85 4c ff ff
	ff		 mov	 eax, DWORD PTR _pIException$3[ebp]
  001a4	8b 10		 mov	 edx, DWORD PTR [eax]
  001a6	8b 8d 4c ff ff
	ff		 mov	 ecx, DWORD PTR _pIException$3[ebp]
  001ac	8b 42 0c	 mov	 eax, DWORD PTR [edx+12]
  001af	ff d0		 call	 eax
  001b1	50		 push	 eax
  001b2	ff 15 00 00 00
	00		 call	 DWORD PTR __imp_?TraceString@CTraceService@@SA_NPBDW4enTraceLevel@@@Z
  001b8	83 c4 08	 add	 esp, 8

; 650  : 
; 651  : 		return false;

  001bb	c6 85 0b ff ff
	ff 00		 mov	 BYTE PTR $T2[ebp], 0
  001c2	b8 00 00 00 00	 mov	 eax, $LN9@OnRequestD
  001c7	c3		 ret	 0

; 652  : 	}

  001c8	b8 00 00 00 00	 mov	 eax, __tryend$?OnRequestDeleteFriend@CDataBaseEngineSink@@IAE_NKPAXG@Z$1
  001cd	c3		 ret	 0
__tryend$?OnRequestDeleteFriend@CDataBaseEngineSink@@IAE_NKPAXG@Z$1:
  001ce	c7 45 fc ff ff
	ff ff		 mov	 DWORD PTR __$EHRec$[ebp+12], -1
  001d5	eb 0f		 jmp	 SHORT $LN8@OnRequestD
$LN9@OnRequestD:
  001d7	c7 45 fc ff ff
	ff ff		 mov	 DWORD PTR __$EHRec$[ebp+12], -1

; 650  : 
; 651  : 		return false;

  001de	8a 85 0b ff ff
	ff		 mov	 al, BYTE PTR $T2[ebp]
  001e4	eb 02		 jmp	 SHORT $LN1@OnRequestD
$LN8@OnRequestD:

; 653  : 
; 654  : 	return true;

  001e6	b0 01		 mov	 al, 1
$LN1@OnRequestD:

; 655  : }

  001e8	8b 4d f4	 mov	 ecx, DWORD PTR __$EHRec$[ebp+4]
  001eb	64 89 0d 00 00
	00 00		 mov	 DWORD PTR fs:0, ecx
  001f2	59		 pop	 ecx
  001f3	5f		 pop	 edi
  001f4	5e		 pop	 esi
  001f5	5b		 pop	 ebx
  001f6	8b 4d ec	 mov	 ecx, DWORD PTR __$ArrayPad$[ebp]
  001f9	33 cd		 xor	 ecx, ebp
  001fb	e8 00 00 00 00	 call	 @__security_check_cookie@4
  00200	8b e5		 mov	 esp, ebp
  00202	5d		 pop	 ebp
  00203	c2 0c 00	 ret	 12			; 0000000cH
_TEXT	ENDS
;	COMDAT text$x
text$x	SEGMENT
__ehhandler$?OnRequestDeleteFriend@CDataBaseEngineSink@@IAE_NKPAXG@Z:
  00000	8b 54 24 08	 mov	 edx, DWORD PTR [esp+8]
  00004	8d 42 0c	 lea	 eax, DWORD PTR [edx+12]
  00007	8b 8a 00 ff ff
	ff		 mov	 ecx, DWORD PTR [edx-256]
  0000d	33 c8		 xor	 ecx, eax
  0000f	e8 00 00 00 00	 call	 @__security_check_cookie@4
  00014	8b 4a f8	 mov	 ecx, DWORD PTR [edx-8]
  00017	33 c8		 xor	 ecx, eax
  00019	e8 00 00 00 00	 call	 @__security_check_cookie@4
  0001e	b8 00 00 00 00	 mov	 eax, OFFSET __ehfuncinfo$?OnRequestDeleteFriend@CDataBaseEngineSink@@IAE_NKPAXG@Z
  00023	e9 00 00 00 00	 jmp	 ___CxxFrameHandler3
text$x	ENDS
?OnRequestDeleteFriend@CDataBaseEngineSink@@IAE_NKPAXG@Z ENDP ; CDataBaseEngineSink::OnRequestDeleteFriend
; Function compile flags: /Odtp /ZI
; File g:\网狐\happygamewh\服务端\系统模块\服务器组件\聊天服务器\databaseenginesink.cpp
;	COMDAT ?OnRequestAddFriend@CDataBaseEngineSink@@IAE_NKPAXG@Z
_TEXT	SEGMENT
tv284 = -165716						; size = 4
tv280 = -165716						; size = 4
tv279 = -165716						; size = 4
tv278 = -165716						; size = 4
tv287 = -165712						; size = 2
tv286 = -165712						; size = 2
tv285 = -165710						; size = 1
tv283 = -165710						; size = 1
tv282 = -165710						; size = 1
tv281 = -165710						; size = 1
$T2 = -165709						; size = 1
_pIException$3 = -165196				; size = 4
_wDataSize$4 = -165192					; size = 2
_UserFriendInfo$5 = -165188				; size = 165012
_AddFriend$6 = -176					; size = 16
_lResultCode$7 = -160					; size = 4
_szDescribeString$8 = -156				; size = 128
_pAddFriend$9 = -28					; size = 4
_this$ = -24						; size = 4
__$ArrayPad$ = -20					; size = 4
__$EHRec$ = -16						; size = 16
_dwContextID$ = 8					; size = 4
_pData$ = 12						; size = 4
_wDataSize$ = 16					; size = 2
?OnRequestAddFriend@CDataBaseEngineSink@@IAE_NKPAXG@Z PROC ; CDataBaseEngineSink::OnRequestAddFriend, COMDAT
; _this$ = ecx

; 530  : {

  00000	55		 push	 ebp
  00001	8b ec		 mov	 ebp, esp
  00003	6a ff		 push	 -1
  00005	68 00 00 00 00	 push	 __ehhandler$?OnRequestAddFriend@CDataBaseEngineSink@@IAE_NKPAXG@Z
  0000a	64 a1 00 00 00
	00		 mov	 eax, DWORD PTR fs:0
  00010	50		 push	 eax
  00011	51		 push	 ecx
  00012	b8 44 87 02 00	 mov	 eax, 165700		; 00028744H
  00017	e8 00 00 00 00	 call	 __chkstk
  0001c	a1 00 00 00 00	 mov	 eax, DWORD PTR ___security_cookie
  00021	33 c5		 xor	 eax, ebp
  00023	89 45 ec	 mov	 DWORD PTR __$ArrayPad$[ebp], eax
  00026	53		 push	 ebx
  00027	56		 push	 esi
  00028	57		 push	 edi
  00029	50		 push	 eax
  0002a	8d 45 f4	 lea	 eax, DWORD PTR __$EHRec$[ebp+4]
  0002d	64 a3 00 00 00
	00		 mov	 DWORD PTR fs:0, eax
  00033	89 65 f0	 mov	 DWORD PTR __$EHRec$[ebp], esp
  00036	89 4d e8	 mov	 DWORD PTR _this$[ebp], ecx

; 531  : 	try

  00039	c7 45 fc 00 00
	00 00		 mov	 DWORD PTR __$EHRec$[ebp+12], 0

; 532  : 	{
; 533  : 		//提取变量
; 534  : 		DBR_GR_AddFriend * pAddFriend=(DBR_GR_AddFriend * )pData;

  00040	8b 45 0c	 mov	 eax, DWORD PTR _pData$[ebp]
  00043	89 45 e4	 mov	 DWORD PTR _pAddFriend$9[ebp], eax

; 535  : 		ASSERT(pAddFriend!=NULL);

  00046	83 7d e4 00	 cmp	 DWORD PTR _pAddFriend$9[ebp], 0
  0004a	75 23		 jne	 SHORT $LN6@OnRequestA
  0004c	a1 00 00 00 00	 mov	 eax, DWORD PTR ?__LINE__Var@?0??OnRequestAddFriend@CDataBaseEngineSink@@IAE_NKPAXG@Z@4JA
  00051	83 c0 05	 add	 eax, 5
  00054	50		 push	 eax
  00055	68 00 00 00 00	 push	 OFFSET ?THIS_FILE@@3PADA
  0005a	e8 00 00 00 00	 call	 ?AfxAssertFailedLine@@YGHPBDH@Z ; AfxAssertFailedLine
  0005f	89 85 ac 78 fd
	ff		 mov	 DWORD PTR tv278[ebp], eax
  00065	83 bd ac 78 fd
	ff 00		 cmp	 DWORD PTR tv278[ebp], 0
  0006c	74 01		 je	 SHORT $LN6@OnRequestA
  0006e	cc		 int	 3
$LN6@OnRequestA:

; 536  : 
; 537  : 		//执行查询
; 538  : 		m_AccountsDBAide.ResetParameter();

  0006f	8b 4d e8	 mov	 ecx, DWORD PTR _this$[ebp]
  00072	83 c1 04	 add	 ecx, 4
  00075	ff 15 00 00 00
	00		 call	 DWORD PTR __imp_?ResetParameter@CDataBaseAide@@QAEXXZ

; 539  : 		m_AccountsDBAide.AddParameter(TEXT("@dwUserID"),pAddFriend->dwUserID);

  0007b	6a 01		 push	 1
  0007d	8b 45 e4	 mov	 eax, DWORD PTR _pAddFriend$9[ebp]
  00080	8b 48 04	 mov	 ecx, DWORD PTR [eax+4]
  00083	51		 push	 ecx
  00084	68 00 00 00 00	 push	 OFFSET ??_C@_09KCDEMNBD@?$EAdwUserID@
  00089	8b 4d e8	 mov	 ecx, DWORD PTR _this$[ebp]
  0008c	83 c1 04	 add	 ecx, 4
  0008f	ff 15 00 00 00
	00		 call	 DWORD PTR __imp_?AddParameter@CDataBaseAide@@QAEXPBDKW4ParameterDirectionEnum@ADOCG@@@Z

; 540  : 		m_AccountsDBAide.AddParameter(TEXT("@dwDestUserID"),pAddFriend->dwRequestUserID);

  00095	6a 01		 push	 1
  00097	8b 45 e4	 mov	 eax, DWORD PTR _pAddFriend$9[ebp]
  0009a	8b 48 08	 mov	 ecx, DWORD PTR [eax+8]
  0009d	51		 push	 ecx
  0009e	68 00 00 00 00	 push	 OFFSET ??_C@_0O@MGOPHJEC@?$EAdwDestUserID@
  000a3	8b 4d e8	 mov	 ecx, DWORD PTR _this$[ebp]
  000a6	83 c1 04	 add	 ecx, 4
  000a9	ff 15 00 00 00
	00		 call	 DWORD PTR __imp_?AddParameter@CDataBaseAide@@QAEXPBDKW4ParameterDirectionEnum@ADOCG@@@Z

; 541  : 		m_AccountsDBAide.AddParameter(TEXT("@cbGroupID"),pAddFriend->cbGroupID);

  000af	6a 01		 push	 1
  000b1	8b 45 e4	 mov	 eax, DWORD PTR _pAddFriend$9[ebp]
  000b4	0f b6 48 0c	 movzx	 ecx, BYTE PTR [eax+12]
  000b8	51		 push	 ecx
  000b9	68 00 00 00 00	 push	 OFFSET ??_C@_0L@BKCLAFLJ@?$EAcbGroupID@
  000be	8b 4d e8	 mov	 ecx, DWORD PTR _this$[ebp]
  000c1	83 c1 04	 add	 ecx, 4
  000c4	ff 15 00 00 00
	00		 call	 DWORD PTR __imp_?AddParameter@CDataBaseAide@@QAEXPBDEW4ParameterDirectionEnum@ADOCG@@@Z

; 542  : 		m_AccountsDBAide.AddParameter(TEXT("@cbDestGroupID"),pAddFriend->cbRequestGroupID);

  000ca	6a 01		 push	 1
  000cc	8b 45 e4	 mov	 eax, DWORD PTR _pAddFriend$9[ebp]
  000cf	0f b6 48 0d	 movzx	 ecx, BYTE PTR [eax+13]
  000d3	51		 push	 ecx
  000d4	68 00 00 00 00	 push	 OFFSET ??_C@_0P@MOENBMCB@?$EAcbDestGroupID@
  000d9	8b 4d e8	 mov	 ecx, DWORD PTR _this$[ebp]
  000dc	83 c1 04	 add	 ecx, 4
  000df	ff 15 00 00 00
	00		 call	 DWORD PTR __imp_?AddParameter@CDataBaseAide@@QAEXPBDEW4ParameterDirectionEnum@ADOCG@@@Z

; 543  : 		m_AccountsDBAide.AddParameter(TEXT("@cbLoadUserInfo"),pAddFriend->bLoadUserInfo);

  000e5	6a 01		 push	 1
  000e7	8b 45 e4	 mov	 eax, DWORD PTR _pAddFriend$9[ebp]
  000ea	0f b6 08	 movzx	 ecx, BYTE PTR [eax]
  000ed	51		 push	 ecx
  000ee	68 00 00 00 00	 push	 OFFSET ??_C@_0BA@JCDGDHKF@?$EAcbLoadUserInfo@
  000f3	8b 4d e8	 mov	 ecx, DWORD PTR _this$[ebp]
  000f6	83 c1 04	 add	 ecx, 4
  000f9	ff 15 00 00 00
	00		 call	 DWORD PTR __imp_?AddParameter@CDataBaseAide@@QAEXPBDHW4ParameterDirectionEnum@ADOCG@@@Z

; 544  : 
; 545  : 		//变量定义
; 546  : 		TCHAR szDescribeString[128]=TEXT("");

  000ff	a0 00 00 00 00	 mov	 al, BYTE PTR ??_C@_00CNPNBAHC@@
  00104	88 85 64 ff ff
	ff		 mov	 BYTE PTR _szDescribeString$8[ebp], al
  0010a	6a 7f		 push	 127			; 0000007fH
  0010c	6a 00		 push	 0
  0010e	8d 85 65 ff ff
	ff		 lea	 eax, DWORD PTR _szDescribeString$8[ebp+1]
  00114	50		 push	 eax
  00115	e8 00 00 00 00	 call	 _memset
  0011a	83 c4 0c	 add	 esp, 12			; 0000000cH

; 547  : 		m_AccountsDBAide.AddParameterOutput(TEXT("@strErrorDescribe"),szDescribeString,sizeof(szDescribeString),adParamOutput);

  0011d	6a 02		 push	 2
  0011f	68 80 00 00 00	 push	 128			; 00000080H
  00124	8d 85 64 ff ff
	ff		 lea	 eax, DWORD PTR _szDescribeString$8[ebp]
  0012a	50		 push	 eax
  0012b	68 00 00 00 00	 push	 OFFSET ??_C@_0BC@IIOJPJPJ@?$EAstrErrorDescribe@
  00130	8b 4d e8	 mov	 ecx, DWORD PTR _this$[ebp]
  00133	83 c1 04	 add	 ecx, 4
  00136	ff 15 00 00 00
	00		 call	 DWORD PTR __imp_?AddParameterOutput@CDataBaseAide@@QAEXPBDPADIW4ParameterDirectionEnum@ADOCG@@@Z

; 548  : 
; 549  : 		//执行查询
; 550  : 		LONG lResultCode=m_AccountsDBAide.ExecuteProcess(TEXT("GSP_GP_AddUserFriend"),true);

  0013c	6a 01		 push	 1
  0013e	68 00 00 00 00	 push	 OFFSET ??_C@_0BF@GFGAEEKM@GSP_GP_AddUserFriend@
  00143	8b 4d e8	 mov	 ecx, DWORD PTR _this$[ebp]
  00146	83 c1 04	 add	 ecx, 4
  00149	ff 15 00 00 00
	00		 call	 DWORD PTR __imp_?ExecuteProcess@CDataBaseAide@@QAEJPBD_N@Z
  0014f	89 85 ac 78 fd
	ff		 mov	 DWORD PTR tv279[ebp], eax
  00155	8b 85 ac 78 fd
	ff		 mov	 eax, DWORD PTR tv279[ebp]
  0015b	89 85 60 ff ff
	ff		 mov	 DWORD PTR _lResultCode$7[ebp], eax

; 551  : 
; 552  : 		if(lResultCode==DB_SUCCESS)

  00161	83 bd 60 ff ff
	ff 00		 cmp	 DWORD PTR _lResultCode$7[ebp], 0
  00168	0f 85 ae 02 00
	00		 jne	 $LN3@OnRequestA

; 553  : 		{
; 554  : 			//变量定义
; 555  : 			DBO_GR_AddFriend AddFriend;
; 556  : 			AddFriend.dwUserID = pAddFriend->dwUserID;

  0016e	8b 45 e4	 mov	 eax, DWORD PTR _pAddFriend$9[ebp]
  00171	8b 48 04	 mov	 ecx, DWORD PTR [eax+4]
  00174	89 8d 54 ff ff
	ff		 mov	 DWORD PTR _AddFriend$6[ebp+4], ecx

; 557  : 			AddFriend.dwRequestUserID = pAddFriend->dwRequestUserID;

  0017a	8b 45 e4	 mov	 eax, DWORD PTR _pAddFriend$9[ebp]
  0017d	8b 48 08	 mov	 ecx, DWORD PTR [eax+8]
  00180	89 8d 58 ff ff
	ff		 mov	 DWORD PTR _AddFriend$6[ebp+8], ecx

; 558  : 			AddFriend.cbGroupID = pAddFriend->cbGroupID;

  00186	8b 45 e4	 mov	 eax, DWORD PTR _pAddFriend$9[ebp]
  00189	8a 48 0c	 mov	 cl, BYTE PTR [eax+12]
  0018c	88 8d 5c ff ff
	ff		 mov	 BYTE PTR _AddFriend$6[ebp+12], cl

; 559  : 			AddFriend.cbRequestGroupID = pAddFriend->cbRequestGroupID;

  00192	8b 45 e4	 mov	 eax, DWORD PTR _pAddFriend$9[ebp]
  00195	8a 48 0d	 mov	 cl, BYTE PTR [eax+13]
  00198	88 8d 5d ff ff
	ff		 mov	 BYTE PTR _AddFriend$6[ebp+13], cl

; 560  : 			AddFriend.bLoadUserInfo = pAddFriend->bLoadUserInfo;

  0019e	8b 45 e4	 mov	 eax, DWORD PTR _pAddFriend$9[ebp]
  001a1	8a 08		 mov	 cl, BYTE PTR [eax]
  001a3	88 8d 50 ff ff
	ff		 mov	 BYTE PTR _AddFriend$6[ebp], cl

; 561  : 
; 562  : 			//加载用户信息
; 563  : 			if(AddFriend.bLoadUserInfo==true)

  001a9	0f b6 85 50 ff
	ff ff		 movzx	 eax, BYTE PTR _AddFriend$6[ebp]
  001b0	83 f8 01	 cmp	 eax, 1
  001b3	0f 85 38 02 00
	00		 jne	 $LN4@OnRequestA

; 564  : 			{
; 565  : 				//构造结构
; 566  : 				DBO_GR_UserFriendInfo UserFriendInfo;
; 567  : 				UserFriendInfo.dwUserID = AddFriend.dwUserID;

  001b9	8b 85 54 ff ff
	ff		 mov	 eax, DWORD PTR _AddFriend$6[ebp+4]
  001bf	89 85 c0 7a fd
	ff		 mov	 DWORD PTR _UserFriendInfo$5[ebp+4], eax

; 568  : 				UserFriendInfo.wFriendCount = 1;

  001c5	b8 01 00 00 00	 mov	 eax, 1
  001ca	66 89 85 c4 7a
	fd ff		 mov	 WORD PTR _UserFriendInfo$5[ebp+8], ax

; 569  : 				UserFriendInfo.bLogonFlag=false;

  001d1	c6 85 bc 7a fd
	ff 00		 mov	 BYTE PTR _UserFriendInfo$5[ebp], 0

; 570  : 
; 571  : 				//获取记录
; 572  : 				UserFriendInfo.FriendInfo[0].dwUserID=m_AccountsDBAide.GetValue_DWORD(TEXT("UserID"));

  001d8	68 00 00 00 00	 push	 OFFSET ??_C@_06OFHCDFJK@UserID@
  001dd	8b 4d e8	 mov	 ecx, DWORD PTR _this$[ebp]
  001e0	83 c1 04	 add	 ecx, 4
  001e3	ff 15 00 00 00
	00		 call	 DWORD PTR __imp_?GetValue_DWORD@CDataBaseAide@@QAEKPBD@Z
  001e9	89 85 ac 78 fd
	ff		 mov	 DWORD PTR tv280[ebp], eax
  001ef	b8 a5 00 00 00	 mov	 eax, 165		; 000000a5H
  001f4	6b c8 00	 imul	 ecx, eax, 0
  001f7	8b 95 ac 78 fd
	ff		 mov	 edx, DWORD PTR tv280[ebp]
  001fd	89 94 0d c6 7a
	fd ff		 mov	 DWORD PTR _UserFriendInfo$5[ebp+ecx+10], edx

; 573  : 				UserFriendInfo.FriendInfo[0].dwGameID =m_AccountsDBAide.GetValue_BYTE(TEXT("GameID"));

  00204	68 00 00 00 00	 push	 OFFSET ??_C@_06KGJDDPAK@GameID@
  00209	8b 4d e8	 mov	 ecx, DWORD PTR _this$[ebp]
  0020c	83 c1 04	 add	 ecx, 4
  0020f	ff 15 00 00 00
	00		 call	 DWORD PTR __imp_?GetValue_BYTE@CDataBaseAide@@QAEEPBD@Z
  00215	88 85 b2 78 fd
	ff		 mov	 BYTE PTR tv281[ebp], al
  0021b	0f b6 85 b2 78
	fd ff		 movzx	 eax, BYTE PTR tv281[ebp]
  00222	b9 a5 00 00 00	 mov	 ecx, 165		; 000000a5H
  00227	6b d1 00	 imul	 edx, ecx, 0
  0022a	89 84 15 ca 7a
	fd ff		 mov	 DWORD PTR _UserFriendInfo$5[ebp+edx+14], eax

; 574  : 				UserFriendInfo.FriendInfo[0].cbGroupID =m_AccountsDBAide.GetValue_BYTE(TEXT("GroupID"));

  00231	68 00 00 00 00	 push	 OFFSET ??_C@_07IKIDGEIC@GroupID@
  00236	8b 4d e8	 mov	 ecx, DWORD PTR _this$[ebp]
  00239	83 c1 04	 add	 ecx, 4
  0023c	ff 15 00 00 00
	00		 call	 DWORD PTR __imp_?GetValue_BYTE@CDataBaseAide@@QAEEPBD@Z
  00242	88 85 b2 78 fd
	ff		 mov	 BYTE PTR tv282[ebp], al
  00248	b8 a5 00 00 00	 mov	 eax, 165		; 000000a5H
  0024d	6b c8 00	 imul	 ecx, eax, 0
  00250	8a 95 b2 78 fd
	ff		 mov	 dl, BYTE PTR tv282[ebp]
  00256	88 94 0d 40 7b
	fd ff		 mov	 BYTE PTR _UserFriendInfo$5[ebp+ecx+132], dl

; 575  : 				UserFriendInfo.FriendInfo[0].dwFaceID =m_AccountsDBAide.GetValue_BYTE(TEXT("FaceID"));

  0025d	68 00 00 00 00	 push	 OFFSET ??_C@_06LPNEIKNP@FaceID@
  00262	8b 4d e8	 mov	 ecx, DWORD PTR _this$[ebp]
  00265	83 c1 04	 add	 ecx, 4
  00268	ff 15 00 00 00
	00		 call	 DWORD PTR __imp_?GetValue_BYTE@CDataBaseAide@@QAEEPBD@Z
  0026e	88 85 b2 78 fd
	ff		 mov	 BYTE PTR tv283[ebp], al
  00274	0f b6 85 b2 78
	fd ff		 movzx	 eax, BYTE PTR tv283[ebp]
  0027b	b9 a5 00 00 00	 mov	 ecx, 165		; 000000a5H
  00280	6b d1 00	 imul	 edx, ecx, 0
  00283	89 84 15 ee 7a
	fd ff		 mov	 DWORD PTR _UserFriendInfo$5[ebp+edx+50], eax

; 576  : 				UserFriendInfo.FriendInfo[0].dwCustomID =m_AccountsDBAide.GetValue_DWORD(TEXT("CustomID"));

  0028a	68 00 00 00 00	 push	 OFFSET ??_C@_08GOBKDNAK@CustomID@
  0028f	8b 4d e8	 mov	 ecx, DWORD PTR _this$[ebp]
  00292	83 c1 04	 add	 ecx, 4
  00295	ff 15 00 00 00
	00		 call	 DWORD PTR __imp_?GetValue_DWORD@CDataBaseAide@@QAEKPBD@Z
  0029b	89 85 ac 78 fd
	ff		 mov	 DWORD PTR tv284[ebp], eax
  002a1	b8 a5 00 00 00	 mov	 eax, 165		; 000000a5H
  002a6	6b c8 00	 imul	 ecx, eax, 0
  002a9	8b 95 ac 78 fd
	ff		 mov	 edx, DWORD PTR tv284[ebp]
  002af	89 94 0d f2 7a
	fd ff		 mov	 DWORD PTR _UserFriendInfo$5[ebp+ecx+54], edx

; 577  : 				UserFriendInfo.FriendInfo[0].cbGender =m_AccountsDBAide.GetValue_BYTE(TEXT("Gender"));

  002b6	68 00 00 00 00	 push	 OFFSET ??_C@_06HKFFEOFI@Gender@
  002bb	8b 4d e8	 mov	 ecx, DWORD PTR _this$[ebp]
  002be	83 c1 04	 add	 ecx, 4
  002c1	ff 15 00 00 00
	00		 call	 DWORD PTR __imp_?GetValue_BYTE@CDataBaseAide@@QAEEPBD@Z
  002c7	88 85 b2 78 fd
	ff		 mov	 BYTE PTR tv285[ebp], al
  002cd	b8 a5 00 00 00	 mov	 eax, 165		; 000000a5H
  002d2	6b c8 00	 imul	 ecx, eax, 0
  002d5	8a 95 b2 78 fd
	ff		 mov	 dl, BYTE PTR tv285[ebp]
  002db	88 94 0d f6 7a
	fd ff		 mov	 BYTE PTR _UserFriendInfo$5[ebp+ecx+58], dl

; 578  : 				UserFriendInfo.FriendInfo[0].wMemberOrder =m_AccountsDBAide.GetValue_WORD(TEXT("MemberOrder"));

  002e2	68 00 00 00 00	 push	 OFFSET ??_C@_0M@CEFIIFDG@MemberOrder@
  002e7	8b 4d e8	 mov	 ecx, DWORD PTR _this$[ebp]
  002ea	83 c1 04	 add	 ecx, 4
  002ed	ff 15 00 00 00
	00		 call	 DWORD PTR __imp_?GetValue_WORD@CDataBaseAide@@QAEGPBD@Z
  002f3	66 89 85 b0 78
	fd ff		 mov	 WORD PTR tv286[ebp], ax
  002fa	b8 a5 00 00 00	 mov	 eax, 165		; 000000a5H
  002ff	6b c8 00	 imul	 ecx, eax, 0
  00302	66 8b 95 b0 78
	fd ff		 mov	 dx, WORD PTR tv286[ebp]
  00309	66 89 94 0d f7
	7a fd ff	 mov	 WORD PTR _UserFriendInfo$5[ebp+ecx+59], dx

; 579  : 				UserFriendInfo.FriendInfo[0].wGrowLevel =m_AccountsDBAide.GetValue_WORD(TEXT("GrowLevel"));

  00311	68 00 00 00 00	 push	 OFFSET ??_C@_09HOAKNMLL@GrowLevel@
  00316	8b 4d e8	 mov	 ecx, DWORD PTR _this$[ebp]
  00319	83 c1 04	 add	 ecx, 4
  0031c	ff 15 00 00 00
	00		 call	 DWORD PTR __imp_?GetValue_WORD@CDataBaseAide@@QAEGPBD@Z
  00322	66 89 85 b0 78
	fd ff		 mov	 WORD PTR tv287[ebp], ax
  00329	b8 a5 00 00 00	 mov	 eax, 165		; 000000a5H
  0032e	6b c8 00	 imul	 ecx, eax, 0
  00331	66 8b 95 b0 78
	fd ff		 mov	 dx, WORD PTR tv287[ebp]
  00338	66 89 94 0d f9
	7a fd ff	 mov	 WORD PTR _UserFriendInfo$5[ebp+ecx+61], dx

; 580  : 				m_AccountsDBAide.GetValue_String(TEXT("NickName"),UserFriendInfo.FriendInfo[0].szNickName,CountArray(UserFriendInfo.FriendInfo[0].szNickName));

  00340	6a 20		 push	 32			; 00000020H
  00342	b8 a5 00 00 00	 mov	 eax, 165		; 000000a5H
  00347	6b c8 00	 imul	 ecx, eax, 0
  0034a	8d 94 0d ce 7a
	fd ff		 lea	 edx, DWORD PTR _UserFriendInfo$5[ebp+ecx+18]
  00351	52		 push	 edx
  00352	68 00 00 00 00	 push	 OFFSET ??_C@_08CELDJAGK@NickName@
  00357	8b 4d e8	 mov	 ecx, DWORD PTR _this$[ebp]
  0035a	83 c1 04	 add	 ecx, 4
  0035d	ff 15 00 00 00
	00		 call	 DWORD PTR __imp_?GetValue_String@CDataBaseAide@@QAEXPBDPADI@Z

; 581  : 				m_AccountsDBAide.GetValue_String(TEXT("UnderWrite"),UserFriendInfo.FriendInfo[0].szUnderWrite,CountArray(UserFriendInfo.FriendInfo[0].szUnderWrite));

  00363	6a 20		 push	 32			; 00000020H
  00365	b8 a5 00 00 00	 mov	 eax, 165		; 000000a5H
  0036a	6b c8 00	 imul	 ecx, eax, 0
  0036d	8d 94 0d fb 7a
	fd ff		 lea	 edx, DWORD PTR _UserFriendInfo$5[ebp+ecx+63]
  00374	52		 push	 edx
  00375	68 00 00 00 00	 push	 OFFSET ??_C@_0L@CPAJNIME@UnderWrite@
  0037a	8b 4d e8	 mov	 ecx, DWORD PTR _this$[ebp]
  0037d	83 c1 04	 add	 ecx, 4
  00380	ff 15 00 00 00
	00		 call	 DWORD PTR __imp_?GetValue_String@CDataBaseAide@@QAEXPBDPADI@Z

; 582  : 				m_AccountsDBAide.GetValue_String(TEXT("Compellation"),UserFriendInfo.FriendInfo[0].szCompellation,CountArray(UserFriendInfo.FriendInfo[0].szCompellation));

  00386	6a 10		 push	 16			; 00000010H
  00388	b8 a5 00 00 00	 mov	 eax, 165		; 000000a5H
  0038d	6b c8 00	 imul	 ecx, eax, 0
  00390	8d 94 0d 1b 7b
	fd ff		 lea	 edx, DWORD PTR _UserFriendInfo$5[ebp+ecx+95]
  00397	52		 push	 edx
  00398	68 00 00 00 00	 push	 OFFSET ??_C@_0N@CLIEFGAF@Compellation@
  0039d	8b 4d e8	 mov	 ecx, DWORD PTR _this$[ebp]
  003a0	83 c1 04	 add	 ecx, 4
  003a3	ff 15 00 00 00
	00		 call	 DWORD PTR __imp_?GetValue_String@CDataBaseAide@@QAEXPBDPADI@Z

; 583  : 
; 584  : 				//投递数据
; 585  : 				WORD wDataSize = sizeof(UserFriendInfo)-sizeof(UserFriendInfo.FriendInfo)+sizeof(tagClientFriendInfo)*UserFriendInfo.wFriendCount;

  003a9	0f b7 85 c4 7a
	fd ff		 movzx	 eax, WORD PTR _UserFriendInfo$5[ebp+8]
  003b0	69 c8 a5 00 00
	00		 imul	 ecx, eax, 165
  003b6	83 c1 0c	 add	 ecx, 12			; 0000000cH
  003b9	66 89 8d b8 7a
	fd ff		 mov	 WORD PTR _wDataSize$4[ebp], cx

; 586  : 				m_pIDataBaseEngineEvent->OnEventDataBaseResult(DBO_GR_USER_FRIENDINFO,dwContextID,&UserFriendInfo,wDataSize);

  003c0	0f b7 85 b8 7a
	fd ff		 movzx	 eax, WORD PTR _wDataSize$4[ebp]
  003c7	50		 push	 eax
  003c8	8d 8d bc 7a fd
	ff		 lea	 ecx, DWORD PTR _UserFriendInfo$5[ebp]
  003ce	51		 push	 ecx
  003cf	8b 55 08	 mov	 edx, DWORD PTR _dwContextID$[ebp]
  003d2	52		 push	 edx
  003d3	68 c9 00 00 00	 push	 201			; 000000c9H
  003d8	8b 45 e8	 mov	 eax, DWORD PTR _this$[ebp]
  003db	8b 4d e8	 mov	 ecx, DWORD PTR _this$[ebp]
  003de	8b 91 a8 05 00
	00		 mov	 edx, DWORD PTR [ecx+1448]
  003e4	8b 12		 mov	 edx, DWORD PTR [edx]
  003e6	8b 88 a8 05 00
	00		 mov	 ecx, DWORD PTR [eax+1448]
  003ec	8b 42 08	 mov	 eax, DWORD PTR [edx+8]
  003ef	ff d0		 call	 eax
$LN4@OnRequestA:

; 587  : 
; 588  : 			}
; 589  : 
; 590  : 			//投递数据
; 591  : 			m_pIDataBaseEngineEvent->OnEventDataBaseResult(DBO_GR_ADD_FRIEND,dwContextID,&AddFriend,sizeof(AddFriend));

  003f1	6a 10		 push	 16			; 00000010H
  003f3	8d 85 50 ff ff
	ff		 lea	 eax, DWORD PTR _AddFriend$6[ebp]
  003f9	50		 push	 eax
  003fa	8b 4d 08	 mov	 ecx, DWORD PTR _dwContextID$[ebp]
  003fd	51		 push	 ecx
  003fe	68 97 01 00 00	 push	 407			; 00000197H
  00403	8b 55 e8	 mov	 edx, DWORD PTR _this$[ebp]
  00406	8b 45 e8	 mov	 eax, DWORD PTR _this$[ebp]
  00409	8b 88 a8 05 00
	00		 mov	 ecx, DWORD PTR [eax+1448]
  0040f	8b 01		 mov	 eax, DWORD PTR [ecx]
  00411	8b 8a a8 05 00
	00		 mov	 ecx, DWORD PTR [edx+1448]
  00417	8b 50 08	 mov	 edx, DWORD PTR [eax+8]
  0041a	ff d2		 call	 edx
$LN3@OnRequestA:

; 592  : 		}
; 593  : 
; 594  : 		return true;

  0041c	b0 01		 mov	 al, 1
  0041e	eb 4c		 jmp	 SHORT $LN1@OnRequestA
__catch$?OnRequestAddFriend@CDataBaseEngineSink@@IAE_NKPAXG@Z$0:

; 595  : 	}
; 596  : 	catch (IDataBaseException * pIException)
; 597  : 	{
; 598  : 		//输出错误
; 599  : 		CTraceService::TraceString(pIException->GetExceptionDescribe(),TraceLevel_Exception);

  00420	6a 03		 push	 3
  00422	8b 85 b4 7a fd
	ff		 mov	 eax, DWORD PTR _pIException$3[ebp]
  00428	8b 10		 mov	 edx, DWORD PTR [eax]
  0042a	8b 8d b4 7a fd
	ff		 mov	 ecx, DWORD PTR _pIException$3[ebp]
  00430	8b 42 0c	 mov	 eax, DWORD PTR [edx+12]
  00433	ff d0		 call	 eax
  00435	50		 push	 eax
  00436	ff 15 00 00 00
	00		 call	 DWORD PTR __imp_?TraceString@CTraceService@@SA_NPBDW4enTraceLevel@@@Z
  0043c	83 c4 08	 add	 esp, 8

; 600  : 
; 601  : 		return false;

  0043f	c6 85 b3 78 fd
	ff 00		 mov	 BYTE PTR $T2[ebp], 0
  00446	b8 00 00 00 00	 mov	 eax, $LN10@OnRequestA
  0044b	c3		 ret	 0

; 602  : 	}

  0044c	b8 00 00 00 00	 mov	 eax, __tryend$?OnRequestAddFriend@CDataBaseEngineSink@@IAE_NKPAXG@Z$1
  00451	c3		 ret	 0
__tryend$?OnRequestAddFriend@CDataBaseEngineSink@@IAE_NKPAXG@Z$1:
  00452	c7 45 fc ff ff
	ff ff		 mov	 DWORD PTR __$EHRec$[ebp+12], -1
  00459	eb 0f		 jmp	 SHORT $LN9@OnRequestA
$LN10@OnRequestA:
  0045b	c7 45 fc ff ff
	ff ff		 mov	 DWORD PTR __$EHRec$[ebp+12], -1

; 600  : 
; 601  : 		return false;

  00462	8a 85 b3 78 fd
	ff		 mov	 al, BYTE PTR $T2[ebp]
  00468	eb 02		 jmp	 SHORT $LN1@OnRequestA
$LN9@OnRequestA:

; 603  : 
; 604  : 	return true;

  0046a	b0 01		 mov	 al, 1
$LN1@OnRequestA:

; 605  : }

  0046c	8b 4d f4	 mov	 ecx, DWORD PTR __$EHRec$[ebp+4]
  0046f	64 89 0d 00 00
	00 00		 mov	 DWORD PTR fs:0, ecx
  00476	59		 pop	 ecx
  00477	5f		 pop	 edi
  00478	5e		 pop	 esi
  00479	5b		 pop	 ebx
  0047a	8b 4d ec	 mov	 ecx, DWORD PTR __$ArrayPad$[ebp]
  0047d	33 cd		 xor	 ecx, ebp
  0047f	e8 00 00 00 00	 call	 @__security_check_cookie@4
  00484	8b e5		 mov	 esp, ebp
  00486	5d		 pop	 ebp
  00487	c2 0c 00	 ret	 12			; 0000000cH
_TEXT	ENDS
;	COMDAT text$x
text$x	SEGMENT
__ehhandler$?OnRequestAddFriend@CDataBaseEngineSink@@IAE_NKPAXG@Z:
  00000	8b 54 24 08	 mov	 edx, DWORD PTR [esp+8]
  00004	8d 42 0c	 lea	 eax, DWORD PTR [edx+12]
  00007	8b 8a a8 78 fd
	ff		 mov	 ecx, DWORD PTR [edx-165720]
  0000d	33 c8		 xor	 ecx, eax
  0000f	e8 00 00 00 00	 call	 @__security_check_cookie@4
  00014	8b 4a f8	 mov	 ecx, DWORD PTR [edx-8]
  00017	33 c8		 xor	 ecx, eax
  00019	e8 00 00 00 00	 call	 @__security_check_cookie@4
  0001e	b8 00 00 00 00	 mov	 eax, OFFSET __ehfuncinfo$?OnRequestAddFriend@CDataBaseEngineSink@@IAE_NKPAXG@Z
  00023	e9 00 00 00 00	 jmp	 ___CxxFrameHandler3
text$x	ENDS
?OnRequestAddFriend@CDataBaseEngineSink@@IAE_NKPAXG@Z ENDP ; CDataBaseEngineSink::OnRequestAddFriend
; Function compile flags: /Odtp /ZI
; File g:\网狐\happygamewh\服务端\系统模块\服务器组件\聊天服务器\databaseenginesink.cpp
;	COMDAT ?OnRequestModifyFriend@CDataBaseEngineSink@@IAE_NKPAXG@Z
_TEXT	SEGMENT
tv194 = -260						; size = 4
tv157 = -260						; size = 4
$T2 = -253						; size = 1
_ModifyFriend$3 = -188					; size = 12
_pIException$4 = -176					; size = 4
_ModifyFriend$5 = -172					; size = 12
_lResultCode$6 = -160					; size = 4
_szDescribeString$7 = -156				; size = 128
_pModifyFriend$ = -28					; size = 4
_this$ = -24						; size = 4
__$ArrayPad$ = -20					; size = 4
__$EHRec$ = -16						; size = 16
_dwContextID$ = 8					; size = 4
_pData$ = 12						; size = 4
_wDataSize$ = 16					; size = 2
?OnRequestModifyFriend@CDataBaseEngineSink@@IAE_NKPAXG@Z PROC ; CDataBaseEngineSink::OnRequestModifyFriend, COMDAT
; _this$ = ecx

; 471  : {

  00000	55		 push	 ebp
  00001	8b ec		 mov	 ebp, esp
  00003	6a ff		 push	 -1
  00005	68 00 00 00 00	 push	 __ehhandler$?OnRequestModifyFriend@CDataBaseEngineSink@@IAE_NKPAXG@Z
  0000a	64 a1 00 00 00
	00		 mov	 eax, DWORD PTR fs:0
  00010	50		 push	 eax
  00011	51		 push	 ecx
  00012	81 ec f4 00 00
	00		 sub	 esp, 244		; 000000f4H
  00018	a1 00 00 00 00	 mov	 eax, DWORD PTR ___security_cookie
  0001d	33 c5		 xor	 eax, ebp
  0001f	89 45 ec	 mov	 DWORD PTR __$ArrayPad$[ebp], eax
  00022	53		 push	 ebx
  00023	56		 push	 esi
  00024	57		 push	 edi
  00025	50		 push	 eax
  00026	8d 45 f4	 lea	 eax, DWORD PTR __$EHRec$[ebp+4]
  00029	64 a3 00 00 00
	00		 mov	 DWORD PTR fs:0, eax
  0002f	89 65 f0	 mov	 DWORD PTR __$EHRec$[ebp], esp
  00032	89 4d e8	 mov	 DWORD PTR _this$[ebp], ecx

; 472  : 	//提取变量
; 473  : 	DBR_GR_ModifyFriend * pModifyFriend=(DBR_GR_ModifyFriend * )pData;

  00035	8b 45 0c	 mov	 eax, DWORD PTR _pData$[ebp]
  00038	89 45 e4	 mov	 DWORD PTR _pModifyFriend$[ebp], eax

; 474  : 	ASSERT(pModifyFriend!=NULL);

  0003b	83 7d e4 00	 cmp	 DWORD PTR _pModifyFriend$[ebp], 0
  0003f	75 18		 jne	 SHORT $LN4@OnRequestM
  00041	a1 00 00 00 00	 mov	 eax, DWORD PTR ?__LINE__Var@?0??OnRequestModifyFriend@CDataBaseEngineSink@@IAE_NKPAXG@Z@4JA
  00046	83 c0 03	 add	 eax, 3
  00049	50		 push	 eax
  0004a	68 00 00 00 00	 push	 OFFSET ?THIS_FILE@@3PADA
  0004f	e8 00 00 00 00	 call	 ?AfxAssertFailedLine@@YGHPBDH@Z ; AfxAssertFailedLine
  00054	85 c0		 test	 eax, eax
  00056	74 01		 je	 SHORT $LN4@OnRequestM
  00058	cc		 int	 3
$LN4@OnRequestM:

; 475  : 
; 476  : 	try

  00059	c7 45 fc 00 00
	00 00		 mov	 DWORD PTR __$EHRec$[ebp+12], 0

; 477  : 	{
; 478  : 		//执行查询
; 479  : 		m_AccountsDBAide.ResetParameter();

  00060	8b 4d e8	 mov	 ecx, DWORD PTR _this$[ebp]
  00063	83 c1 04	 add	 ecx, 4
  00066	ff 15 00 00 00
	00		 call	 DWORD PTR __imp_?ResetParameter@CDataBaseAide@@QAEXXZ

; 480  : 		m_AccountsDBAide.AddParameter(TEXT("@dwUserID"),pModifyFriend->dwUserID);

  0006c	6a 01		 push	 1
  0006e	8b 45 e4	 mov	 eax, DWORD PTR _pModifyFriend$[ebp]
  00071	8b 08		 mov	 ecx, DWORD PTR [eax]
  00073	51		 push	 ecx
  00074	68 00 00 00 00	 push	 OFFSET ??_C@_09KCDEMNBD@?$EAdwUserID@
  00079	8b 4d e8	 mov	 ecx, DWORD PTR _this$[ebp]
  0007c	83 c1 04	 add	 ecx, 4
  0007f	ff 15 00 00 00
	00		 call	 DWORD PTR __imp_?AddParameter@CDataBaseAide@@QAEXPBDKW4ParameterDirectionEnum@ADOCG@@@Z

; 481  : 		m_AccountsDBAide.AddParameter(TEXT("@dwFriendUserID"),pModifyFriend->dwFriendUserID);

  00085	6a 01		 push	 1
  00087	8b 45 e4	 mov	 eax, DWORD PTR _pModifyFriend$[ebp]
  0008a	8b 48 04	 mov	 ecx, DWORD PTR [eax+4]
  0008d	51		 push	 ecx
  0008e	68 00 00 00 00	 push	 OFFSET ??_C@_0BA@PEHFKMKN@?$EAdwFriendUserID@
  00093	8b 4d e8	 mov	 ecx, DWORD PTR _this$[ebp]
  00096	83 c1 04	 add	 ecx, 4
  00099	ff 15 00 00 00
	00		 call	 DWORD PTR __imp_?AddParameter@CDataBaseAide@@QAEXPBDKW4ParameterDirectionEnum@ADOCG@@@Z

; 482  : 		m_AccountsDBAide.AddParameter(TEXT("@strPassword"),pModifyFriend->szPassword);

  0009f	6a 01		 push	 1
  000a1	8b 45 e4	 mov	 eax, DWORD PTR _pModifyFriend$[ebp]
  000a4	83 c0 08	 add	 eax, 8
  000a7	50		 push	 eax
  000a8	68 00 00 00 00	 push	 OFFSET ??_C@_0N@OCODJCJL@?$EAstrPassword@
  000ad	8b 4d e8	 mov	 ecx, DWORD PTR _this$[ebp]
  000b0	83 c1 04	 add	 ecx, 4
  000b3	ff 15 00 00 00
	00		 call	 DWORD PTR __imp_?AddParameter@CDataBaseAide@@QAEXPBD0W4ParameterDirectionEnum@ADOCG@@@Z

; 483  : 		m_AccountsDBAide.AddParameter(TEXT("@cbOperateKind"),pModifyFriend->cbOperateKind);

  000b9	6a 01		 push	 1
  000bb	8b 45 e4	 mov	 eax, DWORD PTR _pModifyFriend$[ebp]
  000be	0f b6 48 29	 movzx	 ecx, BYTE PTR [eax+41]
  000c2	51		 push	 ecx
  000c3	68 00 00 00 00	 push	 OFFSET ??_C@_0P@FPAAEPDL@?$EAcbOperateKind@
  000c8	8b 4d e8	 mov	 ecx, DWORD PTR _this$[ebp]
  000cb	83 c1 04	 add	 ecx, 4
  000ce	ff 15 00 00 00
	00		 call	 DWORD PTR __imp_?AddParameter@CDataBaseAide@@QAEXPBDEW4ParameterDirectionEnum@ADOCG@@@Z

; 484  : 		m_AccountsDBAide.AddParameter(TEXT("@cbGroupID"),pModifyFriend->cbGroupID);

  000d4	6a 01		 push	 1
  000d6	8b 45 e4	 mov	 eax, DWORD PTR _pModifyFriend$[ebp]
  000d9	0f b6 48 2a	 movzx	 ecx, BYTE PTR [eax+42]
  000dd	51		 push	 ecx
  000de	68 00 00 00 00	 push	 OFFSET ??_C@_0L@BKCLAFLJ@?$EAcbGroupID@
  000e3	8b 4d e8	 mov	 ecx, DWORD PTR _this$[ebp]
  000e6	83 c1 04	 add	 ecx, 4
  000e9	ff 15 00 00 00
	00		 call	 DWORD PTR __imp_?AddParameter@CDataBaseAide@@QAEXPBDEW4ParameterDirectionEnum@ADOCG@@@Z

; 485  : 
; 486  : 		//变量定义
; 487  : 		TCHAR szDescribeString[128]=TEXT("");

  000ef	a0 00 00 00 00	 mov	 al, BYTE PTR ??_C@_00CNPNBAHC@@
  000f4	88 85 64 ff ff
	ff		 mov	 BYTE PTR _szDescribeString$7[ebp], al
  000fa	6a 7f		 push	 127			; 0000007fH
  000fc	6a 00		 push	 0
  000fe	8d 85 65 ff ff
	ff		 lea	 eax, DWORD PTR _szDescribeString$7[ebp+1]
  00104	50		 push	 eax
  00105	e8 00 00 00 00	 call	 _memset
  0010a	83 c4 0c	 add	 esp, 12			; 0000000cH

; 488  : 		m_AccountsDBAide.AddParameterOutput(TEXT("@strErrorDescribe"),szDescribeString,sizeof(szDescribeString),adParamOutput);

  0010d	6a 02		 push	 2
  0010f	68 80 00 00 00	 push	 128			; 00000080H
  00114	8d 85 64 ff ff
	ff		 lea	 eax, DWORD PTR _szDescribeString$7[ebp]
  0011a	50		 push	 eax
  0011b	68 00 00 00 00	 push	 OFFSET ??_C@_0BC@IIOJPJPJ@?$EAstrErrorDescribe@
  00120	8b 4d e8	 mov	 ecx, DWORD PTR _this$[ebp]
  00123	83 c1 04	 add	 ecx, 4
  00126	ff 15 00 00 00
	00		 call	 DWORD PTR __imp_?AddParameterOutput@CDataBaseAide@@QAEXPBDPADIW4ParameterDirectionEnum@ADOCG@@@Z

; 489  : 
; 490  : 		//执行查询
; 491  : 		LONG lResultCode=m_AccountsDBAide.ExecuteProcess(TEXT("GSP_GP_ModifyUserFriend"),true);

  0012c	6a 01		 push	 1
  0012e	68 00 00 00 00	 push	 OFFSET ??_C@_0BI@BCODNHPM@GSP_GP_ModifyUserFriend@
  00133	8b 4d e8	 mov	 ecx, DWORD PTR _this$[ebp]
  00136	83 c1 04	 add	 ecx, 4
  00139	ff 15 00 00 00
	00		 call	 DWORD PTR __imp_?ExecuteProcess@CDataBaseAide@@QAEJPBD_N@Z
  0013f	89 85 fc fe ff
	ff		 mov	 DWORD PTR tv194[ebp], eax
  00145	8b 85 fc fe ff
	ff		 mov	 eax, DWORD PTR tv194[ebp]
  0014b	89 85 60 ff ff
	ff		 mov	 DWORD PTR _lResultCode$6[ebp], eax

; 492  : 
; 493  : 		//变量定义
; 494  : 		DBO_GR_ModifyFriend ModifyFriend;
; 495  : 		ModifyFriend.dwUserID=pModifyFriend->dwUserID;

  00151	8b 45 e4	 mov	 eax, DWORD PTR _pModifyFriend$[ebp]
  00154	8b 08		 mov	 ecx, DWORD PTR [eax]
  00156	89 8d 54 ff ff
	ff		 mov	 DWORD PTR _ModifyFriend$5[ebp], ecx

; 496  : 		ModifyFriend.dwFriendUserID=pModifyFriend->dwFriendUserID;

  0015c	8b 45 e4	 mov	 eax, DWORD PTR _pModifyFriend$[ebp]
  0015f	8b 48 04	 mov	 ecx, DWORD PTR [eax+4]
  00162	89 8d 58 ff ff
	ff		 mov	 DWORD PTR _ModifyFriend$5[ebp+4], ecx

; 497  : 		ModifyFriend.bSuccessed=lResultCode==DB_SUCCESS;

  00168	83 bd 60 ff ff
	ff 00		 cmp	 DWORD PTR _lResultCode$6[ebp], 0
  0016f	75 0c		 jne	 SHORT $LN5@OnRequestM
  00171	c7 85 fc fe ff
	ff 01 00 00 00	 mov	 DWORD PTR tv157[ebp], 1
  0017b	eb 0a		 jmp	 SHORT $LN6@OnRequestM
$LN5@OnRequestM:
  0017d	c7 85 fc fe ff
	ff 00 00 00 00	 mov	 DWORD PTR tv157[ebp], 0
$LN6@OnRequestM:
  00187	8a 85 fc fe ff
	ff		 mov	 al, BYTE PTR tv157[ebp]
  0018d	88 85 5c ff ff
	ff		 mov	 BYTE PTR _ModifyFriend$5[ebp+8], al

; 498  : 		ModifyFriend.cbOperateKind=pModifyFriend->cbOperateKind;

  00193	8b 45 e4	 mov	 eax, DWORD PTR _pModifyFriend$[ebp]
  00196	8a 48 29	 mov	 cl, BYTE PTR [eax+41]
  00199	88 8d 5d ff ff
	ff		 mov	 BYTE PTR _ModifyFriend$5[ebp+9], cl

; 499  : 		ModifyFriend.cbGroupID=pModifyFriend->cbGroupID;

  0019f	8b 45 e4	 mov	 eax, DWORD PTR _pModifyFriend$[ebp]
  001a2	8a 48 2a	 mov	 cl, BYTE PTR [eax+42]
  001a5	88 8d 5e ff ff
	ff		 mov	 BYTE PTR _ModifyFriend$5[ebp+10], cl

; 500  : 
; 501  : 		//投递数据
; 502  : 		m_pIDataBaseEngineEvent->OnEventDataBaseResult(DBO_GR_MODIFY_FRIEND,dwContextID,&ModifyFriend,sizeof(ModifyFriend));

  001ab	6a 0c		 push	 12			; 0000000cH
  001ad	8d 85 54 ff ff
	ff		 lea	 eax, DWORD PTR _ModifyFriend$5[ebp]
  001b3	50		 push	 eax
  001b4	8b 4d 08	 mov	 ecx, DWORD PTR _dwContextID$[ebp]
  001b7	51		 push	 ecx
  001b8	68 95 01 00 00	 push	 405			; 00000195H
  001bd	8b 55 e8	 mov	 edx, DWORD PTR _this$[ebp]
  001c0	8b 45 e8	 mov	 eax, DWORD PTR _this$[ebp]
  001c3	8b 88 a8 05 00
	00		 mov	 ecx, DWORD PTR [eax+1448]
  001c9	8b 01		 mov	 eax, DWORD PTR [ecx]
  001cb	8b 8a a8 05 00
	00		 mov	 ecx, DWORD PTR [edx+1448]
  001d1	8b 50 08	 mov	 edx, DWORD PTR [eax+8]
  001d4	ff d2		 call	 edx

; 503  : 
; 504  : 		return true;

  001d6	b0 01		 mov	 al, 1
  001d8	e9 ad 00 00 00	 jmp	 $LN1@OnRequestM
__catch$?OnRequestModifyFriend@CDataBaseEngineSink@@IAE_NKPAXG@Z$0:

; 505  : 	}
; 506  : 	catch (IDataBaseException * pIException)
; 507  : 	{
; 508  : 		//输出错误
; 509  : 		CTraceService::TraceString(pIException->GetExceptionDescribe(),TraceLevel_Exception);

  001dd	6a 03		 push	 3
  001df	8b 85 50 ff ff
	ff		 mov	 eax, DWORD PTR _pIException$4[ebp]
  001e5	8b 10		 mov	 edx, DWORD PTR [eax]
  001e7	8b 8d 50 ff ff
	ff		 mov	 ecx, DWORD PTR _pIException$4[ebp]
  001ed	8b 42 0c	 mov	 eax, DWORD PTR [edx+12]
  001f0	ff d0		 call	 eax
  001f2	50		 push	 eax
  001f3	ff 15 00 00 00
	00		 call	 DWORD PTR __imp_?TraceString@CTraceService@@SA_NPBDW4enTraceLevel@@@Z
  001f9	83 c4 08	 add	 esp, 8

; 510  : 
; 511  : 		//变量定义
; 512  : 		DBO_GR_ModifyFriend ModifyFriend;
; 513  : 		ModifyFriend.dwUserID=pModifyFriend->dwUserID;

  001fc	8b 45 e4	 mov	 eax, DWORD PTR _pModifyFriend$[ebp]
  001ff	8b 08		 mov	 ecx, DWORD PTR [eax]
  00201	89 8d 44 ff ff
	ff		 mov	 DWORD PTR _ModifyFriend$3[ebp], ecx

; 514  : 		ModifyFriend.dwFriendUserID=pModifyFriend->dwFriendUserID;

  00207	8b 45 e4	 mov	 eax, DWORD PTR _pModifyFriend$[ebp]
  0020a	8b 48 04	 mov	 ecx, DWORD PTR [eax+4]
  0020d	89 8d 48 ff ff
	ff		 mov	 DWORD PTR _ModifyFriend$3[ebp+4], ecx

; 515  : 		ModifyFriend.bSuccessed=false;

  00213	c6 85 4c ff ff
	ff 00		 mov	 BYTE PTR _ModifyFriend$3[ebp+8], 0

; 516  : 		ModifyFriend.cbOperateKind=pModifyFriend->cbOperateKind;

  0021a	8b 45 e4	 mov	 eax, DWORD PTR _pModifyFriend$[ebp]
  0021d	8a 48 29	 mov	 cl, BYTE PTR [eax+41]
  00220	88 8d 4d ff ff
	ff		 mov	 BYTE PTR _ModifyFriend$3[ebp+9], cl

; 517  : 		ModifyFriend.cbGroupID=pModifyFriend->cbGroupID;

  00226	8b 45 e4	 mov	 eax, DWORD PTR _pModifyFriend$[ebp]
  00229	8a 48 2a	 mov	 cl, BYTE PTR [eax+42]
  0022c	88 8d 4e ff ff
	ff		 mov	 BYTE PTR _ModifyFriend$3[ebp+10], cl

; 518  : 
; 519  : 		//投递数据
