; Listing generated by Microsoft (R) Optimizing Compiler Version 19.16.27032.1 

	TITLE	G:\网狐\HappyGameWH\服务端\系统模块\服务器组件\聊天服务器\InitParameter.cpp
	.686P
	.XMM
	include listing.inc
	.model	flat

INCLUDELIB MSVCRTD
INCLUDELIB OLDNAMES

CONST	SEGMENT
?szPlatformDB@@3QBDB DB 'QPPlatformDB', 00H		; szPlatformDB
	ORG $+3
?szAccountsDB@@3QBDB DB 'QPAccountsDB', 00H		; szAccountsDB
	ORG $+3
?szTreasureDB@@3QBDB DB 'QPTreasureDB', 00H		; szTreasureDB
CONST	ENDS
PUBLIC	?__empty_global_delete@@YAXPAX@Z		; __empty_global_delete
PUBLIC	?__empty_global_delete@@YAXPAXI@Z		; __empty_global_delete
PUBLIC	___local_stdio_printf_options
PUBLIC	__vsnprintf_l
PUBLIC	__vsnprintf
PUBLIC	__snprintf
PUBLIC	??0CInitParameter@@QAE@XZ			; CInitParameter::CInitParameter
PUBLIC	??1CInitParameter@@UAE@XZ			; CInitParameter::~CInitParameter
PUBLIC	?InitParameter@CInitParameter@@QAEXXZ		; CInitParameter::InitParameter
PUBLIC	?LoadInitParameter@CInitParameter@@QAEXXZ	; CInitParameter::LoadInitParameter
PUBLIC	??_GCInitParameter@@UAEPAXI@Z			; CInitParameter::`scalar deleting destructor'
PUBLIC	?_OptionsStorage@?1??__local_stdio_printf_options@@9@4_KA ; `__local_stdio_printf_options'::`2'::_OptionsStorage
PUBLIC	??_C@_00CNPNBAHC@@				; `string'
PUBLIC	??_7CInitParameter@@6B@				; CInitParameter::`vftable'
PUBLIC	??_C@_0BH@GFNFOOOG@?$CFs?2ServerParameter?4ini@	; `string'
PUBLIC	??_C@_09CPKAHFKF@ServiceID@			; `string'
PUBLIC	??_C@_0L@KOLHEMGH@ChatServer@			; `string'
PUBLIC	??_C@_0M@DBIKHOMI@ServiceAddr@			; `string'
PUBLIC	??_C@_0M@PFPKDPLP@ServicePort@			; `string'
PUBLIC	??_C@_0M@PFPPHGEO@ServiceRule@			; `string'
PUBLIC	??_C@_09POAPIBJJ@MaxPlayer@			; `string'
PUBLIC	??_C@_08LIELPKNE@MinOrder@			; `string'
PUBLIC	??_C@_0L@EJMBPMDM@ServerInfo@			; `string'
PUBLIC	??_C@_0L@EGGJEAIA@Correspond@			; `string'
PUBLIC	??_C@_0P@DFEDGGJF@CorrespondAddr@		; `string'
PUBLIC	??_C@_06NHDHPCNO@DBPort@			; `string'
PUBLIC	??_C@_0L@JJOBOIHJ@AccountsDB@			; `string'
PUBLIC	??_C@_09PFCHIMEP@127?40?40?41@			; `string'
PUBLIC	??_C@_06BDEHLDKJ@DBAddr@			; `string'
PUBLIC	??_C@_02CKOPKKAC@sa@				; `string'
PUBLIC	??_C@_06EKCLIHPK@DBUser@			; `string'
PUBLIC	??_C@_06PPNIIDOF@people@			; `string'
PUBLIC	??_C@_06HJGLHJBN@DBPass@			; `string'
PUBLIC	??_C@_06KMJLGLFD@DBName@			; `string'
PUBLIC	??_C@_0L@BIEPDLBP@TreasureDB@			; `string'
PUBLIC	??_C@_0L@KKFJCNPO@PlatformDB@			; `string'
PUBLIC	??_C@_0N@CGMNGOGI@QPPlatformDB@			; `string'
PUBLIC	??_C@_0P@CEKHAJBO@PlatformDBItem@		; `string'
PUBLIC	??_C@_0M@NDLIHBHJ@LogonServer@			; `string'
PUBLIC	??_C@_0P@DHIKKJBD@PlatformDBName@		; `string'
PUBLIC	??_C@_0BC@NKBDIJIA@?$CFs?2ChatServer?4ini@	; `string'
PUBLIC	??_C@_08DFKPLDPN@Distance@			; `string'
PUBLIC	??_R4CInitParameter@@6B@			; CInitParameter::`RTTI Complete Object Locator'
PUBLIC	??_R0?AVCInitParameter@@@8			; CInitParameter `RTTI Type Descriptor'
PUBLIC	??_R3CInitParameter@@8				; CInitParameter::`RTTI Class Hierarchy Descriptor'
PUBLIC	??_R2CInitParameter@@8				; CInitParameter::`RTTI Base Class Array'
PUBLIC	??_R1A@?0A@EA@CInitParameter@@8			; CInitParameter::`RTTI Base Class Descriptor at (0,-1,0,64)'
EXTRN	??3@YAXPAXI@Z:PROC				; operator delete
EXTRN	_memset:PROC
EXTRN	__imp____stdio_common_vsprintf:PROC
EXTRN	__imp_?GetWorkDirectory@CWHService@@SA_NQADG@Z:PROC
EXTRN	__imp_??0CWHIniData@@QAE@XZ:PROC
EXTRN	__imp_??1CWHIniData@@UAE@XZ:PROC
EXTRN	__imp_?SetIniFilePath@CWHIniData@@QAEXPBD@Z:PROC
EXTRN	__imp_?ReadInt@CWHIniData@@QAEIPBD0H@Z:PROC
EXTRN	__imp_?ReadString@CWHIniData@@QAEPBDPBD00PADG@Z:PROC
EXTRN	__imp_?ReadEncryptString@CWHIniData@@QAEPBDPBD00PADG@Z:PROC
EXTRN	??_ECInitParameter@@UAEPAXI@Z:PROC		; CInitParameter::`vector deleting destructor'
EXTRN	@__security_check_cookie@4:PROC
EXTRN	___CxxFrameHandler3:PROC
EXTRN	_memset:PROC
EXTRN	??_7type_info@@6B@:QWORD			; type_info::`vftable'
EXTRN	___security_cookie:DWORD
;	COMDAT ?_OptionsStorage@?1??__local_stdio_printf_options@@9@4_KA
_BSS	SEGMENT
?_OptionsStorage@?1??__local_stdio_printf_options@@9@4_KA DQ 01H DUP (?) ; `__local_stdio_printf_options'::`2'::_OptionsStorage
_BSS	ENDS
;	COMDAT ??_R1A@?0A@EA@CInitParameter@@8
rdata$r	SEGMENT
??_R1A@?0A@EA@CInitParameter@@8 DD FLAT:??_R0?AVCInitParameter@@@8 ; CInitParameter::`RTTI Base Class Descriptor at (0,-1,0,64)'
	DD	00H
	DD	00H
	DD	0ffffffffH
	DD	00H
	DD	040H
	DD	FLAT:??_R3CInitParameter@@8
rdata$r	ENDS
;	COMDAT ??_R2CInitParameter@@8
rdata$r	SEGMENT
??_R2CInitParameter@@8 DD FLAT:??_R1A@?0A@EA@CInitParameter@@8 ; CInitParameter::`RTTI Base Class Array'
rdata$r	ENDS
;	COMDAT ??_R3CInitParameter@@8
rdata$r	SEGMENT
??_R3CInitParameter@@8 DD 00H				; CInitParameter::`RTTI Class Hierarchy Descriptor'
	DD	00H
	DD	01H
	DD	FLAT:??_R2CInitParameter@@8
rdata$r	ENDS
;	COMDAT ??_R0?AVCInitParameter@@@8
data$r	SEGMENT
??_R0?AVCInitParameter@@@8 DD FLAT:??_7type_info@@6B@	; CInitParameter `RTTI Type Descriptor'
	DD	00H
	DB	'.?AVCInitParameter@@', 00H
data$r	ENDS
;	COMDAT ??_R4CInitParameter@@6B@
rdata$r	SEGMENT
??_R4CInitParameter@@6B@ DD 00H				; CInitParameter::`RTTI Complete Object Locator'
	DD	00H
	DD	00H
	DD	FLAT:??_R0?AVCInitParameter@@@8
	DD	FLAT:??_R3CInitParameter@@8
rdata$r	ENDS
;	COMDAT ??_C@_08DFKPLDPN@Distance@
CONST	SEGMENT
??_C@_08DFKPLDPN@Distance@ DB 'Distance', 00H		; `string'
CONST	ENDS
;	COMDAT ??_C@_0BC@NKBDIJIA@?$CFs?2ChatServer?4ini@
CONST	SEGMENT
??_C@_0BC@NKBDIJIA@?$CFs?2ChatServer?4ini@ DB '%s\ChatServer.ini', 00H ; `string'
CONST	ENDS
;	COMDAT ??_C@_0P@DHIKKJBD@PlatformDBName@
CONST	SEGMENT
??_C@_0P@DHIKKJBD@PlatformDBName@ DB 'PlatformDBName', 00H ; `string'
CONST	ENDS
;	COMDAT ??_C@_0M@NDLIHBHJ@LogonServer@
CONST	SEGMENT
??_C@_0M@NDLIHBHJ@LogonServer@ DB 'LogonServer', 00H	; `string'
CONST	ENDS
;	COMDAT ??_C@_0P@CEKHAJBO@PlatformDBItem@
CONST	SEGMENT
??_C@_0P@CEKHAJBO@PlatformDBItem@ DB 'PlatformDBItem', 00H ; `string'
CONST	ENDS
;	COMDAT ??_C@_0N@CGMNGOGI@QPPlatformDB@
CONST	SEGMENT
??_C@_0N@CGMNGOGI@QPPlatformDB@ DB 'QPPlatformDB', 00H	; `string'
CONST	ENDS
;	COMDAT ??_C@_0L@KKFJCNPO@PlatformDB@
CONST	SEGMENT
??_C@_0L@KKFJCNPO@PlatformDB@ DB 'PlatformDB', 00H	; `string'
CONST	ENDS
;	COMDAT ??_C@_0L@BIEPDLBP@TreasureDB@
CONST	SEGMENT
??_C@_0L@BIEPDLBP@TreasureDB@ DB 'TreasureDB', 00H	; `string'
CONST	ENDS
;	COMDAT ??_C@_06KMJLGLFD@DBName@
CONST	SEGMENT
??_C@_06KMJLGLFD@DBName@ DB 'DBName', 00H		; `string'
CONST	ENDS
;	COMDAT ??_C@_06HJGLHJBN@DBPass@
CONST	SEGMENT
??_C@_06HJGLHJBN@DBPass@ DB 'DBPass', 00H		; `string'
CONST	ENDS
;	COMDAT ??_C@_06PPNIIDOF@people@
CONST	SEGMENT
??_C@_06PPNIIDOF@people@ DB 'people', 00H		; `string'
CONST	ENDS
;	COMDAT ??_C@_06EKCLIHPK@DBUser@
CONST	SEGMENT
??_C@_06EKCLIHPK@DBUser@ DB 'DBUser', 00H		; `string'
CONST	ENDS
;	COMDAT ??_C@_02CKOPKKAC@sa@
CONST	SEGMENT
??_C@_02CKOPKKAC@sa@ DB 'sa', 00H			; `string'
CONST	ENDS
;	COMDAT ??_C@_06BDEHLDKJ@DBAddr@
CONST	SEGMENT
??_C@_06BDEHLDKJ@DBAddr@ DB 'DBAddr', 00H		; `string'
CONST	ENDS
;	COMDAT ??_C@_09PFCHIMEP@127?40?40?41@
CONST	SEGMENT
??_C@_09PFCHIMEP@127?40?40?41@ DB '127.0.0.1', 00H	; `string'
CONST	ENDS
;	COMDAT ??_C@_0L@JJOBOIHJ@AccountsDB@
CONST	SEGMENT
??_C@_0L@JJOBOIHJ@AccountsDB@ DB 'AccountsDB', 00H	; `string'
CONST	ENDS
;	COMDAT ??_C@_06NHDHPCNO@DBPort@
CONST	SEGMENT
??_C@_06NHDHPCNO@DBPort@ DB 'DBPort', 00H		; `string'
CONST	ENDS
;	COMDAT ??_C@_0P@DFEDGGJF@CorrespondAddr@
CONST	SEGMENT
??_C@_0P@DFEDGGJF@CorrespondAddr@ DB 'CorrespondAddr', 00H ; `string'
CONST	ENDS
;	COMDAT ??_C@_0L@EGGJEAIA@Correspond@
CONST	SEGMENT
??_C@_0L@EGGJEAIA@Correspond@ DB 'Correspond', 00H	; `string'
CONST	ENDS
;	COMDAT ??_C@_0L@EJMBPMDM@ServerInfo@
CONST	SEGMENT
??_C@_0L@EJMBPMDM@ServerInfo@ DB 'ServerInfo', 00H	; `string'
CONST	ENDS
;	COMDAT ??_C@_08LIELPKNE@MinOrder@
CONST	SEGMENT
??_C@_08LIELPKNE@MinOrder@ DB 'MinOrder', 00H		; `string'
CONST	ENDS
;	COMDAT ??_C@_09POAPIBJJ@MaxPlayer@
CONST	SEGMENT
??_C@_09POAPIBJJ@MaxPlayer@ DB 'MaxPlayer', 00H		; `string'
CONST	ENDS
;	COMDAT ??_C@_0M@PFPPHGEO@ServiceRule@
CONST	SEGMENT
??_C@_0M@PFPPHGEO@ServiceRule@ DB 'ServiceRule', 00H	; `string'
CONST	ENDS
;	COMDAT ??_C@_0M@PFPKDPLP@ServicePort@
CONST	SEGMENT
??_C@_0M@PFPKDPLP@ServicePort@ DB 'ServicePort', 00H	; `string'
CONST	ENDS
;	COMDAT ??_C@_0M@DBIKHOMI@ServiceAddr@
CONST	SEGMENT
??_C@_0M@DBIKHOMI@ServiceAddr@ DB 'ServiceAddr', 00H	; `string'
CONST	ENDS
;	COMDAT ??_C@_0L@KOLHEMGH@ChatServer@
CONST	SEGMENT
??_C@_0L@KOLHEMGH@ChatServer@ DB 'ChatServer', 00H	; `string'
CONST	ENDS
;	COMDAT ??_C@_09CPKAHFKF@ServiceID@
CONST	SEGMENT
??_C@_09CPKAHFKF@ServiceID@ DB 'ServiceID', 00H		; `string'
CONST	ENDS
;	COMDAT ??_C@_0BH@GFNFOOOG@?$CFs?2ServerParameter?4ini@
CONST	SEGMENT
??_C@_0BH@GFNFOOOG@?$CFs?2ServerParameter?4ini@ DB '%s\ServerParameter.in'
	DB	'i', 00H					; `string'
CONST	ENDS
;	COMDAT ??_7CInitParameter@@6B@
CONST	SEGMENT
??_7CInitParameter@@6B@ DD FLAT:??_R4CInitParameter@@6B@ ; CInitParameter::`vftable'
	DD	FLAT:??_ECInitParameter@@UAEPAXI@Z
CONST	ENDS
;	COMDAT ??_C@_00CNPNBAHC@@
CONST	SEGMENT
??_C@_00CNPNBAHC@@ DB 00H				; `string'
CONST	ENDS
;	COMDAT xdata$x
xdata$x	SEGMENT
__unwindtable$?LoadInitParameter@CInitParameter@@QAEXXZ DD 0ffffffffH
	DD	FLAT:__unwindfunclet$?LoadInitParameter@CInitParameter@@QAEXXZ$0
	DD	00H
	DD	FLAT:__unwindfunclet$?LoadInitParameter@CInitParameter@@QAEXXZ$1
__ehfuncinfo$?LoadInitParameter@CInitParameter@@QAEXXZ DD 019930522H
	DD	02H
	DD	FLAT:__unwindtable$?LoadInitParameter@CInitParameter@@QAEXXZ
	DD	2 DUP(00H)
	DD	2 DUP(00H)
	DD	00H
	DD	01H
xdata$x	ENDS
; Function compile flags: /Odtp /ZI
;	COMDAT ??_GCInitParameter@@UAEPAXI@Z
_TEXT	SEGMENT
_this$ = -4						; size = 4
___flags$ = 8						; size = 4
??_GCInitParameter@@UAEPAXI@Z PROC			; CInitParameter::`scalar deleting destructor', COMDAT
; _this$ = ecx
  00000	55		 push	 ebp
  00001	8b ec		 mov	 ebp, esp
  00003	83 ec 44	 sub	 esp, 68			; 00000044H
  00006	53		 push	 ebx
  00007	56		 push	 esi
  00008	57		 push	 edi
  00009	89 4d fc	 mov	 DWORD PTR _this$[ebp], ecx
  0000c	8b 4d fc	 mov	 ecx, DWORD PTR _this$[ebp]
  0000f	e8 00 00 00 00	 call	 ??1CInitParameter@@UAE@XZ ; CInitParameter::~CInitParameter
  00014	8b 45 08	 mov	 eax, DWORD PTR ___flags$[ebp]
  00017	83 e0 01	 and	 eax, 1
  0001a	74 11		 je	 SHORT $LN2@scalar
  0001c	68 e4 01 00 00	 push	 484			; 000001e4H
  00021	8b 45 fc	 mov	 eax, DWORD PTR _this$[ebp]
  00024	50		 push	 eax
  00025	e8 00 00 00 00	 call	 ??3@YAXPAXI@Z		; operator delete
  0002a	83 c4 08	 add	 esp, 8
$LN2@scalar:
  0002d	8b 45 fc	 mov	 eax, DWORD PTR _this$[ebp]
  00030	5f		 pop	 edi
  00031	5e		 pop	 esi
  00032	5b		 pop	 ebx
  00033	8b e5		 mov	 esp, ebp
  00035	5d		 pop	 ebp
  00036	c2 04 00	 ret	 4
??_GCInitParameter@@UAEPAXI@Z ENDP			; CInitParameter::`scalar deleting destructor'
_TEXT	ENDS
; Function compile flags: /Odtp /ZI
; File g:\网狐\happygamewh\服务端\系统模块\服务器组件\聊天服务器\initparameter.cpp
;	COMDAT ?LoadInitParameter@CInitParameter@@QAEXXZ
_TEXT	SEGMENT
_IniDataChat$ = -1392					; size = 264
_szIniFileChat$ = -1128					; size = 260
_szPlatformDBName$ = -868				; size = 32
_szPlatformDBItem$ = -836				; size = 32
_IniData$ = -804					; size = 264
_szIniFile$ = -540					; size = 260
_szWorkDir$ = -280					; size = 260
_this$ = -20						; size = 4
__$ArrayPad$ = -16					; size = 4
__$EHRec$ = -12						; size = 12
?LoadInitParameter@CInitParameter@@QAEXXZ PROC		; CInitParameter::LoadInitParameter, COMDAT
; _this$ = ecx

; 58   : {

  00000	55		 push	 ebp
  00001	8b ec		 mov	 ebp, esp
  00003	6a ff		 push	 -1
  00005	68 00 00 00 00	 push	 __ehhandler$?LoadInitParameter@CInitParameter@@QAEXXZ
  0000a	64 a1 00 00 00
	00		 mov	 eax, DWORD PTR fs:0
  00010	50		 push	 eax
  00011	81 ec 24 06 00
	00		 sub	 esp, 1572		; 00000624H
  00017	a1 00 00 00 00	 mov	 eax, DWORD PTR ___security_cookie
  0001c	33 c5		 xor	 eax, ebp
  0001e	89 45 f0	 mov	 DWORD PTR __$ArrayPad$[ebp], eax
  00021	53		 push	 ebx
  00022	56		 push	 esi
  00023	57		 push	 edi
  00024	50		 push	 eax
  00025	8d 45 f4	 lea	 eax, DWORD PTR __$EHRec$[ebp]
  00028	64 a3 00 00 00
	00		 mov	 DWORD PTR fs:0, eax
  0002e	89 4d ec	 mov	 DWORD PTR _this$[ebp], ecx

; 59   : 	//重置参数
; 60   : 	InitParameter();

  00031	8b 4d ec	 mov	 ecx, DWORD PTR _this$[ebp]
  00034	e8 00 00 00 00	 call	 ?InitParameter@CInitParameter@@QAEXXZ ; CInitParameter::InitParameter

; 61   : 
; 62   : 	//获取路径
; 63   : 	TCHAR szWorkDir[MAX_PATH]=TEXT("");

  00039	a0 00 00 00 00	 mov	 al, BYTE PTR ??_C@_00CNPNBAHC@@
  0003e	88 85 e8 fe ff
	ff		 mov	 BYTE PTR _szWorkDir$[ebp], al
  00044	68 03 01 00 00	 push	 259			; 00000103H
  00049	6a 00		 push	 0
  0004b	8d 85 e9 fe ff
	ff		 lea	 eax, DWORD PTR _szWorkDir$[ebp+1]
  00051	50		 push	 eax
  00052	e8 00 00 00 00	 call	 _memset
  00057	83 c4 0c	 add	 esp, 12			; 0000000cH

; 64   : 	CWHService::GetWorkDirectory(szWorkDir,CountArray(szWorkDir));

  0005a	68 04 01 00 00	 push	 260			; 00000104H
  0005f	8d 85 e8 fe ff
	ff		 lea	 eax, DWORD PTR _szWorkDir$[ebp]
  00065	50		 push	 eax
  00066	ff 15 00 00 00
	00		 call	 DWORD PTR __imp_?GetWorkDirectory@CWHService@@SA_NQADG@Z
  0006c	83 c4 08	 add	 esp, 8

; 65   : 
; 66   : 	//构造路径
; 67   : 	TCHAR szIniFile[MAX_PATH]=TEXT("");

  0006f	a0 00 00 00 00	 mov	 al, BYTE PTR ??_C@_00CNPNBAHC@@
  00074	88 85 e4 fd ff
	ff		 mov	 BYTE PTR _szIniFile$[ebp], al
  0007a	68 03 01 00 00	 push	 259			; 00000103H
  0007f	6a 00		 push	 0
  00081	8d 85 e5 fd ff
	ff		 lea	 eax, DWORD PTR _szIniFile$[ebp+1]
  00087	50		 push	 eax
  00088	e8 00 00 00 00	 call	 _memset
  0008d	83 c4 0c	 add	 esp, 12			; 0000000cH

; 68   : 	_sntprintf(szIniFile,CountArray(szIniFile),TEXT("%s\\ServerParameter.ini"),szWorkDir);

  00090	8d 85 e8 fe ff
	ff		 lea	 eax, DWORD PTR _szWorkDir$[ebp]
  00096	50		 push	 eax
  00097	68 00 00 00 00	 push	 OFFSET ??_C@_0BH@GFNFOOOG@?$CFs?2ServerParameter?4ini@
  0009c	68 04 01 00 00	 push	 260			; 00000104H
  000a1	8d 8d e4 fd ff
	ff		 lea	 ecx, DWORD PTR _szIniFile$[ebp]
  000a7	51		 push	 ecx
  000a8	e8 00 00 00 00	 call	 __snprintf
  000ad	83 c4 10	 add	 esp, 16			; 00000010H

; 69   : 
; 70   : 	//读取配置
; 71   : 	CWHIniData IniData;

  000b0	8d 8d dc fc ff
	ff		 lea	 ecx, DWORD PTR _IniData$[ebp]
  000b6	ff 15 00 00 00
	00		 call	 DWORD PTR __imp_??0CWHIniData@@QAE@XZ
  000bc	c7 45 fc 00 00
	00 00		 mov	 DWORD PTR __$EHRec$[ebp+8], 0

; 72   : 	IniData.SetIniFilePath(szIniFile);

  000c3	8d 85 e4 fd ff
	ff		 lea	 eax, DWORD PTR _szIniFile$[ebp]
  000c9	50		 push	 eax
  000ca	8d 8d dc fc ff
	ff		 lea	 ecx, DWORD PTR _IniData$[ebp]
  000d0	ff 15 00 00 00
	00		 call	 DWORD PTR __imp_?SetIniFilePath@CWHIniData@@QAEXPBD@Z

; 73   : 
; 74   : 	//读取配置
; 75   : 	m_wServiceID=IniData.ReadInt(TEXT("ChatServer"),TEXT("ServiceID"),0);

  000d6	6a 00		 push	 0
  000d8	68 00 00 00 00	 push	 OFFSET ??_C@_09CPKAHFKF@ServiceID@
  000dd	68 00 00 00 00	 push	 OFFSET ??_C@_0L@KOLHEMGH@ChatServer@
  000e2	8d 8d dc fc ff
	ff		 lea	 ecx, DWORD PTR _IniData$[ebp]
  000e8	ff 15 00 00 00
	00		 call	 DWORD PTR __imp_?ReadInt@CWHIniData@@QAEIPBD0H@Z
  000ee	8b 4d ec	 mov	 ecx, DWORD PTR _this$[ebp]
  000f1	66 89 41 08	 mov	 WORD PTR [ecx+8], ax

; 76   : 	m_dwServiceAddr=IniData.ReadInt(TEXT("ChatServer"),TEXT("ServiceAddr"),ADDR_ANY);

  000f5	6a 00		 push	 0
  000f7	68 00 00 00 00	 push	 OFFSET ??_C@_0M@DBIKHOMI@ServiceAddr@
  000fc	68 00 00 00 00	 push	 OFFSET ??_C@_0L@KOLHEMGH@ChatServer@
  00101	8d 8d dc fc ff
	ff		 lea	 ecx, DWORD PTR _IniData$[ebp]
  00107	ff 15 00 00 00
	00		 call	 DWORD PTR __imp_?ReadInt@CWHIniData@@QAEIPBD0H@Z
  0010d	8b 4d ec	 mov	 ecx, DWORD PTR _this$[ebp]
  00110	89 41 0c	 mov	 DWORD PTR [ecx+12], eax

; 77   : 	m_wServicePort=IniData.ReadInt(TEXT("ChatServer"),TEXT("ServicePort"),m_wServicePort);

  00113	8b 45 ec	 mov	 eax, DWORD PTR _this$[ebp]
  00116	0f b7 48 0a	 movzx	 ecx, WORD PTR [eax+10]
  0011a	51		 push	 ecx
  0011b	68 00 00 00 00	 push	 OFFSET ??_C@_0M@PFPKDPLP@ServicePort@
  00120	68 00 00 00 00	 push	 OFFSET ??_C@_0L@KOLHEMGH@ChatServer@
  00125	8d 8d dc fc ff
	ff		 lea	 ecx, DWORD PTR _IniData$[ebp]
  0012b	ff 15 00 00 00
	00		 call	 DWORD PTR __imp_?ReadInt@CWHIniData@@QAEIPBD0H@Z
  00131	8b 55 ec	 mov	 edx, DWORD PTR _this$[ebp]
  00134	66 89 42 0a	 mov	 WORD PTR [edx+10], ax

; 78   : 	m_dwServiceRule=IniData.ReadInt(TEXT("ChatServer"),TEXT("ServiceRule"),m_dwServiceRule);

  00138	8b 45 ec	 mov	 eax, DWORD PTR _this$[ebp]
  0013b	8b 48 10	 mov	 ecx, DWORD PTR [eax+16]
  0013e	51		 push	 ecx
  0013f	68 00 00 00 00	 push	 OFFSET ??_C@_0M@PFPPHGEO@ServiceRule@
  00144	68 00 00 00 00	 push	 OFFSET ??_C@_0L@KOLHEMGH@ChatServer@
  00149	8d 8d dc fc ff
	ff		 lea	 ecx, DWORD PTR _IniData$[ebp]
  0014f	ff 15 00 00 00
	00		 call	 DWORD PTR __imp_?ReadInt@CWHIniData@@QAEIPBD0H@Z
  00155	8b 55 ec	 mov	 edx, DWORD PTR _this$[ebp]
  00158	89 42 10	 mov	 DWORD PTR [edx+16], eax

; 79   : 	m_wMaxPlayer=IniData.ReadInt(TEXT("ChatServer"),TEXT("MaxPlayer"),m_wMaxPlayer);

  0015b	8b 45 ec	 mov	 eax, DWORD PTR _this$[ebp]
  0015e	0f b7 48 14	 movzx	 ecx, WORD PTR [eax+20]
  00162	51		 push	 ecx
  00163	68 00 00 00 00	 push	 OFFSET ??_C@_09POAPIBJJ@MaxPlayer@
  00168	68 00 00 00 00	 push	 OFFSET ??_C@_0L@KOLHEMGH@ChatServer@
  0016d	8d 8d dc fc ff
	ff		 lea	 ecx, DWORD PTR _IniData$[ebp]
  00173	ff 15 00 00 00
	00		 call	 DWORD PTR __imp_?ReadInt@CWHIniData@@QAEIPBD0H@Z
  00179	8b 55 ec	 mov	 edx, DWORD PTR _this$[ebp]
  0017c	66 89 42 14	 mov	 WORD PTR [edx+20], ax

; 80   : 	m_cbMinOrder=IniData.ReadInt(TEXT("ChatServer"),TEXT("MinOrder"),m_cbMinOrder);

  00180	8b 45 ec	 mov	 eax, DWORD PTR _this$[ebp]
  00183	0f b6 48 16	 movzx	 ecx, BYTE PTR [eax+22]
  00187	51		 push	 ecx
  00188	68 00 00 00 00	 push	 OFFSET ??_C@_08LIELPKNE@MinOrder@
  0018d	68 00 00 00 00	 push	 OFFSET ??_C@_0L@KOLHEMGH@ChatServer@
  00192	8d 8d dc fc ff
	ff		 lea	 ecx, DWORD PTR _IniData$[ebp]
  00198	ff 15 00 00 00
	00		 call	 DWORD PTR __imp_?ReadInt@CWHIniData@@QAEIPBD0H@Z
  0019e	8b 55 ec	 mov	 edx, DWORD PTR _this$[ebp]
  001a1	88 42 16	 mov	 BYTE PTR [edx+22], al

; 81   : 
; 82   : 	IniData.ReadEncryptString(TEXT("ServerInfo"),TEXT("ServiceAddr"),NULL,m_ServiceAddress.szAddress,CountArray(m_ServiceAddress.szAddress));

  001a4	6a 20		 push	 32			; 00000020H
  001a6	8b 45 ec	 mov	 eax, DWORD PTR _this$[ebp]
  001a9	83 c0 3e	 add	 eax, 62			; 0000003eH
  001ac	50		 push	 eax
  001ad	6a 00		 push	 0
  001af	68 00 00 00 00	 push	 OFFSET ??_C@_0M@DBIKHOMI@ServiceAddr@
  001b4	68 00 00 00 00	 push	 OFFSET ??_C@_0L@EJMBPMDM@ServerInfo@
  001b9	8d 8d dc fc ff
	ff		 lea	 ecx, DWORD PTR _IniData$[ebp]
  001bf	ff 15 00 00 00
	00		 call	 DWORD PTR __imp_?ReadEncryptString@CWHIniData@@QAEPBDPBD00PADG@Z

; 83   : 
; 84   : 	//协调信息
; 85   : 	m_wCorrespondPort=IniData.ReadInt(TEXT("Correspond"),TEXT("ServicePort"),m_wCorrespondPort);

  001c5	8b 45 ec	 mov	 eax, DWORD PTR _this$[ebp]
  001c8	0f b7 48 1c	 movzx	 ecx, WORD PTR [eax+28]
  001cc	51		 push	 ecx
  001cd	68 00 00 00 00	 push	 OFFSET ??_C@_0M@PFPKDPLP@ServicePort@
  001d2	68 00 00 00 00	 push	 OFFSET ??_C@_0L@EGGJEAIA@Correspond@
  001d7	8d 8d dc fc ff
	ff		 lea	 ecx, DWORD PTR _IniData$[ebp]
  001dd	ff 15 00 00 00
	00		 call	 DWORD PTR __imp_?ReadInt@CWHIniData@@QAEIPBD0H@Z
  001e3	8b 55 ec	 mov	 edx, DWORD PTR _this$[ebp]
  001e6	66 89 42 1c	 mov	 WORD PTR [edx+28], ax

; 86   : 	IniData.ReadEncryptString(TEXT("ServerInfo"),TEXT("CorrespondAddr"),NULL,m_CorrespondAddress.szAddress,CountArray(m_CorrespondAddress.szAddress));

  001ea	6a 20		 push	 32			; 00000020H
  001ec	8b 45 ec	 mov	 eax, DWORD PTR _this$[ebp]
  001ef	83 c0 1e	 add	 eax, 30			; 0000001eH
  001f2	50		 push	 eax
  001f3	6a 00		 push	 0
  001f5	68 00 00 00 00	 push	 OFFSET ??_C@_0P@DFEDGGJF@CorrespondAddr@
  001fa	68 00 00 00 00	 push	 OFFSET ??_C@_0L@EJMBPMDM@ServerInfo@
  001ff	8d 8d dc fc ff
	ff		 lea	 ecx, DWORD PTR _IniData$[ebp]
  00205	ff 15 00 00 00
	00		 call	 DWORD PTR __imp_?ReadEncryptString@CWHIniData@@QAEPBDPBD00PADG@Z

; 87   : 
; 88   : 	//连接信息
; 89   : 	m_AccountsDBParameter.wDataBasePort=(WORD)IniData.ReadInt(TEXT("AccountsDB"),TEXT("DBPort"),1433);

  0020b	68 99 05 00 00	 push	 1433			; 00000599H
  00210	68 00 00 00 00	 push	 OFFSET ??_C@_06NHDHPCNO@DBPort@
  00215	68 00 00 00 00	 push	 OFFSET ??_C@_0L@JJOBOIHJ@AccountsDB@
  0021a	8d 8d dc fc ff
	ff		 lea	 ecx, DWORD PTR _IniData$[ebp]
  00220	ff 15 00 00 00
	00		 call	 DWORD PTR __imp_?ReadInt@CWHIniData@@QAEIPBD0H@Z
  00226	8b 4d ec	 mov	 ecx, DWORD PTR _this$[ebp]
  00229	66 89 41 5e	 mov	 WORD PTR [ecx+94], ax

; 90   : 	IniData.ReadEncryptString(TEXT("AccountsDB"), TEXT("DBAddr"), TEXT("127.0.0.1"), m_AccountsDBParameter.szDataBaseAddr, CountArray(m_AccountsDBParameter.szDataBaseAddr));

  0022d	6a 20		 push	 32			; 00000020H
  0022f	8b 45 ec	 mov	 eax, DWORD PTR _this$[ebp]
  00232	83 c0 60	 add	 eax, 96			; 00000060H
  00235	50		 push	 eax
  00236	68 00 00 00 00	 push	 OFFSET ??_C@_09PFCHIMEP@127?40?40?41@
  0023b	68 00 00 00 00	 push	 OFFSET ??_C@_06BDEHLDKJ@DBAddr@
  00240	68 00 00 00 00	 push	 OFFSET ??_C@_0L@JJOBOIHJ@AccountsDB@
  00245	8d 8d dc fc ff
	ff		 lea	 ecx, DWORD PTR _IniData$[ebp]
  0024b	ff 15 00 00 00
	00		 call	 DWORD PTR __imp_?ReadEncryptString@CWHIniData@@QAEPBDPBD00PADG@Z

; 91   : 	IniData.ReadEncryptString(TEXT("AccountsDB"), TEXT("DBUser"), TEXT("sa"), m_AccountsDBParameter.szDataBaseUser, CountArray(m_AccountsDBParameter.szDataBaseUser));

  00251	6a 20		 push	 32			; 00000020H
  00253	8b 45 ec	 mov	 eax, DWORD PTR _this$[ebp]
  00256	05 80 00 00 00	 add	 eax, 128		; 00000080H
  0025b	50		 push	 eax
  0025c	68 00 00 00 00	 push	 OFFSET ??_C@_02CKOPKKAC@sa@
  00261	68 00 00 00 00	 push	 OFFSET ??_C@_06EKCLIHPK@DBUser@
  00266	68 00 00 00 00	 push	 OFFSET ??_C@_0L@JJOBOIHJ@AccountsDB@
  0026b	8d 8d dc fc ff
	ff		 lea	 ecx, DWORD PTR _IniData$[ebp]
  00271	ff 15 00 00 00
	00		 call	 DWORD PTR __imp_?ReadEncryptString@CWHIniData@@QAEPBDPBD00PADG@Z

; 92   : 	IniData.ReadEncryptString(TEXT("AccountsDB"), TEXT("DBPass"), TEXT("people"), m_AccountsDBParameter.szDataBasePass, CountArray(m_AccountsDBParameter.szDataBasePass));

  00277	6a 20		 push	 32			; 00000020H
  00279	8b 45 ec	 mov	 eax, DWORD PTR _this$[ebp]
  0027c	05 a0 00 00 00	 add	 eax, 160		; 000000a0H
  00281	50		 push	 eax
  00282	68 00 00 00 00	 push	 OFFSET ??_C@_06PPNIIDOF@people@
  00287	68 00 00 00 00	 push	 OFFSET ??_C@_06HJGLHJBN@DBPass@
  0028c	68 00 00 00 00	 push	 OFFSET ??_C@_0L@JJOBOIHJ@AccountsDB@
  00291	8d 8d dc fc ff
	ff		 lea	 ecx, DWORD PTR _IniData$[ebp]
  00297	ff 15 00 00 00
	00		 call	 DWORD PTR __imp_?ReadEncryptString@CWHIniData@@QAEPBDPBD00PADG@Z

; 93   : 	IniData.ReadEncryptString(TEXT("AccountsDB"),TEXT("DBName"),szAccountsDB,m_AccountsDBParameter.szDataBaseName,CountArray(m_AccountsDBParameter.szDataBaseName));

  0029d	6a 20		 push	 32			; 00000020H
  0029f	8b 45 ec	 mov	 eax, DWORD PTR _this$[ebp]
  002a2	05 c0 00 00 00	 add	 eax, 192		; 000000c0H
  002a7	50		 push	 eax
  002a8	68 00 00 00 00	 push	 OFFSET ?szAccountsDB@@3QBDB
  002ad	68 00 00 00 00	 push	 OFFSET ??_C@_06KMJLGLFD@DBName@
  002b2	68 00 00 00 00	 push	 OFFSET ??_C@_0L@JJOBOIHJ@AccountsDB@
  002b7	8d 8d dc fc ff
	ff		 lea	 ecx, DWORD PTR _IniData$[ebp]
  002bd	ff 15 00 00 00
	00		 call	 DWORD PTR __imp_?ReadEncryptString@CWHIniData@@QAEPBDPBD00PADG@Z

; 94   : 
; 95   : 	//连接信息
; 96   : 	m_TreasureDBParameter.wDataBasePort=(WORD)IniData.ReadInt(TEXT("TreasureDB"),TEXT("DBPort"),1433);

  002c3	68 99 05 00 00	 push	 1433			; 00000599H
  002c8	68 00 00 00 00	 push	 OFFSET ??_C@_06NHDHPCNO@DBPort@
  002cd	68 00 00 00 00	 push	 OFFSET ??_C@_0L@BIEPDLBP@TreasureDB@
  002d2	8d 8d dc fc ff
	ff		 lea	 ecx, DWORD PTR _IniData$[ebp]
  002d8	ff 15 00 00 00
	00		 call	 DWORD PTR __imp_?ReadInt@CWHIniData@@QAEIPBD0H@Z
  002de	8b 4d ec	 mov	 ecx, DWORD PTR _this$[ebp]
  002e1	66 89 81 e0 00
	00 00		 mov	 WORD PTR [ecx+224], ax

; 97   : 	IniData.ReadEncryptString(TEXT("TreasureDB"), TEXT("DBAddr"), TEXT("127.0.0.1"), m_TreasureDBParameter.szDataBaseAddr, CountArray(m_TreasureDBParameter.szDataBaseAddr));

  002e8	6a 20		 push	 32			; 00000020H
  002ea	8b 45 ec	 mov	 eax, DWORD PTR _this$[ebp]
  002ed	05 e2 00 00 00	 add	 eax, 226		; 000000e2H
  002f2	50		 push	 eax
  002f3	68 00 00 00 00	 push	 OFFSET ??_C@_09PFCHIMEP@127?40?40?41@
  002f8	68 00 00 00 00	 push	 OFFSET ??_C@_06BDEHLDKJ@DBAddr@
  002fd	68 00 00 00 00	 push	 OFFSET ??_C@_0L@BIEPDLBP@TreasureDB@
  00302	8d 8d dc fc ff
	ff		 lea	 ecx, DWORD PTR _IniData$[ebp]
  00308	ff 15 00 00 00
	00		 call	 DWORD PTR __imp_?ReadEncryptString@CWHIniData@@QAEPBDPBD00PADG@Z

; 98   : 	IniData.ReadEncryptString(TEXT("TreasureDB"), TEXT("DBUser"), TEXT("sa"), m_TreasureDBParameter.szDataBaseUser, CountArray(m_TreasureDBParameter.szDataBaseUser));

  0030e	6a 20		 push	 32			; 00000020H
  00310	8b 45 ec	 mov	 eax, DWORD PTR _this$[ebp]
  00313	05 02 01 00 00	 add	 eax, 258		; 00000102H
  00318	50		 push	 eax
  00319	68 00 00 00 00	 push	 OFFSET ??_C@_02CKOPKKAC@sa@
  0031e	68 00 00 00 00	 push	 OFFSET ??_C@_06EKCLIHPK@DBUser@
  00323	68 00 00 00 00	 push	 OFFSET ??_C@_0L@BIEPDLBP@TreasureDB@
  00328	8d 8d dc fc ff
	ff		 lea	 ecx, DWORD PTR _IniData$[ebp]
  0032e	ff 15 00 00 00
	00		 call	 DWORD PTR __imp_?ReadEncryptString@CWHIniData@@QAEPBDPBD00PADG@Z

; 99   : 	IniData.ReadEncryptString(TEXT("TreasureDB"), TEXT("DBPass"), TEXT("people"), m_TreasureDBParameter.szDataBasePass, CountArray(m_TreasureDBParameter.szDataBasePass));

  00334	6a 20		 push	 32			; 00000020H
  00336	8b 45 ec	 mov	 eax, DWORD PTR _this$[ebp]
  00339	05 22 01 00 00	 add	 eax, 290		; 00000122H
  0033e	50		 push	 eax
  0033f	68 00 00 00 00	 push	 OFFSET ??_C@_06PPNIIDOF@people@
  00344	68 00 00 00 00	 push	 OFFSET ??_C@_06HJGLHJBN@DBPass@
  00349	68 00 00 00 00	 push	 OFFSET ??_C@_0L@BIEPDLBP@TreasureDB@
  0034e	8d 8d dc fc ff
	ff		 lea	 ecx, DWORD PTR _IniData$[ebp]
  00354	ff 15 00 00 00
	00		 call	 DWORD PTR __imp_?ReadEncryptString@CWHIniData@@QAEPBDPBD00PADG@Z

; 100  : 	IniData.ReadEncryptString(TEXT("TreasureDB"),TEXT("DBName"),szTreasureDB,m_TreasureDBParameter.szDataBaseName,CountArray(m_TreasureDBParameter.szDataBaseName));

  0035a	6a 20		 push	 32			; 00000020H
  0035c	8b 45 ec	 mov	 eax, DWORD PTR _this$[ebp]
  0035f	05 42 01 00 00	 add	 eax, 322		; 00000142H
  00364	50		 push	 eax
  00365	68 00 00 00 00	 push	 OFFSET ?szTreasureDB@@3QBDB
  0036a	68 00 00 00 00	 push	 OFFSET ??_C@_06KMJLGLFD@DBName@
  0036f	68 00 00 00 00	 push	 OFFSET ??_C@_0L@BIEPDLBP@TreasureDB@
  00374	8d 8d dc fc ff
	ff		 lea	 ecx, DWORD PTR _IniData$[ebp]
  0037a	ff 15 00 00 00
	00		 call	 DWORD PTR __imp_?ReadEncryptString@CWHIniData@@QAEPBDPBD00PADG@Z

; 101  : 
; 102  : 	//连接信息
; 103  : 	TCHAR szPlatformDBItem[32]=TEXT("PlatformDB");

  00380	a1 00 00 00 00	 mov	 eax, DWORD PTR ??_C@_0L@KKFJCNPO@PlatformDB@
  00385	89 85 bc fc ff
	ff		 mov	 DWORD PTR _szPlatformDBItem$[ebp], eax
  0038b	8b 0d 04 00 00
	00		 mov	 ecx, DWORD PTR ??_C@_0L@KKFJCNPO@PlatformDB@+4
  00391	89 8d c0 fc ff
	ff		 mov	 DWORD PTR _szPlatformDBItem$[ebp+4], ecx
  00397	66 8b 15 08 00
	00 00		 mov	 dx, WORD PTR ??_C@_0L@KKFJCNPO@PlatformDB@+8
  0039e	66 89 95 c4 fc
	ff ff		 mov	 WORD PTR _szPlatformDBItem$[ebp+8], dx
  003a5	a0 0a 00 00 00	 mov	 al, BYTE PTR ??_C@_0L@KKFJCNPO@PlatformDB@+10
  003aa	88 85 c6 fc ff
	ff		 mov	 BYTE PTR _szPlatformDBItem$[ebp+10], al
  003b0	33 c0		 xor	 eax, eax
  003b2	89 85 c7 fc ff
	ff		 mov	 DWORD PTR _szPlatformDBItem$[ebp+11], eax
  003b8	89 85 cb fc ff
	ff		 mov	 DWORD PTR _szPlatformDBItem$[ebp+15], eax
  003be	89 85 cf fc ff
	ff		 mov	 DWORD PTR _szPlatformDBItem$[ebp+19], eax
  003c4	89 85 d3 fc ff
	ff		 mov	 DWORD PTR _szPlatformDBItem$[ebp+23], eax
  003ca	89 85 d7 fc ff
	ff		 mov	 DWORD PTR _szPlatformDBItem$[ebp+27], eax
  003d0	88 85 db fc ff
	ff		 mov	 BYTE PTR _szPlatformDBItem$[ebp+31], al

; 104  : 	TCHAR szPlatformDBName[32]=TEXT("QPPlatformDB");

  003d6	a1 00 00 00 00	 mov	 eax, DWORD PTR ??_C@_0N@CGMNGOGI@QPPlatformDB@
  003db	89 85 9c fc ff
	ff		 mov	 DWORD PTR _szPlatformDBName$[ebp], eax
  003e1	8b 0d 04 00 00
	00		 mov	 ecx, DWORD PTR ??_C@_0N@CGMNGOGI@QPPlatformDB@+4
  003e7	89 8d a0 fc ff
	ff		 mov	 DWORD PTR _szPlatformDBName$[ebp+4], ecx
  003ed	8b 15 08 00 00
	00		 mov	 edx, DWORD PTR ??_C@_0N@CGMNGOGI@QPPlatformDB@+8
  003f3	89 95 a4 fc ff
	ff		 mov	 DWORD PTR _szPlatformDBName$[ebp+8], edx
  003f9	a0 0c 00 00 00	 mov	 al, BYTE PTR ??_C@_0N@CGMNGOGI@QPPlatformDB@+12
  003fe	88 85 a8 fc ff
	ff		 mov	 BYTE PTR _szPlatformDBName$[ebp+12], al
  00404	33 c0		 xor	 eax, eax
  00406	89 85 a9 fc ff
	ff		 mov	 DWORD PTR _szPlatformDBName$[ebp+13], eax
  0040c	89 85 ad fc ff
	ff		 mov	 DWORD PTR _szPlatformDBName$[ebp+17], eax
  00412	89 85 b1 fc ff
	ff		 mov	 DWORD PTR _szPlatformDBName$[ebp+21], eax
  00418	89 85 b5 fc ff
	ff		 mov	 DWORD PTR _szPlatformDBName$[ebp+25], eax
  0041e	66 89 85 b9 fc
	ff ff		 mov	 WORD PTR _szPlatformDBName$[ebp+29], ax
  00425	88 85 bb fc ff
	ff		 mov	 BYTE PTR _szPlatformDBName$[ebp+31], al

; 105  : 	IniData.ReadString(TEXT("LogonServer"),TEXT("PlatformDBItem"),TEXT("PlatformDB"),szPlatformDBItem,CountArray(szPlatformDBItem));

  0042b	6a 20		 push	 32			; 00000020H
  0042d	8d 85 bc fc ff
	ff		 lea	 eax, DWORD PTR _szPlatformDBItem$[ebp]
  00433	50		 push	 eax
  00434	68 00 00 00 00	 push	 OFFSET ??_C@_0L@KKFJCNPO@PlatformDB@
  00439	68 00 00 00 00	 push	 OFFSET ??_C@_0P@CEKHAJBO@PlatformDBItem@
  0043e	68 00 00 00 00	 push	 OFFSET ??_C@_0M@NDLIHBHJ@LogonServer@
  00443	8d 8d dc fc ff
	ff		 lea	 ecx, DWORD PTR _IniData$[ebp]
  00449	ff 15 00 00 00
	00		 call	 DWORD PTR __imp_?ReadString@CWHIniData@@QAEPBDPBD00PADG@Z

; 106  : 	IniData.ReadString(TEXT("LogonServer"),TEXT("PlatformDBName"),szPlatformDB,szPlatformDBName,CountArray(szPlatformDBName));

  0044f	6a 20		 push	 32			; 00000020H
  00451	8d 85 9c fc ff
	ff		 lea	 eax, DWORD PTR _szPlatformDBName$[ebp]
  00457	50		 push	 eax
  00458	68 00 00 00 00	 push	 OFFSET ?szPlatformDB@@3QBDB
  0045d	68 00 00 00 00	 push	 OFFSET ??_C@_0P@DHIKKJBD@PlatformDBName@
  00462	68 00 00 00 00	 push	 OFFSET ??_C@_0M@NDLIHBHJ@LogonServer@
  00467	8d 8d dc fc ff
	ff		 lea	 ecx, DWORD PTR _IniData$[ebp]
  0046d	ff 15 00 00 00
	00		 call	 DWORD PTR __imp_?ReadString@CWHIniData@@QAEPBDPBD00PADG@Z

; 107  : 	m_PlatformDBParameter.wDataBasePort=(WORD)IniData.ReadInt(TEXT("PlatformDB"),TEXT("DBPort"),1433);

  00473	68 99 05 00 00	 push	 1433			; 00000599H
  00478	68 00 00 00 00	 push	 OFFSET ??_C@_06NHDHPCNO@DBPort@
  0047d	68 00 00 00 00	 push	 OFFSET ??_C@_0L@KKFJCNPO@PlatformDB@
  00482	8d 8d dc fc ff
	ff		 lea	 ecx, DWORD PTR _IniData$[ebp]
  00488	ff 15 00 00 00
	00		 call	 DWORD PTR __imp_?ReadInt@CWHIniData@@QAEIPBD0H@Z
  0048e	8b 4d ec	 mov	 ecx, DWORD PTR _this$[ebp]
  00491	66 89 81 62 01
	00 00		 mov	 WORD PTR [ecx+354], ax

; 108  : 	IniData.ReadEncryptString(szPlatformDBItem, TEXT("DBAddr"), TEXT("127.0.0.1"), m_PlatformDBParameter.szDataBaseAddr, CountArray(m_PlatformDBParameter.szDataBaseAddr));

  00498	6a 20		 push	 32			; 00000020H
  0049a	8b 45 ec	 mov	 eax, DWORD PTR _this$[ebp]
  0049d	05 64 01 00 00	 add	 eax, 356		; 00000164H
  004a2	50		 push	 eax
  004a3	68 00 00 00 00	 push	 OFFSET ??_C@_09PFCHIMEP@127?40?40?41@
  004a8	68 00 00 00 00	 push	 OFFSET ??_C@_06BDEHLDKJ@DBAddr@
  004ad	8d 8d bc fc ff
	ff		 lea	 ecx, DWORD PTR _szPlatformDBItem$[ebp]
  004b3	51		 push	 ecx
  004b4	8d 8d dc fc ff
	ff		 lea	 ecx, DWORD PTR _IniData$[ebp]
  004ba	ff 15 00 00 00
	00		 call	 DWORD PTR __imp_?ReadEncryptString@CWHIniData@@QAEPBDPBD00PADG@Z

; 109  : 	IniData.ReadEncryptString(szPlatformDBItem, TEXT("DBUser"), TEXT("sa"), m_PlatformDBParameter.szDataBaseUser, CountArray(m_PlatformDBParameter.szDataBaseUser));

  004c0	6a 20		 push	 32			; 00000020H
  004c2	8b 45 ec	 mov	 eax, DWORD PTR _this$[ebp]
  004c5	05 84 01 00 00	 add	 eax, 388		; 00000184H
  004ca	50		 push	 eax
  004cb	68 00 00 00 00	 push	 OFFSET ??_C@_02CKOPKKAC@sa@
  004d0	68 00 00 00 00	 push	 OFFSET ??_C@_06EKCLIHPK@DBUser@
  004d5	8d 8d bc fc ff
	ff		 lea	 ecx, DWORD PTR _szPlatformDBItem$[ebp]
  004db	51		 push	 ecx
  004dc	8d 8d dc fc ff
	ff		 lea	 ecx, DWORD PTR _IniData$[ebp]
  004e2	ff 15 00 00 00
	00		 call	 DWORD PTR __imp_?ReadEncryptString@CWHIniData@@QAEPBDPBD00PADG@Z

; 110  : 	IniData.ReadEncryptString(szPlatformDBItem, TEXT("DBPass"), TEXT("people"), m_PlatformDBParameter.szDataBasePass, CountArray(m_PlatformDBParameter.szDataBasePass));

  004e8	6a 20		 push	 32			; 00000020H
  004ea	8b 45 ec	 mov	 eax, DWORD PTR _this$[ebp]
  004ed	05 a4 01 00 00	 add	 eax, 420		; 000001a4H
  004f2	50		 push	 eax
  004f3	68 00 00 00 00	 push	 OFFSET ??_C@_06PPNIIDOF@people@
  004f8	68 00 00 00 00	 push	 OFFSET ??_C@_06HJGLHJBN@DBPass@
  004fd	8d 8d bc fc ff
	ff		 lea	 ecx, DWORD PTR _szPlatformDBItem$[ebp]
  00503	51		 push	 ecx
  00504	8d 8d dc fc ff
	ff		 lea	 ecx, DWORD PTR _IniData$[ebp]
  0050a	ff 15 00 00 00
	00		 call	 DWORD PTR __imp_?ReadEncryptString@CWHIniData@@QAEPBDPBD00PADG@Z

; 111  : 	IniData.ReadEncryptString(szPlatformDBItem,TEXT("DBName"),szPlatformDBName,m_PlatformDBParameter.szDataBaseName,CountArray(m_PlatformDBParameter.szDataBaseName));

  00510	6a 20		 push	 32			; 00000020H
  00512	8b 45 ec	 mov	 eax, DWORD PTR _this$[ebp]
  00515	05 c4 01 00 00	 add	 eax, 452		; 000001c4H
  0051a	50		 push	 eax
  0051b	8d 8d 9c fc ff
	ff		 lea	 ecx, DWORD PTR _szPlatformDBName$[ebp]
  00521	51		 push	 ecx
  00522	68 00 00 00 00	 push	 OFFSET ??_C@_06KMJLGLFD@DBName@
  00527	8d 95 bc fc ff
	ff		 lea	 edx, DWORD PTR _szPlatformDBItem$[ebp]
  0052d	52		 push	 edx
  0052e	8d 8d dc fc ff
	ff		 lea	 ecx, DWORD PTR _IniData$[ebp]
  00534	ff 15 00 00 00
	00		 call	 DWORD PTR __imp_?ReadEncryptString@CWHIniData@@QAEPBDPBD00PADG@Z

; 112  : 
; 113  : 
; 114  : 	//构造路径
; 115  : 	TCHAR szIniFileChat[MAX_PATH]=TEXT("");

  0053a	a0 00 00 00 00	 mov	 al, BYTE PTR ??_C@_00CNPNBAHC@@
  0053f	88 85 98 fb ff
	ff		 mov	 BYTE PTR _szIniFileChat$[ebp], al
  00545	68 03 01 00 00	 push	 259			; 00000103H
  0054a	6a 00		 push	 0
  0054c	8d 85 99 fb ff
	ff		 lea	 eax, DWORD PTR _szIniFileChat$[ebp+1]
  00552	50		 push	 eax
  00553	e8 00 00 00 00	 call	 _memset
  00558	83 c4 0c	 add	 esp, 12			; 0000000cH

; 116  : 	_sntprintf(szIniFileChat,CountArray(szIniFileChat),TEXT("%s\\ChatServer.ini"),szWorkDir);

  0055b	8d 85 e8 fe ff
	ff		 lea	 eax, DWORD PTR _szWorkDir$[ebp]
  00561	50		 push	 eax
  00562	68 00 00 00 00	 push	 OFFSET ??_C@_0BC@NKBDIJIA@?$CFs?2ChatServer?4ini@
  00567	68 04 01 00 00	 push	 260			; 00000104H
  0056c	8d 8d 98 fb ff
	ff		 lea	 ecx, DWORD PTR _szIniFileChat$[ebp]
  00572	51		 push	 ecx
  00573	e8 00 00 00 00	 call	 __snprintf
  00578	83 c4 10	 add	 esp, 16			; 00000010H

; 117  : 
; 118  : 	//读取配置
; 119  : 	CWHIniData IniDataChat;

  0057b	8d 8d 90 fa ff
	ff		 lea	 ecx, DWORD PTR _IniDataChat$[ebp]
  00581	ff 15 00 00 00
	00		 call	 DWORD PTR __imp_??0CWHIniData@@QAE@XZ
  00587	c6 45 fc 01	 mov	 BYTE PTR __$EHRec$[ebp+8], 1

; 120  : 	IniDataChat.SetIniFilePath(szIniFileChat);

  0058b	8d 85 98 fb ff
	ff		 lea	 eax, DWORD PTR _szIniFileChat$[ebp]
  00591	50		 push	 eax
  00592	8d 8d 90 fa ff
	ff		 lea	 ecx, DWORD PTR _IniDataChat$[ebp]
  00598	ff 15 00 00 00
	00		 call	 DWORD PTR __imp_?SetIniFilePath@CWHIniData@@QAEXPBD@Z

; 121  : 
; 122  : 	m_dwDistance = IniDataChat.ReadInt(TEXT("ChatServer"),TEXT("Distance"),0);

  0059e	6a 00		 push	 0
  005a0	68 00 00 00 00	 push	 OFFSET ??_C@_08DFKPLDPN@Distance@
  005a5	68 00 00 00 00	 push	 OFFSET ??_C@_0L@KOLHEMGH@ChatServer@
  005aa	8d 8d 90 fa ff
	ff		 lea	 ecx, DWORD PTR _IniDataChat$[ebp]
  005b0	ff 15 00 00 00
	00		 call	 DWORD PTR __imp_?ReadInt@CWHIniData@@QAEIPBD0H@Z
  005b6	8b 4d ec	 mov	 ecx, DWORD PTR _this$[ebp]
  005b9	89 41 18	 mov	 DWORD PTR [ecx+24], eax

; 123  : 
; 124  : 	return;

  005bc	c6 45 fc 00	 mov	 BYTE PTR __$EHRec$[ebp+8], 0
  005c0	8d 8d 90 fa ff
	ff		 lea	 ecx, DWORD PTR _IniDataChat$[ebp]
  005c6	ff 15 00 00 00
	00		 call	 DWORD PTR __imp_??1CWHIniData@@UAE@XZ
  005cc	c7 45 fc ff ff
	ff ff		 mov	 DWORD PTR __$EHRec$[ebp+8], -1
  005d3	8d 8d dc fc ff
	ff		 lea	 ecx, DWORD PTR _IniData$[ebp]
  005d9	ff 15 00 00 00
	00		 call	 DWORD PTR __imp_??1CWHIniData@@UAE@XZ

; 125  : }

  005df	8b 4d f4	 mov	 ecx, DWORD PTR __$EHRec$[ebp]
  005e2	64 89 0d 00 00
	00 00		 mov	 DWORD PTR fs:0, ecx
  005e9	59		 pop	 ecx
  005ea	5f		 pop	 edi
  005eb	5e		 pop	 esi
  005ec	5b		 pop	 ebx
  005ed	8b 4d f0	 mov	 ecx, DWORD PTR __$ArrayPad$[ebp]
  005f0	33 cd		 xor	 ecx, ebp
  005f2	e8 00 00 00 00	 call	 @__security_check_cookie@4
  005f7	8b e5		 mov	 esp, ebp
  005f9	5d		 pop	 ebp
  005fa	c3		 ret	 0
_TEXT	ENDS
;	COMDAT text$x
text$x	SEGMENT
__unwindfunclet$?LoadInitParameter@CInitParameter@@QAEXXZ$0:
  00000	8d 8d dc fc ff
	ff		 lea	 ecx, DWORD PTR _IniData$[ebp]
  00006	ff 25 00 00 00
	00		 jmp	 DWORD PTR __imp_??1CWHIniData@@UAE@XZ
__unwindfunclet$?LoadInitParameter@CInitParameter@@QAEXXZ$1:
  0000c	8d 8d 90 fa ff
	ff		 lea	 ecx, DWORD PTR _IniDataChat$[ebp]
  00012	ff 25 00 00 00
	00		 jmp	 DWORD PTR __imp_??1CWHIniData@@UAE@XZ
__ehhandler$?LoadInitParameter@CInitParameter@@QAEXXZ:
  00018	8b 54 24 08	 mov	 edx, DWORD PTR [esp+8]
  0001c	8d 42 0c	 lea	 eax, DWORD PTR [edx+12]
  0001f	8b 8a cc f9 ff
	ff		 mov	 ecx, DWORD PTR [edx-1588]
  00025	33 c8		 xor	 ecx, eax
  00027	e8 00 00 00 00	 call	 @__security_check_cookie@4
  0002c	8b 4a fc	 mov	 ecx, DWORD PTR [edx-4]
  0002f	33 c8		 xor	 ecx, eax
  00031	e8 00 00 00 00	 call	 @__security_check_cookie@4
  00036	b8 00 00 00 00	 mov	 eax, OFFSET __ehfuncinfo$?LoadInitParameter@CInitParameter@@QAEXXZ
  0003b	e9 00 00 00 00	 jmp	 ___CxxFrameHandler3
text$x	ENDS
?LoadInitParameter@CInitParameter@@QAEXXZ ENDP		; CInitParameter::LoadInitParameter
; Function compile flags: /Odtp /ZI
; File g:\网狐\happygamewh\服务端\系统模块\服务器组件\聊天服务器\initparameter.cpp
;	COMDAT ?InitParameter@CInitParameter@@QAEXXZ
_TEXT	SEGMENT
_this$ = -4						; size = 4
?InitParameter@CInitParameter@@QAEXXZ PROC		; CInitParameter::InitParameter, COMDAT
; _this$ = ecx

; 29   : {

  00000	55		 push	 ebp
  00001	8b ec		 mov	 ebp, esp
  00003	83 ec 44	 sub	 esp, 68			; 00000044H
  00006	53		 push	 ebx
  00007	56		 push	 esi
  00008	57		 push	 edi
  00009	89 4d fc	 mov	 DWORD PTR _this$[ebp], ecx

; 30   : 	//时间定义
; 31   : 	m_wConnectTime=TIME_CONNECT;

  0000c	b8 1e 00 00 00	 mov	 eax, 30			; 0000001eH
  00011	8b 4d fc	 mov	 ecx, DWORD PTR _this$[ebp]
  00014	66 89 41 04	 mov	 WORD PTR [ecx+4], ax

; 32   : 	m_wCollectTime=TIME_COLLECT;

  00018	b8 1e 00 00 00	 mov	 eax, 30			; 0000001eH
  0001d	8b 4d fc	 mov	 ecx, DWORD PTR _this$[ebp]
  00020	66 89 41 06	 mov	 WORD PTR [ecx+6], ax

; 33   : 
; 34   : 	//配置信息
; 35   : 	m_wServiceID=0;

  00024	33 c0		 xor	 eax, eax
  00026	8b 4d fc	 mov	 ecx, DWORD PTR _this$[ebp]
  00029	66 89 41 08	 mov	 WORD PTR [ecx+8], ax

; 36   : 	m_dwServiceAddr=ADDR_ANY;

  0002d	8b 45 fc	 mov	 eax, DWORD PTR _this$[ebp]
  00030	c7 40 0c 00 00
	00 00		 mov	 DWORD PTR [eax+12], 0

; 37   : 	m_wServicePort=PORT_CHAT;

  00037	b8 71 17 00 00	 mov	 eax, 6001		; 00001771H
  0003c	8b 4d fc	 mov	 ecx, DWORD PTR _this$[ebp]
  0003f	66 89 41 0a	 mov	 WORD PTR [ecx+10], ax

; 38   : 	m_wMaxPlayer=4096;

  00043	b8 00 10 00 00	 mov	 eax, 4096		; 00001000H
  00048	8b 4d fc	 mov	 ecx, DWORD PTR _this$[ebp]
  0004b	66 89 41 14	 mov	 WORD PTR [ecx+20], ax

; 39   : 	m_dwServiceRule=0;

  0004f	8b 45 fc	 mov	 eax, DWORD PTR _this$[ebp]
  00052	c7 40 10 00 00
	00 00		 mov	 DWORD PTR [eax+16], 0

; 40   : 	m_cbMinOrder=0;

  00059	8b 45 fc	 mov	 eax, DWORD PTR _this$[ebp]
  0005c	c6 40 16 00	 mov	 BYTE PTR [eax+22], 0

; 41   : 	m_dwDistance = 0;

  00060	8b 45 fc	 mov	 eax, DWORD PTR _this$[ebp]
  00063	c7 40 18 00 00
	00 00		 mov	 DWORD PTR [eax+24], 0

; 42   : 
; 43   : 	//协调信息
; 44   : 	m_wCorrespondPort=PORT_CENTER;

  0006a	b8 75 17 00 00	 mov	 eax, 6005		; 00001775H
  0006f	8b 4d fc	 mov	 ecx, DWORD PTR _this$[ebp]
  00072	66 89 41 1c	 mov	 WORD PTR [ecx+28], ax

; 45   : 	ZeroMemory(&m_CorrespondAddress,sizeof(m_CorrespondAddress));

  00076	6a 20		 push	 32			; 00000020H
  00078	6a 00		 push	 0
  0007a	8b 45 fc	 mov	 eax, DWORD PTR _this$[ebp]
  0007d	83 c0 1e	 add	 eax, 30			; 0000001eH
  00080	50		 push	 eax
  00081	e8 00 00 00 00	 call	 _memset
  00086	83 c4 0c	 add	 esp, 12			; 0000000cH

; 46   : 
; 47   : 	//连接信息
; 48   : 	ZeroMemory(&m_ServiceAddress,sizeof(m_ServiceAddress));

  00089	6a 20		 push	 32			; 00000020H
  0008b	6a 00		 push	 0
  0008d	8b 45 fc	 mov	 eax, DWORD PTR _this$[ebp]
  00090	83 c0 3e	 add	 eax, 62			; 0000003eH
  00093	50		 push	 eax
  00094	e8 00 00 00 00	 call	 _memset
  00099	83 c4 0c	 add	 esp, 12			; 0000000cH

; 49   : 	ZeroMemory(&m_AccountsDBParameter,sizeof(m_AccountsDBParameter));

  0009c	68 82 00 00 00	 push	 130			; 00000082H
  000a1	6a 00		 push	 0
  000a3	8b 45 fc	 mov	 eax, DWORD PTR _this$[ebp]
  000a6	83 c0 5e	 add	 eax, 94			; 0000005eH
  000a9	50		 push	 eax
  000aa	e8 00 00 00 00	 call	 _memset
  000af	83 c4 0c	 add	 esp, 12			; 0000000cH

; 50   : 	ZeroMemory(&m_TreasureDBParameter,sizeof(m_TreasureDBParameter));

  000b2	68 82 00 00 00	 push	 130			; 00000082H
  000b7	6a 00		 push	 0
  000b9	8b 45 fc	 mov	 eax, DWORD PTR _this$[ebp]
  000bc	05 e0 00 00 00	 add	 eax, 224		; 000000e0H
  000c1	50		 push	 eax
  000c2	e8 00 00 00 00	 call	 _memset
  000c7	83 c4 0c	 add	 esp, 12			; 0000000cH

; 51   : 	ZeroMemory(&m_PlatformDBParameter,sizeof(m_PlatformDBParameter));

  000ca	68 82 00 00 00	 push	 130			; 00000082H
  000cf	6a 00		 push	 0
  000d1	8b 45 fc	 mov	 eax, DWORD PTR _this$[ebp]
  000d4	05 62 01 00 00	 add	 eax, 354		; 00000162H
  000d9	50		 push	 eax
  000da	e8 00 00 00 00	 call	 _memset
  000df	83 c4 0c	 add	 esp, 12			; 0000000cH

; 52   : 
; 53   : 	return;
; 54   : }

  000e2	5f		 pop	 edi
  000e3	5e		 pop	 esi
  000e4	5b		 pop	 ebx
  000e5	8b e5		 mov	 esp, ebp
  000e7	5d		 pop	 ebp
  000e8	c3		 ret	 0
?InitParameter@CInitParameter@@QAEXXZ ENDP		; CInitParameter::InitParameter
_TEXT	ENDS
; Function compile flags: /Odtp /ZI
; File g:\网狐\happygamewh\服务端\系统模块\服务器组件\聊天服务器\initparameter.cpp
;	COMDAT ??1CInitParameter@@UAE@XZ
_TEXT	SEGMENT
_this$ = -4						; size = 4
??1CInitParameter@@UAE@XZ PROC				; CInitParameter::~CInitParameter, COMDAT
; _this$ = ecx

; 24   : {

  00000	55		 push	 ebp
  00001	8b ec		 mov	 ebp, esp
  00003	83 ec 44	 sub	 esp, 68			; 00000044H
  00006	53		 push	 ebx
  00007	56		 push	 esi
  00008	57		 push	 edi
  00009	89 4d fc	 mov	 DWORD PTR _this$[ebp], ecx
  0000c	8b 45 fc	 mov	 eax, DWORD PTR _this$[ebp]
  0000f	c7 00 00 00 00
	00		 mov	 DWORD PTR [eax], OFFSET ??_7CInitParameter@@6B@

; 25   : }

  00015	5f		 pop	 edi
  00016	5e		 pop	 esi
  00017	5b		 pop	 ebx
  00018	8b e5		 mov	 esp, ebp
  0001a	5d		 pop	 ebp
  0001b	c3		 ret	 0
??1CInitParameter@@UAE@XZ ENDP				; CInitParameter::~CInitParameter
_TEXT	ENDS
; Function compile flags: /Odtp /ZI
; File g:\网狐\happygamewh\服务端\系统模块\服务器组件\聊天服务器\initparameter.cpp
;	COMDAT ??0CInitParameter@@QAE@XZ
_TEXT	SEGMENT
_this$ = -4						; size = 4
??0CInitParameter@@QAE@XZ PROC				; CInitParameter::CInitParameter, COMDAT
; _this$ = ecx

; 18   : { 

  00000	55		 push	 ebp
  00001	8b ec		 mov	 ebp, esp
  00003	83 ec 44	 sub	 esp, 68			; 00000044H
  00006	53		 push	 ebx
  00007	56		 push	 esi
  00008	57		 push	 edi
  00009	89 4d fc	 mov	 DWORD PTR _this$[ebp], ecx
  0000c	8b 45 fc	 mov	 eax, DWORD PTR _this$[ebp]
  0000f	c7 00 00 00 00
	00		 mov	 DWORD PTR [eax], OFFSET ??_7CInitParameter@@6B@

; 19   : 	InitParameter();

  00015	8b 4d fc	 mov	 ecx, DWORD PTR _this$[ebp]
  00018	e8 00 00 00 00	 call	 ?InitParameter@CInitParameter@@QAEXXZ ; CInitParameter::InitParameter

; 20   : }

  0001d	8b 45 fc	 mov	 eax, DWORD PTR _this$[ebp]
  00020	5f		 pop	 edi
  00021	5e		 pop	 esi
  00022	5b		 pop	 ebx
  00023	8b e5		 mov	 esp, ebp
  00025	5d		 pop	 ebp
  00026	c3		 ret	 0
??0CInitParameter@@QAE@XZ ENDP				; CInitParameter::CInitParameter
_TEXT	ENDS
; Function compile flags: /Odtp /ZI
; File c:\program files (x86)\windows kits\10\include\10.0.17763.0\ucrt\stdio.h
;	COMDAT __snprintf
_TEXT	SEGMENT
__ArgList$ = -8						; size = 4
__Result$ = -4						; size = 4
__Buffer$ = 8						; size = 4
__BufferCount$ = 12					; size = 4
__Format$ = 16						; size = 4
__snprintf PROC						; COMDAT

; 1969 :     {

  00000	55		 push	 ebp
  00001	8b ec		 mov	 ebp, esp
  00003	83 ec 4c	 sub	 esp, 76			; 0000004cH
  00006	53		 push	 ebx
  00007	56		 push	 esi
  00008	57		 push	 edi

; 1970 :         int _Result;
; 1971 :         va_list _ArgList;
; 1972 :         __crt_va_start(_ArgList, _Format);

  00009	8d 45 14	 lea	 eax, DWORD PTR __Format$[ebp+4]
  0000c	89 45 f8	 mov	 DWORD PTR __ArgList$[ebp], eax

; 1973 :     #pragma warning(suppress:28719)    // 28719
; 1974 :         _Result = _vsnprintf(_Buffer, _BufferCount, _Format, _ArgList);

  0000f	8b 45 f8	 mov	 eax, DWORD PTR __ArgList$[ebp]
  00012	50		 push	 eax
  00013	8b 4d 10	 mov	 ecx, DWORD PTR __Format$[ebp]
  00016	51		 push	 ecx
  00017	8b 55 0c	 mov	 edx, DWORD PTR __BufferCount$[ebp]
  0001a	52		 push	 edx
  0001b	8b 45 08	 mov	 eax, DWORD PTR __Buffer$[ebp]
  0001e	50		 push	 eax
  0001f	e8 00 00 00 00	 call	 __vsnprintf
  00024	83 c4 10	 add	 esp, 16			; 00000010H
  00027	89 45 fc	 mov	 DWORD PTR __Result$[ebp], eax

; 1975 :         __crt_va_end(_ArgList);

  0002a	c7 45 f8 00 00
	00 00		 mov	 DWORD PTR __ArgList$[ebp], 0

; 1976 :         return _Result;

  00031	8b 45 fc	 mov	 eax, DWORD PTR __Result$[ebp]

; 1977 :     }

  00034	5f		 pop	 edi
  00035	5e		 pop	 esi
  00036	5b		 pop	 ebx
  00037	8b e5		 mov	 esp, ebp
  00039	5d		 pop	 ebp
  0003a	c3		 ret	 0
__snprintf ENDP
_TEXT	ENDS
; Function compile flags: /Odtp /ZI
; File c:\program files (x86)\windows kits\10\include\10.0.17763.0\ucrt\stdio.h
;	COMDAT __vsnprintf
_TEXT	SEGMENT
__Buffer$ = 8						; size = 4
__BufferCount$ = 12					; size = 4
__Format$ = 16						; size = 4
__ArgList$ = 20						; size = 4
__vsnprintf PROC					; COMDAT

; 1409 :     {

  00000	55		 push	 ebp
  00001	8b ec		 mov	 ebp, esp
  00003	83 ec 40	 sub	 esp, 64			; 00000040H
  00006	53		 push	 ebx
  00007	56		 push	 esi
  00008	57		 push	 edi

; 1410 :         #pragma warning(push)
; 1411 :         #pragma warning(disable: 4996) // Deprecation
; 1412 :         return _vsnprintf_l(_Buffer, _BufferCount, _Format, NULL, _ArgList);

  00009	8b 45 14	 mov	 eax, DWORD PTR __ArgList$[ebp]
  0000c	50		 push	 eax
  0000d	6a 00		 push	 0
  0000f	8b 4d 10	 mov	 ecx, DWORD PTR __Format$[ebp]
  00012	51		 push	 ecx
  00013	8b 55 0c	 mov	 edx, DWORD PTR __BufferCount$[ebp]
  00016	52		 push	 edx
  00017	8b 45 08	 mov	 eax, DWORD PTR __Buffer$[ebp]
  0001a	50		 push	 eax
  0001b	e8 00 00 00 00	 call	 __vsnprintf_l
  00020	83 c4 14	 add	 esp, 20			; 00000014H

; 1413 :         #pragma warning(pop)
; 1414 :     }

  00023	5f		 pop	 edi
  00024	5e		 pop	 esi
  00025	5b		 pop	 ebx
  00026	8b e5		 mov	 esp, ebp
  00028	5d		 pop	 ebp
  00029	c3		 ret	 0
__vsnprintf ENDP
_TEXT	ENDS
; Function compile flags: /Odtp /ZI
; File c:\program files (x86)\windows kits\10\include\10.0.17763.0\ucrt\stdio.h
;	COMDAT __vsnprintf_l
_TEXT	SEGMENT
tv74 = -72						; size = 4
__Result$ = -4						; size = 4
__Buffer$ = 8						; size = 4
__BufferCount$ = 12					; size = 4
__Format$ = 16						; size = 4
__Locale$ = 20						; size = 4
__ArgList$ = 24						; size = 4
__vsnprintf_l PROC					; COMDAT

; 1389 :     {

  00000	55		 push	 ebp
  00001	8b ec		 mov	 ebp, esp
  00003	83 ec 48	 sub	 esp, 72			; 00000048H
  00006	53		 push	 ebx
  00007	56		 push	 esi
  00008	57		 push	 edi

; 1390 :         int const _Result = __stdio_common_vsprintf(

  00009	8b 45 18	 mov	 eax, DWORD PTR __ArgList$[ebp]
  0000c	50		 push	 eax
  0000d	8b 4d 14	 mov	 ecx, DWORD PTR __Locale$[ebp]
  00010	51		 push	 ecx
  00011	8b 55 10	 mov	 edx, DWORD PTR __Format$[ebp]
  00014	52		 push	 edx
  00015	8b 45 0c	 mov	 eax, DWORD PTR __BufferCount$[ebp]
  00018	50		 push	 eax
  00019	8b 4d 08	 mov	 ecx, DWORD PTR __Buffer$[ebp]
  0001c	51		 push	 ecx
  0001d	e8 00 00 00 00	 call	 ___local_stdio_printf_options
  00022	8b 10		 mov	 edx, DWORD PTR [eax]
  00024	83 ca 01	 or	 edx, 1
  00027	8b 40 04	 mov	 eax, DWORD PTR [eax+4]
  0002a	50		 push	 eax
  0002b	52		 push	 edx
  0002c	ff 15 00 00 00
	00		 call	 DWORD PTR __imp____stdio_common_vsprintf
  00032	83 c4 1c	 add	 esp, 28			; 0000001cH
  00035	89 45 fc	 mov	 DWORD PTR __Result$[ebp], eax

; 1391 :             _CRT_INTERNAL_LOCAL_PRINTF_OPTIONS | _CRT_INTERNAL_PRINTF_LEGACY_VSPRINTF_NULL_TERMINATION,
; 1392 :             _Buffer, _BufferCount, _Format, _Locale, _ArgList);
; 1393 : 
; 1394 :         return _Result < 0 ? -1 : _Result;

  00038	83 7d fc 00	 cmp	 DWORD PTR __Result$[ebp], 0
  0003c	7d 09		 jge	 SHORT $LN3@vsnprintf_
  0003e	c7 45 b8 ff ff
	ff ff		 mov	 DWORD PTR tv74[ebp], -1
  00045	eb 06		 jmp	 SHORT $LN4@vsnprintf_
$LN3@vsnprintf_:
  00047	8b 45 fc	 mov	 eax, DWORD PTR __Result$[ebp]
  0004a	89 45 b8	 mov	 DWORD PTR tv74[ebp], eax
$LN4@vsnprintf_:
  0004d	8b 45 b8	 mov	 eax, DWORD PTR tv74[ebp]

; 1395 :     }

  00050	5f		 pop	 edi
  00051	5e		 pop	 esi
  00052	5b		 pop	 ebx
  00053	8b e5		 mov	 esp, ebp
  00055	5d		 pop	 ebp
  00056	c3		 ret	 0
__vsnprintf_l ENDP
_TEXT	ENDS
; Function compile flags: /Odtp /ZI
; File c:\program files (x86)\windows kits\10\include\10.0.17763.0\ucrt\corecrt_stdio_config.h
;	COMDAT ___local_stdio_printf_options
_TEXT	SEGMENT
___local_stdio_printf_options PROC			; COMDAT

; 86   :     {

  00000	55		 push	 ebp
  00001	8b ec		 mov	 ebp, esp
  00003	83 ec 40	 sub	 esp, 64			; 00000040H
  00006	53		 push	 ebx
  00007	56		 push	 esi
  00008	57		 push	 edi

; 87   :         static unsigned __int64 _OptionsStorage;
; 88   :         return &_OptionsStorage;

  00009	b8 00 00 00 00	 mov	 eax, OFFSET ?_OptionsStorage@?1??__local_stdio_printf_options@@9@4_KA ; `__local_stdio_printf_options'::`2'::_OptionsStorage

; 89   :     }

  0000e	5f		 pop	 edi
  0000f	5e		 pop	 esi
  00010	5b		 pop	 ebx
  00011	8b e5		 mov	 esp, ebp
  00013	5d		 pop	 ebp
  00014	c3		 ret	 0
___local_stdio_printf_options ENDP
_TEXT	ENDS
; Function compile flags: /Odtp /ZI
; File g:\网狐\happygamewh\服务端\系统模块\服务器组件\聊天服务器\initparameter.cpp
;	COMDAT ?__empty_global_delete@@YAXPAXI@Z
_TEXT	SEGMENT
___formal$ = 8						; size = 4
___formal$ = 12						; size = 4
?__empty_global_delete@@YAXPAXI@Z PROC			; __empty_global_delete, COMDAT

  00000	55		 push	 ebp
  00001	8b ec		 mov	 ebp, esp
  00003	83 ec 40	 sub	 esp, 64			; 00000040H
  00006	53		 push	 ebx
  00007	56		 push	 esi
  00008	57		 push	 edi
  00009	5f		 pop	 edi
  0000a	5e		 pop	 esi
  0000b	5b		 pop	 ebx
  0000c	8b e5		 mov	 esp, ebp
  0000e	5d		 pop	 ebp
  0000f	c3		 ret	 0
?__empty_global_delete@@YAXPAXI@Z ENDP			; __empty_global_delete
_TEXT	ENDS
; Function compile flags: /Odtp /ZI
; File g:\网狐\happygamewh\服务端\系统模块\服务器组件\聊天服务器\initparameter.cpp
;	COMDAT ?__empty_global_delete@@YAXPAX@Z
_TEXT	SEGMENT
___formal$ = 8						; size = 4
?__empty_global_delete@@YAXPAX@Z PROC			; __empty_global_delete, COMDAT

  00000	55		 push	 ebp
  00001	8b ec		 mov	 ebp, esp
  00003	83 ec 40	 sub	 esp, 64			; 00000040H
  00006	53		 push	 ebx
  00007	56		 push	 esi
  00008	57		 push	 edi
  00009	5f		 pop	 edi
  0000a	5e		 pop	 esi
  0000b	5b		 pop	 ebx
  0000c	8b e5		 mov	 esp, ebp
  0000e	5d		 pop	 ebp
  0000f	c3		 ret	 0
?__empty_global_delete@@YAXPAX@Z ENDP			; __empty_global_delete
_TEXT	ENDS
END
