 ChatServer

 Timestamp is 5da6abf4 (Wed Oct 16 13:34:44 2019)

 Preferred load address is 00400000

 Start         Length     Name                   Class
 0001:00000000 00004bb0H .text$di                CODE
 0001:00004bb0 00025770H .text$mn                CODE
 0001:0002a320 00002150H .text$x                 CODE
 0001:0002c470 00001178H .text$yd                CODE
 0002:00000000 00000104H .CRT$XCA                DATA
 0002:00000104 00000104H .CRT$XCAA               DATA
 0002:00000208 0000010cH .CRT$XCL                DATA
 0002:00000314 00000184H .CRT$XCU                DATA
 0002:00000498 00000104H .CRT$XCZ                DATA
 0002:0000059c 00000104H .CRT$XIA                DATA
 0002:000006a0 00000104H .CRT$XIAA               DATA
 0002:000007a4 00000104H .CRT$XIAC               DATA
 0002:000008a8 00000104H .CRT$XIC                DATA
 0002:000009ac 00000104H .CRT$XIZ                DATA
 0002:00000ab0 00000004H .CRT$XLA                DATA
 0002:00000ab4 00000004H .CRT$XLZ                DATA
 0002:00000ab8 00000104H .CRT$XPA                DATA
 0002:00000bbc 00000104H .CRT$XPZ                DATA
 0002:00000cc0 00000104H .CRT$XTA                DATA
 0002:00000dc4 0000010cH .CRT$XTZ                DATA
 0002:00000ed0 00006c60H .rdata                  DATA
 0002:00007b30 0000011cH .rdata$T                DATA
 0002:00007c4c 00001164H .rdata$r                DATA
 0002:00008db0 00000250H .rdata$sxdata           DATA
 0002:00009000 000001a0H .rdata$zzzdbg           DATA
 0002:000091a0 00000104H .rtc$IAA                DATA
 0002:000092a4 00000110H .rtc$IMZ                DATA
 0002:000093b4 00000104H .rtc$IZZ                DATA
 0002:000094b8 00000104H .rtc$TAA                DATA
 0002:000095bc 00000110H .rtc$TMZ                DATA
 0002:000096cc 00000104H .rtc$TZZ                DATA
 0002:000097d0 00001b50H .xdata$x                DATA
 0002:0000b320 00000104H ATL$__a                 DATA
 0002:0000b424 00000104H ATL$__z                 DATA
 0002:0000b528 00000000H .edata                  DATA
 0003:00000000 00000418H .data                   DATA
 0003:00000418 00000948H .data$r                 DATA
 0003:00000d60 00002e2cH .bss                    DATA
 0004:00000000 000008acH .idata$5                DATA
 0004:000008ac 000000c8H .idata$2                DATA
 0004:00000974 00000014H .idata$3                DATA
 0004:00000988 000008acH .idata$4                DATA
 0004:00001234 000012ceH .idata$6                DATA
 0005:00000000 00000104H .tls                    DATA
 0005:00000104 00000104H .tls$                   DATA
 0005:00000208 00000101H .tls$ZZZ                DATA
 0006:00000000 00000104H .00cfg                  DATA
 0007:00000000 000002d0H .rsrc$01                DATA
 0007:000002d0 0000ba70H .rsrc$02                DATA

  Address         Publics by Value              Rva+Base       Lib:Object

 0000:00000000       ___enclave_config          00000000     <absolute>
 0000:00000000       ___hybrid_auxiliary_iat    00000000     <absolute>
 0000:00000000       ___guard_longjmp_count     00000000     <absolute>
 0000:00000000       ___guard_fids_table        00000000     <absolute>
 0000:00000000       ___hybrid_code_map_count   00000000     <absolute>
 0000:00000000       ___guard_iat_table         00000000     <absolute>
 0000:00000000       ___guard_iat_count         00000000     <absolute>
 0000:00000000       ___guard_longjmp_table     00000000     <absolute>
 0000:00000000       ___volatile_metadata       00000000     <absolute>
 0000:00000000       ___hybrid_code_map         00000000     <absolute>
 0000:00000000       ___guard_fids_count        00000000     <absolute>
 0000:00000000       ___dynamic_value_reloc_table 00000000     <absolute>
 0000:0000002c       __tls_array                0000002c     <absolute>
 0000:00000046       ___safe_se_handler_count   00000046     <absolute>
 0000:00000100       ___guard_flags             00000100     <absolute>
 0000:00000000       ___ImageBase               00400000     <linker-defined>
 0001:00004bb0       ??0?$CWHArray@PAUtagSystemMessage@@ABQAU1@@@QAE@XZ 00405bb0 f i AttemperEngineSink.obj
 0001:00004c10       ??0CAttemperEngineSink@@QAE@XZ 00405c10 f   AttemperEngineSink.obj
 0001:00004d70       ??0CSendPacketHelper@@QAE@PAXG@Z 00405d70 f i AttemperEngineSink.obj
 0001:00004dc0       ??0IAttemperEngineSink@@QAE@XZ 00405dc0 f i AttemperEngineSink.obj
 0001:00004df0       ??0IUnknownEx@@QAE@XZ      00405df0 f i AttemperEngineSink.obj
 0001:00004e20       ??1?$CWHArray@PAUtagSystemMessage@@ABQAU1@@@UAE@XZ 00405e20 f i AttemperEngineSink.obj
 0001:00004ea0       ??1CAttemperEngineSink@@UAE@XZ 00405ea0 f   AttemperEngineSink.obj
 0001:00005150       ??2@YAPAXIPAX@Z            00406150 f i AttemperEngineSink.obj
 0001:00005170       ??A?$CWHArray@PAUtagSystemMessage@@ABQAU1@@@QAEAAPAUtagSystemMessage@@H@Z 00406170 f i AttemperEngineSink.obj
 0001:000051a0       ??_G?$CWHArray@PAUtagSystemMessage@@ABQAU1@@@UAEPAXI@Z 004061a0 f i AttemperEngineSink.obj
 0001:000051a0       ??_E?$CWHArray@PAUtagSystemMessage@@ABQAU1@@@UAEPAXI@Z 004061a0 f i AttemperEngineSink.obj
 0001:000051f0       ??_ECAttemperEngineSink@@UAEPAXI@Z 004061f0 f i AttemperEngineSink.obj
 0001:000051f0       ??_GCAttemperEngineSink@@UAEPAXI@Z 004061f0 f i AttemperEngineSink.obj
 0001:00005240       ?Add@?$CWHArray@PAUtagSystemMessage@@ABQAU1@@@QAEHABQAUtagSystemMessage@@@Z 00406240 f i AttemperEngineSink.obj
 0001:00005280       ?AddPacket@CSendPacketHelper@@QAE_NPAXGG@Z 00406280 f i AttemperEngineSink.obj
 0001:000053f0       ?AfxAssertFailedLine@@YGHPBDH@Z 004063f0 f i AttemperEngineSink.obj
 0001:00005460       ?AllocMemory@?$CWHArray@PAUtagSystemMessage@@ABQAU1@@@QAEXH@Z 00406460 f i AttemperEngineSink.obj
 0001:000055d0       ?Append@?$CWHArray@PAUtagSystemMessage@@ABQAU1@@@QAEHABV1@@Z 004065d0 f i AttemperEngineSink.obj
 0001:000056c0       ?ElementAt@?$CWHArray@PAUtagSystemMessage@@ABQAU1@@@QAEAAPAUtagSystemMessage@@H@Z 004066c0 f i AttemperEngineSink.obj
 0001:00005740       ?GetBindParameter@CAttemperEngineSink@@IAEPAUtagBindParameter@@G@Z 00406740 f   AttemperEngineSink.obj
 0001:000057c0       ?GetBindUserItem@CAttemperEngineSink@@IAEPAVCServerUserItem@@G@Z 004067c0 f   AttemperEngineSink.obj
 0001:00005830       ?GetBuildVer@@YAEK@Z       00406830 f i AttemperEngineSink.obj
 0001:00005860       ?GetCount@?$CWHArray@PAUtagNearUserInfo@@ABQAU1@@@QBEHXZ 00406860 f i AttemperEngineSink.obj
 0001:00005880       ?GetCount@?$CWHArray@PAUtagSystemMessage@@ABQAU1@@@QBEHXZ 00406880 f i AttemperEngineSink.obj
 0001:000058a0       ?GetDataSize@CSendPacketHelper@@QAEGXZ 004068a0 f i AttemperEngineSink.obj
 0001:000058c0       ?GetMainVer@@YAEK@Z        004068c0 f i AttemperEngineSink.obj
 0001:000058f0       ?GetProductVer@@YAEK@Z     004068f0 f i AttemperEngineSink.obj
 0001:00005920       ?GetSubVer@@YAEK@Z         00406920 f i AttemperEngineSink.obj
 0001:00005950       ?GetUserItemCount@CNearUserManager@@UAEKXZ 00406950 f i AttemperEngineSink.obj
 0001:00005980       ?GetUserItemKind@CServerUserItem@@QAE?AW4enUserItemKind@@XZ 00406980 f i AttemperEngineSink.obj
 0001:000059a0       ?InterfaceVersionCompare@@YA_NKK@Z 004069a0 f i AttemperEngineSink.obj
 0001:00005a80       ?OnAttemperEngineConclude@CAttemperEngineSink@@UAE_NPAUIUnknownEx@@@Z 00406a80 f   AttemperEngineSink.obj
 0001:00005c50       ?OnAttemperEngineStart@CAttemperEngineSink@@UAE_NPAUIUnknownEx@@@Z 00406c50 f   AttemperEngineSink.obj
 0001:00005d30       ?OnDBLoadDeleteFriend@CAttemperEngineSink@@IAE_NKPAXG@Z 00406d30 f   AttemperEngineSink.obj
 0001:00005f80       ?OnDBLoadUserFriend@CAttemperEngineSink@@IAE_NKPAXG@Z 00406f80 f   AttemperEngineSink.obj
 0001:00006620       ?OnDBLoadUserGroup@CAttemperEngineSink@@IAE_NKPAXG@Z 00407620 f   AttemperEngineSink.obj
 0001:000068d0       ?OnDBLoadUserOfflineMessage@CAttemperEngineSink@@IAE_NKPAXG@Z 004078d0 f   AttemperEngineSink.obj
 0001:00006c70       ?OnDBLoadUserRemarksInfo@CAttemperEngineSink@@IAE_NKPAXG@Z 00407c70 f   AttemperEngineSink.obj
 0001:00006f20       ?OnDBLoadUserSimpleIndividual@CAttemperEngineSink@@IAE_NKPAXG@Z 00407f20 f   AttemperEngineSink.obj
 0001:00007400       ?OnDBLogonFailure@CAttemperEngineSink@@IAE_NKPAXG@Z 00408400 f   AttemperEngineSink.obj
 0001:00007450       ?OnDBLogonSuccess@CAttemperEngineSink@@IAE_NKPAXG@Z 00408450 f   AttemperEngineSink.obj
 0001:000078d0       ?OnDBSearchUserResult@CAttemperEngineSink@@IAE_NKPAXG@Z 004088d0 f   AttemperEngineSink.obj
 0001:00007c70       ?OnDBSystemMessage@CAttemperEngineSink@@IAE_NKPAXG@Z 00408c70 f   AttemperEngineSink.obj
 0001:00007e30       ?OnDBSystemMessageFinish@CAttemperEngineSink@@IAE_NKPAXG@Z 00408e30 f   AttemperEngineSink.obj
 0001:00007f00       ?OnDBTrumpetResult@CAttemperEngineSink@@IAE_NKPAXG@Z 00408f00 f   AttemperEngineSink.obj
 0001:000081d0       ?OnDBUserAddFriend@CAttemperEngineSink@@IAE_NKPAXG@Z 004091d0 f   AttemperEngineSink.obj
 0001:00008c30       ?OnDBUserOperateResult@CAttemperEngineSink@@IAE_NKPAXG@Z 00409c30 f   AttemperEngineSink.obj
 0001:00008d20       ?OnEventAttemperData@CAttemperEngineSink@@UAE_NGPAXG@Z 00409d20 f   AttemperEngineSink.obj
 0001:00008d40       ?OnEventControl@CAttemperEngineSink@@UAE_NGPAXG@Z 00409d40 f   AttemperEngineSink.obj
 0001:00008e90       ?OnEventDataBase@CAttemperEngineSink@@MAE_NGKPAXG@Z 00409e90 f   AttemperEngineSink.obj
 0001:00009440       ?OnEventTCPNetworkBind@CAttemperEngineSink@@UAE_NKK@Z 0040a440 f   AttemperEngineSink.obj
 0001:000094e0       ?OnEventTCPNetworkRead@CAttemperEngineSink@@UAE_NUTCP_Command@@PAXGK@Z 0040a4e0 f   AttemperEngineSink.obj
 0001:00009560       ?OnEventTCPNetworkShut@CAttemperEngineSink@@UAE_NKKK@Z 0040a560 f   AttemperEngineSink.obj
 0001:00009810       ?OnEventTCPSocketLink@CAttemperEngineSink@@UAE_NGH@Z 0040a810 f   AttemperEngineSink.obj
 0001:000099e0       ?OnEventTCPSocketMainServiceInfo@CAttemperEngineSink@@IAE_NGPAXG@Z 0040a9e0 f   AttemperEngineSink.obj
 0001:00009a40       ?OnEventTCPSocketMainUserCollect@CAttemperEngineSink@@IAE_NGPAXG@Z 0040aa40 f   AttemperEngineSink.obj
 0001:00009a90       ?OnEventTCPSocketRead@CAttemperEngineSink@@UAE_NGUTCP_Command@@PAXG@Z 0040aa90 f   AttemperEngineSink.obj
 0001:00009b40       ?OnEventTCPSocketShut@CAttemperEngineSink@@UAE_NGE@Z 0040ab40 f   AttemperEngineSink.obj
 0001:00009ca0       ?OnEventTCPSocketSubUserStatus@CAttemperEngineSink@@IAE_NPAXG@Z 0040aca0 f   AttemperEngineSink.obj
 0001:00009f10       ?OnEventTimer@CAttemperEngineSink@@UAE_NKI@Z 0040af10 f   AttemperEngineSink.obj
 0001:0000a400       ?OnTCPNetworkDeleteFriend@CAttemperEngineSink@@IAE_NPAXGK@Z 0040b400 f   AttemperEngineSink.obj
 0001:0000a5e0       ?OnTCPNetworkGetNearuser@CAttemperEngineSink@@IAE_NPAXGK@Z 0040b5e0 f   AttemperEngineSink.obj
 0001:0000aa90       ?OnTCPNetworkMainLogon@CAttemperEngineSink@@IAE_NGPAXGK@Z 0040ba90 f   AttemperEngineSink.obj
 0001:0000aaf0       ?OnTCPNetworkMainUser@CAttemperEngineSink@@IAE_NGPAXGK@Z 0040baf0 f   AttemperEngineSink.obj
 0001:0000ad00       ?OnTCPNetworkQueryNearuser@CAttemperEngineSink@@IAE_NPAXGK@Z 0040bd00 f   AttemperEngineSink.obj
 0001:0000b170       ?OnTCPNetworkSubApplyForFriend@CAttemperEngineSink@@IAE_NPAXGK@Z 0040c170 f   AttemperEngineSink.obj
 0001:0000b560       ?OnTCPNetworkSubInvitePersonal@CAttemperEngineSink@@IAE_NPAXGK@Z 0040c560 f   AttemperEngineSink.obj
 0001:0000ba30       ?OnTCPNetworkSubMBLogonByUserID@CAttemperEngineSink@@IAE_NPAXGK@Z 0040ca30 f   AttemperEngineSink.obj
 0001:0000bd70       ?OnTCPNetworkSubRespondFriend@CAttemperEngineSink@@IAE_NPAXGK@Z 0040cd70 f   AttemperEngineSink.obj
 0001:0000c280       ?OnTCPNetworkSubRoomInvite@CAttemperEngineSink@@IAE_NPAXGK@Z 0040d280 f   AttemperEngineSink.obj
 0001:0000c750       ?OnTCPNetworkSubSearchUser@CAttemperEngineSink@@IAE_NPAXGK@Z 0040d750 f   AttemperEngineSink.obj
 0001:0000c810       ?OnTCPNetworkSubTrumpet@CAttemperEngineSink@@IAE_NPAXGK@Z 0040d810 f   AttemperEngineSink.obj
 0001:0000ca70       ?OnTCPNetworkSubUserChat@CAttemperEngineSink@@IAE_NPAXGK@Z 0040da70 f   AttemperEngineSink.obj
 0001:0000ce00       ?OnTCPNetworkSubUserShare@CAttemperEngineSink@@IAE_NPAXGK@Z 0040de00 f   AttemperEngineSink.obj
 0001:0000d2a0       ?OnTCPNetworkUpdateCoordinate@CAttemperEngineSink@@IAE_NPAXGK@Z 0040e2a0 f   AttemperEngineSink.obj
 0001:0000d750       ?OnTCPSocketMainManagerService@CAttemperEngineSink@@IAE_NGPAXG@Z 0040e750 f   AttemperEngineSink.obj
 0001:0000d7d0       ?QueryInterface@CAttemperEngineSink@@UAEPAXABU_GUID@@K@Z 0040e7d0 f   AttemperEngineSink.obj
 0001:0000d880       ?Release@CAttemperEngineSink@@UAEXXZ 0040e880 f i AttemperEngineSink.obj
 0001:0000d8a0       ?RemoveAll@?$CWHArray@PAUtagSystemMessage@@ABQAU1@@@QAEXXZ 0040e8a0 f i AttemperEngineSink.obj
 0001:0000d920       ?RemoveAt@?$CWHArray@PAUtagSystemMessage@@ABQAU1@@@QAEXHH@Z 0040e920 f i AttemperEngineSink.obj
 0001:0000da60       ?RemoveSystemMessage@CAttemperEngineSink@@IAEXXZ 0040ea60 f   AttemperEngineSink.obj
 0001:0000dab0       ?SaveOfflineMessage@CAttemperEngineSink@@IAE_NKGPAXGK@Z 0040eab0 f   AttemperEngineSink.obj
 0001:0000dc50       ?SendChatServerConfig@CAttemperEngineSink@@IAE_NK@Z 0040ec50 f   AttemperEngineSink.obj
 0001:0000dcd0       ?SendData@CAttemperEngineSink@@IAE_NKGGPAXG@Z 0040ecd0 f   AttemperEngineSink.obj
 0001:0000dd30       ?SendDataToUserFriend@CAttemperEngineSink@@IAE_NKGGPAXG@Z 0040ed30 f   AttemperEngineSink.obj
 0001:0000dea0       ?SendLogonFailure@CAttemperEngineSink@@IAE_NPBDJK@Z 0040eea0 f   AttemperEngineSink.obj
 0001:0000df80       ?SendOperateFailure@CAttemperEngineSink@@IAE_NPBDJJK@Z 0040ef80 f   AttemperEngineSink.obj
 0001:0000e020       ?SendOperateSuccess@CAttemperEngineSink@@IAE_NPBDJK@Z 0040f020 f   AttemperEngineSink.obj
 0001:0000e0d0       ?SendSystemMessage@CAttemperEngineSink@@IAE_NKPBDG@Z 0040f0d0 f   AttemperEngineSink.obj
 0001:0000e1e0       ?SendSystemMessage@CAttemperEngineSink@@IAE_NPBDG@Z 0040f1e0 f   AttemperEngineSink.obj
 0001:0000e2f0       ?SendUIControlPacket@CAttemperEngineSink@@QAE_NGPAXG@Z 0040f2f0 f   AttemperEngineSink.obj
 0001:0000e340       ?SetAtGrow@?$CWHArray@PAUtagSystemMessage@@ABQAU1@@@QAEXHABQAUtagSystemMessage@@@Z 0040f340 f i AttemperEngineSink.obj
 0001:0000e3d0       ?SetOwnerUserID@CUserFriendGroup@@QAEXK@Z 0040f3d0 f i AttemperEngineSink.obj
 0001:0000e400       ?SetSize@?$CWHArray@PAUtagSystemMessage@@ABQAU1@@@QAEXH@Z 0040f400 f i AttemperEngineSink.obj
 0001:0000e520       ?__empty_global_delete@@YAXPAX@Z 0040f520 f i AttemperEngineSink.obj
 0001:0000e540       ?__global_delete@@YAXPAXI@Z 0040f540 f i AttemperEngineSink.obj
 0001:0000e540       ?__empty_global_delete@@YAXPAXI@Z 0040f540 f i AttemperEngineSink.obj
 0001:0000e560       _==                        0040f560 f i AttemperEngineSink.obj
 0001:0000e5b0       _IsEqualGUID               0040f5b0 f i AttemperEngineSink.obj
 0001:0000e600       ___local_stdio_printf_options 0040f600 f i AttemperEngineSink.obj
 0001:0000e620       __snprintf                 0040f620 f i AttemperEngineSink.obj
 0001:0000e670       __vsnprintf                0040f670 f i AttemperEngineSink.obj
 0001:0000e6b0       __vsnprintf_l              0040f6b0 f i AttemperEngineSink.obj
 0001:0000e720       __vsprintf_l               0040f720 f i AttemperEngineSink.obj
 0001:0000e760       _sprintf                   0040f760 f i AttemperEngineSink.obj
 0001:0000e7e0       ??0CChatServerApp@@QAE@XZ  0040f7e0 f   ChatServer.obj
 0001:0000e820       ??1CChatServerApp@@UAE@XZ  0040f820 f i ChatServer.obj
 0001:0000e850       ??_ECChatServerApp@@UAEPAXI@Z 0040f850 f i ChatServer.obj
 0001:0000e850       ??_GCChatServerApp@@UAEPAXI@Z 0040f850 f i ChatServer.obj
 0001:0000e8b0       ?GetApplicationRecoveryParameter@CWinApp@@UAEPAXXZ 0040f8b0 f i ChatServer.obj
 0001:0000e8d0       ?GetApplicationRecoveryPingInterval@CWinApp@@UAEKXZ 0040f8d0 f i ChatServer.obj
 0001:0000e8f0       ?GetApplicationRestartFlags@CWinApp@@UAEKXZ 0040f8f0 f i ChatServer.obj
 0001:0000e910       ?GetMessageMap@CChatServerApp@@MBEPBUAFX_MSGMAP@@XZ 0040f910 f   ChatServer.obj
 0001:0000e930       ?GetThisMessageMap@CChatServerApp@@KGPBUAFX_MSGMAP@@XZ 0040f930 f   ChatServer.obj
 0001:0000e950       ?InitInstance@CChatServerApp@@UAEHXZ 0040f950 f   ChatServer.obj
 0001:0000ea50       ?ReopenPreviousFilesAtRestart@CWinApp@@UBEHXZ 0040fa50 f i ChatServer.obj
 0001:0000ea80       ?RestoreAutosavedFilesAtRestart@CWinApp@@UBEHXZ 0040fa80 f i ChatServer.obj
 0001:0000eab0       ?SupportsApplicationRecovery@CWinApp@@UBEHXZ 0040fab0 f i ChatServer.obj
 0001:0000eae0       ?SupportsAutosaveAtInterval@CWinApp@@UBEHXZ 0040fae0 f i ChatServer.obj
 0001:0000eb10       ?SupportsAutosaveAtRestart@CWinApp@@UBEHXZ 0040fb10 f i ChatServer.obj
 0001:0000eb40       ?SupportsRestartManager@CWinApp@@UBEHXZ 0040fb40 f i ChatServer.obj
 0001:0000eb70       ?OnBnClickedStartService@CChatServerDlg@@IAEXXZ 0040fb70 f   ChatServerDlg.obj
 0001:0000ec20       ?OnBnClickedStopService@CChatServerDlg@@IAEXXZ 0040fc20 f   ChatServerDlg.obj
 0001:0000ecd0       ?OnQueryEndSession@CChatServerDlg@@QAEHXZ 0040fcd0 f   ChatServerDlg.obj
 0001:0000ed20       ?OnMessageProcessCmdLine@CChatServerDlg@@QAEJIJ@Z 0040fd20 f   ChatServerDlg.obj
 0001:0000ee60       ??0CChatServerDlg@@QAE@XZ  0040fe60 f   ChatServerDlg.obj
 0001:0000ef40       ??0CInitParameter@@QAE@ABV0@@Z 0040ff40 f i ChatServerDlg.obj
 0001:0000f0a0       ??0IServiceUnitsSink@@QAE@XZ 004100a0 f i ChatServerDlg.obj
 0001:0000f0d0       ??1CChatServerDlg@@UAE@XZ  004100d0 f   ChatServerDlg.obj
 0001:0000f140       ??_GCChatServerDlg@@UAEPAXI@Z 00410140 f i ChatServerDlg.obj
 0001:0000f140       ??_ECChatServerDlg@@UAEPAXI@Z 00410140 f i ChatServerDlg.obj
 0001:0000f1a0       ??_GCInitParameter@@UAEPAXI@Z 004101a0 f i ChatServerDlg.obj
 0001:0000f1a0       ??_ECInitParameter@@UAEPAXI@Z 004101a0 f i ChatServerDlg.obj
 0001:0000f1f0       ?DoDataExchange@CChatServerDlg@@MAEXPAVCDataExchange@@@Z 004101f0 f   ChatServerDlg.obj
 0001:0000f240       ?GetInitParameter@CServiceUnits@@QAE?AVCInitParameter@@XZ 00410240 f i ChatServerDlg.obj
 0001:0000f290       ?GetMessageMap@CChatServerDlg@@MBEPBUAFX_MSGMAP@@XZ 00410290 f   ChatServerDlg.obj
 0001:0000f2b0       ?GetServiceStatus@CServiceUnits@@QAE?AW4enServiceStatus@@XZ 004102b0 f i ChatServerDlg.obj
 0001:0000f2e0       ?GetThisMessageMap@CChatServerDlg@@KGPBUAFX_MSGMAP@@XZ 004102e0 f   ChatServerDlg.obj
 0001:0000f300       ?OnCancel@CChatServerDlg@@MAEXXZ 00410300 f   ChatServerDlg.obj
 0001:0000f370       ?OnInitDialog@CChatServerDlg@@MAEHXZ 00410370 f   ChatServerDlg.obj
 0001:0000f460       ?OnOK@CChatServerDlg@@MAEXXZ 00410460 f   ChatServerDlg.obj
 0001:0000f480       ?OnServiceUnitsStatus@CChatServerDlg@@UAEXW4enServiceStatus@@@Z 00410480 f   ChatServerDlg.obj
 0001:0000f6e0       ?PreTranslateMessage@CChatServerDlg@@MAEHPAUtagMSG@@@Z 004106e0 f   ChatServerDlg.obj
 0001:0000f730       ?StartServerService@CChatServerDlg@@IAE_NG@Z 00410730 f   ChatServerDlg.obj
 0001:0000f7f0       ?UpdateServerTitle@CChatServerDlg@@IAEXW4enServiceStatus@@@Z 004107f0 f   ChatServerDlg.obj
 0001:0000f8f0       ??$AtlConvAllocMemory@D@ATL@@YAXPAPADHPADH@Z 004108f0 f i DataBaseEngineSink.obj
 0001:0000fb20       ??$AtlConvFreeMemory@D@ATL@@YAXPAD0H@Z 00410b20 f i DataBaseEngineSink.obj
 0001:0000fb70       ??$AtlMultiply@I@ATL@@YAJPAIII@Z 00410b70 f i DataBaseEngineSink.obj
 0001:0000fbd0       ??$_snprintf_s@$0IA@@@YAHAAY0IA@DIPBDZZ 00410bd0 f i DataBaseEngineSink.obj
 0001:0000fc10       ??0?$CHeapPtr@DVCCRTAllocator@ATL@@@ATL@@QAE@XZ 00410c10 f i DataBaseEngineSink.obj
 0001:0000fc40       ??0?$CHeapPtr@_WVCCRTAllocator@ATL@@@ATL@@QAE@XZ 00410c40 f i DataBaseEngineSink.obj
 0001:0000fc70       ??0?$CHeapPtrBase@DVCCRTAllocator@ATL@@@ATL@@IAE@XZ 00410c70 f i DataBaseEngineSink.obj
 0001:0000fca0       ??0?$CHeapPtrBase@_WVCCRTAllocator@ATL@@@ATL@@IAE@XZ 00410ca0 f i DataBaseEngineSink.obj
 0001:0000fcd0       ??0?$CTempldateHelper@UIDataBase@@@@QAE@ABU_GUID@@KPBD1@Z 00410cd0 f i DataBaseEngineSink.obj
 0001:0000fd80       ??0?$CTraceCategoryEx@$0CAAA@$0A@@ATL@@QAE@PBD@Z 00410d80 f i DataBaseEngineSink.obj
 0001:0000fdc0       ??0?$CW2AEX@$0IA@@ATL@@QAE@PB_W@Z 00410dc0 f i DataBaseEngineSink.obj
 0001:0000fe10       ??0CDataBaseEngineSink@@QAE@XZ 00410e10 f   DataBaseEngineSink.obj
 0001:0000ff70       ??0CDataBaseHelper@@QAE@XZ 00410f70 f i DataBaseEngineSink.obj
 0001:0000ffc0       ??0CPreserveLastError@ATL@@QAE@XZ 00410fc0 f i DataBaseEngineSink.obj
 0001:0000fff0       ??0CTime@ATL@@QAE@ABU_SYSTEMTIME@@H@Z 00410ff0 f i DataBaseEngineSink.obj
 0001:000100b0       ??0CTime@ATL@@QAE@HHHHHHH@Z 004110b0 f i DataBaseEngineSink.obj
 0001:00010540       ??0CTime@ATL@@QAE@_J@Z     00411540 f i DataBaseEngineSink.obj
 0001:00010570       ??0CTraceFileAndLineInfo@ATL@@QAE@PBDH@Z 00411570 f i DataBaseEngineSink.obj
 0001:000105b0       ??0IDataBaseEngineSink@@QAE@XZ 004115b0 f i DataBaseEngineSink.obj
 0001:000105e0       ??0_variant_t@@QAE@XZ      004115e0 f i DataBaseEngineSink.obj
 0001:00010610       ??1?$CHeapPtr@DVCCRTAllocator@ATL@@@ATL@@QAE@XZ 00411610 f i DataBaseEngineSink.obj
 0001:00010640       ??1?$CHeapPtr@_WVCCRTAllocator@ATL@@@ATL@@QAE@XZ 00411640 f i DataBaseEngineSink.obj
 0001:00010670       ??1?$CHeapPtrBase@DVCCRTAllocator@ATL@@@ATL@@QAE@XZ 00411670 f i DataBaseEngineSink.obj
 0001:000106a0       ??1?$CHeapPtrBase@_WVCCRTAllocator@ATL@@@ATL@@QAE@XZ 004116a0 f i DataBaseEngineSink.obj
 0001:000106d0       ??1?$CTempldateHelper@UIDataBase@@@@UAE@XZ 004116d0 f i DataBaseEngineSink.obj
 0001:00010740       ??1?$CW2AEX@$0IA@@ATL@@QAE@XZ 00411740 f i DataBaseEngineSink.obj
 0001:00010780       ??1CDataBaseEngineSink@@UAE@XZ 00411780 f   DataBaseEngineSink.obj
 0001:00010810       ??1CDataBaseHelper@@UAE@XZ 00411810 f i DataBaseEngineSink.obj
 0001:00010840       ??1CPreserveLastError@ATL@@QAE@XZ 00411840 f i DataBaseEngineSink.obj
 0001:00010870       ??1_variant_t@@QAE@XZ      00411870 f i DataBaseEngineSink.obj
 0001:000108a0       ??B?$CHeapPtrBase@DVCCRTAllocator@ATL@@@ATL@@QBEPADXZ 004118a0 f i DataBaseEngineSink.obj
 0001:000108c0       ??B?$CHeapPtrBase@_WVCCRTAllocator@ATL@@@ATL@@QBEPA_WXZ 004118c0 f i DataBaseEngineSink.obj
 0001:000108e0       ??B?$CTraceCategoryEx@$0CAAA@$0A@@ATL@@QAEIXZ 004118e0 f i DataBaseEngineSink.obj
 0001:00010900       ??B?$CW2AEX@$0IA@@ATL@@QBEPADXZ 00411900 f i DataBaseEngineSink.obj
 0001:00010920       ??C?$CTempldateHelper@UIDataBase@@@@QBEPAUIDataBase@@XZ 00411920 f i DataBaseEngineSink.obj
 0001:00010950       ??RCTraceFileAndLineInfo@ATL@@QBAXHIPBDZZ 00411950 f i DataBaseEngineSink.obj
 0001:00010a00       ??_G?$CTempldateHelper@UIDataBase@@@@UAEPAXI@Z 00411a00 f i DataBaseEngineSink.obj
 0001:00010a00       ??_E?$CTempldateHelper@UIDataBase@@@@UAEPAXI@Z 00411a00 f i DataBaseEngineSink.obj
 0001:00010a50       ??_ECDataBaseEngineSink@@UAEPAXI@Z 00411a50 f i DataBaseEngineSink.obj
 0001:00010a50       ??_GCDataBaseEngineSink@@UAEPAXI@Z 00411a50 f i DataBaseEngineSink.obj
 0001:00010aa0       ??_GCDataBaseHelper@@UAEPAXI@Z 00411aa0 f i DataBaseEngineSink.obj
 0001:00010aa0       ??_ECDataBaseHelper@@UAEPAXI@Z 00411aa0 f i DataBaseEngineSink.obj
 0001:00010af0       ?Allocate@?$CHeapPtr@DVCCRTAllocator@ATL@@@ATL@@QAE_NI@Z 00411af0 f i DataBaseEngineSink.obj
 0001:00010b50       ?Allocate@?$CHeapPtr@_WVCCRTAllocator@ATL@@@ATL@@QAE_NI@Z 00411b50 f i DataBaseEngineSink.obj
 0001:00010bb0       ?Allocate@CCRTAllocator@ATL@@SAPAXI@Z 00411bb0 f i DataBaseEngineSink.obj
 0001:00010be0       ?AllocateBytes@?$CHeapPtrBase@DVCCRTAllocator@ATL@@@ATL@@QAE_NI@Z 00411be0 f i DataBaseEngineSink.obj
 0001:00010c60       ?AllocateBytes@?$CHeapPtrBase@_WVCCRTAllocator@ATL@@@ATL@@QAE_NI@Z 00411c60 f i DataBaseEngineSink.obj
 0001:00010ce0       ?AtlThrowImpl@ATL@@YGXJ@Z  00411ce0 f i DataBaseEngineSink.obj
 0001:00010d60       ?AtlThrowLastWin32@ATL@@YGXXZ 00411d60 f i DataBaseEngineSink.obj
 0001:00010da0       ?CloseInstance@?$CTempldateHelper@UIDataBase@@@@QAE_NXZ 00411da0 f i DataBaseEngineSink.obj
 0001:00010e50       ?CreateInstance@?$CTempldateHelper@UIDataBase@@@@QAE_NXZ 00411e50 f i DataBaseEngineSink.obj
 0001:00011110       ?Free@?$CHeapPtrBase@DVCCRTAllocator@ATL@@@ATL@@QAEXXZ 00412110 f i DataBaseEngineSink.obj
 0001:00011150       ?Free@?$CHeapPtrBase@_WVCCRTAllocator@ATL@@@ATL@@QAEXXZ 00412150 f i DataBaseEngineSink.obj
 0001:00011190       ?Free@CCRTAllocator@ATL@@SAXPAX@Z 00412190 f i DataBaseEngineSink.obj
 0001:000111c0       ?GetCategoryName@CTrace@ATL@@CAPA_WI@Z 004121c0 f i DataBaseEngineSink.obj
 0001:00011230       ?GetInterface@?$CTempldateHelper@UIDataBase@@@@QBEPAUIDataBase@@XZ 00412230 f i DataBaseEngineSink.obj
 0001:00011260       ?GetTime@CTime@ATL@@QBE_JXZ 00412260 f i DataBaseEngineSink.obj
 0001:00011290       ?Init@?$CW2AEX@$0IA@@ATL@@AAEXPB_WI@Z 00412290 f i DataBaseEngineSink.obj
 0001:00011440       ?OnDataBaseEngineConclude@CDataBaseEngineSink@@UAE_NPAUIUnknownEx@@@Z 00412440 f   DataBaseEngineSink.obj
 0001:000115a0       ?OnDataBaseEngineControl@CDataBaseEngineSink@@UAE_NGPAXG@Z 004125a0 f   DataBaseEngineSink.obj
 0001:000115c0       ?OnDataBaseEngineRequest@CDataBaseEngineSink@@UAE_NGKPAXG@Z 004125c0 f   DataBaseEngineSink.obj
 0001:000118e0       ?OnDataBaseEngineStart@CDataBaseEngineSink@@UAE_NPAUIUnknownEx@@@Z 004128e0 f   DataBaseEngineSink.obj
 0001:00011d00       ?OnDataBaseEngineTimer@CDataBaseEngineSink@@UAE_NKI@Z 00412d00 f   DataBaseEngineSink.obj
 0001:00011d20       ?OnLogonDisposeResult@CDataBaseEngineSink@@AAEXKKPBD_NGG@Z 00412d20 f   DataBaseEngineSink.obj
 0001:00012090       ?OnRequestAddFriend@CDataBaseEngineSink@@IAE_NKPAXG@Z 00413090 f   DataBaseEngineSink.obj
 0001:00012640       ?OnRequestDeleteFriend@CDataBaseEngineSink@@IAE_NKPAXG@Z 00413640 f   DataBaseEngineSink.obj
 0001:000128d0       ?OnRequestLoadSystemMessage@CDataBaseEngineSink@@IAE_NKPAXG@Z 004138d0 f   DataBaseEngineSink.obj
 0001:00012d60       ?OnRequestLogonUserID@CDataBaseEngineSink@@IAE_NKPAXG@Z 00413d60 f   DataBaseEngineSink.obj
 0001:00013fc0       ?OnRequestModifyFriend@CDataBaseEngineSink@@IAE_NKPAXG@Z 00414fc0 f   DataBaseEngineSink.obj
 0001:00014320       ?OnRequestModifyGroup@CDataBaseEngineSink@@IAE_NKPAXG@Z 00415320 f   DataBaseEngineSink.obj
 0001:000147f0       ?OnRequestModifyRemarks@CDataBaseEngineSink@@IAE_NKPAXG@Z 004157f0 f   DataBaseEngineSink.obj
 0001:00014a80       ?OnRequestSaveOfflineMessage@CDataBaseEngineSink@@IAE_NKPAXG@Z 00415a80 f   DataBaseEngineSink.obj
 0001:00014ca0       ?OnRequestSearchUser@CDataBaseEngineSink@@IAE_NKPAXG@Z 00415ca0 f   DataBaseEngineSink.obj
 0001:00015090       ?OnRequestTrumpet@CDataBaseEngineSink@@IAE_NKPAXG@Z 00416090 f   DataBaseEngineSink.obj
 0001:00015350       ?OnRequestUpdatePlaceName@CDataBaseEngineSink@@IAE_NKPAXG@Z 00416350 f   DataBaseEngineSink.obj
 0001:00015530       ?OnUserOperateResult@CDataBaseEngineSink@@AAEXK_NKGPBD@Z 00416530 f   DataBaseEngineSink.obj
 0001:00015600       ?QueryInterface@CDataBaseEngineSink@@UAEPAXABU_GUID@@K@Z 00416600 f   DataBaseEngineSink.obj
 0001:000156b0       ?RegisterCategory@CTrace@ATL@@SAXPBDI@Z 004166b0 f i DataBaseEngineSink.obj
 0001:000157d0       ?Release@CDataBaseEngineSink@@UAEXXZ 004167d0 f i DataBaseEngineSink.obj
 0001:000157f0       ?TraceV@CTrace@ATL@@CAXPBDHIIPB_W@Z 004167f0 f i DataBaseEngineSink.obj
 0001:00015a80       ?TraceV@CTrace@ATL@@SAXPBDHII0PAD@Z 00416a80 f i DataBaseEngineSink.obj
 0001:00015cb0       ?_AtlGetConversionACP@ATL@@YGIXZ 00416cb0 f i DataBaseEngineSink.obj
 0001:00015cd0       _HRESULT_FROM_WIN32        00416cd0 f i DataBaseEngineSink.obj
 0001:00015d20       __vscprintf                00416d20 f i DataBaseEngineSink.obj
 0001:00015d50       __vscprintf_l              00416d50 f i DataBaseEngineSink.obj
 0001:00015dc0       __vsnprintf_s              00416dc0 f i DataBaseEngineSink.obj
 0001:00015e00       __vsnprintf_s_l            00416e00 f i DataBaseEngineSink.obj
 0001:00015e70       __vswprintf_s_l            00416e70 f i DataBaseEngineSink.obj
 0001:00015ee0       _swprintf_s                00416ee0 f i DataBaseEngineSink.obj
 0001:00015f30       ??0CInitParameter@@QAE@XZ  00416f30 f   InitParameter.obj
 0001:00015f60       ??1CInitParameter@@UAE@XZ  00416f60 f   InitParameter.obj
 0001:00015f90       ?InitParameter@CInitParameter@@QAEXXZ 00416f90 f   InitParameter.obj
 0001:000160c0       ?LoadInitParameter@CInitParameter@@QAEXXZ 004170c0 f   InitParameter.obj
 0001:00016840       ??$CompareElements@KK@@YGHPBK0@Z 00417840 f i ServerUserManager.obj
 0001:00016940       ??$DumpElements@K@@YGXAAVCDumpContext@@PBKH@Z 00417940 f i ServerUserManager.obj
 0001:000169f0       ??$DumpElements@PAVCServerUserItem@@@@YGXAAVCDumpContext@@PBQAVCServerUserItem@@H@Z 004179f0 f i ServerUserManager.obj
 0001:00016aa0       ??$DumpElements@PAVCUserFriendGroup@@@@YGXAAVCDumpContext@@PBQAVCUserFriendGroup@@H@Z 00417aa0 f i ServerUserManager.obj
 0001:00016b50       ??$HashKey@K@@YGIK@Z       00417b50 f i ServerUserManager.obj
 0001:00016bc0       ??$SerializeElements@K@@YGXAAVCArchive@@PAKH@Z 00417bc0 f i ServerUserManager.obj
 0001:00016d60       ??$SerializeElements@PAVCServerUserItem@@@@YGXAAVCArchive@@PAPAVCServerUserItem@@H@Z 00417d60 f i ServerUserManager.obj
 0001:00016f00       ??$SerializeElements@PAVCUserFriendGroup@@@@YGXAAVCArchive@@PAPAVCUserFriendGroup@@H@Z 00417f00 f i ServerUserManager.obj
 0001:000170a0       ??0?$CMap@KKPAVCServerUserItem@@PAV1@@@QAE@H@Z 004180a0 f i ServerUserManager.obj
 0001:00017190       ??0?$CMap@KKPAVCUserFriendGroup@@PAV1@@@QAE@H@Z 00418190 f i ServerUserManager.obj
 0001:00017280       ??0?$CWHArray@PAUtagNearUserInfo@@ABQAU1@@@QAE@XZ 00418280 f i ServerUserManager.obj
 0001:000172e0       ??0?$CWHArray@PAVCServerUserItem@@ABQAV1@@@QAE@XZ 004182e0 f i ServerUserManager.obj
 0001:00017340       ??0?$CWHArray@PAVCUserFriendGroup@@ABQAV1@@@QAE@XZ 00418340 f i ServerUserManager.obj
 0001:000173a0       ??0CAssoc@?$CMap@KKPAVCServerUserItem@@PAV1@@@QAE@K@Z 004183a0 f i ServerUserManager.obj
 0001:000173d0       ??0CAssoc@?$CMap@KKPAVCUserFriendGroup@@PAV1@@@QAE@K@Z 004183d0 f i ServerUserManager.obj
 0001:00017400       ??0CFriendGroupManager@@QAE@XZ 00418400 f   ServerUserManager.obj
 0001:000174c0       ??0CLocalUserItem@@IAE@XZ  004184c0 f   ServerUserManager.obj
 0001:00017570       ??0CNearUserManager@@QAE@XZ 00418570 f   ServerUserManager.obj
 0001:000175b0       ??0CPair@?$CMap@KKPAVCServerUserItem@@PAV1@@@IAE@K@Z 004185b0 f i ServerUserManager.obj
 0001:000175e0       ??0CPair@?$CMap@KKPAVCUserFriendGroup@@PAV1@@@IAE@K@Z 004185e0 f i ServerUserManager.obj
 0001:00017610       ??0CServerUserItem@@IAE@W4enUserItemKind@@@Z 00418610 f   ServerUserManager.obj
 0001:00017650       ??0CServerUserManager@@QAE@XZ 00418650 f   ServerUserManager.obj
 0001:00017720       ??0CUserFriendGroup@@QAE@XZ 00418720 f   ServerUserManager.obj
 0001:00017780       ??0Cltladistance@@QAE@XZ   00418780 f   ServerUserManager.obj
 0001:000177b0       ??1?$CMap@KKPAVCServerUserItem@@PAV1@@@UAE@XZ 004187b0 f i ServerUserManager.obj
 0001:00017840       ??1?$CMap@KKPAVCUserFriendGroup@@PAV1@@@UAE@XZ 00418840 f i ServerUserManager.obj
 0001:000178d0       ??1?$CWHArray@PAUtagNearUserInfo@@ABQAU1@@@UAE@XZ 004188d0 f i ServerUserManager.obj
 0001:00017950       ??1?$CWHArray@PAVCServerUserItem@@ABQAV1@@@UAE@XZ 00418950 f i ServerUserManager.obj
 0001:000179d0       ??1?$CWHArray@PAVCUserFriendGroup@@ABQAV1@@@UAE@XZ 004189d0 f i ServerUserManager.obj
 0001:00017a50       ??1CFriendGroupManager@@UAE@XZ 00418a50 f   ServerUserManager.obj
 0001:00017cd0       ??1CLocalUserItem@@MAE@XZ  00418cd0 f   ServerUserManager.obj
 0001:00017d00       ??1CNearUserManager@@UAE@XZ 00418d00 f   ServerUserManager.obj
 0001:00017e40       ??1CServerUserItem@@MAE@XZ 00418e40 f   ServerUserManager.obj
 0001:00017e70       ??1CServerUserManager@@UAE@XZ 00418e70 f   ServerUserManager.obj
 0001:00018100       ??1CUserFriendGroup@@UAE@XZ 00419100 f   ServerUserManager.obj
 0001:000181e0       ??1Cltladistance@@UAE@XZ   004191e0 f   ServerUserManager.obj
 0001:00018210       ??A?$CMap@KKPAVCServerUserItem@@PAV1@@@QAEAAPAVCServerUserItem@@K@Z 00419210 f i ServerUserManager.obj
 0001:00018340       ??A?$CMap@KKPAVCUserFriendGroup@@PAV1@@@QAEAAPAVCUserFriendGroup@@K@Z 00419340 f i ServerUserManager.obj
 0001:00018470       ??A?$CWHArray@PAUtagNearUserInfo@@ABQAU1@@@QAEAAPAUtagNearUserInfo@@H@Z 00419470 f i ServerUserManager.obj
 0001:000184a0       ??A?$CWHArray@PAVCServerUserItem@@ABQAV1@@@QAEAAPAVCServerUserItem@@H@Z 004194a0 f i ServerUserManager.obj
 0001:000184d0       ??A?$CWHArray@PAVCUserFriendGroup@@ABQAV1@@@QAEAAPAVCUserFriendGroup@@H@Z 004194d0 f i ServerUserManager.obj
 0001:00018500       ??_G?$CMap@KKPAVCServerUserItem@@PAV1@@@UAEPAXI@Z 00419500 f i ServerUserManager.obj
 0001:00018500       ??_E?$CMap@KKPAVCServerUserItem@@PAV1@@@UAEPAXI@Z 00419500 f i ServerUserManager.obj
 0001:00018560       ??_G?$CMap@KKPAVCUserFriendGroup@@PAV1@@@UAEPAXI@Z 00419560 f i ServerUserManager.obj
 0001:00018560       ??_E?$CMap@KKPAVCUserFriendGroup@@PAV1@@@UAEPAXI@Z 00419560 f i ServerUserManager.obj
 0001:000185c0       ??_E?$CWHArray@PAUtagNearUserInfo@@ABQAU1@@@UAEPAXI@Z 004195c0 f i ServerUserManager.obj
 0001:000185c0       ??_G?$CWHArray@PAUtagNearUserInfo@@ABQAU1@@@UAEPAXI@Z 004195c0 f i ServerUserManager.obj
 0001:00018610       ??_G?$CWHArray@PAVCServerUserItem@@ABQAV1@@@UAEPAXI@Z 00419610 f i ServerUserManager.obj
 0001:00018610       ??_E?$CWHArray@PAVCServerUserItem@@ABQAV1@@@UAEPAXI@Z 00419610 f i ServerUserManager.obj
 0001:00018660       ??_E?$CWHArray@PAVCUserFriendGroup@@ABQAV1@@@UAEPAXI@Z 00419660 f i ServerUserManager.obj
 0001:00018660       ??_G?$CWHArray@PAVCUserFriendGroup@@ABQAV1@@@UAEPAXI@Z 00419660 f i ServerUserManager.obj
 0001:000186b0       ??_GCFriendGroupManager@@UAEPAXI@Z 004196b0 f i ServerUserManager.obj
 0001:000186b0       ??_ECFriendGroupManager@@UAEPAXI@Z 004196b0 f i ServerUserManager.obj
 0001:00018700       ??_GCLocalUserItem@@MAEPAXI@Z 00419700 f i ServerUserManager.obj
 0001:00018700       ??_ECLocalUserItem@@MAEPAXI@Z 00419700 f i ServerUserManager.obj
 0001:00018750       ??_ECNearUserManager@@UAEPAXI@Z 00419750 f i ServerUserManager.obj
 0001:00018750       ??_GCNearUserManager@@UAEPAXI@Z 00419750 f i ServerUserManager.obj
 0001:000187a0       ??_GCServerUserItem@@MAEPAXI@Z 004197a0 f i ServerUserManager.obj
 0001:000187a0       ??_ECServerUserItem@@MAEPAXI@Z 004197a0 f i ServerUserManager.obj
 0001:000187f0       ??_GCServerUserManager@@UAEPAXI@Z 004197f0 f i ServerUserManager.obj
 0001:000187f0       ??_ECServerUserManager@@UAEPAXI@Z 004197f0 f i ServerUserManager.obj
 0001:00018840       ??_ECUserFriendGroup@@UAEPAXI@Z 00419840 f i ServerUserManager.obj
 0001:00018840       ??_GCUserFriendGroup@@UAEPAXI@Z 00419840 f i ServerUserManager.obj
 0001:00018890       ??_ECltladistance@@UAEPAXI@Z 00419890 f i ServerUserManager.obj
 0001:00018890       ??_GCltladistance@@UAEPAXI@Z 00419890 f i ServerUserManager.obj
 0001:000188e0       ?ActiveFriendGroup@CFriendGroupManager@@QAEPAVCUserFriendGroup@@G@Z 004198e0 f   ServerUserManager.obj
 0001:00018b50       ?Add@?$CWHArray@PAUtagNearUserInfo@@ABQAU1@@@QAEHABQAUtagNearUserInfo@@@Z 00419b50 f i ServerUserManager.obj
 0001:00018b90       ?Add@?$CWHArray@PAVCServerUserItem@@ABQAV1@@@QAEHABQAVCServerUserItem@@@Z 00419b90 f i ServerUserManager.obj
 0001:00018bd0       ?Add@?$CWHArray@PAVCUserFriendGroup@@ABQAV1@@@QAEHABQAVCUserFriendGroup@@@Z 00419bd0 f i ServerUserManager.obj
 0001:00018c10       ?AllocMemory@?$CWHArray@PAUtagNearUserInfo@@ABQAU1@@@QAEXH@Z 00419c10 f i ServerUserManager.obj
 0001:00018d80       ?AllocMemory@?$CWHArray@PAVCServerUserItem@@ABQAV1@@@QAEXH@Z 00419d80 f i ServerUserManager.obj
 0001:00018ef0       ?AllocMemory@?$CWHArray@PAVCUserFriendGroup@@ABQAV1@@@QAEXH@Z 00419ef0 f i ServerUserManager.obj
 0001:00019060       ?AllocateContent@CUserFriendGroup@@AAEPAUtagServerFriendInfo@@G@Z 0041a060 f   ServerUserManager.obj
 0001:00019200       ?Append@?$CWHArray@PAVCServerUserItem@@ABQAV1@@@QAEHABV1@@Z 0041a200 f i ServerUserManager.obj
 0001:000192f0       ?Append@?$CWHArray@PAVCUserFriendGroup@@ABQAV1@@@QAEHABV1@@Z 0041a2f0 f i ServerUserManager.obj
 0001:000193e0       ?AppendFriendInfo@CUserFriendGroup@@QAE_NAAUtagServerFriendInfo@@@Z 0041a3e0 f   ServerUserManager.obj
 0001:000194b0       ?AssertValid@?$CMap@KKPAVCServerUserItem@@PAV1@@@UBEXXZ 0041a4b0 f i ServerUserManager.obj
 0001:00019530       ?AssertValid@?$CMap@KKPAVCUserFriendGroup@@PAV1@@@UBEXXZ 0041a530 f i ServerUserManager.obj
 0001:000195b0       ?ContrastLogonPass@CLocalUserItem@@UAE_NPBD@Z 0041a5b0 f   ServerUserManager.obj
 0001:00019670       ?ContrastNickName@CLocalUserItem@@UAE_NPBD@Z 0041a670 f   ServerUserManager.obj
 0001:00019730       ?DeleteFriendGroup@CFriendGroupManager@@UAE_NK@Z 0041a730 f   ServerUserManager.obj
 0001:00019830       ?DeleteFriendGroup@CFriendGroupManager@@UAE_NXZ 0041a830 f   ServerUserManager.obj
 0001:00019880       ?DeleteUserItem@CServerUserManager@@UAE_NK@Z 0041a880 f   ServerUserManager.obj
 0001:00019980       ?DeleteUserItem@CServerUserManager@@UAE_NXZ 0041a980 f   ServerUserManager.obj
 0001:000199d0       ?Dump@?$CMap@KKPAVCServerUserItem@@PAV1@@@UBEXAAVCDumpContext@@@Z 0041a9d0 f i ServerUserManager.obj
 0001:00019ae0       ?Dump@?$CMap@KKPAVCUserFriendGroup@@PAV1@@@UBEXAAVCDumpContext@@@Z 0041aae0 f i ServerUserManager.obj
 0001:00019bf0       ?ElementAt@?$CWHArray@PAUtagNearUserInfo@@ABQAU1@@@QAEAAPAUtagNearUserInfo@@H@Z 0041abf0 f i ServerUserManager.obj
 0001:00019c70       ?ElementAt@?$CWHArray@PAVCServerUserItem@@ABQAV1@@@QAEAAPAVCServerUserItem@@H@Z 0041ac70 f i ServerUserManager.obj
 0001:00019cf0       ?ElementAt@?$CWHArray@PAVCUserFriendGroup@@ABQAV1@@@QAEAAPAVCUserFriendGroup@@H@Z 0041acf0 f i ServerUserManager.obj
 0001:00019d70       ?EnumFriendItem@CUserFriendGroup@@QAEPAUtagServerFriendInfo@@G@Z 0041ad70 f   ServerUserManager.obj
 0001:00019dc0       ?EnumGroupItem@CFriendGroupManager@@UAEPAVCUserFriendGroup@@G@Z 0041adc0 f   ServerUserManager.obj
 0001:00019e10       ?EnumUserItem@CNearUserManager@@UAEPAUtagNearUserInfo@@K@Z 0041ae10 f   ServerUserManager.obj
 0001:00019e60       ?EnumUserItem@CServerUserManager@@UAEPAVCServerUserItem@@G@Z 0041ae60 f   ServerUserManager.obj
 0001:00019eb0       ?ExtendGroupContent@CUserFriendGroup@@AAE_NG@Z 0041aeb0 f   ServerUserManager.obj
 0001:0001a030       ?FreeAssoc@?$CMap@KKPAVCServerUserItem@@PAV1@@@IAEXPAVCAssoc@1@@Z 0041b030 f i ServerUserManager.obj
 0001:0001a0b0       ?FreeAssoc@?$CMap@KKPAVCUserFriendGroup@@PAV1@@@IAEXPAVCAssoc@1@@Z 0041b0b0 f i ServerUserManager.obj
 0001:0001a130       ?GetAssocAt@?$CMap@KKPAVCServerUserItem@@PAV1@@@IBEPAVCAssoc@1@KAAI0@Z 0041b130 f i ServerUserManager.obj
 0001:0001a1e0       ?GetAssocAt@?$CMap@KKPAVCUserFriendGroup@@PAV1@@@IBEPAVCAssoc@1@KAAI0@Z 0041b1e0 f i ServerUserManager.obj
 0001:0001a290       ?GetClientAddr@CLocalUserItem@@UAEKXZ 0041b290 f i ServerUserManager.obj
 0001:0001a2c0       ?GetCount@?$CWHArray@PAVCServerUserItem@@ABQAV1@@@QBEHXZ 0041b2c0 f i ServerUserManager.obj
 0001:0001a2e0       ?GetCount@?$CWHArray@PAVCUserFriendGroup@@ABQAV1@@@QBEHXZ 0041b2e0 f i ServerUserManager.obj
 0001:0001a300       ?GetDistance@Cltladistance@@QAENNNNN@Z 0041b300 f i ServerUserManager.obj
 0001:0001a5b0       ?GetGameID@CLocalUserItem@@UAEKXZ 0041b5b0 f i ServerUserManager.obj
 0001:0001a5d0       ?GetGameStatus@CLocalUserItem@@UAEEXZ 0041b5d0 f i ServerUserManager.obj
 0001:0001a600       ?GetGender@CLocalUserItem@@UAEEXZ 0041b600 f i ServerUserManager.obj
 0001:0001a620       ?GetGroupContent@CUserFriendGroup@@QAEGXZ 0041b620 f i ServerUserManager.obj
 0001:0001a640       ?GetLogonTime@CLocalUserItem@@UAEKXZ 0041b640 f i ServerUserManager.obj
 0001:0001a670       ?GetMainStatus@CLocalUserItem@@UAEEXZ 0041b670 f i ServerUserManager.obj
 0001:0001a6a0       ?GetNearUserItem@CServerUserManager@@UAEKKAAVCNearUserManager@@@Z 0041b6a0 f   ServerUserManager.obj
 0001:0001a990       ?GetNextAssoc@?$CMap@KKPAVCServerUserItem@@PAV1@@@QBEXAAPAU__POSITION@@AAKAAPAVCServerUserItem@@@Z 0041b990 f i ServerUserManager.obj
 0001:0001abe0       ?GetNextAssoc@?$CMap@KKPAVCUserFriendGroup@@PAV1@@@QBEXAAPAU__POSITION@@AAKAAPAVCUserFriendGroup@@@Z 0041bbe0 f i ServerUserManager.obj
 0001:0001ae30       ?GetNickName@CLocalUserItem@@UAEPBDXZ 0041be30 f i ServerUserManager.obj
 0001:0001ae50       ?GetOwnerUserID@CUserFriendGroup@@QAEKXZ 0041be50 f i ServerUserManager.obj
 0001:0001ae70       ?GetRadian@Cltladistance@@QAENN@Z 0041be70 f i ServerUserManager.obj
 0001:0001aeb0       ?GetRound@Cltladistance@@QAEKN@Z 0041beb0 f i ServerUserManager.obj
 0001:0001af40       ?GetServerID@CLocalUserItem@@UAEGXZ 0041bf40 f i ServerUserManager.obj
 0001:0001af70       ?GetSocketID@CLocalUserItem@@UAEKXZ 0041bf70 f i ServerUserManager.obj
 0001:0001afa0       ?GetStartPosition@?$CMap@KKPAVCServerUserItem@@PAV1@@@QBEPAU__POSITION@@XZ 0041bfa0 f i ServerUserManager.obj
 0001:0001afe0       ?GetStartPosition@?$CMap@KKPAVCUserFriendGroup@@PAV1@@@QBEPAU__POSITION@@XZ 0041bfe0 f i ServerUserManager.obj
 0001:0001b020       ?GetTableID@CLocalUserItem@@UAEGXZ 0041c020 f i ServerUserManager.obj
 0001:0001b050       ?GetUserID@CLocalUserItem@@UAEKXZ 0041c050 f i ServerUserManager.obj
 0001:0001b070       ?GetUserInfo@CLocalUserItem@@UAEPAUtagFriendUserInfo@@XZ 0041c070 f i ServerUserManager.obj
 0001:0001b090       ?GetUserItemCount@CServerUserManager@@UAEKXZ 0041c090 f i ServerUserManager.obj
 0001:0001b0c0       ?InitFriendGroup@CUserFriendGroup@@QAE_NG@Z 0041c0c0 f   ServerUserManager.obj
 0001:0001b130       ?InitHashTable@?$CMap@KKPAVCServerUserItem@@PAV1@@@QAEXIH@Z 0041c130 f i ServerUserManager.obj
 0001:0001b2b0       ?InitHashTable@?$CMap@KKPAVCUserFriendGroup@@PAV1@@@QAEXIH@Z 0041c2b0 f i ServerUserManager.obj
 0001:0001b430       ?InsertAt@?$CWHArray@PAUtagNearUserInfo@@ABQAU1@@@QAEXHABQAUtagNearUserInfo@@H@Z 0041c430 f i ServerUserManager.obj
 0001:0001b660       ?InsertFriendGroup@CFriendGroupManager@@UAE_NKPAVCUserFriendGroup@@@Z 0041c660 f   ServerUserManager.obj
 0001:0001b6c0       ?InsertLocalUserItem@CServerUserManager@@UAE_NAAUtagInsertLocalUserInfo@@AAUtagFriendUserInfo@@PBD@Z 0041c6c0 f   ServerUserManager.obj
 0001:0001b8e0       ?InsertNearUserItem@CNearUserManager@@UAE_NAAUtagNearUserInfo@@@Z 0041c8e0 f   ServerUserManager.obj
 0001:0001ba90       ?ModifyLogonPassword@CLocalUserItem@@QAEXPBD@Z 0041ca90 f   ServerUserManager.obj
 0001:0001bad0       ?NewAssoc@?$CMap@KKPAVCServerUserItem@@PAV1@@@IAEPAVCAssoc@1@K@Z 0041cad0 f i ServerUserManager.obj
 0001:0001bc90       ?NewAssoc@?$CMap@KKPAVCUserFriendGroup@@PAV1@@@IAEPAVCAssoc@1@K@Z 0041cc90 f i ServerUserManager.obj
 0001:0001be50       ?QueryNearUserItem@CServerUserManager@@UAEKKKAAVCNearUserManager@@@Z 0041ce50 f   ServerUserManager.obj
 0001:0001c0d0       ?RemoveAll@?$CMap@KKPAVCServerUserItem@@PAV1@@@QAEXXZ 0041d0d0 f i ServerUserManager.obj
 0001:0001c1c0       ?RemoveAll@?$CMap@KKPAVCUserFriendGroup@@PAV1@@@QAEXXZ 0041d1c0 f i ServerUserManager.obj
 0001:0001c2b0       ?RemoveAll@?$CWHArray@PAUtagNearUserInfo@@ABQAU1@@@QAEXXZ 0041d2b0 f i ServerUserManager.obj
 0001:0001c330       ?RemoveAll@?$CWHArray@PAVCServerUserItem@@ABQAV1@@@QAEXXZ 0041d330 f i ServerUserManager.obj
 0001:0001c3b0       ?RemoveAll@?$CWHArray@PAVCUserFriendGroup@@ABQAV1@@@QAEXXZ 0041d3b0 f i ServerUserManager.obj
 0001:0001c430       ?RemoveAt@?$CWHArray@PAVCServerUserItem@@ABQAV1@@@QAEXHH@Z 0041d430 f i ServerUserManager.obj
 0001:0001c570       ?RemoveAt@?$CWHArray@PAVCUserFriendGroup@@ABQAV1@@@QAEXHH@Z 0041d570 f i ServerUserManager.obj
 0001:0001c6b0       ?RemoveFriendInfo@CUserFriendGroup@@QAE_NK@Z 0041d6b0 f   ServerUserManager.obj
 0001:0001c770       ?RemoveKey@?$CMap@KKPAVCServerUserItem@@PAV1@@@QAEHK@Z 0041d770 f i ServerUserManager.obj
 0001:0001c860       ?RemoveKey@?$CMap@KKPAVCUserFriendGroup@@PAV1@@@QAEHK@Z 0041d860 f i ServerUserManager.obj
 0001:0001c950       ?ResetFriendGroup@CUserFriendGroup@@QAEXXZ 0041d950 f   ServerUserManager.obj
 0001:0001c9b0       ?ResetUserItem@CLocalUserItem@@EAEXXZ 0041d9b0 f   ServerUserManager.obj
 0001:0001ca10       ?SearchFriendItem@CUserFriendGroup@@QAEPAUtagServerFriendInfo@@K@Z 0041da10 f   ServerUserManager.obj
 0001:0001ca90       ?SearchGroupItem@CFriendGroupManager@@UAEPAVCUserFriendGroup@@K@Z 0041da90 f   ServerUserManager.obj
 0001:0001cac0       ?SearchUserItem@CServerUserManager@@UAEPAVCServerUserItem@@K@Z 0041dac0 f   ServerUserManager.obj
 0001:0001caf0       ?Serialize@?$CMap@KKPAVCServerUserItem@@PAV1@@@UAEXAAVCArchive@@@Z 0041daf0 f i ServerUserManager.obj
 0001:0001cca0       ?Serialize@?$CMap@KKPAVCUserFriendGroup@@PAV1@@@UAEXAAVCArchive@@@Z 0041dca0 f i ServerUserManager.obj
 0001:0001ce50       ?SetAt@?$CMap@KKPAVCServerUserItem@@PAV1@@@QAEXKPAVCServerUserItem@@@Z 0041de50 f i ServerUserManager.obj
 0001:0001ce80       ?SetAt@?$CMap@KKPAVCUserFriendGroup@@PAV1@@@QAEXKPAVCUserFriendGroup@@@Z 0041de80 f i ServerUserManager.obj
 0001:0001ceb0       ?SetAtGrow@?$CWHArray@PAUtagNearUserInfo@@ABQAU1@@@QAEXHABQAUtagNearUserInfo@@@Z 0041deb0 f i ServerUserManager.obj
 0001:0001cf40       ?SetAtGrow@?$CWHArray@PAVCServerUserItem@@ABQAV1@@@QAEXHABQAVCServerUserItem@@@Z 0041df40 f i ServerUserManager.obj
 0001:0001cfd0       ?SetAtGrow@?$CWHArray@PAVCUserFriendGroup@@ABQAV1@@@QAEXHABQAVCUserFriendGroup@@@Z 0041dfd0 f i ServerUserManager.obj
 0001:0001d060       ?SetGameStatus@CLocalUserItem@@UAEXEGG@Z 0041e060 f   ServerUserManager.obj
 0001:0001d0b0       ?SetLogonTime@CLocalUserItem@@UAEXK@Z 0041e0b0 f i ServerUserManager.obj
 0001:0001d0e0       ?SetMainStatus@CLocalUserItem@@UAEXE@Z 0041e0e0 f i ServerUserManager.obj
 0001:0001d110       ?SetSize@?$CWHArray@PAUtagNearUserInfo@@ABQAU1@@@QAEXH@Z 0041e110 f i ServerUserManager.obj
 0001:0001d230       ?SetSize@?$CWHArray@PAVCServerUserItem@@ABQAV1@@@QAEXH@Z 0041e230 f i ServerUserManager.obj
 0001:0001d350       ?SetSize@?$CWHArray@PAVCUserFriendGroup@@ABQAV1@@@QAEXH@Z 0041e350 f i ServerUserManager.obj
 0001:0001d470       ?SetSocketID@CLocalUserItem@@UAEXK@Z 0041e470 f i ServerUserManager.obj
 0001:0001d4a0       ?data@CPlex@@QAEPAXXZ      0041e4a0 f i ServerUserManager.obj
 0001:0001d4c0       ?pow@@YANNH@Z              0041e4c0 f i ServerUserManager.obj
 0001:0001d520       ?OnUIControlRequest@CServiceUnits@@IAEJIJ@Z 0041e520 f   ServiceUnits.obj
 0001:0001d940       ??0?$CTempldateHelper@UIAttemperEngine@@@@QAE@ABU_GUID@@KPBD1@Z 0041e940 f i ServiceUnits.obj
 0001:0001d9f0       ??0?$CTempldateHelper@UIDataBaseEngine@@@@QAE@ABU_GUID@@KPBD1@Z 0041e9f0 f i ServiceUnits.obj
 0001:0001daa0       ??0?$CTempldateHelper@UITCPNetworkEngine@@@@QAE@ABU_GUID@@KPBD1@Z 0041eaa0 f i ServiceUnits.obj
 0001:0001db50       ??0?$CTempldateHelper@UITCPSocketService@@@@QAE@ABU_GUID@@KPBD1@Z 0041eb50 f i ServiceUnits.obj
 0001:0001dc00       ??0?$CTempldateHelper@UITimerEngine@@@@QAE@ABU_GUID@@KPBD1@Z 0041ec00 f i ServiceUnits.obj
 0001:0001dcb0       ??0CAttemperEngineHelper@@QAE@XZ 0041ecb0 f i ServiceUnits.obj
 0001:0001dd00       ??0CDataBaseEngineHelper@@QAE@XZ 0041ed00 f i ServiceUnits.obj
 0001:0001dd50       ??0CRect@@QAE@HHHH@Z       0041ed50 f i ServiceUnits.obj
 0001:0001dda0       ??0CServiceUnits@@QAE@XZ   0041eda0 f   ServiceUnits.obj
 0001:0001df70       ??0CTCPNetworkEngineHelper@@QAE@XZ 0041ef70 f i ServiceUnits.obj
 0001:0001dfc0       ??0CTCPSocketServiceHelper@@QAE@XZ 0041efc0 f i ServiceUnits.obj
 0001:0001e010       ??0CTimerEngineHelper@@QAE@XZ 0041f010 f i ServiceUnits.obj
 0001:0001e060       ??1?$CTempldateHelper@UIAttemperEngine@@@@UAE@XZ 0041f060 f i ServiceUnits.obj
 0001:0001e0d0       ??1?$CTempldateHelper@UIDataBaseEngine@@@@UAE@XZ 0041f0d0 f i ServiceUnits.obj
 0001:0001e140       ??1?$CTempldateHelper@UITCPNetworkEngine@@@@UAE@XZ 0041f140 f i ServiceUnits.obj
 0001:0001e1b0       ??1?$CTempldateHelper@UITCPSocketService@@@@UAE@XZ 0041f1b0 f i ServiceUnits.obj
 0001:0001e220       ??1?$CTempldateHelper@UITimerEngine@@@@UAE@XZ 0041f220 f i ServiceUnits.obj
 0001:0001e290       ??1CAttemperEngineHelper@@UAE@XZ 0041f290 f i ServiceUnits.obj
 0001:0001e2c0       ??1CDataBaseEngineHelper@@UAE@XZ 0041f2c0 f i ServiceUnits.obj
 0001:0001e2f0       ??1CServiceUnits@@UAE@XZ   0041f2f0 f   ServiceUnits.obj
 0001:0001e420       ??1CTCPNetworkEngineHelper@@UAE@XZ 0041f420 f i ServiceUnits.obj
 0001:0001e450       ??1CTCPSocketServiceHelper@@UAE@XZ 0041f450 f i ServiceUnits.obj
 0001:0001e480       ??1CTimerEngineHelper@@UAE@XZ 0041f480 f i ServiceUnits.obj
 0001:0001e4b0       ??C?$CTempldateHelper@UIAttemperEngine@@@@QBEPAUIAttemperEngine@@XZ 0041f4b0 f i ServiceUnits.obj
 0001:0001e4e0       ??C?$CTempldateHelper@UIDataBaseEngine@@@@QBEPAUIDataBaseEngine@@XZ 0041f4e0 f i ServiceUnits.obj
 0001:0001e510       ??C?$CTempldateHelper@UITCPNetworkEngine@@@@QBEPAUITCPNetworkEngine@@XZ 0041f510 f i ServiceUnits.obj
 0001:0001e540       ??C?$CTempldateHelper@UITCPSocketService@@@@QBEPAUITCPSocketService@@XZ 0041f540 f i ServiceUnits.obj
 0001:0001e570       ??C?$CTempldateHelper@UITimerEngine@@@@QBEPAUITimerEngine@@XZ 0041f570 f i ServiceUnits.obj
 0001:0001e5a0       ??_E?$CTempldateHelper@UIAttemperEngine@@@@UAEPAXI@Z 0041f5a0 f i ServiceUnits.obj
 0001:0001e5a0       ??_G?$CTempldateHelper@UIAttemperEngine@@@@UAEPAXI@Z 0041f5a0 f i ServiceUnits.obj
 0001:0001e5f0       ??_G?$CTempldateHelper@UIDataBaseEngine@@@@UAEPAXI@Z 0041f5f0 f i ServiceUnits.obj
 0001:0001e5f0       ??_E?$CTempldateHelper@UIDataBaseEngine@@@@UAEPAXI@Z 0041f5f0 f i ServiceUnits.obj
 0001:0001e640       ??_E?$CTempldateHelper@UITCPNetworkEngine@@@@UAEPAXI@Z 0041f640 f i ServiceUnits.obj
 0001:0001e640       ??_G?$CTempldateHelper@UITCPNetworkEngine@@@@UAEPAXI@Z 0041f640 f i ServiceUnits.obj
 0001:0001e690       ??_E?$CTempldateHelper@UITCPSocketService@@@@UAEPAXI@Z 0041f690 f i ServiceUnits.obj
 0001:0001e690       ??_G?$CTempldateHelper@UITCPSocketService@@@@UAEPAXI@Z 0041f690 f i ServiceUnits.obj
 0001:0001e6e0       ??_G?$CTempldateHelper@UITimerEngine@@@@UAEPAXI@Z 0041f6e0 f i ServiceUnits.obj
 0001:0001e6e0       ??_E?$CTempldateHelper@UITimerEngine@@@@UAEPAXI@Z 0041f6e0 f i ServiceUnits.obj
 0001:0001e730       ??_ECAttemperEngineHelper@@UAEPAXI@Z 0041f730 f i ServiceUnits.obj
 0001:0001e730       ??_GCAttemperEngineHelper@@UAEPAXI@Z 0041f730 f i ServiceUnits.obj
 0001:0001e780       ??_GCDataBaseEngineHelper@@UAEPAXI@Z 0041f780 f i ServiceUnits.obj
 0001:0001e780       ??_ECDataBaseEngineHelper@@UAEPAXI@Z 0041f780 f i ServiceUnits.obj
 0001:0001e7d0       ??_ECServiceUnits@@UAEPAXI@Z 0041f7d0 f i ServiceUnits.obj
 0001:0001e7d0       ??_GCServiceUnits@@UAEPAXI@Z 0041f7d0 f i ServiceUnits.obj
 0001:0001e830       ??_GCTCPNetworkEngineHelper@@UAEPAXI@Z 0041f830 f i ServiceUnits.obj
 0001:0001e830       ??_ECTCPNetworkEngineHelper@@UAEPAXI@Z 0041f830 f i ServiceUnits.obj
 0001:0001e880       ??_GCTCPSocketServiceHelper@@UAEPAXI@Z 0041f880 f i ServiceUnits.obj
 0001:0001e880       ??_ECTCPSocketServiceHelper@@UAEPAXI@Z 0041f880 f i ServiceUnits.obj
 0001:0001e8d0       ??_ECTimerEngineHelper@@UAEPAXI@Z 0041f8d0 f i ServiceUnits.obj
 0001:0001e8d0       ??_GCTimerEngineHelper@@UAEPAXI@Z 0041f8d0 f i ServiceUnits.obj
 0001:0001e920       ?CloseInstance@?$CTempldateHelper@UIAttemperEngine@@@@QAE_NXZ 0041f920 f i ServiceUnits.obj
 0001:0001e9d0       ?CloseInstance@?$CTempldateHelper@UIDataBaseEngine@@@@QAE_NXZ 0041f9d0 f i ServiceUnits.obj
 0001:0001ea80       ?CloseInstance@?$CTempldateHelper@UITCPNetworkEngine@@@@QAE_NXZ 0041fa80 f i ServiceUnits.obj
 0001:0001eb30       ?CloseInstance@?$CTempldateHelper@UITCPSocketService@@@@QAE_NXZ 0041fb30 f i ServiceUnits.obj
 0001:0001ebe0       ?CloseInstance@?$CTempldateHelper@UITimerEngine@@@@QAE_NXZ 0041fbe0 f i ServiceUnits.obj
 0001:0001ec90       ?ConcludeService@CServiceUnits@@QAE_NXZ 0041fc90 f   ServiceUnits.obj
 0001:0001edf0       ?CreateInstance@?$CTempldateHelper@UIAttemperEngine@@@@QAE_NXZ 0041fdf0 f i ServiceUnits.obj
 0001:0001f0b0       ?CreateInstance@?$CTempldateHelper@UIDataBaseEngine@@@@QAE_NXZ 004200b0 f i ServiceUnits.obj
 0001:0001f370       ?CreateInstance@?$CTempldateHelper@UITCPNetworkEngine@@@@QAE_NXZ 00420370 f i ServiceUnits.obj
 0001:0001f630       ?CreateInstance@?$CTempldateHelper@UITCPSocketService@@@@QAE_NXZ 00420630 f i ServiceUnits.obj
 0001:0001f8f0       ?CreateInstance@?$CTempldateHelper@UITimerEngine@@@@QAE_NXZ 004208f0 f i ServiceUnits.obj
 0001:0001fbb0       ?CreateServiceDLL@CServiceUnits@@IAE_NXZ 00420bb0 f   ServiceUnits.obj
 0001:0001fd90       ?GetErrorDescribe@?$CTempldateHelper@UIAttemperEngine@@@@QBEPBDXZ 00420d90 f i ServiceUnits.obj
 0001:0001fdc0       ?GetErrorDescribe@?$CTempldateHelper@UIDataBaseEngine@@@@QBEPBDXZ 00420dc0 f i ServiceUnits.obj
 0001:0001fdf0       ?GetErrorDescribe@?$CTempldateHelper@UITCPNetworkEngine@@@@QBEPBDXZ 00420df0 f i ServiceUnits.obj
 0001:0001fe20       ?GetErrorDescribe@?$CTempldateHelper@UITCPSocketService@@@@QBEPBDXZ 00420e20 f i ServiceUnits.obj
 0001:0001fe50       ?GetErrorDescribe@?$CTempldateHelper@UITimerEngine@@@@QBEPBDXZ 00420e50 f i ServiceUnits.obj
 0001:0001fe80       ?GetInterface@?$CTempldateHelper@UIAttemperEngine@@@@QBEPAUIAttemperEngine@@XZ 00420e80 f i ServiceUnits.obj
 0001:0001feb0       ?GetInterface@?$CTempldateHelper@UIDataBaseEngine@@@@QBEPAUIDataBaseEngine@@XZ 00420eb0 f i ServiceUnits.obj
 0001:0001fee0       ?GetInterface@?$CTempldateHelper@UITCPNetworkEngine@@@@QBEPAUITCPNetworkEngine@@XZ 00420ee0 f i ServiceUnits.obj
 0001:0001ff10       ?GetInterface@?$CTempldateHelper@UITCPSocketService@@@@QBEPAUITCPSocketService@@XZ 00420f10 f i ServiceUnits.obj
 0001:0001ff40       ?GetInterface@?$CTempldateHelper@UITimerEngine@@@@QBEPAUITimerEngine@@XZ 00420f40 f i ServiceUnits.obj
 0001:0001ff70       ?GetMessageMap@CServiceUnits@@MBEPBUAFX_MSGMAP@@XZ 00420f70 f   ServiceUnits.obj
 0001:0001ff90       ?GetThisMessageMap@CServiceUnits@@KGPBUAFX_MSGMAP@@XZ 00420f90 f   ServiceUnits.obj
 0001:0001ffb0       ?InitializeService@CServiceUnits@@IAE_NXZ 00420fb0 f   ServiceUnits.obj
 0001:000203e0       ?PostControlRequest@CServiceUnits@@QAE_NGPAXG@Z 004213e0 f   ServiceUnits.obj
 0001:00020530       ?SendControlPacket@CServiceUnits@@AAE_NGPAXG@Z 00421530 f   ServiceUnits.obj
 0001:000205e0       ?SetServiceStatus@CServiceUnits@@AAE_NW4enServiceStatus@@@Z 004215e0 f   ServiceUnits.obj
 0001:000206c0       ?SetServiceUnitsSink@CServiceUnits@@QAE_NPAUIServiceUnitsSink@@@Z 004216c0 f   ServiceUnits.obj
 0001:000206f0       ?StartKernelService@CServiceUnits@@IAE_NXZ 004216f0 f   ServiceUnits.obj
 0001:00020870       ?StartNetworkService@CServiceUnits@@IAE_NXZ 00421870 f   ServiceUnits.obj
 0001:000208f0       ?StartService@CServiceUnits@@QAE_NXZ 004218f0 f   ServiceUnits.obj
 0001:00020a40       ?_AfxInitManaged@@YAHXZ    00421a40 f i Stdafx.obj
 0001:00020a60       ??$AtlAdd@H@ATL@@YAJPAHHH@Z 00421a60 f i Stdafx.obj
 0001:00020ab0       ??$AtlAdd@I@ATL@@YAJPAIII@Z 00421ab0 f i Stdafx.obj
 0001:00020b00       ??$AtlAdd@K@ATL@@YAJPAKKK@Z 00421b00 f i Stdafx.obj
 0001:00020b50       ??$AtlAlignUp@H@ATL@@YGHHK@Z 00421b50 f i Stdafx.obj
 0001:00020b80       ??$AtlMultiply@K@ATL@@YAJPAKKK@Z 00421b80 f i Stdafx.obj
 0001:00020be0       ??$_Getvals@_W@?$time_get@DV?$istreambuf_iterator@DU?$char_traits@D@std@@@std@@@std@@IAEX_WABV_Locinfo@1@@Z 00421be0 f i Stdafx.obj
 0001:00020d10       ??$_Getvals@_W@?$time_get@_WV?$istreambuf_iterator@_WU?$char_traits@_W@std@@@std@@@std@@IAEX_WABV_Locinfo@1@@Z 00421d10 f i Stdafx.obj
 0001:00020e40       ??$_Maklocstr@D@std@@YAPADPBDPADABU_Cvtvec@@@Z 00421e40 f i Stdafx.obj
 0001:00020ef0       ??$_Maklocstr@_W@std@@YAPA_WPBDPA_WABU_Cvtvec@@@Z 00421ef0 f i Stdafx.obj
 0001:00021070       ??0?$CSimpleArray@GV?$CSimpleArrayEqualHelper@G@ATL@@@ATL@@QAE@XZ 00422070 f i Stdafx.obj
 0001:000210b0       ??0?$CTraceCategoryEx@$00$0A@@ATL@@QAE@PBD@Z 004220b0 f i Stdafx.obj
 0001:000210e0       ??0?$CTraceCategoryEx@$01$0A@@ATL@@QAE@PBD@Z 004220e0 f i Stdafx.obj
 0001:00021110       ??0?$CTraceCategoryEx@$03$0A@@ATL@@QAE@PBD@Z 00422110 f i Stdafx.obj
 0001:00021140       ??0?$CTraceCategoryEx@$07$0A@@ATL@@QAE@PBD@Z 00422140 f i Stdafx.obj
 0001:00021170       ??0?$CTraceCategoryEx@$0BA@$0A@@ATL@@QAE@PBD@Z 00422170 f i Stdafx.obj
 0001:000211a0       ??0?$CTraceCategoryEx@$0BAA@$0A@@ATL@@QAE@PBD@Z 004221a0 f i Stdafx.obj
 0001:000211e0       ??0?$CTraceCategoryEx@$0BAAA@$0A@@ATL@@QAE@PBD@Z 004221e0 f i Stdafx.obj
 0001:00021220       ??0?$CTraceCategoryEx@$0BAAAA@$0A@@ATL@@QAE@PBD@Z 00422220 f i Stdafx.obj
 0001:00021260       ??0?$CTraceCategoryEx@$0BAAAAA@$0A@@ATL@@QAE@PBD@Z 00422260 f i Stdafx.obj
 0001:000212a0       ??0?$CTraceCategoryEx@$0CA@$0A@@ATL@@QAE@PBD@Z 004222a0 f i Stdafx.obj
 0001:000212d0       ??0?$CTraceCategoryEx@$0CAA@$0A@@ATL@@QAE@PBD@Z 004222d0 f i Stdafx.obj
 0001:00021310       ??0?$CTraceCategoryEx@$0CAAAA@$0A@@ATL@@QAE@PBD@Z 00422310 f i Stdafx.obj
 0001:00021350       ??0?$CTraceCategoryEx@$0CAAAAA@$0A@@ATL@@QAE@PBD@Z 00422350 f i Stdafx.obj
 0001:00021390       ??0?$CTraceCategoryEx@$0EA@$0A@@ATL@@QAE@PBD@Z 00422390 f i Stdafx.obj
 0001:000213c0       ??0?$CTraceCategoryEx@$0EAA@$0A@@ATL@@QAE@PBD@Z 004223c0 f i Stdafx.obj
 0001:00021400       ??0?$CTraceCategoryEx@$0EAAA@$0A@@ATL@@QAE@PBD@Z 00422400 f i Stdafx.obj
 0001:00021440       ??0?$CTraceCategoryEx@$0EAAAA@$0A@@ATL@@QAE@PBD@Z 00422440 f i Stdafx.obj
 0001:00021480       ??0?$CTraceCategoryEx@$0EAAAAA@$0A@@ATL@@QAE@PBD@Z 00422480 f i Stdafx.obj
 0001:000214c0       ??0?$CTraceCategoryEx@$0IA@$0A@@ATL@@QAE@PBD@Z 004224c0 f i Stdafx.obj
 0001:00021500       ??0?$CTraceCategoryEx@$0IAA@$0A@@ATL@@QAE@PBD@Z 00422500 f i Stdafx.obj
 0001:00021540       ??0?$CTraceCategoryEx@$0IAAA@$0A@@ATL@@QAE@PBD@Z 00422540 f i Stdafx.obj
 0001:00021580       ??0?$CTraceCategoryEx@$0IAAAA@$0A@@ATL@@QAE@PBD@Z 00422580 f i Stdafx.obj
 0001:000215c0       ??0CAtlComModule@ATL@@QAE@XZ 004225c0 f i Stdafx.obj
 0001:000216b0       ??0CAtlStringMgr@ATL@@QAE@PAUIAtlMemMgr@1@@Z 004226b0 f i Stdafx.obj
 0001:00021710       ??0CAtlStringMgrStaticInitializer@ATLImplementationDetails@ATL@@QAE@XZ 00422710 f i Stdafx.obj
 0001:00021740       ??0CAtlWinModule@ATL@@QAE@XZ 00422740 f i Stdafx.obj
 0001:000217e0       ??0CComCriticalSection@ATL@@QAE@XZ 004227e0 f i Stdafx.obj
 0001:00021810       ??0CNilStringData@ATL@@QAE@XZ 00422810 f i Stdafx.obj
 0001:00021890       ??0CWin32Heap@ATL@@QAE@PAX@Z 00422890 f i Stdafx.obj
 0001:00021910       ??0_ATL_COM_MODULE70@ATL@@QAE@XZ 00422910 f i Stdafx.obj
 0001:00021940       ??0_ATL_WIN_MODULE70@ATL@@QAE@XZ 00422940 f i Stdafx.obj
 0001:000219c0       ??1?$CSimpleArray@GV?$CSimpleArrayEqualHelper@G@ATL@@@ATL@@QAE@XZ 004229c0 f i Stdafx.obj
 0001:00021a20       ??1CAtlComModule@ATL@@QAE@XZ 00422a20 f i Stdafx.obj
 0001:00021a80       ??1CAtlStringMgr@ATL@@UAE@XZ 00422a80 f i Stdafx.obj
 0001:00021aa0       ??1CAtlWinModule@ATL@@QAE@XZ 00422aa0 f i Stdafx.obj
 0001:00021b00       ??1CComCriticalSection@ATL@@QAE@XZ 00422b00 f i Stdafx.obj
 0001:00021b20       ??1CWin32Heap@ATL@@UAE@XZ  00422b20 f i Stdafx.obj
 0001:00021bb0       ??1_ATL_COM_MODULE70@ATL@@QAE@XZ 00422bb0 f i Stdafx.obj
 0001:00021be0       ??1_ATL_WIN_MODULE70@ATL@@QAE@XZ 00422be0 f i Stdafx.obj
 0001:00021c20       ??A?$CSimpleArray@GV?$CSimpleArrayEqualHelper@G@ATL@@@ATL@@QAEAAGH@Z 00422c20 f i Stdafx.obj
 0001:00021cc0       ??B?$CTraceCategoryEx@$01$0A@@ATL@@QAEIXZ 00422cc0 f i Stdafx.obj
 0001:00021ce0       ??B?$CTraceCategoryEx@$0CA@$0A@@ATL@@QAEIXZ 00422ce0 f i Stdafx.obj
 0001:00021d00       ??_GCAtlStringMgr@ATL@@UAEPAXI@Z 00422d00 f i Stdafx.obj
 0001:00021d00       ??_ECAtlStringMgr@ATL@@UAEPAXI@Z 00422d00 f i Stdafx.obj
 0001:00021d50       ??_GCWin32Heap@ATL@@UAEPAXI@Z 00422d50 f i Stdafx.obj
 0001:00021d50       ??_ECWin32Heap@ATL@@UAEPAXI@Z 00422d50 f i Stdafx.obj
 0001:00021da0       ??_H@YGXPAXIIP6EPAX0@Z@Z   00422da0 f i Stdafx.obj
 0001:00021df0       ?AddRef@CStringData@ATL@@QAEXXZ 00422df0 f i Stdafx.obj
 0001:00021e50       ?Allocate@CAtlStringMgr@ATL@@UAEPAUCStringData@2@HH@Z 00422e50 f i Stdafx.obj
 0001:00022020       ?Allocate@CWin32Heap@ATL@@UAEPAXI@Z 00423020 f i Stdafx.obj
 0001:00022060       ?AtlWinModuleInit@ATL@@YGJPAU_ATL_WIN_MODULE70@1@@Z 00423060 f i Stdafx.obj
 0001:00022150       ?AtlWinModuleTerm@ATL@@YGJPAU_ATL_WIN_MODULE70@1@PAUHINSTANCE__@@@Z 00423150 f i Stdafx.obj
 0001:00022220       ?Clone@CAtlStringMgr@ATL@@UAEPAUIAtlStringMgr@2@XZ 00423220 f i Stdafx.obj
 0001:00022240       ?Free@CAtlStringMgr@ATL@@UAEXPAUCStringData@2@@Z 00423240 f i Stdafx.obj
 0001:000222f0       ?Free@CWin32Heap@ATL@@UAEXPAX@Z 004232f0 f i Stdafx.obj
 0001:00022370       ?GetInstance@CAtlStringMgr@ATL@@SAPAUIAtlStringMgr@2@XZ 00423370 f i Stdafx.obj
 0001:00022470       ?GetModuleInstance@CAtlBaseModule@ATL@@QAEPAUHINSTANCE__@@XZ 00423470 f i Stdafx.obj
 0001:00022490       ?GetNilString@CAtlStringMgr@ATL@@UAEPAUCStringData@2@XZ 00423490 f i Stdafx.obj
 0001:000224c0       ?GetSize@?$CSimpleArray@GV?$CSimpleArrayEqualHelper@G@ATL@@@ATL@@QBEHXZ 004234c0 f i Stdafx.obj
 0001:000224e0       ?GetSize@CWin32Heap@ATL@@UAEIPAX@Z 004234e0 f i Stdafx.obj
 0001:00022520       ?Init@CComCriticalSection@ATL@@QAEJXZ 00423520 f i Stdafx.obj
 0001:00022580       ?Reallocate@CAtlStringMgr@ATL@@UAEPAUCStringData@2@PAU32@HH@Z 00423580 f i Stdafx.obj
 0001:00022770       ?Reallocate@CWin32Heap@ATL@@UAEPAXPAXI@Z 00423770 f i Stdafx.obj
 0001:000227f0       ?RemoveAll@?$CSimpleArray@GV?$CSimpleArrayEqualHelper@G@ATL@@@ATL@@QAEXXZ 004237f0 f i Stdafx.obj
 0001:00022870       ?SetManager@CNilStringData@ATL@@QAEXPAUIAtlStringMgr@2@@Z 00423870 f i Stdafx.obj
 0001:000228d0       ?Term@CAtlComModule@ATL@@QAEXXZ 004238d0 f i Stdafx.obj
 0001:00022990       ?Term@CAtlWinModule@ATL@@QAEXXZ 00423990 f i Stdafx.obj
 0001:000229c0       ?Term@CComCriticalSection@ATL@@QAEJXZ 004239c0 f i Stdafx.obj
 0001:000229f0       ?_AtlInitializeCriticalSectionEx@ATL@@YAHPAU_RTL_CRITICAL_SECTION@@KK@Z 004239f0 f i Stdafx.obj
 0001:00022a20       ?_AtlRaiseException@ATL@@YAXKK@Z 00423a20 f i Stdafx.obj
 0001:00022a50       ?_Maklocwcs@std@@YAPA_WPB_W@Z 00423a50 f i Stdafx.obj
 0001:00022ad0       _wmemcpy                   00423ad0 f i Stdafx.obj
 0001:00022aff       ??0CWHCommandLine@@QAE@XZ  00423aff f   ServiceCore:ServiceCore.dll
 0001:00022b05       ??1CWHCommandLine@@UAE@XZ  00423b05 f   ServiceCore:ServiceCore.dll
 0001:00022b0b       ?SearchCommandItem@CWHCommandLine@@QAE_NPBD0QADG@Z 00423b0b f   ServiceCore:ServiceCore.dll
 0001:00022b11       ?GetWorkDirectory@CWHService@@SA_NQADG@Z 00423b11 f   ServiceCore:ServiceCore.dll
 0001:00022b17       ??0CWHIniData@@QAE@XZ      00423b17 f   ServiceCore:ServiceCore.dll
 0001:00022b1d       ??1CWHIniData@@UAE@XZ      00423b1d f   ServiceCore:ServiceCore.dll
 0001:00022b23       ?SetIniFilePath@CWHIniData@@QAEXPBD@Z 00423b23 f   ServiceCore:ServiceCore.dll
 0001:00022b29       ?ReadInt@CWHIniData@@QAEIPBD0H@Z 00423b29 f   ServiceCore:ServiceCore.dll
 0001:00022b2f       ?ReadString@CWHIniData@@QAEPBDPBD00PADG@Z 00423b2f f   ServiceCore:ServiceCore.dll
 0001:00022b35       ?ReadEncryptString@CWHIniData@@QAEPBDPBD00PADG@Z 00423b35 f   ServiceCore:ServiceCore.dll
 0001:00022b3b       ??0CWHDataQueue@@QAE@XZ    00423b3b f   ServiceCore:ServiceCore.dll
 0001:00022b41       ??1CWHDataQueue@@UAE@XZ    00423b41 f   ServiceCore:ServiceCore.dll
 0001:00022b47       ?InsertData@CWHDataQueue@@QAE_NGPAXG@Z 00423b47 f   ServiceCore:ServiceCore.dll
 0001:00022b4d       ?DistillData@CWHDataQueue@@QAE_NAAUtagDataHead@@PAXG@Z 00423b4d f   ServiceCore:ServiceCore.dll
 0001:00022b53       ??0CWHDataLocker@@QAE@AAVCCriticalSection@@_N@Z 00423b53 f   ServiceCore:ServiceCore.dll
 0001:00022b59       ??1CWHDataLocker@@UAE@XZ   00423b59 f   ServiceCore:ServiceCore.dll
 0001:00022b5f       ?TraceString@CTraceService@@SA_NPBDW4enTraceLevel@@@Z 00423b5f f   KernelEngine:KernelEngine.dll
 0001:00022b65       ??0CTraceServiceControl@@QAE@XZ 00423b65 f   KernelEngine:KernelEngine.dll
 0001:00022b6b       ??1CTraceServiceControl@@UAE@XZ 00423b6b f   KernelEngine:KernelEngine.dll
 0001:00022b71       ??0CDataBaseAide@@QAE@PAUIUnknownEx@@@Z 00423b71 f   KernelEngine:KernelEngine.dll
 0001:00022b77       ??1CDataBaseAide@@UAE@XZ   00423b77 f   KernelEngine:KernelEngine.dll
 0001:00022b7d       ?SetDataBase@CDataBaseAide@@QAE_NPAUIUnknownEx@@@Z 00423b7d f   KernelEngine:KernelEngine.dll
 0001:00022b83       ?GetValue_BYTE@CDataBaseAide@@QAEEPBD@Z 00423b83 f   KernelEngine:KernelEngine.dll
 0001:00022b89       ?GetValue_WORD@CDataBaseAide@@QAEGPBD@Z 00423b89 f   KernelEngine:KernelEngine.dll
 0001:00022b8f       ?GetValue_DWORD@CDataBaseAide@@QAEKPBD@Z 00423b8f f   KernelEngine:KernelEngine.dll
 0001:00022b95       ?GetValue_SystemTime@CDataBaseAide@@QAEXPBDAAU_SYSTEMTIME@@@Z 00423b95 f   KernelEngine:KernelEngine.dll
 0001:00022b9b       ?GetValue_String@CDataBaseAide@@QAEXPBDPADI@Z 00423b9b f   KernelEngine:KernelEngine.dll
 0001:00022ba1       ?ResetParameter@CDataBaseAide@@QAEXXZ 00423ba1 f   KernelEngine:KernelEngine.dll
 0001:00022ba7       ?AddParameter@CDataBaseAide@@QAEXPBDHW4ParameterDirectionEnum@ADOCG@@@Z 00423ba7 f   KernelEngine:KernelEngine.dll
 0001:00022bad       ?AddParameter@CDataBaseAide@@QAEXPBDEW4ParameterDirectionEnum@ADOCG@@@Z 00423bad f   KernelEngine:KernelEngine.dll
 0001:00022bb3       ?AddParameter@CDataBaseAide@@QAEXPBDGW4ParameterDirectionEnum@ADOCG@@@Z 00423bb3 f   KernelEngine:KernelEngine.dll
 0001:00022bb9       ?AddParameter@CDataBaseAide@@QAEXPBDKW4ParameterDirectionEnum@ADOCG@@@Z 00423bb9 f   KernelEngine:KernelEngine.dll
 0001:00022bbf       ?AddParameter@CDataBaseAide@@QAEXPBD0W4ParameterDirectionEnum@ADOCG@@@Z 00423bbf f   KernelEngine:KernelEngine.dll
 0001:00022bc5       ?AddParameterOutput@CDataBaseAide@@QAEXPBDPADIW4ParameterDirectionEnum@ADOCG@@@Z 00423bc5 f   KernelEngine:KernelEngine.dll
 0001:00022bcb       ?ExecuteProcess@CDataBaseAide@@QAEJPBD_N@Z 00423bcb f   KernelEngine:KernelEngine.dll
 0001:00022bd1       ??_U@YAPAXI@Z              00423bd1 f   mfc140d:mfc140d.dll
 0001:00022bd7       ??_V@YAXPAX@Z              00423bd7 f   mfc140d:mfc140d.dll
 0001:00022bdd       ?AfxThrowInvalidArgException@@YGXXZ 00423bdd f   mfc140d:mfc140d.dll
 0001:00022be3       ??2@YAPAXIPBDH@Z           00423be3 f   mfc140d:mfc140d.dll
 0001:00022be9       ??_U@YAPAXIPBDH@Z          00423be9 f   mfc140d:mfc140d.dll
 0001:00022bef       ??3@YAXPAX@Z               00423bef f   mfc140d:mfc140d.dll
 0001:00022bf5       ?GetThisMessageMap@CWinApp@@KGPBUAFX_MSGMAP@@XZ 00423bf5 f   mfc140d:mfc140d.dll
 0001:00022bfb       ??3CObject@@SGXPAX@Z       00423bfb f   mfc140d:mfc140d.dll
 0001:00022c01       ?Serialize@CObject@@UAEXAAVCArchive@@@Z 00423c01 f   mfc140d:mfc140d.dll
 0001:00022c07       ?OnCmdMsg@CCmdTarget@@UAEHIHPAXPAUAFX_CMDHANDLERINFO@@@Z 00423c07 f   mfc140d:mfc140d.dll
 0001:00022c0d       ?OnFinalRelease@CCmdTarget@@UAEXXZ 00423c0d f   mfc140d:mfc140d.dll
 0001:00022c13       ?IsInvokeAllowed@CCmdTarget@@UAEHJ@Z 00423c13 f   mfc140d:mfc140d.dll
 0001:00022c19       ?GetDispatchIID@CCmdTarget@@UAEHPAU_GUID@@@Z 00423c19 f   mfc140d:mfc140d.dll
 0001:00022c1f       ?GetTypeInfoCount@CCmdTarget@@UAEIXZ 00423c1f f   mfc140d:mfc140d.dll
 0001:00022c25       ?GetTypeLibCache@CCmdTarget@@UAEPAVCTypeLibCache@@XZ 00423c25 f   mfc140d:mfc140d.dll
 0001:00022c2b       ?GetTypeLib@CCmdTarget@@UAEJKPAPAUITypeLib@@@Z 00423c2b f   mfc140d:mfc140d.dll
 0001:00022c31       ?GetCommandMap@CCmdTarget@@MBEPBUAFX_OLECMDMAP@@XZ 00423c31 f   mfc140d:mfc140d.dll
 0001:00022c37       ?GetDispatchMap@CCmdTarget@@MBEPBUAFX_DISPMAP@@XZ 00423c37 f   mfc140d:mfc140d.dll
 0001:00022c3d       ?GetConnectionMap@CCmdTarget@@MBEPBUAFX_CONNECTIONMAP@@XZ 00423c3d f   mfc140d:mfc140d.dll
 0001:00022c43       ?GetInterfaceMap@CCmdTarget@@MBEPBUAFX_INTERFACEMAP@@XZ 00423c43 f   mfc140d:mfc140d.dll
 0001:00022c49       ?GetEventSinkMap@CCmdTarget@@MBEPBUAFX_EVENTSINKMAP@@XZ 00423c49 f   mfc140d:mfc140d.dll
 0001:00022c4f       ?OnCreateAggregates@CCmdTarget@@UAEHXZ 00423c4f f   mfc140d:mfc140d.dll
 0001:00022c55       ?GetInterfaceHook@CCmdTarget@@UAEPAUIUnknown@@PBX@Z 00423c55 f   mfc140d:mfc140d.dll
 0001:00022c5b       ?GetExtraConnectionPoints@CCmdTarget@@MAEHPAVCPtrArray@@@Z 00423c5b f   mfc140d:mfc140d.dll
 0001:00022c61       ?GetConnectionHook@CCmdTarget@@MAEPAUIConnectionPoint@@ABU_GUID@@@Z 00423c61 f   mfc140d:mfc140d.dll
 0001:00022c67       ?AfxInitRichEdit2@@YGHXZ   00423c67 f   mfc140d:mfc140d.dll
 0001:00022c6d       ?DoModal@CDialog@@UAEHXZ   00423c6d f   mfc140d:mfc140d.dll
 0001:00022c73       ?PreTranslateMessage@CWinThread@@UAEHPAUtagMSG@@@Z 00423c73 f   mfc140d:mfc140d.dll
 0001:00022c79       ?PumpMessage@CWinThread@@UAEHXZ 00423c79 f   mfc140d:mfc140d.dll
 0001:00022c7f       ?IsIdleMessage@CWinThread@@UAEHPAUtagMSG@@@Z 00423c7f f   mfc140d:mfc140d.dll
 0001:00022c85       ?ProcessMessageFilter@CWinThread@@UAEHHPAUtagMSG@@@Z 00423c85 f   mfc140d:mfc140d.dll
 0001:00022c8b       ?GetMainWnd@CWinThread@@UAEPAVCWnd@@XZ 00423c8b f   mfc140d:mfc140d.dll
 0001:00022c91       ?Delete@CWinThread@@UAEXXZ 00423c91 f   mfc140d:mfc140d.dll
 0001:00022c97       ?GetRuntimeClass@CWinApp@@UBEPAUCRuntimeClass@@XZ 00423c97 f   mfc140d:mfc140d.dll
 0001:00022c9d       ??0CWinApp@@QAE@PBD@Z      00423c9d f   mfc140d:mfc140d.dll
 0001:00022ca3       ?SetRegistryKey@CWinApp@@IAEXPBD@Z 00423ca3 f   mfc140d:mfc140d.dll
 0001:00022ca9       ?GetProfileIntA@CWinApp@@UAEIPBD0H@Z 00423ca9 f   mfc140d:mfc140d.dll
 0001:00022caf       ?WriteProfileInt@CWinApp@@UAEHPBD0H@Z 00423caf f   mfc140d:mfc140d.dll
 0001:00022cb5       ?GetProfileStringA@CWinApp@@UAE?AV?$CStringT@DV?$StrTraitMFC_DLL@DV?$ChTraitsCRT@D@ATL@@@@@ATL@@PBD00@Z 00423cb5 f   mfc140d:mfc140d.dll
 0001:00022cbb       ?WriteProfileStringA@CWinApp@@UAEHPBD00@Z 00423cbb f   mfc140d:mfc140d.dll
 0001:00022cc1       ?GetProfileBinary@CWinApp@@UAEHPBD0PAPAEPAI@Z 00423cc1 f   mfc140d:mfc140d.dll
 0001:00022cc7       ?WriteProfileBinary@CWinApp@@UAEHPBD0PAEI@Z 00423cc7 f   mfc140d:mfc140d.dll
 0001:00022ccd       ?InitLibId@CWinApp@@UAEXXZ 00423ccd f   mfc140d:mfc140d.dll
 0001:00022cd3       ?Register@CWinApp@@UAEHXZ  00423cd3 f   mfc140d:mfc140d.dll
 0001:00022cd9       ?Unregister@CWinApp@@UAEHXZ 00423cd9 f   mfc140d:mfc140d.dll
 0001:00022cdf       ?OpenDocumentFile@CWinApp@@UAEPAVCDocument@@PBD@Z 00423cdf f   mfc140d:mfc140d.dll
 0001:00022ce5       ?OpenDocumentFile@CWinApp@@UAEPAVCDocument@@PBDH@Z 00423ce5 f   mfc140d:mfc140d.dll
 0001:00022ceb       ?AddToRecentFileList@CWinApp@@UAEXPBD@Z 00423ceb f   mfc140d:mfc140d.dll
 0001:00022cf1       ?InitApplication@CWinApp@@UAEHXZ 00423cf1 f   mfc140d:mfc140d.dll
 0001:00022cf7       ?SaveAllModified@CWinApp@@UAEHXZ 00423cf7 f   mfc140d:mfc140d.dll
 0001:00022cfd       ?DoMessageBox@CWinApp@@UAEHPBDII@Z 00423cfd f   mfc140d:mfc140d.dll
 0001:00022d03       ?DoWaitCursor@CWinApp@@UAEXH@Z 00423d03 f   mfc140d:mfc140d.dll
 0001:00022d09       ?OnDDECommand@CWinApp@@UAEHPAD@Z 00423d09 f   mfc140d:mfc140d.dll
 0001:00022d0f       ?WinHelpA@CWinApp@@UAEXKI@Z 00423d0f f   mfc140d:mfc140d.dll
 0001:00022d15       ?HtmlHelpA@CWinApp@@UAEXKI@Z 00423d15 f   mfc140d:mfc140d.dll
 0001:00022d1b       ?WinHelpInternal@CWinApp@@UAEXKI@Z 00423d1b f   mfc140d:mfc140d.dll
 0001:00022d21       ?RegisterWithRestartManager@CWinApp@@UAEJHABV?$CStringT@DV?$StrTraitMFC_DLL@DV?$ChTraitsCRT@D@ATL@@@@@ATL@@@Z 00423d21 f   mfc140d:mfc140d.dll
 0001:00022d27       ?RegisterWithRestartManager@CWinApp@@UAEJPB_WKP6GKPAX@Z1KK@Z 00423d27 f   mfc140d:mfc140d.dll
 0001:00022d2d       ?ApplicationRecoveryCallback@CWinApp@@UAEKPAX@Z 00423d2d f   mfc140d:mfc140d.dll
 0001:00022d33       ?GetDataRecoveryHandler@CWinApp@@UAEPAVCDataRecoveryHandler@@XZ 00423d33 f   mfc140d:mfc140d.dll
 0001:00022d39       ?IsTaskbarInteractionEnabled@CWinApp@@UAEHXZ 00423d39 f   mfc140d:mfc140d.dll
 0001:00022d3f       ?InitInstance@CWinApp@@UAEHXZ 00423d3f f   mfc140d:mfc140d.dll
 0001:00022d45       ?ExitInstance@CWinApp@@UAEHXZ 00423d45 f   mfc140d:mfc140d.dll
 0001:00022d4b       ?RestartInstance@CWinApp@@UAEHXZ 00423d4b f   mfc140d:mfc140d.dll
 0001:00022d51       ?Run@CWinApp@@UAEHXZ       00423d51 f   mfc140d:mfc140d.dll
 0001:00022d57       ?OnIdle@CWinApp@@UAEHJ@Z   00423d57 f   mfc140d:mfc140d.dll
 0001:00022d5d       ?ProcessWndProcException@CWinApp@@UAEJPAVCException@@PBUtagMSG@@@Z 00423d5d f   mfc140d:mfc140d.dll
 0001:00022d63       ?LoadAppLangResourceDLL@CWinApp@@UAEPAUHINSTANCE__@@XZ 00423d63 f   mfc140d:mfc140d.dll
 0001:00022d69       ??1CWinApp@@UAE@XZ         00423d69 f   mfc140d:mfc140d.dll
 0001:00022d6f       ?AssertValid@CWinApp@@UBEXXZ 00423d6f f   mfc140d:mfc140d.dll
 0001:00022d75       ?Dump@CWinApp@@UBEXAAVCDumpContext@@@Z 00423d75 f   mfc140d:mfc140d.dll
 0001:00022d7b       ?LoadSysPolicies@CWinApp@@UAEHXZ 00423d7b f   mfc140d:mfc140d.dll
 0001:00022d81       ?AfxEnableControlContainer@@YAXPAVCOccManager@@@Z 00423d81 f   mfc140d:mfc140d.dll
 0001:00022d87       ?GetThisMessageMap@CDialog@@KGPBUAFX_MSGMAP@@XZ 00423d87 f   mfc140d:mfc140d.dll
 0001:00022d8d       ?DDX_Control@@YGXPAVCDataExchange@@HAAVCWnd@@@Z 00423d8d f   mfc140d:mfc140d.dll
 0001:00022d93       ?PreSubclassWindow@CWnd@@UAEXXZ 00423d93 f   mfc140d:mfc140d.dll
 0001:00022d99       ?Create@CWnd@@UAEHPBD0KABUtagRECT@@PAV1@IPAUCCreateContext@@@Z 00423d99 f   mfc140d:mfc140d.dll
 0001:00022d9f       ?CreateEx@CWnd@@UAEHKPBD0KHHHHPAUHWND__@@PAUHMENU__@@PAX@Z 00423d9f f   mfc140d:mfc140d.dll
 0001:00022da5       ?CreateEx@CWnd@@UAEHKPBD0KABUtagRECT@@PAV1@IPAX@Z 00423da5 f   mfc140d:mfc140d.dll
 0001:00022dab       ?DestroyWindow@CWnd@@UAEHXZ 00423dab f   mfc140d:mfc140d.dll
 0001:00022db1       ?PreCreateWindow@CWnd@@UAEHAAUtagCREATESTRUCTA@@@Z 00423db1 f   mfc140d:mfc140d.dll
 0001:00022db7       ?CalcWindowRect@CWnd@@UAEXPAUtagRECT@@I@Z 00423db7 f   mfc140d:mfc140d.dll
 0001:00022dbd       ?GetDlgItem@CWnd@@QBEPAV1@H@Z 00423dbd f   mfc140d:mfc140d.dll
 0001:00022dc3       ?PostMessageA@CWnd@@QAEHIIJ@Z 00423dc3 f   mfc140d:mfc140d.dll
 0001:00022dc9       ?SetWindowTextA@CWnd@@QAEXPBD@Z 00423dc9 f   mfc140d:mfc140d.dll
 0001:00022dcf       ?GetMenu@CWnd@@UBEPAVCMenu@@XZ 00423dcf f   mfc140d:mfc140d.dll
 0001:00022dd5       ?SetMenu@CWnd@@UAEHPAVCMenu@@@Z 00423dd5 f   mfc140d:mfc140d.dll
 0001:00022ddb       ?OnToolHitTest@CWnd@@UBEHVCPoint@@PAUtagTOOLINFOA@@@Z 00423ddb f   mfc140d:mfc140d.dll
 0001:00022de1       ?EnableWindow@CWnd@@QAEHH@Z 00423de1 f   mfc140d:mfc140d.dll
 0001:00022de7       ?GetScrollBarCtrl@CWnd@@UBEPAVCScrollBar@@H@Z 00423de7 f   mfc140d:mfc140d.dll
 0001:00022ded       ?SetIcon@CWnd@@QAEPAUHICON__@@PAU2@H@Z 00423ded f   mfc140d:mfc140d.dll
 0001:00022df3       ?WinHelpA@CWnd@@UAEXKI@Z   00423df3 f   mfc140d:mfc140d.dll
 0001:00022df9       ?HtmlHelpA@CWnd@@UAEXKI@Z  00423df9 f   mfc140d:mfc140d.dll
 0001:00022dff       ?WinHelpInternal@CWnd@@UAEXKI@Z 00423dff f   mfc140d:mfc140d.dll
 0001:00022e05       ?ContinueModal@CWnd@@UAEHXZ 00423e05 f   mfc140d:mfc140d.dll
 0001:00022e0b       ?EndModalLoop@CWnd@@UAEXH@Z 00423e0b f   mfc140d:mfc140d.dll
 0001:00022e11       ?OnDrawIconicThumbnailOrLivePreview@CWnd@@UAEXAAVCDC@@VCRect@@VCSize@@HAAH@Z 00423e11 f   mfc140d:mfc140d.dll
 0001:00022e17       ?GetInterfaceMap@CWnd@@MBEPBUAFX_INTERFACEMAP@@XZ 00423e17 f   mfc140d:mfc140d.dll
 0001:00022e1d       ?EnsureStdObj@CWnd@@UAEJXZ 00423e1d f   mfc140d:mfc140d.dll
 0001:00022e23       ?get_accParent@CWnd@@UAEJPAPAUIDispatch@@@Z 00423e23 f   mfc140d:mfc140d.dll
 0001:00022e29       ?get_accChildCount@CWnd@@UAEJPAJ@Z 00423e29 f   mfc140d:mfc140d.dll
 0001:00022e2f       ?get_accChild@CWnd@@UAEJUtagVARIANT@@PAPAUIDispatch@@@Z 00423e2f f   mfc140d:mfc140d.dll
 0001:00022e35       ?get_accName@CWnd@@UAEJUtagVARIANT@@PAPA_W@Z 00423e35 f   mfc140d:mfc140d.dll
 0001:00022e3b       ?get_accValue@CWnd@@UAEJUtagVARIANT@@PAPA_W@Z 00423e3b f   mfc140d:mfc140d.dll
 0001:00022e41       ?get_accDescription@CWnd@@UAEJUtagVARIANT@@PAPA_W@Z 00423e41 f   mfc140d:mfc140d.dll
 0001:00022e47       ?get_accRole@CWnd@@UAEJUtagVARIANT@@PAU2@@Z 00423e47 f   mfc140d:mfc140d.dll
 0001:00022e4d       ?get_accState@CWnd@@UAEJUtagVARIANT@@PAU2@@Z 00423e4d f   mfc140d:mfc140d.dll
 0001:00022e53       ?get_accHelp@CWnd@@UAEJUtagVARIANT@@PAPA_W@Z 00423e53 f   mfc140d:mfc140d.dll
 0001:00022e59       ?get_accHelpTopic@CWnd@@UAEJPAPA_WUtagVARIANT@@PAJ@Z 00423e59 f   mfc140d:mfc140d.dll
 0001:00022e5f       ?get_accKeyboardShortcut@CWnd@@UAEJUtagVARIANT@@PAPA_W@Z 00423e5f f   mfc140d:mfc140d.dll
 0001:00022e65       ?get_accFocus@CWnd@@UAEJPAUtagVARIANT@@@Z 00423e65 f   mfc140d:mfc140d.dll
 0001:00022e6b       ?get_accSelection@CWnd@@UAEJPAUtagVARIANT@@@Z 00423e6b f   mfc140d:mfc140d.dll
 0001:00022e71       ?get_accDefaultAction@CWnd@@UAEJUtagVARIANT@@PAPA_W@Z 00423e71 f   mfc140d:mfc140d.dll
 0001:00022e77       ?accSelect@CWnd@@UAEJJUtagVARIANT@@@Z 00423e77 f   mfc140d:mfc140d.dll
 0001:00022e7d       ?accLocation@CWnd@@UAEJPAJ000UtagVARIANT@@@Z 00423e7d f   mfc140d:mfc140d.dll
 0001:00022e83       ?accNavigate@CWnd@@UAEJJUtagVARIANT@@PAU2@@Z 00423e83 f   mfc140d:mfc140d.dll
 0001:00022e89       ?accHitTest@CWnd@@UAEJJJPAUtagVARIANT@@@Z 00423e89 f   mfc140d:mfc140d.dll
 0001:00022e8f       ?accDoDefaultAction@CWnd@@UAEJUtagVARIANT@@@Z 00423e8f f   mfc140d:mfc140d.dll
 0001:00022e95       ?put_accName@CWnd@@UAEJUtagVARIANT@@PA_W@Z 00423e95 f   mfc140d:mfc140d.dll
 0001:00022e9b       ?put_accValue@CWnd@@UAEJUtagVARIANT@@PA_W@Z 00423e9b f   mfc140d:mfc140d.dll
 0001:00022ea1       ?SetProxy@CWnd@@UAEJPAUIAccessibleProxy@@@Z 00423ea1 f   mfc140d:mfc140d.dll
 0001:00022ea7       ?CreateAccessibleProxy@CWnd@@UAEJIJPAJ@Z 00423ea7 f   mfc140d:mfc140d.dll
 0001:00022ead       ?OnCommand@CWnd@@MAEHIJ@Z  00423ead f   mfc140d:mfc140d.dll
 0001:00022eb3       ?OnNotify@CWnd@@MAEHIJPAJ@Z 00423eb3 f   mfc140d:mfc140d.dll
 0001:00022eb9       ?GetSuperWndProcAddr@CWnd@@MAEPAP6GJPAUHWND__@@IIJ@ZXZ 00423eb9 f   mfc140d:mfc140d.dll
 0001:00022ebf       ?DoDataExchange@CWnd@@MAEXPAVCDataExchange@@@Z 00423ebf f   mfc140d:mfc140d.dll
 0001:00022ec5       ?BeginModalState@CWnd@@UAEXXZ 00423ec5 f   mfc140d:mfc140d.dll
 0001:00022ecb       ?EndModalState@CWnd@@UAEXXZ 00423ecb f   mfc140d:mfc140d.dll
 0001:00022ed1       ?OnAmbientProperty@CWnd@@UAEHPAVCOleControlSite@@JPAUtagVARIANT@@@Z 00423ed1 f   mfc140d:mfc140d.dll
 0001:00022ed7       ?WindowProc@CWnd@@MAEJIIJ@Z 00423ed7 f   mfc140d:mfc140d.dll
 0001:00022edd       ?OnWndMsg@CWnd@@MAEHIIJPAJ@Z 00423edd f   mfc140d:mfc140d.dll
 0001:00022ee3       ?DefWindowProcA@CWnd@@MAEJIIJ@Z 00423ee3 f   mfc140d:mfc140d.dll
 0001:00022ee9       ?PostNcDestroy@CWnd@@MAEXXZ 00423ee9 f   mfc140d:mfc140d.dll
 0001:00022eef       ?OnChildNotify@CWnd@@MAEHIIJPAJ@Z 00423eef f   mfc140d:mfc140d.dll
 0001:00022ef5       ?OnTouchInputs@CWnd@@MAEHIPAUtagTOUCHINPUT@@@Z 00423ef5 f   mfc140d:mfc140d.dll
 0001:00022efb       ?OnTouchInput@CWnd@@MAEHVCPoint@@HHPAUtagTOUCHINPUT@@@Z 00423efb f   mfc140d:mfc140d.dll
 0001:00022f01       ?GetGestureStatus@CWnd@@MAEKVCPoint@@@Z 00423f01 f   mfc140d:mfc140d.dll
 0001:00022f07       ?OnGestureZoom@CWnd@@MAEHVCPoint@@J@Z 00423f07 f   mfc140d:mfc140d.dll
 0001:00022f0d       ?OnGesturePan@CWnd@@MAEHVCPoint@@0@Z 00423f0d f   mfc140d:mfc140d.dll
 0001:00022f13       ?OnGestureRotate@CWnd@@MAEHVCPoint@@N@Z 00423f13 f   mfc140d:mfc140d.dll
 0001:00022f19       ?OnGestureTwoFingerTap@CWnd@@MAEHVCPoint@@@Z 00423f19 f   mfc140d:mfc140d.dll
 0001:00022f1f       ?OnGesturePressAndTap@CWnd@@MAEHVCPoint@@J@Z 00423f1f f   mfc140d:mfc140d.dll
 0001:00022f25       ?ResizeDynamicLayout@CWnd@@MAEXXZ 00423f25 f   mfc140d:mfc140d.dll
 0001:00022f2b       ?IsFrameWnd@CWnd@@UBEHXZ   00423f2b f   mfc140d:mfc140d.dll
 0001:00022f31       ?OnFinalRelease@CWnd@@UAEXXZ 00423f31 f   mfc140d:mfc140d.dll
 0001:00022f37       ?CreateControlContainer@CWnd@@MAEHPAPAVCOleControlContainer@@@Z 00423f37 f   mfc140d:mfc140d.dll
 0001:00022f3d       ?CreateControlSite@CWnd@@MAEHPAVCOleControlContainer@@PAPAVCOleControlSite@@IABU_GUID@@@Z 00423f3d f   mfc140d:mfc140d.dll
 0001:00022f43       ?GetRuntimeClass@CDialog@@UBEPAUCRuntimeClass@@XZ 00423f43 f   mfc140d:mfc140d.dll
 0001:00022f49       ?Create@CDialog@@UAEHPBDPAVCWnd@@@Z 00423f49 f   mfc140d:mfc140d.dll
 0001:00022f4f       ?Create@CDialog@@UAEHIPAVCWnd@@@Z 00423f4f f   mfc140d:mfc140d.dll
 0001:00022f55       ?CreateIndirect@CDialog@@UAEHPBUDLGTEMPLATE@@PAVCWnd@@PAX@Z 00423f55 f   mfc140d:mfc140d.dll
 0001:00022f5b       ?CreateIndirect@CDialog@@UAEHPAXPAVCWnd@@@Z 00423f5b f   mfc140d:mfc140d.dll
 0001:00022f61       ??0CDialog@@QAE@IPAVCWnd@@@Z 00423f61 f   mfc140d:mfc140d.dll
 0001:00022f67       ?OnInitDialog@CDialog@@UAEHXZ 00423f67 f   mfc140d:mfc140d.dll
 0001:00022f6d       ?OnSetFont@CDialog@@UAEXPAVCFont@@@Z 00423f6d f   mfc140d:mfc140d.dll
 0001:00022f73       ?OnCancel@CDialog@@MAEXXZ  00423f73 f   mfc140d:mfc140d.dll
 0001:00022f79       ??1CDialog@@UAE@XZ         00423f79 f   mfc140d:mfc140d.dll
 0001:00022f7f       ?AssertValid@CDialog@@UBEXXZ 00423f7f f   mfc140d:mfc140d.dll
 0001:00022f85       ?Dump@CDialog@@UBEXAAVCDumpContext@@@Z 00423f85 f   mfc140d:mfc140d.dll
 0001:00022f8b       ?PreTranslateMessage@CDialog@@UAEHPAUtagMSG@@@Z 00423f8b f   mfc140d:mfc140d.dll
 0001:00022f91       ?OnCmdMsg@CDialog@@UAEHIHPAXPAUAFX_CMDHANDLERINFO@@@Z 00423f91 f   mfc140d:mfc140d.dll
 0001:00022f97       ?CheckAutoCenter@CDialog@@UAEHXZ 00423f97 f   mfc140d:mfc140d.dll
 0001:00022f9d       ?SetOccDialogInfo@CDialog@@MAEHPAU_AFX_OCC_DIALOG_INFO@@@Z 00423f9d f   mfc140d:mfc140d.dll
 0001:00022fa3       ?GetOccDialogInfo@CDialog@@MAEPAU_AFX_OCC_DIALOG_INFO@@XZ 00423fa3 f   mfc140d:mfc140d.dll
 0001:00022fa9       ?PreInitDialog@CDialog@@MAEXXZ 00423fa9 f   mfc140d:mfc140d.dll
 0001:00022faf       ?AfxGetApp@@YGPAVCWinApp@@XZ 00423faf f   mfc140d:mfc140d.dll
 0001:00022fb5       ?AfxGetInstanceHandle@@YGPAUHINSTANCE__@@XZ 00423fb5 f   mfc140d:mfc140d.dll
 0001:00022fbb       ?AfxMessageBox@@YGHPBDII@Z 00423fbb f   mfc140d:mfc140d.dll
 0001:00022fc1       ?AfxThrowMemoryException@@YGXXZ 00423fc1 f   mfc140d:mfc140d.dll
 0001:00022fc7       ?AfxThrowOleException@@YGXJ@Z 00423fc7 f   mfc140d:mfc140d.dll
 0001:00022fcd       ??0?$CStringT@DV?$StrTraitMFC_DLL@DV?$ChTraitsCRT@D@ATL@@@@@ATL@@QAE@XZ 00423fcd f   mfc140d:mfc140d.dll
 0001:00022fd3       ??1?$CStringT@DV?$StrTraitMFC_DLL@DV?$ChTraitsCRT@D@ATL@@@@@ATL@@QAE@XZ 00423fd3 f   mfc140d:mfc140d.dll
 0001:00022fd9       ?AfxLoadLibrary@@YGPAUHINSTANCE__@@PBD@Z 00423fd9 f   mfc140d:mfc140d.dll
 0001:00022fdf       ?AfxFreeLibrary@@YGHPAUHINSTANCE__@@@Z 00423fdf f   mfc140d:mfc140d.dll
 0001:00022fe5       ??2@YAPAXI@Z               00423fe5 f   mfc140d:mfc140d.dll
 0001:00022feb       ?AfxAssertValidObject@@YGXPBVCObject@@PBDH@Z 00423feb f   mfc140d:mfc140d.dll
 0001:00022ff1       ?GetRuntimeClass@CObject@@UBEPAUCRuntimeClass@@XZ 00423ff1 f   mfc140d:mfc140d.dll
 0001:00022ff7       ??1CObject@@UAE@XZ         00423ff7 f   mfc140d:mfc140d.dll
 0001:00022ffd       ??0CObject@@IAE@XZ         00423ffd f   mfc140d:mfc140d.dll
 0001:00023003       ?AssertValid@CObject@@UBEXXZ 00424003 f   mfc140d:mfc140d.dll
 0001:00023009       ?Dump@CObject@@UBEXAAVCDumpContext@@@Z 00424009 f   mfc140d:mfc140d.dll
 0001:0002300f       ?AfxIsValidAddress@@YGHPBXIH@Z 0042400f f   mfc140d:mfc140d.dll
 0001:00023015       ?IsStoring@CArchive@@QBEHXZ 00424015 f   mfc140d:mfc140d.dll
 0001:0002301b       ?EnsureRead@CArchive@@QAEXPAXI@Z 0042401b f   mfc140d:mfc140d.dll
 0001:00023021       ?Write@CArchive@@QAEXPBXI@Z 00424021 f   mfc140d:mfc140d.dll
 0001:00023027       ?ReadCount@CArchive@@QAEKXZ 00424027 f   mfc140d:mfc140d.dll
 0001:0002302d       ?WriteCount@CArchive@@QAEXK@Z 0042402d f   mfc140d:mfc140d.dll
 0001:00023033       ?GetDepth@CDumpContext@@QBEHXZ 00424033 f   mfc140d:mfc140d.dll
 0001:00023039       ??6CDumpContext@@QAEAAV0@PBD@Z 00424039 f   mfc140d:mfc140d.dll
 0001:0002303f       ??6CDumpContext@@QAEAAV0@H@Z 0042403f f   mfc140d:mfc140d.dll
 0001:00023045       ?Create@CPlex@@SGPAU1@AAPAU1@II@Z 00424045 f   mfc140d:mfc140d.dll
 0001:0002304b       ?FreeDataChain@CPlex@@QAEXXZ 0042404b f   mfc140d:mfc140d.dll
 0001:00023051       ?GetThisMessageMap@CWnd@@KGPBUAFX_MSGMAP@@XZ 00424051 f   mfc140d:mfc140d.dll
 0001:00023057       ?GetRuntimeClass@CWnd@@UBEPAUCRuntimeClass@@XZ 00424057 f   mfc140d:mfc140d.dll
 0001:0002305d       ??0CWnd@@QAE@XZ            0042405d f   mfc140d:mfc140d.dll
 0001:00023063       ?PreTranslateMessage@CWnd@@UAEHPAUtagMSG@@@Z 00424063 f   mfc140d:mfc140d.dll
 0001:00023069       ??1CWnd@@UAE@XZ            00424069 f   mfc140d:mfc140d.dll
 0001:0002306f       ?CheckAutoCenter@CWnd@@UAEHXZ 0042406f f   mfc140d:mfc140d.dll
 0001:00023075       ?AssertValid@CWnd@@UBEXXZ  00424075 f   mfc140d:mfc140d.dll
 0001:0002307b       ?Dump@CWnd@@UBEXAAVCDumpContext@@@Z 0042407b f   mfc140d:mfc140d.dll
 0001:00023081       ?SetOccDialogInfo@CWnd@@MAEHPAU_AFX_OCC_DIALOG_INFO@@@Z 00424081 f   mfc140d:mfc140d.dll
 0001:00023087       ?GetOccDialogInfo@CWnd@@MAEPAU_AFX_OCC_DIALOG_INFO@@XZ 00424087 f   mfc140d:mfc140d.dll
 0001:0002308d       ?AfxGetMainWnd@@YGPAVCWnd@@XZ 0042408d f   mfc140d:mfc140d.dll
 0001:00023093       ??0CCriticalSection@@QAE@XZ 00424093 f   mfc140d:mfc140d.dll
 0001:00023099       ??1CCriticalSection@@UAE@XZ 00424099 f   mfc140d:mfc140d.dll
 0001:000230a0       ??1CComBSTR@ATL@@QAE@XZ    004240a0 f i mfcs140d:nolib.obj
 0001:000230e0       ??1stringdispid@CComTypeInfoHolder@ATL@@QAE@XZ 004240e0 f i mfcs140d:nolib.obj
 0001:00023110       ??_Estringdispid@CComTypeInfoHolder@ATL@@QAEPAXI@Z 00424110 f i mfcs140d:nolib.obj
 0001:000231f0       _IsolationAwareActivateActCtx@8 004241f0 f i mfcs140d:nolib.obj
 0001:000232b0       _IsolationAwareCreateActCtxW@4 004242b0 f i mfcs140d:nolib.obj
 0001:00023370       _IsolationAwareDeactivateActCtx@8 00424370 f i mfcs140d:nolib.obj
 0001:00023430       _IsolationAwareFindActCtxSectionStringW@20 00424430 f i mfcs140d:nolib.obj
 0001:00023500       _IsolationAwarePrivatenPgViNgRzlnPgpgk@4 00424500 f i mfcs140d:nolib.obj
 0001:00023620       _IsolationAwarePrivatezltRgCebPnQQeRff@12 00424620 f i mfcs140d:nolib.obj
 0001:000236f0       _IsolationAwarePrivatezltRgzbQhYRuNaQYRJ@4 004246f0 f i mfcs140d:nolib.obj
 0001:00023720       _IsolationAwarePrivatezltRgzbQhYRuNaQYRn@4 00424720 f i mfcs140d:nolib.obj
 0001:00023750       _IsolationAwareQueryActCtxW@28 00424750 f i mfcs140d:nolib.obj
 0001:00023830       _IsolationAwareUnregisterClassA@8 00424830 f i mfcs140d:nolib.obj
 0001:00023a40       _WinbaseIsolationAwarePrivatetRgCebPnQQeRff_xReaRYQP_QYY@4 00424a40 f i mfcs140d:nolib.obj
 0001:00023a70       _WinbaseIsolationAwarePrivatetRgzlnPgpgk@0 00424a70 f i mfcs140d:nolib.obj
 0001:00023ec0       ??3@YAXPAXI@Z              00424ec0 f   msvcrtd:delete_scalar_size.obj
 0001:00023ee0       @__security_check_cookie@4 00424ee0 f   msvcrtd:secchk.obj
 0001:00023f00       __chkstk                   00424f00 f   msvcrtd:chkstk.obj
 0001:00023f00       __alloca_probe             00424f00 f   msvcrtd:chkstk.obj
 0001:00023f40       ??1type_info@@UAE@XZ       00424f40 f   msvcrtd:std_type_info_static.obj
 0001:00023f60       ??_Gtype_info@@UAEPAXI@Z   00424f60 f i msvcrtd:std_type_info_static.obj
 0001:00023f60       ??_Etype_info@@UAEPAXI@Z   00424f60 f i msvcrtd:std_type_info_static.obj
 0001:00023fa0       ??$__crt_fast_decode_pointer@PAP6AXXZ@@YAPAP6AXXZQAP6AXXZ@Z 00424fa0 f i msvcrtd:utility.obj
 0001:00023fd0       ??$__crt_fast_encode_pointer@PAP6AXXZ@@YAPAP6AXXZQAP6AXXZ@Z 00424fd0 f i msvcrtd:utility.obj
 0001:00024010       ?__crt_rotate_pointer_value@@YAIIH@Z 00425010 f i msvcrtd:utility.obj
 0001:00024020       ?configure_argv@__scrt_narrow_argv_policy@@SAHXZ 00425020 f i msvcrtd:utility.obj
 0001:000240f0       ?initialize_environment@__scrt_narrow_environment_policy@@SAHXZ 004250f0 f i msvcrtd:utility.obj
 0001:00024190       _NtCurrentTeb              00425190 f i msvcrtd:utility.obj
 0001:000241a0       ___scrt_acquire_startup_lock 004251a0 f   msvcrtd:utility.obj
 0001:00024200       ___scrt_dllmain_after_initialize_c 00425200 f   msvcrtd:utility.obj
 0001:00024240       ___scrt_dllmain_before_initialize_c 00425240 f   msvcrtd:utility.obj
 0001:00024270       ___scrt_dllmain_crt_thread_attach 00425270 f   msvcrtd:utility.obj
 0001:000242b0       ___scrt_dllmain_crt_thread_detach 004252b0 f   msvcrtd:utility.obj
 0001:000242d0       ___scrt_dllmain_exception_filter 004252d0 f   msvcrtd:utility.obj
 0001:00024330       ___scrt_dllmain_uninitialize_c 00425330 f   msvcrtd:utility.obj
 0001:00024370       ___scrt_dllmain_uninitialize_critical 00425370 f   msvcrtd:utility.obj
 0001:00024390       ___scrt_initialize_crt     00425390 f   msvcrtd:utility.obj
 0001:000243f0       ___scrt_initialize_onexit_tables 004253f0 f   msvcrtd:utility.obj
 0001:00024510       ___scrt_is_nonwritable_in_current_image 00425510 f   msvcrtd:utility.obj
 0001:00024690       ___scrt_release_startup_lock 00425690 f   msvcrtd:utility.obj
 0001:000246c0       ___scrt_uninitialize_crt   004256c0 f   msvcrtd:utility.obj
 0001:00024710       __onexit                   00425710 f   msvcrtd:utility.obj
 0001:000247a0       _at_quick_exit             004257a0 f   msvcrtd:utility.obj
 0001:00024800       _atexit                    00425800 f   msvcrtd:utility.obj
 0001:00024840       __ftoui3                   00425840 f   msvcrtd:ftol3.obj
 0001:0002484f       __ftoul3                   0042584f f   msvcrtd:ftol3.obj
 0001:0002485e       __ftol3                    0042585e f   msvcrtd:ftol3.obj
 0001:0002486b       __ftol3_NaN                0042586b f   msvcrtd:ftol3.obj
 0001:00024883       __ftol3_work               00425883 f   msvcrtd:ftol3.obj
 0001:00024909       __ftol3_common             00425909 f   msvcrtd:ftol3.obj
 0001:000249cb       __ftol3_arg_error          004259cb f   msvcrtd:ftol3.obj
 0001:000249dd       __ftol3_except             004259dd f   msvcrtd:ftol3.obj
 0001:00024a21       __dtoui3                   00425a21 f   msvcrtd:ftol3.obj
 0001:00024a30       __dtoul3                   00425a30 f   msvcrtd:ftol3.obj
 0001:00024a3f       __dtol3                    00425a3f f   msvcrtd:ftol3.obj
 0001:00024a4c       __dtol3_NaN                00425a4c f   msvcrtd:ftol3.obj
 0001:00024a69       __dtol3_work               00425a69 f   msvcrtd:ftol3.obj
 0001:00024b50       __ultod3                   00425b50 f   msvcrtd:ftol3.obj
 0001:00024b90       __ltod3                    00425b90 f   msvcrtd:ftol3.obj
 0001:00024ca0       ??_L@YGXPAXIHP6EX0@Z1@Z    00425ca0 f   msvcrtd:ehvecctr.obj
 0001:00024cd0       ??_L@YGXPAXIIP6EX0@Z1@Z    00425cd0 f   msvcrtd:ehvecctr.obj
 0001:00024dc0       ??_M@YGXPAXIHP6EX0@Z@Z     00425dc0 f   msvcrtd:ehvecdtr.obj
 0001:00024df0       ??_M@YGXPAXIIP6EX0@Z@Z     00425df0 f   msvcrtd:ehvecdtr.obj
 0001:00024f30       ?__ArrayUnwind@@YGXPAXIIP6EX0@Z@Z 00425f30 f   msvcrtd:ehvecdtr.obj
 0001:00025050       ??$__crt_fast_decode_pointer@P6GHPAU_RTL_CONDITION_VARIABLE@@PAU_RTL_CRITICAL_SECTION@@K@Z@@YAP6GHPAU_RTL_CONDITION_VARIABLE@@PAU_RTL_CRITICAL_SECTION@@K@ZQ6GH01K@Z@Z 00426050 f i msvcrtd:thread_safe_statics.obj
 0001:00025080       ??$__crt_fast_decode_pointer@P6GXPAU_RTL_CONDITION_VARIABLE@@@Z@@YAP6GXPAU_RTL_CONDITION_VARIABLE@@@ZQ6GX0@Z@Z 00426080 f i msvcrtd:thread_safe_statics.obj
 0001:000250b0       ??$__crt_fast_encode_pointer@P6GHPAU_RTL_CONDITION_VARIABLE@@PAU_RTL_CRITICAL_SECTION@@K@Z@@YAP6GHPAU_RTL_CONDITION_VARIABLE@@PAU_RTL_CRITICAL_SECTION@@K@ZQ6GH01K@Z@Z 004260b0 f i msvcrtd:thread_safe_statics.obj
 0001:000250f0       ??$__crt_fast_encode_pointer@P6GXPAU_RTL_CONDITION_VARIABLE@@@Z@@YAP6GXPAU_RTL_CONDITION_VARIABLE@@@ZQ6GX0@Z@Z 004260f0 f i msvcrtd:thread_safe_statics.obj
 0001:000252a0       ?__scrt_is_event_api_used@@YA_NQAX@Z 004262a0 f i msvcrtd:thread_safe_statics.obj
 0001:00025350       __Init_thread_abort        00426350 f   msvcrtd:thread_safe_statics.obj
 0001:00025380       __Init_thread_footer       00426380 f   msvcrtd:thread_safe_statics.obj
 0001:000253e0       __Init_thread_header       004263e0 f   msvcrtd:thread_safe_statics.obj
 0001:00025470       __Init_thread_lock         00426470 f   msvcrtd:thread_safe_statics.obj
 0001:00025490       __Init_thread_notify       00426490 f   msvcrtd:thread_safe_statics.obj
 0001:00025510       __Init_thread_unlock       00426510 f   msvcrtd:thread_safe_statics.obj
 0001:00025530       __Init_thread_wait         00426530 f   msvcrtd:thread_safe_statics.obj
 0001:000259f0       ?set_app_type@__scrt_winmain_policy@@SAXXZ 004269f0 f i msvcrtd:exe_winmain.obj
 0001:00025a10       ?set_commode@__scrt_file_policy@@SAXXZ 00426a10 f i msvcrtd:exe_winmain.obj
 0001:00025a30       ?set_fmode@__scrt_file_policy@@SAXXZ 00426a30 f i msvcrtd:exe_winmain.obj
 0001:00025a50       _WinMainCRTStartup         00426a50 f   msvcrtd:exe_winmain.obj
 0001:00025a60       ??_V@YAXPAXI@Z             00426a60 f   msvcrtd:delete_array_size.obj
 0001:00025a80       @_RTC_AllocaHelper@12      00426a80 f   msvcrtd:stack.obj
 0001:00025ac0       @_RTC_CheckStackVars2@12   00426ac0 f   msvcrtd:stack.obj
 0001:00025be0       @_RTC_CheckStackVars@8     00426be0 f   msvcrtd:stack.obj
 0001:00025c60       __RTC_CheckEsp             00426c60 f   msvcrtd:stack.obj
 0001:00025ca0       __CRT_RTC_INIT             00426ca0 f   msvcrtd:init.obj
 0001:00025cb0       __CRT_RTC_INITW            00426cb0 f   msvcrtd:init.obj
 0001:00025cc0       __RTC_InitBase             00426cc0 f   msvcrtd:init.obj
 0001:00025d00       __RTC_Shutdown             00426d00 f   msvcrtd:init.obj
 0001:00025d20       __except_handler4          00426d20 f   msvcrtd:chandler4gs.obj
 0001:00025d50       @_guard_check_icall_nop@4  00426d50 f i msvcrtd:guard_support.obj
 0001:00025d60       _ReadNoFence               00426d60 f i msvcrtd:guard_support.obj
 0001:00025d80       _ReadPointerNoFence        00426d80 f i msvcrtd:guard_support.obj
 0001:00025da0       __guard_icall_checks_enforced 00426da0 f i msvcrtd:guard_support.obj
 0001:00025de0       ___raise_securityfailure   00426de0 f   msvcrtd:gs_report.obj
 0001:00025e20       ___report_gsfailure        00426e20 f   msvcrtd:gs_report.obj
 0001:00025f70       ___report_rangecheckfailure 00426f70 f   msvcrtd:gs_report.obj
 0001:00025f80       ___report_securityfailure  00426f80 f   msvcrtd:gs_report.obj
 0001:00026090       ___report_securityfailureEx 00427090 f   msvcrtd:gs_report.obj
 0001:00026200       ___isa_available_init      00427200 f   msvcrtd:cpu_disp.obj
 0001:00026590       __get_startup_argv_mode    00427590 f   msvcrtd:argv_mode.obj
 0001:000265a0       ___scrt_is_ucrt_dll_in_use 004275a0 f   msvcrtd:ucrt_detection.obj
 0001:000265d0       ___scrt_fastfail           004275d0 f   msvcrtd:utility_desktop.obj
 0001:00026760       ___scrt_get_show_window_mode 00427760 f   msvcrtd:utility_desktop.obj
 0001:000267b0       ___scrt_initialize_mta     004277b0 f   msvcrtd:utility_desktop.obj
 0001:000267c0       ___scrt_initialize_winrt   004277c0 f   msvcrtd:utility_desktop.obj
 0001:000267d0       ___scrt_is_managed_app     004277d0 f   msvcrtd:utility_desktop.obj
 0001:00026880       ___scrt_set_unhandled_exception_filter 00427880 f   msvcrtd:utility_desktop.obj
 0001:000268a0       ___scrt_stub_for_initialize_mta 004278a0 f   msvcrtd:utility_desktop.obj
 0001:000268a0       ___scrt_exe_initialize_mta 004278a0 f   msvcrtd:utility_desktop.obj
 0001:000268b0       ___scrt_unhandled_exception_filter@4 004278b0 f   msvcrtd:utility_desktop.obj
 0001:00026930       __crt_debugger_hook        00427930 f   msvcrtd:utility_desktop.obj
 0001:000269e0       ___security_init_cookie    004279e0 f   msvcrtd:gs_support.obj
 0001:00026a80       __matherr                  00427a80 f   msvcrtd:matherr.obj
 0001:00026a90       __get_startup_commit_mode  00427a90 f   msvcrtd:commit_mode.obj
 0001:00026aa0       __get_startup_file_mode    00427aa0 f   msvcrtd:file_mode.obj
 0001:00026ab0       __get_startup_new_mode     00427ab0 f   msvcrtd:new_mode.obj
 0001:00026ac0       __get_startup_thread_locale_mode 00427ac0 f   msvcrtd:thread_locale.obj
 0001:00026ad0       ?__scrt_initialize_type_info@@YAXXZ 00427ad0 f   msvcrtd:tncleanup.obj
 0001:00026af0       ?__scrt_uninitialize_type_info@@YAXXZ 00427af0 f   msvcrtd:tncleanup.obj
 0001:00026b10       __should_initialize_environment 00427b10 f   msvcrtd:env_mode.obj
 0001:00026b20       __initialize_default_precision 00427b20 f   msvcrtd:default_precision.obj
 0001:00026b50       __initialize_invalid_parameter_handler 00427b50 f   msvcrtd:invalid_parameter_handler.obj
 0001:00026b60       __initialize_denormal_control 00427b60 f   msvcrtd:denormal_control.obj
 0001:00026b70       ___local_stdio_scanf_options 00427b70 f i msvcrtd:default_local_stdio_options.obj
 0001:00026b80       ___scrt_initialize_default_local_stdio_options 00427b80 f   msvcrtd:default_local_stdio_options.obj
 0001:00026bd0       ___scrt_is_user_matherr_present 00427bd0 f   msvcrtd:matherr_detection.obj
 0001:00026c00       ___scrt_get_dyn_tls_init_callback 00427c00 f   msvcrtd:dyn_tls_init.obj
 0001:00026c10       ___scrt_get_dyn_tls_dtor_callback 00427c10 f   msvcrtd:dyn_tls_dtor.obj
 0001:00026c20       __RTC_Initialize           00427c20 f   msvcrtd:initsect.obj
 0001:00026c60       __RTC_Terminate            00427c60 f   msvcrtd:initsect.obj
 0001:00026d50       ?_RTC_AllocaFailure@@YAXPAXPAU_RTC_ALLOCA_NODE@@H@Z 00427d50 f   msvcrtd:error.obj
 0001:00026e70       ?_RTC_Failure@@YAXPAXH@Z   00427e70 f   msvcrtd:error.obj
 0001:00026ee0       ?_RTC_StackFailure@@YAXPAXPBD@Z 00427ee0 f   msvcrtd:error.obj
 0001:00027390       __RTC_UninitUse            00428390 f   msvcrtd:error.obj
 0001:00027470       __vsprintf_s_l             00428470 f i msvcrtd:error.obj
 0001:000274b0       _sprintf_s                 004284b0 f i msvcrtd:error.obj
 0001:000274e0       ?_RTC_GetErrorFunc@@YAP6AHHPBDH00ZZPBX@Z 004284e0 f   msvcrtd:userapi.obj
 0001:000274f0       ?_RTC_GetErrorFuncW@@YAP6AHHPB_WH00ZZPBX@Z 004284f0 f   msvcrtd:userapi.obj
 0001:00027500       __RTC_GetErrDesc           00428500 f   msvcrtd:userapi.obj
 0001:00027520       __RTC_NumErrors            00428520 f   msvcrtd:userapi.obj
 0001:00027530       __RTC_SetErrorFunc         00428530 f   msvcrtd:userapi.obj
 0001:00027560       __RTC_SetErrorFuncW        00428560 f   msvcrtd:userapi.obj
 0001:00027590       __RTC_SetErrorType         00428590 f   msvcrtd:userapi.obj
 0001:00027b50       ?_RTC_GetSrcLine@@YAHPAEPA_WKPAH1K@Z 00428b50 f   msvcrtd:pdblkup.obj
 0001:00027fc0       __except_handler4_noexcept 00428fc0 f   msvcrtd:chandler4_noexcept.obj
 0001:00028018       _GetTickCount@0            00429018 f   kernel32:KERNEL32.dll
 0001:0002801e       _lstrcpynA@12              0042901e f   kernel32:KERNEL32.dll
 0001:00028024       _lstrlenA@4                00429024 f   kernel32:KERNEL32.dll
 0001:0002802a       _GetLastError@0            0042902a f   kernel32:KERNEL32.dll
 0001:00028030       _SetLastError@4            00429030 f   kernel32:KERNEL32.dll
 0001:00028036       _GetProcAddress@8          00429036 f   kernel32:KERNEL32.dll
 0001:0002803c       _MultiByteToWideChar@24    0042903c f   kernel32:KERNEL32.dll
 0001:00028042       _WideCharToMultiByte@32    00429042 f   kernel32:KERNEL32.dll
 0001:00028048       _CompareStringA@24         00429048 f   kernel32:KERNEL32.dll
 0001:0002804e       _DecodePointer@4           0042904e f   kernel32:KERNEL32.dll
 0001:00028054       _RaiseException@16         00429054 f   kernel32:KERNEL32.dll
 0001:0002805a       _HeapDestroy@4             0042905a f   kernel32:KERNEL32.dll
 0001:00028060       _HeapAlloc@12              00429060 f   kernel32:KERNEL32.dll
 0001:00028066       _HeapReAlloc@16            00429066 f   kernel32:KERNEL32.dll
 0001:0002806c       _HeapFree@12               0042906c f   kernel32:KERNEL32.dll
 0001:00028072       _HeapSize@12               00429072 f   kernel32:KERNEL32.dll
 0001:00028078       _GetProcessHeap@0          00429078 f   kernel32:KERNEL32.dll
 0001:0002807e       _InitializeCriticalSectionAndSpinCount@8 0042907e f   kernel32:KERNEL32.dll
 0001:00028084       _DeleteCriticalSection@4   00429084 f   kernel32:KERNEL32.dll
 0001:0002808a       _OutputDebugStringA@4      0042908a f   kernel32:KERNEL32.dll
 0001:00028090       _GetModuleFileNameW@12     00429090 f   kernel32:KERNEL32.dll
 0001:00028096       _GetModuleHandleA@4        00429096 f   kernel32:KERNEL32.dll
 0001:0002809c       _GetModuleHandleW@4        0042909c f   kernel32:KERNEL32.dll
 0001:000280a2       _LoadLibraryW@4            004290a2 f   kernel32:KERNEL32.dll
 0001:000280a8       _CloseHandle@4             004290a8 f   kernel32:KERNEL32.dll
 0001:000280ae       _EnterCriticalSection@4    004290ae f   kernel32:KERNEL32.dll
 0001:000280b4       _LeaveCriticalSection@4    004290b4 f   kernel32:KERNEL32.dll
 0001:000280ba       _SetEvent@4                004290ba f   kernel32:KERNEL32.dll
 0001:000280c0       _ResetEvent@4              004290c0 f   kernel32:KERNEL32.dll
 0001:000280c6       _WaitForSingleObjectEx@12  004290c6 f   kernel32:KERNEL32.dll
 0001:000280cc       _CreateEventW@16           004290cc f   kernel32:KERNEL32.dll
 0001:000280d2       _UnhandledExceptionFilter@4 004290d2 f   kernel32:KERNEL32.dll
 0001:000280d8       _SetUnhandledExceptionFilter@4 004290d8 f   kernel32:KERNEL32.dll
 0001:000280de       _GetCurrentProcess@0       004290de f   kernel32:KERNEL32.dll
 0001:000280e4       _TerminateProcess@8        004290e4 f   kernel32:KERNEL32.dll
 0001:000280ea       _IsProcessorFeaturePresent@4 004290ea f   kernel32:KERNEL32.dll
 0001:000280f0       _IsDebuggerPresent@0       004290f0 f   kernel32:KERNEL32.dll
 0001:000280f6       _GetStartupInfoW@4         004290f6 f   kernel32:KERNEL32.dll
 0001:000280fc       _QueryPerformanceCounter@4 004290fc f   kernel32:KERNEL32.dll
 0001:00028102       _GetCurrentProcessId@0     00429102 f   kernel32:KERNEL32.dll
 0001:00028108       _GetCurrentThreadId@0      00429108 f   kernel32:KERNEL32.dll
 0001:0002810e       _GetSystemTimeAsFileTime@4 0042910e f   kernel32:KERNEL32.dll
 0001:00028114       _InitializeSListHead@4     00429114 f   kernel32:KERNEL32.dll
 0001:0002811a       _VirtualQuery@12           0042911a f   kernel32:KERNEL32.dll
 0001:00028120       _FreeLibrary@4             00429120 f   kernel32:KERNEL32.dll
 0001:00028126       _PeekMessageA@20           00429126 f   user32:USER32.dll
 0001:0002812c       _PostQuitMessage@4         0042912c f   user32:USER32.dll
 0001:00028132       _LoadIconA@8               00429132 f   user32:USER32.dll
 0001:00028138       _IsWindow@4                00429138 f   user32:USER32.dll
 0001:0002813e       _UnregisterClassA@8        0042913e f   user32:USER32.dll
 0001:00028144       _InitCommonControls@0      00429144 f   comctl32:COMCTL32.dll
 0001:0002814a       ??$?2PAUHINSTANCE__@@@Wrapper@?$CSimpleArray@PAUHINSTANCE__@@V?$CSimpleArrayEqualHelper@PAUHINSTANCE__@@@ATL@@@ATL@@SAPAXIPAPAUHINSTANCE__@@@Z 0042914a f i atls:atlbase.obj
 0001:00028154       ??0?$CComCritSecLock@VCComCriticalSection@ATL@@@ATL@@QAE@AAVCComCriticalSection@1@_N@Z 00429154 f i atls:atlbase.obj
 0001:00028184       ??0?$CSimpleArray@PAUHINSTANCE__@@V?$CSimpleArrayEqualHelper@PAUHINSTANCE__@@@ATL@@@ATL@@QAE@XZ 00429184 f i atls:atlbase.obj
 0001:00028194       ??0CAtlBaseModule@ATL@@QAE@XZ 00429194 f   atls:atlbase.obj
 0001:000281fb       ??0Wrapper@?$CSimpleArray@PAUHINSTANCE__@@V?$CSimpleArrayEqualHelper@PAUHINSTANCE__@@@ATL@@@ATL@@QAE@ABQAUHINSTANCE__@@@Z 004291fb f i atls:atlbase.obj
 0001:0002820f       ??0_ATL_BASE_MODULE70@ATL@@QAE@XZ 0042920f f i atls:atlbase.obj
 0001:0002823a       ??1?$CComCritSecLock@VCComCriticalSection@ATL@@@ATL@@QAE@XZ 0042923a f i atls:atlbase.obj
 0001:00028256       ??1?$CSimpleArray@PAUHINSTANCE__@@V?$CSimpleArrayEqualHelper@PAUHINSTANCE__@@@ATL@@@ATL@@QAE@XZ 00429256 f i atls:atlbase.obj
 0001:0002825b       ??1CAtlBaseModule@ATL@@QAE@XZ 0042925b f   atls:atlbase.obj
 0001:00028276       ??1_ATL_BASE_MODULE70@ATL@@QAE@XZ 00429276 f i atls:atlbase.obj
 0001:00028280       ??A?$CSimpleArray@PAUHINSTANCE__@@V?$CSimpleArrayEqualHelper@PAUHINSTANCE__@@@ATL@@@ATL@@QAEAAPAUHINSTANCE__@@H@Z 00429280 f i atls:atlbase.obj
 0001:000282ae       ?Add@?$CSimpleArray@PAUHINSTANCE__@@V?$CSimpleArrayEqualHelper@PAUHINSTANCE__@@@ATL@@@ATL@@QAEHABQAUHINSTANCE__@@@Z 004292ae f i atls:atlbase.obj
 0001:00028350       ?AddResourceInstance@CAtlBaseModule@ATL@@QAE_NPAUHINSTANCE__@@@Z 00429350 f   atls:atlbase.obj
 0001:0002838f       ?AtlCrtErrorCheck@ATL@@YAHH@Z 0042938f f i atls:atlbase.obj
 0001:000283d8       ?GetHInstanceAt@CAtlBaseModule@ATL@@QAEPAUHINSTANCE__@@H@Z 004293d8 f   atls:atlbase.obj
 0001:0002842e       ?GetSize@?$CSimpleArray@PAUHINSTANCE__@@V?$CSimpleArrayEqualHelper@PAUHINSTANCE__@@@ATL@@@ATL@@QBEHXZ 0042942e f i atls:atlbase.obj
 0001:00028432       ?InternalSetAtIndex@?$CSimpleArray@PAUHINSTANCE__@@V?$CSimpleArrayEqualHelper@PAUHINSTANCE__@@@ATL@@@ATL@@QAEXHABQAUHINSTANCE__@@@Z 00429432 f i atls:atlbase.obj
 0001:00028452       ?Lock@?$CComCritSecLock@VCComCriticalSection@ATL@@@ATL@@QAEJXZ 00429452 f i atls:atlbase.obj
 0001:00028469       ?Lock@CComCriticalSection@ATL@@QAEJXZ 00429469 f i atls:atlbase.obj
 0001:00028475       ?RemoveAll@?$CSimpleArray@PAUHINSTANCE__@@V?$CSimpleArrayEqualHelper@PAUHINSTANCE__@@@ATL@@@ATL@@QAEXXZ 00429475 f i atls:atlbase.obj
 0001:00028499       ?RemoveAt@?$CSimpleArray@PAUHINSTANCE__@@V?$CSimpleArrayEqualHelper@PAUHINSTANCE__@@@ATL@@@ATL@@QAEHH@Z 00429499 f i atls:atlbase.obj
 0001:000284fa       ?RemoveResourceInstance@CAtlBaseModule@ATL@@QAE_NPAUHINSTANCE__@@@Z 004294fa f   atls:atlbase.obj
 0001:0002856e       ?Unlock@?$CComCritSecLock@VCComCriticalSection@ATL@@@ATL@@QAEXXZ 0042956e f i atls:atlbase.obj
 0001:00028583       ?Unlock@CComCriticalSection@ATL@@QAEJXZ 00429583 f i atls:atlbase.obj
 0001:0002858f       ?memmove_s@Checked@ATL@@YAXPAXIPBXI@Z 0042958f f i atls:atlbase.obj
 0001:00028653       ??0?$CTraceCategoryEx@$00$0A@@ATL@@QAE@PB_W@Z 00429653 f i atls:stdafx.obj
 0001:00028658       ??0?$CTraceCategoryEx@$01$0A@@ATL@@QAE@PB_W@Z 00429658 f i atls:stdafx.obj
 0001:0002865d       ??0?$CTraceCategoryEx@$03$0A@@ATL@@QAE@PB_W@Z 0042965d f i atls:stdafx.obj
 0001:00028662       ??0?$CTraceCategoryEx@$07$0A@@ATL@@QAE@PB_W@Z 00429662 f i atls:stdafx.obj
 0001:00028667       ??0?$CTraceCategoryEx@$0BA@$0A@@ATL@@QAE@PB_W@Z 00429667 f i atls:stdafx.obj
 0001:0002866c       ??0?$CTraceCategoryEx@$0BAA@$0A@@ATL@@QAE@PB_W@Z 0042966c f i atls:stdafx.obj
 0001:00028671       ??0?$CTraceCategoryEx@$0BAAA@$0A@@ATL@@QAE@PB_W@Z 00429671 f i atls:stdafx.obj
 0001:00028676       ??0?$CTraceCategoryEx@$0BAAAA@$0A@@ATL@@QAE@PB_W@Z 00429676 f i atls:stdafx.obj
 0001:0002867b       ??0?$CTraceCategoryEx@$0BAAAAA@$0A@@ATL@@QAE@PB_W@Z 0042967b f i atls:stdafx.obj
 0001:00028680       ??0?$CTraceCategoryEx@$0CA@$0A@@ATL@@QAE@PB_W@Z 00429680 f i atls:stdafx.obj
 0001:00028685       ??0?$CTraceCategoryEx@$0CAA@$0A@@ATL@@QAE@PB_W@Z 00429685 f i atls:stdafx.obj
 0001:0002868a       ??0?$CTraceCategoryEx@$0CAAA@$0A@@ATL@@QAE@PB_W@Z 0042968a f i atls:stdafx.obj
 0001:0002868f       ??0?$CTraceCategoryEx@$0CAAAA@$0A@@ATL@@QAE@PB_W@Z 0042968f f i atls:stdafx.obj
 0001:00028694       ??0?$CTraceCategoryEx@$0CAAAAA@$0A@@ATL@@QAE@PB_W@Z 00429694 f i atls:stdafx.obj
 0001:00028699       ??0?$CTraceCategoryEx@$0EA@$0A@@ATL@@QAE@PB_W@Z 00429699 f i atls:stdafx.obj
 0001:0002869e       ??0?$CTraceCategoryEx@$0EAA@$0A@@ATL@@QAE@PB_W@Z 0042969e f i atls:stdafx.obj
 0001:000286a3       ??0?$CTraceCategoryEx@$0EAAA@$0A@@ATL@@QAE@PB_W@Z 004296a3 f i atls:stdafx.obj
 0001:000286a8       ??0?$CTraceCategoryEx@$0EAAAA@$0A@@ATL@@QAE@PB_W@Z 004296a8 f i atls:stdafx.obj
 0001:000286ad       ??0?$CTraceCategoryEx@$0EAAAAA@$0A@@ATL@@QAE@PB_W@Z 004296ad f i atls:stdafx.obj
 0001:000286b2       ??0?$CTraceCategoryEx@$0IA@$0A@@ATL@@QAE@PB_W@Z 004296b2 f i atls:stdafx.obj
 0001:000286b7       ??0?$CTraceCategoryEx@$0IAA@$0A@@ATL@@QAE@PB_W@Z 004296b7 f i atls:stdafx.obj
 0001:000286bc       ??0?$CTraceCategoryEx@$0IAAA@$0A@@ATL@@QAE@PB_W@Z 004296bc f i atls:stdafx.obj
 0001:000286c1       ??0?$CTraceCategoryEx@$0IAAAA@$0A@@ATL@@QAE@PB_W@Z 004296c1 f i atls:stdafx.obj
 0001:000286c6       ??_I@YGXPAXIIP6EX0@Z@Z     004296c6 f i atls:stdafx.obj
 0001:00028705       _VariantInit@4             00429705 f   oleaut32:OLEAUT32.dll
 0001:0002870b       _VariantClear@4            0042970b f   oleaut32:OLEAUT32.dll
 0001:00028711       _SysFreeString@4           00429711 f   oleaut32:OLEAUT32.dll
 0001:00028717       ?_Xbad_alloc@std@@YAXXZ    00429717 f   msvcprtd:MSVCP140D.dll
 0001:0002871d       __Mbrtowc                  0042971d f   msvcprtd:MSVCP140D.dll
 0001:00028723       ?_Getcvt@_Locinfo@std@@QBE?AU_Cvtvec@@XZ 00429723 f   msvcprtd:MSVCP140D.dll
 0001:00028729       ?_Getdays@_Locinfo@std@@QBEPBDXZ 00429729 f   msvcprtd:MSVCP140D.dll
 0001:0002872f       ?_Getmonths@_Locinfo@std@@QBEPBDXZ 0042972f f   msvcprtd:MSVCP140D.dll
 0001:00028735       ?_W_Getdays@_Locinfo@std@@QBEPBGXZ 00429735 f   msvcprtd:MSVCP140D.dll
 0001:0002873b       ?_W_Getmonths@_Locinfo@std@@QBEPBGXZ 0042973b f   msvcprtd:MSVCP140D.dll
 0001:00028741       __purecall                 00429741 f   vcruntimed:VCRUNTIME140D.dll
 0001:00028747       _memcmp                    00429747 f   vcruntimed:VCRUNTIME140D.dll
 0001:0002874d       _memcpy                    0042974d f   vcruntimed:VCRUNTIME140D.dll
 0001:00028753       _memmove                   00429753 f   vcruntimed:VCRUNTIME140D.dll
 0001:00028759       _memset                    00429759 f   vcruntimed:VCRUNTIME140D.dll
 0001:0002875f       ___CxxFrameHandler3        0042975f f   vcruntimed:VCRUNTIME140D.dll
 0001:00028765       __CxxThrowException@8      00429765 f   vcruntimed:VCRUNTIME140D.dll
 0001:0002876b       __except_handler4_common   0042976b f   vcruntimed:VCRUNTIME140D.dll
 0001:00028771       ___std_type_info_destroy_list 00429771 f   vcruntimed:VCRUNTIME140D.dll
 0001:00028777       ___vcrt_GetModuleFileNameW 00429777 f   vcruntimed:VCRUNTIME140D.dll
 0001:0002877d       ___vcrt_GetModuleHandleW   0042977d f   vcruntimed:VCRUNTIME140D.dll
 0001:00028783       ___vcrt_LoadLibraryExW     00429783 f   vcruntimed:VCRUNTIME140D.dll
 0001:00028789       ___stdio_common_vsprintf   00429789 f   ucrtd:ucrtbased.dll
 0001:0002878f       __time64                   0042978f f   ucrtd:ucrtbased.dll
 0001:00028795       __CrtDbgReport             00429795 f   ucrtd:ucrtbased.dll
 0001:0002879b       _atol                      0042979b f   ucrtd:ucrtbased.dll
 0001:000287a1       _wcscpy_s                  004297a1 f   ucrtd:ucrtbased.dll
 0001:000287a7       _wcslen                    004297a7 f   ucrtd:ucrtbased.dll
 0001:000287ad       ___stdio_common_vswprintf_s 004297ad f   ucrtd:ucrtbased.dll
 0001:000287b3       ___stdio_common_vsnprintf_s 004297b3 f   ucrtd:ucrtbased.dll
 0001:000287b9       _calloc                    004297b9 f   ucrtd:ucrtbased.dll
 0001:000287bf       _free                      004297bf f   ucrtd:ucrtbased.dll
 0001:000287c5       _malloc                    004297c5 f   ucrtd:ucrtbased.dll
 0001:000287cb       __recalloc                 004297cb f   ucrtd:ucrtbased.dll
 0001:000287d1       __mktime64                 004297d1 f   ucrtd:ucrtbased.dll
 0001:000287d7       __CrtDbgReportW            004297d7 f   ucrtd:ucrtbased.dll
 0001:000287dd       _ldiv                      004297dd f   ucrtd:ucrtbased.dll
 0001:000287e3       _asin                      004297e3 f   ucrtd:ucrtbased.dll
 0001:000287e9       _cos                       004297e9 f   ucrtd:ucrtbased.dll
 0001:000287ef       _pow                       004297ef f   ucrtd:ucrtbased.dll
 0001:000287f5       _sin                       004297f5 f   ucrtd:ucrtbased.dll
 0001:000287fb       _sqrt                      004297fb f   ucrtd:ucrtbased.dll
 0001:00028801       _ceil                      00429801 f   ucrtd:ucrtbased.dll
 0001:00028807       _floor                     00429807 f   ucrtd:ucrtbased.dll
 0001:0002880d       _strlen                    0042980d f   ucrtd:ucrtbased.dll
 0001:00028813       __calloc_dbg               00429813 f   ucrtd:ucrtbased.dll
 0001:00028819       __seh_filter_dll           00429819 f   ucrtd:ucrtbased.dll
 0001:0002881f       __configure_narrow_argv    0042981f f   ucrtd:ucrtbased.dll
 0001:00028825       __initialize_narrow_environment 00429825 f   ucrtd:ucrtbased.dll
 0001:0002882b       __initialize_onexit_table  0042982b f   ucrtd:ucrtbased.dll
 0001:00028831       __register_onexit_function 00429831 f   ucrtd:ucrtbased.dll
 0001:00028837       __execute_onexit_table     00429837 f   ucrtd:ucrtbased.dll
 0001:0002883d       __crt_atexit               0042983d f   ucrtd:ucrtbased.dll
 0001:00028843       __crt_at_quick_exit        00429843 f   ucrtd:ucrtbased.dll
 0001:00028849       __cexit                    00429849 f   ucrtd:ucrtbased.dll
 0001:0002884f       __except1                  0042984f f   ucrtd:ucrtbased.dll
 0001:00028855       _terminate                 00429855 f   ucrtd:ucrtbased.dll
 0001:0002885b       __seh_filter_exe           0042985b f   ucrtd:ucrtbased.dll
 0001:00028861       __set_app_type             00429861 f   ucrtd:ucrtbased.dll
 0001:00028867       ___setusermatherr          00429867 f   ucrtd:ucrtbased.dll
 0001:0002886d       __get_narrow_winmain_command_line 0042986d f   ucrtd:ucrtbased.dll
 0001:00028873       __initterm                 00429873 f   ucrtd:ucrtbased.dll
 0001:00028879       __initterm_e               00429879 f   ucrtd:ucrtbased.dll
 0001:0002887f       _exit                      0042987f f   ucrtd:ucrtbased.dll
 0001:00028885       __exit                     00429885 f   ucrtd:ucrtbased.dll
 0001:0002888b       __set_fmode                0042988b f   ucrtd:ucrtbased.dll
 0001:00028891       __c_exit                   00429891 f   ucrtd:ucrtbased.dll
 0001:00028897       __register_thread_local_exe_atexit_callback 00429897 f   ucrtd:ucrtbased.dll
 0001:0002889d       __configthreadlocale       0042989d f   ucrtd:ucrtbased.dll
 0001:000288a3       __set_new_mode             004298a3 f   ucrtd:ucrtbased.dll
 0001:000288a9       ___p__commode              004298a9 f   ucrtd:ucrtbased.dll
 0001:000288af       __controlfp_s              004298af f   ucrtd:ucrtbased.dll
 0001:000288b5       _strcpy_s                  004298b5 f   ucrtd:ucrtbased.dll
 0001:000288bb       _strcat_s                  004298bb f   ucrtd:ucrtbased.dll
 0001:000288c1       ___stdio_common_vsprintf_s 004298c1 f   ucrtd:ucrtbased.dll
 0001:000288c7       __wmakepath_s              004298c7 f   ucrtd:ucrtbased.dll
 0001:000288cd       __wsplitpath_s             004298cd f   ucrtd:ucrtbased.dll
 0001:000288d3       __invalid_parameter_noinfo 004298d3 f   ucrtd:ucrtbased.dll
 0001:000288d9       __errno                    004298d9 f   ucrtd:ucrtbased.dll
 0001:000288e0       ?AfxInitialize@@YGHHK@Z    004298e0 f   mfcs140d:appmodul.obj
 0001:00028970       _WinMain@16                00429970 f   mfcs140d:appmodul.obj
 0001:0002899b       _OutputDebugStringW@4      0042999b f   kernel32:KERNEL32.dll
 0001:000289a1       __setmbcp                  004299a1 f   ucrtd:ucrtbased.dll
 0001:000289a7       ?AfxGetModuleState@@YGPAVAFX_MODULE_STATE@@XZ 004299a7 f   mfc140d:mfc140d.dll
 0001:000289ad       ?AfxWinMain@@YGHPAUHINSTANCE__@@0PADH@Z 004299ad f   mfc140d:mfc140d.dll
 0001:000289c0       ___acrt_initialize         004299c0 f   msvcrtd:ucrt_stubs.obj
 0001:000289c0       ___vcrt_initialize         004299c0 f   msvcrtd:ucrt_stubs.obj
 0001:000289c0       ___scrt_stub_for_acrt_initialize 004299c0 f   msvcrtd:ucrt_stubs.obj
 0001:000289d0       ___vcrt_thread_attach      004299d0 f   msvcrtd:ucrt_stubs.obj
 0001:000289d0       ___scrt_stub_for_acrt_thread_attach 004299d0 f   msvcrtd:ucrt_stubs.obj
 0001:000289d0       ___acrt_thread_attach      004299d0 f   msvcrtd:ucrt_stubs.obj
 0001:000289e0       ___scrt_stub_for_acrt_thread_detach 004299e0 f   msvcrtd:ucrt_stubs.obj
 0001:000289e0       ___vcrt_thread_detach      004299e0 f   msvcrtd:ucrt_stubs.obj
 0001:000289e0       ___acrt_thread_detach      004299e0 f   msvcrtd:ucrt_stubs.obj
 0001:000289f0       ___scrt_stub_for_acrt_uninitialize 004299f0 f   msvcrtd:ucrt_stubs.obj
 0001:000289f0       ___acrt_uninitialize       004299f0 f   msvcrtd:ucrt_stubs.obj
 0001:000289f0       ___vcrt_uninitialize       004299f0 f   msvcrtd:ucrt_stubs.obj
 0001:00028a00       ___acrt_uninitialize_critical 00429a00 f   msvcrtd:ucrt_stubs.obj
 0001:00028a00       ___vcrt_uninitialize_critical 00429a00 f   msvcrtd:ucrt_stubs.obj
 0001:00028a00       ___scrt_stub_for_acrt_uninitialize_critical 00429a00 f   msvcrtd:ucrt_stubs.obj
 0001:00028a10       __is_c_termination_complete 00429a10 f   msvcrtd:ucrt_stubs.obj
 0001:00028a10       ___scrt_stub_for_is_c_termination_complete 00429a10 f   msvcrtd:ucrt_stubs.obj
 0001:0002c4d0       ??__FstrHeap@?1??GetInstance@CAtlStringMgr@ATL@@SAPAUIAtlStringMgr@2@XZ@YAXXZ 0042d4d0 f i Stdafx.obj
 0001:0002c4f0       ??__FstrMgr@?1??GetInstance@CAtlStringMgr@ATL@@SAPAUIAtlStringMgr@2@XZ@YAXXZ 0042d4f0 f i Stdafx.obj
 0002:00000000       ___xc_a                    0042f000     msvcrtd:initializers.obj
 0002:00000498       ___xc_z                    0042f498     msvcrtd:initializers.obj
 0002:0000059c       ___xi_a                    0042f59c     msvcrtd:initializers.obj
 0002:000009ac       ___xi_z                    0042f9ac     msvcrtd:initializers.obj
 0002:00000ab0       ___xl_a                    0042fab0     msvcrtd:tlssup.obj
 0002:00000ab4       ___xl_z                    0042fab4     msvcrtd:tlssup.obj
 0002:00000ab8       ___xp_a                    0042fab8     msvcrtd:initializers.obj
 0002:00000bbc       ___xp_z                    0042fbbc     msvcrtd:initializers.obj
 0002:00000cc0       ___xt_a                    0042fcc0     msvcrtd:initializers.obj
 0002:00000dc4       ___xt_z                    0042fdc4     msvcrtd:initializers.obj
 0002:00000ef6       ??_C@_00CNPNBAHC@@         0042fef6     AttemperEngineSink.obj
 0002:00000efc       ??_7IUnknownEx@@6B@        0042fefc     AttemperEngineSink.obj
 0002:00000f08       ??_C@_0DK@NEJIDGKJ@g?3?2?M?x?$LK?$PM?2happygamewh?2?$LH?$PO?N?q?$LG?K?2?O?$LF?M?$LD@ 0042ff08     AttemperEngineSink.obj
 0002:00000f54       ??_7IAttemperEngineSink@@6B@ 0042ff54     AttemperEngineSink.obj
 0002:00000f9c       ??_7?$CWHArray@PAUtagSystemMessage@@ABQAU1@@@6B@ 0042ff9c     AttemperEngineSink.obj
 0002:00000fa8       ??_7CAttemperEngineSink@@6B@ 0042ffa8     AttemperEngineSink.obj
 0002:00000ff0       ??_C@_0BN@EEJNAPCD@?U?$PN?T?Z?A?$KM?$LN?S?P?$KN?$LF?w?$LH?$PO?N?q?F?w?5?$FL?5?$CFs?3?$CFd?5?$FN@ 0042fff0     AttemperEngineSink.obj
 0002:00001014       ??_C@_0CP@NEANHCGA@?P?$KN?$LF?w?$LH?$PO?N?q?F?w?A?$KM?$LN?S?J?$KH?$LA?$NM?5?$FL?5?$CFld?5?$FN?$KD?$KM?$CFld@ 00430014     AttemperEngineSink.obj
 0002:0000104c       ??_C@_0BK@HFEPLLFN@?U?$PN?T?Z?W?$KC?$LC?a?S?N?O?$LH?A?D?L?l?$LH?$PO?N?q?F?w?4?4?4@ 0043004c     AttemperEngineSink.obj
 0002:0000106c       ??_C@_0CN@HPLNLDC@?S?k?P?$KN?$LF?w?$LH?$PO?N?q?F?w?$LF?D?A?$KM?$LN?S?$LJ?X?$LB?U?A?K?$KD?$KM?$CFld?5?C@ 0043006c     AttemperEngineSink.obj
 0002:000010a4       ??_C@_0BM@DDKDJNDD@?$LJ?X?$LB?U?A?$KM?$LN?S?R?l?$LD?$KD?3?5dwSocketID?$DN?$CFd@ 004300a4     AttemperEngineSink.obj
 0002:000010c8       ??_C@_0CM@HGMNIANO@?D?z?J?d?H?k?$LF?D?U?K?$LK?E?$LL?r?C?$NM?B?k?$LC?$LL?U?$PN?H?$LH?0?G?k?H?$LH?H?O@ 004300c8     AttemperEngineSink.obj
 0002:000010fc       ??_C@_0CA@GNINJEOM@?D?z?$LF?D?U?K?$LK?E?T?Z?$LB?p?$LE?$KG?$LF?G?B?$LM?0?D?z?$LB?$LL?F?H?O?B?O?$NP?$KD?$KB@ 004300fc     AttemperEngineSink.obj
 0002:00001124       ??_C@_0BF@HIDGIOJB@?R?Q?$LO?$KN?J?G?$LK?C?S?Q?$KD?$KM?N?$NO?P?h?I?j?G?k@ 00430124     AttemperEngineSink.obj
 0002:00001140       ??_C@_0N@CHHLMELJ@?N?$LE?U?R?$LF?$LN?$LE?K?S?C?$LL?$KH@ 00430140     AttemperEngineSink.obj
 0002:00001150       ??_C@_0L@IPJFNCOP@?R?Q?$LO?$KN?J?G?$LK?C?S?Q@ 00430150     AttemperEngineSink.obj
 0002:00001160       ??_C@_0BI@KMJOMEDM@?$CFs?5?$LO?$NM?$LO?x?A?K?D?z?$LF?D?$LK?C?S?Q?I?j?G?k?$KD?$KB@ 00430160     AttemperEngineSink.obj
 0002:0000117c       ??_C@_08GAAKOEKK@?P?E?O?$KC?$LD?$KM?J?$LB@ 0043017c     AttemperEngineSink.obj
 0002:00001188       ??_C@_0N@KFADCKOF@?S?C?$LL?$KH?R?Q?$LO?$KN?$MA?k?O?$NP@ 00430188     AttemperEngineSink.obj
 0002:00001198       ??_C@_0BH@NFEJGOJI@?$LH?$KC?K?M?J?$KH?$LA?$NM?$KD?$KM?$LG?T?$LH?$LN?R?Q?$LO?$KN?$MA?k?O?$NP@ 00430198     AttemperEngineSink.obj
 0002:000011b4       ??_C@_08BBDBIKKL@?W?x?$LB?j?$LE?m?N?s@ 004301b4     AttemperEngineSink.obj
 0002:000011c0       ??_C@_0BH@GDPICBPP@?G?k?G?s?J?$KH?$LA?$NM?$KD?$KM?$LG?T?$LH?$LN?R?Q?$LO?$KN?$MA?k?O?$NP@ 004301c0     AttemperEngineSink.obj
 0002:000011dc       ??_C@_04JFFKLGJF@?$CF02X@  004301dc     AttemperEngineSink.obj
 0002:000011e4       ??_C@_0BO@JLBNFFBE@OnEventDataBase?9wRequestID?$DN?$CFd@ 004301e4     AttemperEngineSink.obj
 0002:00001208       ??_C@_0N@MPINKGKI@?$LC?i?Q?$KP?$LC?$LL?$LF?$LN?S?C?$LL?$KH@ 00430208     AttemperEngineSink.obj
 0002:00001218       ??_C@_0BI@IHOMHEOO@?$CFs?5?M?$KM?R?b?A?K?D?z?$LF?D?$LK?C?S?Q?I?j?G?k?$KD?$KB@ 00430218     AttemperEngineSink.obj
 0002:00001234       ??_C@_0DF@LDFGAABH@g?3?2?M?x?$LK?$PM?2happygamewh?2?$LH?$PO?N?q?$LG?K?2?O?$LF?M?$LD@ 00430234     AttemperEngineSink.obj
 0002:00001278       __real@4066800000000000    00430278     AttemperEngineSink.obj
 0002:000012c8       ??_7CChatServerApp@@6B@    004302c8     ChatServer.obj
 0002:000014b8       ??_7CInitParameter@@6B@    004304b8     ChatServerDlg.obj
 0002:000014c4       ??_7IServiceUnitsSink@@6B@ 004304c4     ChatServerDlg.obj
 0002:000014d0       ??_7CChatServerDlg@@6BCDialog@@@ 004304d0     ChatServerDlg.obj
 0002:000016bc       ??_7CChatServerDlg@@6BIServiceUnitsSink@@@ 004306bc     ChatServerDlg.obj
 0002:000016c4       ??_C@_0BH@EAHGGLJH@?A?D?L?l?$LH?$PO?N?q?F?w?5?9?9?5?$FL?5?M?$KD?V?$LJ?5?$FN@ 004306c4     ChatServerDlg.obj
 0002:000016e0       ??_C@_0CN@IKJEBACB@?S?N?O?$LH?$LH?$PO?N?q?F?w?U?$PN?T?Z?T?K?P?P?V?P?$KD?$KM?D?z?H?$LH?J?$LF?R?$KK?$LJ@ 004306e0     ChatServerDlg.obj
 0002:00001718       ??_C@_0N@HNGKNHMM@?$LH?$PO?N?q?M?$KD?V?$LJ?$LD?I?$LJ?$KG@ 00430718     ChatServerDlg.obj
 0002:00001728       ??_C@_0BC@OFPAKDFO@?U?$PN?T?Z?$LD?u?J?$LM?$LL?$KP?W?i?$LM?$PO?4?4?4@ 00430728     ChatServerDlg.obj
 0002:00001740       ??_C@_0BJ@HLOOMBNP@?$LH?$PO?N?q?F?t?$LG?$KP?$LD?I?$LJ?$KG?5?$FL?5?$LG?K?$LP?Z?3?$CFd?5?$FN@ 00430740     ChatServerDlg.obj
 0002:00001760       ??_C@_04MLIFMOBA@?M?$KD?V?$LJ@ 00430760     ChatServerDlg.obj
 0002:00001768       ??_C@_06CCMEENJJ@?$LD?u?J?$LM?$LL?$KP@ 00430768     ChatServerDlg.obj
 0002:00001770       ??_C@_04OIFFEIFD@?T?K?P?P@ 00430770     ChatServerDlg.obj
 0002:00001778       ??_C@_0BF@FCJKJFHE@?A?D?L?l?$LH?$PO?N?q?F?w?5?9?9?5?$FL?5?$CFs?5?$FN@ 00430778     ChatServerDlg.obj
 0002:00001798       ??_C@_0EM@GBAEOLBJ@g?3?2?M?x?$LK?$PM?2happygamewh?2?$LH?$PO?N?q?$LG?K?2?O?$LF?M?$LD@ 00430798     ChatServerDlg.obj
 0002:000017f4       ??_C@_0CJ@LFENAACN@?$LH?$PO?N?q?U?$PN?T?Z?T?K?P?P?V?P?$KD?$KM?O?$LF?M?$LD?R?$KK?G?s?W?$KC?O?z?$LL?X?$LL@ 004307f4     ChatServerDlg.obj
 0002:00001828       ??_C@_0L@MLALHOMK@?1ServerID?3@ 00430828     ChatServerDlg.obj
 0002:00001874       ??_C@_17CNPHIMPH@?$AA?$CF?$AAl?$AAs@ 00430874     DataBaseEngineSink.obj
 0002:00001880       ??_C@_1OE@IAPLKPHI@?$AAc?$AA?3?$AA?2?$AAp?$AAr?$AAo?$AAg?$AAr?$AAa?$AAm?$AA?5?$AAf?$AAi?$AAl?$AAe@ 00430880     DataBaseEngineSink.obj
 0002:00001998       ??_C@_1OC@PNEKCFJL@?$AAc?$AA?3?$AA?2?$AAp?$AAr?$AAo?$AAg?$AAr?$AAa?$AAm?$AA?5?$AAf?$AAi?$AAl?$AAe@ 00430998     DataBaseEngineSink.obj
 0002:00001aa8       ??_C@_0BC@PGMFNIFA@atlTraceException@ 00430aa8     DataBaseEngineSink.obj
 0002:00001ac0       ??_C@_1O@LFNDFEBP@?$AA?$CF?$AAl?$AAs?$AA?5?$AA?9?$AA?5@ 00430ac0     DataBaseEngineSink.obj
 0002:00001ad0       ??_C@_1M@PGKOAACE@?$AA?$CF?$AAu?$AA?5?$AA?9?$AA?5@ 00430ad0     DataBaseEngineSink.obj
 0002:00001ae0       ??_C@_1O@OAIPCDPO@?$AA?$CF?$AAl?$AAs?$AA?$CF?$AAl?$AAs@ 00430ae0     DataBaseEngineSink.obj
 0002:00001af0       ??_C@_17LGGGMOOB@?$AA?$CF?$AAh?$AAs@ 00430af0     DataBaseEngineSink.obj
 0002:00001b00       ??_C@_1EO@EBPPKGOM@?$AAf?$AAa?$AAl?$AAs?$AAe?$AA?5?$AA?$CG?$AA?$CG?$AA?5?$AA?$CC?$AAT?$AAo?$AAo?$AA?5?$AAm@ 00430b00     DataBaseEngineSink.obj
 0002:00001b60       ??_C@_1OE@PDFAMNPL@?$AAc?$AA?3?$AA?2?$AAp?$AAr?$AAo?$AAg?$AAr?$AAa?$AAm?$AA?5?$AAf?$AAi?$AAl?$AAe@ 00430b60     DataBaseEngineSink.obj
 0002:00001c78       ??_C@_0HD@OEBHCJKM@c?3?2program?5files?5?$CIx86?$CJ?2microsof@ 00430c78     DataBaseEngineSink.obj
 0002:00001d04       ??_C@_0BF@IAAKIJDJ@AtlThrow?3?5hr?5?$DN?50x?$CFx?6@ 00430d04     DataBaseEngineSink.obj
 0002:00001d20       ??_C@_1BM@GBBOFEAE@?$AA_?$AA_?$AAa?$AAt?$AAl?$AA_?$AAc?$AAo?$AAn?$AAd?$AAV?$AAa?$AAl@ 00430d20     DataBaseEngineSink.obj
 0002:00001d48       ??_C@_1OC@IALJLBM@?$AAc?$AA?3?$AA?2?$AAp?$AAr?$AAo?$AAg?$AAr?$AAa?$AAm?$AA?5?$AAf?$AAi?$AAl?$AAe@ 00430d48     DataBaseEngineSink.obj
 0002:00001e58       ??_C@_1BK@NHHHCKNA@?$AAm?$AA_?$AAt?$AAi?$AAm?$AAe?$AA?5?$AA?$CB?$AA?$DN?$AA?5?$AA?9?$AA1@ 00430e58     DataBaseEngineSink.obj
 0002:00001e7c       ??_7IDataBaseEngineSink@@6B@ 00430e7c     DataBaseEngineSink.obj
 0002:00001ea4       ??_7?$CTempldateHelper@UIDataBase@@@@6B@ 00430ea4     DataBaseEngineSink.obj
 0002:00001eb0       ??_7CDataBaseHelper@@6B@   00430eb0     DataBaseEngineSink.obj
 0002:00001eb8       ??_C@_0P@IKJBDFNG@CreateDataBase@ 00430eb8     DataBaseEngineSink.obj
 0002:00001ecc       ??_C@_0BB@BEMLEOHB@KernelEngine?4dll@ 00430ecc     DataBaseEngineSink.obj
 0002:00001ee0       ??_C@_1BK@NHECDDNK@?$AAm?$AA_?$AAp?$AAD?$AAa?$AAt?$AAa?$AA?5?$AA?$DN?$AA?$DN?$AA?5?$AA0@ 00430ee0     DataBaseEngineSink.obj
 0002:00001f04       ??_7CDataBaseEngineSink@@6B@ 00430f04     DataBaseEngineSink.obj
 0002:00001f2c       ??_C@_0M@PCENNPGA@?$CFd?4?$CFd?4?$CFd?4?$CFd@ 00430f2c     DataBaseEngineSink.obj
 0002:00001f3c       ??_C@_09KCDEMNBD@?$EAdwUserID@ 00430f3c     DataBaseEngineSink.obj
 0002:00001f48       ??_C@_0N@OCODJCJL@?$EAstrPassword@ 00430f48     DataBaseEngineSink.obj
 0002:00001f58       ??_C@_0N@IDHGAHBD@?$EAstrClientIP@ 00430f58     DataBaseEngineSink.obj
 0002:00001f68       ??_C@_0BC@IIOJPJPJ@?$EAstrErrorDescribe@ 00430f68     DataBaseEngineSink.obj
 0002:00001f80       ??_C@_0BM@NOBDEOGG@GSP_GP_EfficacyAccountsChat@ 00430f80     DataBaseEngineSink.obj
 0002:00001fa4       ??_C@_0BG@DCPAFIBB@GSP_GP_LoadUserGroups@ 00430fa4     DataBaseEngineSink.obj
 0002:00001fc0       ??_C@_07IKIDGEIC@GroupID@  00430fc0     DataBaseEngineSink.obj
 0002:00001fcc       ??_C@_09DOCDJBIG@GroupName@ 00430fcc     DataBaseEngineSink.obj
 0002:00001fd8       ??_C@_0BH@LNCMBLMH@GSP_GP_LoadUserFriends@ 00430fd8     DataBaseEngineSink.obj
 0002:00001ff4       ??_C@_06OFHCDFJK@UserID@   00430ff4     DataBaseEngineSink.obj
 0002:00001ffc       ??_C@_06KGJDDPAK@GameID@   00430ffc     DataBaseEngineSink.obj
 0002:00002004       ??_C@_06LPNEIKNP@FaceID@   00431004     DataBaseEngineSink.obj
 0002:0000200c       ??_C@_08GOBKDNAK@CustomID@ 0043100c     DataBaseEngineSink.obj
 0002:00002018       ??_C@_06HKFFEOFI@Gender@   00431018     DataBaseEngineSink.obj
 0002:00002020       ??_C@_0M@CEFIIFDG@MemberOrder@ 00431020     DataBaseEngineSink.obj
 0002:00002030       ??_C@_09HOAKNMLL@GrowLevel@ 00431030     DataBaseEngineSink.obj
 0002:0000203c       ??_C@_08CELDJAGK@NickName@ 0043103c     DataBaseEngineSink.obj
 0002:00002048       ??_C@_0L@CPAJNIME@UnderWrite@ 00431048     DataBaseEngineSink.obj
 0002:00002058       ??_C@_0N@CLIEFGAF@Compellation@ 00431058     DataBaseEngineSink.obj
 0002:00002068       ??_C@_02MOGAAOHP@QQ@       00431068     DataBaseEngineSink.obj
 0002:0000206c       ??_C@_05LMBPBNBJ@EMail@    0043106c     DataBaseEngineSink.obj
 0002:00002074       ??_C@_09MAIOJANC@SeatPhone@ 00431074     DataBaseEngineSink.obj
 0002:00002080       ??_C@_0M@OJIHCJC@MobilePhone@ 00431080     DataBaseEngineSink.obj
 0002:00002090       ??_C@_0O@GKEPGAEM@DwellingPlace@ 00431090     DataBaseEngineSink.obj
 0002:000020a0       ??_C@_0L@FEKLBNBC@PostalCode@ 004310a0     DataBaseEngineSink.obj
 0002:000020b0       ??_C@_0BJ@KGPDMKAJ@GSP_GP_LoadFriendRemarks@ 004310b0     DataBaseEngineSink.obj
 0002:000020d0       ??_C@_08FDHMOIIA@UserNote@ 004310d0     DataBaseEngineSink.obj
 0002:000020dc       ??_C@_0BK@LIJMOBAN@GSP_GP_LoadOfflineMessage@ 004310dc     DataBaseEngineSink.obj
 0002:000020fc       ??_C@_0M@ECIDEJHH@MessageType@ 004310fc     DataBaseEngineSink.obj
 0002:0000210c       ??_C@_08CFDHEOEO@DataSize@ 0043110c     DataBaseEngineSink.obj
 0002:00002118       ??_C@_0M@FFPBKNKJ@OfflineData@ 00431118     DataBaseEngineSink.obj
 0002:00002128       ??_C@_0DH@NMJACNII@?S?I?S?Z?J?$PN?$LO?$NN?$LP?b?$LC?Y?W?w?R?l?$LD?$KD?$KD?$KM?G?k?D?z?I?T?$LK?s?V?X?J@ 00431128     DataBaseEngineSink.obj
 0002:0000216c       ??_C@_0BA@PEHFKMKN@?$EAdwFriendUserID@ 0043116c     DataBaseEngineSink.obj
 0002:00002180       ??_C@_0P@FPAAEPDL@?$EAcbOperateKind@ 00431180     DataBaseEngineSink.obj
 0002:00002194       ??_C@_0L@BKCLAFLJ@?$EAcbGroupID@ 00431194     DataBaseEngineSink.obj
 0002:000021a4       ??_C@_0BI@BCODNHPM@GSP_GP_ModifyUserFriend@ 004311a4     DataBaseEngineSink.obj
 0002:000021c0       ??_C@_0O@MGOPHJEC@?$EAdwDestUserID@ 004311c0     DataBaseEngineSink.obj
 0002:000021d0       ??_C@_0P@MOENBMCB@?$EAcbDestGroupID@ 004311d0     DataBaseEngineSink.obj
 0002:000021e4       ??_C@_0BA@JCDGDHKF@?$EAcbLoadUserInfo@ 004311e4     DataBaseEngineSink.obj
 0002:000021f8       ??_C@_0BF@GFGAEEKM@GSP_GP_AddUserFriend@ 004311f8     DataBaseEngineSink.obj
 0002:00002214       ??_C@_0BI@LPNDAHEL@GSP_GP_DeleteUserFriend@ 00431214     DataBaseEngineSink.obj
 0002:00002230       ??_C@_0O@MLJHDGDF@?$EAstrGroupName@ 00431230     DataBaseEngineSink.obj
 0002:00002240       ??_C@_0BH@DILBBJMO@GSP_GP_ModifyUserGroup@ 00431240     DataBaseEngineSink.obj
 0002:0000225c       ??_C@_0P@KAOHGEPI@?$EAszRemarksInfo@ 0043125c     DataBaseEngineSink.obj
 0002:00002270       ??_C@_0BJ@JFABKBII@GSP_GP_ModifyUserRemarks@ 00431270     DataBaseEngineSink.obj
 0002:00002290       ??_C@_09OBNFMHID@?$EAdwGameID@ 00431290     DataBaseEngineSink.obj
 0002:0000229c       ??_C@_0BC@FMPJFMGP@GSP_GP_SearchUser@ 0043129c     DataBaseEngineSink.obj
 0002:000022b4       ??_C@_0CL@OKPGMGNM@?$LB?$KH?G?$LI?0?S?I?S?Z?J?$PN?$LO?$NN?$LP?b?$LC?Y?W?w?R?l?$LD?$KD?0?D?z?$LF?D?G?k?G@ 004312b4     DataBaseEngineSink.obj
 0002:000022e8       ??_C@_0N@MDOGFMDG@?$EAszPlaceName@ 004312e8     DataBaseEngineSink.obj
 0002:000022f8       ??_C@_0BH@JIPKFPPO@GSP_GP_UpdatePlaceName@ 004312f8     DataBaseEngineSink.obj
 0002:00002314       ??_C@_0O@GONDHLPC@?$EAwMessageType@ 00431314     DataBaseEngineSink.obj
 0002:00002324       ??_C@_0L@GKGEGMAC@?$EAwDataSize@ 00431324     DataBaseEngineSink.obj
 0002:00002334       ??_C@_0P@CFKJJPGA@?$EAszOfflineData@ 00431334     DataBaseEngineSink.obj
 0002:00002348       ??_C@_0BK@GIMHCKOH@GSP_GP_SaveOfflineMessage@ 00431348     DataBaseEngineSink.obj
 0002:00002368       ??_C@_0O@BBLJBDHL@?$EAstrClientIP?5@ 00431368     DataBaseEngineSink.obj
 0002:00002378       ??_C@_0BC@FHFGCAEO@GSP_GP_UseTrumpet@ 00431378     DataBaseEngineSink.obj
 0002:00002390       ??_C@_0L@FIEHJJML@?$EAwServerID@ 00431390     DataBaseEngineSink.obj
 0002:000023a0       ??_C@_0BJ@GFLIDCFB@GSP_GR_LoadSystemMessage@ 004313a0     DataBaseEngineSink.obj
 0002:000023c0       ??_C@_02OLOABKKD@ID@       004313c0     DataBaseEngineSink.obj
 0002:000023c4       ??_C@_08MBIPKANE@TimeRate@ 004313c4     DataBaseEngineSink.obj
 0002:000023d0       ??_C@_0O@EOKEIOEE@MessageString@ 004313d0     DataBaseEngineSink.obj
 0002:000023e0       ??_C@_09MHCEAAPI@StartTime@ 004313e0     DataBaseEngineSink.obj
 0002:000023ec       ??_C@_0N@DIGHLIGE@ConcludeTime@ 004313ec     DataBaseEngineSink.obj
 0002:000023fc       ??_C@_0DG@CDIFDKED@g?3?2?M?x?$LK?$PM?2happygamewh?2?$LH?$PO?N?q?$LG?K?2?O?$LF?M?$LD@ 004313fc     DataBaseEngineSink.obj
 0002:0000243c       ??_C@_0BD@LMOFNGMO@?$KB?$LA?$CFs?$KB?$LB?D?$KD?$LP?i?$LM?S?T?X?J?$KH?$LA?$NM@ 0043143c     DataBaseEngineSink.obj
 0002:00002454       ??_C@_0BM@PEGNCJOH@?U?R?$LC?$LL?$LF?$LN?W?i?$LM?$PO?$LE?$LE?$LN?$KI?$LK?$KP?J?$PN?$KB?$LA?$CFs?$KB?$LB?3?$CFd@ 00431454     DataBaseEngineSink.obj
 0002:00002478       ??_C@_0BL@PDAODLKM@?$LF?w?S?C?$LK?$KP?J?$PN?$KB?$LA?$CFs?$KB?$LB?I?z?$LD?I?$LG?T?O?s?J?$KH?$LA?$NM@ 00431478     DataBaseEngineSink.obj
 0002:00002498       ??_C@_0BJ@JGPFHIJF@?S?I?S?Z?$KB?$LA?$CFs?$KB?$LB?$KD?$KM?W?i?$LM?$PO?$LE?$LE?$LN?$KI?J?$KH?$LA?$NM@ 00431498     DataBaseEngineSink.obj
 0002:000024b8       ??_C@_0DB@JBNKENAJ@?W?i?$LM?$PO?$LE?$LE?$LN?$KI?$LK?$KP?J?$PN?$KB?$LA?$CFs?$KB?$LB?$LC?z?I?z?N?$LE?V?$KK?R?l?$LD?$KD?$LE@ 004314b8     DataBaseEngineSink.obj
 0002:0000252c       ??_C@_0BH@GFNFOOOG@?$CFs?2ServerParameter?4ini@ 0043152c     InitParameter.obj
 0002:00002548       ??_C@_09CPKAHFKF@ServiceID@ 00431548     InitParameter.obj
 0002:00002554       ??_C@_0L@KOLHEMGH@ChatServer@ 00431554     InitParameter.obj
 0002:00002564       ??_C@_0M@DBIKHOMI@ServiceAddr@ 00431564     InitParameter.obj
 0002:00002574       ??_C@_0M@PFPKDPLP@ServicePort@ 00431574     InitParameter.obj
 0002:00002584       ??_C@_0M@PFPPHGEO@ServiceRule@ 00431584     InitParameter.obj
 0002:00002594       ??_C@_09POAPIBJJ@MaxPlayer@ 00431594     InitParameter.obj
 0002:000025a0       ??_C@_08LIELPKNE@MinOrder@ 004315a0     InitParameter.obj
 0002:000025ac       ??_C@_0L@EJMBPMDM@ServerInfo@ 004315ac     InitParameter.obj
 0002:000025bc       ??_C@_0L@EGGJEAIA@Correspond@ 004315bc     InitParameter.obj
 0002:000025cc       ??_C@_0P@DFEDGGJF@CorrespondAddr@ 004315cc     InitParameter.obj
 0002:000025e0       ??_C@_06NHDHPCNO@DBPort@   004315e0     InitParameter.obj
 0002:000025e8       ??_C@_0L@JJOBOIHJ@AccountsDB@ 004315e8     InitParameter.obj
 0002:000025f8       ??_C@_09PFCHIMEP@127?40?40?41@ 004315f8     InitParameter.obj
 0002:00002604       ??_C@_06BDEHLDKJ@DBAddr@   00431604     InitParameter.obj
 0002:0000260c       ??_C@_02CKOPKKAC@sa@       0043160c     InitParameter.obj
 0002:00002610       ??_C@_06EKCLIHPK@DBUser@   00431610     InitParameter.obj
 0002:00002618       ??_C@_06PPNIIDOF@people@   00431618     InitParameter.obj
 0002:00002620       ??_C@_06HJGLHJBN@DBPass@   00431620     InitParameter.obj
 0002:00002628       ??_C@_06KMJLGLFD@DBName@   00431628     InitParameter.obj
 0002:00002630       ??_C@_0L@BIEPDLBP@TreasureDB@ 00431630     InitParameter.obj
 0002:00002640       ??_C@_0L@KKFJCNPO@PlatformDB@ 00431640     InitParameter.obj
 0002:00002650       ??_C@_0N@CGMNGOGI@QPPlatformDB@ 00431650     InitParameter.obj
 0002:00002660       ??_C@_0P@CEKHAJBO@PlatformDBItem@ 00431660     InitParameter.obj
 0002:00002674       ??_C@_0M@NDLIHBHJ@LogonServer@ 00431674     InitParameter.obj
 0002:00002684       ??_C@_0P@DHIKKJBD@PlatformDBName@ 00431684     InitParameter.obj
 0002:00002698       ??_C@_0BC@NKBDIJIA@?$CFs?2ChatServer?4ini@ 00431698     InitParameter.obj
 0002:000026b0       ??_C@_08DFKPLDPN@Distance@ 004316b0     InitParameter.obj
 0002:000026c0       ??_C@_0HC@HBCNBCLF@c?3?2program?5files?5?$CIx86?$CJ?2microsof@ 004316c0     ServerUserManager.obj
 0002:00002748       ??_C@_05PLCFPPOI@with?5@   00431748     ServerUserManager.obj
 0002:00002750       ??_C@_09HCLNAIDE@?5elements@ 00431750     ServerUserManager.obj
 0002:0000275c       ??_C@_01EEMJAFIK@?6@       0043175c     ServerUserManager.obj
 0002:00002764       ??_7Cltladistance@@6B@     00431764     ServerUserManager.obj
 0002:00002770       ??_7CServerUserItem@@6B@   00431770     ServerUserManager.obj
 0002:000027a4       ??_7CLocalUserItem@@6B@    004317a4     ServerUserManager.obj
 0002:00002808       ??_7?$CWHArray@PAUtagNearUserInfo@@ABQAU1@@@6B@ 00431808     ServerUserManager.obj
 0002:00002814       ??_7CNearUserManager@@6B@  00431814     ServerUserManager.obj
 0002:0000282c       ??_7?$CMap@KKPAVCServerUserItem@@PAV1@@@6B@ 0043182c     ServerUserManager.obj
 0002:00002848       ??_7?$CWHArray@PAVCServerUserItem@@ABQAV1@@@6B@ 00431848     ServerUserManager.obj
 0002:00002854       ??_7CServerUserManager@@6B@ 00431854     ServerUserManager.obj
 0002:00002884       ??_7CUserFriendGroup@@6B@  00431884     ServerUserManager.obj
 0002:00002890       ??_7?$CMap@KKPAVCUserFriendGroup@@PAV1@@@6B@ 00431890     ServerUserManager.obj
 0002:000028ac       ??_7?$CWHArray@PAVCUserFriendGroup@@ABQAV1@@@6B@ 004318ac     ServerUserManager.obj
 0002:000028b8       ??_7CFriendGroupManager@@6B@ 004318b8     ServerUserManager.obj
 0002:000028d8       ??_C@_0FA@EOCLIAPL@g?3?2?M?x?$LK?$PM?2happygamewh?2?$LH?$PO?N?q?$LG?K?2?O?$LF?M?$LD@ 004318d8     ServerUserManager.obj
 0002:00002938       ??_C@_0BP@FPJIDAGE@?O?$LF?M?$LD?D?Z?$LE?f?W?J?T?$LE?$LC?$LL?W?c?0?N?$NO?$LH?$KI?$LH?V?E?d?D?Z?$LE?f?$CB@ 00431938     ServerUserManager.obj
 0002:00002960       ??_C@_03OHJIHPJH@?6?7?$FL@ 00431960     ServerUserManager.obj
 0002:00002964       ??_C@_04OAFLPOMH@?$FN?5?$DN?5@ 00431964     ServerUserManager.obj
 0002:00002970       __real@0000000000000000    00431970     ServerUserManager.obj
 0002:00002980       __real@3fe0000000000000    00431980     ServerUserManager.obj
 0002:00002990       __real@4000000000000000    00431990     ServerUserManager.obj
 0002:000029a0       __real@400921fb4d12d84a    004319a0     ServerUserManager.obj
 0002:000029b0       __real@40b8ea23126e978d    004319b0     ServerUserManager.obj
 0002:000029c0       __real@416312d000000000    004319c0     ServerUserManager.obj
 0002:000029d0       __xmm@41f00000000000000000000000000000 004319d0     ServerUserManager.obj
 0002:00002ae4       ??_7?$CTempldateHelper@UITimerEngine@@@@6B@ 00431ae4     ServiceUnits.obj
 0002:00002af0       ??_7CTimerEngineHelper@@6B@ 00431af0     ServiceUnits.obj
 0002:00002af8       ??_C@_0BC@PLOLBCGN@CreateTimerEngine@ 00431af8     ServiceUnits.obj
 0002:00002b14       ??_7?$CTempldateHelper@UIDataBaseEngine@@@@6B@ 00431b14     ServiceUnits.obj
 0002:00002b20       ??_7CDataBaseEngineHelper@@6B@ 00431b20     ServiceUnits.obj
 0002:00002b28       ??_C@_0BF@FHMKIOLL@CreateDataBaseEngine@ 00431b28     ServiceUnits.obj
 0002:00002b48       ??_7?$CTempldateHelper@UIAttemperEngine@@@@6B@ 00431b48     ServiceUnits.obj
 0002:00002b54       ??_7CAttemperEngineHelper@@6B@ 00431b54     ServiceUnits.obj
 0002:00002b5c       ??_C@_0BF@PBPGMLEA@CreateAttemperEngine@ 00431b5c     ServiceUnits.obj
 0002:00002b7c       ??_7?$CTempldateHelper@UITCPSocketService@@@@6B@ 00431b7c     ServiceUnits.obj
 0002:00002b88       ??_7CTCPSocketServiceHelper@@6B@ 00431b88     ServiceUnits.obj
 0002:00002b90       ??_C@_0BH@FPPDPKKP@CreateTCPSocketService@ 00431b90     ServiceUnits.obj
 0002:00002bb0       ??_7?$CTempldateHelper@UITCPNetworkEngine@@@@6B@ 00431bb0     ServiceUnits.obj
 0002:00002bbc       ??_7CTCPNetworkEngineHelper@@6B@ 00431bbc     ServiceUnits.obj
 0002:00002bc4       ??_C@_0BH@LEGJPFFH@CreateTCPNetworkEngine@ 00431bc4     ServiceUnits.obj
 0002:00002be4       ??_7CServiceUnits@@6B@     00431be4     ServiceUnits.obj
 0002:00002d9c       ??_C@_0N@LNPLGNA@?$LH?$PO?N?q?F?t?$LG?$KP?J?$KH?$LA?$NM@ 00431d9c     ServiceUnits.obj
 0002:00002db0       __pAtlLcidToLocaleNameTable 00431db0     Stdafx.obj
 0002:0000363c       ??_C@_15EMKDOKLE@?$AAa?$AAr@ 0043263c     Stdafx.obj
 0002:00003644       ??_C@_15KNPADPLH@?$AAb?$AAg@ 00432644     Stdafx.obj
 0002:0000364c       ??_C@_15EDMHLDMO@?$AAc?$AAa@ 0043264c     Stdafx.obj
 0002:00003654       ??_C@_1O@BPEAJADD@?$AAz?$AAh?$AA?9?$AAC?$AAH?$AAS@ 00432654     Stdafx.obj
 0002:00003664       ??_C@_15LJNHCMNK@?$AAc?$AAs@ 00432664     Stdafx.obj
 0002:0000366c       ??_C@_15FOMCIDHG@?$AAd?$AAa@ 0043266c     Stdafx.obj
 0002:00003674       ??_C@_15NBKABECB@?$AAd?$AAe@ 00432674     Stdafx.obj
 0002:0000367c       ??_C@_15GHPEIIAO@?$AAe?$AAl@ 0043267c     Stdafx.obj
 0002:00003684       ??_C@_15MNPNEAIF@?$AAe?$AAn@ 00432684     Stdafx.obj
 0002:0000368c       ??_C@_15GPIOMPMH@?$AAe?$AAs@ 0043268c     Stdafx.obj
 0002:00003694       ??_C@_15NGLOAKJC@?$AAf?$AAi@ 00432694     Stdafx.obj
 0002:0000369c       ??_C@_15FBKGNKAM@?$AAf?$AAr@ 0043269c     Stdafx.obj
 0002:000036a4       ??_C@_15KGGCNEFK@?$AAh?$AAe@ 004326a4     Stdafx.obj
 0002:000036ac       ??_C@_15PGHLIDMF@?$AAh?$AAu@ 004326ac     Stdafx.obj
 0002:000036b4       ??_C@_15BIEMAPLM@?$AAi?$AAs@ 004326b4     Stdafx.obj
 0002:000036bc       ??_C@_15IFJLDHAF@?$AAi?$AAt@ 004326bc     Stdafx.obj
 0002:000036c4       ??_C@_15GEMIOCAG@?$AAj?$AAa@ 004326c4     Stdafx.obj
 0002:000036cc       ??_C@_15EPELEGJA@?$AAk?$AAo@ 004326cc     Stdafx.obj
 0002:000036d4       ??_C@_15NDDHIMN@?$AAn?$AAl@ 004326d4     Stdafx.obj
 0002:000036dc       ??_C@_15BPIGNHCD@?$AAn?$AAo@ 004326dc     Stdafx.obj
 0002:000036e4       ??_C@_15DEOPBLCG@?$AAp?$AAl@ 004326e4     Stdafx.obj
 0002:000036ec       ??_C@_15KBECGEFG@?$AAp?$AAt@ 004326ec     Stdafx.obj
 0002:000036f4       ??_C@_15GLJCBFMD@?$AAr?$AAo@ 004326f4     Stdafx.obj
 0002:000036fc       ??_C@_15FEDGKCDI@?$AAr?$AAu@ 004326fc     Stdafx.obj
 0002:00003704       ??_C@_15GLKMLLHM@?$AAh?$AAr@ 00432704     Stdafx.obj
 0002:0000370c       ??_C@_15CPKMFBDB@?$AAs?$AAk@ 0043270c     Stdafx.obj
 0002:00003714       ??_C@_15BAAIOGMK@?$AAs?$AAq@ 00432714     Stdafx.obj
 0002:0000371c       ??_C@_15INNPNOHD@?$AAs?$AAv@ 0043271c     Stdafx.obj
 0002:00003724       ??_C@_15CABMMOGH@?$AAt?$AAh@ 00432724     Stdafx.obj
 0002:0000372c       ??_C@_15BPLIHJJM@?$AAt?$AAr@ 0043272c     Stdafx.obj
 0002:00003734       ??_C@_15NEOEKKDJ@?$AAu?$AAr@ 00432734     Stdafx.obj
 0002:0000373c       ??_C@_15NFICGAJK@?$AAi?$AAd@ 0043273c     Stdafx.obj
 0002:00003744       ??_C@_15PJPFLCCM@?$AAu?$AAk@ 00432744     Stdafx.obj
 0002:0000374c       ??_C@_15HPJPHDM@?$AAb?$AAe@ 0043274c     Stdafx.obj
 0002:00003754       ??_C@_15LCHLGJII@?$AAs?$AAl@ 00432754     Stdafx.obj
 0002:0000375c       ??_C@_15PCFJPHHO@?$AAe?$AAt@ 0043275c     Stdafx.obj
 0002:00003764       ??_C@_15HPFPGODN@?$AAl?$AAv@ 00432764     Stdafx.obj
 0002:0000376c       ??_C@_15NFFGKGLG@?$AAl?$AAt@ 0043276c     Stdafx.obj
 0002:00003774       ??_C@_15BDAKCCHN@?$AAf?$AAa@ 00432774     Stdafx.obj
 0002:0000377c       ??_C@_15NFGIAIAJ@?$AAv?$AAi@ 0043277c     Stdafx.obj
 0002:00003784       ??_C@_15LMKNDMHN@?$AAh?$AAy@ 00432784     Stdafx.obj
 0002:0000378c       ??_C@_15IJBHMCFL@?$AAa?$AAz@ 0043278c     Stdafx.obj
 0002:00003794       ??_C@_15EKOFJABL@?$AAe?$AAu@ 00432794     Stdafx.obj
 0002:0000379c       ??_C@_15BGHADCNK@?$AAm?$AAk@ 0043279c     Stdafx.obj
 0002:000037a4       ??_C@_15JDNICKHM@?$AAa?$AAf@ 004327a4     Stdafx.obj
 0002:000037ac       ??_C@_15KPJEDBKD@?$AAk?$AAa@ 004327ac     Stdafx.obj
 0002:000037b4       ??_C@_15PDNFFFEO@?$AAf?$AAo@ 004327b4     Stdafx.obj
 0002:000037bc       ??_C@_15OMLEGLOC@?$AAh?$AAi@ 004327bc     Stdafx.obj
 0002:000037c4       ??_C@_15IDNNENKK@?$AAm?$AAs@ 004327c4     Stdafx.obj
 0002:000037cc       ??_C@_15MACJNBMH@?$AAk?$AAk@ 004327cc     Stdafx.obj
 0002:000037d4       ??_C@_15DKDJEOND@?$AAk?$AAy@ 004327d4     Stdafx.obj
 0002:000037dc       ??_C@_15DFGDLJBG@?$AAs?$AAw@ 004327dc     Stdafx.obj
 0002:000037e4       ??_C@_15BBFAICNG@?$AAu?$AAz@ 004327e4     Stdafx.obj
 0002:000037ec       ??_C@_15DKNDCGEA@?$AAt?$AAt@ 004327ec     Stdafx.obj
 0002:000037f4       ??_C@_15MGIFMDPL@?$AAp?$AAa@ 004327f4     Stdafx.obj
 0002:000037fc       ??_C@_15HCNDBBA@?$AAg?$AAu@ 004327fc     Stdafx.obj
 0002:00003804       ??_C@_15FNBEIBON@?$AAt?$AAa@ 00432804     Stdafx.obj
 0002:0000380c       ??_C@_15NCHGBGLK@?$AAt?$AAe@ 0043280c     Stdafx.obj
 0002:00003814       ??_C@_15PHPHCBPF@?$AAk?$AAn@ 00432814     Stdafx.obj
 0002:0000381c       ??_C@_15DLGBCKMP@?$AAm?$AAr@ 0043281c     Stdafx.obj
 0002:00003824       ??_C@_15EABBLBFF@?$AAs?$AAa@ 00432824     Stdafx.obj
 0002:0000382c       ??_C@_15CBKOMCOI@?$AAm?$AAn@ 0043282c     Stdafx.obj
 0002:00003834       ??_C@_15CKDMCJAF@?$AAg?$AAl@ 00432834     Stdafx.obj
 0002:0000383c       ??_C@_17CNJFBPG@?$AAk?$AAo?$AAk@ 0043283c     Stdafx.obj
 0002:00003848       ??_C@_17FFBJICPL@?$AAs?$AAy?$AAr@ 00432848     Stdafx.obj
 0002:00003854       ??_C@_17KPNDCPAF@?$AAd?$AAi?$AAv@ 00432854     Stdafx.obj
 0002:00003860       ??_C@_11LOCGONAA@@         00432860     Stdafx.obj
 0002:00003864       ??_C@_1M@OKAHONE@?$AAa?$AAr?$AA?9?$AAS?$AAA@ 00432864     Stdafx.obj
 0002:00003874       ??_C@_1M@FFFIGIGK@?$AAb?$AAg?$AA?9?$AAB?$AAG@ 00432874     Stdafx.obj
 0002:00003884       ??_C@_1M@BJNKEDC@?$AAc?$AAa?$AA?9?$AAE?$AAS@ 00432884     Stdafx.obj
 0002:00003894       ??_C@_1M@CLNBBOPM@?$AAz?$AAh?$AA?9?$AAT?$AAW@ 00432894     Stdafx.obj
 0002:000038a4       ??_C@_1M@IJJHFJHA@?$AAc?$AAs?$AA?9?$AAC?$AAZ@ 004328a4     Stdafx.obj
 0002:000038b4       ??_C@_1M@CLPEOBGI@?$AAd?$AAa?$AA?9?$AAD?$AAK@ 004328b4     Stdafx.obj
 0002:000038c4       ??_C@_1M@MCMADGCB@?$AAd?$AAe?$AA?9?$AAD?$AAE@ 004328c4     Stdafx.obj
 0002:000038d4       ??_C@_1M@OOCKEMAM@?$AAe?$AAl?$AA?9?$AAG?$AAR@ 004328d4     Stdafx.obj
 0002:000038e4       ??_C@_1M@BMHNFIME@?$AAe?$AAn?$AA?9?$AAU?$AAS@ 004328e4     Stdafx.obj
 0002:000038f4       ??_C@_1M@DDNJFGID@?$AAf?$AAi?$AA?9?$AAF?$AAI@ 004328f4     Stdafx.obj
 0002:00003904       ??_C@_1M@GLIPPMAC@?$AAf?$AAr?$AA?9?$AAF?$AAR@ 00432904     Stdafx.obj
 0002:00003914       ??_C@_1M@GFMCHPE@?$AAh?$AAe?$AA?9?$AAI?$AAL@ 00432914     Stdafx.obj
 0002:00003924       ??_C@_1M@MHLPGNKM@?$AAh?$AAu?$AA?9?$AAH?$AAU@ 00432924     Stdafx.obj
 0002:00003934       ??_C@_1M@LPDDNNPN@?$AAi?$AAs?$AA?9?$AAI?$AAS@ 00432934     Stdafx.obj
 0002:00003944       ??_C@_1M@MADIPODN@?$AAi?$AAt?$AA?9?$AAI?$AAT@ 00432944     Stdafx.obj
 0002:00003954       ??_C@_1M@HPNHIDJI@?$AAj?$AAa?$AA?9?$AAJ?$AAP@ 00432954     Stdafx.obj
 0002:00003964       ??_C@_1M@JLOOOEGK@?$AAk?$AAo?$AA?9?$AAK?$AAR@ 00432964     Stdafx.obj
 0002:00003974       ??_C@_1M@IHBJJGG@?$AAn?$AAl?$AA?9?$AAN?$AAL@ 00432974     Stdafx.obj
 0002:00003984       ??_C@_1M@EANAGDL@?$AAn?$AAb?$AA?9?$AAN?$AAO@ 00432984     Stdafx.obj
 0002:00003994       ??_C@_1M@NEIEMEGP@?$AAp?$AAl?$AA?9?$AAP?$AAL@ 00432994     Stdafx.obj
 0002:000039a4       ??_C@_1M@BOCFIGEP@?$AAp?$AAt?$AA?9?$AAB?$AAR@ 004329a4     Stdafx.obj
 0002:000039b4       ??_C@_1M@IMPFOPBG@?$AAr?$AAo?$AA?9?$AAR?$AAO@ 004329b4     Stdafx.obj
 0002:000039c4       ??_C@_1M@IDNNEJMM@?$AAr?$AAu?$AA?9?$AAR?$AAU@ 004329c4     Stdafx.obj
 0002:000039d4       ??_C@_1M@LILEEOGM@?$AAh?$AAr?$AA?9?$AAH?$AAR@ 004329d4     Stdafx.obj
 0002:000039e4       ??_C@_1M@FKIFEHPB@?$AAs?$AAk?$AA?9?$AAS?$AAK@ 004329e4     Stdafx.obj
 0002:000039f4       ??_C@_1M@LJMAMNPJ@?$AAs?$AAq?$AA?9?$AAA?$AAL@ 004329f4     Stdafx.obj
 0002:00003a04       ??_C@_1M@GIAKDKJK@?$AAs?$AAv?$AA?9?$AAS?$AAE@ 00432a04     Stdafx.obj
 0002:00003a14       ??_C@_1M@MKJKIKCL@?$AAt?$AAh?$AA?9?$AAT?$AAH@ 00432a14     Stdafx.obj
 0002:00003a24       ??_C@_1M@MFLCCMPB@?$AAt?$AAr?$AA?9?$AAT?$AAR@ 00432a24     Stdafx.obj
 0002:00003a34       ??_C@_1M@OIJHDKJN@?$AAu?$AAr?$AA?9?$AAP?$AAK@ 00432a34     Stdafx.obj
 0002:00003a44       ??_C@_1M@LHIPCIEK@?$AAi?$AAd?$AA?9?$AAI?$AAD@ 00432a44     Stdafx.obj
 0002:00003a54       ??_C@_1M@MFMOBGI@?$AAu?$AAk?$AA?9?$AAU?$AAA@ 00432a54     Stdafx.obj
 0002:00003a64       ??_C@_1M@OBGLJIPL@?$AAb?$AAe?$AA?9?$AAB?$AAY@ 00432a64     Stdafx.obj
 0002:00003a74       ??_C@_1M@BCFAJEAD@?$AAs?$AAl?$AA?9?$AAS?$AAI@ 00432a74     Stdafx.obj
 0002:00003a84       ??_C@_1M@FKFFEDDN@?$AAe?$AAt?$AA?9?$AAE?$AAE@ 00432a84     Stdafx.obj
 0002:00003a94       ??_C@_1M@KGKKAACI@?$AAl?$AAv?$AA?9?$AAL?$AAV@ 00432a94     Stdafx.obj
 0002:00003aa4       ??_C@_1M@IFGBIJO@?$AAl?$AAt?$AA?9?$AAL?$AAT@ 00432aa4     Stdafx.obj
 0002:00003ab4       ??_C@_1M@FGEAHEDM@?$AAf?$AAa?$AA?9?$AAI?$AAR@ 00432ab4     Stdafx.obj
 0002:00003ac4       ??_C@_1M@KBMAIBFN@?$AAv?$AAi?$AA?9?$AAV?$AAN@ 00432ac4     Stdafx.obj
 0002:00003ad4       ??_C@_1M@GPCBKDJK@?$AAh?$AAy?$AA?9?$AAA?$AAM@ 00432ad4     Stdafx.obj
 0002:00003ae4       ??_C@_1BG@BECMDDJB@?$AAa?$AAz?$AA?9?$AAA?$AAZ?$AA?9?$AAL?$AAa?$AAt?$AAn@ 00432ae4     Stdafx.obj
 0002:00003b00       ??_C@_1M@MAOFCAEA@?$AAe?$AAu?$AA?9?$AAE?$AAS@ 00432b00     Stdafx.obj
 0002:00003b10       ??_C@_1M@IGHABKPI@?$AAm?$AAk?$AA?9?$AAM?$AAK@ 00432b10     Stdafx.obj
 0002:00003b20       ??_C@_1M@IAIGNEJG@?$AAt?$AAn?$AA?9?$AAZ?$AAA@ 00432b20     Stdafx.obj
 0002:00003b30       ??_C@_1M@IIJCOJFA@?$AAx?$AAh?$AA?9?$AAZ?$AAA@ 00432b30     Stdafx.obj
 0002:00003b40       ??_C@_1M@LGPJHNJH@?$AAz?$AAu?$AA?9?$AAZ?$AAA@ 00432b40     Stdafx.obj
 0002:00003b50       ??_C@_1M@HOKAOIO@?$AAa?$AAf?$AA?9?$AAZ?$AAA@ 00432b50     Stdafx.obj
 0002:00003b60       ??_C@_1M@DPCLHLIE@?$AAk?$AAa?$AA?9?$AAG?$AAE@ 00432b60     Stdafx.obj
 0002:00003b70       ??_C@_1M@BLKMHJBI@?$AAf?$AAo?$AA?9?$AAF?$AAO@ 00432b70     Stdafx.obj
 0002:00003b80       ??_C@_1M@LGGJAPPB@?$AAh?$AAi?$AA?9?$AAI?$AAN@ 00432b80     Stdafx.obj
 0002:00003b90       ??_C@_1M@FIKPIHFE@?$AAm?$AAt?$AA?9?$AAM?$AAT@ 00432b90     Stdafx.obj
 0002:00003ba0       ??_C@_1M@HEGGPBFA@?$AAs?$AAe?$AA?9?$AAN?$AAO@ 00432ba0     Stdafx.obj
 0002:00003bb0       ??_C@_1M@EIBJEEPA@?$AAm?$AAs?$AA?9?$AAM?$AAY@ 00432bb0     Stdafx.obj
 0002:00003bc0       ??_C@_1M@FHLBGMPP@?$AAk?$AAk?$AA?9?$AAK?$AAZ@ 00432bc0     Stdafx.obj
 0002:00003bd0       ??_C@_1M@NGJJLCGI@?$AAk?$AAy?$AA?9?$AAK?$AAG@ 00432bd0     Stdafx.obj
 0002:00003be0       ??_C@_1M@GIENNBFC@?$AAs?$AAw?$AA?9?$AAK?$AAE@ 00432be0     Stdafx.obj
 0002:00003bf0       ??_C@_1BG@NDGMJIMJ@?$AAu?$AAz?$AA?9?$AAU?$AAZ?$AA?9?$AAL?$AAa?$AAt?$AAn@ 00432bf0     Stdafx.obj
 0002:00003c0c       ??_C@_1M@IDCCIHBC@?$AAt?$AAt?$AA?9?$AAR?$AAU@ 00432c0c     Stdafx.obj
 0002:00003c1c       ??_C@_1M@LOICPMOJ@?$AAb?$AAn?$AA?9?$AAI?$AAN@ 00432c1c     Stdafx.obj
 0002:00003c2c       ??_C@_1M@KPKKNEAH@?$AAp?$AAa?$AA?9?$AAI?$AAN@ 00432c2c     Stdafx.obj
 0002:00003c3c       ??_C@_1M@PJGPPBOG@?$AAg?$AAu?$AA?9?$AAI?$AAN@ 00432c3c     Stdafx.obj
 0002:00003c4c       ??_C@_1M@KMKMOPHI@?$AAt?$AAa?$AA?9?$AAI?$AAN@ 00432c4c     Stdafx.obj
 0002:00003c5c       ??_C@_1M@KFEHEPAC@?$AAt?$AAe?$AA?9?$AAI?$AAN@ 00432c5c     Stdafx.obj
 0002:00003c6c       ??_C@_1M@CDCLMGHI@?$AAk?$AAn?$AA?9?$AAI?$AAN@ 00432c6c     Stdafx.obj
 0002:00003c7c       ??_C@_1M@MIODLDKF@?$AAm?$AAl?$AA?9?$AAI?$AAN@ 00432c7c     Stdafx.obj
 0002:00003c8c       ??_C@_1M@PBIEACPO@?$AAm?$AAr?$AA?9?$AAI?$AAN@ 00432c8c     Stdafx.obj
 0002:00003c9c       ??_C@_1M@NIDEAGPH@?$AAs?$AAa?$AA?9?$AAI?$AAN@ 00432c9c     Stdafx.obj
 0002:00003cac       ??_C@_1M@FHIHCBIO@?$AAm?$AAn?$AA?9?$AAM?$AAN@ 00432cac     Stdafx.obj
 0002:00003cbc       ??_C@_1M@JAIJPENP@?$AAc?$AAy?$AA?9?$AAG?$AAB@ 00432cbc     Stdafx.obj
 0002:00003ccc       ??_C@_1M@PHGFBEPN@?$AAg?$AAl?$AA?9?$AAE?$AAS@ 00432ccc     Stdafx.obj
 0002:00003cdc       ??_C@_1O@KPIPDNCP@?$AAk?$AAo?$AAk?$AA?9?$AAI?$AAN@ 00432cdc     Stdafx.obj
 0002:00003cec       ??_C@_1O@KNHJLDJA@?$AAs?$AAy?$AAr?$AA?9?$AAS?$AAY@ 00432cec     Stdafx.obj
 0002:00003cfc       ??_C@_1O@MKEKBLAH@?$AAd?$AAi?$AAv?$AA?9?$AAM?$AAV@ 00432cfc     Stdafx.obj
 0002:00003d0c       ??_C@_1O@OHDCKDDF@?$AAq?$AAu?$AAz?$AA?9?$AAB?$AAO@ 00432d0c     Stdafx.obj
 0002:00003d1c       ??_C@_1M@LEPJNLFD@?$AAn?$AAs?$AA?9?$AAZ?$AAA@ 00432d1c     Stdafx.obj
 0002:00003d2c       ??_C@_1M@OMLEIIJB@?$AAm?$AAi?$AA?9?$AAN?$AAZ@ 00432d2c     Stdafx.obj
 0002:00003d3c       ??_C@_1M@PMPEAILG@?$AAa?$AAr?$AA?9?$AAI?$AAQ@ 00432d3c     Stdafx.obj
 0002:00003d4c       ??_C@_1M@BIBDDEMK@?$AAz?$AAh?$AA?9?$AAC?$AAN@ 00432d4c     Stdafx.obj
 0002:00003d5c       ??_C@_1M@CNKPNOEE@?$AAd?$AAe?$AA?9?$AAC?$AAH@ 00432d5c     Stdafx.obj
 0002:00003d6c       ??_C@_1M@LKMGMLKO@?$AAe?$AAn?$AA?9?$AAG?$AAB@ 00432d6c     Stdafx.obj
 0002:00003d7c       ??_C@_1M@PGKJFFGL@?$AAe?$AAs?$AA?9?$AAM?$AAX@ 00432d7c     Stdafx.obj
 0002:00003d8c       ??_C@_1M@DNNANBDC@?$AAf?$AAr?$AA?9?$AAB?$AAE@ 00432d8c     Stdafx.obj
 0002:00003d9c       ??_C@_1M@HLGMDFHM@?$AAi?$AAt?$AA?9?$AAC?$AAH@ 00432d9c     Stdafx.obj
 0002:00003dac       ??_C@_1M@CLLBGJH@?$AAn?$AAl?$AA?9?$AAB?$AAE@ 00432dac     Stdafx.obj
 0002:00003dbc       ??_C@_1M@BODBOGLF@?$AAn?$AAn?$AA?9?$AAN?$AAO@ 00432dbc     Stdafx.obj
 0002:00003dcc       ??_C@_1M@HFFAHKAD@?$AAp?$AAt?$AA?9?$AAP?$AAT@ 00432dcc     Stdafx.obj
 0002:00003ddc       ??_C@_1BG@LNOAKHIE@?$AAs?$AAr?$AA?9?$AAS?$AAP?$AA?9?$AAL?$AAa?$AAt?$AAn@ 00432ddc     Stdafx.obj
 0002:00003df8       ??_C@_1M@HBMHBGAK@?$AAs?$AAv?$AA?9?$AAF?$AAI@ 00432df8     Stdafx.obj
 0002:00003e08       ??_C@_1BG@DGCJGJBE@?$AAa?$AAz?$AA?9?$AAA?$AAZ?$AA?9?$AAC?$AAy?$AAr?$AAl@ 00432e08     Stdafx.obj
 0002:00003e24       ??_C@_1M@KEJDAAHB@?$AAs?$AAe?$AA?9?$AAS?$AAE@ 00432e24     Stdafx.obj
 0002:00003e34       ??_C@_1M@HEIBJJAD@?$AAm?$AAs?$AA?9?$AAB?$AAN@ 00432e34     Stdafx.obj
 0002:00003e44       ??_C@_1BG@PBGJMCEM@?$AAu?$AAz?$AA?9?$AAU?$AAZ?$AA?9?$AAC?$AAy?$AAr?$AAl@ 00432e44     Stdafx.obj
 0002:00003e60       ??_C@_1O@LAOBCMDF@?$AAq?$AAu?$AAz?$AA?9?$AAE?$AAC@ 00432e60     Stdafx.obj
 0002:00003e70       ??_C@_1M@POEEMAIO@?$AAa?$AAr?$AA?9?$AAE?$AAG@ 00432e70     Stdafx.obj
 0002:00003e80       ??_C@_1M@EFAKDEDL@?$AAz?$AAh?$AA?9?$AAH?$AAK@ 00432e80     Stdafx.obj
 0002:00003e90       ??_C@_1M@HKKIJHGI@?$AAd?$AAe?$AA?9?$AAA?$AAT@ 00432e90     Stdafx.obj
 0002:00003ea0       ??_C@_1M@KBFBEHJF@?$AAe?$AAn?$AA?9?$AAA?$AAU@ 00432ea0     Stdafx.obj
 0002:00003eb0       ??_C@_1M@MNPLFAAH@?$AAe?$AAs?$AA?9?$AAE?$AAS@ 00432eb0     Stdafx.obj
 0002:00003ec0       ??_C@_1M@HJOOJFMA@?$AAf?$AAr?$AA?9?$AAC?$AAA@ 00432ec0     Stdafx.obj
 0002:00003ed0       ??_C@_1BG@JPOFPNAB@?$AAs?$AAr?$AA?9?$AAS?$AAP?$AA?9?$AAC?$AAy?$AAr?$AAl@ 00432ed0     Stdafx.obj
 0002:00003eec       ??_C@_1M@LNFOCMOB@?$AAs?$AAe?$AA?9?$AAF?$AAI@ 00432eec     Stdafx.obj
 0002:00003efc       ??_C@_1O@MGJBOAMB@?$AAq?$AAu?$AAz?$AA?9?$AAP?$AAE@ 00432efc     Stdafx.obj
 0002:00003f0c       ??_C@_1M@GJINLBOK@?$AAa?$AAr?$AA?9?$AAL?$AAY@ 00432f0c     Stdafx.obj
 0002:00003f1c       ??_C@_1M@GGMNHJNL@?$AAz?$AAh?$AA?9?$AAS?$AAG@ 00432f1c     Stdafx.obj
 0002:00003f2c       ??_C@_1M@HOIKODND@?$AAd?$AAe?$AA?9?$AAL?$AAU@ 00432f2c     Stdafx.obj
 0002:00003f3c       ??_C@_1M@DDOCCGFG@?$AAe?$AAn?$AA?9?$AAC?$AAA@ 00432f3c     Stdafx.obj
 0002:00003f4c       ??_C@_1M@BNOEMJLF@?$AAe?$AAs?$AA?9?$AAG?$AAT@ 00432f4c     Stdafx.obj
 0002:00003f5c       ??_C@_1M@EOGNKEK@?$AAf?$AAr?$AA?9?$AAC?$AAH@ 00432f5c     Stdafx.obj
 0002:00003f6c       ??_C@_1M@FLIDJFHL@?$AAh?$AAr?$AA?9?$AAB?$AAA@ 00432f6c     Stdafx.obj
 0002:00003f7c       ??_C@_1O@FMCELNAJ@?$AAs?$AAm?$AAj?$AA?9?$AAN?$AAO@ 00432f7c     Stdafx.obj
 0002:00003f8c       ??_C@_1M@JHGLJMGJ@?$AAa?$AAr?$AA?9?$AAD?$AAZ@ 00432f8c     Stdafx.obj
 0002:00003f9c       ??_C@_1M@JKKFDCNP@?$AAz?$AAh?$AA?9?$AAM?$AAO@ 00432f9c     Stdafx.obj
 0002:00003fac       ??_C@_1M@GEEFALPE@?$AAd?$AAe?$AA?9?$AAL?$AAI@ 00432fac     Stdafx.obj
 0002:00003fbc       ??_C@_1M@IGEOFBG@?$AAe?$AAn?$AA?9?$AAN?$AAZ@ 00432fbc     Stdafx.obj
 0002:00003fcc       ??_C@_1M@KDBONEHP@?$AAe?$AAs?$AA?9?$AAC?$AAR@ 00432fcc     Stdafx.obj
 0002:00003fdc       ??_C@_1M@FHMDOHNN@?$AAf?$AAr?$AA?9?$AAL?$AAU@ 00432fdc     Stdafx.obj
 0002:00003fec       ??_C@_1BG@NFKKMAFG@?$AAb?$AAs?$AA?9?$AAB?$AAA?$AA?9?$AAL?$AAa?$AAt?$AAn@ 00432fec     Stdafx.obj
 0002:00004008       ??_C@_1O@IMNBEMCI@?$AAs?$AAm?$AAj?$AA?9?$AAS?$AAE@ 00433008     Stdafx.obj
 0002:00004018       ??_C@_1M@DHHMBNDP@?$AAa?$AAr?$AA?9?$AAM?$AAA@ 00433018     Stdafx.obj
 0002:00004028       ??_C@_1M@BNBLJCGH@?$AAe?$AAn?$AA?9?$AAI?$AAE@ 00433028     Stdafx.obj
 0002:00004038       ??_C@_1M@GEPAFMDL@?$AAe?$AAs?$AA?9?$AAP?$AAA@ 00433038     Stdafx.obj
 0002:00004048       ??_C@_1M@OJONDMDL@?$AAf?$AAr?$AA?9?$AAM?$AAC@ 00433048     Stdafx.obj
 0002:00004058       ??_C@_1BG@OBCNFJB@?$AAs?$AAr?$AA?9?$AAB?$AAA?$AA?9?$AAL?$AAa?$AAt?$AAn@ 00433058     Stdafx.obj
 0002:00004074       ??_C@_1O@KEMEEGPO@?$AAs?$AAm?$AAa?$AA?9?$AAN?$AAO@ 00433074     Stdafx.obj
 0002:00004084       ??_C@_1M@ELMGFODK@?$AAa?$AAr?$AA?9?$AAT?$AAN@ 00433084     Stdafx.obj
 0002:00004094       ??_C@_1M@BHDLHFAF@?$AAe?$AAn?$AA?9?$AAZ?$AAA@ 00433094     Stdafx.obj
 0002:000040a4       ??_C@_1M@BMGIGLIF@?$AAe?$AAs?$AA?9?$AAD?$AAO@ 004330a4     Stdafx.obj
 0002:000040b4       ??_C@_1BG@CMBHIPBE@?$AAs?$AAr?$AA?9?$AAB?$AAA?$AA?9?$AAC?$AAy?$AAr?$AAl@ 004330b4     Stdafx.obj
 0002:000040d0       ??_C@_1O@HEDBLHNP@?$AAs?$AAm?$AAa?$AA?9?$AAS?$AAE@ 004330d0     Stdafx.obj
 0002:000040e0       ??_C@_1M@DAGCADIM@?$AAa?$AAr?$AA?9?$AAO?$AAM@ 004330e0     Stdafx.obj
 0002:000040f0       ??_C@_1M@FODLMICG@?$AAe?$AAn?$AA?9?$AAJ?$AAM@ 004330f0     Stdafx.obj
 0002:00004100       ??_C@_1M@DNMLCIHB@?$AAe?$AAs?$AA?9?$AAV?$AAE@ 00433100     Stdafx.obj
 0002:00004110       ??_C@_1O@EOKHMKJK@?$AAs?$AAm?$AAs?$AA?9?$AAF?$AAI@ 00433110     Stdafx.obj
 0002:00004120       ??_C@_1M@CAFJMKOF@?$AAa?$AAr?$AA?9?$AAY?$AAE@ 00433120     Stdafx.obj
 0002:00004130       ??_C@_1M@CBFHIJLI@?$AAe?$AAn?$AA?9?$AAC?$AAB@ 00433130     Stdafx.obj
 0002:00004140       ??_C@_1M@BGNFLDN@?$AAe?$AAs?$AA?9?$AAC?$AAO@ 00433140     Stdafx.obj
 0002:00004150       ??_C@_1O@JMPHMAMC@?$AAs?$AAm?$AAn?$AA?9?$AAF?$AAI@ 00433150     Stdafx.obj
 0002:00004160       ??_C@_1M@JLANABKE@?$AAa?$AAr?$AA?9?$AAS?$AAY@ 00433160     Stdafx.obj
 0002:00004170       ??_C@_1M@HPKGCFGN@?$AAe?$AAn?$AA?9?$AAB?$AAZ@ 00433170     Stdafx.obj
 0002:00004180       ??_C@_1M@OLJCMLGM@?$AAe?$AAs?$AA?9?$AAP?$AAE@ 00433180     Stdafx.obj
 0002:00004190       ??_C@_1M@MKKGFKLE@?$AAa?$AAr?$AA?9?$AAJ?$AAO@ 00433190     Stdafx.obj
 0002:000041a0       ??_C@_1M@EKPGLDNI@?$AAe?$AAn?$AA?9?$AAT?$AAT@ 004331a0     Stdafx.obj
 0002:000041b0       ??_C@_1M@OONGHFHE@?$AAe?$AAs?$AA?9?$AAA?$AAR@ 004331b0     Stdafx.obj
 0002:000041c0       ??_C@_1M@OOJFGBHE@?$AAa?$AAr?$AA?9?$AAL?$AAB@ 004331c0     Stdafx.obj
 0002:000041d0       ??_C@_1M@GCEJHNEG@?$AAe?$AAn?$AA?9?$AAZ?$AAW@ 004331d0     Stdafx.obj
 0002:000041e0       ??_C@_1M@JNOCAHJI@?$AAe?$AAs?$AA?9?$AAE?$AAC@ 004331e0     Stdafx.obj
 0002:000041f0       ??_C@_1M@JEFHPGGB@?$AAa?$AAr?$AA?9?$AAK?$AAW@ 004331f0     Stdafx.obj
 0002:00004200       ??_C@_1M@MLKIBJOJ@?$AAe?$AAn?$AA?9?$AAP?$AAH@ 00433200     Stdafx.obj
 0002:00004210       ??_C@_1M@BDNIPEND@?$AAe?$AAs?$AA?9?$AAC?$AAL@ 00433210     Stdafx.obj
 0002:00004220       ??_C@_1M@MPNMEKBD@?$AAa?$AAr?$AA?9?$AAA?$AAE@ 00433220     Stdafx.obj
 0002:00004230       ??_C@_1M@KBJALCPI@?$AAe?$AAs?$AA?9?$AAU?$AAY@ 00433230     Stdafx.obj
 0002:00004240       ??_C@_1M@LLCCOAGA@?$AAa?$AAr?$AA?9?$AAB?$AAH@ 00433240     Stdafx.obj
 0002:00004250       ??_C@_1M@PBFNCDEL@?$AAe?$AAs?$AA?9?$AAP?$AAY@ 00433250     Stdafx.obj
 0002:00004260       ??_C@_1M@EDGINPNP@?$AAa?$AAr?$AA?9?$AAQ?$AAA@ 00433260     Stdafx.obj
 0002:00004270       ??_C@_1M@MKDBIIJI@?$AAe?$AAs?$AA?9?$AAB?$AAO@ 00433270     Stdafx.obj
 0002:00004280       ??_C@_1M@CPKKEBLD@?$AAe?$AAs?$AA?9?$AAS?$AAV@ 00433280     Stdafx.obj
 0002:00004290       ??_C@_1M@NDBGMMJL@?$AAe?$AAs?$AA?9?$AAH?$AAN@ 00433290     Stdafx.obj
 0002:000042a0       ??_C@_1M@JIJIBHDP@?$AAe?$AAs?$AA?9?$AAN?$AAI@ 004332a0     Stdafx.obj
 0002:000042b0       ??_C@_1M@CGFMKEEK@?$AAe?$AAs?$AA?9?$AAP?$AAR@ 004332b0     Stdafx.obj
 0002:000042c0       ??_C@_1O@ICJHKIIK@?$AAz?$AAh?$AA?9?$AAC?$AAH?$AAT@ 004332c0     Stdafx.obj
 0002:000042d0       ??_C@_15CLNEJCE@?$AAs?$AAr@ 004332d0     Stdafx.obj
 0002:000042d8       __pAtlLocaleNameToIndexTable 004332d8     Stdafx.obj
 0002:00004b64       ??_C@_1M@KAHEKEIG@?$AAa?$AAf?$AA?9?$AAz?$AAa@ 00433b64     Stdafx.obj
 0002:00004b74       ??_C@_1M@GIECOABL@?$AAa?$AAr?$AA?9?$AAa?$AAe@ 00433b74     Stdafx.obj
 0002:00004b84       ??_C@_1M@BMLMEKGI@?$AAa?$AAr?$AA?9?$AAb?$AAh@ 00433b84     Stdafx.obj
 0002:00004b94       ??_C@_1M@DAPFDGGB@?$AAa?$AAr?$AA?9?$AAd?$AAz@ 00433b94     Stdafx.obj
 0002:00004ba4       ??_C@_1M@FJNKGKIG@?$AAa?$AAr?$AA?9?$AAe?$AAg@ 00433ba4     Stdafx.obj
 0002:00004bb4       ??_C@_1M@FLGKKCLO@?$AAa?$AAr?$AA?9?$AAi?$AAq@ 00433bb4     Stdafx.obj
 0002:00004bc4       ??_C@_1M@GNDIPALM@?$AAa?$AAr?$AA?9?$AAj?$AAo@ 00433bc4     Stdafx.obj
 0002:00004bd4       ??_C@_1M@DDMJFMGJ@?$AAa?$AAr?$AA?9?$AAk?$AAw@ 00433bd4     Stdafx.obj
 0002:00004be4       ??_C@_1M@EJALMLHM@?$AAa?$AAr?$AA?9?$AAl?$AAb@ 00433be4     Stdafx.obj
 0002:00004bf4       ??_C@_1M@MOBDBLOC@?$AAa?$AAr?$AA?9?$AAl?$AAy@ 00433bf4     Stdafx.obj
 0002:00004c04       ??_C@_1M@JAOCLHDH@?$AAa?$AAr?$AA?9?$AAm?$AAa@ 00433c04     Stdafx.obj
 0002:00004c14       ??_C@_1M@JHPMKJIE@?$AAa?$AAr?$AA?9?$AAo?$AAm@ 00433c14     Stdafx.obj
 0002:00004c24       ??_C@_1M@OEPGHFNH@?$AAa?$AAr?$AA?9?$AAq?$AAa@ 00433c24     Stdafx.obj
 0002:00004c34       ??_C@_1M@KJDONENM@?$AAa?$AAr?$AA?9?$AAs?$AAa@ 00433c34     Stdafx.obj
 0002:00004c44       ??_C@_1M@DMJDKLKM@?$AAa?$AAr?$AA?9?$AAs?$AAy@ 00433c44     Stdafx.obj
 0002:00004c54       ??_C@_1M@OMFIPEDC@?$AAa?$AAr?$AA?9?$AAt?$AAn@ 00433c54     Stdafx.obj
 0002:00004c64       ??_C@_1M@IHMHGAON@?$AAa?$AAr?$AA?9?$AAy?$AAe@ 00433c64     Stdafx.obj
 0002:00004c74       ??_C@_1BG@KDCPGJGB@?$AAa?$AAz?$AA?9?$AAa?$AAz?$AA?9?$AAc?$AAy?$AAr?$AAl@ 00433c74     Stdafx.obj
 0002:00004c90       ??_C@_1BG@IBCKDDOE@?$AAa?$AAz?$AA?9?$AAa?$AAz?$AA?9?$AAl?$AAa?$AAt?$AAn@ 00433c90     Stdafx.obj
 0002:00004cac       ??_C@_1M@EGPFDCPD@?$AAb?$AAe?$AA?9?$AAb?$AAy@ 00433cac     Stdafx.obj
 0002:00004cbc       ??_C@_1M@PCMGMCGC@?$AAb?$AAg?$AA?9?$AAb?$AAg@ 00433cbc     Stdafx.obj
 0002:00004ccc       ??_C@_1M@BJBMFGOB@?$AAb?$AAn?$AA?9?$AAi?$AAn@ 00433ccc     Stdafx.obj
 0002:00004cdc       ??_C@_1BG@EAKMMACD@?$AAb?$AAs?$AA?9?$AAb?$AAa?$AA?9?$AAl?$AAa?$AAt?$AAn@ 00433cdc     Stdafx.obj
 0002:00004cf8       ??_C@_1M@KGADAODK@?$AAc?$AAa?$AA?9?$AAe?$AAs@ 00433cf8     Stdafx.obj
 0002:00004d08       ??_C@_1M@COAJPDHI@?$AAc?$AAs?$AA?9?$AAc?$AAz@ 00433d08     Stdafx.obj
 0002:00004d18       ??_C@_1M@DHBHFONH@?$AAc?$AAy?$AA?9?$AAg?$AAb@ 00433d18     Stdafx.obj
 0002:00004d28       ??_C@_1M@IMGKELGA@?$AAd?$AAa?$AA?9?$AAd?$AAk@ 00433d28     Stdafx.obj
 0002:00004d38       ??_C@_1M@NNDGDNGA@?$AAd?$AAe?$AA?9?$AAa?$AAt@ 00433d38     Stdafx.obj
 0002:00004d48       ??_C@_1M@IKDBHEEM@?$AAd?$AAe?$AA?9?$AAc?$AAh@ 00433d48     Stdafx.obj
 0002:00004d58       ??_C@_1M@GFFOJMCJ@?$AAd?$AAe?$AA?9?$AAd?$AAe@ 00433d58     Stdafx.obj
 0002:00004d68       ??_C@_1M@MDNLKBPM@?$AAd?$AAe?$AA?9?$AAl?$AAi@ 00433d68     Stdafx.obj
 0002:00004d78       ??_C@_1M@NJBEEJNL@?$AAd?$AAe?$AA?9?$AAl?$AAu@ 00433d78     Stdafx.obj
 0002:00004d88       ??_C@_1O@GNNELBAP@?$AAd?$AAi?$AAv?$AA?9?$AAm?$AAv@ 00433d88     Stdafx.obj
 0002:00004d98       ??_C@_1M@EJLEOGAE@?$AAe?$AAl?$AA?9?$AAg?$AAr@ 00433d98     Stdafx.obj
 0002:00004da8       ??_C@_1M@GMPONJN@?$AAe?$AAn?$AA?9?$AAa?$AAu@ 00433da8     Stdafx.obj
 0002:00004db8       ??_C@_1M@NIDIIPGF@?$AAe?$AAn?$AA?9?$AAb?$AAz@ 00433db8     Stdafx.obj
 0002:00004dc8       ??_C@_1M@JEHMIMFO@?$AAe?$AAn?$AA?9?$AAc?$AAa@ 00433dc8     Stdafx.obj
 0002:00004dd8       ??_C@_1M@IGMJCDLA@?$AAe?$AAn?$AA?9?$AAc?$AAb@ 00433dd8     Stdafx.obj
 0002:00004de8       ??_C@_1M@BNFIGBKG@?$AAe?$AAn?$AA?9?$AAg?$AAb@ 00433de8     Stdafx.obj
 0002:00004df8       ??_C@_1M@LKIFDIGP@?$AAe?$AAn?$AA?9?$AAi?$AAe@ 00433df8     Stdafx.obj
 0002:00004e08       ??_C@_1M@PJKFGCCO@?$AAe?$AAn?$AA?9?$AAj?$AAm@ 00433e08     Stdafx.obj
 0002:00004e18       ??_C@_1M@KPPKEPBO@?$AAe?$AAn?$AA?9?$AAn?$AAz@ 00433e18     Stdafx.obj
 0002:00004e28       ??_C@_1M@GMDGLDOB@?$AAe?$AAn?$AA?9?$AAp?$AAh@ 00433e28     Stdafx.obj
 0002:00004e38       ??_C@_1M@ONGIBJNA@?$AAe?$AAn?$AA?9?$AAt?$AAt@ 00433e38     Stdafx.obj
 0002:00004e48       ??_C@_1M@LLODPCMM@?$AAe?$AAn?$AA?9?$AAu?$AAs@ 00433e48     Stdafx.obj
 0002:00004e58       ??_C@_1M@LAKFNPAN@?$AAe?$AAn?$AA?9?$AAz?$AAa@ 00433e58     Stdafx.obj
 0002:00004e68       ??_C@_1M@MFNHNHEO@?$AAe?$AAn?$AA?9?$AAz?$AAw@ 00433e68     Stdafx.obj
 0002:00004e78       ??_C@_1M@EJEINPHM@?$AAe?$AAs?$AA?9?$AAa?$AAr@ 00433e78     Stdafx.obj
 0002:00004e88       ??_C@_1M@GNKPCCJA@?$AAe?$AAs?$AA?9?$AAb?$AAo@ 00433e88     Stdafx.obj
 0002:00004e98       ??_C@_1M@LEEGFONL@?$AAe?$AAs?$AA?9?$AAc?$AAl@ 00433e98     Stdafx.obj
 0002:00004ea8       ??_C@_1M@KGPDPBDF@?$AAe?$AAs?$AA?9?$AAc?$AAo@ 00433ea8     Stdafx.obj
 0002:00004eb8       ??_C@_1M@EIAHOHH@?$AAe?$AAs?$AA?9?$AAc?$AAr@ 00433eb8     Stdafx.obj
 0002:00004ec8       ??_C@_1M@LLPGMBIN@?$AAe?$AAs?$AA?9?$AAd?$AAo@ 00433ec8     Stdafx.obj
 0002:00004ed8       ??_C@_1M@DKHMKNJA@?$AAe?$AAs?$AA?9?$AAe?$AAc@ 00433ed8     Stdafx.obj
 0002:00004ee8       ??_C@_1M@GKGFPKAP@?$AAe?$AAs?$AA?9?$AAe?$AAs@ 00433ee8     Stdafx.obj
 0002:00004ef8       ??_C@_1M@LKHKGDLN@?$AAe?$AAs?$AA?9?$AAg?$AAt@ 00433ef8     Stdafx.obj
 0002:00004f08       ??_C@_1M@HEIIGGJD@?$AAe?$AAs?$AA?9?$AAh?$AAn@ 00433f08     Stdafx.obj
 0002:00004f18       ??_C@_1M@FBDHPPGD@?$AAe?$AAs?$AA?9?$AAm?$AAx@ 00433f18     Stdafx.obj
 0002:00004f28       ??_C@_1M@DPAGLNDH@?$AAe?$AAs?$AA?9?$AAn?$AAi@ 00433f28     Stdafx.obj
 0002:00004f38       ??_C@_1M@MDGOPGDD@?$AAe?$AAs?$AA?9?$AAp?$AAa@ 00433f38     Stdafx.obj
 0002:00004f48       ??_C@_1M@EMAMGBGE@?$AAe?$AAs?$AA?9?$AAp?$AAe@ 00433f48     Stdafx.obj
 0002:00004f58       ??_C@_1M@IBMCAOEC@?$AAe?$AAs?$AA?9?$AAp?$AAr@ 00433f58     Stdafx.obj
 0002:00004f68       ??_C@_1M@FGMDIJED@?$AAe?$AAs?$AA?9?$AAp?$AAy@ 00433f68     Stdafx.obj
 0002:00004f78       ??_C@_1M@IIDEOLLL@?$AAe?$AAs?$AA?9?$AAs?$AAv@ 00433f78     Stdafx.obj
 0002:00004f88       ??_C@_1M@GAOBIPA@?$AAe?$AAs?$AA?9?$AAu?$AAy@ 00433f88     Stdafx.obj
 0002:00004f98       ??_C@_1M@JKFFICHJ@?$AAe?$AAs?$AA?9?$AAv?$AAe@ 00433f98     Stdafx.obj
 0002:00004fa8       ??_C@_1M@PNMLOJDF@?$AAe?$AAt?$AA?9?$AAe?$AAe@ 00433fa8     Stdafx.obj
 0002:00004fb8       ??_C@_1M@GHHLIKEI@?$AAe?$AAu?$AA?9?$AAe?$AAs@ 00433fb8     Stdafx.obj
 0002:00004fc8       ??_C@_1M@PBNONODE@?$AAf?$AAa?$AA?9?$AAi?$AAr@ 00433fc8     Stdafx.obj
 0002:00004fd8       ??_C@_1M@JEEHPMIL@?$AAf?$AAi?$AA?9?$AAf?$AAi@ 00433fd8     Stdafx.obj
 0002:00004fe8       ??_C@_1M@LMDCNDBA@?$AAf?$AAo?$AA?9?$AAf?$AAo@ 00433fe8     Stdafx.obj
 0002:00004ff8       ??_C@_1M@JKEOHLDK@?$AAf?$AAr?$AA?9?$AAb?$AAe@ 00433ff8     Stdafx.obj
 0002:00005008       ??_C@_1M@NOHADPMI@?$AAf?$AAr?$AA?9?$AAc?$AAa@ 00434008     Stdafx.obj
 0002:00005018       ??_C@_1M@KDHIHAEC@?$AAf?$AAr?$AA?9?$AAc?$AAh@ 00434018     Stdafx.obj
 0002:00005028       ??_C@_1M@MMBBFGAK@?$AAf?$AAr?$AA?9?$AAf?$AAr@ 00434028     Stdafx.obj
 0002:00005038       ??_C@_1M@PAFNENNF@?$AAf?$AAr?$AA?9?$AAl?$AAu@ 00434038     Stdafx.obj
 0002:00005048       ??_C@_1M@EOHDJGDD@?$AAf?$AAr?$AA?9?$AAm?$AAc@ 00434048     Stdafx.obj
 0002:00005058       ??_C@_1M@FAPLLOPF@?$AAg?$AAl?$AA?9?$AAe?$AAs@ 00434058     Stdafx.obj
 0002:00005068       ??_C@_1M@FOPBFLOO@?$AAg?$AAu?$AA?9?$AAi?$AAn@ 00434068     Stdafx.obj
 0002:00005078       ??_C@_1M@KBMCINPM@?$AAh?$AAe?$AA?9?$AAi?$AAl@ 00434078     Stdafx.obj
 0002:00005088       ??_C@_1M@BBPHKFPJ@?$AAh?$AAi?$AA?9?$AAi?$AAn@ 00434088     Stdafx.obj
 0002:00005098       ??_C@_1M@PMBNDPHD@?$AAh?$AAr?$AA?9?$AAb?$AAa@ 00434098     Stdafx.obj
 0002:000050a8       ??_C@_1M@BPCKOEGE@?$AAh?$AAr?$AA?9?$AAh?$AAr@ 004340a8     Stdafx.obj
 0002:000050b8       ??_C@_1M@GACBMHKE@?$AAh?$AAu?$AA?9?$AAh?$AAu@ 004340b8     Stdafx.obj
 0002:000050c8       ??_C@_1M@MILPAJJC@?$AAh?$AAy?$AA?9?$AAa?$AAm@ 004340c8     Stdafx.obj
 0002:000050d8       ??_C@_1M@BABBICEC@?$AAi?$AAd?$AA?9?$AAi?$AAd@ 004340d8     Stdafx.obj
 0002:000050e8       ??_C@_1M@BIKNHHPF@?$AAi?$AAs?$AA?9?$AAi?$AAs@ 004340e8     Stdafx.obj
 0002:000050f8       ??_C@_1M@NMPCJPHE@?$AAi?$AAt?$AA?9?$AAc?$AAh@ 004340f8     Stdafx.obj
 0002:00005108       ??_C@_1M@GHKGFEDF@?$AAi?$AAt?$AA?9?$AAi?$AAt@ 00434108     Stdafx.obj
 0002:00005118       ??_C@_1M@NIEJCJJA@?$AAj?$AAa?$AA?9?$AAj?$AAp@ 00434118     Stdafx.obj
 0002:00005128       ??_C@_1M@JILFNBIM@?$AAk?$AAa?$AA?9?$AAg?$AAe@ 00434128     Stdafx.obj
 0002:00005138       ??_C@_1M@PACPMGPH@?$AAk?$AAk?$AA?9?$AAk?$AAz@ 00434138     Stdafx.obj
 0002:00005148       ??_C@_1M@IELFGMHA@?$AAk?$AAn?$AA?9?$AAi?$AAn@ 00434148     Stdafx.obj
 0002:00005158       ??_C@_1O@IBBJHCH@?$AAk?$AAo?$AAk?$AA?9?$AAi?$AAn@ 00434158     Stdafx.obj
 0002:00005168       ??_C@_1M@DMHAEOGC@?$AAk?$AAo?$AA?9?$AAk?$AAr@ 00434168     Stdafx.obj
 0002:00005178       ??_C@_1M@HBAHBIGA@?$AAk?$AAy?$AA?9?$AAk?$AAg@ 00434178     Stdafx.obj
 0002:00005188       ??_C@_1M@KPMILCJG@?$AAl?$AAt?$AA?9?$AAl?$AAt@ 00434188     Stdafx.obj
 0002:00005198       ??_C@_1M@BDEKKCA@?$AAl?$AAv?$AA?9?$AAl?$AAv@ 00434198     Stdafx.obj
 0002:000051a8       ??_C@_1M@ELCKCCJJ@?$AAm?$AAi?$AA?9?$AAn?$AAz@ 004341a8     Stdafx.obj
 0002:000051b8       ??_C@_1M@CBOOLAPA@?$AAm?$AAk?$AA?9?$AAm?$AAk@ 004341b8     Stdafx.obj
 0002:000051c8       ??_C@_1M@GPHNBJKN@?$AAm?$AAl?$AA?9?$AAi?$AAn@ 004341c8     Stdafx.obj
 0002:000051d8       ??_C@_1M@PABJILIG@?$AAm?$AAn?$AA?9?$AAm?$AAn@ 004341d8     Stdafx.obj
 0002:000051e8       ??_C@_1M@FGBKKIPG@?$AAm?$AAr?$AA?9?$AAi?$AAn@ 004341e8     Stdafx.obj
 0002:000051f8       ??_C@_1M@NDBPDDAL@?$AAm?$AAs?$AA?9?$AAb?$AAn@ 004341f8     Stdafx.obj
 0002:00005208       ??_C@_1M@OPIHOOPI@?$AAm?$AAs?$AA?9?$AAm?$AAy@ 00434208     Stdafx.obj
 0002:00005218       ??_C@_1M@PPDBCNFM@?$AAm?$AAt?$AA?9?$AAm?$AAt@ 00434218     Stdafx.obj
 0002:00005228       ??_C@_1M@KDJDKMDD@?$AAn?$AAb?$AA?9?$AAn?$AAo@ 00434228     Stdafx.obj
 0002:00005238       ??_C@_1M@KFCFLMJP@?$AAn?$AAl?$AA?9?$AAb?$AAe@ 00434238     Stdafx.obj
 0002:00005248       ??_C@_1M@KPOPDDGO@?$AAn?$AAl?$AA?9?$AAn?$AAl@ 00434248     Stdafx.obj
 0002:00005258       ??_C@_1M@LJKPEMLN@?$AAn?$AAn?$AA?9?$AAn?$AAo@ 00434258     Stdafx.obj
 0002:00005268       ??_C@_1M@BDGHHBFL@?$AAn?$AAs?$AA?9?$AAz?$AAa@ 00434268     Stdafx.obj
 0002:00005278       ??_C@_1M@IDEHOAP@?$AAp?$AAa?$AA?9?$AAi?$AAn@ 00434278     Stdafx.obj
 0002:00005288       ??_C@_1M@HDBKGOGH@?$AAp?$AAl?$AA?9?$AAp?$AAl@ 00434288     Stdafx.obj
 0002:00005298       ??_C@_1M@LJLLCMEH@?$AAp?$AAt?$AA?9?$AAb?$AAr@ 00434298     Stdafx.obj
 0002:000052a8       ??_C@_1M@NCMONAAL@?$AAp?$AAt?$AA?9?$AAp?$AAt@ 004342a8     Stdafx.obj
 0002:000052b8       ??_C@_1O@EAKMAJDN@?$AAq?$AAu?$AAz?$AA?9?$AAb?$AAo@ 004342b8     Stdafx.obj
 0002:000052c8       ??_C@_1O@BHHPIGDN@?$AAq?$AAu?$AAz?$AA?9?$AAe?$AAc@ 004342c8     Stdafx.obj
 0002:000052d8       ??_C@_1O@GBAPEKMJ@?$AAq?$AAu?$AAz?$AA?9?$AAp?$AAe@ 004342d8     Stdafx.obj
 0002:000052e8       ??_C@_1M@CLGLEFBO@?$AAr?$AAo?$AA?9?$AAr?$AAo@ 004342e8     Stdafx.obj
 0002:000052f8       ??_C@_1M@CEEDODME@?$AAr?$AAu?$AA?9?$AAr?$AAu@ 004342f8     Stdafx.obj
 0002:00005308       ??_C@_1M@HPKKKMPP@?$AAs?$AAa?$AA?9?$AAi?$AAn@ 00434308     Stdafx.obj
 0002:00005318       ??_C@_1M@BKMAIGOJ@?$AAs?$AAe?$AA?9?$AAf?$AAi@ 00434318     Stdafx.obj
 0002:00005328       ??_C@_1M@NDPIFLFI@?$AAs?$AAe?$AA?9?$AAn?$AAo@ 00434328     Stdafx.obj
 0002:00005338       ??_C@_1M@DANKKHJ@?$AAs?$AAe?$AA?9?$AAs?$AAe@ 00434338     Stdafx.obj
 0002:00005348       ??_C@_1M@PNBLONPJ@?$AAs?$AAk?$AA?9?$AAs?$AAk@ 00434348     Stdafx.obj
 0002:00005358       ??_C@_1M@LFMODOAL@?$AAs?$AAl?$AA?9?$AAs?$AAi@ 00434358     Stdafx.obj
 0002:00005368       ??_C@_1O@DFKOMPG@?$AAs?$AAm?$AAa?$AA?9?$AAn?$AAo@ 00434368     Stdafx.obj
 0002:00005378       ??_C@_1O@NDKPBNNH@?$AAs?$AAm?$AAa?$AA?9?$AAs?$AAe@ 00434378     Stdafx.obj
 0002:00005388       ??_C@_1O@PLLKBHAB@?$AAs?$AAm?$AAj?$AA?9?$AAn?$AAo@ 00434388     Stdafx.obj
 0002:00005398       ??_C@_1O@CLEPOGCA@?$AAs?$AAm?$AAj?$AA?9?$AAs?$AAe@ 00434398     Stdafx.obj
 0002:000053a8       ??_C@_1O@DLGJGKMK@?$AAs?$AAm?$AAn?$AA?9?$AAf?$AAi@ 004343a8     Stdafx.obj
 0002:000053b8       ??_C@_1O@OJDJGAJC@?$AAs?$AAm?$AAs?$AA?9?$AAf?$AAi@ 004343b8     Stdafx.obj
 0002:000053c8       ??_C@_1M@BOFOGHPB@?$AAs?$AAq?$AA?9?$AAa?$AAl@ 004343c8     Stdafx.obj
 0002:000053d8       ??_C@_1BG@LJBBIPGB@?$AAs?$AAr?$AA?9?$AAb?$AAa?$AA?9?$AAc?$AAy?$AAr?$AAl@ 004343d8     Stdafx.obj
 0002:000053f4       ??_C@_1BG@JLBENFOE@?$AAs?$AAr?$AA?9?$AAb?$AAa?$AA?9?$AAl?$AAa?$AAt?$AAn@ 004343f4     Stdafx.obj
 0002:00005410       ??_C@_1BG@KODPNHE@?$AAs?$AAr?$AA?9?$AAs?$AAp?$AA?9?$AAc?$AAy?$AAr?$AAl@ 00434410     Stdafx.obj
 0002:0000542c       ??_C@_1BG@CIOGKHPB@?$AAs?$AAr?$AA?9?$AAs?$AAp?$AA?9?$AAl?$AAa?$AAt?$AAn@ 0043442c     Stdafx.obj
 0002:00005448       ??_C@_1M@NGFJLMAC@?$AAs?$AAv?$AA?9?$AAf?$AAi@ 00434448     Stdafx.obj
 0002:00005458       ??_C@_1M@MPJEJAJC@?$AAs?$AAv?$AA?9?$AAs?$AAe@ 00434458     Stdafx.obj
 0002:00005468       ??_C@_1M@MPNDHLFK@?$AAs?$AAw?$AA?9?$AAk?$AAe@ 00434468     Stdafx.obj
 0002:00005478       ??_C@_1O@KOHBJJI@?$AAs?$AAy?$AAr?$AA?9?$AAs?$AAy@ 00434478     Stdafx.obj
 0002:00005488       ??_C@_1M@LDCEFHA@?$AAt?$AAa?$AA?9?$AAi?$AAn@ 00434488     Stdafx.obj
 0002:00005498       ??_C@_1M@CNJOFAK@?$AAt?$AAe?$AA?9?$AAi?$AAn@ 00434498     Stdafx.obj
 0002:000054a8       ??_C@_1M@GNAECACD@?$AAt?$AAh?$AA?9?$AAt?$AAh@ 004344a8     Stdafx.obj
 0002:000054b8       ??_C@_1M@CHBIHOJO@?$AAt?$AAn?$AA?9?$AAz?$AAa@ 004344b8     Stdafx.obj
 0002:000054c8       ??_C@_1M@GCCMIGPJ@?$AAt?$AAr?$AA?9?$AAt?$AAr@ 004344c8     Stdafx.obj
 0002:000054d8       ??_C@_1M@CELMCNBK@?$AAt?$AAt?$AA?9?$AAr?$AAu@ 004344d8     Stdafx.obj
 0002:000054e8       ??_C@_1M@KLMCELGA@?$AAu?$AAk?$AA?9?$AAu?$AAa@ 004344e8     Stdafx.obj
 0002:000054f8       ??_C@_1M@EPAJJAJF@?$AAu?$AAr?$AA?9?$AAp?$AAk@ 004344f8     Stdafx.obj
 0002:00005508       ??_C@_1BG@GEGPMCDJ@?$AAu?$AAz?$AA?9?$AAu?$AAz?$AA?9?$AAc?$AAy?$AAr?$AAl@ 00434508     Stdafx.obj
 0002:00005524       ??_C@_1BG@EGGKJILM@?$AAu?$AAz?$AA?9?$AAu?$AAz?$AA?9?$AAl?$AAa?$AAt?$AAn@ 00434524     Stdafx.obj
 0002:00005540       ??_C@_1M@GFOCLFF@?$AAv?$AAi?$AA?9?$AAv?$AAn@ 00434540     Stdafx.obj
 0002:00005550       ??_C@_1M@CPAMEDFI@?$AAx?$AAh?$AA?9?$AAz?$AAa@ 00434550     Stdafx.obj
 0002:00005560       ??_C@_1O@EBKIFIGN@?$AAz?$AAh?$AA?9?$AAc?$AAh?$AAs@ 00434560     Stdafx.obj
 0002:00005570       ??_C@_1O@NMHPGANE@?$AAz?$AAh?$AA?9?$AAc?$AAh?$AAt@ 00434570     Stdafx.obj
 0002:00005580       ??_C@_1M@LPINJOMC@?$AAz?$AAh?$AA?9?$AAc?$AAn@ 00434580     Stdafx.obj
 0002:00005590       ??_C@_1M@OCJEJODD@?$AAz?$AAh?$AA?9?$AAh?$AAk@ 00434590     Stdafx.obj
 0002:000055a0       ??_C@_1M@DNDLJINH@?$AAz?$AAh?$AA?9?$AAm?$AAo@ 004345a0     Stdafx.obj
 0002:000055b0       ??_C@_1M@MBFDNDND@?$AAz?$AAh?$AA?9?$AAs?$AAg@ 004345b0     Stdafx.obj
 0002:000055c0       ??_C@_1M@IMEPLEPE@?$AAz?$AAh?$AA?9?$AAt?$AAw@ 004345c0     Stdafx.obj
 0002:000055d0       ??_C@_1M@BBGHNHJP@?$AAz?$AAu?$AA?9?$AAz?$AAa@ 004345d0     Stdafx.obj
 0002:000055e0       ?szInvalidDateTime@ATL@@3QBDB 004345e0     Stdafx.obj
 0002:000055e4       ??_C@_0BB@KEKMKJPM@Invalid?5DateTime@ 004345e4     Stdafx.obj
 0002:000055f8       ?szInvalidDateTimeSpan@ATL@@3QBDB 004345f8     Stdafx.obj
 0002:000055fc       ??_C@_0BF@GPPHKJFN@Invalid?5DateTimeSpan@ 004345fc     Stdafx.obj
 0002:00005618       _CLSID_Registrar           00434618     Stdafx.obj
 0002:0000562c       _IID_IRegistrar            0043462c     Stdafx.obj
 0002:00005640       _IID_IDocHostUIHandlerDispatch 00434640     Stdafx.obj
 0002:00005654       _IID_IAxWinHostWindow      00434654     Stdafx.obj
 0002:00005668       _IID_IAxWinHostWindowLic   00434668     Stdafx.obj
 0002:0000567c       _IID_IAxWinAmbientDispatch 0043467c     Stdafx.obj
 0002:00005690       _IID_IAxWinAmbientDispatchEx 00434690     Stdafx.obj
 0002:000056a4       _IID_IInternalConnection   004346a4     Stdafx.obj
 0002:000056b8       _LIBID_ATLLib              004346b8     Stdafx.obj
 0002:000056cb       ?chDirSep@ATL@@3DB         004346cb     Stdafx.obj
 0002:000056cc       ?chRightBracket@ATL@@3DB   004346cc     Stdafx.obj
 0002:000056cd       ?chLeftBracket@ATL@@3DB    004346cd     Stdafx.obj
 0002:000056ce       ?chQuote@ATL@@3DB          004346ce     Stdafx.obj
 0002:000056cf       ?chEquals@ATL@@3DB         004346cf     Stdafx.obj
 0002:000056d0       ?szStringVal@ATL@@3QBDB    004346d0     Stdafx.obj
 0002:000056d4       ??_C@_01CPLAODJH@S@        004346d4     Stdafx.obj
 0002:000056d8       ?multiszStringVal@ATL@@3QBDB 004346d8     Stdafx.obj
 0002:000056dc       ??_C@_01PLPBNMEI@M@        004346dc     Stdafx.obj
 0002:000056e0       ?szDwordVal@ATL@@3QBDB     004346e0     Stdafx.obj
 0002:000056e4       ??_C@_01CKDDGHAB@D@        004346e4     Stdafx.obj
 0002:000056e8       ?szBinaryVal@ATL@@3QBDB    004346e8     Stdafx.obj
 0002:000056ec       ??_C@_01HMGJMAIH@B@        004346ec     Stdafx.obj
 0002:000056f0       ?szValToken@ATL@@3QBDB     004346f0     Stdafx.obj
 0002:000056f4       ??_C@_03LAIAPFCB@Val@      004346f4     Stdafx.obj
 0002:000056f8       ?szForceRemove@ATL@@3QBDB  004346f8     Stdafx.obj
 0002:000056fc       ??_C@_0M@DBGDLGLL@ForceRemove@ 004346fc     Stdafx.obj
 0002:0000570c       ?szNoRemove@ATL@@3QBDB     0043470c     Stdafx.obj
 0002:00005710       ??_C@_08KAAPDIAN@NoRemove@ 00434710     Stdafx.obj
 0002:0000571c       ?szDelete@ATL@@3QBDB       0043471c     Stdafx.obj
 0002:00005720       ??_C@_06JBKGCNBB@Delete@   00434720     Stdafx.obj
 0002:00005728       _c_DwmMaxQueuedBuffers     00434728     Stdafx.obj
 0002:0000572c       _c_DwmMaxMonitors          0043472c     Stdafx.obj
 0002:00005730       _c_DwmMaxAdapters          00434730     Stdafx.obj
 0002:00005734       ?CLSID_WinFormsControl@@3U_GUID@@B 00434734     Stdafx.obj
 0002:00005808       ??_C@_13COJANIEC@?$AA0@    00434808     Stdafx.obj
 0002:0000580c       ??_C@_0BA@MKMIKKJB@atlTraceGeneral@ 0043480c     Stdafx.obj
 0002:00005820       ??_C@_0M@DGPFJEBB@atlTraceCOM@ 00434820     Stdafx.obj
 0002:00005830       ??_C@_0L@LHELAKBP@atlTraceQI@ 00434830     Stdafx.obj
 0002:00005840       ??_C@_0BC@MALHFBAO@atlTraceRegistrar@ 00434840     Stdafx.obj
 0002:00005858       ??_C@_0BB@ILPPDKFL@atlTraceRefcount@ 00434858     Stdafx.obj
 0002:0000586c       ??_C@_0BC@DGHHNKDC@atlTraceWindowing@ 0043486c     Stdafx.obj
 0002:00005884       ??_C@_0BB@GHKJKKIE@atlTraceControls@ 00434884     Stdafx.obj
 0002:00005898       ??_C@_0BA@DKOAAGGM@atlTraceHosting@ 00434898     Stdafx.obj
 0002:000058ac       ??_C@_0BB@BEBMGMDO@atlTraceDBClient@ 004348ac     Stdafx.obj
 0002:000058c0       ??_C@_0BD@KOADKDIA@atlTraceDBProvider@ 004348c0     Stdafx.obj
 0002:000058d8       ??_C@_0P@LNEGBOLO@atlTraceSnapin@ 004348d8     Stdafx.obj
 0002:000058ec       ??_C@_0BA@MCBFIDIC@atlTraceNotImpl@ 004348ec     Stdafx.obj
 0002:00005900       ??_C@_0BD@PJPCCAKP@atlTraceAllocation@ 00434900     Stdafx.obj
 0002:00005918       ??_C@_0N@BNNILHBE@atlTraceTime@ 00434918     Stdafx.obj
 0002:00005928       ??_C@_0O@MEOJAOKK@atlTraceCache@ 00434928     Stdafx.obj
 0002:00005938       ??_C@_0BA@IDBKCKK@atlTraceStencil@ 00434938     Stdafx.obj
 0002:0000594c       ??_C@_0P@MBNHGHMI@atlTraceString@ 0043494c     Stdafx.obj
 0002:00005960       ??_C@_0M@IOBBMAHG@atlTraceMap@ 00434960     Stdafx.obj
 0002:00005970       ??_C@_0N@FEAAACHD@atlTraceUtil@ 00434970     Stdafx.obj
 0002:00005980       ??_C@_0BB@DNJDADMG@atlTraceSecurity@ 00434980     Stdafx.obj
 0002:00005994       ??_C@_0N@KLPNCFEE@atlTraceSync@ 00434994     Stdafx.obj
 0002:000059a4       ??_C@_0O@KHOBHOBJ@atlTraceISAPI@ 004349a4     Stdafx.obj
 0002:000059b8       ??_7CWin32Heap@ATL@@6B@    004349b8     Stdafx.obj
 0002:000059d0       ??_C@_1BG@CLPBKBHG@?$AAh?$AAH?$AAe?$AAa?$AAp?$AA?5?$AA?$CB?$AA?$DN?$AA?5?$AA0@ 004349d0     Stdafx.obj
 0002:000059f0       ??_C@_1OA@FNEDKMNI@?$AAc?$AA?3?$AA?2?$AAp?$AAr?$AAo?$AAg?$AAr?$AAa?$AAm?$AA?5?$AAf?$AAi?$AAl?$AAe@ 004349f0     Stdafx.obj
 0002:00005afc       ??_C@_1BC@PMINONJG@?$AAb?$AAS?$AAu?$AAc?$AAc?$AAe?$AAs?$AAs@ 00434afc     Stdafx.obj
 0002:00005b14       ??_C@_1BE@BLGCOAPB@?$AAn?$AAR?$AAe?$AAf?$AAs?$AA?5?$AA?$DO?$AA?5?$AA0@ 00434b14     Stdafx.obj
 0002:00005b30       ??_C@_1OI@LKICOBAJ@?$AAc?$AA?3?$AA?2?$AAp?$AAr?$AAo?$AAg?$AAr?$AAa?$AAm?$AA?5?$AAf?$AAi?$AAl?$AAe@ 00434b30     Stdafx.obj
 0002:00005c48       ??_C@_1CA@MEFFJNJ@?$AAp?$AAS?$AAt?$AAr?$AAi?$AAn?$AAg?$AAM?$AAg?$AAr?$AA?5?$AA?$DN?$AA?$DN?$AA?5?$AA0@ 00434c48     Stdafx.obj
 0002:00005c70       ??_C@_1OC@KJBACLGD@?$AAc?$AA?3?$AA?2?$AAp?$AAr?$AAo?$AAg?$AAr?$AAa?$AAm?$AA?5?$AAf?$AAi?$AAl?$AAe@ 00434c70     Stdafx.obj
 0002:00005d80       ??_C@_0HB@FHIMFEIJ@c?3?2program?5files?5?$CIx86?$CJ?2microsof@ 00434d80     Stdafx.obj
 0002:00005e08       ??_C@_0EA@EJEMLPD@ERROR?5?3?5Unable?5to?5initialize?5cr@ 00434e08     Stdafx.obj
 0002:00005e58       ??_C@_0ED@GFNHMOFC@ERROR?5?3?5Unable?5to?5initialize?5cr@ 00434e58     Stdafx.obj
 0002:00005eac       ??_7CAtlStringMgr@ATL@@6B@ 00434eac     Stdafx.obj
 0002:00005ed0       ??_C@_1OA@NFJNFLGL@?$AAc?$AA?3?$AA?2?$AAp?$AAr?$AAo?$AAg?$AAr?$AAa?$AAm?$AA?5?$AAf?$AAi?$AAl?$AAe@ 00434ed0     Stdafx.obj
 0002:00005fdc       ??_C@_1BG@IEBIBJEI@?$AAp?$AAD?$AAa?$AAt?$AAa?$AA?5?$AA?$CB?$AA?$DN?$AA?5?$AA0@ 00434fdc     Stdafx.obj
 0002:00005ff8       ??_C@_1DE@KEEBDKDC@?$AAp?$AAD?$AAa?$AAt?$AAa?$AA?9?$AA?$DO?$AAp?$AAS?$AAt?$AAr?$AAi?$AAn?$AAg?$AAM@ 00434ff8     Stdafx.obj
 0002:00006038       ??_C@_0GI@LKBGDILM@c?3?2program?5files?5?$CIx86?$CJ?2microsof@ 00435038     Stdafx.obj
 0002:000060b8       ??_C@_0GI@DJFLDKBN@c?3?2program?5files?5?$CIx86?$CJ?2microsof@ 004350b8     Stdafx.obj
 0002:00006134       ??_C@_0N@LPFKKEBD@?3AM?3am?3PM?3pm@ 00435134     Stdafx.obj
 0002:00006148       ??_C@_1EA@JHMKKLFC@?$AAn?$AAI?$AAn?$AAd?$AAe?$AAx?$AA?5?$AA?$DO?$AA?$DN?$AA?5?$AA0?$AA?5?$AA?$CG?$AA?$CG?$AA?5@ 00435148     Stdafx.obj
 0002:00006198       ??_C@_1OK@GILLOEON@?$AAc?$AA?3?$AA?2?$AAp?$AAr?$AAo?$AAg?$AAr?$AAa?$AAm?$AA?5?$AAf?$AAi?$AAl?$AAe@ 00435198     Stdafx.obj
 0002:000062b0       ??_C@_1BK@MHIKGOKE@?$AA?3?$AAA?$AAM?$AA?3?$AAa?$AAm?$AA?3?$AAP?$AAM?$AA?3?$AAp?$AAm@ 004352b0     Stdafx.obj
 0002:000062d0       ??_C@_0O@JKAFBCMB@CreateActCtxW@ 004352d0     mfcs140d:nolib.obj
 0002:000062e0       ??_C@_0P@CECBPMJL@ActivateActCtx@ 004352e0     mfcs140d:nolib.obj
 0002:000062f4       ??_C@_0BB@NPIOCCPF@DeactivateActCtx@ 004352f4     mfcs140d:nolib.obj
 0002:00006308       ??_C@_0BJ@MGNMALIC@FindActCtxSectionStringW@ 00435308     mfcs140d:nolib.obj
 0002:00006328       ??_C@_0N@IMINIHMJ@QueryActCtxW@ 00435328     mfcs140d:nolib.obj
 0002:00006338       ??_C@_0BD@GIGEJCNH@GetModuleHandleExW@ 00435338     mfcs140d:nolib.obj
 0002:00006350       ??_C@_1BK@BFMCNHEO@?$AAC?$AAo?$AAm?$AAc?$AAt?$AAl?$AA3?$AA2?$AA?4?$AAd?$AAl?$AAl@ 00435350     mfcs140d:nolib.obj
 0002:00006370       ?debugString@?4??IsolationAwarePrivatenPgViNgRzlnPgpgk@@9@4@4QBDB 00435370     mfcs140d:nolib.obj
 0002:000063b8       ?c@?1??WinbaseIsolationAwarePrivatetRgCebPnQQeRff_xReaRYQP_QYY@@9@4@4UIsolationAwarePrivate_pBAFGnAG_zBqHyr_vAsB@@B 004353b8     mfcs140d:nolib.obj
 0002:000063cc       ??_C@_1BK@EJBALEBG@?$AAK?$AAe?$AAr?$AAn?$AAe?$AAl?$AA3?$AA2?$AA?4?$AAd?$AAl?$AAl@ 004353cc     mfcs140d:nolib.obj
 0002:000063ec       ??_C@_0N@HAOHNMDE@Kernel32?4dll@ 004353ec     mfcs140d:nolib.obj
 0002:00006400       ??_C@_1IM@JDALAIMN@?$AAd?$AA?3?$AA?2?$AAa?$AAg?$AAe?$AAn?$AAt?$AA?2?$AA_?$AAw?$AAo?$AAr?$AAk?$AA?2@ 00435400     mfcs140d:nolib.obj
 0002:000064a8       ??_C@_1IM@OAKAGKEO@?$AAd?$AA?3?$AA?2?$AAa?$AAg?$AAe?$AAn?$AAt?$AA?2?$AA_?$AAw?$AAo?$AAr?$AAk?$AA?2@ 004354a8     mfcs140d:nolib.obj
 0002:00006550       ??_C@_1II@MFCNAHJH@?$AAd?$AA?3?$AA?2?$AAa?$AAg?$AAe?$AAn?$AAt?$AA?2?$AA_?$AAw?$AAo?$AAr?$AAk?$AA?2@ 00435550     mfcs140d:nolib.obj
 0002:000065f8       ??_C@_1JA@NMBLLECH@?$AAd?$AA?3?$AA?2?$AAa?$AAg?$AAe?$AAn?$AAt?$AA?2?$AA_?$AAw?$AAo?$AAr?$AAk?$AA?2@ 004355f8     mfcs140d:nolib.obj
 0002:000066a8       ??_C@_1IK@JPPFJKKH@?$AAd?$AA?3?$AA?2?$AAa?$AAg?$AAe?$AAn?$AAt?$AA?2?$AA_?$AAw?$AAo?$AAr?$AAk?$AA?2@ 004356a8     mfcs140d:nolib.obj
 0002:00006750       ??_C@_0EF@IPDELHHG@d?3?2agent?2_work?23?2s?2src?2vctools?2@ 00435750     mfcs140d:nolib.obj
 0002:000067a8       ??_C@_1II@ENPDPACE@?$AAd?$AA?3?$AA?2?$AAa?$AAg?$AAe?$AAn?$AAt?$AA?2?$AA_?$AAw?$AAo?$AAr?$AAk?$AA?2@ 004357a8     mfcs140d:nolib.obj
 0002:00006850       ??_C@_1JC@HILNCOCD@?$AAd?$AA?3?$AA?2?$AAa?$AAg?$AAe?$AAn?$AAt?$AA?2?$AA_?$AAw?$AAo?$AAr?$AAk?$AA?2@ 00435850     mfcs140d:nolib.obj
 0002:00006904       ??_7type_info@@6B@         00435904     msvcrtd:std_type_info_static.obj
 0002:000069b0       ??_C@_1EC@JIJBPKFM@?$AAa?$AAp?$AAi?$AA?9?$AAm?$AAs?$AA?9?$AAw?$AAi?$AAn?$AA?9?$AAc?$AAo?$AAr?$AAe@ 004359b0     msvcrtd:thread_safe_statics.obj
 0002:00006a00       ??_C@_1BK@MGMFAEKH@?$AAk?$AAe?$AAr?$AAn?$AAe?$AAl?$AA3?$AA2?$AA?4?$AAd?$AAl?$AAl@ 00435a00     msvcrtd:thread_safe_statics.obj
 0002:00006a20       ??_C@_0BM@HLJJNPAH@InitializeConditionVariable@ 00435a20     msvcrtd:thread_safe_statics.obj
 0002:00006a44       ??_C@_0BJ@JEBJOJFJ@SleepConditionVariableCS@ 00435a44     msvcrtd:thread_safe_statics.obj
 0002:00006a64       ??_C@_0BJ@PGPPEPCC@WakeAllConditionVariable@ 00435a64     msvcrtd:thread_safe_statics.obj
 0002:00006a88       ??_C@_1JM@MEGLFHBK@?$AAd?$AA?3?$AA?2?$AAa?$AAg?$AAe?$AAn?$AAt?$AA?2?$AA_?$AAw?$AAo?$AAr?$AAk?$AA?2@ 00435a88     msvcrtd:thread_safe_statics.obj
 0002:00006c10       ??_C@_0NN@NGPKDKPD@The?5value?5of?5ESP?5was?5not?5proper@ 00435c10     msvcrtd:error.obj
 0002:00006d20       ??_C@_0BBN@GPMLNJCF@A?5cast?5to?5a?5smaller?5data?5type?5h@ 00435d20     msvcrtd:error.obj
 0002:00006e78       ??_C@_0BN@FFOINMNJ@Stack?5memory?5was?5corrupted?6?$AN@ 00435e78     msvcrtd:error.obj
 0002:00006e9c       ??_C@_0DG@HKJMLLLP@A?5local?5variable?5was?5used?5befor@ 00435e9c     msvcrtd:error.obj
 0002:00006edc       ??_C@_0CM@NGINOKPC@Stack?5memory?5around?5_alloca?5was@ 00435edc     msvcrtd:error.obj
 0002:00006f10       ??_C@_0BO@GNIAFIKK@Unknown?5Runtime?5Check?5Error?6?$AN@ 00435f10     msvcrtd:error.obj
 0002:00006f38       ??_C@_1GM@OLMCBDMB@?$AAR?$AAu?$AAn?$AAt?$AAi?$AAm?$AAe?$AA?5?$AAC?$AAh?$AAe?$AAc?$AAk?$AA?5?$AAE@ 00435f38     msvcrtd:error.obj
 0002:00006fc0       ??_C@_1EA@NFKNIFJP@?$AAR?$AAu?$AAn?$AA?9?$AAT?$AAi?$AAm?$AAe?$AA?5?$AAC?$AAh?$AAe?$AAc?$AAk?$AA?5@ 00435fc0     msvcrtd:error.obj
 0002:0000700c       ??_C@_0BB@PFFGGCJP@Unknown?5Filename@ 0043600c     msvcrtd:error.obj
 0002:00007020       ??_C@_0BE@GNBOBNCK@Unknown?5Module?5Name@ 00436020     msvcrtd:error.obj
 0002:00007038       ??_C@_0CA@IODNCDPG@Run?9Time?5Check?5Failure?5?$CD?$CFd?5?9?5?$CFs@ 00436038     msvcrtd:error.obj
 0002:00007060       ??_C@_0CG@IAFNJNEE@Stack?5corrupted?5near?5unknown?5va@ 00436060     msvcrtd:error.obj
 0002:00007090       ??_C@_05MKKEDADM@?$CF?42X?5@ 00436090     msvcrtd:error.obj
 0002:00007098       ??_C@_0EJ@LJKNEOLN@Stack?5area?5around?5_alloca?5memor@ 00436098     msvcrtd:error.obj
 0002:000070f0       ??_C@_02LLMPMKNF@?$DO?5@   004360f0     msvcrtd:error.obj
 0002:000070f4       ??_C@_08OMAHNMHJ@?6Data?3?5?$DM@ 004360f4     msvcrtd:error.obj
 0002:00007100       ??_C@_0CK@DKGBICFE@?6Allocation?5number?5within?5this?5@ 00436100     msvcrtd:error.obj
 0002:00007134       ??_C@_07DFDJCKFN@?6Size?3?5@ 00436134     msvcrtd:error.obj
 0002:00007140       ??_C@_0N@MHFFIMFG@?6Address?3?50x@ 00436140     msvcrtd:error.obj
 0002:00007150       ??_C@_0EI@CLEPFNGI@Stack?5area?5around?5_alloca?5memor@ 00436150     msvcrtd:error.obj
 0002:000071a8       ??_C@_0BK@ODNDAGKB@?$CFs?$CFs?$CFp?$CFs?$CFzd?$CFs?$CFd?$CFs?$CFs?$CFs?$CFs?$CFs@ 004361a8     msvcrtd:error.obj
 0002:000071c8       ??_C@_0DE@OHJBPMBP@A?5variable?5is?5being?5used?5withou@ 004361c8     msvcrtd:error.obj
 0002:00007220       ??_C@_0BJ@HEGAHDFO@Stack?5pointer?5corruption@ 00436220     msvcrtd:userapi.obj
 0002:00007240       ??_C@_0CK@FEGOIOPB@Cast?5to?5smaller?5type?5causing?5lo@ 00436240     msvcrtd:userapi.obj
 0002:00007274       ??_C@_0BI@CIGMDCBH@Stack?5memory?5corruption@ 00436274     msvcrtd:userapi.obj
 0002:00007290       ??_C@_0CK@CNLNOEPB@Local?5variable?5used?5before?5init@ 00436290     msvcrtd:userapi.obj
 0002:000072c4       ??_C@_0BP@OGBCLIBO@Stack?5around?5_alloca?5corrupted@ 004362c4     msvcrtd:userapi.obj
 0002:00007348       ??_C@_1EI@MLPKHBGE@?$AAa?$AAp?$AAi?$AA?9?$AAm?$AAs?$AA?9?$AAw?$AAi?$AAn?$AA?9?$AAc?$AAo?$AAr?$AAe@ 00436348     msvcrtd:pdblkup.obj
 0002:000073a0       ??_C@_1BK@JHLNAEJL@?$AAa?$AAd?$AAv?$AAa?$AAp?$AAi?$AA3?$AA2?$AA?4?$AAd?$AAl?$AAl@ 004363a0     msvcrtd:pdblkup.obj
 0002:000073c0       ??_C@_0O@COHOBMLB@RegOpenKeyExW@ 004363c0     msvcrtd:pdblkup.obj
 0002:000073d0       ??_C@_0BB@GLNAEDBD@RegQueryValueExW@ 004363d0     msvcrtd:pdblkup.obj
 0002:000073e4       ??_C@_0M@HLOHPNFA@RegCloseKey@ 004363e4     msvcrtd:pdblkup.obj
 0002:000073f8       ??_C@_1HE@EBEAGLFB@?$AAS?$AAO?$AAF?$AAT?$AAW?$AAA?$AAR?$AAE?$AA?2?$AAW?$AAo?$AAw?$AA6?$AA4?$AA3@ 004363f8     msvcrtd:pdblkup.obj
 0002:00007484       ??_C@_1BG@EABPBLLF@?$AAP?$AAr?$AAo?$AAd?$AAu?$AAc?$AAt?$AAD?$AAi?$AAr@ 00436484     msvcrtd:pdblkup.obj
 0002:000074c4       ??_C@_1BC@JINFINNJ@?$AAM?$AAS?$AAP?$AAD?$AAB?$AA1?$AA4?$AA0@ 004364c4     msvcrtd:pdblkup.obj
 0002:000074dc       ??_C@_0BB@KCIACLNC@PDBOpenValidate5@ 004364dc     msvcrtd:pdblkup.obj
 0002:000074f0       ??_C@_01KDCPPGHE@r@        004364f0     msvcrtd:pdblkup.obj
 0002:000074f4       _GUID_ATLVer30             004364f4     atls:atlbase.obj
 0002:00007508       _GUID_ATLVer70             00436508     atls:atlbase.obj
 0002:0000751c       _GUID_ATLVer100            0043651c     atls:atlbase.obj
 0002:00007530       _GUID_ATLVer110            00436530     atls:atlbase.obj
 0002:00007548       ??_C@_1IC@ONKHOIDK@?$AAE?$AAR?$AAR?$AAO?$AAR?$AA?5?$AA?3?$AA?5?$AAU?$AAn?$AAa?$AAb?$AAl?$AAe?$AA?5@ 00436548     atls:atlbase.obj
 0002:000075e4       ?chDirSep@ATL@@3_WB        004365e4     atls:stdafx.obj
 0002:000075e8       ?chRightBracket@ATL@@3_WB  004365e8     atls:stdafx.obj
 0002:000075ec       ?chLeftBracket@ATL@@3_WB   004365ec     atls:stdafx.obj
 0002:000075f0       ?chQuote@ATL@@3_WB         004365f0     atls:stdafx.obj
 0002:000075f4       ?chEquals@ATL@@3_WB        004365f4     atls:stdafx.obj
 0002:000075f8       ?szStringVal@ATL@@3QB_WB   004365f8     atls:stdafx.obj
 0002:000075fc       ??_C@_13HADIAKP@?$AAS@     004365fc     atls:stdafx.obj
 0002:00007600       ?multiszStringVal@ATL@@3QB_WB 00436600     atls:stdafx.obj
 0002:00007604       ??_C@_13LHMFKAAD@?$AAM@    00436604     atls:stdafx.obj
 0002:00007608       ?szDwordVal@ATL@@3QB_WB    00436608     atls:stdafx.obj
 0002:0000760c       ??_C@_13MKMNOPIJ@?$AAD@    0043660c     atls:stdafx.obj
 0002:00007610       ?szBinaryVal@ATL@@3QB_WB   00436610     atls:stdafx.obj
 0002:00007614       ??_C@_13OPKGLAFF@?$AAB@    00436614     atls:stdafx.obj
 0002:00007618       ?szValToken@ATL@@3QB_WB    00436618     atls:stdafx.obj
 0002:0000761c       ??_C@_17LLMMEOJD@?$AAV?$AAa?$AAl@ 0043661c     atls:stdafx.obj
 0002:00007628       ?szForceRemove@ATL@@3QB_WB 00436628     atls:stdafx.obj
 0002:0000762c       ??_C@_1BI@JFAIJMHL@?$AAF?$AAo?$AAr?$AAc?$AAe?$AAR?$AAe?$AAm?$AAo?$AAv?$AAe@ 0043662c     atls:stdafx.obj
 0002:00007648       ?szNoRemove@ATL@@3QB_WB    00436648     atls:stdafx.obj
 0002:0000764c       ??_C@_1BC@GCKHIPE@?$AAN?$AAo?$AAR?$AAe?$AAm?$AAo?$AAv?$AAe@ 0043664c     atls:stdafx.obj
 0002:00007664       ?szDelete@ATL@@3QB_WB      00436664     atls:stdafx.obj
 0002:00007668       ??_C@_1O@JDLOHAN@?$AAD?$AAe?$AAl?$AAe?$AAt?$AAe@ 00436668     atls:stdafx.obj
 0002:00007678       ??_C@_0EI@MGNJBIB@d?3?2agent?2_work?23?2s?2src?2vctools?2@ 00436678     mfcs140d:appmodul.obj
 0002:00007708       __load_config_used         00436708     msvcrtd:loadcfg.obj
 0002:00007b30       __tls_used                 00436b30     msvcrtd:tlssup.obj
 0002:00007c4c       ??_R4IUnknownEx@@6B@       00436c4c     AttemperEngineSink.obj
 0002:00007c64       ??_R3IUnknownEx@@8         00436c64     AttemperEngineSink.obj
 0002:00007c78       ??_R2IUnknownEx@@8         00436c78     AttemperEngineSink.obj
 0002:00007c80       ??_R1A@?0A@EA@IUnknownEx@@8 00436c80     AttemperEngineSink.obj
 0002:00007ca4       ??_R4IAttemperEngineSink@@6B@ 00436ca4     AttemperEngineSink.obj
 0002:00007cbc       ??_R3IAttemperEngineSink@@8 00436cbc     AttemperEngineSink.obj
 0002:00007cd0       ??_R2IAttemperEngineSink@@8 00436cd0     AttemperEngineSink.obj
 0002:00007cdc       ??_R1A@?0A@EA@IAttemperEngineSink@@8 00436cdc     AttemperEngineSink.obj
 0002:00007d00       ??_R4?$CWHArray@PAUtagSystemMessage@@ABQAU1@@@6B@ 00436d00     AttemperEngineSink.obj
 0002:00007d18       ??_R3?$CWHArray@PAUtagSystemMessage@@ABQAU1@@@8 00436d18     AttemperEngineSink.obj
 0002:00007d2c       ??_R2?$CWHArray@PAUtagSystemMessage@@ABQAU1@@@8 00436d2c     AttemperEngineSink.obj
 0002:00007d34       ??_R1A@?0A@EA@?$CWHArray@PAUtagSystemMessage@@ABQAU1@@@8 00436d34     AttemperEngineSink.obj
 0002:00007d58       ??_R4CAttemperEngineSink@@6B@ 00436d58     AttemperEngineSink.obj
 0002:00007d70       ??_R3CAttemperEngineSink@@8 00436d70     AttemperEngineSink.obj
 0002:00007d84       ??_R2CAttemperEngineSink@@8 00436d84     AttemperEngineSink.obj
 0002:00007d94       ??_R1A@?0A@EA@CAttemperEngineSink@@8 00436d94     AttemperEngineSink.obj
 0002:00007db8       ??_R1A@?0A@EA@CObject@@8   00436db8     ChatServer.obj
 0002:00007ddc       ??_R3CObject@@8            00436ddc     ChatServer.obj
 0002:00007df0       ??_R2CObject@@8            00436df0     ChatServer.obj
 0002:00007df8       ??_R1A@?0A@EA@CCmdTarget@@8 00436df8     ChatServer.obj
 0002:00007e1c       ??_R3CCmdTarget@@8         00436e1c     ChatServer.obj
 0002:00007e30       ??_R2CCmdTarget@@8         00436e30     ChatServer.obj
 0002:00007e3c       ??_R4CChatServerApp@@6B@   00436e3c     ChatServer.obj
 0002:00007e54       ??_R3CChatServerApp@@8     00436e54     ChatServer.obj
 0002:00007e68       ??_R2CChatServerApp@@8     00436e68     ChatServer.obj
 0002:00007e84       ??_R1A@?0A@EA@CChatServerApp@@8 00436e84     ChatServer.obj
 0002:00007ea8       ??_R1A@?0A@EA@CWinApp@@8   00436ea8     ChatServer.obj
 0002:00007ecc       ??_R3CWinApp@@8            00436ecc     ChatServer.obj
 0002:00007ee0       ??_R2CWinApp@@8            00436ee0     ChatServer.obj
 0002:00007ef4       ??_R1A@?0A@EA@CWinThread@@8 00436ef4     ChatServer.obj
 0002:00007f18       ??_R3CWinThread@@8         00436f18     ChatServer.obj
 0002:00007f2c       ??_R2CWinThread@@8         00436f2c     ChatServer.obj
 0002:00007f3c       ??_R1A@?0A@EA@CDialog@@8   00436f3c     ChatServerDlg.obj
 0002:00007f60       ??_R3CDialog@@8            00436f60     ChatServerDlg.obj
 0002:00007f74       ??_R2CDialog@@8            00436f74     ChatServerDlg.obj
 0002:00007f88       ??_R1A@?0A@EA@CWnd@@8      00436f88     ChatServerDlg.obj
 0002:00007fac       ??_R3CWnd@@8               00436fac     ChatServerDlg.obj
 0002:00007fc0       ??_R2CWnd@@8               00436fc0     ChatServerDlg.obj
 0002:00007fd0       ??_R4CInitParameter@@6B@   00436fd0     ChatServerDlg.obj
 0002:00007fe8       ??_R3CInitParameter@@8     00436fe8     ChatServerDlg.obj
 0002:00007ffc       ??_R2CInitParameter@@8     00436ffc     ChatServerDlg.obj
 0002:00008004       ??_R1A@?0A@EA@CInitParameter@@8 00437004     ChatServerDlg.obj
 0002:00008028       ??_R4IServiceUnitsSink@@6B@ 00437028     ChatServerDlg.obj
 0002:00008040       ??_R3IServiceUnitsSink@@8  00437040     ChatServerDlg.obj
 0002:00008054       ??_R2IServiceUnitsSink@@8  00437054     ChatServerDlg.obj
 0002:0000805c       ??_R1A@?0A@EA@IServiceUnitsSink@@8 0043705c     ChatServerDlg.obj
 0002:00008080       ??_R4CChatServerDlg@@6BCDialog@@@ 00437080     ChatServerDlg.obj
 0002:00008098       ??_R3CChatServerDlg@@8     00437098     ChatServerDlg.obj
 0002:000080ac       ??_R2CChatServerDlg@@8     004370ac     ChatServerDlg.obj
 0002:000080cc       ??_R1A@?0A@EA@CChatServerDlg@@8 004370cc     ChatServerDlg.obj
 0002:000080f0       ??_R1KI@?0A@EA@IServiceUnitsSink@@8 004370f0     ChatServerDlg.obj
 0002:00008114       ??_R4CChatServerDlg@@6BIServiceUnitsSink@@@ 00437114     ChatServerDlg.obj
 0002:0000812c       ??_R4CDataBaseHelper@@6B@  0043712c     DataBaseEngineSink.obj
 0002:00008144       ??_R3CDataBaseHelper@@8    00437144     DataBaseEngineSink.obj
 0002:00008158       ??_R2CDataBaseHelper@@8    00437158     DataBaseEngineSink.obj
 0002:00008164       ??_R1A@?0A@EA@CDataBaseHelper@@8 00437164     DataBaseEngineSink.obj
 0002:00008188       ??_R1A@?0A@EA@?$CTempldateHelper@UIDataBase@@@@8 00437188     DataBaseEngineSink.obj
 0002:000081ac       ??_R3?$CTempldateHelper@UIDataBase@@@@8 004371ac     DataBaseEngineSink.obj
 0002:000081c0       ??_R2?$CTempldateHelper@UIDataBase@@@@8 004371c0     DataBaseEngineSink.obj
 0002:000081c8       ??_R4?$CTempldateHelper@UIDataBase@@@@6B@ 004371c8     DataBaseEngineSink.obj
 0002:000081e0       ??_R4IDataBaseEngineSink@@6B@ 004371e0     DataBaseEngineSink.obj
 0002:000081f8       ??_R3IDataBaseEngineSink@@8 004371f8     DataBaseEngineSink.obj
 0002:0000820c       ??_R2IDataBaseEngineSink@@8 0043720c     DataBaseEngineSink.obj
 0002:00008218       ??_R1A@?0A@EA@IDataBaseEngineSink@@8 00437218     DataBaseEngineSink.obj
 0002:0000823c       ??_R4CDataBaseEngineSink@@6B@ 0043723c     DataBaseEngineSink.obj
 0002:00008254       ??_R3CDataBaseEngineSink@@8 00437254     DataBaseEngineSink.obj
 0002:00008268       ??_R2CDataBaseEngineSink@@8 00437268     DataBaseEngineSink.obj
 0002:00008278       ??_R1A@?0A@EA@CDataBaseEngineSink@@8 00437278     DataBaseEngineSink.obj
 0002:0000829c       ??_R4Cltladistance@@6B@    0043729c     ServerUserManager.obj
 0002:000082b4       ??_R3Cltladistance@@8      004372b4     ServerUserManager.obj
 0002:000082c8       ??_R2Cltladistance@@8      004372c8     ServerUserManager.obj
 0002:000082d0       ??_R1A@?0A@EA@Cltladistance@@8 004372d0     ServerUserManager.obj
 0002:000082f4       ??_R4CServerUserItem@@6B@  004372f4     ServerUserManager.obj
 0002:0000830c       ??_R3CServerUserItem@@8    0043730c     ServerUserManager.obj
 0002:00008320       ??_R2CServerUserItem@@8    00437320     ServerUserManager.obj
 0002:00008328       ??_R1A@?0A@EA@CServerUserItem@@8 00437328     ServerUserManager.obj
 0002:0000834c       ??_R4CServerUserManager@@6B@ 0043734c     ServerUserManager.obj
 0002:00008364       ??_R3CServerUserManager@@8 00437364     ServerUserManager.obj
 0002:00008378       ??_R2CServerUserManager@@8 00437378     ServerUserManager.obj
 0002:00008380       ??_R1A@?0A@EA@CServerUserManager@@8 00437380     ServerUserManager.obj
 0002:000083a4       ??_R4CLocalUserItem@@6B@   004373a4     ServerUserManager.obj
 0002:000083bc       ??_R3CLocalUserItem@@8     004373bc     ServerUserManager.obj
 0002:000083d0       ??_R2CLocalUserItem@@8     004373d0     ServerUserManager.obj
 0002:000083dc       ??_R1A@?0A@EA@CLocalUserItem@@8 004373dc     ServerUserManager.obj
 0002:00008400       ??_R4?$CWHArray@PAVCServerUserItem@@ABQAV1@@@6B@ 00437400     ServerUserManager.obj
 0002:00008418       ??_R3?$CWHArray@PAVCServerUserItem@@ABQAV1@@@8 00437418     ServerUserManager.obj
 0002:0000842c       ??_R2?$CWHArray@PAVCServerUserItem@@ABQAV1@@@8 0043742c     ServerUserManager.obj
 0002:00008434       ??_R1A@?0A@EA@?$CWHArray@PAVCServerUserItem@@ABQAV1@@@8 00437434     ServerUserManager.obj
 0002:00008458       ??_R4?$CMap@KKPAVCServerUserItem@@PAV1@@@6B@ 00437458     ServerUserManager.obj
 0002:00008470       ??_R3?$CMap@KKPAVCServerUserItem@@PAV1@@@8 00437470     ServerUserManager.obj
 0002:00008484       ??_R2?$CMap@KKPAVCServerUserItem@@PAV1@@@8 00437484     ServerUserManager.obj
 0002:00008490       ??_R1A@?0A@EA@?$CMap@KKPAVCServerUserItem@@PAV1@@@8 00437490     ServerUserManager.obj
 0002:000084b4       ??_R4?$CWHArray@PAUtagNearUserInfo@@ABQAU1@@@6B@ 004374b4     ServerUserManager.obj
 0002:000084cc       ??_R3?$CWHArray@PAUtagNearUserInfo@@ABQAU1@@@8 004374cc     ServerUserManager.obj
 0002:000084e0       ??_R2?$CWHArray@PAUtagNearUserInfo@@ABQAU1@@@8 004374e0     ServerUserManager.obj
 0002:000084e8       ??_R1A@?0A@EA@?$CWHArray@PAUtagNearUserInfo@@ABQAU1@@@8 004374e8     ServerUserManager.obj
 0002:0000850c       ??_R4CNearUserManager@@6B@ 0043750c     ServerUserManager.obj
 0002:00008524       ??_R3CNearUserManager@@8   00437524     ServerUserManager.obj
 0002:00008538       ??_R2CNearUserManager@@8   00437538     ServerUserManager.obj
 0002:00008540       ??_R1A@?0A@EA@CNearUserManager@@8 00437540     ServerUserManager.obj
 0002:00008564       ??_R4CUserFriendGroup@@6B@ 00437564     ServerUserManager.obj
 0002:0000857c       ??_R3CUserFriendGroup@@8   0043757c     ServerUserManager.obj
 0002:00008590       ??_R2CUserFriendGroup@@8   00437590     ServerUserManager.obj
 0002:00008598       ??_R1A@?0A@EA@CUserFriendGroup@@8 00437598     ServerUserManager.obj
 0002:000085bc       ??_R4CFriendGroupManager@@6B@ 004375bc     ServerUserManager.obj
 0002:000085d4       ??_R3CFriendGroupManager@@8 004375d4     ServerUserManager.obj
 0002:000085e8       ??_R2CFriendGroupManager@@8 004375e8     ServerUserManager.obj
 0002:000085f0       ??_R1A@?0A@EA@CFriendGroupManager@@8 004375f0     ServerUserManager.obj
 0002:00008614       ??_R4?$CWHArray@PAVCUserFriendGroup@@ABQAV1@@@6B@ 00437614     ServerUserManager.obj
 0002:0000862c       ??_R3?$CWHArray@PAVCUserFriendGroup@@ABQAV1@@@8 0043762c     ServerUserManager.obj
 0002:00008640       ??_R2?$CWHArray@PAVCUserFriendGroup@@ABQAV1@@@8 00437640     ServerUserManager.obj
 0002:00008648       ??_R1A@?0A@EA@?$CWHArray@PAVCUserFriendGroup@@ABQAV1@@@8 00437648     ServerUserManager.obj
 0002:0000866c       ??_R4?$CMap@KKPAVCUserFriendGroup@@PAV1@@@6B@ 0043766c     ServerUserManager.obj
 0002:00008684       ??_R3?$CMap@KKPAVCUserFriendGroup@@PAV1@@@8 00437684     ServerUserManager.obj
 0002:00008698       ??_R2?$CMap@KKPAVCUserFriendGroup@@PAV1@@@8 00437698     ServerUserManager.obj
 0002:000086a4       ??_R1A@?0A@EA@?$CMap@KKPAVCUserFriendGroup@@PAV1@@@8 004376a4     ServerUserManager.obj
 0002:000086c8       ??_R4CTimerEngineHelper@@6B@ 004376c8     ServiceUnits.obj
 0002:000086e0       ??_R3CTimerEngineHelper@@8 004376e0     ServiceUnits.obj
 0002:000086f4       ??_R2CTimerEngineHelper@@8 004376f4     ServiceUnits.obj
 0002:00008700       ??_R1A@?0A@EA@CTimerEngineHelper@@8 00437700     ServiceUnits.obj
 0002:00008724       ??_R1A@?0A@EA@?$CTempldateHelper@UITimerEngine@@@@8 00437724     ServiceUnits.obj
 0002:00008748       ??_R3?$CTempldateHelper@UITimerEngine@@@@8 00437748     ServiceUnits.obj
 0002:0000875c       ??_R2?$CTempldateHelper@UITimerEngine@@@@8 0043775c     ServiceUnits.obj
 0002:00008764       ??_R4?$CTempldateHelper@UITimerEngine@@@@6B@ 00437764     ServiceUnits.obj
 0002:0000877c       ??_R4CDataBaseEngineHelper@@6B@ 0043777c     ServiceUnits.obj
 0002:00008794       ??_R3CDataBaseEngineHelper@@8 00437794     ServiceUnits.obj
 0002:000087a8       ??_R2CDataBaseEngineHelper@@8 004377a8     ServiceUnits.obj
 0002:000087b4       ??_R1A@?0A@EA@CDataBaseEngineHelper@@8 004377b4     ServiceUnits.obj
 0002:000087d8       ??_R1A@?0A@EA@?$CTempldateHelper@UIDataBaseEngine@@@@8 004377d8     ServiceUnits.obj
 0002:000087fc       ??_R3?$CTempldateHelper@UIDataBaseEngine@@@@8 004377fc     ServiceUnits.obj
 0002:00008810       ??_R2?$CTempldateHelper@UIDataBaseEngine@@@@8 00437810     ServiceUnits.obj
 0002:00008818       ??_R4?$CTempldateHelper@UIDataBaseEngine@@@@6B@ 00437818     ServiceUnits.obj
 0002:00008830       ??_R4CAttemperEngineHelper@@6B@ 00437830     ServiceUnits.obj
 0002:00008848       ??_R3CAttemperEngineHelper@@8 00437848     ServiceUnits.obj
 0002:0000885c       ??_R2CAttemperEngineHelper@@8 0043785c     ServiceUnits.obj
 0002:00008868       ??_R1A@?0A@EA@CAttemperEngineHelper@@8 00437868     ServiceUnits.obj
 0002:0000888c       ??_R1A@?0A@EA@?$CTempldateHelper@UIAttemperEngine@@@@8 0043788c     ServiceUnits.obj
 0002:000088b0       ??_R3?$CTempldateHelper@UIAttemperEngine@@@@8 004378b0     ServiceUnits.obj
 0002:000088c4       ??_R2?$CTempldateHelper@UIAttemperEngine@@@@8 004378c4     ServiceUnits.obj
 0002:000088cc       ??_R4?$CTempldateHelper@UIAttemperEngine@@@@6B@ 004378cc     ServiceUnits.obj
 0002:000088e4       ??_R4CTCPSocketServiceHelper@@6B@ 004378e4     ServiceUnits.obj
 0002:000088fc       ??_R3CTCPSocketServiceHelper@@8 004378fc     ServiceUnits.obj
 0002:00008910       ??_R2CTCPSocketServiceHelper@@8 00437910     ServiceUnits.obj
 0002:0000891c       ??_R1A@?0A@EA@CTCPSocketServiceHelper@@8 0043791c     ServiceUnits.obj
 0002:00008940       ??_R1A@?0A@EA@?$CTempldateHelper@UITCPSocketService@@@@8 00437940     ServiceUnits.obj
 0002:00008964       ??_R3?$CTempldateHelper@UITCPSocketService@@@@8 00437964     ServiceUnits.obj
 0002:00008978       ??_R2?$CTempldateHelper@UITCPSocketService@@@@8 00437978     ServiceUnits.obj
 0002:00008980       ??_R4?$CTempldateHelper@UITCPSocketService@@@@6B@ 00437980     ServiceUnits.obj
 0002:00008998       ??_R4CTCPNetworkEngineHelper@@6B@ 00437998     ServiceUnits.obj
 0002:000089b0       ??_R3CTCPNetworkEngineHelper@@8 004379b0     ServiceUnits.obj
 0002:000089c4       ??_R2CTCPNetworkEngineHelper@@8 004379c4     ServiceUnits.obj
 0002:000089d0       ??_R1A@?0A@EA@CTCPNetworkEngineHelper@@8 004379d0     ServiceUnits.obj
 0002:000089f4       ??_R1A@?0A@EA@?$CTempldateHelper@UITCPNetworkEngine@@@@8 004379f4     ServiceUnits.obj
 0002:00008a18       ??_R3?$CTempldateHelper@UITCPNetworkEngine@@@@8 00437a18     ServiceUnits.obj
 0002:00008a2c       ??_R2?$CTempldateHelper@UITCPNetworkEngine@@@@8 00437a2c     ServiceUnits.obj
 0002:00008a34       ??_R4?$CTempldateHelper@UITCPNetworkEngine@@@@6B@ 00437a34     ServiceUnits.obj
 0002:00008a4c       ??_R4CServiceUnits@@6B@    00437a4c     ServiceUnits.obj
 0002:00008a64       ??_R3CServiceUnits@@8      00437a64     ServiceUnits.obj
 0002:00008a78       ??_R2CServiceUnits@@8      00437a78     ServiceUnits.obj
 0002:00008a8c       ??_R1A@?0A@EA@CServiceUnits@@8 00437a8c     ServiceUnits.obj
 0002:00008ab0       ??_R4CWin32Heap@ATL@@6B@   00437ab0     Stdafx.obj
 0002:00008ac8       ??_R3CWin32Heap@ATL@@8     00437ac8     Stdafx.obj
 0002:00008adc       ??_R2CWin32Heap@ATL@@8     00437adc     Stdafx.obj
 0002:00008ae8       ??_R1A@?0A@EA@CWin32Heap@ATL@@8 00437ae8     Stdafx.obj
 0002:00008b0c       ??_R1A@?0A@EA@IAtlMemMgr@ATL@@8 00437b0c     Stdafx.obj
 0002:00008b30       ??_R3IAtlMemMgr@ATL@@8     00437b30     Stdafx.obj
 0002:00008b44       ??_R2IAtlMemMgr@ATL@@8     00437b44     Stdafx.obj
 0002:00008b4c       ??_R1A@?0A@EA@IAtlStringMgr@ATL@@8 00437b4c     Stdafx.obj
 0002:00008b70       ??_R3IAtlStringMgr@ATL@@8  00437b70     Stdafx.obj
 0002:00008b84       ??_R2IAtlStringMgr@ATL@@8  00437b84     Stdafx.obj
 0002:00008b8c       ??_R4CAtlStringMgr@ATL@@6B@ 00437b8c     Stdafx.obj
 0002:00008ba4       ??_R3CAtlStringMgr@ATL@@8  00437ba4     Stdafx.obj
 0002:00008bb8       ??_R2CAtlStringMgr@ATL@@8  00437bb8     Stdafx.obj
 0002:00008bc4       ??_R1A@?0A@EA@CAtlStringMgr@ATL@@8 00437bc4     Stdafx.obj
 0002:00008be8       ??_R4type_info@@6B@        00437be8     msvcrtd:std_type_info_static.obj
 0002:00008c00       ??_R3type_info@@8          00437c00     msvcrtd:std_type_info_static.obj
 0002:00008c14       ??_R2type_info@@8          00437c14     msvcrtd:std_type_info_static.obj
 0002:00008c1c       ??_R1A@?0A@EA@type_info@@8 00437c1c     msvcrtd:std_type_info_static.obj
 0002:00008db0       ___safe_se_handler_table   00437db0     <linker-defined>
 0002:000091a0       ___rtc_iaa                 004381a0     msvcrtd:initsect.obj
 0002:000093b4       ___rtc_izz                 004383b4     msvcrtd:initsect.obj
 0002:000094b8       ___rtc_taa                 004384b8     msvcrtd:initsect.obj
 0002:000096cc       ___rtc_tzz                 004386cc     msvcrtd:initsect.obj
 0002:0000a918       __TI2PAD                   00439918     ServerUserManager.obj
 0002:0000a92c       __CTA2PAD                  0043992c     ServerUserManager.obj
 0002:0000a93c       __CT??_R0PAD@84            0043993c     ServerUserManager.obj
 0002:0000a95c       __CT??_R0PAX@84            0043995c     ServerUserManager.obj
 0002:0000b320       ___pobjMapEntryFirst       0043a320     Stdafx.obj
 0002:0000b424       ___pobjMapEntryLast        0043a424     Stdafx.obj
 0003:00000000       ?__LINE__Var@?0??AddPacket@CSendPacketHelper@@QAE_NPAXGG@Z@4JA 0043b000     AttemperEngineSink.obj
 0003:0000006c       ?__LINE__Var@?0???1CAttemperEngineSink@@UAE@XZ@4JA 0043b06c     AttemperEngineSink.obj
 0003:00000070       ?__LINE__Var@?0??OnAttemperEngineStart@CAttemperEngineSink@@UAE_NPAUIUnknownEx@@@Z@4JA 0043b070     AttemperEngineSink.obj
 0003:00000074       ?__LINE__Var@?0??OnAttemperEngineConclude@CAttemperEngineSink@@UAE_NPAUIUnknownEx@@@Z@4JA 0043b074     AttemperEngineSink.obj
 0003:00000078       ?__LINE__Var@?0??OnEventTimer@CAttemperEngineSink@@UAE_NKI@Z@4JA 0043b078     AttemperEngineSink.obj
 0003:0000007c       ?__LINE__Var@?0??OnEventTCPSocketLink@CAttemperEngineSink@@UAE_NGH@Z@4JA 0043b07c     AttemperEngineSink.obj
 0003:00000080       ?__LINE__Var@?0??OnEventTCPSocketShut@CAttemperEngineSink@@UAE_NGE@Z@4JA 0043b080     AttemperEngineSink.obj
 0003:00000084       ?__LINE__Var@?0??OnEventTCPSocketSubUserStatus@CAttemperEngineSink@@IAE_NPAXG@Z@4JA 0043b084     AttemperEngineSink.obj
 0003:00000088       ?__LINE__Var@?0??OnEventTCPNetworkBind@CAttemperEngineSink@@UAE_NKK@Z@4JA 0043b088     AttemperEngineSink.obj
 0003:0000008c       ?__LINE__Var@?0??OnTCPNetworkSubMBLogonByUserID@CAttemperEngineSink@@IAE_NPAXGK@Z@4JA 0043b08c     AttemperEngineSink.obj
 0003:00000090       ?__LINE__Var@?0??OnTCPNetworkSubApplyForFriend@CAttemperEngineSink@@IAE_NPAXGK@Z@4JA 0043b090     AttemperEngineSink.obj
 0003:00000094       ?__LINE__Var@?0??OnTCPNetworkSubRespondFriend@CAttemperEngineSink@@IAE_NPAXGK@Z@4JA 0043b094     AttemperEngineSink.obj
 0003:00000098       ?__LINE__Var@?0??OnTCPNetworkSubRoomInvite@CAttemperEngineSink@@IAE_NPAXGK@Z@4JA 0043b098     AttemperEngineSink.obj
 0003:0000009c       ?__LINE__Var@?0??OnTCPNetworkSubInvitePersonal@CAttemperEngineSink@@IAE_NPAXGK@Z@4JA 0043b09c     AttemperEngineSink.obj
 0003:000000a0       ?__LINE__Var@?0??OnTCPNetworkSubUserChat@CAttemperEngineSink@@IAE_NPAXGK@Z@4JA 0043b0a0     AttemperEngineSink.obj
 0003:000000a4       ?__LINE__Var@?0??OnTCPNetworkSubSearchUser@CAttemperEngineSink@@IAE_NPAXGK@Z@4JA 0043b0a4     AttemperEngineSink.obj
 0003:000000a8       ?__LINE__Var@?0??OnTCPNetworkSubTrumpet@CAttemperEngineSink@@IAE_NPAXGK@Z@4JA 0043b0a8     AttemperEngineSink.obj
 0003:000000ac       ?__LINE__Var@?0??OnTCPNetworkDeleteFriend@CAttemperEngineSink@@IAE_NPAXGK@Z@4JA 0043b0ac     AttemperEngineSink.obj
 0003:000000b0       ?__LINE__Var@?0??OnTCPNetworkUpdateCoordinate@CAttemperEngineSink@@IAE_NPAXGK@Z@4JA 0043b0b0     AttemperEngineSink.obj
 0003:000000b4       ?__LINE__Var@?0??OnTCPNetworkGetNearuser@CAttemperEngineSink@@IAE_NPAXGK@Z@4JA 0043b0b4     AttemperEngineSink.obj
 0003:000000b8       ?__LINE__Var@?0??OnTCPNetworkQueryNearuser@CAttemperEngineSink@@IAE_NPAXGK@Z@4JA 0043b0b8     AttemperEngineSink.obj
 0003:000000bc       ?__LINE__Var@?0??OnTCPNetworkSubUserShare@CAttemperEngineSink@@IAE_NPAXGK@Z@4JA 0043b0bc     AttemperEngineSink.obj
 0003:000000c0       ?__LINE__Var@?0??SendDataToUserFriend@CAttemperEngineSink@@IAE_NKGGPAXG@Z@4JA 0043b0c0     AttemperEngineSink.obj
 0003:000000c4       ?__LINE__Var@?0??GetBindUserItem@CAttemperEngineSink@@IAEPAVCServerUserItem@@G@Z@4JA 0043b0c4     AttemperEngineSink.obj
 0003:000000c8       ?__LINE__Var@?0??GetBindParameter@CAttemperEngineSink@@IAEPAUtagBindParameter@@G@Z@4JA 0043b0c8     AttemperEngineSink.obj
 0003:000000cc       ?__LINE__Var@?0??OnDBLogonSuccess@CAttemperEngineSink@@IAE_NKPAXG@Z@4JA 0043b0cc     AttemperEngineSink.obj
 0003:000000d0       ?__LINE__Var@?0??OnDBLoadUserGroup@CAttemperEngineSink@@IAE_NKPAXG@Z@4JA 0043b0d0     AttemperEngineSink.obj
 0003:000000d4       ?__LINE__Var@?0??OnDBLoadUserFriend@CAttemperEngineSink@@IAE_NKPAXG@Z@4JA 0043b0d4     AttemperEngineSink.obj
 0003:000000d8       ?__LINE__Var@?0??OnDBLoadUserRemarksInfo@CAttemperEngineSink@@IAE_NKPAXG@Z@4JA 0043b0d8     AttemperEngineSink.obj
 0003:000000dc       ?__LINE__Var@?0??OnDBLoadUserSimpleIndividual@CAttemperEngineSink@@IAE_NKPAXG@Z@4JA 0043b0dc     AttemperEngineSink.obj
 0003:000000e0       ?__LINE__Var@?0??OnDBLoadUserOfflineMessage@CAttemperEngineSink@@IAE_NKPAXG@Z@4JA 0043b0e0     AttemperEngineSink.obj
 0003:000000e4       ?__LINE__Var@?0??OnDBLoadDeleteFriend@CAttemperEngineSink@@IAE_NKPAXG@Z@4JA 0043b0e4     AttemperEngineSink.obj
 0003:000000e8       ?__LINE__Var@?0??OnDBSearchUserResult@CAttemperEngineSink@@IAE_NKPAXG@Z@4JA 0043b0e8     AttemperEngineSink.obj
 0003:000000ec       ?__LINE__Var@?0??OnDBUserAddFriend@CAttemperEngineSink@@IAE_NKPAXG@Z@4JA 0043b0ec     AttemperEngineSink.obj
 0003:000000f0       ?__LINE__Var@?0??OnDBTrumpetResult@CAttemperEngineSink@@IAE_NKPAXG@Z@4JA 0043b0f0     AttemperEngineSink.obj
 0003:000000f4       ?__LINE__Var@?0??OnDBUserOperateResult@CAttemperEngineSink@@IAE_NKPAXG@Z@4JA 0043b0f4     AttemperEngineSink.obj
 0003:000000f8       ?__LINE__Var@?0??OnDBSystemMessage@CAttemperEngineSink@@IAE_NKPAXG@Z@4JA 0043b0f8     AttemperEngineSink.obj
 0003:000000fc       ?__LINE__Var@?0??StartServerService@CChatServerDlg@@IAE_NG@Z@4JA 0043b0fc     ChatServerDlg.obj
 0003:00000100       ?__LINE__Var@?0??OnBnClickedStartService@CChatServerDlg@@IAEXXZ@4JA 0043b100     ChatServerDlg.obj
 0003:00000104       ?__LINE__Var@?0??OnBnClickedStopService@CChatServerDlg@@IAEXXZ@4JA 0043b104     ChatServerDlg.obj
 0003:00000108       ?m_nCategory@CTrace@ATL@@1IA 0043b108     DataBaseEngineSink.obj
 0003:0000010c       ?__LINE__Var@?0??AtlThrowImpl@ATL@@YGXJ@Z@4JA 0043b10c     DataBaseEngineSink.obj
 0003:00000110       ?__LINE__Var@?0???0CTime@ATL@@QAE@HHHHHHH@Z@4JA 0043b110     DataBaseEngineSink.obj
 0003:0000017c       ?__LINE__Var@?0??OnDataBaseEngineStart@CDataBaseEngineSink@@UAE_NPAUIUnknownEx@@@Z@4JA 0043b17c     DataBaseEngineSink.obj
 0003:00000180       ?__LINE__Var@?0??OnDataBaseEngineRequest@CDataBaseEngineSink@@UAE_NGKPAXG@Z@4JA 0043b180     DataBaseEngineSink.obj
 0003:00000184       ?__LINE__Var@?0??OnRequestLogonUserID@CDataBaseEngineSink@@IAE_NKPAXG@Z@4JA 0043b184     DataBaseEngineSink.obj
 0003:00000188       ?__LINE__Var@?0??OnRequestModifyFriend@CDataBaseEngineSink@@IAE_NKPAXG@Z@4JA 0043b188     DataBaseEngineSink.obj
 0003:0000018c       ?__LINE__Var@?0??OnRequestAddFriend@CDataBaseEngineSink@@IAE_NKPAXG@Z@4JA 0043b18c     DataBaseEngineSink.obj
 0003:00000190       ?__LINE__Var@?0??OnRequestDeleteFriend@CDataBaseEngineSink@@IAE_NKPAXG@Z@4JA 0043b190     DataBaseEngineSink.obj
 0003:00000194       ?__LINE__Var@?0??OnRequestModifyGroup@CDataBaseEngineSink@@IAE_NKPAXG@Z@4JA 0043b194     DataBaseEngineSink.obj
 0003:00000198       ?__LINE__Var@?0??OnRequestModifyRemarks@CDataBaseEngineSink@@IAE_NKPAXG@Z@4JA 0043b198     DataBaseEngineSink.obj
 0003:0000019c       ?__LINE__Var@?0??OnRequestSearchUser@CDataBaseEngineSink@@IAE_NKPAXG@Z@4JA 0043b19c     DataBaseEngineSink.obj
 0003:000001a0       ?__LINE__Var@?0??OnRequestUpdatePlaceName@CDataBaseEngineSink@@IAE_NKPAXG@Z@4JA 0043b1a0     DataBaseEngineSink.obj
 0003:000001a4       ?__LINE__Var@?0??OnRequestSaveOfflineMessage@CDataBaseEngineSink@@IAE_NKPAXG@Z@4JA 0043b1a4     DataBaseEngineSink.obj
 0003:000001a8       ?__LINE__Var@?0??OnRequestTrumpet@CDataBaseEngineSink@@IAE_NKPAXG@Z@4JA 0043b1a8     DataBaseEngineSink.obj
 0003:000001ac       ?__LINE__Var@?0??ContrastNickName@CLocalUserItem@@UAE_NPBD@Z@4JA 0043b1ac     ServerUserManager.obj
 0003:000001b0       ?__LINE__Var@?0??ContrastLogonPass@CLocalUserItem@@UAE_NPBD@Z@4JA 0043b1b0     ServerUserManager.obj
 0003:000001b4       ?__LINE__Var@?0???1CUserFriendGroup@@UAE@XZ@4JA 0043b1b4     ServerUserManager.obj
 0003:000001b8       ?__LINE__Var@?0??AppendFriendInfo@CUserFriendGroup@@QAE_NAAUtagServerFriendInfo@@@Z@4JA 0043b1b8     ServerUserManager.obj
 0003:000001bc       ?__LINE__Var@?0??RemoveFriendInfo@CUserFriendGroup@@QAE_NK@Z@4JA 0043b1bc     ServerUserManager.obj
 0003:000001c0       ?__LINE__Var@?0??AllocateContent@CUserFriendGroup@@AAEPAUtagServerFriendInfo@@G@Z@4JA 0043b1c0     ServerUserManager.obj
 0003:000001c4       ?__LINE__Var@?0??ExtendGroupContent@CUserFriendGroup@@AAE_NG@Z@4JA 0043b1c4     ServerUserManager.obj
 0003:000001c8       ?__LINE__Var@?0???1CServerUserManager@@UAE@XZ@4JA 0043b1c8     ServerUserManager.obj
 0003:000001cc       ?__LINE__Var@?0??DeleteUserItem@CServerUserManager@@UAE_NK@Z@4JA 0043b1cc     ServerUserManager.obj
 0003:000001d0       ?__LINE__Var@?0??InsertLocalUserItem@CServerUserManager@@UAE_NAAUtagInsertLocalUserInfo@@AAUtagFriendUserInfo@@PBD@Z@4JA 0043b1d0     ServerUserManager.obj
 0003:000001d4       ?__LINE__Var@?0???1CFriendGroupManager@@UAE@XZ@4JA 0043b1d4     ServerUserManager.obj
 0003:000001d8       ?__LINE__Var@?0??DeleteFriendGroup@CFriendGroupManager@@UAE_NK@Z@4JA 0043b1d8     ServerUserManager.obj
 0003:000001dc       ?__LINE__Var@?0??ActiveFriendGroup@CFriendGroupManager@@QAEPAVCUserFriendGroup@@G@Z@4JA 0043b1dc     ServerUserManager.obj
 0003:000001e0       ?__LINE__Var@?0???1CNearUserManager@@UAE@XZ@4JA 0043b1e0     ServerUserManager.obj
 0003:000001e4       ?__LINE__Var@?0??InsertNearUserItem@CNearUserManager@@UAE_NAAUtagNearUserInfo@@@Z@4JA 0043b1e4     ServerUserManager.obj
 0003:00000244       ?__LINE__Var@?0???0CServiceUnits@@QAE@XZ@4JA 0043b244     ServiceUnits.obj
 0003:00000248       ?__LINE__Var@?0??PostControlRequest@CServiceUnits@@QAE_NGPAXG@Z@4JA 0043b248     ServiceUnits.obj
 0003:0000024c       ?__LINE__Var@?0??StartService@CServiceUnits@@QAE_NXZ@4JA 0043b24c     ServiceUnits.obj
 0003:00000250       ?__LINE__Var@?0??StartKernelService@CServiceUnits@@IAE_NXZ@4JA 0043b250     ServiceUnits.obj
 0003:00000254       ?__LINE__Var@?0??StartNetworkService@CServiceUnits@@IAE_NXZ@4JA 0043b254     ServiceUnits.obj
 0003:00000258       ?__LINE__Var@?0??SetServiceStatus@CServiceUnits@@AAE_NW4enServiceStatus@@@Z@4JA 0043b258     ServiceUnits.obj
 0003:0000025c       ?__LINE__Var@?0??SendControlPacket@CServiceUnits@@AAE_NGPAXG@Z@4JA 0043b25c     ServiceUnits.obj
 0003:00000260       ?__LINE__Var@?0??OnUIControlRequest@CServiceUnits@@IAEJIJ@Z@4JA 0043b260     ServiceUnits.obj
 0003:00000264       __pIncludeInitManaged      0043b264     Stdafx.obj
 0003:00000268       ?__LINE__Var@?0??AtlWinModuleInit@ATL@@YGJPAU_ATL_WIN_MODULE70@2@@Z@4JA 0043b268     Stdafx.obj
 0003:0000026c       ?__LINE__Var@?0??_Maklocwcs@std@@YAPA_WPB_W@Z@4JA 0043b26c     Stdafx.obj
 0003:00000270       _WinbaseIsolationAwarePrivateT_UnPgpgk 0043b270     mfcs140d:nolib.obj
 0003:00000280       ___security_cookie_complement 0043b280     msvcrtd:gs_cookie.obj
 0003:00000284       ___security_cookie         0043b284     msvcrtd:gs_cookie.obj
 0003:0000028c       __fltused                  0043b28c     msvcrtd:fltused.obj
 0003:00000290       ___scrt_native_dllmain_reason 0043b290     msvcrtd:utility.obj
 0003:000002a0       __Init_global_epoch        0043b2a0     msvcrtd:thread_safe_statics.obj
 0003:000002a4       ___isa_enabled             0043b2a4     msvcrtd:cpu_disp.obj
 0003:000002a8       ___scrt_default_matherr    0043b2a8     msvcrtd:matherr.obj
 0003:000002ac       ?_RTC_ErrorLevels@@3PAHA   0043b2ac     msvcrtd:error.obj
 0003:000002c4       ___scrt_ucrt_dll_is_in_use 0043b2c4     msvcrtd:ucrt_stubs.obj
 0003:00000418       ??_R0?AUIUnknownEx@@@8     0043b418     AttemperEngineSink.obj
 0003:00000438       ??_R0?AUIAttemperEngineSink@@@8 0043b438     AttemperEngineSink.obj
 0003:00000460       ??_R0?AV?$CWHArray@PAUtagSystemMessage@@ABQAU1@@@@8 0043b460     AttemperEngineSink.obj
 0003:000004a0       ??_R0?AVCAttemperEngineSink@@@8 0043b4a0     AttemperEngineSink.obj
 0003:000004c8       ??_R0?AVCObject@@@8        0043b4c8     ChatServer.obj
 0003:000004e4       ??_R0?AVCCmdTarget@@@8     0043b4e4     ChatServer.obj
 0003:00000504       ??_R0?AVCChatServerApp@@@8 0043b504     ChatServer.obj
 0003:00000528       ??_R0?AVCWinApp@@@8        0043b528     ChatServer.obj
 0003:00000544       ??_R0?AVCWinThread@@@8     0043b544     ChatServer.obj
 0003:00000564       ??_R0?AVCDialog@@@8        0043b564     ChatServerDlg.obj
 0003:00000580       ??_R0?AVCWnd@@@8           0043b580     ChatServerDlg.obj
 0003:00000598       ??_R0?AVCInitParameter@@@8 0043b598     ChatServerDlg.obj
 0003:000005bc       ??_R0?AUIServiceUnitsSink@@@8 0043b5bc     ChatServerDlg.obj
 0003:000005e4       ??_R0?AVCChatServerDlg@@@8 0043b5e4     ChatServerDlg.obj
 0003:00000608       ??_R0?AVCDataBaseHelper@@@8 0043b608     DataBaseEngineSink.obj
 0003:0000062c       ??_R0?AV?$CTempldateHelper@UIDataBase@@@@@8 0043b62c     DataBaseEngineSink.obj
 0003:00000664       ??_R0PAUIDataBaseException@@@8 0043b664     DataBaseEngineSink.obj
 0003:0000068c       ??_R0PAD@8                 0043b68c     DataBaseEngineSink.obj
 0003:0000069c       ??_R0?AUIDataBaseEngineSink@@@8 0043b69c     DataBaseEngineSink.obj
 0003:000006c4       ??_R0?AVCDataBaseEngineSink@@@8 0043b6c4     DataBaseEngineSink.obj
 0003:000006ec       ??_R0PAX@8                 0043b6ec     ServerUserManager.obj
 0003:000006fc       ??_R0?AVCltladistance@@@8  0043b6fc     ServerUserManager.obj
 0003:00000720       ??_R0?AVCServerUserItem@@@8 0043b720     ServerUserManager.obj
 0003:00000744       ??_R0?AVCServerUserManager@@@8 0043b744     ServerUserManager.obj
 0003:0000076c       ??_R0?AVCLocalUserItem@@@8 0043b76c     ServerUserManager.obj
 0003:00000790       ??_R0?AV?$CWHArray@PAVCServerUserItem@@ABQAV1@@@@8 0043b790     ServerUserManager.obj
 0003:000007d0       ??_R0?AV?$CMap@KKPAVCServerUserItem@@PAV1@@@@8 0043b7d0     ServerUserManager.obj
 0003:0000080c       ??_R0?AV?$CWHArray@PAUtagNearUserInfo@@ABQAU1@@@@8 0043b80c     ServerUserManager.obj
 0003:0000084c       ??_R0?AVCNearUserManager@@@8 0043b84c     ServerUserManager.obj
 0003:00000874       ??_R0?AVCUserFriendGroup@@@8 0043b874     ServerUserManager.obj
 0003:0000089c       ??_R0?AVCFriendGroupManager@@@8 0043b89c     ServerUserManager.obj
 0003:000008c4       ??_R0?AV?$CWHArray@PAVCUserFriendGroup@@ABQAV1@@@@8 0043b8c4     ServerUserManager.obj
 0003:00000904       ??_R0?AV?$CMap@KKPAVCUserFriendGroup@@PAV1@@@@8 0043b904     ServerUserManager.obj
 0003:00000940       ??_R0?AVCTimerEngineHelper@@@8 0043b940     ServiceUnits.obj
 0003:00000968       ??_R0?AV?$CTempldateHelper@UITimerEngine@@@@@8 0043b968     ServiceUnits.obj
 0003:000009a4       ??_R0?AVCDataBaseEngineHelper@@@8 0043b9a4     ServiceUnits.obj
 0003:000009d0       ??_R0?AV?$CTempldateHelper@UIDataBaseEngine@@@@@8 0043b9d0     ServiceUnits.obj
 0003:00000a10       ??_R0?AVCAttemperEngineHelper@@@8 0043ba10     ServiceUnits.obj
 0003:00000a3c       ??_R0?AV?$CTempldateHelper@UIAttemperEngine@@@@@8 0043ba3c     ServiceUnits.obj
 0003:00000a7c       ??_R0?AVCTCPSocketServiceHelper@@@8 0043ba7c     ServiceUnits.obj
 0003:00000aac       ??_R0?AV?$CTempldateHelper@UITCPSocketService@@@@@8 0043baac     ServiceUnits.obj
 0003:00000aec       ??_R0?AVCTCPNetworkEngineHelper@@@8 0043baec     ServiceUnits.obj
 0003:00000b1c       ??_R0?AV?$CTempldateHelper@UITCPNetworkEngine@@@@@8 0043bb1c     ServiceUnits.obj
 0003:00000b5c       ??_R0?AVCServiceUnits@@@8  0043bb5c     ServiceUnits.obj
 0003:00000b80       ??_R0?AVCWin32Heap@ATL@@@8 0043bb80     Stdafx.obj
 0003:00000ba4       ??_R0?AUIAtlMemMgr@ATL@@@8 0043bba4     Stdafx.obj
 0003:00000bc8       ??_R0?AUIAtlStringMgr@ATL@@@8 0043bbc8     Stdafx.obj
 0003:00000bf0       ??_R0?AVCAtlStringMgr@ATL@@@8 0043bbf0     Stdafx.obj
 0003:00000c18       ??_R0?AVtype_info@@@8      0043bc18     msvcrtd:std_type_info_static.obj
 0003:00000d60       ?_OptionsStorage@?1??__local_stdio_printf_options@@9@4_KA 0043bd60     AttemperEngineSink.obj
 0003:00000d70       ?theApp@@3VCChatServerApp@@A 0043bd70     ChatServer.obj
 0003:00000e64       ?atlTraceException@ATL@@3V?$CTraceCategoryEx@$0CAAA@$0A@@1@A 0043be64     DataBaseEngineSink.obj
 0003:00000e68       ?m_nLevel@CTrace@ATL@@1IA  0043be68     DataBaseEngineSink.obj
 0003:00000e6c       ?m_nLastCategory@CTrace@ATL@@1IA 0043be6c     DataBaseEngineSink.obj
 0003:00000e70       ?m_nMap@CTrace@ATL@@1PAUCategoryMap@12@A 0043be70     DataBaseEngineSink.obj
 0003:00003570       ?g_pServiceUnits@CServiceUnits@@2PAV1@A 0043e570     ServiceUnits.obj
 0003:00003574       ?_pPerfRegFunc@ATL@@3P6AJPAUHINSTANCE__@@@ZA 0043e574     Stdafx.obj
 0003:00003578       ?_pPerfUnRegFunc@ATL@@3P6AJXZA 0043e578     Stdafx.obj
 0003:0000357c       ?_AtlRegisterPerUser@ATL@@3_NA 0043e57c     Stdafx.obj
 0003:00003580       ?_pAtlModule@ATL@@3PAVCAtlModule@1@A 0043e580     Stdafx.obj
 0003:00003584       ?_pModule@ATL@@3PAVCComModule@1@A 0043e584     Stdafx.obj
 0003:00003588       ?_pAtlAutoThreadModule@ATL@@3PAUIAtlAutoThreadModule@1@A 0043e588     Stdafx.obj
 0003:0000358c       ___@@_PchSym_@00@UKlsKomKqyKlsKroKqzUszkkbtznvdsUKltKqnKrmKluKrpKpyKlsKpoKpkUKlvKorKpmKlqKqsKovKlsKqoKplKluKomKquUKlrKryKrpKluKpvKpqKltKqnKrmKluKrpKpyKluKqqKprUwvyftPzmhrUhgwzucOlyq@4B2008FD98C1DD4 0043e58c     Stdafx.obj
 0003:00003590       ?atlTraceGeneral@ATL@@3V?$CTraceCategoryEx@$00$0A@@1@A 0043e590     Stdafx.obj
 0003:00003594       ?atlTraceCOM@ATL@@3V?$CTraceCategoryEx@$01$0A@@1@A 0043e594     Stdafx.obj
 0003:00003598       ?atlTraceQI@ATL@@3V?$CTraceCategoryEx@$03$0A@@1@A 0043e598     Stdafx.obj
 0003:0000359c       ?atlTraceRegistrar@ATL@@3V?$CTraceCategoryEx@$07$0A@@1@A 0043e59c     Stdafx.obj
 0003:000035a0       ?atlTraceRefcount@ATL@@3V?$CTraceCategoryEx@$0BA@$0A@@1@A 0043e5a0     Stdafx.obj
 0003:000035a4       ?atlTraceWindowing@ATL@@3V?$CTraceCategoryEx@$0CA@$0A@@1@A 0043e5a4     Stdafx.obj
 0003:000035a8       ?atlTraceControls@ATL@@3V?$CTraceCategoryEx@$0EA@$0A@@1@A 0043e5a8     Stdafx.obj
 0003:000035ac       ?atlTraceHosting@ATL@@3V?$CTraceCategoryEx@$0IA@$0A@@1@A 0043e5ac     Stdafx.obj
 0003:000035b0       ?atlTraceDBClient@ATL@@3V?$CTraceCategoryEx@$0BAA@$0A@@1@A 0043e5b0     Stdafx.obj
 0003:000035b4       ?atlTraceDBProvider@ATL@@3V?$CTraceCategoryEx@$0CAA@$0A@@1@A 0043e5b4     Stdafx.obj
 0003:000035b8       ?atlTraceSnapin@ATL@@3V?$CTraceCategoryEx@$0EAA@$0A@@1@A 0043e5b8     Stdafx.obj
 0003:000035bc       ?atlTraceNotImpl@ATL@@3V?$CTraceCategoryEx@$0IAA@$0A@@1@A 0043e5bc     Stdafx.obj
 0003:000035c0       ?atlTraceAllocation@ATL@@3V?$CTraceCategoryEx@$0BAAA@$0A@@1@A 0043e5c0     Stdafx.obj
 0003:000035c4       ?atlTraceTime@ATL@@3V?$CTraceCategoryEx@$0EAAA@$0A@@1@A 0043e5c4     Stdafx.obj
 0003:000035c8       ?atlTraceCache@ATL@@3V?$CTraceCategoryEx@$0IAAA@$0A@@1@A 0043e5c8     Stdafx.obj
 0003:000035cc       ?atlTraceStencil@ATL@@3V?$CTraceCategoryEx@$0BAAAA@$0A@@1@A 0043e5cc     Stdafx.obj
 0003:000035d0       ?atlTraceString@ATL@@3V?$CTraceCategoryEx@$0CAAAA@$0A@@1@A 0043e5d0     Stdafx.obj
 0003:000035d4       ?atlTraceMap@ATL@@3V?$CTraceCategoryEx@$0EAAAA@$0A@@1@A 0043e5d4     Stdafx.obj
 0003:000035d8       ?atlTraceUtil@ATL@@3V?$CTraceCategoryEx@$0IAAAA@$0A@@1@A 0043e5d8     Stdafx.obj
 0003:000035dc       ?atlTraceSecurity@ATL@@3V?$CTraceCategoryEx@$0BAAAAA@$0A@@1@A 0043e5dc     Stdafx.obj
 0003:000035e0       ?atlTraceSync@ATL@@3V?$CTraceCategoryEx@$0CAAAAA@$0A@@1@A 0043e5e0     Stdafx.obj
 0003:000035e4       ?atlTraceISAPI@ATL@@3V?$CTraceCategoryEx@$0EAAAAA@$0A@@1@A 0043e5e4     Stdafx.obj
 0003:000035e8       ?m_bInitFailed@CAtlBaseModule@ATL@@2_NA 0043e5e8     Stdafx.obj
 0003:000035ec       ?_AtlComModule@ATL@@3VCAtlComModule@1@A 0043e5ec     Stdafx.obj
 0003:0000361c       ?_AtlWinModule@ATL@@3VCAtlWinModule@1@A 0043e61c     Stdafx.obj
 0003:00003650       ?strHeap@?1??GetInstance@CAtlStringMgr@ATL@@SAPAUIAtlStringMgr@3@XZ@4VCWin32Heap@3@A 0043e650     Stdafx.obj
 0003:00003660       ?$TSS0@?1??GetInstance@CAtlStringMgr@ATL@@SAPAUIAtlStringMgr@3@XZ@4HA 0043e660     Stdafx.obj
 0003:00003664       ?strMgr@?1??GetInstance@CAtlStringMgr@ATL@@SAPAUIAtlStringMgr@3@XZ@4V23@A 0043e664     Stdafx.obj
 0003:00003688       ?$TSS1@?1??GetInstance@CAtlStringMgr@ATL@@SAPAUIAtlStringMgr@3@XZ@4HA 0043e688     Stdafx.obj
 0003:0000368c       ?InitializeCAtlStringMgr@ATLImplementationDetails@ATL@@3UCAtlStringMgrStaticInitializer@12@A 0043e68c     Stdafx.obj
 0003:00003690       __afxForceEXCLUDE          0043e690     mfcs140d:nolib.obj
 0003:00003694       _IsolationAwarePrivateT_SqbjaYRiRY 0043e694     mfcs140d:nolib.obj
 0003:00003698       _IsolationAwarePrivateT_SAbnPgpgk 0043e698     mfcs140d:nolib.obj
 0003:0000369c       _WinbaseIsolationAwarePrivateT_SpeRNgRQnPgpgk 0043e69c     mfcs140d:nolib.obj
 0003:000036a0       _WinbaseIsolationAwarePrivateT_SpYRNahcpNYYRQ 0043e6a0     mfcs140d:nolib.obj
 0003:000036a4       ?s_pfn@?1??IsolationAwareCreateActCtxW@@9@4@4P6GPAXPBUtagACTCTXW@@@ZA 0043e6a4     mfcs140d:nolib.obj
 0003:000036a8       ?s_pfn@?1??IsolationAwareActivateActCtx@@9@8@4P6GHPAXPAK@ZA 0043e6a8     mfcs140d:nolib.obj
 0003:000036ac       ?s_pfn@?1??IsolationAwareDeactivateActCtx@@9@8@4P6GHKK@ZA 0043e6ac     mfcs140d:nolib.obj
 0003:000036b0       ?s_pfn@?1??IsolationAwareFindActCtxSectionStringW@@9@20@4P6GHKPBU_GUID@@KPB_WPAUtagACTCTX_SECTION_KEYED_DATA@@@ZA 0043e6b0     mfcs140d:nolib.obj
 0003:000036b4       ?s_pfn@?1??IsolationAwareQueryActCtxW@@9@28@4P6GHKPAX0K0KPAK@ZA 0043e6b4     mfcs140d:nolib.obj
 0003:000036b8       ?m@?1??WinbaseIsolationAwarePrivatetRgCebPnQQeRff_xReaRYQP_QYY@@9@4@4UIsolationAwarePrivate_zHGnoyr_zBqHyr_vAsB@@A 0043e6b8     mfcs140d:nolib.obj
 0003:000036bc       ??_B?1??GetInstance@CAtlStringMgr@ATL@@SAPAUIAtlStringMgr@2@XZ@51 0043e6bc     mfcs140d:nolib.obj
 0003:000036c0       __afxForceSTDAFX           0043e6c0     mfcs140d:stdafx.obj
 0003:000036c4       ___scrt_current_native_startup_state 0043e6c4     msvcrtd:utility.obj
 0003:000036c8       ___scrt_native_startup_lock 0043e6c8     msvcrtd:utility.obj
 0003:00003720       __tls_index                0043e720     msvcrtd:tlssup.obj
 0003:00003ae4       ___isa_available           0043eae4     msvcrtd:cpu_disp.obj
 0003:00003ae8       ___favor                   0043eae8     msvcrtd:cpu_disp.obj
 0003:00003af0       ___scrt_debugger_hook_flag 0043eaf0     msvcrtd:utility_desktop.obj
 0003:00003af8       ?__type_info_root_node@@3U__type_info_node@@A 0043eaf8     msvcrtd:tncleanup.obj
 0003:00003b08       ?_OptionsStorage@?1??__local_stdio_scanf_options@@9@4_KA 0043eb08     msvcrtd:default_local_stdio_options.obj
 0003:00003b28       ?_AtlBaseModule@ATL@@3VCAtlBaseModule@1@A 0043eb28     atls:atlbase.obj
 0003:00003b6c       ___@@_PchSym_@00@UztvmgUPdlipUDUhUrmgvinvwrzgvUexgllohUzgohOmzgrevkilqPBACIAJCBDBUlyqiUcIGUhgwzucOlyq@4B2008FD98C1DD4 0043eb6c     atls:stdafx.obj
 0003:00003b70       ?_afxInitAppState@@3DA     0043eb70     mfcs140d:appmodul.obj
 0003:00003b74       ___dyn_tls_dtor_callback   0043eb74     <common>
 0003:00003b80       ___dyn_tls_init_callback   0043eb80     <common>
 0004:00000000       __imp__InitCommonControls@0 0043f000     comctl32:COMCTL32.dll
 0004:00000004       \177COMCTL32_NULL_THUNK_DATA 0043f004     comctl32:COMCTL32.dll
 0004:00000030       __imp__lstrlenA@4          0043f030     kernel32:KERNEL32.dll
 0004:00000034       __imp__GetLastError@0      0043f034     kernel32:KERNEL32.dll
 0004:00000038       __imp__SetLastError@4      0043f038     kernel32:KERNEL32.dll
 0004:0000003c       __imp__GetProcAddress@8    0043f03c     kernel32:KERNEL32.dll
 0004:00000040       __imp__MultiByteToWideChar@24 0043f040     kernel32:KERNEL32.dll
 0004:00000044       __imp__WideCharToMultiByte@32 0043f044     kernel32:KERNEL32.dll
 0004:00000048       __imp__CompareStringA@24   0043f048     kernel32:KERNEL32.dll
 0004:0000004c       __imp__DecodePointer@4     0043f04c     kernel32:KERNEL32.dll
 0004:00000050       __imp__RaiseException@16   0043f050     kernel32:KERNEL32.dll
 0004:00000054       __imp__HeapDestroy@4       0043f054     kernel32:KERNEL32.dll
 0004:00000058       __imp__HeapAlloc@12        0043f058     kernel32:KERNEL32.dll
 0004:0000005c       __imp__HeapReAlloc@16      0043f05c     kernel32:KERNEL32.dll
 0004:00000060       __imp__HeapFree@12         0043f060     kernel32:KERNEL32.dll
 0004:00000064       __imp__HeapSize@12         0043f064     kernel32:KERNEL32.dll
 0004:00000068       __imp__GetProcessHeap@0    0043f068     kernel32:KERNEL32.dll
 0004:0000006c       __imp__InitializeCriticalSectionAndSpinCount@8 0043f06c     kernel32:KERNEL32.dll
 0004:00000070       __imp__DeleteCriticalSection@4 0043f070     kernel32:KERNEL32.dll
 0004:00000074       __imp__OutputDebugStringA@4 0043f074     kernel32:KERNEL32.dll
 0004:00000078       __imp__GetModuleFileNameW@12 0043f078     kernel32:KERNEL32.dll
 0004:0000007c       __imp__GetModuleHandleA@4  0043f07c     kernel32:KERNEL32.dll
 0004:00000080       __imp__GetModuleHandleW@4  0043f080     kernel32:KERNEL32.dll
 0004:00000084       __imp__lstrcpynA@12        0043f084     kernel32:KERNEL32.dll
 0004:00000088       __imp__CloseHandle@4       0043f088     kernel32:KERNEL32.dll
 0004:0000008c       __imp__EnterCriticalSection@4 0043f08c     kernel32:KERNEL32.dll
 0004:00000090       __imp__LeaveCriticalSection@4 0043f090     kernel32:KERNEL32.dll
 0004:00000094       __imp__SetEvent@4          0043f094     kernel32:KERNEL32.dll
 0004:00000098       __imp__ResetEvent@4        0043f098     kernel32:KERNEL32.dll
 0004:0000009c       __imp__WaitForSingleObjectEx@12 0043f09c     kernel32:KERNEL32.dll
 0004:000000a0       __imp__CreateEventW@16     0043f0a0     kernel32:KERNEL32.dll
 0004:000000a4       __imp__UnhandledExceptionFilter@4 0043f0a4     kernel32:KERNEL32.dll
 0004:000000a8       __imp__SetUnhandledExceptionFilter@4 0043f0a8     kernel32:KERNEL32.dll
 0004:000000ac       __imp__GetCurrentProcess@0 0043f0ac     kernel32:KERNEL32.dll
 0004:000000b0       __imp__TerminateProcess@8  0043f0b0     kernel32:KERNEL32.dll
 0004:000000b4       __imp__IsProcessorFeaturePresent@4 0043f0b4     kernel32:KERNEL32.dll
 0004:000000b8       __imp__IsDebuggerPresent@0 0043f0b8     kernel32:KERNEL32.dll
 0004:000000bc       __imp__GetStartupInfoW@4   0043f0bc     kernel32:KERNEL32.dll
 0004:000000c0       __imp__QueryPerformanceCounter@4 0043f0c0     kernel32:KERNEL32.dll
 0004:000000c4       __imp__GetCurrentProcessId@0 0043f0c4     kernel32:KERNEL32.dll
 0004:000000c8       __imp__GetCurrentThreadId@0 0043f0c8     kernel32:KERNEL32.dll
 0004:000000cc       __imp__GetSystemTimeAsFileTime@4 0043f0cc     kernel32:KERNEL32.dll
 0004:000000d0       __imp__InitializeSListHead@4 0043f0d0     kernel32:KERNEL32.dll
 0004:000000d4       __imp__VirtualQuery@12     0043f0d4     kernel32:KERNEL32.dll
 0004:000000d8       __imp__FreeLibrary@4       0043f0d8     kernel32:KERNEL32.dll
 0004:000000dc       __imp__LoadLibraryW@4      0043f0dc     kernel32:KERNEL32.dll
 0004:000000e0       __imp__OutputDebugStringW@4 0043f0e0     kernel32:KERNEL32.dll
 0004:000000e4       __imp__GetTickCount@0      0043f0e4     kernel32:KERNEL32.dll
 0004:000000e8       \177KERNEL32_NULL_THUNK_DATA 0043f0e8     kernel32:KERNEL32.dll
 0004:00000138       __imp_??0CTraceServiceControl@@QAE@XZ 0043f138     KernelEngine:KernelEngine.dll
 0004:0000013c       __imp_?TraceString@CTraceService@@SA_NPBDW4enTraceLevel@@@Z 0043f13c     KernelEngine:KernelEngine.dll
 0004:00000140       __imp_??1CTraceServiceControl@@UAE@XZ 0043f140     KernelEngine:KernelEngine.dll
 0004:00000144       __imp_??0CDataBaseAide@@QAE@PAUIUnknownEx@@@Z 0043f144     KernelEngine:KernelEngine.dll
 0004:00000148       __imp_??1CDataBaseAide@@UAE@XZ 0043f148     KernelEngine:KernelEngine.dll
 0004:0000014c       __imp_?SetDataBase@CDataBaseAide@@QAE_NPAUIUnknownEx@@@Z 0043f14c     KernelEngine:KernelEngine.dll
 0004:00000150       __imp_?GetValue_BYTE@CDataBaseAide@@QAEEPBD@Z 0043f150     KernelEngine:KernelEngine.dll
 0004:00000154       __imp_?GetValue_WORD@CDataBaseAide@@QAEGPBD@Z 0043f154     KernelEngine:KernelEngine.dll
 0004:00000158       __imp_?GetValue_DWORD@CDataBaseAide@@QAEKPBD@Z 0043f158     KernelEngine:KernelEngine.dll
 0004:0000015c       __imp_?GetValue_SystemTime@CDataBaseAide@@QAEXPBDAAU_SYSTEMTIME@@@Z 0043f15c     KernelEngine:KernelEngine.dll
 0004:00000160       __imp_?GetValue_String@CDataBaseAide@@QAEXPBDPADI@Z 0043f160     KernelEngine:KernelEngine.dll
 0004:00000164       __imp_?ExecuteProcess@CDataBaseAide@@QAEJPBD_N@Z 0043f164     KernelEngine:KernelEngine.dll
 0004:00000168       __imp_?AddParameterOutput@CDataBaseAide@@QAEXPBDPADIW4ParameterDirectionEnum@ADOCG@@@Z 0043f168     KernelEngine:KernelEngine.dll
 0004:0000016c       __imp_?AddParameter@CDataBaseAide@@QAEXPBD0W4ParameterDirectionEnum@ADOCG@@@Z 0043f16c     KernelEngine:KernelEngine.dll
 0004:00000170       __imp_?AddParameter@CDataBaseAide@@QAEXPBDKW4ParameterDirectionEnum@ADOCG@@@Z 0043f170     KernelEngine:KernelEngine.dll
 0004:00000174       __imp_?AddParameter@CDataBaseAide@@QAEXPBDGW4ParameterDirectionEnum@ADOCG@@@Z 0043f174     KernelEngine:KernelEngine.dll
 0004:00000178       __imp_?AddParameter@CDataBaseAide@@QAEXPBDEW4ParameterDirectionEnum@ADOCG@@@Z 0043f178     KernelEngine:KernelEngine.dll
 0004:0000017c       __imp_?AddParameter@CDataBaseAide@@QAEXPBDHW4ParameterDirectionEnum@ADOCG@@@Z 0043f17c     KernelEngine:KernelEngine.dll
 0004:00000180       __imp_?ResetParameter@CDataBaseAide@@QAEXXZ 0043f180     KernelEngine:KernelEngine.dll
 0004:00000184       \177KernelEngine_NULL_THUNK_DATA 0043f184     KernelEngine:KernelEngine.dll
 0004:000001bc       __imp_?_W_Getmonths@_Locinfo@std@@QBEPBGXZ 0043f1bc     msvcprtd:MSVCP140D.dll
 0004:000001c0       __imp_?_W_Getdays@_Locinfo@std@@QBEPBGXZ 0043f1c0     msvcprtd:MSVCP140D.dll
 0004:000001c4       __imp_?_Getmonths@_Locinfo@std@@QBEPBDXZ 0043f1c4     msvcprtd:MSVCP140D.dll
 0004:000001c8       __imp_?_Getdays@_Locinfo@std@@QBEPBDXZ 0043f1c8     msvcprtd:MSVCP140D.dll
 0004:000001cc       __imp_?_Getcvt@_Locinfo@std@@QBE?AU_Cvtvec@@XZ 0043f1cc     msvcprtd:MSVCP140D.dll
 0004:000001d0       __imp___Mbrtowc            0043f1d0     msvcprtd:MSVCP140D.dll
 0004:000001d4       __imp_?_Xbad_alloc@std@@YAXXZ 0043f1d4     msvcprtd:MSVCP140D.dll
 0004:000001d8       \177MSVCP140D_NULL_THUNK_DATA 0043f1d8     msvcprtd:MSVCP140D.dll
 0004:00000208       __imp__VariantClear@4      0043f208     oleaut32:OLEAUT32.dll
 0004:0000020c       __imp__SysFreeString@4     0043f20c     oleaut32:OLEAUT32.dll
 0004:00000210       __imp__VariantInit@4       0043f210     oleaut32:OLEAUT32.dll
 0004:00000214       \177OLEAUT32_NULL_THUNK_DATA 0043f214     oleaut32:OLEAUT32.dll
 0004:00000240       __imp_??0CWHDataLocker@@QAE@AAVCCriticalSection@@_N@Z 0043f240     ServiceCore:ServiceCore.dll
 0004:00000244       __imp_??1CWHDataLocker@@UAE@XZ 0043f244     ServiceCore:ServiceCore.dll
 0004:00000248       __imp_?InsertData@CWHDataQueue@@QAE_NGPAXG@Z 0043f248     ServiceCore:ServiceCore.dll
 0004:0000024c       __imp_??1CWHDataQueue@@UAE@XZ 0043f24c     ServiceCore:ServiceCore.dll
 0004:00000250       __imp_??0CWHDataQueue@@QAE@XZ 0043f250     ServiceCore:ServiceCore.dll
 0004:00000254       __imp_?ReadEncryptString@CWHIniData@@QAEPBDPBD00PADG@Z 0043f254     ServiceCore:ServiceCore.dll
 0004:00000258       __imp_?ReadString@CWHIniData@@QAEPBDPBD00PADG@Z 0043f258     ServiceCore:ServiceCore.dll
 0004:0000025c       __imp_?ReadInt@CWHIniData@@QAEIPBD0H@Z 0043f25c     ServiceCore:ServiceCore.dll
 0004:00000260       __imp_?SetIniFilePath@CWHIniData@@QAEXPBD@Z 0043f260     ServiceCore:ServiceCore.dll
 0004:00000264       __imp_??1CWHIniData@@UAE@XZ 0043f264     ServiceCore:ServiceCore.dll
 0004:00000268       __imp_??0CWHIniData@@QAE@XZ 0043f268     ServiceCore:ServiceCore.dll
 0004:0000026c       __imp_?GetWorkDirectory@CWHService@@SA_NQADG@Z 0043f26c     ServiceCore:ServiceCore.dll
 0004:00000270       __imp_?SearchCommandItem@CWHCommandLine@@QAE_NPBD0QADG@Z 0043f270     ServiceCore:ServiceCore.dll
 0004:00000274       __imp_??1CWHCommandLine@@UAE@XZ 0043f274     ServiceCore:ServiceCore.dll
 0004:00000278       __imp_?DistillData@CWHDataQueue@@QAE_NAAUtagDataHead@@PAXG@Z 0043f278     ServiceCore:ServiceCore.dll
 0004:0000027c       __imp_??0CWHCommandLine@@QAE@XZ 0043f27c     ServiceCore:ServiceCore.dll
 0004:00000280       \177ServiceCore_NULL_THUNK_DATA 0043f280     ServiceCore:ServiceCore.dll
 0004:000002b8       __imp__IsWindow@4          0043f2b8     user32:USER32.dll
 0004:000002bc       __imp__UnregisterClassA@8  0043f2bc     user32:USER32.dll
 0004:000002c0       __imp__LoadIconA@8         0043f2c0     user32:USER32.dll
 0004:000002c4       __imp__PeekMessageA@20     0043f2c4     user32:USER32.dll
 0004:000002c8       __imp__PostQuitMessage@4   0043f2c8     user32:USER32.dll
 0004:000002cc       \177USER32_NULL_THUNK_DATA 0043f2cc     user32:USER32.dll
 0004:000002fc       __imp__memmove             0043f2fc     vcruntimed:VCRUNTIME140D.dll
 0004:00000300       __imp___CxxThrowException@8 0043f300     vcruntimed:VCRUNTIME140D.dll
 0004:00000304       __imp__memcmp              0043f304     vcruntimed:VCRUNTIME140D.dll
 0004:00000308       __imp___purecall           0043f308     vcruntimed:VCRUNTIME140D.dll
 0004:0000030c       __imp___except_handler4_common 0043f30c     vcruntimed:VCRUNTIME140D.dll
 0004:00000310       __imp__memset              0043f310     vcruntimed:VCRUNTIME140D.dll
 0004:00000314       __imp____CxxFrameHandler3  0043f314     vcruntimed:VCRUNTIME140D.dll
 0004:00000318       __imp____std_type_info_destroy_list 0043f318     vcruntimed:VCRUNTIME140D.dll
 0004:0000031c       __imp____vcrt_GetModuleFileNameW 0043f31c     vcruntimed:VCRUNTIME140D.dll
 0004:00000320       __imp____vcrt_GetModuleHandleW 0043f320     vcruntimed:VCRUNTIME140D.dll
 0004:00000324       __imp__memcpy              0043f324     vcruntimed:VCRUNTIME140D.dll
 0004:00000328       __imp____vcrt_LoadLibraryExW 0043f328     vcruntimed:VCRUNTIME140D.dll
 0004:0000032c       \177VCRUNTIME140D_NULL_THUNK_DATA 0043f32c     vcruntimed:VCRUNTIME140D.dll
 0004:00000360       __imp_?PreCreateWindow@CWnd@@UAEHAAUtagCREATESTRUCTA@@@Z 0043f360     mfc140d:mfc140d.dll
 0004:00000364       __imp_?CalcWindowRect@CWnd@@UAEXPAUtagRECT@@I@Z 0043f364     mfc140d:mfc140d.dll
 0004:00000368       __imp_?GetDlgItem@CWnd@@QBEPAV1@H@Z 0043f368     mfc140d:mfc140d.dll
 0004:0000036c       __imp_?PostMessageA@CWnd@@QAEHIIJ@Z 0043f36c     mfc140d:mfc140d.dll
 0004:00000370       __imp_?SetWindowTextA@CWnd@@QAEXPBD@Z 0043f370     mfc140d:mfc140d.dll
 0004:00000374       __imp_?GetMenu@CWnd@@UBEPAVCMenu@@XZ 0043f374     mfc140d:mfc140d.dll
 0004:00000378       __imp_?SetMenu@CWnd@@UAEHPAVCMenu@@@Z 0043f378     mfc140d:mfc140d.dll
 0004:0000037c       __imp_?OnToolHitTest@CWnd@@UBEHVCPoint@@PAUtagTOOLINFOA@@@Z 0043f37c     mfc140d:mfc140d.dll
 0004:00000380       __imp_?EnableWindow@CWnd@@QAEHH@Z 0043f380     mfc140d:mfc140d.dll
 0004:00000384       __imp_?GetScrollBarCtrl@CWnd@@UBEPAVCScrollBar@@H@Z 0043f384     mfc140d:mfc140d.dll
 0004:00000388       __imp_?SetIcon@CWnd@@QAEPAUHICON__@@PAU2@H@Z 0043f388     mfc140d:mfc140d.dll
 0004:0000038c       __imp_?WinHelpA@CWnd@@UAEXKI@Z 0043f38c     mfc140d:mfc140d.dll
 0004:00000390       __imp_?HtmlHelpA@CWnd@@UAEXKI@Z 0043f390     mfc140d:mfc140d.dll
 0004:00000394       __imp_?WinHelpInternal@CWnd@@UAEXKI@Z 0043f394     mfc140d:mfc140d.dll
 0004:00000398       __imp_?ContinueModal@CWnd@@UAEHXZ 0043f398     mfc140d:mfc140d.dll
 0004:0000039c       __imp_?EndModalLoop@CWnd@@UAEXH@Z 0043f39c     mfc140d:mfc140d.dll
 0004:000003a0       __imp_?OnDrawIconicThumbnailOrLivePreview@CWnd@@UAEXAAVCDC@@VCRect@@VCSize@@HAAH@Z 0043f3a0     mfc140d:mfc140d.dll
 0004:000003a4       __imp_?GetInterfaceMap@CWnd@@MBEPBUAFX_INTERFACEMAP@@XZ 0043f3a4     mfc140d:mfc140d.dll
 0004:000003a8       __imp_?EnsureStdObj@CWnd@@UAEJXZ 0043f3a8     mfc140d:mfc140d.dll
 0004:000003ac       __imp_?get_accParent@CWnd@@UAEJPAPAUIDispatch@@@Z 0043f3ac     mfc140d:mfc140d.dll
 0004:000003b0       __imp_?get_accChildCount@CWnd@@UAEJPAJ@Z 0043f3b0     mfc140d:mfc140d.dll
 0004:000003b4       __imp_?get_accChild@CWnd@@UAEJUtagVARIANT@@PAPAUIDispatch@@@Z 0043f3b4     mfc140d:mfc140d.dll
 0004:000003b8       __imp_?get_accName@CWnd@@UAEJUtagVARIANT@@PAPA_W@Z 0043f3b8     mfc140d:mfc140d.dll
 0004:000003bc       __imp_?get_accValue@CWnd@@UAEJUtagVARIANT@@PAPA_W@Z 0043f3bc     mfc140d:mfc140d.dll
 0004:000003c0       __imp_?get_accDescription@CWnd@@UAEJUtagVARIANT@@PAPA_W@Z 0043f3c0     mfc140d:mfc140d.dll
 0004:000003c4       __imp_?get_accRole@CWnd@@UAEJUtagVARIANT@@PAU2@@Z 0043f3c4     mfc140d:mfc140d.dll
 0004:000003c8       __imp_?get_accState@CWnd@@UAEJUtagVARIANT@@PAU2@@Z 0043f3c8     mfc140d:mfc140d.dll
 0004:000003cc       __imp_?get_accHelp@CWnd@@UAEJUtagVARIANT@@PAPA_W@Z 0043f3cc     mfc140d:mfc140d.dll
 0004:000003d0       __imp_?get_accHelpTopic@CWnd@@UAEJPAPA_WUtagVARIANT@@PAJ@Z 0043f3d0     mfc140d:mfc140d.dll
 0004:000003d4       __imp_?get_accKeyboardShortcut@CWnd@@UAEJUtagVARIANT@@PAPA_W@Z 0043f3d4     mfc140d:mfc140d.dll
 0004:000003d8       __imp_?get_accFocus@CWnd@@UAEJPAUtagVARIANT@@@Z 0043f3d8     mfc140d:mfc140d.dll
 0004:000003dc       __imp_?get_accSelection@CWnd@@UAEJPAUtagVARIANT@@@Z 0043f3dc     mfc140d:mfc140d.dll
 0004:000003e0       __imp_?get_accDefaultAction@CWnd@@UAEJUtagVARIANT@@PAPA_W@Z 0043f3e0     mfc140d:mfc140d.dll
 0004:000003e4       __imp_?accSelect@CWnd@@UAEJJUtagVARIANT@@@Z 0043f3e4     mfc140d:mfc140d.dll
 0004:000003e8       __imp_?accLocation@CWnd@@UAEJPAJ000UtagVARIANT@@@Z 0043f3e8     mfc140d:mfc140d.dll
 0004:000003ec       __imp_?accNavigate@CWnd@@UAEJJUtagVARIANT@@PAU2@@Z 0043f3ec     mfc140d:mfc140d.dll
 0004:000003f0       __imp_?accHitTest@CWnd@@UAEJJJPAUtagVARIANT@@@Z 0043f3f0     mfc140d:mfc140d.dll
 0004:000003f4       __imp_?accDoDefaultAction@CWnd@@UAEJUtagVARIANT@@@Z 0043f3f4     mfc140d:mfc140d.dll
 0004:000003f8       __imp_?put_accName@CWnd@@UAEJUtagVARIANT@@PA_W@Z 0043f3f8     mfc140d:mfc140d.dll
 0004:000003fc       __imp_?put_accValue@CWnd@@UAEJUtagVARIANT@@PA_W@Z 0043f3fc     mfc140d:mfc140d.dll
 0004:00000400       __imp_?SetProxy@CWnd@@UAEJPAUIAccessibleProxy@@@Z 0043f400     mfc140d:mfc140d.dll
 0004:00000404       __imp_?CreateAccessibleProxy@CWnd@@UAEJIJPAJ@Z 0043f404     mfc140d:mfc140d.dll
 0004:00000408       __imp_?OnCommand@CWnd@@MAEHIJ@Z 0043f408     mfc140d:mfc140d.dll
 0004:0000040c       __imp_?OnNotify@CWnd@@MAEHIJPAJ@Z 0043f40c     mfc140d:mfc140d.dll
 0004:00000410       __imp_?GetDataRecoveryHandler@CWinApp@@UAEPAVCDataRecoveryHandler@@XZ 0043f410     mfc140d:mfc140d.dll
 0004:00000414       __imp_?DoDataExchange@CWnd@@MAEXPAVCDataExchange@@@Z 0043f414     mfc140d:mfc140d.dll
 0004:00000418       __imp_?BeginModalState@CWnd@@UAEXXZ 0043f418     mfc140d:mfc140d.dll
 0004:0000041c       __imp_?EndModalState@CWnd@@UAEXXZ 0043f41c     mfc140d:mfc140d.dll
 0004:00000420       __imp_?OnAmbientProperty@CWnd@@UAEHPAVCOleControlSite@@JPAUtagVARIANT@@@Z 0043f420     mfc140d:mfc140d.dll
 0004:00000424       __imp_?WindowProc@CWnd@@MAEJIIJ@Z 0043f424     mfc140d:mfc140d.dll
 0004:00000428       __imp_?OnWndMsg@CWnd@@MAEHIIJPAJ@Z 0043f428     mfc140d:mfc140d.dll
 0004:0000042c       __imp_?DefWindowProcA@CWnd@@MAEJIIJ@Z 0043f42c     mfc140d:mfc140d.dll
 0004:00000430       __imp_?PostNcDestroy@CWnd@@MAEXXZ 0043f430     mfc140d:mfc140d.dll
 0004:00000434       __imp_?OnChildNotify@CWnd@@MAEHIIJPAJ@Z 0043f434     mfc140d:mfc140d.dll
 0004:00000438       __imp_?OnTouchInputs@CWnd@@MAEHIPAUtagTOUCHINPUT@@@Z 0043f438     mfc140d:mfc140d.dll
 0004:0000043c       __imp_?OnTouchInput@CWnd@@MAEHVCPoint@@HHPAUtagTOUCHINPUT@@@Z 0043f43c     mfc140d:mfc140d.dll
 0004:00000440       __imp_?GetGestureStatus@CWnd@@MAEKVCPoint@@@Z 0043f440     mfc140d:mfc140d.dll
 0004:00000444       __imp_?OnGestureZoom@CWnd@@MAEHVCPoint@@J@Z 0043f444     mfc140d:mfc140d.dll
 0004:00000448       __imp_?OnGesturePan@CWnd@@MAEHVCPoint@@0@Z 0043f448     mfc140d:mfc140d.dll
 0004:0000044c       __imp_?OnGestureRotate@CWnd@@MAEHVCPoint@@N@Z 0043f44c     mfc140d:mfc140d.dll
 0004:00000450       __imp_?OnGestureTwoFingerTap@CWnd@@MAEHVCPoint@@@Z 0043f450     mfc140d:mfc140d.dll
 0004:00000454       __imp_?OnGesturePressAndTap@CWnd@@MAEHVCPoint@@J@Z 0043f454     mfc140d:mfc140d.dll
 0004:00000458       __imp_?ResizeDynamicLayout@CWnd@@MAEXXZ 0043f458     mfc140d:mfc140d.dll
 0004:0000045c       __imp_?IsFrameWnd@CWnd@@UBEHXZ 0043f45c     mfc140d:mfc140d.dll
 0004:00000460       __imp_?OnFinalRelease@CWnd@@UAEXXZ 0043f460     mfc140d:mfc140d.dll
 0004:00000464       __imp_?CreateControlContainer@CWnd@@MAEHPAPAVCOleControlContainer@@@Z 0043f464     mfc140d:mfc140d.dll
 0004:00000468       __imp_?CreateControlSite@CWnd@@MAEHPAVCOleControlContainer@@PAPAVCOleControlSite@@IABU_GUID@@@Z 0043f468     mfc140d:mfc140d.dll
 0004:0000046c       __imp_?GetRuntimeClass@CDialog@@UBEPAUCRuntimeClass@@XZ 0043f46c     mfc140d:mfc140d.dll
 0004:00000470       __imp_?Create@CDialog@@UAEHPBDPAVCWnd@@@Z 0043f470     mfc140d:mfc140d.dll
 0004:00000474       __imp_?Create@CDialog@@UAEHIPAVCWnd@@@Z 0043f474     mfc140d:mfc140d.dll
 0004:00000478       __imp_?CreateIndirect@CDialog@@UAEHPBUDLGTEMPLATE@@PAVCWnd@@PAX@Z 0043f478     mfc140d:mfc140d.dll
 0004:0000047c       __imp_?CreateIndirect@CDialog@@UAEHPAXPAVCWnd@@@Z 0043f47c     mfc140d:mfc140d.dll
 0004:00000480       __imp_??0CDialog@@QAE@IPAVCWnd@@@Z 0043f480     mfc140d:mfc140d.dll
 0004:00000484       __imp_?OnInitDialog@CDialog@@UAEHXZ 0043f484     mfc140d:mfc140d.dll
 0004:00000488       __imp_?OnSetFont@CDialog@@UAEXPAVCFont@@@Z 0043f488     mfc140d:mfc140d.dll
 0004:0000048c       __imp_?OnCancel@CDialog@@MAEXXZ 0043f48c     mfc140d:mfc140d.dll
 0004:00000490       __imp_??1CDialog@@UAE@XZ   0043f490     mfc140d:mfc140d.dll
 0004:00000494       __imp_?AssertValid@CDialog@@UBEXXZ 0043f494     mfc140d:mfc140d.dll
 0004:00000498       __imp_?Dump@CDialog@@UBEXAAVCDumpContext@@@Z 0043f498     mfc140d:mfc140d.dll
 0004:0000049c       __imp_?PreTranslateMessage@CDialog@@UAEHPAUtagMSG@@@Z 0043f49c     mfc140d:mfc140d.dll
 0004:000004a0       __imp_?OnCmdMsg@CDialog@@UAEHIHPAXPAUAFX_CMDHANDLERINFO@@@Z 0043f4a0     mfc140d:mfc140d.dll
 0004:000004a4       __imp_?CheckAutoCenter@CDialog@@UAEHXZ 0043f4a4     mfc140d:mfc140d.dll
 0004:000004a8       __imp_?SetOccDialogInfo@CDialog@@MAEHPAU_AFX_OCC_DIALOG_INFO@@@Z 0043f4a8     mfc140d:mfc140d.dll
 0004:000004ac       __imp_?GetOccDialogInfo@CDialog@@MAEPAU_AFX_OCC_DIALOG_INFO@@XZ 0043f4ac     mfc140d:mfc140d.dll
 0004:000004b0       __imp_?PreInitDialog@CDialog@@MAEXXZ 0043f4b0     mfc140d:mfc140d.dll
 0004:000004b4       __imp_?AfxGetApp@@YGPAVCWinApp@@XZ 0043f4b4     mfc140d:mfc140d.dll
 0004:000004b8       __imp_?AfxGetInstanceHandle@@YGPAUHINSTANCE__@@XZ 0043f4b8     mfc140d:mfc140d.dll
 0004:000004bc       __imp_?AfxMessageBox@@YGHPBDII@Z 0043f4bc     mfc140d:mfc140d.dll
 0004:000004c0       __imp_?AfxThrowMemoryException@@YGXXZ 0043f4c0     mfc140d:mfc140d.dll
 0004:000004c4       __imp_?AfxThrowOleException@@YGXJ@Z 0043f4c4     mfc140d:mfc140d.dll
 0004:000004c8       __imp_??0?$CStringT@DV?$StrTraitMFC_DLL@DV?$ChTraitsCRT@D@ATL@@@@@ATL@@QAE@XZ 0043f4c8     mfc140d:mfc140d.dll
 0004:000004cc       __imp_??1?$CStringT@DV?$StrTraitMFC_DLL@DV?$ChTraitsCRT@D@ATL@@@@@ATL@@QAE@XZ 0043f4cc     mfc140d:mfc140d.dll
 0004:000004d0       __imp_?DestroyWindow@CWnd@@UAEHXZ 0043f4d0     mfc140d:mfc140d.dll
 0004:000004d4       __imp_?AfxFreeLibrary@@YGHPAUHINSTANCE__@@@Z 0043f4d4     mfc140d:mfc140d.dll
 0004:000004d8       __imp_??2@YAPAXI@Z         0043f4d8     mfc140d:mfc140d.dll
 0004:000004dc       __imp_?AfxAssertValidObject@@YGXPBVCObject@@PBDH@Z 0043f4dc     mfc140d:mfc140d.dll
 0004:000004e0       __imp_?GetRuntimeClass@CObject@@UBEPAUCRuntimeClass@@XZ 0043f4e0     mfc140d:mfc140d.dll
 0004:000004e4       __imp_??1CObject@@UAE@XZ   0043f4e4     mfc140d:mfc140d.dll
 0004:000004e8       __imp_??0CObject@@IAE@XZ   0043f4e8     mfc140d:mfc140d.dll
 0004:000004ec       __imp_?AssertValid@CObject@@UBEXXZ 0043f4ec     mfc140d:mfc140d.dll
 0004:000004f0       __imp_?Dump@CObject@@UBEXAAVCDumpContext@@@Z 0043f4f0     mfc140d:mfc140d.dll
 0004:000004f4       __imp_?AfxIsValidAddress@@YGHPBXIH@Z 0043f4f4     mfc140d:mfc140d.dll
 0004:000004f8       __imp_?IsStoring@CArchive@@QBEHXZ 0043f4f8     mfc140d:mfc140d.dll
 0004:000004fc       __imp_?EnsureRead@CArchive@@QAEXPAXI@Z 0043f4fc     mfc140d:mfc140d.dll
 0004:00000500       __imp_?Write@CArchive@@QAEXPBXI@Z 0043f500     mfc140d:mfc140d.dll
 0004:00000504       __imp_?ReadCount@CArchive@@QAEKXZ 0043f504     mfc140d:mfc140d.dll
 0004:00000508       __imp_?WriteCount@CArchive@@QAEXK@Z 0043f508     mfc140d:mfc140d.dll
 0004:0000050c       __imp_?GetDepth@CDumpContext@@QBEHXZ 0043f50c     mfc140d:mfc140d.dll
 0004:00000510       __imp_??6CDumpContext@@QAEAAV0@PBD@Z 0043f510     mfc140d:mfc140d.dll
 0004:00000514       __imp_??6CDumpContext@@QAEAAV0@H@Z 0043f514     mfc140d:mfc140d.dll
 0004:00000518       __imp_?Create@CPlex@@SGPAU1@AAPAU1@II@Z 0043f518     mfc140d:mfc140d.dll
 0004:0000051c       __imp_?FreeDataChain@CPlex@@QAEXXZ 0043f51c     mfc140d:mfc140d.dll
 0004:00000520       __imp_?GetThisMessageMap@CWnd@@KGPBUAFX_MSGMAP@@XZ 0043f520     mfc140d:mfc140d.dll
 0004:00000524       __imp_?GetRuntimeClass@CWnd@@UBEPAUCRuntimeClass@@XZ 0043f524     mfc140d:mfc140d.dll
 0004:00000528       __imp_??0CWnd@@QAE@XZ      0043f528     mfc140d:mfc140d.dll
 0004:0000052c       __imp_?PreTranslateMessage@CWnd@@UAEHPAUtagMSG@@@Z 0043f52c     mfc140d:mfc140d.dll
 0004:00000530       __imp_??1CWnd@@UAE@XZ      0043f530     mfc140d:mfc140d.dll
 0004:00000534       __imp_?CheckAutoCenter@CWnd@@UAEHXZ 0043f534     mfc140d:mfc140d.dll
 0004:00000538       __imp_?AssertValid@CWnd@@UBEXXZ 0043f538     mfc140d:mfc140d.dll
 0004:0000053c       __imp_?Dump@CWnd@@UBEXAAVCDumpContext@@@Z 0043f53c     mfc140d:mfc140d.dll
 0004:00000540       __imp_?SetOccDialogInfo@CWnd@@MAEHPAU_AFX_OCC_DIALOG_INFO@@@Z 0043f540     mfc140d:mfc140d.dll
 0004:00000544       __imp_?GetOccDialogInfo@CWnd@@MAEPAU_AFX_OCC_DIALOG_INFO@@XZ 0043f544     mfc140d:mfc140d.dll
 0004:00000548       __imp_?AfxGetMainWnd@@YGPAVCWnd@@XZ 0043f548     mfc140d:mfc140d.dll
 0004:0000054c       __imp_??0CCriticalSection@@QAE@XZ 0043f54c     mfc140d:mfc140d.dll
 0004:00000550       __imp_??1CCriticalSection@@UAE@XZ 0043f550     mfc140d:mfc140d.dll
 0004:00000554       __imp_?AfxGetModuleState@@YGPAVAFX_MODULE_STATE@@XZ 0043f554     mfc140d:mfc140d.dll
 0004:00000558       __imp_?ApplicationRecoveryCallback@CWinApp@@UAEKPAX@Z 0043f558     mfc140d:mfc140d.dll
 0004:0000055c       __imp_?RegisterWithRestartManager@CWinApp@@UAEJPB_WKP6GKPAX@Z1KK@Z 0043f55c     mfc140d:mfc140d.dll
 0004:00000560       __imp_?RegisterWithRestartManager@CWinApp@@UAEJHABV?$CStringT@DV?$StrTraitMFC_DLL@DV?$ChTraitsCRT@D@ATL@@@@@ATL@@@Z 0043f560     mfc140d:mfc140d.dll
 0004:00000564       __imp_?WinHelpInternal@CWinApp@@UAEXKI@Z 0043f564     mfc140d:mfc140d.dll
 0004:00000568       __imp_?HtmlHelpA@CWinApp@@UAEXKI@Z 0043f568     mfc140d:mfc140d.dll
 0004:0000056c       __imp_?WinHelpA@CWinApp@@UAEXKI@Z 0043f56c     mfc140d:mfc140d.dll
 0004:00000570       __imp_?OnDDECommand@CWinApp@@UAEHPAD@Z 0043f570     mfc140d:mfc140d.dll
 0004:00000574       __imp_?DoWaitCursor@CWinApp@@UAEXH@Z 0043f574     mfc140d:mfc140d.dll
 0004:00000578       __imp_?DoMessageBox@CWinApp@@UAEHPBDII@Z 0043f578     mfc140d:mfc140d.dll
 0004:0000057c       __imp_?SaveAllModified@CWinApp@@UAEHXZ 0043f57c     mfc140d:mfc140d.dll
 0004:00000580       __imp_?InitApplication@CWinApp@@UAEHXZ 0043f580     mfc140d:mfc140d.dll
 0004:00000584       __imp_?AddToRecentFileList@CWinApp@@UAEXPBD@Z 0043f584     mfc140d:mfc140d.dll
 0004:00000588       __imp_?OpenDocumentFile@CWinApp@@UAEPAVCDocument@@PBDH@Z 0043f588     mfc140d:mfc140d.dll
 0004:0000058c       __imp_?OpenDocumentFile@CWinApp@@UAEPAVCDocument@@PBD@Z 0043f58c     mfc140d:mfc140d.dll
 0004:00000590       __imp_?Unregister@CWinApp@@UAEHXZ 0043f590     mfc140d:mfc140d.dll
 0004:00000594       __imp_?Register@CWinApp@@UAEHXZ 0043f594     mfc140d:mfc140d.dll
 0004:00000598       __imp_?InitLibId@CWinApp@@UAEXXZ 0043f598     mfc140d:mfc140d.dll
 0004:0000059c       __imp_?WriteProfileBinary@CWinApp@@UAEHPBD0PAEI@Z 0043f59c     mfc140d:mfc140d.dll
 0004:000005a0       __imp_?GetProfileBinary@CWinApp@@UAEHPBD0PAPAEPAI@Z 0043f5a0     mfc140d:mfc140d.dll
 0004:000005a4       __imp_?WriteProfileStringA@CWinApp@@UAEHPBD00@Z 0043f5a4     mfc140d:mfc140d.dll
 0004:000005a8       __imp_?GetProfileStringA@CWinApp@@UAE?AV?$CStringT@DV?$StrTraitMFC_DLL@DV?$ChTraitsCRT@D@ATL@@@@@ATL@@PBD00@Z 0043f5a8     mfc140d:mfc140d.dll
 0004:000005ac       __imp_?WriteProfileInt@CWinApp@@UAEHPBD0H@Z 0043f5ac     mfc140d:mfc140d.dll
 0004:000005b0       __imp_?GetProfileIntA@CWinApp@@UAEIPBD0H@Z 0043f5b0     mfc140d:mfc140d.dll
 0004:000005b4       __imp_?SetRegistryKey@CWinApp@@IAEXPBD@Z 0043f5b4     mfc140d:mfc140d.dll
 0004:000005b8       __imp_??0CWinApp@@QAE@PBD@Z 0043f5b8     mfc140d:mfc140d.dll
 0004:000005bc       __imp_?GetRuntimeClass@CWinApp@@UBEPAUCRuntimeClass@@XZ 0043f5bc     mfc140d:mfc140d.dll
 0004:000005c0       __imp_?Delete@CWinThread@@UAEXXZ 0043f5c0     mfc140d:mfc140d.dll
 0004:000005c4       __imp_?GetMainWnd@CWinThread@@UAEPAVCWnd@@XZ 0043f5c4     mfc140d:mfc140d.dll
 0004:000005c8       __imp_?ProcessMessageFilter@CWinThread@@UAEHHPAUtagMSG@@@Z 0043f5c8     mfc140d:mfc140d.dll
 0004:000005cc       __imp_?IsIdleMessage@CWinThread@@UAEHPAUtagMSG@@@Z 0043f5cc     mfc140d:mfc140d.dll
 0004:000005d0       __imp_?PumpMessage@CWinThread@@UAEHXZ 0043f5d0     mfc140d:mfc140d.dll
 0004:000005d4       __imp_?PreTranslateMessage@CWinThread@@UAEHPAUtagMSG@@@Z 0043f5d4     mfc140d:mfc140d.dll
 0004:000005d8       __imp_?DoModal@CDialog@@UAEHXZ 0043f5d8     mfc140d:mfc140d.dll
 0004:000005dc       __imp_?AfxInitRichEdit2@@YGHXZ 0043f5dc     mfc140d:mfc140d.dll
 0004:000005e0       __imp_?GetConnectionHook@CCmdTarget@@MAEPAUIConnectionPoint@@ABU_GUID@@@Z 0043f5e0     mfc140d:mfc140d.dll
 0004:000005e4       __imp_?GetExtraConnectionPoints@CCmdTarget@@MAEHPAVCPtrArray@@@Z 0043f5e4     mfc140d:mfc140d.dll
 0004:000005e8       __imp_?GetInterfaceHook@CCmdTarget@@UAEPAUIUnknown@@PBX@Z 0043f5e8     mfc140d:mfc140d.dll
 0004:000005ec       __imp_?OnCreateAggregates@CCmdTarget@@UAEHXZ 0043f5ec     mfc140d:mfc140d.dll
 0004:000005f0       __imp_?GetEventSinkMap@CCmdTarget@@MBEPBUAFX_EVENTSINKMAP@@XZ 0043f5f0     mfc140d:mfc140d.dll
 0004:000005f4       __imp_?GetInterfaceMap@CCmdTarget@@MBEPBUAFX_INTERFACEMAP@@XZ 0043f5f4     mfc140d:mfc140d.dll
 0004:000005f8       __imp_?GetConnectionMap@CCmdTarget@@MBEPBUAFX_CONNECTIONMAP@@XZ 0043f5f8     mfc140d:mfc140d.dll
 0004:000005fc       __imp_?GetDispatchMap@CCmdTarget@@MBEPBUAFX_DISPMAP@@XZ 0043f5fc     mfc140d:mfc140d.dll
 0004:00000600       __imp_?GetCommandMap@CCmdTarget@@MBEPBUAFX_OLECMDMAP@@XZ 0043f600     mfc140d:mfc140d.dll
 0004:00000604       __imp_?GetTypeLib@CCmdTarget@@UAEJKPAPAUITypeLib@@@Z 0043f604     mfc140d:mfc140d.dll
 0004:00000608       __imp_?GetTypeLibCache@CCmdTarget@@UAEPAVCTypeLibCache@@XZ 0043f608     mfc140d:mfc140d.dll
 0004:0000060c       __imp_?GetTypeInfoCount@CCmdTarget@@UAEIXZ 0043f60c     mfc140d:mfc140d.dll
 0004:00000610       __imp_?CreateEx@CWnd@@UAEHKPBD0KABUtagRECT@@PAV1@IPAX@Z 0043f610     mfc140d:mfc140d.dll
 0004:00000614       __imp_?CreateEx@CWnd@@UAEHKPBD0KHHHHPAUHWND__@@PAUHMENU__@@PAX@Z 0043f614     mfc140d:mfc140d.dll
 0004:00000618       __imp_?Create@CWnd@@UAEHPBD0KABUtagRECT@@PAV1@IPAUCCreateContext@@@Z 0043f618     mfc140d:mfc140d.dll
 0004:0000061c       __imp_?PreSubclassWindow@CWnd@@UAEXXZ 0043f61c     mfc140d:mfc140d.dll
 0004:00000620       __imp_?DDX_Control@@YGXPAVCDataExchange@@HAAVCWnd@@@Z 0043f620     mfc140d:mfc140d.dll
 0004:00000624       __imp_?GetThisMessageMap@CDialog@@KGPBUAFX_MSGMAP@@XZ 0043f624     mfc140d:mfc140d.dll
 0004:00000628       __imp_?GetDispatchIID@CCmdTarget@@UAEHPAU_GUID@@@Z 0043f628     mfc140d:mfc140d.dll
 0004:0000062c       __imp_?IsInvokeAllowed@CCmdTarget@@UAEHJ@Z 0043f62c     mfc140d:mfc140d.dll
 0004:00000630       __imp_?OnFinalRelease@CCmdTarget@@UAEXXZ 0043f630     mfc140d:mfc140d.dll
 0004:00000634       __imp_?OnCmdMsg@CCmdTarget@@UAEHIHPAXPAUAFX_CMDHANDLERINFO@@@Z 0043f634     mfc140d:mfc140d.dll
 0004:00000638       __imp_?Serialize@CObject@@UAEXAAVCArchive@@@Z 0043f638     mfc140d:mfc140d.dll
 0004:0000063c       __imp_??3CObject@@SGXPAX@Z 0043f63c     mfc140d:mfc140d.dll
 0004:00000640       __imp_?GetThisMessageMap@CWinApp@@KGPBUAFX_MSGMAP@@XZ 0043f640     mfc140d:mfc140d.dll
 0004:00000644       __imp_??3@YAXPAX@Z         0043f644     mfc140d:mfc140d.dll
 0004:00000648       __imp_??_U@YAPAXIPBDH@Z    0043f648     mfc140d:mfc140d.dll
 0004:0000064c       __imp_??2@YAPAXIPBDH@Z     0043f64c     mfc140d:mfc140d.dll
 0004:00000650       __imp_?AfxThrowInvalidArgException@@YGXXZ 0043f650     mfc140d:mfc140d.dll
 0004:00000654       __imp_??_V@YAXPAX@Z        0043f654     mfc140d:mfc140d.dll
 0004:00000658       __imp_??_U@YAPAXI@Z        0043f658     mfc140d:mfc140d.dll
 0004:0000065c       __imp_?AfxEnableControlContainer@@YAXPAVCOccManager@@@Z 0043f65c     mfc140d:mfc140d.dll
 0004:00000660       __imp_?LoadSysPolicies@CWinApp@@UAEHXZ 0043f660     mfc140d:mfc140d.dll
 0004:00000664       __imp_?Dump@CWinApp@@UBEXAAVCDumpContext@@@Z 0043f664     mfc140d:mfc140d.dll
 0004:00000668       __imp_?AssertValid@CWinApp@@UBEXXZ 0043f668     mfc140d:mfc140d.dll
 0004:0000066c       __imp_??1CWinApp@@UAE@XZ   0043f66c     mfc140d:mfc140d.dll
 0004:00000670       __imp_?LoadAppLangResourceDLL@CWinApp@@UAEPAUHINSTANCE__@@XZ 0043f670     mfc140d:mfc140d.dll
 0004:00000674       __imp_?ProcessWndProcException@CWinApp@@UAEJPAVCException@@PBUtagMSG@@@Z 0043f674     mfc140d:mfc140d.dll
 0004:00000678       __imp_?OnIdle@CWinApp@@UAEHJ@Z 0043f678     mfc140d:mfc140d.dll
 0004:0000067c       __imp_?Run@CWinApp@@UAEHXZ 0043f67c     mfc140d:mfc140d.dll
 0004:00000680       __imp_?RestartInstance@CWinApp@@UAEHXZ 0043f680     mfc140d:mfc140d.dll
 0004:00000684       __imp_?ExitInstance@CWinApp@@UAEHXZ 0043f684     mfc140d:mfc140d.dll
 0004:00000688       __imp_?InitInstance@CWinApp@@UAEHXZ 0043f688     mfc140d:mfc140d.dll
 0004:0000068c       __imp_?AfxLoadLibrary@@YGPAUHINSTANCE__@@PBD@Z 0043f68c     mfc140d:mfc140d.dll
 0004:00000690       __imp_?IsTaskbarInteractionEnabled@CWinApp@@UAEHXZ 0043f690     mfc140d:mfc140d.dll
 0004:00000694       __imp_?GetSuperWndProcAddr@CWnd@@MAEPAP6GJPAUHWND__@@IIJ@ZXZ 0043f694     mfc140d:mfc140d.dll
 0004:00000698       __imp_?AfxWinMain@@YGHPAUHINSTANCE__@@0PADH@Z 0043f698     mfc140d:mfc140d.dll
 0004:0000069c       \177mfc140d_NULL_THUNK_DATA 0043f69c     mfc140d:mfc140d.dll
 0004:0000076c       __imp__atol                0043f76c     ucrtd:ucrtbased.dll
 0004:00000770       __imp__wcscpy_s            0043f770     ucrtd:ucrtbased.dll
 0004:00000774       __imp__wcslen              0043f774     ucrtd:ucrtbased.dll
 0004:00000778       __imp____stdio_common_vswprintf_s 0043f778     ucrtd:ucrtbased.dll
 0004:0000077c       __imp____stdio_common_vsnprintf_s 0043f77c     ucrtd:ucrtbased.dll
 0004:00000780       __imp__calloc              0043f780     ucrtd:ucrtbased.dll
 0004:00000784       __imp__free                0043f784     ucrtd:ucrtbased.dll
 0004:00000788       __imp__malloc              0043f788     ucrtd:ucrtbased.dll
 0004:0000078c       __imp___recalloc           0043f78c     ucrtd:ucrtbased.dll
 0004:00000790       __imp___mktime64           0043f790     ucrtd:ucrtbased.dll
 0004:00000794       __imp___CrtDbgReportW      0043f794     ucrtd:ucrtbased.dll
 0004:00000798       __imp__ldiv                0043f798     ucrtd:ucrtbased.dll
 0004:0000079c       __imp__asin                0043f79c     ucrtd:ucrtbased.dll
 0004:000007a0       __imp__cos                 0043f7a0     ucrtd:ucrtbased.dll
 0004:000007a4       __imp__pow                 0043f7a4     ucrtd:ucrtbased.dll
 0004:000007a8       __imp__sin                 0043f7a8     ucrtd:ucrtbased.dll
 0004:000007ac       __imp__sqrt                0043f7ac     ucrtd:ucrtbased.dll
 0004:000007b0       __imp__ceil                0043f7b0     ucrtd:ucrtbased.dll
 0004:000007b4       __imp__floor               0043f7b4     ucrtd:ucrtbased.dll
 0004:000007b8       __imp__strlen              0043f7b8     ucrtd:ucrtbased.dll
 0004:000007bc       __imp___calloc_dbg         0043f7bc     ucrtd:ucrtbased.dll
 0004:000007c0       __imp___seh_filter_dll     0043f7c0     ucrtd:ucrtbased.dll
 0004:000007c4       __imp___configure_narrow_argv 0043f7c4     ucrtd:ucrtbased.dll
 0004:000007c8       __imp___initialize_narrow_environment 0043f7c8     ucrtd:ucrtbased.dll
 0004:000007cc       __imp___initialize_onexit_table 0043f7cc     ucrtd:ucrtbased.dll
 0004:000007d0       __imp___register_onexit_function 0043f7d0     ucrtd:ucrtbased.dll
 0004:000007d4       __imp___CrtDbgReport       0043f7d4     ucrtd:ucrtbased.dll
 0004:000007d8       __imp___crt_atexit         0043f7d8     ucrtd:ucrtbased.dll
 0004:000007dc       __imp___crt_at_quick_exit  0043f7dc     ucrtd:ucrtbased.dll
 0004:000007e0       __imp___cexit              0043f7e0     ucrtd:ucrtbased.dll
 0004:000007e4       __imp___except1            0043f7e4     ucrtd:ucrtbased.dll
 0004:000007e8       __imp__terminate           0043f7e8     ucrtd:ucrtbased.dll
 0004:000007ec       __imp___seh_filter_exe     0043f7ec     ucrtd:ucrtbased.dll
 0004:000007f0       __imp___set_app_type       0043f7f0     ucrtd:ucrtbased.dll
 0004:000007f4       __imp____setusermatherr    0043f7f4     ucrtd:ucrtbased.dll
 0004:000007f8       __imp___get_narrow_winmain_command_line 0043f7f8     ucrtd:ucrtbased.dll
 0004:000007fc       __imp___initterm           0043f7fc     ucrtd:ucrtbased.dll
 0004:00000800       __imp___initterm_e         0043f800     ucrtd:ucrtbased.dll
 0004:00000804       __imp__exit                0043f804     ucrtd:ucrtbased.dll
 0004:00000808       __imp___exit               0043f808     ucrtd:ucrtbased.dll
 0004:0000080c       __imp___set_fmode          0043f80c     ucrtd:ucrtbased.dll
 0004:00000810       __imp___c_exit             0043f810     ucrtd:ucrtbased.dll
 0004:00000814       __imp___register_thread_local_exe_atexit_callback 0043f814     ucrtd:ucrtbased.dll
 0004:00000818       __imp___configthreadlocale 0043f818     ucrtd:ucrtbased.dll
 0004:0000081c       __imp___set_new_mode       0043f81c     ucrtd:ucrtbased.dll
 0004:00000820       __imp____p__commode        0043f820     ucrtd:ucrtbased.dll
 0004:00000824       __imp___controlfp_s        0043f824     ucrtd:ucrtbased.dll
 0004:00000828       __imp__strcpy_s            0043f828     ucrtd:ucrtbased.dll
 0004:0000082c       __imp__strcat_s            0043f82c     ucrtd:ucrtbased.dll
 0004:00000830       __imp____stdio_common_vsprintf_s 0043f830     ucrtd:ucrtbased.dll
 0004:00000834       __imp___wmakepath_s        0043f834     ucrtd:ucrtbased.dll
 0004:00000838       __imp___wsplitpath_s       0043f838     ucrtd:ucrtbased.dll
 0004:0000083c       __imp___invalid_parameter_noinfo 0043f83c     ucrtd:ucrtbased.dll
 0004:00000840       __imp___errno              0043f840     ucrtd:ucrtbased.dll
 0004:00000844       __imp___execute_onexit_table 0043f844     ucrtd:ucrtbased.dll
 0004:00000848       __imp____stdio_common_vsprintf 0043f848     ucrtd:ucrtbased.dll
 0004:0000084c       __imp___setmbcp            0043f84c     ucrtd:ucrtbased.dll
 0004:00000850       __imp___time64             0043f850     ucrtd:ucrtbased.dll
 0004:00000854       \177ucrtbased_NULL_THUNK_DATA 0043f854     ucrtd:ucrtbased.dll
 0004:000008ac       __IMPORT_DESCRIPTOR_ServiceCore 0043f8ac     ServiceCore:ServiceCore.dll
 0004:000008c0       __IMPORT_DESCRIPTOR_KernelEngine 0043f8c0     KernelEngine:KernelEngine.dll
 0004:000008d4       __IMPORT_DESCRIPTOR_mfc140d 0043f8d4     mfc140d:mfc140d.dll
 0004:000008e8       __IMPORT_DESCRIPTOR_KERNEL32 0043f8e8     kernel32:KERNEL32.dll
 0004:000008fc       __IMPORT_DESCRIPTOR_USER32 0043f8fc     user32:USER32.dll
 0004:00000910       __IMPORT_DESCRIPTOR_COMCTL32 0043f910     comctl32:COMCTL32.dll
 0004:00000924       __IMPORT_DESCRIPTOR_OLEAUT32 0043f924     oleaut32:OLEAUT32.dll
 0004:00000938       __IMPORT_DESCRIPTOR_MSVCP140D 0043f938     msvcprtd:MSVCP140D.dll
 0004:0000094c       __IMPORT_DESCRIPTOR_VCRUNTIME140D 0043f94c     vcruntimed:VCRUNTIME140D.dll
 0004:00000960       __IMPORT_DESCRIPTOR_ucrtbased 0043f960     ucrtd:ucrtbased.dll
 0004:00000974       __NULL_IMPORT_DESCRIPTOR   0043f974     ServiceCore:ServiceCore.dll
 0005:00000000       __tls_start                00442000     msvcrtd:tlssup.obj
 0005:00000104       __Init_thread_epoch        00442104     msvcrtd:thread_safe_statics.obj
 0005:00000208       __tls_end                  00442208     msvcrtd:tlssup.obj
 0006:00000000       ___guard_check_icall_fptr  00443000     msvcrtd:guard_support.obj

 entry point at        0001:00000aa5

 Static symbols

 0000:fffbe000       __guard_fids__             00400000     mfcs140d:nolib.obj
 0001:fffff000       __unwindfunclet$?TraceV@CTrace@ATL@@SAXPBDHII0PAD@Z$0 00400000 f   Stdafx.obj
 0001:fffff000       __unwindfunclet$??RCTraceFileAndLineInfo@ATL@@QBAXHIPBDZZ$0 00400000 f   Stdafx.obj
 0002:fffd1000       __unwindtable$?TraceV@CTrace@ATL@@SAXPBDHII0PAD@Z 00400000     Stdafx.obj
 0002:fffd1000       __unwindtable$??RCTraceFileAndLineInfo@ATL@@QBAXHIPBDZZ 00400000     Stdafx.obj
 0000:fffad000       .debug$S                   00400000     mfc140d:mfc140d.dll
 0000:fffad000       .debug$S                   00400000     mfc140d:mfc140d.dll
 0000:fffad000       .debug$S                   00400000     ucrtd:ucrtbased.dll
 0000:fffad000       .debug$S                   00400000     kernel32:KERNEL32.dll
 0000:fffbe000       __guard_fids__             00400000     mfcs140d:appmodul.obj
 0002:fffd1000       ?InitializeCAtlStringMgr$initializer$@ATLImplementationDetails@ATL@@3P6AXXZA 00400000     mfcs140d:appmodul.obj
 0000:fffbe000       __guard_fids__             00400000     mfcs140d:appmodul.obj
 0002:fffd1000       ?_AtlWinModule$initializer$@ATL@@3P6AXXZA 00400000     mfcs140d:appmodul.obj
 0000:fffbe000       __guard_fids__             00400000     mfcs140d:appmodul.obj
 0002:fffd1000       ?_AtlComModule$initializer$@ATL@@3P6AXXZA 00400000     mfcs140d:appmodul.obj
 0000:fffbe000       __guard_fids__             00400000     mfcs140d:appmodul.obj
 0002:fffd1000       ?atlTraceISAPI$initializer$@ATL@@3P6AXXZA 00400000     mfcs140d:appmodul.obj
 0000:fffbe000       __guard_fids__             00400000     mfcs140d:appmodul.obj
 0002:fffd1000       ?atlTraceSync$initializer$@ATL@@3P6AXXZA 00400000     mfcs140d:appmodul.obj
 0000:fffbe000       __guard_fids__             00400000     mfcs140d:appmodul.obj
 0002:fffd1000       ?atlTraceSecurity$initializer$@ATL@@3P6AXXZA 00400000     mfcs140d:appmodul.obj
 0000:fffbe000       __guard_fids__             00400000     mfcs140d:appmodul.obj
 0002:fffd1000       ?atlTraceUtil$initializer$@ATL@@3P6AXXZA 00400000     mfcs140d:appmodul.obj
 0000:fffbe000       __guard_fids__             00400000     mfcs140d:appmodul.obj
 0002:fffd1000       ?atlTraceMap$initializer$@ATL@@3P6AXXZA 00400000     mfcs140d:appmodul.obj
 0000:fffbe000       __guard_fids__             00400000     mfcs140d:appmodul.obj
 0002:fffd1000       ?atlTraceString$initializer$@ATL@@3P6AXXZA 00400000     mfcs140d:appmodul.obj
 0000:fffbe000       __guard_fids__             00400000     mfcs140d:appmodul.obj
 0002:fffd1000       ?atlTraceStencil$initializer$@ATL@@3P6AXXZA 00400000     mfcs140d:appmodul.obj
 0000:fffbe000       __guard_fids__             00400000     mfcs140d:appmodul.obj
 0002:fffd1000       ?atlTraceCache$initializer$@ATL@@3P6AXXZA 00400000     mfcs140d:appmodul.obj
 0000:fffbe000       __guard_fids__             00400000     mfcs140d:appmodul.obj
 0002:fffd1000       ?atlTraceTime$initializer$@ATL@@3P6AXXZA 00400000     mfcs140d:appmodul.obj
 0000:fffbe000       __guard_fids__             00400000     mfcs140d:appmodul.obj
 0002:fffd1000       ?atlTraceException$initializer$@ATL@@3P6AXXZA 00400000     mfcs140d:appmodul.obj
 0000:fffbe000       __guard_fids__             00400000     mfcs140d:appmodul.obj
 0002:fffd1000       ?atlTraceAllocation$initializer$@ATL@@3P6AXXZA 00400000     mfcs140d:appmodul.obj
 0000:fffbe000       __guard_fids__             00400000     mfcs140d:appmodul.obj
 0002:fffd1000       ?atlTraceNotImpl$initializer$@ATL@@3P6AXXZA 00400000     mfcs140d:appmodul.obj
 0000:fffbe000       __guard_fids__             00400000     mfcs140d:appmodul.obj
 0002:fffd1000       ?atlTraceSnapin$initializer$@ATL@@3P6AXXZA 00400000     mfcs140d:appmodul.obj
 0000:fffbe000       __guard_fids__             00400000     mfcs140d:appmodul.obj
 0002:fffd1000       ?atlTraceDBProvider$initializer$@ATL@@3P6AXXZA 00400000     mfcs140d:appmodul.obj
 0000:fffbe000       __guard_fids__             00400000     mfcs140d:appmodul.obj
 0002:fffd1000       ?atlTraceDBClient$initializer$@ATL@@3P6AXXZA 00400000     mfcs140d:appmodul.obj
 0000:fffbe000       __guard_fids__             00400000     mfcs140d:appmodul.obj
 0002:fffd1000       ?atlTraceHosting$initializer$@ATL@@3P6AXXZA 00400000     mfcs140d:appmodul.obj
 0000:fffbe000       __guard_fids__             00400000     mfcs140d:appmodul.obj
 0002:fffd1000       ?atlTraceControls$initializer$@ATL@@3P6AXXZA 00400000     mfcs140d:appmodul.obj
 0000:fffbe000       __guard_fids__             00400000     mfcs140d:appmodul.obj
 0002:fffd1000       ?atlTraceWindowing$initializer$@ATL@@3P6AXXZA 00400000     mfcs140d:appmodul.obj
 0000:fffbe000       __guard_fids__             00400000     mfcs140d:appmodul.obj
 0002:fffd1000       ?atlTraceRefcount$initializer$@ATL@@3P6AXXZA 00400000     mfcs140d:appmodul.obj
 0000:fffbe000       __guard_fids__             00400000     mfcs140d:appmodul.obj
 0002:fffd1000       ?atlTraceRegistrar$initializer$@ATL@@3P6AXXZA 00400000     mfcs140d:appmodul.obj
 0000:fffbe000       __guard_fids__             00400000     mfcs140d:appmodul.obj
 0002:fffd1000       ?atlTraceQI$initializer$@ATL@@3P6AXXZA 00400000     mfcs140d:appmodul.obj
 0000:fffbe000       __guard_fids__             00400000     mfcs140d:appmodul.obj
 0002:fffd1000       ?atlTraceCOM$initializer$@ATL@@3P6AXXZA 00400000     mfcs140d:appmodul.obj
 0000:fffbe000       __guard_fids__             00400000     mfcs140d:appmodul.obj
 0002:fffd1000       ?atlTraceGeneral$initializer$@ATL@@3P6AXXZA 00400000     mfcs140d:appmodul.obj
 0000:fffbe000       __guard_fids__             00400000     mfcs140d:appmodul.obj
 0000:fffbe000       __guard_fids__             00400000     mfcs140d:appmodul.obj
 0000:fffbe000       __guard_fids__             00400000     mfcs140d:appmodul.obj
 0000:fffbe000       __guard_fids__             00400000     mfcs140d:appmodul.obj
 0000:fffbe000       __guard_fids__             00400000     mfcs140d:appmodul.obj
 0000:fffbe000       __guard_fids__             00400000     mfcs140d:appmodul.obj
 0002:fffd1000       ?atlTraceException$initializer$@ATL@@3P6AXXZA 00400000     Stdafx.obj
 0000:fffad000       .debug$S                   00400000     ServiceCore:ServiceCore.dll
 0000:fffad000       .debug$S                   00400000     ServiceCore:ServiceCore.dll
 0002:fffd1000       __ehfuncinfo$??_Estringdispid@CComTypeInfoHolder@ATL@@QAEPAXI@Z 00400000     mfcs140d:appmodul.obj
 0000:fffbe000       __guard_fids_??_Estringdispid@CComTypeInfoHolder@ATL@@QAEPAXI@Z 00400000     mfcs140d:appmodul.obj
 0000:fffbe000       __guard_fids_?GetInstance@CAtlStringMgr@ATL@@SAPAUIAtlStringMgr@2@XZ 00400000     mfcs140d:appmodul.obj
 0000:fffbe000       __guard_fids_??__E_AtlWinModule@ATL@@YAXXZ 00400000     mfcs140d:appmodul.obj
 0002:fffd1000       __ehfuncinfo$??1CAtlWinModule@ATL@@QAE@XZ 00400000     mfcs140d:appmodul.obj
 0000:fffbe000       __guard_fids_??__E_AtlComModule@ATL@@YAXXZ 00400000     mfcs140d:appmodul.obj
 0002:fffd1000       __ehfuncinfo$??1CAtlComModule@ATL@@QAE@XZ 00400000     mfcs140d:appmodul.obj
 0002:fffd1000       __unwindtable$??0_ATL_WIN_MODULE70@ATL@@QAE@XZ 00400000     mfcs140d:appmodul.obj
 0000:fffad000       .debug$S                   00400000     ServiceCore:ServiceCore.dll
 0002:fffd1000       __ehfuncinfo$??1?$CSimpleArray@GV?$CSimpleArrayEqualHelper@G@ATL@@@ATL@@QAE@XZ 00400000     mfcs140d:appmodul.obj
 0002:fffd1000       __unwindtable$??RCTraceFileAndLineInfo@ATL@@QBAXHIPBDZZ 00400000     mfcs140d:appmodul.obj
 0000:fffad000       .debug$S                   00400000     ServiceCore:ServiceCore.dll
 0002:fffd1000       __unwindtable$?TraceV@CTrace@ATL@@SAXPBDHII0PAD@Z 00400000     mfcs140d:appmodul.obj
 0000:fffad000       .debug$S                   00400000     ServiceCore:ServiceCore.dll
 0002:fffd1000       __sehtable$_IsolationAwareUnregisterClassA@8 00400000     mfcs140d:appmodul.obj
 0002:fffd1000       __sehtable$_WinbaseIsolationAwarePrivatetRgzlnPgpgk@0 00400000     mfcs140d:appmodul.obj
 0001:fffff000       __ehhandler$??_Estringdispid@CComTypeInfoHolder@ATL@@QAEPAXI@Z 00400000 f   mfcs140d:appmodul.obj
 0000:fffad000       .debug$S                   00400000     ServiceCore:ServiceCore.dll
 0000:fffad000       .debug$S                   00400000     ServiceCore:ServiceCore.dll
 0000:fffad000       .debug$S                   00400000     ServiceCore:ServiceCore.dll
 0000:fffad000       .debug$S                   00400000     ServiceCore:ServiceCore.dll
 0000:fffad000       .debug$S                   00400000     ServiceCore:ServiceCore.dll
 0000:fffad000       .debug$S                   00400000     ServiceCore:ServiceCore.dll
 0000:fffad000       .debug$S                   00400000     ServiceCore:ServiceCore.dll
 0000:fffad000       .debug$S                   00400000     ServiceCore:ServiceCore.dll
 0001:fffff000       __ehhandler$??1CAtlWinModule@ATL@@QAE@XZ 00400000 f   mfcs140d:appmodul.obj
 0001:fffff000       __ehhandler$??1CAtlComModule@ATL@@QAE@XZ 00400000 f   mfcs140d:appmodul.obj
 0001:fffff000       __unwindfunclet$??0_ATL_WIN_MODULE70@ATL@@QAE@XZ$0 00400000 f   mfcs140d:appmodul.obj
 0000:fffad000       .debug$S                   00400000     ServiceCore:ServiceCore.dll
 0001:fffff000       __ehhandler$??1?$CSimpleArray@GV?$CSimpleArrayEqualHelper@G@ATL@@@ATL@@QAE@XZ 00400000 f   mfcs140d:appmodul.obj
 0001:fffff000       __unwindfunclet$??RCTraceFileAndLineInfo@ATL@@QBAXHIPBDZZ$0 00400000 f   mfcs140d:appmodul.obj
 0000:fffad000       .debug$S                   00400000     ServiceCore:ServiceCore.dll
 0000:fffad000       .debug$S                   00400000     ServiceCore:ServiceCore.dll
 0000:fffad000       .debug$S                   00400000     KernelEngine:KernelEngine.dll
 0000:fffad000       .debug$S                   00400000     KernelEngine:KernelEngine.dll
 0000:fffad000       .debug$S                   00400000     KernelEngine:KernelEngine.dll
 0000:fffad000       .debug$S                   00400000     KernelEngine:KernelEngine.dll
 0000:fffad000       .debug$S                   00400000     KernelEngine:KernelEngine.dll
 0000:fffad000       .debug$S                   00400000     KernelEngine:KernelEngine.dll
 0000:fffad000       .debug$S                   00400000     KernelEngine:KernelEngine.dll
 0000:fffad000       .debug$S                   00400000     KernelEngine:KernelEngine.dll
 0000:fffad000       .debug$S                   00400000     KernelEngine:KernelEngine.dll
 0000:fffad000       .debug$S                   00400000     KernelEngine:KernelEngine.dll
 0000:fffad000       .debug$S                   00400000     KernelEngine:KernelEngine.dll
 0000:fffad000       .debug$S                   00400000     KernelEngine:KernelEngine.dll
 0001:fffff000       __unwindfunclet$?TraceV@CTrace@ATL@@SAXPBDHII0PAD@Z$0 00400000 f   mfcs140d:appmodul.obj
 0000:fffad000       .debug$S                   00400000     KernelEngine:KernelEngine.dll
 0000:fffad000       .debug$S                   00400000     KernelEngine:KernelEngine.dll
 0000:fffad000       .debug$S                   00400000     KernelEngine:KernelEngine.dll
 0000:fffad000       .debug$S                   00400000     KernelEngine:KernelEngine.dll
 0000:fffad000       .debug$S                   00400000     KernelEngine:KernelEngine.dll
 0000:fffad000       .debug$S                   00400000     KernelEngine:KernelEngine.dll
 0000:fffad000       .debug$S                   00400000     KernelEngine:KernelEngine.dll
 0000:fffad000       .debug$S                   00400000     mfc140d:mfc140d.dll
 0000:fffad000       .debug$S                   00400000     mfc140d:mfc140d.dll
 0000:fffad000       .debug$S                   00400000     mfc140d:mfc140d.dll
 0000:fffad000       .debug$S                   00400000     mfc140d:mfc140d.dll
 0000:fffad000       .debug$S                   00400000     mfc140d:mfc140d.dll
 0000:fffad000       .debug$S                   00400000     mfc140d:mfc140d.dll
 0000:fffad000       .debug$S                   00400000     mfc140d:mfc140d.dll
 0000:fffad000       .debug$S                   00400000     mfc140d:mfc140d.dll
 0000:fffad000       .debug$S                   00400000     mfc140d:mfc140d.dll
 0000:fffad000       .debug$S                   00400000     mfc140d:mfc140d.dll
 0000:fffad000       .debug$S                   00400000     mfc140d:mfc140d.dll
 0000:fffad000       .debug$S                   00400000     mfc140d:mfc140d.dll
 0000:fffad000       .debug$S                   00400000     mfc140d:mfc140d.dll
 0000:fffad000       .debug$S                   00400000     mfc140d:mfc140d.dll
 0000:fffad000       .debug$S                   00400000     mfc140d:mfc140d.dll
 0000:fffad000       .debug$S                   00400000     mfc140d:mfc140d.dll
 0000:fffad000       .debug$S                   00400000     mfc140d:mfc140d.dll
 0000:fffad000       .debug$S                   00400000     mfc140d:mfc140d.dll
 0000:fffad000       .debug$S                   00400000     mfc140d:mfc140d.dll
 0000:fffad000       .debug$S                   00400000     mfc140d:mfc140d.dll
 0000:fffad000       .debug$S                   00400000     mfc140d:mfc140d.dll
 0000:fffad000       .debug$S                   00400000     mfc140d:mfc140d.dll
 0000:fffad000       .debug$S                   00400000     mfc140d:mfc140d.dll
 0000:fffad000       .debug$S                   00400000     mfc140d:mfc140d.dll
 0000:fffad000       .debug$S                   00400000     mfc140d:mfc140d.dll
 0000:fffad000       .debug$S                   00400000     mfc140d:mfc140d.dll
 0000:fffad000       .debug$S                   00400000     mfc140d:mfc140d.dll
 0000:fffad000       .debug$S                   00400000     mfc140d:mfc140d.dll
 0000:fffad000       .debug$S                   00400000     mfc140d:mfc140d.dll
 0000:fffad000       .debug$S                   00400000     mfc140d:mfc140d.dll
 0000:fffad000       .debug$S                   00400000     mfc140d:mfc140d.dll
 0000:fffad000       .debug$S                   00400000     mfc140d:mfc140d.dll
 0000:fffad000       .debug$S                   00400000     mfc140d:mfc140d.dll
 0000:fffad000       .debug$S                   00400000     mfc140d:mfc140d.dll
 0000:fffad000       .debug$S                   00400000     mfc140d:mfc140d.dll
 0000:fffad000       .debug$S                   00400000     mfc140d:mfc140d.dll
 0000:fffad000       .debug$S                   00400000     mfc140d:mfc140d.dll
 0000:fffad000       .debug$S                   00400000     mfc140d:mfc140d.dll
 0000:fffad000       .debug$S                   00400000     mfc140d:mfc140d.dll
 0000:fffad000       .debug$S                   00400000     mfc140d:mfc140d.dll
 0000:fffad000       .debug$S                   00400000     mfc140d:mfc140d.dll
 0000:fffad000       .debug$S                   00400000     mfc140d:mfc140d.dll
 0000:fffad000       .debug$S                   00400000     mfc140d:mfc140d.dll
 0000:fffad000       .debug$S                   00400000     mfc140d:mfc140d.dll
 0000:fffad000       .debug$S                   00400000     mfc140d:mfc140d.dll
 0000:fffad000       .debug$S                   00400000     mfc140d:mfc140d.dll
 0000:fffad000       .debug$S                   00400000     mfc140d:mfc140d.dll
 0000:fffbe000       __guard_fids__             00400000     mfcs140d:appmodul.obj
 0000:fffad000       .debug$S                   00400000     mfc140d:mfc140d.dll
 0000:fffad000       .debug$S                   00400000     ucrtd:ucrtbased.dll
 0000:fffad000       .debug$S                   00400000     ucrtd:ucrtbased.dll
 0000:fffad000       .debug$S                   00400000     ucrtd:ucrtbased.dll
 0000:fffad000       .debug$S                   00400000     ucrtd:ucrtbased.dll
 0000:fffad000       .debug$S                   00400000     ucrtd:ucrtbased.dll
 0000:fffad000       .debug$S                   00400000     ucrtd:ucrtbased.dll
 0000:fffad000       .debug$S                   00400000     ucrtd:ucrtbased.dll
 0000:fffad000       .debug$S                   00400000     ucrtd:ucrtbased.dll
 0000:fffad000       .debug$S                   00400000     ucrtd:ucrtbased.dll
 0000:fffad000       .debug$S                   00400000     ucrtd:ucrtbased.dll
 0000:fffad000       .debug$S                   00400000     ucrtd:ucrtbased.dll
 0000:fffad000       .debug$S                   00400000     ucrtd:ucrtbased.dll
 0000:fffad000       .debug$S                   00400000     ucrtd:ucrtbased.dll
 0000:fffad000       .debug$S                   00400000     ucrtd:ucrtbased.dll
 0000:fffad000       .debug$S                   00400000     ucrtd:ucrtbased.dll
 0000:fffad000       .debug$S                   00400000     ucrtd:ucrtbased.dll
 0000:fffad000       .debug$S                   00400000     ucrtd:ucrtbased.dll
 0000:fffad000       .debug$S                   00400000     ucrtd:ucrtbased.dll
 0000:fffad000       .debug$S                   00400000     ucrtd:ucrtbased.dll
 0000:fffad000       .debug$S                   00400000     ucrtd:ucrtbased.dll
 0000:fffad000       .debug$S                   00400000     ucrtd:ucrtbased.dll
 0000:fffad000       .debug$S                   00400000     ucrtd:ucrtbased.dll
 0000:fffad000       .debug$S                   00400000     ucrtd:ucrtbased.dll
 0000:fffad000       .debug$S                   00400000     ucrtd:ucrtbased.dll
 0000:fffad000       .debug$S                   00400000     ucrtd:ucrtbased.dll
 0000:fffad000       .debug$S                   00400000     ucrtd:ucrtbased.dll
 0000:fffad000       .debug$S                   00400000     ucrtd:ucrtbased.dll
 0000:fffad000       .debug$S                   00400000     ucrtd:ucrtbased.dll
 0000:fffad000       .debug$S                   00400000     ucrtd:ucrtbased.dll
 0000:fffad000       .debug$S                   00400000     ucrtd:ucrtbased.dll
 0000:fffad000       .debug$S                   00400000     ucrtd:ucrtbased.dll
 0000:fffad000       .debug$S                   00400000     ucrtd:ucrtbased.dll
 0000:fffad000       .debug$S                   00400000     ucrtd:ucrtbased.dll
 0000:fffad000       .debug$S                   00400000     ucrtd:ucrtbased.dll
 0000:fffad000       .debug$S                   00400000     ucrtd:ucrtbased.dll
 0000:fffad000       .debug$S                   00400000     ucrtd:ucrtbased.dll
 0000:fffad000       .debug$S                   00400000     ucrtd:ucrtbased.dll
 0000:fffad000       .debug$S                   00400000     ucrtd:ucrtbased.dll
 0000:fffad000       .debug$S                   00400000     ucrtd:ucrtbased.dll
 0000:fffad000       .debug$S                   00400000     ucrtd:ucrtbased.dll
 0000:fffad000       .debug$S                   00400000     ucrtd:ucrtbased.dll
 0000:fffad000       .debug$S                   00400000     ucrtd:ucrtbased.dll
 0000:fffad000       .debug$S                   00400000     ucrtd:ucrtbased.dll
 0000:fffad000       .debug$S                   00400000     ucrtd:ucrtbased.dll
 0000:fffad000       .debug$S                   00400000     ucrtd:ucrtbased.dll
 0000:fffad000       .debug$S                   00400000     ucrtd:ucrtbased.dll
 0000:fffad000       .debug$S                   00400000     ucrtd:ucrtbased.dll
 0000:fffad000       .debug$S                   00400000     ucrtd:ucrtbased.dll
 0000:fffad000       .debug$S                   00400000     ucrtd:ucrtbased.dll
 0000:fffad000       .debug$S                   00400000     ucrtd:ucrtbased.dll
 0000:fffad000       .debug$S                   00400000     ucrtd:ucrtbased.dll
 0000:fffad000       .debug$S                   00400000     ucrtd:ucrtbased.dll
 0000:fffad000       .debug$S                   00400000     ucrtd:ucrtbased.dll
 0000:fffad000       .debug$S                   00400000     ucrtd:ucrtbased.dll
 0000:fffad000       .debug$S                   00400000     ucrtd:ucrtbased.dll
 0000:fffad000       .debug$S                   00400000     ucrtd:ucrtbased.dll
 0000:fffad000       .debug$S                   00400000     ucrtd:ucrtbased.dll
 0000:fffad000       .debug$S                   00400000     mfc140d:mfc140d.dll
 0000:fffad000       .debug$S                   00400000     vcruntimed:VCRUNTIME140D.dll
 0000:fffad000       .debug$S                   00400000     vcruntimed:VCRUNTIME140D.dll
 0000:fffad000       .debug$S                   00400000     vcruntimed:VCRUNTIME140D.dll
 0000:fffad000       .debug$S                   00400000     vcruntimed:VCRUNTIME140D.dll
 0000:fffad000       .debug$S                   00400000     vcruntimed:VCRUNTIME140D.dll
 0000:fffad000       .debug$S                   00400000     vcruntimed:VCRUNTIME140D.dll
 0000:fffad000       .debug$S                   00400000     vcruntimed:VCRUNTIME140D.dll
 0000:fffad000       .debug$S                   00400000     vcruntimed:VCRUNTIME140D.dll
 0000:fffad000       .debug$S                   00400000     vcruntimed:VCRUNTIME140D.dll
 0000:fffad000       .debug$S                   00400000     vcruntimed:VCRUNTIME140D.dll
 0000:fffad000       .debug$S                   00400000     vcruntimed:VCRUNTIME140D.dll
 0000:fffad000       .debug$S                   00400000     vcruntimed:VCRUNTIME140D.dll
 0000:fffad000       .debug$S                   00400000     mfc140d:mfc140d.dll
 0000:fffad000       .debug$S                   00400000     msvcprtd:MSVCP140D.dll
 0000:fffad000       .debug$S                   00400000     msvcprtd:MSVCP140D.dll
 0000:fffad000       .debug$S                   00400000     msvcprtd:MSVCP140D.dll
 0000:fffad000       .debug$S                   00400000     msvcprtd:MSVCP140D.dll
 0000:fffad000       .debug$S                   00400000     msvcprtd:MSVCP140D.dll
 0000:fffad000       .debug$S                   00400000     msvcprtd:MSVCP140D.dll
 0000:fffad000       .debug$S                   00400000     msvcprtd:MSVCP140D.dll
 0000:fffad000       .debug$S                   00400000     mfc140d:mfc140d.dll
 0000:fffad000       .debug$S                   00400000     oleaut32:OLEAUT32.dll
 0000:fffad000       .debug$S                   00400000     oleaut32:OLEAUT32.dll
 0000:fffad000       .debug$S                   00400000     oleaut32:OLEAUT32.dll
 0000:fffbe000       __guard_fids__             00400000     atls:atlbase.obj
 0000:fffad000       .debug$S                   00400000     mfc140d:mfc140d.dll
 0000:fffbe000       __guard_fids_??__E_AtlBaseModule@ATL@@YAXXZ 00400000     atls:atlbase.obj
 0000:fffad000       .debug$S                   00400000     mfc140d:mfc140d.dll
 0000:fffad000       .debug$S                   00400000     mfc140d:mfc140d.dll
 0000:fffad000       .debug$S                   00400000     mfc140d:mfc140d.dll
 0000:fffad000       .debug$S                   00400000     mfc140d:mfc140d.dll
 0000:fffad000       .debug$S                   00400000     comctl32:COMCTL32.dll
 0000:fffad000       .debug$S                   00400000     mfc140d:mfc140d.dll
 0000:fffad000       .debug$S                   00400000     user32:USER32.dll
 0000:fffad000       .debug$S                   00400000     user32:USER32.dll
 0000:fffad000       .debug$S                   00400000     user32:USER32.dll
 0000:fffad000       .debug$S                   00400000     user32:USER32.dll
 0000:fffad000       .debug$S                   00400000     user32:USER32.dll
 0000:fffad000       .debug$S                   00400000     mfc140d:mfc140d.dll
 0000:fffad000       .debug$S                   00400000     kernel32:KERNEL32.dll
 0000:fffad000       .debug$S                   00400000     kernel32:KERNEL32.dll
 0000:fffad000       .debug$S                   00400000     kernel32:KERNEL32.dll
 0000:fffad000       .debug$S                   00400000     kernel32:KERNEL32.dll
 0000:fffad000       .debug$S                   00400000     kernel32:KERNEL32.dll
 0000:fffad000       .debug$S                   00400000     kernel32:KERNEL32.dll
 0000:fffad000       .debug$S                   00400000     kernel32:KERNEL32.dll
 0000:fffad000       .debug$S                   00400000     kernel32:KERNEL32.dll
 0000:fffad000       .debug$S                   00400000     kernel32:KERNEL32.dll
 0000:fffad000       .debug$S                   00400000     kernel32:KERNEL32.dll
 0000:fffad000       .debug$S                   00400000     kernel32:KERNEL32.dll
 0000:fffad000       .debug$S                   00400000     kernel32:KERNEL32.dll
 0000:fffad000       .debug$S                   00400000     kernel32:KERNEL32.dll
 0000:fffad000       .debug$S                   00400000     kernel32:KERNEL32.dll
 0000:fffad000       .debug$S                   00400000     kernel32:KERNEL32.dll
 0000:fffad000       .debug$S                   00400000     kernel32:KERNEL32.dll
 0000:fffad000       .debug$S                   00400000     kernel32:KERNEL32.dll
 0000:fffad000       .debug$S                   00400000     kernel32:KERNEL32.dll
 0000:fffad000       .debug$S                   00400000     kernel32:KERNEL32.dll
 0000:fffad000       .debug$S                   00400000     kernel32:KERNEL32.dll
 0000:fffad000       .debug$S                   00400000     kernel32:KERNEL32.dll
 0000:fffad000       .debug$S                   00400000     kernel32:KERNEL32.dll
 0000:fffad000       .debug$S                   00400000     kernel32:KERNEL32.dll
 0000:fffad000       .debug$S                   00400000     kernel32:KERNEL32.dll
 0000:fffad000       .debug$S                   00400000     kernel32:KERNEL32.dll
 0000:fffad000       .debug$S                   00400000     kernel32:KERNEL32.dll
 0000:fffad000       .debug$S                   00400000     kernel32:KERNEL32.dll
 0000:fffad000       .debug$S                   00400000     kernel32:KERNEL32.dll
 0000:fffad000       .debug$S                   00400000     kernel32:KERNEL32.dll
 0000:fffad000       .debug$S                   00400000     kernel32:KERNEL32.dll
 0000:fffad000       .debug$S                   00400000     kernel32:KERNEL32.dll
 0000:fffad000       .debug$S                   00400000     kernel32:KERNEL32.dll
 0000:fffad000       .debug$S                   00400000     kernel32:KERNEL32.dll
 0000:fffad000       .debug$S                   00400000     kernel32:KERNEL32.dll
 0000:fffad000       .debug$S                   00400000     kernel32:KERNEL32.dll
 0000:fffad000       .debug$S                   00400000     kernel32:KERNEL32.dll
 0000:fffad000       .debug$S                   00400000     kernel32:KERNEL32.dll
 0000:fffad000       .debug$S                   00400000     kernel32:KERNEL32.dll
 0000:fffad000       .debug$S                   00400000     kernel32:KERNEL32.dll
 0000:fffad000       .debug$S                   00400000     kernel32:KERNEL32.dll
 0000:fffad000       .debug$S                   00400000     kernel32:KERNEL32.dll
 0000:fffad000       .debug$S                   00400000     kernel32:KERNEL32.dll
 0000:fffad000       .debug$S                   00400000     kernel32:KERNEL32.dll
 0000:fffad000       .debug$S                   00400000     kernel32:KERNEL32.dll
 0000:fffad000       .debug$S                   00400000     kernel32:KERNEL32.dll
 0000:fffad000       .debug$S                   00400000     mfc140d:mfc140d.dll
 0000:fffad000       .debug$S                   00400000     mfc140d:mfc140d.dll
 0000:fffad000       .debug$S                   00400000     mfc140d:mfc140d.dll
 0000:fffad000       .debug$S                   00400000     mfc140d:mfc140d.dll
 0000:fffad000       .debug$S                   00400000     mfc140d:mfc140d.dll
 0000:fffad000       .debug$S                   00400000     mfc140d:mfc140d.dll
 0000:fffad000       .debug$S                   00400000     mfc140d:mfc140d.dll
 0000:fffad000       .debug$S                   00400000     mfc140d:mfc140d.dll
 0000:fffad000       .debug$S                   00400000     mfc140d:mfc140d.dll
 0000:fffad000       .debug$S                   00400000     mfc140d:mfc140d.dll
 0000:fffad000       .debug$S                   00400000     mfc140d:mfc140d.dll
 0000:fffad000       .debug$S                   00400000     mfc140d:mfc140d.dll
 0000:fffad000       .debug$S                   00400000     mfc140d:mfc140d.dll
 0000:fffad000       .debug$S                   00400000     mfc140d:mfc140d.dll
 0000:fffad000       .debug$S                   00400000     mfc140d:mfc140d.dll
 0000:fffad000       .debug$S                   00400000     mfc140d:mfc140d.dll
 0000:fffad000       .debug$S                   00400000     mfc140d:mfc140d.dll
 0000:fffad000       .debug$S                   00400000     mfc140d:mfc140d.dll
 0000:fffad000       .debug$S                   00400000     mfc140d:mfc140d.dll
 0000:fffad000       .debug$S                   00400000     mfc140d:mfc140d.dll
 0000:fffad000       .debug$S                   00400000     mfc140d:mfc140d.dll
 0000:fffad000       .debug$S                   00400000     mfc140d:mfc140d.dll
 0000:fffad000       .debug$S                   00400000     mfc140d:mfc140d.dll
 0000:fffad000       .debug$S                   00400000     mfc140d:mfc140d.dll
 0000:fffad000       .debug$S                   00400000     mfc140d:mfc140d.dll
 0000:fffad000       .debug$S                   00400000     mfc140d:mfc140d.dll
 0000:fffad000       .debug$S                   00400000     mfc140d:mfc140d.dll
 0000:fffbe000       __guard_fids____scrt_set_unhandled_exception_filter 00400000     msvcrtd:utility_desktop.obj
 0000:fffad000       .debug$S                   00400000     mfc140d:mfc140d.dll
 0000:fffad000       .debug$S                   00400000     mfc140d:mfc140d.dll
 0000:fffad000       .debug$S                   00400000     mfc140d:mfc140d.dll
 0000:fffbe000       __guard_fids___guard_icall_checks_enforced 00400000     msvcrtd:guard_support.obj
 0000:fffbe000       __guard_fids__             00400000     msvcrtd:guard_support.obj
 0000:fffbe000       __guard_fids___except_handler4 00400000     msvcrtd:chandler4gs.obj
 0000:fffad000       .debug$S                   00400000     mfc140d:mfc140d.dll
 0000:fffbe000       __guard_fids___CRT_RTC_INITW 00400000     msvcrtd:init.obj
 0000:fffbe000       __guard_fids___CRT_RTC_INIT 00400000     msvcrtd:init.obj
 0000:fffad000       .debug$S                   00400000     mfc140d:mfc140d.dll
 0000:fffbe000       __guard_fids_?pre_c_initialization@@YAHXZ 00400000     msvcrtd:exe_winmain.obj
 0000:fffad000       .debug$S                   00400000     mfc140d:mfc140d.dll
 0000:fffad000       .debug$S                   00400000     mfc140d:mfc140d.dll
 0000:fffad000       .debug$S                   00400000     mfc140d:mfc140d.dll
 0000:fffad000       .debug$S                   00400000     mfc140d:mfc140d.dll
 0000:fffad000       .debug$S                   00400000     mfc140d:mfc140d.dll
 0000:fffbe000       __guard_fids__             00400000     msvcrtd:exe_winmain.obj
 0000:fffad000       .debug$S                   00400000     mfc140d:mfc140d.dll
 0000:fffad000       .debug$S                   00400000     mfc140d:mfc140d.dll
 0000:fffad000       .debug$S                   00400000     mfc140d:mfc140d.dll
 0000:fffad000       .debug$S                   00400000     mfc140d:mfc140d.dll
 0000:fffad000       .debug$S                   00400000     mfc140d:mfc140d.dll
 0000:fffad000       .debug$S                   00400000     mfc140d:mfc140d.dll
 0000:fffad000       .debug$S                   00400000     mfc140d:mfc140d.dll
 0000:fffad000       .debug$S                   00400000     mfc140d:mfc140d.dll
 0000:fffad000       .debug$S                   00400000     mfc140d:mfc140d.dll
 0000:fffad000       .debug$S                   00400000     mfc140d:mfc140d.dll
 0000:fffad000       .debug$S                   00400000     mfc140d:mfc140d.dll
 0000:fffbe000       __guard_fids_?__scrt_initialize_thread_safe_statics@@YAHXZ 00400000     msvcrtd:thread_safe_statics.obj
 0000:fffad000       .debug$S                   00400000     mfc140d:mfc140d.dll
 0000:fffad000       .debug$S                   00400000     mfc140d:mfc140d.dll
 0000:fffad000       .debug$S                   00400000     mfc140d:mfc140d.dll
 0000:fffad000       .debug$S                   00400000     mfc140d:mfc140d.dll
 0000:fffad000       .debug$S                   00400000     mfc140d:mfc140d.dll
 0000:fffad000       .debug$S                   00400000     mfc140d:mfc140d.dll
 0000:fffbe000       __guard_fids__             00400000     msvcrtd:thread_safe_statics.obj
 0000:fffad000       .debug$S                   00400000     mfc140d:mfc140d.dll
 0000:fffad000       .debug$S                   00400000     mfc140d:mfc140d.dll
 0000:fffad000       .debug$S                   00400000     mfc140d:mfc140d.dll
 0000:fffad000       .debug$S                   00400000     mfc140d:mfc140d.dll
 0000:fffad000       .debug$S                   00400000     mfc140d:mfc140d.dll
 0000:fffad000       .debug$S                   00400000     mfc140d:mfc140d.dll
 0000:fffad000       .debug$S                   00400000     mfc140d:mfc140d.dll
 0000:fffad000       .debug$S                   00400000     mfc140d:mfc140d.dll
 0000:fffad000       .debug$S                   00400000     mfc140d:mfc140d.dll
 0000:fffad000       .debug$S                   00400000     mfc140d:mfc140d.dll
 0000:fffad000       .debug$S                   00400000     mfc140d:mfc140d.dll
 0000:fffad000       .debug$S                   00400000     mfc140d:mfc140d.dll
 0000:fffad000       .debug$S                   00400000     mfc140d:mfc140d.dll
 0000:fffad000       .debug$S                   00400000     mfc140d:mfc140d.dll
 0000:fffad000       .debug$S                   00400000     mfc140d:mfc140d.dll
 0000:fffad000       .debug$S                   00400000     mfc140d:mfc140d.dll
 0000:fffad000       .debug$S                   00400000     mfc140d:mfc140d.dll
 0000:fffad000       .debug$S                   00400000     mfc140d:mfc140d.dll
 0000:fffad000       .debug$S                   00400000     mfc140d:mfc140d.dll
 0000:fffad000       .debug$S                   00400000     mfc140d:mfc140d.dll
 0000:fffad000       .debug$S                   00400000     mfc140d:mfc140d.dll
 0000:fffad000       .debug$S                   00400000     mfc140d:mfc140d.dll
 0000:fffad000       .debug$S                   00400000     mfc140d:mfc140d.dll
 0000:fffad000       .debug$S                   00400000     mfc140d:mfc140d.dll
 0000:fffad000       .debug$S                   00400000     mfc140d:mfc140d.dll
 0000:fffad000       .debug$S                   00400000     mfc140d:mfc140d.dll
 0000:fffad000       .debug$S                   00400000     mfc140d:mfc140d.dll
 0000:fffad000       .debug$S                   00400000     mfc140d:mfc140d.dll
 0000:fffad000       .debug$S                   00400000     mfc140d:mfc140d.dll
 0000:fffad000       .debug$S                   00400000     mfc140d:mfc140d.dll
 0000:fffad000       .debug$S                   00400000     mfc140d:mfc140d.dll
 0000:fffad000       .debug$S                   00400000     mfc140d:mfc140d.dll
 0000:fffbe000       __guard_fids__             00400000     msvcrtd:std_type_info_static.obj
 0000:fffad000       .debug$S                   00400000     mfc140d:mfc140d.dll
 0000:fffbe000       __guard_fids__             00400000     mfcs140d:stdafx.obj
 0002:fffd1000       ?InitializeCAtlStringMgr$initializer$@ATLImplementationDetails@ATL@@3P6AXXZA 00400000     mfcs140d:stdafx.obj
 0000:fffbe000       __guard_fids__             00400000     mfcs140d:stdafx.obj
 0002:fffd1000       ?_AtlWinModule$initializer$@ATL@@3P6AXXZA 00400000     mfcs140d:stdafx.obj
 0000:fffbe000       __guard_fids__             00400000     mfcs140d:stdafx.obj
 0002:fffd1000       ?_AtlComModule$initializer$@ATL@@3P6AXXZA 00400000     mfcs140d:stdafx.obj
 0000:fffbe000       __guard_fids__             00400000     mfcs140d:stdafx.obj
 0002:fffd1000       ?atlTraceISAPI$initializer$@ATL@@3P6AXXZA 00400000     mfcs140d:stdafx.obj
 0000:fffbe000       __guard_fids__             00400000     mfcs140d:stdafx.obj
 0002:fffd1000       ?atlTraceSync$initializer$@ATL@@3P6AXXZA 00400000     mfcs140d:stdafx.obj
 0000:fffbe000       __guard_fids__             00400000     mfcs140d:stdafx.obj
 0002:fffd1000       ?atlTraceSecurity$initializer$@ATL@@3P6AXXZA 00400000     mfcs140d:stdafx.obj
 0000:fffbe000       __guard_fids__             00400000     mfcs140d:stdafx.obj
 0002:fffd1000       ?atlTraceUtil$initializer$@ATL@@3P6AXXZA 00400000     mfcs140d:stdafx.obj
 0000:fffbe000       __guard_fids__             00400000     mfcs140d:stdafx.obj
 0002:fffd1000       ?atlTraceMap$initializer$@ATL@@3P6AXXZA 00400000     mfcs140d:stdafx.obj
 0000:fffbe000       __guard_fids__             00400000     mfcs140d:stdafx.obj
 0002:fffd1000       ?atlTraceString$initializer$@ATL@@3P6AXXZA 00400000     mfcs140d:stdafx.obj
 0000:fffbe000       __guard_fids__             00400000     mfcs140d:stdafx.obj
 0002:fffd1000       ?atlTraceStencil$initializer$@ATL@@3P6AXXZA 00400000     mfcs140d:stdafx.obj
 0000:fffbe000       __guard_fids__             00400000     mfcs140d:stdafx.obj
 0002:fffd1000       ?atlTraceCache$initializer$@ATL@@3P6AXXZA 00400000     mfcs140d:stdafx.obj
 0000:fffbe000       __guard_fids__             00400000     mfcs140d:stdafx.obj
 0002:fffd1000       ?atlTraceTime$initializer$@ATL@@3P6AXXZA 00400000     mfcs140d:stdafx.obj
 0000:fffbe000       __guard_fids__             00400000     mfcs140d:stdafx.obj
 0002:fffd1000       ?atlTraceException$initializer$@ATL@@3P6AXXZA 00400000     mfcs140d:stdafx.obj
 0000:fffbe000       __guard_fids__             00400000     mfcs140d:stdafx.obj
 0002:fffd1000       ?atlTraceAllocation$initializer$@ATL@@3P6AXXZA 00400000     mfcs140d:stdafx.obj
 0000:fffbe000       __guard_fids__             00400000     mfcs140d:stdafx.obj
 0002:fffd1000       ?atlTraceNotImpl$initializer$@ATL@@3P6AXXZA 00400000     mfcs140d:stdafx.obj
 0000:fffbe000       __guard_fids__             00400000     mfcs140d:stdafx.obj
 0002:fffd1000       ?atlTraceSnapin$initializer$@ATL@@3P6AXXZA 00400000     mfcs140d:stdafx.obj
 0000:fffbe000       __guard_fids__             00400000     mfcs140d:stdafx.obj
 0002:fffd1000       ?atlTraceDBProvider$initializer$@ATL@@3P6AXXZA 00400000     mfcs140d:stdafx.obj
 0000:fffbe000       __guard_fids__             00400000     mfcs140d:stdafx.obj
 0002:fffd1000       ?atlTraceDBClient$initializer$@ATL@@3P6AXXZA 00400000     mfcs140d:stdafx.obj
 0000:fffbe000       __guard_fids__             00400000     mfcs140d:stdafx.obj
 0002:fffd1000       ?atlTraceHosting$initializer$@ATL@@3P6AXXZA 00400000     mfcs140d:stdafx.obj
 0000:fffbe000       __guard_fids__             00400000     mfcs140d:stdafx.obj
 0002:fffd1000       ?atlTraceControls$initializer$@ATL@@3P6AXXZA 00400000     mfcs140d:stdafx.obj
 0000:fffbe000       __guard_fids__             00400000     mfcs140d:stdafx.obj
 0002:fffd1000       ?atlTraceWindowing$initializer$@ATL@@3P6AXXZA 00400000     mfcs140d:stdafx.obj
 0000:fffbe000       __guard_fids__             00400000     mfcs140d:stdafx.obj
 0002:fffd1000       ?atlTraceRefcount$initializer$@ATL@@3P6AXXZA 00400000     mfcs140d:stdafx.obj
 0000:fffbe000       __guard_fids__             00400000     mfcs140d:stdafx.obj
 0002:fffd1000       ?atlTraceRegistrar$initializer$@ATL@@3P6AXXZA 00400000     mfcs140d:stdafx.obj
 0000:fffbe000       __guard_fids__             00400000     mfcs140d:stdafx.obj
 0002:fffd1000       ?atlTraceQI$initializer$@ATL@@3P6AXXZA 00400000     mfcs140d:stdafx.obj
 0000:fffbe000       __guard_fids__             00400000     mfcs140d:stdafx.obj
 0002:fffd1000       ?atlTraceCOM$initializer$@ATL@@3P6AXXZA 00400000     mfcs140d:stdafx.obj
 0000:fffbe000       __guard_fids__             00400000     mfcs140d:stdafx.obj
 0000:fffbe000       __guard_fids__             00400000     mfcs140d:stdafx.obj
 0000:fffbe000       __guard_fids__             00400000     mfcs140d:stdafx.obj
 0000:fffbe000       __guard_fids__             00400000     mfcs140d:stdafx.obj
 0000:fffbe000       __guard_fids__             00400000     mfcs140d:stdafx.obj
 0000:fffbe000       __guard_fids__             00400000     mfcs140d:stdafx.obj
 0002:fffd1000       ?atlTraceGeneral$initializer$@ATL@@3P6AXXZA 00400000     mfcs140d:stdafx.obj
 0000:fffad000       .debug$S                   00400000     mfc140d:mfc140d.dll
 0000:fffad000       .debug$S                   00400000     mfc140d:mfc140d.dll
 0002:fffd1000       __ehfuncinfo$??_Estringdispid@CComTypeInfoHolder@ATL@@QAEPAXI@Z 00400000     mfcs140d:stdafx.obj
 0000:fffbe000       __guard_fids_??_Estringdispid@CComTypeInfoHolder@ATL@@QAEPAXI@Z 00400000     mfcs140d:stdafx.obj
 0000:fffbe000       __guard_fids_?GetInstance@CAtlStringMgr@ATL@@SAPAUIAtlStringMgr@2@XZ 00400000     mfcs140d:stdafx.obj
 0000:fffbe000       __guard_fids_??__E_AtlWinModule@ATL@@YAXXZ 00400000     mfcs140d:stdafx.obj
 0002:fffd1000       __ehfuncinfo$??1CAtlWinModule@ATL@@QAE@XZ 00400000     mfcs140d:stdafx.obj
 0000:fffbe000       __guard_fids_??__E_AtlComModule@ATL@@YAXXZ 00400000     mfcs140d:stdafx.obj
 0002:fffd1000       __ehfuncinfo$??1CAtlComModule@ATL@@QAE@XZ 00400000     mfcs140d:stdafx.obj
 0002:fffd1000       __unwindtable$??0_ATL_WIN_MODULE70@ATL@@QAE@XZ 00400000     mfcs140d:stdafx.obj
 0000:fffad000       .debug$S                   00400000     mfc140d:mfc140d.dll
 0002:fffd1000       __ehfuncinfo$??1?$CSimpleArray@GV?$CSimpleArrayEqualHelper@G@ATL@@@ATL@@QAE@XZ 00400000     mfcs140d:stdafx.obj
 0002:fffd1000       __unwindtable$??RCTraceFileAndLineInfo@ATL@@QBAXHIPBDZZ 00400000     mfcs140d:stdafx.obj
 0000:fffad000       .debug$S                   00400000     mfc140d:mfc140d.dll
 0002:fffd1000       __unwindtable$?TraceV@CTrace@ATL@@SAXPBDHII0PAD@Z 00400000     mfcs140d:stdafx.obj
 0000:fffad000       .debug$S                   00400000     mfc140d:mfc140d.dll
 0002:fffd1000       __sehtable$_IsolationAwareUnregisterClassA@8 00400000     mfcs140d:stdafx.obj
 0002:fffd1000       __sehtable$_WinbaseIsolationAwarePrivatetRgzlnPgpgk@0 00400000     mfcs140d:stdafx.obj
 0001:fffff000       __ehhandler$??_Estringdispid@CComTypeInfoHolder@ATL@@QAEPAXI@Z 00400000 f   mfcs140d:stdafx.obj
 0000:fffad000       .debug$S                   00400000     mfc140d:mfc140d.dll
 0000:fffad000       .debug$S                   00400000     mfc140d:mfc140d.dll
 0000:fffad000       .debug$S                   00400000     mfc140d:mfc140d.dll
 0000:fffad000       .debug$S                   00400000     mfc140d:mfc140d.dll
 0000:fffad000       .debug$S                   00400000     mfc140d:mfc140d.dll
 0000:fffad000       .debug$S                   00400000     mfc140d:mfc140d.dll
 0000:fffad000       .debug$S                   00400000     mfc140d:mfc140d.dll
 0000:fffad000       .debug$S                   00400000     mfc140d:mfc140d.dll
 0001:fffff000       __ehhandler$??1CAtlWinModule@ATL@@QAE@XZ 00400000 f   mfcs140d:stdafx.obj
 0001:fffff000       __ehhandler$??1CAtlComModule@ATL@@QAE@XZ 00400000 f   mfcs140d:stdafx.obj
 0001:fffff000       __unwindfunclet$??0_ATL_WIN_MODULE70@ATL@@QAE@XZ$0 00400000 f   mfcs140d:stdafx.obj
 0000:fffad000       .debug$S                   00400000     mfc140d:mfc140d.dll
 0001:fffff000       __ehhandler$??1?$CSimpleArray@GV?$CSimpleArrayEqualHelper@G@ATL@@@ATL@@QAE@XZ 00400000 f   mfcs140d:stdafx.obj
 0001:fffff000       __unwindfunclet$??RCTraceFileAndLineInfo@ATL@@QBAXHIPBDZZ$0 00400000 f   mfcs140d:stdafx.obj
 0000:fffad000       .debug$S                   00400000     mfc140d:mfc140d.dll
 0000:fffad000       .debug$S                   00400000     mfc140d:mfc140d.dll
 0000:fffad000       .debug$S                   00400000     mfc140d:mfc140d.dll
 0000:fffad000       .debug$S                   00400000     mfc140d:mfc140d.dll
 0000:fffad000       .debug$S                   00400000     mfc140d:mfc140d.dll
 0000:fffad000       .debug$S                   00400000     mfc140d:mfc140d.dll
 0000:fffad000       .debug$S                   00400000     mfc140d:mfc140d.dll
 0000:fffad000       .debug$S                   00400000     mfc140d:mfc140d.dll
 0000:fffad000       .debug$S                   00400000     mfc140d:mfc140d.dll
 0000:fffad000       .debug$S                   00400000     mfc140d:mfc140d.dll
 0000:fffad000       .debug$S                   00400000     mfc140d:mfc140d.dll
 0000:fffad000       .debug$S                   00400000     mfc140d:mfc140d.dll
 0000:fffad000       .debug$S                   00400000     mfc140d:mfc140d.dll
 0000:fffad000       .debug$S                   00400000     mfc140d:mfc140d.dll
 0001:fffff000       __unwindfunclet$?TraceV@CTrace@ATL@@SAXPBDHII0PAD@Z$0 00400000 f   mfcs140d:stdafx.obj
 0000:fffad000       .debug$S                   00400000     mfc140d:mfc140d.dll
 0000:fffad000       .debug$S                   00400000     mfc140d:mfc140d.dll
 0000:fffad000       .debug$S                   00400000     mfc140d:mfc140d.dll
 0000:fffad000       .debug$S                   00400000     mfc140d:mfc140d.dll
 0000:fffad000       .debug$S                   00400000     mfc140d:mfc140d.dll
 0000:fffad000       .debug$S                   00400000     mfc140d:mfc140d.dll
 0000:fffad000       .debug$S                   00400000     mfc140d:mfc140d.dll
 0000:fffad000       .debug$S                   00400000     mfc140d:mfc140d.dll
 0000:fffad000       .debug$S                   00400000     mfc140d:mfc140d.dll
 0000:fffad000       .debug$S                   00400000     mfc140d:mfc140d.dll
 0000:fffad000       .debug$S                   00400000     mfc140d:mfc140d.dll
 0000:fffad000       .debug$S                   00400000     mfc140d:mfc140d.dll
 0000:fffad000       .debug$S                   00400000     mfc140d:mfc140d.dll
 0000:fffad000       .debug$S                   00400000     mfc140d:mfc140d.dll
 0000:fffad000       .debug$S                   00400000     mfc140d:mfc140d.dll
 0000:fffad000       .debug$S                   00400000     mfc140d:mfc140d.dll
 0000:fffad000       .debug$S                   00400000     mfc140d:mfc140d.dll
 0000:fffad000       .debug$S                   00400000     mfc140d:mfc140d.dll
 0000:fffad000       .debug$S                   00400000     mfc140d:mfc140d.dll
 0000:fffad000       .debug$S                   00400000     mfc140d:mfc140d.dll
 0000:fffad000       .debug$S                   00400000     mfc140d:mfc140d.dll
 0000:fffad000       .debug$S                   00400000     mfc140d:mfc140d.dll
 0000:fffad000       .debug$S                   00400000     mfc140d:mfc140d.dll
 0000:fffad000       .debug$S                   00400000     mfc140d:mfc140d.dll
 0000:fffad000       .debug$S                   00400000     mfc140d:mfc140d.dll
 0000:fffad000       .debug$S                   00400000     mfc140d:mfc140d.dll
 0000:fffad000       .debug$S                   00400000     mfc140d:mfc140d.dll
 0000:fffad000       .debug$S                   00400000     mfc140d:mfc140d.dll
 0000:fffad000       .debug$S                   00400000     mfc140d:mfc140d.dll
 0000:fffad000       .debug$S                   00400000     mfc140d:mfc140d.dll
 0000:fffad000       .debug$S                   00400000     mfc140d:mfc140d.dll
 0000:fffad000       .debug$S                   00400000     mfc140d:mfc140d.dll
 0001:fffff000       __unwindfunclet$?TraceV@CTrace@ATL@@SAXPBDHII0PAD@Z$0 00400000 f   mfcs140d:nolib.obj
 0001:fffff000       __unwindfunclet$??RCTraceFileAndLineInfo@ATL@@QBAXHIPBDZZ$0 00400000 f   mfcs140d:nolib.obj
 0001:fffff000       __ehhandler$??1?$CSimpleArray@GV?$CSimpleArrayEqualHelper@G@ATL@@@ATL@@QAE@XZ 00400000 f   mfcs140d:nolib.obj
 0001:fffff000       __unwindfunclet$??0_ATL_WIN_MODULE70@ATL@@QAE@XZ$0 00400000 f   mfcs140d:nolib.obj
 0001:fffff000       __ehhandler$??1CAtlComModule@ATL@@QAE@XZ 00400000 f   mfcs140d:nolib.obj
 0001:fffff000       __ehhandler$??1CAtlWinModule@ATL@@QAE@XZ 00400000 f   mfcs140d:nolib.obj
 0002:fffd1000       __unwindtable$?TraceV@CTrace@ATL@@SAXPBDHII0PAD@Z 00400000     mfcs140d:nolib.obj
 0002:fffd1000       __unwindtable$??RCTraceFileAndLineInfo@ATL@@QBAXHIPBDZZ 00400000     mfcs140d:nolib.obj
 0002:fffd1000       __ehfuncinfo$??1?$CSimpleArray@GV?$CSimpleArrayEqualHelper@G@ATL@@@ATL@@QAE@XZ 00400000     mfcs140d:nolib.obj
 0002:fffd1000       __unwindtable$??0_ATL_WIN_MODULE70@ATL@@QAE@XZ 00400000     mfcs140d:nolib.obj
 0002:fffd1000       __ehfuncinfo$??1CAtlComModule@ATL@@QAE@XZ 00400000     mfcs140d:nolib.obj
 0000:fffbe000       __guard_fids_??__E_AtlComModule@ATL@@YAXXZ 00400000     mfcs140d:nolib.obj
 0002:fffd1000       __ehfuncinfo$??1CAtlWinModule@ATL@@QAE@XZ 00400000     mfcs140d:nolib.obj
 0000:fffbe000       __guard_fids_??__E_AtlWinModule@ATL@@YAXXZ 00400000     mfcs140d:nolib.obj
 0000:fffbe000       __guard_fids_?GetInstance@CAtlStringMgr@ATL@@SAPAUIAtlStringMgr@2@XZ 00400000     mfcs140d:nolib.obj
 0000:fffbe000       __guard_fids_??_Estringdispid@CComTypeInfoHolder@ATL@@QAEPAXI@Z 00400000     mfcs140d:nolib.obj
 0002:fffd1000       ?atlTraceGeneral$initializer$@ATL@@3P6AXXZA 00400000     mfcs140d:nolib.obj
 0000:fffbe000       __guard_fids__             00400000     mfcs140d:nolib.obj
 0000:fffbe000       __guard_fids__             00400000     mfcs140d:stdafx.obj
 0000:fffbe000       __guard_fids__             00400000     mfcs140d:nolib.obj
 0002:fffd1000       ?InitializeCAtlStringMgr$initializer$@ATLImplementationDetails@ATL@@3P6AXXZA 00400000     mfcs140d:nolib.obj
 0000:fffbe000       __guard_fids__             00400000     mfcs140d:nolib.obj
 0002:fffd1000       ?_AtlWinModule$initializer$@ATL@@3P6AXXZA 00400000     mfcs140d:nolib.obj
 0000:fffbe000       __guard_fids__             00400000     mfcs140d:nolib.obj
 0002:fffd1000       ?_AtlComModule$initializer$@ATL@@3P6AXXZA 00400000     mfcs140d:nolib.obj
 0000:fffbe000       __guard_fids__             00400000     mfcs140d:nolib.obj
 0002:fffd1000       ?atlTraceISAPI$initializer$@ATL@@3P6AXXZA 00400000     mfcs140d:nolib.obj
 0000:fffbe000       __guard_fids__             00400000     mfcs140d:nolib.obj
 0002:fffd1000       ?atlTraceSync$initializer$@ATL@@3P6AXXZA 00400000     mfcs140d:nolib.obj
 0000:fffbe000       __guard_fids__             00400000     mfcs140d:nolib.obj
 0002:fffd1000       ?atlTraceSecurity$initializer$@ATL@@3P6AXXZA 00400000     mfcs140d:nolib.obj
 0000:fffbe000       __guard_fids__             00400000     mfcs140d:nolib.obj
 0002:fffd1000       ?atlTraceUtil$initializer$@ATL@@3P6AXXZA 00400000     mfcs140d:nolib.obj
 0000:fffbe000       __guard_fids__             00400000     mfcs140d:nolib.obj
 0002:fffd1000       ?atlTraceMap$initializer$@ATL@@3P6AXXZA 00400000     mfcs140d:nolib.obj
 0000:fffbe000       __guard_fids__             00400000     mfcs140d:nolib.obj
 0002:fffd1000       ?atlTraceString$initializer$@ATL@@3P6AXXZA 00400000     mfcs140d:nolib.obj
 0000:fffbe000       __guard_fids__             00400000     mfcs140d:nolib.obj
 0002:fffd1000       ?atlTraceStencil$initializer$@ATL@@3P6AXXZA 00400000     mfcs140d:nolib.obj
 0000:fffbe000       __guard_fids__             00400000     mfcs140d:nolib.obj
 0002:fffd1000       ?atlTraceCache$initializer$@ATL@@3P6AXXZA 00400000     mfcs140d:nolib.obj
 0000:fffbe000       __guard_fids__             00400000     mfcs140d:nolib.obj
 0002:fffd1000       ?atlTraceTime$initializer$@ATL@@3P6AXXZA 00400000     mfcs140d:nolib.obj
 0000:fffbe000       __guard_fids__             00400000     mfcs140d:nolib.obj
 0002:fffd1000       ?atlTraceException$initializer$@ATL@@3P6AXXZA 00400000     mfcs140d:nolib.obj
 0000:fffbe000       __guard_fids__             00400000     mfcs140d:nolib.obj
 0002:fffd1000       ?atlTraceAllocation$initializer$@ATL@@3P6AXXZA 00400000     mfcs140d:nolib.obj
 0000:fffbe000       __guard_fids__             00400000     mfcs140d:nolib.obj
 0002:fffd1000       ?atlTraceNotImpl$initializer$@ATL@@3P6AXXZA 00400000     mfcs140d:nolib.obj
 0000:fffbe000       __guard_fids__             00400000     mfcs140d:nolib.obj
 0002:fffd1000       ?atlTraceSnapin$initializer$@ATL@@3P6AXXZA 00400000     mfcs140d:nolib.obj
 0000:fffbe000       __guard_fids__             00400000     mfcs140d:nolib.obj
 0002:fffd1000       ?atlTraceDBProvider$initializer$@ATL@@3P6AXXZA 00400000     mfcs140d:nolib.obj
 0000:fffbe000       __guard_fids__             00400000     mfcs140d:nolib.obj
 0002:fffd1000       ?atlTraceDBClient$initializer$@ATL@@3P6AXXZA 00400000     mfcs140d:nolib.obj
 0000:fffbe000       __guard_fids__             00400000     mfcs140d:nolib.obj
 0002:fffd1000       ?atlTraceHosting$initializer$@ATL@@3P6AXXZA 00400000     mfcs140d:nolib.obj
 0000:fffbe000       __guard_fids__             00400000     mfcs140d:nolib.obj
 0002:fffd1000       ?atlTraceControls$initializer$@ATL@@3P6AXXZA 00400000     mfcs140d:nolib.obj
 0000:fffbe000       __guard_fids__             00400000     mfcs140d:nolib.obj
 0002:fffd1000       ?atlTraceWindowing$initializer$@ATL@@3P6AXXZA 00400000     mfcs140d:nolib.obj
 0000:fffbe000       __guard_fids__             00400000     mfcs140d:nolib.obj
 0002:fffd1000       ?atlTraceRefcount$initializer$@ATL@@3P6AXXZA 00400000     mfcs140d:nolib.obj
 0000:fffbe000       __guard_fids__             00400000     mfcs140d:nolib.obj
 0002:fffd1000       ?atlTraceRegistrar$initializer$@ATL@@3P6AXXZA 00400000     mfcs140d:nolib.obj
 0000:fffbe000       __guard_fids__             00400000     mfcs140d:nolib.obj
 0002:fffd1000       ?atlTraceQI$initializer$@ATL@@3P6AXXZA 00400000     mfcs140d:nolib.obj
 0000:fffbe000       __guard_fids__             00400000     mfcs140d:nolib.obj
 0002:fffd1000       ?atlTraceCOM$initializer$@ATL@@3P6AXXZA 00400000     mfcs140d:nolib.obj
 0000:fffbe000       __guard_fids__             00400000     mfcs140d:nolib.obj
 0000:fffbe000       __guard_fids__             00400000     mfcs140d:nolib.obj
 0000:fffbe000       __guard_fids__             00400000     mfcs140d:nolib.obj
 0000:fffbe000       __guard_fids__             00400000     mfcs140d:nolib.obj
 0000:fffbe000       __guard_fids__             00400000     mfcs140d:nolib.obj
 0000:fffbe004       __guard_fids__             00400004     msvcrtd:exe_winmain.obj
 0001:fffff008       __ehhandler$??RCTraceFileAndLineInfo@ATL@@QBAXHIPBDZZ 00400008 f   mfcs140d:stdafx.obj
 0002:fffd1008       __ehfuncinfo$??RCTraceFileAndLineInfo@ATL@@QBAXHIPBDZZ 00400008     Stdafx.obj
 0001:fffff008       __unwindfunclet$?TraceV@CTrace@ATL@@SAXPBDHII0PAD@Z$1 00400008 f   mfcs140d:appmodul.obj
 0002:fffd1008       __ehfuncinfo$??0_ATL_WIN_MODULE70@ATL@@QAE@XZ 00400008     mfcs140d:appmodul.obj
 0002:fffd1008       __ehfuncinfo$??RCTraceFileAndLineInfo@ATL@@QBAXHIPBDZZ 00400008     mfcs140d:appmodul.obj
 0001:fffff008       __unwindfunclet$?TraceV@CTrace@ATL@@SAXPBDHII0PAD@Z$1 00400008 f   mfcs140d:stdafx.obj
 0002:fffd1008       __ehfuncinfo$??RCTraceFileAndLineInfo@ATL@@QBAXHIPBDZZ 00400008     mfcs140d:stdafx.obj
 0001:fffff008       __unwindfunclet$?TraceV@CTrace@ATL@@SAXPBDHII0PAD@Z$1 00400008 f   mfcs140d:nolib.obj
 0001:fffff008       __ehhandler$??RCTraceFileAndLineInfo@ATL@@QBAXHIPBDZZ 00400008 f   mfcs140d:nolib.obj
 0000:fffbe008       __guard_fids__             00400008     msvcrtd:exe_winmain.obj
 0001:fffff008       __unwindfunclet$?TraceV@CTrace@ATL@@SAXPBDHII0PAD@Z$1 00400008 f   Stdafx.obj
 0002:fffd1008       __ehfuncinfo$??0_ATL_WIN_MODULE70@ATL@@QAE@XZ 00400008     mfcs140d:nolib.obj
 0002:fffd1008       __ehfuncinfo$??0_ATL_WIN_MODULE70@ATL@@QAE@XZ 00400008     mfcs140d:stdafx.obj
 0001:fffff008       __ehhandler$??RCTraceFileAndLineInfo@ATL@@QBAXHIPBDZZ 00400008 f   Stdafx.obj
 0002:fffd1008       __ehfuncinfo$??RCTraceFileAndLineInfo@ATL@@QBAXHIPBDZZ 00400008     mfcs140d:nolib.obj
 0001:fffff008       __ehhandler$??RCTraceFileAndLineInfo@ATL@@QBAXHIPBDZZ 00400008 f   mfcs140d:appmodul.obj
 0001:fffff00b       __ehhandler$??0_ATL_WIN_MODULE70@ATL@@QAE@XZ 0040000b f   mfcs140d:nolib.obj
 0001:fffff00b       __ehhandler$??0_ATL_WIN_MODULE70@ATL@@QAE@XZ 0040000b f   mfcs140d:appmodul.obj
 0001:fffff00b       __ehhandler$??0_ATL_WIN_MODULE70@ATL@@QAE@XZ 0040000b f   mfcs140d:stdafx.obj
 0001:fffff010       __ehhandler$?TraceV@CTrace@ATL@@SAXPBDHII0PAD@Z 00400010 f   mfcs140d:stdafx.obj
 0002:fffd1010       __ehfuncinfo$?TraceV@CTrace@ATL@@SAXPBDHII0PAD@Z 00400010     mfcs140d:appmodul.obj
 0001:fffff010       __ehhandler$?TraceV@CTrace@ATL@@SAXPBDHII0PAD@Z 00400010 f   Stdafx.obj
 0002:fffd1010       __ehfuncinfo$?TraceV@CTrace@ATL@@SAXPBDHII0PAD@Z 00400010     mfcs140d:nolib.obj
 0001:fffff010       __ehhandler$?TraceV@CTrace@ATL@@SAXPBDHII0PAD@Z 00400010 f   mfcs140d:nolib.obj
 0001:fffff010       __ehhandler$?TraceV@CTrace@ATL@@SAXPBDHII0PAD@Z 00400010 f   mfcs140d:appmodul.obj
 0002:fffd1010       __ehfuncinfo$?TraceV@CTrace@ATL@@SAXPBDHII0PAD@Z 00400010     Stdafx.obj
 0002:fffd1010       __ehfuncinfo$?TraceV@CTrace@ATL@@SAXPBDHII0PAD@Z 00400010     mfcs140d:stdafx.obj
 0001:fffff068       $LN6                       00400068     mfcs140d:appmodul.obj
 0001:fffff068       $LN6                       00400068     mfcs140d:stdafx.obj
 0001:fffff068       $LN6                       00400068     mfcs140d:nolib.obj
 0001:fffff068       $LN6                       00400068     mfcs140d:appmodul.obj
 0001:fffff068       $LN6                       00400068     mfcs140d:stdafx.obj
 0001:fffff068       $LN6                       00400068     mfcs140d:nolib.obj
 0001:fffff070       $LN5                       00400070     mfcs140d:stdafx.obj
 0001:fffff070       $LN5                       00400070     mfcs140d:stdafx.obj
 0001:fffff070       $LN5                       00400070     mfcs140d:nolib.obj
 0001:fffff070       $LN5                       00400070     mfcs140d:appmodul.obj
 0001:fffff070       $LN5                       00400070     mfcs140d:appmodul.obj
 0001:fffff070       $LN5                       00400070     mfcs140d:nolib.obj
 0001:fffff07c       $LN4                       0040007c     mfcs140d:stdafx.obj
 0001:fffff07c       $LN4                       0040007c     mfcs140d:nolib.obj
 0001:fffff07c       $LN4                       0040007c     mfcs140d:stdafx.obj
 0001:fffff07c       $LN4                       0040007c     mfcs140d:appmodul.obj
 0001:fffff07c       $LN4                       0040007c     mfcs140d:appmodul.obj
 0001:fffff07c       $LN4                       0040007c     mfcs140d:nolib.obj
 0001:fffff098       $LN6                       00400098     mfcs140d:appmodul.obj
 0001:fffff0a0       $LN5                       004000a0     mfcs140d:appmodul.obj
 0001:fffff0ac       $LN4                       004000ac     mfcs140d:appmodul.obj
 0001:fffff0b4       $LN7                       004000b4     mfcs140d:stdafx.obj
 0001:fffff0b4       $LN7                       004000b4     mfcs140d:nolib.obj
 0001:fffff0b4       $LN7                       004000b4     mfcs140d:appmodul.obj
 0001:fffff0bc       $LN6                       004000bc     mfcs140d:stdafx.obj
 0001:fffff0bc       $LN6                       004000bc     mfcs140d:nolib.obj
 0001:fffff0bc       $LN6                       004000bc     mfcs140d:appmodul.obj
 0001:fffff0c8       $LN4                       004000c8     mfcs140d:nolib.obj
 0001:fffff0c8       $LN4                       004000c8     mfcs140d:appmodul.obj
 0001:fffff0c8       $LN4                       004000c8     mfcs140d:stdafx.obj
 0001:fffff11c       $LN8                       0040011c     mfcs140d:appmodul.obj
 0001:fffff11c       $LN8                       0040011c     mfcs140d:stdafx.obj
 0001:fffff11c       $LN8                       0040011c     mfcs140d:nolib.obj
 0001:fffff124       $LN7                       00400124     mfcs140d:appmodul.obj
 0001:fffff124       $LN7                       00400124     mfcs140d:stdafx.obj
 0001:fffff124       $LN7                       00400124     mfcs140d:nolib.obj
 0001:fffff130       $LN6                       00400130     mfcs140d:nolib.obj
 0001:fffff130       $LN6                       00400130     mfcs140d:stdafx.obj
 0001:fffff130       $LN6                       00400130     mfcs140d:appmodul.obj
 0001:fffff16c       $LN22                      0040016c     mfcs140d:stdafx.obj
 0001:fffff16c       $LN22                      0040016c     mfcs140d:appmodul.obj
 0001:fffff174       $LN21                      00400174     mfcs140d:stdafx.obj
 0001:fffff174       $LN21                      00400174     mfcs140d:appmodul.obj
 0001:fffff18c       $LN20                      0040018c     mfcs140d:appmodul.obj
 0001:fffff18c       $LN20                      0040018c     mfcs140d:stdafx.obj
 0001:fffff196       $LN19                      00400196     mfcs140d:appmodul.obj
 0001:fffff196       $LN19                      00400196     mfcs140d:stdafx.obj
 0001:fffff1d0       $LN24                      004001d0     mfcs140d:stdafx.obj
 0001:fffff1d0       $LN24                      004001d0     mfcs140d:appmodul.obj
 0001:fffff1d0       $LN24                      004001d0     mfcs140d:nolib.obj
 0001:fffff1d8       $LN23                      004001d8     mfcs140d:nolib.obj
 0001:fffff1d8       $LN23                      004001d8     mfcs140d:stdafx.obj
 0001:fffff1d8       $LN23                      004001d8     mfcs140d:appmodul.obj
 0001:fffff1f0       $LN22                      004001f0     mfcs140d:nolib.obj
 0001:fffff1f0       $LN25                      004001f0     mfcs140d:appmodul.obj
 0001:fffff1f0       $LN25                      004001f0     mfcs140d:nolib.obj
 0001:fffff1f0       $LN22                      004001f0     mfcs140d:stdafx.obj
 0001:fffff1f0       $LN25                      004001f0     mfcs140d:stdafx.obj
 0001:fffff1f0       $LN22                      004001f0     mfcs140d:appmodul.obj
 0001:fffff1f8       $LN24                      004001f8     mfcs140d:appmodul.obj
 0001:fffff1f8       $LN14                      004001f8     mfcs140d:appmodul.obj
 0001:fffff1f8       $LN14                      004001f8     mfcs140d:nolib.obj
 0001:fffff1f8       $LN14                      004001f8     mfcs140d:stdafx.obj
 0001:fffff1f8       $LN24                      004001f8     mfcs140d:nolib.obj
 0001:fffff1f8       $LN24                      004001f8     mfcs140d:stdafx.obj
 0001:fffff1fb       $LN21                      004001fb     mfcs140d:stdafx.obj
 0001:fffff1fb       $LN21                      004001fb     mfcs140d:nolib.obj
 0001:fffff1fb       $LN21                      004001fb     mfcs140d:appmodul.obj
 0001:fffff200       $LN13                      00400200     mfcs140d:nolib.obj
 0001:fffff200       $LN13                      00400200     mfcs140d:stdafx.obj
 0001:fffff200       $LN13                      00400200     mfcs140d:appmodul.obj
 0001:fffff210       $LN23                      00400210     mfcs140d:stdafx.obj
 0001:fffff210       $LN23                      00400210     mfcs140d:appmodul.obj
 0001:fffff210       $LN23                      00400210     mfcs140d:nolib.obj
 0001:fffff218       $LN11                      00400218     mfcs140d:nolib.obj
 0001:fffff218       $LN11                      00400218     mfcs140d:appmodul.obj
 0001:fffff218       $LN11                      00400218     mfcs140d:stdafx.obj
 0001:fffff21b       $LN22                      0040021b     mfcs140d:nolib.obj
 0001:fffff21b       $LN22                      0040021b     mfcs140d:stdafx.obj
 0001:fffff21b       $LN22                      0040021b     mfcs140d:appmodul.obj
 0001:fffff21f       $LN10                      0040021f     mfcs140d:stdafx.obj
 0001:fffff21f       $LN10                      0040021f     mfcs140d:nolib.obj
 0001:fffff21f       $LN10                      0040021f     mfcs140d:appmodul.obj
 0001:fffff250       $LN17                      00400250     mfcs140d:nolib.obj
 0001:fffff250       $LN17                      00400250     mfcs140d:appmodul.obj
 0001:fffff250       $LN17                      00400250     mfcs140d:stdafx.obj
 0001:fffff258       $LN16                      00400258     mfcs140d:nolib.obj
 0001:fffff258       $LN16                      00400258     mfcs140d:appmodul.obj
 0001:fffff258       $LN16                      00400258     mfcs140d:stdafx.obj
 0001:fffff27c       $LN15                      0040027c     mfcs140d:nolib.obj
 0001:fffff27c       $LN15                      0040027c     mfcs140d:stdafx.obj
 0001:fffff27c       $LN15                      0040027c     mfcs140d:appmodul.obj
 0001:fffff285       $LN14                      00400285     mfcs140d:stdafx.obj
 0001:fffff285       $LN14                      00400285     mfcs140d:nolib.obj
 0001:fffff285       $LN14                      00400285     mfcs140d:appmodul.obj
 0001:fffff28c       $LN13                      0040028c     mfcs140d:stdafx.obj
 0001:fffff28c       $LN13                      0040028c     mfcs140d:appmodul.obj
 0001:fffff28c       $LN13                      0040028c     mfcs140d:nolib.obj
 0001:fffff2cc       $LN36                      004002cc     mfcs140d:stdafx.obj
 0001:fffff2cc       $LN36                      004002cc     mfcs140d:appmodul.obj
 0001:fffff2d4       $LN35                      004002d4     mfcs140d:stdafx.obj
 0001:fffff2d4       $LN35                      004002d4     mfcs140d:appmodul.obj
 0001:fffff31c       $LN34                      0040031c     mfcs140d:stdafx.obj
 0001:fffff31c       $LN34                      0040031c     mfcs140d:appmodul.obj
 0001:fffff333       $LN33                      00400333     mfcs140d:stdafx.obj
 0001:fffff333       $LN33                      00400333     mfcs140d:appmodul.obj
 0001:fffff33c       $LN32                      0040033c     mfcs140d:appmodul.obj
 0001:fffff33c       $LN32                      0040033c     mfcs140d:stdafx.obj
 0001:fffff34f       $LN31                      0040034f     mfcs140d:stdafx.obj
 0001:fffff34f       $LN31                      0040034f     mfcs140d:appmodul.obj
 0001:fffff356       $LN30                      00400356     mfcs140d:stdafx.obj
 0001:fffff356       $LN30                      00400356     mfcs140d:appmodul.obj
 0001:fffff360       $LN29                      00400360     mfcs140d:appmodul.obj
 0001:fffff360       $LN29                      00400360     mfcs140d:stdafx.obj
 0001:00001ea0       ??__EtheApp@@YAXXZ         00402ea0 f   ChatServer.obj
 0001:00001ed0       ??__EatlTraceException@ATL@@YAXXZ 00402ed0 f   DataBaseEngineSink.obj
 0001:00001f00       ??__EInitializeCAtlStringMgr@ATLImplementationDetails@ATL@@YAXXZ 00402f00 f   Stdafx.obj
 0001:00001f20       ??__E_AtlComModule@ATL@@YAXXZ 00402f20 f   Stdafx.obj
 0001:00001f50       ??__E_AtlWinModule@ATL@@YAXXZ 00402f50 f   Stdafx.obj
 0001:00001f80       ??__EatlTraceAllocation@ATL@@YAXXZ 00402f80 f   Stdafx.obj
 0001:00001fb0       ??__EatlTraceCOM@ATL@@YAXXZ 00402fb0 f   Stdafx.obj
 0001:00001fe0       ??__EatlTraceCache@ATL@@YAXXZ 00402fe0 f   Stdafx.obj
 0001:00002010       ??__EatlTraceControls@ATL@@YAXXZ 00403010 f   Stdafx.obj
 0001:00002040       ??__EatlTraceDBClient@ATL@@YAXXZ 00403040 f   Stdafx.obj
 0001:00002070       ??__EatlTraceDBProvider@ATL@@YAXXZ 00403070 f   Stdafx.obj
 0001:000020a0       ??__EatlTraceException@ATL@@YAXXZ 004030a0 f   Stdafx.obj
 0001:000020d0       ??__EatlTraceGeneral@ATL@@YAXXZ 004030d0 f   Stdafx.obj
 0001:00002100       ??__EatlTraceHosting@ATL@@YAXXZ 00403100 f   Stdafx.obj
 0001:00002130       ??__EatlTraceISAPI@ATL@@YAXXZ 00403130 f   Stdafx.obj
 0001:00002160       ??__EatlTraceMap@ATL@@YAXXZ 00403160 f   Stdafx.obj
 0001:00002190       ??__EatlTraceNotImpl@ATL@@YAXXZ 00403190 f   Stdafx.obj
 0001:000021c0       ??__EatlTraceQI@ATL@@YAXXZ 004031c0 f   Stdafx.obj
 0001:000021f0       ??__EatlTraceRefcount@ATL@@YAXXZ 004031f0 f   Stdafx.obj
 0001:00002220       ??__EatlTraceRegistrar@ATL@@YAXXZ 00403220 f   Stdafx.obj
 0001:00002250       ??__EatlTraceSecurity@ATL@@YAXXZ 00403250 f   Stdafx.obj
 0001:00002280       ??__EatlTraceSnapin@ATL@@YAXXZ 00403280 f   Stdafx.obj
 0001:000022b0       ??__EatlTraceStencil@ATL@@YAXXZ 004032b0 f   Stdafx.obj
 0001:000022e0       ??__EatlTraceString@ATL@@YAXXZ 004032e0 f   Stdafx.obj
 0001:00002310       ??__EatlTraceSync@ATL@@YAXXZ 00403310 f   Stdafx.obj
 0001:00002340       ??__EatlTraceTime@ATL@@YAXXZ 00403340 f   Stdafx.obj
 0001:00002370       ??__EatlTraceUtil@ATL@@YAXXZ 00403370 f   Stdafx.obj
 0001:000023a0       ??__EatlTraceWindowing@ATL@@YAXXZ 004033a0 f   Stdafx.obj
 0001:000023d0       ??__EInitializeCAtlStringMgr@ATLImplementationDetails@ATL@@YAXXZ 004033d0 f   mfcs140d:nolib.obj
 0001:000023f0       ??__E_AtlComModule@ATL@@YAXXZ 004033f0 f   mfcs140d:nolib.obj
 0001:00002420       ??__E_AtlWinModule@ATL@@YAXXZ 00403420 f   mfcs140d:nolib.obj
 0001:00002450       ??__EatlTraceAllocation@ATL@@YAXXZ 00403450 f   mfcs140d:nolib.obj
 0001:00002480       ??__EatlTraceCOM@ATL@@YAXXZ 00403480 f   mfcs140d:nolib.obj
 0001:000024b0       ??__EatlTraceCache@ATL@@YAXXZ 004034b0 f   mfcs140d:nolib.obj
 0001:000024e0       ??__EatlTraceControls@ATL@@YAXXZ 004034e0 f   mfcs140d:nolib.obj
 0001:00002510       ??__EatlTraceDBClient@ATL@@YAXXZ 00403510 f   mfcs140d:nolib.obj
 0001:00002540       ??__EatlTraceDBProvider@ATL@@YAXXZ 00403540 f   mfcs140d:nolib.obj
 0001:00002570       ??__EatlTraceException@ATL@@YAXXZ 00403570 f   mfcs140d:nolib.obj
 0001:000025a0       ??__EatlTraceGeneral@ATL@@YAXXZ 004035a0 f   mfcs140d:nolib.obj
 0001:000025d0       ??__EatlTraceHosting@ATL@@YAXXZ 004035d0 f   mfcs140d:nolib.obj
 0001:00002600       ??__EatlTraceISAPI@ATL@@YAXXZ 00403600 f   mfcs140d:nolib.obj
 0001:00002630       ??__EatlTraceMap@ATL@@YAXXZ 00403630 f   mfcs140d:nolib.obj
 0001:00002660       ??__EatlTraceNotImpl@ATL@@YAXXZ 00403660 f   mfcs140d:nolib.obj
 0001:00002690       ??__EatlTraceQI@ATL@@YAXXZ 00403690 f   mfcs140d:nolib.obj
 0001:000026c0       ??__EatlTraceRefcount@ATL@@YAXXZ 004036c0 f   mfcs140d:nolib.obj
 0001:000026f0       ??__EatlTraceRegistrar@ATL@@YAXXZ 004036f0 f   mfcs140d:nolib.obj
 0001:00002720       ??__EatlTraceSecurity@ATL@@YAXXZ 00403720 f   mfcs140d:nolib.obj
 0001:00002750       ??__EatlTraceSnapin@ATL@@YAXXZ 00403750 f   mfcs140d:nolib.obj
 0001:00002780       ??__EatlTraceStencil@ATL@@YAXXZ 00403780 f   mfcs140d:nolib.obj
 0001:000027b0       ??__EatlTraceString@ATL@@YAXXZ 004037b0 f   mfcs140d:nolib.obj
 0001:000027e0       ??__EatlTraceSync@ATL@@YAXXZ 004037e0 f   mfcs140d:nolib.obj
 0001:00002810       ??__EatlTraceTime@ATL@@YAXXZ 00403810 f   mfcs140d:nolib.obj
 0001:00002840       ??__EatlTraceUtil@ATL@@YAXXZ 00403840 f   mfcs140d:nolib.obj
 0001:00002870       ??__EatlTraceWindowing@ATL@@YAXXZ 00403870 f   mfcs140d:nolib.obj
 0001:000028a0       ??__EInitializeCAtlStringMgr@ATLImplementationDetails@ATL@@YAXXZ 004038a0 f   mfcs140d:stdafx.obj
 0001:000028c0       ??__E_AtlComModule@ATL@@YAXXZ 004038c0 f   mfcs140d:stdafx.obj
 0001:000028f0       ??__E_AtlWinModule@ATL@@YAXXZ 004038f0 f   mfcs140d:stdafx.obj
 0001:00002920       ??__EatlTraceAllocation@ATL@@YAXXZ 00403920 f   mfcs140d:stdafx.obj
 0001:00002950       ??__EatlTraceCOM@ATL@@YAXXZ 00403950 f   mfcs140d:stdafx.obj
 0001:00002980       ??__EatlTraceCache@ATL@@YAXXZ 00403980 f   mfcs140d:stdafx.obj
 0001:000029b0       ??__EatlTraceControls@ATL@@YAXXZ 004039b0 f   mfcs140d:stdafx.obj
 0001:000029e0       ??__EatlTraceDBClient@ATL@@YAXXZ 004039e0 f   mfcs140d:stdafx.obj
 0001:00002a10       ??__EatlTraceDBProvider@ATL@@YAXXZ 00403a10 f   mfcs140d:stdafx.obj
 0001:00002a40       ??__EatlTraceException@ATL@@YAXXZ 00403a40 f   mfcs140d:stdafx.obj
 0001:00002a70       ??__EatlTraceGeneral@ATL@@YAXXZ 00403a70 f   mfcs140d:stdafx.obj
 0001:00002aa0       ??__EatlTraceHosting@ATL@@YAXXZ 00403aa0 f   mfcs140d:stdafx.obj
 0001:00002ad0       ??__EatlTraceISAPI@ATL@@YAXXZ 00403ad0 f   mfcs140d:stdafx.obj
 0001:00002b00       ??__EatlTraceMap@ATL@@YAXXZ 00403b00 f   mfcs140d:stdafx.obj
 0001:00002b30       ??__EatlTraceNotImpl@ATL@@YAXXZ 00403b30 f   mfcs140d:stdafx.obj
 0001:00002b60       ??__EatlTraceQI@ATL@@YAXXZ 00403b60 f   mfcs140d:stdafx.obj
 0001:00002b90       ??__EatlTraceRefcount@ATL@@YAXXZ 00403b90 f   mfcs140d:stdafx.obj
 0001:00002bc0       ??__EatlTraceRegistrar@ATL@@YAXXZ 00403bc0 f   mfcs140d:stdafx.obj
 0001:00002bf0       ??__EatlTraceSecurity@ATL@@YAXXZ 00403bf0 f   mfcs140d:stdafx.obj
 0001:00002c20       ??__EatlTraceSnapin@ATL@@YAXXZ 00403c20 f   mfcs140d:stdafx.obj
 0001:00002c50       ??__EatlTraceStencil@ATL@@YAXXZ 00403c50 f   mfcs140d:stdafx.obj
 0001:00002c80       ??__EatlTraceString@ATL@@YAXXZ 00403c80 f   mfcs140d:stdafx.obj
 0001:00002cb0       ??__EatlTraceSync@ATL@@YAXXZ 00403cb0 f   mfcs140d:stdafx.obj
 0001:00002ce0       ??__EatlTraceTime@ATL@@YAXXZ 00403ce0 f   mfcs140d:stdafx.obj
 0001:00002d10       ??__EatlTraceUtil@ATL@@YAXXZ 00403d10 f   mfcs140d:stdafx.obj
 0001:00002d40       ??__EatlTraceWindowing@ATL@@YAXXZ 00403d40 f   mfcs140d:stdafx.obj
 0001:00002d61       ??__E_AtlBaseModule@ATL@@YAXXZ 00403d61 f   atls:atlbase.obj
 0001:00002d80       ??__EInitializeCAtlStringMgr@ATLImplementationDetails@ATL@@YAXXZ 00403d80 f   mfcs140d:appmodul.obj
 0001:00002da0       ??__E_AtlComModule@ATL@@YAXXZ 00403da0 f   mfcs140d:appmodul.obj
 0001:00002dd0       ??__E_AtlWinModule@ATL@@YAXXZ 00403dd0 f   mfcs140d:appmodul.obj
 0001:00002e00       ??__E_afxInitAppState@@YAXXZ 00403e00 f   mfcs140d:appmodul.obj
 0001:00002e30       ??__EatlTraceAllocation@ATL@@YAXXZ 00403e30 f   mfcs140d:appmodul.obj
 0001:00002e60       ??__EatlTraceCOM@ATL@@YAXXZ 00403e60 f   mfcs140d:appmodul.obj
 0001:00002e90       ??__EatlTraceCache@ATL@@YAXXZ 00403e90 f   mfcs140d:appmodul.obj
 0001:00002ec0       ??__EatlTraceControls@ATL@@YAXXZ 00403ec0 f   mfcs140d:appmodul.obj
 0001:00002ef0       ??__EatlTraceDBClient@ATL@@YAXXZ 00403ef0 f   mfcs140d:appmodul.obj
 0001:00002f20       ??__EatlTraceDBProvider@ATL@@YAXXZ 00403f20 f   mfcs140d:appmodul.obj
 0001:00002f50       ??__EatlTraceException@ATL@@YAXXZ 00403f50 f   mfcs140d:appmodul.obj
 0001:00002f80       ??__EatlTraceGeneral@ATL@@YAXXZ 00403f80 f   mfcs140d:appmodul.obj
 0001:00002fb0       ??__EatlTraceHosting@ATL@@YAXXZ 00403fb0 f   mfcs140d:appmodul.obj
 0001:00002fe0       ??__EatlTraceISAPI@ATL@@YAXXZ 00403fe0 f   mfcs140d:appmodul.obj
 0001:00003010       ??__EatlTraceMap@ATL@@YAXXZ 00404010 f   mfcs140d:appmodul.obj
 0001:00003040       ??__EatlTraceNotImpl@ATL@@YAXXZ 00404040 f   mfcs140d:appmodul.obj
 0001:00003070       ??__EatlTraceQI@ATL@@YAXXZ 00404070 f   mfcs140d:appmodul.obj
 0001:000030a0       ??__EatlTraceRefcount@ATL@@YAXXZ 004040a0 f   mfcs140d:appmodul.obj
 0001:000030d0       ??__EatlTraceRegistrar@ATL@@YAXXZ 004040d0 f   mfcs140d:appmodul.obj
 0001:00003100       ??__EatlTraceSecurity@ATL@@YAXXZ 00404100 f   mfcs140d:appmodul.obj
 0001:00003130       ??__EatlTraceSnapin@ATL@@YAXXZ 00404130 f   mfcs140d:appmodul.obj
 0001:00003160       ??__EatlTraceStencil@ATL@@YAXXZ 00404160 f   mfcs140d:appmodul.obj
 0001:00003190       ??__EatlTraceString@ATL@@YAXXZ 00404190 f   mfcs140d:appmodul.obj
 0001:000031c0       ??__EatlTraceSync@ATL@@YAXXZ 004041c0 f   mfcs140d:appmodul.obj
 0001:000031f0       ??__EatlTraceTime@ATL@@YAXXZ 004041f0 f   mfcs140d:appmodul.obj
 0001:00003220       ??__EatlTraceUtil@ATL@@YAXXZ 00404220 f   mfcs140d:appmodul.obj
 0001:00003250       ??__EatlTraceWindowing@ATL@@YAXXZ 00404250 f   mfcs140d:appmodul.obj
 0001:00004efa       __catch$??1CAttemperEngineSink@@UAE@XZ$0 00405efa f   AttemperEngineSink.obj
 0001:00004f52       __catch$??1CAttemperEngineSink@@UAE@XZ$2 00405f52 f   AttemperEngineSink.obj
 0001:00005003       __catch$??1CAttemperEngineSink@@UAE@XZ$4 00406003 f   AttemperEngineSink.obj
 0001:00005b21       __catch$?OnAttemperEngineConclude@CAttemperEngineSink@@UAE_NPAUIUnknownEx@@@Z$0 00406b21 f   AttemperEngineSink.obj
 0001:00005b7c       __catch$?OnAttemperEngineConclude@CAttemperEngineSink@@UAE_NPAUIUnknownEx@@@Z$2 00406b7c f   AttemperEngineSink.obj
 0001:000091a1       __catch$?OnEventDataBase@CAttemperEngineSink@@MAE_NGKPAXG@Z$0 0040a1a1 f   AttemperEngineSink.obj
 0001:00009228       $LN28                      0040a228     AttemperEngineSink.obj
 0001:00009238       $LN29                      0040a238     AttemperEngineSink.obj
 0001:00009254       $LN26                      0040a254     AttemperEngineSink.obj
 0001:000096e9       __catch$?OnEventTCPNetworkShut@CAttemperEngineSink@@UAE_NKKK@Z$0 0040a6e9 f   AttemperEngineSink.obj
 0001:0000a146       __catch$?OnEventTimer@CAttemperEngineSink@@UAE_NKI@Z$0 0040b146 f   AttemperEngineSink.obj
 0001:0000ac54       $LN17                      0040bc54     AttemperEngineSink.obj
 0001:0000e7b0       _time                      0040f7b0 f   AttemperEngineSink.obj
 0001:0000ebb6       __catch$?OnBnClickedStartService@CChatServerDlg@@IAEXXZ$0 0040fbb6 f   ChatServerDlg.obj
 0001:0000ec66       __catch$?OnBnClickedStopService@CChatServerDlg@@IAEXXZ$0 0040fc66 f   ChatServerDlg.obj
 0001:0000f776       __catch$?StartServerService@CChatServerDlg@@IAE_NG@Z$0 00410776 f   ChatServerDlg.obj
 0001:00010fe5       __catch$?CreateInstance@?$CTempldateHelper@UIDataBase@@@@QAE_NXZ$0 00411fe5 f i DataBaseEngineSink.obj
 0001:00011015       __catch$?CreateInstance@?$CTempldateHelper@UIDataBase@@@@QAE_NXZ$1 00412015 f i DataBaseEngineSink.obj
 0001:00011734       $LN19                      00412734     DataBaseEngineSink.obj
 0001:00011764       $LN18                      00412764     DataBaseEngineSink.obj
 0001:00011bc9       __catch$?OnDataBaseEngineStart@CDataBaseEngineSink@@UAE_NPAUIUnknownEx@@@Z$0 00412bc9 f   DataBaseEngineSink.obj
 0001:000124b0       __catch$?OnRequestAddFriend@CDataBaseEngineSink@@IAE_NKPAXG@Z$0 004134b0 f   DataBaseEngineSink.obj
 0001:000127dc       __catch$?OnRequestDeleteFriend@CDataBaseEngineSink@@IAE_NKPAXG@Z$0 004137dc f   DataBaseEngineSink.obj
 0001:00012c01       __catch$?OnRequestLoadSystemMessage@CDataBaseEngineSink@@IAE_NKPAXG@Z$0 00413c01 f   DataBaseEngineSink.obj
 0001:00013b8f       __catch$?OnRequestLogonUserID@CDataBaseEngineSink@@IAE_NKPAXG@Z$0 00414b8f f   DataBaseEngineSink.obj
 0001:0001419d       __catch$?OnRequestModifyFriend@CDataBaseEngineSink@@IAE_NKPAXG@Z$0 0041519d f   DataBaseEngineSink.obj
 0001:0001460c       __catch$?OnRequestModifyGroup@CDataBaseEngineSink@@IAE_NKPAXG@Z$0 0041560c f   DataBaseEngineSink.obj
 0001:00014943       __catch$?OnRequestModifyRemarks@CDataBaseEngineSink@@IAE_NKPAXG@Z$0 00415943 f   DataBaseEngineSink.obj
 0001:00014bc6       __catch$?OnRequestSaveOfflineMessage@CDataBaseEngineSink@@IAE_NKPAXG@Z$0 00415bc6 f   DataBaseEngineSink.obj
 0001:00014f42       __catch$?OnRequestSearchUser@CDataBaseEngineSink@@IAE_NKPAXG@Z$0 00415f42 f   DataBaseEngineSink.obj
 0001:00015257       __catch$?OnRequestTrumpet@CDataBaseEngineSink@@IAE_NKPAXG@Z$0 00416257 f   DataBaseEngineSink.obj
 0001:00015460       __catch$?OnRequestUpdatePlaceName@CDataBaseEngineSink@@IAE_NKPAXG@Z$0 00416460 f   DataBaseEngineSink.obj
 0001:00017afb       __catch$??1CFriendGroupManager@@UAE@XZ$0 00418afb f   ServerUserManager.obj
 0001:00017ba6       __catch$??1CFriendGroupManager@@UAE@XZ$2 00418ba6 f   ServerUserManager.obj
 0001:00017d92       __catch$??1CNearUserManager@@UAE@XZ$0 00418d92 f   ServerUserManager.obj
 0001:00017f1b       __catch$??1CServerUserManager@@UAE@XZ$0 00418f1b f   ServerUserManager.obj
 0001:00017fc6       __catch$??1CServerUserManager@@UAE@XZ$2 00418fc6 f   ServerUserManager.obj
 0001:0001815f       __catch$??1CUserFriendGroup@@UAE@XZ$0 0041915f f   ServerUserManager.obj
 0001:00018a72       __catch$?ActiveFriendGroup@CFriendGroupManager@@QAEPAVCUserFriendGroup@@G@Z$0 00419a72 f   ServerUserManager.obj
 0001:0001911f       __catch$?AllocateContent@CUserFriendGroup@@AAEPAUtagServerFriendInfo@@G@Z$0 0041a11f f   ServerUserManager.obj
 0001:0001913a       __catch$?AllocateContent@CUserFriendGroup@@AAEPAUtagServerFriendInfo@@G@Z$1 0041a13a f   ServerUserManager.obj
 0001:00019f45       __catch$?ExtendGroupContent@CUserFriendGroup@@AAE_NG@Z$0 0041af45 f   ServerUserManager.obj
 0001:00019fa6       __catch$?ExtendGroupContent@CUserFriendGroup@@AAE_NG@Z$2 0041afa6 f   ServerUserManager.obj
 0001:0001b793       __catch$?InsertLocalUserItem@CServerUserManager@@UAE_NAAUtagInsertLocalUserInfo@@AAUtagFriendUserInfo@@PBD@Z$0 0041c793 f   ServerUserManager.obj
 0001:0001b93b       __catch$?InsertNearUserItem@CNearUserManager@@UAE_NAAUtagNearUserInfo@@@Z$0 0041c93b f   ServerUserManager.obj
 0001:0001ef85       __catch$?CreateInstance@?$CTempldateHelper@UIAttemperEngine@@@@QAE_NXZ$0 0041ff85 f i ServiceUnits.obj
 0001:0001efb5       __catch$?CreateInstance@?$CTempldateHelper@UIAttemperEngine@@@@QAE_NXZ$1 0041ffb5 f i ServiceUnits.obj
 0001:0001f245       __catch$?CreateInstance@?$CTempldateHelper@UIDataBaseEngine@@@@QAE_NXZ$0 00420245 f i ServiceUnits.obj
 0001:0001f275       __catch$?CreateInstance@?$CTempldateHelper@UIDataBaseEngine@@@@QAE_NXZ$1 00420275 f i ServiceUnits.obj
 0001:0001f505       __catch$?CreateInstance@?$CTempldateHelper@UITCPNetworkEngine@@@@QAE_NXZ$0 00420505 f i ServiceUnits.obj
 0001:0001f535       __catch$?CreateInstance@?$CTempldateHelper@UITCPNetworkEngine@@@@QAE_NXZ$1 00420535 f i ServiceUnits.obj
 0001:0001f7c5       __catch$?CreateInstance@?$CTempldateHelper@UITCPSocketService@@@@QAE_NXZ$0 004207c5 f i ServiceUnits.obj
 0001:0001f7f5       __catch$?CreateInstance@?$CTempldateHelper@UITCPSocketService@@@@QAE_NXZ$1 004207f5 f i ServiceUnits.obj
 0001:0001fa85       __catch$?CreateInstance@?$CTempldateHelper@UITimerEngine@@@@QAE_NXZ$0 00420a85 f i ServiceUnits.obj
 0001:0001fab5       __catch$?CreateInstance@?$CTempldateHelper@UITimerEngine@@@@QAE_NXZ$1 00420ab5 f i ServiceUnits.obj
 0001:0002399c       $LN22                      0042499c     mfcs140d:nolib.obj
 0001:000239a4       $LN21                      004249a4     mfcs140d:nolib.obj
 0001:000239bc       $LN20                      004249bc     mfcs140d:nolib.obj
 0001:000239c6       $LN19                      004249c6     mfcs140d:nolib.obj
 0001:00023d3c       $LN36                      00424d3c     mfcs140d:nolib.obj
 0001:00023d44       $LN35                      00424d44     mfcs140d:nolib.obj
 0001:00023d8c       $LN34                      00424d8c     mfcs140d:nolib.obj
 0001:00023da3       $LN33                      00424da3     mfcs140d:nolib.obj
 0001:00023dac       $LN32                      00424dac     mfcs140d:nolib.obj
 0001:00023dbf       $LN31                      00424dbf     mfcs140d:nolib.obj
 0001:00023dc6       $LN30                      00424dc6     mfcs140d:nolib.obj
 0001:00023dd0       $LN29                      00424dd0     mfcs140d:nolib.obj
 0001:00023f00       $$000000                   00424f00     msvcrtd:chkstk.obj
 0001:00024040       ?find_pe_section@@YAPAU_IMAGE_SECTION_HEADER@@QAEI@Z 00425040 f   msvcrtd:utility.obj
 0001:00024100       ?is_potentially_valid_image_base@@YA_NQAX@Z 00425100 f   msvcrtd:utility.obj
 0001:00024840       $$000000                   00425840     msvcrtd:ftol3.obj
 0001:00024ef0       ?ArrayUnwindFilter@@YAHPAU_EXCEPTION_POINTERS@@@Z 00425ef0 f   msvcrtd:ehvecdtr.obj
 0001:00025010       ?__scrt_initialize_thread_safe_statics@@YAHXZ 00426010 f   msvcrtd:thread_safe_statics.obj
 0001:00025130       ?__scrt_initialize_thread_safe_statics_platform_specific@@YAXXZ 00426130 f   msvcrtd:thread_safe_statics.obj
 0001:000252d0       ?__scrt_uninitialize_thread_safe_statics@@YAXXZ 004262d0 f   msvcrtd:thread_safe_statics.obj
 0001:000255f0       ?pre_c_initialization@@YAHXZ 004265f0 f   msvcrtd:exe_winmain.obj
 0001:000256d0       ?post_pgo_initialization@@YAHXZ 004266d0 f   msvcrtd:exe_winmain.obj
 0001:000256e0       ?pre_cpp_initialization@@YAXXZ 004266e0 f   msvcrtd:exe_winmain.obj
 0001:00025700       ?__scrt_common_main@@YAHXZ 00426700 f   msvcrtd:exe_winmain.obj
 0001:00025720       ?__scrt_common_main_seh@@YAHXZ 00426720 f   msvcrtd:exe_winmain.obj
 0001:000259c0       ?invoke_main@@YAHXZ        004269c0 f   msvcrtd:exe_winmain.obj
 0001:00026950       ___get_entropy             00427950 f   msvcrtd:gs_support.obj
 0001:00026ca0       ?DebuggerProbe@@YA_NK@Z    00427ca0 f   msvcrtd:error.obj
 0001:00026cf0       ?DebuggerRuntime@@YA_NKHPAXPB_W@Z 00427cf0 f   msvcrtd:error.obj
 0001:00026fc0       ?_getMemBlockDataString@@YAXPAD0PBDI@Z 00427fc0 f   msvcrtd:error.obj
 0001:00027050       ?_strlen_priv@@YAIPBD@Z    00428050 f   msvcrtd:error.obj
 0001:00027070       ?failwithmessage@@YAXPAXHHPBD@Z 00428070 f   msvcrtd:error.obj
 0001:000272f0       ?notify_debugger@@YAXABUtagEXCEPTION_VISUALCPP_DEBUG_INFO@@@Z 004282f0 f   msvcrtd:error.obj
 0001:000275c0       ?GetPdbDll@@YAPAUHINSTANCE__@@XZ 004285c0 f   msvcrtd:pdblkup.obj
 0001:00027750       ?GetPdbDllFromInstallPath@@YAPAUHINSTANCE__@@XZ 00428750 f   msvcrtd:pdblkup.obj
 0001:00027a40       ?GetPdbDllPathFromFilePath@@YAHPB_WPA_WI@Z 00428a40 f   msvcrtd:pdblkup.obj
 0001:000285f4       _memmove_s                 004295f4 f   atls:atlbase.obj
 0001:0002a320       __unwindfunclet$??0CAttemperEngineSink@@QAE@XZ$0 0042b320 f   AttemperEngineSink.obj
 0001:0002a32b       __unwindfunclet$??0CAttemperEngineSink@@QAE@XZ$1 0042b32b f   AttemperEngineSink.obj
 0001:0002a336       __unwindfunclet$??0CAttemperEngineSink@@QAE@XZ$2 0042b336 f   AttemperEngineSink.obj
 0001:0002a344       __ehhandler$??0CAttemperEngineSink@@QAE@XZ 0042b344 f   AttemperEngineSink.obj
 0001:0002a370       __unwindfunclet$??1CAttemperEngineSink@@UAE@XZ$6 0042b370 f   AttemperEngineSink.obj
 0001:0002a37b       __unwindfunclet$??1CAttemperEngineSink@@UAE@XZ$7 0042b37b f   AttemperEngineSink.obj
 0001:0002a386       __unwindfunclet$??1CAttemperEngineSink@@UAE@XZ$8 0042b386 f   AttemperEngineSink.obj
 0001:0002a394       __unwindfunclet$??1CAttemperEngineSink@@UAE@XZ$9 0042b394 f   AttemperEngineSink.obj
 0001:0002a3a2       __ehhandler$??1CAttemperEngineSink@@UAE@XZ 0042b3a2 f   AttemperEngineSink.obj
 0001:0002a3d0       __ehhandler$?OnAttemperEngineConclude@CAttemperEngineSink@@UAE_NPAUIUnknownEx@@@Z 0042b3d0 f   AttemperEngineSink.obj
 0001:0002a400       __ehhandler$?OnEventDataBase@CAttemperEngineSink@@MAE_NGKPAXG@Z 0042b400 f   AttemperEngineSink.obj
 0001:0002a440       __ehhandler$?OnEventTCPNetworkShut@CAttemperEngineSink@@UAE_NKKK@Z 0042b440 f   AttemperEngineSink.obj
 0001:0002a480       __ehhandler$?OnEventTimer@CAttemperEngineSink@@UAE_NKI@Z 0042b480 f   AttemperEngineSink.obj
 0001:0002a4c0       __unwindfunclet$?OnTCPNetworkGetNearuser@CAttemperEngineSink@@IAE_NPAXGK@Z$0 0042b4c0 f   AttemperEngineSink.obj
 0001:0002a4cb       __ehhandler$?OnTCPNetworkGetNearuser@CAttemperEngineSink@@IAE_NPAXGK@Z 0042b4cb f   AttemperEngineSink.obj
 0001:0002a500       __unwindfunclet$?OnTCPNetworkQueryNearuser@CAttemperEngineSink@@IAE_NPAXGK@Z$0 0042b500 f   AttemperEngineSink.obj
 0001:0002a50b       __ehhandler$?OnTCPNetworkQueryNearuser@CAttemperEngineSink@@IAE_NPAXGK@Z 0042b50b f   AttemperEngineSink.obj
 0001:0002a540       __unwindfunclet$?InitInstance@CChatServerApp@@UAEHXZ$0 0042b540 f   ChatServer.obj
 0001:0002a54b       __ehhandler$?InitInstance@CChatServerApp@@UAEHXZ 0042b54b f   ChatServer.obj
 0001:0002a580       __unwindfunclet$??0CChatServerDlg@@QAE@XZ$0 0042b580 f   ChatServerDlg.obj
 0001:0002a588       __unwindfunclet$??0CChatServerDlg@@QAE@XZ$1 0042b588 f   ChatServerDlg.obj
 0001:0002a596       __ehhandler$??0CChatServerDlg@@QAE@XZ 0042b596 f   ChatServerDlg.obj
 0001:0002a5c0       __ehhandler$?OnBnClickedStartService@CChatServerDlg@@IAEXXZ 0042b5c0 f   ChatServerDlg.obj
 0001:0002a5f0       __ehhandler$?OnBnClickedStopService@CChatServerDlg@@IAEXXZ 0042b5f0 f   ChatServerDlg.obj
 0001:0002a620       __unwindfunclet$?OnMessageProcessCmdLine@CChatServerDlg@@QAEJIJ@Z$0 0042b620 f   ChatServerDlg.obj
 0001:0002a629       __ehhandler$?OnMessageProcessCmdLine@CChatServerDlg@@QAEJIJ@Z 0042b629 f   ChatServerDlg.obj
 0001:0002a660       __ehhandler$?StartServerService@CChatServerDlg@@IAE_NG@Z 0042b660 f   ChatServerDlg.obj
 0001:0002a690       __unwindfunclet$??0CDataBaseEngineSink@@QAE@XZ$0 0042b690 f   DataBaseEngineSink.obj
 0001:0002a69c       __unwindfunclet$??0CDataBaseEngineSink@@QAE@XZ$1 0042b69c f   DataBaseEngineSink.obj
 0001:0002a6a7       __unwindfunclet$??0CDataBaseEngineSink@@QAE@XZ$2 0042b6a7 f   DataBaseEngineSink.obj
 0001:0002a6b6       __unwindfunclet$??0CDataBaseEngineSink@@QAE@XZ$3 0042b6b6 f   DataBaseEngineSink.obj
 0001:0002a6c4       __unwindfunclet$??0CDataBaseEngineSink@@QAE@XZ$4 0042b6c4 f   DataBaseEngineSink.obj
 0001:0002a6d3       __ehhandler$??0CDataBaseEngineSink@@QAE@XZ 0042b6d3 f   DataBaseEngineSink.obj
 0001:0002a710       __ehhandler$??1?$CTempldateHelper@UIDataBase@@@@UAE@XZ 0042b710 f   DataBaseEngineSink.obj
 0001:0002a740       __unwindfunclet$??RCTraceFileAndLineInfo@ATL@@QBAXHIPBDZZ$0 0042b740 f   DataBaseEngineSink.obj
 0001:0002a748       __ehhandler$??RCTraceFileAndLineInfo@ATL@@QBAXHIPBDZZ 0042b748 f   DataBaseEngineSink.obj
 0001:0002a770       __ehhandler$?CreateInstance@?$CTempldateHelper@UIDataBase@@@@QAE_NXZ 0042b770 f   DataBaseEngineSink.obj
 0001:0002a7a0       __ehhandler$?OnDataBaseEngineStart@CDataBaseEngineSink@@UAE_NPAUIUnknownEx@@@Z 0042b7a0 f   DataBaseEngineSink.obj
 0001:0002a7d0       __ehhandler$?OnRequestAddFriend@CDataBaseEngineSink@@IAE_NKPAXG@Z 0042b7d0 f   DataBaseEngineSink.obj
 0001:0002a810       __ehhandler$?OnRequestDeleteFriend@CDataBaseEngineSink@@IAE_NKPAXG@Z 0042b810 f   DataBaseEngineSink.obj
 0001:0002a850       __unwindfunclet$?OnRequestLoadSystemMessage@CDataBaseEngineSink@@IAE_NKPAXG@Z$2 0042b850 f   DataBaseEngineSink.obj
 0001:0002a85c       __ehhandler$?OnRequestLoadSystemMessage@CDataBaseEngineSink@@IAE_NKPAXG@Z 0042b85c f   DataBaseEngineSink.obj
 0001:0002a8a0       __unwindfunclet$?OnRequestLogonUserID@CDataBaseEngineSink@@IAE_NKPAXG@Z$2 0042b8a0 f   DataBaseEngineSink.obj
 0001:0002a8a8       __unwindfunclet$?OnRequestLogonUserID@CDataBaseEngineSink@@IAE_NKPAXG@Z$3 0042b8a8 f   DataBaseEngineSink.obj
 0001:0002a8b3       __ehhandler$?OnRequestLogonUserID@CDataBaseEngineSink@@IAE_NKPAXG@Z 0042b8b3 f   DataBaseEngineSink.obj
 0001:0002a8f0       __ehhandler$?OnRequestModifyFriend@CDataBaseEngineSink@@IAE_NKPAXG@Z 0042b8f0 f   DataBaseEngineSink.obj
 0001:0002a930       __unwindfunclet$?OnRequestModifyGroup@CDataBaseEngineSink@@IAE_NKPAXG@Z$2 0042b930 f   DataBaseEngineSink.obj
 0001:0002a93b       __ehhandler$?OnRequestModifyGroup@CDataBaseEngineSink@@IAE_NKPAXG@Z 0042b93b f   DataBaseEngineSink.obj
 0001:0002a970       __ehhandler$?OnRequestModifyRemarks@CDataBaseEngineSink@@IAE_NKPAXG@Z 0042b970 f   DataBaseEngineSink.obj
 0001:0002a9b0       __ehhandler$?OnRequestSaveOfflineMessage@CDataBaseEngineSink@@IAE_NKPAXG@Z 0042b9b0 f   DataBaseEngineSink.obj
 0001:0002a9f0       __ehhandler$?OnRequestSearchUser@CDataBaseEngineSink@@IAE_NKPAXG@Z 0042b9f0 f   DataBaseEngineSink.obj
 0001:0002aa30       __ehhandler$?OnRequestTrumpet@CDataBaseEngineSink@@IAE_NKPAXG@Z 0042ba30 f   DataBaseEngineSink.obj
 0001:0002aa70       __ehhandler$?OnRequestUpdatePlaceName@CDataBaseEngineSink@@IAE_NKPAXG@Z 0042ba70 f   DataBaseEngineSink.obj
 0001:0002aab0       __unwindfunclet$?TraceV@CTrace@ATL@@SAXPBDHII0PAD@Z$0 0042bab0 f   DataBaseEngineSink.obj
 0001:0002aab8       __unwindfunclet$?TraceV@CTrace@ATL@@SAXPBDHII0PAD@Z$1 0042bab8 f   DataBaseEngineSink.obj
 0001:0002aac0       __ehhandler$?TraceV@CTrace@ATL@@SAXPBDHII0PAD@Z 0042bac0 f   DataBaseEngineSink.obj
 0001:0002aaf0       __unwindfunclet$?LoadInitParameter@CInitParameter@@QAEXXZ$0 0042baf0 f   InitParameter.obj
 0001:0002aafc       __unwindfunclet$?LoadInitParameter@CInitParameter@@QAEXXZ$1 0042bafc f   InitParameter.obj
 0001:0002ab08       __ehhandler$?LoadInitParameter@CInitParameter@@QAEXXZ 0042bb08 f   InitParameter.obj
 0001:0002ab40       __unwindfunclet$??0?$CMap@KKPAVCServerUserItem@@PAV1@@@QAE@H@Z$0 0042bb40 f   ServerUserManager.obj
 0001:0002ab48       __ehhandler$??0?$CMap@KKPAVCServerUserItem@@PAV1@@@QAE@H@Z 0042bb48 f   ServerUserManager.obj
 0001:0002ab70       __unwindfunclet$??0?$CMap@KKPAVCUserFriendGroup@@PAV1@@@QAE@H@Z$0 0042bb70 f   ServerUserManager.obj
 0001:0002ab78       __ehhandler$??0?$CMap@KKPAVCUserFriendGroup@@PAV1@@@QAE@H@Z 0042bb78 f   ServerUserManager.obj
 0001:0002aba0       __unwindfunclet$??0CFriendGroupManager@@QAE@XZ$0 0042bba0 f   ServerUserManager.obj
 0001:0002abab       __unwindfunclet$??0CFriendGroupManager@@QAE@XZ$1 0042bbab f   ServerUserManager.obj
 0001:0002abb6       __unwindfunclet$??0CFriendGroupManager@@QAE@XZ$2 0042bbb6 f   ServerUserManager.obj
 0001:0002abc1       __ehhandler$??0CFriendGroupManager@@QAE@XZ 0042bbc1 f   ServerUserManager.obj
 0001:0002abf0       __unwindfunclet$??0CServerUserManager@@QAE@XZ$0 0042bbf0 f   ServerUserManager.obj
 0001:0002abfb       __unwindfunclet$??0CServerUserManager@@QAE@XZ$1 0042bbfb f   ServerUserManager.obj
 0001:0002ac06       __unwindfunclet$??0CServerUserManager@@QAE@XZ$2 0042bc06 f   ServerUserManager.obj
 0001:0002ac11       __unwindfunclet$??0CServerUserManager@@QAE@XZ$3 0042bc11 f   ServerUserManager.obj
 0001:0002ac1c       __ehhandler$??0CServerUserManager@@QAE@XZ 0042bc1c f   ServerUserManager.obj
 0001:0002ac50       __ehhandler$??1?$CMap@KKPAVCServerUserItem@@PAV1@@@UAE@XZ 0042bc50 f   ServerUserManager.obj
 0001:0002ac80       __ehhandler$??1?$CMap@KKPAVCUserFriendGroup@@PAV1@@@UAE@XZ 0042bc80 f   ServerUserManager.obj
 0001:0002acb0       __unwindfunclet$??1CFriendGroupManager@@UAE@XZ$4 0042bcb0 f   ServerUserManager.obj
 0001:0002acbb       __unwindfunclet$??1CFriendGroupManager@@UAE@XZ$5 0042bcbb f   ServerUserManager.obj
 0001:0002acc6       __unwindfunclet$??1CFriendGroupManager@@UAE@XZ$6 0042bcc6 f   ServerUserManager.obj
 0001:0002acd1       __ehhandler$??1CFriendGroupManager@@UAE@XZ 0042bcd1 f   ServerUserManager.obj
 0001:0002ad00       __unwindfunclet$??1CNearUserManager@@UAE@XZ$2 0042bd00 f   ServerUserManager.obj
 0001:0002ad0b       __ehhandler$??1CNearUserManager@@UAE@XZ 0042bd0b f   ServerUserManager.obj
 0001:0002ad30       __unwindfunclet$??1CServerUserManager@@UAE@XZ$4 0042bd30 f   ServerUserManager.obj
 0001:0002ad3b       __unwindfunclet$??1CServerUserManager@@UAE@XZ$5 0042bd3b f   ServerUserManager.obj
 0001:0002ad46       __unwindfunclet$??1CServerUserManager@@UAE@XZ$6 0042bd46 f   ServerUserManager.obj
 0001:0002ad51       __unwindfunclet$??1CServerUserManager@@UAE@XZ$7 0042bd51 f   ServerUserManager.obj
 0001:0002ad5c       __ehhandler$??1CServerUserManager@@UAE@XZ 0042bd5c f   ServerUserManager.obj
 0001:0002ad90       __ehhandler$??1CUserFriendGroup@@UAE@XZ 0042bd90 f   ServerUserManager.obj
 0001:0002adc0       __unwindfunclet$?ActiveFriendGroup@CFriendGroupManager@@QAEPAVCUserFriendGroup@@G@Z$2 0042bdc0 f   ServerUserManager.obj
 0001:0002adcf       __ehhandler$?ActiveFriendGroup@CFriendGroupManager@@QAEPAVCUserFriendGroup@@G@Z 0042bdcf f   ServerUserManager.obj
 0001:0002ae00       __ehhandler$?AllocateContent@CUserFriendGroup@@AAEPAUtagServerFriendInfo@@G@Z 0042be00 f   ServerUserManager.obj
 0001:0002ae30       __ehhandler$?ExtendGroupContent@CUserFriendGroup@@AAE_NG@Z 0042be30 f   ServerUserManager.obj
 0001:0002ae60       __unwindfunclet$?InsertLocalUserItem@CServerUserManager@@UAE_NAAUtagInsertLocalUserInfo@@AAUtagFriendUserInfo@@PBD@Z$2 0042be60 f   ServerUserManager.obj
 0001:0002ae72       __ehhandler$?InsertLocalUserItem@CServerUserManager@@UAE_NAAUtagInsertLocalUserInfo@@AAUtagFriendUserInfo@@PBD@Z 0042be72 f   ServerUserManager.obj
 0001:0002aea0       __ehhandler$?InsertNearUserItem@CNearUserManager@@UAE_NAAUtagNearUserInfo@@@Z 0042bea0 f   ServerUserManager.obj
 0001:0002aed0       __unwindfunclet$??0CServiceUnits@@QAE@XZ$0 0042bed0 f   ServiceUnits.obj
 0001:0002aed8       __unwindfunclet$??0CServiceUnits@@QAE@XZ$1 0042bed8 f   ServiceUnits.obj
 0001:0002aee6       __unwindfunclet$??0CServiceUnits@@QAE@XZ$2 0042bee6 f   ServiceUnits.obj
 0001:0002aef5       __unwindfunclet$??0CServiceUnits@@QAE@XZ$3 0042bef5 f   ServiceUnits.obj
 0001:0002af03       __unwindfunclet$??0CServiceUnits@@QAE@XZ$4 0042bf03 f   ServiceUnits.obj
 0001:0002af11       __unwindfunclet$??0CServiceUnits@@QAE@XZ$5 0042bf11 f   ServiceUnits.obj
 0001:0002af2c       __unwindfunclet$??0CServiceUnits@@QAE@XZ$6 0042bf2c f   ServiceUnits.obj
 0001:0002af3a       __unwindfunclet$??0CServiceUnits@@QAE@XZ$7 0042bf3a f   ServiceUnits.obj
 0001:0002af48       __unwindfunclet$??0CServiceUnits@@QAE@XZ$8 0042bf48 f   ServiceUnits.obj
 0001:0002af56       __unwindfunclet$??0CServiceUnits@@QAE@XZ$9 0042bf56 f   ServiceUnits.obj
 0001:0002af64       __unwindfunclet$??0CServiceUnits@@QAE@XZ$10 0042bf64 f   ServiceUnits.obj
 0001:0002af72       __ehhandler$??0CServiceUnits@@QAE@XZ 0042bf72 f   ServiceUnits.obj
 0001:0002afc0       __ehhandler$??1?$CTempldateHelper@UIAttemperEngine@@@@UAE@XZ 0042bfc0 f   ServiceUnits.obj
 0001:0002aff0       __ehhandler$??1?$CTempldateHelper@UIDataBaseEngine@@@@UAE@XZ 0042bff0 f   ServiceUnits.obj
 0001:0002b020       __ehhandler$??1?$CTempldateHelper@UITCPNetworkEngine@@@@UAE@XZ 0042c020 f   ServiceUnits.obj
 0001:0002b050       __ehhandler$??1?$CTempldateHelper@UITCPSocketService@@@@UAE@XZ 0042c050 f   ServiceUnits.obj
 0001:0002b080       __ehhandler$??1?$CTempldateHelper@UITimerEngine@@@@UAE@XZ 0042c080 f   ServiceUnits.obj
 0001:0002b0b0       __ehhandler$??1CServiceUnits@@UAE@XZ 0042c0b0 f   ServiceUnits.obj
 0001:0002b0e0       __ehhandler$?CreateInstance@?$CTempldateHelper@UIAttemperEngine@@@@QAE_NXZ 0042c0e0 f   ServiceUnits.obj
 0001:0002b110       __ehhandler$?CreateInstance@?$CTempldateHelper@UIDataBaseEngine@@@@QAE_NXZ 0042c110 f   ServiceUnits.obj
 0001:0002b140       __ehhandler$?CreateInstance@?$CTempldateHelper@UITCPNetworkEngine@@@@QAE_NXZ 0042c140 f   ServiceUnits.obj
 0001:0002b170       __ehhandler$?CreateInstance@?$CTempldateHelper@UITCPSocketService@@@@QAE_NXZ 0042c170 f   ServiceUnits.obj
 0001:0002b1a0       __ehhandler$?CreateInstance@?$CTempldateHelper@UITimerEngine@@@@QAE_NXZ 0042c1a0 f   ServiceUnits.obj
 0001:0002b1d0       __unwindfunclet$?OnUIControlRequest@CServiceUnits@@IAEJIJ@Z$0 0042c1d0 f   ServiceUnits.obj
 0001:0002b1dc       __ehhandler$?OnUIControlRequest@CServiceUnits@@IAEJIJ@Z 0042c1dc f   ServiceUnits.obj
 0001:0002b220       __unwindfunclet$?PostControlRequest@CServiceUnits@@QAE_NGPAXG@Z$0 0042c220 f   ServiceUnits.obj
 0001:0002b229       __ehhandler$?PostControlRequest@CServiceUnits@@QAE_NGPAXG@Z 0042c229 f   ServiceUnits.obj
 0001:0002b250       __unwindfunclet$??0_ATL_WIN_MODULE70@ATL@@QAE@XZ$0 0042c250 f   Stdafx.obj
 0001:0002b25b       __ehhandler$??0_ATL_WIN_MODULE70@ATL@@QAE@XZ 0042c25b f   Stdafx.obj
 0001:0002b280       __ehhandler$??1?$CSimpleArray@GV?$CSimpleArrayEqualHelper@G@ATL@@@ATL@@QAE@XZ 0042c280 f   Stdafx.obj
 0001:0002b2b0       __ehhandler$??1CAtlComModule@ATL@@QAE@XZ 0042c2b0 f   Stdafx.obj
 0001:0002b2e0       __ehhandler$??1CAtlWinModule@ATL@@QAE@XZ 0042c2e0 f   Stdafx.obj
 0001:0002b310       __ehhandler$??_Estringdispid@CComTypeInfoHolder@ATL@@QAEPAXI@Z 0042c310 f   mfcs140d:nolib.obj
 0001:0002b340       __ehhandler$?__scrt_initialize_thread_safe_statics_platform_specific@@YAXXZ 0042c340 f   msvcrtd:thread_safe_statics.obj
 0001:0002b370       __ehhandler$?__scrt_uninitialize_thread_safe_statics@@YAXXZ 0042c370 f   msvcrtd:thread_safe_statics.obj
 0001:0002c470       ??__FtheApp@@YAXXZ         0042d470 f   ChatServer.obj
 0001:0002c490       ??__F_AtlComModule@ATL@@YAXXZ 0042d490 f   Stdafx.obj
 0001:0002c4b0       ??__F_AtlWinModule@ATL@@YAXXZ 0042d4b0 f   Stdafx.obj
 0001:0002c510       ??__F_AtlComModule@ATL@@YAXXZ 0042d510 f   mfcs140d:nolib.obj
 0001:0002c530       ??__F_AtlWinModule@ATL@@YAXXZ 0042d530 f   mfcs140d:nolib.obj
 0001:0002c550       ??__F_AtlComModule@ATL@@YAXXZ 0042d550 f   mfcs140d:stdafx.obj
 0001:0002c570       ??__F_AtlWinModule@ATL@@YAXXZ 0042d570 f   mfcs140d:stdafx.obj
 0001:0002c58b       ??__F_AtlBaseModule@ATL@@YAXXZ 0042d58b f   atls:atlbase.obj
 0001:0002c5a0       ??__F_AtlComModule@ATL@@YAXXZ 0042d5a0 f   mfcs140d:appmodul.obj
 0001:0002c5c0       ??__F_AtlWinModule@ATL@@YAXXZ 0042d5c0 f   mfcs140d:appmodul.obj
 0002:00000104       ?pre_cpp_initializer@@3P6AXXZA 0042f104     msvcrtd:exe_winmain.obj
 0002:00000208       ?_AtlBaseModule$initializer$@ATL@@3P6AXXZA 0042f208     atls:atlbase.obj
 0002:0000020c       ?_afxInitAppState$initializer$@@3P6AXXZA 0042f20c     mfcs140d:appmodul.obj
 0002:00000314       ?theApp$initializer$@@3P6AXXZA 0042f314     ChatServer.obj
 0002:00000318       ?atlTraceException$initializer$@ATL@@3P6AXXZA 0042f318     DataBaseEngineSink.obj
 0002:0000031c       ?atlTraceGeneral$initializer$@ATL@@3P6AXXZA 0042f31c     Stdafx.obj
 0002:00000320       ?atlTraceCOM$initializer$@ATL@@3P6AXXZA 0042f320     Stdafx.obj
 0002:00000324       ?atlTraceQI$initializer$@ATL@@3P6AXXZA 0042f324     Stdafx.obj
 0002:00000328       ?atlTraceRegistrar$initializer$@ATL@@3P6AXXZA 0042f328     Stdafx.obj
 0002:0000032c       ?atlTraceRefcount$initializer$@ATL@@3P6AXXZA 0042f32c     Stdafx.obj
 0002:00000330       ?atlTraceWindowing$initializer$@ATL@@3P6AXXZA 0042f330     Stdafx.obj
 0002:00000334       ?atlTraceControls$initializer$@ATL@@3P6AXXZA 0042f334     Stdafx.obj
 0002:00000338       ?atlTraceHosting$initializer$@ATL@@3P6AXXZA 0042f338     Stdafx.obj
 0002:0000033c       ?atlTraceDBClient$initializer$@ATL@@3P6AXXZA 0042f33c     Stdafx.obj
 0002:00000340       ?atlTraceDBProvider$initializer$@ATL@@3P6AXXZA 0042f340     Stdafx.obj
 0002:00000344       ?atlTraceSnapin$initializer$@ATL@@3P6AXXZA 0042f344     Stdafx.obj
 0002:00000348       ?atlTraceNotImpl$initializer$@ATL@@3P6AXXZA 0042f348     Stdafx.obj
 0002:0000034c       ?atlTraceAllocation$initializer$@ATL@@3P6AXXZA 0042f34c     Stdafx.obj
 0002:00000350       ?atlTraceTime$initializer$@ATL@@3P6AXXZA 0042f350     Stdafx.obj
 0002:00000354       ?atlTraceCache$initializer$@ATL@@3P6AXXZA 0042f354     Stdafx.obj
 0002:00000358       ?atlTraceStencil$initializer$@ATL@@3P6AXXZA 0042f358     Stdafx.obj
 0002:0000035c       ?atlTraceString$initializer$@ATL@@3P6AXXZA 0042f35c     Stdafx.obj
 0002:00000360       ?atlTraceMap$initializer$@ATL@@3P6AXXZA 0042f360     Stdafx.obj
 0002:00000364       ?atlTraceUtil$initializer$@ATL@@3P6AXXZA 0042f364     Stdafx.obj
 0002:00000368       ?atlTraceSecurity$initializer$@ATL@@3P6AXXZA 0042f368     Stdafx.obj
 0002:0000036c       ?atlTraceSync$initializer$@ATL@@3P6AXXZA 0042f36c     Stdafx.obj
 0002:00000370       ?atlTraceISAPI$initializer$@ATL@@3P6AXXZA 0042f370     Stdafx.obj
 0002:00000374       ?_AtlComModule$initializer$@ATL@@3P6AXXZA 0042f374     Stdafx.obj
 0002:00000378       ?_AtlWinModule$initializer$@ATL@@3P6AXXZA 0042f378     Stdafx.obj
 0002:0000037c       ?InitializeCAtlStringMgr$initializer$@ATLImplementationDetails@ATL@@3P6AXXZA 0042f37c     Stdafx.obj
 0002:000006a0       ?pre_c_initializer@@3P6AHXZA 0042f6a0     msvcrtd:exe_winmain.obj
 0002:000007a4       ?post_pgo_initializer@@3P6AHXZA 0042f7a4     msvcrtd:exe_winmain.obj
 0002:000008a8       ?__scrt_initialize_tss_var@@3P6AHXZA 0042f8a8     msvcrtd:thread_safe_statics.obj
 0002:00000ed0       ?IID_IUnknownEx@@3U_GUID@@B 0042fed0     AttemperEngineSink.obj
 0002:00000ee0       ?IID_IAttemperEngineSink@@3U_GUID@@B 0042fee0     AttemperEngineSink.obj
 0002:00001284       ?szProduct@@3QBDB          00430284     ChatServer.obj
 0002:00001298       ?_messageEntries@?1??GetThisMessageMap@CChatServerApp@@KGPBUAFX_MSGMAP@@XZ@4QBUAFX_MSGMAP_ENTRY@@B 00430298     ChatServer.obj
 0002:000012b0       ?messageMap@?1??GetThisMessageMap@CChatServerApp@@KGPBUAFX_MSGMAP@@XZ@4U3@B 004302b0     ChatServer.obj
 0002:00001418       ?_messageEntries@?1??GetThisMessageMap@CChatServerDlg@@KGPBUAFX_MSGMAP@@XZ@4QBUAFX_MSGMAP_ENTRY@@B 00430418     ChatServerDlg.obj
 0002:00001490       ?messageMap@?1??GetThisMessageMap@CChatServerDlg@@KGPBUAFX_MSGMAP@@XZ@4U3@B 00430490     ChatServerDlg.obj
 0002:00001838       ?IID_IUnknownEx@@3U_GUID@@B 00430838     DataBaseEngineSink.obj
 0002:00001848       ?IID_IDataBase@@3U_GUID@@B 00430848     DataBaseEngineSink.obj
 0002:00001858       ?IID_IDataBaseEngineSink@@3U_GUID@@B 00430858     DataBaseEngineSink.obj
 0002:000024f4       ?szPlatformDB@@3QBDB       004314f4     InitParameter.obj
 0002:00002504       ?szAccountsDB@@3QBDB       00431504     InitParameter.obj
 0002:00002514       ?szTreasureDB@@3QBDB       00431514     InitParameter.obj
 0002:000029e4       ?IID_IUnknownEx@@3U_GUID@@B 004319e4     ServiceUnits.obj
 0002:000029f4       ?szCompilation@@3QBDB      004319f4     ServiceUnits.obj
 0002:00002a1c       ?IID_IDataBaseEngine@@3U_GUID@@B 00431a1c     ServiceUnits.obj
 0002:00002a2c       ?IID_ITCPNetworkEngine@@3U_GUID@@B 00431a2c     ServiceUnits.obj
 0002:00002a3c       ?IID_ITCPSocketService@@3U_GUID@@B 00431a3c     ServiceUnits.obj
 0002:00002a4c       ?IID_ITimerEngine@@3U_GUID@@B 00431a4c     ServiceUnits.obj
 0002:00002a5c       ?IID_IDataBaseEngineEvent@@3U_GUID@@B 00431a5c     ServiceUnits.obj
 0002:00002a6c       ?IID_IAttemperEngine@@3U_GUID@@B 00431a6c     ServiceUnits.obj
 0002:00002a7c       ?_messageEntries@?1??GetThisMessageMap@CServiceUnits@@KGPBUAFX_MSGMAP@@XZ@4QBUAFX_MSGMAP_ENTRY@@B 00431a7c     ServiceUnits.obj
 0002:00002aac       ?messageMap@?1??GetThisMessageMap@CServiceUnits@@KGPBUAFX_MSGMAP@@XZ@4U3@B 00431aac     ServiceUnits.obj
 0002:00005748       ?IID_ITraceServiceManager@@3U_GUID@@B 00434748     Stdafx.obj
 0002:00005758       ?IID_IAsynchronismEngine@@3U_GUID@@B 00434758     Stdafx.obj
 0002:00005768       ?IID_IDataBase@@3U_GUID@@B 00434768     Stdafx.obj
 0002:00005778       ?IID_IDataBaseEngine@@3U_GUID@@B 00434778     Stdafx.obj
 0002:00005788       ?IID_IUDPNetworkEngine@@3U_GUID@@B 00434788     Stdafx.obj
 0002:00005798       ?IID_ITCPNetworkEngine@@3U_GUID@@B 00434798     Stdafx.obj
 0002:000057a8       ?IID_ITCPSocketService@@3U_GUID@@B 004347a8     Stdafx.obj
 0002:000057b8       ?IID_IWEBSocketService@@3U_GUID@@B 004347b8     Stdafx.obj
 0002:000057c8       ?IID_ITimerEngine@@3U_GUID@@B 004347c8     Stdafx.obj
 0002:000057d8       ?IID_IAttemperEngine@@3U_GUID@@B 004347d8     Stdafx.obj
 0002:00006910       _Int32ToUInt32             00435910     msvcrtd:ftol3.obj
 0002:00006918       _DP2to32                   00435918     msvcrtd:ftol3.obj
 0002:00006920       _MantissaMask              00435920     msvcrtd:ftol3.obj
 0002:00006928       _IntegerBit                00435928     msvcrtd:ftol3.obj
 0002:00006930       _SignBit64                 00435930     msvcrtd:ftol3.obj
 0002:00006938       _MinFP64                   00435938     msvcrtd:ftol3.obj
 0002:00006940       _MinInt64                  00435940     msvcrtd:ftol3.obj
 0002:00006948       _MaxInt64                  00435948     msvcrtd:ftol3.obj
 0002:00006950       _MaxUInt64                 00435950     msvcrtd:ftol3.obj
 0002:00006958       _MaxFP32                   00435958     msvcrtd:ftol3.obj
 0002:00006960       _MinFP32                   00435960     msvcrtd:ftol3.obj
 0002:00006968       _MinSubInexact             00435968     msvcrtd:ftol3.obj
 0002:00006970       _FpExcptTable              00435970     msvcrtd:ftol3.obj
 0002:00006980       _i1075                     00435980     msvcrtd:ftol3.obj
 0002:00006984       _i1087                     00435984     msvcrtd:ftol3.obj
 0002:00006988       _x0800                     00435988     msvcrtd:ftol3.obj
 0002:0000698c       _x17FF                     0043598c     msvcrtd:ftol3.obj
 0002:00006990       _CWMask                    00435990     msvcrtd:ftol3.obj
 0002:00006b44       _GS_ExceptionPointers      00435b44     msvcrtd:gs_report.obj
 0002:00006b50       ?_RTC_ErrorMessages@@3QBQBDB 00435b50     msvcrtd:error.obj
 0002:00006b68       ?_RTC_NoFalsePositives@@3QBHB 00435b68     msvcrtd:error.obj
 0002:00006b80       ?stack_premsg@@3QBDB       00435b80     msvcrtd:error.obj
 0002:00006b9c       ?stack_postmsg@@3QBDB      00435b9c     msvcrtd:error.obj
 0002:00006bb0       ?uninit_premsg@@3QBDB      00435bb0     msvcrtd:error.obj
 0002:00006bc0       ?uninit_postmsg@@3QBDB     00435bc0     msvcrtd:error.obj
 0002:00007208       ?_RTC_errlist@@3QBQBDB     00436208     msvcrtd:userapi.obj
 0002:000072ec       ?mspdbName@@3QB_WB         004362ec     msvcrtd:pdblkup.obj
 0002:00007310       ?debugCrtFileName@@3QB_WB  00436310     msvcrtd:pdblkup.obj
 0002:000074a0       ?dllExt@?1??GetPdbDllPathFromFilePath@@YAHPB_WPA_WI@Z@4QB_WB 004364a0     msvcrtd:pdblkup.obj
 0002:000074ac       ?mspdbFilename@?1??GetPdbDllPathFromFilePath@@YAHPB_WPA_WI@Z@4QB_WB 004364ac     msvcrtd:pdblkup.obj
 0002:000092a4       __RTC_InitBase.rtc$IMZ     004382a4     mfcs140d:nolib.obj
 0002:000092a8       __RTC_InitBase.rtc$IMZ     004382a8     mfcs140d:stdafx.obj
 0002:000092ac       __RTC_InitBase.rtc$IMZ     004382ac     mfcs140d:appmodul.obj
 0002:000095bc       __RTC_Shutdown.rtc$TMZ     004385bc     mfcs140d:nolib.obj
 0002:000095c0       __RTC_Shutdown.rtc$TMZ     004385c0     mfcs140d:stdafx.obj
 0002:000095c4       __RTC_Shutdown.rtc$TMZ     004385c4     mfcs140d:appmodul.obj
 0002:000097d0       __unwindtable$??0CAttemperEngineSink@@QAE@XZ 004387d0     AttemperEngineSink.obj
 0002:000097e8       __ehfuncinfo$??0CAttemperEngineSink@@QAE@XZ 004387e8     AttemperEngineSink.obj
 0002:00009814       __catchsym$??1CAttemperEngineSink@@UAE@XZ$12 00438814     AttemperEngineSink.obj
 0002:00009824       __catchsym$??1CAttemperEngineSink@@UAE@XZ$11 00438824     AttemperEngineSink.obj
 0002:00009834       __catchsym$??1CAttemperEngineSink@@UAE@XZ$10 00438834     AttemperEngineSink.obj
 0002:00009844       __ehfuncinfo$??1CAttemperEngineSink@@UAE@XZ 00438844     AttemperEngineSink.obj
 0002:00009868       __tryblocktable$??1CAttemperEngineSink@@UAE@XZ 00438868     AttemperEngineSink.obj
 0002:000098a4       __unwindtable$??1CAttemperEngineSink@@UAE@XZ 004388a4     AttemperEngineSink.obj
 0002:0000990c       __catchsym$?OnAttemperEngineConclude@CAttemperEngineSink@@UAE_NPAUIUnknownEx@@@Z$5 0043890c     AttemperEngineSink.obj
 0002:0000991c       __catchsym$?OnAttemperEngineConclude@CAttemperEngineSink@@UAE_NPAUIUnknownEx@@@Z$4 0043891c     AttemperEngineSink.obj
 0002:0000992c       __unwindtable$?OnAttemperEngineConclude@CAttemperEngineSink@@UAE_NPAUIUnknownEx@@@Z 0043892c     AttemperEngineSink.obj
 0002:0000994c       __ehfuncinfo$?OnAttemperEngineConclude@CAttemperEngineSink@@UAE_NPAUIUnknownEx@@@Z 0043894c     AttemperEngineSink.obj
 0002:00009970       __tryblocktable$?OnAttemperEngineConclude@CAttemperEngineSink@@UAE_NPAUIUnknownEx@@@Z 00438970     AttemperEngineSink.obj
 0002:000099a8       __catchsym$?OnEventTimer@CAttemperEngineSink@@UAE_NKI@Z$2 004389a8     AttemperEngineSink.obj
 0002:000099b8       __unwindtable$?OnEventTimer@CAttemperEngineSink@@UAE_NKI@Z 004389b8     AttemperEngineSink.obj
 0002:000099c8       __tryblocktable$?OnEventTimer@CAttemperEngineSink@@UAE_NKI@Z 004389c8     AttemperEngineSink.obj
 0002:000099dc       __ehfuncinfo$?OnEventTimer@CAttemperEngineSink@@UAE_NKI@Z 004389dc     AttemperEngineSink.obj
 0002:00009a08       __catchsym$?OnEventTCPNetworkShut@CAttemperEngineSink@@UAE_NKKK@Z$2 00438a08     AttemperEngineSink.obj
 0002:00009a18       __unwindtable$?OnEventTCPNetworkShut@CAttemperEngineSink@@UAE_NKKK@Z 00438a18     AttemperEngineSink.obj
 0002:00009a28       __tryblocktable$?OnEventTCPNetworkShut@CAttemperEngineSink@@UAE_NKKK@Z 00438a28     AttemperEngineSink.obj
 0002:00009a3c       __ehfuncinfo$?OnEventTCPNetworkShut@CAttemperEngineSink@@UAE_NKKK@Z 00438a3c     AttemperEngineSink.obj
 0002:00009a68       __unwindtable$?OnTCPNetworkGetNearuser@CAttemperEngineSink@@IAE_NPAXGK@Z 00438a68     AttemperEngineSink.obj
 0002:00009a70       __ehfuncinfo$?OnTCPNetworkGetNearuser@CAttemperEngineSink@@IAE_NPAXGK@Z 00438a70     AttemperEngineSink.obj
 0002:00009a98       __unwindtable$?OnTCPNetworkQueryNearuser@CAttemperEngineSink@@IAE_NPAXGK@Z 00438a98     AttemperEngineSink.obj
 0002:00009aa0       __ehfuncinfo$?OnTCPNetworkQueryNearuser@CAttemperEngineSink@@IAE_NPAXGK@Z 00438aa0     AttemperEngineSink.obj
 0002:00009ac8       __catchsym$?OnEventDataBase@CAttemperEngineSink@@MAE_NGKPAXG@Z$2 00438ac8     AttemperEngineSink.obj
 0002:00009ad8       __unwindtable$?OnEventDataBase@CAttemperEngineSink@@MAE_NGKPAXG@Z 00438ad8     AttemperEngineSink.obj
 0002:00009ae8       __tryblocktable$?OnEventDataBase@CAttemperEngineSink@@MAE_NGKPAXG@Z 00438ae8     AttemperEngineSink.obj
 0002:00009afc       __ehfuncinfo$?OnEventDataBase@CAttemperEngineSink@@MAE_NGKPAXG@Z 00438afc     AttemperEngineSink.obj
 0002:00009b28       __unwindtable$?InitInstance@CChatServerApp@@UAEHXZ 00438b28     ChatServer.obj
 0002:00009b30       __ehfuncinfo$?InitInstance@CChatServerApp@@UAEHXZ 00438b30     ChatServer.obj
 0002:00009b58       __unwindtable$??0CChatServerDlg@@QAE@XZ 00438b58     ChatServerDlg.obj
 0002:00009b68       __ehfuncinfo$??0CChatServerDlg@@QAE@XZ 00438b68     ChatServerDlg.obj
 0002:00009b94       __catchsym$?StartServerService@CChatServerDlg@@IAE_NG@Z$2 00438b94     ChatServerDlg.obj
 0002:00009ba4       __unwindtable$?StartServerService@CChatServerDlg@@IAE_NG@Z 00438ba4     ChatServerDlg.obj
 0002:00009bb4       __tryblocktable$?StartServerService@CChatServerDlg@@IAE_NG@Z 00438bb4     ChatServerDlg.obj
 0002:00009bc8       __ehfuncinfo$?StartServerService@CChatServerDlg@@IAE_NG@Z 00438bc8     ChatServerDlg.obj
 0002:00009bf4       __catchsym$?OnBnClickedStartService@CChatServerDlg@@IAEXXZ$2 00438bf4     ChatServerDlg.obj
 0002:00009c04       __unwindtable$?OnBnClickedStartService@CChatServerDlg@@IAEXXZ 00438c04     ChatServerDlg.obj
 0002:00009c14       __tryblocktable$?OnBnClickedStartService@CChatServerDlg@@IAEXXZ 00438c14     ChatServerDlg.obj
 0002:00009c28       __ehfuncinfo$?OnBnClickedStartService@CChatServerDlg@@IAEXXZ 00438c28     ChatServerDlg.obj
 0002:00009c54       __catchsym$?OnBnClickedStopService@CChatServerDlg@@IAEXXZ$2 00438c54     ChatServerDlg.obj
 0002:00009c64       __unwindtable$?OnBnClickedStopService@CChatServerDlg@@IAEXXZ 00438c64     ChatServerDlg.obj
 0002:00009c74       __tryblocktable$?OnBnClickedStopService@CChatServerDlg@@IAEXXZ 00438c74     ChatServerDlg.obj
 0002:00009c88       __ehfuncinfo$?OnBnClickedStopService@CChatServerDlg@@IAEXXZ 00438c88     ChatServerDlg.obj
 0002:00009cb4       __unwindtable$?OnMessageProcessCmdLine@CChatServerDlg@@QAEJIJ@Z 00438cb4     ChatServerDlg.obj
 0002:00009cbc       __ehfuncinfo$?OnMessageProcessCmdLine@CChatServerDlg@@QAEJIJ@Z 00438cbc     ChatServerDlg.obj
 0002:00009ce4       __unwindtable$?TraceV@CTrace@ATL@@SAXPBDHII0PAD@Z 00438ce4     DataBaseEngineSink.obj
 0002:00009cf4       __ehfuncinfo$?TraceV@CTrace@ATL@@SAXPBDHII0PAD@Z 00438cf4     DataBaseEngineSink.obj
 0002:00009d20       __unwindtable$??RCTraceFileAndLineInfo@ATL@@QBAXHIPBDZZ 00438d20     DataBaseEngineSink.obj
 0002:00009d28       __ehfuncinfo$??RCTraceFileAndLineInfo@ATL@@QBAXHIPBDZZ 00438d28     DataBaseEngineSink.obj
 0002:00009d50       __ehfuncinfo$??1?$CTempldateHelper@UIDataBase@@@@UAE@XZ 00438d50     DataBaseEngineSink.obj
 0002:00009d78       __unwindtable$?CreateInstance@?$CTempldateHelper@UIDataBase@@@@QAE_NXZ 00438d78     DataBaseEngineSink.obj
 0002:00009d88       __tryblocktable$?CreateInstance@?$CTempldateHelper@UIDataBase@@@@QAE_NXZ 00438d88     DataBaseEngineSink.obj
 0002:00009d9c       __catchsym$?CreateInstance@?$CTempldateHelper@UIDataBase@@@@QAE_NXZ$3 00438d9c     DataBaseEngineSink.obj
 0002:00009dbc       __ehfuncinfo$?CreateInstance@?$CTempldateHelper@UIDataBase@@@@QAE_NXZ 00438dbc     DataBaseEngineSink.obj
 0002:00009dec       __ehfuncinfo$??0CDataBaseEngineSink@@QAE@XZ 00438dec     DataBaseEngineSink.obj
 0002:00009e10       __unwindtable$??0CDataBaseEngineSink@@QAE@XZ 00438e10     DataBaseEngineSink.obj
 0002:00009e40       __catchsym$?OnDataBaseEngineStart@CDataBaseEngineSink@@UAE_NPAUIUnknownEx@@@Z$2 00438e40     DataBaseEngineSink.obj
 0002:00009e50       __unwindtable$?OnDataBaseEngineStart@CDataBaseEngineSink@@UAE_NPAUIUnknownEx@@@Z 00438e50     DataBaseEngineSink.obj
 0002:00009e60       __tryblocktable$?OnDataBaseEngineStart@CDataBaseEngineSink@@UAE_NPAUIUnknownEx@@@Z 00438e60     DataBaseEngineSink.obj
 0002:00009e74       __ehfuncinfo$?OnDataBaseEngineStart@CDataBaseEngineSink@@UAE_NPAUIUnknownEx@@@Z 00438e74     DataBaseEngineSink.obj
 0002:00009ea0       __catchsym$?OnRequestLogonUserID@CDataBaseEngineSink@@IAE_NKPAXG@Z$4 00438ea0     DataBaseEngineSink.obj
 0002:00009eb0       __tryblocktable$?OnRequestLogonUserID@CDataBaseEngineSink@@IAE_NKPAXG@Z 00438eb0     DataBaseEngineSink.obj
 0002:00009ec4       __unwindtable$?OnRequestLogonUserID@CDataBaseEngineSink@@IAE_NKPAXG@Z 00438ec4     DataBaseEngineSink.obj
 0002:00009ee4       __ehfuncinfo$?OnRequestLogonUserID@CDataBaseEngineSink@@IAE_NKPAXG@Z 00438ee4     DataBaseEngineSink.obj
 0002:00009f14       __catchsym$?OnRequestModifyFriend@CDataBaseEngineSink@@IAE_NKPAXG@Z$2 00438f14     DataBaseEngineSink.obj
 0002:00009f24       __unwindtable$?OnRequestModifyFriend@CDataBaseEngineSink@@IAE_NKPAXG@Z 00438f24     DataBaseEngineSink.obj
 0002:00009f34       __tryblocktable$?OnRequestModifyFriend@CDataBaseEngineSink@@IAE_NKPAXG@Z 00438f34     DataBaseEngineSink.obj
 0002:00009f48       __ehfuncinfo$?OnRequestModifyFriend@CDataBaseEngineSink@@IAE_NKPAXG@Z 00438f48     DataBaseEngineSink.obj
 0002:00009f74       __catchsym$?OnRequestAddFriend@CDataBaseEngineSink@@IAE_NKPAXG@Z$2 00438f74     DataBaseEngineSink.obj
 0002:00009f84       __unwindtable$?OnRequestAddFriend@CDataBaseEngineSink@@IAE_NKPAXG@Z 00438f84     DataBaseEngineSink.obj
 0002:00009f94       __tryblocktable$?OnRequestAddFriend@CDataBaseEngineSink@@IAE_NKPAXG@Z 00438f94     DataBaseEngineSink.obj
 0002:00009fa8       __ehfuncinfo$?OnRequestAddFriend@CDataBaseEngineSink@@IAE_NKPAXG@Z 00438fa8     DataBaseEngineSink.obj
 0002:00009fd4       __catchsym$?OnRequestDeleteFriend@CDataBaseEngineSink@@IAE_NKPAXG@Z$2 00438fd4     DataBaseEngineSink.obj
 0002:00009fe4       __unwindtable$?OnRequestDeleteFriend@CDataBaseEngineSink@@IAE_NKPAXG@Z 00438fe4     DataBaseEngineSink.obj
 0002:00009ff4       __tryblocktable$?OnRequestDeleteFriend@CDataBaseEngineSink@@IAE_NKPAXG@Z 00438ff4     DataBaseEngineSink.obj
 0002:0000a008       __ehfuncinfo$?OnRequestDeleteFriend@CDataBaseEngineSink@@IAE_NKPAXG@Z 00439008     DataBaseEngineSink.obj
 0002:0000a034       __catchsym$?OnRequestModifyGroup@CDataBaseEngineSink@@IAE_NKPAXG@Z$4 00439034     DataBaseEngineSink.obj
 0002:0000a044       __tryblocktable$?OnRequestModifyGroup@CDataBaseEngineSink@@IAE_NKPAXG@Z 00439044     DataBaseEngineSink.obj
 0002:0000a058       __unwindtable$?OnRequestModifyGroup@CDataBaseEngineSink@@IAE_NKPAXG@Z 00439058     DataBaseEngineSink.obj
 0002:0000a070       __ehfuncinfo$?OnRequestModifyGroup@CDataBaseEngineSink@@IAE_NKPAXG@Z 00439070     DataBaseEngineSink.obj
 0002:0000a0a0       __catchsym$?OnRequestModifyRemarks@CDataBaseEngineSink@@IAE_NKPAXG@Z$2 004390a0     DataBaseEngineSink.obj
 0002:0000a0b0       __unwindtable$?OnRequestModifyRemarks@CDataBaseEngineSink@@IAE_NKPAXG@Z 004390b0     DataBaseEngineSink.obj
 0002:0000a0c0       __tryblocktable$?OnRequestModifyRemarks@CDataBaseEngineSink@@IAE_NKPAXG@Z 004390c0     DataBaseEngineSink.obj
 0002:0000a0d4       __ehfuncinfo$?OnRequestModifyRemarks@CDataBaseEngineSink@@IAE_NKPAXG@Z 004390d4     DataBaseEngineSink.obj
 0002:0000a100       __catchsym$?OnRequestSearchUser@CDataBaseEngineSink@@IAE_NKPAXG@Z$2 00439100     DataBaseEngineSink.obj
 0002:0000a110       __unwindtable$?OnRequestSearchUser@CDataBaseEngineSink@@IAE_NKPAXG@Z 00439110     DataBaseEngineSink.obj
 0002:0000a120       __tryblocktable$?OnRequestSearchUser@CDataBaseEngineSink@@IAE_NKPAXG@Z 00439120     DataBaseEngineSink.obj
 0002:0000a134       __ehfuncinfo$?OnRequestSearchUser@CDataBaseEngineSink@@IAE_NKPAXG@Z 00439134     DataBaseEngineSink.obj
 0002:0000a160       __catchsym$?OnRequestSaveOfflineMessage@CDataBaseEngineSink@@IAE_NKPAXG@Z$2 00439160     DataBaseEngineSink.obj
 0002:0000a170       __unwindtable$?OnRequestSaveOfflineMessage@CDataBaseEngineSink@@IAE_NKPAXG@Z 00439170     DataBaseEngineSink.obj
 0002:0000a180       __tryblocktable$?OnRequestSaveOfflineMessage@CDataBaseEngineSink@@IAE_NKPAXG@Z 00439180     DataBaseEngineSink.obj
 0002:0000a194       __ehfuncinfo$?OnRequestSaveOfflineMessage@CDataBaseEngineSink@@IAE_NKPAXG@Z 00439194     DataBaseEngineSink.obj
 0002:0000a1c0       __catchsym$?OnRequestTrumpet@CDataBaseEngineSink@@IAE_NKPAXG@Z$2 004391c0     DataBaseEngineSink.obj
 0002:0000a1d0       __unwindtable$?OnRequestTrumpet@CDataBaseEngineSink@@IAE_NKPAXG@Z 004391d0     DataBaseEngineSink.obj
 0002:0000a1e0       __tryblocktable$?OnRequestTrumpet@CDataBaseEngineSink@@IAE_NKPAXG@Z 004391e0     DataBaseEngineSink.obj
 0002:0000a1f4       __ehfuncinfo$?OnRequestTrumpet@CDataBaseEngineSink@@IAE_NKPAXG@Z 004391f4     DataBaseEngineSink.obj
 0002:0000a220       __catchsym$?OnRequestUpdatePlaceName@CDataBaseEngineSink@@IAE_NKPAXG@Z$2 00439220     DataBaseEngineSink.obj
 0002:0000a230       __unwindtable$?OnRequestUpdatePlaceName@CDataBaseEngineSink@@IAE_NKPAXG@Z 00439230     DataBaseEngineSink.obj
 0002:0000a240       __tryblocktable$?OnRequestUpdatePlaceName@CDataBaseEngineSink@@IAE_NKPAXG@Z 00439240     DataBaseEngineSink.obj
 0002:0000a254       __ehfuncinfo$?OnRequestUpdatePlaceName@CDataBaseEngineSink@@IAE_NKPAXG@Z 00439254     DataBaseEngineSink.obj
 0002:0000a280       __catchsym$?OnRequestLoadSystemMessage@CDataBaseEngineSink@@IAE_NKPAXG@Z$3 00439280     DataBaseEngineSink.obj
 0002:0000a290       __tryblocktable$?OnRequestLoadSystemMessage@CDataBaseEngineSink@@IAE_NKPAXG@Z 00439290     DataBaseEngineSink.obj
 0002:0000a2a4       __unwindtable$?OnRequestLoadSystemMessage@CDataBaseEngineSink@@IAE_NKPAXG@Z 004392a4     DataBaseEngineSink.obj
 0002:0000a2bc       __ehfuncinfo$?OnRequestLoadSystemMessage@CDataBaseEngineSink@@IAE_NKPAXG@Z 004392bc     DataBaseEngineSink.obj
 0002:0000a2ec       __unwindtable$?LoadInitParameter@CInitParameter@@QAEXXZ 004392ec     InitParameter.obj
 0002:0000a2fc       __ehfuncinfo$?LoadInitParameter@CInitParameter@@QAEXXZ 004392fc     InitParameter.obj
 0002:0000a328       __catchsym$??1CNearUserManager@@UAE@XZ$3 00439328     ServerUserManager.obj
 0002:0000a338       __tryblocktable$??1CNearUserManager@@UAE@XZ 00439338     ServerUserManager.obj
 0002:0000a34c       __unwindtable$??1CNearUserManager@@UAE@XZ 0043934c     ServerUserManager.obj
 0002:0000a364       __ehfuncinfo$??1CNearUserManager@@UAE@XZ 00439364     ServerUserManager.obj
 0002:0000a394       __catchsym$?InsertNearUserItem@CNearUserManager@@UAE_NAAUtagNearUserInfo@@@Z$2 00439394     ServerUserManager.obj
 0002:0000a3a4       __unwindtable$?InsertNearUserItem@CNearUserManager@@UAE_NAAUtagNearUserInfo@@@Z 004393a4     ServerUserManager.obj
 0002:0000a3b4       __tryblocktable$?InsertNearUserItem@CNearUserManager@@UAE_NAAUtagNearUserInfo@@@Z 004393b4     ServerUserManager.obj
 0002:0000a3c8       __ehfuncinfo$?InsertNearUserItem@CNearUserManager@@UAE_NAAUtagNearUserInfo@@@Z 004393c8     ServerUserManager.obj
 0002:0000a3f4       __unwindtable$??0?$CMap@KKPAVCServerUserItem@@PAV1@@@QAE@H@Z 004393f4     ServerUserManager.obj
 0002:0000a3fc       __ehfuncinfo$??0?$CMap@KKPAVCServerUserItem@@PAV1@@@QAE@H@Z 004393fc     ServerUserManager.obj
 0002:0000a424       __ehfuncinfo$??1?$CMap@KKPAVCServerUserItem@@PAV1@@@UAE@XZ 00439424     ServerUserManager.obj
 0002:0000a44c       __unwindtable$??0CServerUserManager@@QAE@XZ 0043944c     ServerUserManager.obj
 0002:0000a46c       __ehfuncinfo$??0CServerUserManager@@QAE@XZ 0043946c     ServerUserManager.obj
 0002:0000a498       __catchsym$??1CServerUserManager@@UAE@XZ$9 00439498     ServerUserManager.obj
 0002:0000a4a8       __catchsym$??1CServerUserManager@@UAE@XZ$8 004394a8     ServerUserManager.obj
 0002:0000a4b8       __ehfuncinfo$??1CServerUserManager@@UAE@XZ 004394b8     ServerUserManager.obj
 0002:0000a4dc       __tryblocktable$??1CServerUserManager@@UAE@XZ 004394dc     ServerUserManager.obj
 0002:0000a504       __unwindtable$??1CServerUserManager@@UAE@XZ 00439504     ServerUserManager.obj
 0002:0000a558       __catchsym$?InsertLocalUserItem@CServerUserManager@@UAE_NAAUtagInsertLocalUserInfo@@AAUtagFriendUserInfo@@PBD@Z$3 00439558     ServerUserManager.obj
 0002:0000a568       __tryblocktable$?InsertLocalUserItem@CServerUserManager@@UAE_NAAUtagInsertLocalUserInfo@@AAUtagFriendUserInfo@@PBD@Z 00439568     ServerUserManager.obj
 0002:0000a57c       __unwindtable$?InsertLocalUserItem@CServerUserManager@@UAE_NAAUtagInsertLocalUserInfo@@AAUtagFriendUserInfo@@PBD@Z 0043957c     ServerUserManager.obj
 0002:0000a594       __ehfuncinfo$?InsertLocalUserItem@CServerUserManager@@UAE_NAAUtagInsertLocalUserInfo@@AAUtagFriendUserInfo@@PBD@Z 00439594     ServerUserManager.obj
 0002:0000a5c4       __catchsym$??1CUserFriendGroup@@UAE@XZ$2 004395c4     ServerUserManager.obj
 0002:0000a5d4       __unwindtable$??1CUserFriendGroup@@UAE@XZ 004395d4     ServerUserManager.obj
 0002:0000a5e4       __tryblocktable$??1CUserFriendGroup@@UAE@XZ 004395e4     ServerUserManager.obj
 0002:0000a5f8       __ehfuncinfo$??1CUserFriendGroup@@UAE@XZ 004395f8     ServerUserManager.obj
 0002:0000a624       __catchsym$?AllocateContent@CUserFriendGroup@@AAEPAUtagServerFriendInfo@@G@Z$5 00439624     ServerUserManager.obj
 0002:0000a634       __catchsym$?AllocateContent@CUserFriendGroup@@AAEPAUtagServerFriendInfo@@G@Z$4 00439634     ServerUserManager.obj
 0002:0000a644       __unwindtable$?AllocateContent@CUserFriendGroup@@AAEPAUtagServerFriendInfo@@G@Z 00439644     ServerUserManager.obj
 0002:0000a664       __ehfuncinfo$?AllocateContent@CUserFriendGroup@@AAEPAUtagServerFriendInfo@@G@Z 00439664     ServerUserManager.obj
 0002:0000a688       __tryblocktable$?AllocateContent@CUserFriendGroup@@AAEPAUtagServerFriendInfo@@G@Z 00439688     ServerUserManager.obj
 0002:0000a6c0       __catchsym$?ExtendGroupContent@CUserFriendGroup@@AAE_NG@Z$5 004396c0     ServerUserManager.obj
 0002:0000a6d0       __catchsym$?ExtendGroupContent@CUserFriendGroup@@AAE_NG@Z$4 004396d0     ServerUserManager.obj
 0002:0000a6e0       __unwindtable$?ExtendGroupContent@CUserFriendGroup@@AAE_NG@Z 004396e0     ServerUserManager.obj
 0002:0000a700       __ehfuncinfo$?ExtendGroupContent@CUserFriendGroup@@AAE_NG@Z 00439700     ServerUserManager.obj
 0002:0000a724       __tryblocktable$?ExtendGroupContent@CUserFriendGroup@@AAE_NG@Z 00439724     ServerUserManager.obj
 0002:0000a75c       __unwindtable$??0?$CMap@KKPAVCUserFriendGroup@@PAV1@@@QAE@H@Z 0043975c     ServerUserManager.obj
 0002:0000a764       __ehfuncinfo$??0?$CMap@KKPAVCUserFriendGroup@@PAV1@@@QAE@H@Z 00439764     ServerUserManager.obj
 0002:0000a78c       __ehfuncinfo$??1?$CMap@KKPAVCUserFriendGroup@@PAV1@@@UAE@XZ 0043978c     ServerUserManager.obj
 0002:0000a7b4       __unwindtable$??0CFriendGroupManager@@QAE@XZ 004397b4     ServerUserManager.obj
 0002:0000a7cc       __ehfuncinfo$??0CFriendGroupManager@@QAE@XZ 004397cc     ServerUserManager.obj
 0002:0000a7f8       __catchsym$??1CFriendGroupManager@@UAE@XZ$8 004397f8     ServerUserManager.obj
 0002:0000a808       __catchsym$??1CFriendGroupManager@@UAE@XZ$7 00439808     ServerUserManager.obj
 0002:0000a818       __ehfuncinfo$??1CFriendGroupManager@@UAE@XZ 00439818     ServerUserManager.obj
 0002:0000a83c       __tryblocktable$??1CFriendGroupManager@@UAE@XZ 0043983c     ServerUserManager.obj
 0002:0000a864       __unwindtable$??1CFriendGroupManager@@UAE@XZ 00439864     ServerUserManager.obj
 0002:0000a8ac       __catchsym$?ActiveFriendGroup@CFriendGroupManager@@QAEPAVCUserFriendGroup@@G@Z$3 004398ac     ServerUserManager.obj
 0002:0000a8bc       __tryblocktable$?ActiveFriendGroup@CFriendGroupManager@@QAEPAVCUserFriendGroup@@G@Z 004398bc     ServerUserManager.obj
 0002:0000a8d0       __unwindtable$?ActiveFriendGroup@CFriendGroupManager@@QAEPAVCUserFriendGroup@@G@Z 004398d0     ServerUserManager.obj
 0002:0000a8e8       __ehfuncinfo$?ActiveFriendGroup@CFriendGroupManager@@QAEPAVCUserFriendGroup@@G@Z 004398e8     ServerUserManager.obj
 0002:0000a97c       __ehfuncinfo$??1?$CTempldateHelper@UITimerEngine@@@@UAE@XZ 0043997c     ServiceUnits.obj
 0002:0000a9a4       __unwindtable$?CreateInstance@?$CTempldateHelper@UITimerEngine@@@@QAE_NXZ 004399a4     ServiceUnits.obj
 0002:0000a9b4       __tryblocktable$?CreateInstance@?$CTempldateHelper@UITimerEngine@@@@QAE_NXZ 004399b4     ServiceUnits.obj
 0002:0000a9c8       __catchsym$?CreateInstance@?$CTempldateHelper@UITimerEngine@@@@QAE_NXZ$3 004399c8     ServiceUnits.obj
 0002:0000a9e8       __ehfuncinfo$?CreateInstance@?$CTempldateHelper@UITimerEngine@@@@QAE_NXZ 004399e8     ServiceUnits.obj
 0002:0000aa18       __ehfuncinfo$??1?$CTempldateHelper@UIDataBaseEngine@@@@UAE@XZ 00439a18     ServiceUnits.obj
 0002:0000aa40       __unwindtable$?CreateInstance@?$CTempldateHelper@UIDataBaseEngine@@@@QAE_NXZ 00439a40     ServiceUnits.obj
 0002:0000aa50       __tryblocktable$?CreateInstance@?$CTempldateHelper@UIDataBaseEngine@@@@QAE_NXZ 00439a50     ServiceUnits.obj
 0002:0000aa64       __catchsym$?CreateInstance@?$CTempldateHelper@UIDataBaseEngine@@@@QAE_NXZ$3 00439a64     ServiceUnits.obj
 0002:0000aa84       __ehfuncinfo$?CreateInstance@?$CTempldateHelper@UIDataBaseEngine@@@@QAE_NXZ 00439a84     ServiceUnits.obj
 0002:0000aab4       __ehfuncinfo$??1?$CTempldateHelper@UIAttemperEngine@@@@UAE@XZ 00439ab4     ServiceUnits.obj
 0002:0000aadc       __unwindtable$?CreateInstance@?$CTempldateHelper@UIAttemperEngine@@@@QAE_NXZ 00439adc     ServiceUnits.obj
 0002:0000aaec       __tryblocktable$?CreateInstance@?$CTempldateHelper@UIAttemperEngine@@@@QAE_NXZ 00439aec     ServiceUnits.obj
 0002:0000ab00       __catchsym$?CreateInstance@?$CTempldateHelper@UIAttemperEngine@@@@QAE_NXZ$3 00439b00     ServiceUnits.obj
 0002:0000ab20       __ehfuncinfo$?CreateInstance@?$CTempldateHelper@UIAttemperEngine@@@@QAE_NXZ 00439b20     ServiceUnits.obj
 0002:0000ab50       __ehfuncinfo$??1?$CTempldateHelper@UITCPSocketService@@@@UAE@XZ 00439b50     ServiceUnits.obj
 0002:0000ab78       __unwindtable$?CreateInstance@?$CTempldateHelper@UITCPSocketService@@@@QAE_NXZ 00439b78     ServiceUnits.obj
 0002:0000ab88       __tryblocktable$?CreateInstance@?$CTempldateHelper@UITCPSocketService@@@@QAE_NXZ 00439b88     ServiceUnits.obj
 0002:0000ab9c       __catchsym$?CreateInstance@?$CTempldateHelper@UITCPSocketService@@@@QAE_NXZ$3 00439b9c     ServiceUnits.obj
 0002:0000abbc       __ehfuncinfo$?CreateInstance@?$CTempldateHelper@UITCPSocketService@@@@QAE_NXZ 00439bbc     ServiceUnits.obj
 0002:0000abec       __ehfuncinfo$??1?$CTempldateHelper@UITCPNetworkEngine@@@@UAE@XZ 00439bec     ServiceUnits.obj
 0002:0000ac14       __unwindtable$?CreateInstance@?$CTempldateHelper@UITCPNetworkEngine@@@@QAE_NXZ 00439c14     ServiceUnits.obj
 0002:0000ac24       __tryblocktable$?CreateInstance@?$CTempldateHelper@UITCPNetworkEngine@@@@QAE_NXZ 00439c24     ServiceUnits.obj
 0002:0000ac38       __catchsym$?CreateInstance@?$CTempldateHelper@UITCPNetworkEngine@@@@QAE_NXZ$3 00439c38     ServiceUnits.obj
 0002:0000ac58       __ehfuncinfo$?CreateInstance@?$CTempldateHelper@UITCPNetworkEngine@@@@QAE_NXZ 00439c58     ServiceUnits.obj
 0002:0000ac88       __ehfuncinfo$??0CServiceUnits@@QAE@XZ 00439c88     ServiceUnits.obj
 0002:0000acac       __unwindtable$??0CServiceUnits@@QAE@XZ 00439cac     ServiceUnits.obj
 0002:0000ad10       __ehfuncinfo$??1CServiceUnits@@UAE@XZ 00439d10     ServiceUnits.obj
 0002:0000ad38       __unwindtable$?PostControlRequest@CServiceUnits@@QAE_NGPAXG@Z 00439d38     ServiceUnits.obj
 0002:0000ad40       __ehfuncinfo$?PostControlRequest@CServiceUnits@@QAE_NGPAXG@Z 00439d40     ServiceUnits.obj
 0002:0000ad68       __unwindtable$?OnUIControlRequest@CServiceUnits@@IAEJIJ@Z 00439d68     ServiceUnits.obj
 0002:0000ad70       __ehfuncinfo$?OnUIControlRequest@CServiceUnits@@IAEJIJ@Z 00439d70     ServiceUnits.obj
 0002:0000ad98       __ehfuncinfo$??1?$CSimpleArray@GV?$CSimpleArrayEqualHelper@G@ATL@@@ATL@@QAE@XZ 00439d98     Stdafx.obj
 0002:0000adc0       __unwindtable$??0_ATL_WIN_MODULE70@ATL@@QAE@XZ 00439dc0     Stdafx.obj
 0002:0000adc8       __ehfuncinfo$??0_ATL_WIN_MODULE70@ATL@@QAE@XZ 00439dc8     Stdafx.obj
 0002:0000adf0       __ehfuncinfo$??1CAtlComModule@ATL@@QAE@XZ 00439df0     Stdafx.obj
 0002:0000ae18       __ehfuncinfo$??1CAtlWinModule@ATL@@QAE@XZ 00439e18     Stdafx.obj
 0002:0000ae40       __sehtable$_WinbaseIsolationAwarePrivatetRgzlnPgpgk@0 00439e40     mfcs140d:nolib.obj
 0002:0000ae60       __sehtable$_IsolationAwareUnregisterClassA@8 00439e60     mfcs140d:nolib.obj
 0002:0000ae80       __ehfuncinfo$??_Estringdispid@CComTypeInfoHolder@ATL@@QAEPAXI@Z 00439e80     mfcs140d:nolib.obj
 0002:0000aea8       __sehtable$___scrt_is_nonwritable_in_current_image 00439ea8     msvcrtd:utility.obj
 0002:0000aec8       __sehtable$??_L@YGXPAXIIP6EX0@Z1@Z 00439ec8     msvcrtd:ehvecctr.obj
 0002:0000aee8       __sehtable$??_M@YGXPAXIIP6EX0@Z@Z 00439ee8     msvcrtd:ehvecdtr.obj
 0002:0000af08       __sehtable$?__ArrayUnwind@@YGXPAXIIP6EX0@Z@Z 00439f08     msvcrtd:ehvecdtr.obj
 0002:0000af28       __ehfuncinfo$?__scrt_initialize_thread_safe_statics_platform_specific@@YAXXZ 00439f28     msvcrtd:thread_safe_statics.obj
 0002:0000af50       __ehfuncinfo$?__scrt_uninitialize_thread_safe_statics@@YAXXZ 00439f50     msvcrtd:thread_safe_statics.obj
 0002:0000af78       __sehtable$?__scrt_common_main_seh@@YAHXZ 00439f78     msvcrtd:exe_winmain.obj
 0002:0000af98       __sehtable$?notify_debugger@@YAXABUtagEXCEPTION_VISUALCPP_DEBUG_INFO@@@Z 00439f98     msvcrtd:error.obj
 0003:00000008       ?THIS_FILE@@3PADA          0043b008     AttemperEngineSink.obj
 0003:00000118       ?THIS_FILE@@3PADA          0043b118     DataBaseEngineSink.obj
 0003:000001e8       ?THIS_FILE@@3PADA          0043b1e8     ServiceUnits.obj
 0003:000036cc       ?is_initialized_as_dll@@3_NA 0043e6cc     msvcrtd:utility.obj
 0003:000036cd       ?module_local_atexit_table_initialized@@3_NA 0043e6cd     msvcrtd:utility.obj
 0003:000036d0       ?module_local_atexit_table@@3U_onexit_table_t@@A 0043e6d0     msvcrtd:utility.obj
 0003:000036dc       ?module_local_at_quick_exit_table@@3U_onexit_table_t@@A 0043e6dc     msvcrtd:utility.obj
 0003:000036f0       ?_Tss_mutex@@3U_RTL_CRITICAL_SECTION@@A 0043e6f0     msvcrtd:thread_safe_statics.obj
 0003:00003708       ?_Tss_cv@@3U_RTL_CONDITION_VARIABLE@@A 0043e708     msvcrtd:thread_safe_statics.obj
 0003:0000370c       ?_Tss_event@@3PAXA         0043e70c     msvcrtd:thread_safe_statics.obj
 0003:00003710       ?encoded_sleep_condition_variable_cs@@3P6GHPAU_RTL_CONDITION_VARIABLE@@PAU_RTL_CRITICAL_SECTION@@K@ZA 0043e710     msvcrtd:thread_safe_statics.obj
 0003:00003714       ?encoded_wake_all_condition_variable@@3P6GXPAU_RTL_CONDITION_VARIABLE@@@ZA 0043e714     msvcrtd:thread_safe_statics.obj
 0003:00003724       ?init@?1??_RTC_InitBase@@9@4_NA 0043e724     msvcrtd:init.obj
 0003:00003728       _GS_ExceptionRecord        0043e728     msvcrtd:gs_report.obj
 0003:00003778       _GS_ContextRecord          0043e778     msvcrtd:gs_report.obj
 0003:00003b14       ?_RTC_ErrorReportFunc@@3P6AHHPBDH00ZZA 0043eb14     msvcrtd:userapi.obj
 0003:00003b18       ?_RTC_ErrorReportFuncW@@3P6AHHPB_WH00ZZA 0043eb18     msvcrtd:userapi.obj
 0003:00003b20       ?mspdb@@3PAUHINSTANCE__@@A 0043eb20     msvcrtd:pdblkup.obj
 0003:00003b24       ?alreadyTried@?1??GetPdbDll@@YAPAUHINSTANCE__@@XZ@4_NA 0043eb24     msvcrtd:pdblkup.obj
 0003:00003b25       ?PDBOK@?1??_RTC_GetSrcLine@@YAHPAEPA_WKPAH1K@Z@4_NA 0043eb25     msvcrtd:pdblkup.obj
 0004:00001490       .idata$6                   00440490     ServiceCore:ServiceCore.dll
 0004:000018a4       .idata$6                   004408a4     KernelEngine:KernelEngine.dll
 0004:000018b6       .idata$6                   004408b6     mfc140d:mfc140d.dll
 0004:00001c2a       .idata$6                   00440c2a     kernel32:KERNEL32.dll
 0004:00001c86       .idata$6                   00440c86     user32:USER32.dll
 0004:00001c92       .idata$6                   00440c92     comctl32:COMCTL32.dll
 0004:00001ca0       .idata$6                   00440ca0     oleaut32:OLEAUT32.dll
 0004:00001d98       .idata$6                   00440d98     msvcprtd:MSVCP140D.dll
 0004:00001e8e       .idata$6                   00440e8e     vcruntimed:VCRUNTIME140D.dll
 0004:00002234       .idata$6                   00441234     ucrtd:ucrtbased.dll
 0007:000002d0       $R000000                   004442d0     ChatServer.res
 0007:00009778       $R0094A8                   0044d778     ChatServer.res
 0007:00009790       $R0094C0                   0044d790     ChatServer.res
 0007:00009a70       $R0097A0                   0044da70     ChatServer.res
 0007:00009b30       $R009860                   0044db30     ChatServer.res
