 GameServer

 Timestamp is 5da6ac54 (Wed Oct 16 13:36:20 2019)

 Preferred load address is 00400000

 Start         Length     Name                   Class
 0001:00000000 000076d0H .text$di                CODE
 0001:000076d0 0007b890H .text$mn                CODE
 0001:00082f60 000042b0H .text$x                 CODE
 0001:00087210 00001198H .text$yd                CODE
 0002:00000000 00000104H .CRT$XCA                DATA
 0002:00000104 00000104H .CRT$XCAA               DATA
 0002:00000208 0000010cH .CRT$XCL                DATA
 0002:00000314 00000188H .CRT$XCU                DATA
 0002:0000049c 00000104H .CRT$XCZ                DATA
 0002:000005a0 00000104H .CRT$XIA                DATA
 0002:000006a4 00000104H .CRT$XIAA               DATA
 0002:000007a8 00000104H .CRT$XIAC               DATA
 0002:000008ac 00000104H .CRT$XIC                DATA
 0002:000009b0 00000104H .CRT$XIZ                DATA
 0002:00000ab4 00000004H .CRT$XLA                DATA
 0002:00000ab8 00000004H .CRT$XLZ                DATA
 0002:00000abc 00000104H .CRT$XPA                DATA
 0002:00000bc0 00000104H .CRT$XPZ                DATA
 0002:00000cc4 00000104H .CRT$XTA                DATA
 0002:00000dc8 00000108H .CRT$XTZ                DATA
 0002:00000ed0 0000ce44H .rdata                  DATA
 0002:0000dd14 0000011cH .rdata$T                DATA
 0002:0000de30 00001c70H .rdata$r                DATA
 0002:0000faa0 0000048cH .rdata$sxdata           DATA
 0002:0000ff2c 000001a0H .rdata$zzzdbg           DATA
 0002:000100cc 00000104H .rtc$IAA                DATA
 0002:000101d0 00000124H .rtc$IMZ                DATA
 0002:000102f4 00000104H .rtc$IZZ                DATA
 0002:000103f8 00000104H .rtc$TAA                DATA
 0002:000104fc 00000124H .rtc$TMZ                DATA
 0002:00010620 00000108H .rtc$TZZ                DATA
 0002:00010728 00004894H .xdata$x                DATA
 0002:00014fbc 00000104H ATL$__a                 DATA
 0002:000150c0 00000104H ATL$__z                 DATA
 0002:000151c4 00000000H .edata                  DATA
 0003:00000000 00000728H .data                   DATA
 0003:00000728 00001028H .data$r                 DATA
 0003:00001750 00002e44H .bss                    DATA
 0004:00000000 00000ac0H .idata$5                DATA
 0004:00000ac0 00000104H .idata$2                DATA
 0004:00000bc4 00000014H .idata$3                DATA
 0004:00000bd8 00000ac0H .idata$4                DATA
 0004:00001698 00001e0cH .idata$6                DATA
 0005:00000000 00000104H .tls                    DATA
 0005:00000104 00000104H .tls$                   DATA
 0005:00000208 00000101H .tls$ZZZ                DATA
 0006:00000000 00000104H .00cfg                  DATA
 0007:00000000 00000490H .rsrc$01                DATA
 0007:00000490 000080d6H .rsrc$02                DATA

  Address         Publics by Value              Rva+Base       Lib:Object

 0000:00000000       ___guard_fids_table        00000000     <absolute>
 0000:00000000       ___enclave_config          00000000     <absolute>
 0000:00000000       ___volatile_metadata       00000000     <absolute>
 0000:00000000       ___hybrid_code_map_count   00000000     <absolute>
 0000:00000000       ___guard_longjmp_table     00000000     <absolute>
 0000:00000000       ___guard_iat_table         00000000     <absolute>
 0000:00000000       ___guard_fids_count        00000000     <absolute>
 0000:00000000       ___hybrid_auxiliary_iat    00000000     <absolute>
 0000:00000000       ___guard_iat_count         00000000     <absolute>
 0000:00000000       ___guard_longjmp_count     00000000     <absolute>
 0000:00000000       ___hybrid_code_map         00000000     <absolute>
 0000:00000000       ___dynamic_value_reloc_table 00000000     <absolute>
 0000:0000002c       __tls_array                0000002c     <absolute>
 0000:000000bd       ___safe_se_handler_count   000000bd     <absolute>
 0000:00000100       ___guard_flags             00000100     <absolute>
 0000:00000000       ___ImageBase               00400000     <linker-defined>
 0001:000076d0       ??$CompareElements@KK@@YGHPBK0@Z 004086d0 f i AttemperEngineSink.obj
 0001:000077d0       ??$DumpElements@K@@YGXAAVCDumpContext@@PBKH@Z 004087d0 f i AttemperEngineSink.obj
 0001:00007880       ??$HashKey@K@@YGIK@Z       00408880 f i AttemperEngineSink.obj
 0001:000078f0       ??$SerializeElements@K@@YGXAAVCArchive@@PAKH@Z 004088f0 f i AttemperEngineSink.obj
 0001:00007a90       ??$_snprintf_s@$0BAA@@@YAHAAY0BAA@DIPBDZZ 00408a90 f i AttemperEngineSink.obj
 0001:00007ad0       ??$_snprintf_s@$0CAA@@@YAHAAY0CAA@DIPBDZZ 00408ad0 f i AttemperEngineSink.obj
 0001:00007b10       ??$_snprintf_s@$0EA@@@YAHAAY0EA@DIPBDZZ 00408b10 f i AttemperEngineSink.obj
 0001:00007b50       ??$_snprintf_s@$0IA@@@YAHAAY0IA@DIPBDZZ 00408b50 f i AttemperEngineSink.obj
 0001:00007b90       ??0?$CMap@KKKAAK@@QAE@H@Z  00408b90 f i AttemperEngineSink.obj
 0001:00007c80       ??0?$CTraceCategoryEx@$0CAAA@$0A@@ATL@@QAE@PBD@Z 00408c80 f i AttemperEngineSink.obj
 0001:00007cc0       ??0?$CTraceCategoryEx@$0CAAAA@$0A@@ATL@@QAE@PBD@Z 00408cc0 f i AttemperEngineSink.obj
 0001:00007d00       ??0?$CWHArray@PAUtagPersonalTableParameter@@ABQAU1@@@QAE@XZ 00408d00 f i AttemperEngineSink.obj
 0001:00007d60       ??0?$CWHArray@PAUtagSystemMessage@@ABQAU1@@@QAE@XZ 00408d60 f i AttemperEngineSink.obj
 0001:00007dc0       ??0?$CWHArray@PAVCTableFrame@@ABQAV1@@@QAE@XZ 00408dc0 f i AttemperEngineSink.obj
 0001:00007e20       ??0?$CWHArray@PBDABQBD@@QAE@XZ 00408e20 f i AttemperEngineSink.obj
 0001:00007e80       ??0?$CWHArray@UtagDistributeInfo@@ABU1@@@QAE@XZ 00408e80 f i AttemperEngineSink.obj
 0001:00007ee0       ??0CAssoc@?$CMap@KKKAAK@@QAE@K@Z 00408ee0 f i AttemperEngineSink.obj
 0001:00007f10       ??0CAttemperEngineSink@@QAE@XZ 00408f10 f   AttemperEngineSink.obj
 0001:00008310       ??0CFilterTree@@QAE@XZ     00409310 f i AttemperEngineSink.obj
 0001:00008340       ??0CMD_CS_C_DismissTable@@QAE@XZ 00409340 f i AttemperEngineSink.obj
 0001:00008370       ??0CMD_CS_C_UpdateTablePlayerCount@@QAE@XZ 00409370 f i AttemperEngineSink.obj
 0001:000083c0       ??0CMD_GR_DissumeTable@@QAE@XZ 004093c0 f i AttemperEngineSink.obj
 0001:00008400       ??0CPair@?$CMap@KKKAAK@@IAE@K@Z 00409400 f i AttemperEngineSink.obj
 0001:00008430       ??0CRecvPacketHelper@@QAE@PBXG@Z 00409430 f i AttemperEngineSink.obj
 0001:00008480       ??0CSendPacketHelper@@QAE@PAXG@Z 00409480 f i AttemperEngineSink.obj
 0001:000084d0       ??0CSensitiveWordsFilter@@QAE@XZ 004094d0 f i AttemperEngineSink.obj
 0001:00008510       ??0IAttemperEngineSink@@QAE@XZ 00409510 f i AttemperEngineSink.obj
 0001:00008540       ??0IMainServiceFrame@@QAE@XZ 00409540 f i AttemperEngineSink.obj
 0001:00008570       ??0IServerUserItemSink@@QAE@XZ 00409570 f i AttemperEngineSink.obj
 0001:000085a0       ??0IUnknownEx@@QAE@XZ      004095a0 f i AttemperEngineSink.obj
 0001:000085d0       ??0tagPersonalUserScoreInfo@@QAE@XZ 004095d0 f i AttemperEngineSink.obj
 0001:00008600       ??1?$CMap@KKKAAK@@UAE@XZ   00409600 f i AttemperEngineSink.obj
 0001:00008690       ??1?$CWHArray@PAUtagPersonalTableParameter@@ABQAU1@@@UAE@XZ 00409690 f i AttemperEngineSink.obj
 0001:00008710       ??1?$CWHArray@PAUtagSystemMessage@@ABQAU1@@@UAE@XZ 00409710 f i AttemperEngineSink.obj
 0001:00008790       ??1?$CWHArray@PAVCTableFrame@@ABQAV1@@@UAE@XZ 00409790 f i AttemperEngineSink.obj
 0001:00008810       ??1?$CWHArray@PBDABQBD@@UAE@XZ 00409810 f i AttemperEngineSink.obj
 0001:00008890       ??1?$CWHArray@UtagDistributeInfo@@ABU1@@@UAE@XZ 00409890 f i AttemperEngineSink.obj
 0001:00008910       ??1CAttemperEngineSink@@UAE@XZ 00409910 f   AttemperEngineSink.obj
 0001:00008d50       ??1CSensitiveWordsFilter@@UAE@XZ 00409d50 f i AttemperEngineSink.obj
 0001:00008d80       ??2@YAPAXIPAX@Z            00409d80 f i AttemperEngineSink.obj
 0001:00008da0       ??A?$CMap@KKKAAK@@QAEAAKK@Z 00409da0 f i AttemperEngineSink.obj
 0001:00008ed0       ??A?$CWHArray@PAUtagSystemMessage@@ABQAU1@@@QAEAAPAUtagSystemMessage@@H@Z 00409ed0 f i AttemperEngineSink.obj
 0001:00008f00       ??A?$CWHArray@PAVCTableFrame@@ABQAV1@@@QAEAAPAVCTableFrame@@H@Z 00409f00 f i AttemperEngineSink.obj
 0001:00008f30       ??A?$CWHArray@UtagDistributeInfo@@ABU1@@@QAEAAUtagDistributeInfo@@H@Z 00409f30 f i AttemperEngineSink.obj
 0001:00008f60       ??C?$CTempldateHelper@UITCPNetworkEngine@@@@QBEPAUITCPNetworkEngine@@XZ 00409f60 f i AttemperEngineSink.obj
 0001:00008f90       ??_G?$CMap@KKKAAK@@UAEPAXI@Z 00409f90 f i AttemperEngineSink.obj
 0001:00008f90       ??_E?$CMap@KKKAAK@@UAEPAXI@Z 00409f90 f i AttemperEngineSink.obj
 0001:00008ff0       ??_G?$CWHArray@PAUtagPersonalTableParameter@@ABQAU1@@@UAEPAXI@Z 00409ff0 f i AttemperEngineSink.obj
 0001:00008ff0       ??_E?$CWHArray@PAUtagPersonalTableParameter@@ABQAU1@@@UAEPAXI@Z 00409ff0 f i AttemperEngineSink.obj
 0001:00009040       ??_G?$CWHArray@PAUtagSystemMessage@@ABQAU1@@@UAEPAXI@Z 0040a040 f i AttemperEngineSink.obj
 0001:00009040       ??_E?$CWHArray@PAUtagSystemMessage@@ABQAU1@@@UAEPAXI@Z 0040a040 f i AttemperEngineSink.obj
 0001:00009090       ??_G?$CWHArray@PAVCTableFrame@@ABQAV1@@@UAEPAXI@Z 0040a090 f i AttemperEngineSink.obj
 0001:00009090       ??_E?$CWHArray@PAVCTableFrame@@ABQAV1@@@UAEPAXI@Z 0040a090 f i AttemperEngineSink.obj
 0001:000090e0       ??_G?$CWHArray@PBDABQBD@@UAEPAXI@Z 0040a0e0 f i AttemperEngineSink.obj
 0001:000090e0       ??_E?$CWHArray@PBDABQBD@@UAEPAXI@Z 0040a0e0 f i AttemperEngineSink.obj
 0001:00009130       ??_G?$CWHArray@UtagDistributeInfo@@ABU1@@@UAEPAXI@Z 0040a130 f i AttemperEngineSink.obj
 0001:00009130       ??_E?$CWHArray@UtagDistributeInfo@@ABU1@@@UAEPAXI@Z 0040a130 f i AttemperEngineSink.obj
 0001:00009180       ??_GCAttemperEngineSink@@UAEPAXI@Z 0040a180 f i AttemperEngineSink.obj
 0001:00009180       ??_ECAttemperEngineSink@@UAEPAXI@Z 0040a180 f i AttemperEngineSink.obj
 0001:000091d0       ??_ECSensitiveWordsFilter@@UAEPAXI@Z 0040a1d0 f i AttemperEngineSink.obj
 0001:000091d0       ??_GCSensitiveWordsFilter@@UAEPAXI@Z 0040a1d0 f i AttemperEngineSink.obj
 0001:00009220       ??_H@YGXPAXIIP6EPAX0@Z@Z   0040a220 f i AttemperEngineSink.obj
 0001:00009270       ?Add@?$CWHArray@PAUtagPersonalTableParameter@@ABQAU1@@@QAEHABQAUtagPersonalTableParameter@@@Z 0040a270 f i AttemperEngineSink.obj
 0001:000092b0       ?Add@?$CWHArray@PAUtagSystemMessage@@ABQAU1@@@QAEHABQAUtagSystemMessage@@@Z 0040a2b0 f i AttemperEngineSink.obj
 0001:000092f0       ?AddPacket@CSendPacketHelper@@QAE_NPAXGG@Z 0040a2f0 f i AttemperEngineSink.obj
 0001:00009460       ?AddPacket@CSendPacketHelper@@QAE_NPBDG@Z 0040a460 f i AttemperEngineSink.obj
 0001:000094f0       ?AfxAssertFailedLine@@YGHPBDH@Z 0040a4f0 f i AttemperEngineSink.obj
 0001:00009560       ?AllocMemory@?$CWHArray@PAUtagPersonalTableParameter@@ABQAU1@@@QAEXH@Z 0040a560 f i AttemperEngineSink.obj
 0001:000096d0       ?AllocMemory@?$CWHArray@PAUtagSystemMessage@@ABQAU1@@@QAEXH@Z 0040a6d0 f i AttemperEngineSink.obj
 0001:00009840       ?AllocMemory@?$CWHArray@PAVCTableFrame@@ABQAV1@@@QAEXH@Z 0040a840 f i AttemperEngineSink.obj
 0001:000099b0       ?Append@?$CWHArray@PAUtagSystemMessage@@ABQAU1@@@QAEHABV1@@Z 0040a9b0 f i AttemperEngineSink.obj
 0001:00009aa0       ?AssertValid@?$CMap@KKKAAK@@UBEXXZ 0040aaa0 f i AttemperEngineSink.obj
 0001:00009b20       ?CanDismissGame@CMasterRight@@SA_NK@Z 0040ab20 f i AttemperEngineSink.obj
 0001:00009b60       ?CanIssueMessage@CMasterRight@@SA_NK@Z 0040ab60 f i AttemperEngineSink.obj
 0001:00009ba0       ?CanKillOutUser@CUserRight@@SA_NK@Z 0040aba0 f i AttemperEngineSink.obj
 0001:00009be0       ?CanKillUser@CMasterRight@@SA_NK@Z 0040abe0 f i AttemperEngineSink.obj
 0001:00009c20       ?CanLimitGameChat@CMasterRight@@SA_NK@Z 0040ac20 f i AttemperEngineSink.obj
 0001:00009c60       ?CanLimitRoomChat@CMasterRight@@SA_NK@Z 0040ac60 f i AttemperEngineSink.obj
 0001:00009ca0       ?CanLimitUserChat@CMasterRight@@SA_NK@Z 0040aca0 f i AttemperEngineSink.obj
 0001:00009ce0       ?CanLimitWisper@CMasterRight@@SA_NK@Z 0040ace0 f i AttemperEngineSink.obj
 0001:00009d20       ?CanManagerAndroid@CMasterRight@@SA_NK@Z 0040ad20 f i AttemperEngineSink.obj
 0001:00009d60       ?CanRoomChat@CUserRight@@SA_NK@Z 0040ad60 f i AttemperEngineSink.obj
 0001:00009da0       ?CanSendWarning@CMasterRight@@SA_NK@Z 0040ada0 f i AttemperEngineSink.obj
 0001:00009de0       ?CanWisper@CUserRight@@SA_NK@Z 0040ade0 f i AttemperEngineSink.obj
 0001:00009e20       ?CancelCreateTable@CAttemperEngineSink@@UAEXKKKKGK@Z 0040ae20 f   AttemperEngineSink.obj
 0001:0000a0f0       ?DeleteDistribute@CAttemperEngineSink@@UAE_NPAUIServerUserItem@@@Z 0040b0f0 f   AttemperEngineSink.obj
 0001:0000a130       ?DisconnectCorrespond@CAttemperEngineSink@@UAE_NXZ 0040b130 f   AttemperEngineSink.obj
 0001:0000a1b0       ?DismissPersonalTable@CAttemperEngineSink@@UAEXGG@Z 0040b1b0 f   AttemperEngineSink.obj
 0001:0000a270       ?Dump@?$CMap@KKKAAK@@UBEXAAVCDumpContext@@@Z 0040b270 f i AttemperEngineSink.obj
 0001:0000a380       ?ElementAt@?$CWHArray@PAUtagSystemMessage@@ABQAU1@@@QAEAAPAUtagSystemMessage@@H@Z 0040b380 f i AttemperEngineSink.obj
 0001:0000a400       ?ElementAt@?$CWHArray@PAVCTableFrame@@ABQAV1@@@QAEAAPAVCTableFrame@@H@Z 0040b400 f i AttemperEngineSink.obj
 0001:0000a480       ?ElementAt@?$CWHArray@UtagDistributeInfo@@ABU1@@@QAEAAUtagDistributeInfo@@H@Z 0040b480 f i AttemperEngineSink.obj
 0001:0000a4f0       ?FreeAssoc@?$CMap@KKKAAK@@IAEXPAVCAssoc@1@@Z 0040b4f0 f i AttemperEngineSink.obj
 0001:0000a570       ?GetAssocAt@?$CMap@KKKAAK@@IBEPAVCAssoc@1@KAAI0@Z 0040b570 f i AttemperEngineSink.obj
 0001:0000a620       ?GetAt@?$CWHArray@PAUtagPersonalTableParameter@@ABQAU1@@@QAEAAPAUtagPersonalTableParameter@@H@Z 0040b620 f i AttemperEngineSink.obj
 0001:0000a6a0       ?GetAt@?$CWHArray@PAVCTableFrame@@ABQAV1@@@QAEAAPAVCTableFrame@@H@Z 0040b6a0 f i AttemperEngineSink.obj
 0001:0000a720       ?GetBindParameter@CAttemperEngineSink@@UAEPAUtagBindParameter@@G@Z 0040b720 f   AttemperEngineSink.obj
 0001:0000a7e0       ?GetBindUserItem@CAttemperEngineSink@@UAEPAUIServerUserItem@@G@Z 0040b7e0 f   AttemperEngineSink.obj
 0001:0000a850       ?GetBuildVer@@YAEK@Z       0040b850 f i AttemperEngineSink.obj
 0001:0000a880       ?GetCount@?$CWHArray@PAUtagPersonalTableParameter@@ABQAU1@@@QBEHXZ 0040b880 f i AttemperEngineSink.obj
 0001:0000a8a0       ?GetCount@?$CWHArray@PAUtagSystemMessage@@ABQAU1@@@QBEHXZ 0040b8a0 f i AttemperEngineSink.obj
 0001:0000a8c0       ?GetCount@?$CWHArray@PAVCTableFrame@@ABQAV1@@@QBEHXZ 0040b8c0 f i AttemperEngineSink.obj
 0001:0000a8e0       ?GetCount@?$CWHArray@UtagDistributeInfo@@ABU1@@@QBEHXZ 0040b8e0 f i AttemperEngineSink.obj
 0001:0000a900       ?GetCount@CDistributeManager@@QAEGXZ 0040b900 f i AttemperEngineSink.obj
 0001:0000a920       ?GetData@?$CWHArray@PAVCTableFrame@@ABQAV1@@@QAEPAPAVCTableFrame@@XZ 0040b920 f i AttemperEngineSink.obj
 0001:0000a940       ?GetData@CRecvPacketHelper@@QAEPAXAAUtagDataDescribe@@@Z 0040b940 f i AttemperEngineSink.obj
 0001:0000aaf0       ?GetDataSize@CSendPacketHelper@@QAEGXZ 0040baf0 f i AttemperEngineSink.obj
 0001:0000ab10       ?GetInterface@?$CTempldateHelper@UITCPNetworkEngine@@@@QBEPAUITCPNetworkEngine@@XZ 0040bb10 f i AttemperEngineSink.obj
 0001:0000ab40       ?GetMainVer@@YAEK@Z        0040bb40 f i AttemperEngineSink.obj
 0001:0000ab70       ?GetNextAssoc@?$CMap@KKKAAK@@QBEXAAPAU__POSITION@@AAK1@Z 0040bb70 f i AttemperEngineSink.obj
 0001:0000adc0       ?GetProductVer@@YAEK@Z     0040bdc0 f i AttemperEngineSink.obj
 0001:0000adf0       ?GetPropertyType@CAttemperEngineSink@@QAEGG@Z 0040bdf0 f   AttemperEngineSink.obj
 0001:0000aec0       ?GetServiceStatus@CServiceUnits@@QAE?AW4enServiceStatus@@XZ 0040bec0 f i AttemperEngineSink.obj
 0001:0000aef0       ?GetStartPosition@?$CMap@KKKAAK@@QBEPAU__POSITION@@XZ 0040bef0 f i AttemperEngineSink.obj
 0001:0000af30       ?GetSubVer@@YAEK@Z         0040bf30 f i AttemperEngineSink.obj
 0001:0000af60       ?InitAndroidUser@CAttemperEngineSink@@IAE_NXZ 0040bf60 f   AttemperEngineSink.obj
 0001:0000b0b0       ?InitHashTable@?$CMap@KKKAAK@@QAEXIH@Z 0040c0b0 f i AttemperEngineSink.obj
 0001:0000b230       ?InitMatchServiceManager@CAttemperEngineSink@@IAE_NXZ 0040c230 f   AttemperEngineSink.obj
 0001:0000b3c0       ?InitPersonalRoomServiceManager@CAttemperEngineSink@@IAE_NXZ 0040c3c0 f   AttemperEngineSink.obj
 0001:0000b560       ?InitTableFrameArray@CAttemperEngineSink@@IAE_NXZ 0040c560 f   AttemperEngineSink.obj
 0001:0000b950       ?InsertDistribute@CAttemperEngineSink@@UAE_NPAUIServerUserItem@@@Z 0040c950 f   AttemperEngineSink.obj
 0001:0000bc00       ?InterfaceVersionCompare@@YA_NKK@Z 0040cc00 f i AttemperEngineSink.obj
 0001:0000bce0       ?IsAllowAndroidAttend@CServerRule@@SA_NK@Z 0040cce0 f i AttemperEngineSink.obj
 0001:0000bd20       ?IsAllowAndroidSimulate@CServerRule@@SA_NK@Z 0040cd20 f i AttemperEngineSink.obj
 0001:0000bd60       ?IsAllowAvertCheatMode@CServerRule@@SA_NK@Z 0040cd60 f i AttemperEngineSink.obj
 0001:0000bda0       ?IsAllowDynamicJoin@CServerRule@@SA_NK@Z 0040cda0 f i AttemperEngineSink.obj
 0001:0000bde0       ?IsAllowOffLineTrustee@CServerRule@@SA_NK@Z 0040cde0 f i AttemperEngineSink.obj
 0001:0000be20       ?IsForfendGameChat@CServerRule@@SA_NK@Z 0040ce20 f i AttemperEngineSink.obj
 0001:0000be60       ?IsForfendGameEnter@CServerRule@@SA_NK@Z 0040ce60 f i AttemperEngineSink.obj
 0001:0000bea0       ?IsForfendGameLookon@CServerRule@@SA_NK@Z 0040cea0 f i AttemperEngineSink.obj
 0001:0000bee0       ?IsForfendGameRule@CServerRule@@SA_NK@Z 0040cee0 f i AttemperEngineSink.obj
 0001:0000bf20       ?IsForfendLockTable@CServerRule@@SA_NK@Z 0040cf20 f i AttemperEngineSink.obj
 0001:0000bf60       ?IsForfendRoomChat@CServerRule@@SA_NK@Z 0040cf60 f i AttemperEngineSink.obj
 0001:0000bfa0       ?IsForfendRoomEnter@CServerRule@@SA_NK@Z 0040cfa0 f i AttemperEngineSink.obj
 0001:0000bfe0       ?IsForfendSaveInGame@CServerRule@@SA_NK@Z 0040cfe0 f i AttemperEngineSink.obj
 0001:0000c020       ?IsForfendSaveInRoom@CServerRule@@SA_NK@Z 0040d020 f i AttemperEngineSink.obj
 0001:0000c060       ?IsForfendTakeInGame@CServerRule@@SA_NK@Z 0040d060 f i AttemperEngineSink.obj
 0001:0000c0a0       ?IsForfendTakeInRoom@CServerRule@@SA_NK@Z 0040d0a0 f i AttemperEngineSink.obj
 0001:0000c0e0       ?IsForfendWisperChat@CServerRule@@SA_NK@Z 0040d0e0 f i AttemperEngineSink.obj
 0001:0000c120       ?IsForfendWisperOnGame@CServerRule@@SA_NK@Z 0040d120 f i AttemperEngineSink.obj
 0001:0000c160       ?IsGameCheatUser@CUserRight@@SA_NK@Z 0040d160 f i AttemperEngineSink.obj
 0001:0000c1a0       ?IsGameMatchUser@CUserRight@@SA_NK@Z 0040d1a0 f i AttemperEngineSink.obj
 0001:0000c1e0       ?IsImmediateWriteScore@CServerRule@@SA_NK@Z 0040d1e0 f i AttemperEngineSink.obj
 0001:0000c220       ?IsRecordGameScore@CServerRule@@SA_NK@Z 0040d220 f i AttemperEngineSink.obj
 0001:0000c260       ?IsRecordGameTrack@CServerRule@@SA_NK@Z 0040d260 f i AttemperEngineSink.obj
 0001:0000c2a0       ?IsSuportPlayBack@CServerRule@@SA_NK@Z 0040d2a0 f i AttemperEngineSink.obj
 0001:0000c2e0       ?Lookup@?$CMap@KKKAAK@@QBEHKAAK@Z 0040d2e0 f i AttemperEngineSink.obj
 0001:0000c350       ?MobileUserImmediately@CAttemperEngineSink@@IAE_NPAUIServerUserItem@@@Z 0040d350 f   AttemperEngineSink.obj
 0001:0000c660       ?NewAssoc@?$CMap@KKKAAK@@IAEPAVCAssoc@1@K@Z 0040d660 f i AttemperEngineSink.obj
 0001:0000c820       ?OnAttemperEngineConclude@CAttemperEngineSink@@UAE_NPAUIUnknownEx@@@Z 0040d820 f   AttemperEngineSink.obj
 0001:0000cd20       ?OnAttemperEngineStart@CAttemperEngineSink@@UAE_NPAUIUnknownEx@@@Z 0040dd20 f   AttemperEngineSink.obj
 0001:0000d330       ?OnDBCancelCreateTable@CAttemperEngineSink@@IAE_NKPAXG@Z 0040e330 f   AttemperEngineSink.obj
 0001:0000d730       ?OnDBCreateFailure@CAttemperEngineSink@@IAE_NKPAXG@Z 0040e730 f   AttemperEngineSink.obj
 0001:0000d8f0       ?OnDBCreateSucess@CAttemperEngineSink@@IAE_NKPAXG@Z 0040e8f0 f   AttemperEngineSink.obj
 0001:0000e0a0       ?OnDBCurrenceRoomCardAndBeant@CAttemperEngineSink@@IAE_NKPAXG@Z 0040f0a0 f   AttemperEngineSink.obj
 0001:0000e160       ?OnDBDissumeTableResult@CAttemperEngineSink@@IAE_NKPAXG@Z 0040f160 f   AttemperEngineSink.obj
 0001:0000e2f0       ?OnDBExChangeResult@CAttemperEngineSink@@IAE_NKPAXG@Z 0040f2f0 f   AttemperEngineSink.obj
 0001:0000e540       ?OnDBGameAndroidInfo@CAttemperEngineSink@@IAE_NKPAXG@Z 0040f540 f   AttemperEngineSink.obj
 0001:0000e630       ?OnDBGameAndroidParameter@CAttemperEngineSink@@IAE_NKPAXG@Z 0040f630 f   AttemperEngineSink.obj
 0001:0000e720       ?OnDBGameColumnInfo@CAttemperEngineSink@@IAE_NKPAXG@Z 0040f720 f   AttemperEngineSink.obj
 0001:0000e820       ?OnDBGameLoadTrumpet@CAttemperEngineSink@@IAE_NKPAXG@Z 0040f820 f   AttemperEngineSink.obj
 0001:0000e890       ?OnDBGameMemberParameter@CAttemperEngineSink@@IAE_NKPAXG@Z 0040f890 f   AttemperEngineSink.obj
 0001:0000e900       ?OnDBGameParameter@CAttemperEngineSink@@IAE_NKPAXG@Z 0040f900 f   AttemperEngineSink.obj
 0001:0000eab0       ?OnDBGamePropertyBuff@CAttemperEngineSink@@IAE_NKPAXG@Z 0040fab0 f   AttemperEngineSink.obj
 0001:0000ec80       ?OnDBGamePropertyBuy@CAttemperEngineSink@@IAE_NKPAXG@Z 0040fc80 f   AttemperEngineSink.obj
 0001:0000ee40       ?OnDBGameSendTrumpet@CAttemperEngineSink@@IAE_NKPAXG@Z 0040fe40 f   AttemperEngineSink.obj
 0001:0000eff0       ?OnDBLoadPersonalParameter@CAttemperEngineSink@@IAE_NKPAXG@Z 0040fff0 f   AttemperEngineSink.obj
 0001:0000f250       ?OnDBLogonFailure@CAttemperEngineSink@@IAE_NKPAXG@Z 00410250 f   AttemperEngineSink.obj
 0001:0000f340       ?OnDBLogonSuccess@CAttemperEngineSink@@IAE_NKPAXG@Z 00410340 f   AttemperEngineSink.obj
 0001:00010460       ?OnDBPCBaseEnsureParameter@CAttemperEngineSink@@IAE_NKPAXG@Z 00411460 f   AttemperEngineSink.obj
 0001:00010510       ?OnDBPCBaseEnsureResult@CAttemperEngineSink@@IAE_NKPAXG@Z 00411510 f   AttemperEngineSink.obj
 0001:000106d0       ?OnDBPCCheckInReward@CAttemperEngineSink@@IAE_NKPAXG@Z 004116d0 f   AttemperEngineSink.obj
 0001:00010750       ?OnDBPCGrowLevelConfig@CAttemperEngineSink@@IAE_NKPAXG@Z 00411750 f   AttemperEngineSink.obj
 0001:000107c0       ?OnDBPCGrowLevelParameter@CAttemperEngineSink@@IAE_NKPAXG@Z 004117c0 f   AttemperEngineSink.obj
 0001:00010920       ?OnDBPCGrowLevelUpgrade@CAttemperEngineSink@@IAE_NKPAXG@Z 00411920 f   AttemperEngineSink.obj
 0001:00010b20       ?OnDBPCMemberDayGiftResult@CAttemperEngineSink@@IAE_NKPAXG@Z 00411b20 f   AttemperEngineSink.obj
 0001:00010cb0       ?OnDBPCMemberDayPresentResult@CAttemperEngineSink@@IAE_NKPAXG@Z 00411cb0 f   AttemperEngineSink.obj
 0001:00010ea0       ?OnDBPCMemberDayQueryInfoResult@CAttemperEngineSink@@IAE_NKPAXG@Z 00411ea0 f   AttemperEngineSink.obj
 0001:00011030       ?OnDBPCUserCheckInInfo@CAttemperEngineSink@@IAE_NKPAXG@Z 00412030 f   AttemperEngineSink.obj
 0001:000110f0       ?OnDBPCUserCheckInResult@CAttemperEngineSink@@IAE_NKPAXG@Z 004120f0 f   AttemperEngineSink.obj
 0001:000112b0       ?OnDBPropertyFailure@CAttemperEngineSink@@IAE_NKPAXG@Z 004122b0 f   AttemperEngineSink.obj
 0001:000113b0       ?OnDBPropertySuccess@CAttemperEngineSink@@IAE_NKPAXG@Z 004123b0 f   AttemperEngineSink.obj
 0001:00011800       ?OnDBPurchaseResult@CAttemperEngineSink@@IAE_NKPAXG@Z 00412800 f   AttemperEngineSink.obj
 0001:00011b00       ?OnDBQueryGetSendPresent@CAttemperEngineSink@@IAE_NKPAXG@Z 00412b00 f   AttemperEngineSink.obj
 0001:00011c10       ?OnDBQueryPropertyBackpack@CAttemperEngineSink@@IAE_NKPAXG@Z 00412c10 f   AttemperEngineSink.obj
 0001:00011d70       ?OnDBQueryPropertyPresent@CAttemperEngineSink@@IAE_NKPAXG@Z 00412d70 f   AttemperEngineSink.obj
 0001:00011f60       ?OnDBQueryPropertyUse@CAttemperEngineSink@@IAE_NKPAXG@Z 00412f60 f   AttemperEngineSink.obj
 0001:00012310       ?OnDBQuerySendPresent@CAttemperEngineSink@@IAE_NKPAXG@Z 00413310 f   AttemperEngineSink.obj
 0001:00012410       ?OnDBQueryUserRoomScore@CAttemperEngineSink@@IAE_NKPAXG@Z 00413410 f   AttemperEngineSink.obj
 0001:00012430       ?OnDBSensitiveWords@CAttemperEngineSink@@IAE_NKPAXG@Z 00413430 f   AttemperEngineSink.obj
 0001:000124d0       ?OnDBSystemMessage@CAttemperEngineSink@@IAE_NKPAXG@Z 004134d0 f   AttemperEngineSink.obj
 0001:00012690       ?OnDBSystemMessageFinish@CAttemperEngineSink@@IAE_NKPAXG@Z 00413690 f   AttemperEngineSink.obj
 0001:00012760       ?OnDBUserInsureEnableResult@CAttemperEngineSink@@IAE_NKPAXG@Z 00413760 f   AttemperEngineSink.obj
 0001:000128f0       ?OnDBUserInsureFailure@CAttemperEngineSink@@IAE_NKPAXG@Z 004138f0 f   AttemperEngineSink.obj
 0001:00012a50       ?OnDBUserInsureInfo@CAttemperEngineSink@@IAE_NKPAXG@Z 00413a50 f   AttemperEngineSink.obj
 0001:00012c60       ?OnDBUserInsureSuccess@CAttemperEngineSink@@IAE_NKPAXG@Z 00413c60 f   AttemperEngineSink.obj
 0001:00012f70       ?OnDBUserInsureUserInfo@CAttemperEngineSink@@IAE_NKPAXG@Z 00413f70 f   AttemperEngineSink.obj
 0001:000130c0       ?OnDBUserTaskInfo@CAttemperEngineSink@@IAE_NKPAXG@Z 004140c0 f   AttemperEngineSink.obj
 0001:00013450       ?OnDBUserTaskList@CAttemperEngineSink@@IAE_NKPAXG@Z 00414450 f   AttemperEngineSink.obj
 0001:00013540       ?OnDBUserTaskListEnd@CAttemperEngineSink@@IAE_NKPAXG@Z 00414540 f   AttemperEngineSink.obj
 0001:000135b0       ?OnDBUserTaskResult@CAttemperEngineSink@@IAE_NKPAXG@Z 004145b0 f   AttemperEngineSink.obj
 0001:000139b0       ?OnEventAttemperData@CAttemperEngineSink@@UAE_NGPAXG@Z 004149b0 f   AttemperEngineSink.obj
 0001:000139d0       ?OnEventControl@CAttemperEngineSink@@UAE_NGPAXG@Z 004149d0 f   AttemperEngineSink.obj
 0001:00013e20       ?OnEventDataBase@CAttemperEngineSink@@UAE_NGKPAXG@Z 00414e20 f   AttemperEngineSink.obj
 0001:00014bd0       ?OnEventPropertyBuyPrep@CAttemperEngineSink@@IAE_NGGPAUIServerUserItem@@0@Z 00415bd0 f   AttemperEngineSink.obj
 0001:00015070       ?OnEventTCPNetworkBind@CAttemperEngineSink@@UAE_NKK@Z 00416070 f   AttemperEngineSink.obj
 0001:00015110       ?OnEventTCPNetworkRead@CAttemperEngineSink@@UAE_NUTCP_Command@@PAXGK@Z 00416110 f   AttemperEngineSink.obj
 0001:00015620       ?OnEventTCPNetworkShut@CAttemperEngineSink@@UAE_NKKK@Z 00416620 f   AttemperEngineSink.obj
 0001:000159a0       ?OnEventTCPSocketLink@CAttemperEngineSink@@UAE_NGH@Z 004169a0 f   AttemperEngineSink.obj
 0001:00016460       ?OnEventTCPSocketRead@CAttemperEngineSink@@UAE_NGUTCP_Command@@PAXG@Z 00417460 f   AttemperEngineSink.obj
 0001:00016650       ?OnEventTCPSocketShut@CAttemperEngineSink@@UAE_NGE@Z 00417650 f   AttemperEngineSink.obj
 0001:000168c0       ?OnEventTimer@CAttemperEngineSink@@UAE_NKI@Z 004178c0 f   AttemperEngineSink.obj
 0001:00018c80       ?OnEventUserItemGameData@CAttemperEngineSink@@UAE_NPAUIServerUserItem@@E@Z 00419c80 f   AttemperEngineSink.obj
 0001:00018f20       ?OnEventUserItemRight@CAttemperEngineSink@@UAE_NPAUIServerUserItem@@KKE@Z 00419f20 f   AttemperEngineSink.obj
 0001:00019030       ?OnEventUserItemScore@CAttemperEngineSink@@UAE_NPAUIServerUserItem@@E@Z 0041a030 f   AttemperEngineSink.obj
 0001:00019990       ?OnEventUserItemStatus@CAttemperEngineSink@@UAE_NPAUIServerUserItem@@GG@Z 0041a990 f   AttemperEngineSink.obj
 0001:00019e40       ?OnEventUserLogon@CAttemperEngineSink@@IAEXPAUIServerUserItem@@_N@Z 0041ae40 f   AttemperEngineSink.obj
 0001:0001ad30       ?OnEventUserLogout@CAttemperEngineSink@@IAEXPAUIServerUserItem@@K@Z 0041bd30 f   AttemperEngineSink.obj
 0001:0001b0c0       ?OnTCPNetwordSubSendTrumpet@CAttemperEngineSink@@IAE_NPAXGK@Z 0041c0c0 f   AttemperEngineSink.obj
 0001:0001b330       ?OnTCPNetworkMainBaseEnsure@CAttemperEngineSink@@IAE_NGPAXGK@Z 0041c330 f   AttemperEngineSink.obj
 0001:0001b3b0       ?OnTCPNetworkMainCheckIn@CAttemperEngineSink@@IAE_NGPAXGK@Z 0041c3b0 f   AttemperEngineSink.obj
 0001:0001b430       ?OnTCPNetworkMainExchange@CAttemperEngineSink@@IAE_NGPAXGK@Z 0041c430 f   AttemperEngineSink.obj
 0001:0001b510       ?OnTCPNetworkMainFrame@CAttemperEngineSink@@IAE_NGPAXGK@Z 0041c510 f   AttemperEngineSink.obj
 0001:0001b610       ?OnTCPNetworkMainGame@CAttemperEngineSink@@IAE_NGPAXGK@Z 0041c610 f   AttemperEngineSink.obj
 0001:0001b710       ?OnTCPNetworkMainInsure@CAttemperEngineSink@@IAE_NGPAXGK@Z 0041c710 f   AttemperEngineSink.obj
 0001:0001b890       ?OnTCPNetworkMainLogon@CAttemperEngineSink@@IAE_NGPAXGK@Z 0041c890 f   AttemperEngineSink.obj
 0001:0001b930       ?OnTCPNetworkMainManage@CAttemperEngineSink@@IAE_NGPAXGK@Z 0041c930 f   AttemperEngineSink.obj
 0001:0001bad0       ?OnTCPNetworkMainMatch@CAttemperEngineSink@@IAE_NGPAXGK@Z 0041cad0 f   AttemperEngineSink.obj
 0001:0001bbd0       ?OnTCPNetworkMainMember@CAttemperEngineSink@@IAE_NGPAXGK@Z 0041cbd0 f   AttemperEngineSink.obj
 0001:0001bc70       ?OnTCPNetworkMainPersonalTable@CAttemperEngineSink@@IAE_NGPAXGK@Z 0041cc70 f   AttemperEngineSink.obj
 0001:0001bd70       ?OnTCPNetworkMainProperty@CAttemperEngineSink@@IAE_NGPAXGK@Z 0041cd70 f   AttemperEngineSink.obj
 0001:0001bfc0       ?OnTCPNetworkMainTask@CAttemperEngineSink@@IAE_NGPAXGK@Z 0041cfc0 f   AttemperEngineSink.obj
 0001:0001c090       ?OnTCPNetworkMainUser@CAttemperEngineSink@@IAE_NGPAXGK@Z 0041d090 f   AttemperEngineSink.obj
 0001:0001c430       ?OnTCPNetworkSubBaseEnsureQueryRequest@CAttemperEngineSink@@IAE_NPAXGK@Z 0041d430 f   AttemperEngineSink.obj
 0001:0001c4e0       ?OnTCPNetworkSubBaseEnsureTakeRequest@CAttemperEngineSink@@IAE_NPAXGK@Z 0041d4e0 f   AttemperEngineSink.obj
 0001:0001c660       ?OnTCPNetworkSubCancelRequest@CAttemperEngineSink@@IAE_NPAXGK@Z 0041d660 f   AttemperEngineSink.obj
 0001:0001c840       ?OnTCPNetworkSubChairUserInfoReq@CAttemperEngineSink@@IAE_NPAXGK@Z 0041d840 f   AttemperEngineSink.obj
 0001:0001cd60       ?OnTCPNetworkSubCheckInDoneRequest@CAttemperEngineSink@@IAE_NPAXGK@Z 0041dd60 f   AttemperEngineSink.obj
 0001:0001ced0       ?OnTCPNetworkSubCheckInQueryRequest@CAttemperEngineSink@@IAE_NPAXGK@Z 0041ded0 f   AttemperEngineSink.obj
 0001:0001d000       ?OnTCPNetworkSubCreateTable@CAttemperEngineSink@@IAE_NPAXGK@Z 0041e000 f   AttemperEngineSink.obj
 0001:0001d380       ?OnTCPNetworkSubDismissGame@CAttemperEngineSink@@IAE_NPAXGK@Z 0041e380 f   AttemperEngineSink.obj
 0001:0001d520       ?OnTCPNetworkSubEnableInsureRequest@CAttemperEngineSink@@IAE_NPAXGK@Z 0041e520 f   AttemperEngineSink.obj
 0001:0001d730       ?OnTCPNetworkSubExchangeScoreByBeans@CAttemperEngineSink@@IAE_NPAXGK@Z 0041e730 f   AttemperEngineSink.obj
 0001:0001d8c0       ?OnTCPNetworkSubExchangeScoreByIngot@CAttemperEngineSink@@IAE_NPAXGK@Z 0041e8c0 f   AttemperEngineSink.obj
 0001:0001dad0       ?OnTCPNetworkSubGamePropertyBuy@CAttemperEngineSink@@IAE_NPAXGK@Z 0041ead0 f   AttemperEngineSink.obj
 0001:0001dc80       ?OnTCPNetworkSubGetSendPresent@CAttemperEngineSink@@IAE_NPAXGK@Z 0041ec80 f   AttemperEngineSink.obj
 0001:0001ddc0       ?OnTCPNetworkSubGiveUpTaskRequest@CAttemperEngineSink@@IAE_NPAXGK@Z 0041edc0 f   AttemperEngineSink.obj
 0001:0001df50       ?OnTCPNetworkSubGrowLevelQuery@CAttemperEngineSink@@IAE_NPAXGK@Z 0041ef50 f   AttemperEngineSink.obj
 0001:0001e0e0       ?OnTCPNetworkSubHostDissumeTable@CAttemperEngineSink@@IAE_NPAXGK@Z 0041f0e0 f   AttemperEngineSink.obj
 0001:0001e3b0       ?OnTCPNetworkSubKickAllUser@CAttemperEngineSink@@IAE_NPAXGK@Z 0041f3b0 f   AttemperEngineSink.obj
 0001:0001e660       ?OnTCPNetworkSubLimitUserChat@CAttemperEngineSink@@IAE_NPAXGK@Z 0041f660 f   AttemperEngineSink.obj
 0001:0001e980       ?OnTCPNetworkSubLoadTaskInfoRequest@CAttemperEngineSink@@IAE_NPAXGK@Z 0041f980 f   AttemperEngineSink.obj
 0001:0001eac0       ?OnTCPNetworkSubLogonAccounts@CAttemperEngineSink@@IAE_NPAXGK@Z 0041fac0 f   AttemperEngineSink.obj
 0001:0001ef80       ?OnTCPNetworkSubLogonMobile@CAttemperEngineSink@@IAE_NPAXGK@Z 0041ff80 f   AttemperEngineSink.obj
 0001:0001f540       ?OnTCPNetworkSubLogonUserID@CAttemperEngineSink@@IAE_NPAXGK@Z 00420540 f   AttemperEngineSink.obj
 0001:0001fb30       ?OnTCPNetworkSubManagerKickUser@CAttemperEngineSink@@IAE_NPAXGK@Z 00420b30 f   AttemperEngineSink.obj
 0001:0001fe10       ?OnTCPNetworkSubMemberDayGift@CAttemperEngineSink@@IAE_NPAXGK@Z 00420e10 f   AttemperEngineSink.obj
 0001:0001ff90       ?OnTCPNetworkSubMemberDayPresent@CAttemperEngineSink@@IAE_NPAXGK@Z 00420f90 f   AttemperEngineSink.obj
 0001:00020110       ?OnTCPNetworkSubMemberKickUser@CAttemperEngineSink@@IAE_NPAXGK@Z 00421110 f   AttemperEngineSink.obj
 0001:000205f0       ?OnTCPNetworkSubMemberQueryInfo@CAttemperEngineSink@@IAE_NPAXGK@Z 004215f0 f   AttemperEngineSink.obj
 0001:00020770       ?OnTCPNetworkSubOptionServer@CAttemperEngineSink@@IAE_NPAXGK@Z 00421770 f   AttemperEngineSink.obj
 0001:000210d0       ?OnTCPNetworkSubPropertyBackpack@CAttemperEngineSink@@IAE_NPAXGK@Z 004220d0 f   AttemperEngineSink.obj
 0001:000211f0       ?OnTCPNetworkSubPropertyPresent@CAttemperEngineSink@@IAE_NPAXGK@Z 004221f0 f   AttemperEngineSink.obj
 0001:00021370       ?OnTCPNetworkSubPropertyUse@CAttemperEngineSink@@IAE_NPAXGK@Z 00422370 f   AttemperEngineSink.obj
 0001:00021500       ?OnTCPNetworkSubPurchaseMember@CAttemperEngineSink@@IAE_NPAXGK@Z 00422500 f   AttemperEngineSink.obj
 0001:000216a0       ?OnTCPNetworkSubQueryExchangeInfo@CAttemperEngineSink@@IAE_NPAXGK@Z 004226a0 f   AttemperEngineSink.obj
 0001:000217f0       ?OnTCPNetworkSubQueryInsureInfo@CAttemperEngineSink@@IAE_NPAXGK@Z 004227f0 f   AttemperEngineSink.obj
 0001:000219c0       ?OnTCPNetworkSubQueryOption@CAttemperEngineSink@@IAE_NPAXGK@Z 004229c0 f   AttemperEngineSink.obj
 0001:00021d10       ?OnTCPNetworkSubQuerySendPresent@CAttemperEngineSink@@IAE_NPAXGK@Z 00422d10 f   AttemperEngineSink.obj
 0001:00021e10       ?OnTCPNetworkSubQueryUserInfoRequest@CAttemperEngineSink@@IAE_NPAXGK@Z 00422e10 f   AttemperEngineSink.obj
 0001:000220c0       ?OnTCPNetworkSubQueryUserRoomScore@CAttemperEngineSink@@IAE_NPAXGK@Z 004230c0 f   AttemperEngineSink.obj
 0001:000220e0       ?OnTCPNetworkSubRequestReply@CAttemperEngineSink@@IAE_NPAXGK@Z 004230e0 f   AttemperEngineSink.obj
 0001:000222c0       ?OnTCPNetworkSubRoomCheat@CAttemperEngineSink@@IAE_NPAXGK@Z 004232c0 f   AttemperEngineSink.obj
 0001:00022580       ?OnTCPNetworkSubSaveScoreRequest@CAttemperEngineSink@@IAE_NPAXGK@Z 00423580 f   AttemperEngineSink.obj
 0001:00022b00       ?OnTCPNetworkSubSendMessage@CAttemperEngineSink@@IAE_NPAXGK@Z 00423b00 f   AttemperEngineSink.obj
 0001:00022d40       ?OnTCPNetworkSubTakeScoreRequest@CAttemperEngineSink@@IAE_NPAXGK@Z 00423d40 f   AttemperEngineSink.obj
 0001:00023090       ?OnTCPNetworkSubTakeTaskRequest@CAttemperEngineSink@@IAE_NPAXGK@Z 00424090 f   AttemperEngineSink.obj
 0001:00023220       ?OnTCPNetworkSubTaskRewardRequest@CAttemperEngineSink@@IAE_NPAXGK@Z 00424220 f   AttemperEngineSink.obj
 0001:000233b0       ?OnTCPNetworkSubTransferScoreRequest@CAttemperEngineSink@@IAE_NPAXGK@Z 004243b0 f   AttemperEngineSink.obj
 0001:00023690       ?OnTCPNetworkSubUserChairReq@CAttemperEngineSink@@IAE_NPAXGK@Z 00424690 f   AttemperEngineSink.obj
 0001:00023ce0       ?OnTCPNetworkSubUserChat@CAttemperEngineSink@@IAE_NPAXGK@Z 00424ce0 f   AttemperEngineSink.obj
 0001:000240c0       ?OnTCPNetworkSubUserExpression@CAttemperEngineSink@@IAE_NPAXGK@Z 004250c0 f   AttemperEngineSink.obj
 0001:00024370       ?OnTCPNetworkSubUserInfoReq@CAttemperEngineSink@@IAE_NPAXGK@Z 00425370 f   AttemperEngineSink.obj
 0001:000244c0       ?OnTCPNetworkSubUserInviteReq@CAttemperEngineSink@@IAE_NPAXGK@Z 004254c0 f   AttemperEngineSink.obj
 0001:000246a0       ?OnTCPNetworkSubUserLookon@CAttemperEngineSink@@IAE_NPAXGK@Z 004256a0 f   AttemperEngineSink.obj
 0001:000248f0       ?OnTCPNetworkSubUserRepulseSit@CAttemperEngineSink@@IAE_NPAXGK@Z 004258f0 f   AttemperEngineSink.obj
 0001:00024af0       ?OnTCPNetworkSubUserRule@CAttemperEngineSink@@IAE_NPAXGK@Z 00425af0 f   AttemperEngineSink.obj
 0001:00024e80       ?OnTCPNetworkSubUserSitDown@CAttemperEngineSink@@IAE_NPAXGK@Z 00425e80 f   AttemperEngineSink.obj
 0001:000255c0       ?OnTCPNetworkSubUserStandUp@CAttemperEngineSink@@IAE_NPAXGK@Z 004265c0 f   AttemperEngineSink.obj
 0001:000258e0       ?OnTCPNetworkSubWarningUser@CAttemperEngineSink@@IAE_NPAXGK@Z 004268e0 f   AttemperEngineSink.obj
 0001:00025b70       ?OnTCPNetworkSubWisperChat@CAttemperEngineSink@@IAE_NPAXGK@Z 00426b70 f   AttemperEngineSink.obj
 0001:00026240       ?OnTCPNetworkSubWisperExpression@CAttemperEngineSink@@IAE_NPAXGK@Z 00427240 f   AttemperEngineSink.obj
 0001:00026790       ?OnTCPSocketMainAndroidService@CAttemperEngineSink@@IAE_NGPAXG@Z 00427790 f   AttemperEngineSink.obj
 0001:00026930       ?OnTCPSocketMainManagerService@CAttemperEngineSink@@IAE_NGPAXG@Z 00427930 f   AttemperEngineSink.obj
 0001:00026b60       ?OnTCPSocketMainPersonalRoomRegister@CAttemperEngineSink@@IAE_NGPAXG@Z 00427b60 f   AttemperEngineSink.obj
 0001:00026c50       ?OnTCPSocketMainRegister@CAttemperEngineSink@@IAE_NGPAXG@Z 00427c50 f   AttemperEngineSink.obj
 0001:00026d40       ?OnTCPSocketMainServiceInfo@CAttemperEngineSink@@IAE_NGPAXG@Z 00427d40 f   AttemperEngineSink.obj
 0001:00027b10       ?OnTCPSocketMainUserCollect@CAttemperEngineSink@@IAE_NGPAXG@Z 00428b10 f   AttemperEngineSink.obj
 0001:00027d70       ?PerformCheckVersion@CAttemperEngineSink@@IAE_NKKKK@Z 00428d70 f   AttemperEngineSink.obj
 0001:00027fd0       ?PerformDistribute@CAttemperEngineSink@@IAE_NXZ 00428fd0 f   AttemperEngineSink.obj
 0001:000288f0       ?PerformRoomTaskProgress@CAttemperEngineSink@@QAE_NPAUIServerUserItem@@HHH@Z 004298f0 f   AttemperEngineSink.obj
 0001:00028910       ?PerformRoomTaskProgress@CAttemperEngineSink@@QAE_NPAUIServerUserItem@@PAUtagUserTaskEntry@@HHH@Z 00429910 f   AttemperEngineSink.obj
 0001:00028c40       ?PerformTaskProgress@CAttemperEngineSink@@IAE_NPAUIServerUserItem@@PAUtagUserTaskEntry@@KKK@Z 00429c40 f   AttemperEngineSink.obj
 0001:00029030       ?PerformUnlockScore@CAttemperEngineSink@@IAE_NKKK@Z 0042a030 f   AttemperEngineSink.obj
 0001:00029110       ?PersonalRoomWriteJoinInfo@CAttemperEngineSink@@UAEXKGGKKPAD@Z 0042a110 f   AttemperEngineSink.obj
 0001:000291b0       ?QueryInterface@CAttemperEngineSink@@UAEPAXABU_GUID@@K@Z 0042a1b0 f   AttemperEngineSink.obj
 0001:00029319       ?QueryInterface@CAttemperEngineSink@@W3AEPAXABU_GUID@@K@Z 0042a319 f i AttemperEngineSink.obj
 0001:00029323       ?QueryInterface@CAttemperEngineSink@@W7AEPAXABU_GUID@@K@Z 0042a323 f i AttemperEngineSink.obj
 0001:00029330       ?RegisterCategory@CTrace@ATL@@SAXPBDI@Z 0042a330 f i AttemperEngineSink.obj
 0001:00029450       ?Release@CAttemperEngineSink@@UAEXXZ 0042a450 f i AttemperEngineSink.obj
 0001:00029467       ?Release@CAttemperEngineSink@@W3AEXXZ 0042a467 f i AttemperEngineSink.obj
 0001:00029471       ?Release@CAttemperEngineSink@@W7AEXXZ 0042a471 f i AttemperEngineSink.obj
 0001:00029480       ?RemoveAll@?$CMap@KKKAAK@@QAEXXZ 0042a480 f i AttemperEngineSink.obj
 0001:00029570       ?RemoveAll@?$CWHArray@PAUtagPersonalTableParameter@@ABQAU1@@@QAEXXZ 0042a570 f i AttemperEngineSink.obj
 0001:000295f0       ?RemoveAll@?$CWHArray@PAUtagSystemMessage@@ABQAU1@@@QAEXXZ 0042a5f0 f i AttemperEngineSink.obj
 0001:00029670       ?RemoveAll@?$CWHArray@PAVCTableFrame@@ABQAV1@@@QAEXXZ 0042a670 f i AttemperEngineSink.obj
 0001:000296f0       ?RemoveAt@?$CWHArray@PAUtagSystemMessage@@ABQAU1@@@QAEXHH@Z 0042a6f0 f i AttemperEngineSink.obj
 0001:00029830       ?RemoveAt@?$CWHArray@UtagDistributeInfo@@ABU1@@@QAEXHH@Z 0042a830 f i AttemperEngineSink.obj
 0001:00029970       ?RemoveKey@?$CMap@KKKAAK@@QAEHK@Z 0042a970 f i AttemperEngineSink.obj
 0001:00029a60       ?RemoveSystemMessage@CAttemperEngineSink@@IAEXXZ 0042aa60 f   AttemperEngineSink.obj
 0001:00029ab0       ?SaveVideoDataInfo@CAttemperEngineSink@@QAE_NPADGGPAEG@Z 0042aab0 f   AttemperEngineSink.obj
 0001:00029bb0       ?SaveVideoPlayerInfo@CAttemperEngineSink@@QAE_NKPAD@Z 0042abb0 f   AttemperEngineSink.obj
 0001:00029c10       ?SendData@CAttemperEngineSink@@UAE_NEGGPAXG@Z 0042ac10 f   AttemperEngineSink.obj
 0001:00029d30       ?SendData@CAttemperEngineSink@@UAE_NKGGPAXG@Z 0042ad30 f   AttemperEngineSink.obj
 0001:00029e00       ?SendData@CAttemperEngineSink@@UAE_NPAUIServerUserItem@@GGPAXG@Z 0042ae00 f   AttemperEngineSink.obj
 0001:00029f80       ?SendDataBatchToCheatUser@CAttemperEngineSink@@UAE_NPAUIServerUserItem@@GGPAXG@Z 0042af80 f   AttemperEngineSink.obj
 0001:0002a0e0       ?SendDataBatchToMobileUser@CAttemperEngineSink@@UAE_NGGGPAXG@Z 0042b0e0 f   AttemperEngineSink.obj
 0001:0002a4e0       ?SendGameMessage@CAttemperEngineSink@@UAE_NPAUIServerUserItem@@PBDG@Z 0042b4e0 f   AttemperEngineSink.obj
 0001:0002a7e0       ?SendGameMessage@CAttemperEngineSink@@UAE_NPBDG@Z 0042b7e0 f   AttemperEngineSink.obj
 0001:0002a930       ?SendInsureFailure@CAttemperEngineSink@@IAE_NPAUIServerUserItem@@PBDJE@Z 0042b930 f   AttemperEngineSink.obj
 0001:0002aa60       ?SendLogonFailure@CAttemperEngineSink@@IAE_NPBDJK@Z 0042ba60 f   AttemperEngineSink.obj
 0001:0002ab50       ?SendPropertyEffect@CAttemperEngineSink@@IAE_NPAUIServerUserItem@@G@Z 0042bb50 f   AttemperEngineSink.obj
 0001:0002acc0       ?SendPropertyFailure@CAttemperEngineSink@@IAE_NPAUIServerUserItem@@PBDJG@Z 0042bcc0 f   AttemperEngineSink.obj
 0001:0002adc0       ?SendPropertyMessage@CAttemperEngineSink@@IAE_NKKGG@Z 0042bdc0 f   AttemperEngineSink.obj
 0001:0002aeb0       ?SendRequestFailure@CAttemperEngineSink@@IAE_NPAUIServerUserItem@@PBDJ@Z 0042beb0 f   AttemperEngineSink.obj
 0001:0002afa0       ?SendRoomMessage@CAttemperEngineSink@@UAE_NKPBDG_N@Z 0042bfa0 f   AttemperEngineSink.obj
 0001:0002b100       ?SendRoomMessage@CAttemperEngineSink@@UAE_NPAUIServerUserItem@@PBDG@Z 0042c100 f   AttemperEngineSink.obj
 0001:0002b3e0       ?SendRoomMessage@CAttemperEngineSink@@UAE_NPBDG@Z 0042c3e0 f   AttemperEngineSink.obj
 0001:0002b530       ?SendSystemMessage@CAttemperEngineSink@@IAE_NPAUCMD_GR_SendMessage@@G@Z 0042c530 f   AttemperEngineSink.obj
 0001:0002b670       ?SendUIControlPacket@CAttemperEngineSink@@IAE_NGPAXG@Z 0042c670 f   AttemperEngineSink.obj
 0001:0002b6c0       ?SendUserInfoPacket@CAttemperEngineSink@@IAE_NPAUIServerUserItem@@K_N@Z 0042c6c0 f   AttemperEngineSink.obj
 0001:0002bc70       ?SendUserInfoPacketBatchToMobileUser@CAttemperEngineSink@@IAE_NPAUIServerUserItem@@K@Z 0042cc70 f   AttemperEngineSink.obj
 0001:0002c130       ?SendUserInfoPacketBatchToPage@CAttemperEngineSink@@IAE_NPAUIServerUserItem@@@Z 0042d130 f   AttemperEngineSink.obj
 0001:0002c840       ?SendVisibleTableUserInfoToMobileUser@CAttemperEngineSink@@IAE_NPAUIServerUserItem@@G@Z 0042d840 f   AttemperEngineSink.obj
 0001:0002cec0       ?SensitiveWordFilter@CAttemperEngineSink@@UAEXPBDPADH@Z 0042dec0 f   AttemperEngineSink.obj
 0001:0002cf00       ?Serialize@?$CMap@KKKAAK@@UAEXAAVCArchive@@@Z 0042df00 f i AttemperEngineSink.obj
 0001:0002d0b0       ?SetAllowAndroidAttend@CServerRule@@SAXAAK_N@Z 0042e0b0 f i AttemperEngineSink.obj
 0001:0002d110       ?SetAllowDynamicJoin@CServerRule@@SAXAAK_N@Z 0042e110 f i AttemperEngineSink.obj
 0001:0002d170       ?SetAllowOffLineTrustee@CServerRule@@SAXAAK_N@Z 0042e170 f i AttemperEngineSink.obj
 0001:0002d1d0       ?SetAt@?$CMap@KKKAAK@@QAEXKAAK@Z 0042e1d0 f i AttemperEngineSink.obj
 0001:0002d210       ?SetAtGrow@?$CWHArray@PAUtagPersonalTableParameter@@ABQAU1@@@QAEXHABQAUtagPersonalTableParameter@@@Z 0042e210 f i AttemperEngineSink.obj
 0001:0002d2a0       ?SetAtGrow@?$CWHArray@PAUtagSystemMessage@@ABQAU1@@@QAEXHABQAUtagSystemMessage@@@Z 0042e2a0 f i AttemperEngineSink.obj
 0001:0002d330       ?SetDistributeRule@CDistributeManager@@QAEXE@Z 0042e330 f i AttemperEngineSink.obj
 0001:0002d360       ?SetForfendGameChat@CServerRule@@SAXAAK_N@Z 0042e360 f i AttemperEngineSink.obj
 0001:0002d3c0       ?SetForfendGameEnter@CServerRule@@SAXAAK_N@Z 0042e3c0 f i AttemperEngineSink.obj
 0001:0002d420       ?SetForfendGameLookon@CServerRule@@SAXAAK_N@Z 0042e420 f i AttemperEngineSink.obj
 0001:0002d480       ?SetForfendGameRule@CServerRule@@SAXAAK_N@Z 0042e480 f i AttemperEngineSink.obj
 0001:0002d4e0       ?SetForfendLockTable@CServerRule@@SAXAAK_N@Z 0042e4e0 f i AttemperEngineSink.obj
 0001:0002d540       ?SetForfendRoomChat@CServerRule@@SAXAAK_N@Z 0042e540 f i AttemperEngineSink.obj
 0001:0002d5a0       ?SetForfendRoomEnter@CServerRule@@SAXAAK_N@Z 0042e5a0 f i AttemperEngineSink.obj
 0001:0002d600       ?SetForfendSaveInGame@CServerRule@@SAXAAK_N@Z 0042e600 f i AttemperEngineSink.obj
 0001:0002d660       ?SetForfendSaveInRoom@CServerRule@@SAXAAK_N@Z 0042e660 f i AttemperEngineSink.obj
 0001:0002d6c0       ?SetForfendTakeInGame@CServerRule@@SAXAAK_N@Z 0042e6c0 f i AttemperEngineSink.obj
 0001:0002d720       ?SetForfendTakeInRoom@CServerRule@@SAXAAK_N@Z 0042e720 f i AttemperEngineSink.obj
 0001:0002d780       ?SetForfendWisperChat@CServerRule@@SAXAAK_N@Z 0042e780 f i AttemperEngineSink.obj
 0001:0002d7e0       ?SetForfendWisperOnGame@CServerRule@@SAXAAK_N@Z 0042e7e0 f i AttemperEngineSink.obj
 0001:0002d840       ?SetImmediateWriteScore@CServerRule@@SAXAAK_N@Z 0042e840 f i AttemperEngineSink.obj
 0001:0002d8a0       ?SetMobileUserParameter@CAttemperEngineSink@@IAEXPAUIServerUserItem@@EGG@Z 0042e8a0 f   AttemperEngineSink.obj
 0001:0002d900       ?SetRecordGameScore@CServerRule@@SAXAAK_N@Z 0042e900 f i AttemperEngineSink.obj
 0001:0002d960       ?SetRecordGameTrack@CServerRule@@SAXAAK_N@Z 0042e960 f i AttemperEngineSink.obj
 0001:0002d9c0       ?SetSize@?$CWHArray@PAUtagPersonalTableParameter@@ABQAU1@@@QAEXH@Z 0042e9c0 f i AttemperEngineSink.obj
 0001:0002dae0       ?SetSize@?$CWHArray@PAUtagSystemMessage@@ABQAU1@@@QAEXH@Z 0042eae0 f i AttemperEngineSink.obj
 0001:0002dc00       ?SetSize@?$CWHArray@PAVCTableFrame@@ABQAV1@@@QAEXH@Z 0042ec00 f i AttemperEngineSink.obj
 0001:0002dd20       ?SwitchUserItemConnect@CAttemperEngineSink@@IAE_NPAUIServerUserItem@@QADGEGG@Z 0042ed20 f   AttemperEngineSink.obj
 0001:0002e1c0       ?UnLockAndroidUser@CAttemperEngineSink@@UAEXGG@Z 0042f1c0 f   AttemperEngineSink.obj
 0001:0002e230       ?UpdateTablePlayerCount@CAttemperEngineSink@@UAEXGGG@Z 0042f230 f   AttemperEngineSink.obj
 0001:0002e2b0       ?__empty_global_delete@@YAXPAX@Z 0042f2b0 f i AttemperEngineSink.obj
 0001:0002e2d0       ?__empty_global_delete@@YAXPAXI@Z 0042f2d0 f i AttemperEngineSink.obj
 0001:0002e2d0       ?__global_delete@@YAXPAXI@Z 0042f2d0 f i AttemperEngineSink.obj
 0001:0002e2f0       ?data@CPlex@@QAEPAXXZ      0042f2f0 f i AttemperEngineSink.obj
 0001:0002e310       _==                        0042f310 f i AttemperEngineSink.obj
 0001:0002e360       _IsEqualGUID               0042f360 f i AttemperEngineSink.obj
 0001:0002e3b0       ___local_stdio_printf_options 0042f3b0 f i AttemperEngineSink.obj
 0001:0002e3d0       __snprintf                 0042f3d0 f i AttemperEngineSink.obj
 0001:0002e420       __vsnprintf                0042f420 f i AttemperEngineSink.obj
 0001:0002e460       __vsnprintf_l              0042f460 f i AttemperEngineSink.obj
 0001:0002e4d0       __vsnprintf_s              0042f4d0 f i AttemperEngineSink.obj
 0001:0002e510       __vsnprintf_s_l            0042f510 f i AttemperEngineSink.obj
 0001:0002e580       __vswprintf_s_l            0042f580 f i AttemperEngineSink.obj
 0001:0002e5f0       _swprintf_s                0042f5f0 f i AttemperEngineSink.obj
 0001:0002e670       ??$AtlConvAllocMemory@D@ATL@@YAXPAPADHPADH@Z 0042f670 f i DataBaseEngineSink.obj
 0001:0002e8a0       ??$AtlConvFreeMemory@D@ATL@@YAXPAD0H@Z 0042f8a0 f i DataBaseEngineSink.obj
 0001:0002e8f0       ??$AtlMultiply@I@ATL@@YAJPAIII@Z 0042f8f0 f i DataBaseEngineSink.obj
 0001:0002e950       ??$_snprintf_s@$0BA@@@YAHAAY0BA@DIPBDZZ 0042f950 f i DataBaseEngineSink.obj
 0001:0002e990       ??0?$CHeapPtr@DVCCRTAllocator@ATL@@@ATL@@QAE@XZ 0042f990 f i DataBaseEngineSink.obj
 0001:0002e9c0       ??0?$CHeapPtr@_WVCCRTAllocator@ATL@@@ATL@@QAE@XZ 0042f9c0 f i DataBaseEngineSink.obj
 0001:0002e9f0       ??0?$CHeapPtrBase@DVCCRTAllocator@ATL@@@ATL@@IAE@XZ 0042f9f0 f i DataBaseEngineSink.obj
 0001:0002ea20       ??0?$CHeapPtrBase@_WVCCRTAllocator@ATL@@@ATL@@IAE@XZ 0042fa20 f i DataBaseEngineSink.obj
 0001:0002ea50       ??0?$CTempldateHelper@UIDataBase@@@@QAE@ABU_GUID@@KPBD1@Z 0042fa50 f i DataBaseEngineSink.obj
 0001:0002eb00       ??0?$CW2AEX@$0IA@@ATL@@QAE@PB_W@Z 0042fb00 f i DataBaseEngineSink.obj
 0001:0002eb50       ??0CDataBaseEngineSink@@QAE@XZ 0042fb50 f   DataBaseEngineSink.obj
 0001:0002ed50       ??0CDataBaseHelper@@QAE@XZ 0042fd50 f i DataBaseEngineSink.obj
 0001:0002eda0       ??0CPreserveLastError@ATL@@QAE@XZ 0042fda0 f i DataBaseEngineSink.obj
 0001:0002edd0       ??0CTime@ATL@@QAE@ABU_SYSTEMTIME@@H@Z 0042fdd0 f i DataBaseEngineSink.obj
 0001:0002ee90       ??0CTime@ATL@@QAE@HHHHHHH@Z 0042fe90 f i DataBaseEngineSink.obj
 0001:0002f320       ??0CTime@ATL@@QAE@_J@Z     00430320 f i DataBaseEngineSink.obj
 0001:0002f350       ??0CTraceFileAndLineInfo@ATL@@QAE@PBDH@Z 00430350 f i DataBaseEngineSink.obj
 0001:0002f390       ??0DBO_GR_DissumeResult@@QAE@XZ 00430390 f i DataBaseEngineSink.obj
 0001:0002f3d0       ??0IDataBaseEngineSink@@QAE@XZ 004303d0 f i DataBaseEngineSink.obj
 0001:0002f400       ??0IGameDataBaseEngine@@QAE@XZ 00430400 f i DataBaseEngineSink.obj
 0001:0002f430       ??0_variant_t@@QAE@ABUtagVARIANT@@@Z 00430430 f i DataBaseEngineSink.obj
 0001:0002f480       ??0_variant_t@@QAE@XZ      00430480 f i DataBaseEngineSink.obj
 0001:0002f4b0       ??1?$CHeapPtr@DVCCRTAllocator@ATL@@@ATL@@QAE@XZ 004304b0 f i DataBaseEngineSink.obj
 0001:0002f4e0       ??1?$CHeapPtr@_WVCCRTAllocator@ATL@@@ATL@@QAE@XZ 004304e0 f i DataBaseEngineSink.obj
 0001:0002f510       ??1?$CHeapPtrBase@DVCCRTAllocator@ATL@@@ATL@@QAE@XZ 00430510 f i DataBaseEngineSink.obj
 0001:0002f540       ??1?$CHeapPtrBase@_WVCCRTAllocator@ATL@@@ATL@@QAE@XZ 00430540 f i DataBaseEngineSink.obj
 0001:0002f570       ??1?$CTempldateHelper@UIDataBase@@@@UAE@XZ 00430570 f i DataBaseEngineSink.obj
 0001:0002f5e0       ??1?$CW2AEX@$0IA@@ATL@@QAE@XZ 004305e0 f i DataBaseEngineSink.obj
 0001:0002f620       ??1CDataBaseEngineSink@@UAE@XZ 00430620 f   DataBaseEngineSink.obj
 0001:0002f730       ??1CDataBaseHelper@@UAE@XZ 00430730 f i DataBaseEngineSink.obj
 0001:0002f760       ??1CPreserveLastError@ATL@@QAE@XZ 00430760 f i DataBaseEngineSink.obj
 0001:0002f790       ??1_variant_t@@QAE@XZ      00430790 f i DataBaseEngineSink.obj
 0001:0002f7c0       ??B?$CHeapPtrBase@DVCCRTAllocator@ATL@@@ATL@@QBEPADXZ 004307c0 f i DataBaseEngineSink.obj
 0001:0002f7e0       ??B?$CHeapPtrBase@_WVCCRTAllocator@ATL@@@ATL@@QBEPA_WXZ 004307e0 f i DataBaseEngineSink.obj
 0001:0002f800       ??B?$CTraceCategoryEx@$0CAAA@$0A@@ATL@@QAEIXZ 00430800 f i DataBaseEngineSink.obj
 0001:0002f820       ??B?$CW2AEX@$0IA@@ATL@@QBEPADXZ 00430820 f i DataBaseEngineSink.obj
 0001:0002f840       ??C?$CTempldateHelper@UIDataBase@@@@QBEPAUIDataBase@@XZ 00430840 f i DataBaseEngineSink.obj
 0001:0002f870       ??RCTraceFileAndLineInfo@ATL@@QBAXHIPBDZZ 00430870 f i DataBaseEngineSink.obj
 0001:0002f920       ??_G?$CTempldateHelper@UIDataBase@@@@UAEPAXI@Z 00430920 f i DataBaseEngineSink.obj
 0001:0002f920       ??_E?$CTempldateHelper@UIDataBase@@@@UAEPAXI@Z 00430920 f i DataBaseEngineSink.obj
 0001:0002f970       ??_ECDataBaseEngineSink@@UAEPAXI@Z 00430970 f i DataBaseEngineSink.obj
 0001:0002f970       ??_GCDataBaseEngineSink@@UAEPAXI@Z 00430970 f i DataBaseEngineSink.obj
 0001:0002f9c0       ??_ECDataBaseHelper@@UAEPAXI@Z 004309c0 f i DataBaseEngineSink.obj
 0001:0002f9c0       ??_GCDataBaseHelper@@UAEPAXI@Z 004309c0 f i DataBaseEngineSink.obj
 0001:0002fa10       ?Allocate@?$CHeapPtr@DVCCRTAllocator@ATL@@@ATL@@QAE_NI@Z 00430a10 f i DataBaseEngineSink.obj
 0001:0002fa70       ?Allocate@?$CHeapPtr@_WVCCRTAllocator@ATL@@@ATL@@QAE_NI@Z 00430a70 f i DataBaseEngineSink.obj
 0001:0002fad0       ?Allocate@CCRTAllocator@ATL@@SAPAXI@Z 00430ad0 f i DataBaseEngineSink.obj
 0001:0002fb00       ?AllocateBytes@?$CHeapPtrBase@DVCCRTAllocator@ATL@@@ATL@@QAE_NI@Z 00430b00 f i DataBaseEngineSink.obj
 0001:0002fb80       ?AllocateBytes@?$CHeapPtrBase@_WVCCRTAllocator@ATL@@@ATL@@QAE_NI@Z 00430b80 f i DataBaseEngineSink.obj
 0001:0002fcb0       ?AtlThrowImpl@ATL@@YGXJ@Z  00430cb0 f i DataBaseEngineSink.obj
 0001:0002fd30       ?AtlThrowLastWin32@ATL@@YGXXZ 00430d30 f i DataBaseEngineSink.obj
 0001:0002fd70       ?CheckError@_com_util@@YAXJ@Z 00430d70 f i DataBaseEngineSink.obj
 0001:0002fda0       ?CloseInstance@?$CTempldateHelper@UIDataBase@@@@QAE_NXZ 00430da0 f i DataBaseEngineSink.obj
 0001:0002fe50       ?CreateInstance@?$CTempldateHelper@UIDataBase@@@@QAE_NXZ 00430e50 f i DataBaseEngineSink.obj
 0001:00030110       ?Free@?$CHeapPtrBase@DVCCRTAllocator@ATL@@@ATL@@QAEXXZ 00431110 f i DataBaseEngineSink.obj
 0001:00030150       ?Free@?$CHeapPtrBase@_WVCCRTAllocator@ATL@@@ATL@@QAEXXZ 00431150 f i DataBaseEngineSink.obj
 0001:00030190       ?Free@CCRTAllocator@ATL@@SAXPAX@Z 00431190 f i DataBaseEngineSink.obj
 0001:000301c0       ?GetCategoryName@CTrace@ATL@@CAPA_WI@Z 004311c0 f i DataBaseEngineSink.obj
 0001:00030230       ?GetCustomRule@CDataBaseEngineSink@@UAEPAXXZ 00431230 f i DataBaseEngineSink.obj
 0001:00030260       ?GetDataBase@CDataBaseEngineSink@@UAEPAXABU_GUID@@K@Z 00431260 f   DataBaseEngineSink.obj
 0001:00030310       ?GetDataBaseEngine@CDataBaseEngineSink@@UAEPAXABU_GUID@@K@Z 00431310 f   DataBaseEngineSink.obj
 0001:000303a0       ?GetGameServiceAttrib@CDataBaseEngineSink@@UAEPAUtagGameServiceAttrib@@XZ 004313a0 f i DataBaseEngineSink.obj
 0001:000303d0       ?GetGameServiceOption@CDataBaseEngineSink@@UAEPAUtagGameServiceOption@@XZ 004313d0 f i DataBaseEngineSink.obj
 0001:00030400       ?GetInterface@?$CTempldateHelper@UIDataBase@@@@QBEPAUIDataBase@@XZ 00431400 f i DataBaseEngineSink.obj
 0001:00030430       ?GetTime@CTime@ATL@@QBE_JXZ 00431430 f i DataBaseEngineSink.obj
 0001:00030460       ?Hex2Char@@YAXPADAAE@Z     00431460 f   DataBaseEngineSink.obj
 0001:00030660       ?HexStr2CharStr@@YAXPADHPAE@Z 00431660 f   DataBaseEngineSink.obj
 0001:000306e0       ?Init@?$CW2AEX@$0IA@@ATL@@AAEXPB_WI@Z 004316e0 f i DataBaseEngineSink.obj
 0001:00030890       ?OnDataBaseEngineConclude@CDataBaseEngineSink@@UAE_NPAUIUnknownEx@@@Z 00431890 f   DataBaseEngineSink.obj
 0001:00030a80       ?OnDataBaseEngineControl@CDataBaseEngineSink@@UAE_NGPAXG@Z 00431a80 f   DataBaseEngineSink.obj
 0001:00030aa0       ?OnDataBaseEngineRequest@CDataBaseEngineSink@@UAE_NGKPAXG@Z 00431aa0 f   DataBaseEngineSink.obj
 0001:00031e20       ?OnDataBaseEngineStart@CDataBaseEngineSink@@UAE_NPAUIUnknownEx@@@Z 00432e20 f   DataBaseEngineSink.obj
 0001:00032550       ?OnDataBaseEngineTimer@CDataBaseEngineSink@@UAE_NKI@Z 00433550 f   DataBaseEngineSink.obj
 0001:00032570       ?OnInsureDisposeResult@CDataBaseEngineSink@@AAEXKK_JPBD_NE@Z 00433570 f   DataBaseEngineSink.obj
 0001:00032850       ?OnLogonDisposeResult@CDataBaseEngineSink@@AAEXKKPBD_NEGG@Z 00433850 f   DataBaseEngineSink.obj
 0001:00033480       ?OnRequestBuyGameProperty@CDataBaseEngineSink@@IAE_NKPAXGAAK@Z 00434480 f   DataBaseEngineSink.obj
 0001:00033bd0       ?OnRequestCancelCreateTable@CDataBaseEngineSink@@IAE_NKPAXGAAK@Z 00434bd0 f   DataBaseEngineSink.obj
 0001:00034140       ?OnRequestCheckInDone@CDataBaseEngineSink@@IAE_NKPAXGAAK@Z 00435140 f   DataBaseEngineSink.obj
 0001:00034720       ?OnRequestCheckInQueryInfo@CDataBaseEngineSink@@IAE_NKPAXGAAK@Z 00435720 f   DataBaseEngineSink.obj
 0001:00034be0       ?OnRequestCreateTable@CDataBaseEngineSink@@IAE_NKPAXGAAK@Z 00435be0 f   DataBaseEngineSink.obj
 0001:00035350       ?OnRequestExchangeScoreByBeans@CDataBaseEngineSink@@IAE_NKPAXGAAK@Z 00436350 f   DataBaseEngineSink.obj
 0001:00035a30       ?OnRequestExchangeScoreByIngot@CDataBaseEngineSink@@IAE_NKPAXGAAK@Z 00436a30 f   DataBaseEngineSink.obj
 0001:00036100       ?OnRequestGameScoreRecord@CDataBaseEngineSink@@IAE_NKPAXGAAK@Z 00437100 f   DataBaseEngineSink.obj
 0001:000367a0       ?OnRequestGetSendPresent@CDataBaseEngineSink@@IAE_NKPAXGAAK@Z 004377a0 f   DataBaseEngineSink.obj
 0001:00036eb0       ?OnRequestHostCancelCreateTable@CDataBaseEngineSink@@IAE_NKPAXGAAK@Z 00437eb0 f   DataBaseEngineSink.obj
 0001:00037380       ?OnRequestLeaveGameServer@CDataBaseEngineSink@@IAE_NKPAXGAAK@Z 00438380 f   DataBaseEngineSink.obj
 0001:00037b30       ?OnRequestLoadAndroidParameter@CDataBaseEngineSink@@IAE_NKPAXGAAK@Z 00438b30 f   DataBaseEngineSink.obj
 0001:000383f0       ?OnRequestLoadAndroidUser@CDataBaseEngineSink@@IAE_NKPAXGAAK@Z 004393f0 f   DataBaseEngineSink.obj
 0001:000389c0       ?OnRequestLoadBaseEnsure@CDataBaseEngineSink@@IAE_NKPAXGAAK@Z 004399c0 f   DataBaseEngineSink.obj
 0001:00038cc0       ?OnRequestLoadCheckIn@CDataBaseEngineSink@@IAE_NKPAXGAAK@Z 00439cc0 f   DataBaseEngineSink.obj
 0001:00038fb0       ?OnRequestLoadGameBuff@CDataBaseEngineSink@@IAE_NKPAXGAAK@Z 00439fb0 f   DataBaseEngineSink.obj
 0001:000395a0       ?OnRequestLoadGameColumn@CDataBaseEngineSink@@IAE_NKPAXGAAK@Z 0043a5a0 f   DataBaseEngineSink.obj
 0001:00039a10       ?OnRequestLoadGameTrumpet@CDataBaseEngineSink@@IAE_NKPAXGAAK@Z 0043aa10 f   DataBaseEngineSink.obj
 0001:00039ce0       ?OnRequestLoadGrowLevelConfig@CDataBaseEngineSink@@IAE_NKPAXGAAK@Z 0043ace0 f   DataBaseEngineSink.obj
 0001:0003a060       ?OnRequestLoadParameter@CDataBaseEngineSink@@IAE_NKPAXGAAK@Z 0043b060 f   DataBaseEngineSink.obj
 0001:0003a420       ?OnRequestLoadPersonalParameter@CDataBaseEngineSink@@IAE_NKPAXGAAK@Z 0043b420 f   DataBaseEngineSink.obj
 0001:0003ad70       ?OnRequestLoadSensitiveWords@CDataBaseEngineSink@@IAE_NKPAXGAAK@Z 0043bd70 f   DataBaseEngineSink.obj
 0001:0003b060       ?OnRequestLoadSystemMessage@CDataBaseEngineSink@@IAE_NKPAXGAAK@Z 0043c060 f   DataBaseEngineSink.obj
 0001:0003b850       ?OnRequestLoadTaskList@CDataBaseEngineSink@@IAE_NKPAXGAAK@Z 0043c850 f   DataBaseEngineSink.obj
 0001:0003bef0       ?OnRequestLogonAccounts@CDataBaseEngineSink@@IAE_NKPAXGAAK@Z 0043cef0 f   DataBaseEngineSink.obj
 0001:0003c390       ?OnRequestLogonMobile@CDataBaseEngineSink@@IAE_NKPAXGAAK@Z 0043d390 f   DataBaseEngineSink.obj
 0001:0003c940       ?OnRequestLogonUserID@CDataBaseEngineSink@@IAE_NKPAXGAAKH@Z 0043d940 f   DataBaseEngineSink.obj
 0001:0003ce10       ?OnRequestManageMatchRight@CDataBaseEngineSink@@IAE_NKPAXGAAK@Z 0043de10 f   DataBaseEngineSink.obj
 0001:0003d0e0       ?OnRequestManageUserRight@CDataBaseEngineSink@@IAE_NKPAXGAAK@Z 0043e0e0 f   DataBaseEngineSink.obj
 0001:0003d310       ?OnRequestMatchBuySafeCard@CDataBaseEngineSink@@IAE_NKPAXGAAK@Z 0043e310 f   DataBaseEngineSink.obj
 0001:0003d860       ?OnRequestMatchCancel@CDataBaseEngineSink@@IAE_NKPAXGAAK@Z 0043e860 f   DataBaseEngineSink.obj
 0001:0003db40       ?OnRequestMatchEliminate@CDataBaseEngineSink@@IAE_NKPAXGAAK@Z 0043eb40 f   DataBaseEngineSink.obj
 0001:0003ddb0       ?OnRequestMatchOver@CDataBaseEngineSink@@IAE_NKPAXGAAK@Z 0043edb0 f   DataBaseEngineSink.obj
 0001:0003e3c0       ?OnRequestMatchQueryQualify@CDataBaseEngineSink@@IAE_NKPAXGAAK@Z 0043f3c0 f   DataBaseEngineSink.obj
 0001:0003e650       ?OnRequestMatchQueryReviveInfo@CDataBaseEngineSink@@IAE_NKPAXGAAK@Z 0043f650 f   DataBaseEngineSink.obj
 0001:0003e9a0       ?OnRequestMatchRecordGrades@CDataBaseEngineSink@@IAE_NKPAXGAAK@Z 0043f9a0 f   DataBaseEngineSink.obj
 0001:0003ec20       ?OnRequestMatchReward@CDataBaseEngineSink@@IAE_NKPAXGAAK@Z 0043fc20 f   DataBaseEngineSink.obj
 0001:0003eff0       ?OnRequestMatchSignup@CDataBaseEngineSink@@IAE_NKPAXGAAK@Z 0043fff0 f   DataBaseEngineSink.obj
 0001:0003f750       ?OnRequestMatchSignupStart@CDataBaseEngineSink@@IAE_NKPAXGAAK@Z 00440750 f   DataBaseEngineSink.obj
 0001:0003f9d0       ?OnRequestMatchStart@CDataBaseEngineSink@@IAE_NKPAXGAAK@Z 004409d0 f   DataBaseEngineSink.obj
 0001:0003fc20       ?OnRequestMatchUnSignup@CDataBaseEngineSink@@IAE_NKPAXGAAK@Z 00440c20 f   DataBaseEngineSink.obj
 0001:00040380       ?OnRequestMatchUserRevive@CDataBaseEngineSink@@IAE_NKPAXGAAK@Z 00441380 f   DataBaseEngineSink.obj
 0001:00040970       ?OnRequestMemberDayGift@CDataBaseEngineSink@@IAE_NKPAXGAAK@Z 00441970 f   DataBaseEngineSink.obj
 0001:00040e50       ?OnRequestMemberDayPresent@CDataBaseEngineSink@@IAE_NKPAXGAAK@Z 00441e50 f   DataBaseEngineSink.obj
 0001:00041380       ?OnRequestMemberLoadParameter@CDataBaseEngineSink@@IAE_NKPAXGAAK@Z 00442380 f   DataBaseEngineSink.obj
 0001:00041820       ?OnRequestMemberQueryInfo@CDataBaseEngineSink@@IAE_NKPAXGAAK@Z 00442820 f   DataBaseEngineSink.obj
 0001:00041ee0       ?OnRequestPayRoomCard@CDataBaseEngineSink@@IAE_NKPAXGAAK@Z 00442ee0 f   DataBaseEngineSink.obj
 0001:000423c0       ?OnRequestPropertyBackpack@CDataBaseEngineSink@@IAE_NKPAXGAAK@Z 004433c0 f   DataBaseEngineSink.obj
 0001:00042c60       ?OnRequestPropertyPresent@CDataBaseEngineSink@@IAE_NKPAXGAAK@Z 00443c60 f   DataBaseEngineSink.obj
 0001:00043200       ?OnRequestPropertyUse@CDataBaseEngineSink@@IAE_NKPAXGAAK@Z 00444200 f   DataBaseEngineSink.obj
 0001:00043a20       ?OnRequestPurchaseMember@CDataBaseEngineSink@@IAE_NKPAXGAAK@Z 00444a20 f   DataBaseEngineSink.obj
 0001:000440f0       ?OnRequestQueryGrowLevelParameter@CDataBaseEngineSink@@IAE_NKPAXGAAK@Z 004450f0 f   DataBaseEngineSink.obj
 0001:00044850       ?OnRequestQueryInsureInfo@CDataBaseEngineSink@@IAE_NKPAXGAAK@Z 00445850 f   DataBaseEngineSink.obj
 0001:00044ef0       ?OnRequestQuerySendPresent@CDataBaseEngineSink@@IAE_NKPAXGAAK@Z 00445ef0 f   DataBaseEngineSink.obj
 0001:000455b0       ?OnRequestQueryTransferUserInfo@CDataBaseEngineSink@@IAE_NKPAXGAAK@Z 004465b0 f   DataBaseEngineSink.obj
 0001:00045a00       ?OnRequestQueryUserRoomScore@CDataBaseEngineSink@@IAE_NKPAXGAAK@Z 00446a00 f   DataBaseEngineSink.obj
 0001:00045a20       ?OnRequestRoomTaskProgress@CDataBaseEngineSink@@IAE_NKPAXGAAK@Z 00446a20 f   DataBaseEngineSink.obj
 0001:00045c30       ?OnRequestSendTrumpet@CDataBaseEngineSink@@IAE_NKPAXGAAK@Z 00446c30 f   DataBaseEngineSink.obj
 0001:00045f50       ?OnRequestTakeBaseEnsure@CDataBaseEngineSink@@IAE_NKPAXGAAK@Z 00446f50 f   DataBaseEngineSink.obj
 0001:00046580       ?OnRequestTaskGiveUp@CDataBaseEngineSink@@IAE_NKPAXGAAK@Z 00447580 f   DataBaseEngineSink.obj
 0001:00046b10       ?OnRequestTaskQueryInfo@CDataBaseEngineSink@@IAE_NKPAXGAAK@Z 00447b10 f   DataBaseEngineSink.obj
 0001:00047190       ?OnRequestTaskReward@CDataBaseEngineSink@@IAE_NKPAXGAAK@Z 00448190 f   DataBaseEngineSink.obj
 0001:000477c0       ?OnRequestTaskTake@CDataBaseEngineSink@@IAE_NKPAXGAAK@Z 004487c0 f   DataBaseEngineSink.obj
 0001:00047d50       ?OnRequestUnlockAndroidUser@CDataBaseEngineSink@@IAE_NKPAXGAAK@Z 00448d50 f   DataBaseEngineSink.obj
 0001:00047f50       ?OnRequestUserEnableInsure@CDataBaseEngineSink@@IAE_NKPAXGAAK@Z 00448f50 f   DataBaseEngineSink.obj
 0001:00048530       ?OnRequestUserSaveScore@CDataBaseEngineSink@@IAE_NKPAXGAAK@Z 00449530 f   DataBaseEngineSink.obj
 0001:00048a00       ?OnRequestUserTakeScore@CDataBaseEngineSink@@IAE_NKPAXGAAK@Z 00449a00 f   DataBaseEngineSink.obj
 0001:00048ee0       ?OnRequestUserTransferScore@CDataBaseEngineSink@@IAE_NKPAXGAAK@Z 00449ee0 f   DataBaseEngineSink.obj
 0001:00049410       ?OnRequestWriteGameScore@CDataBaseEngineSink@@IAE_NKPAXGAAK@Z 0044a410 f   DataBaseEngineSink.obj
 0001:000499d0       ?OnRequestWriteJoinInfo@CDataBaseEngineSink@@IAE_NKPAXGAAK@Z 0044a9d0 f   DataBaseEngineSink.obj
 0001:00049c50       ?OnRequestWritePersonalGameScore@CDataBaseEngineSink@@IAE_NKPAXGAAK@Z 0044ac50 f   DataBaseEngineSink.obj
 0001:0004a4b0       ?OnRequestWriteUserGameData@CDataBaseEngineSink@@IAE_NKPAXGAAK@Z 0044b4b0 f   DataBaseEngineSink.obj
 0001:0004a7d0       ?OnRequestWriteVideoDataInfo@CDataBaseEngineSink@@IAE_NKPAXGAAK@Z 0044b7d0 f   DataBaseEngineSink.obj
 0001:0004ab10       ?OnRequestWriteVideoPlayerInfo@CDataBaseEngineSink@@IAE_NKPAXGAAK@Z 0044bb10 f   DataBaseEngineSink.obj
 0001:0004ad60       ?OnRequsetDissumeRoom@CDataBaseEngineSink@@IAE_NKPAXGAAK@Z 0044bd60 f   DataBaseEngineSink.obj
 0001:0004b3b0       ?OnRequsetInsertCreateRecord@CDataBaseEngineSink@@IAE_NKPAXGAAK@Z 0044c3b0 f   DataBaseEngineSink.obj
 0001:0004b780       ?PostGameDataBaseResult@CDataBaseEngineSink@@UAE_NGPAXG@Z 0044c780 f   DataBaseEngineSink.obj
 0001:0004b7a0       ?QueryInterface@CDataBaseEngineSink@@UAEPAXABU_GUID@@K@Z 0044c7a0 f   DataBaseEngineSink.obj
 0001:0004b8a5       ?QueryInterface@CDataBaseEngineSink@@W3AEPAXABU_GUID@@K@Z 0044c8a5 f i DataBaseEngineSink.obj
 0001:0004b8b0       ?Release@CDataBaseEngineSink@@UAEXXZ 0044c8b0 f i DataBaseEngineSink.obj
 0001:0004b8c7       ?Release@CDataBaseEngineSink@@W3AEXXZ 0044c8c7 f i DataBaseEngineSink.obj
 0001:0004b8e0       ?TraceV@CTrace@ATL@@CAXPBDHIIPB_W@Z 0044c8e0 f i DataBaseEngineSink.obj
 0001:0004bb70       ?TraceV@CTrace@ATL@@SAXPBDHII0PAD@Z 0044cb70 f i DataBaseEngineSink.obj
 0001:0004bda0       ?_AtlGetConversionACP@ATL@@YGIXZ 0044cda0 f i DataBaseEngineSink.obj
 0001:0004bdc0       _HRESULT_FROM_WIN32        0044cdc0 f i DataBaseEngineSink.obj
 0001:0004be10       __vscprintf                0044ce10 f i DataBaseEngineSink.obj
 0001:0004be40       __vscprintf_l              0044ce40 f i DataBaseEngineSink.obj
 0001:0004bf10       ??$DumpElements@PAUtagDBRequestHead@@@@YGXAAVCDumpContext@@PBQAUtagDBRequestHead@@H@Z 0044cf10 f i DBCorrespondManager.obj
 0001:0004bfc0       ??$SerializeElements@PAUtagDBRequestHead@@@@YGXAAVCArchive@@PAPAUtagDBRequestHead@@H@Z 0044cfc0 f i DBCorrespondManager.obj
 0001:0004c160       ??0?$CList@PAUtagDBRequestHead@@ABQAU1@@@QAE@H@Z 0044d160 f i DBCorrespondManager.obj
 0001:0004c250       ??0?$CWHArray@KABK@@QAE@XZ 0044d250 f i DBCorrespondManager.obj
 0001:0004c2b0       ??0CDBCorrespondManager@@QAE@XZ 0044d2b0 f   DBCorrespondManager.obj
 0001:0004c370       ??0IDBCorrespondManager@@QAE@XZ 0044d370 f i DBCorrespondManager.obj
 0001:0004c3a0       ??0IServiceModule@@QAE@XZ  0044d3a0 f i DBCorrespondManager.obj
 0001:0004c3d0       ??1?$CList@PAUtagDBRequestHead@@ABQAU1@@@UAE@XZ 0044d3d0 f i DBCorrespondManager.obj
 0001:0004c460       ??1?$CWHArray@KABK@@UAE@XZ 0044d460 f i DBCorrespondManager.obj
 0001:0004c4e0       ??1CDBCorrespondManager@@QAE@XZ 0044d4e0 f   DBCorrespondManager.obj
 0001:0004c590       ??A?$CWHArray@KABK@@QAEAAKH@Z 0044d590 f i DBCorrespondManager.obj
 0001:0004c5c0       ??_E?$CList@PAUtagDBRequestHead@@ABQAU1@@@UAEPAXI@Z 0044d5c0 f i DBCorrespondManager.obj
 0001:0004c5c0       ??_G?$CList@PAUtagDBRequestHead@@ABQAU1@@@UAEPAXI@Z 0044d5c0 f i DBCorrespondManager.obj
 0001:0004c620       ??_E?$CWHArray@KABK@@UAEPAXI@Z 0044d620 f i DBCorrespondManager.obj
 0001:0004c620       ??_G?$CWHArray@KABK@@UAEPAXI@Z 0044d620 f i DBCorrespondManager.obj
 0001:0004c670       ??_GCDBCorrespondManager@@QAEPAXI@Z 0044d670 f i DBCorrespondManager.obj
 0001:0004c6c0       ?Add@?$CWHArray@KABK@@QAEHABK@Z 0044d6c0 f i DBCorrespondManager.obj
 0001:0004c700       ?AddTail@?$CList@PAUtagDBRequestHead@@ABQAU1@@@QAEPAU__POSITION@@ABQAUtagDBRequestHead@@@Z 0044d700 f i DBCorrespondManager.obj
 0001:0004c790       ?AllocMemory@?$CWHArray@KABK@@QAEXH@Z 0044d790 f i DBCorrespondManager.obj
 0001:0004c900       ?AmortizeSyncData@CDBCorrespondManager@@QAE_NKGKPAXGE@Z 0044d900 f   DBCorrespondManager.obj
 0001:0004c9e0       ?AssertValid@?$CList@PAUtagDBRequestHead@@ABQAU1@@@UBEXXZ 0044d9e0 f i DBCorrespondManager.obj
 0001:0004cac0       ?ClearAmortizeData@CDBCorrespondManager@@QAEXXZ 0044dac0 f   DBCorrespondManager.obj
 0001:0004cb20       ?ConcludeService@CDBCorrespondManager@@UAE_NXZ 0044db20 f   DBCorrespondManager.obj
 0001:0004cbd0       ?Dump@?$CList@PAUtagDBRequestHead@@ABQAU1@@@UBEXAAVCDumpContext@@@Z 0044dbd0 f i DBCorrespondManager.obj
 0001:0004ccb0       ?ElementAt@?$CWHArray@KABK@@QAEAAKH@Z 0044dcb0 f i DBCorrespondManager.obj
 0001:0004cd30       ?FreeNode@?$CList@PAUtagDBRequestHead@@ABQAU1@@@IAEXPAUCNode@1@@Z 0044dd30 f i DBCorrespondManager.obj
 0001:0004cdb0       ?GetCount@?$CList@PAUtagDBRequestHead@@ABQAU1@@@QBEHXZ 0044ddb0 f i DBCorrespondManager.obj
 0001:0004cdd0       ?GetCount@?$CWHArray@KABK@@QBEHXZ 0044ddd0 f i DBCorrespondManager.obj
 0001:0004cdf0       ?GetHeadPosition@?$CList@PAUtagDBRequestHead@@ABQAU1@@@QBEPAU__POSITION@@XZ 0044ddf0 f i DBCorrespondManager.obj
 0001:0004ce10       ?GetNext@?$CList@PAUtagDBRequestHead@@ABQAU1@@@QAEAAPAUtagDBRequestHead@@AAPAU__POSITION@@@Z 0044de10 f i DBCorrespondManager.obj
 0001:0004ce80       ?GetUserArrayIndex@CDBCorrespondManager@@QAEHK@Z 0044de80 f   DBCorrespondManager.obj
 0001:0004cef0       ?InitDBCorrespondManager@CDBCorrespondManager@@UAA_NPAUIDataBaseEngine@@@Z 0044def0 f   DBCorrespondManager.obj
 0001:0004cf20       ?IsPostDBRequest@CDBCorrespondManager@@QAE_NK@Z 0044df20 f   DBCorrespondManager.obj
 0001:0004cf90       ?NewNode@?$CList@PAUtagDBRequestHead@@ABQAU1@@@IAEPAUCNode@1@PAU21@0@Z 0044df90 f i DBCorrespondManager.obj
 0001:0004d130       ?OnPostRequestComplete@CDBCorrespondManager@@UAA_NK_N@Z 0044e130 f   DBCorrespondManager.obj
 0001:0004d280       ?OnTimerNotify@CDBCorrespondManager@@UAA_NXZ 0044e280 f   DBCorrespondManager.obj
 0001:0004d310       ?PerformAmortisation@CDBCorrespondManager@@QAEXXZ 0044e310 f   DBCorrespondManager.obj
 0001:0004d3e0       ?PostDataBaseRequest@CDBCorrespondManager@@UAA_NKGKPAXGE@Z 0044e3e0 f   DBCorrespondManager.obj
 0001:0004d4a0       ?QueryInterface@CDBCorrespondManager@@UAEPAXABU_GUID@@K@Z 0044e4a0 f   DBCorrespondManager.obj
 0001:0004d550       ?Release@CDBCorrespondManager@@UAEXXZ 0044e550 f i DBCorrespondManager.obj
 0001:0004d5a0       ?RemoveAll@?$CList@PAUtagDBRequestHead@@ABQAU1@@@QAEXXZ 0044e5a0 f i DBCorrespondManager.obj
 0001:0004d640       ?RemoveAll@?$CWHArray@KABK@@QAEXXZ 0044e640 f i DBCorrespondManager.obj
 0001:0004d6c0       ?RemoveAt@?$CList@PAUtagDBRequestHead@@ABQAU1@@@QAEXPAU__POSITION@@@Z 0044e6c0 f i DBCorrespondManager.obj
 0001:0004d800       ?RemoveAt@?$CWHArray@KABK@@QAEXHH@Z 0044e800 f i DBCorrespondManager.obj
 0001:0004d940       ?RemoveHead@?$CList@PAUtagDBRequestHead@@ABQAU1@@@QAEPAUtagDBRequestHead@@XZ 0044e940 f i DBCorrespondManager.obj
 0001:0004da60       ?Serialize@?$CList@PAUtagDBRequestHead@@ABQAU1@@@UAEXAAVCArchive@@@Z 0044ea60 f i DBCorrespondManager.obj
 0001:0004db90       ?SetAtGrow@?$CWHArray@KABK@@QAEXHABK@Z 0044eb90 f i DBCorrespondManager.obj
 0001:0004dc20       ?SetSize@?$CWHArray@KABK@@QAEXH@Z 0044ec20 f i DBCorrespondManager.obj
 0001:0004dd40       ?StartService@CDBCorrespondManager@@UAE_NXZ 0044ed40 f   DBCorrespondManager.obj
 0001:0004dd90       ??0CDistributeManager@@QAE@XZ 0044ed90 f   DistributeManager.obj
 0001:0004de00       ??0CDistributeNodePool@@QAE@XZ 0044ee00 f   DistributeManager.obj
 0001:0004de20       ??1CDistributeManager@@UAE@XZ 0044ee20 f   DistributeManager.obj
 0001:0004de90       ??1CDistributeNodePool@@QAE@XZ 0044ee90 f   DistributeManager.obj
 0001:0004df90       ??A?$CWHArray@UtagDistributeInfo@@ABU1@@@QBEABUtagDistributeInfo@@H@Z 0044ef90 f i DistributeManager.obj
 0001:0004dfc0       ??_ECDistributeManager@@UAEPAXI@Z 0044efc0 f i DistributeManager.obj
 0001:0004dfc0       ??_GCDistributeManager@@UAEPAXI@Z 0044efc0 f i DistributeManager.obj
 0001:0004e010       ?Add@?$CWHArray@UtagDistributeInfo@@ABU1@@@QAEHABUtagDistributeInfo@@@Z 0044f010 f i DistributeManager.obj
 0001:0004e050       ?AllocMemory@?$CWHArray@UtagDistributeInfo@@ABU1@@@QAEXH@Z 0044f050 f i DistributeManager.obj
 0001:0004e1b0       ?AllocNode@CDistributeNodePool@@QAEPAUtagDistributeNode@@XZ 0044f1b0 f   DistributeManager.obj
 0001:0004e270       ?FilterRuleExitsIPAddr@CDistributeManager@@IAEHABV?$CWHArray@UtagDistributeInfo@@ABU1@@@K@Z 0044f270 f i DistributeManager.obj
 0001:0004e2f0       ?FilterRuleExitsSameTable@CDistributeManager@@IAEHABV?$CWHArray@UtagDistributeInfo@@ABU1@@@G@Z 0044f2f0 f i DistributeManager.obj
 0001:0004e370       ?FilterRuleIsAllAndroid@CDistributeManager@@IAEHABV?$CWHArray@UtagDistributeInfo@@ABU1@@@QAUIServerUserItem@@@Z 0044f370 f i DistributeManager.obj
 0001:0004e470       ?FreeNode@CDistributeNodePool@@QAEXPAX@Z 0044f470 f   DistributeManager.obj
 0001:0004e4b0       ?GetAt@?$CWHArray@UtagDistributeInfo@@ABU1@@@QBEABUtagDistributeInfo@@H@Z 0044f4b0 f i DistributeManager.obj
 0001:0004e520       ?InsertDistributeNode@CDistributeManager@@QAEHABUtagDistributeInfo@@@Z 0044f520 f   DistributeManager.obj
 0001:0004e6d0       ?PerformDistribute@CDistributeManager@@QAEGAAV?$CWHArray@UtagDistributeInfo@@ABU1@@@G@Z 0044f6d0 f   DistributeManager.obj
 0001:0004e890       ?RemoveAll@CDistributeManager@@QAEXXZ 0044f890 f   DistributeManager.obj
 0001:0004e900       ?RemoveDistributeNode@CDistributeManager@@QAEXPAUtagDistributeNode@@@Z 0044f900 f   DistributeManager.obj
 0001:0004ea30       ?RemoveDistributeNode@CDistributeManager@@QAEXPBUIServerUserItem@@@Z 0044fa30 f   DistributeManager.obj
 0001:0004ea80       ?SearchNode@CDistributeManager@@IAEPAUtagDistributeNode@@QBUIServerUserItem@@@Z 0044fa80 f   DistributeManager.obj
 0001:0004eaf0       ?SetAtGrow@?$CWHArray@UtagDistributeInfo@@ABU1@@@QAEXHABUtagDistributeInfo@@@Z 0044faf0 f i DistributeManager.obj
 0001:0004eb90       ?SetSize@?$CWHArray@UtagDistributeInfo@@ABU1@@@QAEXH@Z 0044fb90 f i DistributeManager.obj
 0001:0004ecb0       ??0CGameServerApp@@QAE@XZ  0044fcb0 f   GameServer.obj
 0001:0004ecf0       ??1CGameServerApp@@UAE@XZ  0044fcf0 f i GameServer.obj
 0001:0004ed20       ??_GCGameServerApp@@UAEPAXI@Z 0044fd20 f i GameServer.obj
 0001:0004ed20       ??_ECGameServerApp@@UAEPAXI@Z 0044fd20 f i GameServer.obj
 0001:0004ed80       ?GetApplicationRecoveryParameter@CWinApp@@UAEPAXXZ 0044fd80 f i GameServer.obj
 0001:0004eda0       ?GetApplicationRecoveryPingInterval@CWinApp@@UAEKXZ 0044fda0 f i GameServer.obj
 0001:0004edc0       ?GetApplicationRestartFlags@CWinApp@@UAEKXZ 0044fdc0 f i GameServer.obj
 0001:0004ede0       ?GetMessageMap@CGameServerApp@@MBEPBUAFX_MSGMAP@@XZ 0044fde0 f   GameServer.obj
 0001:0004ee00       ?GetThisMessageMap@CGameServerApp@@KGPBUAFX_MSGMAP@@XZ 0044fe00 f   GameServer.obj
 0001:0004ee20       ?InitInstance@CGameServerApp@@UAEHXZ 0044fe20 f   GameServer.obj
 0001:0004ef20       ?ReopenPreviousFilesAtRestart@CWinApp@@UBEHXZ 0044ff20 f i GameServer.obj
 0001:0004ef50       ?RestoreAutosavedFilesAtRestart@CWinApp@@UBEHXZ 0044ff50 f i GameServer.obj
 0001:0004ef80       ?SupportsApplicationRecovery@CWinApp@@UBEHXZ 0044ff80 f i GameServer.obj
 0001:0004efb0       ?SupportsAutosaveAtInterval@CWinApp@@UBEHXZ 0044ffb0 f i GameServer.obj
 0001:0004efe0       ?SupportsAutosaveAtRestart@CWinApp@@UBEHXZ 0044ffe0 f i GameServer.obj
 0001:0004f010       ?SupportsRestartManager@CWinApp@@UBEHXZ 00450010 f i GameServer.obj
 0001:0004f040       ?OnBnClickedStartService@CGameServerDlg@@IAEXXZ 00450040 f   GameServerDlg.obj
 0001:0004f0f0       ?OnBnClickedStopService@CGameServerDlg@@IAEXXZ 004500f0 f   GameServerDlg.obj
 0001:0004f1a0       ?OnBnClickedOpenServer@CGameServerDlg@@IAEXXZ 004501a0 f   GameServerDlg.obj
 0001:0004f330       ?OnBnClickedCreateServer@CGameServerDlg@@IAEXXZ 00450330 f   GameServerDlg.obj
 0001:0004f460       ?OnBnClickedOptionServer@CGameServerDlg@@IAEXXZ 00450460 f   GameServerDlg.obj
 0001:0004f650       ?OnBnClickedOptionMatch@CGameServerDlg@@IAEXXZ 00450650 f   GameServerDlg.obj
 0001:0004f820       ?OnQueryEndSession@CGameServerDlg@@QAEHXZ 00450820 f   GameServerDlg.obj
 0001:0004f870       ?OnMessageProcessCmdLine@CGameServerDlg@@QAEJIJ@Z 00450870 f   GameServerDlg.obj
 0001:0004f9b0       ??$_snprintf_s@$0BAE@@@YAHAAY0BAE@DIPBDZZ 004509b0 f i GameServerDlg.obj
 0001:0004f9f0       ??0?$CTempldateHelper@UIGameServiceManager@@@@QAE@ABU_GUID@@K@Z 004509f0 f i GameServerDlg.obj
 0001:0004faa0       ??0CGameServerDlg@@QAE@XZ  00450aa0 f   GameServerDlg.obj
 0001:0004fbd0       ??0CGameServiceManagerHelper@@QAE@XZ 00450bd0 f i GameServerDlg.obj
 0001:0004fc10       ??0CreateRoomPayFee@@QAE@XZ 00450c10 f i GameServerDlg.obj
 0001:0004fc70       ??0IServiceUnitsSink@@QAE@XZ 00450c70 f i GameServerDlg.obj
 0001:0004fca0       ??0tagModuleInitParameter@@QAE@XZ 00450ca0 f i GameServerDlg.obj
 0001:0004fcd0       ??0tagPersonalRoomOptionRightAndFee@@QAE@XZ 00450cd0 f i GameServerDlg.obj
 0001:0004fd10       ??1?$CTempldateHelper@UIGameServiceManager@@@@UAE@XZ 00450d10 f i GameServerDlg.obj
 0001:0004fd80       ??1CGameServerDlg@@UAE@XZ  00450d80 f   GameServerDlg.obj
 0001:0004fe00       ??1CGameServiceManagerHelper@@UAE@XZ 00450e00 f i GameServerDlg.obj
 0001:0004fe30       ??_E?$CTempldateHelper@UIGameServiceManager@@@@UAEPAXI@Z 00450e30 f i GameServerDlg.obj
 0001:0004fe30       ??_G?$CTempldateHelper@UIGameServiceManager@@@@UAEPAXI@Z 00450e30 f i GameServerDlg.obj
 0001:0004fe80       ??_ECGameServerDlg@@UAEPAXI@Z 00450e80 f i GameServerDlg.obj
 0001:0004fe80       ??_GCGameServerDlg@@UAEPAXI@Z 00450e80 f i GameServerDlg.obj
 0001:0004fee0       ??_ECGameServiceManagerHelper@@UAEPAXI@Z 00450ee0 f i GameServerDlg.obj
 0001:0004fee0       ??_GCGameServiceManagerHelper@@UAEPAXI@Z 00450ee0 f i GameServerDlg.obj
 0001:0004ff30       ?CloseInstance@?$CTempldateHelper@UIGameServiceManager@@@@QAE_NXZ 00450f30 f i GameServerDlg.obj
 0001:0004ffe0       ?CreateInstance@?$CTempldateHelper@UIGameServiceManager@@@@QAE_NXZ 00450fe0 f i GameServerDlg.obj
 0001:000502a0       ?DoDataExchange@CGameServerDlg@@MAEXPAVCDataExchange@@@Z 004512a0 f   GameServerDlg.obj
 0001:000502f0       ?GetInterface@?$CTempldateHelper@UIGameServiceManager@@@@QBEPAUIGameServiceManager@@XZ 004512f0 f i GameServerDlg.obj
 0001:00050320       ?GetMessageMap@CGameServerDlg@@MBEPBUAFX_MSGMAP@@XZ 00451320 f   GameServerDlg.obj
 0001:00050340       ?GetPlatformDBParameter@CGameServerDlg@@IAE_NAAUtagDataBaseParameter@@@Z 00451340 f   GameServerDlg.obj
 0001:00050570       ?GetThisMessageMap@CGameServerDlg@@KGPBUAFX_MSGMAP@@XZ 00451570 f   GameServerDlg.obj
 0001:00050590       ?OnCancel@CGameServerDlg@@MAEXXZ 00451590 f   GameServerDlg.obj
 0001:00050600       ?OnInitDialog@CGameServerDlg@@MAEHXZ 00451600 f   GameServerDlg.obj
 0001:000506f0       ?OnOK@CGameServerDlg@@MAEXXZ 004516f0 f   GameServerDlg.obj
 0001:00050710       ?OnServiceUnitsStatus@CGameServerDlg@@UAEXW4enServiceStatus@@@Z 00451710 f   GameServerDlg.obj
 0001:00050ba0       ?PreTranslateMessage@CGameServerDlg@@MAEHPAUtagMSG@@@Z 00451ba0 f   GameServerDlg.obj
 0001:00050bf0       ?SetModuleCreateInfo@?$CTempldateHelper@UIGameServiceManager@@@@QAEXPBD0@Z 00451bf0 f i GameServerDlg.obj
 0001:00050c40       ?StartServerService@CGameServerDlg@@IAE_NG@Z 00451c40 f   GameServerDlg.obj
 0001:00050e00       ?UpdateParameterStatus@CGameServerDlg@@IAEXAAUtagModuleInitParameter@@@Z 00451e00 f   GameServerDlg.obj
 0001:00051030       ?UpdateServerLogo@CGameServerDlg@@IAEXPBD@Z 00452030 f   GameServerDlg.obj
 0001:000510c0       ?UpdateServerTitle@CGameServerDlg@@IAEXW4enServiceStatus@@@Z 004520c0 f   GameServerDlg.obj
 0001:000511f0       ??0CInitParameter@@QAE@XZ  004521f0 f   InitParameter.obj
 0001:00051250       ??1CInitParameter@@UAE@XZ  00452250 f   InitParameter.obj
 0001:00051280       ??_ECInitParameter@@UAEPAXI@Z 00452280 f i InitParameter.obj
 0001:00051280       ??_GCInitParameter@@UAEPAXI@Z 00452280 f i InitParameter.obj
 0001:000512d0       ?InitParameter@CInitParameter@@QAEXXZ 004522d0 f   InitParameter.obj
 0001:000513e0       ?LoadInitParameter@CInitParameter@@QAEXXZ 004523e0 f   InitParameter.obj
 0001:00051810       ?ReadMobileParameter@CInitParameter@@QAEXXZ 00452810 f   InitParameter.obj
 0001:00051b00       ?SetServerParameter@CInitParameter@@QAEXPAUtagGameServiceAttrib@@PAUtagGameServiceOption@@@Z 00452b00 f   InitParameter.obj
 0001:00051b40       ??$?0$$V@?$_Compressed_pair@V?$allocator@PAVCToken@@@std@@V?$_Vector_val@U?$_Simple_types@PAVCToken@@@std@@@2@$00@std@@QAE@U_Zero_then_variadic_args_t@1@@Z 00452b40 f i SensitiveWordsFilter.obj
 0001:00051b80       ??$?0PAVCToken@@@?$allocator@U_Container_proxy@std@@@std@@QAE@ABV?$allocator@PAVCToken@@@1@@Z 00452b80 f i SensitiveWordsFilter.obj
 0001:00051ba0       ??$_Allocate@$07U_Default_allocate_traits@std@@$0A@@std@@YAPAXI@Z 00452ba0 f i SensitiveWordsFilter.obj
 0001:00051bf0       ??$_Allocate_manually_vector_aligned@U_Default_allocate_traits@std@@@std@@YAPAXI@Z 00452bf0 f i SensitiveWordsFilter.obj
 0001:00051ce0       ??$_Copy_memmove@PAPAVCToken@@PAPAV1@@std@@YAPAPAVCToken@@PAPAV1@00@Z 00452ce0 f i SensitiveWordsFilter.obj
 0001:00051d40       ??$_Deallocate@$07$0A@@std@@YAXPAXI@Z 00452d40 f i SensitiveWordsFilter.obj
 0001:00051d90       ??$_Destroy_range1@V?$allocator@PAVCToken@@@std@@@std@@YAXPAPAVCToken@@0AAV?$allocator@PAVCToken@@@0@U?$integral_constant@_N$00@0@@Z 00452d90 f i SensitiveWordsFilter.obj
 0001:00051db0       ??$_Destroy_range@V?$allocator@PAVCToken@@@std@@@std@@YAXPAPAVCToken@@0AAV?$allocator@PAVCToken@@@0@@Z 00452db0 f i SensitiveWordsFilter.obj
 0001:00051df0       ??$_Emplace_back_with_unused_capacity@ABQAVCToken@@@?$vector@PAVCToken@@V?$allocator@PAVCToken@@@std@@@std@@AAE@ABQAVCToken@@@Z 00452df0 f i SensitiveWordsFilter.obj
 0001:00051ea0       ??$_Emplace_reallocate@ABQAVCToken@@@?$vector@PAVCToken@@V?$allocator@PAVCToken@@@std@@@std@@QAEPAPAVCToken@@QAPAV2@ABQAV2@@Z 00452ea0 f i SensitiveWordsFilter.obj
 0001:000520f0       ??$_Get_size_of_n@$03@std@@YAII@Z 004530f0 f i SensitiveWordsFilter.obj
 0001:00052130       ??$_Get_size_of_n@$07@std@@YAII@Z 00453130 f i SensitiveWordsFilter.obj
 0001:00052170       ??$_Get_unwrapped@PAVCToken@@@std@@YAPAPAVCToken@@QAPAV1@@Z 00453170 f i SensitiveWordsFilter.obj
 0001:00052190       ??$_Get_unwrapped_n@PAVCToken@@H$0A@@std@@YAPAPAVCToken@@QAPAV1@H@Z 00453190 f i SensitiveWordsFilter.obj
 0001:000521b0       ??$_Idl_distance1@PAPAVCToken@@PAPAV1@@std@@YAHABQAPAVCToken@@0Urandom_access_iterator_tag@0@@Z 004531b0 f i SensitiveWordsFilter.obj
 0001:000521e0       ??$_Idl_distance@PAPAVCToken@@PAPAV1@@std@@YA@ABQAPAVCToken@@0@Z 004531e0 f i SensitiveWordsFilter.obj
 0001:00052210       ??$_Min_value@I@std@@YAABIABI0@Z 00453210 f i SensitiveWordsFilter.obj
 0001:00052250       ??$_Ptr_move_cat@PAVCToken@@PAV1@@std@@YA?AU_Really_trivial_ptr_iterator_tag@0@ABQAPAVCToken@@0@Z 00453250 f i SensitiveWordsFilter.obj
 0001:00052270       ??$_Seek_wrapped@PAVCToken@@@std@@YAXAAPAPAVCToken@@QAPAV1@@Z 00453270 f i SensitiveWordsFilter.obj
 0001:00052290       ??$_Unfancy@PAVCToken@@@std@@YAPAPAVCToken@@PAPAV1@@Z 00453290 f i SensitiveWordsFilter.obj
 0001:000522b0       ??$_Unfancy@U_Container_proxy@std@@@std@@YAPAU_Container_proxy@0@PAU10@@Z 004532b0 f i SensitiveWordsFilter.obj
 0001:000522d0       ??$_Uninitialized_move@PAPAVCToken@@PAPAV1@V?$allocator@PAVCToken@@@std@@@std@@YAPAPAVCToken@@QAPAV1@0PAPAV1@AAV?$allocator@PAVCToken@@@0@@Z 004532d0 f i SensitiveWordsFilter.obj
 0001:00052390       ??$_Uninitialized_move_al_unchecked@PAVCToken@@PAV1@V?$allocator@PAVCToken@@@std@@@std@@YAPAPAVCToken@@QAPAV1@00AAV?$allocator@PAVCToken@@@0@U_Really_trivial_ptr_iterator_tag@0@U?$integral_constant@_N$00@0@@Z 00453390 f i SensitiveWordsFilter.obj
 0001:000523c0       ??$addressof@V?$_Vector_val@U?$_Simple_types@PAVCToken@@@std@@@std@@@std@@YAPAV?$_Vector_val@U?$_Simple_types@PAVCToken@@@std@@@0@AAV10@@Z 004533c0 f i SensitiveWordsFilter.obj
 0001:000523e0       ??$construct@PAVCToken@@ABQAV1@@?$_Default_allocator_traits@V?$allocator@PAVCToken@@@std@@@std@@SAXAAV?$allocator@PAVCToken@@@1@QAPAVCToken@@ABQAV3@@Z 004533e0 f i SensitiveWordsFilter.obj
 0001:00052430       ??$construct@U_Container_proxy@std@@U12@@?$_Default_allocator_traits@V?$allocator@U_Container_proxy@std@@@std@@@std@@SAXAAV?$allocator@U_Container_proxy@std@@@1@QAU_Container_proxy@1@$$QAU31@@Z 00453430 f i SensitiveWordsFilter.obj
 0001:00052480       ??$emplace_back@ABQAVCToken@@@?$vector@PAVCToken@@V?$allocator@PAVCToken@@@std@@@std@@QAE@ABQAVCToken@@@Z 00453480 f i SensitiveWordsFilter.obj
 0001:00052500       ??$forward@ABQAVCToken@@@std@@YAABQAVCToken@@ABQAV1@@Z 00453500 f i SensitiveWordsFilter.obj
 0001:00052520       ??$forward@U_Container_proxy@std@@@std@@YA$$QAU_Container_proxy@0@AAU10@@Z 00453520 f i SensitiveWordsFilter.obj
 0001:00052540       ??0?$_Vector_alloc@U?$_Vec_base_types@PAVCToken@@V?$allocator@PAVCToken@@@std@@@std@@@std@@QAE@XZ 00453540 f i SensitiveWordsFilter.obj
 0001:00052580       ??0?$_Vector_const_iterator@V?$_Vector_val@U?$_Simple_types@PAVCToken@@@std@@@std@@@std@@QAE@PAPAVCToken@@PBU_Container_base12@1@@Z 00453580 f i SensitiveWordsFilter.obj
 0001:000525d0       ??0?$_Vector_iterator@V?$_Vector_val@U?$_Simple_types@PAVCToken@@@std@@@std@@@std@@QAE@PAPAVCToken@@PBU_Container_base12@1@@Z 004535d0 f i SensitiveWordsFilter.obj
 0001:00052610       ??0?$_Vector_val@U?$_Simple_types@PAVCToken@@@std@@@std@@QAE@XZ 00453610 f i SensitiveWordsFilter.obj
 0001:00052660       ??0?$allocator@PAVCToken@@@std@@QAE@XZ 00453660 f i SensitiveWordsFilter.obj
 0001:00052680       ??0?$vector@PAVCToken@@V?$allocator@PAVCToken@@@std@@@std@@QAE@XZ 00453680 f i SensitiveWordsFilter.obj
 0001:000526e0       ??0CToken@@QAE@GAATcharacter@@@Z 004536e0 f i SensitiveWordsFilter.obj
 0001:00052740       ??0_Container_base12@std@@QAE@XZ 00453740 f i SensitiveWordsFilter.obj
 0001:00052770       ??0_Container_proxy@std@@QAE@XZ 00453770 f i SensitiveWordsFilter.obj
 0001:000527b0       ??0_Iterator_base12@std@@QAE@XZ 004537b0 f i SensitiveWordsFilter.obj
 0001:000527f0       ??0tokenArray@@QAE@XZ      004537f0 f i SensitiveWordsFilter.obj
 0001:00052820       ??1?$_Vector_const_iterator@V?$_Vector_val@U?$_Simple_types@PAVCToken@@@std@@@std@@@std@@QAE@XZ 00453820 f i SensitiveWordsFilter.obj
 0001:00052850       ??1?$_Vector_iterator@V?$_Vector_val@U?$_Simple_types@PAVCToken@@@std@@@std@@@std@@QAE@XZ 00453850 f i SensitiveWordsFilter.obj
 0001:00052880       ??1CFilterTree@@QAE@XZ     00453880 f   SensitiveWordsFilter.obj
 0001:000528e0       ??1_Iterator_base12@std@@QAE@XZ 004538e0 f i SensitiveWordsFilter.obj
 0001:00052950       ??8?$_Vector_const_iterator@V?$_Vector_val@U?$_Simple_types@PAVCToken@@@std@@@std@@@std@@QBE_NABV01@@Z 00453950 f i SensitiveWordsFilter.obj
 0001:000529b0       ??9?$_Vector_const_iterator@V?$_Vector_val@U?$_Simple_types@PAVCToken@@@std@@@std@@@std@@QBE_NABV01@@Z 004539b0 f i SensitiveWordsFilter.obj
 0001:00052a00       ??A?$CWHArray@PBDABQBD@@QAEAAPBDH@Z 00453a00 f i SensitiveWordsFilter.obj
 0001:00052a30       ??D?$_Vector_const_iterator@V?$_Vector_val@U?$_Simple_types@PAVCToken@@@std@@@std@@@std@@QBEABQAVCToken@@XZ 00453a30 f i SensitiveWordsFilter.obj
 0001:00052b50       ??D?$_Vector_iterator@V?$_Vector_val@U?$_Simple_types@PAVCToken@@@std@@@std@@@std@@QBEAAPAVCToken@@XZ 00453b50 f i SensitiveWordsFilter.obj
 0001:00052b80       ??E?$_Vector_const_iterator@V?$_Vector_val@U?$_Simple_types@PAVCToken@@@std@@@std@@@std@@QAEAAV01@XZ 00453b80 f i SensitiveWordsFilter.obj
 0001:00052ca0       ??E?$_Vector_iterator@V?$_Vector_val@U?$_Simple_types@PAVCToken@@@std@@@std@@@std@@QAEAAV01@XZ 00453ca0 f i SensitiveWordsFilter.obj
 0001:00052cd0       ?Add@?$CWHArray@PBDABQBD@@QAEHABQBD@Z 00453cd0 f i SensitiveWordsFilter.obj
 0001:00052d10       ?AddSensitiveWords@CSensitiveWordsFilter@@QAE_NPBD@Z 00453d10 f   SensitiveWordsFilter.obj
 0001:00052db0       ?AllocMemory@?$CWHArray@PBDABQBD@@QAEXH@Z 00453db0 f i SensitiveWordsFilter.obj
 0001:00052f20       ?BuildTree@CFilterTree@@QAEXXZ 00453f20 f   SensitiveWordsFilter.obj
 0001:00052f90       ?BuildWord@CFilterTree@@QAEXPBD@Z 00453f90 f   SensitiveWordsFilter.obj
 0001:00052fb0       ?ElementAt@?$CWHArray@PBDABQBD@@QAEAAPBDH@Z 00453fb0 f i SensitiveWordsFilter.obj
 0001:00053030       ?Filtrate@CFilterTree@@QAE?AV?$CStringT@DV?$StrTraitMFC_DLL@DV?$ChTraitsCRT@D@ATL@@@@@ATL@@PBD@Z 00454030 f   SensitiveWordsFilter.obj
 0001:00053270       ?Filtrate@CSensitiveWordsFilter@@QAE?AV?$CStringT@DV?$StrTraitMFC_DLL@DV?$ChTraitsCRT@D@ATL@@@@@ATL@@PBDAAH@Z 00454270 f   SensitiveWordsFilter.obj
 0001:00053330       ?Filtrate@CSensitiveWordsFilter@@QAEXPBDPADH@Z 00454330 f   SensitiveWordsFilter.obj
 0001:000533a0       ?FinishAdd@CSensitiveWordsFilter@@QAEXXZ 004543a0 f   SensitiveWordsFilter.obj
 0001:000533d0       ?GetAt@?$CWHArray@PBDABQBD@@QAEAAPBDH@Z 004543d0 f i SensitiveWordsFilter.obj
 0001:00053450       ?GetCount@?$CWHArray@PBDABQBD@@QBEHXZ 00454450 f i SensitiveWordsFilter.obj
 0001:00053470       ?RemoveAll@?$CWHArray@PBDABQBD@@QAEXXZ 00454470 f i SensitiveWordsFilter.obj
 0001:000534f0       ?Reset@CFilterTree@@QAEXXZ 004544f0 f   SensitiveWordsFilter.obj
 0001:00053610       ?ResetSensitiveWordArray@CSensitiveWordsFilter@@QAEXXZ 00454610 f   SensitiveWordsFilter.obj
 0001:00053640       ?SetAtGrow@?$CWHArray@PBDABQBD@@QAEXHABQBD@Z 00454640 f i SensitiveWordsFilter.obj
 0001:000536d0       ?SetSize@?$CWHArray@PBDABQBD@@QAEXH@Z 004546d0 f i SensitiveWordsFilter.obj
 0001:000537f0       ?_Adjust_manually_vector_aligned@std@@YAXAAPAXAAI@Z 004547f0 f i SensitiveWordsFilter.obj
 0001:00053960       ?_Adopt@_Iterator_base12@std@@QAEXPBU_Container_base12@2@@Z 00454960 f i SensitiveWordsFilter.obj
 0001:00053a40       ?_Alloc_proxy@?$_Vector_alloc@U?$_Vec_base_types@PAVCToken@@V?$allocator@PAVCToken@@@std@@@std@@@std@@QAEXXZ 00454a40 f i SensitiveWordsFilter.obj
 0001:00053af0       ?_Allocate@_Default_allocate_traits@std@@SAPAXI@Z 00454af0 f i SensitiveWordsFilter.obj
 0001:00053b20       ?_Calculate_growth@?$vector@PAVCToken@@V?$allocator@PAVCToken@@@std@@@std@@ABEII@Z 00454b20 f i SensitiveWordsFilter.obj
 0001:00053b90       ?_Change_array@?$vector@PAVCToken@@V?$allocator@PAVCToken@@@std@@@std@@AAEXQAPAVCToken@@II@Z 00454b90 f i SensitiveWordsFilter.obj
 0001:00053c60       ?_Clrcont@_Iterator_base12@std@@QAEXXZ 00454c60 f i SensitiveWordsFilter.obj
 0001:00053c90       ?_Compat@?$_Vector_const_iterator@V?$_Vector_val@U?$_Simple_types@PAVCToken@@@std@@@std@@@std@@QBEXABV12@@Z 00454c90 f i SensitiveWordsFilter.obj
 0001:00053d30       ?_Destroy@?$vector@PAVCToken@@V?$allocator@PAVCToken@@@std@@@std@@AAEXPAPAVCToken@@0@Z 00454d30 f i SensitiveWordsFilter.obj
 0001:00053d70       ?_Get_data@?$_Vector_alloc@U?$_Vec_base_types@PAVCToken@@V?$allocator@PAVCToken@@@std@@@std@@@std@@QAEAAV?$_Vector_val@U?$_Simple_types@PAVCToken@@@std@@@2@XZ 00454d70 f i SensitiveWordsFilter.obj
 0001:00053da0       ?_Get_data@?$_Vector_alloc@U?$_Vec_base_types@PAVCToken@@V?$allocator@PAVCToken@@@std@@@std@@@std@@QBEABV?$_Vector_val@U?$_Simple_types@PAVCToken@@@std@@@2@XZ 00454da0 f i SensitiveWordsFilter.obj
 0001:00053dd0       ?_Get_first@?$_Compressed_pair@V?$allocator@PAVCToken@@@std@@V?$_Vector_val@U?$_Simple_types@PAVCToken@@@std@@@2@$00@std@@QAEAAV?$allocator@PAVCToken@@@2@XZ 00454dd0 f i SensitiveWordsFilter.obj
 0001:00053df0       ?_Get_first@?$_Compressed_pair@V?$allocator@PAVCToken@@@std@@V?$_Vector_val@U?$_Simple_types@PAVCToken@@@std@@@2@$00@std@@QBEABV?$allocator@PAVCToken@@@2@XZ 00454df0 f i SensitiveWordsFilter.obj
 0001:00053e10       ?_Get_second@?$_Compressed_pair@V?$allocator@PAVCToken@@@std@@V?$_Vector_val@U?$_Simple_types@PAVCToken@@@std@@@2@$00@std@@QAEAAV?$_Vector_val@U?$_Simple_types@PAVCToken@@@std@@@2@XZ 00454e10 f i SensitiveWordsFilter.obj
 0001:00053e30       ?_Get_second@?$_Compressed_pair@V?$allocator@PAVCToken@@@std@@V?$_Vector_val@U?$_Simple_types@PAVCToken@@@std@@@2@$00@std@@QBEABV?$_Vector_val@U?$_Simple_types@PAVCToken@@@std@@@2@XZ 00454e30 f i SensitiveWordsFilter.obj
 0001:00053e50       ?_Getal@?$_Vector_alloc@U?$_Vec_base_types@PAVCToken@@V?$allocator@PAVCToken@@@std@@@std@@@std@@QAEAAV?$allocator@PAVCToken@@@2@XZ 00454e50 f i SensitiveWordsFilter.obj
 0001:00053e80       ?_Getal@?$_Vector_alloc@U?$_Vec_base_types@PAVCToken@@V?$allocator@PAVCToken@@@std@@@std@@@std@@QBEABV?$allocator@PAVCToken@@@2@XZ 00454e80 f i SensitiveWordsFilter.obj
 0001:00053eb0       ?_Getcont@_Iterator_base12@std@@QBEPBU_Container_base12@2@XZ 00454eb0 f i SensitiveWordsFilter.obj
 0001:00053ef0       ?_Getpfirst@?$_Vector_alloc@U?$_Vec_base_types@PAVCToken@@V?$allocator@PAVCToken@@@std@@@std@@@std@@QBEPAPAU_Iterator_base12@2@XZ 00454ef0 f i SensitiveWordsFilter.obj
 0001:00053f20       ?_Getpfirst@_Container_base12@std@@QBEPAPAU_Iterator_base12@2@XZ 00454f20 f i SensitiveWordsFilter.obj
 0001:00053f60       ?_Getpnext@_Iterator_base12@std@@QAEPAPAU12@XZ 00454f60 f i SensitiveWordsFilter.obj
 0001:00053f80       ?_Has_unused_capacity@?$vector@PAVCToken@@V?$allocator@PAVCToken@@@std@@@std@@ABE_NXZ 00454f80 f i SensitiveWordsFilter.obj
 0001:00053fd0       ?_Myend@?$_Vector_alloc@U?$_Vec_base_types@PAVCToken@@V?$allocator@PAVCToken@@@std@@@std@@@std@@QAEAAPAPAVCToken@@XZ 00454fd0 f i SensitiveWordsFilter.obj
 0001:00054000       ?_Myend@?$_Vector_alloc@U?$_Vec_base_types@PAVCToken@@V?$allocator@PAVCToken@@@std@@@std@@@std@@QBEABQAPAVCToken@@XZ 00455000 f i SensitiveWordsFilter.obj
 0001:00054030       ?_Myfirst@?$_Vector_alloc@U?$_Vec_base_types@PAVCToken@@V?$allocator@PAVCToken@@@std@@@std@@@std@@QAEAAPAPAVCToken@@XZ 00455030 f i SensitiveWordsFilter.obj
 0001:00054060       ?_Myfirst@?$_Vector_alloc@U?$_Vec_base_types@PAVCToken@@V?$allocator@PAVCToken@@@std@@@std@@@std@@QBEABQAPAVCToken@@XZ 00455060 f i SensitiveWordsFilter.obj
 0001:00054090       ?_Mylast@?$_Vector_alloc@U?$_Vec_base_types@PAVCToken@@V?$allocator@PAVCToken@@@std@@@std@@@std@@QAEAAPAPAVCToken@@XZ 00455090 f i SensitiveWordsFilter.obj
 0001:000540c0       ?_Mylast@?$_Vector_alloc@U?$_Vec_base_types@PAVCToken@@V?$allocator@PAVCToken@@@std@@@std@@@std@@QBEABQAPAVCToken@@XZ 004550c0 f i SensitiveWordsFilter.obj
 0001:000540f0       ?_Myproxy@?$_Vector_alloc@U?$_Vec_base_types@PAVCToken@@V?$allocator@PAVCToken@@@std@@@std@@@std@@QAEAAPAU_Container_proxy@2@XZ 004550f0 f i SensitiveWordsFilter.obj
 0001:00054120       ?_Orphan_all@?$_Vector_alloc@U?$_Vec_base_types@PAVCToken@@V?$allocator@PAVCToken@@@std@@@std@@@std@@QAEXXZ 00455120 f i SensitiveWordsFilter.obj
 0001:00054150       ?_Orphan_all@_Container_base12@std@@QAEXXZ 00455150 f i SensitiveWordsFilter.obj
 0001:00054210       ?_Orphan_me@_Iterator_base12@std@@QAEXXZ 00455210 f i SensitiveWordsFilter.obj
 0001:00054300       ?_Orphan_range@?$vector@PAVCToken@@V?$allocator@PAVCToken@@@std@@@std@@ABEXPAPAVCToken@@0@Z 00455300 f i SensitiveWordsFilter.obj
 0001:000543f0       ?_Umove@?$vector@PAVCToken@@V?$allocator@PAVCToken@@@std@@@std@@AAEPAPAVCToken@@PAPAV3@00@Z 004553f0 f i SensitiveWordsFilter.obj
 0001:00054430       ?_Umove_if_noexcept1@?$vector@PAVCToken@@V?$allocator@PAVCToken@@@std@@@std@@AAEXPAPAVCToken@@00U?$integral_constant@_N$00@2@@Z 00455430 f i SensitiveWordsFilter.obj
 0001:00054470       ?_Umove_if_noexcept@?$vector@PAVCToken@@V?$allocator@PAVCToken@@@std@@@std@@AAEXPAPAVCToken@@00@Z 00455470 f i SensitiveWordsFilter.obj
 0001:000544b0       ?_Xlength@?$vector@PAVCToken@@V?$allocator@PAVCToken@@@std@@@std@@CAXXZ 004554b0 f i SensitiveWordsFilter.obj
 0001:000544d0       ?addChild@CToken@@QAEPAV1@GAATcharacter@@@Z 004554d0 f   SensitiveWordsFilter.obj
 0001:00054540       ?allocate@?$allocator@PAVCToken@@@std@@QAEPAPAVCToken@@I@Z 00455540 f i SensitiveWordsFilter.obj
 0001:00054580       ?allocate@?$allocator@U_Container_proxy@std@@@std@@QAEPAU_Container_proxy@2@I@Z 00455580 f i SensitiveWordsFilter.obj
 0001:000545c0       ?begin@?$vector@PAVCToken@@V?$allocator@PAVCToken@@@std@@@std@@QAE?AV?$_Vector_iterator@V?$_Vector_val@U?$_Simple_types@PAVCToken@@@std@@@std@@@2@XZ 004555c0 f i SensitiveWordsFilter.obj
 0001:00054640       ?capacity@?$vector@PAVCToken@@V?$allocator@PAVCToken@@@std@@@std@@QBEIXZ 00455640 f i SensitiveWordsFilter.obj
 0001:00054680       ?deallocate@?$allocator@PAVCToken@@@std@@QAEXQAPAVCToken@@I@Z 00455680 f i SensitiveWordsFilter.obj
 0001:000546c0       ?end@?$vector@PAVCToken@@V?$allocator@PAVCToken@@@std@@@std@@QAE?AV?$_Vector_iterator@V?$_Vector_val@U?$_Simple_types@PAVCToken@@@std@@@std@@@2@XZ 004556c0 f i SensitiveWordsFilter.obj
 0001:00054740       ?getChild@CToken@@QAEPAVtokenArray@@AATcharacter@@@Z 00455740 f   SensitiveWordsFilter.obj
 0001:00054790       ?getCode@CToken@@QAEGXZ    00455790 f i SensitiveWordsFilter.obj
 0001:000547b0       ?getToken@tokenArray@@QAEPAVCToken@@G@Z 004557b0 f   SensitiveWordsFilter.obj
 0001:000548e0       ?insertToken@tokenArray@@QAEPAVCToken@@GAATcharacter@@@Z 004558e0 f   SensitiveWordsFilter.obj
 0001:00054b30       ?isChinese@CToken@@SAHPATcharacter@@@Z 00455b30 f   SensitiveWordsFilter.obj
 0001:00054b80       ?isChinese@CToken@@SAHPBDHH@Z 00455b80 f   SensitiveWordsFilter.obj
 0001:00054c10       ?max@?$numeric_limits@H@std@@SAHXZ 00455c10 f i SensitiveWordsFilter.obj
 0001:00054c30       ?max_size@?$_Default_allocator_traits@V?$allocator@PAVCToken@@@std@@@std@@SAIABV?$allocator@PAVCToken@@@2@@Z 00455c30 f i SensitiveWordsFilter.obj
 0001:00054c50       ?max_size@?$vector@PAVCToken@@V?$allocator@PAVCToken@@@std@@@std@@QBEIXZ 00455c50 f i SensitiveWordsFilter.obj
 0001:00054cb0       ?push_back@?$vector@PAVCToken@@V?$allocator@PAVCToken@@@std@@@std@@QAEXABQAVCToken@@@Z 00455cb0 f i SensitiveWordsFilter.obj
 0001:00054ce0       ?size@?$vector@PAVCToken@@V?$allocator@PAVCToken@@@std@@@std@@QBEIXZ 00455ce0 f i SensitiveWordsFilter.obj
 0001:00054d20       ??$CompareElements@GG@@YGHPBG0@Z 00455d20 f i ServerListManager.obj
 0001:00054e20       ??$DumpElements@G@@YGXAAVCDumpContext@@PBGH@Z 00455e20 f i ServerListManager.obj
 0001:00054ed0       ??$DumpElements@PAVCGameKindItem@NServerListManager@@@@YGXAAVCDumpContext@@PBQAVCGameKindItem@NServerListManager@@H@Z 00455ed0 f i ServerListManager.obj
 0001:00054f80       ??$DumpElements@PAVCGameNodeItem@NServerListManager@@@@YGXAAVCDumpContext@@PBQAVCGameNodeItem@NServerListManager@@H@Z 00455f80 f i ServerListManager.obj
 0001:00055030       ??$DumpElements@PAVCGamePageItem@NServerListManager@@@@YGXAAVCDumpContext@@PBQAVCGamePageItem@NServerListManager@@H@Z 00456030 f i ServerListManager.obj
 0001:000550e0       ??$DumpElements@PAVCGameServerItem@NServerListManager@@@@YGXAAVCDumpContext@@PBQAVCGameServerItem@NServerListManager@@H@Z 004560e0 f i ServerListManager.obj
 0001:00055190       ??$DumpElements@PAVCGameTypeItem@NServerListManager@@@@YGXAAVCDumpContext@@PBQAVCGameTypeItem@NServerListManager@@H@Z 00456190 f i ServerListManager.obj
 0001:00055240       ??$HashKey@G@@YGIG@Z       00456240 f i ServerListManager.obj
 0001:000552b0       ??$SerializeElements@G@@YGXAAVCArchive@@PAGH@Z 004562b0 f i ServerListManager.obj
 0001:00055450       ??$SerializeElements@PAVCGameKindItem@NServerListManager@@@@YGXAAVCArchive@@PAPAVCGameKindItem@NServerListManager@@H@Z 00456450 f i ServerListManager.obj
 0001:000555f0       ??$SerializeElements@PAVCGameNodeItem@NServerListManager@@@@YGXAAVCArchive@@PAPAVCGameNodeItem@NServerListManager@@H@Z 004565f0 f i ServerListManager.obj
 0001:00055790       ??$SerializeElements@PAVCGamePageItem@NServerListManager@@@@YGXAAVCArchive@@PAPAVCGamePageItem@NServerListManager@@H@Z 00456790 f i ServerListManager.obj
 0001:00055930       ??$SerializeElements@PAVCGameServerItem@NServerListManager@@@@YGXAAVCArchive@@PAPAVCGameServerItem@NServerListManager@@H@Z 00456930 f i ServerListManager.obj
 0001:00055ad0       ??$SerializeElements@PAVCGameTypeItem@NServerListManager@@@@YGXAAVCArchive@@PAPAVCGameTypeItem@NServerListManager@@H@Z 00456ad0 f i ServerListManager.obj
 0001:00055c70       ??0?$CMap@GGPAVCGameKindItem@NServerListManager@@AAPAV12@@@QAE@H@Z 00456c70 f i ServerListManager.obj
 0001:00055d60       ??0?$CMap@GGPAVCGameNodeItem@NServerListManager@@AAPAV12@@@QAE@H@Z 00456d60 f i ServerListManager.obj
 0001:00055e50       ??0?$CMap@GGPAVCGamePageItem@NServerListManager@@AAPAV12@@@QAE@H@Z 00456e50 f i ServerListManager.obj
 0001:00055f40       ??0?$CMap@GGPAVCGameServerItem@NServerListManager@@AAPAV12@@@QAE@H@Z 00456f40 f i ServerListManager.obj
 0001:00056030       ??0?$CMap@GGPAVCGameTypeItem@NServerListManager@@AAPAV12@@@QAE@H@Z 00457030 f i ServerListManager.obj
 0001:00056120       ??0?$CWHArray@PAVCGameKindItem@NServerListManager@@ABQAV12@@@QAE@XZ 00457120 f i ServerListManager.obj
 0001:00056180       ??0?$CWHArray@PAVCGameNodeItem@NServerListManager@@ABQAV12@@@QAE@XZ 00457180 f i ServerListManager.obj
 0001:000561e0       ??0?$CWHArray@PAVCGamePageItem@NServerListManager@@ABQAV12@@@QAE@XZ 004571e0 f i ServerListManager.obj
 0001:00056240       ??0?$CWHArray@PAVCGameServerItem@NServerListManager@@ABQAV12@@@QAE@XZ 00457240 f i ServerListManager.obj
 0001:000562a0       ??0?$CWHArray@PAVCGameTypeItem@NServerListManager@@ABQAV12@@@QAE@XZ 004572a0 f i ServerListManager.obj
 0001:00056300       ??0CAssoc@?$CMap@GGPAVCGameKindItem@NServerListManager@@AAPAV12@@@QAE@G@Z 00457300 f i ServerListManager.obj
 0001:00056330       ??0CAssoc@?$CMap@GGPAVCGameNodeItem@NServerListManager@@AAPAV12@@@QAE@G@Z 00457330 f i ServerListManager.obj
 0001:00056360       ??0CAssoc@?$CMap@GGPAVCGamePageItem@NServerListManager@@AAPAV12@@@QAE@G@Z 00457360 f i ServerListManager.obj
 0001:00056390       ??0CAssoc@?$CMap@GGPAVCGameServerItem@NServerListManager@@AAPAV12@@@QAE@G@Z 00457390 f i ServerListManager.obj
 0001:000563c0       ??0CAssoc@?$CMap@GGPAVCGameTypeItem@NServerListManager@@AAPAV12@@@QAE@G@Z 004573c0 f i ServerListManager.obj
 0001:000563f0       ??0CGameKindItem@NServerListManager@@QAE@XZ 004573f0 f   ServerListManager.obj
 0001:00056430       ??0CGameListItem@NServerListManager@@IAE@XZ 00457430 f i ServerListManager.obj
 0001:00056460       ??0CGameNodeItem@NServerListManager@@QAE@XZ 00457460 f   ServerListManager.obj
 0001:000564a0       ??0CGamePageItem@NServerListManager@@QAE@XZ 004574a0 f   ServerListManager.obj
 0001:000564e0       ??0CGameServerItem@NServerListManager@@QAE@XZ 004574e0 f   ServerListManager.obj
 0001:00056530       ??0CGameTypeItem@NServerListManager@@QAE@XZ 00457530 f   ServerListManager.obj
 0001:00056570       ??0CPair@?$CMap@GGPAVCGameKindItem@NServerListManager@@AAPAV12@@@IAE@G@Z 00457570 f i ServerListManager.obj
 0001:000565a0       ??0CPair@?$CMap@GGPAVCGameNodeItem@NServerListManager@@AAPAV12@@@IAE@G@Z 004575a0 f i ServerListManager.obj
 0001:000565d0       ??0CPair@?$CMap@GGPAVCGamePageItem@NServerListManager@@AAPAV12@@@IAE@G@Z 004575d0 f i ServerListManager.obj
 0001:00056600       ??0CPair@?$CMap@GGPAVCGameServerItem@NServerListManager@@AAPAV12@@@IAE@G@Z 00457600 f i ServerListManager.obj
 0001:00056630       ??0CPair@?$CMap@GGPAVCGameTypeItem@NServerListManager@@AAPAV12@@@IAE@G@Z 00457630 f i ServerListManager.obj
 0001:00056660       ??0CServerListManager@NServerListManager@@QAE@XZ 00457660 f   ServerListManager.obj
 0001:00056810       ??1?$CMap@GGPAVCGameKindItem@NServerListManager@@AAPAV12@@@UAE@XZ 00457810 f i ServerListManager.obj
 0001:000568a0       ??1?$CMap@GGPAVCGameNodeItem@NServerListManager@@AAPAV12@@@UAE@XZ 004578a0 f i ServerListManager.obj
 0001:00056930       ??1?$CMap@GGPAVCGamePageItem@NServerListManager@@AAPAV12@@@UAE@XZ 00457930 f i ServerListManager.obj
 0001:000569c0       ??1?$CMap@GGPAVCGameServerItem@NServerListManager@@AAPAV12@@@UAE@XZ 004579c0 f i ServerListManager.obj
 0001:00056a50       ??1?$CMap@GGPAVCGameTypeItem@NServerListManager@@AAPAV12@@@UAE@XZ 00457a50 f i ServerListManager.obj
 0001:00056ae0       ??1?$CWHArray@PAVCGameKindItem@NServerListManager@@ABQAV12@@@UAE@XZ 00457ae0 f i ServerListManager.obj
 0001:00056b60       ??1?$CWHArray@PAVCGameNodeItem@NServerListManager@@ABQAV12@@@UAE@XZ 00457b60 f i ServerListManager.obj
 0001:00056be0       ??1?$CWHArray@PAVCGamePageItem@NServerListManager@@ABQAV12@@@UAE@XZ 00457be0 f i ServerListManager.obj
 0001:00056c60       ??1?$CWHArray@PAVCGameServerItem@NServerListManager@@ABQAV12@@@UAE@XZ 00457c60 f i ServerListManager.obj
 0001:00056ce0       ??1?$CWHArray@PAVCGameTypeItem@NServerListManager@@ABQAV12@@@UAE@XZ 00457ce0 f i ServerListManager.obj
 0001:00056d60       ??1CServerListManager@NServerListManager@@UAE@XZ 00457d60 f   ServerListManager.obj
 0001:00057690       ??A?$CMap@GGPAVCGameKindItem@NServerListManager@@AAPAV12@@@QAEAAPAVCGameKindItem@NServerListManager@@G@Z 00458690 f i ServerListManager.obj
 0001:000577c0       ??A?$CMap@GGPAVCGameNodeItem@NServerListManager@@AAPAV12@@@QAEAAPAVCGameNodeItem@NServerListManager@@G@Z 004587c0 f i ServerListManager.obj
 0001:000578f0       ??A?$CMap@GGPAVCGamePageItem@NServerListManager@@AAPAV12@@@QAEAAPAVCGamePageItem@NServerListManager@@G@Z 004588f0 f i ServerListManager.obj
 0001:00057a20       ??A?$CMap@GGPAVCGameServerItem@NServerListManager@@AAPAV12@@@QAEAAPAVCGameServerItem@NServerListManager@@G@Z 00458a20 f i ServerListManager.obj
 0001:00057b50       ??A?$CMap@GGPAVCGameTypeItem@NServerListManager@@AAPAV12@@@QAEAAPAVCGameTypeItem@NServerListManager@@G@Z 00458b50 f i ServerListManager.obj
 0001:00057c80       ??A?$CWHArray@PAVCGameKindItem@NServerListManager@@ABQAV12@@@QAEAAPAVCGameKindItem@NServerListManager@@H@Z 00458c80 f i ServerListManager.obj
 0001:00057cb0       ??A?$CWHArray@PAVCGameNodeItem@NServerListManager@@ABQAV12@@@QAEAAPAVCGameNodeItem@NServerListManager@@H@Z 00458cb0 f i ServerListManager.obj
 0001:00057ce0       ??A?$CWHArray@PAVCGamePageItem@NServerListManager@@ABQAV12@@@QAEAAPAVCGamePageItem@NServerListManager@@H@Z 00458ce0 f i ServerListManager.obj
 0001:00057d10       ??A?$CWHArray@PAVCGameServerItem@NServerListManager@@ABQAV12@@@QAEAAPAVCGameServerItem@NServerListManager@@H@Z 00458d10 f i ServerListManager.obj
 0001:00057d40       ??A?$CWHArray@PAVCGameTypeItem@NServerListManager@@ABQAV12@@@QAEAAPAVCGameTypeItem@NServerListManager@@H@Z 00458d40 f i ServerListManager.obj
 0001:00057d70       ??_G?$CMap@GGPAVCGameKindItem@NServerListManager@@AAPAV12@@@UAEPAXI@Z 00458d70 f i ServerListManager.obj
 0001:00057d70       ??_E?$CMap@GGPAVCGameKindItem@NServerListManager@@AAPAV12@@@UAEPAXI@Z 00458d70 f i ServerListManager.obj
 0001:00057dd0       ??_G?$CMap@GGPAVCGameNodeItem@NServerListManager@@AAPAV12@@@UAEPAXI@Z 00458dd0 f i ServerListManager.obj
 0001:00057dd0       ??_E?$CMap@GGPAVCGameNodeItem@NServerListManager@@AAPAV12@@@UAEPAXI@Z 00458dd0 f i ServerListManager.obj
 0001:00057e30       ??_G?$CMap@GGPAVCGamePageItem@NServerListManager@@AAPAV12@@@UAEPAXI@Z 00458e30 f i ServerListManager.obj
 0001:00057e30       ??_E?$CMap@GGPAVCGamePageItem@NServerListManager@@AAPAV12@@@UAEPAXI@Z 00458e30 f i ServerListManager.obj
 0001:00057e90       ??_G?$CMap@GGPAVCGameServerItem@NServerListManager@@AAPAV12@@@UAEPAXI@Z 00458e90 f i ServerListManager.obj
 0001:00057e90       ??_E?$CMap@GGPAVCGameServerItem@NServerListManager@@AAPAV12@@@UAEPAXI@Z 00458e90 f i ServerListManager.obj
 0001:00057ef0       ??_G?$CMap@GGPAVCGameTypeItem@NServerListManager@@AAPAV12@@@UAEPAXI@Z 00458ef0 f i ServerListManager.obj
 0001:00057ef0       ??_E?$CMap@GGPAVCGameTypeItem@NServerListManager@@AAPAV12@@@UAEPAXI@Z 00458ef0 f i ServerListManager.obj
 0001:00057f50       ??_G?$CWHArray@PAVCGameKindItem@NServerListManager@@ABQAV12@@@UAEPAXI@Z 00458f50 f i ServerListManager.obj
 0001:00057f50       ??_E?$CWHArray@PAVCGameKindItem@NServerListManager@@ABQAV12@@@UAEPAXI@Z 00458f50 f i ServerListManager.obj
 0001:00057fa0       ??_E?$CWHArray@PAVCGameNodeItem@NServerListManager@@ABQAV12@@@UAEPAXI@Z 00458fa0 f i ServerListManager.obj
 0001:00057fa0       ??_G?$CWHArray@PAVCGameNodeItem@NServerListManager@@ABQAV12@@@UAEPAXI@Z 00458fa0 f i ServerListManager.obj
 0001:00057ff0       ??_G?$CWHArray@PAVCGamePageItem@NServerListManager@@ABQAV12@@@UAEPAXI@Z 00458ff0 f i ServerListManager.obj
 0001:00057ff0       ??_E?$CWHArray@PAVCGamePageItem@NServerListManager@@ABQAV12@@@UAEPAXI@Z 00458ff0 f i ServerListManager.obj
 0001:00058040       ??_E?$CWHArray@PAVCGameServerItem@NServerListManager@@ABQAV12@@@UAEPAXI@Z 00459040 f i ServerListManager.obj
 0001:00058040       ??_G?$CWHArray@PAVCGameServerItem@NServerListManager@@ABQAV12@@@UAEPAXI@Z 00459040 f i ServerListManager.obj
 0001:00058090       ??_E?$CWHArray@PAVCGameTypeItem@NServerListManager@@ABQAV12@@@UAEPAXI@Z 00459090 f i ServerListManager.obj
 0001:00058090       ??_G?$CWHArray@PAVCGameTypeItem@NServerListManager@@ABQAV12@@@UAEPAXI@Z 00459090 f i ServerListManager.obj
 0001:000580e0       ??_ECServerListManager@NServerListManager@@UAEPAXI@Z 004590e0 f i ServerListManager.obj
 0001:000580e0       ??_GCServerListManager@NServerListManager@@UAEPAXI@Z 004590e0 f i ServerListManager.obj
 0001:00058130       ?Add@?$CWHArray@PAVCGameKindItem@NServerListManager@@ABQAV12@@@QAEHABQAVCGameKindItem@NServerListManager@@@Z 00459130 f i ServerListManager.obj
 0001:00058170       ?Add@?$CWHArray@PAVCGameNodeItem@NServerListManager@@ABQAV12@@@QAEHABQAVCGameNodeItem@NServerListManager@@@Z 00459170 f i ServerListManager.obj
 0001:000581b0       ?Add@?$CWHArray@PAVCGamePageItem@NServerListManager@@ABQAV12@@@QAEHABQAVCGamePageItem@NServerListManager@@@Z 004591b0 f i ServerListManager.obj
 0001:000581f0       ?Add@?$CWHArray@PAVCGameServerItem@NServerListManager@@ABQAV12@@@QAEHABQAVCGameServerItem@NServerListManager@@@Z 004591f0 f i ServerListManager.obj
 0001:00058230       ?Add@?$CWHArray@PAVCGameTypeItem@NServerListManager@@ABQAV12@@@QAEHABQAVCGameTypeItem@NServerListManager@@@Z 00459230 f i ServerListManager.obj
 0001:00058270       ?AllocMemory@?$CWHArray@PAVCGameKindItem@NServerListManager@@ABQAV12@@@QAEXH@Z 00459270 f i ServerListManager.obj
 0001:000583e0       ?AllocMemory@?$CWHArray@PAVCGameNodeItem@NServerListManager@@ABQAV12@@@QAEXH@Z 004593e0 f i ServerListManager.obj
 0001:00058550       ?AllocMemory@?$CWHArray@PAVCGamePageItem@NServerListManager@@ABQAV12@@@QAEXH@Z 00459550 f i ServerListManager.obj
 0001:000586c0       ?AllocMemory@?$CWHArray@PAVCGameServerItem@NServerListManager@@ABQAV12@@@QAEXH@Z 004596c0 f i ServerListManager.obj
 0001:00058830       ?AllocMemory@?$CWHArray@PAVCGameTypeItem@NServerListManager@@ABQAV12@@@QAEXH@Z 00459830 f i ServerListManager.obj
 0001:000589a0       ?AssertValid@?$CMap@GGPAVCGameKindItem@NServerListManager@@AAPAV12@@@UBEXXZ 004599a0 f i ServerListManager.obj
 0001:00058a20       ?AssertValid@?$CMap@GGPAVCGameNodeItem@NServerListManager@@AAPAV12@@@UBEXXZ 00459a20 f i ServerListManager.obj
 0001:00058aa0       ?AssertValid@?$CMap@GGPAVCGamePageItem@NServerListManager@@AAPAV12@@@UBEXXZ 00459aa0 f i ServerListManager.obj
 0001:00058b20       ?AssertValid@?$CMap@GGPAVCGameServerItem@NServerListManager@@AAPAV12@@@UBEXXZ 00459b20 f i ServerListManager.obj
 0001:00058ba0       ?AssertValid@?$CMap@GGPAVCGameTypeItem@NServerListManager@@AAPAV12@@@UBEXXZ 00459ba0 f i ServerListManager.obj
 0001:00058c20       ?CleanKernelItem@CServerListManager@NServerListManager@@QAEXXZ 00459c20 f   ServerListManager.obj
 0001:00058e40       ?CleanServerItem@CServerListManager@NServerListManager@@QAEXXZ 00459e40 f   ServerListManager.obj
 0001:00058f50       ?CollectOnlineInfo@CServerListManager@NServerListManager@@QAEKG@Z 00459f50 f   ServerListManager.obj
 0001:00058ff0       ?CollectOnlineInfo@CServerListManager@NServerListManager@@QAEKXZ 00459ff0 f   ServerListManager.obj
 0001:00059080       ?DeleteGameKind@CServerListManager@NServerListManager@@QAE_NG@Z 0045a080 f   ServerListManager.obj
 0001:00059110       ?DeleteGameNode@CServerListManager@NServerListManager@@QAE_NG@Z 0045a110 f   ServerListManager.obj
 0001:000591a0       ?DeleteGamePage@CServerListManager@NServerListManager@@QAE_NG@Z 0045a1a0 f   ServerListManager.obj
 0001:00059230       ?DeleteGameServer@CServerListManager@NServerListManager@@QAE_NG@Z 0045a230 f   ServerListManager.obj
 0001:00059310       ?DeleteGameType@CServerListManager@NServerListManager@@QAE_NG@Z 0045a310 f   ServerListManager.obj
 0001:00059390       ?DisuseKernelItem@CServerListManager@NServerListManager@@QAEXXZ 0045a390 f   ServerListManager.obj
 0001:000594e0       ?DisuseServerItem@CServerListManager@NServerListManager@@QAEXXZ 0045a4e0 f   ServerListManager.obj
 0001:00059550       ?Dump@?$CMap@GGPAVCGameKindItem@NServerListManager@@AAPAV12@@@UBEXAAVCDumpContext@@@Z 0045a550 f i ServerListManager.obj
 0001:00059660       ?Dump@?$CMap@GGPAVCGameNodeItem@NServerListManager@@AAPAV12@@@UBEXAAVCDumpContext@@@Z 0045a660 f i ServerListManager.obj
 0001:00059770       ?Dump@?$CMap@GGPAVCGamePageItem@NServerListManager@@AAPAV12@@@UBEXAAVCDumpContext@@@Z 0045a770 f i ServerListManager.obj
 0001:00059880       ?Dump@?$CMap@GGPAVCGameServerItem@NServerListManager@@AAPAV12@@@UBEXAAVCDumpContext@@@Z 0045a880 f i ServerListManager.obj
 0001:00059990       ?Dump@?$CMap@GGPAVCGameTypeItem@NServerListManager@@AAPAV12@@@UBEXAAVCDumpContext@@@Z 0045a990 f i ServerListManager.obj
 0001:00059aa0       ?ElementAt@?$CWHArray@PAVCGameKindItem@NServerListManager@@ABQAV12@@@QAEAAPAVCGameKindItem@NServerListManager@@H@Z 0045aaa0 f i ServerListManager.obj
 0001:00059b20       ?ElementAt@?$CWHArray@PAVCGameNodeItem@NServerListManager@@ABQAV12@@@QAEAAPAVCGameNodeItem@NServerListManager@@H@Z 0045ab20 f i ServerListManager.obj
 0001:00059ba0       ?ElementAt@?$CWHArray@PAVCGamePageItem@NServerListManager@@ABQAV12@@@QAEAAPAVCGamePageItem@NServerListManager@@H@Z 0045aba0 f i ServerListManager.obj
 0001:00059c20       ?ElementAt@?$CWHArray@PAVCGameServerItem@NServerListManager@@ABQAV12@@@QAEAAPAVCGameServerItem@NServerListManager@@H@Z 0045ac20 f i ServerListManager.obj
 0001:00059ca0       ?ElementAt@?$CWHArray@PAVCGameTypeItem@NServerListManager@@ABQAV12@@@QAEAAPAVCGameTypeItem@NServerListManager@@H@Z 0045aca0 f i ServerListManager.obj
 0001:00059d20       ?EmunGameKindItem@CServerListManager@NServerListManager@@QAEPAVCGameKindItem@2@AAPAU__POSITION@@@Z 0045ad20 f   ServerListManager.obj
 0001:00059da0       ?EmunGameNodeItem@CServerListManager@NServerListManager@@QAEPAVCGameNodeItem@2@AAPAU__POSITION@@@Z 0045ada0 f   ServerListManager.obj
 0001:00059e20       ?EmunGamePageItem@CServerListManager@NServerListManager@@QAEPAVCGamePageItem@2@AAPAU__POSITION@@@Z 0045ae20 f   ServerListManager.obj
 0001:00059ea0       ?EmunGameServerItem@CServerListManager@NServerListManager@@QAEPAVCGameServerItem@2@AAPAU__POSITION@@@Z 0045aea0 f   ServerListManager.obj
 0001:00059f20       ?EmunGameTypeItem@CServerListManager@NServerListManager@@QAEPAVCGameTypeItem@2@AAPAU__POSITION@@@Z 0045af20 f   ServerListManager.obj
 0001:00059fa0       ?FreeAssoc@?$CMap@GGPAVCGameKindItem@NServerListManager@@AAPAV12@@@IAEXPAVCAssoc@1@@Z 0045afa0 f i ServerListManager.obj
 0001:0005a020       ?FreeAssoc@?$CMap@GGPAVCGameNodeItem@NServerListManager@@AAPAV12@@@IAEXPAVCAssoc@1@@Z 0045b020 f i ServerListManager.obj
 0001:0005a0a0       ?FreeAssoc@?$CMap@GGPAVCGamePageItem@NServerListManager@@AAPAV12@@@IAEXPAVCAssoc@1@@Z 0045b0a0 f i ServerListManager.obj
 0001:0005a120       ?FreeAssoc@?$CMap@GGPAVCGameServerItem@NServerListManager@@AAPAV12@@@IAEXPAVCAssoc@1@@Z 0045b120 f i ServerListManager.obj
 0001:0005a1a0       ?FreeAssoc@?$CMap@GGPAVCGameTypeItem@NServerListManager@@AAPAV12@@@IAEXPAVCAssoc@1@@Z 0045b1a0 f i ServerListManager.obj
 0001:0005a220       ?GetAssocAt@?$CMap@GGPAVCGameKindItem@NServerListManager@@AAPAV12@@@IBEPAVCAssoc@1@GAAI0@Z 0045b220 f i ServerListManager.obj
 0001:0005a2d0       ?GetAssocAt@?$CMap@GGPAVCGameNodeItem@NServerListManager@@AAPAV12@@@IBEPAVCAssoc@1@GAAI0@Z 0045b2d0 f i ServerListManager.obj
 0001:0005a380       ?GetAssocAt@?$CMap@GGPAVCGamePageItem@NServerListManager@@AAPAV12@@@IBEPAVCAssoc@1@GAAI0@Z 0045b380 f i ServerListManager.obj
 0001:0005a430       ?GetAssocAt@?$CMap@GGPAVCGameServerItem@NServerListManager@@AAPAV12@@@IBEPAVCAssoc@1@GAAI0@Z 0045b430 f i ServerListManager.obj
 0001:0005a4e0       ?GetAssocAt@?$CMap@GGPAVCGameTypeItem@NServerListManager@@AAPAV12@@@IBEPAVCAssoc@1@GAAI0@Z 0045b4e0 f i ServerListManager.obj
 0001:0005a590       ?GetCount@?$CWHArray@PAVCGameKindItem@NServerListManager@@ABQAV12@@@QBEHXZ 0045b590 f i ServerListManager.obj
 0001:0005a5b0       ?GetCount@?$CWHArray@PAVCGameNodeItem@NServerListManager@@ABQAV12@@@QBEHXZ 0045b5b0 f i ServerListManager.obj
 0001:0005a5d0       ?GetCount@?$CWHArray@PAVCGamePageItem@NServerListManager@@ABQAV12@@@QBEHXZ 0045b5d0 f i ServerListManager.obj
 0001:0005a5f0       ?GetCount@?$CWHArray@PAVCGameServerItem@NServerListManager@@ABQAV12@@@QBEHXZ 0045b5f0 f i ServerListManager.obj
 0001:0005a610       ?GetCount@?$CWHArray@PAVCGameTypeItem@NServerListManager@@ABQAV12@@@QBEHXZ 0045b610 f i ServerListManager.obj
 0001:0005a630       ?GetNextAssoc@?$CMap@GGPAVCGameKindItem@NServerListManager@@AAPAV12@@@QBEXAAPAU__POSITION@@AAGAAPAVCGameKindItem@NServerListManager@@@Z 0045b630 f i ServerListManager.obj
 0001:0005a880       ?GetNextAssoc@?$CMap@GGPAVCGameNodeItem@NServerListManager@@AAPAV12@@@QBEXAAPAU__POSITION@@AAGAAPAVCGameNodeItem@NServerListManager@@@Z 0045b880 f i ServerListManager.obj
 0001:0005aad0       ?GetNextAssoc@?$CMap@GGPAVCGamePageItem@NServerListManager@@AAPAV12@@@QBEXAAPAU__POSITION@@AAGAAPAVCGamePageItem@NServerListManager@@@Z 0045bad0 f i ServerListManager.obj
 0001:0005ad20       ?GetNextAssoc@?$CMap@GGPAVCGameServerItem@NServerListManager@@AAPAV12@@@QBEXAAPAU__POSITION@@AAGAAPAVCGameServerItem@NServerListManager@@@Z 0045bd20 f i ServerListManager.obj
 0001:0005af70       ?GetNextAssoc@?$CMap@GGPAVCGameTypeItem@NServerListManager@@AAPAV12@@@QBEXAAPAU__POSITION@@AAGAAPAVCGameTypeItem@NServerListManager@@@Z 0045bf70 f i ServerListManager.obj
 0001:0005b1c0       ?GetStartPosition@?$CMap@GGPAVCGameKindItem@NServerListManager@@AAPAV12@@@QBEPAU__POSITION@@XZ 0045c1c0 f i ServerListManager.obj
 0001:0005b200       ?GetStartPosition@?$CMap@GGPAVCGameNodeItem@NServerListManager@@AAPAV12@@@QBEPAU__POSITION@@XZ 0045c200 f i ServerListManager.obj
 0001:0005b240       ?GetStartPosition@?$CMap@GGPAVCGamePageItem@NServerListManager@@AAPAV12@@@QBEPAU__POSITION@@XZ 0045c240 f i ServerListManager.obj
 0001:0005b280       ?GetStartPosition@?$CMap@GGPAVCGameServerItem@NServerListManager@@AAPAV12@@@QBEPAU__POSITION@@XZ 0045c280 f i ServerListManager.obj
 0001:0005b2c0       ?GetStartPosition@?$CMap@GGPAVCGameTypeItem@NServerListManager@@AAPAV12@@@QBEPAU__POSITION@@XZ 0045c2c0 f i ServerListManager.obj
 0001:0005b300       ?InitHashTable@?$CMap@GGPAVCGameKindItem@NServerListManager@@AAPAV12@@@QAEXIH@Z 0045c300 f i ServerListManager.obj
 0001:0005b480       ?InitHashTable@?$CMap@GGPAVCGameNodeItem@NServerListManager@@AAPAV12@@@QAEXIH@Z 0045c480 f i ServerListManager.obj
 0001:0005b600       ?InitHashTable@?$CMap@GGPAVCGamePageItem@NServerListManager@@AAPAV12@@@QAEXIH@Z 0045c600 f i ServerListManager.obj
 0001:0005b780       ?InitHashTable@?$CMap@GGPAVCGameServerItem@NServerListManager@@AAPAV12@@@QAEXIH@Z 0045c780 f i ServerListManager.obj
 0001:0005b900       ?InitHashTable@?$CMap@GGPAVCGameTypeItem@NServerListManager@@AAPAV12@@@QAEXIH@Z 0045c900 f i ServerListManager.obj
 0001:0005ba80       ?InsertGameKind@CServerListManager@NServerListManager@@QAE_NPAUtagGameKind@@@Z 0045ca80 f   ServerListManager.obj
 0001:0005bca0       ?InsertGameNode@CServerListManager@NServerListManager@@QAE_NPAUtagGameNode@@@Z 0045cca0 f   ServerListManager.obj
 0001:0005bec0       ?InsertGamePage@CServerListManager@NServerListManager@@QAE_NPAUtagGamePage@@@Z 0045cec0 f   ServerListManager.obj
 0001:0005c0e0       ?InsertGameServer@CServerListManager@NServerListManager@@QAE_NPAUtagGameServer@@@Z 0045d0e0 f   ServerListManager.obj
 0001:0005c4c0       ?InsertGameType@CServerListManager@NServerListManager@@QAE_NPAUtagGameType@@@Z 0045d4c0 f   ServerListManager.obj
 0001:0005c6e0       ?Lookup@?$CMap@GGPAVCGameKindItem@NServerListManager@@AAPAV12@@@QBEHGAAPAVCGameKindItem@NServerListManager@@@Z 0045d6e0 f i ServerListManager.obj
 0001:0005c750       ?Lookup@?$CMap@GGPAVCGameNodeItem@NServerListManager@@AAPAV12@@@QBEHGAAPAVCGameNodeItem@NServerListManager@@@Z 0045d750 f i ServerListManager.obj
 0001:0005c7c0       ?Lookup@?$CMap@GGPAVCGamePageItem@NServerListManager@@AAPAV12@@@QBEHGAAPAVCGamePageItem@NServerListManager@@@Z 0045d7c0 f i ServerListManager.obj
 0001:0005c830       ?Lookup@?$CMap@GGPAVCGameServerItem@NServerListManager@@AAPAV12@@@QBEHGAAPAVCGameServerItem@NServerListManager@@@Z 0045d830 f i ServerListManager.obj
 0001:0005c8a0       ?Lookup@?$CMap@GGPAVCGameTypeItem@NServerListManager@@AAPAV12@@@QBEHGAAPAVCGameTypeItem@NServerListManager@@@Z 0045d8a0 f i ServerListManager.obj
 0001:0005c910       ?NewAssoc@?$CMap@GGPAVCGameKindItem@NServerListManager@@AAPAV12@@@IAEPAVCAssoc@1@G@Z 0045d910 f i ServerListManager.obj
 0001:0005cad0       ?NewAssoc@?$CMap@GGPAVCGameNodeItem@NServerListManager@@AAPAV12@@@IAEPAVCAssoc@1@G@Z 0045dad0 f i ServerListManager.obj
 0001:0005cc90       ?NewAssoc@?$CMap@GGPAVCGamePageItem@NServerListManager@@AAPAV12@@@IAEPAVCAssoc@1@G@Z 0045dc90 f i ServerListManager.obj
 0001:0005ce50       ?NewAssoc@?$CMap@GGPAVCGameServerItem@NServerListManager@@AAPAV12@@@IAEPAVCAssoc@1@G@Z 0045de50 f i ServerListManager.obj
 0001:0005d010       ?NewAssoc@?$CMap@GGPAVCGameTypeItem@NServerListManager@@AAPAV12@@@IAEPAVCAssoc@1@G@Z 0045e010 f i ServerListManager.obj
 0001:0005d1d0       ?RemoveAll@?$CMap@GGPAVCGameKindItem@NServerListManager@@AAPAV12@@@QAEXXZ 0045e1d0 f i ServerListManager.obj
 0001:0005d2c0       ?RemoveAll@?$CMap@GGPAVCGameNodeItem@NServerListManager@@AAPAV12@@@QAEXXZ 0045e2c0 f i ServerListManager.obj
 0001:0005d3b0       ?RemoveAll@?$CMap@GGPAVCGamePageItem@NServerListManager@@AAPAV12@@@QAEXXZ 0045e3b0 f i ServerListManager.obj
 0001:0005d4a0       ?RemoveAll@?$CMap@GGPAVCGameServerItem@NServerListManager@@AAPAV12@@@QAEXXZ 0045e4a0 f i ServerListManager.obj
 0001:0005d590       ?RemoveAll@?$CMap@GGPAVCGameTypeItem@NServerListManager@@AAPAV12@@@QAEXXZ 0045e590 f i ServerListManager.obj
 0001:0005d680       ?RemoveAll@?$CWHArray@PAVCGameKindItem@NServerListManager@@ABQAV12@@@QAEXXZ 0045e680 f i ServerListManager.obj
 0001:0005d700       ?RemoveAll@?$CWHArray@PAVCGameNodeItem@NServerListManager@@ABQAV12@@@QAEXXZ 0045e700 f i ServerListManager.obj
 0001:0005d780       ?RemoveAll@?$CWHArray@PAVCGamePageItem@NServerListManager@@ABQAV12@@@QAEXXZ 0045e780 f i ServerListManager.obj
 0001:0005d800       ?RemoveAll@?$CWHArray@PAVCGameServerItem@NServerListManager@@ABQAV12@@@QAEXXZ 0045e800 f i ServerListManager.obj
 0001:0005d880       ?RemoveAll@?$CWHArray@PAVCGameTypeItem@NServerListManager@@ABQAV12@@@QAEXXZ 0045e880 f i ServerListManager.obj
 0001:0005d900       ?RemoveAt@?$CWHArray@PAVCGameKindItem@NServerListManager@@ABQAV12@@@QAEXHH@Z 0045e900 f i ServerListManager.obj
 0001:0005da40       ?RemoveAt@?$CWHArray@PAVCGameNodeItem@NServerListManager@@ABQAV12@@@QAEXHH@Z 0045ea40 f i ServerListManager.obj
 0001:0005db80       ?RemoveAt@?$CWHArray@PAVCGamePageItem@NServerListManager@@ABQAV12@@@QAEXHH@Z 0045eb80 f i ServerListManager.obj
 0001:0005dcc0       ?RemoveAt@?$CWHArray@PAVCGameServerItem@NServerListManager@@ABQAV12@@@QAEXHH@Z 0045ecc0 f i ServerListManager.obj
 0001:0005de00       ?RemoveAt@?$CWHArray@PAVCGameTypeItem@NServerListManager@@ABQAV12@@@QAEXHH@Z 0045ee00 f i ServerListManager.obj
 0001:0005df40       ?RemoveKey@?$CMap@GGPAVCGameKindItem@NServerListManager@@AAPAV12@@@QAEHG@Z 0045ef40 f i ServerListManager.obj
 0001:0005e030       ?RemoveKey@?$CMap@GGPAVCGameNodeItem@NServerListManager@@AAPAV12@@@QAEHG@Z 0045f030 f i ServerListManager.obj
 0001:0005e120       ?RemoveKey@?$CMap@GGPAVCGamePageItem@NServerListManager@@AAPAV12@@@QAEHG@Z 0045f120 f i ServerListManager.obj
 0001:0005e210       ?RemoveKey@?$CMap@GGPAVCGameServerItem@NServerListManager@@AAPAV12@@@QAEHG@Z 0045f210 f i ServerListManager.obj
 0001:0005e300       ?RemoveKey@?$CMap@GGPAVCGameTypeItem@NServerListManager@@AAPAV12@@@QAEHG@Z 0045f300 f i ServerListManager.obj
 0001:0005e3f0       ?ResetServerList@CServerListManager@NServerListManager@@QAEXXZ 0045f3f0 f   ServerListManager.obj
 0001:0005e430       ?SearchGameKind@CServerListManager@NServerListManager@@QAEPAVCGameKindItem@2@G@Z 0045f430 f   ServerListManager.obj
 0001:0005e470       ?SearchGameNode@CServerListManager@NServerListManager@@QAEPAVCGameNodeItem@2@G@Z 0045f470 f   ServerListManager.obj
 0001:0005e4b0       ?SearchGamePage@CServerListManager@NServerListManager@@QAEPAVCGamePageItem@2@G@Z 0045f4b0 f   ServerListManager.obj
 0001:0005e4f0       ?SearchGameServer@CServerListManager@NServerListManager@@QAEPAVCGameServerItem@2@G@Z 0045f4f0 f   ServerListManager.obj
 0001:0005e530       ?SearchGameType@CServerListManager@NServerListManager@@QAEPAVCGameTypeItem@2@G@Z 0045f530 f   ServerListManager.obj
 0001:0005e570       ?Serialize@?$CMap@GGPAVCGameKindItem@NServerListManager@@AAPAV12@@@UAEXAAVCArchive@@@Z 0045f570 f i ServerListManager.obj
 0001:0005e720       ?Serialize@?$CMap@GGPAVCGameNodeItem@NServerListManager@@AAPAV12@@@UAEXAAVCArchive@@@Z 0045f720 f i ServerListManager.obj
 0001:0005e8d0       ?Serialize@?$CMap@GGPAVCGamePageItem@NServerListManager@@AAPAV12@@@UAEXAAVCArchive@@@Z 0045f8d0 f i ServerListManager.obj
 0001:0005ea80       ?Serialize@?$CMap@GGPAVCGameServerItem@NServerListManager@@AAPAV12@@@UAEXAAVCArchive@@@Z 0045fa80 f i ServerListManager.obj
 0001:0005ec30       ?Serialize@?$CMap@GGPAVCGameTypeItem@NServerListManager@@AAPAV12@@@UAEXAAVCArchive@@@Z 0045fc30 f i ServerListManager.obj
 0001:0005ede0       ?SetAt@?$CMap@GGPAVCGameKindItem@NServerListManager@@AAPAV12@@@QAEXGAAPAVCGameKindItem@NServerListManager@@@Z 0045fde0 f i ServerListManager.obj
 0001:0005ee20       ?SetAt@?$CMap@GGPAVCGameNodeItem@NServerListManager@@AAPAV12@@@QAEXGAAPAVCGameNodeItem@NServerListManager@@@Z 0045fe20 f i ServerListManager.obj
 0001:0005ee60       ?SetAt@?$CMap@GGPAVCGamePageItem@NServerListManager@@AAPAV12@@@QAEXGAAPAVCGamePageItem@NServerListManager@@@Z 0045fe60 f i ServerListManager.obj
 0001:0005eea0       ?SetAt@?$CMap@GGPAVCGameServerItem@NServerListManager@@AAPAV12@@@QAEXGAAPAVCGameServerItem@NServerListManager@@@Z 0045fea0 f i ServerListManager.obj
 0001:0005eee0       ?SetAt@?$CMap@GGPAVCGameTypeItem@NServerListManager@@AAPAV12@@@QAEXGAAPAVCGameTypeItem@NServerListManager@@@Z 0045fee0 f i ServerListManager.obj
 0001:0005ef20       ?SetAtGrow@?$CWHArray@PAVCGameKindItem@NServerListManager@@ABQAV12@@@QAEXHABQAVCGameKindItem@NServerListManager@@@Z 0045ff20 f i ServerListManager.obj
 0001:0005efb0       ?SetAtGrow@?$CWHArray@PAVCGameNodeItem@NServerListManager@@ABQAV12@@@QAEXHABQAVCGameNodeItem@NServerListManager@@@Z 0045ffb0 f i ServerListManager.obj
 0001:0005f040       ?SetAtGrow@?$CWHArray@PAVCGamePageItem@NServerListManager@@ABQAV12@@@QAEXHABQAVCGamePageItem@NServerListManager@@@Z 00460040 f i ServerListManager.obj
 0001:0005f0d0       ?SetAtGrow@?$CWHArray@PAVCGameServerItem@NServerListManager@@ABQAV12@@@QAEXHABQAVCGameServerItem@NServerListManager@@@Z 004600d0 f i ServerListManager.obj
 0001:0005f160       ?SetAtGrow@?$CWHArray@PAVCGameTypeItem@NServerListManager@@ABQAV12@@@QAEXHABQAVCGameTypeItem@NServerListManager@@@Z 00460160 f i ServerListManager.obj
 0001:0005f1f0       ?SetSize@?$CWHArray@PAVCGameKindItem@NServerListManager@@ABQAV12@@@QAEXH@Z 004601f0 f i ServerListManager.obj
 0001:0005f310       ?SetSize@?$CWHArray@PAVCGameNodeItem@NServerListManager@@ABQAV12@@@QAEXH@Z 00460310 f i ServerListManager.obj
 0001:0005f430       ?SetSize@?$CWHArray@PAVCGamePageItem@NServerListManager@@ABQAV12@@@QAEXH@Z 00460430 f i ServerListManager.obj
 0001:0005f550       ?SetSize@?$CWHArray@PAVCGameServerItem@NServerListManager@@ABQAV12@@@QAEXH@Z 00460550 f i ServerListManager.obj
 0001:0005f670       ?SetSize@?$CWHArray@PAVCGameTypeItem@NServerListManager@@ABQAV12@@@QAEXH@Z 00460670 f i ServerListManager.obj
 0001:0005f790       ?OnUIControlRequest@CServiceUnits@@IAEJIJ@Z 00460790 f   ServiceUnits.obj
 0001:0005fd20       ??0?$CTempldateHelper@UIAttemperEngine@@@@QAE@ABU_GUID@@KPBD1@Z 00460d20 f i ServiceUnits.obj
 0001:0005fdd0       ??0?$CTempldateHelper@UIDataBaseEngine@@@@QAE@ABU_GUID@@KPBD1@Z 00460dd0 f i ServiceUnits.obj
 0001:0005fe80       ??0?$CTempldateHelper@UIMatchServiceManager@@@@QAE@ABU_GUID@@KPBD1@Z 00460e80 f i ServiceUnits.obj
 0001:0005ff30       ??0?$CTempldateHelper@UIPersonalRoomServiceManager@@@@QAE@ABU_GUID@@KPBD1@Z 00460f30 f i ServiceUnits.obj
 0001:0005ffe0       ??0?$CTempldateHelper@UITCPNetworkEngine@@@@QAE@ABU_GUID@@KPBD1@Z 00460fe0 f i ServiceUnits.obj
 0001:00060090       ??0?$CTempldateHelper@UITCPSocketService@@@@QAE@ABU_GUID@@KPBD1@Z 00461090 f i ServiceUnits.obj
 0001:00060140       ??0?$CTempldateHelper@UITimerEngine@@@@QAE@ABU_GUID@@KPBD1@Z 00461140 f i ServiceUnits.obj
 0001:000601f0       ??0CAttemperEngineHelper@@QAE@XZ 004611f0 f i ServiceUnits.obj
 0001:00060240       ??0CDataBaseEngineHelper@@QAE@XZ 00461240 f i ServiceUnits.obj
 0001:00060290       ??0CMatchServiceManagerHelper@@QAE@XZ 00461290 f i ServiceUnits.obj
 0001:000602e0       ??0CPersonalRoomServiceManagerHelper@@QAE@XZ 004612e0 f i ServiceUnits.obj
 0001:00060330       ??0CRect@@QAE@HHHH@Z       00461330 f i ServiceUnits.obj
 0001:00060380       ??0CServiceUnits@@QAE@XZ   00461380 f   ServiceUnits.obj
 0001:000606a0       ??0CTCPNetworkEngineHelper@@QAE@XZ 004616a0 f i ServiceUnits.obj
 0001:000606f0       ??0CTCPSocketServiceHelper@@QAE@XZ 004616f0 f i ServiceUnits.obj
 0001:00060740       ??0CTimerEngineHelper@@QAE@XZ 00461740 f i ServiceUnits.obj
 0001:00060790       ??1?$CTempldateHelper@UIAttemperEngine@@@@UAE@XZ 00461790 f i ServiceUnits.obj
 0001:00060800       ??1?$CTempldateHelper@UIDataBaseEngine@@@@UAE@XZ 00461800 f i ServiceUnits.obj
 0001:00060870       ??1?$CTempldateHelper@UIMatchServiceManager@@@@UAE@XZ 00461870 f i ServiceUnits.obj
 0001:000608e0       ??1?$CTempldateHelper@UIPersonalRoomServiceManager@@@@UAE@XZ 004618e0 f i ServiceUnits.obj
 0001:00060950       ??1?$CTempldateHelper@UITCPNetworkEngine@@@@UAE@XZ 00461950 f i ServiceUnits.obj
 0001:000609c0       ??1?$CTempldateHelper@UITCPSocketService@@@@UAE@XZ 004619c0 f i ServiceUnits.obj
 0001:00060a30       ??1?$CTempldateHelper@UITimerEngine@@@@UAE@XZ 00461a30 f i ServiceUnits.obj
 0001:00060aa0       ??1CAttemperEngineHelper@@UAE@XZ 00461aa0 f i ServiceUnits.obj
 0001:00060ad0       ??1CDataBaseEngineHelper@@UAE@XZ 00461ad0 f i ServiceUnits.obj
 0001:00060b00       ??1CMatchServiceManagerHelper@@UAE@XZ 00461b00 f i ServiceUnits.obj
 0001:00060b30       ??1CPersonalRoomServiceManagerHelper@@UAE@XZ 00461b30 f i ServiceUnits.obj
 0001:00060b60       ??1CServiceUnits@@UAE@XZ   00461b60 f   ServiceUnits.obj
 0001:00060d10       ??1CTCPNetworkEngineHelper@@UAE@XZ 00461d10 f i ServiceUnits.obj
 0001:00060d40       ??1CTCPSocketServiceHelper@@UAE@XZ 00461d40 f i ServiceUnits.obj
 0001:00060d70       ??1CTimerEngineHelper@@UAE@XZ 00461d70 f i ServiceUnits.obj
 0001:00060da0       ??C?$CTempldateHelper@UIAttemperEngine@@@@QBEPAUIAttemperEngine@@XZ 00461da0 f i ServiceUnits.obj
 0001:00060dd0       ??C?$CTempldateHelper@UIDataBaseEngine@@@@QBEPAUIDataBaseEngine@@XZ 00461dd0 f i ServiceUnits.obj
 0001:00060e00       ??C?$CTempldateHelper@UIGameServiceManager@@@@QBEPAUIGameServiceManager@@XZ 00461e00 f i ServiceUnits.obj
 0001:00060e30       ??C?$CTempldateHelper@UIMatchServiceManager@@@@QBEPAUIMatchServiceManager@@XZ 00461e30 f i ServiceUnits.obj
 0001:00060e60       ??C?$CTempldateHelper@UIPersonalRoomServiceManager@@@@QBEPAUIPersonalRoomServiceManager@@XZ 00461e60 f i ServiceUnits.obj
 0001:00060e90       ??C?$CTempldateHelper@UITCPSocketService@@@@QBEPAUITCPSocketService@@XZ 00461e90 f i ServiceUnits.obj
 0001:00060ec0       ??C?$CTempldateHelper@UITimerEngine@@@@QBEPAUITimerEngine@@XZ 00461ec0 f i ServiceUnits.obj
 0001:00060ef0       ??_E?$CTempldateHelper@UIAttemperEngine@@@@UAEPAXI@Z 00461ef0 f i ServiceUnits.obj
 0001:00060ef0       ??_G?$CTempldateHelper@UIAttemperEngine@@@@UAEPAXI@Z 00461ef0 f i ServiceUnits.obj
 0001:00060f40       ??_E?$CTempldateHelper@UIDataBaseEngine@@@@UAEPAXI@Z 00461f40 f i ServiceUnits.obj
 0001:00060f40       ??_G?$CTempldateHelper@UIDataBaseEngine@@@@UAEPAXI@Z 00461f40 f i ServiceUnits.obj
 0001:00060f90       ??_E?$CTempldateHelper@UIMatchServiceManager@@@@UAEPAXI@Z 00461f90 f i ServiceUnits.obj
 0001:00060f90       ??_G?$CTempldateHelper@UIMatchServiceManager@@@@UAEPAXI@Z 00461f90 f i ServiceUnits.obj
 0001:00060fe0       ??_E?$CTempldateHelper@UIPersonalRoomServiceManager@@@@UAEPAXI@Z 00461fe0 f i ServiceUnits.obj
 0001:00060fe0       ??_G?$CTempldateHelper@UIPersonalRoomServiceManager@@@@UAEPAXI@Z 00461fe0 f i ServiceUnits.obj
 0001:00061030       ??_E?$CTempldateHelper@UITCPNetworkEngine@@@@UAEPAXI@Z 00462030 f i ServiceUnits.obj
 0001:00061030       ??_G?$CTempldateHelper@UITCPNetworkEngine@@@@UAEPAXI@Z 00462030 f i ServiceUnits.obj
 0001:00061080       ??_E?$CTempldateHelper@UITCPSocketService@@@@UAEPAXI@Z 00462080 f i ServiceUnits.obj
 0001:00061080       ??_G?$CTempldateHelper@UITCPSocketService@@@@UAEPAXI@Z 00462080 f i ServiceUnits.obj
 0001:000610d0       ??_E?$CTempldateHelper@UITimerEngine@@@@UAEPAXI@Z 004620d0 f i ServiceUnits.obj
 0001:000610d0       ??_G?$CTempldateHelper@UITimerEngine@@@@UAEPAXI@Z 004620d0 f i ServiceUnits.obj
 0001:00061120       ??_ECAttemperEngineHelper@@UAEPAXI@Z 00462120 f i ServiceUnits.obj
 0001:00061120       ??_GCAttemperEngineHelper@@UAEPAXI@Z 00462120 f i ServiceUnits.obj
 0001:00061170       ??_GCDataBaseEngineHelper@@UAEPAXI@Z 00462170 f i ServiceUnits.obj
 0001:00061170       ??_ECDataBaseEngineHelper@@UAEPAXI@Z 00462170 f i ServiceUnits.obj
 0001:000611c0       ??_ECMatchServiceManagerHelper@@UAEPAXI@Z 004621c0 f i ServiceUnits.obj
 0001:000611c0       ??_GCMatchServiceManagerHelper@@UAEPAXI@Z 004621c0 f i ServiceUnits.obj
 0001:00061210       ??_ECPersonalRoomServiceManagerHelper@@UAEPAXI@Z 00462210 f i ServiceUnits.obj
 0001:00061210       ??_GCPersonalRoomServiceManagerHelper@@UAEPAXI@Z 00462210 f i ServiceUnits.obj
 0001:00061260       ??_ECServiceUnits@@UAEPAXI@Z 00462260 f i ServiceUnits.obj
 0001:00061260       ??_GCServiceUnits@@UAEPAXI@Z 00462260 f i ServiceUnits.obj
 0001:000612c0       ??_GCTCPNetworkEngineHelper@@UAEPAXI@Z 004622c0 f i ServiceUnits.obj
 0001:000612c0       ??_ECTCPNetworkEngineHelper@@UAEPAXI@Z 004622c0 f i ServiceUnits.obj
 0001:00061310       ??_GCTCPSocketServiceHelper@@UAEPAXI@Z 00462310 f i ServiceUnits.obj
 0001:00061310       ??_ECTCPSocketServiceHelper@@UAEPAXI@Z 00462310 f i ServiceUnits.obj
 0001:00061360       ??_GCTimerEngineHelper@@UAEPAXI@Z 00462360 f i ServiceUnits.obj
 0001:00061360       ??_ECTimerEngineHelper@@UAEPAXI@Z 00462360 f i ServiceUnits.obj
 0001:000613b0       ?CloseInstance@?$CTempldateHelper@UIAttemperEngine@@@@QAE_NXZ 004623b0 f i ServiceUnits.obj
 0001:00061460       ?CloseInstance@?$CTempldateHelper@UIDataBaseEngine@@@@QAE_NXZ 00462460 f i ServiceUnits.obj
 0001:00061510       ?CloseInstance@?$CTempldateHelper@UIMatchServiceManager@@@@QAE_NXZ 00462510 f i ServiceUnits.obj
 0001:000615c0       ?CloseInstance@?$CTempldateHelper@UIPersonalRoomServiceManager@@@@QAE_NXZ 004625c0 f i ServiceUnits.obj
 0001:00061670       ?CloseInstance@?$CTempldateHelper@UITCPNetworkEngine@@@@QAE_NXZ 00462670 f i ServiceUnits.obj
 0001:00061720       ?CloseInstance@?$CTempldateHelper@UITCPSocketService@@@@QAE_NXZ 00462720 f i ServiceUnits.obj
 0001:000617d0       ?CloseInstance@?$CTempldateHelper@UITimerEngine@@@@QAE_NXZ 004627d0 f i ServiceUnits.obj
 0001:00061880       ?CollocateService@CServiceUnits@@QAE_NAAUtagGameMatchOption@@@Z 00462880 f   ServiceUnits.obj
 0001:00061900       ?CollocateService@CServiceUnits@@QAE_NPBDAAUtagGameServiceOption@@@Z 00462900 f   ServiceUnits.obj
 0001:000619a0       ?ConcludeService@CServiceUnits@@QAE_NXZ 004629a0 f   ServiceUnits.obj
 0001:00061c30       ?ConnectPlatformDB@CServiceUnits@@AAE_NAAVCDataBaseHelper@@@Z 00462c30 f   ServiceUnits.obj
 0001:00061d10       ?CreateInstance@?$CTempldateHelper@UIAttemperEngine@@@@QAE_NXZ 00462d10 f i ServiceUnits.obj
 0001:00061fd0       ?CreateInstance@?$CTempldateHelper@UIDataBaseEngine@@@@QAE_NXZ 00462fd0 f i ServiceUnits.obj
 0001:00062290       ?CreateInstance@?$CTempldateHelper@UIMatchServiceManager@@@@QAE_NXZ 00463290 f i ServiceUnits.obj
 0001:00062550       ?CreateInstance@?$CTempldateHelper@UIPersonalRoomServiceManager@@@@QAE_NXZ 00463550 f i ServiceUnits.obj
 0001:00062810       ?CreateInstance@?$CTempldateHelper@UITCPNetworkEngine@@@@QAE_NXZ 00463810 f i ServiceUnits.obj
 0001:00062ad0       ?CreateInstance@?$CTempldateHelper@UITCPSocketService@@@@QAE_NXZ 00463ad0 f i ServiceUnits.obj
 0001:00062d90       ?CreateInstance@?$CTempldateHelper@UITimerEngine@@@@QAE_NXZ 00463d90 f i ServiceUnits.obj
 0001:00063050       ?CreateServiceDLL@CServiceUnits@@IAE_NXZ 00464050 f   ServiceUnits.obj
 0001:00063420       ?GetErrorDescribe@?$CTempldateHelper@UIAttemperEngine@@@@QBEPBDXZ 00464420 f i ServiceUnits.obj
 0001:00063450       ?GetErrorDescribe@?$CTempldateHelper@UIDataBaseEngine@@@@QBEPBDXZ 00464450 f i ServiceUnits.obj
 0001:00063480       ?GetErrorDescribe@?$CTempldateHelper@UIGameServiceManager@@@@QBEPBDXZ 00464480 f i ServiceUnits.obj
 0001:000634b0       ?GetErrorDescribe@?$CTempldateHelper@UIMatchServiceManager@@@@QBEPBDXZ 004644b0 f i ServiceUnits.obj
 0001:000634e0       ?GetErrorDescribe@?$CTempldateHelper@UIPersonalRoomServiceManager@@@@QBEPBDXZ 004644e0 f i ServiceUnits.obj
 0001:00063510       ?GetErrorDescribe@?$CTempldateHelper@UITCPNetworkEngine@@@@QBEPBDXZ 00464510 f i ServiceUnits.obj
 0001:00063540       ?GetErrorDescribe@?$CTempldateHelper@UITCPSocketService@@@@QBEPBDXZ 00464540 f i ServiceUnits.obj
 0001:00063570       ?GetErrorDescribe@?$CTempldateHelper@UITimerEngine@@@@QBEPBDXZ 00464570 f i ServiceUnits.obj
 0001:000635a0       ?GetInterface@?$CTempldateHelper@UIAttemperEngine@@@@QBEPAUIAttemperEngine@@XZ 004645a0 f i ServiceUnits.obj
 0001:000635d0       ?GetInterface@?$CTempldateHelper@UIDataBaseEngine@@@@QBEPAUIDataBaseEngine@@XZ 004645d0 f i ServiceUnits.obj
 0001:00063600       ?GetInterface@?$CTempldateHelper@UIMatchServiceManager@@@@QBEPAUIMatchServiceManager@@XZ 00464600 f i ServiceUnits.obj
 0001:00063630       ?GetInterface@?$CTempldateHelper@UIPersonalRoomServiceManager@@@@QBEPAUIPersonalRoomServiceManager@@XZ 00464630 f i ServiceUnits.obj
 0001:00063660       ?GetInterface@?$CTempldateHelper@UITCPSocketService@@@@QBEPAUITCPSocketService@@XZ 00464660 f i ServiceUnits.obj
 0001:00063690       ?GetInterface@?$CTempldateHelper@UITimerEngine@@@@QBEPAUITimerEngine@@XZ 00464690 f i ServiceUnits.obj
 0001:000636c0       ?GetMessageMap@CServiceUnits@@MBEPBUAFX_MSGMAP@@XZ 004646c0 f   ServiceUnits.obj
 0001:000636e0       ?GetThisMessageMap@CServiceUnits@@KGPBUAFX_MSGMAP@@XZ 004646e0 f   ServiceUnits.obj
 0001:00063700       ?InitializeService@CServiceUnits@@IAE_NXZ 00464700 f   ServiceUnits.obj
 0001:000642c0       ?LoadDataBaseParameter@CServiceUnits@@QAE_NPBD0AAUtagDataBaseParameter@@@Z 004652c0 f   ServiceUnits.obj
 0001:00064850       ?PostControlRequest@CServiceUnits@@QAE_NGPAXG@Z 00465850 f   ServiceUnits.obj
 0001:000649a0       ?RectifyServiceParameter@CServiceUnits@@IAE_NXZ 004659a0 f   ServiceUnits.obj
 0001:00065040       ?SendControlPacket@CServiceUnits@@AAE_NGPAXG@Z 00466040 f   ServiceUnits.obj
 0001:000650f0       ?SetAllowAndroidSimulate@CServerRule@@SAXAAK_N@Z 004660f0 f i ServiceUnits.obj
 0001:00065150       ?SetAllowAvertCheatMode@CServerRule@@SAXAAK_N@Z 00466150 f i ServiceUnits.obj
 0001:000651b0       ?SetServiceStatus@CServiceUnits@@AAE_NW4enServiceStatus@@@Z 004661b0 f   ServiceUnits.obj
 0001:00065290       ?SetServiceUnitsSink@CServiceUnits@@QAE_NPAUIServiceUnitsSink@@@Z 00466290 f   ServiceUnits.obj
 0001:000652c0       ?StartKernelService@CServiceUnits@@IAE_NXZ 004662c0 f   ServiceUnits.obj
 0001:000655c0       ?StartNetworkService@CServiceUnits@@IAE_NXZ 004665c0 f   ServiceUnits.obj
 0001:00065640       ?StartService@CServiceUnits@@QAE_NXZ 00466640 f   ServiceUnits.obj
 0001:000657b0       ?WritePersonalDissumeInfo@CServiceUnits@@AAE_NXZ 004667b0 f   ServiceUnits.obj
 0001:00065b40       ?WriteSeverCount@CServiceUnits@@QAEX_N@Z 00466b40 f   ServiceUnits.obj
 0001:00065d50       ?_AfxInitManaged@@YAHXZ    00466d50 f i Stdafx.obj
 0001:00065d70       ??$AtlAdd@H@ATL@@YAJPAHHH@Z 00466d70 f i Stdafx.obj
 0001:00065dc0       ??$AtlAdd@I@ATL@@YAJPAIII@Z 00466dc0 f i Stdafx.obj
 0001:00065e10       ??$AtlAdd@K@ATL@@YAJPAKKK@Z 00466e10 f i Stdafx.obj
 0001:00065e60       ??$AtlAlignUp@H@ATL@@YGHHK@Z 00466e60 f i Stdafx.obj
 0001:00065e90       ??$AtlMultiply@K@ATL@@YAJPAKKK@Z 00466e90 f i Stdafx.obj
 0001:00065ef0       ??$_Getvals@_W@?$time_get@DV?$istreambuf_iterator@DU?$char_traits@D@std@@@std@@@std@@IAEX_WABV_Locinfo@1@@Z 00466ef0 f i Stdafx.obj
 0001:00066020       ??$_Getvals@_W@?$time_get@_WV?$istreambuf_iterator@_WU?$char_traits@_W@std@@@std@@@std@@IAEX_WABV_Locinfo@1@@Z 00467020 f i Stdafx.obj
 0001:00066150       ??$_Maklocstr@D@std@@YAPADPBDPADABU_Cvtvec@@@Z 00467150 f i Stdafx.obj
 0001:00066200       ??$_Maklocstr@_W@std@@YAPA_WPBDPA_WABU_Cvtvec@@@Z 00467200 f i Stdafx.obj
 0001:00066380       ??0?$CSimpleArray@GV?$CSimpleArrayEqualHelper@G@ATL@@@ATL@@QAE@XZ 00467380 f i Stdafx.obj
 0001:000663c0       ??0?$CTraceCategoryEx@$00$0A@@ATL@@QAE@PBD@Z 004673c0 f i Stdafx.obj
 0001:000663f0       ??0?$CTraceCategoryEx@$01$0A@@ATL@@QAE@PBD@Z 004673f0 f i Stdafx.obj
 0001:00066420       ??0?$CTraceCategoryEx@$03$0A@@ATL@@QAE@PBD@Z 00467420 f i Stdafx.obj
 0001:00066450       ??0?$CTraceCategoryEx@$07$0A@@ATL@@QAE@PBD@Z 00467450 f i Stdafx.obj
 0001:00066480       ??0?$CTraceCategoryEx@$0BA@$0A@@ATL@@QAE@PBD@Z 00467480 f i Stdafx.obj
 0001:000664b0       ??0?$CTraceCategoryEx@$0BAA@$0A@@ATL@@QAE@PBD@Z 004674b0 f i Stdafx.obj
 0001:000664f0       ??0?$CTraceCategoryEx@$0BAAA@$0A@@ATL@@QAE@PBD@Z 004674f0 f i Stdafx.obj
 0001:00066530       ??0?$CTraceCategoryEx@$0BAAAA@$0A@@ATL@@QAE@PBD@Z 00467530 f i Stdafx.obj
 0001:00066570       ??0?$CTraceCategoryEx@$0BAAAAA@$0A@@ATL@@QAE@PBD@Z 00467570 f i Stdafx.obj
 0001:000665b0       ??0?$CTraceCategoryEx@$0CA@$0A@@ATL@@QAE@PBD@Z 004675b0 f i Stdafx.obj
 0001:000665e0       ??0?$CTraceCategoryEx@$0CAA@$0A@@ATL@@QAE@PBD@Z 004675e0 f i Stdafx.obj
 0001:00066620       ??0?$CTraceCategoryEx@$0CAAAAA@$0A@@ATL@@QAE@PBD@Z 00467620 f i Stdafx.obj
 0001:00066660       ??0?$CTraceCategoryEx@$0EA@$0A@@ATL@@QAE@PBD@Z 00467660 f i Stdafx.obj
 0001:00066690       ??0?$CTraceCategoryEx@$0EAA@$0A@@ATL@@QAE@PBD@Z 00467690 f i Stdafx.obj
 0001:000666d0       ??0?$CTraceCategoryEx@$0EAAA@$0A@@ATL@@QAE@PBD@Z 004676d0 f i Stdafx.obj
 0001:00066710       ??0?$CTraceCategoryEx@$0EAAAA@$0A@@ATL@@QAE@PBD@Z 00467710 f i Stdafx.obj
 0001:00066750       ??0?$CTraceCategoryEx@$0EAAAAA@$0A@@ATL@@QAE@PBD@Z 00467750 f i Stdafx.obj
 0001:00066790       ??0?$CTraceCategoryEx@$0IA@$0A@@ATL@@QAE@PBD@Z 00467790 f i Stdafx.obj
 0001:000667d0       ??0?$CTraceCategoryEx@$0IAA@$0A@@ATL@@QAE@PBD@Z 004677d0 f i Stdafx.obj
 0001:00066810       ??0?$CTraceCategoryEx@$0IAAA@$0A@@ATL@@QAE@PBD@Z 00467810 f i Stdafx.obj
 0001:00066850       ??0?$CTraceCategoryEx@$0IAAAA@$0A@@ATL@@QAE@PBD@Z 00467850 f i Stdafx.obj
 0001:00066890       ??0CAtlComModule@ATL@@QAE@XZ 00467890 f i Stdafx.obj
 0001:00066980       ??0CAtlStringMgr@ATL@@QAE@PAUIAtlMemMgr@1@@Z 00467980 f i Stdafx.obj
 0001:000669e0       ??0CAtlStringMgrStaticInitializer@ATLImplementationDetails@ATL@@QAE@XZ 004679e0 f i Stdafx.obj
 0001:00066a10       ??0CAtlWinModule@ATL@@QAE@XZ 00467a10 f i Stdafx.obj
 0001:00066ab0       ??0CComCriticalSection@ATL@@QAE@XZ 00467ab0 f i Stdafx.obj
 0001:00066ae0       ??0CNilStringData@ATL@@QAE@XZ 00467ae0 f i Stdafx.obj
 0001:00066b60       ??0CWin32Heap@ATL@@QAE@PAX@Z 00467b60 f i Stdafx.obj
 0001:00066be0       ??0_ATL_COM_MODULE70@ATL@@QAE@XZ 00467be0 f i Stdafx.obj
 0001:00066c10       ??0_ATL_WIN_MODULE70@ATL@@QAE@XZ 00467c10 f i Stdafx.obj
 0001:00066c90       ??1?$CSimpleArray@GV?$CSimpleArrayEqualHelper@G@ATL@@@ATL@@QAE@XZ 00467c90 f i Stdafx.obj
 0001:00066cf0       ??1CAtlComModule@ATL@@QAE@XZ 00467cf0 f i Stdafx.obj
 0001:00066d50       ??1CAtlStringMgr@ATL@@UAE@XZ 00467d50 f i Stdafx.obj
 0001:00066d70       ??1CAtlWinModule@ATL@@QAE@XZ 00467d70 f i Stdafx.obj
 0001:00066dd0       ??1CComCriticalSection@ATL@@QAE@XZ 00467dd0 f i Stdafx.obj
 0001:00066df0       ??1CWin32Heap@ATL@@UAE@XZ  00467df0 f i Stdafx.obj
 0001:00066e80       ??1_ATL_COM_MODULE70@ATL@@QAE@XZ 00467e80 f i Stdafx.obj
 0001:00066eb0       ??1_ATL_WIN_MODULE70@ATL@@QAE@XZ 00467eb0 f i Stdafx.obj
 0001:00066ef0       ??A?$CSimpleArray@GV?$CSimpleArrayEqualHelper@G@ATL@@@ATL@@QAEAAGH@Z 00467ef0 f i Stdafx.obj
 0001:00066f90       ??B?$CTraceCategoryEx@$01$0A@@ATL@@QAEIXZ 00467f90 f i Stdafx.obj
 0001:00066fb0       ??B?$CTraceCategoryEx@$0CA@$0A@@ATL@@QAEIXZ 00467fb0 f i Stdafx.obj
 0001:00066fd0       ??_ECAtlStringMgr@ATL@@UAEPAXI@Z 00467fd0 f i Stdafx.obj
 0001:00066fd0       ??_GCAtlStringMgr@ATL@@UAEPAXI@Z 00467fd0 f i Stdafx.obj
 0001:00067020       ??_ECWin32Heap@ATL@@UAEPAXI@Z 00468020 f i Stdafx.obj
 0001:00067020       ??_GCWin32Heap@ATL@@UAEPAXI@Z 00468020 f i Stdafx.obj
 0001:00067070       ?AddRef@CStringData@ATL@@QAEXXZ 00468070 f i Stdafx.obj
 0001:000670d0       ?Allocate@CAtlStringMgr@ATL@@UAEPAUCStringData@2@HH@Z 004680d0 f i Stdafx.obj
 0001:000672a0       ?Allocate@CWin32Heap@ATL@@UAEPAXI@Z 004682a0 f i Stdafx.obj
 0001:000672e0       ?AtlWinModuleInit@ATL@@YGJPAU_ATL_WIN_MODULE70@1@@Z 004682e0 f i Stdafx.obj
 0001:000673d0       ?AtlWinModuleTerm@ATL@@YGJPAU_ATL_WIN_MODULE70@1@PAUHINSTANCE__@@@Z 004683d0 f i Stdafx.obj
 0001:000674a0       ?Clone@CAtlStringMgr@ATL@@UAEPAUIAtlStringMgr@2@XZ 004684a0 f i Stdafx.obj
 0001:000674c0       ?Free@CAtlStringMgr@ATL@@UAEXPAUCStringData@2@@Z 004684c0 f i Stdafx.obj
 0001:00067570       ?Free@CWin32Heap@ATL@@UAEXPAX@Z 00468570 f i Stdafx.obj
 0001:000675f0       ?GetInstance@CAtlStringMgr@ATL@@SAPAUIAtlStringMgr@2@XZ 004685f0 f i Stdafx.obj
 0001:000676f0       ?GetModuleInstance@CAtlBaseModule@ATL@@QAEPAUHINSTANCE__@@XZ 004686f0 f i Stdafx.obj
 0001:00067710       ?GetNilString@CAtlStringMgr@ATL@@UAEPAUCStringData@2@XZ 00468710 f i Stdafx.obj
 0001:00067740       ?GetSize@?$CSimpleArray@GV?$CSimpleArrayEqualHelper@G@ATL@@@ATL@@QBEHXZ 00468740 f i Stdafx.obj
 0001:00067760       ?GetSize@CWin32Heap@ATL@@UAEIPAX@Z 00468760 f i Stdafx.obj
 0001:000677a0       ?Init@CComCriticalSection@ATL@@QAEJXZ 004687a0 f i Stdafx.obj
 0001:00067800       ?Reallocate@CAtlStringMgr@ATL@@UAEPAUCStringData@2@PAU32@HH@Z 00468800 f i Stdafx.obj
 0001:000679f0       ?Reallocate@CWin32Heap@ATL@@UAEPAXPAXI@Z 004689f0 f i Stdafx.obj
 0001:00067a70       ?RemoveAll@?$CSimpleArray@GV?$CSimpleArrayEqualHelper@G@ATL@@@ATL@@QAEXXZ 00468a70 f i Stdafx.obj
 0001:00067af0       ?SetManager@CNilStringData@ATL@@QAEXPAUIAtlStringMgr@2@@Z 00468af0 f i Stdafx.obj
 0001:00067b50       ?Term@CAtlComModule@ATL@@QAEXXZ 00468b50 f i Stdafx.obj
 0001:00067c10       ?Term@CAtlWinModule@ATL@@QAEXXZ 00468c10 f i Stdafx.obj
 0001:00067c40       ?Term@CComCriticalSection@ATL@@QAEJXZ 00468c40 f i Stdafx.obj
 0001:00067c70       ?_AtlInitializeCriticalSectionEx@ATL@@YAHPAU_RTL_CRITICAL_SECTION@@KK@Z 00468c70 f i Stdafx.obj
 0001:00067ca0       ?_AtlRaiseException@ATL@@YAXKK@Z 00468ca0 f i Stdafx.obj
 0001:00067cd0       ?_Maklocwcs@std@@YAPA_WPB_W@Z 00468cd0 f i Stdafx.obj
 0001:00067d50       _wmemcpy                   00468d50 f i Stdafx.obj
 0001:00067d80       ??$DumpElements@_J@@YGXAAVCDumpContext@@PB_JH@Z 00468d80 f i TableFrame.obj
 0001:00067e30       ??$SerializeElements@_J@@YGXAAVCArchive@@PA_JH@Z 00468e30 f i TableFrame.obj
 0001:00067fd0       ??0?$CMap@KK_JAA_J@@QAE@H@Z 00468fd0 f i TableFrame.obj
 0001:000680c0       ??0?$CWHArray@PAUIServerUserItem@@ABQAU1@@@QAE@XZ 004690c0 f i TableFrame.obj
 0001:00068120       ??0?$CWHArray@PAUtagGameScoreRecord@@ABQAU1@@@QAE@XZ 00469120 f i TableFrame.obj
 0001:00068180       ??0CAssoc@?$CMap@KK_JAA_J@@QAE@K@Z 00469180 f i TableFrame.obj
 0001:000681b0       ??0CPair@?$CMap@KK_JAA_J@@IAE@K@Z 004691b0 f i TableFrame.obj
 0001:000681e0       ??0CTableFrame@@QAE@XZ     004691e0 f   TableFrame.obj
 0001:00068780       ??0ICompilationSink@@QAE@XZ 00469780 f i TableFrame.obj
 0001:000687b0       ??0ITableFrame@@QAE@XZ     004697b0 f i TableFrame.obj
 0001:000687e0       ??1?$CMap@KK_JAA_J@@UAE@XZ 004697e0 f i TableFrame.obj
 0001:00068870       ??1?$CWHArray@PAUIServerUserItem@@ABQAU1@@@UAE@XZ 00469870 f i TableFrame.obj
 0001:000688f0       ??1?$CWHArray@PAUtagGameScoreRecord@@ABQAU1@@@UAE@XZ 004698f0 f i TableFrame.obj
 0001:00068970       ??1CTableFrame@@UAE@XZ     00469970 f   TableFrame.obj
 0001:00068ac0       ??A?$CMap@KK_JAA_J@@QAEAA_JK@Z 00469ac0 f i TableFrame.obj
 0001:00068bf0       ??A?$CWHArray@PAUIServerUserItem@@ABQAU1@@@QAEAAPAUIServerUserItem@@H@Z 00469bf0 f i TableFrame.obj
 0001:00068c20       ??A?$CWHArray@PAUtagGameScoreRecord@@ABQAU1@@@QAEAAPAUtagGameScoreRecord@@H@Z 00469c20 f i TableFrame.obj
 0001:00068c50       ??_E?$CMap@KK_JAA_J@@UAEPAXI@Z 00469c50 f i TableFrame.obj
 0001:00068c50       ??_G?$CMap@KK_JAA_J@@UAEPAXI@Z 00469c50 f i TableFrame.obj
 0001:00068cb0       ??_E?$CWHArray@PAUIServerUserItem@@ABQAU1@@@UAEPAXI@Z 00469cb0 f i TableFrame.obj
 0001:00068cb0       ??_G?$CWHArray@PAUIServerUserItem@@ABQAU1@@@UAEPAXI@Z 00469cb0 f i TableFrame.obj
 0001:00068d00       ??_E?$CWHArray@PAUtagGameScoreRecord@@ABQAU1@@@UAEPAXI@Z 00469d00 f i TableFrame.obj
 0001:00068d00       ??_G?$CWHArray@PAUtagGameScoreRecord@@ABQAU1@@@UAEPAXI@Z 00469d00 f i TableFrame.obj
 0001:00068d50       ??_ECTableFrame@@UAEPAXI@Z 00469d50 f i TableFrame.obj
 0001:00068d50       ??_GCTableFrame@@UAEPAXI@Z 00469d50 f i TableFrame.obj
 0001:00068da0       ?Add@?$CWHArray@PAUIServerUserItem@@ABQAU1@@@QAEHABQAUIServerUserItem@@@Z 00469da0 f i TableFrame.obj
 0001:00068de0       ?Add@?$CWHArray@PAUtagGameScoreRecord@@ABQAU1@@@QAEHABQAUtagGameScoreRecord@@@Z 00469de0 f i TableFrame.obj
 0001:00068e20       ?AllocMemory@?$CWHArray@PAUIServerUserItem@@ABQAU1@@@QAEXH@Z 00469e20 f i TableFrame.obj
 0001:00068f90       ?AllocMemory@?$CWHArray@PAUtagGameScoreRecord@@ABQAU1@@@QAEXH@Z 00469f90 f i TableFrame.obj
 0001:00069100       ?Append@?$CWHArray@PAUtagGameScoreRecord@@ABQAU1@@@QAEHABV1@@Z 0046a100 f i TableFrame.obj
 0001:000691f0       ?AssertValid@?$CMap@KK_JAA_J@@UBEXXZ 0046a1f0 f i TableFrame.obj
 0001:00069270       ?CalculateRevenue@CTableFrame@@UAE_JG_J@Z 0046a270 f   TableFrame.obj
 0001:00069450       ?CancelTableRequest@CTableFrame@@UAE_NKG@Z 0046a450 f   TableFrame.obj
 0001:00069630       ?CancelTableRequestReply@CTableFrame@@UAE_NKE@Z 0046a630 f   TableFrame.obj
 0001:0006a030       ?CheckDistribute@CTableFrame@@QAE_NXZ 0046b030 f   TableFrame.obj
 0001:0006a0a0       ?ConcludeGame@CTableFrame@@UAE_NEH@Z 0046b0a0 f   TableFrame.obj
 0001:0006b0a0       ?ConcludeTable@CTableFrame@@UAE_NXZ 0046c0a0 f   TableFrame.obj
 0001:0006b210       ?DismissGame@CTableFrame@@UAE_NXZ 0046c210 f   TableFrame.obj
 0001:0006b3d0       ?Dump@?$CMap@KK_JAA_J@@UBEXAAVCDumpContext@@@Z 0046c3d0 f i TableFrame.obj
 0001:0006b4e0       ?EfficacyEnterTableScoreRule@CTableFrame@@QAE_NGPAUIServerUserItem@@@Z 0046c4e0 f   TableFrame.obj
 0001:0006b7d0       ?EfficacyIPAddress@CTableFrame@@QAE_NPAUIServerUserItem@@@Z 0046c7d0 f   TableFrame.obj
 0001:0006bc40       ?EfficacyScoreRule@CTableFrame@@QAE_NPAUIServerUserItem@@@Z 0046cc40 f   TableFrame.obj
 0001:0006c0c0       ?EfficacyStartGame@CTableFrame@@QAE_NG@Z 0046d0c0 f   TableFrame.obj
 0001:0006c3c0       ?ElementAt@?$CWHArray@PAUIServerUserItem@@ABQAU1@@@QAEAAPAUIServerUserItem@@H@Z 0046d3c0 f i TableFrame.obj
 0001:0006c440       ?ElementAt@?$CWHArray@PAUtagGameScoreRecord@@ABQAU1@@@QAEAAPAUtagGameScoreRecord@@H@Z 0046d440 f i TableFrame.obj
 0001:0006c4c0       ?EnumLookonUserItem@CTableFrame@@UAEPAUIServerUserItem@@G@Z 0046d4c0 f   TableFrame.obj
 0001:0006c520       ?GetAsSystemTime@CTime@ATL@@QBE_NAAU_SYSTEMTIME@@@Z 0046d520 f i TableFrame.obj
 0001:0006c610       ?GetAssocAt@?$CMap@KK_JAA_J@@IBEPAVCAssoc@1@KAAI0@Z 0046d610 f i TableFrame.obj
 0001:0006c6c0       ?GetCellScore@CTableFrame@@UAEJXZ 0046d6c0 f i TableFrame.obj
 0001:0006c6f0       ?GetChairCount@CTableFrame@@UAEGXZ 0046d6f0 f i TableFrame.obj
 0001:0006c710       ?GetCompilation@CTableFrame@@UAEPBDXZ 0046d710 f i TableFrame.obj
 0001:0006c730       ?GetCount@?$CWHArray@PAUIServerUserItem@@ABQAU1@@@QBEHXZ 0046d730 f i TableFrame.obj
 0001:0006c750       ?GetCount@?$CWHArray@PAUtagGameScoreRecord@@ABQAU1@@@QBEHXZ 0046d750 f i TableFrame.obj
 0001:0006c770       ?GetCustomRule@CTableFrame@@UAEPAXXZ 0046d770 f i TableFrame.obj
 0001:0006c7a0       ?GetDataBaseMode@CTableFrame@@UAEEXZ 0046d7a0 f   TableFrame.obj
 0001:0006c7d0       ?GetDrawCount@CTableFrame@@UAEGXZ 0046d7d0 f   TableFrame.obj
 0001:0006c800       ?GetDrawCountLimit@CTableFrame@@UAEKXZ 0046d800 f i TableFrame.obj
 0001:0006c830       ?GetGameMatchOption@CTableFrame@@UAEPAUtagGameMatchOption@@XZ 0046d830 f i TableFrame.obj
 0001:0006c860       ?GetGameMode@CTableFrame@@UAEEXZ 0046d860 f i TableFrame.obj
 0001:0006c890       ?GetGameRule@CTableFrame@@UAEPAEXZ 0046d890 f   TableFrame.obj
 0001:0006c8c0       ?GetGameServiceAttrib@CTableFrame@@UAEPAUtagGameServiceAttrib@@XZ 0046d8c0 f i TableFrame.obj
 0001:0006c8f0       ?GetGameServiceOption@CTableFrame@@UAEPAUtagGameServiceOption@@XZ 0046d8f0 f i TableFrame.obj
 0001:0006c920       ?GetGameStatus@CTableFrame@@UAEEXZ 0046d920 f i TableFrame.obj
 0001:0006c950       ?GetHostAddr@CTableFrame@@UAEKXZ 0046d950 f   TableFrame.obj
 0001:0006c980       ?GetLocalTm@CTime@ATL@@QBEPAUtm@@PAU3@@Z 0046d980 f i TableFrame.obj
 0001:0006ca80       ?GetLookonUserCount@CTableFrame@@QAEGXZ 0046da80 f   TableFrame.obj
 0001:0006cac0       ?GetLoopCount@CTableFrame@@UAEEXZ 0046dac0 f i TableFrame.obj
 0001:0006caf0       ?GetNextAssoc@?$CMap@KK_JAA_J@@QBEXAAPAU__POSITION@@AAKAA_J@Z 0046daf0 f i TableFrame.obj
 0001:0006cd40       ?GetNullChairCount@CTableFrame@@UAEGXZ 0046dd40 f i TableFrame.obj
 0001:0006cd70       ?GetNullChairID@CTableFrame@@UAEGXZ 0046dd70 f   TableFrame.obj
 0001:0006cde0       ?GetOffLineUserCount@CTableFrame@@QAEGXZ 0046dde0 f   TableFrame.obj
 0001:0006ce60       ?GetPayRoomCardMode@CTableFrame@@UAEEXZ 0046de60 f i TableFrame.obj
 0001:0006ce90       ?GetPersonalRoomGUID@CTableFrame@@UAEPADXZ 0046de90 f   TableFrame.obj
 0001:0006cec0       ?GetPersonalRoomID@CTableFrame@@UAEKXZ 0046dec0 f   TableFrame.obj
 0001:0006cef0       ?GetPersonalScore@CTableFrame@@UAE_NKAA_J@Z 0046def0 f   TableFrame.obj
 0001:0006cf70       ?GetPersonalTableParameter@CTableFrame@@UAE?AUtagPersonalTableParameter@@XZ 0046df70 f   TableFrame.obj
 0001:0006d010       ?GetRandNullChairID@CTableFrame@@QAEGXZ 0046e010 f   TableFrame.obj
 0001:0006d0c0       ?GetRecordTableOwner@CTableFrame@@UAEKXZ 0046e0c0 f   TableFrame.obj
 0001:0006d0f0       ?GetSitUserCount@CTableFrame@@QAEGXZ 0046e0f0 f   TableFrame.obj
 0001:0006d170       ?GetSpeicalInfo@CTableFrame@@UAEXPAEH@Z 0046e170 f   TableFrame.obj
 0001:0006d1c0       ?GetStartMode@CTableFrame@@UAEEXZ 0046e1c0 f i TableFrame.obj
 0001:0006d1e0       ?GetStartPosition@?$CMap@KK_JAA_J@@QBEPAU__POSITION@@XZ 0046e1e0 f i TableFrame.obj
 0001:0006d220       ?GetTableFrameHook@CTableFrame@@UAEPAUIUnknownEx@@XZ 0046e220 f i TableFrame.obj
 0001:0006d250       ?GetTableID@CTableFrame@@UAEGXZ 0046e250 f i TableFrame.obj
 0001:0006d270       ?GetTableOwner@CTableFrame@@UAEKXZ 0046e270 f i TableFrame.obj
 0001:0006d2a0       ?GetTableUserInfo@CTableFrame@@QAEGAAUtagTableUserInfo@@@Z 0046e2a0 f   TableFrame.obj
 0001:0006d440       ?GetTableUserItem@CTableFrame@@UAEPAUIServerUserItem@@G@Z 0046e440 f   TableFrame.obj
 0001:0006d4c0       ?HostDissumeGame@CTableFrame@@UAEXH@Z 0046e4c0 f   TableFrame.obj
 0001:0006da20       ?ImitateGameOption@CTableFrame@@UAE_NPAUIServerUserItem@@@Z 0046ea20 f   TableFrame.obj
 0001:0006db40       ?InitHashTable@?$CMap@KK_JAA_J@@QAEXIH@Z 0046eb40 f i TableFrame.obj
 0001:0006dcc0       ?InitializationFrame@CTableFrame@@QAE_NGAAUtagTableFrameParameter@@@Z 0046ecc0 f   TableFrame.obj
 0001:0006e130       ?IsDrawStarted@CTableFrame@@UAE_NXZ 0046f130 f i TableFrame.obj
 0001:0006e150       ?IsGameStarted@CTableFrame@@UAE_NXZ 0046f150 f i TableFrame.obj
 0001:0006e170       ?IsPersonalRoomDisumme@CTableFrame@@UAE_NXZ 0046f170 f   TableFrame.obj
 0001:0006e1a0       ?IsPersonalTableLocked@CTableFrame@@UAE_NXZ 0046f1a0 f i TableFrame.obj
 0001:0006e1d0       ?IsTableLocked@CTableFrame@@UAE_NXZ 0046f1d0 f   TableFrame.obj
 0001:0006e270       ?IsTableStarted@CTableFrame@@UAE_NXZ 0046f270 f i TableFrame.obj
 0001:0006e290       ?KillGameTimer@CTableFrame@@UAE_NK@Z 0046f290 f   TableFrame.obj
 0001:0006e590       ?Lookup@?$CMap@KK_JAA_J@@QBEHKAA_J@Z 0046f590 f i TableFrame.obj
 0001:0006e610       ?NewAssoc@?$CMap@KK_JAA_J@@IAEPAVCAssoc@1@K@Z 0046f610 f i TableFrame.obj
 0001:0006e7d0       ?OnEventSocketFrame@CTableFrame@@QAE_NGPAXGPAUIServerUserItem@@@Z 0046f7d0 f   TableFrame.obj
 0001:00070730       ?OnEventSocketGame@CTableFrame@@QAE_NGPAXGPAUIServerUserItem@@@Z 00471730 f   TableFrame.obj
 0001:000707e0       ?OnEventTimer@CTableFrame@@QAE_NKI@Z 004717e0 f   TableFrame.obj
 0001:00071010       ?OnEventUserOffLine@CTableFrame@@QAE_NPAUIServerUserItem@@@Z 00472010 f   TableFrame.obj
 0001:00071560       ?OnUserScroeNotify@CTableFrame@@UAE_NGPAUIServerUserItem@@E@Z 00472560 f   TableFrame.obj
 0001:000715b0       ?PerformLookonAction@CTableFrame@@UAE_NGPAUIServerUserItem@@@Z 004725b0 f   TableFrame.obj
 0001:00071c20       ?PerformSitDownAction@CTableFrame@@UAE_NGPAUIServerUserItem@@PBDK@Z 00472c20 f   TableFrame.obj
 0001:00073450       ?PerformStandUpAction@CTableFrame@@UAE_NPAUIServerUserItem@@_N@Z 00474450 f   TableFrame.obj
 0001:00074550       ?QueryConsumeQuota@CTableFrame@@UAE_JPAUIServerUserItem@@@Z 00475550 f   TableFrame.obj
 0001:00074710       ?QueryInterface@CTableFrame@@UAEPAXABU_GUID@@K@Z 00475710 f   TableFrame.obj
 0001:00074815       ?QueryInterface@CTableFrame@@W3AEPAXABU_GUID@@K@Z 00475815 f i TableFrame.obj
 0001:00074820       ?RecordGameScore@CTableFrame@@QAEX_NK@Z 00475820 f   TableFrame.obj
 0001:00074c30       ?Release@CTableFrame@@UAEXXZ 00475c30 f i TableFrame.obj
 0001:00074c83       ?Release@CTableFrame@@W3AEXXZ 00475c83 f i TableFrame.obj
 0001:00074c90       ?RemoveAll@?$CMap@KK_JAA_J@@QAEXXZ 00475c90 f i TableFrame.obj
 0001:00074d80       ?RemoveAll@?$CWHArray@PAUtagGameScoreRecord@@ABQAU1@@@QAEXXZ 00475d80 f i TableFrame.obj
 0001:00074e00       ?RemoveAt@?$CWHArray@PAUIServerUserItem@@ABQAU1@@@QAEXHH@Z 00475e00 f i TableFrame.obj
 0001:00074f40       ?RemoveAt@?$CWHArray@PAUtagGameScoreRecord@@ABQAU1@@@QAEXHH@Z 00475f40 f i TableFrame.obj
 0001:00075080       ?SearchUserItem@CTableFrame@@UAEPAUIServerUserItem@@K@Z 00476080 f   TableFrame.obj
 0001:00075180       ?SendChatMessage@CTableFrame@@UAE_NPAUIServerUserItem@@0KPBDPAD@Z 00476180 f   TableFrame.obj
 0001:00075580       ?SendGameMessage@CTableFrame@@UAE_NPAUIServerUserItem@@PBDG@Z 00476580 f   TableFrame.obj
 0001:00075600       ?SendGameMessage@CTableFrame@@UAE_NPBDG@Z 00476600 f   TableFrame.obj
 0001:000757b0       ?SendGameScene@CTableFrame@@UAE_NPAUIServerUserItem@@PAXG@Z 004767b0 f   TableFrame.obj
 0001:000758a0       ?SendLookonData@CTableFrame@@UAE_NGG@Z 004768a0 f   TableFrame.obj
 0001:000759f0       ?SendLookonData@CTableFrame@@UAE_NGGPAXG@Z 004769f0 f   TableFrame.obj
 0001:00075b00       ?SendRequestFailure@CTableFrame@@QAE_NPAUIServerUserItem@@PBDJ@Z 00476b00 f   TableFrame.obj
 0001:00075bf0       ?SendRoomData@CTableFrame@@UAE_NPAUIServerUserItem@@G@Z 00476bf0 f   TableFrame.obj
 0001:00075c70       ?SendRoomData@CTableFrame@@UAE_NPAUIServerUserItem@@GPAXG@Z 00476c70 f   TableFrame.obj
 0001:00075d80       ?SendRoomMessage@CTableFrame@@UAE_NPAUIServerUserItem@@PBDG@Z 00476d80 f   TableFrame.obj
 0001:00075e00       ?SendTableData@CTableFrame@@UAE_NGG@Z 00476e00 f   TableFrame.obj
 0001:00076000       ?SendTableData@CTableFrame@@UAE_NGGPAXGG@Z 00477000 f   TableFrame.obj
 0001:00076180       ?SendTableStatus@CTableFrame@@QAE_NXZ 00477180 f   TableFrame.obj
 0001:00076290       ?SendUserItemData@CTableFrame@@UAE_NPAUIServerUserItem@@G@Z 00477290 f   TableFrame.obj
 0001:000763a0       ?SendUserItemData@CTableFrame@@UAE_NPAUIServerUserItem@@GPAXG@Z 004773a0 f   TableFrame.obj
 0001:000764c0       ?Serialize@?$CMap@KK_JAA_J@@UAEXAAVCArchive@@@Z 004774c0 f i TableFrame.obj
 0001:00076670       ?SetAt@?$CMap@KK_JAA_J@@QAEXKAA_J@Z 00477670 f i TableFrame.obj
 0001:000766b0       ?SetAtGrow@?$CWHArray@PAUIServerUserItem@@ABQAU1@@@QAEXHABQAUIServerUserItem@@@Z 004776b0 f i TableFrame.obj
 0001:00076740       ?SetAtGrow@?$CWHArray@PAUtagGameScoreRecord@@ABQAU1@@@QAEXHABQAUtagGameScoreRecord@@@Z 00477740 f i TableFrame.obj
 0001:000767d0       ?SetCellScore@CTableFrame@@UAEXJ@Z 004777d0 f   TableFrame.obj
 0001:00076840       ?SetCreatePersonalTime@CTableFrame@@UAEXU_SYSTEMTIME@@@Z 00477840 f   TableFrame.obj
 0001:00076890       ?SetDataBaseMode@CTableFrame@@UAEXE@Z 00477890 f   TableFrame.obj
 0001:000768c0       ?SetGameRule@CTableFrame@@UAEXPAEH@Z 004778c0 f   TableFrame.obj
 0001:00076900       ?SetGameStatus@CTableFrame@@UAEXE@Z 00477900 f i TableFrame.obj
 0001:00076930       ?SetGameTimer@CTableFrame@@UAE_NKKKI@Z 00477930 f   TableFrame.obj
 0001:000769f0       ?SetHostAddr@CTableFrame@@UAEXK@Z 004779f0 f   TableFrame.obj
 0001:00076a20       ?SetLoopCount@CTableFrame@@UAEXE@Z 00477a20 f i TableFrame.obj
 0001:00076a50       ?SetPayRoomCardMode@CTableFrame@@UAEXEJE@Z 00477a50 f i TableFrame.obj
 0001:00076aa0       ?SetPersonalRoomGUID@CTableFrame@@UAEXPADH@Z 00477aa0 f   TableFrame.obj
 0001:00076ae0       ?SetPersonalRoomID@CTableFrame@@UAEXK@Z 00477ae0 f   TableFrame.obj
 0001:00076b60       ?SetPersonalTable@CTableFrame@@UAEXKK_J@Z 00477b60 f   TableFrame.obj
 0001:00076bc0       ?SetPersonalTableLocked@CTableFrame@@UAEX_N@Z 00477bc0 f i TableFrame.obj
 0001:00076bf0       ?SetPersonalTableParameter@CTableFrame@@UAEXUtagPersonalTableParameter@@UtagPersonalRoomOption@@@Z 00477bf0 f   TableFrame.obj
 0001:00076d30       ?SetPersonalTablePassword@CTableFrame@@UAEXPAUtagRoomPassword@@@Z 00477d30 f i TableFrame.obj
 0001:00076d70       ?SetSize@?$CWHArray@PAUIServerUserItem@@ABQAU1@@@QAEXH@Z 00477d70 f i TableFrame.obj
 0001:00076e90       ?SetSize@?$CWHArray@PAUtagGameScoreRecord@@ABQAU1@@@QAEXH@Z 00477e90 f i TableFrame.obj
 0001:00076fb0       ?SetStartMode@CTableFrame@@UAEXE@Z 00477fb0 f i TableFrame.obj
 0001:00076fe0       ?SetTableChairCount@CTableFrame@@UAEXG@Z 00477fe0 f   TableFrame.obj
 0001:00077030       ?SetTableFrameHook@CTableFrame@@UAE_NPAUIUnknownEx@@@Z 00478030 f   TableFrame.obj
 0001:000771b0       ?SetTableOwner@CTableFrame@@UAEXK@Z 004781b0 f i TableFrame.obj
 0001:000771e0       ?SetTimerNotBeginAfterCreate@CTableFrame@@UAEXXZ 004781e0 f   TableFrame.obj
 0001:00077240       ?StartGame@CTableFrame@@UAE_NXZ 00478240 f   TableFrame.obj
 0001:00077800       ?WriteTableScore@CTableFrame@@UAE_NQAUtagScoreInfo@@G@Z 00478800 f   TableFrame.obj
 0001:00077920       ?WriteTableVideoData@CTableFrame@@UAE_NPADGGPAEG@Z 00478920 f   TableFrame.obj
 0001:000779d0       ?WriteTableVideoPlayer@CTableFrame@@UAE_NKPAD@Z 004789d0 f   TableFrame.obj
 0001:00077a70       ?WriteUserScore@CTableFrame@@UAE_NGAAUtagScoreInfo@@KK@Z 00478a70 f   TableFrame.obj
 0001:00078710       __vsprintf_l               00479710 f i TableFrame.obj
 0001:00078780       _sprintf                   00479780 f i TableFrame.obj
 0001:000787f4       ??0CWHDataLocker@@QAE@AAVCCriticalSection@@_N@Z 004797f4 f   ServiceCore:ServiceCore.dll
 0001:000787fa       ??1CWHDataLocker@@UAE@XZ   004797fa f   ServiceCore:ServiceCore.dll
 0001:00078800       ?GetWorkDirectory@CWHService@@SA_NQADG@Z 00479800 f   ServiceCore:ServiceCore.dll
 0001:00078806       ??0CWHIniData@@QAE@XZ      00479806 f   ServiceCore:ServiceCore.dll
 0001:0007880c       ??1CWHIniData@@UAE@XZ      0047980c f   ServiceCore:ServiceCore.dll
 0001:00078812       ?SetIniFilePath@CWHIniData@@QAEXPBD@Z 00479812 f   ServiceCore:ServiceCore.dll
 0001:00078818       ?ReadInt@CWHIniData@@QAEIPBD0H@Z 00479818 f   ServiceCore:ServiceCore.dll
 0001:0007881e       ?ReadEncryptString@CWHIniData@@QAEPBDPBD00PADG@Z 0047981e f   ServiceCore:ServiceCore.dll
 0001:00078824       ??0CWHCommandLine@@QAE@XZ  00479824 f   ServiceCore:ServiceCore.dll
 0001:0007882a       ??1CWHCommandLine@@UAE@XZ  0047982a f   ServiceCore:ServiceCore.dll
 0001:00078830       ?SearchCommandItem@CWHCommandLine@@QAE_NPBD0QADG@Z 00479830 f   ServiceCore:ServiceCore.dll
 0001:00078836       ?XorCrevasse@CWHEncrypt@@SA_NPBDPADG@Z 00479836 f   ServiceCore:ServiceCore.dll
 0001:0007883c       ??0CWHDataQueue@@QAE@XZ    0047983c f   ServiceCore:ServiceCore.dll
 0001:00078842       ??1CWHDataQueue@@UAE@XZ    00479842 f   ServiceCore:ServiceCore.dll
 0001:00078848       ?InsertData@CWHDataQueue@@QAE_NGPAXG@Z 00479848 f   ServiceCore:ServiceCore.dll
 0001:0007884e       ?DistillData@CWHDataQueue@@QAE_NAAUtagDataHead@@PAXG@Z 0047984e f   ServiceCore:ServiceCore.dll
 0001:00078854       ?TraceString@CTraceService@@SA_NPBDW4enTraceLevel@@@Z 00479854 f   KernelEngine:KernelEngine.dll
 0001:0007885a       ??0CDataBaseAide@@QAE@PAUIUnknownEx@@@Z 0047985a f   KernelEngine:KernelEngine.dll
 0001:00078860       ??1CDataBaseAide@@UAE@XZ   00479860 f   KernelEngine:KernelEngine.dll
 0001:00078866       ?SetDataBase@CDataBaseAide@@QAE_NPAUIUnknownEx@@@Z 00479866 f   KernelEngine:KernelEngine.dll
 0001:0007886c       ?GetValue_INT@CDataBaseAide@@QAEHPBD@Z 0047986c f   KernelEngine:KernelEngine.dll
 0001:00078872       ?GetValue_LONG@CDataBaseAide@@QAEJPBD@Z 00479872 f   KernelEngine:KernelEngine.dll
 0001:00078878       ?GetValue_BYTE@CDataBaseAide@@QAEEPBD@Z 00479878 f   KernelEngine:KernelEngine.dll
 0001:0007887e       ?GetValue_WORD@CDataBaseAide@@QAEGPBD@Z 0047987e f   KernelEngine:KernelEngine.dll
 0001:00078884       ?GetValue_DWORD@CDataBaseAide@@QAEKPBD@Z 00479884 f   KernelEngine:KernelEngine.dll
 0001:0007888a       ?GetValue_DOUBLE@CDataBaseAide@@QAENPBD@Z 0047988a f   KernelEngine:KernelEngine.dll
 0001:00078890       ?GetValue_LONGLONG@CDataBaseAide@@QAE_JPBD@Z 00479890 f   KernelEngine:KernelEngine.dll
 0001:00078896       ?GetValue_SystemTime@CDataBaseAide@@QAEXPBDAAU_SYSTEMTIME@@@Z 00479896 f   KernelEngine:KernelEngine.dll
 0001:0007889c       ?GetValue_String@CDataBaseAide@@QAEXPBDPADI@Z 0047989c f   KernelEngine:KernelEngine.dll
 0001:000788a2       ?ResetParameter@CDataBaseAide@@QAEXXZ 004798a2 f   KernelEngine:KernelEngine.dll
 0001:000788a8       ?GetParameter@CDataBaseAide@@QAEXPBDAAV_variant_t@@@Z 004798a8 f   KernelEngine:KernelEngine.dll
 0001:000788ae       ?AddParameter@CDataBaseAide@@QAEXPBDHW4ParameterDirectionEnum@ADOCG@@@Z 004798ae f   KernelEngine:KernelEngine.dll
 0001:000788b4       ?AddParameter@CDataBaseAide@@QAEXPBDJW4ParameterDirectionEnum@ADOCG@@@Z 004798b4 f   KernelEngine:KernelEngine.dll
 0001:000788ba       ?AddParameter@CDataBaseAide@@QAEXPBD_JW4ParameterDirectionEnum@ADOCG@@@Z 004798ba f   KernelEngine:KernelEngine.dll
 0001:000788c0       ?AddParameter@CDataBaseAide@@QAEXPBDEW4ParameterDirectionEnum@ADOCG@@@Z 004798c0 f   KernelEngine:KernelEngine.dll
 0001:000788c6       ?AddParameter@CDataBaseAide@@QAEXPBDGW4ParameterDirectionEnum@ADOCG@@@Z 004798c6 f   KernelEngine:KernelEngine.dll
 0001:000788cc       ?AddParameter@CDataBaseAide@@QAEXPBDKW4ParameterDirectionEnum@ADOCG@@@Z 004798cc f   KernelEngine:KernelEngine.dll
 0001:000788d2       ?AddParameter@CDataBaseAide@@QAEXPBDNW4ParameterDirectionEnum@ADOCG@@@Z 004798d2 f   KernelEngine:KernelEngine.dll
 0001:000788d8       ?AddParameter@CDataBaseAide@@QAEXPBD0W4ParameterDirectionEnum@ADOCG@@@Z 004798d8 f   KernelEngine:KernelEngine.dll
 0001:000788de       ?AddParameter@CDataBaseAide@@QAEXPBDAAU_SYSTEMTIME@@W4ParameterDirectionEnum@ADOCG@@@Z 004798de f   KernelEngine:KernelEngine.dll
 0001:000788e4       ?AddParameterOutput@CDataBaseAide@@QAEXPBDPADIW4ParameterDirectionEnum@ADOCG@@@Z 004798e4 f   KernelEngine:KernelEngine.dll
 0001:000788ea       ?GetReturnValue@CDataBaseAide@@QAEJXZ 004798ea f   KernelEngine:KernelEngine.dll
 0001:000788f0       ?ExecuteProcess@CDataBaseAide@@QAEJPBD_N@Z 004798f0 f   KernelEngine:KernelEngine.dll
 0001:000788f6       ??0CTraceServiceControl@@QAE@XZ 004798f6 f   KernelEngine:KernelEngine.dll
 0001:000788fc       ??1CTraceServiceControl@@UAE@XZ 004798fc f   KernelEngine:KernelEngine.dll
 0001:00078902       ?GetParameter@CDataBaseAide@@QAEXPBDPADI@Z 00479902 f   KernelEngine:KernelEngine.dll
 0001:00078908       ??0CDlgServerItem@@QAE@XZ  00479908 f   ModuleManager:ModuleManager.dll
 0001:0007890e       ??1CDlgServerItem@@UAE@XZ  0047990e f   ModuleManager:ModuleManager.dll
 0001:00078914       ?OpenGameServer@CDlgServerItem@@QAE_NXZ 00479914 f   ModuleManager:ModuleManager.dll
 0001:0007891a       ?OpenGameServer@CDlgServerItem@@QAE_NG@Z 0047991a f   ModuleManager:ModuleManager.dll
 0001:00078920       ?LoadPersonalRoomPatameter@CDlgServerItem@@QAE_NG@Z 00479920 f   ModuleManager:ModuleManager.dll
 0001:00078926       ??0CDlgServerMatch@@QAE@XZ 00479926 f   ModuleManager:ModuleManager.dll
 0001:0007892c       ??1CDlgServerMatch@@UAE@XZ 0047992c f   ModuleManager:ModuleManager.dll
 0001:00078932       ?OpenGameMatch@CDlgServerMatch@@QAE_NAAUtagGameServiceAttrib@@AAUtagGameServiceOption@@@Z 00479932 f   ModuleManager:ModuleManager.dll
 0001:00078938       ??0CDlgServerWizard@@QAE@XZ 00479938 f   ModuleManager:ModuleManager.dll
 0001:0007893e       ??1CDlgServerWizard@@UAE@XZ 0047993e f   ModuleManager:ModuleManager.dll
 0001:00078944       ?CreateGameServer@CDlgServerWizard@@QAE_NXZ 00479944 f   ModuleManager:ModuleManager.dll
 0001:0007894a       ?SetWizardParameter@CDlgServerWizard@@QAEXPAUIGameServiceManager@@PAUtagGameServiceOption@@@Z 0047994a f   ModuleManager:ModuleManager.dll
 0001:00078950       ?SetPersonalRoomParameter@CDlgServerWizard@@QAEXUtagPersonalRoomOption@@UtagPersonalRoomOptionRightAndFee@@@Z 00479950 f   ModuleManager:ModuleManager.dll
 0001:00078956       ??0CModuleDBParameter@@QAE@XZ 00479956 f   ModuleManager:ModuleManager.dll
 0001:0007895c       ??1CModuleDBParameter@@UAE@XZ 0047995c f   ModuleManager:ModuleManager.dll
 0001:00078962       ?SetPlatformDBParameter@CModuleDBParameter@@QAEXAAUtagDataBaseParameter@@@Z 00479962 f   ModuleManager:ModuleManager.dll
 0001:00078968       ?GetPlatformDBParameter@CModuleDBParameter@@QAEPAUtagDataBaseParameter@@XZ 00479968 f   ModuleManager:ModuleManager.dll
 0001:0007896e       ?GetModuleDBParameter@CModuleDBParameter@@SAPAV1@XZ 0047996e f   ModuleManager:ModuleManager.dll
 0001:00078974       ??0CUserTaskManager@@QAE@XZ 00479974 f   GameService:GameService.dll
 0001:0007897a       ??1CUserTaskManager@@UAE@XZ 0047997a f   GameService:GameService.dll
 0001:00078980       ?ResetTaskManager@CUserTaskManager@@QAEXXZ 00479980 f   GameService:GameService.dll
 0001:00078986       ??0CServerUserManager@@QAE@XZ 00479986 f   GameService:GameService.dll
 0001:0007898c       ??1CServerUserManager@@UAE@XZ 0047998c f   GameService:GameService.dll
 0001:00078992       ??0CAndroidUserManager@@QAE@XZ 00479992 f   GameService:GameService.dll
 0001:00078998       ??1CAndroidUserManager@@UAE@XZ 00479998 f   GameService:GameService.dll
 0001:0007899e       ?SetMainServiceFrame@CAndroidUserManager@@QAEXPAUIMainServiceFrame@@@Z 0047999e f   GameService:GameService.dll
 0001:000789a4       ?GetAndroidParameter@CAndroidUserManager@@QAEPAUtagAndroidParameterEx@@K@Z 004799a4 f   GameService:GameService.dll
 0001:000789aa       ??0CGamePropertyManager@@QAE@XZ 004799aa f   GameService:GameService.dll
 0001:000789b0       ??1CGamePropertyManager@@UAE@XZ 004799b0 f   GameService:GameService.dll
 0001:000789b6       ?SetGamePropertyBuff@CGamePropertyManager@@QAE_NKQBUtagPropertyBuff@@G@Z 004799b6 f   GameService:GameService.dll
 0001:000789bc       ?ClearUserBuff@CGamePropertyManager@@QAE_NK@Z 004799bc f   GameService:GameService.dll
 0001:000789c2       ?SearchPropertyItem@CGamePropertyManager@@QAEPAUtagPropertyInfo@@G@Z 004799c2 f   GameService:GameService.dll
 0001:000789c8       ?SearchValidPropertyBuff@CGamePropertyManager@@SAPAUtagPropertyBuff@@KW4PROP_KIND@@@Z 004799c8 f   GameService:GameService.dll
 0001:000789ce       ??_U@YAPAXI@Z              004799ce f   mfc140d:mfc140d.dll
 0001:000789d4       ??_V@YAXPAX@Z              004799d4 f   mfc140d:mfc140d.dll
 0001:000789da       ?AfxAssertValidObject@@YGXPBVCObject@@PBDH@Z 004799da f   mfc140d:mfc140d.dll
 0001:000789e0       ?AfxThrowInvalidArgException@@YGXXZ 004799e0 f   mfc140d:mfc140d.dll
 0001:000789e6       ?GetRuntimeClass@CObject@@UBEPAUCRuntimeClass@@XZ 004799e6 f   mfc140d:mfc140d.dll
 0001:000789ec       ??1CObject@@UAE@XZ         004799ec f   mfc140d:mfc140d.dll
 0001:000789f2       ??3CObject@@SGXPAX@Z       004799f2 f   mfc140d:mfc140d.dll
 0001:000789f8       ??0CObject@@IAE@XZ         004799f8 f   mfc140d:mfc140d.dll
 0001:000789fe       ?Serialize@CObject@@UAEXAAVCArchive@@@Z 004799fe f   mfc140d:mfc140d.dll
 0001:00078a04       ?AssertValid@CObject@@UBEXXZ 00479a04 f   mfc140d:mfc140d.dll
 0001:00078a0a       ?Dump@CObject@@UBEXAAVCDumpContext@@@Z 00479a0a f   mfc140d:mfc140d.dll
 0001:00078a10       ??B?$CSimpleStringT@D$00@ATL@@QBEPBDXZ 00479a10 f   mfc140d:mfc140d.dll
 0001:00078a16       ?Append@?$CSimpleStringT@D$00@ATL@@QAEXPBD@Z 00479a16 f   mfc140d:mfc140d.dll
 0001:00078a1c       ?GetLength@?$CSimpleStringT@D$00@ATL@@QBEHXZ 00479a1c f   mfc140d:mfc140d.dll
 0001:00078a22       ??0?$CStringT@DV?$StrTraitMFC_DLL@DV?$ChTraitsCRT@D@ATL@@@@@ATL@@QAE@XZ 00479a22 f   mfc140d:mfc140d.dll
 0001:00078a28       ??0?$CStringT@DV?$StrTraitMFC_DLL@DV?$ChTraitsCRT@D@ATL@@@@@ATL@@QAE@PBD@Z 00479a28 f   mfc140d:mfc140d.dll
 0001:00078a2e       ??1?$CStringT@DV?$StrTraitMFC_DLL@DV?$ChTraitsCRT@D@ATL@@@@@ATL@@QAE@XZ 00479a2e f   mfc140d:mfc140d.dll
 0001:00078a34       ?Trim@?$CStringT@DV?$StrTraitMFC_DLL@DV?$ChTraitsCRT@D@ATL@@@@@ATL@@QAEAAV12@XZ 00479a34 f   mfc140d:mfc140d.dll
 0001:00078a3a       ?Format@?$CStringT@DV?$StrTraitMFC_DLL@DV?$ChTraitsCRT@D@ATL@@@@@ATL@@QAAXPBDZZ 00479a3a f   mfc140d:mfc140d.dll
 0001:00078a40       ?AfxIsValidAddress@@YGHPBXIH@Z 00479a40 f   mfc140d:mfc140d.dll
 0001:00078a46       ??2@YAPAXIPBDH@Z           00479a46 f   mfc140d:mfc140d.dll
 0001:00078a4c       ??3@YAXPAXPBDH@Z           00479a4c f   mfc140d:mfc140d.dll
 0001:00078a52       ??_U@YAPAXIPBDH@Z          00479a52 f   mfc140d:mfc140d.dll
 0001:00078a58       ?IsStoring@CArchive@@QBEHXZ 00479a58 f   mfc140d:mfc140d.dll
 0001:00078a5e       ?EnsureRead@CArchive@@QAEXPAXI@Z 00479a5e f   mfc140d:mfc140d.dll
 0001:00078a64       ?Write@CArchive@@QAEXPBXI@Z 00479a64 f   mfc140d:mfc140d.dll
 0001:00078a6a       ?ReadCount@CArchive@@QAEKXZ 00479a6a f   mfc140d:mfc140d.dll
 0001:00078a70       ?WriteCount@CArchive@@QAEXK@Z 00479a70 f   mfc140d:mfc140d.dll
 0001:00078a76       ?GetDepth@CDumpContext@@QBEHXZ 00479a76 f   mfc140d:mfc140d.dll
 0001:00078a7c       ??6CDumpContext@@QAEAAV0@PBD@Z 00479a7c f   mfc140d:mfc140d.dll
 0001:00078a82       ??6CDumpContext@@QAEAAV0@H@Z 00479a82 f   mfc140d:mfc140d.dll
 0001:00078a88       ?Create@CPlex@@SGPAU1@AAPAU1@II@Z 00479a88 f   mfc140d:mfc140d.dll
 0001:00078a8e       ?FreeDataChain@CPlex@@QAEXXZ 00479a8e f   mfc140d:mfc140d.dll
 0001:00078a94       ??3@YAXPAX@Z               00479a94 f   mfc140d:mfc140d.dll
 0001:00078a9a       ?AfxThrowMemoryException@@YGXXZ 00479a9a f   mfc140d:mfc140d.dll
 0001:00078aa0       ?AfxThrowOleException@@YGXJ@Z 00479aa0 f   mfc140d:mfc140d.dll
 0001:00078aa6       ??4?$CStringT@DV?$StrTraitMFC_DLL@DV?$ChTraitsCRT@D@ATL@@@@@ATL@@QAEAAV01@ABV01@@Z 00479aa6 f   mfc140d:mfc140d.dll
 0001:00078aac       ?Find@?$CStringT@DV?$StrTraitMFC_DLL@DV?$ChTraitsCRT@D@ATL@@@@@ATL@@QBEHDH@Z 00479aac f   mfc140d:mfc140d.dll
 0001:00078ab2       ?Right@?$CStringT@DV?$StrTraitMFC_DLL@DV?$ChTraitsCRT@D@ATL@@@@@ATL@@QBE?AV12@H@Z 00479ab2 f   mfc140d:mfc140d.dll
 0001:00078ab8       ?Left@?$CStringT@DV?$StrTraitMFC_DLL@DV?$ChTraitsCRT@D@ATL@@@@@ATL@@QBE?AV12@H@Z 00479ab8 f   mfc140d:mfc140d.dll
 0001:00078abe       ?AfxLoadLibrary@@YGPAUHINSTANCE__@@PBD@Z 00479abe f   mfc140d:mfc140d.dll
 0001:00078ac4       ?AfxFreeLibrary@@YGHPAUHINSTANCE__@@@Z 00479ac4 f   mfc140d:mfc140d.dll
 0001:00078aca       ??0CCriticalSection@@QAE@XZ 00479aca f   mfc140d:mfc140d.dll
 0001:00078ad0       ??1CCriticalSection@@UAE@XZ 00479ad0 f   mfc140d:mfc140d.dll
 0001:00078ad6       ??2@YAPAXI@Z               00479ad6 f   mfc140d:mfc140d.dll
 0001:00078adc       ?GetThisMessageMap@CWinApp@@KGPBUAFX_MSGMAP@@XZ 00479adc f   mfc140d:mfc140d.dll
 0001:00078ae2       ?OnCmdMsg@CCmdTarget@@UAEHIHPAXPAUAFX_CMDHANDLERINFO@@@Z 00479ae2 f   mfc140d:mfc140d.dll
 0001:00078ae8       ?OnFinalRelease@CCmdTarget@@UAEXXZ 00479ae8 f   mfc140d:mfc140d.dll
 0001:00078aee       ?IsInvokeAllowed@CCmdTarget@@UAEHJ@Z 00479aee f   mfc140d:mfc140d.dll
 0001:00078af4       ?GetDispatchIID@CCmdTarget@@UAEHPAU_GUID@@@Z 00479af4 f   mfc140d:mfc140d.dll
 0001:00078afa       ?GetTypeInfoCount@CCmdTarget@@UAEIXZ 00479afa f   mfc140d:mfc140d.dll
 0001:00078b00       ?GetTypeLibCache@CCmdTarget@@UAEPAVCTypeLibCache@@XZ 00479b00 f   mfc140d:mfc140d.dll
 0001:00078b06       ?GetTypeLib@CCmdTarget@@UAEJKPAPAUITypeLib@@@Z 00479b06 f   mfc140d:mfc140d.dll
 0001:00078b0c       ?GetCommandMap@CCmdTarget@@MBEPBUAFX_OLECMDMAP@@XZ 00479b0c f   mfc140d:mfc140d.dll
 0001:00078b12       ?GetDispatchMap@CCmdTarget@@MBEPBUAFX_DISPMAP@@XZ 00479b12 f   mfc140d:mfc140d.dll
 0001:00078b18       ?GetConnectionMap@CCmdTarget@@MBEPBUAFX_CONNECTIONMAP@@XZ 00479b18 f   mfc140d:mfc140d.dll
 0001:00078b1e       ?GetInterfaceMap@CCmdTarget@@MBEPBUAFX_INTERFACEMAP@@XZ 00479b1e f   mfc140d:mfc140d.dll
 0001:00078b24       ?GetEventSinkMap@CCmdTarget@@MBEPBUAFX_EVENTSINKMAP@@XZ 00479b24 f   mfc140d:mfc140d.dll
 0001:00078b2a       ?OnCreateAggregates@CCmdTarget@@UAEHXZ 00479b2a f   mfc140d:mfc140d.dll
 0001:00078b30       ?GetInterfaceHook@CCmdTarget@@UAEPAUIUnknown@@PBX@Z 00479b30 f   mfc140d:mfc140d.dll
 0001:00078b36       ?GetExtraConnectionPoints@CCmdTarget@@MAEHPAVCPtrArray@@@Z 00479b36 f   mfc140d:mfc140d.dll
 0001:00078b3c       ?GetConnectionHook@CCmdTarget@@MAEPAUIConnectionPoint@@ABU_GUID@@@Z 00479b3c f   mfc140d:mfc140d.dll
 0001:00078b42       ?AfxInitRichEdit2@@YGHXZ   00479b42 f   mfc140d:mfc140d.dll
 0001:00078b48       ?DoModal@CDialog@@UAEHXZ   00479b48 f   mfc140d:mfc140d.dll
 0001:00078b4e       ?PreTranslateMessage@CWinThread@@UAEHPAUtagMSG@@@Z 00479b4e f   mfc140d:mfc140d.dll
 0001:00078b54       ?PumpMessage@CWinThread@@UAEHXZ 00479b54 f   mfc140d:mfc140d.dll
 0001:00078b5a       ?IsIdleMessage@CWinThread@@UAEHPAUtagMSG@@@Z 00479b5a f   mfc140d:mfc140d.dll
 0001:00078b60       ?ProcessMessageFilter@CWinThread@@UAEHHPAUtagMSG@@@Z 00479b60 f   mfc140d:mfc140d.dll
 0001:00078b66       ?GetMainWnd@CWinThread@@UAEPAVCWnd@@XZ 00479b66 f   mfc140d:mfc140d.dll
 0001:00078b6c       ?Delete@CWinThread@@UAEXXZ 00479b6c f   mfc140d:mfc140d.dll
 0001:00078b72       ?GetRuntimeClass@CWinApp@@UBEPAUCRuntimeClass@@XZ 00479b72 f   mfc140d:mfc140d.dll
 0001:00078b78       ??0CWinApp@@QAE@PBD@Z      00479b78 f   mfc140d:mfc140d.dll
 0001:00078b7e       ?SetRegistryKey@CWinApp@@IAEXPBD@Z 00479b7e f   mfc140d:mfc140d.dll
 0001:00078b84       ?GetProfileIntA@CWinApp@@UAEIPBD0H@Z 00479b84 f   mfc140d:mfc140d.dll
 0001:00078b8a       ?WriteProfileInt@CWinApp@@UAEHPBD0H@Z 00479b8a f   mfc140d:mfc140d.dll
 0001:00078b90       ?GetProfileStringA@CWinApp@@UAE?AV?$CStringT@DV?$StrTraitMFC_DLL@DV?$ChTraitsCRT@D@ATL@@@@@ATL@@PBD00@Z 00479b90 f   mfc140d:mfc140d.dll
 0001:00078b96       ?WriteProfileStringA@CWinApp@@UAEHPBD00@Z 00479b96 f   mfc140d:mfc140d.dll
 0001:00078b9c       ?GetProfileBinary@CWinApp@@UAEHPBD0PAPAEPAI@Z 00479b9c f   mfc140d:mfc140d.dll
 0001:00078ba2       ?WriteProfileBinary@CWinApp@@UAEHPBD0PAEI@Z 00479ba2 f   mfc140d:mfc140d.dll
 0001:00078ba8       ?InitLibId@CWinApp@@UAEXXZ 00479ba8 f   mfc140d:mfc140d.dll
 0001:00078bae       ?Register@CWinApp@@UAEHXZ  00479bae f   mfc140d:mfc140d.dll
 0001:00078bb4       ?Unregister@CWinApp@@UAEHXZ 00479bb4 f   mfc140d:mfc140d.dll
 0001:00078bba       ?OpenDocumentFile@CWinApp@@UAEPAVCDocument@@PBD@Z 00479bba f   mfc140d:mfc140d.dll
 0001:00078bc0       ?OpenDocumentFile@CWinApp@@UAEPAVCDocument@@PBDH@Z 00479bc0 f   mfc140d:mfc140d.dll
 0001:00078bc6       ?AddToRecentFileList@CWinApp@@UAEXPBD@Z 00479bc6 f   mfc140d:mfc140d.dll
 0001:00078bcc       ?InitApplication@CWinApp@@UAEHXZ 00479bcc f   mfc140d:mfc140d.dll
 0001:00078bd2       ?SaveAllModified@CWinApp@@UAEHXZ 00479bd2 f   mfc140d:mfc140d.dll
 0001:00078bd8       ?DoMessageBox@CWinApp@@UAEHPBDII@Z 00479bd8 f   mfc140d:mfc140d.dll
 0001:00078bde       ?DoWaitCursor@CWinApp@@UAEXH@Z 00479bde f   mfc140d:mfc140d.dll
 0001:00078be4       ?OnDDECommand@CWinApp@@UAEHPAD@Z 00479be4 f   mfc140d:mfc140d.dll
 0001:00078bea       ?WinHelpA@CWinApp@@UAEXKI@Z 00479bea f   mfc140d:mfc140d.dll
 0001:00078bf0       ?HtmlHelpA@CWinApp@@UAEXKI@Z 00479bf0 f   mfc140d:mfc140d.dll
 0001:00078bf6       ?WinHelpInternal@CWinApp@@UAEXKI@Z 00479bf6 f   mfc140d:mfc140d.dll
 0001:00078bfc       ?RegisterWithRestartManager@CWinApp@@UAEJHABV?$CStringT@DV?$StrTraitMFC_DLL@DV?$ChTraitsCRT@D@ATL@@@@@ATL@@@Z 00479bfc f   mfc140d:mfc140d.dll
 0001:00078c02       ?RegisterWithRestartManager@CWinApp@@UAEJPB_WKP6GKPAX@Z1KK@Z 00479c02 f   mfc140d:mfc140d.dll
 0001:00078c08       ?ApplicationRecoveryCallback@CWinApp@@UAEKPAX@Z 00479c08 f   mfc140d:mfc140d.dll
 0001:00078c0e       ?GetDataRecoveryHandler@CWinApp@@UAEPAVCDataRecoveryHandler@@XZ 00479c0e f   mfc140d:mfc140d.dll
 0001:00078c14       ?IsTaskbarInteractionEnabled@CWinApp@@UAEHXZ 00479c14 f   mfc140d:mfc140d.dll
 0001:00078c1a       ?InitInstance@CWinApp@@UAEHXZ 00479c1a f   mfc140d:mfc140d.dll
 0001:00078c20       ?ExitInstance@CWinApp@@UAEHXZ 00479c20 f   mfc140d:mfc140d.dll
 0001:00078c26       ?RestartInstance@CWinApp@@UAEHXZ 00479c26 f   mfc140d:mfc140d.dll
 0001:00078c2c       ?Run@CWinApp@@UAEHXZ       00479c2c f   mfc140d:mfc140d.dll
 0001:00078c32       ?OnIdle@CWinApp@@UAEHJ@Z   00479c32 f   mfc140d:mfc140d.dll
 0001:00078c38       ?ProcessWndProcException@CWinApp@@UAEJPAVCException@@PBUtagMSG@@@Z 00479c38 f   mfc140d:mfc140d.dll
 0001:00078c3e       ?LoadAppLangResourceDLL@CWinApp@@UAEPAUHINSTANCE__@@XZ 00479c3e f   mfc140d:mfc140d.dll
 0001:00078c44       ??1CWinApp@@UAE@XZ         00479c44 f   mfc140d:mfc140d.dll
 0001:00078c4a       ?AssertValid@CWinApp@@UBEXXZ 00479c4a f   mfc140d:mfc140d.dll
 0001:00078c50       ?Dump@CWinApp@@UBEXAAVCDumpContext@@@Z 00479c50 f   mfc140d:mfc140d.dll
 0001:00078c56       ?LoadSysPolicies@CWinApp@@UAEHXZ 00479c56 f   mfc140d:mfc140d.dll
 0001:00078c5c       ?AfxEnableControlContainer@@YAXPAVCOccManager@@@Z 00479c5c f   mfc140d:mfc140d.dll
 0001:00078c62       ?GetThisMessageMap@CDialog@@KGPBUAFX_MSGMAP@@XZ 00479c62 f   mfc140d:mfc140d.dll
 0001:00078c68       ?DDX_Control@@YGXPAVCDataExchange@@HAAVCWnd@@@Z 00479c68 f   mfc140d:mfc140d.dll
 0001:00078c6e       ?PreSubclassWindow@CWnd@@UAEXXZ 00479c6e f   mfc140d:mfc140d.dll
 0001:00078c74       ?Create@CWnd@@UAEHPBD0KABUtagRECT@@PAV1@IPAUCCreateContext@@@Z 00479c74 f   mfc140d:mfc140d.dll
 0001:00078c7a       ?CreateEx@CWnd@@UAEHKPBD0KHHHHPAUHWND__@@PAUHMENU__@@PAX@Z 00479c7a f   mfc140d:mfc140d.dll
 0001:00078c80       ?CreateEx@CWnd@@UAEHKPBD0KABUtagRECT@@PAV1@IPAX@Z 00479c80 f   mfc140d:mfc140d.dll
 0001:00078c86       ?DestroyWindow@CWnd@@UAEHXZ 00479c86 f   mfc140d:mfc140d.dll
 0001:00078c8c       ?PreCreateWindow@CWnd@@UAEHAAUtagCREATESTRUCTA@@@Z 00479c8c f   mfc140d:mfc140d.dll
 0001:00078c92       ?CalcWindowRect@CWnd@@UAEXPAUtagRECT@@I@Z 00479c92 f   mfc140d:mfc140d.dll
 0001:00078c98       ?GetDlgItem@CWnd@@QBEPAV1@H@Z 00479c98 f   mfc140d:mfc140d.dll
 0001:00078c9e       ?PostMessageA@CWnd@@QAEHIIJ@Z 00479c9e f   mfc140d:mfc140d.dll
 0001:00078ca4       ?SetWindowTextA@CWnd@@QAEXPBD@Z 00479ca4 f   mfc140d:mfc140d.dll
 0001:00078caa       ?GetMenu@CWnd@@UBEPAVCMenu@@XZ 00479caa f   mfc140d:mfc140d.dll
 0001:00078cb0       ?SetMenu@CWnd@@UAEHPAVCMenu@@@Z 00479cb0 f   mfc140d:mfc140d.dll
 0001:00078cb6       ?OnToolHitTest@CWnd@@UBEHVCPoint@@PAUtagTOOLINFOA@@@Z 00479cb6 f   mfc140d:mfc140d.dll
 0001:00078cbc       ?EnableWindow@CWnd@@QAEHH@Z 00479cbc f   mfc140d:mfc140d.dll
 0001:00078cc2       ?SetDlgItemInt@CWnd@@QAEXHIH@Z 00479cc2 f   mfc140d:mfc140d.dll
 0001:00078cc8       ?SetDlgItemTextA@CWnd@@QAEXHPBD@Z 00479cc8 f   mfc140d:mfc140d.dll
 0001:00078cce       ?GetScrollBarCtrl@CWnd@@UBEPAVCScrollBar@@H@Z 00479cce f   mfc140d:mfc140d.dll
 0001:00078cd4       ?SetIcon@CWnd@@QAEPAUHICON__@@PAU2@H@Z 00479cd4 f   mfc140d:mfc140d.dll
 0001:00078cda       ?WinHelpA@CWnd@@UAEXKI@Z   00479cda f   mfc140d:mfc140d.dll
 0001:00078ce0       ?HtmlHelpA@CWnd@@UAEXKI@Z  00479ce0 f   mfc140d:mfc140d.dll
 0001:00078ce6       ?WinHelpInternal@CWnd@@UAEXKI@Z 00479ce6 f   mfc140d:mfc140d.dll
 0001:00078cec       ?ContinueModal@CWnd@@UAEHXZ 00479cec f   mfc140d:mfc140d.dll
 0001:00078cf2       ?EndModalLoop@CWnd@@UAEXH@Z 00479cf2 f   mfc140d:mfc140d.dll
 0001:00078cf8       ?OnDrawIconicThumbnailOrLivePreview@CWnd@@UAEXAAVCDC@@VCRect@@VCSize@@HAAH@Z 00479cf8 f   mfc140d:mfc140d.dll
 0001:00078cfe       ?GetInterfaceMap@CWnd@@MBEPBUAFX_INTERFACEMAP@@XZ 00479cfe f   mfc140d:mfc140d.dll
 0001:00078d04       ?EnsureStdObj@CWnd@@UAEJXZ 00479d04 f   mfc140d:mfc140d.dll
 0001:00078d0a       ?get_accParent@CWnd@@UAEJPAPAUIDispatch@@@Z 00479d0a f   mfc140d:mfc140d.dll
 0001:00078d10       ?get_accChildCount@CWnd@@UAEJPAJ@Z 00479d10 f   mfc140d:mfc140d.dll
 0001:00078d16       ?get_accChild@CWnd@@UAEJUtagVARIANT@@PAPAUIDispatch@@@Z 00479d16 f   mfc140d:mfc140d.dll
 0001:00078d1c       ?get_accName@CWnd@@UAEJUtagVARIANT@@PAPA_W@Z 00479d1c f   mfc140d:mfc140d.dll
 0001:00078d22       ?get_accValue@CWnd@@UAEJUtagVARIANT@@PAPA_W@Z 00479d22 f   mfc140d:mfc140d.dll
 0001:00078d28       ?get_accDescription@CWnd@@UAEJUtagVARIANT@@PAPA_W@Z 00479d28 f   mfc140d:mfc140d.dll
 0001:00078d2e       ?get_accRole@CWnd@@UAEJUtagVARIANT@@PAU2@@Z 00479d2e f   mfc140d:mfc140d.dll
 0001:00078d34       ?get_accState@CWnd@@UAEJUtagVARIANT@@PAU2@@Z 00479d34 f   mfc140d:mfc140d.dll
 0001:00078d3a       ?get_accHelp@CWnd@@UAEJUtagVARIANT@@PAPA_W@Z 00479d3a f   mfc140d:mfc140d.dll
 0001:00078d40       ?get_accHelpTopic@CWnd@@UAEJPAPA_WUtagVARIANT@@PAJ@Z 00479d40 f   mfc140d:mfc140d.dll
 0001:00078d46       ?get_accKeyboardShortcut@CWnd@@UAEJUtagVARIANT@@PAPA_W@Z 00479d46 f   mfc140d:mfc140d.dll
 0001:00078d4c       ?get_accFocus@CWnd@@UAEJPAUtagVARIANT@@@Z 00479d4c f   mfc140d:mfc140d.dll
 0001:00078d52       ?get_accSelection@CWnd@@UAEJPAUtagVARIANT@@@Z 00479d52 f   mfc140d:mfc140d.dll
 0001:00078d58       ?get_accDefaultAction@CWnd@@UAEJUtagVARIANT@@PAPA_W@Z 00479d58 f   mfc140d:mfc140d.dll
 0001:00078d5e       ?accSelect@CWnd@@UAEJJUtagVARIANT@@@Z 00479d5e f   mfc140d:mfc140d.dll
 0001:00078d64       ?accLocation@CWnd@@UAEJPAJ000UtagVARIANT@@@Z 00479d64 f   mfc140d:mfc140d.dll
 0001:00078d6a       ?accNavigate@CWnd@@UAEJJUtagVARIANT@@PAU2@@Z 00479d6a f   mfc140d:mfc140d.dll
 0001:00078d70       ?accHitTest@CWnd@@UAEJJJPAUtagVARIANT@@@Z 00479d70 f   mfc140d:mfc140d.dll
 0001:00078d76       ?accDoDefaultAction@CWnd@@UAEJUtagVARIANT@@@Z 00479d76 f   mfc140d:mfc140d.dll
 0001:00078d7c       ?put_accName@CWnd@@UAEJUtagVARIANT@@PA_W@Z 00479d7c f   mfc140d:mfc140d.dll
 0001:00078d82       ?put_accValue@CWnd@@UAEJUtagVARIANT@@PA_W@Z 00479d82 f   mfc140d:mfc140d.dll
 0001:00078d88       ?SetProxy@CWnd@@UAEJPAUIAccessibleProxy@@@Z 00479d88 f   mfc140d:mfc140d.dll
 0001:00078d8e       ?CreateAccessibleProxy@CWnd@@UAEJIJPAJ@Z 00479d8e f   mfc140d:mfc140d.dll
 0001:00078d94       ?OnCommand@CWnd@@MAEHIJ@Z  00479d94 f   mfc140d:mfc140d.dll
 0001:00078d9a       ?OnNotify@CWnd@@MAEHIJPAJ@Z 00479d9a f   mfc140d:mfc140d.dll
 0001:00078da0       ?GetSuperWndProcAddr@CWnd@@MAEPAP6GJPAUHWND__@@IIJ@ZXZ 00479da0 f   mfc140d:mfc140d.dll
 0001:00078da6       ?DoDataExchange@CWnd@@MAEXPAVCDataExchange@@@Z 00479da6 f   mfc140d:mfc140d.dll
 0001:00078dac       ?BeginModalState@CWnd@@UAEXXZ 00479dac f   mfc140d:mfc140d.dll
 0001:00078db2       ?EndModalState@CWnd@@UAEXXZ 00479db2 f   mfc140d:mfc140d.dll
 0001:00078db8       ?OnAmbientProperty@CWnd@@UAEHPAVCOleControlSite@@JPAUtagVARIANT@@@Z 00479db8 f   mfc140d:mfc140d.dll
 0001:00078dbe       ?WindowProc@CWnd@@MAEJIIJ@Z 00479dbe f   mfc140d:mfc140d.dll
 0001:00078dc4       ?OnWndMsg@CWnd@@MAEHIIJPAJ@Z 00479dc4 f   mfc140d:mfc140d.dll
 0001:00078dca       ?DefWindowProcA@CWnd@@MAEJIIJ@Z 00479dca f   mfc140d:mfc140d.dll
 0001:00078dd0       ?PostNcDestroy@CWnd@@MAEXXZ 00479dd0 f   mfc140d:mfc140d.dll
 0001:00078dd6       ?OnChildNotify@CWnd@@MAEHIIJPAJ@Z 00479dd6 f   mfc140d:mfc140d.dll
 0001:00078ddc       ?OnTouchInputs@CWnd@@MAEHIPAUtagTOUCHINPUT@@@Z 00479ddc f   mfc140d:mfc140d.dll
 0001:00078de2       ?OnTouchInput@CWnd@@MAEHVCPoint@@HHPAUtagTOUCHINPUT@@@Z 00479de2 f   mfc140d:mfc140d.dll
 0001:00078de8       ?GetGestureStatus@CWnd@@MAEKVCPoint@@@Z 00479de8 f   mfc140d:mfc140d.dll
 0001:00078dee       ?OnGestureZoom@CWnd@@MAEHVCPoint@@J@Z 00479dee f   mfc140d:mfc140d.dll
 0001:00078df4       ?OnGesturePan@CWnd@@MAEHVCPoint@@0@Z 00479df4 f   mfc140d:mfc140d.dll
 0001:00078dfa       ?OnGestureRotate@CWnd@@MAEHVCPoint@@N@Z 00479dfa f   mfc140d:mfc140d.dll
 0001:00078e00       ?OnGestureTwoFingerTap@CWnd@@MAEHVCPoint@@@Z 00479e00 f   mfc140d:mfc140d.dll
 0001:00078e06       ?OnGesturePressAndTap@CWnd@@MAEHVCPoint@@J@Z 00479e06 f   mfc140d:mfc140d.dll
 0001:00078e0c       ?ResizeDynamicLayout@CWnd@@MAEXXZ 00479e0c f   mfc140d:mfc140d.dll
 0001:00078e12       ?IsFrameWnd@CWnd@@UBEHXZ   00479e12 f   mfc140d:mfc140d.dll
 0001:00078e18       ?OnFinalRelease@CWnd@@UAEXXZ 00479e18 f   mfc140d:mfc140d.dll
 0001:00078e1e       ?CreateControlContainer@CWnd@@MAEHPAPAVCOleControlContainer@@@Z 00479e1e f   mfc140d:mfc140d.dll
 0001:00078e24       ?CreateControlSite@CWnd@@MAEHPAVCOleControlContainer@@PAPAVCOleControlSite@@IABU_GUID@@@Z 00479e24 f   mfc140d:mfc140d.dll
 0001:00078e2a       ?GetRuntimeClass@CDialog@@UBEPAUCRuntimeClass@@XZ 00479e2a f   mfc140d:mfc140d.dll
 0001:00078e30       ?Create@CDialog@@UAEHPBDPAVCWnd@@@Z 00479e30 f   mfc140d:mfc140d.dll
 0001:00078e36       ?Create@CDialog@@UAEHIPAVCWnd@@@Z 00479e36 f   mfc140d:mfc140d.dll
 0001:00078e3c       ?CreateIndirect@CDialog@@UAEHPBUDLGTEMPLATE@@PAVCWnd@@PAX@Z 00479e3c f   mfc140d:mfc140d.dll
 0001:00078e42       ?CreateIndirect@CDialog@@UAEHPAXPAVCWnd@@@Z 00479e42 f   mfc140d:mfc140d.dll
 0001:00078e48       ??0CDialog@@QAE@IPAVCWnd@@@Z 00479e48 f   mfc140d:mfc140d.dll
 0001:00078e4e       ?OnInitDialog@CDialog@@UAEHXZ 00479e4e f   mfc140d:mfc140d.dll
 0001:00078e54       ?OnSetFont@CDialog@@UAEXPAVCFont@@@Z 00479e54 f   mfc140d:mfc140d.dll
 0001:00078e5a       ?OnCancel@CDialog@@MAEXXZ  00479e5a f   mfc140d:mfc140d.dll
 0001:00078e60       ??1CDialog@@UAE@XZ         00479e60 f   mfc140d:mfc140d.dll
 0001:00078e66       ?AssertValid@CDialog@@UBEXXZ 00479e66 f   mfc140d:mfc140d.dll
 0001:00078e6c       ?Dump@CDialog@@UBEXAAVCDumpContext@@@Z 00479e6c f   mfc140d:mfc140d.dll
 0001:00078e72       ?PreTranslateMessage@CDialog@@UAEHPAUtagMSG@@@Z 00479e72 f   mfc140d:mfc140d.dll
 0001:00078e78       ?OnCmdMsg@CDialog@@UAEHIHPAXPAUAFX_CMDHANDLERINFO@@@Z 00479e78 f   mfc140d:mfc140d.dll
 0001:00078e7e       ?CheckAutoCenter@CDialog@@UAEHXZ 00479e7e f   mfc140d:mfc140d.dll
 0001:00078e84       ?SetOccDialogInfo@CDialog@@MAEHPAU_AFX_OCC_DIALOG_INFO@@@Z 00479e84 f   mfc140d:mfc140d.dll
 0001:00078e8a       ?GetOccDialogInfo@CDialog@@MAEPAU_AFX_OCC_DIALOG_INFO@@XZ 00479e8a f   mfc140d:mfc140d.dll
 0001:00078e90       ?PreInitDialog@CDialog@@MAEXXZ 00479e90 f   mfc140d:mfc140d.dll
 0001:00078e96       ?SetIcon@CStatic@@QAEPAUHICON__@@PAU2@@Z 00479e96 f   mfc140d:mfc140d.dll
 0001:00078e9c       ?AfxGetApp@@YGPAVCWinApp@@XZ 00479e9c f   mfc140d:mfc140d.dll
 0001:00078ea2       ?AfxGetInstanceHandle@@YGPAUHINSTANCE__@@XZ 00479ea2 f   mfc140d:mfc140d.dll
 0001:00078ea8       ?AfxSetResourceHandle@@YGXPAUHINSTANCE__@@@Z 00479ea8 f   mfc140d:mfc140d.dll
 0001:00078eae       ?AfxMessageBox@@YGHPBDII@Z 00479eae f   mfc140d:mfc140d.dll
 0001:00078eb4       ??0?$CStringT@DV?$StrTraitMFC_DLL@DV?$ChTraitsCRT@D@ATL@@@@@ATL@@QAE@ABV01@@Z 00479eb4 f   mfc140d:mfc140d.dll
 0001:00078eba       ??4?$CStringT@DV?$StrTraitMFC_DLL@DV?$ChTraitsCRT@D@ATL@@@@@ATL@@QAEAAV01@PBD@Z 00479eba f   mfc140d:mfc140d.dll
 0001:00078ec0       ?Replace@?$CStringT@DV?$StrTraitMFC_DLL@DV?$ChTraitsCRT@D@ATL@@@@@ATL@@QAEHPBD0@Z 00479ec0 f   mfc140d:mfc140d.dll
 0001:00078ec6       ?GetThisMessageMap@CWnd@@KGPBUAFX_MSGMAP@@XZ 00479ec6 f   mfc140d:mfc140d.dll
 0001:00078ecc       ?GetRuntimeClass@CWnd@@UBEPAUCRuntimeClass@@XZ 00479ecc f   mfc140d:mfc140d.dll
 0001:00078ed2       ??0CWnd@@QAE@XZ            00479ed2 f   mfc140d:mfc140d.dll
 0001:00078ed8       ?PreTranslateMessage@CWnd@@UAEHPAUtagMSG@@@Z 00479ed8 f   mfc140d:mfc140d.dll
 0001:00078ede       ??1CWnd@@UAE@XZ            00479ede f   mfc140d:mfc140d.dll
 0001:00078ee4       ?CheckAutoCenter@CWnd@@UAEHXZ 00479ee4 f   mfc140d:mfc140d.dll
 0001:00078eea       ?AssertValid@CWnd@@UBEXXZ  00479eea f   mfc140d:mfc140d.dll
 0001:00078ef0       ?Dump@CWnd@@UBEXAAVCDumpContext@@@Z 00479ef0 f   mfc140d:mfc140d.dll
 0001:00078ef6       ?SetOccDialogInfo@CWnd@@MAEHPAU_AFX_OCC_DIALOG_INFO@@@Z 00479ef6 f   mfc140d:mfc140d.dll
 0001:00078efc       ?GetOccDialogInfo@CWnd@@MAEPAU_AFX_OCC_DIALOG_INFO@@XZ 00479efc f   mfc140d:mfc140d.dll
 0001:00078f02       ?AfxGetMainWnd@@YGPAVCWnd@@XZ 00479f02 f   mfc140d:mfc140d.dll
 0001:00078f10       ??1CComBSTR@ATL@@QAE@XZ    00479f10 f i mfcs140d:nolib.obj
 0001:00078f50       ??1stringdispid@CComTypeInfoHolder@ATL@@QAE@XZ 00479f50 f i mfcs140d:nolib.obj
 0001:00078f80       ??_Estringdispid@CComTypeInfoHolder@ATL@@QAEPAXI@Z 00479f80 f i mfcs140d:nolib.obj
 0001:00079060       _IsolationAwareActivateActCtx@8 0047a060 f i mfcs140d:nolib.obj
 0001:00079120       _IsolationAwareCreateActCtxW@4 0047a120 f i mfcs140d:nolib.obj
 0001:000791e0       _IsolationAwareDeactivateActCtx@8 0047a1e0 f i mfcs140d:nolib.obj
 0001:000792a0       _IsolationAwareFindActCtxSectionStringW@20 0047a2a0 f i mfcs140d:nolib.obj
 0001:00079370       _IsolationAwarePrivatenPgViNgRzlnPgpgk@4 0047a370 f i mfcs140d:nolib.obj
 0001:00079490       _IsolationAwarePrivatezltRgCebPnQQeRff@12 0047a490 f i mfcs140d:nolib.obj
 0001:00079560       _IsolationAwarePrivatezltRgzbQhYRuNaQYRJ@4 0047a560 f i mfcs140d:nolib.obj
 0001:00079590       _IsolationAwarePrivatezltRgzbQhYRuNaQYRn@4 0047a590 f i mfcs140d:nolib.obj
 0001:000795c0       _IsolationAwareQueryActCtxW@28 0047a5c0 f i mfcs140d:nolib.obj
 0001:000796a0       _IsolationAwareUnregisterClassA@8 0047a6a0 f i mfcs140d:nolib.obj
 0001:000798b0       _WinbaseIsolationAwarePrivatetRgCebPnQQeRff_xReaRYQP_QYY@4 0047a8b0 f i mfcs140d:nolib.obj
 0001:000798e0       _WinbaseIsolationAwarePrivatetRgzlnPgpgk@0 0047a8e0 f i mfcs140d:nolib.obj
 0001:00079d30       ??3@YAXPAXI@Z              0047ad30 f   msvcrtd:delete_scalar_size.obj
 0001:00079d50       @__security_check_cookie@4 0047ad50 f   msvcrtd:secchk.obj
 0001:00079d70       __alldiv                   0047ad70 f   msvcrtd:lldiv.obj
 0001:00079e50       __allmul                   0047ae50 f   msvcrtd:llmul.obj
 0001:00079ea0       __allrem                   0047aea0 f   msvcrtd:llrem.obj
 0001:00079f80       __chkstk                   0047af80 f   msvcrtd:chkstk.obj
 0001:00079f80       __alloca_probe             0047af80 f   msvcrtd:chkstk.obj
 0001:00079fc0       ??1type_info@@UAE@XZ       0047afc0 f   msvcrtd:std_type_info_static.obj
 0001:00079fe0       ??_Gtype_info@@UAEPAXI@Z   0047afe0 f i msvcrtd:std_type_info_static.obj
 0001:00079fe0       ??_Etype_info@@UAEPAXI@Z   0047afe0 f i msvcrtd:std_type_info_static.obj
 0001:0007a020       ___raise_securityfailure   0047b020 f   msvcrtd:gs_report.obj
 0001:0007a060       ___report_gsfailure        0047b060 f   msvcrtd:gs_report.obj
 0001:0007a1b0       ___report_rangecheckfailure 0047b1b0 f   msvcrtd:gs_report.obj
 0001:0007a1c0       ___report_securityfailure  0047b1c0 f   msvcrtd:gs_report.obj
 0001:0007a2d0       ___report_securityfailureEx 0047b2d0 f   msvcrtd:gs_report.obj
 0001:0007a440       __ftoui3                   0047b440 f   msvcrtd:ftol3.obj
 0001:0007a44f       __ftoul3                   0047b44f f   msvcrtd:ftol3.obj
 0001:0007a45e       __ftol3                    0047b45e f   msvcrtd:ftol3.obj
 0001:0007a46b       __ftol3_NaN                0047b46b f   msvcrtd:ftol3.obj
 0001:0007a483       __ftol3_work               0047b483 f   msvcrtd:ftol3.obj
 0001:0007a509       __ftol3_common             0047b509 f   msvcrtd:ftol3.obj
 0001:0007a5cb       __ftol3_arg_error          0047b5cb f   msvcrtd:ftol3.obj
 0001:0007a5dd       __ftol3_except             0047b5dd f   msvcrtd:ftol3.obj
 0001:0007a621       __dtoui3                   0047b621 f   msvcrtd:ftol3.obj
 0001:0007a630       __dtoul3                   0047b630 f   msvcrtd:ftol3.obj
 0001:0007a63f       __dtol3                    0047b63f f   msvcrtd:ftol3.obj
 0001:0007a64c       __dtol3_NaN                0047b64c f   msvcrtd:ftol3.obj
 0001:0007a669       __dtol3_work               0047b669 f   msvcrtd:ftol3.obj
 0001:0007a750       __ultod3                   0047b750 f   msvcrtd:ftol3.obj
 0001:0007a790       __ltod3                    0047b790 f   msvcrtd:ftol3.obj
 0001:0007a8a0       ??$__crt_fast_decode_pointer@PAP6AXXZ@@YAPAP6AXXZQAP6AXXZ@Z 0047b8a0 f i msvcrtd:utility.obj
 0001:0007a8d0       ??$__crt_fast_encode_pointer@PAP6AXXZ@@YAPAP6AXXZQAP6AXXZ@Z 0047b8d0 f i msvcrtd:utility.obj
 0001:0007a910       ?__crt_rotate_pointer_value@@YAIIH@Z 0047b910 f i msvcrtd:utility.obj
 0001:0007a920       ?configure_argv@__scrt_narrow_argv_policy@@SAHXZ 0047b920 f i msvcrtd:utility.obj
 0001:0007a9f0       ?initialize_environment@__scrt_narrow_environment_policy@@SAHXZ 0047b9f0 f i msvcrtd:utility.obj
 0001:0007aa90       _NtCurrentTeb              0047ba90 f i msvcrtd:utility.obj
 0001:0007aaa0       ___scrt_acquire_startup_lock 0047baa0 f   msvcrtd:utility.obj
 0001:0007ab00       ___scrt_dllmain_after_initialize_c 0047bb00 f   msvcrtd:utility.obj
 0001:0007ab40       ___scrt_dllmain_before_initialize_c 0047bb40 f   msvcrtd:utility.obj
 0001:0007ab70       ___scrt_dllmain_crt_thread_attach 0047bb70 f   msvcrtd:utility.obj
 0001:0007abb0       ___scrt_dllmain_crt_thread_detach 0047bbb0 f   msvcrtd:utility.obj
 0001:0007abd0       ___scrt_dllmain_exception_filter 0047bbd0 f   msvcrtd:utility.obj
 0001:0007ac30       ___scrt_dllmain_uninitialize_c 0047bc30 f   msvcrtd:utility.obj
 0001:0007ac70       ___scrt_dllmain_uninitialize_critical 0047bc70 f   msvcrtd:utility.obj
 0001:0007ac90       ___scrt_initialize_crt     0047bc90 f   msvcrtd:utility.obj
 0001:0007acf0       ___scrt_initialize_onexit_tables 0047bcf0 f   msvcrtd:utility.obj
 0001:0007ae10       ___scrt_is_nonwritable_in_current_image 0047be10 f   msvcrtd:utility.obj
 0001:0007af90       ___scrt_release_startup_lock 0047bf90 f   msvcrtd:utility.obj
 0001:0007afc0       ___scrt_uninitialize_crt   0047bfc0 f   msvcrtd:utility.obj
 0001:0007b010       __onexit                   0047c010 f   msvcrtd:utility.obj
 0001:0007b0a0       _at_quick_exit             0047c0a0 f   msvcrtd:utility.obj
 0001:0007b100       _atexit                    0047c100 f   msvcrtd:utility.obj
 0001:0007b140       ??_L@YGXPAXIHP6EX0@Z1@Z    0047c140 f   msvcrtd:ehvecctr.obj
 0001:0007b170       ??_L@YGXPAXIIP6EX0@Z1@Z    0047c170 f   msvcrtd:ehvecctr.obj
 0001:0007b260       ??_M@YGXPAXIHP6EX0@Z@Z     0047c260 f   msvcrtd:ehvecdtr.obj
 0001:0007b290       ??_M@YGXPAXIIP6EX0@Z@Z     0047c290 f   msvcrtd:ehvecdtr.obj
 0001:0007b3d0       ?__ArrayUnwind@@YGXPAXIIP6EX0@Z@Z 0047c3d0 f   msvcrtd:ehvecdtr.obj
 0001:0007b4f0       ??$__crt_fast_decode_pointer@P6GHPAU_RTL_CONDITION_VARIABLE@@PAU_RTL_CRITICAL_SECTION@@K@Z@@YAP6GHPAU_RTL_CONDITION_VARIABLE@@PAU_RTL_CRITICAL_SECTION@@K@ZQ6GH01K@Z@Z 0047c4f0 f i msvcrtd:thread_safe_statics.obj
 0001:0007b520       ??$__crt_fast_decode_pointer@P6GXPAU_RTL_CONDITION_VARIABLE@@@Z@@YAP6GXPAU_RTL_CONDITION_VARIABLE@@@ZQ6GX0@Z@Z 0047c520 f i msvcrtd:thread_safe_statics.obj
 0001:0007b550       ??$__crt_fast_encode_pointer@P6GHPAU_RTL_CONDITION_VARIABLE@@PAU_RTL_CRITICAL_SECTION@@K@Z@@YAP6GHPAU_RTL_CONDITION_VARIABLE@@PAU_RTL_CRITICAL_SECTION@@K@ZQ6GH01K@Z@Z 0047c550 f i msvcrtd:thread_safe_statics.obj
 0001:0007b590       ??$__crt_fast_encode_pointer@P6GXPAU_RTL_CONDITION_VARIABLE@@@Z@@YAP6GXPAU_RTL_CONDITION_VARIABLE@@@ZQ6GX0@Z@Z 0047c590 f i msvcrtd:thread_safe_statics.obj
 0001:0007b740       ?__scrt_is_event_api_used@@YA_NQAX@Z 0047c740 f i msvcrtd:thread_safe_statics.obj
 0001:0007b7f0       __Init_thread_abort        0047c7f0 f   msvcrtd:thread_safe_statics.obj
 0001:0007b820       __Init_thread_footer       0047c820 f   msvcrtd:thread_safe_statics.obj
 0001:0007b880       __Init_thread_header       0047c880 f   msvcrtd:thread_safe_statics.obj
 0001:0007b910       __Init_thread_lock         0047c910 f   msvcrtd:thread_safe_statics.obj
 0001:0007b930       __Init_thread_notify       0047c930 f   msvcrtd:thread_safe_statics.obj
 0001:0007b9b0       __Init_thread_unlock       0047c9b0 f   msvcrtd:thread_safe_statics.obj
 0001:0007b9d0       __Init_thread_wait         0047c9d0 f   msvcrtd:thread_safe_statics.obj
 0001:0007be90       ?set_app_type@__scrt_winmain_policy@@SAXXZ 0047ce90 f i msvcrtd:exe_winmain.obj
 0001:0007beb0       ?set_commode@__scrt_file_policy@@SAXXZ 0047ceb0 f i msvcrtd:exe_winmain.obj
 0001:0007bed0       ?set_fmode@__scrt_file_policy@@SAXXZ 0047ced0 f i msvcrtd:exe_winmain.obj
 0001:0007bef0       _WinMainCRTStartup         0047cef0 f   msvcrtd:exe_winmain.obj
 0001:0007bf00       ??_V@YAXPAXI@Z             0047cf00 f   msvcrtd:delete_array_size.obj
 0001:0007bf20       @_RTC_AllocaHelper@12      0047cf20 f   msvcrtd:stack.obj
 0001:0007bf60       @_RTC_CheckStackVars2@12   0047cf60 f   msvcrtd:stack.obj
 0001:0007c080       @_RTC_CheckStackVars@8     0047d080 f   msvcrtd:stack.obj
 0001:0007c100       __RTC_CheckEsp             0047d100 f   msvcrtd:stack.obj
 0001:0007c140       __CRT_RTC_INIT             0047d140 f   msvcrtd:init.obj
 0001:0007c150       __CRT_RTC_INITW            0047d150 f   msvcrtd:init.obj
 0001:0007c160       __RTC_InitBase             0047d160 f   msvcrtd:init.obj
 0001:0007c1a0       __RTC_Shutdown             0047d1a0 f   msvcrtd:init.obj
 0001:0007c1c0       __except_handler4          0047d1c0 f   msvcrtd:chandler4gs.obj
 0001:0007c1f0       @_guard_check_icall_nop@4  0047d1f0 f i msvcrtd:guard_support.obj
 0001:0007c200       _ReadNoFence               0047d200 f i msvcrtd:guard_support.obj
 0001:0007c220       _ReadPointerNoFence        0047d220 f i msvcrtd:guard_support.obj
 0001:0007c240       __guard_icall_checks_enforced 0047d240 f i msvcrtd:guard_support.obj
 0001:0007c280       ___isa_available_init      0047d280 f   msvcrtd:cpu_disp.obj
 0001:0007c610       __get_startup_argv_mode    0047d610 f   msvcrtd:argv_mode.obj
 0001:0007c620       ___scrt_is_ucrt_dll_in_use 0047d620 f   msvcrtd:ucrt_detection.obj
 0001:0007c650       ___scrt_fastfail           0047d650 f   msvcrtd:utility_desktop.obj
 0001:0007c7e0       ___scrt_get_show_window_mode 0047d7e0 f   msvcrtd:utility_desktop.obj
 0001:0007c830       ___scrt_initialize_mta     0047d830 f   msvcrtd:utility_desktop.obj
 0001:0007c840       ___scrt_initialize_winrt   0047d840 f   msvcrtd:utility_desktop.obj
 0001:0007c850       ___scrt_is_managed_app     0047d850 f   msvcrtd:utility_desktop.obj
 0001:0007c900       ___scrt_set_unhandled_exception_filter 0047d900 f   msvcrtd:utility_desktop.obj
 0001:0007c920       ___scrt_exe_initialize_mta 0047d920 f   msvcrtd:utility_desktop.obj
 0001:0007c920       ___scrt_stub_for_initialize_mta 0047d920 f   msvcrtd:utility_desktop.obj
 0001:0007c930       ___scrt_unhandled_exception_filter@4 0047d930 f   msvcrtd:utility_desktop.obj
 0001:0007c9b0       __crt_debugger_hook        0047d9b0 f   msvcrtd:utility_desktop.obj
 0001:0007ca60       ___security_init_cookie    0047da60 f   msvcrtd:gs_support.obj
 0001:0007cb00       __matherr                  0047db00 f   msvcrtd:matherr.obj
 0001:0007cb10       __get_startup_commit_mode  0047db10 f   msvcrtd:commit_mode.obj
 0001:0007cb20       __get_startup_file_mode    0047db20 f   msvcrtd:file_mode.obj
 0001:0007cb30       __get_startup_new_mode     0047db30 f   msvcrtd:new_mode.obj
 0001:0007cb40       __get_startup_thread_locale_mode 0047db40 f   msvcrtd:thread_locale.obj
 0001:0007cb50       ?__scrt_initialize_type_info@@YAXXZ 0047db50 f   msvcrtd:tncleanup.obj
 0001:0007cb70       ?__scrt_uninitialize_type_info@@YAXXZ 0047db70 f   msvcrtd:tncleanup.obj
 0001:0007cb90       __should_initialize_environment 0047db90 f   msvcrtd:env_mode.obj
 0001:0007cba0       __initialize_default_precision 0047dba0 f   msvcrtd:default_precision.obj
 0001:0007cbd0       __initialize_invalid_parameter_handler 0047dbd0 f   msvcrtd:invalid_parameter_handler.obj
 0001:0007cbe0       __initialize_denormal_control 0047dbe0 f   msvcrtd:denormal_control.obj
 0001:0007cbf0       ___local_stdio_scanf_options 0047dbf0 f i msvcrtd:default_local_stdio_options.obj
 0001:0007cc00       ___scrt_initialize_default_local_stdio_options 0047dc00 f   msvcrtd:default_local_stdio_options.obj
 0001:0007cc50       ___scrt_is_user_matherr_present 0047dc50 f   msvcrtd:matherr_detection.obj
 0001:0007cc80       ___scrt_get_dyn_tls_init_callback 0047dc80 f   msvcrtd:dyn_tls_init.obj
 0001:0007cc90       ___scrt_get_dyn_tls_dtor_callback 0047dc90 f   msvcrtd:dyn_tls_dtor.obj
 0001:0007cca0       __RTC_Initialize           0047dca0 f   msvcrtd:initsect.obj
 0001:0007cce0       __RTC_Terminate            0047dce0 f   msvcrtd:initsect.obj
 0001:0007cdd0       ?_RTC_AllocaFailure@@YAXPAXPAU_RTC_ALLOCA_NODE@@H@Z 0047ddd0 f   msvcrtd:error.obj
 0001:0007cef0       ?_RTC_Failure@@YAXPAXH@Z   0047def0 f   msvcrtd:error.obj
 0001:0007cf60       ?_RTC_StackFailure@@YAXPAXPBD@Z 0047df60 f   msvcrtd:error.obj
 0001:0007d410       __RTC_UninitUse            0047e410 f   msvcrtd:error.obj
 0001:0007d4f0       __vsprintf_s_l             0047e4f0 f i msvcrtd:error.obj
 0001:0007d530       _sprintf_s                 0047e530 f i msvcrtd:error.obj
 0001:0007d560       ?_RTC_GetErrorFunc@@YAP6AHHPBDH00ZZPBX@Z 0047e560 f   msvcrtd:userapi.obj
 0001:0007d570       ?_RTC_GetErrorFuncW@@YAP6AHHPB_WH00ZZPBX@Z 0047e570 f   msvcrtd:userapi.obj
 0001:0007d580       __RTC_GetErrDesc           0047e580 f   msvcrtd:userapi.obj
 0001:0007d5a0       __RTC_NumErrors            0047e5a0 f   msvcrtd:userapi.obj
 0001:0007d5b0       __RTC_SetErrorFunc         0047e5b0 f   msvcrtd:userapi.obj
 0001:0007d5e0       __RTC_SetErrorFuncW        0047e5e0 f   msvcrtd:userapi.obj
 0001:0007d610       __RTC_SetErrorType         0047e610 f   msvcrtd:userapi.obj
 0001:0007dbd0       ?_RTC_GetSrcLine@@YAHPAEPA_WKPAH1K@Z 0047ebd0 f   msvcrtd:pdblkup.obj
 0001:0007e040       __except_handler4_noexcept 0047f040 f   msvcrtd:chandler4_noexcept.obj
 0001:0007e098       _GetTickCount@0            0047f098 f   kernel32:KERNEL32.dll
 0001:0007e09e       _FreeLibrary@4             0047f09e f   kernel32:KERNEL32.dll
 0001:0007e0a4       _LoadLibraryA@4            0047f0a4 f   kernel32:KERNEL32.dll
 0001:0007e0aa       _lstrcmpA@8                0047f0aa f   kernel32:KERNEL32.dll
 0001:0007e0b0       _lstrcpynA@12              0047f0b0 f   kernel32:KERNEL32.dll
 0001:0007e0b6       _lstrlenA@4                0047f0b6 f   kernel32:KERNEL32.dll
 0001:0007e0bc       _OutputDebugStringA@4      0047f0bc f   kernel32:KERNEL32.dll
 0001:0007e0c2       _GetLastError@0            0047f0c2 f   kernel32:KERNEL32.dll
 0001:0007e0c8       _SetLastError@4            0047f0c8 f   kernel32:KERNEL32.dll
 0001:0007e0ce       _GetProcAddress@8          0047f0ce f   kernel32:KERNEL32.dll
 0001:0007e0d4       _MultiByteToWideChar@24    0047f0d4 f   kernel32:KERNEL32.dll
 0001:0007e0da       _WideCharToMultiByte@32    0047f0da f   kernel32:KERNEL32.dll
 0001:0007e0e0       _GetModuleHandleA@4        0047f0e0 f   kernel32:KERNEL32.dll
 0001:0007e0e6       _WritePrivateProfileStringA@16 0047f0e6 f   kernel32:KERNEL32.dll
 0001:0007e0ec       _DecodePointer@4           0047f0ec f   kernel32:KERNEL32.dll
 0001:0007e0f2       _RaiseException@16         0047f0f2 f   kernel32:KERNEL32.dll
 0001:0007e0f8       _HeapDestroy@4             0047f0f8 f   kernel32:KERNEL32.dll
 0001:0007e0fe       _HeapAlloc@12              0047f0fe f   kernel32:KERNEL32.dll
 0001:0007e104       _HeapReAlloc@16            0047f104 f   kernel32:KERNEL32.dll
 0001:0007e10a       _HeapFree@12               0047f10a f   kernel32:KERNEL32.dll
 0001:0007e110       _HeapSize@12               0047f110 f   kernel32:KERNEL32.dll
 0001:0007e116       _GetProcessHeap@0          0047f116 f   kernel32:KERNEL32.dll
 0001:0007e11c       _InitializeCriticalSectionAndSpinCount@8 0047f11c f   kernel32:KERNEL32.dll
 0001:0007e122       _DeleteCriticalSection@4   0047f122 f   kernel32:KERNEL32.dll
 0001:0007e128       _GetLocalTime@4            0047f128 f   kernel32:KERNEL32.dll
 0001:0007e12e       _GetModuleFileNameW@12     0047f12e f   kernel32:KERNEL32.dll
 0001:0007e134       _GetModuleHandleW@4        0047f134 f   kernel32:KERNEL32.dll
 0001:0007e13a       _LoadLibraryW@4            0047f13a f   kernel32:KERNEL32.dll
 0001:0007e140       _UnhandledExceptionFilter@4 0047f140 f   kernel32:KERNEL32.dll
 0001:0007e146       _SetUnhandledExceptionFilter@4 0047f146 f   kernel32:KERNEL32.dll
 0001:0007e14c       _GetCurrentProcess@0       0047f14c f   kernel32:KERNEL32.dll
 0001:0007e152       _TerminateProcess@8        0047f152 f   kernel32:KERNEL32.dll
 0001:0007e158       _IsProcessorFeaturePresent@4 0047f158 f   kernel32:KERNEL32.dll
 0001:0007e15e       _CloseHandle@4             0047f15e f   kernel32:KERNEL32.dll
 0001:0007e164       _EnterCriticalSection@4    0047f164 f   kernel32:KERNEL32.dll
 0001:0007e16a       _LeaveCriticalSection@4    0047f16a f   kernel32:KERNEL32.dll
 0001:0007e170       _SetEvent@4                0047f170 f   kernel32:KERNEL32.dll
 0001:0007e176       _ResetEvent@4              0047f176 f   kernel32:KERNEL32.dll
 0001:0007e17c       _WaitForSingleObjectEx@12  0047f17c f   kernel32:KERNEL32.dll
 0001:0007e182       _CreateEventW@16           0047f182 f   kernel32:KERNEL32.dll
 0001:0007e188       _IsDebuggerPresent@0       0047f188 f   kernel32:KERNEL32.dll
 0001:0007e18e       _GetStartupInfoW@4         0047f18e f   kernel32:KERNEL32.dll
 0001:0007e194       _QueryPerformanceCounter@4 0047f194 f   kernel32:KERNEL32.dll
 0001:0007e19a       _GetCurrentProcessId@0     0047f19a f   kernel32:KERNEL32.dll
 0001:0007e1a0       _GetCurrentThreadId@0      0047f1a0 f   kernel32:KERNEL32.dll
 0001:0007e1a6       _GetSystemTimeAsFileTime@4 0047f1a6 f   kernel32:KERNEL32.dll
 0001:0007e1ac       _InitializeSListHead@4     0047f1ac f   kernel32:KERNEL32.dll
 0001:0007e1b2       _VirtualQuery@12           0047f1b2 f   kernel32:KERNEL32.dll
 0001:0007e1b8       _wsprintfA                 0047f1b8 f   user32:USER32.dll
 0001:0007e1be       _PeekMessageA@20           0047f1be f   user32:USER32.dll
 0001:0007e1c4       _PostQuitMessage@4         0047f1c4 f   user32:USER32.dll
 0001:0007e1ca       _LoadIconA@8               0047f1ca f   user32:USER32.dll
 0001:0007e1d0       _IsWindow@4                0047f1d0 f   user32:USER32.dll
 0001:0007e1d6       _UnregisterClassA@8        0047f1d6 f   user32:USER32.dll
 0001:0007e1dc       _InitCommonControls@0      0047f1dc f   comctl32:COMCTL32.dll
 0001:0007e1e2       _StrToIntA@4               0047f1e2 f   shlwapi:SHLWAPI.dll
 0001:0007e1e8       _PathFileExistsA@4         0047f1e8 f   shlwapi:SHLWAPI.dll
 0001:0007e1ee       ??$?2PAUHINSTANCE__@@@Wrapper@?$CSimpleArray@PAUHINSTANCE__@@V?$CSimpleArrayEqualHelper@PAUHINSTANCE__@@@ATL@@@ATL@@SAPAXIPAPAUHINSTANCE__@@@Z 0047f1ee f i atls:atlbase.obj
 0001:0007e1f8       ??0?$CComCritSecLock@VCComCriticalSection@ATL@@@ATL@@QAE@AAVCComCriticalSection@1@_N@Z 0047f1f8 f i atls:atlbase.obj
 0001:0007e228       ??0?$CSimpleArray@PAUHINSTANCE__@@V?$CSimpleArrayEqualHelper@PAUHINSTANCE__@@@ATL@@@ATL@@QAE@XZ 0047f228 f i atls:atlbase.obj
 0001:0007e238       ??0CAtlBaseModule@ATL@@QAE@XZ 0047f238 f   atls:atlbase.obj
 0001:0007e29f       ??0Wrapper@?$CSimpleArray@PAUHINSTANCE__@@V?$CSimpleArrayEqualHelper@PAUHINSTANCE__@@@ATL@@@ATL@@QAE@ABQAUHINSTANCE__@@@Z 0047f29f f i atls:atlbase.obj
 0001:0007e2b3       ??0_ATL_BASE_MODULE70@ATL@@QAE@XZ 0047f2b3 f i atls:atlbase.obj
 0001:0007e2de       ??1?$CComCritSecLock@VCComCriticalSection@ATL@@@ATL@@QAE@XZ 0047f2de f i atls:atlbase.obj
 0001:0007e2fa       ??1?$CSimpleArray@PAUHINSTANCE__@@V?$CSimpleArrayEqualHelper@PAUHINSTANCE__@@@ATL@@@ATL@@QAE@XZ 0047f2fa f i atls:atlbase.obj
 0001:0007e2ff       ??1CAtlBaseModule@ATL@@QAE@XZ 0047f2ff f   atls:atlbase.obj
 0001:0007e31a       ??1_ATL_BASE_MODULE70@ATL@@QAE@XZ 0047f31a f i atls:atlbase.obj
 0001:0007e324       ??A?$CSimpleArray@PAUHINSTANCE__@@V?$CSimpleArrayEqualHelper@PAUHINSTANCE__@@@ATL@@@ATL@@QAEAAPAUHINSTANCE__@@H@Z 0047f324 f i atls:atlbase.obj
 0001:0007e352       ?Add@?$CSimpleArray@PAUHINSTANCE__@@V?$CSimpleArrayEqualHelper@PAUHINSTANCE__@@@ATL@@@ATL@@QAEHABQAUHINSTANCE__@@@Z 0047f352 f i atls:atlbase.obj
 0001:0007e3f4       ?AddResourceInstance@CAtlBaseModule@ATL@@QAE_NPAUHINSTANCE__@@@Z 0047f3f4 f   atls:atlbase.obj
 0001:0007e433       ?AtlCrtErrorCheck@ATL@@YAHH@Z 0047f433 f i atls:atlbase.obj
 0001:0007e47c       ?GetHInstanceAt@CAtlBaseModule@ATL@@QAEPAUHINSTANCE__@@H@Z 0047f47c f   atls:atlbase.obj
 0001:0007e4d2       ?GetSize@?$CSimpleArray@PAUHINSTANCE__@@V?$CSimpleArrayEqualHelper@PAUHINSTANCE__@@@ATL@@@ATL@@QBEHXZ 0047f4d2 f i atls:atlbase.obj
 0001:0007e4d6       ?InternalSetAtIndex@?$CSimpleArray@PAUHINSTANCE__@@V?$CSimpleArrayEqualHelper@PAUHINSTANCE__@@@ATL@@@ATL@@QAEXHABQAUHINSTANCE__@@@Z 0047f4d6 f i atls:atlbase.obj
 0001:0007e4f6       ?Lock@?$CComCritSecLock@VCComCriticalSection@ATL@@@ATL@@QAEJXZ 0047f4f6 f i atls:atlbase.obj
 0001:0007e50d       ?Lock@CComCriticalSection@ATL@@QAEJXZ 0047f50d f i atls:atlbase.obj
 0001:0007e519       ?RemoveAll@?$CSimpleArray@PAUHINSTANCE__@@V?$CSimpleArrayEqualHelper@PAUHINSTANCE__@@@ATL@@@ATL@@QAEXXZ 0047f519 f i atls:atlbase.obj
 0001:0007e53d       ?RemoveAt@?$CSimpleArray@PAUHINSTANCE__@@V?$CSimpleArrayEqualHelper@PAUHINSTANCE__@@@ATL@@@ATL@@QAEHH@Z 0047f53d f i atls:atlbase.obj
 0001:0007e59e       ?RemoveResourceInstance@CAtlBaseModule@ATL@@QAE_NPAUHINSTANCE__@@@Z 0047f59e f   atls:atlbase.obj
 0001:0007e612       ?Unlock@?$CComCritSecLock@VCComCriticalSection@ATL@@@ATL@@QAEXXZ 0047f612 f i atls:atlbase.obj
 0001:0007e627       ?Unlock@CComCriticalSection@ATL@@QAEJXZ 0047f627 f i atls:atlbase.obj
 0001:0007e633       ?memmove_s@Checked@ATL@@YAXPAXIPBXI@Z 0047f633 f i atls:atlbase.obj
 0001:0007e6f7       ??0?$CTraceCategoryEx@$00$0A@@ATL@@QAE@PB_W@Z 0047f6f7 f i atls:stdafx.obj
 0001:0007e6fc       ??0?$CTraceCategoryEx@$01$0A@@ATL@@QAE@PB_W@Z 0047f6fc f i atls:stdafx.obj
 0001:0007e701       ??0?$CTraceCategoryEx@$03$0A@@ATL@@QAE@PB_W@Z 0047f701 f i atls:stdafx.obj
 0001:0007e706       ??0?$CTraceCategoryEx@$07$0A@@ATL@@QAE@PB_W@Z 0047f706 f i atls:stdafx.obj
 0001:0007e70b       ??0?$CTraceCategoryEx@$0BA@$0A@@ATL@@QAE@PB_W@Z 0047f70b f i atls:stdafx.obj
 0001:0007e710       ??0?$CTraceCategoryEx@$0BAA@$0A@@ATL@@QAE@PB_W@Z 0047f710 f i atls:stdafx.obj
 0001:0007e715       ??0?$CTraceCategoryEx@$0BAAA@$0A@@ATL@@QAE@PB_W@Z 0047f715 f i atls:stdafx.obj
 0001:0007e71a       ??0?$CTraceCategoryEx@$0BAAAA@$0A@@ATL@@QAE@PB_W@Z 0047f71a f i atls:stdafx.obj
 0001:0007e71f       ??0?$CTraceCategoryEx@$0BAAAAA@$0A@@ATL@@QAE@PB_W@Z 0047f71f f i atls:stdafx.obj
 0001:0007e724       ??0?$CTraceCategoryEx@$0CA@$0A@@ATL@@QAE@PB_W@Z 0047f724 f i atls:stdafx.obj
 0001:0007e729       ??0?$CTraceCategoryEx@$0CAA@$0A@@ATL@@QAE@PB_W@Z 0047f729 f i atls:stdafx.obj
 0001:0007e72e       ??0?$CTraceCategoryEx@$0CAAA@$0A@@ATL@@QAE@PB_W@Z 0047f72e f i atls:stdafx.obj
 0001:0007e733       ??0?$CTraceCategoryEx@$0CAAAA@$0A@@ATL@@QAE@PB_W@Z 0047f733 f i atls:stdafx.obj
 0001:0007e738       ??0?$CTraceCategoryEx@$0CAAAAA@$0A@@ATL@@QAE@PB_W@Z 0047f738 f i atls:stdafx.obj
 0001:0007e73d       ??0?$CTraceCategoryEx@$0EA@$0A@@ATL@@QAE@PB_W@Z 0047f73d f i atls:stdafx.obj
 0001:0007e742       ??0?$CTraceCategoryEx@$0EAA@$0A@@ATL@@QAE@PB_W@Z 0047f742 f i atls:stdafx.obj
 0001:0007e747       ??0?$CTraceCategoryEx@$0EAAA@$0A@@ATL@@QAE@PB_W@Z 0047f747 f i atls:stdafx.obj
 0001:0007e74c       ??0?$CTraceCategoryEx@$0EAAAA@$0A@@ATL@@QAE@PB_W@Z 0047f74c f i atls:stdafx.obj
 0001:0007e751       ??0?$CTraceCategoryEx@$0EAAAAA@$0A@@ATL@@QAE@PB_W@Z 0047f751 f i atls:stdafx.obj
 0001:0007e756       ??0?$CTraceCategoryEx@$0IA@$0A@@ATL@@QAE@PB_W@Z 0047f756 f i atls:stdafx.obj
 0001:0007e75b       ??0?$CTraceCategoryEx@$0IAA@$0A@@ATL@@QAE@PB_W@Z 0047f75b f i atls:stdafx.obj
 0001:0007e760       ??0?$CTraceCategoryEx@$0IAAA@$0A@@ATL@@QAE@PB_W@Z 0047f760 f i atls:stdafx.obj
 0001:0007e765       ??0?$CTraceCategoryEx@$0IAAAA@$0A@@ATL@@QAE@PB_W@Z 0047f765 f i atls:stdafx.obj
 0001:0007e76a       ??_I@YGXPAXIIP6EX0@Z@Z     0047f76a f i atls:stdafx.obj
 0001:0007e7a9       _SafeArrayCreate@12        0047f7a9 f   oleaut32:OLEAUT32.dll
 0001:0007e7af       _SafeArrayPutElement@12    0047f7af f   oleaut32:OLEAUT32.dll
 0001:0007e7b5       _VariantInit@4             0047f7b5 f   oleaut32:OLEAUT32.dll
 0001:0007e7bb       _VariantClear@4            0047f7bb f   oleaut32:OLEAUT32.dll
 0001:0007e7c1       _VariantCopy@8             0047f7c1 f   oleaut32:OLEAUT32.dll
 0001:0007e7c7       _SysFreeString@4           0047f7c7 f   oleaut32:OLEAUT32.dll
 0001:0007e7cd       ??0_Lockit@std@@QAE@H@Z    0047f7cd f   msvcprtd:MSVCP140D.dll
 0001:0007e7d3       ??1_Lockit@std@@QAE@XZ     0047f7d3 f   msvcprtd:MSVCP140D.dll
 0001:0007e7d9       ?_Xlength_error@std@@YAXPBD@Z 0047f7d9 f   msvcprtd:MSVCP140D.dll
 0001:0007e7df       ?_Xbad_alloc@std@@YAXXZ    0047f7df f   msvcprtd:MSVCP140D.dll
 0001:0007e7e5       __Mbrtowc                  0047f7e5 f   msvcprtd:MSVCP140D.dll
 0001:0007e7eb       ?_Getcvt@_Locinfo@std@@QBE?AU_Cvtvec@@XZ 0047f7eb f   msvcprtd:MSVCP140D.dll
 0001:0007e7f1       ?_Getdays@_Locinfo@std@@QBEPBDXZ 0047f7f1 f   msvcprtd:MSVCP140D.dll
 0001:0007e7f7       ?_Getmonths@_Locinfo@std@@QBEPBDXZ 0047f7f7 f   msvcprtd:MSVCP140D.dll
 0001:0007e7fd       ?_W_Getdays@_Locinfo@std@@QBEPBGXZ 0047f7fd f   msvcprtd:MSVCP140D.dll
 0001:0007e803       ?_W_Getmonths@_Locinfo@std@@QBEPBGXZ 0047f803 f   msvcprtd:MSVCP140D.dll
 0001:0007e810       ?_com_dispatch_method@@YAJPAUIDispatch@@JGGPAXPB_WZZ 0047f810 f   comsuppwd:comsupp.obj
 0001:0007e920       ?_com_dispatch_propget@@YGJPAUIDispatch@@JGPAX@Z 0047f920 f   comsuppwd:comsupp.obj
 0001:0007e960       ?_com_dispatch_propput@@YAJPAUIDispatch@@JGZZ 0047f960 f   comsuppwd:comsupp.obj
 0001:0007eae0       ?_com_issue_error@@YGXJ@Z  0047fae0 f   comsuppwd:comsupp.obj
 0001:0007eb40       ?_com_issue_errorex@@YGXJPAUIUnknown@@ABU_GUID@@@Z 0047fb40 f   comsuppwd:comsupp.obj
 0001:0007ed20       ?_set_com_error_handler@@YGXP6GXJPAUIErrorInfo@@@Z@Z 0047fd20 f   comsuppwd:comsupp.obj
 0001:0007ed40       ??0_com_error@@QAE@ABV0@@Z 0047fd40 f i comsuppwd:comraise.obj
 0001:0007ee00       ??0_com_error@@QAE@JPAUIErrorInfo@@_N@Z 0047fe00 f i comsuppwd:comraise.obj
 0001:0007eec0       ??1_com_error@@UAE@XZ      0047fec0 f i comsuppwd:comraise.obj
 0001:0007ef70       ??_G_com_error@@UAEPAXI@Z  0047ff70 f i comsuppwd:comraise.obj
 0001:0007ef70       ??_E_com_error@@UAEPAXI@Z  0047ff70 f i comsuppwd:comraise.obj
 0001:0007efc0       ?_com_raise_error@@YGXJPAUIErrorInfo@@@Z 0047ffc0 f   comsuppwd:comraise.obj
 0001:0007f020       ?HRESULT_FROM_WIN32@@YGJK@Z 00480020 f i comsuppwd:invkprxy.obj
 0001:0007f070       ?_com_dispatch_raw_method@@YAJPAUIDispatch@@JGGPAXPB_WZZ 00480070 f   comsuppwd:invkprxy.obj
 0001:0007f160       ?_com_dispatch_raw_propget@@YGJPAUIDispatch@@JGPAX@Z 00480160 f   comsuppwd:invkprxy.obj
 0001:0007f1a0       ?_com_dispatch_raw_propput@@YAJPAUIDispatch@@JGZZ 004801a0 f   comsuppwd:invkprxy.obj
 0001:0007f300       ?_com_invoke_helper@@YAJPAUIDispatch@@JGGPAXPB_WPADPAPAUIErrorInfo@@@Z 00480300 f   comsuppwd:invkprxy.obj
 0001:00080760       ?WCodeToHRESULT@_com_error@@SGJG@Z 00481760 f i comsuppwd:invkerr.obj
 0001:000807b0       ?_com_handle_excepinfo@@YGJAAUtagEXCEPINFO@@PAPAUIErrorInfo@@@Z 004817b0 f   comsuppwd:invkerr.obj
 0001:00080b2c       __purecall                 00481b2c f   vcruntimed:VCRUNTIME140D.dll
 0001:00080b32       _memcmp                    00481b32 f   vcruntimed:VCRUNTIME140D.dll
 0001:00080b38       _memcpy                    00481b38 f   vcruntimed:VCRUNTIME140D.dll
 0001:00080b3e       _memmove                   00481b3e f   vcruntimed:VCRUNTIME140D.dll
 0001:00080b44       _memset                    00481b44 f   vcruntimed:VCRUNTIME140D.dll
 0001:00080b4a       ___CxxFrameHandler3        00481b4a f   vcruntimed:VCRUNTIME140D.dll
 0001:00080b50       __CxxThrowException@8      00481b50 f   vcruntimed:VCRUNTIME140D.dll
 0001:00080b56       __except_handler4_common   00481b56 f   vcruntimed:VCRUNTIME140D.dll
 0001:00080b5c       ___std_type_info_destroy_list 00481b5c f   vcruntimed:VCRUNTIME140D.dll
 0001:00080b62       ___vcrt_GetModuleFileNameW 00481b62 f   vcruntimed:VCRUNTIME140D.dll
 0001:00080b68       ___vcrt_GetModuleHandleW   00481b68 f   vcruntimed:VCRUNTIME140D.dll
 0001:00080b6e       ___vcrt_LoadLibraryExW     00481b6e f   vcruntimed:VCRUNTIME140D.dll
 0001:00080b74       _wcscpy_s                  00481b74 f   ucrtd:ucrtbased.dll
 0001:00080b7a       ___stdio_common_vswprintf_s 00481b7a f   ucrtd:ucrtbased.dll
 0001:00080b80       ___stdio_common_vsprintf   00481b80 f   ucrtd:ucrtbased.dll
 0001:00080b86       ___stdio_common_vsnprintf_s 00481b86 f   ucrtd:ucrtbased.dll
 0001:00080b8c       _ldiv                      00481b8c f   ucrtd:ucrtbased.dll
 0001:00080b92       _srand                     00481b92 f   ucrtd:ucrtbased.dll
 0001:00080b98       _rand                      00481b98 f   ucrtd:ucrtbased.dll
 0001:00080b9e       __time64                   00481b9e f   ucrtd:ucrtbased.dll
 0001:00080ba4       __CrtDbgReport             00481ba4 f   ucrtd:ucrtbased.dll
 0001:00080baa       __CrtDbgReportW            00481baa f   ucrtd:ucrtbased.dll
 0001:00080bb0       _wcslen                    00481bb0 f   ucrtd:ucrtbased.dll
 0001:00080bb6       _calloc                    00481bb6 f   ucrtd:ucrtbased.dll
 0001:00080bbc       _free                      00481bbc f   ucrtd:ucrtbased.dll
 0001:00080bc2       _malloc                    00481bc2 f   ucrtd:ucrtbased.dll
 0001:00080bc8       __recalloc                 00481bc8 f   ucrtd:ucrtbased.dll
 0001:00080bce       __itoa                     00481bce f   ucrtd:ucrtbased.dll
 0001:00080bd4       __mktime64                 00481bd4 f   ucrtd:ucrtbased.dll
 0001:00080bda       _atol                      00481bda f   ucrtd:ucrtbased.dll
 0001:00080be0       __invalid_parameter        00481be0 f   ucrtd:ucrtbased.dll
 0001:00080be6       _strlen                    00481be6 f   ucrtd:ucrtbased.dll
 0001:00080bec       __calloc_dbg               00481bec f   ucrtd:ucrtbased.dll
 0001:00080bf2       _fclose                    00481bf2 f   ucrtd:ucrtbased.dll
 0001:00080bf8       _fopen                     00481bf8 f   ucrtd:ucrtbased.dll
 0001:00080bfe       _fwrite                    00481bfe f   ucrtd:ucrtbased.dll
 0001:00080c04       __localtime64              00481c04 f   ucrtd:ucrtbased.dll
 0001:00080c0a       __localtime64_s            00481c0a f   ucrtd:ucrtbased.dll
 0001:00080c10       __mkdir                    00481c10 f   ucrtd:ucrtbased.dll
 0001:00080c16       __except1                  00481c16 f   ucrtd:ucrtbased.dll
 0001:00080c1c       __seh_filter_dll           00481c1c f   ucrtd:ucrtbased.dll
 0001:00080c22       __configure_narrow_argv    00481c22 f   ucrtd:ucrtbased.dll
 0001:00080c28       __initialize_narrow_environment 00481c28 f   ucrtd:ucrtbased.dll
 0001:00080c2e       __initialize_onexit_table  00481c2e f   ucrtd:ucrtbased.dll
 0001:00080c34       __register_onexit_function 00481c34 f   ucrtd:ucrtbased.dll
 0001:00080c3a       __execute_onexit_table     00481c3a f   ucrtd:ucrtbased.dll
 0001:00080c40       __crt_atexit               00481c40 f   ucrtd:ucrtbased.dll
 0001:00080c46       __crt_at_quick_exit        00481c46 f   ucrtd:ucrtbased.dll
 0001:00080c4c       __cexit                    00481c4c f   ucrtd:ucrtbased.dll
 0001:00080c52       _terminate                 00481c52 f   ucrtd:ucrtbased.dll
 0001:00080c58       __seh_filter_exe           00481c58 f   ucrtd:ucrtbased.dll
 0001:00080c5e       __set_app_type             00481c5e f   ucrtd:ucrtbased.dll
 0001:00080c64       ___setusermatherr          00481c64 f   ucrtd:ucrtbased.dll
 0001:00080c6a       __get_narrow_winmain_command_line 00481c6a f   ucrtd:ucrtbased.dll
 0001:00080c70       __initterm                 00481c70 f   ucrtd:ucrtbased.dll
 0001:00080c76       __initterm_e               00481c76 f   ucrtd:ucrtbased.dll
 0001:00080c7c       _exit                      00481c7c f   ucrtd:ucrtbased.dll
 0001:00080c82       __exit                     00481c82 f   ucrtd:ucrtbased.dll
 0001:00080c88       __set_fmode                00481c88 f   ucrtd:ucrtbased.dll
 0001:00080c8e       __c_exit                   00481c8e f   ucrtd:ucrtbased.dll
 0001:00080c94       __register_thread_local_exe_atexit_callback 00481c94 f   ucrtd:ucrtbased.dll
 0001:00080c9a       __configthreadlocale       00481c9a f   ucrtd:ucrtbased.dll
 0001:00080ca0       __set_new_mode             00481ca0 f   ucrtd:ucrtbased.dll
 0001:00080ca6       ___p__commode              00481ca6 f   ucrtd:ucrtbased.dll
 0001:00080cac       __controlfp_s              00481cac f   ucrtd:ucrtbased.dll
 0001:00080cb2       _strcpy_s                  00481cb2 f   ucrtd:ucrtbased.dll
 0001:00080cb8       _strcat_s                  00481cb8 f   ucrtd:ucrtbased.dll
 0001:00080cbe       ___stdio_common_vsprintf_s 00481cbe f   ucrtd:ucrtbased.dll
 0001:00080cc4       __wmakepath_s              00481cc4 f   ucrtd:ucrtbased.dll
 0001:00080cca       __wsplitpath_s             00481cca f   ucrtd:ucrtbased.dll
 0001:00080cd0       __invalid_parameter_noinfo 00481cd0 f   ucrtd:ucrtbased.dll
 0001:00080cd6       __errno                    00481cd6 f   ucrtd:ucrtbased.dll
 0001:00080ce0       ?AfxInitialize@@YGHHK@Z    00481ce0 f   mfcs140d:appmodul.obj
 0001:00080d70       _WinMain@16                00481d70 f   mfcs140d:appmodul.obj
 0001:00080da0       __alloca_probe_16          00481da0 f   msvcrtd:alloca16.obj
 0001:00080db6       __alloca_probe_8           00481db6     msvcrtd:alloca16.obj
 0001:00080dd7       _OutputDebugStringW@4      00481dd7 f   kernel32:KERNEL32.dll
 0001:00080ddd       _LocalFree@4               00481ddd f   kernel32:KERNEL32.dll
 0001:00080de3       _GetErrorInfo@8            00481de3 f   oleaut32:OLEAUT32.dll
 0001:00080de9       _VariantChangeType@16      00481de9 f   oleaut32:OLEAUT32.dll
 0001:00080def       _SetErrorInfo@8            00481def f   oleaut32:OLEAUT32.dll
 0001:00080df5       _CreateErrorInfo@4         00481df5 f   oleaut32:OLEAUT32.dll
 0001:00080dfb       __setmbcp                  00481dfb f   ucrtd:ucrtbased.dll
 0001:00080e01       ?AfxGetModuleState@@YGPAVAFX_MODULE_STATE@@XZ 00481e01 f   mfc140d:mfc140d.dll
 0001:00080e07       ?AfxWinMain@@YGHPAUHINSTANCE__@@0PADH@Z 00481e07 f   mfc140d:mfc140d.dll
 0001:00080e10       ___vcrt_initialize         00481e10 f   msvcrtd:ucrt_stubs.obj
 0001:00080e10       ___scrt_stub_for_acrt_initialize 00481e10 f   msvcrtd:ucrt_stubs.obj
 0001:00080e10       ___acrt_initialize         00481e10 f   msvcrtd:ucrt_stubs.obj
 0001:00080e20       ___scrt_stub_for_acrt_thread_attach 00481e20 f   msvcrtd:ucrt_stubs.obj
 0001:00080e20       ___vcrt_thread_attach      00481e20 f   msvcrtd:ucrt_stubs.obj
 0001:00080e20       ___acrt_thread_attach      00481e20 f   msvcrtd:ucrt_stubs.obj
 0001:00080e30       ___scrt_stub_for_acrt_thread_detach 00481e30 f   msvcrtd:ucrt_stubs.obj
 0001:00080e30       ___vcrt_thread_detach      00481e30 f   msvcrtd:ucrt_stubs.obj
 0001:00080e30       ___acrt_thread_detach      00481e30 f   msvcrtd:ucrt_stubs.obj
 0001:00080e40       ___acrt_uninitialize       00481e40 f   msvcrtd:ucrt_stubs.obj
 0001:00080e40       ___vcrt_uninitialize       00481e40 f   msvcrtd:ucrt_stubs.obj
 0001:00080e40       ___scrt_stub_for_acrt_uninitialize 00481e40 f   msvcrtd:ucrt_stubs.obj
 0001:00080e50       ___scrt_stub_for_acrt_uninitialize_critical 00481e50 f   msvcrtd:ucrt_stubs.obj
 0001:00080e50       ___acrt_uninitialize_critical 00481e50 f   msvcrtd:ucrt_stubs.obj
 0001:00080e50       ___vcrt_uninitialize_critical 00481e50 f   msvcrtd:ucrt_stubs.obj
 0001:00080e60       ___scrt_stub_for_is_c_termination_complete 00481e60 f   msvcrtd:ucrt_stubs.obj
 0001:00080e60       __is_c_termination_complete 00481e60 f   msvcrtd:ucrt_stubs.obj
 0001:00087270       ??__FstrHeap@?1??GetInstance@CAtlStringMgr@ATL@@SAPAUIAtlStringMgr@2@XZ@YAXXZ 00488270 f i Stdafx.obj
 0001:00087290       ??__FstrMgr@?1??GetInstance@CAtlStringMgr@ATL@@SAPAUIAtlStringMgr@2@XZ@YAXXZ 00488290 f i Stdafx.obj
 0002:00000000       ___xc_a                    0048a000     msvcrtd:initializers.obj
 0002:0000049c       ___xc_z                    0048a49c     msvcrtd:initializers.obj
 0002:000005a0       ___xi_a                    0048a5a0     msvcrtd:initializers.obj
 0002:000009b0       ___xi_z                    0048a9b0     msvcrtd:initializers.obj
 0002:00000ab4       ___xl_a                    0048aab4     msvcrtd:tlssup.obj
 0002:00000ab8       ___xl_z                    0048aab8     msvcrtd:tlssup.obj
 0002:00000abc       ___xp_a                    0048aabc     msvcrtd:initializers.obj
 0002:00000bc0       ___xp_z                    0048abc0     msvcrtd:initializers.obj
 0002:00000cc4       ___xt_a                    0048acc4     msvcrtd:initializers.obj
 0002:00000dc8       ___xt_z                    0048adc8     msvcrtd:initializers.obj
 0002:00000f9c       ??_C@_17CNPHIMPH@?$AA?$CF?$AAl?$AAs@ 0048af9c     AttemperEngineSink.obj
 0002:00000fa8       ??_C@_0BC@PGMFNIFA@atlTraceException@ 0048afa8     AttemperEngineSink.obj
 0002:00000fc0       ??_C@_0P@MBNHGHMI@atlTraceString@ 0048afc0     AttemperEngineSink.obj
 0002:00000fd4       ??_C@_17LGGGMOOB@?$AA?$CF?$AAh?$AAs@ 0048afd4     AttemperEngineSink.obj
 0002:00000fe0       ??_C@_1EO@EBPPKGOM@?$AAf?$AAa?$AAl?$AAs?$AAe?$AA?5?$AA?$CG?$AA?$CG?$AA?5?$AA?$CC?$AAT?$AAo?$AAo?$AA?5?$AAm@ 0048afe0     AttemperEngineSink.obj
 0002:00001040       ??_C@_1OE@PDFAMNPL@?$AAc?$AA?3?$AA?2?$AAp?$AAr?$AAo?$AAg?$AAr?$AAa?$AAm?$AA?5?$AAf?$AAi?$AAl?$AAe@ 0048b040     AttemperEngineSink.obj
 0002:00001151       ??_C@_00CNPNBAHC@@         0048b151     AttemperEngineSink.obj
 0002:00001158       ??_7IUnknownEx@@6B@        0048b158     AttemperEngineSink.obj
 0002:00001164       ??_C@_0DK@NEJIDGKJ@g?3?2?M?x?$LK?$PM?2happygamewh?2?$LH?$PO?N?q?$LG?K?2?O?$LF?M?$LD@ 0048b164     AttemperEngineSink.obj
 0002:000011b0       ??_7IAttemperEngineSink@@6B@ 0048b1b0     AttemperEngineSink.obj
 0002:000011f8       ??_7IServerUserItemSink@@6B@ 0048b1f8     AttemperEngineSink.obj
 0002:0000121c       ??_7IMainServiceFrame@@6B@ 0048b21c     AttemperEngineSink.obj
 0002:00001284       ??_C@_0BI@PDGLEKAG@PersonalRoomService?4dll@ 0048b284     AttemperEngineSink.obj
 0002:000012a0       ??_C@_0HC@HBCNBCLF@c?3?2program?5files?5?$CIx86?$CJ?2microsof@ 0048b2a0     AttemperEngineSink.obj
 0002:00001328       ??_C@_05PLCFPPOI@with?5@   0048b328     AttemperEngineSink.obj
 0002:00001330       ??_C@_09HCLNAIDE@?5elements@ 0048b330     AttemperEngineSink.obj
 0002:0000133c       ??_C@_01EEMJAFIK@?6@       0048b33c     AttemperEngineSink.obj
 0002:00001340       ??_C@_03OHJIHPJH@?6?7?$FL@ 0048b340     AttemperEngineSink.obj
 0002:00001344       ??_C@_04OAFLPOMH@?$FN?5?$DN?5@ 0048b344     AttemperEngineSink.obj
 0002:00001350       ??_7?$CWHArray@PBDABQBD@@6B@ 0048b350     AttemperEngineSink.obj
 0002:0000135c       ??_7CSensitiveWordsFilter@@6B@ 0048b35c     AttemperEngineSink.obj
 0002:00001368       ??_7?$CWHArray@PAUtagPersonalTableParameter@@ABQAU1@@@6B@ 0048b368     AttemperEngineSink.obj
 0002:00001374       ??_7?$CWHArray@PAVCTableFrame@@ABQAV1@@@6B@ 0048b374     AttemperEngineSink.obj
 0002:00001380       ??_7?$CMap@KKKAAK@@6B@     0048b380     AttemperEngineSink.obj
 0002:0000139c       ??_7?$CWHArray@PAUtagSystemMessage@@ABQAU1@@@6B@ 0048b39c     AttemperEngineSink.obj
 0002:000013a8       ??_7CAttemperEngineSink@@6BIAttemperEngineSink@@@ 0048b3a8     AttemperEngineSink.obj
 0002:00001400       ??_7CAttemperEngineSink@@6BIMainServiceFrame@@@ 0048b400     AttemperEngineSink.obj
 0002:0000146c       ??_7CAttemperEngineSink@@6BIServerUserItemSink@@@ 0048b46c     AttemperEngineSink.obj
 0002:0000148c       ??_C@_0BN@EEJNAPCD@?U?$PN?T?Z?A?$KM?$LN?S?P?$KN?$LF?w?$LH?$PO?N?q?F?w?5?$FL?5?$CFs?3?$CFd?5?$FN@ 0048b48c     AttemperEngineSink.obj
 0002:000014b0       ??_C@_0BN@BAEBLECI@?U?$PN?T?Z?A?$KM?$LN?S?T?$LM?U?$LN?$LH?$PO?N?q?F?w?5?$FL?5?$CFs?3?$CFd?5?$FN@ 0048b4b0     AttemperEngineSink.obj
 0002:000014d4       ??_C@_0BH@ENKFPCCP@?$LG?$KI?J?$LB?F?w?R?l?$LD?$KD?$KD?$LKTimerID?$DN?$CFd@ 0048b4d4     AttemperEngineSink.obj
 0002:000014f0       ??_C@_0CN@HPLNLDC@?S?k?P?$KN?$LF?w?$LH?$PO?N?q?F?w?$LF?D?A?$KM?$LN?S?$LJ?X?$LB?U?A?K?$KD?$KM?$CFld?5?C@ 0048b4f0     AttemperEngineSink.obj
 0002:00001528       ??_C@_0CN@ONGINNEE@?S?k?T?$LM?U?$LN?$LH?$PO?N?q?F?w?$LF?D?A?$KM?$LN?S?$LJ?X?$LB?U?A?K?$KD?$KM?$CFld?5?C@ 0048b528     AttemperEngineSink.obj
 0002:00001560       ??_C@_0CP@NEANHCGA@?P?$KN?$LF?w?$LH?$PO?N?q?F?w?A?$KM?$LN?S?J?$KH?$LA?$NM?5?$FL?5?$CFld?5?$FN?$KD?$KM?$CFld@ 0048b560     AttemperEngineSink.obj
 0002:00001598       ??_C@_0BM@IFKABAKD@?U?$PN?T?Z?$LH?$KC?K?M?S?N?O?$LH?$LH?$LP?$LM?d?W?$KC?$LC?a?P?E?O?$KC?4?4?4@ 0048b598     AttemperEngineSink.obj
 0002:000015bc       ??_C@_0CP@IEGHCDCN@?T?$LM?U?$LN?$LH?$PO?N?q?F?w?A?$KM?$LN?S?J?$KH?$LA?$NM?5?$FL?5?$CFld?5?$FN?$KD?$KM?$CFld@ 0048b5bc     AttemperEngineSink.obj
 0002:000015f4       ??_C@_0BK@KGOAMGLA@?$LJ?X?$LB?U?A?$KM?$LN?S?R?l?$LD?$KD?3?5wTableID?$DN?$CFd@ 0048b5f4     AttemperEngineSink.obj
 0002:00001618       ??_C@_0EC@EPLGCFIG@?$LL?a?$LH?$KC?I?z?R?l?$LD?$KD?$LF?D?O?$PL?O?$KC?3?5Command?4wMain@ 0048b618     AttemperEngineSink.obj
 0002:00001668       ??_C@_0DG@GPBCOFJG@?S?N?O?$LH?C?$PM?A?n?$LH?$LF?$LL?X?5false?5?5?5wMainCmdID@ 0048b668     AttemperEngineSink.obj
 0002:000016a8       ??_C@_0CA@BDDILDFJ@MDM_GF_FRAME?5?$LP?r?$LM?$NM?C?$PM?A?n?$LH?$LF?$LL?X?5false@ 0048b6a8     AttemperEngineSink.obj
 0002:000016d0       ??_C@_0CJ@GMGBIJBK@?D?z?R?Q?$LB?$LL?$LJ?$NM?$MA?m?T?$LB?G?k?$LD?v?$LH?$LP?$LM?d?01?P?$KB?J?$LB?V?$KO?D?Z?$LC@ 0048b6d0     AttemperEngineSink.obj
 0002:00001704       ??_C@_0DF@CKMKCLBK@?$LB?$KH?G?$LI?$KD?$KM?S?I?S?Z?O?$LF?M?$LD?N?$KM?$LL?$KE?$LF?D?T?$KN?R?r?$KD?$KM?$LF?$LB?G?$LA?S@ 0048b704     AttemperEngineSink.obj
 0002:00001748       ??_C@_0EO@NGJGJCKH@?$LB?$KH?G?$LI?$KD?$KM?D?z?$LF?D?S?N?O?$LH?$LD?I?$LM?$KI?$LF?M?S?Z?$LF?$LB?G?$LA?S?N?O?$LH?$LH@ 0048b748     AttemperEngineSink.obj
 0002:000017a8       ??_C@_0EO@DKDPOCDP@?$LB?$KH?G?$LI?$KD?$KM?D?z?$LF?D?S?N?O?$LH?$LD?I?$LM?$KI?$LI?$NP?S?Z?$LF?$LB?G?$LA?S?N?O?$LH?$LH@ 0048b7a8     AttemperEngineSink.obj
 0002:00001808       ??_C@_0EN@LEGFOBHM@?$LB?$KH?G?$LI?$KD?$KM?D?z?$LF?D?$LL?a?T?$LB?$LM?$LG?$LB?p?$LF?M?S?Z?$LF?$LB?G?$LA?S?N?O?$LH?$LH@ 0048b808     AttemperEngineSink.obj
 0002:00001868       ??_C@_0EN@HOOHFPLN@?$LB?$KH?G?$LI?$KD?$KM?D?z?$LF?D?$LL?a?T?$LB?$LM?$LG?$LB?p?$LI?$NP?S?Z?$LF?$LB?G?$LA?S?N?O?$LH?$LH@ 0048b868     AttemperEngineSink.obj
 0002:000018c4       ??_C@_0DD@EDDOLGC@?$LB?$KH?G?$LI?$KD?$KM?S?I?S?Z?$LE?K?$LH?$LP?$LM?d?R?Q?$LO?$KN?H?K?B?z?$KD?$KM?F?U?M?$KI?M@ 0048b8c4     AttemperEngineSink.obj
 0002:00001904       ??_C@_0DH@PICEIPLI@?F?$LN?L?$KI?J?$PN?$LO?$NN?$LP?b?$LH?$PO?N?q?W?i?$LM?$PO?$LA?f?$LB?$LO?W?$KC?$LC?a?P?E?O?$KC?S@ 0048b904     AttemperEngineSink.obj
 0002:00001948       ??_C@_0BB@LPANEFD@?$LE?$LE?$LN?$KI?W?$MA?W?S?W?x?O?B?J?$KH?$LA?$NM@ 0048b948     AttemperEngineSink.obj
 0002:0000195c       ??_C@_0P@LGKLJHBF@?S?N?O?$LH?W?T?$LG?$KP?$LN?b?I?$KC?$KB?$KD@ 0048b95c     AttemperEngineSink.obj
 0002:00001970       ??_C@_0BL@EKGKFEBG@?S?N?O?$LH?N?$LE?$LP?$KK?J?$LM?$KD?$KM?S?N?O?$LH?W?T?$LG?$KP?$LN?b?I?$KC?$KB?$KD@ 0048b970     AttemperEngineSink.obj
 0002:00001990       ??_C@_0CD@JHECHKJE@?$LH?$LP?V?w?M?K?$LD?v?S?N?O?$LH?$LL?r?S?N?O?$LH?$LD?$KM?J?$LB?$KD?$KM?S?N?O?$LH?$LN?b?I@ 0048b990     AttemperEngineSink.obj
 0002:000019bc       ??_C@_0BF@BBCEPGNP@?S?N?O?$LH?$LD?$KM?J?$LB?$KD?$KM?S?N?O?$LH?$LN?b?I?$KC?$KB?$KD@ 0048b9bc     AttemperEngineSink.obj
 0002:000019d8       ??_C@_0CJ@IPIKOHBH@?T?$LM?U?$LN?$LJ?f?$LG?$KI?$LP?$KK?J?$LM?J?$LB?$LM?d?$LF?$LN?N?$LE?$LP?$KK?J?$LM?S?N?O?$LH?$KD?$KM?S@ 0048b9d8     AttemperEngineSink.obj
 0002:00001a0c       ??_C@_0BF@OAHKEPFP@?$LE?$LE?$LN?$KI?$LH?$LP?$LM?d?$LC?N?J?$PN?$LC?$LL?U?$PN?H?$LH?$KD?$KB@ 0048ba0c     AttemperEngineSink.obj
 0002:00001a28       ??_C@_0CL@OCEOPNCD@?$LB?$KH?G?$LI?$KD?$KM?D?z?J?d?H?k?$LF?D?$LH?$LP?$LM?d?C?$NM?B?k?$LC?$LL?U?$PN?H?$LH?$KD?$KM?G@ 0048ba28     AttemperEngineSink.obj
 0002:00001a5c       ??_C@_0CP@JGONOMBF@?$LK?$NM?$LB?$KH?G?$LI?$KD?$KM?$LE?K?S?N?O?$LH?$LH?$LP?$LM?d?R?Q?$LO?$KN?$LJ?X?$LB?U?A?K?$KD?$KM?$LC@ 0048ba5c     AttemperEngineSink.obj
 0002:00001a94       ??_C@_0DD@PBGKLFPO@?$LI?C?U?J?$LK?E?R?Q?T?Z?$LE?K?$LH?$LP?$LM?d?S?N?O?$LH?$KD?$KM?G?R?$LC?$LL?T?J?P?m?L@ 0048ba94     AttemperEngineSink.obj
 0002:00001ad4       ??_C@_0CL@KDGAPOGL@?$LK?$NM?$LB?$KH?G?$LI?$KD?$KM?D?z?$LF?D?$LF?G?B?$LM?C?$NM?B?k?$LE?m?N?s?$KD?$KM?$LC?$LL?T?J?P@ 0048bad4     AttemperEngineSink.obj
 0002:00001b08       ??_C@_0CP@IADBOHKH@?D?z?U?$PN?T?Z?S?N?O?$LH?V?P?$KD?$KM?T?$NN?J?$LB?$LC?$LL?D?$NM?$MA?k?$LP?$KK?$KD?$KM?G?k?O@ 0048bb08     AttemperEngineSink.obj
 0002:00001b40       ??_C@_0BN@BCDLHLAL@?$LE?m?N?s?$LF?D?$LH?$LP?$LM?d?G?k?G?s?$KD?$KM?G?k?I?T?$LK?s?T?Y?J?T?$KD?$KB@ 0048bb40     AttemperEngineSink.obj
 0002:00001b68       ??_C@_0EF@JJCEJGNN@?$LF?$LB?G?$LA?S?N?O?$LH?$LH?$LP?$LM?d?R?Q?$LO?$KN?H?K?B?z?N?$KK?$LL?$LM?A?K?$KD?$KM?T?$NN?J@ 0048bb68     AttemperEngineSink.obj
 0002:00001bbc       ??_C@_0DP@DPCOLKLL@?S?I?S?Z?$LE?K?S?N?O?$LH?W?$MA?T?$NN?J?$LB?C?$LL?S?P?$LP?I?R?T?H?C?D?z?$LM?S?H@ 0048bbbc     AttemperEngineSink.obj
 0002:00001c08       ??_C@_0DD@KHGFKAPM@?S?I?S?Z?$LE?K?$LH?$LP?$LM?d?C?$LL?S?P?$LP?U?S?$OA?$LF?D?N?$LL?V?C?A?K?$KD?$KM?G?k?Q@ 0048bc08     AttemperEngineSink.obj
 0002:00001c48       ??_C@_0CP@JLGPNJOP@?T?$LM?U?$LN?N?$LE?$LN?a?J?x?$KD?$KM?$LC?$LL?D?$NM?$MA?k?$LP?$KK?S?N?O?$LH?$KD?$KM?G?k?O?H?M@ 0048bc48     AttemperEngineSink.obj
 0002:00001c80       ??_C@_0CH@OBNELMKK@?$LB?$KH?G?$LI?$KD?$KM?$LF?$LB?G?$LA?$LE?K?S?N?O?$LH?$LH?$LP?$LM?d?$LN?$PL?V?$LJ?S?C?$LL?$KH?$LE?s?L@ 0048bc80     AttemperEngineSink.obj
 0002:00001cb0       ??_C@_0DN@EKHAPMJC@?$LB?$KH?G?$LI?$KD?$KM?D?z?C?$LL?S?P?$LE?s?L?$PM?$LH?$KC?Q?T?$LF?D?H?$KI?O?$NO?$KD?$KM?H?t?P@ 0048bcb0     AttemperEngineSink.obj
 0002:00001cfc       ??_C@_0CD@EOEHCMPC@?$LB?$KH?G?$LI?$KD?$KM?$LF?$LB?G?$LA?$LE?K?S?N?O?$LH?$LH?$LP?$LM?d?$LN?$PL?V?$LJ?S?C?$LL?$KH?K?$LN?A@ 0048bcfc     AttemperEngineSink.obj
 0002:00001d28       ??_C@_0DB@MDMMFNJG@?$LB?$KH?G?$LI?$KD?$KM?$LE?K?S?N?O?$LH?$LH?$LP?$LM?d?$LC?$LL?T?J?P?m?T?Z?S?N?O?$LH?V?P?S@ 0048bd28     AttemperEngineSink.obj
 0002:00001d64       ??_C@_0DN@JGPLIPLP@?$LB?$KH?G?$LI?$KD?$KM?D?z?C?$LL?S?P?$LH?$KC?K?M?K?$LN?A?D?$LF?D?H?$KI?O?$NO?$KD?$KM?H?t?P@ 0048bd64     AttemperEngineSink.obj
 0002:00001db0       ??_C@_0BL@BLADOFOC@?$LB?H?H?$PM?$LH?$LP?$LM?d?$LC?$LL?$LP?I?R?T?J?$LJ?S?C?$LE?K?$LJ?$KG?D?$NM?$KD?$KB@ 0048bdb0     AttemperEngineSink.obj
 0002:00001dd0       ??_C@_0BL@GEANMNIE@?A?$LH?O?$LA?$LH?$LP?$LM?d?$LC?$LL?$LP?I?R?T?J?$LJ?S?C?$LE?K?$LJ?$KG?D?$NM?$KD?$KB@ 0048bdd0     AttemperEngineSink.obj
 0002:00001df0       ??_C@_0CB@KFOICNLL@?$LE?K?W?$MA?S?P?M?f?$LM?R?I?h?V?C?A?K?$LC?$LL?S?k?D?z?M?$KM?W?$MA?S?N?O?$LH?$KD@ 0048bdf0     AttemperEngineSink.obj
 0002:00001e18       ??_C@_0CB@KLELGMNL@?$LK?$NM?$LB?$KH?G?$LI?$KD?$KM?L?$NP?$LD?v?$LJ?$NM?$MA?m?T?$LB?J?G?$LC?$LL?$LB?$LL?T?J?P?m?$LF?D?$KD@ 0048be18     AttemperEngineSink.obj
 0002:00001e40       ??_C@_0BL@FDOJANAH@?$LK?$NM?$LB?$KH?G?$LI?$KD?$KM?$LA?Y?H?K?S?N?O?$LH?$LC?$LL?P?m?L?$NP?H?K?$KD?$KB@ 0048be40     AttemperEngineSink.obj
 0002:00001e60       ??_C@_0DA@FMANDGLC@?S?I?S?Z?M?f?$LM?R?5?$FL?5?$CFs?5?$FN?5?U?$PN?T?Z?S?N?O?$LH?V?P?0?D?z?$LC?$LL@ 0048be60     AttemperEngineSink.obj
 0002:00001e9c       ??_C@_0DE@ODOOJLKG@?S?I?S?Z?M?f?$LM?R?5?$FL?5?$CFs?5?$FN?5?U?$PN?T?Z?J?$LJ?S?C?$LH?$MA?L?$NP?$LP?$KI?0@ 0048be9c     AttemperEngineSink.obj
 0002:00001edc       ??_C@_0BD@DKHPFDBP@?D?c?R?Q?$LB?$LL?$CFs?G?k?$MA?k?W?$MA?W?S?$KD?$KB@ 0048bedc     AttemperEngineSink.obj
 0002:00001ef4       ??_C@_0BL@OFHFAKJ@OnTCPNetworkSubUserInfoReq@ 0048bef4     AttemperEngineSink.obj
 0002:00001f14       ??_C@_0BM@GOINLOJB@OnTCPNetworkSubUserChairReq@ 0048bf14     AttemperEngineSink.obj
 0002:00001f38       ??_C@_0BH@GBDECKFN@?C?$LL?U?R?$LF?$LN?$LP?I?$LN?x?H?k?$LF?D?S?N?O?$LH?W?$MA?$KD?$KB@ 0048bf38     AttemperEngineSink.obj
 0002:00001f54       ??_C@_0CD@DACLODCK@?$LE?K?$LH?$LP?$LM?d?$LN?$PL?V?$LJ?$LH?$LP?$LM?d?$LE?f?$LP?n?$KD?$KM?$LE?f?H?k?$LC?Y?W?w?J?$KH?$LA@ 0048bf54     AttemperEngineSink.obj
 0002:00001f80       ??_C@_0CD@MMKIAMDO@?$LE?K?$LH?$LP?$LM?d?$LN?$PL?V?$LJ?S?N?O?$LH?$LE?f?$LP?n?$KD?$KM?$LE?f?H?k?$LC?Y?W?w?J?$KH?$LA@ 0048bf80     AttemperEngineSink.obj
 0002:00001fac       ??_C@_0DL@FGFMEKII@?S?I?S?Z?D?z?U?$PN?T?Z?S?N?O?$LH?V?P?$KD?$KM?S?N?O?$LH?$LB?R?$LP?I?$LE?f?H?k?$LG@ 0048bfac     AttemperEngineSink.obj
 0002:00001ff4       ??_C@_0CD@DPHNMKOK@?D?z?$LF?D?S?N?O?$LH?$LB?R?S?$OA?$LG?n?$LC?$LL?W?c?$KD?$KM?$LE?f?H?k?$LC?Y?W?w?J?$KH?$LA@ 0048bff4     AttemperEngineSink.obj
 0002:00002020       ??_C@_0CD@FDAGJDOL@?$LE?K?$LH?$LP?$LM?d?$LN?$PL?V?$LJ?$LH?$LP?$LM?d?H?$KB?$LP?n?$KD?$KM?H?$KB?$LD?v?$LC?Y?W?w?J?$KH?$LA@ 0048c020     AttemperEngineSink.obj
 0002:0000204c       ??_C@_0CD@KPIFHMPP@?$LE?K?$LH?$LP?$LM?d?$LN?$PL?V?$LJ?S?N?O?$LH?H?$KB?$LP?n?$KD?$KM?H?$KB?$LD?v?$LC?Y?W?w?J?$KH?$LA@ 0048c04c     AttemperEngineSink.obj
 0002:00002078       ??_C@_0BF@KCLAAAGP@?G?k?J?d?H?k?$LK?O?$LH?$KI?$LF?D?M?f?$LM?RID?$KD?$KB@ 0048c078     AttemperEngineSink.obj
 0002:00002094       ??_C@_0DD@HAEGHLFE@?$LF?$LB?G?$LA?S?N?O?$LH?$LH?$PO?N?q?F?w?$LH?$LP?$LM?d?$LF?D?$KB?$LA?T?K?P?P?V?$LF?$KB?$LB?W@ 0048c094     AttemperEngineSink.obj
 0002:000020d4       ??_C@_0CH@EPNGOIIN@?T?$LG?$LD?L?P?$NO?$LI?D?$LH?$LP?$LM?d?E?d?V?C?M?$KI?V?$KK?5?$LJ?$NM?$MA?m?T?$LB?5?$CFs?5@ 0048c0d4     AttemperEngineSink.obj
 0002:00002104       ??_C@_0BH@LKMDCKF@?D?c?R?Q?$LB?$LL?$LJ?$NM?$MA?m?T?$LB?G?k?$MA?k?W?$MA?W?S?$KD?$KB@ 0048c104     AttemperEngineSink.obj
 0002:00002120       ??_C@_0BN@NHDPIONK@?D?c?R?Q?$LB?$LL?$LJ?$NM?$MA?m?T?$LB?G?k?$MA?k?$LE?K?S?N?O?$LH?$LH?$LP?$LM?d?$KD?$KB@ 0048c120     AttemperEngineSink.obj
 0002:00002144       ??_C@_0BH@DNGDNDFB@?S?C?$LL?$KH?A?D?L?l?H?$KI?O?$NO?E?d?V?C?$LD?I?$LJ?$KG?$KD?$KB@ 0048c144     AttemperEngineSink.obj
 0002:00002160       ??_C@_0BN@HMAGCPIB@?$LB?$KH?G?$LI?$KD?$KM?$LE?K?W?$MA?R?Q?$LB?$LL?$LJ?$NM?$MA?m?T?$LB?$LN?b?I?$KC?S?N?O?$LH@ 0048c160     AttemperEngineSink.obj
 0002:00002184       ??_C@_08EGGGBJKA@?$LO?$KP?$LI?f?$KD?$LK?$CFs@ 0048c184     AttemperEngineSink.obj
 0002:00002190       ??_C@_0CF@DJFGALCD@?D?$LP?G?$LA?$LI?C?S?N?O?$LH?T?$LM?U?$LN?$LH?$LP?$LM?d?R?Q?B?z?$KD?$KM?G?k?I?T?$LK?s?T@ 0048c190     AttemperEngineSink.obj
 0002:000021bc       ??_C@_0CJ@KGCLMCGJ@?$LL?$LG?S?$KN?D?z?$LN?x?H?k?$KB?$LA?$CFs?$KB?$LB?S?N?O?$LH?$LH?$LP?$LM?d?$KD?$KM?W?$KD?D?z?S@ 0048c1bc     AttemperEngineSink.obj
 0002:000021f0       ??_C@_0DJ@GOKIFCOM@?G?k?W?$KC?R?b?$KD?$KM?D?z?$LF?D?U?J?$LK?E?T?Z?A?m?R?$LL?$LF?X?$LH?$LN?$LN?x?H?k?A@ 0048c1f0     AttemperEngineSink.obj
 0002:00002234       ??_C@_0DL@JOMAFBAE@?G?k?W?$KC?R?b?$KD?$KM?D?z?$LF?D?U?J?$LK?E?T?Z?A?m?R?$LL?$LF?X?$LH?$LN?$LN?x?H?k?A@ 0048c234     AttemperEngineSink.obj
 0002:0000227c       ??_C@_0CD@EJEBAEKE@?T?y?K?M?J?$KH?$LA?$NM?$KD?$KM?D?z?R?$KK?T?y?K?M?$LF?D?M?f?$LM?R?R?Q?$LO?$KN?$MA?k?$LP@ 0048c27c     AttemperEngineSink.obj
 0002:000022a8       ??_C@_0CA@DODBMCGI@?$LE?K?$LH?$LP?$LM?d?$LC?$LL?$LP?I?R?T?J?$LJ?S?C?$LE?K?$LF?$MA?$LO?$NP?0?$LJ?$LK?B?r?J?$KH?$LA?$NM@ 0048c2a8     AttemperEngineSink.obj
 0002:000022d0       ??_C@_0BK@PJNAMAD@?$LE?K?$LF?$MA?$LO?$NP?$LL?$LJ?N?$LE?F?t?S?C?0?$LJ?$LK?B?r?J?$KH?$LA?$NM?$KD?$KB@ 0048c2d0     AttemperEngineSink.obj
 0002:000022f0       ??_C@_0BO@BJFEPHFF@?$LE?K?$LF?$MA?$LO?$NP?$LC?$LL?$LP?I?W?T?$LM?$LK?J?$LJ?S?C?0?$LJ?$LK?B?r?J?$KH?$LA?$NM?$KD?$KB@ 0048c2f0     AttemperEngineSink.obj
 0002:00002314       ??_C@_0CN@PKMMDIPC@?$LE?K?$LF?$MA?$LO?$NP?$LC?$LL?$LP?I?T?y?K?M?$LI?x?M?f?$LM?R?0?V?$LL?D?$NM?W?T?$LM?$LK?J?$LJ@ 0048c314     AttemperEngineSink.obj
 0002:0000234c       ??_C@_0CE@NGJLFFIP@?$LE?K?$LF?$MA?$LO?$NP?$LC?$LL?$LP?I?T?y?K?M?$LI?x?E?T?$LJ?$NL?S?C?$LL?$KH?0?$LJ?$LK?B?r?J?$KH@ 0048c34c     AttemperEngineSink.obj
 0002:00002378       ??_C@_0DD@NEAJDNEE@?D?z?O?V?T?Z?$LF?D?$LL?$PN?$LH?V?R?Q?$LO?$KN?J?G?$LH?G?$LI?$LK?J?$PN?$KD?$KM?$LC?$LL?P?h?R@ 0048c378     AttemperEngineSink.obj
 0002:000023b8       ??_C@_0DH@KNCICMPD@?$FL?5?$CFs?5?$FN?O?V?T?Z?$LF?D?$LL?$PN?$LH?V?R?Q?$LO?$KN?J?G?$LH?G?$LI?$LK?J?$PN?$KD?$KM?$LC@ 0048c3b8     AttemperEngineSink.obj
 0002:000023fc       ??_C@_0DA@MICEKNAN@?D?z?O?V?T?Z?$LF?D?L?S?E?$NM?B?J?R?Q?$LO?$KN?N?$KK0?$KD?$KM?$LC?$LL?P?h?R?$KK?J?$LJ@ 0048c3fc     AttemperEngineSink.obj
 0002:00002438       ??_C@_0DE@EDOEDLLN@?$FL?5?$CFs?5?$FN?O?V?T?Z?$LF?D?L?S?E?$NM?B?J?R?Q?$LO?$KN?N?$KK0?$KD?$KM?$LC?$LL?P?h@ 0048c438     AttemperEngineSink.obj
 0002:0000247c       ??_7?$CWHArray@UtagDistributeInfo@@ABU1@@@6B@ 0048c47c     AttemperEngineSink.obj
 0002:00002484       ??_C@_0M@OHDHAOMF@?$LH?V?E?d?S?C?$LL?$KH1?$AN?6@ 0048c484     AttemperEngineSink.obj
 0002:00002494       ??_C@_0M@PFICKBCL@?$LH?V?E?d?S?C?$LL?$KH2?$AN?6@ 0048c494     AttemperEngineSink.obj
 0002:000024a4       ??_C@_0M@ENDOMGEO@?$LH?V?E?d?S?C?$LL?$KH3?$AN?6@ 0048c4a4     AttemperEngineSink.obj
 0002:000024b4       ??_C@_0P@CMOCDKCC@?$LH?V?E?d?S?C?$LL?$KH4?9?$CFs?$AN?6@ 0048c4b4     AttemperEngineSink.obj
 0002:000024c8       ??_C@_0L@JCGJHCKC@?W?x?O?B?J?$KH?$LA?$NM?$KD?$KB@ 0048c4c8     AttemperEngineSink.obj
 0002:000024d8       ??_C@_09FMIBEIGP@?$LH?V?E?d?S?C?$LL?$KH5@ 0048c4d8     AttemperEngineSink.obj
 0002:000024e4       ??_C@_09HHKMBLKM@?$LH?V?E?d?S?C?$LL?$KH6@ 0048c4e4     AttemperEngineSink.obj
 0002:000024f0       ??_C@_09GOLHCKON@?$LH?V?E?d?S?C?$LL?$KH7@ 0048c4f0     AttemperEngineSink.obj
 0002:000024fc       ??_C@_09OJCPDGCC@?$LH?V?E?d?S?C?$LL?$KH8@ 0048c4fc     AttemperEngineSink.obj
 0002:00002508       ??_C@_0DF@LDFGAABH@g?3?2?M?x?$LK?$PM?2happygamewh?2?$LH?$PO?N?q?$LG?K?2?O?$LF?M?$LD@ 0048c508     AttemperEngineSink.obj
 0002:000025f0       ??_C@_1OE@IAPLKPHI@?$AAc?$AA?3?$AA?2?$AAp?$AAr?$AAo?$AAg?$AAr?$AAa?$AAm?$AA?5?$AAf?$AAi?$AAl?$AAe@ 0048c5f0     DataBaseEngineSink.obj
 0002:00002708       ??_C@_1OC@PNEKCFJL@?$AAc?$AA?3?$AA?2?$AAp?$AAr?$AAo?$AAg?$AAr?$AAa?$AAm?$AA?5?$AAf?$AAi?$AAl?$AAe@ 0048c708     DataBaseEngineSink.obj
 0002:00002818       ??_C@_1O@LFNDFEBP@?$AA?$CF?$AAl?$AAs?$AA?5?$AA?9?$AA?5@ 0048c818     DataBaseEngineSink.obj
 0002:00002828       ??_C@_1M@PGKOAACE@?$AA?$CF?$AAu?$AA?5?$AA?9?$AA?5@ 0048c828     DataBaseEngineSink.obj
 0002:00002838       ??_C@_1O@OAIPCDPO@?$AA?$CF?$AAl?$AAs?$AA?$CF?$AAl?$AAs@ 0048c838     DataBaseEngineSink.obj
 0002:00002848       ??_C@_0HD@OEBHCJKM@c?3?2program?5files?5?$CIx86?$CJ?2microsof@ 0048c848     DataBaseEngineSink.obj
 0002:000028d4       ??_C@_0BF@IAAKIJDJ@AtlThrow?3?5hr?5?$DN?50x?$CFx?6@ 0048c8d4     DataBaseEngineSink.obj
 0002:000028f0       ??_C@_1BM@GBBOFEAE@?$AA_?$AA_?$AAa?$AAt?$AAl?$AA_?$AAc?$AAo?$AAn?$AAd?$AAV?$AAa?$AAl@ 0048c8f0     DataBaseEngineSink.obj
 0002:00002918       ??_C@_1OC@IALJLBM@?$AAc?$AA?3?$AA?2?$AAp?$AAr?$AAo?$AAg?$AAr?$AAa?$AAm?$AA?5?$AAf?$AAi?$AAl?$AAe@ 0048c918     DataBaseEngineSink.obj
 0002:00002a28       ??_C@_1BK@NHHHCKNA@?$AAm?$AA_?$AAt?$AAi?$AAm?$AAe?$AA?5?$AA?$CB?$AA?$DN?$AA?5?$AA?9?$AA1@ 0048ca28     DataBaseEngineSink.obj
 0002:00002a48       ??_C@_02DPKJAMEF@?$CFd@    0048ca48     DataBaseEngineSink.obj
 0002:00002a4c       ??_C@_02DKCKIIND@?$CFs@    0048ca4c     DataBaseEngineSink.obj
 0002:00002a54       ??_7IDataBaseEngineSink@@6B@ 0048ca54     DataBaseEngineSink.obj
 0002:00002a7c       ??_7?$CTempldateHelper@UIDataBase@@@@6B@ 0048ca7c     DataBaseEngineSink.obj
 0002:00002a88       ??_7CDataBaseHelper@@6B@   0048ca88     DataBaseEngineSink.obj
 0002:00002a90       ??_C@_0P@IKJBDFNG@CreateDataBase@ 0048ca90     DataBaseEngineSink.obj
 0002:00002aa4       ??_C@_0BB@BEMLEOHB@KernelEngine?4dll@ 0048caa4     DataBaseEngineSink.obj
 0002:00002abc       ??_7IGameDataBaseEngine@@6B@ 0048cabc     DataBaseEngineSink.obj
 0002:00002ae4       ??_C@_1BK@NHECDDNK@?$AAm?$AA_?$AAp?$AAD?$AAa?$AAt?$AAa?$AA?5?$AA?$DN?$AA?$DN?$AA?5?$AA0@ 0048cae4     DataBaseEngineSink.obj
 0002:00002b08       ??_7CDataBaseEngineSink@@6BIDataBaseEngineSink@@@ 0048cb08     DataBaseEngineSink.obj
 0002:00002b34       ??_7CDataBaseEngineSink@@6BIGameDataBaseEngine@@@ 0048cb34     DataBaseEngineSink.obj
 0002:00002b60       ??_C@_0FB@KGNGNNGI@g?3?2?M?x?$LK?$PM?2happygamewh?2?$LH?$PO?N?q?$LG?K?2?O?$LF?M?$LD@ 0048cb60     DataBaseEngineSink.obj
 0002:00002bc4       ??_C@_0CD@LCDNOEOA@?S?N?O?$LH?J?$PN?$LO?$NN?$LP?b?$MA?$KJ?U?$LJ?$LJ?$LD?W?S?R?$PN?G?f?$LG?T?O?s?E?d?V?C?J@ 0048cbc4     DataBaseEngineSink.obj
 0002:00002bf0       ??_C@_0CL@EMJCKBGA@CDataBaseEngineSink?3?3OnDataBase@ 0048cbf0     DataBaseEngineSink.obj
 0002:00002c24       ??_C@_07KKAAKNCA@?$CFs?5?5?5?$CFs@ 0048cc24     DataBaseEngineSink.obj
 0002:00002c30       ??_C@_0M@PCENNPGA@?$CFd?4?$CFd?4?$CFd?4?$CFd@ 0048cc30     DataBaseEngineSink.obj
 0002:00002c40       ??_C@_09KCDEMNBD@?$EAdwUserID@ 0048cc40     DataBaseEngineSink.obj
 0002:00002c4c       ??_C@_0N@OCODJCJL@?$EAstrPassword@ 0048cc4c     DataBaseEngineSink.obj
 0002:00002c5c       ??_C@_0N@IDHGAHBD@?$EAstrClientIP@ 0048cc5c     DataBaseEngineSink.obj
 0002:00002c6c       ??_C@_0O@MBPPCANG@?$EAstrMachineID@ 0048cc6c     DataBaseEngineSink.obj
 0002:00002c7c       ??_C@_08HBBOJKPI@?$EAwKindID@ 0048cc7c     DataBaseEngineSink.obj
 0002:00002c88       ??_C@_0L@FIEHJJML@?$EAwServerID@ 0048cc88     DataBaseEngineSink.obj
 0002:00002c98       ??_C@_0L@MKEKGMGP@?$EAdwMatchID@ 0048cc98     DataBaseEngineSink.obj
 0002:00002ca8       ??_C@_09IPBDDIPA@?$EAlMatchNo@ 0048cca8     DataBaseEngineSink.obj
 0002:00002cb4       ??_C@_0N@NLBCJFKK@?$EAcbMatchType@ 0048ccb4     DataBaseEngineSink.obj
 0002:00002cc4       ??_C@_0BC@IIOJPJPJ@?$EAstrErrorDescribe@ 0048ccc4     DataBaseEngineSink.obj
 0002:00002cdc       ??_C@_0BG@EHAHJCGI@GSP_GR_EfficacyUserID@ 0048ccdc     DataBaseEngineSink.obj
 0002:00002cf8       ??_C@_0DH@NMJACNII@?S?I?S?Z?J?$PN?$LO?$NN?$LP?b?$LC?Y?W?w?R?l?$LD?$KD?$KD?$KM?G?k?D?z?I?T?$LK?s?V?X?J@ 0048ccf8     DataBaseEngineSink.obj
 0002:00002d3c       ??_C@_0BC@KHGFDOLM@?$EAcbPersonalServer@ 0048cd3c     DataBaseEngineSink.obj
 0002:00002d54       ??_C@_0BG@OAADBPEH@GSP_GR_EfficacyMobile@ 0048cd54     DataBaseEngineSink.obj
 0002:00002d70       ??_C@_0CK@MGDIICLE@CDataBaseEngineSink?3?3OnRequestL@ 0048cd70     DataBaseEngineSink.obj
 0002:00002da4       ??_C@_0N@MLMFFBNL@?$EAstrAccounts@ 0048cda4     DataBaseEngineSink.obj
 0002:00002db4       ??_C@_0BI@BOJOKCIN@GSP_GR_EfficacyAccounts@ 0048cdb4     DataBaseEngineSink.obj
 0002:00002dd0       ??_C@_0CM@KPLBNJDB@CDataBaseEngineSink?3?3OnRequestL@ 0048cdd0     DataBaseEngineSink.obj
 0002:00002e04       ??_C@_0N@BIOKLHCN@?$EAdwDBQuestID@ 0048ce04     DataBaseEngineSink.obj
 0002:00002e14       ??_C@_0O@PPOIJHID@?$EAdwInoutIndex@ 0048ce14     DataBaseEngineSink.obj
 0002:00002e24       ??_C@_07IHGEHHKH@?$EAlScore@ 0048ce24     DataBaseEngineSink.obj
 0002:00002e30       ??_C@_07LKNHCBOJ@?$EAlGrade@ 0048ce30     DataBaseEngineSink.obj
 0002:00002e3c       ??_C@_08OCBOKEP@?$EAlInsure@ 0048ce3c     DataBaseEngineSink.obj
 0002:00002e48       ??_C@_09OLPFNGOI@?$EAlRevenue@ 0048ce48     DataBaseEngineSink.obj
 0002:00002e54       ??_C@_0L@EMKAIBLN@?$EAlWinCount@ 0048ce54     DataBaseEngineSink.obj
 0002:00002e64       ??_C@_0M@BEHGNDKH@?$EAlLostCount@ 0048ce64     DataBaseEngineSink.obj
 0002:00002e74       ??_C@_0M@FFFIBKLO@?$EAlDrawCount@ 0048ce74     DataBaseEngineSink.obj
 0002:00002e84       ??_C@_0M@EBKENAHN@?$EAlFleeCount@ 0048ce84     DataBaseEngineSink.obj
 0002:00002e94       ??_C@_0BA@FNKIBADP@?$EAlIntegralCount@ 0048ce94     DataBaseEngineSink.obj
 0002:00002ea8       ??_C@_0M@ENGFFDDJ@?$EAlUserMedal@ 0048cea8     DataBaseEngineSink.obj
 0002:00002eb8       ??_C@_0N@MGELBJJC@?$EAlExperience@ 0048ceb8     DataBaseEngineSink.obj
 0002:00002ec8       ??_C@_0N@FDFNLKLE@?$EAlLoveLiness@ 0048cec8     DataBaseEngineSink.obj
 0002:00002ed8       ??_C@_0BB@ILKLMOOE@?$EAdwPlayTimeCount@ 0048ced8     DataBaseEngineSink.obj
 0002:00002eec       ??_C@_0P@FLMBKOGD@?$EAcbTaskForward@ 0048ceec     DataBaseEngineSink.obj
 0002:00002f00       ??_C@_0BG@DLJGFNHB@GSP_GR_WriteGameScore@ 0048cf00     DataBaseEngineSink.obj
 0002:00002f1c       ??_C@_0CN@JLMFBEAP@CDataBaseEngineSink?3?3OnRequestW@ 0048cf1c     DataBaseEngineSink.obj
 0002:00002f54       ??_C@_0BD@NIKDNNEL@?$EAdwOnLineTimeCount@ 0048cf54     DataBaseEngineSink.obj
 0002:00002f6c       ??_C@_0P@IACLLIC@?$EAdwLeaveReason@ 0048cf6c     DataBaseEngineSink.obj
 0002:00002f80       ??_C@_0O@FKMDFANF@?$EAlRecordScore@ 0048cf80     DataBaseEngineSink.obj
 0002:00002f90       ??_C@_0O@GHHAAGJL@?$EAlRecordGrade@ 0048cf90     DataBaseEngineSink.obj
 0002:00002fa0       ??_C@_0P@LAPHFNHI@?$EAlRecordInsure@ 0048cfa0     DataBaseEngineSink.obj
 0002:00002fb4       ??_C@_0BA@FDPGKFFA@?$EAlRecordRevenue@ 0048cfb4     DataBaseEngineSink.obj
 0002:00002fc8       ??_C@_0BB@IJKCLJHA@?$EAlRecordWinCount@ 0048cfc8     DataBaseEngineSink.obj
 0002:00002fdc       ??_C@_0BC@PBGGGPJC@?$EAlRecordLostCount@ 0048cfdc     DataBaseEngineSink.obj
 0002:00002ff4       ??_C@_0BC@LAEIKGIL@?$EAlRecordDrawCount@ 0048cff4     DataBaseEngineSink.obj
 0002:0000300c       ??_C@_0BC@KELEGMEI@?$EAlRecordFleeCount@ 0048d00c     DataBaseEngineSink.obj
 0002:00003024       ??_C@_0BC@KIHFOPAM@?$EAlRecordUserMedal@ 0048d024     DataBaseEngineSink.obj
 0002:0000303c       ??_C@_0BD@JABNMNAN@?$EAlRecordExperience@ 0048d03c     DataBaseEngineSink.obj
 0002:00003054       ??_C@_0BD@FALGOCL@?$EAlRecordLoveLiness@ 0048d054     DataBaseEngineSink.obj
 0002:0000306c       ??_C@_0BH@CFEHAANM@?$EAdwRecordPlayTimeCount@ 0048d06c     DataBaseEngineSink.obj
 0002:00003088       ??_C@_0BB@BDJPJJDH@?$EAlVariationScore@ 0048d088     DataBaseEngineSink.obj
 0002:0000309c       ??_C@_0BB@COCMMPHJ@?$EAlVariationGrade@ 0048d09c     DataBaseEngineSink.obj
 0002:000030b0       ??_C@_0BC@POLKICOF@?$EAlVariationInsure@ 0048d0b0     DataBaseEngineSink.obj
 0002:000030c8       ??_C@_0BD@NNAGAHHG@?$EAlVariationRevenue@ 0048d0c8     DataBaseEngineSink.obj
 0002:000030e0       ??_C@_0BE@FLCBMMCP@?$EAlVariationWinCount@ 0048d0e0     DataBaseEngineSink.obj
 0002:000030f8       ??_C@_0BF@KGAKAIC@?$EAlVariationLostCount@ 0048d0f8     DataBaseEngineSink.obj
 0002:00003114       ??_C@_0BF@ELEOGJJL@?$EAlVariationDrawCount@ 0048d114     DataBaseEngineSink.obj
 0002:00003130       ??_C@_0BF@FPLCKDFI@?$EAlVariationFleeCount@ 0048d130     DataBaseEngineSink.obj
 0002:0000314c       ??_C@_0BJ@HKGEBBIO@?$EAlVariationIntegralCount@ 0048d14c     DataBaseEngineSink.obj
 0002:0000316c       ??_C@_0BF@FDHDCABM@?$EAlVariationUserMedal@ 0048d16c     DataBaseEngineSink.obj
 0002:00003188       ??_C@_0BG@INFBNLKG@?$EAlVariationExperience@ 0048d188     DataBaseEngineSink.obj
 0002:000031a4       ??_C@_0BG@BIEHHIIA@?$EAlVariationLoveLiness@ 0048d1a4     DataBaseEngineSink.obj
 0002:000031c0       ??_C@_0BK@LBPPCHBA@?$EAdwVariationPlayTimeCount@ 0048d1c0     DataBaseEngineSink.obj
 0002:000031e0       ??_C@_0BC@DCDJHBHF@?$EAcbIsPersonalRoom@ 0048d1e0     DataBaseEngineSink.obj
 0002:000031f8       ??_C@_0BH@MLOBMFPB@GSP_GR_LeaveGameServer@ 0048d1f8     DataBaseEngineSink.obj
 0002:00003214       ??_C@_0CO@HMPMMKID@CDataBaseEngineSink?3?3OnRequestL@ 0048d214     DataBaseEngineSink.obj
 0002:0000324c       ??_C@_0BC@LLEGCEPB@?$EAdwPersonalRoomID@ 0048d24c     DataBaseEngineSink.obj
 0002:00003264       ??_C@_0L@LJHFIHID@?$EAdwMatchNo@ 0048d264     DataBaseEngineSink.obj
 0002:00003274       ??_C@_0O@GFIHOHG@?$EAdwRoomHostID@ 0048d274     DataBaseEngineSink.obj
 0002:00003284       ??_C@_0P@DBPPDOEI@?$EAdwPersonalTax@ 0048d284     DataBaseEngineSink.obj
 0002:00003298       ??_C@_0BF@JFHEMCEA@?$EAstrPersonalRoomGUID@ 0048d298     DataBaseEngineSink.obj
 0002:000032b4       ??_C@_0BO@LELKKMEB@GSP_GR_WritePersonalGameScore@ 0048d2b4     DataBaseEngineSink.obj
 0002:000032d8       ??_C@_0P@OLEHMMGF@?T?$LM?U?$LN?$LH?$LP?$LM?d?P?$LE?$LH?V?51@ 0048d2d8     DataBaseEngineSink.obj
 0002:000032ec       ??_C@_0P@MAGKJPKG@?T?$LM?U?$LN?$LH?$LP?$LM?d?P?$LE?$LH?V?52@ 0048d2ec     DataBaseEngineSink.obj
 0002:00003300       ??_C@_0P@NJHBKOOH@?T?$LM?U?$LN?$LH?$LP?$LM?d?P?$LE?$LH?V?53@ 0048d300     DataBaseEngineSink.obj
 0002:00003314       ??_C@_06INBEDIMB@?$EAstrID@ 0048d314     DataBaseEngineSink.obj
 0002:0000331c       ??_C@_0L@NKNBMEGF@?$EAlGamesNum@ 0048d31c     DataBaseEngineSink.obj
 0002:0000332c       ??_C@_0M@CIPFFAIA@?$EAcbGameMode@ 0048d32c     DataBaseEngineSink.obj
 0002:0000333c       ??_C@_0N@DPNIOAJI@?$EAcbLoopCount@ 0048d33c     DataBaseEngineSink.obj
 0002:0000334c       ??_C@_0BL@EDODNHHH@GSP_GR_WriteRecordBackInfo@ 0048d34c     DataBaseEngineSink.obj
 0002:0000336c       ??_C@_0DF@CGMOPKIG@CDataBaseEngineSink?3?3OnRequestW@ 0048d36c     DataBaseEngineSink.obj
 0002:000033ac       ??_C@_09BEPIILDK@?$EAwTableID@ 0048d3ac     DataBaseEngineSink.obj
 0002:000033b8       ??_C@_0M@NBOKIGPJ@?$EAwUserCount@ 0048d3b8     DataBaseEngineSink.obj
 0002:000033c8       ??_C@_0P@CKGONGPM@?$EAwAndroidCount@ 0048d3c8     DataBaseEngineSink.obj
 0002:000033dc       ??_C@_0N@PABBDPKG@?$EAlWasteCount@ 0048d3dc     DataBaseEngineSink.obj
 0002:000033ec       ??_C@_0P@NCELGDGP@?$EAlRevenueCount@ 0048d3ec     DataBaseEngineSink.obj
 0002:00003400       ??_C@_0N@GPKBKOPN@?$EAdwUserMemal@ 0048d400     DataBaseEngineSink.obj
 0002:00003410       ??_C@_0BB@PGLAPBFB@?$EASystemTimeStart@ 0048d410     DataBaseEngineSink.obj
 0002:00003424       ??_C@_0BE@EDEOJJCJ@?$EASystemTimeConclude@ 0048d424     DataBaseEngineSink.obj
 0002:0000343c       ??_C@_0BG@LIJOAHKH@GSP_GR_RecordDrawInfo@ 0048d43c     DataBaseEngineSink.obj
 0002:00003458       ??_C@_06CNNJCHLH@DrawID@   0048d458     DataBaseEngineSink.obj
 0002:00003460       ??_C@_09GKJPNPDO@?$EAdwDrawID@ 0048d460     DataBaseEngineSink.obj
 0002:0000346c       ??_C@_09HEKEGECD@?$EAwChairID@ 0048d46c     DataBaseEngineSink.obj
 0002:00003478       ??_C@_0N@BCKJOBHH@?$EAdwUserMedal@ 0048d478     DataBaseEngineSink.obj
 0002:00003488       ??_C@_0BH@GDKLKNEL@GSP_GR_RecordDrawScore@ 0048d488     DataBaseEngineSink.obj
 0002:000034a4       ??_C@_0CO@PMJFKAHH@CDataBaseEngineSink?3?3OnRequestG@ 0048d4a4     DataBaseEngineSink.obj
 0002:000034dc       ??_C@_0BF@PPDAJELF@GSP_GR_LoadParameter@ 0048d4dc     DataBaseEngineSink.obj
 0002:000034f8       ??_C@_09ONKIKKOA@MedalRate@ 0048d4f8     DataBaseEngineSink.obj
 0002:00003504       ??_C@_0M@DBHJHGAC@RevenueRate@ 0048d504     DataBaseEngineSink.obj
 0002:00003514       ??_C@_0N@GLADEADN@ExchangeRate@ 0048d514     DataBaseEngineSink.obj
 0002:00003524       ??_C@_0BE@JJGPDMNP@PresentExchangeRate@ 0048d524     DataBaseEngineSink.obj
 0002:0000353c       ??_C@_08NAMHLHLO@RateGold@ 0048d53c     DataBaseEngineSink.obj
 0002:00003548       ??_C@_0BC@IMPEKOG@EducateGrantScore@ 0048d548     DataBaseEngineSink.obj
 0002:00003560       ??_C@_0O@ICJCJIAI@WinExperience@ 0048d560     DataBaseEngineSink.obj
 0002:00003570       ??_C@_0O@DNEICACF@ClientVersion@ 0048d570     DataBaseEngineSink.obj
 0002:00003580       ??_C@_0O@BNALHPOE@ServerVersion@ 0048d580     DataBaseEngineSink.obj
 0002:00003590       ??_C@_0CM@KGJLJCFF@CDataBaseEngineSink?3?3OnRequestL@ 0048d590     DataBaseEngineSink.obj
 0002:000035c4       ??_C@_0BG@IEDFJCH@GSP_GR_GameColumnItem@ 0048d5c4     DataBaseEngineSink.obj
 0002:000035e0       ??_C@_0M@COECLCNM@ColumnWidth@ 0048d5e0     DataBaseEngineSink.obj
 0002:000035f0       ??_C@_0N@JAOGOMAE@DataDescribe@ 0048d5f0     DataBaseEngineSink.obj
 0002:00003600       ??_C@_0L@EBJKHBJE@ColumnName@ 0048d600     DataBaseEngineSink.obj
 0002:00003610       ??_C@_0CN@LJMNCEOE@CDataBaseEngineSink?3?3OnRequestL@ 0048d610     DataBaseEngineSink.obj
 0002:00003648       ??_C@_0L@BDGKHOMD@?$EAdwBatchID@ 0048d648     DataBaseEngineSink.obj
 0002:00003658       ??_C@_0BA@DNMBDDEJ@?$EAdwAndroidCount@ 0048d658     DataBaseEngineSink.obj
 0002:0000366c       ??_C@_0BH@DNAMKFJF@?$EAdwAndroidCountMember0@ 0048d66c     DataBaseEngineSink.obj
 0002:00003688       ??_C@_0BH@CEBHJENE@?$EAdwAndroidCountMember1@ 0048d688     DataBaseEngineSink.obj
 0002:000036a4       ??_C@_0BH@PDKMHBH@?$EAdwAndroidCountMember2@ 0048d6a4     DataBaseEngineSink.obj
 0002:000036c0       ??_C@_0BH@BGCBPGFG@?$EAdwAndroidCountMember3@ 0048d6c0     DataBaseEngineSink.obj
 0002:000036dc       ??_C@_0BH@FJGAGAJB@?$EAdwAndroidCountMember4@ 0048d6dc     DataBaseEngineSink.obj
 0002:000036f8       ??_C@_0BH@EAHLFBNA@?$EAdwAndroidCountMember5@ 0048d6f8     DataBaseEngineSink.obj
 0002:00003714       ??_C@_0BH@BJLDIKBA@GSP_GR_LoadAndroidUser@ 0048d714     DataBaseEngineSink.obj
 0002:00003730       ??_C@_06OFHCDFJK@UserID@   0048d730     DataBaseEngineSink.obj
 0002:00003738       ??_C@_09GHCLGGMH@LogonPass@ 0048d738     DataBaseEngineSink.obj
 0002:00003744       ??_C@_0CO@KOKOIFGC@CDataBaseEngineSink?3?3OnRequestL@ 0048d744     DataBaseEngineSink.obj
 0002:0000377c       ??_C@_0BM@HFEEKHA@GSP_GR_LoadAndroidConfigure@ 0048d77c     DataBaseEngineSink.obj
 0002:000037a0       ??_C@_07IHEJADLP@BatchID@  0048d7a0     DataBaseEngineSink.obj
 0002:000037ac       ??_C@_0M@CGPIJAFO@ServiceMode@ 0048d7ac     DataBaseEngineSink.obj
 0002:000037bc       ??_C@_0N@LHJAPBGB@AndroidCount@ 0048d7bc     DataBaseEngineSink.obj
 0002:000037cc       ??_C@_09JEABEHKK@EnterTime@ 0048d7cc     DataBaseEngineSink.obj
 0002:000037d8       ??_C@_09JGPPHJIC@LeaveTime@ 0048d7d8     DataBaseEngineSink.obj
 0002:000037e4       ??_C@_0N@INLGMBIA@TakeMinScore@ 0048d7e4     DataBaseEngineSink.obj
 0002:000037f4       ??_C@_0N@FKFNHDMB@TakeMaxScore@ 0048d7f4     DataBaseEngineSink.obj
 0002:00003804       ??_C@_0BB@CIODOFGF@EnterMinInterval@ 0048d804     DataBaseEngineSink.obj
 0002:00003818       ??_C@_0BB@LIJAPFIP@EnterMaxInterval@ 0048d818     DataBaseEngineSink.obj
 0002:0000382c       ??_C@_0BB@LHMMNCPE@LeaveMinInterval@ 0048d82c     DataBaseEngineSink.obj
 0002:00003840       ??_C@_0BB@CHLPMCBO@LeaveMaxInterval@ 0048d840     DataBaseEngineSink.obj
 0002:00003854       ??_C@_0BB@CKJBODDL@SwitchMinInnings@ 0048d854     DataBaseEngineSink.obj
 0002:00003868       ??_C@_0BB@OGJMJIDE@SwitchMaxInnings@ 0048d868     DataBaseEngineSink.obj
 0002:0000387c       ??_C@_0BE@BKOJNNPF@AndroidCountMember0@ 0048d87c     DataBaseEngineSink.obj
 0002:00003894       ??_C@_0BE@DPCOMLE@AndroidCountMember1@ 0048d894     DataBaseEngineSink.obj
 0002:000038ac       ??_C@_0BE@CINPLPHH@AndroidCountMember2@ 0048d8ac     DataBaseEngineSink.obj
 0002:000038c4       ??_C@_0BE@DBMEIODG@AndroidCountMember3@ 0048d8c4     DataBaseEngineSink.obj
 0002:000038dc       ??_C@_0BE@HOIFBIPB@AndroidCountMember4@ 0048d8dc     DataBaseEngineSink.obj
 0002:000038f4       ??_C@_0BE@GHJOCJLA@AndroidCountMember5@ 0048d8f4     DataBaseEngineSink.obj
 0002:0000390c       ??_C@_0DD@MMLAFNDG@CDataBaseEngineSink?3?3OnRequestL@ 0048d90c     DataBaseEngineSink.obj
 0002:0000394c       ??_C@_0O@JCJPMBHE@?$EAstrLogonPass@ 0048d94c     DataBaseEngineSink.obj
 0002:0000395c       ??_C@_0P@EDLCJHLF@?$EAstrInsurePass@ 0048d95c     DataBaseEngineSink.obj
 0002:00003970       ??_C@_0BI@EOGGEIFI@GSP_GR_UserEnableInsure@ 0048d970     DataBaseEngineSink.obj
 0002:0000398c       ??_C@_0CP@PANKEFEH@CDataBaseEngineSink?3?3OnRequestU@ 0048d98c     DataBaseEngineSink.obj
 0002:000039c4       ??_C@_0CD@MJBPILMG@?S?I?S?Z?J?$PN?$LO?$NN?$LP?b?$LC?Y?W?w?R?l?$LD?$KD?$KD?$KM?G?k?D?z?I?T?$LK?s?V?X?J@ 0048d9c4     DataBaseEngineSink.obj
 0002:000039f0       ??_C@_0M@DMDPGKCL@?$EAlSaveScore@ 0048d9f0     DataBaseEngineSink.obj
 0002:00003a00       ??_C@_0BF@ONNMJOCF@GSP_GR_UserSaveScore@ 0048da00     DataBaseEngineSink.obj
 0002:00003a1c       ??_C@_0CM@LEHHJIMF@CDataBaseEngineSink?3?3OnRequestU@ 0048da1c     DataBaseEngineSink.obj
 0002:00003a50       ??_C@_0M@DJFNFFKI@?$EAlTakeScore@ 0048da50     DataBaseEngineSink.obj
 0002:00003a60       ??_C@_0BF@OILOKBKG@GSP_GR_UserTakeScore@ 0048da60     DataBaseEngineSink.obj
 0002:00003a7c       ??_C@_0CM@LBBFKHEG@CDataBaseEngineSink?3?3OnRequestU@ 0048da7c     DataBaseEngineSink.obj
 0002:00003ab0       ??_C@_0BA@MGGCKEGC@?$EAlTransferScore@ 0048dab0     DataBaseEngineSink.obj
 0002:00003ac4       ??_C@_09OBNFMHID@?$EAdwGameID@ 0048dac4     DataBaseEngineSink.obj
 0002:00003ad0       ??_C@_0BA@MNCPGFOB@?$EAstrTransRemark@ 0048dad0     DataBaseEngineSink.obj
 0002:00003ae4       ??_C@_0BJ@BAPHEKDA@GSP_GR_UserTransferScore@ 0048dae4     DataBaseEngineSink.obj
 0002:00003b04       ??_C@_0DA@JNEBPLMI@CDataBaseEngineSink?3?3OnRequestU@ 0048db04     DataBaseEngineSink.obj
 0002:00003b40       ??_C@_0BL@GGGEOIGJ@GSP_GR_QueryUserInsureInfo@ 0048db40     DataBaseEngineSink.obj
 0002:00003b60       ??_C@_0P@DBBFLPKL@EnjoinTransfer@ 0048db60     DataBaseEngineSink.obj
 0002:00003b74       ??_C@_0M@KJEDGHOP@RevenueTake@ 0048db74     DataBaseEngineSink.obj
 0002:00003b84       ??_C@_0BA@HIHDDCHL@RevenueTransfer@ 0048db84     DataBaseEngineSink.obj
 0002:00003b98       ??_C@_0BG@EHBBDEOF@RevenueTransferMember@ 0048db98     DataBaseEngineSink.obj
 0002:00003bb4       ??_C@_08BHBELLIH@ServerID@ 0048dbb4     DataBaseEngineSink.obj
 0002:00003bc0       ??_C@_05DGAPONBB@Score@    0048dbc0     DataBaseEngineSink.obj
 0002:00003bc8       ??_C@_06CMJCJHGM@Insure@   0048dbc8     DataBaseEngineSink.obj
 0002:00003bd0       ??_C@_0BF@DFIKLPAJ@TransferPrerequisite@ 0048dbd0     DataBaseEngineSink.obj
 0002:00003bec       ??_C@_09BHJIBPFI@UserRight@ 0048dbec     DataBaseEngineSink.obj
 0002:00003bf8       ??_C@_0CO@GLIMKCDC@CDataBaseEngineSink?3?3OnRequestQ@ 0048dbf8     DataBaseEngineSink.obj
 0002:00003c30       ??_C@_0O@KBJAEAIJ@?$EAcbByNickName@ 0048dc30     DataBaseEngineSink.obj
 0002:00003c40       ??_C@_0BN@BPPBPPLC@GSP_GR_QueryTransferUserInfo@ 0048dc40     DataBaseEngineSink.obj
 0002:00003c64       ??_C@_06KGJDDPAK@GameID@   0048dc64     DataBaseEngineSink.obj
 0002:00003c6c       ??_C@_08HAKGLFIM@Accounts@ 0048dc6c     DataBaseEngineSink.obj
 0002:00003c78       ??_C@_0DE@LJCJKDHO@CDataBaseEngineSink?3?3OnRequestQ@ 0048dc78     DataBaseEngineSink.obj
 0002:00003cb8       ??_C@_08MMMILHNH@?$EAwTaskID@ 0048dcb8     DataBaseEngineSink.obj
 0002:00003cc4       ??_C@_0BC@OIFHAIIF@GSP_GR_TaskGiveUp@ 0048dcc4     DataBaseEngineSink.obj
 0002:00003cdc       ??_C@_0CJ@ILCACMNL@CDataBaseEngineSink?3?3OnRequestT@ 0048dcdc     DataBaseEngineSink.obj
 0002:00003d10       ??_C@_0BA@OEKNDNNG@GSP_GR_TaskTake@ 0048dd10     DataBaseEngineSink.obj
 0002:00003d24       ??_C@_0CH@BNKPKJJC@CDataBaseEngineSink?3?3OnRequestT@ 0048dd24     DataBaseEngineSink.obj
 0002:00003d54       ??_C@_0BC@LNNECEA@GSP_GR_TaskReward@ 0048dd54     DataBaseEngineSink.obj
 0002:00003d6c       ??_C@_05OOEBDDIB@Ingot@    0048dd6c     DataBaseEngineSink.obj
 0002:00003d74       ??_C@_0CJ@GIKKGGBO@CDataBaseEngineSink?3?3OnRequestT@ 0048dd74     DataBaseEngineSink.obj
 0002:00003da8       ??_C@_0BE@DLBECAIO@GSP_GR_LoadTaskList@ 0048dda8     DataBaseEngineSink.obj
 0002:00003dc0       ??_C@_06MPKKOHIJ@TaskID@   0048ddc0     DataBaseEngineSink.obj
 0002:00003dc8       ??_C@_08CGFBPIO@TaskType@  0048ddc8     DataBaseEngineSink.obj
 0002:00003dd4       ??_C@_08LFHMHDM@UserType@  0048ddd4     DataBaseEngineSink.obj
 0002:00003de0       ??_C@_06HCHMMKKG@KindID@   0048dde0     DataBaseEngineSink.obj
 0002:00003de8       ??_C@_07EDCJMCFO@Innings@  0048dde8     DataBaseEngineSink.obj
 0002:00003df4       ??_C@_09OHILOMME@TimeLimit@ 0048ddf4     DataBaseEngineSink.obj
 0002:00003e00       ??_C@_0BC@HPFPIBKO@StandardAwardGold@ 0048de00     DataBaseEngineSink.obj
 0002:00003e18       ??_C@_0BD@NAANCEAG@StandardAwardMedal@ 0048de18     DataBaseEngineSink.obj
 0002:00003e30       ??_C@_0BA@NOFNIKCO@MemberAwardGold@ 0048de30     DataBaseEngineSink.obj
 0002:00003e44       ??_C@_0BB@DNBEKFCN@MemberAwardMedal@ 0048de44     DataBaseEngineSink.obj
 0002:00003e58       ??_C@_08KJGGNPPO@TaskName@ 0048de58     DataBaseEngineSink.obj
 0002:00003e64       ??_C@_0BA@OIFLMOIG@TaskDescription@ 0048de64     DataBaseEngineSink.obj
 0002:00003e78       ??_C@_0CL@CDCPNHPC@CDataBaseEngineSink?3?3OnRequestL@ 0048de78     DataBaseEngineSink.obj
 0002:00003eac       ??_C@_0BF@CABIHPIH@GSP_GR_QueryTaskInfo@ 0048deac     DataBaseEngineSink.obj
 0002:00003ec8       ??_C@_0L@LCDMJJED@TaskStatus@ 0048dec8     DataBaseEngineSink.obj
 0002:00003ed8       ??_C@_08DAJBHHIG@Progress@ 0048ded8     DataBaseEngineSink.obj
 0002:00003ee4       ??_C@_0CM@BKBDBKAO@CDataBaseEngineSink?3?3OnRequestT@ 0048dee4     DataBaseEngineSink.obj
 0002:00003f18       ??_C@_0P@NMLGPOCE@?$EAcbMemberOrder@ 0048df18     DataBaseEngineSink.obj
 0002:00003f2c       ??_C@_0O@OLHLCFMI@?$EAPurchaseTime@ 0048df2c     DataBaseEngineSink.obj
 0002:00003f3c       ??_C@_0BC@HOOFHDNN@?$EAstrNotifyContent@ 0048df3c     DataBaseEngineSink.obj
 0002:00003f54       ??_C@_0BG@EJNBGOOH@GSP_GR_PurchaseMember@ 0048df54     DataBaseEngineSink.obj
 0002:00003f70       ??_C@_09DOHMEJBC@CurrScore@ 0048df70     DataBaseEngineSink.obj
 0002:00003f7c       ??_C@_09JAMNPFHM@CurrBeans@ 0048df7c     DataBaseEngineSink.obj
 0002:00003f88       ??_C@_0M@CEFIIFDG@MemberOrder@ 0048df88     DataBaseEngineSink.obj
 0002:00003f98       ??_C@_0CN@OJICCHJJ@CDataBaseEngineSink?3?3OnRequestP@ 0048df98     DataBaseEngineSink.obj
 0002:00003fd0       ??_C@_0BJ@OKFJHKJC@?J?$PN?$LO?$NN?$LP?b?R?l?$LD?$KD?$KD?$KM?G?k?I?T?$LK?s?T?Y?J?T?$KD?$KB@ 0048dfd0     DataBaseEngineSink.obj
 0002:00003ff0       ??_C@_0P@HLLJOKNA@?$EAExchangeIngot@ 0048dff0     DataBaseEngineSink.obj
 0002:00004004       ??_C@_0BM@CGBMFEMN@GSP_GR_ExchangeScoreByIngot@ 0048e004     DataBaseEngineSink.obj
 0002:00004028       ??_C@_0L@LFJDLFHC@CurrInsure@ 0048e028     DataBaseEngineSink.obj
 0002:00004038       ??_C@_09OGDCJHIC@CurrIngot@ 0048e038     DataBaseEngineSink.obj
 0002:00004044       ??_C@_0DD@ECBHPPGI@CDataBaseEngineSink?3?3OnRequestE@ 0048e044     DataBaseEngineSink.obj
 0002:00004084       ??_C@_0P@NEGIICO@?$EAExchangeBeans@ 0048e084     DataBaseEngineSink.obj
 0002:00004098       ??_C@_0BM@FAODDGDD@GSP_GR_ExchangeScoreByBeans@ 0048e098     DataBaseEngineSink.obj
 0002:000040bc       ??_C@_0DD@DEOIJNJG@CDataBaseEngineSink?3?3OnRequestE@ 0048e0bc     DataBaseEngineSink.obj
 0002:000040fc       ??_C@_0M@EODDKFON@?$EAdwServerID@ 0048e0fc     DataBaseEngineSink.obj
 0002:0000410c       ??_C@_0BC@OJLPCFLJ@?$EAdwDrawCountLimit@ 0048e10c     DataBaseEngineSink.obj
 0002:00004124       ??_C@_0BB@GNGNCHP@?$EAdwDrawTimeLimit@ 0048e124     DataBaseEngineSink.obj
 0002:00004138       ??_C@_0L@MKMNCOIA@?$EAcbPayMode@ 0048e138     DataBaseEngineSink.obj
 0002:00004148       ??_C@_0BG@JHMIPHGJ@GSP_GR_CreateTableFee@ 0048e148     DataBaseEngineSink.obj
 0002:00004164       ??_C@_09GKKCFNJE@dCurBeans@ 0048e164     DataBaseEngineSink.obj
 0002:00004170       ??_C@_07KLLDCFGI@Diamond@  0048e170     DataBaseEngineSink.obj
 0002:0000417c       ??_C@_0L@HLGININO@IsJoinGame@ 0048e17c     DataBaseEngineSink.obj
 0002:0000418c       ??_C@_0M@FCOEMICD@RoomCardFee@ 0048e18c     DataBaseEngineSink.obj
 0002:0000419c       ??_C@_0CK@PCMMMPAB@CDataBaseEngineSink?3?3OnRequestC@ 0048e19c     DataBaseEngineSink.obj
 0002:000041d0       ??_C@_0M@DOJONCPP@?$EAlCellScore@ 0048e1d0     DataBaseEngineSink.obj
 0002:000041e0       ??_C@_0M@LDFFBNFK@?$EAszPassWord@ 0048e1e0     DataBaseEngineSink.obj
 0002:000041f0       ??_C@_0BG@OPNEFMMB@?$EAwJoinGamePeopleCount@ 0048e1f0     DataBaseEngineSink.obj
 0002:0000420c       ??_C@_0L@BGJPFBDC@?$EAdwRoomTax@ 0048e20c     DataBaseEngineSink.obj
 0002:0000421c       ??_C@_0P@OCGFALPI@?$EAstrClientAddr@ 0048e21c     DataBaseEngineSink.obj
 0002:00004230       ??_C@_0P@BMDMNKBP@?$EAlNeedRoomCard@ 0048e230     DataBaseEngineSink.obj
 0002:00004244       ??_C@_0BK@ENDDICLC@GSP_GR_InsertCreateRecord@ 0048e244     DataBaseEngineSink.obj
 0002:00004264       ??_C@_0DB@JIAHEJMG@CDataBaseEngineSink?3?3OnRequsetI@ 0048e264     DataBaseEngineSink.obj
 0002:000042a0       ??_C@_0BH@MBIPJJG@GSP_GR_TaskForwardRoom@ 0048e2a0     DataBaseEngineSink.obj
 0002:000042bc       ??_C@_0CP@JCNEGAGN@CDataBaseEngineSink?3?3OnRequestR@ 0048e2bc     DataBaseEngineSink.obj
 0002:000042f4       ??_C@_0BH@PEGJEIJA@GSP_GR_CreateTableQuit@ 0048e2f4     DataBaseEngineSink.obj
 0002:00004310       ??_C@_0DA@COMBFLNK@CDataBaseEngineSink?3?3OnRequestC@ 0048e310     DataBaseEngineSink.obj
 0002:0000434c       ??_C@_09DFDKDCCP@?$EAdwKindID@ 0048e34c     DataBaseEngineSink.obj
 0002:00004358       ??_C@_0BD@IFAMGNPA@GSP_GS_PayRoomCard@ 0048e358     DataBaseEngineSink.obj
 0002:00004370       ??_C@_08EPCALAFM@RoomCard@ 0048e370     DataBaseEngineSink.obj
 0002:0000437c       ??_C@_0CK@JELDIHFB@CDataBaseEngineSink?3?3OnRequestP@ 0048e37c     DataBaseEngineSink.obj
 0002:000043b0       ??_C@_0DE@HCHBNBGO@CDataBaseEngineSink?3?3OnRequestH@ 0048e3b0     DataBaseEngineSink.obj
 0002:000043f0       ??_C@_0N@JHGDNOFD@?$EAlRoomHostID@ 0048e3f0     DataBaseEngineSink.obj
 0002:00004400       ??_C@_0L@KCMGAPDJ@?$EAlTaxCount@ 0048e400     DataBaseEngineSink.obj
 0002:00004410       ??_C@_0BE@NAHDLGHP@?$EAcbPersonalRoomInfo@ 0048e410     DataBaseEngineSink.obj
 0002:00004428       ??_C@_0BL@PABMBFJD@GSP_GR_DissumePersonalRoom@ 0048e428     DataBaseEngineSink.obj
 0002:00004448       ??_C@_0M@HLPFMBJA@DissumeDate@ 0048e448     DataBaseEngineSink.obj
 0002:00004458       ??_C@_0CK@LFPKHGBF@CDataBaseEngineSink?3?3OnRequsetD@ 0048e458     DataBaseEngineSink.obj
 0002:0000448c       ??_C@_0CB@MMPODBFJ@GSP_GS_LoadPersonalRoomParamete@ 0048e48c     DataBaseEngineSink.obj
 0002:000044b4       ??_C@_0BA@GCOMLPGF@PersonalRoomTax@ 0048e4b4     DataBaseEngineSink.obj
 0002:000044c8       ??_C@_09BAGGAEBH@MinPeople@ 0048e4c8     DataBaseEngineSink.obj
 0002:000044d4       ??_C@_09BBGKJOKD@MaxPeople@ 0048e4d4     DataBaseEngineSink.obj
 0002:000044e0       ??_C@_0N@CNCFIDBJ@MaxCellScore@ 0048e4e0     DataBaseEngineSink.obj
 0002:000044f0       ??_C@_0P@LNMJOPEM@CanCreateCount@ 0048e4f0     DataBaseEngineSink.obj
 0002:00004504       ??_C@_0O@FAGABJFM@PlayTimeLimit@ 0048e504     DataBaseEngineSink.obj
 0002:00004514       ??_C@_0O@FDPMPBME@PlayTurnCount@ 0048e514     DataBaseEngineSink.obj
 0002:00004524       ??_C@_0BE@NHDBBOLF@TimeAfterBeginCount@ 0048e524     DataBaseEngineSink.obj
 0002:0000453c       ??_C@_0BB@BHHEMCMJ@TimeOffLineCount@ 0048e53c     DataBaseEngineSink.obj
 0002:00004550       ??_C@_0BB@EFKEMBID@TimeNotBeginGame@ 0048e550     DataBaseEngineSink.obj
 0002:00004564       ??_C@_0BM@CMLNFFIM@TimeNotBeginAfterCreateRoom@ 0048e564     DataBaseEngineSink.obj
 0002:00004588       ??_C@_0O@DEEAMCAI@BeginFreeTime@ 0048e588     DataBaseEngineSink.obj
 0002:00004598       ??_C@_0M@OHDGOHJM@EndFreeTime@ 0048e598     DataBaseEngineSink.obj
 0002:000045a8       ??_C@_0DE@KBOJGAM@CDataBaseEngineSink?3?3OnRequestL@ 0048e5a8     DataBaseEngineSink.obj
 0002:000045e8       ??_C@_0DA@CFJDFJBA@?$CFs?5?5?5GSP_GS_LoadPersonalRoomPar@ 0048e5e8     DataBaseEngineSink.obj
 0002:00004624       ??_C@_0BP@BLHAELOH@GSP_MB_GetPersonalFeeParameter@ 0048e624     DataBaseEngineSink.obj
 0002:0000464c       ??_C@_08MILKFGPP@IniScore@ 0048e64c     DataBaseEngineSink.obj
 0002:00004658       ??_C@_0O@DDOJCLEH@DrawTimeLimit@ 0048e658     DataBaseEngineSink.obj
 0002:00004668       ??_C@_0P@MBIIKCNO@DrawCountLimit@ 0048e668     DataBaseEngineSink.obj
 0002:0000467c       ??_C@_08JJGOBBMF@GameMode@ 0048e67c     DataBaseEngineSink.obj
 0002:00004688       ??_C@_0O@DKLCKEMB@?$EAdwPropertyID@ 0048e688     DataBaseEngineSink.obj
 0002:00004698       ??_C@_0P@EDMHJKLC@?$EAiDiamondCount@ 0048e698     DataBaseEngineSink.obj
 0002:000046ac       ??_C@_0BD@IGKNKDED@GSP_GP_BuyProperty@ 0048e6ac     DataBaseEngineSink.obj
 0002:000046c4       ??_C@_0L@FPKPEDKI@PropertyID@ 0048e6c4     DataBaseEngineSink.obj
 0002:000046d4       ??_C@_09GGKKDIOI@ItemCount@ 0048e6d4     DataBaseEngineSink.obj
 0002:000046e0       ??_C@_04PABHPHAJ@Gold@     0048e6e0     DataBaseEngineSink.obj
 0002:000046e8       ??_C@_09LPJHEOCP@UserMedal@ 0048e6e8     DataBaseEngineSink.obj
 0002:000046f4       ??_C@_0L@KHHLPNPI@LoveLiness@ 0048e6f4     DataBaseEngineSink.obj
 0002:00004704       ??_C@_04FOIHINLL@Cash@     0048e704     DataBaseEngineSink.obj
 0002:0000470c       ??_C@_0CO@MPKMHGDB@CDataBaseEngineSink?3?3OnRequestB@ 0048e70c     DataBaseEngineSink.obj
 0002:00004744       ??_C@_07PAELCOKM@?$EAdwKind@ 0048e744     DataBaseEngineSink.obj
 0002:00004750       ??_C@_0BJ@NINJDHMC@GSP_GP_QueryUserBackpack@ 0048e750     DataBaseEngineSink.obj
 0002:00004770       ??_C@_0L@IGEJKFCI@GoodsCount@ 0048e770     DataBaseEngineSink.obj
 0002:00004780       ??_C@_07MDLPIIFA@GoodsID@  0048e780     DataBaseEngineSink.obj
 0002:0000478c       ??_C@_04BDAIJBLK@Kind@     0048e78c     DataBaseEngineSink.obj
 0002:00004794       ??_C@_07JEPNMDKI@UseArea@  0048e794     DataBaseEngineSink.obj
 0002:000047a0       ??_C@_09OBCHOID@Recommend@ 0048e7a0     DataBaseEngineSink.obj
 0002:000047ac       ??_C@_0P@FDPEKBGF@SendLoveLiness@ 0048e7ac     DataBaseEngineSink.obj
 0002:000047c0       ??_C@_0P@ENAAGJJA@RecvLoveLiness@ 0048e7c0     DataBaseEngineSink.obj
 0002:000047d4       ??_C@_0P@JNHGNONC@UseResultsGold@ 0048e7d4     DataBaseEngineSink.obj
 0002:000047e8       ??_C@_04FABLJDN@Name@      0048e7e8     DataBaseEngineSink.obj
 0002:000047f0       ??_C@_0BA@KPHOLCOF@RegulationsInfo@ 0048e7f0     DataBaseEngineSink.obj
 0002:00004804       ??_C@_0CP@HIDLIGIE@CDataBaseEngineSink?3?3OnRequestP@ 0048e804     DataBaseEngineSink.obj
 0002:0000483c       ??_C@_0O@GOEJDCMG@?$EAdwRecvUserID@ 0048e83c     DataBaseEngineSink.obj
 0002:0000484c       ??_C@_09NLOJOBDL@?$EAdwPropID@ 0048e84c     DataBaseEngineSink.obj
 0002:00004858       ??_C@_0N@PEPMKFNO@?$EAdwPropCount@ 0048e858     DataBaseEngineSink.obj
 0002:00004868       ??_C@_0P@IDLLGLHM@GSP_GP_UseProp@ 0048e868     DataBaseEngineSink.obj
 0002:0000487c       ??_C@_0M@CENFFNCO@ServiceArea@ 0048e87c     DataBaseEngineSink.obj
 0002:0000488c       ??_C@_0BE@IAAJAJPN@UseResultsValidTime@ 0048e88c     DataBaseEngineSink.obj
 0002:000048a4       ??_C@_0P@DNPEGDJL@RemainderCount@ 0048e8a4     DataBaseEngineSink.obj
 0002:000048b8       ??_C@_07NBJKJPHI@UseTime@  0048e8b8     DataBaseEngineSink.obj
 0002:000048c4       ??_C@_0CK@BKABFICD@CDataBaseEngineSink?3?3OnRequestP@ 0048e8c4     DataBaseEngineSink.obj
 0002:000048f8       ??_C@_0BI@HEBCAEB@GSP_GP_QuerySendPresent@ 0048e8f8     DataBaseEngineSink.obj
 0002:00004914       ??_C@_0P@KKCLPPAI@ReceiverUserID@ 0048e914     DataBaseEngineSink.obj
 0002:00004928       ??_C@_06JMKPBJLC@PropID@   0048e928     DataBaseEngineSink.obj
 0002:00004930       ??_C@_09FJMCAKIG@PropCount@ 0048e930     DataBaseEngineSink.obj
 0002:0000493c       ??_C@_08FBPGFENK@SendTime@ 0048e93c     DataBaseEngineSink.obj
 0002:00004948       ??_C@_0CP@MNEJCLKP@CDataBaseEngineSink?3?3OnRequestQ@ 0048e948     DataBaseEngineSink.obj
 0002:00004980       ??_C@_0BF@FNAOCACP@?$EAstrReceiverNickName@ 0048e980     DataBaseEngineSink.obj
 0002:0000499c       ??_C@_0BC@MBPNHCPP@?$EAdwReceiverGameID@ 0048e99c     DataBaseEngineSink.obj
 0002:000049b4       ??_C@_0CB@GDJHILDF@GSP_GP_UserSendPresentByNickNam@ 0048e9b4     DataBaseEngineSink.obj
 0002:000049dc       ??_C@_0BL@FEGBPCHF@GSP_GP_UserSendPresentByID@ 0048e9dc     DataBaseEngineSink.obj
 0002:000049fc       ??_C@_0L@LFENFKP@RecvUserID@ 0048e9fc     DataBaseEngineSink.obj
 0002:00004a0c       ??_C@_0CO@GBFGHFMF@CDataBaseEngineSink?3?3OnRequestP@ 0048ea0c     DataBaseEngineSink.obj
 0002:00004a44       ??_C@_0M@HCJEDCFO@?$EAszPassword@ 0048ea44     DataBaseEngineSink.obj
 0002:00004a54       ??_C@_0BG@OJMAFDGN@GSP_GP_GetSendPresent@ 0048ea54     DataBaseEngineSink.obj
 0002:00004a70       ??_C@_0CN@JNKPIKNE@CDataBaseEngineSink?3?3OnRequestG@ 0048ea70     DataBaseEngineSink.obj
 0002:00004aa8       ??_C@_0BI@NBGDCCNF@GSP_GP_LoadUserGameBuff@ 0048eaa8     DataBaseEngineSink.obj
 0002:00004ac4       ??_C@_0CB@MPNELBLF@UseResultsValidTimeScoreMultipl@ 0048eac4     DataBaseEngineSink.obj
 0002:00004aec       ??_C@_0CL@HMGPGIKL@CDataBaseEngineSink?3?3OnRequestL@ 0048eaec     DataBaseEngineSink.obj
 0002:00004b20       ??_C@_0BL@BLNKNDGL@GSP_GP_LoadUserGameTrumpet@ 0048eb20     DataBaseEngineSink.obj
 0002:00004b40       ??_C@_0N@ONHPIBJK@TrumpetCount@ 0048eb40     DataBaseEngineSink.obj
 0002:00004b50       ??_C@_0M@DKNNIFDG@TyphonCount@ 0048eb50     DataBaseEngineSink.obj
 0002:00004b60       ??_C@_0CO@EGJFHNDI@CDataBaseEngineSink?3?3OnRequestL@ 0048eb60     DataBaseEngineSink.obj
 0002:00004b98       ??_C@_0BL@DDFCIKG@GSP_GP_LoadMemberParameter@ 0048eb98     DataBaseEngineSink.obj
 0002:00004bb8       ??_C@_08BPIBDNIC@TaskRate@ 0048ebb8     DataBaseEngineSink.obj
 0002:00004bc4       ??_C@_08KNMAEPIC@ShopRate@ 0048ebc4     DataBaseEngineSink.obj
 0002:00004bd0       ??_C@_0L@HCDIDBBG@InsureRate@ 0048ebd0     DataBaseEngineSink.obj
 0002:00004be0       ??_C@_0L@FNLEFFGF@DayPresent@ 0048ebe0     DataBaseEngineSink.obj
 0002:00004bf0       ??_C@_09MEAFLDAC@DayGiftID@ 0048ebf0     DataBaseEngineSink.obj
 0002:00004bfc       ??_C@_0L@CCDAGKKN@MemberName@ 0048ebfc     DataBaseEngineSink.obj
 0002:00004c0c       ??_C@_0DC@HJENCEP@CDataBaseEngineSink?3?3OnRequestM@ 0048ec0c     DataBaseEngineSink.obj
 0002:00004c48       ??_C@_0BH@LLGIDDOH@GSP_GP_MemberQueryInfo@ 0048ec48     DataBaseEngineSink.obj
 0002:00004c64       ??_C@_07FHKFELEN@Present@  0048ec64     DataBaseEngineSink.obj
 0002:00004c70       ??_C@_04JCCJDPFC@Gift@     0048ec70     DataBaseEngineSink.obj
 0002:00004c78       ??_C@_0BH@GJOLKKFC@GSP_GP_MemberGiftQuery@ 0048ec78     DataBaseEngineSink.obj
 0002:00004c94       ??_C@_02OLOABKKD@ID@       0048ec94     DataBaseEngineSink.obj
 0002:00004c98       ??_C@_05IJGIMMHE@Count@    0048ec98     DataBaseEngineSink.obj
 0002:00004ca0       ??_C@_0CO@JKBFHBG@CDataBaseEngineSink?3?3OnRequestM@ 0048eca0     DataBaseEngineSink.obj
 0002:00004cd8       ??_C@_0BI@IMKLDJBC@GSP_GP_MemberDayPresent@ 0048ecd8     DataBaseEngineSink.obj
 0002:00004cf4       ??_C@_0CP@EGKDDCPM@CDataBaseEngineSink?3?3OnRequestM@ 0048ecf4     DataBaseEngineSink.obj
 0002:00004d2c       ??_C@_0BF@LPGDHGAC@GSP_GP_MemberDayGift@ 0048ed2c     DataBaseEngineSink.obj
 0002:00004d48       ??_C@_0CM@GBGIFFIB@CDataBaseEngineSink?3?3OnRequestM@ 0048ed48     DataBaseEngineSink.obj
 0002:00004d7c       ??_C@_0BJ@DMKNJEFD@GSP_GP_LoadCheckInReward@ 0048ed7c     DataBaseEngineSink.obj
 0002:00004d9c       ??_C@_05IDMPJLID@DayID@    0048ed9c     DataBaseEngineSink.obj
 0002:00004da4       ??_C@_0L@CKLPJIFO@RewardGold@ 0048eda4     DataBaseEngineSink.obj
 0002:00004db4       ??_C@_0CK@FNAFJCAP@CDataBaseEngineSink?3?3OnRequestL@ 0048edb4     DataBaseEngineSink.obj
 0002:00004de8       ??_C@_0BI@LFNCLCOF@GSP_GR_CheckInQueryInfo@ 0048ede8     DataBaseEngineSink.obj
 0002:00004e04       ??_C@_0L@GCLIEHGN@SeriesDate@ 0048ee04     DataBaseEngineSink.obj
 0002:00004e14       ??_C@_0P@BNJFDPAO@TodayCheckIned@ 0048ee14     DataBaseEngineSink.obj
 0002:00004e28       ??_C@_0CP@LGOLPPK@CDataBaseEngineSink?3?3OnRequestC@ 0048ee28     DataBaseEngineSink.obj
 0002:00004e60       ??_C@_0BD@OMHLIIHM@GSP_GR_CheckInDone@ 0048ee60     DataBaseEngineSink.obj
 0002:00004e78       ??_C@_0CK@GAMLIDKL@CDataBaseEngineSink?3?3OnRequestC@ 0048ee78     DataBaseEngineSink.obj
 0002:00004eac       ??_C@_0BG@GGEFBDLG@GSP_GP_LoadBaseEnsure@ 0048eeac     DataBaseEngineSink.obj
 0002:00004ec8       ??_C@_09DDOCKIAO@TakeTimes@ 0048eec8     DataBaseEngineSink.obj
 0002:00004ed4       ??_C@_0M@HIMENDIH@ScoreAmount@ 0048eed4     DataBaseEngineSink.obj
 0002:00004ee4       ??_C@_0P@BGLILAFC@ScoreCondition@ 0048eee4     DataBaseEngineSink.obj
 0002:00004ef8       ??_C@_0CN@BCCKMKAP@CDataBaseEngineSink?3?3OnRequestL@ 0048eef8     DataBaseEngineSink.obj
 0002:00004f30       ??_C@_0BG@IHMPDPLH@GSP_GP_TakeBaseEnsure@ 0048ef30     DataBaseEngineSink.obj
 0002:00004f4c       ??_C@_0CN@PDKAOGAO@CDataBaseEngineSink?3?3OnRequestT@ 0048ef4c     DataBaseEngineSink.obj
 0002:00004f84       ??_C@_0BB@JLIKJFGB@?$EAstrUserGameData@ 0048ef84     DataBaseEngineSink.obj
 0002:00004f98       ??_C@_0BJ@GCODDHKA@GSP_GR_WriteUserGameData@ 0048ef98     DataBaseEngineSink.obj
 0002:00004fb8       ??_C@_0DA@OPFFIGFI@CDataBaseEngineSink?3?3OnRequestW@ 0048efb8     DataBaseEngineSink.obj
 0002:00004ff4       ??_C@_0L@BLIPNNEF@?$EAInitScore@ 0048eff4     DataBaseEngineSink.obj
 0002:00005004       ??_C@_0O@IGAIKEL@?$EAcbSignupMode@ 0048f004     DataBaseEngineSink.obj
 0002:00005014       ??_C@_0BA@PJNEIBNN@?$EAwMaxSignupUser@ 0048f014     DataBaseEngineSink.obj
 0002:00005028       ??_C@_0BE@DFAICMFL@GSP_GR_UserMatchFee@ 0048f028     DataBaseEngineSink.obj
 0002:00005040       ??_C@_09MJOGCHJF@UserIngot@ 0048f040     DataBaseEngineSink.obj
 0002:0000504c       ??_C@_0L@IELFPBJG@SignupMode@ 0048f04c     DataBaseEngineSink.obj
 0002:0000505c       ??_C@_0CK@HDOEOIAJ@CDataBaseEngineSink?3?3OnRequestM@ 0048f05c     DataBaseEngineSink.obj
 0002:00005090       ??_C@_0BF@DMBMNJML@GSP_GR_UserMatchQuit@ 0048f090     DataBaseEngineSink.obj
 0002:000050ac       ??_C@_0CM@JAAGFEIO@CDataBaseEngineSink?3?3OnRequestM@ 0048f0ac     DataBaseEngineSink.obj
 0002:000050e0       ??_C@_0BI@BDGKPIAM@GSP_GR_MatchSignupStart@ 0048f0e0     DataBaseEngineSink.obj
 0002:000050fc       ??_C@_0CP@KNNGPFBD@CDataBaseEngineSink?3?3OnRequestM@ 0048f0fc     DataBaseEngineSink.obj
 0002:00005134       ??_C@_0BJ@LHFMEEJO@GSP_GR_MatchQueryQualify@ 0048f134     DataBaseEngineSink.obj
 0002:00005154       ??_C@_0DA@DKOKPFGG@CDataBaseEngineSink?3?3OnRequestM@ 0048f154     DataBaseEngineSink.obj
 0002:00005190       ??_C@_0O@KDGEANGE@?$EAlSafeCardFee@ 0048f190     DataBaseEngineSink.obj
 0002:000051a0       ??_C@_0BI@LBDNJNBP@GSP_GR_MatchBuySafeCard@ 0048f1a0     DataBaseEngineSink.obj
 0002:000051bc       ??_C@_0CP@PIBJAAA@CDataBaseEngineSink?3?3OnRequestM@ 0048f1bc     DataBaseEngineSink.obj
 0002:000051f4       ??_C@_0BN@OJBGGGID@?J?$PN?$LO?$NN?$LP?b?R?l?$LD?$KD?$KD?$KM?$LB?$KD?O?U?$LP?$KI?$LJ?$LK?B?r?J?$KH?$LA?$NM?$KD?$KB@ 0048f1f4     DataBaseEngineSink.obj
 0002:00005218       ??_C@_0BC@LKLALIFP@GSP_GR_MatchStart@ 0048f218     DataBaseEngineSink.obj
 0002:00005230       ??_C@_0CJ@NJMHJMAB@CDataBaseEngineSink?3?3OnRequestM@ 0048f230     DataBaseEngineSink.obj
 0002:00005264       ??_C@_0N@LLNFOKNK@?$EAcbPlayCount@ 0048f264     DataBaseEngineSink.obj
 0002:00005274       ??_C@_0O@DEBJJKGF@?$EAbMatchFinish@ 0048f274     DataBaseEngineSink.obj
 0002:00005284       ??_C@_0BA@ONKGNJI@?$EAMatchStartTime@ 0048f284     DataBaseEngineSink.obj
 0002:00005298       ??_C@_0O@EPJCLNKL@?$EAMatchEndTime@ 0048f298     DataBaseEngineSink.obj
 0002:000052a8       ??_C@_0BB@DPPGPFAF@GSP_GR_MatchOver@ 0048f2a8     DataBaseEngineSink.obj
 0002:000052bc       ??_C@_06DEAKIBIA@RankID@   0048f2bc     DataBaseEngineSink.obj
 0002:000052c4       ??_C@_0M@BLJEFPLJ@RewardIngot@ 0048f2c4     DataBaseEngineSink.obj
 0002:000052d4       ??_C@_0BB@DAEFAHAB@RewardExperience@ 0048f2d4     DataBaseEngineSink.obj
 0002:000052e8       ??_C@_0CI@EOLOHCBI@CDataBaseEngineSink?3?3OnRequestM@ 0048f2e8     DataBaseEngineSink.obj
 0002:00005318       ??_C@_0BD@HBPCLJPM@GSP_GR_MatchCancel@ 0048f318     DataBaseEngineSink.obj
 0002:00005330       ??_C@_0CK@PNECLCCL@CDataBaseEngineSink?3?3OnRequestM@ 0048f330     DataBaseEngineSink.obj
 0002:00005364       ??_C@_0N@NOJJNPBC@?$EAlRewardGold@ 0048f364     DataBaseEngineSink.obj
 0002:00005374       ??_C@_0O@GEAKHEEF@?$EAlRewardIngot@ 0048f374     DataBaseEngineSink.obj
 0002:00005384       ??_C@_0BE@GJCFMENF@?$EAdwRewardExperience@ 0048f384     DataBaseEngineSink.obj
 0002:0000539c       ??_C@_0BD@DNIDGOBF@GSP_GR_MatchReward@ 0048f39c     DataBaseEngineSink.obj
 0002:000053b4       ??_C@_0BG@LJCLLFED@GSP_GR_MatchEliminate@ 0048f3b4     DataBaseEngineSink.obj
 0002:000053d0       ??_C@_0CN@BJHIPMDN@CDataBaseEngineSink?3?3OnRequestM@ 0048f3d0     DataBaseEngineSink.obj
 0002:00005408       ??_C@_0M@LHDIAACG@?$EAlInitScore@ 0048f408     DataBaseEngineSink.obj
 0002:00005418       ??_C@_0BJ@DLPOEIIC@GSP_GR_MatchRecordGrades@ 0048f418     DataBaseEngineSink.obj
 0002:00005438       ??_C@_0DA@LGEIPJHK@CDataBaseEngineSink?3?3OnRequestM@ 0048f438     DataBaseEngineSink.obj
 0002:00005474       ??_C@_0L@DOOJENON@?$EACullScore@ 0048f474     DataBaseEngineSink.obj
 0002:00005484       ??_C@_0M@FFMDAOAJ@?$EAlReviveFee@ 0048f484     DataBaseEngineSink.obj
 0002:00005494       ??_C@_0P@LFFONGOD@?$EAcbReviveTimes@ 0048f494     DataBaseEngineSink.obj
 0002:000054a8       ??_C@_0BH@GCGKLCNC@GSP_GR_MatchUserRevive@ 0048f4a8     DataBaseEngineSink.obj
 0002:000054c4       ??_C@_0CO@NFHHLNKA@CDataBaseEngineSink?3?3OnRequestM@ 0048f4c4     DataBaseEngineSink.obj
 0002:000054fc       ??_C@_0BH@HLMAJMNC@?J?$PN?$LO?$NN?$LP?b?R?l?$LD?$KD?$KD?$KM?$LI?$LE?$LL?n?J?$KH?$LA?$NM?$KD?$KB@ 0048f4fc     DataBaseEngineSink.obj
 0002:00005518       ??_C@_0BM@PMKNKCGD@GSP_GR_MatchQueryReviveInfo@ 0048f518     DataBaseEngineSink.obj
 0002:0000553c       ??_C@_0P@NHLPBHLE@SafeCardRevive@ 0048f53c     DataBaseEngineSink.obj
 0002:00005550       ??_C@_0M@ENLAKNPB@ReviveTimes@ 0048f550     DataBaseEngineSink.obj
 0002:00005560       ??_C@_0DD@JIKGAJMG@CDataBaseEngineSink?3?3OnRequestM@ 0048f560     DataBaseEngineSink.obj
 0002:000055a0       ??_C@_0BL@JMLNBDFD@GSP_GR_LoadGrowLevelConfig@ 0048f5a0     DataBaseEngineSink.obj
 0002:000055c0       ??_C@_07CLGGPGGC@LevelID@  0048f5c0     DataBaseEngineSink.obj
 0002:000055cc       ??_C@_0L@DCGNFONO@Experience@ 0048f5cc     DataBaseEngineSink.obj
 0002:000055dc       ??_C@_0DC@PMLOHGEK@CDataBaseEngineSink?3?3OnRequestL@ 0048f5dc     DataBaseEngineSink.obj
 0002:00005618       ??_C@_0BE@FBKCBHAM@?$EAstrUpgradeDescribe@ 0048f618     DataBaseEngineSink.obj
 0002:00005630       ??_C@_0BG@MGKFFOPK@GSP_GP_QueryGrowLevel@ 0048f630     DataBaseEngineSink.obj
 0002:0000564c       ??_C@_0M@NBPAMKCD@CurrLevelID@ 0048f64c     DataBaseEngineSink.obj
 0002:0000565c       ??_C@_0BC@CPJKHIND@UpgradeExperience@ 0048f65c     DataBaseEngineSink.obj
 0002:00005674       ??_C@_0M@GNOFDGAD@RewardMedal@ 0048f674     DataBaseEngineSink.obj
 0002:00005684       ??_C@_0BE@JMMGGPNE@?$EAstrUpGradeDescribe@ 0048f684     DataBaseEngineSink.obj
 0002:0000569c       ??_C@_0DG@OCMGMCGE@CDataBaseEngineSink?3?3OnRequestQ@ 0048f69c     DataBaseEngineSink.obj
 0002:000056dc       ??_C@_0M@NMGCHBNI@?$EAdwAddRight@ 0048f6dc     DataBaseEngineSink.obj
 0002:000056ec       ??_C@_0P@CLJCGMJC@?$EAdwRemoveRight@ 0048f6ec     DataBaseEngineSink.obj
 0002:00005700       ??_C@_0BH@JGGGJBNO@GSP_GR_ManageUserRight@ 0048f700     DataBaseEngineSink.obj
 0002:0000571c       ??_C@_0CO@CBHLJOKM@CDataBaseEngineSink?3?3OnRequestM@ 0048f71c     DataBaseEngineSink.obj
 0002:00005754       ??_C@_0BI@IGKLMPDN@GSP_GR_ManageMatchRight@ 0048f754     DataBaseEngineSink.obj
 0002:00005770       ??_C@_0CP@DIBHMCCC@CDataBaseEngineSink?3?3OnRequestM@ 0048f770     DataBaseEngineSink.obj
 0002:000057a8       ??_C@_0BJ@GFLIDCFB@GSP_GR_LoadSystemMessage@ 0048f7a8     DataBaseEngineSink.obj
 0002:000057c8       ??_C@_0M@BHEKDOEH@ServerRange@ 0048f7c8     DataBaseEngineSink.obj
 0002:000057d8       ??_C@_0M@ECIDEJHH@MessageType@ 0048f7d8     DataBaseEngineSink.obj
 0002:000057e8       ??_C@_08MBIPKANE@TimeRate@ 0048f7e8     DataBaseEngineSink.obj
 0002:000057f4       ??_C@_0O@EOKEIOEE@MessageString@ 0048f7f4     DataBaseEngineSink.obj
 0002:00005804       ??_C@_09MHCEAAPI@StartTime@ 0048f804     DataBaseEngineSink.obj
 0002:00005810       ??_C@_0N@DIGHLIGE@ConcludeTime@ 0048f810     DataBaseEngineSink.obj
 0002:00005820       ??_C@_0BK@GOGBDBKC@GSP_GR_LoadSensitiveWords@ 0048f820     DataBaseEngineSink.obj
 0002:00005840       ??_C@_0P@PCOKOAF@SensitiveWords@ 0048f840     DataBaseEngineSink.obj
 0002:00005854       ??_C@_0DB@NNIKPNDN@CDataBaseEngineSink?3?3OnRequestL@ 0048f854     DataBaseEngineSink.obj
 0002:00005890       ??_C@_09LJJBNBM@?$EAwBatchID@ 0048f890     DataBaseEngineSink.obj
 0002:0000589c       ??_C@_0BJ@GEMLPEBL@GSP_GR_UnlockAndroidUser@ 0048f89c     DataBaseEngineSink.obj
 0002:000058bc       ??_C@_0DA@OJHNEFOD@CDataBaseEngineSink?3?3OnRequestU@ 0048f8bc     DataBaseEngineSink.obj
 0002:000058f8       ??_C@_06LPNEIKNP@FaceID@   0048f8f8     DataBaseEngineSink.obj
 0002:00005900       ??_C@_07IKIDGEIC@GroupID@  0048f900     DataBaseEngineSink.obj
 0002:0000590c       ??_C@_08GOBKDNAK@CustomID@ 0048f90c     DataBaseEngineSink.obj
 0002:00005918       ??_C@_08CELDJAGK@NickName@ 0048f918     DataBaseEngineSink.obj
 0002:00005924       ??_C@_09DOCDJBIG@GroupName@ 0048f924     DataBaseEngineSink.obj
 0002:00005930       ??_C@_06HKFFEOFI@Gender@   0048f930     DataBaseEngineSink.obj
 0002:00005938       ??_C@_0M@HCDMHMBE@MasterOrder@ 0048f938     DataBaseEngineSink.obj
 0002:00005948       ??_C@_0L@CPAJNIME@UnderWrite@ 0048f948     DataBaseEngineSink.obj
 0002:00005958       ??_C@_02MOGAAOHP@QQ@       0048f958     DataBaseEngineSink.obj
 0002:0000595c       ??_C@_05LMBPBNBJ@EMail@    0048f95c     DataBaseEngineSink.obj
 0002:00005964       ??_C@_09MAIOJANC@SeatPhone@ 0048f964     DataBaseEngineSink.obj
 0002:00005970       ??_C@_0M@OJIHCJC@MobilePhone@ 0048f970     DataBaseEngineSink.obj
 0002:00005980       ??_C@_0O@GKEPGAEM@DwellingPlace@ 0048f980     DataBaseEngineSink.obj
 0002:00005990       ??_C@_0L@FEKLBNBC@PostalCode@ 0048f990     DataBaseEngineSink.obj
 0002:000059a0       ??_C@_05LLMLLFP@Grade@     0048f9a0     DataBaseEngineSink.obj
 0002:000059a8       ??_C@_06FMMMEEGK@Dimand@   0048f9a8     DataBaseEngineSink.obj
 0002:000059b0       ??_C@_08NMLNNJOO@WinCount@ 0048f9b0     DataBaseEngineSink.obj
 0002:000059bc       ??_C@_09OGIEMOLB@LostCount@ 0048f9bc     DataBaseEngineSink.obj
 0002:000059c8       ??_C@_09KHKKAHKI@DrawCount@ 0048f9c8     DataBaseEngineSink.obj
 0002:000059d4       ??_C@_09LDFGMNGL@FleeCount@ 0048f9d4     DataBaseEngineSink.obj
 0002:000059e0       ??_C@_0O@EJBNDIFA@IntegralCount@ 0048f9e0     DataBaseEngineSink.obj
 0002:000059f0       ??_C@_07EAMDMMMO@AgentID@  0048f9f0     DataBaseEngineSink.obj
 0002:000059fc       ??_C@_0M@JGHDFAPJ@MasterRight@ 0048f9fc     DataBaseEngineSink.obj
 0002:00005a0c       ??_C@_0L@JKPFHAOK@InoutIndex@ 0048fa0c     DataBaseEngineSink.obj
 0002:00005a1c       ??_C@_0M@PJKHBHCK@ResidueTime@ 0048fa1c     DataBaseEngineSink.obj
 0002:00005a2c       ??_C@_0BJ@IFJCFNBF@GSP_GR_QueryUserGameData@ 0048fa2c     DataBaseEngineSink.obj
 0002:00005a4c       ??_C@_0N@HBNIIIGG@UserGameData@ 0048fa4c     DataBaseEngineSink.obj
 0002:00005a5c       ??_C@_0CK@GJNGIALF@CDataBaseEngineSink?3?3OnLogonDis@ 0048fa5c     DataBaseEngineSink.obj
 0002:00005a90       ??_C@_0N@PAGJFPFL@?$CFs?5?5?5?$CFs?5?$LD?v?$LE?m@ 0048fa90     DataBaseEngineSink.obj
 0002:00005aa0       ??_C@_0M@DNAOABEK@SourceScore@ 0048faa0     DataBaseEngineSink.obj
 0002:00005ab0       ??_C@_0N@NACABOPM@SourceInsure@ 0048fab0     DataBaseEngineSink.obj
 0002:00005ac0       ??_C@_0O@NODKFAON@InsureRevenue@ 0048fac0     DataBaseEngineSink.obj
 0002:00005ad0       ??_C@_0P@MOIGFANG@VariationScore@ 0048fad0     DataBaseEngineSink.obj
 0002:00005ae4       ??_C@_0BA@CJGKEJMC@VariationInsure@ 0048fae4     DataBaseEngineSink.obj
 0002:00005af8       ??_C@_0L@MALOIOF@?$EAdwTableID@ 0048faf8     DataBaseEngineSink.obj
 0002:00005b08       ??_C@_0L@GMFHAHPM@?$EAdwChairID@ 0048fb08     DataBaseEngineSink.obj
 0002:00005b18       ??_C@_0M@FDEHBDCL@?$EAszRoomGUID@ 0048fb18     DataBaseEngineSink.obj
 0002:00005b28       ??_C@_0CB@GCADOFKG@GSP_GR_WritePersonalRoomJoinInf@ 0048fb28     DataBaseEngineSink.obj
 0002:00005b50       ??_C@_0CE@PEDHBAHP@OnRequestWriteJoinInfo?5?$LK?$KP?J?$PN?V?P?S?P@ 0048fb50     DataBaseEngineSink.obj
 0002:00005b7c       ??_C@_0P@CHNNICGD@?$EAszVideoNumber@ 0048fb7c     DataBaseEngineSink.obj
 0002:00005b90       ??_C@_0CP@CHBEJABO@VideoPlayerInfo?5?$CK?$CK?$CK?$CK?$CK?5?V?$LE?P?P?P?$LE?5?$LC?N@ 0048fb90     DataBaseEngineSink.obj
 0002:00005bc8       ??_C@_0BN@NMLOBHHE@GSP_GR_RecordVideoPlayerInfo@ 0048fbc8     DataBaseEngineSink.obj
 0002:00005bec       ??_C@_0CL@KLKPPIFO@OnRequestWriteVideoPlayerInfo?5?$LK@ 0048fbec     DataBaseEngineSink.obj
 0002:00005c20       ??_C@_0N@DDOPDEFM@?$EAszVideoData@ 0048fc20     DataBaseEngineSink.obj
 0002:00005c30       ??_C@_0CJ@PDKCICIH@VideoData?5?$CK?$CK?$CK?$CK?$CK?5?V?$LE?P?P?P?$LE?5?$LC?N?S?k?S?N?O?$LH@ 0048fc30     DataBaseEngineSink.obj
 0002:00005c64       ??_C@_0BL@OHGHDNFN@GSP_GR_RecordVideoDataInfo@ 0048fc64     DataBaseEngineSink.obj
 0002:00005c84       ??_C@_0CJ@OFLINJEP@OnRequestWriteVideoDataInfo?5?$LK?$KP?J@ 0048fc84     DataBaseEngineSink.obj
 0002:00005cb8       ??_C@_0DG@CDIFDKED@g?3?2?M?x?$LK?$PM?2happygamewh?2?$LH?$PO?N?q?$LG?K?2?O?$LF?M?$LD@ 0048fcb8     DataBaseEngineSink.obj
 0002:00005cf8       ??_C@_0BD@LMOFNGMO@?$KB?$LA?$CFs?$KB?$LB?D?$KD?$LP?i?$LM?S?T?X?J?$KH?$LA?$NM@ 0048fcf8     DataBaseEngineSink.obj
 0002:00005d10       ??_C@_0BM@PEGNCJOH@?U?R?$LC?$LL?$LF?$LN?W?i?$LM?$PO?$LE?$LE?$LN?$KI?$LK?$KP?J?$PN?$KB?$LA?$CFs?$KB?$LB?3?$CFd@ 0048fd10     DataBaseEngineSink.obj
 0002:00005d34       ??_C@_0BL@PDAODLKM@?$LF?w?S?C?$LK?$KP?J?$PN?$KB?$LA?$CFs?$KB?$LB?I?z?$LD?I?$LG?T?O?s?J?$KH?$LA?$NM@ 0048fd34     DataBaseEngineSink.obj
 0002:00005d54       ??_C@_0BJ@JGPFHIJF@?S?I?S?Z?$KB?$LA?$CFs?$KB?$LB?$KD?$KM?W?i?$LM?$PO?$LE?$LE?$LN?$KI?J?$KH?$LA?$NM@ 0048fd54     DataBaseEngineSink.obj
 0002:00005d74       ??_C@_0DB@JBNKENAJ@?W?i?$LM?$PO?$LE?$LE?$LN?$KI?$LK?$KP?J?$PN?$KB?$LA?$CFs?$KB?$LB?$LC?z?I?z?N?$LE?V?$KK?R?l?$LD?$KD?$LE@ 0048fd74     DataBaseEngineSink.obj
 0002:00005ddc       ??_7IServiceModule@@6B@    0048fddc     DBCorrespondManager.obj
 0002:00005df4       ??_7IDBCorrespondManager@@6B@ 0048fdf4     DBCorrespondManager.obj
 0002:00005e20       ??_7?$CList@PAUtagDBRequestHead@@ABQAU1@@@6B@ 0048fe20     DBCorrespondManager.obj
 0002:00005e3c       ??_7?$CWHArray@KABK@@6B@   0048fe3c     DBCorrespondManager.obj
 0002:00005e48       ??_7CDBCorrespondManager@@6B@ 0048fe48     DBCorrespondManager.obj
 0002:00005e70       ??_C@_0FC@HBFPLNLM@g?3?2?M?x?$LK?$PM?2happygamewh?2?$LH?$PO?N?q?$LG?K?2?O?$LF?M?$LD@ 0048fe70     DBCorrespondManager.obj
 0002:00005ed4       ?BLOCK_SIZE@CDistributeNodePool@@2HB 0048fed4     DistributeManager.obj
 0002:00005edc       ??_7CDistributeManager@@6B@ 0048fedc     DistributeManager.obj
 0002:00005ee8       ??_C@_0FA@KKELKDCO@g?3?2?M?x?$LK?$PM?2happygamewh?2?$LH?$PO?N?q?$LG?K?2?O?$LF?M?$LD@ 0048fee8     DistributeManager.obj
 0002:00005fbc       ??_7CGameServerApp@@6B@    0048ffbc     GameServer.obj
 0002:00006278       ??_7?$CTempldateHelper@UIGameServiceManager@@@@6B@ 00490278     GameServerDlg.obj
 0002:00006284       ??_7CGameServiceManagerHelper@@6B@ 00490284     GameServerDlg.obj
 0002:00006290       ??_7IServiceUnitsSink@@6B@ 00490290     GameServerDlg.obj
 0002:0000629c       ??_7CGameServerDlg@@6BCDialog@@@ 0049029c     GameServerDlg.obj
 0002:00006488       ??_7CGameServerDlg@@6BIServiceUnitsSink@@@ 00490488     GameServerDlg.obj
 0002:00006490       ??_C@_0BH@KHNDMDBK@?S?N?O?$LH?$LH?$PO?N?q?F?w?5?9?9?5?$FL?5?M?$KD?V?$LJ?5?$FN@ 00490490     GameServerDlg.obj
 0002:000064ac       ??_C@_0CN@IKJEBACB@?S?N?O?$LH?$LH?$PO?N?q?F?w?U?$PN?T?Z?T?K?P?P?V?P?$KD?$KM?D?z?H?$LH?J?$LF?R?$KK?$LJ@ 004904ac     GameServerDlg.obj
 0002:000064e4       ??_C@_0N@HNGKNHMM@?$LH?$PO?N?q?M?$KD?V?$LJ?$LD?I?$LJ?$KG@ 004904e4     GameServerDlg.obj
 0002:000064f4       ??_C@_0BC@OFPAKDFO@?U?$PN?T?Z?$LD?u?J?$LM?$LL?$KP?W?i?$LM?$PO?4?4?4@ 004904f4     GameServerDlg.obj
 0002:0000650c       ??_C@_0N@POOFBOKN@?$LH?$PO?N?q?F?t?$LG?$KP?$LD?I?$LJ?$KG@ 0049050c     GameServerDlg.obj
 0002:0000651c       ??_C@_0M@DFOIIBOA@SERVER_ICON@ 0049051c     GameServerDlg.obj
 0002:0000652c       ??_C@_04MLIFMOBA@?M?$KD?V?$LJ@ 0049052c     GameServerDlg.obj
 0002:00006534       ??_C@_06CCMEENJJ@?$LD?u?J?$LM?$LL?$KP@ 00490534     GameServerDlg.obj
 0002:0000653c       ??_C@_04OIFFEIFD@?T?K?P?P@ 0049053c     GameServerDlg.obj
 0002:00006544       ??_C@_0L@LDJEFOCL@?S?N?O?$LH?$LH?$PO?N?q?F?w@ 00490544     GameServerDlg.obj
 0002:00006554       ??_C@_0BB@DFCOOJKB@?$FL?5?$CFs?5?$FN?5?9?9?5?$FL?5?$CFs?5?$FN@ 00490554     GameServerDlg.obj
 0002:00006568       ??_C@_0BI@FDOICMHH@?$FL?5?$CFs?5?$FN?5?$LH?$LP?$LM?d?$LC?N?J?$PN?$LM?S?T?X?$LD?I?$LJ?$KG@ 00490568     GameServerDlg.obj
 0002:00006584       ??_C@_0BP@CKJOPMBN@?$LH?$LP?$LM?d?E?d?V?C?$LC?N?J?$PN?$LC?$LL?$LE?f?T?Z?$LL?r?U?$NP?$LM?S?T?X?J?$KH?$LA?$NM@ 00490584     GameServerDlg.obj
 0002:000065b0       ??_C@_0EM@GFMANDOO@g?3?2?M?x?$LK?$PM?2happygamewh?2?$LH?$PO?N?q?$LG?K?2?O?$LF?M?$LD@ 004905b0     GameServerDlg.obj
 0002:0000660c       ??_C@_0BH@GFNFOOOG@?$CFs?2ServerParameter?4ini@ 0049060c     GameServerDlg.obj
 0002:00006628       ??_C@_06NHDHPCNO@DBPort@   00490628     GameServerDlg.obj
 0002:00006630       ??_C@_0L@KKFJCNPO@PlatformDB@ 00490630     GameServerDlg.obj
 0002:00006640       ??_C@_06BDEHLDKJ@DBAddr@   00490640     GameServerDlg.obj
 0002:00006648       ??_C@_06EKCLIHPK@DBUser@   00490648     GameServerDlg.obj
 0002:00006650       ??_C@_06HJGLHJBN@DBPass@   00490650     GameServerDlg.obj
 0002:00006658       ??_C@_06KMJLGLFD@DBName@   00490658     GameServerDlg.obj
 0002:00006660       ??_C@_0BJ@EBOMCPGB@CreateGameServiceManager@ 00490660     GameServerDlg.obj
 0002:00006680       ??_C@_0CJ@DJPOCDMJ@?$LH?$PO?N?q?W?i?$LM?$PO?$LC?$LL?$LE?f?T?Z?$LL?r?U?$NP?$LM?S?T?X?J?$KH?$LA?$NM?$KD?$KM?E?d?V@ 00490680     GameServerDlg.obj
 0002:000066b4       ??_C@_0BG@CBENBMOF@?$FL?$CFs?$FN?5?$LB?H?H?$PM?E?d?V?C?$LM?S?T?X?$LD?I?$LJ?$KG@ 004906b4     GameServerDlg.obj
 0002:000066d0       ??_C@_0CJ@LFENAACN@?$LH?$PO?N?q?U?$PN?T?Z?T?K?P?P?V?P?$KD?$KM?O?$LF?M?$LD?R?$KK?G?s?W?$KC?O?z?$LL?X?$LL@ 004906d0     GameServerDlg.obj
 0002:00006704       ??_C@_0L@MLALHOMK@?1ServerID?3@ 00490704     GameServerDlg.obj
 0002:0000673c       ??_7CInitParameter@@6B@    0049073c     InitParameter.obj
 0002:00006744       ??_C@_0M@IOFGKGDC@ServiceName@ 00490744     InitParameter.obj
 0002:00006754       ??_C@_0L@EJMBPMDM@ServerInfo@ 00490754     InitParameter.obj
 0002:00006764       ??_C@_0M@DBIKHOMI@ServiceAddr@ 00490764     InitParameter.obj
 0002:00006774       ??_C@_0M@PFPKDPLP@ServicePort@ 00490774     InitParameter.obj
 0002:00006784       ??_C@_0L@EGGJEAIA@Correspond@ 00490784     InitParameter.obj
 0002:00006794       ??_C@_0P@DFEDGGJF@CorrespondAddr@ 00490794     InitParameter.obj
 0002:000067a8       ??_C@_0BH@CBDBHJAC@PersonalRoomCorrespond@ 004907a8     InitParameter.obj
 0002:000067c4       ??_C@_0BL@PIBNOFJN@PersonalRoomCorrespondAddr@ 004907c4     InitParameter.obj
 0002:000067e4       ??_C@_0L@BIEPDLBP@TreasureDB@ 004907e4     InitParameter.obj
 0002:000067f4       ??_C@_09PFCHIMEP@127?40?40?41@ 004907f4     InitParameter.obj
 0002:00006800       ??_C@_02CKOPKKAC@sa@       00490800     InitParameter.obj
 0002:00006804       ??_C@_06PPNIIDOF@people@   00490804     InitParameter.obj
 0002:00006810       ??_C@_0EM@MJJMOMAL@g?3?2?M?x?$LK?$PM?2happygamewh?2?$LH?$PO?N?q?$LG?K?2?O?$LF?M?$LD@ 00490810     InitParameter.obj
 0002:0000686c       ??_C@_0BH@BMJGHNOL@?$CFs?2MobileParameter?4ini@ 0049086c     InitParameter.obj
 0002:00006888       ??_C@_0BP@LLKFDMEA@?N?$LE?U?R?$LF?$LNMobileParameter?4ini?N?D?$LM?$PO?$CB@ 00490888     InitParameter.obj
 0002:000068b0       ??_C@_0BC@IGEEDJJG@VisibleTableCount@ 004908b0     InitParameter.obj
 0002:000068c8       ??_C@_0BD@GBODAJDE@EverySendPageCount@ 004908c8     InitParameter.obj
 0002:000068e0       ??_C@_0BB@FCMFBGOM@invalid?5argument@ 004908e0     SensitiveWordsFilter.obj
 0002:000068f4       ??_C@_1CG@JNLFBNGN@?$AA?$CC?$AAi?$AAn?$AAv?$AAa?$AAl?$AAi?$AAd?$AA?5?$AAa?$AAr?$AAg?$AAu?$AAm?$AAe@ 004908f4     SensitiveWordsFilter.obj
 0002:00006924       ??_C@_0BJ@LFDBABJJ@ITERATOR?5LIST?5CORRUPTED?$CB@ 00490924     SensitiveWordsFilter.obj
 0002:00006948       ??_C@_0GJ@EJIMBHLG@c?3?2program?5files?5?$CIx86?$CJ?2microsof@ 00490948     SensitiveWordsFilter.obj
 0002:000069c8       ??_C@_1NC@FANNPLN@?$AAc?$AA?3?$AA?2?$AAp?$AAr?$AAo?$AAg?$AAr?$AAa?$AAm?$AA?5?$AAf?$AAi?$AAl?$AAe@ 004909c8     SensitiveWordsFilter.obj
 0002:00006ac8       ??_C@_1EE@KLDMFDFL@?$AAs?$AAt?$AAd?$AA?3?$AA?3?$AA_?$AAI?$AAt?$AAe?$AAr?$AAa?$AAt?$AAo?$AAr?$AA_@ 00490ac8     SensitiveWordsFilter.obj
 0002:00006b1c       ??_C@_1DG@PLBPCAEM@?$AA?$CC?$AAI?$AAT?$AAE?$AAR?$AAA?$AAT?$AAO?$AAR?$AA?5?$AAL?$AAI?$AAS?$AAT?$AA?5@ 00490b1c     SensitiveWordsFilter.obj
 0002:00006b60       ??_C@_0GJ@FFDBCFBF@c?3?2program?5files?5?$CIx86?$CJ?2microsof@ 00490b60     SensitiveWordsFilter.obj
 0002:00006be0       ??_C@_1NC@PIOGAKBO@?$AAc?$AA?3?$AA?2?$AAp?$AAr?$AAo?$AAg?$AAr?$AAa?$AAm?$AA?5?$AAf?$AAi?$AAl?$AAe@ 00490be0     SensitiveWordsFilter.obj
 0002:00006ce0       ??_C@_1EK@NIFDJFDG@?$AAs?$AAt?$AAd?$AA?3?$AA?3?$AA_?$AAA?$AAd?$AAj?$AAu?$AAs?$AAt?$AA_?$AAm?$AAa@ 00490ce0     SensitiveWordsFilter.obj
 0002:00006d38       ??_C@_01NBENCBCI@?$CK@     00490d38     SensitiveWordsFilter.obj
 0002:00006d40       ??_C@_1EO@GFNCMDLA@?$AAs?$AAt?$AAd?$AA?3?$AA?3?$AA_?$AAA?$AAl?$AAl?$AAo?$AAc?$AAa?$AAt?$AAe?$AA_@ 00490d40     SensitiveWordsFilter.obj
 0002:00006da0       ??_C@_0FD@JOABLGFE@g?3?2?M?x?$LK?$PM?2happygamewh?2?$LH?$PO?N?q?$LG?K?2?O?$LF?M?$LD@ 00490da0     SensitiveWordsFilter.obj
 0002:00006e04       ??_C@_04FPMFJAAG@25qp@     00490e04     SensitiveWordsFilter.obj
 0002:00006e0c       ??_C@_06PKLBBPHI@25?$KD?Q?$KD?P@ 00490e0c     SensitiveWordsFilter.obj
 0002:00006e14       ??_C@_08JPCBNCAL@?$KD?$LC?$KD?$LF?$KD?Q?$KD?P@ 00490e14     SensitiveWordsFilter.obj
 0002:00006e20       ??_C@_05OHMLCOND@25q?$KD?P@ 00490e20     SensitiveWordsFilter.obj
 0002:00006e28       ??_C@_05JCOEFPBG@25?$KD?Qp@ 00490e28     SensitiveWordsFilter.obj
 0002:00006e30       ??_C@_05DJJDEICL@foxuc@    00490e30     SensitiveWordsFilter.obj
 0002:00006e38       ??_C@_0GH@FKAHJGEE@c?3?2program?5files?5?$CIx86?$CJ?2microsof@ 00490e38     SensitiveWordsFilter.obj
 0002:00006eb8       ??_C@_1MO@OJBMIJHH@?$AAc?$AA?3?$AA?2?$AAp?$AAr?$AAo?$AAg?$AAr?$AAa?$AAm?$AA?5?$AAf?$AAi?$AAl?$AAe@ 00490eb8     SensitiveWordsFilter.obj
 0002:00006fb0       ??_C@_0DC@KEKNBAEB@can?8t?5increment?5value?9initializ@ 00490fb0     SensitiveWordsFilter.obj
 0002:00006ff0       ??_C@_1NM@OCBFIICG@?$AAs?$AAt?$AAd?$AA?3?$AA?3?$AA_?$AAV?$AAe?$AAc?$AAt?$AAo?$AAr?$AA_?$AAc?$AAo@ 00490ff0     SensitiveWordsFilter.obj
 0002:000070f8       ??_C@_1GI@EDCILPL@?$AA?$CC?$AAc?$AAa?$AAn?$AA?8?$AAt?$AA?5?$AAi?$AAn?$AAc?$AAr?$AAe?$AAm?$AAe?$AAn@ 004910f8     SensitiveWordsFilter.obj
 0002:00007174       ??_C@_0CJ@OAAAAGPM@can?8t?5increment?5vector?5iterator@ 00491174     SensitiveWordsFilter.obj
 0002:000071a8       ??_C@_1FG@LDPPKMGP@?$AA?$CC?$AAc?$AAa?$AAn?$AA?8?$AAt?$AA?5?$AAi?$AAn?$AAc?$AAr?$AAe?$AAm?$AAe?$AAn@ 004911a8     SensitiveWordsFilter.obj
 0002:00007210       ??_C@_0DE@CHADHGFF@can?8t?5dereference?5value?9initial@ 00491210     SensitiveWordsFilter.obj
 0002:00007250       ??_C@_1NK@FLHGBFGG@?$AAs?$AAt?$AAd?$AA?3?$AA?3?$AA_?$AAV?$AAe?$AAc?$AAt?$AAo?$AAr?$AA_?$AAc?$AAo@ 00491250     SensitiveWordsFilter.obj
 0002:00007358       ??_C@_1GM@FNBFNBEL@?$AA?$CC?$AAc?$AAa?$AAn?$AA?8?$AAt?$AA?5?$AAd?$AAe?$AAr?$AAe?$AAf?$AAe?$AAr?$AAe@ 00491358     SensitiveWordsFilter.obj
 0002:000073dc       ??_C@_0CP@MDHADBHN@can?8t?5dereference?5out?5of?5range?5@ 004913dc     SensitiveWordsFilter.obj
 0002:00007418       ??_C@_1GC@JDCKOLAC@?$AA?$CC?$AAc?$AAa?$AAn?$AA?8?$AAt?$AA?5?$AAd?$AAe?$AAr?$AAe?$AAf?$AAe?$AAr?$AAe@ 00491418     SensitiveWordsFilter.obj
 0002:00007490       ??_C@_0BO@CAOBBIOC@vector?5iterators?5incompatible@ 00491490     SensitiveWordsFilter.obj
 0002:000074b8       ??_C@_1NE@EBMCICDK@?$AAs?$AAt?$AAd?$AA?3?$AA?3?$AA_?$AAV?$AAe?$AAc?$AAt?$AAo?$AAr?$AA_?$AAc?$AAo@ 004914b8     SensitiveWordsFilter.obj
 0002:000075b8       ??_C@_1EA@DJDGNIII@?$AA?$CC?$AAv?$AAe?$AAc?$AAt?$AAo?$AAr?$AA?5?$AAi?$AAt?$AAe?$AAr?$AAa?$AAt?$AAo@ 004915b8     SensitiveWordsFilter.obj
 0002:00007604       ??_C@_0BD@OLBABOEK@vector?$DMT?$DO?5too?5long@ 00491604     SensitiveWordsFilter.obj
 0002:00007620       ??_7?$CMap@GGPAVCGameTypeItem@NServerListManager@@AAPAV12@@@6B@ 00491620     ServerListManager.obj
 0002:0000763c       ??_7?$CMap@GGPAVCGameKindItem@NServerListManager@@AAPAV12@@@6B@ 0049163c     ServerListManager.obj
 0002:00007658       ??_7?$CMap@GGPAVCGameNodeItem@NServerListManager@@AAPAV12@@@6B@ 00491658     ServerListManager.obj
 0002:00007674       ??_7?$CMap@GGPAVCGamePageItem@NServerListManager@@AAPAV12@@@6B@ 00491674     ServerListManager.obj
 0002:00007690       ??_7?$CMap@GGPAVCGameServerItem@NServerListManager@@AAPAV12@@@6B@ 00491690     ServerListManager.obj
 0002:000076ac       ??_7?$CWHArray@PAVCGameTypeItem@NServerListManager@@ABQAV12@@@6B@ 004916ac     ServerListManager.obj
 0002:000076b8       ??_7?$CWHArray@PAVCGameKindItem@NServerListManager@@ABQAV12@@@6B@ 004916b8     ServerListManager.obj
 0002:000076c4       ??_7?$CWHArray@PAVCGameNodeItem@NServerListManager@@ABQAV12@@@6B@ 004916c4     ServerListManager.obj
 0002:000076d0       ??_7?$CWHArray@PAVCGamePageItem@NServerListManager@@ABQAV12@@@6B@ 004916d0     ServerListManager.obj
 0002:000076dc       ??_7?$CWHArray@PAVCGameServerItem@NServerListManager@@ABQAV12@@@6B@ 004916dc     ServerListManager.obj
 0002:000076e8       ??_7CServerListManager@NServerListManager@@6B@ 004916e8     ServerListManager.obj
 0002:000076f0       ??_C@_0FA@KCCJNB@g?3?2?M?x?$LK?$PM?2happygamewh?2?$LH?$PO?N?q?$LG?K?2?O?$LF?M?$LD@ 004916f0     ServerListManager.obj
 0002:000078c0       ??_7?$CTempldateHelper@UITimerEngine@@@@6B@ 004918c0     ServiceUnits.obj
 0002:000078cc       ??_7CTimerEngineHelper@@6B@ 004918cc     ServiceUnits.obj
 0002:000078d4       ??_C@_0BC@PLOLBCGN@CreateTimerEngine@ 004918d4     ServiceUnits.obj
 0002:000078f0       ??_7?$CTempldateHelper@UIDataBaseEngine@@@@6B@ 004918f0     ServiceUnits.obj
 0002:000078fc       ??_7CDataBaseEngineHelper@@6B@ 004918fc     ServiceUnits.obj
 0002:00007904       ??_C@_0BF@FHMKIOLL@CreateDataBaseEngine@ 00491904     ServiceUnits.obj
 0002:00007924       ??_7?$CTempldateHelper@UIAttemperEngine@@@@6B@ 00491924     ServiceUnits.obj
 0002:00007930       ??_7CAttemperEngineHelper@@6B@ 00491930     ServiceUnits.obj
 0002:00007938       ??_C@_0BF@PBPGMLEA@CreateAttemperEngine@ 00491938     ServiceUnits.obj
 0002:00007958       ??_7?$CTempldateHelper@UITCPSocketService@@@@6B@ 00491958     ServiceUnits.obj
 0002:00007964       ??_7CTCPSocketServiceHelper@@6B@ 00491964     ServiceUnits.obj
 0002:0000796c       ??_C@_0BH@FPPDPKKP@CreateTCPSocketService@ 0049196c     ServiceUnits.obj
 0002:0000798c       ??_7?$CTempldateHelper@UITCPNetworkEngine@@@@6B@ 0049198c     ServiceUnits.obj
 0002:00007998       ??_7CTCPNetworkEngineHelper@@6B@ 00491998     ServiceUnits.obj
 0002:000079a0       ??_C@_0BH@LEGJPFFH@CreateTCPNetworkEngine@ 004919a0     ServiceUnits.obj
 0002:000079c0       ??_7?$CTempldateHelper@UIMatchServiceManager@@@@6B@ 004919c0     ServiceUnits.obj
 0002:000079cc       ??_7CMatchServiceManagerHelper@@6B@ 004919cc     ServiceUnits.obj
 0002:000079d4       ??_C@_0BK@LKNHFFBP@CreateMatchServiceManager@ 004919d4     ServiceUnits.obj
 0002:000079f4       ??_C@_0BB@LCDNABBP@MatchService?4dll@ 004919f4     ServiceUnits.obj
 0002:00007a0c       ??_7?$CTempldateHelper@UIPersonalRoomServiceManager@@@@6B@ 00491a0c     ServiceUnits.obj
 0002:00007a18       ??_7CPersonalRoomServiceManagerHelper@@6B@ 00491a18     ServiceUnits.obj
 0002:00007a20       ??_C@_0CB@MNMPKPAH@CreatePersonalRoomServiceManage@ 00491a20     ServiceUnits.obj
 0002:00007a4c       ??_7CServiceUnits@@6B@     00491a4c     ServiceUnits.obj
 0002:00007c08       ??_C@_0EL@IDOGNJLC@g?3?2?M?x?$LK?$PM?2happygamewh?2?$LH?$PO?N?q?$LG?K?2?O?$LF?M?$LD@ 00491c08     ServiceUnits.obj
 0002:00007c64       ??_C@_0BB@CINGBLJB@?T?$LM?U?$LN?$LH?$PO?N?q?F?t?$LG?$KP?J?$KH?$LA?$NM@ 00491c64     ServiceUnits.obj
 0002:00007c78       ??_C@_0DB@JLIFGLDO@?S?N?O?$LH?D?$KD?$LP?i?$LF?D?$LA?s?$LG?$KI?5DLL?5?C?$PL?W?V?S?k?E?d?V?C?D?$KD@ 00491c78     ServiceUnits.obj
 0002:00007cb4       ??_C@_0BJ@PAFNNNND@?S?N?O?$LH?D?$KD?$LP?i?$LF?w?U?$PL?E?d?V?C?$LC?N?J?$PN?J?$KH?$LA?$NM@ 00491cb4     ServiceUnits.obj
 0002:00007cd4       ??_C@_0CH@OOGEGCIH@?S?N?O?$LH?D?$KD?$LP?i?$LC?$LL?V?$KH?$LD?V?E?d?V?C?V?P?V?$LI?$LG?$KI?$LF?D?$LH?$LP?$LM?d?D@ 00491cd4     ServiceUnits.obj
 0002:00007d04       ??_C@_0P@OPCEHFKE@?N?$LE?$LM?S?T?X?$LB?H?H?$PM?E?d?V?C@ 00491d04     ServiceUnits.obj
 0002:00007d18       ??_C@_0N@LNPLGNA@?$LH?$PO?N?q?F?t?$LG?$KP?J?$KH?$LA?$NM@ 00491d18     ServiceUnits.obj
 0002:00007d28       ??_C@_0BB@EOFIIHMB@?$EAstrDataBaseAddr@ 00491d28     ServiceUnits.obj
 0002:00007d3c       ??_C@_0BI@EBKHBLK@GSP_GS_LoadDataBaseInfo@ 00491d3c     ServiceUnits.obj
 0002:00007d58       ??_C@_0O@BGGHDOEH@ErrorDescribe@ 00491d58     ServiceUnits.obj
 0002:00007d68       ??_C@_0L@CINAGOHO@DBPassword@ 00491d68     ServiceUnits.obj
 0002:00007d78       ??_C@_09LOOPACNL@?$CFs?2?$CFd?4ini@ 00491d78     ServiceUnits.obj
 0002:00007d84       ??_C@_07DOAOMMKG@Enabled@  00491d84     ServiceUnits.obj
 0002:00007d90       ??_C@_06CKGENIKG@Enable@   00491d90     ServiceUnits.obj
 0002:00007d98       ??_C@_0CB@FOIHGICL@GSP_GS_CloseRoomWriteDissumeTim@ 00491d98     ServiceUnits.obj
 0002:00007dc0       ??_C@_0DA@PCJBGNDG@CreateGameServer?5?$LE?$LE?$LN?$KI?5PlatformD@ 00491dc0     ServiceUnits.obj
 0002:00007e00       __pAtlLcidToLocaleNameTable 00491e00     Stdafx.obj
 0002:0000868c       ??_C@_15EMKDOKLE@?$AAa?$AAr@ 0049268c     Stdafx.obj
 0002:00008694       ??_C@_15KNPADPLH@?$AAb?$AAg@ 00492694     Stdafx.obj
 0002:0000869c       ??_C@_15EDMHLDMO@?$AAc?$AAa@ 0049269c     Stdafx.obj
 0002:000086a4       ??_C@_1O@BPEAJADD@?$AAz?$AAh?$AA?9?$AAC?$AAH?$AAS@ 004926a4     Stdafx.obj
 0002:000086b4       ??_C@_15LJNHCMNK@?$AAc?$AAs@ 004926b4     Stdafx.obj
 0002:000086bc       ??_C@_15FOMCIDHG@?$AAd?$AAa@ 004926bc     Stdafx.obj
 0002:000086c4       ??_C@_15NBKABECB@?$AAd?$AAe@ 004926c4     Stdafx.obj
 0002:000086cc       ??_C@_15GHPEIIAO@?$AAe?$AAl@ 004926cc     Stdafx.obj
 0002:000086d4       ??_C@_15MNPNEAIF@?$AAe?$AAn@ 004926d4     Stdafx.obj
 0002:000086dc       ??_C@_15GPIOMPMH@?$AAe?$AAs@ 004926dc     Stdafx.obj
 0002:000086e4       ??_C@_15NGLOAKJC@?$AAf?$AAi@ 004926e4     Stdafx.obj
 0002:000086ec       ??_C@_15FBKGNKAM@?$AAf?$AAr@ 004926ec     Stdafx.obj
 0002:000086f4       ??_C@_15KGGCNEFK@?$AAh?$AAe@ 004926f4     Stdafx.obj
 0002:000086fc       ??_C@_15PGHLIDMF@?$AAh?$AAu@ 004926fc     Stdafx.obj
 0002:00008704       ??_C@_15BIEMAPLM@?$AAi?$AAs@ 00492704     Stdafx.obj
 0002:0000870c       ??_C@_15IFJLDHAF@?$AAi?$AAt@ 0049270c     Stdafx.obj
 0002:00008714       ??_C@_15GEMIOCAG@?$AAj?$AAa@ 00492714     Stdafx.obj
 0002:0000871c       ??_C@_15EPELEGJA@?$AAk?$AAo@ 0049271c     Stdafx.obj
 0002:00008724       ??_C@_15NDDHIMN@?$AAn?$AAl@ 00492724     Stdafx.obj
 0002:0000872c       ??_C@_15BPIGNHCD@?$AAn?$AAo@ 0049272c     Stdafx.obj
 0002:00008734       ??_C@_15DEOPBLCG@?$AAp?$AAl@ 00492734     Stdafx.obj
 0002:0000873c       ??_C@_15KBECGEFG@?$AAp?$AAt@ 0049273c     Stdafx.obj
 0002:00008744       ??_C@_15GLJCBFMD@?$AAr?$AAo@ 00492744     Stdafx.obj
 0002:0000874c       ??_C@_15FEDGKCDI@?$AAr?$AAu@ 0049274c     Stdafx.obj
 0002:00008754       ??_C@_15GLKMLLHM@?$AAh?$AAr@ 00492754     Stdafx.obj
 0002:0000875c       ??_C@_15CPKMFBDB@?$AAs?$AAk@ 0049275c     Stdafx.obj
 0002:00008764       ??_C@_15BAAIOGMK@?$AAs?$AAq@ 00492764     Stdafx.obj
 0002:0000876c       ??_C@_15INNPNOHD@?$AAs?$AAv@ 0049276c     Stdafx.obj
 0002:00008774       ??_C@_15CABMMOGH@?$AAt?$AAh@ 00492774     Stdafx.obj
 0002:0000877c       ??_C@_15BPLIHJJM@?$AAt?$AAr@ 0049277c     Stdafx.obj
 0002:00008784       ??_C@_15NEOEKKDJ@?$AAu?$AAr@ 00492784     Stdafx.obj
 0002:0000878c       ??_C@_15NFICGAJK@?$AAi?$AAd@ 0049278c     Stdafx.obj
 0002:00008794       ??_C@_15PJPFLCCM@?$AAu?$AAk@ 00492794     Stdafx.obj
 0002:0000879c       ??_C@_15HPJPHDM@?$AAb?$AAe@ 0049279c     Stdafx.obj
 0002:000087a4       ??_C@_15LCHLGJII@?$AAs?$AAl@ 004927a4     Stdafx.obj
 0002:000087ac       ??_C@_15PCFJPHHO@?$AAe?$AAt@ 004927ac     Stdafx.obj
 0002:000087b4       ??_C@_15HPFPGODN@?$AAl?$AAv@ 004927b4     Stdafx.obj
 0002:000087bc       ??_C@_15NFFGKGLG@?$AAl?$AAt@ 004927bc     Stdafx.obj
 0002:000087c4       ??_C@_15BDAKCCHN@?$AAf?$AAa@ 004927c4     Stdafx.obj
 0002:000087cc       ??_C@_15NFGIAIAJ@?$AAv?$AAi@ 004927cc     Stdafx.obj
 0002:000087d4       ??_C@_15LMKNDMHN@?$AAh?$AAy@ 004927d4     Stdafx.obj
 0002:000087dc       ??_C@_15IJBHMCFL@?$AAa?$AAz@ 004927dc     Stdafx.obj
 0002:000087e4       ??_C@_15EKOFJABL@?$AAe?$AAu@ 004927e4     Stdafx.obj
 0002:000087ec       ??_C@_15BGHADCNK@?$AAm?$AAk@ 004927ec     Stdafx.obj
 0002:000087f4       ??_C@_15JDNICKHM@?$AAa?$AAf@ 004927f4     Stdafx.obj
 0002:000087fc       ??_C@_15KPJEDBKD@?$AAk?$AAa@ 004927fc     Stdafx.obj
 0002:00008804       ??_C@_15PDNFFFEO@?$AAf?$AAo@ 00492804     Stdafx.obj
 0002:0000880c       ??_C@_15OMLEGLOC@?$AAh?$AAi@ 0049280c     Stdafx.obj
 0002:00008814       ??_C@_15IDNNENKK@?$AAm?$AAs@ 00492814     Stdafx.obj
 0002:0000881c       ??_C@_15MACJNBMH@?$AAk?$AAk@ 0049281c     Stdafx.obj
 0002:00008824       ??_C@_15DKDJEOND@?$AAk?$AAy@ 00492824     Stdafx.obj
 0002:0000882c       ??_C@_15DFGDLJBG@?$AAs?$AAw@ 0049282c     Stdafx.obj
 0002:00008834       ??_C@_15BBFAICNG@?$AAu?$AAz@ 00492834     Stdafx.obj
 0002:0000883c       ??_C@_15DKNDCGEA@?$AAt?$AAt@ 0049283c     Stdafx.obj
 0002:00008844       ??_C@_15MGIFMDPL@?$AAp?$AAa@ 00492844     Stdafx.obj
 0002:0000884c       ??_C@_15HCNDBBA@?$AAg?$AAu@ 0049284c     Stdafx.obj
 0002:00008854       ??_C@_15FNBEIBON@?$AAt?$AAa@ 00492854     Stdafx.obj
 0002:0000885c       ??_C@_15NCHGBGLK@?$AAt?$AAe@ 0049285c     Stdafx.obj
 0002:00008864       ??_C@_15PHPHCBPF@?$AAk?$AAn@ 00492864     Stdafx.obj
 0002:0000886c       ??_C@_15DLGBCKMP@?$AAm?$AAr@ 0049286c     Stdafx.obj
 0002:00008874       ??_C@_15EABBLBFF@?$AAs?$AAa@ 00492874     Stdafx.obj
 0002:0000887c       ??_C@_15CBKOMCOI@?$AAm?$AAn@ 0049287c     Stdafx.obj
 0002:00008884       ??_C@_15CKDMCJAF@?$AAg?$AAl@ 00492884     Stdafx.obj
 0002:0000888c       ??_C@_17CNJFBPG@?$AAk?$AAo?$AAk@ 0049288c     Stdafx.obj
 0002:00008898       ??_C@_17FFBJICPL@?$AAs?$AAy?$AAr@ 00492898     Stdafx.obj
 0002:000088a4       ??_C@_17KPNDCPAF@?$AAd?$AAi?$AAv@ 004928a4     Stdafx.obj
 0002:000088b0       ??_C@_11LOCGONAA@@         004928b0     Stdafx.obj
 0002:000088b4       ??_C@_1M@OKAHONE@?$AAa?$AAr?$AA?9?$AAS?$AAA@ 004928b4     Stdafx.obj
 0002:000088c4       ??_C@_1M@FFFIGIGK@?$AAb?$AAg?$AA?9?$AAB?$AAG@ 004928c4     Stdafx.obj
 0002:000088d4       ??_C@_1M@BJNKEDC@?$AAc?$AAa?$AA?9?$AAE?$AAS@ 004928d4     Stdafx.obj
 0002:000088e4       ??_C@_1M@CLNBBOPM@?$AAz?$AAh?$AA?9?$AAT?$AAW@ 004928e4     Stdafx.obj
 0002:000088f4       ??_C@_1M@IJJHFJHA@?$AAc?$AAs?$AA?9?$AAC?$AAZ@ 004928f4     Stdafx.obj
 0002:00008904       ??_C@_1M@CLPEOBGI@?$AAd?$AAa?$AA?9?$AAD?$AAK@ 00492904     Stdafx.obj
 0002:00008914       ??_C@_1M@MCMADGCB@?$AAd?$AAe?$AA?9?$AAD?$AAE@ 00492914     Stdafx.obj
 0002:00008924       ??_C@_1M@OOCKEMAM@?$AAe?$AAl?$AA?9?$AAG?$AAR@ 00492924     Stdafx.obj
 0002:00008934       ??_C@_1M@BMHNFIME@?$AAe?$AAn?$AA?9?$AAU?$AAS@ 00492934     Stdafx.obj
 0002:00008944       ??_C@_1M@DDNJFGID@?$AAf?$AAi?$AA?9?$AAF?$AAI@ 00492944     Stdafx.obj
 0002:00008954       ??_C@_1M@GLIPPMAC@?$AAf?$AAr?$AA?9?$AAF?$AAR@ 00492954     Stdafx.obj
 0002:00008964       ??_C@_1M@GFMCHPE@?$AAh?$AAe?$AA?9?$AAI?$AAL@ 00492964     Stdafx.obj
 0002:00008974       ??_C@_1M@MHLPGNKM@?$AAh?$AAu?$AA?9?$AAH?$AAU@ 00492974     Stdafx.obj
 0002:00008984       ??_C@_1M@LPDDNNPN@?$AAi?$AAs?$AA?9?$AAI?$AAS@ 00492984     Stdafx.obj
 0002:00008994       ??_C@_1M@MADIPODN@?$AAi?$AAt?$AA?9?$AAI?$AAT@ 00492994     Stdafx.obj
 0002:000089a4       ??_C@_1M@HPNHIDJI@?$AAj?$AAa?$AA?9?$AAJ?$AAP@ 004929a4     Stdafx.obj
 0002:000089b4       ??_C@_1M@JLOOOEGK@?$AAk?$AAo?$AA?9?$AAK?$AAR@ 004929b4     Stdafx.obj
 0002:000089c4       ??_C@_1M@IHBJJGG@?$AAn?$AAl?$AA?9?$AAN?$AAL@ 004929c4     Stdafx.obj
 0002:000089d4       ??_C@_1M@EANAGDL@?$AAn?$AAb?$AA?9?$AAN?$AAO@ 004929d4     Stdafx.obj
 0002:000089e4       ??_C@_1M@NEIEMEGP@?$AAp?$AAl?$AA?9?$AAP?$AAL@ 004929e4     Stdafx.obj
 0002:000089f4       ??_C@_1M@BOCFIGEP@?$AAp?$AAt?$AA?9?$AAB?$AAR@ 004929f4     Stdafx.obj
 0002:00008a04       ??_C@_1M@IMPFOPBG@?$AAr?$AAo?$AA?9?$AAR?$AAO@ 00492a04     Stdafx.obj
 0002:00008a14       ??_C@_1M@IDNNEJMM@?$AAr?$AAu?$AA?9?$AAR?$AAU@ 00492a14     Stdafx.obj
 0002:00008a24       ??_C@_1M@LILEEOGM@?$AAh?$AAr?$AA?9?$AAH?$AAR@ 00492a24     Stdafx.obj
 0002:00008a34       ??_C@_1M@FKIFEHPB@?$AAs?$AAk?$AA?9?$AAS?$AAK@ 00492a34     Stdafx.obj
 0002:00008a44       ??_C@_1M@LJMAMNPJ@?$AAs?$AAq?$AA?9?$AAA?$AAL@ 00492a44     Stdafx.obj
 0002:00008a54       ??_C@_1M@GIAKDKJK@?$AAs?$AAv?$AA?9?$AAS?$AAE@ 00492a54     Stdafx.obj
 0002:00008a64       ??_C@_1M@MKJKIKCL@?$AAt?$AAh?$AA?9?$AAT?$AAH@ 00492a64     Stdafx.obj
 0002:00008a74       ??_C@_1M@MFLCCMPB@?$AAt?$AAr?$AA?9?$AAT?$AAR@ 00492a74     Stdafx.obj
 0002:00008a84       ??_C@_1M@OIJHDKJN@?$AAu?$AAr?$AA?9?$AAP?$AAK@ 00492a84     Stdafx.obj
 0002:00008a94       ??_C@_1M@LHIPCIEK@?$AAi?$AAd?$AA?9?$AAI?$AAD@ 00492a94     Stdafx.obj
 0002:00008aa4       ??_C@_1M@MFMOBGI@?$AAu?$AAk?$AA?9?$AAU?$AAA@ 00492aa4     Stdafx.obj
 0002:00008ab4       ??_C@_1M@OBGLJIPL@?$AAb?$AAe?$AA?9?$AAB?$AAY@ 00492ab4     Stdafx.obj
 0002:00008ac4       ??_C@_1M@BCFAJEAD@?$AAs?$AAl?$AA?9?$AAS?$AAI@ 00492ac4     Stdafx.obj
 0002:00008ad4       ??_C@_1M@FKFFEDDN@?$AAe?$AAt?$AA?9?$AAE?$AAE@ 00492ad4     Stdafx.obj
 0002:00008ae4       ??_C@_1M@KGKKAACI@?$AAl?$AAv?$AA?9?$AAL?$AAV@ 00492ae4     Stdafx.obj
 0002:00008af4       ??_C@_1M@IFGBIJO@?$AAl?$AAt?$AA?9?$AAL?$AAT@ 00492af4     Stdafx.obj
 0002:00008b04       ??_C@_1M@FGEAHEDM@?$AAf?$AAa?$AA?9?$AAI?$AAR@ 00492b04     Stdafx.obj
 0002:00008b14       ??_C@_1M@KBMAIBFN@?$AAv?$AAi?$AA?9?$AAV?$AAN@ 00492b14     Stdafx.obj
 0002:00008b24       ??_C@_1M@GPCBKDJK@?$AAh?$AAy?$AA?9?$AAA?$AAM@ 00492b24     Stdafx.obj
 0002:00008b34       ??_C@_1BG@BECMDDJB@?$AAa?$AAz?$AA?9?$AAA?$AAZ?$AA?9?$AAL?$AAa?$AAt?$AAn@ 00492b34     Stdafx.obj
 0002:00008b50       ??_C@_1M@MAOFCAEA@?$AAe?$AAu?$AA?9?$AAE?$AAS@ 00492b50     Stdafx.obj
 0002:00008b60       ??_C@_1M@IGHABKPI@?$AAm?$AAk?$AA?9?$AAM?$AAK@ 00492b60     Stdafx.obj
 0002:00008b70       ??_C@_1M@IAIGNEJG@?$AAt?$AAn?$AA?9?$AAZ?$AAA@ 00492b70     Stdafx.obj
 0002:00008b80       ??_C@_1M@IIJCOJFA@?$AAx?$AAh?$AA?9?$AAZ?$AAA@ 00492b80     Stdafx.obj
 0002:00008b90       ??_C@_1M@LGPJHNJH@?$AAz?$AAu?$AA?9?$AAZ?$AAA@ 00492b90     Stdafx.obj
 0002:00008ba0       ??_C@_1M@HOKAOIO@?$AAa?$AAf?$AA?9?$AAZ?$AAA@ 00492ba0     Stdafx.obj
 0002:00008bb0       ??_C@_1M@DPCLHLIE@?$AAk?$AAa?$AA?9?$AAG?$AAE@ 00492bb0     Stdafx.obj
 0002:00008bc0       ??_C@_1M@BLKMHJBI@?$AAf?$AAo?$AA?9?$AAF?$AAO@ 00492bc0     Stdafx.obj
 0002:00008bd0       ??_C@_1M@LGGJAPPB@?$AAh?$AAi?$AA?9?$AAI?$AAN@ 00492bd0     Stdafx.obj
 0002:00008be0       ??_C@_1M@FIKPIHFE@?$AAm?$AAt?$AA?9?$AAM?$AAT@ 00492be0     Stdafx.obj
 0002:00008bf0       ??_C@_1M@HEGGPBFA@?$AAs?$AAe?$AA?9?$AAN?$AAO@ 00492bf0     Stdafx.obj
 0002:00008c00       ??_C@_1M@EIBJEEPA@?$AAm?$AAs?$AA?9?$AAM?$AAY@ 00492c00     Stdafx.obj
 0002:00008c10       ??_C@_1M@FHLBGMPP@?$AAk?$AAk?$AA?9?$AAK?$AAZ@ 00492c10     Stdafx.obj
 0002:00008c20       ??_C@_1M@NGJJLCGI@?$AAk?$AAy?$AA?9?$AAK?$AAG@ 00492c20     Stdafx.obj
 0002:00008c30       ??_C@_1M@GIENNBFC@?$AAs?$AAw?$AA?9?$AAK?$AAE@ 00492c30     Stdafx.obj
 0002:00008c40       ??_C@_1BG@NDGMJIMJ@?$AAu?$AAz?$AA?9?$AAU?$AAZ?$AA?9?$AAL?$AAa?$AAt?$AAn@ 00492c40     Stdafx.obj
 0002:00008c5c       ??_C@_1M@IDCCIHBC@?$AAt?$AAt?$AA?9?$AAR?$AAU@ 00492c5c     Stdafx.obj
 0002:00008c6c       ??_C@_1M@LOICPMOJ@?$AAb?$AAn?$AA?9?$AAI?$AAN@ 00492c6c     Stdafx.obj
 0002:00008c7c       ??_C@_1M@KPKKNEAH@?$AAp?$AAa?$AA?9?$AAI?$AAN@ 00492c7c     Stdafx.obj
 0002:00008c8c       ??_C@_1M@PJGPPBOG@?$AAg?$AAu?$AA?9?$AAI?$AAN@ 00492c8c     Stdafx.obj
 0002:00008c9c       ??_C@_1M@KMKMOPHI@?$AAt?$AAa?$AA?9?$AAI?$AAN@ 00492c9c     Stdafx.obj
 0002:00008cac       ??_C@_1M@KFEHEPAC@?$AAt?$AAe?$AA?9?$AAI?$AAN@ 00492cac     Stdafx.obj
 0002:00008cbc       ??_C@_1M@CDCLMGHI@?$AAk?$AAn?$AA?9?$AAI?$AAN@ 00492cbc     Stdafx.obj
 0002:00008ccc       ??_C@_1M@MIODLDKF@?$AAm?$AAl?$AA?9?$AAI?$AAN@ 00492ccc     Stdafx.obj
 0002:00008cdc       ??_C@_1M@PBIEACPO@?$AAm?$AAr?$AA?9?$AAI?$AAN@ 00492cdc     Stdafx.obj
 0002:00008cec       ??_C@_1M@NIDEAGPH@?$AAs?$AAa?$AA?9?$AAI?$AAN@ 00492cec     Stdafx.obj
 0002:00008cfc       ??_C@_1M@FHIHCBIO@?$AAm?$AAn?$AA?9?$AAM?$AAN@ 00492cfc     Stdafx.obj
 0002:00008d0c       ??_C@_1M@JAIJPENP@?$AAc?$AAy?$AA?9?$AAG?$AAB@ 00492d0c     Stdafx.obj
 0002:00008d1c       ??_C@_1M@PHGFBEPN@?$AAg?$AAl?$AA?9?$AAE?$AAS@ 00492d1c     Stdafx.obj
 0002:00008d2c       ??_C@_1O@KPIPDNCP@?$AAk?$AAo?$AAk?$AA?9?$AAI?$AAN@ 00492d2c     Stdafx.obj
 0002:00008d3c       ??_C@_1O@KNHJLDJA@?$AAs?$AAy?$AAr?$AA?9?$AAS?$AAY@ 00492d3c     Stdafx.obj
 0002:00008d4c       ??_C@_1O@MKEKBLAH@?$AAd?$AAi?$AAv?$AA?9?$AAM?$AAV@ 00492d4c     Stdafx.obj
 0002:00008d5c       ??_C@_1O@OHDCKDDF@?$AAq?$AAu?$AAz?$AA?9?$AAB?$AAO@ 00492d5c     Stdafx.obj
 0002:00008d6c       ??_C@_1M@LEPJNLFD@?$AAn?$AAs?$AA?9?$AAZ?$AAA@ 00492d6c     Stdafx.obj
 0002:00008d7c       ??_C@_1M@OMLEIIJB@?$AAm?$AAi?$AA?9?$AAN?$AAZ@ 00492d7c     Stdafx.obj
 0002:00008d8c       ??_C@_1M@PMPEAILG@?$AAa?$AAr?$AA?9?$AAI?$AAQ@ 00492d8c     Stdafx.obj
 0002:00008d9c       ??_C@_1M@BIBDDEMK@?$AAz?$AAh?$AA?9?$AAC?$AAN@ 00492d9c     Stdafx.obj
 0002:00008dac       ??_C@_1M@CNKPNOEE@?$AAd?$AAe?$AA?9?$AAC?$AAH@ 00492dac     Stdafx.obj
 0002:00008dbc       ??_C@_1M@LKMGMLKO@?$AAe?$AAn?$AA?9?$AAG?$AAB@ 00492dbc     Stdafx.obj
 0002:00008dcc       ??_C@_1M@PGKJFFGL@?$AAe?$AAs?$AA?9?$AAM?$AAX@ 00492dcc     Stdafx.obj
 0002:00008ddc       ??_C@_1M@DNNANBDC@?$AAf?$AAr?$AA?9?$AAB?$AAE@ 00492ddc     Stdafx.obj
 0002:00008dec       ??_C@_1M@HLGMDFHM@?$AAi?$AAt?$AA?9?$AAC?$AAH@ 00492dec     Stdafx.obj
 0002:00008dfc       ??_C@_1M@CLLBGJH@?$AAn?$AAl?$AA?9?$AAB?$AAE@ 00492dfc     Stdafx.obj
 0002:00008e0c       ??_C@_1M@BODBOGLF@?$AAn?$AAn?$AA?9?$AAN?$AAO@ 00492e0c     Stdafx.obj
 0002:00008e1c       ??_C@_1M@HFFAHKAD@?$AAp?$AAt?$AA?9?$AAP?$AAT@ 00492e1c     Stdafx.obj
 0002:00008e2c       ??_C@_1BG@LNOAKHIE@?$AAs?$AAr?$AA?9?$AAS?$AAP?$AA?9?$AAL?$AAa?$AAt?$AAn@ 00492e2c     Stdafx.obj
 0002:00008e48       ??_C@_1M@HBMHBGAK@?$AAs?$AAv?$AA?9?$AAF?$AAI@ 00492e48     Stdafx.obj
 0002:00008e58       ??_C@_1BG@DGCJGJBE@?$AAa?$AAz?$AA?9?$AAA?$AAZ?$AA?9?$AAC?$AAy?$AAr?$AAl@ 00492e58     Stdafx.obj
 0002:00008e74       ??_C@_1M@KEJDAAHB@?$AAs?$AAe?$AA?9?$AAS?$AAE@ 00492e74     Stdafx.obj
 0002:00008e84       ??_C@_1M@HEIBJJAD@?$AAm?$AAs?$AA?9?$AAB?$AAN@ 00492e84     Stdafx.obj
 0002:00008e94       ??_C@_1BG@PBGJMCEM@?$AAu?$AAz?$AA?9?$AAU?$AAZ?$AA?9?$AAC?$AAy?$AAr?$AAl@ 00492e94     Stdafx.obj
 0002:00008eb0       ??_C@_1O@LAOBCMDF@?$AAq?$AAu?$AAz?$AA?9?$AAE?$AAC@ 00492eb0     Stdafx.obj
 0002:00008ec0       ??_C@_1M@POEEMAIO@?$AAa?$AAr?$AA?9?$AAE?$AAG@ 00492ec0     Stdafx.obj
 0002:00008ed0       ??_C@_1M@EFAKDEDL@?$AAz?$AAh?$AA?9?$AAH?$AAK@ 00492ed0     Stdafx.obj
 0002:00008ee0       ??_C@_1M@HKKIJHGI@?$AAd?$AAe?$AA?9?$AAA?$AAT@ 00492ee0     Stdafx.obj
 0002:00008ef0       ??_C@_1M@KBFBEHJF@?$AAe?$AAn?$AA?9?$AAA?$AAU@ 00492ef0     Stdafx.obj
 0002:00008f00       ??_C@_1M@MNPLFAAH@?$AAe?$AAs?$AA?9?$AAE?$AAS@ 00492f00     Stdafx.obj
 0002:00008f10       ??_C@_1M@HJOOJFMA@?$AAf?$AAr?$AA?9?$AAC?$AAA@ 00492f10     Stdafx.obj
 0002:00008f20       ??_C@_1BG@JPOFPNAB@?$AAs?$AAr?$AA?9?$AAS?$AAP?$AA?9?$AAC?$AAy?$AAr?$AAl@ 00492f20     Stdafx.obj
 0002:00008f3c       ??_C@_1M@LNFOCMOB@?$AAs?$AAe?$AA?9?$AAF?$AAI@ 00492f3c     Stdafx.obj
 0002:00008f4c       ??_C@_1O@MGJBOAMB@?$AAq?$AAu?$AAz?$AA?9?$AAP?$AAE@ 00492f4c     Stdafx.obj
 0002:00008f5c       ??_C@_1M@GJINLBOK@?$AAa?$AAr?$AA?9?$AAL?$AAY@ 00492f5c     Stdafx.obj
 0002:00008f6c       ??_C@_1M@GGMNHJNL@?$AAz?$AAh?$AA?9?$AAS?$AAG@ 00492f6c     Stdafx.obj
 0002:00008f7c       ??_C@_1M@HOIKODND@?$AAd?$AAe?$AA?9?$AAL?$AAU@ 00492f7c     Stdafx.obj
 0002:00008f8c       ??_C@_1M@DDOCCGFG@?$AAe?$AAn?$AA?9?$AAC?$AAA@ 00492f8c     Stdafx.obj
 0002:00008f9c       ??_C@_1M@BNOEMJLF@?$AAe?$AAs?$AA?9?$AAG?$AAT@ 00492f9c     Stdafx.obj
 0002:00008fac       ??_C@_1M@EOGNKEK@?$AAf?$AAr?$AA?9?$AAC?$AAH@ 00492fac     Stdafx.obj
 0002:00008fbc       ??_C@_1M@FLIDJFHL@?$AAh?$AAr?$AA?9?$AAB?$AAA@ 00492fbc     Stdafx.obj
 0002:00008fcc       ??_C@_1O@FMCELNAJ@?$AAs?$AAm?$AAj?$AA?9?$AAN?$AAO@ 00492fcc     Stdafx.obj
 0002:00008fdc       ??_C@_1M@JHGLJMGJ@?$AAa?$AAr?$AA?9?$AAD?$AAZ@ 00492fdc     Stdafx.obj
 0002:00008fec       ??_C@_1M@JKKFDCNP@?$AAz?$AAh?$AA?9?$AAM?$AAO@ 00492fec     Stdafx.obj
 0002:00008ffc       ??_C@_1M@GEEFALPE@?$AAd?$AAe?$AA?9?$AAL?$AAI@ 00492ffc     Stdafx.obj
 0002:0000900c       ??_C@_1M@IGEOFBG@?$AAe?$AAn?$AA?9?$AAN?$AAZ@ 0049300c     Stdafx.obj
 0002:0000901c       ??_C@_1M@KDBONEHP@?$AAe?$AAs?$AA?9?$AAC?$AAR@ 0049301c     Stdafx.obj
 0002:0000902c       ??_C@_1M@FHMDOHNN@?$AAf?$AAr?$AA?9?$AAL?$AAU@ 0049302c     Stdafx.obj
 0002:0000903c       ??_C@_1BG@NFKKMAFG@?$AAb?$AAs?$AA?9?$AAB?$AAA?$AA?9?$AAL?$AAa?$AAt?$AAn@ 0049303c     Stdafx.obj
 0002:00009058       ??_C@_1O@IMNBEMCI@?$AAs?$AAm?$AAj?$AA?9?$AAS?$AAE@ 00493058     Stdafx.obj
 0002:00009068       ??_C@_1M@DHHMBNDP@?$AAa?$AAr?$AA?9?$AAM?$AAA@ 00493068     Stdafx.obj
 0002:00009078       ??_C@_1M@BNBLJCGH@?$AAe?$AAn?$AA?9?$AAI?$AAE@ 00493078     Stdafx.obj
 0002:00009088       ??_C@_1M@GEPAFMDL@?$AAe?$AAs?$AA?9?$AAP?$AAA@ 00493088     Stdafx.obj
 0002:00009098       ??_C@_1M@OJONDMDL@?$AAf?$AAr?$AA?9?$AAM?$AAC@ 00493098     Stdafx.obj
 0002:000090a8       ??_C@_1BG@OBCNFJB@?$AAs?$AAr?$AA?9?$AAB?$AAA?$AA?9?$AAL?$AAa?$AAt?$AAn@ 004930a8     Stdafx.obj
 0002:000090c4       ??_C@_1O@KEMEEGPO@?$AAs?$AAm?$AAa?$AA?9?$AAN?$AAO@ 004930c4     Stdafx.obj
 0002:000090d4       ??_C@_1M@ELMGFODK@?$AAa?$AAr?$AA?9?$AAT?$AAN@ 004930d4     Stdafx.obj
 0002:000090e4       ??_C@_1M@BHDLHFAF@?$AAe?$AAn?$AA?9?$AAZ?$AAA@ 004930e4     Stdafx.obj
 0002:000090f4       ??_C@_1M@BMGIGLIF@?$AAe?$AAs?$AA?9?$AAD?$AAO@ 004930f4     Stdafx.obj
 0002:00009104       ??_C@_1BG@CMBHIPBE@?$AAs?$AAr?$AA?9?$AAB?$AAA?$AA?9?$AAC?$AAy?$AAr?$AAl@ 00493104     Stdafx.obj
 0002:00009120       ??_C@_1O@HEDBLHNP@?$AAs?$AAm?$AAa?$AA?9?$AAS?$AAE@ 00493120     Stdafx.obj
 0002:00009130       ??_C@_1M@DAGCADIM@?$AAa?$AAr?$AA?9?$AAO?$AAM@ 00493130     Stdafx.obj
 0002:00009140       ??_C@_1M@FODLMICG@?$AAe?$AAn?$AA?9?$AAJ?$AAM@ 00493140     Stdafx.obj
 0002:00009150       ??_C@_1M@DNMLCIHB@?$AAe?$AAs?$AA?9?$AAV?$AAE@ 00493150     Stdafx.obj
 0002:00009160       ??_C@_1O@EOKHMKJK@?$AAs?$AAm?$AAs?$AA?9?$AAF?$AAI@ 00493160     Stdafx.obj
 0002:00009170       ??_C@_1M@CAFJMKOF@?$AAa?$AAr?$AA?9?$AAY?$AAE@ 00493170     Stdafx.obj
 0002:00009180       ??_C@_1M@CBFHIJLI@?$AAe?$AAn?$AA?9?$AAC?$AAB@ 00493180     Stdafx.obj
 0002:00009190       ??_C@_1M@BGNFLDN@?$AAe?$AAs?$AA?9?$AAC?$AAO@ 00493190     Stdafx.obj
 0002:000091a0       ??_C@_1O@JMPHMAMC@?$AAs?$AAm?$AAn?$AA?9?$AAF?$AAI@ 004931a0     Stdafx.obj
 0002:000091b0       ??_C@_1M@JLANABKE@?$AAa?$AAr?$AA?9?$AAS?$AAY@ 004931b0     Stdafx.obj
 0002:000091c0       ??_C@_1M@HPKGCFGN@?$AAe?$AAn?$AA?9?$AAB?$AAZ@ 004931c0     Stdafx.obj
 0002:000091d0       ??_C@_1M@OLJCMLGM@?$AAe?$AAs?$AA?9?$AAP?$AAE@ 004931d0     Stdafx.obj
 0002:000091e0       ??_C@_1M@MKKGFKLE@?$AAa?$AAr?$AA?9?$AAJ?$AAO@ 004931e0     Stdafx.obj
 0002:000091f0       ??_C@_1M@EKPGLDNI@?$AAe?$AAn?$AA?9?$AAT?$AAT@ 004931f0     Stdafx.obj
 0002:00009200       ??_C@_1M@OONGHFHE@?$AAe?$AAs?$AA?9?$AAA?$AAR@ 00493200     Stdafx.obj
 0002:00009210       ??_C@_1M@OOJFGBHE@?$AAa?$AAr?$AA?9?$AAL?$AAB@ 00493210     Stdafx.obj
 0002:00009220       ??_C@_1M@GCEJHNEG@?$AAe?$AAn?$AA?9?$AAZ?$AAW@ 00493220     Stdafx.obj
 0002:00009230       ??_C@_1M@JNOCAHJI@?$AAe?$AAs?$AA?9?$AAE?$AAC@ 00493230     Stdafx.obj
 0002:00009240       ??_C@_1M@JEFHPGGB@?$AAa?$AAr?$AA?9?$AAK?$AAW@ 00493240     Stdafx.obj
 0002:00009250       ??_C@_1M@MLKIBJOJ@?$AAe?$AAn?$AA?9?$AAP?$AAH@ 00493250     Stdafx.obj
 0002:00009260       ??_C@_1M@BDNIPEND@?$AAe?$AAs?$AA?9?$AAC?$AAL@ 00493260     Stdafx.obj
 0002:00009270       ??_C@_1M@MPNMEKBD@?$AAa?$AAr?$AA?9?$AAA?$AAE@ 00493270     Stdafx.obj
 0002:00009280       ??_C@_1M@KBJALCPI@?$AAe?$AAs?$AA?9?$AAU?$AAY@ 00493280     Stdafx.obj
 0002:00009290       ??_C@_1M@LLCCOAGA@?$AAa?$AAr?$AA?9?$AAB?$AAH@ 00493290     Stdafx.obj
 0002:000092a0       ??_C@_1M@PBFNCDEL@?$AAe?$AAs?$AA?9?$AAP?$AAY@ 004932a0     Stdafx.obj
 0002:000092b0       ??_C@_1M@EDGINPNP@?$AAa?$AAr?$AA?9?$AAQ?$AAA@ 004932b0     Stdafx.obj
 0002:000092c0       ??_C@_1M@MKDBIIJI@?$AAe?$AAs?$AA?9?$AAB?$AAO@ 004932c0     Stdafx.obj
 0002:000092d0       ??_C@_1M@CPKKEBLD@?$AAe?$AAs?$AA?9?$AAS?$AAV@ 004932d0     Stdafx.obj
 0002:000092e0       ??_C@_1M@NDBGMMJL@?$AAe?$AAs?$AA?9?$AAH?$AAN@ 004932e0     Stdafx.obj
 0002:000092f0       ??_C@_1M@JIJIBHDP@?$AAe?$AAs?$AA?9?$AAN?$AAI@ 004932f0     Stdafx.obj
 0002:00009300       ??_C@_1M@CGFMKEEK@?$AAe?$AAs?$AA?9?$AAP?$AAR@ 00493300     Stdafx.obj
 0002:00009310       ??_C@_1O@ICJHKIIK@?$AAz?$AAh?$AA?9?$AAC?$AAH?$AAT@ 00493310     Stdafx.obj
 0002:00009320       ??_C@_15CLNEJCE@?$AAs?$AAr@ 00493320     Stdafx.obj
 0002:00009328       __pAtlLocaleNameToIndexTable 00493328     Stdafx.obj
 0002:00009bb4       ??_C@_1M@KAHEKEIG@?$AAa?$AAf?$AA?9?$AAz?$AAa@ 00493bb4     Stdafx.obj
 0002:00009bc4       ??_C@_1M@GIECOABL@?$AAa?$AAr?$AA?9?$AAa?$AAe@ 00493bc4     Stdafx.obj
 0002:00009bd4       ??_C@_1M@BMLMEKGI@?$AAa?$AAr?$AA?9?$AAb?$AAh@ 00493bd4     Stdafx.obj
 0002:00009be4       ??_C@_1M@DAPFDGGB@?$AAa?$AAr?$AA?9?$AAd?$AAz@ 00493be4     Stdafx.obj
 0002:00009bf4       ??_C@_1M@FJNKGKIG@?$AAa?$AAr?$AA?9?$AAe?$AAg@ 00493bf4     Stdafx.obj
 0002:00009c04       ??_C@_1M@FLGKKCLO@?$AAa?$AAr?$AA?9?$AAi?$AAq@ 00493c04     Stdafx.obj
 0002:00009c14       ??_C@_1M@GNDIPALM@?$AAa?$AAr?$AA?9?$AAj?$AAo@ 00493c14     Stdafx.obj
 0002:00009c24       ??_C@_1M@DDMJFMGJ@?$AAa?$AAr?$AA?9?$AAk?$AAw@ 00493c24     Stdafx.obj
 0002:00009c34       ??_C@_1M@EJALMLHM@?$AAa?$AAr?$AA?9?$AAl?$AAb@ 00493c34     Stdafx.obj
 0002:00009c44       ??_C@_1M@MOBDBLOC@?$AAa?$AAr?$AA?9?$AAl?$AAy@ 00493c44     Stdafx.obj
 0002:00009c54       ??_C@_1M@JAOCLHDH@?$AAa?$AAr?$AA?9?$AAm?$AAa@ 00493c54     Stdafx.obj
 0002:00009c64       ??_C@_1M@JHPMKJIE@?$AAa?$AAr?$AA?9?$AAo?$AAm@ 00493c64     Stdafx.obj
 0002:00009c74       ??_C@_1M@OEPGHFNH@?$AAa?$AAr?$AA?9?$AAq?$AAa@ 00493c74     Stdafx.obj
 0002:00009c84       ??_C@_1M@KJDONENM@?$AAa?$AAr?$AA?9?$AAs?$AAa@ 00493c84     Stdafx.obj
 0002:00009c94       ??_C@_1M@DMJDKLKM@?$AAa?$AAr?$AA?9?$AAs?$AAy@ 00493c94     Stdafx.obj
 0002:00009ca4       ??_C@_1M@OMFIPEDC@?$AAa?$AAr?$AA?9?$AAt?$AAn@ 00493ca4     Stdafx.obj
 0002:00009cb4       ??_C@_1M@IHMHGAON@?$AAa?$AAr?$AA?9?$AAy?$AAe@ 00493cb4     Stdafx.obj
 0002:00009cc4       ??_C@_1BG@KDCPGJGB@?$AAa?$AAz?$AA?9?$AAa?$AAz?$AA?9?$AAc?$AAy?$AAr?$AAl@ 00493cc4     Stdafx.obj
 0002:00009ce0       ??_C@_1BG@IBCKDDOE@?$AAa?$AAz?$AA?9?$AAa?$AAz?$AA?9?$AAl?$AAa?$AAt?$AAn@ 00493ce0     Stdafx.obj
 0002:00009cfc       ??_C@_1M@EGPFDCPD@?$AAb?$AAe?$AA?9?$AAb?$AAy@ 00493cfc     Stdafx.obj
 0002:00009d0c       ??_C@_1M@PCMGMCGC@?$AAb?$AAg?$AA?9?$AAb?$AAg@ 00493d0c     Stdafx.obj
 0002:00009d1c       ??_C@_1M@BJBMFGOB@?$AAb?$AAn?$AA?9?$AAi?$AAn@ 00493d1c     Stdafx.obj
 0002:00009d2c       ??_C@_1BG@EAKMMACD@?$AAb?$AAs?$AA?9?$AAb?$AAa?$AA?9?$AAl?$AAa?$AAt?$AAn@ 00493d2c     Stdafx.obj
 0002:00009d48       ??_C@_1M@KGADAODK@?$AAc?$AAa?$AA?9?$AAe?$AAs@ 00493d48     Stdafx.obj
 0002:00009d58       ??_C@_1M@COAJPDHI@?$AAc?$AAs?$AA?9?$AAc?$AAz@ 00493d58     Stdafx.obj
 0002:00009d68       ??_C@_1M@DHBHFONH@?$AAc?$AAy?$AA?9?$AAg?$AAb@ 00493d68     Stdafx.obj
 0002:00009d78       ??_C@_1M@IMGKELGA@?$AAd?$AAa?$AA?9?$AAd?$AAk@ 00493d78     Stdafx.obj
 0002:00009d88       ??_C@_1M@NNDGDNGA@?$AAd?$AAe?$AA?9?$AAa?$AAt@ 00493d88     Stdafx.obj
 0002:00009d98       ??_C@_1M@IKDBHEEM@?$AAd?$AAe?$AA?9?$AAc?$AAh@ 00493d98     Stdafx.obj
 0002:00009da8       ??_C@_1M@GFFOJMCJ@?$AAd?$AAe?$AA?9?$AAd?$AAe@ 00493da8     Stdafx.obj
 0002:00009db8       ??_C@_1M@MDNLKBPM@?$AAd?$AAe?$AA?9?$AAl?$AAi@ 00493db8     Stdafx.obj
 0002:00009dc8       ??_C@_1M@NJBEEJNL@?$AAd?$AAe?$AA?9?$AAl?$AAu@ 00493dc8     Stdafx.obj
 0002:00009dd8       ??_C@_1O@GNNELBAP@?$AAd?$AAi?$AAv?$AA?9?$AAm?$AAv@ 00493dd8     Stdafx.obj
 0002:00009de8       ??_C@_1M@EJLEOGAE@?$AAe?$AAl?$AA?9?$AAg?$AAr@ 00493de8     Stdafx.obj
 0002:00009df8       ??_C@_1M@GMPONJN@?$AAe?$AAn?$AA?9?$AAa?$AAu@ 00493df8     Stdafx.obj
 0002:00009e08       ??_C@_1M@NIDIIPGF@?$AAe?$AAn?$AA?9?$AAb?$AAz@ 00493e08     Stdafx.obj
 0002:00009e18       ??_C@_1M@JEHMIMFO@?$AAe?$AAn?$AA?9?$AAc?$AAa@ 00493e18     Stdafx.obj
 0002:00009e28       ??_C@_1M@IGMJCDLA@?$AAe?$AAn?$AA?9?$AAc?$AAb@ 00493e28     Stdafx.obj
 0002:00009e38       ??_C@_1M@BNFIGBKG@?$AAe?$AAn?$AA?9?$AAg?$AAb@ 00493e38     Stdafx.obj
 0002:00009e48       ??_C@_1M@LKIFDIGP@?$AAe?$AAn?$AA?9?$AAi?$AAe@ 00493e48     Stdafx.obj
 0002:00009e58       ??_C@_1M@PJKFGCCO@?$AAe?$AAn?$AA?9?$AAj?$AAm@ 00493e58     Stdafx.obj
 0002:00009e68       ??_C@_1M@KPPKEPBO@?$AAe?$AAn?$AA?9?$AAn?$AAz@ 00493e68     Stdafx.obj
 0002:00009e78       ??_C@_1M@GMDGLDOB@?$AAe?$AAn?$AA?9?$AAp?$AAh@ 00493e78     Stdafx.obj
 0002:00009e88       ??_C@_1M@ONGIBJNA@?$AAe?$AAn?$AA?9?$AAt?$AAt@ 00493e88     Stdafx.obj
 0002:00009e98       ??_C@_1M@LLODPCMM@?$AAe?$AAn?$AA?9?$AAu?$AAs@ 00493e98     Stdafx.obj
 0002:00009ea8       ??_C@_1M@LAKFNPAN@?$AAe?$AAn?$AA?9?$AAz?$AAa@ 00493ea8     Stdafx.obj
 0002:00009eb8       ??_C@_1M@MFNHNHEO@?$AAe?$AAn?$AA?9?$AAz?$AAw@ 00493eb8     Stdafx.obj
 0002:00009ec8       ??_C@_1M@EJEINPHM@?$AAe?$AAs?$AA?9?$AAa?$AAr@ 00493ec8     Stdafx.obj
 0002:00009ed8       ??_C@_1M@GNKPCCJA@?$AAe?$AAs?$AA?9?$AAb?$AAo@ 00493ed8     Stdafx.obj
 0002:00009ee8       ??_C@_1M@LEEGFONL@?$AAe?$AAs?$AA?9?$AAc?$AAl@ 00493ee8     Stdafx.obj
 0002:00009ef8       ??_C@_1M@KGPDPBDF@?$AAe?$AAs?$AA?9?$AAc?$AAo@ 00493ef8     Stdafx.obj
 0002:00009f08       ??_C@_1M@EIAHOHH@?$AAe?$AAs?$AA?9?$AAc?$AAr@ 00493f08     Stdafx.obj
 0002:00009f18       ??_C@_1M@LLPGMBIN@?$AAe?$AAs?$AA?9?$AAd?$AAo@ 00493f18     Stdafx.obj
 0002:00009f28       ??_C@_1M@DKHMKNJA@?$AAe?$AAs?$AA?9?$AAe?$AAc@ 00493f28     Stdafx.obj
 0002:00009f38       ??_C@_1M@GKGFPKAP@?$AAe?$AAs?$AA?9?$AAe?$AAs@ 00493f38     Stdafx.obj
 0002:00009f48       ??_C@_1M@LKHKGDLN@?$AAe?$AAs?$AA?9?$AAg?$AAt@ 00493f48     Stdafx.obj
 0002:00009f58       ??_C@_1M@HEIIGGJD@?$AAe?$AAs?$AA?9?$AAh?$AAn@ 00493f58     Stdafx.obj
 0002:00009f68       ??_C@_1M@FBDHPPGD@?$AAe?$AAs?$AA?9?$AAm?$AAx@ 00493f68     Stdafx.obj
 0002:00009f78       ??_C@_1M@DPAGLNDH@?$AAe?$AAs?$AA?9?$AAn?$AAi@ 00493f78     Stdafx.obj
 0002:00009f88       ??_C@_1M@MDGOPGDD@?$AAe?$AAs?$AA?9?$AAp?$AAa@ 00493f88     Stdafx.obj
 0002:00009f98       ??_C@_1M@EMAMGBGE@?$AAe?$AAs?$AA?9?$AAp?$AAe@ 00493f98     Stdafx.obj
 0002:00009fa8       ??_C@_1M@IBMCAOEC@?$AAe?$AAs?$AA?9?$AAp?$AAr@ 00493fa8     Stdafx.obj
 0002:00009fb8       ??_C@_1M@FGMDIJED@?$AAe?$AAs?$AA?9?$AAp?$AAy@ 00493fb8     Stdafx.obj
 0002:00009fc8       ??_C@_1M@IIDEOLLL@?$AAe?$AAs?$AA?9?$AAs?$AAv@ 00493fc8     Stdafx.obj
 0002:00009fd8       ??_C@_1M@GAOBIPA@?$AAe?$AAs?$AA?9?$AAu?$AAy@ 00493fd8     Stdafx.obj
 0002:00009fe8       ??_C@_1M@JKFFICHJ@?$AAe?$AAs?$AA?9?$AAv?$AAe@ 00493fe8     Stdafx.obj
 0002:00009ff8       ??_C@_1M@PNMLOJDF@?$AAe?$AAt?$AA?9?$AAe?$AAe@ 00493ff8     Stdafx.obj
 0002:0000a008       ??_C@_1M@GHHLIKEI@?$AAe?$AAu?$AA?9?$AAe?$AAs@ 00494008     Stdafx.obj
 0002:0000a018       ??_C@_1M@PBNONODE@?$AAf?$AAa?$AA?9?$AAi?$AAr@ 00494018     Stdafx.obj
 0002:0000a028       ??_C@_1M@JEEHPMIL@?$AAf?$AAi?$AA?9?$AAf?$AAi@ 00494028     Stdafx.obj
 0002:0000a038       ??_C@_1M@LMDCNDBA@?$AAf?$AAo?$AA?9?$AAf?$AAo@ 00494038     Stdafx.obj
 0002:0000a048       ??_C@_1M@JKEOHLDK@?$AAf?$AAr?$AA?9?$AAb?$AAe@ 00494048     Stdafx.obj
 0002:0000a058       ??_C@_1M@NOHADPMI@?$AAf?$AAr?$AA?9?$AAc?$AAa@ 00494058     Stdafx.obj
 0002:0000a068       ??_C@_1M@KDHIHAEC@?$AAf?$AAr?$AA?9?$AAc?$AAh@ 00494068     Stdafx.obj
 0002:0000a078       ??_C@_1M@MMBBFGAK@?$AAf?$AAr?$AA?9?$AAf?$AAr@ 00494078     Stdafx.obj
 0002:0000a088       ??_C@_1M@PAFNENNF@?$AAf?$AAr?$AA?9?$AAl?$AAu@ 00494088     Stdafx.obj
 0002:0000a098       ??_C@_1M@EOHDJGDD@?$AAf?$AAr?$AA?9?$AAm?$AAc@ 00494098     Stdafx.obj
 0002:0000a0a8       ??_C@_1M@FAPLLOPF@?$AAg?$AAl?$AA?9?$AAe?$AAs@ 004940a8     Stdafx.obj
 0002:0000a0b8       ??_C@_1M@FOPBFLOO@?$AAg?$AAu?$AA?9?$AAi?$AAn@ 004940b8     Stdafx.obj
 0002:0000a0c8       ??_C@_1M@KBMCINPM@?$AAh?$AAe?$AA?9?$AAi?$AAl@ 004940c8     Stdafx.obj
 0002:0000a0d8       ??_C@_1M@BBPHKFPJ@?$AAh?$AAi?$AA?9?$AAi?$AAn@ 004940d8     Stdafx.obj
 0002:0000a0e8       ??_C@_1M@PMBNDPHD@?$AAh?$AAr?$AA?9?$AAb?$AAa@ 004940e8     Stdafx.obj
 0002:0000a0f8       ??_C@_1M@BPCKOEGE@?$AAh?$AAr?$AA?9?$AAh?$AAr@ 004940f8     Stdafx.obj
 0002:0000a108       ??_C@_1M@GACBMHKE@?$AAh?$AAu?$AA?9?$AAh?$AAu@ 00494108     Stdafx.obj
 0002:0000a118       ??_C@_1M@MILPAJJC@?$AAh?$AAy?$AA?9?$AAa?$AAm@ 00494118     Stdafx.obj
 0002:0000a128       ??_C@_1M@BABBICEC@?$AAi?$AAd?$AA?9?$AAi?$AAd@ 00494128     Stdafx.obj
 0002:0000a138       ??_C@_1M@BIKNHHPF@?$AAi?$AAs?$AA?9?$AAi?$AAs@ 00494138     Stdafx.obj
 0002:0000a148       ??_C@_1M@NMPCJPHE@?$AAi?$AAt?$AA?9?$AAc?$AAh@ 00494148     Stdafx.obj
 0002:0000a158       ??_C@_1M@GHKGFEDF@?$AAi?$AAt?$AA?9?$AAi?$AAt@ 00494158     Stdafx.obj
 0002:0000a168       ??_C@_1M@NIEJCJJA@?$AAj?$AAa?$AA?9?$AAj?$AAp@ 00494168     Stdafx.obj
 0002:0000a178       ??_C@_1M@JILFNBIM@?$AAk?$AAa?$AA?9?$AAg?$AAe@ 00494178     Stdafx.obj
 0002:0000a188       ??_C@_1M@PACPMGPH@?$AAk?$AAk?$AA?9?$AAk?$AAz@ 00494188     Stdafx.obj
 0002:0000a198       ??_C@_1M@IELFGMHA@?$AAk?$AAn?$AA?9?$AAi?$AAn@ 00494198     Stdafx.obj
 0002:0000a1a8       ??_C@_1O@IBBJHCH@?$AAk?$AAo?$AAk?$AA?9?$AAi?$AAn@ 004941a8     Stdafx.obj
 0002:0000a1b8       ??_C@_1M@DMHAEOGC@?$AAk?$AAo?$AA?9?$AAk?$AAr@ 004941b8     Stdafx.obj
 0002:0000a1c8       ??_C@_1M@HBAHBIGA@?$AAk?$AAy?$AA?9?$AAk?$AAg@ 004941c8     Stdafx.obj
 0002:0000a1d8       ??_C@_1M@KPMILCJG@?$AAl?$AAt?$AA?9?$AAl?$AAt@ 004941d8     Stdafx.obj
 0002:0000a1e8       ??_C@_1M@BDEKKCA@?$AAl?$AAv?$AA?9?$AAl?$AAv@ 004941e8     Stdafx.obj
 0002:0000a1f8       ??_C@_1M@ELCKCCJJ@?$AAm?$AAi?$AA?9?$AAn?$AAz@ 004941f8     Stdafx.obj
 0002:0000a208       ??_C@_1M@CBOOLAPA@?$AAm?$AAk?$AA?9?$AAm?$AAk@ 00494208     Stdafx.obj
 0002:0000a218       ??_C@_1M@GPHNBJKN@?$AAm?$AAl?$AA?9?$AAi?$AAn@ 00494218     Stdafx.obj
 0002:0000a228       ??_C@_1M@PABJILIG@?$AAm?$AAn?$AA?9?$AAm?$AAn@ 00494228     Stdafx.obj
 0002:0000a238       ??_C@_1M@FGBKKIPG@?$AAm?$AAr?$AA?9?$AAi?$AAn@ 00494238     Stdafx.obj
 0002:0000a248       ??_C@_1M@NDBPDDAL@?$AAm?$AAs?$AA?9?$AAb?$AAn@ 00494248     Stdafx.obj
 0002:0000a258       ??_C@_1M@OPIHOOPI@?$AAm?$AAs?$AA?9?$AAm?$AAy@ 00494258     Stdafx.obj
 0002:0000a268       ??_C@_1M@PPDBCNFM@?$AAm?$AAt?$AA?9?$AAm?$AAt@ 00494268     Stdafx.obj
 0002:0000a278       ??_C@_1M@KDJDKMDD@?$AAn?$AAb?$AA?9?$AAn?$AAo@ 00494278     Stdafx.obj
 0002:0000a288       ??_C@_1M@KFCFLMJP@?$AAn?$AAl?$AA?9?$AAb?$AAe@ 00494288     Stdafx.obj
 0002:0000a298       ??_C@_1M@KPOPDDGO@?$AAn?$AAl?$AA?9?$AAn?$AAl@ 00494298     Stdafx.obj
 0002:0000a2a8       ??_C@_1M@LJKPEMLN@?$AAn?$AAn?$AA?9?$AAn?$AAo@ 004942a8     Stdafx.obj
 0002:0000a2b8       ??_C@_1M@BDGHHBFL@?$AAn?$AAs?$AA?9?$AAz?$AAa@ 004942b8     Stdafx.obj
 0002:0000a2c8       ??_C@_1M@IDEHOAP@?$AAp?$AAa?$AA?9?$AAi?$AAn@ 004942c8     Stdafx.obj
 0002:0000a2d8       ??_C@_1M@HDBKGOGH@?$AAp?$AAl?$AA?9?$AAp?$AAl@ 004942d8     Stdafx.obj
 0002:0000a2e8       ??_C@_1M@LJLLCMEH@?$AAp?$AAt?$AA?9?$AAb?$AAr@ 004942e8     Stdafx.obj
 0002:0000a2f8       ??_C@_1M@NCMONAAL@?$AAp?$AAt?$AA?9?$AAp?$AAt@ 004942f8     Stdafx.obj
 0002:0000a308       ??_C@_1O@EAKMAJDN@?$AAq?$AAu?$AAz?$AA?9?$AAb?$AAo@ 00494308     Stdafx.obj
 0002:0000a318       ??_C@_1O@BHHPIGDN@?$AAq?$AAu?$AAz?$AA?9?$AAe?$AAc@ 00494318     Stdafx.obj
 0002:0000a328       ??_C@_1O@GBAPEKMJ@?$AAq?$AAu?$AAz?$AA?9?$AAp?$AAe@ 00494328     Stdafx.obj
 0002:0000a338       ??_C@_1M@CLGLEFBO@?$AAr?$AAo?$AA?9?$AAr?$AAo@ 00494338     Stdafx.obj
 0002:0000a348       ??_C@_1M@CEEDODME@?$AAr?$AAu?$AA?9?$AAr?$AAu@ 00494348     Stdafx.obj
 0002:0000a358       ??_C@_1M@HPKKKMPP@?$AAs?$AAa?$AA?9?$AAi?$AAn@ 00494358     Stdafx.obj
 0002:0000a368       ??_C@_1M@BKMAIGOJ@?$AAs?$AAe?$AA?9?$AAf?$AAi@ 00494368     Stdafx.obj
 0002:0000a378       ??_C@_1M@NDPIFLFI@?$AAs?$AAe?$AA?9?$AAn?$AAo@ 00494378     Stdafx.obj
 0002:0000a388       ??_C@_1M@DANKKHJ@?$AAs?$AAe?$AA?9?$AAs?$AAe@ 00494388     Stdafx.obj
 0002:0000a398       ??_C@_1M@PNBLONPJ@?$AAs?$AAk?$AA?9?$AAs?$AAk@ 00494398     Stdafx.obj
 0002:0000a3a8       ??_C@_1M@LFMODOAL@?$AAs?$AAl?$AA?9?$AAs?$AAi@ 004943a8     Stdafx.obj
 0002:0000a3b8       ??_C@_1O@DFKOMPG@?$AAs?$AAm?$AAa?$AA?9?$AAn?$AAo@ 004943b8     Stdafx.obj
 0002:0000a3c8       ??_C@_1O@NDKPBNNH@?$AAs?$AAm?$AAa?$AA?9?$AAs?$AAe@ 004943c8     Stdafx.obj
 0002:0000a3d8       ??_C@_1O@PLLKBHAB@?$AAs?$AAm?$AAj?$AA?9?$AAn?$AAo@ 004943d8     Stdafx.obj
 0002:0000a3e8       ??_C@_1O@CLEPOGCA@?$AAs?$AAm?$AAj?$AA?9?$AAs?$AAe@ 004943e8     Stdafx.obj
 0002:0000a3f8       ??_C@_1O@DLGJGKMK@?$AAs?$AAm?$AAn?$AA?9?$AAf?$AAi@ 004943f8     Stdafx.obj
 0002:0000a408       ??_C@_1O@OJDJGAJC@?$AAs?$AAm?$AAs?$AA?9?$AAf?$AAi@ 00494408     Stdafx.obj
 0002:0000a418       ??_C@_1M@BOFOGHPB@?$AAs?$AAq?$AA?9?$AAa?$AAl@ 00494418     Stdafx.obj
 0002:0000a428       ??_C@_1BG@LJBBIPGB@?$AAs?$AAr?$AA?9?$AAb?$AAa?$AA?9?$AAc?$AAy?$AAr?$AAl@ 00494428     Stdafx.obj
 0002:0000a444       ??_C@_1BG@JLBENFOE@?$AAs?$AAr?$AA?9?$AAb?$AAa?$AA?9?$AAl?$AAa?$AAt?$AAn@ 00494444     Stdafx.obj
 0002:0000a460       ??_C@_1BG@KODPNHE@?$AAs?$AAr?$AA?9?$AAs?$AAp?$AA?9?$AAc?$AAy?$AAr?$AAl@ 00494460     Stdafx.obj
 0002:0000a47c       ??_C@_1BG@CIOGKHPB@?$AAs?$AAr?$AA?9?$AAs?$AAp?$AA?9?$AAl?$AAa?$AAt?$AAn@ 0049447c     Stdafx.obj
 0002:0000a498       ??_C@_1M@NGFJLMAC@?$AAs?$AAv?$AA?9?$AAf?$AAi@ 00494498     Stdafx.obj
 0002:0000a4a8       ??_C@_1M@MPJEJAJC@?$AAs?$AAv?$AA?9?$AAs?$AAe@ 004944a8     Stdafx.obj
 0002:0000a4b8       ??_C@_1M@MPNDHLFK@?$AAs?$AAw?$AA?9?$AAk?$AAe@ 004944b8     Stdafx.obj
 0002:0000a4c8       ??_C@_1O@KOHBJJI@?$AAs?$AAy?$AAr?$AA?9?$AAs?$AAy@ 004944c8     Stdafx.obj
 0002:0000a4d8       ??_C@_1M@LDCEFHA@?$AAt?$AAa?$AA?9?$AAi?$AAn@ 004944d8     Stdafx.obj
 0002:0000a4e8       ??_C@_1M@CNJOFAK@?$AAt?$AAe?$AA?9?$AAi?$AAn@ 004944e8     Stdafx.obj
 0002:0000a4f8       ??_C@_1M@GNAECACD@?$AAt?$AAh?$AA?9?$AAt?$AAh@ 004944f8     Stdafx.obj
 0002:0000a508       ??_C@_1M@CHBIHOJO@?$AAt?$AAn?$AA?9?$AAz?$AAa@ 00494508     Stdafx.obj
 0002:0000a518       ??_C@_1M@GCCMIGPJ@?$AAt?$AAr?$AA?9?$AAt?$AAr@ 00494518     Stdafx.obj
 0002:0000a528       ??_C@_1M@CELMCNBK@?$AAt?$AAt?$AA?9?$AAr?$AAu@ 00494528     Stdafx.obj
 0002:0000a538       ??_C@_1M@KLMCELGA@?$AAu?$AAk?$AA?9?$AAu?$AAa@ 00494538     Stdafx.obj
 0002:0000a548       ??_C@_1M@EPAJJAJF@?$AAu?$AAr?$AA?9?$AAp?$AAk@ 00494548     Stdafx.obj
 0002:0000a558       ??_C@_1BG@GEGPMCDJ@?$AAu?$AAz?$AA?9?$AAu?$AAz?$AA?9?$AAc?$AAy?$AAr?$AAl@ 00494558     Stdafx.obj
 0002:0000a574       ??_C@_1BG@EGGKJILM@?$AAu?$AAz?$AA?9?$AAu?$AAz?$AA?9?$AAl?$AAa?$AAt?$AAn@ 00494574     Stdafx.obj
 0002:0000a590       ??_C@_1M@GFOCLFF@?$AAv?$AAi?$AA?9?$AAv?$AAn@ 00494590     Stdafx.obj
 0002:0000a5a0       ??_C@_1M@CPAMEDFI@?$AAx?$AAh?$AA?9?$AAz?$AAa@ 004945a0     Stdafx.obj
 0002:0000a5b0       ??_C@_1O@EBKIFIGN@?$AAz?$AAh?$AA?9?$AAc?$AAh?$AAs@ 004945b0     Stdafx.obj
 0002:0000a5c0       ??_C@_1O@NMHPGANE@?$AAz?$AAh?$AA?9?$AAc?$AAh?$AAt@ 004945c0     Stdafx.obj
 0002:0000a5d0       ??_C@_1M@LPINJOMC@?$AAz?$AAh?$AA?9?$AAc?$AAn@ 004945d0     Stdafx.obj
 0002:0000a5e0       ??_C@_1M@OCJEJODD@?$AAz?$AAh?$AA?9?$AAh?$AAk@ 004945e0     Stdafx.obj
 0002:0000a5f0       ??_C@_1M@DNDLJINH@?$AAz?$AAh?$AA?9?$AAm?$AAo@ 004945f0     Stdafx.obj
 0002:0000a600       ??_C@_1M@MBFDNDND@?$AAz?$AAh?$AA?9?$AAs?$AAg@ 00494600     Stdafx.obj
 0002:0000a610       ??_C@_1M@IMEPLEPE@?$AAz?$AAh?$AA?9?$AAt?$AAw@ 00494610     Stdafx.obj
 0002:0000a620       ??_C@_1M@BBGHNHJP@?$AAz?$AAu?$AA?9?$AAz?$AAa@ 00494620     Stdafx.obj
 0002:0000a630       ?szInvalidDateTime@ATL@@3QBDB 00494630     Stdafx.obj
 0002:0000a634       ??_C@_0BB@KEKMKJPM@Invalid?5DateTime@ 00494634     Stdafx.obj
 0002:0000a648       ?szInvalidDateTimeSpan@ATL@@3QBDB 00494648     Stdafx.obj
 0002:0000a64c       ??_C@_0BF@GPPHKJFN@Invalid?5DateTimeSpan@ 0049464c     Stdafx.obj
 0002:0000a668       _CLSID_Registrar           00494668     Stdafx.obj
 0002:0000a67c       _IID_IRegistrar            0049467c     Stdafx.obj
 0002:0000a690       _IID_IDocHostUIHandlerDispatch 00494690     Stdafx.obj
 0002:0000a6a4       _IID_IAxWinHostWindow      004946a4     Stdafx.obj
 0002:0000a6b8       _IID_IAxWinHostWindowLic   004946b8     Stdafx.obj
 0002:0000a6cc       _IID_IAxWinAmbientDispatch 004946cc     Stdafx.obj
 0002:0000a6e0       _IID_IAxWinAmbientDispatchEx 004946e0     Stdafx.obj
 0002:0000a6f4       _IID_IInternalConnection   004946f4     Stdafx.obj
 0002:0000a708       _LIBID_ATLLib              00494708     Stdafx.obj
 0002:0000a71b       ?chDirSep@ATL@@3DB         0049471b     Stdafx.obj
 0002:0000a71c       ?chRightBracket@ATL@@3DB   0049471c     Stdafx.obj
 0002:0000a71d       ?chLeftBracket@ATL@@3DB    0049471d     Stdafx.obj
 0002:0000a71e       ?chQuote@ATL@@3DB          0049471e     Stdafx.obj
 0002:0000a71f       ?chEquals@ATL@@3DB         0049471f     Stdafx.obj
 0002:0000a720       ?szStringVal@ATL@@3QBDB    00494720     Stdafx.obj
 0002:0000a724       ??_C@_01CPLAODJH@S@        00494724     Stdafx.obj
 0002:0000a728       ?multiszStringVal@ATL@@3QBDB 00494728     Stdafx.obj
 0002:0000a72c       ??_C@_01PLPBNMEI@M@        0049472c     Stdafx.obj
 0002:0000a730       ?szDwordVal@ATL@@3QBDB     00494730     Stdafx.obj
 0002:0000a734       ??_C@_01CKDDGHAB@D@        00494734     Stdafx.obj
 0002:0000a738       ?szBinaryVal@ATL@@3QBDB    00494738     Stdafx.obj
 0002:0000a73c       ??_C@_01HMGJMAIH@B@        0049473c     Stdafx.obj
 0002:0000a740       ?szValToken@ATL@@3QBDB     00494740     Stdafx.obj
 0002:0000a744       ??_C@_03LAIAPFCB@Val@      00494744     Stdafx.obj
 0002:0000a748       ?szForceRemove@ATL@@3QBDB  00494748     Stdafx.obj
 0002:0000a74c       ??_C@_0M@DBGDLGLL@ForceRemove@ 0049474c     Stdafx.obj
 0002:0000a75c       ?szNoRemove@ATL@@3QBDB     0049475c     Stdafx.obj
 0002:0000a760       ??_C@_08KAAPDIAN@NoRemove@ 00494760     Stdafx.obj
 0002:0000a76c       ?szDelete@ATL@@3QBDB       0049476c     Stdafx.obj
 0002:0000a770       ??_C@_06JBKGCNBB@Delete@   00494770     Stdafx.obj
 0002:0000a778       _c_DwmMaxQueuedBuffers     00494778     Stdafx.obj
 0002:0000a77c       _c_DwmMaxMonitors          0049477c     Stdafx.obj
 0002:0000a780       _c_DwmMaxAdapters          00494780     Stdafx.obj
 0002:0000a784       ?CLSID_WinFormsControl@@3U_GUID@@B 00494784     Stdafx.obj
 0002:0000a8a4       ??_C@_13COJANIEC@?$AA0@    004948a4     Stdafx.obj
 0002:0000a8a8       ??_C@_0BA@MKMIKKJB@atlTraceGeneral@ 004948a8     Stdafx.obj
 0002:0000a8bc       ??_C@_0M@DGPFJEBB@atlTraceCOM@ 004948bc     Stdafx.obj
 0002:0000a8cc       ??_C@_0L@LHELAKBP@atlTraceQI@ 004948cc     Stdafx.obj
 0002:0000a8dc       ??_C@_0BC@MALHFBAO@atlTraceRegistrar@ 004948dc     Stdafx.obj
 0002:0000a8f4       ??_C@_0BB@ILPPDKFL@atlTraceRefcount@ 004948f4     Stdafx.obj
 0002:0000a908       ??_C@_0BC@DGHHNKDC@atlTraceWindowing@ 00494908     Stdafx.obj
 0002:0000a920       ??_C@_0BB@GHKJKKIE@atlTraceControls@ 00494920     Stdafx.obj
 0002:0000a934       ??_C@_0BA@DKOAAGGM@atlTraceHosting@ 00494934     Stdafx.obj
 0002:0000a948       ??_C@_0BB@BEBMGMDO@atlTraceDBClient@ 00494948     Stdafx.obj
 0002:0000a95c       ??_C@_0BD@KOADKDIA@atlTraceDBProvider@ 0049495c     Stdafx.obj
 0002:0000a974       ??_C@_0P@LNEGBOLO@atlTraceSnapin@ 00494974     Stdafx.obj
 0002:0000a988       ??_C@_0BA@MCBFIDIC@atlTraceNotImpl@ 00494988     Stdafx.obj
 0002:0000a99c       ??_C@_0BD@PJPCCAKP@atlTraceAllocation@ 0049499c     Stdafx.obj
 0002:0000a9b4       ??_C@_0N@BNNILHBE@atlTraceTime@ 004949b4     Stdafx.obj
 0002:0000a9c4       ??_C@_0O@MEOJAOKK@atlTraceCache@ 004949c4     Stdafx.obj
 0002:0000a9d4       ??_C@_0BA@IDBKCKK@atlTraceStencil@ 004949d4     Stdafx.obj
 0002:0000a9e8       ??_C@_0M@IOBBMAHG@atlTraceMap@ 004949e8     Stdafx.obj
 0002:0000a9f8       ??_C@_0N@FEAAACHD@atlTraceUtil@ 004949f8     Stdafx.obj
 0002:0000aa08       ??_C@_0BB@DNJDADMG@atlTraceSecurity@ 00494a08     Stdafx.obj
 0002:0000aa1c       ??_C@_0N@KLPNCFEE@atlTraceSync@ 00494a1c     Stdafx.obj
 0002:0000aa2c       ??_C@_0O@KHOBHOBJ@atlTraceISAPI@ 00494a2c     Stdafx.obj
 0002:0000aa40       ??_7CWin32Heap@ATL@@6B@    00494a40     Stdafx.obj
 0002:0000aa58       ??_C@_1BG@CLPBKBHG@?$AAh?$AAH?$AAe?$AAa?$AAp?$AA?5?$AA?$CB?$AA?$DN?$AA?5?$AA0@ 00494a58     Stdafx.obj
 0002:0000aa78       ??_C@_1OA@FNEDKMNI@?$AAc?$AA?3?$AA?2?$AAp?$AAr?$AAo?$AAg?$AAr?$AAa?$AAm?$AA?5?$AAf?$AAi?$AAl?$AAe@ 00494a78     Stdafx.obj
 0002:0000ab84       ??_C@_1BC@PMINONJG@?$AAb?$AAS?$AAu?$AAc?$AAc?$AAe?$AAs?$AAs@ 00494b84     Stdafx.obj
 0002:0000ab9c       ??_C@_1BE@BLGCOAPB@?$AAn?$AAR?$AAe?$AAf?$AAs?$AA?5?$AA?$DO?$AA?5?$AA0@ 00494b9c     Stdafx.obj
 0002:0000abb8       ??_C@_1OI@LKICOBAJ@?$AAc?$AA?3?$AA?2?$AAp?$AAr?$AAo?$AAg?$AAr?$AAa?$AAm?$AA?5?$AAf?$AAi?$AAl?$AAe@ 00494bb8     Stdafx.obj
 0002:0000acd0       ??_C@_1CA@MEFFJNJ@?$AAp?$AAS?$AAt?$AAr?$AAi?$AAn?$AAg?$AAM?$AAg?$AAr?$AA?5?$AA?$DN?$AA?$DN?$AA?5?$AA0@ 00494cd0     Stdafx.obj
 0002:0000acf8       ??_C@_1OC@KJBACLGD@?$AAc?$AA?3?$AA?2?$AAp?$AAr?$AAo?$AAg?$AAr?$AAa?$AAm?$AA?5?$AAf?$AAi?$AAl?$AAe@ 00494cf8     Stdafx.obj
 0002:0000ae08       ??_C@_0HB@FHIMFEIJ@c?3?2program?5files?5?$CIx86?$CJ?2microsof@ 00494e08     Stdafx.obj
 0002:0000ae90       ??_C@_0EA@EJEMLPD@ERROR?5?3?5Unable?5to?5initialize?5cr@ 00494e90     Stdafx.obj
 0002:0000aee0       ??_C@_0ED@GFNHMOFC@ERROR?5?3?5Unable?5to?5initialize?5cr@ 00494ee0     Stdafx.obj
 0002:0000af34       ??_7CAtlStringMgr@ATL@@6B@ 00494f34     Stdafx.obj
 0002:0000af58       ??_C@_1OA@NFJNFLGL@?$AAc?$AA?3?$AA?2?$AAp?$AAr?$AAo?$AAg?$AAr?$AAa?$AAm?$AA?5?$AAf?$AAi?$AAl?$AAe@ 00494f58     Stdafx.obj
 0002:0000b064       ??_C@_1BG@IEBIBJEI@?$AAp?$AAD?$AAa?$AAt?$AAa?$AA?5?$AA?$CB?$AA?$DN?$AA?5?$AA0@ 00495064     Stdafx.obj
 0002:0000b080       ??_C@_1DE@KEEBDKDC@?$AAp?$AAD?$AAa?$AAt?$AAa?$AA?9?$AA?$DO?$AAp?$AAS?$AAt?$AAr?$AAi?$AAn?$AAg?$AAM@ 00495080     Stdafx.obj
 0002:0000b0c0       ??_C@_0GI@LKBGDILM@c?3?2program?5files?5?$CIx86?$CJ?2microsof@ 004950c0     Stdafx.obj
 0002:0000b140       ??_C@_0GI@DJFLDKBN@c?3?2program?5files?5?$CIx86?$CJ?2microsof@ 00495140     Stdafx.obj
 0002:0000b1bc       ??_C@_0N@LPFKKEBD@?3AM?3am?3PM?3pm@ 004951bc     Stdafx.obj
 0002:0000b1d0       ??_C@_1EA@JHMKKLFC@?$AAn?$AAI?$AAn?$AAd?$AAe?$AAx?$AA?5?$AA?$DO?$AA?$DN?$AA?5?$AA0?$AA?5?$AA?$CG?$AA?$CG?$AA?5@ 004951d0     Stdafx.obj
 0002:0000b220       ??_C@_1OK@GILLOEON@?$AAc?$AA?3?$AA?2?$AAp?$AAr?$AAo?$AAg?$AAr?$AAa?$AAm?$AA?5?$AAf?$AAi?$AAl?$AAe@ 00495220     Stdafx.obj
 0002:0000b338       ??_C@_1BK@MHIKGOKE@?$AA?3?$AAA?$AAM?$AA?3?$AAa?$AAm?$AA?3?$AAP?$AAM?$AA?3?$AAp?$AAm@ 00495338     Stdafx.obj
 0002:0000b434       ??_C@_0BG@LDDEPHLF@open?5?$CK?$CK?$CK?5?H?U?V?$LO?P?E?O?$KC?5?$CFs?5@ 00495434     TableFrame.obj
 0002:0000b450       ??_C@_0BD@DCGNBEMB@?$CFd?9?$CFd?9?$CFd?9?$CFd?3?5?$CFs?5?$AN?6@ 00495450     TableFrame.obj
 0002:0000b468       ??_C@_03GGEOLGBL@Log@      00495468     TableFrame.obj
 0002:0000b46c       ??_C@_0BM@MPGOOIFH@Log?1?1?$CFd?9?$CFd?9?$CFd?9ServerLog?4txt@ 0049546c     TableFrame.obj
 0002:0000b490       ??_C@_0N@LMHKOMJJ@openfile?5?5?$CFs@ 00495490     TableFrame.obj
 0002:0000b4a0       ??_C@_03HIKJINGA@at?$CL@   004954a0     TableFrame.obj
 0002:0000b4a4       ??_C@_0BG@FGDEEIKF@openfile?5?$LE?r?$LP?$KK?N?D?$LM?$PO?$LD?I?$LJ?$KG@ 004954a4     TableFrame.obj
 0002:0000b4c0       ??_C@_0BG@FNDGHLBI@openfile?5?$LE?r?$LP?$KK?N?D?$LM?$PO?$LE?m?N?s@ 004954c0     TableFrame.obj
 0002:0000b4e0       ??_7ITableFrame@@6B@       004954e0     TableFrame.obj
 0002:0000b640       ??_7ICompilationSink@@6B@  00495640     TableFrame.obj
 0002:0000b654       ??_7?$CWHArray@PAUIServerUserItem@@ABQAU1@@@6B@ 00495654     TableFrame.obj
 0002:0000b660       ??_7?$CWHArray@PAUtagGameScoreRecord@@ABQAU1@@@6B@ 00495660     TableFrame.obj
 0002:0000b66c       ??_7?$CMap@KK_JAA_J@@6B@   0049566c     TableFrame.obj
 0002:0000b688       ??_7CTableFrame@@6BITableFrame@@@ 00495688     TableFrame.obj
 0002:0000b844       ??_7CTableFrame@@6BICompilationSink@@@ 00495844     TableFrame.obj
 0002:0000b854       ??_C@_0CF@EPBEDFME@?D?z?$LF?D?S?N?O?$LH?$LB?R?I?Y?S?Z?5?$CFI64d?$KD?$KM?$LC?$LL?D?$NM?$LM?L?P?x?S@ 00495854     TableFrame.obj
 0002:0000b880       ??_C@_0CH@OPGIFPHK@?D?z?$LF?D?S?N?O?$LH?$LL?$PN?$LH?V?I?Y?S?Z?5?$CFI64d?$KD?$KM?$LC?$LL?D?$NM?$LM?L?P@ 00495880     TableFrame.obj
 0002:0000b8b0       ??_C@_0CN@COMBKMFK@?S?I?S?Z?O?$LF?M?$LD?N?$KM?$LL?$KE?$KD?$KM?$LF?$LB?G?$LA?S?N?O?$LH?W?$MA?W?S?$LN?$PL?V?$LJ?S@ 004958b0     TableFrame.obj
 0002:0000b8e8       ??_C@_0CL@IKLNOEBJ@?$FL?5?$CFs?5?$FN?5?J?$LJ?S?C?A?K?$FL?5?K?D?$LB?$LG?$LL?$PN?$LH?V?$LP?$KI?5?$FN?$KD?$KM?$LF?C@ 004958e8     TableFrame.obj
 0002:0000b91c       ??_C@_0CI@KNPBKMHB@?$FL?5?$CFs?5?$FN?5?J?$LJ?S?C?A?K?$FL?5?K?$KL?$LB?$LG?$LL?$PN?$LH?V?$LP?$KI?5?$FN?$KD?$KM?$LF?C@ 0049591c     TableFrame.obj
 0002:0000b94c       ??_C@_0CG@BJIOFAKH@?$FL?5?$CFs?5?$FN?5?J?$LJ?S?C?A?K?$FL?5?$LL?$KE?I?m?$LH?$PL?$LP?$KI?5?$FN?$KD?$KM?$LL?$PN?$LH?V@ 0049594c     TableFrame.obj
 0002:0000b97c       ??_C@_0BF@OJEHDHNG@?S?N?O?$LH?$LM?G?B?$LM?$LG?T?O?s?$LE?$LE?$LN?$KI?J?$KH?$LA?$NM@ 0049597c     TableFrame.obj
 0002:0000b998       ??_C@_0CB@FGILIJGK@?$LB?$KH?G?$LI?$KD?$KM?$LF?$LB?G?$LA?S?N?O?$LH?$LH?$LP?$LM?d?$LN?$PL?V?$LJ?S?N?O?$LH?A?D?L?l?$KD@ 00495998     TableFrame.obj
 0002:0000b9c0       ??_C@_0DN@HGHCIEG@?$LB?$KH?G?$LI?$KD?$KM?D?z?C?$LL?S?P?S?N?O?$LH?A?D?L?l?$LF?D?H?$KI?O?$NO?$KD?$KM?H?t?P@ 004959c0     TableFrame.obj
 0002:0000ba0c       ??_C@_0BJ@BFEPDGOK@?$LH?$LP?$LM?d?$LL?$LJ?N?$LE?$LE?$LE?$LN?$KI?$KD?$KM?N?$NO?$LH?$KI?$LN?x?H?k?$KD?$KB@ 00495a0c     TableFrame.obj
 0002:0000ba2c       ??_C@_0N@PEOJOPIF@?$LH?$LP?$LM?d?R?Q?$LO?$KN?$LN?b?I?$KC@ 00495a2c     TableFrame.obj
 0002:0000ba3c       ??_C@_0CF@IEAHKEDO@?$LL?$LG?S?$KN?D?z?$LN?x?H?k?$KB?$LA?$CFs?$KB?$LB?S?N?O?$LH?$KD?$KM?W?$KD?D?z?S?N?O?$LH?S@ 00495a3c     TableFrame.obj
 0002:0000ba68       ??_C@_0BL@FDDKLKIA@?O?$LF?M?$LD?V?X?P?B?$LH?V?E?d?W?$MA?W?S?$KD?$KM?G?k?I?T?$LK?s?$KD?$KB@ 00495a68     TableFrame.obj
 0002:0000ba88       ??_C@_0BF@FCLAICIB@?$CFs?2PersonalTable?4ini@ 00495a88     TableFrame.obj
 0002:0000baa4       ??_C@_0P@OOPDANCH@PlayerWaitTime@ 00495aa4     TableFrame.obj
 0002:0000bab8       ??_C@_0BD@EHGOMFHF@TableOwnerWaitTime@ 00495ab8     TableFrame.obj
 0002:0000bad0       ??_C@_0BC@JKMCHJPE@GameStartOverTime@ 00495ad0     TableFrame.obj
 0002:0000bae8       ??_C@_0DB@BACGKDF@?$LM?$LE?J?$LB?H?$PM?V?P?$LD?v?O?V?M?f?$LM?R?3?5?$CFd?F?p?A?$KC?J?$LB?W?$LE?L?$KM?N@ 00495ae8     TableFrame.obj
 0002:0000bb24       ??_C@_0BP@LMDGPNLB@?$LE?K?S?N?O?$LH?W?$MA?$LF?D?K?y?S?P?M?f?$LM?R?R?Q?$LO?$KN?$MA?k?$LP?$KK?A?K?$KD?$KB@ 00495b24     TableFrame.obj
 0002:0000bb4c       ??_C@_0CH@CEHEIJKA@?S?I?M?f?$LM?R?$MA?k?$LP?$KK?$KD?$KM?O?$LF?M?$LD?V?X?P?B?$LH?V?E?d?W?$MA?W?S?$KD?$KM?G@ 00495b4c     TableFrame.obj
 0002:0000bb7c       ??_C@_0BD@IPFJJGIH@?T?$LM?U?$LN?$LH?$LP?$KD?$KM?$LC?$LL?D?$NM?E?T?$LJ?$NL?$KD?$KB@ 00495b7c     TableFrame.obj
 0002:0000bb94       ??_C@_0CD@MNPNNHIG@?S?N?O?$LH?$LL?$LJ?C?$LL?S?P?$LP?$KK?J?$LM?$KD?$KM?$LC?$LL?D?$NM?E?T?$LJ?$NL?$LE?K?S?N?O?$LH?W@ 00495b94     TableFrame.obj
 0002:0000bbc0       ??_C@_0CB@EHMDHMJJ@?$LB?$KH?G?$LI?$KD?$KM?$LF?$LB?G?$LA?S?N?O?$LH?W?$MA?W?S?$LN?$PL?V?$LJ?S?C?$LL?$KH?E?T?$LJ?$NL?$KD@ 00495bc0     TableFrame.obj
 0002:0000bbe8       ??_C@_0CB@NJNGCIAH@?$LB?$KH?G?$LI?$KD?$KM?$LF?$LB?G?$LA?S?N?O?$LH?$LH?$LP?$LM?d?$LN?$PL?V?$LJ?S?C?$LL?$KH?E?T?$LJ?$NL?$KD@ 00495be8     TableFrame.obj
 0002:0000bc10       ??_C@_0CN@JOFFIFMN@?D?z?K?y?G?k?G?s?$LF?D?N?$LL?V?C?C?$LL?S?P?S?N?O?$LH?M?f?$LM?R?$KD?$KM?N?$NO?$LH@ 00495c10     TableFrame.obj
 0002:0000bc48       ??_C@_0CF@GJHCGP@?S?N?O?$LH?W?$MA?$LN?x?H?k?C?$NM?B?k?$LC?$LL?U?$PN?H?$LH?$KD?$KM?$LC?$LL?D?$NM?E?T?$LJ?$NL?S@ 00495c48     TableFrame.obj
 0002:0000bc74       ??_C@_0BE@NAFGAAOB@?T?$LM?U?$LN?$LH?$LP?$LM?d?R?Q?$LO?$KN?$LN?b?I?$KC1?$KD?$KB@ 00495c74     TableFrame.obj
 0002:0000bc8c       ??_C@_0BE@MCODKPAP@?T?$LM?U?$LN?$LH?$LP?$LM?d?R?Q?$LO?$KN?$LN?b?I?$KC2?$KD?$KB@ 00495c8c     TableFrame.obj
 0002:0000bca4       ??_C@_0DB@MOHGBBK@?R?N?W?S?R?Q?$LO?$KN?$LB?$LL?5?$FL?5?$CFs?5?$FN?5?$LN?$NN?W?c?O?H?$LF?G?A?K?$KD?$KM?O@ 00495ca4     TableFrame.obj
 0002:0000bce0       ??_C@_0CH@KFMNDNLD@?D?z?$LF?D?W?j?J?$KP?J?$PN?A?$LP?I?Y?S?Z?5?$CFI64d?$KD?$KM?$LC?$LL?D?$NM?$LM?L?P@ 00495ce0     TableFrame.obj
 0002:0000bd10       ??_C@_0BF@JFHBNNDB@?$LB?$KH?G?$LI?$KD?$KM?T?$LM?U?$LN?R?Q?$LO?$KN?$LP?$KK?J?$LM?$KD?$KB@ 00495d10     TableFrame.obj
 0002:0000bd30       ??_C@_0HC@EGIPEGNE@userid?5?$DN?5?$CFd?5?5m_wChairCount?5?$DN?5?$CFd@ 00495d30     TableFrame.obj
 0002:0000bdb8       ??_C@_0BN@KGKBJPME@?$LB?$KH?G?$LI?$KD?$KM?$LF?$LB?G?$LA?S?N?O?$LH?W?$MA?W?S?H?K?J?$PN?R?Q?B?z?$KD?$KB@ 00495db8     TableFrame.obj
 0002:0000bddc       ??_C@_0CB@NMLDBGEG@?$LB?$KH?G?$LI?$KD?$KM?$LF?$LB?G?$LA?S?N?O?$LH?W?$MA?W?S?$LN?$PL?V?$LJ?S?C?$LL?$KH?$LN?x?H?k?$KD@ 00495ddc     TableFrame.obj
 0002:0000be04       ??_C@_0CF@NFDLJKEK@?S?N?O?$LH?R?Q?$LO?$KN?$LP?$KK?J?$LM?A?K?$KD?$KM?O?V?T?Z?$LC?$LL?D?$NM?$LN?x?H?k?S?N?O@ 00495e04     TableFrame.obj
 0002:0000be30       ??_C@_0BE@MONKBGOO@?C?$NM?B?k?$LB?$LL?J?$LJ?S?C?0?R?Q?$LJ?$PN?F?Z?$KD?$KB@ 00495e30     TableFrame.obj
 0002:0000be48       ??_C@_0BP@OBBKOCFP@?$LH?$LP?$LM?d?C?$NM?B?k?$LC?$LL?U?$PN?H?$LH?$KD?$KM?$LC?$LL?D?$NM?$LM?S?H?k?S?N?O?$LH?$KD?$KB@ 00495e48     TableFrame.obj
 0002:0000be70       ??_C@_0CF@FMPIBIL@?S?N?O?$LH?W?$MA?$LN?x?H?k?C?$NM?B?k?$LC?$LL?U?$PN?H?$LH?$KD?$KM?$LC?$LL?D?$NM?$LM?S?H?k?S@ 00495e70     TableFrame.obj
 0002:0000bea0       ??_C@_0FP@HJKNBJDK@?$LE?K?S?N?O?$LH?W?$MA?M?f?$LM?R?I?h?V?C?A?K?$LC?$LL?$LI?z?O?$OA?M?$KM?5IP?5?$LF@ 00495ea0     TableFrame.obj
 0002:0000bf18       ??_C@_0FH@GMPNLGDP@?D?z?I?h?V?C?A?K?$LC?$LL?$LI?z?O?$OA?M?$KM?5IP?5?$LF?X?V?$LH?$LF?D?M?f?$LM?R?S@ 00495f18     TableFrame.obj
 0002:0000bf80       ??_C@_0FD@FJCGPGNB@?D?z?I?h?V?C?A?K?$LC?$LL?$LI?z?O?$OA?M?$KM?5IP?5?$LF?X?V?$LH?$LF?D?M?f?$LM?R?S@ 00495f80     TableFrame.obj
 0002:0000bfe4       ??_C@_0DF@OLOBDEEC@?D?z?$LF?D?L?S?E?$NM?B?J?L?$KL?$LI?$NP?$KD?$KM?S?k?5?$CFs?5?I?h?V?C?$LF?D?I?h?V@ 00495fe4     TableFrame.obj
 0002:0000c024       ??_C@_0DD@KCKDKCBH@?D?z?$LF?D?J?$KE?B?J?L?$KL?$LF?M?$KD?$KM?S?k?5?$CFs?5?I?h?V?C?$LF?D?I?h?V?C?$LC@ 00496024     TableFrame.obj
 0002:0000c064       ??_C@_0DD@ILLHEC@?D?z?$LF?D?$LL?$PN?$LH?V?L?$KL?$LI?$NP?$KD?$KM?S?k?5?$CFs?5?I?h?V?C?$LF?D?I?h?V?C?$LC@ 00496064     TableFrame.obj
 0002:0000c0a4       ??_C@_0DD@KCEHNENI@?D?z?$LF?D?$LL?$PN?$LH?V?L?$KL?$LF?M?$KD?$KM?S?k?5?$CFs?5?I?h?V?C?$LF?D?I?h?V?C?$LC@ 004960a4     TableFrame.obj
 0002:0000c0e4       ??_C@_0DM@HLIDKABO@?$LM?S?H?k?S?N?O?$LH?V?A?I?Y?P?h?R?$KK?5?$CFI64d?5?$LF?D?S?N?O?$LH?$LB?R@ 004960e4     TableFrame.obj
 0002:0000c12c       ??_C@_0DM@LGDJKEOB@?$LM?S?H?k?S?N?O?$LH?V?A?I?Y?P?h?R?$KK?5?$CFI64d?5?$LF?D?$LB?H?H?$PM?$LB?R@ 0049612c     TableFrame.obj
 0002:0000c174       ??_C@_0DM@NJICMNBB@?$LM?S?H?k?S?N?O?$LH?V?A?I?Y?P?h?R?$KK?5?$CFI64d?5?$LF?D?S?N?O?$LH?$LL?$PN@ 00496174     TableFrame.obj
 0002:0000c1bc       ??_C@_0DD@NAIKEGDD@ptdtjs?5?$CK?$CK?$CK?5?O?r?5UserID?5?$DN?5?$CFd?5?5?5Nic@ 004961bc     TableFrame.obj
 0002:0000c1fc       ??_C@_0DG@JDEJHMNA@ptdtcs?5?$CK?$CK?$CK?$CK?5?5kill?5?5?5IDI_PERSONA@ 004961fc     TableFrame.obj
 0002:0000c23c       ??_C@_0BN@OELOPBKB@?M?f?$LM?R?I?j?G?k?$LN?b?I?$KC?$KD?$KM?S?N?O?$LH?L?a?G?$LA?$LN?a?J?x?$KD?$KB@ 0049623c     TableFrame.obj
 0002:0000c260       ??_C@_0L@INAKIJJF@?T?$LM?U?$LN?$LN?a?J?x?$KB?$KD@ 00496260     TableFrame.obj
 0002:0000c270       ??_C@_0BD@HIPNDJBM@?$LH?$LP?V?w?G?$LP?V?F?$LN?b?I?$KC?S?N?O?$LH?$KD?$KB@ 00496270     TableFrame.obj
 0002:0000c288       ??_C@_0P@IHBJCBPJ@?S?N?O?$LH?W?T?$LG?$KP?$LN?b?I?$KC?$KD?$KB@ 00496288     TableFrame.obj
 0002:0000c29c       ??_C@_0O@JKAFBCMB@CreateActCtxW@ 0049629c     mfcs140d:nolib.obj
 0002:0000c2ac       ??_C@_0P@CECBPMJL@ActivateActCtx@ 004962ac     mfcs140d:nolib.obj
 0002:0000c2c0       ??_C@_0BB@NPIOCCPF@DeactivateActCtx@ 004962c0     mfcs140d:nolib.obj
 0002:0000c2d4       ??_C@_0BJ@MGNMALIC@FindActCtxSectionStringW@ 004962d4     mfcs140d:nolib.obj
 0002:0000c2f4       ??_C@_0N@IMINIHMJ@QueryActCtxW@ 004962f4     mfcs140d:nolib.obj
 0002:0000c304       ??_C@_0BD@GIGEJCNH@GetModuleHandleExW@ 00496304     mfcs140d:nolib.obj
 0002:0000c31c       ??_C@_1BK@BFMCNHEO@?$AAC?$AAo?$AAm?$AAc?$AAt?$AAl?$AA3?$AA2?$AA?4?$AAd?$AAl?$AAl@ 0049631c     mfcs140d:nolib.obj
 0002:0000c33c       ?debugString@?4??IsolationAwarePrivatenPgViNgRzlnPgpgk@@9@4@4QBDB 0049633c     mfcs140d:nolib.obj
 0002:0000c384       ?c@?1??WinbaseIsolationAwarePrivatetRgCebPnQQeRff_xReaRYQP_QYY@@9@4@4UIsolationAwarePrivate_pBAFGnAG_zBqHyr_vAsB@@B 00496384     mfcs140d:nolib.obj
 0002:0000c398       ??_C@_1BK@EJBALEBG@?$AAK?$AAe?$AAr?$AAn?$AAe?$AAl?$AA3?$AA2?$AA?4?$AAd?$AAl?$AAl@ 00496398     mfcs140d:nolib.obj
 0002:0000c3b8       ??_C@_0N@HAOHNMDE@Kernel32?4dll@ 004963b8     mfcs140d:nolib.obj
 0002:0000c3c8       ??_C@_1IM@JDALAIMN@?$AAd?$AA?3?$AA?2?$AAa?$AAg?$AAe?$AAn?$AAt?$AA?2?$AA_?$AAw?$AAo?$AAr?$AAk?$AA?2@ 004963c8     mfcs140d:nolib.obj
 0002:0000c470       ??_C@_1IM@OAKAGKEO@?$AAd?$AA?3?$AA?2?$AAa?$AAg?$AAe?$AAn?$AAt?$AA?2?$AA_?$AAw?$AAo?$AAr?$AAk?$AA?2@ 00496470     mfcs140d:nolib.obj
 0002:0000c518       ??_C@_1II@MFCNAHJH@?$AAd?$AA?3?$AA?2?$AAa?$AAg?$AAe?$AAn?$AAt?$AA?2?$AA_?$AAw?$AAo?$AAr?$AAk?$AA?2@ 00496518     mfcs140d:nolib.obj
 0002:0000c5c0       ??_C@_1JA@NMBLLECH@?$AAd?$AA?3?$AA?2?$AAa?$AAg?$AAe?$AAn?$AAt?$AA?2?$AA_?$AAw?$AAo?$AAr?$AAk?$AA?2@ 004965c0     mfcs140d:nolib.obj
 0002:0000c670       ??_C@_1IK@JPPFJKKH@?$AAd?$AA?3?$AA?2?$AAa?$AAg?$AAe?$AAn?$AAt?$AA?2?$AA_?$AAw?$AAo?$AAr?$AAk?$AA?2@ 00496670     mfcs140d:nolib.obj
 0002:0000c718       ??_C@_0EF@IPDELHHG@d?3?2agent?2_work?23?2s?2src?2vctools?2@ 00496718     mfcs140d:nolib.obj
 0002:0000c770       ??_C@_1II@ENPDPACE@?$AAd?$AA?3?$AA?2?$AAa?$AAg?$AAe?$AAn?$AAt?$AA?2?$AA_?$AAw?$AAo?$AAr?$AAk?$AA?2@ 00496770     mfcs140d:nolib.obj
 0002:0000c818       ??_C@_1JC@HILNCOCD@?$AAd?$AA?3?$AA?2?$AAa?$AAg?$AAe?$AAn?$AAt?$AA?2?$AA_?$AAw?$AAo?$AAr?$AAk?$AA?2@ 00496818     mfcs140d:nolib.obj
 0002:0000c8cc       ??_7type_info@@6B@         004968cc     msvcrtd:std_type_info_static.obj
 0002:0000c980       ??_C@_1EC@JIJBPKFM@?$AAa?$AAp?$AAi?$AA?9?$AAm?$AAs?$AA?9?$AAw?$AAi?$AAn?$AA?9?$AAc?$AAo?$AAr?$AAe@ 00496980     msvcrtd:thread_safe_statics.obj
 0002:0000c9d0       ??_C@_1BK@MGMFAEKH@?$AAk?$AAe?$AAr?$AAn?$AAe?$AAl?$AA3?$AA2?$AA?4?$AAd?$AAl?$AAl@ 004969d0     msvcrtd:thread_safe_statics.obj
 0002:0000c9f0       ??_C@_0BM@HLJJNPAH@InitializeConditionVariable@ 004969f0     msvcrtd:thread_safe_statics.obj
 0002:0000ca14       ??_C@_0BJ@JEBJOJFJ@SleepConditionVariableCS@ 00496a14     msvcrtd:thread_safe_statics.obj
 0002:0000ca34       ??_C@_0BJ@PGPPEPCC@WakeAllConditionVariable@ 00496a34     msvcrtd:thread_safe_statics.obj
 0002:0000ca58       ??_C@_1JM@MEGLFHBK@?$AAd?$AA?3?$AA?2?$AAa?$AAg?$AAe?$AAn?$AAt?$AA?2?$AA_?$AAw?$AAo?$AAr?$AAk?$AA?2@ 00496a58     msvcrtd:thread_safe_statics.obj
 0002:0000cbd0       ??_C@_0NN@NGPKDKPD@The?5value?5of?5ESP?5was?5not?5proper@ 00496bd0     msvcrtd:error.obj
 0002:0000cce0       ??_C@_0BBN@GPMLNJCF@A?5cast?5to?5a?5smaller?5data?5type?5h@ 00496ce0     msvcrtd:error.obj
 0002:0000ce38       ??_C@_0BN@FFOINMNJ@Stack?5memory?5was?5corrupted?6?$AN@ 00496e38     msvcrtd:error.obj
 0002:0000ce5c       ??_C@_0DG@HKJMLLLP@A?5local?5variable?5was?5used?5befor@ 00496e5c     msvcrtd:error.obj
 0002:0000ce9c       ??_C@_0CM@NGINOKPC@Stack?5memory?5around?5_alloca?5was@ 00496e9c     msvcrtd:error.obj
 0002:0000ced0       ??_C@_0BO@GNIAFIKK@Unknown?5Runtime?5Check?5Error?6?$AN@ 00496ed0     msvcrtd:error.obj
 0002:0000cef8       ??_C@_1GM@OLMCBDMB@?$AAR?$AAu?$AAn?$AAt?$AAi?$AAm?$AAe?$AA?5?$AAC?$AAh?$AAe?$AAc?$AAk?$AA?5?$AAE@ 00496ef8     msvcrtd:error.obj
 0002:0000cf80       ??_C@_1EA@NFKNIFJP@?$AAR?$AAu?$AAn?$AA?9?$AAT?$AAi?$AAm?$AAe?$AA?5?$AAC?$AAh?$AAe?$AAc?$AAk?$AA?5@ 00496f80     msvcrtd:error.obj
 0002:0000cfcc       ??_C@_0BB@PFFGGCJP@Unknown?5Filename@ 00496fcc     msvcrtd:error.obj
 0002:0000cfe0       ??_C@_0BE@GNBOBNCK@Unknown?5Module?5Name@ 00496fe0     msvcrtd:error.obj
 0002:0000cff8       ??_C@_0CA@IODNCDPG@Run?9Time?5Check?5Failure?5?$CD?$CFd?5?9?5?$CFs@ 00496ff8     msvcrtd:error.obj
 0002:0000d020       ??_C@_0CG@IAFNJNEE@Stack?5corrupted?5near?5unknown?5va@ 00497020     msvcrtd:error.obj
 0002:0000d050       ??_C@_05MKKEDADM@?$CF?42X?5@ 00497050     msvcrtd:error.obj
 0002:0000d058       ??_C@_0EJ@LJKNEOLN@Stack?5area?5around?5_alloca?5memor@ 00497058     msvcrtd:error.obj
 0002:0000d0b0       ??_C@_02LLMPMKNF@?$DO?5@   004970b0     msvcrtd:error.obj
 0002:0000d0b4       ??_C@_08OMAHNMHJ@?6Data?3?5?$DM@ 004970b4     msvcrtd:error.obj
 0002:0000d0c0       ??_C@_0CK@DKGBICFE@?6Allocation?5number?5within?5this?5@ 004970c0     msvcrtd:error.obj
 0002:0000d0f4       ??_C@_07DFDJCKFN@?6Size?3?5@ 004970f4     msvcrtd:error.obj
 0002:0000d100       ??_C@_0N@MHFFIMFG@?6Address?3?50x@ 00497100     msvcrtd:error.obj
 0002:0000d110       ??_C@_0EI@CLEPFNGI@Stack?5area?5around?5_alloca?5memor@ 00497110     msvcrtd:error.obj
 0002:0000d168       ??_C@_0BK@ODNDAGKB@?$CFs?$CFs?$CFp?$CFs?$CFzd?$CFs?$CFd?$CFs?$CFs?$CFs?$CFs?$CFs@ 00497168     msvcrtd:error.obj
 0002:0000d188       ??_C@_0DE@OHJBPMBP@A?5variable?5is?5being?5used?5withou@ 00497188     msvcrtd:error.obj
 0002:0000d1e0       ??_C@_0BJ@HEGAHDFO@Stack?5pointer?5corruption@ 004971e0     msvcrtd:userapi.obj
 0002:0000d200       ??_C@_0CK@FEGOIOPB@Cast?5to?5smaller?5type?5causing?5lo@ 00497200     msvcrtd:userapi.obj
 0002:0000d234       ??_C@_0BI@CIGMDCBH@Stack?5memory?5corruption@ 00497234     msvcrtd:userapi.obj
 0002:0000d250       ??_C@_0CK@CNLNOEPB@Local?5variable?5used?5before?5init@ 00497250     msvcrtd:userapi.obj
 0002:0000d284       ??_C@_0BP@OGBCLIBO@Stack?5around?5_alloca?5corrupted@ 00497284     msvcrtd:userapi.obj
 0002:0000d308       ??_C@_1EI@MLPKHBGE@?$AAa?$AAp?$AAi?$AA?9?$AAm?$AAs?$AA?9?$AAw?$AAi?$AAn?$AA?9?$AAc?$AAo?$AAr?$AAe@ 00497308     msvcrtd:pdblkup.obj
 0002:0000d360       ??_C@_1BK@JHLNAEJL@?$AAa?$AAd?$AAv?$AAa?$AAp?$AAi?$AA3?$AA2?$AA?4?$AAd?$AAl?$AAl@ 00497360     msvcrtd:pdblkup.obj
 0002:0000d380       ??_C@_0O@COHOBMLB@RegOpenKeyExW@ 00497380     msvcrtd:pdblkup.obj
 0002:0000d390       ??_C@_0BB@GLNAEDBD@RegQueryValueExW@ 00497390     msvcrtd:pdblkup.obj
 0002:0000d3a4       ??_C@_0M@HLOHPNFA@RegCloseKey@ 004973a4     msvcrtd:pdblkup.obj
 0002:0000d3b8       ??_C@_1HE@EBEAGLFB@?$AAS?$AAO?$AAF?$AAT?$AAW?$AAA?$AAR?$AAE?$AA?2?$AAW?$AAo?$AAw?$AA6?$AA4?$AA3@ 004973b8     msvcrtd:pdblkup.obj
 0002:0000d444       ??_C@_1BG@EABPBLLF@?$AAP?$AAr?$AAo?$AAd?$AAu?$AAc?$AAt?$AAD?$AAi?$AAr@ 00497444     msvcrtd:pdblkup.obj
 0002:0000d484       ??_C@_1BC@JINFINNJ@?$AAM?$AAS?$AAP?$AAD?$AAB?$AA1?$AA4?$AA0@ 00497484     msvcrtd:pdblkup.obj
 0002:0000d49c       ??_C@_0BB@KCIACLNC@PDBOpenValidate5@ 0049749c     msvcrtd:pdblkup.obj
 0002:0000d4b0       ??_C@_01KDCPPGHE@r@        004974b0     msvcrtd:pdblkup.obj
 0002:0000d4b4       _GUID_ATLVer30             004974b4     atls:atlbase.obj
 0002:0000d4c8       _GUID_ATLVer70             004974c8     atls:atlbase.obj
 0002:0000d4dc       _GUID_ATLVer100            004974dc     atls:atlbase.obj
 0002:0000d4f0       _GUID_ATLVer110            004974f0     atls:atlbase.obj
 0002:0000d508       ??_C@_1IC@ONKHOIDK@?$AAE?$AAR?$AAR?$AAO?$AAR?$AA?5?$AA?3?$AA?5?$AAU?$AAn?$AAa?$AAb?$AAl?$AAe?$AA?5@ 00497508     atls:atlbase.obj
 0002:0000d5a4       ?chDirSep@ATL@@3_WB        004975a4     atls:stdafx.obj
 0002:0000d5a8       ?chRightBracket@ATL@@3_WB  004975a8     atls:stdafx.obj
 0002:0000d5ac       ?chLeftBracket@ATL@@3_WB   004975ac     atls:stdafx.obj
 0002:0000d5b0       ?chQuote@ATL@@3_WB         004975b0     atls:stdafx.obj
 0002:0000d5b4       ?chEquals@ATL@@3_WB        004975b4     atls:stdafx.obj
 0002:0000d5b8       ?szStringVal@ATL@@3QB_WB   004975b8     atls:stdafx.obj
 0002:0000d5bc       ??_C@_13HADIAKP@?$AAS@     004975bc     atls:stdafx.obj
 0002:0000d5c0       ?multiszStringVal@ATL@@3QB_WB 004975c0     atls:stdafx.obj
 0002:0000d5c4       ??_C@_13LHMFKAAD@?$AAM@    004975c4     atls:stdafx.obj
 0002:0000d5c8       ?szDwordVal@ATL@@3QB_WB    004975c8     atls:stdafx.obj
 0002:0000d5cc       ??_C@_13MKMNOPIJ@?$AAD@    004975cc     atls:stdafx.obj
 0002:0000d5d0       ?szBinaryVal@ATL@@3QB_WB   004975d0     atls:stdafx.obj
 0002:0000d5d4       ??_C@_13OPKGLAFF@?$AAB@    004975d4     atls:stdafx.obj
 0002:0000d5d8       ?szValToken@ATL@@3QB_WB    004975d8     atls:stdafx.obj
 0002:0000d5dc       ??_C@_17LLMMEOJD@?$AAV?$AAa?$AAl@ 004975dc     atls:stdafx.obj
 0002:0000d5e8       ?szForceRemove@ATL@@3QB_WB 004975e8     atls:stdafx.obj
 0002:0000d5ec       ??_C@_1BI@JFAIJMHL@?$AAF?$AAo?$AAr?$AAc?$AAe?$AAR?$AAe?$AAm?$AAo?$AAv?$AAe@ 004975ec     atls:stdafx.obj
 0002:0000d608       ?szNoRemove@ATL@@3QB_WB    00497608     atls:stdafx.obj
 0002:0000d60c       ??_C@_1BC@GCKHIPE@?$AAN?$AAo?$AAR?$AAe?$AAm?$AAo?$AAv?$AAe@ 0049760c     atls:stdafx.obj
 0002:0000d624       ?szDelete@ATL@@3QB_WB      00497624     atls:stdafx.obj
 0002:0000d628       ??_C@_1O@JDLOHAN@?$AAD?$AAe?$AAl?$AAe?$AAt?$AAe@ 00497628     atls:stdafx.obj
 0002:0000d638       __GUID_df0b3d60_548f_101b_8e65_08002b2bd119 00497638     comsuppwd:comsupp.obj
 0002:0000d64c       ??_7_com_error@@6B@        0049764c     comsuppwd:comraise.obj
 0002:0000d650       __GUID_00000000_0000_0000_0000_000000000000 00497650     comsuppwd:invkprxy.obj
 0002:0000d664       __GUID_00020400_0000_0000_c000_000000000046 00497664     comsuppwd:invkerr.obj
 0002:0000d678       __GUID_1cf2b120_547d_101b_8e65_08002b2bd119 00497678     comsuppwd:invkerr.obj
 0002:0000d690       ??_C@_0EI@MGNJBIB@d?3?2agent?2_work?23?2s?2src?2vctools?2@ 00497690     mfcs140d:appmodul.obj
 0002:0000d728       __load_config_used         00497728     msvcrtd:loadcfg.obj
 0002:0000dd14       __tls_used                 00497d14     msvcrtd:tlssup.obj
 0002:0000de30       ??_R1A@?0A@EA@CObject@@8   00497e30     AttemperEngineSink.obj
 0002:0000de54       ??_R3CObject@@8            00497e54     AttemperEngineSink.obj
 0002:0000de68       ??_R2CObject@@8            00497e68     AttemperEngineSink.obj
 0002:0000de70       ??_R4IUnknownEx@@6B@       00497e70     AttemperEngineSink.obj
 0002:0000de88       ??_R3IUnknownEx@@8         00497e88     AttemperEngineSink.obj
 0002:0000de9c       ??_R2IUnknownEx@@8         00497e9c     AttemperEngineSink.obj
 0002:0000dea4       ??_R1A@?0A@EA@IUnknownEx@@8 00497ea4     AttemperEngineSink.obj
 0002:0000dec8       ??_R4IAttemperEngineSink@@6B@ 00497ec8     AttemperEngineSink.obj
 0002:0000dee0       ??_R3IAttemperEngineSink@@8 00497ee0     AttemperEngineSink.obj
 0002:0000def4       ??_R2IAttemperEngineSink@@8 00497ef4     AttemperEngineSink.obj
 0002:0000df00       ??_R1A@?0A@EA@IAttemperEngineSink@@8 00497f00     AttemperEngineSink.obj
 0002:0000df24       ??_R4IServerUserItemSink@@6B@ 00497f24     AttemperEngineSink.obj
 0002:0000df3c       ??_R3IServerUserItemSink@@8 00497f3c     AttemperEngineSink.obj
 0002:0000df50       ??_R2IServerUserItemSink@@8 00497f50     AttemperEngineSink.obj
 0002:0000df5c       ??_R1A@?0A@EA@IServerUserItemSink@@8 00497f5c     AttemperEngineSink.obj
 0002:0000df80       ??_R4IMainServiceFrame@@6B@ 00497f80     AttemperEngineSink.obj
 0002:0000df98       ??_R3IMainServiceFrame@@8  00497f98     AttemperEngineSink.obj
 0002:0000dfac       ??_R2IMainServiceFrame@@8  00497fac     AttemperEngineSink.obj
 0002:0000dfb8       ??_R1A@?0A@EA@IMainServiceFrame@@8 00497fb8     AttemperEngineSink.obj
 0002:0000dfdc       ??_R4?$CWHArray@PAVCTableFrame@@ABQAV1@@@6B@ 00497fdc     AttemperEngineSink.obj
 0002:0000dff4       ??_R3?$CWHArray@PAVCTableFrame@@ABQAV1@@@8 00497ff4     AttemperEngineSink.obj
 0002:0000e008       ??_R2?$CWHArray@PAVCTableFrame@@ABQAV1@@@8 00498008     AttemperEngineSink.obj
 0002:0000e010       ??_R1A@?0A@EA@?$CWHArray@PAVCTableFrame@@ABQAV1@@@8 00498010     AttemperEngineSink.obj
 0002:0000e034       ??_R4?$CWHArray@UtagDistributeInfo@@ABU1@@@6B@ 00498034     AttemperEngineSink.obj
 0002:0000e04c       ??_R3?$CWHArray@UtagDistributeInfo@@ABU1@@@8 0049804c     AttemperEngineSink.obj
 0002:0000e060       ??_R2?$CWHArray@UtagDistributeInfo@@ABU1@@@8 00498060     AttemperEngineSink.obj
 0002:0000e068       ??_R1A@?0A@EA@?$CWHArray@UtagDistributeInfo@@ABU1@@@8 00498068     AttemperEngineSink.obj
 0002:0000e08c       ??_R4?$CWHArray@PBDABQBD@@6B@ 0049808c     AttemperEngineSink.obj
 0002:0000e0a4       ??_R3?$CWHArray@PBDABQBD@@8 004980a4     AttemperEngineSink.obj
 0002:0000e0b8       ??_R2?$CWHArray@PBDABQBD@@8 004980b8     AttemperEngineSink.obj
 0002:0000e0c0       ??_R1A@?0A@EA@?$CWHArray@PBDABQBD@@8 004980c0     AttemperEngineSink.obj
 0002:0000e0e4       ??_R4CSensitiveWordsFilter@@6B@ 004980e4     AttemperEngineSink.obj
 0002:0000e0fc       ??_R3CSensitiveWordsFilter@@8 004980fc     AttemperEngineSink.obj
 0002:0000e110       ??_R2CSensitiveWordsFilter@@8 00498110     AttemperEngineSink.obj
 0002:0000e118       ??_R1A@?0A@EA@CSensitiveWordsFilter@@8 00498118     AttemperEngineSink.obj
 0002:0000e13c       ??_R4?$CWHArray@PAUtagSystemMessage@@ABQAU1@@@6B@ 0049813c     AttemperEngineSink.obj
 0002:0000e154       ??_R3?$CWHArray@PAUtagSystemMessage@@ABQAU1@@@8 00498154     AttemperEngineSink.obj
 0002:0000e168       ??_R2?$CWHArray@PAUtagSystemMessage@@ABQAU1@@@8 00498168     AttemperEngineSink.obj
 0002:0000e170       ??_R1A@?0A@EA@?$CWHArray@PAUtagSystemMessage@@ABQAU1@@@8 00498170     AttemperEngineSink.obj
 0002:0000e194       ??_R4?$CMap@KKKAAK@@6B@    00498194     AttemperEngineSink.obj
 0002:0000e1ac       ??_R3?$CMap@KKKAAK@@8      004981ac     AttemperEngineSink.obj
 0002:0000e1c0       ??_R2?$CMap@KKKAAK@@8      004981c0     AttemperEngineSink.obj
 0002:0000e1cc       ??_R1A@?0A@EA@?$CMap@KKKAAK@@8 004981cc     AttemperEngineSink.obj
 0002:0000e1f0       ??_R4?$CWHArray@PAUtagPersonalTableParameter@@ABQAU1@@@6B@ 004981f0     AttemperEngineSink.obj
 0002:0000e208       ??_R3?$CWHArray@PAUtagPersonalTableParameter@@ABQAU1@@@8 00498208     AttemperEngineSink.obj
 0002:0000e21c       ??_R2?$CWHArray@PAUtagPersonalTableParameter@@ABQAU1@@@8 0049821c     AttemperEngineSink.obj
 0002:0000e224       ??_R1A@?0A@EA@?$CWHArray@PAUtagPersonalTableParameter@@ABQAU1@@@8 00498224     AttemperEngineSink.obj
 0002:0000e248       ??_R4CAttemperEngineSink@@6BIAttemperEngineSink@@@ 00498248     AttemperEngineSink.obj
 0002:0000e260       ??_R3CAttemperEngineSink@@8 00498260     AttemperEngineSink.obj
 0002:0000e274       ??_R2CAttemperEngineSink@@8 00498274     AttemperEngineSink.obj
 0002:0000e298       ??_R1A@?0A@EA@CAttemperEngineSink@@8 00498298     AttemperEngineSink.obj
 0002:0000e2bc       ??_R1A@?0A@EC@IUnknownEx@@8 004982bc     AttemperEngineSink.obj
 0002:0000e2e0       ??_R13?0A@EA@IMainServiceFrame@@8 004982e0     AttemperEngineSink.obj
 0002:0000e304       ??_R13?0A@EC@IUnknownEx@@8 00498304     AttemperEngineSink.obj
 0002:0000e328       ??_R17?0A@EA@IServerUserItemSink@@8 00498328     AttemperEngineSink.obj
 0002:0000e34c       ??_R17?0A@EC@IUnknownEx@@8 0049834c     AttemperEngineSink.obj
 0002:0000e370       ??_R4CAttemperEngineSink@@6BIMainServiceFrame@@@ 00498370     AttemperEngineSink.obj
 0002:0000e388       ??_R4CAttemperEngineSink@@6BIServerUserItemSink@@@ 00498388     AttemperEngineSink.obj
 0002:0000e3a0       ??_R4CDataBaseHelper@@6B@  004983a0     DataBaseEngineSink.obj
 0002:0000e3b8       ??_R3CDataBaseHelper@@8    004983b8     DataBaseEngineSink.obj
 0002:0000e3cc       ??_R2CDataBaseHelper@@8    004983cc     DataBaseEngineSink.obj
 0002:0000e3d8       ??_R1A@?0A@EA@CDataBaseHelper@@8 004983d8     DataBaseEngineSink.obj
 0002:0000e3fc       ??_R1A@?0A@EA@?$CTempldateHelper@UIDataBase@@@@8 004983fc     DataBaseEngineSink.obj
 0002:0000e420       ??_R3?$CTempldateHelper@UIDataBase@@@@8 00498420     DataBaseEngineSink.obj
 0002:0000e434       ??_R2?$CTempldateHelper@UIDataBase@@@@8 00498434     DataBaseEngineSink.obj
 0002:0000e43c       ??_R4?$CTempldateHelper@UIDataBase@@@@6B@ 0049843c     DataBaseEngineSink.obj
 0002:0000e454       ??_R4IDataBaseEngineSink@@6B@ 00498454     DataBaseEngineSink.obj
 0002:0000e46c       ??_R3IDataBaseEngineSink@@8 0049846c     DataBaseEngineSink.obj
 0002:0000e480       ??_R2IDataBaseEngineSink@@8 00498480     DataBaseEngineSink.obj
 0002:0000e48c       ??_R1A@?0A@EA@IDataBaseEngineSink@@8 0049848c     DataBaseEngineSink.obj
 0002:0000e4b0       ??_R4IGameDataBaseEngine@@6B@ 004984b0     DataBaseEngineSink.obj
 0002:0000e4c8       ??_R3IGameDataBaseEngine@@8 004984c8     DataBaseEngineSink.obj
 0002:0000e4dc       ??_R2IGameDataBaseEngine@@8 004984dc     DataBaseEngineSink.obj
 0002:0000e4e8       ??_R1A@?0A@EA@IGameDataBaseEngine@@8 004984e8     DataBaseEngineSink.obj
 0002:0000e50c       ??_R4CDataBaseEngineSink@@6BIDataBaseEngineSink@@@ 0049850c     DataBaseEngineSink.obj
 0002:0000e524       ??_R3CDataBaseEngineSink@@8 00498524     DataBaseEngineSink.obj
 0002:0000e538       ??_R2CDataBaseEngineSink@@8 00498538     DataBaseEngineSink.obj
 0002:0000e554       ??_R1A@?0A@EA@CDataBaseEngineSink@@8 00498554     DataBaseEngineSink.obj
 0002:0000e578       ??_R13?0A@EA@IGameDataBaseEngine@@8 00498578     DataBaseEngineSink.obj
 0002:0000e59c       ??_R4CDataBaseEngineSink@@6BIGameDataBaseEngine@@@ 0049859c     DataBaseEngineSink.obj
 0002:0000e5b4       ??_R4IServiceModule@@6B@   004985b4     DBCorrespondManager.obj
 0002:0000e5cc       ??_R3IServiceModule@@8     004985cc     DBCorrespondManager.obj
 0002:0000e5e0       ??_R2IServiceModule@@8     004985e0     DBCorrespondManager.obj
 0002:0000e5ec       ??_R1A@?0A@EA@IServiceModule@@8 004985ec     DBCorrespondManager.obj
 0002:0000e610       ??_R4IDBCorrespondManager@@6B@ 00498610     DBCorrespondManager.obj
 0002:0000e628       ??_R3IDBCorrespondManager@@8 00498628     DBCorrespondManager.obj
 0002:0000e63c       ??_R2IDBCorrespondManager@@8 0049863c     DBCorrespondManager.obj
 0002:0000e64c       ??_R1A@?0A@EA@IDBCorrespondManager@@8 0049864c     DBCorrespondManager.obj
 0002:0000e670       ??_R4?$CList@PAUtagDBRequestHead@@ABQAU1@@@6B@ 00498670     DBCorrespondManager.obj
 0002:0000e688       ??_R3?$CList@PAUtagDBRequestHead@@ABQAU1@@@8 00498688     DBCorrespondManager.obj
 0002:0000e69c       ??_R2?$CList@PAUtagDBRequestHead@@ABQAU1@@@8 0049869c     DBCorrespondManager.obj
 0002:0000e6a8       ??_R1A@?0A@EA@?$CList@PAUtagDBRequestHead@@ABQAU1@@@8 004986a8     DBCorrespondManager.obj
 0002:0000e6cc       ??_R4?$CWHArray@KABK@@6B@  004986cc     DBCorrespondManager.obj
 0002:0000e6e4       ??_R3?$CWHArray@KABK@@8    004986e4     DBCorrespondManager.obj
 0002:0000e6f8       ??_R2?$CWHArray@KABK@@8    004986f8     DBCorrespondManager.obj
 0002:0000e700       ??_R1A@?0A@EA@?$CWHArray@KABK@@8 00498700     DBCorrespondManager.obj
 0002:0000e724       ??_R4CDBCorrespondManager@@6B@ 00498724     DBCorrespondManager.obj
 0002:0000e73c       ??_R3CDBCorrespondManager@@8 0049873c     DBCorrespondManager.obj
 0002:0000e750       ??_R2CDBCorrespondManager@@8 00498750     DBCorrespondManager.obj
 0002:0000e764       ??_R1A@?0A@EA@CDBCorrespondManager@@8 00498764     DBCorrespondManager.obj
 0002:0000e788       ??_R4CDistributeManager@@6B@ 00498788     DistributeManager.obj
 0002:0000e7a0       ??_R3CDistributeManager@@8 004987a0     DistributeManager.obj
 0002:0000e7b4       ??_R2CDistributeManager@@8 004987b4     DistributeManager.obj
 0002:0000e7bc       ??_R1A@?0A@EA@CDistributeManager@@8 004987bc     DistributeManager.obj
 0002:0000e7e0       ??_R1A@?0A@EA@CCmdTarget@@8 004987e0     GameServer.obj
 0002:0000e804       ??_R3CCmdTarget@@8         00498804     GameServer.obj
 0002:0000e818       ??_R2CCmdTarget@@8         00498818     GameServer.obj
 0002:0000e824       ??_R4CGameServerApp@@6B@   00498824     GameServer.obj
 0002:0000e83c       ??_R3CGameServerApp@@8     0049883c     GameServer.obj
 0002:0000e850       ??_R2CGameServerApp@@8     00498850     GameServer.obj
 0002:0000e86c       ??_R1A@?0A@EA@CGameServerApp@@8 0049886c     GameServer.obj
 0002:0000e890       ??_R1A@?0A@EA@CWinApp@@8   00498890     GameServer.obj
 0002:0000e8b4       ??_R3CWinApp@@8            004988b4     GameServer.obj
 0002:0000e8c8       ??_R2CWinApp@@8            004988c8     GameServer.obj
 0002:0000e8dc       ??_R1A@?0A@EA@CWinThread@@8 004988dc     GameServer.obj
 0002:0000e900       ??_R3CWinThread@@8         00498900     GameServer.obj
 0002:0000e914       ??_R2CWinThread@@8         00498914     GameServer.obj
 0002:0000e924       ??_R1A@?0A@EA@CDialog@@8   00498924     GameServerDlg.obj
 0002:0000e948       ??_R3CDialog@@8            00498948     GameServerDlg.obj
 0002:0000e95c       ??_R2CDialog@@8            0049895c     GameServerDlg.obj
 0002:0000e970       ??_R1A@?0A@EA@CWnd@@8      00498970     GameServerDlg.obj
 0002:0000e994       ??_R3CWnd@@8               00498994     GameServerDlg.obj
 0002:0000e9a8       ??_R2CWnd@@8               004989a8     GameServerDlg.obj
 0002:0000e9b8       ??_R4CGameServiceManagerHelper@@6B@ 004989b8     GameServerDlg.obj
 0002:0000e9d0       ??_R3CGameServiceManagerHelper@@8 004989d0     GameServerDlg.obj
 0002:0000e9e4       ??_R2CGameServiceManagerHelper@@8 004989e4     GameServerDlg.obj
 0002:0000e9f0       ??_R1A@?0A@EA@CGameServiceManagerHelper@@8 004989f0     GameServerDlg.obj
 0002:0000ea14       ??_R1A@?0A@EA@?$CTempldateHelper@UIGameServiceManager@@@@8 00498a14     GameServerDlg.obj
 0002:0000ea38       ??_R3?$CTempldateHelper@UIGameServiceManager@@@@8 00498a38     GameServerDlg.obj
 0002:0000ea4c       ??_R2?$CTempldateHelper@UIGameServiceManager@@@@8 00498a4c     GameServerDlg.obj
 0002:0000ea54       ??_R4?$CTempldateHelper@UIGameServiceManager@@@@6B@ 00498a54     GameServerDlg.obj
 0002:0000ea6c       ??_R4IServiceUnitsSink@@6B@ 00498a6c     GameServerDlg.obj
 0002:0000ea84       ??_R3IServiceUnitsSink@@8  00498a84     GameServerDlg.obj
 0002:0000ea98       ??_R2IServiceUnitsSink@@8  00498a98     GameServerDlg.obj
 0002:0000eaa0       ??_R1A@?0A@EA@IServiceUnitsSink@@8 00498aa0     GameServerDlg.obj
 0002:0000eac4       ??_R4CGameServerDlg@@6BCDialog@@@ 00498ac4     GameServerDlg.obj
 0002:0000eadc       ??_R3CGameServerDlg@@8     00498adc     GameServerDlg.obj
 0002:0000eaf0       ??_R2CGameServerDlg@@8     00498af0     GameServerDlg.obj
 0002:0000eb10       ??_R1A@?0A@EA@CGameServerDlg@@8 00498b10     GameServerDlg.obj
 0002:0000eb34       ??_R1KI@?0A@EA@IServiceUnitsSink@@8 00498b34     GameServerDlg.obj
 0002:0000eb58       ??_R4CGameServerDlg@@6BIServiceUnitsSink@@@ 00498b58     GameServerDlg.obj
 0002:0000eb70       ??_R4CInitParameter@@6B@   00498b70     InitParameter.obj
 0002:0000eb88       ??_R3CInitParameter@@8     00498b88     InitParameter.obj
 0002:0000eb9c       ??_R2CInitParameter@@8     00498b9c     InitParameter.obj
 0002:0000eba4       ??_R1A@?0A@EA@CInitParameter@@8 00498ba4     InitParameter.obj
 0002:0000ebc8       ??_R4?$CWHArray@PAVCGameTypeItem@NServerListManager@@ABQAV12@@@6B@ 00498bc8     ServerListManager.obj
 0002:0000ebe0       ??_R3?$CWHArray@PAVCGameTypeItem@NServerListManager@@ABQAV12@@@8 00498be0     ServerListManager.obj
 0002:0000ebf4       ??_R2?$CWHArray@PAVCGameTypeItem@NServerListManager@@ABQAV12@@@8 00498bf4     ServerListManager.obj
 0002:0000ebfc       ??_R1A@?0A@EA@?$CWHArray@PAVCGameTypeItem@NServerListManager@@ABQAV12@@@8 00498bfc     ServerListManager.obj
 0002:0000ec20       ??_R4?$CWHArray@PAVCGameKindItem@NServerListManager@@ABQAV12@@@6B@ 00498c20     ServerListManager.obj
 0002:0000ec38       ??_R3?$CWHArray@PAVCGameKindItem@NServerListManager@@ABQAV12@@@8 00498c38     ServerListManager.obj
 0002:0000ec4c       ??_R2?$CWHArray@PAVCGameKindItem@NServerListManager@@ABQAV12@@@8 00498c4c     ServerListManager.obj
 0002:0000ec54       ??_R1A@?0A@EA@?$CWHArray@PAVCGameKindItem@NServerListManager@@ABQAV12@@@8 00498c54     ServerListManager.obj
 0002:0000ec78       ??_R4?$CWHArray@PAVCGameNodeItem@NServerListManager@@ABQAV12@@@6B@ 00498c78     ServerListManager.obj
 0002:0000ec90       ??_R3?$CWHArray@PAVCGameNodeItem@NServerListManager@@ABQAV12@@@8 00498c90     ServerListManager.obj
 0002:0000eca4       ??_R2?$CWHArray@PAVCGameNodeItem@NServerListManager@@ABQAV12@@@8 00498ca4     ServerListManager.obj
 0002:0000ecac       ??_R1A@?0A@EA@?$CWHArray@PAVCGameNodeItem@NServerListManager@@ABQAV12@@@8 00498cac     ServerListManager.obj
 0002:0000ecd0       ??_R4?$CWHArray@PAVCGamePageItem@NServerListManager@@ABQAV12@@@6B@ 00498cd0     ServerListManager.obj
 0002:0000ece8       ??_R3?$CWHArray@PAVCGamePageItem@NServerListManager@@ABQAV12@@@8 00498ce8     ServerListManager.obj
 0002:0000ecfc       ??_R2?$CWHArray@PAVCGamePageItem@NServerListManager@@ABQAV12@@@8 00498cfc     ServerListManager.obj
 0002:0000ed04       ??_R1A@?0A@EA@?$CWHArray@PAVCGamePageItem@NServerListManager@@ABQAV12@@@8 00498d04     ServerListManager.obj
 0002:0000ed28       ??_R4?$CWHArray@PAVCGameServerItem@NServerListManager@@ABQAV12@@@6B@ 00498d28     ServerListManager.obj
 0002:0000ed40       ??_R3?$CWHArray@PAVCGameServerItem@NServerListManager@@ABQAV12@@@8 00498d40     ServerListManager.obj
 0002:0000ed54       ??_R2?$CWHArray@PAVCGameServerItem@NServerListManager@@ABQAV12@@@8 00498d54     ServerListManager.obj
 0002:0000ed5c       ??_R1A@?0A@EA@?$CWHArray@PAVCGameServerItem@NServerListManager@@ABQAV12@@@8 00498d5c     ServerListManager.obj
 0002:0000ed80       ??_R4?$CMap@GGPAVCGameTypeItem@NServerListManager@@AAPAV12@@@6B@ 00498d80     ServerListManager.obj
 0002:0000ed98       ??_R3?$CMap@GGPAVCGameTypeItem@NServerListManager@@AAPAV12@@@8 00498d98     ServerListManager.obj
 0002:0000edac       ??_R2?$CMap@GGPAVCGameTypeItem@NServerListManager@@AAPAV12@@@8 00498dac     ServerListManager.obj
 0002:0000edb8       ??_R1A@?0A@EA@?$CMap@GGPAVCGameTypeItem@NServerListManager@@AAPAV12@@@8 00498db8     ServerListManager.obj
 0002:0000eddc       ??_R4?$CMap@GGPAVCGameKindItem@NServerListManager@@AAPAV12@@@6B@ 00498ddc     ServerListManager.obj
 0002:0000edf4       ??_R3?$CMap@GGPAVCGameKindItem@NServerListManager@@AAPAV12@@@8 00498df4     ServerListManager.obj
 0002:0000ee08       ??_R2?$CMap@GGPAVCGameKindItem@NServerListManager@@AAPAV12@@@8 00498e08     ServerListManager.obj
 0002:0000ee14       ??_R1A@?0A@EA@?$CMap@GGPAVCGameKindItem@NServerListManager@@AAPAV12@@@8 00498e14     ServerListManager.obj
 0002:0000ee38       ??_R4?$CMap@GGPAVCGameNodeItem@NServerListManager@@AAPAV12@@@6B@ 00498e38     ServerListManager.obj
 0002:0000ee50       ??_R3?$CMap@GGPAVCGameNodeItem@NServerListManager@@AAPAV12@@@8 00498e50     ServerListManager.obj
 0002:0000ee64       ??_R2?$CMap@GGPAVCGameNodeItem@NServerListManager@@AAPAV12@@@8 00498e64     ServerListManager.obj
 0002:0000ee70       ??_R1A@?0A@EA@?$CMap@GGPAVCGameNodeItem@NServerListManager@@AAPAV12@@@8 00498e70     ServerListManager.obj
 0002:0000ee94       ??_R4?$CMap@GGPAVCGamePageItem@NServerListManager@@AAPAV12@@@6B@ 00498e94     ServerListManager.obj
 0002:0000eeac       ??_R3?$CMap@GGPAVCGamePageItem@NServerListManager@@AAPAV12@@@8 00498eac     ServerListManager.obj
 0002:0000eec0       ??_R2?$CMap@GGPAVCGamePageItem@NServerListManager@@AAPAV12@@@8 00498ec0     ServerListManager.obj
 0002:0000eecc       ??_R1A@?0A@EA@?$CMap@GGPAVCGamePageItem@NServerListManager@@AAPAV12@@@8 00498ecc     ServerListManager.obj
 0002:0000eef0       ??_R4?$CMap@GGPAVCGameServerItem@NServerListManager@@AAPAV12@@@6B@ 00498ef0     ServerListManager.obj
 0002:0000ef08       ??_R3?$CMap@GGPAVCGameServerItem@NServerListManager@@AAPAV12@@@8 00498f08     ServerListManager.obj
 0002:0000ef1c       ??_R2?$CMap@GGPAVCGameServerItem@NServerListManager@@AAPAV12@@@8 00498f1c     ServerListManager.obj
 0002:0000ef28       ??_R1A@?0A@EA@?$CMap@GGPAVCGameServerItem@NServerListManager@@AAPAV12@@@8 00498f28     ServerListManager.obj
 0002:0000ef4c       ??_R4CServerListManager@NServerListManager@@6B@ 00498f4c     ServerListManager.obj
 0002:0000ef64       ??_R3CServerListManager@NServerListManager@@8 00498f64     ServerListManager.obj
 0002:0000ef78       ??_R2CServerListManager@NServerListManager@@8 00498f78     ServerListManager.obj
 0002:0000ef80       ??_R1A@?0A@EA@CServerListManager@NServerListManager@@8 00498f80     ServerListManager.obj
 0002:0000efa4       ??_R4CTimerEngineHelper@@6B@ 00498fa4     ServiceUnits.obj
 0002:0000efbc       ??_R3CTimerEngineHelper@@8 00498fbc     ServiceUnits.obj
 0002:0000efd0       ??_R2CTimerEngineHelper@@8 00498fd0     ServiceUnits.obj
 0002:0000efdc       ??_R1A@?0A@EA@CTimerEngineHelper@@8 00498fdc     ServiceUnits.obj
 0002:0000f000       ??_R1A@?0A@EA@?$CTempldateHelper@UITimerEngine@@@@8 00499000     ServiceUnits.obj
 0002:0000f024       ??_R3?$CTempldateHelper@UITimerEngine@@@@8 00499024     ServiceUnits.obj
 0002:0000f038       ??_R2?$CTempldateHelper@UITimerEngine@@@@8 00499038     ServiceUnits.obj
 0002:0000f040       ??_R4?$CTempldateHelper@UITimerEngine@@@@6B@ 00499040     ServiceUnits.obj
 0002:0000f058       ??_R4CDataBaseEngineHelper@@6B@ 00499058     ServiceUnits.obj
 0002:0000f070       ??_R3CDataBaseEngineHelper@@8 00499070     ServiceUnits.obj
 0002:0000f084       ??_R2CDataBaseEngineHelper@@8 00499084     ServiceUnits.obj
 0002:0000f090       ??_R1A@?0A@EA@CDataBaseEngineHelper@@8 00499090     ServiceUnits.obj
 0002:0000f0b4       ??_R1A@?0A@EA@?$CTempldateHelper@UIDataBaseEngine@@@@8 004990b4     ServiceUnits.obj
 0002:0000f0d8       ??_R3?$CTempldateHelper@UIDataBaseEngine@@@@8 004990d8     ServiceUnits.obj
 0002:0000f0ec       ??_R2?$CTempldateHelper@UIDataBaseEngine@@@@8 004990ec     ServiceUnits.obj
 0002:0000f0f4       ??_R4?$CTempldateHelper@UIDataBaseEngine@@@@6B@ 004990f4     ServiceUnits.obj
 0002:0000f10c       ??_R4CAttemperEngineHelper@@6B@ 0049910c     ServiceUnits.obj
 0002:0000f124       ??_R3CAttemperEngineHelper@@8 00499124     ServiceUnits.obj
 0002:0000f138       ??_R2CAttemperEngineHelper@@8 00499138     ServiceUnits.obj
 0002:0000f144       ??_R1A@?0A@EA@CAttemperEngineHelper@@8 00499144     ServiceUnits.obj
 0002:0000f168       ??_R1A@?0A@EA@?$CTempldateHelper@UIAttemperEngine@@@@8 00499168     ServiceUnits.obj
 0002:0000f18c       ??_R3?$CTempldateHelper@UIAttemperEngine@@@@8 0049918c     ServiceUnits.obj
 0002:0000f1a0       ??_R2?$CTempldateHelper@UIAttemperEngine@@@@8 004991a0     ServiceUnits.obj
 0002:0000f1a8       ??_R4?$CTempldateHelper@UIAttemperEngine@@@@6B@ 004991a8     ServiceUnits.obj
 0002:0000f1c0       ??_R4CTCPSocketServiceHelper@@6B@ 004991c0     ServiceUnits.obj
 0002:0000f1d8       ??_R3CTCPSocketServiceHelper@@8 004991d8     ServiceUnits.obj
 0002:0000f1ec       ??_R2CTCPSocketServiceHelper@@8 004991ec     ServiceUnits.obj
 0002:0000f1f8       ??_R1A@?0A@EA@CTCPSocketServiceHelper@@8 004991f8     ServiceUnits.obj
 0002:0000f21c       ??_R1A@?0A@EA@?$CTempldateHelper@UITCPSocketService@@@@8 0049921c     ServiceUnits.obj
 0002:0000f240       ??_R3?$CTempldateHelper@UITCPSocketService@@@@8 00499240     ServiceUnits.obj
 0002:0000f254       ??_R2?$CTempldateHelper@UITCPSocketService@@@@8 00499254     ServiceUnits.obj
 0002:0000f25c       ??_R4?$CTempldateHelper@UITCPSocketService@@@@6B@ 0049925c     ServiceUnits.obj
 0002:0000f274       ??_R4CTCPNetworkEngineHelper@@6B@ 00499274     ServiceUnits.obj
 0002:0000f28c       ??_R3CTCPNetworkEngineHelper@@8 0049928c     ServiceUnits.obj
 0002:0000f2a0       ??_R2CTCPNetworkEngineHelper@@8 004992a0     ServiceUnits.obj
 0002:0000f2ac       ??_R1A@?0A@EA@CTCPNetworkEngineHelper@@8 004992ac     ServiceUnits.obj
 0002:0000f2d0       ??_R1A@?0A@EA@?$CTempldateHelper@UITCPNetworkEngine@@@@8 004992d0     ServiceUnits.obj
 0002:0000f2f4       ??_R3?$CTempldateHelper@UITCPNetworkEngine@@@@8 004992f4     ServiceUnits.obj
 0002:0000f308       ??_R2?$CTempldateHelper@UITCPNetworkEngine@@@@8 00499308     ServiceUnits.obj
 0002:0000f310       ??_R4?$CTempldateHelper@UITCPNetworkEngine@@@@6B@ 00499310     ServiceUnits.obj
 0002:0000f328       ??_R4CMatchServiceManagerHelper@@6B@ 00499328     ServiceUnits.obj
 0002:0000f340       ??_R3CMatchServiceManagerHelper@@8 00499340     ServiceUnits.obj
 0002:0000f354       ??_R2CMatchServiceManagerHelper@@8 00499354     ServiceUnits.obj
 0002:0000f360       ??_R1A@?0A@EA@CMatchServiceManagerHelper@@8 00499360     ServiceUnits.obj
 0002:0000f384       ??_R1A@?0A@EA@?$CTempldateHelper@UIMatchServiceManager@@@@8 00499384     ServiceUnits.obj
 0002:0000f3a8       ??_R3?$CTempldateHelper@UIMatchServiceManager@@@@8 004993a8     ServiceUnits.obj
 0002:0000f3bc       ??_R2?$CTempldateHelper@UIMatchServiceManager@@@@8 004993bc     ServiceUnits.obj
 0002:0000f3c4       ??_R4?$CTempldateHelper@UIMatchServiceManager@@@@6B@ 004993c4     ServiceUnits.obj
 0002:0000f3dc       ??_R4CPersonalRoomServiceManagerHelper@@6B@ 004993dc     ServiceUnits.obj
 0002:0000f3f4       ??_R3CPersonalRoomServiceManagerHelper@@8 004993f4     ServiceUnits.obj
 0002:0000f408       ??_R2CPersonalRoomServiceManagerHelper@@8 00499408     ServiceUnits.obj
 0002:0000f414       ??_R1A@?0A@EA@CPersonalRoomServiceManagerHelper@@8 00499414     ServiceUnits.obj
 0002:0000f438       ??_R1A@?0A@EA@?$CTempldateHelper@UIPersonalRoomServiceManager@@@@8 00499438     ServiceUnits.obj
 0002:0000f45c       ??_R3?$CTempldateHelper@UIPersonalRoomServiceManager@@@@8 0049945c     ServiceUnits.obj
 0002:0000f470       ??_R2?$CTempldateHelper@UIPersonalRoomServiceManager@@@@8 00499470     ServiceUnits.obj
 0002:0000f478       ??_R4?$CTempldateHelper@UIPersonalRoomServiceManager@@@@6B@ 00499478     ServiceUnits.obj
 0002:0000f490       ??_R4CServiceUnits@@6B@    00499490     ServiceUnits.obj
 0002:0000f4a8       ??_R3CServiceUnits@@8      004994a8     ServiceUnits.obj
 0002:0000f4bc       ??_R2CServiceUnits@@8      004994bc     ServiceUnits.obj
 0002:0000f4d0       ??_R1A@?0A@EA@CServiceUnits@@8 004994d0     ServiceUnits.obj
 0002:0000f4f4       ??_R4CWin32Heap@ATL@@6B@   004994f4     Stdafx.obj
 0002:0000f50c       ??_R3CWin32Heap@ATL@@8     0049950c     Stdafx.obj
 0002:0000f520       ??_R2CWin32Heap@ATL@@8     00499520     Stdafx.obj
 0002:0000f52c       ??_R1A@?0A@EA@CWin32Heap@ATL@@8 0049952c     Stdafx.obj
 0002:0000f550       ??_R1A@?0A@EA@IAtlMemMgr@ATL@@8 00499550     Stdafx.obj
 0002:0000f574       ??_R3IAtlMemMgr@ATL@@8     00499574     Stdafx.obj
 0002:0000f588       ??_R2IAtlMemMgr@ATL@@8     00499588     Stdafx.obj
 0002:0000f590       ??_R1A@?0A@EA@IAtlStringMgr@ATL@@8 00499590     Stdafx.obj
 0002:0000f5b4       ??_R3IAtlStringMgr@ATL@@8  004995b4     Stdafx.obj
 0002:0000f5c8       ??_R2IAtlStringMgr@ATL@@8  004995c8     Stdafx.obj
 0002:0000f5d0       ??_R4CAtlStringMgr@ATL@@6B@ 004995d0     Stdafx.obj
 0002:0000f5e8       ??_R3CAtlStringMgr@ATL@@8  004995e8     Stdafx.obj
 0002:0000f5fc       ??_R2CAtlStringMgr@ATL@@8  004995fc     Stdafx.obj
 0002:0000f608       ??_R1A@?0A@EA@CAtlStringMgr@ATL@@8 00499608     Stdafx.obj
 0002:0000f62c       ??_R4ITableFrame@@6B@      0049962c     TableFrame.obj
 0002:0000f644       ??_R3ITableFrame@@8        00499644     TableFrame.obj
 0002:0000f658       ??_R2ITableFrame@@8        00499658     TableFrame.obj
 0002:0000f664       ??_R1A@?0A@EA@ITableFrame@@8 00499664     TableFrame.obj
 0002:0000f688       ??_R4ICompilationSink@@6B@ 00499688     TableFrame.obj
 0002:0000f6a0       ??_R3ICompilationSink@@8   004996a0     TableFrame.obj
 0002:0000f6b4       ??_R2ICompilationSink@@8   004996b4     TableFrame.obj
 0002:0000f6c0       ??_R1A@?0A@EA@ICompilationSink@@8 004996c0     TableFrame.obj
 0002:0000f6e4       ??_R4CTableFrame@@6BITableFrame@@@ 004996e4     TableFrame.obj
 0002:0000f6fc       ??_R3CTableFrame@@8        004996fc     TableFrame.obj
 0002:0000f710       ??_R2CTableFrame@@8        00499710     TableFrame.obj
 0002:0000f72c       ??_R1A@?0A@EA@CTableFrame@@8 0049972c     TableFrame.obj
 0002:0000f750       ??_R13?0A@EA@ICompilationSink@@8 00499750     TableFrame.obj
 0002:0000f774       ??_R4CTableFrame@@6BICompilationSink@@@ 00499774     TableFrame.obj
 0002:0000f78c       ??_R4?$CWHArray@PAUIServerUserItem@@ABQAU1@@@6B@ 0049978c     TableFrame.obj
 0002:0000f7a4       ??_R3?$CWHArray@PAUIServerUserItem@@ABQAU1@@@8 004997a4     TableFrame.obj
 0002:0000f7b8       ??_R2?$CWHArray@PAUIServerUserItem@@ABQAU1@@@8 004997b8     TableFrame.obj
 0002:0000f7c0       ??_R1A@?0A@EA@?$CWHArray@PAUIServerUserItem@@ABQAU1@@@8 004997c0     TableFrame.obj
 0002:0000f7e4       ??_R4?$CWHArray@PAUtagGameScoreRecord@@ABQAU1@@@6B@ 004997e4     TableFrame.obj
 0002:0000f7fc       ??_R3?$CWHArray@PAUtagGameScoreRecord@@ABQAU1@@@8 004997fc     TableFrame.obj
 0002:0000f810       ??_R2?$CWHArray@PAUtagGameScoreRecord@@ABQAU1@@@8 00499810     TableFrame.obj
 0002:0000f818       ??_R1A@?0A@EA@?$CWHArray@PAUtagGameScoreRecord@@ABQAU1@@@8 00499818     TableFrame.obj
 0002:0000f83c       ??_R4?$CMap@KK_JAA_J@@6B@  0049983c     TableFrame.obj
 0002:0000f854       ??_R3?$CMap@KK_JAA_J@@8    00499854     TableFrame.obj
 0002:0000f868       ??_R2?$CMap@KK_JAA_J@@8    00499868     TableFrame.obj
 0002:0000f874       ??_R1A@?0A@EA@?$CMap@KK_JAA_J@@8 00499874     TableFrame.obj
 0002:0000f898       ??_R4type_info@@6B@        00499898     msvcrtd:std_type_info_static.obj
 0002:0000f8b0       ??_R3type_info@@8          004998b0     msvcrtd:std_type_info_static.obj
 0002:0000f8c4       ??_R2type_info@@8          004998c4     msvcrtd:std_type_info_static.obj
 0002:0000f8cc       ??_R1A@?0A@EA@type_info@@8 004998cc     msvcrtd:std_type_info_static.obj
 0002:0000faa0       ___safe_se_handler_table   00499aa0     <linker-defined>
 0002:000100cc       ___rtc_iaa                 0049a0cc     msvcrtd:initsect.obj
 0002:000102f4       ___rtc_izz                 0049a2f4     msvcrtd:initsect.obj
 0002:000103f8       ___rtc_taa                 0049a3f8     msvcrtd:initsect.obj
 0002:00010620       ___rtc_tzz                 0049a620     msvcrtd:initsect.obj
 0002:000145f8       __TI2PAD                   0049e5f8     TableFrame.obj
 0002:0001460c       __CTA2PAD                  0049e60c     TableFrame.obj
 0002:0001461c       __CT??_R0PAD@84            0049e61c     TableFrame.obj
 0002:0001463c       __CT??_R0PAX@84            0049e63c     TableFrame.obj
 0002:000147d8       __TI1?AV_com_error@@       0049e7d8     comsuppwd:comraise.obj
 0002:000147ec       __CTA1?AV_com_error@@      0049e7ec     comsuppwd:comraise.obj
 0002:000147f4       __CT??_R0?AV_com_error@@@8??0_com_error@@QAE@ABV0@@Z16 0049e7f4     comsuppwd:comraise.obj
 0002:00014fbc       ___pobjMapEntryFirst       0049efbc     Stdafx.obj
 0002:000150c0       ___pobjMapEntryLast        0049f0c0     Stdafx.obj
 0003:00000000       ?__LINE__Var@?0??AddPacket@CSendPacketHelper@@QAE_NPBDG@Z@4JA 004a0000     AttemperEngineSink.obj
 0003:00000004       ?__LINE__Var@?0??AddPacket@CSendPacketHelper@@QAE_NPAXGG@Z@4JA 004a0004     AttemperEngineSink.obj
 0003:00000008       ?__LINE__Var@?0??GetData@CRecvPacketHelper@@QAEPAXAAUtagDataDescribe@@@Z@4JA 004a0008     AttemperEngineSink.obj
 0003:00000074       ?__LINE__Var@?0???1CAttemperEngineSink@@UAE@XZ@4JA 004a0074     AttemperEngineSink.obj
 0003:00000078       ?__LINE__Var@?0??OnAttemperEngineStart@CAttemperEngineSink@@UAE_NPAUIUnknownEx@@@Z@4JA 004a0078     AttemperEngineSink.obj
 0003:0000007c       ?__LINE__Var@?0??OnAttemperEngineConclude@CAttemperEngineSink@@UAE_NPAUIUnknownEx@@@Z@4JA 004a007c     AttemperEngineSink.obj
 0003:00000080       ?__LINE__Var@?0??OnEventTimer@CAttemperEngineSink@@UAE_NKI@Z@4JA 004a0080     AttemperEngineSink.obj
 0003:00000084       ?__LINE__Var@?0??OnEventDataBase@CAttemperEngineSink@@UAE_NGKPAXG@Z@4JA 004a0084     AttemperEngineSink.obj
 0003:00000088       ?__LINE__Var@?0??OnEventTCPSocketShut@CAttemperEngineSink@@UAE_NGE@Z@4JA 004a0088     AttemperEngineSink.obj
 0003:0000008c       ?__LINE__Var@?0??OnEventTCPSocketLink@CAttemperEngineSink@@UAE_NGH@Z@4JA 004a008c     AttemperEngineSink.obj
 0003:00000090       ?__LINE__Var@?0??OnEventTCPSocketRead@CAttemperEngineSink@@UAE_NGUTCP_Command@@PAXG@Z@4JA 004a0090     AttemperEngineSink.obj
 0003:00000094       ?__LINE__Var@?0??OnEventTCPNetworkBind@CAttemperEngineSink@@UAE_NKK@Z@4JA 004a0094     AttemperEngineSink.obj
 0003:00000098       ?__LINE__Var@?0??OnEventTCPNetworkShut@CAttemperEngineSink@@UAE_NKKK@Z@4JA 004a0098     AttemperEngineSink.obj
 0003:0000009c       ?__LINE__Var@?0??SendRoomMessage@CAttemperEngineSink@@UAE_NPAUIServerUserItem@@PBDG@Z@4JA 004a009c     AttemperEngineSink.obj
 0003:000000a0       ?__LINE__Var@?0??SendGameMessage@CAttemperEngineSink@@UAE_NPAUIServerUserItem@@PBDG@Z@4JA 004a00a0     AttemperEngineSink.obj
 0003:000000a4       ?__LINE__Var@?0??SendData@CAttemperEngineSink@@UAE_NPAUIServerUserItem@@GGPAXG@Z@4JA 004a00a4     AttemperEngineSink.obj
 0003:000000a8       ?__LINE__Var@?0??OnEventUserItemScore@CAttemperEngineSink@@UAE_NPAUIServerUserItem@@E@Z@4JA 004a00a8     AttemperEngineSink.obj
 0003:000000ac       ?__LINE__Var@?0??OnEventUserItemStatus@CAttemperEngineSink@@UAE_NPAUIServerUserItem@@GG@Z@4JA 004a00ac     AttemperEngineSink.obj
 0003:000000b0       ?__LINE__Var@?0??OnEventUserItemRight@CAttemperEngineSink@@UAE_NPAUIServerUserItem@@KKE@Z@4JA 004a00b0     AttemperEngineSink.obj
 0003:000000b4       ?__LINE__Var@?0??OnEventUserItemGameData@CAttemperEngineSink@@UAE_NPAUIServerUserItem@@E@Z@4JA 004a00b4     AttemperEngineSink.obj
 0003:000000b8       ?__LINE__Var@?0??OnDBLogonSuccess@CAttemperEngineSink@@IAE_NKPAXG@Z@4JA 004a00b8     AttemperEngineSink.obj
 0003:000000bc       ?__LINE__Var@?0??OnDBGameParameter@CAttemperEngineSink@@IAE_NKPAXG@Z@4JA 004a00bc     AttemperEngineSink.obj
 0003:000000c0       ?__LINE__Var@?0??OnDBGameColumnInfo@CAttemperEngineSink@@IAE_NKPAXG@Z@4JA 004a00c0     AttemperEngineSink.obj
 0003:000000c4       ?__LINE__Var@?0??OnDBGameAndroidInfo@CAttemperEngineSink@@IAE_NKPAXG@Z@4JA 004a00c4     AttemperEngineSink.obj
 0003:000000c8       ?__LINE__Var@?0??OnDBGameAndroidParameter@CAttemperEngineSink@@IAE_NKPAXG@Z@4JA 004a00c8     AttemperEngineSink.obj
 0003:000000cc       ?__LINE__Var@?0??OnDBGamePropertyBuff@CAttemperEngineSink@@IAE_NKPAXG@Z@4JA 004a00cc     AttemperEngineSink.obj
 0003:000000d0       ?__LINE__Var@?0??OnDBPCMemberDayQueryInfoResult@CAttemperEngineSink@@IAE_NKPAXG@Z@4JA 004a00d0     AttemperEngineSink.obj
 0003:000000d4       ?__LINE__Var@?0??OnDBPCMemberDayPresentResult@CAttemperEngineSink@@IAE_NKPAXG@Z@4JA 004a00d4     AttemperEngineSink.obj
 0003:000000d8       ?__LINE__Var@?0??OnDBPCMemberDayGiftResult@CAttemperEngineSink@@IAE_NKPAXG@Z@4JA 004a00d8     AttemperEngineSink.obj
 0003:000000dc       ?__LINE__Var@?0??OnDBUserInsureInfo@CAttemperEngineSink@@IAE_NKPAXG@Z@4JA 004a00dc     AttemperEngineSink.obj
 0003:000000e0       ?__LINE__Var@?0??OnDBUserInsureSuccess@CAttemperEngineSink@@IAE_NKPAXG@Z@4JA 004a00e0     AttemperEngineSink.obj
 0003:000000e4       ?__LINE__Var@?0??OnDBUserInsureFailure@CAttemperEngineSink@@IAE_NKPAXG@Z@4JA 004a00e4     AttemperEngineSink.obj
 0003:000000e8       ?__LINE__Var@?0??OnDBUserInsureUserInfo@CAttemperEngineSink@@IAE_NKPAXG@Z@4JA 004a00e8     AttemperEngineSink.obj
 0003:000000ec       ?__LINE__Var@?0??OnDBUserInsureEnableResult@CAttemperEngineSink@@IAE_NKPAXG@Z@4JA 004a00ec     AttemperEngineSink.obj
 0003:000000f0       ?__LINE__Var@?0??OnDBPropertySuccess@CAttemperEngineSink@@IAE_NKPAXG@Z@4JA 004a00f0     AttemperEngineSink.obj
 0003:000000f4       ?__LINE__Var@?0??OnDBPropertyFailure@CAttemperEngineSink@@IAE_NKPAXG@Z@4JA 004a00f4     AttemperEngineSink.obj
 0003:000000f8       ?__LINE__Var@?0??OnDBGamePropertyBuy@CAttemperEngineSink@@IAE_NKPAXG@Z@4JA 004a00f8     AttemperEngineSink.obj
 0003:000000fc       ?__LINE__Var@?0??OnDBPurchaseResult@CAttemperEngineSink@@IAE_NKPAXG@Z@4JA 004a00fc     AttemperEngineSink.obj
 0003:00000100       ?__LINE__Var@?0??OnDBExChangeResult@CAttemperEngineSink@@IAE_NKPAXG@Z@4JA 004a0100     AttemperEngineSink.obj
 0003:00000104       ?__LINE__Var@?0??OnDBPCUserCheckInResult@CAttemperEngineSink@@IAE_NKPAXG@Z@4JA 004a0104     AttemperEngineSink.obj
 0003:00000108       ?__LINE__Var@?0??OnDBPCCheckInReward@CAttemperEngineSink@@IAE_NKPAXG@Z@4JA 004a0108     AttemperEngineSink.obj
 0003:0000010c       ?__LINE__Var@?0??OnDBPCBaseEnsureResult@CAttemperEngineSink@@IAE_NKPAXG@Z@4JA 004a010c     AttemperEngineSink.obj
 0003:00000110       ?__LINE__Var@?0??OnDBUserTaskInfo@CAttemperEngineSink@@IAE_NKPAXG@Z@4JA 004a0110     AttemperEngineSink.obj
 0003:00000114       ?__LINE__Var@?0??OnDBUserTaskResult@CAttemperEngineSink@@IAE_NKPAXG@Z@4JA 004a0114     AttemperEngineSink.obj
 0003:00000118       ?__LINE__Var@?0??OnDBSystemMessage@CAttemperEngineSink@@IAE_NKPAXG@Z@4JA 004a0118     AttemperEngineSink.obj
 0003:0000011c       ?__LINE__Var@?0??OnDBPCGrowLevelParameter@CAttemperEngineSink@@IAE_NKPAXG@Z@4JA 004a011c     AttemperEngineSink.obj
 0003:00000120       ?__LINE__Var@?0??OnDBPCGrowLevelUpgrade@CAttemperEngineSink@@IAE_NKPAXG@Z@4JA 004a0120     AttemperEngineSink.obj
 0003:00000124       ?__LINE__Var@?0??OnDBCreateSucess@CAttemperEngineSink@@IAE_NKPAXG@Z@4JA 004a0124     AttemperEngineSink.obj
 0003:00000128       ?__LINE__Var@?0??OnDBCreateFailure@CAttemperEngineSink@@IAE_NKPAXG@Z@4JA 004a0128     AttemperEngineSink.obj
 0003:0000012c       ?__LINE__Var@?0??OnDBCancelCreateTable@CAttemperEngineSink@@IAE_NKPAXG@Z@4JA 004a012c     AttemperEngineSink.obj
 0003:00000130       ?__LINE__Var@?0??OnDBLoadPersonalParameter@CAttemperEngineSink@@IAE_NKPAXG@Z@4JA 004a0130     AttemperEngineSink.obj
 0003:00000134       ?__LINE__Var@?0??OnDBDissumeTableResult@CAttemperEngineSink@@IAE_NKPAXG@Z@4JA 004a0134     AttemperEngineSink.obj
 0003:00000138       ?__LINE__Var@?0??OnDBCurrenceRoomCardAndBeant@CAttemperEngineSink@@IAE_NKPAXG@Z@4JA 004a0138     AttemperEngineSink.obj
 0003:0000013c       ?__LINE__Var@?0??OnTCPSocketMainRegister@CAttemperEngineSink@@IAE_NGPAXG@Z@4JA 004a013c     AttemperEngineSink.obj
 0003:00000140       ?__LINE__Var@?0??OnTCPSocketMainPersonalRoomRegister@CAttemperEngineSink@@IAE_NGPAXG@Z@4JA 004a0140     AttemperEngineSink.obj
 0003:00000144       ?__LINE__Var@?0??OnTCPSocketMainServiceInfo@CAttemperEngineSink@@IAE_NGPAXG@Z@4JA 004a0144     AttemperEngineSink.obj
 0003:00000148       ?__LINE__Var@?0??OnTCPSocketMainUserCollect@CAttemperEngineSink@@IAE_NGPAXG@Z@4JA 004a0148     AttemperEngineSink.obj
 0003:0000014c       ?__LINE__Var@?0??OnTCPSocketMainAndroidService@CAttemperEngineSink@@IAE_NGPAXG@Z@4JA 004a014c     AttemperEngineSink.obj
 0003:00000150       ?__LINE__Var@?0??OnTCPNetworkMainInsure@CAttemperEngineSink@@IAE_NGPAXGK@Z@4JA 004a0150     AttemperEngineSink.obj
 0003:00000154       ?__LINE__Var@?0??OnTCPNetworkMainMatch@CAttemperEngineSink@@IAE_NGPAXGK@Z@4JA 004a0154     AttemperEngineSink.obj
 0003:00000158       ?__LINE__Var@?0??OnTCPNetworkMainPersonalTable@CAttemperEngineSink@@IAE_NGPAXGK@Z@4JA 004a0158     AttemperEngineSink.obj
 0003:0000015c       ?__LINE__Var@?0??OnTCPNetworkMainGame@CAttemperEngineSink@@IAE_NGPAXGK@Z@4JA 004a015c     AttemperEngineSink.obj
 0003:00000160       ?__LINE__Var@?0??OnTCPNetworkMainFrame@CAttemperEngineSink@@IAE_NGPAXGK@Z@4JA 004a0160     AttemperEngineSink.obj
 0003:00000164       ?__LINE__Var@?0??OnTCPNetworkSubLogonUserID@CAttemperEngineSink@@IAE_NPAXGK@Z@4JA 004a0164     AttemperEngineSink.obj
 0003:00000168       ?__LINE__Var@?0??OnTCPNetworkSubLogonMobile@CAttemperEngineSink@@IAE_NPAXGK@Z@4JA 004a0168     AttemperEngineSink.obj
 0003:0000016c       ?__LINE__Var@?0??OnTCPNetworkSubLogonAccounts@CAttemperEngineSink@@IAE_NPAXGK@Z@4JA 004a016c     AttemperEngineSink.obj
 0003:00000170       ?__LINE__Var@?0??OnTCPNetworkSubUserRule@CAttemperEngineSink@@IAE_NPAXGK@Z@4JA 004a0170     AttemperEngineSink.obj
 0003:00000174       ?__LINE__Var@?0??OnTCPNetworkSubUserLookon@CAttemperEngineSink@@IAE_NPAXGK@Z@4JA 004a0174     AttemperEngineSink.obj
 0003:00000178       ?__LINE__Var@?0??OnTCPNetworkSubUserSitDown@CAttemperEngineSink@@IAE_NPAXGK@Z@4JA 004a0178     AttemperEngineSink.obj
 0003:0000017c       ?__LINE__Var@?0??OnTCPNetworkSubUserStandUp@CAttemperEngineSink@@IAE_NPAXGK@Z@4JA 004a017c     AttemperEngineSink.obj
 0003:00000180       ?__LINE__Var@?0??OnTCPNetworkSubUserChat@CAttemperEngineSink@@IAE_NPAXGK@Z@4JA 004a0180     AttemperEngineSink.obj
 0003:00000184       ?__LINE__Var@?0??OnTCPNetworkSubUserExpression@CAttemperEngineSink@@IAE_NPAXGK@Z@4JA 004a0184     AttemperEngineSink.obj
 0003:00000188       ?__LINE__Var@?0??OnTCPNetworkSubWisperChat@CAttemperEngineSink@@IAE_NPAXGK@Z@4JA 004a0188     AttemperEngineSink.obj
 0003:0000018c       ?__LINE__Var@?0??OnTCPNetworkSubWisperExpression@CAttemperEngineSink@@IAE_NPAXGK@Z@4JA 004a018c     AttemperEngineSink.obj
 0003:00000190       ?__LINE__Var@?0??OnTCPNetworkSubGamePropertyBuy@CAttemperEngineSink@@IAE_NPAXGK@Z@4JA 004a0190     AttemperEngineSink.obj
 0003:00000194       ?__LINE__Var@?0??OnTCPNetworkSubPropertyBackpack@CAttemperEngineSink@@IAE_NPAXGK@Z@4JA 004a0194     AttemperEngineSink.obj
 0003:00000198       ?__LINE__Var@?0??OnTCPNetworkSubPropertyUse@CAttemperEngineSink@@IAE_NPAXGK@Z@4JA 004a0198     AttemperEngineSink.obj
 0003:0000019c       ?__LINE__Var@?0??OnTCPNetworkSubQuerySendPresent@CAttemperEngineSink@@IAE_NPAXGK@Z@4JA 004a019c     AttemperEngineSink.obj
 0003:000001a0       ?__LINE__Var@?0??OnTCPNetworkSubPropertyPresent@CAttemperEngineSink@@IAE_NPAXGK@Z@4JA 004a01a0     AttemperEngineSink.obj
 0003:000001a4       ?__LINE__Var@?0??OnTCPNetworkSubGetSendPresent@CAttemperEngineSink@@IAE_NPAXGK@Z@4JA 004a01a4     AttemperEngineSink.obj
 0003:000001a8       ?__LINE__Var@?0??OnTCPNetwordSubSendTrumpet@CAttemperEngineSink@@IAE_NPAXGK@Z@4JA 004a01a8     AttemperEngineSink.obj
 0003:000001ac       ?__LINE__Var@?0??OnTCPNetworkSubUserInviteReq@CAttemperEngineSink@@IAE_NPAXGK@Z@4JA 004a01ac     AttemperEngineSink.obj
 0003:000001b0       ?__LINE__Var@?0??OnTCPNetworkSubUserRepulseSit@CAttemperEngineSink@@IAE_NPAXGK@Z@4JA 004a01b0     AttemperEngineSink.obj
 0003:000001b4       ?__LINE__Var@?0??OnTCPNetworkSubMemberKickUser@CAttemperEngineSink@@IAE_NPAXGK@Z@4JA 004a01b4     AttemperEngineSink.obj
 0003:000001b8       ?__LINE__Var@?0??OnTCPNetworkSubUserInfoReq@CAttemperEngineSink@@IAE_NPAXGK@Z@4JA 004a01b8     AttemperEngineSink.obj
 0003:000001bc       ?__LINE__Var@?0??OnTCPNetworkSubUserChairReq@CAttemperEngineSink@@IAE_NPAXGK@Z@4JA 004a01bc     AttemperEngineSink.obj
 0003:000001c0       ?__LINE__Var@?0??OnTCPNetworkSubChairUserInfoReq@CAttemperEngineSink@@IAE_NPAXGK@Z@4JA 004a01c0     AttemperEngineSink.obj
 0003:000001c4       ?__LINE__Var@?0??OnTCPNetworkSubGrowLevelQuery@CAttemperEngineSink@@IAE_NPAXGK@Z@4JA 004a01c4     AttemperEngineSink.obj
 0003:000001c8       ?__LINE__Var@?0??OnTCPNetworkSubPurchaseMember@CAttemperEngineSink@@IAE_NPAXGK@Z@4JA 004a01c8     AttemperEngineSink.obj
 0003:000001cc       ?__LINE__Var@?0??OnTCPNetworkSubExchangeScoreByIngot@CAttemperEngineSink@@IAE_NPAXGK@Z@4JA 004a01cc     AttemperEngineSink.obj
 0003:000001d0       ?__LINE__Var@?0??OnTCPNetworkSubExchangeScoreByBeans@CAttemperEngineSink@@IAE_NPAXGK@Z@4JA 004a01d0     AttemperEngineSink.obj
 0003:000001d4       ?__LINE__Var@?0??OnTCPNetworkSubQueryInsureInfo@CAttemperEngineSink@@IAE_NPAXGK@Z@4JA 004a01d4     AttemperEngineSink.obj
 0003:000001d8       ?__LINE__Var@?0??OnTCPNetworkSubEnableInsureRequest@CAttemperEngineSink@@IAE_NPAXGK@Z@4JA 004a01d8     AttemperEngineSink.obj
 0003:000001dc       ?__LINE__Var@?0??OnTCPNetworkSubSaveScoreRequest@CAttemperEngineSink@@IAE_NPAXGK@Z@4JA 004a01dc     AttemperEngineSink.obj
 0003:000001e0       ?__LINE__Var@?0??OnTCPNetworkSubTakeScoreRequest@CAttemperEngineSink@@IAE_NPAXGK@Z@4JA 004a01e0     AttemperEngineSink.obj
 0003:000001e4       ?__LINE__Var@?0??OnTCPNetworkSubTransferScoreRequest@CAttemperEngineSink@@IAE_NPAXGK@Z@4JA 004a01e4     AttemperEngineSink.obj
 0003:000001e8       ?__LINE__Var@?0??OnTCPNetworkSubQueryUserInfoRequest@CAttemperEngineSink@@IAE_NPAXGK@Z@4JA 004a01e8     AttemperEngineSink.obj
 0003:000001ec       ?__LINE__Var@?0??OnTCPNetworkSubCheckInQueryRequest@CAttemperEngineSink@@IAE_NPAXGK@Z@4JA 004a01ec     AttemperEngineSink.obj
 0003:000001f0       ?__LINE__Var@?0??OnTCPNetworkSubCheckInDoneRequest@CAttemperEngineSink@@IAE_NPAXGK@Z@4JA 004a01f0     AttemperEngineSink.obj
 0003:000001f4       ?__LINE__Var@?0??OnTCPNetworkSubTakeTaskRequest@CAttemperEngineSink@@IAE_NPAXGK@Z@4JA 004a01f4     AttemperEngineSink.obj
 0003:000001f8       ?__LINE__Var@?0??OnTCPNetworkSubTaskRewardRequest@CAttemperEngineSink@@IAE_NPAXGK@Z@4JA 004a01f8     AttemperEngineSink.obj
 0003:000001fc       ?__LINE__Var@?0??OnTCPNetworkSubLoadTaskInfoRequest@CAttemperEngineSink@@IAE_NPAXGK@Z@4JA 004a01fc     AttemperEngineSink.obj
 0003:00000200       ?__LINE__Var@?0??OnTCPNetworkSubGiveUpTaskRequest@CAttemperEngineSink@@IAE_NPAXGK@Z@4JA 004a0200     AttemperEngineSink.obj
 0003:00000204       ?__LINE__Var@?0??OnTCPNetworkSubMemberQueryInfo@CAttemperEngineSink@@IAE_NPAXGK@Z@4JA 004a0204     AttemperEngineSink.obj
 0003:00000208       ?__LINE__Var@?0??OnTCPNetworkSubMemberDayPresent@CAttemperEngineSink@@IAE_NPAXGK@Z@4JA 004a0208     AttemperEngineSink.obj
 0003:0000020c       ?__LINE__Var@?0??OnTCPNetworkSubMemberDayGift@CAttemperEngineSink@@IAE_NPAXGK@Z@4JA 004a020c     AttemperEngineSink.obj
 0003:00000210       ?__LINE__Var@?0??OnTCPNetworkSubBaseEnsureTakeRequest@CAttemperEngineSink@@IAE_NPAXGK@Z@4JA 004a0210     AttemperEngineSink.obj
 0003:00000214       ?__LINE__Var@?0??OnTCPNetworkSubQueryOption@CAttemperEngineSink@@IAE_NPAXGK@Z@4JA 004a0214     AttemperEngineSink.obj
 0003:00000218       ?__LINE__Var@?0??OnTCPNetworkSubOptionServer@CAttemperEngineSink@@IAE_NPAXGK@Z@4JA 004a0218     AttemperEngineSink.obj
 0003:0000021c       ?__LINE__Var@?0??OnTCPNetworkSubManagerKickUser@CAttemperEngineSink@@IAE_NPAXGK@Z@4JA 004a021c     AttemperEngineSink.obj
 0003:00000220       ?__LINE__Var@?0??OnTCPNetworkSubLimitUserChat@CAttemperEngineSink@@IAE_NPAXGK@Z@4JA 004a0220     AttemperEngineSink.obj
 0003:00000224       ?__LINE__Var@?0??OnTCPNetworkSubKickAllUser@CAttemperEngineSink@@IAE_NPAXGK@Z@4JA 004a0224     AttemperEngineSink.obj
 0003:00000228       ?__LINE__Var@?0??OnTCPNetworkSubSendMessage@CAttemperEngineSink@@IAE_NPAXGK@Z@4JA 004a0228     AttemperEngineSink.obj
 0003:0000022c       ?__LINE__Var@?0??OnTCPNetworkSubDismissGame@CAttemperEngineSink@@IAE_NPAXGK@Z@4JA 004a022c     AttemperEngineSink.obj
 0003:00000230       ?__LINE__Var@?0??OnTCPNetworkSubWarningUser@CAttemperEngineSink@@IAE_NPAXGK@Z@4JA 004a0230     AttemperEngineSink.obj
 0003:00000234       ?__LINE__Var@?0??OnTCPNetworkSubRoomCheat@CAttemperEngineSink@@IAE_NPAXGK@Z@4JA 004a0234     AttemperEngineSink.obj
 0003:00000238       ?__LINE__Var@?0??OnTCPNetworkSubCreateTable@CAttemperEngineSink@@IAE_NPAXGK@Z@4JA 004a0238     AttemperEngineSink.obj
 0003:0000023c       ?__LINE__Var@?0??OnTCPNetworkSubCancelRequest@CAttemperEngineSink@@IAE_NPAXGK@Z@4JA 004a023c     AttemperEngineSink.obj
 0003:00000240       ?__LINE__Var@?0??OnTCPNetworkSubRequestReply@CAttemperEngineSink@@IAE_NPAXGK@Z@4JA 004a0240     AttemperEngineSink.obj
 0003:00000244       ?__LINE__Var@?0??OnTCPNetworkSubHostDissumeTable@CAttemperEngineSink@@IAE_NPAXGK@Z@4JA 004a0244     AttemperEngineSink.obj
 0003:00000248       ?__LINE__Var@?0??OnEventUserLogon@CAttemperEngineSink@@IAEXPAUIServerUserItem@@_N@Z@4JA 004a0248     AttemperEngineSink.obj
 0003:0000024c       ?__LINE__Var@?0??PerformTaskProgress@CAttemperEngineSink@@IAE_NPAUIServerUserItem@@PAUtagUserTaskEntry@@KKK@Z@4JA 004a024c     AttemperEngineSink.obj
 0003:00000250       ?__LINE__Var@?0??PerformRoomTaskProgress@CAttemperEngineSink@@QAE_NPAUIServerUserItem@@PAUtagUserTaskEntry@@HHH@Z@4JA 004a0250     AttemperEngineSink.obj
 0003:00000254       ?__LINE__Var@?0??SwitchUserItemConnect@CAttemperEngineSink@@IAE_NPAUIServerUserItem@@QADGEGG@Z@4JA 004a0254     AttemperEngineSink.obj
 0003:00000258       ?__LINE__Var@?0??SendInsureFailure@CAttemperEngineSink@@IAE_NPAUIServerUserItem@@PBDJE@Z@4JA 004a0258     AttemperEngineSink.obj
 0003:0000025c       ?__LINE__Var@?0??SendUserInfoPacket@CAttemperEngineSink@@IAE_NPAUIServerUserItem@@K_N@Z@4JA 004a025c     AttemperEngineSink.obj
 0003:00000260       ?__LINE__Var@?0??GetBindUserItem@CAttemperEngineSink@@UAEPAUIServerUserItem@@G@Z@4JA 004a0260     AttemperEngineSink.obj
 0003:00000264       ?__LINE__Var@?0??GetBindParameter@CAttemperEngineSink@@UAEPAUtagBindParameter@@G@Z@4JA 004a0264     AttemperEngineSink.obj
 0003:00000268       ?__LINE__Var@?0??GetPropertyType@CAttemperEngineSink@@QAEGG@Z@4JA 004a0268     AttemperEngineSink.obj
 0003:0000026c       ?__LINE__Var@?0??PerformDistribute@CAttemperEngineSink@@IAE_NXZ@4JA 004a026c     AttemperEngineSink.obj
 0003:00000270       ?__LINE__Var@?0??InitTableFrameArray@CAttemperEngineSink@@IAE_NXZ@4JA 004a0270     AttemperEngineSink.obj
 0003:00000274       ?__LINE__Var@?0??InsertDistribute@CAttemperEngineSink@@UAE_NPAUIServerUserItem@@@Z@4JA 004a0274     AttemperEngineSink.obj
 0003:00000278       ?__LINE__Var@?0??SendUserInfoPacketBatchToMobileUser@CAttemperEngineSink@@IAE_NPAUIServerUserItem@@K@Z@4JA 004a0278     AttemperEngineSink.obj
 0003:0000027c       ?__LINE__Var@?0??SendUserInfoPacketBatchToPage@CAttemperEngineSink@@IAE_NPAUIServerUserItem@@@Z@4JA 004a027c     AttemperEngineSink.obj
 0003:00000280       ?__LINE__Var@?0??SendSystemMessage@CAttemperEngineSink@@IAE_NPAUCMD_GR_SendMessage@@G@Z@4JA 004a0280     AttemperEngineSink.obj
 0003:00000284       ?m_nCategory@CTrace@ATL@@1IA 004a0284     DataBaseEngineSink.obj
 0003:00000288       ?__LINE__Var@?0??AtlThrowImpl@ATL@@YGXJ@Z@4JA 004a0288     DataBaseEngineSink.obj
 0003:0000028c       ?__LINE__Var@?0???0CTime@ATL@@QAE@HHHHHHH@Z@4JA 004a028c     DataBaseEngineSink.obj
 0003:00000290       ?__LINE__Var@?0??GetDataBase@CDataBaseEngineSink@@UAEPAXABU_GUID@@K@Z@4JA 004a0290     DataBaseEngineSink.obj
 0003:00000294       ?__LINE__Var@?0??GetDataBaseEngine@CDataBaseEngineSink@@UAEPAXABU_GUID@@K@Z@4JA 004a0294     DataBaseEngineSink.obj
 0003:00000298       ?__LINE__Var@?0??OnDataBaseEngineStart@CDataBaseEngineSink@@UAE_NPAUIUnknownEx@@@Z@4JA 004a0298     DataBaseEngineSink.obj
 0003:0000029c       ?__LINE__Var@?0??OnRequestLogonUserID@CDataBaseEngineSink@@IAE_NKPAXGAAKH@Z@4JA 004a029c     DataBaseEngineSink.obj
 0003:000002a0       ?__LINE__Var@?0??OnRequestLogonMobile@CDataBaseEngineSink@@IAE_NKPAXGAAK@Z@4JA 004a02a0     DataBaseEngineSink.obj
 0003:000002a4       ?__LINE__Var@?0??OnRequestLogonAccounts@CDataBaseEngineSink@@IAE_NKPAXGAAK@Z@4JA 004a02a4     DataBaseEngineSink.obj
 0003:000002a8       ?__LINE__Var@?0??OnRequestWriteGameScore@CDataBaseEngineSink@@IAE_NKPAXGAAK@Z@4JA 004a02a8     DataBaseEngineSink.obj
 0003:000002ac       ?__LINE__Var@?0??OnRequestLeaveGameServer@CDataBaseEngineSink@@IAE_NKPAXGAAK@Z@4JA 004a02ac     DataBaseEngineSink.obj
 0003:000002b0       ?__LINE__Var@?0??OnRequestWritePersonalGameScore@CDataBaseEngineSink@@IAE_NKPAXGAAK@Z@4JA 004a02b0     DataBaseEngineSink.obj
 0003:000002b4       ?__LINE__Var@?0??OnRequestGameScoreRecord@CDataBaseEngineSink@@IAE_NKPAXGAAK@Z@4JA 004a02b4     DataBaseEngineSink.obj
 0003:000002b8       ?__LINE__Var@?0??OnRequestLoadGameColumn@CDataBaseEngineSink@@IAE_NKPAXGAAK@Z@4JA 004a02b8     DataBaseEngineSink.obj
 0003:000002bc       ?__LINE__Var@?0??OnRequestLoadAndroidUser@CDataBaseEngineSink@@IAE_NKPAXGAAK@Z@4JA 004a02bc     DataBaseEngineSink.obj
 0003:000002c0       ?__LINE__Var@?0??OnRequestLoadAndroidParameter@CDataBaseEngineSink@@IAE_NKPAXGAAK@Z@4JA 004a02c0     DataBaseEngineSink.obj
 0003:000002c4       ?__LINE__Var@?0??OnRequestUserEnableInsure@CDataBaseEngineSink@@IAE_NKPAXGAAK@Z@4JA 004a02c4     DataBaseEngineSink.obj
 0003:000002c8       ?__LINE__Var@?0??OnRequestUserSaveScore@CDataBaseEngineSink@@IAE_NKPAXGAAK@Z@4JA 004a02c8     DataBaseEngineSink.obj
 0003:000002cc       ?__LINE__Var@?0??OnRequestUserTakeScore@CDataBaseEngineSink@@IAE_NKPAXGAAK@Z@4JA 004a02cc     DataBaseEngineSink.obj
 0003:000002d0       ?__LINE__Var@?0??OnRequestUserTransferScore@CDataBaseEngineSink@@IAE_NKPAXGAAK@Z@4JA 004a02d0     DataBaseEngineSink.obj
 0003:000002d4       ?__LINE__Var@?0??OnRequestQueryInsureInfo@CDataBaseEngineSink@@IAE_NKPAXGAAK@Z@4JA 004a02d4     DataBaseEngineSink.obj
 0003:000002d8       ?__LINE__Var@?0??OnRequestQueryTransferUserInfo@CDataBaseEngineSink@@IAE_NKPAXGAAK@Z@4JA 004a02d8     DataBaseEngineSink.obj
 0003:000002dc       ?__LINE__Var@?0??OnRequestTaskGiveUp@CDataBaseEngineSink@@IAE_NKPAXGAAK@Z@4JA 004a02dc     DataBaseEngineSink.obj
 0003:000002e0       ?__LINE__Var@?0??OnRequestTaskTake@CDataBaseEngineSink@@IAE_NKPAXGAAK@Z@4JA 004a02e0     DataBaseEngineSink.obj
 0003:000002e4       ?__LINE__Var@?0??OnRequestTaskReward@CDataBaseEngineSink@@IAE_NKPAXGAAK@Z@4JA 004a02e4     DataBaseEngineSink.obj
 0003:000002e8       ?__LINE__Var@?0??OnRequestTaskQueryInfo@CDataBaseEngineSink@@IAE_NKPAXGAAK@Z@4JA 004a02e8     DataBaseEngineSink.obj
 0003:000002ec       ?__LINE__Var@?0??OnRequestPurchaseMember@CDataBaseEngineSink@@IAE_NKPAXGAAK@Z@4JA 004a02ec     DataBaseEngineSink.obj
 0003:000002f0       ?__LINE__Var@?0??OnRequestExchangeScoreByIngot@CDataBaseEngineSink@@IAE_NKPAXGAAK@Z@4JA 004a02f0     DataBaseEngineSink.obj
 0003:000002f4       ?__LINE__Var@?0??OnRequestExchangeScoreByBeans@CDataBaseEngineSink@@IAE_NKPAXGAAK@Z@4JA 004a02f4     DataBaseEngineSink.obj
 0003:000002f8       ?__LINE__Var@?0??OnRequestCreateTable@CDataBaseEngineSink@@IAE_NKPAXGAAK@Z@4JA 004a02f8     DataBaseEngineSink.obj
 0003:000002fc       ?__LINE__Var@?0??OnRequsetInsertCreateRecord@CDataBaseEngineSink@@IAE_NKPAXGAAK@Z@4JA 004a02fc     DataBaseEngineSink.obj
 0003:00000300       ?__LINE__Var@?0??OnRequestRoomTaskProgress@CDataBaseEngineSink@@IAE_NKPAXGAAK@Z@4JA 004a0300     DataBaseEngineSink.obj
 0003:00000304       ?__LINE__Var@?0??OnRequestCancelCreateTable@CDataBaseEngineSink@@IAE_NKPAXGAAK@Z@4JA 004a0304     DataBaseEngineSink.obj
 0003:00000308       ?__LINE__Var@?0??OnRequestPayRoomCard@CDataBaseEngineSink@@IAE_NKPAXGAAK@Z@4JA 004a0308     DataBaseEngineSink.obj
 0003:0000030c       ?__LINE__Var@?0??OnRequestHostCancelCreateTable@CDataBaseEngineSink@@IAE_NKPAXGAAK@Z@4JA 004a030c     DataBaseEngineSink.obj
 0003:00000310       ?__LINE__Var@?0??OnRequsetDissumeRoom@CDataBaseEngineSink@@IAE_NKPAXGAAK@Z@4JA 004a0310     DataBaseEngineSink.obj
 0003:00000314       ?__LINE__Var@?0??OnRequestBuyGameProperty@CDataBaseEngineSink@@IAE_NKPAXGAAK@Z@4JA 004a0314     DataBaseEngineSink.obj
 0003:00000318       ?__LINE__Var@?0??OnRequestPropertyBackpack@CDataBaseEngineSink@@IAE_NKPAXGAAK@Z@4JA 004a0318     DataBaseEngineSink.obj
 0003:0000031c       ?__LINE__Var@?0??OnRequestPropertyUse@CDataBaseEngineSink@@IAE_NKPAXGAAK@Z@4JA 004a031c     DataBaseEngineSink.obj
 0003:00000320       ?__LINE__Var@?0??OnRequestQuerySendPresent@CDataBaseEngineSink@@IAE_NKPAXGAAK@Z@4JA 004a0320     DataBaseEngineSink.obj
 0003:00000324       ?__LINE__Var@?0??OnRequestPropertyPresent@CDataBaseEngineSink@@IAE_NKPAXGAAK@Z@4JA 004a0324     DataBaseEngineSink.obj
 0003:00000328       ?__LINE__Var@?0??OnRequestGetSendPresent@CDataBaseEngineSink@@IAE_NKPAXGAAK@Z@4JA 004a0328     DataBaseEngineSink.obj
 0003:0000032c       ?__LINE__Var@?0??OnRequestLoadGameBuff@CDataBaseEngineSink@@IAE_NKPAXGAAK@Z@4JA 004a032c     DataBaseEngineSink.obj
 0003:00000330       ?__LINE__Var@?0??OnRequestLoadGameTrumpet@CDataBaseEngineSink@@IAE_NKPAXGAAK@Z@4JA 004a0330     DataBaseEngineSink.obj
 0003:00000334       ?__LINE__Var@?0??OnRequestSendTrumpet@CDataBaseEngineSink@@IAE_NKPAXGAAK@Z@4JA 004a0334     DataBaseEngineSink.obj
 0003:00000338       ?__LINE__Var@?0??OnRequestMemberQueryInfo@CDataBaseEngineSink@@IAE_NKPAXGAAK@Z@4JA 004a0338     DataBaseEngineSink.obj
 0003:0000033c       ?__LINE__Var@?0??OnRequestMemberDayPresent@CDataBaseEngineSink@@IAE_NKPAXGAAK@Z@4JA 004a033c     DataBaseEngineSink.obj
 0003:00000340       ?__LINE__Var@?0??OnRequestMemberDayGift@CDataBaseEngineSink@@IAE_NKPAXGAAK@Z@4JA 004a0340     DataBaseEngineSink.obj
 0003:00000344       ?__LINE__Var@?0??OnRequestCheckInQueryInfo@CDataBaseEngineSink@@IAE_NKPAXGAAK@Z@4JA 004a0344     DataBaseEngineSink.obj
 0003:00000348       ?__LINE__Var@?0??OnRequestCheckInDone@CDataBaseEngineSink@@IAE_NKPAXGAAK@Z@4JA 004a0348     DataBaseEngineSink.obj
 0003:0000034c       ?__LINE__Var@?0??OnRequestTakeBaseEnsure@CDataBaseEngineSink@@IAE_NKPAXGAAK@Z@4JA 004a034c     DataBaseEngineSink.obj
 0003:00000350       ?__LINE__Var@?0??OnRequestWriteUserGameData@CDataBaseEngineSink@@IAE_NKPAXGAAK@Z@4JA 004a0350     DataBaseEngineSink.obj
 0003:00000354       ?__LINE__Var@?0??OnRequestMatchSignup@CDataBaseEngineSink@@IAE_NKPAXGAAK@Z@4JA 004a0354     DataBaseEngineSink.obj
 0003:00000358       ?__LINE__Var@?0??OnRequestMatchUnSignup@CDataBaseEngineSink@@IAE_NKPAXGAAK@Z@4JA 004a0358     DataBaseEngineSink.obj
 0003:0000035c       ?__LINE__Var@?0??OnRequestMatchSignupStart@CDataBaseEngineSink@@IAE_NKPAXGAAK@Z@4JA 004a035c     DataBaseEngineSink.obj
 0003:00000360       ?__LINE__Var@?0??OnRequestMatchQueryQualify@CDataBaseEngineSink@@IAE_NKPAXGAAK@Z@4JA 004a0360     DataBaseEngineSink.obj
 0003:00000364       ?__LINE__Var@?0??OnRequestMatchBuySafeCard@CDataBaseEngineSink@@IAE_NKPAXGAAK@Z@4JA 004a0364     DataBaseEngineSink.obj
 0003:00000368       ?__LINE__Var@?0??OnRequestMatchStart@CDataBaseEngineSink@@IAE_NKPAXGAAK@Z@4JA 004a0368     DataBaseEngineSink.obj
 0003:0000036c       ?__LINE__Var@?0??OnRequestMatchOver@CDataBaseEngineSink@@IAE_NKPAXGAAK@Z@4JA 004a036c     DataBaseEngineSink.obj
 0003:00000370       ?__LINE__Var@?0??OnRequestMatchCancel@CDataBaseEngineSink@@IAE_NKPAXGAAK@Z@4JA 004a0370     DataBaseEngineSink.obj
 0003:00000374       ?__LINE__Var@?0??OnRequestMatchReward@CDataBaseEngineSink@@IAE_NKPAXGAAK@Z@4JA 004a0374     DataBaseEngineSink.obj
 0003:00000378       ?__LINE__Var@?0??OnRequestMatchEliminate@CDataBaseEngineSink@@IAE_NKPAXGAAK@Z@4JA 004a0378     DataBaseEngineSink.obj
 0003:0000037c       ?__LINE__Var@?0??OnRequestMatchRecordGrades@CDataBaseEngineSink@@IAE_NKPAXGAAK@Z@4JA 004a037c     DataBaseEngineSink.obj
 0003:00000380       ?__LINE__Var@?0??OnRequestMatchUserRevive@CDataBaseEngineSink@@IAE_NKPAXGAAK@Z@4JA 004a0380     DataBaseEngineSink.obj
 0003:00000384       ?__LINE__Var@?0??OnRequestMatchQueryReviveInfo@CDataBaseEngineSink@@IAE_NKPAXGAAK@Z@4JA 004a0384     DataBaseEngineSink.obj
 0003:00000388       ?__LINE__Var@?0??OnRequestQueryGrowLevelParameter@CDataBaseEngineSink@@IAE_NKPAXGAAK@Z@4JA 004a0388     DataBaseEngineSink.obj
 0003:0000038c       ?__LINE__Var@?0??OnRequestManageUserRight@CDataBaseEngineSink@@IAE_NKPAXGAAK@Z@4JA 004a038c     DataBaseEngineSink.obj
 0003:00000390       ?__LINE__Var@?0??OnRequestManageMatchRight@CDataBaseEngineSink@@IAE_NKPAXGAAK@Z@4JA 004a0390     DataBaseEngineSink.obj
 0003:00000394       ?__LINE__Var@?0??OnRequestUnlockAndroidUser@CDataBaseEngineSink@@IAE_NKPAXGAAK@Z@4JA 004a0394     DataBaseEngineSink.obj
 0003:00000398       ?__LINE__Var@?0??OnLogonDisposeResult@CDataBaseEngineSink@@AAEXKKPBD_NEGG@Z@4JA 004a0398     DataBaseEngineSink.obj
 0003:0000039c       ?__LINE__Var@?0??OnRequestWriteJoinInfo@CDataBaseEngineSink@@IAE_NKPAXGAAK@Z@4JA 004a039c     DataBaseEngineSink.obj
 0003:000003a0       ?__LINE__Var@?0??OnRequestWriteVideoPlayerInfo@CDataBaseEngineSink@@IAE_NKPAXGAAK@Z@4JA 004a03a0     DataBaseEngineSink.obj
 0003:000003a4       ?__LINE__Var@?0??OnRequestWriteVideoDataInfo@CDataBaseEngineSink@@IAE_NKPAXGAAK@Z@4JA 004a03a4     DataBaseEngineSink.obj
 0003:000003a8       ?__LINE__Var@?0??StartService@CDBCorrespondManager@@UAE_NXZ@4JA 004a03a8     DBCorrespondManager.obj
 0003:000003ac       ?__LINE__Var@?0???1CDistributeNodePool@@QAE@XZ@4JA 004a03ac     DistributeManager.obj
 0003:000003b0       ?__LINE__Var@?0??StartServerService@CGameServerDlg@@IAE_NG@Z@4JA 004a03b0     GameServerDlg.obj
 0003:000003b4       ?__LINE__Var@?0??OnBnClickedStartService@CGameServerDlg@@IAEXXZ@4JA 004a03b4     GameServerDlg.obj
 0003:000003b8       ?__LINE__Var@?0??OnBnClickedStopService@CGameServerDlg@@IAEXXZ@4JA 004a03b8     GameServerDlg.obj
 0003:000003bc       ?__LINE__Var@?0??ReadMobileParameter@CInitParameter@@QAEXXZ@4JA 004a03bc     InitParameter.obj
 0003:000003c0       ?__LINE__Var@?0??_Adjust_manually_vector_aligned@std@@YAXAAPAXAAI@Z@4JA 004a03c0     SensitiveWordsFilter.obj
 0003:000003c4       ?__LINE__Var@?0??Filtrate@CFilterTree@@QAE?AV?$CStringT@DV?$StrTraitMFC_DLL@DV?$ChTraitsCRT@D@ATL@@@@@ATL@@PBD@Z@4JA 004a03c4     SensitiveWordsFilter.obj
 0003:000003c8       ?__LINE__Var@?0??Reset@CFilterTree@@QAEXXZ@4JA 004a03c8     SensitiveWordsFilter.obj
 0003:000003cc       ?__LINE__Var@?0???1CServerListManager@NServerListManager@@UAE@XZ@4JA 004a03cc     ServerListManager.obj
 0003:000003d0       ?__LINE__Var@?0??InsertGameType@CServerListManager@NServerListManager@@QAE_NPAUtagGameType@@@Z@4JA 004a03d0     ServerListManager.obj
 0003:000003d4       ?__LINE__Var@?0??InsertGameKind@CServerListManager@NServerListManager@@QAE_NPAUtagGameKind@@@Z@4JA 004a03d4     ServerListManager.obj
 0003:000003d8       ?__LINE__Var@?0??InsertGameNode@CServerListManager@NServerListManager@@QAE_NPAUtagGameNode@@@Z@4JA 004a03d8     ServerListManager.obj
 0003:000003dc       ?__LINE__Var@?0??InsertGamePage@CServerListManager@NServerListManager@@QAE_NPAUtagGamePage@@@Z@4JA 004a03dc     ServerListManager.obj
 0003:000003e0       ?__LINE__Var@?0??InsertGameServer@CServerListManager@NServerListManager@@QAE_NPAUtagGameServer@@@Z@4JA 004a03e0     ServerListManager.obj
 0003:000003e4       ?__LINE__Var@?0???0CServiceUnits@@QAE@XZ@4JA 004a03e4     ServiceUnits.obj
 0003:000003e8       ?__LINE__Var@?0??PostControlRequest@CServiceUnits@@QAE_NGPAXG@Z@4JA 004a03e8     ServiceUnits.obj
 0003:000003ec       ?__LINE__Var@?0??StartService@CServiceUnits@@QAE_NXZ@4JA 004a03ec     ServiceUnits.obj
 0003:000003f0       ?__LINE__Var@?0??CollocateService@CServiceUnits@@QAE_NPBDAAUtagGameServiceOption@@@Z@4JA 004a03f0     ServiceUnits.obj
 0003:000003f4       ?__LINE__Var@?0??CollocateService@CServiceUnits@@QAE_NAAUtagGameMatchOption@@@Z@4JA 004a03f4     ServiceUnits.obj
 0003:000003f8       ?__LINE__Var@?0??StartKernelService@CServiceUnits@@IAE_NXZ@4JA 004a03f8     ServiceUnits.obj
 0003:000003fc       ?__LINE__Var@?0??StartNetworkService@CServiceUnits@@IAE_NXZ@4JA 004a03fc     ServiceUnits.obj
 0003:00000400       ?__LINE__Var@?0??SetServiceStatus@CServiceUnits@@AAE_NW4enServiceStatus@@@Z@4JA 004a0400     ServiceUnits.obj
 0003:00000404       ?__LINE__Var@?0??SendControlPacket@CServiceUnits@@AAE_NGPAXG@Z@4JA 004a0404     ServiceUnits.obj
 0003:00000408       ?__LINE__Var@?0??LoadDataBaseParameter@CServiceUnits@@QAE_NPBD0AAUtagDataBaseParameter@@@Z@4JA 004a0408     ServiceUnits.obj
 0003:0000040c       ?__LINE__Var@?0??OnUIControlRequest@CServiceUnits@@IAEJIJ@Z@4JA 004a040c     ServiceUnits.obj
 0003:00000410       ?__LINE__Var@?0??WritePersonalDissumeInfo@CServiceUnits@@AAE_NXZ@4JA 004a0410     ServiceUnits.obj
 0003:00000414       __pIncludeInitManaged      004a0414     Stdafx.obj
 0003:00000418       ?__LINE__Var@?0??AtlWinModuleInit@ATL@@YGJPAU_ATL_WIN_MODULE70@2@@Z@4JA 004a0418     Stdafx.obj
 0003:0000041c       ?__LINE__Var@?0??_Maklocwcs@std@@YAPA_WPB_W@Z@4JA 004a041c     Stdafx.obj
 0003:00000420       ?__LINE__Var@?0??GetLocalTm@CTime@ATL@@QBEPAUtm@@PAU4@@Z@4JA 004a0420     TableFrame.obj
 0003:00000480       ?__LINE__Var@?0??StartGame@CTableFrame@@UAE_NXZ@4JA 004a0480     TableFrame.obj
 0003:00000484       ?__LINE__Var@?0??DismissGame@CTableFrame@@UAE_NXZ@4JA 004a0484     TableFrame.obj
 0003:00000488       ?__LINE__Var@?0??ConcludeGame@CTableFrame@@UAE_NEH@Z@4JA 004a0488     TableFrame.obj
 0003:0000048c       ?__LINE__Var@?0??WriteUserScore@CTableFrame@@UAE_NGAAUtagScoreInfo@@KK@Z@4JA 004a048c     TableFrame.obj
 0003:00000490       ?__LINE__Var@?0??WriteTableScore@CTableFrame@@UAE_NQAUtagScoreInfo@@G@Z@4JA 004a0490     TableFrame.obj
 0003:00000494       ?__LINE__Var@?0??CalculateRevenue@CTableFrame@@UAE_JG_J@Z@4JA 004a0494     TableFrame.obj
 0003:00000498       ?__LINE__Var@?0??QueryConsumeQuota@CTableFrame@@UAE_JPAUIServerUserItem@@@Z@4JA 004a0498     TableFrame.obj
 0003:0000049c       ?__LINE__Var@?0??GetTableUserItem@CTableFrame@@UAEPAUIServerUserItem@@G@Z@4JA 004a049c     TableFrame.obj
 0003:000004a0       ?__LINE__Var@?0??SetGameTimer@CTableFrame@@UAE_NKKKI@Z@4JA 004a04a0     TableFrame.obj
 0003:000004a4       ?__LINE__Var@?0??KillGameTimer@CTableFrame@@UAE_NK@Z@4JA 004a04a4     TableFrame.obj
 0003:000004a8       ?__LINE__Var@?0??SendUserItemData@CTableFrame@@UAE_NPAUIServerUserItem@@G@Z@4JA 004a04a8     TableFrame.obj
 0003:000004ac       ?__LINE__Var@?0??SendUserItemData@CTableFrame@@UAE_NPAUIServerUserItem@@GPAXG@Z@4JA 004a04ac     TableFrame.obj
 0003:000004b0       ?__LINE__Var@?0??SendTableData@CTableFrame@@UAE_NGG@Z@4JA 004a04b0     TableFrame.obj
 0003:000004b4       ?__LINE__Var@?0??SendLookonData@CTableFrame@@UAE_NGG@Z@4JA 004a04b4     TableFrame.obj
 0003:000004b8       ?__LINE__Var@?0??SendGameMessage@CTableFrame@@UAE_NPBDG@Z@4JA 004a04b8     TableFrame.obj
 0003:000004bc       ?__LINE__Var@?0??SendGameMessage@CTableFrame@@UAE_NPAUIServerUserItem@@PBDG@Z@4JA 004a04bc     TableFrame.obj
 0003:000004c0       ?__LINE__Var@?0??SendGameScene@CTableFrame@@UAE_NPAUIServerUserItem@@PAXG@Z@4JA 004a04c0     TableFrame.obj
 0003:000004c4       ?__LINE__Var@?0??SetTableFrameHook@CTableFrame@@UAE_NPAUIUnknownEx@@@Z@4JA 004a04c4     TableFrame.obj
 0003:000004c8       ?__LINE__Var@?0??ImitateGameOption@CTableFrame@@UAE_NPAUIServerUserItem@@@Z@4JA 004a04c8     TableFrame.obj
 0003:000004cc       ?__LINE__Var@?0??SendChatMessage@CTableFrame@@UAE_NPAUIServerUserItem@@0KPBDPAD@Z@4JA 004a04cc     TableFrame.obj
 0003:000004d0       ?__LINE__Var@?0??OnEventUserOffLine@CTableFrame@@QAE_NPAUIServerUserItem@@@Z@4JA 004a04d0     TableFrame.obj
 0003:000004d4       ?__LINE__Var@?0??OnEventTimer@CTableFrame@@QAE_NKI@Z@4JA 004a04d4     TableFrame.obj
 0003:000004d8       ?__LINE__Var@?0??OnEventSocketGame@CTableFrame@@QAE_NGPAXGPAUIServerUserItem@@@Z@4JA 004a04d8     TableFrame.obj
 0003:000004dc       ?__LINE__Var@?0??OnEventSocketFrame@CTableFrame@@QAE_NGPAXGPAUIServerUserItem@@@Z@4JA 004a04dc     TableFrame.obj
 0003:000004e0       ?__LINE__Var@?0??InitializationFrame@CTableFrame@@QAE_NGAAUtagTableFrameParameter@@@Z@4JA 004a04e0     TableFrame.obj
 0003:000004e4       ?__LINE__Var@?0??PerformStandUpAction@CTableFrame@@UAE_NPAUIServerUserItem@@_N@Z@4JA 004a04e4     TableFrame.obj
 0003:000004e8       ?__LINE__Var@?0??PerformLookonAction@CTableFrame@@UAE_NGPAUIServerUserItem@@@Z@4JA 004a04e8     TableFrame.obj
 0003:000004ec       ?__LINE__Var@?0??PerformSitDownAction@CTableFrame@@UAE_NGPAUIServerUserItem@@PBDK@Z@4JA 004a04ec     TableFrame.obj
 0003:000004f0       ?__LINE__Var@?0??EfficacyStartGame@CTableFrame@@QAE_NG@Z@4JA 004a04f0     TableFrame.obj
 0003:000004f4       ?__LINE__Var@?0??RecordGameScore@CTableFrame@@QAEX_NK@Z@4JA 004a04f4     TableFrame.obj
 0003:000004f8       _WinbaseIsolationAwarePrivateT_UnPgpgk 004a04f8     mfcs140d:nolib.obj
 0003:00000500       ___security_cookie_complement 004a0500     msvcrtd:gs_cookie.obj
 0003:00000504       ___security_cookie         004a0504     msvcrtd:gs_cookie.obj
 0003:0000050c       __fltused                  004a050c     msvcrtd:fltused.obj
 0003:00000510       ___scrt_native_dllmain_reason 004a0510     msvcrtd:utility.obj
 0003:00000514       __Init_global_epoch        004a0514     msvcrtd:thread_safe_statics.obj
 0003:00000518       ___isa_enabled             004a0518     msvcrtd:cpu_disp.obj
 0003:0000051c       ___scrt_default_matherr    004a051c     msvcrtd:matherr.obj
 0003:00000520       ?_RTC_ErrorLevels@@3PAHA   004a0520     msvcrtd:error.obj
 0003:00000538       ?__errorPfn@@3P6GXJPAUIErrorInfo@@@ZA 004a0538     comsuppwd:comsupp.obj
 0003:00000540       ___scrt_ucrt_dll_is_in_use 004a0540     msvcrtd:ucrt_stubs.obj
 0003:00000728       ??_R0?AVCObject@@@8        004a0728     AttemperEngineSink.obj
 0003:00000744       ??_R0?AUIUnknownEx@@@8     004a0744     AttemperEngineSink.obj
 0003:00000764       ??_R0?AUIAttemperEngineSink@@@8 004a0764     AttemperEngineSink.obj
 0003:0000078c       ??_R0?AUIServerUserItemSink@@@8 004a078c     AttemperEngineSink.obj
 0003:000007b4       ??_R0?AUIMainServiceFrame@@@8 004a07b4     AttemperEngineSink.obj
 0003:000007dc       ??_R0?AV?$CWHArray@PAVCTableFrame@@ABQAV1@@@@8 004a07dc     AttemperEngineSink.obj
 0003:00000818       ??_R0?AV?$CWHArray@UtagDistributeInfo@@ABU1@@@@8 004a0818     AttemperEngineSink.obj
 0003:00000858       ??_R0?AV?$CWHArray@PBDABQBD@@@8 004a0858     AttemperEngineSink.obj
 0003:00000880       ??_R0?AVCSensitiveWordsFilter@@@8 004a0880     AttemperEngineSink.obj
 0003:000008ac       ??_R0?AV?$CWHArray@PAUtagSystemMessage@@ABQAU1@@@@8 004a08ac     AttemperEngineSink.obj
 0003:000008ec       ??_R0?AV?$CMap@KKKAAK@@@8  004a08ec     AttemperEngineSink.obj
 0003:00000910       ??_R0?AV?$CWHArray@PAUtagPersonalTableParameter@@ABQAU1@@@@8 004a0910     AttemperEngineSink.obj
 0003:0000095c       ??_R0?AVCAttemperEngineSink@@@8 004a095c     AttemperEngineSink.obj
 0003:00000984       ??_R0?AVCDataBaseHelper@@@8 004a0984     DataBaseEngineSink.obj
 0003:000009a8       ??_R0?AV?$CTempldateHelper@UIDataBase@@@@@8 004a09a8     DataBaseEngineSink.obj
 0003:000009e0       ??_R0PAUIDataBaseException@@@8 004a09e0     DataBaseEngineSink.obj
 0003:00000a08       ??_R0PAD@8                 004a0a08     DataBaseEngineSink.obj
 0003:00000a18       ??_R0?AUIDataBaseEngineSink@@@8 004a0a18     DataBaseEngineSink.obj
 0003:00000a40       ??_R0?AUIGameDataBaseEngine@@@8 004a0a40     DataBaseEngineSink.obj
 0003:00000a68       ??_R0?AVCDataBaseEngineSink@@@8 004a0a68     DataBaseEngineSink.obj
 0003:00000a90       ??_R0?AUIServiceModule@@@8 004a0a90     DBCorrespondManager.obj
 0003:00000ab4       ??_R0?AUIDBCorrespondManager@@@8 004a0ab4     DBCorrespondManager.obj
 0003:00000ae0       ??_R0?AV?$CList@PAUtagDBRequestHead@@ABQAU1@@@@8 004a0ae0     DBCorrespondManager.obj
 0003:00000b20       ??_R0?AV?$CWHArray@KABK@@@8 004a0b20     DBCorrespondManager.obj
 0003:00000b44       ??_R0?AVCDBCorrespondManager@@@8 004a0b44     DBCorrespondManager.obj
 0003:00000b70       ??_R0?AVCDistributeManager@@@8 004a0b70     DistributeManager.obj
 0003:00000b98       ??_R0?AVCCmdTarget@@@8     004a0b98     GameServer.obj
 0003:00000bb8       ??_R0?AVCGameServerApp@@@8 004a0bb8     GameServer.obj
 0003:00000bdc       ??_R0?AVCWinApp@@@8        004a0bdc     GameServer.obj
 0003:00000bf8       ??_R0?AVCWinThread@@@8     004a0bf8     GameServer.obj
 0003:00000c18       ??_R0?AVCDialog@@@8        004a0c18     GameServerDlg.obj
 0003:00000c34       ??_R0?AVCWnd@@@8           004a0c34     GameServerDlg.obj
 0003:00000c4c       ??_R0?AVCGameServiceManagerHelper@@@8 004a0c4c     GameServerDlg.obj
 0003:00000c7c       ??_R0?AV?$CTempldateHelper@UIGameServiceManager@@@@@8 004a0c7c     GameServerDlg.obj
 0003:00000cc0       ??_R0?AUIServiceUnitsSink@@@8 004a0cc0     GameServerDlg.obj
 0003:00000ce8       ??_R0?AVCGameServerDlg@@@8 004a0ce8     GameServerDlg.obj
 0003:00000d0c       ??_R0?AVCInitParameter@@@8 004a0d0c     InitParameter.obj
 0003:00000d30       ??_R0?AV?$CWHArray@PAVCGameTypeItem@NServerListManager@@ABQAV12@@@@8 004a0d30     ServerListManager.obj
 0003:00000d88       ??_R0?AV?$CWHArray@PAVCGameKindItem@NServerListManager@@ABQAV12@@@@8 004a0d88     ServerListManager.obj
 0003:00000de0       ??_R0?AV?$CWHArray@PAVCGameNodeItem@NServerListManager@@ABQAV12@@@@8 004a0de0     ServerListManager.obj
 0003:00000e38       ??_R0?AV?$CWHArray@PAVCGamePageItem@NServerListManager@@ABQAV12@@@@8 004a0e38     ServerListManager.obj
 0003:00000e90       ??_R0?AV?$CWHArray@PAVCGameServerItem@NServerListManager@@ABQAV12@@@@8 004a0e90     ServerListManager.obj
 0003:00000ee8       ??_R0?AV?$CMap@GGPAVCGameTypeItem@NServerListManager@@AAPAV12@@@@8 004a0ee8     ServerListManager.obj
 0003:00000f40       ??_R0?AV?$CMap@GGPAVCGameKindItem@NServerListManager@@AAPAV12@@@@8 004a0f40     ServerListManager.obj
 0003:00000f98       ??_R0?AV?$CMap@GGPAVCGameNodeItem@NServerListManager@@AAPAV12@@@@8 004a0f98     ServerListManager.obj
 0003:00000ff0       ??_R0?AV?$CMap@GGPAVCGamePageItem@NServerListManager@@AAPAV12@@@@8 004a0ff0     ServerListManager.obj
 0003:00001048       ??_R0?AV?$CMap@GGPAVCGameServerItem@NServerListManager@@AAPAV12@@@@8 004a1048     ServerListManager.obj
 0003:000010a0       ??_R0?AVCServerListManager@NServerListManager@@@8 004a10a0     ServerListManager.obj
 0003:000010e0       ??_R0?AVCTimerEngineHelper@@@8 004a10e0     ServiceUnits.obj
 0003:00001108       ??_R0?AV?$CTempldateHelper@UITimerEngine@@@@@8 004a1108     ServiceUnits.obj
 0003:00001144       ??_R0?AVCDataBaseEngineHelper@@@8 004a1144     ServiceUnits.obj
 0003:00001170       ??_R0?AV?$CTempldateHelper@UIDataBaseEngine@@@@@8 004a1170     ServiceUnits.obj
 0003:000011b0       ??_R0?AVCAttemperEngineHelper@@@8 004a11b0     ServiceUnits.obj
 0003:000011dc       ??_R0?AV?$CTempldateHelper@UIAttemperEngine@@@@@8 004a11dc     ServiceUnits.obj
 0003:0000121c       ??_R0?AVCTCPSocketServiceHelper@@@8 004a121c     ServiceUnits.obj
 0003:0000124c       ??_R0?AV?$CTempldateHelper@UITCPSocketService@@@@@8 004a124c     ServiceUnits.obj
 0003:0000128c       ??_R0?AVCTCPNetworkEngineHelper@@@8 004a128c     ServiceUnits.obj
 0003:000012bc       ??_R0?AV?$CTempldateHelper@UITCPNetworkEngine@@@@@8 004a12bc     ServiceUnits.obj
 0003:000012fc       ??_R0?AVCMatchServiceManagerHelper@@@8 004a12fc     ServiceUnits.obj
 0003:00001330       ??_R0?AV?$CTempldateHelper@UIMatchServiceManager@@@@@8 004a1330     ServiceUnits.obj
 0003:00001374       ??_R0?AVCPersonalRoomServiceManagerHelper@@@8 004a1374     ServiceUnits.obj
 0003:000013b0       ??_R0?AV?$CTempldateHelper@UIPersonalRoomServiceManager@@@@@8 004a13b0     ServiceUnits.obj
 0003:000013fc       ??_R0?AVCServiceUnits@@@8  004a13fc     ServiceUnits.obj
 0003:00001420       ??_R0?AVCWin32Heap@ATL@@@8 004a1420     Stdafx.obj
 0003:00001444       ??_R0?AUIAtlMemMgr@ATL@@@8 004a1444     Stdafx.obj
 0003:00001468       ??_R0?AUIAtlStringMgr@ATL@@@8 004a1468     Stdafx.obj
 0003:00001490       ??_R0?AVCAtlStringMgr@ATL@@@8 004a1490     Stdafx.obj
 0003:000014b8       ??_R0PAX@8                 004a14b8     TableFrame.obj
 0003:000014c8       ??_R0?AUITableFrame@@@8    004a14c8     TableFrame.obj
 0003:000014e8       ??_R0?AUICompilationSink@@@8 004a14e8     TableFrame.obj
 0003:00001510       ??_R0?AVCTableFrame@@@8    004a1510     TableFrame.obj
 0003:00001530       ??_R0?AV?$CWHArray@PAUIServerUserItem@@ABQAU1@@@@8 004a1530     TableFrame.obj
 0003:00001570       ??_R0?AV?$CWHArray@PAUtagGameScoreRecord@@ABQAU1@@@@8 004a1570     TableFrame.obj
 0003:000015b4       ??_R0?AV?$CMap@KK_JAA_J@@@8 004a15b4     TableFrame.obj
 0003:000015d8       ??_R0?AVtype_info@@@8      004a15d8     msvcrtd:std_type_info_static.obj
 0003:000015f4       ??_R0?AV_com_error@@@8     004a15f4     comsuppwd:comraise.obj
 0003:00001750       ?_OptionsStorage@?1??__local_stdio_printf_options@@9@4_KA 004a1750     AttemperEngineSink.obj
 0003:0000175c       ?atlTraceException@ATL@@3V?$CTraceCategoryEx@$0CAAA@$0A@@1@A 004a175c     AttemperEngineSink.obj
 0003:00001760       ?atlTraceString@ATL@@3V?$CTraceCategoryEx@$0CAAAA@$0A@@1@A 004a1760     AttemperEngineSink.obj
 0003:00001764       ?m_nLastCategory@CTrace@ATL@@1IA 004a1764     AttemperEngineSink.obj
 0003:00001768       ?m_nMap@CTrace@ATL@@1PAUCategoryMap@12@A 004a1768     AttemperEngineSink.obj
 0003:00003e68       ?m_nLevel@CTrace@ATL@@1IA  004a3e68     DataBaseEngineSink.obj
 0003:00003e6c       ?m_pHeadOfFreeList@CDistributeNodePool@@2PAUtagDistributeNode@@A 004a3e6c     DistributeManager.obj
 0003:00003e70       ?theApp@@3VCGameServerApp@@A 004a3e70     GameServer.obj
 0003:00003f68       ?g_pServiceUnits@CServiceUnits@@2PAV1@A 004a3f68     ServiceUnits.obj
 0003:00003f6c       ?_pPerfRegFunc@ATL@@3P6AJPAUHINSTANCE__@@@ZA 004a3f6c     Stdafx.obj
 0003:00003f70       ?_pPerfUnRegFunc@ATL@@3P6AJXZA 004a3f70     Stdafx.obj
 0003:00003f74       ?_AtlRegisterPerUser@ATL@@3_NA 004a3f74     Stdafx.obj
 0003:00003f78       ?_pAtlModule@ATL@@3PAVCAtlModule@1@A 004a3f78     Stdafx.obj
 0003:00003f7c       ?_pModule@ATL@@3PAVCComModule@1@A 004a3f7c     Stdafx.obj
 0003:00003f80       ?_pAtlAutoThreadModule@ATL@@3PAUIAtlAutoThreadModule@1@A 004a3f80     Stdafx.obj
 0003:00003f84       ___@@_PchSym_@00@UKlsKomKqyKlsKroKqzUszkkbtznvdsUKltKqnKrmKluKrpKpyKlsKpoKpkUKlvKorKpmKlqKqsKovKlsKqoKplKluKomKquUKltKorKorKltKrrKrkKltKqnKrmKluKrpKpyKluKqqKprUwvyftPzmhrUhgwzucOlyq@4B2008FD98C1DD4 004a3f84     Stdafx.obj
 0003:00003f88       ?atlTraceGeneral@ATL@@3V?$CTraceCategoryEx@$00$0A@@1@A 004a3f88     Stdafx.obj
 0003:00003f8c       ?atlTraceCOM@ATL@@3V?$CTraceCategoryEx@$01$0A@@1@A 004a3f8c     Stdafx.obj
 0003:00003f90       ?atlTraceQI@ATL@@3V?$CTraceCategoryEx@$03$0A@@1@A 004a3f90     Stdafx.obj
 0003:00003f94       ?atlTraceRegistrar@ATL@@3V?$CTraceCategoryEx@$07$0A@@1@A 004a3f94     Stdafx.obj
 0003:00003f98       ?atlTraceRefcount@ATL@@3V?$CTraceCategoryEx@$0BA@$0A@@1@A 004a3f98     Stdafx.obj
 0003:00003f9c       ?atlTraceWindowing@ATL@@3V?$CTraceCategoryEx@$0CA@$0A@@1@A 004a3f9c     Stdafx.obj
 0003:00003fa0       ?atlTraceControls@ATL@@3V?$CTraceCategoryEx@$0EA@$0A@@1@A 004a3fa0     Stdafx.obj
 0003:00003fa4       ?atlTraceHosting@ATL@@3V?$CTraceCategoryEx@$0IA@$0A@@1@A 004a3fa4     Stdafx.obj
 0003:00003fa8       ?atlTraceDBClient@ATL@@3V?$CTraceCategoryEx@$0BAA@$0A@@1@A 004a3fa8     Stdafx.obj
 0003:00003fac       ?atlTraceDBProvider@ATL@@3V?$CTraceCategoryEx@$0CAA@$0A@@1@A 004a3fac     Stdafx.obj
 0003:00003fb0       ?atlTraceSnapin@ATL@@3V?$CTraceCategoryEx@$0EAA@$0A@@1@A 004a3fb0     Stdafx.obj
 0003:00003fb4       ?atlTraceNotImpl@ATL@@3V?$CTraceCategoryEx@$0IAA@$0A@@1@A 004a3fb4     Stdafx.obj
 0003:00003fb8       ?atlTraceAllocation@ATL@@3V?$CTraceCategoryEx@$0BAAA@$0A@@1@A 004a3fb8     Stdafx.obj
 0003:00003fbc       ?atlTraceTime@ATL@@3V?$CTraceCategoryEx@$0EAAA@$0A@@1@A 004a3fbc     Stdafx.obj
 0003:00003fc0       ?atlTraceCache@ATL@@3V?$CTraceCategoryEx@$0IAAA@$0A@@1@A 004a3fc0     Stdafx.obj
 0003:00003fc4       ?atlTraceStencil@ATL@@3V?$CTraceCategoryEx@$0BAAAA@$0A@@1@A 004a3fc4     Stdafx.obj
 0003:00003fc8       ?atlTraceMap@ATL@@3V?$CTraceCategoryEx@$0EAAAA@$0A@@1@A 004a3fc8     Stdafx.obj
 0003:00003fcc       ?atlTraceUtil@ATL@@3V?$CTraceCategoryEx@$0IAAAA@$0A@@1@A 004a3fcc     Stdafx.obj
 0003:00003fd0       ?atlTraceSecurity@ATL@@3V?$CTraceCategoryEx@$0BAAAAA@$0A@@1@A 004a3fd0     Stdafx.obj
 0003:00003fd4       ?atlTraceSync@ATL@@3V?$CTraceCategoryEx@$0CAAAAA@$0A@@1@A 004a3fd4     Stdafx.obj
 0003:00003fd8       ?atlTraceISAPI@ATL@@3V?$CTraceCategoryEx@$0EAAAAA@$0A@@1@A 004a3fd8     Stdafx.obj
 0003:00003fdc       ?m_bInitFailed@CAtlBaseModule@ATL@@2_NA 004a3fdc     Stdafx.obj
 0003:00003fe0       ?_AtlComModule@ATL@@3VCAtlComModule@1@A 004a3fe0     Stdafx.obj
 0003:00004010       ?_AtlWinModule@ATL@@3VCAtlWinModule@1@A 004a4010     Stdafx.obj
 0003:00004044       ?strHeap@?1??GetInstance@CAtlStringMgr@ATL@@SAPAUIAtlStringMgr@3@XZ@4VCWin32Heap@3@A 004a4044     Stdafx.obj
 0003:00004054       ?$TSS0@?1??GetInstance@CAtlStringMgr@ATL@@SAPAUIAtlStringMgr@3@XZ@4HA 004a4054     Stdafx.obj
 0003:00004058       ?strMgr@?1??GetInstance@CAtlStringMgr@ATL@@SAPAUIAtlStringMgr@3@XZ@4V23@A 004a4058     Stdafx.obj
 0003:0000407c       ?$TSS1@?1??GetInstance@CAtlStringMgr@ATL@@SAPAUIAtlStringMgr@3@XZ@4HA 004a407c     Stdafx.obj
 0003:00004080       ?InitializeCAtlStringMgr@ATLImplementationDetails@ATL@@3UCAtlStringMgrStaticInitializer@12@A 004a4080     Stdafx.obj
 0003:00004084       ?m_GameScoreRecordBuffer@CTableFrame@@1V?$CWHArray@PAUtagGameScoreRecord@@ABQAU1@@@A 004a4084     TableFrame.obj
 0003:0000409c       __afxForceEXCLUDE          004a409c     mfcs140d:nolib.obj
 0003:000040a0       _IsolationAwarePrivateT_SqbjaYRiRY 004a40a0     mfcs140d:nolib.obj
 0003:000040a4       _IsolationAwarePrivateT_SAbnPgpgk 004a40a4     mfcs140d:nolib.obj
 0003:000040a8       _WinbaseIsolationAwarePrivateT_SpeRNgRQnPgpgk 004a40a8     mfcs140d:nolib.obj
 0003:000040ac       _WinbaseIsolationAwarePrivateT_SpYRNahcpNYYRQ 004a40ac     mfcs140d:nolib.obj
 0003:000040b0       ?s_pfn@?1??IsolationAwareCreateActCtxW@@9@4@4P6GPAXPBUtagACTCTXW@@@ZA 004a40b0     mfcs140d:nolib.obj
 0003:000040b4       ?s_pfn@?1??IsolationAwareActivateActCtx@@9@8@4P6GHPAXPAK@ZA 004a40b4     mfcs140d:nolib.obj
 0003:000040b8       ?s_pfn@?1??IsolationAwareDeactivateActCtx@@9@8@4P6GHKK@ZA 004a40b8     mfcs140d:nolib.obj
 0003:000040bc       ?s_pfn@?1??IsolationAwareFindActCtxSectionStringW@@9@20@4P6GHKPBU_GUID@@KPB_WPAUtagACTCTX_SECTION_KEYED_DATA@@@ZA 004a40bc     mfcs140d:nolib.obj
 0003:000040c0       ?s_pfn@?1??IsolationAwareQueryActCtxW@@9@28@4P6GHKPAX0K0KPAK@ZA 004a40c0     mfcs140d:nolib.obj
 0003:000040c4       ?m@?1??WinbaseIsolationAwarePrivatetRgCebPnQQeRff_xReaRYQP_QYY@@9@4@4UIsolationAwarePrivate_zHGnoyr_zBqHyr_vAsB@@A 004a40c4     mfcs140d:nolib.obj
 0003:000040c8       ??_B?1??GetInstance@CAtlStringMgr@ATL@@SAPAUIAtlStringMgr@2@XZ@51 004a40c8     mfcs140d:nolib.obj
 0003:000040cc       __afxForceSTDAFX           004a40cc     mfcs140d:stdafx.obj
 0003:0000448c       ___scrt_current_native_startup_state 004a448c     msvcrtd:utility.obj
 0003:00004490       ___scrt_native_startup_lock 004a4490     msvcrtd:utility.obj
 0003:000044e8       __tls_index                004a44e8     msvcrtd:tlssup.obj
 0003:000044f0       ___isa_available           004a44f0     msvcrtd:cpu_disp.obj
 0003:000044f4       ___favor                   004a44f4     msvcrtd:cpu_disp.obj
 0003:000044fc       ___scrt_debugger_hook_flag 004a44fc     msvcrtd:utility_desktop.obj
 0003:00004500       ?__type_info_root_node@@3U__type_info_node@@A 004a4500     msvcrtd:tncleanup.obj
 0003:00004510       ?_OptionsStorage@?1??__local_stdio_scanf_options@@9@4_KA 004a4510     msvcrtd:default_local_stdio_options.obj
 0003:00004530       ?_AtlBaseModule@ATL@@3VCAtlBaseModule@1@A 004a4530     atls:atlbase.obj
 0003:00004574       ___@@_PchSym_@00@UztvmgUPdlipUDUhUrmgvinvwrzgvUexgllohUzgohOmzgrevkilqPBACIAJCBDBUlyqiUcIGUhgwzucOlyq@4B2008FD98C1DD4 004a4574     atls:stdafx.obj
 0003:00004578       ?_afxInitAppState@@3DA     004a4578     mfcs140d:appmodul.obj
 0003:0000457c       ___dyn_tls_dtor_callback   004a457c     <common>
 0003:00004588       ___dyn_tls_init_callback   004a4588     <common>
 0004:00000000       __imp__InitCommonControls@0 004a5000     comctl32:COMCTL32.dll
 0004:00000004       \177COMCTL32_NULL_THUNK_DATA 004a5004     comctl32:COMCTL32.dll
 0004:00000030       __imp_?ResetTaskManager@CUserTaskManager@@QAEXXZ 004a5030     GameService:GameService.dll
 0004:00000034       __imp_??0CServerUserManager@@QAE@XZ 004a5034     GameService:GameService.dll
 0004:00000038       __imp_??1CServerUserManager@@UAE@XZ 004a5038     GameService:GameService.dll
 0004:0000003c       __imp_??0CAndroidUserManager@@QAE@XZ 004a503c     GameService:GameService.dll
 0004:00000040       __imp_??1CAndroidUserManager@@UAE@XZ 004a5040     GameService:GameService.dll
 0004:00000044       __imp_??1CUserTaskManager@@UAE@XZ 004a5044     GameService:GameService.dll
 0004:00000048       __imp_?GetAndroidParameter@CAndroidUserManager@@QAEPAUtagAndroidParameterEx@@K@Z 004a5048     GameService:GameService.dll
 0004:0000004c       __imp_??0CGamePropertyManager@@QAE@XZ 004a504c     GameService:GameService.dll
 0004:00000050       __imp_??1CGamePropertyManager@@UAE@XZ 004a5050     GameService:GameService.dll
 0004:00000054       __imp_?SetGamePropertyBuff@CGamePropertyManager@@QAE_NKQBUtagPropertyBuff@@G@Z 004a5054     GameService:GameService.dll
 0004:00000058       __imp_?SearchPropertyItem@CGamePropertyManager@@QAEPAUtagPropertyInfo@@G@Z 004a5058     GameService:GameService.dll
 0004:0000005c       __imp_?SearchValidPropertyBuff@CGamePropertyManager@@SAPAUtagPropertyBuff@@KW4PROP_KIND@@@Z 004a505c     GameService:GameService.dll
 0004:00000060       __imp_?SetMainServiceFrame@CAndroidUserManager@@QAEXPAUIMainServiceFrame@@@Z 004a5060     GameService:GameService.dll
 0004:00000064       __imp_?ClearUserBuff@CGamePropertyManager@@QAE_NK@Z 004a5064     GameService:GameService.dll
 0004:00000068       __imp_??0CUserTaskManager@@QAE@XZ 004a5068     GameService:GameService.dll
 0004:0000006c       \177GameService_NULL_THUNK_DATA 004a506c     GameService:GameService.dll
 0004:000000a4       __imp__HeapAlloc@12        004a50a4     kernel32:KERNEL32.dll
 0004:000000a8       __imp__HeapReAlloc@16      004a50a8     kernel32:KERNEL32.dll
 0004:000000ac       __imp__HeapFree@12         004a50ac     kernel32:KERNEL32.dll
 0004:000000b0       __imp__HeapSize@12         004a50b0     kernel32:KERNEL32.dll
 0004:000000b4       __imp__GetProcessHeap@0    004a50b4     kernel32:KERNEL32.dll
 0004:000000b8       __imp__InitializeCriticalSectionAndSpinCount@8 004a50b8     kernel32:KERNEL32.dll
 0004:000000bc       __imp__DeleteCriticalSection@4 004a50bc     kernel32:KERNEL32.dll
 0004:000000c0       __imp__GetLocalTime@4      004a50c0     kernel32:KERNEL32.dll
 0004:000000c4       __imp__GetModuleFileNameW@12 004a50c4     kernel32:KERNEL32.dll
 0004:000000c8       __imp__GetModuleHandleW@4  004a50c8     kernel32:KERNEL32.dll
 0004:000000cc       __imp__LoadLibraryW@4      004a50cc     kernel32:KERNEL32.dll
 0004:000000d0       __imp__UnhandledExceptionFilter@4 004a50d0     kernel32:KERNEL32.dll
 0004:000000d4       __imp__SetUnhandledExceptionFilter@4 004a50d4     kernel32:KERNEL32.dll
 0004:000000d8       __imp__GetCurrentProcess@0 004a50d8     kernel32:KERNEL32.dll
 0004:000000dc       __imp__TerminateProcess@8  004a50dc     kernel32:KERNEL32.dll
 0004:000000e0       __imp__LocalFree@4         004a50e0     kernel32:KERNEL32.dll
 0004:000000e4       __imp__CloseHandle@4       004a50e4     kernel32:KERNEL32.dll
 0004:000000e8       __imp__EnterCriticalSection@4 004a50e8     kernel32:KERNEL32.dll
 0004:000000ec       __imp__LeaveCriticalSection@4 004a50ec     kernel32:KERNEL32.dll
 0004:000000f0       __imp__SetEvent@4          004a50f0     kernel32:KERNEL32.dll
 0004:000000f4       __imp__ResetEvent@4        004a50f4     kernel32:KERNEL32.dll
 0004:000000f8       __imp__WaitForSingleObjectEx@12 004a50f8     kernel32:KERNEL32.dll
 0004:000000fc       __imp__CreateEventW@16     004a50fc     kernel32:KERNEL32.dll
 0004:00000100       __imp__IsDebuggerPresent@0 004a5100     kernel32:KERNEL32.dll
 0004:00000104       __imp__GetStartupInfoW@4   004a5104     kernel32:KERNEL32.dll
 0004:00000108       __imp__QueryPerformanceCounter@4 004a5108     kernel32:KERNEL32.dll
 0004:0000010c       __imp__GetCurrentProcessId@0 004a510c     kernel32:KERNEL32.dll
 0004:00000110       __imp__GetCurrentThreadId@0 004a5110     kernel32:KERNEL32.dll
 0004:00000114       __imp__GetSystemTimeAsFileTime@4 004a5114     kernel32:KERNEL32.dll
 0004:00000118       __imp__InitializeSListHead@4 004a5118     kernel32:KERNEL32.dll
 0004:0000011c       __imp__VirtualQuery@12     004a511c     kernel32:KERNEL32.dll
 0004:00000120       __imp__RaiseException@16   004a5120     kernel32:KERNEL32.dll
 0004:00000124       __imp__DecodePointer@4     004a5124     kernel32:KERNEL32.dll
 0004:00000128       __imp__HeapDestroy@4       004a5128     kernel32:KERNEL32.dll
 0004:0000012c       __imp__WritePrivateProfileStringA@16 004a512c     kernel32:KERNEL32.dll
 0004:00000130       __imp__GetModuleHandleA@4  004a5130     kernel32:KERNEL32.dll
 0004:00000134       __imp__OutputDebugStringW@4 004a5134     kernel32:KERNEL32.dll
 0004:00000138       __imp__WideCharToMultiByte@32 004a5138     kernel32:KERNEL32.dll
 0004:0000013c       __imp__MultiByteToWideChar@24 004a513c     kernel32:KERNEL32.dll
 0004:00000140       __imp__GetProcAddress@8    004a5140     kernel32:KERNEL32.dll
 0004:00000144       __imp__SetLastError@4      004a5144     kernel32:KERNEL32.dll
 0004:00000148       __imp__GetLastError@0      004a5148     kernel32:KERNEL32.dll
 0004:0000014c       __imp__OutputDebugStringA@4 004a514c     kernel32:KERNEL32.dll
 0004:00000150       __imp__lstrlenA@4          004a5150     kernel32:KERNEL32.dll
 0004:00000154       __imp__lstrcpynA@12        004a5154     kernel32:KERNEL32.dll
 0004:00000158       __imp__lstrcmpA@8          004a5158     kernel32:KERNEL32.dll
 0004:0000015c       __imp__LoadLibraryA@4      004a515c     kernel32:KERNEL32.dll
 0004:00000160       __imp__FreeLibrary@4       004a5160     kernel32:KERNEL32.dll
 0004:00000164       __imp__IsProcessorFeaturePresent@4 004a5164     kernel32:KERNEL32.dll
 0004:00000168       __imp__GetTickCount@0      004a5168     kernel32:KERNEL32.dll
 0004:0000016c       \177KERNEL32_NULL_THUNK_DATA 004a516c     kernel32:KERNEL32.dll
 0004:000001c0       __imp_??0CDataBaseAide@@QAE@PAUIUnknownEx@@@Z 004a51c0     KernelEngine:KernelEngine.dll
 0004:000001c4       __imp_??1CDataBaseAide@@UAE@XZ 004a51c4     KernelEngine:KernelEngine.dll
 0004:000001c8       __imp_?SetDataBase@CDataBaseAide@@QAE_NPAUIUnknownEx@@@Z 004a51c8     KernelEngine:KernelEngine.dll
 0004:000001cc       __imp_?GetValue_INT@CDataBaseAide@@QAEHPBD@Z 004a51cc     KernelEngine:KernelEngine.dll
 0004:000001d0       __imp_?GetValue_LONG@CDataBaseAide@@QAEJPBD@Z 004a51d0     KernelEngine:KernelEngine.dll
 0004:000001d4       __imp_?GetValue_BYTE@CDataBaseAide@@QAEEPBD@Z 004a51d4     KernelEngine:KernelEngine.dll
 0004:000001d8       __imp_?GetValue_WORD@CDataBaseAide@@QAEGPBD@Z 004a51d8     KernelEngine:KernelEngine.dll
 0004:000001dc       __imp_?GetValue_DWORD@CDataBaseAide@@QAEKPBD@Z 004a51dc     KernelEngine:KernelEngine.dll
 0004:000001e0       __imp_?GetValue_DOUBLE@CDataBaseAide@@QAENPBD@Z 004a51e0     KernelEngine:KernelEngine.dll
 0004:000001e4       __imp_?GetValue_LONGLONG@CDataBaseAide@@QAE_JPBD@Z 004a51e4     KernelEngine:KernelEngine.dll
 0004:000001e8       __imp_?GetValue_SystemTime@CDataBaseAide@@QAEXPBDAAU_SYSTEMTIME@@@Z 004a51e8     KernelEngine:KernelEngine.dll
 0004:000001ec       __imp_?GetValue_String@CDataBaseAide@@QAEXPBDPADI@Z 004a51ec     KernelEngine:KernelEngine.dll
 0004:000001f0       __imp_?ResetParameter@CDataBaseAide@@QAEXXZ 004a51f0     KernelEngine:KernelEngine.dll
 0004:000001f4       __imp_?GetParameter@CDataBaseAide@@QAEXPBDAAV_variant_t@@@Z 004a51f4     KernelEngine:KernelEngine.dll
 0004:000001f8       __imp_?TraceString@CTraceService@@SA_NPBDW4enTraceLevel@@@Z 004a51f8     KernelEngine:KernelEngine.dll
 0004:000001fc       __imp_?AddParameter@CDataBaseAide@@QAEXPBDJW4ParameterDirectionEnum@ADOCG@@@Z 004a51fc     KernelEngine:KernelEngine.dll
 0004:00000200       __imp_?AddParameter@CDataBaseAide@@QAEXPBD_JW4ParameterDirectionEnum@ADOCG@@@Z 004a5200     KernelEngine:KernelEngine.dll
 0004:00000204       __imp_?AddParameter@CDataBaseAide@@QAEXPBDEW4ParameterDirectionEnum@ADOCG@@@Z 004a5204     KernelEngine:KernelEngine.dll
 0004:00000208       __imp_?AddParameter@CDataBaseAide@@QAEXPBDGW4ParameterDirectionEnum@ADOCG@@@Z 004a5208     KernelEngine:KernelEngine.dll
 0004:0000020c       __imp_?AddParameter@CDataBaseAide@@QAEXPBDKW4ParameterDirectionEnum@ADOCG@@@Z 004a520c     KernelEngine:KernelEngine.dll
 0004:00000210       __imp_?AddParameter@CDataBaseAide@@QAEXPBDNW4ParameterDirectionEnum@ADOCG@@@Z 004a5210     KernelEngine:KernelEngine.dll
 0004:00000214       __imp_?AddParameter@CDataBaseAide@@QAEXPBD0W4ParameterDirectionEnum@ADOCG@@@Z 004a5214     KernelEngine:KernelEngine.dll
 0004:00000218       __imp_?AddParameter@CDataBaseAide@@QAEXPBDAAU_SYSTEMTIME@@W4ParameterDirectionEnum@ADOCG@@@Z 004a5218     KernelEngine:KernelEngine.dll
 0004:0000021c       __imp_?AddParameterOutput@CDataBaseAide@@QAEXPBDPADIW4ParameterDirectionEnum@ADOCG@@@Z 004a521c     KernelEngine:KernelEngine.dll
 0004:00000220       __imp_?GetReturnValue@CDataBaseAide@@QAEJXZ 004a5220     KernelEngine:KernelEngine.dll
 0004:00000224       __imp_?ExecuteProcess@CDataBaseAide@@QAEJPBD_N@Z 004a5224     KernelEngine:KernelEngine.dll
 0004:00000228       __imp_??0CTraceServiceControl@@QAE@XZ 004a5228     KernelEngine:KernelEngine.dll
 0004:0000022c       __imp_??1CTraceServiceControl@@UAE@XZ 004a522c     KernelEngine:KernelEngine.dll
 0004:00000230       __imp_?GetParameter@CDataBaseAide@@QAEXPBDPADI@Z 004a5230     KernelEngine:KernelEngine.dll
 0004:00000234       __imp_?AddParameter@CDataBaseAide@@QAEXPBDHW4ParameterDirectionEnum@ADOCG@@@Z 004a5234     KernelEngine:KernelEngine.dll
 0004:00000238       \177KernelEngine_NULL_THUNK_DATA 004a5238     KernelEngine:KernelEngine.dll
 0004:0000027c       __imp_?_W_Getmonths@_Locinfo@std@@QBEPBGXZ 004a527c     msvcprtd:MSVCP140D.dll
 0004:00000280       __imp_?_W_Getdays@_Locinfo@std@@QBEPBGXZ 004a5280     msvcprtd:MSVCP140D.dll
 0004:00000284       __imp_?_Getmonths@_Locinfo@std@@QBEPBDXZ 004a5284     msvcprtd:MSVCP140D.dll
 0004:00000288       __imp_?_Getdays@_Locinfo@std@@QBEPBDXZ 004a5288     msvcprtd:MSVCP140D.dll
 0004:0000028c       __imp_?_Getcvt@_Locinfo@std@@QBE?AU_Cvtvec@@XZ 004a528c     msvcprtd:MSVCP140D.dll
 0004:00000290       __imp___Mbrtowc            004a5290     msvcprtd:MSVCP140D.dll
 0004:00000294       __imp_?_Xbad_alloc@std@@YAXXZ 004a5294     msvcprtd:MSVCP140D.dll
 0004:00000298       __imp_?_Xlength_error@std@@YAXPBD@Z 004a5298     msvcprtd:MSVCP140D.dll
 0004:0000029c       __imp_??0_Lockit@std@@QAE@H@Z 004a529c     msvcprtd:MSVCP140D.dll
 0004:000002a0       __imp_??1_Lockit@std@@QAE@XZ 004a52a0     msvcprtd:MSVCP140D.dll
 0004:000002a4       \177MSVCP140D_NULL_THUNK_DATA 004a52a4     msvcprtd:MSVCP140D.dll
 0004:000002d8       __imp_??1CDlgServerWizard@@UAE@XZ 004a52d8     ModuleManager:ModuleManager.dll
 0004:000002dc       __imp_??1CDlgServerItem@@UAE@XZ 004a52dc     ModuleManager:ModuleManager.dll
 0004:000002e0       __imp_?OpenGameServer@CDlgServerItem@@QAE_NXZ 004a52e0     ModuleManager:ModuleManager.dll
 0004:000002e4       __imp_?LoadPersonalRoomPatameter@CDlgServerItem@@QAE_NG@Z 004a52e4     ModuleManager:ModuleManager.dll
 0004:000002e8       __imp_?CreateGameServer@CDlgServerWizard@@QAE_NXZ 004a52e8     ModuleManager:ModuleManager.dll
 0004:000002ec       __imp_?SetWizardParameter@CDlgServerWizard@@QAEXPAUIGameServiceManager@@PAUtagGameServiceOption@@@Z 004a52ec     ModuleManager:ModuleManager.dll
 0004:000002f0       __imp_?SetPersonalRoomParameter@CDlgServerWizard@@QAEXUtagPersonalRoomOption@@UtagPersonalRoomOptionRightAndFee@@@Z 004a52f0     ModuleManager:ModuleManager.dll
 0004:000002f4       __imp_??0CModuleDBParameter@@QAE@XZ 004a52f4     ModuleManager:ModuleManager.dll
 0004:000002f8       __imp_??1CModuleDBParameter@@UAE@XZ 004a52f8     ModuleManager:ModuleManager.dll
 0004:000002fc       __imp_?SetPlatformDBParameter@CModuleDBParameter@@QAEXAAUtagDataBaseParameter@@@Z 004a52fc     ModuleManager:ModuleManager.dll
 0004:00000300       __imp_?GetPlatformDBParameter@CModuleDBParameter@@QAEPAUtagDataBaseParameter@@XZ 004a5300     ModuleManager:ModuleManager.dll
 0004:00000304       __imp_?GetModuleDBParameter@CModuleDBParameter@@SAPAV1@XZ 004a5304     ModuleManager:ModuleManager.dll
 0004:00000308       __imp_??0CDlgServerItem@@QAE@XZ 004a5308     ModuleManager:ModuleManager.dll
 0004:0000030c       __imp_??0CDlgServerWizard@@QAE@XZ 004a530c     ModuleManager:ModuleManager.dll
 0004:00000310       __imp_?OpenGameMatch@CDlgServerMatch@@QAE_NAAUtagGameServiceAttrib@@AAUtagGameServiceOption@@@Z 004a5310     ModuleManager:ModuleManager.dll
 0004:00000314       __imp_??1CDlgServerMatch@@UAE@XZ 004a5314     ModuleManager:ModuleManager.dll
 0004:00000318       __imp_??0CDlgServerMatch@@QAE@XZ 004a5318     ModuleManager:ModuleManager.dll
 0004:0000031c       __imp_?OpenGameServer@CDlgServerItem@@QAE_NG@Z 004a531c     ModuleManager:ModuleManager.dll
 0004:00000320       \177ModuleManager_NULL_THUNK_DATA 004a5320     ModuleManager:ModuleManager.dll
 0004:00000358       __imp__GetErrorInfo@8      004a5358     oleaut32:OLEAUT32.dll
 0004:0000035c       __imp__VariantChangeType@16 004a535c     oleaut32:OLEAUT32.dll
 0004:00000360       __imp__SetErrorInfo@8      004a5360     oleaut32:OLEAUT32.dll
 0004:00000364       __imp__CreateErrorInfo@4   004a5364     oleaut32:OLEAUT32.dll
 0004:00000368       __imp__SysFreeString@4     004a5368     oleaut32:OLEAUT32.dll
 0004:0000036c       __imp__VariantCopy@8       004a536c     oleaut32:OLEAUT32.dll
 0004:00000370       __imp__VariantClear@4      004a5370     oleaut32:OLEAUT32.dll
 0004:00000374       __imp__VariantInit@4       004a5374     oleaut32:OLEAUT32.dll
 0004:00000378       __imp__SafeArrayCreate@12  004a5378     oleaut32:OLEAUT32.dll
 0004:0000037c       __imp__SafeArrayPutElement@12 004a537c     oleaut32:OLEAUT32.dll
 0004:00000380       \177OLEAUT32_NULL_THUNK_DATA 004a5380     oleaut32:OLEAUT32.dll
 0004:000003b4       __imp__StrToIntA@4         004a53b4     shlwapi:SHLWAPI.dll
 0004:000003b8       __imp__PathFileExistsA@4   004a53b8     shlwapi:SHLWAPI.dll
 0004:000003bc       \177SHLWAPI_NULL_THUNK_DATA 004a53bc     shlwapi:SHLWAPI.dll
 0004:000003e8       __imp_?DistillData@CWHDataQueue@@QAE_NAAUtagDataHead@@PAXG@Z 004a53e8     ServiceCore:ServiceCore.dll
 0004:000003ec       __imp_??1CWHDataQueue@@UAE@XZ 004a53ec     ServiceCore:ServiceCore.dll
 0004:000003f0       __imp_??0CWHDataQueue@@QAE@XZ 004a53f0     ServiceCore:ServiceCore.dll
 0004:000003f4       __imp_?XorCrevasse@CWHEncrypt@@SA_NPBDPADG@Z 004a53f4     ServiceCore:ServiceCore.dll
 0004:000003f8       __imp_?SearchCommandItem@CWHCommandLine@@QAE_NPBD0QADG@Z 004a53f8     ServiceCore:ServiceCore.dll
 0004:000003fc       __imp_??1CWHCommandLine@@UAE@XZ 004a53fc     ServiceCore:ServiceCore.dll
 0004:00000400       __imp_??0CWHCommandLine@@QAE@XZ 004a5400     ServiceCore:ServiceCore.dll
 0004:00000404       __imp_?ReadEncryptString@CWHIniData@@QAEPBDPBD00PADG@Z 004a5404     ServiceCore:ServiceCore.dll
 0004:00000408       __imp_?ReadInt@CWHIniData@@QAEIPBD0H@Z 004a5408     ServiceCore:ServiceCore.dll
 0004:0000040c       __imp_?SetIniFilePath@CWHIniData@@QAEXPBD@Z 004a540c     ServiceCore:ServiceCore.dll
 0004:00000410       __imp_??1CWHIniData@@UAE@XZ 004a5410     ServiceCore:ServiceCore.dll
 0004:00000414       __imp_??0CWHIniData@@QAE@XZ 004a5414     ServiceCore:ServiceCore.dll
 0004:00000418       __imp_?GetWorkDirectory@CWHService@@SA_NQADG@Z 004a5418     ServiceCore:ServiceCore.dll
 0004:0000041c       __imp_??1CWHDataLocker@@UAE@XZ 004a541c     ServiceCore:ServiceCore.dll
 0004:00000420       __imp_?InsertData@CWHDataQueue@@QAE_NGPAXG@Z 004a5420     ServiceCore:ServiceCore.dll
 0004:00000424       __imp_??0CWHDataLocker@@QAE@AAVCCriticalSection@@_N@Z 004a5424     ServiceCore:ServiceCore.dll
 0004:00000428       \177ServiceCore_NULL_THUNK_DATA 004a5428     ServiceCore:ServiceCore.dll
 0004:00000460       __imp__PeekMessageA@20     004a5460     user32:USER32.dll
 0004:00000464       __imp__PostQuitMessage@4   004a5464     user32:USER32.dll
 0004:00000468       __imp__LoadIconA@8         004a5468     user32:USER32.dll
 0004:0000046c       __imp__IsWindow@4          004a546c     user32:USER32.dll
 0004:00000470       __imp__UnregisterClassA@8  004a5470     user32:USER32.dll
 0004:00000474       __imp__wsprintfA           004a5474     user32:USER32.dll
 0004:00000478       \177USER32_NULL_THUNK_DATA 004a5478     user32:USER32.dll
 0004:000004a8       __imp__memset              004a54a8     vcruntimed:VCRUNTIME140D.dll
 0004:000004ac       __imp__memmove             004a54ac     vcruntimed:VCRUNTIME140D.dll
 0004:000004b0       __imp___CxxThrowException@8 004a54b0     vcruntimed:VCRUNTIME140D.dll
 0004:000004b4       __imp__memcmp              004a54b4     vcruntimed:VCRUNTIME140D.dll
 0004:000004b8       __imp___purecall           004a54b8     vcruntimed:VCRUNTIME140D.dll
 0004:000004bc       __imp____CxxFrameHandler3  004a54bc     vcruntimed:VCRUNTIME140D.dll
 0004:000004c0       __imp___except_handler4_common 004a54c0     vcruntimed:VCRUNTIME140D.dll
 0004:000004c4       __imp____std_type_info_destroy_list 004a54c4     vcruntimed:VCRUNTIME140D.dll
 0004:000004c8       __imp____vcrt_GetModuleFileNameW 004a54c8     vcruntimed:VCRUNTIME140D.dll
 0004:000004cc       __imp____vcrt_GetModuleHandleW 004a54cc     vcruntimed:VCRUNTIME140D.dll
 0004:000004d0       __imp____vcrt_LoadLibraryExW 004a54d0     vcruntimed:VCRUNTIME140D.dll
 0004:000004d4       __imp__memcpy              004a54d4     vcruntimed:VCRUNTIME140D.dll
 0004:000004d8       \177VCRUNTIME140D_NULL_THUNK_DATA 004a54d8     vcruntimed:VCRUNTIME140D.dll
 0004:0000050c       __imp_?InitInstance@CWinApp@@UAEHXZ 004a550c     mfc140d:mfc140d.dll
 0004:00000510       __imp_?ExitInstance@CWinApp@@UAEHXZ 004a5510     mfc140d:mfc140d.dll
 0004:00000514       __imp_?RestartInstance@CWinApp@@UAEHXZ 004a5514     mfc140d:mfc140d.dll
 0004:00000518       __imp_?Run@CWinApp@@UAEHXZ 004a5518     mfc140d:mfc140d.dll
 0004:0000051c       __imp_?OnIdle@CWinApp@@UAEHJ@Z 004a551c     mfc140d:mfc140d.dll
 0004:00000520       __imp_?ProcessWndProcException@CWinApp@@UAEJPAVCException@@PBUtagMSG@@@Z 004a5520     mfc140d:mfc140d.dll
 0004:00000524       __imp_?LoadAppLangResourceDLL@CWinApp@@UAEPAUHINSTANCE__@@XZ 004a5524     mfc140d:mfc140d.dll
 0004:00000528       __imp_??1CWinApp@@UAE@XZ   004a5528     mfc140d:mfc140d.dll
 0004:0000052c       __imp_?AssertValid@CWinApp@@UBEXXZ 004a552c     mfc140d:mfc140d.dll
 0004:00000530       __imp_?Dump@CWinApp@@UBEXAAVCDumpContext@@@Z 004a5530     mfc140d:mfc140d.dll
 0004:00000534       __imp_?LoadSysPolicies@CWinApp@@UAEHXZ 004a5534     mfc140d:mfc140d.dll
 0004:00000538       __imp_?AfxEnableControlContainer@@YAXPAVCOccManager@@@Z 004a5538     mfc140d:mfc140d.dll
 0004:0000053c       __imp_?GetThisMessageMap@CDialog@@KGPBUAFX_MSGMAP@@XZ 004a553c     mfc140d:mfc140d.dll
 0004:00000540       __imp_?DDX_Control@@YGXPAVCDataExchange@@HAAVCWnd@@@Z 004a5540     mfc140d:mfc140d.dll
 0004:00000544       __imp_?PreSubclassWindow@CWnd@@UAEXXZ 004a5544     mfc140d:mfc140d.dll
 0004:00000548       __imp_?Create@CWnd@@UAEHPBD0KABUtagRECT@@PAV1@IPAUCCreateContext@@@Z 004a5548     mfc140d:mfc140d.dll
 0004:0000054c       __imp_?CreateEx@CWnd@@UAEHKPBD0KHHHHPAUHWND__@@PAUHMENU__@@PAX@Z 004a554c     mfc140d:mfc140d.dll
 0004:00000550       __imp_?CreateEx@CWnd@@UAEHKPBD0KABUtagRECT@@PAV1@IPAX@Z 004a5550     mfc140d:mfc140d.dll
 0004:00000554       __imp_?DestroyWindow@CWnd@@UAEHXZ 004a5554     mfc140d:mfc140d.dll
 0004:00000558       __imp_?PreCreateWindow@CWnd@@UAEHAAUtagCREATESTRUCTA@@@Z 004a5558     mfc140d:mfc140d.dll
 0004:0000055c       __imp_?CalcWindowRect@CWnd@@UAEXPAUtagRECT@@I@Z 004a555c     mfc140d:mfc140d.dll
 0004:00000560       __imp_?WriteProfileStringA@CWinApp@@UAEHPBD00@Z 004a5560     mfc140d:mfc140d.dll
 0004:00000564       __imp_?PostMessageA@CWnd@@QAEHIIJ@Z 004a5564     mfc140d:mfc140d.dll
 0004:00000568       __imp_?SetWindowTextA@CWnd@@QAEXPBD@Z 004a5568     mfc140d:mfc140d.dll
 0004:0000056c       __imp_?GetMenu@CWnd@@UBEPAVCMenu@@XZ 004a556c     mfc140d:mfc140d.dll
 0004:00000570       __imp_?SetMenu@CWnd@@UAEHPAVCMenu@@@Z 004a5570     mfc140d:mfc140d.dll
 0004:00000574       __imp_?OnToolHitTest@CWnd@@UBEHVCPoint@@PAUtagTOOLINFOA@@@Z 004a5574     mfc140d:mfc140d.dll
 0004:00000578       __imp_?EnableWindow@CWnd@@QAEHH@Z 004a5578     mfc140d:mfc140d.dll
 0004:0000057c       __imp_?SetDlgItemInt@CWnd@@QAEXHIH@Z 004a557c     mfc140d:mfc140d.dll
 0004:00000580       __imp_?SetDlgItemTextA@CWnd@@QAEXHPBD@Z 004a5580     mfc140d:mfc140d.dll
 0004:00000584       __imp_?GetScrollBarCtrl@CWnd@@UBEPAVCScrollBar@@H@Z 004a5584     mfc140d:mfc140d.dll
 0004:00000588       __imp_?SetIcon@CWnd@@QAEPAUHICON__@@PAU2@H@Z 004a5588     mfc140d:mfc140d.dll
 0004:0000058c       __imp_?WinHelpA@CWnd@@UAEXKI@Z 004a558c     mfc140d:mfc140d.dll
 0004:00000590       __imp_?HtmlHelpA@CWnd@@UAEXKI@Z 004a5590     mfc140d:mfc140d.dll
 0004:00000594       __imp_?WinHelpInternal@CWnd@@UAEXKI@Z 004a5594     mfc140d:mfc140d.dll
 0004:00000598       __imp_?ContinueModal@CWnd@@UAEHXZ 004a5598     mfc140d:mfc140d.dll
 0004:0000059c       __imp_?EndModalLoop@CWnd@@UAEXH@Z 004a559c     mfc140d:mfc140d.dll
 0004:000005a0       __imp_?OnDrawIconicThumbnailOrLivePreview@CWnd@@UAEXAAVCDC@@VCRect@@VCSize@@HAAH@Z 004a55a0     mfc140d:mfc140d.dll
 0004:000005a4       __imp_?GetInterfaceMap@CWnd@@MBEPBUAFX_INTERFACEMAP@@XZ 004a55a4     mfc140d:mfc140d.dll
 0004:000005a8       __imp_?EnsureStdObj@CWnd@@UAEJXZ 004a55a8     mfc140d:mfc140d.dll
 0004:000005ac       __imp_?get_accParent@CWnd@@UAEJPAPAUIDispatch@@@Z 004a55ac     mfc140d:mfc140d.dll
 0004:000005b0       __imp_?get_accChildCount@CWnd@@UAEJPAJ@Z 004a55b0     mfc140d:mfc140d.dll
 0004:000005b4       __imp_?get_accChild@CWnd@@UAEJUtagVARIANT@@PAPAUIDispatch@@@Z 004a55b4     mfc140d:mfc140d.dll
 0004:000005b8       __imp_?get_accName@CWnd@@UAEJUtagVARIANT@@PAPA_W@Z 004a55b8     mfc140d:mfc140d.dll
 0004:000005bc       __imp_?get_accValue@CWnd@@UAEJUtagVARIANT@@PAPA_W@Z 004a55bc     mfc140d:mfc140d.dll
 0004:000005c0       __imp_?get_accDescription@CWnd@@UAEJUtagVARIANT@@PAPA_W@Z 004a55c0     mfc140d:mfc140d.dll
 0004:000005c4       __imp_?get_accRole@CWnd@@UAEJUtagVARIANT@@PAU2@@Z 004a55c4     mfc140d:mfc140d.dll
 0004:000005c8       __imp_?get_accState@CWnd@@UAEJUtagVARIANT@@PAU2@@Z 004a55c8     mfc140d:mfc140d.dll
 0004:000005cc       __imp_?get_accHelp@CWnd@@UAEJUtagVARIANT@@PAPA_W@Z 004a55cc     mfc140d:mfc140d.dll
 0004:000005d0       __imp_?get_accHelpTopic@CWnd@@UAEJPAPA_WUtagVARIANT@@PAJ@Z 004a55d0     mfc140d:mfc140d.dll
 0004:000005d4       __imp_?get_accKeyboardShortcut@CWnd@@UAEJUtagVARIANT@@PAPA_W@Z 004a55d4     mfc140d:mfc140d.dll
 0004:000005d8       __imp_?get_accFocus@CWnd@@UAEJPAUtagVARIANT@@@Z 004a55d8     mfc140d:mfc140d.dll
 0004:000005dc       __imp_?get_accSelection@CWnd@@UAEJPAUtagVARIANT@@@Z 004a55dc     mfc140d:mfc140d.dll
 0004:000005e0       __imp_?get_accDefaultAction@CWnd@@UAEJUtagVARIANT@@PAPA_W@Z 004a55e0     mfc140d:mfc140d.dll
 0004:000005e4       __imp_?accSelect@CWnd@@UAEJJUtagVARIANT@@@Z 004a55e4     mfc140d:mfc140d.dll
 0004:000005e8       __imp_?accLocation@CWnd@@UAEJPAJ000UtagVARIANT@@@Z 004a55e8     mfc140d:mfc140d.dll
 0004:000005ec       __imp_?accNavigate@CWnd@@UAEJJUtagVARIANT@@PAU2@@Z 004a55ec     mfc140d:mfc140d.dll
 0004:000005f0       __imp_?accHitTest@CWnd@@UAEJJJPAUtagVARIANT@@@Z 004a55f0     mfc140d:mfc140d.dll
 0004:000005f4       __imp_?accDoDefaultAction@CWnd@@UAEJUtagVARIANT@@@Z 004a55f4     mfc140d:mfc140d.dll
 0004:000005f8       __imp_?put_accName@CWnd@@UAEJUtagVARIANT@@PA_W@Z 004a55f8     mfc140d:mfc140d.dll
 0004:000005fc       __imp_?put_accValue@CWnd@@UAEJUtagVARIANT@@PA_W@Z 004a55fc     mfc140d:mfc140d.dll
 0004:00000600       __imp_?SetProxy@CWnd@@UAEJPAUIAccessibleProxy@@@Z 004a5600     mfc140d:mfc140d.dll
 0004:00000604       __imp_?CreateAccessibleProxy@CWnd@@UAEJIJPAJ@Z 004a5604     mfc140d:mfc140d.dll
 0004:00000608       __imp_?OnCommand@CWnd@@MAEHIJ@Z 004a5608     mfc140d:mfc140d.dll
 0004:0000060c       __imp_?OnNotify@CWnd@@MAEHIJPAJ@Z 004a560c     mfc140d:mfc140d.dll
 0004:00000610       __imp_?GetSuperWndProcAddr@CWnd@@MAEPAP6GJPAUHWND__@@IIJ@ZXZ 004a5610     mfc140d:mfc140d.dll
 0004:00000614       __imp_?DoDataExchange@CWnd@@MAEXPAVCDataExchange@@@Z 004a5614     mfc140d:mfc140d.dll
 0004:00000618       __imp_?BeginModalState@CWnd@@UAEXXZ 004a5618     mfc140d:mfc140d.dll
 0004:0000061c       __imp_?EndModalState@CWnd@@UAEXXZ 004a561c     mfc140d:mfc140d.dll
 0004:00000620       __imp_?OnAmbientProperty@CWnd@@UAEHPAVCOleControlSite@@JPAUtagVARIANT@@@Z 004a5620     mfc140d:mfc140d.dll
 0004:00000624       __imp_?WindowProc@CWnd@@MAEJIIJ@Z 004a5624     mfc140d:mfc140d.dll
 0004:00000628       __imp_?OnWndMsg@CWnd@@MAEHIIJPAJ@Z 004a5628     mfc140d:mfc140d.dll
 0004:0000062c       __imp_?DefWindowProcA@CWnd@@MAEJIIJ@Z 004a562c     mfc140d:mfc140d.dll
 0004:00000630       __imp_?PostNcDestroy@CWnd@@MAEXXZ 004a5630     mfc140d:mfc140d.dll
 0004:00000634       __imp_?OnChildNotify@CWnd@@MAEHIIJPAJ@Z 004a5634     mfc140d:mfc140d.dll
 0004:00000638       __imp_?OnTouchInputs@CWnd@@MAEHIPAUtagTOUCHINPUT@@@Z 004a5638     mfc140d:mfc140d.dll
 0004:0000063c       __imp_?OnTouchInput@CWnd@@MAEHVCPoint@@HHPAUtagTOUCHINPUT@@@Z 004a563c     mfc140d:mfc140d.dll
 0004:00000640       __imp_?GetGestureStatus@CWnd@@MAEKVCPoint@@@Z 004a5640     mfc140d:mfc140d.dll
 0004:00000644       __imp_?OnGestureZoom@CWnd@@MAEHVCPoint@@J@Z 004a5644     mfc140d:mfc140d.dll
 0004:00000648       __imp_?OnGesturePan@CWnd@@MAEHVCPoint@@0@Z 004a5648     mfc140d:mfc140d.dll
 0004:0000064c       __imp_?OnGestureRotate@CWnd@@MAEHVCPoint@@N@Z 004a564c     mfc140d:mfc140d.dll
 0004:00000650       __imp_?OnGestureTwoFingerTap@CWnd@@MAEHVCPoint@@@Z 004a5650     mfc140d:mfc140d.dll
 0004:00000654       __imp_?OnGesturePressAndTap@CWnd@@MAEHVCPoint@@J@Z 004a5654     mfc140d:mfc140d.dll
 0004:00000658       __imp_?ResizeDynamicLayout@CWnd@@MAEXXZ 004a5658     mfc140d:mfc140d.dll
 0004:0000065c       __imp_?IsFrameWnd@CWnd@@UBEHXZ 004a565c     mfc140d:mfc140d.dll
 0004:00000660       __imp_?OnFinalRelease@CWnd@@UAEXXZ 004a5660     mfc140d:mfc140d.dll
 0004:00000664       __imp_?CreateControlContainer@CWnd@@MAEHPAPAVCOleControlContainer@@@Z 004a5664     mfc140d:mfc140d.dll
 0004:00000668       __imp_?CreateControlSite@CWnd@@MAEHPAVCOleControlContainer@@PAPAVCOleControlSite@@IABU_GUID@@@Z 004a5668     mfc140d:mfc140d.dll
 0004:0000066c       __imp_?GetRuntimeClass@CDialog@@UBEPAUCRuntimeClass@@XZ 004a566c     mfc140d:mfc140d.dll
 0004:00000670       __imp_?Create@CDialog@@UAEHPBDPAVCWnd@@@Z 004a5670     mfc140d:mfc140d.dll
 0004:00000674       __imp_?Create@CDialog@@UAEHIPAVCWnd@@@Z 004a5674     mfc140d:mfc140d.dll
 0004:00000678       __imp_?CreateIndirect@CDialog@@UAEHPBUDLGTEMPLATE@@PAVCWnd@@PAX@Z 004a5678     mfc140d:mfc140d.dll
 0004:0000067c       __imp_?CreateIndirect@CDialog@@UAEHPAXPAVCWnd@@@Z 004a567c     mfc140d:mfc140d.dll
 0004:00000680       __imp_??0CDialog@@QAE@IPAVCWnd@@@Z 004a5680     mfc140d:mfc140d.dll
 0004:00000684       __imp_?OnInitDialog@CDialog@@UAEHXZ 004a5684     mfc140d:mfc140d.dll
 0004:00000688       __imp_?OnSetFont@CDialog@@UAEXPAVCFont@@@Z 004a5688     mfc140d:mfc140d.dll
 0004:0000068c       __imp_?OnCancel@CDialog@@MAEXXZ 004a568c     mfc140d:mfc140d.dll
 0004:00000690       __imp_??1CDialog@@UAE@XZ   004a5690     mfc140d:mfc140d.dll
 0004:00000694       __imp_?IsTaskbarInteractionEnabled@CWinApp@@UAEHXZ 004a5694     mfc140d:mfc140d.dll
 0004:00000698       __imp_?Dump@CDialog@@UBEXAAVCDumpContext@@@Z 004a5698     mfc140d:mfc140d.dll
 0004:0000069c       __imp_?PreTranslateMessage@CDialog@@UAEHPAUtagMSG@@@Z 004a569c     mfc140d:mfc140d.dll
 0004:000006a0       __imp_?OnCmdMsg@CDialog@@UAEHIHPAXPAUAFX_CMDHANDLERINFO@@@Z 004a56a0     mfc140d:mfc140d.dll
 0004:000006a4       __imp_?CheckAutoCenter@CDialog@@UAEHXZ 004a56a4     mfc140d:mfc140d.dll
 0004:000006a8       __imp_?SetOccDialogInfo@CDialog@@MAEHPAU_AFX_OCC_DIALOG_INFO@@@Z 004a56a8     mfc140d:mfc140d.dll
 0004:000006ac       __imp_?GetOccDialogInfo@CDialog@@MAEPAU_AFX_OCC_DIALOG_INFO@@XZ 004a56ac     mfc140d:mfc140d.dll
 0004:000006b0       __imp_?PreInitDialog@CDialog@@MAEXXZ 004a56b0     mfc140d:mfc140d.dll
 0004:000006b4       __imp_?SetIcon@CStatic@@QAEPAUHICON__@@PAU2@@Z 004a56b4     mfc140d:mfc140d.dll
 0004:000006b8       __imp_?AfxGetApp@@YGPAVCWinApp@@XZ 004a56b8     mfc140d:mfc140d.dll
 0004:000006bc       __imp_?AfxGetInstanceHandle@@YGPAUHINSTANCE__@@XZ 004a56bc     mfc140d:mfc140d.dll
 0004:000006c0       __imp_?AfxSetResourceHandle@@YGXPAUHINSTANCE__@@@Z 004a56c0     mfc140d:mfc140d.dll
 0004:000006c4       __imp_?AfxMessageBox@@YGHPBDII@Z 004a56c4     mfc140d:mfc140d.dll
 0004:000006c8       __imp_??0?$CStringT@DV?$StrTraitMFC_DLL@DV?$ChTraitsCRT@D@ATL@@@@@ATL@@QAE@ABV01@@Z 004a56c8     mfc140d:mfc140d.dll
 0004:000006cc       __imp_??4?$CStringT@DV?$StrTraitMFC_DLL@DV?$ChTraitsCRT@D@ATL@@@@@ATL@@QAEAAV01@PBD@Z 004a56cc     mfc140d:mfc140d.dll
 0004:000006d0       __imp_?Replace@?$CStringT@DV?$StrTraitMFC_DLL@DV?$ChTraitsCRT@D@ATL@@@@@ATL@@QAEHPBD0@Z 004a56d0     mfc140d:mfc140d.dll
 0004:000006d4       __imp_?GetThisMessageMap@CWnd@@KGPBUAFX_MSGMAP@@XZ 004a56d4     mfc140d:mfc140d.dll
 0004:000006d8       __imp_?GetRuntimeClass@CWnd@@UBEPAUCRuntimeClass@@XZ 004a56d8     mfc140d:mfc140d.dll
 0004:000006dc       __imp_??0CWnd@@QAE@XZ      004a56dc     mfc140d:mfc140d.dll
 0004:000006e0       __imp_?PreTranslateMessage@CWnd@@UAEHPAUtagMSG@@@Z 004a56e0     mfc140d:mfc140d.dll
 0004:000006e4       __imp_??1CWnd@@UAE@XZ      004a56e4     mfc140d:mfc140d.dll
 0004:000006e8       __imp_?CheckAutoCenter@CWnd@@UAEHXZ 004a56e8     mfc140d:mfc140d.dll
 0004:000006ec       __imp_?AssertValid@CWnd@@UBEXXZ 004a56ec     mfc140d:mfc140d.dll
 0004:000006f0       __imp_?Dump@CWnd@@UBEXAAVCDumpContext@@@Z 004a56f0     mfc140d:mfc140d.dll
 0004:000006f4       __imp_?SetOccDialogInfo@CWnd@@MAEHPAU_AFX_OCC_DIALOG_INFO@@@Z 004a56f4     mfc140d:mfc140d.dll
 0004:000006f8       __imp_?GetOccDialogInfo@CWnd@@MAEPAU_AFX_OCC_DIALOG_INFO@@XZ 004a56f8     mfc140d:mfc140d.dll
 0004:000006fc       __imp_?AfxGetMainWnd@@YGPAVCWnd@@XZ 004a56fc     mfc140d:mfc140d.dll
 0004:00000700       __imp_?AfxGetModuleState@@YGPAVAFX_MODULE_STATE@@XZ 004a5700     mfc140d:mfc140d.dll
 0004:00000704       __imp_?GetProfileStringA@CWinApp@@UAE?AV?$CStringT@DV?$StrTraitMFC_DLL@DV?$ChTraitsCRT@D@ATL@@@@@ATL@@PBD00@Z 004a5704     mfc140d:mfc140d.dll
 0004:00000708       __imp_?WriteProfileInt@CWinApp@@UAEHPBD0H@Z 004a5708     mfc140d:mfc140d.dll
 0004:0000070c       __imp_?GetProfileIntA@CWinApp@@UAEIPBD0H@Z 004a570c     mfc140d:mfc140d.dll
 0004:00000710       __imp_?SetRegistryKey@CWinApp@@IAEXPBD@Z 004a5710     mfc140d:mfc140d.dll
 0004:00000714       __imp_??0CWinApp@@QAE@PBD@Z 004a5714     mfc140d:mfc140d.dll
 0004:00000718       __imp_?GetRuntimeClass@CWinApp@@UBEPAUCRuntimeClass@@XZ 004a5718     mfc140d:mfc140d.dll
 0004:0000071c       __imp_?Delete@CWinThread@@UAEXXZ 004a571c     mfc140d:mfc140d.dll
 0004:00000720       __imp_?GetMainWnd@CWinThread@@UAEPAVCWnd@@XZ 004a5720     mfc140d:mfc140d.dll
 0004:00000724       __imp_?ProcessMessageFilter@CWinThread@@UAEHHPAUtagMSG@@@Z 004a5724     mfc140d:mfc140d.dll
 0004:00000728       __imp_?IsIdleMessage@CWinThread@@UAEHPAUtagMSG@@@Z 004a5728     mfc140d:mfc140d.dll
 0004:0000072c       __imp_?PumpMessage@CWinThread@@UAEHXZ 004a572c     mfc140d:mfc140d.dll
 0004:00000730       __imp_?PreTranslateMessage@CWinThread@@UAEHPAUtagMSG@@@Z 004a5730     mfc140d:mfc140d.dll
 0004:00000734       __imp_?DoModal@CDialog@@UAEHXZ 004a5734     mfc140d:mfc140d.dll
 0004:00000738       __imp_?AfxInitRichEdit2@@YGHXZ 004a5738     mfc140d:mfc140d.dll
 0004:0000073c       __imp_?GetConnectionHook@CCmdTarget@@MAEPAUIConnectionPoint@@ABU_GUID@@@Z 004a573c     mfc140d:mfc140d.dll
 0004:00000740       __imp_?GetExtraConnectionPoints@CCmdTarget@@MAEHPAVCPtrArray@@@Z 004a5740     mfc140d:mfc140d.dll
 0004:00000744       __imp_?GetInterfaceHook@CCmdTarget@@UAEPAUIUnknown@@PBX@Z 004a5744     mfc140d:mfc140d.dll
 0004:00000748       __imp_?OnCreateAggregates@CCmdTarget@@UAEHXZ 004a5748     mfc140d:mfc140d.dll
 0004:0000074c       __imp_?GetEventSinkMap@CCmdTarget@@MBEPBUAFX_EVENTSINKMAP@@XZ 004a574c     mfc140d:mfc140d.dll
 0004:00000750       __imp_?GetInterfaceMap@CCmdTarget@@MBEPBUAFX_INTERFACEMAP@@XZ 004a5750     mfc140d:mfc140d.dll
 0004:00000754       __imp_?GetConnectionMap@CCmdTarget@@MBEPBUAFX_CONNECTIONMAP@@XZ 004a5754     mfc140d:mfc140d.dll
 0004:00000758       __imp_?GetDispatchMap@CCmdTarget@@MBEPBUAFX_DISPMAP@@XZ 004a5758     mfc140d:mfc140d.dll
 0004:0000075c       __imp_?GetCommandMap@CCmdTarget@@MBEPBUAFX_OLECMDMAP@@XZ 004a575c     mfc140d:mfc140d.dll
 0004:00000760       __imp_?GetTypeLib@CCmdTarget@@UAEJKPAPAUITypeLib@@@Z 004a5760     mfc140d:mfc140d.dll
 0004:00000764       __imp_?GetTypeLibCache@CCmdTarget@@UAEPAVCTypeLibCache@@XZ 004a5764     mfc140d:mfc140d.dll
 0004:00000768       __imp_?GetTypeInfoCount@CCmdTarget@@UAEIXZ 004a5768     mfc140d:mfc140d.dll
 0004:0000076c       __imp_?GetDispatchIID@CCmdTarget@@UAEHPAU_GUID@@@Z 004a576c     mfc140d:mfc140d.dll
 0004:00000770       __imp_?IsInvokeAllowed@CCmdTarget@@UAEHJ@Z 004a5770     mfc140d:mfc140d.dll
 0004:00000774       __imp_?OnFinalRelease@CCmdTarget@@UAEXXZ 004a5774     mfc140d:mfc140d.dll
 0004:00000778       __imp_?OnCmdMsg@CCmdTarget@@UAEHIHPAXPAUAFX_CMDHANDLERINFO@@@Z 004a5778     mfc140d:mfc140d.dll
 0004:0000077c       __imp_?GetThisMessageMap@CWinApp@@KGPBUAFX_MSGMAP@@XZ 004a577c     mfc140d:mfc140d.dll
 0004:00000780       __imp_??2@YAPAXI@Z         004a5780     mfc140d:mfc140d.dll
 0004:00000784       __imp_??1CCriticalSection@@UAE@XZ 004a5784     mfc140d:mfc140d.dll
 0004:00000788       __imp_??0CCriticalSection@@QAE@XZ 004a5788     mfc140d:mfc140d.dll
 0004:0000078c       __imp_?AfxFreeLibrary@@YGHPAUHINSTANCE__@@@Z 004a578c     mfc140d:mfc140d.dll
 0004:00000790       __imp_?AfxLoadLibrary@@YGPAUHINSTANCE__@@PBD@Z 004a5790     mfc140d:mfc140d.dll
 0004:00000794       __imp_?Left@?$CStringT@DV?$StrTraitMFC_DLL@DV?$ChTraitsCRT@D@ATL@@@@@ATL@@QBE?AV12@H@Z 004a5794     mfc140d:mfc140d.dll
 0004:00000798       __imp_?Right@?$CStringT@DV?$StrTraitMFC_DLL@DV?$ChTraitsCRT@D@ATL@@@@@ATL@@QBE?AV12@H@Z 004a5798     mfc140d:mfc140d.dll
 0004:0000079c       __imp_?Find@?$CStringT@DV?$StrTraitMFC_DLL@DV?$ChTraitsCRT@D@ATL@@@@@ATL@@QBEHDH@Z 004a579c     mfc140d:mfc140d.dll
 0004:000007a0       __imp_??4?$CStringT@DV?$StrTraitMFC_DLL@DV?$ChTraitsCRT@D@ATL@@@@@ATL@@QAEAAV01@ABV01@@Z 004a57a0     mfc140d:mfc140d.dll
 0004:000007a4       __imp_?AfxThrowOleException@@YGXJ@Z 004a57a4     mfc140d:mfc140d.dll
 0004:000007a8       __imp_?AfxThrowMemoryException@@YGXXZ 004a57a8     mfc140d:mfc140d.dll
 0004:000007ac       __imp_??3@YAXPAX@Z         004a57ac     mfc140d:mfc140d.dll
 0004:000007b0       __imp_?FreeDataChain@CPlex@@QAEXXZ 004a57b0     mfc140d:mfc140d.dll
 0004:000007b4       __imp_?Create@CPlex@@SGPAU1@AAPAU1@II@Z 004a57b4     mfc140d:mfc140d.dll
 0004:000007b8       __imp_??6CDumpContext@@QAEAAV0@H@Z 004a57b8     mfc140d:mfc140d.dll
 0004:000007bc       __imp_??6CDumpContext@@QAEAAV0@PBD@Z 004a57bc     mfc140d:mfc140d.dll
 0004:000007c0       __imp_?GetDepth@CDumpContext@@QBEHXZ 004a57c0     mfc140d:mfc140d.dll
 0004:000007c4       __imp_?WriteCount@CArchive@@QAEXK@Z 004a57c4     mfc140d:mfc140d.dll
 0004:000007c8       __imp_?GetDataRecoveryHandler@CWinApp@@UAEPAVCDataRecoveryHandler@@XZ 004a57c8     mfc140d:mfc140d.dll
 0004:000007cc       __imp_?ApplicationRecoveryCallback@CWinApp@@UAEKPAX@Z 004a57cc     mfc140d:mfc140d.dll
 0004:000007d0       __imp_?RegisterWithRestartManager@CWinApp@@UAEJPB_WKP6GKPAX@Z1KK@Z 004a57d0     mfc140d:mfc140d.dll
 0004:000007d4       __imp_?RegisterWithRestartManager@CWinApp@@UAEJHABV?$CStringT@DV?$StrTraitMFC_DLL@DV?$ChTraitsCRT@D@ATL@@@@@ATL@@@Z 004a57d4     mfc140d:mfc140d.dll
 0004:000007d8       __imp_?WinHelpInternal@CWinApp@@UAEXKI@Z 004a57d8     mfc140d:mfc140d.dll
 0004:000007dc       __imp_?HtmlHelpA@CWinApp@@UAEXKI@Z 004a57dc     mfc140d:mfc140d.dll
 0004:000007e0       __imp_?WinHelpA@CWinApp@@UAEXKI@Z 004a57e0     mfc140d:mfc140d.dll
 0004:000007e4       __imp_?ReadCount@CArchive@@QAEKXZ 004a57e4     mfc140d:mfc140d.dll
 0004:000007e8       __imp_?Write@CArchive@@QAEXPBXI@Z 004a57e8     mfc140d:mfc140d.dll
 0004:000007ec       __imp_?EnsureRead@CArchive@@QAEXPAXI@Z 004a57ec     mfc140d:mfc140d.dll
 0004:000007f0       __imp_?IsStoring@CArchive@@QBEHXZ 004a57f0     mfc140d:mfc140d.dll
 0004:000007f4       __imp_??_U@YAPAXIPBDH@Z    004a57f4     mfc140d:mfc140d.dll
 0004:000007f8       __imp_??3@YAXPAXPBDH@Z     004a57f8     mfc140d:mfc140d.dll
 0004:000007fc       __imp_??2@YAPAXIPBDH@Z     004a57fc     mfc140d:mfc140d.dll
 0004:00000800       __imp_?AfxIsValidAddress@@YGHPBXIH@Z 004a5800     mfc140d:mfc140d.dll
 0004:00000804       __imp_?Format@?$CStringT@DV?$StrTraitMFC_DLL@DV?$ChTraitsCRT@D@ATL@@@@@ATL@@QAAXPBDZZ 004a5804     mfc140d:mfc140d.dll
 0004:00000808       __imp_?Trim@?$CStringT@DV?$StrTraitMFC_DLL@DV?$ChTraitsCRT@D@ATL@@@@@ATL@@QAEAAV12@XZ 004a5808     mfc140d:mfc140d.dll
 0004:0000080c       __imp_??1?$CStringT@DV?$StrTraitMFC_DLL@DV?$ChTraitsCRT@D@ATL@@@@@ATL@@QAE@XZ 004a580c     mfc140d:mfc140d.dll
 0004:00000810       __imp_??0?$CStringT@DV?$StrTraitMFC_DLL@DV?$ChTraitsCRT@D@ATL@@@@@ATL@@QAE@PBD@Z 004a5810     mfc140d:mfc140d.dll
 0004:00000814       __imp_??0?$CStringT@DV?$StrTraitMFC_DLL@DV?$ChTraitsCRT@D@ATL@@@@@ATL@@QAE@XZ 004a5814     mfc140d:mfc140d.dll
 0004:00000818       __imp_?GetLength@?$CSimpleStringT@D$00@ATL@@QBEHXZ 004a5818     mfc140d:mfc140d.dll
 0004:0000081c       __imp_?Append@?$CSimpleStringT@D$00@ATL@@QAEXPBD@Z 004a581c     mfc140d:mfc140d.dll
 0004:00000820       __imp_??B?$CSimpleStringT@D$00@ATL@@QBEPBDXZ 004a5820     mfc140d:mfc140d.dll
 0004:00000824       __imp_?Dump@CObject@@UBEXAAVCDumpContext@@@Z 004a5824     mfc140d:mfc140d.dll
 0004:00000828       __imp_?AssertValid@CObject@@UBEXXZ 004a5828     mfc140d:mfc140d.dll
 0004:0000082c       __imp_?Serialize@CObject@@UAEXAAVCArchive@@@Z 004a582c     mfc140d:mfc140d.dll
 0004:00000830       __imp_??0CObject@@IAE@XZ   004a5830     mfc140d:mfc140d.dll
 0004:00000834       __imp_??3CObject@@SGXPAX@Z 004a5834     mfc140d:mfc140d.dll
 0004:00000838       __imp_??1CObject@@UAE@XZ   004a5838     mfc140d:mfc140d.dll
 0004:0000083c       __imp_?GetRuntimeClass@CObject@@UBEPAUCRuntimeClass@@XZ 004a583c     mfc140d:mfc140d.dll
 0004:00000840       __imp_?OnDDECommand@CWinApp@@UAEHPAD@Z 004a5840     mfc140d:mfc140d.dll
 0004:00000844       __imp_?DoWaitCursor@CWinApp@@UAEXH@Z 004a5844     mfc140d:mfc140d.dll
 0004:00000848       __imp_?DoMessageBox@CWinApp@@UAEHPBDII@Z 004a5848     mfc140d:mfc140d.dll
 0004:0000084c       __imp_?SaveAllModified@CWinApp@@UAEHXZ 004a584c     mfc140d:mfc140d.dll
 0004:00000850       __imp_?InitApplication@CWinApp@@UAEHXZ 004a5850     mfc140d:mfc140d.dll
 0004:00000854       __imp_?AddToRecentFileList@CWinApp@@UAEXPBD@Z 004a5854     mfc140d:mfc140d.dll
 0004:00000858       __imp_?OpenDocumentFile@CWinApp@@UAEPAVCDocument@@PBDH@Z 004a5858     mfc140d:mfc140d.dll
 0004:0000085c       __imp_?OpenDocumentFile@CWinApp@@UAEPAVCDocument@@PBD@Z 004a585c     mfc140d:mfc140d.dll
 0004:00000860       __imp_?Unregister@CWinApp@@UAEHXZ 004a5860     mfc140d:mfc140d.dll
 0004:00000864       __imp_?Register@CWinApp@@UAEHXZ 004a5864     mfc140d:mfc140d.dll
 0004:00000868       __imp_?InitLibId@CWinApp@@UAEXXZ 004a5868     mfc140d:mfc140d.dll
 0004:0000086c       __imp_?WriteProfileBinary@CWinApp@@UAEHPBD0PAEI@Z 004a586c     mfc140d:mfc140d.dll
 0004:00000870       __imp_?AssertValid@CDialog@@UBEXXZ 004a5870     mfc140d:mfc140d.dll
 0004:00000874       __imp_?AfxThrowInvalidArgException@@YGXXZ 004a5874     mfc140d:mfc140d.dll
 0004:00000878       __imp_?AfxAssertValidObject@@YGXPBVCObject@@PBDH@Z 004a5878     mfc140d:mfc140d.dll
 0004:0000087c       __imp_??_V@YAXPAX@Z        004a587c     mfc140d:mfc140d.dll
 0004:00000880       __imp_??_U@YAPAXI@Z        004a5880     mfc140d:mfc140d.dll
 0004:00000884       __imp_?GetProfileBinary@CWinApp@@UAEHPBD0PAPAEPAI@Z 004a5884     mfc140d:mfc140d.dll
 0004:00000888       __imp_?GetDlgItem@CWnd@@QBEPAV1@H@Z 004a5888     mfc140d:mfc140d.dll
 0004:0000088c       __imp_?AfxWinMain@@YGHPAUHINSTANCE__@@0PADH@Z 004a588c     mfc140d:mfc140d.dll
 0004:00000890       \177mfc140d_NULL_THUNK_DATA 004a5890     mfc140d:mfc140d.dll
 0004:00000970       __imp___CrtDbgReport       004a5970     ucrtd:ucrtbased.dll
 0004:00000974       __imp___CrtDbgReportW      004a5974     ucrtd:ucrtbased.dll
 0004:00000978       __imp__wcslen              004a5978     ucrtd:ucrtbased.dll
 0004:0000097c       __imp__calloc              004a597c     ucrtd:ucrtbased.dll
 0004:00000980       __imp__free                004a5980     ucrtd:ucrtbased.dll
 0004:00000984       __imp__malloc              004a5984     ucrtd:ucrtbased.dll
 0004:00000988       __imp___recalloc           004a5988     ucrtd:ucrtbased.dll
 0004:0000098c       __imp___itoa               004a598c     ucrtd:ucrtbased.dll
 0004:00000990       __imp___mktime64           004a5990     ucrtd:ucrtbased.dll
 0004:00000994       __imp__atol                004a5994     ucrtd:ucrtbased.dll
 0004:00000998       __imp___invalid_parameter  004a5998     ucrtd:ucrtbased.dll
 0004:0000099c       __imp__strlen              004a599c     ucrtd:ucrtbased.dll
 0004:000009a0       __imp___calloc_dbg         004a59a0     ucrtd:ucrtbased.dll
 0004:000009a4       __imp__fclose              004a59a4     ucrtd:ucrtbased.dll
 0004:000009a8       __imp__fopen               004a59a8     ucrtd:ucrtbased.dll
 0004:000009ac       __imp__fwrite              004a59ac     ucrtd:ucrtbased.dll
 0004:000009b0       __imp___localtime64        004a59b0     ucrtd:ucrtbased.dll
 0004:000009b4       __imp___localtime64_s      004a59b4     ucrtd:ucrtbased.dll
 0004:000009b8       __imp___mkdir              004a59b8     ucrtd:ucrtbased.dll
 0004:000009bc       __imp___except1            004a59bc     ucrtd:ucrtbased.dll
 0004:000009c0       __imp___seh_filter_dll     004a59c0     ucrtd:ucrtbased.dll
 0004:000009c4       __imp___configure_narrow_argv 004a59c4     ucrtd:ucrtbased.dll
 0004:000009c8       __imp___initialize_narrow_environment 004a59c8     ucrtd:ucrtbased.dll
 0004:000009cc       __imp___initialize_onexit_table 004a59cc     ucrtd:ucrtbased.dll
 0004:000009d0       __imp___register_onexit_function 004a59d0     ucrtd:ucrtbased.dll
 0004:000009d4       __imp___time64             004a59d4     ucrtd:ucrtbased.dll
 0004:000009d8       __imp___crt_atexit         004a59d8     ucrtd:ucrtbased.dll
 0004:000009dc       __imp___crt_at_quick_exit  004a59dc     ucrtd:ucrtbased.dll
 0004:000009e0       __imp___cexit              004a59e0     ucrtd:ucrtbased.dll
 0004:000009e4       __imp__terminate           004a59e4     ucrtd:ucrtbased.dll
 0004:000009e8       __imp___seh_filter_exe     004a59e8     ucrtd:ucrtbased.dll
 0004:000009ec       __imp___set_app_type       004a59ec     ucrtd:ucrtbased.dll
