 GameService

 Timestamp is 5da6abf1 (Wed Oct 16 13:34:41 2019)

 Preferred load address is 10000000

 Start         Length     Name                   Class
 0001:00000000 00005190H .text$di                CODE
 0001:00005190 00027120H .text$mn                CODE
 0001:0002c2b0 00002580H .text$x                 CODE
 0001:0002e830 00001150H .text$yd                CODE
 0002:00000000 00000104H .CRT$XCA                DATA
 0002:00000104 00000104H .CRT$XCL                DATA
 0002:00000208 00000188H .CRT$XCU                DATA
 0002:00000390 00000104H .CRT$XCZ                DATA
 0002:00000494 00000104H .CRT$XIA                DATA
 0002:00000598 00000104H .CRT$XIC                DATA
 0002:0000069c 00000104H .CRT$XIZ                DATA
 0002:000007a0 00000004H .CRT$XLA                DATA
 0002:000007a4 00000004H .CRT$XLZ                DATA
 0002:000007a8 00000104H .CRT$XPA                DATA
 0002:000008ac 00000104H .CRT$XPZ                DATA
 0002:000009b0 00000104H .CRT$XTA                DATA
 0002:00000ab4 0000010cH .CRT$XTZ                DATA
 0002:00000bc0 00007f60H .rdata                  DATA
 0002:00008b20 0000011cH .rdata$T                DATA
 0002:00008c3c 00000ca4H .rdata$r                DATA
 0002:000098e0 000002c0H .rdata$sxdata           DATA
 0002:00009ba0 000001a0H .rdata$zzzdbg           DATA
 0002:00009d40 00000104H .rtc$IAA                DATA
 0002:00009e44 0000010cH .rtc$IMZ                DATA
 0002:00009f50 00000104H .rtc$IZZ                DATA
 0002:0000a054 00000104H .rtc$TAA                DATA
 0002:0000a158 0000010cH .rtc$TMZ                DATA
 0002:0000a264 00000104H .rtc$TZZ                DATA
 0002:0000a368 00001e1cH .xdata$x                DATA
 0002:0000c184 00000104H ATL$__a                 DATA
 0002:0000c288 00000108H ATL$__z                 DATA
 0002:0000c390 000039e3H .edata                  DATA
 0003:00000000 00000278H .data                   DATA
 0003:00000278 00000708H .data$r                 DATA
 0003:00000980 00002d6cH .bss                    DATA
 0004:00000000 00000444H .idata$5                DATA
 0004:00000444 000000a0H .idata$2                DATA
 0004:000004e4 00000014H .idata$3                DATA
 0004:000004f8 00000444H .idata$4                DATA
 0004:0000093c 00000ad2H .idata$6                DATA
 0005:00000000 00000104H .tls                    DATA
 0005:00000104 00000104H .tls$                   DATA
 0005:00000208 00000101H .tls$ZZZ                DATA
 0006:00000000 00000104H .00cfg                  DATA
 0007:00000000 000001c0H .rsrc$01                DATA
 0007:000001c0 00000709H .rsrc$02                DATA

  Address         Publics by Value              Rva+Base       Lib:Object

 0000:00000000       ___volatile_metadata       00000000     <absolute>
 0000:00000000       ___guard_iat_count         00000000     <absolute>
 0000:00000000       ___guard_longjmp_table     00000000     <absolute>
 0000:00000000       ___guard_longjmp_count     00000000     <absolute>
 0000:00000000       ___guard_fids_table        00000000     <absolute>
 0000:00000000       ___hybrid_code_map_count   00000000     <absolute>
 0000:00000000       ___enclave_config          00000000     <absolute>
 0000:00000000       ___guard_iat_table         00000000     <absolute>
 0000:00000000       ___dynamic_value_reloc_table 00000000     <absolute>
 0000:00000000       ___hybrid_auxiliary_iat    00000000     <absolute>
 0000:00000000       ___hybrid_code_map         00000000     <absolute>
 0000:00000000       ___guard_fids_count        00000000     <absolute>
 0000:0000002c       __tls_array                0000002c     <absolute>
 0000:0000005d       ___safe_se_handler_count   0000005d     <absolute>
 0000:00000100       ___guard_flags             00000100     <absolute>
 0000:00000000       ___ImageBase               10000000     <linker-defined>
 0001:00005190       ??$_Getvals@_W@?$time_get@DV?$istreambuf_iterator@DU?$char_traits@D@std@@@std@@@std@@IAEX_WABV_Locinfo@1@@Z 10006190 f i AndroidUserItem.obj
 0001:000052c0       ??$_Getvals@_W@?$time_get@_WV?$istreambuf_iterator@_WU?$char_traits@_W@std@@@std@@@std@@IAEX_WABV_Locinfo@1@@Z 100062c0 f i AndroidUserItem.obj
 0001:000053f0       ??$_Maklocstr@D@std@@YAPADPBDPADABU_Cvtvec@@@Z 100063f0 f i AndroidUserItem.obj
 0001:000054a0       ??$_Maklocstr@_W@std@@YAPA_WPBDPA_WABU_Cvtvec@@@Z 100064a0 f i AndroidUserItem.obj
 0001:00005620       ??0?$CTraceCategoryEx@$0CAAA@$0A@@ATL@@QAE@PBD@Z 10006620 f i AndroidUserItem.obj
 0001:00005660       ??0?$CWHArray@PAUtagTimerItem@@ABQAU1@@@QAE@ABV0@@Z 10006660 f i AndroidUserItem.obj
 0001:000056d0       ??0?$CWHArray@PAUtagTimerItem@@ABQAU1@@@QAE@XZ 100066d0 f i AndroidUserItem.obj
 0001:00005730       ??0CAndroidUserItem@@QAE@ABV0@@Z 10006730 f i AndroidUserItem.obj
 0001:000058b0       ??0CAndroidUserItem@@QAE@XZ 100068b0 f   AndroidUserItem.obj
 0001:00005a00       ??0IAndroidUserItem@@QAE@ABU0@@Z 10006a00 f i AndroidUserItem.obj
 0001:00005a40       ??0IAndroidUserItem@@QAE@XZ 10006a40 f i AndroidUserItem.obj
 0001:00005a70       ??0IUnknownEx@@QAE@ABU0@@Z 10006a70 f i AndroidUserItem.obj
 0001:00005aa0       ??0IUnknownEx@@QAE@XZ      10006aa0 f i AndroidUserItem.obj
 0001:00005ad0       ??1?$CWHArray@PAUtagTimerItem@@ABQAU1@@@UAE@XZ 10006ad0 f i AndroidUserItem.obj
 0001:00005b50       ??1CAndroidUserItem@@UAE@XZ 10006b50 f   AndroidUserItem.obj
 0001:00005bf0       ??2@YAPAXIPAX@Z            10006bf0 f i AndroidUserItem.obj
 0001:00005c10       ??4?$CWHArray@PAUtagTimerItem@@ABQAU1@@@QAEAAV0@ABV0@@Z 10006c10 f i AndroidUserItem.obj
 0001:00005c70       ??4CAndroidUserItem@@QAEAAV0@ABV0@@Z 10006c70 f i AndroidUserItem.obj
 0001:00005de0       ??4IAndroidUserItem@@QAEAAU0@ABU0@@Z 10006de0 f i AndroidUserItem.obj
 0001:00005e10       ??4IUnknownEx@@QAEAAU0@ABU0@@Z 10006e10 f i AndroidUserItem.obj
 0001:00005e30       ??A?$CWHArray@PAUtagTimerItem@@ABQAU1@@@QAEAAPAUtagTimerItem@@H@Z 10006e30 f i AndroidUserItem.obj
 0001:00005e60       ??_ECAndroidUserItem@@UAEPAXI@Z 10006e60 f i AndroidUserItem.obj
 0001:00005f40       ??_E?$CWHArray@PAUtagTimerItem@@ABQAU1@@@UAEPAXI@Z 10006f40 f i AndroidUserItem.obj
 0001:00005f40       ??_G?$CWHArray@PAUtagTimerItem@@ABQAU1@@@UAEPAXI@Z 10006f40 f i AndroidUserItem.obj
 0001:00005f90       ??_GCAndroidUserItem@@UAEPAXI@Z 10006f90 f i AndroidUserItem.obj
 0001:00005fe0       ??_H@YGXPAXIIP6EPAX0@Z@Z   10006fe0 f i AndroidUserItem.obj
 0001:00006030       ?Add@?$CWHArray@PAUtagTimerItem@@ABQAU1@@@QAEHABQAUtagTimerItem@@@Z 10007030 f i AndroidUserItem.obj
 0001:00006070       ?AfxAssertFailedLine@@YGHPBDH@Z 10007070 f i AndroidUserItem.obj
 0001:000060e0       ?AllocMemory@?$CWHArray@PAUtagTimerItem@@ABQAU1@@@QAEXH@Z 100070e0 f i AndroidUserItem.obj
 0001:00006250       ?Append@?$CWHArray@PAUtagTimerItem@@ABQAU1@@@QAEHABV1@@Z 10007250 f i AndroidUserItem.obj
 0001:00006340       ?CloseGameClient@CAndroidUserItem@@IAEXXZ 10007340 f   AndroidUserItem.obj
 0001:00006440       ?ElementAt@?$CWHArray@PAUtagTimerItem@@ABQAU1@@@QAEAAPAUtagTimerItem@@H@Z 10007440 f i AndroidUserItem.obj
 0001:000064c0       ?GetAndroidParameter@CAndroidUserItem@@UAEPAUtagAndroidParameter@@XZ 100074c0 f i AndroidUserItem.obj
 0001:000064e0       ?GetAndroidService@CAndroidUserItem@@UAEPAUtagAndroidService@@XZ 100074e0 f i AndroidUserItem.obj
 0001:00006500       ?GetBuildVer@@YAEK@Z       10007500 f i AndroidUserItem.obj
 0001:00006530       ?GetChairID@CAndroidUserItem@@UAEGXZ 10007530 f   AndroidUserItem.obj
 0001:000065a0       ?GetCount@?$CWHArray@PAUtagTimerItem@@ABQAU1@@@QBEHXZ 100075a0 f i AndroidUserItem.obj
 0001:000065c0       ?GetGameStatus@CAndroidUserItem@@UAEEXZ 100075c0 f i AndroidUserItem.obj
 0001:000065e0       ?GetMainVer@@YAEK@Z        100075e0 f i AndroidUserItem.obj
 0001:00006610       ?GetMeUserItem@CAndroidUserItem@@UAEPAUIServerUserItem@@XZ 10007610 f   AndroidUserItem.obj
 0001:00006630       ?GetProductVer@@YAEK@Z     10007630 f i AndroidUserItem.obj
 0001:00006660       ?GetSubVer@@YAEK@Z         10007660 f i AndroidUserItem.obj
 0001:00006690       ?GetTableID@CAndroidUserItem@@UAEGXZ 10007690 f   AndroidUserItem.obj
 0001:00006700       ?GetTableUserItem@CAndroidUserItem@@UAEPAUIServerUserItem@@G@Z 10007700 f   AndroidUserItem.obj
 0001:00006720       ?GetUserID@CAndroidUserItem@@UAEKXZ 10007720 f   AndroidUserItem.obj
 0001:00006740       ?InterfaceVersionCompare@@YA_NKK@Z 10007740 f i AndroidUserItem.obj
 0001:00006820       ?JudgeAndroidActionAndRemove@CAndroidUserItem@@UAE_NG@Z 10007820 f   AndroidUserItem.obj
 0001:000068b0       ?KillGameTimer@CAndroidUserItem@@UAE_NI@Z 100078b0 f   AndroidUserItem.obj
 0001:00006980       ?OnSocketGameMessage@CAndroidUserItem@@IAE_NGGPAXG@Z 10007980 f   AndroidUserItem.obj
 0001:00006cc0       ?OnSocketRead@CAndroidUserItem@@QAE_NGGPAXG@Z 10007cc0 f   AndroidUserItem.obj
 0001:00006de0       ?OnSocketSubLogonFailure@CAndroidUserItem@@IAE_NPAXG@Z 10007de0 f   AndroidUserItem.obj
 0001:00006e00       ?OnSocketSubLogonFinish@CAndroidUserItem@@IAE_NPAXG@Z 10007e00 f   AndroidUserItem.obj
 0001:00007010       ?OnSocketSubSystemMessage@CAndroidUserItem@@IAE_NPAXG@Z 10008010 f   AndroidUserItem.obj
 0001:00007120       ?OnSocketSubUserStatus@CAndroidUserItem@@IAE_NPAXG@Z 10008120 f   AndroidUserItem.obj
 0001:00007330       ?OnTimerPulse@CAndroidUserItem@@QAE_NKI@Z 10008330 f   AndroidUserItem.obj
 0001:000074d0       ?PerformSaveScore@CAndroidUserItem@@UAE_N_J@Z 100084d0 f   AndroidUserItem.obj
 0001:00007660       ?PerformTakeScore@CAndroidUserItem@@UAE_N_J@Z 10008660 f   AndroidUserItem.obj
 0001:00007740       ?QueryInterface@CAndroidUserItem@@UAEPAXABU_GUID@@K@Z 10008740 f   AndroidUserItem.obj
 0001:000077f0       ?RegisterCategory@CTrace@ATL@@SAXPBDI@Z 100087f0 f i AndroidUserItem.obj
 0001:00007910       ?Release@CAndroidUserItem@@UAEXXZ 10008910 f i AndroidUserItem.obj
 0001:00007960       ?RemoveAll@?$CWHArray@PAUtagTimerItem@@ABQAU1@@@QAEXXZ 10008960 f i AndroidUserItem.obj
 0001:000079e0       ?RemoveAt@?$CWHArray@PAUtagTimerItem@@ABQAU1@@@QAEXHH@Z 100089e0 f i AndroidUserItem.obj
 0001:00007b20       ?RepositUserItem@CAndroidUserItem@@QAEXXZ 10008b20 f   AndroidUserItem.obj
 0001:00007c80       ?SendChatMessage@CAndroidUserItem@@UAE_NKPBDK@Z 10008c80 f   AndroidUserItem.obj
 0001:00007dd0       ?SendSocketData@CAndroidUserItem@@UAE_NG@Z 10008dd0 f   AndroidUserItem.obj
 0001:00007e90       ?SendSocketData@CAndroidUserItem@@UAE_NGPAXG@Z 10008e90 f   AndroidUserItem.obj
 0001:00007f50       ?SendUserReady@CAndroidUserItem@@UAE_NPAXG@Z 10008f50 f   AndroidUserItem.obj
 0001:00008000       ?SetAtGrow@?$CWHArray@PAUtagTimerItem@@ABQAU1@@@QAEXHABQAUtagTimerItem@@@Z 10009000 f i AndroidUserItem.obj
 0001:00008090       ?SetGameStatus@CAndroidUserItem@@UAEXE@Z 10009090 f i AndroidUserItem.obj
 0001:000080c0       ?SetGameTimer@CAndroidUserItem@@UAE_NII@Z 100090c0 f   AndroidUserItem.obj
 0001:000082b0       ?SetSize@?$CWHArray@PAUtagTimerItem@@ABQAU1@@@QAEXH@Z 100092b0 f i AndroidUserItem.obj
 0001:000083d0       ?StartGameClient@CAndroidUserItem@@IAEXXZ 100093d0 f   AndroidUserItem.obj
 0001:00008530       ?_Maklocwcs@std@@YAPA_WPB_W@Z 10009530 f i AndroidUserItem.obj
 0001:000085b0       ?__empty_global_delete@@YAXPAX@Z 100095b0 f i AndroidUserItem.obj
 0001:000085d0       ?__global_delete@@YAXPAXI@Z 100095d0 f i AndroidUserItem.obj
 0001:000085d0       ?__empty_global_delete@@YAXPAXI@Z 100095d0 f i AndroidUserItem.obj
 0001:000085f0       _==                        100095f0 f i AndroidUserItem.obj
 0001:00008640       _IsEqualGUID               10009640 f i AndroidUserItem.obj
 0001:00008690       ___local_stdio_printf_options 10009690 f i AndroidUserItem.obj
 0001:000086b0       __vswprintf_s_l            100096b0 f i AndroidUserItem.obj
 0001:00008720       _swprintf_s                10009720 f i AndroidUserItem.obj
 0001:000087a0       _wmemcpy                   100097a0 f i AndroidUserItem.obj
 0001:000087d0       ??$CompareElements@KK@@YGHPBK0@Z 100097d0 f i AndroidUserManager.obj
 0001:000088d0       ??$DumpElements@K@@YGXAAVCDumpContext@@PBKH@Z 100098d0 f i AndroidUserManager.obj
 0001:00008980       ??$DumpElements@PAVCAndroidUserItem@@@@YGXAAVCDumpContext@@PBQAVCAndroidUserItem@@H@Z 10009980 f i AndroidUserManager.obj
 0001:00008a30       ??$HashKey@K@@YGIK@Z       10009a30 f i AndroidUserManager.obj
 0001:00008aa0       ??$SerializeElements@K@@YGXAAVCArchive@@PAKH@Z 10009aa0 f i AndroidUserManager.obj
 0001:00008c40       ??$SerializeElements@PAVCAndroidUserItem@@@@YGXAAVCArchive@@PAPAVCAndroidUserItem@@H@Z 10009c40 f i AndroidUserManager.obj
 0001:00008de0       ??0?$CMap@KKPAVCAndroidUserItem@@PAV1@@@QAE@H@Z 10009de0 f i AndroidUserManager.obj
 0001:00008ed0       ??0?$CWHArray@PAUtagAndroidParameterEx@@ABQAU1@@@QAE@XZ 10009ed0 f i AndroidUserManager.obj
 0001:00008f30       ??0?$CWHArray@PAVCAndroidUserItem@@ABQAV1@@@QAE@XZ 10009f30 f i AndroidUserManager.obj
 0001:00008f90       ??0CAndroidUserManager@@QAE@XZ 10009f90 f   AndroidUserManager.obj
 0001:00009190       ??0CAssoc@?$CMap@KKPAVCAndroidUserItem@@PAV1@@@QAE@K@Z 1000a190 f i AndroidUserManager.obj
 0001:000091c0       ??0CPair@?$CMap@KKPAVCAndroidUserItem@@PAV1@@@IAE@K@Z 1000a1c0 f i AndroidUserManager.obj
 0001:000091f0       ??0IAndroidUserManager@@QAE@XZ 1000a1f0 f i AndroidUserManager.obj
 0001:00009220       ??1?$CMap@KKPAVCAndroidUserItem@@PAV1@@@UAE@XZ 1000a220 f i AndroidUserManager.obj
 0001:000092b0       ??1?$CWHArray@PAUtagAndroidParameterEx@@ABQAU1@@@UAE@XZ 1000a2b0 f i AndroidUserManager.obj
 0001:00009330       ??1?$CWHArray@PAVCAndroidUserItem@@ABQAV1@@@UAE@XZ 1000a330 f i AndroidUserManager.obj
 0001:000093b0       ??1CAndroidUserManager@@UAE@XZ 1000a3b0 f   AndroidUserManager.obj
 0001:00009520       ??A?$CMap@KKPAVCAndroidUserItem@@PAV1@@@QAEAAPAVCAndroidUserItem@@K@Z 1000a520 f i AndroidUserManager.obj
 0001:00009650       ??A?$CWHArray@PAUtagAndroidParameterEx@@ABQAU1@@@QAEAAPAUtagAndroidParameterEx@@H@Z 1000a650 f i AndroidUserManager.obj
 0001:00009680       ??A?$CWHArray@PAVCAndroidUserItem@@ABQAV1@@@QAEAAPAVCAndroidUserItem@@H@Z 1000a680 f i AndroidUserManager.obj
 0001:000096b0       ??_ECAndroidUserManager@@UAEPAXI@Z 1000a6b0 f i AndroidUserManager.obj
 0001:00009790       ??_G?$CMap@KKPAVCAndroidUserItem@@PAV1@@@UAEPAXI@Z 1000a790 f i AndroidUserManager.obj
 0001:00009790       ??_E?$CMap@KKPAVCAndroidUserItem@@PAV1@@@UAEPAXI@Z 1000a790 f i AndroidUserManager.obj
 0001:000097f0       ??_E?$CWHArray@PAUtagAndroidParameterEx@@ABQAU1@@@UAEPAXI@Z 1000a7f0 f i AndroidUserManager.obj
 0001:000097f0       ??_G?$CWHArray@PAUtagAndroidParameterEx@@ABQAU1@@@UAEPAXI@Z 1000a7f0 f i AndroidUserManager.obj
 0001:00009840       ??_G?$CWHArray@PAVCAndroidUserItem@@ABQAV1@@@UAEPAXI@Z 1000a840 f i AndroidUserManager.obj
 0001:00009840       ??_E?$CWHArray@PAVCAndroidUserItem@@ABQAV1@@@UAEPAXI@Z 1000a840 f i AndroidUserManager.obj
 0001:00009890       ??_GCAndroidUserManager@@UAEPAXI@Z 1000a890 f i AndroidUserManager.obj
 0001:000098e0       ?ActiveAndroidUserItem@CAndroidUserManager@@IAEPAVCAndroidUserItem@@AAUtagAndroidItemConfig@@@Z 1000a8e0 f   AndroidUserManager.obj
 0001:00009e20       ?Add@?$CWHArray@PAUtagAndroidParameterEx@@ABQAU1@@@QAEHABQAUtagAndroidParameterEx@@@Z 1000ae20 f i AndroidUserManager.obj
 0001:00009e60       ?Add@?$CWHArray@PAVCAndroidUserItem@@ABQAV1@@@QAEHABQAVCAndroidUserItem@@@Z 1000ae60 f i AndroidUserManager.obj
 0001:00009ea0       ?AddAndroidParameter@CAndroidUserManager@@UAE_NQAUtagAndroidParameter@@G@Z 1000aea0 f   AndroidUserManager.obj
 0001:0000a060       ?AllocMemory@?$CWHArray@PAUtagAndroidParameterEx@@ABQAU1@@@QAEXH@Z 1000b060 f i AndroidUserManager.obj
 0001:0000a1d0       ?AllocMemory@?$CWHArray@PAVCAndroidUserItem@@ABQAV1@@@QAEXH@Z 1000b1d0 f i AndroidUserManager.obj
 0001:0000a340       ?AssertValid@?$CMap@KKPAVCAndroidUserItem@@PAV1@@@UBEXXZ 1000b340 f i AndroidUserManager.obj
 0001:0000a3c0       ?BatchServiceAwaitTime@CAndroidUserManager@@IAEKPAUtagAndroidParameter@@K@Z 1000b3c0 f   AndroidUserManager.obj
 0001:0000a480       ?BatchServiceRemaindTime@CAndroidUserManager@@IAEKPAUtagAndroidParameter@@K@Z 1000b480 f   AndroidUserManager.obj
 0001:0000a560       ?ConcludeService@CAndroidUserManager@@UAE_NXZ 1000b560 f   AndroidUserManager.obj
 0001:0000a790       ?CreateAndroidUserItem@CAndroidUserManager@@UAEPAUIAndroidUserItem@@AAUtagAndroidItemConfig@@@Z 1000b790 f   AndroidUserManager.obj
 0001:0000ab50       ?DeleteAndroidUserItem@CAndroidUserManager@@UAE_NK_N@Z 1000bb50 f   AndroidUserManager.obj
 0001:0000acb0       ?Dump@?$CMap@KKPAVCAndroidUserItem@@PAV1@@@UBEXAAVCDumpContext@@@Z 1000bcb0 f i AndroidUserManager.obj
 0001:0000adc0       ?ElementAt@?$CWHArray@PAUtagAndroidParameterEx@@ABQAU1@@@QAEAAPAUtagAndroidParameterEx@@H@Z 1000bdc0 f i AndroidUserManager.obj
 0001:0000ae40       ?ElementAt@?$CWHArray@PAVCAndroidUserItem@@ABQAV1@@@QAEAAPAVCAndroidUserItem@@H@Z 1000be40 f i AndroidUserManager.obj
 0001:0000aec0       ?ForceAndroidUserItemStandup@CAndroidUserManager@@IAEXPAVCAndroidUserItem@@@Z 1000bec0 f   AndroidUserManager.obj
 0001:0000afb0       ?FreeAndroidUserItem@CAndroidUserManager@@IAEXK@Z 1000bfb0 f   AndroidUserManager.obj
 0001:0000b090       ?FreeAssoc@?$CMap@KKPAVCAndroidUserItem@@PAV1@@@IAEXPAVCAssoc@1@@Z 1000c090 f i AndroidUserManager.obj
 0001:0000b110       ?GetAndroidCount@CAndroidUserManager@@UAEGXZ 1000c110 f i AndroidUserManager.obj
 0001:0000b140       ?GetAndroidLoadInfo@CAndroidUserManager@@UAE_NAAK0@Z 1000c140 f   AndroidUserManager.obj
 0001:0000b2c0       ?GetAndroidParameter@CAndroidUserManager@@QAEPAUtagAndroidParameterEx@@K@Z 1000c2c0 f   AndroidUserManager.obj
 0001:0000b370       ?GetAndroidParameterIndex@CAndroidUserManager@@IAEGPAUtagAndroidParameterEx@@@Z 1000c370 f   AndroidUserManager.obj
 0001:0000b400       ?GetAndroidStock@CAndroidUserManager@@UAEGXZ 1000c400 f i AndroidUserManager.obj
 0001:0000b420       ?GetAndroidUserInfo@CAndroidUserManager@@UAEGAAUtagAndroidUserInfo@@K@Z 1000c420 f   AndroidUserManager.obj
 0001:0000b790       ?GetAndroidUserItem@CAndroidUserManager@@IAEPAVCAndroidUserItem@@G@Z 1000c790 f   AndroidUserManager.obj
 0001:0000b890       ?GetAssocAt@?$CMap@KKPAVCAndroidUserItem@@PAV1@@@IBEPAVCAssoc@1@KAAI0@Z 1000c890 f i AndroidUserManager.obj
 0001:0000b940       ?GetCount@?$CMap@KKPAVCAndroidUserItem@@PAV1@@@QBEHXZ 1000c940 f i AndroidUserManager.obj
 0001:0000b960       ?GetCount@?$CWHArray@PAUtagAndroidParameterEx@@ABQAU1@@@QBEHXZ 1000c960 f i AndroidUserManager.obj
 0001:0000b980       ?GetCount@?$CWHArray@PAVCAndroidUserItem@@ABQAV1@@@QBEHXZ 1000c980 f i AndroidUserManager.obj
 0001:0000b9a0       ?GetGameMatchOption@CAndroidUserManager@@UAEPAUtagGameMatchOption@@XZ 1000c9a0 f i AndroidUserManager.obj
 0001:0000b9d0       ?GetGameServiceAttrib@CAndroidUserManager@@UAEPAUtagGameServiceAttrib@@XZ 1000c9d0 f i AndroidUserManager.obj
 0001:0000ba00       ?GetGameServiceOption@CAndroidUserManager@@UAEPAUtagGameServiceOption@@XZ 1000ca00 f i AndroidUserManager.obj
 0001:0000ba30       ?GetNextAssoc@?$CMap@KKPAVCAndroidUserItem@@PAV1@@@QBEXAAPAU__POSITION@@AAKAAPAVCAndroidUserItem@@@Z 1000ca30 f i AndroidUserManager.obj
 0001:0000bc80       ?GetStartPosition@?$CMap@KKPAVCAndroidUserItem@@PAV1@@@QBEPAU__POSITION@@XZ 1000cc80 f i AndroidUserManager.obj
 0001:0000bcc0       ?GetTodayTickCount@CAndroidUserManager@@IAEKAAU_SYSTEMTIME@@@Z 1000ccc0 f   AndroidUserManager.obj
 0001:0000bd10       ?InitAndroidUser@CAndroidUserManager@@UAE_NAAUtagAndroidUserParameter@@@Z 1000cd10 f   AndroidUserManager.obj
 0001:0000be10       ?InitHashTable@?$CMap@KKPAVCAndroidUserItem@@PAV1@@@QAEXIH@Z 1000ce10 f i AndroidUserManager.obj
 0001:0000bf90       ?InsertAndroidInfo@CAndroidUserManager@@UAE_NQAUtagAndroidAccountsInfo@@GK@Z 1000cf90 f   AndroidUserManager.obj
 0001:0000c1a0       ?IsAllowAndroidAttend@CServerRule@@SA_NK@Z 1000d1a0 f i AndroidUserManager.obj
 0001:0000c1e0       ?IsAllowAndroidSimulate@CServerRule@@SA_NK@Z 1000d1e0 f i AndroidUserManager.obj
 0001:0000c220       ?Lookup@?$CMap@KKPAVCAndroidUserItem@@PAV1@@@QBEHKAAPAVCAndroidUserItem@@@Z 1000d220 f i AndroidUserManager.obj
 0001:0000c290       ?NewAssoc@?$CMap@KKPAVCAndroidUserItem@@PAV1@@@IAEPAVCAssoc@1@K@Z 1000d290 f i AndroidUserManager.obj
 0001:0000c450       ?OnEventTimerPulse@CAndroidUserManager@@UAE_NKI@Z 1000d450 f   AndroidUserManager.obj
 0001:0000cfd0       ?QueryInterface@CAndroidUserManager@@UAEPAXABU_GUID@@K@Z 1000dfd0 f   AndroidUserManager.obj
 0001:0000d080       ?Release@CAndroidUserManager@@UAEXXZ 1000e080 f i AndroidUserManager.obj
 0001:0000d0a0       ?RemoveAll@?$CMap@KKPAVCAndroidUserItem@@PAV1@@@QAEXXZ 1000e0a0 f i AndroidUserManager.obj
 0001:0000d190       ?RemoveAll@?$CWHArray@PAUtagAndroidParameterEx@@ABQAU1@@@QAEXXZ 1000e190 f i AndroidUserManager.obj
 0001:0000d210       ?RemoveAll@?$CWHArray@PAVCAndroidUserItem@@ABQAV1@@@QAEXXZ 1000e210 f i AndroidUserManager.obj
 0001:0000d290       ?RemoveAndroidParameter@CAndroidUserManager@@UAE_NK@Z 1000e290 f   AndroidUserManager.obj
 0001:0000d500       ?RemoveAt@?$CWHArray@PAVCAndroidUserItem@@ABQAV1@@@QAEXHH@Z 1000e500 f i AndroidUserManager.obj
 0001:0000d640       ?RemoveKey@?$CMap@KKPAVCAndroidUserItem@@PAV1@@@QAEHK@Z 1000e640 f i AndroidUserManager.obj
 0001:0000d730       ?SearchAndroidUserItem@CAndroidUserManager@@UAEPAUIAndroidUserItem@@KK@Z 1000e730 f   AndroidUserManager.obj
 0001:0000d7d0       ?SendDataToClient@CAndroidUserManager@@UAE_NGGPAXG@Z 1000e7d0 f   AndroidUserManager.obj
 0001:0000d990       ?SendDataToClient@CAndroidUserManager@@UAE_NKGGPAXG@Z 1000e990 f   AndroidUserManager.obj
 0001:0000db10       ?SendDataToServer@CAndroidUserManager@@UAE_NKGGPAXG@Z 1000eb10 f   AndroidUserManager.obj
 0001:0000dca0       ?Serialize@?$CMap@KKPAVCAndroidUserItem@@PAV1@@@UAEXAAVCArchive@@@Z 1000eca0 f i AndroidUserManager.obj
 0001:0000de50       ?SetAt@?$CMap@KKPAVCAndroidUserItem@@PAV1@@@QAEXKPAVCAndroidUserItem@@@Z 1000ee50 f i AndroidUserManager.obj
 0001:0000de80       ?SetAtGrow@?$CWHArray@PAUtagAndroidParameterEx@@ABQAU1@@@QAEXHABQAUtagAndroidParameterEx@@@Z 1000ee80 f i AndroidUserManager.obj
 0001:0000df10       ?SetAtGrow@?$CWHArray@PAVCAndroidUserItem@@ABQAV1@@@QAEXHABQAVCAndroidUserItem@@@Z 1000ef10 f i AndroidUserManager.obj
 0001:0000dfa0       ?SetMainServiceFrame@CAndroidUserManager@@QAEXPAUIMainServiceFrame@@@Z 1000efa0 f   AndroidUserManager.obj
 0001:0000dfd0       ?SetSize@?$CWHArray@PAUtagAndroidParameterEx@@ABQAU1@@@QAEXH@Z 1000efd0 f i AndroidUserManager.obj
 0001:0000e0f0       ?SetSize@?$CWHArray@PAVCAndroidUserItem@@ABQAV1@@@QAEXH@Z 1000f0f0 f i AndroidUserManager.obj
 0001:0000e210       ?StartService@CAndroidUserManager@@UAE_NXZ 1000f210 f   AndroidUserManager.obj
 0001:0000e2f0       ?data@CPlex@@QAEPAXXZ      1000f2f0 f i AndroidUserManager.obj
 0001:0000e340       ??$?0$$V@?$_Compressed_pair@V?$allocator@U?$_Tree_node@U?$pair@$$CBKV?$vector@UtagPropertyBuff@@V?$allocator@UtagPropertyBuff@@@std@@@std@@@std@@PAX@std@@@std@@V?$_Tree_val@U?$_Tree_simple_types@U?$pair@$$CBKV?$vector@UtagPropertyBuff@@V?$allocator@UtagPropertyBuff@@@std@@@std@@@std@@@std@@@2@$00@std@@QAE@U_Zero_then_variadic_args_t@1@@Z 1000f340 f i GamePropertyManager.obj
 0001:0000e380       ??$?0$$V@?$_Compressed_pair@V?$allocator@UtagPropertyBuff@@@std@@V?$_Vector_val@U?$_Simple_types@UtagPropertyBuff@@@std@@@2@$00@std@@QAE@U_Zero_then_variadic_args_t@1@@Z 1000f380 f i GamePropertyManager.obj
 0001:0000e3c0       ??$?0AAV?$_Tree_iterator@V?$_Tree_val@U?$_Tree_simple_types@U?$pair@$$CBKV?$vector@UtagPropertyBuff@@V?$allocator@UtagPropertyBuff@@@std@@@std@@@std@@@std@@@std@@@std@@_N$0A@@?$pair@V?$_Tree_iterator@V?$_Tree_val@U?$_Tree_simple_types@U?$pair@$$CBKV?$vector@UtagPropertyBuff@@V?$allocator@UtagPropertyBuff@@@std@@@std@@@std@@@std@@@std@@@std@@_N@std@@QAE@AAV?$_Tree_iterator@V?$_Tree_val@U?$_Tree_simple_types@U?$pair@$$CBKV?$vector@UtagPropertyBuff@@V?$allocator@UtagPropertyBuff@@@std@@@std@@@std@@@std@@@std@@@1@$$QA_N@Z 1000f3c0 f i GamePropertyManager.obj
 0001:0000e420       ??$?0ABK$$Z$$V@?$pair@$$CBKV?$vector@UtagPropertyBuff@@V?$allocator@UtagPropertyBuff@@@std@@@std@@@std@@QAE@Upiecewise_construct_t@1@V?$tuple@ABK@1@V?$tuple@$$V@1@@Z 1000f420 f i GamePropertyManager.obj
 0001:0000e460       ??$?0ABK$0A@@?$tuple@ABK@std@@QAE@ABK@Z 1000f460 f i GamePropertyManager.obj
 0001:0000e4d0       ??$?0ABK@?$_Tuple_val@ABK@std@@QAE@ABK@Z 1000f4d0 f i GamePropertyManager.obj
 0001:0000e510       ??$?0ABU?$less@K@std@@U_Zero_then_variadic_args_t@1@@?$_Compressed_pair@U?$less@K@std@@V?$_Compressed_pair@V?$allocator@U?$_Tree_node@U?$pair@$$CBKV?$vector@UtagPropertyBuff@@V?$allocator@UtagPropertyBuff@@@std@@@std@@@std@@PAX@std@@@std@@V?$_Tree_val@U?$_Tree_simple_types@U?$pair@$$CBKV?$vector@UtagPropertyBuff@@V?$allocator@UtagPropertyBuff@@@std@@@std@@@std@@@std@@@2@$00@2@$00@std@@QAE@U_One_then_variadic_args_t@1@ABU?$less@K@1@$$QAU_Zero_then_variadic_args_t@1@@Z 1000f510 f i GamePropertyManager.obj
 0001:0000e560       ??$?0U?$_Tree_node@U?$pair@$$CBKV?$vector@UtagPropertyBuff@@V?$allocator@UtagPropertyBuff@@@std@@@std@@@std@@PAX@std@@@?$allocator@U_Container_proxy@std@@@std@@QAE@ABV?$allocator@U?$_Tree_node@U?$pair@$$CBKV?$vector@UtagPropertyBuff@@V?$allocator@UtagPropertyBuff@@@std@@@std@@@std@@PAX@std@@@1@@Z 1000f560 f i GamePropertyManager.obj
 0001:0000e580       ??$?0U_Exact_args_t@std@@$0A@@?$tuple@$$V@std@@QAE@U_Exact_args_t@1@@Z 1000f580 f i GamePropertyManager.obj
 0001:0000e5a0       ??$?0U_Exact_args_t@std@@ABK$$V$0A@@?$tuple@ABK@std@@QAE@U_Exact_args_t@1@ABK@Z 1000f5a0 f i GamePropertyManager.obj
 0001:0000e5f0       ??$?0UtagPropertyBuff@@@?$allocator@U_Container_proxy@std@@@std@@QAE@ABV?$allocator@UtagPropertyBuff@@@1@@Z 1000f5f0 f i GamePropertyManager.obj
 0001:0000e610       ??$?0V?$_Tree_iterator@V?$_Tree_val@U?$_Tree_simple_types@U?$pair@$$CBKV?$vector@UtagPropertyBuff@@V?$allocator@UtagPropertyBuff@@@std@@@std@@@std@@@std@@@std@@@std@@_N$0A@@?$pair@V?$_Tree_iterator@V?$_Tree_val@U?$_Tree_simple_types@U?$pair@$$CBKV?$vector@UtagPropertyBuff@@V?$allocator@UtagPropertyBuff@@@std@@@std@@@std@@@std@@@std@@@std@@_N@std@@QAE@$$QAV?$_Tree_iterator@V?$_Tree_val@U?$_Tree_simple_types@U?$pair@$$CBKV?$vector@UtagPropertyBuff@@V?$allocator@UtagPropertyBuff@@@std@@@std@@@std@@@std@@@std@@@1@$$QA_N@Z 1000f610 f i GamePropertyManager.obj
 0001:0000e670       ??$?0V?$allocator@UtagPropertyBuff@@@std@@$$V@?$_Compressed_pair@V?$allocator@UtagPropertyBuff@@@std@@V?$_Vector_val@U?$_Simple_types@UtagPropertyBuff@@@std@@@2@$00@std@@QAE@U_One_then_variadic_args_t@1@$$QAV?$allocator@UtagPropertyBuff@@@1@@Z 1000f670 f i GamePropertyManager.obj
 0001:0000e6b0       ??$?0V?$allocator@UtagPropertyBuff@@@std@@X@?$_Vector_alloc@U?$_Vec_base_types@UtagPropertyBuff@@V?$allocator@UtagPropertyBuff@@@std@@@std@@@std@@QAE@$$QAV?$allocator@UtagPropertyBuff@@@1@@Z 1000f6b0 f i GamePropertyManager.obj
 0001:0000e700       ??$?0V?$tuple@ABK@std@@V?$tuple@$$V@1@$0A@$$Z$S@?$pair@$$CBKV?$vector@UtagPropertyBuff@@V?$allocator@UtagPropertyBuff@@@std@@@std@@@std@@QAE@AAV?$tuple@ABK@1@AAV?$tuple@$$V@1@U?$integer_sequence@I$0A@@1@U?$integer_sequence@I$S@1@@Z 1000f700 f i GamePropertyManager.obj
 0001:0000e750       ??$_Allocate@$07U_Default_allocate_traits@std@@$0A@@std@@YAPAXI@Z 1000f750 f i GamePropertyManager.obj
 0001:0000e7a0       ??$_Allocate_manually_vector_aligned@U_Default_allocate_traits@std@@@std@@YAPAXI@Z 1000f7a0 f i GamePropertyManager.obj
 0001:0000e890       ??$_Buy_if_not_node@AAU?$pair@$$CBKV?$vector@UtagPropertyBuff@@V?$allocator@UtagPropertyBuff@@@std@@@std@@@std@@@?$_Tree@V?$_Tmap_traits@KV?$vector@UtagPropertyBuff@@V?$allocator@UtagPropertyBuff@@@std@@@std@@U?$less@K@2@V?$allocator@U?$pair@$$CBKV?$vector@UtagPropertyBuff@@V?$allocator@UtagPropertyBuff@@@std@@@std@@@std@@@2@$0A@@std@@@std@@IAEPAU?$_Tree_node@U?$pair@$$CBKV?$vector@UtagPropertyBuff@@V?$allocator@UtagPropertyBuff@@@std@@@std@@@std@@PAX@1@PAU21@AAU?$pair@$$CBKV?$vector@UtagPropertyBuff@@V?$allocator@UtagPropertyBuff@@@std@@@std@@@1@@Z 1000f890 f i GamePropertyManager.obj
 0001:0000e8b0       ??$_Buynode@ABUpiecewise_construct_t@std@@V?$tuple@ABK@2@V?$tuple@$$V@2@@?$_Tree_comp_alloc@V?$_Tmap_traits@KV?$vector@UtagPropertyBuff@@V?$allocator@UtagPropertyBuff@@@std@@@std@@U?$less@K@2@V?$allocator@U?$pair@$$CBKV?$vector@UtagPropertyBuff@@V?$allocator@UtagPropertyBuff@@@std@@@std@@@std@@@2@$0A@@std@@@std@@QAEPAU?$_Tree_node@U?$pair@$$CBKV?$vector@UtagPropertyBuff@@V?$allocator@UtagPropertyBuff@@@std@@@std@@@std@@PAX@1@ABUpiecewise_construct_t@1@$$QAV?$tuple@ABK@1@$$QAV?$tuple@$$V@1@@Z 1000f8b0 f i GamePropertyManager.obj
 0001:0000e9d0       ??$_Copy_memmove@PAUtagPropertyBuff@@PAU1@@std@@YAPAUtagPropertyBuff@@PAU1@00@Z 1000f9d0 f i GamePropertyManager.obj
 0001:0000ea30       ??$_Deallocate@$07$0A@@std@@YAXPAXI@Z 1000fa30 f i GamePropertyManager.obj
 0001:0000ea80       ??$_Deallocate_plain@V?$allocator@U_Container_proxy@std@@@std@@$0A@@std@@YAXAAV?$allocator@U_Container_proxy@std@@@0@QAU_Container_proxy@0@@Z 1000fa80 f i GamePropertyManager.obj
 0001:0000eab0       ??$_Debug_lt_pred@AAU?$less@K@std@@ABKABK@std@@YA_NAAU?$less@K@0@ABK1@Z 1000fab0 f i GamePropertyManager.obj
 0001:0000eb70       ??$_Debug_lt_pred@ABU?$less@K@std@@ABKABK@std@@YA_NABU?$less@K@0@ABK1@Z 1000fb70 f i GamePropertyManager.obj
 0001:0000ec30       ??$_Destroy_range1@V?$allocator@UtagPropertyBuff@@@std@@@std@@YAXPAUtagPropertyBuff@@0AAV?$allocator@UtagPropertyBuff@@@0@U?$integral_constant@_N$00@0@@Z 1000fc30 f i GamePropertyManager.obj
 0001:0000ec50       ??$_Destroy_range@V?$allocator@UtagPropertyBuff@@@std@@@std@@YAXPAUtagPropertyBuff@@0AAV?$allocator@UtagPropertyBuff@@@0@@Z 1000fc50 f i GamePropertyManager.obj
 0001:0000ec90       ??$_Emplace_back_with_unused_capacity@ABUtagPropertyBuff@@@?$vector@UtagPropertyBuff@@V?$allocator@UtagPropertyBuff@@@std@@@std@@AAE@ABUtagPropertyBuff@@@Z 1000fc90 f i GamePropertyManager.obj
 0001:0000ed40       ??$_Emplace_reallocate@ABUtagPropertyBuff@@@?$vector@UtagPropertyBuff@@V?$allocator@UtagPropertyBuff@@@std@@@std@@QAEPAUtagPropertyBuff@@QAU2@ABU2@@Z 1000fd40 f i GamePropertyManager.obj
 0001:0000efa0       ??$_Freenode0@V?$allocator@U?$_Tree_node@U?$pair@$$CBKV?$vector@UtagPropertyBuff@@V?$allocator@UtagPropertyBuff@@@std@@@std@@@std@@PAX@std@@@std@@@?$_Tree_node@U?$pair@$$CBKV?$vector@UtagPropertyBuff@@V?$allocator@UtagPropertyBuff@@@std@@@std@@@std@@PAX@std@@SAXAAV?$allocator@U?$_Tree_node@U?$pair@$$CBKV?$vector@UtagPropertyBuff@@V?$allocator@UtagPropertyBuff@@@std@@@std@@@std@@PAX@std@@@1@PAU01@@Z 1000ffa0 f i GamePropertyManager.obj
 0001:0000f070       ??$_Get_size_of_n@$07@std@@YAII@Z 10010070 f i GamePropertyManager.obj
 0001:0000f0b0       ??$_Get_size_of_n@$0CE@@std@@YAII@Z 100100b0 f i GamePropertyManager.obj
 0001:0000f0f0       ??$_Get_unwrapped@UtagPropertyBuff@@@std@@YAPAUtagPropertyBuff@@QAU1@@Z 100100f0 f i GamePropertyManager.obj
 0001:0000f110       ??$_Get_unwrapped_n@UtagPropertyBuff@@H$0A@@std@@YAPAUtagPropertyBuff@@QAU1@H@Z 10010110 f i GamePropertyManager.obj
 0001:0000f130       ??$_Idl_distance1@PAUtagPropertyBuff@@PAU1@@std@@YAHABQAUtagPropertyBuff@@0Urandom_access_iterator_tag@0@@Z 10010130 f i GamePropertyManager.obj
 0001:0000f160       ??$_Idl_distance@PAUtagPropertyBuff@@PAU1@@std@@YA@ABQAUtagPropertyBuff@@0@Z 10010160 f i GamePropertyManager.obj
 0001:0000f190       ??$_Insert_at@AAU?$pair@$$CBKV?$vector@UtagPropertyBuff@@V?$allocator@UtagPropertyBuff@@@std@@@std@@@std@@PAU?$_Tree_node@U?$pair@$$CBKV?$vector@UtagPropertyBuff@@V?$allocator@UtagPropertyBuff@@@std@@@std@@@std@@PAX@2@@?$_Tree@V?$_Tmap_traits@KV?$vector@UtagPropertyBuff@@V?$allocator@UtagPropertyBuff@@@std@@@std@@U?$less@K@2@V?$allocator@U?$pair@$$CBKV?$vector@UtagPropertyBuff@@V?$allocator@UtagPropertyBuff@@@std@@@std@@@std@@@2@$0A@@std@@@std@@IAE?AV?$_Tree_iterator@V?$_Tree_val@U?$_Tree_simple_types@U?$pair@$$CBKV?$vector@UtagPropertyBuff@@V?$allocator@UtagPropertyBuff@@@std@@@std@@@std@@@std@@@std@@@1@_NPAU?$_Tree_node@U?$pair@$$CBKV?$vector@UtagPropertyBuff@@V?$allocator@UtagPropertyBuff@@@std@@@std@@@std@@PAX@1@AAU?$pair@$$CBKV?$vector@UtagPropertyBuff@@V?$allocator@UtagPropertyBuff@@@std@@@std@@@1@1@Z 10010190 f i GamePropertyManager.obj
 0001:0000f4d0       ??$_Insert_hint@AAU?$pair@$$CBKV?$vector@UtagPropertyBuff@@V?$allocator@UtagPropertyBuff@@@std@@@std@@@std@@PAU?$_Tree_node@U?$pair@$$CBKV?$vector@UtagPropertyBuff@@V?$allocator@UtagPropertyBuff@@@std@@@std@@@std@@PAX@2@@?$_Tree@V?$_Tmap_traits@KV?$vector@UtagPropertyBuff@@V?$allocator@UtagPropertyBuff@@@std@@@std@@U?$less@K@2@V?$allocator@U?$pair@$$CBKV?$vector@UtagPropertyBuff@@V?$allocator@UtagPropertyBuff@@@std@@@std@@@std@@@2@$0A@@std@@@std@@IAE?AV?$_Tree_iterator@V?$_Tree_val@U?$_Tree_simple_types@U?$pair@$$CBKV?$vector@UtagPropertyBuff@@V?$allocator@UtagPropertyBuff@@@std@@@std@@@std@@@std@@@std@@@1@V?$_Tree_const_iterator@V?$_Tree_val@U?$_Tree_simple_types@U?$pair@$$CBKV?$vector@UtagPropertyBuff@@V?$allocator@UtagPropertyBuff@@@std@@@std@@@std@@@std@@@std@@@1@AAU?$pair@$$CBKV?$vector@UtagPropertyBuff@@V?$allocator@UtagPropertyBuff@@@std@@@std@@@1@PAU?$_Tree_node@U?$pair@$$CBKV?$vector@UtagPropertyBuff@@V?$allocator@UtagPropertyBuff@@@std@@@std@@@std@@PAX@1@@Z 100104d0 f i GamePropertyManager.obj
 0001:00010640       ??$_Insert_nohint@AAU?$pair@$$CBKV?$vector@UtagPropertyBuff@@V?$allocator@UtagPropertyBuff@@@std@@@std@@@std@@PAU?$_Tree_node@U?$pair@$$CBKV?$vector@UtagPropertyBuff@@V?$allocator@UtagPropertyBuff@@@std@@@std@@@std@@PAX@2@@?$_Tree@V?$_Tmap_traits@KV?$vector@UtagPropertyBuff@@V?$allocator@UtagPropertyBuff@@@std@@@std@@U?$less@K@2@V?$allocator@U?$pair@$$CBKV?$vector@UtagPropertyBuff@@V?$allocator@UtagPropertyBuff@@@std@@@std@@@std@@@2@$0A@@std@@@std@@IAE?AU?$pair@V?$_Tree_iterator@V?$_Tree_val@U?$_Tree_simple_types@U?$pair@$$CBKV?$vector@UtagPropertyBuff@@V?$allocator@UtagPropertyBuff@@@std@@@std@@@std@@@std@@@std@@@std@@_N@1@_NAAU?$pair@$$CBKV?$vector@UtagPropertyBuff@@V?$allocator@UtagPropertyBuff@@@std@@@std@@@1@PAU?$_Tree_node@U?$pair@$$CBKV?$vector@UtagPropertyBuff@@V?$allocator@UtagPropertyBuff@@@std@@@std@@@std@@PAX@1@@Z 10011640 f i GamePropertyManager.obj
 0001:00010bb0       ??$_Kfn@$$CBKV?$vector@UtagPropertyBuff@@V?$allocator@UtagPropertyBuff@@@std@@@std@@@?$_Tmap_traits@KV?$vector@UtagPropertyBuff@@V?$allocator@UtagPropertyBuff@@@std@@@std@@U?$less@K@2@V?$allocator@U?$pair@$$CBKV?$vector@UtagPropertyBuff@@V?$allocator@UtagPropertyBuff@@@std@@@std@@@std@@@2@$0A@@std@@SAABKABU?$pair@$$CBKV?$vector@UtagPropertyBuff@@V?$allocator@UtagPropertyBuff@@@std@@@std@@@1@@Z 10011bb0 f i GamePropertyManager.obj
 0001:00010bd0       ??$_Lbound@K@?$_Tree@V?$_Tmap_traits@KV?$vector@UtagPropertyBuff@@V?$allocator@UtagPropertyBuff@@@std@@@std@@U?$less@K@2@V?$allocator@U?$pair@$$CBKV?$vector@UtagPropertyBuff@@V?$allocator@UtagPropertyBuff@@@std@@@std@@@std@@@2@$0A@@std@@@std@@IBEPAU?$_Tree_node@U?$pair@$$CBKV?$vector@UtagPropertyBuff@@V?$allocator@UtagPropertyBuff@@@std@@@std@@@std@@PAX@1@ABK@Z 10011bd0 f i GamePropertyManager.obj
 0001:00010c70       ??$_Min_value@I@std@@YAABIABI0@Z 10011c70 f i GamePropertyManager.obj
 0001:00010cb0       ??$_Ptr_copy_cat@UtagPropertyBuff@@U1@@std@@YA?AU_Really_trivial_ptr_iterator_tag@0@ABQAUtagPropertyBuff@@0@Z 10011cb0 f i GamePropertyManager.obj
 0001:00010cd0       ??$_Ptr_move_cat@UtagPropertyBuff@@U1@@std@@YA?AU_Really_trivial_ptr_iterator_tag@0@ABQAUtagPropertyBuff@@0@Z 10011cd0 f i GamePropertyManager.obj
 0001:00010cf0       ??$_Seek_wrapped@UtagPropertyBuff@@@std@@YAXAAPAUtagPropertyBuff@@QAU1@@Z 10011cf0 f i GamePropertyManager.obj
 0001:00010d10       ??$_Try_emplace@ABK$$V@?$map@KV?$vector@UtagPropertyBuff@@V?$allocator@UtagPropertyBuff@@@std@@@std@@U?$less@K@2@V?$allocator@U?$pair@$$CBKV?$vector@UtagPropertyBuff@@V?$allocator@UtagPropertyBuff@@@std@@@std@@@std@@@2@@std@@QAE?AU?$pair@V?$_Tree_iterator@V?$_Tree_val@U?$_Tree_simple_types@U?$pair@$$CBKV?$vector@UtagPropertyBuff@@V?$allocator@UtagPropertyBuff@@@std@@@std@@@std@@@std@@@std@@@std@@_N@1@ABK@Z 10011d10 f i GamePropertyManager.obj
 0001:00010fb0       ??$_Ucopy@PAUtagPropertyBuff@@@?$vector@UtagPropertyBuff@@V?$allocator@UtagPropertyBuff@@@std@@@std@@AAEPAUtagPropertyBuff@@PAU2@00@Z 10011fb0 f i GamePropertyManager.obj
 0001:00010ff0       ??$_Unfancy@U_Container_proxy@std@@@std@@YAPAU_Container_proxy@0@PAU10@@Z 10011ff0 f i GamePropertyManager.obj
 0001:00011010       ??$_Unfancy@UtagPropertyBuff@@@std@@YAPAUtagPropertyBuff@@PAU1@@Z 10012010 f i GamePropertyManager.obj
 0001:00011030       ??$_Uninitialized_copy@PAUtagPropertyBuff@@PAU1@V?$allocator@UtagPropertyBuff@@@std@@@std@@YAPAUtagPropertyBuff@@QAU1@0PAU1@AAV?$allocator@UtagPropertyBuff@@@0@@Z 10012030 f i GamePropertyManager.obj
 0001:000110f0       ??$_Uninitialized_copy_al_unchecked@UtagPropertyBuff@@U1@V?$allocator@UtagPropertyBuff@@@std@@@std@@YAPAUtagPropertyBuff@@QAU1@00AAV?$allocator@UtagPropertyBuff@@@0@U_Really_trivial_ptr_iterator_tag@0@U?$integral_constant@_N$00@0@@Z 100120f0 f i GamePropertyManager.obj
 0001:00011120       ??$_Uninitialized_move@PAUtagPropertyBuff@@PAU1@V?$allocator@UtagPropertyBuff@@@std@@@std@@YAPAUtagPropertyBuff@@QAU1@0PAU1@AAV?$allocator@UtagPropertyBuff@@@0@@Z 10012120 f i GamePropertyManager.obj
 0001:000111e0       ??$_Uninitialized_move_al_unchecked@UtagPropertyBuff@@U1@V?$allocator@UtagPropertyBuff@@@std@@@std@@YAPAUtagPropertyBuff@@QAU1@00AAV?$allocator@UtagPropertyBuff@@@0@U_Really_trivial_ptr_iterator_tag@0@U?$integral_constant@_N$00@0@@Z 100121e0 f i GamePropertyManager.obj
 0001:00011210       ??$addressof@PAU?$_Tree_node@U?$pair@$$CBKV?$vector@UtagPropertyBuff@@V?$allocator@UtagPropertyBuff@@@std@@@std@@@std@@PAX@std@@@std@@YAPAPAU?$_Tree_node@U?$pair@$$CBKV?$vector@UtagPropertyBuff@@V?$allocator@UtagPropertyBuff@@@std@@@std@@@std@@PAX@0@AAPAU10@@Z 10012210 f i GamePropertyManager.obj
 0001:00011230       ??$addressof@U?$pair@$$CBKV?$vector@UtagPropertyBuff@@V?$allocator@UtagPropertyBuff@@@std@@@std@@@std@@@std@@YAPAU?$pair@$$CBKV?$vector@UtagPropertyBuff@@V?$allocator@UtagPropertyBuff@@@std@@@std@@@0@AAU10@@Z 10012230 f i GamePropertyManager.obj
 0001:00011250       ??$addressof@V?$_Tree_val@U?$_Tree_simple_types@U?$pair@$$CBKV?$vector@UtagPropertyBuff@@V?$allocator@UtagPropertyBuff@@@std@@@std@@@std@@@std@@@std@@@std@@YAPAV?$_Tree_val@U?$_Tree_simple_types@U?$pair@$$CBKV?$vector@UtagPropertyBuff@@V?$allocator@UtagPropertyBuff@@@std@@@std@@@std@@@std@@@0@AAV10@@Z 10012250 f i GamePropertyManager.obj
 0001:00011270       ??$addressof@V?$_Vector_val@U?$_Simple_types@UtagPropertyBuff@@@std@@@std@@@std@@YAPAV?$_Vector_val@U?$_Simple_types@UtagPropertyBuff@@@std@@@0@AAV10@@Z 10012270 f i GamePropertyManager.obj
 0001:00011290       ??$construct@PAU?$_Tree_node@U?$pair@$$CBKV?$vector@UtagPropertyBuff@@V?$allocator@UtagPropertyBuff@@@std@@@std@@@std@@PAX@std@@AAPAU12@@?$_Default_allocator_traits@V?$allocator@U?$_Tree_node@U?$pair@$$CBKV?$vector@UtagPropertyBuff@@V?$allocator@UtagPropertyBuff@@@std@@@std@@@std@@PAX@std@@@std@@@std@@SAXAAV?$allocator@U?$_Tree_node@U?$pair@$$CBKV?$vector@UtagPropertyBuff@@V?$allocator@UtagPropertyBuff@@@std@@@std@@@std@@PAX@std@@@1@QAPAU?$_Tree_node@U?$pair@$$CBKV?$vector@UtagPropertyBuff@@V?$allocator@UtagPropertyBuff@@@std@@@std@@@std@@PAX@1@AAPAU31@@Z 10012290 f i GamePropertyManager.obj
 0001:000112e0       ??$construct@U?$pair@$$CBKV?$vector@UtagPropertyBuff@@V?$allocator@UtagPropertyBuff@@@std@@@std@@@std@@ABUpiecewise_construct_t@2@V?$tuple@ABK@2@V?$tuple@$$V@2@@?$_Default_allocator_traits@V?$allocator@U?$_Tree_node@U?$pair@$$CBKV?$vector@UtagPropertyBuff@@V?$allocator@UtagPropertyBuff@@@std@@@std@@@std@@PAX@std@@@std@@@std@@SAXAAV?$allocator@U?$_Tree_node@U?$pair@$$CBKV?$vector@UtagPropertyBuff@@V?$allocator@UtagPropertyBuff@@@std@@@std@@@std@@PAX@std@@@1@QAU?$pair@$$CBKV?$vector@UtagPropertyBuff@@V?$allocator@UtagPropertyBuff@@@std@@@std@@@1@ABUpiecewise_construct_t@1@$$QAV?$tuple@ABK@1@$$QAV?$tuple@$$V@1@@Z 100122e0 f i GamePropertyManager.obj
 0001:00011370       ??$construct@U_Container_proxy@std@@U12@@?$_Default_allocator_traits@V?$allocator@U_Container_proxy@std@@@std@@@std@@SAXAAV?$allocator@U_Container_proxy@std@@@1@QAU_Container_proxy@1@$$QAU31@@Z 10012370 f i GamePropertyManager.obj
 0001:000113c0       ??$construct@UtagPropertyBuff@@ABU1@@?$_Default_allocator_traits@V?$allocator@UtagPropertyBuff@@@std@@@std@@SAXAAV?$allocator@UtagPropertyBuff@@@1@QAUtagPropertyBuff@@ABU3@@Z 100123c0 f i GamePropertyManager.obj
 0001:00011410       ??$destroy@PAU?$_Tree_node@U?$pair@$$CBKV?$vector@UtagPropertyBuff@@V?$allocator@UtagPropertyBuff@@@std@@@std@@@std@@PAX@std@@@?$_Default_allocator_traits@V?$allocator@U?$_Tree_node@U?$pair@$$CBKV?$vector@UtagPropertyBuff@@V?$allocator@UtagPropertyBuff@@@std@@@std@@@std@@PAX@std@@@std@@@std@@SAXAAV?$allocator@U?$_Tree_node@U?$pair@$$CBKV?$vector@UtagPropertyBuff@@V?$allocator@UtagPropertyBuff@@@std@@@std@@@std@@PAX@std@@@1@QAPAU?$_Tree_node@U?$pair@$$CBKV?$vector@UtagPropertyBuff@@V?$allocator@UtagPropertyBuff@@@std@@@std@@@std@@PAX@1@@Z 10012410 f i GamePropertyManager.obj
 0001:00011430       ??$destroy@U?$pair@$$CBKV?$vector@UtagPropertyBuff@@V?$allocator@UtagPropertyBuff@@@std@@@std@@@std@@@?$_Default_allocator_traits@V?$allocator@U?$_Tree_node@U?$pair@$$CBKV?$vector@UtagPropertyBuff@@V?$allocator@UtagPropertyBuff@@@std@@@std@@@std@@PAX@std@@@std@@@std@@SAXAAV?$allocator@U?$_Tree_node@U?$pair@$$CBKV?$vector@UtagPropertyBuff@@V?$allocator@UtagPropertyBuff@@@std@@@std@@@std@@PAX@std@@@1@QAU?$pair@$$CBKV?$vector@UtagPropertyBuff@@V?$allocator@UtagPropertyBuff@@@std@@@std@@@1@@Z 10012430 f i GamePropertyManager.obj
 0001:00011450       ??$destroy@U_Container_proxy@std@@@?$_Default_allocator_traits@V?$allocator@U_Container_proxy@std@@@std@@@std@@SAXAAV?$allocator@U_Container_proxy@std@@@1@QAU_Container_proxy@1@@Z 10012450 f i GamePropertyManager.obj
 0001:00011470       ??$emplace_back@ABUtagPropertyBuff@@@?$vector@UtagPropertyBuff@@V?$allocator@UtagPropertyBuff@@@std@@@std@@QAE@ABUtagPropertyBuff@@@Z 10012470 f i GamePropertyManager.obj
 0001:000114f0       ??$emplace_hint@ABUpiecewise_construct_t@std@@V?$tuple@ABK@2@V?$tuple@$$V@2@@?$_Tree@V?$_Tmap_traits@KV?$vector@UtagPropertyBuff@@V?$allocator@UtagPropertyBuff@@@std@@@std@@U?$less@K@2@V?$allocator@U?$pair@$$CBKV?$vector@UtagPropertyBuff@@V?$allocator@UtagPropertyBuff@@@std@@@std@@@std@@@2@$0A@@std@@@std@@QAE?AV?$_Tree_iterator@V?$_Tree_val@U?$_Tree_simple_types@U?$pair@$$CBKV?$vector@UtagPropertyBuff@@V?$allocator@UtagPropertyBuff@@@std@@@std@@@std@@@std@@@std@@@1@V?$_Tree_const_iterator@V?$_Tree_val@U?$_Tree_simple_types@U?$pair@$$CBKV?$vector@UtagPropertyBuff@@V?$allocator@UtagPropertyBuff@@@std@@@std@@@std@@@std@@@std@@@1@ABUpiecewise_construct_t@1@$$QAV?$tuple@ABK@1@$$QAV?$tuple@$$V@1@@Z 100124f0 f i GamePropertyManager.obj
 0001:000115f0       ??$forward@AAPAU?$_Tree_node@U?$pair@$$CBKV?$vector@UtagPropertyBuff@@V?$allocator@UtagPropertyBuff@@@std@@@std@@@std@@PAX@std@@@std@@YAAAPAU?$_Tree_node@U?$pair@$$CBKV?$vector@UtagPropertyBuff@@V?$allocator@UtagPropertyBuff@@@std@@@std@@@std@@PAX@0@AAPAU10@@Z 100125f0 f i GamePropertyManager.obj
 0001:00011610       ??$forward@AAU?$pair@$$CBKV?$vector@UtagPropertyBuff@@V?$allocator@UtagPropertyBuff@@@std@@@std@@@std@@@std@@YAAAU?$pair@$$CBKV?$vector@UtagPropertyBuff@@V?$allocator@UtagPropertyBuff@@@std@@@std@@@0@AAU10@@Z 10012610 f i GamePropertyManager.obj
 0001:00011630       ??$forward@AAV?$_Tree_iterator@V?$_Tree_val@U?$_Tree_simple_types@U?$pair@$$CBKV?$vector@UtagPropertyBuff@@V?$allocator@UtagPropertyBuff@@@std@@@std@@@std@@@std@@@std@@@std@@@std@@YAAAV?$_Tree_iterator@V?$_Tree_val@U?$_Tree_simple_types@U?$pair@$$CBKV?$vector@UtagPropertyBuff@@V?$allocator@UtagPropertyBuff@@@std@@@std@@@std@@@std@@@std@@@0@AAV10@@Z 10012630 f i GamePropertyManager.obj
 0001:00011650       ??$forward@ABK@std@@YAABKABK@Z 10012650 f i GamePropertyManager.obj
 0001:00011670       ??$forward@ABU?$less@K@std@@@std@@YAABU?$less@K@0@ABU10@@Z 10012670 f i GamePropertyManager.obj
 0001:00011690       ??$forward@ABUpiecewise_construct_t@std@@@std@@YAABUpiecewise_construct_t@0@ABU10@@Z 10012690 f i GamePropertyManager.obj
 0001:000116b0       ??$forward@ABUtagPropertyBuff@@@std@@YAABUtagPropertyBuff@@ABU1@@Z 100126b0 f i GamePropertyManager.obj
 0001:000116d0       ??$forward@U_Container_proxy@std@@@std@@YA$$QAU_Container_proxy@0@AAU10@@Z 100126d0 f i GamePropertyManager.obj
 0001:000116f0       ??$forward@U_Zero_then_variadic_args_t@std@@@std@@YA$$QAU_Zero_then_variadic_args_t@0@AAU10@@Z 100126f0 f i GamePropertyManager.obj
 0001:00011710       ??$forward@V?$_Tree_iterator@V?$_Tree_val@U?$_Tree_simple_types@U?$pair@$$CBKV?$vector@UtagPropertyBuff@@V?$allocator@UtagPropertyBuff@@@std@@@std@@@std@@@std@@@std@@@std@@@std@@YA$$QAV?$_Tree_iterator@V?$_Tree_val@U?$_Tree_simple_types@U?$pair@$$CBKV?$vector@UtagPropertyBuff@@V?$allocator@UtagPropertyBuff@@@std@@@std@@@std@@@std@@@std@@@0@AAV10@@Z 10012710 f i GamePropertyManager.obj
 0001:00011730       ??$forward@V?$allocator@UtagPropertyBuff@@@std@@@std@@YA$$QAV?$allocator@UtagPropertyBuff@@@0@AAV10@@Z 10012730 f i GamePropertyManager.obj
 0001:00011750       ??$forward@V?$tuple@$$V@std@@@std@@YA$$QAV?$tuple@$$V@0@AAV10@@Z 10012750 f i GamePropertyManager.obj
 0001:00011770       ??$forward@V?$tuple@ABK@std@@@std@@YA$$QAV?$tuple@ABK@0@AAV10@@Z 10012770 f i GamePropertyManager.obj
 0001:00011790       ??$forward@_N@std@@YA$$QA_NAA_N@Z 10012790 f i GamePropertyManager.obj
 0001:000117b0       ??$forward_as_tuple@$$V@std@@YA?AV?$tuple@$$V@0@XZ 100127b0 f i GamePropertyManager.obj
 0001:000117e0       ??$forward_as_tuple@ABK@std@@YA?AV?$tuple@ABK@0@ABK@Z 100127e0 f i GamePropertyManager.obj
 0001:00011820       ??$get@$0A@ABK@std@@YAABK$$QAV?$tuple@ABK@0@@Z 10012820 f i GamePropertyManager.obj
 0001:00011850       ??$move@AAD@std@@YA$$QADAAD@Z 10012850 f i GamePropertyManager.obj
 0001:00011870       ??$move@AAV?$tuple@ABK@std@@@std@@YA$$QAV?$tuple@ABK@0@AAV10@@Z 10012870 f i GamePropertyManager.obj
 0001:00011890       ??$swap@DX@std@@YAXAAD0@Z  10012890 f i GamePropertyManager.obj
 0001:000118f0       ??$try_emplace@$$V@?$map@KV?$vector@UtagPropertyBuff@@V?$allocator@UtagPropertyBuff@@@std@@@std@@U?$less@K@2@V?$allocator@U?$pair@$$CBKV?$vector@UtagPropertyBuff@@V?$allocator@UtagPropertyBuff@@@std@@@std@@@std@@@2@@std@@QAE?AU?$pair@V?$_Tree_iterator@V?$_Tree_val@U?$_Tree_simple_types@U?$pair@$$CBKV?$vector@UtagPropertyBuff@@V?$allocator@UtagPropertyBuff@@@std@@@std@@@std@@@std@@@std@@@std@@_N@1@ABK@Z 100128f0 f i GamePropertyManager.obj
 0001:00011940       ??0?$CWHArray@UtagPropertyInfo@@ABU1@@@QAE@ABV0@@Z 10012940 f i GamePropertyManager.obj
 0001:000119b0       ??0?$CWHArray@UtagPropertyInfo@@ABU1@@@QAE@XZ 100129b0 f i GamePropertyManager.obj
 0001:00011a10       ??0?$_Tree@V?$_Tmap_traits@KV?$vector@UtagPropertyBuff@@V?$allocator@UtagPropertyBuff@@@std@@@std@@U?$less@K@2@V?$allocator@U?$pair@$$CBKV?$vector@UtagPropertyBuff@@V?$allocator@UtagPropertyBuff@@@std@@@std@@@std@@@2@$0A@@std@@@std@@QAE@ABU?$less@K@1@@Z 10012a10 f i GamePropertyManager.obj
 0001:00011a40       ??0?$_Tree_comp_alloc@V?$_Tmap_traits@KV?$vector@UtagPropertyBuff@@V?$allocator@UtagPropertyBuff@@@std@@@std@@U?$less@K@2@V?$allocator@U?$pair@$$CBKV?$vector@UtagPropertyBuff@@V?$allocator@UtagPropertyBuff@@@std@@@std@@@std@@@2@$0A@@std@@@std@@QAE@ABU?$less@K@1@@Z 10012a40 f i GamePropertyManager.obj
 0001:00011a90       ??0?$_Tree_const_iterator@V?$_Tree_val@U?$_Tree_simple_types@U?$pair@$$CBKV?$vector@UtagPropertyBuff@@V?$allocator@UtagPropertyBuff@@@std@@@std@@@std@@@std@@@std@@@std@@QAE@$$QAV01@@Z 10012a90 f i GamePropertyManager.obj
 0001:00011ac0       ??0?$_Tree_const_iterator@V?$_Tree_val@U?$_Tree_simple_types@U?$pair@$$CBKV?$vector@UtagPropertyBuff@@V?$allocator@UtagPropertyBuff@@@std@@@std@@@std@@@std@@@std@@@std@@QAE@ABV01@@Z 10012ac0 f i GamePropertyManager.obj
 0001:00011af0       ??0?$_Tree_const_iterator@V?$_Tree_val@U?$_Tree_simple_types@U?$pair@$$CBKV?$vector@UtagPropertyBuff@@V?$allocator@UtagPropertyBuff@@@std@@@std@@@std@@@std@@@std@@@std@@QAE@PAU?$_Tree_node@U?$pair@$$CBKV?$vector@UtagPropertyBuff@@V?$allocator@UtagPropertyBuff@@@std@@@std@@@std@@PAX@1@PBV?$_Tree_val@U?$_Tree_simple_types@U?$pair@$$CBKV?$vector@UtagPropertyBuff@@V?$allocator@UtagPropertyBuff@@@std@@@std@@@std@@@std@@@1@@Z 10012af0 f i GamePropertyManager.obj
 0001:00011b30       ??0?$_Tree_const_iterator@V?$_Tree_val@U?$_Tree_simple_types@U?$pair@$$CBKV?$vector@UtagPropertyBuff@@V?$allocator@UtagPropertyBuff@@@std@@@std@@@std@@@std@@@std@@@std@@QAE@XZ 10012b30 f i GamePropertyManager.obj
 0001:00011b60       ??0?$_Tree_iterator@V?$_Tree_val@U?$_Tree_simple_types@U?$pair@$$CBKV?$vector@UtagPropertyBuff@@V?$allocator@UtagPropertyBuff@@@std@@@std@@@std@@@std@@@std@@@std@@QAE@$$QAV01@@Z 10012b60 f i GamePropertyManager.obj
 0001:00011b90       ??0?$_Tree_iterator@V?$_Tree_val@U?$_Tree_simple_types@U?$pair@$$CBKV?$vector@UtagPropertyBuff@@V?$allocator@UtagPropertyBuff@@@std@@@std@@@std@@@std@@@std@@@std@@QAE@ABV01@@Z 10012b90 f i GamePropertyManager.obj
 0001:00011bc0       ??0?$_Tree_iterator@V?$_Tree_val@U?$_Tree_simple_types@U?$pair@$$CBKV?$vector@UtagPropertyBuff@@V?$allocator@UtagPropertyBuff@@@std@@@std@@@std@@@std@@@std@@@std@@QAE@PAU?$_Tree_node@U?$pair@$$CBKV?$vector@UtagPropertyBuff@@V?$allocator@UtagPropertyBuff@@@std@@@std@@@std@@PAX@1@PBV?$_Tree_val@U?$_Tree_simple_types@U?$pair@$$CBKV?$vector@UtagPropertyBuff@@V?$allocator@UtagPropertyBuff@@@std@@@std@@@std@@@std@@@1@@Z 10012bc0 f i GamePropertyManager.obj
 0001:00011c00       ??0?$_Tree_unchecked_const_iterator@V?$_Tree_val@U?$_Tree_simple_types@U?$pair@$$CBKV?$vector@UtagPropertyBuff@@V?$allocator@UtagPropertyBuff@@@std@@@std@@@std@@@std@@@std@@U_Iterator_base12@2@@std@@QAE@$$QAV01@@Z 10012c00 f i GamePropertyManager.obj
 0001:00011c40       ??0?$_Tree_unchecked_const_iterator@V?$_Tree_val@U?$_Tree_simple_types@U?$pair@$$CBKV?$vector@UtagPropertyBuff@@V?$allocator@UtagPropertyBuff@@@std@@@std@@@std@@@std@@@std@@U_Iterator_base12@2@@std@@QAE@ABV01@@Z 10012c40 f i GamePropertyManager.obj
 0001:00011c80       ??0?$_Tree_unchecked_const_iterator@V?$_Tree_val@U?$_Tree_simple_types@U?$pair@$$CBKV?$vector@UtagPropertyBuff@@V?$allocator@UtagPropertyBuff@@@std@@@std@@@std@@@std@@@std@@U_Iterator_base12@2@@std@@QAE@PAU?$_Tree_node@U?$pair@$$CBKV?$vector@UtagPropertyBuff@@V?$allocator@UtagPropertyBuff@@@std@@@std@@@std@@PAX@1@PBV?$_Tree_val@U?$_Tree_simple_types@U?$pair@$$CBKV?$vector@UtagPropertyBuff@@V?$allocator@UtagPropertyBuff@@@std@@@std@@@std@@@std@@@1@@Z 10012c80 f i GamePropertyManager.obj
 0001:00011cd0       ??0?$_Tree_unchecked_const_iterator@V?$_Tree_val@U?$_Tree_simple_types@U?$pair@$$CBKV?$vector@UtagPropertyBuff@@V?$allocator@UtagPropertyBuff@@@std@@@std@@@std@@@std@@@std@@U_Iterator_base12@2@@std@@QAE@XZ 10012cd0 f i GamePropertyManager.obj
 0001:00011d10       ??0?$_Tree_val@U?$_Tree_simple_types@U?$pair@$$CBKV?$vector@UtagPropertyBuff@@V?$allocator@UtagPropertyBuff@@@std@@@std@@@std@@@std@@@std@@QAE@XZ 10012d10 f i GamePropertyManager.obj
 0001:00011d50       ??0?$_Vector_alloc@U?$_Vec_base_types@UtagPropertyBuff@@V?$allocator@UtagPropertyBuff@@@std@@@std@@@std@@QAE@XZ 10012d50 f i GamePropertyManager.obj
 0001:00011d90       ??0?$_Vector_val@U?$_Simple_types@UtagPropertyBuff@@@std@@@std@@QAE@XZ 10012d90 f i GamePropertyManager.obj
 0001:00011de0       ??0?$allocator@U?$_Tree_node@U?$pair@$$CBKV?$vector@UtagPropertyBuff@@V?$allocator@UtagPropertyBuff@@@std@@@std@@@std@@PAX@std@@@std@@QAE@XZ 10012de0 f i GamePropertyManager.obj
 0001:00011e00       ??0?$allocator@UtagPropertyBuff@@@std@@QAE@XZ 10012e00 f i GamePropertyManager.obj
 0001:00011e20       ??0?$map@KV?$vector@UtagPropertyBuff@@V?$allocator@UtagPropertyBuff@@@std@@@std@@U?$less@K@2@V?$allocator@U?$pair@$$CBKV?$vector@UtagPropertyBuff@@V?$allocator@UtagPropertyBuff@@@std@@@std@@@std@@@2@@std@@QAE@XZ 10012e20 f i GamePropertyManager.obj
 0001:00011e50       ??0?$tuple@$$V@std@@QAE@ABV01@@Z 10012e50 f i GamePropertyManager.obj
 0001:00011e70       ??0?$tuple@$$V@std@@QAE@XZ 10012e70 f i GamePropertyManager.obj
 0001:00011e90       ??0?$tuple@ABK@std@@QAE@$$QAV01@@Z 10012e90 f i GamePropertyManager.obj
 0001:00011ed0       ??0?$vector@UtagPropertyBuff@@V?$allocator@UtagPropertyBuff@@@std@@@std@@QAE@ABV01@@Z 10012ed0 f i GamePropertyManager.obj
 0001:00012000       ??0?$vector@UtagPropertyBuff@@V?$allocator@UtagPropertyBuff@@@std@@@std@@QAE@XZ 10013000 f i GamePropertyManager.obj
 0001:00012060       ??0CGamePropertyManager@@QAE@ABV0@@Z 10013060 f i GamePropertyManager.obj
 0001:000120a0       ??0CGamePropertyManager@@QAE@XZ 100130a0 f   GamePropertyManager.obj
 0001:000120e0       ??0_Container_base12@std@@QAE@XZ 100130e0 f i GamePropertyManager.obj
 0001:00012110       ??0_Container_proxy@std@@QAE@XZ 10013110 f i GamePropertyManager.obj
 0001:00012150       ??0_Iterator_base12@std@@QAE@ABU01@@Z 10013150 f i GamePropertyManager.obj
 0001:000121a0       ??0_Iterator_base12@std@@QAE@XZ 100131a0 f i GamePropertyManager.obj
 0001:000121e0       ??1?$CWHArray@UtagPropertyInfo@@ABU1@@@UAE@XZ 100131e0 f i GamePropertyManager.obj
 0001:00012260       ??1?$_Tree@V?$_Tmap_traits@KV?$vector@UtagPropertyBuff@@V?$allocator@UtagPropertyBuff@@@std@@@std@@U?$less@K@2@V?$allocator@U?$pair@$$CBKV?$vector@UtagPropertyBuff@@V?$allocator@UtagPropertyBuff@@@std@@@std@@@std@@@2@$0A@@std@@@std@@QAE@XZ 10013260 f i GamePropertyManager.obj
 0001:000122c0       ??1?$_Tree_comp_alloc@V?$_Tmap_traits@KV?$vector@UtagPropertyBuff@@V?$allocator@UtagPropertyBuff@@@std@@@std@@U?$less@K@2@V?$allocator@U?$pair@$$CBKV?$vector@UtagPropertyBuff@@V?$allocator@UtagPropertyBuff@@@std@@@std@@@std@@@2@$0A@@std@@@std@@QAE@XZ 100132c0 f i GamePropertyManager.obj
 0001:00012330       ??1?$_Tree_const_iterator@V?$_Tree_val@U?$_Tree_simple_types@U?$pair@$$CBKV?$vector@UtagPropertyBuff@@V?$allocator@UtagPropertyBuff@@@std@@@std@@@std@@@std@@@std@@@std@@QAE@XZ 10013330 f i GamePropertyManager.obj
 0001:00012360       ??1?$_Tree_iterator@V?$_Tree_val@U?$_Tree_simple_types@U?$pair@$$CBKV?$vector@UtagPropertyBuff@@V?$allocator@UtagPropertyBuff@@@std@@@std@@@std@@@std@@@std@@@std@@QAE@XZ 10013360 f i GamePropertyManager.obj
 0001:00012390       ??1?$_Tree_unchecked_const_iterator@V?$_Tree_val@U?$_Tree_simple_types@U?$pair@$$CBKV?$vector@UtagPropertyBuff@@V?$allocator@UtagPropertyBuff@@@std@@@std@@@std@@@std@@@std@@U_Iterator_base12@2@@std@@QAE@XZ 10013390 f i GamePropertyManager.obj
 0001:000123c0       ??1?$_Vector_alloc@U?$_Vec_base_types@UtagPropertyBuff@@V?$allocator@UtagPropertyBuff@@@std@@@std@@@std@@QAE@XZ 100133c0 f i GamePropertyManager.obj
 0001:00012420       ??1?$map@KV?$vector@UtagPropertyBuff@@V?$allocator@UtagPropertyBuff@@@std@@@std@@U?$less@K@2@V?$allocator@U?$pair@$$CBKV?$vector@UtagPropertyBuff@@V?$allocator@UtagPropertyBuff@@@std@@@std@@@std@@@2@@std@@QAE@XZ 10013420 f i GamePropertyManager.obj
 0001:00012450       ??1?$pair@$$CBKV?$vector@UtagPropertyBuff@@V?$allocator@UtagPropertyBuff@@@std@@@std@@@std@@QAE@XZ 10013450 f i GamePropertyManager.obj
 0001:00012480       ??1?$pair@V?$_Tree_iterator@V?$_Tree_val@U?$_Tree_simple_types@U?$pair@$$CBKV?$vector@UtagPropertyBuff@@V?$allocator@UtagPropertyBuff@@@std@@@std@@@std@@@std@@@std@@@std@@_N@std@@QAE@XZ 10013480 f i GamePropertyManager.obj
 0001:000124b0       ??1?$vector@UtagPropertyBuff@@V?$allocator@UtagPropertyBuff@@@std@@@std@@QAE@XZ 100134b0 f i GamePropertyManager.obj
 0001:00012510       ??1CGamePropertyManager@@UAE@XZ 10013510 f   GamePropertyManager.obj
 0001:00012540       ??1_Iterator_base12@std@@QAE@XZ 10013540 f i GamePropertyManager.obj
 0001:000125b0       ??4?$CWHArray@UtagPropertyInfo@@ABU1@@@QAEAAV0@ABV0@@Z 100135b0 f i GamePropertyManager.obj
 0001:00012610       ??4?$_Tree_const_iterator@V?$_Tree_val@U?$_Tree_simple_types@U?$pair@$$CBKV?$vector@UtagPropertyBuff@@V?$allocator@UtagPropertyBuff@@@std@@@std@@@std@@@std@@@std@@@std@@QAEAAV01@ABV01@@Z 10013610 f i GamePropertyManager.obj
 0001:00012640       ??4?$_Tree_unchecked_const_iterator@V?$_Tree_val@U?$_Tree_simple_types@U?$pair@$$CBKV?$vector@UtagPropertyBuff@@V?$allocator@UtagPropertyBuff@@@std@@@std@@@std@@@std@@@std@@U_Iterator_base12@2@@std@@QAEAAV01@ABV01@@Z 10013640 f i GamePropertyManager.obj
 0001:00012680       ??4CGamePropertyManager@@QAEAAV0@ABV0@@Z 10013680 f i GamePropertyManager.obj
 0001:000126c0       ??4_Iterator_base12@std@@QAEAAU01@ABU01@@Z 100136c0 f i GamePropertyManager.obj
 0001:00012770       ??8?$_Tree_const_iterator@V?$_Tree_val@U?$_Tree_simple_types@U?$pair@$$CBKV?$vector@UtagPropertyBuff@@V?$allocator@UtagPropertyBuff@@@std@@@std@@@std@@@std@@@std@@@std@@QBE_NABV01@@Z 10013770 f i GamePropertyManager.obj
 0001:00012840       ??9?$_Tree_const_iterator@V?$_Tree_val@U?$_Tree_simple_types@U?$pair@$$CBKV?$vector@UtagPropertyBuff@@V?$allocator@UtagPropertyBuff@@@std@@@std@@@std@@@std@@@std@@@std@@QBE_NABV01@@Z 10013840 f i GamePropertyManager.obj
 0001:00012890       ??A?$CWHArray@UtagPropertyInfo@@ABU1@@@QAEAAUtagPropertyInfo@@H@Z 10013890 f i GamePropertyManager.obj
 0001:000128c0       ??A?$map@KV?$vector@UtagPropertyBuff@@V?$allocator@UtagPropertyBuff@@@std@@@std@@U?$less@K@2@V?$allocator@U?$pair@$$CBKV?$vector@UtagPropertyBuff@@V?$allocator@UtagPropertyBuff@@@std@@@std@@@std@@@2@@std@@QAEAAV?$vector@UtagPropertyBuff@@V?$allocator@UtagPropertyBuff@@@std@@@1@ABK@Z 100138c0 f i GamePropertyManager.obj
 0001:00012960       ??A?$vector@UtagPropertyBuff@@V?$allocator@UtagPropertyBuff@@@std@@@std@@QAEAAUtagPropertyBuff@@I@Z 10013960 f i GamePropertyManager.obj
 0001:00012a10       ??C?$_Tree_iterator@V?$_Tree_val@U?$_Tree_simple_types@U?$pair@$$CBKV?$vector@UtagPropertyBuff@@V?$allocator@UtagPropertyBuff@@@std@@@std@@@std@@@std@@@std@@@std@@QBEPAU?$pair@$$CBKV?$vector@UtagPropertyBuff@@V?$allocator@UtagPropertyBuff@@@std@@@std@@@1@XZ 10013a10 f i GamePropertyManager.obj
 0001:00012a40       ??D?$_Tree_const_iterator@V?$_Tree_val@U?$_Tree_simple_types@U?$pair@$$CBKV?$vector@UtagPropertyBuff@@V?$allocator@UtagPropertyBuff@@@std@@@std@@@std@@@std@@@std@@@std@@QBEABU?$pair@$$CBKV?$vector@UtagPropertyBuff@@V?$allocator@UtagPropertyBuff@@@std@@@std@@@1@XZ 10013a40 f i GamePropertyManager.obj
 0001:00012b60       ??D?$_Tree_iterator@V?$_Tree_val@U?$_Tree_simple_types@U?$pair@$$CBKV?$vector@UtagPropertyBuff@@V?$allocator@UtagPropertyBuff@@@std@@@std@@@std@@@std@@@std@@@std@@QBEAAU?$pair@$$CBKV?$vector@UtagPropertyBuff@@V?$allocator@UtagPropertyBuff@@@std@@@std@@@1@XZ 10013b60 f i GamePropertyManager.obj
 0001:00012b90       ??E?$_Tree_const_iterator@V?$_Tree_val@U?$_Tree_simple_types@U?$pair@$$CBKV?$vector@UtagPropertyBuff@@V?$allocator@UtagPropertyBuff@@@std@@@std@@@std@@@std@@@std@@@std@@QAE?AV01@H@Z 10013b90 f i GamePropertyManager.obj
 0001:00012c40       ??E?$_Tree_const_iterator@V?$_Tree_val@U?$_Tree_simple_types@U?$pair@$$CBKV?$vector@UtagPropertyBuff@@V?$allocator@UtagPropertyBuff@@@std@@@std@@@std@@@std@@@std@@@std@@QAEAAV01@XZ 10013c40 f i GamePropertyManager.obj
 0001:00012d50       ??E?$_Tree_unchecked_const_iterator@V?$_Tree_val@U?$_Tree_simple_types@U?$pair@$$CBKV?$vector@UtagPropertyBuff@@V?$allocator@UtagPropertyBuff@@@std@@@std@@@std@@@std@@@std@@U_Iterator_base12@2@@std@@QAEAAV01@XZ 10013d50 f i GamePropertyManager.obj
 0001:00012df0       ??F?$_Tree_const_iterator@V?$_Tree_val@U?$_Tree_simple_types@U?$pair@$$CBKV?$vector@UtagPropertyBuff@@V?$allocator@UtagPropertyBuff@@@std@@@std@@@std@@@std@@@std@@@std@@QAEAAV01@XZ 10013df0 f i GamePropertyManager.obj
 0001:00012f10       ??F?$_Tree_iterator@V?$_Tree_val@U?$_Tree_simple_types@U?$pair@$$CBKV?$vector@UtagPropertyBuff@@V?$allocator@UtagPropertyBuff@@@std@@@std@@@std@@@std@@@std@@@std@@QAEAAV01@XZ 10013f10 f i GamePropertyManager.obj
 0001:00012f40       ??F?$_Tree_unchecked_const_iterator@V?$_Tree_val@U?$_Tree_simple_types@U?$pair@$$CBKV?$vector@UtagPropertyBuff@@V?$allocator@UtagPropertyBuff@@@std@@@std@@@std@@@std@@@std@@U_Iterator_base12@2@@std@@QAEAAV01@XZ 10013f40 f i GamePropertyManager.obj
 0001:00013010       ??R?$less@K@std@@QBE_NABK0@Z 10014010 f i GamePropertyManager.obj
 0001:00013060       ??_ECGamePropertyManager@@UAEPAXI@Z 10014060 f i GamePropertyManager.obj
 0001:00013140       ??_E?$CWHArray@UtagPropertyInfo@@ABU1@@@UAEPAXI@Z 10014140 f i GamePropertyManager.obj
 0001:00013140       ??_G?$CWHArray@UtagPropertyInfo@@ABU1@@@UAEPAXI@Z 10014140 f i GamePropertyManager.obj
 0001:00013190       ??_G?$pair@$$CBKV?$vector@UtagPropertyBuff@@V?$allocator@UtagPropertyBuff@@@std@@@std@@@std@@QAEPAXI@Z 10014190 f i GamePropertyManager.obj
 0001:000131e0       ??_GCGamePropertyManager@@UAEPAXI@Z 100141e0 f i GamePropertyManager.obj
 0001:00013230       ?AllocMemory@?$CWHArray@UtagPropertyInfo@@ABU1@@@QAEXH@Z 10014230 f i GamePropertyManager.obj
 0001:000133a0       ?ClearUserBuff@CGamePropertyManager@@QAE_NK@Z 100143a0 f   GamePropertyManager.obj
 0001:00013400       ?ElementAt@?$CWHArray@UtagPropertyInfo@@ABU1@@@QAEAAUtagPropertyInfo@@H@Z 10014400 f i GamePropertyManager.obj
 0001:00013480       ?GetCount@?$CWHArray@UtagPropertyInfo@@ABU1@@@QBEHXZ 10014480 f i GamePropertyManager.obj
 0001:000134a0       ?GetData@?$CWHArray@UtagPropertyInfo@@ABU1@@@QAEPAUtagPropertyInfo@@XZ 100144a0 f i GamePropertyManager.obj
 0001:000134c0       ?IsValid@@YA_NUtagPropertyBuff@@@Z 100144c0 f   GamePropertyManager.obj
 0001:00013530       ?SearchPropertyItem@CGamePropertyManager@@QAEPAUtagPropertyInfo@@G@Z 10014530 f   GamePropertyManager.obj
 0001:000135b0       ?SearchValidPropertyBuff@CGamePropertyManager@@SAPAUtagPropertyBuff@@KW4PROP_KIND@@@Z 100145b0 f   GamePropertyManager.obj
 0001:00013740       ?SetGamePropertyBuff@CGamePropertyManager@@QAE_NKQBUtagPropertyBuff@@G@Z 10014740 f   GamePropertyManager.obj
 0001:000137c0       ?SetGamePropertyInfo@CGamePropertyManager@@QAE_NQAUtagPropertyInfo@@G@Z 100147c0 f   GamePropertyManager.obj
 0001:00013820       ?SetSize@?$CWHArray@UtagPropertyInfo@@ABU1@@@QAEXH@Z 10014820 f i GamePropertyManager.obj
 0001:00013950       ?_Adjust_manually_vector_aligned@std@@YAXAAPAXAAI@Z 10014950 f i GamePropertyManager.obj
 0001:00013ac0       ?_Adopt@_Iterator_base12@std@@QAEXPBU_Container_base12@2@@Z 10014ac0 f i GamePropertyManager.obj
 0001:00013ba0       ?_Alloc_proxy@?$_Tree_comp_alloc@V?$_Tmap_traits@KV?$vector@UtagPropertyBuff@@V?$allocator@UtagPropertyBuff@@@std@@@std@@U?$less@K@2@V?$allocator@U?$pair@$$CBKV?$vector@UtagPropertyBuff@@V?$allocator@UtagPropertyBuff@@@std@@@std@@@std@@@2@$0A@@std@@@std@@QAEXXZ 10014ba0 f i GamePropertyManager.obj
 0001:00013c50       ?_Alloc_proxy@?$_Vector_alloc@U?$_Vec_base_types@UtagPropertyBuff@@V?$allocator@UtagPropertyBuff@@@std@@@std@@@std@@QAEXXZ 10014c50 f i GamePropertyManager.obj
 0001:00013d00       ?_Allocate@_Default_allocate_traits@std@@SAPAXI@Z 10014d00 f i GamePropertyManager.obj
 0001:00013d30       ?_Buy@?$vector@UtagPropertyBuff@@V?$allocator@UtagPropertyBuff@@@std@@@std@@AAE_NI@Z 10014d30 f i GamePropertyManager.obj
 0001:00013e10       ?_Buyheadnode@?$_Tree_comp_alloc@V?$_Tmap_traits@KV?$vector@UtagPropertyBuff@@V?$allocator@UtagPropertyBuff@@@std@@@std@@U?$less@K@2@V?$allocator@U?$pair@$$CBKV?$vector@UtagPropertyBuff@@V?$allocator@UtagPropertyBuff@@@std@@@std@@@std@@@2@$0A@@std@@@std@@QAEPAU?$_Tree_node@U?$pair@$$CBKV?$vector@UtagPropertyBuff@@V?$allocator@UtagPropertyBuff@@@std@@@std@@@std@@PAX@2@XZ 10014e10 f i GamePropertyManager.obj
 0001:00013f50       ?_Buynode0@?$_Tree_comp_alloc@V?$_Tmap_traits@KV?$vector@UtagPropertyBuff@@V?$allocator@UtagPropertyBuff@@@std@@@std@@U?$less@K@2@V?$allocator@U?$pair@$$CBKV?$vector@UtagPropertyBuff@@V?$allocator@UtagPropertyBuff@@@std@@@std@@@std@@@2@$0A@@std@@@std@@QAEPAU?$_Tree_node@U?$pair@$$CBKV?$vector@UtagPropertyBuff@@V?$allocator@UtagPropertyBuff@@@std@@@std@@@std@@PAX@2@XZ 10014f50 f i GamePropertyManager.obj
 0001:000140a0       ?_Calculate_growth@?$vector@UtagPropertyBuff@@V?$allocator@UtagPropertyBuff@@@std@@@std@@ABEII@Z 100150a0 f i GamePropertyManager.obj
 0001:00014110       ?_Change_array@?$vector@UtagPropertyBuff@@V?$allocator@UtagPropertyBuff@@@std@@@std@@AAEXQAUtagPropertyBuff@@II@Z 10015110 f i GamePropertyManager.obj
 0001:000141d0       ?_Clrcont@_Iterator_base12@std@@QAEXXZ 100151d0 f i GamePropertyManager.obj
 0001:00014200       ?_Compare@?$_Tree@V?$_Tmap_traits@KV?$vector@UtagPropertyBuff@@V?$allocator@UtagPropertyBuff@@@std@@@std@@U?$less@K@2@V?$allocator@U?$pair@$$CBKV?$vector@UtagPropertyBuff@@V?$allocator@UtagPropertyBuff@@@std@@@std@@@std@@@2@$0A@@std@@@std@@IBE_NABK0@Z 10015200 f i GamePropertyManager.obj
 0001:00014240       ?_Construct@?$_Tree_comp_alloc@V?$_Tmap_traits@KV?$vector@UtagPropertyBuff@@V?$allocator@UtagPropertyBuff@@@std@@@std@@U?$less@K@2@V?$allocator@U?$pair@$$CBKV?$vector@UtagPropertyBuff@@V?$allocator@UtagPropertyBuff@@@std@@@std@@@std@@@2@$0A@@std@@@std@@QAEXXZ 10015240 f i GamePropertyManager.obj
 0001:00014300       ?_Destroy@?$vector@UtagPropertyBuff@@V?$allocator@UtagPropertyBuff@@@std@@@std@@AAEXPAUtagPropertyBuff@@0@Z 10015300 f i GamePropertyManager.obj
 0001:00014340       ?_Destroy_if_node@?$_Tree@V?$_Tmap_traits@KV?$vector@UtagPropertyBuff@@V?$allocator@UtagPropertyBuff@@@std@@@std@@U?$less@K@2@V?$allocator@U?$pair@$$CBKV?$vector@UtagPropertyBuff@@V?$allocator@UtagPropertyBuff@@@std@@@std@@@std@@@2@$0A@@std@@@std@@IAEXPAU?$_Tree_node@U?$pair@$$CBKV?$vector@UtagPropertyBuff@@V?$allocator@UtagPropertyBuff@@@std@@@std@@@std@@PAX@2@@Z 10015340 f i GamePropertyManager.obj
 0001:000143a0       ?_Erase@?$_Tree@V?$_Tmap_traits@KV?$vector@UtagPropertyBuff@@V?$allocator@UtagPropertyBuff@@@std@@@std@@U?$less@K@2@V?$allocator@U?$pair@$$CBKV?$vector@UtagPropertyBuff@@V?$allocator@UtagPropertyBuff@@@std@@@std@@@std@@@2@$0A@@std@@@std@@IAEXPAU?$_Tree_node@U?$pair@$$CBKV?$vector@UtagPropertyBuff@@V?$allocator@UtagPropertyBuff@@@std@@@std@@@std@@PAX@2@@Z 100153a0 f i GamePropertyManager.obj
 0001:00014440       ?_Extract@?$_Tree_val@U?$_Tree_simple_types@U?$pair@$$CBKV?$vector@UtagPropertyBuff@@V?$allocator@UtagPropertyBuff@@@std@@@std@@@std@@@std@@@std@@QAEPAU?$_Tree_node@U?$pair@$$CBKV?$vector@UtagPropertyBuff@@V?$allocator@UtagPropertyBuff@@@std@@@std@@@std@@PAX@2@V?$_Tree_const_iterator@V?$_Tree_val@U?$_Tree_simple_types@U?$pair@$$CBKV?$vector@UtagPropertyBuff@@V?$allocator@UtagPropertyBuff@@@std@@@std@@@std@@@std@@@std@@@2@@Z 10015440 f i GamePropertyManager.obj
 0001:00014a70       ?_Free_proxy@?$_Tree_comp_alloc@V?$_Tmap_traits@KV?$vector@UtagPropertyBuff@@V?$allocator@UtagPropertyBuff@@@std@@@std@@U?$less@K@2@V?$allocator@U?$pair@$$CBKV?$vector@UtagPropertyBuff@@V?$allocator@UtagPropertyBuff@@@std@@@std@@@std@@@2@$0A@@std@@@std@@QAEXXZ 10015a70 f i GamePropertyManager.obj
 0001:00014b00       ?_Free_proxy@?$_Vector_alloc@U?$_Vec_base_types@UtagPropertyBuff@@V?$allocator@UtagPropertyBuff@@@std@@@std@@@std@@QAEXXZ 10015b00 f i GamePropertyManager.obj
 0001:00014b90       ?_Freeheadnode@?$_Tree_comp_alloc@V?$_Tmap_traits@KV?$vector@UtagPropertyBuff@@V?$allocator@UtagPropertyBuff@@@std@@@std@@U?$less@K@2@V?$allocator@U?$pair@$$CBKV?$vector@UtagPropertyBuff@@V?$allocator@UtagPropertyBuff@@@std@@@std@@@std@@@2@$0A@@std@@@std@@QAEXPAU?$_Tree_node@U?$pair@$$CBKV?$vector@UtagPropertyBuff@@V?$allocator@UtagPropertyBuff@@@std@@@std@@@std@@PAX@2@@Z 10015b90 f i GamePropertyManager.obj
 0001:00014bd0       ?_Freenode0@?$_Tree_comp_alloc@V?$_Tmap_traits@KV?$vector@UtagPropertyBuff@@V?$allocator@UtagPropertyBuff@@@std@@@std@@U?$less@K@2@V?$allocator@U?$pair@$$CBKV?$vector@UtagPropertyBuff@@V?$allocator@UtagPropertyBuff@@@std@@@std@@@std@@@2@$0A@@std@@@std@@QAEXPAU?$_Tree_node@U?$pair@$$CBKV?$vector@UtagPropertyBuff@@V?$allocator@UtagPropertyBuff@@@std@@@std@@@std@@PAX@2@@Z 10015bd0 f i GamePropertyManager.obj
 0001:00014c10       ?_Get_data@?$_Tree_comp_alloc@V?$_Tmap_traits@KV?$vector@UtagPropertyBuff@@V?$allocator@UtagPropertyBuff@@@std@@@std@@U?$less@K@2@V?$allocator@U?$pair@$$CBKV?$vector@UtagPropertyBuff@@V?$allocator@UtagPropertyBuff@@@std@@@std@@@std@@@2@$0A@@std@@@std@@QAEAAV?$_Tree_val@U?$_Tree_simple_types@U?$pair@$$CBKV?$vector@UtagPropertyBuff@@V?$allocator@UtagPropertyBuff@@@std@@@std@@@std@@@std@@@2@XZ 10015c10 f i GamePropertyManager.obj
 0001:00014c40       ?_Get_data@?$_Tree_comp_alloc@V?$_Tmap_traits@KV?$vector@UtagPropertyBuff@@V?$allocator@UtagPropertyBuff@@@std@@@std@@U?$less@K@2@V?$allocator@U?$pair@$$CBKV?$vector@UtagPropertyBuff@@V?$allocator@UtagPropertyBuff@@@std@@@std@@@std@@@2@$0A@@std@@@std@@QBEABV?$_Tree_val@U?$_Tree_simple_types@U?$pair@$$CBKV?$vector@UtagPropertyBuff@@V?$allocator@UtagPropertyBuff@@@std@@@std@@@std@@@std@@@2@XZ 10015c40 f i GamePropertyManager.obj
 0001:00014c70       ?_Get_data@?$_Vector_alloc@U?$_Vec_base_types@UtagPropertyBuff@@V?$allocator@UtagPropertyBuff@@@std@@@std@@@std@@QAEAAV?$_Vector_val@U?$_Simple_types@UtagPropertyBuff@@@std@@@2@XZ 10015c70 f i GamePropertyManager.obj
 0001:00014ca0       ?_Get_data@?$_Vector_alloc@U?$_Vec_base_types@UtagPropertyBuff@@V?$allocator@UtagPropertyBuff@@@std@@@std@@@std@@QBEABV?$_Vector_val@U?$_Simple_types@UtagPropertyBuff@@@std@@@2@XZ 10015ca0 f i GamePropertyManager.obj
 0001:00014cd0       ?_Get_first@?$_Compressed_pair@U?$less@K@std@@V?$_Compressed_pair@V?$allocator@U?$_Tree_node@U?$pair@$$CBKV?$vector@UtagPropertyBuff@@V?$allocator@UtagPropertyBuff@@@std@@@std@@@std@@PAX@std@@@std@@V?$_Tree_val@U?$_Tree_simple_types@U?$pair@$$CBKV?$vector@UtagPropertyBuff@@V?$allocator@UtagPropertyBuff@@@std@@@std@@@std@@@std@@@2@$00@2@$00@std@@QAEAAU?$less@K@2@XZ 10015cd0 f i GamePropertyManager.obj
 0001:00014cf0       ?_Get_first@?$_Compressed_pair@U?$less@K@std@@V?$_Compressed_pair@V?$allocator@U?$_Tree_node@U?$pair@$$CBKV?$vector@UtagPropertyBuff@@V?$allocator@UtagPropertyBuff@@@std@@@std@@@std@@PAX@std@@@std@@V?$_Tree_val@U?$_Tree_simple_types@U?$pair@$$CBKV?$vector@UtagPropertyBuff@@V?$allocator@UtagPropertyBuff@@@std@@@std@@@std@@@std@@@2@$00@2@$00@std@@QBEABU?$less@K@2@XZ 10015cf0 f i GamePropertyManager.obj
 0001:00014d10       ?_Get_first@?$_Compressed_pair@V?$allocator@U?$_Tree_node@U?$pair@$$CBKV?$vector@UtagPropertyBuff@@V?$allocator@UtagPropertyBuff@@@std@@@std@@@std@@PAX@std@@@std@@V?$_Tree_val@U?$_Tree_simple_types@U?$pair@$$CBKV?$vector@UtagPropertyBuff@@V?$allocator@UtagPropertyBuff@@@std@@@std@@@std@@@std@@@2@$00@std@@QAEAAV?$allocator@U?$_Tree_node@U?$pair@$$CBKV?$vector@UtagPropertyBuff@@V?$allocator@UtagPropertyBuff@@@std@@@std@@@std@@PAX@std@@@2@XZ 10015d10 f i GamePropertyManager.obj
 0001:00014d30       ?_Get_first@?$_Compressed_pair@V?$allocator@U?$_Tree_node@U?$pair@$$CBKV?$vector@UtagPropertyBuff@@V?$allocator@UtagPropertyBuff@@@std@@@std@@@std@@PAX@std@@@std@@V?$_Tree_val@U?$_Tree_simple_types@U?$pair@$$CBKV?$vector@UtagPropertyBuff@@V?$allocator@UtagPropertyBuff@@@std@@@std@@@std@@@std@@@2@$00@std@@QBEABV?$allocator@U?$_Tree_node@U?$pair@$$CBKV?$vector@UtagPropertyBuff@@V?$allocator@UtagPropertyBuff@@@std@@@std@@@std@@PAX@std@@@2@XZ 10015d30 f i GamePropertyManager.obj
 0001:00014d50       ?_Get_first@?$_Compressed_pair@V?$allocator@UtagPropertyBuff@@@std@@V?$_Vector_val@U?$_Simple_types@UtagPropertyBuff@@@std@@@2@$00@std@@QAEAAV?$allocator@UtagPropertyBuff@@@2@XZ 10015d50 f i GamePropertyManager.obj
 0001:00014d70       ?_Get_first@?$_Compressed_pair@V?$allocator@UtagPropertyBuff@@@std@@V?$_Vector_val@U?$_Simple_types@UtagPropertyBuff@@@std@@@2@$00@std@@QBEABV?$allocator@UtagPropertyBuff@@@2@XZ 10015d70 f i GamePropertyManager.obj
 0001:00014d90       ?_Get_second@?$_Compressed_pair@U?$less@K@std@@V?$_Compressed_pair@V?$allocator@U?$_Tree_node@U?$pair@$$CBKV?$vector@UtagPropertyBuff@@V?$allocator@UtagPropertyBuff@@@std@@@std@@@std@@PAX@std@@@std@@V?$_Tree_val@U?$_Tree_simple_types@U?$pair@$$CBKV?$vector@UtagPropertyBuff@@V?$allocator@UtagPropertyBuff@@@std@@@std@@@std@@@std@@@2@$00@2@$00@std@@QAEAAV?$_Compressed_pair@V?$allocator@U?$_Tree_node@U?$pair@$$CBKV?$vector@UtagPropertyBuff@@V?$allocator@UtagPropertyBuff@@@std@@@std@@@std@@PAX@std@@@std@@V?$_Tree_val@U?$_Tree_simple_types@U?$pair@$$CBKV?$vector@UtagPropertyBuff@@V?$allocator@UtagPropertyBuff@@@std@@@std@@@std@@@std@@@2@$00@2@XZ 10015d90 f i GamePropertyManager.obj
 0001:00014db0       ?_Get_second@?$_Compressed_pair@U?$less@K@std@@V?$_Compressed_pair@V?$allocator@U?$_Tree_node@U?$pair@$$CBKV?$vector@UtagPropertyBuff@@V?$allocator@UtagPropertyBuff@@@std@@@std@@@std@@PAX@std@@@std@@V?$_Tree_val@U?$_Tree_simple_types@U?$pair@$$CBKV?$vector@UtagPropertyBuff@@V?$allocator@UtagPropertyBuff@@@std@@@std@@@std@@@std@@@2@$00@2@$00@std@@QBEABV?$_Compressed_pair@V?$allocator@U?$_Tree_node@U?$pair@$$CBKV?$vector@UtagPropertyBuff@@V?$allocator@UtagPropertyBuff@@@std@@@std@@@std@@PAX@std@@@std@@V?$_Tree_val@U?$_Tree_simple_types@U?$pair@$$CBKV?$vector@UtagPropertyBuff@@V?$allocator@UtagPropertyBuff@@@std@@@std@@@std@@@std@@@2@$00@2@XZ 10015db0 f i GamePropertyManager.obj
 0001:00014dd0       ?_Get_second@?$_Compressed_pair@V?$allocator@U?$_Tree_node@U?$pair@$$CBKV?$vector@UtagPropertyBuff@@V?$allocator@UtagPropertyBuff@@@std@@@std@@@std@@PAX@std@@@std@@V?$_Tree_val@U?$_Tree_simple_types@U?$pair@$$CBKV?$vector@UtagPropertyBuff@@V?$allocator@UtagPropertyBuff@@@std@@@std@@@std@@@std@@@2@$00@std@@QAEAAV?$_Tree_val@U?$_Tree_simple_types@U?$pair@$$CBKV?$vector@UtagPropertyBuff@@V?$allocator@UtagPropertyBuff@@@std@@@std@@@std@@@std@@@2@XZ 10015dd0 f i GamePropertyManager.obj
 0001:00014df0       ?_Get_second@?$_Compressed_pair@V?$allocator@U?$_Tree_node@U?$pair@$$CBKV?$vector@UtagPropertyBuff@@V?$allocator@UtagPropertyBuff@@@std@@@std@@@std@@PAX@std@@@std@@V?$_Tree_val@U?$_Tree_simple_types@U?$pair@$$CBKV?$vector@UtagPropertyBuff@@V?$allocator@UtagPropertyBuff@@@std@@@std@@@std@@@std@@@2@$00@std@@QBEABV?$_Tree_val@U?$_Tree_simple_types@U?$pair@$$CBKV?$vector@UtagPropertyBuff@@V?$allocator@UtagPropertyBuff@@@std@@@std@@@std@@@std@@@2@XZ 10015df0 f i GamePropertyManager.obj
 0001:00014e10       ?_Get_second@?$_Compressed_pair@V?$allocator@UtagPropertyBuff@@@std@@V?$_Vector_val@U?$_Simple_types@UtagPropertyBuff@@@std@@@2@$00@std@@QAEAAV?$_Vector_val@U?$_Simple_types@UtagPropertyBuff@@@std@@@2@XZ 10015e10 f i GamePropertyManager.obj
 0001:00014e30       ?_Get_second@?$_Compressed_pair@V?$allocator@UtagPropertyBuff@@@std@@V?$_Vector_val@U?$_Simple_types@UtagPropertyBuff@@@std@@@2@$00@std@@QBEABV?$_Vector_val@U?$_Simple_types@UtagPropertyBuff@@@std@@@2@XZ 10015e30 f i GamePropertyManager.obj
 0001:00014e50       ?_Getal@?$_Tree_comp_alloc@V?$_Tmap_traits@KV?$vector@UtagPropertyBuff@@V?$allocator@UtagPropertyBuff@@@std@@@std@@U?$less@K@2@V?$allocator@U?$pair@$$CBKV?$vector@UtagPropertyBuff@@V?$allocator@UtagPropertyBuff@@@std@@@std@@@std@@@2@$0A@@std@@@std@@QAEAAV?$allocator@U?$_Tree_node@U?$pair@$$CBKV?$vector@UtagPropertyBuff@@V?$allocator@UtagPropertyBuff@@@std@@@std@@@std@@PAX@std@@@2@XZ 10015e50 f i GamePropertyManager.obj
 0001:00014e80       ?_Getal@?$_Tree_comp_alloc@V?$_Tmap_traits@KV?$vector@UtagPropertyBuff@@V?$allocator@UtagPropertyBuff@@@std@@@std@@U?$less@K@2@V?$allocator@U?$pair@$$CBKV?$vector@UtagPropertyBuff@@V?$allocator@UtagPropertyBuff@@@std@@@std@@@std@@@2@$0A@@std@@@std@@QBEABV?$allocator@U?$_Tree_node@U?$pair@$$CBKV?$vector@UtagPropertyBuff@@V?$allocator@UtagPropertyBuff@@@std@@@std@@@std@@PAX@std@@@2@XZ 10015e80 f i GamePropertyManager.obj
 0001:00014eb0       ?_Getal@?$_Vector_alloc@U?$_Vec_base_types@UtagPropertyBuff@@V?$allocator@UtagPropertyBuff@@@std@@@std@@@std@@QAEAAV?$allocator@UtagPropertyBuff@@@2@XZ 10015eb0 f i GamePropertyManager.obj
 0001:00014ee0       ?_Getal@?$_Vector_alloc@U?$_Vec_base_types@UtagPropertyBuff@@V?$allocator@UtagPropertyBuff@@@std@@@std@@@std@@QBEABV?$allocator@UtagPropertyBuff@@@2@XZ 10015ee0 f i GamePropertyManager.obj
 0001:00014f10       ?_Getcomp@?$_Tree_comp_alloc@V?$_Tmap_traits@KV?$vector@UtagPropertyBuff@@V?$allocator@UtagPropertyBuff@@@std@@@std@@U?$less@K@2@V?$allocator@U?$pair@$$CBKV?$vector@UtagPropertyBuff@@V?$allocator@UtagPropertyBuff@@@std@@@std@@@std@@@2@$0A@@std@@@std@@QAEAAU?$less@K@2@XZ 10015f10 f i GamePropertyManager.obj
 0001:00014f40       ?_Getcomp@?$_Tree_comp_alloc@V?$_Tmap_traits@KV?$vector@UtagPropertyBuff@@V?$allocator@UtagPropertyBuff@@@std@@@std@@U?$less@K@2@V?$allocator@U?$pair@$$CBKV?$vector@UtagPropertyBuff@@V?$allocator@UtagPropertyBuff@@@std@@@std@@@std@@@2@$0A@@std@@@std@@QBEABU?$less@K@2@XZ 10015f40 f i GamePropertyManager.obj
 0001:00014f70       ?_Getcont@_Iterator_base12@std@@QBEPBU_Container_base12@2@XZ 10015f70 f i GamePropertyManager.obj
 0001:00014fb0       ?_Getpfirst@?$_Tree_comp_alloc@V?$_Tmap_traits@KV?$vector@UtagPropertyBuff@@V?$allocator@UtagPropertyBuff@@@std@@@std@@U?$less@K@2@V?$allocator@U?$pair@$$CBKV?$vector@UtagPropertyBuff@@V?$allocator@UtagPropertyBuff@@@std@@@std@@@std@@@2@$0A@@std@@@std@@QBEPAPAU_Iterator_base12@2@XZ 10015fb0 f i GamePropertyManager.obj
 0001:00014fe0       ?_Getpfirst@?$_Vector_alloc@U?$_Vec_base_types@UtagPropertyBuff@@V?$allocator@UtagPropertyBuff@@@std@@@std@@@std@@QBEPAPAU_Iterator_base12@2@XZ 10015fe0 f i GamePropertyManager.obj
 0001:00015010       ?_Getpfirst@_Container_base12@std@@QBEPAPAU_Iterator_base12@2@XZ 10016010 f i GamePropertyManager.obj
 0001:00015050       ?_Getpnext@_Iterator_base12@std@@QAEPAPAU12@XZ 10016050 f i GamePropertyManager.obj
 0001:00015070       ?_Has_unused_capacity@?$vector@UtagPropertyBuff@@V?$allocator@UtagPropertyBuff@@@std@@@std@@ABE_NXZ 10016070 f i GamePropertyManager.obj
 0001:000150c0       ?_Key@?$_Tree@V?$_Tmap_traits@KV?$vector@UtagPropertyBuff@@V?$allocator@UtagPropertyBuff@@@std@@@std@@U?$less@K@2@V?$allocator@U?$pair@$$CBKV?$vector@UtagPropertyBuff@@V?$allocator@UtagPropertyBuff@@@std@@@std@@@std@@@2@$0A@@std@@@std@@IBEABKPAU?$_Tree_node@U?$pair@$$CBKV?$vector@UtagPropertyBuff@@V?$allocator@UtagPropertyBuff@@@std@@@std@@@std@@PAX@2@@Z 100160c0 f i GamePropertyManager.obj
 0001:000150f0       ?_Kfn@?$_Tree@V?$_Tmap_traits@KV?$vector@UtagPropertyBuff@@V?$allocator@UtagPropertyBuff@@@std@@@std@@U?$less@K@2@V?$allocator@U?$pair@$$CBKV?$vector@UtagPropertyBuff@@V?$allocator@UtagPropertyBuff@@@std@@@std@@@std@@@2@$0A@@std@@@std@@IBEABKABU?$pair@$$CBKV?$vector@UtagPropertyBuff@@V?$allocator@UtagPropertyBuff@@@std@@@std@@@2@@Z 100160f0 f i GamePropertyManager.obj
 0001:00015120       ?_Lmost@?$_Tree_val@U?$_Tree_simple_types@U?$pair@$$CBKV?$vector@UtagPropertyBuff@@V?$allocator@UtagPropertyBuff@@@std@@@std@@@std@@@std@@@std@@QBEAAPAU?$_Tree_node@U?$pair@$$CBKV?$vector@UtagPropertyBuff@@V?$allocator@UtagPropertyBuff@@@std@@@std@@@std@@PAX@2@XZ 10016120 f i GamePropertyManager.obj
 0001:00015140       ?_Lrotate@?$_Tree_val@U?$_Tree_simple_types@U?$pair@$$CBKV?$vector@UtagPropertyBuff@@V?$allocator@UtagPropertyBuff@@@std@@@std@@@std@@@std@@@std@@QAEXPAU?$_Tree_node@U?$pair@$$CBKV?$vector@UtagPropertyBuff@@V?$allocator@UtagPropertyBuff@@@std@@@std@@@std@@PAX@2@@Z 10016140 f i GamePropertyManager.obj
 0001:00015210       ?_Max@?$_Tree_val@U?$_Tree_simple_types@U?$pair@$$CBKV?$vector@UtagPropertyBuff@@V?$allocator@UtagPropertyBuff@@@std@@@std@@@std@@@std@@@std@@SAPAU?$_Tree_node@U?$pair@$$CBKV?$vector@UtagPropertyBuff@@V?$allocator@UtagPropertyBuff@@@std@@@std@@@std@@PAX@2@PAU32@@Z 10016210 f i GamePropertyManager.obj
 0001:00015250       ?_Min@?$_Tree_val@U?$_Tree_simple_types@U?$pair@$$CBKV?$vector@UtagPropertyBuff@@V?$allocator@UtagPropertyBuff@@@std@@@std@@@std@@@std@@@std@@SAPAU?$_Tree_node@U?$pair@$$CBKV?$vector@UtagPropertyBuff@@V?$allocator@UtagPropertyBuff@@@std@@@std@@@std@@PAX@2@PAU32@@Z 10016250 f i GamePropertyManager.obj
 0001:00015290       ?_Myend@?$_Vector_alloc@U?$_Vec_base_types@UtagPropertyBuff@@V?$allocator@UtagPropertyBuff@@@std@@@std@@@std@@QAEAAPAUtagPropertyBuff@@XZ 10016290 f i GamePropertyManager.obj
 0001:000152c0       ?_Myend@?$_Vector_alloc@U?$_Vec_base_types@UtagPropertyBuff@@V?$allocator@UtagPropertyBuff@@@std@@@std@@@std@@QBEABQAUtagPropertyBuff@@XZ 100162c0 f i GamePropertyManager.obj
 0001:000152f0       ?_Myfirst@?$_Vector_alloc@U?$_Vec_base_types@UtagPropertyBuff@@V?$allocator@UtagPropertyBuff@@@std@@@std@@@std@@QAEAAPAUtagPropertyBuff@@XZ 100162f0 f i GamePropertyManager.obj
 0001:00015320       ?_Myfirst@?$_Vector_alloc@U?$_Vec_base_types@UtagPropertyBuff@@V?$allocator@UtagPropertyBuff@@@std@@@std@@@std@@QBEABQAUtagPropertyBuff@@XZ 10016320 f i GamePropertyManager.obj
 0001:00015350       ?_Mylast@?$_Vector_alloc@U?$_Vec_base_types@UtagPropertyBuff@@V?$allocator@UtagPropertyBuff@@@std@@@std@@@std@@QAEAAPAUtagPropertyBuff@@XZ 10016350 f i GamePropertyManager.obj
 0001:00015380       ?_Mylast@?$_Vector_alloc@U?$_Vec_base_types@UtagPropertyBuff@@V?$allocator@UtagPropertyBuff@@@std@@@std@@@std@@QBEABQAUtagPropertyBuff@@XZ 10016380 f i GamePropertyManager.obj
 0001:000153b0       ?_Myproxy@?$_Tree_comp_alloc@V?$_Tmap_traits@KV?$vector@UtagPropertyBuff@@V?$allocator@UtagPropertyBuff@@@std@@@std@@U?$less@K@2@V?$allocator@U?$pair@$$CBKV?$vector@UtagPropertyBuff@@V?$allocator@UtagPropertyBuff@@@std@@@std@@@std@@@2@$0A@@std@@@std@@QAEAAPAU_Container_proxy@2@XZ 100163b0 f i GamePropertyManager.obj
 0001:000153e0       ?_Myproxy@?$_Vector_alloc@U?$_Vec_base_types@UtagPropertyBuff@@V?$allocator@UtagPropertyBuff@@@std@@@std@@@std@@QAEAAPAU_Container_proxy@2@XZ 100163e0 f i GamePropertyManager.obj
 0001:00015410       ?_Orphan_all@?$_Tree_comp_alloc@V?$_Tmap_traits@KV?$vector@UtagPropertyBuff@@V?$allocator@UtagPropertyBuff@@@std@@@std@@U?$less@K@2@V?$allocator@U?$pair@$$CBKV?$vector@UtagPropertyBuff@@V?$allocator@UtagPropertyBuff@@@std@@@std@@@std@@@2@$0A@@std@@@std@@QAEXXZ 10016410 f i GamePropertyManager.obj
 0001:00015440       ?_Orphan_all@?$_Vector_alloc@U?$_Vec_base_types@UtagPropertyBuff@@V?$allocator@UtagPropertyBuff@@@std@@@std@@@std@@QAEXXZ 10016440 f i GamePropertyManager.obj
 0001:00015470       ?_Orphan_all@_Container_base12@std@@QAEXXZ 10016470 f i GamePropertyManager.obj
 0001:00015530       ?_Orphan_me@_Iterator_base12@std@@QAEXXZ 10016530 f i GamePropertyManager.obj
 0001:00015620       ?_Orphan_ptr@?$_Tree@V?$_Tmap_traits@KV?$vector@UtagPropertyBuff@@V?$allocator@UtagPropertyBuff@@@std@@@std@@U?$less@K@2@V?$allocator@U?$pair@$$CBKV?$vector@UtagPropertyBuff@@V?$allocator@UtagPropertyBuff@@@std@@@std@@@std@@@2@$0A@@std@@@std@@IAEXPAU?$_Tree_node@U?$pair@$$CBKV?$vector@UtagPropertyBuff@@V?$allocator@UtagPropertyBuff@@@std@@@std@@@std@@PAX@2@@Z 10016620 f i GamePropertyManager.obj
 0001:00015730       ?_Orphan_range@?$vector@UtagPropertyBuff@@V?$allocator@UtagPropertyBuff@@@std@@@std@@ABEXPAUtagPropertyBuff@@0@Z 10016730 f i GamePropertyManager.obj
 0001:00015820       ?_Rmost@?$_Tree_val@U?$_Tree_simple_types@U?$pair@$$CBKV?$vector@UtagPropertyBuff@@V?$allocator@UtagPropertyBuff@@@std@@@std@@@std@@@std@@@std@@QBEAAPAU?$_Tree_node@U?$pair@$$CBKV?$vector@UtagPropertyBuff@@V?$allocator@UtagPropertyBuff@@@std@@@std@@@std@@PAX@2@XZ 10016820 f i GamePropertyManager.obj
 0001:00015850       ?_Root@?$_Tree_val@U?$_Tree_simple_types@U?$pair@$$CBKV?$vector@UtagPropertyBuff@@V?$allocator@UtagPropertyBuff@@@std@@@std@@@std@@@std@@@std@@QBEAAPAU?$_Tree_node@U?$pair@$$CBKV?$vector@UtagPropertyBuff@@V?$allocator@UtagPropertyBuff@@@std@@@std@@@std@@PAX@2@XZ 10016850 f i GamePropertyManager.obj
 0001:00015880       ?_Rrotate@?$_Tree_val@U?$_Tree_simple_types@U?$pair@$$CBKV?$vector@UtagPropertyBuff@@V?$allocator@UtagPropertyBuff@@@std@@@std@@@std@@@std@@@std@@QAEXPAU?$_Tree_node@U?$pair@$$CBKV?$vector@UtagPropertyBuff@@V?$allocator@UtagPropertyBuff@@@std@@@std@@@std@@PAX@2@@Z 10016880 f i GamePropertyManager.obj
 0001:00015950       ?_Tidy@?$_Tree@V?$_Tmap_traits@KV?$vector@UtagPropertyBuff@@V?$allocator@UtagPropertyBuff@@@std@@@std@@U?$less@K@2@V?$allocator@U?$pair@$$CBKV?$vector@UtagPropertyBuff@@V?$allocator@UtagPropertyBuff@@@std@@@std@@@std@@@2@$0A@@std@@@std@@IAEXXZ 10016950 f i GamePropertyManager.obj
 0001:00015a70       ?_Tidy@?$vector@UtagPropertyBuff@@V?$allocator@UtagPropertyBuff@@@std@@@std@@AAEXXZ 10016a70 f i GamePropertyManager.obj
 0001:00015b30       ?_Umove@?$vector@UtagPropertyBuff@@V?$allocator@UtagPropertyBuff@@@std@@@std@@AAEPAUtagPropertyBuff@@PAU3@00@Z 10016b30 f i GamePropertyManager.obj
 0001:00015b70       ?_Umove_if_noexcept1@?$vector@UtagPropertyBuff@@V?$allocator@UtagPropertyBuff@@@std@@@std@@AAEXPAUtagPropertyBuff@@00U?$integral_constant@_N$00@2@@Z 10016b70 f i GamePropertyManager.obj
 0001:00015bb0       ?_Umove_if_noexcept@?$vector@UtagPropertyBuff@@V?$allocator@UtagPropertyBuff@@@std@@@std@@AAEXPAUtagPropertyBuff@@00@Z 10016bb0 f i GamePropertyManager.obj
 0001:00015bf0       ?_Xlength@?$vector@UtagPropertyBuff@@V?$allocator@UtagPropertyBuff@@@std@@@std@@CAXXZ 10016bf0 f i GamePropertyManager.obj
 0001:00015c10       ?allocate@?$allocator@U?$_Tree_node@U?$pair@$$CBKV?$vector@UtagPropertyBuff@@V?$allocator@UtagPropertyBuff@@@std@@@std@@@std@@PAX@std@@@std@@QAEPAU?$_Tree_node@U?$pair@$$CBKV?$vector@UtagPropertyBuff@@V?$allocator@UtagPropertyBuff@@@std@@@std@@@std@@PAX@2@I@Z 10016c10 f i GamePropertyManager.obj
 0001:00015c50       ?allocate@?$allocator@U_Container_proxy@std@@@std@@QAEPAU_Container_proxy@2@I@Z 10016c50 f i GamePropertyManager.obj
 0001:00015c90       ?allocate@?$allocator@UtagPropertyBuff@@@std@@QAEPAUtagPropertyBuff@@I@Z 10016c90 f i GamePropertyManager.obj
 0001:00015cd0       ?begin@?$_Tree@V?$_Tmap_traits@KV?$vector@UtagPropertyBuff@@V?$allocator@UtagPropertyBuff@@@std@@@std@@U?$less@K@2@V?$allocator@U?$pair@$$CBKV?$vector@UtagPropertyBuff@@V?$allocator@UtagPropertyBuff@@@std@@@std@@@std@@@2@$0A@@std@@@std@@QAE?AV?$_Tree_iterator@V?$_Tree_val@U?$_Tree_simple_types@U?$pair@$$CBKV?$vector@UtagPropertyBuff@@V?$allocator@UtagPropertyBuff@@@std@@@std@@@std@@@std@@@std@@@2@XZ 10016cd0 f i GamePropertyManager.obj
 0001:00015d60       ?capacity@?$vector@UtagPropertyBuff@@V?$allocator@UtagPropertyBuff@@@std@@@std@@QBEIXZ 10016d60 f i GamePropertyManager.obj
 0001:00015da0       ?clear@?$_Tree@V?$_Tmap_traits@KV?$vector@UtagPropertyBuff@@V?$allocator@UtagPropertyBuff@@@std@@@std@@U?$less@K@2@V?$allocator@U?$pair@$$CBKV?$vector@UtagPropertyBuff@@V?$allocator@UtagPropertyBuff@@@std@@@std@@@std@@@2@$0A@@std@@@std@@QAEXXZ 10016da0 f i GamePropertyManager.obj
 0001:00015e70       ?clear@?$vector@UtagPropertyBuff@@V?$allocator@UtagPropertyBuff@@@std@@@std@@QAEXXZ 10016e70 f i GamePropertyManager.obj
 0001:00015f10       ?deallocate@?$_Default_allocator_traits@V?$allocator@U?$_Tree_node@U?$pair@$$CBKV?$vector@UtagPropertyBuff@@V?$allocator@UtagPropertyBuff@@@std@@@std@@@std@@PAX@std@@@std@@@std@@SAXAAV?$allocator@U?$_Tree_node@U?$pair@$$CBKV?$vector@UtagPropertyBuff@@V?$allocator@UtagPropertyBuff@@@std@@@std@@@std@@PAX@std@@@2@QAU?$_Tree_node@U?$pair@$$CBKV?$vector@UtagPropertyBuff@@V?$allocator@UtagPropertyBuff@@@std@@@std@@@std@@PAX@2@I@Z 10016f10 f i GamePropertyManager.obj
 0001:00015f40       ?deallocate@?$_Default_allocator_traits@V?$allocator@U_Container_proxy@std@@@std@@@std@@SAXAAV?$allocator@U_Container_proxy@std@@@2@QAU_Container_proxy@2@I@Z 10016f40 f i GamePropertyManager.obj
 0001:00015f70       ?deallocate@?$allocator@U?$_Tree_node@U?$pair@$$CBKV?$vector@UtagPropertyBuff@@V?$allocator@UtagPropertyBuff@@@std@@@std@@@std@@PAX@std@@@std@@QAEXQAU?$_Tree_node@U?$pair@$$CBKV?$vector@UtagPropertyBuff@@V?$allocator@UtagPropertyBuff@@@std@@@std@@@std@@PAX@2@I@Z 10016f70 f i GamePropertyManager.obj
 0001:00015fa0       ?deallocate@?$allocator@UtagPropertyBuff@@@std@@QAEXQAUtagPropertyBuff@@I@Z 10016fa0 f i GamePropertyManager.obj
 0001:00015fd0       ?empty@?$vector@UtagPropertyBuff@@V?$allocator@UtagPropertyBuff@@@std@@@std@@QBE_NXZ 10016fd0 f i GamePropertyManager.obj
 0001:00016020       ?end@?$_Tree@V?$_Tmap_traits@KV?$vector@UtagPropertyBuff@@V?$allocator@UtagPropertyBuff@@@std@@@std@@U?$less@K@2@V?$allocator@U?$pair@$$CBKV?$vector@UtagPropertyBuff@@V?$allocator@UtagPropertyBuff@@@std@@@std@@@std@@@2@$0A@@std@@@std@@QAE?AV?$_Tree_iterator@V?$_Tree_val@U?$_Tree_simple_types@U?$pair@$$CBKV?$vector@UtagPropertyBuff@@V?$allocator@UtagPropertyBuff@@@std@@@std@@@std@@@std@@@std@@@2@XZ 10017020 f i GamePropertyManager.obj
 0001:000160b0       ?erase@?$_Tree@V?$_Tmap_traits@KV?$vector@UtagPropertyBuff@@V?$allocator@UtagPropertyBuff@@@std@@@std@@U?$less@K@2@V?$allocator@U?$pair@$$CBKV?$vector@UtagPropertyBuff@@V?$allocator@UtagPropertyBuff@@@std@@@std@@@std@@@2@$0A@@std@@@std@@QAE?AV?$_Tree_iterator@V?$_Tree_val@U?$_Tree_simple_types@U?$pair@$$CBKV?$vector@UtagPropertyBuff@@V?$allocator@UtagPropertyBuff@@@std@@@std@@@std@@@std@@@std@@@2@V?$_Tree_const_iterator@V?$_Tree_val@U?$_Tree_simple_types@U?$pair@$$CBKV?$vector@UtagPropertyBuff@@V?$allocator@UtagPropertyBuff@@@std@@@std@@@std@@@std@@@std@@@2@0@Z 100170b0 f i GamePropertyManager.obj
 0001:00016360       ?erase@?$_Tree@V?$_Tmap_traits@KV?$vector@UtagPropertyBuff@@V?$allocator@UtagPropertyBuff@@@std@@@std@@U?$less@K@2@V?$allocator@U?$pair@$$CBKV?$vector@UtagPropertyBuff@@V?$allocator@UtagPropertyBuff@@@std@@@std@@@std@@@2@$0A@@std@@@std@@QAE?AV?$_Tree_iterator@V?$_Tree_val@U?$_Tree_simple_types@U?$pair@$$CBKV?$vector@UtagPropertyBuff@@V?$allocator@UtagPropertyBuff@@@std@@@std@@@std@@@std@@@std@@@2@V?$_Tree_const_iterator@V?$_Tree_val@U?$_Tree_simple_types@U?$pair@$$CBKV?$vector@UtagPropertyBuff@@V?$allocator@UtagPropertyBuff@@@std@@@std@@@std@@@std@@@std@@@2@@Z 10017360 f i GamePropertyManager.obj
 0001:00016550       ?lower_bound@?$_Tree@V?$_Tmap_traits@KV?$vector@UtagPropertyBuff@@V?$allocator@UtagPropertyBuff@@@std@@@std@@U?$less@K@2@V?$allocator@U?$pair@$$CBKV?$vector@UtagPropertyBuff@@V?$allocator@UtagPropertyBuff@@@std@@@std@@@std@@@2@$0A@@std@@@std@@QAE?AV?$_Tree_iterator@V?$_Tree_val@U?$_Tree_simple_types@U?$pair@$$CBKV?$vector@UtagPropertyBuff@@V?$allocator@UtagPropertyBuff@@@std@@@std@@@std@@@std@@@std@@@2@ABK@Z 10017550 f i GamePropertyManager.obj
 0001:000165c0       ?max@?$numeric_limits@H@std@@SAHXZ 100175c0 f i GamePropertyManager.obj
 0001:000165e0       ?max_size@?$_Default_allocator_traits@V?$allocator@U?$_Tree_node@U?$pair@$$CBKV?$vector@UtagPropertyBuff@@V?$allocator@UtagPropertyBuff@@@std@@@std@@@std@@PAX@std@@@std@@@std@@SAIABV?$allocator@U?$_Tree_node@U?$pair@$$CBKV?$vector@UtagPropertyBuff@@V?$allocator@UtagPropertyBuff@@@std@@@std@@@std@@PAX@std@@@2@@Z 100175e0 f i GamePropertyManager.obj
 0001:00016600       ?max_size@?$_Default_allocator_traits@V?$allocator@UtagPropertyBuff@@@std@@@std@@SAIABV?$allocator@UtagPropertyBuff@@@2@@Z 10017600 f i GamePropertyManager.obj
 0001:00016620       ?max_size@?$_Tree@V?$_Tmap_traits@KV?$vector@UtagPropertyBuff@@V?$allocator@UtagPropertyBuff@@@std@@@std@@U?$less@K@2@V?$allocator@U?$pair@$$CBKV?$vector@UtagPropertyBuff@@V?$allocator@UtagPropertyBuff@@@std@@@std@@@std@@@2@$0A@@std@@@std@@QBEIXZ 10017620 f i GamePropertyManager.obj
 0001:00016650       ?max_size@?$vector@UtagPropertyBuff@@V?$allocator@UtagPropertyBuff@@@std@@@std@@QBEIXZ 10017650 f i GamePropertyManager.obj
 0001:000166b0       ?pointer_to@?$pointer_traits@PAU?$pair@$$CBKV?$vector@UtagPropertyBuff@@V?$allocator@UtagPropertyBuff@@@std@@@std@@@std@@@std@@SAPAU?$pair@$$CBKV?$vector@UtagPropertyBuff@@V?$allocator@UtagPropertyBuff@@@std@@@std@@@2@AAU32@@Z 100176b0 f i GamePropertyManager.obj
 0001:000166e0       ?push_back@?$vector@UtagPropertyBuff@@V?$allocator@UtagPropertyBuff@@@std@@@std@@QAEXABUtagPropertyBuff@@@Z 100176e0 f i GamePropertyManager.obj
 0001:00016710       ?select_on_container_copy_construction@?$_Default_allocator_traits@V?$allocator@UtagPropertyBuff@@@std@@@std@@SA?AV?$allocator@UtagPropertyBuff@@@2@ABV32@@Z 10017710 f i GamePropertyManager.obj
 0001:00016730       ?size@?$_Tree@V?$_Tmap_traits@KV?$vector@UtagPropertyBuff@@V?$allocator@UtagPropertyBuff@@@std@@@std@@U?$less@K@2@V?$allocator@U?$pair@$$CBKV?$vector@UtagPropertyBuff@@V?$allocator@UtagPropertyBuff@@@std@@@std@@@std@@@2@$0A@@std@@@std@@QBEIXZ 10017730 f i GamePropertyManager.obj
 0001:00016760       ?size@?$vector@UtagPropertyBuff@@V?$allocator@UtagPropertyBuff@@@std@@@std@@QBEIXZ 10017760 f i GamePropertyManager.obj
 0001:000167d0       _ExtRawDllMain@12          100177d0 f   GameService.obj
 0001:00016850       ??B?$CTypedSimpleList@PAUCRuntimeClass@@@@QAEPAUCRuntimeClass@@XZ 10017850 f i GameService.obj
 0001:00016880       ??B?$CTypedSimpleList@PAVCOleObjectFactory@@@@QAEPAVCOleObjectFactory@@XZ 10017880 f i GameService.obj
 0001:000168b0       ?GetHead@CSimpleList@@QBEPAXXZ 100178b0 f i GameService.obj
 0001:000168d0       _DllMain@12                100178d0 f   GameService.obj
 0001:00016970       ??$CompareElements@HH@@YGHPBH0@Z 10017970 f i ServerUserManager.obj
 0001:00016a70       ??$DumpElements@H@@YGXAAVCDumpContext@@PBHH@Z 10017a70 f i ServerUserManager.obj
 0001:00016b20       ??$DumpElements@PAUtagGameDataItem@@@@YGXAAVCDumpContext@@PBQAUtagGameDataItem@@H@Z 10017b20 f i ServerUserManager.obj
 0001:00016bd0       ??$DumpElements@PAVCServerUserItem@@@@YGXAAVCDumpContext@@PBQAVCServerUserItem@@H@Z 10017bd0 f i ServerUserManager.obj
 0001:00016c80       ??$HashKey@H@@YGIH@Z       10017c80 f i ServerUserManager.obj
 0001:00016cf0       ??$SerializeElements@H@@YGXAAVCArchive@@PAHH@Z 10017cf0 f i ServerUserManager.obj
 0001:00016e90       ??$SerializeElements@PAUtagGameDataItem@@@@YGXAAVCArchive@@PAPAUtagGameDataItem@@H@Z 10017e90 f i ServerUserManager.obj
 0001:00017030       ??$SerializeElements@PAVCServerUserItem@@@@YGXAAVCArchive@@PAPAVCServerUserItem@@H@Z 10018030 f i ServerUserManager.obj
 0001:000171d0       ??$_snprintf_s@$0CA@@@YAHAAY0CA@DIPBDZZ 100181d0 f i ServerUserManager.obj
 0001:00017210       ??$_snprintf_s@$0EA@@@YAHAAY0EA@DIPBDZZ 10018210 f i ServerUserManager.obj
 0001:00017250       ??0?$CMap@HHPAUtagGameDataItem@@AAPAU1@@@QAE@H@Z 10018250 f i ServerUserManager.obj
 0001:00017340       ??0?$CMap@KKPAVCServerUserItem@@PAV1@@@QAE@H@Z 10018340 f i ServerUserManager.obj
 0001:00017430       ??0?$CTraceCategoryEx@$0CAAAA@$0A@@ATL@@QAE@PBD@Z 10018430 f i ServerUserManager.obj
 0001:00017470       ??0?$CWHArray@PAVCServerUserItem@@ABQAV1@@@QAE@XZ 10018470 f i ServerUserManager.obj
 0001:000174d0       ??0CAssoc@?$CMap@HHPAUtagGameDataItem@@AAPAU1@@@QAE@H@Z 100184d0 f i ServerUserManager.obj
 0001:00017500       ??0CAssoc@?$CMap@KKPAVCServerUserItem@@PAV1@@@QAE@K@Z 10018500 f i ServerUserManager.obj
 0001:00017530       ??0CPair@?$CMap@HHPAUtagGameDataItem@@AAPAU1@@@IAE@H@Z 10018530 f i ServerUserManager.obj
 0001:00017560       ??0CPair@?$CMap@KKPAVCServerUserItem@@PAV1@@@IAE@K@Z 10018560 f i ServerUserManager.obj
 0001:00017590       ??0CServerUserItem@@IAE@XZ 10018590 f   ServerUserManager.obj
 0001:00017980       ??0CServerUserManager@@QAE@XZ 10018980 f   ServerUserManager.obj
 0001:00017a60       ??0IServerUserItem@@QAE@XZ 10018a60 f i ServerUserManager.obj
 0001:00017a90       ??0IServerUserManager@@QAE@XZ 10018a90 f i ServerUserManager.obj
 0001:00017ac0       ??0IServerUserService@@QAE@XZ 10018ac0 f i ServerUserManager.obj
 0001:00017af0       ??1?$CMap@HHPAUtagGameDataItem@@AAPAU1@@@UAE@XZ 10018af0 f i ServerUserManager.obj
 0001:00017b80       ??1?$CMap@KKPAVCServerUserItem@@PAV1@@@UAE@XZ 10018b80 f i ServerUserManager.obj
 0001:00017c10       ??1?$CWHArray@PAVCServerUserItem@@ABQAV1@@@UAE@XZ 10018c10 f i ServerUserManager.obj
 0001:00017c90       ??1CServerUserItem@@MAE@XZ 10018c90 f   ServerUserManager.obj
 0001:00017df0       ??1CServerUserManager@@UAE@XZ 10018df0 f   ServerUserManager.obj
 0001:00017f50       ??A?$CMap@HHPAUtagGameDataItem@@AAPAU1@@@QAEAAPAUtagGameDataItem@@H@Z 10018f50 f i ServerUserManager.obj
 0001:00018080       ??A?$CMap@KKPAVCServerUserItem@@PAV1@@@QAEAAPAVCServerUserItem@@K@Z 10019080 f i ServerUserManager.obj
 0001:000181b0       ??A?$CWHArray@PAVCServerUserItem@@ABQAV1@@@QAEAAPAVCServerUserItem@@H@Z 100191b0 f i ServerUserManager.obj
 0001:000181e0       ??_ECServerUserItem@@MAEPAXI@Z 100191e0 f i ServerUserManager.obj
 0001:000182c0       ??_ECServerUserManager@@UAEPAXI@Z 100192c0 f i ServerUserManager.obj
 0001:000183a0       ??_E?$CMap@HHPAUtagGameDataItem@@AAPAU1@@@UAEPAXI@Z 100193a0 f i ServerUserManager.obj
 0001:000183a0       ??_G?$CMap@HHPAUtagGameDataItem@@AAPAU1@@@UAEPAXI@Z 100193a0 f i ServerUserManager.obj
 0001:00018400       ??_E?$CMap@KKPAVCServerUserItem@@PAV1@@@UAEPAXI@Z 10019400 f i ServerUserManager.obj
 0001:00018400       ??_G?$CMap@KKPAVCServerUserItem@@PAV1@@@UAEPAXI@Z 10019400 f i ServerUserManager.obj
 0001:00018460       ??_E?$CWHArray@PAVCServerUserItem@@ABQAV1@@@UAEPAXI@Z 10019460 f i ServerUserManager.obj
 0001:00018460       ??_G?$CWHArray@PAVCServerUserItem@@ABQAV1@@@UAEPAXI@Z 10019460 f i ServerUserManager.obj
 0001:000184b0       ??_GCServerUserItem@@MAEPAXI@Z 100194b0 f i ServerUserManager.obj
 0001:00018500       ??_GCServerUserManager@@UAEPAXI@Z 10019500 f i ServerUserManager.obj
 0001:00018550       ?Add@?$CWHArray@PAVCServerUserItem@@ABQAV1@@@QAEHABQAVCServerUserItem@@@Z 10019550 f i ServerUserManager.obj
 0001:00018590       ?AllocMemory@?$CWHArray@PAVCServerUserItem@@ABQAV1@@@QAEXH@Z 10019590 f i ServerUserManager.obj
 0001:00018700       ?Append@?$CWHArray@PAVCServerUserItem@@ABQAV1@@@QAEHABV1@@Z 10019700 f i ServerUserManager.obj
 0001:000187f0       ?AssertValid@?$CMap@HHPAUtagGameDataItem@@AAPAU1@@@UBEXXZ 100197f0 f i ServerUserManager.obj
 0001:00018870       ?AssertValid@?$CMap@KKPAVCServerUserItem@@PAV1@@@UBEXXZ 10019870 f i ServerUserManager.obj
 0001:000188f0       ?ContrastLogonPass@CServerUserItem@@UAE_NPBD@Z 100198f0 f   ServerUserManager.obj
 0001:000189b0       ?ContrastNickName@CServerUserItem@@UAE_NPBD@Z 100199b0 f   ServerUserManager.obj
 0001:00018a70       ?DeleteUserItem@CServerUserManager@@UAE_NPAUIServerUserItem@@@Z 10019a70 f   ServerUserManager.obj
 0001:00018be0       ?DeleteUserItem@CServerUserManager@@UAE_NXZ 10019be0 f   ServerUserManager.obj
 0001:00018c30       ?DetachBindStatus@CServerUserItem@@UAE_NXZ 10019c30 f   ServerUserManager.obj
 0001:00018cb0       ?DistillVariation@CServerUserItem@@UAE_NAAUtagVariationInfo@@@Z 10019cb0 f   ServerUserManager.obj
 0001:00018d70       ?Dump@?$CMap@HHPAUtagGameDataItem@@AAPAU1@@@UBEXAAVCDumpContext@@@Z 10019d70 f i ServerUserManager.obj
 0001:00018e80       ?Dump@?$CMap@KKPAVCServerUserItem@@PAV1@@@UBEXAAVCDumpContext@@@Z 10019e80 f i ServerUserManager.obj
 0001:00018f90       ?ElementAt@?$CWHArray@PAVCServerUserItem@@ABQAV1@@@QAEAAPAVCServerUserItem@@H@Z 10019f90 f i ServerUserManager.obj
 0001:00019010       ?EnumUserItem@CServerUserManager@@UAEPAUIServerUserItem@@G@Z 1001a010 f   ServerUserManager.obj
 0001:00019060       ?FreeAssoc@?$CMap@KKPAVCServerUserItem@@PAV1@@@IAEXPAVCAssoc@1@@Z 1001a060 f i ServerUserManager.obj
 0001:000190e0       ?FrozenedUserScore@CServerUserItem@@UAE_N_J@Z 1001a0e0 f   ServerUserManager.obj
 0001:00019310       ?GetAndroidCount@CServerUserManager@@UAEKXZ 1001a310 f   ServerUserManager.obj
 0001:000193b0       ?GetAssocAt@?$CMap@HHPAUtagGameDataItem@@AAPAU1@@@IBEPAVCAssoc@1@HAAI0@Z 1001a3b0 f i ServerUserManager.obj
 0001:00019460       ?GetAssocAt@?$CMap@KKPAVCServerUserItem@@PAV1@@@IBEPAVCAssoc@1@KAAI0@Z 1001a460 f i ServerUserManager.obj
 0001:00019510       ?GetBindIndex@CServerUserItem@@UAEGXZ 1001a510 f i ServerUserManager.obj
 0001:00019540       ?GetChairID@CServerUserItem@@UAEGXZ 1001a540 f i ServerUserManager.obj
 0001:00019570       ?GetClientAddr@CServerUserItem@@UAEKXZ 1001a570 f i ServerUserManager.obj
 0001:000195a0       ?GetCount@?$CWHArray@PAVCServerUserItem@@ABQAV1@@@QBEHXZ 1001a5a0 f i ServerUserManager.obj
 0001:000195c0       ?GetDBQuestID@CServerUserItem@@UAEKXZ 1001a5c0 f i ServerUserManager.obj
 0001:00019610       ?GetFormerScore@CServerUserItem@@UAEPAUtagUserScore@@XZ 1001a610 f i ServerUserManager.obj
 0001:00019640       ?GetFrozenedScore@CServerUserItem@@UAE_JXZ 1001a640 f i ServerUserManager.obj
 0001:00019670       ?GetGameID@CServerUserItem@@UAEKXZ 1001a670 f i ServerUserManager.obj
 0001:00019690       ?GetGameoverData@CServerUserItem@@UAEPAEXZ 1001a690 f i ServerUserManager.obj
 0001:000196c0       ?GetGender@CServerUserItem@@UAEEXZ 1001a6c0 f i ServerUserManager.obj
 0001:000196f0       ?GetInoutIndex@CServerUserItem@@UAEKXZ 1001a6f0 f i ServerUserManager.obj
 0001:00019720       ?GetLastTableID@CServerUserItem@@UAEGXZ 1001a720 f i ServerUserManager.obj
 0001:00019750       ?GetLogonTime@CServerUserItem@@UAEKXZ 1001a750 f i ServerUserManager.obj
 0001:00019780       ?GetMachineID@CServerUserItem@@UAEPBDXZ 1001a780 f i ServerUserManager.obj
 0001:000197b0       ?GetMasterOrder@CServerUserItem@@UAEEXZ 1001a7b0 f i ServerUserManager.obj
 0001:000197e0       ?GetMasterRight@CServerUserItem@@UAEKXZ 1001a7e0 f i ServerUserManager.obj
 0001:00019810       ?GetMatchData@CServerUserItem@@UAEPAXXZ 1001a810 f i ServerUserManager.obj
 0001:00019840       ?GetMemberOrder@CServerUserItem@@UAEEXZ 1001a840 f i ServerUserManager.obj
 0001:00019870       ?GetMobileUserDeskPos@CServerUserItem@@UAEGXZ 1001a870 f i ServerUserManager.obj
 0001:000198a0       ?GetMobileUserRule@CServerUserItem@@UAEGXZ 1001a8a0 f i ServerUserManager.obj
 0001:000198d0       ?GetNextAssoc@?$CMap@HHPAUtagGameDataItem@@AAPAU1@@@QBEXAAPAU__POSITION@@AAHAAPAUtagGameDataItem@@@Z 1001a8d0 f i ServerUserManager.obj
 0001:00019b20       ?GetNextAssoc@?$CMap@KKPAVCServerUserItem@@PAV1@@@QBEXAAPAU__POSITION@@AAKAAPAVCServerUserItem@@@Z 1001ab20 f i ServerUserManager.obj
 0001:00019d70       ?GetNickName@CServerUserItem@@UAEPBDXZ 1001ad70 f i ServerUserManager.obj
 0001:00019d90       ?GetSignUpTime@CServerUserItem@@UAEKXZ 1001ad90 f i ServerUserManager.obj
 0001:00019dc0       ?GetStartPosition@?$CMap@HHPAUtagGameDataItem@@AAPAU1@@@QBEPAU__POSITION@@XZ 1001adc0 f i ServerUserManager.obj
 0001:00019e00       ?GetStartPosition@?$CMap@KKPAVCServerUserItem@@PAV1@@@QBEPAU__POSITION@@XZ 1001ae00 f i ServerUserManager.obj
 0001:00019e40       ?GetTableID@CServerUserItem@@UAEGXZ 1001ae40 f i ServerUserManager.obj
 0001:00019e70       ?GetTimeInfo@CServerUserItem@@UAEPAUtagTimeInfo@@XZ 1001ae70 f i ServerUserManager.obj
 0001:00019ea0       ?GetTrusteeScore@CServerUserItem@@UAE_JXZ 1001aea0 f i ServerUserManager.obj
 0001:00019ed0       ?GetUserDrawRate@CServerUserItem@@UAEGXZ 1001aed0 f   ServerUserManager.obj
 0001:00019f30       ?GetUserFleeRate@CServerUserItem@@UAEGXZ 1001af30 f   ServerUserManager.obj
 0001:00019f90       ?GetUserGameData@CServerUserItem@@UAEPBDXZ 1001af90 f   ServerUserManager.obj
 0001:0001a0d0       ?GetUserGameData@CServerUserItem@@UAEXHPADH@Z 1001b0d0 f   ServerUserManager.obj
 0001:0001a160       ?GetUserGrade@CServerUserItem@@UAE_JXZ 1001b160 f i ServerUserManager.obj
 0001:0001a190       ?GetUserID@CServerUserItem@@UAEKXZ 1001b190 f i ServerUserManager.obj
 0001:0001a1b0       ?GetUserInfo@CServerUserItem@@UAEPAUtagUserInfo@@XZ 1001b1b0 f i ServerUserManager.obj
 0001:0001a1d0       ?GetUserInsure@CServerUserItem@@UAE_JXZ 1001b1d0 f i ServerUserManager.obj
 0001:0001a200       ?GetUserItemCount@CServerUserManager@@UAEKXZ 1001b200 f i ServerUserManager.obj
 0001:0001a230       ?GetUserLostRate@CServerUserItem@@UAEGXZ 1001b230 f   ServerUserManager.obj
 0001:0001a290       ?GetUserMatchStatus@CServerUserItem@@UAEEXZ 1001b290 f i ServerUserManager.obj
 0001:0001a2c0       ?GetUserPlayCount@CServerUserItem@@UAEKXZ 1001b2c0 f i ServerUserManager.obj
 0001:0001a310       ?GetUserProperty@CServerUserItem@@UAEPAUtagUserProperty@@XZ 1001b310 f i ServerUserManager.obj
 0001:0001a340       ?GetUserRight@CServerUserItem@@UAEKXZ 1001b340 f i ServerUserManager.obj
 0001:0001a370       ?GetUserRule@CServerUserItem@@UAEPAUtagUserRule@@XZ 1001b370 f i ServerUserManager.obj
 0001:0001a3a0       ?GetUserScore@CServerUserItem@@UAE_JXZ 1001b3a0 f i ServerUserManager.obj
 0001:0001a3d0       ?GetUserStatus@CServerUserItem@@UAEEXZ 1001b3d0 f i ServerUserManager.obj
 0001:0001a400       ?GetUserWinRate@CServerUserItem@@UAEGXZ 1001b400 f   ServerUserManager.obj
 0001:0001a460       ?GetVideoNumber@CServerUserItem@@UAEPADXZ 1001b460 f i ServerUserManager.obj
 0001:0001a490       ?InitHashTable@?$CMap@HHPAUtagGameDataItem@@AAPAU1@@@QAEXIH@Z 1001b490 f i ServerUserManager.obj
 0001:0001a610       ?InitHashTable@?$CMap@KKPAVCServerUserItem@@PAV1@@@QAEXIH@Z 1001b610 f i ServerUserManager.obj
 0001:0001a790       ?InitUserGameDataMap@CServerUserItem@@AAEXXZ 1001b790 f   ServerUserManager.obj
 0001:0001ab40       ?InsertUserItem@CServerUserManager@@UAE_NPAPAUIServerUserItem@@AAUtagUserInfo@@AAUtagUserInfoPlus@@@Z 1001bb40 f   ServerUserManager.obj
 0001:0001b080       ?IsAndroidUser@CServerUserItem@@UAE_NXZ 1001c080 f i ServerUserManager.obj
 0001:0001b0b0       ?IsClientReady@CServerUserItem@@UAE_NXZ 1001c0b0 f i ServerUserManager.obj
 0001:0001b0e0       ?IsMobileUser@CServerUserItem@@UAE_NXZ 1001c0e0 f i ServerUserManager.obj
 0001:0001b110       ?IsPureDigitString@CServerUserItem@@AAE_NV?$CStringT@DV?$StrTraitMFC_DLL@DV?$ChTraitsCRT@D@ATL@@@@@ATL@@@Z 1001c110 f   ServerUserManager.obj
 0001:0001b220       ?IsTrusteeUser@CServerUserItem@@UAE_NXZ 1001c220 f i ServerUserManager.obj
 0001:0001b250       ?IsValidGameData@CServerUserItem@@AAE_NV?$CStringT@DV?$StrTraitMFC_DLL@DV?$ChTraitsCRT@D@ATL@@@@@ATL@@0@Z 1001c250 f   ServerUserManager.obj
 0001:0001b550       ?IsVariation@CServerUserItem@@UAE_NXZ 1001c550 f i ServerUserManager.obj
 0001:0001b580       ?Lookup@?$CMap@HHPAUtagGameDataItem@@AAPAU1@@@QBEHHAAPAUtagGameDataItem@@@Z 1001c580 f i ServerUserManager.obj
 0001:0001b5f0       ?ModifyUserInsure@CServerUserItem@@UAE_N_J00@Z 1001c5f0 f   ServerUserManager.obj
 0001:0001ba00       ?ModifyUserProperty@CServerUserItem@@UAE_N_JJ@Z 1001ca00 f   ServerUserManager.obj
 0001:0001bca0       ?ModifyUserRight@CServerUserItem@@UAEXKKE@Z 1001cca0 f   ServerUserManager.obj
 0001:0001bd70       ?NewAssoc@?$CMap@HHPAUtagGameDataItem@@AAPAU1@@@IAEPAVCAssoc@1@H@Z 1001cd70 f i ServerUserManager.obj
 0001:0001bf30       ?NewAssoc@?$CMap@KKPAVCServerUserItem@@PAV1@@@IAEPAVCAssoc@1@K@Z 1001cf30 f i ServerUserManager.obj
 0001:0001c0f0       ?QueryInterface@CServerUserItem@@UAEPAXABU_GUID@@K@Z 1001d0f0 f   ServerUserManager.obj
 0001:0001c1f5       ?QueryInterface@CServerUserItem@@W3AEPAXABU_GUID@@K@Z 1001d1f5 f i ServerUserManager.obj
 0001:0001c200       ?QueryInterface@CServerUserManager@@UAEPAXABU_GUID@@K@Z 1001d200 f   ServerUserManager.obj
 0001:0001c2b0       ?QueryRecordInfo@CServerUserItem@@UAE_NAAUtagVariationInfo@@@Z 1001d2b0 f   ServerUserManager.obj
 0001:0001c320       ?Release@CServerUserItem@@UAEXXZ 1001d320 f i ServerUserManager.obj
 0001:0001c373       ?Release@CServerUserItem@@W3AEXXZ 1001d373 f i ServerUserManager.obj
 0001:0001c380       ?Release@CServerUserManager@@UAEXXZ 1001d380 f i ServerUserManager.obj
 0001:0001c3a0       ?RemoveAll@?$CMap@HHPAUtagGameDataItem@@AAPAU1@@@QAEXXZ 1001d3a0 f i ServerUserManager.obj
 0001:0001c490       ?RemoveAll@?$CMap@KKPAVCServerUserItem@@PAV1@@@QAEXXZ 1001d490 f i ServerUserManager.obj
 0001:0001c580       ?RemoveAll@?$CWHArray@PAVCServerUserItem@@ABQAV1@@@QAEXXZ 1001d580 f i ServerUserManager.obj
 0001:0001c600       ?RemoveAt@?$CWHArray@PAVCServerUserItem@@ABQAV1@@@QAEXHH@Z 1001d600 f i ServerUserManager.obj
 0001:0001c740       ?RemoveKey@?$CMap@KKPAVCServerUserItem@@PAV1@@@QAEHK@Z 1001d740 f i ServerUserManager.obj
 0001:0001c830       ?ResetUserItem@CServerUserItem@@AAEXXZ 1001d830 f   ServerUserManager.obj
 0001:0001cc50       ?SearchUserItem@CServerUserManager@@UAEPAUIServerUserItem@@K@Z 1001dc50 f   ServerUserManager.obj
 0001:0001cc80       ?SearchUserItem@CServerUserManager@@UAEPAUIServerUserItem@@PBD@Z 1001dc80 f   ServerUserManager.obj
 0001:0001cd20       ?Serialize@?$CMap@HHPAUtagGameDataItem@@AAPAU1@@@UAEXAAVCArchive@@@Z 1001dd20 f i ServerUserManager.obj
 0001:0001ced0       ?Serialize@?$CMap@KKPAVCServerUserItem@@PAV1@@@UAEXAAVCArchive@@@Z 1001ded0 f i ServerUserManager.obj
 0001:0001d080       ?SetAndroidUser@CServerUserItem@@UAEX_N@Z 1001e080 f i ServerUserManager.obj
 0001:0001d0b0       ?SetAt@?$CMap@HHPAUtagGameDataItem@@AAPAU1@@@QAEXHAAPAUtagGameDataItem@@@Z 1001e0b0 f i ServerUserManager.obj
 0001:0001d0f0       ?SetAt@?$CMap@KKPAVCServerUserItem@@PAV1@@@QAEXKPAVCServerUserItem@@@Z 1001e0f0 f i ServerUserManager.obj
 0001:0001d120       ?SetAtGrow@?$CWHArray@PAVCServerUserItem@@ABQAV1@@@QAEXHABQAVCServerUserItem@@@Z 1001e120 f i ServerUserManager.obj
 0001:0001d1b0       ?SetClientReady@CServerUserItem@@UAEX_N@Z 1001e1b0 f i ServerUserManager.obj
 0001:0001d1e0       ?SetGameoverData@CServerUserItem@@UAEXPAE@Z 1001e1e0 f   ServerUserManager.obj
 0001:0001d220       ?SetMatchData@CServerUserItem@@UAEXPAX@Z 1001e220 f i ServerUserManager.obj
 0001:0001d250       ?SetMatchUserItemSink@CServerUserManager@@UAE_NPAUIUnknownEx@@@Z 1001e250 f   ServerUserManager.obj
 0001:0001d340       ?SetMobileUser@CServerUserItem@@UAEX_N@Z 1001e340 f i ServerUserManager.obj
 0001:0001d370       ?SetMobileUserDeskPos@CServerUserItem@@UAEXG@Z 1001e370 f i ServerUserManager.obj
 0001:0001d3a0       ?SetMobileUserRule@CServerUserItem@@UAEXG@Z 1001e3a0 f i ServerUserManager.obj
 0001:0001d3d0       ?SetServerUserItemSink@CServerUserManager@@UAE_NPAUIUnknownEx@@@Z 1001e3d0 f   ServerUserManager.obj
 0001:0001d4c0       ?SetSignUpTime@CServerUserItem@@UAEXK@Z 1001e4c0 f i ServerUserManager.obj
 0001:0001d4f0       ?SetSize@?$CWHArray@PAVCServerUserItem@@ABQAV1@@@QAEXH@Z 1001e4f0 f i ServerUserManager.obj
 0001:0001d610       ?SetTrusteeUser@CServerUserItem@@UAEX_N@Z 1001e610 f i ServerUserManager.obj
 0001:0001d640       ?SetUserGameData@CServerUserItem@@UAEXHPBDH@Z 1001e640 f   ServerUserManager.obj
 0001:0001d7d0       ?SetUserGameData@CServerUserItem@@UAEXPBDH@Z 1001e7d0 f   ServerUserManager.obj
 0001:0001d900       ?SetUserMatchStatus@CServerUserItem@@UAEXE@Z 1001e900 f   ServerUserManager.obj
 0001:0001d940       ?SetUserParameter@CServerUserItem@@UAE_NKGQAD_N1@Z 1001e940 f   ServerUserManager.obj
 0001:0001da00       ?SetUserStatus@CServerUserItem@@UAE_NEGG@Z 1001ea00 f   ServerUserManager.obj
 0001:0001db10       ?SetUserTaskReward@CServerUserItem@@UAE_N_J0@Z 1001eb10 f   ServerUserManager.obj
 0001:0001db70       ?SetVideoNumber@CServerUserItem@@UAEXPAD@Z 1001eb70 f   ServerUserManager.obj
 0001:0001dbb0       ?SplitString@CServerUserItem@@AAEXV?$CStringT@DV?$StrTraitMFC_DLL@DV?$ChTraitsCRT@D@ATL@@@@@ATL@@0AAVCStringArray@@@Z 1001ebb0 f   ServerUserManager.obj
 0001:0001dcc0       ?UnFrozenedUserScore@CServerUserItem@@UAE_N_J@Z 1001ecc0 f   ServerUserManager.obj
 0001:0001df40       ?WriteUserGameData@CServerUserItem@@UAEXXZ 1001ef40 f   ServerUserManager.obj
 0001:0001dfc0       ?WriteUserScore@CServerUserItem@@UAE_N_J000EKK@Z 1001efc0 f   ServerUserManager.obj
 0001:0001e680       __vsnprintf_s              1001f680 f i ServerUserManager.obj
 0001:0001e6c0       __vsnprintf_s_l            1001f6c0 f i ServerUserManager.obj
 0001:0001e730       ?_AfxInitManaged@@YAHXZ    1001f730 f i Stdafx.obj
 0001:0001e750       ??$AtlAdd@H@ATL@@YAJPAHHH@Z 1001f750 f i Stdafx.obj
 0001:0001e7a0       ??$AtlAdd@I@ATL@@YAJPAIII@Z 1001f7a0 f i Stdafx.obj
 0001:0001e7f0       ??$AtlAdd@K@ATL@@YAJPAKKK@Z 1001f7f0 f i Stdafx.obj
 0001:0001e840       ??$AtlAlignUp@H@ATL@@YGHHK@Z 1001f840 f i Stdafx.obj
 0001:0001e870       ??$AtlMultiply@I@ATL@@YAJPAIII@Z 1001f870 f i Stdafx.obj
 0001:0001e8d0       ??$AtlMultiply@K@ATL@@YAJPAKKK@Z 1001f8d0 f i Stdafx.obj
 0001:0001e930       ??0?$CHeapPtr@DVCCRTAllocator@ATL@@@ATL@@QAE@XZ 1001f930 f i Stdafx.obj
 0001:0001e960       ??0?$CHeapPtr@_WVCCRTAllocator@ATL@@@ATL@@QAE@XZ 1001f960 f i Stdafx.obj
 0001:0001e990       ??0?$CHeapPtrBase@DVCCRTAllocator@ATL@@@ATL@@IAE@XZ 1001f990 f i Stdafx.obj
 0001:0001e9c0       ??0?$CHeapPtrBase@_WVCCRTAllocator@ATL@@@ATL@@IAE@XZ 1001f9c0 f i Stdafx.obj
 0001:0001e9f0       ??0?$CSimpleArray@GV?$CSimpleArrayEqualHelper@G@ATL@@@ATL@@QAE@XZ 1001f9f0 f i Stdafx.obj
 0001:0001ea30       ??0?$CTraceCategoryEx@$00$0A@@ATL@@QAE@PBD@Z 1001fa30 f i Stdafx.obj
 0001:0001ea60       ??0?$CTraceCategoryEx@$01$0A@@ATL@@QAE@PBD@Z 1001fa60 f i Stdafx.obj
 0001:0001ea90       ??0?$CTraceCategoryEx@$03$0A@@ATL@@QAE@PBD@Z 1001fa90 f i Stdafx.obj
 0001:0001eac0       ??0?$CTraceCategoryEx@$07$0A@@ATL@@QAE@PBD@Z 1001fac0 f i Stdafx.obj
 0001:0001eaf0       ??0?$CTraceCategoryEx@$0BA@$0A@@ATL@@QAE@PBD@Z 1001faf0 f i Stdafx.obj
 0001:0001eb20       ??0?$CTraceCategoryEx@$0BAA@$0A@@ATL@@QAE@PBD@Z 1001fb20 f i Stdafx.obj
 0001:0001eb60       ??0?$CTraceCategoryEx@$0BAAA@$0A@@ATL@@QAE@PBD@Z 1001fb60 f i Stdafx.obj
 0001:0001eba0       ??0?$CTraceCategoryEx@$0BAAAA@$0A@@ATL@@QAE@PBD@Z 1001fba0 f i Stdafx.obj
 0001:0001ebe0       ??0?$CTraceCategoryEx@$0BAAAAA@$0A@@ATL@@QAE@PBD@Z 1001fbe0 f i Stdafx.obj
 0001:0001ec20       ??0?$CTraceCategoryEx@$0CA@$0A@@ATL@@QAE@PBD@Z 1001fc20 f i Stdafx.obj
 0001:0001ec50       ??0?$CTraceCategoryEx@$0CAA@$0A@@ATL@@QAE@PBD@Z 1001fc50 f i Stdafx.obj
 0001:0001ec90       ??0?$CTraceCategoryEx@$0CAAAAA@$0A@@ATL@@QAE@PBD@Z 1001fc90 f i Stdafx.obj
 0001:0001ecd0       ??0?$CTraceCategoryEx@$0EA@$0A@@ATL@@QAE@PBD@Z 1001fcd0 f i Stdafx.obj
 0001:0001ed00       ??0?$CTraceCategoryEx@$0EAA@$0A@@ATL@@QAE@PBD@Z 1001fd00 f i Stdafx.obj
 0001:0001ed40       ??0?$CTraceCategoryEx@$0EAAA@$0A@@ATL@@QAE@PBD@Z 1001fd40 f i Stdafx.obj
 0001:0001ed80       ??0?$CTraceCategoryEx@$0EAAAA@$0A@@ATL@@QAE@PBD@Z 1001fd80 f i Stdafx.obj
 0001:0001edc0       ??0?$CTraceCategoryEx@$0EAAAAA@$0A@@ATL@@QAE@PBD@Z 1001fdc0 f i Stdafx.obj
 0001:0001ee00       ??0?$CTraceCategoryEx@$0IA@$0A@@ATL@@QAE@PBD@Z 1001fe00 f i Stdafx.obj
 0001:0001ee40       ??0?$CTraceCategoryEx@$0IAA@$0A@@ATL@@QAE@PBD@Z 1001fe40 f i Stdafx.obj
 0001:0001ee80       ??0?$CTraceCategoryEx@$0IAAA@$0A@@ATL@@QAE@PBD@Z 1001fe80 f i Stdafx.obj
 0001:0001eec0       ??0?$CTraceCategoryEx@$0IAAAA@$0A@@ATL@@QAE@PBD@Z 1001fec0 f i Stdafx.obj
 0001:0001ef00       ??0CAtlComModule@ATL@@QAE@XZ 1001ff00 f i Stdafx.obj
 0001:0001eff0       ??0CAtlStringMgr@ATL@@QAE@PAUIAtlMemMgr@1@@Z 1001fff0 f i Stdafx.obj
 0001:0001f050       ??0CAtlStringMgrStaticInitializer@ATLImplementationDetails@ATL@@QAE@XZ 10020050 f i Stdafx.obj
 0001:0001f080       ??0CAtlWinModule@ATL@@QAE@XZ 10020080 f i Stdafx.obj
 0001:0001f120       ??0CComCriticalSection@ATL@@QAE@XZ 10020120 f i Stdafx.obj
 0001:0001f150       ??0CNilStringData@ATL@@QAE@XZ 10020150 f i Stdafx.obj
 0001:0001f1d0       ??0CPreserveLastError@ATL@@QAE@XZ 100201d0 f i Stdafx.obj
 0001:0001f200       ??0CTraceFileAndLineInfo@ATL@@QAE@PBDH@Z 10020200 f i Stdafx.obj
 0001:0001f240       ??0CWin32Heap@ATL@@QAE@PAX@Z 10020240 f i Stdafx.obj
 0001:0001f2c0       ??0_ATL_COM_MODULE70@ATL@@QAE@XZ 100202c0 f i Stdafx.obj
 0001:0001f2f0       ??0_ATL_WIN_MODULE70@ATL@@QAE@XZ 100202f0 f i Stdafx.obj
 0001:0001f370       ??1?$CHeapPtr@DVCCRTAllocator@ATL@@@ATL@@QAE@XZ 10020370 f i Stdafx.obj
 0001:0001f3a0       ??1?$CHeapPtr@_WVCCRTAllocator@ATL@@@ATL@@QAE@XZ 100203a0 f i Stdafx.obj
 0001:0001f3d0       ??1?$CHeapPtrBase@DVCCRTAllocator@ATL@@@ATL@@QAE@XZ 100203d0 f i Stdafx.obj
 0001:0001f400       ??1?$CHeapPtrBase@_WVCCRTAllocator@ATL@@@ATL@@QAE@XZ 10020400 f i Stdafx.obj
 0001:0001f430       ??1?$CSimpleArray@GV?$CSimpleArrayEqualHelper@G@ATL@@@ATL@@QAE@XZ 10020430 f i Stdafx.obj
 0001:0001f490       ??1CAtlComModule@ATL@@QAE@XZ 10020490 f i Stdafx.obj
 0001:0001f4f0       ??1CAtlStringMgr@ATL@@UAE@XZ 100204f0 f i Stdafx.obj
 0001:0001f510       ??1CAtlWinModule@ATL@@QAE@XZ 10020510 f i Stdafx.obj
 0001:0001f570       ??1CComCriticalSection@ATL@@QAE@XZ 10020570 f i Stdafx.obj
 0001:0001f590       ??1CPreserveLastError@ATL@@QAE@XZ 10020590 f i Stdafx.obj
 0001:0001f5c0       ??1CWin32Heap@ATL@@UAE@XZ  100205c0 f i Stdafx.obj
 0001:0001f650       ??1_ATL_COM_MODULE70@ATL@@QAE@XZ 10020650 f i Stdafx.obj
 0001:0001f680       ??1_ATL_WIN_MODULE70@ATL@@QAE@XZ 10020680 f i Stdafx.obj
 0001:0001f6c0       ??A?$CSimpleArray@GV?$CSimpleArrayEqualHelper@G@ATL@@@ATL@@QAEAAGH@Z 100206c0 f i Stdafx.obj
 0001:0001f760       ??B?$CHeapPtrBase@DVCCRTAllocator@ATL@@@ATL@@QBEPADXZ 10020760 f i Stdafx.obj
 0001:0001f780       ??B?$CHeapPtrBase@_WVCCRTAllocator@ATL@@@ATL@@QBEPA_WXZ 10020780 f i Stdafx.obj
 0001:0001f7a0       ??B?$CTraceCategoryEx@$01$0A@@ATL@@QAEIXZ 100207a0 f i Stdafx.obj
 0001:0001f7c0       ??B?$CTraceCategoryEx@$0CA@$0A@@ATL@@QAEIXZ 100207c0 f i Stdafx.obj
 0001:0001f7e0       ??RCTraceFileAndLineInfo@ATL@@QBAXHIPBDZZ 100207e0 f i Stdafx.obj
 0001:0001f890       ??_GCAtlStringMgr@ATL@@UAEPAXI@Z 10020890 f i Stdafx.obj
 0001:0001f890       ??_ECAtlStringMgr@ATL@@UAEPAXI@Z 10020890 f i Stdafx.obj
 0001:0001f8e0       ??_GCWin32Heap@ATL@@UAEPAXI@Z 100208e0 f i Stdafx.obj
 0001:0001f8e0       ??_ECWin32Heap@ATL@@UAEPAXI@Z 100208e0 f i Stdafx.obj
 0001:0001f930       ?AddRef@CStringData@ATL@@QAEXXZ 10020930 f i Stdafx.obj
 0001:0001f990       ?Allocate@?$CHeapPtr@DVCCRTAllocator@ATL@@@ATL@@QAE_NI@Z 10020990 f i Stdafx.obj
 0001:0001f9f0       ?Allocate@?$CHeapPtr@_WVCCRTAllocator@ATL@@@ATL@@QAE_NI@Z 100209f0 f i Stdafx.obj
 0001:0001fa50       ?Allocate@CAtlStringMgr@ATL@@UAEPAUCStringData@2@HH@Z 10020a50 f i Stdafx.obj
 0001:0001fc20       ?Allocate@CCRTAllocator@ATL@@SAPAXI@Z 10020c20 f i Stdafx.obj
 0001:0001fc50       ?Allocate@CWin32Heap@ATL@@UAEPAXI@Z 10020c50 f i Stdafx.obj
 0001:0001fc90       ?AllocateBytes@?$CHeapPtrBase@DVCCRTAllocator@ATL@@@ATL@@QAE_NI@Z 10020c90 f i Stdafx.obj
 0001:0001fd10       ?AllocateBytes@?$CHeapPtrBase@_WVCCRTAllocator@ATL@@@ATL@@QAE_NI@Z 10020d10 f i Stdafx.obj
 0001:0001fd90       ?AtlWinModuleInit@ATL@@YGJPAU_ATL_WIN_MODULE70@1@@Z 10020d90 f i Stdafx.obj
 0001:0001fe80       ?AtlWinModuleTerm@ATL@@YGJPAU_ATL_WIN_MODULE70@1@PAUHINSTANCE__@@@Z 10020e80 f i Stdafx.obj
 0001:0001ff50       ?Clone@CAtlStringMgr@ATL@@UAEPAUIAtlStringMgr@2@XZ 10020f50 f i Stdafx.obj
 0001:0001ff70       ?Free@?$CHeapPtrBase@DVCCRTAllocator@ATL@@@ATL@@QAEXXZ 10020f70 f i Stdafx.obj
 0001:0001ffb0       ?Free@?$CHeapPtrBase@_WVCCRTAllocator@ATL@@@ATL@@QAEXXZ 10020fb0 f i Stdafx.obj
 0001:0001fff0       ?Free@CAtlStringMgr@ATL@@UAEXPAUCStringData@2@@Z 10020ff0 f i Stdafx.obj
 0001:000200a0       ?Free@CCRTAllocator@ATL@@SAXPAX@Z 100210a0 f i Stdafx.obj
 0001:000200d0       ?Free@CWin32Heap@ATL@@UAEXPAX@Z 100210d0 f i Stdafx.obj
 0001:00020150       ?GetCategoryName@CTrace@ATL@@CAPA_WI@Z 10021150 f i Stdafx.obj
 0001:000201c0       ?GetInstance@CAtlStringMgr@ATL@@SAPAUIAtlStringMgr@2@XZ 100211c0 f i Stdafx.obj
 0001:000202c0       ?GetModuleInstance@CAtlBaseModule@ATL@@QAEPAUHINSTANCE__@@XZ 100212c0 f i Stdafx.obj
 0001:000202e0       ?GetNilString@CAtlStringMgr@ATL@@UAEPAUCStringData@2@XZ 100212e0 f i Stdafx.obj
 0001:00020310       ?GetSize@?$CSimpleArray@GV?$CSimpleArrayEqualHelper@G@ATL@@@ATL@@QBEHXZ 10021310 f i Stdafx.obj
 0001:00020330       ?GetSize@CWin32Heap@ATL@@UAEIPAX@Z 10021330 f i Stdafx.obj
 0001:00020370       ?Init@CComCriticalSection@ATL@@QAEJXZ 10021370 f i Stdafx.obj
 0001:000203d0       ?Reallocate@CAtlStringMgr@ATL@@UAEPAUCStringData@2@PAU32@HH@Z 100213d0 f i Stdafx.obj
 0001:000205c0       ?Reallocate@CWin32Heap@ATL@@UAEPAXPAXI@Z 100215c0 f i Stdafx.obj
 0001:00020640       ?RemoveAll@?$CSimpleArray@GV?$CSimpleArrayEqualHelper@G@ATL@@@ATL@@QAEXXZ 10021640 f i Stdafx.obj
 0001:000206c0       ?SetManager@CNilStringData@ATL@@QAEXPAUIAtlStringMgr@2@@Z 100216c0 f i Stdafx.obj
 0001:00020720       ?Term@CAtlComModule@ATL@@QAEXXZ 10021720 f i Stdafx.obj
 0001:000207e0       ?Term@CAtlWinModule@ATL@@QAEXXZ 100217e0 f i Stdafx.obj
 0001:00020810       ?Term@CComCriticalSection@ATL@@QAEJXZ 10021810 f i Stdafx.obj
 0001:00020840       ?TraceV@CTrace@ATL@@CAXPBDHIIPB_W@Z 10021840 f i Stdafx.obj
 0001:00020ad0       ?TraceV@CTrace@ATL@@SAXPBDHII0PAD@Z 10021ad0 f i Stdafx.obj
 0001:00020d00       ?_AtlInitializeCriticalSectionEx@ATL@@YAHPAU_RTL_CRITICAL_SECTION@@KK@Z 10021d00 f i Stdafx.obj
 0001:00020d30       ?_AtlRaiseException@ATL@@YAXKK@Z 10021d30 f i Stdafx.obj
 0001:00020d60       _HRESULT_FROM_WIN32        10021d60 f i Stdafx.obj
 0001:00020db0       __vscprintf                10021db0 f i Stdafx.obj
 0001:00020de0       __vscprintf_l              10021de0 f i Stdafx.obj
 0001:00020e50       ??$CompareElements@GG@@YGHPBG0@Z 10021e50 f i UserTaskManager.obj
 0001:00020f50       ??$DumpElements@G@@YGXAAVCDumpContext@@PBGH@Z 10021f50 f i UserTaskManager.obj
 0001:00021000       ??$DumpElements@PAUtagTaskParameter@@@@YGXAAVCDumpContext@@PBQAUtagTaskParameter@@H@Z 10022000 f i UserTaskManager.obj
 0001:000210b0       ??$DumpElements@PAUtagUserTaskEntry@@@@YGXAAVCDumpContext@@PBQAUtagUserTaskEntry@@H@Z 100220b0 f i UserTaskManager.obj
 0001:00021160       ??$HashKey@G@@YGIG@Z       10022160 f i UserTaskManager.obj
 0001:000211d0       ??$SerializeElements@G@@YGXAAVCArchive@@PAGH@Z 100221d0 f i UserTaskManager.obj
 0001:00021370       ??$SerializeElements@PAUtagTaskParameter@@@@YGXAAVCArchive@@PAPAUtagTaskParameter@@H@Z 10022370 f i UserTaskManager.obj
 0001:00021510       ??$SerializeElements@PAUtagUserTaskEntry@@@@YGXAAVCArchive@@PAPAUtagUserTaskEntry@@H@Z 10022510 f i UserTaskManager.obj
 0001:000216b0       ??0?$CMap@GGPAUtagTaskParameter@@PAU1@@@QAE@H@Z 100226b0 f i UserTaskManager.obj
 0001:000217a0       ??0?$CMap@KKPAUtagUserTaskEntry@@PAU1@@@QAE@H@Z 100227a0 f i UserTaskManager.obj
 0001:00021890       ??0?$CWHArray@PAUtagTaskParameter@@ABQAU1@@@QAE@XZ 10022890 f i UserTaskManager.obj
 0001:000218f0       ??0?$CWHArray@PAUtagUserTaskEntry@@ABQAU1@@@QAE@XZ 100228f0 f i UserTaskManager.obj
 0001:00021950       ??0CAssoc@?$CMap@GGPAUtagTaskParameter@@PAU1@@@QAE@G@Z 10022950 f i UserTaskManager.obj
 0001:00021980       ??0CAssoc@?$CMap@KKPAUtagUserTaskEntry@@PAU1@@@QAE@K@Z 10022980 f i UserTaskManager.obj
 0001:000219b0       ??0CPair@?$CMap@GGPAUtagTaskParameter@@PAU1@@@IAE@G@Z 100229b0 f i UserTaskManager.obj
 0001:000219e0       ??0CPair@?$CMap@KKPAUtagUserTaskEntry@@PAU1@@@IAE@K@Z 100229e0 f i UserTaskManager.obj
 0001:00021a10       ??0CUserTaskManager@@QAE@XZ 10022a10 f   UserTaskManager.obj
 0001:00021af0       ??0IUserTaskManagerSink@@QAE@XZ 10022af0 f i UserTaskManager.obj
 0001:00021b20       ??1?$CMap@GGPAUtagTaskParameter@@PAU1@@@UAE@XZ 10022b20 f i UserTaskManager.obj
 0001:00021bb0       ??1?$CMap@KKPAUtagUserTaskEntry@@PAU1@@@UAE@XZ 10022bb0 f i UserTaskManager.obj
 0001:00021c40       ??1?$CWHArray@PAUtagTaskParameter@@ABQAU1@@@UAE@XZ 10022c40 f i UserTaskManager.obj
 0001:00021cc0       ??1?$CWHArray@PAUtagUserTaskEntry@@ABQAU1@@@UAE@XZ 10022cc0 f i UserTaskManager.obj
 0001:00021d40       ??1CUserTaskManager@@UAE@XZ 10022d40 f   UserTaskManager.obj
 0001:00022150       ??A?$CMap@GGPAUtagTaskParameter@@PAU1@@@QAEAAPAUtagTaskParameter@@G@Z 10023150 f i UserTaskManager.obj
 0001:00022280       ??A?$CMap@KKPAUtagUserTaskEntry@@PAU1@@@QAEAAPAUtagUserTaskEntry@@K@Z 10023280 f i UserTaskManager.obj
 0001:000223b0       ??A?$CWHArray@PAUtagTaskParameter@@ABQAU1@@@QAEAAPAUtagTaskParameter@@H@Z 100233b0 f i UserTaskManager.obj
 0001:000223e0       ??A?$CWHArray@PAUtagUserTaskEntry@@ABQAU1@@@QAEAAPAUtagUserTaskEntry@@H@Z 100233e0 f i UserTaskManager.obj
 0001:00022410       ??_ECUserTaskManager@@UAEPAXI@Z 10023410 f i UserTaskManager.obj
 0001:000224f0       ??_E?$CMap@GGPAUtagTaskParameter@@PAU1@@@UAEPAXI@Z 100234f0 f i UserTaskManager.obj
 0001:000224f0       ??_G?$CMap@GGPAUtagTaskParameter@@PAU1@@@UAEPAXI@Z 100234f0 f i UserTaskManager.obj
 0001:00022550       ??_G?$CMap@KKPAUtagUserTaskEntry@@PAU1@@@UAEPAXI@Z 10023550 f i UserTaskManager.obj
 0001:00022550       ??_E?$CMap@KKPAUtagUserTaskEntry@@PAU1@@@UAEPAXI@Z 10023550 f i UserTaskManager.obj
 0001:000225b0       ??_E?$CWHArray@PAUtagTaskParameter@@ABQAU1@@@UAEPAXI@Z 100235b0 f i UserTaskManager.obj
 0001:000225b0       ??_G?$CWHArray@PAUtagTaskParameter@@ABQAU1@@@UAEPAXI@Z 100235b0 f i UserTaskManager.obj
 0001:00022600       ??_G?$CWHArray@PAUtagUserTaskEntry@@ABQAU1@@@UAEPAXI@Z 10023600 f i UserTaskManager.obj
 0001:00022600       ??_E?$CWHArray@PAUtagUserTaskEntry@@ABQAU1@@@UAEPAXI@Z 10023600 f i UserTaskManager.obj
 0001:00022650       ??_GCUserTaskManager@@UAEPAXI@Z 10023650 f i UserTaskManager.obj
 0001:000226a0       ?Add@?$CWHArray@PAUtagTaskParameter@@ABQAU1@@@QAEHABQAUtagTaskParameter@@@Z 100236a0 f i UserTaskManager.obj
 0001:000226e0       ?Add@?$CWHArray@PAUtagUserTaskEntry@@ABQAU1@@@QAEHABQAUtagUserTaskEntry@@@Z 100236e0 f i UserTaskManager.obj
 0001:00022720       ?AddTaskParameter@CUserTaskManager@@UAE_NQAUtagTaskParameter@@G@Z 10023720 f   UserTaskManager.obj
 0001:00022960       ?AllocMemory@?$CWHArray@PAUtagTaskParameter@@ABQAU1@@@QAEXH@Z 10023960 f i UserTaskManager.obj
 0001:00022ad0       ?AllocMemory@?$CWHArray@PAUtagUserTaskEntry@@ABQAU1@@@QAEXH@Z 10023ad0 f i UserTaskManager.obj
 0001:00022c40       ?AssertValid@?$CMap@GGPAUtagTaskParameter@@PAU1@@@UBEXXZ 10023c40 f i UserTaskManager.obj
 0001:00022cc0       ?AssertValid@?$CMap@KKPAUtagUserTaskEntry@@PAU1@@@UBEXXZ 10023cc0 f i UserTaskManager.obj
 0001:00022d40       ?CreateUserTaskEntry@CUserTaskManager@@IAEPAUtagUserTaskEntry@@XZ 10023d40 f   UserTaskManager.obj
 0001:00022f00       ?Dump@?$CMap@GGPAUtagTaskParameter@@PAU1@@@UBEXAAVCDumpContext@@@Z 10023f00 f i UserTaskManager.obj
 0001:00023010       ?Dump@?$CMap@KKPAUtagUserTaskEntry@@PAU1@@@UBEXAAVCDumpContext@@@Z 10024010 f i UserTaskManager.obj
 0001:00023120       ?ElementAt@?$CWHArray@PAUtagTaskParameter@@ABQAU1@@@QAEAAPAUtagTaskParameter@@H@Z 10024120 f i UserTaskManager.obj
 0001:000231a0       ?ElementAt@?$CWHArray@PAUtagUserTaskEntry@@ABQAU1@@@QAEAAPAUtagUserTaskEntry@@H@Z 100241a0 f i UserTaskManager.obj
 0001:00023220       ?EnumTaskParameter@CUserTaskManager@@UAEPAUtagTaskParameter@@AAPAU__POSITION@@@Z 10024220 f   UserTaskManager.obj
 0001:000232a0       ?FreeAssoc@?$CMap@KKPAUtagUserTaskEntry@@PAU1@@@IAEXPAVCAssoc@1@@Z 100242a0 f i UserTaskManager.obj
 0001:00023320       ?GetAssocAt@?$CMap@GGPAUtagTaskParameter@@PAU1@@@IBEPAVCAssoc@1@GAAI0@Z 10024320 f i UserTaskManager.obj
 0001:000233d0       ?GetAssocAt@?$CMap@KKPAUtagUserTaskEntry@@PAU1@@@IBEPAVCAssoc@1@KAAI0@Z 100243d0 f i UserTaskManager.obj
 0001:00023480       ?GetCount@?$CMap@GGPAUtagTaskParameter@@PAU1@@@QBEHXZ 10024480 f i UserTaskManager.obj
 0001:000234a0       ?GetCount@?$CWHArray@PAUtagTaskParameter@@ABQAU1@@@QBEHXZ 100244a0 f i UserTaskManager.obj
 0001:000234c0       ?GetCount@?$CWHArray@PAUtagUserTaskEntry@@ABQAU1@@@QBEHXZ 100244c0 f i UserTaskManager.obj
 0001:000234e0       ?GetNextAssoc@?$CMap@GGPAUtagTaskParameter@@PAU1@@@QBEXAAPAU__POSITION@@AAGAAPAUtagTaskParameter@@@Z 100244e0 f i UserTaskManager.obj
 0001:00023730       ?GetNextAssoc@?$CMap@KKPAUtagUserTaskEntry@@PAU1@@@QBEXAAPAU__POSITION@@AAKAAPAUtagUserTaskEntry@@@Z 10024730 f i UserTaskManager.obj
 0001:00023980       ?GetStartPosition@?$CMap@GGPAUtagTaskParameter@@PAU1@@@QBEPAU__POSITION@@XZ 10024980 f i UserTaskManager.obj
 0001:000239c0       ?GetStartPosition@?$CMap@KKPAUtagUserTaskEntry@@PAU1@@@QBEPAU__POSITION@@XZ 100249c0 f i UserTaskManager.obj
 0001:00023a00       ?GetTaskParameterCount@CUserTaskManager@@UAEGXZ 10024a00 f   UserTaskManager.obj
 0001:00023a30       ?GetUserTaskEntry@CUserTaskManager@@UAEPAUtagUserTaskEntry@@K@Z 10024a30 f   UserTaskManager.obj
 0001:00023a70       ?GetUserTaskEntry@CUserTaskManager@@UAEPAUtagUserTaskEntry@@KE@Z 10024a70 f   UserTaskManager.obj
 0001:00023b30       ?InitHashTable@?$CMap@GGPAUtagTaskParameter@@PAU1@@@QAEXIH@Z 10024b30 f i UserTaskManager.obj
 0001:00023cb0       ?InitHashTable@?$CMap@KKPAUtagUserTaskEntry@@PAU1@@@QAEXIH@Z 10024cb0 f i UserTaskManager.obj
 0001:00023e30       ?Lookup@?$CMap@GGPAUtagTaskParameter@@PAU1@@@QBEHGAAPAUtagTaskParameter@@@Z 10024e30 f i UserTaskManager.obj
 0001:00023ea0       ?Lookup@?$CMap@KKPAUtagUserTaskEntry@@PAU1@@@QBEHKAAPAUtagUserTaskEntry@@@Z 10024ea0 f i UserTaskManager.obj
 0001:00023f10       ?NewAssoc@?$CMap@GGPAUtagTaskParameter@@PAU1@@@IAEPAVCAssoc@1@G@Z 10024f10 f i UserTaskManager.obj
 0001:000240d0       ?NewAssoc@?$CMap@KKPAUtagUserTaskEntry@@PAU1@@@IAEPAVCAssoc@1@K@Z 100250d0 f i UserTaskManager.obj
 0001:00024290       ?QueryInterface@CUserTaskManager@@UAEPAXABU_GUID@@K@Z 10025290 f   UserTaskManager.obj
 0001:00024340       ?Release@CUserTaskManager@@UAEXXZ 10025340 f i UserTaskManager.obj
 0001:00024360       ?RemoveAll@?$CMap@GGPAUtagTaskParameter@@PAU1@@@QAEXXZ 10025360 f i UserTaskManager.obj
 0001:00024450       ?RemoveAll@?$CMap@KKPAUtagUserTaskEntry@@PAU1@@@QAEXXZ 10025450 f i UserTaskManager.obj
 0001:00024540       ?RemoveAll@?$CWHArray@PAUtagTaskParameter@@ABQAU1@@@QAEXXZ 10025540 f i UserTaskManager.obj
 0001:000245c0       ?RemoveAll@?$CWHArray@PAUtagUserTaskEntry@@ABQAU1@@@QAEXXZ 100255c0 f i UserTaskManager.obj
 0001:00024640       ?RemoveAt@?$CWHArray@PAUtagTaskParameter@@ABQAU1@@@QAEXHH@Z 10025640 f i UserTaskManager.obj
 0001:00024780       ?RemoveAt@?$CWHArray@PAUtagUserTaskEntry@@ABQAU1@@@QAEXHH@Z 10025780 f i UserTaskManager.obj
 0001:000248c0       ?RemoveKey@?$CMap@KKPAUtagUserTaskEntry@@PAU1@@@QAEHK@Z 100258c0 f i UserTaskManager.obj
 0001:000249b0       ?RemoveTaskParameter@CUserTaskManager@@UAEXXZ 100259b0 f   UserTaskManager.obj
 0001:00024a40       ?RemoveUserTask@CUserTaskManager@@UAEXK@Z 10025a40 f   UserTaskManager.obj
 0001:00024ac0       ?ResetTaskManager@CUserTaskManager@@QAEXXZ 10025ac0 f   UserTaskManager.obj
 0001:00024b70       ?SearchTaskParameter@CUserTaskManager@@UAEPAUtagTaskParameter@@G@Z 10025b70 f   UserTaskManager.obj
 0001:00024bb0       ?Serialize@?$CMap@GGPAUtagTaskParameter@@PAU1@@@UAEXAAVCArchive@@@Z 10025bb0 f i UserTaskManager.obj
 0001:00024d60       ?Serialize@?$CMap@KKPAUtagUserTaskEntry@@PAU1@@@UAEXAAVCArchive@@@Z 10025d60 f i UserTaskManager.obj
 0001:00024f10       ?SetAt@?$CMap@GGPAUtagTaskParameter@@PAU1@@@QAEXGPAUtagTaskParameter@@@Z 10025f10 f i UserTaskManager.obj
 0001:00024f40       ?SetAt@?$CMap@KKPAUtagUserTaskEntry@@PAU1@@@QAEXKPAUtagUserTaskEntry@@@Z 10025f40 f i UserTaskManager.obj
 0001:00024f70       ?SetAtGrow@?$CWHArray@PAUtagTaskParameter@@ABQAU1@@@QAEXHABQAUtagTaskParameter@@@Z 10025f70 f i UserTaskManager.obj
 0001:00025000       ?SetAtGrow@?$CWHArray@PAUtagUserTaskEntry@@ABQAU1@@@QAEXHABQAUtagUserTaskEntry@@@Z 10026000 f i UserTaskManager.obj
 0001:00025090       ?SetSize@?$CWHArray@PAUtagTaskParameter@@ABQAU1@@@QAEXH@Z 10026090 f i UserTaskManager.obj
 0001:000251b0       ?SetSize@?$CWHArray@PAUtagUserTaskEntry@@ABQAU1@@@QAEXH@Z 100261b0 f i UserTaskManager.obj
 0001:000252d0       ?SetUserTaskInfo@CUserTaskManager@@UAEXKQAUtagUserTaskInfo@@G@Z 100262d0 f   UserTaskManager.obj
 0001:000254a9       ?TraceString@CTraceService@@SA_NPBDW4enTraceLevel@@@Z 100264a9 f   KernelEngine:KernelEngine.dll
 0001:000254af       ??2@YAPAXI@Z               100264af f   mfc140d:mfc140d.dll
 0001:000254b5       ??_U@YAPAXI@Z              100264b5 f   mfc140d:mfc140d.dll
 0001:000254bb       ??_V@YAXPAX@Z              100264bb f   mfc140d:mfc140d.dll
 0001:000254c1       ?AfxThrowInvalidArgException@@YGXXZ 100264c1 f   mfc140d:mfc140d.dll
 0001:000254c7       ??B?$CSimpleStringT@D$00@ATL@@QBEPBDXZ 100264c7 f   mfc140d:mfc140d.dll
 0001:000254cd       ??0?$CStringT@DV?$StrTraitMFC_DLL@DV?$ChTraitsCRT@D@ATL@@@@@ATL@@QAE@XZ 100264cd f   mfc140d:mfc140d.dll
 0001:000254d3       ??1?$CStringT@DV?$StrTraitMFC_DLL@DV?$ChTraitsCRT@D@ATL@@@@@ATL@@QAE@XZ 100264d3 f   mfc140d:mfc140d.dll
 0001:000254d9       ?Format@?$CStringT@DV?$StrTraitMFC_DLL@DV?$ChTraitsCRT@D@ATL@@@@@ATL@@QAAXPBDZZ 100264d9 f   mfc140d:mfc140d.dll
 0001:000254df       ??3@YAXPAX@Z               100264df f   mfc140d:mfc140d.dll
 0001:000254e5       ?AfxAssertValidObject@@YGXPBVCObject@@PBDH@Z 100264e5 f   mfc140d:mfc140d.dll
 0001:000254eb       ?GetRuntimeClass@CObject@@UBEPAUCRuntimeClass@@XZ 100264eb f   mfc140d:mfc140d.dll
 0001:000254f1       ??1CObject@@UAE@XZ         100264f1 f   mfc140d:mfc140d.dll
 0001:000254f7       ??3CObject@@SGXPAX@Z       100264f7 f   mfc140d:mfc140d.dll
 0001:000254fd       ??0CObject@@IAE@XZ         100264fd f   mfc140d:mfc140d.dll
 0001:00025503       ?Serialize@CObject@@UAEXAAVCArchive@@@Z 10026503 f   mfc140d:mfc140d.dll
 0001:00025509       ?AssertValid@CObject@@UBEXXZ 10026509 f   mfc140d:mfc140d.dll
 0001:0002550f       ?Dump@CObject@@UBEXAAVCDumpContext@@@Z 1002650f f   mfc140d:mfc140d.dll
 0001:00025515       ?AfxIsValidAddress@@YGHPBXIH@Z 10026515 f   mfc140d:mfc140d.dll
 0001:0002551b       ??_U@YAPAXIPBDH@Z          1002651b f   mfc140d:mfc140d.dll
 0001:00025521       ?IsStoring@CArchive@@QBEHXZ 10026521 f   mfc140d:mfc140d.dll
 0001:00025527       ?EnsureRead@CArchive@@QAEXPAXI@Z 10026527 f   mfc140d:mfc140d.dll
 0001:0002552d       ?Write@CArchive@@QAEXPBXI@Z 1002652d f   mfc140d:mfc140d.dll
 0001:00025533       ?ReadCount@CArchive@@QAEKXZ 10026533 f   mfc140d:mfc140d.dll
 0001:00025539       ?WriteCount@CArchive@@QAEXK@Z 10026539 f   mfc140d:mfc140d.dll
 0001:0002553f       ?GetDepth@CDumpContext@@QBEHXZ 1002653f f   mfc140d:mfc140d.dll
 0001:00025545       ??6CDumpContext@@QAEAAV0@PBD@Z 10026545 f   mfc140d:mfc140d.dll
 0001:0002554b       ??6CDumpContext@@QAEAAV0@H@Z 1002654b f   mfc140d:mfc140d.dll
 0001:00025551       ?Create@CPlex@@SGPAU1@AAPAU1@II@Z 10026551 f   mfc140d:mfc140d.dll
 0001:00025557       ?FreeDataChain@CPlex@@QAEXXZ 10026557 f   mfc140d:mfc140d.dll
 0001:0002555d       ??2CObject@@SGPAXI@Z       1002655d f   mfc140d:mfc140d.dll
 0001:00025563       ?AfxGetModuleState@@YGPAVAFX_MODULE_STATE@@XZ 10026563 f   mfc140d:mfc140d.dll
 0001:00025569       ??0CDynLinkLibrary@@QAE@AAUAFX_EXTENSION_MODULE@@H@Z 10026569 f   mfc140d:mfc140d.dll
 0001:0002556f       ?AfxInitExtensionModule@@YGHAAUAFX_EXTENSION_MODULE@@PAUHINSTANCE__@@@Z 1002656f f   mfc140d:mfc140d.dll
 0001:00025575       ?AfxTermExtensionModule@@YGXAAUAFX_EXTENSION_MODULE@@H@Z 10026575 f   mfc140d:mfc140d.dll
 0001:0002557b       ??A?$CSimpleStringT@D$00@ATL@@QBEDH@Z 1002657b f   mfc140d:mfc140d.dll
 0001:00025581       ?GetLength@?$CSimpleStringT@D$00@ATL@@QBEHXZ 10026581 f   mfc140d:mfc140d.dll
 0001:00025587       ?IsEmpty@?$CSimpleStringT@D$00@ATL@@QBE_NXZ 10026587 f   mfc140d:mfc140d.dll
 0001:0002558d       ??0?$CStringT@DV?$StrTraitMFC_DLL@DV?$ChTraitsCRT@D@ATL@@@@@ATL@@QAE@ABV01@@Z 1002658d f   mfc140d:mfc140d.dll
 0001:00025593       ??0?$CStringT@DV?$StrTraitMFC_DLL@DV?$ChTraitsCRT@D@ATL@@@@@ATL@@QAE@PBD@Z 10026593 f   mfc140d:mfc140d.dll
 0001:00025599       ?Tokenize@?$CStringT@DV?$StrTraitMFC_DLL@DV?$ChTraitsCRT@D@ATL@@@@@ATL@@QBE?AV12@PBDAAH@Z 10026599 f   mfc140d:mfc140d.dll
 0001:0002559f       ?AppendFormat@?$CStringT@DV?$StrTraitMFC_DLL@DV?$ChTraitsCRT@D@ATL@@@@@ATL@@QAAXPBDZZ 1002659f f   mfc140d:mfc140d.dll
 0001:000255a5       ??0CStringArray@@QAE@XZ    100265a5 f   mfc140d:mfc140d.dll
 0001:000255ab       ?GetCount@CStringArray@@QBEHXZ 100265ab f   mfc140d:mfc140d.dll
 0001:000255b1       ?RemoveAll@CStringArray@@QAEXXZ 100265b1 f   mfc140d:mfc140d.dll
 0001:000255b7       ?GetAt@CStringArray@@QBEABV?$CStringT@DV?$StrTraitMFC_DLL@DV?$ChTraitsCRT@D@ATL@@@@@ATL@@H@Z 100265b7 f   mfc140d:mfc140d.dll
 0001:000255bd       ?Add@CStringArray@@QAEHABV?$CStringT@DV?$StrTraitMFC_DLL@DV?$ChTraitsCRT@D@ATL@@@@@ATL@@@Z 100265bd f   mfc140d:mfc140d.dll
 0001:000255c3       ??1CStringArray@@UAE@XZ    100265c3 f   mfc140d:mfc140d.dll
 0001:000255d0       ??1CComBSTR@ATL@@QAE@XZ    100265d0 f i mfcs140d:nolib.obj
 0001:00025610       ??1stringdispid@CComTypeInfoHolder@ATL@@QAE@XZ 10026610 f i mfcs140d:nolib.obj
 0001:00025640       ??_Estringdispid@CComTypeInfoHolder@ATL@@QAEPAXI@Z 10026640 f i mfcs140d:nolib.obj
 0001:00025720       _IsolationAwareActivateActCtx@8 10026720 f i mfcs140d:nolib.obj
 0001:000257e0       _IsolationAwareCreateActCtxW@4 100267e0 f i mfcs140d:nolib.obj
 0001:000258a0       _IsolationAwareDeactivateActCtx@8 100268a0 f i mfcs140d:nolib.obj
 0001:00025960       _IsolationAwareFindActCtxSectionStringW@20 10026960 f i mfcs140d:nolib.obj
 0001:00025a30       _IsolationAwarePrivatenPgViNgRzlnPgpgk@4 10026a30 f i mfcs140d:nolib.obj
 0001:00025b50       _IsolationAwarePrivatezltRgCebPnQQeRff@12 10026b50 f i mfcs140d:nolib.obj
 0001:00025c20       _IsolationAwarePrivatezltRgzbQhYRuNaQYRJ@4 10026c20 f i mfcs140d:nolib.obj
 0001:00025c50       _IsolationAwarePrivatezltRgzbQhYRuNaQYRn@4 10026c50 f i mfcs140d:nolib.obj
 0001:00025c80       _IsolationAwareQueryActCtxW@28 10026c80 f i mfcs140d:nolib.obj
 0001:00025d60       _IsolationAwareUnregisterClassA@8 10026d60 f i mfcs140d:nolib.obj
 0001:00025f70       _WinbaseIsolationAwarePrivatetRgCebPnQQeRff_xReaRYQP_QYY@4 10026f70 f i mfcs140d:nolib.obj
 0001:00025fa0       _WinbaseIsolationAwarePrivatetRgzlnPgpgk@0 10026fa0 f i mfcs140d:nolib.obj
 0001:000263f0       ??_M@YGXPAXIHP6EX0@Z@Z     100273f0 f   msvcrtd:ehvecdtr.obj
 0001:00026420       ??_M@YGXPAXIIP6EX0@Z@Z     10027420 f   msvcrtd:ehvecdtr.obj
 0001:00026560       ?__ArrayUnwind@@YGXPAXIIP6EX0@Z@Z 10027560 f   msvcrtd:ehvecdtr.obj
 0001:00026640       ??3@YAXPAXI@Z              10027640 f   msvcrtd:delete_scalar_size.obj
 0001:00026660       ??_V@YAXPAXI@Z             10027660 f   msvcrtd:delete_array_size.obj
 0001:00026680       ??$__crt_fast_decode_pointer@PAP6AXXZ@@YAPAP6AXXZQAP6AXXZ@Z 10027680 f i msvcrtd:utility.obj
 0001:000266b0       ??$__crt_fast_encode_pointer@PAP6AXXZ@@YAPAP6AXXZQAP6AXXZ@Z 100276b0 f i msvcrtd:utility.obj
 0001:000266f0       ?__crt_rotate_pointer_value@@YAIIH@Z 100276f0 f i msvcrtd:utility.obj
 0001:00026700       ?configure_argv@__scrt_narrow_argv_policy@@SAHXZ 10027700 f i msvcrtd:utility.obj
 0001:000267d0       ?initialize_environment@__scrt_narrow_environment_policy@@SAHXZ 100277d0 f i msvcrtd:utility.obj
 0001:00026870       _NtCurrentTeb              10027870 f i msvcrtd:utility.obj
 0001:00026880       ___scrt_acquire_startup_lock 10027880 f   msvcrtd:utility.obj
 0001:000268e0       ___scrt_dllmain_after_initialize_c 100278e0 f   msvcrtd:utility.obj
 0001:00026920       ___scrt_dllmain_before_initialize_c 10027920 f   msvcrtd:utility.obj
 0001:00026950       ___scrt_dllmain_crt_thread_attach 10027950 f   msvcrtd:utility.obj
 0001:00026990       ___scrt_dllmain_crt_thread_detach 10027990 f   msvcrtd:utility.obj
 0001:000269b0       ___scrt_dllmain_exception_filter 100279b0 f   msvcrtd:utility.obj
 0001:00026a10       ___scrt_dllmain_uninitialize_c 10027a10 f   msvcrtd:utility.obj
 0001:00026a50       ___scrt_dllmain_uninitialize_critical 10027a50 f   msvcrtd:utility.obj
 0001:00026a70       ___scrt_initialize_crt     10027a70 f   msvcrtd:utility.obj
 0001:00026ad0       ___scrt_initialize_onexit_tables 10027ad0 f   msvcrtd:utility.obj
 0001:00026bf0       ___scrt_is_nonwritable_in_current_image 10027bf0 f   msvcrtd:utility.obj
 0001:00026d70       ___scrt_release_startup_lock 10027d70 f   msvcrtd:utility.obj
 0001:00026da0       ___scrt_uninitialize_crt   10027da0 f   msvcrtd:utility.obj
 0001:00026df0       __onexit                   10027df0 f   msvcrtd:utility.obj
 0001:00026e80       _at_quick_exit             10027e80 f   msvcrtd:utility.obj
 0001:00026ee0       _atexit                    10027ee0 f   msvcrtd:utility.obj
 0001:00026f20       @__security_check_cookie@4 10027f20 f   msvcrtd:secchk.obj
 0001:00026f40       ??1type_info@@UAE@XZ       10027f40 f   msvcrtd:std_type_info_static.obj
 0001:00026f60       ??_Etype_info@@UAEPAXI@Z   10027f60 f i msvcrtd:std_type_info_static.obj
 0001:00026f60       ??_Gtype_info@@UAEPAXI@Z   10027f60 f i msvcrtd:std_type_info_static.obj
 0001:00026fe0       ??$__crt_fast_decode_pointer@P6GHPAU_RTL_CONDITION_VARIABLE@@PAU_RTL_CRITICAL_SECTION@@K@Z@@YAP6GHPAU_RTL_CONDITION_VARIABLE@@PAU_RTL_CRITICAL_SECTION@@K@ZQ6GH01K@Z@Z 10027fe0 f i msvcrtd:thread_safe_statics.obj
 0001:00027010       ??$__crt_fast_decode_pointer@P6GXPAU_RTL_CONDITION_VARIABLE@@@Z@@YAP6GXPAU_RTL_CONDITION_VARIABLE@@@ZQ6GX0@Z@Z 10028010 f i msvcrtd:thread_safe_statics.obj
 0001:00027040       ??$__crt_fast_encode_pointer@P6GHPAU_RTL_CONDITION_VARIABLE@@PAU_RTL_CRITICAL_SECTION@@K@Z@@YAP6GHPAU_RTL_CONDITION_VARIABLE@@PAU_RTL_CRITICAL_SECTION@@K@ZQ6GH01K@Z@Z 10028040 f i msvcrtd:thread_safe_statics.obj
 0001:00027080       ??$__crt_fast_encode_pointer@P6GXPAU_RTL_CONDITION_VARIABLE@@@Z@@YAP6GXPAU_RTL_CONDITION_VARIABLE@@@ZQ6GX0@Z@Z 10028080 f i msvcrtd:thread_safe_statics.obj
 0001:00027230       ?__scrt_is_event_api_used@@YA_NQAX@Z 10028230 f i msvcrtd:thread_safe_statics.obj
 0001:000272e0       __Init_thread_abort        100282e0 f   msvcrtd:thread_safe_statics.obj
 0001:00027310       __Init_thread_footer       10028310 f   msvcrtd:thread_safe_statics.obj
 0001:00027370       __Init_thread_header       10028370 f   msvcrtd:thread_safe_statics.obj
 0001:00027400       __Init_thread_lock         10028400 f   msvcrtd:thread_safe_statics.obj
 0001:00027420       __Init_thread_notify       10028420 f   msvcrtd:thread_safe_statics.obj
 0001:000274a0       __Init_thread_unlock       100284a0 f   msvcrtd:thread_safe_statics.obj
 0001:000274c0       __Init_thread_wait         100284c0 f   msvcrtd:thread_safe_statics.obj
 0001:00027b40       __CRT_INIT@12              10028b40 f   msvcrtd:dll_dllmain.obj
 0001:00027b60       __DllMainCRTStartup@12     10028b60 f   msvcrtd:dll_dllmain.obj
 0001:00027b90       @_RTC_AllocaHelper@12      10028b90 f   msvcrtd:stack.obj
 0001:00027bd0       @_RTC_CheckStackVars2@12   10028bd0 f   msvcrtd:stack.obj
 0001:00027cf0       @_RTC_CheckStackVars@8     10028cf0 f   msvcrtd:stack.obj
 0001:00027d70       __RTC_CheckEsp             10028d70 f   msvcrtd:stack.obj
 0001:00027db0       __CRT_RTC_INIT             10028db0 f   msvcrtd:init.obj
 0001:00027dc0       __CRT_RTC_INITW            10028dc0 f   msvcrtd:init.obj
 0001:00027dd0       __RTC_InitBase             10028dd0 f   msvcrtd:init.obj
 0001:00027e10       __RTC_Shutdown             10028e10 f   msvcrtd:init.obj
 0001:00027e30       __except_handler4          10028e30 f   msvcrtd:chandler4gs.obj
 0001:00027e60       @_guard_check_icall_nop@4  10028e60 f i msvcrtd:guard_support.obj
 0001:00027e70       _ReadNoFence               10028e70 f i msvcrtd:guard_support.obj
 0001:00027e90       _ReadPointerNoFence        10028e90 f i msvcrtd:guard_support.obj
 0001:00027eb0       __guard_icall_checks_enforced 10028eb0 f i msvcrtd:guard_support.obj
 0001:00027ef0       ___isa_available_init      10028ef0 f   msvcrtd:cpu_disp.obj
 0001:00028280       __get_startup_argv_mode    10029280 f   msvcrtd:argv_mode.obj
 0001:00028290       ___scrt_is_ucrt_dll_in_use 10029290 f   msvcrtd:ucrt_detection.obj
 0001:000282c0       ___scrt_fastfail           100292c0 f   msvcrtd:utility_desktop.obj
 0001:00028450       ___scrt_get_show_window_mode 10029450 f   msvcrtd:utility_desktop.obj
 0001:000284a0       ___scrt_initialize_mta     100294a0 f   msvcrtd:utility_desktop.obj
 0001:000284b0       ___scrt_initialize_winrt   100294b0 f   msvcrtd:utility_desktop.obj
 0001:000284c0       ___scrt_is_managed_app     100294c0 f   msvcrtd:utility_desktop.obj
 0001:00028570       ___scrt_set_unhandled_exception_filter 10029570 f   msvcrtd:utility_desktop.obj
 0001:00028590       ___scrt_exe_initialize_mta 10029590 f   msvcrtd:utility_desktop.obj
 0001:00028590       ___scrt_stub_for_initialize_mta 10029590 f   msvcrtd:utility_desktop.obj
 0001:000285a0       ___scrt_unhandled_exception_filter@4 100295a0 f   msvcrtd:utility_desktop.obj
 0001:00028620       __crt_debugger_hook        10029620 f   msvcrtd:utility_desktop.obj
 0001:00028640       ___raise_securityfailure   10029640 f   msvcrtd:gs_report.obj
 0001:00028680       ___report_gsfailure        10029680 f   msvcrtd:gs_report.obj
 0001:000287d0       ___report_rangecheckfailure 100297d0 f   msvcrtd:gs_report.obj
 0001:000287e0       ___report_securityfailure  100297e0 f   msvcrtd:gs_report.obj
 0001:000288f0       ___report_securityfailureEx 100298f0 f   msvcrtd:gs_report.obj
 0001:00028af0       ___security_init_cookie    10029af0 f   msvcrtd:gs_support.obj
 0001:00028b90       ?__scrt_initialize_type_info@@YAXXZ 10029b90 f   msvcrtd:tncleanup.obj
 0001:00028bb0       ?__scrt_uninitialize_type_info@@YAXXZ 10029bb0 f   msvcrtd:tncleanup.obj
 0001:00028bd0       ___local_stdio_scanf_options 10029bd0 f i msvcrtd:default_local_stdio_options.obj
 0001:00028be0       ___scrt_initialize_default_local_stdio_options 10029be0 f   msvcrtd:default_local_stdio_options.obj
 0001:00028c30       ___scrt_get_dyn_tls_init_callback 10029c30 f   msvcrtd:dyn_tls_init.obj
 0001:00028c40       __RTC_Initialize           10029c40 f   msvcrtd:initsect.obj
 0001:00028c80       __RTC_Terminate            10029c80 f   msvcrtd:initsect.obj
 0001:00028d70       ?_RTC_AllocaFailure@@YAXPAXPAU_RTC_ALLOCA_NODE@@H@Z 10029d70 f   msvcrtd:error.obj
 0001:00028e90       ?_RTC_Failure@@YAXPAXH@Z   10029e90 f   msvcrtd:error.obj
 0001:00028f00       ?_RTC_StackFailure@@YAXPAXPBD@Z 10029f00 f   msvcrtd:error.obj
 0001:000293b0       __RTC_UninitUse            1002a3b0 f   msvcrtd:error.obj
 0001:00029490       __vsprintf_s_l             1002a490 f i msvcrtd:error.obj
 0001:000294d0       _sprintf_s                 1002a4d0 f i msvcrtd:error.obj
 0001:00029500       ?_RTC_GetErrorFunc@@YAP6AHHPBDH00ZZPBX@Z 1002a500 f   msvcrtd:userapi.obj
 0001:00029510       ?_RTC_GetErrorFuncW@@YAP6AHHPB_WH00ZZPBX@Z 1002a510 f   msvcrtd:userapi.obj
 0001:00029520       __RTC_GetErrDesc           1002a520 f   msvcrtd:userapi.obj
 0001:00029540       __RTC_NumErrors            1002a540 f   msvcrtd:userapi.obj
 0001:00029550       __RTC_SetErrorFunc         1002a550 f   msvcrtd:userapi.obj
 0001:00029580       __RTC_SetErrorFuncW        1002a580 f   msvcrtd:userapi.obj
 0001:000295b0       __RTC_SetErrorType         1002a5b0 f   msvcrtd:userapi.obj
 0001:00029b70       ?_RTC_GetSrcLine@@YAHPAEPA_WKPAH1K@Z 1002ab70 f   msvcrtd:pdblkup.obj
 0001:00029fe0       __except_handler4_noexcept 1002afe0 f   msvcrtd:chandler4_noexcept.obj
 0001:0002a038       _lstrcpynA@12              1002b038 f   kernel32:KERNEL32.dll
 0001:0002a03e       _lstrlenA@4                1002b03e f   kernel32:KERNEL32.dll
 0001:0002a044       _GetLocalTime@4            1002b044 f   kernel32:KERNEL32.dll
 0001:0002a04a       _CompareStringA@24         1002b04a f   kernel32:KERNEL32.dll
 0001:0002a050       _DecodePointer@4           1002b050 f   kernel32:KERNEL32.dll
 0001:0002a056       _RaiseException@16         1002b056 f   kernel32:KERNEL32.dll
 0001:0002a05c       _GetLastError@0            1002b05c f   kernel32:KERNEL32.dll
 0001:0002a062       _SetLastError@4            1002b062 f   kernel32:KERNEL32.dll
 0001:0002a068       _HeapDestroy@4             1002b068 f   kernel32:KERNEL32.dll
 0001:0002a06e       _HeapAlloc@12              1002b06e f   kernel32:KERNEL32.dll
 0001:0002a074       _HeapReAlloc@16            1002b074 f   kernel32:KERNEL32.dll
 0001:0002a07a       _HeapFree@12               1002b07a f   kernel32:KERNEL32.dll
 0001:0002a080       _HeapSize@12               1002b080 f   kernel32:KERNEL32.dll
 0001:0002a086       _GetProcessHeap@0          1002b086 f   kernel32:KERNEL32.dll
 0001:0002a08c       _InitializeCriticalSectionAndSpinCount@8 1002b08c f   kernel32:KERNEL32.dll
 0001:0002a092       _DeleteCriticalSection@4   1002b092 f   kernel32:KERNEL32.dll
 0001:0002a098       _MultiByteToWideChar@24    1002b098 f   kernel32:KERNEL32.dll
 0001:0002a09e       _OutputDebugStringA@4      1002b09e f   kernel32:KERNEL32.dll
 0001:0002a0a4       _GetModuleFileNameW@12     1002b0a4 f   kernel32:KERNEL32.dll
 0001:0002a0aa       _GetModuleHandleA@4        1002b0aa f   kernel32:KERNEL32.dll
 0001:0002a0b0       _GetModuleHandleW@4        1002b0b0 f   kernel32:KERNEL32.dll
 0001:0002a0b6       _GetProcAddress@8          1002b0b6 f   kernel32:KERNEL32.dll
 0001:0002a0bc       _LoadLibraryW@4            1002b0bc f   kernel32:KERNEL32.dll
 0001:0002a0c2       _CloseHandle@4             1002b0c2 f   kernel32:KERNEL32.dll
 0001:0002a0c8       _EnterCriticalSection@4    1002b0c8 f   kernel32:KERNEL32.dll
 0001:0002a0ce       _LeaveCriticalSection@4    1002b0ce f   kernel32:KERNEL32.dll
 0001:0002a0d4       _SetEvent@4                1002b0d4 f   kernel32:KERNEL32.dll
 0001:0002a0da       _ResetEvent@4              1002b0da f   kernel32:KERNEL32.dll
 0001:0002a0e0       _WaitForSingleObjectEx@12  1002b0e0 f   kernel32:KERNEL32.dll
 0001:0002a0e6       _CreateEventW@16           1002b0e6 f   kernel32:KERNEL32.dll
 0001:0002a0ec       _IsProcessorFeaturePresent@4 1002b0ec f   kernel32:KERNEL32.dll
 0001:0002a0f2       _IsDebuggerPresent@0       1002b0f2 f   kernel32:KERNEL32.dll
 0001:0002a0f8       _UnhandledExceptionFilter@4 1002b0f8 f   kernel32:KERNEL32.dll
 0001:0002a0fe       _SetUnhandledExceptionFilter@4 1002b0fe f   kernel32:KERNEL32.dll
 0001:0002a104       _GetStartupInfoW@4         1002b104 f   kernel32:KERNEL32.dll
 0001:0002a10a       _GetCurrentProcess@0       1002b10a f   kernel32:KERNEL32.dll
 0001:0002a110       _TerminateProcess@8        1002b110 f   kernel32:KERNEL32.dll
 0001:0002a116       _QueryPerformanceCounter@4 1002b116 f   kernel32:KERNEL32.dll
 0001:0002a11c       _GetCurrentProcessId@0     1002b11c f   kernel32:KERNEL32.dll
 0001:0002a122       _GetCurrentThreadId@0      1002b122 f   kernel32:KERNEL32.dll
 0001:0002a128       _GetSystemTimeAsFileTime@4 1002b128 f   kernel32:KERNEL32.dll
 0001:0002a12e       _InitializeSListHead@4     1002b12e f   kernel32:KERNEL32.dll
 0001:0002a134       _WideCharToMultiByte@32    1002b134 f   kernel32:KERNEL32.dll
 0001:0002a13a       _VirtualQuery@12           1002b13a f   kernel32:KERNEL32.dll
 0001:0002a140       _FreeLibrary@4             1002b140 f   kernel32:KERNEL32.dll
 0001:0002a146       _PeekMessageA@20           1002b146 f   user32:USER32.dll
 0001:0002a14c       _PostQuitMessage@4         1002b14c f   user32:USER32.dll
 0001:0002a152       _UnregisterClassA@8        1002b152 f   user32:USER32.dll
 0001:0002a158       ??$?2PAUHINSTANCE__@@@Wrapper@?$CSimpleArray@PAUHINSTANCE__@@V?$CSimpleArrayEqualHelper@PAUHINSTANCE__@@@ATL@@@ATL@@SAPAXIPAPAUHINSTANCE__@@@Z 1002b158 f i atls:atlbase.obj
 0001:0002a162       ??0?$CComCritSecLock@VCComCriticalSection@ATL@@@ATL@@QAE@AAVCComCriticalSection@1@_N@Z 1002b162 f i atls:atlbase.obj
 0001:0002a192       ??0?$CSimpleArray@PAUHINSTANCE__@@V?$CSimpleArrayEqualHelper@PAUHINSTANCE__@@@ATL@@@ATL@@QAE@XZ 1002b192 f i atls:atlbase.obj
 0001:0002a1a2       ??0CAtlBaseModule@ATL@@QAE@XZ 1002b1a2 f   atls:atlbase.obj
 0001:0002a209       ??0Wrapper@?$CSimpleArray@PAUHINSTANCE__@@V?$CSimpleArrayEqualHelper@PAUHINSTANCE__@@@ATL@@@ATL@@QAE@ABQAUHINSTANCE__@@@Z 1002b209 f i atls:atlbase.obj
 0001:0002a21d       ??0_ATL_BASE_MODULE70@ATL@@QAE@XZ 1002b21d f i atls:atlbase.obj
 0001:0002a248       ??1?$CComCritSecLock@VCComCriticalSection@ATL@@@ATL@@QAE@XZ 1002b248 f i atls:atlbase.obj
 0001:0002a264       ??1?$CSimpleArray@PAUHINSTANCE__@@V?$CSimpleArrayEqualHelper@PAUHINSTANCE__@@@ATL@@@ATL@@QAE@XZ 1002b264 f i atls:atlbase.obj
 0001:0002a269       ??1CAtlBaseModule@ATL@@QAE@XZ 1002b269 f   atls:atlbase.obj
 0001:0002a284       ??1_ATL_BASE_MODULE70@ATL@@QAE@XZ 1002b284 f i atls:atlbase.obj
 0001:0002a28e       ??A?$CSimpleArray@PAUHINSTANCE__@@V?$CSimpleArrayEqualHelper@PAUHINSTANCE__@@@ATL@@@ATL@@QAEAAPAUHINSTANCE__@@H@Z 1002b28e f i atls:atlbase.obj
 0001:0002a2bc       ?Add@?$CSimpleArray@PAUHINSTANCE__@@V?$CSimpleArrayEqualHelper@PAUHINSTANCE__@@@ATL@@@ATL@@QAEHABQAUHINSTANCE__@@@Z 1002b2bc f i atls:atlbase.obj
 0001:0002a35e       ?AddResourceInstance@CAtlBaseModule@ATL@@QAE_NPAUHINSTANCE__@@@Z 1002b35e f   atls:atlbase.obj
 0001:0002a39d       ?AtlCrtErrorCheck@ATL@@YAHH@Z 1002b39d f i atls:atlbase.obj
 0001:0002a3e6       ?AtlThrowImpl@ATL@@YGXJ@Z  1002b3e6 f i atls:atlbase.obj
 0001:0002a40f       ?GetHInstanceAt@CAtlBaseModule@ATL@@QAEPAUHINSTANCE__@@H@Z 1002b40f f   atls:atlbase.obj
 0001:0002a465       ?GetSize@?$CSimpleArray@PAUHINSTANCE__@@V?$CSimpleArrayEqualHelper@PAUHINSTANCE__@@@ATL@@@ATL@@QBEHXZ 1002b465 f i atls:atlbase.obj
 0001:0002a469       ?InternalSetAtIndex@?$CSimpleArray@PAUHINSTANCE__@@V?$CSimpleArrayEqualHelper@PAUHINSTANCE__@@@ATL@@@ATL@@QAEXHABQAUHINSTANCE__@@@Z 1002b469 f i atls:atlbase.obj
 0001:0002a489       ?Lock@?$CComCritSecLock@VCComCriticalSection@ATL@@@ATL@@QAEJXZ 1002b489 f i atls:atlbase.obj
 0001:0002a4a0       ?Lock@CComCriticalSection@ATL@@QAEJXZ 1002b4a0 f i atls:atlbase.obj
 0001:0002a4ac       ?RemoveAll@?$CSimpleArray@PAUHINSTANCE__@@V?$CSimpleArrayEqualHelper@PAUHINSTANCE__@@@ATL@@@ATL@@QAEXXZ 1002b4ac f i atls:atlbase.obj
 0001:0002a4d0       ?RemoveAt@?$CSimpleArray@PAUHINSTANCE__@@V?$CSimpleArrayEqualHelper@PAUHINSTANCE__@@@ATL@@@ATL@@QAEHH@Z 1002b4d0 f i atls:atlbase.obj
 0001:0002a531       ?RemoveResourceInstance@CAtlBaseModule@ATL@@QAE_NPAUHINSTANCE__@@@Z 1002b531 f   atls:atlbase.obj
 0001:0002a5a5       ?Unlock@?$CComCritSecLock@VCComCriticalSection@ATL@@@ATL@@QAEXXZ 1002b5a5 f i atls:atlbase.obj
 0001:0002a5ba       ?Unlock@CComCriticalSection@ATL@@QAEJXZ 1002b5ba f i atls:atlbase.obj
 0001:0002a5c6       ?memmove_s@Checked@ATL@@YAXPAXIPBXI@Z 1002b5c6 f i atls:atlbase.obj
 0001:0002a68a       ??0?$CTraceCategoryEx@$00$0A@@ATL@@QAE@PB_W@Z 1002b68a f i atls:stdafx.obj
 0001:0002a68f       ??0?$CTraceCategoryEx@$01$0A@@ATL@@QAE@PB_W@Z 1002b68f f i atls:stdafx.obj
 0001:0002a694       ??0?$CTraceCategoryEx@$03$0A@@ATL@@QAE@PB_W@Z 1002b694 f i atls:stdafx.obj
 0001:0002a699       ??0?$CTraceCategoryEx@$07$0A@@ATL@@QAE@PB_W@Z 1002b699 f i atls:stdafx.obj
 0001:0002a69e       ??0?$CTraceCategoryEx@$0BA@$0A@@ATL@@QAE@PB_W@Z 1002b69e f i atls:stdafx.obj
 0001:0002a6a3       ??0?$CTraceCategoryEx@$0BAA@$0A@@ATL@@QAE@PB_W@Z 1002b6a3 f i atls:stdafx.obj
 0001:0002a6a8       ??0?$CTraceCategoryEx@$0BAAA@$0A@@ATL@@QAE@PB_W@Z 1002b6a8 f i atls:stdafx.obj
 0001:0002a6ad       ??0?$CTraceCategoryEx@$0BAAAA@$0A@@ATL@@QAE@PB_W@Z 1002b6ad f i atls:stdafx.obj
 0001:0002a6b2       ??0?$CTraceCategoryEx@$0BAAAAA@$0A@@ATL@@QAE@PB_W@Z 1002b6b2 f i atls:stdafx.obj
 0001:0002a6b7       ??0?$CTraceCategoryEx@$0CA@$0A@@ATL@@QAE@PB_W@Z 1002b6b7 f i atls:stdafx.obj
 0001:0002a6bc       ??0?$CTraceCategoryEx@$0CAA@$0A@@ATL@@QAE@PB_W@Z 1002b6bc f i atls:stdafx.obj
 0001:0002a6c1       ??0?$CTraceCategoryEx@$0CAAA@$0A@@ATL@@QAE@PB_W@Z 1002b6c1 f i atls:stdafx.obj
 0001:0002a6c6       ??0?$CTraceCategoryEx@$0CAAAA@$0A@@ATL@@QAE@PB_W@Z 1002b6c6 f i atls:stdafx.obj
 0001:0002a6cb       ??0?$CTraceCategoryEx@$0CAAAAA@$0A@@ATL@@QAE@PB_W@Z 1002b6cb f i atls:stdafx.obj
 0001:0002a6d0       ??0?$CTraceCategoryEx@$0EA@$0A@@ATL@@QAE@PB_W@Z 1002b6d0 f i atls:stdafx.obj
 0001:0002a6d5       ??0?$CTraceCategoryEx@$0EAA@$0A@@ATL@@QAE@PB_W@Z 1002b6d5 f i atls:stdafx.obj
 0001:0002a6da       ??0?$CTraceCategoryEx@$0EAAA@$0A@@ATL@@QAE@PB_W@Z 1002b6da f i atls:stdafx.obj
 0001:0002a6df       ??0?$CTraceCategoryEx@$0EAAAA@$0A@@ATL@@QAE@PB_W@Z 1002b6df f i atls:stdafx.obj
 0001:0002a6e4       ??0?$CTraceCategoryEx@$0EAAAAA@$0A@@ATL@@QAE@PB_W@Z 1002b6e4 f i atls:stdafx.obj
 0001:0002a6e9       ??0?$CTraceCategoryEx@$0IA@$0A@@ATL@@QAE@PB_W@Z 1002b6e9 f i atls:stdafx.obj
 0001:0002a6ee       ??0?$CTraceCategoryEx@$0IAA@$0A@@ATL@@QAE@PB_W@Z 1002b6ee f i atls:stdafx.obj
 0001:0002a6f3       ??0?$CTraceCategoryEx@$0IAAA@$0A@@ATL@@QAE@PB_W@Z 1002b6f3 f i atls:stdafx.obj
 0001:0002a6f8       ??0?$CTraceCategoryEx@$0IAAAA@$0A@@ATL@@QAE@PB_W@Z 1002b6f8 f i atls:stdafx.obj
 0001:0002a6fd       ??_I@YGXPAXIIP6EX0@Z@Z     1002b6fd f i atls:stdafx.obj
 0001:0002a73c       _SysFreeString@4           1002b73c f   oleaut32:OLEAUT32.dll
 0001:0002a742       ?_Xbad_alloc@std@@YAXXZ    1002b742 f   msvcprtd:MSVCP140D.dll
 0001:0002a748       __Mbrtowc                  1002b748 f   msvcprtd:MSVCP140D.dll
 0001:0002a74e       ?_Getcvt@_Locinfo@std@@QBE?AU_Cvtvec@@XZ 1002b74e f   msvcprtd:MSVCP140D.dll
 0001:0002a754       ?_Getdays@_Locinfo@std@@QBEPBDXZ 1002b754 f   msvcprtd:MSVCP140D.dll
 0001:0002a75a       ?_Getmonths@_Locinfo@std@@QBEPBDXZ 1002b75a f   msvcprtd:MSVCP140D.dll
 0001:0002a760       ?_W_Getdays@_Locinfo@std@@QBEPBGXZ 1002b760 f   msvcprtd:MSVCP140D.dll
 0001:0002a766       ?_W_Getmonths@_Locinfo@std@@QBEPBGXZ 1002b766 f   msvcprtd:MSVCP140D.dll
 0001:0002a76c       ??0_Lockit@std@@QAE@H@Z    1002b76c f   msvcprtd:MSVCP140D.dll
 0001:0002a772       ??1_Lockit@std@@QAE@XZ     1002b772 f   msvcprtd:MSVCP140D.dll
 0001:0002a778       ?_Xlength_error@std@@YAXPBD@Z 1002b778 f   msvcprtd:MSVCP140D.dll
 0001:0002a77e       __purecall                 1002b77e f   vcruntimed:VCRUNTIME140D.dll
 0001:0002a784       _memcmp                    1002b784 f   vcruntimed:VCRUNTIME140D.dll
 0001:0002a78a       _memcpy                    1002b78a f   vcruntimed:VCRUNTIME140D.dll
 0001:0002a790       _memmove                   1002b790 f   vcruntimed:VCRUNTIME140D.dll
 0001:0002a796       _memset                    1002b796 f   vcruntimed:VCRUNTIME140D.dll
 0001:0002a79c       ___CxxFrameHandler3        1002b79c f   vcruntimed:VCRUNTIME140D.dll
 0001:0002a7a2       __CxxThrowException@8      1002b7a2 f   vcruntimed:VCRUNTIME140D.dll
 0001:0002a7a8       __except_handler4_common   1002b7a8 f   vcruntimed:VCRUNTIME140D.dll
 0001:0002a7ae       ___std_type_info_destroy_list 1002b7ae f   vcruntimed:VCRUNTIME140D.dll
 0001:0002a7b4       ___vcrt_GetModuleFileNameW 1002b7b4 f   vcruntimed:VCRUNTIME140D.dll
 0001:0002a7ba       ___vcrt_GetModuleHandleW   1002b7ba f   vcruntimed:VCRUNTIME140D.dll
 0001:0002a7c0       ___vcrt_LoadLibraryExW     1002b7c0 f   vcruntimed:VCRUNTIME140D.dll
 0001:0002a7c6       _wcscpy_s                  1002b7c6 f   ucrtd:ucrtbased.dll
 0001:0002a7cc       _wcslen                    1002b7cc f   ucrtd:ucrtbased.dll
 0001:0002a7d2       _strlen                    1002b7d2 f   ucrtd:ucrtbased.dll
 0001:0002a7d8       ___stdio_common_vswprintf_s 1002b7d8 f   ucrtd:ucrtbased.dll
 0001:0002a7de       _rand                      1002b7de f   ucrtd:ucrtbased.dll
 0001:0002a7e4       __time64                   1002b7e4 f   ucrtd:ucrtbased.dll
 0001:0002a7ea       __calloc_dbg               1002b7ea f   ucrtd:ucrtbased.dll
 0001:0002a7f0       __CrtDbgReport             1002b7f0 f   ucrtd:ucrtbased.dll
 0001:0002a7f6       __CrtDbgReportW            1002b7f6 f   ucrtd:ucrtbased.dll
 0001:0002a7fc       _ldiv                      1002b7fc f   ucrtd:ucrtbased.dll
 0001:0002a802       __invalid_parameter        1002b802 f   ucrtd:ucrtbased.dll
 0001:0002a808       ___stdio_common_vsnprintf_s 1002b808 f   ucrtd:ucrtbased.dll
 0001:0002a80e       _atoi                      1002b80e f   ucrtd:ucrtbased.dll
 0001:0002a814       ___stdio_common_vsprintf   1002b814 f   ucrtd:ucrtbased.dll
 0001:0002a81a       _free                      1002b81a f   ucrtd:ucrtbased.dll
 0001:0002a820       _malloc                    1002b820 f   ucrtd:ucrtbased.dll
 0001:0002a826       _terminate                 1002b826 f   ucrtd:ucrtbased.dll
 0001:0002a82c       __seh_filter_dll           1002b82c f   ucrtd:ucrtbased.dll
 0001:0002a832       __configure_narrow_argv    1002b832 f   ucrtd:ucrtbased.dll
 0001:0002a838       __initialize_narrow_environment 1002b838 f   ucrtd:ucrtbased.dll
 0001:0002a83e       __initialize_onexit_table  1002b83e f   ucrtd:ucrtbased.dll
 0001:0002a844       __register_onexit_function 1002b844 f   ucrtd:ucrtbased.dll
 0001:0002a84a       __execute_onexit_table     1002b84a f   ucrtd:ucrtbased.dll
 0001:0002a850       __crt_atexit               1002b850 f   ucrtd:ucrtbased.dll
 0001:0002a856       __crt_at_quick_exit        1002b856 f   ucrtd:ucrtbased.dll
 0001:0002a85c       __cexit                    1002b85c f   ucrtd:ucrtbased.dll
 0001:0002a862       __initterm                 1002b862 f   ucrtd:ucrtbased.dll
 0001:0002a868       __initterm_e               1002b868 f   ucrtd:ucrtbased.dll
 0001:0002a86e       _strcpy_s                  1002b86e f   ucrtd:ucrtbased.dll
 0001:0002a874       _strcat_s                  1002b874 f   ucrtd:ucrtbased.dll
 0001:0002a87a       ___stdio_common_vsprintf_s 1002b87a f   ucrtd:ucrtbased.dll
 0001:0002a880       __wmakepath_s              1002b880 f   ucrtd:ucrtbased.dll
 0001:0002a886       __wsplitpath_s             1002b886 f   ucrtd:ucrtbased.dll
 0001:0002a88c       __invalid_parameter_noinfo 1002b88c f   ucrtd:ucrtbased.dll
 0001:0002a892       __errno                    1002b892 f   ucrtd:ucrtbased.dll
 0001:0002a898       __recalloc                 1002b898 f   ucrtd:ucrtbased.dll
 0001:0002a89e       _OutputDebugStringW@4      1002b89e f   kernel32:KERNEL32.dll
 0001:0002a8b0       ___vcrt_initialize         1002b8b0 f   msvcrtd:ucrt_stubs.obj
 0001:0002a8b0       ___scrt_stub_for_acrt_initialize 1002b8b0 f   msvcrtd:ucrt_stubs.obj
 0001:0002a8b0       ___acrt_initialize         1002b8b0 f   msvcrtd:ucrt_stubs.obj
 0001:0002a8c0       ___acrt_thread_attach      1002b8c0 f   msvcrtd:ucrt_stubs.obj
 0001:0002a8c0       ___scrt_stub_for_acrt_thread_attach 1002b8c0 f   msvcrtd:ucrt_stubs.obj
 0001:0002a8c0       ___vcrt_thread_attach      1002b8c0 f   msvcrtd:ucrt_stubs.obj
 0001:0002a8d0       ___acrt_thread_detach      1002b8d0 f   msvcrtd:ucrt_stubs.obj
 0001:0002a8d0       ___vcrt_thread_detach      1002b8d0 f   msvcrtd:ucrt_stubs.obj
 0001:0002a8d0       ___scrt_stub_for_acrt_thread_detach 1002b8d0 f   msvcrtd:ucrt_stubs.obj
 0001:0002a8e0       ___acrt_uninitialize       1002b8e0 f   msvcrtd:ucrt_stubs.obj
 0001:0002a8e0       ___scrt_stub_for_acrt_uninitialize 1002b8e0 f   msvcrtd:ucrt_stubs.obj
 0001:0002a8e0       ___vcrt_uninitialize       1002b8e0 f   msvcrtd:ucrt_stubs.obj
 0001:0002a8f0       ___vcrt_uninitialize_critical 1002b8f0 f   msvcrtd:ucrt_stubs.obj
 0001:0002a8f0       ___acrt_uninitialize_critical 1002b8f0 f   msvcrtd:ucrt_stubs.obj
 0001:0002a8f0       ___scrt_stub_for_acrt_uninitialize_critical 1002b8f0 f   msvcrtd:ucrt_stubs.obj
 0001:0002a900       __is_c_termination_complete 1002b900 f   msvcrtd:ucrt_stubs.obj
 0001:0002a900       ___scrt_stub_for_is_c_termination_complete 1002b900 f   msvcrtd:ucrt_stubs.obj
 0001:0002e8b0       ??__FstrHeap@?1??GetInstance@CAtlStringMgr@ATL@@SAPAUIAtlStringMgr@2@XZ@YAXXZ 1002f8b0 f i Stdafx.obj
 0001:0002e8d0       ??__FstrMgr@?1??GetInstance@CAtlStringMgr@ATL@@SAPAUIAtlStringMgr@2@XZ@YAXXZ 1002f8d0 f i Stdafx.obj
 0002:00000000       ___xc_a                    10031000     msvcrtd:initializers.obj
 0002:00000390       ___xc_z                    10031390     msvcrtd:initializers.obj
 0002:00000494       ___xi_a                    10031494     msvcrtd:initializers.obj
 0002:0000069c       ___xi_z                    1003169c     msvcrtd:initializers.obj
 0002:000007a0       ___xl_a                    100317a0     msvcrtd:tlssup.obj
 0002:000007a4       ___xl_z                    100317a4     msvcrtd:tlssup.obj
 0002:000007a8       ___xp_a                    100317a8     msvcrtd:initializers.obj
 0002:000008ac       ___xp_z                    100318ac     msvcrtd:initializers.obj
 0002:000009b0       ___xt_a                    100319b0     msvcrtd:initializers.obj
 0002:00000ab4       ___xt_z                    10031ab4     msvcrtd:initializers.obj
 0002:00000ccc       ??_C@_17CNPHIMPH@?$AA?$CF?$AAl?$AAs@ 10031ccc     AndroidUserItem.obj
 0002:00000cd8       ??_C@_0BC@PGMFNIFA@atlTraceException@ 10031cd8     AndroidUserItem.obj
 0002:00000cf0       ??_C@_17LGGGMOOB@?$AA?$CF?$AAh?$AAs@ 10031cf0     AndroidUserItem.obj
 0002:00000d00       ??_C@_1EO@EBPPKGOM@?$AAf?$AAa?$AAl?$AAs?$AAe?$AA?5?$AA?$CG?$AA?$CG?$AA?5?$AA?$CC?$AAT?$AAo?$AAo?$AA?5?$AAm@ 10031d00     AndroidUserItem.obj
 0002:00000d60       ??_C@_1OE@PDFAMNPL@?$AAc?$AA?3?$AA?2?$AAp?$AAr?$AAo?$AAg?$AAr?$AAa?$AAm?$AA?5?$AAf?$AAi?$AAl?$AAe@ 10031d60     AndroidUserItem.obj
 0002:00000e78       ??_C@_0GI@LKBGDILM@c?3?2program?5files?5?$CIx86?$CJ?2microsof@ 10031e78     AndroidUserItem.obj
 0002:00000ef8       ??_C@_0GI@DJFLDKBN@c?3?2program?5files?5?$CIx86?$CJ?2microsof@ 10031ef8     AndroidUserItem.obj
 0002:00000f78       ??_7IUnknownEx@@6B@        10031f78     AndroidUserItem.obj
 0002:00000f88       ??_7IAndroidUserItem@@6B@  10031f88     AndroidUserItem.obj
 0002:00000fec       ??_7?$CWHArray@PAUtagTimerItem@@ABQAU1@@@6B@ 10031fec     AndroidUserItem.obj
 0002:00000ff8       ??_7CAndroidUserItem@@6B@  10031ff8     AndroidUserItem.obj
 0002:00001060       ??_C@_0EM@EHEJDFPF@g?3?2?M?x?$LK?$PM?2happygamewh?2?$LH?$PO?N?q?$LG?K?2?O?$LF?M?$LD@ 10032060     AndroidUserItem.obj
 0002:000010bc       ??_C@_0BJ@GNAGLFEA@OnTimerPulse?3?5TimerID?$DN?$CFd@ 100320bc     AndroidUserItem.obj
 0002:000010dc       ??_C@_0CI@JLNELCNK@OnSocketGameMessage?3?5MainID?$DN?$CFd?7@ 100320dc     AndroidUserItem.obj
 0002:0000110c       ??_C@_0N@LPFKKEBD@?3AM?3am?3PM?3pm@ 1003210c     AndroidUserItem.obj
 0002:0000111c       ??_C@_1BK@MHIKGOKE@?$AA?3?$AAA?$AAM?$AA?3?$AAa?$AAm?$AA?3?$AAP?$AAM?$AA?3?$AAp?$AAm@ 1003211c     AndroidUserItem.obj
 0002:0000113c       ??_C@_0DF@LDFGAABH@g?3?2?M?x?$LK?$PM?2happygamewh?2?$LH?$PO?N?q?$LG?K?2?O?$LF?M?$LD@ 1003213c     AndroidUserItem.obj
 0002:00001288       ??_C@_0HC@HBCNBCLF@c?3?2program?5files?5?$CIx86?$CJ?2microsof@ 10032288     AndroidUserManager.obj
 0002:00001310       ??_C@_05PLCFPPOI@with?5@   10032310     AndroidUserManager.obj
 0002:00001318       ??_C@_09HCLNAIDE@?5elements@ 10032318     AndroidUserManager.obj
 0002:00001324       ??_C@_01EEMJAFIK@?6@       10032324     AndroidUserManager.obj
 0002:0000132c       ??_7IAndroidUserManager@@6B@ 1003232c     AndroidUserManager.obj
 0002:00001398       ??_7?$CMap@KKPAVCAndroidUserItem@@PAV1@@@6B@ 10032398     AndroidUserManager.obj
 0002:000013b4       ??_7?$CWHArray@PAUtagAndroidParameterEx@@ABQAU1@@@6B@ 100323b4     AndroidUserManager.obj
 0002:000013c0       ??_7?$CWHArray@PAVCAndroidUserItem@@ABQAV1@@@6B@ 100323c0     AndroidUserManager.obj
 0002:000013cc       ??_7CAndroidUserManager@@6B@ 100323cc     AndroidUserManager.obj
 0002:00001440       ??_C@_0EP@BBPJKEPN@g?3?2?M?x?$LK?$PM?2happygamewh?2?$LH?$PO?N?q?$LG?K?2?O?$LF?M?$LD@ 10032440     AndroidUserManager.obj
 0002:000014a0       ??_C@_0CA@JNJPKGKJ@?$LB?$LO?E?z?$LE?N?$LL?z?F?w?H?K?$LP?$KK?J?$LM?M?K?$LD?v?0?5?E?z?$LE?NID?$DN?$CFd@ 100324a0     AndroidUserManager.obj
 0002:000014c8       ??_C@_0CP@DGHJFLOD@?$LB?$LO?E?z?$LE?N?$LL?z?F?w?H?K?H?$KL?$LC?$LP?M?K?$LD?v?0?$LI?C?E?z?$LE?N?$LN?$KL?$LB?$LL@ 100324c8     AndroidUserManager.obj
 0002:00001500       ??_C@_0CA@OJFILKJK@?$LB?$LO?E?z?$LE?N?$LL?z?F?w?H?K?H?$KL?$LC?$LP?M?K?$LD?v?0?5?E?z?$LE?NID?$DN?$CFd@ 10032500     AndroidUserManager.obj
 0002:00001528       ??_C@_0CF@PMKCNPKJ@SendDataToServer?3?5MainID?$DN?$CFd?0Sub@ 10032528     AndroidUserManager.obj
 0002:00001554       ??_C@_03OHJIHPJH@?6?7?$FL@ 10032554     AndroidUserManager.obj
 0002:00001558       ??_C@_04OAFLPOMH@?$FN?5?$DN?5@ 10032558     AndroidUserManager.obj
 0002:0000164c       ??_C@_0BB@FCMFBGOM@invalid?5argument@ 1003264c     GamePropertyManager.obj
 0002:00001660       ??_C@_02DKCKIIND@?$CFs@    10032660     GamePropertyManager.obj
 0002:00001664       ??_C@_1CG@JNLFBNGN@?$AA?$CC?$AAi?$AAn?$AAv?$AAa?$AAl?$AAi?$AAd?$AA?5?$AAa?$AAr?$AAg?$AAu?$AAm?$AAe@ 10032664     GamePropertyManager.obj
 0002:00001694       ??_C@_0BJ@LFDBABJJ@ITERATOR?5LIST?5CORRUPTED?$CB@ 10032694     GamePropertyManager.obj
 0002:000016b8       ??_C@_0GJ@EJIMBHLG@c?3?2program?5files?5?$CIx86?$CJ?2microsof@ 100326b8     GamePropertyManager.obj
 0002:00001738       ??_C@_1NC@FANNPLN@?$AAc?$AA?3?$AA?2?$AAp?$AAr?$AAo?$AAg?$AAr?$AAa?$AAm?$AA?5?$AAf?$AAi?$AAl?$AAe@ 10032738     GamePropertyManager.obj
 0002:00001838       ??_C@_1EE@KLDMFDFL@?$AAs?$AAt?$AAd?$AA?3?$AA?3?$AA_?$AAI?$AAt?$AAe?$AAr?$AAa?$AAt?$AAo?$AAr?$AA_@ 10032838     GamePropertyManager.obj
 0002:0000188c       ??_C@_1DG@PLBPCAEM@?$AA?$CC?$AAI?$AAT?$AAE?$AAR?$AAA?$AAT?$AAO?$AAR?$AA?5?$AAL?$AAI?$AAS?$AAT?$AA?5@ 1003288c     GamePropertyManager.obj
 0002:000018d0       ??_C@_0GJ@FFDBCFBF@c?3?2program?5files?5?$CIx86?$CJ?2microsof@ 100328d0     GamePropertyManager.obj
 0002:00001950       ??_C@_1NC@PIOGAKBO@?$AAc?$AA?3?$AA?2?$AAp?$AAr?$AAo?$AAg?$AAr?$AAa?$AAm?$AA?5?$AAf?$AAi?$AAl?$AAe@ 10032950     GamePropertyManager.obj
 0002:00001a50       ??_C@_1EK@NIFDJFDG@?$AAs?$AAt?$AAd?$AA?3?$AA?3?$AA_?$AAA?$AAd?$AAj?$AAu?$AAs?$AAt?$AA_?$AAm?$AAa@ 10032a50     GamePropertyManager.obj
 0002:00001aac       ??_7?$CWHArray@UtagPropertyInfo@@ABU1@@@6B@ 10032aac     GamePropertyManager.obj
 0002:00001ab8       ??_7CGamePropertyManager@@6B@ 10032ab8     GamePropertyManager.obj
 0002:00001ac0       ??_C@_0BO@PFKOHNJC@vector?5subscript?5out?5of?5range@ 10032ac0     GamePropertyManager.obj
 0002:00001ae8       ??_C@_0GH@FKAHJGEE@c?3?2program?5files?5?$CIx86?$CJ?2microsof@ 10032ae8     GamePropertyManager.obj
 0002:00001b68       ??_C@_1MO@OJBMIJHH@?$AAc?$AA?3?$AA?2?$AAp?$AAr?$AAo?$AAg?$AAr?$AAa?$AAm?$AA?5?$AAf?$AAi?$AAl?$AAe@ 10032b68     GamePropertyManager.obj
 0002:00001c60       ??_C@_1LO@IAGBENIJ@?$AAs?$AAt?$AAd?$AA?3?$AA?3?$AAv?$AAe?$AAc?$AAt?$AAo?$AAr?$AA?$DM?$AAs?$AAt?$AAr@ 10032c60     GamePropertyManager.obj
 0002:00001d48       ??_C@_1EA@LEKOKFNB@?$AA?$CC?$AAv?$AAe?$AAc?$AAt?$AAo?$AAr?$AA?5?$AAs?$AAu?$AAb?$AAs?$AAc?$AAr?$AAi@ 10032d48     GamePropertyManager.obj
 0002:00001d94       ??_C@_0BD@OLBABOEK@vector?$DMT?$DO?5too?5long@ 10032d94     GamePropertyManager.obj
 0002:00001dac       ??_C@_0BP@OLDKBHLM@map?1set?5iterators?5incompatible@ 10032dac     GamePropertyManager.obj
 0002:00001dd8       ??_C@_0GG@NEGGIBJL@c?3?2program?5files?5?$CIx86?$CJ?2microsof@ 10032dd8     GamePropertyManager.obj
 0002:00001e58       ??_C@_1MM@GNDNJPBP@?$AAc?$AA?3?$AA?2?$AAp?$AAr?$AAo?$AAg?$AAr?$AAa?$AAm?$AA?5?$AAf?$AAi?$AAl?$AAe@ 10032e58     GamePropertyManager.obj
 0002:00001f50       ??_C@_1BMC@CJDBOPPP@?$AAs?$AAt?$AAd?$AA?3?$AA?3?$AA_?$AAT?$AAr?$AAe?$AAe?$AA_?$AAc?$AAo?$AAn?$AAs@ 10032f50     GamePropertyManager.obj
 0002:00002170       ??_C@_1EC@JLIDLCDH@?$AA?$CC?$AAm?$AAa?$AAp?$AA?1?$AAs?$AAe?$AAt?$AA?5?$AAi?$AAt?$AAe?$AAr?$AAa?$AAt@ 10033170     GamePropertyManager.obj
 0002:000021c0       ??_C@_0DG@LCFNIIPB@cannot?5dereference?5value?9initia@ 100331c0     GamePropertyManager.obj
 0002:00002200       ??_C@_1BMA@DJJFGNNP@?$AAs?$AAt?$AAd?$AA?3?$AA?3?$AA_?$AAT?$AAr?$AAe?$AAe?$AA_?$AAc?$AAo?$AAn?$AAs@ 10033200     GamePropertyManager.obj
 0002:00002420       ??_C@_1HA@ILGCNILF@?$AA?$CC?$AAc?$AAa?$AAn?$AAn?$AAo?$AAt?$AA?5?$AAd?$AAe?$AAr?$AAe?$AAf?$AAe?$AAr@ 10033420     GamePropertyManager.obj
 0002:000024a8       ??_C@_0CI@OKFEHCEB@cannot?5dereference?5end?5map?1set?5@ 100334a8     GamePropertyManager.obj
 0002:000024d8       ??_C@_1FE@NKHAAGMB@?$AA?$CC?$AAc?$AAa?$AAn?$AAn?$AAo?$AAt?$AA?5?$AAd?$AAe?$AAr?$AAe?$AAf?$AAe?$AAr@ 100334d8     GamePropertyManager.obj
 0002:0000253c       ??_C@_0CF@JILFNJOL@map?1set?5erase?5iterator?5outside?5@ 1003353c     GamePropertyManager.obj
 0002:00002568       ??_C@_1CJI@GONIBODA@?$AAs?$AAt?$AAd?$AA?3?$AA?3?$AA_?$AAT?$AAr?$AAe?$AAe?$AA?$DM?$AAc?$AAl?$AAa?$AAs@ 10033568     GamePropertyManager.obj
 0002:00002888       ??_C@_1EO@CEDAEPC@?$AA?$CC?$AAm?$AAa?$AAp?$AA?1?$AAs?$AAe?$AAt?$AA?5?$AAe?$AAr?$AAa?$AAs?$AAe?$AA?5@ 10033888     GamePropertyManager.obj
 0002:000028e8       ??_C@_0DE@DMNPKCGM@cannot?5increment?5value?9initiali@ 100338e8     GamePropertyManager.obj
 0002:00002928       ??_C@_1BMC@IJMMAGDK@?$AAs?$AAt?$AAd?$AA?3?$AA?3?$AA_?$AAT?$AAr?$AAe?$AAe?$AA_?$AAc?$AAo?$AAn?$AAs@ 10033928     GamePropertyManager.obj
 0002:00002b48       ??_C@_1GM@BJMCGEGI@?$AA?$CC?$AAc?$AAa?$AAn?$AAn?$AAo?$AAt?$AA?5?$AAi?$AAn?$AAc?$AAr?$AAe?$AAm?$AAe@ 10033b48     GamePropertyManager.obj
 0002:00002bcc       ??_C@_0CG@NLEHEOHN@cannot?5increment?5end?5map?1set?5it@ 10033bcc     GamePropertyManager.obj
 0002:00002c00       ??_C@_1FA@KLFCDGNE@?$AA?$CC?$AAc?$AAa?$AAn?$AAn?$AAo?$AAt?$AA?5?$AAi?$AAn?$AAc?$AAr?$AAe?$AAm?$AAe@ 10033c00     GamePropertyManager.obj
 0002:00002c60       ??_C@_1BHI@FOOCHJIO@?$AAs?$AAt?$AAd?$AA?3?$AA?3?$AA_?$AAT?$AAr?$AAe?$AAe?$AA_?$AAv?$AAa?$AAl?$AA?$DM@ 10033c60     GamePropertyManager.obj
 0002:00002e28       ??_C@_1EO@GFNCMDLA@?$AAs?$AAt?$AAd?$AA?3?$AA?3?$AA_?$AAA?$AAl?$AAl?$AAo?$AAc?$AAa?$AAt?$AAe?$AA_@ 10033e28     GamePropertyManager.obj
 0002:00002e88       ??_C@_0BD@FEEMDEPI@invalid?5comparator@ 10033e88     GamePropertyManager.obj
 0002:00002ea0       ??_C@_1CI@JONCLBEJ@?$AAs?$AAt?$AAd?$AA?3?$AA?3?$AA_?$AAD?$AAe?$AAb?$AAu?$AAg?$AA_?$AAl?$AAt?$AA_@ 10033ea0     GamePropertyManager.obj
 0002:00002ed0       ??_C@_1CK@NDNHPKPI@?$AA?$CC?$AAi?$AAn?$AAv?$AAa?$AAl?$AAi?$AAd?$AA?5?$AAc?$AAo?$AAm?$AAp?$AAa?$AAr@ 10033ed0     GamePropertyManager.obj
 0002:00002f04       ??_C@_0CG@MOLIBF@map?1set?5insert?5iterator?5outside@ 10033f04     GamePropertyManager.obj
 0002:00002f38       ??_C@_1CKG@DBCIFINF@?$AAs?$AAt?$AAd?$AA?3?$AA?3?$AA_?$AAT?$AAr?$AAe?$AAe?$AA?$DM?$AAc?$AAl?$AAa?$AAs@ 10033f38     GamePropertyManager.obj
 0002:00003268       ??_C@_1FA@HNFOKDLB@?$AA?$CC?$AAm?$AAa?$AAp?$AA?1?$AAs?$AAe?$AAt?$AA?5?$AAi?$AAn?$AAs?$AAe?$AAr?$AAt@ 10034268     GamePropertyManager.obj
 0002:000032c8       ??_C@_0DE@JECMPNID@cannot?5decrement?5value?9initiali@ 100342c8     GamePropertyManager.obj
 0002:00003308       ??_C@_1BMC@HKPOLKPL@?$AAs?$AAt?$AAd?$AA?3?$AA?3?$AA_?$AAT?$AAr?$AAe?$AAe?$AA_?$AAc?$AAo?$AAn?$AAs@ 10034308     GamePropertyManager.obj
 0002:00003528       ??_C@_1GM@ECOECPCJ@?$AA?$CC?$AAc?$AAa?$AAn?$AAn?$AAo?$AAt?$AA?5?$AAd?$AAe?$AAc?$AAr?$AAe?$AAm?$AAe@ 10034528     GamePropertyManager.obj
 0002:000035ac       ??_C@_0CI@FJCIBNID@cannot?5decrement?5begin?5map?1set?5@ 100345ac     GamePropertyManager.obj
 0002:000035e0       ??_C@_1FE@HAEBNAIH@?$AA?$CC?$AAc?$AAa?$AAn?$AAn?$AAo?$AAt?$AA?5?$AAd?$AAe?$AAc?$AAr?$AAe?$AAm?$AAe@ 100345e0     GamePropertyManager.obj
 0002:00003644       ??_C@_0BE@JONHPENG@map?1set?$DMT?$DO?5too?5long@ 10034644     GamePropertyManager.obj
 0002:0000365c       __pRawDllMain              1003465c     GameService.obj
 0002:000038a8       ??_C@_0P@MBNHGHMI@atlTraceString@ 100348a8     ServerUserManager.obj
 0002:000038ba       ??_C@_00CNPNBAHC@@         100348ba     ServerUserManager.obj
 0002:000038c0       ??_7IServerUserItem@@6B@   100348c0     ServerUserManager.obj
 0002:00003a38       ??_7IServerUserService@@6B@ 10034a38     ServerUserManager.obj
 0002:00003a48       ??_7IServerUserManager@@6B@ 10034a48     ServerUserManager.obj
 0002:00003a88       ??_7?$CMap@HHPAUtagGameDataItem@@AAPAU1@@@6B@ 10034a88     ServerUserManager.obj
 0002:00003aa4       ??_7CServerUserItem@@6BIServerUserItem@@@ 10034aa4     ServerUserManager.obj
 0002:00003c20       ??_7CServerUserItem@@6BIServerUserService@@@ 10034c20     ServerUserManager.obj
 0002:00003c30       ??_7?$CMap@KKPAVCServerUserItem@@PAV1@@@6B@ 10034c30     ServerUserManager.obj
 0002:00003c4c       ??_7?$CWHArray@PAVCServerUserItem@@ABQAV1@@@6B@ 10034c4c     ServerUserManager.obj
 0002:00003c58       ??_7CServerUserManager@@6B@ 10034c58     ServerUserManager.obj
 0002:00003c98       ??_C@_0EO@OOHJOGHE@g?3?2?M?x?$LK?$PM?2happygamewh?2?$LH?$PO?N?q?$LG?K?2?O?$LF?M?$LD@ 10034c98     ServerUserManager.obj
 0002:00003cf8       ??_C@_06HKALLNOM@?$CFd?3?$CFs?$DL@ 10034cf8     ServerUserManager.obj
 0002:00003d00       __pAtlLcidToLocaleNameTable 10034d00     Stdafx.obj
 0002:0000458c       ??_C@_15EMKDOKLE@?$AAa?$AAr@ 1003558c     Stdafx.obj
 0002:00004594       ??_C@_15KNPADPLH@?$AAb?$AAg@ 10035594     Stdafx.obj
 0002:0000459c       ??_C@_15EDMHLDMO@?$AAc?$AAa@ 1003559c     Stdafx.obj
 0002:000045a4       ??_C@_1O@BPEAJADD@?$AAz?$AAh?$AA?9?$AAC?$AAH?$AAS@ 100355a4     Stdafx.obj
 0002:000045b4       ??_C@_15LJNHCMNK@?$AAc?$AAs@ 100355b4     Stdafx.obj
 0002:000045bc       ??_C@_15FOMCIDHG@?$AAd?$AAa@ 100355bc     Stdafx.obj
 0002:000045c4       ??_C@_15NBKABECB@?$AAd?$AAe@ 100355c4     Stdafx.obj
 0002:000045cc       ??_C@_15GHPEIIAO@?$AAe?$AAl@ 100355cc     Stdafx.obj
 0002:000045d4       ??_C@_15MNPNEAIF@?$AAe?$AAn@ 100355d4     Stdafx.obj
 0002:000045dc       ??_C@_15GPIOMPMH@?$AAe?$AAs@ 100355dc     Stdafx.obj
 0002:000045e4       ??_C@_15NGLOAKJC@?$AAf?$AAi@ 100355e4     Stdafx.obj
 0002:000045ec       ??_C@_15FBKGNKAM@?$AAf?$AAr@ 100355ec     Stdafx.obj
 0002:000045f4       ??_C@_15KGGCNEFK@?$AAh?$AAe@ 100355f4     Stdafx.obj
 0002:000045fc       ??_C@_15PGHLIDMF@?$AAh?$AAu@ 100355fc     Stdafx.obj
 0002:00004604       ??_C@_15BIEMAPLM@?$AAi?$AAs@ 10035604     Stdafx.obj
 0002:0000460c       ??_C@_15IFJLDHAF@?$AAi?$AAt@ 1003560c     Stdafx.obj
 0002:00004614       ??_C@_15GEMIOCAG@?$AAj?$AAa@ 10035614     Stdafx.obj
 0002:0000461c       ??_C@_15EPELEGJA@?$AAk?$AAo@ 1003561c     Stdafx.obj
 0002:00004624       ??_C@_15NDDHIMN@?$AAn?$AAl@ 10035624     Stdafx.obj
 0002:0000462c       ??_C@_15BPIGNHCD@?$AAn?$AAo@ 1003562c     Stdafx.obj
 0002:00004634       ??_C@_15DEOPBLCG@?$AAp?$AAl@ 10035634     Stdafx.obj
 0002:0000463c       ??_C@_15KBECGEFG@?$AAp?$AAt@ 1003563c     Stdafx.obj
 0002:00004644       ??_C@_15GLJCBFMD@?$AAr?$AAo@ 10035644     Stdafx.obj
 0002:0000464c       ??_C@_15FEDGKCDI@?$AAr?$AAu@ 1003564c     Stdafx.obj
 0002:00004654       ??_C@_15GLKMLLHM@?$AAh?$AAr@ 10035654     Stdafx.obj
 0002:0000465c       ??_C@_15CPKMFBDB@?$AAs?$AAk@ 1003565c     Stdafx.obj
 0002:00004664       ??_C@_15BAAIOGMK@?$AAs?$AAq@ 10035664     Stdafx.obj
 0002:0000466c       ??_C@_15INNPNOHD@?$AAs?$AAv@ 1003566c     Stdafx.obj
 0002:00004674       ??_C@_15CABMMOGH@?$AAt?$AAh@ 10035674     Stdafx.obj
 0002:0000467c       ??_C@_15BPLIHJJM@?$AAt?$AAr@ 1003567c     Stdafx.obj
 0002:00004684       ??_C@_15NEOEKKDJ@?$AAu?$AAr@ 10035684     Stdafx.obj
 0002:0000468c       ??_C@_15NFICGAJK@?$AAi?$AAd@ 1003568c     Stdafx.obj
 0002:00004694       ??_C@_15PJPFLCCM@?$AAu?$AAk@ 10035694     Stdafx.obj
 0002:0000469c       ??_C@_15HPJPHDM@?$AAb?$AAe@ 1003569c     Stdafx.obj
 0002:000046a4       ??_C@_15LCHLGJII@?$AAs?$AAl@ 100356a4     Stdafx.obj
 0002:000046ac       ??_C@_15PCFJPHHO@?$AAe?$AAt@ 100356ac     Stdafx.obj
 0002:000046b4       ??_C@_15HPFPGODN@?$AAl?$AAv@ 100356b4     Stdafx.obj
 0002:000046bc       ??_C@_15NFFGKGLG@?$AAl?$AAt@ 100356bc     Stdafx.obj
 0002:000046c4       ??_C@_15BDAKCCHN@?$AAf?$AAa@ 100356c4     Stdafx.obj
 0002:000046cc       ??_C@_15NFGIAIAJ@?$AAv?$AAi@ 100356cc     Stdafx.obj
 0002:000046d4       ??_C@_15LMKNDMHN@?$AAh?$AAy@ 100356d4     Stdafx.obj
 0002:000046dc       ??_C@_15IJBHMCFL@?$AAa?$AAz@ 100356dc     Stdafx.obj
 0002:000046e4       ??_C@_15EKOFJABL@?$AAe?$AAu@ 100356e4     Stdafx.obj
 0002:000046ec       ??_C@_15BGHADCNK@?$AAm?$AAk@ 100356ec     Stdafx.obj
 0002:000046f4       ??_C@_15JDNICKHM@?$AAa?$AAf@ 100356f4     Stdafx.obj
 0002:000046fc       ??_C@_15KPJEDBKD@?$AAk?$AAa@ 100356fc     Stdafx.obj
 0002:00004704       ??_C@_15PDNFFFEO@?$AAf?$AAo@ 10035704     Stdafx.obj
 0002:0000470c       ??_C@_15OMLEGLOC@?$AAh?$AAi@ 1003570c     Stdafx.obj
 0002:00004714       ??_C@_15IDNNENKK@?$AAm?$AAs@ 10035714     Stdafx.obj
 0002:0000471c       ??_C@_15MACJNBMH@?$AAk?$AAk@ 1003571c     Stdafx.obj
 0002:00004724       ??_C@_15DKDJEOND@?$AAk?$AAy@ 10035724     Stdafx.obj
 0002:0000472c       ??_C@_15DFGDLJBG@?$AAs?$AAw@ 1003572c     Stdafx.obj
 0002:00004734       ??_C@_15BBFAICNG@?$AAu?$AAz@ 10035734     Stdafx.obj
 0002:0000473c       ??_C@_15DKNDCGEA@?$AAt?$AAt@ 1003573c     Stdafx.obj
 0002:00004744       ??_C@_15MGIFMDPL@?$AAp?$AAa@ 10035744     Stdafx.obj
 0002:0000474c       ??_C@_15HCNDBBA@?$AAg?$AAu@ 1003574c     Stdafx.obj
 0002:00004754       ??_C@_15FNBEIBON@?$AAt?$AAa@ 10035754     Stdafx.obj
 0002:0000475c       ??_C@_15NCHGBGLK@?$AAt?$AAe@ 1003575c     Stdafx.obj
 0002:00004764       ??_C@_15PHPHCBPF@?$AAk?$AAn@ 10035764     Stdafx.obj
 0002:0000476c       ??_C@_15DLGBCKMP@?$AAm?$AAr@ 1003576c     Stdafx.obj
 0002:00004774       ??_C@_15EABBLBFF@?$AAs?$AAa@ 10035774     Stdafx.obj
 0002:0000477c       ??_C@_15CBKOMCOI@?$AAm?$AAn@ 1003577c     Stdafx.obj
 0002:00004784       ??_C@_15CKDMCJAF@?$AAg?$AAl@ 10035784     Stdafx.obj
 0002:0000478c       ??_C@_17CNJFBPG@?$AAk?$AAo?$AAk@ 1003578c     Stdafx.obj
 0002:00004798       ??_C@_17FFBJICPL@?$AAs?$AAy?$AAr@ 10035798     Stdafx.obj
 0002:000047a4       ??_C@_17KPNDCPAF@?$AAd?$AAi?$AAv@ 100357a4     Stdafx.obj
 0002:000047b0       ??_C@_11LOCGONAA@@         100357b0     Stdafx.obj
 0002:000047b4       ??_C@_1M@OKAHONE@?$AAa?$AAr?$AA?9?$AAS?$AAA@ 100357b4     Stdafx.obj
 0002:000047c4       ??_C@_1M@FFFIGIGK@?$AAb?$AAg?$AA?9?$AAB?$AAG@ 100357c4     Stdafx.obj
 0002:000047d4       ??_C@_1M@BJNKEDC@?$AAc?$AAa?$AA?9?$AAE?$AAS@ 100357d4     Stdafx.obj
 0002:000047e4       ??_C@_1M@CLNBBOPM@?$AAz?$AAh?$AA?9?$AAT?$AAW@ 100357e4     Stdafx.obj
 0002:000047f4       ??_C@_1M@IJJHFJHA@?$AAc?$AAs?$AA?9?$AAC?$AAZ@ 100357f4     Stdafx.obj
 0002:00004804       ??_C@_1M@CLPEOBGI@?$AAd?$AAa?$AA?9?$AAD?$AAK@ 10035804     Stdafx.obj
 0002:00004814       ??_C@_1M@MCMADGCB@?$AAd?$AAe?$AA?9?$AAD?$AAE@ 10035814     Stdafx.obj
 0002:00004824       ??_C@_1M@OOCKEMAM@?$AAe?$AAl?$AA?9?$AAG?$AAR@ 10035824     Stdafx.obj
 0002:00004834       ??_C@_1M@BMHNFIME@?$AAe?$AAn?$AA?9?$AAU?$AAS@ 10035834     Stdafx.obj
 0002:00004844       ??_C@_1M@DDNJFGID@?$AAf?$AAi?$AA?9?$AAF?$AAI@ 10035844     Stdafx.obj
 0002:00004854       ??_C@_1M@GLIPPMAC@?$AAf?$AAr?$AA?9?$AAF?$AAR@ 10035854     Stdafx.obj
 0002:00004864       ??_C@_1M@GFMCHPE@?$AAh?$AAe?$AA?9?$AAI?$AAL@ 10035864     Stdafx.obj
 0002:00004874       ??_C@_1M@MHLPGNKM@?$AAh?$AAu?$AA?9?$AAH?$AAU@ 10035874     Stdafx.obj
 0002:00004884       ??_C@_1M@LPDDNNPN@?$AAi?$AAs?$AA?9?$AAI?$AAS@ 10035884     Stdafx.obj
 0002:00004894       ??_C@_1M@MADIPODN@?$AAi?$AAt?$AA?9?$AAI?$AAT@ 10035894     Stdafx.obj
 0002:000048a4       ??_C@_1M@HPNHIDJI@?$AAj?$AAa?$AA?9?$AAJ?$AAP@ 100358a4     Stdafx.obj
 0002:000048b4       ??_C@_1M@JLOOOEGK@?$AAk?$AAo?$AA?9?$AAK?$AAR@ 100358b4     Stdafx.obj
 0002:000048c4       ??_C@_1M@IHBJJGG@?$AAn?$AAl?$AA?9?$AAN?$AAL@ 100358c4     Stdafx.obj
 0002:000048d4       ??_C@_1M@EANAGDL@?$AAn?$AAb?$AA?9?$AAN?$AAO@ 100358d4     Stdafx.obj
 0002:000048e4       ??_C@_1M@NEIEMEGP@?$AAp?$AAl?$AA?9?$AAP?$AAL@ 100358e4     Stdafx.obj
 0002:000048f4       ??_C@_1M@BOCFIGEP@?$AAp?$AAt?$AA?9?$AAB?$AAR@ 100358f4     Stdafx.obj
 0002:00004904       ??_C@_1M@IMPFOPBG@?$AAr?$AAo?$AA?9?$AAR?$AAO@ 10035904     Stdafx.obj
 0002:00004914       ??_C@_1M@IDNNEJMM@?$AAr?$AAu?$AA?9?$AAR?$AAU@ 10035914     Stdafx.obj
 0002:00004924       ??_C@_1M@LILEEOGM@?$AAh?$AAr?$AA?9?$AAH?$AAR@ 10035924     Stdafx.obj
 0002:00004934       ??_C@_1M@FKIFEHPB@?$AAs?$AAk?$AA?9?$AAS?$AAK@ 10035934     Stdafx.obj
 0002:00004944       ??_C@_1M@LJMAMNPJ@?$AAs?$AAq?$AA?9?$AAA?$AAL@ 10035944     Stdafx.obj
 0002:00004954       ??_C@_1M@GIAKDKJK@?$AAs?$AAv?$AA?9?$AAS?$AAE@ 10035954     Stdafx.obj
 0002:00004964       ??_C@_1M@MKJKIKCL@?$AAt?$AAh?$AA?9?$AAT?$AAH@ 10035964     Stdafx.obj
 0002:00004974       ??_C@_1M@MFLCCMPB@?$AAt?$AAr?$AA?9?$AAT?$AAR@ 10035974     Stdafx.obj
 0002:00004984       ??_C@_1M@OIJHDKJN@?$AAu?$AAr?$AA?9?$AAP?$AAK@ 10035984     Stdafx.obj
 0002:00004994       ??_C@_1M@LHIPCIEK@?$AAi?$AAd?$AA?9?$AAI?$AAD@ 10035994     Stdafx.obj
 0002:000049a4       ??_C@_1M@MFMOBGI@?$AAu?$AAk?$AA?9?$AAU?$AAA@ 100359a4     Stdafx.obj
 0002:000049b4       ??_C@_1M@OBGLJIPL@?$AAb?$AAe?$AA?9?$AAB?$AAY@ 100359b4     Stdafx.obj
 0002:000049c4       ??_C@_1M@BCFAJEAD@?$AAs?$AAl?$AA?9?$AAS?$AAI@ 100359c4     Stdafx.obj
 0002:000049d4       ??_C@_1M@FKFFEDDN@?$AAe?$AAt?$AA?9?$AAE?$AAE@ 100359d4     Stdafx.obj
 0002:000049e4       ??_C@_1M@KGKKAACI@?$AAl?$AAv?$AA?9?$AAL?$AAV@ 100359e4     Stdafx.obj
 0002:000049f4       ??_C@_1M@IFGBIJO@?$AAl?$AAt?$AA?9?$AAL?$AAT@ 100359f4     Stdafx.obj
 0002:00004a04       ??_C@_1M@FGEAHEDM@?$AAf?$AAa?$AA?9?$AAI?$AAR@ 10035a04     Stdafx.obj
 0002:00004a14       ??_C@_1M@KBMAIBFN@?$AAv?$AAi?$AA?9?$AAV?$AAN@ 10035a14     Stdafx.obj
 0002:00004a24       ??_C@_1M@GPCBKDJK@?$AAh?$AAy?$AA?9?$AAA?$AAM@ 10035a24     Stdafx.obj
 0002:00004a34       ??_C@_1BG@BECMDDJB@?$AAa?$AAz?$AA?9?$AAA?$AAZ?$AA?9?$AAL?$AAa?$AAt?$AAn@ 10035a34     Stdafx.obj
 0002:00004a50       ??_C@_1M@MAOFCAEA@?$AAe?$AAu?$AA?9?$AAE?$AAS@ 10035a50     Stdafx.obj
 0002:00004a60       ??_C@_1M@IGHABKPI@?$AAm?$AAk?$AA?9?$AAM?$AAK@ 10035a60     Stdafx.obj
 0002:00004a70       ??_C@_1M@IAIGNEJG@?$AAt?$AAn?$AA?9?$AAZ?$AAA@ 10035a70     Stdafx.obj
 0002:00004a80       ??_C@_1M@IIJCOJFA@?$AAx?$AAh?$AA?9?$AAZ?$AAA@ 10035a80     Stdafx.obj
 0002:00004a90       ??_C@_1M@LGPJHNJH@?$AAz?$AAu?$AA?9?$AAZ?$AAA@ 10035a90     Stdafx.obj
 0002:00004aa0       ??_C@_1M@HOKAOIO@?$AAa?$AAf?$AA?9?$AAZ?$AAA@ 10035aa0     Stdafx.obj
 0002:00004ab0       ??_C@_1M@DPCLHLIE@?$AAk?$AAa?$AA?9?$AAG?$AAE@ 10035ab0     Stdafx.obj
 0002:00004ac0       ??_C@_1M@BLKMHJBI@?$AAf?$AAo?$AA?9?$AAF?$AAO@ 10035ac0     Stdafx.obj
 0002:00004ad0       ??_C@_1M@LGGJAPPB@?$AAh?$AAi?$AA?9?$AAI?$AAN@ 10035ad0     Stdafx.obj
 0002:00004ae0       ??_C@_1M@FIKPIHFE@?$AAm?$AAt?$AA?9?$AAM?$AAT@ 10035ae0     Stdafx.obj
 0002:00004af0       ??_C@_1M@HEGGPBFA@?$AAs?$AAe?$AA?9?$AAN?$AAO@ 10035af0     Stdafx.obj
 0002:00004b00       ??_C@_1M@EIBJEEPA@?$AAm?$AAs?$AA?9?$AAM?$AAY@ 10035b00     Stdafx.obj
 0002:00004b10       ??_C@_1M@FHLBGMPP@?$AAk?$AAk?$AA?9?$AAK?$AAZ@ 10035b10     Stdafx.obj
 0002:00004b20       ??_C@_1M@NGJJLCGI@?$AAk?$AAy?$AA?9?$AAK?$AAG@ 10035b20     Stdafx.obj
 0002:00004b30       ??_C@_1M@GIENNBFC@?$AAs?$AAw?$AA?9?$AAK?$AAE@ 10035b30     Stdafx.obj
 0002:00004b40       ??_C@_1BG@NDGMJIMJ@?$AAu?$AAz?$AA?9?$AAU?$AAZ?$AA?9?$AAL?$AAa?$AAt?$AAn@ 10035b40     Stdafx.obj
 0002:00004b5c       ??_C@_1M@IDCCIHBC@?$AAt?$AAt?$AA?9?$AAR?$AAU@ 10035b5c     Stdafx.obj
 0002:00004b6c       ??_C@_1M@LOICPMOJ@?$AAb?$AAn?$AA?9?$AAI?$AAN@ 10035b6c     Stdafx.obj
 0002:00004b7c       ??_C@_1M@KPKKNEAH@?$AAp?$AAa?$AA?9?$AAI?$AAN@ 10035b7c     Stdafx.obj
 0002:00004b8c       ??_C@_1M@PJGPPBOG@?$AAg?$AAu?$AA?9?$AAI?$AAN@ 10035b8c     Stdafx.obj
 0002:00004b9c       ??_C@_1M@KMKMOPHI@?$AAt?$AAa?$AA?9?$AAI?$AAN@ 10035b9c     Stdafx.obj
 0002:00004bac       ??_C@_1M@KFEHEPAC@?$AAt?$AAe?$AA?9?$AAI?$AAN@ 10035bac     Stdafx.obj
 0002:00004bbc       ??_C@_1M@CDCLMGHI@?$AAk?$AAn?$AA?9?$AAI?$AAN@ 10035bbc     Stdafx.obj
 0002:00004bcc       ??_C@_1M@MIODLDKF@?$AAm?$AAl?$AA?9?$AAI?$AAN@ 10035bcc     Stdafx.obj
 0002:00004bdc       ??_C@_1M@PBIEACPO@?$AAm?$AAr?$AA?9?$AAI?$AAN@ 10035bdc     Stdafx.obj
 0002:00004bec       ??_C@_1M@NIDEAGPH@?$AAs?$AAa?$AA?9?$AAI?$AAN@ 10035bec     Stdafx.obj
 0002:00004bfc       ??_C@_1M@FHIHCBIO@?$AAm?$AAn?$AA?9?$AAM?$AAN@ 10035bfc     Stdafx.obj
 0002:00004c0c       ??_C@_1M@JAIJPENP@?$AAc?$AAy?$AA?9?$AAG?$AAB@ 10035c0c     Stdafx.obj
 0002:00004c1c       ??_C@_1M@PHGFBEPN@?$AAg?$AAl?$AA?9?$AAE?$AAS@ 10035c1c     Stdafx.obj
 0002:00004c2c       ??_C@_1O@KPIPDNCP@?$AAk?$AAo?$AAk?$AA?9?$AAI?$AAN@ 10035c2c     Stdafx.obj
 0002:00004c3c       ??_C@_1O@KNHJLDJA@?$AAs?$AAy?$AAr?$AA?9?$AAS?$AAY@ 10035c3c     Stdafx.obj
 0002:00004c4c       ??_C@_1O@MKEKBLAH@?$AAd?$AAi?$AAv?$AA?9?$AAM?$AAV@ 10035c4c     Stdafx.obj
 0002:00004c5c       ??_C@_1O@OHDCKDDF@?$AAq?$AAu?$AAz?$AA?9?$AAB?$AAO@ 10035c5c     Stdafx.obj
 0002:00004c6c       ??_C@_1M@LEPJNLFD@?$AAn?$AAs?$AA?9?$AAZ?$AAA@ 10035c6c     Stdafx.obj
 0002:00004c7c       ??_C@_1M@OMLEIIJB@?$AAm?$AAi?$AA?9?$AAN?$AAZ@ 10035c7c     Stdafx.obj
 0002:00004c8c       ??_C@_1M@PMPEAILG@?$AAa?$AAr?$AA?9?$AAI?$AAQ@ 10035c8c     Stdafx.obj
 0002:00004c9c       ??_C@_1M@BIBDDEMK@?$AAz?$AAh?$AA?9?$AAC?$AAN@ 10035c9c     Stdafx.obj
 0002:00004cac       ??_C@_1M@CNKPNOEE@?$AAd?$AAe?$AA?9?$AAC?$AAH@ 10035cac     Stdafx.obj
 0002:00004cbc       ??_C@_1M@LKMGMLKO@?$AAe?$AAn?$AA?9?$AAG?$AAB@ 10035cbc     Stdafx.obj
 0002:00004ccc       ??_C@_1M@PGKJFFGL@?$AAe?$AAs?$AA?9?$AAM?$AAX@ 10035ccc     Stdafx.obj
 0002:00004cdc       ??_C@_1M@DNNANBDC@?$AAf?$AAr?$AA?9?$AAB?$AAE@ 10035cdc     Stdafx.obj
 0002:00004cec       ??_C@_1M@HLGMDFHM@?$AAi?$AAt?$AA?9?$AAC?$AAH@ 10035cec     Stdafx.obj
 0002:00004cfc       ??_C@_1M@CLLBGJH@?$AAn?$AAl?$AA?9?$AAB?$AAE@ 10035cfc     Stdafx.obj
 0002:00004d0c       ??_C@_1M@BODBOGLF@?$AAn?$AAn?$AA?9?$AAN?$AAO@ 10035d0c     Stdafx.obj
 0002:00004d1c       ??_C@_1M@HFFAHKAD@?$AAp?$AAt?$AA?9?$AAP?$AAT@ 10035d1c     Stdafx.obj
 0002:00004d2c       ??_C@_1BG@LNOAKHIE@?$AAs?$AAr?$AA?9?$AAS?$AAP?$AA?9?$AAL?$AAa?$AAt?$AAn@ 10035d2c     Stdafx.obj
 0002:00004d48       ??_C@_1M@HBMHBGAK@?$AAs?$AAv?$AA?9?$AAF?$AAI@ 10035d48     Stdafx.obj
 0002:00004d58       ??_C@_1BG@DGCJGJBE@?$AAa?$AAz?$AA?9?$AAA?$AAZ?$AA?9?$AAC?$AAy?$AAr?$AAl@ 10035d58     Stdafx.obj
 0002:00004d74       ??_C@_1M@KEJDAAHB@?$AAs?$AAe?$AA?9?$AAS?$AAE@ 10035d74     Stdafx.obj
 0002:00004d84       ??_C@_1M@HEIBJJAD@?$AAm?$AAs?$AA?9?$AAB?$AAN@ 10035d84     Stdafx.obj
 0002:00004d94       ??_C@_1BG@PBGJMCEM@?$AAu?$AAz?$AA?9?$AAU?$AAZ?$AA?9?$AAC?$AAy?$AAr?$AAl@ 10035d94     Stdafx.obj
 0002:00004db0       ??_C@_1O@LAOBCMDF@?$AAq?$AAu?$AAz?$AA?9?$AAE?$AAC@ 10035db0     Stdafx.obj
 0002:00004dc0       ??_C@_1M@POEEMAIO@?$AAa?$AAr?$AA?9?$AAE?$AAG@ 10035dc0     Stdafx.obj
 0002:00004dd0       ??_C@_1M@EFAKDEDL@?$AAz?$AAh?$AA?9?$AAH?$AAK@ 10035dd0     Stdafx.obj
 0002:00004de0       ??_C@_1M@HKKIJHGI@?$AAd?$AAe?$AA?9?$AAA?$AAT@ 10035de0     Stdafx.obj
 0002:00004df0       ??_C@_1M@KBFBEHJF@?$AAe?$AAn?$AA?9?$AAA?$AAU@ 10035df0     Stdafx.obj
 0002:00004e00       ??_C@_1M@MNPLFAAH@?$AAe?$AAs?$AA?9?$AAE?$AAS@ 10035e00     Stdafx.obj
 0002:00004e10       ??_C@_1M@HJOOJFMA@?$AAf?$AAr?$AA?9?$AAC?$AAA@ 10035e10     Stdafx.obj
 0002:00004e20       ??_C@_1BG@JPOFPNAB@?$AAs?$AAr?$AA?9?$AAS?$AAP?$AA?9?$AAC?$AAy?$AAr?$AAl@ 10035e20     Stdafx.obj
 0002:00004e3c       ??_C@_1M@LNFOCMOB@?$AAs?$AAe?$AA?9?$AAF?$AAI@ 10035e3c     Stdafx.obj
 0002:00004e4c       ??_C@_1O@MGJBOAMB@?$AAq?$AAu?$AAz?$AA?9?$AAP?$AAE@ 10035e4c     Stdafx.obj
 0002:00004e5c       ??_C@_1M@GJINLBOK@?$AAa?$AAr?$AA?9?$AAL?$AAY@ 10035e5c     Stdafx.obj
 0002:00004e6c       ??_C@_1M@GGMNHJNL@?$AAz?$AAh?$AA?9?$AAS?$AAG@ 10035e6c     Stdafx.obj
 0002:00004e7c       ??_C@_1M@HOIKODND@?$AAd?$AAe?$AA?9?$AAL?$AAU@ 10035e7c     Stdafx.obj
 0002:00004e8c       ??_C@_1M@DDOCCGFG@?$AAe?$AAn?$AA?9?$AAC?$AAA@ 10035e8c     Stdafx.obj
 0002:00004e9c       ??_C@_1M@BNOEMJLF@?$AAe?$AAs?$AA?9?$AAG?$AAT@ 10035e9c     Stdafx.obj
 0002:00004eac       ??_C@_1M@EOGNKEK@?$AAf?$AAr?$AA?9?$AAC?$AAH@ 10035eac     Stdafx.obj
 0002:00004ebc       ??_C@_1M@FLIDJFHL@?$AAh?$AAr?$AA?9?$AAB?$AAA@ 10035ebc     Stdafx.obj
 0002:00004ecc       ??_C@_1O@FMCELNAJ@?$AAs?$AAm?$AAj?$AA?9?$AAN?$AAO@ 10035ecc     Stdafx.obj
 0002:00004edc       ??_C@_1M@JHGLJMGJ@?$AAa?$AAr?$AA?9?$AAD?$AAZ@ 10035edc     Stdafx.obj
 0002:00004eec       ??_C@_1M@JKKFDCNP@?$AAz?$AAh?$AA?9?$AAM?$AAO@ 10035eec     Stdafx.obj
 0002:00004efc       ??_C@_1M@GEEFALPE@?$AAd?$AAe?$AA?9?$AAL?$AAI@ 10035efc     Stdafx.obj
 0002:00004f0c       ??_C@_1M@IGEOFBG@?$AAe?$AAn?$AA?9?$AAN?$AAZ@ 10035f0c     Stdafx.obj
 0002:00004f1c       ??_C@_1M@KDBONEHP@?$AAe?$AAs?$AA?9?$AAC?$AAR@ 10035f1c     Stdafx.obj
 0002:00004f2c       ??_C@_1M@FHMDOHNN@?$AAf?$AAr?$AA?9?$AAL?$AAU@ 10035f2c     Stdafx.obj
 0002:00004f3c       ??_C@_1BG@NFKKMAFG@?$AAb?$AAs?$AA?9?$AAB?$AAA?$AA?9?$AAL?$AAa?$AAt?$AAn@ 10035f3c     Stdafx.obj
 0002:00004f58       ??_C@_1O@IMNBEMCI@?$AAs?$AAm?$AAj?$AA?9?$AAS?$AAE@ 10035f58     Stdafx.obj
 0002:00004f68       ??_C@_1M@DHHMBNDP@?$AAa?$AAr?$AA?9?$AAM?$AAA@ 10035f68     Stdafx.obj
 0002:00004f78       ??_C@_1M@BNBLJCGH@?$AAe?$AAn?$AA?9?$AAI?$AAE@ 10035f78     Stdafx.obj
 0002:00004f88       ??_C@_1M@GEPAFMDL@?$AAe?$AAs?$AA?9?$AAP?$AAA@ 10035f88     Stdafx.obj
 0002:00004f98       ??_C@_1M@OJONDMDL@?$AAf?$AAr?$AA?9?$AAM?$AAC@ 10035f98     Stdafx.obj
 0002:00004fa8       ??_C@_1BG@OBCNFJB@?$AAs?$AAr?$AA?9?$AAB?$AAA?$AA?9?$AAL?$AAa?$AAt?$AAn@ 10035fa8     Stdafx.obj
 0002:00004fc4       ??_C@_1O@KEMEEGPO@?$AAs?$AAm?$AAa?$AA?9?$AAN?$AAO@ 10035fc4     Stdafx.obj
 0002:00004fd4       ??_C@_1M@ELMGFODK@?$AAa?$AAr?$AA?9?$AAT?$AAN@ 10035fd4     Stdafx.obj
 0002:00004fe4       ??_C@_1M@BHDLHFAF@?$AAe?$AAn?$AA?9?$AAZ?$AAA@ 10035fe4     Stdafx.obj
 0002:00004ff4       ??_C@_1M@BMGIGLIF@?$AAe?$AAs?$AA?9?$AAD?$AAO@ 10035ff4     Stdafx.obj
 0002:00005004       ??_C@_1BG@CMBHIPBE@?$AAs?$AAr?$AA?9?$AAB?$AAA?$AA?9?$AAC?$AAy?$AAr?$AAl@ 10036004     Stdafx.obj
 0002:00005020       ??_C@_1O@HEDBLHNP@?$AAs?$AAm?$AAa?$AA?9?$AAS?$AAE@ 10036020     Stdafx.obj
 0002:00005030       ??_C@_1M@DAGCADIM@?$AAa?$AAr?$AA?9?$AAO?$AAM@ 10036030     Stdafx.obj
 0002:00005040       ??_C@_1M@FODLMICG@?$AAe?$AAn?$AA?9?$AAJ?$AAM@ 10036040     Stdafx.obj
 0002:00005050       ??_C@_1M@DNMLCIHB@?$AAe?$AAs?$AA?9?$AAV?$AAE@ 10036050     Stdafx.obj
 0002:00005060       ??_C@_1O@EOKHMKJK@?$AAs?$AAm?$AAs?$AA?9?$AAF?$AAI@ 10036060     Stdafx.obj
 0002:00005070       ??_C@_1M@CAFJMKOF@?$AAa?$AAr?$AA?9?$AAY?$AAE@ 10036070     Stdafx.obj
 0002:00005080       ??_C@_1M@CBFHIJLI@?$AAe?$AAn?$AA?9?$AAC?$AAB@ 10036080     Stdafx.obj
 0002:00005090       ??_C@_1M@BGNFLDN@?$AAe?$AAs?$AA?9?$AAC?$AAO@ 10036090     Stdafx.obj
 0002:000050a0       ??_C@_1O@JMPHMAMC@?$AAs?$AAm?$AAn?$AA?9?$AAF?$AAI@ 100360a0     Stdafx.obj
 0002:000050b0       ??_C@_1M@JLANABKE@?$AAa?$AAr?$AA?9?$AAS?$AAY@ 100360b0     Stdafx.obj
 0002:000050c0       ??_C@_1M@HPKGCFGN@?$AAe?$AAn?$AA?9?$AAB?$AAZ@ 100360c0     Stdafx.obj
 0002:000050d0       ??_C@_1M@OLJCMLGM@?$AAe?$AAs?$AA?9?$AAP?$AAE@ 100360d0     Stdafx.obj
 0002:000050e0       ??_C@_1M@MKKGFKLE@?$AAa?$AAr?$AA?9?$AAJ?$AAO@ 100360e0     Stdafx.obj
 0002:000050f0       ??_C@_1M@EKPGLDNI@?$AAe?$AAn?$AA?9?$AAT?$AAT@ 100360f0     Stdafx.obj
 0002:00005100       ??_C@_1M@OONGHFHE@?$AAe?$AAs?$AA?9?$AAA?$AAR@ 10036100     Stdafx.obj
 0002:00005110       ??_C@_1M@OOJFGBHE@?$AAa?$AAr?$AA?9?$AAL?$AAB@ 10036110     Stdafx.obj
 0002:00005120       ??_C@_1M@GCEJHNEG@?$AAe?$AAn?$AA?9?$AAZ?$AAW@ 10036120     Stdafx.obj
 0002:00005130       ??_C@_1M@JNOCAHJI@?$AAe?$AAs?$AA?9?$AAE?$AAC@ 10036130     Stdafx.obj
 0002:00005140       ??_C@_1M@JEFHPGGB@?$AAa?$AAr?$AA?9?$AAK?$AAW@ 10036140     Stdafx.obj
 0002:00005150       ??_C@_1M@MLKIBJOJ@?$AAe?$AAn?$AA?9?$AAP?$AAH@ 10036150     Stdafx.obj
 0002:00005160       ??_C@_1M@BDNIPEND@?$AAe?$AAs?$AA?9?$AAC?$AAL@ 10036160     Stdafx.obj
 0002:00005170       ??_C@_1M@MPNMEKBD@?$AAa?$AAr?$AA?9?$AAA?$AAE@ 10036170     Stdafx.obj
 0002:00005180       ??_C@_1M@KBJALCPI@?$AAe?$AAs?$AA?9?$AAU?$AAY@ 10036180     Stdafx.obj
 0002:00005190       ??_C@_1M@LLCCOAGA@?$AAa?$AAr?$AA?9?$AAB?$AAH@ 10036190     Stdafx.obj
 0002:000051a0       ??_C@_1M@PBFNCDEL@?$AAe?$AAs?$AA?9?$AAP?$AAY@ 100361a0     Stdafx.obj
 0002:000051b0       ??_C@_1M@EDGINPNP@?$AAa?$AAr?$AA?9?$AAQ?$AAA@ 100361b0     Stdafx.obj
 0002:000051c0       ??_C@_1M@MKDBIIJI@?$AAe?$AAs?$AA?9?$AAB?$AAO@ 100361c0     Stdafx.obj
 0002:000051d0       ??_C@_1M@CPKKEBLD@?$AAe?$AAs?$AA?9?$AAS?$AAV@ 100361d0     Stdafx.obj
 0002:000051e0       ??_C@_1M@NDBGMMJL@?$AAe?$AAs?$AA?9?$AAH?$AAN@ 100361e0     Stdafx.obj
 0002:000051f0       ??_C@_1M@JIJIBHDP@?$AAe?$AAs?$AA?9?$AAN?$AAI@ 100361f0     Stdafx.obj
 0002:00005200       ??_C@_1M@CGFMKEEK@?$AAe?$AAs?$AA?9?$AAP?$AAR@ 10036200     Stdafx.obj
 0002:00005210       ??_C@_1O@ICJHKIIK@?$AAz?$AAh?$AA?9?$AAC?$AAH?$AAT@ 10036210     Stdafx.obj
 0002:00005220       ??_C@_15CLNEJCE@?$AAs?$AAr@ 10036220     Stdafx.obj
 0002:00005228       __pAtlLocaleNameToIndexTable 10036228     Stdafx.obj
 0002:00005ab4       ??_C@_1M@KAHEKEIG@?$AAa?$AAf?$AA?9?$AAz?$AAa@ 10036ab4     Stdafx.obj
 0002:00005ac4       ??_C@_1M@GIECOABL@?$AAa?$AAr?$AA?9?$AAa?$AAe@ 10036ac4     Stdafx.obj
 0002:00005ad4       ??_C@_1M@BMLMEKGI@?$AAa?$AAr?$AA?9?$AAb?$AAh@ 10036ad4     Stdafx.obj
 0002:00005ae4       ??_C@_1M@DAPFDGGB@?$AAa?$AAr?$AA?9?$AAd?$AAz@ 10036ae4     Stdafx.obj
 0002:00005af4       ??_C@_1M@FJNKGKIG@?$AAa?$AAr?$AA?9?$AAe?$AAg@ 10036af4     Stdafx.obj
 0002:00005b04       ??_C@_1M@FLGKKCLO@?$AAa?$AAr?$AA?9?$AAi?$AAq@ 10036b04     Stdafx.obj
 0002:00005b14       ??_C@_1M@GNDIPALM@?$AAa?$AAr?$AA?9?$AAj?$AAo@ 10036b14     Stdafx.obj
 0002:00005b24       ??_C@_1M@DDMJFMGJ@?$AAa?$AAr?$AA?9?$AAk?$AAw@ 10036b24     Stdafx.obj
 0002:00005b34       ??_C@_1M@EJALMLHM@?$AAa?$AAr?$AA?9?$AAl?$AAb@ 10036b34     Stdafx.obj
 0002:00005b44       ??_C@_1M@MOBDBLOC@?$AAa?$AAr?$AA?9?$AAl?$AAy@ 10036b44     Stdafx.obj
 0002:00005b54       ??_C@_1M@JAOCLHDH@?$AAa?$AAr?$AA?9?$AAm?$AAa@ 10036b54     Stdafx.obj
 0002:00005b64       ??_C@_1M@JHPMKJIE@?$AAa?$AAr?$AA?9?$AAo?$AAm@ 10036b64     Stdafx.obj
 0002:00005b74       ??_C@_1M@OEPGHFNH@?$AAa?$AAr?$AA?9?$AAq?$AAa@ 10036b74     Stdafx.obj
 0002:00005b84       ??_C@_1M@KJDONENM@?$AAa?$AAr?$AA?9?$AAs?$AAa@ 10036b84     Stdafx.obj
 0002:00005b94       ??_C@_1M@DMJDKLKM@?$AAa?$AAr?$AA?9?$AAs?$AAy@ 10036b94     Stdafx.obj
 0002:00005ba4       ??_C@_1M@OMFIPEDC@?$AAa?$AAr?$AA?9?$AAt?$AAn@ 10036ba4     Stdafx.obj
 0002:00005bb4       ??_C@_1M@IHMHGAON@?$AAa?$AAr?$AA?9?$AAy?$AAe@ 10036bb4     Stdafx.obj
 0002:00005bc4       ??_C@_1BG@KDCPGJGB@?$AAa?$AAz?$AA?9?$AAa?$AAz?$AA?9?$AAc?$AAy?$AAr?$AAl@ 10036bc4     Stdafx.obj
 0002:00005be0       ??_C@_1BG@IBCKDDOE@?$AAa?$AAz?$AA?9?$AAa?$AAz?$AA?9?$AAl?$AAa?$AAt?$AAn@ 10036be0     Stdafx.obj
 0002:00005bfc       ??_C@_1M@EGPFDCPD@?$AAb?$AAe?$AA?9?$AAb?$AAy@ 10036bfc     Stdafx.obj
 0002:00005c0c       ??_C@_1M@PCMGMCGC@?$AAb?$AAg?$AA?9?$AAb?$AAg@ 10036c0c     Stdafx.obj
 0002:00005c1c       ??_C@_1M@BJBMFGOB@?$AAb?$AAn?$AA?9?$AAi?$AAn@ 10036c1c     Stdafx.obj
 0002:00005c2c       ??_C@_1BG@EAKMMACD@?$AAb?$AAs?$AA?9?$AAb?$AAa?$AA?9?$AAl?$AAa?$AAt?$AAn@ 10036c2c     Stdafx.obj
 0002:00005c48       ??_C@_1M@KGADAODK@?$AAc?$AAa?$AA?9?$AAe?$AAs@ 10036c48     Stdafx.obj
 0002:00005c58       ??_C@_1M@COAJPDHI@?$AAc?$AAs?$AA?9?$AAc?$AAz@ 10036c58     Stdafx.obj
 0002:00005c68       ??_C@_1M@DHBHFONH@?$AAc?$AAy?$AA?9?$AAg?$AAb@ 10036c68     Stdafx.obj
 0002:00005c78       ??_C@_1M@IMGKELGA@?$AAd?$AAa?$AA?9?$AAd?$AAk@ 10036c78     Stdafx.obj
 0002:00005c88       ??_C@_1M@NNDGDNGA@?$AAd?$AAe?$AA?9?$AAa?$AAt@ 10036c88     Stdafx.obj
 0002:00005c98       ??_C@_1M@IKDBHEEM@?$AAd?$AAe?$AA?9?$AAc?$AAh@ 10036c98     Stdafx.obj
 0002:00005ca8       ??_C@_1M@GFFOJMCJ@?$AAd?$AAe?$AA?9?$AAd?$AAe@ 10036ca8     Stdafx.obj
 0002:00005cb8       ??_C@_1M@MDNLKBPM@?$AAd?$AAe?$AA?9?$AAl?$AAi@ 10036cb8     Stdafx.obj
 0002:00005cc8       ??_C@_1M@NJBEEJNL@?$AAd?$AAe?$AA?9?$AAl?$AAu@ 10036cc8     Stdafx.obj
 0002:00005cd8       ??_C@_1O@GNNELBAP@?$AAd?$AAi?$AAv?$AA?9?$AAm?$AAv@ 10036cd8     Stdafx.obj
 0002:00005ce8       ??_C@_1M@EJLEOGAE@?$AAe?$AAl?$AA?9?$AAg?$AAr@ 10036ce8     Stdafx.obj
 0002:00005cf8       ??_C@_1M@GMPONJN@?$AAe?$AAn?$AA?9?$AAa?$AAu@ 10036cf8     Stdafx.obj
 0002:00005d08       ??_C@_1M@NIDIIPGF@?$AAe?$AAn?$AA?9?$AAb?$AAz@ 10036d08     Stdafx.obj
 0002:00005d18       ??_C@_1M@JEHMIMFO@?$AAe?$AAn?$AA?9?$AAc?$AAa@ 10036d18     Stdafx.obj
 0002:00005d28       ??_C@_1M@IGMJCDLA@?$AAe?$AAn?$AA?9?$AAc?$AAb@ 10036d28     Stdafx.obj
 0002:00005d38       ??_C@_1M@BNFIGBKG@?$AAe?$AAn?$AA?9?$AAg?$AAb@ 10036d38     Stdafx.obj
 0002:00005d48       ??_C@_1M@LKIFDIGP@?$AAe?$AAn?$AA?9?$AAi?$AAe@ 10036d48     Stdafx.obj
 0002:00005d58       ??_C@_1M@PJKFGCCO@?$AAe?$AAn?$AA?9?$AAj?$AAm@ 10036d58     Stdafx.obj
 0002:00005d68       ??_C@_1M@KPPKEPBO@?$AAe?$AAn?$AA?9?$AAn?$AAz@ 10036d68     Stdafx.obj
 0002:00005d78       ??_C@_1M@GMDGLDOB@?$AAe?$AAn?$AA?9?$AAp?$AAh@ 10036d78     Stdafx.obj
 0002:00005d88       ??_C@_1M@ONGIBJNA@?$AAe?$AAn?$AA?9?$AAt?$AAt@ 10036d88     Stdafx.obj
 0002:00005d98       ??_C@_1M@LLODPCMM@?$AAe?$AAn?$AA?9?$AAu?$AAs@ 10036d98     Stdafx.obj
 0002:00005da8       ??_C@_1M@LAKFNPAN@?$AAe?$AAn?$AA?9?$AAz?$AAa@ 10036da8     Stdafx.obj
 0002:00005db8       ??_C@_1M@MFNHNHEO@?$AAe?$AAn?$AA?9?$AAz?$AAw@ 10036db8     Stdafx.obj
 0002:00005dc8       ??_C@_1M@EJEINPHM@?$AAe?$AAs?$AA?9?$AAa?$AAr@ 10036dc8     Stdafx.obj
 0002:00005dd8       ??_C@_1M@GNKPCCJA@?$AAe?$AAs?$AA?9?$AAb?$AAo@ 10036dd8     Stdafx.obj
 0002:00005de8       ??_C@_1M@LEEGFONL@?$AAe?$AAs?$AA?9?$AAc?$AAl@ 10036de8     Stdafx.obj
 0002:00005df8       ??_C@_1M@KGPDPBDF@?$AAe?$AAs?$AA?9?$AAc?$AAo@ 10036df8     Stdafx.obj
 0002:00005e08       ??_C@_1M@EIAHOHH@?$AAe?$AAs?$AA?9?$AAc?$AAr@ 10036e08     Stdafx.obj
 0002:00005e18       ??_C@_1M@LLPGMBIN@?$AAe?$AAs?$AA?9?$AAd?$AAo@ 10036e18     Stdafx.obj
 0002:00005e28       ??_C@_1M@DKHMKNJA@?$AAe?$AAs?$AA?9?$AAe?$AAc@ 10036e28     Stdafx.obj
 0002:00005e38       ??_C@_1M@GKGFPKAP@?$AAe?$AAs?$AA?9?$AAe?$AAs@ 10036e38     Stdafx.obj
 0002:00005e48       ??_C@_1M@LKHKGDLN@?$AAe?$AAs?$AA?9?$AAg?$AAt@ 10036e48     Stdafx.obj
 0002:00005e58       ??_C@_1M@HEIIGGJD@?$AAe?$AAs?$AA?9?$AAh?$AAn@ 10036e58     Stdafx.obj
 0002:00005e68       ??_C@_1M@FBDHPPGD@?$AAe?$AAs?$AA?9?$AAm?$AAx@ 10036e68     Stdafx.obj
 0002:00005e78       ??_C@_1M@DPAGLNDH@?$AAe?$AAs?$AA?9?$AAn?$AAi@ 10036e78     Stdafx.obj
 0002:00005e88       ??_C@_1M@MDGOPGDD@?$AAe?$AAs?$AA?9?$AAp?$AAa@ 10036e88     Stdafx.obj
 0002:00005e98       ??_C@_1M@EMAMGBGE@?$AAe?$AAs?$AA?9?$AAp?$AAe@ 10036e98     Stdafx.obj
 0002:00005ea8       ??_C@_1M@IBMCAOEC@?$AAe?$AAs?$AA?9?$AAp?$AAr@ 10036ea8     Stdafx.obj
 0002:00005eb8       ??_C@_1M@FGMDIJED@?$AAe?$AAs?$AA?9?$AAp?$AAy@ 10036eb8     Stdafx.obj
 0002:00005ec8       ??_C@_1M@IIDEOLLL@?$AAe?$AAs?$AA?9?$AAs?$AAv@ 10036ec8     Stdafx.obj
 0002:00005ed8       ??_C@_1M@GAOBIPA@?$AAe?$AAs?$AA?9?$AAu?$AAy@ 10036ed8     Stdafx.obj
 0002:00005ee8       ??_C@_1M@JKFFICHJ@?$AAe?$AAs?$AA?9?$AAv?$AAe@ 10036ee8     Stdafx.obj
 0002:00005ef8       ??_C@_1M@PNMLOJDF@?$AAe?$AAt?$AA?9?$AAe?$AAe@ 10036ef8     Stdafx.obj
 0002:00005f08       ??_C@_1M@GHHLIKEI@?$AAe?$AAu?$AA?9?$AAe?$AAs@ 10036f08     Stdafx.obj
 0002:00005f18       ??_C@_1M@PBNONODE@?$AAf?$AAa?$AA?9?$AAi?$AAr@ 10036f18     Stdafx.obj
 0002:00005f28       ??_C@_1M@JEEHPMIL@?$AAf?$AAi?$AA?9?$AAf?$AAi@ 10036f28     Stdafx.obj
 0002:00005f38       ??_C@_1M@LMDCNDBA@?$AAf?$AAo?$AA?9?$AAf?$AAo@ 10036f38     Stdafx.obj
 0002:00005f48       ??_C@_1M@JKEOHLDK@?$AAf?$AAr?$AA?9?$AAb?$AAe@ 10036f48     Stdafx.obj
 0002:00005f58       ??_C@_1M@NOHADPMI@?$AAf?$AAr?$AA?9?$AAc?$AAa@ 10036f58     Stdafx.obj
 0002:00005f68       ??_C@_1M@KDHIHAEC@?$AAf?$AAr?$AA?9?$AAc?$AAh@ 10036f68     Stdafx.obj
 0002:00005f78       ??_C@_1M@MMBBFGAK@?$AAf?$AAr?$AA?9?$AAf?$AAr@ 10036f78     Stdafx.obj
 0002:00005f88       ??_C@_1M@PAFNENNF@?$AAf?$AAr?$AA?9?$AAl?$AAu@ 10036f88     Stdafx.obj
 0002:00005f98       ??_C@_1M@EOHDJGDD@?$AAf?$AAr?$AA?9?$AAm?$AAc@ 10036f98     Stdafx.obj
 0002:00005fa8       ??_C@_1M@FAPLLOPF@?$AAg?$AAl?$AA?9?$AAe?$AAs@ 10036fa8     Stdafx.obj
 0002:00005fb8       ??_C@_1M@FOPBFLOO@?$AAg?$AAu?$AA?9?$AAi?$AAn@ 10036fb8     Stdafx.obj
 0002:00005fc8       ??_C@_1M@KBMCINPM@?$AAh?$AAe?$AA?9?$AAi?$AAl@ 10036fc8     Stdafx.obj
 0002:00005fd8       ??_C@_1M@BBPHKFPJ@?$AAh?$AAi?$AA?9?$AAi?$AAn@ 10036fd8     Stdafx.obj
 0002:00005fe8       ??_C@_1M@PMBNDPHD@?$AAh?$AAr?$AA?9?$AAb?$AAa@ 10036fe8     Stdafx.obj
 0002:00005ff8       ??_C@_1M@BPCKOEGE@?$AAh?$AAr?$AA?9?$AAh?$AAr@ 10036ff8     Stdafx.obj
 0002:00006008       ??_C@_1M@GACBMHKE@?$AAh?$AAu?$AA?9?$AAh?$AAu@ 10037008     Stdafx.obj
 0002:00006018       ??_C@_1M@MILPAJJC@?$AAh?$AAy?$AA?9?$AAa?$AAm@ 10037018     Stdafx.obj
 0002:00006028       ??_C@_1M@BABBICEC@?$AAi?$AAd?$AA?9?$AAi?$AAd@ 10037028     Stdafx.obj
 0002:00006038       ??_C@_1M@BIKNHHPF@?$AAi?$AAs?$AA?9?$AAi?$AAs@ 10037038     Stdafx.obj
 0002:00006048       ??_C@_1M@NMPCJPHE@?$AAi?$AAt?$AA?9?$AAc?$AAh@ 10037048     Stdafx.obj
 0002:00006058       ??_C@_1M@GHKGFEDF@?$AAi?$AAt?$AA?9?$AAi?$AAt@ 10037058     Stdafx.obj
 0002:00006068       ??_C@_1M@NIEJCJJA@?$AAj?$AAa?$AA?9?$AAj?$AAp@ 10037068     Stdafx.obj
 0002:00006078       ??_C@_1M@JILFNBIM@?$AAk?$AAa?$AA?9?$AAg?$AAe@ 10037078     Stdafx.obj
 0002:00006088       ??_C@_1M@PACPMGPH@?$AAk?$AAk?$AA?9?$AAk?$AAz@ 10037088     Stdafx.obj
 0002:00006098       ??_C@_1M@IELFGMHA@?$AAk?$AAn?$AA?9?$AAi?$AAn@ 10037098     Stdafx.obj
 0002:000060a8       ??_C@_1O@IBBJHCH@?$AAk?$AAo?$AAk?$AA?9?$AAi?$AAn@ 100370a8     Stdafx.obj
 0002:000060b8       ??_C@_1M@DMHAEOGC@?$AAk?$AAo?$AA?9?$AAk?$AAr@ 100370b8     Stdafx.obj
 0002:000060c8       ??_C@_1M@HBAHBIGA@?$AAk?$AAy?$AA?9?$AAk?$AAg@ 100370c8     Stdafx.obj
 0002:000060d8       ??_C@_1M@KPMILCJG@?$AAl?$AAt?$AA?9?$AAl?$AAt@ 100370d8     Stdafx.obj
 0002:000060e8       ??_C@_1M@BDEKKCA@?$AAl?$AAv?$AA?9?$AAl?$AAv@ 100370e8     Stdafx.obj
 0002:000060f8       ??_C@_1M@ELCKCCJJ@?$AAm?$AAi?$AA?9?$AAn?$AAz@ 100370f8     Stdafx.obj
 0002:00006108       ??_C@_1M@CBOOLAPA@?$AAm?$AAk?$AA?9?$AAm?$AAk@ 10037108     Stdafx.obj
 0002:00006118       ??_C@_1M@GPHNBJKN@?$AAm?$AAl?$AA?9?$AAi?$AAn@ 10037118     Stdafx.obj
 0002:00006128       ??_C@_1M@PABJILIG@?$AAm?$AAn?$AA?9?$AAm?$AAn@ 10037128     Stdafx.obj
 0002:00006138       ??_C@_1M@FGBKKIPG@?$AAm?$AAr?$AA?9?$AAi?$AAn@ 10037138     Stdafx.obj
 0002:00006148       ??_C@_1M@NDBPDDAL@?$AAm?$AAs?$AA?9?$AAb?$AAn@ 10037148     Stdafx.obj
 0002:00006158       ??_C@_1M@OPIHOOPI@?$AAm?$AAs?$AA?9?$AAm?$AAy@ 10037158     Stdafx.obj
 0002:00006168       ??_C@_1M@PPDBCNFM@?$AAm?$AAt?$AA?9?$AAm?$AAt@ 10037168     Stdafx.obj
 0002:00006178       ??_C@_1M@KDJDKMDD@?$AAn?$AAb?$AA?9?$AAn?$AAo@ 10037178     Stdafx.obj
 0002:00006188       ??_C@_1M@KFCFLMJP@?$AAn?$AAl?$AA?9?$AAb?$AAe@ 10037188     Stdafx.obj
 0002:00006198       ??_C@_1M@KPOPDDGO@?$AAn?$AAl?$AA?9?$AAn?$AAl@ 10037198     Stdafx.obj
 0002:000061a8       ??_C@_1M@LJKPEMLN@?$AAn?$AAn?$AA?9?$AAn?$AAo@ 100371a8     Stdafx.obj
 0002:000061b8       ??_C@_1M@BDGHHBFL@?$AAn?$AAs?$AA?9?$AAz?$AAa@ 100371b8     Stdafx.obj
 0002:000061c8       ??_C@_1M@IDEHOAP@?$AAp?$AAa?$AA?9?$AAi?$AAn@ 100371c8     Stdafx.obj
 0002:000061d8       ??_C@_1M@HDBKGOGH@?$AAp?$AAl?$AA?9?$AAp?$AAl@ 100371d8     Stdafx.obj
 0002:000061e8       ??_C@_1M@LJLLCMEH@?$AAp?$AAt?$AA?9?$AAb?$AAr@ 100371e8     Stdafx.obj
 0002:000061f8       ??_C@_1M@NCMONAAL@?$AAp?$AAt?$AA?9?$AAp?$AAt@ 100371f8     Stdafx.obj
 0002:00006208       ??_C@_1O@EAKMAJDN@?$AAq?$AAu?$AAz?$AA?9?$AAb?$AAo@ 10037208     Stdafx.obj
 0002:00006218       ??_C@_1O@BHHPIGDN@?$AAq?$AAu?$AAz?$AA?9?$AAe?$AAc@ 10037218     Stdafx.obj
 0002:00006228       ??_C@_1O@GBAPEKMJ@?$AAq?$AAu?$AAz?$AA?9?$AAp?$AAe@ 10037228     Stdafx.obj
 0002:00006238       ??_C@_1M@CLGLEFBO@?$AAr?$AAo?$AA?9?$AAr?$AAo@ 10037238     Stdafx.obj
 0002:00006248       ??_C@_1M@CEEDODME@?$AAr?$AAu?$AA?9?$AAr?$AAu@ 10037248     Stdafx.obj
 0002:00006258       ??_C@_1M@HPKKKMPP@?$AAs?$AAa?$AA?9?$AAi?$AAn@ 10037258     Stdafx.obj
 0002:00006268       ??_C@_1M@BKMAIGOJ@?$AAs?$AAe?$AA?9?$AAf?$AAi@ 10037268     Stdafx.obj
 0002:00006278       ??_C@_1M@NDPIFLFI@?$AAs?$AAe?$AA?9?$AAn?$AAo@ 10037278     Stdafx.obj
 0002:00006288       ??_C@_1M@DANKKHJ@?$AAs?$AAe?$AA?9?$AAs?$AAe@ 10037288     Stdafx.obj
 0002:00006298       ??_C@_1M@PNBLONPJ@?$AAs?$AAk?$AA?9?$AAs?$AAk@ 10037298     Stdafx.obj
 0002:000062a8       ??_C@_1M@LFMODOAL@?$AAs?$AAl?$AA?9?$AAs?$AAi@ 100372a8     Stdafx.obj
 0002:000062b8       ??_C@_1O@DFKOMPG@?$AAs?$AAm?$AAa?$AA?9?$AAn?$AAo@ 100372b8     Stdafx.obj
 0002:000062c8       ??_C@_1O@NDKPBNNH@?$AAs?$AAm?$AAa?$AA?9?$AAs?$AAe@ 100372c8     Stdafx.obj
 0002:000062d8       ??_C@_1O@PLLKBHAB@?$AAs?$AAm?$AAj?$AA?9?$AAn?$AAo@ 100372d8     Stdafx.obj
 0002:000062e8       ??_C@_1O@CLEPOGCA@?$AAs?$AAm?$AAj?$AA?9?$AAs?$AAe@ 100372e8     Stdafx.obj
 0002:000062f8       ??_C@_1O@DLGJGKMK@?$AAs?$AAm?$AAn?$AA?9?$AAf?$AAi@ 100372f8     Stdafx.obj
 0002:00006308       ??_C@_1O@OJDJGAJC@?$AAs?$AAm?$AAs?$AA?9?$AAf?$AAi@ 10037308     Stdafx.obj
 0002:00006318       ??_C@_1M@BOFOGHPB@?$AAs?$AAq?$AA?9?$AAa?$AAl@ 10037318     Stdafx.obj
 0002:00006328       ??_C@_1BG@LJBBIPGB@?$AAs?$AAr?$AA?9?$AAb?$AAa?$AA?9?$AAc?$AAy?$AAr?$AAl@ 10037328     Stdafx.obj
 0002:00006344       ??_C@_1BG@JLBENFOE@?$AAs?$AAr?$AA?9?$AAb?$AAa?$AA?9?$AAl?$AAa?$AAt?$AAn@ 10037344     Stdafx.obj
 0002:00006360       ??_C@_1BG@KODPNHE@?$AAs?$AAr?$AA?9?$AAs?$AAp?$AA?9?$AAc?$AAy?$AAr?$AAl@ 10037360     Stdafx.obj
 0002:0000637c       ??_C@_1BG@CIOGKHPB@?$AAs?$AAr?$AA?9?$AAs?$AAp?$AA?9?$AAl?$AAa?$AAt?$AAn@ 1003737c     Stdafx.obj
 0002:00006398       ??_C@_1M@NGFJLMAC@?$AAs?$AAv?$AA?9?$AAf?$AAi@ 10037398     Stdafx.obj
 0002:000063a8       ??_C@_1M@MPJEJAJC@?$AAs?$AAv?$AA?9?$AAs?$AAe@ 100373a8     Stdafx.obj
 0002:000063b8       ??_C@_1M@MPNDHLFK@?$AAs?$AAw?$AA?9?$AAk?$AAe@ 100373b8     Stdafx.obj
 0002:000063c8       ??_C@_1O@KOHBJJI@?$AAs?$AAy?$AAr?$AA?9?$AAs?$AAy@ 100373c8     Stdafx.obj
 0002:000063d8       ??_C@_1M@LDCEFHA@?$AAt?$AAa?$AA?9?$AAi?$AAn@ 100373d8     Stdafx.obj
 0002:000063e8       ??_C@_1M@CNJOFAK@?$AAt?$AAe?$AA?9?$AAi?$AAn@ 100373e8     Stdafx.obj
 0002:000063f8       ??_C@_1M@GNAECACD@?$AAt?$AAh?$AA?9?$AAt?$AAh@ 100373f8     Stdafx.obj
 0002:00006408       ??_C@_1M@CHBIHOJO@?$AAt?$AAn?$AA?9?$AAz?$AAa@ 10037408     Stdafx.obj
 0002:00006418       ??_C@_1M@GCCMIGPJ@?$AAt?$AAr?$AA?9?$AAt?$AAr@ 10037418     Stdafx.obj
 0002:00006428       ??_C@_1M@CELMCNBK@?$AAt?$AAt?$AA?9?$AAr?$AAu@ 10037428     Stdafx.obj
 0002:00006438       ??_C@_1M@KLMCELGA@?$AAu?$AAk?$AA?9?$AAu?$AAa@ 10037438     Stdafx.obj
 0002:00006448       ??_C@_1M@EPAJJAJF@?$AAu?$AAr?$AA?9?$AAp?$AAk@ 10037448     Stdafx.obj
 0002:00006458       ??_C@_1BG@GEGPMCDJ@?$AAu?$AAz?$AA?9?$AAu?$AAz?$AA?9?$AAc?$AAy?$AAr?$AAl@ 10037458     Stdafx.obj
 0002:00006474       ??_C@_1BG@EGGKJILM@?$AAu?$AAz?$AA?9?$AAu?$AAz?$AA?9?$AAl?$AAa?$AAt?$AAn@ 10037474     Stdafx.obj
 0002:00006490       ??_C@_1M@GFOCLFF@?$AAv?$AAi?$AA?9?$AAv?$AAn@ 10037490     Stdafx.obj
 0002:000064a0       ??_C@_1M@CPAMEDFI@?$AAx?$AAh?$AA?9?$AAz?$AAa@ 100374a0     Stdafx.obj
 0002:000064b0       ??_C@_1O@EBKIFIGN@?$AAz?$AAh?$AA?9?$AAc?$AAh?$AAs@ 100374b0     Stdafx.obj
 0002:000064c0       ??_C@_1O@NMHPGANE@?$AAz?$AAh?$AA?9?$AAc?$AAh?$AAt@ 100374c0     Stdafx.obj
 0002:000064d0       ??_C@_1M@LPINJOMC@?$AAz?$AAh?$AA?9?$AAc?$AAn@ 100374d0     Stdafx.obj
 0002:000064e0       ??_C@_1M@OCJEJODD@?$AAz?$AAh?$AA?9?$AAh?$AAk@ 100374e0     Stdafx.obj
 0002:000064f0       ??_C@_1M@DNDLJINH@?$AAz?$AAh?$AA?9?$AAm?$AAo@ 100374f0     Stdafx.obj
 0002:00006500       ??_C@_1M@MBFDNDND@?$AAz?$AAh?$AA?9?$AAs?$AAg@ 10037500     Stdafx.obj
 0002:00006510       ??_C@_1M@IMEPLEPE@?$AAz?$AAh?$AA?9?$AAt?$AAw@ 10037510     Stdafx.obj
 0002:00006520       ??_C@_1M@BBGHNHJP@?$AAz?$AAu?$AA?9?$AAz?$AAa@ 10037520     Stdafx.obj
 0002:00006530       ?szInvalidDateTime@ATL@@3QBDB 10037530     Stdafx.obj
 0002:00006534       ??_C@_0BB@KEKMKJPM@Invalid?5DateTime@ 10037534     Stdafx.obj
 0002:00006548       ?szInvalidDateTimeSpan@ATL@@3QBDB 10037548     Stdafx.obj
 0002:0000654c       ??_C@_0BF@GPPHKJFN@Invalid?5DateTimeSpan@ 1003754c     Stdafx.obj
 0002:00006568       _CLSID_Registrar           10037568     Stdafx.obj
 0002:0000657c       _IID_IRegistrar            1003757c     Stdafx.obj
 0002:00006590       _IID_IDocHostUIHandlerDispatch 10037590     Stdafx.obj
 0002:000065a4       _IID_IAxWinHostWindow      100375a4     Stdafx.obj
 0002:000065b8       _IID_IAxWinHostWindowLic   100375b8     Stdafx.obj
 0002:000065cc       _IID_IAxWinAmbientDispatch 100375cc     Stdafx.obj
 0002:000065e0       _IID_IAxWinAmbientDispatchEx 100375e0     Stdafx.obj
 0002:000065f4       _IID_IInternalConnection   100375f4     Stdafx.obj
 0002:00006608       _LIBID_ATLLib              10037608     Stdafx.obj
 0002:0000661b       ?chDirSep@ATL@@3DB         1003761b     Stdafx.obj
 0002:0000661c       ?chRightBracket@ATL@@3DB   1003761c     Stdafx.obj
 0002:0000661d       ?chLeftBracket@ATL@@3DB    1003761d     Stdafx.obj
 0002:0000661e       ?chQuote@ATL@@3DB          1003761e     Stdafx.obj
 0002:0000661f       ?chEquals@ATL@@3DB         1003761f     Stdafx.obj
 0002:00006620       ?szStringVal@ATL@@3QBDB    10037620     Stdafx.obj
 0002:00006624       ??_C@_01CPLAODJH@S@        10037624     Stdafx.obj
 0002:00006628       ?multiszStringVal@ATL@@3QBDB 10037628     Stdafx.obj
 0002:0000662c       ??_C@_01PLPBNMEI@M@        1003762c     Stdafx.obj
 0002:00006630       ?szDwordVal@ATL@@3QBDB     10037630     Stdafx.obj
 0002:00006634       ??_C@_01CKDDGHAB@D@        10037634     Stdafx.obj
 0002:00006638       ?szBinaryVal@ATL@@3QBDB    10037638     Stdafx.obj
 0002:0000663c       ??_C@_01HMGJMAIH@B@        1003763c     Stdafx.obj
 0002:00006640       ?szValToken@ATL@@3QBDB     10037640     Stdafx.obj
 0002:00006644       ??_C@_03LAIAPFCB@Val@      10037644     Stdafx.obj
 0002:00006648       ?szForceRemove@ATL@@3QBDB  10037648     Stdafx.obj
 0002:0000664c       ??_C@_0M@DBGDLGLL@ForceRemove@ 1003764c     Stdafx.obj
 0002:0000665c       ?szNoRemove@ATL@@3QBDB     1003765c     Stdafx.obj
 0002:00006660       ??_C@_08KAAPDIAN@NoRemove@ 10037660     Stdafx.obj
 0002:0000666c       ?szDelete@ATL@@3QBDB       1003766c     Stdafx.obj
 0002:00006670       ??_C@_06JBKGCNBB@Delete@   10037670     Stdafx.obj
 0002:00006678       _c_DwmMaxQueuedBuffers     10037678     Stdafx.obj
 0002:0000667c       _c_DwmMaxMonitors          1003767c     Stdafx.obj
 0002:00006680       _c_DwmMaxAdapters          10037680     Stdafx.obj
 0002:00006684       ?CLSID_WinFormsControl@@3U_GUID@@B 10037684     Stdafx.obj
 0002:00006698       ??_C@_13COJANIEC@?$AA0@    10037698     Stdafx.obj
 0002:000066a0       ??_C@_1OE@IAPLKPHI@?$AAc?$AA?3?$AA?2?$AAp?$AAr?$AAo?$AAg?$AAr?$AAa?$AAm?$AA?5?$AAf?$AAi?$AAl?$AAe@ 100376a0     Stdafx.obj
 0002:000067b4       ??_C@_0BA@MKMIKKJB@atlTraceGeneral@ 100377b4     Stdafx.obj
 0002:000067c8       ??_C@_0M@DGPFJEBB@atlTraceCOM@ 100377c8     Stdafx.obj
 0002:000067d8       ??_C@_0L@LHELAKBP@atlTraceQI@ 100377d8     Stdafx.obj
 0002:000067e8       ??_C@_0BC@MALHFBAO@atlTraceRegistrar@ 100377e8     Stdafx.obj
 0002:00006800       ??_C@_0BB@ILPPDKFL@atlTraceRefcount@ 10037800     Stdafx.obj
 0002:00006814       ??_C@_0BC@DGHHNKDC@atlTraceWindowing@ 10037814     Stdafx.obj
 0002:0000682c       ??_C@_0BB@GHKJKKIE@atlTraceControls@ 1003782c     Stdafx.obj
 0002:00006840       ??_C@_0BA@DKOAAGGM@atlTraceHosting@ 10037840     Stdafx.obj
 0002:00006854       ??_C@_0BB@BEBMGMDO@atlTraceDBClient@ 10037854     Stdafx.obj
 0002:00006868       ??_C@_0BD@KOADKDIA@atlTraceDBProvider@ 10037868     Stdafx.obj
 0002:00006880       ??_C@_0P@LNEGBOLO@atlTraceSnapin@ 10037880     Stdafx.obj
 0002:00006894       ??_C@_0BA@MCBFIDIC@atlTraceNotImpl@ 10037894     Stdafx.obj
 0002:000068a8       ??_C@_0BD@PJPCCAKP@atlTraceAllocation@ 100378a8     Stdafx.obj
 0002:000068c0       ??_C@_0N@BNNILHBE@atlTraceTime@ 100378c0     Stdafx.obj
 0002:000068d0       ??_C@_0O@MEOJAOKK@atlTraceCache@ 100378d0     Stdafx.obj
 0002:000068e0       ??_C@_0BA@IDBKCKK@atlTraceStencil@ 100378e0     Stdafx.obj
 0002:000068f4       ??_C@_0M@IOBBMAHG@atlTraceMap@ 100378f4     Stdafx.obj
 0002:00006904       ??_C@_0N@FEAAACHD@atlTraceUtil@ 10037904     Stdafx.obj
 0002:00006914       ??_C@_0BB@DNJDADMG@atlTraceSecurity@ 10037914     Stdafx.obj
 0002:00006928       ??_C@_0N@KLPNCFEE@atlTraceSync@ 10037928     Stdafx.obj
 0002:00006938       ??_C@_0O@KHOBHOBJ@atlTraceISAPI@ 10037938     Stdafx.obj
 0002:00006948       ??_C@_1O@LFNDFEBP@?$AA?$CF?$AAl?$AAs?$AA?5?$AA?9?$AA?5@ 10037948     Stdafx.obj
 0002:00006958       ??_C@_1M@PGKOAACE@?$AA?$CF?$AAu?$AA?5?$AA?9?$AA?5@ 10037958     Stdafx.obj
 0002:00006968       ??_C@_1O@OAIPCDPO@?$AA?$CF?$AAl?$AAs?$AA?$CF?$AAl?$AAs@ 10037968     Stdafx.obj
 0002:00006978       ??_C@_1BM@GBBOFEAE@?$AA_?$AA_?$AAa?$AAt?$AAl?$AA_?$AAc?$AAo?$AAn?$AAd?$AAV?$AAa?$AAl@ 10037978     Stdafx.obj
 0002:000069a0       ??_7CWin32Heap@ATL@@6B@    100379a0     Stdafx.obj
 0002:000069b8       ??_C@_1BG@CLPBKBHG@?$AAh?$AAH?$AAe?$AAa?$AAp?$AA?5?$AA?$CB?$AA?$DN?$AA?5?$AA0@ 100379b8     Stdafx.obj
 0002:000069d8       ??_C@_1OA@FNEDKMNI@?$AAc?$AA?3?$AA?2?$AAp?$AAr?$AAo?$AAg?$AAr?$AAa?$AAm?$AA?5?$AAf?$AAi?$AAl?$AAe@ 100379d8     Stdafx.obj
 0002:00006ae4       ??_C@_1BC@PMINONJG@?$AAb?$AAS?$AAu?$AAc?$AAc?$AAe?$AAs?$AAs@ 10037ae4     Stdafx.obj
 0002:00006afc       ??_C@_1BE@BLGCOAPB@?$AAn?$AAR?$AAe?$AAf?$AAs?$AA?5?$AA?$DO?$AA?5?$AA0@ 10037afc     Stdafx.obj
 0002:00006b18       ??_C@_1OI@LKICOBAJ@?$AAc?$AA?3?$AA?2?$AAp?$AAr?$AAo?$AAg?$AAr?$AAa?$AAm?$AA?5?$AAf?$AAi?$AAl?$AAe@ 10037b18     Stdafx.obj
 0002:00006c30       ??_C@_1CA@MEFFJNJ@?$AAp?$AAS?$AAt?$AAr?$AAi?$AAn?$AAg?$AAM?$AAg?$AAr?$AA?5?$AA?$DN?$AA?$DN?$AA?5?$AA0@ 10037c30     Stdafx.obj
 0002:00006c58       ??_C@_1OC@KJBACLGD@?$AAc?$AA?3?$AA?2?$AAp?$AAr?$AAo?$AAg?$AAr?$AAa?$AAm?$AA?5?$AAf?$AAi?$AAl?$AAe@ 10037c58     Stdafx.obj
 0002:00006d68       ??_C@_0HB@FHIMFEIJ@c?3?2program?5files?5?$CIx86?$CJ?2microsof@ 10037d68     Stdafx.obj
 0002:00006df0       ??_C@_0EA@EJEMLPD@ERROR?5?3?5Unable?5to?5initialize?5cr@ 10037df0     Stdafx.obj
 0002:00006e40       ??_C@_0ED@GFNHMOFC@ERROR?5?3?5Unable?5to?5initialize?5cr@ 10037e40     Stdafx.obj
 0002:00006e94       ??_7CAtlStringMgr@ATL@@6B@ 10037e94     Stdafx.obj
 0002:00006eb8       ??_C@_1OA@NFJNFLGL@?$AAc?$AA?3?$AA?2?$AAp?$AAr?$AAo?$AAg?$AAr?$AAa?$AAm?$AA?5?$AAf?$AAi?$AAl?$AAe@ 10037eb8     Stdafx.obj
 0002:00006fc4       ??_C@_1BG@IEBIBJEI@?$AAp?$AAD?$AAa?$AAt?$AAa?$AA?5?$AA?$CB?$AA?$DN?$AA?5?$AA0@ 10037fc4     Stdafx.obj
 0002:00006fe0       ??_C@_1DE@KEEBDKDC@?$AAp?$AAD?$AAa?$AAt?$AAa?$AA?9?$AA?$DO?$AAp?$AAS?$AAt?$AAr?$AAi?$AAn?$AAg?$AAM@ 10037fe0     Stdafx.obj
 0002:00007020       ??_C@_1OK@GILLOEON@?$AAc?$AA?3?$AA?2?$AAp?$AAr?$AAo?$AAg?$AAr?$AAa?$AAm?$AA?5?$AAf?$AAi?$AAl?$AAe@ 10038020     Stdafx.obj
 0002:00007138       ??_C@_1EA@JHMKKLFC@?$AAn?$AAI?$AAn?$AAd?$AAe?$AAx?$AA?5?$AA?$DO?$AA?$DN?$AA?5?$AA0?$AA?5?$AA?$CG?$AA?$CG?$AA?5@ 10038138     Stdafx.obj
 0002:00007184       ??_C@_1BK@NHECDDNK@?$AAm?$AA_?$AAp?$AAD?$AAa?$AAt?$AAa?$AA?5?$AA?$DN?$AA?$DN?$AA?5?$AA0@ 10038184     Stdafx.obj
 0002:000072b4       ??_7IUserTaskManagerSink@@6B@ 100382b4     UserTaskManager.obj
 0002:000072f0       ??_7?$CMap@GGPAUtagTaskParameter@@PAU1@@@6B@ 100382f0     UserTaskManager.obj
 0002:0000730c       ??_7?$CMap@KKPAUtagUserTaskEntry@@PAU1@@@6B@ 1003830c     UserTaskManager.obj
 0002:00007328       ??_7?$CWHArray@PAUtagTaskParameter@@ABQAU1@@@6B@ 10038328     UserTaskManager.obj
 0002:00007334       ??_7?$CWHArray@PAUtagUserTaskEntry@@ABQAU1@@@6B@ 10038334     UserTaskManager.obj
 0002:00007340       ??_7CUserTaskManager@@6B@  10038340     UserTaskManager.obj
 0002:00007380       ??_C@_0EM@MPLMIFKH@g?3?2?M?x?$LK?$PM?2happygamewh?2?$LH?$PO?N?q?$LG?K?2?O?$LF?M?$LD@ 10038380     UserTaskManager.obj
 0002:000073dc       ??_C@_0L@MJNGCNCH@?D?Z?$LE?f?$LC?$LL?W?c?$KD?$KB@ 100383dc     UserTaskManager.obj
 0002:000073ec       ??_C@_0BJ@ONKMKDIP@?D?Z?$LE?f?$LC?$LL?W?c?$KD?$KM?W?J?T?$LE?I?j?G?k?J?$KH?$LA?$NM?$KD?$KB@ 100383ec     UserTaskManager.obj
 0002:0000740c       ??_C@_0O@JKAFBCMB@CreateActCtxW@ 1003840c     mfcs140d:nolib.obj
 0002:0000741c       ??_C@_0P@CECBPMJL@ActivateActCtx@ 1003841c     mfcs140d:nolib.obj
 0002:00007430       ??_C@_0BB@NPIOCCPF@DeactivateActCtx@ 10038430     mfcs140d:nolib.obj
 0002:00007444       ??_C@_0BJ@MGNMALIC@FindActCtxSectionStringW@ 10038444     mfcs140d:nolib.obj
 0002:00007464       ??_C@_0N@IMINIHMJ@QueryActCtxW@ 10038464     mfcs140d:nolib.obj
 0002:00007474       ??_C@_0BD@GIGEJCNH@GetModuleHandleExW@ 10038474     mfcs140d:nolib.obj
 0002:0000748c       ??_C@_1BK@BFMCNHEO@?$AAC?$AAo?$AAm?$AAc?$AAt?$AAl?$AA3?$AA2?$AA?4?$AAd?$AAl?$AAl@ 1003848c     mfcs140d:nolib.obj
 0002:000074ac       ?debugString@?4??IsolationAwarePrivatenPgViNgRzlnPgpgk@@9@4@4QBDB 100384ac     mfcs140d:nolib.obj
 0002:000074f4       ?c@?1??WinbaseIsolationAwarePrivatetRgCebPnQQeRff_xReaRYQP_QYY@@9@4@4UIsolationAwarePrivate_pBAFGnAG_zBqHyr_vAsB@@B 100384f4     mfcs140d:nolib.obj
 0002:00007508       ??_C@_1BK@EJBALEBG@?$AAK?$AAe?$AAr?$AAn?$AAe?$AAl?$AA3?$AA2?$AA?4?$AAd?$AAl?$AAl@ 10038508     mfcs140d:nolib.obj
 0002:00007528       ??_C@_0N@HAOHNMDE@Kernel32?4dll@ 10038528     mfcs140d:nolib.obj
 0002:00007538       ??_C@_1IM@JDALAIMN@?$AAd?$AA?3?$AA?2?$AAa?$AAg?$AAe?$AAn?$AAt?$AA?2?$AA_?$AAw?$AAo?$AAr?$AAk?$AA?2@ 10038538     mfcs140d:nolib.obj
 0002:000075e0       ??_C@_1IM@OAKAGKEO@?$AAd?$AA?3?$AA?2?$AAa?$AAg?$AAe?$AAn?$AAt?$AA?2?$AA_?$AAw?$AAo?$AAr?$AAk?$AA?2@ 100385e0     mfcs140d:nolib.obj
 0002:00007688       ??_C@_1II@MFCNAHJH@?$AAd?$AA?3?$AA?2?$AAa?$AAg?$AAe?$AAn?$AAt?$AA?2?$AA_?$AAw?$AAo?$AAr?$AAk?$AA?2@ 10038688     mfcs140d:nolib.obj
 0002:00007730       ??_C@_1JA@NMBLLECH@?$AAd?$AA?3?$AA?2?$AAa?$AAg?$AAe?$AAn?$AAt?$AA?2?$AA_?$AAw?$AAo?$AAr?$AAk?$AA?2@ 10038730     mfcs140d:nolib.obj
 0002:000077e0       ??_C@_1IK@JPPFJKKH@?$AAd?$AA?3?$AA?2?$AAa?$AAg?$AAe?$AAn?$AAt?$AA?2?$AA_?$AAw?$AAo?$AAr?$AAk?$AA?2@ 100387e0     mfcs140d:nolib.obj
 0002:00007888       ??_C@_0EF@IPDELHHG@d?3?2agent?2_work?23?2s?2src?2vctools?2@ 10038888     mfcs140d:nolib.obj
 0002:000078e0       ??_C@_1II@ENPDPACE@?$AAd?$AA?3?$AA?2?$AAa?$AAg?$AAe?$AAn?$AAt?$AA?2?$AA_?$AAw?$AAo?$AAr?$AAk?$AA?2@ 100388e0     mfcs140d:nolib.obj
 0002:00007988       ??_C@_1JC@HILNCOCD@?$AAd?$AA?3?$AA?2?$AAa?$AAg?$AAe?$AAn?$AAt?$AA?2?$AA_?$AAw?$AAo?$AAr?$AAk?$AA?2@ 10038988     mfcs140d:nolib.obj
 0002:00007a3c       ??_7type_info@@6B@         10038a3c     msvcrtd:std_type_info_static.obj
 0002:00007a48       ??_C@_1EC@JIJBPKFM@?$AAa?$AAp?$AAi?$AA?9?$AAm?$AAs?$AA?9?$AAw?$AAi?$AAn?$AA?9?$AAc?$AAo?$AAr?$AAe@ 10038a48     msvcrtd:thread_safe_statics.obj
 0002:00007a98       ??_C@_1BK@MGMFAEKH@?$AAk?$AAe?$AAr?$AAn?$AAe?$AAl?$AA3?$AA2?$AA?4?$AAd?$AAl?$AAl@ 10038a98     msvcrtd:thread_safe_statics.obj
 0002:00007ab8       ??_C@_0BM@HLJJNPAH@InitializeConditionVariable@ 10038ab8     msvcrtd:thread_safe_statics.obj
 0002:00007adc       ??_C@_0BJ@JEBJOJFJ@SleepConditionVariableCS@ 10038adc     msvcrtd:thread_safe_statics.obj
 0002:00007afc       ??_C@_0BJ@PGPPEPCC@WakeAllConditionVariable@ 10038afc     msvcrtd:thread_safe_statics.obj
 0002:00007b20       ??_C@_1JM@MEGLFHBK@?$AAd?$AA?3?$AA?2?$AAa?$AAg?$AAe?$AAn?$AAt?$AA?2?$AA_?$AAw?$AAo?$AAr?$AAk?$AA?2@ 10038b20     msvcrtd:thread_safe_statics.obj
 0002:00007bdc       __pDefaultRawDllMain       10038bdc     msvcrtd:dll_dllmain.obj
 0002:00007ca8       ??_C@_0NN@NGPKDKPD@The?5value?5of?5ESP?5was?5not?5proper@ 10038ca8     msvcrtd:error.obj
 0002:00007db8       ??_C@_0BBN@GPMLNJCF@A?5cast?5to?5a?5smaller?5data?5type?5h@ 10038db8     msvcrtd:error.obj
 0002:00007f10       ??_C@_0BN@FFOINMNJ@Stack?5memory?5was?5corrupted?6?$AN@ 10038f10     msvcrtd:error.obj
 0002:00007f34       ??_C@_0DG@HKJMLLLP@A?5local?5variable?5was?5used?5befor@ 10038f34     msvcrtd:error.obj
 0002:00007f74       ??_C@_0CM@NGINOKPC@Stack?5memory?5around?5_alloca?5was@ 10038f74     msvcrtd:error.obj
 0002:00007fa8       ??_C@_0BO@GNIAFIKK@Unknown?5Runtime?5Check?5Error?6?$AN@ 10038fa8     msvcrtd:error.obj
 0002:00007fd0       ??_C@_1GM@OLMCBDMB@?$AAR?$AAu?$AAn?$AAt?$AAi?$AAm?$AAe?$AA?5?$AAC?$AAh?$AAe?$AAc?$AAk?$AA?5?$AAE@ 10038fd0     msvcrtd:error.obj
 0002:00008058       ??_C@_1EA@NFKNIFJP@?$AAR?$AAu?$AAn?$AA?9?$AAT?$AAi?$AAm?$AAe?$AA?5?$AAC?$AAh?$AAe?$AAc?$AAk?$AA?5@ 10039058     msvcrtd:error.obj
 0002:000080a4       ??_C@_0BB@PFFGGCJP@Unknown?5Filename@ 100390a4     msvcrtd:error.obj
 0002:000080b8       ??_C@_0BE@GNBOBNCK@Unknown?5Module?5Name@ 100390b8     msvcrtd:error.obj
 0002:000080d0       ??_C@_0CA@IODNCDPG@Run?9Time?5Check?5Failure?5?$CD?$CFd?5?9?5?$CFs@ 100390d0     msvcrtd:error.obj
 0002:000080f8       ??_C@_0CG@IAFNJNEE@Stack?5corrupted?5near?5unknown?5va@ 100390f8     msvcrtd:error.obj
 0002:00008128       ??_C@_05MKKEDADM@?$CF?42X?5@ 10039128     msvcrtd:error.obj
 0002:00008130       ??_C@_0EJ@LJKNEOLN@Stack?5area?5around?5_alloca?5memor@ 10039130     msvcrtd:error.obj
 0002:00008188       ??_C@_02LLMPMKNF@?$DO?5@   10039188     msvcrtd:error.obj
 0002:0000818c       ??_C@_08OMAHNMHJ@?6Data?3?5?$DM@ 1003918c     msvcrtd:error.obj
 0002:00008198       ??_C@_0CK@DKGBICFE@?6Allocation?5number?5within?5this?5@ 10039198     msvcrtd:error.obj
 0002:000081cc       ??_C@_07DFDJCKFN@?6Size?3?5@ 100391cc     msvcrtd:error.obj
 0002:000081d8       ??_C@_0N@MHFFIMFG@?6Address?3?50x@ 100391d8     msvcrtd:error.obj
 0002:000081e8       ??_C@_0EI@CLEPFNGI@Stack?5area?5around?5_alloca?5memor@ 100391e8     msvcrtd:error.obj
 0002:00008240       ??_C@_0BK@ODNDAGKB@?$CFs?$CFs?$CFp?$CFs?$CFzd?$CFs?$CFd?$CFs?$CFs?$CFs?$CFs?$CFs@ 10039240     msvcrtd:error.obj
 0002:00008260       ??_C@_0DE@OHJBPMBP@A?5variable?5is?5being?5used?5withou@ 10039260     msvcrtd:error.obj
 0002:000082b8       ??_C@_0BJ@HEGAHDFO@Stack?5pointer?5corruption@ 100392b8     msvcrtd:userapi.obj
 0002:000082d8       ??_C@_0CK@FEGOIOPB@Cast?5to?5smaller?5type?5causing?5lo@ 100392d8     msvcrtd:userapi.obj
 0002:0000830c       ??_C@_0BI@CIGMDCBH@Stack?5memory?5corruption@ 1003930c     msvcrtd:userapi.obj
 0002:00008328       ??_C@_0CK@CNLNOEPB@Local?5variable?5used?5before?5init@ 10039328     msvcrtd:userapi.obj
 0002:0000835c       ??_C@_0BP@OGBCLIBO@Stack?5around?5_alloca?5corrupted@ 1003935c     msvcrtd:userapi.obj
 0002:000083e0       ??_C@_1EI@MLPKHBGE@?$AAa?$AAp?$AAi?$AA?9?$AAm?$AAs?$AA?9?$AAw?$AAi?$AAn?$AA?9?$AAc?$AAo?$AAr?$AAe@ 100393e0     msvcrtd:pdblkup.obj
 0002:00008438       ??_C@_1BK@JHLNAEJL@?$AAa?$AAd?$AAv?$AAa?$AAp?$AAi?$AA3?$AA2?$AA?4?$AAd?$AAl?$AAl@ 10039438     msvcrtd:pdblkup.obj
 0002:00008458       ??_C@_0O@COHOBMLB@RegOpenKeyExW@ 10039458     msvcrtd:pdblkup.obj
 0002:00008468       ??_C@_0BB@GLNAEDBD@RegQueryValueExW@ 10039468     msvcrtd:pdblkup.obj
 0002:0000847c       ??_C@_0M@HLOHPNFA@RegCloseKey@ 1003947c     msvcrtd:pdblkup.obj
 0002:00008490       ??_C@_1HE@EBEAGLFB@?$AAS?$AAO?$AAF?$AAT?$AAW?$AAA?$AAR?$AAE?$AA?2?$AAW?$AAo?$AAw?$AA6?$AA4?$AA3@ 10039490     msvcrtd:pdblkup.obj
 0002:0000851c       ??_C@_1BG@EABPBLLF@?$AAP?$AAr?$AAo?$AAd?$AAu?$AAc?$AAt?$AAD?$AAi?$AAr@ 1003951c     msvcrtd:pdblkup.obj
 0002:0000855c       ??_C@_1BC@JINFINNJ@?$AAM?$AAS?$AAP?$AAD?$AAB?$AA1?$AA4?$AA0@ 1003955c     msvcrtd:pdblkup.obj
 0002:00008574       ??_C@_0BB@KCIACLNC@PDBOpenValidate5@ 10039574     msvcrtd:pdblkup.obj
 0002:00008588       ??_C@_01KDCPPGHE@r@        10039588     msvcrtd:pdblkup.obj
 0002:0000858c       _GUID_ATLVer30             1003958c     atls:atlbase.obj
 0002:000085a0       _GUID_ATLVer70             100395a0     atls:atlbase.obj
 0002:000085b4       _GUID_ATLVer100            100395b4     atls:atlbase.obj
 0002:000085c8       _GUID_ATLVer110            100395c8     atls:atlbase.obj
 0002:000085e0       ??_C@_1IC@ONKHOIDK@?$AAE?$AAR?$AAR?$AAO?$AAR?$AA?5?$AA?3?$AA?5?$AAU?$AAn?$AAa?$AAb?$AAl?$AAe?$AA?5@ 100395e0     atls:atlbase.obj
 0002:0000867c       ?chDirSep@ATL@@3_WB        1003967c     atls:stdafx.obj
 0002:00008680       ?chRightBracket@ATL@@3_WB  10039680     atls:stdafx.obj
 0002:00008684       ?chLeftBracket@ATL@@3_WB   10039684     atls:stdafx.obj
 0002:00008688       ?chQuote@ATL@@3_WB         10039688     atls:stdafx.obj
 0002:0000868c       ?chEquals@ATL@@3_WB        1003968c     atls:stdafx.obj
 0002:00008690       ?szStringVal@ATL@@3QB_WB   10039690     atls:stdafx.obj
 0002:00008694       ??_C@_13HADIAKP@?$AAS@     10039694     atls:stdafx.obj
 0002:00008698       ?multiszStringVal@ATL@@3QB_WB 10039698     atls:stdafx.obj
 0002:0000869c       ??_C@_13LHMFKAAD@?$AAM@    1003969c     atls:stdafx.obj
 0002:000086a0       ?szDwordVal@ATL@@3QB_WB    100396a0     atls:stdafx.obj
 0002:000086a4       ??_C@_13MKMNOPIJ@?$AAD@    100396a4     atls:stdafx.obj
 0002:000086a8       ?szBinaryVal@ATL@@3QB_WB   100396a8     atls:stdafx.obj
 0002:000086ac       ??_C@_13OPKGLAFF@?$AAB@    100396ac     atls:stdafx.obj
 0002:000086b0       ?szValToken@ATL@@3QB_WB    100396b0     atls:stdafx.obj
 0002:000086b4       ??_C@_17LLMMEOJD@?$AAV?$AAa?$AAl@ 100396b4     atls:stdafx.obj
 0002:000086c0       ?szForceRemove@ATL@@3QB_WB 100396c0     atls:stdafx.obj
 0002:000086c4       ??_C@_1BI@JFAIJMHL@?$AAF?$AAo?$AAr?$AAc?$AAe?$AAR?$AAe?$AAm?$AAo?$AAv?$AAe@ 100396c4     atls:stdafx.obj
 0002:000086e0       ?szNoRemove@ATL@@3QB_WB    100396e0     atls:stdafx.obj
 0002:000086e4       ??_C@_1BC@GCKHIPE@?$AAN?$AAo?$AAR?$AAe?$AAm?$AAo?$AAv?$AAe@ 100396e4     atls:stdafx.obj
 0002:000086fc       ?szDelete@ATL@@3QB_WB      100396fc     atls:stdafx.obj
 0002:00008700       ??_C@_1O@JDLOHAN@?$AAD?$AAe?$AAl?$AAe?$AAt?$AAe@ 10039700     atls:stdafx.obj
 0002:00008748       __load_config_used         10039748     msvcrtd:loadcfg.obj
 0002:00008b20       __tls_used                 10039b20     msvcrtd:tlssup.obj
 0002:00008c3c       ??_R4IUnknownEx@@6B@       10039c3c     AndroidUserItem.obj
 0002:00008c54       ??_R3IUnknownEx@@8         10039c54     AndroidUserItem.obj
 0002:00008c68       ??_R2IUnknownEx@@8         10039c68     AndroidUserItem.obj
 0002:00008c70       ??_R1A@?0A@EA@IUnknownEx@@8 10039c70     AndroidUserItem.obj
 0002:00008c94       ??_R4IAndroidUserItem@@6B@ 10039c94     AndroidUserItem.obj
 0002:00008cac       ??_R3IAndroidUserItem@@8   10039cac     AndroidUserItem.obj
 0002:00008cc0       ??_R2IAndroidUserItem@@8   10039cc0     AndroidUserItem.obj
 0002:00008ccc       ??_R1A@?0A@EA@IAndroidUserItem@@8 10039ccc     AndroidUserItem.obj
 0002:00008cf0       ??_R4?$CWHArray@PAUtagTimerItem@@ABQAU1@@@6B@ 10039cf0     AndroidUserItem.obj
 0002:00008d08       ??_R3?$CWHArray@PAUtagTimerItem@@ABQAU1@@@8 10039d08     AndroidUserItem.obj
 0002:00008d1c       ??_R2?$CWHArray@PAUtagTimerItem@@ABQAU1@@@8 10039d1c     AndroidUserItem.obj
 0002:00008d24       ??_R1A@?0A@EA@?$CWHArray@PAUtagTimerItem@@ABQAU1@@@8 10039d24     AndroidUserItem.obj
 0002:00008d48       ??_R4CAndroidUserItem@@6B@ 10039d48     AndroidUserItem.obj
 0002:00008d60       ??_R3CAndroidUserItem@@8   10039d60     AndroidUserItem.obj
 0002:00008d74       ??_R2CAndroidUserItem@@8   10039d74     AndroidUserItem.obj
 0002:00008d84       ??_R1A@?0A@EA@CAndroidUserItem@@8 10039d84     AndroidUserItem.obj
 0002:00008da8       ??_R1A@?0A@EA@CObject@@8   10039da8     AndroidUserManager.obj
 0002:00008dcc       ??_R3CObject@@8            10039dcc     AndroidUserManager.obj
 0002:00008de0       ??_R2CObject@@8            10039de0     AndroidUserManager.obj
 0002:00008de8       ??_R4IAndroidUserManager@@6B@ 10039de8     AndroidUserManager.obj
 0002:00008e00       ??_R3IAndroidUserManager@@8 10039e00     AndroidUserManager.obj
 0002:00008e14       ??_R2IAndroidUserManager@@8 10039e14     AndroidUserManager.obj
 0002:00008e20       ??_R1A@?0A@EA@IAndroidUserManager@@8 10039e20     AndroidUserManager.obj
 0002:00008e44       ??_R4CAndroidUserManager@@6B@ 10039e44     AndroidUserManager.obj
 0002:00008e5c       ??_R3CAndroidUserManager@@8 10039e5c     AndroidUserManager.obj
 0002:00008e70       ??_R2CAndroidUserManager@@8 10039e70     AndroidUserManager.obj
 0002:00008e80       ??_R1A@?0A@EA@CAndroidUserManager@@8 10039e80     AndroidUserManager.obj
 0002:00008ea4       ??_R4?$CWHArray@PAVCAndroidUserItem@@ABQAV1@@@6B@ 10039ea4     AndroidUserManager.obj
 0002:00008ebc       ??_R3?$CWHArray@PAVCAndroidUserItem@@ABQAV1@@@8 10039ebc     AndroidUserManager.obj
 0002:00008ed0       ??_R2?$CWHArray@PAVCAndroidUserItem@@ABQAV1@@@8 10039ed0     AndroidUserManager.obj
 0002:00008ed8       ??_R1A@?0A@EA@?$CWHArray@PAVCAndroidUserItem@@ABQAV1@@@8 10039ed8     AndroidUserManager.obj
 0002:00008efc       ??_R4?$CWHArray@PAUtagAndroidParameterEx@@ABQAU1@@@6B@ 10039efc     AndroidUserManager.obj
 0002:00008f14       ??_R3?$CWHArray@PAUtagAndroidParameterEx@@ABQAU1@@@8 10039f14     AndroidUserManager.obj
 0002:00008f28       ??_R2?$CWHArray@PAUtagAndroidParameterEx@@ABQAU1@@@8 10039f28     AndroidUserManager.obj
 0002:00008f30       ??_R1A@?0A@EA@?$CWHArray@PAUtagAndroidParameterEx@@ABQAU1@@@8 10039f30     AndroidUserManager.obj
 0002:00008f54       ??_R4?$CMap@KKPAVCAndroidUserItem@@PAV1@@@6B@ 10039f54     AndroidUserManager.obj
 0002:00008f6c       ??_R3?$CMap@KKPAVCAndroidUserItem@@PAV1@@@8 10039f6c     AndroidUserManager.obj
 0002:00008f80       ??_R2?$CMap@KKPAVCAndroidUserItem@@PAV1@@@8 10039f80     AndroidUserManager.obj
 0002:00008f8c       ??_R1A@?0A@EA@?$CMap@KKPAVCAndroidUserItem@@PAV1@@@8 10039f8c     AndroidUserManager.obj
 0002:00008fb0       ??_R4?$CWHArray@UtagPropertyInfo@@ABU1@@@6B@ 10039fb0     GamePropertyManager.obj
 0002:00008fc8       ??_R3?$CWHArray@UtagPropertyInfo@@ABU1@@@8 10039fc8     GamePropertyManager.obj
 0002:00008fdc       ??_R2?$CWHArray@UtagPropertyInfo@@ABU1@@@8 10039fdc     GamePropertyManager.obj
 0002:00008fe4       ??_R1A@?0A@EA@?$CWHArray@UtagPropertyInfo@@ABU1@@@8 10039fe4     GamePropertyManager.obj
 0002:00009008       ??_R4CGamePropertyManager@@6B@ 1003a008     GamePropertyManager.obj
 0002:00009020       ??_R3CGamePropertyManager@@8 1003a020     GamePropertyManager.obj
 0002:00009034       ??_R2CGamePropertyManager@@8 1003a034     GamePropertyManager.obj
 0002:0000903c       ??_R1A@?0A@EA@CGamePropertyManager@@8 1003a03c     GamePropertyManager.obj
 0002:00009060       ??_R4IServerUserItem@@6B@  1003a060     ServerUserManager.obj
 0002:00009078       ??_R3IServerUserItem@@8    1003a078     ServerUserManager.obj
 0002:0000908c       ??_R2IServerUserItem@@8    1003a08c     ServerUserManager.obj
 0002:00009098       ??_R1A@?0A@EA@IServerUserItem@@8 1003a098     ServerUserManager.obj
 0002:000090bc       ??_R4IServerUserManager@@6B@ 1003a0bc     ServerUserManager.obj
 0002:000090d4       ??_R3IServerUserManager@@8 1003a0d4     ServerUserManager.obj
 0002:000090e8       ??_R2IServerUserManager@@8 1003a0e8     ServerUserManager.obj
 0002:000090f4       ??_R1A@?0A@EA@IServerUserManager@@8 1003a0f4     ServerUserManager.obj
 0002:00009118       ??_R4IServerUserService@@6B@ 1003a118     ServerUserManager.obj
 0002:00009130       ??_R3IServerUserService@@8 1003a130     ServerUserManager.obj
 0002:00009144       ??_R2IServerUserService@@8 1003a144     ServerUserManager.obj
 0002:00009150       ??_R1A@?0A@EA@IServerUserService@@8 1003a150     ServerUserManager.obj
 0002:00009174       ??_R4?$CMap@HHPAUtagGameDataItem@@AAPAU1@@@6B@ 1003a174     ServerUserManager.obj
 0002:0000918c       ??_R3?$CMap@HHPAUtagGameDataItem@@AAPAU1@@@8 1003a18c     ServerUserManager.obj
 0002:000091a0       ??_R2?$CMap@HHPAUtagGameDataItem@@AAPAU1@@@8 1003a1a0     ServerUserManager.obj
 0002:000091ac       ??_R1A@?0A@EA@?$CMap@HHPAUtagGameDataItem@@AAPAU1@@@8 1003a1ac     ServerUserManager.obj
 0002:000091d0       ??_R4CServerUserItem@@6BIServerUserItem@@@ 1003a1d0     ServerUserManager.obj
 0002:000091e8       ??_R3CServerUserItem@@8    1003a1e8     ServerUserManager.obj
 0002:000091fc       ??_R2CServerUserItem@@8    1003a1fc     ServerUserManager.obj
 0002:00009218       ??_R1A@?0A@EA@CServerUserItem@@8 1003a218     ServerUserManager.obj
 0002:0000923c       ??_R1A@?0A@EC@IUnknownEx@@8 1003a23c     ServerUserManager.obj
 0002:00009260       ??_R13?0A@EA@IServerUserService@@8 1003a260     ServerUserManager.obj
 0002:00009284       ??_R13?0A@EC@IUnknownEx@@8 1003a284     ServerUserManager.obj
 0002:000092a8       ??_R4CServerUserItem@@6BIServerUserService@@@ 1003a2a8     ServerUserManager.obj
 0002:000092c0       ??_R4CServerUserManager@@6B@ 1003a2c0     ServerUserManager.obj
 0002:000092d8       ??_R3CServerUserManager@@8 1003a2d8     ServerUserManager.obj
 0002:000092ec       ??_R2CServerUserManager@@8 1003a2ec     ServerUserManager.obj
 0002:000092fc       ??_R1A@?0A@EA@CServerUserManager@@8 1003a2fc     ServerUserManager.obj
 0002:00009320       ??_R4?$CWHArray@PAVCServerUserItem@@ABQAV1@@@6B@ 1003a320     ServerUserManager.obj
 0002:00009338       ??_R3?$CWHArray@PAVCServerUserItem@@ABQAV1@@@8 1003a338     ServerUserManager.obj
 0002:0000934c       ??_R2?$CWHArray@PAVCServerUserItem@@ABQAV1@@@8 1003a34c     ServerUserManager.obj
 0002:00009354       ??_R1A@?0A@EA@?$CWHArray@PAVCServerUserItem@@ABQAV1@@@8 1003a354     ServerUserManager.obj
 0002:00009378       ??_R4?$CMap@KKPAVCServerUserItem@@PAV1@@@6B@ 1003a378     ServerUserManager.obj
 0002:00009390       ??_R3?$CMap@KKPAVCServerUserItem@@PAV1@@@8 1003a390     ServerUserManager.obj
 0002:000093a4       ??_R2?$CMap@KKPAVCServerUserItem@@PAV1@@@8 1003a3a4     ServerUserManager.obj
 0002:000093b0       ??_R1A@?0A@EA@?$CMap@KKPAVCServerUserItem@@PAV1@@@8 1003a3b0     ServerUserManager.obj
 0002:000093d4       ??_R4CWin32Heap@ATL@@6B@   1003a3d4     Stdafx.obj
 0002:000093ec       ??_R3CWin32Heap@ATL@@8     1003a3ec     Stdafx.obj
 0002:00009400       ??_R2CWin32Heap@ATL@@8     1003a400     Stdafx.obj
 0002:0000940c       ??_R1A@?0A@EA@CWin32Heap@ATL@@8 1003a40c     Stdafx.obj
 0002:00009430       ??_R1A@?0A@EA@IAtlMemMgr@ATL@@8 1003a430     Stdafx.obj
 0002:00009454       ??_R3IAtlMemMgr@ATL@@8     1003a454     Stdafx.obj
 0002:00009468       ??_R2IAtlMemMgr@ATL@@8     1003a468     Stdafx.obj
 0002:00009470       ??_R1A@?0A@EA@IAtlStringMgr@ATL@@8 1003a470     Stdafx.obj
 0002:00009494       ??_R3IAtlStringMgr@ATL@@8  1003a494     Stdafx.obj
 0002:000094a8       ??_R2IAtlStringMgr@ATL@@8  1003a4a8     Stdafx.obj
 0002:000094b0       ??_R4CAtlStringMgr@ATL@@6B@ 1003a4b0     Stdafx.obj
 0002:000094c8       ??_R3CAtlStringMgr@ATL@@8  1003a4c8     Stdafx.obj
 0002:000094dc       ??_R2CAtlStringMgr@ATL@@8  1003a4dc     Stdafx.obj
 0002:000094e8       ??_R1A@?0A@EA@CAtlStringMgr@ATL@@8 1003a4e8     Stdafx.obj
 0002:0000950c       ??_R4IUserTaskManagerSink@@6B@ 1003a50c     UserTaskManager.obj
 0002:00009524       ??_R3IUserTaskManagerSink@@8 1003a524     UserTaskManager.obj
 0002:00009538       ??_R2IUserTaskManagerSink@@8 1003a538     UserTaskManager.obj
 0002:00009544       ??_R1A@?0A@EA@IUserTaskManagerSink@@8 1003a544     UserTaskManager.obj
 0002:00009568       ??_R4?$CWHArray@PAUtagUserTaskEntry@@ABQAU1@@@6B@ 1003a568     UserTaskManager.obj
 0002:00009580       ??_R3?$CWHArray@PAUtagUserTaskEntry@@ABQAU1@@@8 1003a580     UserTaskManager.obj
 0002:00009594       ??_R2?$CWHArray@PAUtagUserTaskEntry@@ABQAU1@@@8 1003a594     UserTaskManager.obj
 0002:0000959c       ??_R1A@?0A@EA@?$CWHArray@PAUtagUserTaskEntry@@ABQAU1@@@8 1003a59c     UserTaskManager.obj
 0002:000095c0       ??_R4?$CWHArray@PAUtagTaskParameter@@ABQAU1@@@6B@ 1003a5c0     UserTaskManager.obj
 0002:000095d8       ??_R3?$CWHArray@PAUtagTaskParameter@@ABQAU1@@@8 1003a5d8     UserTaskManager.obj
 0002:000095ec       ??_R2?$CWHArray@PAUtagTaskParameter@@ABQAU1@@@8 1003a5ec     UserTaskManager.obj
 0002:000095f4       ??_R1A@?0A@EA@?$CWHArray@PAUtagTaskParameter@@ABQAU1@@@8 1003a5f4     UserTaskManager.obj
 0002:00009618       ??_R4?$CMap@GGPAUtagTaskParameter@@PAU1@@@6B@ 1003a618     UserTaskManager.obj
 0002:00009630       ??_R3?$CMap@GGPAUtagTaskParameter@@PAU1@@@8 1003a630     UserTaskManager.obj
 0002:00009644       ??_R2?$CMap@GGPAUtagTaskParameter@@PAU1@@@8 1003a644     UserTaskManager.obj
 0002:00009650       ??_R1A@?0A@EA@?$CMap@GGPAUtagTaskParameter@@PAU1@@@8 1003a650     UserTaskManager.obj
 0002:00009674       ??_R4?$CMap@KKPAUtagUserTaskEntry@@PAU1@@@6B@ 1003a674     UserTaskManager.obj
 0002:0000968c       ??_R3?$CMap@KKPAUtagUserTaskEntry@@PAU1@@@8 1003a68c     UserTaskManager.obj
 0002:000096a0       ??_R2?$CMap@KKPAUtagUserTaskEntry@@PAU1@@@8 1003a6a0     UserTaskManager.obj
 0002:000096ac       ??_R1A@?0A@EA@?$CMap@KKPAUtagUserTaskEntry@@PAU1@@@8 1003a6ac     UserTaskManager.obj
 0002:000096d0       ??_R4CUserTaskManager@@6B@ 1003a6d0     UserTaskManager.obj
 0002:000096e8       ??_R3CUserTaskManager@@8   1003a6e8     UserTaskManager.obj
 0002:000096fc       ??_R2CUserTaskManager@@8   1003a6fc     UserTaskManager.obj
 0002:0000970c       ??_R1A@?0A@EA@CUserTaskManager@@8 1003a70c     UserTaskManager.obj
 0002:00009730       ??_R4type_info@@6B@        1003a730     msvcrtd:std_type_info_static.obj
 0002:00009748       ??_R3type_info@@8          1003a748     msvcrtd:std_type_info_static.obj
 0002:0000975c       ??_R2type_info@@8          1003a75c     msvcrtd:std_type_info_static.obj
 0002:00009764       ??_R1A@?0A@EA@type_info@@8 1003a764     msvcrtd:std_type_info_static.obj
 0002:000098e0       ___safe_se_handler_table   1003a8e0     <linker-defined>
 0002:00009d40       ___rtc_iaa                 1003ad40     msvcrtd:initsect.obj
 0002:00009f50       ___rtc_izz                 1003af50     msvcrtd:initsect.obj
 0002:0000a054       ___rtc_taa                 1003b054     msvcrtd:initsect.obj
 0002:0000a264       ___rtc_tzz                 1003b264     msvcrtd:initsect.obj
 0002:0000aa24       __TI1H                     1003ba24     AndroidUserManager.obj
 0002:0000aa38       __CTA1H                    1003ba38     AndroidUserManager.obj
 0002:0000aa40       __CT??_R0H@84              1003ba40     AndroidUserManager.obj
 0002:0000bbd4       __TI2PAD                   1003cbd4     UserTaskManager.obj
 0002:0000bbe8       __CTA2PAD                  1003cbe8     UserTaskManager.obj
 0002:0000bbf8       __CT??_R0PAD@84            1003cbf8     UserTaskManager.obj
 0002:0000bc18       __CT??_R0PAX@84            1003cc18     UserTaskManager.obj
 0002:0000c184       ___pobjMapEntryFirst       1003d184     Stdafx.obj
 0002:0000c288       ___pobjMapEntryLast        1003d288     Stdafx.obj
 0003:00000000       ?__LINE__Var@?0??_Maklocwcs@std@@YAPA_WPB_W@Z@4JA 10041000     AndroidUserItem.obj
 0003:00000004       ?__LINE__Var@?0??GetTableID@CAndroidUserItem@@UAEGXZ@4JA 10041004     AndroidUserItem.obj
 0003:00000008       ?__LINE__Var@?0??GetChairID@CAndroidUserItem@@UAEGXZ@4JA 10041008     AndroidUserItem.obj
 0003:0000000c       ?__LINE__Var@?0??SendSocketData@CAndroidUserItem@@UAE_NG@Z@4JA 1004100c     AndroidUserItem.obj
 0003:00000010       ?__LINE__Var@?0??PerformSaveScore@CAndroidUserItem@@UAE_N_J@Z@4JA 10041010     AndroidUserItem.obj
 0003:00000014       ?__LINE__Var@?0??PerformTakeScore@CAndroidUserItem@@UAE_N_J@Z@4JA 10041014     AndroidUserItem.obj
 0003:00000018       ?__LINE__Var@?0??SendSocketData@CAndroidUserItem@@UAE_NGPAXG@Z@4JA 10041018     AndroidUserItem.obj
 0003:0000001c       ?__LINE__Var@?0??SetGameTimer@CAndroidUserItem@@UAE_NII@Z@4JA 1004101c     AndroidUserItem.obj
 0003:00000020       ?__LINE__Var@?0??SendChatMessage@CAndroidUserItem@@UAE_NKPBDK@Z@4JA 10041020     AndroidUserItem.obj
 0003:00000024       ?__LINE__Var@?0??OnSocketGameMessage@CAndroidUserItem@@IAE_NGGPAXG@Z@4JA 10041024     AndroidUserItem.obj
 0003:00000028       ?__LINE__Var@?0??OnSocketSubLogonFinish@CAndroidUserItem@@IAE_NPAXG@Z@4JA 10041028     AndroidUserItem.obj
 0003:0000002c       ?__LINE__Var@?0??OnSocketSubUserStatus@CAndroidUserItem@@IAE_NPAXG@Z@4JA 1004102c     AndroidUserItem.obj
 0003:00000030       ?__LINE__Var@?0??OnSocketSubSystemMessage@CAndroidUserItem@@IAE_NPAXG@Z@4JA 10041030     AndroidUserItem.obj
 0003:00000034       ?__LINE__Var@?0??StartGameClient@CAndroidUserItem@@IAEXXZ@4JA 10041034     AndroidUserItem.obj
 0003:00000038       ?__LINE__Var@?0??CloseGameClient@CAndroidUserItem@@IAEXXZ@4JA 10041038     AndroidUserItem.obj
 0003:0000003c       ?__LINE__Var@?0???1CAndroidUserManager@@UAE@XZ@4JA 1004103c     AndroidUserManager.obj
 0003:00000040       ?__LINE__Var@?0??ConcludeService@CAndroidUserManager@@UAE_NXZ@4JA 10041040     AndroidUserManager.obj
 0003:00000044       ?__LINE__Var@?0??RemoveAndroidParameter@CAndroidUserManager@@UAE_NK@Z@4JA 10041044     AndroidUserManager.obj
 0003:00000048       ?__LINE__Var@?0??DeleteAndroidUserItem@CAndroidUserManager@@UAE_NK_N@Z@4JA 10041048     AndroidUserManager.obj
 0003:0000004c       ?__LINE__Var@?0??CreateAndroidUserItem@CAndroidUserManager@@UAEPAUIAndroidUserItem@@AAUtagAndroidItemConfig@@@Z@4JA 1004104c     AndroidUserManager.obj
 0003:00000050       ?__LINE__Var@?0??OnEventTimerPulse@CAndroidUserManager@@UAE_NKI@Z@4JA 10041050     AndroidUserManager.obj
 0003:00000054       ?__LINE__Var@?0??GetAndroidUserInfo@CAndroidUserManager@@UAEGAAUtagAndroidUserInfo@@K@Z@4JA 10041054     AndroidUserManager.obj
 0003:00000058       ?__LINE__Var@?0??SendDataToClient@CAndroidUserManager@@UAE_NGGPAXG@Z@4JA 10041058     AndroidUserManager.obj
 0003:0000005c       ?__LINE__Var@?0??SendDataToClient@CAndroidUserManager@@UAE_NKGGPAXG@Z@4JA 1004105c     AndroidUserManager.obj
 0003:00000060       ?__LINE__Var@?0??SendDataToServer@CAndroidUserManager@@UAE_NKGGPAXG@Z@4JA 10041060     AndroidUserManager.obj
 0003:00000064       ?__LINE__Var@?0??GetAndroidUserItem@CAndroidUserManager@@IAEPAVCAndroidUserItem@@G@Z@4JA 10041064     AndroidUserManager.obj
 0003:00000068       ?__LINE__Var@?0??FreeAndroidUserItem@CAndroidUserManager@@IAEXK@Z@4JA 10041068     AndroidUserManager.obj
 0003:0000006c       ?__LINE__Var@?0??BatchServiceRemaindTime@CAndroidUserManager@@IAEKPAUtagAndroidParameter@@K@Z@4JA 1004106c     AndroidUserManager.obj
 0003:00000070       ?__LINE__Var@?0??BatchServiceAwaitTime@CAndroidUserManager@@IAEKPAUtagAndroidParameter@@K@Z@4JA 10041070     AndroidUserManager.obj
 0003:00000074       ?__LINE__Var@?0??ActiveAndroidUserItem@CAndroidUserManager@@IAEPAVCAndroidUserItem@@AAUtagAndroidItemConfig@@@Z@4JA 10041074     AndroidUserManager.obj
 0003:00000078       ?__LINE__Var@?0??ForceAndroidUserItemStandup@CAndroidUserManager@@IAEXPAVCAndroidUserItem@@@Z@4JA 10041078     AndroidUserManager.obj
 0003:0000007c       ?__LINE__Var@?0??_Adjust_manually_vector_aligned@std@@YAXAAPAXAAI@Z@4JA 1004107c     GamePropertyManager.obj
 0003:00000080       ?__LINE__Var@?0???1CServerUserItem@@MAE@XZ@4JA 10041080     ServerUserManager.obj
 0003:00000084       ?__LINE__Var@?0??GetUserGameData@CServerUserItem@@UAEXHPADH@Z@4JA 10041084     ServerUserManager.obj
 0003:00000088       ?__LINE__Var@?0??SetUserGameData@CServerUserItem@@UAEXPBDH@Z@4JA 10041088     ServerUserManager.obj
 0003:0000008c       ?__LINE__Var@?0??SetUserGameData@CServerUserItem@@UAEXHPBDH@Z@4JA 1004108c     ServerUserManager.obj
 0003:00000090       ?__LINE__Var@?0??WriteUserGameData@CServerUserItem@@UAEXXZ@4JA 10041090     ServerUserManager.obj
 0003:00000094       ?__LINE__Var@?0??ContrastNickName@CServerUserItem@@UAE_NPBD@Z@4JA 10041094     ServerUserManager.obj
 0003:00000098       ?__LINE__Var@?0??ContrastLogonPass@CServerUserItem@@UAE_NPBD@Z@4JA 10041098     ServerUserManager.obj
 0003:0000009c       ?__LINE__Var@?0??SetUserStatus@CServerUserItem@@UAE_NEGG@Z@4JA 1004109c     ServerUserManager.obj
 0003:000000a0       ?__LINE__Var@?0??WriteUserScore@CServerUserItem@@UAE_N_J000EKK@Z@4JA 100410a0     ServerUserManager.obj
 0003:000000a4       ?__LINE__Var@?0??QueryRecordInfo@CServerUserItem@@UAE_NAAUtagVariationInfo@@@Z@4JA 100410a4     ServerUserManager.obj
 0003:000000a8       ?__LINE__Var@?0??DistillVariation@CServerUserItem@@UAE_NAAUtagVariationInfo@@@Z@4JA 100410a8     ServerUserManager.obj
 0003:000000ac       ?__LINE__Var@?0??FrozenedUserScore@CServerUserItem@@UAE_N_J@Z@4JA 100410ac     ServerUserManager.obj
 0003:000000b0       ?__LINE__Var@?0??UnFrozenedUserScore@CServerUserItem@@UAE_N_J@Z@4JA 100410b0     ServerUserManager.obj
 0003:000000b4       ?__LINE__Var@?0??ModifyUserProperty@CServerUserItem@@UAE_N_JJ@Z@4JA 100410b4     ServerUserManager.obj
 0003:000000b8       ?__LINE__Var@?0??DetachBindStatus@CServerUserItem@@UAE_NXZ@4JA 100410b8     ServerUserManager.obj
 0003:000000bc       ?__LINE__Var@?0??ModifyUserInsure@CServerUserItem@@UAE_N_J00@Z@4JA 100410bc     ServerUserManager.obj
 0003:000000c0       ?__LINE__Var@?0??SetUserParameter@CServerUserItem@@UAE_NKGQAD_N1@Z@4JA 100410c0     ServerUserManager.obj
 0003:000000c4       ?__LINE__Var@?0??ModifyUserRight@CServerUserItem@@UAEXKKE@Z@4JA 100410c4     ServerUserManager.obj
 0003:000000c8       ?__LINE__Var@?0??ResetUserItem@CServerUserItem@@AAEXXZ@4JA 100410c8     ServerUserManager.obj
 0003:000000cc       ?__LINE__Var@?0??InitUserGameDataMap@CServerUserItem@@AAEXXZ@4JA 100410cc     ServerUserManager.obj
 0003:000000d0       ?__LINE__Var@?0??IsPureDigitString@CServerUserItem@@AAE_NV?$CStringT@DV?$StrTraitMFC_DLL@DV?$ChTraitsCRT@D@ATL@@@@@ATL@@@Z@4JA 100410d0     ServerUserManager.obj
 0003:000000d4       ?__LINE__Var@?0??IsValidGameData@CServerUserItem@@AAE_NV?$CStringT@DV?$StrTraitMFC_DLL@DV?$ChTraitsCRT@D@ATL@@@@@ATL@@0@Z@4JA 100410d4     ServerUserManager.obj
 0003:000000d8       ?__LINE__Var@?0??SetServerUserItemSink@CServerUserManager@@UAE_NPAUIUnknownEx@@@Z@4JA 100410d8     ServerUserManager.obj
 0003:000000dc       ?__LINE__Var@?0??SetMatchUserItemSink@CServerUserManager@@UAE_NPAUIUnknownEx@@@Z@4JA 100410dc     ServerUserManager.obj
 0003:000000e0       ?__LINE__Var@?0??DeleteUserItem@CServerUserManager@@UAE_NPAUIServerUserItem@@@Z@4JA 100410e0     ServerUserManager.obj
 0003:000000e4       ?__LINE__Var@?0??InsertUserItem@CServerUserManager@@UAE_NPAPAUIServerUserItem@@AAUtagUserInfo@@AAUtagUserInfoPlus@@@Z@4JA 100410e4     ServerUserManager.obj
 0003:000000e8       __pIncludeInitManaged      100410e8     Stdafx.obj
 0003:000000ec       ?m_nCategory@CTrace@ATL@@1IA 100410ec     Stdafx.obj
 0003:000000f0       ?__LINE__Var@?0??AtlWinModuleInit@ATL@@YGJPAU_ATL_WIN_MODULE70@2@@Z@4JA 100410f0     Stdafx.obj
 0003:000000f4       ?__LINE__Var@?0???1CUserTaskManager@@UAE@XZ@4JA 100410f4     UserTaskManager.obj
 0003:000000f8       ?__LINE__Var@?0??AddTaskParameter@CUserTaskManager@@UAE_NQAUtagTaskParameter@@G@Z@4JA 100410f8     UserTaskManager.obj
 0003:000000fc       ?__LINE__Var@?0??SetUserTaskInfo@CUserTaskManager@@UAEXKQAUtagUserTaskInfo@@G@Z@4JA 100410fc     UserTaskManager.obj
 0003:00000100       ?__LINE__Var@?0??CreateUserTaskEntry@CUserTaskManager@@IAEPAUtagUserTaskEntry@@XZ@4JA 10041100     UserTaskManager.obj
 0003:00000104       _WinbaseIsolationAwarePrivateT_UnPgpgk 10041104     mfcs140d:nolib.obj
 0003:00000108       ___scrt_native_dllmain_reason 10041108     msvcrtd:utility.obj
 0003:0000010c       ___security_cookie_complement 1004110c     msvcrtd:gs_cookie.obj
 0003:00000110       ___security_cookie         10041110     msvcrtd:gs_cookie.obj
 0003:00000118       __Init_global_epoch        10041118     msvcrtd:thread_safe_statics.obj
 0003:0000011c       ___isa_enabled             1004111c     msvcrtd:cpu_disp.obj
 0003:00000120       ?_RTC_ErrorLevels@@3PAHA   10041120     msvcrtd:error.obj
 0003:00000138       ___scrt_ucrt_dll_is_in_use 10041138     msvcrtd:ucrt_stubs.obj
 0003:00000278       ??_R0?AUIUnknownEx@@@8     10041278     AndroidUserItem.obj
 0003:00000298       ??_R0?AUIAndroidUserItem@@@8 10041298     AndroidUserItem.obj
 0003:000002c0       ??_R0?AV?$CWHArray@PAUtagTimerItem@@ABQAU1@@@@8 100412c0     AndroidUserItem.obj
 0003:000002fc       ??_R0?AVCAndroidUserItem@@@8 100412fc     AndroidUserItem.obj
 0003:00000324       ??_R0?AVCObject@@@8        10041324     AndroidUserManager.obj
 0003:00000340       ??_R0H@8                   10041340     AndroidUserManager.obj
 0003:00000350       ??_R0?AUIAndroidUserManager@@@8 10041350     AndroidUserManager.obj
 0003:00000378       ??_R0?AVCAndroidUserManager@@@8 10041378     AndroidUserManager.obj
 0003:000003a0       ??_R0?AV?$CWHArray@PAVCAndroidUserItem@@ABQAV1@@@@8 100413a0     AndroidUserManager.obj
 0003:000003e0       ??_R0?AV?$CWHArray@PAUtagAndroidParameterEx@@ABQAU1@@@@8 100413e0     AndroidUserManager.obj
 0003:00000428       ??_R0?AV?$CMap@KKPAVCAndroidUserItem@@PAV1@@@@8 10041428     AndroidUserManager.obj
 0003:00000464       ??_R0?AV?$CWHArray@UtagPropertyInfo@@ABU1@@@@8 10041464     GamePropertyManager.obj
 0003:000004a0       ??_R0?AVCGamePropertyManager@@@8 100414a0     GamePropertyManager.obj
 0003:000004cc       ??_R0?AUIServerUserItem@@@8 100414cc     ServerUserManager.obj
 0003:000004f0       ??_R0?AUIServerUserManager@@@8 100414f0     ServerUserManager.obj
 0003:00000518       ??_R0?AUIServerUserService@@@8 10041518     ServerUserManager.obj
 0003:00000540       ??_R0?AV?$CMap@HHPAUtagGameDataItem@@AAPAU1@@@@8 10041540     ServerUserManager.obj
 0003:00000580       ??_R0?AVCServerUserItem@@@8 10041580     ServerUserManager.obj
 0003:000005a4       ??_R0?AVCServerUserManager@@@8 100415a4     ServerUserManager.obj
 0003:000005cc       ??_R0?AV?$CWHArray@PAVCServerUserItem@@ABQAV1@@@@8 100415cc     ServerUserManager.obj
 0003:0000060c       ??_R0?AV?$CMap@KKPAVCServerUserItem@@PAV1@@@@8 1004160c     ServerUserManager.obj
 0003:00000648       ??_R0?AVCWin32Heap@ATL@@@8 10041648     Stdafx.obj
 0003:0000066c       ??_R0?AUIAtlMemMgr@ATL@@@8 1004166c     Stdafx.obj
 0003:00000690       ??_R0?AUIAtlStringMgr@ATL@@@8 10041690     Stdafx.obj
 0003:000006b8       ??_R0?AVCAtlStringMgr@ATL@@@8 100416b8     Stdafx.obj
 0003:000006e0       ??_R0PAD@8                 100416e0     UserTaskManager.obj
 0003:000006f0       ??_R0PAX@8                 100416f0     UserTaskManager.obj
 0003:00000700       ??_R0?AUIUserTaskManagerSink@@@8 10041700     UserTaskManager.obj
 0003:0000072c       ??_R0?AV?$CWHArray@PAUtagUserTaskEntry@@ABQAU1@@@@8 1004172c     UserTaskManager.obj
 0003:0000076c       ??_R0?AV?$CWHArray@PAUtagTaskParameter@@ABQAU1@@@@8 1004176c     UserTaskManager.obj
 0003:000007ac       ??_R0?AV?$CMap@GGPAUtagTaskParameter@@PAU1@@@@8 100417ac     UserTaskManager.obj
 0003:000007e8       ??_R0?AV?$CMap@KKPAUtagUserTaskEntry@@PAU1@@@@8 100417e8     UserTaskManager.obj
 0003:00000824       ??_R0?AVCUserTaskManager@@@8 10041824     UserTaskManager.obj
 0003:0000084c       ??_R0?AVtype_info@@@8      1004184c     msvcrtd:std_type_info_static.obj
 0003:00000980       ?_OptionsStorage@?1??__local_stdio_printf_options@@9@4_KA 10041980     AndroidUserItem.obj
 0003:0000098c       ?atlTraceException@ATL@@3V?$CTraceCategoryEx@$0CAAA@$0A@@1@A 1004198c     AndroidUserItem.obj
 0003:00000990       ?m_nLastCategory@CTrace@ATL@@1IA 10041990     AndroidUserItem.obj
 0003:00000998       ?m_nMap@CTrace@ATL@@1PAUCategoryMap@12@A 10041998     AndroidUserItem.obj
 0003:00003098       ?m_TimerItemBuffer@CAndroidUserItem@@1V?$CWHArray@PAUtagTimerItem@@ABQAU1@@@A 10044098     AndroidUserItem.obj
 0003:000030b0       ?m_PropertyBuffMap@CGamePropertyManager@@1V?$map@KV?$vector@UtagPropertyBuff@@V?$allocator@UtagPropertyBuff@@@std@@@std@@U?$less@K@2@V?$allocator@U?$pair@$$CBKV?$vector@UtagPropertyBuff@@V?$allocator@UtagPropertyBuff@@@std@@@std@@@std@@@2@@std@@A 100440b0     GamePropertyManager.obj
 0003:000030c0       __afxForceEXTDLL           100440c0     GameService.obj
 0003:000030dc       ?atlTraceString@ATL@@3V?$CTraceCategoryEx@$0CAAAA@$0A@@1@A 100440dc     ServerUserManager.obj
 0003:000030e0       ?_pPerfRegFunc@ATL@@3P6AJPAUHINSTANCE__@@@ZA 100440e0     Stdafx.obj
 0003:000030e4       ?_pPerfUnRegFunc@ATL@@3P6AJXZA 100440e4     Stdafx.obj
 0003:000030e8       ?_AtlRegisterPerUser@ATL@@3_NA 100440e8     Stdafx.obj
 0003:000030ec       ?_pAtlModule@ATL@@3PAVCAtlModule@1@A 100440ec     Stdafx.obj
 0003:000030f0       ?_pModule@ATL@@3PAVCComModule@1@A 100440f0     Stdafx.obj
 0003:000030f4       ?_pAtlAutoThreadModule@ATL@@3PAUIAtlAutoThreadModule@1@A 100440f4     Stdafx.obj
 0003:000030f8       ___@@_PchSym_@00@UKlsKomKqyKlsKroKqzUszkkbtznvdsUKltKqnKrmKluKrpKpyKlsKpoKpkUKlvKorKpmKlqKqsKovKlsKqoKplKluKomKquUKltKorKorKltKrrKrkKltKqnKrmKluKrpKpyUwvyftPzmhrUhgwzucOlyq@4B2008FD98C1DD4 100440f8     Stdafx.obj
 0003:000030fc       ?atlTraceGeneral@ATL@@3V?$CTraceCategoryEx@$00$0A@@1@A 100440fc     Stdafx.obj
 0003:00003100       ?atlTraceCOM@ATL@@3V?$CTraceCategoryEx@$01$0A@@1@A 10044100     Stdafx.obj
 0003:00003104       ?atlTraceQI@ATL@@3V?$CTraceCategoryEx@$03$0A@@1@A 10044104     Stdafx.obj
 0003:00003108       ?atlTraceRegistrar@ATL@@3V?$CTraceCategoryEx@$07$0A@@1@A 10044108     Stdafx.obj
 0003:0000310c       ?atlTraceRefcount@ATL@@3V?$CTraceCategoryEx@$0BA@$0A@@1@A 1004410c     Stdafx.obj
 0003:00003110       ?atlTraceWindowing@ATL@@3V?$CTraceCategoryEx@$0CA@$0A@@1@A 10044110     Stdafx.obj
 0003:00003114       ?atlTraceControls@ATL@@3V?$CTraceCategoryEx@$0EA@$0A@@1@A 10044114     Stdafx.obj
 0003:00003118       ?atlTraceHosting@ATL@@3V?$CTraceCategoryEx@$0IA@$0A@@1@A 10044118     Stdafx.obj
 0003:0000311c       ?atlTraceDBClient@ATL@@3V?$CTraceCategoryEx@$0BAA@$0A@@1@A 1004411c     Stdafx.obj
 0003:00003120       ?atlTraceDBProvider@ATL@@3V?$CTraceCategoryEx@$0CAA@$0A@@1@A 10044120     Stdafx.obj
 0003:00003124       ?atlTraceSnapin@ATL@@3V?$CTraceCategoryEx@$0EAA@$0A@@1@A 10044124     Stdafx.obj
 0003:00003128       ?atlTraceNotImpl@ATL@@3V?$CTraceCategoryEx@$0IAA@$0A@@1@A 10044128     Stdafx.obj
 0003:0000312c       ?atlTraceAllocation@ATL@@3V?$CTraceCategoryEx@$0BAAA@$0A@@1@A 1004412c     Stdafx.obj
 0003:00003130       ?atlTraceTime@ATL@@3V?$CTraceCategoryEx@$0EAAA@$0A@@1@A 10044130     Stdafx.obj
 0003:00003134       ?atlTraceCache@ATL@@3V?$CTraceCategoryEx@$0IAAA@$0A@@1@A 10044134     Stdafx.obj
 0003:00003138       ?atlTraceStencil@ATL@@3V?$CTraceCategoryEx@$0BAAAA@$0A@@1@A 10044138     Stdafx.obj
 0003:0000313c       ?atlTraceMap@ATL@@3V?$CTraceCategoryEx@$0EAAAA@$0A@@1@A 1004413c     Stdafx.obj
 0003:00003140       ?atlTraceUtil@ATL@@3V?$CTraceCategoryEx@$0IAAAA@$0A@@1@A 10044140     Stdafx.obj
 0003:00003144       ?atlTraceSecurity@ATL@@3V?$CTraceCategoryEx@$0BAAAAA@$0A@@1@A 10044144     Stdafx.obj
 0003:00003148       ?atlTraceSync@ATL@@3V?$CTraceCategoryEx@$0CAAAAA@$0A@@1@A 10044148     Stdafx.obj
 0003:0000314c       ?atlTraceISAPI@ATL@@3V?$CTraceCategoryEx@$0EAAAAA@$0A@@1@A 1004414c     Stdafx.obj
 0003:00003150       ?m_nLevel@CTrace@ATL@@1IA  10044150     Stdafx.obj
 0003:00003154       ?m_bInitFailed@CAtlBaseModule@ATL@@2_NA 10044154     Stdafx.obj
 0003:00003158       ?_AtlComModule@ATL@@3VCAtlComModule@1@A 10044158     Stdafx.obj
 0003:00003188       ?_AtlWinModule@ATL@@3VCAtlWinModule@1@A 10044188     Stdafx.obj
 0003:000031bc       ?strHeap@?1??GetInstance@CAtlStringMgr@ATL@@SAPAUIAtlStringMgr@3@XZ@4VCWin32Heap@3@A 100441bc     Stdafx.obj
 0003:000031cc       ?$TSS0@?1??GetInstance@CAtlStringMgr@ATL@@SAPAUIAtlStringMgr@3@XZ@4HA 100441cc     Stdafx.obj
 0003:000031d0       ?strMgr@?1??GetInstance@CAtlStringMgr@ATL@@SAPAUIAtlStringMgr@3@XZ@4V23@A 100441d0     Stdafx.obj
 0003:000031f4       ?$TSS1@?1??GetInstance@CAtlStringMgr@ATL@@SAPAUIAtlStringMgr@3@XZ@4HA 100441f4     Stdafx.obj
 0003:000031f8       ?InitializeCAtlStringMgr@ATLImplementationDetails@ATL@@3UCAtlStringMgrStaticInitializer@12@A 100441f8     Stdafx.obj
 0003:000031fc       __afxForceEXCLUDE          100441fc     mfcs140d:nolib.obj
 0003:00003200       _IsolationAwarePrivateT_SqbjaYRiRY 10044200     mfcs140d:nolib.obj
 0003:00003204       _IsolationAwarePrivateT_SAbnPgpgk 10044204     mfcs140d:nolib.obj
 0003:00003208       _WinbaseIsolationAwarePrivateT_SpeRNgRQnPgpgk 10044208     mfcs140d:nolib.obj
 0003:0000320c       _WinbaseIsolationAwarePrivateT_SpYRNahcpNYYRQ 1004420c     mfcs140d:nolib.obj
 0003:00003210       ?s_pfn@?1??IsolationAwareCreateActCtxW@@9@4@4P6GPAXPBUtagACTCTXW@@@ZA 10044210     mfcs140d:nolib.obj
 0003:00003214       ?s_pfn@?1??IsolationAwareActivateActCtx@@9@8@4P6GHPAXPAK@ZA 10044214     mfcs140d:nolib.obj
 0003:00003218       ?s_pfn@?1??IsolationAwareDeactivateActCtx@@9@8@4P6GHKK@ZA 10044218     mfcs140d:nolib.obj
 0003:0000321c       ?s_pfn@?1??IsolationAwareFindActCtxSectionStringW@@9@20@4P6GHKPBU_GUID@@KPB_WPAUtagACTCTX_SECTION_KEYED_DATA@@@ZA 1004421c     mfcs140d:nolib.obj
 0003:00003220       ?s_pfn@?1??IsolationAwareQueryActCtxW@@9@28@4P6GHKPAX0K0KPAK@ZA 10044220     mfcs140d:nolib.obj
 0003:00003224       ?m@?1??WinbaseIsolationAwarePrivatetRgCebPnQQeRff_xReaRYQP_QYY@@9@4@4UIsolationAwarePrivate_zHGnoyr_zBqHyr_vAsB@@A 10044224     mfcs140d:nolib.obj
 0003:00003228       ??_B?1??GetInstance@CAtlStringMgr@ATL@@SAPAUIAtlStringMgr@2@XZ@51 10044228     mfcs140d:nolib.obj
 0003:0000322c       __afxForceSTDAFX           1004422c     mfcs140d:stdafx.obj
 0003:00003230       ___scrt_current_native_startup_state 10044230     msvcrtd:utility.obj
 0003:00003234       ___scrt_native_startup_lock 10044234     msvcrtd:utility.obj
 0003:0000328c       __tls_index                1004428c     msvcrtd:tlssup.obj
 0003:00003298       ___isa_available           10044298     msvcrtd:cpu_disp.obj
 0003:0000329c       ___favor                   1004429c     msvcrtd:cpu_disp.obj
 0003:000032a4       ___scrt_debugger_hook_flag 100442a4     msvcrtd:utility_desktop.obj
 0003:00003668       ?__type_info_root_node@@3U__type_info_node@@A 10044668     msvcrtd:tncleanup.obj
 0003:00003678       ?_OptionsStorage@?1??__local_stdio_scanf_options@@9@4_KA 10044678     msvcrtd:default_local_stdio_options.obj
 0003:00003698       ?_AtlBaseModule@ATL@@3VCAtlBaseModule@1@A 10044698     atls:atlbase.obj
 0003:000036dc       ___@@_PchSym_@00@UztvmgUPdlipUDUhUrmgvinvwrzgvUexgllohUzgohOmzgrevkilqPBACIAJCBDBUlyqiUcIGUhgwzucOlyq@4B2008FD98C1DD4 100446dc     atls:stdafx.obj
 0003:000036e0       ___dyn_tls_init_callback   100446e0     <common>
 0004:00000000       __imp__UnhandledExceptionFilter@4 10045000     kernel32:KERNEL32.dll
 0004:00000004       __imp__FreeLibrary@4       10045004     kernel32:KERNEL32.dll
 0004:00000008       __imp__VirtualQuery@12     10045008     kernel32:KERNEL32.dll
 0004:0000000c       __imp__WideCharToMultiByte@32 1004500c     kernel32:KERNEL32.dll
 0004:00000010       __imp__InitializeSListHead@4 10045010     kernel32:KERNEL32.dll
 0004:00000014       __imp__GetSystemTimeAsFileTime@4 10045014     kernel32:KERNEL32.dll
 0004:00000018       __imp__GetCurrentThreadId@0 10045018     kernel32:KERNEL32.dll
 0004:0000001c       __imp__GetCurrentProcessId@0 1004501c     kernel32:KERNEL32.dll
 0004:00000020       __imp__QueryPerformanceCounter@4 10045020     kernel32:KERNEL32.dll
 0004:00000024       __imp__TerminateProcess@8  10045024     kernel32:KERNEL32.dll
 0004:00000028       __imp__GetCurrentProcess@0 10045028     kernel32:KERNEL32.dll
 0004:0000002c       __imp__GetStartupInfoW@4   1004502c     kernel32:KERNEL32.dll
 0004:00000030       __imp__SetUnhandledExceptionFilter@4 10045030     kernel32:KERNEL32.dll
 0004:00000034       __imp__OutputDebugStringW@4 10045034     kernel32:KERNEL32.dll
 0004:00000038       __imp__IsDebuggerPresent@0 10045038     kernel32:KERNEL32.dll
 0004:0000003c       __imp__IsProcessorFeaturePresent@4 1004503c     kernel32:KERNEL32.dll
 0004:00000040       __imp__CreateEventW@16     10045040     kernel32:KERNEL32.dll
 0004:00000044       __imp__WaitForSingleObjectEx@12 10045044     kernel32:KERNEL32.dll
 0004:00000048       __imp__ResetEvent@4        10045048     kernel32:KERNEL32.dll
 0004:0000004c       __imp__SetEvent@4          1004504c     kernel32:KERNEL32.dll
 0004:00000050       __imp__LeaveCriticalSection@4 10045050     kernel32:KERNEL32.dll
 0004:00000054       __imp__EnterCriticalSection@4 10045054     kernel32:KERNEL32.dll
 0004:00000058       __imp__CloseHandle@4       10045058     kernel32:KERNEL32.dll
 0004:0000005c       __imp__LoadLibraryW@4      1004505c     kernel32:KERNEL32.dll
 0004:00000060       __imp__GetProcAddress@8    10045060     kernel32:KERNEL32.dll
 0004:00000064       __imp__GetModuleHandleW@4  10045064     kernel32:KERNEL32.dll
 0004:00000068       __imp__GetModuleHandleA@4  10045068     kernel32:KERNEL32.dll
 0004:0000006c       __imp__GetModuleFileNameW@12 1004506c     kernel32:KERNEL32.dll
 0004:00000070       __imp__OutputDebugStringA@4 10045070     kernel32:KERNEL32.dll
 0004:00000074       __imp__MultiByteToWideChar@24 10045074     kernel32:KERNEL32.dll
 0004:00000078       __imp__DeleteCriticalSection@4 10045078     kernel32:KERNEL32.dll
 0004:0000007c       __imp__InitializeCriticalSectionAndSpinCount@8 1004507c     kernel32:KERNEL32.dll
 0004:00000080       __imp__GetProcessHeap@0    10045080     kernel32:KERNEL32.dll
 0004:00000084       __imp__HeapSize@12         10045084     kernel32:KERNEL32.dll
 0004:00000088       __imp__HeapFree@12         10045088     kernel32:KERNEL32.dll
 0004:0000008c       __imp__HeapReAlloc@16      1004508c     kernel32:KERNEL32.dll
 0004:00000090       __imp__HeapAlloc@12        10045090     kernel32:KERNEL32.dll
 0004:00000094       __imp__HeapDestroy@4       10045094     kernel32:KERNEL32.dll
 0004:00000098       __imp__SetLastError@4      10045098     kernel32:KERNEL32.dll
 0004:0000009c       __imp__GetLastError@0      1004509c     kernel32:KERNEL32.dll
 0004:000000a0       __imp__RaiseException@16   100450a0     kernel32:KERNEL32.dll
 0004:000000a4       __imp__DecodePointer@4     100450a4     kernel32:KERNEL32.dll
 0004:000000a8       __imp__CompareStringA@24   100450a8     kernel32:KERNEL32.dll
 0004:000000ac       __imp__GetLocalTime@4      100450ac     kernel32:KERNEL32.dll
 0004:000000b0       __imp__lstrlenA@4          100450b0     kernel32:KERNEL32.dll
 0004:000000b4       __imp__lstrcpynA@12        100450b4     kernel32:KERNEL32.dll
 0004:000000b8       \177KERNEL32_NULL_THUNK_DATA 100450b8     kernel32:KERNEL32.dll
 0004:00000108       __imp_?TraceString@CTraceService@@SA_NPBDW4enTraceLevel@@@Z 10045108     KernelEngine:KernelEngine.dll
 0004:0000010c       \177KernelEngine_NULL_THUNK_DATA 1004510c     KernelEngine:KernelEngine.dll
 0004:00000138       __imp_??0_Lockit@std@@QAE@H@Z 10045138     msvcprtd:MSVCP140D.dll
 0004:0000013c       __imp_?_W_Getmonths@_Locinfo@std@@QBEPBGXZ 1004513c     msvcprtd:MSVCP140D.dll
 0004:00000140       __imp_?_W_Getdays@_Locinfo@std@@QBEPBGXZ 10045140     msvcprtd:MSVCP140D.dll
 0004:00000144       __imp_??1_Lockit@std@@QAE@XZ 10045144     msvcprtd:MSVCP140D.dll
 0004:00000148       __imp_?_Getdays@_Locinfo@std@@QBEPBDXZ 10045148     msvcprtd:MSVCP140D.dll
 0004:0000014c       __imp_?_Getcvt@_Locinfo@std@@QBE?AU_Cvtvec@@XZ 1004514c     msvcprtd:MSVCP140D.dll
 0004:00000150       __imp___Mbrtowc            10045150     msvcprtd:MSVCP140D.dll
 0004:00000154       __imp_?_Xbad_alloc@std@@YAXXZ 10045154     msvcprtd:MSVCP140D.dll
 0004:00000158       __imp_?_Xlength_error@std@@YAXPBD@Z 10045158     msvcprtd:MSVCP140D.dll
 0004:0000015c       __imp_?_Getmonths@_Locinfo@std@@QBEPBDXZ 1004515c     msvcprtd:MSVCP140D.dll
 0004:00000160       \177MSVCP140D_NULL_THUNK_DATA 10045160     msvcprtd:MSVCP140D.dll
 0004:00000194       __imp__SysFreeString@4     10045194     oleaut32:OLEAUT32.dll
 0004:00000198       \177OLEAUT32_NULL_THUNK_DATA 10045198     oleaut32:OLEAUT32.dll
 0004:000001c4       __imp__UnregisterClassA@8  100451c4     user32:USER32.dll
 0004:000001c8       __imp__PeekMessageA@20     100451c8     user32:USER32.dll
 0004:000001cc       __imp__PostQuitMessage@4   100451cc     user32:USER32.dll
 0004:000001d0       \177USER32_NULL_THUNK_DATA 100451d0     user32:USER32.dll
 0004:000001fc       __imp__memmove             100451fc     vcruntimed:VCRUNTIME140D.dll
 0004:00000200       __imp____CxxFrameHandler3  10045200     vcruntimed:VCRUNTIME140D.dll
 0004:00000204       __imp__memcmp              10045204     vcruntimed:VCRUNTIME140D.dll
 0004:00000208       __imp___purecall           10045208     vcruntimed:VCRUNTIME140D.dll
 0004:0000020c       __imp___CxxThrowException@8 1004520c     vcruntimed:VCRUNTIME140D.dll
 0004:00000210       __imp___except_handler4_common 10045210     vcruntimed:VCRUNTIME140D.dll
 0004:00000214       __imp____std_type_info_destroy_list 10045214     vcruntimed:VCRUNTIME140D.dll
 0004:00000218       __imp__memset              10045218     vcruntimed:VCRUNTIME140D.dll
 0004:0000021c       __imp____vcrt_GetModuleFileNameW 1004521c     vcruntimed:VCRUNTIME140D.dll
 0004:00000220       __imp__memcpy              10045220     vcruntimed:VCRUNTIME140D.dll
 0004:00000224       __imp____vcrt_LoadLibraryExW 10045224     vcruntimed:VCRUNTIME140D.dll
 0004:00000228       __imp____vcrt_GetModuleHandleW 10045228     vcruntimed:VCRUNTIME140D.dll
 0004:0000022c       \177VCRUNTIME140D_NULL_THUNK_DATA 1004522c     vcruntimed:VCRUNTIME140D.dll
 0004:00000260       __imp_?Serialize@CObject@@UAEXAAVCArchive@@@Z 10045260     mfc140d:mfc140d.dll
 0004:00000264       __imp_??0CObject@@IAE@XZ   10045264     mfc140d:mfc140d.dll
 0004:00000268       __imp_??3CObject@@SGXPAX@Z 10045268     mfc140d:mfc140d.dll
 0004:0000026c       __imp_??1CObject@@UAE@XZ   1004526c     mfc140d:mfc140d.dll
 0004:00000270       __imp_?GetRuntimeClass@CObject@@UBEPAUCRuntimeClass@@XZ 10045270     mfc140d:mfc140d.dll
 0004:00000274       __imp_?AfxAssertValidObject@@YGXPBVCObject@@PBDH@Z 10045274     mfc140d:mfc140d.dll
 0004:00000278       __imp_??3@YAXPAX@Z         10045278     mfc140d:mfc140d.dll
 0004:0000027c       __imp_?Format@?$CStringT@DV?$StrTraitMFC_DLL@DV?$ChTraitsCRT@D@ATL@@@@@ATL@@QAAXPBDZZ 1004527c     mfc140d:mfc140d.dll
 0004:00000280       __imp_??1?$CStringT@DV?$StrTraitMFC_DLL@DV?$ChTraitsCRT@D@ATL@@@@@ATL@@QAE@XZ 10045280     mfc140d:mfc140d.dll
 0004:00000284       __imp_??0?$CStringT@DV?$StrTraitMFC_DLL@DV?$ChTraitsCRT@D@ATL@@@@@ATL@@QAE@XZ 10045284     mfc140d:mfc140d.dll
 0004:00000288       __imp_??B?$CSimpleStringT@D$00@ATL@@QBEPBDXZ 10045288     mfc140d:mfc140d.dll
 0004:0000028c       __imp_?AfxThrowInvalidArgException@@YGXXZ 1004528c     mfc140d:mfc140d.dll
 0004:00000290       __imp_?Dump@CObject@@UBEXAAVCDumpContext@@@Z 10045290     mfc140d:mfc140d.dll
 0004:00000294       __imp_??_U@YAPAXI@Z        10045294     mfc140d:mfc140d.dll
 0004:00000298       __imp_??2@YAPAXI@Z         10045298     mfc140d:mfc140d.dll
 0004:0000029c       __imp_?GetLength@?$CSimpleStringT@D$00@ATL@@QBEHXZ 1004529c     mfc140d:mfc140d.dll
 0004:000002a0       __imp_?IsEmpty@?$CSimpleStringT@D$00@ATL@@QBE_NXZ 100452a0     mfc140d:mfc140d.dll
 0004:000002a4       __imp_?AfxIsValidAddress@@YGHPBXIH@Z 100452a4     mfc140d:mfc140d.dll
 0004:000002a8       __imp_??_U@YAPAXIPBDH@Z    100452a8     mfc140d:mfc140d.dll
 0004:000002ac       __imp_?IsStoring@CArchive@@QBEHXZ 100452ac     mfc140d:mfc140d.dll
 0004:000002b0       __imp_?EnsureRead@CArchive@@QAEXPAXI@Z 100452b0     mfc140d:mfc140d.dll
 0004:000002b4       __imp_?Write@CArchive@@QAEXPBXI@Z 100452b4     mfc140d:mfc140d.dll
 0004:000002b8       __imp_?ReadCount@CArchive@@QAEKXZ 100452b8     mfc140d:mfc140d.dll
 0004:000002bc       __imp_??0?$CStringT@DV?$StrTraitMFC_DLL@DV?$ChTraitsCRT@D@ATL@@@@@ATL@@QAE@ABV01@@Z 100452bc     mfc140d:mfc140d.dll
 0004:000002c0       __imp_??0?$CStringT@DV?$StrTraitMFC_DLL@DV?$ChTraitsCRT@D@ATL@@@@@ATL@@QAE@PBD@Z 100452c0     mfc140d:mfc140d.dll
 0004:000002c4       __imp_?Tokenize@?$CStringT@DV?$StrTraitMFC_DLL@DV?$ChTraitsCRT@D@ATL@@@@@ATL@@QBE?AV12@PBDAAH@Z 100452c4     mfc140d:mfc140d.dll
 0004:000002c8       __imp_?AppendFormat@?$CStringT@DV?$StrTraitMFC_DLL@DV?$ChTraitsCRT@D@ATL@@@@@ATL@@QAAXPBDZZ 100452c8     mfc140d:mfc140d.dll
 0004:000002cc       __imp_??0CStringArray@@QAE@XZ 100452cc     mfc140d:mfc140d.dll
 0004:000002d0       __imp_?GetCount@CStringArray@@QBEHXZ 100452d0     mfc140d:mfc140d.dll
 0004:000002d4       __imp_?RemoveAll@CStringArray@@QAEXXZ 100452d4     mfc140d:mfc140d.dll
 0004:000002d8       __imp_?AssertValid@CObject@@UBEXXZ 100452d8     mfc140d:mfc140d.dll
 0004:000002dc       __imp_??1CStringArray@@UAE@XZ 100452dc     mfc140d:mfc140d.dll
 0004:000002e0       __imp_?Add@CStringArray@@QAEHABV?$CStringT@DV?$StrTraitMFC_DLL@DV?$ChTraitsCRT@D@ATL@@@@@ATL@@@Z 100452e0     mfc140d:mfc140d.dll
 0004:000002e4       __imp_?WriteCount@CArchive@@QAEXK@Z 100452e4     mfc140d:mfc140d.dll
 0004:000002e8       __imp_?GetDepth@CDumpContext@@QBEHXZ 100452e8     mfc140d:mfc140d.dll
 0004:000002ec       __imp_??6CDumpContext@@QAEAAV0@PBD@Z 100452ec     mfc140d:mfc140d.dll
 0004:000002f0       __imp_??6CDumpContext@@QAEAAV0@H@Z 100452f0     mfc140d:mfc140d.dll
 0004:000002f4       __imp_?Create@CPlex@@SGPAU1@AAPAU1@II@Z 100452f4     mfc140d:mfc140d.dll
 0004:000002f8       __imp_?FreeDataChain@CPlex@@QAEXXZ 100452f8     mfc140d:mfc140d.dll
 0004:000002fc       __imp_??2CObject@@SGPAXI@Z 100452fc     mfc140d:mfc140d.dll
 0004:00000300       __imp_?AfxGetModuleState@@YGPAVAFX_MODULE_STATE@@XZ 10045300     mfc140d:mfc140d.dll
 0004:00000304       __imp_??0CDynLinkLibrary@@QAE@AAUAFX_EXTENSION_MODULE@@H@Z 10045304     mfc140d:mfc140d.dll
 0004:00000308       __imp_?AfxInitExtensionModule@@YGHAAUAFX_EXTENSION_MODULE@@PAUHINSTANCE__@@@Z 10045308     mfc140d:mfc140d.dll
 0004:0000030c       __imp_?AfxTermExtensionModule@@YGXAAUAFX_EXTENSION_MODULE@@H@Z 1004530c     mfc140d:mfc140d.dll
 0004:00000310       __imp_??_V@YAXPAX@Z        10045310     mfc140d:mfc140d.dll
 0004:00000314       __imp_??A?$CSimpleStringT@D$00@ATL@@QBEDH@Z 10045314     mfc140d:mfc140d.dll
 0004:00000318       __imp_?GetAt@CStringArray@@QBEABV?$CStringT@DV?$StrTraitMFC_DLL@DV?$ChTraitsCRT@D@ATL@@@@@ATL@@H@Z 10045318     mfc140d:mfc140d.dll
 0004:0000031c       \177mfc140d_NULL_THUNK_DATA 1004531c     mfc140d:mfc140d.dll
 0004:0000036c       __imp__wcslen              1004536c     ucrtd:ucrtbased.dll
 0004:00000370       __imp__strlen              10045370     ucrtd:ucrtbased.dll
 0004:00000374       __imp____stdio_common_vswprintf_s 10045374     ucrtd:ucrtbased.dll
 0004:00000378       __imp__rand                10045378     ucrtd:ucrtbased.dll
 0004:0000037c       __imp___time64             1004537c     ucrtd:ucrtbased.dll
 0004:00000380       __imp___calloc_dbg         10045380     ucrtd:ucrtbased.dll
 0004:00000384       __imp___CrtDbgReport       10045384     ucrtd:ucrtbased.dll
 0004:00000388       __imp___CrtDbgReportW      10045388     ucrtd:ucrtbased.dll
 0004:0000038c       __imp__ldiv                1004538c     ucrtd:ucrtbased.dll
 0004:00000390       __imp___invalid_parameter  10045390     ucrtd:ucrtbased.dll
 0004:00000394       __imp____stdio_common_vsnprintf_s 10045394     ucrtd:ucrtbased.dll
 0004:00000398       __imp__atoi                10045398     ucrtd:ucrtbased.dll
 0004:0000039c       __imp____stdio_common_vsprintf 1004539c     ucrtd:ucrtbased.dll
 0004:000003a0       __imp__free                100453a0     ucrtd:ucrtbased.dll
 0004:000003a4       __imp__malloc              100453a4     ucrtd:ucrtbased.dll
 0004:000003a8       __imp__terminate           100453a8     ucrtd:ucrtbased.dll
 0004:000003ac       __imp___seh_filter_dll     100453ac     ucrtd:ucrtbased.dll
 0004:000003b0       __imp__wcscpy_s            100453b0     ucrtd:ucrtbased.dll
 0004:000003b4       __imp___initialize_narrow_environment 100453b4     ucrtd:ucrtbased.dll
 0004:000003b8       __imp___initialize_onexit_table 100453b8     ucrtd:ucrtbased.dll
 0004:000003bc       __imp___register_onexit_function 100453bc     ucrtd:ucrtbased.dll
 0004:000003c0       __imp___execute_onexit_table 100453c0     ucrtd:ucrtbased.dll
 0004:000003c4       __imp___crt_atexit         100453c4     ucrtd:ucrtbased.dll
 0004:000003c8       __imp___crt_at_quick_exit  100453c8     ucrtd:ucrtbased.dll
 0004:000003cc       __imp___cexit              100453cc     ucrtd:ucrtbased.dll
 0004:000003d0       __imp___initterm           100453d0     ucrtd:ucrtbased.dll
 0004:000003d4       __imp___initterm_e         100453d4     ucrtd:ucrtbased.dll
 0004:000003d8       __imp__strcpy_s            100453d8     ucrtd:ucrtbased.dll
 0004:000003dc       __imp__strcat_s            100453dc     ucrtd:ucrtbased.dll
 0004:000003e0       __imp____stdio_common_vsprintf_s 100453e0     ucrtd:ucrtbased.dll
 0004:000003e4       __imp___wmakepath_s        100453e4     ucrtd:ucrtbased.dll
 0004:000003e8       __imp___wsplitpath_s       100453e8     ucrtd:ucrtbased.dll
 0004:000003ec       __imp___invalid_parameter_noinfo 100453ec     ucrtd:ucrtbased.dll
 0004:000003f0       __imp___errno              100453f0     ucrtd:ucrtbased.dll
 0004:000003f4       __imp___recalloc           100453f4     ucrtd:ucrtbased.dll
 0004:000003f8       __imp___configure_narrow_argv 100453f8     ucrtd:ucrtbased.dll
 0004:000003fc       \177ucrtbased_NULL_THUNK_DATA 100453fc     ucrtd:ucrtbased.dll
 0004:00000444       __IMPORT_DESCRIPTOR_KernelEngine 10045444     KernelEngine:KernelEngine.dll
 0004:00000458       __IMPORT_DESCRIPTOR_mfc140d 10045458     mfc140d:mfc140d.dll
 0004:0000046c       __IMPORT_DESCRIPTOR_KERNEL32 1004546c     kernel32:KERNEL32.dll
 0004:00000480       __IMPORT_DESCRIPTOR_USER32 10045480     user32:USER32.dll
 0004:00000494       __IMPORT_DESCRIPTOR_OLEAUT32 10045494     oleaut32:OLEAUT32.dll
 0004:000004a8       __IMPORT_DESCRIPTOR_MSVCP140D 100454a8     msvcprtd:MSVCP140D.dll
 0004:000004bc       __IMPORT_DESCRIPTOR_VCRUNTIME140D 100454bc     vcruntimed:VCRUNTIME140D.dll
 0004:000004d0       __IMPORT_DESCRIPTOR_ucrtbased 100454d0     ucrtd:ucrtbased.dll
 0004:000004e4       __NULL_IMPORT_DESCRIPTOR   100454e4     KernelEngine:KernelEngine.dll
 0005:00000000       __tls_start                10047000     msvcrtd:tlssup.obj
 0005:00000104       __Init_thread_epoch        10047104     msvcrtd:thread_safe_statics.obj
 0005:00000208       __tls_end                  10047208     msvcrtd:tlssup.obj
 0006:00000000       ___guard_check_icall_fptr  10048000     msvcrtd:guard_support.obj

 entry point at        0001:00000b54

 Static symbols

 0000:fffb9000       __guard_fids_??_Estringdispid@CComTypeInfoHolder@ATL@@QAEPAXI@Z 10000000     mfcs140d:nolib.obj
 0002:fffcf000       ?atlTraceUtil$initializer$@ATL@@3P6AXXZA 10000000     mfcs140d:nolib.obj
 0002:fffcf000       ?atlTraceString$initializer$@ATL@@3P6AXXZA 10000000     Stdafx.obj
 0000:fffb9000       __guard_fids__             10000000     mfcs140d:nolib.obj
 0002:fffcf000       ?atlTraceMap$initializer$@ATL@@3P6AXXZA 10000000     mfcs140d:nolib.obj
 0000:fffb9000       __guard_fids__             10000000     mfcs140d:nolib.obj
 0002:fffcf000       ?atlTraceString$initializer$@ATL@@3P6AXXZA 10000000     mfcs140d:nolib.obj
 0001:fffff000       __unwindfunclet$?TraceV@CTrace@ATL@@SAXPBDHII0PAD@Z$0 10000000 f   mfcs140d:stdafx.obj
 0000:fffb9000       __guard_fids__             10000000     mfcs140d:nolib.obj
 0002:fffcf000       ?atlTraceStencil$initializer$@ATL@@3P6AXXZA 10000000     mfcs140d:nolib.obj
 0000:fffb9000       __guard_fids__             10000000     mfcs140d:nolib.obj
 0002:fffcf000       ?atlTraceCache$initializer$@ATL@@3P6AXXZA 10000000     mfcs140d:nolib.obj
 0000:fffb9000       __guard_fids__             10000000     mfcs140d:nolib.obj
 0002:fffcf000       ?atlTraceException$initializer$@ATL@@3P6AXXZA 10000000     Stdafx.obj
 0000:fffb3000       .debug$S                   10000000     KernelEngine:KernelEngine.dll
 0000:fffb3000       .debug$S                   10000000     mfc140d:mfc140d.dll
 0000:fffb3000       .debug$S                   10000000     mfc140d:mfc140d.dll
 0002:fffcf000       ?atlTraceTime$initializer$@ATL@@3P6AXXZA 10000000     mfcs140d:nolib.obj
 0000:fffb9000       __guard_fids_?dllmain_dispatch@@YAHQAUHINSTANCE__@@KQAX@Z 10000000     msvcrtd:dll_dllmain.obj
 0001:fffff000       __ehhandler$??_ECAndroidUserItem@@UAEPAXI@Z 10000000 f   AndroidUserManager.obj
 0000:fffb3000       .debug$S                   10000000     mfc140d:mfc140d.dll
 0000:fffb3000       .debug$S                   10000000     mfc140d:mfc140d.dll
 0000:fffb3000       .debug$S                   10000000     mfc140d:mfc140d.dll
 0000:fffb3000       .debug$S                   10000000     mfc140d:mfc140d.dll
 0000:fffb3000       .debug$S                   10000000     mfc140d:mfc140d.dll
 0000:fffb3000       .debug$S                   10000000     mfc140d:mfc140d.dll
 0000:fffb3000       .debug$S                   10000000     mfc140d:mfc140d.dll
 0000:fffb3000       .debug$S                   10000000     mfc140d:mfc140d.dll
 0000:fffb3000       .debug$S                   10000000     mfc140d:mfc140d.dll
 0000:fffb3000       .debug$S                   10000000     mfc140d:mfc140d.dll
 0000:fffb9000       __guard_fids__             10000000     mfcs140d:nolib.obj
 0000:fffb3000       .debug$S                   10000000     mfc140d:mfc140d.dll
 0002:fffcf000       ?atlTraceException$initializer$@ATL@@3P6AXXZA 10000000     mfcs140d:nolib.obj
 0000:fffb3000       .debug$S                   10000000     mfc140d:mfc140d.dll
 0000:fffb9000       __guard_fids___CRT_RTC_INIT 10000000     msvcrtd:init.obj
 0000:fffb3000       .debug$S                   10000000     mfc140d:mfc140d.dll
 0000:fffb9000       __guard_fids___CRT_RTC_INITW 10000000     msvcrtd:init.obj
 0000:fffb9000       __guard_fids__             10000000     mfcs140d:nolib.obj
 0000:fffb3000       .debug$S                   10000000     mfc140d:mfc140d.dll
 0000:fffb9000       __guard_fids___except_handler4 10000000     msvcrtd:chandler4gs.obj
 0001:fffff000       __unwindfunclet$??RCTraceFileAndLineInfo@ATL@@QBAXHIPBDZZ$0 10000000 f   mfcs140d:stdafx.obj
 0000:fffb3000       .debug$S                   10000000     mfc140d:mfc140d.dll
 0000:fffb3000       .debug$S                   10000000     mfc140d:mfc140d.dll
 0000:fffb3000       .debug$S                   10000000     mfc140d:mfc140d.dll
 0001:fffff000       __ehhandler$??1?$CSimpleArray@GV?$CSimpleArrayEqualHelper@G@ATL@@@ATL@@QAE@XZ 10000000 f   mfcs140d:stdafx.obj
 0000:fffb3000       .debug$S                   10000000     mfc140d:mfc140d.dll
 0000:fffb9000       __guard_fids__             10000000     msvcrtd:guard_support.obj
 0000:fffb3000       .debug$S                   10000000     mfc140d:mfc140d.dll
 0001:fffff000       __unwindfunclet$??0_ATL_WIN_MODULE70@ATL@@QAE@XZ$0 10000000 f   mfcs140d:stdafx.obj
 0000:fffb3000       .debug$S                   10000000     mfc140d:mfc140d.dll
 0001:fffff000       __ehhandler$??1CAtlComModule@ATL@@QAE@XZ 10000000 f   mfcs140d:stdafx.obj
 0000:fffb3000       .debug$S                   10000000     mfc140d:mfc140d.dll
 0000:fffb3000       .debug$S                   10000000     mfc140d:mfc140d.dll
 0001:fffff000       __ehhandler$??1CAtlWinModule@ATL@@QAE@XZ 10000000 f   mfcs140d:stdafx.obj
 0000:fffb9000       __guard_fids___guard_icall_checks_enforced 10000000     msvcrtd:guard_support.obj
 0000:fffb3000       .debug$S                   10000000     mfc140d:mfc140d.dll
 0000:fffb3000       .debug$S                   10000000     mfc140d:mfc140d.dll
 0002:fffcf000       __ehfuncinfo$??_ECAndroidUserItem@@UAEPAXI@Z 10000000     AndroidUserManager.obj
 0002:fffcf000       ?atlTraceException$initializer$@ATL@@3P6AXXZA 10000000     AndroidUserManager.obj
 0000:fffb9000       __guard_fids____scrt_set_unhandled_exception_filter 10000000     msvcrtd:utility_desktop.obj
 0002:fffcf000       ?atlTraceAllocation$initializer$@ATL@@3P6AXXZA 10000000     mfcs140d:nolib.obj
 0000:fffb3000       .debug$S                   10000000     mfc140d:mfc140d.dll
 0000:fffb3000       .debug$S                   10000000     mfc140d:mfc140d.dll
 0000:fffb3000       .debug$S                   10000000     mfc140d:mfc140d.dll
 0000:fffb3000       .debug$S                   10000000     mfc140d:mfc140d.dll
 0000:fffb3000       .debug$S                   10000000     mfc140d:mfc140d.dll
 0000:fffb3000       .debug$S                   10000000     mfc140d:mfc140d.dll
 0000:fffb3000       .debug$S                   10000000     mfc140d:mfc140d.dll
 0000:fffb3000       .debug$S                   10000000     mfc140d:mfc140d.dll
 0000:fffb3000       .debug$S                   10000000     mfc140d:mfc140d.dll
 0000:fffb9000       __guard_fids__             10000000     mfcs140d:nolib.obj
 0000:fffb3000       .debug$S                   10000000     mfc140d:mfc140d.dll
 0000:fffb3000       .debug$S                   10000000     mfc140d:mfc140d.dll
 0002:fffcf000       ?atlTraceNotImpl$initializer$@ATL@@3P6AXXZA 10000000     mfcs140d:nolib.obj
 0000:fffb3000       .debug$S                   10000000     mfc140d:mfc140d.dll
 0001:fffff000       __ehhandler$??_Estringdispid@CComTypeInfoHolder@ATL@@QAEPAXI@Z 10000000 f   mfcs140d:stdafx.obj
 0000:fffb3000       .debug$S                   10000000     mfc140d:mfc140d.dll
 0000:fffb3000       .debug$S                   10000000     mfc140d:mfc140d.dll
 0000:fffb3000       .debug$S                   10000000     mfc140d:mfc140d.dll
 0000:fffb3000       .debug$S                   10000000     mfc140d:mfc140d.dll
 0000:fffb3000       .debug$S                   10000000     mfc140d:mfc140d.dll
 0000:fffb3000       .debug$S                   10000000     mfc140d:mfc140d.dll
 0000:fffb3000       .debug$S                   10000000     mfc140d:mfc140d.dll
 0000:fffb3000       .debug$S                   10000000     mfc140d:mfc140d.dll
 0000:fffb3000       .debug$S                   10000000     mfc140d:mfc140d.dll
 0000:fffb9000       __guard_fids__             10000000     mfcs140d:nolib.obj
 0002:fffcf000       __sehtable$_WinbaseIsolationAwarePrivatetRgzlnPgpgk@0 10000000     mfcs140d:stdafx.obj
 0002:fffcf000       __sehtable$_IsolationAwareUnregisterClassA@8 10000000     mfcs140d:stdafx.obj
 0000:fffb9000       __guard_fids__             10000000     mfcs140d:nolib.obj
 0002:fffcf000       __unwindtable$?TraceV@CTrace@ATL@@SAXPBDHII0PAD@Z 10000000     mfcs140d:stdafx.obj
 0002:fffcf000       ?atlTraceSnapin$initializer$@ATL@@3P6AXXZA 10000000     mfcs140d:nolib.obj
 0002:fffcf000       __unwindtable$??RCTraceFileAndLineInfo@ATL@@QBAXHIPBDZZ 10000000     mfcs140d:stdafx.obj
 0002:fffcf000       __ehfuncinfo$??1?$CSimpleArray@GV?$CSimpleArrayEqualHelper@G@ATL@@@ATL@@QAE@XZ 10000000     mfcs140d:stdafx.obj
 0000:fffb9000       __guard_fids__             10000000     mfcs140d:nolib.obj
 0002:fffcf000       __unwindtable$??0_ATL_WIN_MODULE70@ATL@@QAE@XZ 10000000     mfcs140d:stdafx.obj
 0002:fffcf000       __ehfuncinfo$??1CAtlComModule@ATL@@QAE@XZ 10000000     mfcs140d:stdafx.obj
 0000:fffb9000       __guard_fids_??__E_AtlComModule@ATL@@YAXXZ 10000000     mfcs140d:stdafx.obj
 0002:fffcf000       __ehfuncinfo$??1CAtlWinModule@ATL@@QAE@XZ 10000000     mfcs140d:stdafx.obj
 0000:fffb9000       __guard_fids_??__E_AtlWinModule@ATL@@YAXXZ 10000000     mfcs140d:stdafx.obj
 0000:fffb9000       __guard_fids_?GetInstance@CAtlStringMgr@ATL@@SAPAUIAtlStringMgr@2@XZ 10000000     mfcs140d:stdafx.obj
 0000:fffb9000       __guard_fids_??_Estringdispid@CComTypeInfoHolder@ATL@@QAEPAXI@Z 10000000     mfcs140d:stdafx.obj
 0002:fffcf000       __ehfuncinfo$??_Estringdispid@CComTypeInfoHolder@ATL@@QAEPAXI@Z 10000000     mfcs140d:stdafx.obj
 0002:fffcf000       ?atlTraceGeneral$initializer$@ATL@@3P6AXXZA 10000000     mfcs140d:stdafx.obj
 0000:fffb9000       __guard_fids__             10000000     mfcs140d:stdafx.obj
 0000:fffb9000       __guard_fids__             10000000     mfcs140d:stdafx.obj
 0000:fffb9000       __guard_fids__             10000000     mfcs140d:stdafx.obj
 0000:fffb9000       __guard_fids__             10000000     mfcs140d:stdafx.obj
 0000:fffb9000       __guard_fids__             10000000     mfcs140d:stdafx.obj
 0000:fffb9000       __guard_fids__             10000000     mfcs140d:stdafx.obj
 0002:fffcf000       ?atlTraceCOM$initializer$@ATL@@3P6AXXZA 10000000     mfcs140d:stdafx.obj
 0000:fffb9000       __guard_fids__             10000000     mfcs140d:stdafx.obj
 0002:fffcf000       ?atlTraceQI$initializer$@ATL@@3P6AXXZA 10000000     mfcs140d:stdafx.obj
 0000:fffb9000       __guard_fids__             10000000     mfcs140d:stdafx.obj
 0002:fffcf000       ?atlTraceRegistrar$initializer$@ATL@@3P6AXXZA 10000000     mfcs140d:stdafx.obj
 0000:fffb9000       __guard_fids__             10000000     mfcs140d:stdafx.obj
 0002:fffcf000       ?atlTraceRefcount$initializer$@ATL@@3P6AXXZA 10000000     mfcs140d:stdafx.obj
 0000:fffb9000       __guard_fids__             10000000     mfcs140d:stdafx.obj
 0002:fffcf000       ?atlTraceWindowing$initializer$@ATL@@3P6AXXZA 10000000     mfcs140d:stdafx.obj
 0000:fffb9000       __guard_fids__             10000000     mfcs140d:stdafx.obj
 0002:fffcf000       ?atlTraceControls$initializer$@ATL@@3P6AXXZA 10000000     mfcs140d:stdafx.obj
 0000:fffb9000       __guard_fids__             10000000     mfcs140d:stdafx.obj
 0002:fffcf000       ?atlTraceHosting$initializer$@ATL@@3P6AXXZA 10000000     mfcs140d:stdafx.obj
 0000:fffb9000       __guard_fids__             10000000     mfcs140d:stdafx.obj
 0002:fffcf000       ?atlTraceDBClient$initializer$@ATL@@3P6AXXZA 10000000     mfcs140d:stdafx.obj
 0000:fffb9000       __guard_fids__             10000000     mfcs140d:stdafx.obj
 0002:fffcf000       ?atlTraceDBProvider$initializer$@ATL@@3P6AXXZA 10000000     mfcs140d:stdafx.obj
 0000:fffb9000       __guard_fids__             10000000     mfcs140d:stdafx.obj
 0002:fffcf000       ?atlTraceSnapin$initializer$@ATL@@3P6AXXZA 10000000     mfcs140d:stdafx.obj
 0000:fffb9000       __guard_fids__             10000000     mfcs140d:stdafx.obj
 0002:fffcf000       ?atlTraceNotImpl$initializer$@ATL@@3P6AXXZA 10000000     mfcs140d:stdafx.obj
 0000:fffb9000       __guard_fids__             10000000     mfcs140d:stdafx.obj
 0002:fffcf000       ?atlTraceAllocation$initializer$@ATL@@3P6AXXZA 10000000     mfcs140d:stdafx.obj
 0000:fffb9000       __guard_fids__             10000000     mfcs140d:stdafx.obj
 0002:fffcf000       ?atlTraceException$initializer$@ATL@@3P6AXXZA 10000000     mfcs140d:stdafx.obj
 0000:fffb9000       __guard_fids__             10000000     mfcs140d:stdafx.obj
 0002:fffcf000       ?atlTraceTime$initializer$@ATL@@3P6AXXZA 10000000     mfcs140d:stdafx.obj
 0002:fffcf000       ?atlTraceDBProvider$initializer$@ATL@@3P6AXXZA 10000000     mfcs140d:nolib.obj
 0000:fffb9000       __guard_fids__             10000000     mfcs140d:stdafx.obj
 0002:fffcf000       ?atlTraceCache$initializer$@ATL@@3P6AXXZA 10000000     mfcs140d:stdafx.obj
 0000:fffb9000       __guard_fids__             10000000     mfcs140d:stdafx.obj
 0001:fffff000       __unwindfunclet$?TraceV@CTrace@ATL@@SAXPBDHII0PAD@Z$0 10000000 f   mfcs140d:nolib.obj
 0000:fffb9000       __guard_fids__             10000000     mfcs140d:nolib.obj
 0002:fffcf000       ?atlTraceStencil$initializer$@ATL@@3P6AXXZA 10000000     mfcs140d:stdafx.obj
 0002:fffcf000       ?atlTraceDBClient$initializer$@ATL@@3P6AXXZA 10000000     mfcs140d:nolib.obj
 0000:fffb9000       __guard_fids__             10000000     mfcs140d:nolib.obj
 0002:fffcf000       ?atlTraceHosting$initializer$@ATL@@3P6AXXZA 10000000     mfcs140d:nolib.obj
 0000:fffb9000       __guard_fids__             10000000     mfcs140d:nolib.obj
 0002:fffcf000       ?atlTraceControls$initializer$@ATL@@3P6AXXZA 10000000     mfcs140d:nolib.obj
 0000:fffb9000       __guard_fids__             10000000     mfcs140d:nolib.obj
 0000:fffb9000       __guard_fids__             10000000     mfcs140d:stdafx.obj
 0002:fffcf000       ?atlTraceString$initializer$@ATL@@3P6AXXZA 10000000     mfcs140d:stdafx.obj
 0002:fffcf000       ?atlTraceWindowing$initializer$@ATL@@3P6AXXZA 10000000     mfcs140d:nolib.obj
 0000:fffb9000       __guard_fids__             10000000     mfcs140d:stdafx.obj
 0000:fffb9000       __guard_fids__             10000000     mfcs140d:nolib.obj
 0002:fffcf000       ?atlTraceMap$initializer$@ATL@@3P6AXXZA 10000000     mfcs140d:stdafx.obj
 0002:fffcf000       ?atlTraceRefcount$initializer$@ATL@@3P6AXXZA 10000000     mfcs140d:nolib.obj
 0000:fffb9000       __guard_fids__             10000000     mfcs140d:nolib.obj
 0002:fffcf000       ?atlTraceRegistrar$initializer$@ATL@@3P6AXXZA 10000000     mfcs140d:nolib.obj
 0000:fffb9000       __guard_fids__             10000000     mfcs140d:nolib.obj
 0002:fffcf000       ?atlTraceQI$initializer$@ATL@@3P6AXXZA 10000000     mfcs140d:nolib.obj
 0001:fffff000       __unwindfunclet$??RCTraceFileAndLineInfo@ATL@@QBAXHIPBDZZ$0 10000000 f   mfcs140d:nolib.obj
 0001:fffff000       __ehhandler$??1?$CSimpleArray@GV?$CSimpleArrayEqualHelper@G@ATL@@@ATL@@QAE@XZ 10000000 f   mfcs140d:nolib.obj
 0000:fffb9000       __guard_fids__             10000000     mfcs140d:nolib.obj
 0001:fffff000       __unwindfunclet$??0_ATL_WIN_MODULE70@ATL@@QAE@XZ$0 10000000 f   mfcs140d:nolib.obj
 0001:fffff000       __ehhandler$??1CAtlComModule@ATL@@QAE@XZ 10000000 f   mfcs140d:nolib.obj
 0001:fffff000       __ehhandler$??1CAtlWinModule@ATL@@QAE@XZ 10000000 f   mfcs140d:nolib.obj
 0002:fffcf000       ?atlTraceCOM$initializer$@ATL@@3P6AXXZA 10000000     mfcs140d:nolib.obj
 0000:fffb9000       __guard_fids__             10000000     mfcs140d:nolib.obj
 0000:fffb9000       __guard_fids__             10000000     mfcs140d:stdafx.obj
 0000:fffb9000       __guard_fids__             10000000     mfcs140d:nolib.obj
 0000:fffb9000       __guard_fids__             10000000     mfcs140d:nolib.obj
 0000:fffb9000       __guard_fids__             10000000     mfcs140d:nolib.obj
 0002:fffcf000       ?atlTraceUtil$initializer$@ATL@@3P6AXXZA 10000000     mfcs140d:stdafx.obj
 0000:fffb9000       __guard_fids__             10000000     mfcs140d:stdafx.obj
 0000:fffb9000       __guard_fids__             10000000     mfcs140d:nolib.obj
 0002:fffcf000       __unwindtable$?TraceV@CTrace@ATL@@SAXPBDHII0PAD@Z 10000000     mfcs140d:nolib.obj
 0000:fffb9000       __guard_fids__             10000000     mfcs140d:nolib.obj
 0002:fffcf000       __unwindtable$??RCTraceFileAndLineInfo@ATL@@QBAXHIPBDZZ 10000000     mfcs140d:nolib.obj
 0002:fffcf000       __ehfuncinfo$??1?$CSimpleArray@GV?$CSimpleArrayEqualHelper@G@ATL@@@ATL@@QAE@XZ 10000000     mfcs140d:nolib.obj
 0002:fffcf000       ?atlTraceSecurity$initializer$@ATL@@3P6AXXZA 10000000     mfcs140d:stdafx.obj
 0000:fffb9000       __guard_fids__             10000000     mfcs140d:nolib.obj
 0002:fffcf000       __unwindtable$??0_ATL_WIN_MODULE70@ATL@@QAE@XZ 10000000     mfcs140d:nolib.obj
 0002:fffcf000       __ehfuncinfo$??1CAtlComModule@ATL@@QAE@XZ 10000000     mfcs140d:nolib.obj
 0002:fffcf000       ?atlTraceException$initializer$@ATL@@3P6AXXZA 10000000     ServerUserManager.obj
 0000:fffb9000       __guard_fids_??__E_AtlComModule@ATL@@YAXXZ 10000000     mfcs140d:nolib.obj
 0000:fffb9000       __guard_fids__             10000000     mfcs140d:stdafx.obj
 0002:fffcf000       ?atlTraceSync$initializer$@ATL@@3P6AXXZA 10000000     mfcs140d:stdafx.obj
 0000:fffb9000       __guard_fids__             10000000     mfcs140d:stdafx.obj
 0002:fffcf000       ?atlTraceISAPI$initializer$@ATL@@3P6AXXZA 10000000     mfcs140d:stdafx.obj
 0000:fffb9000       __guard_fids__             10000000     mfcs140d:stdafx.obj
 0002:fffcf000       ?_AtlComModule$initializer$@ATL@@3P6AXXZA 10000000     mfcs140d:stdafx.obj
 0000:fffb9000       __guard_fids__             10000000     mfcs140d:stdafx.obj
 0002:fffcf000       ?_AtlWinModule$initializer$@ATL@@3P6AXXZA 10000000     mfcs140d:stdafx.obj
 0000:fffb9000       __guard_fids__             10000000     mfcs140d:stdafx.obj
 0002:fffcf000       ?InitializeCAtlStringMgr$initializer$@ATLImplementationDetails@ATL@@3P6AXXZA 10000000     mfcs140d:stdafx.obj
 0000:fffb9000       __guard_fids__             10000000     mfcs140d:stdafx.obj
 0000:fffb9000       __guard_fids__             10000000     mfcs140d:stdafx.obj
 0000:fffb9000       __guard_fids__             10000000     mfcs140d:nolib.obj
 0002:fffcf000       ?InitializeCAtlStringMgr$initializer$@ATLImplementationDetails@ATL@@3P6AXXZA 10000000     mfcs140d:nolib.obj
 0000:fffb9000       __guard_fids__             10000000     mfcs140d:nolib.obj
 0002:fffcf000       ?_AtlWinModule$initializer$@ATL@@3P6AXXZA 10000000     mfcs140d:nolib.obj
 0000:fffb9000       __guard_fids__             10000000     mfcs140d:nolib.obj
 0002:fffcf000       ?_AtlComModule$initializer$@ATL@@3P6AXXZA 10000000     mfcs140d:nolib.obj
 0000:fffb9000       __guard_fids__             10000000     msvcrtd:std_type_info_static.obj
 0000:fffb9000       __guard_fids__             10000000     mfcs140d:nolib.obj
 0000:fffb3000       .debug$S                   10000000     GameService.exp
 0000:fffb9000       __guard_fids__             10000000     msvcrtd:thread_safe_statics.obj
 0000:fffb3000       .debug$S                   10000000     kernel32:KERNEL32.dll
 0002:fffcf000       ?atlTraceISAPI$initializer$@ATL@@3P6AXXZA 10000000     mfcs140d:nolib.obj
 0000:fffb3000       .debug$S                   10000000     ucrtd:ucrtbased.dll
 0000:fffb3000       .debug$S                   10000000     ucrtd:ucrtbased.dll
 0000:fffb3000       .debug$S                   10000000     ucrtd:ucrtbased.dll
 0000:fffb3000       .debug$S                   10000000     ucrtd:ucrtbased.dll
 0000:fffb3000       .debug$S                   10000000     ucrtd:ucrtbased.dll
 0000:fffb3000       .debug$S                   10000000     ucrtd:ucrtbased.dll
 0000:fffb3000       .debug$S                   10000000     ucrtd:ucrtbased.dll
 0000:fffb3000       .debug$S                   10000000     ucrtd:ucrtbased.dll
 0000:fffb3000       .debug$S                   10000000     ucrtd:ucrtbased.dll
 0000:fffb3000       .debug$S                   10000000     ucrtd:ucrtbased.dll
 0000:fffb3000       .debug$S                   10000000     ucrtd:ucrtbased.dll
 0000:fffb3000       .debug$S                   10000000     ucrtd:ucrtbased.dll
 0000:fffb3000       .debug$S                   10000000     ucrtd:ucrtbased.dll
 0000:fffb3000       .debug$S                   10000000     ucrtd:ucrtbased.dll
 0000:fffb3000       .debug$S                   10000000     ucrtd:ucrtbased.dll
 0000:fffb3000       .debug$S                   10000000     ucrtd:ucrtbased.dll
 0000:fffb3000       .debug$S                   10000000     ucrtd:ucrtbased.dll
 0000:fffb3000       .debug$S                   10000000     ucrtd:ucrtbased.dll
 0000:fffb3000       .debug$S                   10000000     ucrtd:ucrtbased.dll
 0000:fffb3000       .debug$S                   10000000     ucrtd:ucrtbased.dll
 0000:fffb3000       .debug$S                   10000000     ucrtd:ucrtbased.dll
 0000:fffb3000       .debug$S                   10000000     ucrtd:ucrtbased.dll
 0000:fffb3000       .debug$S                   10000000     ucrtd:ucrtbased.dll
 0000:fffb3000       .debug$S                   10000000     ucrtd:ucrtbased.dll
 0000:fffb3000       .debug$S                   10000000     ucrtd:ucrtbased.dll
 0000:fffb3000       .debug$S                   10000000     ucrtd:ucrtbased.dll
 0000:fffb3000       .debug$S                   10000000     ucrtd:ucrtbased.dll
 0000:fffb3000       .debug$S                   10000000     ucrtd:ucrtbased.dll
 0000:fffb3000       .debug$S                   10000000     ucrtd:ucrtbased.dll
 0000:fffb3000       .debug$S                   10000000     ucrtd:ucrtbased.dll
 0000:fffb3000       .debug$S                   10000000     ucrtd:ucrtbased.dll
 0000:fffb3000       .debug$S                   10000000     ucrtd:ucrtbased.dll
 0000:fffb3000       .debug$S                   10000000     ucrtd:ucrtbased.dll
 0000:fffb3000       .debug$S                   10000000     ucrtd:ucrtbased.dll
 0000:fffb3000       .debug$S                   10000000     ucrtd:ucrtbased.dll
 0000:fffb3000       .debug$S                   10000000     ucrtd:ucrtbased.dll
 0000:fffb9000       __guard_fids__             10000000     mfcs140d:nolib.obj
 0000:fffb3000       .debug$S                   10000000     vcruntimed:VCRUNTIME140D.dll
 0000:fffb3000       .debug$S                   10000000     vcruntimed:VCRUNTIME140D.dll
 0000:fffb3000       .debug$S                   10000000     vcruntimed:VCRUNTIME140D.dll
 0000:fffb3000       .debug$S                   10000000     vcruntimed:VCRUNTIME140D.dll
 0000:fffb3000       .debug$S                   10000000     vcruntimed:VCRUNTIME140D.dll
 0000:fffb3000       .debug$S                   10000000     vcruntimed:VCRUNTIME140D.dll
 0000:fffb3000       .debug$S                   10000000     vcruntimed:VCRUNTIME140D.dll
 0000:fffb3000       .debug$S                   10000000     vcruntimed:VCRUNTIME140D.dll
 0000:fffb3000       .debug$S                   10000000     vcruntimed:VCRUNTIME140D.dll
 0000:fffb3000       .debug$S                   10000000     vcruntimed:VCRUNTIME140D.dll
 0000:fffb3000       .debug$S                   10000000     vcruntimed:VCRUNTIME140D.dll
 0000:fffb3000       .debug$S                   10000000     vcruntimed:VCRUNTIME140D.dll
 0002:fffcf000       ?atlTraceSync$initializer$@ATL@@3P6AXXZA 10000000     mfcs140d:nolib.obj
 0000:fffb3000       .debug$S                   10000000     msvcprtd:MSVCP140D.dll
 0000:fffb3000       .debug$S                   10000000     msvcprtd:MSVCP140D.dll
 0000:fffb3000       .debug$S                   10000000     msvcprtd:MSVCP140D.dll
 0000:fffb3000       .debug$S                   10000000     msvcprtd:MSVCP140D.dll
 0000:fffb3000       .debug$S                   10000000     msvcprtd:MSVCP140D.dll
 0000:fffb3000       .debug$S                   10000000     msvcprtd:MSVCP140D.dll
 0000:fffb3000       .debug$S                   10000000     msvcprtd:MSVCP140D.dll
 0000:fffb3000       .debug$S                   10000000     msvcprtd:MSVCP140D.dll
 0000:fffb3000       .debug$S                   10000000     msvcprtd:MSVCP140D.dll
 0000:fffb3000       .debug$S                   10000000     msvcprtd:MSVCP140D.dll
 0002:fffcf000       __ehfuncinfo$??1CAtlWinModule@ATL@@QAE@XZ 10000000     mfcs140d:nolib.obj
 0000:fffb3000       .debug$S                   10000000     oleaut32:OLEAUT32.dll
 0000:fffb9000       __guard_fids__             10000000     atls:atlbase.obj
 0000:fffb9000       __guard_fids_??__E_AtlWinModule@ATL@@YAXXZ 10000000     mfcs140d:nolib.obj
 0000:fffb9000       __guard_fids_??__E_AtlBaseModule@ATL@@YAXXZ 10000000     atls:atlbase.obj
 0000:fffb9000       __guard_fids_?GetInstance@CAtlStringMgr@ATL@@SAPAUIAtlStringMgr@2@XZ 10000000     mfcs140d:nolib.obj
 0000:fffb9000       __guard_fids__             10000000     mfcs140d:nolib.obj
 0000:fffb3000       .debug$S                   10000000     kernel32:KERNEL32.dll
 0002:fffcf000       ?atlTraceSecurity$initializer$@ATL@@3P6AXXZA 10000000     mfcs140d:nolib.obj
 0000:fffb3000       .debug$S                   10000000     user32:USER32.dll
 0000:fffb3000       .debug$S                   10000000     user32:USER32.dll
 0000:fffb3000       .debug$S                   10000000     user32:USER32.dll
 0002:fffcf000       ?atlTraceGeneral$initializer$@ATL@@3P6AXXZA 10000000     mfcs140d:nolib.obj
 0000:fffb3000       .debug$S                   10000000     kernel32:KERNEL32.dll
 0000:fffb3000       .debug$S                   10000000     kernel32:KERNEL32.dll
 0000:fffb3000       .debug$S                   10000000     kernel32:KERNEL32.dll
 0000:fffb3000       .debug$S                   10000000     kernel32:KERNEL32.dll
 0000:fffb3000       .debug$S                   10000000     kernel32:KERNEL32.dll
 0000:fffb3000       .debug$S                   10000000     kernel32:KERNEL32.dll
 0000:fffb3000       .debug$S                   10000000     kernel32:KERNEL32.dll
 0000:fffb3000       .debug$S                   10000000     kernel32:KERNEL32.dll
 0000:fffb3000       .debug$S                   10000000     kernel32:KERNEL32.dll
 0000:fffb3000       .debug$S                   10000000     kernel32:KERNEL32.dll
 0000:fffb3000       .debug$S                   10000000     kernel32:KERNEL32.dll
 0000:fffb3000       .debug$S                   10000000     kernel32:KERNEL32.dll
 0000:fffb3000       .debug$S                   10000000     kernel32:KERNEL32.dll
 0000:fffb3000       .debug$S                   10000000     kernel32:KERNEL32.dll
 0000:fffb3000       .debug$S                   10000000     kernel32:KERNEL32.dll
 0000:fffb3000       .debug$S                   10000000     kernel32:KERNEL32.dll
 0000:fffb3000       .debug$S                   10000000     kernel32:KERNEL32.dll
 0000:fffb3000       .debug$S                   10000000     kernel32:KERNEL32.dll
 0000:fffb3000       .debug$S                   10000000     kernel32:KERNEL32.dll
 0000:fffb3000       .debug$S                   10000000     kernel32:KERNEL32.dll
 0000:fffb3000       .debug$S                   10000000     kernel32:KERNEL32.dll
 0000:fffb3000       .debug$S                   10000000     kernel32:KERNEL32.dll
 0000:fffb3000       .debug$S                   10000000     kernel32:KERNEL32.dll
 0000:fffb3000       .debug$S                   10000000     kernel32:KERNEL32.dll
 0000:fffb3000       .debug$S                   10000000     kernel32:KERNEL32.dll
 0000:fffb3000       .debug$S                   10000000     kernel32:KERNEL32.dll
 0000:fffb3000       .debug$S                   10000000     kernel32:KERNEL32.dll
 0000:fffb3000       .debug$S                   10000000     kernel32:KERNEL32.dll
 0000:fffb3000       .debug$S                   10000000     kernel32:KERNEL32.dll
 0000:fffb3000       .debug$S                   10000000     kernel32:KERNEL32.dll
 0000:fffb3000       .debug$S                   10000000     kernel32:KERNEL32.dll
 0000:fffb3000       .debug$S                   10000000     kernel32:KERNEL32.dll
 0000:fffb3000       .debug$S                   10000000     kernel32:KERNEL32.dll
 0000:fffb3000       .debug$S                   10000000     kernel32:KERNEL32.dll
 0000:fffb3000       .debug$S                   10000000     kernel32:KERNEL32.dll
 0000:fffb3000       .debug$S                   10000000     kernel32:KERNEL32.dll
 0000:fffb3000       .debug$S                   10000000     kernel32:KERNEL32.dll
 0000:fffb3000       .debug$S                   10000000     kernel32:KERNEL32.dll
 0000:fffb3000       .debug$S                   10000000     kernel32:KERNEL32.dll
 0000:fffb3000       .debug$S                   10000000     kernel32:KERNEL32.dll
 0000:fffb3000       .debug$S                   10000000     kernel32:KERNEL32.dll
 0000:fffb3000       .debug$S                   10000000     kernel32:KERNEL32.dll
 0000:fffb3000       .debug$S                   10000000     kernel32:KERNEL32.dll
 0000:fffb3000       .debug$S                   10000000     kernel32:KERNEL32.dll
 0000:fffb9000       __guard_fids_?__scrt_initialize_thread_safe_statics@@YAHXZ 10000000     msvcrtd:thread_safe_statics.obj
 0002:fffcf008       __ehfuncinfo$??0_ATL_WIN_MODULE70@ATL@@QAE@XZ 10000008     mfcs140d:nolib.obj
 0002:fffcf008       __ehfuncinfo$??RCTraceFileAndLineInfo@ATL@@QBAXHIPBDZZ 10000008     mfcs140d:nolib.obj
 0001:fffff008       __ehhandler$??RCTraceFileAndLineInfo@ATL@@QBAXHIPBDZZ 10000008 f   mfcs140d:nolib.obj
 0002:fffcf008       __ehfuncinfo$??0_ATL_WIN_MODULE70@ATL@@QAE@XZ 10000008     mfcs140d:stdafx.obj
 0001:fffff008       __unwindfunclet$?TraceV@CTrace@ATL@@SAXPBDHII0PAD@Z$1 10000008 f   mfcs140d:stdafx.obj
 0001:fffff008       __ehhandler$??RCTraceFileAndLineInfo@ATL@@QBAXHIPBDZZ 10000008 f   mfcs140d:stdafx.obj
 0001:fffff008       __unwindfunclet$?TraceV@CTrace@ATL@@SAXPBDHII0PAD@Z$1 10000008 f   mfcs140d:nolib.obj
 0002:fffcf008       __ehfuncinfo$??RCTraceFileAndLineInfo@ATL@@QBAXHIPBDZZ 10000008     mfcs140d:stdafx.obj
 0001:fffff00b       __ehhandler$??0_ATL_WIN_MODULE70@ATL@@QAE@XZ 1000000b f   mfcs140d:stdafx.obj
 0001:fffff00b       __ehhandler$??0_ATL_WIN_MODULE70@ATL@@QAE@XZ 1000000b f   mfcs140d:nolib.obj
 0001:fffff010       __ehhandler$?TraceV@CTrace@ATL@@SAXPBDHII0PAD@Z 10000010 f   mfcs140d:nolib.obj
 0002:fffcf010       __ehfuncinfo$?TraceV@CTrace@ATL@@SAXPBDHII0PAD@Z 10000010     mfcs140d:nolib.obj
 0001:fffff010       __ehhandler$?TraceV@CTrace@ATL@@SAXPBDHII0PAD@Z 10000010 f   mfcs140d:stdafx.obj
 0002:fffcf010       __ehfuncinfo$?TraceV@CTrace@ATL@@SAXPBDHII0PAD@Z 10000010     mfcs140d:stdafx.obj
 0001:fffff068       $LN6                       10000068     mfcs140d:nolib.obj
 0001:fffff068       $LN6                       10000068     mfcs140d:stdafx.obj
 0001:fffff068       $LN6                       10000068     mfcs140d:nolib.obj
 0001:fffff068       $LN6                       10000068     mfcs140d:stdafx.obj
 0001:fffff070       $LN5                       10000070     mfcs140d:nolib.obj
 0001:fffff070       $LN5                       10000070     mfcs140d:stdafx.obj
 0001:fffff070       $LN5                       10000070     mfcs140d:stdafx.obj
 0001:fffff070       $LN5                       10000070     mfcs140d:nolib.obj
 0001:fffff07c       $LN4                       1000007c     mfcs140d:stdafx.obj
 0001:fffff07c       $LN4                       1000007c     mfcs140d:nolib.obj
 0001:fffff07c       $LN4                       1000007c     mfcs140d:nolib.obj
 0001:fffff07c       $LN4                       1000007c     mfcs140d:stdafx.obj
 0001:fffff0b4       $LN7                       100000b4     mfcs140d:nolib.obj
 0001:fffff0b4       $LN7                       100000b4     mfcs140d:stdafx.obj
 0001:fffff0bc       $LN6                       100000bc     mfcs140d:nolib.obj
 0001:fffff0bc       $LN6                       100000bc     mfcs140d:stdafx.obj
 0001:fffff0c8       $LN4                       100000c8     mfcs140d:nolib.obj
 0001:fffff0c8       $LN4                       100000c8     mfcs140d:stdafx.obj
 0001:fffff11c       $LN8                       1000011c     mfcs140d:nolib.obj
 0001:fffff11c       $LN8                       1000011c     mfcs140d:stdafx.obj
 0001:fffff124       $LN7                       10000124     mfcs140d:nolib.obj
 0001:fffff124       $LN7                       10000124     mfcs140d:stdafx.obj
 0001:fffff130       $LN6                       10000130     mfcs140d:stdafx.obj
 0001:fffff130       $LN6                       10000130     mfcs140d:nolib.obj
 0001:fffff16c       $LN22                      1000016c     mfcs140d:stdafx.obj
 0001:fffff174       $LN21                      10000174     mfcs140d:stdafx.obj
 0001:fffff18c       $LN20                      1000018c     mfcs140d:stdafx.obj
 0001:fffff196       $LN19                      10000196     mfcs140d:stdafx.obj
 0001:fffff1d0       $LN24                      100001d0     mfcs140d:stdafx.obj
 0001:fffff1d0       $LN24                      100001d0     mfcs140d:nolib.obj
 0001:fffff1d8       $LN23                      100001d8     mfcs140d:nolib.obj
 0001:fffff1d8       $LN23                      100001d8     mfcs140d:stdafx.obj
 0001:fffff1f0       $LN22                      100001f0     mfcs140d:stdafx.obj
 0001:fffff1f0       $LN25                      100001f0     mfcs140d:stdafx.obj
 0001:fffff1f0       $LN22                      100001f0     mfcs140d:nolib.obj
 0001:fffff1f0       $LN25                      100001f0     mfcs140d:nolib.obj
 0001:fffff1f8       $LN24                      100001f8     mfcs140d:stdafx.obj
 0001:fffff1f8       $LN24                      100001f8     mfcs140d:nolib.obj
 0001:fffff1f8       $LN14                      100001f8     mfcs140d:nolib.obj
 0001:fffff1f8       $LN14                      100001f8     mfcs140d:stdafx.obj
 0001:fffff1fb       $LN21                      100001fb     mfcs140d:stdafx.obj
 0001:fffff1fb       $LN21                      100001fb     mfcs140d:nolib.obj
 0001:fffff200       $LN13                      10000200     mfcs140d:stdafx.obj
 0001:fffff200       $LN13                      10000200     mfcs140d:nolib.obj
 0001:fffff210       $LN23                      10000210     mfcs140d:nolib.obj
 0001:fffff210       $LN23                      10000210     mfcs140d:stdafx.obj
 0001:fffff218       $LN11                      10000218     mfcs140d:stdafx.obj
 0001:fffff218       $LN11                      10000218     mfcs140d:nolib.obj
 0001:fffff21b       $LN22                      1000021b     mfcs140d:stdafx.obj
 0001:fffff21b       $LN22                      1000021b     mfcs140d:nolib.obj
 0001:fffff21f       $LN10                      1000021f     mfcs140d:stdafx.obj
 0001:fffff21f       $LN10                      1000021f     mfcs140d:nolib.obj
 0001:fffff250       $LN17                      10000250     mfcs140d:stdafx.obj
 0001:fffff250       $LN17                      10000250     mfcs140d:nolib.obj
 0001:fffff258       $LN16                      10000258     mfcs140d:nolib.obj
 0001:fffff258       $LN16                      10000258     mfcs140d:stdafx.obj
 0001:fffff27c       $LN15                      1000027c     mfcs140d:stdafx.obj
 0001:fffff27c       $LN15                      1000027c     mfcs140d:nolib.obj
 0001:fffff285       $LN14                      10000285     mfcs140d:nolib.obj
 0001:fffff285       $LN14                      10000285     mfcs140d:stdafx.obj
 0001:fffff28c       $LN13                      1000028c     mfcs140d:nolib.obj
 0001:fffff28c       $LN13                      1000028c     mfcs140d:stdafx.obj
 0001:fffff2cc       $LN36                      100002cc     mfcs140d:stdafx.obj
 0001:fffff2d4       $LN35                      100002d4     mfcs140d:stdafx.obj
 0001:fffff31c       $LN34                      1000031c     mfcs140d:stdafx.obj
 0001:fffff333       $LN33                      10000333     mfcs140d:stdafx.obj
 0001:fffff33c       $LN32                      1000033c     mfcs140d:stdafx.obj
 0001:fffff34f       $LN31                      1000034f     mfcs140d:stdafx.obj
 0001:fffff356       $LN30                      10000356     mfcs140d:stdafx.obj
 0001:fffff360       $LN29                      10000360     mfcs140d:stdafx.obj
 0001:00002700       ??__E?m_TimerItemBuffer@CAndroidUserItem@@1V?$CWHArray@PAUtagTimerItem@@ABQAU1@@@A@@YAXXZ 10003700 f   AndroidUserItem.obj
 0001:00002730       ??__EatlTraceException@ATL@@YAXXZ 10003730 f   AndroidUserItem.obj
 0001:00002760       ??__EatlTraceException@ATL@@YAXXZ 10003760 f   AndroidUserManager.obj
 0001:00002790       ??__E?m_PropertyBuffMap@CGamePropertyManager@@1V?$map@KV?$vector@UtagPropertyBuff@@V?$allocator@UtagPropertyBuff@@@std@@@std@@U?$less@K@2@V?$allocator@U?$pair@$$CBKV?$vector@UtagPropertyBuff@@V?$allocator@UtagPropertyBuff@@@std@@@std@@@std@@@2@@std@@A@@YAXXZ 10003790 f   GamePropertyManager.obj
 0001:000027c0       ??__EatlTraceException@ATL@@YAXXZ 100037c0 f   ServerUserManager.obj
 0001:000027f0       ??__EatlTraceString@ATL@@YAXXZ 100037f0 f   ServerUserManager.obj
 0001:00002820       ??__EInitializeCAtlStringMgr@ATLImplementationDetails@ATL@@YAXXZ 10003820 f   Stdafx.obj
 0001:00002840       ??__E_AtlComModule@ATL@@YAXXZ 10003840 f   Stdafx.obj
 0001:00002870       ??__E_AtlWinModule@ATL@@YAXXZ 10003870 f   Stdafx.obj
 0001:000028a0       ??__EatlTraceAllocation@ATL@@YAXXZ 100038a0 f   Stdafx.obj
 0001:000028d0       ??__EatlTraceCOM@ATL@@YAXXZ 100038d0 f   Stdafx.obj
 0001:00002900       ??__EatlTraceCache@ATL@@YAXXZ 10003900 f   Stdafx.obj
 0001:00002930       ??__EatlTraceControls@ATL@@YAXXZ 10003930 f   Stdafx.obj
 0001:00002960       ??__EatlTraceDBClient@ATL@@YAXXZ 10003960 f   Stdafx.obj
 0001:00002990       ??__EatlTraceDBProvider@ATL@@YAXXZ 10003990 f   Stdafx.obj
 0001:000029c0       ??__EatlTraceException@ATL@@YAXXZ 100039c0 f   Stdafx.obj
 0001:000029f0       ??__EatlTraceGeneral@ATL@@YAXXZ 100039f0 f   Stdafx.obj
 0001:00002a20       ??__EatlTraceHosting@ATL@@YAXXZ 10003a20 f   Stdafx.obj
 0001:00002a50       ??__EatlTraceISAPI@ATL@@YAXXZ 10003a50 f   Stdafx.obj
 0001:00002a80       ??__EatlTraceMap@ATL@@YAXXZ 10003a80 f   Stdafx.obj
 0001:00002ab0       ??__EatlTraceNotImpl@ATL@@YAXXZ 10003ab0 f   Stdafx.obj
 0001:00002ae0       ??__EatlTraceQI@ATL@@YAXXZ 10003ae0 f   Stdafx.obj
 0001:00002b10       ??__EatlTraceRefcount@ATL@@YAXXZ 10003b10 f   Stdafx.obj
 0001:00002b40       ??__EatlTraceRegistrar@ATL@@YAXXZ 10003b40 f   Stdafx.obj
 0001:00002b70       ??__EatlTraceSecurity@ATL@@YAXXZ 10003b70 f   Stdafx.obj
 0001:00002ba0       ??__EatlTraceSnapin@ATL@@YAXXZ 10003ba0 f   Stdafx.obj
 0001:00002bd0       ??__EatlTraceStencil@ATL@@YAXXZ 10003bd0 f   Stdafx.obj
 0001:00002c00       ??__EatlTraceString@ATL@@YAXXZ 10003c00 f   Stdafx.obj
 0001:00002c30       ??__EatlTraceSync@ATL@@YAXXZ 10003c30 f   Stdafx.obj
 0001:00002c60       ??__EatlTraceTime@ATL@@YAXXZ 10003c60 f   Stdafx.obj
 0001:00002c90       ??__EatlTraceUtil@ATL@@YAXXZ 10003c90 f   Stdafx.obj
 0001:00002cc0       ??__EatlTraceWindowing@ATL@@YAXXZ 10003cc0 f   Stdafx.obj
 0001:00002cf0       ??__EInitializeCAtlStringMgr@ATLImplementationDetails@ATL@@YAXXZ 10003cf0 f   mfcs140d:nolib.obj
 0001:00002d10       ??__E_AtlComModule@ATL@@YAXXZ 10003d10 f   mfcs140d:nolib.obj
 0001:00002d40       ??__E_AtlWinModule@ATL@@YAXXZ 10003d40 f   mfcs140d:nolib.obj
 0001:00002d70       ??__EatlTraceAllocation@ATL@@YAXXZ 10003d70 f   mfcs140d:nolib.obj
 0001:00002da0       ??__EatlTraceCOM@ATL@@YAXXZ 10003da0 f   mfcs140d:nolib.obj
 0001:00002dd0       ??__EatlTraceCache@ATL@@YAXXZ 10003dd0 f   mfcs140d:nolib.obj
 0001:00002e00       ??__EatlTraceControls@ATL@@YAXXZ 10003e00 f   mfcs140d:nolib.obj
 0001:00002e30       ??__EatlTraceDBClient@ATL@@YAXXZ 10003e30 f   mfcs140d:nolib.obj
 0001:00002e60       ??__EatlTraceDBProvider@ATL@@YAXXZ 10003e60 f   mfcs140d:nolib.obj
 0001:00002e90       ??__EatlTraceException@ATL@@YAXXZ 10003e90 f   mfcs140d:nolib.obj
 0001:00002ec0       ??__EatlTraceGeneral@ATL@@YAXXZ 10003ec0 f   mfcs140d:nolib.obj
 0001:00002ef0       ??__EatlTraceHosting@ATL@@YAXXZ 10003ef0 f   mfcs140d:nolib.obj
 0001:00002f20       ??__EatlTraceISAPI@ATL@@YAXXZ 10003f20 f   mfcs140d:nolib.obj
 0001:00002f50       ??__EatlTraceMap@ATL@@YAXXZ 10003f50 f   mfcs140d:nolib.obj
 0001:00002f80       ??__EatlTraceNotImpl@ATL@@YAXXZ 10003f80 f   mfcs140d:nolib.obj
 0001:00002fb0       ??__EatlTraceQI@ATL@@YAXXZ 10003fb0 f   mfcs140d:nolib.obj
 0001:00002fe0       ??__EatlTraceRefcount@ATL@@YAXXZ 10003fe0 f   mfcs140d:nolib.obj
 0001:00003010       ??__EatlTraceRegistrar@ATL@@YAXXZ 10004010 f   mfcs140d:nolib.obj
 0001:00003040       ??__EatlTraceSecurity@ATL@@YAXXZ 10004040 f   mfcs140d:nolib.obj
 0001:00003070       ??__EatlTraceSnapin@ATL@@YAXXZ 10004070 f   mfcs140d:nolib.obj
 0001:000030a0       ??__EatlTraceStencil@ATL@@YAXXZ 100040a0 f   mfcs140d:nolib.obj
 0001:000030d0       ??__EatlTraceString@ATL@@YAXXZ 100040d0 f   mfcs140d:nolib.obj
 0001:00003100       ??__EatlTraceSync@ATL@@YAXXZ 10004100 f   mfcs140d:nolib.obj
 0001:00003130       ??__EatlTraceTime@ATL@@YAXXZ 10004130 f   mfcs140d:nolib.obj
 0001:00003160       ??__EatlTraceUtil@ATL@@YAXXZ 10004160 f   mfcs140d:nolib.obj
 0001:00003190       ??__EatlTraceWindowing@ATL@@YAXXZ 10004190 f   mfcs140d:nolib.obj
 0001:000031c0       ??__EInitializeCAtlStringMgr@ATLImplementationDetails@ATL@@YAXXZ 100041c0 f   mfcs140d:stdafx.obj
 0001:000031e0       ??__E_AtlComModule@ATL@@YAXXZ 100041e0 f   mfcs140d:stdafx.obj
 0001:00003210       ??__E_AtlWinModule@ATL@@YAXXZ 10004210 f   mfcs140d:stdafx.obj
 0001:00003240       ??__EatlTraceAllocation@ATL@@YAXXZ 10004240 f   mfcs140d:stdafx.obj
 0001:00003270       ??__EatlTraceCOM@ATL@@YAXXZ 10004270 f   mfcs140d:stdafx.obj
 0001:000032a0       ??__EatlTraceCache@ATL@@YAXXZ 100042a0 f   mfcs140d:stdafx.obj
 0001:000032d0       ??__EatlTraceControls@ATL@@YAXXZ 100042d0 f   mfcs140d:stdafx.obj
 0001:00003300       ??__EatlTraceDBClient@ATL@@YAXXZ 10004300 f   mfcs140d:stdafx.obj
 0001:00003330       ??__EatlTraceDBProvider@ATL@@YAXXZ 10004330 f   mfcs140d:stdafx.obj
 0001:00003360       ??__EatlTraceException@ATL@@YAXXZ 10004360 f   mfcs140d:stdafx.obj
 0001:00003390       ??__EatlTraceGeneral@ATL@@YAXXZ 10004390 f   mfcs140d:stdafx.obj
 0001:000033c0       ??__EatlTraceHosting@ATL@@YAXXZ 100043c0 f   mfcs140d:stdafx.obj
 0001:000033f0       ??__EatlTraceISAPI@ATL@@YAXXZ 100043f0 f   mfcs140d:stdafx.obj
 0001:00003420       ??__EatlTraceMap@ATL@@YAXXZ 10004420 f   mfcs140d:stdafx.obj
 0001:00003450       ??__EatlTraceNotImpl@ATL@@YAXXZ 10004450 f   mfcs140d:stdafx.obj
 0001:00003480       ??__EatlTraceQI@ATL@@YAXXZ 10004480 f   mfcs140d:stdafx.obj
 0001:000034b0       ??__EatlTraceRefcount@ATL@@YAXXZ 100044b0 f   mfcs140d:stdafx.obj
 0001:000034e0       ??__EatlTraceRegistrar@ATL@@YAXXZ 100044e0 f   mfcs140d:stdafx.obj
 0001:00003510       ??__EatlTraceSecurity@ATL@@YAXXZ 10004510 f   mfcs140d:stdafx.obj
 0001:00003540       ??__EatlTraceSnapin@ATL@@YAXXZ 10004540 f   mfcs140d:stdafx.obj
 0001:00003570       ??__EatlTraceStencil@ATL@@YAXXZ 10004570 f   mfcs140d:stdafx.obj
 0001:000035a0       ??__EatlTraceString@ATL@@YAXXZ 100045a0 f   mfcs140d:stdafx.obj
 0001:000035d0       ??__EatlTraceSync@ATL@@YAXXZ 100045d0 f   mfcs140d:stdafx.obj
 0001:00003600       ??__EatlTraceTime@ATL@@YAXXZ 10004600 f   mfcs140d:stdafx.obj
 0001:00003630       ??__EatlTraceUtil@ATL@@YAXXZ 10004630 f   mfcs140d:stdafx.obj
 0001:00003660       ??__EatlTraceWindowing@ATL@@YAXXZ 10004660 f   mfcs140d:stdafx.obj
 0001:00003681       ??__E_AtlBaseModule@ATL@@YAXXZ 10004681 f   atls:atlbase.obj
 0001:00006ba1       __catch$?OnSocketGameMessage@CAndroidUserItem@@IAE_NGGPAXG@Z$0 10007ba1 f   AndroidUserItem.obj
 0001:000073f0       __catch$?OnTimerPulse@CAndroidUserItem@@QAE_NKI@Z$0 100083f0 f   AndroidUserItem.obj
 0001:000081d9       __catch$?SetGameTimer@CAndroidUserItem@@UAE_NII@Z$0 100091d9 f   AndroidUserItem.obj
 0001:00008770       _time                      10009770 f   AndroidUserItem.obj
 0001:00009a5e       __catch$?ActiveAndroidUserItem@CAndroidUserManager@@IAEPAVCAndroidUserItem@@AAUtagAndroidItemConfig@@@Z$0 1000aa5e f   AndroidUserManager.obj
 0001:00009bfc       __catch$?ActiveAndroidUserItem@CAndroidUserManager@@IAEPAVCAndroidUserItem@@AAUtagAndroidItemConfig@@@Z$2 1000abfc f   AndroidUserManager.obj
 0001:0000a665       __catch$?ConcludeService@CAndroidUserManager@@UAE_NXZ$0 1000b665 f   AndroidUserManager.obj
 0001:0000a896       __catch$?CreateAndroidUserItem@CAndroidUserManager@@UAEPAUIAndroidUserItem@@AAUtagAndroidItemConfig@@@Z$0 1000b896 f   AndroidUserManager.obj
 0001:0000a9f2       __catch$?CreateAndroidUserItem@CAndroidUserManager@@UAEPAUIAndroidUserItem@@AAUtagAndroidItemConfig@@@Z$2 1000b9f2 f   AndroidUserManager.obj
 0001:0000abee       __catch$?DeleteAndroidUserItem@CAndroidUserManager@@UAE_NK_N@Z$0 1000bbee f   AndroidUserManager.obj
 0001:0000b6c0       $LN27                      1000c6c0     AndroidUserManager.obj
 0001:0000cab5       __catch$?OnEventTimerPulse@CAndroidUserManager@@UAE_NKI@Z$0 1000dab5 f   AndroidUserManager.obj
 0001:0000cce9       __catch$?OnEventTimerPulse@CAndroidUserManager@@UAE_NKI@Z$2 1000dce9 f   AndroidUserManager.obj
 0001:0000d3d9       __catch$?RemoveAndroidParameter@CAndroidUserManager@@UAE_NK@Z$0 1000e3d9 f   AndroidUserManager.obj
 0001:0000d899       __catch$?SendDataToClient@CAndroidUserManager@@UAE_NGGPAXG@Z$0 1000e899 f   AndroidUserManager.obj
 0001:0000da67       __catch$?SendDataToClient@CAndroidUserManager@@UAE_NKGGPAXG@Z$0 1000ea67 f   AndroidUserManager.obj
 0001:0000dba5       __catch$?SendDataToServer@CAndroidUserManager@@UAE_NKGGPAXG@Z$0 1000eba5 f   AndroidUserManager.obj
 0001:0000e310       _time                      1000f310 f   AndroidUserManager.obj
 0001:0000e949       __catch$??$_Buynode@ABUpiecewise_construct_t@std@@V?$tuple@ABK@2@V?$tuple@$$V@2@@?$_Tree_comp_alloc@V?$_Tmap_traits@KV?$vector@UtagPropertyBuff@@V?$allocator@UtagPropertyBuff@@@std@@@std@@U?$less@K@2@V?$allocator@U?$pair@$$CBKV?$vector@UtagPropertyBuff@@V?$allocator@UtagPropertyBuff@@@std@@@std@@@std@@@2@$0A@@std@@@std@@QAEPAU?$_Tree_node@U?$pair@$$CBKV?$vector@UtagPropertyBuff@@V?$allocator@UtagPropertyBuff@@@std@@@std@@@std@@PAX@1@ABUpiecewise_construct_t@1@$$QAV?$tuple@ABK@1@$$QAV?$tuple@$$V@1@@Z$0 1000f949 f i GamePropertyManager.obj
 0001:0000eea6       __catch$??$_Emplace_reallocate@ABUtagPropertyBuff@@@?$vector@UtagPropertyBuff@@V?$allocator@UtagPropertyBuff@@@std@@@std@@QAEPAUtagPropertyBuff@@QAU2@ABU2@@Z$0 1000fea6 f i GamePropertyManager.obj
 0001:00010212       __catch$??$_Insert_hint@AAU?$pair@$$CBKV?$vector@UtagPropertyBuff@@V?$allocator@UtagPropertyBuff@@@std@@@std@@@std@@PAU?$_Tree_node@U?$pair@$$CBKV?$vector@UtagPropertyBuff@@V?$allocator@UtagPropertyBuff@@@std@@@std@@@std@@PAX@2@@?$_Tree@V?$_Tmap_traits@KV?$vector@UtagPropertyBuff@@V?$allocator@UtagPropertyBuff@@@std@@@std@@U?$less@K@2@V?$allocator@U?$pair@$$CBKV?$vector@UtagPropertyBuff@@V?$allocator@UtagPropertyBuff@@@std@@@std@@@std@@@2@$0A@@std@@@std@@IAE?AV?$_Tree_iterator@V?$_Tree_val@U?$_Tree_simple_types@U?$pair@$$CBKV?$vector@UtagPropertyBuff@@V?$allocator@UtagPropertyBuff@@@std@@@std@@@std@@@std@@@std@@@1@V?$_Tree_const_iterator@V?$_Tree_val@U?$_Tree_simple_types@U?$pair@$$CBKV?$vector@UtagPropertyBuff@@V?$allocator@UtagPropertyBuff@@@std@@@std@@@std@@@std@@@std@@@1@AAU?$pair@$$CBKV?$vector@UtagPropertyBuff@@V?$allocator@UtagPropertyBuff@@@std@@@std@@@1@PAU?$_Tree_node@U?$pair@$$CBKV?$vector@UtagPropertyBuff@@V?$allocator@UtagPropertyBuff@@@std@@@std@@@std@@PAX@1@@Z$0 10011212 f i GamePropertyManager.obj
 0001:00010a57       __catch$??$_Insert_nohint@AAU?$pair@$$CBKV?$vector@UtagPropertyBuff@@V?$allocator@UtagPropertyBuff@@@std@@@std@@@std@@PAU?$_Tree_node@U?$pair@$$CBKV?$vector@UtagPropertyBuff@@V?$allocator@UtagPropertyBuff@@@std@@@std@@@std@@PAX@2@@?$_Tree@V?$_Tmap_traits@KV?$vector@UtagPropertyBuff@@V?$allocator@UtagPropertyBuff@@@std@@@std@@U?$less@K@2@V?$allocator@U?$pair@$$CBKV?$vector@UtagPropertyBuff@@V?$allocator@UtagPropertyBuff@@@std@@@std@@@std@@@2@$0A@@std@@@std@@IAE?AU?$pair@V?$_Tree_iterator@V?$_Tree_val@U?$_Tree_simple_types@U?$pair@$$CBKV?$vector@UtagPropertyBuff@@V?$allocator@UtagPropertyBuff@@@std@@@std@@@std@@@std@@@std@@@std@@_N@1@_NAAU?$pair@$$CBKV?$vector@UtagPropertyBuff@@V?$allocator@UtagPropertyBuff@@@std@@@std@@@1@PAU?$_Tree_node@U?$pair@$$CBKV?$vector@UtagPropertyBuff@@V?$allocator@UtagPropertyBuff@@@std@@@std@@@std@@PAX@1@@Z$0 10011a57 f i GamePropertyManager.obj
 0001:00011f7b       __catch$??0?$vector@UtagPropertyBuff@@V?$allocator@UtagPropertyBuff@@@std@@@std@@QAE@ABV01@@Z$0 10012f7b f i GamePropertyManager.obj
 0001:00013ebd       __catch$?_Buyheadnode@?$_Tree_comp_alloc@V?$_Tmap_traits@KV?$vector@UtagPropertyBuff@@V?$allocator@UtagPropertyBuff@@@std@@@std@@U?$less@K@2@V?$allocator@U?$pair@$$CBKV?$vector@UtagPropertyBuff@@V?$allocator@UtagPropertyBuff@@@std@@@std@@@std@@@2@$0A@@std@@@std@@QAEPAU?$_Tree_node@U?$pair@$$CBKV?$vector@UtagPropertyBuff@@V?$allocator@UtagPropertyBuff@@@std@@@std@@@std@@PAX@2@XZ$0 10014ebd f i GamePropertyManager.obj
 0001:00014011       __catch$?_Buynode0@?$_Tree_comp_alloc@V?$_Tmap_traits@KV?$vector@UtagPropertyBuff@@V?$allocator@UtagPropertyBuff@@@std@@@std@@U?$less@K@2@V?$allocator@U?$pair@$$CBKV?$vector@UtagPropertyBuff@@V?$allocator@UtagPropertyBuff@@@std@@@std@@@std@@@2@$0A@@std@@@std@@QAEPAU?$_Tree_node@U?$pair@$$CBKV?$vector@UtagPropertyBuff@@V?$allocator@UtagPropertyBuff@@@std@@@std@@@std@@PAX@2@XZ$0 10015011 f i GamePropertyManager.obj
 0001:00014299       __catch$?_Construct@?$_Tree_comp_alloc@V?$_Tmap_traits@KV?$vector@UtagPropertyBuff@@V?$allocator@UtagPropertyBuff@@@std@@@std@@U?$less@K@2@V?$allocator@U?$pair@$$CBKV?$vector@UtagPropertyBuff@@V?$allocator@UtagPropertyBuff@@@std@@@std@@@std@@@2@$0A@@std@@@std@@QAEXXZ$0 10015299 f i GamePropertyManager.obj
 0001:000167a0       _time                      100177a0 f   GamePropertyManager.obj
 0001:00017d32       __catch$??1CServerUserItem@@MAE@XZ$0 10018d32 f   ServerUserManager.obj
 0001:0001a827       __catch$?InitUserGameDataMap@CServerUserItem@@AAEXXZ$0 1001b827 f   ServerUserManager.obj
 0001:0001ac1b       __catch$?InsertUserItem@CServerUserManager@@UAE_NPAPAUIServerUserItem@@AAUtagUserInfo@@AAUtagUserInfoPlus@@@Z$0 1001bc1b f   ServerUserManager.obj
 0001:0001cb18       __catch$?ResetUserItem@CServerUserItem@@AAEXXZ$0 1001db18 f   ServerUserManager.obj
 0001:0001d731       __catch$?SetUserGameData@CServerUserItem@@UAEXHPBDH@Z$0 1001e731 f   ServerUserManager.obj
 0001:0001e510       $LN20                      1001f510     ServerUserManager.obj
 0001:00021dd9       __catch$??1CUserTaskManager@@UAE@XZ$0 10022dd9 f   UserTaskManager.obj
 0001:00021e83       __catch$??1CUserTaskManager@@UAE@XZ$2 10022e83 f   UserTaskManager.obj
 0001:00021f33       __catch$??1CUserTaskManager@@UAE@XZ$4 10022f33 f   UserTaskManager.obj
 0001:00021fbb       __catch$??1CUserTaskManager@@UAE@XZ$6 10022fbb f   UserTaskManager.obj
 0001:00022858       __catch$?AddTaskParameter@CUserTaskManager@@UAE_NQAUtagTaskParameter@@G@Z$0 10023858 f   UserTaskManager.obj
 0001:00022ded       __catch$?CreateUserTaskEntry@CUserTaskManager@@IAEPAUtagUserTaskEntry@@XZ$0 10023ded f   UserTaskManager.obj
 0001:00022e27       __catch$?CreateUserTaskEntry@CUserTaskManager@@IAEPAUtagUserTaskEntry@@XZ$1 10023e27 f   UserTaskManager.obj
 0001:00025ecc       $LN22                      10026ecc     mfcs140d:nolib.obj
 0001:00025ed4       $LN21                      10026ed4     mfcs140d:nolib.obj
 0001:00025eec       $LN20                      10026eec     mfcs140d:nolib.obj
 0001:00025ef6       $LN19                      10026ef6     mfcs140d:nolib.obj
 0001:0002626c       $LN36                      1002726c     mfcs140d:nolib.obj
 0001:00026274       $LN35                      10027274     mfcs140d:nolib.obj
 0001:000262bc       $LN34                      100272bc     mfcs140d:nolib.obj
 0001:000262d3       $LN33                      100272d3     mfcs140d:nolib.obj
 0001:000262dc       $LN32                      100272dc     mfcs140d:nolib.obj
 0001:000262ef       $LN31                      100272ef     mfcs140d:nolib.obj
 0001:000262f6       $LN30                      100272f6     mfcs140d:nolib.obj
 0001:00026300       $LN29                      10027300     mfcs140d:nolib.obj
 0001:00026520       ?ArrayUnwindFilter@@YAHPAU_EXCEPTION_POINTERS@@@Z 10027520 f   msvcrtd:ehvecdtr.obj
 0001:00026720       ?find_pe_section@@YAPAU_IMAGE_SECTION_HEADER@@QAEI@Z 10027720 f   msvcrtd:utility.obj
 0001:000267e0       ?is_potentially_valid_image_base@@YA_NQAX@Z 100277e0 f   msvcrtd:utility.obj
 0001:00026fa0       ?__scrt_initialize_thread_safe_statics@@YAHXZ 10027fa0 f   msvcrtd:thread_safe_statics.obj
 0001:000270c0       ?__scrt_initialize_thread_safe_statics_platform_specific@@YAXXZ 100280c0 f   msvcrtd:thread_safe_statics.obj
 0001:00027260       ?__scrt_uninitialize_thread_safe_statics@@YAXXZ 10028260 f   msvcrtd:thread_safe_statics.obj
 0001:00027580       ?dllmain_crt_dispatch@@YGHQAUHINSTANCE__@@KQAX@Z 10028580 f   msvcrtd:dll_dllmain.obj
 0001:000275ec       $LN11                      100285ec     msvcrtd:dll_dllmain.obj
 0001:00027620       ?dllmain_crt_process_attach@@YAHQAUHINSTANCE__@@QAX@Z 10028620 f   msvcrtd:dll_dllmain.obj
 0001:000277f0       ?dllmain_crt_process_detach@@YAH_N@Z 100287f0 f   msvcrtd:dll_dllmain.obj
 0001:00027900       ?dllmain_dispatch@@YAHQAUHINSTANCE__@@KQAX@Z 10028900 f   msvcrtd:dll_dllmain.obj
 0001:00027af0       ?dllmain_raw@@YGHQAUHINSTANCE__@@KQAX@Z 10028af0 f   msvcrtd:dll_dllmain.obj
 0001:00028a60       ___get_entropy             10029a60 f   msvcrtd:gs_support.obj
 0001:00028cc0       ?DebuggerProbe@@YA_NK@Z    10029cc0 f   msvcrtd:error.obj
 0001:00028d10       ?DebuggerRuntime@@YA_NKHPAXPB_W@Z 10029d10 f   msvcrtd:error.obj
 0001:00028fe0       ?_getMemBlockDataString@@YAXPAD0PBDI@Z 10029fe0 f   msvcrtd:error.obj
 0001:00029070       ?_strlen_priv@@YAIPBD@Z    1002a070 f   msvcrtd:error.obj
 0001:00029090       ?failwithmessage@@YAXPAXHHPBD@Z 1002a090 f   msvcrtd:error.obj
 0001:00029310       ?notify_debugger@@YAXABUtagEXCEPTION_VISUALCPP_DEBUG_INFO@@@Z 1002a310 f   msvcrtd:error.obj
 0001:000295e0       ?GetPdbDll@@YAPAUHINSTANCE__@@XZ 1002a5e0 f   msvcrtd:pdblkup.obj
 0001:00029770       ?GetPdbDllFromInstallPath@@YAPAUHINSTANCE__@@XZ 1002a770 f   msvcrtd:pdblkup.obj
 0001:00029a60       ?GetPdbDllPathFromFilePath@@YAHPB_WPA_WI@Z 1002aa60 f   msvcrtd:pdblkup.obj
 0001:0002a62b       _memmove_s                 1002b62b f   atls:atlbase.obj
 0001:0002c2b0       __ehhandler$??1CAndroidUserItem@@UAE@XZ 1002d2b0 f   AndroidUserItem.obj
 0001:0002c2e0       __ehhandler$??_ECAndroidUserItem@@UAEPAXI@Z 1002d2e0 f   AndroidUserItem.obj
 0001:0002c310       __unwindfunclet$?OnSocketGameMessage@CAndroidUserItem@@IAE_NGGPAXG@Z$2 1002d310 f   AndroidUserItem.obj
 0001:0002c319       __ehhandler$?OnSocketGameMessage@CAndroidUserItem@@IAE_NGGPAXG@Z 1002d319 f   AndroidUserItem.obj
 0001:0002c340       __unwindfunclet$?OnTimerPulse@CAndroidUserItem@@QAE_NKI@Z$2 1002d340 f   AndroidUserItem.obj
 0001:0002c349       __ehhandler$?OnTimerPulse@CAndroidUserItem@@QAE_NKI@Z 1002d349 f   AndroidUserItem.obj
 0001:0002c370       __ehhandler$?SetGameTimer@CAndroidUserItem@@UAE_NII@Z 1002d370 f   AndroidUserItem.obj
 0001:0002c3a0       __unwindfunclet$??0?$CMap@KKPAVCAndroidUserItem@@PAV1@@@QAE@H@Z$0 1002d3a0 f   AndroidUserManager.obj
 0001:0002c3a8       __ehhandler$??0?$CMap@KKPAVCAndroidUserItem@@PAV1@@@QAE@H@Z 1002d3a8 f   AndroidUserManager.obj
 0001:0002c3d0       __unwindfunclet$??0CAndroidUserManager@@QAE@XZ$0 1002d3d0 f   AndroidUserManager.obj
 0001:0002c3de       __unwindfunclet$??0CAndroidUserManager@@QAE@XZ$1 1002d3de f   AndroidUserManager.obj
 0001:0002c3ec       __unwindfunclet$??0CAndroidUserManager@@QAE@XZ$2 1002d3ec f   AndroidUserManager.obj
 0001:0002c3fa       __unwindfunclet$??0CAndroidUserManager@@QAE@XZ$3 1002d3fa f   AndroidUserManager.obj
 0001:0002c408       __ehhandler$??0CAndroidUserManager@@QAE@XZ 1002d408 f   AndroidUserManager.obj
 0001:0002c440       __ehhandler$??1?$CMap@KKPAVCAndroidUserItem@@PAV1@@@UAE@XZ 1002d440 f   AndroidUserManager.obj
 0001:0002c470       __ehhandler$??1CAndroidUserManager@@UAE@XZ 1002d470 f   AndroidUserManager.obj
 0001:0002c4a0       __ehhandler$??_ECAndroidUserManager@@UAEPAXI@Z 1002d4a0 f   AndroidUserManager.obj
 0001:0002c4d0       __unwindfunclet$?ActiveAndroidUserItem@CAndroidUserManager@@IAEPAVCAndroidUserItem@@AAUtagAndroidItemConfig@@@Z$4 1002d4d0 f   AndroidUserManager.obj
 0001:0002c4e2       __ehhandler$?ActiveAndroidUserItem@CAndroidUserManager@@IAEPAVCAndroidUserItem@@AAUtagAndroidItemConfig@@@Z 1002d4e2 f   AndroidUserManager.obj
 0001:0002c510       __ehhandler$?ConcludeService@CAndroidUserManager@@UAE_NXZ 1002d510 f   AndroidUserManager.obj
 0001:0002c540       __ehhandler$?CreateAndroidUserItem@CAndroidUserManager@@UAEPAUIAndroidUserItem@@AAUtagAndroidItemConfig@@@Z 1002d540 f   AndroidUserManager.obj
 0001:0002c580       __ehhandler$?DeleteAndroidUserItem@CAndroidUserManager@@UAE_NK_N@Z 1002d580 f   AndroidUserManager.obj
 0001:0002c5c0       __unwindfunclet$?OnEventTimerPulse@CAndroidUserManager@@UAE_NKI@Z$4 1002d5c0 f   AndroidUserManager.obj
 0001:0002c5c9       __unwindfunclet$?OnEventTimerPulse@CAndroidUserManager@@UAE_NKI@Z$5 1002d5c9 f   AndroidUserManager.obj
 0001:0002c5d5       __unwindfunclet$?OnEventTimerPulse@CAndroidUserManager@@UAE_NKI@Z$6 1002d5d5 f   AndroidUserManager.obj
 0001:0002c5e1       __ehhandler$?OnEventTimerPulse@CAndroidUserManager@@UAE_NKI@Z 1002d5e1 f   AndroidUserManager.obj
 0001:0002c620       __ehhandler$?RemoveAndroidParameter@CAndroidUserManager@@UAE_NK@Z 1002d620 f   AndroidUserManager.obj
 0001:0002c650       __ehhandler$?SendDataToClient@CAndroidUserManager@@UAE_NGGPAXG@Z 1002d650 f   AndroidUserManager.obj
 0001:0002c680       __ehhandler$?SendDataToClient@CAndroidUserManager@@UAE_NKGGPAXG@Z 1002d680 f   AndroidUserManager.obj
 0001:0002c6b0       __unwindfunclet$?SendDataToServer@CAndroidUserManager@@UAE_NKGGPAXG@Z$2 1002d6b0 f   AndroidUserManager.obj
 0001:0002c6b9       __ehhandler$?SendDataToServer@CAndroidUserManager@@UAE_NKGGPAXG@Z 1002d6b9 f   AndroidUserManager.obj
 0001:0002c6e0       __ehhandler$??$?0ABK$0A@@?$tuple@ABK@std@@QAE@ABK@Z 1002d6e0 f   GamePropertyManager.obj
 0001:0002c710       __ehhandler$??$_Buynode@ABUpiecewise_construct_t@std@@V?$tuple@ABK@2@V?$tuple@$$V@2@@?$_Tree_comp_alloc@V?$_Tmap_traits@KV?$vector@UtagPropertyBuff@@V?$allocator@UtagPropertyBuff@@@std@@@std@@U?$less@K@2@V?$allocator@U?$pair@$$CBKV?$vector@UtagPropertyBuff@@V?$allocator@UtagPropertyBuff@@@std@@@std@@@std@@@2@$0A@@std@@@std@@QAEPAU?$_Tree_node@U?$pair@$$CBKV?$vector@UtagPropertyBuff@@V?$allocator@UtagPropertyBuff@@@std@@@std@@@std@@PAX@1@ABUpiecewise_construct_t@1@$$QAV?$tuple@ABK@1@$$QAV?$tuple@$$V@1@@Z 1002d710 f   GamePropertyManager.obj
 0001:0002c740       __ehhandler$??$_Emplace_reallocate@ABUtagPropertyBuff@@@?$vector@UtagPropertyBuff@@V?$allocator@UtagPropertyBuff@@@std@@@std@@QAEPAUtagPropertyBuff@@QAU2@ABU2@@Z 1002d740 f   GamePropertyManager.obj
 0001:0002c770       __ehhandler$??$_Freenode0@V?$allocator@U?$_Tree_node@U?$pair@$$CBKV?$vector@UtagPropertyBuff@@V?$allocator@UtagPropertyBuff@@@std@@@std@@@std@@PAX@std@@@std@@@?$_Tree_node@U?$pair@$$CBKV?$vector@UtagPropertyBuff@@V?$allocator@UtagPropertyBuff@@@std@@@std@@@std@@PAX@std@@SAXAAV?$allocator@U?$_Tree_node@U?$pair@$$CBKV?$vector@UtagPropertyBuff@@V?$allocator@UtagPropertyBuff@@@std@@@std@@@std@@PAX@std@@@1@PAU01@@Z 1002d770 f   GamePropertyManager.obj
 0001:0002c7a0       __unwindfunclet$??$_Insert_hint@AAU?$pair@$$CBKV?$vector@UtagPropertyBuff@@V?$allocator@UtagPropertyBuff@@@std@@@std@@@std@@PAU?$_Tree_node@U?$pair@$$CBKV?$vector@UtagPropertyBuff@@V?$allocator@UtagPropertyBuff@@@std@@@std@@@std@@PAX@2@@?$_Tree@V?$_Tmap_traits@KV?$vector@UtagPropertyBuff@@V?$allocator@UtagPropertyBuff@@@std@@@std@@U?$less@K@2@V?$allocator@U?$pair@$$CBKV?$vector@UtagPropertyBuff@@V?$allocator@UtagPropertyBuff@@@std@@@std@@@std@@@2@$0A@@std@@@std@@IAE?AV?$_Tree_iterator@V?$_Tree_val@U?$_Tree_simple_types@U?$pair@$$CBKV?$vector@UtagPropertyBuff@@V?$allocator@UtagPropertyBuff@@@std@@@std@@@std@@@std@@@std@@@1@V?$_Tree_const_iterator@V?$_Tree_val@U?$_Tree_simple_types@U?$pair@$$CBKV?$vector@UtagPropertyBuff@@V?$allocator@UtagPropertyBuff@@@std@@@std@@@std@@@std@@@std@@@1@AAU?$pair@$$CBKV?$vector@UtagPropertyBuff@@V?$allocator@UtagPropertyBuff@@@std@@@std@@@1@PAU?$_Tree_node@U?$pair@$$CBKV?$vector@UtagPropertyBuff@@V?$allocator@UtagPropertyBuff@@@std@@@std@@@std@@PAX@1@@Z$2 1002d7a0 f   GamePropertyManager.obj
 0001:0002c7a8       __unwindfunclet$??$_Insert_hint@AAU?$pair@$$CBKV?$vector@UtagPropertyBuff@@V?$allocator@UtagPropertyBuff@@@std@@@std@@@std@@PAU?$_Tree_node@U?$pair@$$CBKV?$vector@UtagPropertyBuff@@V?$allocator@UtagPropertyBuff@@@std@@@std@@@std@@PAX@2@@?$_Tree@V?$_Tmap_traits@KV?$vector@UtagPropertyBuff@@V?$allocator@UtagPropertyBuff@@@std@@@std@@U?$less@K@2@V?$allocator@U?$pair@$$CBKV?$vector@UtagPropertyBuff@@V?$allocator@UtagPropertyBuff@@@std@@@std@@@std@@@2@$0A@@std@@@std@@IAE?AV?$_Tree_iterator@V?$_Tree_val@U?$_Tree_simple_types@U?$pair@$$CBKV?$vector@UtagPropertyBuff@@V?$allocator@UtagPropertyBuff@@@std@@@std@@@std@@@std@@@std@@@1@V?$_Tree_const_iterator@V?$_Tree_val@U?$_Tree_simple_types@U?$pair@$$CBKV?$vector@UtagPropertyBuff@@V?$allocator@UtagPropertyBuff@@@std@@@std@@@std@@@std@@@std@@@1@AAU?$pair@$$CBKV?$vector@UtagPropertyBuff@@V?$allocator@UtagPropertyBuff@@@std@@@std@@@1@PAU?$_Tree_node@U?$pair@$$CBKV?$vector@UtagPropertyBuff@@V?$allocator@UtagPropertyBuff@@@std@@@std@@@std@@PAX@1@@Z$3 1002d7a8 f   GamePropertyManager.obj
 0001:0002c7b0       __unwindfunclet$??$_Insert_hint@AAU?$pair@$$CBKV?$vector@UtagPropertyBuff@@V?$allocator@UtagPropertyBuff@@@std@@@std@@@std@@PAU?$_Tree_node@U?$pair@$$CBKV?$vector@UtagPropertyBuff@@V?$allocator@UtagPropertyBuff@@@std@@@std@@@std@@PAX@2@@?$_Tree@V?$_Tmap_traits@KV?$vector@UtagPropertyBuff@@V?$allocator@UtagPropertyBuff@@@std@@@std@@U?$less@K@2@V?$allocator@U?$pair@$$CBKV?$vector@UtagPropertyBuff@@V?$allocator@UtagPropertyBuff@@@std@@@std@@@std@@@2@$0A@@std@@@std@@IAE?AV?$_Tree_iterator@V?$_Tree_val@U?$_Tree_simple_types@U?$pair@$$CBKV?$vector@UtagPropertyBuff@@V?$allocator@UtagPropertyBuff@@@std@@@std@@@std@@@std@@@std@@@1@V?$_Tree_const_iterator@V?$_Tree_val@U?$_Tree_simple_types@U?$pair@$$CBKV?$vector@UtagPropertyBuff@@V?$allocator@UtagPropertyBuff@@@std@@@std@@@std@@@std@@@std@@@1@AAU?$pair@$$CBKV?$vector@UtagPropertyBuff@@V?$allocator@UtagPropertyBuff@@@std@@@std@@@1@PAU?$_Tree_node@U?$pair@$$CBKV?$vector@UtagPropertyBuff@@V?$allocator@UtagPropertyBuff@@@std@@@std@@@std@@PAX@1@@Z$5 1002d7b0 f   GamePropertyManager.obj
 0001:0002c7b8       __unwindfunclet$??$_Insert_hint@AAU?$pair@$$CBKV?$vector@UtagPropertyBuff@@V?$allocator@UtagPropertyBuff@@@std@@@std@@@std@@PAU?$_Tree_node@U?$pair@$$CBKV?$vector@UtagPropertyBuff@@V?$allocator@UtagPropertyBuff@@@std@@@std@@@std@@PAX@2@@?$_Tree@V?$_Tmap_traits@KV?$vector@UtagPropertyBuff@@V?$allocator@UtagPropertyBuff@@@std@@@std@@U?$less@K@2@V?$allocator@U?$pair@$$CBKV?$vector@UtagPropertyBuff@@V?$allocator@UtagPropertyBuff@@@std@@@std@@@std@@@2@$0A@@std@@@std@@IAE?AV?$_Tree_iterator@V?$_Tree_val@U?$_Tree_simple_types@U?$pair@$$CBKV?$vector@UtagPropertyBuff@@V?$allocator@UtagPropertyBuff@@@std@@@std@@@std@@@std@@@std@@@1@V?$_Tree_const_iterator@V?$_Tree_val@U?$_Tree_simple_types@U?$pair@$$CBKV?$vector@UtagPropertyBuff@@V?$allocator@UtagPropertyBuff@@@std@@@std@@@std@@@std@@@std@@@1@AAU?$pair@$$CBKV?$vector@UtagPropertyBuff@@V?$allocator@UtagPropertyBuff@@@std@@@std@@@1@PAU?$_Tree_node@U?$pair@$$CBKV?$vector@UtagPropertyBuff@@V?$allocator@UtagPropertyBuff@@@std@@@std@@@std@@PAX@1@@Z$6 1002d7b8 f   GamePropertyManager.obj
 0001:0002c7c3       __unwindfunclet$??$_Insert_hint@AAU?$pair@$$CBKV?$vector@UtagPropertyBuff@@V?$allocator@UtagPropertyBuff@@@std@@@std@@@std@@PAU?$_Tree_node@U?$pair@$$CBKV?$vector@UtagPropertyBuff@@V?$allocator@UtagPropertyBuff@@@std@@@std@@@std@@PAX@2@@?$_Tree@V?$_Tmap_traits@KV?$vector@UtagPropertyBuff@@V?$allocator@UtagPropertyBuff@@@std@@@std@@U?$less@K@2@V?$allocator@U?$pair@$$CBKV?$vector@UtagPropertyBuff@@V?$allocator@UtagPropertyBuff@@@std@@@std@@@std@@@2@$0A@@std@@@std@@IAE?AV?$_Tree_iterator@V?$_Tree_val@U?$_Tree_simple_types@U?$pair@$$CBKV?$vector@UtagPropertyBuff@@V?$allocator@UtagPropertyBuff@@@std@@@std@@@std@@@std@@@std@@@1@V?$_Tree_const_iterator@V?$_Tree_val@U?$_Tree_simple_types@U?$pair@$$CBKV?$vector@UtagPropertyBuff@@V?$allocator@UtagPropertyBuff@@@std@@@std@@@std@@@std@@@std@@@1@AAU?$pair@$$CBKV?$vector@UtagPropertyBuff@@V?$allocator@UtagPropertyBuff@@@std@@@std@@@1@PAU?$_Tree_node@U?$pair@$$CBKV?$vector@UtagPropertyBuff@@V?$allocator@UtagPropertyBuff@@@std@@@std@@@std@@PAX@1@@Z$7 1002d7c3 f   GamePropertyManager.obj
 0001:0002c7e5       __unwindfunclet$??$_Insert_hint@AAU?$pair@$$CBKV?$vector@UtagPropertyBuff@@V?$allocator@UtagPropertyBuff@@@std@@@std@@@std@@PAU?$_Tree_node@U?$pair@$$CBKV?$vector@UtagPropertyBuff@@V?$allocator@UtagPropertyBuff@@@std@@@std@@@std@@PAX@2@@?$_Tree@V?$_Tmap_traits@KV?$vector@UtagPropertyBuff@@V?$allocator@UtagPropertyBuff@@@std@@@std@@U?$less@K@2@V?$allocator@U?$pair@$$CBKV?$vector@UtagPropertyBuff@@V?$allocator@UtagPropertyBuff@@@std@@@std@@@std@@@2@$0A@@std@@@std@@IAE?AV?$_Tree_iterator@V?$_Tree_val@U?$_Tree_simple_types@U?$pair@$$CBKV?$vector@UtagPropertyBuff@@V?$allocator@UtagPropertyBuff@@@std@@@std@@@std@@@std@@@std@@@1@V?$_Tree_const_iterator@V?$_Tree_val@U?$_Tree_simple_types@U?$pair@$$CBKV?$vector@UtagPropertyBuff@@V?$allocator@UtagPropertyBuff@@@std@@@std@@@std@@@std@@@std@@@1@AAU?$pair@$$CBKV?$vector@UtagPropertyBuff@@V?$allocator@UtagPropertyBuff@@@std@@@std@@@1@PAU?$_Tree_node@U?$pair@$$CBKV?$vector@UtagPropertyBuff@@V?$allocator@UtagPropertyBuff@@@std@@@std@@@std@@PAX@1@@Z$8 1002d7e5 f   GamePropertyManager.obj
 0001:0002c7f0       __unwindfunclet$??$_Insert_hint@AAU?$pair@$$CBKV?$vector@UtagPropertyBuff@@V?$allocator@UtagPropertyBuff@@@std@@@std@@@std@@PAU?$_Tree_node@U?$pair@$$CBKV?$vector@UtagPropertyBuff@@V?$allocator@UtagPropertyBuff@@@std@@@std@@@std@@PAX@2@@?$_Tree@V?$_Tmap_traits@KV?$vector@UtagPropertyBuff@@V?$allocator@UtagPropertyBuff@@@std@@@std@@U?$less@K@2@V?$allocator@U?$pair@$$CBKV?$vector@UtagPropertyBuff@@V?$allocator@UtagPropertyBuff@@@std@@@std@@@std@@@2@$0A@@std@@@std@@IAE?AV?$_Tree_iterator@V?$_Tree_val@U?$_Tree_simple_types@U?$pair@$$CBKV?$vector@UtagPropertyBuff@@V?$allocator@UtagPropertyBuff@@@std@@@std@@@std@@@std@@@std@@@1@V?$_Tree_const_iterator@V?$_Tree_val@U?$_Tree_simple_types@U?$pair@$$CBKV?$vector@UtagPropertyBuff@@V?$allocator@UtagPropertyBuff@@@std@@@std@@@std@@@std@@@std@@@1@AAU?$pair@$$CBKV?$vector@UtagPropertyBuff@@V?$allocator@UtagPropertyBuff@@@std@@@std@@@1@PAU?$_Tree_node@U?$pair@$$CBKV?$vector@UtagPropertyBuff@@V?$allocator@UtagPropertyBuff@@@std@@@std@@@std@@PAX@1@@Z$9 1002d7f0 f   GamePropertyManager.obj
 0001:0002c7fb       __unwindfunclet$??$_Insert_hint@AAU?$pair@$$CBKV?$vector@UtagPropertyBuff@@V?$allocator@UtagPropertyBuff@@@std@@@std@@@std@@PAU?$_Tree_node@U?$pair@$$CBKV?$vector@UtagPropertyBuff@@V?$allocator@UtagPropertyBuff@@@std@@@std@@@std@@PAX@2@@?$_Tree@V?$_Tmap_traits@KV?$vector@UtagPropertyBuff@@V?$allocator@UtagPropertyBuff@@@std@@@std@@U?$less@K@2@V?$allocator@U?$pair@$$CBKV?$vector@UtagPropertyBuff@@V?$allocator@UtagPropertyBuff@@@std@@@std@@@std@@@2@$0A@@std@@@std@@IAE?AV?$_Tree_iterator@V?$_Tree_val@U?$_Tree_simple_types@U?$pair@$$CBKV?$vector@UtagPropertyBuff@@V?$allocator@UtagPropertyBuff@@@std@@@std@@@std@@@std@@@std@@@1@V?$_Tree_const_iterator@V?$_Tree_val@U?$_Tree_simple_types@U?$pair@$$CBKV?$vector@UtagPropertyBuff@@V?$allocator@UtagPropertyBuff@@@std@@@std@@@std@@@std@@@std@@@1@AAU?$pair@$$CBKV?$vector@UtagPropertyBuff@@V?$allocator@UtagPropertyBuff@@@std@@@std@@@1@PAU?$_Tree_node@U?$pair@$$CBKV?$vector@UtagPropertyBuff@@V?$allocator@UtagPropertyBuff@@@std@@@std@@@std@@PAX@1@@Z$10 1002d7fb f   GamePropertyManager.obj
 0001:0002c81d       __ehhandler$??$_Insert_hint@AAU?$pair@$$CBKV?$vector@UtagPropertyBuff@@V?$allocator@UtagPropertyBuff@@@std@@@std@@@std@@PAU?$_Tree_node@U?$pair@$$CBKV?$vector@UtagPropertyBuff@@V?$allocator@UtagPropertyBuff@@@std@@@std@@@std@@PAX@2@@?$_Tree@V?$_Tmap_traits@KV?$vector@UtagPropertyBuff@@V?$allocator@UtagPropertyBuff@@@std@@@std@@U?$less@K@2@V?$allocator@U?$pair@$$CBKV?$vector@UtagPropertyBuff@@V?$allocator@UtagPropertyBuff@@@std@@@std@@@std@@@2@$0A@@std@@@std@@IAE?AV?$_Tree_iterator@V?$_Tree_val@U?$_Tree_simple_types@U?$pair@$$CBKV?$vector@UtagPropertyBuff@@V?$allocator@UtagPropertyBuff@@@std@@@std@@@std@@@std@@@std@@@1@V?$_Tree_const_iterator@V?$_Tree_val@U?$_Tree_simple_types@U?$pair@$$CBKV?$vector@UtagPropertyBuff@@V?$allocator@UtagPropertyBuff@@@std@@@std@@@std@@@std@@@std@@@1@AAU?$pair@$$CBKV?$vector@UtagPropertyBuff@@V?$allocator@UtagPropertyBuff@@@std@@@std@@@1@PAU?$_Tree_node@U?$pair@$$CBKV?$vector@UtagPropertyBuff@@V?$allocator@UtagPropertyBuff@@@std@@@std@@@std@@PAX@1@@Z 1002d81d f   GamePropertyManager.obj
 0001:0002c870       __unwindfunclet$??$_Insert_nohint@AAU?$pair@$$CBKV?$vector@UtagPropertyBuff@@V?$allocator@UtagPropertyBuff@@@std@@@std@@@std@@PAU?$_Tree_node@U?$pair@$$CBKV?$vector@UtagPropertyBuff@@V?$allocator@UtagPropertyBuff@@@std@@@std@@@std@@PAX@2@@?$_Tree@V?$_Tmap_traits@KV?$vector@UtagPropertyBuff@@V?$allocator@UtagPropertyBuff@@@std@@@std@@U?$less@K@2@V?$allocator@U?$pair@$$CBKV?$vector@UtagPropertyBuff@@V?$allocator@UtagPropertyBuff@@@std@@@std@@@std@@@2@$0A@@std@@@std@@IAE?AU?$pair@V?$_Tree_iterator@V?$_Tree_val@U?$_Tree_simple_types@U?$pair@$$CBKV?$vector@UtagPropertyBuff@@V?$allocator@UtagPropertyBuff@@@std@@@std@@@std@@@std@@@std@@@std@@_N@1@_NAAU?$pair@$$CBKV?$vector@UtagPropertyBuff@@V?$allocator@UtagPropertyBuff@@@std@@@std@@@1@PAU?$_Tree_node@U?$pair@$$CBKV?$vector@UtagPropertyBuff@@V?$allocator@UtagPropertyBuff@@@std@@@std@@@std@@PAX@1@@Z$4 1002d870 f   GamePropertyManager.obj
 0001:0002c878       __unwindfunclet$??$_Insert_nohint@AAU?$pair@$$CBKV?$vector@UtagPropertyBuff@@V?$allocator@UtagPropertyBuff@@@std@@@std@@@std@@PAU?$_Tree_node@U?$pair@$$CBKV?$vector@UtagPropertyBuff@@V?$allocator@UtagPropertyBuff@@@std@@@std@@@std@@PAX@2@@?$_Tree@V?$_Tmap_traits@KV?$vector@UtagPropertyBuff@@V?$allocator@UtagPropertyBuff@@@std@@@std@@U?$less@K@2@V?$allocator@U?$pair@$$CBKV?$vector@UtagPropertyBuff@@V?$allocator@UtagPropertyBuff@@@std@@@std@@@std@@@2@$0A@@std@@@std@@IAE?AU?$pair@V?$_Tree_iterator@V?$_Tree_val@U?$_Tree_simple_types@U?$pair@$$CBKV?$vector@UtagPropertyBuff@@V?$allocator@UtagPropertyBuff@@@std@@@std@@@std@@@std@@@std@@@std@@_N@1@_NAAU?$pair@$$CBKV?$vector@UtagPropertyBuff@@V?$allocator@UtagPropertyBuff@@@std@@@std@@@1@PAU?$_Tree_node@U?$pair@$$CBKV?$vector@UtagPropertyBuff@@V?$allocator@UtagPropertyBuff@@@std@@@std@@@std@@PAX@1@@Z$5 1002d878 f   GamePropertyManager.obj
 0001:0002c883       __ehhandler$??$_Insert_nohint@AAU?$pair@$$CBKV?$vector@UtagPropertyBuff@@V?$allocator@UtagPropertyBuff@@@std@@@std@@@std@@PAU?$_Tree_node@U?$pair@$$CBKV?$vector@UtagPropertyBuff@@V?$allocator@UtagPropertyBuff@@@std@@@std@@@std@@PAX@2@@?$_Tree@V?$_Tmap_traits@KV?$vector@UtagPropertyBuff@@V?$allocator@UtagPropertyBuff@@@std@@@std@@U?$less@K@2@V?$allocator@U?$pair@$$CBKV?$vector@UtagPropertyBuff@@V?$allocator@UtagPropertyBuff@@@std@@@std@@@std@@@2@$0A@@std@@@std@@IAE?AU?$pair@V?$_Tree_iterator@V?$_Tree_val@U?$_Tree_simple_types@U?$pair@$$CBKV?$vector@UtagPropertyBuff@@V?$allocator@UtagPropertyBuff@@@std@@@std@@@std@@@std@@@std@@@std@@_N@1@_NAAU?$pair@$$CBKV?$vector@UtagPropertyBuff@@V?$allocator@UtagPropertyBuff@@@std@@@std@@@1@PAU?$_Tree_node@U?$pair@$$CBKV?$vector@UtagPropertyBuff@@V?$allocator@UtagPropertyBuff@@@std@@@std@@@std@@PAX@1@@Z 1002d883 f   GamePropertyManager.obj
 0001:0002c8b0       __unwindfunclet$??$_Try_emplace@ABK$$V@?$map@KV?$vector@UtagPropertyBuff@@V?$allocator@UtagPropertyBuff@@@std@@@std@@U?$less@K@2@V?$allocator@U?$pair@$$CBKV?$vector@UtagPropertyBuff@@V?$allocator@UtagPropertyBuff@@@std@@@std@@@std@@@2@@std@@QAE?AU?$pair@V?$_Tree_iterator@V?$_Tree_val@U?$_Tree_simple_types@U?$pair@$$CBKV?$vector@UtagPropertyBuff@@V?$allocator@UtagPropertyBuff@@@std@@@std@@@std@@@std@@@std@@@std@@_N@1@ABK@Z$0 1002d8b0 f   GamePropertyManager.obj
 0001:0002c8b8       __unwindfunclet$??$_Try_emplace@ABK$$V@?$map@KV?$vector@UtagPropertyBuff@@V?$allocator@UtagPropertyBuff@@@std@@@std@@U?$less@K@2@V?$allocator@U?$pair@$$CBKV?$vector@UtagPropertyBuff@@V?$allocator@UtagPropertyBuff@@@std@@@std@@@std@@@2@@std@@QAE?AU?$pair@V?$_Tree_iterator@V?$_Tree_val@U?$_Tree_simple_types@U?$pair@$$CBKV?$vector@UtagPropertyBuff@@V?$allocator@UtagPropertyBuff@@@std@@@std@@@std@@@std@@@std@@@std@@_N@1@ABK@Z$1 1002d8b8 f   GamePropertyManager.obj
 0001:0002c8d7       __ehhandler$??$_Try_emplace@ABK$$V@?$map@KV?$vector@UtagPropertyBuff@@V?$allocator@UtagPropertyBuff@@@std@@@std@@U?$less@K@2@V?$allocator@U?$pair@$$CBKV?$vector@UtagPropertyBuff@@V?$allocator@UtagPropertyBuff@@@std@@@std@@@std@@@2@@std@@QAE?AU?$pair@V?$_Tree_iterator@V?$_Tree_val@U?$_Tree_simple_types@U?$pair@$$CBKV?$vector@UtagPropertyBuff@@V?$allocator@UtagPropertyBuff@@@std@@@std@@@std@@@std@@@std@@@std@@_N@1@ABK@Z 1002d8d7 f   GamePropertyManager.obj
 0001:0002c910       __unwindfunclet$??$emplace_hint@ABUpiecewise_construct_t@std@@V?$tuple@ABK@2@V?$tuple@$$V@2@@?$_Tree@V?$_Tmap_traits@KV?$vector@UtagPropertyBuff@@V?$allocator@UtagPropertyBuff@@@std@@@std@@U?$less@K@2@V?$allocator@U?$pair@$$CBKV?$vector@UtagPropertyBuff@@V?$allocator@UtagPropertyBuff@@@std@@@std@@@std@@@2@$0A@@std@@@std@@QAE?AV?$_Tree_iterator@V?$_Tree_val@U?$_Tree_simple_types@U?$pair@$$CBKV?$vector@UtagPropertyBuff@@V?$allocator@UtagPropertyBuff@@@std@@@std@@@std@@@std@@@std@@@1@V?$_Tree_const_iterator@V?$_Tree_val@U?$_Tree_simple_types@U?$pair@$$CBKV?$vector@UtagPropertyBuff@@V?$allocator@UtagPropertyBuff@@@std@@@std@@@std@@@std@@@std@@@1@ABUpiecewise_construct_t@1@$$QAV?$tuple@ABK@1@$$QAV?$tuple@$$V@1@@Z$0 1002d910 f   GamePropertyManager.obj
 0001:0002c918       __ehhandler$??$emplace_hint@ABUpiecewise_construct_t@std@@V?$tuple@ABK@2@V?$tuple@$$V@2@@?$_Tree@V?$_Tmap_traits@KV?$vector@UtagPropertyBuff@@V?$allocator@UtagPropertyBuff@@@std@@@std@@U?$less@K@2@V?$allocator@U?$pair@$$CBKV?$vector@UtagPropertyBuff@@V?$allocator@UtagPropertyBuff@@@std@@@std@@@std@@@2@$0A@@std@@@std@@QAE?AV?$_Tree_iterator@V?$_Tree_val@U?$_Tree_simple_types@U?$pair@$$CBKV?$vector@UtagPropertyBuff@@V?$allocator@UtagPropertyBuff@@@std@@@std@@@std@@@std@@@std@@@1@V?$_Tree_const_iterator@V?$_Tree_val@U?$_Tree_simple_types@U?$pair@$$CBKV?$vector@UtagPropertyBuff@@V?$allocator@UtagPropertyBuff@@@std@@@std@@@std@@@std@@@std@@@1@ABUpiecewise_construct_t@1@$$QAV?$tuple@ABK@1@$$QAV?$tuple@$$V@1@@Z 1002d918 f   GamePropertyManager.obj
 0001:0002c940       __unwindfunclet$??0?$vector@UtagPropertyBuff@@V?$allocator@UtagPropertyBuff@@@std@@@std@@QAE@ABV01@@Z$2 1002d940 f   GamePropertyManager.obj
 0001:0002c948       __ehhandler$??0?$vector@UtagPropertyBuff@@V?$allocator@UtagPropertyBuff@@@std@@@std@@QAE@ABV01@@Z 1002d948 f   GamePropertyManager.obj
 0001:0002c970       __ehhandler$??0?$vector@UtagPropertyBuff@@V?$allocator@UtagPropertyBuff@@@std@@@std@@QAE@XZ 1002d970 f   GamePropertyManager.obj
 0001:0002c9a0       __ehhandler$??1?$_Tree@V?$_Tmap_traits@KV?$vector@UtagPropertyBuff@@V?$allocator@UtagPropertyBuff@@@std@@@std@@U?$less@K@2@V?$allocator@U?$pair@$$CBKV?$vector@UtagPropertyBuff@@V?$allocator@UtagPropertyBuff@@@std@@@std@@@std@@@2@$0A@@std@@@std@@QAE@XZ 1002d9a0 f   GamePropertyManager.obj
 0001:0002c9d0       __ehhandler$??1?$_Tree_comp_alloc@V?$_Tmap_traits@KV?$vector@UtagPropertyBuff@@V?$allocator@UtagPropertyBuff@@@std@@@std@@U?$less@K@2@V?$allocator@U?$pair@$$CBKV?$vector@UtagPropertyBuff@@V?$allocator@UtagPropertyBuff@@@std@@@std@@@std@@@2@$0A@@std@@@std@@QAE@XZ 1002d9d0 f   GamePropertyManager.obj
 0001:0002ca00       __ehhandler$??1?$_Vector_alloc@U?$_Vec_base_types@UtagPropertyBuff@@V?$allocator@UtagPropertyBuff@@@std@@@std@@@std@@QAE@XZ 1002da00 f   GamePropertyManager.obj
 0001:0002ca30       __ehhandler$??1?$vector@UtagPropertyBuff@@V?$allocator@UtagPropertyBuff@@@std@@@std@@QAE@XZ 1002da30 f   GamePropertyManager.obj
 0001:0002ca60       __ehhandler$??1_Iterator_base12@std@@QAE@XZ 1002da60 f   GamePropertyManager.obj
 0001:0002ca90       __ehhandler$??4_Iterator_base12@std@@QAEAAU01@ABU01@@Z 1002da90 f   GamePropertyManager.obj
 0001:0002cac0       __unwindfunclet$??A?$map@KV?$vector@UtagPropertyBuff@@V?$allocator@UtagPropertyBuff@@@std@@@std@@U?$less@K@2@V?$allocator@U?$pair@$$CBKV?$vector@UtagPropertyBuff@@V?$allocator@UtagPropertyBuff@@@std@@@std@@@std@@@2@@std@@QAEAAV?$vector@UtagPropertyBuff@@V?$allocator@UtagPropertyBuff@@@std@@@1@ABK@Z$0 1002dac0 f   GamePropertyManager.obj
 0001:0002cac8       __ehhandler$??A?$map@KV?$vector@UtagPropertyBuff@@V?$allocator@UtagPropertyBuff@@@std@@@std@@U?$less@K@2@V?$allocator@U?$pair@$$CBKV?$vector@UtagPropertyBuff@@V?$allocator@UtagPropertyBuff@@@std@@@std@@@std@@@2@@std@@QAEAAV?$vector@UtagPropertyBuff@@V?$allocator@UtagPropertyBuff@@@std@@@1@ABK@Z 1002dac8 f   GamePropertyManager.obj
 0001:0002caf0       __unwindfunclet$??E?$_Tree_const_iterator@V?$_Tree_val@U?$_Tree_simple_types@U?$pair@$$CBKV?$vector@UtagPropertyBuff@@V?$allocator@UtagPropertyBuff@@@std@@@std@@@std@@@std@@@std@@@std@@QAE?AV01@H@Z$0 1002daf0 f   GamePropertyManager.obj
 0001:0002caf8       __ehhandler$??E?$_Tree_const_iterator@V?$_Tree_val@U?$_Tree_simple_types@U?$pair@$$CBKV?$vector@UtagPropertyBuff@@V?$allocator@UtagPropertyBuff@@@std@@@std@@@std@@@std@@@std@@@std@@QAE?AV01@H@Z 1002daf8 f   GamePropertyManager.obj
 0001:0002cb20       __ehhandler$??_ECGamePropertyManager@@UAEPAXI@Z 1002db20 f   GamePropertyManager.obj
 0001:0002cb50       __unwindfunclet$?SearchValidPropertyBuff@CGamePropertyManager@@SAPAUtagPropertyBuff@@KW4PROP_KIND@@@Z$0 1002db50 f   GamePropertyManager.obj
 0001:0002cb58       __ehhandler$?SearchValidPropertyBuff@CGamePropertyManager@@SAPAUtagPropertyBuff@@KW4PROP_KIND@@@Z 1002db58 f   GamePropertyManager.obj
 0001:0002cb80       __ehhandler$?_Adopt@_Iterator_base12@std@@QAEXPBU_Container_base12@2@@Z 1002db80 f   GamePropertyManager.obj
 0001:0002cbb0       __ehhandler$?_Buyheadnode@?$_Tree_comp_alloc@V?$_Tmap_traits@KV?$vector@UtagPropertyBuff@@V?$allocator@UtagPropertyBuff@@@std@@@std@@U?$less@K@2@V?$allocator@U?$pair@$$CBKV?$vector@UtagPropertyBuff@@V?$allocator@UtagPropertyBuff@@@std@@@std@@@std@@@2@$0A@@std@@@std@@QAEPAU?$_Tree_node@U?$pair@$$CBKV?$vector@UtagPropertyBuff@@V?$allocator@UtagPropertyBuff@@@std@@@std@@@std@@PAX@2@XZ 1002dbb0 f   GamePropertyManager.obj
 0001:0002cbe0       __ehhandler$?_Buynode0@?$_Tree_comp_alloc@V?$_Tmap_traits@KV?$vector@UtagPropertyBuff@@V?$allocator@UtagPropertyBuff@@@std@@@std@@U?$less@K@2@V?$allocator@U?$pair@$$CBKV?$vector@UtagPropertyBuff@@V?$allocator@UtagPropertyBuff@@@std@@@std@@@std@@@2@$0A@@std@@@std@@QAEPAU?$_Tree_node@U?$pair@$$CBKV?$vector@UtagPropertyBuff@@V?$allocator@UtagPropertyBuff@@@std@@@std@@@std@@PAX@2@XZ 1002dbe0 f   GamePropertyManager.obj
 0001:0002cc10       __ehhandler$?_Construct@?$_Tree_comp_alloc@V?$_Tmap_traits@KV?$vector@UtagPropertyBuff@@V?$allocator@UtagPropertyBuff@@@std@@@std@@U?$less@K@2@V?$allocator@U?$pair@$$CBKV?$vector@UtagPropertyBuff@@V?$allocator@UtagPropertyBuff@@@std@@@std@@@std@@@2@$0A@@std@@@std@@QAEXXZ 1002dc10 f   GamePropertyManager.obj
 0001:0002cc40       __unwindfunclet$?_Extract@?$_Tree_val@U?$_Tree_simple_types@U?$pair@$$CBKV?$vector@UtagPropertyBuff@@V?$allocator@UtagPropertyBuff@@@std@@@std@@@std@@@std@@@std@@QAEPAU?$_Tree_node@U?$pair@$$CBKV?$vector@UtagPropertyBuff@@V?$allocator@UtagPropertyBuff@@@std@@@std@@@std@@PAX@2@V?$_Tree_const_iterator@V?$_Tree_val@U?$_Tree_simple_types@U?$pair@$$CBKV?$vector@UtagPropertyBuff@@V?$allocator@UtagPropertyBuff@@@std@@@std@@@std@@@std@@@std@@@2@@Z$0 1002dc40 f   GamePropertyManager.obj
 0001:0002cc48       __ehhandler$?_Extract@?$_Tree_val@U?$_Tree_simple_types@U?$pair@$$CBKV?$vector@UtagPropertyBuff@@V?$allocator@UtagPropertyBuff@@@std@@@std@@@std@@@std@@@std@@QAEPAU?$_Tree_node@U?$pair@$$CBKV?$vector@UtagPropertyBuff@@V?$allocator@UtagPropertyBuff@@@std@@@std@@@std@@PAX@2@V?$_Tree_const_iterator@V?$_Tree_val@U?$_Tree_simple_types@U?$pair@$$CBKV?$vector@UtagPropertyBuff@@V?$allocator@UtagPropertyBuff@@@std@@@std@@@std@@@std@@@std@@@2@@Z 1002dc48 f   GamePropertyManager.obj
 0001:0002cc70       __ehhandler$?_Orphan_all@_Container_base12@std@@QAEXXZ 1002dc70 f   GamePropertyManager.obj
 0001:0002cca0       __unwindfunclet$?_Orphan_ptr@?$_Tree@V?$_Tmap_traits@KV?$vector@UtagPropertyBuff@@V?$allocator@UtagPropertyBuff@@@std@@@std@@U?$less@K@2@V?$allocator@U?$pair@$$CBKV?$vector@UtagPropertyBuff@@V?$allocator@UtagPropertyBuff@@@std@@@std@@@std@@@2@$0A@@std@@@std@@IAEXPAU?$_Tree_node@U?$pair@$$CBKV?$vector@UtagPropertyBuff@@V?$allocator@UtagPropertyBuff@@@std@@@std@@@std@@PAX@2@@Z$0 1002dca0 f   GamePropertyManager.obj
 0001:0002cca9       __ehhandler$?_Orphan_ptr@?$_Tree@V?$_Tmap_traits@KV?$vector@UtagPropertyBuff@@V?$allocator@UtagPropertyBuff@@@std@@@std@@U?$less@K@2@V?$allocator@U?$pair@$$CBKV?$vector@UtagPropertyBuff@@V?$allocator@UtagPropertyBuff@@@std@@@std@@@std@@@2@$0A@@std@@@std@@IAEXPAU?$_Tree_node@U?$pair@$$CBKV?$vector@UtagPropertyBuff@@V?$allocator@UtagPropertyBuff@@@std@@@std@@@std@@PAX@2@@Z 1002dca9 f   GamePropertyManager.obj
 0001:0002ccd0       __unwindfunclet$?_Orphan_range@?$vector@UtagPropertyBuff@@V?$allocator@UtagPropertyBuff@@@std@@@std@@ABEXPAUtagPropertyBuff@@0@Z$0 1002dcd0 f   GamePropertyManager.obj
 0001:0002ccd9       __ehhandler$?_Orphan_range@?$vector@UtagPropertyBuff@@V?$allocator@UtagPropertyBuff@@@std@@@std@@ABEXPAUtagPropertyBuff@@0@Z 1002dcd9 f   GamePropertyManager.obj
 0001:0002cd00       __unwindfunclet$?_Tidy@?$_Tree@V?$_Tmap_traits@KV?$vector@UtagPropertyBuff@@V?$allocator@UtagPropertyBuff@@@std@@@std@@U?$less@K@2@V?$allocator@U?$pair@$$CBKV?$vector@UtagPropertyBuff@@V?$allocator@UtagPropertyBuff@@@std@@@std@@@std@@@2@$0A@@std@@@std@@IAEXXZ$0 1002dd00 f   GamePropertyManager.obj
 0001:0002cd08       __unwindfunclet$?_Tidy@?$_Tree@V?$_Tmap_traits@KV?$vector@UtagPropertyBuff@@V?$allocator@UtagPropertyBuff@@@std@@@std@@U?$less@K@2@V?$allocator@U?$pair@$$CBKV?$vector@UtagPropertyBuff@@V?$allocator@UtagPropertyBuff@@@std@@@std@@@std@@@2@$0A@@std@@@std@@IAEXXZ$2 1002dd08 f   GamePropertyManager.obj
 0001:0002cd10       __ehhandler$?_Tidy@?$_Tree@V?$_Tmap_traits@KV?$vector@UtagPropertyBuff@@V?$allocator@UtagPropertyBuff@@@std@@@std@@U?$less@K@2@V?$allocator@U?$pair@$$CBKV?$vector@UtagPropertyBuff@@V?$allocator@UtagPropertyBuff@@@std@@@std@@@std@@@2@$0A@@std@@@std@@IAEXXZ 1002dd10 f   GamePropertyManager.obj
 0001:0002cd40       __ehhandler$?begin@?$_Tree@V?$_Tmap_traits@KV?$vector@UtagPropertyBuff@@V?$allocator@UtagPropertyBuff@@@std@@@std@@U?$less@K@2@V?$allocator@U?$pair@$$CBKV?$vector@UtagPropertyBuff@@V?$allocator@UtagPropertyBuff@@@std@@@std@@@std@@@2@$0A@@std@@@std@@QAE?AV?$_Tree_iterator@V?$_Tree_val@U?$_Tree_simple_types@U?$pair@$$CBKV?$vector@UtagPropertyBuff@@V?$allocator@UtagPropertyBuff@@@std@@@std@@@std@@@std@@@std@@@2@XZ 1002dd40 f   GamePropertyManager.obj
 0001:0002cd70       __ehhandler$?clear@?$_Tree@V?$_Tmap_traits@KV?$vector@UtagPropertyBuff@@V?$allocator@UtagPropertyBuff@@@std@@@std@@U?$less@K@2@V?$allocator@U?$pair@$$CBKV?$vector@UtagPropertyBuff@@V?$allocator@UtagPropertyBuff@@@std@@@std@@@std@@@2@$0A@@std@@@std@@QAEXXZ 1002dd70 f   GamePropertyManager.obj
 0001:0002cda0       __ehhandler$?clear@?$vector@UtagPropertyBuff@@V?$allocator@UtagPropertyBuff@@@std@@@std@@QAEXXZ 1002dda0 f   GamePropertyManager.obj
 0001:0002cdd0       __ehhandler$?end@?$_Tree@V?$_Tmap_traits@KV?$vector@UtagPropertyBuff@@V?$allocator@UtagPropertyBuff@@@std@@@std@@U?$less@K@2@V?$allocator@U?$pair@$$CBKV?$vector@UtagPropertyBuff@@V?$allocator@UtagPropertyBuff@@@std@@@std@@@std@@@2@$0A@@std@@@std@@QAE?AV?$_Tree_iterator@V?$_Tree_val@U?$_Tree_simple_types@U?$pair@$$CBKV?$vector@UtagPropertyBuff@@V?$allocator@UtagPropertyBuff@@@std@@@std@@@std@@@std@@@std@@@2@XZ 1002ddd0 f   GamePropertyManager.obj
 0001:0002ce00       __unwindfunclet$?erase@?$_Tree@V?$_Tmap_traits@KV?$vector@UtagPropertyBuff@@V?$allocator@UtagPropertyBuff@@@std@@@std@@U?$less@K@2@V?$allocator@U?$pair@$$CBKV?$vector@UtagPropertyBuff@@V?$allocator@UtagPropertyBuff@@@std@@@std@@@std@@@2@$0A@@std@@@std@@QAE?AV?$_Tree_iterator@V?$_Tree_val@U?$_Tree_simple_types@U?$pair@$$CBKV?$vector@UtagPropertyBuff@@V?$allocator@UtagPropertyBuff@@@std@@@std@@@std@@@std@@@std@@@2@V?$_Tree_const_iterator@V?$_Tree_val@U?$_Tree_simple_types@U?$pair@$$CBKV?$vector@UtagPropertyBuff@@V?$allocator@UtagPropertyBuff@@@std@@@std@@@std@@@std@@@std@@@2@0@Z$0 1002de00 f   GamePropertyManager.obj
 0001:0002ce08       __unwindfunclet$?erase@?$_Tree@V?$_Tmap_traits@KV?$vector@UtagPropertyBuff@@V?$allocator@UtagPropertyBuff@@@std@@@std@@U?$less@K@2@V?$allocator@U?$pair@$$CBKV?$vector@UtagPropertyBuff@@V?$allocator@UtagPropertyBuff@@@std@@@std@@@std@@@2@$0A@@std@@@std@@QAE?AV?$_Tree_iterator@V?$_Tree_val@U?$_Tree_simple_types@U?$pair@$$CBKV?$vector@UtagPropertyBuff@@V?$allocator@UtagPropertyBuff@@@std@@@std@@@std@@@std@@@std@@@2@V?$_Tree_const_iterator@V?$_Tree_val@U?$_Tree_simple_types@U?$pair@$$CBKV?$vector@UtagPropertyBuff@@V?$allocator@UtagPropertyBuff@@@std@@@std@@@std@@@std@@@std@@@2@0@Z$1 1002de08 f   GamePropertyManager.obj
 0001:0002ce10       __unwindfunclet$?erase@?$_Tree@V?$_Tmap_traits@KV?$vector@UtagPropertyBuff@@V?$allocator@UtagPropertyBuff@@@std@@@std@@U?$less@K@2@V?$allocator@U?$pair@$$CBKV?$vector@UtagPropertyBuff@@V?$allocator@UtagPropertyBuff@@@std@@@std@@@std@@@2@$0A@@std@@@std@@QAE?AV?$_Tree_iterator@V?$_Tree_val@U?$_Tree_simple_types@U?$pair@$$CBKV?$vector@UtagPropertyBuff@@V?$allocator@UtagPropertyBuff@@@std@@@std@@@std@@@std@@@std@@@2@V?$_Tree_const_iterator@V?$_Tree_val@U?$_Tree_simple_types@U?$pair@$$CBKV?$vector@UtagPropertyBuff@@V?$allocator@UtagPropertyBuff@@@std@@@std@@@std@@@std@@@std@@@2@0@Z$2 1002de10 f   GamePropertyManager.obj
 0001:0002ce29       __unwindfunclet$?erase@?$_Tree@V?$_Tmap_traits@KV?$vector@UtagPropertyBuff@@V?$allocator@UtagPropertyBuff@@@std@@@std@@U?$less@K@2@V?$allocator@U?$pair@$$CBKV?$vector@UtagPropertyBuff@@V?$allocator@UtagPropertyBuff@@@std@@@std@@@std@@@2@$0A@@std@@@std@@QAE?AV?$_Tree_iterator@V?$_Tree_val@U?$_Tree_simple_types@U?$pair@$$CBKV?$vector@UtagPropertyBuff@@V?$allocator@UtagPropertyBuff@@@std@@@std@@@std@@@std@@@std@@@2@V?$_Tree_const_iterator@V?$_Tree_val@U?$_Tree_simple_types@U?$pair@$$CBKV?$vector@UtagPropertyBuff@@V?$allocator@UtagPropertyBuff@@@std@@@std@@@std@@@std@@@std@@@2@0@Z$3 1002de29 f   GamePropertyManager.obj
 0001:0002ce42       __ehhandler$?erase@?$_Tree@V?$_Tmap_traits@KV?$vector@UtagPropertyBuff@@V?$allocator@UtagPropertyBuff@@@std@@@std@@U?$less@K@2@V?$allocator@U?$pair@$$CBKV?$vector@UtagPropertyBuff@@V?$allocator@UtagPropertyBuff@@@std@@@std@@@std@@@2@$0A@@std@@@std@@QAE?AV?$_Tree_iterator@V?$_Tree_val@U?$_Tree_simple_types@U?$pair@$$CBKV?$vector@UtagPropertyBuff@@V?$allocator@UtagPropertyBuff@@@std@@@std@@@std@@@std@@@std@@@2@V?$_Tree_const_iterator@V?$_Tree_val@U?$_Tree_simple_types@U?$pair@$$CBKV?$vector@UtagPropertyBuff@@V?$allocator@UtagPropertyBuff@@@std@@@std@@@std@@@std@@@std@@@2@0@Z 1002de42 f   GamePropertyManager.obj
 0001:0002ce80       __unwindfunclet$?erase@?$_Tree@V?$_Tmap_traits@KV?$vector@UtagPropertyBuff@@V?$allocator@UtagPropertyBuff@@@std@@@std@@U?$less@K@2@V?$allocator@U?$pair@$$CBKV?$vector@UtagPropertyBuff@@V?$allocator@UtagPropertyBuff@@@std@@@std@@@std@@@2@$0A@@std@@@std@@QAE?AV?$_Tree_iterator@V?$_Tree_val@U?$_Tree_simple_types@U?$pair@$$CBKV?$vector@UtagPropertyBuff@@V?$allocator@UtagPropertyBuff@@@std@@@std@@@std@@@std@@@std@@@2@V?$_Tree_const_iterator@V?$_Tree_val@U?$_Tree_simple_types@U?$pair@$$CBKV?$vector@UtagPropertyBuff@@V?$allocator@UtagPropertyBuff@@@std@@@std@@@std@@@std@@@std@@@2@@Z$0 1002de80 f   GamePropertyManager.obj
 0001:0002ce88       __unwindfunclet$?erase@?$_Tree@V?$_Tmap_traits@KV?$vector@UtagPropertyBuff@@V?$allocator@UtagPropertyBuff@@@std@@@std@@U?$less@K@2@V?$allocator@U?$pair@$$CBKV?$vector@UtagPropertyBuff@@V?$allocator@UtagPropertyBuff@@@std@@@std@@@std@@@2@$0A@@std@@@std@@QAE?AV?$_Tree_iterator@V?$_Tree_val@U?$_Tree_simple_types@U?$pair@$$CBKV?$vector@UtagPropertyBuff@@V?$allocator@UtagPropertyBuff@@@std@@@std@@@std@@@std@@@std@@@2@V?$_Tree_const_iterator@V?$_Tree_val@U?$_Tree_simple_types@U?$pair@$$CBKV?$vector@UtagPropertyBuff@@V?$allocator@UtagPropertyBuff@@@std@@@std@@@std@@@std@@@std@@@2@@Z$1 1002de88 f   GamePropertyManager.obj
 0001:0002ce90       __ehhandler$?erase@?$_Tree@V?$_Tmap_traits@KV?$vector@UtagPropertyBuff@@V?$allocator@UtagPropertyBuff@@@std@@@std@@U?$less@K@2@V?$allocator@U?$pair@$$CBKV?$vector@UtagPropertyBuff@@V?$allocator@UtagPropertyBuff@@@std@@@std@@@std@@@2@$0A@@std@@@std@@QAE?AV?$_Tree_iterator@V?$_Tree_val@U?$_Tree_simple_types@U?$pair@$$CBKV?$vector@UtagPropertyBuff@@V?$allocator@UtagPropertyBuff@@@std@@@std@@@std@@@std@@@std@@@2@V?$_Tree_const_iterator@V?$_Tree_val@U?$_Tree_simple_types@U?$pair@$$CBKV?$vector@UtagPropertyBuff@@V?$allocator@UtagPropertyBuff@@@std@@@std@@@std@@@std@@@std@@@2@@Z 1002de90 f   GamePropertyManager.obj
 0001:0002cec0       __unwindfunclet$??0?$CMap@HHPAUtagGameDataItem@@AAPAU1@@@QAE@H@Z$0 1002dec0 f   ServerUserManager.obj
 0001:0002cec8       __ehhandler$??0?$CMap@HHPAUtagGameDataItem@@AAPAU1@@@QAE@H@Z 1002dec8 f   ServerUserManager.obj
 0001:0002cef0       __unwindfunclet$??0?$CMap@KKPAVCServerUserItem@@PAV1@@@QAE@H@Z$0 1002def0 f   ServerUserManager.obj
 0001:0002cef8       __ehhandler$??0?$CMap@KKPAVCServerUserItem@@PAV1@@@QAE@H@Z 1002def8 f   ServerUserManager.obj
 0001:0002cf20       __unwindfunclet$??0CServerUserItem@@IAE@XZ$0 1002df20 f   ServerUserManager.obj
 0001:0002cf2e       __ehhandler$??0CServerUserItem@@IAE@XZ 1002df2e f   ServerUserManager.obj
 0001:0002cf60       __unwindfunclet$??0CServerUserManager@@QAE@XZ$0 1002df60 f   ServerUserManager.obj
 0001:0002cf6b       __unwindfunclet$??0CServerUserManager@@QAE@XZ$1 1002df6b f   ServerUserManager.obj
 0001:0002cf76       __unwindfunclet$??0CServerUserManager@@QAE@XZ$2 1002df76 f   ServerUserManager.obj
 0001:0002cf81       __ehhandler$??0CServerUserManager@@QAE@XZ 1002df81 f   ServerUserManager.obj
 0001:0002cfb0       __ehhandler$??1?$CMap@HHPAUtagGameDataItem@@AAPAU1@@@UAE@XZ 1002dfb0 f   ServerUserManager.obj
 0001:0002cfe0       __ehhandler$??1?$CMap@KKPAVCServerUserItem@@PAV1@@@UAE@XZ 1002dfe0 f   ServerUserManager.obj
 0001:0002d010       __unwindfunclet$??1CServerUserItem@@MAE@XZ$2 1002e010 f   ServerUserManager.obj
 0001:0002d01e       __ehhandler$??1CServerUserItem@@MAE@XZ 1002e01e f   ServerUserManager.obj
 0001:0002d050       __ehhandler$??1CServerUserManager@@UAE@XZ 1002e050 f   ServerUserManager.obj
 0001:0002d080       __ehhandler$??_ECServerUserItem@@MAEPAXI@Z 1002e080 f   ServerUserManager.obj
 0001:0002d0b0       __ehhandler$??_ECServerUserManager@@UAEPAXI@Z 1002e0b0 f   ServerUserManager.obj
 0001:0002d0e0       __unwindfunclet$?GetUserGameData@CServerUserItem@@UAEPBDXZ$0 1002e0e0 f   ServerUserManager.obj
 0001:0002d0e9       __ehhandler$?GetUserGameData@CServerUserItem@@UAEPBDXZ 1002e0e9 f   ServerUserManager.obj
 0001:0002d110       __unwindfunclet$?InitUserGameDataMap@CServerUserItem@@AAEXXZ$2 1002e110 f   ServerUserManager.obj
 0001:0002d118       __unwindfunclet$?InitUserGameDataMap@CServerUserItem@@AAEXXZ$3 1002e118 f   ServerUserManager.obj
 0001:0002d124       __unwindfunclet$?InitUserGameDataMap@CServerUserItem@@AAEXXZ$6 1002e124 f   ServerUserManager.obj
 0001:0002d12d       __ehhandler$?InitUserGameDataMap@CServerUserItem@@AAEXXZ 1002e12d f   ServerUserManager.obj
 0001:0002d170       __unwindfunclet$?InsertUserItem@CServerUserManager@@UAE_NPAPAUIServerUserItem@@AAUtagUserInfo@@AAUtagUserInfoPlus@@@Z$2 1002e170 f   ServerUserManager.obj
 0001:0002d182       __unwindfunclet$?InsertUserItem@CServerUserManager@@UAE_NPAPAUIServerUserItem@@AAUtagUserInfo@@AAUtagUserInfoPlus@@@Z$3 1002e182 f   ServerUserManager.obj
 0001:0002d18b       __ehhandler$?InsertUserItem@CServerUserManager@@UAE_NPAPAUIServerUserItem@@AAUtagUserInfo@@AAUtagUserInfoPlus@@@Z 1002e18b f   ServerUserManager.obj
 0001:0002d1c0       __unwindfunclet$?IsPureDigitString@CServerUserItem@@AAE_NV?$CStringT@DV?$StrTraitMFC_DLL@DV?$ChTraitsCRT@D@ATL@@@@@ATL@@@Z$0 1002e1c0 f   ServerUserManager.obj
 0001:0002d1c9       __ehhandler$?IsPureDigitString@CServerUserItem@@AAE_NV?$CStringT@DV?$StrTraitMFC_DLL@DV?$ChTraitsCRT@D@ATL@@@@@ATL@@@Z 1002e1c9 f   ServerUserManager.obj
 0001:0002d1f0       __unwindfunclet$?IsValidGameData@CServerUserItem@@AAE_NV?$CStringT@DV?$StrTraitMFC_DLL@DV?$ChTraitsCRT@D@ATL@@@@@ATL@@0@Z$0 1002e1f0 f   ServerUserManager.obj
 0001:0002d1f9       __unwindfunclet$?IsValidGameData@CServerUserItem@@AAE_NV?$CStringT@DV?$StrTraitMFC_DLL@DV?$ChTraitsCRT@D@ATL@@@@@ATL@@0@Z$1 1002e1f9 f   ServerUserManager.obj
 0001:0002d202       __unwindfunclet$?IsValidGameData@CServerUserItem@@AAE_NV?$CStringT@DV?$StrTraitMFC_DLL@DV?$ChTraitsCRT@D@ATL@@@@@ATL@@0@Z$2 1002e202 f   ServerUserManager.obj
 0001:0002d20a       __unwindfunclet$?IsValidGameData@CServerUserItem@@AAE_NV?$CStringT@DV?$StrTraitMFC_DLL@DV?$ChTraitsCRT@D@ATL@@@@@ATL@@0@Z$3 1002e20a f   ServerUserManager.obj
 0001:0002d216       __ehhandler$?IsValidGameData@CServerUserItem@@AAE_NV?$CStringT@DV?$StrTraitMFC_DLL@DV?$ChTraitsCRT@D@ATL@@@@@ATL@@0@Z 1002e216 f   ServerUserManager.obj
 0001:0002d260       __ehhandler$?ResetUserItem@CServerUserItem@@AAEXXZ 1002e260 f   ServerUserManager.obj
 0001:0002d290       __ehhandler$?SetUserGameData@CServerUserItem@@UAEXHPBDH@Z 1002e290 f   ServerUserManager.obj
 0001:0002d2c0       __unwindfunclet$?SetUserGameData@CServerUserItem@@UAEXPBDH@Z$0 1002e2c0 f   ServerUserManager.obj
 0001:0002d2c9       __ehhandler$?SetUserGameData@CServerUserItem@@UAEXPBDH@Z 1002e2c9 f   ServerUserManager.obj
 0001:0002d2f0       __unwindfunclet$?SplitString@CServerUserItem@@AAEXV?$CStringT@DV?$StrTraitMFC_DLL@DV?$ChTraitsCRT@D@ATL@@@@@ATL@@0AAVCStringArray@@@Z$0 1002e2f0 f   ServerUserManager.obj
 0001:0002d2f9       __unwindfunclet$?SplitString@CServerUserItem@@AAEXV?$CStringT@DV?$StrTraitMFC_DLL@DV?$ChTraitsCRT@D@ATL@@@@@ATL@@0AAVCStringArray@@@Z$1 1002e2f9 f   ServerUserManager.obj
 0001:0002d302       __unwindfunclet$?SplitString@CServerUserItem@@AAEXV?$CStringT@DV?$StrTraitMFC_DLL@DV?$ChTraitsCRT@D@ATL@@@@@ATL@@0AAVCStringArray@@@Z$2 1002e302 f   ServerUserManager.obj
 0001:0002d30b       __ehhandler$?SplitString@CServerUserItem@@AAEXV?$CStringT@DV?$StrTraitMFC_DLL@DV?$ChTraitsCRT@D@ATL@@@@@ATL@@0AAVCStringArray@@@Z 1002e30b f   ServerUserManager.obj
 0001:0002d340       __unwindfunclet$??0_ATL_WIN_MODULE70@ATL@@QAE@XZ$0 1002e340 f   Stdafx.obj
 0001:0002d34b       __ehhandler$??0_ATL_WIN_MODULE70@ATL@@QAE@XZ 1002e34b f   Stdafx.obj
 0001:0002d370       __ehhandler$??1?$CSimpleArray@GV?$CSimpleArrayEqualHelper@G@ATL@@@ATL@@QAE@XZ 1002e370 f   Stdafx.obj
 0001:0002d3a0       __ehhandler$??1CAtlComModule@ATL@@QAE@XZ 1002e3a0 f   Stdafx.obj
 0001:0002d3d0       __ehhandler$??1CAtlWinModule@ATL@@QAE@XZ 1002e3d0 f   Stdafx.obj
 0001:0002d400       __unwindfunclet$??RCTraceFileAndLineInfo@ATL@@QBAXHIPBDZZ$0 1002e400 f   Stdafx.obj
 0001:0002d408       __ehhandler$??RCTraceFileAndLineInfo@ATL@@QBAXHIPBDZZ 1002e408 f   Stdafx.obj
 0001:0002d430       __unwindfunclet$?TraceV@CTrace@ATL@@SAXPBDHII0PAD@Z$0 1002e430 f   Stdafx.obj
 0001:0002d438       __unwindfunclet$?TraceV@CTrace@ATL@@SAXPBDHII0PAD@Z$1 1002e438 f   Stdafx.obj
 0001:0002d440       __ehhandler$?TraceV@CTrace@ATL@@SAXPBDHII0PAD@Z 1002e440 f   Stdafx.obj
 0001:0002d470       __unwindfunclet$??0?$CMap@GGPAUtagTaskParameter@@PAU1@@@QAE@H@Z$0 1002e470 f   UserTaskManager.obj
 0001:0002d478       __ehhandler$??0?$CMap@GGPAUtagTaskParameter@@PAU1@@@QAE@H@Z 1002e478 f   UserTaskManager.obj
 0001:0002d4a0       __unwindfunclet$??0?$CMap@KKPAUtagUserTaskEntry@@PAU1@@@QAE@H@Z$0 1002e4a0 f   UserTaskManager.obj
 0001:0002d4a8       __ehhandler$??0?$CMap@KKPAUtagUserTaskEntry@@PAU1@@@QAE@H@Z 1002e4a8 f   UserTaskManager.obj
 0001:0002d4d0       __unwindfunclet$??0CUserTaskManager@@QAE@XZ$0 1002e4d0 f   UserTaskManager.obj
 0001:0002d4db       __unwindfunclet$??0CUserTaskManager@@QAE@XZ$1 1002e4db f   UserTaskManager.obj
 0001:0002d4e6       __unwindfunclet$??0CUserTaskManager@@QAE@XZ$2 1002e4e6 f   UserTaskManager.obj
 0001:0002d4f1       __unwindfunclet$??0CUserTaskManager@@QAE@XZ$3 1002e4f1 f   UserTaskManager.obj
 0001:0002d4fc       __ehhandler$??0CUserTaskManager@@QAE@XZ 1002e4fc f   UserTaskManager.obj
 0001:0002d530       __ehhandler$??1?$CMap@GGPAUtagTaskParameter@@PAU1@@@UAE@XZ 1002e530 f   UserTaskManager.obj
 0001:0002d560       __ehhandler$??1?$CMap@KKPAUtagUserTaskEntry@@PAU1@@@UAE@XZ 1002e560 f   UserTaskManager.obj
 0001:0002d590       __unwindfunclet$??1CUserTaskManager@@UAE@XZ$8 1002e590 f   UserTaskManager.obj
 0001:0002d59b       __unwindfunclet$??1CUserTaskManager@@UAE@XZ$9 1002e59b f   UserTaskManager.obj
 0001:0002d5a6       __unwindfunclet$??1CUserTaskManager@@UAE@XZ$10 1002e5a6 f   UserTaskManager.obj
 0001:0002d5b1       __unwindfunclet$??1CUserTaskManager@@UAE@XZ$11 1002e5b1 f   UserTaskManager.obj
 0001:0002d5bc       __ehhandler$??1CUserTaskManager@@UAE@XZ 1002e5bc f   UserTaskManager.obj
 0001:0002d5f0       __ehhandler$??_ECUserTaskManager@@UAEPAXI@Z 1002e5f0 f   UserTaskManager.obj
 0001:0002d620       __ehhandler$?AddTaskParameter@CUserTaskManager@@UAE_NQAUtagTaskParameter@@G@Z 1002e620 f   UserTaskManager.obj
 0001:0002d650       __ehhandler$?CreateUserTaskEntry@CUserTaskManager@@IAEPAUtagUserTaskEntry@@XZ 1002e650 f   UserTaskManager.obj
 0001:0002d680       __ehhandler$??_Estringdispid@CComTypeInfoHolder@ATL@@QAEPAXI@Z 1002e680 f   mfcs140d:nolib.obj
 0001:0002d6b0       __ehhandler$?__scrt_initialize_thread_safe_statics_platform_specific@@YAXXZ 1002e6b0 f   msvcrtd:thread_safe_statics.obj
 0001:0002d6e0       __ehhandler$?__scrt_uninitialize_thread_safe_statics@@YAXXZ 1002e6e0 f   msvcrtd:thread_safe_statics.obj
 0001:0002e830       ??__F?m_TimerItemBuffer@CAndroidUserItem@@1V?$CWHArray@PAUtagTimerItem@@ABQAU1@@@A@@YAXXZ 1002f830 f   AndroidUserItem.obj
 0001:0002e850       ??__F?m_PropertyBuffMap@CGamePropertyManager@@1V?$map@KV?$vector@UtagPropertyBuff@@V?$allocator@UtagPropertyBuff@@@std@@@std@@U?$less@K@2@V?$allocator@U?$pair@$$CBKV?$vector@UtagPropertyBuff@@V?$allocator@UtagPropertyBuff@@@std@@@std@@@std@@@2@@std@@A@@YAXXZ 1002f850 f   GamePropertyManager.obj
 0001:0002e870       ??__F_AtlComModule@ATL@@YAXXZ 1002f870 f   Stdafx.obj
 0001:0002e890       ??__F_AtlWinModule@ATL@@YAXXZ 1002f890 f   Stdafx.obj
 0001:0002e8f0       ??__F_AtlComModule@ATL@@YAXXZ 1002f8f0 f   mfcs140d:nolib.obj
 0001:0002e910       ??__F_AtlWinModule@ATL@@YAXXZ 1002f910 f   mfcs140d:nolib.obj
 0001:0002e930       ??__F_AtlComModule@ATL@@YAXXZ 1002f930 f   mfcs140d:stdafx.obj
 0001:0002e950       ??__F_AtlWinModule@ATL@@YAXXZ 1002f950 f   mfcs140d:stdafx.obj
 0001:0002e96b       ??__F_AtlBaseModule@ATL@@YAXXZ 1002f96b f   atls:atlbase.obj
 0002:00000104       ?_AtlBaseModule$initializer$@ATL@@3P6AXXZA 10031104     atls:atlbase.obj
 0002:00000208       ?atlTraceException$initializer$@ATL@@3P6AXXZA 10031208     AndroidUserItem.obj
 0002:0000020c       ??m_TimerItemBuffer$initializer$@CAndroidUserItem@@1P6AXXZA@@3P6AXXZA 1003120c     AndroidUserItem.obj
 0002:00000210       ??m_PropertyBuffMap$initializer$@CGamePropertyManager@@1P6AXXZA@@3P6AXXZA 10031210     GamePropertyManager.obj
 0002:00000214       ?atlTraceString$initializer$@ATL@@3P6AXXZA 10031214     ServerUserManager.obj
 0002:00000218       ?atlTraceGeneral$initializer$@ATL@@3P6AXXZA 10031218     Stdafx.obj
 0002:0000021c       ?atlTraceCOM$initializer$@ATL@@3P6AXXZA 1003121c     Stdafx.obj
 0002:00000220       ?atlTraceQI$initializer$@ATL@@3P6AXXZA 10031220     Stdafx.obj
 0002:00000224       ?atlTraceRegistrar$initializer$@ATL@@3P6AXXZA 10031224     Stdafx.obj
 0002:00000228       ?atlTraceRefcount$initializer$@ATL@@3P6AXXZA 10031228     Stdafx.obj
 0002:0000022c       ?atlTraceWindowing$initializer$@ATL@@3P6AXXZA 1003122c     Stdafx.obj
 0002:00000230       ?atlTraceControls$initializer$@ATL@@3P6AXXZA 10031230     Stdafx.obj
 0002:00000234       ?atlTraceHosting$initializer$@ATL@@3P6AXXZA 10031234     Stdafx.obj
 0002:00000238       ?atlTraceDBClient$initializer$@ATL@@3P6AXXZA 10031238     Stdafx.obj
 0002:0000023c       ?atlTraceDBProvider$initializer$@ATL@@3P6AXXZA 1003123c     Stdafx.obj
 0002:00000240       ?atlTraceSnapin$initializer$@ATL@@3P6AXXZA 10031240     Stdafx.obj
 0002:00000244       ?atlTraceNotImpl$initializer$@ATL@@3P6AXXZA 10031244     Stdafx.obj
 0002:00000248       ?atlTraceAllocation$initializer$@ATL@@3P6AXXZA 10031248     Stdafx.obj
 0002:0000024c       ?atlTraceTime$initializer$@ATL@@3P6AXXZA 1003124c     Stdafx.obj
 0002:00000250       ?atlTraceCache$initializer$@ATL@@3P6AXXZA 10031250     Stdafx.obj
 0002:00000254       ?atlTraceStencil$initializer$@ATL@@3P6AXXZA 10031254     Stdafx.obj
 0002:00000258       ?atlTraceMap$initializer$@ATL@@3P6AXXZA 10031258     Stdafx.obj
 0002:0000025c       ?atlTraceUtil$initializer$@ATL@@3P6AXXZA 1003125c     Stdafx.obj
 0002:00000260       ?atlTraceSecurity$initializer$@ATL@@3P6AXXZA 10031260     Stdafx.obj
 0002:00000264       ?atlTraceSync$initializer$@ATL@@3P6AXXZA 10031264     Stdafx.obj
 0002:00000268       ?atlTraceISAPI$initializer$@ATL@@3P6AXXZA 10031268     Stdafx.obj
 0002:0000026c       ?_AtlComModule$initializer$@ATL@@3P6AXXZA 1003126c     Stdafx.obj
 0002:00000270       ?_AtlWinModule$initializer$@ATL@@3P6AXXZA 10031270     Stdafx.obj
 0002:00000274       ?InitializeCAtlStringMgr$initializer$@ATLImplementationDetails@ATL@@3P6AXXZA 10031274     Stdafx.obj
 0002:00000598       ?__scrt_initialize_tss_var@@3P6AHXZA 10031598     msvcrtd:thread_safe_statics.obj
 0002:00000bc0       ?IID_IUnknownEx@@3U_GUID@@B 10031bc0     AndroidUserItem.obj
 0002:00000bd0       ?IID_ITraceServiceManager@@3U_GUID@@B 10031bd0     AndroidUserItem.obj
 0002:00000be0       ?IID_IAsynchronismEngine@@3U_GUID@@B 10031be0     AndroidUserItem.obj
 0002:00000bf0       ?IID_IDataBase@@3U_GUID@@B 10031bf0     AndroidUserItem.obj
 0002:00000c00       ?IID_IDataBaseEngine@@3U_GUID@@B 10031c00     AndroidUserItem.obj
 0002:00000c10       ?IID_IUDPNetworkEngine@@3U_GUID@@B 10031c10     AndroidUserItem.obj
 0002:00000c20       ?IID_ITCPNetworkEngine@@3U_GUID@@B 10031c20     AndroidUserItem.obj
 0002:00000c30       ?IID_ITCPSocketService@@3U_GUID@@B 10031c30     AndroidUserItem.obj
 0002:00000c40       ?IID_IWEBSocketService@@3U_GUID@@B 10031c40     AndroidUserItem.obj
 0002:00000c50       ?IID_ITimerEngine@@3U_GUID@@B 10031c50     AndroidUserItem.obj
 0002:00000c60       ?IID_IAttemperEngine@@3U_GUID@@B 10031c60     AndroidUserItem.obj
 0002:00000c70       ?IID_IGameServiceManager@@3U_GUID@@B 10031c70     AndroidUserItem.obj
 0002:00000c80       ?IID_IAndroidUserItem@@3U_GUID@@B 10031c80     AndroidUserItem.obj
 0002:00000c90       ?IID_IAndroidUserItemSink@@3U_GUID@@B 10031c90     AndroidUserItem.obj
 0002:0000117c       ?IID_IUnknownEx@@3U_GUID@@B 1003217c     AndroidUserManager.obj
 0002:0000118c       ?IID_ITraceServiceManager@@3U_GUID@@B 1003218c     AndroidUserManager.obj
 0002:0000119c       ?IID_IAsynchronismEngine@@3U_GUID@@B 1003219c     AndroidUserManager.obj
 0002:000011ac       ?IID_IDataBase@@3U_GUID@@B 100321ac     AndroidUserManager.obj
 0002:000011bc       ?IID_IDataBaseEngine@@3U_GUID@@B 100321bc     AndroidUserManager.obj
 0002:000011cc       ?IID_IUDPNetworkEngine@@3U_GUID@@B 100321cc     AndroidUserManager.obj
 0002:000011dc       ?IID_ITCPNetworkEngine@@3U_GUID@@B 100321dc     AndroidUserManager.obj
 0002:000011ec       ?IID_ITCPSocketService@@3U_GUID@@B 100321ec     AndroidUserManager.obj
 0002:000011fc       ?IID_IWEBSocketService@@3U_GUID@@B 100321fc     AndroidUserManager.obj
 0002:0000120c       ?IID_ITimerEngine@@3U_GUID@@B 1003220c     AndroidUserManager.obj
 0002:0000121c       ?IID_IAttemperEngine@@3U_GUID@@B 1003221c     AndroidUserManager.obj
 0002:0000122c       ?IID_IGameServiceManager@@3U_GUID@@B 1003222c     AndroidUserManager.obj
 0002:0000123c       ?IID_IAndroidUserItemSink@@3U_GUID@@B 1003223c     AndroidUserManager.obj
 0002:0000124c       ?IID_IAndroidUserManager@@3U_GUID@@B 1003224c     AndroidUserManager.obj
 0002:00001560       ?piecewise_construct@std@@3Upiecewise_construct_t@1@B 10032560     GamePropertyManager.obj
 0002:00001564       ?IID_ITraceServiceManager@@3U_GUID@@B 10032564     GamePropertyManager.obj
 0002:00001574       ?IID_IAsynchronismEngine@@3U_GUID@@B 10032574     GamePropertyManager.obj
 0002:00001584       ?IID_IDataBase@@3U_GUID@@B 10032584     GamePropertyManager.obj
 0002:00001594       ?IID_IDataBaseEngine@@3U_GUID@@B 10032594     GamePropertyManager.obj
 0002:000015a4       ?IID_IUDPNetworkEngine@@3U_GUID@@B 100325a4     GamePropertyManager.obj
 0002:000015b4       ?IID_ITCPNetworkEngine@@3U_GUID@@B 100325b4     GamePropertyManager.obj
 0002:000015c4       ?IID_ITCPSocketService@@3U_GUID@@B 100325c4     GamePropertyManager.obj
 0002:000015d4       ?IID_IWEBSocketService@@3U_GUID@@B 100325d4     GamePropertyManager.obj
 0002:000015e4       ?IID_ITimerEngine@@3U_GUID@@B 100325e4     GamePropertyManager.obj
 0002:000015f4       ?IID_IAttemperEngine@@3U_GUID@@B 100325f4     GamePropertyManager.obj
 0002:00001604       ?IID_IGameServiceManager@@3U_GUID@@B 10032604     GamePropertyManager.obj
 0002:00001614       ?IID_IAndroidUserItemSink@@3U_GUID@@B 10032614     GamePropertyManager.obj
 0002:00003660       ?IID_ITraceServiceManager@@3U_GUID@@B 10034660     GameService.obj
 0002:00003670       ?IID_IAsynchronismEngine@@3U_GUID@@B 10034670     GameService.obj
 0002:00003680       ?IID_IDataBase@@3U_GUID@@B 10034680     GameService.obj
 0002:00003690       ?IID_IDataBaseEngine@@3U_GUID@@B 10034690     GameService.obj
 0002:000036a0       ?IID_IUDPNetworkEngine@@3U_GUID@@B 100346a0     GameService.obj
 0002:000036b0       ?IID_ITCPNetworkEngine@@3U_GUID@@B 100346b0     GameService.obj
 0002:000036c0       ?IID_ITCPSocketService@@3U_GUID@@B 100346c0     GameService.obj
 0002:000036d0       ?IID_IWEBSocketService@@3U_GUID@@B 100346d0     GameService.obj
 0002:000036e0       ?IID_ITimerEngine@@3U_GUID@@B 100346e0     GameService.obj
 0002:000036f0       ?IID_IAttemperEngine@@3U_GUID@@B 100346f0     GameService.obj
 0002:00003700       ?IID_IGameServiceManager@@3U_GUID@@B 10034700     GameService.obj
 0002:00003710       ?IID_IAndroidUserItemSink@@3U_GUID@@B 10034710     GameService.obj
 0002:00003748       ?IID_IUnknownEx@@3U_GUID@@B 10034748     ServerUserManager.obj
 0002:00003758       ?IID_ITraceServiceManager@@3U_GUID@@B 10034758     ServerUserManager.obj
 0002:00003768       ?IID_IAsynchronismEngine@@3U_GUID@@B 10034768     ServerUserManager.obj
 0002:00003778       ?IID_IDataBase@@3U_GUID@@B 10034778     ServerUserManager.obj
 0002:00003788       ?IID_IDataBaseEngine@@3U_GUID@@B 10034788     ServerUserManager.obj
 0002:00003798       ?IID_IUDPNetworkEngine@@3U_GUID@@B 10034798     ServerUserManager.obj
 0002:000037a8       ?IID_ITCPNetworkEngine@@3U_GUID@@B 100347a8     ServerUserManager.obj
 0002:000037b8       ?IID_ITCPSocketService@@3U_GUID@@B 100347b8     ServerUserManager.obj
 0002:000037c8       ?IID_IWEBSocketService@@3U_GUID@@B 100347c8     ServerUserManager.obj
 0002:000037d8       ?IID_ITimerEngine@@3U_GUID@@B 100347d8     ServerUserManager.obj
 0002:000037e8       ?IID_IAttemperEngine@@3U_GUID@@B 100347e8     ServerUserManager.obj
 0002:000037f8       ?IID_IGameServiceManager@@3U_GUID@@B 100347f8     ServerUserManager.obj
 0002:00003808       ?IID_IServerUserItem@@3U_GUID@@B 10034808     ServerUserManager.obj
 0002:00003818       ?IID_IServerUserService@@3U_GUID@@B 10034818     ServerUserManager.obj
 0002:00003828       ?IID_IMatchUserItemSink@@3U_GUID@@B 10034828     ServerUserManager.obj
 0002:00003838       ?IID_IServerUserItemSink@@3U_GUID@@B 10034838     ServerUserManager.obj
 0002:00003848       ?IID_IServerUserManager@@3U_GUID@@B 10034848     ServerUserManager.obj
 0002:00003858       ?IID_IAndroidUserItemSink@@3U_GUID@@B 10034858     ServerUserManager.obj
 0002:00003868       ?g_szGameDataSpe@@3QBDB    10034868     ServerUserManager.obj
 0002:000071a4       ?IID_IUnknownEx@@3U_GUID@@B 100381a4     UserTaskManager.obj
 0002:000071b4       ?IID_ITraceServiceManager@@3U_GUID@@B 100381b4     UserTaskManager.obj
 0002:000071c4       ?IID_IAsynchronismEngine@@3U_GUID@@B 100381c4     UserTaskManager.obj
 0002:000071d4       ?IID_IDataBase@@3U_GUID@@B 100381d4     UserTaskManager.obj
 0002:000071e4       ?IID_IDataBaseEngine@@3U_GUID@@B 100381e4     UserTaskManager.obj
 0002:000071f4       ?IID_IUDPNetworkEngine@@3U_GUID@@B 100381f4     UserTaskManager.obj
 0002:00007204       ?IID_ITCPNetworkEngine@@3U_GUID@@B 10038204     UserTaskManager.obj
 0002:00007214       ?IID_ITCPSocketService@@3U_GUID@@B 10038214     UserTaskManager.obj
 0002:00007224       ?IID_IWEBSocketService@@3U_GUID@@B 10038224     UserTaskManager.obj
 0002:00007234       ?IID_ITimerEngine@@3U_GUID@@B 10038234     UserTaskManager.obj
 0002:00007244       ?IID_IAttemperEngine@@3U_GUID@@B 10038244     UserTaskManager.obj
 0002:00007254       ?IID_IGameServiceManager@@3U_GUID@@B 10038254     UserTaskManager.obj
 0002:00007264       ?IID_IAndroidUserItemSink@@3U_GUID@@B 10038264     UserTaskManager.obj
 0002:00007274       ?IID_IUserTaskManagerSink@@3U_GUID@@B 10038274     UserTaskManager.obj
 0002:00007be0       _GS_ExceptionPointers      10038be0     msvcrtd:gs_report.obj
 0002:00007bec       ?_RTC_ErrorMessages@@3QBQBDB 10038bec     msvcrtd:error.obj
 0002:00007c04       ?_RTC_NoFalsePositives@@3QBHB 10038c04     msvcrtd:error.obj
 0002:00007c1c       ?stack_premsg@@3QBDB       10038c1c     msvcrtd:error.obj
 0002:00007c38       ?stack_postmsg@@3QBDB      10038c38     msvcrtd:error.obj
 0002:00007c4c       ?uninit_premsg@@3QBDB      10038c4c     msvcrtd:error.obj
 0002:00007c5c       ?uninit_postmsg@@3QBDB     10038c5c     msvcrtd:error.obj
 0002:000082a0       ?_RTC_errlist@@3QBQBDB     100392a0     msvcrtd:userapi.obj
 0002:00008384       ?mspdbName@@3QB_WB         10039384     msvcrtd:pdblkup.obj
 0002:000083a8       ?debugCrtFileName@@3QB_WB  100393a8     msvcrtd:pdblkup.obj
 0002:00008538       ?dllExt@?1??GetPdbDllPathFromFilePath@@YAHPB_WPA_WI@Z@4QB_WB 10039538     msvcrtd:pdblkup.obj
 0002:00008544       ?mspdbFilename@?1??GetPdbDllPathFromFilePath@@YAHPB_WPA_WI@Z@4QB_WB 10039544     msvcrtd:pdblkup.obj
 0002:00009e44       __RTC_InitBase.rtc$IMZ     1003ae44     mfcs140d:nolib.obj
 0002:00009e48       __RTC_InitBase.rtc$IMZ     1003ae48     mfcs140d:stdafx.obj
 0002:0000a158       __RTC_Shutdown.rtc$TMZ     1003b158     mfcs140d:nolib.obj
 0002:0000a15c       __RTC_Shutdown.rtc$TMZ     1003b15c     mfcs140d:stdafx.obj
 0002:0000a368       __ehfuncinfo$??1CAndroidUserItem@@UAE@XZ 1003b368     AndroidUserItem.obj
 0002:0000a390       __catchsym$?SetGameTimer@CAndroidUserItem@@UAE_NII@Z$2 1003b390     AndroidUserItem.obj
 0002:0000a3a0       __unwindtable$?SetGameTimer@CAndroidUserItem@@UAE_NII@Z 1003b3a0     AndroidUserItem.obj
 0002:0000a3b0       __tryblocktable$?SetGameTimer@CAndroidUserItem@@UAE_NII@Z 1003b3b0     AndroidUserItem.obj
 0002:0000a3c4       __ehfuncinfo$?SetGameTimer@CAndroidUserItem@@UAE_NII@Z 1003b3c4     AndroidUserItem.obj
 0002:0000a3f0       __catchsym$?OnTimerPulse@CAndroidUserItem@@QAE_NKI@Z$3 1003b3f0     AndroidUserItem.obj
 0002:0000a400       __tryblocktable$?OnTimerPulse@CAndroidUserItem@@QAE_NKI@Z 1003b400     AndroidUserItem.obj
 0002:0000a414       __unwindtable$?OnTimerPulse@CAndroidUserItem@@QAE_NKI@Z 1003b414     AndroidUserItem.obj
 0002:0000a42c       __ehfuncinfo$?OnTimerPulse@CAndroidUserItem@@QAE_NKI@Z 1003b42c     AndroidUserItem.obj
 0002:0000a45c       __catchsym$?OnSocketGameMessage@CAndroidUserItem@@IAE_NGGPAXG@Z$3 1003b45c     AndroidUserItem.obj
 0002:0000a46c       __tryblocktable$?OnSocketGameMessage@CAndroidUserItem@@IAE_NGGPAXG@Z 1003b46c     AndroidUserItem.obj
 0002:0000a480       __unwindtable$?OnSocketGameMessage@CAndroidUserItem@@IAE_NGGPAXG@Z 1003b480     AndroidUserItem.obj
 0002:0000a498       __ehfuncinfo$?OnSocketGameMessage@CAndroidUserItem@@IAE_NGGPAXG@Z 1003b498     AndroidUserItem.obj
 0002:0000a4c8       __ehfuncinfo$??_ECAndroidUserItem@@UAEPAXI@Z 1003b4c8     AndroidUserItem.obj
 0002:0000a4f0       __unwindtable$??0?$CMap@KKPAVCAndroidUserItem@@PAV1@@@QAE@H@Z 1003b4f0     AndroidUserManager.obj
 0002:0000a4f8       __ehfuncinfo$??0?$CMap@KKPAVCAndroidUserItem@@PAV1@@@QAE@H@Z 1003b4f8     AndroidUserManager.obj
 0002:0000a520       __ehfuncinfo$??1?$CMap@KKPAVCAndroidUserItem@@PAV1@@@UAE@XZ 1003b520     AndroidUserManager.obj
 0002:0000a548       __unwindtable$??0CAndroidUserManager@@QAE@XZ 1003b548     AndroidUserManager.obj
 0002:0000a568       __ehfuncinfo$??0CAndroidUserManager@@QAE@XZ 1003b568     AndroidUserManager.obj
 0002:0000a594       __ehfuncinfo$??1CAndroidUserManager@@UAE@XZ 1003b594     AndroidUserManager.obj
 0002:0000a5bc       __catchsym$?ConcludeService@CAndroidUserManager@@UAE_NXZ$2 1003b5bc     AndroidUserManager.obj
 0002:0000a5cc       __unwindtable$?ConcludeService@CAndroidUserManager@@UAE_NXZ 1003b5cc     AndroidUserManager.obj
 0002:0000a5dc       __tryblocktable$?ConcludeService@CAndroidUserManager@@UAE_NXZ 1003b5dc     AndroidUserManager.obj
 0002:0000a5f0       __ehfuncinfo$?ConcludeService@CAndroidUserManager@@UAE_NXZ 1003b5f0     AndroidUserManager.obj
 0002:0000a61c       __catchsym$?RemoveAndroidParameter@CAndroidUserManager@@UAE_NK@Z$2 1003b61c     AndroidUserManager.obj
 0002:0000a62c       __unwindtable$?RemoveAndroidParameter@CAndroidUserManager@@UAE_NK@Z 1003b62c     AndroidUserManager.obj
 0002:0000a63c       __tryblocktable$?RemoveAndroidParameter@CAndroidUserManager@@UAE_NK@Z 1003b63c     AndroidUserManager.obj
 0002:0000a650       __ehfuncinfo$?RemoveAndroidParameter@CAndroidUserManager@@UAE_NK@Z 1003b650     AndroidUserManager.obj
 0002:0000a67c       __catchsym$?DeleteAndroidUserItem@CAndroidUserManager@@UAE_NK_N@Z$2 1003b67c     AndroidUserManager.obj
 0002:0000a68c       __unwindtable$?DeleteAndroidUserItem@CAndroidUserManager@@UAE_NK_N@Z 1003b68c     AndroidUserManager.obj
 0002:0000a69c       __tryblocktable$?DeleteAndroidUserItem@CAndroidUserManager@@UAE_NK_N@Z 1003b69c     AndroidUserManager.obj
 0002:0000a6b0       __ehfuncinfo$?DeleteAndroidUserItem@CAndroidUserManager@@UAE_NK_N@Z 1003b6b0     AndroidUserManager.obj
 0002:0000a6dc       __catchsym$?CreateAndroidUserItem@CAndroidUserManager@@UAEPAUIAndroidUserItem@@AAUtagAndroidItemConfig@@@Z$5 1003b6dc     AndroidUserManager.obj
 0002:0000a6ec       __catchsym$?CreateAndroidUserItem@CAndroidUserManager@@UAEPAUIAndroidUserItem@@AAUtagAndroidItemConfig@@@Z$4 1003b6ec     AndroidUserManager.obj
 0002:0000a6fc       __unwindtable$?CreateAndroidUserItem@CAndroidUserManager@@UAEPAUIAndroidUserItem@@AAUtagAndroidItemConfig@@@Z 1003b6fc     AndroidUserManager.obj
 0002:0000a71c       __ehfuncinfo$?CreateAndroidUserItem@CAndroidUserManager@@UAEPAUIAndroidUserItem@@AAUtagAndroidItemConfig@@@Z 1003b71c     AndroidUserManager.obj
 0002:0000a740       __tryblocktable$?CreateAndroidUserItem@CAndroidUserManager@@UAEPAUIAndroidUserItem@@AAUtagAndroidItemConfig@@@Z 1003b740     AndroidUserManager.obj
 0002:0000a778       __catchsym$?OnEventTimerPulse@CAndroidUserManager@@UAE_NKI@Z$8 1003b778     AndroidUserManager.obj
 0002:0000a788       __catchsym$?OnEventTimerPulse@CAndroidUserManager@@UAE_NKI@Z$7 1003b788     AndroidUserManager.obj
 0002:0000a798       __ehfuncinfo$?OnEventTimerPulse@CAndroidUserManager@@UAE_NKI@Z 1003b798     AndroidUserManager.obj
 0002:0000a7bc       __tryblocktable$?OnEventTimerPulse@CAndroidUserManager@@UAE_NKI@Z 1003b7bc     AndroidUserManager.obj
 0002:0000a7e4       __unwindtable$?OnEventTimerPulse@CAndroidUserManager@@UAE_NKI@Z 1003b7e4     AndroidUserManager.obj
 0002:0000a82c       __catchsym$?SendDataToClient@CAndroidUserManager@@UAE_NGGPAXG@Z$2 1003b82c     AndroidUserManager.obj
 0002:0000a83c       __unwindtable$?SendDataToClient@CAndroidUserManager@@UAE_NGGPAXG@Z 1003b83c     AndroidUserManager.obj
 0002:0000a84c       __tryblocktable$?SendDataToClient@CAndroidUserManager@@UAE_NGGPAXG@Z 1003b84c     AndroidUserManager.obj
 0002:0000a860       __ehfuncinfo$?SendDataToClient@CAndroidUserManager@@UAE_NGGPAXG@Z 1003b860     AndroidUserManager.obj
 0002:0000a88c       __catchsym$?SendDataToClient@CAndroidUserManager@@UAE_NKGGPAXG@Z$2 1003b88c     AndroidUserManager.obj
 0002:0000a89c       __unwindtable$?SendDataToClient@CAndroidUserManager@@UAE_NKGGPAXG@Z 1003b89c     AndroidUserManager.obj
 0002:0000a8ac       __tryblocktable$?SendDataToClient@CAndroidUserManager@@UAE_NKGGPAXG@Z 1003b8ac     AndroidUserManager.obj
 0002:0000a8c0       __ehfuncinfo$?SendDataToClient@CAndroidUserManager@@UAE_NKGGPAXG@Z 1003b8c0     AndroidUserManager.obj
 0002:0000a8ec       __catchsym$?SendDataToServer@CAndroidUserManager@@UAE_NKGGPAXG@Z$3 1003b8ec     AndroidUserManager.obj
 0002:0000a8fc       __tryblocktable$?SendDataToServer@CAndroidUserManager@@UAE_NKGGPAXG@Z 1003b8fc     AndroidUserManager.obj
 0002:0000a910       __unwindtable$?SendDataToServer@CAndroidUserManager@@UAE_NKGGPAXG@Z 1003b910     AndroidUserManager.obj
 0002:0000a928       __ehfuncinfo$?SendDataToServer@CAndroidUserManager@@UAE_NKGGPAXG@Z 1003b928     AndroidUserManager.obj
 0002:0000a958       __catchsym$?ActiveAndroidUserItem@CAndroidUserManager@@IAEPAVCAndroidUserItem@@AAUtagAndroidItemConfig@@@Z$6 1003b958     AndroidUserManager.obj
 0002:0000a968       __catchsym$?ActiveAndroidUserItem@CAndroidUserManager@@IAEPAVCAndroidUserItem@@AAUtagAndroidItemConfig@@@Z$5 1003b968     AndroidUserManager.obj
 0002:0000a978       __ehfuncinfo$?ActiveAndroidUserItem@CAndroidUserManager@@IAEPAVCAndroidUserItem@@AAUtagAndroidItemConfig@@@Z 1003b978     AndroidUserManager.obj
 0002:0000a99c       __tryblocktable$?ActiveAndroidUserItem@CAndroidUserManager@@IAEPAVCAndroidUserItem@@AAUtagAndroidItemConfig@@@Z 1003b99c     AndroidUserManager.obj
 0002:0000a9c4       __unwindtable$?ActiveAndroidUserItem@CAndroidUserManager@@IAEPAVCAndroidUserItem@@AAUtagAndroidItemConfig@@@Z 1003b9c4     AndroidUserManager.obj
 0002:0000a9fc       __ehfuncinfo$??_ECAndroidUserManager@@UAEPAXI@Z 1003b9fc     AndroidUserManager.obj
 0002:0000aa60       __ehfuncinfo$?_Orphan_all@_Container_base12@std@@QAEXXZ 1003ba60     GamePropertyManager.obj
 0002:0000aa88       __ehfuncinfo$??4_Iterator_base12@std@@QAEAAU01@ABU01@@Z 1003ba88     GamePropertyManager.obj
 0002:0000aab0       __ehfuncinfo$??1_Iterator_base12@std@@QAE@XZ 1003bab0     GamePropertyManager.obj
 0002:0000aad8       __ehfuncinfo$?_Adopt@_Iterator_base12@std@@QAEXPBU_Container_base12@2@@Z 1003bad8     GamePropertyManager.obj
 0002:0000ab00       __unwindtable$?SearchValidPropertyBuff@CGamePropertyManager@@SAPAUtagPropertyBuff@@KW4PROP_KIND@@@Z 1003bb00     GamePropertyManager.obj
 0002:0000ab08       __ehfuncinfo$?SearchValidPropertyBuff@CGamePropertyManager@@SAPAUtagPropertyBuff@@KW4PROP_KIND@@@Z 1003bb08     GamePropertyManager.obj
 0002:0000ab30       __ehfuncinfo$??_ECGamePropertyManager@@UAEPAXI@Z 1003bb30     GamePropertyManager.obj
 0002:0000ab58       __catchsym$?_Construct@?$_Tree_comp_alloc@V?$_Tmap_traits@KV?$vector@UtagPropertyBuff@@V?$allocator@UtagPropertyBuff@@@std@@@std@@U?$less@K@2@V?$allocator@U?$pair@$$CBKV?$vector@UtagPropertyBuff@@V?$allocator@UtagPropertyBuff@@@std@@@std@@@std@@@2@$0A@@std@@@std@@QAEXXZ$2 1003bb58     GamePropertyManager.obj
 0002:0000ab68       __unwindtable$?_Construct@?$_Tree_comp_alloc@V?$_Tmap_traits@KV?$vector@UtagPropertyBuff@@V?$allocator@UtagPropertyBuff@@@std@@@std@@U?$less@K@2@V?$allocator@U?$pair@$$CBKV?$vector@UtagPropertyBuff@@V?$allocator@UtagPropertyBuff@@@std@@@std@@@std@@@2@$0A@@std@@@std@@QAEXXZ 1003bb68     GamePropertyManager.obj
 0002:0000ab78       __tryblocktable$?_Construct@?$_Tree_comp_alloc@V?$_Tmap_traits@KV?$vector@UtagPropertyBuff@@V?$allocator@UtagPropertyBuff@@@std@@@std@@U?$less@K@2@V?$allocator@U?$pair@$$CBKV?$vector@UtagPropertyBuff@@V?$allocator@UtagPropertyBuff@@@std@@@std@@@std@@@2@$0A@@std@@@std@@QAEXXZ 1003bb78     GamePropertyManager.obj
 0002:0000ab8c       __ehfuncinfo$?_Construct@?$_Tree_comp_alloc@V?$_Tmap_traits@KV?$vector@UtagPropertyBuff@@V?$allocator@UtagPropertyBuff@@@std@@@std@@U?$less@K@2@V?$allocator@U?$pair@$$CBKV?$vector@UtagPropertyBuff@@V?$allocator@UtagPropertyBuff@@@std@@@std@@@std@@@2@$0A@@std@@@std@@QAEXXZ 1003bb8c     GamePropertyManager.obj
 0002:0000abb8       __ehfuncinfo$??1?$_Tree_comp_alloc@V?$_Tmap_traits@KV?$vector@UtagPropertyBuff@@V?$allocator@UtagPropertyBuff@@@std@@@std@@U?$less@K@2@V?$allocator@U?$pair@$$CBKV?$vector@UtagPropertyBuff@@V?$allocator@UtagPropertyBuff@@@std@@@std@@@std@@@2@$0A@@std@@@std@@QAE@XZ 1003bbb8     GamePropertyManager.obj
 0002:0000abe0       __catchsym$?_Buyheadnode@?$_Tree_comp_alloc@V?$_Tmap_traits@KV?$vector@UtagPropertyBuff@@V?$allocator@UtagPropertyBuff@@@std@@@std@@U?$less@K@2@V?$allocator@U?$pair@$$CBKV?$vector@UtagPropertyBuff@@V?$allocator@UtagPropertyBuff@@@std@@@std@@@std@@@2@$0A@@std@@@std@@QAEPAU?$_Tree_node@U?$pair@$$CBKV?$vector@UtagPropertyBuff@@V?$allocator@UtagPropertyBuff@@@std@@@std@@@std@@PAX@2@XZ$2 1003bbe0     GamePropertyManager.obj
 0002:0000abf0       __unwindtable$?_Buyheadnode@?$_Tree_comp_alloc@V?$_Tmap_traits@KV?$vector@UtagPropertyBuff@@V?$allocator@UtagPropertyBuff@@@std@@@std@@U?$less@K@2@V?$allocator@U?$pair@$$CBKV?$vector@UtagPropertyBuff@@V?$allocator@UtagPropertyBuff@@@std@@@std@@@std@@@2@$0A@@std@@@std@@QAEPAU?$_Tree_node@U?$pair@$$CBKV?$vector@UtagPropertyBuff@@V?$allocator@UtagPropertyBuff@@@std@@@std@@@std@@PAX@2@XZ 1003bbf0     GamePropertyManager.obj
 0002:0000ac00       __tryblocktable$?_Buyheadnode@?$_Tree_comp_alloc@V?$_Tmap_traits@KV?$vector@UtagPropertyBuff@@V?$allocator@UtagPropertyBuff@@@std@@@std@@U?$less@K@2@V?$allocator@U?$pair@$$CBKV?$vector@UtagPropertyBuff@@V?$allocator@UtagPropertyBuff@@@std@@@std@@@std@@@2@$0A@@std@@@std@@QAEPAU?$_Tree_node@U?$pair@$$CBKV?$vector@UtagPropertyBuff@@V?$allocator@UtagPropertyBuff@@@std@@@std@@@std@@PAX@2@XZ 1003bc00     GamePropertyManager.obj
 0002:0000ac14       __ehfuncinfo$?_Buyheadnode@?$_Tree_comp_alloc@V?$_Tmap_traits@KV?$vector@UtagPropertyBuff@@V?$allocator@UtagPropertyBuff@@@std@@@std@@U?$less@K@2@V?$allocator@U?$pair@$$CBKV?$vector@UtagPropertyBuff@@V?$allocator@UtagPropertyBuff@@@std@@@std@@@std@@@2@$0A@@std@@@std@@QAEPAU?$_Tree_node@U?$pair@$$CBKV?$vector@UtagPropertyBuff@@V?$allocator@UtagPropertyBuff@@@std@@@std@@@std@@PAX@2@XZ 1003bc14     GamePropertyManager.obj
 0002:0000ac40       __catchsym$?_Buynode0@?$_Tree_comp_alloc@V?$_Tmap_traits@KV?$vector@UtagPropertyBuff@@V?$allocator@UtagPropertyBuff@@@std@@@std@@U?$less@K@2@V?$allocator@U?$pair@$$CBKV?$vector@UtagPropertyBuff@@V?$allocator@UtagPropertyBuff@@@std@@@std@@@std@@@2@$0A@@std@@@std@@QAEPAU?$_Tree_node@U?$pair@$$CBKV?$vector@UtagPropertyBuff@@V?$allocator@UtagPropertyBuff@@@std@@@std@@@std@@PAX@2@XZ$2 1003bc40     GamePropertyManager.obj
 0002:0000ac50       __unwindtable$?_Buynode0@?$_Tree_comp_alloc@V?$_Tmap_traits@KV?$vector@UtagPropertyBuff@@V?$allocator@UtagPropertyBuff@@@std@@@std@@U?$less@K@2@V?$allocator@U?$pair@$$CBKV?$vector@UtagPropertyBuff@@V?$allocator@UtagPropertyBuff@@@std@@@std@@@std@@@2@$0A@@std@@@std@@QAEPAU?$_Tree_node@U?$pair@$$CBKV?$vector@UtagPropertyBuff@@V?$allocator@UtagPropertyBuff@@@std@@@std@@@std@@PAX@2@XZ 1003bc50     GamePropertyManager.obj
 0002:0000ac60       __tryblocktable$?_Buynode0@?$_Tree_comp_alloc@V?$_Tmap_traits@KV?$vector@UtagPropertyBuff@@V?$allocator@UtagPropertyBuff@@@std@@@std@@U?$less@K@2@V?$allocator@U?$pair@$$CBKV?$vector@UtagPropertyBuff@@V?$allocator@UtagPropertyBuff@@@std@@@std@@@std@@@2@$0A@@std@@@std@@QAEPAU?$_Tree_node@U?$pair@$$CBKV?$vector@UtagPropertyBuff@@V?$allocator@UtagPropertyBuff@@@std@@@std@@@std@@PAX@2@XZ 1003bc60     GamePropertyManager.obj
 0002:0000ac74       __ehfuncinfo$?_Buynode0@?$_Tree_comp_alloc@V?$_Tmap_traits@KV?$vector@UtagPropertyBuff@@V?$allocator@UtagPropertyBuff@@@std@@@std@@U?$less@K@2@V?$allocator@U?$pair@$$CBKV?$vector@UtagPropertyBuff@@V?$allocator@UtagPropertyBuff@@@std@@@std@@@std@@@2@$0A@@std@@@std@@QAEPAU?$_Tree_node@U?$pair@$$CBKV?$vector@UtagPropertyBuff@@V?$allocator@UtagPropertyBuff@@@std@@@std@@@std@@PAX@2@XZ 1003bc74     GamePropertyManager.obj
 0002:0000aca0       __unwindtable$?_Extract@?$_Tree_val@U?$_Tree_simple_types@U?$pair@$$CBKV?$vector@UtagPropertyBuff@@V?$allocator@UtagPropertyBuff@@@std@@@std@@@std@@@std@@@std@@QAEPAU?$_Tree_node@U?$pair@$$CBKV?$vector@UtagPropertyBuff@@V?$allocator@UtagPropertyBuff@@@std@@@std@@@std@@PAX@2@V?$_Tree_const_iterator@V?$_Tree_val@U?$_Tree_simple_types@U?$pair@$$CBKV?$vector@UtagPropertyBuff@@V?$allocator@UtagPropertyBuff@@@std@@@std@@@std@@@std@@@std@@@2@@Z 1003bca0     GamePropertyManager.obj
 0002:0000aca8       __ehfuncinfo$?_Extract@?$_Tree_val@U?$_Tree_simple_types@U?$pair@$$CBKV?$vector@UtagPropertyBuff@@V?$allocator@UtagPropertyBuff@@@std@@@std@@@std@@@std@@@std@@QAEPAU?$_Tree_node@U?$pair@$$CBKV?$vector@UtagPropertyBuff@@V?$allocator@UtagPropertyBuff@@@std@@@std@@@std@@PAX@2@V?$_Tree_const_iterator@V?$_Tree_val@U?$_Tree_simple_types@U?$pair@$$CBKV?$vector@UtagPropertyBuff@@V?$allocator@UtagPropertyBuff@@@std@@@std@@@std@@@std@@@std@@@2@@Z 1003bca8     GamePropertyManager.obj
 0002:0000acd0       __ehfuncinfo$??1?$_Tree@V?$_Tmap_traits@KV?$vector@UtagPropertyBuff@@V?$allocator@UtagPropertyBuff@@@std@@@std@@U?$less@K@2@V?$allocator@U?$pair@$$CBKV?$vector@UtagPropertyBuff@@V?$allocator@UtagPropertyBuff@@@std@@@std@@@std@@@2@$0A@@std@@@std@@QAE@XZ 1003bcd0     GamePropertyManager.obj
 0002:0000acf8       __ehfuncinfo$?begin@?$_Tree@V?$_Tmap_traits@KV?$vector@UtagPropertyBuff@@V?$allocator@UtagPropertyBuff@@@std@@@std@@U?$less@K@2@V?$allocator@U?$pair@$$CBKV?$vector@UtagPropertyBuff@@V?$allocator@UtagPropertyBuff@@@std@@@std@@@std@@@2@$0A@@std@@@std@@QAE?AV?$_Tree_iterator@V?$_Tree_val@U?$_Tree_simple_types@U?$pair@$$CBKV?$vector@UtagPropertyBuff@@V?$allocator@UtagPropertyBuff@@@std@@@std@@@std@@@std@@@std@@@2@XZ 1003bcf8     GamePropertyManager.obj
 0002:0000ad20       __ehfuncinfo$?end@?$_Tree@V?$_Tmap_traits@KV?$vector@UtagPropertyBuff@@V?$allocator@UtagPropertyBuff@@@std@@@std@@U?$less@K@2@V?$allocator@U?$pair@$$CBKV?$vector@UtagPropertyBuff@@V?$allocator@UtagPropertyBuff@@@std@@@std@@@std@@@2@$0A@@std@@@std@@QAE?AV?$_Tree_iterator@V?$_Tree_val@U?$_Tree_simple_types@U?$pair@$$CBKV?$vector@UtagPropertyBuff@@V?$allocator@UtagPropertyBuff@@@std@@@std@@@std@@@std@@@std@@@2@XZ 1003bd20     GamePropertyManager.obj
 0002:0000ad48       __unwindtable$?erase@?$_Tree@V?$_Tmap_traits@KV?$vector@UtagPropertyBuff@@V?$allocator@UtagPropertyBuff@@@std@@@std@@U?$less@K@2@V?$allocator@U?$pair@$$CBKV?$vector@UtagPropertyBuff@@V?$allocator@UtagPropertyBuff@@@std@@@std@@@std@@@2@$0A@@std@@@std@@QAE?AV?$_Tree_iterator@V?$_Tree_val@U?$_Tree_simple_types@U?$pair@$$CBKV?$vector@UtagPropertyBuff@@V?$allocator@UtagPropertyBuff@@@std@@@std@@@std@@@std@@@std@@@2@V?$_Tree_const_iterator@V?$_Tree_val@U?$_Tree_simple_types@U?$pair@$$CBKV?$vector@UtagPropertyBuff@@V?$allocator@UtagPropertyBuff@@@std@@@std@@@std@@@std@@@std@@@2@@Z 1003bd48     GamePropertyManager.obj
 0002:0000ad58       __ehfuncinfo$?erase@?$_Tree@V?$_Tmap_traits@KV?$vector@UtagPropertyBuff@@V?$allocator@UtagPropertyBuff@@@std@@@std@@U?$less@K@2@V?$allocator@U?$pair@$$CBKV?$vector@UtagPropertyBuff@@V?$allocator@UtagPropertyBuff@@@std@@@std@@@std@@@2@$0A@@std@@@std@@QAE?AV?$_Tree_iterator@V?$_Tree_val@U?$_Tree_simple_types@U?$pair@$$CBKV?$vector@UtagPropertyBuff@@V?$allocator@UtagPropertyBuff@@@std@@@std@@@std@@@std@@@std@@@2@V?$_Tree_const_iterator@V?$_Tree_val@U?$_Tree_simple_types@U?$pair@$$CBKV?$vector@UtagPropertyBuff@@V?$allocator@UtagPropertyBuff@@@std@@@std@@@std@@@std@@@std@@@2@@Z 1003bd58     GamePropertyManager.obj
 0002:0000ad84       __unwindtable$?erase@?$_Tree@V?$_Tmap_traits@KV?$vector@UtagPropertyBuff@@V?$allocator@UtagPropertyBuff@@@std@@@std@@U?$less@K@2@V?$allocator@U?$pair@$$CBKV?$vector@UtagPropertyBuff@@V?$allocator@UtagPropertyBuff@@@std@@@std@@@std@@@2@$0A@@std@@@std@@QAE?AV?$_Tree_iterator@V?$_Tree_val@U?$_Tree_simple_types@U?$pair@$$CBKV?$vector@UtagPropertyBuff@@V?$allocator@UtagPropertyBuff@@@std@@@std@@@std@@@std@@@std@@@2@V?$_Tree_const_iterator@V?$_Tree_val@U?$_Tree_simple_types@U?$pair@$$CBKV?$vector@UtagPropertyBuff@@V?$allocator@UtagPropertyBuff@@@std@@@std@@@std@@@std@@@std@@@2@0@Z 1003bd84     GamePropertyManager.obj
 0002:0000ada4       __ehfuncinfo$?erase@?$_Tree@V?$_Tmap_traits@KV?$vector@UtagPropertyBuff@@V?$allocator@UtagPropertyBuff@@@std@@@std@@U?$less@K@2@V?$allocator@U?$pair@$$CBKV?$vector@UtagPropertyBuff@@V?$allocator@UtagPropertyBuff@@@std@@@std@@@std@@@2@$0A@@std@@@std@@QAE?AV?$_Tree_iterator@V?$_Tree_val@U?$_Tree_simple_types@U?$pair@$$CBKV?$vector@UtagPropertyBuff@@V?$allocator@UtagPropertyBuff@@@std@@@std@@@std@@@std@@@std@@@2@V?$_Tree_const_iterator@V?$_Tree_val@U?$_Tree_simple_types@U?$pair@$$CBKV?$vector@UtagPropertyBuff@@V?$allocator@UtagPropertyBuff@@@std@@@std@@@std@@@std@@@std@@@2@0@Z 1003bda4     GamePropertyManager.obj
 0002:0000add0       __ehfuncinfo$?clear@?$_Tree@V?$_Tmap_traits@KV?$vector@UtagPropertyBuff@@V?$allocator@UtagPropertyBuff@@@std@@@std@@U?$less@K@2@V?$allocator@U?$pair@$$CBKV?$vector@UtagPropertyBuff@@V?$allocator@UtagPropertyBuff@@@std@@@std@@@std@@@2@$0A@@std@@@std@@QAEXXZ 1003bdd0     GamePropertyManager.obj
 0002:0000adf8       __unwindtable$?_Orphan_ptr@?$_Tree@V?$_Tmap_traits@KV?$vector@UtagPropertyBuff@@V?$allocator@UtagPropertyBuff@@@std@@@std@@U?$less@K@2@V?$allocator@U?$pair@$$CBKV?$vector@UtagPropertyBuff@@V?$allocator@UtagPropertyBuff@@@std@@@std@@@std@@@2@$0A@@std@@@std@@IAEXPAU?$_Tree_node@U?$pair@$$CBKV?$vector@UtagPropertyBuff@@V?$allocator@UtagPropertyBuff@@@std@@@std@@@std@@PAX@2@@Z 1003bdf8     GamePropertyManager.obj
 0002:0000ae00       __ehfuncinfo$?_Orphan_ptr@?$_Tree@V?$_Tmap_traits@KV?$vector@UtagPropertyBuff@@V?$allocator@UtagPropertyBuff@@@std@@@std@@U?$less@K@2@V?$allocator@U?$pair@$$CBKV?$vector@UtagPropertyBuff@@V?$allocator@UtagPropertyBuff@@@std@@@std@@@std@@@2@$0A@@std@@@std@@IAEXPAU?$_Tree_node@U?$pair@$$CBKV?$vector@UtagPropertyBuff@@V?$allocator@UtagPropertyBuff@@@std@@@std@@@std@@PAX@2@@Z 1003be00     GamePropertyManager.obj
 0002:0000ae28       __unwindtable$?_Tidy@?$_Tree@V?$_Tmap_traits@KV?$vector@UtagPropertyBuff@@V?$allocator@UtagPropertyBuff@@@std@@@std@@U?$less@K@2@V?$allocator@U?$pair@$$CBKV?$vector@UtagPropertyBuff@@V?$allocator@UtagPropertyBuff@@@std@@@std@@@std@@@2@$0A@@std@@@std@@IAEXXZ 1003be28     GamePropertyManager.obj
 0002:0000ae38       __ehfuncinfo$?_Tidy@?$_Tree@V?$_Tmap_traits@KV?$vector@UtagPropertyBuff@@V?$allocator@UtagPropertyBuff@@@std@@@std@@U?$less@K@2@V?$allocator@U?$pair@$$CBKV?$vector@UtagPropertyBuff@@V?$allocator@UtagPropertyBuff@@@std@@@std@@@std@@@2@$0A@@std@@@std@@IAEXXZ 1003be38     GamePropertyManager.obj
 0002:0000ae64       __unwindtable$??A?$map@KV?$vector@UtagPropertyBuff@@V?$allocator@UtagPropertyBuff@@@std@@@std@@U?$less@K@2@V?$allocator@U?$pair@$$CBKV?$vector@UtagPropertyBuff@@V?$allocator@UtagPropertyBuff@@@std@@@std@@@std@@@2@@std@@QAEAAV?$vector@UtagPropertyBuff@@V?$allocator@UtagPropertyBuff@@@std@@@1@ABK@Z 1003be64     GamePropertyManager.obj
 0002:0000ae6c       __ehfuncinfo$??A?$map@KV?$vector@UtagPropertyBuff@@V?$allocator@UtagPropertyBuff@@@std@@@std@@U?$less@K@2@V?$allocator@U?$pair@$$CBKV?$vector@UtagPropertyBuff@@V?$allocator@UtagPropertyBuff@@@std@@@std@@@std@@@2@@std@@QAEAAV?$vector@UtagPropertyBuff@@V?$allocator@UtagPropertyBuff@@@std@@@1@ABK@Z 1003be6c     GamePropertyManager.obj
 0002:0000ae94       __ehfuncinfo$??1?$_Vector_alloc@U?$_Vec_base_types@UtagPropertyBuff@@V?$allocator@UtagPropertyBuff@@@std@@@std@@@std@@QAE@XZ 1003be94     GamePropertyManager.obj
 0002:0000aebc       __ehfuncinfo$??0?$vector@UtagPropertyBuff@@V?$allocator@UtagPropertyBuff@@@std@@@std@@QAE@XZ 1003bebc     GamePropertyManager.obj
 0002:0000aee4       __catchsym$??0?$vector@UtagPropertyBuff@@V?$allocator@UtagPropertyBuff@@@std@@@std@@QAE@ABV01@@Z$3 1003bee4     GamePropertyManager.obj
 0002:0000aef4       __tryblocktable$??0?$vector@UtagPropertyBuff@@V?$allocator@UtagPropertyBuff@@@std@@@std@@QAE@ABV01@@Z 1003bef4     GamePropertyManager.obj
 0002:0000af08       __unwindtable$??0?$vector@UtagPropertyBuff@@V?$allocator@UtagPropertyBuff@@@std@@@std@@QAE@ABV01@@Z 1003bf08     GamePropertyManager.obj
 0002:0000af20       __ehfuncinfo$??0?$vector@UtagPropertyBuff@@V?$allocator@UtagPropertyBuff@@@std@@@std@@QAE@ABV01@@Z 1003bf20     GamePropertyManager.obj
 0002:0000af50       __ehfuncinfo$??1?$vector@UtagPropertyBuff@@V?$allocator@UtagPropertyBuff@@@std@@@std@@QAE@XZ 1003bf50     GamePropertyManager.obj
 0002:0000af78       __ehfuncinfo$?clear@?$vector@UtagPropertyBuff@@V?$allocator@UtagPropertyBuff@@@std@@@std@@QAEXXZ 1003bf78     GamePropertyManager.obj
 0002:0000afa0       __unwindtable$?_Orphan_range@?$vector@UtagPropertyBuff@@V?$allocator@UtagPropertyBuff@@@std@@@std@@ABEXPAUtagPropertyBuff@@0@Z 1003bfa0     GamePropertyManager.obj
 0002:0000afa8       __ehfuncinfo$?_Orphan_range@?$vector@UtagPropertyBuff@@V?$allocator@UtagPropertyBuff@@@std@@@std@@ABEXPAUtagPropertyBuff@@0@Z 1003bfa8     GamePropertyManager.obj
 0002:0000afd0       __unwindtable$??E?$_Tree_const_iterator@V?$_Tree_val@U?$_Tree_simple_types@U?$pair@$$CBKV?$vector@UtagPropertyBuff@@V?$allocator@UtagPropertyBuff@@@std@@@std@@@std@@@std@@@std@@@std@@QAE?AV01@H@Z 1003bfd0     GamePropertyManager.obj
 0002:0000afd8       __ehfuncinfo$??E?$_Tree_const_iterator@V?$_Tree_val@U?$_Tree_simple_types@U?$pair@$$CBKV?$vector@UtagPropertyBuff@@V?$allocator@UtagPropertyBuff@@@std@@@std@@@std@@@std@@@std@@@std@@QAE?AV01@H@Z 1003bfd8     GamePropertyManager.obj
 0002:0000b000       __catchsym$??$_Emplace_reallocate@ABUtagPropertyBuff@@@?$vector@UtagPropertyBuff@@V?$allocator@UtagPropertyBuff@@@std@@@std@@QAEPAUtagPropertyBuff@@QAU2@ABU2@@Z$2 1003c000     GamePropertyManager.obj
 0002:0000b010       __unwindtable$??$_Emplace_reallocate@ABUtagPropertyBuff@@@?$vector@UtagPropertyBuff@@V?$allocator@UtagPropertyBuff@@@std@@@std@@QAEPAUtagPropertyBuff@@QAU2@ABU2@@Z 1003c010     GamePropertyManager.obj
 0002:0000b020       __tryblocktable$??$_Emplace_reallocate@ABUtagPropertyBuff@@@?$vector@UtagPropertyBuff@@V?$allocator@UtagPropertyBuff@@@std@@@std@@QAEPAUtagPropertyBuff@@QAU2@ABU2@@Z 1003c020     GamePropertyManager.obj
 0002:0000b034       __ehfuncinfo$??$_Emplace_reallocate@ABUtagPropertyBuff@@@?$vector@UtagPropertyBuff@@V?$allocator@UtagPropertyBuff@@@std@@@std@@QAEPAUtagPropertyBuff@@QAU2@ABU2@@Z 1003c034     GamePropertyManager.obj
 0002:0000b060       __ehfuncinfo$??$_Freenode0@V?$allocator@U?$_Tree_node@U?$pair@$$CBKV?$vector@UtagPropertyBuff@@V?$allocator@UtagPropertyBuff@@@std@@@std@@@std@@PAX@std@@@std@@@?$_Tree_node@U?$pair@$$CBKV?$vector@UtagPropertyBuff@@V?$allocator@UtagPropertyBuff@@@std@@@std@@@std@@PAX@std@@SAXAAV?$allocator@U?$_Tree_node@U?$pair@$$CBKV?$vector@UtagPropertyBuff@@V?$allocator@UtagPropertyBuff@@@std@@@std@@@std@@PAX@std@@@1@PAU01@@Z 1003c060     GamePropertyManager.obj
 0002:0000b088       __unwindtable$??$_Try_emplace@ABK$$V@?$map@KV?$vector@UtagPropertyBuff@@V?$allocator@UtagPropertyBuff@@@std@@@std@@U?$less@K@2@V?$allocator@U?$pair@$$CBKV?$vector@UtagPropertyBuff@@V?$allocator@UtagPropertyBuff@@@std@@@std@@@std@@@2@@std@@QAE?AU?$pair@V?$_Tree_iterator@V?$_Tree_val@U?$_Tree_simple_types@U?$pair@$$CBKV?$vector@UtagPropertyBuff@@V?$allocator@UtagPropertyBuff@@@std@@@std@@@std@@@std@@@std@@@std@@_N@1@ABK@Z 1003c088     GamePropertyManager.obj
 0002:0000b098       __ehfuncinfo$??$_Try_emplace@ABK$$V@?$map@KV?$vector@UtagPropertyBuff@@V?$allocator@UtagPropertyBuff@@@std@@@std@@U?$less@K@2@V?$allocator@U?$pair@$$CBKV?$vector@UtagPropertyBuff@@V?$allocator@UtagPropertyBuff@@@std@@@std@@@std@@@2@@std@@QAE?AU?$pair@V?$_Tree_iterator@V?$_Tree_val@U?$_Tree_simple_types@U?$pair@$$CBKV?$vector@UtagPropertyBuff@@V?$allocator@UtagPropertyBuff@@@std@@@std@@@std@@@std@@@std@@@std@@_N@1@ABK@Z 1003c098     GamePropertyManager.obj
 0002:0000b0c4       __unwindtable$??$emplace_hint@ABUpiecewise_construct_t@std@@V?$tuple@ABK@2@V?$tuple@$$V@2@@?$_Tree@V?$_Tmap_traits@KV?$vector@UtagPropertyBuff@@V?$allocator@UtagPropertyBuff@@@std@@@std@@U?$less@K@2@V?$allocator@U?$pair@$$CBKV?$vector@UtagPropertyBuff@@V?$allocator@UtagPropertyBuff@@@std@@@std@@@std@@@2@$0A@@std@@@std@@QAE?AV?$_Tree_iterator@V?$_Tree_val@U?$_Tree_simple_types@U?$pair@$$CBKV?$vector@UtagPropertyBuff@@V?$allocator@UtagPropertyBuff@@@std@@@std@@@std@@@std@@@std@@@1@V?$_Tree_const_iterator@V?$_Tree_val@U?$_Tree_simple_types@U?$pair@$$CBKV?$vector@UtagPropertyBuff@@V?$allocator@UtagPropertyBuff@@@std@@@std@@@std@@@std@@@std@@@1@ABUpiecewise_construct_t@1@$$QAV?$tuple@ABK@1@$$QAV?$tuple@$$V@1@@Z 1003c0c4     GamePropertyManager.obj
 0002:0000b0cc       __ehfuncinfo$??$emplace_hint@ABUpiecewise_construct_t@std@@V?$tuple@ABK@2@V?$tuple@$$V@2@@?$_Tree@V?$_Tmap_traits@KV?$vector@UtagPropertyBuff@@V?$allocator@UtagPropertyBuff@@@std@@@std@@U?$less@K@2@V?$allocator@U?$pair@$$CBKV?$vector@UtagPropertyBuff@@V?$allocator@UtagPropertyBuff@@@std@@@std@@@std@@@2@$0A@@std@@@std@@QAE?AV?$_Tree_iterator@V?$_Tree_val@U?$_Tree_simple_types@U?$pair@$$CBKV?$vector@UtagPropertyBuff@@V?$allocator@UtagPropertyBuff@@@std@@@std@@@std@@@std@@@std@@@1@V?$_Tree_const_iterator@V?$_Tree_val@U?$_Tree_simple_types@U?$pair@$$CBKV?$vector@UtagPropertyBuff@@V?$allocator@UtagPropertyBuff@@@std@@@std@@@std@@@std@@@std@@@1@ABUpiecewise_construct_t@1@$$QAV?$tuple@ABK@1@$$QAV?$tuple@$$V@1@@Z 1003c0cc     GamePropertyManager.obj
 0002:0000b0f4       __ehfuncinfo$??$?0ABK$0A@@?$tuple@ABK@std@@QAE@ABK@Z 1003c0f4     GamePropertyManager.obj
 0002:0000b11c       __catchsym$??$_Buynode@ABUpiecewise_construct_t@std@@V?$tuple@ABK@2@V?$tuple@$$V@2@@?$_Tree_comp_alloc@V?$_Tmap_traits@KV?$vector@UtagPropertyBuff@@V?$allocator@UtagPropertyBuff@@@std@@@std@@U?$less@K@2@V?$allocator@U?$pair@$$CBKV?$vector@UtagPropertyBuff@@V?$allocator@UtagPropertyBuff@@@std@@@std@@@std@@@2@$0A@@std@@@std@@QAEPAU?$_Tree_node@U?$pair@$$CBKV?$vector@UtagPropertyBuff@@V?$allocator@UtagPropertyBuff@@@std@@@std@@@std@@PAX@1@ABUpiecewise_construct_t@1@$$QAV?$tuple@ABK@1@$$QAV?$tuple@$$V@1@@Z$2 1003c11c     GamePropertyManager.obj
 0002:0000b12c       __unwindtable$??$_Buynode@ABUpiecewise_construct_t@std@@V?$tuple@ABK@2@V?$tuple@$$V@2@@?$_Tree_comp_alloc@V?$_Tmap_traits@KV?$vector@UtagPropertyBuff@@V?$allocator@UtagPropertyBuff@@@std@@@std@@U?$less@K@2@V?$allocator@U?$pair@$$CBKV?$vector@UtagPropertyBuff@@V?$allocator@UtagPropertyBuff@@@std@@@std@@@std@@@2@$0A@@std@@@std@@QAEPAU?$_Tree_node@U?$pair@$$CBKV?$vector@UtagPropertyBuff@@V?$allocator@UtagPropertyBuff@@@std@@@std@@@std@@PAX@1@ABUpiecewise_construct_t@1@$$QAV?$tuple@ABK@1@$$QAV?$tuple@$$V@1@@Z 1003c12c     GamePropertyManager.obj
 0002:0000b13c       __tryblocktable$??$_Buynode@ABUpiecewise_construct_t@std@@V?$tuple@ABK@2@V?$tuple@$$V@2@@?$_Tree_comp_alloc@V?$_Tmap_traits@KV?$vector@UtagPropertyBuff@@V?$allocator@UtagPropertyBuff@@@std@@@std@@U?$less@K@2@V?$allocator@U?$pair@$$CBKV?$vector@UtagPropertyBuff@@V?$allocator@UtagPropertyBuff@@@std@@@std@@@std@@@2@$0A@@std@@@std@@QAEPAU?$_Tree_node@U?$pair@$$CBKV?$vector@UtagPropertyBuff@@V?$allocator@UtagPropertyBuff@@@std@@@std@@@std@@PAX@1@ABUpiecewise_construct_t@1@$$QAV?$tuple@ABK@1@$$QAV?$tuple@$$V@1@@Z 1003c13c     GamePropertyManager.obj
 0002:0000b150       __ehfuncinfo$??$_Buynode@ABUpiecewise_construct_t@std@@V?$tuple@ABK@2@V?$tuple@$$V@2@@?$_Tree_comp_alloc@V?$_Tmap_traits@KV?$vector@UtagPropertyBuff@@V?$allocator@UtagPropertyBuff@@@std@@@std@@U?$less@K@2@V?$allocator@U?$pair@$$CBKV?$vector@UtagPropertyBuff@@V?$allocator@UtagPropertyBuff@@@std@@@std@@@std@@@2@$0A@@std@@@std@@QAEPAU?$_Tree_node@U?$pair@$$CBKV?$vector@UtagPropertyBuff@@V?$allocator@UtagPropertyBuff@@@std@@@std@@@std@@PAX@1@ABUpiecewise_construct_t@1@$$QAV?$tuple@ABK@1@$$QAV?$tuple@$$V@1@@Z 1003c150     GamePropertyManager.obj
 0002:0000b17c       __catchsym$??$_Insert_hint@AAU?$pair@$$CBKV?$vector@UtagPropertyBuff@@V?$allocator@UtagPropertyBuff@@@std@@@std@@@std@@PAU?$_Tree_node@U?$pair@$$CBKV?$vector@UtagPropertyBuff@@V?$allocator@UtagPropertyBuff@@@std@@@std@@@std@@PAX@2@@?$_Tree@V?$_Tmap_traits@KV?$vector@UtagPropertyBuff@@V?$allocator@UtagPropertyBuff@@@std@@@std@@U?$less@K@2@V?$allocator@U?$pair@$$CBKV?$vector@UtagPropertyBuff@@V?$allocator@UtagPropertyBuff@@@std@@@std@@@std@@@2@$0A@@std@@@std@@IAE?AV?$_Tree_iterator@V?$_Tree_val@U?$_Tree_simple_types@U?$pair@$$CBKV?$vector@UtagPropertyBuff@@V?$allocator@UtagPropertyBuff@@@std@@@std@@@std@@@std@@@std@@@1@V?$_Tree_const_iterator@V?$_Tree_val@U?$_Tree_simple_types@U?$pair@$$CBKV?$vector@UtagPropertyBuff@@V?$allocator@UtagPropertyBuff@@@std@@@std@@@std@@@std@@@std@@@1@AAU?$pair@$$CBKV?$vector@UtagPropertyBuff@@V?$allocator@UtagPropertyBuff@@@std@@@std@@@1@PAU?$_Tree_node@U?$pair@$$CBKV?$vector@UtagPropertyBuff@@V?$allocator@UtagPropertyBuff@@@std@@@std@@@std@@PAX@1@@Z$12 1003c17c     GamePropertyManager.obj
 0002:0000b18c       __tryblocktable$??$_Insert_hint@AAU?$pair@$$CBKV?$vector@UtagPropertyBuff@@V?$allocator@UtagPropertyBuff@@@std@@@std@@@std@@PAU?$_Tree_node@U?$pair@$$CBKV?$vector@UtagPropertyBuff@@V?$allocator@UtagPropertyBuff@@@std@@@std@@@std@@PAX@2@@?$_Tree@V?$_Tmap_traits@KV?$vector@UtagPropertyBuff@@V?$allocator@UtagPropertyBuff@@@std@@@std@@U?$less@K@2@V?$allocator@U?$pair@$$CBKV?$vector@UtagPropertyBuff@@V?$allocator@UtagPropertyBuff@@@std@@@std@@@std@@@2@$0A@@std@@@std@@IAE?AV?$_Tree_iterator@V?$_Tree_val@U?$_Tree_simple_types@U?$pair@$$CBKV?$vector@UtagPropertyBuff@@V?$allocator@UtagPropertyBuff@@@std@@@std@@@std@@@std@@@std@@@1@V?$_Tree_const_iterator@V?$_Tree_val@U?$_Tree_simple_types@U?$pair@$$CBKV?$vector@UtagPropertyBuff@@V?$allocator@UtagPropertyBuff@@@std@@@std@@@std@@@std@@@std@@@1@AAU?$pair@$$CBKV?$vector@UtagPropertyBuff@@V?$allocator@UtagPropertyBuff@@@std@@@std@@@1@PAU?$_Tree_node@U?$pair@$$CBKV?$vector@UtagPropertyBuff@@V?$allocator@UtagPropertyBuff@@@std@@@std@@@std@@PAX@1@@Z 1003c18c     GamePropertyManager.obj
 0002:0000b1a0       __ehfuncinfo$??$_Insert_hint@AAU?$pair@$$CBKV?$vector@UtagPropertyBuff@@V?$allocator@UtagPropertyBuff@@@std@@@std@@@std@@PAU?$_Tree_node@U?$pair@$$CBKV?$vector@UtagPropertyBuff@@V?$allocator@UtagPropertyBuff@@@std@@@std@@@std@@PAX@2@@?$_Tree@V?$_Tmap_traits@KV?$vector@UtagPropertyBuff@@V?$allocator@UtagPropertyBuff@@@std@@@std@@U?$less@K@2@V?$allocator@U?$pair@$$CBKV?$vector@UtagPropertyBuff@@V?$allocator@UtagPropertyBuff@@@std@@@std@@@std@@@2@$0A@@std@@@std@@IAE?AV?$_Tree_iterator@V?$_Tree_val@U?$_Tree_simple_types@U?$pair@$$CBKV?$vector@UtagPropertyBuff@@V?$allocator@UtagPropertyBuff@@@std@@@std@@@std@@@std@@@std@@@1@V?$_Tree_const_iterator@V?$_Tree_val@U?$_Tree_simple_types@U?$pair@$$CBKV?$vector@UtagPropertyBuff@@V?$allocator@UtagPropertyBuff@@@std@@@std@@@std@@@std@@@std@@@1@AAU?$pair@$$CBKV?$vector@UtagPropertyBuff@@V?$allocator@UtagPropertyBuff@@@std@@@std@@@1@PAU?$_Tree_node@U?$pair@$$CBKV?$vector@UtagPropertyBuff@@V?$allocator@UtagPropertyBuff@@@std@@@std@@@std@@PAX@1@@Z 1003c1a0     GamePropertyManager.obj
 0002:0000b1c4       __unwindtable$??$_Insert_hint@AAU?$pair@$$CBKV?$vector@UtagPropertyBuff@@V?$allocator@UtagPropertyBuff@@@std@@@std@@@std@@PAU?$_Tree_node@U?$pair@$$CBKV?$vector@UtagPropertyBuff@@V?$allocator@UtagPropertyBuff@@@std@@@std@@@std@@PAX@2@@?$_Tree@V?$_Tmap_traits@KV?$vector@UtagPropertyBuff@@V?$allocator@UtagPropertyBuff@@@std@@@std@@U?$less@K@2@V?$allocator@U?$pair@$$CBKV?$vector@UtagPropertyBuff@@V?$allocator@UtagPropertyBuff@@@std@@@std@@@std@@@2@$0A@@std@@@std@@IAE?AV?$_Tree_iterator@V?$_Tree_val@U?$_Tree_simple_types@U?$pair@$$CBKV?$vector@UtagPropertyBuff@@V?$allocator@UtagPropertyBuff@@@std@@@std@@@std@@@std@@@std@@@1@V?$_Tree_const_iterator@V?$_Tree_val@U?$_Tree_simple_types@U?$pair@$$CBKV?$vector@UtagPropertyBuff@@V?$allocator@UtagPropertyBuff@@@std@@@std@@@std@@@std@@@std@@@1@AAU?$pair@$$CBKV?$vector@UtagPropertyBuff@@V?$allocator@UtagPropertyBuff@@@std@@@std@@@1@PAU?$_Tree_node@U?$pair@$$CBKV?$vector@UtagPropertyBuff@@V?$allocator@UtagPropertyBuff@@@std@@@std@@@std@@PAX@1@@Z 1003c1c4     GamePropertyManager.obj
 0002:0000b224       __catchsym$??$_Insert_nohint@AAU?$pair@$$CBKV?$vector@UtagPropertyBuff@@V?$allocator@UtagPropertyBuff@@@std@@@std@@@std@@PAU?$_Tree_node@U?$pair@$$CBKV?$vector@UtagPropertyBuff@@V?$allocator@UtagPropertyBuff@@@std@@@std@@@std@@PAX@2@@?$_Tree@V?$_Tmap_traits@KV?$vector@UtagPropertyBuff@@V?$allocator@UtagPropertyBuff@@@std@@@std@@U?$less@K@2@V?$allocator@U?$pair@$$CBKV?$vector@UtagPropertyBuff@@V?$allocator@UtagPropertyBuff@@@std@@@std@@@std@@@2@$0A@@std@@@std@@IAE?AU?$pair@V?$_Tree_iterator@V?$_Tree_val@U?$_Tree_simple_types@U?$pair@$$CBKV?$vector@UtagPropertyBuff@@V?$allocator@UtagPropertyBuff@@@std@@@std@@@std@@@std@@@std@@@std@@_N@1@_NAAU?$pair@$$CBKV?$vector@UtagPropertyBuff@@V?$allocator@UtagPropertyBuff@@@std@@@std@@@1@PAU?$_Tree_node@U?$pair@$$CBKV?$vector@UtagPropertyBuff@@V?$allocator@UtagPropertyBuff@@@std@@@std@@@std@@PAX@1@@Z$8 1003c224     GamePropertyManager.obj
 0002:0000b234       __tryblocktable$??$_Insert_nohint@AAU?$pair@$$CBKV?$vector@UtagPropertyBuff@@V?$allocator@UtagPropertyBuff@@@std@@@std@@@std@@PAU?$_Tree_node@U?$pair@$$CBKV?$vector@UtagPropertyBuff@@V?$allocator@UtagPropertyBuff@@@std@@@std@@@std@@PAX@2@@?$_Tree@V?$_Tmap_traits@KV?$vector@UtagPropertyBuff@@V?$allocator@UtagPropertyBuff@@@std@@@std@@U?$less@K@2@V?$allocator@U?$pair@$$CBKV?$vector@UtagPropertyBuff@@V?$allocator@UtagPropertyBuff@@@std@@@std@@@std@@@2@$0A@@std@@@std@@IAE?AU?$pair@V?$_Tree_iterator@V?$_Tree_val@U?$_Tree_simple_types@U?$pair@$$CBKV?$vector@UtagPropertyBuff@@V?$allocator@UtagPropertyBuff@@@std@@@std@@@std@@@std@@@std@@@std@@_N@1@_NAAU?$pair@$$CBKV?$vector@UtagPropertyBuff@@V?$allocator@UtagPropertyBuff@@@std@@@std@@@1@PAU?$_Tree_node@U?$pair@$$CBKV?$vector@UtagPropertyBuff@@V?$allocator@UtagPropertyBuff@@@std@@@std@@@std@@PAX@1@@Z 1003c234     GamePropertyManager.obj
 0002:0000b248       __unwindtable$??$_Insert_nohint@AAU?$pair@$$CBKV?$vector@UtagPropertyBuff@@V?$allocator@UtagPropertyBuff@@@std@@@std@@@std@@PAU?$_Tree_node@U?$pair@$$CBKV?$vector@UtagPropertyBuff@@V?$allocator@UtagPropertyBuff@@@std@@@std@@@std@@PAX@2@@?$_Tree@V?$_Tmap_traits@KV?$vector@UtagPropertyBuff@@V?$allocator@UtagPropertyBuff@@@std@@@std@@U?$less@K@2@V?$allocator@U?$pair@$$CBKV?$vector@UtagPropertyBuff@@V?$allocator@UtagPropertyBuff@@@std@@@std@@@std@@@2@$0A@@std@@@std@@IAE?AU?$pair@V?$_Tree_iterator@V?$_Tree_val@U?$_Tree_simple_types@U?$pair@$$CBKV?$vector@UtagPropertyBuff@@V?$allocator@UtagPropertyBuff@@@std@@@std@@@std@@@std@@@std@@@std@@_N@1@_NAAU?$pair@$$CBKV?$vector@UtagPropertyBuff@@V?$allocator@UtagPropertyBuff@@@std@@@std@@@1@PAU?$_Tree_node@U?$pair@$$CBKV?$vector@UtagPropertyBuff@@V?$allocator@UtagPropertyBuff@@@std@@@std@@@std@@PAX@1@@Z 1003c248     GamePropertyManager.obj
 0002:0000b268       __ehfuncinfo$??$_Insert_nohint@AAU?$pair@$$CBKV?$vector@UtagPropertyBuff@@V?$allocator@UtagPropertyBuff@@@std@@@std@@@std@@PAU?$_Tree_node@U?$pair@$$CBKV?$vector@UtagPropertyBuff@@V?$allocator@UtagPropertyBuff@@@std@@@std@@@std@@PAX@2@@?$_Tree@V?$_Tmap_traits@KV?$vector@UtagPropertyBuff@@V?$allocator@UtagPropertyBuff@@@std@@@std@@U?$less@K@2@V?$allocator@U?$pair@$$CBKV?$vector@UtagPropertyBuff@@V?$allocator@UtagPropertyBuff@@@std@@@std@@@std@@@2@$0A@@std@@@std@@IAE?AU?$pair@V?$_Tree_iterator@V?$_Tree_val@U?$_Tree_simple_types@U?$pair@$$CBKV?$vector@UtagPropertyBuff@@V?$allocator@UtagPropertyBuff@@@std@@@std@@@std@@@std@@@std@@@std@@_N@1@_NAAU?$pair@$$CBKV?$vector@UtagPropertyBuff@@V?$allocator@UtagPropertyBuff@@@std@@@std@@@1@PAU?$_Tree_node@U?$pair@$$CBKV?$vector@UtagPropertyBuff@@V?$allocator@UtagPropertyBuff@@@std@@@std@@@std@@PAX@1@@Z 1003c268     GamePropertyManager.obj
 0002:0000b298       __unwindtable$??0?$CMap@HHPAUtagGameDataItem@@AAPAU1@@@QAE@H@Z 1003c298     ServerUserManager.obj
 0002:0000b2a0       __ehfuncinfo$??0?$CMap@HHPAUtagGameDataItem@@AAPAU1@@@QAE@H@Z 1003c2a0     ServerUserManager.obj
 0002:0000b2c8       __ehfuncinfo$??1?$CMap@HHPAUtagGameDataItem@@AAPAU1@@@UAE@XZ 1003c2c8     ServerUserManager.obj
 0002:0000b2f0       __unwindtable$??0CServerUserItem@@IAE@XZ 1003c2f0     ServerUserManager.obj
 0002:0000b2f8       __ehfuncinfo$??0CServerUserItem@@IAE@XZ 1003c2f8     ServerUserManager.obj
 0002:0000b320       __catchsym$??1CServerUserItem@@MAE@XZ$3 1003c320     ServerUserManager.obj
 0002:0000b330       __tryblocktable$??1CServerUserItem@@MAE@XZ 1003c330     ServerUserManager.obj
 0002:0000b344       __unwindtable$??1CServerUserItem@@MAE@XZ 1003c344     ServerUserManager.obj
 0002:0000b35c       __ehfuncinfo$??1CServerUserItem@@MAE@XZ 1003c35c     ServerUserManager.obj
 0002:0000b38c       __unwindtable$?GetUserGameData@CServerUserItem@@UAEPBDXZ 1003c38c     ServerUserManager.obj
 0002:0000b394       __ehfuncinfo$?GetUserGameData@CServerUserItem@@UAEPBDXZ 1003c394     ServerUserManager.obj
 0002:0000b3bc       __unwindtable$?SetUserGameData@CServerUserItem@@UAEXPBDH@Z 1003c3bc     ServerUserManager.obj
 0002:0000b3c4       __ehfuncinfo$?SetUserGameData@CServerUserItem@@UAEXPBDH@Z 1003c3c4     ServerUserManager.obj
 0002:0000b3ec       __catchsym$?SetUserGameData@CServerUserItem@@UAEXHPBDH@Z$2 1003c3ec     ServerUserManager.obj
 0002:0000b3fc       __unwindtable$?SetUserGameData@CServerUserItem@@UAEXHPBDH@Z 1003c3fc     ServerUserManager.obj
 0002:0000b40c       __tryblocktable$?SetUserGameData@CServerUserItem@@UAEXHPBDH@Z 1003c40c     ServerUserManager.obj
 0002:0000b420       __ehfuncinfo$?SetUserGameData@CServerUserItem@@UAEXHPBDH@Z 1003c420     ServerUserManager.obj
 0002:0000b44c       __catchsym$?ResetUserItem@CServerUserItem@@AAEXXZ$2 1003c44c     ServerUserManager.obj
 0002:0000b45c       __unwindtable$?ResetUserItem@CServerUserItem@@AAEXXZ 1003c45c     ServerUserManager.obj
 0002:0000b46c       __tryblocktable$?ResetUserItem@CServerUserItem@@AAEXXZ 1003c46c     ServerUserManager.obj
 0002:0000b480       __ehfuncinfo$?ResetUserItem@CServerUserItem@@AAEXXZ 1003c480     ServerUserManager.obj
 0002:0000b4ac       __catchsym$?InitUserGameDataMap@CServerUserItem@@AAEXXZ$7 1003c4ac     ServerUserManager.obj
 0002:0000b4bc       __tryblocktable$?InitUserGameDataMap@CServerUserItem@@AAEXXZ 1003c4bc     ServerUserManager.obj
 0002:0000b4d0       __ehfuncinfo$?InitUserGameDataMap@CServerUserItem@@AAEXXZ 1003c4d0     ServerUserManager.obj
 0002:0000b4f4       __unwindtable$?InitUserGameDataMap@CServerUserItem@@AAEXXZ 1003c4f4     ServerUserManager.obj
 0002:0000b528       __unwindtable$?SplitString@CServerUserItem@@AAEXV?$CStringT@DV?$StrTraitMFC_DLL@DV?$ChTraitsCRT@D@ATL@@@@@ATL@@0AAVCStringArray@@@Z 1003c528     ServerUserManager.obj
 0002:0000b540       __ehfuncinfo$?SplitString@CServerUserItem@@AAEXV?$CStringT@DV?$StrTraitMFC_DLL@DV?$ChTraitsCRT@D@ATL@@@@@ATL@@0AAVCStringArray@@@Z 1003c540     ServerUserManager.obj
 0002:0000b56c       __unwindtable$?IsPureDigitString@CServerUserItem@@AAE_NV?$CStringT@DV?$StrTraitMFC_DLL@DV?$ChTraitsCRT@D@ATL@@@@@ATL@@@Z 1003c56c     ServerUserManager.obj
 0002:0000b574       __ehfuncinfo$?IsPureDigitString@CServerUserItem@@AAE_NV?$CStringT@DV?$StrTraitMFC_DLL@DV?$ChTraitsCRT@D@ATL@@@@@ATL@@@Z 1003c574     ServerUserManager.obj
 0002:0000b59c       __unwindtable$?IsValidGameData@CServerUserItem@@AAE_NV?$CStringT@DV?$StrTraitMFC_DLL@DV?$ChTraitsCRT@D@ATL@@@@@ATL@@0@Z 1003c59c     ServerUserManager.obj
 0002:0000b5bc       __ehfuncinfo$?IsValidGameData@CServerUserItem@@AAE_NV?$CStringT@DV?$StrTraitMFC_DLL@DV?$ChTraitsCRT@D@ATL@@@@@ATL@@0@Z 1003c5bc     ServerUserManager.obj
 0002:0000b5e8       __ehfuncinfo$??_ECServerUserItem@@MAEPAXI@Z 1003c5e8     ServerUserManager.obj
 0002:0000b610       __unwindtable$??0?$CMap@KKPAVCServerUserItem@@PAV1@@@QAE@H@Z 1003c610     ServerUserManager.obj
 0002:0000b618       __ehfuncinfo$??0?$CMap@KKPAVCServerUserItem@@PAV1@@@QAE@H@Z 1003c618     ServerUserManager.obj
 0002:0000b640       __ehfuncinfo$??1?$CMap@KKPAVCServerUserItem@@PAV1@@@UAE@XZ 1003c640     ServerUserManager.obj
 0002:0000b668       __unwindtable$??0CServerUserManager@@QAE@XZ 1003c668     ServerUserManager.obj
 0002:0000b680       __ehfuncinfo$??0CServerUserManager@@QAE@XZ 1003c680     ServerUserManager.obj
 0002:0000b6ac       __ehfuncinfo$??1CServerUserManager@@UAE@XZ 1003c6ac     ServerUserManager.obj
 0002:0000b6d4       __catchsym$?InsertUserItem@CServerUserManager@@UAE_NPAPAUIServerUserItem@@AAUtagUserInfo@@AAUtagUserInfoPlus@@@Z$5 1003c6d4     ServerUserManager.obj
 0002:0000b6e4       __tryblocktable$?InsertUserItem@CServerUserManager@@UAE_NPAPAUIServerUserItem@@AAUtagUserInfo@@AAUtagUserInfoPlus@@@Z 1003c6e4     ServerUserManager.obj
 0002:0000b6f8       __unwindtable$?InsertUserItem@CServerUserManager@@UAE_NPAPAUIServerUserItem@@AAUtagUserInfo@@AAUtagUserInfoPlus@@@Z 1003c6f8     ServerUserManager.obj
 0002:0000b718       __ehfuncinfo$?InsertUserItem@CServerUserManager@@UAE_NPAPAUIServerUserItem@@AAUtagUserInfo@@AAUtagUserInfoPlus@@@Z 1003c718     ServerUserManager.obj
 0002:0000b748       __ehfuncinfo$??_ECServerUserManager@@UAEPAXI@Z 1003c748     ServerUserManager.obj
 0002:0000b770       __unwindtable$?TraceV@CTrace@ATL@@SAXPBDHII0PAD@Z 1003c770     Stdafx.obj
 0002:0000b780       __ehfuncinfo$?TraceV@CTrace@ATL@@SAXPBDHII0PAD@Z 1003c780     Stdafx.obj
 0002:0000b7ac       __unwindtable$??RCTraceFileAndLineInfo@ATL@@QBAXHIPBDZZ 1003c7ac     Stdafx.obj
 0002:0000b7b4       __ehfuncinfo$??RCTraceFileAndLineInfo@ATL@@QBAXHIPBDZZ 1003c7b4     Stdafx.obj
 0002:0000b7dc       __ehfuncinfo$??1?$CSimpleArray@GV?$CSimpleArrayEqualHelper@G@ATL@@@ATL@@QAE@XZ 1003c7dc     Stdafx.obj
 0002:0000b804       __unwindtable$??0_ATL_WIN_MODULE70@ATL@@QAE@XZ 1003c804     Stdafx.obj
 0002:0000b80c       __ehfuncinfo$??0_ATL_WIN_MODULE70@ATL@@QAE@XZ 1003c80c     Stdafx.obj
 0002:0000b834       __ehfuncinfo$??1CAtlComModule@ATL@@QAE@XZ 1003c834     Stdafx.obj
 0002:0000b85c       __ehfuncinfo$??1CAtlWinModule@ATL@@QAE@XZ 1003c85c     Stdafx.obj
 0002:0000b884       __unwindtable$??0?$CMap@GGPAUtagTaskParameter@@PAU1@@@QAE@H@Z 1003c884     UserTaskManager.obj
 0002:0000b88c       __ehfuncinfo$??0?$CMap@GGPAUtagTaskParameter@@PAU1@@@QAE@H@Z 1003c88c     UserTaskManager.obj
 0002:0000b8b4       __ehfuncinfo$??1?$CMap@GGPAUtagTaskParameter@@PAU1@@@UAE@XZ 1003c8b4     UserTaskManager.obj
 0002:0000b8dc       __unwindtable$??0?$CMap@KKPAUtagUserTaskEntry@@PAU1@@@QAE@H@Z 1003c8dc     UserTaskManager.obj
 0002:0000b8e4       __ehfuncinfo$??0?$CMap@KKPAUtagUserTaskEntry@@PAU1@@@QAE@H@Z 1003c8e4     UserTaskManager.obj
 0002:0000b90c       __ehfuncinfo$??1?$CMap@KKPAUtagUserTaskEntry@@PAU1@@@UAE@XZ 1003c90c     UserTaskManager.obj
 0002:0000b934       __unwindtable$??0CUserTaskManager@@QAE@XZ 1003c934     UserTaskManager.obj
 0002:0000b954       __ehfuncinfo$??0CUserTaskManager@@QAE@XZ 1003c954     UserTaskManager.obj
 0002:0000b980       __catchsym$??1CUserTaskManager@@UAE@XZ$15 1003c980     UserTaskManager.obj
 0002:0000b990       __catchsym$??1CUserTaskManager@@UAE@XZ$14 1003c990     UserTaskManager.obj
 0002:0000b9a0       __catchsym$??1CUserTaskManager@@UAE@XZ$13 1003c9a0     UserTaskManager.obj
 0002:0000b9b0       __catchsym$??1CUserTaskManager@@UAE@XZ$12 1003c9b0     UserTaskManager.obj
 0002:0000b9c0       __ehfuncinfo$??1CUserTaskManager@@UAE@XZ 1003c9c0     UserTaskManager.obj
 0002:0000b9e4       __tryblocktable$??1CUserTaskManager@@UAE@XZ 1003c9e4     UserTaskManager.obj
 0002:0000ba34       __unwindtable$??1CUserTaskManager@@UAE@XZ 1003ca34     UserTaskManager.obj
 0002:0000bab0       __catchsym$?AddTaskParameter@CUserTaskManager@@UAE_NQAUtagTaskParameter@@G@Z$2 1003cab0     UserTaskManager.obj
 0002:0000bac0       __unwindtable$?AddTaskParameter@CUserTaskManager@@UAE_NQAUtagTaskParameter@@G@Z 1003cac0     UserTaskManager.obj
 0002:0000bad0       __tryblocktable$?AddTaskParameter@CUserTaskManager@@UAE_NQAUtagTaskParameter@@G@Z 1003cad0     UserTaskManager.obj
 0002:0000bae4       __ehfuncinfo$?AddTaskParameter@CUserTaskManager@@UAE_NQAUtagTaskParameter@@G@Z 1003cae4     UserTaskManager.obj
 0002:0000bb10       __catchsym$?CreateUserTaskEntry@CUserTaskManager@@IAEPAUtagUserTaskEntry@@XZ$5 1003cb10     UserTaskManager.obj
 0002:0000bb20       __catchsym$?CreateUserTaskEntry@CUserTaskManager@@IAEPAUtagUserTaskEntry@@XZ$4 1003cb20     UserTaskManager.obj
 0002:0000bb30       __unwindtable$?CreateUserTaskEntry@CUserTaskManager@@IAEPAUtagUserTaskEntry@@XZ 1003cb30     UserTaskManager.obj
 0002:0000bb50       __ehfuncinfo$?CreateUserTaskEntry@CUserTaskManager@@IAEPAUtagUserTaskEntry@@XZ 1003cb50     UserTaskManager.obj
 0002:0000bb74       __tryblocktable$?CreateUserTaskEntry@CUserTaskManager@@IAEPAUtagUserTaskEntry@@XZ 1003cb74     UserTaskManager.obj
 0002:0000bbac       __ehfuncinfo$??_ECUserTaskManager@@UAEPAXI@Z 1003cbac     UserTaskManager.obj
 0002:0000bc38       __sehtable$_WinbaseIsolationAwarePrivatetRgzlnPgpgk@0 1003cc38     mfcs140d:nolib.obj
 0002:0000bc58       __sehtable$_IsolationAwareUnregisterClassA@8 1003cc58     mfcs140d:nolib.obj
 0002:0000bc78       __ehfuncinfo$??_Estringdispid@CComTypeInfoHolder@ATL@@QAEPAXI@Z 1003cc78     mfcs140d:nolib.obj
 0002:0000bca0       __sehtable$??_M@YGXPAXIIP6EX0@Z@Z 1003cca0     msvcrtd:ehvecdtr.obj
 0002:0000bcc0       __sehtable$?__ArrayUnwind@@YGXPAXIIP6EX0@Z@Z 1003ccc0     msvcrtd:ehvecdtr.obj
 0002:0000bce0       __sehtable$___scrt_is_nonwritable_in_current_image 1003cce0     msvcrtd:utility.obj
 0002:0000bd00       __ehfuncinfo$?__scrt_initialize_thread_safe_statics_platform_specific@@YAXXZ 1003cd00     msvcrtd:thread_safe_statics.obj
 0002:0000bd28       __ehfuncinfo$?__scrt_uninitialize_thread_safe_statics@@YAXXZ 1003cd28     msvcrtd:thread_safe_statics.obj
 0002:0000bd50       __sehtable$?dllmain_crt_process_attach@@YAHQAUHINSTANCE__@@QAX@Z 1003cd50     msvcrtd:dll_dllmain.obj
 0002:0000bd70       __sehtable$?dllmain_crt_process_detach@@YAH_N@Z 1003cd70     msvcrtd:dll_dllmain.obj
 0002:0000bd90       __sehtable$?dllmain_dispatch@@YAHQAUHINSTANCE__@@KQAX@Z 1003cd90     msvcrtd:dll_dllmain.obj
 0002:0000bdb0       __sehtable$?notify_debugger@@YAXABUtagEXCEPTION_VISUALCPP_DEBUG_INFO@@@Z 1003cdb0     msvcrtd:error.obj
 0002:0000c390       .edata                     1003d390     GameService.exp
 0002:0000c3b8       rgpv                       1003d3b8     GameService.exp
 0002:0000c6d4       rgszName                   1003d6d4     GameService.exp
 0002:0000c9f0       rgwOrd                     1003d9f0     GameService.exp
 0002:0000cb7e       szName                     1003db7e     GameService.exp
 0002:0000cb8e       $N00001                    1003db8e     GameService.exp
 0002:0000cbaf       $N00002                    1003dbaf     GameService.exp
 0002:0000cbcb       $N00003                    1003dbcb     GameService.exp
 0002:0000cbea       $N00004                    1003dbea     GameService.exp
 0002:0000cc0f       $N00005                    1003dc0f     GameService.exp
 0002:0000cc2f       $N00006                    1003dc2f     GameService.exp
 0002:0000cc4a       $N00007                    1003dc4a     GameService.exp
 0002:0000cc68       $N00008                    1003dc68     GameService.exp
 0002:0000cc84       $N00009                    1003dc84     GameService.exp
 0002:0000cca0       $N00010                    1003dca0     GameService.exp
 0002:0000ccbf       $N00011                    1003dcbf     GameService.exp
 0002:0000ccdf       $N00012                    1003dcdf     GameService.exp
 0002:0000ccfa       $N00013                    1003dcfa     GameService.exp
 0002:0000cd18       $N00014                    1003dd18     GameService.exp
 0002:0000cd34       $N00015                    1003dd34     GameService.exp
 0002:0000cd59       $N00016                    1003dd59     GameService.exp
 0002:0000cd82       $N00017                    1003dd82     GameService.exp
 0002:0000cd9c       $N00018                    1003dd9c     GameService.exp
 0002:0000cdb9       $N00019                    1003ddb9     GameService.exp
 0002:0000cdd7       $N00020                    1003ddd7     GameService.exp
 0002:0000ce01       $N00021                    1003de01     GameService.exp
 0002:0000ce2e       $N00022                    1003de2e     GameService.exp
 0002:0000ce4a       $N00023                    1003de4a     GameService.exp
 0002:0000ce64       $N00024                    1003de64     GameService.exp
 0002:0000cec4       $N00025                    1003dec4     GameService.exp
 0002:0000cf0f       $N00026                    1003df0f     GameService.exp
 0002:0000cf51       $N00027                    1003df51     GameService.exp
 0002:0000cf9d       $N00028                    1003df9d     GameService.exp
 0002:0000cfeb       $N00029                    1003dfeb     GameService.exp
 0002:0000d019       $N00030                    1003e019     GameService.exp
 0002:0000d043       $N00031                    1003e043     GameService.exp
 0002:0000d071       $N00032                    1003e071     GameService.exp
 0002:0000d0a0       $N00033                    1003e0a0     GameService.exp
 0002:0000d0ce       $N00034                    1003e0ce     GameService.exp
 0002:0000d12e       $N00035                    1003e12e     GameService.exp
 0002:0000d170       $N00036                    1003e170     GameService.exp
 0002:0000d1a7       $N00037                    1003e1a7     GameService.exp
 0002:0000d1e7       $N00038                    1003e1e7     GameService.exp
 0002:0000d213       $N00039                    1003e213     GameService.exp
 0002:0000d23e       $N00040                    1003e23e     GameService.exp
 0002:0000d27e       $N00041                    1003e27e     GameService.exp
 0002:0000d2cf       $N00042                    1003e2cf     GameService.exp
 0002:0000d30c       $N00043                    1003e30c     GameService.exp
 0002:0000d35a       $N00044                    1003e35a     GameService.exp
 0002:0000d38c       $N00045                    1003e38c     GameService.exp
 0002:0000d3ba       $N00046                    1003e3ba     GameService.exp
 0002:0000d3e7       $N00047                    1003e3e7     GameService.exp
 0002:0000d413       $N00048                    1003e413     GameService.exp
 0002:0000d448       $N00049                    1003e448     GameService.exp
 0002:0000d48d       $N00050                    1003e48d     GameService.exp
 0002:0000d4d8       $N00051                    1003e4d8     GameService.exp
 0002:0000d528       $N00052                    1003e528     GameService.exp
 0002:0000d569       $N00053                    1003e569     GameService.exp
 0002:0000d596       $N00054                    1003e596     GameService.exp
 0002:0000d5de       $N00055                    1003e5de     GameService.exp
 0002:0000d623       $N00056                    1003e623     GameService.exp
 0002:0000d649       $N00057                    1003e649     GameService.exp
 0002:0000d66e       $N00058                    1003e66e     GameService.exp
 0002:0000d692       $N00059                    1003e692     GameService.exp
 0002:0000d6b9       $N00060                    1003e6b9     GameService.exp
 0002:0000d6df       $N00061                    1003e6df     GameService.exp
 0002:0000d717       $N00062                    1003e717     GameService.exp
 0002:0000d742       $N00063                    1003e742     GameService.exp
 0002:0000d765       $N00064                    1003e765     GameService.exp
 0002:0000d7ab       $N00065                    1003e7ab     GameService.exp
 0002:0000d7f5       $N00066                    1003e7f5     GameService.exp
 0002:0000d83f       $N00067                    1003e83f     GameService.exp
 0002:0000d867       $N00068                    1003e867     GameService.exp
 0002:0000d892       $N00069                    1003e892     GameService.exp
 0002:0000d8b5       $N00070                    1003e8b5     GameService.exp
 0002:0000d8dc       $N00071                    1003e8dc     GameService.exp
 0002:0000d904       $N00072                    1003e904     GameService.exp
 0002:0000d92a       $N00073                    1003e92a     GameService.exp
 0002:0000d952       $N00074                    1003e952     GameService.exp
 0002:0000d97a       $N00075                    1003e97a     GameService.exp
 0002:0000d9a2       $N00076                    1003e9a2     GameService.exp
 0002:0000d9ca       $N00077                    1003e9ca     GameService.exp
 0002:0000da05       $N00078                    1003ea05     GameService.exp
 0002:0000da2d       $N00079                    1003ea2d     GameService.exp
 0002:0000da5b       $N00080                    1003ea5b     GameService.exp
 0002:0000da86       $N00081                    1003ea86     GameService.exp
 0002:0000daad       $N00082                    1003eaad     GameService.exp
 0002:0000dad4       $N00083                    1003ead4     GameService.exp
 0002:0000daf9       $N00084                    1003eaf9     GameService.exp
 0002:0000db1d       $N00085                    1003eb1d     GameService.exp
 0002:0000db5c       $N00086                    1003eb5c     GameService.exp
 0002:0000db8c       $N00087                    1003eb8c     GameService.exp
 0002:0000dbc0       $N00088                    1003ebc0     GameService.exp
 0002:0000dbff       $N00089                    1003ebff     GameService.exp
 0002:0000dc29       $N00090                    1003ec29     GameService.exp
 0002:0000dc52       $N00091                    1003ec52     GameService.exp
 0002:0000dc7b       $N00092                    1003ec7b     GameService.exp
 0002:0000dca6       $N00093                    1003eca6     GameService.exp
 0002:0000dcd4       $N00094                    1003ecd4     GameService.exp
 0002:0000dcfb       $N00095                    1003ecfb     GameService.exp
 0002:0000dd1f       $N00096                    1003ed1f     GameService.exp
 0002:0000dd42       $N00097                    1003ed42     GameService.exp
 0002:0000dd76       $N00098                    1003ed76     GameService.exp
 0002:0000dd9e       $N00099                    1003ed9e     GameService.exp
 0002:0000ddcb       $N00100                    1003edcb     GameService.exp
 0002:0000ddf4       $N00101                    1003edf4     GameService.exp
 0002:0000de20       $N00102                    1003ee20     GameService.exp
 0002:0000de4a       $N00103                    1003ee4a     GameService.exp
 0002:0000de86       $N00104                    1003ee86     GameService.exp
 0002:0000deac       $N00105                    1003eeac     GameService.exp
 0002:0000dee0       $N00106                    1003eee0     GameService.exp
 0002:0000df07       $N00107                    1003ef07     GameService.exp
 0002:0000df2e       $N00108                    1003ef2e     GameService.exp
 0002:0000df6e       $N00109                    1003ef6e     GameService.exp
 0002:0000dfaf       $N00110                    1003efaf     GameService.exp
 0002:0000dfd7       $N00111                    1003efd7     GameService.exp
 0002:0000e001       $N00112                    1003f001     GameService.exp
 0002:0000e04b       $N00113                    1003f04b     GameService.exp
 0002:0000e078       $N00114                    1003f078     GameService.exp
 0002:0000e0c5       $N00115                    1003f0c5     GameService.exp
 0002:0000e12b       $N00116                    1003f12b     GameService.exp
 0002:0000e153       $N00117                    1003f153     GameService.exp
 0002:0000e17b       $N00118                    1003f17b     GameService.exp
 0002:0000e1a2       $N00119                    1003f1a2     GameService.exp
 0002:0000e20d       $N00120                    1003f20d     GameService.exp
 0002:0000e235       $N00121                    1003f235     GameService.exp
 0002:0000e29f       $N00122                    1003f29f     GameService.exp
 0002:0000e2c5       $N00123                    1003f2c5     GameService.exp
 0002:0000e2fd       $N00124                    1003f2fd     GameService.exp
 0002:0000e327       $N00125                    1003f327     GameService.exp
 0002:0000e356       $N00126                    1003f356     GameService.exp
 0002:0000e386       $N00127                    1003f386     GameService.exp
 0002:0000e3b2       $N00128                    1003f3b2     GameService.exp
 0002:0000e3e4       $N00129                    1003f3e4     GameService.exp
 0002:0000e419       $N00130                    1003f419     GameService.exp
 0002:0000e447       $N00131                    1003f447     GameService.exp
 0002:0000e47e       $N00132                    1003f47e     GameService.exp
 0002:0000e4b4       $N00133                    1003f4b4     GameService.exp
 0002:0000e4ec       $N00134                    1003f4ec     GameService.exp
 0002:0000e521       $N00135                    1003f521     GameService.exp
 0002:0000e54b       $N00136                    1003f54b     GameService.exp
 0002:0000e579       $N00137                    1003f579     GameService.exp
 0002:0000e5a7       $N00138                    1003f5a7     GameService.exp
 0002:0000e5dd       $N00139                    1003f5dd     GameService.exp
 0002:0000e616       $N00140                    1003f616     GameService.exp
 0002:0000e64b       $N00141                    1003f64b     GameService.exp
 0002:0000e683       $N00142                    1003f683     GameService.exp
 0002:0000e6b9       $N00143                    1003f6b9     GameService.exp
 0002:0000e6f8       $N00144                    1003f6f8     GameService.exp
 0002:0000e71a       $N00145                    1003f71a     GameService.exp
 0002:0000e73f       $N00146                    1003f73f     GameService.exp
 0002:0000e760       $N00147                    1003f760     GameService.exp
 0002:0000e784       $N00148                    1003f784     GameService.exp
 0002:0000e7a6       $N00149                    1003f7a6     GameService.exp
 0002:0000e7dc       $N00150                    1003f7dc     GameService.exp
 0002:0000e80a       $N00151                    1003f80a     GameService.exp
 0002:0000e834       $N00152                    1003f834     GameService.exp
 0002:0000e85e       $N00153                    1003f85e     GameService.exp
 0002:0000e889       $N00154                    1003f889     GameService.exp
 0002:0000e8b0       $N00155                    1003f8b0     GameService.exp
 0002:0000e8f9       $N00156                    1003f8f9     GameService.exp
 0002:0000e93e       $N00157                    1003f93e     GameService.exp
 0002:0000e981       $N00158                    1003f981     GameService.exp
 0002:0000e9c0       $N00159                    1003f9c0     GameService.exp
 0002:0000ea01       $N00160                    1003fa01     GameService.exp
 0002:0000ea57       $N00161                    1003fa57     GameService.exp
 0002:0000ea87       $N00162                    1003fa87     GameService.exp
 0002:0000eabc       $N00163                    1003fabc     GameService.exp
 0002:0000eaf2       $N00164                    1003faf2     GameService.exp
 0002:0000eb28       $N00165                    1003fb28     GameService.exp
 0002:0000eb53       $N00166                    1003fb53     GameService.exp
 0002:0000eb82       $N00167                    1003fb82     GameService.exp
 0002:0000ebaf       $N00168                    1003fbaf     GameService.exp
 0002:0000ebd9       $N00169                    1003fbd9     GameService.exp
 0002:0000ec03       $N00170                    1003fc03     GameService.exp
 0002:0000ec4c       $N00171                    1003fc4c     GameService.exp
 0002:0000ec94       $N00172                    1003fc94     GameService.exp
 0002:0000ecbd       $N00173                    1003fcbd     GameService.exp
 0002:0000ece7       $N00174                    1003fce7     GameService.exp
 0002:0000ed13       $N00175                    1003fd13     GameService.exp
 0002:0000ed5a       $N00176                    1003fd5a     GameService.exp
 0002:0000ed83       $N00177                    1003fd83     GameService.exp
 0002:0000edc4       $N00178                    1003fdc4     GameService.exp
 0002:0000eded       $N00179                    1003fded     GameService.exp
 0002:0000ee1c       $N00180                    1003fe1c     GameService.exp
 0002:0000ee48       $N00181                    1003fe48     GameService.exp
 0002:0000ee8a       $N00182                    1003fe8a     GameService.exp
 0002:0000eeb2       $N00183                    1003feb2     GameService.exp
 0002:0000eedc       $N00184                    1003fedc     GameService.exp
 0002:0000ef0a       $N00185                    1003ff0a     GameService.exp
 0002:0000ef37       $N00186                    1003ff37     GameService.exp
 0002:0000ef64       $N00187                    1003ff64     GameService.exp
 0002:0000ef97       $N00188                    1003ff97     GameService.exp
 0002:0000efc2       $N00189                    1003ffc2     GameService.exp
 0002:0000f002       $N00190                    10040002     GameService.exp
 0002:0000f031       $N00191                    10040031     GameService.exp
 0002:0000f05c       $N00192                    1004005c     GameService.exp
 0002:0000f0d2       $N00193                    100400d2     GameService.exp
 0002:0000f0fc       $N00194                    100400fc     GameService.exp
 0002:0000f127       $N00195                    10040127     GameService.exp
 0002:0000f157       $N00196                    10040157     GameService.exp
 0002:0000f182       $N00197                    10040182     GameService.exp
 0002:0000f1b3       $N00198                    100401b3     GameService.exp
 0002:0000f2aa       $N00199                    100402aa     GameService.exp
 0003:000030c4       ?GameServiceDLL@@3UAFX_EXTENSION_MODULE@@A 100440c4     GameService.obj
 0003:00003238       ?is_initialized_as_dll@@3_NA 10044238     msvcrtd:utility.obj
 0003:00003239       ?module_local_atexit_table_initialized@@3_NA 10044239     msvcrtd:utility.obj
 0003:0000323c       ?module_local_atexit_table@@3U_onexit_table_t@@A 1004423c     msvcrtd:utility.obj
 0003:00003248       ?module_local_at_quick_exit_table@@3U_onexit_table_t@@A 10044248     msvcrtd:utility.obj
 0003:0000325c       ?_Tss_mutex@@3U_RTL_CRITICAL_SECTION@@A 1004425c     msvcrtd:thread_safe_statics.obj
 0003:00003274       ?_Tss_cv@@3U_RTL_CONDITION_VARIABLE@@A 10044274     msvcrtd:thread_safe_statics.obj
 0003:00003278       ?_Tss_event@@3PAXA         10044278     msvcrtd:thread_safe_statics.obj
 0003:0000327c       ?encoded_sleep_condition_variable_cs@@3P6GHPAU_RTL_CONDITION_VARIABLE@@PAU_RTL_CRITICAL_SECTION@@K@ZA 1004427c     msvcrtd:thread_safe_statics.obj
 0003:00003280       ?encoded_wake_all_condition_variable@@3P6GXPAU_RTL_CONDITION_VARIABLE@@@ZA 10044280     msvcrtd:thread_safe_statics.obj
 0003:00003290       ?__proc_attached@@3HA      10044290     msvcrtd:dll_dllmain.obj
 0003:00003294       ?init@?1??_RTC_InitBase@@9@4_NA 10044294     msvcrtd:init.obj
 0003:000032a8       _GS_ExceptionRecord        100442a8     msvcrtd:gs_report.obj
 0003:000032f8       _GS_ContextRecord          100442f8     msvcrtd:gs_report.obj
 0003:00003684       ?_RTC_ErrorReportFunc@@3P6AHHPBDH00ZZA 10044684     msvcrtd:userapi.obj
 0003:00003688       ?_RTC_ErrorReportFuncW@@3P6AHHPB_WH00ZZA 10044688     msvcrtd:userapi.obj
 0003:00003690       ?mspdb@@3PAUHINSTANCE__@@A 10044690     msvcrtd:pdblkup.obj
 0003:00003694       ?alreadyTried@?1??GetPdbDll@@YAPAUHINSTANCE__@@XZ@4_NA 10044694     msvcrtd:pdblkup.obj
 0003:00003695       ?PDBOK@?1??_RTC_GetSrcLine@@YAHPAEPA_WKPAH1K@Z@4_NA 10044695     msvcrtd:pdblkup.obj
 0004:00000974       .idata$6                   10045974     KernelEngine:KernelEngine.dll
 0004:00000986       .idata$6                   10045986     mfc140d:mfc140d.dll
 0004:00000cfa       .idata$6                   10045cfa     kernel32:KERNEL32.dll
 0004:00000d3e       .idata$6                   10045d3e     user32:USER32.dll
 0004:00000d4a       .idata$6                   10045d4a     oleaut32:OLEAUT32.dll
 0004:00000e96       .idata$6                   10045e96     msvcprtd:MSVCP140D.dll
 0004:00000f8c       .idata$6                   10045f8c     vcruntimed:VCRUNTIME140D.dll
 0004:00001206       .idata$6                   10046206     ucrtd:ucrtbased.dll
 0007:000001c0       $R000000                   100491c0     GameService.res
 0007:000004a0       $R0002E0                   100494a0     GameService.res
