 MatchService

 Timestamp is 5da6ac3e (Wed Oct 16 13:35:58 2019)

 Preferred load address is 10000000

 Start         Length     Name                   Class
 0001:00000000 00004320H .text$di                CODE
 0001:00004320 00023ac0H .text$mn                CODE
 0001:00027de0 00001a40H .text$x                 CODE
 0001:00029820 0000110fH .text$yd                CODE
 0002:00000000 00000104H .CRT$XCA                DATA
 0002:00000104 00000104H .CRT$XCL                DATA
 0002:00000208 0000017cH .CRT$XCU                DATA
 0002:00000384 00000104H .CRT$XCZ                DATA
 0002:00000488 00000104H .CRT$XIA                DATA
 0002:0000058c 00000104H .CRT$XIC                DATA
 0002:00000690 00000104H .CRT$XIZ                DATA
 0002:00000794 00000004H .CRT$XLA                DATA
 0002:00000798 00000004H .CRT$XLZ                DATA
 0002:0000079c 00000104H .CRT$XPA                DATA
 0002:000008a0 00000104H .CRT$XPZ                DATA
 0002:000009a4 00000104H .CRT$XTA                DATA
 0002:00000aa8 00000108H .CRT$XTZ                DATA
 0002:00000bb0 0000693cH .rdata                  DATA
 0002:000074ec 0000011cH .rdata$T                DATA
 0002:00007608 00000db8H .rdata$r                DATA
 0002:000083c0 000001d0H .rdata$sxdata           DATA
 0002:00008590 000001a0H .rdata$zzzdbg           DATA
 0002:00008730 00000104H .rtc$IAA                DATA
 0002:00008834 0000010cH .rtc$IMZ                DATA
 0002:00008940 00000104H .rtc$IZZ                DATA
 0002:00008a44 00000104H .rtc$TAA                DATA
 0002:00008b48 0000010cH .rtc$TMZ                DATA
 0002:00008c54 00000104H .rtc$TZZ                DATA
 0002:00008d58 00001044H .xdata$x                DATA
 0002:00009d9c 00000104H ATL$__a                 DATA
 0002:00009ea0 00000110H ATL$__z                 DATA
 0002:00009fb0 00000834H .edata                  DATA
 0003:00000000 0000031cH .data                   DATA
 0003:0000031c 0000068cH .data$r                 DATA
 0003:000009a8 00002d5cH .bss                    DATA
 0004:00000000 00000408H .idata$5                DATA
 0004:00000408 000000a0H .idata$2                DATA
 0004:000004a8 00000014H .idata$3                DATA
 0004:000004bc 00000408H .idata$4                DATA
 0004:000008c4 00000a74H .idata$6                DATA
 0005:00000000 00000104H .tls                    DATA
 0005:00000104 00000104H .tls$                   DATA
 0005:00000208 00000101H .tls$ZZZ                DATA
 0006:00000000 00000104H .00cfg                  DATA
 0007:00000000 000001c0H .rsrc$01                DATA
 0007:000001c0 00000713H .rsrc$02                DATA

  Address         Publics by Value              Rva+Base       Lib:Object

 0000:00000000       ___hybrid_code_map         00000000     <absolute>
 0000:00000000       ___hybrid_auxiliary_iat    00000000     <absolute>
 0000:00000000       ___guard_iat_table         00000000     <absolute>
 0000:00000000       ___guard_longjmp_count     00000000     <absolute>
 0000:00000000       ___dynamic_value_reloc_table 00000000     <absolute>
 0000:00000000       ___guard_iat_count         00000000     <absolute>
 0000:00000000       ___guard_fids_table        00000000     <absolute>
 0000:00000000       ___guard_longjmp_table     00000000     <absolute>
 0000:00000000       ___enclave_config          00000000     <absolute>
 0000:00000000       ___volatile_metadata       00000000     <absolute>
 0000:00000000       ___guard_fids_count        00000000     <absolute>
 0000:00000000       ___hybrid_code_map_count   00000000     <absolute>
 0000:0000002b       ___safe_se_handler_count   0000002b     <absolute>
 0000:0000002c       __tls_array                0000002c     <absolute>
 0000:00000100       ___guard_flags             00000100     <absolute>
 0000:00000000       ___ImageBase               10000000     <linker-defined>
 0001:00004320       ??$CompareElements@KK@@YGHPBK0@Z 10005320 f i DistributeManager.obj
 0001:00004420       ??$DumpElements@K@@YGXAAVCDumpContext@@PBKH@Z 10005420 f i DistributeManager.obj
 0001:000044d0       ??$DumpElements@PAUtagSameTableInfo@@@@YGXAAVCDumpContext@@PBQAUtagSameTableInfo@@H@Z 100054d0 f i DistributeManager.obj
 0001:00004580       ??$HashKey@K@@YGIK@Z       10005580 f i DistributeManager.obj
 0001:000045f0       ??$SerializeElements@K@@YGXAAVCArchive@@PAKH@Z 100055f0 f i DistributeManager.obj
 0001:00004790       ??$SerializeElements@PAUtagSameTableInfo@@@@YGXAAVCArchive@@PAPAUtagSameTableInfo@@H@Z 10005790 f i DistributeManager.obj
 0001:00004930       ??0?$CMap@KKPAUtagSameTableInfo@@PAU1@@@QAE@H@Z 10005930 f i DistributeManager.obj
 0001:00004a20       ??0?$CWHArray@PAUtagSameTableInfo@@ABQAU1@@@QAE@XZ 10005a20 f i DistributeManager.obj
 0001:00004a80       ??0CAssoc@?$CMap@KKPAUtagSameTableInfo@@PAU1@@@QAE@K@Z 10005a80 f i DistributeManager.obj
 0001:00004ab0       ??0CDistributeManager@@QAE@XZ 10005ab0 f   DistributeManager.obj
 0001:00004bc0       ??0CDistributeNodePool@@QAE@XZ 10005bc0 f   DistributeManager.obj
 0001:00004be0       ??0CPair@?$CMap@KKPAUtagSameTableInfo@@PAU1@@@IAE@K@Z 10005be0 f i DistributeManager.obj
 0001:00004c10       ??0tagDistributeNode@@QAE@XZ 10005c10 f i DistributeManager.obj
 0001:00004c50       ??1?$CMap@KKPAUtagSameTableInfo@@PAU1@@@UAE@XZ 10005c50 f i DistributeManager.obj
 0001:00004ce0       ??1?$CWHArray@PAUtagSameTableInfo@@ABQAU1@@@UAE@XZ 10005ce0 f i DistributeManager.obj
 0001:00004d60       ??1CDistributeManager@@UAE@XZ 10005d60 f   DistributeManager.obj
 0001:00004f20       ??1CDistributeNodePool@@QAE@XZ 10005f20 f   DistributeManager.obj
 0001:00005040       ??1tagDistributeNode@@QAE@XZ 10006040 f i DistributeManager.obj
 0001:00005070       ??2@YAPAXIPAX@Z            10006070 f i DistributeManager.obj
 0001:00005090       ??A?$CMap@KKPAUtagSameTableInfo@@PAU1@@@QAEAAPAUtagSameTableInfo@@K@Z 10006090 f i DistributeManager.obj
 0001:000051c0       ??A?$CWHArray@PAUtagSameTableInfo@@ABQAU1@@@QAEAAPAUtagSameTableInfo@@H@Z 100061c0 f i DistributeManager.obj
 0001:000051f0       ??A?$CWHArray@UtagDistributeInfo@@ABU1@@@QAEAAUtagDistributeInfo@@H@Z 100061f0 f i DistributeManager.obj
 0001:00005220       ??A?$CWHArray@UtagDistributeInfo@@ABU1@@@QBEABUtagDistributeInfo@@H@Z 10006220 f i DistributeManager.obj
 0001:00005250       ??_G?$CMap@KKPAUtagSameTableInfo@@PAU1@@@UAEPAXI@Z 10006250 f i DistributeManager.obj
 0001:00005250       ??_E?$CMap@KKPAUtagSameTableInfo@@PAU1@@@UAEPAXI@Z 10006250 f i DistributeManager.obj
 0001:000052b0       ??_G?$CWHArray@PAUtagSameTableInfo@@ABQAU1@@@UAEPAXI@Z 100062b0 f i DistributeManager.obj
 0001:000052b0       ??_E?$CWHArray@PAUtagSameTableInfo@@ABQAU1@@@UAEPAXI@Z 100062b0 f i DistributeManager.obj
 0001:00005300       ??_ECDistributeManager@@UAEPAXI@Z 10006300 f i DistributeManager.obj
 0001:00005300       ??_GCDistributeManager@@UAEPAXI@Z 10006300 f i DistributeManager.obj
 0001:00005350       ??_GtagDistributeNode@@QAEPAXI@Z 10006350 f i DistributeManager.obj
 0001:000053a0       ?ActiveSameTableInfo@CDistributeManager@@IAEPAUtagSameTableInfo@@XZ 100063a0 f   DistributeManager.obj
 0001:00005510       ?Add@?$CWHArray@PAUtagSameTableInfo@@ABQAU1@@@QAEHABQAUtagSameTableInfo@@@Z 10006510 f i DistributeManager.obj
 0001:00005550       ?Add@?$CWHArray@UtagDistributeInfo@@ABU1@@@QAEHABUtagDistributeInfo@@@Z 10006550 f i DistributeManager.obj
 0001:00005590       ?AfxAssertFailedLine@@YGHPBDH@Z 10006590 f i DistributeManager.obj
 0001:00005600       ?AllocMemory@?$CWHArray@PAUtagSameTableInfo@@ABQAU1@@@QAEXH@Z 10006600 f i DistributeManager.obj
 0001:00005770       ?AllocMemory@?$CWHArray@UtagDistributeInfo@@ABU1@@@QAEXH@Z 10006770 f i DistributeManager.obj
 0001:000058d0       ?AllocNode@CDistributeNodePool@@QAEPAUtagDistributeNode@@XZ 100068d0 f   DistributeManager.obj
 0001:000059f0       ?Append@?$CWHArray@PAUtagSameTableInfo@@ABQAU1@@@QAEHABV1@@Z 100069f0 f i DistributeManager.obj
 0001:00005ae0       ?AssertValid@?$CMap@KKPAUtagSameTableInfo@@PAU1@@@UBEXXZ 10006ae0 f i DistributeManager.obj
 0001:00005b60       ?Dump@?$CMap@KKPAUtagSameTableInfo@@PAU1@@@UBEXAAVCDumpContext@@@Z 10006b60 f i DistributeManager.obj
 0001:00005c70       ?ElementAt@?$CWHArray@PAUtagSameTableInfo@@ABQAU1@@@QAEAAPAUtagSameTableInfo@@H@Z 10006c70 f i DistributeManager.obj
 0001:00005cf0       ?ElementAt@?$CWHArray@UtagDistributeInfo@@ABU1@@@QAEAAUtagDistributeInfo@@H@Z 10006cf0 f i DistributeManager.obj
 0001:00005d60       ?FilterRuleExitsIPAddr@CDistributeManager@@IAEHABV?$CWHArray@UtagDistributeInfo@@ABU1@@@K@Z 10006d60 f i DistributeManager.obj
 0001:00005dd0       ?FilterRuleIsAllAndroid@CDistributeManager@@IAEHABV?$CWHArray@UtagDistributeInfo@@ABU1@@@QAUIServerUserItem@@@Z 10006dd0 f i DistributeManager.obj
 0001:00005ed0       ?FilterRuleIsLastSameTable@CDistributeManager@@IAEHABV?$CWHArray@UtagDistributeInfo@@ABU1@@@K@Z 10006ed0 f i DistributeManager.obj
 0001:00005fd0       ?FreeAssoc@?$CMap@KKPAUtagSameTableInfo@@PAU1@@@IAEXPAVCAssoc@1@@Z 10006fd0 f i DistributeManager.obj
 0001:00006050       ?FreeNode@CDistributeNodePool@@QAEXPAX@Z 10007050 f   DistributeManager.obj
 0001:00006090       ?GetAssocAt@?$CMap@KKPAUtagSameTableInfo@@PAU1@@@IBEPAVCAssoc@1@KAAI0@Z 10007090 f i DistributeManager.obj
 0001:00006140       ?GetAt@?$CWHArray@PAUtagSameTableInfo@@ABQAU1@@@QAEAAPAUtagSameTableInfo@@H@Z 10007140 f i DistributeManager.obj
 0001:000061c0       ?GetAt@?$CWHArray@UtagDistributeInfo@@ABU1@@@QBEABUtagDistributeInfo@@H@Z 100071c0 f i DistributeManager.obj
 0001:00006230       ?GetCount@?$CWHArray@PAUtagSameTableInfo@@ABQAU1@@@QBEHXZ 10007230 f i DistributeManager.obj
 0001:00006250       ?GetCount@?$CWHArray@UtagDistributeInfo@@ABU1@@@QBEHXZ 10007250 f i DistributeManager.obj
 0001:00006270       ?GetNextAssoc@?$CMap@KKPAUtagSameTableInfo@@PAU1@@@QBEXAAPAU__POSITION@@AAKAAPAUtagSameTableInfo@@@Z 10007270 f i DistributeManager.obj
 0001:000064c0       ?GetStartPosition@?$CMap@KKPAUtagSameTableInfo@@PAU1@@@QBEPAU__POSITION@@XZ 100074c0 f i DistributeManager.obj
 0001:00006500       ?GetUserSameTableInfo@CDistributeManager@@QAEPAUtagSameTableInfo@@K@Z 10007500 f   DistributeManager.obj
 0001:00006570       ?InitHashTable@?$CMap@KKPAUtagSameTableInfo@@PAU1@@@QAEXIH@Z 10007570 f i DistributeManager.obj
 0001:000066f0       ?InsertDistributeNode@CDistributeManager@@QAEHABUtagDistributeInfo@@@Z 100076f0 f   DistributeManager.obj
 0001:000068e0       ?Lookup@?$CMap@KKPAUtagSameTableInfo@@PAU1@@@QBEHKAAPAUtagSameTableInfo@@@Z 100078e0 f i DistributeManager.obj
 0001:00006950       ?NewAssoc@?$CMap@KKPAUtagSameTableInfo@@PAU1@@@IAEPAVCAssoc@1@K@Z 10007950 f i DistributeManager.obj
 0001:00006b10       ?PerformDistribute@CDistributeManager@@QAEGAAV?$CWHArray@UtagDistributeInfo@@ABU1@@@G@Z 10007b10 f   DistributeManager.obj
 0001:00006d90       ?RemoveAll@?$CMap@KKPAUtagSameTableInfo@@PAU1@@@QAEXXZ 10007d90 f i DistributeManager.obj
 0001:00006e80       ?RemoveAll@?$CWHArray@PAUtagSameTableInfo@@ABQAU1@@@QAEXXZ 10007e80 f i DistributeManager.obj
 0001:00006f00       ?RemoveAll@CDistributeManager@@QAEXXZ 10007f00 f   DistributeManager.obj
 0001:00006f70       ?RemoveAt@?$CWHArray@PAUtagSameTableInfo@@ABQAU1@@@QAEXHH@Z 10007f70 f i DistributeManager.obj
 0001:000070b0       ?RemoveDistributeNode@CDistributeManager@@QAEXPAUIServerUserItem@@@Z 100080b0 f   DistributeManager.obj
 0001:00007100       ?RemoveDistributeNode@CDistributeManager@@QAEXPAUtagDistributeNode@@@Z 10008100 f   DistributeManager.obj
 0001:00007250       ?RemoveKey@?$CMap@KKPAUtagSameTableInfo@@PAU1@@@QAEHK@Z 10008250 f i DistributeManager.obj
 0001:00007340       ?RemoveSameTableInfo@CDistributeManager@@IAEXPAUtagSameTableInfo@@@Z 10008340 f   DistributeManager.obj
 0001:000073f0       ?RemoveUserSameTableInfo@CDistributeManager@@QAEXK@Z 100083f0 f   DistributeManager.obj
 0001:00007450       ?SearchNode@CDistributeManager@@QAEPAUtagDistributeNode@@PAUIServerUserItem@@@Z 10008450 f   DistributeManager.obj
 0001:000074c0       ?Serialize@?$CMap@KKPAUtagSameTableInfo@@PAU1@@@UAEXAAVCArchive@@@Z 100084c0 f i DistributeManager.obj
 0001:00007670       ?SetAt@?$CMap@KKPAUtagSameTableInfo@@PAU1@@@QAEXKPAUtagSameTableInfo@@@Z 10008670 f i DistributeManager.obj
 0001:000076a0       ?SetAtGrow@?$CWHArray@PAUtagSameTableInfo@@ABQAU1@@@QAEXHABQAUtagSameTableInfo@@@Z 100086a0 f i DistributeManager.obj
 0001:00007730       ?SetAtGrow@?$CWHArray@UtagDistributeInfo@@ABU1@@@QAEXHABUtagDistributeInfo@@@Z 10008730 f i DistributeManager.obj
 0001:000077e0       ?SetSize@?$CWHArray@PAUtagSameTableInfo@@ABQAU1@@@QAEXH@Z 100087e0 f i DistributeManager.obj
 0001:00007900       ?SetSize@?$CWHArray@UtagDistributeInfo@@ABU1@@@QAEXH@Z 10008900 f i DistributeManager.obj
 0001:00007a20       ?__empty_global_delete@@YAXPAX@Z 10008a20 f i DistributeManager.obj
 0001:00007a40       ?__empty_global_delete@@YAXPAXI@Z 10008a40 f i DistributeManager.obj
 0001:00007a40       ?__global_delete@@YAXPAXI@Z 10008a40 f i DistributeManager.obj
 0001:00007a60       ?data@CPlex@@QAEPAXXZ      10008a60 f i DistributeManager.obj
 0001:00007ab0       _ExtRawDllMain@12          10008ab0 f   GameMatchServer.obj
 0001:00007b30       ??B?$CTypedSimpleList@PAUCRuntimeClass@@@@QAEPAUCRuntimeClass@@XZ 10008b30 f i GameMatchServer.obj
 0001:00007b60       ??B?$CTypedSimpleList@PAVCOleObjectFactory@@@@QAEPAVCOleObjectFactory@@XZ 10008b60 f i GameMatchServer.obj
 0001:00007b90       ?GetHead@CSimpleList@@QBEPAXXZ 10008b90 f i GameMatchServer.obj
 0001:00007bb0       _DllMain@12                10008bb0 f   GameMatchServer.obj
 0001:00007c50       ??$AtlMultiply@I@ATL@@YAJPAIII@Z 10008c50 f i ImmediateGroup.obj
 0001:00007cb0       ??$DumpElements@PAUIServerUserItem@@@@YGXAAVCDumpContext@@PBQAUIServerUserItem@@H@Z 10008cb0 f i ImmediateGroup.obj
 0001:00007d60       ??$SerializeElements@PAUIServerUserItem@@@@YGXAAVCArchive@@PAPAUIServerUserItem@@H@Z 10008d60 f i ImmediateGroup.obj
 0001:00007f00       ??$_snprintf_s@$0BAA@@@YAHAAY0BAA@DIPBDZZ 10008f00 f i ImmediateGroup.obj
 0001:00007f40       ??$_snprintf_s@$0EA@@@YAHAAY0EA@DIPBDZZ 10008f40 f i ImmediateGroup.obj
 0001:00007f80       ??$_snprintf_s@$0EAA@@@YAHAAY0EAA@DIPBDZZ 10008f80 f i ImmediateGroup.obj
 0001:00007fc0       ??$_snprintf_s@$0IA@@@YAHAAY0IA@DIPBDZZ 10008fc0 f i ImmediateGroup.obj
 0001:00008000       ??0?$CHeapPtr@DVCCRTAllocator@ATL@@@ATL@@QAE@XZ 10009000 f i ImmediateGroup.obj
 0001:00008030       ??0?$CHeapPtr@_WVCCRTAllocator@ATL@@@ATL@@QAE@XZ 10009030 f i ImmediateGroup.obj
 0001:00008060       ??0?$CHeapPtrBase@DVCCRTAllocator@ATL@@@ATL@@IAE@XZ 10009060 f i ImmediateGroup.obj
 0001:00008090       ??0?$CHeapPtrBase@_WVCCRTAllocator@ATL@@@ATL@@IAE@XZ 10009090 f i ImmediateGroup.obj
 0001:000080c0       ??0?$CMap@KKPAUIServerUserItem@@PAU1@@@QAE@H@Z 100090c0 f i ImmediateGroup.obj
 0001:000081b0       ??0?$CTraceCategoryEx@$0CAAA@$0A@@ATL@@QAE@PBD@Z 100091b0 f i ImmediateGroup.obj
 0001:000081f0       ??0?$CWHArray@PAUIServerUserItem@@ABQAU1@@@QAE@XZ 100091f0 f i ImmediateGroup.obj
 0001:00008250       ??0?$CWHArray@PAUtagMatchTimer@@ABQAU1@@@QAE@XZ 10009250 f i ImmediateGroup.obj
 0001:000082b0       ??0?$CWHArray@PAUtagTableFrameInfo@@ABQAU1@@@QAE@XZ 100092b0 f i ImmediateGroup.obj
 0001:00008310       ??0CAssoc@?$CMap@KKPAUIServerUserItem@@PAU1@@@QAE@K@Z 10009310 f i ImmediateGroup.obj
 0001:00008340       ??0CImmediateGroup@@QAE@_JPAUtagGameMatchOption@@PAUIImmediateGroupSink@@@Z 10009340 f   ImmediateGroup.obj
 0001:000084c0       ??0CPair@?$CMap@KKPAUIServerUserItem@@PAU1@@@IAE@K@Z 100094c0 f i ImmediateGroup.obj
 0001:000084f0       ??0CPreserveLastError@ATL@@QAE@XZ 100094f0 f i ImmediateGroup.obj
 0001:00008520       ??0CTime@ATL@@QAE@_J@Z     10009520 f i ImmediateGroup.obj
 0001:00008550       ??0CTraceFileAndLineInfo@ATL@@QAE@PBDH@Z 10009550 f i ImmediateGroup.obj
 0001:00008590       ??0IMatchEventSink@@QAE@XZ 10009590 f i ImmediateGroup.obj
 0001:000085c0       ??0IUnknownEx@@QAE@XZ      100095c0 f i ImmediateGroup.obj
 0001:000085f0       ??1?$CHeapPtr@DVCCRTAllocator@ATL@@@ATL@@QAE@XZ 100095f0 f i ImmediateGroup.obj
 0001:00008620       ??1?$CHeapPtr@_WVCCRTAllocator@ATL@@@ATL@@QAE@XZ 10009620 f i ImmediateGroup.obj
 0001:00008650       ??1?$CHeapPtrBase@DVCCRTAllocator@ATL@@@ATL@@QAE@XZ 10009650 f i ImmediateGroup.obj
 0001:00008680       ??1?$CHeapPtrBase@_WVCCRTAllocator@ATL@@@ATL@@QAE@XZ 10009680 f i ImmediateGroup.obj
 0001:000086b0       ??1?$CMap@KKPAUIServerUserItem@@PAU1@@@UAE@XZ 100096b0 f i ImmediateGroup.obj
 0001:00008740       ??1?$CWHArray@PAUIServerUserItem@@ABQAU1@@@UAE@XZ 10009740 f i ImmediateGroup.obj
 0001:000087c0       ??1?$CWHArray@PAUtagMatchTimer@@ABQAU1@@@UAE@XZ 100097c0 f i ImmediateGroup.obj
 0001:00008840       ??1?$CWHArray@PAUtagTableFrameInfo@@ABQAU1@@@UAE@XZ 10009840 f i ImmediateGroup.obj
 0001:000088c0       ??1CImmediateGroup@@UAE@XZ 100098c0 f   ImmediateGroup.obj
 0001:00008a80       ??1CPreserveLastError@ATL@@QAE@XZ 10009a80 f i ImmediateGroup.obj
 0001:00008ab0       ??A?$CMap@KKPAUIServerUserItem@@PAU1@@@QAEAAPAUIServerUserItem@@K@Z 10009ab0 f i ImmediateGroup.obj
 0001:00008be0       ??A?$CWHArray@PAUIServerUserItem@@ABQAU1@@@QAEAAPAUIServerUserItem@@H@Z 10009be0 f i ImmediateGroup.obj
 0001:00008c10       ??A?$CWHArray@PAUtagMatchTimer@@ABQAU1@@@QAEAAPAUtagMatchTimer@@H@Z 10009c10 f i ImmediateGroup.obj
 0001:00008c40       ??A?$CWHArray@PAUtagTableFrameInfo@@ABQAU1@@@QAEAAPAUtagTableFrameInfo@@H@Z 10009c40 f i ImmediateGroup.obj
 0001:00008c70       ??B?$CHeapPtrBase@DVCCRTAllocator@ATL@@@ATL@@QBEPADXZ 10009c70 f i ImmediateGroup.obj
 0001:00008c90       ??B?$CHeapPtrBase@_WVCCRTAllocator@ATL@@@ATL@@QBEPA_WXZ 10009c90 f i ImmediateGroup.obj
 0001:00008cb0       ??B?$CTraceCategoryEx@$0CAAA@$0A@@ATL@@QAEIXZ 10009cb0 f i ImmediateGroup.obj
 0001:00008cd0       ??RCTraceFileAndLineInfo@ATL@@QBAXHIPBDZZ 10009cd0 f i ImmediateGroup.obj
 0001:00008d80       ??_E?$CMap@KKPAUIServerUserItem@@PAU1@@@UAEPAXI@Z 10009d80 f i ImmediateGroup.obj
 0001:00008d80       ??_G?$CMap@KKPAUIServerUserItem@@PAU1@@@UAEPAXI@Z 10009d80 f i ImmediateGroup.obj
 0001:00008de0       ??_G?$CWHArray@PAUIServerUserItem@@ABQAU1@@@UAEPAXI@Z 10009de0 f i ImmediateGroup.obj
 0001:00008de0       ??_E?$CWHArray@PAUIServerUserItem@@ABQAU1@@@UAEPAXI@Z 10009de0 f i ImmediateGroup.obj
 0001:00008e30       ??_E?$CWHArray@PAUtagMatchTimer@@ABQAU1@@@UAEPAXI@Z 10009e30 f i ImmediateGroup.obj
 0001:00008e30       ??_G?$CWHArray@PAUtagMatchTimer@@ABQAU1@@@UAEPAXI@Z 10009e30 f i ImmediateGroup.obj
 0001:00008e80       ??_E?$CWHArray@PAUtagTableFrameInfo@@ABQAU1@@@UAEPAXI@Z 10009e80 f i ImmediateGroup.obj
 0001:00008e80       ??_G?$CWHArray@PAUtagTableFrameInfo@@ABQAU1@@@UAEPAXI@Z 10009e80 f i ImmediateGroup.obj
 0001:00008ed0       ??_GCImmediateGroup@@UAEPAXI@Z 10009ed0 f i ImmediateGroup.obj
 0001:00008ed0       ??_ECImmediateGroup@@UAEPAXI@Z 10009ed0 f i ImmediateGroup.obj
 0001:00008f20       ?Add@?$CWHArray@PAUIServerUserItem@@ABQAU1@@@QAEHABQAUIServerUserItem@@@Z 10009f20 f i ImmediateGroup.obj
 0001:00008f60       ?Add@?$CWHArray@PAUtagMatchTimer@@ABQAU1@@@QAEHABQAUtagMatchTimer@@@Z 10009f60 f i ImmediateGroup.obj
 0001:00008fa0       ?Add@?$CWHArray@PAUtagTableFrameInfo@@ABQAU1@@@QAEHABQAUtagTableFrameInfo@@@Z 10009fa0 f i ImmediateGroup.obj
 0001:00008fe0       ?AllKillMatchTimer@CImmediateGroup@@IAEXXZ 10009fe0 f   ImmediateGroup.obj
 0001:00009100       ?AllocMemory@?$CWHArray@PAUIServerUserItem@@ABQAU1@@@QAEXH@Z 1000a100 f i ImmediateGroup.obj
 0001:00009270       ?AllocMemory@?$CWHArray@PAUtagMatchTimer@@ABQAU1@@@QAEXH@Z 1000a270 f i ImmediateGroup.obj
 0001:000093e0       ?AllocMemory@?$CWHArray@PAUtagTableFrameInfo@@ABQAU1@@@QAEXH@Z 1000a3e0 f i ImmediateGroup.obj
 0001:00009550       ?Allocate@?$CHeapPtr@DVCCRTAllocator@ATL@@@ATL@@QAE_NI@Z 1000a550 f i ImmediateGroup.obj
 0001:000095b0       ?Allocate@?$CHeapPtr@_WVCCRTAllocator@ATL@@@ATL@@QAE_NI@Z 1000a5b0 f i ImmediateGroup.obj
 0001:00009610       ?Allocate@CCRTAllocator@ATL@@SAPAXI@Z 1000a610 f i ImmediateGroup.obj
 0001:00009640       ?AllocateBytes@?$CHeapPtrBase@DVCCRTAllocator@ATL@@@ATL@@QAE_NI@Z 1000a640 f i ImmediateGroup.obj
 0001:000096c0       ?AllocateBytes@?$CHeapPtrBase@_WVCCRTAllocator@ATL@@@ATL@@QAE_NI@Z 1000a6c0 f i ImmediateGroup.obj
 0001:00009740       ?AssertValid@?$CMap@KKPAUIServerUserItem@@PAU1@@@UBEXXZ 1000a740 f i ImmediateGroup.obj
 0001:000097c0       ?AtlThrowImpl@ATL@@YGXJ@Z  1000a7c0 f i ImmediateGroup.obj
 0001:00009840       ?CaptureMatchTimer@CImmediateGroup@@IAEXXZ 1000a840 f   ImmediateGroup.obj
 0001:000099e0       ?CheckMatchTaskFinish@CImmediateGroup@@IAE_NXZ 1000a9e0 f   ImmediateGroup.obj
 0001:00009a50       ?CheckMatchUser@CImmediateGroup@@IAE_NXZ 1000aa50 f   ImmediateGroup.obj
 0001:00009b80       ?CheckSwitchTaskFinish@CImmediateGroup@@IAE_NXZ 1000ab80 f   ImmediateGroup.obj
 0001:00009bf0       ?CheckTableStart@CImmediateGroup@@IAEXPAUITableFrame@@@Z 1000abf0 f   ImmediateGroup.obj
 0001:00009d30       ?ContinueGame@CImmediateGroup@@IAEXPAUITableFrame@@@Z 1000ad30 f   ImmediateGroup.obj
 0001:00009ee0       ?Dump@?$CMap@KKPAUIServerUserItem@@PAU1@@@UBEXAAVCDumpContext@@@Z 1000aee0 f i ImmediateGroup.obj
 0001:00009ff0       ?EfficacyStartMatch@CImmediateGroup@@IAEXXZ 1000aff0 f   ImmediateGroup.obj
 0001:0000a3e0       ?ElementAt@?$CWHArray@PAUIServerUserItem@@ABQAU1@@@QAEAAPAUIServerUserItem@@H@Z 1000b3e0 f i ImmediateGroup.obj
 0001:0000a460       ?ElementAt@?$CWHArray@PAUtagMatchTimer@@ABQAU1@@@QAEAAPAUtagMatchTimer@@H@Z 1000b460 f i ImmediateGroup.obj
 0001:0000a4e0       ?ElementAt@?$CWHArray@PAUtagTableFrameInfo@@ABQAU1@@@QAEAAPAUtagTableFrameInfo@@H@Z 1000b4e0 f i ImmediateGroup.obj
 0001:0000a560       ?Free@?$CHeapPtrBase@DVCCRTAllocator@ATL@@@ATL@@QAEXXZ 1000b560 f i ImmediateGroup.obj
 0001:0000a5a0       ?Free@?$CHeapPtrBase@_WVCCRTAllocator@ATL@@@ATL@@QAEXXZ 1000b5a0 f i ImmediateGroup.obj
 0001:0000a5e0       ?Free@CCRTAllocator@ATL@@SAXPAX@Z 1000b5e0 f i ImmediateGroup.obj
 0001:0000a610       ?FreeAssoc@?$CMap@KKPAUIServerUserItem@@PAU1@@@IAEXPAVCAssoc@1@@Z 1000b610 f i ImmediateGroup.obj
 0001:0000a690       ?GetAsSystemTime@CTime@ATL@@QBE_NAAU_SYSTEMTIME@@@Z 1000b690 f i ImmediateGroup.obj
 0001:0000a780       ?GetAssocAt@?$CMap@KKPAUIServerUserItem@@PAU1@@@IBEPAVCAssoc@1@KAAI0@Z 1000b780 f i ImmediateGroup.obj
 0001:0000a830       ?GetBuildVer@@YAEK@Z       1000b830 f i ImmediateGroup.obj
 0001:0000a860       ?GetCategoryName@CTrace@ATL@@CAPA_WI@Z 1000b860 f i ImmediateGroup.obj
 0001:0000a8d0       ?GetCount@?$CMap@KKPAUIServerUserItem@@PAU1@@@QBEHXZ 1000b8d0 f i ImmediateGroup.obj
 0001:0000a8f0       ?GetCount@?$CWHArray@PAUIServerUserItem@@ABQAU1@@@QBEHXZ 1000b8f0 f i ImmediateGroup.obj
 0001:0000a910       ?GetCount@?$CWHArray@PAUtagMatchTimer@@ABQAU1@@@QBEHXZ 1000b910 f i ImmediateGroup.obj
 0001:0000a930       ?GetCount@?$CWHArray@PAUtagTableFrameInfo@@ABQAU1@@@QBEHXZ 1000b930 f i ImmediateGroup.obj
 0001:0000a950       ?GetLocalTm@CTime@ATL@@QBEPAUtm@@PAU3@@Z 1000b950 f i ImmediateGroup.obj
 0001:0000aa50       ?GetMainVer@@YAEK@Z        1000ba50 f i ImmediateGroup.obj
 0001:0000aa80       ?GetNextAssoc@?$CMap@KKPAUIServerUserItem@@PAU1@@@QBEXAAPAU__POSITION@@AAKAAPAUIServerUserItem@@@Z 1000ba80 f i ImmediateGroup.obj
 0001:0000acd0       ?GetProductVer@@YAEK@Z     1000bcd0 f i ImmediateGroup.obj
 0001:0000ad00       ?GetStartPosition@?$CMap@KKPAUIServerUserItem@@PAU1@@@QBEPAU__POSITION@@XZ 1000bd00 f i ImmediateGroup.obj
 0001:0000ad40       ?GetSubVer@@YAEK@Z         1000bd40 f i ImmediateGroup.obj
 0001:0000ad70       ?GetTableInterface@CImmediateGroup@@IAEPAUtagTableFrameInfo@@PAUITableFrame@@@Z 1000bd70 f   ImmediateGroup.obj
 0001:0000adf0       ?GetTickCount@CTime@ATL@@SG?AV12@XZ 1000bdf0 f i ImmediateGroup.obj
 0001:0000ae30       ?GetUserRank@CImmediateGroup@@IAEGPAUIServerUserItem@@PAUITableFrame@@@Z 1000be30 f   ImmediateGroup.obj
 0001:0000b080       ?InitHashTable@?$CMap@KKPAUIServerUserItem@@PAU1@@@QAEXIH@Z 1000c080 f i ImmediateGroup.obj
 0001:0000b200       ?InsertFreeGroup@CImmediateGroup@@IAEXPAUIServerUserItem@@@Z 1000c200 f   ImmediateGroup.obj
 0001:0000b2f0       ?InterfaceVersionCompare@@YA_NKK@Z 1000c2f0 f i ImmediateGroup.obj
 0001:0000b3d0       ?KillMatchGameTimer@CImmediateGroup@@IAEXK@Z 1000c3d0 f   ImmediateGroup.obj
 0001:0000b430       ?KillMatchTimer@CImmediateGroup@@IAE_NH@Z 1000c430 f   ImmediateGroup.obj
 0001:0000b590       ?KillMatchTimer@CImmediateGroup@@IAE_NKI@Z 1000c590 f   ImmediateGroup.obj
 0001:0000b710       ?Lookup@?$CMap@KKPAUIServerUserItem@@PAU1@@@QBEHKAAPAUIServerUserItem@@@Z 1000c710 f i ImmediateGroup.obj
 0001:0000b780       ?MatchOver@CImmediateGroup@@IAEXXZ 1000c780 f   ImmediateGroup.obj
 0001:0000b820       ?NewAssoc@?$CMap@KKPAUIServerUserItem@@PAU1@@@IAEPAVCAssoc@1@K@Z 1000c820 f i ImmediateGroup.obj
 0001:0000b9e0       ?OnActionUserOnReady@CImmediateGroup@@UAE_NGGPAUIServerUserItem@@PAXG@Z 1000c9e0 f   ImmediateGroup.obj
 0001:0000ba00       ?OnActionUserSitDown@CImmediateGroup@@UAE_NGGPAUIServerUserItem@@_N@Z 1000ca00 f   ImmediateGroup.obj
 0001:0000ba20       ?OnActionUserStandUp@CImmediateGroup@@UAE_NGGPAUIServerUserItem@@_N@Z 1000ca20 f   ImmediateGroup.obj
 0001:0000ba40       ?OnEventGameEnd@CImmediateGroup@@UAE_NPAUITableFrame@@GPAUIServerUserItem@@E@Z 1000ca40 f   ImmediateGroup.obj
 0001:0000beb0       ?OnEventGameStart@CImmediateGroup@@UAE_NPAUITableFrame@@G@Z 1000ceb0 f   ImmediateGroup.obj
 0001:0000c060       ?OnEventUserReturnMatch@CImmediateGroup@@UAE_NPAUITableFrame@@PAUIServerUserItem@@@Z 1000d060 f   ImmediateGroup.obj
 0001:0000c0b0       ?OnTimeMessage@CImmediateGroup@@IAE_NKI@Z 1000d0b0 f   ImmediateGroup.obj
 0001:0000c1a0       ?OnUserQuitMatch@CImmediateGroup@@QAE_NPAUIServerUserItem@@@Z 1000d1a0 f   ImmediateGroup.obj
 0001:0000c310       ?OnUserSignUpMatch@CImmediateGroup@@QAE_NPAUIServerUserItem@@@Z 1000d310 f   ImmediateGroup.obj
 0001:0000c650       ?PerformAllUserStandUp@CImmediateGroup@@IAEXPAUITableFrame@@@Z 1000d650 f   ImmediateGroup.obj
 0001:0000c720       ?PerformAllUserStandUp@CImmediateGroup@@IAEXXZ 1000d720 f   ImmediateGroup.obj
 0001:0000c7e0       ?PerformDistributeTable@CImmediateGroup@@IAEXXZ 1000d7e0 f   ImmediateGroup.obj
 0001:0000cc50       ?PostMatchTimer@CImmediateGroup@@IAEXKHIJ@Z 1000dc50 f   ImmediateGroup.obj
 0001:0000ccc0       ?QueryInterface@CImmediateGroup@@UAEPAXABU_GUID@@K@Z 1000dcc0 f   ImmediateGroup.obj
 0001:0000cd70       ?RegisterCategory@CTrace@ATL@@SAXPBDI@Z 1000dd70 f i ImmediateGroup.obj
 0001:0000ce90       ?Release@CImmediateGroup@@UAEXXZ 1000de90 f i ImmediateGroup.obj
 0001:0000cee0       ?RemoveAll@?$CMap@KKPAUIServerUserItem@@PAU1@@@QAEXXZ 1000dee0 f i ImmediateGroup.obj
 0001:0000cfd0       ?RemoveAll@?$CWHArray@PAUIServerUserItem@@ABQAU1@@@QAEXXZ 1000dfd0 f i ImmediateGroup.obj
 0001:0000d050       ?RemoveAll@?$CWHArray@PAUtagTableFrameInfo@@ABQAU1@@@QAEXXZ 1000e050 f i ImmediateGroup.obj
 0001:0000d0d0       ?RemoveAt@?$CWHArray@PAUIServerUserItem@@ABQAU1@@@QAEXHH@Z 1000e0d0 f i ImmediateGroup.obj
 0001:0000d210       ?RemoveAt@?$CWHArray@PAUtagMatchTimer@@ABQAU1@@@QAEXHH@Z 1000e210 f i ImmediateGroup.obj
 0001:0000d350       ?RemoveKey@?$CMap@KKPAUIServerUserItem@@PAU1@@@QAEHK@Z 1000e350 f i ImmediateGroup.obj
 0001:0000d440       ?SendGroupMessage@CImmediateGroup@@IAEXPBD@Z 1000e440 f   ImmediateGroup.obj
 0001:0000d510       ?SendTableMatchInfo@CImmediateGroup@@IAEXPAUITableFrame@@G@Z 1000e510 f   ImmediateGroup.obj
 0001:0000d7d0       ?SendWaitMessage@CImmediateGroup@@IAEXPAUITableFrame@@G@Z 1000e7d0 f   ImmediateGroup.obj
 0001:0000dc50       ?Serialize@?$CMap@KKPAUIServerUserItem@@PAU1@@@UAEXAAVCArchive@@@Z 1000ec50 f i ImmediateGroup.obj
 0001:0000de00       ?SetAt@?$CMap@KKPAUIServerUserItem@@PAU1@@@QAEXKPAUIServerUserItem@@@Z 1000ee00 f i ImmediateGroup.obj
 0001:0000de30       ?SetAtGrow@?$CWHArray@PAUIServerUserItem@@ABQAU1@@@QAEXHABQAUIServerUserItem@@@Z 1000ee30 f i ImmediateGroup.obj
 0001:0000dec0       ?SetAtGrow@?$CWHArray@PAUtagMatchTimer@@ABQAU1@@@QAEXHABQAUtagMatchTimer@@@Z 1000eec0 f i ImmediateGroup.obj
 0001:0000df50       ?SetAtGrow@?$CWHArray@PAUtagTableFrameInfo@@ABQAU1@@@QAEXHABQAUtagTableFrameInfo@@@Z 1000ef50 f i ImmediateGroup.obj
 0001:0000dfe0       ?SetMatchGameTimer@CImmediateGroup@@IAEXKKKI@Z 1000efe0 f   ImmediateGroup.obj
 0001:0000e050       ?SetSize@?$CWHArray@PAUIServerUserItem@@ABQAU1@@@QAEXH@Z 1000f050 f i ImmediateGroup.obj
 0001:0000e170       ?SetSize@?$CWHArray@PAUtagMatchTimer@@ABQAU1@@@QAEXH@Z 1000f170 f i ImmediateGroup.obj
 0001:0000e290       ?SetSize@?$CWHArray@PAUtagTableFrameInfo@@ABQAU1@@@QAEXH@Z 1000f290 f i ImmediateGroup.obj
 0001:0000e3b0       ?SortMapUser@CImmediateGroup@@IAEGQAUtagMatchScore@@@Z 1000f3b0 f   ImmediateGroup.obj
 0001:0000e680       ?TraceV@CTrace@ATL@@CAXPBDHIIPB_W@Z 1000f680 f i ImmediateGroup.obj
 0001:0000e910       ?TraceV@CTrace@ATL@@SAXPBDHII0PAD@Z 1000f910 f i ImmediateGroup.obj
 0001:0000eb40       _==                        1000fb40 f i ImmediateGroup.obj
 0001:0000eb90       _HRESULT_FROM_WIN32        1000fb90 f i ImmediateGroup.obj
 0001:0000ebe0       _IsEqualGUID               1000fbe0 f i ImmediateGroup.obj
 0001:0000ec30       ___local_stdio_printf_options 1000fc30 f i ImmediateGroup.obj
 0001:0000ec50       __vscprintf                1000fc50 f i ImmediateGroup.obj
 0001:0000ec80       __vscprintf_l              1000fc80 f i ImmediateGroup.obj
 0001:0000ecf0       __vsnprintf_s              1000fcf0 f i ImmediateGroup.obj
 0001:0000ed30       __vsnprintf_s_l            1000fd30 f i ImmediateGroup.obj
 0001:0000eda0       __vswprintf_s_l            1000fda0 f i ImmediateGroup.obj
 0001:0000ee10       _swprintf_s                1000fe10 f i ImmediateGroup.obj
 0001:0000ee90       ??0?$CWHArray@EABE@@QAE@XZ 1000fe90 f i ImmediateMatch.obj
 0001:0000eef0       ??0?$CWHArray@PAVCImmediateGroup@@ABQAV1@@@QAE@XZ 1000fef0 f i ImmediateMatch.obj
 0001:0000ef50       ??0?$CWHArray@PAVCTableFrameHook@@ABQAV1@@@QAE@XZ 1000ff50 f i ImmediateMatch.obj
 0001:0000efb0       ??0CImmediateMatch@@QAE@XZ 1000ffb0 f   ImmediateMatch.obj
 0001:0000f1a0       ??0CMatchServiceManager@@QAE@ABV0@@Z 100101a0 f i ImmediateMatch.obj
 0001:0000f210       ??0IGameMatchItem@@QAE@XZ  10010210 f i ImmediateMatch.obj
 0001:0000f240       ??0IImmediateGroupSink@@QAE@XZ 10010240 f i ImmediateMatch.obj
 0001:0000f270       ??0IMatchServiceManager@@QAE@ABU0@@Z 10010270 f i ImmediateMatch.obj
 0001:0000f2b0       ??0IServerUserItemSink@@QAE@XZ 100102b0 f i ImmediateMatch.obj
 0001:0000f2e0       ??0IUnknownEx@@QAE@ABU0@@Z 100102e0 f i ImmediateMatch.obj
 0001:0000f310       ??1?$CWHArray@EABE@@UAE@XZ 10010310 f i ImmediateMatch.obj
 0001:0000f390       ??1?$CWHArray@PAVCImmediateGroup@@ABQAV1@@@UAE@XZ 10010390 f i ImmediateMatch.obj
 0001:0000f410       ??1?$CWHArray@PAVCTableFrameHook@@ABQAV1@@@UAE@XZ 10010410 f i ImmediateMatch.obj
 0001:0000f490       ??1CImmediateMatch@@UAE@XZ 10010490 f   ImmediateMatch.obj
 0001:0000f7a0       ??4CMatchServiceManager@@QAEAAV0@ABV0@@Z 100107a0 f i ImmediateMatch.obj
 0001:0000f800       ??4IMatchServiceManager@@QAEAAU0@ABU0@@Z 10010800 f i ImmediateMatch.obj
 0001:0000f830       ??4IUnknownEx@@QAEAAU0@ABU0@@Z 10010830 f i ImmediateMatch.obj
 0001:0000f850       ??A?$CWHArray@EABE@@QAEAAEH@Z 10010850 f i ImmediateMatch.obj
 0001:0000f880       ??A?$CWHArray@PAVCImmediateGroup@@ABQAV1@@@QAEAAPAVCImmediateGroup@@H@Z 10010880 f i ImmediateMatch.obj
 0001:0000f8b0       ??_ECMatchServiceManager@@UAEPAXI@Z 100108b0 f i ImmediateMatch.obj
 0001:0000f990       ??_G?$CWHArray@EABE@@UAEPAXI@Z 10010990 f i ImmediateMatch.obj
 0001:0000f990       ??_E?$CWHArray@EABE@@UAEPAXI@Z 10010990 f i ImmediateMatch.obj
 0001:0000f9e0       ??_G?$CWHArray@PAVCImmediateGroup@@ABQAV1@@@UAEPAXI@Z 100109e0 f i ImmediateMatch.obj
 0001:0000f9e0       ??_E?$CWHArray@PAVCImmediateGroup@@ABQAV1@@@UAEPAXI@Z 100109e0 f i ImmediateMatch.obj
 0001:0000fa30       ??_G?$CWHArray@PAVCTableFrameHook@@ABQAV1@@@UAEPAXI@Z 10010a30 f i ImmediateMatch.obj
 0001:0000fa30       ??_E?$CWHArray@PAVCTableFrameHook@@ABQAV1@@@UAEPAXI@Z 10010a30 f i ImmediateMatch.obj
 0001:0000fa80       ??_GCImmediateMatch@@UAEPAXI@Z 10010a80 f i ImmediateMatch.obj
 0001:0000fa80       ??_ECImmediateMatch@@UAEPAXI@Z 10010a80 f i ImmediateMatch.obj
 0001:0000fad0       ??_GCMatchServiceManager@@UAEPAXI@Z 10010ad0 f i ImmediateMatch.obj
 0001:0000fb20       ?Add@?$CWHArray@EABE@@QAEHABE@Z 10010b20 f i ImmediateMatch.obj
 0001:0000fb60       ?Add@?$CWHArray@PAVCImmediateGroup@@ABQAV1@@@QAEHABQAVCImmediateGroup@@@Z 10010b60 f i ImmediateMatch.obj
 0001:0000fba0       ?AddMatchTable@CImmediateGroup@@IAEXPAUtagTableFrameInfo@@@Z 10010ba0 f i ImmediateMatch.obj
 0001:0000fbd0       ?AllocMemory@?$CWHArray@EABE@@QAEXH@Z 10010bd0 f i ImmediateMatch.obj
 0001:0000fd30       ?AllocMemory@?$CWHArray@PAVCImmediateGroup@@ABQAV1@@@QAEXH@Z 10010d30 f i ImmediateMatch.obj
 0001:0000fea0       ?Append@?$CWHArray@PAVCImmediateGroup@@ABQAV1@@@QAEHABV1@@Z 10010ea0 f i ImmediateMatch.obj
 0001:0000ff90       ?BindTableFrame@CImmediateMatch@@UAE_NPAUITableFrame@@G@Z 10010f90 f   ImmediateMatch.obj
 0001:00010190       ?CalcMatchNo@CImmediateMatch@@AAE_JXZ 10011190 f   ImmediateMatch.obj
 0001:00010310       ?DeleteUserItem@CImmediateMatch@@AAE_NK@Z 10011310 f   ImmediateMatch.obj
 0001:00010420       ?ElementAt@?$CWHArray@EABE@@QAEAAEH@Z 10011420 f i ImmediateMatch.obj
 0001:00010490       ?ElementAt@?$CWHArray@PAVCImmediateGroup@@ABQAV1@@@QAEAAPAVCImmediateGroup@@H@Z 10011490 f i ImmediateMatch.obj
 0001:00010510       ?GetCount@?$CWHArray@EABE@@QBEHXZ 10011510 f i ImmediateMatch.obj
 0001:00010530       ?GetCount@?$CWHArray@PAVCImmediateGroup@@ABQAV1@@@QBEHXZ 10011530 f i ImmediateMatch.obj
 0001:00010550       ?GetFreeAndroidUserItem@CImmediateMatch@@UAEPAUIAndroidUserItem@@XZ 10011550 f   ImmediateMatch.obj
 0001:00010570       ?GetNullTable@CImmediateMatch@@AAEGXZ 10011570 f   ImmediateMatch.obj
 0001:00010700       ?InitMatchInterface@CImmediateMatch@@UAE_NAAUtagMatchManagerParameter@@@Z 10011700 f   ImmediateMatch.obj
 0001:00010970       ?InsertNullTable@CImmediateMatch@@UAEXXZ 10011970 f   ImmediateMatch.obj
 0001:00010cb0       ?IsImmediateWriteScore@CServerRule@@SA_NK@Z 10011cb0 f i ImmediateMatch.obj
 0001:00010cf0       ?IsSuportPlayBack@CServerRule@@SA_NK@Z 10011cf0 f i ImmediateMatch.obj
 0001:00010d30       ?KillGameTimer@CImmediateMatch@@UAE_NKPAVCImmediateGroup@@@Z 10011d30 f   ImmediateMatch.obj
 0001:00010d80       ?OnEventDataBase@CImmediateMatch@@UAE_NGPAUIServerUserItem@@PAXGK@Z 10011d80 f   ImmediateMatch.obj
 0001:00011d10       ?OnEventEnterMatch@CImmediateMatch@@UAE_NKPAXK_N@Z 10012d10 f   ImmediateMatch.obj
 0001:00011f90       ?OnEventMatchOver@CImmediateMatch@@UAE_NPAVCImmediateGroup@@@Z 10012f90 f   ImmediateMatch.obj
 0001:000120d0       ?OnEventMatchStart@CImmediateMatch@@UAE_NPAVCImmediateGroup@@@Z 100130d0 f   ImmediateMatch.obj
 0001:00012340       ?OnEventSocketMatch@CImmediateMatch@@UAE_NGPAXGPAUIServerUserItem@@K@Z 10013340 f   ImmediateMatch.obj
 0001:00012580       ?OnEventTimer@CImmediateMatch@@UAE_NKI@Z 10013580 f   ImmediateMatch.obj
 0001:00012820       ?OnEventUserItemGameData@CImmediateMatch@@UAE_NPAUIServerUserItem@@E@Z 10013820 f   ImmediateMatch.obj
 0001:00012880       ?OnEventUserItemRight@CImmediateMatch@@UAE_NPAUIServerUserItem@@KKE@Z 10013880 f   ImmediateMatch.obj
 0001:000128f0       ?OnEventUserItemScore@CImmediateMatch@@UAE_NPAUIServerUserItem@@E@Z 100138f0 f   ImmediateMatch.obj
 0001:00012fa0       ?OnEventUserItemStatus@CImmediateMatch@@UAE_NPAUIServerUserItem@@GG@Z 10013fa0 f   ImmediateMatch.obj
 0001:00013030       ?OnEventUserJoinMatch@CImmediateMatch@@UAE_NPAUIServerUserItem@@EK@Z 10014030 f   ImmediateMatch.obj
 0001:000137c0       ?OnEventUserLogon@CImmediateMatch@@UAE_NPAUIServerUserItem@@@Z 100147c0 f   ImmediateMatch.obj
 0001:00013a60       ?OnEventUserLogonFinish@CImmediateMatch@@UAE_NPAUIServerUserItem@@@Z 10014a60 f   ImmediateMatch.obj
 0001:00013aa0       ?OnEventUserLogout@CImmediateMatch@@UAE_NPAUIServerUserItem@@@Z 10014aa0 f   ImmediateMatch.obj
 0001:00013ae0       ?OnEventUserQuitMatch@CImmediateMatch@@UAE_NPAUIServerUserItem@@EPAGK@Z 10014ae0 f   ImmediateMatch.obj
 0001:00013df0       ?OnStartService@CImmediateMatch@@UAEXXZ 10014df0 f   ImmediateMatch.obj
 0001:00013fc0       ?QueryInterface@CImmediateMatch@@UAEPAXABU_GUID@@K@Z 10014fc0 f   ImmediateMatch.obj
 0001:000140c5       ?QueryInterface@CImmediateMatch@@W7AEPAXABU_GUID@@K@Z 100150c5 f i ImmediateMatch.obj
 0001:000140d0       ?Release@CImmediateMatch@@UAEXXZ 100150d0 f i ImmediateMatch.obj
 0001:00014120       ?Release@CImmediateMatch@@W7AEXXZ 10015120 f i ImmediateMatch.obj
 0001:00014130       ?Release@CMatchServiceManager@@UAEXXZ 10015130 f i ImmediateMatch.obj
 0001:00014180       ?RemoveAll@?$CWHArray@EABE@@QAEXXZ 10015180 f i ImmediateMatch.obj
 0001:00014200       ?RemoveAll@?$CWHArray@PAVCImmediateGroup@@ABQAV1@@@QAEXXZ 10015200 f i ImmediateMatch.obj
 0001:00014280       ?RemoveAt@?$CWHArray@EABE@@QAEXHH@Z 10015280 f i ImmediateMatch.obj
 0001:000143b0       ?RemoveAt@?$CWHArray@PAUtagTableFrameInfo@@ABQAU1@@@QAEXHH@Z 100153b0 f i ImmediateMatch.obj
 0001:000144f0       ?RemoveAt@?$CWHArray@PAVCImmediateGroup@@ABQAV1@@@QAEXHH@Z 100154f0 f i ImmediateMatch.obj
 0001:00014630       ?RemoveMatchUserItem@CImmediateMatch@@AAE_NPAUIServerUserItem@@@Z 10015630 f   ImmediateMatch.obj
 0001:00014710       ?SendData@CImmediateMatch@@UAE_NPAUIServerUserItem@@GGPAXG@Z 10015710 f   ImmediateMatch.obj
 0001:000147c0       ?SendGameMessage@CImmediateMatch@@UAE_NPAUIServerUserItem@@PBDG@Z 100157c0 f   ImmediateMatch.obj
 0001:00014930       ?SendGroupData@CImmediateMatch@@UAE_NGGPAXGPAVCImmediateGroup@@@Z 10015930 f   ImmediateMatch.obj
 0001:000149e0       ?SendGroupUserMessage@CImmediateMatch@@UAE_NPBDPAVCImmediateGroup@@@Z 100159e0 f   ImmediateMatch.obj
 0001:00014a70       ?SendGroupUserScore@CImmediateMatch@@UAE_NPAUIServerUserItem@@PAVCImmediateGroup@@@Z 10015a70 f   ImmediateMatch.obj
 0001:00014c60       ?SendGroupUserStatus@CImmediateMatch@@UAE_NPAUIServerUserItem@@PAVCImmediateGroup@@@Z 10015c60 f   ImmediateMatch.obj
 0001:00014e20       ?SendMatchInfo@CImmediateMatch@@UAE_NPAUIServerUserItem@@@Z 10015e20 f   ImmediateMatch.obj
 0001:00015070       ?SendRoomMessage@CImmediateMatch@@UAE_NPAUIServerUserItem@@PBDG@Z 10016070 f   ImmediateMatch.obj
 0001:000151c0       ?SetAtGrow@?$CWHArray@EABE@@QAEXHABE@Z 100161c0 f i ImmediateMatch.obj
 0001:00015250       ?SetAtGrow@?$CWHArray@PAVCImmediateGroup@@ABQAV1@@@QAEXHABQAVCImmediateGroup@@@Z 10016250 f i ImmediateMatch.obj
 0001:000152e0       ?SetGameTimer@CImmediateMatch@@UAE_NKKKIPAVCImmediateGroup@@@Z 100162e0 f   ImmediateMatch.obj
 0001:00015330       ?SetSize@?$CWHArray@EABE@@QAEXH@Z 10016330 f i ImmediateMatch.obj
 0001:00015440       ?SetSize@?$CWHArray@PAVCImmediateGroup@@ABQAV1@@@QAEXH@Z 10016440 f i ImmediateMatch.obj
 0001:00015560       ?WriteUserAward@CImmediateMatch@@AAE_NPAUIServerUserItem@@PAUtagMatchRankInfo@@@Z 10016560 f   ImmediateMatch.obj
 0001:00015900       ??0?$CWHArray@UtagDistributeInfo@@ABU1@@@QAE@XZ 10016900 f i LockTimeMatch.obj
 0001:00015960       ??0CLockTimeMatch@@QAE@XZ  10016960 f   LockTimeMatch.obj
 0001:00015aa0       ??0CTime@ATL@@QAE@ABU_SYSTEMTIME@@H@Z 10016aa0 f i LockTimeMatch.obj
 0001:00015b60       ??0CTime@ATL@@QAE@HHHHHHH@Z 10016b60 f i LockTimeMatch.obj
 0001:00015ff0       ??0CTime@ATL@@QAE@XZ       10016ff0 f i LockTimeMatch.obj
 0001:00016020       ??0CTimeSpan@ATL@@QAE@_J@Z 10017020 f i LockTimeMatch.obj
 0001:00016050       ??1?$CWHArray@UtagDistributeInfo@@ABU1@@@UAE@XZ 10017050 f i LockTimeMatch.obj
 0001:000160d0       ??1CLockTimeMatch@@UAE@XZ  100170d0 f   LockTimeMatch.obj
 0001:00016280       ??GCTime@ATL@@QBE?AVCTimeSpan@1@V01@@Z 10017280 f i LockTimeMatch.obj
 0001:000162c0       ??MCTime@ATL@@QBE_NV01@@Z  100172c0 f i LockTimeMatch.obj
 0001:00016320       ??PCTime@ATL@@QBE_NV01@@Z  10017320 f i LockTimeMatch.obj
 0001:00016380       ??_E?$CWHArray@UtagDistributeInfo@@ABU1@@@UAEPAXI@Z 10017380 f i LockTimeMatch.obj
 0001:00016380       ??_G?$CWHArray@UtagDistributeInfo@@ABU1@@@UAEPAXI@Z 10017380 f i LockTimeMatch.obj
 0001:000163d0       ??_ECLockTimeMatch@@UAEPAXI@Z 100173d0 f i LockTimeMatch.obj
 0001:000163d0       ??_GCLockTimeMatch@@UAEPAXI@Z 100173d0 f i LockTimeMatch.obj
 0001:00016420       ?BindTableFrame@CLockTimeMatch@@UAE_NPAUITableFrame@@G@Z 10017420 f   LockTimeMatch.obj
 0001:00016610       ?CalcMatchNo@CLockTimeMatch@@IAE_JXZ 10017610 f   LockTimeMatch.obj
 0001:000166f0       ?ClearSameTableUser@CLockTimeMatch@@IAEXK@Z 100176f0 f   LockTimeMatch.obj
 0001:00016750       ?GetCount@CDistributeManager@@QAEGXZ 10017750 f i LockTimeMatch.obj
 0001:00016770       ?GetDay@CTime@ATL@@QBEHXZ  10017770 f i LockTimeMatch.obj
 0001:000167e0       ?GetDays@CTimeSpan@ATL@@QBE_JXZ 100177e0 f i LockTimeMatch.obj
 0001:00016820       ?GetHour@CTime@ATL@@QBEHXZ 10017820 f i LockTimeMatch.obj
 0001:00016890       ?GetMatchStartInterval@CLockTimeMatch@@IAEKXZ 10017890 f   LockTimeMatch.obj
 0001:00016a40       ?GetMinute@CTime@ATL@@QBEHXZ 10017a40 f i LockTimeMatch.obj
 0001:00016ab0       ?GetMonth@CTime@ATL@@QBEHXZ 10017ab0 f i LockTimeMatch.obj
 0001:00016b20       ?GetSecond@CTime@ATL@@QBEHXZ 10017b20 f i LockTimeMatch.obj
 0001:00016b90       ?GetTotalSeconds@CTimeSpan@ATL@@QBE_JXZ 10017b90 f i LockTimeMatch.obj
 0001:00016bc0       ?GetYear@CTime@ATL@@QBEHXZ 10017bc0 f i LockTimeMatch.obj
 0001:00016c30       ?InitMatchInterface@CLockTimeMatch@@UAE_NAAUtagMatchManagerParameter@@@Z 10017c30 f   LockTimeMatch.obj
 0001:00016eb0       ?InsertDistribute@CLockTimeMatch@@IAE_NPAUIServerUserItem@@@Z 10017eb0 f   LockTimeMatch.obj
 0001:000170b0       ?InsertSameTableUser@CLockTimeMatch@@IAEXKK@Z 100180b0 f   LockTimeMatch.obj
 0001:00017110       ?IsMatchSignupEnd@CLockTimeMatch@@IAE_NXZ 10018110 f   LockTimeMatch.obj
 0001:00017240       ?IsMatchSignupStart@CLockTimeMatch@@IAE_NXZ 10018240 f   LockTimeMatch.obj
 0001:00017370       ?OnActionUserOnReady@CLockTimeMatch@@UAE_NGGPAUIServerUserItem@@PAXG@Z 10018370 f   LockTimeMatch.obj
 0001:00017390       ?OnActionUserSitDown@CLockTimeMatch@@UAE_NGGPAUIServerUserItem@@_N@Z 10018390 f   LockTimeMatch.obj
 0001:000173b0       ?OnActionUserStandUp@CLockTimeMatch@@UAE_NGGPAUIServerUserItem@@_N@Z 100183b0 f   LockTimeMatch.obj
 0001:00017550       ?OnEventDataBase@CLockTimeMatch@@UAE_NGPAUIServerUserItem@@PAXGK@Z 10018550 f   LockTimeMatch.obj
 0001:00018370       ?OnEventEnterMatch@CLockTimeMatch@@UAE_NKPAXK_N@Z 10019370 f   LockTimeMatch.obj
 0001:00018700       ?OnEventGameEnd@CLockTimeMatch@@UAE_NPAUITableFrame@@GPAUIServerUserItem@@E@Z 10019700 f   LockTimeMatch.obj
 0001:00018c70       ?OnEventGameStart@CLockTimeMatch@@UAE_NPAUITableFrame@@G@Z 10019c70 f   LockTimeMatch.obj
 0001:00018f80       ?OnEventSocketMatch@CLockTimeMatch@@UAE_NGPAXGPAUIServerUserItem@@K@Z 10019f80 f   LockTimeMatch.obj
 0001:00019520       ?OnEventTimer@CLockTimeMatch@@UAE_NKI@Z 1001a520 f   LockTimeMatch.obj
 0001:0001a560       ?OnEventUserItemGameData@CLockTimeMatch@@UAE_NPAUIServerUserItem@@E@Z 1001b560 f   LockTimeMatch.obj
 0001:0001a5c0       ?OnEventUserItemRight@CLockTimeMatch@@UAE_NPAUIServerUserItem@@KKE@Z 1001b5c0 f   LockTimeMatch.obj
 0001:0001a630       ?OnEventUserItemScore@CLockTimeMatch@@UAE_NPAUIServerUserItem@@E@Z 1001b630 f   LockTimeMatch.obj
 0001:0001ac50       ?OnEventUserItemStatus@CLockTimeMatch@@UAE_NPAUIServerUserItem@@GG@Z 1001bc50 f   LockTimeMatch.obj
 0001:0001ace0       ?OnEventUserJoinMatch@CLockTimeMatch@@UAE_NPAUIServerUserItem@@EK@Z 1001bce0 f   LockTimeMatch.obj
 0001:0001b120       ?OnEventUserLogon@CLockTimeMatch@@UAE_NPAUIServerUserItem@@@Z 1001c120 f   LockTimeMatch.obj
 0001:0001b380       ?OnEventUserLogonFinish@CLockTimeMatch@@UAE_NPAUIServerUserItem@@@Z 1001c380 f   LockTimeMatch.obj
 0001:0001b5c0       ?OnEventUserLogout@CLockTimeMatch@@UAE_NPAUIServerUserItem@@@Z 1001c5c0 f   LockTimeMatch.obj
 0001:0001b5f0       ?OnEventUserQuitMatch@CLockTimeMatch@@UAE_NPAUIServerUserItem@@EPAGK@Z 1001c5f0 f   LockTimeMatch.obj
 0001:0001b850       ?OnEventUserReturnMatch@CLockTimeMatch@@UAE_NPAUITableFrame@@PAUIServerUserItem@@@Z 1001c850 f   LockTimeMatch.obj
 0001:0001b8a0       ?OnStartService@CLockTimeMatch@@UAEXXZ 1001c8a0 f   LockTimeMatch.obj
 0001:0001ba00       ?PerformAllUserStandUp@CLockTimeMatch@@IAEXPAUITableFrame@@@Z 1001ca00 f   LockTimeMatch.obj
 0001:0001bae0       ?PerformDistribute@CLockTimeMatch@@IAE_NXZ 1001cae0 f   LockTimeMatch.obj
 0001:0001c020       ?QueryInterface@CLockTimeMatch@@UAEPAXABU_GUID@@K@Z 1001d020 f   LockTimeMatch.obj
 0001:0001c189       ?QueryInterface@CLockTimeMatch@@W3AEPAXABU_GUID@@K@Z 1001d189 f i LockTimeMatch.obj
 0001:0001c193       ?QueryInterface@CLockTimeMatch@@W7AEPAXABU_GUID@@K@Z 1001d193 f i LockTimeMatch.obj
 0001:0001c1a0       ?Release@CLockTimeMatch@@UAEXXZ 1001d1a0 f i LockTimeMatch.obj
 0001:0001c1f0       ?Release@CLockTimeMatch@@W3AEXXZ 1001d1f0 f i LockTimeMatch.obj
 0001:0001c1fa       ?Release@CLockTimeMatch@@W7AEXXZ 1001d1fa f i LockTimeMatch.obj
 0001:0001c210       ?RemoveDistribute@CLockTimeMatch@@IAE_NPAUIServerUserItem@@@Z 1001d210 f   LockTimeMatch.obj
 0001:0001c280       ?SendDeductFeeNotify@CLockTimeMatch@@IAE_NPAUIServerUserItem@@@Z 1001d280 f   LockTimeMatch.obj
 0001:0001c450       ?SendEliminateNotify@CLockTimeMatch@@IAE_NPAUIServerUserItem@@@Z 1001d450 f   LockTimeMatch.obj
 0001:0001c5e0       ?SendMatchUserInitScore@CLockTimeMatch@@IAE_NPAUIServerUserItem@@@Z 1001d5e0 f   LockTimeMatch.obj
 0001:0001c6a0       ?SendMatchUserScore@CLockTimeMatch@@IAE_NPAUIServerUserItem@@@Z 1001d6a0 f   LockTimeMatch.obj
 0001:0001c800       ?SendReviveNotify@CLockTimeMatch@@IAE_NPAUIServerUserItem@@E_N@Z 1001d800 f   LockTimeMatch.obj
 0001:0001c9d0       ?SendSafeCardNotify@CLockTimeMatch@@IAE_NPAUIServerUserItem@@@Z 1001d9d0 f   LockTimeMatch.obj
 0001:0001cb00       ?SendSignupSuccessNotify@CLockTimeMatch@@IAE_NPAUIServerUserItem@@@Z 1001db00 f   LockTimeMatch.obj
 0001:0001cba0       ?SendTableUserMatchInfo@CLockTimeMatch@@IAEXPAUITableFrame@@G@Z 1001dba0 f   LockTimeMatch.obj
 0001:0001ce00       ?SetDistributeRule@CDistributeManager@@QAEXE@Z 1001de00 f i LockTimeMatch.obj
 0001:0001ce30       ?SwitchMatchTimer@CLockTimeMatch@@IAEXXZ 1001de30 f   LockTimeMatch.obj
 0001:0001cfd0       ?UpdateMatchStatus@CLockTimeMatch@@IAEXXZ 1001dfd0 f   LockTimeMatch.obj
 0001:0001d270       ?VerifyMatchTime@CLockTimeMatch@@AAE_NPADGAAG@Z 1001e270 f   LockTimeMatch.obj
 0001:0001d5f0       ?VerifyUserEnterMatch@CLockTimeMatch@@AAE_NPAUIServerUserItem@@@Z 1001e5f0 f   LockTimeMatch.obj
 0001:0001d980       ?WriteUserAward@CLockTimeMatch@@IAE_NPAUIServerUserItem@@PAUtagMatchRankInfo@@@Z 1001e980 f   LockTimeMatch.obj
 0001:0001dbf0       __snprintf_s               1001ebf0 f i LockTimeMatch.obj
 0001:0001dc80       ??0CMatchServiceManager@@QAE@XZ 1001ec80 f   MatchServiceManager.obj
 0001:0001dcd0       ??0IMatchServiceManager@@QAE@XZ 1001ecd0 f i MatchServiceManager.obj
 0001:0001dd00       ??1CMatchServiceManager@@UAE@XZ 1001ed00 f   MatchServiceManager.obj
 0001:0001dde0       ?BindTableFrame@CMatchServiceManager@@UAE_NPAUITableFrame@@G@Z 1001ede0 f   MatchServiceManager.obj
 0001:0001de60       ?CreateGameMatch@CMatchServiceManager@@UAE_NE@Z 1001ee60 f   MatchServiceManager.obj
 0001:0001e0a0       ?GetServerUserItemSink@CMatchServiceManager@@UAEPAUIUnknownEx@@XZ 1001f0a0 f   MatchServiceManager.obj
 0001:0001e140       ?InitMatchInterface@CMatchServiceManager@@UAE_NAAUtagMatchManagerParameter@@@Z 1001f140 f   MatchServiceManager.obj
 0001:0001e1c0       ?OnEventDataBase@CMatchServiceManager@@UAE_NGPAUIServerUserItem@@PAXGK@Z 1001f1c0 f   MatchServiceManager.obj
 0001:0001e250       ?OnEventEnterMatch@CMatchServiceManager@@UAE_NKPAXK_N@Z 1001f250 f   MatchServiceManager.obj
 0001:0001e2e0       ?OnEventSocketMatch@CMatchServiceManager@@UAE_NGPAXGPAUIServerUserItem@@K@Z 1001f2e0 f   MatchServiceManager.obj
 0001:0001e370       ?OnEventTimer@CMatchServiceManager@@UAE_NKI@Z 1001f370 f   MatchServiceManager.obj
 0001:0001e3f0       ?OnEventUserJoinMatch@CMatchServiceManager@@UAE_NPAUIServerUserItem@@EK@Z 1001f3f0 f   MatchServiceManager.obj
 0001:0001e470       ?OnEventUserLogon@CMatchServiceManager@@UAE_NPAUIServerUserItem@@@Z 1001f470 f   MatchServiceManager.obj
 0001:0001e4f0       ?OnEventUserLogonFinish@CMatchServiceManager@@UAE_NPAUIServerUserItem@@@Z 1001f4f0 f   MatchServiceManager.obj
 0001:0001e570       ?OnEventUserLogout@CMatchServiceManager@@UAE_NPAUIServerUserItem@@@Z 1001f570 f   MatchServiceManager.obj
 0001:0001e5f0       ?OnEventUserQuitMatch@CMatchServiceManager@@UAE_NPAUIServerUserItem@@EPAGK@Z 1001f5f0 f   MatchServiceManager.obj
 0001:0001e680       ?QueryInterface@CMatchServiceManager@@UAEPAXABU_GUID@@K@Z 1001f680 f   MatchServiceManager.obj
 0001:0001e730       ?StartService@CMatchServiceManager@@UAE_NXZ 1001f730 f   MatchServiceManager.obj
 0001:0001e7c0       ?StopService@CMatchServiceManager@@UAE_NXZ 1001f7c0 f   MatchServiceManager.obj
 0001:0001e850       _CreateMatchServiceManager 1001f850 f   MatchServiceManager.obj
 0001:0001ea20       ?_AfxInitManaged@@YAHXZ    1001fa20 f i Stdafx.obj
 0001:0001ea40       ??$AtlAdd@H@ATL@@YAJPAHHH@Z 1001fa40 f i Stdafx.obj
 0001:0001ea90       ??$AtlAdd@I@ATL@@YAJPAIII@Z 1001fa90 f i Stdafx.obj
 0001:0001eae0       ??$AtlAdd@K@ATL@@YAJPAKKK@Z 1001fae0 f i Stdafx.obj
 0001:0001eb30       ??$AtlAlignUp@H@ATL@@YGHHK@Z 1001fb30 f i Stdafx.obj
 0001:0001eb60       ??$AtlMultiply@K@ATL@@YAJPAKKK@Z 1001fb60 f i Stdafx.obj
 0001:0001ebc0       ??$_Getvals@_W@?$time_get@DV?$istreambuf_iterator@DU?$char_traits@D@std@@@std@@@std@@IAEX_WABV_Locinfo@1@@Z 1001fbc0 f i Stdafx.obj
 0001:0001ecf0       ??$_Getvals@_W@?$time_get@_WV?$istreambuf_iterator@_WU?$char_traits@_W@std@@@std@@@std@@IAEX_WABV_Locinfo@1@@Z 1001fcf0 f i Stdafx.obj
 0001:0001ee20       ??$_Maklocstr@D@std@@YAPADPBDPADABU_Cvtvec@@@Z 1001fe20 f i Stdafx.obj
 0001:0001eed0       ??$_Maklocstr@_W@std@@YAPA_WPBDPA_WABU_Cvtvec@@@Z 1001fed0 f i Stdafx.obj
 0001:0001f050       ??0?$CSimpleArray@GV?$CSimpleArrayEqualHelper@G@ATL@@@ATL@@QAE@XZ 10020050 f i Stdafx.obj
 0001:0001f090       ??0?$CTraceCategoryEx@$00$0A@@ATL@@QAE@PBD@Z 10020090 f i Stdafx.obj
 0001:0001f0c0       ??0?$CTraceCategoryEx@$01$0A@@ATL@@QAE@PBD@Z 100200c0 f i Stdafx.obj
 0001:0001f0f0       ??0?$CTraceCategoryEx@$03$0A@@ATL@@QAE@PBD@Z 100200f0 f i Stdafx.obj
 0001:0001f120       ??0?$CTraceCategoryEx@$07$0A@@ATL@@QAE@PBD@Z 10020120 f i Stdafx.obj
 0001:0001f150       ??0?$CTraceCategoryEx@$0BA@$0A@@ATL@@QAE@PBD@Z 10020150 f i Stdafx.obj
 0001:0001f180       ??0?$CTraceCategoryEx@$0BAA@$0A@@ATL@@QAE@PBD@Z 10020180 f i Stdafx.obj
 0001:0001f1c0       ??0?$CTraceCategoryEx@$0BAAA@$0A@@ATL@@QAE@PBD@Z 100201c0 f i Stdafx.obj
 0001:0001f200       ??0?$CTraceCategoryEx@$0BAAAA@$0A@@ATL@@QAE@PBD@Z 10020200 f i Stdafx.obj
 0001:0001f240       ??0?$CTraceCategoryEx@$0BAAAAA@$0A@@ATL@@QAE@PBD@Z 10020240 f i Stdafx.obj
 0001:0001f280       ??0?$CTraceCategoryEx@$0CA@$0A@@ATL@@QAE@PBD@Z 10020280 f i Stdafx.obj
 0001:0001f2b0       ??0?$CTraceCategoryEx@$0CAA@$0A@@ATL@@QAE@PBD@Z 100202b0 f i Stdafx.obj
 0001:0001f2f0       ??0?$CTraceCategoryEx@$0CAAAA@$0A@@ATL@@QAE@PBD@Z 100202f0 f i Stdafx.obj
 0001:0001f330       ??0?$CTraceCategoryEx@$0CAAAAA@$0A@@ATL@@QAE@PBD@Z 10020330 f i Stdafx.obj
 0001:0001f370       ??0?$CTraceCategoryEx@$0EA@$0A@@ATL@@QAE@PBD@Z 10020370 f i Stdafx.obj
 0001:0001f3a0       ??0?$CTraceCategoryEx@$0EAA@$0A@@ATL@@QAE@PBD@Z 100203a0 f i Stdafx.obj
 0001:0001f3e0       ??0?$CTraceCategoryEx@$0EAAA@$0A@@ATL@@QAE@PBD@Z 100203e0 f i Stdafx.obj
 0001:0001f420       ??0?$CTraceCategoryEx@$0EAAAA@$0A@@ATL@@QAE@PBD@Z 10020420 f i Stdafx.obj
 0001:0001f460       ??0?$CTraceCategoryEx@$0EAAAAA@$0A@@ATL@@QAE@PBD@Z 10020460 f i Stdafx.obj
 0001:0001f4a0       ??0?$CTraceCategoryEx@$0IA@$0A@@ATL@@QAE@PBD@Z 100204a0 f i Stdafx.obj
 0001:0001f4e0       ??0?$CTraceCategoryEx@$0IAA@$0A@@ATL@@QAE@PBD@Z 100204e0 f i Stdafx.obj
 0001:0001f520       ??0?$CTraceCategoryEx@$0IAAA@$0A@@ATL@@QAE@PBD@Z 10020520 f i Stdafx.obj
 0001:0001f560       ??0?$CTraceCategoryEx@$0IAAAA@$0A@@ATL@@QAE@PBD@Z 10020560 f i Stdafx.obj
 0001:0001f5a0       ??0CAtlComModule@ATL@@QAE@XZ 100205a0 f i Stdafx.obj
 0001:0001f690       ??0CAtlStringMgr@ATL@@QAE@PAUIAtlMemMgr@1@@Z 10020690 f i Stdafx.obj
 0001:0001f6f0       ??0CAtlStringMgrStaticInitializer@ATLImplementationDetails@ATL@@QAE@XZ 100206f0 f i Stdafx.obj
 0001:0001f720       ??0CAtlWinModule@ATL@@QAE@XZ 10020720 f i Stdafx.obj
 0001:0001f7c0       ??0CComCriticalSection@ATL@@QAE@XZ 100207c0 f i Stdafx.obj
 0001:0001f7f0       ??0CNilStringData@ATL@@QAE@XZ 100207f0 f i Stdafx.obj
 0001:0001f870       ??0CWin32Heap@ATL@@QAE@PAX@Z 10020870 f i Stdafx.obj
 0001:0001f8f0       ??0_ATL_COM_MODULE70@ATL@@QAE@XZ 100208f0 f i Stdafx.obj
 0001:0001f920       ??0_ATL_WIN_MODULE70@ATL@@QAE@XZ 10020920 f i Stdafx.obj
 0001:0001f9a0       ??1?$CSimpleArray@GV?$CSimpleArrayEqualHelper@G@ATL@@@ATL@@QAE@XZ 100209a0 f i Stdafx.obj
 0001:0001fa00       ??1CAtlComModule@ATL@@QAE@XZ 10020a00 f i Stdafx.obj
 0001:0001fa60       ??1CAtlStringMgr@ATL@@UAE@XZ 10020a60 f i Stdafx.obj
 0001:0001fa80       ??1CAtlWinModule@ATL@@QAE@XZ 10020a80 f i Stdafx.obj
 0001:0001fae0       ??1CComCriticalSection@ATL@@QAE@XZ 10020ae0 f i Stdafx.obj
 0001:0001fb00       ??1CWin32Heap@ATL@@UAE@XZ  10020b00 f i Stdafx.obj
 0001:0001fb90       ??1_ATL_COM_MODULE70@ATL@@QAE@XZ 10020b90 f i Stdafx.obj
 0001:0001fbc0       ??1_ATL_WIN_MODULE70@ATL@@QAE@XZ 10020bc0 f i Stdafx.obj
 0001:0001fc00       ??A?$CSimpleArray@GV?$CSimpleArrayEqualHelper@G@ATL@@@ATL@@QAEAAGH@Z 10020c00 f i Stdafx.obj
 0001:0001fca0       ??B?$CTraceCategoryEx@$01$0A@@ATL@@QAEIXZ 10020ca0 f i Stdafx.obj
 0001:0001fcc0       ??B?$CTraceCategoryEx@$0CA@$0A@@ATL@@QAEIXZ 10020cc0 f i Stdafx.obj
 0001:0001fce0       ??_ECAtlStringMgr@ATL@@UAEPAXI@Z 10020ce0 f i Stdafx.obj
 0001:0001fce0       ??_GCAtlStringMgr@ATL@@UAEPAXI@Z 10020ce0 f i Stdafx.obj
 0001:0001fd30       ??_ECWin32Heap@ATL@@UAEPAXI@Z 10020d30 f i Stdafx.obj
 0001:0001fd30       ??_GCWin32Heap@ATL@@UAEPAXI@Z 10020d30 f i Stdafx.obj
 0001:0001fd80       ??_H@YGXPAXIIP6EPAX0@Z@Z   10020d80 f i Stdafx.obj
 0001:0001fdd0       ?AddRef@CStringData@ATL@@QAEXXZ 10020dd0 f i Stdafx.obj
 0001:0001fe30       ?Allocate@CAtlStringMgr@ATL@@UAEPAUCStringData@2@HH@Z 10020e30 f i Stdafx.obj
 0001:00020000       ?Allocate@CWin32Heap@ATL@@UAEPAXI@Z 10021000 f i Stdafx.obj
 0001:00020040       ?AtlWinModuleInit@ATL@@YGJPAU_ATL_WIN_MODULE70@1@@Z 10021040 f i Stdafx.obj
 0001:00020130       ?AtlWinModuleTerm@ATL@@YGJPAU_ATL_WIN_MODULE70@1@PAUHINSTANCE__@@@Z 10021130 f i Stdafx.obj
 0001:00020200       ?Clone@CAtlStringMgr@ATL@@UAEPAUIAtlStringMgr@2@XZ 10021200 f i Stdafx.obj
 0001:00020220       ?Free@CAtlStringMgr@ATL@@UAEXPAUCStringData@2@@Z 10021220 f i Stdafx.obj
 0001:000202d0       ?Free@CWin32Heap@ATL@@UAEXPAX@Z 100212d0 f i Stdafx.obj
 0001:00020350       ?GetInstance@CAtlStringMgr@ATL@@SAPAUIAtlStringMgr@2@XZ 10021350 f i Stdafx.obj
 0001:00020450       ?GetModuleInstance@CAtlBaseModule@ATL@@QAEPAUHINSTANCE__@@XZ 10021450 f i Stdafx.obj
 0001:00020470       ?GetNilString@CAtlStringMgr@ATL@@UAEPAUCStringData@2@XZ 10021470 f i Stdafx.obj
 0001:000204a0       ?GetSize@?$CSimpleArray@GV?$CSimpleArrayEqualHelper@G@ATL@@@ATL@@QBEHXZ 100214a0 f i Stdafx.obj
 0001:000204c0       ?GetSize@CWin32Heap@ATL@@UAEIPAX@Z 100214c0 f i Stdafx.obj
 0001:00020500       ?Init@CComCriticalSection@ATL@@QAEJXZ 10021500 f i Stdafx.obj
 0001:00020560       ?Reallocate@CAtlStringMgr@ATL@@UAEPAUCStringData@2@PAU32@HH@Z 10021560 f i Stdafx.obj
 0001:00020750       ?Reallocate@CWin32Heap@ATL@@UAEPAXPAXI@Z 10021750 f i Stdafx.obj
 0001:000207d0       ?RemoveAll@?$CSimpleArray@GV?$CSimpleArrayEqualHelper@G@ATL@@@ATL@@QAEXXZ 100217d0 f i Stdafx.obj
 0001:00020850       ?SetManager@CNilStringData@ATL@@QAEXPAUIAtlStringMgr@2@@Z 10021850 f i Stdafx.obj
 0001:000208b0       ?Term@CAtlComModule@ATL@@QAEXXZ 100218b0 f i Stdafx.obj
 0001:00020970       ?Term@CAtlWinModule@ATL@@QAEXXZ 10021970 f i Stdafx.obj
 0001:000209a0       ?Term@CComCriticalSection@ATL@@QAEJXZ 100219a0 f i Stdafx.obj
 0001:000209d0       ?_AtlInitializeCriticalSectionEx@ATL@@YAHPAU_RTL_CRITICAL_SECTION@@KK@Z 100219d0 f i Stdafx.obj
 0001:00020a00       ?_AtlRaiseException@ATL@@YAXKK@Z 10021a00 f i Stdafx.obj
 0001:00020a30       ?_Maklocwcs@std@@YAPA_WPB_W@Z 10021a30 f i Stdafx.obj
 0001:00020ab0       _wmemcpy                   10021ab0 f i Stdafx.obj
 0001:00020ae0       ??0CTableFrameHook@@QAE@XZ 10021ae0 f   TableFrameHook.obj
 0001:00020b50       ??0ITableFrameHook@@QAE@XZ 10021b50 f i TableFrameHook.obj
 0001:00020b80       ??0ITableUserAction@@QAE@XZ 10021b80 f i TableFrameHook.obj
 0001:00020bb0       ??1CTableFrameHook@@UAE@XZ 10021bb0 f   TableFrameHook.obj
 0001:00020be0       ??_GCTableFrameHook@@UAEPAXI@Z 10021be0 f i TableFrameHook.obj
 0001:00020be0       ??_ECTableFrameHook@@UAEPAXI@Z 10021be0 f i TableFrameHook.obj
 0001:00020c30       ?InitTableFrameHook@CTableFrameHook@@UAE_NPAUIUnknownEx@@@Z 10021c30 f   TableFrameHook.obj
 0001:00020d10       ?OnActionUserConnect@CTableFrameHook@@UAE_NGPAUIServerUserItem@@@Z 10021d10 f i TableFrameHook.obj
 0001:00020d30       ?OnActionUserOffLine@CTableFrameHook@@UAE_NGPAUIServerUserItem@@@Z 10021d30 f i TableFrameHook.obj
 0001:00020d50       ?OnActionUserOnReady@CTableFrameHook@@UAE_NGPAUIServerUserItem@@PAXG@Z 10021d50 f   TableFrameHook.obj
 0001:00020dc0       ?OnActionUserSitDown@CTableFrameHook@@UAE_NGPAUIServerUserItem@@_N@Z 10021dc0 f   TableFrameHook.obj
 0001:00020e30       ?OnActionUserStandUp@CTableFrameHook@@UAE_NGPAUIServerUserItem@@_N@Z 10021e30 f   TableFrameHook.obj
 0001:00020ea0       ?OnEventGameEnd@CTableFrameHook@@UAE_NGPAUIServerUserItem@@E@Z 10021ea0 f   TableFrameHook.obj
 0001:00020f00       ?OnEventGameStart@CTableFrameHook@@UAE_NG@Z 10021f00 f   TableFrameHook.obj
 0001:00020f60       ?OnEventUserReturnMatch@CTableFrameHook@@UAE_NPAUIServerUserItem@@@Z 10021f60 f   TableFrameHook.obj
 0001:00020fb0       ?QueryInterface@CTableFrameHook@@UAEPAXABU_GUID@@K@Z 10021fb0 f   TableFrameHook.obj
 0001:000210b5       ?QueryInterface@CTableFrameHook@@W3AEPAXABU_GUID@@K@Z 100220b5 f i TableFrameHook.obj
 0001:000210c0       ?Release@CTableFrameHook@@UAEXXZ 100220c0 f i TableFrameHook.obj
 0001:00021110       ?Release@CTableFrameHook@@W3AEXXZ 10022110 f i TableFrameHook.obj
 0001:00021120       ?SetMatchEventSink@CTableFrameHook@@UAE_NPAUIUnknownEx@@@Z 10022120 f   TableFrameHook.obj
 0001:0002117b       ?TraceString@CTraceService@@SA_NPBDW4enTraceLevel@@@Z 1002217b f   KernelEngine:KernelEngine.dll
 0001:00021181       ??2@YAPAXI@Z               10022181 f   mfc140d:mfc140d.dll
 0001:00021187       ??_U@YAPAXI@Z              10022187 f   mfc140d:mfc140d.dll
 0001:0002118d       ??_V@YAXPAX@Z              1002218d f   mfc140d:mfc140d.dll
 0001:00021193       ?AfxAssertValidObject@@YGXPBVCObject@@PBDH@Z 10022193 f   mfc140d:mfc140d.dll
 0001:00021199       ?AfxThrowInvalidArgException@@YGXXZ 10022199 f   mfc140d:mfc140d.dll
 0001:0002119f       ?GetRuntimeClass@CObject@@UBEPAUCRuntimeClass@@XZ 1002219f f   mfc140d:mfc140d.dll
 0001:000211a5       ??1CObject@@UAE@XZ         100221a5 f   mfc140d:mfc140d.dll
 0001:000211ab       ??3CObject@@SGXPAX@Z       100221ab f   mfc140d:mfc140d.dll
 0001:000211b1       ??0CObject@@IAE@XZ         100221b1 f   mfc140d:mfc140d.dll
 0001:000211b7       ?Serialize@CObject@@UAEXAAVCArchive@@@Z 100221b7 f   mfc140d:mfc140d.dll
 0001:000211bd       ?AssertValid@CObject@@UBEXXZ 100221bd f   mfc140d:mfc140d.dll
 0001:000211c3       ?Dump@CObject@@UBEXAAVCDumpContext@@@Z 100221c3 f   mfc140d:mfc140d.dll
 0001:000211c9       ?AfxIsValidAddress@@YGHPBXIH@Z 100221c9 f   mfc140d:mfc140d.dll
 0001:000211cf       ??_U@YAPAXIPBDH@Z          100221cf f   mfc140d:mfc140d.dll
 0001:000211d5       ?IsStoring@CArchive@@QBEHXZ 100221d5 f   mfc140d:mfc140d.dll
 0001:000211db       ?EnsureRead@CArchive@@QAEXPAXI@Z 100221db f   mfc140d:mfc140d.dll
 0001:000211e1       ?Write@CArchive@@QAEXPBXI@Z 100221e1 f   mfc140d:mfc140d.dll
 0001:000211e7       ?ReadCount@CArchive@@QAEKXZ 100221e7 f   mfc140d:mfc140d.dll
 0001:000211ed       ?WriteCount@CArchive@@QAEXK@Z 100221ed f   mfc140d:mfc140d.dll
 0001:000211f3       ?GetDepth@CDumpContext@@QBEHXZ 100221f3 f   mfc140d:mfc140d.dll
 0001:000211f9       ??6CDumpContext@@QAEAAV0@PBD@Z 100221f9 f   mfc140d:mfc140d.dll
 0001:000211ff       ??6CDumpContext@@QAEAAV0@H@Z 100221ff f   mfc140d:mfc140d.dll
 0001:00021205       ?Create@CPlex@@SGPAU1@AAPAU1@II@Z 10022205 f   mfc140d:mfc140d.dll
 0001:0002120b       ?FreeDataChain@CPlex@@QAEXXZ 1002220b f   mfc140d:mfc140d.dll
 0001:00021211       ??3@YAXPAX@Z               10022211 f   mfc140d:mfc140d.dll
 0001:00021217       ??2CObject@@SGPAXI@Z       10022217 f   mfc140d:mfc140d.dll
 0001:0002121d       ?AfxGetModuleState@@YGPAVAFX_MODULE_STATE@@XZ 1002221d f   mfc140d:mfc140d.dll
 0001:00021223       ??0CDynLinkLibrary@@QAE@AAUAFX_EXTENSION_MODULE@@H@Z 10022223 f   mfc140d:mfc140d.dll
 0001:00021229       ?AfxInitExtensionModule@@YGHAAUAFX_EXTENSION_MODULE@@PAUHINSTANCE__@@@Z 10022229 f   mfc140d:mfc140d.dll
 0001:0002122f       ?AfxTermExtensionModule@@YGXAAUAFX_EXTENSION_MODULE@@H@Z 1002222f f   mfc140d:mfc140d.dll
 0001:00021235       ?AfxThrowMemoryException@@YGXXZ 10022235 f   mfc140d:mfc140d.dll
 0001:0002123b       ?AfxThrowOleException@@YGXJ@Z 1002223b f   mfc140d:mfc140d.dll
 0001:00021241       ??B?$CSimpleStringT@D$00@ATL@@QBEPBDXZ 10022241 f   mfc140d:mfc140d.dll
 0001:00021247       ??0?$CStringT@DV?$StrTraitMFC_DLL@DV?$ChTraitsCRT@D@ATL@@@@@ATL@@QAE@XZ 10022247 f   mfc140d:mfc140d.dll
 0001:0002124d       ??1?$CStringT@DV?$StrTraitMFC_DLL@DV?$ChTraitsCRT@D@ATL@@@@@ATL@@QAE@XZ 1002224d f   mfc140d:mfc140d.dll
 0001:00021253       ?Format@?$CStringT@DV?$StrTraitMFC_DLL@DV?$ChTraitsCRT@D@ATL@@@@@ATL@@QAAXPBDZZ 10022253 f   mfc140d:mfc140d.dll
 0001:00021259       ??2@YAPAXIPBDH@Z           10022259 f   mfc140d:mfc140d.dll
 0001:0002125f       ??3@YAXPAXPBDH@Z           1002225f f   mfc140d:mfc140d.dll
 0001:00021270       ??1CComBSTR@ATL@@QAE@XZ    10022270 f i mfcs140d:nolib.obj
 0001:000212b0       ??1stringdispid@CComTypeInfoHolder@ATL@@QAE@XZ 100222b0 f i mfcs140d:nolib.obj
 0001:000212e0       ??_Estringdispid@CComTypeInfoHolder@ATL@@QAEPAXI@Z 100222e0 f i mfcs140d:nolib.obj
 0001:000213c0       _IsolationAwareActivateActCtx@8 100223c0 f i mfcs140d:nolib.obj
 0001:00021480       _IsolationAwareCreateActCtxW@4 10022480 f i mfcs140d:nolib.obj
 0001:00021540       _IsolationAwareDeactivateActCtx@8 10022540 f i mfcs140d:nolib.obj
 0001:00021600       _IsolationAwareFindActCtxSectionStringW@20 10022600 f i mfcs140d:nolib.obj
 0001:000216d0       _IsolationAwarePrivatenPgViNgRzlnPgpgk@4 100226d0 f i mfcs140d:nolib.obj
 0001:000217f0       _IsolationAwarePrivatezltRgCebPnQQeRff@12 100227f0 f i mfcs140d:nolib.obj
 0001:000218c0       _IsolationAwarePrivatezltRgzbQhYRuNaQYRJ@4 100228c0 f i mfcs140d:nolib.obj
 0001:000218f0       _IsolationAwarePrivatezltRgzbQhYRuNaQYRn@4 100228f0 f i mfcs140d:nolib.obj
 0001:00021920       _IsolationAwareQueryActCtxW@28 10022920 f i mfcs140d:nolib.obj
 0001:00021a00       _IsolationAwareUnregisterClassA@8 10022a00 f i mfcs140d:nolib.obj
 0001:00021c10       _WinbaseIsolationAwarePrivatetRgCebPnQQeRff_xReaRYQP_QYY@4 10022c10 f i mfcs140d:nolib.obj
 0001:00021c40       _WinbaseIsolationAwarePrivatetRgzlnPgpgk@0 10022c40 f i mfcs140d:nolib.obj
 0001:00022090       ??3@YAXPAXI@Z              10023090 f   msvcrtd:delete_scalar_size.obj
 0001:000220b0       @__security_check_cookie@4 100230b0 f   msvcrtd:secchk.obj
 0001:000220d0       ??1type_info@@UAE@XZ       100230d0 f   msvcrtd:std_type_info_static.obj
 0001:000220f0       ??_Gtype_info@@UAEPAXI@Z   100230f0 f i msvcrtd:std_type_info_static.obj
 0001:000220f0       ??_Etype_info@@UAEPAXI@Z   100230f0 f i msvcrtd:std_type_info_static.obj
 0001:00022130       ??_M@YGXPAXIHP6EX0@Z@Z     10023130 f   msvcrtd:ehvecdtr.obj
 0001:00022160       ??_M@YGXPAXIIP6EX0@Z@Z     10023160 f   msvcrtd:ehvecdtr.obj
 0001:000222a0       ?__ArrayUnwind@@YGXPAXIIP6EX0@Z@Z 100232a0 f   msvcrtd:ehvecdtr.obj
 0001:00022380       ??_V@YAXPAXI@Z             10023380 f   msvcrtd:delete_array_size.obj
 0001:000223e0       ??$__crt_fast_decode_pointer@P6GHPAU_RTL_CONDITION_VARIABLE@@PAU_RTL_CRITICAL_SECTION@@K@Z@@YAP6GHPAU_RTL_CONDITION_VARIABLE@@PAU_RTL_CRITICAL_SECTION@@K@ZQ6GH01K@Z@Z 100233e0 f i msvcrtd:thread_safe_statics.obj
 0001:00022410       ??$__crt_fast_decode_pointer@P6GXPAU_RTL_CONDITION_VARIABLE@@@Z@@YAP6GXPAU_RTL_CONDITION_VARIABLE@@@ZQ6GX0@Z@Z 10023410 f i msvcrtd:thread_safe_statics.obj
 0001:00022440       ??$__crt_fast_encode_pointer@P6GHPAU_RTL_CONDITION_VARIABLE@@PAU_RTL_CRITICAL_SECTION@@K@Z@@YAP6GHPAU_RTL_CONDITION_VARIABLE@@PAU_RTL_CRITICAL_SECTION@@K@ZQ6GH01K@Z@Z 10023440 f i msvcrtd:thread_safe_statics.obj
 0001:00022480       ??$__crt_fast_encode_pointer@P6GXPAU_RTL_CONDITION_VARIABLE@@@Z@@YAP6GXPAU_RTL_CONDITION_VARIABLE@@@ZQ6GX0@Z@Z 10023480 f i msvcrtd:thread_safe_statics.obj
 0001:000224c0       ?__crt_rotate_pointer_value@@YAIIH@Z 100234c0 f i msvcrtd:thread_safe_statics.obj
 0001:00022640       ?__scrt_is_event_api_used@@YA_NQAX@Z 10023640 f i msvcrtd:thread_safe_statics.obj
 0001:000226f0       __Init_thread_abort        100236f0 f   msvcrtd:thread_safe_statics.obj
 0001:00022720       __Init_thread_footer       10023720 f   msvcrtd:thread_safe_statics.obj
 0001:00022780       __Init_thread_header       10023780 f   msvcrtd:thread_safe_statics.obj
 0001:00022810       __Init_thread_lock         10023810 f   msvcrtd:thread_safe_statics.obj
 0001:00022830       __Init_thread_notify       10023830 f   msvcrtd:thread_safe_statics.obj
 0001:000228b0       __Init_thread_unlock       100238b0 f   msvcrtd:thread_safe_statics.obj
 0001:000228d0       __Init_thread_wait         100238d0 f   msvcrtd:thread_safe_statics.obj
 0001:00022990       __allmul                   10023990 f   msvcrtd:llmul.obj
 0001:000229e0       __allshl                   100239e0 f   msvcrtd:llshl.obj
 0001:00022a10       __alldiv                   10023a10 f   msvcrtd:lldiv.obj
 0001:00022af0       ??$__crt_fast_decode_pointer@PAP6AXXZ@@YAPAP6AXXZQAP6AXXZ@Z 10023af0 f i msvcrtd:utility.obj
 0001:00022b20       ??$__crt_fast_encode_pointer@PAP6AXXZ@@YAPAP6AXXZQAP6AXXZ@Z 10023b20 f i msvcrtd:utility.obj
 0001:00022b60       ?configure_argv@__scrt_narrow_argv_policy@@SAHXZ 10023b60 f i msvcrtd:utility.obj
 0001:00022c30       ?initialize_environment@__scrt_narrow_environment_policy@@SAHXZ 10023c30 f i msvcrtd:utility.obj
 0001:00022cd0       _NtCurrentTeb              10023cd0 f i msvcrtd:utility.obj
 0001:00022ce0       ___scrt_acquire_startup_lock 10023ce0 f   msvcrtd:utility.obj
 0001:00022d40       ___scrt_dllmain_after_initialize_c 10023d40 f   msvcrtd:utility.obj
 0001:00022d80       ___scrt_dllmain_before_initialize_c 10023d80 f   msvcrtd:utility.obj
 0001:00022db0       ___scrt_dllmain_crt_thread_attach 10023db0 f   msvcrtd:utility.obj
 0001:00022df0       ___scrt_dllmain_crt_thread_detach 10023df0 f   msvcrtd:utility.obj
 0001:00022e10       ___scrt_dllmain_exception_filter 10023e10 f   msvcrtd:utility.obj
 0001:00022e70       ___scrt_dllmain_uninitialize_c 10023e70 f   msvcrtd:utility.obj
 0001:00022eb0       ___scrt_dllmain_uninitialize_critical 10023eb0 f   msvcrtd:utility.obj
 0001:00022ed0       ___scrt_initialize_crt     10023ed0 f   msvcrtd:utility.obj
 0001:00022f30       ___scrt_initialize_onexit_tables 10023f30 f   msvcrtd:utility.obj
 0001:00023050       ___scrt_is_nonwritable_in_current_image 10024050 f   msvcrtd:utility.obj
 0001:000231d0       ___scrt_release_startup_lock 100241d0 f   msvcrtd:utility.obj
 0001:00023200       ___scrt_uninitialize_crt   10024200 f   msvcrtd:utility.obj
 0001:00023250       __onexit                   10024250 f   msvcrtd:utility.obj
 0001:000232e0       _at_quick_exit             100242e0 f   msvcrtd:utility.obj
 0001:00023340       _atexit                    10024340 f   msvcrtd:utility.obj
 0001:00023940       __CRT_INIT@12              10024940 f   msvcrtd:dll_dllmain.obj
 0001:00023960       __DllMainCRTStartup@12     10024960 f   msvcrtd:dll_dllmain.obj
 0001:00023990       @_RTC_AllocaHelper@12      10024990 f   msvcrtd:stack.obj
 0001:000239d0       @_RTC_CheckStackVars2@12   100249d0 f   msvcrtd:stack.obj
 0001:00023af0       @_RTC_CheckStackVars@8     10024af0 f   msvcrtd:stack.obj
 0001:00023b70       __RTC_CheckEsp             10024b70 f   msvcrtd:stack.obj
 0001:00023bb0       __CRT_RTC_INIT             10024bb0 f   msvcrtd:init.obj
 0001:00023bc0       __CRT_RTC_INITW            10024bc0 f   msvcrtd:init.obj
 0001:00023bd0       __RTC_InitBase             10024bd0 f   msvcrtd:init.obj
 0001:00023c10       __RTC_Shutdown             10024c10 f   msvcrtd:init.obj
 0001:00023c30       __except_handler4          10024c30 f   msvcrtd:chandler4gs.obj
 0001:00023c60       @_guard_check_icall_nop@4  10024c60 f i msvcrtd:guard_support.obj
 0001:00023c70       _ReadNoFence               10024c70 f i msvcrtd:guard_support.obj
 0001:00023c90       _ReadPointerNoFence        10024c90 f i msvcrtd:guard_support.obj
 0001:00023cb0       __guard_icall_checks_enforced 10024cb0 f i msvcrtd:guard_support.obj
 0001:00023cf0       ___raise_securityfailure   10024cf0 f   msvcrtd:gs_report.obj
 0001:00023d30       ___report_gsfailure        10024d30 f   msvcrtd:gs_report.obj
 0001:00023e80       ___report_rangecheckfailure 10024e80 f   msvcrtd:gs_report.obj
 0001:00023e90       ___report_securityfailure  10024e90 f   msvcrtd:gs_report.obj
 0001:00023fa0       ___report_securityfailureEx 10024fa0 f   msvcrtd:gs_report.obj
 0001:00024110       ___scrt_fastfail           10025110 f   msvcrtd:utility_desktop.obj
 0001:000242a0       ___scrt_get_show_window_mode 100252a0 f   msvcrtd:utility_desktop.obj
 0001:000242f0       ___scrt_initialize_mta     100252f0 f   msvcrtd:utility_desktop.obj
 0001:00024300       ___scrt_initialize_winrt   10025300 f   msvcrtd:utility_desktop.obj
 0001:00024310       ___scrt_is_managed_app     10025310 f   msvcrtd:utility_desktop.obj
 0001:000243c0       ___scrt_set_unhandled_exception_filter 100253c0 f   msvcrtd:utility_desktop.obj
 0001:000243e0       ___scrt_exe_initialize_mta 100253e0 f   msvcrtd:utility_desktop.obj
 0001:000243e0       ___scrt_stub_for_initialize_mta 100253e0 f   msvcrtd:utility_desktop.obj
 0001:000243f0       ___scrt_unhandled_exception_filter@4 100253f0 f   msvcrtd:utility_desktop.obj
 0001:00024470       __crt_debugger_hook        10025470 f   msvcrtd:utility_desktop.obj
 0001:00024490       ___isa_available_init      10025490 f   msvcrtd:cpu_disp.obj
 0001:00024820       __get_startup_argv_mode    10025820 f   msvcrtd:argv_mode.obj
 0001:00024830       ___scrt_is_ucrt_dll_in_use 10025830 f   msvcrtd:ucrt_detection.obj
 0001:000248f0       ___security_init_cookie    100258f0 f   msvcrtd:gs_support.obj
 0001:00024990       ?__scrt_initialize_type_info@@YAXXZ 10025990 f   msvcrtd:tncleanup.obj
 0001:000249b0       ?__scrt_uninitialize_type_info@@YAXXZ 100259b0 f   msvcrtd:tncleanup.obj
 0001:000249d0       ___local_stdio_scanf_options 100259d0 f i msvcrtd:default_local_stdio_options.obj
 0001:000249e0       ___scrt_initialize_default_local_stdio_options 100259e0 f   msvcrtd:default_local_stdio_options.obj
 0001:00024a30       ___scrt_get_dyn_tls_init_callback 10025a30 f   msvcrtd:dyn_tls_init.obj
 0001:00024a40       __RTC_Initialize           10025a40 f   msvcrtd:initsect.obj
 0001:00024a80       __RTC_Terminate            10025a80 f   msvcrtd:initsect.obj
 0001:00024b70       ?_RTC_AllocaFailure@@YAXPAXPAU_RTC_ALLOCA_NODE@@H@Z 10025b70 f   msvcrtd:error.obj
 0001:00024c90       ?_RTC_Failure@@YAXPAXH@Z   10025c90 f   msvcrtd:error.obj
 0001:00024d00       ?_RTC_StackFailure@@YAXPAXPBD@Z 10025d00 f   msvcrtd:error.obj
 0001:000251b0       __RTC_UninitUse            100261b0 f   msvcrtd:error.obj
 0001:00025290       __vsprintf_s_l             10026290 f i msvcrtd:error.obj
 0001:000252d0       _sprintf_s                 100262d0 f i msvcrtd:error.obj
 0001:00025300       ?_RTC_GetErrorFunc@@YAP6AHHPBDH00ZZPBX@Z 10026300 f   msvcrtd:userapi.obj
 0001:00025310       ?_RTC_GetErrorFuncW@@YAP6AHHPB_WH00ZZPBX@Z 10026310 f   msvcrtd:userapi.obj
 0001:00025320       __RTC_GetErrDesc           10026320 f   msvcrtd:userapi.obj
 0001:00025340       __RTC_NumErrors            10026340 f   msvcrtd:userapi.obj
 0001:00025350       __RTC_SetErrorFunc         10026350 f   msvcrtd:userapi.obj
 0001:00025380       __RTC_SetErrorFuncW        10026380 f   msvcrtd:userapi.obj
 0001:000253b0       __RTC_SetErrorType         100263b0 f   msvcrtd:userapi.obj
 0001:00025970       ?_RTC_GetSrcLine@@YAHPAEPA_WKPAH1K@Z 10026970 f   msvcrtd:pdblkup.obj
 0001:00025de0       __except_handler4_noexcept 10026de0 f   msvcrtd:chandler4_noexcept.obj
 0001:00025e38       _GetLastError@0            10026e38 f   kernel32:KERNEL32.dll
 0001:00025e3e       _SetLastError@4            10026e3e f   kernel32:KERNEL32.dll
 0001:00025e44       _lstrcpynA@12              10026e44 f   kernel32:KERNEL32.dll
 0001:00025e4a       _lstrlenA@4                10026e4a f   kernel32:KERNEL32.dll
 0001:00025e50       _MultiByteToWideChar@24    10026e50 f   kernel32:KERNEL32.dll
 0001:00025e56       _GetSystemTime@4           10026e56 f   kernel32:KERNEL32.dll
 0001:00025e5c       _GetLocalTime@4            10026e5c f   kernel32:KERNEL32.dll
 0001:00025e62       _DecodePointer@4           10026e62 f   kernel32:KERNEL32.dll
 0001:00025e68       _RaiseException@16         10026e68 f   kernel32:KERNEL32.dll
 0001:00025e6e       _HeapDestroy@4             10026e6e f   kernel32:KERNEL32.dll
 0001:00025e74       _HeapAlloc@12              10026e74 f   kernel32:KERNEL32.dll
 0001:00025e7a       _HeapReAlloc@16            10026e7a f   kernel32:KERNEL32.dll
 0001:00025e80       _HeapFree@12               10026e80 f   kernel32:KERNEL32.dll
 0001:00025e86       _HeapSize@12               10026e86 f   kernel32:KERNEL32.dll
 0001:00025e8c       _GetProcessHeap@0          10026e8c f   kernel32:KERNEL32.dll
 0001:00025e92       _InitializeCriticalSectionAndSpinCount@8 10026e92 f   kernel32:KERNEL32.dll
 0001:00025e98       _DeleteCriticalSection@4   10026e98 f   kernel32:KERNEL32.dll
 0001:00025e9e       _OutputDebugStringA@4      10026e9e f   kernel32:KERNEL32.dll
 0001:00025ea4       _GetModuleFileNameW@12     10026ea4 f   kernel32:KERNEL32.dll
 0001:00025eaa       _GetModuleHandleA@4        10026eaa f   kernel32:KERNEL32.dll
 0001:00025eb0       _GetModuleHandleW@4        10026eb0 f   kernel32:KERNEL32.dll
 0001:00025eb6       _GetProcAddress@8          10026eb6 f   kernel32:KERNEL32.dll
 0001:00025ebc       _LoadLibraryW@4            10026ebc f   kernel32:KERNEL32.dll
 0001:00025ec2       _CloseHandle@4             10026ec2 f   kernel32:KERNEL32.dll
 0001:00025ec8       _EnterCriticalSection@4    10026ec8 f   kernel32:KERNEL32.dll
 0001:00025ece       _LeaveCriticalSection@4    10026ece f   kernel32:KERNEL32.dll
 0001:00025ed4       _SetEvent@4                10026ed4 f   kernel32:KERNEL32.dll
 0001:00025eda       _ResetEvent@4              10026eda f   kernel32:KERNEL32.dll
 0001:00025ee0       _WaitForSingleObjectEx@12  10026ee0 f   kernel32:KERNEL32.dll
 0001:00025ee6       _CreateEventW@16           10026ee6 f   kernel32:KERNEL32.dll
 0001:00025eec       _UnhandledExceptionFilter@4 10026eec f   kernel32:KERNEL32.dll
 0001:00025ef2       _SetUnhandledExceptionFilter@4 10026ef2 f   kernel32:KERNEL32.dll
 0001:00025ef8       _GetCurrentProcess@0       10026ef8 f   kernel32:KERNEL32.dll
 0001:00025efe       _TerminateProcess@8        10026efe f   kernel32:KERNEL32.dll
 0001:00025f04       _IsProcessorFeaturePresent@4 10026f04 f   kernel32:KERNEL32.dll
 0001:00025f0a       _IsDebuggerPresent@0       10026f0a f   kernel32:KERNEL32.dll
 0001:00025f10       _GetStartupInfoW@4         10026f10 f   kernel32:KERNEL32.dll
 0001:00025f16       _QueryPerformanceCounter@4 10026f16 f   kernel32:KERNEL32.dll
 0001:00025f1c       _GetCurrentProcessId@0     10026f1c f   kernel32:KERNEL32.dll
 0001:00025f22       _GetCurrentThreadId@0      10026f22 f   kernel32:KERNEL32.dll
 0001:00025f28       _GetSystemTimeAsFileTime@4 10026f28 f   kernel32:KERNEL32.dll
 0001:00025f2e       _InitializeSListHead@4     10026f2e f   kernel32:KERNEL32.dll
 0001:00025f34       _WideCharToMultiByte@32    10026f34 f   kernel32:KERNEL32.dll
 0001:00025f3a       _VirtualQuery@12           10026f3a f   kernel32:KERNEL32.dll
 0001:00025f40       _FreeLibrary@4             10026f40 f   kernel32:KERNEL32.dll
 0001:00025f46       _PeekMessageA@20           10026f46 f   user32:USER32.dll
 0001:00025f4c       _PostQuitMessage@4         10026f4c f   user32:USER32.dll
 0001:00025f52       _UnregisterClassA@8        10026f52 f   user32:USER32.dll
 0001:00025f58       ??$?2PAUHINSTANCE__@@@Wrapper@?$CSimpleArray@PAUHINSTANCE__@@V?$CSimpleArrayEqualHelper@PAUHINSTANCE__@@@ATL@@@ATL@@SAPAXIPAPAUHINSTANCE__@@@Z 10026f58 f i atls:atlbase.obj
 0001:00025f62       ??0?$CComCritSecLock@VCComCriticalSection@ATL@@@ATL@@QAE@AAVCComCriticalSection@1@_N@Z 10026f62 f i atls:atlbase.obj
 0001:00025f92       ??0?$CSimpleArray@PAUHINSTANCE__@@V?$CSimpleArrayEqualHelper@PAUHINSTANCE__@@@ATL@@@ATL@@QAE@XZ 10026f92 f i atls:atlbase.obj
 0001:00025fa2       ??0CAtlBaseModule@ATL@@QAE@XZ 10026fa2 f   atls:atlbase.obj
 0001:00026009       ??0Wrapper@?$CSimpleArray@PAUHINSTANCE__@@V?$CSimpleArrayEqualHelper@PAUHINSTANCE__@@@ATL@@@ATL@@QAE@ABQAUHINSTANCE__@@@Z 10027009 f i atls:atlbase.obj
 0001:0002601d       ??0_ATL_BASE_MODULE70@ATL@@QAE@XZ 1002701d f i atls:atlbase.obj
 0001:00026048       ??1?$CComCritSecLock@VCComCriticalSection@ATL@@@ATL@@QAE@XZ 10027048 f i atls:atlbase.obj
 0001:00026064       ??1?$CSimpleArray@PAUHINSTANCE__@@V?$CSimpleArrayEqualHelper@PAUHINSTANCE__@@@ATL@@@ATL@@QAE@XZ 10027064 f i atls:atlbase.obj
 0001:00026069       ??1CAtlBaseModule@ATL@@QAE@XZ 10027069 f   atls:atlbase.obj
 0001:00026084       ??1_ATL_BASE_MODULE70@ATL@@QAE@XZ 10027084 f i atls:atlbase.obj
 0001:0002608e       ??A?$CSimpleArray@PAUHINSTANCE__@@V?$CSimpleArrayEqualHelper@PAUHINSTANCE__@@@ATL@@@ATL@@QAEAAPAUHINSTANCE__@@H@Z 1002708e f i atls:atlbase.obj
 0001:000260bc       ?Add@?$CSimpleArray@PAUHINSTANCE__@@V?$CSimpleArrayEqualHelper@PAUHINSTANCE__@@@ATL@@@ATL@@QAEHABQAUHINSTANCE__@@@Z 100270bc f i atls:atlbase.obj
 0001:0002615e       ?AddResourceInstance@CAtlBaseModule@ATL@@QAE_NPAUHINSTANCE__@@@Z 1002715e f   atls:atlbase.obj
 0001:0002619d       ?AtlCrtErrorCheck@ATL@@YAHH@Z 1002719d f i atls:atlbase.obj
 0001:000261e6       ?GetHInstanceAt@CAtlBaseModule@ATL@@QAEPAUHINSTANCE__@@H@Z 100271e6 f   atls:atlbase.obj
 0001:0002623c       ?GetSize@?$CSimpleArray@PAUHINSTANCE__@@V?$CSimpleArrayEqualHelper@PAUHINSTANCE__@@@ATL@@@ATL@@QBEHXZ 1002723c f i atls:atlbase.obj
 0001:00026240       ?InternalSetAtIndex@?$CSimpleArray@PAUHINSTANCE__@@V?$CSimpleArrayEqualHelper@PAUHINSTANCE__@@@ATL@@@ATL@@QAEXHABQAUHINSTANCE__@@@Z 10027240 f i atls:atlbase.obj
 0001:00026260       ?Lock@?$CComCritSecLock@VCComCriticalSection@ATL@@@ATL@@QAEJXZ 10027260 f i atls:atlbase.obj
 0001:00026277       ?Lock@CComCriticalSection@ATL@@QAEJXZ 10027277 f i atls:atlbase.obj
 0001:00026283       ?RemoveAll@?$CSimpleArray@PAUHINSTANCE__@@V?$CSimpleArrayEqualHelper@PAUHINSTANCE__@@@ATL@@@ATL@@QAEXXZ 10027283 f i atls:atlbase.obj
 0001:000262a7       ?RemoveAt@?$CSimpleArray@PAUHINSTANCE__@@V?$CSimpleArrayEqualHelper@PAUHINSTANCE__@@@ATL@@@ATL@@QAEHH@Z 100272a7 f i atls:atlbase.obj
 0001:00026308       ?RemoveResourceInstance@CAtlBaseModule@ATL@@QAE_NPAUHINSTANCE__@@@Z 10027308 f   atls:atlbase.obj
 0001:0002637c       ?Unlock@?$CComCritSecLock@VCComCriticalSection@ATL@@@ATL@@QAEXXZ 1002737c f i atls:atlbase.obj
 0001:00026391       ?Unlock@CComCriticalSection@ATL@@QAEJXZ 10027391 f i atls:atlbase.obj
 0001:0002639d       ?memmove_s@Checked@ATL@@YAXPAXIPBXI@Z 1002739d f i atls:atlbase.obj
 0001:00026461       ??0?$CTraceCategoryEx@$00$0A@@ATL@@QAE@PB_W@Z 10027461 f i atls:stdafx.obj
 0001:00026466       ??0?$CTraceCategoryEx@$01$0A@@ATL@@QAE@PB_W@Z 10027466 f i atls:stdafx.obj
 0001:0002646b       ??0?$CTraceCategoryEx@$03$0A@@ATL@@QAE@PB_W@Z 1002746b f i atls:stdafx.obj
 0001:00026470       ??0?$CTraceCategoryEx@$07$0A@@ATL@@QAE@PB_W@Z 10027470 f i atls:stdafx.obj
 0001:00026475       ??0?$CTraceCategoryEx@$0BA@$0A@@ATL@@QAE@PB_W@Z 10027475 f i atls:stdafx.obj
 0001:0002647a       ??0?$CTraceCategoryEx@$0BAA@$0A@@ATL@@QAE@PB_W@Z 1002747a f i atls:stdafx.obj
 0001:0002647f       ??0?$CTraceCategoryEx@$0BAAA@$0A@@ATL@@QAE@PB_W@Z 1002747f f i atls:stdafx.obj
 0001:00026484       ??0?$CTraceCategoryEx@$0BAAAA@$0A@@ATL@@QAE@PB_W@Z 10027484 f i atls:stdafx.obj
 0001:00026489       ??0?$CTraceCategoryEx@$0BAAAAA@$0A@@ATL@@QAE@PB_W@Z 10027489 f i atls:stdafx.obj
 0001:0002648e       ??0?$CTraceCategoryEx@$0CA@$0A@@ATL@@QAE@PB_W@Z 1002748e f i atls:stdafx.obj
 0001:00026493       ??0?$CTraceCategoryEx@$0CAA@$0A@@ATL@@QAE@PB_W@Z 10027493 f i atls:stdafx.obj
 0001:00026498       ??0?$CTraceCategoryEx@$0CAAA@$0A@@ATL@@QAE@PB_W@Z 10027498 f i atls:stdafx.obj
 0001:0002649d       ??0?$CTraceCategoryEx@$0CAAAA@$0A@@ATL@@QAE@PB_W@Z 1002749d f i atls:stdafx.obj
 0001:000264a2       ??0?$CTraceCategoryEx@$0CAAAAA@$0A@@ATL@@QAE@PB_W@Z 100274a2 f i atls:stdafx.obj
 0001:000264a7       ??0?$CTraceCategoryEx@$0EA@$0A@@ATL@@QAE@PB_W@Z 100274a7 f i atls:stdafx.obj
 0001:000264ac       ??0?$CTraceCategoryEx@$0EAA@$0A@@ATL@@QAE@PB_W@Z 100274ac f i atls:stdafx.obj
 0001:000264b1       ??0?$CTraceCategoryEx@$0EAAA@$0A@@ATL@@QAE@PB_W@Z 100274b1 f i atls:stdafx.obj
 0001:000264b6       ??0?$CTraceCategoryEx@$0EAAAA@$0A@@ATL@@QAE@PB_W@Z 100274b6 f i atls:stdafx.obj
 0001:000264bb       ??0?$CTraceCategoryEx@$0EAAAAA@$0A@@ATL@@QAE@PB_W@Z 100274bb f i atls:stdafx.obj
 0001:000264c0       ??0?$CTraceCategoryEx@$0IA@$0A@@ATL@@QAE@PB_W@Z 100274c0 f i atls:stdafx.obj
 0001:000264c5       ??0?$CTraceCategoryEx@$0IAA@$0A@@ATL@@QAE@PB_W@Z 100274c5 f i atls:stdafx.obj
 0001:000264ca       ??0?$CTraceCategoryEx@$0IAAA@$0A@@ATL@@QAE@PB_W@Z 100274ca f i atls:stdafx.obj
 0001:000264cf       ??0?$CTraceCategoryEx@$0IAAAA@$0A@@ATL@@QAE@PB_W@Z 100274cf f i atls:stdafx.obj
 0001:000264d4       ??_I@YGXPAXIIP6EX0@Z@Z     100274d4 f i atls:stdafx.obj
 0001:00026513       _SysFreeString@4           10027513 f   oleaut32:OLEAUT32.dll
 0001:00026519       ?_Xbad_alloc@std@@YAXXZ    10027519 f   msvcprtd:MSVCP140D.dll
 0001:0002651f       __Mbrtowc                  1002751f f   msvcprtd:MSVCP140D.dll
 0001:00026525       ?_Getcvt@_Locinfo@std@@QBE?AU_Cvtvec@@XZ 10027525 f   msvcprtd:MSVCP140D.dll
 0001:0002652b       ?_Getdays@_Locinfo@std@@QBEPBDXZ 1002752b f   msvcprtd:MSVCP140D.dll
 0001:00026531       ?_Getmonths@_Locinfo@std@@QBEPBDXZ 10027531 f   msvcprtd:MSVCP140D.dll
 0001:00026537       ?_W_Getdays@_Locinfo@std@@QBEPBGXZ 10027537 f   msvcprtd:MSVCP140D.dll
 0001:0002653d       ?_W_Getmonths@_Locinfo@std@@QBEPBGXZ 1002753d f   msvcprtd:MSVCP140D.dll
 0001:00026543       _memcpy                    10027543 f   vcruntimed:VCRUNTIME140D.dll
 0001:00026549       _memmove                   10027549 f   vcruntimed:VCRUNTIME140D.dll
 0001:0002654f       _memset                    1002754f f   vcruntimed:VCRUNTIME140D.dll
 0001:00026555       __CxxThrowException@8      10027555 f   vcruntimed:VCRUNTIME140D.dll
 0001:0002655b       ___CxxFrameHandler3        1002755b f   vcruntimed:VCRUNTIME140D.dll
 0001:00026561       __purecall                 10027561 f   vcruntimed:VCRUNTIME140D.dll
 0001:00026567       _memcmp                    10027567 f   vcruntimed:VCRUNTIME140D.dll
 0001:0002656d       __except_handler4_common   1002756d f   vcruntimed:VCRUNTIME140D.dll
 0001:00026573       ___std_type_info_destroy_list 10027573 f   vcruntimed:VCRUNTIME140D.dll
 0001:00026579       ___vcrt_GetModuleFileNameW 10027579 f   vcruntimed:VCRUNTIME140D.dll
 0001:0002657f       ___vcrt_GetModuleHandleW   1002757f f   vcruntimed:VCRUNTIME140D.dll
 0001:00026585       ___vcrt_LoadLibraryExW     10027585 f   vcruntimed:VCRUNTIME140D.dll
 0001:0002658b       _ldiv                      1002758b f   ucrtd:ucrtbased.dll
 0001:00026591       _rand                      10027591 f   ucrtd:ucrtbased.dll
 0001:00026597       __time64                   10027597 f   ucrtd:ucrtbased.dll
 0001:0002659d       __CrtDbgReport             1002759d f   ucrtd:ucrtbased.dll
 0001:000265a3       _wcscpy_s                  100275a3 f   ucrtd:ucrtbased.dll
 0001:000265a9       _wcslen                    100275a9 f   ucrtd:ucrtbased.dll
 0001:000265af       ___stdio_common_vswprintf_s 100275af f   ucrtd:ucrtbased.dll
 0001:000265b5       ___stdio_common_vsprintf   100275b5 f   ucrtd:ucrtbased.dll
 0001:000265bb       ___stdio_common_vsnprintf_s 100275bb f   ucrtd:ucrtbased.dll
 0001:000265c1       _free                      100275c1 f   ucrtd:ucrtbased.dll
 0001:000265c7       _malloc                    100275c7 f   ucrtd:ucrtbased.dll
 0001:000265cd       __localtime64_s            100275cd f   ucrtd:ucrtbased.dll
 0001:000265d3       __CrtDbgReportW            100275d3 f   ucrtd:ucrtbased.dll
 0001:000265d9       __mktime64                 100275d9 f   ucrtd:ucrtbased.dll
 0001:000265df       _strlen                    100275df f   ucrtd:ucrtbased.dll
 0001:000265e5       __calloc_dbg               100275e5 f   ucrtd:ucrtbased.dll
 0001:000265eb       _terminate                 100275eb f   ucrtd:ucrtbased.dll
 0001:000265f1       __seh_filter_dll           100275f1 f   ucrtd:ucrtbased.dll
 0001:000265f7       __configure_narrow_argv    100275f7 f   ucrtd:ucrtbased.dll
 0001:000265fd       __initialize_narrow_environment 100275fd f   ucrtd:ucrtbased.dll
 0001:00026603       __initialize_onexit_table  10027603 f   ucrtd:ucrtbased.dll
 0001:00026609       __register_onexit_function 10027609 f   ucrtd:ucrtbased.dll
 0001:0002660f       __execute_onexit_table     1002760f f   ucrtd:ucrtbased.dll
 0001:00026615       __crt_atexit               10027615 f   ucrtd:ucrtbased.dll
 0001:0002661b       __crt_at_quick_exit        1002761b f   ucrtd:ucrtbased.dll
 0001:00026621       __cexit                    10027621 f   ucrtd:ucrtbased.dll
 0001:00026627       __initterm                 10027627 f   ucrtd:ucrtbased.dll
 0001:0002662d       __initterm_e               1002762d f   ucrtd:ucrtbased.dll
 0001:00026633       _strcpy_s                  10027633 f   ucrtd:ucrtbased.dll
 0001:00026639       _strcat_s                  10027639 f   ucrtd:ucrtbased.dll
 0001:0002663f       ___stdio_common_vsprintf_s 1002763f f   ucrtd:ucrtbased.dll
 0001:00026645       __wmakepath_s              10027645 f   ucrtd:ucrtbased.dll
 0001:0002664b       __wsplitpath_s             1002764b f   ucrtd:ucrtbased.dll
 0001:00026651       __invalid_parameter_noinfo 10027651 f   ucrtd:ucrtbased.dll
 0001:00026657       __errno                    10027657 f   ucrtd:ucrtbased.dll
 0001:0002665d       __recalloc                 1002765d f   ucrtd:ucrtbased.dll
 0001:00026663       _OutputDebugStringW@4      10027663 f   kernel32:KERNEL32.dll
 0001:00026670       ___scrt_stub_for_acrt_initialize 10027670 f   msvcrtd:ucrt_stubs.obj
 0001:00026670       ___vcrt_initialize         10027670 f   msvcrtd:ucrt_stubs.obj
 0001:00026670       ___acrt_initialize         10027670 f   msvcrtd:ucrt_stubs.obj
 0001:00026680       ___scrt_stub_for_acrt_thread_attach 10027680 f   msvcrtd:ucrt_stubs.obj
 0001:00026680       ___acrt_thread_attach      10027680 f   msvcrtd:ucrt_stubs.obj
 0001:00026680       ___vcrt_thread_attach      10027680 f   msvcrtd:ucrt_stubs.obj
 0001:00026690       ___scrt_stub_for_acrt_thread_detach 10027690 f   msvcrtd:ucrt_stubs.obj
 0001:00026690       ___acrt_thread_detach      10027690 f   msvcrtd:ucrt_stubs.obj
 0001:00026690       ___vcrt_thread_detach      10027690 f   msvcrtd:ucrt_stubs.obj
 0001:000266a0       ___scrt_stub_for_acrt_uninitialize 100276a0 f   msvcrtd:ucrt_stubs.obj
 0001:000266a0       ___vcrt_uninitialize       100276a0 f   msvcrtd:ucrt_stubs.obj
 0001:000266a0       ___acrt_uninitialize       100276a0 f   msvcrtd:ucrt_stubs.obj
 0001:000266b0       ___acrt_uninitialize_critical 100276b0 f   msvcrtd:ucrt_stubs.obj
 0001:000266b0       ___scrt_stub_for_acrt_uninitialize_critical 100276b0 f   msvcrtd:ucrt_stubs.obj
 0001:000266b0       ___vcrt_uninitialize_critical 100276b0 f   msvcrtd:ucrt_stubs.obj
 0001:000266c0       __is_c_termination_complete 100276c0 f   msvcrtd:ucrt_stubs.obj
 0001:000266c0       ___scrt_stub_for_is_c_termination_complete 100276c0 f   msvcrtd:ucrt_stubs.obj
 0001:00029860       ??__FstrHeap@?1??GetInstance@CAtlStringMgr@ATL@@SAPAUIAtlStringMgr@2@XZ@YAXXZ 1002a860 f i Stdafx.obj
 0001:00029880       ??__FstrMgr@?1??GetInstance@CAtlStringMgr@ATL@@SAPAUIAtlStringMgr@2@XZ@YAXXZ 1002a880 f i Stdafx.obj
 0002:00000000       ___xc_a                    1002c000     msvcrtd:initializers.obj
 0002:00000384       ___xc_z                    1002c384     msvcrtd:initializers.obj
 0002:00000488       ___xi_a                    1002c488     msvcrtd:initializers.obj
 0002:00000690       ___xi_z                    1002c690     msvcrtd:initializers.obj
 0002:00000794       ___xl_a                    1002c794     msvcrtd:tlssup.obj
 0002:00000798       ___xl_z                    1002c798     msvcrtd:tlssup.obj
 0002:0000079c       ___xp_a                    1002c79c     msvcrtd:initializers.obj
 0002:000008a0       ___xp_z                    1002c8a0     msvcrtd:initializers.obj
 0002:000009a4       ___xt_a                    1002c9a4     msvcrtd:initializers.obj
 0002:00000aa8       ___xt_z                    1002caa8     msvcrtd:initializers.obj
 0002:00000bc0       ?BLOCK_SIZE@CDistributeNodePool@@2HB 1002cbc0     DistributeManager.obj
 0002:00000bc8       ??_C@_0HC@HBCNBCLF@c?3?2program?5files?5?$CIx86?$CJ?2microsof@ 1002cbc8     DistributeManager.obj
 0002:00000c50       ??_C@_05PLCFPPOI@with?5@   1002cc50     DistributeManager.obj
 0002:00000c58       ??_C@_09HCLNAIDE@?5elements@ 1002cc58     DistributeManager.obj
 0002:00000c64       ??_C@_01EEMJAFIK@?6@       1002cc64     DistributeManager.obj
 0002:00000c68       ??_C@_03OHJIHPJH@?6?7?$FL@ 1002cc68     DistributeManager.obj
 0002:00000c6c       ??_C@_04OAFLPOMH@?$FN?5?$DN?5@ 1002cc6c     DistributeManager.obj
 0002:00000c78       ??_7?$CWHArray@PAUtagSameTableInfo@@ABQAU1@@@6B@ 1002cc78     DistributeManager.obj
 0002:00000c84       ??_7?$CMap@KKPAUtagSameTableInfo@@PAU1@@@6B@ 1002cc84     DistributeManager.obj
 0002:00000ca0       ??_7CDistributeManager@@6B@ 1002cca0     DistributeManager.obj
 0002:00000ca8       ??_C@_0EO@GOEFAIJG@g?3?2?M?x?$LK?$PM?2happygamewh?2?$LH?$PO?N?q?$LG?K?2?O?$LF?M?$LD@ 1002cca8     DistributeManager.obj
 0002:00000d08       ??_C@_0BH@OJNKCMBI@?D?Z?$LE?f?$LC?$LL?W?c?0?$LG?T?O?s?$LE?$LE?$LN?$KI?J?$KH?$LA?$NM?$CB@ 1002cd08     DistributeManager.obj
 0002:00000d24       ??_C@_0DF@LDFGAABH@g?3?2?M?x?$LK?$PM?2happygamewh?2?$LH?$PO?N?q?$LG?K?2?O?$LF?M?$LD@ 1002cd24     DistributeManager.obj
 0002:00000d64       __pRawDllMain              1002cd64     GameMatchServer.obj
 0002:00000da4       ??_C@_17CNPHIMPH@?$AA?$CF?$AAl?$AAs@ 1002cda4     ImmediateGroup.obj
 0002:00000db0       ??_C@_1OE@IAPLKPHI@?$AAc?$AA?3?$AA?2?$AAp?$AAr?$AAo?$AAg?$AAr?$AAa?$AAm?$AA?5?$AAf?$AAi?$AAl?$AAe@ 1002cdb0     ImmediateGroup.obj
 0002:00000ec4       ??_C@_0BC@PGMFNIFA@atlTraceException@ 1002cec4     ImmediateGroup.obj
 0002:00000edc       ??_C@_1O@LFNDFEBP@?$AA?$CF?$AAl?$AAs?$AA?5?$AA?9?$AA?5@ 1002cedc     ImmediateGroup.obj
 0002:00000eec       ??_C@_1M@PGKOAACE@?$AA?$CF?$AAu?$AA?5?$AA?9?$AA?5@ 1002ceec     ImmediateGroup.obj
 0002:00000efc       ??_C@_1O@OAIPCDPO@?$AA?$CF?$AAl?$AAs?$AA?$CF?$AAl?$AAs@ 1002cefc     ImmediateGroup.obj
 0002:00000f0c       ??_C@_17LGGGMOOB@?$AA?$CF?$AAh?$AAs@ 1002cf0c     ImmediateGroup.obj
 0002:00000f18       ??_C@_1EO@EBPPKGOM@?$AAf?$AAa?$AAl?$AAs?$AAe?$AA?5?$AA?$CG?$AA?$CG?$AA?5?$AA?$CC?$AAT?$AAo?$AAo?$AA?5?$AAm@ 1002cf18     ImmediateGroup.obj
 0002:00000f78       ??_C@_1OE@PDFAMNPL@?$AAc?$AA?3?$AA?2?$AAp?$AAr?$AAo?$AAg?$AAr?$AAa?$AAm?$AA?5?$AAf?$AAi?$AAl?$AAe@ 1002cf78     ImmediateGroup.obj
 0002:00001090       ??_C@_0HD@OEBHCJKM@c?3?2program?5files?5?$CIx86?$CJ?2microsof@ 1002d090     ImmediateGroup.obj
 0002:0000111c       ??_C@_0BF@IAAKIJDJ@AtlThrow?3?5hr?5?$DN?50x?$CFx?6@ 1002d11c     ImmediateGroup.obj
 0002:00001138       ??_C@_1BM@GBBOFEAE@?$AA_?$AA_?$AAa?$AAt?$AAl?$AA_?$AAc?$AAo?$AAn?$AAd?$AAV?$AAa?$AAl@ 1002d138     ImmediateGroup.obj
 0002:00001160       ??_C@_1OC@IALJLBM@?$AAc?$AA?3?$AA?2?$AAp?$AAr?$AAo?$AAg?$AAr?$AAa?$AAm?$AA?5?$AAf?$AAi?$AAl?$AAe@ 1002d160     ImmediateGroup.obj
 0002:0000126f       ??_C@_00CNPNBAHC@@         1002d26f     ImmediateGroup.obj
 0002:00001274       ??_7IUnknownEx@@6B@        1002d274     ImmediateGroup.obj
 0002:00001280       ??_C@_1BK@NHECDDNK@?$AAm?$AA_?$AAp?$AAD?$AAa?$AAt?$AAa?$AA?5?$AA?$DN?$AA?$DN?$AA?5?$AA0@ 1002d280     ImmediateGroup.obj
 0002:000012a4       ??_7IMatchEventSink@@6B@   1002d2a4     ImmediateGroup.obj
 0002:000012d0       ??_7?$CMap@KKPAUIServerUserItem@@PAU1@@@6B@ 1002d2d0     ImmediateGroup.obj
 0002:000012ec       ??_7?$CWHArray@PAUIServerUserItem@@ABQAU1@@@6B@ 1002d2ec     ImmediateGroup.obj
 0002:000012f8       ??_7?$CWHArray@PAUtagTableFrameInfo@@ABQAU1@@@6B@ 1002d2f8     ImmediateGroup.obj
 0002:00001304       ??_7?$CWHArray@PAUtagMatchTimer@@ABQAU1@@@6B@ 1002d304     ImmediateGroup.obj
 0002:00001310       ??_7CImmediateGroup@@6B@   1002d310     ImmediateGroup.obj
 0002:00001340       ??_C@_0EL@ONMMFGFJ@g?3?2?M?x?$LK?$PM?2happygamewh?2?$LH?$PO?N?q?$LG?K?2?O?$LF?M?$LD@ 1002d340     ImmediateGroup.obj
 0002:000013a0       ??_C@_0EF@OFDKLJHC@?$LB?$KH?G?$LI?$KD?$KM?S?I?S?Z?D?$LD?S?C?$LL?$KH?G?$LP?P?P?M?K?$LD?v?$LB?H?H?$PM?$KD?$KM?$LI@ 1002d3a0     ImmediateGroup.obj
 0002:000013f8       ??_C@_0EA@BEFMOLA@?$LB?$KH?G?$LI?$KD?$KM?S?I?S?Z?$LJ?$PN?$LG?$OA?S?C?$LL?$KH?W?$MA?W?S?J?$PN?A?$LP?$LC?$LL?$LJ?$LL?$KD@ 1002d3f8     ImmediateGroup.obj
 0002:00001444       ??_C@_0CB@BLALCHJO@?$LG?$KI?$LO?V?E?E?C?$PL?H?$PM?$LF?Z?$CFd?$LO?V?$LP?$KK?J?$LM?$KD?$KI?$LJ?$LC?$CFd?$LO?V?$KD?$KJ?$KB@ 1002d444     ImmediateGroup.obj
 0002:00001470       ??_C@_0EE@LPJNIANI@?$LJ?$KH?O?$LC?D?z?0?D?z?R?Q?M?f?B?z?$CFd?$LO?V?S?N?O?$LH?0?$LF?H?F?d?K?$PL?W@ 1002d470     ImmediateGroup.obj
 0002:000014c4       ??_C@_0DC@OCDKCEOG@?$LB?$LO?$LO?V?R?Q?$LN?a?J?x?$KD?$KM?G?k?D?M?P?D?$LF?H?$LE?$PN?F?d?K?$PL?W?$MA?M?j?$LD@ 1002d4c4     ImmediateGroup.obj
 0002:00001500       ??_C@_0CC@GOIHMJKJ@?$LB?$LO?$LO?V?R?Q?$LN?a?J?x?$KD?$KM?G?k?I?T?$LK?r?$KD?$KM?O?$LF?M?$LD?E?d?W?$MA?V?P?4@ 1002d500     ImmediateGroup.obj
 0002:00001528       ??_C@_0L@EGCIENHN@?W?x?O?B?J?$KH?$LA?$NM?$KD?$LP@ 1002d528     ImmediateGroup.obj
 0002:00001538       ??_C@_0BC@IKPCOJMH@?$LM?L?P?x?S?N?O?$LH_?F?p?A?$KC?J?$KH?$LA?$NM@ 1002d538     ImmediateGroup.obj
 0002:00001550       ??_C@_0BC@LKGHNAEH@?$LM?L?P?x?S?N?O?$LH_?W?x?O?B?J?$KH?$LA?$NM@ 1002d550     ImmediateGroup.obj
 0002:00001568       ??_C@_0M@NKMAPECH@?$LM?l?$LC?i?H?K?J?$PN?4?4?4@ 1002d568     ImmediateGroup.obj
 0002:00001578       ??_C@_0FD@PIICFLBL@?$LB?$KH?G?$LI?$KD?$KM?S?I?S?Z?$LB?H?H?$PM?S?C?$LL?$KH?G?$LP?P?P?M?K?$LD?v?$LB?H?H?$PM?$KD@ 1002d578     ImmediateGroup.obj
 0002:000015dc       ??_C@_0BD@KNNGNBNI@?$LL?$PN?$LH?V?$LH?$LN?J?$LN?$KD?$LK?$MA?$NL?$LM?F?$LL?$PN?$LH?V@ 1002d5dc     ImmediateGroup.obj
 0002:000015f4       ??_C@_0N@JCGEHOBO@?S?N?O?$LH?$LL?y?J?$PN?$KD?$LK?$CFd@ 1002d5f4     ImmediateGroup.obj
 0002:00001604       ??_C@_0BD@EJMLEOOM@?$LO?V?V?F?C?$PL?$LD?F?$KD?$LK?$LG?$KI?$LO?V?E?E?C?$PL@ 1002d604     ImmediateGroup.obj
 0002:0000161c       ??_C@_0BD@DGPONMAO@?P?h?R?$KK?M?j?$LD?I?$KD?$LK?$CFd?$LO?V?$LB?H?H?$PM@ 1002d61c     ImmediateGroup.obj
 0002:00001698       ??_7IServerUserItemSink@@6B@ 1002d698     ImmediateMatch.obj
 0002:000016bc       ??_7IMatchServiceManager@@6B@ 1002d6bc     ImmediateMatch.obj
 0002:00001714       ??_7IGameMatchItem@@6B@    1002d714     ImmediateMatch.obj
 0002:0000175c       ??_7IImmediateGroupSink@@6B@ 1002d75c     ImmediateMatch.obj
 0002:000017a4       ??_7CMatchServiceManager@@6B@ 1002d7a4     ImmediateMatch.obj
 0002:00001800       ??_7?$CWHArray@PAVCTableFrameHook@@ABQAV1@@@6B@ 1002d800     ImmediateMatch.obj
 0002:0000180c       ??_7?$CWHArray@EABE@@6B@   1002d80c     ImmediateMatch.obj
 0002:00001818       ??_7?$CWHArray@PAVCImmediateGroup@@ABQAV1@@@6B@ 1002d818     ImmediateMatch.obj
 0002:00001824       ??_7CImmediateMatch@@6BIGameMatchItem@@@ 1002d824     ImmediateMatch.obj
 0002:00001870       ??_7CImmediateMatch@@6BIImmediateGroupSink@@@ 1002d870     ImmediateMatch.obj
 0002:000018b8       ??_7CImmediateMatch@@6BIServerUserItemSink@@@ 1002d8b8     ImmediateMatch.obj
 0002:000018d8       ??_C@_0CN@HDLOLBPO@?$LB?H?H?$PM?R?Q?$LO?$KN?$LP?$KK?J?$LM?0?$LB?$KI?C?$PL?J?$KH?$LA?$NM?0?G?k?V?X?P?B?$LB?$KI?C@ 1002d8d8     ImmediateMatch.obj
 0002:00001910       ??_C@_08CGCLAKLP@?$LB?$KI?C?$PL?J?$KH?$LA?$NM@ 1002d910     ImmediateMatch.obj
 0002:0000191c       ??_C@_0CJ@CKEEGDHM@?$LJ?$KH?O?$LC?$KD?$KM?$LB?$KI?C?$PL?$LD?I?$LJ?$KG?$KD?$KM?G?k?$LF?H?$LE?$PN?O?$LF?M?$LD?N?$KK?D?z?$LH@ 1002d91c     ImmediateMatch.obj
 0002:00001950       ??_C@_06EPCIHMAO@?S?N?O?$LH?$LB?R@ 1002d950     ImmediateMatch.obj
 0002:00001958       ??_C@_04FLLPKHFC@?T?$KK?$LB?$KG@ 1002d958     ImmediateMatch.obj
 0002:00001960       ??_C@_0BO@OCKMIBLC@?M?K?H?$PM?$LD?I?$LJ?$KG?$KD?$KM?M?K?$LL?$LJ?$LB?$KI?C?$PL?$LH?Q?$CFI64d?$CFs?$KD?$KB@ 1002d960     ImmediateMatch.obj
 0002:00001984       ??_C@_0L@OLEOCCAL@?M?K?H?$PM?$LD?I?$LJ?$KG?$KD?$KB@ 1002d984     ImmediateMatch.obj
 0002:00001994       ??_C@_0BJ@LHKLICON@?$LB?H?H?$PM?$LN?a?J?x?$LK?s?$KD?$KM?M?K?H?$PM?H?K?J?$PN?R?l?$LD?$KD@ 1002d994     ImmediateMatch.obj
 0002:000019b4       ??_C@_0O@DGBKFONG@?S?C?$LL?$KH?V?$LI?U?k?N?$KK?$LP?U?$CB@ 1002d9b4     ImmediateMatch.obj
 0002:000019c4       ??_C@_0DB@GOHKIOLG@?$LB?$KH?G?$LI?$KD?$KM?$LF?$LB?G?$LA?W?$MA?W?S?$LC?$LL?$LJ?$LL?G?k?$LF?H?$LE?$PN?$KB?$KD?$LL?$LJ?$LC?n?5@ 1002d9c4     ImmediateMatch.obj
 0002:00001a00       ??_C@_0DN@EHALDGCC@?$LB?$KH?G?$LI?$KD?$KM?$LI?C?$LH?$LP?$LM?d?$LC?N?H?$PM?H?K?J?$PN?R?Q?B?z?$KD?$KM?G?k?I?T?$LK@ 1002da00     ImmediateMatch.obj
 0002:00001a4c       ??_C@_0BP@GANJEFPA@?D?z?R?Q?$LO?$KN?$LD?I?$LJ?$KG?$LB?$KI?C?$PL?$KD?$KM?$LC?$LL?D?$NM?V?X?$LI?$LE?$LB?$KI?C?$PL?$KD?$KB@ 1002da4c     ImmediateMatch.obj
 0002:00001a74       ??_C@_0BL@MIEHDBCF@?$LB?$KH?G?$LI?$KD?$KM?$LB?H?H?$PM?$LB?$OA?$LK?E?$LC?$LL?$LJ?$LL?G?k?I?T?$LF?H?$KB?$KD@ 1002da74     ImmediateMatch.obj
 0002:00001a94       ??_C@_0CF@BNBFGJLJ@?$LG?T?$LC?$LL?F?p?$KD?$KM?D?z?$LF?$LB?G?$LA?$LF?D?W?$LE?L?$KM?$LC?$LL?T?J?P?m?$LC?N?$LM?S?$LB@ 1002da94     ImmediateMatch.obj
 0002:00001ac0       ??_C@_0CN@MILLHBCL@?$LB?$KH?G?$LI?$KD?$KM?D?z?$LF?D?$LL?a?T?$LB?$LF?H?$LM?$LG?$LE?o?$LC?$LL?$LF?$LN?$LB?$KI?C?$PL?L?u?$LM@ 1002dac0     ImmediateMatch.obj
 0002:00001af8       ??_C@_0CL@NANGINFO@?$LB?$KH?G?$LI?$KD?$KM?D?z?$LF?D?$LO?$KN?Q?i?V?$LF?$LE?o?$LC?$LL?$LF?$LN?$LB?$KI?C?$PL?L?u?$LM?$PO?$KD@ 1002daf8     ImmediateMatch.obj
 0002:00001b2c       ??_C@_0CK@KBNEFBOJ@?$LC?N?H?$PM?$LN?$KL?$LP?$NL?$LD?$PN?$LB?$KI?C?$PL?$LH?Q?5?$CFI64d?5?$CFs?$KD?$KM?H?$LH?H?O@ 1002db2c     ImmediateMatch.obj
 0002:00001b60       ??_C@_0CJ@OOKPLADN@?$LJ?$KH?O?$LC?$KD?$KM?$LB?$KI?C?$PL?$LD?I?$LJ?$KG?$KD?$KM?G?k?$LF?H?$LE?$PN?O?$LF?M?$LD?N?$KK?D?z?$LA@ 1002db60     ImmediateMatch.obj
 0002:00001b94       ??_C@_0CD@CHNMBBKC@?M?K?H?$PM?$LD?I?$LJ?$KG?$KD?$KM?$LL?$LG?S?$KN?D?z?$LM?L?P?x?$LC?N?$LM?S?F?d?K?$PL?$LB?H?H@ 1002db94     ImmediateMatch.obj
 0002:00001bc0       ??_C@_0DJ@PHNPOIHK@?$LB?H?H?$PM?R?Q?$LN?a?J?x?$KD?$KM?$LJ?$KH?O?$LC?D?z?$LL?q?$LF?C?$LF?Z?$CFd?C?$PL?$KD?$KM?$LL@ 1002dbc0     ImmediateMatch.obj
 0002:00001c64       ??_C@_1BK@NHHHCKNA@?$AAm?$AA_?$AAt?$AAi?$AAm?$AAe?$AA?5?$AA?$CB?$AA?$DN?$AA?5?$AA?9?$AA1@ 1002dc64     LockTimeMatch.obj
 0002:00001c88       ??_7CLockTimeMatch@@6BIGameMatchItem@@@ 1002dc88     LockTimeMatch.obj
 0002:00001cd4       ??_7CLockTimeMatch@@6BIMatchEventSink@@@ 1002dcd4     LockTimeMatch.obj
 0002:00001d00       ??_7CLockTimeMatch@@6BIServerUserItemSink@@@ 1002dd00     LockTimeMatch.obj
 0002:00001d20       ??_C@_0EK@PLFANKAP@g?3?2?M?x?$LK?$PM?2happygamewh?2?$LH?$PO?N?q?$LG?K?2?O?$LF?M?$LD@ 1002dd20     LockTimeMatch.obj
 0002:00001d78       ??_C@_0DJ@LFOAJBDH@?$LN?q?L?l?$LF?D?$LB?H?H?$PM?$LN?a?J?x?J?$LB?$LM?d?R?Q?$LF?$LN?$KD?$KM?G?k?$LO?$KB?$LP?l?T@ 1002dd78     LockTimeMatch.obj
 0002:00001dc0       ??_C@_0FP@CHGGEFGE@?$LB?$LO?$LD?$KB?$LB?H?H?$PM?$LN?a?J?x?J?$LB?$LM?d?R?Q?$LF?$LN?$KD?$KM?G?k?$LO?$KB?$LP?l?T?Z?5@ 1002ddc0     LockTimeMatch.obj
 0002:00001e34       ??_C@_0CH@GCHCKFGB@?$LN?q?L?l?$LF?D?$LB?H?H?$PM?$LF?$LN?$LE?K?$LN?a?J?x?$KD?$KM?G?k?D?z?C?w?L?l?T?Y?$MA@ 1002de34     LockTimeMatch.obj
 0002:00001e68       ??_C@_0FF@DDBBBMHA@?$LB?$LO?$LD?$KB?$LB?H?H?$PM?$LN?a?J?x?J?$LB?$LM?d?R?Q?$LF?$LN?$KD?$KM?$LI?P?P?$LL?D?z?$LF?D?$LC@ 1002de68     LockTimeMatch.obj
 0002:00001ed0       ??_C@_0CL@IJGLKDAG@?$LB?$KH?G?$LI?0?D?z?$LC?$LL?$LO?$NP?$LB?$LI?$LB?$LO?$LD?$KB?$LB?H?H?$PM?$LF?D?$LB?$KI?C?$PL?W?J?$LI?q@ 1002ded0     LockTimeMatch.obj
 0002:00001f04       ??_C@_0DB@IMGKPMKE@?$LJ?$KH?O?$LC?D?z?$KD?$KM?$LB?$KD?O?U?$LP?$KI?$LJ?$LK?B?r?$LD?I?$LJ?$KG?$KD?$KM?G?k?$LF?H?$LE?$PN?O@ 1002df04     LockTimeMatch.obj
 0002:00001f40       ??_C@_0CL@GGBOLFBO@?$LJ?$KH?O?$LC?D?z?$KD?$KM?$LI?$LE?$LL?n?$LD?I?$LJ?$KG?$KD?$KM?G?k?$LF?H?$LE?$PN?O?$LF?M?$LD?N?$KK?D@ 1002df40     LockTimeMatch.obj
 0002:00001f78       ??_C@_0EH@PFKOHNEP@?$LB?$LO?$LE?N?$LB?H?H?$PM?$LF?$LN?$LE?K?$LN?a?J?x?$KD?$KM?G?k?D?z?G?$LA?M?y?M?x?U?$LO?$LC@ 1002df78     LockTimeMatch.obj
 0002:00001fd0       ??_C@_0FH@GLGCEBDA@?R?r?$LB?$KI?C?$PL?H?K?J?$PN?$LC?$LL?W?c?$KD?$KM?H?$KB?O?$PL?$LB?$LO?$LD?$KB?$LB?H?H?$PM?$KB?$KD?R@ 1002dfd0     LockTimeMatch.obj
 0002:00002038       ??_C@_0CD@LHKCDNBI@?O?$LF?M?$LD?U?$PN?T?Z?E?$KM?A?$KG?N?$KK?D?z?$LH?V?E?d?W?y?N?$LL?$KD?$KM?G?k?$LF?H?$LE@ 1002e038     LockTimeMatch.obj
 0002:00002064       ??_C@_0CH@PJALIOJF@?D?z?$LF?D?$LH?V?J?$PN?N?$LE?$LE?o?$LF?$LN?L?T?L?$KN?$LH?V?J?$PN?O?$NP?$KD?$KM?$LC?$LL?P?h?R@ 1002e064     LockTimeMatch.obj
 0002:00002094       ??_C@_0BL@CKGEBLOB@?$LB?$KI?C?$PL?I?P?N?$LE?$LP?$KK?J?$LM?$KD?$KM?G?k?I?T?$LK?s?T?Y?$MA?$LE?$KD?$KB@ 1002e094     LockTimeMatch.obj
 0002:000020b4       ??_C@_0CP@GPKKPIPC@?$LB?$KI?C?$PL?R?Q?$LO?$KN?$LN?X?V?$LJ?$KD?$KM?G?k?D?z?R?F?$LM?$NN?V?A?F?d?K?$PL?$LB?H?H@ 1002e0b4     LockTimeMatch.obj
 0002:000020ec       ??_C@_0CH@PBJGPBJH@?O?$LF?M?$LD?U?$PN?T?Z?E?$KM?A?$KG?N?$KK?D?z?$LH?V?E?d?W?y?N?$LL?$KD?$KM?G?k?I?T?$LK@ 1002e0ec     LockTimeMatch.obj
 0002:0000211c       ??_C@_0CE@DMINAKJA@?$LB?$KH?G?$LI?0?D?z?R?Q?$LC?N?$LM?S?$LJ?$PN?$LB?$LO?$LD?$KB?$LB?H?H?$PM?$KD?$KM?$LC?$LL?D?$NM?M?K@ 1002e11c     LockTimeMatch.obj
 0002:00002148       ??_C@_0BJ@CODAEBJM@?$LB?$LO?$LO?V?$LB?H?H?$PM?J?G?D?z?$LF?D?$LF?Z?5?$CFd?5?$LO?V?$KB?$KD@ 1002e148     LockTimeMatch.obj
 0002:00002168       ??_C@_0EJ@COJNGGKL@?D?z?R?Q?M?j?$LD?I?$CFd?$LO?V?$LB?H?H?$PM?$KD?$KM?$LP?I?R?T?$LM?L?P?x?$LF?$LB?G?$LA?$LB@ 1002e168     LockTimeMatch.obj
 0002:000021c0       ??_C@_0HB@JAGJBAEH@?D?z?R?Q?M?j?$LD?I?$CFd?$LO?V?$LB?H?H?$PM?$KD?$KM?O?$LF?M?$LD?$LN?$KL?$LL?a?$LM?G?B?$LM?D@ 1002e1c0     LockTimeMatch.obj
 0002:00002248       ??_C@_0DC@KHAHGIHK@?$LB?$LO?$LO?V?$LB?H?H?$PM?$LN?a?J?x?$KD?$KM?O?$LF?M?$LD?U?$PN?T?Z?E?$KM?A?$KG?N?$KK?D?z?$LH@ 1002e248     LockTimeMatch.obj
 0002:00002284       ??_C@_0DC@JLJHDNKI@?S?I?S?Z?M?f?$LM?R?$MA?k?$LP?$KK?$KD?$KM?O?$LF?M?$LD?U?$PN?T?Z?N?$KK?D?z?V?X?P?B?$LH@ 1002e284     LockTimeMatch.obj
 0002:000022c0       ??_C@_0CK@MEIIMJBH@?S?I?S?Z?D?z?$LF?D?$LB?H?H?$PM?$LB?R?$LF?M?S?Z?5?$CFd?$KD?$KM?D?z?$LN?$KL?$LC?$LL?D?$NM@ 1002e2c0     LockTimeMatch.obj
 0002:000022f8       ??_C@_0EB@IICMIGNG@?D?z?R?Q?M?j?$LD?I?5?$CFd?5?$LO?V?$LB?H?H?$PM?$KD?$KM?D?z?$LN?$KL?$LC?$LL?D?$NM?$LM?L?P@ 1002e2f8     LockTimeMatch.obj
 0002:0000234c       ??_7?$CWHArray@UtagDistributeInfo@@ABU1@@@6B@ 1002e34c     LockTimeMatch.obj
 0002:00002354       ??_C@_0DA@MIICOPIN@?$LB?H?H?$PM?R?Q?$LO?$KN?$LN?a?J?x?0?G?k?D?z?R?F?$LM?$NN?V?A?F?d?K?$PL?$LB?H?H?$PM@ 1002e354     LockTimeMatch.obj
 0002:00002390       ??_C@_0DI@NBAMOMBH@?$LN?q?L?l?$LF?D?$LB?H?H?$PM?R?Q?$LO?$KN?$LN?a?J?x?0?G?k?D?z?S?Z?C?w?L?l?$CFd@ 1002e390     LockTimeMatch.obj
 0002:000023d8       ??_C@_0EK@KKHDFNFN@?$LB?H?H?$PM?$LB?$KI?C?$PL?I?P?N?$LE?$LP?$KK?J?$LM?0?$LB?$LO?$LD?$KB?$LB?H?H?$PM?$LB?$KI?C?$PL?J?$LB@ 1002e3d8     LockTimeMatch.obj
 0002:00002430       ??_C@_0DK@LADIJLOB@?$LB?H?H?$PM?$LB?$KI?C?$PL?I?P?N?$LE?$LP?$KK?J?$LM?0?G?k?D?z?S?Z?$LN?q?L?l?$CFd?J?$LB@ 1002e430     LockTimeMatch.obj
 0002:00002478       ??_C@_0FM@EDKOAGPM@?D?z?$LF?D?$LB?H?H?$PM?$LB?R?$LF?M?S?Z?5?$CFd?$KD?$KM?$LN?$KL?$LC?$LL?D?$NM?$LM?L?P?x?S?N@ 1002e478     LockTimeMatch.obj
 0002:000024e8       ??_C@_0FA@CPFANEOM@?D?z?$LF?D?$LB?H?H?$PM?$LB?R?$LF?M?S?Z?5?$CFd?$KD?$KM?$LN?$KL?$LC?$LL?D?$NM?$LM?L?P?x?S?N@ 1002e4e8     LockTimeMatch.obj
 0002:00002548       ??_C@_0FK@LABKGBIM@?$LJ?$KH?O?$LC?D?z?$LB?$KI?C?$PL?$LD?I?$LJ?$KG?$KD?$KB?$LB?$LO?$LD?$KB?$LB?H?H?$PM?$LD?v?J?$NL?$LB?$KD?O@ 1002e548     LockTimeMatch.obj
 0002:000025b4       ??_C@_0CL@LKBHCBDE@?$LJ?$KH?O?$LC?D?z?$KD?$KM?$LB?$KI?C?$PL?$LD?I?$LJ?$KG?$KD?$KM?G?k?$LF?H?$LE?$PN?O?$LF?M?$LD?N?$KK?D@ 1002e5b4     LockTimeMatch.obj
 0002:000025e8       ??_C@_0CH@JFAMEAMK@?$LJ?$KH?O?$LC?D?z?$KD?$KM?$LB?$KI?C?$PL?$LD?I?$LJ?$KG?$KD?$KM?G?k?$LN?l?J?$LB?G?$LA?$MA?$LE?$LC?N?$LM@ 1002e5e8     LockTimeMatch.obj
 0002:00002618       ??_C@_0BD@NHCOODCL@?$LO?V?V?F?C?$PL?$LD?F?$KD?$LK?$LG?$KI?J?$LB?$LP?$KK?H?$PM@ 1002e618     LockTimeMatch.obj
 0002:00002658       ??_C@_0FA@DODPGKMC@g?3?2?M?x?$LK?$PM?2happygamewh?2?$LH?$PO?N?q?$LG?K?2?O?$LF?M?$LD@ 1002e658     MatchServiceManager.obj
 0002:000026b8       ??_C@_0BB@KOOONENB@?$LG?$KI?J?$LB?H?$PM?$LE?$LE?$LN?$KI?J?$KH?$LA?$NM?$KD?$KB@ 1002e6b8     MatchServiceManager.obj
 0002:000026cc       ??_C@_0BB@NNMHOGNO@?$LM?$LE?J?$LB?H?$PM?$LE?$LE?$LN?$KI?J?$KH?$LA?$NM?$KD?$KB@ 1002e6cc     MatchServiceManager.obj
 0002:000026e0       ??_C@_08HBOFLKLL@?$LE?$LE?$LN?$KI?J?$KH?$LA?$NM@ 1002e6e0     MatchServiceManager.obj
 0002:000026ec       ??_C@_0N@DLOPLLLM@?$LN?S?$LP?Z?$LC?i?Q?$KP?J?$KH?$LA?$NM@ 1002e6ec     MatchServiceManager.obj
 0002:00002700       __pAtlLcidToLocaleNameTable 1002e700     Stdafx.obj
 0002:00002f8c       ??_C@_15EMKDOKLE@?$AAa?$AAr@ 1002ef8c     Stdafx.obj
 0002:00002f94       ??_C@_15KNPADPLH@?$AAb?$AAg@ 1002ef94     Stdafx.obj
 0002:00002f9c       ??_C@_15EDMHLDMO@?$AAc?$AAa@ 1002ef9c     Stdafx.obj
 0002:00002fa4       ??_C@_1O@BPEAJADD@?$AAz?$AAh?$AA?9?$AAC?$AAH?$AAS@ 1002efa4     Stdafx.obj
 0002:00002fb4       ??_C@_15LJNHCMNK@?$AAc?$AAs@ 1002efb4     Stdafx.obj
 0002:00002fbc       ??_C@_15FOMCIDHG@?$AAd?$AAa@ 1002efbc     Stdafx.obj
 0002:00002fc4       ??_C@_15NBKABECB@?$AAd?$AAe@ 1002efc4     Stdafx.obj
 0002:00002fcc       ??_C@_15GHPEIIAO@?$AAe?$AAl@ 1002efcc     Stdafx.obj
 0002:00002fd4       ??_C@_15MNPNEAIF@?$AAe?$AAn@ 1002efd4     Stdafx.obj
 0002:00002fdc       ??_C@_15GPIOMPMH@?$AAe?$AAs@ 1002efdc     Stdafx.obj
 0002:00002fe4       ??_C@_15NGLOAKJC@?$AAf?$AAi@ 1002efe4     Stdafx.obj
 0002:00002fec       ??_C@_15FBKGNKAM@?$AAf?$AAr@ 1002efec     Stdafx.obj
 0002:00002ff4       ??_C@_15KGGCNEFK@?$AAh?$AAe@ 1002eff4     Stdafx.obj
 0002:00002ffc       ??_C@_15PGHLIDMF@?$AAh?$AAu@ 1002effc     Stdafx.obj
 0002:00003004       ??_C@_15BIEMAPLM@?$AAi?$AAs@ 1002f004     Stdafx.obj
 0002:0000300c       ??_C@_15IFJLDHAF@?$AAi?$AAt@ 1002f00c     Stdafx.obj
 0002:00003014       ??_C@_15GEMIOCAG@?$AAj?$AAa@ 1002f014     Stdafx.obj
 0002:0000301c       ??_C@_15EPELEGJA@?$AAk?$AAo@ 1002f01c     Stdafx.obj
 0002:00003024       ??_C@_15NDDHIMN@?$AAn?$AAl@ 1002f024     Stdafx.obj
 0002:0000302c       ??_C@_15BPIGNHCD@?$AAn?$AAo@ 1002f02c     Stdafx.obj
 0002:00003034       ??_C@_15DEOPBLCG@?$AAp?$AAl@ 1002f034     Stdafx.obj
 0002:0000303c       ??_C@_15KBECGEFG@?$AAp?$AAt@ 1002f03c     Stdafx.obj
 0002:00003044       ??_C@_15GLJCBFMD@?$AAr?$AAo@ 1002f044     Stdafx.obj
 0002:0000304c       ??_C@_15FEDGKCDI@?$AAr?$AAu@ 1002f04c     Stdafx.obj
 0002:00003054       ??_C@_15GLKMLLHM@?$AAh?$AAr@ 1002f054     Stdafx.obj
 0002:0000305c       ??_C@_15CPKMFBDB@?$AAs?$AAk@ 1002f05c     Stdafx.obj
 0002:00003064       ??_C@_15BAAIOGMK@?$AAs?$AAq@ 1002f064     Stdafx.obj
 0002:0000306c       ??_C@_15INNPNOHD@?$AAs?$AAv@ 1002f06c     Stdafx.obj
 0002:00003074       ??_C@_15CABMMOGH@?$AAt?$AAh@ 1002f074     Stdafx.obj
 0002:0000307c       ??_C@_15BPLIHJJM@?$AAt?$AAr@ 1002f07c     Stdafx.obj
 0002:00003084       ??_C@_15NEOEKKDJ@?$AAu?$AAr@ 1002f084     Stdafx.obj
 0002:0000308c       ??_C@_15NFICGAJK@?$AAi?$AAd@ 1002f08c     Stdafx.obj
 0002:00003094       ??_C@_15PJPFLCCM@?$AAu?$AAk@ 1002f094     Stdafx.obj
 0002:0000309c       ??_C@_15HPJPHDM@?$AAb?$AAe@ 1002f09c     Stdafx.obj
 0002:000030a4       ??_C@_15LCHLGJII@?$AAs?$AAl@ 1002f0a4     Stdafx.obj
 0002:000030ac       ??_C@_15PCFJPHHO@?$AAe?$AAt@ 1002f0ac     Stdafx.obj
 0002:000030b4       ??_C@_15HPFPGODN@?$AAl?$AAv@ 1002f0b4     Stdafx.obj
 0002:000030bc       ??_C@_15NFFGKGLG@?$AAl?$AAt@ 1002f0bc     Stdafx.obj
 0002:000030c4       ??_C@_15BDAKCCHN@?$AAf?$AAa@ 1002f0c4     Stdafx.obj
 0002:000030cc       ??_C@_15NFGIAIAJ@?$AAv?$AAi@ 1002f0cc     Stdafx.obj
 0002:000030d4       ??_C@_15LMKNDMHN@?$AAh?$AAy@ 1002f0d4     Stdafx.obj
 0002:000030dc       ??_C@_15IJBHMCFL@?$AAa?$AAz@ 1002f0dc     Stdafx.obj
 0002:000030e4       ??_C@_15EKOFJABL@?$AAe?$AAu@ 1002f0e4     Stdafx.obj
 0002:000030ec       ??_C@_15BGHADCNK@?$AAm?$AAk@ 1002f0ec     Stdafx.obj
 0002:000030f4       ??_C@_15JDNICKHM@?$AAa?$AAf@ 1002f0f4     Stdafx.obj
 0002:000030fc       ??_C@_15KPJEDBKD@?$AAk?$AAa@ 1002f0fc     Stdafx.obj
 0002:00003104       ??_C@_15PDNFFFEO@?$AAf?$AAo@ 1002f104     Stdafx.obj
 0002:0000310c       ??_C@_15OMLEGLOC@?$AAh?$AAi@ 1002f10c     Stdafx.obj
 0002:00003114       ??_C@_15IDNNENKK@?$AAm?$AAs@ 1002f114     Stdafx.obj
 0002:0000311c       ??_C@_15MACJNBMH@?$AAk?$AAk@ 1002f11c     Stdafx.obj
 0002:00003124       ??_C@_15DKDJEOND@?$AAk?$AAy@ 1002f124     Stdafx.obj
 0002:0000312c       ??_C@_15DFGDLJBG@?$AAs?$AAw@ 1002f12c     Stdafx.obj
 0002:00003134       ??_C@_15BBFAICNG@?$AAu?$AAz@ 1002f134     Stdafx.obj
 0002:0000313c       ??_C@_15DKNDCGEA@?$AAt?$AAt@ 1002f13c     Stdafx.obj
 0002:00003144       ??_C@_15MGIFMDPL@?$AAp?$AAa@ 1002f144     Stdafx.obj
 0002:0000314c       ??_C@_15HCNDBBA@?$AAg?$AAu@ 1002f14c     Stdafx.obj
 0002:00003154       ??_C@_15FNBEIBON@?$AAt?$AAa@ 1002f154     Stdafx.obj
 0002:0000315c       ??_C@_15NCHGBGLK@?$AAt?$AAe@ 1002f15c     Stdafx.obj
 0002:00003164       ??_C@_15PHPHCBPF@?$AAk?$AAn@ 1002f164     Stdafx.obj
 0002:0000316c       ??_C@_15DLGBCKMP@?$AAm?$AAr@ 1002f16c     Stdafx.obj
 0002:00003174       ??_C@_15EABBLBFF@?$AAs?$AAa@ 1002f174     Stdafx.obj
 0002:0000317c       ??_C@_15CBKOMCOI@?$AAm?$AAn@ 1002f17c     Stdafx.obj
 0002:00003184       ??_C@_15CKDMCJAF@?$AAg?$AAl@ 1002f184     Stdafx.obj
 0002:0000318c       ??_C@_17CNJFBPG@?$AAk?$AAo?$AAk@ 1002f18c     Stdafx.obj
 0002:00003198       ??_C@_17FFBJICPL@?$AAs?$AAy?$AAr@ 1002f198     Stdafx.obj
 0002:000031a4       ??_C@_17KPNDCPAF@?$AAd?$AAi?$AAv@ 1002f1a4     Stdafx.obj
 0002:000031b0       ??_C@_11LOCGONAA@@         1002f1b0     Stdafx.obj
 0002:000031b4       ??_C@_1M@OKAHONE@?$AAa?$AAr?$AA?9?$AAS?$AAA@ 1002f1b4     Stdafx.obj
 0002:000031c4       ??_C@_1M@FFFIGIGK@?$AAb?$AAg?$AA?9?$AAB?$AAG@ 1002f1c4     Stdafx.obj
 0002:000031d4       ??_C@_1M@BJNKEDC@?$AAc?$AAa?$AA?9?$AAE?$AAS@ 1002f1d4     Stdafx.obj
 0002:000031e4       ??_C@_1M@CLNBBOPM@?$AAz?$AAh?$AA?9?$AAT?$AAW@ 1002f1e4     Stdafx.obj
 0002:000031f4       ??_C@_1M@IJJHFJHA@?$AAc?$AAs?$AA?9?$AAC?$AAZ@ 1002f1f4     Stdafx.obj
 0002:00003204       ??_C@_1M@CLPEOBGI@?$AAd?$AAa?$AA?9?$AAD?$AAK@ 1002f204     Stdafx.obj
 0002:00003214       ??_C@_1M@MCMADGCB@?$AAd?$AAe?$AA?9?$AAD?$AAE@ 1002f214     Stdafx.obj
 0002:00003224       ??_C@_1M@OOCKEMAM@?$AAe?$AAl?$AA?9?$AAG?$AAR@ 1002f224     Stdafx.obj
 0002:00003234       ??_C@_1M@BMHNFIME@?$AAe?$AAn?$AA?9?$AAU?$AAS@ 1002f234     Stdafx.obj
 0002:00003244       ??_C@_1M@DDNJFGID@?$AAf?$AAi?$AA?9?$AAF?$AAI@ 1002f244     Stdafx.obj
 0002:00003254       ??_C@_1M@GLIPPMAC@?$AAf?$AAr?$AA?9?$AAF?$AAR@ 1002f254     Stdafx.obj
 0002:00003264       ??_C@_1M@GFMCHPE@?$AAh?$AAe?$AA?9?$AAI?$AAL@ 1002f264     Stdafx.obj
 0002:00003274       ??_C@_1M@MHLPGNKM@?$AAh?$AAu?$AA?9?$AAH?$AAU@ 1002f274     Stdafx.obj
 0002:00003284       ??_C@_1M@LPDDNNPN@?$AAi?$AAs?$AA?9?$AAI?$AAS@ 1002f284     Stdafx.obj
 0002:00003294       ??_C@_1M@MADIPODN@?$AAi?$AAt?$AA?9?$AAI?$AAT@ 1002f294     Stdafx.obj
 0002:000032a4       ??_C@_1M@HPNHIDJI@?$AAj?$AAa?$AA?9?$AAJ?$AAP@ 1002f2a4     Stdafx.obj
 0002:000032b4       ??_C@_1M@JLOOOEGK@?$AAk?$AAo?$AA?9?$AAK?$AAR@ 1002f2b4     Stdafx.obj
 0002:000032c4       ??_C@_1M@IHBJJGG@?$AAn?$AAl?$AA?9?$AAN?$AAL@ 1002f2c4     Stdafx.obj
 0002:000032d4       ??_C@_1M@EANAGDL@?$AAn?$AAb?$AA?9?$AAN?$AAO@ 1002f2d4     Stdafx.obj
 0002:000032e4       ??_C@_1M@NEIEMEGP@?$AAp?$AAl?$AA?9?$AAP?$AAL@ 1002f2e4     Stdafx.obj
 0002:000032f4       ??_C@_1M@BOCFIGEP@?$AAp?$AAt?$AA?9?$AAB?$AAR@ 1002f2f4     Stdafx.obj
 0002:00003304       ??_C@_1M@IMPFOPBG@?$AAr?$AAo?$AA?9?$AAR?$AAO@ 1002f304     Stdafx.obj
 0002:00003314       ??_C@_1M@IDNNEJMM@?$AAr?$AAu?$AA?9?$AAR?$AAU@ 1002f314     Stdafx.obj
 0002:00003324       ??_C@_1M@LILEEOGM@?$AAh?$AAr?$AA?9?$AAH?$AAR@ 1002f324     Stdafx.obj
 0002:00003334       ??_C@_1M@FKIFEHPB@?$AAs?$AAk?$AA?9?$AAS?$AAK@ 1002f334     Stdafx.obj
 0002:00003344       ??_C@_1M@LJMAMNPJ@?$AAs?$AAq?$AA?9?$AAA?$AAL@ 1002f344     Stdafx.obj
 0002:00003354       ??_C@_1M@GIAKDKJK@?$AAs?$AAv?$AA?9?$AAS?$AAE@ 1002f354     Stdafx.obj
 0002:00003364       ??_C@_1M@MKJKIKCL@?$AAt?$AAh?$AA?9?$AAT?$AAH@ 1002f364     Stdafx.obj
 0002:00003374       ??_C@_1M@MFLCCMPB@?$AAt?$AAr?$AA?9?$AAT?$AAR@ 1002f374     Stdafx.obj
 0002:00003384       ??_C@_1M@OIJHDKJN@?$AAu?$AAr?$AA?9?$AAP?$AAK@ 1002f384     Stdafx.obj
 0002:00003394       ??_C@_1M@LHIPCIEK@?$AAi?$AAd?$AA?9?$AAI?$AAD@ 1002f394     Stdafx.obj
 0002:000033a4       ??_C@_1M@MFMOBGI@?$AAu?$AAk?$AA?9?$AAU?$AAA@ 1002f3a4     Stdafx.obj
 0002:000033b4       ??_C@_1M@OBGLJIPL@?$AAb?$AAe?$AA?9?$AAB?$AAY@ 1002f3b4     Stdafx.obj
 0002:000033c4       ??_C@_1M@BCFAJEAD@?$AAs?$AAl?$AA?9?$AAS?$AAI@ 1002f3c4     Stdafx.obj
 0002:000033d4       ??_C@_1M@FKFFEDDN@?$AAe?$AAt?$AA?9?$AAE?$AAE@ 1002f3d4     Stdafx.obj
 0002:000033e4       ??_C@_1M@KGKKAACI@?$AAl?$AAv?$AA?9?$AAL?$AAV@ 1002f3e4     Stdafx.obj
 0002:000033f4       ??_C@_1M@IFGBIJO@?$AAl?$AAt?$AA?9?$AAL?$AAT@ 1002f3f4     Stdafx.obj
 0002:00003404       ??_C@_1M@FGEAHEDM@?$AAf?$AAa?$AA?9?$AAI?$AAR@ 1002f404     Stdafx.obj
 0002:00003414       ??_C@_1M@KBMAIBFN@?$AAv?$AAi?$AA?9?$AAV?$AAN@ 1002f414     Stdafx.obj
 0002:00003424       ??_C@_1M@GPCBKDJK@?$AAh?$AAy?$AA?9?$AAA?$AAM@ 1002f424     Stdafx.obj
 0002:00003434       ??_C@_1BG@BECMDDJB@?$AAa?$AAz?$AA?9?$AAA?$AAZ?$AA?9?$AAL?$AAa?$AAt?$AAn@ 1002f434     Stdafx.obj
 0002:00003450       ??_C@_1M@MAOFCAEA@?$AAe?$AAu?$AA?9?$AAE?$AAS@ 1002f450     Stdafx.obj
 0002:00003460       ??_C@_1M@IGHABKPI@?$AAm?$AAk?$AA?9?$AAM?$AAK@ 1002f460     Stdafx.obj
 0002:00003470       ??_C@_1M@IAIGNEJG@?$AAt?$AAn?$AA?9?$AAZ?$AAA@ 1002f470     Stdafx.obj
 0002:00003480       ??_C@_1M@IIJCOJFA@?$AAx?$AAh?$AA?9?$AAZ?$AAA@ 1002f480     Stdafx.obj
 0002:00003490       ??_C@_1M@LGPJHNJH@?$AAz?$AAu?$AA?9?$AAZ?$AAA@ 1002f490     Stdafx.obj
 0002:000034a0       ??_C@_1M@HOKAOIO@?$AAa?$AAf?$AA?9?$AAZ?$AAA@ 1002f4a0     Stdafx.obj
 0002:000034b0       ??_C@_1M@DPCLHLIE@?$AAk?$AAa?$AA?9?$AAG?$AAE@ 1002f4b0     Stdafx.obj
 0002:000034c0       ??_C@_1M@BLKMHJBI@?$AAf?$AAo?$AA?9?$AAF?$AAO@ 1002f4c0     Stdafx.obj
 0002:000034d0       ??_C@_1M@LGGJAPPB@?$AAh?$AAi?$AA?9?$AAI?$AAN@ 1002f4d0     Stdafx.obj
 0002:000034e0       ??_C@_1M@FIKPIHFE@?$AAm?$AAt?$AA?9?$AAM?$AAT@ 1002f4e0     Stdafx.obj
 0002:000034f0       ??_C@_1M@HEGGPBFA@?$AAs?$AAe?$AA?9?$AAN?$AAO@ 1002f4f0     Stdafx.obj
 0002:00003500       ??_C@_1M@EIBJEEPA@?$AAm?$AAs?$AA?9?$AAM?$AAY@ 1002f500     Stdafx.obj
 0002:00003510       ??_C@_1M@FHLBGMPP@?$AAk?$AAk?$AA?9?$AAK?$AAZ@ 1002f510     Stdafx.obj
 0002:00003520       ??_C@_1M@NGJJLCGI@?$AAk?$AAy?$AA?9?$AAK?$AAG@ 1002f520     Stdafx.obj
 0002:00003530       ??_C@_1M@GIENNBFC@?$AAs?$AAw?$AA?9?$AAK?$AAE@ 1002f530     Stdafx.obj
 0002:00003540       ??_C@_1BG@NDGMJIMJ@?$AAu?$AAz?$AA?9?$AAU?$AAZ?$AA?9?$AAL?$AAa?$AAt?$AAn@ 1002f540     Stdafx.obj
 0002:0000355c       ??_C@_1M@IDCCIHBC@?$AAt?$AAt?$AA?9?$AAR?$AAU@ 1002f55c     Stdafx.obj
 0002:0000356c       ??_C@_1M@LOICPMOJ@?$AAb?$AAn?$AA?9?$AAI?$AAN@ 1002f56c     Stdafx.obj
 0002:0000357c       ??_C@_1M@KPKKNEAH@?$AAp?$AAa?$AA?9?$AAI?$AAN@ 1002f57c     Stdafx.obj
 0002:0000358c       ??_C@_1M@PJGPPBOG@?$AAg?$AAu?$AA?9?$AAI?$AAN@ 1002f58c     Stdafx.obj
 0002:0000359c       ??_C@_1M@KMKMOPHI@?$AAt?$AAa?$AA?9?$AAI?$AAN@ 1002f59c     Stdafx.obj
 0002:000035ac       ??_C@_1M@KFEHEPAC@?$AAt?$AAe?$AA?9?$AAI?$AAN@ 1002f5ac     Stdafx.obj
 0002:000035bc       ??_C@_1M@CDCLMGHI@?$AAk?$AAn?$AA?9?$AAI?$AAN@ 1002f5bc     Stdafx.obj
 0002:000035cc       ??_C@_1M@MIODLDKF@?$AAm?$AAl?$AA?9?$AAI?$AAN@ 1002f5cc     Stdafx.obj
 0002:000035dc       ??_C@_1M@PBIEACPO@?$AAm?$AAr?$AA?9?$AAI?$AAN@ 1002f5dc     Stdafx.obj
 0002:000035ec       ??_C@_1M@NIDEAGPH@?$AAs?$AAa?$AA?9?$AAI?$AAN@ 1002f5ec     Stdafx.obj
 0002:000035fc       ??_C@_1M@FHIHCBIO@?$AAm?$AAn?$AA?9?$AAM?$AAN@ 1002f5fc     Stdafx.obj
 0002:0000360c       ??_C@_1M@JAIJPENP@?$AAc?$AAy?$AA?9?$AAG?$AAB@ 1002f60c     Stdafx.obj
 0002:0000361c       ??_C@_1M@PHGFBEPN@?$AAg?$AAl?$AA?9?$AAE?$AAS@ 1002f61c     Stdafx.obj
 0002:0000362c       ??_C@_1O@KPIPDNCP@?$AAk?$AAo?$AAk?$AA?9?$AAI?$AAN@ 1002f62c     Stdafx.obj
 0002:0000363c       ??_C@_1O@KNHJLDJA@?$AAs?$AAy?$AAr?$AA?9?$AAS?$AAY@ 1002f63c     Stdafx.obj
 0002:0000364c       ??_C@_1O@MKEKBLAH@?$AAd?$AAi?$AAv?$AA?9?$AAM?$AAV@ 1002f64c     Stdafx.obj
 0002:0000365c       ??_C@_1O@OHDCKDDF@?$AAq?$AAu?$AAz?$AA?9?$AAB?$AAO@ 1002f65c     Stdafx.obj
 0002:0000366c       ??_C@_1M@LEPJNLFD@?$AAn?$AAs?$AA?9?$AAZ?$AAA@ 1002f66c     Stdafx.obj
 0002:0000367c       ??_C@_1M@OMLEIIJB@?$AAm?$AAi?$AA?9?$AAN?$AAZ@ 1002f67c     Stdafx.obj
 0002:0000368c       ??_C@_1M@PMPEAILG@?$AAa?$AAr?$AA?9?$AAI?$AAQ@ 1002f68c     Stdafx.obj
 0002:0000369c       ??_C@_1M@BIBDDEMK@?$AAz?$AAh?$AA?9?$AAC?$AAN@ 1002f69c     Stdafx.obj
 0002:000036ac       ??_C@_1M@CNKPNOEE@?$AAd?$AAe?$AA?9?$AAC?$AAH@ 1002f6ac     Stdafx.obj
 0002:000036bc       ??_C@_1M@LKMGMLKO@?$AAe?$AAn?$AA?9?$AAG?$AAB@ 1002f6bc     Stdafx.obj
 0002:000036cc       ??_C@_1M@PGKJFFGL@?$AAe?$AAs?$AA?9?$AAM?$AAX@ 1002f6cc     Stdafx.obj
 0002:000036dc       ??_C@_1M@DNNANBDC@?$AAf?$AAr?$AA?9?$AAB?$AAE@ 1002f6dc     Stdafx.obj
 0002:000036ec       ??_C@_1M@HLGMDFHM@?$AAi?$AAt?$AA?9?$AAC?$AAH@ 1002f6ec     Stdafx.obj
 0002:000036fc       ??_C@_1M@CLLBGJH@?$AAn?$AAl?$AA?9?$AAB?$AAE@ 1002f6fc     Stdafx.obj
 0002:0000370c       ??_C@_1M@BODBOGLF@?$AAn?$AAn?$AA?9?$AAN?$AAO@ 1002f70c     Stdafx.obj
 0002:0000371c       ??_C@_1M@HFFAHKAD@?$AAp?$AAt?$AA?9?$AAP?$AAT@ 1002f71c     Stdafx.obj
 0002:0000372c       ??_C@_1BG@LNOAKHIE@?$AAs?$AAr?$AA?9?$AAS?$AAP?$AA?9?$AAL?$AAa?$AAt?$AAn@ 1002f72c     Stdafx.obj
 0002:00003748       ??_C@_1M@HBMHBGAK@?$AAs?$AAv?$AA?9?$AAF?$AAI@ 1002f748     Stdafx.obj
 0002:00003758       ??_C@_1BG@DGCJGJBE@?$AAa?$AAz?$AA?9?$AAA?$AAZ?$AA?9?$AAC?$AAy?$AAr?$AAl@ 1002f758     Stdafx.obj
 0002:00003774       ??_C@_1M@KEJDAAHB@?$AAs?$AAe?$AA?9?$AAS?$AAE@ 1002f774     Stdafx.obj
 0002:00003784       ??_C@_1M@HEIBJJAD@?$AAm?$AAs?$AA?9?$AAB?$AAN@ 1002f784     Stdafx.obj
 0002:00003794       ??_C@_1BG@PBGJMCEM@?$AAu?$AAz?$AA?9?$AAU?$AAZ?$AA?9?$AAC?$AAy?$AAr?$AAl@ 1002f794     Stdafx.obj
 0002:000037b0       ??_C@_1O@LAOBCMDF@?$AAq?$AAu?$AAz?$AA?9?$AAE?$AAC@ 1002f7b0     Stdafx.obj
 0002:000037c0       ??_C@_1M@POEEMAIO@?$AAa?$AAr?$AA?9?$AAE?$AAG@ 1002f7c0     Stdafx.obj
 0002:000037d0       ??_C@_1M@EFAKDEDL@?$AAz?$AAh?$AA?9?$AAH?$AAK@ 1002f7d0     Stdafx.obj
 0002:000037e0       ??_C@_1M@HKKIJHGI@?$AAd?$AAe?$AA?9?$AAA?$AAT@ 1002f7e0     Stdafx.obj
 0002:000037f0       ??_C@_1M@KBFBEHJF@?$AAe?$AAn?$AA?9?$AAA?$AAU@ 1002f7f0     Stdafx.obj
 0002:00003800       ??_C@_1M@MNPLFAAH@?$AAe?$AAs?$AA?9?$AAE?$AAS@ 1002f800     Stdafx.obj
 0002:00003810       ??_C@_1M@HJOOJFMA@?$AAf?$AAr?$AA?9?$AAC?$AAA@ 1002f810     Stdafx.obj
 0002:00003820       ??_C@_1BG@JPOFPNAB@?$AAs?$AAr?$AA?9?$AAS?$AAP?$AA?9?$AAC?$AAy?$AAr?$AAl@ 1002f820     Stdafx.obj
 0002:0000383c       ??_C@_1M@LNFOCMOB@?$AAs?$AAe?$AA?9?$AAF?$AAI@ 1002f83c     Stdafx.obj
 0002:0000384c       ??_C@_1O@MGJBOAMB@?$AAq?$AAu?$AAz?$AA?9?$AAP?$AAE@ 1002f84c     Stdafx.obj
 0002:0000385c       ??_C@_1M@GJINLBOK@?$AAa?$AAr?$AA?9?$AAL?$AAY@ 1002f85c     Stdafx.obj
 0002:0000386c       ??_C@_1M@GGMNHJNL@?$AAz?$AAh?$AA?9?$AAS?$AAG@ 1002f86c     Stdafx.obj
 0002:0000387c       ??_C@_1M@HOIKODND@?$AAd?$AAe?$AA?9?$AAL?$AAU@ 1002f87c     Stdafx.obj
 0002:0000388c       ??_C@_1M@DDOCCGFG@?$AAe?$AAn?$AA?9?$AAC?$AAA@ 1002f88c     Stdafx.obj
 0002:0000389c       ??_C@_1M@BNOEMJLF@?$AAe?$AAs?$AA?9?$AAG?$AAT@ 1002f89c     Stdafx.obj
 0002:000038ac       ??_C@_1M@EOGNKEK@?$AAf?$AAr?$AA?9?$AAC?$AAH@ 1002f8ac     Stdafx.obj
 0002:000038bc       ??_C@_1M@FLIDJFHL@?$AAh?$AAr?$AA?9?$AAB?$AAA@ 1002f8bc     Stdafx.obj
 0002:000038cc       ??_C@_1O@FMCELNAJ@?$AAs?$AAm?$AAj?$AA?9?$AAN?$AAO@ 1002f8cc     Stdafx.obj
 0002:000038dc       ??_C@_1M@JHGLJMGJ@?$AAa?$AAr?$AA?9?$AAD?$AAZ@ 1002f8dc     Stdafx.obj
 0002:000038ec       ??_C@_1M@JKKFDCNP@?$AAz?$AAh?$AA?9?$AAM?$AAO@ 1002f8ec     Stdafx.obj
 0002:000038fc       ??_C@_1M@GEEFALPE@?$AAd?$AAe?$AA?9?$AAL?$AAI@ 1002f8fc     Stdafx.obj
 0002:0000390c       ??_C@_1M@IGEOFBG@?$AAe?$AAn?$AA?9?$AAN?$AAZ@ 1002f90c     Stdafx.obj
 0002:0000391c       ??_C@_1M@KDBONEHP@?$AAe?$AAs?$AA?9?$AAC?$AAR@ 1002f91c     Stdafx.obj
 0002:0000392c       ??_C@_1M@FHMDOHNN@?$AAf?$AAr?$AA?9?$AAL?$AAU@ 1002f92c     Stdafx.obj
 0002:0000393c       ??_C@_1BG@NFKKMAFG@?$AAb?$AAs?$AA?9?$AAB?$AAA?$AA?9?$AAL?$AAa?$AAt?$AAn@ 1002f93c     Stdafx.obj
 0002:00003958       ??_C@_1O@IMNBEMCI@?$AAs?$AAm?$AAj?$AA?9?$AAS?$AAE@ 1002f958     Stdafx.obj
 0002:00003968       ??_C@_1M@DHHMBNDP@?$AAa?$AAr?$AA?9?$AAM?$AAA@ 1002f968     Stdafx.obj
 0002:00003978       ??_C@_1M@BNBLJCGH@?$AAe?$AAn?$AA?9?$AAI?$AAE@ 1002f978     Stdafx.obj
 0002:00003988       ??_C@_1M@GEPAFMDL@?$AAe?$AAs?$AA?9?$AAP?$AAA@ 1002f988     Stdafx.obj
 0002:00003998       ??_C@_1M@OJONDMDL@?$AAf?$AAr?$AA?9?$AAM?$AAC@ 1002f998     Stdafx.obj
 0002:000039a8       ??_C@_1BG@OBCNFJB@?$AAs?$AAr?$AA?9?$AAB?$AAA?$AA?9?$AAL?$AAa?$AAt?$AAn@ 1002f9a8     Stdafx.obj
 0002:000039c4       ??_C@_1O@KEMEEGPO@?$AAs?$AAm?$AAa?$AA?9?$AAN?$AAO@ 1002f9c4     Stdafx.obj
 0002:000039d4       ??_C@_1M@ELMGFODK@?$AAa?$AAr?$AA?9?$AAT?$AAN@ 1002f9d4     Stdafx.obj
 0002:000039e4       ??_C@_1M@BHDLHFAF@?$AAe?$AAn?$AA?9?$AAZ?$AAA@ 1002f9e4     Stdafx.obj
 0002:000039f4       ??_C@_1M@BMGIGLIF@?$AAe?$AAs?$AA?9?$AAD?$AAO@ 1002f9f4     Stdafx.obj
 0002:00003a04       ??_C@_1BG@CMBHIPBE@?$AAs?$AAr?$AA?9?$AAB?$AAA?$AA?9?$AAC?$AAy?$AAr?$AAl@ 1002fa04     Stdafx.obj
 0002:00003a20       ??_C@_1O@HEDBLHNP@?$AAs?$AAm?$AAa?$AA?9?$AAS?$AAE@ 1002fa20     Stdafx.obj
 0002:00003a30       ??_C@_1M@DAGCADIM@?$AAa?$AAr?$AA?9?$AAO?$AAM@ 1002fa30     Stdafx.obj
 0002:00003a40       ??_C@_1M@FODLMICG@?$AAe?$AAn?$AA?9?$AAJ?$AAM@ 1002fa40     Stdafx.obj
 0002:00003a50       ??_C@_1M@DNMLCIHB@?$AAe?$AAs?$AA?9?$AAV?$AAE@ 1002fa50     Stdafx.obj
 0002:00003a60       ??_C@_1O@EOKHMKJK@?$AAs?$AAm?$AAs?$AA?9?$AAF?$AAI@ 1002fa60     Stdafx.obj
 0002:00003a70       ??_C@_1M@CAFJMKOF@?$AAa?$AAr?$AA?9?$AAY?$AAE@ 1002fa70     Stdafx.obj
 0002:00003a80       ??_C@_1M@CBFHIJLI@?$AAe?$AAn?$AA?9?$AAC?$AAB@ 1002fa80     Stdafx.obj
 0002:00003a90       ??_C@_1M@BGNFLDN@?$AAe?$AAs?$AA?9?$AAC?$AAO@ 1002fa90     Stdafx.obj
 0002:00003aa0       ??_C@_1O@JMPHMAMC@?$AAs?$AAm?$AAn?$AA?9?$AAF?$AAI@ 1002faa0     Stdafx.obj
 0002:00003ab0       ??_C@_1M@JLANABKE@?$AAa?$AAr?$AA?9?$AAS?$AAY@ 1002fab0     Stdafx.obj
 0002:00003ac0       ??_C@_1M@HPKGCFGN@?$AAe?$AAn?$AA?9?$AAB?$AAZ@ 1002fac0     Stdafx.obj
 0002:00003ad0       ??_C@_1M@OLJCMLGM@?$AAe?$AAs?$AA?9?$AAP?$AAE@ 1002fad0     Stdafx.obj
 0002:00003ae0       ??_C@_1M@MKKGFKLE@?$AAa?$AAr?$AA?9?$AAJ?$AAO@ 1002fae0     Stdafx.obj
 0002:00003af0       ??_C@_1M@EKPGLDNI@?$AAe?$AAn?$AA?9?$AAT?$AAT@ 1002faf0     Stdafx.obj
 0002:00003b00       ??_C@_1M@OONGHFHE@?$AAe?$AAs?$AA?9?$AAA?$AAR@ 1002fb00     Stdafx.obj
 0002:00003b10       ??_C@_1M@OOJFGBHE@?$AAa?$AAr?$AA?9?$AAL?$AAB@ 1002fb10     Stdafx.obj
 0002:00003b20       ??_C@_1M@GCEJHNEG@?$AAe?$AAn?$AA?9?$AAZ?$AAW@ 1002fb20     Stdafx.obj
 0002:00003b30       ??_C@_1M@JNOCAHJI@?$AAe?$AAs?$AA?9?$AAE?$AAC@ 1002fb30     Stdafx.obj
 0002:00003b40       ??_C@_1M@JEFHPGGB@?$AAa?$AAr?$AA?9?$AAK?$AAW@ 1002fb40     Stdafx.obj
 0002:00003b50       ??_C@_1M@MLKIBJOJ@?$AAe?$AAn?$AA?9?$AAP?$AAH@ 1002fb50     Stdafx.obj
 0002:00003b60       ??_C@_1M@BDNIPEND@?$AAe?$AAs?$AA?9?$AAC?$AAL@ 1002fb60     Stdafx.obj
 0002:00003b70       ??_C@_1M@MPNMEKBD@?$AAa?$AAr?$AA?9?$AAA?$AAE@ 1002fb70     Stdafx.obj
 0002:00003b80       ??_C@_1M@KBJALCPI@?$AAe?$AAs?$AA?9?$AAU?$AAY@ 1002fb80     Stdafx.obj
 0002:00003b90       ??_C@_1M@LLCCOAGA@?$AAa?$AAr?$AA?9?$AAB?$AAH@ 1002fb90     Stdafx.obj
 0002:00003ba0       ??_C@_1M@PBFNCDEL@?$AAe?$AAs?$AA?9?$AAP?$AAY@ 1002fba0     Stdafx.obj
 0002:00003bb0       ??_C@_1M@EDGINPNP@?$AAa?$AAr?$AA?9?$AAQ?$AAA@ 1002fbb0     Stdafx.obj
 0002:00003bc0       ??_C@_1M@MKDBIIJI@?$AAe?$AAs?$AA?9?$AAB?$AAO@ 1002fbc0     Stdafx.obj
 0002:00003bd0       ??_C@_1M@CPKKEBLD@?$AAe?$AAs?$AA?9?$AAS?$AAV@ 1002fbd0     Stdafx.obj
 0002:00003be0       ??_C@_1M@NDBGMMJL@?$AAe?$AAs?$AA?9?$AAH?$AAN@ 1002fbe0     Stdafx.obj
 0002:00003bf0       ??_C@_1M@JIJIBHDP@?$AAe?$AAs?$AA?9?$AAN?$AAI@ 1002fbf0     Stdafx.obj
 0002:00003c00       ??_C@_1M@CGFMKEEK@?$AAe?$AAs?$AA?9?$AAP?$AAR@ 1002fc00     Stdafx.obj
 0002:00003c10       ??_C@_1O@ICJHKIIK@?$AAz?$AAh?$AA?9?$AAC?$AAH?$AAT@ 1002fc10     Stdafx.obj
 0002:00003c20       ??_C@_15CLNEJCE@?$AAs?$AAr@ 1002fc20     Stdafx.obj
 0002:00003c28       __pAtlLocaleNameToIndexTable 1002fc28     Stdafx.obj
 0002:000044b4       ??_C@_1M@KAHEKEIG@?$AAa?$AAf?$AA?9?$AAz?$AAa@ 100304b4     Stdafx.obj
 0002:000044c4       ??_C@_1M@GIECOABL@?$AAa?$AAr?$AA?9?$AAa?$AAe@ 100304c4     Stdafx.obj
 0002:000044d4       ??_C@_1M@BMLMEKGI@?$AAa?$AAr?$AA?9?$AAb?$AAh@ 100304d4     Stdafx.obj
 0002:000044e4       ??_C@_1M@DAPFDGGB@?$AAa?$AAr?$AA?9?$AAd?$AAz@ 100304e4     Stdafx.obj
 0002:000044f4       ??_C@_1M@FJNKGKIG@?$AAa?$AAr?$AA?9?$AAe?$AAg@ 100304f4     Stdafx.obj
 0002:00004504       ??_C@_1M@FLGKKCLO@?$AAa?$AAr?$AA?9?$AAi?$AAq@ 10030504     Stdafx.obj
 0002:00004514       ??_C@_1M@GNDIPALM@?$AAa?$AAr?$AA?9?$AAj?$AAo@ 10030514     Stdafx.obj
 0002:00004524       ??_C@_1M@DDMJFMGJ@?$AAa?$AAr?$AA?9?$AAk?$AAw@ 10030524     Stdafx.obj
 0002:00004534       ??_C@_1M@EJALMLHM@?$AAa?$AAr?$AA?9?$AAl?$AAb@ 10030534     Stdafx.obj
 0002:00004544       ??_C@_1M@MOBDBLOC@?$AAa?$AAr?$AA?9?$AAl?$AAy@ 10030544     Stdafx.obj
 0002:00004554       ??_C@_1M@JAOCLHDH@?$AAa?$AAr?$AA?9?$AAm?$AAa@ 10030554     Stdafx.obj
 0002:00004564       ??_C@_1M@JHPMKJIE@?$AAa?$AAr?$AA?9?$AAo?$AAm@ 10030564     Stdafx.obj
 0002:00004574       ??_C@_1M@OEPGHFNH@?$AAa?$AAr?$AA?9?$AAq?$AAa@ 10030574     Stdafx.obj
 0002:00004584       ??_C@_1M@KJDONENM@?$AAa?$AAr?$AA?9?$AAs?$AAa@ 10030584     Stdafx.obj
 0002:00004594       ??_C@_1M@DMJDKLKM@?$AAa?$AAr?$AA?9?$AAs?$AAy@ 10030594     Stdafx.obj
 0002:000045a4       ??_C@_1M@OMFIPEDC@?$AAa?$AAr?$AA?9?$AAt?$AAn@ 100305a4     Stdafx.obj
 0002:000045b4       ??_C@_1M@IHMHGAON@?$AAa?$AAr?$AA?9?$AAy?$AAe@ 100305b4     Stdafx.obj
 0002:000045c4       ??_C@_1BG@KDCPGJGB@?$AAa?$AAz?$AA?9?$AAa?$AAz?$AA?9?$AAc?$AAy?$AAr?$AAl@ 100305c4     Stdafx.obj
 0002:000045e0       ??_C@_1BG@IBCKDDOE@?$AAa?$AAz?$AA?9?$AAa?$AAz?$AA?9?$AAl?$AAa?$AAt?$AAn@ 100305e0     Stdafx.obj
 0002:000045fc       ??_C@_1M@EGPFDCPD@?$AAb?$AAe?$AA?9?$AAb?$AAy@ 100305fc     Stdafx.obj
 0002:0000460c       ??_C@_1M@PCMGMCGC@?$AAb?$AAg?$AA?9?$AAb?$AAg@ 1003060c     Stdafx.obj
 0002:0000461c       ??_C@_1M@BJBMFGOB@?$AAb?$AAn?$AA?9?$AAi?$AAn@ 1003061c     Stdafx.obj
 0002:0000462c       ??_C@_1BG@EAKMMACD@?$AAb?$AAs?$AA?9?$AAb?$AAa?$AA?9?$AAl?$AAa?$AAt?$AAn@ 1003062c     Stdafx.obj
 0002:00004648       ??_C@_1M@KGADAODK@?$AAc?$AAa?$AA?9?$AAe?$AAs@ 10030648     Stdafx.obj
 0002:00004658       ??_C@_1M@COAJPDHI@?$AAc?$AAs?$AA?9?$AAc?$AAz@ 10030658     Stdafx.obj
 0002:00004668       ??_C@_1M@DHBHFONH@?$AAc?$AAy?$AA?9?$AAg?$AAb@ 10030668     Stdafx.obj
 0002:00004678       ??_C@_1M@IMGKELGA@?$AAd?$AAa?$AA?9?$AAd?$AAk@ 10030678     Stdafx.obj
 0002:00004688       ??_C@_1M@NNDGDNGA@?$AAd?$AAe?$AA?9?$AAa?$AAt@ 10030688     Stdafx.obj
 0002:00004698       ??_C@_1M@IKDBHEEM@?$AAd?$AAe?$AA?9?$AAc?$AAh@ 10030698     Stdafx.obj
 0002:000046a8       ??_C@_1M@GFFOJMCJ@?$AAd?$AAe?$AA?9?$AAd?$AAe@ 100306a8     Stdafx.obj
 0002:000046b8       ??_C@_1M@MDNLKBPM@?$AAd?$AAe?$AA?9?$AAl?$AAi@ 100306b8     Stdafx.obj
 0002:000046c8       ??_C@_1M@NJBEEJNL@?$AAd?$AAe?$AA?9?$AAl?$AAu@ 100306c8     Stdafx.obj
 0002:000046d8       ??_C@_1O@GNNELBAP@?$AAd?$AAi?$AAv?$AA?9?$AAm?$AAv@ 100306d8     Stdafx.obj
 0002:000046e8       ??_C@_1M@EJLEOGAE@?$AAe?$AAl?$AA?9?$AAg?$AAr@ 100306e8     Stdafx.obj
 0002:000046f8       ??_C@_1M@GMPONJN@?$AAe?$AAn?$AA?9?$AAa?$AAu@ 100306f8     Stdafx.obj
 0002:00004708       ??_C@_1M@NIDIIPGF@?$AAe?$AAn?$AA?9?$AAb?$AAz@ 10030708     Stdafx.obj
 0002:00004718       ??_C@_1M@JEHMIMFO@?$AAe?$AAn?$AA?9?$AAc?$AAa@ 10030718     Stdafx.obj
 0002:00004728       ??_C@_1M@IGMJCDLA@?$AAe?$AAn?$AA?9?$AAc?$AAb@ 10030728     Stdafx.obj
 0002:00004738       ??_C@_1M@BNFIGBKG@?$AAe?$AAn?$AA?9?$AAg?$AAb@ 10030738     Stdafx.obj
 0002:00004748       ??_C@_1M@LKIFDIGP@?$AAe?$AAn?$AA?9?$AAi?$AAe@ 10030748     Stdafx.obj
 0002:00004758       ??_C@_1M@PJKFGCCO@?$AAe?$AAn?$AA?9?$AAj?$AAm@ 10030758     Stdafx.obj
 0002:00004768       ??_C@_1M@KPPKEPBO@?$AAe?$AAn?$AA?9?$AAn?$AAz@ 10030768     Stdafx.obj
 0002:00004778       ??_C@_1M@GMDGLDOB@?$AAe?$AAn?$AA?9?$AAp?$AAh@ 10030778     Stdafx.obj
 0002:00004788       ??_C@_1M@ONGIBJNA@?$AAe?$AAn?$AA?9?$AAt?$AAt@ 10030788     Stdafx.obj
 0002:00004798       ??_C@_1M@LLODPCMM@?$AAe?$AAn?$AA?9?$AAu?$AAs@ 10030798     Stdafx.obj
 0002:000047a8       ??_C@_1M@LAKFNPAN@?$AAe?$AAn?$AA?9?$AAz?$AAa@ 100307a8     Stdafx.obj
 0002:000047b8       ??_C@_1M@MFNHNHEO@?$AAe?$AAn?$AA?9?$AAz?$AAw@ 100307b8     Stdafx.obj
 0002:000047c8       ??_C@_1M@EJEINPHM@?$AAe?$AAs?$AA?9?$AAa?$AAr@ 100307c8     Stdafx.obj
 0002:000047d8       ??_C@_1M@GNKPCCJA@?$AAe?$AAs?$AA?9?$AAb?$AAo@ 100307d8     Stdafx.obj
 0002:000047e8       ??_C@_1M@LEEGFONL@?$AAe?$AAs?$AA?9?$AAc?$AAl@ 100307e8     Stdafx.obj
 0002:000047f8       ??_C@_1M@KGPDPBDF@?$AAe?$AAs?$AA?9?$AAc?$AAo@ 100307f8     Stdafx.obj
 0002:00004808       ??_C@_1M@EIAHOHH@?$AAe?$AAs?$AA?9?$AAc?$AAr@ 10030808     Stdafx.obj
 0002:00004818       ??_C@_1M@LLPGMBIN@?$AAe?$AAs?$AA?9?$AAd?$AAo@ 10030818     Stdafx.obj
 0002:00004828       ??_C@_1M@DKHMKNJA@?$AAe?$AAs?$AA?9?$AAe?$AAc@ 10030828     Stdafx.obj
 0002:00004838       ??_C@_1M@GKGFPKAP@?$AAe?$AAs?$AA?9?$AAe?$AAs@ 10030838     Stdafx.obj
 0002:00004848       ??_C@_1M@LKHKGDLN@?$AAe?$AAs?$AA?9?$AAg?$AAt@ 10030848     Stdafx.obj
 0002:00004858       ??_C@_1M@HEIIGGJD@?$AAe?$AAs?$AA?9?$AAh?$AAn@ 10030858     Stdafx.obj
 0002:00004868       ??_C@_1M@FBDHPPGD@?$AAe?$AAs?$AA?9?$AAm?$AAx@ 10030868     Stdafx.obj
 0002:00004878       ??_C@_1M@DPAGLNDH@?$AAe?$AAs?$AA?9?$AAn?$AAi@ 10030878     Stdafx.obj
 0002:00004888       ??_C@_1M@MDGOPGDD@?$AAe?$AAs?$AA?9?$AAp?$AAa@ 10030888     Stdafx.obj
 0002:00004898       ??_C@_1M@EMAMGBGE@?$AAe?$AAs?$AA?9?$AAp?$AAe@ 10030898     Stdafx.obj
 0002:000048a8       ??_C@_1M@IBMCAOEC@?$AAe?$AAs?$AA?9?$AAp?$AAr@ 100308a8     Stdafx.obj
 0002:000048b8       ??_C@_1M@FGMDIJED@?$AAe?$AAs?$AA?9?$AAp?$AAy@ 100308b8     Stdafx.obj
 0002:000048c8       ??_C@_1M@IIDEOLLL@?$AAe?$AAs?$AA?9?$AAs?$AAv@ 100308c8     Stdafx.obj
 0002:000048d8       ??_C@_1M@GAOBIPA@?$AAe?$AAs?$AA?9?$AAu?$AAy@ 100308d8     Stdafx.obj
 0002:000048e8       ??_C@_1M@JKFFICHJ@?$AAe?$AAs?$AA?9?$AAv?$AAe@ 100308e8     Stdafx.obj
 0002:000048f8       ??_C@_1M@PNMLOJDF@?$AAe?$AAt?$AA?9?$AAe?$AAe@ 100308f8     Stdafx.obj
 0002:00004908       ??_C@_1M@GHHLIKEI@?$AAe?$AAu?$AA?9?$AAe?$AAs@ 10030908     Stdafx.obj
 0002:00004918       ??_C@_1M@PBNONODE@?$AAf?$AAa?$AA?9?$AAi?$AAr@ 10030918     Stdafx.obj
 0002:00004928       ??_C@_1M@JEEHPMIL@?$AAf?$AAi?$AA?9?$AAf?$AAi@ 10030928     Stdafx.obj
 0002:00004938       ??_C@_1M@LMDCNDBA@?$AAf?$AAo?$AA?9?$AAf?$AAo@ 10030938     Stdafx.obj
 0002:00004948       ??_C@_1M@JKEOHLDK@?$AAf?$AAr?$AA?9?$AAb?$AAe@ 10030948     Stdafx.obj
 0002:00004958       ??_C@_1M@NOHADPMI@?$AAf?$AAr?$AA?9?$AAc?$AAa@ 10030958     Stdafx.obj
 0002:00004968       ??_C@_1M@KDHIHAEC@?$AAf?$AAr?$AA?9?$AAc?$AAh@ 10030968     Stdafx.obj
 0002:00004978       ??_C@_1M@MMBBFGAK@?$AAf?$AAr?$AA?9?$AAf?$AAr@ 10030978     Stdafx.obj
 0002:00004988       ??_C@_1M@PAFNENNF@?$AAf?$AAr?$AA?9?$AAl?$AAu@ 10030988     Stdafx.obj
 0002:00004998       ??_C@_1M@EOHDJGDD@?$AAf?$AAr?$AA?9?$AAm?$AAc@ 10030998     Stdafx.obj
 0002:000049a8       ??_C@_1M@FAPLLOPF@?$AAg?$AAl?$AA?9?$AAe?$AAs@ 100309a8     Stdafx.obj
 0002:000049b8       ??_C@_1M@FOPBFLOO@?$AAg?$AAu?$AA?9?$AAi?$AAn@ 100309b8     Stdafx.obj
 0002:000049c8       ??_C@_1M@KBMCINPM@?$AAh?$AAe?$AA?9?$AAi?$AAl@ 100309c8     Stdafx.obj
 0002:000049d8       ??_C@_1M@BBPHKFPJ@?$AAh?$AAi?$AA?9?$AAi?$AAn@ 100309d8     Stdafx.obj
 0002:000049e8       ??_C@_1M@PMBNDPHD@?$AAh?$AAr?$AA?9?$AAb?$AAa@ 100309e8     Stdafx.obj
 0002:000049f8       ??_C@_1M@BPCKOEGE@?$AAh?$AAr?$AA?9?$AAh?$AAr@ 100309f8     Stdafx.obj
 0002:00004a08       ??_C@_1M@GACBMHKE@?$AAh?$AAu?$AA?9?$AAh?$AAu@ 10030a08     Stdafx.obj
 0002:00004a18       ??_C@_1M@MILPAJJC@?$AAh?$AAy?$AA?9?$AAa?$AAm@ 10030a18     Stdafx.obj
 0002:00004a28       ??_C@_1M@BABBICEC@?$AAi?$AAd?$AA?9?$AAi?$AAd@ 10030a28     Stdafx.obj
 0002:00004a38       ??_C@_1M@BIKNHHPF@?$AAi?$AAs?$AA?9?$AAi?$AAs@ 10030a38     Stdafx.obj
 0002:00004a48       ??_C@_1M@NMPCJPHE@?$AAi?$AAt?$AA?9?$AAc?$AAh@ 10030a48     Stdafx.obj
 0002:00004a58       ??_C@_1M@GHKGFEDF@?$AAi?$AAt?$AA?9?$AAi?$AAt@ 10030a58     Stdafx.obj
 0002:00004a68       ??_C@_1M@NIEJCJJA@?$AAj?$AAa?$AA?9?$AAj?$AAp@ 10030a68     Stdafx.obj
 0002:00004a78       ??_C@_1M@JILFNBIM@?$AAk?$AAa?$AA?9?$AAg?$AAe@ 10030a78     Stdafx.obj
 0002:00004a88       ??_C@_1M@PACPMGPH@?$AAk?$AAk?$AA?9?$AAk?$AAz@ 10030a88     Stdafx.obj
 0002:00004a98       ??_C@_1M@IELFGMHA@?$AAk?$AAn?$AA?9?$AAi?$AAn@ 10030a98     Stdafx.obj
 0002:00004aa8       ??_C@_1O@IBBJHCH@?$AAk?$AAo?$AAk?$AA?9?$AAi?$AAn@ 10030aa8     Stdafx.obj
 0002:00004ab8       ??_C@_1M@DMHAEOGC@?$AAk?$AAo?$AA?9?$AAk?$AAr@ 10030ab8     Stdafx.obj
 0002:00004ac8       ??_C@_1M@HBAHBIGA@?$AAk?$AAy?$AA?9?$AAk?$AAg@ 10030ac8     Stdafx.obj
 0002:00004ad8       ??_C@_1M@KPMILCJG@?$AAl?$AAt?$AA?9?$AAl?$AAt@ 10030ad8     Stdafx.obj
 0002:00004ae8       ??_C@_1M@BDEKKCA@?$AAl?$AAv?$AA?9?$AAl?$AAv@ 10030ae8     Stdafx.obj
 0002:00004af8       ??_C@_1M@ELCKCCJJ@?$AAm?$AAi?$AA?9?$AAn?$AAz@ 10030af8     Stdafx.obj
 0002:00004b08       ??_C@_1M@CBOOLAPA@?$AAm?$AAk?$AA?9?$AAm?$AAk@ 10030b08     Stdafx.obj
 0002:00004b18       ??_C@_1M@GPHNBJKN@?$AAm?$AAl?$AA?9?$AAi?$AAn@ 10030b18     Stdafx.obj
 0002:00004b28       ??_C@_1M@PABJILIG@?$AAm?$AAn?$AA?9?$AAm?$AAn@ 10030b28     Stdafx.obj
 0002:00004b38       ??_C@_1M@FGBKKIPG@?$AAm?$AAr?$AA?9?$AAi?$AAn@ 10030b38     Stdafx.obj
 0002:00004b48       ??_C@_1M@NDBPDDAL@?$AAm?$AAs?$AA?9?$AAb?$AAn@ 10030b48     Stdafx.obj
 0002:00004b58       ??_C@_1M@OPIHOOPI@?$AAm?$AAs?$AA?9?$AAm?$AAy@ 10030b58     Stdafx.obj
 0002:00004b68       ??_C@_1M@PPDBCNFM@?$AAm?$AAt?$AA?9?$AAm?$AAt@ 10030b68     Stdafx.obj
 0002:00004b78       ??_C@_1M@KDJDKMDD@?$AAn?$AAb?$AA?9?$AAn?$AAo@ 10030b78     Stdafx.obj
 0002:00004b88       ??_C@_1M@KFCFLMJP@?$AAn?$AAl?$AA?9?$AAb?$AAe@ 10030b88     Stdafx.obj
 0002:00004b98       ??_C@_1M@KPOPDDGO@?$AAn?$AAl?$AA?9?$AAn?$AAl@ 10030b98     Stdafx.obj
 0002:00004ba8       ??_C@_1M@LJKPEMLN@?$AAn?$AAn?$AA?9?$AAn?$AAo@ 10030ba8     Stdafx.obj
 0002:00004bb8       ??_C@_1M@BDGHHBFL@?$AAn?$AAs?$AA?9?$AAz?$AAa@ 10030bb8     Stdafx.obj
 0002:00004bc8       ??_C@_1M@IDEHOAP@?$AAp?$AAa?$AA?9?$AAi?$AAn@ 10030bc8     Stdafx.obj
 0002:00004bd8       ??_C@_1M@HDBKGOGH@?$AAp?$AAl?$AA?9?$AAp?$AAl@ 10030bd8     Stdafx.obj
 0002:00004be8       ??_C@_1M@LJLLCMEH@?$AAp?$AAt?$AA?9?$AAb?$AAr@ 10030be8     Stdafx.obj
 0002:00004bf8       ??_C@_1M@NCMONAAL@?$AAp?$AAt?$AA?9?$AAp?$AAt@ 10030bf8     Stdafx.obj
 0002:00004c08       ??_C@_1O@EAKMAJDN@?$AAq?$AAu?$AAz?$AA?9?$AAb?$AAo@ 10030c08     Stdafx.obj
 0002:00004c18       ??_C@_1O@BHHPIGDN@?$AAq?$AAu?$AAz?$AA?9?$AAe?$AAc@ 10030c18     Stdafx.obj
 0002:00004c28       ??_C@_1O@GBAPEKMJ@?$AAq?$AAu?$AAz?$AA?9?$AAp?$AAe@ 10030c28     Stdafx.obj
 0002:00004c38       ??_C@_1M@CLGLEFBO@?$AAr?$AAo?$AA?9?$AAr?$AAo@ 10030c38     Stdafx.obj
 0002:00004c48       ??_C@_1M@CEEDODME@?$AAr?$AAu?$AA?9?$AAr?$AAu@ 10030c48     Stdafx.obj
 0002:00004c58       ??_C@_1M@HPKKKMPP@?$AAs?$AAa?$AA?9?$AAi?$AAn@ 10030c58     Stdafx.obj
 0002:00004c68       ??_C@_1M@BKMAIGOJ@?$AAs?$AAe?$AA?9?$AAf?$AAi@ 10030c68     Stdafx.obj
 0002:00004c78       ??_C@_1M@NDPIFLFI@?$AAs?$AAe?$AA?9?$AAn?$AAo@ 10030c78     Stdafx.obj
 0002:00004c88       ??_C@_1M@DANKKHJ@?$AAs?$AAe?$AA?9?$AAs?$AAe@ 10030c88     Stdafx.obj
 0002:00004c98       ??_C@_1M@PNBLONPJ@?$AAs?$AAk?$AA?9?$AAs?$AAk@ 10030c98     Stdafx.obj
 0002:00004ca8       ??_C@_1M@LFMODOAL@?$AAs?$AAl?$AA?9?$AAs?$AAi@ 10030ca8     Stdafx.obj
 0002:00004cb8       ??_C@_1O@DFKOMPG@?$AAs?$AAm?$AAa?$AA?9?$AAn?$AAo@ 10030cb8     Stdafx.obj
 0002:00004cc8       ??_C@_1O@NDKPBNNH@?$AAs?$AAm?$AAa?$AA?9?$AAs?$AAe@ 10030cc8     Stdafx.obj
 0002:00004cd8       ??_C@_1O@PLLKBHAB@?$AAs?$AAm?$AAj?$AA?9?$AAn?$AAo@ 10030cd8     Stdafx.obj
 0002:00004ce8       ??_C@_1O@CLEPOGCA@?$AAs?$AAm?$AAj?$AA?9?$AAs?$AAe@ 10030ce8     Stdafx.obj
 0002:00004cf8       ??_C@_1O@DLGJGKMK@?$AAs?$AAm?$AAn?$AA?9?$AAf?$AAi@ 10030cf8     Stdafx.obj
 0002:00004d08       ??_C@_1O@OJDJGAJC@?$AAs?$AAm?$AAs?$AA?9?$AAf?$AAi@ 10030d08     Stdafx.obj
 0002:00004d18       ??_C@_1M@BOFOGHPB@?$AAs?$AAq?$AA?9?$AAa?$AAl@ 10030d18     Stdafx.obj
 0002:00004d28       ??_C@_1BG@LJBBIPGB@?$AAs?$AAr?$AA?9?$AAb?$AAa?$AA?9?$AAc?$AAy?$AAr?$AAl@ 10030d28     Stdafx.obj
 0002:00004d44       ??_C@_1BG@JLBENFOE@?$AAs?$AAr?$AA?9?$AAb?$AAa?$AA?9?$AAl?$AAa?$AAt?$AAn@ 10030d44     Stdafx.obj
 0002:00004d60       ??_C@_1BG@KODPNHE@?$AAs?$AAr?$AA?9?$AAs?$AAp?$AA?9?$AAc?$AAy?$AAr?$AAl@ 10030d60     Stdafx.obj
 0002:00004d7c       ??_C@_1BG@CIOGKHPB@?$AAs?$AAr?$AA?9?$AAs?$AAp?$AA?9?$AAl?$AAa?$AAt?$AAn@ 10030d7c     Stdafx.obj
 0002:00004d98       ??_C@_1M@NGFJLMAC@?$AAs?$AAv?$AA?9?$AAf?$AAi@ 10030d98     Stdafx.obj
 0002:00004da8       ??_C@_1M@MPJEJAJC@?$AAs?$AAv?$AA?9?$AAs?$AAe@ 10030da8     Stdafx.obj
 0002:00004db8       ??_C@_1M@MPNDHLFK@?$AAs?$AAw?$AA?9?$AAk?$AAe@ 10030db8     Stdafx.obj
 0002:00004dc8       ??_C@_1O@KOHBJJI@?$AAs?$AAy?$AAr?$AA?9?$AAs?$AAy@ 10030dc8     Stdafx.obj
 0002:00004dd8       ??_C@_1M@LDCEFHA@?$AAt?$AAa?$AA?9?$AAi?$AAn@ 10030dd8     Stdafx.obj
 0002:00004de8       ??_C@_1M@CNJOFAK@?$AAt?$AAe?$AA?9?$AAi?$AAn@ 10030de8     Stdafx.obj
 0002:00004df8       ??_C@_1M@GNAECACD@?$AAt?$AAh?$AA?9?$AAt?$AAh@ 10030df8     Stdafx.obj
 0002:00004e08       ??_C@_1M@CHBIHOJO@?$AAt?$AAn?$AA?9?$AAz?$AAa@ 10030e08     Stdafx.obj
 0002:00004e18       ??_C@_1M@GCCMIGPJ@?$AAt?$AAr?$AA?9?$AAt?$AAr@ 10030e18     Stdafx.obj
 0002:00004e28       ??_C@_1M@CELMCNBK@?$AAt?$AAt?$AA?9?$AAr?$AAu@ 10030e28     Stdafx.obj
 0002:00004e38       ??_C@_1M@KLMCELGA@?$AAu?$AAk?$AA?9?$AAu?$AAa@ 10030e38     Stdafx.obj
 0002:00004e48       ??_C@_1M@EPAJJAJF@?$AAu?$AAr?$AA?9?$AAp?$AAk@ 10030e48     Stdafx.obj
 0002:00004e58       ??_C@_1BG@GEGPMCDJ@?$AAu?$AAz?$AA?9?$AAu?$AAz?$AA?9?$AAc?$AAy?$AAr?$AAl@ 10030e58     Stdafx.obj
 0002:00004e74       ??_C@_1BG@EGGKJILM@?$AAu?$AAz?$AA?9?$AAu?$AAz?$AA?9?$AAl?$AAa?$AAt?$AAn@ 10030e74     Stdafx.obj
 0002:00004e90       ??_C@_1M@GFOCLFF@?$AAv?$AAi?$AA?9?$AAv?$AAn@ 10030e90     Stdafx.obj
 0002:00004ea0       ??_C@_1M@CPAMEDFI@?$AAx?$AAh?$AA?9?$AAz?$AAa@ 10030ea0     Stdafx.obj
 0002:00004eb0       ??_C@_1O@EBKIFIGN@?$AAz?$AAh?$AA?9?$AAc?$AAh?$AAs@ 10030eb0     Stdafx.obj
 0002:00004ec0       ??_C@_1O@NMHPGANE@?$AAz?$AAh?$AA?9?$AAc?$AAh?$AAt@ 10030ec0     Stdafx.obj
 0002:00004ed0       ??_C@_1M@LPINJOMC@?$AAz?$AAh?$AA?9?$AAc?$AAn@ 10030ed0     Stdafx.obj
 0002:00004ee0       ??_C@_1M@OCJEJODD@?$AAz?$AAh?$AA?9?$AAh?$AAk@ 10030ee0     Stdafx.obj
 0002:00004ef0       ??_C@_1M@DNDLJINH@?$AAz?$AAh?$AA?9?$AAm?$AAo@ 10030ef0     Stdafx.obj
 0002:00004f00       ??_C@_1M@MBFDNDND@?$AAz?$AAh?$AA?9?$AAs?$AAg@ 10030f00     Stdafx.obj
 0002:00004f10       ??_C@_1M@IMEPLEPE@?$AAz?$AAh?$AA?9?$AAt?$AAw@ 10030f10     Stdafx.obj
 0002:00004f20       ??_C@_1M@BBGHNHJP@?$AAz?$AAu?$AA?9?$AAz?$AAa@ 10030f20     Stdafx.obj
 0002:00004f30       ?szInvalidDateTime@ATL@@3QBDB 10030f30     Stdafx.obj
 0002:00004f34       ??_C@_0BB@KEKMKJPM@Invalid?5DateTime@ 10030f34     Stdafx.obj
 0002:00004f48       ?szInvalidDateTimeSpan@ATL@@3QBDB 10030f48     Stdafx.obj
 0002:00004f4c       ??_C@_0BF@GPPHKJFN@Invalid?5DateTimeSpan@ 10030f4c     Stdafx.obj
 0002:00004f68       _CLSID_Registrar           10030f68     Stdafx.obj
 0002:00004f7c       _IID_IRegistrar            10030f7c     Stdafx.obj
 0002:00004f90       _IID_IDocHostUIHandlerDispatch 10030f90     Stdafx.obj
 0002:00004fa4       _IID_IAxWinHostWindow      10030fa4     Stdafx.obj
 0002:00004fb8       _IID_IAxWinHostWindowLic   10030fb8     Stdafx.obj
 0002:00004fcc       _IID_IAxWinAmbientDispatch 10030fcc     Stdafx.obj
 0002:00004fe0       _IID_IAxWinAmbientDispatchEx 10030fe0     Stdafx.obj
 0002:00004ff4       _IID_IInternalConnection   10030ff4     Stdafx.obj
 0002:00005008       _LIBID_ATLLib              10031008     Stdafx.obj
 0002:0000501b       ?chDirSep@ATL@@3DB         1003101b     Stdafx.obj
 0002:0000501c       ?chRightBracket@ATL@@3DB   1003101c     Stdafx.obj
 0002:0000501d       ?chLeftBracket@ATL@@3DB    1003101d     Stdafx.obj
 0002:0000501e       ?chQuote@ATL@@3DB          1003101e     Stdafx.obj
 0002:0000501f       ?chEquals@ATL@@3DB         1003101f     Stdafx.obj
 0002:00005020       ?szStringVal@ATL@@3QBDB    10031020     Stdafx.obj
 0002:00005024       ??_C@_01CPLAODJH@S@        10031024     Stdafx.obj
 0002:00005028       ?multiszStringVal@ATL@@3QBDB 10031028     Stdafx.obj
 0002:0000502c       ??_C@_01PLPBNMEI@M@        1003102c     Stdafx.obj
 0002:00005030       ?szDwordVal@ATL@@3QBDB     10031030     Stdafx.obj
 0002:00005034       ??_C@_01CKDDGHAB@D@        10031034     Stdafx.obj
 0002:00005038       ?szBinaryVal@ATL@@3QBDB    10031038     Stdafx.obj
 0002:0000503c       ??_C@_01HMGJMAIH@B@        1003103c     Stdafx.obj
 0002:00005040       ?szValToken@ATL@@3QBDB     10031040     Stdafx.obj
 0002:00005044       ??_C@_03LAIAPFCB@Val@      10031044     Stdafx.obj
 0002:00005048       ?szForceRemove@ATL@@3QBDB  10031048     Stdafx.obj
 0002:0000504c       ??_C@_0M@DBGDLGLL@ForceRemove@ 1003104c     Stdafx.obj
 0002:0000505c       ?szNoRemove@ATL@@3QBDB     1003105c     Stdafx.obj
 0002:00005060       ??_C@_08KAAPDIAN@NoRemove@ 10031060     Stdafx.obj
 0002:0000506c       ?szDelete@ATL@@3QBDB       1003106c     Stdafx.obj
 0002:00005070       ??_C@_06JBKGCNBB@Delete@   10031070     Stdafx.obj
 0002:00005078       _c_DwmMaxQueuedBuffers     10031078     Stdafx.obj
 0002:0000507c       _c_DwmMaxMonitors          1003107c     Stdafx.obj
 0002:00005080       _c_DwmMaxAdapters          10031080     Stdafx.obj
 0002:00005084       ?CLSID_WinFormsControl@@3U_GUID@@B 10031084     Stdafx.obj
 0002:00005180       ??_C@_13COJANIEC@?$AA0@    10031180     Stdafx.obj
 0002:00005184       ??_C@_0BA@MKMIKKJB@atlTraceGeneral@ 10031184     Stdafx.obj
 0002:00005198       ??_C@_0M@DGPFJEBB@atlTraceCOM@ 10031198     Stdafx.obj
 0002:000051a8       ??_C@_0L@LHELAKBP@atlTraceQI@ 100311a8     Stdafx.obj
 0002:000051b8       ??_C@_0BC@MALHFBAO@atlTraceRegistrar@ 100311b8     Stdafx.obj
 0002:000051d0       ??_C@_0BB@ILPPDKFL@atlTraceRefcount@ 100311d0     Stdafx.obj
 0002:000051e4       ??_C@_0BC@DGHHNKDC@atlTraceWindowing@ 100311e4     Stdafx.obj
 0002:000051fc       ??_C@_0BB@GHKJKKIE@atlTraceControls@ 100311fc     Stdafx.obj
 0002:00005210       ??_C@_0BA@DKOAAGGM@atlTraceHosting@ 10031210     Stdafx.obj
 0002:00005224       ??_C@_0BB@BEBMGMDO@atlTraceDBClient@ 10031224     Stdafx.obj
 0002:00005238       ??_C@_0BD@KOADKDIA@atlTraceDBProvider@ 10031238     Stdafx.obj
 0002:00005250       ??_C@_0P@LNEGBOLO@atlTraceSnapin@ 10031250     Stdafx.obj
 0002:00005264       ??_C@_0BA@MCBFIDIC@atlTraceNotImpl@ 10031264     Stdafx.obj
 0002:00005278       ??_C@_0BD@PJPCCAKP@atlTraceAllocation@ 10031278     Stdafx.obj
 0002:00005290       ??_C@_0N@BNNILHBE@atlTraceTime@ 10031290     Stdafx.obj
 0002:000052a0       ??_C@_0O@MEOJAOKK@atlTraceCache@ 100312a0     Stdafx.obj
 0002:000052b0       ??_C@_0BA@IDBKCKK@atlTraceStencil@ 100312b0     Stdafx.obj
 0002:000052c4       ??_C@_0P@MBNHGHMI@atlTraceString@ 100312c4     Stdafx.obj
 0002:000052d8       ??_C@_0M@IOBBMAHG@atlTraceMap@ 100312d8     Stdafx.obj
 0002:000052e8       ??_C@_0N@FEAAACHD@atlTraceUtil@ 100312e8     Stdafx.obj
 0002:000052f8       ??_C@_0BB@DNJDADMG@atlTraceSecurity@ 100312f8     Stdafx.obj
 0002:0000530c       ??_C@_0N@KLPNCFEE@atlTraceSync@ 1003130c     Stdafx.obj
 0002:0000531c       ??_C@_0O@KHOBHOBJ@atlTraceISAPI@ 1003131c     Stdafx.obj
 0002:00005330       ??_7CWin32Heap@ATL@@6B@    10031330     Stdafx.obj
 0002:00005348       ??_C@_1BG@CLPBKBHG@?$AAh?$AAH?$AAe?$AAa?$AAp?$AA?5?$AA?$CB?$AA?$DN?$AA?5?$AA0@ 10031348     Stdafx.obj
 0002:00005368       ??_C@_1OA@FNEDKMNI@?$AAc?$AA?3?$AA?2?$AAp?$AAr?$AAo?$AAg?$AAr?$AAa?$AAm?$AA?5?$AAf?$AAi?$AAl?$AAe@ 10031368     Stdafx.obj
 0002:00005474       ??_C@_1BC@PMINONJG@?$AAb?$AAS?$AAu?$AAc?$AAc?$AAe?$AAs?$AAs@ 10031474     Stdafx.obj
 0002:0000548c       ??_C@_1BE@BLGCOAPB@?$AAn?$AAR?$AAe?$AAf?$AAs?$AA?5?$AA?$DO?$AA?5?$AA0@ 1003148c     Stdafx.obj
 0002:000054a8       ??_C@_1OI@LKICOBAJ@?$AAc?$AA?3?$AA?2?$AAp?$AAr?$AAo?$AAg?$AAr?$AAa?$AAm?$AA?5?$AAf?$AAi?$AAl?$AAe@ 100314a8     Stdafx.obj
 0002:000055c0       ??_C@_1CA@MEFFJNJ@?$AAp?$AAS?$AAt?$AAr?$AAi?$AAn?$AAg?$AAM?$AAg?$AAr?$AA?5?$AA?$DN?$AA?$DN?$AA?5?$AA0@ 100315c0     Stdafx.obj
 0002:000055e8       ??_C@_1OC@KJBACLGD@?$AAc?$AA?3?$AA?2?$AAp?$AAr?$AAo?$AAg?$AAr?$AAa?$AAm?$AA?5?$AAf?$AAi?$AAl?$AAe@ 100315e8     Stdafx.obj
 0002:000056f8       ??_C@_0HB@FHIMFEIJ@c?3?2program?5files?5?$CIx86?$CJ?2microsof@ 100316f8     Stdafx.obj
 0002:00005780       ??_C@_0EA@EJEMLPD@ERROR?5?3?5Unable?5to?5initialize?5cr@ 10031780     Stdafx.obj
 0002:000057d0       ??_C@_0ED@GFNHMOFC@ERROR?5?3?5Unable?5to?5initialize?5cr@ 100317d0     Stdafx.obj
 0002:00005824       ??_7CAtlStringMgr@ATL@@6B@ 10031824     Stdafx.obj
 0002:00005848       ??_C@_1OA@NFJNFLGL@?$AAc?$AA?3?$AA?2?$AAp?$AAr?$AAo?$AAg?$AAr?$AAa?$AAm?$AA?5?$AAf?$AAi?$AAl?$AAe@ 10031848     Stdafx.obj
 0002:00005954       ??_C@_1BG@IEBIBJEI@?$AAp?$AAD?$AAa?$AAt?$AAa?$AA?5?$AA?$CB?$AA?$DN?$AA?5?$AA0@ 10031954     Stdafx.obj
 0002:00005970       ??_C@_1DE@KEEBDKDC@?$AAp?$AAD?$AAa?$AAt?$AAa?$AA?9?$AA?$DO?$AAp?$AAS?$AAt?$AAr?$AAi?$AAn?$AAg?$AAM@ 10031970     Stdafx.obj
 0002:000059b0       ??_C@_0GI@LKBGDILM@c?3?2program?5files?5?$CIx86?$CJ?2microsof@ 100319b0     Stdafx.obj
 0002:00005a30       ??_C@_0GI@DJFLDKBN@c?3?2program?5files?5?$CIx86?$CJ?2microsof@ 10031a30     Stdafx.obj
 0002:00005aac       ??_C@_0N@LPFKKEBD@?3AM?3am?3PM?3pm@ 10031aac     Stdafx.obj
 0002:00005ac0       ??_C@_1EA@JHMKKLFC@?$AAn?$AAI?$AAn?$AAd?$AAe?$AAx?$AA?5?$AA?$DO?$AA?$DN?$AA?5?$AA0?$AA?5?$AA?$CG?$AA?$CG?$AA?5@ 10031ac0     Stdafx.obj
 0002:00005b10       ??_C@_1OK@GILLOEON@?$AAc?$AA?3?$AA?2?$AAp?$AAr?$AAo?$AAg?$AAr?$AAa?$AAm?$AA?5?$AAf?$AAi?$AAl?$AAe@ 10031b10     Stdafx.obj
 0002:00005c28       ??_C@_1BK@MHIKGOKE@?$AA?3?$AAA?$AAM?$AA?3?$AAa?$AAm?$AA?3?$AAP?$AAM?$AA?3?$AAp?$AAm@ 10031c28     Stdafx.obj
 0002:00005ca8       ?m_wPlayerCount@CTableFrameHook@@1GB 10031ca8     TableFrameHook.obj
 0002:00005cc4       ??_7ITableUserAction@@6B@  10031cc4     TableFrameHook.obj
 0002:00005cec       ??_7ITableFrameHook@@6B@   10031cec     TableFrameHook.obj
 0002:00005d14       ??_7CTableFrameHook@@6BITableFrameHook@@@ 10031d14     TableFrameHook.obj
 0002:00005d40       ??_7CTableFrameHook@@6BITableUserAction@@@ 10031d40     TableFrameHook.obj
 0002:00005d68       ??_C@_0EL@JBNLEOME@g?3?2?M?x?$LK?$PM?2happygamewh?2?$LH?$PO?N?q?$LG?K?2?O?$LF?M?$LD@ 10031d68     TableFrameHook.obj
 0002:00005dc4       ??_C@_0O@JKAFBCMB@CreateActCtxW@ 10031dc4     mfcs140d:nolib.obj
 0002:00005dd4       ??_C@_0P@CECBPMJL@ActivateActCtx@ 10031dd4     mfcs140d:nolib.obj
 0002:00005de8       ??_C@_0BB@NPIOCCPF@DeactivateActCtx@ 10031de8     mfcs140d:nolib.obj
 0002:00005dfc       ??_C@_0BJ@MGNMALIC@FindActCtxSectionStringW@ 10031dfc     mfcs140d:nolib.obj
 0002:00005e1c       ??_C@_0N@IMINIHMJ@QueryActCtxW@ 10031e1c     mfcs140d:nolib.obj
 0002:00005e2c       ??_C@_0BD@GIGEJCNH@GetModuleHandleExW@ 10031e2c     mfcs140d:nolib.obj
 0002:00005e44       ??_C@_1BK@BFMCNHEO@?$AAC?$AAo?$AAm?$AAc?$AAt?$AAl?$AA3?$AA2?$AA?4?$AAd?$AAl?$AAl@ 10031e44     mfcs140d:nolib.obj
 0002:00005e64       ?debugString@?4??IsolationAwarePrivatenPgViNgRzlnPgpgk@@9@4@4QBDB 10031e64     mfcs140d:nolib.obj
 0002:00005eac       ?c@?1??WinbaseIsolationAwarePrivatetRgCebPnQQeRff_xReaRYQP_QYY@@9@4@4UIsolationAwarePrivate_pBAFGnAG_zBqHyr_vAsB@@B 10031eac     mfcs140d:nolib.obj
 0002:00005ec0       ??_C@_1BK@EJBALEBG@?$AAK?$AAe?$AAr?$AAn?$AAe?$AAl?$AA3?$AA2?$AA?4?$AAd?$AAl?$AAl@ 10031ec0     mfcs140d:nolib.obj
 0002:00005ee0       ??_C@_0N@HAOHNMDE@Kernel32?4dll@ 10031ee0     mfcs140d:nolib.obj
 0002:00005ef0       ??_C@_1IM@JDALAIMN@?$AAd?$AA?3?$AA?2?$AAa?$AAg?$AAe?$AAn?$AAt?$AA?2?$AA_?$AAw?$AAo?$AAr?$AAk?$AA?2@ 10031ef0     mfcs140d:nolib.obj
 0002:00005f98       ??_C@_1IM@OAKAGKEO@?$AAd?$AA?3?$AA?2?$AAa?$AAg?$AAe?$AAn?$AAt?$AA?2?$AA_?$AAw?$AAo?$AAr?$AAk?$AA?2@ 10031f98     mfcs140d:nolib.obj
 0002:00006040       ??_C@_1II@MFCNAHJH@?$AAd?$AA?3?$AA?2?$AAa?$AAg?$AAe?$AAn?$AAt?$AA?2?$AA_?$AAw?$AAo?$AAr?$AAk?$AA?2@ 10032040     mfcs140d:nolib.obj
 0002:000060e8       ??_C@_1JA@NMBLLECH@?$AAd?$AA?3?$AA?2?$AAa?$AAg?$AAe?$AAn?$AAt?$AA?2?$AA_?$AAw?$AAo?$AAr?$AAk?$AA?2@ 100320e8     mfcs140d:nolib.obj
 0002:00006198       ??_C@_1IK@JPPFJKKH@?$AAd?$AA?3?$AA?2?$AAa?$AAg?$AAe?$AAn?$AAt?$AA?2?$AA_?$AAw?$AAo?$AAr?$AAk?$AA?2@ 10032198     mfcs140d:nolib.obj
 0002:00006240       ??_C@_0EF@IPDELHHG@d?3?2agent?2_work?23?2s?2src?2vctools?2@ 10032240     mfcs140d:nolib.obj
 0002:00006298       ??_C@_1II@ENPDPACE@?$AAd?$AA?3?$AA?2?$AAa?$AAg?$AAe?$AAn?$AAt?$AA?2?$AA_?$AAw?$AAo?$AAr?$AAk?$AA?2@ 10032298     mfcs140d:nolib.obj
 0002:00006340       ??_C@_1JC@HILNCOCD@?$AAd?$AA?3?$AA?2?$AAa?$AAg?$AAe?$AAn?$AAt?$AA?2?$AA_?$AAw?$AAo?$AAr?$AAk?$AA?2@ 10032340     mfcs140d:nolib.obj
 0002:000063f4       ??_7type_info@@6B@         100323f4     msvcrtd:std_type_info_static.obj
 0002:00006400       ??_C@_1EC@JIJBPKFM@?$AAa?$AAp?$AAi?$AA?9?$AAm?$AAs?$AA?9?$AAw?$AAi?$AAn?$AA?9?$AAc?$AAo?$AAr?$AAe@ 10032400     msvcrtd:thread_safe_statics.obj
 0002:00006450       ??_C@_1BK@MGMFAEKH@?$AAk?$AAe?$AAr?$AAn?$AAe?$AAl?$AA3?$AA2?$AA?4?$AAd?$AAl?$AAl@ 10032450     msvcrtd:thread_safe_statics.obj
 0002:00006470       ??_C@_0BM@HLJJNPAH@InitializeConditionVariable@ 10032470     msvcrtd:thread_safe_statics.obj
 0002:00006494       ??_C@_0BJ@JEBJOJFJ@SleepConditionVariableCS@ 10032494     msvcrtd:thread_safe_statics.obj
 0002:000064b4       ??_C@_0BJ@PGPPEPCC@WakeAllConditionVariable@ 100324b4     msvcrtd:thread_safe_statics.obj
 0002:000064d8       ??_C@_1JM@MEGLFHBK@?$AAd?$AA?3?$AA?2?$AAa?$AAg?$AAe?$AAn?$AAt?$AA?2?$AA_?$AAw?$AAo?$AAr?$AAk?$AA?2@ 100324d8     msvcrtd:thread_safe_statics.obj
 0002:00006594       __pDefaultRawDllMain       10032594     msvcrtd:dll_dllmain.obj
 0002:00006660       ??_C@_0NN@NGPKDKPD@The?5value?5of?5ESP?5was?5not?5proper@ 10032660     msvcrtd:error.obj
 0002:00006770       ??_C@_0BBN@GPMLNJCF@A?5cast?5to?5a?5smaller?5data?5type?5h@ 10032770     msvcrtd:error.obj
 0002:000068c8       ??_C@_0BN@FFOINMNJ@Stack?5memory?5was?5corrupted?6?$AN@ 100328c8     msvcrtd:error.obj
 0002:000068ec       ??_C@_0DG@HKJMLLLP@A?5local?5variable?5was?5used?5befor@ 100328ec     msvcrtd:error.obj
 0002:0000692c       ??_C@_0CM@NGINOKPC@Stack?5memory?5around?5_alloca?5was@ 1003292c     msvcrtd:error.obj
 0002:00006960       ??_C@_0BO@GNIAFIKK@Unknown?5Runtime?5Check?5Error?6?$AN@ 10032960     msvcrtd:error.obj
 0002:00006988       ??_C@_1GM@OLMCBDMB@?$AAR?$AAu?$AAn?$AAt?$AAi?$AAm?$AAe?$AA?5?$AAC?$AAh?$AAe?$AAc?$AAk?$AA?5?$AAE@ 10032988     msvcrtd:error.obj
 0002:00006a10       ??_C@_1EA@NFKNIFJP@?$AAR?$AAu?$AAn?$AA?9?$AAT?$AAi?$AAm?$AAe?$AA?5?$AAC?$AAh?$AAe?$AAc?$AAk?$AA?5@ 10032a10     msvcrtd:error.obj
 0002:00006a5c       ??_C@_0BB@PFFGGCJP@Unknown?5Filename@ 10032a5c     msvcrtd:error.obj
 0002:00006a70       ??_C@_0BE@GNBOBNCK@Unknown?5Module?5Name@ 10032a70     msvcrtd:error.obj
 0002:00006a88       ??_C@_0CA@IODNCDPG@Run?9Time?5Check?5Failure?5?$CD?$CFd?5?9?5?$CFs@ 10032a88     msvcrtd:error.obj
 0002:00006ab0       ??_C@_0CG@IAFNJNEE@Stack?5corrupted?5near?5unknown?5va@ 10032ab0     msvcrtd:error.obj
 0002:00006ae0       ??_C@_05MKKEDADM@?$CF?42X?5@ 10032ae0     msvcrtd:error.obj
 0002:00006ae8       ??_C@_0EJ@LJKNEOLN@Stack?5area?5around?5_alloca?5memor@ 10032ae8     msvcrtd:error.obj
 0002:00006b40       ??_C@_02LLMPMKNF@?$DO?5@   10032b40     msvcrtd:error.obj
 0002:00006b44       ??_C@_08OMAHNMHJ@?6Data?3?5?$DM@ 10032b44     msvcrtd:error.obj
 0002:00006b50       ??_C@_0CK@DKGBICFE@?6Allocation?5number?5within?5this?5@ 10032b50     msvcrtd:error.obj
 0002:00006b84       ??_C@_07DFDJCKFN@?6Size?3?5@ 10032b84     msvcrtd:error.obj
 0002:00006b90       ??_C@_0N@MHFFIMFG@?6Address?3?50x@ 10032b90     msvcrtd:error.obj
 0002:00006ba0       ??_C@_0EI@CLEPFNGI@Stack?5area?5around?5_alloca?5memor@ 10032ba0     msvcrtd:error.obj
 0002:00006bf8       ??_C@_0BK@ODNDAGKB@?$CFs?$CFs?$CFp?$CFs?$CFzd?$CFs?$CFd?$CFs?$CFs?$CFs?$CFs?$CFs@ 10032bf8     msvcrtd:error.obj
 0002:00006c18       ??_C@_0DE@OHJBPMBP@A?5variable?5is?5being?5used?5withou@ 10032c18     msvcrtd:error.obj
 0002:00006c70       ??_C@_0BJ@HEGAHDFO@Stack?5pointer?5corruption@ 10032c70     msvcrtd:userapi.obj
 0002:00006c90       ??_C@_0CK@FEGOIOPB@Cast?5to?5smaller?5type?5causing?5lo@ 10032c90     msvcrtd:userapi.obj
 0002:00006cc4       ??_C@_0BI@CIGMDCBH@Stack?5memory?5corruption@ 10032cc4     msvcrtd:userapi.obj
 0002:00006ce0       ??_C@_0CK@CNLNOEPB@Local?5variable?5used?5before?5init@ 10032ce0     msvcrtd:userapi.obj
 0002:00006d14       ??_C@_0BP@OGBCLIBO@Stack?5around?5_alloca?5corrupted@ 10032d14     msvcrtd:userapi.obj
 0002:00006d98       ??_C@_1EI@MLPKHBGE@?$AAa?$AAp?$AAi?$AA?9?$AAm?$AAs?$AA?9?$AAw?$AAi?$AAn?$AA?9?$AAc?$AAo?$AAr?$AAe@ 10032d98     msvcrtd:pdblkup.obj
 0002:00006df0       ??_C@_1BK@JHLNAEJL@?$AAa?$AAd?$AAv?$AAa?$AAp?$AAi?$AA3?$AA2?$AA?4?$AAd?$AAl?$AAl@ 10032df0     msvcrtd:pdblkup.obj
 0002:00006e10       ??_C@_0O@COHOBMLB@RegOpenKeyExW@ 10032e10     msvcrtd:pdblkup.obj
 0002:00006e20       ??_C@_0BB@GLNAEDBD@RegQueryValueExW@ 10032e20     msvcrtd:pdblkup.obj
 0002:00006e34       ??_C@_0M@HLOHPNFA@RegCloseKey@ 10032e34     msvcrtd:pdblkup.obj
 0002:00006e48       ??_C@_1HE@EBEAGLFB@?$AAS?$AAO?$AAF?$AAT?$AAW?$AAA?$AAR?$AAE?$AA?2?$AAW?$AAo?$AAw?$AA6?$AA4?$AA3@ 10032e48     msvcrtd:pdblkup.obj
 0002:00006ed4       ??_C@_1BG@EABPBLLF@?$AAP?$AAr?$AAo?$AAd?$AAu?$AAc?$AAt?$AAD?$AAi?$AAr@ 10032ed4     msvcrtd:pdblkup.obj
 0002:00006f14       ??_C@_1BC@JINFINNJ@?$AAM?$AAS?$AAP?$AAD?$AAB?$AA1?$AA4?$AA0@ 10032f14     msvcrtd:pdblkup.obj
 0002:00006f2c       ??_C@_0BB@KCIACLNC@PDBOpenValidate5@ 10032f2c     msvcrtd:pdblkup.obj
 0002:00006f40       ??_C@_01KDCPPGHE@r@        10032f40     msvcrtd:pdblkup.obj
 0002:00006f44       _GUID_ATLVer30             10032f44     atls:atlbase.obj
 0002:00006f58       _GUID_ATLVer70             10032f58     atls:atlbase.obj
 0002:00006f6c       _GUID_ATLVer100            10032f6c     atls:atlbase.obj
 0002:00006f80       _GUID_ATLVer110            10032f80     atls:atlbase.obj
 0002:00006f98       ??_C@_1IC@ONKHOIDK@?$AAE?$AAR?$AAR?$AAO?$AAR?$AA?5?$AA?3?$AA?5?$AAU?$AAn?$AAa?$AAb?$AAl?$AAe?$AA?5@ 10032f98     atls:atlbase.obj
 0002:00007034       ?chDirSep@ATL@@3_WB        10033034     atls:stdafx.obj
 0002:00007038       ?chRightBracket@ATL@@3_WB  10033038     atls:stdafx.obj
 0002:0000703c       ?chLeftBracket@ATL@@3_WB   1003303c     atls:stdafx.obj
 0002:00007040       ?chQuote@ATL@@3_WB         10033040     atls:stdafx.obj
 0002:00007044       ?chEquals@ATL@@3_WB        10033044     atls:stdafx.obj
 0002:00007048       ?szStringVal@ATL@@3QB_WB   10033048     atls:stdafx.obj
 0002:0000704c       ??_C@_13HADIAKP@?$AAS@     1003304c     atls:stdafx.obj
 0002:00007050       ?multiszStringVal@ATL@@3QB_WB 10033050     atls:stdafx.obj
 0002:00007054       ??_C@_13LHMFKAAD@?$AAM@    10033054     atls:stdafx.obj
 0002:00007058       ?szDwordVal@ATL@@3QB_WB    10033058     atls:stdafx.obj
 0002:0000705c       ??_C@_13MKMNOPIJ@?$AAD@    1003305c     atls:stdafx.obj
 0002:00007060       ?szBinaryVal@ATL@@3QB_WB   10033060     atls:stdafx.obj
 0002:00007064       ??_C@_13OPKGLAFF@?$AAB@    10033064     atls:stdafx.obj
 0002:00007068       ?szValToken@ATL@@3QB_WB    10033068     atls:stdafx.obj
 0002:0000706c       ??_C@_17LLMMEOJD@?$AAV?$AAa?$AAl@ 1003306c     atls:stdafx.obj
 0002:00007078       ?szForceRemove@ATL@@3QB_WB 10033078     atls:stdafx.obj
 0002:0000707c       ??_C@_1BI@JFAIJMHL@?$AAF?$AAo?$AAr?$AAc?$AAe?$AAR?$AAe?$AAm?$AAo?$AAv?$AAe@ 1003307c     atls:stdafx.obj
 0002:00007098       ?szNoRemove@ATL@@3QB_WB    10033098     atls:stdafx.obj
 0002:0000709c       ??_C@_1BC@GCKHIPE@?$AAN?$AAo?$AAR?$AAe?$AAm?$AAo?$AAv?$AAe@ 1003309c     atls:stdafx.obj
 0002:000070b4       ?szDelete@ATL@@3QB_WB      100330b4     atls:stdafx.obj
 0002:000070b8       ??_C@_1O@JDLOHAN@?$AAD?$AAe?$AAl?$AAe?$AAt?$AAe@ 100330b8     atls:stdafx.obj
 0002:00007108       __load_config_used         10033108     msvcrtd:loadcfg.obj
 0002:000074ec       __tls_used                 100334ec     msvcrtd:tlssup.obj
 0002:00007608       ??_R1A@?0A@EA@CObject@@8   10033608     DistributeManager.obj
 0002:0000762c       ??_R3CObject@@8            1003362c     DistributeManager.obj
 0002:00007640       ??_R2CObject@@8            10033640     DistributeManager.obj
 0002:00007648       ??_R4?$CWHArray@PAUtagSameTableInfo@@ABQAU1@@@6B@ 10033648     DistributeManager.obj
 0002:00007660       ??_R3?$CWHArray@PAUtagSameTableInfo@@ABQAU1@@@8 10033660     DistributeManager.obj
 0002:00007674       ??_R2?$CWHArray@PAUtagSameTableInfo@@ABQAU1@@@8 10033674     DistributeManager.obj
 0002:0000767c       ??_R1A@?0A@EA@?$CWHArray@PAUtagSameTableInfo@@ABQAU1@@@8 1003367c     DistributeManager.obj
 0002:000076a0       ??_R4?$CMap@KKPAUtagSameTableInfo@@PAU1@@@6B@ 100336a0     DistributeManager.obj
 0002:000076b8       ??_R3?$CMap@KKPAUtagSameTableInfo@@PAU1@@@8 100336b8     DistributeManager.obj
 0002:000076cc       ??_R2?$CMap@KKPAUtagSameTableInfo@@PAU1@@@8 100336cc     DistributeManager.obj
 0002:000076d8       ??_R1A@?0A@EA@?$CMap@KKPAUtagSameTableInfo@@PAU1@@@8 100336d8     DistributeManager.obj
 0002:000076fc       ??_R4CDistributeManager@@6B@ 100336fc     DistributeManager.obj
 0002:00007714       ??_R3CDistributeManager@@8 10033714     DistributeManager.obj
 0002:00007728       ??_R2CDistributeManager@@8 10033728     DistributeManager.obj
 0002:00007730       ??_R1A@?0A@EA@CDistributeManager@@8 10033730     DistributeManager.obj
 0002:00007754       ??_R4IUnknownEx@@6B@       10033754     ImmediateGroup.obj
 0002:0000776c       ??_R3IUnknownEx@@8         1003376c     ImmediateGroup.obj
 0002:00007780       ??_R2IUnknownEx@@8         10033780     ImmediateGroup.obj
 0002:00007788       ??_R1A@?0A@EA@IUnknownEx@@8 10033788     ImmediateGroup.obj
 0002:000077ac       ??_R4IMatchEventSink@@6B@  100337ac     ImmediateGroup.obj
 0002:000077c4       ??_R3IMatchEventSink@@8    100337c4     ImmediateGroup.obj
 0002:000077d8       ??_R2IMatchEventSink@@8    100337d8     ImmediateGroup.obj
 0002:000077e4       ??_R1A@?0A@EA@IMatchEventSink@@8 100337e4     ImmediateGroup.obj
 0002:00007808       ??_R4?$CWHArray@PAUtagMatchTimer@@ABQAU1@@@6B@ 10033808     ImmediateGroup.obj
 0002:00007820       ??_R3?$CWHArray@PAUtagMatchTimer@@ABQAU1@@@8 10033820     ImmediateGroup.obj
 0002:00007834       ??_R2?$CWHArray@PAUtagMatchTimer@@ABQAU1@@@8 10033834     ImmediateGroup.obj
 0002:0000783c       ??_R1A@?0A@EA@?$CWHArray@PAUtagMatchTimer@@ABQAU1@@@8 1003383c     ImmediateGroup.obj
 0002:00007860       ??_R4?$CWHArray@PAUIServerUserItem@@ABQAU1@@@6B@ 10033860     ImmediateGroup.obj
 0002:00007878       ??_R3?$CWHArray@PAUIServerUserItem@@ABQAU1@@@8 10033878     ImmediateGroup.obj
 0002:0000788c       ??_R2?$CWHArray@PAUIServerUserItem@@ABQAU1@@@8 1003388c     ImmediateGroup.obj
 0002:00007894       ??_R1A@?0A@EA@?$CWHArray@PAUIServerUserItem@@ABQAU1@@@8 10033894     ImmediateGroup.obj
 0002:000078b8       ??_R4?$CWHArray@PAUtagTableFrameInfo@@ABQAU1@@@6B@ 100338b8     ImmediateGroup.obj
 0002:000078d0       ??_R3?$CWHArray@PAUtagTableFrameInfo@@ABQAU1@@@8 100338d0     ImmediateGroup.obj
 0002:000078e4       ??_R2?$CWHArray@PAUtagTableFrameInfo@@ABQAU1@@@8 100338e4     ImmediateGroup.obj
 0002:000078ec       ??_R1A@?0A@EA@?$CWHArray@PAUtagTableFrameInfo@@ABQAU1@@@8 100338ec     ImmediateGroup.obj
 0002:00007910       ??_R4?$CMap@KKPAUIServerUserItem@@PAU1@@@6B@ 10033910     ImmediateGroup.obj
 0002:00007928       ??_R3?$CMap@KKPAUIServerUserItem@@PAU1@@@8 10033928     ImmediateGroup.obj
 0002:0000793c       ??_R2?$CMap@KKPAUIServerUserItem@@PAU1@@@8 1003393c     ImmediateGroup.obj
 0002:00007948       ??_R1A@?0A@EA@?$CMap@KKPAUIServerUserItem@@PAU1@@@8 10033948     ImmediateGroup.obj
 0002:0000796c       ??_R4CImmediateGroup@@6B@  1003396c     ImmediateGroup.obj
 0002:00007984       ??_R3CImmediateGroup@@8    10033984     ImmediateGroup.obj
 0002:00007998       ??_R2CImmediateGroup@@8    10033998     ImmediateGroup.obj
 0002:000079a8       ??_R1A@?0A@EA@CImmediateGroup@@8 100339a8     ImmediateGroup.obj
 0002:000079cc       ??_R4IServerUserItemSink@@6B@ 100339cc     ImmediateMatch.obj
 0002:000079e4       ??_R3IServerUserItemSink@@8 100339e4     ImmediateMatch.obj
 0002:000079f8       ??_R2IServerUserItemSink@@8 100339f8     ImmediateMatch.obj
 0002:00007a04       ??_R1A@?0A@EA@IServerUserItemSink@@8 10033a04     ImmediateMatch.obj
 0002:00007a28       ??_R4IMatchServiceManager@@6B@ 10033a28     ImmediateMatch.obj
 0002:00007a40       ??_R3IMatchServiceManager@@8 10033a40     ImmediateMatch.obj
 0002:00007a54       ??_R2IMatchServiceManager@@8 10033a54     ImmediateMatch.obj
 0002:00007a60       ??_R1A@?0A@EA@IMatchServiceManager@@8 10033a60     ImmediateMatch.obj
 0002:00007a84       ??_R4IGameMatchItem@@6B@   10033a84     ImmediateMatch.obj
 0002:00007a9c       ??_R3IGameMatchItem@@8     10033a9c     ImmediateMatch.obj
 0002:00007ab0       ??_R2IGameMatchItem@@8     10033ab0     ImmediateMatch.obj
 0002:00007abc       ??_R1A@?0A@EA@IGameMatchItem@@8 10033abc     ImmediateMatch.obj
 0002:00007ae0       ??_R4IImmediateGroupSink@@6B@ 10033ae0     ImmediateMatch.obj
 0002:00007af8       ??_R3IImmediateGroupSink@@8 10033af8     ImmediateMatch.obj
 0002:00007b0c       ??_R2IImmediateGroupSink@@8 10033b0c     ImmediateMatch.obj
 0002:00007b14       ??_R1A@?0A@EA@IImmediateGroupSink@@8 10033b14     ImmediateMatch.obj
 0002:00007b38       ??_R4CImmediateMatch@@6BIGameMatchItem@@@ 10033b38     ImmediateMatch.obj
 0002:00007b50       ??_R3CImmediateMatch@@8    10033b50     ImmediateMatch.obj
 0002:00007b64       ??_R2CImmediateMatch@@8    10033b64     ImmediateMatch.obj
 0002:00007b84       ??_R1A@?0A@EA@CImmediateMatch@@8 10033b84     ImmediateMatch.obj
 0002:00007ba8       ??_R1A@?0A@EC@IUnknownEx@@8 10033ba8     ImmediateMatch.obj
 0002:00007bcc       ??_R13?0A@EA@IImmediateGroupSink@@8 10033bcc     ImmediateMatch.obj
 0002:00007bf0       ??_R17?0A@EN@IServerUserItemSink@@8 10033bf0     ImmediateMatch.obj
 0002:00007c14       ??_R17?0A@EL@IUnknownEx@@8 10033c14     ImmediateMatch.obj
 0002:00007c38       ??_R4CImmediateMatch@@6BIImmediateGroupSink@@@ 10033c38     ImmediateMatch.obj
 0002:00007c50       ??_R4CImmediateMatch@@6BIServerUserItemSink@@@ 10033c50     ImmediateMatch.obj
 0002:00007c68       ??_R4CMatchServiceManager@@6B@ 10033c68     ImmediateMatch.obj
 0002:00007c80       ??_R3CMatchServiceManager@@8 10033c80     ImmediateMatch.obj
 0002:00007c94       ??_R2CMatchServiceManager@@8 10033c94     ImmediateMatch.obj
 0002:00007ca4       ??_R1A@?0A@EA@CMatchServiceManager@@8 10033ca4     ImmediateMatch.obj
 0002:00007cc8       ??_R4?$CWHArray@EABE@@6B@  10033cc8     ImmediateMatch.obj
 0002:00007ce0       ??_R3?$CWHArray@EABE@@8    10033ce0     ImmediateMatch.obj
 0002:00007cf4       ??_R2?$CWHArray@EABE@@8    10033cf4     ImmediateMatch.obj
 0002:00007cfc       ??_R1A@?0A@EA@?$CWHArray@EABE@@8 10033cfc     ImmediateMatch.obj
 0002:00007d20       ??_R4?$CWHArray@PAVCImmediateGroup@@ABQAV1@@@6B@ 10033d20     ImmediateMatch.obj
 0002:00007d38       ??_R3?$CWHArray@PAVCImmediateGroup@@ABQAV1@@@8 10033d38     ImmediateMatch.obj
 0002:00007d4c       ??_R2?$CWHArray@PAVCImmediateGroup@@ABQAV1@@@8 10033d4c     ImmediateMatch.obj
 0002:00007d54       ??_R1A@?0A@EA@?$CWHArray@PAVCImmediateGroup@@ABQAV1@@@8 10033d54     ImmediateMatch.obj
 0002:00007d78       ??_R4?$CWHArray@PAVCTableFrameHook@@ABQAV1@@@6B@ 10033d78     ImmediateMatch.obj
 0002:00007d90       ??_R3?$CWHArray@PAVCTableFrameHook@@ABQAV1@@@8 10033d90     ImmediateMatch.obj
 0002:00007da4       ??_R2?$CWHArray@PAVCTableFrameHook@@ABQAV1@@@8 10033da4     ImmediateMatch.obj
 0002:00007dac       ??_R1A@?0A@EA@?$CWHArray@PAVCTableFrameHook@@ABQAV1@@@8 10033dac     ImmediateMatch.obj
 0002:00007dd0       ??_R4CLockTimeMatch@@6BIGameMatchItem@@@ 10033dd0     LockTimeMatch.obj
 0002:00007de8       ??_R3CLockTimeMatch@@8     10033de8     LockTimeMatch.obj
 0002:00007dfc       ??_R2CLockTimeMatch@@8     10033dfc     LockTimeMatch.obj
 0002:00007e20       ??_R1A@?0A@EA@CLockTimeMatch@@8 10033e20     LockTimeMatch.obj
 0002:00007e44       ??_R13?0A@EA@IMatchEventSink@@8 10033e44     LockTimeMatch.obj
 0002:00007e68       ??_R13?0A@EC@IUnknownEx@@8 10033e68     LockTimeMatch.obj
 0002:00007e8c       ??_R17?0A@EA@IServerUserItemSink@@8 10033e8c     LockTimeMatch.obj
 0002:00007eb0       ??_R17?0A@EC@IUnknownEx@@8 10033eb0     LockTimeMatch.obj
 0002:00007ed4       ??_R4CLockTimeMatch@@6BIMatchEventSink@@@ 10033ed4     LockTimeMatch.obj
 0002:00007eec       ??_R4CLockTimeMatch@@6BIServerUserItemSink@@@ 10033eec     LockTimeMatch.obj
 0002:00007f04       ??_R4?$CWHArray@UtagDistributeInfo@@ABU1@@@6B@ 10033f04     LockTimeMatch.obj
 0002:00007f1c       ??_R3?$CWHArray@UtagDistributeInfo@@ABU1@@@8 10033f1c     LockTimeMatch.obj
 0002:00007f30       ??_R2?$CWHArray@UtagDistributeInfo@@ABU1@@@8 10033f30     LockTimeMatch.obj
 0002:00007f38       ??_R1A@?0A@EA@?$CWHArray@UtagDistributeInfo@@ABU1@@@8 10033f38     LockTimeMatch.obj
 0002:00007f5c       ??_R4CWin32Heap@ATL@@6B@   10033f5c     Stdafx.obj
 0002:00007f74       ??_R3CWin32Heap@ATL@@8     10033f74     Stdafx.obj
 0002:00007f88       ??_R2CWin32Heap@ATL@@8     10033f88     Stdafx.obj
 0002:00007f94       ??_R1A@?0A@EA@CWin32Heap@ATL@@8 10033f94     Stdafx.obj
 0002:00007fb8       ??_R1A@?0A@EA@IAtlMemMgr@ATL@@8 10033fb8     Stdafx.obj
 0002:00007fdc       ??_R3IAtlMemMgr@ATL@@8     10033fdc     Stdafx.obj
 0002:00007ff0       ??_R2IAtlMemMgr@ATL@@8     10033ff0     Stdafx.obj
 0002:00007ff8       ??_R1A@?0A@EA@IAtlStringMgr@ATL@@8 10033ff8     Stdafx.obj
 0002:0000801c       ??_R3IAtlStringMgr@ATL@@8  1003401c     Stdafx.obj
 0002:00008030       ??_R2IAtlStringMgr@ATL@@8  10034030     Stdafx.obj
 0002:00008038       ??_R4CAtlStringMgr@ATL@@6B@ 10034038     Stdafx.obj
 0002:00008050       ??_R3CAtlStringMgr@ATL@@8  10034050     Stdafx.obj
 0002:00008064       ??_R2CAtlStringMgr@ATL@@8  10034064     Stdafx.obj
 0002:00008070       ??_R1A@?0A@EA@CAtlStringMgr@ATL@@8 10034070     Stdafx.obj
 0002:00008094       ??_R4ITableUserAction@@6B@ 10034094     TableFrameHook.obj
 0002:000080ac       ??_R3ITableUserAction@@8   100340ac     TableFrameHook.obj
 0002:000080c0       ??_R2ITableUserAction@@8   100340c0     TableFrameHook.obj
 0002:000080cc       ??_R1A@?0A@EA@ITableUserAction@@8 100340cc     TableFrameHook.obj
 0002:000080f0       ??_R4ITableFrameHook@@6B@  100340f0     TableFrameHook.obj
 0002:00008108       ??_R3ITableFrameHook@@8    10034108     TableFrameHook.obj
 0002:0000811c       ??_R2ITableFrameHook@@8    1003411c     TableFrameHook.obj
 0002:00008128       ??_R1A@?0A@EA@ITableFrameHook@@8 10034128     TableFrameHook.obj
 0002:0000814c       ??_R4CTableFrameHook@@6BITableFrameHook@@@ 1003414c     TableFrameHook.obj
 0002:00008164       ??_R3CTableFrameHook@@8    10034164     TableFrameHook.obj
 0002:00008178       ??_R2CTableFrameHook@@8    10034178     TableFrameHook.obj
 0002:00008194       ??_R1A@?0A@EA@CTableFrameHook@@8 10034194     TableFrameHook.obj
 0002:000081b8       ??_R13?0A@EN@ITableUserAction@@8 100341b8     TableFrameHook.obj
 0002:000081dc       ??_R13?0A@EL@IUnknownEx@@8 100341dc     TableFrameHook.obj
 0002:00008200       ??_R4CTableFrameHook@@6BITableUserAction@@@ 10034200     TableFrameHook.obj
 0002:00008218       ??_R4type_info@@6B@        10034218     msvcrtd:std_type_info_static.obj
 0002:00008230       ??_R3type_info@@8          10034230     msvcrtd:std_type_info_static.obj
 0002:00008244       ??_R2type_info@@8          10034244     msvcrtd:std_type_info_static.obj
 0002:0000824c       ??_R1A@?0A@EA@type_info@@8 1003424c     msvcrtd:std_type_info_static.obj
 0002:000083c0       ___safe_se_handler_table   100343c0     <linker-defined>
 0002:00008730       ___rtc_iaa                 10034730     msvcrtd:initsect.obj
 0002:00008940       ___rtc_izz                 10034940     msvcrtd:initsect.obj
 0002:00008a44       ___rtc_taa                 10034a44     msvcrtd:initsect.obj
 0002:00008c54       ___rtc_tzz                 10034c54     msvcrtd:initsect.obj
 0002:00008f70       __TI2PAD                   10034f70     DistributeManager.obj
 0002:00008f84       __CTA2PAD                  10034f84     DistributeManager.obj
 0002:00008f94       __CT??_R0PAD@84            10034f94     DistributeManager.obj
 0002:00008fb4       __CT??_R0PAX@84            10034fb4     DistributeManager.obj
 0002:0000966c       __TI1H                     1003566c     ImmediateMatch.obj
 0002:00009680       __CTA1H                    10035680     ImmediateMatch.obj
 0002:00009688       __CT??_R0H@84              10035688     ImmediateMatch.obj
 0002:00009d9c       ___pobjMapEntryFirst       10035d9c     Stdafx.obj
 0002:00009ea0       ___pobjMapEntryLast        10035ea0     Stdafx.obj
 0003:00000000       ?__LINE__Var@?0???1CDistributeNodePool@@QAE@XZ@4JA 10037000     DistributeManager.obj
 0003:00000004       ?__LINE__Var@?0???1CDistributeManager@@UAE@XZ@4JA 10037004     DistributeManager.obj
 0003:00000008       ?__LINE__Var@?0??ActiveSameTableInfo@CDistributeManager@@IAEPAUtagSameTableInfo@@XZ@4JA 10037008     DistributeManager.obj
 0003:0000000c       ?m_nCategory@CTrace@ATL@@1IA 1003700c     ImmediateGroup.obj
 0003:00000010       ?__LINE__Var@?0??AtlThrowImpl@ATL@@YGXJ@Z@4JA 10037010     ImmediateGroup.obj
 0003:00000014       ?__LINE__Var@?0??GetLocalTm@CTime@ATL@@QBEPAUtm@@PAU4@@Z@4JA 10037014     ImmediateGroup.obj
 0003:00000018       ?__LINE__Var@?0???1CImmediateGroup@@UAE@XZ@4JA 10037018     ImmediateGroup.obj
 0003:0000001c       ?__LINE__Var@?0??OnUserSignUpMatch@CImmediateGroup@@QAE_NPAUIServerUserItem@@@Z@4JA 1003701c     ImmediateGroup.obj
 0003:00000020       ?__LINE__Var@?0??EfficacyStartMatch@CImmediateGroup@@IAEXXZ@4JA 10037020     ImmediateGroup.obj
 0003:00000024       ?__LINE__Var@?0??OnUserQuitMatch@CImmediateGroup@@QAE_NPAUIServerUserItem@@@Z@4JA 10037024     ImmediateGroup.obj
 0003:00000028       ?__LINE__Var@?0??OnEventGameEnd@CImmediateGroup@@UAE_NPAUITableFrame@@GPAUIServerUserItem@@E@Z@4JA 10037028     ImmediateGroup.obj
 0003:0000002c       ?__LINE__Var@?0??GetUserRank@CImmediateGroup@@IAEGPAUIServerUserItem@@PAUITableFrame@@@Z@4JA 1003702c     ImmediateGroup.obj
 0003:00000030       ?__LINE__Var@?0??PerformAllUserStandUp@CImmediateGroup@@IAEXPAUITableFrame@@@Z@4JA 10037030     ImmediateGroup.obj
 0003:00000034       ?__LINE__Var@?0??ContinueGame@CImmediateGroup@@IAEXPAUITableFrame@@@Z@4JA 10037034     ImmediateGroup.obj
 0003:00000038       ?__LINE__Var@?0??CheckMatchUser@CImmediateGroup@@IAE_NXZ@4JA 10037038     ImmediateGroup.obj
 0003:0000003c       ?__LINE__Var@?0??CheckTableStart@CImmediateGroup@@IAEXPAUITableFrame@@@Z@4JA 1003703c     ImmediateGroup.obj
 0003:00000040       ?__LINE__Var@?0??InsertFreeGroup@CImmediateGroup@@IAEXPAUIServerUserItem@@@Z@4JA 10037040     ImmediateGroup.obj
 0003:00000044       ?__LINE__Var@?0??SendTableMatchInfo@CImmediateGroup@@IAEXPAUITableFrame@@G@Z@4JA 10037044     ImmediateGroup.obj
 0003:00000048       ?__LINE__Var@?0??CaptureMatchTimer@CImmediateGroup@@IAEXXZ@4JA 10037048     ImmediateGroup.obj
 0003:0000004c       ?__LINE__Var@?0??KillMatchTimer@CImmediateGroup@@IAE_NKI@Z@4JA 1003704c     ImmediateGroup.obj
 0003:00000050       ?__LINE__Var@?0??KillMatchTimer@CImmediateGroup@@IAE_NH@Z@4JA 10037050     ImmediateGroup.obj
 0003:00000054       ?__LINE__Var@?0??AllKillMatchTimer@CImmediateGroup@@IAEXXZ@4JA 10037054     ImmediateGroup.obj
 0003:000000b4       ?__LINE__Var@?0???1CImmediateMatch@@UAE@XZ@4JA 100370b4     ImmediateMatch.obj
 0003:000000b8       ?__LINE__Var@?0??OnStartService@CImmediateMatch@@UAEXXZ@4JA 100370b8     ImmediateMatch.obj
 0003:000000bc       ?__LINE__Var@?0??BindTableFrame@CImmediateMatch@@UAE_NPAUITableFrame@@G@Z@4JA 100370bc     ImmediateMatch.obj
 0003:000000c0       ?__LINE__Var@?0??InitMatchInterface@CImmediateMatch@@UAE_NAAUtagMatchManagerParameter@@@Z@4JA 100370c0     ImmediateMatch.obj
 0003:000000c4       ?__LINE__Var@?0??OnEventTimer@CImmediateMatch@@UAE_NKI@Z@4JA 100370c4     ImmediateMatch.obj
 0003:000000c8       ?__LINE__Var@?0??OnEventDataBase@CImmediateMatch@@UAE_NGPAUIServerUserItem@@PAXGK@Z@4JA 100370c8     ImmediateMatch.obj
 0003:000000cc       ?__LINE__Var@?0??OnEventSocketMatch@CImmediateMatch@@UAE_NGPAXGPAUIServerUserItem@@K@Z@4JA 100370cc     ImmediateMatch.obj
 0003:000000d0       ?__LINE__Var@?0??OnEventUserJoinMatch@CImmediateMatch@@UAE_NPAUIServerUserItem@@EK@Z@4JA 100370d0     ImmediateMatch.obj
 0003:000000d4       ?__LINE__Var@?0??OnEventUserQuitMatch@CImmediateMatch@@UAE_NPAUIServerUserItem@@EPAGK@Z@4JA 100370d4     ImmediateMatch.obj
 0003:000000d8       ?__LINE__Var@?0??OnEventUserItemScore@CImmediateMatch@@UAE_NPAUIServerUserItem@@E@Z@4JA 100370d8     ImmediateMatch.obj
 0003:000000dc       ?__LINE__Var@?0??OnEventMatchStart@CImmediateMatch@@UAE_NPAVCImmediateGroup@@@Z@4JA 100370dc     ImmediateMatch.obj
 0003:000000e0       ?__LINE__Var@?0??SendGroupUserStatus@CImmediateMatch@@UAE_NPAUIServerUserItem@@PAVCImmediateGroup@@@Z@4JA 100370e0     ImmediateMatch.obj
 0003:000000e4       ?__LINE__Var@?0??SendGameMessage@CImmediateMatch@@UAE_NPAUIServerUserItem@@PBDG@Z@4JA 100370e4     ImmediateMatch.obj
 0003:000000e8       ?__LINE__Var@?0??SendRoomMessage@CImmediateMatch@@UAE_NPAUIServerUserItem@@PBDG@Z@4JA 100370e8     ImmediateMatch.obj
 0003:000000ec       ?__LINE__Var@?0??InsertNullTable@CImmediateMatch@@UAEXXZ@4JA 100370ec     ImmediateMatch.obj
 0003:000000f0       ?__LINE__Var@?0??WriteUserAward@CImmediateMatch@@AAE_NPAUIServerUserItem@@PAUtagMatchRankInfo@@@Z@4JA 100370f0     ImmediateMatch.obj
 0003:000000f4       ?__LINE__Var@?0??DeleteUserItem@CImmediateMatch@@AAE_NK@Z@4JA 100370f4     ImmediateMatch.obj
 0003:000000f8       ?__LINE__Var@?0??RemoveMatchUserItem@CImmediateMatch@@AAE_NPAUIServerUserItem@@@Z@4JA 100370f8     ImmediateMatch.obj
 0003:000000fc       ?__LINE__Var@?0???0CTime@ATL@@QAE@HHHHHHH@Z@4JA 100370fc     LockTimeMatch.obj
 0003:00000100       ?__LINE__Var@?0???1CLockTimeMatch@@UAE@XZ@4JA 10037100     LockTimeMatch.obj
 0003:00000104       ?__LINE__Var@?0??BindTableFrame@CLockTimeMatch@@UAE_NPAUITableFrame@@G@Z@4JA 10037104     LockTimeMatch.obj
 0003:00000108       ?__LINE__Var@?0??OnEventTimer@CLockTimeMatch@@UAE_NKI@Z@4JA 10037108     LockTimeMatch.obj
 0003:0000010c       ?__LINE__Var@?0??OnEventDataBase@CLockTimeMatch@@UAE_NGPAUIServerUserItem@@PAXGK@Z@4JA 1003710c     LockTimeMatch.obj
 0003:00000110       ?__LINE__Var@?0??OnEventSocketMatch@CLockTimeMatch@@UAE_NGPAXGPAUIServerUserItem@@K@Z@4JA 10037110     LockTimeMatch.obj
 0003:00000114       ?__LINE__Var@?0??OnEventUserItemScore@CLockTimeMatch@@UAE_NPAUIServerUserItem@@E@Z@4JA 10037114     LockTimeMatch.obj
 0003:00000118       ?__LINE__Var@?0??OnEventUserJoinMatch@CLockTimeMatch@@UAE_NPAUIServerUserItem@@EK@Z@4JA 10037118     LockTimeMatch.obj
 0003:0000011c       ?__LINE__Var@?0??OnEventUserQuitMatch@CLockTimeMatch@@UAE_NPAUIServerUserItem@@EPAGK@Z@4JA 1003711c     LockTimeMatch.obj
 0003:00000120       ?__LINE__Var@?0??OnEventGameEnd@CLockTimeMatch@@UAE_NPAUITableFrame@@GPAUIServerUserItem@@E@Z@4JA 10037120     LockTimeMatch.obj
 0003:00000124       ?__LINE__Var@?0??VerifyUserEnterMatch@CLockTimeMatch@@AAE_NPAUIServerUserItem@@@Z@4JA 10037124     LockTimeMatch.obj
 0003:00000128       ?__LINE__Var@?0??PerformAllUserStandUp@CLockTimeMatch@@IAEXPAUITableFrame@@@Z@4JA 10037128     LockTimeMatch.obj
 0003:0000012c       ?__LINE__Var@?0??PerformDistribute@CLockTimeMatch@@IAE_NXZ@4JA 1003712c     LockTimeMatch.obj
 0003:00000130       ?__LINE__Var@?0??InsertDistribute@CLockTimeMatch@@IAE_NPAUIServerUserItem@@@Z@4JA 10037130     LockTimeMatch.obj
 0003:00000134       ?__LINE__Var@?0??RemoveDistribute@CLockTimeMatch@@IAE_NPAUIServerUserItem@@@Z@4JA 10037134     LockTimeMatch.obj
 0003:00000138       ?__LINE__Var@?0??SendTableUserMatchInfo@CLockTimeMatch@@IAEXPAUITableFrame@@G@Z@4JA 10037138     LockTimeMatch.obj
 0003:0000013c       ?__LINE__Var@?0??WriteUserAward@CLockTimeMatch@@IAE_NPAUIServerUserItem@@PAUtagMatchRankInfo@@@Z@4JA 1003713c     LockTimeMatch.obj
 0003:00000140       ?__LINE__Var@?0???1CMatchServiceManager@@UAE@XZ@4JA 10037140     MatchServiceManager.obj
 0003:00000144       ?__LINE__Var@?0??StopService@CMatchServiceManager@@UAE_NXZ@4JA 10037144     MatchServiceManager.obj
 0003:00000148       ?__LINE__Var@?0??StartService@CMatchServiceManager@@UAE_NXZ@4JA 10037148     MatchServiceManager.obj
 0003:0000014c       ?__LINE__Var@?0??CreateGameMatch@CMatchServiceManager@@UAE_NE@Z@4JA 1003714c     MatchServiceManager.obj
 0003:00000150       ?__LINE__Var@?0??BindTableFrame@CMatchServiceManager@@UAE_NPAUITableFrame@@G@Z@4JA 10037150     MatchServiceManager.obj
 0003:00000154       ?__LINE__Var@?0??InitMatchInterface@CMatchServiceManager@@UAE_NAAUtagMatchManagerParameter@@@Z@4JA 10037154     MatchServiceManager.obj
 0003:00000158       ?__LINE__Var@?0??OnEventTimer@CMatchServiceManager@@UAE_NKI@Z@4JA 10037158     MatchServiceManager.obj
 0003:0000015c       ?__LINE__Var@?0??OnEventDataBase@CMatchServiceManager@@UAE_NGPAUIServerUserItem@@PAXGK@Z@4JA 1003715c     MatchServiceManager.obj
 0003:00000160       ?__LINE__Var@?0??OnEventSocketMatch@CMatchServiceManager@@UAE_NGPAXGPAUIServerUserItem@@K@Z@4JA 10037160     MatchServiceManager.obj
 0003:00000164       ?__LINE__Var@?0??OnEventUserLogon@CMatchServiceManager@@UAE_NPAUIServerUserItem@@@Z@4JA 10037164     MatchServiceManager.obj
 0003:00000168       ?__LINE__Var@?0??OnEventUserLogout@CMatchServiceManager@@UAE_NPAUIServerUserItem@@@Z@4JA 10037168     MatchServiceManager.obj
 0003:0000016c       ?__LINE__Var@?0??OnEventUserLogonFinish@CMatchServiceManager@@UAE_NPAUIServerUserItem@@@Z@4JA 1003716c     MatchServiceManager.obj
 0003:00000170       ?__LINE__Var@?0??OnEventEnterMatch@CMatchServiceManager@@UAE_NKPAXK_N@Z@4JA 10037170     MatchServiceManager.obj
 0003:00000174       ?__LINE__Var@?0??OnEventUserJoinMatch@CMatchServiceManager@@UAE_NPAUIServerUserItem@@EK@Z@4JA 10037174     MatchServiceManager.obj
 0003:00000178       ?__LINE__Var@?0??OnEventUserQuitMatch@CMatchServiceManager@@UAE_NPAUIServerUserItem@@EPAGK@Z@4JA 10037178     MatchServiceManager.obj
 0003:0000017c       ?__LINE__Var@?0??GetServerUserItemSink@CMatchServiceManager@@UAEPAUIUnknownEx@@XZ@4JA 1003717c     MatchServiceManager.obj
 0003:00000180       __pIncludeInitManaged      10037180     Stdafx.obj
 0003:00000184       ?__LINE__Var@?0??AtlWinModuleInit@ATL@@YGJPAU_ATL_WIN_MODULE70@2@@Z@4JA 10037184     Stdafx.obj
 0003:00000188       ?__LINE__Var@?0??_Maklocwcs@std@@YAPA_WPB_W@Z@4JA 10037188     Stdafx.obj
 0003:0000018c       ?__LINE__Var@?0??InitTableFrameHook@CTableFrameHook@@UAE_NPAUIUnknownEx@@@Z@4JA 1003718c     TableFrameHook.obj
 0003:00000190       _WinbaseIsolationAwarePrivateT_UnPgpgk 10037190     mfcs140d:nolib.obj
 0003:00000194       ___security_cookie_complement 10037194     msvcrtd:gs_cookie.obj
 0003:00000198       ___security_cookie         10037198     msvcrtd:gs_cookie.obj
 0003:000001a0       __Init_global_epoch        100371a0     msvcrtd:thread_safe_statics.obj
 0003:000001b0       ___scrt_native_dllmain_reason 100371b0     msvcrtd:utility.obj
 0003:000001b4       ___isa_enabled             100371b4     msvcrtd:cpu_disp.obj
 0003:000001b8       ?_RTC_ErrorLevels@@3PAHA   100371b8     msvcrtd:error.obj
 0003:000001d0       ___scrt_ucrt_dll_is_in_use 100371d0     msvcrtd:ucrt_stubs.obj
 0003:0000031c       ??_R0?AVCObject@@@8        1003731c     DistributeManager.obj
 0003:00000338       ??_R0PAD@8                 10037338     DistributeManager.obj
 0003:00000348       ??_R0PAX@8                 10037348     DistributeManager.obj
 0003:00000358       ??_R0?AV?$CWHArray@PAUtagSameTableInfo@@ABQAU1@@@@8 10037358     DistributeManager.obj
 0003:00000398       ??_R0?AV?$CMap@KKPAUtagSameTableInfo@@PAU1@@@@8 10037398     DistributeManager.obj
 0003:000003d4       ??_R0?AVCDistributeManager@@@8 100373d4     DistributeManager.obj
 0003:000003fc       ??_R0?AUIUnknownEx@@@8     100373fc     ImmediateGroup.obj
 0003:0000041c       ??_R0?AUIMatchEventSink@@@8 1003741c     ImmediateGroup.obj
 0003:00000440       ??_R0?AV?$CWHArray@PAUtagMatchTimer@@ABQAU1@@@@8 10037440     ImmediateGroup.obj
 0003:00000480       ??_R0?AV?$CWHArray@PAUIServerUserItem@@ABQAU1@@@@8 10037480     ImmediateGroup.obj
 0003:000004c0       ??_R0?AV?$CWHArray@PAUtagTableFrameInfo@@ABQAU1@@@@8 100374c0     ImmediateGroup.obj
 0003:00000504       ??_R0?AV?$CMap@KKPAUIServerUserItem@@PAU1@@@@8 10037504     ImmediateGroup.obj
 0003:00000540       ??_R0?AVCImmediateGroup@@@8 10037540     ImmediateGroup.obj
 0003:00000564       ??_R0H@8                   10037564     ImmediateMatch.obj
 0003:00000574       ??_R0?AUIServerUserItemSink@@@8 10037574     ImmediateMatch.obj
 0003:0000059c       ??_R0?AUIMatchServiceManager@@@8 1003759c     ImmediateMatch.obj
 0003:000005c8       ??_R0?AUIGameMatchItem@@@8 100375c8     ImmediateMatch.obj
 0003:000005ec       ??_R0?AUIImmediateGroupSink@@@8 100375ec     ImmediateMatch.obj
 0003:00000614       ??_R0?AVCImmediateMatch@@@8 10037614     ImmediateMatch.obj
 0003:00000638       ??_R0?AVCMatchServiceManager@@@8 10037638     ImmediateMatch.obj
 0003:00000664       ??_R0?AV?$CWHArray@EABE@@@8 10037664     ImmediateMatch.obj
 0003:00000688       ??_R0?AV?$CWHArray@PAVCImmediateGroup@@ABQAV1@@@@8 10037688     ImmediateMatch.obj
 0003:000006c8       ??_R0?AV?$CWHArray@PAVCTableFrameHook@@ABQAV1@@@@8 100376c8     ImmediateMatch.obj
 0003:00000708       ??_R0?AVCLockTimeMatch@@@8 10037708     LockTimeMatch.obj
 0003:0000072c       ??_R0?AV?$CWHArray@UtagDistributeInfo@@ABU1@@@@8 1003772c     LockTimeMatch.obj
 0003:0000076c       ??_R0?AVCWin32Heap@ATL@@@8 1003776c     Stdafx.obj
 0003:00000790       ??_R0?AUIAtlMemMgr@ATL@@@8 10037790     Stdafx.obj
 0003:000007b4       ??_R0?AUIAtlStringMgr@ATL@@@8 100377b4     Stdafx.obj
 0003:000007dc       ??_R0?AVCAtlStringMgr@ATL@@@8 100377dc     Stdafx.obj
 0003:00000804       ??_R0?AUITableUserAction@@@8 10037804     TableFrameHook.obj
 0003:0000082c       ??_R0?AUITableFrameHook@@@8 1003782c     TableFrameHook.obj
 0003:00000850       ??_R0?AVCTableFrameHook@@@8 10037850     TableFrameHook.obj
 0003:00000874       ??_R0?AVtype_info@@@8      10037874     msvcrtd:std_type_info_static.obj
 0003:000009a8       ?m_pHeadOfFreeList@CDistributeNodePool@@2PAUtagDistributeNode@@A 100379a8     DistributeManager.obj
 0003:000009ac       __afxForceEXTDLL           100379ac     GameMatchServer.obj
 0003:000009c8       ?m_wChairCount@CImmediateGroup@@1GA 100379c8     ImmediateGroup.obj
 0003:000009d0       ?_OptionsStorage@?1??__local_stdio_printf_options@@9@4_KA 100379d0     ImmediateGroup.obj
 0003:000009dc       ?atlTraceException@ATL@@3V?$CTraceCategoryEx@$0CAAA@$0A@@1@A 100379dc     ImmediateGroup.obj
 0003:000009e0       ?m_nLevel@CTrace@ATL@@1IA  100379e0     ImmediateGroup.obj
 0003:000009e4       ?m_nLastCategory@CTrace@ATL@@1IA 100379e4     ImmediateGroup.obj
 0003:000009e8       ?m_nMap@CTrace@ATL@@1PAUCategoryMap@12@A 100379e8     ImmediateGroup.obj
 0003:000030f8       ?_pPerfRegFunc@ATL@@3P6AJPAUHINSTANCE__@@@ZA 1003a0f8     Stdafx.obj
 0003:000030fc       ?_pPerfUnRegFunc@ATL@@3P6AJXZA 1003a0fc     Stdafx.obj
 0003:00003100       ?_AtlRegisterPerUser@ATL@@3_NA 1003a100     Stdafx.obj
 0003:00003104       ?_pAtlModule@ATL@@3PAVCAtlModule@1@A 1003a104     Stdafx.obj
 0003:00003108       ?_pModule@ATL@@3PAVCComModule@1@A 1003a108     Stdafx.obj
 0003:0000310c       ?_pAtlAutoThreadModule@ATL@@3PAUIAtlAutoThreadModule@1@A 1003a10c     Stdafx.obj
 0003:00003110       ___@@_PchSym_@00@UKlsKomKqyKlsKroKqzUszkkbtznvdsUKltKqnKrmKluKrpKpyKlsKpoKpkUKlvKorKpmKlqKqsKovKlsKqoKplKluKomKquUKltKpkKqvKlrKouKqoKltKqnKrmKluKrpKpyUwvyftPzmhrUhgwzucOlyq@4B2008FD98C1DD4 1003a110     Stdafx.obj
 0003:00003114       ?atlTraceGeneral@ATL@@3V?$CTraceCategoryEx@$00$0A@@1@A 1003a114     Stdafx.obj
 0003:00003118       ?atlTraceCOM@ATL@@3V?$CTraceCategoryEx@$01$0A@@1@A 1003a118     Stdafx.obj
 0003:0000311c       ?atlTraceQI@ATL@@3V?$CTraceCategoryEx@$03$0A@@1@A 1003a11c     Stdafx.obj
 0003:00003120       ?atlTraceRegistrar@ATL@@3V?$CTraceCategoryEx@$07$0A@@1@A 1003a120     Stdafx.obj
 0003:00003124       ?atlTraceRefcount@ATL@@3V?$CTraceCategoryEx@$0BA@$0A@@1@A 1003a124     Stdafx.obj
 0003:00003128       ?atlTraceWindowing@ATL@@3V?$CTraceCategoryEx@$0CA@$0A@@1@A 1003a128     Stdafx.obj
 0003:0000312c       ?atlTraceControls@ATL@@3V?$CTraceCategoryEx@$0EA@$0A@@1@A 1003a12c     Stdafx.obj
 0003:00003130       ?atlTraceHosting@ATL@@3V?$CTraceCategoryEx@$0IA@$0A@@1@A 1003a130     Stdafx.obj
 0003:00003134       ?atlTraceDBClient@ATL@@3V?$CTraceCategoryEx@$0BAA@$0A@@1@A 1003a134     Stdafx.obj
 0003:00003138       ?atlTraceDBProvider@ATL@@3V?$CTraceCategoryEx@$0CAA@$0A@@1@A 1003a138     Stdafx.obj
 0003:0000313c       ?atlTraceSnapin@ATL@@3V?$CTraceCategoryEx@$0EAA@$0A@@1@A 1003a13c     Stdafx.obj
 0003:00003140       ?atlTraceNotImpl@ATL@@3V?$CTraceCategoryEx@$0IAA@$0A@@1@A 1003a140     Stdafx.obj
 0003:00003144       ?atlTraceAllocation@ATL@@3V?$CTraceCategoryEx@$0BAAA@$0A@@1@A 1003a144     Stdafx.obj
 0003:00003148       ?atlTraceTime@ATL@@3V?$CTraceCategoryEx@$0EAAA@$0A@@1@A 1003a148     Stdafx.obj
 0003:0000314c       ?atlTraceCache@ATL@@3V?$CTraceCategoryEx@$0IAAA@$0A@@1@A 1003a14c     Stdafx.obj
 0003:00003150       ?atlTraceStencil@ATL@@3V?$CTraceCategoryEx@$0BAAAA@$0A@@1@A 1003a150     Stdafx.obj
 0003:00003154       ?atlTraceString@ATL@@3V?$CTraceCategoryEx@$0CAAAA@$0A@@1@A 1003a154     Stdafx.obj
 0003:00003158       ?atlTraceMap@ATL@@3V?$CTraceCategoryEx@$0EAAAA@$0A@@1@A 1003a158     Stdafx.obj
 0003:0000315c       ?atlTraceUtil@ATL@@3V?$CTraceCategoryEx@$0IAAAA@$0A@@1@A 1003a15c     Stdafx.obj
 0003:00003160       ?atlTraceSecurity@ATL@@3V?$CTraceCategoryEx@$0BAAAAA@$0A@@1@A 1003a160     Stdafx.obj
 0003:00003164       ?atlTraceSync@ATL@@3V?$CTraceCategoryEx@$0CAAAAA@$0A@@1@A 1003a164     Stdafx.obj
 0003:00003168       ?atlTraceISAPI@ATL@@3V?$CTraceCategoryEx@$0EAAAAA@$0A@@1@A 1003a168     Stdafx.obj
 0003:0000316c       ?m_bInitFailed@CAtlBaseModule@ATL@@2_NA 1003a16c     Stdafx.obj
 0003:00003170       ?_AtlComModule@ATL@@3VCAtlComModule@1@A 1003a170     Stdafx.obj
 0003:000031a0       ?_AtlWinModule@ATL@@3VCAtlWinModule@1@A 1003a1a0     Stdafx.obj
 0003:000031d4       ?strHeap@?1??GetInstance@CAtlStringMgr@ATL@@SAPAUIAtlStringMgr@3@XZ@4VCWin32Heap@3@A 1003a1d4     Stdafx.obj
 0003:000031e4       ?$TSS0@?1??GetInstance@CAtlStringMgr@ATL@@SAPAUIAtlStringMgr@3@XZ@4HA 1003a1e4     Stdafx.obj
 0003:000031e8       ?strMgr@?1??GetInstance@CAtlStringMgr@ATL@@SAPAUIAtlStringMgr@3@XZ@4V23@A 1003a1e8     Stdafx.obj
 0003:0000320c       ?$TSS1@?1??GetInstance@CAtlStringMgr@ATL@@SAPAUIAtlStringMgr@3@XZ@4HA 1003a20c     Stdafx.obj
 0003:00003210       ?InitializeCAtlStringMgr@ATLImplementationDetails@ATL@@3UCAtlStringMgrStaticInitializer@12@A 1003a210     Stdafx.obj
 0003:00003214       __afxForceEXCLUDE          1003a214     mfcs140d:nolib.obj
 0003:00003218       _IsolationAwarePrivateT_SqbjaYRiRY 1003a218     mfcs140d:nolib.obj
 0003:0000321c       _IsolationAwarePrivateT_SAbnPgpgk 1003a21c     mfcs140d:nolib.obj
 0003:00003220       _WinbaseIsolationAwarePrivateT_SpeRNgRQnPgpgk 1003a220     mfcs140d:nolib.obj
 0003:00003224       _WinbaseIsolationAwarePrivateT_SpYRNahcpNYYRQ 1003a224     mfcs140d:nolib.obj
 0003:00003228       ?s_pfn@?1??IsolationAwareCreateActCtxW@@9@4@4P6GPAXPBUtagACTCTXW@@@ZA 1003a228     mfcs140d:nolib.obj
 0003:0000322c       ?s_pfn@?1??IsolationAwareActivateActCtx@@9@8@4P6GHPAXPAK@ZA 1003a22c     mfcs140d:nolib.obj
 0003:00003230       ?s_pfn@?1??IsolationAwareDeactivateActCtx@@9@8@4P6GHKK@ZA 1003a230     mfcs140d:nolib.obj
 0003:00003234       ?s_pfn@?1??IsolationAwareFindActCtxSectionStringW@@9@20@4P6GHKPBU_GUID@@KPB_WPAUtagACTCTX_SECTION_KEYED_DATA@@@ZA 1003a234     mfcs140d:nolib.obj
 0003:00003238       ?s_pfn@?1??IsolationAwareQueryActCtxW@@9@28@4P6GHKPAX0K0KPAK@ZA 1003a238     mfcs140d:nolib.obj
 0003:0000323c       ?m@?1??WinbaseIsolationAwarePrivatetRgCebPnQQeRff_xReaRYQP_QYY@@9@4@4UIsolationAwarePrivate_zHGnoyr_zBqHyr_vAsB@@A 1003a23c     mfcs140d:nolib.obj
 0003:00003240       ??_B?1??GetInstance@CAtlStringMgr@ATL@@SAPAUIAtlStringMgr@2@XZ@51 1003a240     mfcs140d:nolib.obj
 0003:00003244       __afxForceSTDAFX           1003a244     mfcs140d:stdafx.obj
 0003:00003278       __tls_index                1003a278     msvcrtd:tlssup.obj
 0003:0000327c       ___scrt_current_native_startup_state 1003a27c     msvcrtd:utility.obj
 0003:00003280       ___scrt_native_startup_lock 1003a280     msvcrtd:utility.obj
 0003:0000366c       ___scrt_debugger_hook_flag 1003a66c     msvcrtd:utility_desktop.obj
 0003:00003670       ___isa_available           1003a670     msvcrtd:cpu_disp.obj
 0003:00003674       ___favor                   1003a674     msvcrtd:cpu_disp.obj
 0003:00003680       ?__type_info_root_node@@3U__type_info_node@@A 1003a680     msvcrtd:tncleanup.obj
 0003:00003690       ?_OptionsStorage@?1??__local_stdio_scanf_options@@9@4_KA 1003a690     msvcrtd:default_local_stdio_options.obj
 0003:000036b0       ?_AtlBaseModule@ATL@@3VCAtlBaseModule@1@A 1003a6b0     atls:atlbase.obj
 0003:000036f4       ___@@_PchSym_@00@UztvmgUPdlipUDUhUrmgvinvwrzgvUexgllohUzgohOmzgrevkilqPBACIAJCBDBUlyqiUcIGUhgwzucOlyq@4B2008FD98C1DD4 1003a6f4     atls:stdafx.obj
 0003:000036f8       ___dyn_tls_init_callback   1003a6f8     <common>
 0004:00000000       __imp__IsDebuggerPresent@0 1003b000     kernel32:KERNEL32.dll
 0004:00000004       __imp__FreeLibrary@4       1003b004     kernel32:KERNEL32.dll
 0004:00000008       __imp__VirtualQuery@12     1003b008     kernel32:KERNEL32.dll
 0004:0000000c       __imp__WideCharToMultiByte@32 1003b00c     kernel32:KERNEL32.dll
 0004:00000010       __imp__InitializeSListHead@4 1003b010     kernel32:KERNEL32.dll
 0004:00000014       __imp__GetSystemTimeAsFileTime@4 1003b014     kernel32:KERNEL32.dll
 0004:00000018       __imp__GetCurrentThreadId@0 1003b018     kernel32:KERNEL32.dll
 0004:0000001c       __imp__GetCurrentProcessId@0 1003b01c     kernel32:KERNEL32.dll
 0004:00000020       __imp__QueryPerformanceCounter@4 1003b020     kernel32:KERNEL32.dll
 0004:00000024       __imp__GetStartupInfoW@4   1003b024     kernel32:KERNEL32.dll
 0004:00000028       __imp__OutputDebugStringW@4 1003b028     kernel32:KERNEL32.dll
 0004:0000002c       __imp__IsProcessorFeaturePresent@4 1003b02c     kernel32:KERNEL32.dll
 0004:00000030       __imp__TerminateProcess@8  1003b030     kernel32:KERNEL32.dll
 0004:00000034       __imp__GetCurrentProcess@0 1003b034     kernel32:KERNEL32.dll
 0004:00000038       __imp__SetUnhandledExceptionFilter@4 1003b038     kernel32:KERNEL32.dll
 0004:0000003c       __imp__UnhandledExceptionFilter@4 1003b03c     kernel32:KERNEL32.dll
 0004:00000040       __imp__CreateEventW@16     1003b040     kernel32:KERNEL32.dll
 0004:00000044       __imp__WaitForSingleObjectEx@12 1003b044     kernel32:KERNEL32.dll
 0004:00000048       __imp__ResetEvent@4        1003b048     kernel32:KERNEL32.dll
 0004:0000004c       __imp__SetEvent@4          1003b04c     kernel32:KERNEL32.dll
 0004:00000050       __imp__LeaveCriticalSection@4 1003b050     kernel32:KERNEL32.dll
 0004:00000054       __imp__EnterCriticalSection@4 1003b054     kernel32:KERNEL32.dll
 0004:00000058       __imp__CloseHandle@4       1003b058     kernel32:KERNEL32.dll
 0004:0000005c       __imp__LoadLibraryW@4      1003b05c     kernel32:KERNEL32.dll
 0004:00000060       __imp__GetProcAddress@8    1003b060     kernel32:KERNEL32.dll
 0004:00000064       __imp__GetModuleHandleW@4  1003b064     kernel32:KERNEL32.dll
 0004:00000068       __imp__GetModuleHandleA@4  1003b068     kernel32:KERNEL32.dll
 0004:0000006c       __imp__GetModuleFileNameW@12 1003b06c     kernel32:KERNEL32.dll
 0004:00000070       __imp__OutputDebugStringA@4 1003b070     kernel32:KERNEL32.dll
 0004:00000074       __imp__DeleteCriticalSection@4 1003b074     kernel32:KERNEL32.dll
 0004:00000078       __imp__InitializeCriticalSectionAndSpinCount@8 1003b078     kernel32:KERNEL32.dll
 0004:0000007c       __imp__GetProcessHeap@0    1003b07c     kernel32:KERNEL32.dll
 0004:00000080       __imp__HeapSize@12         1003b080     kernel32:KERNEL32.dll
 0004:00000084       __imp__HeapFree@12         1003b084     kernel32:KERNEL32.dll
 0004:00000088       __imp__HeapReAlloc@16      1003b088     kernel32:KERNEL32.dll
 0004:0000008c       __imp__HeapAlloc@12        1003b08c     kernel32:KERNEL32.dll
 0004:00000090       __imp__HeapDestroy@4       1003b090     kernel32:KERNEL32.dll
 0004:00000094       __imp__RaiseException@16   1003b094     kernel32:KERNEL32.dll
 0004:00000098       __imp__DecodePointer@4     1003b098     kernel32:KERNEL32.dll
 0004:0000009c       __imp__GetLocalTime@4      1003b09c     kernel32:KERNEL32.dll
 0004:000000a0       __imp__GetSystemTime@4     1003b0a0     kernel32:KERNEL32.dll
 0004:000000a4       __imp__GetLastError@0      1003b0a4     kernel32:KERNEL32.dll
 0004:000000a8       __imp__SetLastError@4      1003b0a8     kernel32:KERNEL32.dll
 0004:000000ac       __imp__lstrcpynA@12        1003b0ac     kernel32:KERNEL32.dll
 0004:000000b0       __imp__lstrlenA@4          1003b0b0     kernel32:KERNEL32.dll
 0004:000000b4       __imp__MultiByteToWideChar@24 1003b0b4     kernel32:KERNEL32.dll
 0004:000000b8       \177KERNEL32_NULL_THUNK_DATA 1003b0b8     kernel32:KERNEL32.dll
 0004:00000108       __imp_?TraceString@CTraceService@@SA_NPBDW4enTraceLevel@@@Z 1003b108     KernelEngine:KernelEngine.dll
 0004:0000010c       \177KernelEngine_NULL_THUNK_DATA 1003b10c     KernelEngine:KernelEngine.dll
 0004:00000138       __imp_?_Getdays@_Locinfo@std@@QBEPBDXZ 1003b138     msvcprtd:MSVCP140D.dll
 0004:0000013c       __imp_?_W_Getdays@_Locinfo@std@@QBEPBGXZ 1003b13c     msvcprtd:MSVCP140D.dll
 0004:00000140       __imp___Mbrtowc            1003b140     msvcprtd:MSVCP140D.dll
 0004:00000144       __imp_?_Xbad_alloc@std@@YAXXZ 1003b144     msvcprtd:MSVCP140D.dll
 0004:00000148       __imp_?_W_Getmonths@_Locinfo@std@@QBEPBGXZ 1003b148     msvcprtd:MSVCP140D.dll
 0004:0000014c       __imp_?_Getcvt@_Locinfo@std@@QBE?AU_Cvtvec@@XZ 1003b14c     msvcprtd:MSVCP140D.dll
 0004:00000150       __imp_?_Getmonths@_Locinfo@std@@QBEPBDXZ 1003b150     msvcprtd:MSVCP140D.dll
 0004:00000154       \177MSVCP140D_NULL_THUNK_DATA 1003b154     msvcprtd:MSVCP140D.dll
 0004:00000184       __imp__SysFreeString@4     1003b184     oleaut32:OLEAUT32.dll
 0004:00000188       \177OLEAUT32_NULL_THUNK_DATA 1003b188     oleaut32:OLEAUT32.dll
 0004:000001b4       __imp__UnregisterClassA@8  1003b1b4     user32:USER32.dll
 0004:000001b8       __imp__PeekMessageA@20     1003b1b8     user32:USER32.dll
 0004:000001bc       __imp__PostQuitMessage@4   1003b1bc     user32:USER32.dll
 0004:000001c0       \177USER32_NULL_THUNK_DATA 1003b1c0     user32:USER32.dll
 0004:000001ec       __imp___purecall           1003b1ec     vcruntimed:VCRUNTIME140D.dll
 0004:000001f0       __imp____CxxFrameHandler3  1003b1f0     vcruntimed:VCRUNTIME140D.dll
 0004:000001f4       __imp___except_handler4_common 1003b1f4     vcruntimed:VCRUNTIME140D.dll
 0004:000001f8       __imp__memmove             1003b1f8     vcruntimed:VCRUNTIME140D.dll
 0004:000001fc       __imp__memcpy              1003b1fc     vcruntimed:VCRUNTIME140D.dll
 0004:00000200       __imp____std_type_info_destroy_list 1003b200     vcruntimed:VCRUNTIME140D.dll
 0004:00000204       __imp____vcrt_GetModuleFileNameW 1003b204     vcruntimed:VCRUNTIME140D.dll
 0004:00000208       __imp____vcrt_GetModuleHandleW 1003b208     vcruntimed:VCRUNTIME140D.dll
 0004:0000020c       __imp__memcmp              1003b20c     vcruntimed:VCRUNTIME140D.dll
 0004:00000210       __imp____vcrt_LoadLibraryExW 1003b210     vcruntimed:VCRUNTIME140D.dll
 0004:00000214       __imp__memset              1003b214     vcruntimed:VCRUNTIME140D.dll
 0004:00000218       __imp___CxxThrowException@8 1003b218     vcruntimed:VCRUNTIME140D.dll
 0004:0000021c       \177VCRUNTIME140D_NULL_THUNK_DATA 1003b21c     vcruntimed:VCRUNTIME140D.dll
 0004:00000250       __imp_??0CObject@@IAE@XZ   1003b250     mfc140d:mfc140d.dll
 0004:00000254       __imp_??3CObject@@SGXPAX@Z 1003b254     mfc140d:mfc140d.dll
 0004:00000258       __imp_??1CObject@@UAE@XZ   1003b258     mfc140d:mfc140d.dll
 0004:0000025c       __imp_?GetRuntimeClass@CObject@@UBEPAUCRuntimeClass@@XZ 1003b25c     mfc140d:mfc140d.dll
 0004:00000260       __imp_?AfxThrowInvalidArgException@@YGXXZ 1003b260     mfc140d:mfc140d.dll
 0004:00000264       __imp_?AfxAssertValidObject@@YGXPBVCObject@@PBDH@Z 1003b264     mfc140d:mfc140d.dll
 0004:00000268       __imp_??_V@YAXPAX@Z        1003b268     mfc140d:mfc140d.dll
 0004:0000026c       __imp_??_U@YAPAXI@Z        1003b26c     mfc140d:mfc140d.dll
 0004:00000270       __imp_??2@YAPAXI@Z         1003b270     mfc140d:mfc140d.dll
 0004:00000274       __imp_?Serialize@CObject@@UAEXAAVCArchive@@@Z 1003b274     mfc140d:mfc140d.dll
 0004:00000278       __imp_?AfxThrowMemoryException@@YGXXZ 1003b278     mfc140d:mfc140d.dll
 0004:0000027c       __imp_?AssertValid@CObject@@UBEXXZ 1003b27c     mfc140d:mfc140d.dll
 0004:00000280       __imp_?Dump@CObject@@UBEXAAVCDumpContext@@@Z 1003b280     mfc140d:mfc140d.dll
 0004:00000284       __imp_?AfxIsValidAddress@@YGHPBXIH@Z 1003b284     mfc140d:mfc140d.dll
 0004:00000288       __imp_??_U@YAPAXIPBDH@Z    1003b288     mfc140d:mfc140d.dll
 0004:0000028c       __imp_?IsStoring@CArchive@@QBEHXZ 1003b28c     mfc140d:mfc140d.dll
 0004:00000290       __imp_?EnsureRead@CArchive@@QAEXPAXI@Z 1003b290     mfc140d:mfc140d.dll
 0004:00000294       __imp_?AfxThrowOleException@@YGXJ@Z 1003b294     mfc140d:mfc140d.dll
 0004:00000298       __imp_??B?$CSimpleStringT@D$00@ATL@@QBEPBDXZ 1003b298     mfc140d:mfc140d.dll
 0004:0000029c       __imp_??0?$CStringT@DV?$StrTraitMFC_DLL@DV?$ChTraitsCRT@D@ATL@@@@@ATL@@QAE@XZ 1003b29c     mfc140d:mfc140d.dll
 0004:000002a0       __imp_??1?$CStringT@DV?$StrTraitMFC_DLL@DV?$ChTraitsCRT@D@ATL@@@@@ATL@@QAE@XZ 1003b2a0     mfc140d:mfc140d.dll
 0004:000002a4       __imp_?Format@?$CStringT@DV?$StrTraitMFC_DLL@DV?$ChTraitsCRT@D@ATL@@@@@ATL@@QAAXPBDZZ 1003b2a4     mfc140d:mfc140d.dll
 0004:000002a8       __imp_??2@YAPAXIPBDH@Z     1003b2a8     mfc140d:mfc140d.dll
 0004:000002ac       __imp_??3@YAXPAXPBDH@Z     1003b2ac     mfc140d:mfc140d.dll
 0004:000002b0       __imp_?Write@CArchive@@QAEXPBXI@Z 1003b2b0     mfc140d:mfc140d.dll
 0004:000002b4       __imp_?ReadCount@CArchive@@QAEKXZ 1003b2b4     mfc140d:mfc140d.dll
 0004:000002b8       __imp_?WriteCount@CArchive@@QAEXK@Z 1003b2b8     mfc140d:mfc140d.dll
 0004:000002bc       __imp_?GetDepth@CDumpContext@@QBEHXZ 1003b2bc     mfc140d:mfc140d.dll
 0004:000002c0       __imp_?AfxInitExtensionModule@@YGHAAUAFX_EXTENSION_MODULE@@PAUHINSTANCE__@@@Z 1003b2c0     mfc140d:mfc140d.dll
 0004:000002c4       __imp_??6CDumpContext@@QAEAAV0@PBD@Z 1003b2c4     mfc140d:mfc140d.dll
 0004:000002c8       __imp_??6CDumpContext@@QAEAAV0@H@Z 1003b2c8     mfc140d:mfc140d.dll
 0004:000002cc       __imp_?Create@CPlex@@SGPAU1@AAPAU1@II@Z 1003b2cc     mfc140d:mfc140d.dll
 0004:000002d0       __imp_?FreeDataChain@CPlex@@QAEXXZ 1003b2d0     mfc140d:mfc140d.dll
 0004:000002d4       __imp_??3@YAXPAX@Z         1003b2d4     mfc140d:mfc140d.dll
 0004:000002d8       __imp_??2CObject@@SGPAXI@Z 1003b2d8     mfc140d:mfc140d.dll
 0004:000002dc       __imp_?AfxGetModuleState@@YGPAVAFX_MODULE_STATE@@XZ 1003b2dc     mfc140d:mfc140d.dll
 0004:000002e0       __imp_??0CDynLinkLibrary@@QAE@AAUAFX_EXTENSION_MODULE@@H@Z 1003b2e0     mfc140d:mfc140d.dll
 0004:000002e4       __imp_?AfxTermExtensionModule@@YGXAAUAFX_EXTENSION_MODULE@@H@Z 1003b2e4     mfc140d:mfc140d.dll
 0004:000002e8       \177mfc140d_NULL_THUNK_DATA 1003b2e8     mfc140d:mfc140d.dll
 0004:00000330       __imp__rand                1003b330     ucrtd:ucrtbased.dll
 0004:00000334       __imp___time64             1003b334     ucrtd:ucrtbased.dll
 0004:00000338       __imp___CrtDbgReport       1003b338     ucrtd:ucrtbased.dll
 0004:0000033c       __imp__wcscpy_s            1003b33c     ucrtd:ucrtbased.dll
 0004:00000340       __imp__wcslen              1003b340     ucrtd:ucrtbased.dll
 0004:00000344       __imp____stdio_common_vswprintf_s 1003b344     ucrtd:ucrtbased.dll
 0004:00000348       __imp____stdio_common_vsprintf 1003b348     ucrtd:ucrtbased.dll
 0004:0000034c       __imp____stdio_common_vsnprintf_s 1003b34c     ucrtd:ucrtbased.dll
 0004:00000350       __imp__free                1003b350     ucrtd:ucrtbased.dll
 0004:00000354       __imp__malloc              1003b354     ucrtd:ucrtbased.dll
 0004:00000358       __imp___localtime64_s      1003b358     ucrtd:ucrtbased.dll
 0004:0000035c       __imp___CrtDbgReportW      1003b35c     ucrtd:ucrtbased.dll
 0004:00000360       __imp___mktime64           1003b360     ucrtd:ucrtbased.dll
 0004:00000364       __imp__strlen              1003b364     ucrtd:ucrtbased.dll
 0004:00000368       __imp___calloc_dbg         1003b368     ucrtd:ucrtbased.dll
 0004:0000036c       __imp__terminate           1003b36c     ucrtd:ucrtbased.dll
 0004:00000370       __imp___seh_filter_dll     1003b370     ucrtd:ucrtbased.dll
 0004:00000374       __imp___configure_narrow_argv 1003b374     ucrtd:ucrtbased.dll
 0004:00000378       __imp___initialize_narrow_environment 1003b378     ucrtd:ucrtbased.dll
 0004:0000037c       __imp___initialize_onexit_table 1003b37c     ucrtd:ucrtbased.dll
 0004:00000380       __imp___register_onexit_function 1003b380     ucrtd:ucrtbased.dll
 0004:00000384       __imp___execute_onexit_table 1003b384     ucrtd:ucrtbased.dll
 0004:00000388       __imp___crt_atexit         1003b388     ucrtd:ucrtbased.dll
 0004:0000038c       __imp___crt_at_quick_exit  1003b38c     ucrtd:ucrtbased.dll
 0004:00000390       __imp___cexit              1003b390     ucrtd:ucrtbased.dll
 0004:00000394       __imp___initterm           1003b394     ucrtd:ucrtbased.dll
 0004:00000398       __imp___initterm_e         1003b398     ucrtd:ucrtbased.dll
 0004:0000039c       __imp__strcpy_s            1003b39c     ucrtd:ucrtbased.dll
 0004:000003a0       __imp__strcat_s            1003b3a0     ucrtd:ucrtbased.dll
 0004:000003a4       __imp____stdio_common_vsprintf_s 1003b3a4     ucrtd:ucrtbased.dll
 0004:000003a8       __imp___wmakepath_s        1003b3a8     ucrtd:ucrtbased.dll
 0004:000003ac       __imp___wsplitpath_s       1003b3ac     ucrtd:ucrtbased.dll
 0004:000003b0       __imp___invalid_parameter_noinfo 1003b3b0     ucrtd:ucrtbased.dll
 0004:000003b4       __imp___errno              1003b3b4     ucrtd:ucrtbased.dll
 0004:000003b8       __imp___recalloc           1003b3b8     ucrtd:ucrtbased.dll
 0004:000003bc       __imp__ldiv                1003b3bc     ucrtd:ucrtbased.dll
 0004:000003c0       \177ucrtbased_NULL_THUNK_DATA 1003b3c0     ucrtd:ucrtbased.dll
 0004:00000408       __IMPORT_DESCRIPTOR_KernelEngine 1003b408     KernelEngine:KernelEngine.dll
 0004:0000041c       __IMPORT_DESCRIPTOR_mfc140d 1003b41c     mfc140d:mfc140d.dll
 0004:00000430       __IMPORT_DESCRIPTOR_KERNEL32 1003b430     kernel32:KERNEL32.dll
 0004:00000444       __IMPORT_DESCRIPTOR_USER32 1003b444     user32:USER32.dll
 0004:00000458       __IMPORT_DESCRIPTOR_OLEAUT32 1003b458     oleaut32:OLEAUT32.dll
 0004:0000046c       __IMPORT_DESCRIPTOR_MSVCP140D 1003b46c     msvcprtd:MSVCP140D.dll
 0004:00000480       __IMPORT_DESCRIPTOR_VCRUNTIME140D 1003b480     vcruntimed:VCRUNTIME140D.dll
 0004:00000494       __IMPORT_DESCRIPTOR_ucrtbased 1003b494     ucrtd:ucrtbased.dll
 0004:000004a8       __NULL_IMPORT_DESCRIPTOR   1003b4a8     KernelEngine:KernelEngine.dll
 0005:00000000       __tls_start                1003d000     msvcrtd:tlssup.obj
 0005:00000104       __Init_thread_epoch        1003d104     msvcrtd:thread_safe_statics.obj
 0005:00000208       __tls_end                  1003d208     msvcrtd:tlssup.obj
 0006:00000000       ___guard_check_icall_fptr  1003e000     msvcrtd:guard_support.obj

 entry point at        0001:00000820

 Static symbols

 0000:fffc3000       __guard_fids_?__scrt_initialize_thread_safe_statics@@YAHXZ 10000000     msvcrtd:thread_safe_statics.obj
 0001:fffff000       __ehhandler$??_ECMatchServiceManager@@UAEPAXI@Z 10000000 f   MatchServiceManager.obj
 0002:fffd4000       ?atlTraceException$initializer$@ATL@@3P6AXXZA 10000000     LockTimeMatch.obj
 0002:fffd4000       __unwindtable$??RCTraceFileAndLineInfo@ATL@@QBAXHIPBDZZ 10000000     LockTimeMatch.obj
 0000:fffc3000       __guard_fids__             10000000     mfcs140d:nolib.obj
 0002:fffd4000       __unwindtable$?TraceV@CTrace@ATL@@SAXPBDHII0PAD@Z 10000000     LockTimeMatch.obj
 0002:fffd4000       ?atlTraceControls$initializer$@ATL@@3P6AXXZA 10000000     mfcs140d:nolib.obj
 0002:fffd4000       __ehfuncinfo$??_ECMatchServiceManager@@UAEPAXI@Z 10000000     MatchServiceManager.obj
 0001:fffff000       __unwindfunclet$??RCTraceFileAndLineInfo@ATL@@QBAXHIPBDZZ$0 10000000 f   LockTimeMatch.obj
 0000:fffc3000       __guard_fids__             10000000     mfcs140d:nolib.obj
 0002:fffd4000       ?atlTraceHosting$initializer$@ATL@@3P6AXXZA 10000000     mfcs140d:nolib.obj
 0001:fffff000       __unwindfunclet$?TraceV@CTrace@ATL@@SAXPBDHII0PAD@Z$0 10000000 f   LockTimeMatch.obj
 0000:fffc3000       __guard_fids__             10000000     mfcs140d:nolib.obj
 0002:fffd4000       ?atlTraceException$initializer$@ATL@@3P6AXXZA 10000000     ImmediateMatch.obj
 0002:fffd4000       __unwindtable$??RCTraceFileAndLineInfo@ATL@@QBAXHIPBDZZ 10000000     ImmediateMatch.obj
 0002:fffd4000       ?atlTraceDBClient$initializer$@ATL@@3P6AXXZA 10000000     mfcs140d:nolib.obj
 0001:fffff000       __unwindfunclet$?TraceV@CTrace@ATL@@SAXPBDHII0PAD@Z$0 10000000 f   Stdafx.obj
 0000:fffc3000       __guard_fids__             10000000     mfcs140d:nolib.obj
 0002:fffd4000       ?atlTraceDBProvider$initializer$@ATL@@3P6AXXZA 10000000     mfcs140d:nolib.obj
 0001:fffff000       __unwindfunclet$??RCTraceFileAndLineInfo@ATL@@QBAXHIPBDZZ$0 10000000 f   Stdafx.obj
 0000:fffc3000       __guard_fids__             10000000     mfcs140d:nolib.obj
 0002:fffd4000       __unwindtable$?TraceV@CTrace@ATL@@SAXPBDHII0PAD@Z 10000000     Stdafx.obj
 0002:fffd4000       ?atlTraceSnapin$initializer$@ATL@@3P6AXXZA 10000000     mfcs140d:nolib.obj
 0002:fffd4000       __unwindtable$??RCTraceFileAndLineInfo@ATL@@QBAXHIPBDZZ 10000000     Stdafx.obj
 0000:fffc3000       __guard_fids__             10000000     mfcs140d:nolib.obj
 0002:fffd4000       __unwindtable$?TraceV@CTrace@ATL@@SAXPBDHII0PAD@Z 10000000     ImmediateMatch.obj
 0002:fffd4000       ?atlTraceNotImpl$initializer$@ATL@@3P6AXXZA 10000000     mfcs140d:nolib.obj
 0002:fffd4000       ?atlTraceException$initializer$@ATL@@3P6AXXZA 10000000     Stdafx.obj
 0000:fffbe000       .debug$S                   10000000     KernelEngine:KernelEngine.dll
 0000:fffbe000       .debug$S                   10000000     MatchService.exp
 0000:fffbe000       .debug$S                   10000000     mfc140d:mfc140d.dll
 0000:fffbe000       .debug$S                   10000000     kernel32:KERNEL32.dll
 0000:fffbe000       .debug$S                   10000000     mfc140d:mfc140d.dll
 0000:fffbe000       .debug$S                   10000000     ucrtd:ucrtbased.dll
 0000:fffbe000       .debug$S                   10000000     ucrtd:ucrtbased.dll
 0000:fffbe000       .debug$S                   10000000     ucrtd:ucrtbased.dll
 0000:fffbe000       .debug$S                   10000000     ucrtd:ucrtbased.dll
 0000:fffbe000       .debug$S                   10000000     ucrtd:ucrtbased.dll
 0000:fffbe000       .debug$S                   10000000     ucrtd:ucrtbased.dll
 0000:fffbe000       .debug$S                   10000000     ucrtd:ucrtbased.dll
 0000:fffbe000       .debug$S                   10000000     ucrtd:ucrtbased.dll
 0000:fffbe000       .debug$S                   10000000     ucrtd:ucrtbased.dll
 0000:fffbe000       .debug$S                   10000000     ucrtd:ucrtbased.dll
 0000:fffbe000       .debug$S                   10000000     ucrtd:ucrtbased.dll
 0000:fffbe000       .debug$S                   10000000     ucrtd:ucrtbased.dll
 0000:fffbe000       .debug$S                   10000000     ucrtd:ucrtbased.dll
 0000:fffbe000       .debug$S                   10000000     ucrtd:ucrtbased.dll
 0000:fffbe000       .debug$S                   10000000     ucrtd:ucrtbased.dll
 0000:fffbe000       .debug$S                   10000000     ucrtd:ucrtbased.dll
 0000:fffbe000       .debug$S                   10000000     ucrtd:ucrtbased.dll
 0000:fffbe000       .debug$S                   10000000     ucrtd:ucrtbased.dll
 0000:fffbe000       .debug$S                   10000000     ucrtd:ucrtbased.dll
 0000:fffbe000       .debug$S                   10000000     ucrtd:ucrtbased.dll
 0000:fffbe000       .debug$S                   10000000     ucrtd:ucrtbased.dll
 0000:fffbe000       .debug$S                   10000000     ucrtd:ucrtbased.dll
 0000:fffbe000       .debug$S                   10000000     ucrtd:ucrtbased.dll
 0000:fffbe000       .debug$S                   10000000     ucrtd:ucrtbased.dll
 0000:fffbe000       .debug$S                   10000000     ucrtd:ucrtbased.dll
 0000:fffbe000       .debug$S                   10000000     ucrtd:ucrtbased.dll
 0000:fffbe000       .debug$S                   10000000     ucrtd:ucrtbased.dll
 0000:fffbe000       .debug$S                   10000000     ucrtd:ucrtbased.dll
 0000:fffbe000       .debug$S                   10000000     ucrtd:ucrtbased.dll
 0000:fffbe000       .debug$S                   10000000     ucrtd:ucrtbased.dll
 0000:fffbe000       .debug$S                   10000000     ucrtd:ucrtbased.dll
 0000:fffbe000       .debug$S                   10000000     ucrtd:ucrtbased.dll
 0000:fffbe000       .debug$S                   10000000     ucrtd:ucrtbased.dll
 0000:fffbe000       .debug$S                   10000000     ucrtd:ucrtbased.dll
 0000:fffbe000       .debug$S                   10000000     ucrtd:ucrtbased.dll
 0000:fffbe000       .debug$S                   10000000     ucrtd:ucrtbased.dll
 0000:fffbe000       .debug$S                   10000000     mfc140d:mfc140d.dll
 0000:fffbe000       .debug$S                   10000000     vcruntimed:VCRUNTIME140D.dll
 0000:fffbe000       .debug$S                   10000000     vcruntimed:VCRUNTIME140D.dll
 0000:fffbe000       .debug$S                   10000000     vcruntimed:VCRUNTIME140D.dll
 0000:fffbe000       .debug$S                   10000000     vcruntimed:VCRUNTIME140D.dll
 0000:fffbe000       .debug$S                   10000000     vcruntimed:VCRUNTIME140D.dll
 0000:fffbe000       .debug$S                   10000000     vcruntimed:VCRUNTIME140D.dll
 0000:fffbe000       .debug$S                   10000000     vcruntimed:VCRUNTIME140D.dll
 0000:fffbe000       .debug$S                   10000000     vcruntimed:VCRUNTIME140D.dll
 0000:fffbe000       .debug$S                   10000000     vcruntimed:VCRUNTIME140D.dll
 0000:fffbe000       .debug$S                   10000000     vcruntimed:VCRUNTIME140D.dll
 0000:fffbe000       .debug$S                   10000000     vcruntimed:VCRUNTIME140D.dll
 0000:fffbe000       .debug$S                   10000000     vcruntimed:VCRUNTIME140D.dll
 0000:fffbe000       .debug$S                   10000000     mfc140d:mfc140d.dll
 0000:fffbe000       .debug$S                   10000000     msvcprtd:MSVCP140D.dll
 0000:fffbe000       .debug$S                   10000000     msvcprtd:MSVCP140D.dll
 0000:fffbe000       .debug$S                   10000000     msvcprtd:MSVCP140D.dll
 0000:fffbe000       .debug$S                   10000000     msvcprtd:MSVCP140D.dll
 0000:fffbe000       .debug$S                   10000000     msvcprtd:MSVCP140D.dll
 0000:fffbe000       .debug$S                   10000000     msvcprtd:MSVCP140D.dll
 0000:fffbe000       .debug$S                   10000000     msvcprtd:MSVCP140D.dll
 0000:fffbe000       .debug$S                   10000000     mfc140d:mfc140d.dll
 0000:fffbe000       .debug$S                   10000000     oleaut32:OLEAUT32.dll
 0000:fffc3000       __guard_fids__             10000000     atls:atlbase.obj
 0000:fffbe000       .debug$S                   10000000     mfc140d:mfc140d.dll
 0000:fffc3000       __guard_fids_??__E_AtlBaseModule@ATL@@YAXXZ 10000000     atls:atlbase.obj
 0000:fffbe000       .debug$S                   10000000     mfc140d:mfc140d.dll
 0000:fffbe000       .debug$S                   10000000     mfc140d:mfc140d.dll
 0000:fffbe000       .debug$S                   10000000     mfc140d:mfc140d.dll
 0000:fffbe000       .debug$S                   10000000     mfc140d:mfc140d.dll
 0000:fffbe000       .debug$S                   10000000     user32:USER32.dll
 0000:fffbe000       .debug$S                   10000000     user32:USER32.dll
 0000:fffbe000       .debug$S                   10000000     user32:USER32.dll
 0000:fffbe000       .debug$S                   10000000     mfc140d:mfc140d.dll
 0000:fffbe000       .debug$S                   10000000     kernel32:KERNEL32.dll
 0000:fffbe000       .debug$S                   10000000     kernel32:KERNEL32.dll
 0000:fffbe000       .debug$S                   10000000     kernel32:KERNEL32.dll
 0000:fffbe000       .debug$S                   10000000     kernel32:KERNEL32.dll
 0000:fffbe000       .debug$S                   10000000     kernel32:KERNEL32.dll
 0000:fffbe000       .debug$S                   10000000     kernel32:KERNEL32.dll
 0000:fffbe000       .debug$S                   10000000     kernel32:KERNEL32.dll
 0000:fffbe000       .debug$S                   10000000     kernel32:KERNEL32.dll
 0000:fffbe000       .debug$S                   10000000     kernel32:KERNEL32.dll
 0000:fffbe000       .debug$S                   10000000     kernel32:KERNEL32.dll
 0000:fffbe000       .debug$S                   10000000     kernel32:KERNEL32.dll
 0000:fffbe000       .debug$S                   10000000     kernel32:KERNEL32.dll
 0000:fffbe000       .debug$S                   10000000     kernel32:KERNEL32.dll
 0000:fffbe000       .debug$S                   10000000     kernel32:KERNEL32.dll
 0000:fffbe000       .debug$S                   10000000     kernel32:KERNEL32.dll
 0000:fffbe000       .debug$S                   10000000     kernel32:KERNEL32.dll
 0000:fffbe000       .debug$S                   10000000     kernel32:KERNEL32.dll
 0000:fffbe000       .debug$S                   10000000     kernel32:KERNEL32.dll
 0000:fffbe000       .debug$S                   10000000     kernel32:KERNEL32.dll
 0000:fffbe000       .debug$S                   10000000     kernel32:KERNEL32.dll
 0000:fffbe000       .debug$S                   10000000     kernel32:KERNEL32.dll
 0000:fffbe000       .debug$S                   10000000     kernel32:KERNEL32.dll
 0000:fffbe000       .debug$S                   10000000     kernel32:KERNEL32.dll
 0000:fffbe000       .debug$S                   10000000     kernel32:KERNEL32.dll
 0000:fffbe000       .debug$S                   10000000     kernel32:KERNEL32.dll
 0000:fffbe000       .debug$S                   10000000     kernel32:KERNEL32.dll
 0000:fffbe000       .debug$S                   10000000     kernel32:KERNEL32.dll
 0000:fffbe000       .debug$S                   10000000     kernel32:KERNEL32.dll
 0000:fffbe000       .debug$S                   10000000     kernel32:KERNEL32.dll
 0000:fffbe000       .debug$S                   10000000     kernel32:KERNEL32.dll
 0000:fffbe000       .debug$S                   10000000     kernel32:KERNEL32.dll
 0000:fffbe000       .debug$S                   10000000     kernel32:KERNEL32.dll
 0000:fffbe000       .debug$S                   10000000     kernel32:KERNEL32.dll
 0000:fffbe000       .debug$S                   10000000     kernel32:KERNEL32.dll
 0000:fffbe000       .debug$S                   10000000     kernel32:KERNEL32.dll
 0000:fffbe000       .debug$S                   10000000     kernel32:KERNEL32.dll
 0000:fffbe000       .debug$S                   10000000     kernel32:KERNEL32.dll
 0000:fffbe000       .debug$S                   10000000     kernel32:KERNEL32.dll
 0000:fffbe000       .debug$S                   10000000     kernel32:KERNEL32.dll
 0000:fffbe000       .debug$S                   10000000     kernel32:KERNEL32.dll
 0000:fffbe000       .debug$S                   10000000     kernel32:KERNEL32.dll
 0000:fffbe000       .debug$S                   10000000     kernel32:KERNEL32.dll
 0000:fffbe000       .debug$S                   10000000     kernel32:KERNEL32.dll
 0000:fffbe000       .debug$S                   10000000     kernel32:KERNEL32.dll
 0000:fffbe000       .debug$S                   10000000     kernel32:KERNEL32.dll
 0000:fffbe000       .debug$S                   10000000     mfc140d:mfc140d.dll
 0000:fffbe000       .debug$S                   10000000     mfc140d:mfc140d.dll
 0000:fffbe000       .debug$S                   10000000     mfc140d:mfc140d.dll
 0000:fffbe000       .debug$S                   10000000     mfc140d:mfc140d.dll
 0000:fffbe000       .debug$S                   10000000     mfc140d:mfc140d.dll
 0000:fffbe000       .debug$S                   10000000     mfc140d:mfc140d.dll
 0000:fffbe000       .debug$S                   10000000     mfc140d:mfc140d.dll
 0000:fffbe000       .debug$S                   10000000     mfc140d:mfc140d.dll
 0000:fffbe000       .debug$S                   10000000     mfc140d:mfc140d.dll
 0000:fffbe000       .debug$S                   10000000     mfc140d:mfc140d.dll
 0000:fffbe000       .debug$S                   10000000     mfc140d:mfc140d.dll
 0000:fffbe000       .debug$S                   10000000     mfc140d:mfc140d.dll
 0000:fffbe000       .debug$S                   10000000     mfc140d:mfc140d.dll
 0000:fffbe000       .debug$S                   10000000     mfc140d:mfc140d.dll
 0000:fffbe000       .debug$S                   10000000     mfc140d:mfc140d.dll
 0000:fffbe000       .debug$S                   10000000     mfc140d:mfc140d.dll
 0000:fffbe000       .debug$S                   10000000     mfc140d:mfc140d.dll
 0000:fffbe000       .debug$S                   10000000     mfc140d:mfc140d.dll
 0000:fffbe000       .debug$S                   10000000     mfc140d:mfc140d.dll
 0000:fffbe000       .debug$S                   10000000     mfc140d:mfc140d.dll
 0000:fffbe000       .debug$S                   10000000     mfc140d:mfc140d.dll
 0000:fffbe000       .debug$S                   10000000     mfc140d:mfc140d.dll
 0000:fffbe000       .debug$S                   10000000     mfc140d:mfc140d.dll
 0000:fffbe000       .debug$S                   10000000     mfc140d:mfc140d.dll
 0000:fffbe000       .debug$S                   10000000     mfc140d:mfc140d.dll
 0000:fffbe000       .debug$S                   10000000     mfc140d:mfc140d.dll
 0000:fffbe000       .debug$S                   10000000     mfc140d:mfc140d.dll
 0000:fffc3000       __guard_fids____scrt_set_unhandled_exception_filter 10000000     msvcrtd:utility_desktop.obj
 0000:fffc3000       __guard_fids__             10000000     mfcs140d:nolib.obj
 0000:fffc3000       __guard_fids__             10000000     mfcs140d:nolib.obj
 0002:fffd4000       ?atlTraceAllocation$initializer$@ATL@@3P6AXXZA 10000000     mfcs140d:nolib.obj
 0000:fffc3000       __guard_fids___guard_icall_checks_enforced 10000000     msvcrtd:guard_support.obj
 0000:fffc3000       __guard_fids__             10000000     msvcrtd:guard_support.obj
 0000:fffc3000       __guard_fids___except_handler4 10000000     msvcrtd:chandler4gs.obj
 0000:fffc3000       __guard_fids__             10000000     mfcs140d:nolib.obj
 0000:fffc3000       __guard_fids___CRT_RTC_INITW 10000000     msvcrtd:init.obj
 0000:fffc3000       __guard_fids___CRT_RTC_INIT 10000000     msvcrtd:init.obj
 0002:fffd4000       ?atlTraceException$initializer$@ATL@@3P6AXXZA 10000000     mfcs140d:nolib.obj
 0000:fffc3000       __guard_fids__             10000000     mfcs140d:nolib.obj
 0000:fffc3000       __guard_fids_?dllmain_dispatch@@YAHQAUHINSTANCE__@@KQAX@Z 10000000     msvcrtd:dll_dllmain.obj
 0002:fffd4000       ?atlTraceTime$initializer$@ATL@@3P6AXXZA 10000000     mfcs140d:nolib.obj
 0001:fffff000       __unwindfunclet$?TraceV@CTrace@ATL@@SAXPBDHII0PAD@Z$0 10000000 f   ImmediateMatch.obj
 0000:fffc3000       __guard_fids__             10000000     mfcs140d:nolib.obj
 0002:fffd4000       ?atlTraceCache$initializer$@ATL@@3P6AXXZA 10000000     mfcs140d:nolib.obj
 0000:fffc3000       __guard_fids__             10000000     mfcs140d:nolib.obj
 0002:fffd4000       ?atlTraceStencil$initializer$@ATL@@3P6AXXZA 10000000     mfcs140d:nolib.obj
 0000:fffc3000       __guard_fids__             10000000     mfcs140d:nolib.obj
 0001:fffff000       __unwindfunclet$?TraceV@CTrace@ATL@@SAXPBDHII0PAD@Z$0 10000000 f   mfcs140d:nolib.obj
 0002:fffd4000       ?atlTraceString$initializer$@ATL@@3P6AXXZA 10000000     mfcs140d:nolib.obj
 0000:fffc3000       __guard_fids__             10000000     mfcs140d:nolib.obj
 0001:fffff000       __unwindfunclet$??RCTraceFileAndLineInfo@ATL@@QBAXHIPBDZZ$0 10000000 f   ImmediateMatch.obj
 0002:fffd4000       ?atlTraceMap$initializer$@ATL@@3P6AXXZA 10000000     mfcs140d:nolib.obj
 0000:fffc3000       __guard_fids__             10000000     mfcs140d:nolib.obj
 0002:fffd4000       ?atlTraceUtil$initializer$@ATL@@3P6AXXZA 10000000     mfcs140d:nolib.obj
 0000:fffc3000       __guard_fids__             10000000     mfcs140d:nolib.obj
 0002:fffd4000       ?atlTraceSecurity$initializer$@ATL@@3P6AXXZA 10000000     mfcs140d:nolib.obj
 0000:fffc3000       __guard_fids__             10000000     mfcs140d:nolib.obj
 0002:fffd4000       ?atlTraceSync$initializer$@ATL@@3P6AXXZA 10000000     mfcs140d:nolib.obj
 0000:fffc3000       __guard_fids__             10000000     mfcs140d:nolib.obj
 0002:fffd4000       ?atlTraceISAPI$initializer$@ATL@@3P6AXXZA 10000000     mfcs140d:nolib.obj
 0000:fffc3000       __guard_fids__             10000000     mfcs140d:nolib.obj
 0002:fffd4000       ?_AtlComModule$initializer$@ATL@@3P6AXXZA 10000000     mfcs140d:nolib.obj
 0000:fffc3000       __guard_fids__             10000000     mfcs140d:nolib.obj
 0002:fffd4000       ?atlTraceWindowing$initializer$@ATL@@3P6AXXZA 10000000     mfcs140d:nolib.obj
 0002:fffd4000       ?_AtlWinModule$initializer$@ATL@@3P6AXXZA 10000000     mfcs140d:nolib.obj
 0000:fffc3000       __guard_fids__             10000000     mfcs140d:nolib.obj
 0001:fffff000       __unwindfunclet$??RCTraceFileAndLineInfo@ATL@@QBAXHIPBDZZ$0 10000000 f   mfcs140d:nolib.obj
 0001:fffff000       __ehhandler$??1?$CSimpleArray@GV?$CSimpleArrayEqualHelper@G@ATL@@@ATL@@QAE@XZ 10000000 f   mfcs140d:nolib.obj
 0002:fffd4000       ?InitializeCAtlStringMgr$initializer$@ATLImplementationDetails@ATL@@3P6AXXZA 10000000     mfcs140d:nolib.obj
 0001:fffff000       __unwindfunclet$??0_ATL_WIN_MODULE70@ATL@@QAE@XZ$0 10000000 f   mfcs140d:nolib.obj
 0000:fffc3000       __guard_fids__             10000000     msvcrtd:thread_safe_statics.obj
 0001:fffff000       __ehhandler$??1CAtlComModule@ATL@@QAE@XZ 10000000 f   mfcs140d:nolib.obj
 0001:fffff000       __ehhandler$??1CAtlWinModule@ATL@@QAE@XZ 10000000 f   mfcs140d:nolib.obj
 0000:fffc3000       __guard_fids__             10000000     mfcs140d:nolib.obj
 0000:fffc3000       __guard_fids__             10000000     mfcs140d:stdafx.obj
 0000:fffc3000       __guard_fids__             10000000     mfcs140d:nolib.obj
 0000:fffc3000       __guard_fids__             10000000     msvcrtd:std_type_info_static.obj
 0000:fffc3000       __guard_fids__             10000000     mfcs140d:stdafx.obj
 0002:fffd4000       ?InitializeCAtlStringMgr$initializer$@ATLImplementationDetails@ATL@@3P6AXXZA 10000000     mfcs140d:stdafx.obj
 0000:fffc3000       __guard_fids__             10000000     mfcs140d:stdafx.obj
 0002:fffd4000       ?_AtlWinModule$initializer$@ATL@@3P6AXXZA 10000000     mfcs140d:stdafx.obj
 0000:fffc3000       __guard_fids__             10000000     mfcs140d:stdafx.obj
 0002:fffd4000       ?_AtlComModule$initializer$@ATL@@3P6AXXZA 10000000     mfcs140d:stdafx.obj
 0000:fffc3000       __guard_fids__             10000000     mfcs140d:stdafx.obj
 0002:fffd4000       ?atlTraceISAPI$initializer$@ATL@@3P6AXXZA 10000000     mfcs140d:stdafx.obj
 0000:fffc3000       __guard_fids__             10000000     mfcs140d:stdafx.obj
 0002:fffd4000       ?atlTraceSync$initializer$@ATL@@3P6AXXZA 10000000     mfcs140d:stdafx.obj
 0000:fffc3000       __guard_fids__             10000000     mfcs140d:stdafx.obj
 0002:fffd4000       ?atlTraceSecurity$initializer$@ATL@@3P6AXXZA 10000000     mfcs140d:stdafx.obj
 0000:fffc3000       __guard_fids__             10000000     mfcs140d:stdafx.obj
 0002:fffd4000       ?atlTraceUtil$initializer$@ATL@@3P6AXXZA 10000000     mfcs140d:stdafx.obj
 0000:fffc3000       __guard_fids__             10000000     mfcs140d:stdafx.obj
 0002:fffd4000       ?atlTraceMap$initializer$@ATL@@3P6AXXZA 10000000     mfcs140d:stdafx.obj
 0000:fffc3000       __guard_fids__             10000000     mfcs140d:stdafx.obj
 0002:fffd4000       ?atlTraceString$initializer$@ATL@@3P6AXXZA 10000000     mfcs140d:stdafx.obj
 0000:fffc3000       __guard_fids__             10000000     mfcs140d:stdafx.obj
 0002:fffd4000       ?atlTraceStencil$initializer$@ATL@@3P6AXXZA 10000000     mfcs140d:stdafx.obj
 0000:fffc3000       __guard_fids__             10000000     mfcs140d:stdafx.obj
 0002:fffd4000       ?atlTraceCache$initializer$@ATL@@3P6AXXZA 10000000     mfcs140d:stdafx.obj
 0000:fffc3000       __guard_fids__             10000000     mfcs140d:stdafx.obj
 0002:fffd4000       ?atlTraceTime$initializer$@ATL@@3P6AXXZA 10000000     mfcs140d:stdafx.obj
 0000:fffc3000       __guard_fids__             10000000     mfcs140d:stdafx.obj
 0002:fffd4000       ?atlTraceException$initializer$@ATL@@3P6AXXZA 10000000     mfcs140d:stdafx.obj
 0000:fffc3000       __guard_fids__             10000000     mfcs140d:stdafx.obj
 0002:fffd4000       ?atlTraceAllocation$initializer$@ATL@@3P6AXXZA 10000000     mfcs140d:stdafx.obj
 0000:fffc3000       __guard_fids__             10000000     mfcs140d:stdafx.obj
 0002:fffd4000       ?atlTraceNotImpl$initializer$@ATL@@3P6AXXZA 10000000     mfcs140d:stdafx.obj
 0000:fffc3000       __guard_fids__             10000000     mfcs140d:stdafx.obj
 0002:fffd4000       ?atlTraceSnapin$initializer$@ATL@@3P6AXXZA 10000000     mfcs140d:stdafx.obj
 0000:fffc3000       __guard_fids__             10000000     mfcs140d:stdafx.obj
 0002:fffd4000       ?atlTraceDBProvider$initializer$@ATL@@3P6AXXZA 10000000     mfcs140d:stdafx.obj
 0000:fffc3000       __guard_fids__             10000000     mfcs140d:stdafx.obj
 0002:fffd4000       ?atlTraceDBClient$initializer$@ATL@@3P6AXXZA 10000000     mfcs140d:stdafx.obj
 0000:fffc3000       __guard_fids__             10000000     mfcs140d:stdafx.obj
 0002:fffd4000       ?atlTraceHosting$initializer$@ATL@@3P6AXXZA 10000000     mfcs140d:stdafx.obj
 0000:fffc3000       __guard_fids__             10000000     mfcs140d:stdafx.obj
 0002:fffd4000       ?atlTraceControls$initializer$@ATL@@3P6AXXZA 10000000     mfcs140d:stdafx.obj
 0000:fffc3000       __guard_fids__             10000000     mfcs140d:stdafx.obj
 0002:fffd4000       ?atlTraceWindowing$initializer$@ATL@@3P6AXXZA 10000000     mfcs140d:stdafx.obj
 0000:fffc3000       __guard_fids__             10000000     mfcs140d:stdafx.obj
 0002:fffd4000       ?atlTraceRefcount$initializer$@ATL@@3P6AXXZA 10000000     mfcs140d:stdafx.obj
 0000:fffc3000       __guard_fids__             10000000     mfcs140d:stdafx.obj
 0002:fffd4000       ?atlTraceRegistrar$initializer$@ATL@@3P6AXXZA 10000000     mfcs140d:stdafx.obj
 0000:fffc3000       __guard_fids__             10000000     mfcs140d:stdafx.obj
 0002:fffd4000       ?atlTraceQI$initializer$@ATL@@3P6AXXZA 10000000     mfcs140d:stdafx.obj
 0000:fffc3000       __guard_fids__             10000000     mfcs140d:stdafx.obj
 0002:fffd4000       ?atlTraceCOM$initializer$@ATL@@3P6AXXZA 10000000     mfcs140d:stdafx.obj
 0000:fffc3000       __guard_fids__             10000000     mfcs140d:stdafx.obj
 0000:fffc3000       __guard_fids__             10000000     mfcs140d:stdafx.obj
 0000:fffc3000       __guard_fids__             10000000     mfcs140d:stdafx.obj
 0000:fffc3000       __guard_fids__             10000000     mfcs140d:stdafx.obj
 0000:fffc3000       __guard_fids__             10000000     mfcs140d:stdafx.obj
 0000:fffc3000       __guard_fids__             10000000     mfcs140d:stdafx.obj
 0002:fffd4000       ?atlTraceGeneral$initializer$@ATL@@3P6AXXZA 10000000     mfcs140d:stdafx.obj
 0002:fffd4000       ?atlTraceRefcount$initializer$@ATL@@3P6AXXZA 10000000     mfcs140d:nolib.obj
 0000:fffc3000       __guard_fids__             10000000     mfcs140d:nolib.obj
 0002:fffd4000       __ehfuncinfo$??_Estringdispid@CComTypeInfoHolder@ATL@@QAEPAXI@Z 10000000     mfcs140d:stdafx.obj
 0000:fffc3000       __guard_fids_??_Estringdispid@CComTypeInfoHolder@ATL@@QAEPAXI@Z 10000000     mfcs140d:stdafx.obj
 0000:fffc3000       __guard_fids_?GetInstance@CAtlStringMgr@ATL@@SAPAUIAtlStringMgr@2@XZ 10000000     mfcs140d:stdafx.obj
 0000:fffc3000       __guard_fids_??__E_AtlWinModule@ATL@@YAXXZ 10000000     mfcs140d:stdafx.obj
 0002:fffd4000       __ehfuncinfo$??1CAtlWinModule@ATL@@QAE@XZ 10000000     mfcs140d:stdafx.obj
 0000:fffc3000       __guard_fids_??__E_AtlComModule@ATL@@YAXXZ 10000000     mfcs140d:stdafx.obj
 0002:fffd4000       __ehfuncinfo$??1CAtlComModule@ATL@@QAE@XZ 10000000     mfcs140d:stdafx.obj
 0002:fffd4000       __unwindtable$??0_ATL_WIN_MODULE70@ATL@@QAE@XZ 10000000     mfcs140d:stdafx.obj
 0002:fffd4000       ?atlTraceRegistrar$initializer$@ATL@@3P6AXXZA 10000000     mfcs140d:nolib.obj
 0002:fffd4000       __ehfuncinfo$??1?$CSimpleArray@GV?$CSimpleArrayEqualHelper@G@ATL@@@ATL@@QAE@XZ 10000000     mfcs140d:stdafx.obj
 0002:fffd4000       __unwindtable$??RCTraceFileAndLineInfo@ATL@@QBAXHIPBDZZ 10000000     mfcs140d:stdafx.obj
 0000:fffc3000       __guard_fids__             10000000     mfcs140d:nolib.obj
 0002:fffd4000       __unwindtable$?TraceV@CTrace@ATL@@SAXPBDHII0PAD@Z 10000000     mfcs140d:stdafx.obj
 0002:fffd4000       ?atlTraceQI$initializer$@ATL@@3P6AXXZA 10000000     mfcs140d:nolib.obj
 0002:fffd4000       __sehtable$_IsolationAwareUnregisterClassA@8 10000000     mfcs140d:stdafx.obj
 0002:fffd4000       __sehtable$_WinbaseIsolationAwarePrivatetRgzlnPgpgk@0 10000000     mfcs140d:stdafx.obj
 0001:fffff000       __ehhandler$??_Estringdispid@CComTypeInfoHolder@ATL@@QAEPAXI@Z 10000000 f   mfcs140d:stdafx.obj
 0000:fffc3000       __guard_fids__             10000000     mfcs140d:nolib.obj
 0002:fffd4000       ?atlTraceCOM$initializer$@ATL@@3P6AXXZA 10000000     mfcs140d:nolib.obj
 0000:fffc3000       __guard_fids__             10000000     mfcs140d:nolib.obj
 0000:fffc3000       __guard_fids__             10000000     mfcs140d:nolib.obj
 0000:fffc3000       __guard_fids__             10000000     mfcs140d:nolib.obj
 0000:fffc3000       __guard_fids__             10000000     mfcs140d:nolib.obj
 0000:fffc3000       __guard_fids__             10000000     mfcs140d:nolib.obj
 0000:fffc3000       __guard_fids__             10000000     mfcs140d:nolib.obj
 0001:fffff000       __ehhandler$??1CAtlWinModule@ATL@@QAE@XZ 10000000 f   mfcs140d:stdafx.obj
 0001:fffff000       __ehhandler$??1CAtlComModule@ATL@@QAE@XZ 10000000 f   mfcs140d:stdafx.obj
 0001:fffff000       __unwindfunclet$??0_ATL_WIN_MODULE70@ATL@@QAE@XZ$0 10000000 f   mfcs140d:stdafx.obj
 0002:fffd4000       ?atlTraceGeneral$initializer$@ATL@@3P6AXXZA 10000000     mfcs140d:nolib.obj
 0001:fffff000       __ehhandler$??1?$CSimpleArray@GV?$CSimpleArrayEqualHelper@G@ATL@@@ATL@@QAE@XZ 10000000 f   mfcs140d:stdafx.obj
 0001:fffff000       __unwindfunclet$??RCTraceFileAndLineInfo@ATL@@QBAXHIPBDZZ$0 10000000 f   mfcs140d:stdafx.obj
 0000:fffc3000       __guard_fids_??_Estringdispid@CComTypeInfoHolder@ATL@@QAEPAXI@Z 10000000     mfcs140d:nolib.obj
 0000:fffc3000       __guard_fids_?GetInstance@CAtlStringMgr@ATL@@SAPAUIAtlStringMgr@2@XZ 10000000     mfcs140d:nolib.obj
 0000:fffc3000       __guard_fids_??__E_AtlWinModule@ATL@@YAXXZ 10000000     mfcs140d:nolib.obj
 0002:fffd4000       __ehfuncinfo$??1CAtlWinModule@ATL@@QAE@XZ 10000000     mfcs140d:nolib.obj
 0000:fffc3000       __guard_fids_??__E_AtlComModule@ATL@@YAXXZ 10000000     mfcs140d:nolib.obj
 0002:fffd4000       __ehfuncinfo$??1CAtlComModule@ATL@@QAE@XZ 10000000     mfcs140d:nolib.obj
 0002:fffd4000       __unwindtable$??0_ATL_WIN_MODULE70@ATL@@QAE@XZ 10000000     mfcs140d:nolib.obj
 0002:fffd4000       __ehfuncinfo$??1?$CSimpleArray@GV?$CSimpleArrayEqualHelper@G@ATL@@@ATL@@QAE@XZ 10000000     mfcs140d:nolib.obj
 0002:fffd4000       __unwindtable$??RCTraceFileAndLineInfo@ATL@@QBAXHIPBDZZ 10000000     mfcs140d:nolib.obj
 0002:fffd4000       __unwindtable$?TraceV@CTrace@ATL@@SAXPBDHII0PAD@Z 10000000     mfcs140d:nolib.obj
 0001:fffff000       __unwindfunclet$?TraceV@CTrace@ATL@@SAXPBDHII0PAD@Z$0 10000000 f   mfcs140d:stdafx.obj
 0002:fffd4008       __ehfuncinfo$??0_ATL_WIN_MODULE70@ATL@@QAE@XZ 10000008     mfcs140d:stdafx.obj
 0002:fffd4008       __ehfuncinfo$??RCTraceFileAndLineInfo@ATL@@QBAXHIPBDZZ 10000008     mfcs140d:stdafx.obj
 0001:fffff008       __unwindfunclet$?TraceV@CTrace@ATL@@SAXPBDHII0PAD@Z$1 10000008 f   mfcs140d:stdafx.obj
 0002:fffd4008       __ehfuncinfo$??RCTraceFileAndLineInfo@ATL@@QBAXHIPBDZZ 10000008     LockTimeMatch.obj
 0002:fffd4008       __ehfuncinfo$??0_ATL_WIN_MODULE70@ATL@@QAE@XZ 10000008     mfcs140d:nolib.obj
 0001:fffff008       __ehhandler$??RCTraceFileAndLineInfo@ATL@@QBAXHIPBDZZ 10000008 f   LockTimeMatch.obj
 0001:fffff008       __unwindfunclet$?TraceV@CTrace@ATL@@SAXPBDHII0PAD@Z$1 10000008 f   LockTimeMatch.obj
 0001:fffff008       __ehhandler$??RCTraceFileAndLineInfo@ATL@@QBAXHIPBDZZ 10000008 f   mfcs140d:stdafx.obj
 0001:fffff008       __ehhandler$??RCTraceFileAndLineInfo@ATL@@QBAXHIPBDZZ 10000008 f   mfcs140d:nolib.obj
 0001:fffff008       __unwindfunclet$?TraceV@CTrace@ATL@@SAXPBDHII0PAD@Z$1 10000008 f   mfcs140d:nolib.obj
 0001:fffff008       __unwindfunclet$?TraceV@CTrace@ATL@@SAXPBDHII0PAD@Z$1 10000008 f   Stdafx.obj
 0001:fffff008       __ehhandler$??RCTraceFileAndLineInfo@ATL@@QBAXHIPBDZZ 10000008 f   Stdafx.obj
 0001:fffff008       __ehhandler$??RCTraceFileAndLineInfo@ATL@@QBAXHIPBDZZ 10000008 f   ImmediateMatch.obj
 0002:fffd4008       __ehfuncinfo$??RCTraceFileAndLineInfo@ATL@@QBAXHIPBDZZ 10000008     Stdafx.obj
 0002:fffd4008       __ehfuncinfo$??RCTraceFileAndLineInfo@ATL@@QBAXHIPBDZZ 10000008     ImmediateMatch.obj
 0001:fffff008       __unwindfunclet$?TraceV@CTrace@ATL@@SAXPBDHII0PAD@Z$1 10000008 f   ImmediateMatch.obj
 0002:fffd4008       __ehfuncinfo$??RCTraceFileAndLineInfo@ATL@@QBAXHIPBDZZ 10000008     mfcs140d:nolib.obj
 0001:fffff00b       __ehhandler$??0_ATL_WIN_MODULE70@ATL@@QAE@XZ 1000000b f   mfcs140d:nolib.obj
 0001:fffff00b       __ehhandler$??0_ATL_WIN_MODULE70@ATL@@QAE@XZ 1000000b f   mfcs140d:stdafx.obj
 0001:fffff010       __ehhandler$?TraceV@CTrace@ATL@@SAXPBDHII0PAD@Z 10000010 f   Stdafx.obj
 0002:fffd4010       __ehfuncinfo$?TraceV@CTrace@ATL@@SAXPBDHII0PAD@Z 10000010     Stdafx.obj
 0001:fffff010       __ehhandler$?TraceV@CTrace@ATL@@SAXPBDHII0PAD@Z 10000010 f   mfcs140d:stdafx.obj
 0002:fffd4010       __ehfuncinfo$?TraceV@CTrace@ATL@@SAXPBDHII0PAD@Z 10000010     ImmediateMatch.obj
 0001:fffff010       __ehhandler$?TraceV@CTrace@ATL@@SAXPBDHII0PAD@Z 10000010 f   mfcs140d:nolib.obj
 0001:fffff010       __ehhandler$?TraceV@CTrace@ATL@@SAXPBDHII0PAD@Z 10000010 f   LockTimeMatch.obj
 0002:fffd4010       __ehfuncinfo$?TraceV@CTrace@ATL@@SAXPBDHII0PAD@Z 10000010     mfcs140d:stdafx.obj
 0002:fffd4010       __ehfuncinfo$?TraceV@CTrace@ATL@@SAXPBDHII0PAD@Z 10000010     mfcs140d:nolib.obj
 0002:fffd4010       __ehfuncinfo$?TraceV@CTrace@ATL@@SAXPBDHII0PAD@Z 10000010     LockTimeMatch.obj
 0001:fffff010       __ehhandler$?TraceV@CTrace@ATL@@SAXPBDHII0PAD@Z 10000010 f   ImmediateMatch.obj
 0001:fffff068       $LN6                       10000068     mfcs140d:nolib.obj
 0001:fffff068       $LN6                       10000068     mfcs140d:stdafx.obj
 0001:fffff068       $LN6                       10000068     mfcs140d:stdafx.obj
 0001:fffff068       $LN6                       10000068     mfcs140d:nolib.obj
 0001:fffff070       $LN5                       10000070     mfcs140d:stdafx.obj
 0001:fffff070       $LN5                       10000070     mfcs140d:nolib.obj
 0001:fffff070       $LN5                       10000070     mfcs140d:stdafx.obj
 0001:fffff070       $LN5                       10000070     mfcs140d:nolib.obj
 0001:fffff07c       $LN4                       1000007c     mfcs140d:nolib.obj
 0001:fffff07c       $LN4                       1000007c     mfcs140d:stdafx.obj
 0001:fffff07c       $LN4                       1000007c     mfcs140d:stdafx.obj
 0001:fffff07c       $LN4                       1000007c     mfcs140d:nolib.obj
 0001:fffff0b4       $LN7                       100000b4     mfcs140d:stdafx.obj
 0001:fffff0b4       $LN7                       100000b4     mfcs140d:nolib.obj
 0001:fffff0bc       $LN6                       100000bc     mfcs140d:nolib.obj
 0001:fffff0bc       $LN6                       100000bc     mfcs140d:stdafx.obj
 0001:fffff0c8       $LN4                       100000c8     mfcs140d:nolib.obj
 0001:fffff0c8       $LN4                       100000c8     mfcs140d:stdafx.obj
 0001:fffff11c       $LN8                       1000011c     mfcs140d:stdafx.obj
 0001:fffff11c       $LN8                       1000011c     mfcs140d:nolib.obj
 0001:fffff124       $LN7                       10000124     mfcs140d:stdafx.obj
 0001:fffff124       $LN7                       10000124     mfcs140d:nolib.obj
 0001:fffff130       $LN6                       10000130     mfcs140d:stdafx.obj
 0001:fffff130       $LN6                       10000130     mfcs140d:nolib.obj
 0001:fffff16c       $LN22                      1000016c     mfcs140d:stdafx.obj
 0001:fffff174       $LN21                      10000174     mfcs140d:stdafx.obj
 0001:fffff18c       $LN20                      1000018c     mfcs140d:stdafx.obj
 0001:fffff196       $LN19                      10000196     mfcs140d:stdafx.obj
 0001:fffff1d0       $LN24                      100001d0     mfcs140d:stdafx.obj
 0001:fffff1d0       $LN24                      100001d0     mfcs140d:nolib.obj
 0001:fffff1d8       $LN23                      100001d8     mfcs140d:stdafx.obj
 0001:fffff1d8       $LN23                      100001d8     mfcs140d:nolib.obj
 0001:fffff1f0       $LN22                      100001f0     mfcs140d:stdafx.obj
 0001:fffff1f0       $LN25                      100001f0     mfcs140d:stdafx.obj
 0001:fffff1f0       $LN22                      100001f0     mfcs140d:nolib.obj
 0001:fffff1f0       $LN25                      100001f0     mfcs140d:nolib.obj
 0001:fffff1f8       $LN14                      100001f8     mfcs140d:nolib.obj
 0001:fffff1f8       $LN14                      100001f8     mfcs140d:stdafx.obj
 0001:fffff1f8       $LN24                      100001f8     mfcs140d:stdafx.obj
 0001:fffff1f8       $LN24                      100001f8     mfcs140d:nolib.obj
 0001:fffff1fb       $LN21                      100001fb     mfcs140d:nolib.obj
 0001:fffff1fb       $LN21                      100001fb     mfcs140d:stdafx.obj
 0001:fffff200       $LN13                      10000200     mfcs140d:stdafx.obj
 0001:fffff200       $LN13                      10000200     mfcs140d:nolib.obj
 0001:fffff210       $LN23                      10000210     mfcs140d:stdafx.obj
 0001:fffff210       $LN23                      10000210     mfcs140d:nolib.obj
 0001:fffff218       $LN11                      10000218     mfcs140d:stdafx.obj
 0001:fffff218       $LN11                      10000218     mfcs140d:nolib.obj
 0001:fffff21b       $LN22                      1000021b     mfcs140d:nolib.obj
 0001:fffff21b       $LN22                      1000021b     mfcs140d:stdafx.obj
 0001:fffff21f       $LN10                      1000021f     mfcs140d:nolib.obj
 0001:fffff21f       $LN10                      1000021f     mfcs140d:stdafx.obj
 0001:fffff250       $LN17                      10000250     mfcs140d:stdafx.obj
 0001:fffff250       $LN17                      10000250     mfcs140d:nolib.obj
 0001:fffff258       $LN16                      10000258     mfcs140d:stdafx.obj
 0001:fffff258       $LN16                      10000258     mfcs140d:nolib.obj
 0001:fffff27c       $LN15                      1000027c     mfcs140d:stdafx.obj
 0001:fffff27c       $LN15                      1000027c     mfcs140d:nolib.obj
 0001:fffff285       $LN14                      10000285     mfcs140d:stdafx.obj
 0001:fffff285       $LN14                      10000285     mfcs140d:nolib.obj
 0001:fffff28c       $LN13                      1000028c     mfcs140d:nolib.obj
 0001:fffff28c       $LN13                      1000028c     mfcs140d:stdafx.obj
 0001:fffff2cc       $LN36                      100002cc     mfcs140d:stdafx.obj
 0001:fffff2d4       $LN35                      100002d4     mfcs140d:stdafx.obj
 0001:fffff31c       $LN34                      1000031c     mfcs140d:stdafx.obj
 0001:fffff333       $LN33                      10000333     mfcs140d:stdafx.obj
 0001:fffff33c       $LN32                      1000033c     mfcs140d:stdafx.obj
 0001:fffff34f       $LN31                      1000034f     mfcs140d:stdafx.obj
 0001:fffff356       $LN30                      10000356     mfcs140d:stdafx.obj
 0001:fffff360       $LN29                      10000360     mfcs140d:stdafx.obj
 0001:00001be0       ??__EatlTraceException@ATL@@YAXXZ 10002be0 f   ImmediateGroup.obj
 0001:00001c10       ??__EatlTraceException@ATL@@YAXXZ 10002c10 f   ImmediateMatch.obj
 0001:00001c40       ??__EatlTraceException@ATL@@YAXXZ 10002c40 f   LockTimeMatch.obj
 0001:00001c70       ??__EInitializeCAtlStringMgr@ATLImplementationDetails@ATL@@YAXXZ 10002c70 f   Stdafx.obj
 0001:00001c90       ??__E_AtlComModule@ATL@@YAXXZ 10002c90 f   Stdafx.obj
 0001:00001cc0       ??__E_AtlWinModule@ATL@@YAXXZ 10002cc0 f   Stdafx.obj
 0001:00001cf0       ??__EatlTraceAllocation@ATL@@YAXXZ 10002cf0 f   Stdafx.obj
 0001:00001d20       ??__EatlTraceCOM@ATL@@YAXXZ 10002d20 f   Stdafx.obj
 0001:00001d50       ??__EatlTraceCache@ATL@@YAXXZ 10002d50 f   Stdafx.obj
 0001:00001d80       ??__EatlTraceControls@ATL@@YAXXZ 10002d80 f   Stdafx.obj
 0001:00001db0       ??__EatlTraceDBClient@ATL@@YAXXZ 10002db0 f   Stdafx.obj
 0001:00001de0       ??__EatlTraceDBProvider@ATL@@YAXXZ 10002de0 f   Stdafx.obj
 0001:00001e10       ??__EatlTraceException@ATL@@YAXXZ 10002e10 f   Stdafx.obj
 0001:00001e40       ??__EatlTraceGeneral@ATL@@YAXXZ 10002e40 f   Stdafx.obj
 0001:00001e70       ??__EatlTraceHosting@ATL@@YAXXZ 10002e70 f   Stdafx.obj
 0001:00001ea0       ??__EatlTraceISAPI@ATL@@YAXXZ 10002ea0 f   Stdafx.obj
 0001:00001ed0       ??__EatlTraceMap@ATL@@YAXXZ 10002ed0 f   Stdafx.obj
 0001:00001f00       ??__EatlTraceNotImpl@ATL@@YAXXZ 10002f00 f   Stdafx.obj
 0001:00001f30       ??__EatlTraceQI@ATL@@YAXXZ 10002f30 f   Stdafx.obj
 0001:00001f60       ??__EatlTraceRefcount@ATL@@YAXXZ 10002f60 f   Stdafx.obj
 0001:00001f90       ??__EatlTraceRegistrar@ATL@@YAXXZ 10002f90 f   Stdafx.obj
 0001:00001fc0       ??__EatlTraceSecurity@ATL@@YAXXZ 10002fc0 f   Stdafx.obj
 0001:00001ff0       ??__EatlTraceSnapin@ATL@@YAXXZ 10002ff0 f   Stdafx.obj
 0001:00002020       ??__EatlTraceStencil@ATL@@YAXXZ 10003020 f   Stdafx.obj
 0001:00002050       ??__EatlTraceString@ATL@@YAXXZ 10003050 f   Stdafx.obj
 0001:00002080       ??__EatlTraceSync@ATL@@YAXXZ 10003080 f   Stdafx.obj
 0001:000020b0       ??__EatlTraceTime@ATL@@YAXXZ 100030b0 f   Stdafx.obj
 0001:000020e0       ??__EatlTraceUtil@ATL@@YAXXZ 100030e0 f   Stdafx.obj
 0001:00002110       ??__EatlTraceWindowing@ATL@@YAXXZ 10003110 f   Stdafx.obj
 0001:00002140       ??__EInitializeCAtlStringMgr@ATLImplementationDetails@ATL@@YAXXZ 10003140 f   mfcs140d:nolib.obj
 0001:00002160       ??__E_AtlComModule@ATL@@YAXXZ 10003160 f   mfcs140d:nolib.obj
 0001:00002190       ??__E_AtlWinModule@ATL@@YAXXZ 10003190 f   mfcs140d:nolib.obj
 0001:000021c0       ??__EatlTraceAllocation@ATL@@YAXXZ 100031c0 f   mfcs140d:nolib.obj
 0001:000021f0       ??__EatlTraceCOM@ATL@@YAXXZ 100031f0 f   mfcs140d:nolib.obj
 0001:00002220       ??__EatlTraceCache@ATL@@YAXXZ 10003220 f   mfcs140d:nolib.obj
 0001:00002250       ??__EatlTraceControls@ATL@@YAXXZ 10003250 f   mfcs140d:nolib.obj
 0001:00002280       ??__EatlTraceDBClient@ATL@@YAXXZ 10003280 f   mfcs140d:nolib.obj
 0001:000022b0       ??__EatlTraceDBProvider@ATL@@YAXXZ 100032b0 f   mfcs140d:nolib.obj
 0001:000022e0       ??__EatlTraceException@ATL@@YAXXZ 100032e0 f   mfcs140d:nolib.obj
 0001:00002310       ??__EatlTraceGeneral@ATL@@YAXXZ 10003310 f   mfcs140d:nolib.obj
 0001:00002340       ??__EatlTraceHosting@ATL@@YAXXZ 10003340 f   mfcs140d:nolib.obj
 0001:00002370       ??__EatlTraceISAPI@ATL@@YAXXZ 10003370 f   mfcs140d:nolib.obj
 0001:000023a0       ??__EatlTraceMap@ATL@@YAXXZ 100033a0 f   mfcs140d:nolib.obj
 0001:000023d0       ??__EatlTraceNotImpl@ATL@@YAXXZ 100033d0 f   mfcs140d:nolib.obj
 0001:00002400       ??__EatlTraceQI@ATL@@YAXXZ 10003400 f   mfcs140d:nolib.obj
 0001:00002430       ??__EatlTraceRefcount@ATL@@YAXXZ 10003430 f   mfcs140d:nolib.obj
 0001:00002460       ??__EatlTraceRegistrar@ATL@@YAXXZ 10003460 f   mfcs140d:nolib.obj
 0001:00002490       ??__EatlTraceSecurity@ATL@@YAXXZ 10003490 f   mfcs140d:nolib.obj
 0001:000024c0       ??__EatlTraceSnapin@ATL@@YAXXZ 100034c0 f   mfcs140d:nolib.obj
 0001:000024f0       ??__EatlTraceStencil@ATL@@YAXXZ 100034f0 f   mfcs140d:nolib.obj
 0001:00002520       ??__EatlTraceString@ATL@@YAXXZ 10003520 f   mfcs140d:nolib.obj
 0001:00002550       ??__EatlTraceSync@ATL@@YAXXZ 10003550 f   mfcs140d:nolib.obj
 0001:00002580       ??__EatlTraceTime@ATL@@YAXXZ 10003580 f   mfcs140d:nolib.obj
 0001:000025b0       ??__EatlTraceUtil@ATL@@YAXXZ 100035b0 f   mfcs140d:nolib.obj
 0001:000025e0       ??__EatlTraceWindowing@ATL@@YAXXZ 100035e0 f   mfcs140d:nolib.obj
 0001:00002610       ??__EInitializeCAtlStringMgr@ATLImplementationDetails@ATL@@YAXXZ 10003610 f   mfcs140d:stdafx.obj
 0001:00002630       ??__E_AtlComModule@ATL@@YAXXZ 10003630 f   mfcs140d:stdafx.obj
 0001:00002660       ??__E_AtlWinModule@ATL@@YAXXZ 10003660 f   mfcs140d:stdafx.obj
 0001:00002690       ??__EatlTraceAllocation@ATL@@YAXXZ 10003690 f   mfcs140d:stdafx.obj
 0001:000026c0       ??__EatlTraceCOM@ATL@@YAXXZ 100036c0 f   mfcs140d:stdafx.obj
 0001:000026f0       ??__EatlTraceCache@ATL@@YAXXZ 100036f0 f   mfcs140d:stdafx.obj
 0001:00002720       ??__EatlTraceControls@ATL@@YAXXZ 10003720 f   mfcs140d:stdafx.obj
 0001:00002750       ??__EatlTraceDBClient@ATL@@YAXXZ 10003750 f   mfcs140d:stdafx.obj
 0001:00002780       ??__EatlTraceDBProvider@ATL@@YAXXZ 10003780 f   mfcs140d:stdafx.obj
 0001:000027b0       ??__EatlTraceException@ATL@@YAXXZ 100037b0 f   mfcs140d:stdafx.obj
 0001:000027e0       ??__EatlTraceGeneral@ATL@@YAXXZ 100037e0 f   mfcs140d:stdafx.obj
 0001:00002810       ??__EatlTraceHosting@ATL@@YAXXZ 10003810 f   mfcs140d:stdafx.obj
 0001:00002840       ??__EatlTraceISAPI@ATL@@YAXXZ 10003840 f   mfcs140d:stdafx.obj
 0001:00002870       ??__EatlTraceMap@ATL@@YAXXZ 10003870 f   mfcs140d:stdafx.obj
 0001:000028a0       ??__EatlTraceNotImpl@ATL@@YAXXZ 100038a0 f   mfcs140d:stdafx.obj
 0001:000028d0       ??__EatlTraceQI@ATL@@YAXXZ 100038d0 f   mfcs140d:stdafx.obj
 0001:00002900       ??__EatlTraceRefcount@ATL@@YAXXZ 10003900 f   mfcs140d:stdafx.obj
 0001:00002930       ??__EatlTraceRegistrar@ATL@@YAXXZ 10003930 f   mfcs140d:stdafx.obj
 0001:00002960       ??__EatlTraceSecurity@ATL@@YAXXZ 10003960 f   mfcs140d:stdafx.obj
 0001:00002990       ??__EatlTraceSnapin@ATL@@YAXXZ 10003990 f   mfcs140d:stdafx.obj
 0001:000029c0       ??__EatlTraceStencil@ATL@@YAXXZ 100039c0 f   mfcs140d:stdafx.obj
 0001:000029f0       ??__EatlTraceString@ATL@@YAXXZ 100039f0 f   mfcs140d:stdafx.obj
 0001:00002a20       ??__EatlTraceSync@ATL@@YAXXZ 10003a20 f   mfcs140d:stdafx.obj
 0001:00002a50       ??__EatlTraceTime@ATL@@YAXXZ 10003a50 f   mfcs140d:stdafx.obj
 0001:00002a80       ??__EatlTraceUtil@ATL@@YAXXZ 10003a80 f   mfcs140d:stdafx.obj
 0001:00002ab0       ??__EatlTraceWindowing@ATL@@YAXXZ 10003ab0 f   mfcs140d:stdafx.obj
 0001:00002ad1       ??__E_AtlBaseModule@ATL@@YAXXZ 10003ad1 f   atls:atlbase.obj
 0001:00004e09       __catch$??1CDistributeManager@@UAE@XZ$0 10005e09 f   DistributeManager.obj
 0001:00004fab       __catch$??1CDistributeNodePool@@QAE@XZ$0 10005fab f   DistributeManager.obj
 0001:00005475       __catch$?ActiveSameTableInfo@CDistributeManager@@IAEPAUtagSameTableInfo@@XZ$0 10006475 f   DistributeManager.obj
 0001:00007a80       _time                      10008a80 f   DistributeManager.obj
 0001:00008967       __catch$??1CImmediateGroup@@UAE@XZ$0 10009967 f   ImmediateGroup.obj
 0001:0000906c       __catch$?AllKillMatchTimer@CImmediateGroup@@IAEXXZ$0 1000a06c f   ImmediateGroup.obj
 0001:0000b4ed       __catch$?KillMatchTimer@CImmediateGroup@@IAE_NH@Z$0 1000c4ed f   ImmediateGroup.obj
 0001:0000b660       __catch$?KillMatchTimer@CImmediateGroup@@IAE_NKI@Z$0 1000c660 f   ImmediateGroup.obj
 0001:0000bd69       __catch$?OnEventGameEnd@CImmediateGroup@@UAE_NPAUITableFrame@@GPAUIServerUserItem@@E@Z$0 1000cd69 f   ImmediateGroup.obj
 0001:0000c14c       $LN11                      1000d14c     ImmediateGroup.obj
 0001:0000ee60       _time                      1000fe60 f   ImmediateGroup.obj
 0001:0000f501       __catch$??1CImmediateMatch@@UAE@XZ$0 10010501 f   ImmediateMatch.obj
 0001:0000f582       __catch$??1CImmediateMatch@@UAE@XZ$2 10010582 f   ImmediateMatch.obj
 0001:0000f63e       __catch$??1CImmediateMatch@@UAE@XZ$4 1001063e f   ImmediateMatch.obj
 0001:0001038a       __catch$?DeleteUserItem@CImmediateMatch@@AAE_NK@Z$0 1001138a f   ImmediateMatch.obj
 0001:000118cf       __catch$?OnEventDataBase@CImmediateMatch@@UAE_NGPAUIServerUserItem@@PAXGK@Z$0 100128cf f   ImmediateMatch.obj
 0001:000119cc       $LN70                      100129cc     ImmediateMatch.obj
 0001:00012736       __catch$?OnEventTimer@CImmediateMatch@@UAE_NKI@Z$0 10013736 f   ImmediateMatch.obj
 0001:000158d0       _time                      100168d0 f   ImmediateMatch.obj
 0001:00016141       __catch$??1CLockTimeMatch@@UAE@XZ$0 10017141 f   LockTimeMatch.obj
 0001:00018074       $LN70                      10019074     LockTimeMatch.obj
 0001:000193dc       $LN24                      1001a3dc     LockTimeMatch.obj
 0001:000193f0       $LN21                      1001a3f0     LockTimeMatch.obj
 0001:0001a1fc       $LN51                      1001b1fc     LockTimeMatch.obj
 0001:0001dc50       _time                      1001ec50 f   LockTimeMatch.obj
 0001:0001dd61       __catch$??1CMatchServiceManager@@UAE@XZ$0 1001ed61 f   MatchServiceManager.obj
 0001:0001dfb1       __catch$?CreateGameMatch@CMatchServiceManager@@UAE_NE@Z$0 1001efb1 f   MatchServiceManager.obj
 0001:0001e92d       __catch$_CreateMatchServiceManager$0 1001f92d f   MatchServiceManager.obj
 0001:0001e979       __catch$_CreateMatchServiceManager$2 1001f979 f   MatchServiceManager.obj
 0001:00021b6c       $LN22                      10022b6c     mfcs140d:nolib.obj
 0001:00021b74       $LN21                      10022b74     mfcs140d:nolib.obj
 0001:00021b8c       $LN20                      10022b8c     mfcs140d:nolib.obj
 0001:00021b96       $LN19                      10022b96     mfcs140d:nolib.obj
 0001:00021f0c       $LN36                      10022f0c     mfcs140d:nolib.obj
 0001:00021f14       $LN35                      10022f14     mfcs140d:nolib.obj
 0001:00021f5c       $LN34                      10022f5c     mfcs140d:nolib.obj
 0001:00021f73       $LN33                      10022f73     mfcs140d:nolib.obj
 0001:00021f7c       $LN32                      10022f7c     mfcs140d:nolib.obj
 0001:00021f8f       $LN31                      10022f8f     mfcs140d:nolib.obj
 0001:00021f96       $LN30                      10022f96     mfcs140d:nolib.obj
 0001:00021fa0       $LN29                      10022fa0     mfcs140d:nolib.obj
 0001:00022260       ?ArrayUnwindFilter@@YAHPAU_EXCEPTION_POINTERS@@@Z 10023260 f   msvcrtd:ehvecdtr.obj
 0001:000223a0       ?__scrt_initialize_thread_safe_statics@@YAHXZ 100233a0 f   msvcrtd:thread_safe_statics.obj
 0001:000224d0       ?__scrt_initialize_thread_safe_statics_platform_specific@@YAXXZ 100234d0 f   msvcrtd:thread_safe_statics.obj
 0001:00022670       ?__scrt_uninitialize_thread_safe_statics@@YAXXZ 10023670 f   msvcrtd:thread_safe_statics.obj
 0001:00022990       $$000000                   10023990     msvcrtd:llmul.obj
 0001:000229e0       $$000000                   100239e0     msvcrtd:llshl.obj
 0001:00022a10       $$000000                   10023a10     msvcrtd:lldiv.obj
 0001:00022b80       ?find_pe_section@@YAPAU_IMAGE_SECTION_HEADER@@QAEI@Z 10023b80 f   msvcrtd:utility.obj
 0001:00022c40       ?is_potentially_valid_image_base@@YA_NQAX@Z 10023c40 f   msvcrtd:utility.obj
 0001:00023380       ?dllmain_crt_dispatch@@YGHQAUHINSTANCE__@@KQAX@Z 10024380 f   msvcrtd:dll_dllmain.obj
 0001:000233ec       $LN11                      100243ec     msvcrtd:dll_dllmain.obj
 0001:00023420       ?dllmain_crt_process_attach@@YAHQAUHINSTANCE__@@QAX@Z 10024420 f   msvcrtd:dll_dllmain.obj
 0001:000235f0       ?dllmain_crt_process_detach@@YAH_N@Z 100245f0 f   msvcrtd:dll_dllmain.obj
 0001:00023700       ?dllmain_dispatch@@YAHQAUHINSTANCE__@@KQAX@Z 10024700 f   msvcrtd:dll_dllmain.obj
 0001:000238f0       ?dllmain_raw@@YGHQAUHINSTANCE__@@KQAX@Z 100248f0 f   msvcrtd:dll_dllmain.obj
 0001:00024860       ___get_entropy             10025860 f   msvcrtd:gs_support.obj
 0001:00024ac0       ?DebuggerProbe@@YA_NK@Z    10025ac0 f   msvcrtd:error.obj
 0001:00024b10       ?DebuggerRuntime@@YA_NKHPAXPB_W@Z 10025b10 f   msvcrtd:error.obj
 0001:00024de0       ?_getMemBlockDataString@@YAXPAD0PBDI@Z 10025de0 f   msvcrtd:error.obj
 0001:00024e70       ?_strlen_priv@@YAIPBD@Z    10025e70 f   msvcrtd:error.obj
 0001:00024e90       ?failwithmessage@@YAXPAXHHPBD@Z 10025e90 f   msvcrtd:error.obj
 0001:00025110       ?notify_debugger@@YAXABUtagEXCEPTION_VISUALCPP_DEBUG_INFO@@@Z 10026110 f   msvcrtd:error.obj
 0001:000253e0       ?GetPdbDll@@YAPAUHINSTANCE__@@XZ 100263e0 f   msvcrtd:pdblkup.obj
 0001:00025570       ?GetPdbDllFromInstallPath@@YAPAUHINSTANCE__@@XZ 10026570 f   msvcrtd:pdblkup.obj
 0001:00025860       ?GetPdbDllPathFromFilePath@@YAHPB_WPA_WI@Z 10026860 f   msvcrtd:pdblkup.obj
 0001:00026402       _memmove_s                 10027402 f   atls:atlbase.obj
 0001:00027de0       __unwindfunclet$??0?$CMap@KKPAUtagSameTableInfo@@PAU1@@@QAE@H@Z$0 10028de0 f   DistributeManager.obj
 0001:00027de8       __ehhandler$??0?$CMap@KKPAUtagSameTableInfo@@PAU1@@@QAE@H@Z 10028de8 f   DistributeManager.obj
 0001:00027e10       __unwindfunclet$??0CDistributeManager@@QAE@XZ$0 10028e10 f   DistributeManager.obj
 0001:00027e1b       __unwindfunclet$??0CDistributeManager@@QAE@XZ$1 10028e1b f   DistributeManager.obj
 0001:00027e26       __unwindfunclet$??0CDistributeManager@@QAE@XZ$2 10028e26 f   DistributeManager.obj
 0001:00027e31       __unwindfunclet$??0CDistributeManager@@QAE@XZ$3 10028e31 f   DistributeManager.obj
 0001:00027e3c       __ehhandler$??0CDistributeManager@@QAE@XZ 10028e3c f   DistributeManager.obj
 0001:00027e70       __ehhandler$??1?$CMap@KKPAUtagSameTableInfo@@PAU1@@@UAE@XZ 10028e70 f   DistributeManager.obj
 0001:00027ea0       __unwindfunclet$??1CDistributeManager@@UAE@XZ$2 10028ea0 f   DistributeManager.obj
 0001:00027eab       __unwindfunclet$??1CDistributeManager@@UAE@XZ$3 10028eab f   DistributeManager.obj
 0001:00027eb6       __unwindfunclet$??1CDistributeManager@@UAE@XZ$4 10028eb6 f   DistributeManager.obj
 0001:00027ec1       __unwindfunclet$??1CDistributeManager@@UAE@XZ$5 10028ec1 f   DistributeManager.obj
 0001:00027ecc       __ehhandler$??1CDistributeManager@@UAE@XZ 10028ecc f   DistributeManager.obj
 0001:00027f00       __ehhandler$??1CDistributeNodePool@@QAE@XZ 10028f00 f   DistributeManager.obj
 0001:00027f30       __ehhandler$?ActiveSameTableInfo@CDistributeManager@@IAEPAUtagSameTableInfo@@XZ 10028f30 f   DistributeManager.obj
 0001:00027f60       __unwindfunclet$?AllocNode@CDistributeNodePool@@QAEPAUtagDistributeNode@@XZ$0 10028f60 f   DistributeManager.obj
 0001:00027f6f       __ehhandler$?AllocNode@CDistributeNodePool@@QAEPAUtagDistributeNode@@XZ 10028f6f f   DistributeManager.obj
 0001:00027fa0       __unwindfunclet$??0?$CMap@KKPAUIServerUserItem@@PAU1@@@QAE@H@Z$0 10028fa0 f   ImmediateGroup.obj
 0001:00027fa8       __ehhandler$??0?$CMap@KKPAUIServerUserItem@@PAU1@@@QAE@H@Z 10028fa8 f   ImmediateGroup.obj
 0001:00027fd0       __unwindfunclet$??0CImmediateGroup@@QAE@_JPAUtagGameMatchOption@@PAUIImmediateGroupSink@@@Z$0 10028fd0 f   ImmediateGroup.obj
 0001:00027fdb       __unwindfunclet$??0CImmediateGroup@@QAE@_JPAUtagGameMatchOption@@PAUIImmediateGroupSink@@@Z$1 10028fdb f   ImmediateGroup.obj
 0001:00027fe6       __unwindfunclet$??0CImmediateGroup@@QAE@_JPAUtagGameMatchOption@@PAUIImmediateGroupSink@@@Z$2 10028fe6 f   ImmediateGroup.obj
 0001:00027ff1       __unwindfunclet$??0CImmediateGroup@@QAE@_JPAUtagGameMatchOption@@PAUIImmediateGroupSink@@@Z$3 10028ff1 f   ImmediateGroup.obj
 0001:00027ffc       __ehhandler$??0CImmediateGroup@@QAE@_JPAUtagGameMatchOption@@PAUIImmediateGroupSink@@@Z 10028ffc f   ImmediateGroup.obj
 0001:00028030       __ehhandler$??1?$CMap@KKPAUIServerUserItem@@PAU1@@@UAE@XZ 10029030 f   ImmediateGroup.obj
 0001:00028060       __unwindfunclet$??1CImmediateGroup@@UAE@XZ$2 10029060 f   ImmediateGroup.obj
 0001:0002806b       __unwindfunclet$??1CImmediateGroup@@UAE@XZ$3 1002906b f   ImmediateGroup.obj
 0001:00028076       __unwindfunclet$??1CImmediateGroup@@UAE@XZ$4 10029076 f   ImmediateGroup.obj
 0001:00028081       __unwindfunclet$??1CImmediateGroup@@UAE@XZ$5 10029081 f   ImmediateGroup.obj
 0001:0002808c       __ehhandler$??1CImmediateGroup@@UAE@XZ 1002908c f   ImmediateGroup.obj
 0001:000280c0       __unwindfunclet$??RCTraceFileAndLineInfo@ATL@@QBAXHIPBDZZ$0 100290c0 f   ImmediateGroup.obj
 0001:000280c8       __ehhandler$??RCTraceFileAndLineInfo@ATL@@QBAXHIPBDZZ 100290c8 f   ImmediateGroup.obj
 0001:000280f0       __ehhandler$?AllKillMatchTimer@CImmediateGroup@@IAEXXZ 100290f0 f   ImmediateGroup.obj
 0001:00028120       __unwindfunclet$?CheckMatchUser@CImmediateGroup@@IAE_NXZ$0 10029120 f   ImmediateGroup.obj
 0001:00028129       __ehhandler$?CheckMatchUser@CImmediateGroup@@IAE_NXZ 10029129 f   ImmediateGroup.obj
 0001:00028150       __ehhandler$?KillMatchTimer@CImmediateGroup@@IAE_NH@Z 10029150 f   ImmediateGroup.obj
 0001:00028180       __ehhandler$?KillMatchTimer@CImmediateGroup@@IAE_NKI@Z 10029180 f   ImmediateGroup.obj
 0001:000281b0       __ehhandler$?OnEventGameEnd@CImmediateGroup@@UAE_NPAUITableFrame@@GPAUIServerUserItem@@E@Z 100291b0 f   ImmediateGroup.obj
 0001:000281f0       __unwindfunclet$?PerformDistributeTable@CImmediateGroup@@IAEXXZ$0 100291f0 f   ImmediateGroup.obj
 0001:000281f8       __ehhandler$?PerformDistributeTable@CImmediateGroup@@IAEXXZ 100291f8 f   ImmediateGroup.obj
 0001:00028220       __unwindfunclet$?TraceV@CTrace@ATL@@SAXPBDHII0PAD@Z$0 10029220 f   ImmediateGroup.obj
 0001:00028228       __unwindfunclet$?TraceV@CTrace@ATL@@SAXPBDHII0PAD@Z$1 10029228 f   ImmediateGroup.obj
 0001:00028230       __ehhandler$?TraceV@CTrace@ATL@@SAXPBDHII0PAD@Z 10029230 f   ImmediateGroup.obj
 0001:00028260       __unwindfunclet$??0CImmediateMatch@@QAE@XZ$0 10029260 f   ImmediateMatch.obj
 0001:0002826b       __unwindfunclet$??0CImmediateMatch@@QAE@XZ$1 1002926b f   ImmediateMatch.obj
 0001:00028276       __unwindfunclet$??0CImmediateMatch@@QAE@XZ$2 10029276 f   ImmediateMatch.obj
 0001:00028281       __unwindfunclet$??0CImmediateMatch@@QAE@XZ$3 10029281 f   ImmediateMatch.obj
 0001:0002828c       __ehhandler$??0CImmediateMatch@@QAE@XZ 1002928c f   ImmediateMatch.obj
 0001:000282c0       __unwindfunclet$??1CImmediateMatch@@UAE@XZ$6 100292c0 f   ImmediateMatch.obj
 0001:000282cb       __unwindfunclet$??1CImmediateMatch@@UAE@XZ$7 100292cb f   ImmediateMatch.obj
 0001:000282d6       __unwindfunclet$??1CImmediateMatch@@UAE@XZ$8 100292d6 f   ImmediateMatch.obj
 0001:000282e1       __unwindfunclet$??1CImmediateMatch@@UAE@XZ$9 100292e1 f   ImmediateMatch.obj
 0001:000282ec       __unwindfunclet$??1CImmediateMatch@@UAE@XZ$10 100292ec f   ImmediateMatch.obj
 0001:000282f7       __ehhandler$??1CImmediateMatch@@UAE@XZ 100292f7 f   ImmediateMatch.obj
 0001:00028330       __ehhandler$??_ECMatchServiceManager@@UAEPAXI@Z 10029330 f   ImmediateMatch.obj
 0001:00028360       __unwindfunclet$?BindTableFrame@CImmediateMatch@@UAE_NPAUITableFrame@@G@Z$0 10029360 f   ImmediateMatch.obj
 0001:0002837b       __ehhandler$?BindTableFrame@CImmediateMatch@@UAE_NPAUITableFrame@@G@Z 1002937b f   ImmediateMatch.obj
 0001:000283b0       __ehhandler$?DeleteUserItem@CImmediateMatch@@AAE_NK@Z 100293b0 f   ImmediateMatch.obj
 0001:000283e0       __ehhandler$?OnEventDataBase@CImmediateMatch@@UAE_NGPAUIServerUserItem@@PAXGK@Z 100293e0 f   ImmediateMatch.obj
 0001:00028420       __unwindfunclet$?OnEventMatchStart@CImmediateMatch@@UAE_NPAVCImmediateGroup@@@Z$0 10029420 f   ImmediateMatch.obj
 0001:0002843b       __ehhandler$?OnEventMatchStart@CImmediateMatch@@UAE_NPAVCImmediateGroup@@@Z 1002943b f   ImmediateMatch.obj
 0001:00028470       __ehhandler$?OnEventTimer@CImmediateMatch@@UAE_NKI@Z 10029470 f   ImmediateMatch.obj
 0001:000284a0       __unwindfunclet$?OnStartService@CImmediateMatch@@UAEXXZ$0 100294a0 f   ImmediateMatch.obj
 0001:000284bb       __ehhandler$?OnStartService@CImmediateMatch@@UAEXXZ 100294bb f   ImmediateMatch.obj
 0001:000284f0       __unwindfunclet$??1CLockTimeMatch@@UAE@XZ$2 100294f0 f   LockTimeMatch.obj
 0001:000284fb       __ehhandler$??1CLockTimeMatch@@UAE@XZ 100294fb f   LockTimeMatch.obj
 0001:00028520       __unwindfunclet$?BindTableFrame@CLockTimeMatch@@UAE_NPAUITableFrame@@G@Z$0 10029520 f   LockTimeMatch.obj
 0001:0002852f       __ehhandler$?BindTableFrame@CLockTimeMatch@@UAE_NPAUITableFrame@@G@Z 1002952f f   LockTimeMatch.obj
 0001:00028560       __unwindfunclet$?PerformDistribute@CLockTimeMatch@@IAE_NXZ$0 10029560 f   LockTimeMatch.obj
 0001:00028568       __ehhandler$?PerformDistribute@CLockTimeMatch@@IAE_NXZ 10029568 f   LockTimeMatch.obj
 0001:00028590       __ehhandler$??1CMatchServiceManager@@UAE@XZ 10029590 f   MatchServiceManager.obj
 0001:000285c0       __unwindfunclet$?CreateGameMatch@CMatchServiceManager@@UAE_NE@Z$2 100295c0 f   MatchServiceManager.obj
 0001:000285d2       __unwindfunclet$?CreateGameMatch@CMatchServiceManager@@UAE_NE@Z$3 100295d2 f   MatchServiceManager.obj
 0001:000285e4       __ehhandler$?CreateGameMatch@CMatchServiceManager@@UAE_NE@Z 100295e4 f   MatchServiceManager.obj
 0001:00028610       __unwindfunclet$_CreateMatchServiceManager$4 10029610 f   MatchServiceManager.obj
 0001:0002861f       __ehhandler$_CreateMatchServiceManager 1002961f f   MatchServiceManager.obj
 0001:00028650       __unwindfunclet$??0_ATL_WIN_MODULE70@ATL@@QAE@XZ$0 10029650 f   Stdafx.obj
 0001:0002865b       __ehhandler$??0_ATL_WIN_MODULE70@ATL@@QAE@XZ 1002965b f   Stdafx.obj
 0001:00028680       __ehhandler$??1?$CSimpleArray@GV?$CSimpleArrayEqualHelper@G@ATL@@@ATL@@QAE@XZ 10029680 f   Stdafx.obj
 0001:000286b0       __ehhandler$??1CAtlComModule@ATL@@QAE@XZ 100296b0 f   Stdafx.obj
 0001:000286e0       __ehhandler$??1CAtlWinModule@ATL@@QAE@XZ 100296e0 f   Stdafx.obj
 0001:00028710       __ehhandler$??_Estringdispid@CComTypeInfoHolder@ATL@@QAEPAXI@Z 10029710 f   mfcs140d:nolib.obj
 0001:00028740       __ehhandler$?__scrt_initialize_thread_safe_statics_platform_specific@@YAXXZ 10029740 f   msvcrtd:thread_safe_statics.obj
 0001:00028770       __ehhandler$?__scrt_uninitialize_thread_safe_statics@@YAXXZ 10029770 f   msvcrtd:thread_safe_statics.obj
 0001:00029820       ??__F_AtlComModule@ATL@@YAXXZ 1002a820 f   Stdafx.obj
 0001:00029840       ??__F_AtlWinModule@ATL@@YAXXZ 1002a840 f   Stdafx.obj
 0001:000298a0       ??__F_AtlComModule@ATL@@YAXXZ 1002a8a0 f   mfcs140d:nolib.obj
 0001:000298c0       ??__F_AtlWinModule@ATL@@YAXXZ 1002a8c0 f   mfcs140d:nolib.obj
 0001:000298e0       ??__F_AtlComModule@ATL@@YAXXZ 1002a8e0 f   mfcs140d:stdafx.obj
 0001:00029900       ??__F_AtlWinModule@ATL@@YAXXZ 1002a900 f   mfcs140d:stdafx.obj
 0001:0002991b       ??__F_AtlBaseModule@ATL@@YAXXZ 1002a91b f   atls:atlbase.obj
 0002:00000104       ?_AtlBaseModule$initializer$@ATL@@3P6AXXZA 1002c104     atls:atlbase.obj
 0002:00000208       ?atlTraceException$initializer$@ATL@@3P6AXXZA 1002c208     ImmediateGroup.obj
 0002:0000020c       ?atlTraceGeneral$initializer$@ATL@@3P6AXXZA 1002c20c     Stdafx.obj
 0002:00000210       ?atlTraceCOM$initializer$@ATL@@3P6AXXZA 1002c210     Stdafx.obj
 0002:00000214       ?atlTraceQI$initializer$@ATL@@3P6AXXZA 1002c214     Stdafx.obj
 0002:00000218       ?atlTraceRegistrar$initializer$@ATL@@3P6AXXZA 1002c218     Stdafx.obj
 0002:0000021c       ?atlTraceRefcount$initializer$@ATL@@3P6AXXZA 1002c21c     Stdafx.obj
 0002:00000220       ?atlTraceWindowing$initializer$@ATL@@3P6AXXZA 1002c220     Stdafx.obj
 0002:00000224       ?atlTraceControls$initializer$@ATL@@3P6AXXZA 1002c224     Stdafx.obj
 0002:00000228       ?atlTraceHosting$initializer$@ATL@@3P6AXXZA 1002c228     Stdafx.obj
 0002:0000022c       ?atlTraceDBClient$initializer$@ATL@@3P6AXXZA 1002c22c     Stdafx.obj
 0002:00000230       ?atlTraceDBProvider$initializer$@ATL@@3P6AXXZA 1002c230     Stdafx.obj
 0002:00000234       ?atlTraceSnapin$initializer$@ATL@@3P6AXXZA 1002c234     Stdafx.obj
 0002:00000238       ?atlTraceNotImpl$initializer$@ATL@@3P6AXXZA 1002c238     Stdafx.obj
 0002:0000023c       ?atlTraceAllocation$initializer$@ATL@@3P6AXXZA 1002c23c     Stdafx.obj
 0002:00000240       ?atlTraceTime$initializer$@ATL@@3P6AXXZA 1002c240     Stdafx.obj
 0002:00000244       ?atlTraceCache$initializer$@ATL@@3P6AXXZA 1002c244     Stdafx.obj
 0002:00000248       ?atlTraceStencil$initializer$@ATL@@3P6AXXZA 1002c248     Stdafx.obj
 0002:0000024c       ?atlTraceString$initializer$@ATL@@3P6AXXZA 1002c24c     Stdafx.obj
 0002:00000250       ?atlTraceMap$initializer$@ATL@@3P6AXXZA 1002c250     Stdafx.obj
 0002:00000254       ?atlTraceUtil$initializer$@ATL@@3P6AXXZA 1002c254     Stdafx.obj
 0002:00000258       ?atlTraceSecurity$initializer$@ATL@@3P6AXXZA 1002c258     Stdafx.obj
 0002:0000025c       ?atlTraceSync$initializer$@ATL@@3P6AXXZA 1002c25c     Stdafx.obj
 0002:00000260       ?atlTraceISAPI$initializer$@ATL@@3P6AXXZA 1002c260     Stdafx.obj
 0002:00000264       ?_AtlComModule$initializer$@ATL@@3P6AXXZA 1002c264     Stdafx.obj
 0002:00000268       ?_AtlWinModule$initializer$@ATL@@3P6AXXZA 1002c268     Stdafx.obj
 0002:0000026c       ?InitializeCAtlStringMgr$initializer$@ATLImplementationDetails@ATL@@3P6AXXZA 1002c26c     Stdafx.obj
 0002:0000058c       ?__scrt_initialize_tss_var@@3P6AHXZA 1002c58c     msvcrtd:thread_safe_statics.obj
 0002:00000bb0       ?IID_IMatchServiceManager@@3U_GUID@@B 1002cbb0     DistributeManager.obj
 0002:00000d68       ?IID_IUnknownEx@@3U_GUID@@B 1002cd68     ImmediateGroup.obj
 0002:00000d78       ?IID_IMatchServiceManager@@3U_GUID@@B 1002cd78     ImmediateGroup.obj
 0002:00000d88       ?IID_IMatchEventSink@@3U_GUID@@B 1002cd88     ImmediateGroup.obj
 0002:00001634       ?IID_IUnknownEx@@3U_GUID@@B 1002d634     ImmediateMatch.obj
 0002:00001644       ?IID_IServerUserItemSink@@3U_GUID@@B 1002d644     ImmediateMatch.obj
 0002:00001654       ?IID_IMatchServiceManager@@3U_GUID@@B 1002d654     ImmediateMatch.obj
 0002:00001664       ?IID_IGameMatchItem@@3U_GUID@@B 1002d664     ImmediateMatch.obj
 0002:00001674       ?IID_ITableFrameHook@@3U_GUID@@B 1002d674     ImmediateMatch.obj
 0002:00001c04       ?IID_IUnknownEx@@3U_GUID@@B 1002dc04     LockTimeMatch.obj
 0002:00001c14       ?IID_IServerUserItemSink@@3U_GUID@@B 1002dc14     LockTimeMatch.obj
 0002:00001c24       ?IID_IMatchServiceManager@@3U_GUID@@B 1002dc24     LockTimeMatch.obj
 0002:00001c34       ?IID_IGameMatchItem@@3U_GUID@@B 1002dc34     LockTimeMatch.obj
 0002:00001c44       ?IID_IMatchEventSink@@3U_GUID@@B 1002dc44     LockTimeMatch.obj
 0002:00002630       ?IID_IUnknownEx@@3U_GUID@@B 1002e630     MatchServiceManager.obj
 0002:00002640       ?IID_IMatchServiceManager@@3U_GUID@@B 1002e640     MatchServiceManager.obj
 0002:00005098       ?IID_ITraceServiceManager@@3U_GUID@@B 10031098     Stdafx.obj
 0002:000050a8       ?IID_IAsynchronismEngine@@3U_GUID@@B 100310a8     Stdafx.obj
 0002:000050b8       ?IID_IDataBase@@3U_GUID@@B 100310b8     Stdafx.obj
 0002:000050c8       ?IID_IDataBaseEngine@@3U_GUID@@B 100310c8     Stdafx.obj
 0002:000050d8       ?IID_IUDPNetworkEngine@@3U_GUID@@B 100310d8     Stdafx.obj
 0002:000050e8       ?IID_ITCPNetworkEngine@@3U_GUID@@B 100310e8     Stdafx.obj
 0002:000050f8       ?IID_ITCPSocketService@@3U_GUID@@B 100310f8     Stdafx.obj
 0002:00005108       ?IID_IWEBSocketService@@3U_GUID@@B 10031108     Stdafx.obj
 0002:00005118       ?IID_ITimerEngine@@3U_GUID@@B 10031118     Stdafx.obj
 0002:00005128       ?IID_IAttemperEngine@@3U_GUID@@B 10031128     Stdafx.obj
 0002:00005138       ?IID_IGameServiceManager@@3U_GUID@@B 10031138     Stdafx.obj
 0002:00005148       ?IID_IAndroidUserItemSink@@3U_GUID@@B 10031148     Stdafx.obj
 0002:00005c48       ?IID_IUnknownEx@@3U_GUID@@B 10031c48     TableFrameHook.obj
 0002:00005c58       ?IID_ITableFrame@@3U_GUID@@B 10031c58     TableFrameHook.obj
 0002:00005c68       ?IID_ITableUserAction@@3U_GUID@@B 10031c68     TableFrameHook.obj
 0002:00005c78       ?IID_IMatchServiceManager@@3U_GUID@@B 10031c78     TableFrameHook.obj
 0002:00005c88       ?IID_IMatchEventSink@@3U_GUID@@B 10031c88     TableFrameHook.obj
 0002:00005c98       ?IID_ITableFrameHook@@3U_GUID@@B 10031c98     TableFrameHook.obj
 0002:00006598       _GS_ExceptionPointers      10032598     msvcrtd:gs_report.obj
 0002:000065a4       ?_RTC_ErrorMessages@@3QBQBDB 100325a4     msvcrtd:error.obj
 0002:000065bc       ?_RTC_NoFalsePositives@@3QBHB 100325bc     msvcrtd:error.obj
 0002:000065d4       ?stack_premsg@@3QBDB       100325d4     msvcrtd:error.obj
 0002:000065f0       ?stack_postmsg@@3QBDB      100325f0     msvcrtd:error.obj
 0002:00006604       ?uninit_premsg@@3QBDB      10032604     msvcrtd:error.obj
 0002:00006614       ?uninit_postmsg@@3QBDB     10032614     msvcrtd:error.obj
 0002:00006c58       ?_RTC_errlist@@3QBQBDB     10032c58     msvcrtd:userapi.obj
 0002:00006d3c       ?mspdbName@@3QB_WB         10032d3c     msvcrtd:pdblkup.obj
 0002:00006d60       ?debugCrtFileName@@3QB_WB  10032d60     msvcrtd:pdblkup.obj
 0002:00006ef0       ?dllExt@?1??GetPdbDllPathFromFilePath@@YAHPB_WPA_WI@Z@4QB_WB 10032ef0     msvcrtd:pdblkup.obj
 0002:00006efc       ?mspdbFilename@?1??GetPdbDllPathFromFilePath@@YAHPB_WPA_WI@Z@4QB_WB 10032efc     msvcrtd:pdblkup.obj
 0002:00008834       __RTC_InitBase.rtc$IMZ     10034834     mfcs140d:nolib.obj
 0002:00008838       __RTC_InitBase.rtc$IMZ     10034838     mfcs140d:stdafx.obj
 0002:00008b48       __RTC_Shutdown.rtc$TMZ     10034b48     mfcs140d:nolib.obj
 0002:00008b4c       __RTC_Shutdown.rtc$TMZ     10034b4c     mfcs140d:stdafx.obj
 0002:00008d58       __catchsym$??1CDistributeNodePool@@QAE@XZ$2 10034d58     DistributeManager.obj
 0002:00008d68       __unwindtable$??1CDistributeNodePool@@QAE@XZ 10034d68     DistributeManager.obj
 0002:00008d78       __tryblocktable$??1CDistributeNodePool@@QAE@XZ 10034d78     DistributeManager.obj
 0002:00008d8c       __ehfuncinfo$??1CDistributeNodePool@@QAE@XZ 10034d8c     DistributeManager.obj
 0002:00008db8       __unwindtable$?AllocNode@CDistributeNodePool@@QAEPAUtagDistributeNode@@XZ 10034db8     DistributeManager.obj
 0002:00008dc0       __ehfuncinfo$?AllocNode@CDistributeNodePool@@QAEPAUtagDistributeNode@@XZ 10034dc0     DistributeManager.obj
 0002:00008de8       __unwindtable$??0?$CMap@KKPAUtagSameTableInfo@@PAU1@@@QAE@H@Z 10034de8     DistributeManager.obj
 0002:00008df0       __ehfuncinfo$??0?$CMap@KKPAUtagSameTableInfo@@PAU1@@@QAE@H@Z 10034df0     DistributeManager.obj
 0002:00008e18       __ehfuncinfo$??1?$CMap@KKPAUtagSameTableInfo@@PAU1@@@UAE@XZ 10034e18     DistributeManager.obj
 0002:00008e40       __unwindtable$??0CDistributeManager@@QAE@XZ 10034e40     DistributeManager.obj
 0002:00008e60       __ehfuncinfo$??0CDistributeManager@@QAE@XZ 10034e60     DistributeManager.obj
 0002:00008e8c       __catchsym$??1CDistributeManager@@UAE@XZ$6 10034e8c     DistributeManager.obj
 0002:00008e9c       __tryblocktable$??1CDistributeManager@@UAE@XZ 10034e9c     DistributeManager.obj
 0002:00008eb0       __ehfuncinfo$??1CDistributeManager@@UAE@XZ 10034eb0     DistributeManager.obj
 0002:00008ed4       __unwindtable$??1CDistributeManager@@UAE@XZ 10034ed4     DistributeManager.obj
 0002:00008f10       __catchsym$?ActiveSameTableInfo@CDistributeManager@@IAEPAUtagSameTableInfo@@XZ$2 10034f10     DistributeManager.obj
 0002:00008f20       __unwindtable$?ActiveSameTableInfo@CDistributeManager@@IAEPAUtagSameTableInfo@@XZ 10034f20     DistributeManager.obj
 0002:00008f30       __tryblocktable$?ActiveSameTableInfo@CDistributeManager@@IAEPAUtagSameTableInfo@@XZ 10034f30     DistributeManager.obj
 0002:00008f44       __ehfuncinfo$?ActiveSameTableInfo@CDistributeManager@@IAEPAUtagSameTableInfo@@XZ 10034f44     DistributeManager.obj
 0002:00008fd4       __unwindtable$?TraceV@CTrace@ATL@@SAXPBDHII0PAD@Z 10034fd4     ImmediateGroup.obj
 0002:00008fe4       __ehfuncinfo$?TraceV@CTrace@ATL@@SAXPBDHII0PAD@Z 10034fe4     ImmediateGroup.obj
 0002:00009010       __unwindtable$??RCTraceFileAndLineInfo@ATL@@QBAXHIPBDZZ 10035010     ImmediateGroup.obj
 0002:00009018       __ehfuncinfo$??RCTraceFileAndLineInfo@ATL@@QBAXHIPBDZZ 10035018     ImmediateGroup.obj
 0002:00009040       __unwindtable$??0?$CMap@KKPAUIServerUserItem@@PAU1@@@QAE@H@Z 10035040     ImmediateGroup.obj
 0002:00009048       __ehfuncinfo$??0?$CMap@KKPAUIServerUserItem@@PAU1@@@QAE@H@Z 10035048     ImmediateGroup.obj
 0002:00009070       __ehfuncinfo$??1?$CMap@KKPAUIServerUserItem@@PAU1@@@UAE@XZ 10035070     ImmediateGroup.obj
 0002:00009098       __unwindtable$??0CImmediateGroup@@QAE@_JPAUtagGameMatchOption@@PAUIImmediateGroupSink@@@Z 10035098     ImmediateGroup.obj
 0002:000090b8       __ehfuncinfo$??0CImmediateGroup@@QAE@_JPAUtagGameMatchOption@@PAUIImmediateGroupSink@@@Z 100350b8     ImmediateGroup.obj
 0002:000090e4       __catchsym$??1CImmediateGroup@@UAE@XZ$6 100350e4     ImmediateGroup.obj
 0002:000090f4       __tryblocktable$??1CImmediateGroup@@UAE@XZ 100350f4     ImmediateGroup.obj
 0002:00009108       __ehfuncinfo$??1CImmediateGroup@@UAE@XZ 10035108     ImmediateGroup.obj
 0002:0000912c       __unwindtable$??1CImmediateGroup@@UAE@XZ 1003512c     ImmediateGroup.obj
 0002:00009168       __catchsym$?OnEventGameEnd@CImmediateGroup@@UAE_NPAUITableFrame@@GPAUIServerUserItem@@E@Z$2 10035168     ImmediateGroup.obj
 0002:00009178       __unwindtable$?OnEventGameEnd@CImmediateGroup@@UAE_NPAUITableFrame@@GPAUIServerUserItem@@E@Z 10035178     ImmediateGroup.obj
 0002:00009188       __tryblocktable$?OnEventGameEnd@CImmediateGroup@@UAE_NPAUITableFrame@@GPAUIServerUserItem@@E@Z 10035188     ImmediateGroup.obj
 0002:0000919c       __ehfuncinfo$?OnEventGameEnd@CImmediateGroup@@UAE_NPAUITableFrame@@GPAUIServerUserItem@@E@Z 1003519c     ImmediateGroup.obj
 0002:000091c8       __unwindtable$?PerformDistributeTable@CImmediateGroup@@IAEXXZ 100351c8     ImmediateGroup.obj
 0002:000091d0       __ehfuncinfo$?PerformDistributeTable@CImmediateGroup@@IAEXXZ 100351d0     ImmediateGroup.obj
 0002:000091f8       __unwindtable$?CheckMatchUser@CImmediateGroup@@IAE_NXZ 100351f8     ImmediateGroup.obj
 0002:00009200       __ehfuncinfo$?CheckMatchUser@CImmediateGroup@@IAE_NXZ 10035200     ImmediateGroup.obj
 0002:00009228       __catchsym$?AllKillMatchTimer@CImmediateGroup@@IAEXXZ$2 10035228     ImmediateGroup.obj
 0002:00009238       __unwindtable$?AllKillMatchTimer@CImmediateGroup@@IAEXXZ 10035238     ImmediateGroup.obj
 0002:00009248       __tryblocktable$?AllKillMatchTimer@CImmediateGroup@@IAEXXZ 10035248     ImmediateGroup.obj
 0002:0000925c       __ehfuncinfo$?AllKillMatchTimer@CImmediateGroup@@IAEXXZ 1003525c     ImmediateGroup.obj
 0002:00009288       __catchsym$?KillMatchTimer@CImmediateGroup@@IAE_NH@Z$2 10035288     ImmediateGroup.obj
 0002:00009298       __unwindtable$?KillMatchTimer@CImmediateGroup@@IAE_NH@Z 10035298     ImmediateGroup.obj
 0002:000092a8       __tryblocktable$?KillMatchTimer@CImmediateGroup@@IAE_NH@Z 100352a8     ImmediateGroup.obj
 0002:000092bc       __ehfuncinfo$?KillMatchTimer@CImmediateGroup@@IAE_NH@Z 100352bc     ImmediateGroup.obj
 0002:000092e8       __catchsym$?KillMatchTimer@CImmediateGroup@@IAE_NKI@Z$2 100352e8     ImmediateGroup.obj
 0002:000092f8       __unwindtable$?KillMatchTimer@CImmediateGroup@@IAE_NKI@Z 100352f8     ImmediateGroup.obj
 0002:00009308       __tryblocktable$?KillMatchTimer@CImmediateGroup@@IAE_NKI@Z 10035308     ImmediateGroup.obj
 0002:0000931c       __ehfuncinfo$?KillMatchTimer@CImmediateGroup@@IAE_NKI@Z 1003531c     ImmediateGroup.obj
 0002:00009348       __ehfuncinfo$??_ECMatchServiceManager@@UAEPAXI@Z 10035348     ImmediateMatch.obj
 0002:00009370       __unwindtable$??0CImmediateMatch@@QAE@XZ 10035370     ImmediateMatch.obj
 0002:00009390       __ehfuncinfo$??0CImmediateMatch@@QAE@XZ 10035390     ImmediateMatch.obj
 0002:000093bc       __catchsym$??1CImmediateMatch@@UAE@XZ$13 100353bc     ImmediateMatch.obj
 0002:000093cc       __catchsym$??1CImmediateMatch@@UAE@XZ$12 100353cc     ImmediateMatch.obj
 0002:000093dc       __catchsym$??1CImmediateMatch@@UAE@XZ$11 100353dc     ImmediateMatch.obj
 0002:000093ec       __ehfuncinfo$??1CImmediateMatch@@UAE@XZ 100353ec     ImmediateMatch.obj
 0002:00009410       __tryblocktable$??1CImmediateMatch@@UAE@XZ 10035410     ImmediateMatch.obj
 0002:0000944c       __unwindtable$??1CImmediateMatch@@UAE@XZ 1003544c     ImmediateMatch.obj
 0002:000094bc       __unwindtable$?OnStartService@CImmediateMatch@@UAEXXZ 100354bc     ImmediateMatch.obj
 0002:000094c4       __ehfuncinfo$?OnStartService@CImmediateMatch@@UAEXXZ 100354c4     ImmediateMatch.obj
 0002:000094ec       __unwindtable$?BindTableFrame@CImmediateMatch@@UAE_NPAUITableFrame@@G@Z 100354ec     ImmediateMatch.obj
 0002:000094f4       __ehfuncinfo$?BindTableFrame@CImmediateMatch@@UAE_NPAUITableFrame@@G@Z 100354f4     ImmediateMatch.obj
 0002:0000951c       __catchsym$?OnEventTimer@CImmediateMatch@@UAE_NKI@Z$2 1003551c     ImmediateMatch.obj
 0002:0000952c       __unwindtable$?OnEventTimer@CImmediateMatch@@UAE_NKI@Z 1003552c     ImmediateMatch.obj
 0002:0000953c       __tryblocktable$?OnEventTimer@CImmediateMatch@@UAE_NKI@Z 1003553c     ImmediateMatch.obj
 0002:00009550       __ehfuncinfo$?OnEventTimer@CImmediateMatch@@UAE_NKI@Z 10035550     ImmediateMatch.obj
 0002:0000957c       __catchsym$?OnEventDataBase@CImmediateMatch@@UAE_NGPAUIServerUserItem@@PAXGK@Z$2 1003557c     ImmediateMatch.obj
 0002:0000958c       __unwindtable$?OnEventDataBase@CImmediateMatch@@UAE_NGPAUIServerUserItem@@PAXGK@Z 1003558c     ImmediateMatch.obj
 0002:0000959c       __tryblocktable$?OnEventDataBase@CImmediateMatch@@UAE_NGPAUIServerUserItem@@PAXGK@Z 1003559c     ImmediateMatch.obj
 0002:000095b0       __ehfuncinfo$?OnEventDataBase@CImmediateMatch@@UAE_NGPAUIServerUserItem@@PAXGK@Z 100355b0     ImmediateMatch.obj
 0002:000095dc       __unwindtable$?OnEventMatchStart@CImmediateMatch@@UAE_NPAVCImmediateGroup@@@Z 100355dc     ImmediateMatch.obj
 0002:000095e4       __ehfuncinfo$?OnEventMatchStart@CImmediateMatch@@UAE_NPAVCImmediateGroup@@@Z 100355e4     ImmediateMatch.obj
 0002:0000960c       __catchsym$?DeleteUserItem@CImmediateMatch@@AAE_NK@Z$2 1003560c     ImmediateMatch.obj
 0002:0000961c       __unwindtable$?DeleteUserItem@CImmediateMatch@@AAE_NK@Z 1003561c     ImmediateMatch.obj
 0002:0000962c       __tryblocktable$?DeleteUserItem@CImmediateMatch@@AAE_NK@Z 1003562c     ImmediateMatch.obj
 0002:00009640       __ehfuncinfo$?DeleteUserItem@CImmediateMatch@@AAE_NK@Z 10035640     ImmediateMatch.obj
 0002:000096a8       __catchsym$??1CLockTimeMatch@@UAE@XZ$3 100356a8     LockTimeMatch.obj
 0002:000096b8       __tryblocktable$??1CLockTimeMatch@@UAE@XZ 100356b8     LockTimeMatch.obj
 0002:000096cc       __unwindtable$??1CLockTimeMatch@@UAE@XZ 100356cc     LockTimeMatch.obj
 0002:000096e4       __ehfuncinfo$??1CLockTimeMatch@@UAE@XZ 100356e4     LockTimeMatch.obj
 0002:00009714       __unwindtable$?BindTableFrame@CLockTimeMatch@@UAE_NPAUITableFrame@@G@Z 10035714     LockTimeMatch.obj
 0002:0000971c       __ehfuncinfo$?BindTableFrame@CLockTimeMatch@@UAE_NPAUITableFrame@@G@Z 1003571c     LockTimeMatch.obj
 0002:00009744       __unwindtable$?PerformDistribute@CLockTimeMatch@@IAE_NXZ 10035744     LockTimeMatch.obj
 0002:0000974c       __ehfuncinfo$?PerformDistribute@CLockTimeMatch@@IAE_NXZ 1003574c     LockTimeMatch.obj
 0002:00009774       __catchsym$??1CMatchServiceManager@@UAE@XZ$2 10035774     MatchServiceManager.obj
 0002:00009784       __unwindtable$??1CMatchServiceManager@@UAE@XZ 10035784     MatchServiceManager.obj
 0002:00009794       __tryblocktable$??1CMatchServiceManager@@UAE@XZ 10035794     MatchServiceManager.obj
 0002:000097a8       __ehfuncinfo$??1CMatchServiceManager@@UAE@XZ 100357a8     MatchServiceManager.obj
 0002:000097d4       __catchsym$?CreateGameMatch@CMatchServiceManager@@UAE_NE@Z$4 100357d4     MatchServiceManager.obj
 0002:000097e4       __tryblocktable$?CreateGameMatch@CMatchServiceManager@@UAE_NE@Z 100357e4     MatchServiceManager.obj
 0002:000097f8       __unwindtable$?CreateGameMatch@CMatchServiceManager@@UAE_NE@Z 100357f8     MatchServiceManager.obj
 0002:00009818       __ehfuncinfo$?CreateGameMatch@CMatchServiceManager@@UAE_NE@Z 10035818     MatchServiceManager.obj
 0002:00009848       __catchsym$_CreateMatchServiceManager$6 10035848     MatchServiceManager.obj
 0002:00009858       __catchsym$_CreateMatchServiceManager$5 10035858     MatchServiceManager.obj
 0002:00009868       __ehfuncinfo$_CreateMatchServiceManager 10035868     MatchServiceManager.obj
 0002:0000988c       __tryblocktable$_CreateMatchServiceManager 1003588c     MatchServiceManager.obj
 0002:000098b4       __unwindtable$_CreateMatchServiceManager 100358b4     MatchServiceManager.obj
 0002:000098ec       __ehfuncinfo$??1?$CSimpleArray@GV?$CSimpleArrayEqualHelper@G@ATL@@@ATL@@QAE@XZ 100358ec     Stdafx.obj
 0002:00009914       __unwindtable$??0_ATL_WIN_MODULE70@ATL@@QAE@XZ 10035914     Stdafx.obj
 0002:0000991c       __ehfuncinfo$??0_ATL_WIN_MODULE70@ATL@@QAE@XZ 1003591c     Stdafx.obj
 0002:00009944       __ehfuncinfo$??1CAtlComModule@ATL@@QAE@XZ 10035944     Stdafx.obj
 0002:0000996c       __ehfuncinfo$??1CAtlWinModule@ATL@@QAE@XZ 1003596c     Stdafx.obj
 0002:00009998       __sehtable$_WinbaseIsolationAwarePrivatetRgzlnPgpgk@0 10035998     mfcs140d:nolib.obj
 0002:000099b8       __sehtable$_IsolationAwareUnregisterClassA@8 100359b8     mfcs140d:nolib.obj
 0002:000099d8       __ehfuncinfo$??_Estringdispid@CComTypeInfoHolder@ATL@@QAEPAXI@Z 100359d8     mfcs140d:nolib.obj
 0002:00009a00       __sehtable$??_M@YGXPAXIIP6EX0@Z@Z 10035a00     msvcrtd:ehvecdtr.obj
 0002:00009a20       __sehtable$?__ArrayUnwind@@YGXPAXIIP6EX0@Z@Z 10035a20     msvcrtd:ehvecdtr.obj
 0002:00009a40       __ehfuncinfo$?__scrt_initialize_thread_safe_statics_platform_specific@@YAXXZ 10035a40     msvcrtd:thread_safe_statics.obj
 0002:00009a68       __ehfuncinfo$?__scrt_uninitialize_thread_safe_statics@@YAXXZ 10035a68     msvcrtd:thread_safe_statics.obj
 0002:00009a90       __sehtable$___scrt_is_nonwritable_in_current_image 10035a90     msvcrtd:utility.obj
 0002:00009ab0       __sehtable$?dllmain_crt_process_attach@@YAHQAUHINSTANCE__@@QAX@Z 10035ab0     msvcrtd:dll_dllmain.obj
 0002:00009ad0       __sehtable$?dllmain_crt_process_detach@@YAH_N@Z 10035ad0     msvcrtd:dll_dllmain.obj
 0002:00009af0       __sehtable$?dllmain_dispatch@@YAHQAUHINSTANCE__@@KQAX@Z 10035af0     msvcrtd:dll_dllmain.obj
 0002:00009b10       __sehtable$?notify_debugger@@YAXABUtagEXCEPTION_VISUALCPP_DEBUG_INFO@@@Z 10035b10     msvcrtd:error.obj
 0002:00009fb0       .edata                     10035fb0     MatchService.exp
 0002:00009fd8       rgpv                       10035fd8     MatchService.exp
 0002:0000a034       rgszName                   10036034     MatchService.exp
 0002:0000a090       rgwOrd                     10036090     MatchService.exp
 0002:0000a0be       szName                     100360be     MatchService.exp
 0002:0000a0cf       $N00001                    100360cf     MatchService.exp
 0002:0000a0f4       $N00002                    100360f4     MatchService.exp
 0002:0000a114       $N00003                    10036114     MatchService.exp
 0002:0000a134       $N00004                    10036134     MatchService.exp
 0002:0000a15d       $N00005                    1003615d     MatchService.exp
 0002:0000a17b       $N00006                    1003617b     MatchService.exp
 0002:0000a1ba       $N00007                    100361ba     MatchService.exp
 0002:0000a1ea       $N00008                    100361ea     MatchService.exp
 0002:0000a22c       $N00009                    1003622c     MatchService.exp
 0002:0000a27b       $N00010                    1003627b     MatchService.exp
 0002:0000a2c4       $N00011                    100362c4     MatchService.exp
 0002:0000a2fc       $N00012                    100362fc     MatchService.exp
 0002:0000a348       $N00013                    10036348     MatchService.exp
 0002:0000a376       $N00014                    10036376     MatchService.exp
 0002:0000a3c0       $N00015                    100363c0     MatchService.exp
 0002:0000a404       $N00016                    10036404     MatchService.exp
 0002:0000a44e       $N00017                    1003644e     MatchService.exp
 0002:0000a493       $N00018                    10036493     MatchService.exp
 0002:0000a4e0       $N00019                    100364e0     MatchService.exp
 0002:0000a51a       $N00020                    1003651a     MatchService.exp
 0002:0000a540       $N00021                    10036540     MatchService.exp
 0002:0000a56c       $N00022                    1003656c     MatchService.exp
 0002:0000a597       $N00023                    10036597     MatchService.exp
 0003:00000058       ?THIS_FILE@@3PADA          10037058     ImmediateMatch.obj
 0003:000009b0       ?GameServerDLL@@3UAFX_EXTENSION_MODULE@@A 100379b0     GameMatchServer.obj
 0003:000030e8       ?wMatchCount@?1??CalcMatchNo@CImmediateMatch@@AAE_JXZ@4KA 1003a0e8     ImmediateMatch.obj
 0003:000030ec       ?wLastDay@?1??CalcMatchNo@CImmediateMatch@@AAE_JXZ@4KA 1003a0ec     ImmediateMatch.obj
 0003:000030f0       ?$TSS0@?1??CalcMatchNo@CImmediateMatch@@AAE_JXZ@4HA 1003a0f0     ImmediateMatch.obj
 0003:00003248       ?_Tss_mutex@@3U_RTL_CRITICAL_SECTION@@A 1003a248     msvcrtd:thread_safe_statics.obj
 0003:00003260       ?_Tss_cv@@3U_RTL_CONDITION_VARIABLE@@A 1003a260     msvcrtd:thread_safe_statics.obj
 0003:00003264       ?_Tss_event@@3PAXA         1003a264     msvcrtd:thread_safe_statics.obj
 0003:00003268       ?encoded_sleep_condition_variable_cs@@3P6GHPAU_RTL_CONDITION_VARIABLE@@PAU_RTL_CRITICAL_SECTION@@K@ZA 1003a268     msvcrtd:thread_safe_statics.obj
 0003:0000326c       ?encoded_wake_all_condition_variable@@3P6GXPAU_RTL_CONDITION_VARIABLE@@@ZA 1003a26c     msvcrtd:thread_safe_statics.obj
 0003:00003284       ?is_initialized_as_dll@@3_NA 1003a284     msvcrtd:utility.obj
 0003:00003285       ?module_local_atexit_table_initialized@@3_NA 1003a285     msvcrtd:utility.obj
 0003:00003288       ?module_local_atexit_table@@3U_onexit_table_t@@A 1003a288     msvcrtd:utility.obj
 0003:00003294       ?module_local_at_quick_exit_table@@3U_onexit_table_t@@A 1003a294     msvcrtd:utility.obj
 0003:000032a8       ?__proc_attached@@3HA      1003a2a8     msvcrtd:dll_dllmain.obj
 0003:000032ac       ?init@?1??_RTC_InitBase@@9@4_NA 1003a2ac     msvcrtd:init.obj
 0003:000032b0       _GS_ExceptionRecord        1003a2b0     msvcrtd:gs_report.obj
 0003:00003300       _GS_ContextRecord          1003a300     msvcrtd:gs_report.obj
 0003:0000369c       ?_RTC_ErrorReportFunc@@3P6AHHPBDH00ZZA 1003a69c     msvcrtd:userapi.obj
 0003:000036a0       ?_RTC_ErrorReportFuncW@@3P6AHHPB_WH00ZZA 1003a6a0     msvcrtd:userapi.obj
 0003:000036a8       ?mspdb@@3PAUHINSTANCE__@@A 1003a6a8     msvcrtd:pdblkup.obj
 0003:000036ac       ?alreadyTried@?1??GetPdbDll@@YAPAUHINSTANCE__@@XZ@4_NA 1003a6ac     msvcrtd:pdblkup.obj
 0003:000036ad       ?PDBOK@?1??_RTC_GetSrcLine@@YAHPAEPA_WKPAH1K@Z@4_NA 1003a6ad     msvcrtd:pdblkup.obj
 0004:000008fc       .idata$6                   1003b8fc     KernelEngine:KernelEngine.dll
 0004:0000090e       .idata$6                   1003b90e     mfc140d:mfc140d.dll
 0004:00000c80       .idata$6                   1003bc80     kernel32:KERNEL32.dll
 0004:00000cc4       .idata$6                   1003bcc4     user32:USER32.dll
 0004:00000cd0       .idata$6                   1003bcd0     oleaut32:OLEAUT32.dll
 0004:00000dc8       .idata$6                   1003bdc8     msvcprtd:MSVCP140D.dll
 0004:00000ebe       .idata$6                   1003bebe     vcruntimed:VCRUNTIME140D.dll
 0004:00001138       .idata$6                   1003c138     ucrtd:ucrtbased.dll
 0007:000001c0       $R000000                   1003f1c0     GameMatchServer.res
 0007:000004a8       $R0002E8                   1003f4a8     GameMatchServer.res
