 ModuleManager

 Timestamp is 5da6ac2c (Wed Oct 16 13:35:40 2019)

 Preferred load address is 10000000

 Start         Length     Name                   Class
 0001:00000000 00005270H .text$di                CODE
 0001:00005270 00033460H .text$mn                CODE
 0001:000386d0 00002d40H .text$x                 CODE
 0001:0003b410 0000110fH .text$yd                CODE
 0002:00000000 00000104H .CRT$XCA                DATA
 0002:00000104 00000104H .CRT$XCL                DATA
 0002:00000208 0000017cH .CRT$XCU                DATA
 0002:00000384 00000104H .CRT$XCZ                DATA
 0002:00000488 00000104H .CRT$XIA                DATA
 0002:0000058c 00000104H .CRT$XIC                DATA
 0002:00000690 00000104H .CRT$XIZ                DATA
 0002:00000794 00000004H .CRT$XLA                DATA
 0002:00000798 00000004H .CRT$XLZ                DATA
 0002:0000079c 00000104H .CRT$XPA                DATA
 0002:000008a0 00000104H .CRT$XPZ                DATA
 0002:000009a4 00000104H .CRT$XTA                DATA
 0002:00000aa8 00000108H .CRT$XTZ                DATA
 0002:00000bb0 0000ccc8H .rdata                  DATA
 0002:0000d878 0000011cH .rdata$T                DATA
 0002:0000d994 0000191cH .rdata$r                DATA
 0002:0000f2b0 0000034cH .rdata$sxdata           DATA
 0002:0000f5fc 000001a0H .rdata$zzzdbg           DATA
 0002:0000f79c 00000104H .rtc$IAA                DATA
 0002:0000f8a0 0000010cH .rtc$IMZ                DATA
 0002:0000f9ac 00000104H .rtc$IZZ                DATA
 0002:0000fab0 00000104H .rtc$TAA                DATA
 0002:0000fbb4 0000010cH .rtc$TMZ                DATA
 0002:0000fcc0 00000108H .rtc$TZZ                DATA
 0002:0000fdc8 000022a8H .xdata$x                DATA
 0002:00012070 00000104H ATL$__a                 DATA
 0002:00012174 0000010cH ATL$__z                 DATA
 0002:00012280 00007b26H .edata                  DATA
 0003:00000000 0000024cH .data                   DATA
 0003:0000024c 00000bacH .data$r                 DATA
 0003:00000df8 00002f1cH .bss                    DATA
 0004:00000000 00000940H .idata$5                DATA
 0004:00000940 000000c8H .idata$2                DATA
 0004:00000a08 00000014H .idata$3                DATA
 0004:00000a1c 00000940H .idata$4                DATA
 0004:0000135c 00001225H .idata$6                DATA
 0005:00000000 00000104H .tls                    DATA
 0005:00000104 00000104H .tls$                   DATA
 0005:00000208 00000101H .tls$ZZZ                DATA
 0006:00000000 00000104H .00cfg                  DATA
 0007:00000000 000006a0H .rsrc$01                DATA
 0007:000006a0 00004f90H .rsrc$02                DATA

  Address         Publics by Value              Rva+Base       Lib:Object

 0000:00000000       ___hybrid_code_map_count   00000000     <absolute>
 0000:00000000       ___volatile_metadata       00000000     <absolute>
 0000:00000000       ___hybrid_code_map         00000000     <absolute>
 0000:00000000       ___guard_iat_count         00000000     <absolute>
 0000:00000000       ___dynamic_value_reloc_table 00000000     <absolute>
 0000:00000000       ___guard_longjmp_count     00000000     <absolute>
 0000:00000000       ___guard_longjmp_table     00000000     <absolute>
 0000:00000000       ___guard_iat_table         00000000     <absolute>
 0000:00000000       ___guard_fids_count        00000000     <absolute>
 0000:00000000       ___hybrid_auxiliary_iat    00000000     <absolute>
 0000:00000000       ___guard_fids_table        00000000     <absolute>
 0000:00000000       ___enclave_config          00000000     <absolute>
 0000:0000002c       __tls_array                0000002c     <absolute>
 0000:0000007a       ___safe_se_handler_count   0000007a     <absolute>
 0000:00000100       ___guard_flags             00000100     <absolute>
 0000:00000000       ___ImageBase               10000000     <linker-defined>
 0001:00005270       ?OnSize@CDlgMatchItem@@AAEXIHH@Z 10006270 f   DlgMatchWizard.obj
 0001:000052d0       ?GetThisMessageMap@CDlgMatchItem@@KGPBUAFX_MSGMAP@@XZ 100062d0 f   DlgMatchWizard.obj
 0001:000052f0       ?OnCbnSelchangeComboFromMatch@CDlgMatchSignup1@@IAEXXZ 100062f0 f   DlgMatchWizard.obj
 0001:000054c0       ?OnBnClickedAddReward@CDlgMatchReward@@QAEXXZ 100064c0 f   DlgMatchWizard.obj
 0001:000055d0       ?OnBnClickedModifyReward@CDlgMatchReward@@QAEXXZ 100065d0 f   DlgMatchWizard.obj
 0001:000056c0       ?OnBnClickedDeleteReward@CDlgMatchReward@@QAEXXZ 100066c0 f   DlgMatchWizard.obj
 0001:000057c0       ?OnLvnItemchangedListReward@CDlgMatchReward@@IAEXPAUtagNMHDR@@PAJ@Z 100067c0 f   DlgMatchWizard.obj
 0001:00005830       ?OnSize@CDlgMatchWizardItem@@AAEXIHH@Z 10006830 f   DlgMatchWizard.obj
 0001:00005890       ?GetThisMessageMap@CDlgMatchWizardItem@@KGPBUAFX_MSGMAP@@XZ 10006890 f   DlgMatchWizard.obj
 0001:000058b0       ?OnCbnSelchangeComboMatchType@CDlgMatchWizardStep1@@IAEXXZ 100068b0 f   DlgMatchWizard.obj
 0001:00005960       ?OnTcnSelchangeMatchOption@CDlgMatchWizardStep1@@IAEXPAUtagNMHDR@@PAJ@Z 10006960 f   DlgMatchWizard.obj
 0001:000059b0       ?OnBnClickedLast@CDlgMatchWizard@@QAEXXZ 100069b0 f   DlgMatchWizard.obj
 0001:00005a50       ?OnBnClickedNext@CDlgMatchWizard@@QAEXXZ 10006a50 f   DlgMatchWizard.obj
 0001:00005ac0       ?OnBnClickedFinish@CDlgMatchWizard@@QAEXXZ 10006ac0 f   DlgMatchWizard.obj
 0001:00006230       ??$AtlMultiply@I@ATL@@YAJPAIII@Z 10007230 f i DlgMatchWizard.obj
 0001:00006290       ??$_Getvals@_W@?$time_get@DV?$istreambuf_iterator@DU?$char_traits@D@std@@@std@@@std@@IAEX_WABV_Locinfo@1@@Z 10007290 f i DlgMatchWizard.obj
 0001:000063c0       ??$_Getvals@_W@?$time_get@_WV?$istreambuf_iterator@_WU?$char_traits@_W@std@@@std@@@std@@IAEX_WABV_Locinfo@1@@Z 100073c0 f i DlgMatchWizard.obj
 0001:000064f0       ??$_Maklocstr@D@std@@YAPADPBDPADABU_Cvtvec@@@Z 100074f0 f i DlgMatchWizard.obj
 0001:000065a0       ??$_Maklocstr@_W@std@@YAPA_WPBDPA_WABU_Cvtvec@@@Z 100075a0 f i DlgMatchWizard.obj
 0001:00006720       ??$_snprintf_s@$0EA@@@YAHAAY0EA@DIPBDZZ 10007720 f i DlgMatchWizard.obj
 0001:00006760       ??$_snprintf_s@$0IA@@@YAHAAY0IA@DIPBDZZ 10007760 f i DlgMatchWizard.obj
 0001:000067a0       ??0?$CHeapPtr@DVCCRTAllocator@ATL@@@ATL@@QAE@XZ 100077a0 f i DlgMatchWizard.obj
 0001:000067d0       ??0?$CHeapPtr@_WVCCRTAllocator@ATL@@@ATL@@QAE@XZ 100077d0 f i DlgMatchWizard.obj
 0001:00006800       ??0?$CHeapPtrBase@DVCCRTAllocator@ATL@@@ATL@@IAE@XZ 10007800 f i DlgMatchWizard.obj
 0001:00006830       ??0?$CHeapPtrBase@_WVCCRTAllocator@ATL@@@ATL@@IAE@XZ 10007830 f i DlgMatchWizard.obj
 0001:00006860       ??0?$CTraceCategoryEx@$0CAAA@$0A@@ATL@@QAE@PBD@Z 10007860 f i DlgMatchWizard.obj
 0001:000068a0       ??0?$CWHArray@PAUtagGameMatchOption@@ABQAU1@@@QAE@ABV0@@Z 100078a0 f i DlgMatchWizard.obj
 0001:00006910       ??0?$CWHArray@PAUtagMatchRewardInfo@@ABQAU1@@@QAE@ABV0@@Z 10007910 f i DlgMatchWizard.obj
 0001:00006980       ??0CDlgMatchDistribute@@QAE@XZ 10007980 f   DlgMatchWizard.obj
 0001:000069c0       ??0CDlgMatchImmediate@@QAE@XZ 100079c0 f   DlgMatchWizard.obj
 0001:00006a00       ??0CDlgMatchItem@@IAE@I@Z  10007a00 f   DlgMatchWizard.obj
 0001:00006a70       ??0CDlgMatchLockTime@@QAE@XZ 10007a70 f   DlgMatchWizard.obj
 0001:00006ab0       ??0CDlgMatchRankingMode@@QAE@XZ 10007ab0 f   DlgMatchWizard.obj
 0001:00006af0       ??0CDlgMatchReward@@QAE@XZ 10007af0 f   DlgMatchWizard.obj
 0001:00006b80       ??0CDlgMatchSignup1@@QAE@XZ 10007b80 f   DlgMatchWizard.obj
 0001:00006bc0       ??0CDlgMatchSignup2@@QAE@XZ 10007bc0 f   DlgMatchWizard.obj
 0001:00006c00       ??0CDlgMatchWizard@@QAE@XZ 10007c00 f   DlgMatchWizard.obj
 0001:00006d90       ??0CDlgMatchWizardItem@@IAE@I@Z 10007d90 f   DlgMatchWizard.obj
 0001:00006e20       ??0CDlgMatchWizardStep1@@QAE@XZ 10007e20 f   DlgMatchWizard.obj
 0001:00006f30       ??0CDlgMatchWizardStep2@@QAE@XZ 10007f30 f   DlgMatchWizard.obj
 0001:00006ff0       ??0CMatchInfoBuffer@@QAE@ABV0@@Z 10007ff0 f i DlgMatchWizard.obj
 0001:00007050       ??0CMatchInfoManager@@QAE@ABV0@@Z 10008050 f i DlgMatchWizard.obj
 0001:00007080       ??0CPreserveLastError@ATL@@QAE@XZ 10008080 f i DlgMatchWizard.obj
 0001:000070b0       ??0CRect@@QAE@HHHH@Z       100080b0 f i DlgMatchWizard.obj
 0001:00007100       ??0CRect@@QAE@XZ           10008100 f i DlgMatchWizard.obj
 0001:00007150       ??0CRewardInfoBuffer@@QAE@ABV0@@Z 10008150 f i DlgMatchWizard.obj
 0001:000071b0       ??0CSize@@QAE@HH@Z         100081b0 f i DlgMatchWizard.obj
 0001:000071f0       ??0CTime@ATL@@QAE@HHHHHHH@Z 100081f0 f i DlgMatchWizard.obj
 0001:00007680       ??0CTime@ATL@@QAE@XZ       10008680 f i DlgMatchWizard.obj
 0001:000076b0       ??0CTimeSpan@ATL@@QAE@XZ   100086b0 f i DlgMatchWizard.obj
 0001:000076e0       ??0CTimeSpan@ATL@@QAE@_J@Z 100086e0 f i DlgMatchWizard.obj
 0001:00007710       ??0CTraceFileAndLineInfo@ATL@@QAE@PBDH@Z 10008710 f i DlgMatchWizard.obj
 0001:00007750       ??1?$CHeapPtr@DVCCRTAllocator@ATL@@@ATL@@QAE@XZ 10008750 f i DlgMatchWizard.obj
 0001:00007780       ??1?$CHeapPtr@_WVCCRTAllocator@ATL@@@ATL@@QAE@XZ 10008780 f i DlgMatchWizard.obj
 0001:000077b0       ??1?$CHeapPtrBase@DVCCRTAllocator@ATL@@@ATL@@QAE@XZ 100087b0 f i DlgMatchWizard.obj
 0001:000077e0       ??1?$CHeapPtrBase@_WVCCRTAllocator@ATL@@@ATL@@QAE@XZ 100087e0 f i DlgMatchWizard.obj
 0001:00007810       ??1?$CWHArray@PAUtagGameMatchOption@@ABQAU1@@@UAE@XZ 10008810 f i DlgMatchWizard.obj
 0001:00007890       ??1?$CWHArray@PAUtagMatchRewardInfo@@ABQAU1@@@UAE@XZ 10008890 f i DlgMatchWizard.obj
 0001:00007910       ??1CDlgMatchDistribute@@UAE@XZ 10008910 f   DlgMatchWizard.obj
 0001:00007940       ??1CDlgMatchImmediate@@UAE@XZ 10008940 f   DlgMatchWizard.obj
 0001:00007970       ??1CDlgMatchItem@@MAE@XZ   10008970 f   DlgMatchWizard.obj
 0001:000079a0       ??1CDlgMatchLockTime@@UAE@XZ 100089a0 f   DlgMatchWizard.obj
 0001:000079d0       ??1CDlgMatchRankingMode@@UAE@XZ 100089d0 f   DlgMatchWizard.obj
 0001:00007a00       ??1CDlgMatchReward@@UAE@XZ 10008a00 f   DlgMatchWizard.obj
 0001:00007a40       ??1CDlgMatchSignup1@@UAE@XZ 10008a40 f   DlgMatchWizard.obj
 0001:00007a70       ??1CDlgMatchSignup2@@UAE@XZ 10008a70 f   DlgMatchWizard.obj
 0001:00007aa0       ??1CDlgMatchWizard@@UAE@XZ 10008aa0 f   DlgMatchWizard.obj
 0001:00007b20       ??1CDlgMatchWizardItem@@MAE@XZ 10008b20 f   DlgMatchWizard.obj
 0001:00007b50       ??1CDlgMatchWizardStep1@@UAE@XZ 10008b50 f   DlgMatchWizard.obj
 0001:00007be0       ??1CDlgMatchWizardStep2@@UAE@XZ 10008be0 f   DlgMatchWizard.obj
 0001:00007c30       ??1CPreserveLastError@ATL@@QAE@XZ 10008c30 f i DlgMatchWizard.obj
 0001:00007c60       ??4?$CWHArray@PAUtagGameMatchOption@@ABQAU1@@@QAEAAV0@ABV0@@Z 10008c60 f i DlgMatchWizard.obj
 0001:00007cc0       ??4?$CWHArray@PAUtagMatchRewardInfo@@ABQAU1@@@QAEAAV0@ABV0@@Z 10008cc0 f i DlgMatchWizard.obj
 0001:00007d20       ??4CMatchInfoBuffer@@QAEAAV0@ABV0@@Z 10008d20 f i DlgMatchWizard.obj
 0001:00007d70       ??4CMatchInfoManager@@QAEAAV0@ABV0@@Z 10008d70 f i DlgMatchWizard.obj
 0001:00007d90       ??4CRewardInfoBuffer@@QAEAAV0@ABV0@@Z 10008d90 f i DlgMatchWizard.obj
 0001:00007de0       ??A?$CWHArray@PAUtagGameMatchOption@@ABQAU1@@@QAEAAPAUtagGameMatchOption@@H@Z 10008de0 f i DlgMatchWizard.obj
 0001:00007e10       ??A?$CWHArray@PAUtagMatchRewardInfo@@ABQAU1@@@QAEAAPAUtagMatchRewardInfo@@H@Z 10008e10 f i DlgMatchWizard.obj
 0001:00007e40       ??B?$CHeapPtrBase@DVCCRTAllocator@ATL@@@ATL@@QBEPADXZ 10008e40 f i DlgMatchWizard.obj
 0001:00007e60       ??B?$CHeapPtrBase@_WVCCRTAllocator@ATL@@@ATL@@QBEPA_WXZ 10008e60 f i DlgMatchWizard.obj
 0001:00007e80       ??B?$CTraceCategoryEx@$0CAAA@$0A@@ATL@@QAEIXZ 10008e80 f i DlgMatchWizard.obj
 0001:00007ea0       ??BCRect@@QAEPAUtagRECT@@XZ 10008ea0 f i DlgMatchWizard.obj
 0001:00007ec0       ??GCTime@ATL@@QBE?AVCTimeSpan@1@V01@@Z 10008ec0 f i DlgMatchWizard.obj
 0001:00007f00       ??RCTraceFileAndLineInfo@ATL@@QBAXHIPBDZZ 10008f00 f i DlgMatchWizard.obj
 0001:00007fb0       ??_ECDlgMatchDistribute@@UAEPAXI@Z 10008fb0 f i DlgMatchWizard.obj
 0001:000080b0       ??_ECDlgMatchImmediate@@UAEPAXI@Z 100090b0 f i DlgMatchWizard.obj
 0001:000081b0       ??_ECDlgMatchItem@@MAEPAXI@Z 100091b0 f i DlgMatchWizard.obj
 0001:000082b0       ??_ECDlgMatchLockTime@@UAEPAXI@Z 100092b0 f i DlgMatchWizard.obj
 0001:000083b0       ??_ECDlgMatchRankingMode@@UAEPAXI@Z 100093b0 f i DlgMatchWizard.obj
 0001:000084b0       ??_ECDlgMatchReward@@UAEPAXI@Z 100094b0 f i DlgMatchWizard.obj
 0001:000085b0       ??_ECDlgMatchSignup1@@UAEPAXI@Z 100095b0 f i DlgMatchWizard.obj
 0001:000086b0       ??_ECDlgMatchSignup2@@UAEPAXI@Z 100096b0 f i DlgMatchWizard.obj
 0001:000087b0       ??_ECDlgMatchWizard@@UAEPAXI@Z 100097b0 f i DlgMatchWizard.obj
 0001:000088b0       ??_ECDlgMatchWizardItem@@MAEPAXI@Z 100098b0 f i DlgMatchWizard.obj
 0001:000089b0       ??_ECDlgMatchWizardStep1@@UAEPAXI@Z 100099b0 f i DlgMatchWizard.obj
 0001:00008ab0       ??_ECDlgMatchWizardStep2@@UAEPAXI@Z 10009ab0 f i DlgMatchWizard.obj
 0001:00008bb0       ??_ECMatchInfoBuffer@@UAEPAXI@Z 10009bb0 f i DlgMatchWizard.obj
 0001:00008c90       ??_ECMatchInfoManager@@UAEPAXI@Z 10009c90 f i DlgMatchWizard.obj
 0001:00008d70       ??_ECRewardInfoBuffer@@UAEPAXI@Z 10009d70 f i DlgMatchWizard.obj
 0001:00008e50       ??_E?$CWHArray@PAUtagGameMatchOption@@ABQAU1@@@UAEPAXI@Z 10009e50 f i DlgMatchWizard.obj
 0001:00008e50       ??_G?$CWHArray@PAUtagGameMatchOption@@ABQAU1@@@UAEPAXI@Z 10009e50 f i DlgMatchWizard.obj
 0001:00008ea0       ??_E?$CWHArray@PAUtagMatchRewardInfo@@ABQAU1@@@UAEPAXI@Z 10009ea0 f i DlgMatchWizard.obj
 0001:00008ea0       ??_G?$CWHArray@PAUtagMatchRewardInfo@@ABQAU1@@@UAEPAXI@Z 10009ea0 f i DlgMatchWizard.obj
 0001:00008ef0       ??_GCDlgMatchDistribute@@UAEPAXI@Z 10009ef0 f i DlgMatchWizard.obj
 0001:00008f50       ??_GCDlgMatchImmediate@@UAEPAXI@Z 10009f50 f i DlgMatchWizard.obj
 0001:00008fb0       ??_GCDlgMatchItem@@MAEPAXI@Z 10009fb0 f i DlgMatchWizard.obj
 0001:00009010       ??_GCDlgMatchLockTime@@UAEPAXI@Z 1000a010 f i DlgMatchWizard.obj
 0001:00009070       ??_GCDlgMatchRankingMode@@UAEPAXI@Z 1000a070 f i DlgMatchWizard.obj
 0001:000090d0       ??_GCDlgMatchReward@@UAEPAXI@Z 1000a0d0 f i DlgMatchWizard.obj
 0001:00009130       ??_GCDlgMatchSignup1@@UAEPAXI@Z 1000a130 f i DlgMatchWizard.obj
 0001:00009190       ??_GCDlgMatchSignup2@@UAEPAXI@Z 1000a190 f i DlgMatchWizard.obj
 0001:000091f0       ??_GCDlgMatchWizard@@UAEPAXI@Z 1000a1f0 f i DlgMatchWizard.obj
 0001:00009250       ??_GCDlgMatchWizardItem@@MAEPAXI@Z 1000a250 f i DlgMatchWizard.obj
 0001:000092b0       ??_GCDlgMatchWizardStep1@@UAEPAXI@Z 1000a2b0 f i DlgMatchWizard.obj
 0001:00009310       ??_GCDlgMatchWizardStep2@@UAEPAXI@Z 1000a310 f i DlgMatchWizard.obj
 0001:00009370       ??_GCMatchInfoBuffer@@UAEPAXI@Z 1000a370 f i DlgMatchWizard.obj
 0001:000093c0       ??_GCMatchInfoManager@@UAEPAXI@Z 1000a3c0 f i DlgMatchWizard.obj
 0001:00009410       ??_GCRewardInfoBuffer@@UAEPAXI@Z 1000a410 f i DlgMatchWizard.obj
 0001:00009460       ??_H@YGXPAXIIP6EPAX0@Z@Z   1000a460 f i DlgMatchWizard.obj
 0001:000094b0       ?ActiveOptionItem@CDlgMatchWizardStep1@@IAEXE@Z 1000a4b0 f   DlgMatchWizard.obj
 0001:00009610       ?ActiveWizardItem@CDlgMatchWizard@@AAE_NG@Z 1000a610 f   DlgMatchWizard.obj
 0001:000099b0       ?AfxAssertFailedLine@@YGHPBDH@Z 1000a9b0 f i DlgMatchWizard.obj
 0001:00009a20       ?Allocate@?$CHeapPtr@DVCCRTAllocator@ATL@@@ATL@@QAE_NI@Z 1000aa20 f i DlgMatchWizard.obj
 0001:00009a80       ?Allocate@?$CHeapPtr@_WVCCRTAllocator@ATL@@@ATL@@QAE_NI@Z 1000aa80 f i DlgMatchWizard.obj
 0001:00009ae0       ?Allocate@CCRTAllocator@ATL@@SAPAXI@Z 1000aae0 f i DlgMatchWizard.obj
 0001:00009b10       ?AllocateBytes@?$CHeapPtrBase@DVCCRTAllocator@ATL@@@ATL@@QAE_NI@Z 1000ab10 f i DlgMatchWizard.obj
 0001:00009b90       ?AllocateBytes@?$CHeapPtrBase@_WVCCRTAllocator@ATL@@@ATL@@QAE_NI@Z 1000ab90 f i DlgMatchWizard.obj
 0001:00009c10       ?AtlThrowImpl@ATL@@YGXJ@Z  1000ac10 f i DlgMatchWizard.obj
 0001:00009c90       ?CreateMatchItem@CDlgMatchItem@@AAEXABVCRect@@PAVCWnd@@@Z 1000ac90 f   DlgMatchWizard.obj
 0001:00009d30       ?DeflateRect@CRect@@QAEXHHHH@Z 1000ad30 f i DlgMatchWizard.obj
 0001:00009da0       ?DoDataExchange@CDlgMatchReward@@MAEXPAVCDataExchange@@@Z 1000ada0 f   DlgMatchWizard.obj
 0001:00009df0       ?DoDataExchange@CDlgMatchWizardStep1@@MAEXPAVCDataExchange@@@Z 1000adf0 f   DlgMatchWizard.obj
 0001:00009e20       ?DoDataExchange@CDlgMatchWizardStep2@@MAEXPAVCDataExchange@@@Z 1000ae20 f   DlgMatchWizard.obj
 0001:00009e50       ?ElementAt@?$CWHArray@PAUtagGameMatchOption@@ABQAU1@@@QAEAAPAUtagGameMatchOption@@H@Z 1000ae50 f i DlgMatchWizard.obj
 0001:00009ed0       ?ElementAt@?$CWHArray@PAUtagMatchRewardInfo@@ABQAU1@@@QAEAAPAUtagMatchRewardInfo@@H@Z 1000aed0 f i DlgMatchWizard.obj
 0001:00009f50       ?Free@?$CHeapPtrBase@DVCCRTAllocator@ATL@@@ATL@@QAEXXZ 1000af50 f i DlgMatchWizard.obj
 0001:00009f90       ?Free@?$CHeapPtrBase@_WVCCRTAllocator@ATL@@@ATL@@QAEXXZ 1000af90 f i DlgMatchWizard.obj
 0001:00009fd0       ?Free@CCRTAllocator@ATL@@SAXPAX@Z 1000afd0 f i DlgMatchWizard.obj
 0001:0000a000       ?GetAsSystemTime@CTime@ATL@@QBE_NAAU_SYSTEMTIME@@@Z 1000b000 f i DlgMatchWizard.obj
 0001:0000a0f0       ?GetCategoryName@CTrace@ATL@@CAPA_WI@Z 1000b0f0 f i DlgMatchWizard.obj
 0001:0000a160       ?GetCount@?$CWHArray@PAUtagGameMatchOption@@ABQAU1@@@QBEHXZ 1000b160 f i DlgMatchWizard.obj
 0001:0000a180       ?GetCount@?$CWHArray@PAUtagMatchRewardInfo@@ABQAU1@@@QBEHXZ 1000b180 f i DlgMatchWizard.obj
 0001:0000a1a0       ?GetDay@CTime@ATL@@QBEHXZ  1000b1a0 f i DlgMatchWizard.obj
 0001:0000a210       ?GetGameMatchOption@CDlgMatchItem@@IAEPAUtagGameMatchOption@@XZ 1000b210 f i DlgMatchWizard.obj
 0001:0000a240       ?GetGameMatchOption@CDlgMatchWizard@@QAEXAAUtagGameMatchOption@@@Z 1000b240 f   DlgMatchWizard.obj
 0001:0000a280       ?GetHour@CTime@ATL@@QBEHXZ 1000b280 f i DlgMatchWizard.obj
 0001:0000a2f0       ?GetLocalTm@CTime@ATL@@QBEPAUtm@@PAU3@@Z 1000b2f0 f i DlgMatchWizard.obj
 0001:0000a3f0       ?GetMatchRewardOption@CDlgMatchReward@@IAE_NAAUtagMatchRewardInfo@@AAG1@Z 1000b3f0 f   DlgMatchWizard.obj
 0001:0000a520       ?GetMessageMap@CDlgMatchItem@@MBEPBUAFX_MSGMAP@@XZ 1000b520 f   DlgMatchWizard.obj
 0001:0000a540       ?GetMessageMap@CDlgMatchReward@@MBEPBUAFX_MSGMAP@@XZ 1000b540 f   DlgMatchWizard.obj
 0001:0000a560       ?GetMessageMap@CDlgMatchSignup1@@MBEPBUAFX_MSGMAP@@XZ 1000b560 f   DlgMatchWizard.obj
 0001:0000a580       ?GetMessageMap@CDlgMatchWizard@@MBEPBUAFX_MSGMAP@@XZ 1000b580 f   DlgMatchWizard.obj
 0001:0000a5a0       ?GetMessageMap@CDlgMatchWizardItem@@MBEPBUAFX_MSGMAP@@XZ 1000b5a0 f   DlgMatchWizard.obj
 0001:0000a5c0       ?GetMessageMap@CDlgMatchWizardStep1@@MBEPBUAFX_MSGMAP@@XZ 1000b5c0 f   DlgMatchWizard.obj
 0001:0000a5e0       ?GetMinute@CTime@ATL@@QBEHXZ 1000b5e0 f i DlgMatchWizard.obj
 0001:0000a650       ?GetMonth@CTime@ATL@@QBEHXZ 1000b650 f i DlgMatchWizard.obj
 0001:0000a6c0       ?GetSecond@CTime@ATL@@QBEHXZ 1000b6c0 f i DlgMatchWizard.obj
 0001:0000a730       ?GetThisMessageMap@CDlgMatchReward@@KGPBUAFX_MSGMAP@@XZ 1000b730 f   DlgMatchWizard.obj
 0001:0000a750       ?GetThisMessageMap@CDlgMatchSignup1@@KGPBUAFX_MSGMAP@@XZ 1000b750 f   DlgMatchWizard.obj
 0001:0000a770       ?GetThisMessageMap@CDlgMatchWizard@@KGPBUAFX_MSGMAP@@XZ 1000b770 f   DlgMatchWizard.obj
 0001:0000a790       ?GetThisMessageMap@CDlgMatchWizardStep1@@KGPBUAFX_MSGMAP@@XZ 1000b790 f   DlgMatchWizard.obj
 0001:0000a7b0       ?GetTimeSpan@CTimeSpan@ATL@@QBE_JXZ 1000b7b0 f i DlgMatchWizard.obj
 0001:0000a7e0       ?GetYear@CTime@ATL@@QBEHXZ 1000b7e0 f i DlgMatchWizard.obj
 0001:0000a850       ?Height@CRect@@QBEHXZ      1000b850 f i DlgMatchWizard.obj
 0001:0000a880       ?InitBaseOption@CDlgMatchWizardStep1@@IAEXXZ 1000b880 f   DlgMatchWizard.obj
 0001:0000a9d0       ?OnCancel@CDlgMatchItem@@MAEXXZ 1000b9d0 f i DlgMatchWizard.obj
 0001:0000a9f0       ?OnCancel@CDlgMatchWizardItem@@MAEXXZ 1000b9f0 f   DlgMatchWizard.obj
 0001:0000aa30       ?OnEventMatchTypeChanged@CDlgMatchItem@@UAEXE@Z 1000ba30 f   DlgMatchWizard.obj
 0001:0000aa50       ?OnEventMatchTypeChanged@CDlgMatchRankingMode@@UAEXE@Z 1000ba50 f   DlgMatchWizard.obj
 0001:0000aab0       ?OnEventMatchTypeChanged@CDlgMatchSignup1@@UAEXE@Z 1000bab0 f   DlgMatchWizard.obj
 0001:0000ab20       ?OnInitDialog@CDlgMatchDistribute@@MAEHXZ 1000bb20 f   DlgMatchWizard.obj
 0001:0000ad40       ?OnInitDialog@CDlgMatchImmediate@@MAEHXZ 1000bd40 f   DlgMatchWizard.obj
 0001:0000af60       ?OnInitDialog@CDlgMatchLockTime@@MAEHXZ 1000bf60 f   DlgMatchWizard.obj
 0001:0000b4b0       ?OnInitDialog@CDlgMatchRankingMode@@MAEHXZ 1000c4b0 f   DlgMatchWizard.obj
 0001:0000b5b0       ?OnInitDialog@CDlgMatchReward@@MAEHXZ 1000c5b0 f   DlgMatchWizard.obj
 0001:0000b650       ?OnInitDialog@CDlgMatchSignup1@@MAEHXZ 1000c650 f   DlgMatchWizard.obj
 0001:0000ba20       ?OnInitDialog@CDlgMatchSignup2@@MAEHXZ 1000ca20 f   DlgMatchWizard.obj
 0001:0000bb20       ?OnInitDialog@CDlgMatchWizard@@UAEHXZ 1000cb20 f   DlgMatchWizard.obj
 0001:0000bc30       ?OnInitDialog@CDlgMatchWizardStep1@@MAEHXZ 1000cc30 f   DlgMatchWizard.obj
 0001:0000bea0       ?OnInitDialog@CDlgMatchWizardStep2@@MAEHXZ 1000cea0 f   DlgMatchWizard.obj
 0001:0000bed0       ?OnMatchItemActive@CDlgMatchWizardStep1@@UAEXXZ 1000ced0 f   DlgMatchWizard.obj
 0001:0000bef0       ?OnMatchItemActive@CDlgMatchWizardStep2@@UAEXXZ 1000cef0 f   DlgMatchWizard.obj
 0001:0000c010       ?OnOK@CDlgMatchItem@@MAEXXZ 1000d010 f i DlgMatchWizard.obj
 0001:0000c030       ?OnOK@CDlgMatchWizard@@UAEXXZ 1000d030 f   DlgMatchWizard.obj
 0001:0000c080       ?OnOK@CDlgMatchWizardItem@@MAEXXZ 1000d080 f   DlgMatchWizard.obj
 0001:0000c0c0       ?RectifyControl@CDlgMatchDistribute@@MAEXHH@Z 1000d0c0 f   DlgMatchWizard.obj
 0001:0000c0e0       ?RectifyControl@CDlgMatchImmediate@@MAEXHH@Z 1000d0e0 f   DlgMatchWizard.obj
 0001:0000c100       ?RectifyControl@CDlgMatchLockTime@@MAEXHH@Z 1000d100 f   DlgMatchWizard.obj
 0001:0000c120       ?RectifyControl@CDlgMatchRankingMode@@MAEXHH@Z 1000d120 f   DlgMatchWizard.obj
 0001:0000c140       ?RectifyControl@CDlgMatchReward@@MAEXHH@Z 1000d140 f   DlgMatchWizard.obj
 0001:0000c160       ?RectifyControl@CDlgMatchSignup1@@MAEXHH@Z 1000d160 f   DlgMatchWizard.obj
 0001:0000c180       ?RectifyControl@CDlgMatchSignup2@@MAEXHH@Z 1000d180 f   DlgMatchWizard.obj
 0001:0000c1a0       ?RectifyControl@CDlgMatchWizardStep1@@UAEXHH@Z 1000d1a0 f   DlgMatchWizard.obj
 0001:0000c1c0       ?RectifyControl@CDlgMatchWizardStep2@@UAEXHH@Z 1000d1c0 f   DlgMatchWizard.obj
 0001:0000c1e0       ?RegisterCategory@CTrace@ATL@@SAXPBDI@Z 1000d1e0 f i DlgMatchWizard.obj
 0001:0000c300       ?SaveBaseOption@CDlgMatchWizardStep1@@IAE_NXZ 1000d300 f   DlgMatchWizard.obj
 0001:0000c3d0       ?SaveInputInfo@CDlgMatchDistribute@@MAE_NXZ 1000d3d0 f   DlgMatchWizard.obj
 0001:0000c550       ?SaveInputInfo@CDlgMatchImmediate@@MAE_NXZ 1000d550 f   DlgMatchWizard.obj
 0001:0000c770       ?SaveInputInfo@CDlgMatchLockTime@@MAE_NXZ 1000d770 f   DlgMatchWizard.obj
 0001:0000d010       ?SaveInputInfo@CDlgMatchRankingMode@@MAE_NXZ 1000e010 f   DlgMatchWizard.obj
 0001:0000d160       ?SaveInputInfo@CDlgMatchReward@@MAE_NXZ 1000e160 f   DlgMatchWizard.obj
 0001:0000d180       ?SaveInputInfo@CDlgMatchSignup1@@MAE_NXZ 1000e180 f   DlgMatchWizard.obj
 0001:0000d5e0       ?SaveInputInfo@CDlgMatchSignup2@@MAE_NXZ 1000e5e0 f   DlgMatchWizard.obj
 0001:0000d740       ?SaveInputInfo@CDlgMatchWizardStep1@@UAE_NXZ 1000e740 f   DlgMatchWizard.obj
 0001:0000d7d0       ?SaveInputInfo@CDlgMatchWizardStep2@@UAE_NXZ 1000e7d0 f   DlgMatchWizard.obj
 0001:0000d820       ?SaveItemData@CDlgMatchWizardItem@@AAE_NXZ 1000e820 f   DlgMatchWizard.obj
 0001:0000d890       ?SetGameKindID@CDlgMatchWizard@@QAEXG@Z 1000e890 f i DlgMatchWizard.obj
 0001:0000d8c0       ?SetGameMatchOption@CDlgMatchItem@@IAEXPAUtagGameMatchOption@@@Z 1000e8c0 f   DlgMatchWizard.obj
 0001:0000d8f0       ?SetGameMatchOption@CDlgMatchWizard@@QAEXAAUtagGameMatchOption@@@Z 1000e8f0 f   DlgMatchWizard.obj
 0001:0000d930       ?SetMatchInfoBuffer@CDlgMatchItem@@IAEXPAVCMatchInfoBuffer@@@Z 1000e930 f   DlgMatchWizard.obj
 0001:0000d960       ?SetMatchRewardOption@CDlgMatchReward@@IAEXPAUtagMatchRewardInfo@@@Z 1000e960 f   DlgMatchWizard.obj
 0001:0000da40       ?SetRewardInfoBuffer@CDlgMatchItem@@IAEXPAVCRewardInfoBuffer@@@Z 1000ea40 f   DlgMatchWizard.obj
 0001:0000da70       ?ShowMatchItem@CDlgMatchItem@@AAE_NABVCRect@@PAVCWnd@@@Z 1000ea70 f   DlgMatchWizard.obj
 0001:0000dac0       ?ShowWizardItem@CDlgMatchWizardItem@@AAE_NABVCRect@@PAVCWnd@@@Z 1000eac0 f   DlgMatchWizard.obj
 0001:0000dba0       ?TraceV@CTrace@ATL@@CAXPBDHIIPB_W@Z 1000eba0 f i DlgMatchWizard.obj
 0001:0000de30       ?TraceV@CTrace@ATL@@SAXPBDHII0PAD@Z 1000ee30 f i DlgMatchWizard.obj
 0001:0000e060       ?TransferMatchReward@CDlgMatchWizard@@AAEXAAV?$CStringT@DV?$StrTraitMFC_DLL@DV?$ChTraitsCRT@D@ATL@@@@@ATL@@00@Z 1000f060 f   DlgMatchWizard.obj
 0001:0000e200       ?Width@CRect@@QBEHXZ       1000f200 f i DlgMatchWizard.obj
 0001:0000e230       ?_Maklocwcs@std@@YAPA_WPB_W@Z 1000f230 f i DlgMatchWizard.obj
 0001:0000e2b0       ?__empty_global_delete@@YAXPAX@Z 1000f2b0 f i DlgMatchWizard.obj
 0001:0000e2d0       ?__empty_global_delete@@YAXPAXI@Z 1000f2d0 f i DlgMatchWizard.obj
 0001:0000e2f0       ?__global_array_delete@@YAXPAX@Z 1000f2f0 f i DlgMatchWizard.obj
 0001:0000e320       ?__global_array_delete@@YAXPAXI@Z 1000f320 f i DlgMatchWizard.obj
 0001:0000e350       ?__global_delete@@YAXPAX@Z 1000f350 f i DlgMatchWizard.obj
 0001:0000e380       ?__global_delete@@YAXPAXI@Z 1000f380 f i DlgMatchWizard.obj
 0001:0000e3b0       _HRESULT_FROM_WIN32        1000f3b0 f i DlgMatchWizard.obj
 0001:0000e400       ___local_stdio_printf_options 1000f400 f i DlgMatchWizard.obj
 0001:0000e420       __vscprintf                1000f420 f i DlgMatchWizard.obj
 0001:0000e450       __vscprintf_l              1000f450 f i DlgMatchWizard.obj
 0001:0000e4c0       __vsnprintf_s              1000f4c0 f i DlgMatchWizard.obj
 0001:0000e500       __vsnprintf_s_l            1000f500 f i DlgMatchWizard.obj
 0001:0000e570       __vswprintf_s_l            1000f570 f i DlgMatchWizard.obj
 0001:0000e5e0       _swprintf_s                1000f5e0 f i DlgMatchWizard.obj
 0001:0000e630       _wmemcpy                   1000f630 f i DlgMatchWizard.obj
 0001:0000e660       ?OnBnClickedLoadServer@CDlgServerItem@@IAEXXZ 1000f660 f   DlgServerItem.obj
 0001:0000e730       ?OnBnClickedReLoadList@CDlgServerItem@@IAEXXZ 1000f730 f   DlgServerItem.obj
 0001:0000e760       ?OnBnClickedDeleteServer@CDlgServerItem@@IAEXXZ 1000f760 f   DlgServerItem.obj
 0001:0000e9f0       ?OnBnClickedServiceAttrib@CDlgServerItem@@IAEXXZ 1000f9f0 f   DlgServerItem.obj
 0001:0000ea10       ?OnNMDblclkServerList@CDlgServerItem@@IAEXPAUtagNMHDR@@PAJ@Z 1000fa10 f   DlgServerItem.obj
 0001:0000ea40       ?OnLvnItemChangedServerList@CDlgServerItem@@IAEXPAUtagNMHDR@@PAJ@Z 1000fa40 f   DlgServerItem.obj
 0001:0000ea70       ??0?$CTempldateHelper@UIGameServiceManager@@@@QAE@ABU_GUID@@K@Z 1000fa70 f i DlgServerItem.obj
 0001:0000eb20       ??0CDlgServerItem@@QAE@XZ  1000fb20 f   DlgServerItem.obj
 0001:0000ec00       ??0CGameServiceManagerHelper@@QAE@XZ 1000fc00 f i DlgServerItem.obj
 0001:0000ec40       ??0CMatchOptionBuffer@@QAE@ABV0@@Z 1000fc40 f i DlgServerItem.obj
 0001:0000eca0       ??0CServerInfoManager@@QAE@ABV0@@Z 1000fca0 f i DlgServerItem.obj
 0001:0000ed00       ??0CreateRoomPayFee@@QAE@XZ 1000fd00 f i DlgServerItem.obj
 0001:0000ed60       ??0tagModuleInitParameter@@QAE@XZ 1000fd60 f i DlgServerItem.obj
 0001:0000ed90       ??0tagPersonalRoomOptionRightAndFee@@QAE@XZ 1000fd90 f i DlgServerItem.obj
 0001:0000edd0       ??1?$CTempldateHelper@UIGameServiceManager@@@@UAE@XZ 1000fdd0 f i DlgServerItem.obj
 0001:0000ee40       ??1CDlgServerItem@@UAE@XZ  1000fe40 f   DlgServerItem.obj
 0001:0000ee90       ??1CGameServiceManagerHelper@@UAE@XZ 1000fe90 f i DlgServerItem.obj
 0001:0000eec0       ??4CMatchOptionBuffer@@QAEAAV0@ABV0@@Z 1000fec0 f i DlgServerItem.obj
 0001:0000ef10       ??4CServerInfoManager@@QAEAAV0@ABV0@@Z 1000ff10 f i DlgServerItem.obj
 0001:0000ef60       ??C?$CTempldateHelper@UIGameServiceManager@@@@QBEPAUIGameServiceManager@@XZ 1000ff60 f i DlgServerItem.obj
 0001:0000ef90       ??_ECDlgServerItem@@UAEPAXI@Z 1000ff90 f i DlgServerItem.obj
 0001:0000f090       ??_ECMatchOptionBuffer@@UAEPAXI@Z 10010090 f i DlgServerItem.obj
 0001:0000f170       ??_ECServerInfoManager@@UAEPAXI@Z 10010170 f i DlgServerItem.obj
 0001:0000f250       ??_G?$CTempldateHelper@UIGameServiceManager@@@@UAEPAXI@Z 10010250 f i DlgServerItem.obj
 0001:0000f250       ??_E?$CTempldateHelper@UIGameServiceManager@@@@UAEPAXI@Z 10010250 f i DlgServerItem.obj
 0001:0000f2a0       ??_GCDlgServerItem@@UAEPAXI@Z 100102a0 f i DlgServerItem.obj
 0001:0000f300       ??_ECGameServiceManagerHelper@@UAEPAXI@Z 10010300 f i DlgServerItem.obj
 0001:0000f300       ??_GCGameServiceManagerHelper@@UAEPAXI@Z 10010300 f i DlgServerItem.obj
 0001:0000f350       ??_GCMatchOptionBuffer@@UAEPAXI@Z 10010350 f i DlgServerItem.obj
 0001:0000f3a0       ??_GCServerInfoManager@@UAEPAXI@Z 100103a0 f i DlgServerItem.obj
 0001:0000f3f0       ?CloseInstance@?$CTempldateHelper@UIGameServiceManager@@@@QAE_NXZ 100103f0 f i DlgServerItem.obj
 0001:0000f4a0       ?CreateInstance@?$CTempldateHelper@UIGameServiceManager@@@@QAE_NXZ 100104a0 f i DlgServerItem.obj
 0001:0000f760       ?DoDataExchange@CDlgServerItem@@MAEXPAVCDataExchange@@@Z 10010760 f   DlgServerItem.obj
 0001:0000f7b0       ?GetInterface@?$CTempldateHelper@UIGameServiceManager@@@@QBEPAUIGameServiceManager@@XZ 100107b0 f i DlgServerItem.obj
 0001:0000f7e0       ?GetMessageMap@CDlgServerItem@@MBEPBUAFX_MSGMAP@@XZ 100107e0 f   DlgServerItem.obj
 0001:0000f800       ?GetModuleInitParameter@CDlgServerItem@@IAE_NPAUtagGameServerInfo@@_N@Z 10010800 f   DlgServerItem.obj
 0001:0000ff40       ?GetNextAssoc@?$CMap@GGPAUtagGameServerInfo@@PAU1@@@QBEXAAPAU__POSITION@@AAGAAPAUtagGameServerInfo@@@Z 10010f40 f i DlgServerItem.obj
 0001:00010190       ?GetStartPosition@?$CMap@GGPAUtagGameServerInfo@@PAU1@@@QBEPAU__POSITION@@XZ 10011190 f i DlgServerItem.obj
 0001:000101d0       ?GetThisMessageMap@CDlgServerItem@@KGPBUAFX_MSGMAP@@XZ 100111d0 f   DlgServerItem.obj
 0001:000101f0       ?LoadDBServerItem@CDlgServerItem@@IAE_NXZ 100111f0 f   DlgServerItem.obj
 0001:00010410       ?LoadPersonalRoomPatameter@CDlgServerItem@@QAE_NG@Z 10011410 f   DlgServerItem.obj
 0001:00010520       ?OnInitDialog@CDlgServerItem@@MAEHXZ 10011520 f   DlgServerItem.obj
 0001:00010570       ?OnOK@CDlgServerItem@@MAEXXZ 10011570 f   DlgServerItem.obj
 0001:00010590       ?OpenGameServer@CDlgServerItem@@QAE_NG@Z 10011590 f   DlgServerItem.obj
 0001:000107a0       ?OpenGameServer@CDlgServerItem@@QAE_NXZ 100117a0 f   DlgServerItem.obj
 0001:00010800       ?PreTranslateMessage@CDlgServerItem@@MAEHPAUtagMSG@@@Z 10011800 f   DlgServerItem.obj
 0001:00010850       ?SetModuleCreateInfo@?$CTempldateHelper@UIGameServiceManager@@@@QAEXPBD0@Z 10011850 f i DlgServerItem.obj
 0001:000108a0       ?UpdateControlStatus@CDlgServerItem@@IAE_NXZ 100118a0 f   DlgServerItem.obj
 0001:00010a10       ?OnBnClickedLoadMatch@CDlgServerMatch@@IAEXXZ 10011a10 f   DlgServerMatch.obj
 0001:00010ae0       ?OnBnClickedOptionMatch@CDlgServerMatch@@IAEXXZ 10011ae0 f   DlgServerMatch.obj
 0001:00010ca0       ?OnBnClickedDeleteMatch@CDlgServerMatch@@IAEXXZ 10011ca0 f   DlgServerMatch.obj
 0001:00010de0       ?OnBnClickedCreateMatch@CDlgServerMatch@@IAEXXZ 10011de0 f   DlgServerMatch.obj
 0001:00010f00       ?OnNMDblclkServerList@CDlgServerMatch@@IAEXPAUtagNMHDR@@PAJ@Z 10011f00 f   DlgServerMatch.obj
 0001:00010f30       ?OnLvnItemChangedServerList@CDlgServerMatch@@IAEXPAUtagNMHDR@@PAJ@Z 10011f30 f   DlgServerMatch.obj
 0001:00011010       ??0?$CTempldateHelper@UIDataBase@@@@QAE@ABU_GUID@@KPBD1@Z 10012010 f i DlgServerMatch.obj
 0001:000110c0       ??0CDataBaseHelper@@QAE@XZ 100120c0 f i DlgServerMatch.obj
 0001:00011110       ??0CDlgServerMatch@@QAE@XZ 10012110 f   DlgServerMatch.obj
 0001:00011220       ??0CModuleDBParameter@@QAE@ABV0@@Z 10012220 f i DlgServerMatch.obj
 0001:00011290       ??1?$CTempldateHelper@UIDataBase@@@@UAE@XZ 10012290 f i DlgServerMatch.obj
 0001:00011300       ??1CDataBaseHelper@@UAE@XZ 10012300 f i DlgServerMatch.obj
 0001:00011330       ??1CDlgServerMatch@@UAE@XZ 10012330 f   DlgServerMatch.obj
 0001:00011380       ??4CModuleDBParameter@@QAEAAV0@ABV0@@Z 10012380 f i DlgServerMatch.obj
 0001:000113e0       ??C?$CTempldateHelper@UIDataBase@@@@QBEPAUIDataBase@@XZ 100123e0 f i DlgServerMatch.obj
 0001:00011410       ??_ECDlgServerMatch@@UAEPAXI@Z 10012410 f i DlgServerMatch.obj
 0001:00011510       ??_ECModuleDBParameter@@UAEPAXI@Z 10012510 f i DlgServerMatch.obj
 0001:000115f0       ??_G?$CTempldateHelper@UIDataBase@@@@UAEPAXI@Z 100125f0 f i DlgServerMatch.obj
 0001:000115f0       ??_E?$CTempldateHelper@UIDataBase@@@@UAEPAXI@Z 100125f0 f i DlgServerMatch.obj
 0001:00011640       ??_ECDataBaseHelper@@UAEPAXI@Z 10012640 f i DlgServerMatch.obj
 0001:00011640       ??_GCDataBaseHelper@@UAEPAXI@Z 10012640 f i DlgServerMatch.obj
 0001:00011690       ??_GCDlgServerMatch@@UAEPAXI@Z 10012690 f i DlgServerMatch.obj
 0001:000116f0       ??_GCModuleDBParameter@@UAEPAXI@Z 100126f0 f i DlgServerMatch.obj
 0001:00011740       ?CloseInstance@?$CTempldateHelper@UIDataBase@@@@QAE_NXZ 10012740 f i DlgServerMatch.obj
 0001:000117f0       ?CreateInstance@?$CTempldateHelper@UIDataBase@@@@QAE_NXZ 100127f0 f i DlgServerMatch.obj
 0001:00011ab0       ?DoDataExchange@CDlgServerMatch@@MAEXPAVCDataExchange@@@Z 10012ab0 f   DlgServerMatch.obj
 0001:00011b00       ?GetGameMatchDBParameter@CModuleDBParameter@@QAEPAUtagDataBaseParameter@@XZ 10012b00 f i DlgServerMatch.obj
 0001:00011b30       ?GetInterface@?$CTempldateHelper@UIDataBase@@@@QBEPAUIDataBase@@XZ 10012b30 f i DlgServerMatch.obj
 0001:00011b60       ?GetMessageMap@CDlgServerMatch@@MBEPBUAFX_MSGMAP@@XZ 10012b60 f   DlgServerMatch.obj
 0001:00011b80       ?GetModuleDBParameter@CModuleDBParameter@@SAPAV1@XZ 10012b80 f i DlgServerMatch.obj
 0001:00011ba0       ?GetPlatformDBParameter@CModuleDBParameter@@QAEPAUtagDataBaseParameter@@XZ 10012ba0 f i DlgServerMatch.obj
 0001:00011bc0       ?GetThisMessageMap@CDlgServerMatch@@KGPBUAFX_MSGMAP@@XZ 10012bc0 f   DlgServerMatch.obj
 0001:00011be0       ?LoadDBMatchItem@CDlgServerMatch@@IAE_NXZ 10012be0 f   DlgServerMatch.obj
 0001:00011db0       ?OnInitDialog@CDlgServerMatch@@MAEHXZ 10012db0 f   DlgServerMatch.obj
 0001:00011df0       ?OpenGameMatch@CDlgServerMatch@@QAE_NAAUtagGameServiceAttrib@@AAUtagGameServiceOption@@@Z 10012df0 f   DlgServerMatch.obj
 0001:00011e80       ?QueryMatchDataBase@CDlgServerMatch@@IAE_NXZ 10012e80 f   DlgServerMatch.obj
 0001:00012450       ?SetGameMatchDBParameter@CModuleDBParameter@@QAEXAAUtagDataBaseParameter@@@Z 10013450 f i DlgServerMatch.obj
 0001:00012490       ?SetPlatformDBParameter@CModuleDBParameter@@QAEXAAUtagDataBaseParameter@@@Z 10013490 f i DlgServerMatch.obj
 0001:000124c0       ?OnSize@CDlgServerOptionItem@@AAEXIHH@Z 100134c0 f   DlgServerWizard.obj
 0001:00012520       ?GetThisMessageMap@CDlgServerOptionItem@@KGPBUAFX_MSGMAP@@XZ 10013520 f   DlgServerWizard.obj
 0001:00012540       ?OnSelchangeServerType@CDlgServerOptionItem1@@IAEXXZ 10013540 f   DlgServerWizard.obj
 0001:00012570       ?OnSelchangeServerKind@CDlgServerOptionItem1@@IAEXXZ 10013570 f   DlgServerWizard.obj
 0001:00012610       ?OnSelchangePersonalSqlType@CDlgServerOptionItem1@@IAEXXZ 10013610 f   DlgServerWizard.obj
 0001:00012770       ?OnBnClickedRevenueRadio@CDlgServerOptionItem1@@QAEXXZ 10013770 f   DlgServerWizard.obj
 0001:000127f0       ?OnBnClickedServiceRadio@CDlgServerOptionItem1@@QAEXXZ 100137f0 f   DlgServerWizard.obj
 0001:00012870       ?OnBnClickedJoinGameRadio@CDlgServerOptionItem5@@QAEXXZ 10013870 f   DlgServerWizard.obj
 0001:000128b0       ?OnBnClickedNotJoinRadio@CDlgServerOptionItem5@@QAEXXZ 100138b0 f   DlgServerWizard.obj
 0001:00012920       ?OnSelChangeGameMode1@CDlgServerOptionItem5@@QAEXXZ 10013920 f   DlgServerWizard.obj
 0001:000129f0       ?OnSelChangeGameMode2@CDlgServerOptionItem5@@QAEXXZ 100139f0 f   DlgServerWizard.obj
 0001:00012ac0       ?OnSelChangeGameMode3@CDlgServerOptionItem5@@QAEXXZ 10013ac0 f   DlgServerWizard.obj
 0001:00012b90       ?OnSelChangeGameMode4@CDlgServerOptionItem5@@QAEXXZ 10013b90 f   DlgServerWizard.obj
 0001:00012c60       ?OnSelChangeGameMode5@CDlgServerOptionItem5@@QAEXXZ 10013c60 f   DlgServerWizard.obj
 0001:00012d30       ?OnNcDestroy@CDlgServerOptionItemCustom@@AAEXXZ 10013d30 f   DlgServerWizard.obj
 0001:00012da0       ?OnSetFocus@CDlgServerOptionItemCustom@@AAEXPAVCWnd@@@Z 10013da0 f   DlgServerWizard.obj
 0001:00012df0       ?OnNcDestroy@CDlgServerOptionItemPersonal@@AAEXXZ 10013df0 f   DlgServerWizard.obj
 0001:00012e60       ?OnSetFocus@CDlgServerOptionItemPersonal@@AAEXPAVCWnd@@@Z 10013e60 f   DlgServerWizard.obj
 0001:00012eb0       ?OnSize@CDlgServerWizardItem@@AAEXIHH@Z 10013eb0 f   DlgServerWizard.obj
 0001:00012f10       ?GetThisMessageMap@CDlgServerWizardItem@@KGPBUAFX_MSGMAP@@XZ 10013f10 f   DlgServerWizard.obj
 0001:00012f30       ?OnNMDblclkModuleList@CDlgServerWizardItem1@@IAEXPAUtagNMHDR@@PAJ@Z 10013f30 f   DlgServerWizard.obj
 0001:00012fb0       ?OnSetFocus@CDlgServerWizardItem2@@IAEXPAVCWnd@@@Z 10013fb0 f   DlgServerWizard.obj
 0001:00013030       ?OnTcnSelchangeTabCtrl@CDlgServerWizardItem2@@IAEXPAUtagNMHDR@@PAJ@Z 10014030 f   DlgServerWizard.obj
 0001:000130f0       ?OnBnClickedLast@CDlgServerWizard@@QAEXXZ 100140f0 f   DlgServerWizard.obj
 0001:00013190       ?OnBnClickedNext@CDlgServerWizard@@QAEXXZ 10014190 f   DlgServerWizard.obj
 0001:00013200       ?OnBnClickedFinish@CDlgServerWizard@@QAEXXZ 10014200 f   DlgServerWizard.obj
 0001:00013b70       ??$_snprintf_s@$0BA@@@YAHAAY0BA@DIPBDZZ 10014b70 f i DlgServerWizard.obj
 0001:00013bb0       ??$_snprintf_s@$0BAE@@@YAHAAY0BAE@DIPBDZZ 10014bb0 f i DlgServerWizard.obj
 0001:00013bf0       ??$_snprintf_s@$0CAA@@@YAHAAY0CAA@DIPBDZZ 10014bf0 f i DlgServerWizard.obj
 0001:00013c30       ??0?$CA2CAEX@$0IA@@ATL@@QAE@PBD@Z 10014c30 f i DlgServerWizard.obj
 0001:00013c60       ??0?$CTraceCategoryEx@$0CAAAA@$0A@@ATL@@QAE@PBD@Z 10014c60 f i DlgServerWizard.obj
 0001:00013ca0       ??0CDlgServerOptionItem1@@QAE@XZ 10014ca0 f   DlgServerWizard.obj
 0001:00013ce0       ??0CDlgServerOptionItem2@@QAE@XZ 10014ce0 f   DlgServerWizard.obj
 0001:00013d20       ??0CDlgServerOptionItem3@@QAE@XZ 10014d20 f   DlgServerWizard.obj
 0001:00013d60       ??0CDlgServerOptionItem5@@QAE@XZ 10014d60 f   DlgServerWizard.obj
 0001:00013da0       ??0CDlgServerOptionItem@@IAE@I@Z 10014da0 f   DlgServerWizard.obj
 0001:00013ed0       ??0CDlgServerOptionItemCustom@@QAE@XZ 10014ed0 f   DlgServerWizard.obj
 0001:00013f30       ??0CDlgServerOptionItemPersonal@@QAE@XZ 10014f30 f   DlgServerWizard.obj
 0001:00013f90       ??0CDlgServerWizard@@QAE@XZ 10014f90 f   DlgServerWizard.obj
 0001:000140e0       ??0CDlgServerWizardItem1@@QAE@XZ 100150e0 f   DlgServerWizard.obj
 0001:000141d0       ??0CDlgServerWizardItem2@@QAE@XZ 100151d0 f   DlgServerWizard.obj
 0001:00014330       ??0CDlgServerWizardItem@@IAE@I@Z 10015330 f   DlgServerWizard.obj
 0001:000143c0       ??0CModuleInfoManager@@QAE@ABV0@@Z 100153c0 f i DlgServerWizard.obj
 0001:000143f0       ??0tagPersonalGeneralRule@@QAE@XZ 100153f0 f i DlgServerWizard.obj
 0001:00014420       ??0tagPersonalRule@@QAE@XZ 10015420 f i DlgServerWizard.obj
 0001:00014470       ??1?$CA2CAEX@$0IA@@ATL@@QAE@XZ 10015470 f i DlgServerWizard.obj
 0001:00014490       ??1CDlgServerOptionItem1@@UAE@XZ 10015490 f   DlgServerWizard.obj
 0001:000144c0       ??1CDlgServerOptionItem2@@UAE@XZ 100154c0 f   DlgServerWizard.obj
 0001:000144f0       ??1CDlgServerOptionItem3@@UAE@XZ 100154f0 f   DlgServerWizard.obj
 0001:00014520       ??1CDlgServerOptionItem5@@UAE@XZ 10015520 f   DlgServerWizard.obj
 0001:00014550       ??1CDlgServerOptionItem@@MAE@XZ 10015550 f   DlgServerWizard.obj
 0001:00014590       ??1CDlgServerOptionItemCustom@@UAE@XZ 10015590 f   DlgServerWizard.obj
 0001:000145c0       ??1CDlgServerOptionItemPersonal@@UAE@XZ 100155c0 f   DlgServerWizard.obj
 0001:000145f0       ??1CDlgServerWizard@@UAE@XZ 100155f0 f   DlgServerWizard.obj
 0001:00014640       ??1CDlgServerWizardItem1@@UAE@XZ 10015640 f   DlgServerWizard.obj
 0001:000146d0       ??1CDlgServerWizardItem2@@UAE@XZ 100156d0 f   DlgServerWizard.obj
 0001:00014780       ??1CDlgServerWizardItem@@MAE@XZ 10015780 f   DlgServerWizard.obj
 0001:000147b0       ??4CModuleInfoManager@@QAEAAV0@ABV0@@Z 100157b0 f i DlgServerWizard.obj
 0001:000147d0       ??B?$CA2CAEX@$0IA@@ATL@@QBEPBDXZ 100157d0 f i DlgServerWizard.obj
 0001:000147f0       ??_ECDlgServerOptionItem1@@UAEPAXI@Z 100157f0 f i DlgServerWizard.obj
 0001:000148f0       ??_ECDlgServerOptionItem2@@UAEPAXI@Z 100158f0 f i DlgServerWizard.obj
 0001:000149f0       ??_ECDlgServerOptionItem3@@UAEPAXI@Z 100159f0 f i DlgServerWizard.obj
 0001:00014af0       ??_ECDlgServerOptionItem5@@UAEPAXI@Z 10015af0 f i DlgServerWizard.obj
 0001:00014bf0       ??_ECDlgServerOptionItem@@MAEPAXI@Z 10015bf0 f i DlgServerWizard.obj
 0001:00014cf0       ??_ECDlgServerOptionItemCustom@@UAEPAXI@Z 10015cf0 f i DlgServerWizard.obj
 0001:00014df0       ??_ECDlgServerOptionItemPersonal@@UAEPAXI@Z 10015df0 f i DlgServerWizard.obj
 0001:00014ef0       ??_ECDlgServerWizard@@UAEPAXI@Z 10015ef0 f i DlgServerWizard.obj
 0001:00014ff0       ??_ECDlgServerWizardItem1@@UAEPAXI@Z 10015ff0 f i DlgServerWizard.obj
 0001:000150f0       ??_ECDlgServerWizardItem2@@UAEPAXI@Z 100160f0 f i DlgServerWizard.obj
 0001:000151f0       ??_ECDlgServerWizardItem@@MAEPAXI@Z 100161f0 f i DlgServerWizard.obj
 0001:000152f0       ??_ECModuleInfoManager@@UAEPAXI@Z 100162f0 f i DlgServerWizard.obj
 0001:000153d0       ??_GCDlgServerOptionItem1@@UAEPAXI@Z 100163d0 f i DlgServerWizard.obj
 0001:00015430       ??_GCDlgServerOptionItem2@@UAEPAXI@Z 10016430 f i DlgServerWizard.obj
 0001:00015490       ??_GCDlgServerOptionItem3@@UAEPAXI@Z 10016490 f i DlgServerWizard.obj
 0001:000154f0       ??_GCDlgServerOptionItem5@@UAEPAXI@Z 100164f0 f i DlgServerWizard.obj
 0001:00015550       ??_GCDlgServerOptionItem@@MAEPAXI@Z 10016550 f i DlgServerWizard.obj
 0001:000155b0       ??_GCDlgServerOptionItemCustom@@UAEPAXI@Z 100165b0 f i DlgServerWizard.obj
 0001:00015610       ??_GCDlgServerOptionItemPersonal@@UAEPAXI@Z 10016610 f i DlgServerWizard.obj
 0001:00015670       ??_GCDlgServerWizard@@UAEPAXI@Z 10016670 f i DlgServerWizard.obj
 0001:000156d0       ??_GCDlgServerWizardItem1@@UAEPAXI@Z 100166d0 f i DlgServerWizard.obj
 0001:00015730       ??_GCDlgServerWizardItem2@@UAEPAXI@Z 10016730 f i DlgServerWizard.obj
 0001:00015790       ??_GCDlgServerWizardItem@@MAEPAXI@Z 10016790 f i DlgServerWizard.obj
 0001:000157f0       ??_GCModuleInfoManager@@UAEPAXI@Z 100167f0 f i DlgServerWizard.obj
 0001:00015840       ?ActiveOptionItem@CDlgServerWizardItem2@@QAE_NG@Z 10016840 f   DlgServerWizard.obj
 0001:00015ab0       ?ActiveWizardItem@CDlgServerWizard@@AAE_NG@Z 10016ab0 f   DlgServerWizard.obj
 0001:00015e90       ?CreateGameServer@CDlgServerWizard@@QAE_NXZ 10016e90 f   DlgServerWizard.obj
 0001:00015ee0       ?DoDataExchange@CDlgServerWizardItem1@@MAEXPAVCDataExchange@@@Z 10016ee0 f   DlgServerWizard.obj
 0001:00015f50       ?DoDataExchange@CDlgServerWizardItem2@@MAEXPAVCDataExchange@@@Z 10016f50 f   DlgServerWizard.obj
 0001:00015fa0       ?GetErrorDescribe@?$CTempldateHelper@UIGameServiceManager@@@@QBEPBDXZ 10016fa0 f i DlgServerWizard.obj
 0001:00015fd0       ?GetMessageMap@CDlgServerOptionItem1@@MBEPBUAFX_MSGMAP@@XZ 10016fd0 f   DlgServerWizard.obj
 0001:00015ff0       ?GetMessageMap@CDlgServerOptionItem2@@MBEPBUAFX_MSGMAP@@XZ 10016ff0 f   DlgServerWizard.obj
 0001:00016010       ?GetMessageMap@CDlgServerOptionItem3@@MBEPBUAFX_MSGMAP@@XZ 10017010 f   DlgServerWizard.obj
 0001:00016030       ?GetMessageMap@CDlgServerOptionItem5@@MBEPBUAFX_MSGMAP@@XZ 10017030 f   DlgServerWizard.obj
 0001:00016050       ?GetMessageMap@CDlgServerOptionItem@@MBEPBUAFX_MSGMAP@@XZ 10017050 f   DlgServerWizard.obj
 0001:00016070       ?GetMessageMap@CDlgServerOptionItemCustom@@MBEPBUAFX_MSGMAP@@XZ 10017070 f   DlgServerWizard.obj
 0001:00016090       ?GetMessageMap@CDlgServerOptionItemPersonal@@MBEPBUAFX_MSGMAP@@XZ 10017090 f   DlgServerWizard.obj
 0001:000160b0       ?GetMessageMap@CDlgServerWizard@@MBEPBUAFX_MSGMAP@@XZ 100170b0 f   DlgServerWizard.obj
 0001:000160d0       ?GetMessageMap@CDlgServerWizardItem1@@MBEPBUAFX_MSGMAP@@XZ 100170d0 f   DlgServerWizard.obj
 0001:000160f0       ?GetMessageMap@CDlgServerWizardItem2@@MBEPBUAFX_MSGMAP@@XZ 100170f0 f   DlgServerWizard.obj
 0001:00016110       ?GetMessageMap@CDlgServerWizardItem@@MBEPBUAFX_MSGMAP@@XZ 10017110 f   DlgServerWizard.obj
 0001:00016130       ?GetNextAssoc@?$CMap@GGPAUtagGameModuleInfo@@PAU1@@@QBEXAAPAU__POSITION@@AAGAAPAUtagGameModuleInfo@@@Z 10017130 f i DlgServerWizard.obj
 0001:00016380       ?GetPersonalRoomInfo@CDlgServerOptionItem5@@QAE_NK@Z 10017380 f   DlgServerWizard.obj
 0001:000169d0       ?GetStartPosition@?$CMap@GGPAUtagGameModuleInfo@@PAU1@@@QBEPAU__POSITION@@XZ 100179d0 f i DlgServerWizard.obj
 0001:00016a10       ?GetThisMessageMap@CDlgServerOptionItem1@@KGPBUAFX_MSGMAP@@XZ 10017a10 f   DlgServerWizard.obj
 0001:00016a30       ?GetThisMessageMap@CDlgServerOptionItem2@@KGPBUAFX_MSGMAP@@XZ 10017a30 f   DlgServerWizard.obj
 0001:00016a50       ?GetThisMessageMap@CDlgServerOptionItem3@@KGPBUAFX_MSGMAP@@XZ 10017a50 f   DlgServerWizard.obj
 0001:00016a70       ?GetThisMessageMap@CDlgServerOptionItem5@@KGPBUAFX_MSGMAP@@XZ 10017a70 f   DlgServerWizard.obj
 0001:00016a90       ?GetThisMessageMap@CDlgServerOptionItemCustom@@KGPBUAFX_MSGMAP@@XZ 10017a90 f   DlgServerWizard.obj
 0001:00016ab0       ?GetThisMessageMap@CDlgServerOptionItemPersonal@@KGPBUAFX_MSGMAP@@XZ 10017ab0 f   DlgServerWizard.obj
 0001:00016ad0       ?GetThisMessageMap@CDlgServerWizard@@KGPBUAFX_MSGMAP@@XZ 10017ad0 f   DlgServerWizard.obj
 0001:00016af0       ?GetThisMessageMap@CDlgServerWizardItem1@@KGPBUAFX_MSGMAP@@XZ 10017af0 f   DlgServerWizard.obj
 0001:00016b10       ?GetThisMessageMap@CDlgServerWizardItem2@@KGPBUAFX_MSGMAP@@XZ 10017b10 f   DlgServerWizard.obj
 0001:00016b30       ?InitCtrlWindow@CDlgServerOptionItem1@@IAEXXZ 10017b30 f   DlgServerWizard.obj
 0001:00016fb0       ?InitCtrlWindow@CDlgServerOptionItem2@@IAEXXZ 10017fb0 f   DlgServerWizard.obj
 0001:000171e0       ?IsAllowAndroidAttend@CServerRule@@SA_NK@Z 100181e0 f i DlgServerWizard.obj
 0001:00017220       ?IsAllowAndroidSimulate@CServerRule@@SA_NK@Z 10018220 f i DlgServerWizard.obj
 0001:00017260       ?IsAllowAvertCheatMode@CServerRule@@SA_NK@Z 10018260 f i DlgServerWizard.obj
 0001:000172a0       ?IsAllowDynamicJoin@CServerRule@@SA_NK@Z 100182a0 f i DlgServerWizard.obj
 0001:000172e0       ?IsAllowOffLineTrustee@CServerRule@@SA_NK@Z 100182e0 f i DlgServerWizard.obj
 0001:00017320       ?IsDynamicCellScore@CServerRule@@SA_NK@Z 10018320 f i DlgServerWizard.obj
 0001:00017360       ?IsForfendGameChat@CServerRule@@SA_NK@Z 10018360 f i DlgServerWizard.obj
 0001:000173a0       ?IsForfendGameEnter@CServerRule@@SA_NK@Z 100183a0 f i DlgServerWizard.obj
 0001:000173e0       ?IsForfendGameLookon@CServerRule@@SA_NK@Z 100183e0 f i DlgServerWizard.obj
 0001:00017420       ?IsForfendGameRule@CServerRule@@SA_NK@Z 10018420 f i DlgServerWizard.obj
 0001:00017460       ?IsForfendLockTable@CServerRule@@SA_NK@Z 10018460 f i DlgServerWizard.obj
 0001:000174a0       ?IsForfendRoomChat@CServerRule@@SA_NK@Z 100184a0 f i DlgServerWizard.obj
 0001:000174e0       ?IsForfendRoomEnter@CServerRule@@SA_NK@Z 100184e0 f i DlgServerWizard.obj
 0001:00017520       ?IsForfendSaveInGame@CServerRule@@SA_NK@Z 10018520 f i DlgServerWizard.obj
 0001:00017560       ?IsForfendSaveInRoom@CServerRule@@SA_NK@Z 10018560 f i DlgServerWizard.obj
 0001:000175a0       ?IsForfendWisperChat@CServerRule@@SA_NK@Z 100185a0 f i DlgServerWizard.obj
 0001:000175e0       ?IsForfendWisperOnGame@CServerRule@@SA_NK@Z 100185e0 f i DlgServerWizard.obj
 0001:00017620       ?IsImmediateWriteScore@CServerRule@@SA_NK@Z 10018620 f i DlgServerWizard.obj
 0001:00017660       ?IsRecordGameScore@CServerRule@@SA_NK@Z 10018660 f i DlgServerWizard.obj
 0001:000176a0       ?IsRecordGameTrack@CServerRule@@SA_NK@Z 100186a0 f i DlgServerWizard.obj
 0001:000176e0       ?IsSuportMobile@CServerRule@@SA_NK@Z 100186e0 f i DlgServerWizard.obj
 0001:00017720       ?IsSuportPC@CServerRule@@SA_NK@Z 10018720 f i DlgServerWizard.obj
 0001:00017760       ?IsSuportPlayBack@CServerRule@@SA_NK@Z 10018760 f i DlgServerWizard.obj
 0001:000177a0       ?LoadDBModuleItem@CDlgServerWizardItem1@@IAE_NXZ 100187a0 f   DlgServerWizard.obj
 0001:00017890       ?OnCancel@CDlgServerOptionItem@@MAEXXZ 10018890 f   DlgServerWizard.obj
 0001:000178d0       ?OnCancel@CDlgServerWizardItem@@MAEXXZ 100188d0 f   DlgServerWizard.obj
 0001:00017910       ?OnInitDialog@CDlgServerOptionItem1@@MAEHXZ 10018910 f   DlgServerWizard.obj
 0001:00018780       ?OnInitDialog@CDlgServerOptionItem2@@MAEHXZ 10019780 f   DlgServerWizard.obj
 0001:00019560       ?OnInitDialog@CDlgServerOptionItem3@@MAEHXZ 1001a560 f   DlgServerWizard.obj
 0001:00019830       ?OnInitDialog@CDlgServerOptionItem5@@MAEHXZ 1001a830 f   DlgServerWizard.obj
 0001:0001a340       ?OnInitDialog@CDlgServerOptionItemCustom@@MAEHXZ 1001b340 f   DlgServerWizard.obj
 0001:0001a430       ?OnInitDialog@CDlgServerOptionItemPersonal@@MAEHXZ 1001b430 f   DlgServerWizard.obj
 0001:0001a520       ?OnInitDialog@CDlgServerWizard@@UAEHXZ 1001b520 f   DlgServerWizard.obj
 0001:0001a650       ?OnInitDialog@CDlgServerWizardItem1@@MAEHXZ 1001b650 f   DlgServerWizard.obj
 0001:0001a690       ?OnInitDialog@CDlgServerWizardItem2@@MAEHXZ 1001b690 f   DlgServerWizard.obj
 0001:0001a9b0       ?OnOK@CDlgServerOptionItem@@MAEXXZ 1001b9b0 f   DlgServerWizard.obj
 0001:0001a9f0       ?OnOK@CDlgServerWizard@@UAEXXZ 1001b9f0 f   DlgServerWizard.obj
 0001:0001aa40       ?OnOK@CDlgServerWizardItem@@MAEXXZ 1001ba40 f   DlgServerWizard.obj
 0001:0001aa80       ?PreTranslateMessage@CDlgServerOptionItem1@@UAEHPAUtagMSG@@@Z 1001ba80 f   DlgServerWizard.obj
 0001:0001aaf0       ?PreTranslateMessage@CDlgServerOptionItem2@@UAEHPAUtagMSG@@@Z 1001baf0 f   DlgServerWizard.obj
 0001:0001ab60       ?PreTranslateMessage@CDlgServerOptionItem3@@MAEHPAUtagMSG@@@Z 1001bb60 f   DlgServerWizard.obj
 0001:0001abd0       ?PreTranslateMessage@CDlgServerOptionItem5@@UAEHPAUtagMSG@@@Z 1001bbd0 f   DlgServerWizard.obj
 0001:0001ac40       ?RectifyControl@CDlgServerOptionItem1@@UAEXHH@Z 1001bc40 f   DlgServerWizard.obj
 0001:0001ac60       ?RectifyControl@CDlgServerOptionItem2@@UAEXHH@Z 1001bc60 f   DlgServerWizard.obj
 0001:0001ac80       ?RectifyControl@CDlgServerOptionItem3@@UAEXHH@Z 1001bc80 f   DlgServerWizard.obj
 0001:0001aca0       ?RectifyControl@CDlgServerOptionItem5@@UAEXHH@Z 1001bca0 f   DlgServerWizard.obj
 0001:0001acc0       ?RectifyControl@CDlgServerOptionItemCustom@@UAEXHH@Z 1001bcc0 f   DlgServerWizard.obj
 0001:0001ad20       ?RectifyControl@CDlgServerOptionItemPersonal@@UAEXHH@Z 1001bd20 f   DlgServerWizard.obj
 0001:0001ad80       ?RectifyControl@CDlgServerWizardItem1@@UAEXHH@Z 1001bd80 f   DlgServerWizard.obj
 0001:0001ae20       ?RectifyControl@CDlgServerWizardItem2@@UAEXHH@Z 1001be20 f   DlgServerWizard.obj
 0001:0001af30       ?SaveData@CDlgServerWizard@@QAEXXZ 1001bf30 f   DlgServerWizard.obj
 0001:0001b170       ?SaveInputInfo@CDlgServerOptionItem1@@UAE_NXZ 1001c170 f   DlgServerWizard.obj
 0001:0001b770       ?SaveInputInfo@CDlgServerOptionItem2@@UAE_NXZ 1001c770 f   DlgServerWizard.obj
 0001:0001c260       ?SaveInputInfo@CDlgServerOptionItem3@@UAE_NXZ 1001d260 f   DlgServerWizard.obj
 0001:0001c4b0       ?SaveInputInfo@CDlgServerOptionItem5@@UAE_NXZ 1001d4b0 f   DlgServerWizard.obj
 0001:0001c8b0       ?SaveInputInfo@CDlgServerOptionItemCustom@@UAE_NXZ 1001d8b0 f   DlgServerWizard.obj
 0001:0001c930       ?SaveInputInfo@CDlgServerOptionItemPersonal@@UAE_NXZ 1001d930 f   DlgServerWizard.obj
 0001:0001c9b0       ?SaveInputInfo@CDlgServerWizardItem1@@UAE_NXZ 1001d9b0 f   DlgServerWizard.obj
 0001:0001ccb0       ?SaveInputInfo@CDlgServerWizardItem2@@UAE_NXZ 1001dcb0 f   DlgServerWizard.obj
 0001:0001cd30       ?SaveItemData@CDlgServerOptionItem@@AAE_NXZ 1001dd30 f   DlgServerWizard.obj
 0001:0001cd80       ?SaveItemData@CDlgServerWizardItem@@AAE_NXZ 1001dd80 f   DlgServerWizard.obj
 0001:0001cdd0       ?SetAllowAndroidAttend@CServerRule@@SAXAAK_N@Z 1001ddd0 f i DlgServerWizard.obj
 0001:0001ce30       ?SetAllowAndroidSimulate@CServerRule@@SAXAAK_N@Z 1001de30 f i DlgServerWizard.obj
 0001:0001ce90       ?SetAllowAvertCheatMode@CServerRule@@SAXAAK_N@Z 1001de90 f i DlgServerWizard.obj
 0001:0001cef0       ?SetAllowDynamicJoin@CServerRule@@SAXAAK_N@Z 1001def0 f i DlgServerWizard.obj
 0001:0001cf50       ?SetAllowOffLineTrustee@CServerRule@@SAXAAK_N@Z 1001df50 f i DlgServerWizard.obj
 0001:0001cfb0       ?SetDynamicCellScore@CServerRule@@SAXAAK_N@Z 1001dfb0 f i DlgServerWizard.obj
 0001:0001d010       ?SetForfendGameChat@CServerRule@@SAXAAK_N@Z 1001e010 f i DlgServerWizard.obj
 0001:0001d070       ?SetForfendGameEnter@CServerRule@@SAXAAK_N@Z 1001e070 f i DlgServerWizard.obj
 0001:0001d0d0       ?SetForfendGameLookon@CServerRule@@SAXAAK_N@Z 1001e0d0 f i DlgServerWizard.obj
 0001:0001d130       ?SetForfendGameRule@CServerRule@@SAXAAK_N@Z 1001e130 f i DlgServerWizard.obj
 0001:0001d190       ?SetForfendLockTable@CServerRule@@SAXAAK_N@Z 1001e190 f i DlgServerWizard.obj
 0001:0001d1f0       ?SetForfendRoomChat@CServerRule@@SAXAAK_N@Z 1001e1f0 f i DlgServerWizard.obj
 0001:0001d250       ?SetForfendRoomEnter@CServerRule@@SAXAAK_N@Z 1001e250 f i DlgServerWizard.obj
 0001:0001d2b0       ?SetForfendSaveInGame@CServerRule@@SAXAAK_N@Z 1001e2b0 f i DlgServerWizard.obj
 0001:0001d310       ?SetForfendSaveInRoom@CServerRule@@SAXAAK_N@Z 1001e310 f i DlgServerWizard.obj
 0001:0001d370       ?SetForfendWisperChat@CServerRule@@SAXAAK_N@Z 1001e370 f i DlgServerWizard.obj
 0001:0001d3d0       ?SetForfendWisperOnGame@CServerRule@@SAXAAK_N@Z 1001e3d0 f i DlgServerWizard.obj
 0001:0001d430       ?SetImmediateWriteScore@CServerRule@@SAXAAK_N@Z 1001e430 f i DlgServerWizard.obj
 0001:0001d490       ?SetPersonalRoomParameter@CDlgServerWizard@@QAEXUtagPersonalRoomOption@@UtagPersonalRoomOptionRightAndFee@@@Z 1001e490 f   DlgServerWizard.obj
 0001:0001d4e0       ?SetRecordGameScore@CServerRule@@SAXAAK_N@Z 1001e4e0 f i DlgServerWizard.obj
 0001:0001d540       ?SetRecordGameTrack@CServerRule@@SAXAAK_N@Z 1001e540 f i DlgServerWizard.obj
 0001:0001d5a0       ?SetSuportMobile@CServerRule@@SAXAAK_N@Z 1001e5a0 f i DlgServerWizard.obj
 0001:0001d600       ?SetSuportPC@CServerRule@@SAXAAK_N@Z 1001e600 f i DlgServerWizard.obj
 0001:0001d660       ?SetSuportPlayBack@CServerRule@@SAXAAK_N@Z 1001e660 f i DlgServerWizard.obj
 0001:0001d6c0       ?SetWizardParameter@CDlgServerWizard@@QAEXPAUIGameServiceManager@@PAUtagGameServiceOption@@@Z 1001e6c0 f   DlgServerWizard.obj
 0001:0001da80       ?ShowOptionItem@CDlgServerOptionItem@@AAE_NABVCRect@@PAVCWnd@@@Z 1001ea80 f   DlgServerWizard.obj
 0001:0001db40       ?ShowWizardItem@CDlgServerWizardItem@@AAE_NABVCRect@@PAVCWnd@@@Z 1001eb40 f   DlgServerWizard.obj
 0001:0001dc00       ?UpdateDataBaseName@CDlgServerOptionItem1@@IAEXXZ 1001ec00 f   DlgServerWizard.obj
 0001:0001de90       __snprintf                 1001ee90 f i DlgServerWizard.obj
 0001:0001dee0       __vsnprintf                1001eee0 f i DlgServerWizard.obj
 0001:0001df20       __vsnprintf_l              1001ef20 f i DlgServerWizard.obj
 0001:0001df90       ?OnPaint@CListHeaderCtrl@@IAEXXZ 1001ef90 f   ListControl.obj
 0001:0001e180       ?OnEraseBkgnd@CListControl@@IAEHPAVCDC@@@Z 1001f180 f   ListControl.obj
 0001:0001e240       ?OnColumnclick@CListControl@@IAEXPAUtagNMHDR@@PAJ@Z 1001f240 f   ListControl.obj
 0001:0001e2f0       ??0CListControl@@QAE@XZ    1001f2f0 f   ListControl.obj
 0001:0001e390       ??0CListHeaderCtrl@@QAE@XZ 1001f390 f   ListControl.obj
 0001:0001e3c0       ??0CRect@@QAE@ABUtagRECT@@@Z 1001f3c0 f i ListControl.obj
 0001:0001e3f0       ??1CListControl@@UAE@XZ    1001f3f0 f   ListControl.obj
 0001:0001e430       ??1CListHeaderCtrl@@UAE@XZ 1001f430 f   ListControl.obj
 0001:0001e460       ??_ECListControl@@UAEPAXI@Z 1001f460 f i ListControl.obj
 0001:0001e560       ??_ECListHeaderCtrl@@UAEPAXI@Z 1001f560 f i ListControl.obj
 0001:0001e660       ??_GCListControl@@UAEPAXI@Z 1001f660 f i ListControl.obj
 0001:0001e6c0       ??_GCListHeaderCtrl@@UAEPAXI@Z 1001f6c0 f i ListControl.obj
 0001:0001e720       ?DrawItem@CListControl@@UAEXPAUtagDRAWITEMSTRUCT@@@Z 1001f720 f   ListControl.obj
 0001:0001ea50       ?GetMessageMap@CListControl@@MBEPBUAFX_MSGMAP@@XZ 1001fa50 f   ListControl.obj
 0001:0001ea70       ?GetMessageMap@CListHeaderCtrl@@MBEPBUAFX_MSGMAP@@XZ 1001fa70 f   ListControl.obj
 0001:0001ea90       ?GetThisMessageMap@CListControl@@KGPBUAFX_MSGMAP@@XZ 1001fa90 f   ListControl.obj
 0001:0001eab0       ?GetThisMessageMap@CListHeaderCtrl@@KGPBUAFX_MSGMAP@@XZ 1001fab0 f   ListControl.obj
 0001:0001ead0       ?PreSubclassWindow@CListControl@@UAEXXZ 1001fad0 f   ListControl.obj
 0001:0001eb50       ?SortFunction@CListControl@@KGHJJJ@Z 1001fb50 f   ListControl.obj
 0001:0001ebe0       ??0?$CWHArray@PAUtagGameMatchOption@@ABQAU1@@@QAE@XZ 1001fbe0 f i MatchInfoManager.obj
 0001:0001ec40       ??0?$CWHArray@PAUtagMatchRewardInfo@@ABQAU1@@@QAE@XZ 1001fc40 f i MatchInfoManager.obj
 0001:0001eca0       ??0CMatchInfoBuffer@@QAE@XZ 1001fca0 f   MatchInfoManager.obj
 0001:0001ed30       ??0CMatchInfoManager@@QAE@XZ 1001fd30 f   MatchInfoManager.obj
 0001:0001ed60       ??0CRewardInfoBuffer@@QAE@XZ 1001fd60 f   MatchInfoManager.obj
 0001:0001edf0       ??1CMatchInfoBuffer@@UAE@XZ 1001fdf0 f   MatchInfoManager.obj
 0001:0001ef70       ??1CMatchInfoManager@@UAE@XZ 1001ff70 f   MatchInfoManager.obj
 0001:0001efa0       ??1CRewardInfoBuffer@@UAE@XZ 1001ffa0 f   MatchInfoManager.obj
 0001:0001f120       ??2@YAPAXIPAX@Z            10020120 f i MatchInfoManager.obj
 0001:0001f140       ?Add@?$CWHArray@PAUtagGameMatchOption@@ABQAU1@@@QAEHABQAUtagGameMatchOption@@@Z 10020140 f i MatchInfoManager.obj
 0001:0001f180       ?Add@?$CWHArray@PAUtagMatchRewardInfo@@ABQAU1@@@QAEHABQAUtagMatchRewardInfo@@@Z 10020180 f i MatchInfoManager.obj
 0001:0001f1c0       ?AllocMemory@?$CWHArray@PAUtagGameMatchOption@@ABQAU1@@@QAEXH@Z 100201c0 f i MatchInfoManager.obj
 0001:0001f330       ?AllocMemory@?$CWHArray@PAUtagMatchRewardInfo@@ABQAU1@@@QAEXH@Z 10020330 f i MatchInfoManager.obj
 0001:0001f4a0       ?Append@?$CWHArray@PAUtagGameMatchOption@@ABQAU1@@@QAEHABV1@@Z 100204a0 f i MatchInfoManager.obj
 0001:0001f590       ?Append@?$CWHArray@PAUtagMatchRewardInfo@@ABQAU1@@@QAEHABV1@@Z 10020590 f i MatchInfoManager.obj
 0001:0001f680       ?ConnectGameMatchDB@CMatchInfoManager@@AAE_NAAVCDataBaseHelper@@@Z 10020680 f   MatchInfoManager.obj
 0001:0001f760       ?ConnectPlatformDB@CMatchInfoManager@@AAE_NAAVCDataBaseHelper@@@Z 10020760 f   MatchInfoManager.obj
 0001:0001f840       ?CreateMatchOption@CMatchInfoBuffer@@AAEPAUtagGameMatchOption@@XZ 10020840 f   MatchInfoManager.obj
 0001:0001f990       ?CreateMatchRewardInfo@CRewardInfoBuffer@@AAEPAUtagMatchRewardInfo@@XZ 10020990 f   MatchInfoManager.obj
 0001:0001fad0       ?DeleteGameMatchOption@CMatchInfoManager@@QAE_NK@Z 10020ad0 f   MatchInfoManager.obj
 0001:0001fdc0       ?DeleteMatchOption@CMatchInfoBuffer@@QAE_NK@Z 10020dc0 f   MatchInfoManager.obj
 0001:0001fe80       ?DeleteMatchRewardInfo@CRewardInfoBuffer@@QAE_NG@Z 10020e80 f   MatchInfoManager.obj
 0001:0001ff40       ?GetMatchOptionCount@CMatchInfoBuffer@@QAEKXZ 10020f40 f   MatchInfoManager.obj
 0001:0001ff70       ?GetMatchRewardCount@CRewardInfoBuffer@@QAEKXZ 10020f70 f   MatchInfoManager.obj
 0001:0001ffa0       ?InsertGameMatchOption@CMatchInfoManager@@QAE_NPAUtagCreateMatchInfo@@AAUtagGameMatchOption@@@Z 10020fa0 f   MatchInfoManager.obj
 0001:00020760       ?InsertMatchOption@CMatchInfoBuffer@@QAEPAUtagGameMatchOption@@PAU2@@Z 10021760 f   MatchInfoManager.obj
 0001:00020840       ?InsertMatchRewardInfo@CRewardInfoBuffer@@QAEPAUtagMatchRewardInfo@@AAU2@@Z 10021840 f   MatchInfoManager.obj
 0001:000208f0       ?LoadGameMatchOption@CMatchInfoManager@@QAE_NGKAAUtagGameMatchOption@@@Z 100218f0 f   MatchInfoManager.obj
 0001:00020d50       ?LoadGameMatchOption@CMatchInfoManager@@QAE_NGQADAAVCMatchInfoBuffer@@@Z 10021d50 f   MatchInfoManager.obj
 0001:000211d0       ?LoadGameMatchReward@CMatchInfoManager@@QAEGKAAVCRewardInfoBuffer@@@Z 100221d0 f   MatchInfoManager.obj
 0001:00021660       ?ModifyGameMatchOption@CMatchInfoManager@@QAE_NPAUtagCreateMatchInfo@@AAUtagGameMatchOption@@@Z 10022660 f   MatchInfoManager.obj
 0001:00021e20       ?ReadGameMatchOption@CMatchInfoManager@@AAE_NAAVCDataBaseAide@@AAUtagGameMatchOption@@@Z 10022e20 f   MatchInfoManager.obj
 0001:00022550       ?RemoveAll@?$CWHArray@PAUtagGameMatchOption@@ABQAU1@@@QAEXXZ 10023550 f i MatchInfoManager.obj
 0001:000225d0       ?RemoveAll@?$CWHArray@PAUtagMatchRewardInfo@@ABQAU1@@@QAEXXZ 100235d0 f i MatchInfoManager.obj
 0001:00022650       ?RemoveAt@?$CWHArray@PAUtagGameMatchOption@@ABQAU1@@@QAEXHH@Z 10023650 f i MatchInfoManager.obj
 0001:00022790       ?RemoveAt@?$CWHArray@PAUtagMatchRewardInfo@@ABQAU1@@@QAEXHH@Z 10023790 f i MatchInfoManager.obj
 0001:000228d0       ?ResetMatchOption@CMatchInfoBuffer@@QAE_NXZ 100238d0 f   MatchInfoManager.obj
 0001:00022910       ?ResetMatchRewardInfo@CRewardInfoBuffer@@QAE_NXZ 10023910 f   MatchInfoManager.obj
 0001:00022950       ?SearchMatchOption@CMatchInfoBuffer@@QAEPAUtagGameMatchOption@@K@Z 10023950 f   MatchInfoManager.obj
 0001:000229d0       ?SearchMatchReward@CRewardInfoBuffer@@QAEPAUtagMatchRewardInfo@@G@Z 100239d0 f   MatchInfoManager.obj
 0001:00022a60       ?SetAtGrow@?$CWHArray@PAUtagGameMatchOption@@ABQAU1@@@QAEXHABQAUtagGameMatchOption@@@Z 10023a60 f i MatchInfoManager.obj
 0001:00022af0       ?SetAtGrow@?$CWHArray@PAUtagMatchRewardInfo@@ABQAU1@@@QAEXHABQAUtagMatchRewardInfo@@@Z 10023af0 f i MatchInfoManager.obj
 0001:00022b80       ?SetSize@?$CWHArray@PAUtagGameMatchOption@@ABQAU1@@@QAEXH@Z 10023b80 f i MatchInfoManager.obj
 0001:00022ca0       ?SetSize@?$CWHArray@PAUtagMatchRewardInfo@@ABQAU1@@@QAEXH@Z 10023ca0 f i MatchInfoManager.obj
 0001:00022dc0       __vsprintf_l               10023dc0 f i MatchInfoManager.obj
 0001:00022e00       _sprintf                   10023e00 f i MatchInfoManager.obj
 0001:00022e50       ??0CMatchListControl@@QAE@XZ 10023e50 f   MatchListControl.obj
 0001:00022e80       ??0CRewardListControl@@QAE@XZ 10023e80 f   MatchListControl.obj
 0001:00022eb0       ??1CMatchListControl@@UAE@XZ 10023eb0 f   MatchListControl.obj
 0001:00022ee0       ??1CRewardListControl@@UAE@XZ 10023ee0 f   MatchListControl.obj
 0001:00022f10       ??_ECMatchListControl@@UAEPAXI@Z 10023f10 f i MatchListControl.obj
 0001:00023010       ??_ECRewardListControl@@UAEPAXI@Z 10024010 f i MatchListControl.obj
 0001:00023110       ??_GCMatchListControl@@UAEPAXI@Z 10024110 f i MatchListControl.obj
 0001:00023170       ??_GCRewardListControl@@UAEPAXI@Z 10024170 f i MatchListControl.obj
 0001:000231d0       ?DeleteMatchReward@CRewardListControl@@QAE_NPAUtagMatchRewardInfo@@@Z 100241d0 f   MatchListControl.obj
 0001:00023250       ?GetDescribeString@CMatchListControl@@AAEPBDPAUtagGameMatchOption@@G@Z 10024250 f   MatchListControl.obj
 0001:000232f0       ?GetDescribeString@CRewardListControl@@AAEPBDPAUtagMatchRewardInfo@@G@Z 100242f0 f   MatchListControl.obj
 0001:00023410       ?GetInsertIndex@CMatchListControl@@AAEGPAUtagGameMatchOption@@@Z 10024410 f   MatchListControl.obj
 0001:000234b0       ?GetInsertIndex@CRewardListControl@@AAEGPAUtagMatchRewardInfo@@@Z 100244b0 f   MatchListControl.obj
 0001:00023540       ?GetListItemColor@CMatchListControl@@UAEXJIAAUtagListItemColor@@@Z 10024540 f   MatchListControl.obj
 0001:000235e0       ?GetListItemColor@CRewardListControl@@UAEXJIAAUtagListItemColor@@@Z 100245e0 f   MatchListControl.obj
 0001:00023680       ?InitListControl@CMatchListControl@@UAEXXZ 10024680 f   MatchListControl.obj
 0001:00023710       ?InitListControl@CRewardListControl@@UAEXXZ 10024710 f   MatchListControl.obj
 0001:000237f0       ?InsertMatchOption@CMatchListControl@@QAE_NPAUtagGameMatchOption@@@Z 100247f0 f   MatchListControl.obj
 0001:00023940       ?InsertMatchReward@CRewardListControl@@QAE_NPAUtagMatchRewardInfo@@@Z 10024940 f   MatchListControl.obj
 0001:00023a90       ?SortListItemData@CMatchListControl@@UAEHJJG@Z 10024a90 f   MatchListControl.obj
 0001:00023b30       ?SortListItemData@CRewardListControl@@UAEHJJG@Z 10024b30 f   MatchListControl.obj
 0001:00023c90       ?UpdateMatchOption@CMatchListControl@@QAE_NPAUtagGameMatchOption@@@Z 10024c90 f   MatchListControl.obj
 0001:00023d80       ?UpdateMatchReward@CRewardListControl@@QAE_NPAUtagMatchRewardInfo@@@Z 10024d80 f   MatchListControl.obj
 0001:00023e70       ??0CModuleDBParameter@@QAE@XZ 10024e70 f   ModuleDBParameter.obj
 0001:00023ef0       ??1CModuleDBParameter@@UAE@XZ 10024ef0 f   ModuleDBParameter.obj
 0001:00023f90       ??$CompareElements@GG@@YGHPBG0@Z 10024f90 f i ModuleInfoManager.obj
 0001:00024090       ??$DumpElements@G@@YGXAAVCDumpContext@@PBGH@Z 10025090 f i ModuleInfoManager.obj
 0001:00024140       ??$DumpElements@PAUtagGameModuleInfo@@@@YGXAAVCDumpContext@@PBQAUtagGameModuleInfo@@H@Z 10025140 f i ModuleInfoManager.obj
 0001:000241f0       ??$HashKey@G@@YGIG@Z       100251f0 f i ModuleInfoManager.obj
 0001:00024260       ??$SerializeElements@G@@YGXAAVCArchive@@PAGH@Z 10025260 f i ModuleInfoManager.obj
 0001:00024400       ??$SerializeElements@PAUtagGameModuleInfo@@@@YGXAAVCArchive@@PAPAUtagGameModuleInfo@@H@Z 10025400 f i ModuleInfoManager.obj
 0001:000245a0       ??0?$CMap@GGPAUtagGameModuleInfo@@PAU1@@@QAE@H@Z 100255a0 f i ModuleInfoManager.obj
 0001:00024690       ??0?$CWHArray@PAUtagGameModuleInfo@@ABQAU1@@@QAE@XZ 10025690 f i ModuleInfoManager.obj
 0001:000246f0       ??0CAssoc@?$CMap@GGPAUtagGameModuleInfo@@PAU1@@@QAE@G@Z 100256f0 f i ModuleInfoManager.obj
 0001:00024720       ??0CModuleInfoBuffer@@QAE@XZ 10025720 f   ModuleInfoManager.obj
 0001:000247b0       ??0CModuleInfoManager@@QAE@XZ 100257b0 f   ModuleInfoManager.obj
 0001:000247e0       ??0CPair@?$CMap@GGPAUtagGameModuleInfo@@PAU1@@@IAE@G@Z 100257e0 f i ModuleInfoManager.obj
 0001:00024810       ??1?$CMap@GGPAUtagGameModuleInfo@@PAU1@@@UAE@XZ 10025810 f i ModuleInfoManager.obj
 0001:000248a0       ??1?$CWHArray@PAUtagGameModuleInfo@@ABQAU1@@@UAE@XZ 100258a0 f i ModuleInfoManager.obj
 0001:00024920       ??1CModuleInfoBuffer@@UAE@XZ 10025920 f   ModuleInfoManager.obj
 0001:00024b40       ??1CModuleInfoManager@@UAE@XZ 10025b40 f   ModuleInfoManager.obj
 0001:00024b70       ??A?$CMap@GGPAUtagGameModuleInfo@@PAU1@@@QAEAAPAUtagGameModuleInfo@@G@Z 10025b70 f i ModuleInfoManager.obj
 0001:00024ca0       ??A?$CWHArray@PAUtagGameModuleInfo@@ABQAU1@@@QAEAAPAUtagGameModuleInfo@@H@Z 10025ca0 f i ModuleInfoManager.obj
 0001:00024cd0       ??_ECModuleInfoBuffer@@UAEPAXI@Z 10025cd0 f i ModuleInfoManager.obj
 0001:00024db0       ??_E?$CMap@GGPAUtagGameModuleInfo@@PAU1@@@UAEPAXI@Z 10025db0 f i ModuleInfoManager.obj
 0001:00024db0       ??_G?$CMap@GGPAUtagGameModuleInfo@@PAU1@@@UAEPAXI@Z 10025db0 f i ModuleInfoManager.obj
 0001:00024e10       ??_G?$CWHArray@PAUtagGameModuleInfo@@ABQAU1@@@UAEPAXI@Z 10025e10 f i ModuleInfoManager.obj
 0001:00024e10       ??_E?$CWHArray@PAUtagGameModuleInfo@@ABQAU1@@@UAEPAXI@Z 10025e10 f i ModuleInfoManager.obj
 0001:00024e60       ??_GCModuleInfoBuffer@@UAEPAXI@Z 10025e60 f i ModuleInfoManager.obj
 0001:00024eb0       ?Add@?$CWHArray@PAUtagGameModuleInfo@@ABQAU1@@@QAEHABQAUtagGameModuleInfo@@@Z 10025eb0 f i ModuleInfoManager.obj
 0001:00024ef0       ?AllocMemory@?$CWHArray@PAUtagGameModuleInfo@@ABQAU1@@@QAEXH@Z 10025ef0 f i ModuleInfoManager.obj
 0001:00025060       ?AssertValid@?$CMap@GGPAUtagGameModuleInfo@@PAU1@@@UBEXXZ 10026060 f i ModuleInfoManager.obj
 0001:000250e0       ?CreateModuleInfo@CModuleInfoBuffer@@AAEPAUtagGameModuleInfo@@XZ 100260e0 f   ModuleInfoManager.obj
 0001:00025230       ?DeleteModuleInfo@CModuleInfoBuffer@@QAE_NG@Z 10026230 f   ModuleInfoManager.obj
 0001:000252c0       ?Dump@?$CMap@GGPAUtagGameModuleInfo@@PAU1@@@UBEXAAVCDumpContext@@@Z 100262c0 f i ModuleInfoManager.obj
 0001:000253d0       ?ElementAt@?$CWHArray@PAUtagGameModuleInfo@@ABQAU1@@@QAEAAPAUtagGameModuleInfo@@H@Z 100263d0 f i ModuleInfoManager.obj
 0001:00025450       ?FreeAssoc@?$CMap@GGPAUtagGameModuleInfo@@PAU1@@@IAEXPAVCAssoc@1@@Z 10026450 f i ModuleInfoManager.obj
 0001:000254d0       ?GetAssocAt@?$CMap@GGPAUtagGameModuleInfo@@PAU1@@@IBEPAVCAssoc@1@GAAI0@Z 100264d0 f i ModuleInfoManager.obj
 0001:00025580       ?GetCount@?$CMap@GGPAUtagGameModuleInfo@@PAU1@@@QBEHXZ 10026580 f i ModuleInfoManager.obj
 0001:000255a0       ?GetCount@?$CWHArray@PAUtagGameModuleInfo@@ABQAU1@@@QBEHXZ 100265a0 f i ModuleInfoManager.obj
 0001:000255c0       ?GetGameServiceAttrib@CModuleInfoManager@@QAE_NPBDAAUtagGameServiceAttrib@@@Z 100265c0 f   ModuleInfoManager.obj
 0001:00025710       ?GetModuleInfoCount@CModuleInfoBuffer@@QAEKXZ 10026710 f   ModuleInfoManager.obj
 0001:00025740       ?InitHashTable@?$CMap@GGPAUtagGameModuleInfo@@PAU1@@@QAEXIH@Z 10026740 f i ModuleInfoManager.obj
 0001:000258c0       ?InsertModuleInfo@CModuleInfoBuffer@@QAE_NPAUtagGameModuleInfo@@@Z 100268c0 f   ModuleInfoManager.obj
 0001:000259b0       ?LoadGameModuleInfo@CModuleInfoManager@@QAE_NAAVCModuleInfoBuffer@@@Z 100269b0 f   ModuleInfoManager.obj
 0001:00025f00       ?Lookup@?$CMap@GGPAUtagGameModuleInfo@@PAU1@@@QBEHGAAPAUtagGameModuleInfo@@@Z 10026f00 f i ModuleInfoManager.obj
 0001:00025f70       ?NewAssoc@?$CMap@GGPAUtagGameModuleInfo@@PAU1@@@IAEPAVCAssoc@1@G@Z 10026f70 f i ModuleInfoManager.obj
 0001:00026130       ?RegisterGameModule@CModuleInfoManager@@QAE_NPBD@Z 10027130 f   ModuleInfoManager.obj
 0001:00026150       ?RemoveAll@?$CMap@GGPAUtagGameModuleInfo@@PAU1@@@QAEXXZ 10027150 f i ModuleInfoManager.obj
 0001:00026240       ?RemoveAll@?$CWHArray@PAUtagGameModuleInfo@@ABQAU1@@@QAEXXZ 10027240 f i ModuleInfoManager.obj
 0001:000262c0       ?RemoveAt@?$CWHArray@PAUtagGameModuleInfo@@ABQAU1@@@QAEXHH@Z 100272c0 f i ModuleInfoManager.obj
 0001:00026400       ?RemoveKey@?$CMap@GGPAUtagGameModuleInfo@@PAU1@@@QAEHG@Z 10027400 f i ModuleInfoManager.obj
 0001:000264f0       ?ResetModuleInfo@CModuleInfoBuffer@@QAE_NXZ 100274f0 f   ModuleInfoManager.obj
 0001:00026580       ?SearchModuleInfo@CModuleInfoBuffer@@QAEPAUtagGameModuleInfo@@G@Z 10027580 f   ModuleInfoManager.obj
 0001:000265c0       ?Serialize@?$CMap@GGPAUtagGameModuleInfo@@PAU1@@@UAEXAAVCArchive@@@Z 100275c0 f i ModuleInfoManager.obj
 0001:00026770       ?SetAt@?$CMap@GGPAUtagGameModuleInfo@@PAU1@@@QAEXGPAUtagGameModuleInfo@@@Z 10027770 f i ModuleInfoManager.obj
 0001:000267a0       ?SetAtGrow@?$CWHArray@PAUtagGameModuleInfo@@ABQAU1@@@QAEXHABQAUtagGameModuleInfo@@@Z 100277a0 f i ModuleInfoManager.obj
 0001:00026830       ?SetSize@?$CWHArray@PAUtagGameModuleInfo@@ABQAU1@@@QAEXH@Z 10027830 f i ModuleInfoManager.obj
 0001:00026950       ?UnRegisterGameModule@CModuleInfoManager@@QAE_NPBD@Z 10027950 f   ModuleInfoManager.obj
 0001:00026970       ?data@CPlex@@QAEPAXXZ      10027970 f i ModuleInfoManager.obj
 0001:00026990       ??0CModuleListControl@@QAE@XZ 10027990 f   ModuleListControl.obj
 0001:000269c0       ??1CModuleListControl@@UAE@XZ 100279c0 f   ModuleListControl.obj
 0001:000269f0       ??_ECModuleListControl@@UAEPAXI@Z 100279f0 f i ModuleListControl.obj
 0001:00026af0       ??_GCModuleListControl@@UAEPAXI@Z 10027af0 f i ModuleListControl.obj
 0001:00026b50       ?GetDescribeString@CModuleListControl@@AAEPBDPAUtagGameModuleInfo@@G@Z 10027b50 f   ModuleListControl.obj
 0001:00026c20       ?GetInsertIndex@CModuleListControl@@AAEGPAUtagGameModuleInfo@@@Z 10027c20 f   ModuleListControl.obj
 0001:00026cd0       ?GetListItemColor@CModuleListControl@@UAEXJIAAUtagListItemColor@@@Z 10027cd0 f   ModuleListControl.obj
 0001:00026e10       ?InitListControl@CModuleListControl@@UAEXXZ 10027e10 f   ModuleListControl.obj
 0001:00026f60       ?InsertModuleInfo@CModuleListControl@@QAE_NPAUtagGameModuleInfo@@@Z 10027f60 f   ModuleListControl.obj
 0001:000270b0       ?SortListItemData@CModuleListControl@@UAEHJJG@Z 100280b0 f   ModuleListControl.obj
 0001:000272e0       _ExtRawDllMain@12          100282e0 f   ModuleManager.obj
 0001:00027360       ??B?$CTypedSimpleList@PAUCRuntimeClass@@@@QAEPAUCRuntimeClass@@XZ 10028360 f i ModuleManager.obj
 0001:00027390       ??B?$CTypedSimpleList@PAVCOleObjectFactory@@@@QAEPAVCOleObjectFactory@@XZ 10028390 f i ModuleManager.obj
 0001:000273c0       ?GetHead@CSimpleList@@QBEPAXXZ 100283c0 f i ModuleManager.obj
 0001:000273e0       _DllMain@12                100283e0 f   ModuleManager.obj
 0001:00027480       ??0CServerCustomRule@@QAE@ABV0@@Z 10028480 f i ServerCustomRule.obj
 0001:000274b0       ??0CServerCustomRule@@QAE@XZ 100284b0 f   ServerCustomRule.obj
 0001:000274e0       ??1CServerCustomRule@@UAE@XZ 100284e0 f   ServerCustomRule.obj
 0001:00027510       ??4CServerCustomRule@@QAEAAV0@ABV0@@Z 10028510 f i ServerCustomRule.obj
 0001:00027530       ??_ECServerCustomRule@@UAEPAXI@Z 10028530 f i ServerCustomRule.obj
 0001:00027610       ??_GCServerCustomRule@@UAEPAXI@Z 10028610 f i ServerCustomRule.obj
 0001:00027660       ??$DumpElements@PAUtagGameServerInfo@@@@YGXAAVCDumpContext@@PBQAUtagGameServerInfo@@H@Z 10028660 f i ServerInfoManager.obj
 0001:00027710       ??$SerializeElements@PAUtagGameServerInfo@@@@YGXAAVCArchive@@PAPAUtagGameServerInfo@@H@Z 10028710 f i ServerInfoManager.obj
 0001:000278b0       ??0?$CMap@GGPAUtagGameServerInfo@@PAU1@@@QAE@H@Z 100288b0 f i ServerInfoManager.obj
 0001:000279a0       ??0?$CWHArray@PAUtagGameServerInfo@@ABQAU1@@@QAE@XZ 100289a0 f i ServerInfoManager.obj
 0001:00027a00       ??0CAssoc@?$CMap@GGPAUtagGameServerInfo@@PAU1@@@QAE@G@Z 10028a00 f i ServerInfoManager.obj
 0001:00027a30       ??0CMatchOptionBuffer@@QAE@XZ 10028a30 f   ServerInfoManager.obj
 0001:00027ac0       ??0CPair@?$CMap@GGPAUtagGameServerInfo@@PAU1@@@IAE@G@Z 10028ac0 f i ServerInfoManager.obj
 0001:00027af0       ??0CServerInfoBuffer@@QAE@XZ 10028af0 f   ServerInfoManager.obj
 0001:00027b80       ??0CServerInfoManager@@QAE@XZ 10028b80 f   ServerInfoManager.obj
 0001:00027bc0       ??1?$CMap@GGPAUtagGameServerInfo@@PAU1@@@UAE@XZ 10028bc0 f i ServerInfoManager.obj
 0001:00027c50       ??1?$CWHArray@PAUtagGameServerInfo@@ABQAU1@@@UAE@XZ 10028c50 f i ServerInfoManager.obj
 0001:00027cd0       ??1CMatchOptionBuffer@@UAE@XZ 10028cd0 f   ServerInfoManager.obj
 0001:00027e50       ??1CServerInfoBuffer@@UAE@XZ 10028e50 f   ServerInfoManager.obj
 0001:00028070       ??1CServerInfoManager@@UAE@XZ 10029070 f   ServerInfoManager.obj
 0001:000280a0       ??A?$CMap@GGPAUtagGameServerInfo@@PAU1@@@QAEAAPAUtagGameServerInfo@@G@Z 100290a0 f i ServerInfoManager.obj
 0001:000281d0       ??A?$CWHArray@PAUtagGameServerInfo@@ABQAU1@@@QAEAAPAUtagGameServerInfo@@H@Z 100291d0 f i ServerInfoManager.obj
 0001:00028200       ??_ECServerInfoBuffer@@UAEPAXI@Z 10029200 f i ServerInfoManager.obj
 0001:000282e0       ??_E?$CMap@GGPAUtagGameServerInfo@@PAU1@@@UAEPAXI@Z 100292e0 f i ServerInfoManager.obj
 0001:000282e0       ??_G?$CMap@GGPAUtagGameServerInfo@@PAU1@@@UAEPAXI@Z 100292e0 f i ServerInfoManager.obj
 0001:00028340       ??_G?$CWHArray@PAUtagGameServerInfo@@ABQAU1@@@UAEPAXI@Z 10029340 f i ServerInfoManager.obj
 0001:00028340       ??_E?$CWHArray@PAUtagGameServerInfo@@ABQAU1@@@UAEPAXI@Z 10029340 f i ServerInfoManager.obj
 0001:00028390       ??_GCServerInfoBuffer@@UAEPAXI@Z 10029390 f i ServerInfoManager.obj
 0001:000283e0       ?Add@?$CWHArray@PAUtagGameServerInfo@@ABQAU1@@@QAEHABQAUtagGameServerInfo@@@Z 100293e0 f i ServerInfoManager.obj
 0001:00028420       ?AllocMemory@?$CWHArray@PAUtagGameServerInfo@@ABQAU1@@@QAEXH@Z 10029420 f i ServerInfoManager.obj
 0001:00028590       ?AssertValid@?$CMap@GGPAUtagGameServerInfo@@PAU1@@@UBEXXZ 10029590 f i ServerInfoManager.obj
 0001:00028610       ?ConnectPlatformDB@CServerInfoManager@@AAE_NAAVCDataBaseHelper@@@Z 10029610 f   ServerInfoManager.obj
 0001:000286f0       ?CreateMatchOption@CMatchOptionBuffer@@AAEPAUtagGameMatchOption@@XZ 100296f0 f   ServerInfoManager.obj
 0001:00028840       ?CreateServerInfo@CServerInfoBuffer@@AAEPAUtagGameServerInfo@@XZ 10029840 f   ServerInfoManager.obj
 0001:00028990       ?DeleteGameServer@CServerInfoManager@@QAE_NG@Z 10029990 f   ServerInfoManager.obj
 0001:00028ce0       ?DeleteMatchOption@CMatchOptionBuffer@@QAE_NKK@Z 10029ce0 f   ServerInfoManager.obj
 0001:00028dd0       ?DeleteServerInfo@CServerInfoBuffer@@QAE_NG@Z 10029dd0 f   ServerInfoManager.obj
 0001:00028e60       ?Dump@?$CMap@GGPAUtagGameServerInfo@@PAU1@@@UBEXAAVCDumpContext@@@Z 10029e60 f i ServerInfoManager.obj
 0001:00028f70       ?ElementAt@?$CWHArray@PAUtagGameServerInfo@@ABQAU1@@@QAEAAPAUtagGameServerInfo@@H@Z 10029f70 f i ServerInfoManager.obj
 0001:00028ff0       ?FreeAssoc@?$CMap@GGPAUtagGameServerInfo@@PAU1@@@IAEXPAVCAssoc@1@@Z 10029ff0 f i ServerInfoManager.obj
 0001:00029070       ?GetAssocAt@?$CMap@GGPAUtagGameServerInfo@@PAU1@@@IBEPAVCAssoc@1@GAAI0@Z 1002a070 f i ServerInfoManager.obj
 0001:00029120       ?GetCount@?$CMap@GGPAUtagGameServerInfo@@PAU1@@@QBEHXZ 1002a120 f i ServerInfoManager.obj
 0001:00029140       ?GetCount@?$CWHArray@PAUtagGameServerInfo@@ABQAU1@@@QBEHXZ 1002a140 f i ServerInfoManager.obj
 0001:00029160       ?GetMatchOptionCount@CMatchOptionBuffer@@QAEKXZ 1002a160 f   ServerInfoManager.obj
 0001:00029190       ?GetServerInfoCount@CServerInfoBuffer@@QAEKXZ 1002a190 f   ServerInfoManager.obj
 0001:000291c0       ?InitHashTable@?$CMap@GGPAUtagGameServerInfo@@PAU1@@@QAEXIH@Z 1002a1c0 f i ServerInfoManager.obj
 0001:00029340       ?InsertGameServer@CServerInfoManager@@QAE_NPAUtagGameServerCreate@@AAUtagGameServerInfo@@@Z 1002a340 f   ServerInfoManager.obj
 0001:00029c50       ?InsertMatchOption@CMatchOptionBuffer@@QAE_NPAUtagGameMatchOption@@@Z 1002ac50 f   ServerInfoManager.obj
 0001:00029d40       ?InsertPersonalRoomParameter@CServerInfoManager@@QAE_NVCDataBaseAide@@UtagPersonalRoomOption@@UtagPersonalRoomOptionRightAndFee@@GG@Z 1002ad40 f   ServerInfoManager.obj
 0001:0002a6a0       ?InsertServerInfo@CServerInfoBuffer@@QAE_NPAUtagGameServerInfo@@@Z 1002b6a0 f   ServerInfoManager.obj
 0001:0002a790       ?LoadGameServerInfo@CServerInfoManager@@QAE_NQADAAVCServerInfoBuffer@@@Z 1002b790 f   ServerInfoManager.obj
 0001:0002ac00       ?LoadGameServerInfo@CServerInfoManager@@QAE_NQADGAAUtagGameServerInfo@@@Z 1002bc00 f   ServerInfoManager.obj
 0001:0002b050       ?LoadPersonalRoomParameter@CServerInfoManager@@QAE_NAAUtagPersonalRoomOption@@AAUtagPersonalRoomOptionRightAndFee@@G@Z 1002c050 f   ServerInfoManager.obj
 0001:0002b8e0       ?Lookup@?$CMap@GGPAUtagGameServerInfo@@PAU1@@@QBEHGAAPAUtagGameServerInfo@@@Z 1002c8e0 f i ServerInfoManager.obj
 0001:0002b950       ?ModifyGameServer@CServerInfoManager@@QAE_NPAUtagGameServerCreate@@AAUtagGameServerInfo@@@Z 1002c950 f   ServerInfoManager.obj
 0001:0002c2a0       ?ModifyPersonalRoomParameter@CServerInfoManager@@QAE_NVCDataBaseAide@@UtagPersonalRoomOption@@UtagPersonalRoomOptionRightAndFee@@GG@Z 1002d2a0 f   ServerInfoManager.obj
 0001:0002cc00       ?NewAssoc@?$CMap@GGPAUtagGameServerInfo@@PAU1@@@IAEPAVCAssoc@1@G@Z 1002dc00 f i ServerInfoManager.obj
 0001:0002cdc0       ?ReadGameServerInfo@CServerInfoManager@@AAE_NAAVCDataBaseAide@@AAUtagGameServerInfo@@@Z 1002ddc0 f   ServerInfoManager.obj
 0001:0002d900       ?RemoveAll@?$CMap@GGPAUtagGameServerInfo@@PAU1@@@QAEXXZ 1002e900 f i ServerInfoManager.obj
 0001:0002d9f0       ?RemoveAll@?$CWHArray@PAUtagGameServerInfo@@ABQAU1@@@QAEXXZ 1002e9f0 f i ServerInfoManager.obj
 0001:0002da70       ?RemoveAt@?$CWHArray@PAUtagGameServerInfo@@ABQAU1@@@QAEXHH@Z 1002ea70 f i ServerInfoManager.obj
 0001:0002dbb0       ?RemoveKey@?$CMap@GGPAUtagGameServerInfo@@PAU1@@@QAEHG@Z 1002ebb0 f i ServerInfoManager.obj
 0001:0002dca0       ?ResetMatchOption@CMatchOptionBuffer@@QAE_NXZ 1002eca0 f   ServerInfoManager.obj
 0001:0002dce0       ?ResetServerInfo@CServerInfoBuffer@@QAE_NXZ 1002ece0 f   ServerInfoManager.obj
 0001:0002dd70       ?SearchMatchOption@CMatchOptionBuffer@@QAEPAUtagGameMatchOption@@K_J@Z 1002ed70 f   ServerInfoManager.obj
 0001:0002de20       ?SearchServerInfo@CServerInfoBuffer@@QAEPAUtagGameServerInfo@@G@Z 1002ee20 f   ServerInfoManager.obj
 0001:0002de60       ?Serialize@?$CMap@GGPAUtagGameServerInfo@@PAU1@@@UAEXAAVCArchive@@@Z 1002ee60 f i ServerInfoManager.obj
 0001:0002e010       ?SetAt@?$CMap@GGPAUtagGameServerInfo@@PAU1@@@QAEXGPAUtagGameServerInfo@@@Z 1002f010 f i ServerInfoManager.obj
 0001:0002e040       ?SetAtGrow@?$CWHArray@PAUtagGameServerInfo@@ABQAU1@@@QAEXHABQAUtagGameServerInfo@@@Z 1002f040 f i ServerInfoManager.obj
 0001:0002e0d0       ?SetPersonalRoomOption@CServerInfoManager@@QAEXUtagPersonalRoomOption@@UtagPersonalRoomOptionRightAndFee@@@Z 1002f0d0 f   ServerInfoManager.obj
 0001:0002e120       ?SetSize@?$CWHArray@PAUtagGameServerInfo@@ABQAU1@@@QAEXH@Z 1002f120 f i ServerInfoManager.obj
 0001:0002e240       ?WriteFileValue@CServerInfoManager@@QAEXPBD0I0@Z 1002f240 f   ServerInfoManager.obj
 0001:0002e2d0       ?WritePersonalRoomInfo@CServerInfoManager@@QAE_NUtagPersonalRoomOption@@UtagPersonalRoomOptionRightAndFee@@G@Z 1002f2d0 f   ServerInfoManager.obj
 0001:0002e800       ??0CServerListControl@@QAE@XZ 1002f800 f   ServerListControl.obj
 0001:0002e830       ??1CServerListControl@@UAE@XZ 1002f830 f   ServerListControl.obj
 0001:0002e860       ??_ECServerListControl@@UAEPAXI@Z 1002f860 f i ServerListControl.obj
 0001:0002e960       ??_GCServerListControl@@UAEPAXI@Z 1002f960 f i ServerListControl.obj
 0001:0002e9c0       ?GetDescribeString@CServerListControl@@AAEPBDPAUtagGameServerInfo@@G@Z 1002f9c0 f   ServerListControl.obj
 0001:0002ecf0       ?GetInsertIndex@CServerListControl@@AAEGPAUtagGameServerInfo@@@Z 1002fcf0 f   ServerListControl.obj
 0001:0002edd0       ?GetListItemColor@CServerListControl@@UAEXJIAAUtagListItemColor@@@Z 1002fdd0 f   ServerListControl.obj
 0001:0002ef10       ?InitListControl@CServerListControl@@UAEXXZ 1002ff10 f   ServerListControl.obj
 0001:0002f1a0       ?InsertServerInfo@CServerListControl@@QAE_NPAUtagGameServerInfo@@@Z 100301a0 f   ServerListControl.obj
 0001:0002f2f0       ?SortListItemData@CServerListControl@@UAEHJJG@Z 100302f0 f   ServerListControl.obj
 0001:0002f690       ?_AfxInitManaged@@YAHXZ    10030690 f i Stdafx.obj
 0001:0002f6b0       ??$AtlAdd@H@ATL@@YAJPAHHH@Z 100306b0 f i Stdafx.obj
 0001:0002f700       ??$AtlAdd@I@ATL@@YAJPAIII@Z 10030700 f i Stdafx.obj
 0001:0002f750       ??$AtlAdd@K@ATL@@YAJPAKKK@Z 10030750 f i Stdafx.obj
 0001:0002f7a0       ??$AtlAlignUp@H@ATL@@YGHHK@Z 100307a0 f i Stdafx.obj
 0001:0002f7d0       ??$AtlMultiply@K@ATL@@YAJPAKKK@Z 100307d0 f i Stdafx.obj
 0001:0002f830       ??0?$CSimpleArray@GV?$CSimpleArrayEqualHelper@G@ATL@@@ATL@@QAE@XZ 10030830 f i Stdafx.obj
 0001:0002f870       ??0?$CTraceCategoryEx@$00$0A@@ATL@@QAE@PBD@Z 10030870 f i Stdafx.obj
 0001:0002f8a0       ??0?$CTraceCategoryEx@$01$0A@@ATL@@QAE@PBD@Z 100308a0 f i Stdafx.obj
 0001:0002f8d0       ??0?$CTraceCategoryEx@$03$0A@@ATL@@QAE@PBD@Z 100308d0 f i Stdafx.obj
 0001:0002f900       ??0?$CTraceCategoryEx@$07$0A@@ATL@@QAE@PBD@Z 10030900 f i Stdafx.obj
 0001:0002f930       ??0?$CTraceCategoryEx@$0BA@$0A@@ATL@@QAE@PBD@Z 10030930 f i Stdafx.obj
 0001:0002f960       ??0?$CTraceCategoryEx@$0BAA@$0A@@ATL@@QAE@PBD@Z 10030960 f i Stdafx.obj
 0001:0002f9a0       ??0?$CTraceCategoryEx@$0BAAA@$0A@@ATL@@QAE@PBD@Z 100309a0 f i Stdafx.obj
 0001:0002f9e0       ??0?$CTraceCategoryEx@$0BAAAA@$0A@@ATL@@QAE@PBD@Z 100309e0 f i Stdafx.obj
 0001:0002fa20       ??0?$CTraceCategoryEx@$0BAAAAA@$0A@@ATL@@QAE@PBD@Z 10030a20 f i Stdafx.obj
 0001:0002fa60       ??0?$CTraceCategoryEx@$0CA@$0A@@ATL@@QAE@PBD@Z 10030a60 f i Stdafx.obj
 0001:0002fa90       ??0?$CTraceCategoryEx@$0CAA@$0A@@ATL@@QAE@PBD@Z 10030a90 f i Stdafx.obj
 0001:0002fad0       ??0?$CTraceCategoryEx@$0CAAAAA@$0A@@ATL@@QAE@PBD@Z 10030ad0 f i Stdafx.obj
 0001:0002fb10       ??0?$CTraceCategoryEx@$0EA@$0A@@ATL@@QAE@PBD@Z 10030b10 f i Stdafx.obj
 0001:0002fb40       ??0?$CTraceCategoryEx@$0EAA@$0A@@ATL@@QAE@PBD@Z 10030b40 f i Stdafx.obj
 0001:0002fb80       ??0?$CTraceCategoryEx@$0EAAA@$0A@@ATL@@QAE@PBD@Z 10030b80 f i Stdafx.obj
 0001:0002fbc0       ??0?$CTraceCategoryEx@$0EAAAA@$0A@@ATL@@QAE@PBD@Z 10030bc0 f i Stdafx.obj
 0001:0002fc00       ??0?$CTraceCategoryEx@$0EAAAAA@$0A@@ATL@@QAE@PBD@Z 10030c00 f i Stdafx.obj
 0001:0002fc40       ??0?$CTraceCategoryEx@$0IA@$0A@@ATL@@QAE@PBD@Z 10030c40 f i Stdafx.obj
 0001:0002fc80       ??0?$CTraceCategoryEx@$0IAA@$0A@@ATL@@QAE@PBD@Z 10030c80 f i Stdafx.obj
 0001:0002fcc0       ??0?$CTraceCategoryEx@$0IAAA@$0A@@ATL@@QAE@PBD@Z 10030cc0 f i Stdafx.obj
 0001:0002fd00       ??0?$CTraceCategoryEx@$0IAAAA@$0A@@ATL@@QAE@PBD@Z 10030d00 f i Stdafx.obj
 0001:0002fd40       ??0CAtlComModule@ATL@@QAE@XZ 10030d40 f i Stdafx.obj
 0001:0002fe30       ??0CAtlStringMgr@ATL@@QAE@PAUIAtlMemMgr@1@@Z 10030e30 f i Stdafx.obj
 0001:0002fe90       ??0CAtlStringMgrStaticInitializer@ATLImplementationDetails@ATL@@QAE@XZ 10030e90 f i Stdafx.obj
 0001:0002fec0       ??0CAtlWinModule@ATL@@QAE@XZ 10030ec0 f i Stdafx.obj
 0001:0002ff60       ??0CComCriticalSection@ATL@@QAE@XZ 10030f60 f i Stdafx.obj
 0001:0002ff90       ??0CNilStringData@ATL@@QAE@XZ 10030f90 f i Stdafx.obj
 0001:00030010       ??0CWin32Heap@ATL@@QAE@PAX@Z 10031010 f i Stdafx.obj
 0001:00030090       ??0_ATL_COM_MODULE70@ATL@@QAE@XZ 10031090 f i Stdafx.obj
 0001:000300c0       ??0_ATL_WIN_MODULE70@ATL@@QAE@XZ 100310c0 f i Stdafx.obj
 0001:00030140       ??1?$CSimpleArray@GV?$CSimpleArrayEqualHelper@G@ATL@@@ATL@@QAE@XZ 10031140 f i Stdafx.obj
 0001:000301a0       ??1CAtlComModule@ATL@@QAE@XZ 100311a0 f i Stdafx.obj
 0001:00030200       ??1CAtlStringMgr@ATL@@UAE@XZ 10031200 f i Stdafx.obj
 0001:00030220       ??1CAtlWinModule@ATL@@QAE@XZ 10031220 f i Stdafx.obj
 0001:00030280       ??1CComCriticalSection@ATL@@QAE@XZ 10031280 f i Stdafx.obj
 0001:000302a0       ??1CWin32Heap@ATL@@UAE@XZ  100312a0 f i Stdafx.obj
 0001:00030330       ??1_ATL_COM_MODULE70@ATL@@QAE@XZ 10031330 f i Stdafx.obj
 0001:00030360       ??1_ATL_WIN_MODULE70@ATL@@QAE@XZ 10031360 f i Stdafx.obj
 0001:000303a0       ??A?$CSimpleArray@GV?$CSimpleArrayEqualHelper@G@ATL@@@ATL@@QAEAAGH@Z 100313a0 f i Stdafx.obj
 0001:00030440       ??B?$CTraceCategoryEx@$01$0A@@ATL@@QAEIXZ 10031440 f i Stdafx.obj
 0001:00030460       ??B?$CTraceCategoryEx@$0CA@$0A@@ATL@@QAEIXZ 10031460 f i Stdafx.obj
 0001:00030480       ??_ECAtlStringMgr@ATL@@UAEPAXI@Z 10031480 f i Stdafx.obj
 0001:00030480       ??_GCAtlStringMgr@ATL@@UAEPAXI@Z 10031480 f i Stdafx.obj
 0001:000304d0       ??_GCWin32Heap@ATL@@UAEPAXI@Z 100314d0 f i Stdafx.obj
 0001:000304d0       ??_ECWin32Heap@ATL@@UAEPAXI@Z 100314d0 f i Stdafx.obj
 0001:00030520       ?AddRef@CStringData@ATL@@QAEXXZ 10031520 f i Stdafx.obj
 0001:00030580       ?Allocate@CAtlStringMgr@ATL@@UAEPAUCStringData@2@HH@Z 10031580 f i Stdafx.obj
 0001:00030750       ?Allocate@CWin32Heap@ATL@@UAEPAXI@Z 10031750 f i Stdafx.obj
 0001:00030790       ?AtlWinModuleInit@ATL@@YGJPAU_ATL_WIN_MODULE70@1@@Z 10031790 f i Stdafx.obj
 0001:00030880       ?AtlWinModuleTerm@ATL@@YGJPAU_ATL_WIN_MODULE70@1@PAUHINSTANCE__@@@Z 10031880 f i Stdafx.obj
 0001:00030950       ?Clone@CAtlStringMgr@ATL@@UAEPAUIAtlStringMgr@2@XZ 10031950 f i Stdafx.obj
 0001:00030970       ?Free@CAtlStringMgr@ATL@@UAEXPAUCStringData@2@@Z 10031970 f i Stdafx.obj
 0001:00030a20       ?Free@CWin32Heap@ATL@@UAEXPAX@Z 10031a20 f i Stdafx.obj
 0001:00030aa0       ?GetInstance@CAtlStringMgr@ATL@@SAPAUIAtlStringMgr@2@XZ 10031aa0 f i Stdafx.obj
 0001:00030ba0       ?GetModuleInstance@CAtlBaseModule@ATL@@QAEPAUHINSTANCE__@@XZ 10031ba0 f i Stdafx.obj
 0001:00030bc0       ?GetNilString@CAtlStringMgr@ATL@@UAEPAUCStringData@2@XZ 10031bc0 f i Stdafx.obj
 0001:00030bf0       ?GetSize@?$CSimpleArray@GV?$CSimpleArrayEqualHelper@G@ATL@@@ATL@@QBEHXZ 10031bf0 f i Stdafx.obj
 0001:00030c10       ?GetSize@CWin32Heap@ATL@@UAEIPAX@Z 10031c10 f i Stdafx.obj
 0001:00030c50       ?Init@CComCriticalSection@ATL@@QAEJXZ 10031c50 f i Stdafx.obj
 0001:00030cb0       ?Reallocate@CAtlStringMgr@ATL@@UAEPAUCStringData@2@PAU32@HH@Z 10031cb0 f i Stdafx.obj
 0001:00030ea0       ?Reallocate@CWin32Heap@ATL@@UAEPAXPAXI@Z 10031ea0 f i Stdafx.obj
 0001:00030f20       ?RemoveAll@?$CSimpleArray@GV?$CSimpleArrayEqualHelper@G@ATL@@@ATL@@QAEXXZ 10031f20 f i Stdafx.obj
 0001:00030fa0       ?SetManager@CNilStringData@ATL@@QAEXPAUIAtlStringMgr@2@@Z 10031fa0 f i Stdafx.obj
 0001:00031000       ?Term@CAtlComModule@ATL@@QAEXXZ 10032000 f i Stdafx.obj
 0001:000310c0       ?Term@CAtlWinModule@ATL@@QAEXXZ 100320c0 f i Stdafx.obj
 0001:000310f0       ?Term@CComCriticalSection@ATL@@QAEJXZ 100320f0 f i Stdafx.obj
 0001:00031120       ?_AtlInitializeCriticalSectionEx@ATL@@YAHPAU_RTL_CRITICAL_SECTION@@KK@Z 10032120 f i Stdafx.obj
 0001:00031150       ?_AtlRaiseException@ATL@@YAXKK@Z 10032150 f i Stdafx.obj
 0001:0003117a       ?GetMachineID@CWHService@@SA_NQAD@Z 1003217a f   ServiceCore:ServiceCore.dll
 0001:00031180       ?XorCrevasse@CWHEncrypt@@SA_NPBDPADG@Z 10032180 f   ServiceCore:ServiceCore.dll
 0001:00031186       ?GetWorkDirectory@CWHService@@SA_NQADG@Z 10032186 f   ServiceCore:ServiceCore.dll
 0001:0003118c       ??0CWHIniData@@QAE@XZ      1003218c f   ServiceCore:ServiceCore.dll
 0001:00031192       ??1CWHIniData@@UAE@XZ      10032192 f   ServiceCore:ServiceCore.dll
 0001:00031198       ?SetIniFilePath@CWHIniData@@QAEXPBD@Z 10032198 f   ServiceCore:ServiceCore.dll
 0001:0003119e       ?ReadInt@CWHIniData@@QAEIPBD0H@Z 1003219e f   ServiceCore:ServiceCore.dll
 0001:000311a4       ?WriteInt@CWHIniData@@QAE_NPBD0H@Z 100321a4 f   ServiceCore:ServiceCore.dll
 0001:000311aa       ?GetModuleVersion@CWHService@@SA_NPBDAAK@Z 100321aa f   ServiceCore:ServiceCore.dll
 0001:000311b0       ?TraceString@CTraceService@@SA_NPBDW4enTraceLevel@@@Z 100321b0 f   KernelEngine:KernelEngine.dll
 0001:000311b6       ??0CDataBaseAide@@QAE@PAUIUnknownEx@@@Z 100321b6 f   KernelEngine:KernelEngine.dll
 0001:000311bc       ??1CDataBaseAide@@UAE@XZ   100321bc f   KernelEngine:KernelEngine.dll
 0001:000311c2       ?SetDataBase@CDataBaseAide@@QAE_NPAUIUnknownEx@@@Z 100321c2 f   KernelEngine:KernelEngine.dll
 0001:000311c8       ?GetValue_WORD@CDataBaseAide@@QAEGPBD@Z 100321c8 f   KernelEngine:KernelEngine.dll
 0001:000311ce       ?GetValue_String@CDataBaseAide@@QAEXPBDPADI@Z 100321ce f   KernelEngine:KernelEngine.dll
 0001:000311d4       ?ResetParameter@CDataBaseAide@@QAEXXZ 100321d4 f   KernelEngine:KernelEngine.dll
 0001:000311da       ?AddParameter@CDataBaseAide@@QAEXPBD0W4ParameterDirectionEnum@ADOCG@@@Z 100321da f   KernelEngine:KernelEngine.dll
 0001:000311e0       ?ExecuteProcess@CDataBaseAide@@QAEJPBD_N@Z 100321e0 f   KernelEngine:KernelEngine.dll
 0001:000311e6       ?GetValue_BYTE@CDataBaseAide@@QAEEPBD@Z 100321e6 f   KernelEngine:KernelEngine.dll
 0001:000311ec       ?GetValue_DWORD@CDataBaseAide@@QAEKPBD@Z 100321ec f   KernelEngine:KernelEngine.dll
 0001:000311f2       ?GetValue_LONGLONG@CDataBaseAide@@QAE_JPBD@Z 100321f2 f   KernelEngine:KernelEngine.dll
 0001:000311f8       ?GetValue_SystemTime@CDataBaseAide@@QAEXPBDAAU_SYSTEMTIME@@@Z 100321f8 f   KernelEngine:KernelEngine.dll
 0001:000311fe       ?GetParameter@CDataBaseAide@@QAEXPBDPADI@Z 100321fe f   KernelEngine:KernelEngine.dll
 0001:00031204       ?AddParameter@CDataBaseAide@@QAEXPBDHW4ParameterDirectionEnum@ADOCG@@@Z 10032204 f   KernelEngine:KernelEngine.dll
 0001:0003120a       ?AddParameter@CDataBaseAide@@QAEXPBD_JW4ParameterDirectionEnum@ADOCG@@@Z 1003220a f   KernelEngine:KernelEngine.dll
 0001:00031210       ?AddParameter@CDataBaseAide@@QAEXPBDEW4ParameterDirectionEnum@ADOCG@@@Z 10032210 f   KernelEngine:KernelEngine.dll
 0001:00031216       ?AddParameter@CDataBaseAide@@QAEXPBDGW4ParameterDirectionEnum@ADOCG@@@Z 10032216 f   KernelEngine:KernelEngine.dll
 0001:0003121c       ?AddParameter@CDataBaseAide@@QAEXPBDKW4ParameterDirectionEnum@ADOCG@@@Z 1003221c f   KernelEngine:KernelEngine.dll
 0001:00031222       ?AddParameter@CDataBaseAide@@QAEXPBDAAU_SYSTEMTIME@@W4ParameterDirectionEnum@ADOCG@@@Z 10032222 f   KernelEngine:KernelEngine.dll
 0001:00031228       ?AddParameterOutput@CDataBaseAide@@QAEXPBDPADIW4ParameterDirectionEnum@ADOCG@@@Z 10032228 f   KernelEngine:KernelEngine.dll
 0001:0003122e       ?GetValue_INT@CDataBaseAide@@QAEHPBD@Z 1003222e f   KernelEngine:KernelEngine.dll
 0001:00031234       ?GetValue_LONG@CDataBaseAide@@QAEJPBD@Z 10032234 f   KernelEngine:KernelEngine.dll
 0001:0003123a       ?AddParameter@CDataBaseAide@@QAEXPBDJW4ParameterDirectionEnum@ADOCG@@@Z 1003223a f   KernelEngine:KernelEngine.dll
 0001:00031240       ??0CDataBaseAide@@QAE@ABV0@@Z 10032240 f   KernelEngine:KernelEngine.dll
 0001:00031246       ?GetThisMessageMap@CDialog@@KGPBUAFX_MSGMAP@@XZ 10032246 f   mfc140d:mfc140d.dll
 0001:0003124c       ??3@YAXPAX@Z               1003224c f   mfc140d:mfc140d.dll
 0001:00031252       ??_V@YAXPAX@Z              10032252 f   mfc140d:mfc140d.dll
 0001:00031258       ?AfxThrowMemoryException@@YGXXZ 10032258 f   mfc140d:mfc140d.dll
 0001:0003125e       ?AfxThrowInvalidArgException@@YGXXZ 1003225e f   mfc140d:mfc140d.dll
 0001:00031264       ?AfxThrowOleException@@YGXJ@Z 10032264 f   mfc140d:mfc140d.dll
 0001:0003126a       ??3CObject@@SGXPAX@Z       1003226a f   mfc140d:mfc140d.dll
 0001:00031270       ?Serialize@CObject@@UAEXAAVCArchive@@@Z 10032270 f   mfc140d:mfc140d.dll
 0001:00031276       ??B?$CSimpleStringT@D$00@ATL@@QBEPBDXZ 10032276 f   mfc140d:mfc140d.dll
 0001:0003127c       ?Append@?$CSimpleStringT@D$00@ATL@@QAEXABV12@@Z 1003227c f   mfc140d:mfc140d.dll
 0001:00031282       ?Empty@?$CSimpleStringT@D$00@ATL@@QAEXXZ 10032282 f   mfc140d:mfc140d.dll
 0001:00031288       ??0?$CStringT@DV?$StrTraitMFC_DLL@DV?$ChTraitsCRT@D@ATL@@@@@ATL@@QAE@XZ 10032288 f   mfc140d:mfc140d.dll
 0001:0003128e       ??1?$CStringT@DV?$StrTraitMFC_DLL@DV?$ChTraitsCRT@D@ATL@@@@@ATL@@QAE@XZ 1003228e f   mfc140d:mfc140d.dll
 0001:00031294       ?Format@?$CStringT@DV?$StrTraitMFC_DLL@DV?$ChTraitsCRT@D@ATL@@@@@ATL@@QAAXPBDZZ 10032294 f   mfc140d:mfc140d.dll
 0001:0003129a       ?DDX_Control@@YGXPAVCDataExchange@@HAAVCWnd@@@Z 1003229a f   mfc140d:mfc140d.dll
 0001:000312a0       ?IsInvokeAllowed@CCmdTarget@@UAEHJ@Z 100322a0 f   mfc140d:mfc140d.dll
 0001:000312a6       ?GetDispatchIID@CCmdTarget@@UAEHPAU_GUID@@@Z 100322a6 f   mfc140d:mfc140d.dll
 0001:000312ac       ?GetTypeInfoCount@CCmdTarget@@UAEIXZ 100322ac f   mfc140d:mfc140d.dll
 0001:000312b2       ?GetTypeLibCache@CCmdTarget@@UAEPAVCTypeLibCache@@XZ 100322b2 f   mfc140d:mfc140d.dll
 0001:000312b8       ?GetTypeLib@CCmdTarget@@UAEJKPAPAUITypeLib@@@Z 100322b8 f   mfc140d:mfc140d.dll
 0001:000312be       ?GetCommandMap@CCmdTarget@@MBEPBUAFX_OLECMDMAP@@XZ 100322be f   mfc140d:mfc140d.dll
 0001:000312c4       ?GetDispatchMap@CCmdTarget@@MBEPBUAFX_DISPMAP@@XZ 100322c4 f   mfc140d:mfc140d.dll
 0001:000312ca       ?GetConnectionMap@CCmdTarget@@MBEPBUAFX_CONNECTIONMAP@@XZ 100322ca f   mfc140d:mfc140d.dll
 0001:000312d0       ?GetEventSinkMap@CCmdTarget@@MBEPBUAFX_EVENTSINKMAP@@XZ 100322d0 f   mfc140d:mfc140d.dll
 0001:000312d6       ?OnCreateAggregates@CCmdTarget@@UAEHXZ 100322d6 f   mfc140d:mfc140d.dll
 0001:000312dc       ?GetInterfaceHook@CCmdTarget@@UAEPAUIUnknown@@PBX@Z 100322dc f   mfc140d:mfc140d.dll
 0001:000312e2       ?GetExtraConnectionPoints@CCmdTarget@@MAEHPAVCPtrArray@@@Z 100322e2 f   mfc140d:mfc140d.dll
 0001:000312e8       ?GetConnectionHook@CCmdTarget@@MAEPAUIConnectionPoint@@ABU_GUID@@@Z 100322e8 f   mfc140d:mfc140d.dll
 0001:000312ee       ?PreSubclassWindow@CWnd@@UAEXXZ 100322ee f   mfc140d:mfc140d.dll
 0001:000312f4       ?Create@CWnd@@UAEHPBD0KABUtagRECT@@PAV1@IPAUCCreateContext@@@Z 100322f4 f   mfc140d:mfc140d.dll
 0001:000312fa       ?CreateEx@CWnd@@UAEHKPBD0KHHHHPAUHWND__@@PAUHMENU__@@PAX@Z 100322fa f   mfc140d:mfc140d.dll
 0001:00031300       ?CreateEx@CWnd@@UAEHKPBD0KABUtagRECT@@PAV1@IPAX@Z 10032300 f   mfc140d:mfc140d.dll
 0001:00031306       ?DestroyWindow@CWnd@@UAEHXZ 10032306 f   mfc140d:mfc140d.dll
 0001:0003130c       ?PreCreateWindow@CWnd@@UAEHAAUtagCREATESTRUCTA@@@Z 1003230c f   mfc140d:mfc140d.dll
 0001:00031312       ?CalcWindowRect@CWnd@@UAEXPAUtagRECT@@I@Z 10032312 f   mfc140d:mfc140d.dll
 0001:00031318       ?GetDlgItem@CWnd@@QBEPAV1@H@Z 10032318 f   mfc140d:mfc140d.dll
 0001:0003131e       ?PostMessageA@CWnd@@QAEHIIJ@Z 1003231e f   mfc140d:mfc140d.dll
 0001:00031324       ?SetWindowTextA@CWnd@@QAEXPBD@Z 10032324 f   mfc140d:mfc140d.dll
 0001:0003132a       ?GetMenu@CWnd@@UBEPAVCMenu@@XZ 1003232a f   mfc140d:mfc140d.dll
 0001:00031330       ?SetMenu@CWnd@@UAEHPAVCMenu@@@Z 10032330 f   mfc140d:mfc140d.dll
 0001:00031336       ?SetWindowPos@CWnd@@QAEHPBV1@HHHHI@Z 10032336 f   mfc140d:mfc140d.dll
 0001:0003133c       ?GetWindowRect@CWnd@@QBEXPAUtagRECT@@@Z 1003233c f   mfc140d:mfc140d.dll
 0001:00031342       ?GetClientRect@CWnd@@QBEXPAUtagRECT@@@Z 10032342 f   mfc140d:mfc140d.dll
 0001:00031348       ?ScreenToClient@CWnd@@QBEXPAUtagRECT@@@Z 10032348 f   mfc140d:mfc140d.dll
 0001:0003134e       ?ShowWindow@CWnd@@QAEHH@Z  1003234e f   mfc140d:mfc140d.dll
 0001:00031354       ?OnToolHitTest@CWnd@@UBEHVCPoint@@PAUtagTOOLINFOA@@@Z 10032354 f   mfc140d:mfc140d.dll
 0001:0003135a       ?EnableWindow@CWnd@@QAEHH@Z 1003235a f   mfc140d:mfc140d.dll
 0001:00031360       ?SetFocus@CWnd@@QAEPAV1@XZ 10032360 f   mfc140d:mfc140d.dll
 0001:00031366       ?CheckRadioButton@CWnd@@QAEXHHH@Z 10032366 f   mfc140d:mfc140d.dll
 0001:0003136c       ?GetCheckedRadioButton@CWnd@@QBEHHH@Z 1003236c f   mfc140d:mfc140d.dll
 0001:00031372       ?GetDlgItemInt@CWnd@@QBEIHPAHH@Z 10032372 f   mfc140d:mfc140d.dll
 0001:00031378       ?GetDlgItemTextA@CWnd@@QBEHHPADH@Z 10032378 f   mfc140d:mfc140d.dll
 0001:0003137e       ?IsDlgButtonChecked@CWnd@@QBEIH@Z 1003237e f   mfc140d:mfc140d.dll
 0001:00031384       ?SetDlgItemInt@CWnd@@QAEXHIH@Z 10032384 f   mfc140d:mfc140d.dll
 0001:0003138a       ?SetDlgItemTextA@CWnd@@QAEXHPBD@Z 1003238a f   mfc140d:mfc140d.dll
 0001:00031390       ?GetScrollBarCtrl@CWnd@@UBEPAVCScrollBar@@H@Z 10032390 f   mfc140d:mfc140d.dll
 0001:00031396       ?GetParent@CWnd@@QBEPAV1@XZ 10032396 f   mfc140d:mfc140d.dll
 0001:0003139c       ?WinHelpA@CWnd@@UAEXKI@Z   1003239c f   mfc140d:mfc140d.dll
 0001:000313a2       ?HtmlHelpA@CWnd@@UAEXKI@Z  100323a2 f   mfc140d:mfc140d.dll
 0001:000313a8       ?WinHelpInternal@CWnd@@UAEXKI@Z 100323a8 f   mfc140d:mfc140d.dll
 0001:000313ae       ?ContinueModal@CWnd@@UAEHXZ 100323ae f   mfc140d:mfc140d.dll
 0001:000313b4       ?EndModalLoop@CWnd@@UAEXH@Z 100323b4 f   mfc140d:mfc140d.dll
 0001:000313ba       ?OnDrawIconicThumbnailOrLivePreview@CWnd@@UAEXAAVCDC@@VCRect@@VCSize@@HAAH@Z 100323ba f   mfc140d:mfc140d.dll
 0001:000313c0       ?GetInterfaceMap@CWnd@@MBEPBUAFX_INTERFACEMAP@@XZ 100323c0 f   mfc140d:mfc140d.dll
 0001:000313c6       ?EnsureStdObj@CWnd@@UAEJXZ 100323c6 f   mfc140d:mfc140d.dll
 0001:000313cc       ?get_accParent@CWnd@@UAEJPAPAUIDispatch@@@Z 100323cc f   mfc140d:mfc140d.dll
 0001:000313d2       ?get_accChildCount@CWnd@@UAEJPAJ@Z 100323d2 f   mfc140d:mfc140d.dll
 0001:000313d8       ?get_accChild@CWnd@@UAEJUtagVARIANT@@PAPAUIDispatch@@@Z 100323d8 f   mfc140d:mfc140d.dll
 0001:000313de       ?get_accName@CWnd@@UAEJUtagVARIANT@@PAPA_W@Z 100323de f   mfc140d:mfc140d.dll
 0001:000313e4       ?get_accValue@CWnd@@UAEJUtagVARIANT@@PAPA_W@Z 100323e4 f   mfc140d:mfc140d.dll
 0001:000313ea       ?get_accDescription@CWnd@@UAEJUtagVARIANT@@PAPA_W@Z 100323ea f   mfc140d:mfc140d.dll
 0001:000313f0       ?get_accRole@CWnd@@UAEJUtagVARIANT@@PAU2@@Z 100323f0 f   mfc140d:mfc140d.dll
 0001:000313f6       ?get_accState@CWnd@@UAEJUtagVARIANT@@PAU2@@Z 100323f6 f   mfc140d:mfc140d.dll
 0001:000313fc       ?get_accHelp@CWnd@@UAEJUtagVARIANT@@PAPA_W@Z 100323fc f   mfc140d:mfc140d.dll
 0001:00031402       ?get_accHelpTopic@CWnd@@UAEJPAPA_WUtagVARIANT@@PAJ@Z 10032402 f   mfc140d:mfc140d.dll
 0001:00031408       ?get_accKeyboardShortcut@CWnd@@UAEJUtagVARIANT@@PAPA_W@Z 10032408 f   mfc140d:mfc140d.dll
 0001:0003140e       ?get_accFocus@CWnd@@UAEJPAUtagVARIANT@@@Z 1003240e f   mfc140d:mfc140d.dll
 0001:00031414       ?get_accSelection@CWnd@@UAEJPAUtagVARIANT@@@Z 10032414 f   mfc140d:mfc140d.dll
 0001:0003141a       ?get_accDefaultAction@CWnd@@UAEJUtagVARIANT@@PAPA_W@Z 1003241a f   mfc140d:mfc140d.dll
 0001:00031420       ?accSelect@CWnd@@UAEJJUtagVARIANT@@@Z 10032420 f   mfc140d:mfc140d.dll
 0001:00031426       ?accLocation@CWnd@@UAEJPAJ000UtagVARIANT@@@Z 10032426 f   mfc140d:mfc140d.dll
 0001:0003142c       ?accNavigate@CWnd@@UAEJJUtagVARIANT@@PAU2@@Z 1003242c f   mfc140d:mfc140d.dll
 0001:00031432       ?accHitTest@CWnd@@UAEJJJPAUtagVARIANT@@@Z 10032432 f   mfc140d:mfc140d.dll
 0001:00031438       ?accDoDefaultAction@CWnd@@UAEJUtagVARIANT@@@Z 10032438 f   mfc140d:mfc140d.dll
 0001:0003143e       ?put_accName@CWnd@@UAEJUtagVARIANT@@PA_W@Z 1003243e f   mfc140d:mfc140d.dll
 0001:00031444       ?put_accValue@CWnd@@UAEJUtagVARIANT@@PA_W@Z 10032444 f   mfc140d:mfc140d.dll
 0001:0003144a       ?SetProxy@CWnd@@UAEJPAUIAccessibleProxy@@@Z 1003244a f   mfc140d:mfc140d.dll
 0001:00031450       ?CreateAccessibleProxy@CWnd@@UAEJIJPAJ@Z 10032450 f   mfc140d:mfc140d.dll
 0001:00031456       ?OnCommand@CWnd@@MAEHIJ@Z  10032456 f   mfc140d:mfc140d.dll
 0001:0003145c       ?OnNotify@CWnd@@MAEHIJPAJ@Z 1003245c f   mfc140d:mfc140d.dll
 0001:00031462       ?OnSize@CWnd@@IAEXIHH@Z    10032462 f   mfc140d:mfc140d.dll
 0001:00031468       ?GetSuperWndProcAddr@CWnd@@MAEPAP6GJPAUHWND__@@IIJ@ZXZ 10032468 f   mfc140d:mfc140d.dll
 0001:0003146e       ?DoDataExchange@CWnd@@MAEXPAVCDataExchange@@@Z 1003246e f   mfc140d:mfc140d.dll
 0001:00031474       ?BeginModalState@CWnd@@UAEXXZ 10032474 f   mfc140d:mfc140d.dll
 0001:0003147a       ?EndModalState@CWnd@@UAEXXZ 1003247a f   mfc140d:mfc140d.dll
 0001:00031480       ?OnAmbientProperty@CWnd@@UAEHPAVCOleControlSite@@JPAUtagVARIANT@@@Z 10032480 f   mfc140d:mfc140d.dll
 0001:00031486       ?WindowProc@CWnd@@MAEJIIJ@Z 10032486 f   mfc140d:mfc140d.dll
 0001:0003148c       ?OnWndMsg@CWnd@@MAEHIIJPAJ@Z 1003248c f   mfc140d:mfc140d.dll
 0001:00031492       ?DefWindowProcA@CWnd@@MAEJIIJ@Z 10032492 f   mfc140d:mfc140d.dll
 0001:00031498       ?PostNcDestroy@CWnd@@MAEXXZ 10032498 f   mfc140d:mfc140d.dll
 0001:0003149e       ?OnChildNotify@CWnd@@MAEHIIJPAJ@Z 1003249e f   mfc140d:mfc140d.dll
 0001:000314a4       ?OnTouchInputs@CWnd@@MAEHIPAUtagTOUCHINPUT@@@Z 100324a4 f   mfc140d:mfc140d.dll
 0001:000314aa       ?OnTouchInput@CWnd@@MAEHVCPoint@@HHPAUtagTOUCHINPUT@@@Z 100324aa f   mfc140d:mfc140d.dll
 0001:000314b0       ?GetGestureStatus@CWnd@@MAEKVCPoint@@@Z 100324b0 f   mfc140d:mfc140d.dll
 0001:000314b6       ?OnGestureZoom@CWnd@@MAEHVCPoint@@J@Z 100324b6 f   mfc140d:mfc140d.dll
 0001:000314bc       ?OnGesturePan@CWnd@@MAEHVCPoint@@0@Z 100324bc f   mfc140d:mfc140d.dll
 0001:000314c2       ?OnGestureRotate@CWnd@@MAEHVCPoint@@N@Z 100324c2 f   mfc140d:mfc140d.dll
 0001:000314c8       ?OnGestureTwoFingerTap@CWnd@@MAEHVCPoint@@@Z 100324c8 f   mfc140d:mfc140d.dll
 0001:000314ce       ?OnGesturePressAndTap@CWnd@@MAEHVCPoint@@J@Z 100324ce f   mfc140d:mfc140d.dll
 0001:000314d4       ?ResizeDynamicLayout@CWnd@@MAEXXZ 100324d4 f   mfc140d:mfc140d.dll
 0001:000314da       ?IsFrameWnd@CWnd@@UBEHXZ   100324da f   mfc140d:mfc140d.dll
 0001:000314e0       ?OnFinalRelease@CWnd@@UAEXXZ 100324e0 f   mfc140d:mfc140d.dll
 0001:000314e6       ?CreateControlContainer@CWnd@@MAEHPAPAVCOleControlContainer@@@Z 100324e6 f   mfc140d:mfc140d.dll
 0001:000314ec       ?CreateControlSite@CWnd@@MAEHPAVCOleControlContainer@@PAPAVCOleControlSite@@IABU_GUID@@@Z 100324ec f   mfc140d:mfc140d.dll
 0001:000314f2       ?GetRuntimeClass@CDialog@@UBEPAUCRuntimeClass@@XZ 100324f2 f   mfc140d:mfc140d.dll
 0001:000314f8       ?Create@CDialog@@UAEHPBDPAVCWnd@@@Z 100324f8 f   mfc140d:mfc140d.dll
 0001:000314fe       ?Create@CDialog@@UAEHIPAVCWnd@@@Z 100324fe f   mfc140d:mfc140d.dll
 0001:00031504       ?CreateIndirect@CDialog@@UAEHPBUDLGTEMPLATE@@PAVCWnd@@PAX@Z 10032504 f   mfc140d:mfc140d.dll
 0001:0003150a       ?CreateIndirect@CDialog@@UAEHPAXPAVCWnd@@@Z 1003250a f   mfc140d:mfc140d.dll
 0001:00031510       ??0CDialog@@QAE@IPAVCWnd@@@Z 10032510 f   mfc140d:mfc140d.dll
 0001:00031516       ?DoModal@CDialog@@UAEHXZ   10032516 f   mfc140d:mfc140d.dll
 0001:0003151c       ?EndDialog@CDialog@@QAEXH@Z 1003251c f   mfc140d:mfc140d.dll
 0001:00031522       ?OnInitDialog@CDialog@@UAEHXZ 10032522 f   mfc140d:mfc140d.dll
 0001:00031528       ?OnSetFont@CDialog@@UAEXPAVCFont@@@Z 10032528 f   mfc140d:mfc140d.dll
 0001:0003152e       ?OnCancel@CDialog@@MAEXXZ  1003252e f   mfc140d:mfc140d.dll
 0001:00031534       ??1CDialog@@UAE@XZ         10032534 f   mfc140d:mfc140d.dll
 0001:0003153a       ?AssertValid@CDialog@@UBEXXZ 1003253a f   mfc140d:mfc140d.dll
 0001:00031540       ?Dump@CDialog@@UBEXAAVCDumpContext@@@Z 10032540 f   mfc140d:mfc140d.dll
 0001:00031546       ?PreTranslateMessage@CDialog@@UAEHPAUtagMSG@@@Z 10032546 f   mfc140d:mfc140d.dll
 0001:0003154c       ?OnCmdMsg@CDialog@@UAEHIHPAXPAUAFX_CMDHANDLERINFO@@@Z 1003254c f   mfc140d:mfc140d.dll
 0001:00031552       ?CheckAutoCenter@CDialog@@UAEHXZ 10032552 f   mfc140d:mfc140d.dll
 0001:00031558       ?SetOccDialogInfo@CDialog@@MAEHPAU_AFX_OCC_DIALOG_INFO@@@Z 10032558 f   mfc140d:mfc140d.dll
 0001:0003155e       ?GetOccDialogInfo@CDialog@@MAEPAU_AFX_OCC_DIALOG_INFO@@XZ 1003255e f   mfc140d:mfc140d.dll
 0001:00031564       ?PreInitDialog@CDialog@@MAEXXZ 10032564 f   mfc140d:mfc140d.dll
 0001:0003156a       ?GetCheck@CButton@@QBEHXZ  1003256a f   mfc140d:mfc140d.dll
 0001:00031570       ?SetCheck@CButton@@QAEXH@Z 10032570 f   mfc140d:mfc140d.dll
 0001:00031576       ?GetCurSel@CComboBox@@QBEHXZ 10032576 f   mfc140d:mfc140d.dll
 0001:0003157c       ?SetCurSel@CComboBox@@QAEHH@Z 1003257c f   mfc140d:mfc140d.dll
 0001:00031582       ?GetItemData@CComboBox@@QBEKH@Z 10032582 f   mfc140d:mfc140d.dll
 0001:00031588       ?SetItemData@CComboBox@@QAEHHK@Z 10032588 f   mfc140d:mfc140d.dll
 0001:0003158e       ?GetItemDataPtr@CComboBox@@QBEPAXH@Z 1003258e f   mfc140d:mfc140d.dll
 0001:00031594       ?SetItemDataPtr@CComboBox@@QAEHHPAX@Z 10032594 f   mfc140d:mfc140d.dll
 0001:0003159a       ?AddString@CComboBox@@QAEHPBD@Z 1003259a f   mfc140d:mfc140d.dll
 0001:000315a0       ?InsertString@CComboBox@@QAEHHPBD@Z 100325a0 f   mfc140d:mfc140d.dll
 0001:000315a6       ?LimitText@CEdit@@QAEXH@Z  100325a6 f   mfc140d:mfc140d.dll
 0001:000315ac       ?AfxSetResourceHandle@@YGXPAUHINSTANCE__@@@Z 100325ac f   mfc140d:mfc140d.dll
 0001:000315b2       ?AfxMessageBox@@YGHPBDII@Z 100325b2 f   mfc140d:mfc140d.dll
 0001:000315b8       ?GetTime@CDateTimeCtrl@@QBEKAAVCTime@ATL@@@Z 100325b8 f   mfc140d:mfc140d.dll
 0001:000315be       ?SetTime@CDateTimeCtrl@@QAEHPAU_SYSTEMTIME@@@Z 100325be f   mfc140d:mfc140d.dll
 0001:000315c4       ?GetTime@CDateTimeCtrl@@QBEKPAU_SYSTEMTIME@@@Z 100325c4 f   mfc140d:mfc140d.dll
 0001:000315ca       ?GetItemData@CListCtrl@@QBEKH@Z 100325ca f   mfc140d:mfc140d.dll
 0001:000315d0       ?GetCurSel@CTabCtrl@@QBEHXZ 100325d0 f   mfc140d:mfc140d.dll
 0001:000315d6       ?SetItemSize@CTabCtrl@@QAE?AVCSize@@V2@@Z 100325d6 f   mfc140d:mfc140d.dll
 0001:000315dc       ?InsertItem@CTabCtrl@@QAEJHPBD@Z 100325dc f   mfc140d:mfc140d.dll
 0001:000315e2       ?AfxAssertValidObject@@YGXPBVCObject@@PBDH@Z 100325e2 f   mfc140d:mfc140d.dll
 0001:000315e8       ?AfxIsValidAddress@@YGHPBXIH@Z 100325e8 f   mfc140d:mfc140d.dll
 0001:000315ee       ?AfxLoadLibrary@@YGPAUHINSTANCE__@@PBD@Z 100325ee f   mfc140d:mfc140d.dll
 0001:000315f4       ?AfxFreeLibrary@@YGHPAUHINSTANCE__@@@Z 100325f4 f   mfc140d:mfc140d.dll
 0001:000315fa       ?GetItemCount@CListCtrl@@QBEHXZ 100325fa f   mfc140d:mfc140d.dll
 0001:00031600       ?GetFirstSelectedItemPosition@CListCtrl@@QBEPAU__POSITION@@XZ 10032600 f   mfc140d:mfc140d.dll
 0001:00031606       ?GetNextSelectedItem@CListCtrl@@QBEHAAPAU__POSITION@@@Z 10032606 f   mfc140d:mfc140d.dll
 0001:0003160c       ?SetItemState@CListCtrl@@QAEHHII@Z 1003260c f   mfc140d:mfc140d.dll
 0001:00031612       ?DeleteItem@CListCtrl@@QAEHH@Z 10032612 f   mfc140d:mfc140d.dll
 0001:00031618       ?DeleteAllItems@CListCtrl@@QAEHXZ 10032618 f   mfc140d:mfc140d.dll
 0001:0003161e       ?OnOK@CDialog@@MAEXXZ      1003261e f   mfc140d:mfc140d.dll
 0001:00031624       ?GetLength@?$CSimpleStringT@D$00@ATL@@QBEHXZ 10032624 f   mfc140d:mfc140d.dll
 0001:0003162a       ??0?$CStringT@DV?$StrTraitMFC_DLL@DV?$ChTraitsCRT@D@ATL@@@@@ATL@@QAE@PBD@Z 1003262a f   mfc140d:mfc140d.dll
 0001:00031630       ??4?$CStringT@DV?$StrTraitMFC_DLL@DV?$ChTraitsCRT@D@ATL@@@@@ATL@@QAEAAV01@ABV01@@Z 10032630 f   mfc140d:mfc140d.dll
 0001:00031636       ?Left@?$CStringT@DV?$StrTraitMFC_DLL@DV?$ChTraitsCRT@D@ATL@@@@@ATL@@QBE?AV12@H@Z 10032636 f   mfc140d:mfc140d.dll
 0001:0003163c       ?GetSafeHwnd@CWnd@@QBEPAUHWND__@@XZ 1003263c f   mfc140d:mfc140d.dll
 0001:00031642       ?MoveWindow@CWnd@@QAEXPBUtagRECT@@H@Z 10032642 f   mfc140d:mfc140d.dll
 0001:00031648       ?OnSetFocus@CWnd@@IAEXPAV1@@Z 10032648 f   mfc140d:mfc140d.dll
 0001:0003164e       ?OnNcDestroy@CWnd@@IAEXXZ  1003264e f   mfc140d:mfc140d.dll
 0001:00031654       ??0CStatic@@QAE@XZ         10032654 f   mfc140d:mfc140d.dll
 0001:0003165a       ??1CStatic@@UAE@XZ         1003265a f   mfc140d:mfc140d.dll
 0001:00031660       ?GetCount@CComboBox@@QBEHXZ 10032660 f   mfc140d:mfc140d.dll
 0001:00031666       ??0CToolTipCtrl@@QAE@XZ    10032666 f   mfc140d:mfc140d.dll
 0001:0003166c       ?SetMaxTipWidth@CToolTipCtrl@@QAEHH@Z 1003266c f   mfc140d:mfc140d.dll
 0001:00031672       ?Activate@CToolTipCtrl@@QAEXH@Z 10032672 f   mfc140d:mfc140d.dll
 0001:00031678       ?AddTool@CToolTipCtrl@@QAEHPAVCWnd@@PBDPBUtagRECT@@I@Z 10032678 f   mfc140d:mfc140d.dll
 0001:0003167e       ?RelayEvent@CToolTipCtrl@@QAEXPAUtagMSG@@@Z 1003267e f   mfc140d:mfc140d.dll
 0001:00031684       ??1CToolTipCtrl@@UAE@XZ    10032684 f   mfc140d:mfc140d.dll
 0001:0003168a       ??0CTabCtrl@@QAE@XZ        1003268a f   mfc140d:mfc140d.dll
 0001:00031690       ?SetCurSel@CTabCtrl@@QAEHH@Z 10032690 f   mfc140d:mfc140d.dll
 0001:00031696       ?AdjustRect@CTabCtrl@@QAEXHPAUtagRECT@@@Z 10032696 f   mfc140d:mfc140d.dll
 0001:0003169c       ??1CTabCtrl@@UAE@XZ        1003269c f   mfc140d:mfc140d.dll
 0001:000316a2       ?GetAddress@CIPAddressCtrl@@QBEHAAK@Z 100326a2 f   mfc140d:mfc140d.dll
 0001:000316a8       ?SetAddress@CIPAddressCtrl@@QAEXK@Z 100326a8 f   mfc140d:mfc140d.dll
 0001:000316ae       ?GetThisMessageMap@CWnd@@KGPBUAFX_MSGMAP@@XZ 100326ae f   mfc140d:mfc140d.dll
 0001:000316b4       ?GetThisMessageMap@CListCtrl@@KGPBUAFX_MSGMAP@@XZ 100326b4 f   mfc140d:mfc140d.dll
 0001:000316ba       ?FromHandle@CDC@@SGPAV1@PAUHDC__@@@Z 100326ba f   mfc140d:mfc140d.dll
 0001:000316c0       ?SelectObject@CDC@@UAEPAVCFont@@PAV2@@Z 100326c0 f   mfc140d:mfc140d.dll
 0001:000316c6       ?SetBkMode@CDC@@QAEHH@Z    100326c6 f   mfc140d:mfc140d.dll
 0001:000316cc       ?DrawFocusRect@CDC@@QAEXPBUtagRECT@@@Z 100326cc f   mfc140d:mfc140d.dll
 0001:000316d2       ?DrawTextA@CDC@@UAEHPBDHPAUtagRECT@@I@Z 100326d2 f   mfc140d:mfc140d.dll
 0001:000316d8       ?DrawFrameControl@CDC@@QAEHPAUtagRECT@@II@Z 100326d8 f   mfc140d:mfc140d.dll
 0001:000316de       ?FillSolidRect@CDC@@QAEXPBUtagRECT@@K@Z 100326de f   mfc140d:mfc140d.dll
 0001:000316e4       ?FillSolidRect@CDC@@QAEXHHHHK@Z 100326e4 f   mfc140d:mfc140d.dll
 0001:000316ea       ??0CPaintDC@@QAE@PAVCWnd@@@Z 100326ea f   mfc140d:mfc140d.dll
 0001:000316f0       ??1CPaintDC@@UAE@XZ        100326f0 f   mfc140d:mfc140d.dll
 0001:000316f6       ?OnCmdMsg@CCmdTarget@@UAEHIHPAXPAUAFX_CMDHANDLERINFO@@@Z 100326f6 f   mfc140d:mfc140d.dll
 0001:000316fc       ?SubclassWindow@CWnd@@QAEHPAUHWND__@@@Z 100326fc f   mfc140d:mfc140d.dll
 0001:00031702       ?GetFont@CWnd@@QBEPAVCFont@@XZ 10032702 f   mfc140d:mfc140d.dll
 0001:00031708       ?OnEraseBkgnd@CWnd@@IAEHPAVCDC@@@Z 10032708 f   mfc140d:mfc140d.dll
 0001:0003170e       ?PreTranslateMessage@CWnd@@UAEHPAUtagMSG@@@Z 1003270e f   mfc140d:mfc140d.dll
 0001:00031714       ?CheckAutoCenter@CWnd@@UAEHXZ 10032714 f   mfc140d:mfc140d.dll
 0001:0003171a       ?AssertValid@CWnd@@UBEXXZ  1003271a f   mfc140d:mfc140d.dll
 0001:00031720       ?Dump@CWnd@@UBEXAAVCDumpContext@@@Z 10032720 f   mfc140d:mfc140d.dll
 0001:00031726       ?SetOccDialogInfo@CWnd@@MAEHPAU_AFX_OCC_DIALOG_INFO@@@Z 10032726 f   mfc140d:mfc140d.dll
 0001:0003172c       ?GetOccDialogInfo@CWnd@@MAEPAU_AFX_OCC_DIALOG_INFO@@XZ 1003272c f   mfc140d:mfc140d.dll
 0001:00031732       ?GetRuntimeClass@CListCtrl@@UBEPAUCRuntimeClass@@XZ 10032732 f   mfc140d:mfc140d.dll
 0001:00031738       ??0CListCtrl@@QAE@XZ       10032738 f   mfc140d:mfc140d.dll
 0001:0003173e       ?GetBkColor@CListCtrl@@QBEKXZ 1003273e f   mfc140d:mfc140d.dll
 0001:00031744       ?SetBkColor@CListCtrl@@QAEHK@Z 10032744 f   mfc140d:mfc140d.dll
 0001:0003174a       ?GetItemText@CListCtrl@@QBEHHHPADH@Z 1003274a f   mfc140d:mfc140d.dll
 0001:00031750       ?GetHeaderCtrl@CListCtrl@@QBEPAVCHeaderCtrl@@XZ 10032750 f   mfc140d:mfc140d.dll
 0001:00031756       ?GetSubItemRect@CListCtrl@@QBEHHHHAAVCRect@@@Z 10032756 f   mfc140d:mfc140d.dll
 0001:0003175c       ?SetExtendedStyle@CListCtrl@@QAEKK@Z 1003275c f   mfc140d:mfc140d.dll
 0001:00031762       ?SortItems@CListCtrl@@QAEHP6GHJJJ@ZK@Z 10032762 f   mfc140d:mfc140d.dll
 0001:00031768       ??1CListCtrl@@UAE@XZ       10032768 f   mfc140d:mfc140d.dll
 0001:0003176e       ?OnChildNotify@CListCtrl@@MAEHIIJPAJ@Z 1003276e f   mfc140d:mfc140d.dll
 0001:00031774       ?GetRuntimeClass@CHeaderCtrl@@UBEPAUCRuntimeClass@@XZ 10032774 f   mfc140d:mfc140d.dll
 0001:0003177a       ??0CHeaderCtrl@@QAE@XZ     1003277a f   mfc140d:mfc140d.dll
 0001:00031780       ?Create@CHeaderCtrl@@UAEHKABUtagRECT@@PAVCWnd@@I@Z 10032780 f   mfc140d:mfc140d.dll
 0001:00031786       ?CreateEx@CHeaderCtrl@@UAEHKKABUtagRECT@@PAVCWnd@@I@Z 10032786 f   mfc140d:mfc140d.dll
 0001:0003178c       ?GetItemCount@CHeaderCtrl@@QBEHXZ 1003278c f   mfc140d:mfc140d.dll
 0001:00031792       ?GetItem@CHeaderCtrl@@QBEHHPAU_HD_ITEMA@@@Z 10032792 f   mfc140d:mfc140d.dll
 0001:00031798       ?GetItemRect@CHeaderCtrl@@QBEHHPAUtagRECT@@@Z 10032798 f   mfc140d:mfc140d.dll
 0001:0003179e       ?DrawItem@CHeaderCtrl@@UAEXPAUtagDRAWITEMSTRUCT@@@Z 1003279e f   mfc140d:mfc140d.dll
 0001:000317a4       ??1CHeaderCtrl@@UAE@XZ     100327a4 f   mfc140d:mfc140d.dll
 0001:000317aa       ?OnChildNotify@CHeaderCtrl@@MAEHIIJPAJ@Z 100327aa f   mfc140d:mfc140d.dll
 0001:000317b0       ??2@YAPAXI@Z               100327b0 f   mfc140d:mfc140d.dll
 0001:000317b6       ??_U@YAPAXI@Z              100327b6 f   mfc140d:mfc140d.dll
 0001:000317bc       ?SetItem@CListCtrl@@QAEHHHIPBDHIIJ@Z 100327bc f   mfc140d:mfc140d.dll
 0001:000317c2       ?FindItem@CListCtrl@@QBEHPAUtagLVFINDINFOA@@H@Z 100327c2 f   mfc140d:mfc140d.dll
 0001:000317c8       ?RedrawItems@CListCtrl@@QAEHHH@Z 100327c8 f   mfc140d:mfc140d.dll
 0001:000317ce       ?InsertColumn@CListCtrl@@QAEHHPBDHHH@Z 100327ce f   mfc140d:mfc140d.dll
 0001:000317d4       ?InsertItem@CListCtrl@@QAEHIHPBDIIHJ@Z 100327d4 f   mfc140d:mfc140d.dll
 0001:000317da       ?GetRuntimeClass@CObject@@UBEPAUCRuntimeClass@@XZ 100327da f   mfc140d:mfc140d.dll
 0001:000317e0       ??1CObject@@UAE@XZ         100327e0 f   mfc140d:mfc140d.dll
 0001:000317e6       ??0CObject@@IAE@XZ         100327e6 f   mfc140d:mfc140d.dll
 0001:000317ec       ?AssertValid@CObject@@UBEXXZ 100327ec f   mfc140d:mfc140d.dll
 0001:000317f2       ?Dump@CObject@@UBEXAAVCDumpContext@@@Z 100327f2 f   mfc140d:mfc140d.dll
 0001:000317f8       ??_U@YAPAXIPBDH@Z          100327f8 f   mfc140d:mfc140d.dll
 0001:000317fe       ?IsStoring@CArchive@@QBEHXZ 100327fe f   mfc140d:mfc140d.dll
 0001:00031804       ?EnsureRead@CArchive@@QAEXPAXI@Z 10032804 f   mfc140d:mfc140d.dll
 0001:0003180a       ?Write@CArchive@@QAEXPBXI@Z 1003280a f   mfc140d:mfc140d.dll
 0001:00031810       ?ReadCount@CArchive@@QAEKXZ 10032810 f   mfc140d:mfc140d.dll
 0001:00031816       ?WriteCount@CArchive@@QAEXK@Z 10032816 f   mfc140d:mfc140d.dll
 0001:0003181c       ?GetDepth@CDumpContext@@QBEHXZ 1003281c f   mfc140d:mfc140d.dll
 0001:00031822       ??6CDumpContext@@QAEAAV0@PBD@Z 10032822 f   mfc140d:mfc140d.dll
 0001:00031828       ??6CDumpContext@@QAEAAV0@H@Z 10032828 f   mfc140d:mfc140d.dll
 0001:0003182e       ?Create@CPlex@@SGPAU1@AAPAU1@II@Z 1003282e f   mfc140d:mfc140d.dll
 0001:00031834       ?FreeDataChain@CPlex@@QAEXXZ 10032834 f   mfc140d:mfc140d.dll
 0001:0003183a       ??2CObject@@SGPAXI@Z       1003283a f   mfc140d:mfc140d.dll
 0001:00031840       ?AfxGetModuleState@@YGPAVAFX_MODULE_STATE@@XZ 10032840 f   mfc140d:mfc140d.dll
 0001:00031846       ??0CDynLinkLibrary@@QAE@AAUAFX_EXTENSION_MODULE@@H@Z 10032846 f   mfc140d:mfc140d.dll
 0001:0003184c       ?AfxInitExtensionModule@@YGHAAUAFX_EXTENSION_MODULE@@PAUHINSTANCE__@@@Z 1003284c f   mfc140d:mfc140d.dll
 0001:00031852       ?AfxTermExtensionModule@@YGXAAUAFX_EXTENSION_MODULE@@H@Z 10032852 f   mfc140d:mfc140d.dll
 0001:00031860       ??1CComBSTR@ATL@@QAE@XZ    10032860 f i mfcs140d:nolib.obj
 0001:000318a0       ??1stringdispid@CComTypeInfoHolder@ATL@@QAE@XZ 100328a0 f i mfcs140d:nolib.obj
 0001:000318d0       ??_Estringdispid@CComTypeInfoHolder@ATL@@QAEPAXI@Z 100328d0 f i mfcs140d:nolib.obj
 0001:000319b0       _IsolationAwareActivateActCtx@8 100329b0 f i mfcs140d:nolib.obj
 0001:00031a70       _IsolationAwareCreateActCtxW@4 10032a70 f i mfcs140d:nolib.obj
 0001:00031b30       _IsolationAwareDeactivateActCtx@8 10032b30 f i mfcs140d:nolib.obj
 0001:00031bf0       _IsolationAwareFindActCtxSectionStringW@20 10032bf0 f i mfcs140d:nolib.obj
 0001:00031cc0       _IsolationAwarePrivatenPgViNgRzlnPgpgk@4 10032cc0 f i mfcs140d:nolib.obj
 0001:00031de0       _IsolationAwarePrivatezltRgCebPnQQeRff@12 10032de0 f i mfcs140d:nolib.obj
 0001:00031eb0       _IsolationAwarePrivatezltRgzbQhYRuNaQYRJ@4 10032eb0 f i mfcs140d:nolib.obj
 0001:00031ee0       _IsolationAwarePrivatezltRgzbQhYRuNaQYRn@4 10032ee0 f i mfcs140d:nolib.obj
 0001:00031f10       _IsolationAwareQueryActCtxW@28 10032f10 f i mfcs140d:nolib.obj
 0001:00031ff0       _IsolationAwareUnregisterClassA@8 10032ff0 f i mfcs140d:nolib.obj
 0001:00032200       _WinbaseIsolationAwarePrivatetRgCebPnQQeRff_xReaRYQP_QYY@4 10033200 f i mfcs140d:nolib.obj
 0001:00032230       _WinbaseIsolationAwarePrivatetRgzlnPgpgk@0 10033230 f i mfcs140d:nolib.obj
 0001:00032680       ??_M@YGXPAXIHP6EX0@Z@Z     10033680 f   msvcrtd:ehvecdtr.obj
 0001:000326b0       ??_M@YGXPAXIIP6EX0@Z@Z     100336b0 f   msvcrtd:ehvecdtr.obj
 0001:000327f0       ?__ArrayUnwind@@YGXPAXIIP6EX0@Z@Z 100337f0 f   msvcrtd:ehvecdtr.obj
 0001:000328d0       ??3@YAXPAXI@Z              100338d0 f   msvcrtd:delete_scalar_size.obj
 0001:000328f0       ??_V@YAXPAXI@Z             100338f0 f   msvcrtd:delete_array_size.obj
 0001:00032910       @__security_check_cookie@4 10033910 f   msvcrtd:secchk.obj
 0001:00032930       ??1type_info@@UAE@XZ       10033930 f   msvcrtd:std_type_info_static.obj
 0001:00032950       ??_Etype_info@@UAEPAXI@Z   10033950 f i msvcrtd:std_type_info_static.obj
 0001:00032950       ??_Gtype_info@@UAEPAXI@Z   10033950 f i msvcrtd:std_type_info_static.obj
 0001:00032990       __chkstk                   10033990 f   msvcrtd:chkstk.obj
 0001:00032990       __alloca_probe             10033990 f   msvcrtd:chkstk.obj
 0001:000329d0       ??$__crt_fast_decode_pointer@PAP6AXXZ@@YAPAP6AXXZQAP6AXXZ@Z 100339d0 f i msvcrtd:utility.obj
 0001:00032a00       ??$__crt_fast_encode_pointer@PAP6AXXZ@@YAPAP6AXXZQAP6AXXZ@Z 10033a00 f i msvcrtd:utility.obj
 0001:00032a40       ?__crt_rotate_pointer_value@@YAIIH@Z 10033a40 f i msvcrtd:utility.obj
 0001:00032a50       ?configure_argv@__scrt_narrow_argv_policy@@SAHXZ 10033a50 f i msvcrtd:utility.obj
 0001:00032b20       ?initialize_environment@__scrt_narrow_environment_policy@@SAHXZ 10033b20 f i msvcrtd:utility.obj
 0001:00032bc0       _NtCurrentTeb              10033bc0 f i msvcrtd:utility.obj
 0001:00032bd0       ___scrt_acquire_startup_lock 10033bd0 f   msvcrtd:utility.obj
 0001:00032c30       ___scrt_dllmain_after_initialize_c 10033c30 f   msvcrtd:utility.obj
 0001:00032c70       ___scrt_dllmain_before_initialize_c 10033c70 f   msvcrtd:utility.obj
 0001:00032ca0       ___scrt_dllmain_crt_thread_attach 10033ca0 f   msvcrtd:utility.obj
 0001:00032ce0       ___scrt_dllmain_crt_thread_detach 10033ce0 f   msvcrtd:utility.obj
 0001:00032d00       ___scrt_dllmain_exception_filter 10033d00 f   msvcrtd:utility.obj
 0001:00032d60       ___scrt_dllmain_uninitialize_c 10033d60 f   msvcrtd:utility.obj
 0001:00032da0       ___scrt_dllmain_uninitialize_critical 10033da0 f   msvcrtd:utility.obj
 0001:00032dc0       ___scrt_initialize_crt     10033dc0 f   msvcrtd:utility.obj
 0001:00032e20       ___scrt_initialize_onexit_tables 10033e20 f   msvcrtd:utility.obj
 0001:00032f40       ___scrt_is_nonwritable_in_current_image 10033f40 f   msvcrtd:utility.obj
 0001:000330c0       ___scrt_release_startup_lock 100340c0 f   msvcrtd:utility.obj
 0001:000330f0       ___scrt_uninitialize_crt   100340f0 f   msvcrtd:utility.obj
 0001:00033140       __onexit                   10034140 f   msvcrtd:utility.obj
 0001:000331d0       _at_quick_exit             100341d0 f   msvcrtd:utility.obj
 0001:00033230       _atexit                    10034230 f   msvcrtd:utility.obj
 0001:000332b0       ??$__crt_fast_decode_pointer@P6GHPAU_RTL_CONDITION_VARIABLE@@PAU_RTL_CRITICAL_SECTION@@K@Z@@YAP6GHPAU_RTL_CONDITION_VARIABLE@@PAU_RTL_CRITICAL_SECTION@@K@ZQ6GH01K@Z@Z 100342b0 f i msvcrtd:thread_safe_statics.obj
 0001:000332e0       ??$__crt_fast_decode_pointer@P6GXPAU_RTL_CONDITION_VARIABLE@@@Z@@YAP6GXPAU_RTL_CONDITION_VARIABLE@@@ZQ6GX0@Z@Z 100342e0 f i msvcrtd:thread_safe_statics.obj
 0001:00033310       ??$__crt_fast_encode_pointer@P6GHPAU_RTL_CONDITION_VARIABLE@@PAU_RTL_CRITICAL_SECTION@@K@Z@@YAP6GHPAU_RTL_CONDITION_VARIABLE@@PAU_RTL_CRITICAL_SECTION@@K@ZQ6GH01K@Z@Z 10034310 f i msvcrtd:thread_safe_statics.obj
 0001:00033350       ??$__crt_fast_encode_pointer@P6GXPAU_RTL_CONDITION_VARIABLE@@@Z@@YAP6GXPAU_RTL_CONDITION_VARIABLE@@@ZQ6GX0@Z@Z 10034350 f i msvcrtd:thread_safe_statics.obj
 0001:00033500       ?__scrt_is_event_api_used@@YA_NQAX@Z 10034500 f i msvcrtd:thread_safe_statics.obj
 0001:000335b0       __Init_thread_abort        100345b0 f   msvcrtd:thread_safe_statics.obj
 0001:000335e0       __Init_thread_footer       100345e0 f   msvcrtd:thread_safe_statics.obj
 0001:00033640       __Init_thread_header       10034640 f   msvcrtd:thread_safe_statics.obj
 0001:000336d0       __Init_thread_lock         100346d0 f   msvcrtd:thread_safe_statics.obj
 0001:000336f0       __Init_thread_notify       100346f0 f   msvcrtd:thread_safe_statics.obj
 0001:00033770       __Init_thread_unlock       10034770 f   msvcrtd:thread_safe_statics.obj
 0001:00033790       __Init_thread_wait         10034790 f   msvcrtd:thread_safe_statics.obj
 0001:00033e10       __CRT_INIT@12              10034e10 f   msvcrtd:dll_dllmain.obj
 0001:00033e30       __DllMainCRTStartup@12     10034e30 f   msvcrtd:dll_dllmain.obj
 0001:00033e60       @_RTC_AllocaHelper@12      10034e60 f   msvcrtd:stack.obj
 0001:00033ea0       @_RTC_CheckStackVars2@12   10034ea0 f   msvcrtd:stack.obj
 0001:00033fc0       @_RTC_CheckStackVars@8     10034fc0 f   msvcrtd:stack.obj
 0001:00034040       __RTC_CheckEsp             10035040 f   msvcrtd:stack.obj
 0001:00034080       __CRT_RTC_INIT             10035080 f   msvcrtd:init.obj
 0001:00034090       __CRT_RTC_INITW            10035090 f   msvcrtd:init.obj
 0001:000340a0       __RTC_InitBase             100350a0 f   msvcrtd:init.obj
 0001:000340e0       __RTC_Shutdown             100350e0 f   msvcrtd:init.obj
 0001:00034100       __except_handler4          10035100 f   msvcrtd:chandler4gs.obj
 0001:00034130       @_guard_check_icall_nop@4  10035130 f i msvcrtd:guard_support.obj
 0001:00034140       _ReadNoFence               10035140 f i msvcrtd:guard_support.obj
 0001:00034160       _ReadPointerNoFence        10035160 f i msvcrtd:guard_support.obj
 0001:00034180       __guard_icall_checks_enforced 10035180 f i msvcrtd:guard_support.obj
 0001:000341c0       ___raise_securityfailure   100351c0 f   msvcrtd:gs_report.obj
 0001:00034200       ___report_gsfailure        10035200 f   msvcrtd:gs_report.obj
 0001:00034350       ___report_rangecheckfailure 10035350 f   msvcrtd:gs_report.obj
 0001:00034360       ___report_securityfailure  10035360 f   msvcrtd:gs_report.obj
 0001:00034470       ___report_securityfailureEx 10035470 f   msvcrtd:gs_report.obj
 0001:000345e0       ___isa_available_init      100355e0 f   msvcrtd:cpu_disp.obj
 0001:00034970       __get_startup_argv_mode    10035970 f   msvcrtd:argv_mode.obj
 0001:00034980       ___scrt_is_ucrt_dll_in_use 10035980 f   msvcrtd:ucrt_detection.obj
 0001:000349b0       ___scrt_fastfail           100359b0 f   msvcrtd:utility_desktop.obj
 0001:00034b40       ___scrt_get_show_window_mode 10035b40 f   msvcrtd:utility_desktop.obj
 0001:00034b90       ___scrt_initialize_mta     10035b90 f   msvcrtd:utility_desktop.obj
 0001:00034ba0       ___scrt_initialize_winrt   10035ba0 f   msvcrtd:utility_desktop.obj
 0001:00034bb0       ___scrt_is_managed_app     10035bb0 f   msvcrtd:utility_desktop.obj
 0001:00034c60       ___scrt_set_unhandled_exception_filter 10035c60 f   msvcrtd:utility_desktop.obj
 0001:00034c80       ___scrt_exe_initialize_mta 10035c80 f   msvcrtd:utility_desktop.obj
 0001:00034c80       ___scrt_stub_for_initialize_mta 10035c80 f   msvcrtd:utility_desktop.obj
 0001:00034c90       ___scrt_unhandled_exception_filter@4 10035c90 f   msvcrtd:utility_desktop.obj
 0001:00034d10       __crt_debugger_hook        10035d10 f   msvcrtd:utility_desktop.obj
 0001:00034dc0       ___security_init_cookie    10035dc0 f   msvcrtd:gs_support.obj
 0001:00034e60       ?__scrt_initialize_type_info@@YAXXZ 10035e60 f   msvcrtd:tncleanup.obj
 0001:00034e80       ?__scrt_uninitialize_type_info@@YAXXZ 10035e80 f   msvcrtd:tncleanup.obj
 0001:00034ea0       ___local_stdio_scanf_options 10035ea0 f i msvcrtd:default_local_stdio_options.obj
 0001:00034eb0       ___scrt_initialize_default_local_stdio_options 10035eb0 f   msvcrtd:default_local_stdio_options.obj
 0001:00034f00       ___scrt_get_dyn_tls_init_callback 10035f00 f   msvcrtd:dyn_tls_init.obj
 0001:00034f10       __RTC_Initialize           10035f10 f   msvcrtd:initsect.obj
 0001:00034f50       __RTC_Terminate            10035f50 f   msvcrtd:initsect.obj
 0001:00035040       ?_RTC_AllocaFailure@@YAXPAXPAU_RTC_ALLOCA_NODE@@H@Z 10036040 f   msvcrtd:error.obj
 0001:00035160       ?_RTC_Failure@@YAXPAXH@Z   10036160 f   msvcrtd:error.obj
 0001:000351d0       ?_RTC_StackFailure@@YAXPAXPBD@Z 100361d0 f   msvcrtd:error.obj
 0001:00035680       __RTC_UninitUse            10036680 f   msvcrtd:error.obj
 0001:00035760       __vsprintf_s_l             10036760 f i msvcrtd:error.obj
 0001:000357a0       _sprintf_s                 100367a0 f i msvcrtd:error.obj
 0001:000357d0       ?_RTC_GetErrorFunc@@YAP6AHHPBDH00ZZPBX@Z 100367d0 f   msvcrtd:userapi.obj
 0001:000357e0       ?_RTC_GetErrorFuncW@@YAP6AHHPB_WH00ZZPBX@Z 100367e0 f   msvcrtd:userapi.obj
 0001:000357f0       __RTC_GetErrDesc           100367f0 f   msvcrtd:userapi.obj
 0001:00035810       __RTC_NumErrors            10036810 f   msvcrtd:userapi.obj
 0001:00035820       __RTC_SetErrorFunc         10036820 f   msvcrtd:userapi.obj
 0001:00035850       __RTC_SetErrorFuncW        10036850 f   msvcrtd:userapi.obj
 0001:00035880       __RTC_SetErrorType         10036880 f   msvcrtd:userapi.obj
 0001:00035e40       ?_RTC_GetSrcLine@@YAHPAEPA_WKPAH1K@Z 10036e40 f   msvcrtd:pdblkup.obj
 0001:000362b0       __except_handler4_noexcept 100372b0 f   msvcrtd:chandler4_noexcept.obj
 0001:00036308       _GetLastError@0            10037308 f   kernel32:KERNEL32.dll
 0001:0003630e       _SetLastError@4            1003730e f   kernel32:KERNEL32.dll
 0001:00036314       _GetModuleHandleA@4        10037314 f   kernel32:KERNEL32.dll
 0001:0003631a       _lstrcpynA@12              1003731a f   kernel32:KERNEL32.dll
 0001:00036320       _MultiByteToWideChar@24    10037320 f   kernel32:KERNEL32.dll
 0001:00036326       _GetProcAddress@8          10037326 f   kernel32:KERNEL32.dll
 0001:0003632c       _FreeLibrary@4             1003732c f   kernel32:KERNEL32.dll
 0001:00036332       _LoadLibraryA@4            10037332 f   kernel32:KERNEL32.dll
 0001:00036338       _lstrcmpA@8                10037338 f   kernel32:KERNEL32.dll
 0001:0003633e       _lstrcmpiA@8               1003733e f   kernel32:KERNEL32.dll
 0001:00036344       _lstrcpyA@8                10037344 f   kernel32:KERNEL32.dll
 0001:0003634a       _lstrlenA@4                1003734a f   kernel32:KERNEL32.dll
 0001:00036350       _WritePrivateProfileStringA@16 10037350 f   kernel32:KERNEL32.dll
 0001:00036356       _DecodePointer@4           10037356 f   kernel32:KERNEL32.dll
 0001:0003635c       _RaiseException@16         1003735c f   kernel32:KERNEL32.dll
 0001:00036362       _HeapDestroy@4             10037362 f   kernel32:KERNEL32.dll
 0001:00036368       _HeapAlloc@12              10037368 f   kernel32:KERNEL32.dll
 0001:0003636e       _HeapReAlloc@16            1003736e f   kernel32:KERNEL32.dll
 0001:00036374       _HeapFree@12               10037374 f   kernel32:KERNEL32.dll
 0001:0003637a       _HeapSize@12               1003737a f   kernel32:KERNEL32.dll
 0001:00036380       _GetProcessHeap@0          10037380 f   kernel32:KERNEL32.dll
 0001:00036386       _InitializeCriticalSectionAndSpinCount@8 10037386 f   kernel32:KERNEL32.dll
 0001:0003638c       _DeleteCriticalSection@4   1003738c f   kernel32:KERNEL32.dll
 0001:00036392       _OutputDebugStringA@4      10037392 f   kernel32:KERNEL32.dll
 0001:00036398       _GetModuleFileNameW@12     10037398 f   kernel32:KERNEL32.dll
 0001:0003639e       _GetModuleHandleW@4        1003739e f   kernel32:KERNEL32.dll
 0001:000363a4       _LoadLibraryW@4            100373a4 f   kernel32:KERNEL32.dll
 0001:000363aa       _CloseHandle@4             100373aa f   kernel32:KERNEL32.dll
 0001:000363b0       _EnterCriticalSection@4    100373b0 f   kernel32:KERNEL32.dll
 0001:000363b6       _LeaveCriticalSection@4    100373b6 f   kernel32:KERNEL32.dll
 0001:000363bc       _SetEvent@4                100373bc f   kernel32:KERNEL32.dll
 0001:000363c2       _ResetEvent@4              100373c2 f   kernel32:KERNEL32.dll
 0001:000363c8       _WaitForSingleObjectEx@12  100373c8 f   kernel32:KERNEL32.dll
 0001:000363ce       _CreateEventW@16           100373ce f   kernel32:KERNEL32.dll
 0001:000363d4       _UnhandledExceptionFilter@4 100373d4 f   kernel32:KERNEL32.dll
 0001:000363da       _SetUnhandledExceptionFilter@4 100373da f   kernel32:KERNEL32.dll
 0001:000363e0       _GetCurrentProcess@0       100373e0 f   kernel32:KERNEL32.dll
 0001:000363e6       _TerminateProcess@8        100373e6 f   kernel32:KERNEL32.dll
 0001:000363ec       _IsProcessorFeaturePresent@4 100373ec f   kernel32:KERNEL32.dll
 0001:000363f2       _IsDebuggerPresent@0       100373f2 f   kernel32:KERNEL32.dll
 0001:000363f8       _GetStartupInfoW@4         100373f8 f   kernel32:KERNEL32.dll
 0001:000363fe       _QueryPerformanceCounter@4 100373fe f   kernel32:KERNEL32.dll
 0001:00036404       _GetCurrentProcessId@0     10037404 f   kernel32:KERNEL32.dll
 0001:0003640a       _GetCurrentThreadId@0      1003740a f   kernel32:KERNEL32.dll
 0001:00036410       _GetSystemTimeAsFileTime@4 10037410 f   kernel32:KERNEL32.dll
 0001:00036416       _InitializeSListHead@4     10037416 f   kernel32:KERNEL32.dll
 0001:0003641c       _WideCharToMultiByte@32    1003741c f   kernel32:KERNEL32.dll
 0001:00036422       _VirtualQuery@12           10037422 f   kernel32:KERNEL32.dll
 0001:00036428       _PeekMessageA@20           10037428 f   user32:USER32.dll
 0001:0003642e       _PostQuitMessage@4         1003742e f   user32:USER32.dll
 0001:00036434       _wsprintfA                 10037434 f   user32:USER32.dll
 0001:0003643a       _DestroyWindow@4           1003743a f   user32:USER32.dll
 0001:00036440       _SetWindowPos@28           10037440 f   user32:USER32.dll
 0001:00036446       _SetFocus@4                10037446 f   user32:USER32.dll
 0001:0003644c       _CopyRect@8                1003744c f   user32:USER32.dll
 0001:00036452       _UnregisterClassA@8        10037452 f   user32:USER32.dll
 0001:00036458       ??$?2PAUHINSTANCE__@@@Wrapper@?$CSimpleArray@PAUHINSTANCE__@@V?$CSimpleArrayEqualHelper@PAUHINSTANCE__@@@ATL@@@ATL@@SAPAXIPAPAUHINSTANCE__@@@Z 10037458 f i atls:atlbase.obj
 0001:00036462       ??0?$CComCritSecLock@VCComCriticalSection@ATL@@@ATL@@QAE@AAVCComCriticalSection@1@_N@Z 10037462 f i atls:atlbase.obj
 0001:00036492       ??0?$CSimpleArray@PAUHINSTANCE__@@V?$CSimpleArrayEqualHelper@PAUHINSTANCE__@@@ATL@@@ATL@@QAE@XZ 10037492 f i atls:atlbase.obj
 0001:000364a2       ??0CAtlBaseModule@ATL@@QAE@XZ 100374a2 f   atls:atlbase.obj
 0001:00036509       ??0Wrapper@?$CSimpleArray@PAUHINSTANCE__@@V?$CSimpleArrayEqualHelper@PAUHINSTANCE__@@@ATL@@@ATL@@QAE@ABQAUHINSTANCE__@@@Z 10037509 f i atls:atlbase.obj
 0001:0003651d       ??0_ATL_BASE_MODULE70@ATL@@QAE@XZ 1003751d f i atls:atlbase.obj
 0001:00036548       ??1?$CComCritSecLock@VCComCriticalSection@ATL@@@ATL@@QAE@XZ 10037548 f i atls:atlbase.obj
 0001:00036564       ??1?$CSimpleArray@PAUHINSTANCE__@@V?$CSimpleArrayEqualHelper@PAUHINSTANCE__@@@ATL@@@ATL@@QAE@XZ 10037564 f i atls:atlbase.obj
 0001:00036569       ??1CAtlBaseModule@ATL@@QAE@XZ 10037569 f   atls:atlbase.obj
 0001:00036584       ??1_ATL_BASE_MODULE70@ATL@@QAE@XZ 10037584 f i atls:atlbase.obj
 0001:0003658e       ??A?$CSimpleArray@PAUHINSTANCE__@@V?$CSimpleArrayEqualHelper@PAUHINSTANCE__@@@ATL@@@ATL@@QAEAAPAUHINSTANCE__@@H@Z 1003758e f i atls:atlbase.obj
 0001:000365bc       ?Add@?$CSimpleArray@PAUHINSTANCE__@@V?$CSimpleArrayEqualHelper@PAUHINSTANCE__@@@ATL@@@ATL@@QAEHABQAUHINSTANCE__@@@Z 100375bc f i atls:atlbase.obj
 0001:0003665e       ?AddResourceInstance@CAtlBaseModule@ATL@@QAE_NPAUHINSTANCE__@@@Z 1003765e f   atls:atlbase.obj
 0001:0003669d       ?AtlCrtErrorCheck@ATL@@YAHH@Z 1003769d f i atls:atlbase.obj
 0001:000366e6       ?GetHInstanceAt@CAtlBaseModule@ATL@@QAEPAUHINSTANCE__@@H@Z 100376e6 f   atls:atlbase.obj
 0001:0003673c       ?GetSize@?$CSimpleArray@PAUHINSTANCE__@@V?$CSimpleArrayEqualHelper@PAUHINSTANCE__@@@ATL@@@ATL@@QBEHXZ 1003773c f i atls:atlbase.obj
 0001:00036740       ?InternalSetAtIndex@?$CSimpleArray@PAUHINSTANCE__@@V?$CSimpleArrayEqualHelper@PAUHINSTANCE__@@@ATL@@@ATL@@QAEXHABQAUHINSTANCE__@@@Z 10037740 f i atls:atlbase.obj
 0001:00036760       ?Lock@?$CComCritSecLock@VCComCriticalSection@ATL@@@ATL@@QAEJXZ 10037760 f i atls:atlbase.obj
 0001:00036777       ?Lock@CComCriticalSection@ATL@@QAEJXZ 10037777 f i atls:atlbase.obj
 0001:00036783       ?RemoveAll@?$CSimpleArray@PAUHINSTANCE__@@V?$CSimpleArrayEqualHelper@PAUHINSTANCE__@@@ATL@@@ATL@@QAEXXZ 10037783 f i atls:atlbase.obj
 0001:000367a7       ?RemoveAt@?$CSimpleArray@PAUHINSTANCE__@@V?$CSimpleArrayEqualHelper@PAUHINSTANCE__@@@ATL@@@ATL@@QAEHH@Z 100377a7 f i atls:atlbase.obj
 0001:00036808       ?RemoveResourceInstance@CAtlBaseModule@ATL@@QAE_NPAUHINSTANCE__@@@Z 10037808 f   atls:atlbase.obj
 0001:0003687c       ?Unlock@?$CComCritSecLock@VCComCriticalSection@ATL@@@ATL@@QAEXXZ 1003787c f i atls:atlbase.obj
 0001:00036891       ?Unlock@CComCriticalSection@ATL@@QAEJXZ 10037891 f i atls:atlbase.obj
 0001:0003689d       ?memmove_s@Checked@ATL@@YAXPAXIPBXI@Z 1003789d f i atls:atlbase.obj
 0001:00036961       ??0?$CTraceCategoryEx@$00$0A@@ATL@@QAE@PB_W@Z 10037961 f i atls:stdafx.obj
 0001:00036966       ??0?$CTraceCategoryEx@$01$0A@@ATL@@QAE@PB_W@Z 10037966 f i atls:stdafx.obj
 0001:0003696b       ??0?$CTraceCategoryEx@$03$0A@@ATL@@QAE@PB_W@Z 1003796b f i atls:stdafx.obj
 0001:00036970       ??0?$CTraceCategoryEx@$07$0A@@ATL@@QAE@PB_W@Z 10037970 f i atls:stdafx.obj
 0001:00036975       ??0?$CTraceCategoryEx@$0BA@$0A@@ATL@@QAE@PB_W@Z 10037975 f i atls:stdafx.obj
 0001:0003697a       ??0?$CTraceCategoryEx@$0BAA@$0A@@ATL@@QAE@PB_W@Z 1003797a f i atls:stdafx.obj
 0001:0003697f       ??0?$CTraceCategoryEx@$0BAAA@$0A@@ATL@@QAE@PB_W@Z 1003797f f i atls:stdafx.obj
 0001:00036984       ??0?$CTraceCategoryEx@$0BAAAA@$0A@@ATL@@QAE@PB_W@Z 10037984 f i atls:stdafx.obj
 0001:00036989       ??0?$CTraceCategoryEx@$0BAAAAA@$0A@@ATL@@QAE@PB_W@Z 10037989 f i atls:stdafx.obj
 0001:0003698e       ??0?$CTraceCategoryEx@$0CA@$0A@@ATL@@QAE@PB_W@Z 1003798e f i atls:stdafx.obj
 0001:00036993       ??0?$CTraceCategoryEx@$0CAA@$0A@@ATL@@QAE@PB_W@Z 10037993 f i atls:stdafx.obj
 0001:00036998       ??0?$CTraceCategoryEx@$0CAAA@$0A@@ATL@@QAE@PB_W@Z 10037998 f i atls:stdafx.obj
 0001:0003699d       ??0?$CTraceCategoryEx@$0CAAAA@$0A@@ATL@@QAE@PB_W@Z 1003799d f i atls:stdafx.obj
 0001:000369a2       ??0?$CTraceCategoryEx@$0CAAAAA@$0A@@ATL@@QAE@PB_W@Z 100379a2 f i atls:stdafx.obj
 0001:000369a7       ??0?$CTraceCategoryEx@$0EA@$0A@@ATL@@QAE@PB_W@Z 100379a7 f i atls:stdafx.obj
 0001:000369ac       ??0?$CTraceCategoryEx@$0EAA@$0A@@ATL@@QAE@PB_W@Z 100379ac f i atls:stdafx.obj
 0001:000369b1       ??0?$CTraceCategoryEx@$0EAAA@$0A@@ATL@@QAE@PB_W@Z 100379b1 f i atls:stdafx.obj
 0001:000369b6       ??0?$CTraceCategoryEx@$0EAAAA@$0A@@ATL@@QAE@PB_W@Z 100379b6 f i atls:stdafx.obj
 0001:000369bb       ??0?$CTraceCategoryEx@$0EAAAAA@$0A@@ATL@@QAE@PB_W@Z 100379bb f i atls:stdafx.obj
 0001:000369c0       ??0?$CTraceCategoryEx@$0IA@$0A@@ATL@@QAE@PB_W@Z 100379c0 f i atls:stdafx.obj
 0001:000369c5       ??0?$CTraceCategoryEx@$0IAA@$0A@@ATL@@QAE@PB_W@Z 100379c5 f i atls:stdafx.obj
 0001:000369ca       ??0?$CTraceCategoryEx@$0IAAA@$0A@@ATL@@QAE@PB_W@Z 100379ca f i atls:stdafx.obj
 0001:000369cf       ??0?$CTraceCategoryEx@$0IAAAA@$0A@@ATL@@QAE@PB_W@Z 100379cf f i atls:stdafx.obj
 0001:000369d4       ??_I@YGXPAXIIP6EX0@Z@Z     100379d4 f i atls:stdafx.obj
 0001:00036a13       _SysFreeString@4           10037a13 f   oleaut32:OLEAUT32.dll
 0001:00036a19       ?_Xbad_alloc@std@@YAXXZ    10037a19 f   msvcprtd:MSVCP140D.dll
 0001:00036a1f       __Mbrtowc                  10037a1f f   msvcprtd:MSVCP140D.dll
 0001:00036a25       ?_Getcvt@_Locinfo@std@@QBE?AU_Cvtvec@@XZ 10037a25 f   msvcprtd:MSVCP140D.dll
 0001:00036a2b       ?_Getdays@_Locinfo@std@@QBEPBDXZ 10037a2b f   msvcprtd:MSVCP140D.dll
 0001:00036a31       ?_Getmonths@_Locinfo@std@@QBEPBDXZ 10037a31 f   msvcprtd:MSVCP140D.dll
 0001:00036a37       ?_W_Getdays@_Locinfo@std@@QBEPBGXZ 10037a37 f   msvcprtd:MSVCP140D.dll
 0001:00036a3d       ?_W_Getmonths@_Locinfo@std@@QBEPBGXZ 10037a3d f   msvcprtd:MSVCP140D.dll
 0001:00036a43       _htonl@4                   10037a43 f   ws2_32:WS2_32.dll
 0001:00036a49       _inet_addr@4               10037a49 f   ws2_32:WS2_32.dll
 0001:00036a4f       __purecall                 10037a4f f   vcruntimed:VCRUNTIME140D.dll
 0001:00036a55       _memcpy                    10037a55 f   vcruntimed:VCRUNTIME140D.dll
 0001:00036a5b       _memset                    10037a5b f   vcruntimed:VCRUNTIME140D.dll
 0001:00036a61       ___CxxFrameHandler3        10037a61 f   vcruntimed:VCRUNTIME140D.dll
 0001:00036a67       _memmove                   10037a67 f   vcruntimed:VCRUNTIME140D.dll
 0001:00036a6d       __except_handler4_common   10037a6d f   vcruntimed:VCRUNTIME140D.dll
 0001:00036a73       ___std_type_info_destroy_list 10037a73 f   vcruntimed:VCRUNTIME140D.dll
 0001:00036a79       ___vcrt_GetModuleFileNameW 10037a79 f   vcruntimed:VCRUNTIME140D.dll
 0001:00036a7f       ___vcrt_GetModuleHandleW   10037a7f f   vcruntimed:VCRUNTIME140D.dll
 0001:00036a85       ___vcrt_LoadLibraryExW     10037a85 f   vcruntimed:VCRUNTIME140D.dll
 0001:00036a8b       _wcscpy_s                  10037a8b f   ucrtd:ucrtbased.dll
 0001:00036a91       _wcslen                    10037a91 f   ucrtd:ucrtbased.dll
 0001:00036a97       _strlen                    10037a97 f   ucrtd:ucrtbased.dll
 0001:00036a9d       ___stdio_common_vswprintf_s 10037a9d f   ucrtd:ucrtbased.dll
 0001:00036aa3       ___stdio_common_vsprintf   10037aa3 f   ucrtd:ucrtbased.dll
 0001:00036aa9       ___stdio_common_vsnprintf_s 10037aa9 f   ucrtd:ucrtbased.dll
 0001:00036aaf       _free                      10037aaf f   ucrtd:ucrtbased.dll
 0001:00036ab5       _malloc                    10037ab5 f   ucrtd:ucrtbased.dll
 0001:00036abb       __localtime64_s            10037abb f   ucrtd:ucrtbased.dll
 0001:00036ac1       __mktime64                 10037ac1 f   ucrtd:ucrtbased.dll
 0001:00036ac7       __calloc_dbg               10037ac7 f   ucrtd:ucrtbased.dll
 0001:00036acd       __CrtDbgReport             10037acd f   ucrtd:ucrtbased.dll
 0001:00036ad3       __CrtDbgReportW            10037ad3 f   ucrtd:ucrtbased.dll
 0001:00036ad9       _ldiv                      10037ad9 f   ucrtd:ucrtbased.dll
 0001:00036adf       __itoa                     10037adf f   ucrtd:ucrtbased.dll
 0001:00036ae5       _terminate                 10037ae5 f   ucrtd:ucrtbased.dll
 0001:00036aeb       __seh_filter_dll           10037aeb f   ucrtd:ucrtbased.dll
 0001:00036af1       __configure_narrow_argv    10037af1 f   ucrtd:ucrtbased.dll
 0001:00036af7       __initialize_narrow_environment 10037af7 f   ucrtd:ucrtbased.dll
 0001:00036afd       __initialize_onexit_table  10037afd f   ucrtd:ucrtbased.dll
 0001:00036b03       __register_onexit_function 10037b03 f   ucrtd:ucrtbased.dll
 0001:00036b09       __execute_onexit_table     10037b09 f   ucrtd:ucrtbased.dll
 0001:00036b0f       __crt_atexit               10037b0f f   ucrtd:ucrtbased.dll
 0001:00036b15       __crt_at_quick_exit        10037b15 f   ucrtd:ucrtbased.dll
 0001:00036b1b       __cexit                    10037b1b f   ucrtd:ucrtbased.dll
 0001:00036b21       __initterm                 10037b21 f   ucrtd:ucrtbased.dll
 0001:00036b27       __initterm_e               10037b27 f   ucrtd:ucrtbased.dll
 0001:00036b2d       _strcpy_s                  10037b2d f   ucrtd:ucrtbased.dll
 0001:00036b33       _strcat_s                  10037b33 f   ucrtd:ucrtbased.dll
 0001:00036b39       ___stdio_common_vsprintf_s 10037b39 f   ucrtd:ucrtbased.dll
 0001:00036b3f       __wmakepath_s              10037b3f f   ucrtd:ucrtbased.dll
 0001:00036b45       __wsplitpath_s             10037b45 f   ucrtd:ucrtbased.dll
 0001:00036b4b       __invalid_parameter_noinfo 10037b4b f   ucrtd:ucrtbased.dll
 0001:00036b51       __errno                    10037b51 f   ucrtd:ucrtbased.dll
 0001:00036b57       __recalloc                 10037b57 f   ucrtd:ucrtbased.dll
 0001:00036b5d       _OutputDebugStringW@4      10037b5d f   kernel32:KERNEL32.dll
 0001:00036b70       ___acrt_initialize         10037b70 f   msvcrtd:ucrt_stubs.obj
 0001:00036b70       ___scrt_stub_for_acrt_initialize 10037b70 f   msvcrtd:ucrt_stubs.obj
 0001:00036b70       ___vcrt_initialize         10037b70 f   msvcrtd:ucrt_stubs.obj
 0001:00036b80       ___scrt_stub_for_acrt_thread_attach 10037b80 f   msvcrtd:ucrt_stubs.obj
 0001:00036b80       ___vcrt_thread_attach      10037b80 f   msvcrtd:ucrt_stubs.obj
 0001:00036b80       ___acrt_thread_attach      10037b80 f   msvcrtd:ucrt_stubs.obj
 0001:00036b90       ___vcrt_thread_detach      10037b90 f   msvcrtd:ucrt_stubs.obj
 0001:00036b90       ___scrt_stub_for_acrt_thread_detach 10037b90 f   msvcrtd:ucrt_stubs.obj
 0001:00036b90       ___acrt_thread_detach      10037b90 f   msvcrtd:ucrt_stubs.obj
 0001:00036ba0       ___vcrt_uninitialize       10037ba0 f   msvcrtd:ucrt_stubs.obj
 0001:00036ba0       ___acrt_uninitialize       10037ba0 f   msvcrtd:ucrt_stubs.obj
 0001:00036ba0       ___scrt_stub_for_acrt_uninitialize 10037ba0 f   msvcrtd:ucrt_stubs.obj
 0001:00036bb0       ___scrt_stub_for_acrt_uninitialize_critical 10037bb0 f   msvcrtd:ucrt_stubs.obj
 0001:00036bb0       ___vcrt_uninitialize_critical 10037bb0 f   msvcrtd:ucrt_stubs.obj
 0001:00036bb0       ___acrt_uninitialize_critical 10037bb0 f   msvcrtd:ucrt_stubs.obj
 0001:00036bc0       ___scrt_stub_for_is_c_termination_complete 10037bc0 f   msvcrtd:ucrt_stubs.obj
 0001:00036bc0       __is_c_termination_complete 10037bc0 f   msvcrtd:ucrt_stubs.obj
 0001:0003b450       ??__FstrHeap@?1??GetInstance@CAtlStringMgr@ATL@@SAPAUIAtlStringMgr@2@XZ@YAXXZ 1003c450 f i Stdafx.obj
 0001:0003b470       ??__FstrMgr@?1??GetInstance@CAtlStringMgr@ATL@@SAPAUIAtlStringMgr@2@XZ@YAXXZ 1003c470 f i Stdafx.obj
 0002:00000000       ___xc_a                    1003e000     msvcrtd:initializers.obj
 0002:00000384       ___xc_z                    1003e384     msvcrtd:initializers.obj
 0002:00000488       ___xi_a                    1003e488     msvcrtd:initializers.obj
 0002:00000690       ___xi_z                    1003e690     msvcrtd:initializers.obj
 0002:00000794       ___xl_a                    1003e794     msvcrtd:tlssup.obj
 0002:00000798       ___xl_z                    1003e798     msvcrtd:tlssup.obj
 0002:0000079c       ___xp_a                    1003e79c     msvcrtd:initializers.obj
 0002:000008a0       ___xp_z                    1003e8a0     msvcrtd:initializers.obj
 0002:000009a4       ___xt_a                    1003e9a4     msvcrtd:initializers.obj
 0002:00000aa8       ___xt_z                    1003eaa8     msvcrtd:initializers.obj
 0002:00000ed8       ??_C@_17CNPHIMPH@?$AA?$CF?$AAl?$AAs@ 1003eed8     DlgMatchWizard.obj
 0002:00000ee8       ??_C@_1OE@IAPLKPHI@?$AAc?$AA?3?$AA?2?$AAp?$AAr?$AAo?$AAg?$AAr?$AAa?$AAm?$AA?5?$AAf?$AAi?$AAl?$AAe@ 1003eee8     DlgMatchWizard.obj
 0002:00000ffc       ??_C@_0BC@PGMFNIFA@atlTraceException@ 1003effc     DlgMatchWizard.obj
 0002:00001014       ??_C@_1O@LFNDFEBP@?$AA?$CF?$AAl?$AAs?$AA?5?$AA?9?$AA?5@ 1003f014     DlgMatchWizard.obj
 0002:00001024       ??_C@_1M@PGKOAACE@?$AA?$CF?$AAu?$AA?5?$AA?9?$AA?5@ 1003f024     DlgMatchWizard.obj
 0002:00001034       ??_C@_1O@OAIPCDPO@?$AA?$CF?$AAl?$AAs?$AA?$CF?$AAl?$AAs@ 1003f034     DlgMatchWizard.obj
 0002:00001044       ??_C@_17LGGGMOOB@?$AA?$CF?$AAh?$AAs@ 1003f044     DlgMatchWizard.obj
 0002:00001050       ??_C@_1EO@EBPPKGOM@?$AAf?$AAa?$AAl?$AAs?$AAe?$AA?5?$AA?$CG?$AA?$CG?$AA?5?$AA?$CC?$AAT?$AAo?$AAo?$AA?5?$AAm@ 1003f050     DlgMatchWizard.obj
 0002:000010b0       ??_C@_1OE@PDFAMNPL@?$AAc?$AA?3?$AA?2?$AAp?$AAr?$AAo?$AAg?$AAr?$AAa?$AAm?$AA?5?$AAf?$AAi?$AAl?$AAe@ 1003f0b0     DlgMatchWizard.obj
 0002:000011c8       ??_C@_0HD@OEBHCJKM@c?3?2program?5files?5?$CIx86?$CJ?2microsof@ 1003f1c8     DlgMatchWizard.obj
 0002:00001254       ??_C@_0BF@IAAKIJDJ@AtlThrow?3?5hr?5?$DN?50x?$CFx?6@ 1003f254     DlgMatchWizard.obj
 0002:00001270       ??_C@_1BM@GBBOFEAE@?$AA_?$AA_?$AAa?$AAt?$AAl?$AA_?$AAc?$AAo?$AAn?$AAd?$AAV?$AAa?$AAl@ 1003f270     DlgMatchWizard.obj
 0002:00001298       ??_C@_1OC@IALJLBM@?$AAc?$AA?3?$AA?2?$AAp?$AAr?$AAo?$AAg?$AAr?$AAa?$AAm?$AA?5?$AAf?$AAi?$AAl?$AAe@ 1003f298     DlgMatchWizard.obj
 0002:000013a8       ??_C@_1BK@NHHHCKNA@?$AAm?$AA_?$AAt?$AAi?$AAm?$AAe?$AA?5?$AA?$CB?$AA?$DN?$AA?5?$AA?9?$AA1@ 1003f3a8     DlgMatchWizard.obj
 0002:000013c7       ??_C@_00CNPNBAHC@@         1003f3c7     DlgMatchWizard.obj
 0002:000013c8       ??_C@_1BK@NHECDDNK@?$AAm?$AA_?$AAp?$AAD?$AAa?$AAt?$AAa?$AA?5?$AA?$DN?$AA?$DN?$AA?5?$AA0@ 1003f3c8     DlgMatchWizard.obj
 0002:000013e8       ??_C@_0GI@LKBGDILM@c?3?2program?5files?5?$CIx86?$CJ?2microsof@ 1003f3e8     DlgMatchWizard.obj
 0002:00001468       ??_C@_0GI@DJFLDKBN@c?3?2program?5files?5?$CIx86?$CJ?2microsof@ 1003f468     DlgMatchWizard.obj
 0002:000014e8       ??_7?$CWHArray@PAUtagGameMatchOption@@ABQAU1@@@6B@ 1003f4e8     DlgMatchWizard.obj
 0002:000014f4       ??_7CMatchInfoBuffer@@6B@  1003f4f4     DlgMatchWizard.obj
 0002:00001500       ??_7?$CWHArray@PAUtagMatchRewardInfo@@ABQAU1@@@6B@ 1003f500     DlgMatchWizard.obj
 0002:0000150c       ??_7CRewardInfoBuffer@@6B@ 1003f50c     DlgMatchWizard.obj
 0002:00001518       ??_7CMatchInfoManager@@6B@ 1003f518     DlgMatchWizard.obj
 0002:00001524       ??_7CDlgMatchItem@@6B@     1003f524     DlgMatchWizard.obj
 0002:0000171c       ??_7CDlgMatchSignup1@@6B@  1003f71c     DlgMatchWizard.obj
 0002:00001914       ??_7CDlgMatchSignup2@@6B@  1003f914     DlgMatchWizard.obj
 0002:00001b0c       ??_7CDlgMatchDistribute@@6B@ 1003fb0c     DlgMatchWizard.obj
 0002:00001d04       ??_7CDlgMatchRankingMode@@6B@ 1003fd04     DlgMatchWizard.obj
 0002:00001efc       ??_7CDlgMatchReward@@6B@   1003fefc     DlgMatchWizard.obj
 0002:000020f4       ??_7CDlgMatchLockTime@@6B@ 100400f4     DlgMatchWizard.obj
 0002:000022ec       ??_7CDlgMatchImmediate@@6B@ 100402ec     DlgMatchWizard.obj
 0002:000024e4       ??_7CDlgMatchWizardItem@@6B@ 100404e4     DlgMatchWizard.obj
 0002:000026dc       ??_7CDlgMatchWizardStep1@@6B@ 100406dc     DlgMatchWizard.obj
 0002:000028d4       ??_7CDlgMatchWizardStep2@@6B@ 100408d4     DlgMatchWizard.obj
 0002:00002acc       ??_7CDlgMatchWizard@@6B@   10040acc     DlgMatchWizard.obj
 0002:00002cb4       ??_C@_0BC@LFCAOGLK@ModuleManager?4dll@ 10040cb4     DlgMatchWizard.obj
 0002:00002ccc       ??_C@_0BP@BGMCEKFK@?$LB?$KI?C?$PL?$LH?$LN?J?$LN?$LC?$LL?D?$NM?N?$KK?$LP?U?$KD?$KM?G?k?V?X?P?B?Q?$KB?T?q?$KD?$KB@ 10040ccc     DlgMatchWizard.obj
 0002:00002cf8       ??_C@_0EJ@IJMPOAAP@?D?z?$LJ?$LE?Q?$KB?A?K?$LC?N?$LM?S?L?X?$LG?$KI?$LB?H?H?$PM?W?w?N?$KK?$LB?$KI?C?$PL?$LH?$LN?J@ 10040cf8     DlgMatchWizard.obj
 0002:00002d50       ??_C@_0DP@FFLEHDAN@?D?z?Q?$KB?T?q?A?K?$LM?$LE?J?$LB?H?$PM?W?w?N?$KK?$LB?H?H?$PM?S?C?$LL?$KH?$LF?D?$MA?$LE?T@ 10040d50     DlgMatchWizard.obj
 0002:00002d9c       ??_C@_0DN@MMLGHCLB@?D?z?Q?$KB?T?q?A?K?$LG?$KI?J?$LB?H?$PM?W?w?N?$KK?$LB?H?H?$PM?S?C?$LL?$KH?$LF?D?$MA?$LE?T@ 10040d9c     DlgMatchWizard.obj
 0002:00002de8       ??_C@_0DB@GIIJOMAB@?$LM?$LE?J?$LB?H?$PM?$LC?$LL?D?$NM?Q?$KB?T?q?$LB?H?H?$PM?$LN?p?$LB?R?W?w?N?$KK?$LB?$KI?C?$PL?$LH@ 10040de8     DlgMatchWizard.obj
 0002:00002e24       ??_C@_0CB@NFBJEILB@?M?$LD?$LM?F?$LO?V?J?$PN?I?h?V?C?$LC?$LL?$LK?O?$LH?$KI?$KD?$KM?G?k?V?X?P?B?I?h?V?C?$KD@ 10040e24     DlgMatchWizard.obj
 0002:00002e4c       ??_C@_0CF@JAINKKBO@?D?z?J?d?H?k?$LF?D?$LB?H?H?$PM?C?$PL?$LE?N?$LC?$LL?$LK?O?$LH?$KI?$KD?$KM?G?k?V?X?P?B?J@ 10040e4c     DlgMatchWizard.obj
 0002:00002e78       ??_C@_0EL@MJOKLGEN@g?3?2?M?x?$LK?$PM?2happygamewh?2?$LH?$PO?N?q?$LG?K?2?O?$LF?M?$LD@ 10040e78     DlgMatchWizard.obj
 0002:00002ed4       ??_C@_0DG@KCCJLHM@?$LB?$KH?G?$LI?$KD?$KM?$LI?C?C?$PL?$LE?N?$LF?D?$LN?$LB?$MA?x?R?Q?$LE?f?T?Z?0?H?g?R?$KK?P?$NO@ 10040ed4     DlgMatchWizard.obj
 0002:00002f14       ??_C@_0DG@CBDLPBKG@?$LB?$KH?G?$LI?$KD?$KM?$LI?C?C?$PL?$LE?N?$LF?D?$LN?$LB?$MA?x?$LC?$LL?$LE?f?T?Z?0?H?g?R?$KK?L?m@ 10040f14     DlgMatchWizard.obj
 0002:00002f54       ??_C@_08KONJAKGH@?$LD?$KD?$LJ?f?$LP?$KK?H?$PM@ 10040f54     DlgMatchWizard.obj
 0002:00002f60       ??_C@_08JJILHLAM@?Q?$KN?$LL?$LH?$LP?$KK?H?$PM@ 10040f60     DlgMatchWizard.obj
 0002:00002f6c       ??_C@_0CB@IBGJJLPI@?$LP?$KK?H?$PM?H?K?J?$PN?I?h?V?C?$LC?$LL?$LK?O?$LH?$KI?$KD?$KM?G?k?V?X?P?B?J?d?H?k?$KD@ 10040f6c     DlgMatchWizard.obj
 0002:00002f94       ??_C@_0CH@OLBIFNIB@?$LB?$KI?C?$PL?H?K?J?$PN?$LC?$LL?D?$NM?I?Y?S?Z?$LP?$KK?H?$PM?H?K?J?$PN?$KD?$KM?G?k?V?X?P@ 10040f94     DlgMatchWizard.obj
 0002:00002fc4       ??_C@_0CB@GLEENOFN@?$LD?u?J?$LM?$LH?V?J?$PN?I?h?V?C?$LC?$LL?$LK?O?$LH?$KI?$KD?$KM?G?k?V?X?P?B?J?d?H?k?$KD@ 10040fc4     DlgMatchWizard.obj
 0002:00002fec       ??_C@_0CB@CNOBBOMH@?S?P?P?$KH?$LO?V?J?$PN?I?h?V?C?$LC?$LL?$LK?O?$LH?$KI?$KD?$KM?G?k?V?X?P?B?J?d?H?k?$KD@ 10040fec     DlgMatchWizard.obj
 0002:00003014       ??_C@_0CB@NBDOAMNH@?W?n?$LE?s?$LO?V?J?$PN?I?h?V?C?$LC?$LL?$LK?O?$LH?$KI?$KD?$KM?G?k?V?X?P?B?J?d?H?k?$KD@ 10041014     DlgMatchWizard.obj
 0002:0000303c       ??_C@_0CF@BMJDJCHE@?$LB?H?H?$PM?$LN?a?J?x?H?U?F?Z?I?h?V?C?$LC?$LL?$LK?O?$LH?$KI?$KD?$KM?G?k?V?X?P?B?J@ 1004103c     DlgMatchWizard.obj
 0002:00003068       ??_C@_0CF@JHFPJNIO@?$LB?H?H?$PM?$LN?a?J?x?J?$LB?$LM?d?I?h?V?C?$LC?$LL?$LK?O?$LH?$KI?$KD?$KM?G?k?V?X?P?B?J@ 10041068     DlgMatchWizard.obj
 0002:00003094       ??_C@_0CF@DLMEACLJ@?$LB?$KI?C?$PL?$LN?X?V?$LJ?H?U?F?Z?I?h?V?C?$LC?$LL?$LK?O?$LH?$KI?$KD?$KM?G?k?V?X?P?B?J@ 10041094     DlgMatchWizard.obj
 0002:000030c0       ??_C@_0CF@LAAIANED@?$LB?$KI?C?$PL?$LN?X?V?$LJ?J?$LB?$LM?d?I?h?V?C?$LC?$LL?$LK?O?$LH?$KI?$KD?$KM?G?k?V?X?P?B?J@ 100410c0     DlgMatchWizard.obj
 0002:000030ec       ??_C@_0CB@PEECONKK@?S?N?O?$LH?$LF?W?$LH?V?I?h?V?C?$LC?$LL?$LK?O?$LH?$KI?$KD?$KM?G?k?V?X?P?B?J?d?H?k?$KD@ 100410ec     DlgMatchWizard.obj
 0002:00003114       ??_C@_0CB@JCEBBJJ@?$LD?u?J?$LM?$LF?W?$LH?V?I?h?V?C?$LC?$LL?$LK?O?$LH?$KI?$KD?$KM?G?k?V?X?P?B?J?d?H?k?$KD@ 10041114     DlgMatchWizard.obj
 0002:0000313c       ??_C@_0CB@FLPJDOOI@?S?N?O?$LH?$LO?V?J?$PN?I?h?V?C?$LC?$LL?$LK?O?$LH?$KI?$KD?$KM?G?k?V?X?P?B?J?d?H?k?$KD@ 1004113c     DlgMatchWizard.obj
 0002:00003164       ??_C@_08DNENCOFK@?$LB?$KI?C?$PL?$LH?$LN?J?$LN@ 10041164     DlgMatchWizard.obj
 0002:00003170       ??_C@_08GGMHIHHC@?$LB?$KI?C?$PL?L?u?$LM?$PO@ 10041170     DlgMatchWizard.obj
 0002:0000317c       ??_C@_08NLOMAJOJ@?E?E?C?$PL?$LH?$LN?J?$LN@ 1004117c     DlgMatchWizard.obj
 0002:00003188       ??_C@_08POFGBLDO@?$LE?i?W?$MA?E?d?V?C@ 10041188     DlgMatchWizard.obj
 0002:00003194       ??_C@_08JOGGGCJG@?$LN?$LB?$MA?x?E?d?V?C@ 10041194     DlgMatchWizard.obj
 0002:000031a0       ??_C@_0L@PPGJNCEH@?$LG?$KI?J?$LB?H?$PM?$MA?$OA?P?M@ 100411a0     DlgMatchWizard.obj
 0002:000031b0       ??_C@_0L@CAFEOLKF@?$LM?$LE?J?$LB?H?$PM?$MA?$OA?P?M@ 100411b0     DlgMatchWizard.obj
 0002:000031c0       ??_C@_0BP@GNGDJPLC@?$LB?H?H?$PM?C?$PL?$LD?F?$LC?$LL?D?$NM?N?$KK?$LP?U?$KD?$KM?G?k?V?X?P?B?J?d?H?k?$KD?$KB@ 100411c0     DlgMatchWizard.obj
 0002:000031e8       ??_C@_0BN@PENPJMLD@?$LB?H?H?$PM?E?d?V?C?O?r?$LF?$LM?5?9?9?9?5?$FL?5?$LC?$LN?V?h?5?$CFd?5?$FN@ 100411e8     DlgMatchWizard.obj
 0002:0000320c       ??_C@_06EKDNBKMI@?$CFI64d?$HM@ 1004120c     DlgMatchWizard.obj
 0002:00003214       ??_C@_03IFADCKOJ@?$CFd?$HM@ 10041214     DlgMatchWizard.obj
 0002:00003218       ??_C@_0BD@HLFOHCBE@?H?$KL?L?l24?P?$KB?J?$LB?Q?$KN?$LL?$LH?$LP?$KK?H?$PM@ 10041218     DlgMatchWizard.obj
 0002:00003230       ??_C@_0CA@LFIMABND@?$CF4d?9?$CF02d?9?$CF02d?5?9?9?5?$CF04d?9?$CF02d?9?$CF02d@ 10041230     DlgMatchWizard.obj
 0002:00003258       ??_C@_0BB@PKJCCBCJ@?S?N?O?$LH?$LB?H?H?$PM?$LE?$LE?$LN?$KI?$LD?I?$LJ?$KG@ 10041258     DlgMatchWizard.obj
 0002:0000326c       ??_C@_0BB@KDOOOCPP@?S?N?O?$LH?$LB?H?H?$PM?E?d?V?C?$LD?I?$LJ?$KG@ 1004126c     DlgMatchWizard.obj
 0002:00003280       ??_C@_0N@LPFKKEBD@?3AM?3am?3PM?3pm@ 10041280     DlgMatchWizard.obj
 0002:00003290       ??_C@_1BK@MHIKGOKE@?$AA?3?$AAA?$AAM?$AA?3?$AAa?$AAm?$AA?3?$AAP?$AAM?$AA?3?$AAp?$AAm@ 10041290     DlgMatchWizard.obj
 0002:000032b0       ??_C@_0DF@LDFGAABH@g?3?2?M?x?$LK?$PM?2happygamewh?2?$LH?$PO?N?q?$LG?K?2?O?$LF?M?$LD@ 100412b0     DlgMatchWizard.obj
 0002:000034b0       ??_C@_0HC@HBCNBCLF@c?3?2program?5files?5?$CIx86?$CJ?2microsof@ 100414b0     DlgServerItem.obj
 0002:0000353c       ??_7?$CTempldateHelper@UIGameServiceManager@@@@6B@ 1004153c     DlgServerItem.obj
 0002:00003548       ??_7CGameServiceManagerHelper@@6B@ 10041548     DlgServerItem.obj
 0002:00003554       ??_7CMatchOptionBuffer@@6B@ 10041554     DlgServerItem.obj
 0002:00003560       ??_7CServerInfoManager@@6B@ 10041560     DlgServerItem.obj
 0002:0000356c       ??_7CDlgServerItem@@6B@    1004156c     DlgServerItem.obj
 0002:00003758       ??_C@_0EK@GJNFCKFC@g?3?2?M?x?$LK?$PM?2happygamewh?2?$LH?$PO?N?q?$LG?K?2?O?$LF?M?$LD@ 10041758     DlgServerItem.obj
 0002:000037b0       ??_C@_0BJ@EBOMCPGB@CreateGameServiceManager@ 100417b0     DlgServerItem.obj
 0002:000037d0       ??_C@_0DK@CNBCCAKH@?$FL?5?$CFs?5?$FN?5?S?N?O?$LH?$LH?$PO?N?q?F?w?W?i?$LM?$PO?$LL?$LJ?C?$LL?S?P?$LA?$LC?W?$LA@ 100417d0     DlgServerItem.obj
 0002:00003818       ??_C@_0DG@OJJHENMN@?$FL?5?$CFs?5?$FN?5?S?N?O?$LH?$LH?$PO?N?q?F?w?W?i?$LM?$PO?R?Q?$LO?$KN?$LI?$PM?P?B?A?K@ 10041818     DlgServerItem.obj
 0002:00003858       ??_C@_0DG@FBCPCCNK@?$FL?5?$CFs?5?$FN?5?$LH?$PO?N?q?W?i?$LM?$PO?$LC?$LL?$LE?f?T?Z?$LL?r?U?$NP?$LM?S?T?X?J?$KH@ 10041858     DlgServerItem.obj
 0002:00003898       ??_C@_0BP@LKEPHDDJ@?H?$LH?J?$LF?R?$KK?I?$LO?$LD?$PN?5?$FL?5?$CFs?5?$FN?5?S?N?O?$LH?$LH?$LP?$LM?d?B?p?$KD?$LP@ 10041898     DlgServerItem.obj
 0002:000038c0       ??_C@_0DG@CDIFDKED@g?3?2?M?x?$LK?$PM?2happygamewh?2?$LH?$PO?N?q?$LG?K?2?O?$LF?M?$LD@ 100418c0     DlgServerItem.obj
 0002:00003900       ??_C@_0BD@LMOFNGMO@?$KB?$LA?$CFs?$KB?$LB?D?$KD?$LP?i?$LM?S?T?X?J?$KH?$LA?$NM@ 10041900     DlgServerItem.obj
 0002:00003918       ??_C@_0BM@PEGNCJOH@?U?R?$LC?$LL?$LF?$LN?W?i?$LM?$PO?$LE?$LE?$LN?$KI?$LK?$KP?J?$PN?$KB?$LA?$CFs?$KB?$LB?3?$CFd@ 10041918     DlgServerItem.obj
 0002:0000393c       ??_C@_0BL@PDAODLKM@?$LF?w?S?C?$LK?$KP?J?$PN?$KB?$LA?$CFs?$KB?$LB?I?z?$LD?I?$LG?T?O?s?J?$KH?$LA?$NM@ 1004193c     DlgServerItem.obj
 0002:0000395c       ??_C@_0BJ@JGPFHIJF@?S?I?S?Z?$KB?$LA?$CFs?$KB?$LB?$KD?$KM?W?i?$LM?$PO?$LE?$LE?$LN?$KI?J?$KH?$LA?$NM@ 1004195c     DlgServerItem.obj
 0002:0000397c       ??_C@_0DB@JBNKENAJ@?W?i?$LM?$PO?$LE?$LE?$LN?$KI?$LK?$KP?J?$PN?$KB?$LA?$CFs?$KB?$LB?$LC?z?I?z?N?$LE?V?$KK?R?l?$LD?$KD?$LE@ 1004197c     DlgServerItem.obj
 0002:00003b78       ??_7?$CTempldateHelper@UIDataBase@@@@6B@ 10041b78     DlgServerMatch.obj
 0002:00003b84       ??_7CDataBaseHelper@@6B@   10041b84     DlgServerMatch.obj
 0002:00003b8c       ??_C@_0P@IKJBDFNG@CreateDataBase@ 10041b8c     DlgServerMatch.obj
 0002:00003ba0       ??_C@_0BB@BEMLEOHB@KernelEngine?4dll@ 10041ba0     DlgServerMatch.obj
 0002:00003bb8       ??_7CDlgServerMatch@@6B@   10041bb8     DlgServerMatch.obj
 0002:00003da4       ??_7CModuleDBParameter@@6B@ 10041da4     DlgServerMatch.obj
 0002:00003db0       ??_C@_0EL@JOGPPMFA@g?3?2?M?x?$LK?$PM?2happygamewh?2?$LH?$PO?N?q?$LG?K?2?O?$LF?M?$LD@ 10041db0     DlgServerMatch.obj
 0002:00003e0c       ??_C@_0BB@EOFIIHMB@?$EAstrDataBaseAddr@ 10041e0c     DlgServerMatch.obj
 0002:00003e20       ??_C@_0BI@EBKHBLK@GSP_GS_LoadDataBaseInfo@ 10041e20     DlgServerMatch.obj
 0002:00003e3c       ??_C@_0O@BGGHDOEH@ErrorDescribe@ 10041e3c     DlgServerMatch.obj
 0002:00003e4c       ??_C@_06EKCLIHPK@DBUser@   10041e4c     DlgServerMatch.obj
 0002:00003e54       ??_C@_0L@CINAGOHO@DBPassword@ 10041e54     DlgServerMatch.obj
 0002:00003e64       ??_C@_06NHDHPCNO@DBPort@   10041e64     DlgServerMatch.obj
 0002:00004410       ??_C@_0P@MBNHGHMI@atlTraceString@ 10042410     DlgServerWizard.obj
 0002:00004428       ??_7CModuleInfoManager@@6B@ 10042428     DlgServerWizard.obj
 0002:00004434       ??_7CDlgServerOptionItem@@6B@ 10042434     DlgServerWizard.obj
 0002:00004628       ??_7CDlgServerOptionItem1@@6B@ 10042628     DlgServerWizard.obj
 0002:0000481c       ??_7CDlgServerOptionItem2@@6B@ 1004281c     DlgServerWizard.obj
 0002:00004a10       ??_7CDlgServerOptionItem3@@6B@ 10042a10     DlgServerWizard.obj
 0002:00004c04       ??_7CDlgServerOptionItem5@@6B@ 10042c04     DlgServerWizard.obj
 0002:00004df8       ??_7CDlgServerOptionItemCustom@@6B@ 10042df8     DlgServerWizard.obj
 0002:00004fec       ??_7CDlgServerOptionItemPersonal@@6B@ 10042fec     DlgServerWizard.obj
 0002:000051e0       ??_7CDlgServerWizardItem@@6B@ 100431e0     DlgServerWizard.obj
 0002:000053d4       ??_7CDlgServerWizardItem1@@6B@ 100433d4     DlgServerWizard.obj
 0002:000055c8       ??_7CDlgServerWizardItem2@@6B@ 100435c8     DlgServerWizard.obj
 0002:000057bc       ??_7CDlgServerWizard@@6B@  100437bc     DlgServerWizard.obj
 0002:000059a4       ??_C@_0BI@PDGLEKAG@PersonalRoomService?4dll@ 100439a4     DlgServerWizard.obj
 0002:000059c0       ??_C@_0BH@HNIGNBJA@?S?N?O?$LH?$LH?$LP?$LM?d?C?$PL?$KD?$KM?W?n?$LE?s?$LD?$KE?$LG?H31@ 100439c0     DlgServerWizard.obj
 0002:000059dc       ??_C@_0BE@BMFELJAK@?S?N?O?$LH?$LF?H?$LM?$LG?5?$KD?$KM?W?n?$LE?s9999@ 100439dc     DlgServerWizard.obj
 0002:000059f4       ??_C@_0BH@PNJOEPMK@?$LP?I?I?h?V?C?N?$KK?F?U?M?$KI?$LH?$LP?$LK?M?C?$NM?B?k?$LH?$LP@ 100439f4     DlgServerWizard.obj
 0002:00005a10       ??_C@_0CF@GFGAHLND@?$LH?$LP?$LM?d?$MA?$OA?P?M?I?h?V?C?N?$KK?C?$NM?B?k?$LH?$LP?$LC?E?$LP?I?S?C?$KD?$KM?W?n?$LE@ 10043a10     DlgServerWizard.obj
 0002:00005a3c       ??_C@_08KKHNDKNH@?S?N?O?$LH?$MA?$OA?P?M@ 10043a3c     DlgServerWizard.obj
 0002:00005a48       ??_C@_0CL@COOGMDKL@?S?N?O?$LH?$LH?$PO?N?q?$LG?K?$LP?Z?$KD?$KM?$LP?I?R?T?N?$KK?$LP?U?$KD?$KM?$LC?$LL?D?$NM?$LK?M?F@ 10043a48     DlgServerWizard.obj
 0002:00005a7c       ??_C@_0DF@HHOOMJCF@?T?$LM?U?$LN?J?$PN?$LO?$NN?$LP?b?E?d?V?C?$KD?$KM?V?$LL?S?P?S?N?O?$LH?$MA?$OA?P?M?Q?$KB?T@ 10043a7c     DlgServerWizard.obj
 0002:00005abc       ??_C@_0CF@JMFBPOKD@?Q?$KB?T?q?S?N?O?$LH?$MA?$OA?P?M?$LK?s?$LL?a?W?T?$LG?$KP?L?n?P?$LE?$KD?$KM?$LC?$LL?M?F?$LM@ 10043abc     DlgServerWizard.obj
 0002:00005ae8       ??_C@_0CE@IJDFCHCA@?I?h?V?C?$LH?$LP?$LM?d?W?$MA?W?S?J?$PN?$KD?$KM?$LA?Y?H?K?S?N?O?$LH?G?$LP?V?F?D?$KM?H@ 10043ae8     DlgServerWizard.obj
 0002:00005b14       ??_C@_0DK@CDOLDLNP@?I?h?V?C?$LH?$LP?$LM?d?$LP?I?R?T?H?$NN?D?I?$LG?$OA?I?Y?H?K?5?$KD?$KM?$LC?$LL?L?n?D?$KM@ 10043b14     DlgServerWizard.obj
 0002:00005b5c       ??_C@_0DH@FEFBIDED@?I?h?V?C?$LH?$LP?$LM?d?P?i?D?b?H?K?J?$PN?$KD?$KM?$LP?M?$LL?$KH?$LG?K?O?T?J?$LO?H?K?J@ 10043b5c     DlgServerWizard.obj
 0002:00005ba0       ??_C@_0BD@JFMMMIGM@?S?N?O?$LH?$LH?$LP?$LM?d?$LF?D?L?X?I?$KL?M?f?$LH?$KI@ 10043ba0     DlgServerWizard.obj
 0002:00005bb8       ??_C@_0DJ@JONKEAKJ@?I?h?V?C?S?N?O?$LH?$LF?W?$LH?V?$KD?$KM?H?g?$LJ?$PL?N?$KK?$LH?$LP?$LP?$KI?D?$KD?J?$LN?$LC?$KC?E@ 10043bb8     DlgServerWizard.obj
 0002:00005bfc       ??_C@_0CD@CMIHPLLM@?I?h?V?C?$LF?$KF?$LO?V?S?N?O?$LH?W?n?$LE?s?J?d?S?$KO?$KD?$KM?$LC?$LP?$LH?V?S?N?O?$LH?N@ 10043bfc     DlgServerWizard.obj
 0002:00005c28       ??_C@_0FH@NDFAJCCE@?I?h?V?C?S?N?O?$LH?K?$LA?J?U?$LL?r?U?$NP?$LH?$PO?N?q?$LH?Q?$KD?$KM?$LH?$PO?N?q?F?w?$LC@ 10043c28     DlgServerWizard.obj
 0002:00005c90       ??_C@_0M@PCENNPGA@?$CFd?4?$CFd?4?$CFd?4?$CFd@ 10043c90     DlgServerWizard.obj
 0002:00005ca0       ??_C@_0CJ@CKGBPABI@?S?N?O?$LH?$LH?$LP?$LM?d?C?$PL?W?V?$LC?$LL?D?$NM?N?$KK?$LP?U?$KD?$KM?G?k?J?d?H?k?S?N?O@ 10043ca0     DlgServerWizard.obj
 0002:00005cd4       ??_C@_0CJ@FKABHCFH@?S?N?O?$LH?$LH?$LP?$LM?d?C?$NM?B?k?$LC?$LL?D?$NM?N?$KK?$LP?U?$KD?$KM?G?k?J?d?H?k?S?N?O@ 10043cd4     DlgServerWizard.obj
 0002:00005d08       ??_C@_0CN@HOBLABLI@?S?N?O?$LH?$LH?$LP?$LM?d?$MA?$OA?P?M?$LC?$LL?D?$NM?N?$KK?$LP?U?$KD?$KM?G?k?V?X?P?B?Q?$KB?T@ 10043d08     DlgServerWizard.obj
 0002:00005d40       ??_C@_0CJ@DDNPCCLO@?S?N?O?$LH?J?$PN?$LO?$NN?$LP?b?C?$PL?$LC?$LL?D?$NM?N?$KK?$LP?U?$KD?$KM?G?k?J?d?H?k?S?N?O@ 10043d40     DlgServerWizard.obj
 0002:00005d74       ??_C@_0DD@DBPPFMOI@?S?N?O?$LH?J?$PN?$LO?$NN?$LP?b?$LF?X?V?$LH?$LI?q?J?$LN?$LC?$LL?U?$PN?H?$LH?$KD?$KM?G?k?V?X?P@ 10043d74     DlgServerWizard.obj
 0002:00005db8       ??_C@_0EB@PKKMHEMF@?S?N?O?$LH?W?$MA?W?S?J?$PN?D?$LP?N?$NO?P?$KH?$KD?$KM?G?k?V?X?P?B?J?d?H?k?S?N?O@ 10043db8     DlgServerWizard.obj
 0002:00005e08       ??_C@_08GMINJKFL@?$LC?F?$LI?$LL?$MA?$OA?P?M@ 10043e08     DlgServerWizard.obj
 0002:00005e14       ??_C@_08ECFMCBBF@?T?$LM?U?$LN?$MA?$OA?P?M@ 10043e14     DlgServerWizard.obj
 0002:00005e20       ??_C@_08NFPDDPHH@?F?U?M?$KI?$LH?$LP?$LM?d@ 10043e20     DlgServerWizard.obj
 0002:00005e2c       ??_C@_08PPKPGJDI@?C?$NM?B?k?$LH?$LP?$LM?d@ 10043e2c     DlgServerWizard.obj
 0002:00005e38       ??_C@_06DFBDGPAN@?$LN?p?$LB?R?$LP?b@ 10043e38     DlgServerWizard.obj
 0002:00005e40       ??_C@_06OKHPCLBO@?$LL?$PN?$LH?V?$LP?b@ 10043e40     DlgServerWizard.obj
 0002:00005e48       ??_C@_0N@LLCONOIB@?J?$PN?$LO?$NN?$LP?b?Q?$KB?O?n?$KD?$LK@ 10043e48     DlgServerWizard.obj
 0002:00005e58       ??_C@_0BF@MLEAOAEA@?T?$LM?U?$LN?$MA?$OA?P?M?J?$PN?$LO?$NN?$LP?b?Q?$KB?O?n?$KD?$LK@ 10043e58     DlgServerWizard.obj
 0002:00005e74       ??_C@_0BH@LELEGCLA@?S?C?$LL?$KH?I?h?V?C?$LF?D?$LH?$LP?$LM?d?$LJ?f?T?r?N?$NO?P?$KH@ 10043e74     DlgServerWizard.obj
 0002:00005e90       ??_C@_0BF@GFGGEHBF@?S?C?$LL?$KH?N?$NO?$LH?$KI?I?h?V?C?W?$MA?W?S?C?$NM?B?k@ 10043e90     DlgServerWizard.obj
 0002:00005eac       ??_C@_0DG@KOBIODKO@?C?$LL?$LJ?$LE?Q?$KB?$LF?D?$LL?$LA?5?W?x?O?B?V?$LL?D?$NM?T?Z?$LP?U?O?P?W?$LE?L?$KM?$KD?$KM@ 10043eac     DlgServerWizard.obj
 0002:00005eec       ??_C@_0DM@NKGOLKOC@?$LH?$MA?W?w?$LB?W?D?$KD?J?$LN?$LP?$KK?$LJ?X?0?$LH?$MA?W?w?$LB?W?D?$KD?J?$LN?O?B?$KD?$KM?S?C@ 10043eec     DlgServerWizard.obj
 0002:00005f34       ??_C@_0BP@DCCNMAEM@?$LC?$LL?$LJ?$LE?Q?$KB?$LF?D?$LL?$LA?$KD?$KM?J?V?$LL?z?$LG?K?$LC?$LL?$LL?a?O?T?J?$LO?S?N?O?$LH@ 10043f34     DlgServerWizard.obj
 0002:00005f5c       ??_C@_0BN@HKKGDCEG@?$LC?$LL?$LJ?$LE?Q?$KB?$LF?D?$LL?$LA?$KD?$KMPC?$LG?K?$LC?$LL?$LL?a?O?T?J?$LO?S?N?O?$LH@ 10043f5c     DlgServerWizard.obj
 0002:00005f80       ??_C@_0DL@MGOIAGMH@?$LN?x?H?k?$LH?$LP?$LM?d?W?n?$LF?M?$LD?I?$LM?$KI?$LB?H?W?n?$LI?$NP?$LD?I?$LM?$KI?$LL?$LJ?$LI?$NP?$KD@ 10043f80     DlgServerWizard.obj
 0002:00005fc8       ??_C@_0ED@CLCMPDHD@?$LN?x?H?k?$LH?$LP?$LM?d?W?n?$LF?M?$LL?a?T?$LB?$LM?$LG?$LB?p?$LB?H?W?n?$LI?$NP?$LL?a?T?$LB?$LM@ 10043fc8     DlgServerWizard.obj
 0002:00006018       ??_C@_08MJLFADOM@?K?y?S?P?S?C?$LL?$KH@ 10044018     DlgServerWizard.obj
 0002:00006024       ??_C@_04MCHDAMDM@VIP1@     10044024     DlgServerWizard.obj
 0002:0000602c       ??_C@_04OJFOFPPP@VIP2@     1004402c     DlgServerWizard.obj
 0002:00006034       ??_C@_04PAEFGOLO@VIP3@     10044034     DlgServerWizard.obj
 0002:0000603c       ??_C@_04LPAEPIHJ@VIP4@     1004403c     DlgServerWizard.obj
 0002:00006044       ??_C@_04KGBPMJDI@VIP5@     10044044     DlgServerWizard.obj
 0002:0000604c       ??_C@_08BGFLHOFE@?$LO?V?J?$PN?D?$KD?J?$LN@ 1004404c     DlgServerWizard.obj
 0002:00006058       ??_C@_08MKFLPDGN@?J?$LB?$LM?d?D?$KD?J?$LN@ 10044058     DlgServerWizard.obj
 0002:00006064       ??_C@_08DJLCFFJL@?H?$KG?J?$PN?D?$KD?J?$LN@ 10044064     DlgServerWizard.obj
 0002:00006070       ??_C@_08BIAEABAF@?$LL?$PN?$LH?V?D?$KD?J?$LN@ 10044070     DlgServerWizard.obj
 0002:0000607c       ??_C@_04KIDPNELE@?$LO?V?J?$PN@ 1004407c     DlgServerWizard.obj
 0002:00006084       ??_C@_04MJOAOAPL@?J?$LB?$LM?d@ 10044084     DlgServerWizard.obj
 0002:0000608c       ??_C@_04LFJCGBEH@?H?$KG?J?$PN@ 1004408c     DlgServerWizard.obj
 0002:00006094       ??_C@_04DNLFHFJB@?$LL?$PN?$LH?V@ 10044094     DlgServerWizard.obj
 0002:0000609c       ??_C@_0BL@LFMLNCPB@?$LH?$LP?V?w?$LE?$LE?$LN?$KI?$LH?$LP?$LM?d?$LK?s?G?$LP?V?F?$LN?x?H?k?$LH?$LP?$LM?d@ 1004409c     DlgServerWizard.obj
 0002:000060bc       ??_C@_0BH@EBCHOPCM@?$LE?$LE?$LN?$KI?$LH?$LP?$LM?d?R?T?$LO?V?J?$PN?D?$KD?J?$LN?$LN?x?P?P@ 100440bc     DlgServerWizard.obj
 0002:000060d8       ??_C@_0BH@KKIMEOCL@?$LE?$LE?$LN?$KI?$LH?$LP?$LM?d?R?T?J?$LB?$LM?d?D?$KD?J?$LN?$LN?x?P?P@ 100440d8     DlgServerWizard.obj
 0002:000060f4       ??_C@_0BH@HPHMMNIB@?$LE?$LE?$LN?$KI?$LH?$LP?$LM?d?R?T?H?$KG?J?$PN?D?$KD?J?$LN?$LN?x?P?P@ 100440f4     DlgServerWizard.obj
 0002:00006110       ??_C@_0BL@PHEPAGLP@?$LE?$LE?$LN?$KI?$LH?$LP?$LM?d?R?T?$LL?$PN?$LH?V?I?O?O?$NO?D?$KD?J?$LN?$LN?x?P?P@ 10044110     DlgServerWizard.obj
 0002:00006130       ??_C@_0BH@OJIPJDBF@?$LH?$LP?V?w?$LE?$LE?$LN?$KI?$LH?$LP?$LM?d?$LP?I?R?T?$LC?$LL?$LN?x?H?k@ 10044130     DlgServerWizard.obj
 0002:0000614c       ??_C@_0CE@BAIHJHEF@?$LH?$LP?V?w?$LP?I?R?T?$LE?$LE?$LN?$KI?W?n?$LE?s?J?$PN?A?$LP?$KD?$KM?N?$KK0?$LB?m?J?$LO?$LC?$LL@ 1004414c     DlgServerWizard.obj
 0002:00006178       ??_C@_0CF@NPDJBIPG@?K?$LN?H?K?$LH?$LP?$LG?$MA?A?$KC?$LF?D?K?$LA?J?U?$KD?$KM?$LK?M?M?$KI?S?C?K?$LA?J?U?$LJ?$LC?M@ 10044178     DlgServerWizard.obj
 0002:000061a4       ??_C@_0BP@HHFBKMPP@?C?b?$LH?Q?J?$LB?$LM?d?D?Z?$KD?$KM?$LE?$LE?$LN?$KI?$LH?$LP?$LM?d?$LC?$LL?O?$PL?$LK?D?W?j?J?$KP@ 100441a4     DlgServerWizard.obj
 0002:000061cc       ??_C@_09LOOPACNL@?$CFs?2?$CFd?4ini@ 100441cc     DlgServerWizard.obj
 0002:000061d8       ??_C@_07DOAOMMKG@Enabled@  100441d8     DlgServerWizard.obj
 0002:000061e4       ??_C@_06CKGENIKG@Enable@   100441e4     DlgServerWizard.obj
 0002:000061ec       ??_C@_0L@HLGININO@IsJoinGame@ 100441ec     DlgServerWizard.obj
 0002:000061fc       ??_C@_06CJHLBMGC@Option@   100441fc     DlgServerWizard.obj
 0002:00006204       ??_C@_09BAGGAEBH@MinPeople@ 10044204     DlgServerWizard.obj
 0002:00006210       ??_C@_09BBGKJOKD@MaxPeople@ 10044210     DlgServerWizard.obj
 0002:0000621c       ??_C@_0N@CNCFIDBJ@MaxCellScore@ 1004421c     DlgServerWizard.obj
 0002:0000622c       ??_C@_0BA@GCOMLPGF@PersonalRoomTax@ 1004422c     DlgServerWizard.obj
 0002:00006240       ??_C@_0P@LNMJOPEM@CanCreateCount@ 10044240     DlgServerWizard.obj
 0002:00006254       ??_C@_0O@FDPMPBME@PlayTurnCount@ 10044254     DlgServerWizard.obj
 0002:00006264       ??_C@_0O@FAGABJFM@PlayTimeLimit@ 10044264     DlgServerWizard.obj
 0002:00006274       ??_C@_0BE@NHDBBOLF@TimeAfterBeginCount@ 10044274     DlgServerWizard.obj
 0002:0000628c       ??_C@_0BB@BHHEMCMJ@TimeOffLineCount@ 1004428c     DlgServerWizard.obj
 0002:000062a0       ??_C@_0BB@EFKEMBID@TimeNotBeginGame@ 100442a0     DlgServerWizard.obj
 0002:000062b4       ??_C@_0BE@MAFCEFJP@TimeAfterCreateRoom@ 100442b4     DlgServerWizard.obj
 0002:000062cc       ??_C@_0O@DEEAMCAI@BeginFreeTime@ 100442cc     DlgServerWizard.obj
 0002:000062dc       ??_C@_0M@OHDGOHJM@EndFreeTime@ 100442dc     DlgServerWizard.obj
 0002:000062ec       ??_C@_0M@JGNJEEEJ@CreateRight@ 100442ec     DlgServerWizard.obj
 0002:000062fc       ??_C@_0BA@MEGPCNND@CreateRoomRight@ 100442fc     DlgServerWizard.obj
 0002:00006310       ??_C@_0BB@NDJBEBBP@PlayTurnLimit_?$CFd@ 10044310     DlgServerWizard.obj
 0002:00006324       ??_C@_0N@BPNJNFLH@FeeParameter@ 10044324     DlgServerWizard.obj
 0002:00006334       ??_C@_09NPCPBNFG@PayFee_?$CFd@ 10044334     DlgServerWizard.obj
 0002:00006340       ??_C@_0M@PLHAIOPP@AAPayFee_?$CFd@ 10044340     DlgServerWizard.obj
 0002:00006350       ??_C@_0M@NFLEKBDJ@IniScore_?$CFd@ 10044350     DlgServerWizard.obj
 0002:00006360       ??_C@_0M@MCMOAOCB@GameMode_?$CFd@ 10044360     DlgServerWizard.obj
 0002:00006370       ??_C@_05KPJEPPD@?$LO?V?J?$PN1@ 10044370     DlgServerWizard.obj
 0002:00006378       ??_C@_05OMPLMMMG@?J?$LB?$LM?d1@ 10044378     DlgServerWizard.obj
 0002:00006380       ??_C@_05COFAEBOA@?H?$KG?J?$PN1@ 10044380     DlgServerWizard.obj
 0002:00006388       ??_C@_05EBGIBBBF@?$LL?$PN?$LH?V1@ 10044388     DlgServerWizard.obj
 0002:00006390       ??_C@_05CBNEBMDA@?$LO?V?J?$PN2@ 10044390     DlgServerWizard.obj
 0002:00006398       ??_C@_05MHNGJPAF@?J?$LB?$LM?d2@ 10044398     DlgServerWizard.obj
 0002:000063a0       ??_C@_05FHNBCCD@?H?$KG?J?$PN2@ 100443a0     DlgServerWizard.obj
 0002:000063a8       ??_C@_05GKEFECNG@?$LL?$PN?$LH?V2@ 100443a8     DlgServerWizard.obj
 0002:000063b0       ??_C@_05DIMPCNHB@?$LO?V?J?$PN3@ 100443b0     DlgServerWizard.obj
 0002:000063b8       ??_C@_05NOMNKOEE@?J?$LB?$LM?d3@ 100443b8     DlgServerWizard.obj
 0002:000063c0       ??_C@_05BMGGCDGC@?H?$KG?J?$PN3@ 100443c0     DlgServerWizard.obj
 0002:000063c8       ??_C@_05HDFOHDJH@?$LL?$PN?$LH?V3@ 100443c8     DlgServerWizard.obj
 0002:000063d0       ??_C@_05HHIOLLLG@?$LO?V?J?$PN4@ 100443d0     DlgServerWizard.obj
 0002:000063d8       ??_C@_05JBIMDIID@?J?$LB?$LM?d4@ 100443d8     DlgServerWizard.obj
 0002:000063e0       ??_C@_05FDCHLFKF@?H?$KG?J?$PN4@ 100443e0     DlgServerWizard.obj
 0002:000063e8       ??_C@_05DMBPOFFA@?$LL?$PN?$LH?V4@ 100443e8     DlgServerWizard.obj
 0002:000063f0       ??_C@_05GOJFIKPH@?$LO?V?J?$PN5@ 100443f0     DlgServerWizard.obj
 0002:000063f8       ??_C@_05IIJHAJMC@?J?$LB?$LM?d5@ 100443f8     DlgServerWizard.obj
 0002:00006400       ??_C@_05EKDMIEOE@?H?$KG?J?$PN5@ 10044400     DlgServerWizard.obj
 0002:00006408       ??_C@_05CFAENEBB@?$LL?$PN?$LH?V5@ 10044408     DlgServerWizard.obj
 0002:00006410       ??_C@_0BP@PJKCGFJH@?G?k?D?z?O?H?$LE?S?S?N?O?$LH?A?P?$LB?m?V?P?Q?$KB?T?q?S?N?O?$LH?W?i?$LM?$PO@ 10044410     DlgServerWizard.obj
 0002:00006438       ??_C@_0CM@PKPMOEPA@?$FL?5?$CFs?5?$FN?5?$LH?$PO?N?q?W?i?$LM?$PO?$LL?$LJ?C?$LL?S?P?$LA?$LC?W?$LA?$KD?$KM?G?k?O?H@ 10044438     DlgServerWizard.obj
 0002:0000646c       ??_C@_0CO@FMLCDPAO@?$FL?5?$CFs?5?$FN?5?$LH?$PO?N?q?W?i?$LM?$PO?$LI?$PM?P?B?A?K?$KD?$KM?J?G?$LH?q?$LL?$LJ?$LM?L@ 1004446c     DlgServerWizard.obj
 0002:000064a4       ??_C@_0DA@PHBCCHJI@?$FL?5?$CFs?5?$FN?5?$LH?$PO?N?q?W?i?$LM?$PO?$LM?S?T?X?J?$KH?$LA?$NM?$KD?$KM?$LE?$LE?$LN?$KI?S?N@ 100444a4     DlgServerWizard.obj
 0002:000064e0       ??_C@_0EM@BOABMJKJ@g?3?2?M?x?$LK?$PM?2happygamewh?2?$LH?$PO?N?q?$LG?K?2?O?$LF?M?$LD@ 100444e0     DlgServerWizard.obj
 0002:0000653c       ??_C@_08IEBKPAKK@?$LL?y?$LB?$LO?E?d?V?C@ 1004453c     DlgServerWizard.obj
 0002:00006548       ??_C@_08ELGJNJNI@?$LH?$LP?$LM?d?Q?$KB?O?n@ 10044548     DlgServerWizard.obj
 0002:00006554       ??_C@_08LBOCGJIJ@?$LH?V?W?i?Q?$KB?O?n@ 10044554     DlgServerWizard.obj
 0002:00006560       ??_C@_0L@FGFOLDNK@?K?$LN?H?K?$LH?$LP?E?d?V?C@ 10044560     DlgServerWizard.obj
 0002:00006570       ??_C@_08JOACJLAD@?$LH?$PO?N?q?$LG?$KI?V?F@ 10044570     DlgServerWizard.obj
 0002:0000657c       ??_C@_08INBHOBNB@?T?$LM?U?$LN?$LG?$KI?V?F@ 1004457c     DlgServerWizard.obj
 0002:00006588       ??_C@_0BN@PPCMMBCC@?$LH?$LP?$LM?d?E?d?V?C?O?r?$LF?$LM?5?9?9?9?5?$FL?5?$LC?$LN?V?h?5?$CFd?5?$FN@ 10044588     DlgServerWizard.obj
 0002:000065ac       ??_C@_0BB@HACHHGOC@?S?N?O?$LH?$LH?$LP?$LM?d?$LE?$LE?$LN?$KI?$LD?I?$LJ?$KG@ 100445ac     DlgServerWizard.obj
 0002:000065c0       ??_C@_0BB@CJFLLFDE@?S?N?O?$LH?$LH?$LP?$LM?d?E?d?V?C?$LD?I?$LJ?$KG@ 100445c0     DlgServerWizard.obj
 0002:000065d4       ??_C@_0BH@BMJGHNOL@?$CFs?2MobileParameter?4ini@ 100445d4     DlgServerWizard.obj
 0002:000065f0       ??_C@_0BC@IGEEDJJG@VisibleTableCount@ 100445f0     DlgServerWizard.obj
 0002:00006608       ??_C@_0BD@GBODAJDE@EverySendPageCount@ 10044608     DlgServerWizard.obj
 0002:00006620       ??_C@_0L@NIKGMENH@?K?$LA?J?U?$LB?H?$MA?$PN?$KD?$LK@ 10044620     DlgServerWizard.obj
 0002:00006630       ??_C@_0L@IBIEHAJI@?$LH?$PO?N?q?$LH?Q?J?$PN?$KD?$LK@ 10044630     DlgServerWizard.obj
 0002:000067d0       ??_7CListHeaderCtrl@@6B@   100447d0     ListControl.obj
 0002:00006998       ??_7CListControl@@6B@      10044998     ListControl.obj
 0002:00006c48       ??_C@_0EN@MBAAFFLP@g?3?2?M?x?$LK?$PM?2happygamewh?2?$LH?$PO?N?q?$LG?K?2?O?$LF?M?$LD@ 10044c48     MatchInfoManager.obj
 0002:00006ca4       ??_C@_0L@MKEKGMGP@?$EAdwMatchID@ 10044ca4     MatchInfoManager.obj
 0002:00006cb4       ??_C@_0BH@NDBLJKCK@GSP_GS_LoadMatchReward@ 10044cb4     MatchInfoManager.obj
 0002:00006cd0       ??_C@_09EPMDJCNA@MatchRank@ 10044cd0     MatchInfoManager.obj
 0002:00006cdc       ??_C@_0L@CKLPJIFO@RewardGold@ 10044cdc     MatchInfoManager.obj
 0002:00006cec       ??_C@_0M@BLJEFPLJ@RewardIngot@ 10044cec     MatchInfoManager.obj
 0002:00006cfc       ??_C@_0BB@DAEFAHAB@RewardExperience@ 10044cfc     MatchInfoManager.obj
 0002:00006d10       ??_C@_08HBBOJKPI@?$EAwKindID@ 10044d10     MatchInfoManager.obj
 0002:00006d1c       ??_C@_0BD@CBAFKNPB@?$EAstrServiceMachine@ 10044d1c     MatchInfoManager.obj
 0002:00006d34       ??_C@_0BC@IIOJPJPJ@?$EAstrErrorDescribe@ 10044d34     MatchInfoManager.obj
 0002:00006d4c       ??_C@_0BJ@HGGCIMNG@GSP_GS_LoadGameMatchItem@ 10044d4c     MatchInfoManager.obj
 0002:00006d6c       ??_C@_0BL@LLLDCBFA@GSP_GS_DeleteGameMatchItem@ 10044d6c     MatchInfoManager.obj
 0002:00006d8c       ??_C@_04JFFKLGJF@?$CF02X@  10044d8c     MatchInfoManager.obj
 0002:00006d94       ??_C@_0O@IDKCNMDH@?$EAstrMatchName@ 10044d94     MatchInfoManager.obj
 0002:00006da4       ??_C@_0O@NKOFFMGJ@?$EAstrMatchDate@ 10044da4     MatchInfoManager.obj
 0002:00006db4       ??_C@_0N@NLBCJFKK@?$EAcbMatchType@ 10044db4     MatchInfoManager.obj
 0002:00006dc4       ??_C@_0L@PDOPAGMD@?$EAcbFeeType@ 10044dc4     MatchInfoManager.obj
 0002:00006dd4       ??_C@_0O@BAHPIMKH@?$EAcbDeductArea@ 10044dd4     MatchInfoManager.obj
 0002:00006de4       ??_C@_0M@HBHPDEE@?$EAlSignupFee@ 10044de4     MatchInfoManager.obj
 0002:00006df4       ??_C@_0O@IGAIKEL@?$EAcbSignupMode@ 10044df4     MatchInfoManager.obj
 0002:00006e04       ??_C@_0BB@NIOCNJO@?$EAcbJoinCondition@ 10044e04     MatchInfoManager.obj
 0002:00006e18       ??_C@_0P@NMLGPOCE@?$EAcbMemberOrder@ 10044e18     MatchInfoManager.obj
 0002:00006e2c       ??_C@_0O@FHHALJLH@?$EAdwExperience@ 10044e2c     MatchInfoManager.obj
 0002:00006e3c       ??_C@_0P@IAEFAMCC@?$EAdwFromMatchID@ 10044e3c     MatchInfoManager.obj
 0002:00006e50       ??_C@_0O@JBFEJKCF@?$EAcbFilterType@ 10044e50     MatchInfoManager.obj
 0002:00006e60       ??_C@_0M@GKCAPLMD@?$EAwMaxRankID@ 10044e60     MatchInfoManager.obj
 0002:00006e70       ??_C@_0O@PJDBJKDJ@?$EAMatchEndDate@ 10044e70     MatchInfoManager.obj
 0002:00006e80       ??_C@_0BA@LIHJEKAK@?$EAMatchStartDate@ 10044e80     MatchInfoManager.obj
 0002:00006e94       ??_C@_0P@LJGINACK@?$EAcbRankingMode@ 10044e94     MatchInfoManager.obj
 0002:00006ea8       ??_C@_0P@DBECKJP@?$EAwCountInnings@ 10044ea8     MatchInfoManager.obj
 0002:00006ebc       ??_C@_0BE@MMGHFAJ@?$EAcbFilterGradesMode@ 10044ebc     MatchInfoManager.obj
 0002:00006ed4       ??_C@_0BC@OEHLNJCG@?$EAcbDistributeRule@ 10044ed4     MatchInfoManager.obj
 0002:00006eec       ??_C@_0BE@HAABPICC@?$EAwMinDistributeUser@ 10044eec     MatchInfoManager.obj
 0002:00006f04       ??_C@_0BG@PGABJKOH@?$EAwDistributeTimeSpace@ 10044f04     MatchInfoManager.obj
 0002:00006f20       ??_C@_0BF@EICMGAPH@?$EAwMinPartakeGameUser@ 10044f20     MatchInfoManager.obj
 0002:00006f3c       ??_C@_0BF@OPBIOAIO@?$EAwMaxPartakeGameUser@ 10044f3c     MatchInfoManager.obj
 0002:00006f58       ??_C@_0P@HICCMOMP@?$EAstrRewardGold@ 10044f58     MatchInfoManager.obj
 0002:00006f6c       ??_C@_0BA@JMMOGBDN@?$EAstrRewardIngot@ 10044f6c     MatchInfoManager.obj
 0002:00006f80       ??_C@_0BF@HBDODLCL@?$EAstrRewardExperience@ 10044f80     MatchInfoManager.obj
 0002:00006f9c       ??_C@_0O@PIALAMEL@?$EAstrMatchRule@ 10044f9c     MatchInfoManager.obj
 0002:00006fac       ??_C@_0BL@NBMBGJOC@GSP_GS_InsertGameMatchItem@ 10044fac     MatchInfoManager.obj
 0002:00006fcc       ??_C@_0BL@NMEDDMNL@GSP_GS_ModifyGameMatchItem@ 10044fcc     MatchInfoManager.obj
 0002:00006fec       ??_C@_0DA@PCJBGNDG@CreateGameServer?5?$LE?$LE?$LN?$KI?5PlatformD@ 10044fec     MatchInfoManager.obj
 0002:00007028       ??_C@_0DD@HOLKKKGP@ConnectGameMatchDB?5?$LE?$LE?$LN?$KI?5GameMat@ 10045028     MatchInfoManager.obj
 0002:00007068       ??_C@_07FOGJBBBD@MatchID@  10045068     MatchInfoManager.obj
 0002:00007074       ??_C@_0M@LGFHLALO@MatchStatus@ 10045074     MatchInfoManager.obj
 0002:00007084       ??_C@_09NNBFLLPE@MatchType@ 10045084     MatchInfoManager.obj
 0002:00007090       ??_C@_09HGBGHLIE@MatchName@ 10045090     MatchInfoManager.obj
 0002:0000709c       ??_C@_07GDEHGHPI@FeeType@  1004509c     MatchInfoManager.obj
 0002:000070a8       ??_C@_0L@JMKKPHHK@DeductArea@ 100450a8     MatchInfoManager.obj
 0002:000070b8       ??_C@_09PFOFOOFC@SignupFee@ 100450b8     MatchInfoManager.obj
 0002:000070c4       ??_C@_0L@IELFPBJG@SignupMode@ 100450c4     MatchInfoManager.obj
 0002:000070d4       ??_C@_0O@LCKNANBH@JoinCondition@ 100450d4     MatchInfoManager.obj
 0002:000070e4       ??_C@_0M@CEFIIFDG@MemberOrder@ 100450e4     MatchInfoManager.obj
 0002:000070f4       ??_C@_0L@DCGNFONO@Experience@ 100450f4     MatchInfoManager.obj
 0002:00007104       ??_C@_0M@LEEOMIDJ@FromMatchID@ 10045104     MatchInfoManager.obj
 0002:00007114       ??_C@_0L@BNIBOBPI@FilterType@ 10045114     MatchInfoManager.obj
 0002:00007124       ??_C@_09BFAFKFFK@MaxRankID@ 10045124     MatchInfoManager.obj
 0002:00007130       ??_C@_0N@GGEHFCIN@MatchEndDate@ 10045130     MatchInfoManager.obj
 0002:00007140       ??_C@_0P@KNGPPEEC@MatchStartDate@ 10045140     MatchInfoManager.obj
 0002:00007154       ??_C@_0M@EBIGKLDI@RankingMode@ 10045154     MatchInfoManager.obj
 0002:00007164       ??_C@_0N@JOOKANAC@CountInnings@ 10045164     MatchInfoManager.obj
 0002:00007174       ??_C@_0BB@NFMBAAGJ@FilterGradesMode@ 10045174     MatchInfoManager.obj
 0002:00007188       ??_C@_0P@HAKAMBIC@DistributeRule@ 10045188     MatchInfoManager.obj
 0002:0000719c       ??_C@_0BC@BPMHCGIJ@MinDistributeUser@ 1004519c     MatchInfoManager.obj
 0002:000071b4       ??_C@_0BE@NKJJGPNA@DistributeTimeSpace@ 100451b4     MatchInfoManager.obj
 0002:000071cc       ??_C@_0BD@JEHNMEJ@MinPartakeGameUser@ 100451cc     MatchInfoManager.obj
 0002:000071e4       ??_C@_0BD@KOHDFMDA@MaxPartakeGameUser@ 100451e4     MatchInfoManager.obj
 0002:000071fc       ??_C@_09NLPKLPI@MatchRule@ 100451fc     MatchInfoManager.obj
 0002:000072f0       ??_C@_02DPKJAMEF@?$CFd@    100452f0     MatchListControl.obj
 0002:000072f4       ??_C@_05LLAMLEHD@?$CFI64d@ 100452f4     MatchListControl.obj
 0002:000072fc       ??_C@_02DKCKIIND@?$CFs@    100452fc     MatchListControl.obj
 0002:00007304       ??_7CMatchListControl@@6B@ 10045304     MatchListControl.obj
 0002:000074d0       ??_7CRewardListControl@@6B@ 100454d0     MatchListControl.obj
 0002:00007698       ??_C@_08LOLPFOFD@?$LB?H?H?$PM?$MA?$OA?P?M@ 10045698     MatchListControl.obj
 0002:000076a4       ??_C@_08NHGCFIKP@?$LB?H?H?$PM?C?$PL?$LD?F@ 100456a4     MatchListControl.obj
 0002:000076b0       ??_C@_0EN@GFGADAAH@g?3?2?M?x?$LK?$PM?2happygamewh?2?$LH?$PO?N?q?$LG?K?2?O?$LF?M?$LD@ 100456b0     MatchListControl.obj
 0002:0000770c       ??_C@_06PFKHHJFE@?$LG?$KI?J?$LB?H?$PM@ 1004570c     MatchListControl.obj
 0002:00007714       ??_C@_06CFMDOEPK@?$LM?$LE?J?$LB?H?$PM@ 10045714     MatchListControl.obj
 0002:0000771c       ??_C@_08EHBMMFM@?C?$PL?5?5?5?5?$LE?N@ 1004571c     MatchListControl.obj
 0002:00007728       ??_C@_08JGPOPHOF@?$LN?$LB?$MA?x?$LN?p?$LB?R@ 10045728     MatchListControl.obj
 0002:00007734       ??_C@_08ONDPLBON@?$LN?$LB?$MA?x?T?$KK?$LB?$KG@ 10045734     MatchListControl.obj
 0002:00007740       ??_C@_08JMFMHOFC@?$LN?$LB?$MA?x?$LO?$KN?Q?i@ 10045740     MatchListControl.obj
 0002:0000774c       ??_C@_08BOCDIOBM@?$LF?Z?$CF02d?C?$PL@ 1004574c     MatchListControl.obj
 0002:00007840       ??_C@_0EO@NEALCNHJ@g?3?2?M?x?$LK?$PM?2happygamewh?2?$LH?$PO?N?q?$LG?K?2?O?$LF?M?$LD@ 10045840     ModuleDBParameter.obj
 0002:00007988       ??_C@_05PLCFPPOI@with?5@   10045988     ModuleInfoManager.obj
 0002:00007990       ??_C@_09HCLNAIDE@?5elements@ 10045990     ModuleInfoManager.obj
 0002:0000799c       ??_C@_01EEMJAFIK@?6@       1004599c     ModuleInfoManager.obj
 0002:000079a4       ??_7?$CMap@GGPAUtagGameModuleInfo@@PAU1@@@6B@ 100459a4     ModuleInfoManager.obj
 0002:000079c0       ??_7?$CWHArray@PAUtagGameModuleInfo@@ABQAU1@@@6B@ 100459c0     ModuleInfoManager.obj
 0002:000079cc       ??_7CModuleInfoBuffer@@6B@ 100459cc     ModuleInfoManager.obj
 0002:000079d8       ??_C@_0EO@MGEBBDOE@g?3?2?M?x?$LK?$PM?2happygamewh?2?$LH?$PO?N?q?$LG?K?2?O?$LF?M?$LD@ 100459d8     ModuleInfoManager.obj
 0002:00007a38       ??_C@_0DC@IEHDDBLE@LoadGameModuleInfo?5?$LE?$LE?$LN?$KI?5Platfor@ 10045a38     ModuleInfoManager.obj
 0002:00007a74       ??_C@_0BI@BHCCIOLM@GSP_GS_LoadGameGameItem@ 10045a74     ModuleInfoManager.obj
 0002:00007a90       ??_C@_06KGJDDPAK@GameID@   10045a90     ModuleInfoManager.obj
 0002:00007a98       ??_C@_0O@DNEICACF@ClientVersion@ 10045a98     ModuleInfoManager.obj
 0002:00007aa8       ??_C@_0O@BNALHPOE@ServerVersion@ 10045aa8     ModuleInfoManager.obj
 0002:00007ab8       ??_C@_08DBMACHKJ@GameName@ 10045ab8     ModuleInfoManager.obj
 0002:00007ac4       ??_C@_0N@KEAKJKMG@DataBaseAddr@ 10045ac4     ModuleInfoManager.obj
 0002:00007ad4       ??_C@_0N@BLNGECDM@DataBaseName@ 10045ad4     ModuleInfoManager.obj
 0002:00007ae4       ??_C@_0O@DLLFAKFN@ServerDLLName@ 10045ae4     ModuleInfoManager.obj
 0002:00007af4       ??_C@_0O@GDMCLMBH@ClientEXEName@ 10045af4     ModuleInfoManager.obj
 0002:00007b04       ??_C@_03OHJIHPJH@?6?7?$FL@ 10045b04     ModuleInfoManager.obj
 0002:00007b08       ??_C@_04OAFLPOMH@?$FN?5?$DN?5@ 10045b08     ModuleInfoManager.obj
 0002:00007bfc       ??_7CModuleListControl@@6B@ 10045bfc     ModuleListControl.obj
 0002:00007dc4       ??_C@_08MGLMENIG@?S?N?O?$LH?C?$PL?W?V@ 10045dc4     ModuleListControl.obj
 0002:00007dd0       ??_C@_08OIAECBD@?W?i?$LM?$PO?W?$LE?L?$KM@ 10045dd0     ModuleListControl.obj
 0002:00007ddc       ??_C@_08ENLFOAJ@?J?$PN?$LO?$NN?$LP?b?C?$PL@ 10045ddc     ModuleListControl.obj
 0002:00007de8       ??_C@_08IHOHCJJH@?A?$KM?$LN?S?$LF?X?V?$LH@ 10045de8     ModuleListControl.obj
 0002:00007df4       ??_C@_08IELLENBN@?$LH?$PO?N?q?F?w?C?$PL@ 10045df4     ModuleListControl.obj
 0002:00007e00       ??_C@_08BDIJAICL@?$LP?M?$LL?$KH?$LG?K?C?$PL@ 10045e00     ModuleListControl.obj
 0002:00007e10       ??_C@_0EO@GCCBHGFM@g?3?2?M?x?$LK?$PM?2happygamewh?2?$LH?$PO?N?q?$LG?K?2?O?$LF?M?$LD@ 10045e10     ModuleListControl.obj
 0002:00007e70       ??_C@_08FAIKBINC@?C?$LL?S?P?$LA?$LC?W?$LA@ 10045e70     ModuleListControl.obj
 0002:00007e7c       ??_C@_08DNKKCEAP@?$LE?f?T?Z?$LI?$PM?P?B@ 10045e7c     ModuleListControl.obj
 0002:00007e88       ??_C@_08PHMHMBKJ@?R?Q?$LO?$KN?$LA?$LC?W?$LA@ 10045e88     ModuleListControl.obj
 0002:00007e94       __pRawDllMain              10045e94     ModuleManager.obj
 0002:0000806c       ??_7CServerCustomRule@@6B@ 1004606c     ServerCustomRule.obj
 0002:00008160       ??_7?$CMap@GGPAUtagGameServerInfo@@PAU1@@@6B@ 10046160     ServerInfoManager.obj
 0002:0000817c       ??_7?$CWHArray@PAUtagGameServerInfo@@ABQAU1@@@6B@ 1004617c     ServerInfoManager.obj
 0002:00008188       ??_7CServerInfoBuffer@@6B@ 10046188     ServerInfoManager.obj
 0002:00008190       ??_C@_0EO@GNEBGAKM@g?3?2?M?x?$LK?$PM?2happygamewh?2?$LH?$PO?N?q?$LG?K?2?O?$LF?M?$LD@ 10046190     ServerInfoManager.obj
 0002:000081f0       ??_C@_0L@FIEHJJML@?$EAwServerID@ 100461f0     ServerInfoManager.obj
 0002:00008200       ??_C@_0BI@JPDDAIPE@GSP_GS_LoadGameRoomItem@ 10046200     ServerInfoManager.obj
 0002:0000821c       ??_C@_0BG@EDPMEAGC@GSP_GS_DeleteGameRoom@ 1004621c     ServerInfoManager.obj
 0002:00008238       ??_C@_08KFPBGPFE@?$EAwGameID@ 10046238     ServerInfoManager.obj
 0002:00008244       ??_C@_08HHDCJIG@?$EAwNodeID@ 10046244     ServerInfoManager.obj
 0002:00008250       ??_C@_08GHPIGFA@?$EAwSortID@ 10046250     ServerInfoManager.obj
 0002:0000825c       ??_C@_0M@DOJONCPP@?$EAlCellScore@ 1004625c     ServerInfoManager.obj
 0002:0000826c       ??_C@_0P@JILOLBML@?$EAwRevenueRatio@ 1004626c     ServerInfoManager.obj
 0002:00008280       ??_C@_0P@BCEPIHID@?$EAlServiceScore@ 10046280     ServerInfoManager.obj
 0002:00008294       ??_C@_0BA@MOGKDICI@?$EAlRestrictScore@ 10046294     ServerInfoManager.obj
 0002:000082a8       ??_C@_0BA@CGJIELGM@?$EAlMinTableScore@ 100462a8     ServerInfoManager.obj
 0002:000082bc       ??_C@_0BA@NKAHIJHK@?$EAlMinEnterScore@ 100462bc     ServerInfoManager.obj
 0002:000082d0       ??_C@_0BA@GDCBBCAL@?$EAlMaxEnterScore@ 100462d0     ServerInfoManager.obj
 0002:000082e4       ??_C@_0BC@CPKAFFOL@?$EAcbMinEnterMember@ 100462e4     ServerInfoManager.obj
 0002:000082fc       ??_C@_0BC@IBLDCNK@?$EAcbMaxEnterMember@ 100462fc     ServerInfoManager.obj
 0002:00008314       ??_C@_0O@ELIMAAAE@?$EAdwServerRule@ 10046314     ServerInfoManager.obj
 0002:00008324       ??_C@_0BD@FCBMNBKD@?$EAdwAttachUserRight@ 10046324     ServerInfoManager.obj
 0002:0000833c       ??_C@_0M@IBCKNPAA@?$EAwMaxPlayer@ 1004633c     ServerInfoManager.obj
 0002:0000834c       ??_C@_0N@JMGMPJ@?$EAwTableCount@ 1004634c     ServerInfoManager.obj
 0002:0000835c       ??_C@_0N@KHDIKACC@?$EAwServerPort@ 1004635c     ServerInfoManager.obj
 0002:0000836c       ??_C@_0N@MKJNBBCI@?$EAwServerKind@ 1004636c     ServerInfoManager.obj
 0002:0000837c       ??_C@_0N@HHJHPJNP@?$EAwServerType@ 1004637c     ServerInfoManager.obj
 0002:0000838c       ??_C@_0O@LAKNNJLO@?$EAwServerLevel@ 1004638c     ServerInfoManager.obj
 0002:0000839c       ??_C@_0P@HKFGBIA@?$EAstrServerName@ 1004639c     ServerInfoManager.obj
 0002:000083b0       ??_C@_0BB@MMFKNIGF@?$EAstrServerPasswd@ 100463b0     ServerInfoManager.obj
 0002:000083c4       ??_C@_0BG@DNMICNEI@?$EAwDistributeDrawCount@ 100463c4     ServerInfoManager.obj
 0002:000083e0       ??_C@_0BB@PBIEFPDL@?$EAstrDataBaseName@ 100463e0     ServerInfoManager.obj
 0002:000083f4       ??_C@_0P@PGPKAIOB@?$EAstrCustomRule@ 100463f4     ServerInfoManager.obj
 0002:00008408       ??_C@_0BB@ELKLEIJF@?$EAstrPersonalRule@ 10046408     ServerInfoManager.obj
 0002:0000841c       ??_C@_0BG@EDGEFKPJ@GSP_GS_InsertGameRoom@ 1004641c     ServerInfoManager.obj
 0002:00008438       ??_C@_0BG@HDLIAPBG@GSP_GS_ModifyGameRoom@ 10046438     ServerInfoManager.obj
 0002:00008454       ??_C@_08BHBELLIH@ServerID@ 10046454     ServerInfoManager.obj
 0002:00008460       ??_C@_06HCHMMKKG@KindID@   10046460     ServerInfoManager.obj
 0002:00008468       ??_C@_06EBBHJNI@NodeID@    10046468     ServerInfoManager.obj
 0002:00008470       ??_C@_06FBNNGAO@SortID@    10046470     ServerInfoManager.obj
 0002:00008478       ??_C@_09MMGMMPOJ@CellScore@ 10046478     ServerInfoManager.obj
 0002:00008484       ??_C@_0N@FEAJGFG@RevenueRatio@ 10046484     ServerInfoManager.obj
 0002:00008494       ??_C@_0N@KGDLKHJP@ServiceScore@ 10046494     ServerInfoManager.obj
 0002:000084a4       ??_C@_0O@NKNPBAEH@RestrictScore@ 100464a4     ServerInfoManager.obj
 0002:000084b4       ??_C@_0O@DCCNGDAD@MinTableScore@ 100464b4     ServerInfoManager.obj
 0002:000084c4       ??_C@_0O@MOLCKBBF@MinEnterScore@ 100464c4     ServerInfoManager.obj
 0002:000084d4       ??_C@_0O@HHJEDKGE@MaxEnterScore@ 100464d4     ServerInfoManager.obj
 0002:000084e4       ??_C@_0P@LLHLENEP@MinEnterMember@ 100464e4     ServerInfoManager.obj
 0002:000084f8       ??_C@_0P@JMMACKHO@MaxEnterMember@ 100464f8     ServerInfoManager.obj
 0002:0000850c       ??_C@_0L@COJBOHGN@ServerRule@ 1004650c     ServerInfoManager.obj
 0002:0000851c       ??_C@_0BA@IBOCBCNP@AttachUserRight@ 1004651c     ServerInfoManager.obj
 0002:00008530       ??_C@_09POAPIBJJ@MaxPlayer@ 10046530     ServerInfoManager.obj
 0002:0000853c       ??_C@_0L@IJDAGCEH@TableCount@ 1004653c     ServerInfoManager.obj
 0002:0000854c       ??_C@_0L@COJEKOJM@ServerPort@ 1004654c     ServerInfoManager.obj
 0002:0000855c       ??_C@_0L@EDDBBPJG@ServerKind@ 1004655c     ServerInfoManager.obj
 0002:0000856c       ??_C@_0L@PODLPHGB@ServerType@ 1004656c     ServerInfoManager.obj
 0002:0000857c       ??_C@_0M@JMPNOLDL@ServerLevel@ 1004657c     ServerInfoManager.obj
 0002:0000858c       ??_C@_0L@FFDIDHBB@ServerName@ 1004658c     ServerInfoManager.obj
 0002:0000859c       ??_C@_0N@CGAIMFGC@ServerPasswd@ 1004659c     ServerInfoManager.obj
 0002:000085ac       ??_C@_0BE@BBFANIHP@DistributeDrawCount@ 100465ac     ServerInfoManager.obj
 0002:000085c4       ??_C@_0L@KEGHFOHA@CustomRule@ 100465c4     ServerInfoManager.obj
 0002:000085d4       ??_C@_0P@NECLNLN@ServiceMachine@ 100465d4     ServerInfoManager.obj
 0002:000085e8       ??_C@_0N@KBPJFFJC@PersonalRule@ 100465e8     ServerInfoManager.obj
 0002:000085f8       ??_C@_0CB@MMPODBFJ@GSP_GS_LoadPersonalRoomParamete@ 100465f8     ServerInfoManager.obj
 0002:00008620       ??_C@_0BM@CMLNFFIM@TimeNotBeginAfterCreateRoom@ 10046620     ServerInfoManager.obj
 0002:00008644       ??_C@_09DFDKDCCP@?$EAdwKindID@ 10046644     ServerInfoManager.obj
 0002:00008650       ??_C@_0BP@BLHAELOH@GSP_MB_GetPersonalFeeParameter@ 10046650     ServerInfoManager.obj
 0002:00008678       ??_C@_0P@MBIIKCNO@DrawCountLimit@ 10046678     ServerInfoManager.obj
 0002:0000868c       ??_C@_08PACNKABG@TableFee@ 1004668c     ServerInfoManager.obj
 0002:00008698       ??_C@_08MJHOBIFI@AAPayFee@ 10046698     ServerInfoManager.obj
 0002:000086a4       ??_C@_08MILKFGPP@IniScore@ 100466a4     ServerInfoManager.obj
 0002:000086b0       ??_C@_08JJGOBBMF@GameMode@ 100466b0     ServerInfoManager.obj
 0002:000086bc       ??_C@_0O@PHLNKDAD@?$EAcbIsJoinGame@ 100466bc     ServerInfoManager.obj
 0002:000086cc       ??_C@_0N@BGGBCKEJ@?$EAcbMinPeople@ 100466cc     ServerInfoManager.obj
 0002:000086dc       ??_C@_0N@BHGNLAPN@?$EAcbMaxPeople@ 100466dc     ServerInfoManager.obj
 0002:000086ec       ??_C@_0BC@LFDMHEEC@?$EAlPersonalRoomTax@ 100466ec     ServerInfoManager.obj
 0002:00008704       ??_C@_0P@JJFBKDAF@?$EAlMaxCellScore@ 10046704     ServerInfoManager.obj
 0002:00008718       ??_C@_0BB@NMCMDDIO@?$EAwCanCreateCount@ 10046718     ServerInfoManager.obj
 0002:0000872c       ??_C@_0BA@NNNPOABK@?$EAwPlayTurnCount@ 1004672c     ServerInfoManager.obj
 0002:00008740       ??_C@_0BA@NOEDAIIC@?$EAwPlayTimeLimit@ 10046740     ServerInfoManager.obj
 0002:00008754       ??_C@_0BG@PLKJOLIC@?$EAwTimeAfterBeginCount@ 10046754     ServerInfoManager.obj
 0002:00008770       ??_C@_0BD@GBNNIIBP@?$EAwTimeOffLineCount@ 10046770     ServerInfoManager.obj
 0002:00008788       ??_C@_0BD@DDANILFF@?$EAwTimeNotBeginGame@ 10046788     ServerInfoManager.obj
 0002:000087a0       ??_C@_0BO@GAPHEMLN@?$EAwTimeNotBeginAfterCreateRoom@ 100467a0     ServerInfoManager.obj
 0002:000087c4       ??_C@_0P@GODHDPFL@?$EAcbCreateRight@ 100467c4     ServerInfoManager.obj
 0002:000087d8       ??_C@_0BA@LKGDNDNG@?$EAwBeginFreeTime@ 100467d8     ServerInfoManager.obj
 0002:000087ec       ??_C@_0O@MLGGNFBJ@?$EAwEndFreeTime@ 100467ec     ServerInfoManager.obj
 0002:000087fc       ??_C@_0CD@MBGOMFKI@GSP_GS_InsertPersonalRoomParame@ 100467fc     ServerInfoManager.obj
 0002:00008828       ??_C@_0CC@PJKIIGNE@GSP_GS_DeletePersonalFeeParamet@ 10046828     ServerInfoManager.obj
 0002:00008850       ??_C@_0BA@NEJOBMJG@?$EADrawCountLimit@ 10046850     ServerInfoManager.obj
 0002:00008864       ??_C@_0P@PPHKCKBK@?$EADrawTimeLimit@ 10046864     ServerInfoManager.obj
 0002:00008878       ??_C@_09GLBENLGO@?$EATableFee@ 10046878     ServerInfoManager.obj
 0002:00008884       ??_C@_09FCEHGDCA@?$EAAAPayFee@ 10046884     ServerInfoManager.obj
 0002:00008890       ??_C@_09FDIDCNIH@?$EAIniScore@ 10046890     ServerInfoManager.obj
 0002:0000889c       ??_C@_0M@CIPFFAIA@?$EAcbGameMode@ 1004689c     ServerInfoManager.obj
 0002:000088ac       ??_C@_0CB@BGEDMOGM@GSP_GS_WritePersonalFeeParamete@ 100468ac     ServerInfoManager.obj
 0002:000088d4       ??_C@_0BB@LABICMHO@?$LC?e?H?k?S?N?O?$LH?$LH?Q?S?C?$LD?v?$LE?m@ 100468d4     ServerInfoManager.obj
 0002:000088e8       ??_C@_0BP@BNMLDPEJ@GSP_GR_DeletePersonalCellScore@ 100468e8     ServerInfoManager.obj
 0002:00008910       ??_C@_0BP@GEFHPGBC@GSP_GR_InsertPersonalCellScore@ 10046910     ServerInfoManager.obj
 0002:00008938       ??_C@_0BB@HEGDPGKB@?$LC?e?H?k?S?N?O?$LH?$LF?W?$LH?V?$LD?v?$LE?m@ 10046938     ServerInfoManager.obj
 0002:0000894c       ??_C@_0M@EODDKFON@?$EAdwServerID@ 1004694c     ServerInfoManager.obj
 0002:0000895c       ??_C@_0CD@IBOJDKIM@GSP_GS_ModifyPersonalRoomParame@ 1004695c     ServerInfoManager.obj
 0002:00008a74       ??_7CServerListControl@@6B@ 10046a74     ServerListControl.obj
 0002:00008c3c       ??_C@_08PAFDLMMP@?$LH?$LP?$LM?d?C?$PL?W?V@ 10046c3c     ServerListControl.obj
 0002:00008c48       ??_C@_08JPBPGOPI@?D?$KD?$LP?i?C?$PL?W?V@ 10046c48     ServerListControl.obj
 0002:00008c54       ??_C@_08JMJCMLJO@?$LH?$LP?$LM?d?$MA?$OA?P?M@ 10046c54     ServerListControl.obj
 0002:00008c60       ??_C@_08MLKKGBDH@?W?$MA?W?S?J?$PN?D?$LP@ 10046c60     ServerListControl.obj
 0002:00008c6c       ??_C@_08BNNJACIK@?$LM?$OA?L?$PN?$LG?K?$LP?Z@ 10046c6c     ServerListControl.obj
 0002:00008c78       ??_C@_08OKOHGEBO@?$LH?$LP?$LM?d?$LB?j?J?$LG@ 10046c78     ServerListControl.obj
 0002:00008c84       ??_C@_08JOJGFJAH@?$MA?$OA?P?M?$LB?j?J?$LG@ 10046c84     ServerListControl.obj
 0002:00008c90       ??_C@_08GPFPDFDE@?$LN?Z?$LF?c?$LB?j?J?$LG@ 10046c90     ServerListControl.obj
 0002:00008c9c       ??_C@_08JALLMFAC@?E?E?P?r?$LB?j?J?$LG@ 10046c9c     ServerListControl.obj
 0002:00008ca8       ??_C@_0L@LLIEKHCD@?J?$PN?$LO?$NN?$LP?b?$LF?X?V?$LH@ 10046ca8     ServerListControl.obj
 0002:00008cb8       ??_C@_0EO@MJCBAFBE@g?3?2?M?x?$LK?$PM?2happygamewh?2?$LH?$PO?N?q?$LG?K?2?O?$LF?M?$LD@ 10046cb8     ServerListControl.obj
 0002:00008d18       ??_C@_08FKKLAPEG@?$LL?$PN?$LH?V?$MA?$OA?P?M@ 10046d18     ServerListControl.obj
 0002:00008d24       ??_C@_08CFIOOEMK@?Q?$LF?A?$LH?$MA?$OA?P?M@ 10046d24     ServerListControl.obj
 0002:00008d30       ??_C@_08IHGMNKPB@?N?$LE?V?$KK?$MA?$OA?P?M@ 10046d30     ServerListControl.obj
 0002:00008d3c       ??_C@_01JOAMLHOP@?9@       10046d3c     ServerListControl.obj
 0002:00008d40       __pAtlLcidToLocaleNameTable 10046d40     Stdafx.obj
 0002:000095cc       ??_C@_15EMKDOKLE@?$AAa?$AAr@ 100475cc     Stdafx.obj
 0002:000095d4       ??_C@_15KNPADPLH@?$AAb?$AAg@ 100475d4     Stdafx.obj
 0002:000095dc       ??_C@_15EDMHLDMO@?$AAc?$AAa@ 100475dc     Stdafx.obj
 0002:000095e4       ??_C@_1O@BPEAJADD@?$AAz?$AAh?$AA?9?$AAC?$AAH?$AAS@ 100475e4     Stdafx.obj
 0002:000095f4       ??_C@_15LJNHCMNK@?$AAc?$AAs@ 100475f4     Stdafx.obj
 0002:000095fc       ??_C@_15FOMCIDHG@?$AAd?$AAa@ 100475fc     Stdafx.obj
 0002:00009604       ??_C@_15NBKABECB@?$AAd?$AAe@ 10047604     Stdafx.obj
 0002:0000960c       ??_C@_15GHPEIIAO@?$AAe?$AAl@ 1004760c     Stdafx.obj
 0002:00009614       ??_C@_15MNPNEAIF@?$AAe?$AAn@ 10047614     Stdafx.obj
 0002:0000961c       ??_C@_15GPIOMPMH@?$AAe?$AAs@ 1004761c     Stdafx.obj
 0002:00009624       ??_C@_15NGLOAKJC@?$AAf?$AAi@ 10047624     Stdafx.obj
 0002:0000962c       ??_C@_15FBKGNKAM@?$AAf?$AAr@ 1004762c     Stdafx.obj
 0002:00009634       ??_C@_15KGGCNEFK@?$AAh?$AAe@ 10047634     Stdafx.obj
 0002:0000963c       ??_C@_15PGHLIDMF@?$AAh?$AAu@ 1004763c     Stdafx.obj
 0002:00009644       ??_C@_15BIEMAPLM@?$AAi?$AAs@ 10047644     Stdafx.obj
 0002:0000964c       ??_C@_15IFJLDHAF@?$AAi?$AAt@ 1004764c     Stdafx.obj
 0002:00009654       ??_C@_15GEMIOCAG@?$AAj?$AAa@ 10047654     Stdafx.obj
 0002:0000965c       ??_C@_15EPELEGJA@?$AAk?$AAo@ 1004765c     Stdafx.obj
 0002:00009664       ??_C@_15NDDHIMN@?$AAn?$AAl@ 10047664     Stdafx.obj
 0002:0000966c       ??_C@_15BPIGNHCD@?$AAn?$AAo@ 1004766c     Stdafx.obj
 0002:00009674       ??_C@_15DEOPBLCG@?$AAp?$AAl@ 10047674     Stdafx.obj
 0002:0000967c       ??_C@_15KBECGEFG@?$AAp?$AAt@ 1004767c     Stdafx.obj
 0002:00009684       ??_C@_15GLJCBFMD@?$AAr?$AAo@ 10047684     Stdafx.obj
 0002:0000968c       ??_C@_15FEDGKCDI@?$AAr?$AAu@ 1004768c     Stdafx.obj
 0002:00009694       ??_C@_15GLKMLLHM@?$AAh?$AAr@ 10047694     Stdafx.obj
 0002:0000969c       ??_C@_15CPKMFBDB@?$AAs?$AAk@ 1004769c     Stdafx.obj
 0002:000096a4       ??_C@_15BAAIOGMK@?$AAs?$AAq@ 100476a4     Stdafx.obj
 0002:000096ac       ??_C@_15INNPNOHD@?$AAs?$AAv@ 100476ac     Stdafx.obj
 0002:000096b4       ??_C@_15CABMMOGH@?$AAt?$AAh@ 100476b4     Stdafx.obj
 0002:000096bc       ??_C@_15BPLIHJJM@?$AAt?$AAr@ 100476bc     Stdafx.obj
 0002:000096c4       ??_C@_15NEOEKKDJ@?$AAu?$AAr@ 100476c4     Stdafx.obj
 0002:000096cc       ??_C@_15NFICGAJK@?$AAi?$AAd@ 100476cc     Stdafx.obj
 0002:000096d4       ??_C@_15PJPFLCCM@?$AAu?$AAk@ 100476d4     Stdafx.obj
 0002:000096dc       ??_C@_15HPJPHDM@?$AAb?$AAe@ 100476dc     Stdafx.obj
 0002:000096e4       ??_C@_15LCHLGJII@?$AAs?$AAl@ 100476e4     Stdafx.obj
 0002:000096ec       ??_C@_15PCFJPHHO@?$AAe?$AAt@ 100476ec     Stdafx.obj
 0002:000096f4       ??_C@_15HPFPGODN@?$AAl?$AAv@ 100476f4     Stdafx.obj
 0002:000096fc       ??_C@_15NFFGKGLG@?$AAl?$AAt@ 100476fc     Stdafx.obj
 0002:00009704       ??_C@_15BDAKCCHN@?$AAf?$AAa@ 10047704     Stdafx.obj
 0002:0000970c       ??_C@_15NFGIAIAJ@?$AAv?$AAi@ 1004770c     Stdafx.obj
 0002:00009714       ??_C@_15LMKNDMHN@?$AAh?$AAy@ 10047714     Stdafx.obj
 0002:0000971c       ??_C@_15IJBHMCFL@?$AAa?$AAz@ 1004771c     Stdafx.obj
 0002:00009724       ??_C@_15EKOFJABL@?$AAe?$AAu@ 10047724     Stdafx.obj
 0002:0000972c       ??_C@_15BGHADCNK@?$AAm?$AAk@ 1004772c     Stdafx.obj
 0002:00009734       ??_C@_15JDNICKHM@?$AAa?$AAf@ 10047734     Stdafx.obj
 0002:0000973c       ??_C@_15KPJEDBKD@?$AAk?$AAa@ 1004773c     Stdafx.obj
 0002:00009744       ??_C@_15PDNFFFEO@?$AAf?$AAo@ 10047744     Stdafx.obj
 0002:0000974c       ??_C@_15OMLEGLOC@?$AAh?$AAi@ 1004774c     Stdafx.obj
 0002:00009754       ??_C@_15IDNNENKK@?$AAm?$AAs@ 10047754     Stdafx.obj
 0002:0000975c       ??_C@_15MACJNBMH@?$AAk?$AAk@ 1004775c     Stdafx.obj
 0002:00009764       ??_C@_15DKDJEOND@?$AAk?$AAy@ 10047764     Stdafx.obj
 0002:0000976c       ??_C@_15DFGDLJBG@?$AAs?$AAw@ 1004776c     Stdafx.obj
 0002:00009774       ??_C@_15BBFAICNG@?$AAu?$AAz@ 10047774     Stdafx.obj
 0002:0000977c       ??_C@_15DKNDCGEA@?$AAt?$AAt@ 1004777c     Stdafx.obj
 0002:00009784       ??_C@_15MGIFMDPL@?$AAp?$AAa@ 10047784     Stdafx.obj
 0002:0000978c       ??_C@_15HCNDBBA@?$AAg?$AAu@ 1004778c     Stdafx.obj
 0002:00009794       ??_C@_15FNBEIBON@?$AAt?$AAa@ 10047794     Stdafx.obj
 0002:0000979c       ??_C@_15NCHGBGLK@?$AAt?$AAe@ 1004779c     Stdafx.obj
 0002:000097a4       ??_C@_15PHPHCBPF@?$AAk?$AAn@ 100477a4     Stdafx.obj
 0002:000097ac       ??_C@_15DLGBCKMP@?$AAm?$AAr@ 100477ac     Stdafx.obj
 0002:000097b4       ??_C@_15EABBLBFF@?$AAs?$AAa@ 100477b4     Stdafx.obj
 0002:000097bc       ??_C@_15CBKOMCOI@?$AAm?$AAn@ 100477bc     Stdafx.obj
 0002:000097c4       ??_C@_15CKDMCJAF@?$AAg?$AAl@ 100477c4     Stdafx.obj
 0002:000097cc       ??_C@_17CNJFBPG@?$AAk?$AAo?$AAk@ 100477cc     Stdafx.obj
 0002:000097d8       ??_C@_17FFBJICPL@?$AAs?$AAy?$AAr@ 100477d8     Stdafx.obj
 0002:000097e4       ??_C@_17KPNDCPAF@?$AAd?$AAi?$AAv@ 100477e4     Stdafx.obj
 0002:000097f0       ??_C@_11LOCGONAA@@         100477f0     Stdafx.obj
 0002:000097f4       ??_C@_1M@OKAHONE@?$AAa?$AAr?$AA?9?$AAS?$AAA@ 100477f4     Stdafx.obj
 0002:00009804       ??_C@_1M@FFFIGIGK@?$AAb?$AAg?$AA?9?$AAB?$AAG@ 10047804     Stdafx.obj
 0002:00009814       ??_C@_1M@BJNKEDC@?$AAc?$AAa?$AA?9?$AAE?$AAS@ 10047814     Stdafx.obj
 0002:00009824       ??_C@_1M@CLNBBOPM@?$AAz?$AAh?$AA?9?$AAT?$AAW@ 10047824     Stdafx.obj
 0002:00009834       ??_C@_1M@IJJHFJHA@?$AAc?$AAs?$AA?9?$AAC?$AAZ@ 10047834     Stdafx.obj
 0002:00009844       ??_C@_1M@CLPEOBGI@?$AAd?$AAa?$AA?9?$AAD?$AAK@ 10047844     Stdafx.obj
 0002:00009854       ??_C@_1M@MCMADGCB@?$AAd?$AAe?$AA?9?$AAD?$AAE@ 10047854     Stdafx.obj
 0002:00009864       ??_C@_1M@OOCKEMAM@?$AAe?$AAl?$AA?9?$AAG?$AAR@ 10047864     Stdafx.obj
 0002:00009874       ??_C@_1M@BMHNFIME@?$AAe?$AAn?$AA?9?$AAU?$AAS@ 10047874     Stdafx.obj
 0002:00009884       ??_C@_1M@DDNJFGID@?$AAf?$AAi?$AA?9?$AAF?$AAI@ 10047884     Stdafx.obj
 0002:00009894       ??_C@_1M@GLIPPMAC@?$AAf?$AAr?$AA?9?$AAF?$AAR@ 10047894     Stdafx.obj
 0002:000098a4       ??_C@_1M@GFMCHPE@?$AAh?$AAe?$AA?9?$AAI?$AAL@ 100478a4     Stdafx.obj
 0002:000098b4       ??_C@_1M@MHLPGNKM@?$AAh?$AAu?$AA?9?$AAH?$AAU@ 100478b4     Stdafx.obj
 0002:000098c4       ??_C@_1M@LPDDNNPN@?$AAi?$AAs?$AA?9?$AAI?$AAS@ 100478c4     Stdafx.obj
 0002:000098d4       ??_C@_1M@MADIPODN@?$AAi?$AAt?$AA?9?$AAI?$AAT@ 100478d4     Stdafx.obj
 0002:000098e4       ??_C@_1M@HPNHIDJI@?$AAj?$AAa?$AA?9?$AAJ?$AAP@ 100478e4     Stdafx.obj
 0002:000098f4       ??_C@_1M@JLOOOEGK@?$AAk?$AAo?$AA?9?$AAK?$AAR@ 100478f4     Stdafx.obj
 0002:00009904       ??_C@_1M@IHBJJGG@?$AAn?$AAl?$AA?9?$AAN?$AAL@ 10047904     Stdafx.obj
 0002:00009914       ??_C@_1M@EANAGDL@?$AAn?$AAb?$AA?9?$AAN?$AAO@ 10047914     Stdafx.obj
 0002:00009924       ??_C@_1M@NEIEMEGP@?$AAp?$AAl?$AA?9?$AAP?$AAL@ 10047924     Stdafx.obj
 0002:00009934       ??_C@_1M@BOCFIGEP@?$AAp?$AAt?$AA?9?$AAB?$AAR@ 10047934     Stdafx.obj
 0002:00009944       ??_C@_1M@IMPFOPBG@?$AAr?$AAo?$AA?9?$AAR?$AAO@ 10047944     Stdafx.obj
 0002:00009954       ??_C@_1M@IDNNEJMM@?$AAr?$AAu?$AA?9?$AAR?$AAU@ 10047954     Stdafx.obj
 0002:00009964       ??_C@_1M@LILEEOGM@?$AAh?$AAr?$AA?9?$AAH?$AAR@ 10047964     Stdafx.obj
 0002:00009974       ??_C@_1M@FKIFEHPB@?$AAs?$AAk?$AA?9?$AAS?$AAK@ 10047974     Stdafx.obj
 0002:00009984       ??_C@_1M@LJMAMNPJ@?$AAs?$AAq?$AA?9?$AAA?$AAL@ 10047984     Stdafx.obj
 0002:00009994       ??_C@_1M@GIAKDKJK@?$AAs?$AAv?$AA?9?$AAS?$AAE@ 10047994     Stdafx.obj
 0002:000099a4       ??_C@_1M@MKJKIKCL@?$AAt?$AAh?$AA?9?$AAT?$AAH@ 100479a4     Stdafx.obj
 0002:000099b4       ??_C@_1M@MFLCCMPB@?$AAt?$AAr?$AA?9?$AAT?$AAR@ 100479b4     Stdafx.obj
 0002:000099c4       ??_C@_1M@OIJHDKJN@?$AAu?$AAr?$AA?9?$AAP?$AAK@ 100479c4     Stdafx.obj
 0002:000099d4       ??_C@_1M@LHIPCIEK@?$AAi?$AAd?$AA?9?$AAI?$AAD@ 100479d4     Stdafx.obj
 0002:000099e4       ??_C@_1M@MFMOBGI@?$AAu?$AAk?$AA?9?$AAU?$AAA@ 100479e4     Stdafx.obj
 0002:000099f4       ??_C@_1M@OBGLJIPL@?$AAb?$AAe?$AA?9?$AAB?$AAY@ 100479f4     Stdafx.obj
 0002:00009a04       ??_C@_1M@BCFAJEAD@?$AAs?$AAl?$AA?9?$AAS?$AAI@ 10047a04     Stdafx.obj
 0002:00009a14       ??_C@_1M@FKFFEDDN@?$AAe?$AAt?$AA?9?$AAE?$AAE@ 10047a14     Stdafx.obj
 0002:00009a24       ??_C@_1M@KGKKAACI@?$AAl?$AAv?$AA?9?$AAL?$AAV@ 10047a24     Stdafx.obj
 0002:00009a34       ??_C@_1M@IFGBIJO@?$AAl?$AAt?$AA?9?$AAL?$AAT@ 10047a34     Stdafx.obj
 0002:00009a44       ??_C@_1M@FGEAHEDM@?$AAf?$AAa?$AA?9?$AAI?$AAR@ 10047a44     Stdafx.obj
 0002:00009a54       ??_C@_1M@KBMAIBFN@?$AAv?$AAi?$AA?9?$AAV?$AAN@ 10047a54     Stdafx.obj
 0002:00009a64       ??_C@_1M@GPCBKDJK@?$AAh?$AAy?$AA?9?$AAA?$AAM@ 10047a64     Stdafx.obj
 0002:00009a74       ??_C@_1BG@BECMDDJB@?$AAa?$AAz?$AA?9?$AAA?$AAZ?$AA?9?$AAL?$AAa?$AAt?$AAn@ 10047a74     Stdafx.obj
 0002:00009a90       ??_C@_1M@MAOFCAEA@?$AAe?$AAu?$AA?9?$AAE?$AAS@ 10047a90     Stdafx.obj
 0002:00009aa0       ??_C@_1M@IGHABKPI@?$AAm?$AAk?$AA?9?$AAM?$AAK@ 10047aa0     Stdafx.obj
 0002:00009ab0       ??_C@_1M@IAIGNEJG@?$AAt?$AAn?$AA?9?$AAZ?$AAA@ 10047ab0     Stdafx.obj
 0002:00009ac0       ??_C@_1M@IIJCOJFA@?$AAx?$AAh?$AA?9?$AAZ?$AAA@ 10047ac0     Stdafx.obj
 0002:00009ad0       ??_C@_1M@LGPJHNJH@?$AAz?$AAu?$AA?9?$AAZ?$AAA@ 10047ad0     Stdafx.obj
 0002:00009ae0       ??_C@_1M@HOKAOIO@?$AAa?$AAf?$AA?9?$AAZ?$AAA@ 10047ae0     Stdafx.obj
 0002:00009af0       ??_C@_1M@DPCLHLIE@?$AAk?$AAa?$AA?9?$AAG?$AAE@ 10047af0     Stdafx.obj
 0002:00009b00       ??_C@_1M@BLKMHJBI@?$AAf?$AAo?$AA?9?$AAF?$AAO@ 10047b00     Stdafx.obj
 0002:00009b10       ??_C@_1M@LGGJAPPB@?$AAh?$AAi?$AA?9?$AAI?$AAN@ 10047b10     Stdafx.obj
 0002:00009b20       ??_C@_1M@FIKPIHFE@?$AAm?$AAt?$AA?9?$AAM?$AAT@ 10047b20     Stdafx.obj
 0002:00009b30       ??_C@_1M@HEGGPBFA@?$AAs?$AAe?$AA?9?$AAN?$AAO@ 10047b30     Stdafx.obj
 0002:00009b40       ??_C@_1M@EIBJEEPA@?$AAm?$AAs?$AA?9?$AAM?$AAY@ 10047b40     Stdafx.obj
 0002:00009b50       ??_C@_1M@FHLBGMPP@?$AAk?$AAk?$AA?9?$AAK?$AAZ@ 10047b50     Stdafx.obj
 0002:00009b60       ??_C@_1M@NGJJLCGI@?$AAk?$AAy?$AA?9?$AAK?$AAG@ 10047b60     Stdafx.obj
 0002:00009b70       ??_C@_1M@GIENNBFC@?$AAs?$AAw?$AA?9?$AAK?$AAE@ 10047b70     Stdafx.obj
 0002:00009b80       ??_C@_1BG@NDGMJIMJ@?$AAu?$AAz?$AA?9?$AAU?$AAZ?$AA?9?$AAL?$AAa?$AAt?$AAn@ 10047b80     Stdafx.obj
 0002:00009b9c       ??_C@_1M@IDCCIHBC@?$AAt?$AAt?$AA?9?$AAR?$AAU@ 10047b9c     Stdafx.obj
 0002:00009bac       ??_C@_1M@LOICPMOJ@?$AAb?$AAn?$AA?9?$AAI?$AAN@ 10047bac     Stdafx.obj
 0002:00009bbc       ??_C@_1M@KPKKNEAH@?$AAp?$AAa?$AA?9?$AAI?$AAN@ 10047bbc     Stdafx.obj
 0002:00009bcc       ??_C@_1M@PJGPPBOG@?$AAg?$AAu?$AA?9?$AAI?$AAN@ 10047bcc     Stdafx.obj
 0002:00009bdc       ??_C@_1M@KMKMOPHI@?$AAt?$AAa?$AA?9?$AAI?$AAN@ 10047bdc     Stdafx.obj
 0002:00009bec       ??_C@_1M@KFEHEPAC@?$AAt?$AAe?$AA?9?$AAI?$AAN@ 10047bec     Stdafx.obj
 0002:00009bfc       ??_C@_1M@CDCLMGHI@?$AAk?$AAn?$AA?9?$AAI?$AAN@ 10047bfc     Stdafx.obj
 0002:00009c0c       ??_C@_1M@MIODLDKF@?$AAm?$AAl?$AA?9?$AAI?$AAN@ 10047c0c     Stdafx.obj
 0002:00009c1c       ??_C@_1M@PBIEACPO@?$AAm?$AAr?$AA?9?$AAI?$AAN@ 10047c1c     Stdafx.obj
 0002:00009c2c       ??_C@_1M@NIDEAGPH@?$AAs?$AAa?$AA?9?$AAI?$AAN@ 10047c2c     Stdafx.obj
 0002:00009c3c       ??_C@_1M@FHIHCBIO@?$AAm?$AAn?$AA?9?$AAM?$AAN@ 10047c3c     Stdafx.obj
 0002:00009c4c       ??_C@_1M@JAIJPENP@?$AAc?$AAy?$AA?9?$AAG?$AAB@ 10047c4c     Stdafx.obj
 0002:00009c5c       ??_C@_1M@PHGFBEPN@?$AAg?$AAl?$AA?9?$AAE?$AAS@ 10047c5c     Stdafx.obj
 0002:00009c6c       ??_C@_1O@KPIPDNCP@?$AAk?$AAo?$AAk?$AA?9?$AAI?$AAN@ 10047c6c     Stdafx.obj
 0002:00009c7c       ??_C@_1O@KNHJLDJA@?$AAs?$AAy?$AAr?$AA?9?$AAS?$AAY@ 10047c7c     Stdafx.obj
 0002:00009c8c       ??_C@_1O@MKEKBLAH@?$AAd?$AAi?$AAv?$AA?9?$AAM?$AAV@ 10047c8c     Stdafx.obj
 0002:00009c9c       ??_C@_1O@OHDCKDDF@?$AAq?$AAu?$AAz?$AA?9?$AAB?$AAO@ 10047c9c     Stdafx.obj
 0002:00009cac       ??_C@_1M@LEPJNLFD@?$AAn?$AAs?$AA?9?$AAZ?$AAA@ 10047cac     Stdafx.obj
 0002:00009cbc       ??_C@_1M@OMLEIIJB@?$AAm?$AAi?$AA?9?$AAN?$AAZ@ 10047cbc     Stdafx.obj
 0002:00009ccc       ??_C@_1M@PMPEAILG@?$AAa?$AAr?$AA?9?$AAI?$AAQ@ 10047ccc     Stdafx.obj
 0002:00009cdc       ??_C@_1M@BIBDDEMK@?$AAz?$AAh?$AA?9?$AAC?$AAN@ 10047cdc     Stdafx.obj
 0002:00009cec       ??_C@_1M@CNKPNOEE@?$AAd?$AAe?$AA?9?$AAC?$AAH@ 10047cec     Stdafx.obj
 0002:00009cfc       ??_C@_1M@LKMGMLKO@?$AAe?$AAn?$AA?9?$AAG?$AAB@ 10047cfc     Stdafx.obj
 0002:00009d0c       ??_C@_1M@PGKJFFGL@?$AAe?$AAs?$AA?9?$AAM?$AAX@ 10047d0c     Stdafx.obj
 0002:00009d1c       ??_C@_1M@DNNANBDC@?$AAf?$AAr?$AA?9?$AAB?$AAE@ 10047d1c     Stdafx.obj
 0002:00009d2c       ??_C@_1M@HLGMDFHM@?$AAi?$AAt?$AA?9?$AAC?$AAH@ 10047d2c     Stdafx.obj
 0002:00009d3c       ??_C@_1M@CLLBGJH@?$AAn?$AAl?$AA?9?$AAB?$AAE@ 10047d3c     Stdafx.obj
 0002:00009d4c       ??_C@_1M@BODBOGLF@?$AAn?$AAn?$AA?9?$AAN?$AAO@ 10047d4c     Stdafx.obj
 0002:00009d5c       ??_C@_1M@HFFAHKAD@?$AAp?$AAt?$AA?9?$AAP?$AAT@ 10047d5c     Stdafx.obj
 0002:00009d6c       ??_C@_1BG@LNOAKHIE@?$AAs?$AAr?$AA?9?$AAS?$AAP?$AA?9?$AAL?$AAa?$AAt?$AAn@ 10047d6c     Stdafx.obj
 0002:00009d88       ??_C@_1M@HBMHBGAK@?$AAs?$AAv?$AA?9?$AAF?$AAI@ 10047d88     Stdafx.obj
 0002:00009d98       ??_C@_1BG@DGCJGJBE@?$AAa?$AAz?$AA?9?$AAA?$AAZ?$AA?9?$AAC?$AAy?$AAr?$AAl@ 10047d98     Stdafx.obj
 0002:00009db4       ??_C@_1M@KEJDAAHB@?$AAs?$AAe?$AA?9?$AAS?$AAE@ 10047db4     Stdafx.obj
 0002:00009dc4       ??_C@_1M@HEIBJJAD@?$AAm?$AAs?$AA?9?$AAB?$AAN@ 10047dc4     Stdafx.obj
 0002:00009dd4       ??_C@_1BG@PBGJMCEM@?$AAu?$AAz?$AA?9?$AAU?$AAZ?$AA?9?$AAC?$AAy?$AAr?$AAl@ 10047dd4     Stdafx.obj
 0002:00009df0       ??_C@_1O@LAOBCMDF@?$AAq?$AAu?$AAz?$AA?9?$AAE?$AAC@ 10047df0     Stdafx.obj
 0002:00009e00       ??_C@_1M@POEEMAIO@?$AAa?$AAr?$AA?9?$AAE?$AAG@ 10047e00     Stdafx.obj
 0002:00009e10       ??_C@_1M@EFAKDEDL@?$AAz?$AAh?$AA?9?$AAH?$AAK@ 10047e10     Stdafx.obj
 0002:00009e20       ??_C@_1M@HKKIJHGI@?$AAd?$AAe?$AA?9?$AAA?$AAT@ 10047e20     Stdafx.obj
 0002:00009e30       ??_C@_1M@KBFBEHJF@?$AAe?$AAn?$AA?9?$AAA?$AAU@ 10047e30     Stdafx.obj
 0002:00009e40       ??_C@_1M@MNPLFAAH@?$AAe?$AAs?$AA?9?$AAE?$AAS@ 10047e40     Stdafx.obj
 0002:00009e50       ??_C@_1M@HJOOJFMA@?$AAf?$AAr?$AA?9?$AAC?$AAA@ 10047e50     Stdafx.obj
 0002:00009e60       ??_C@_1BG@JPOFPNAB@?$AAs?$AAr?$AA?9?$AAS?$AAP?$AA?9?$AAC?$AAy?$AAr?$AAl@ 10047e60     Stdafx.obj
 0002:00009e7c       ??_C@_1M@LNFOCMOB@?$AAs?$AAe?$AA?9?$AAF?$AAI@ 10047e7c     Stdafx.obj
 0002:00009e8c       ??_C@_1O@MGJBOAMB@?$AAq?$AAu?$AAz?$AA?9?$AAP?$AAE@ 10047e8c     Stdafx.obj
 0002:00009e9c       ??_C@_1M@GJINLBOK@?$AAa?$AAr?$AA?9?$AAL?$AAY@ 10047e9c     Stdafx.obj
 0002:00009eac       ??_C@_1M@GGMNHJNL@?$AAz?$AAh?$AA?9?$AAS?$AAG@ 10047eac     Stdafx.obj
 0002:00009ebc       ??_C@_1M@HOIKODND@?$AAd?$AAe?$AA?9?$AAL?$AAU@ 10047ebc     Stdafx.obj
 0002:00009ecc       ??_C@_1M@DDOCCGFG@?$AAe?$AAn?$AA?9?$AAC?$AAA@ 10047ecc     Stdafx.obj
 0002:00009edc       ??_C@_1M@BNOEMJLF@?$AAe?$AAs?$AA?9?$AAG?$AAT@ 10047edc     Stdafx.obj
 0002:00009eec       ??_C@_1M@EOGNKEK@?$AAf?$AAr?$AA?9?$AAC?$AAH@ 10047eec     Stdafx.obj
 0002:00009efc       ??_C@_1M@FLIDJFHL@?$AAh?$AAr?$AA?9?$AAB?$AAA@ 10047efc     Stdafx.obj
 0002:00009f0c       ??_C@_1O@FMCELNAJ@?$AAs?$AAm?$AAj?$AA?9?$AAN?$AAO@ 10047f0c     Stdafx.obj
 0002:00009f1c       ??_C@_1M@JHGLJMGJ@?$AAa?$AAr?$AA?9?$AAD?$AAZ@ 10047f1c     Stdafx.obj
 0002:00009f2c       ??_C@_1M@JKKFDCNP@?$AAz?$AAh?$AA?9?$AAM?$AAO@ 10047f2c     Stdafx.obj
 0002:00009f3c       ??_C@_1M@GEEFALPE@?$AAd?$AAe?$AA?9?$AAL?$AAI@ 10047f3c     Stdafx.obj
 0002:00009f4c       ??_C@_1M@IGEOFBG@?$AAe?$AAn?$AA?9?$AAN?$AAZ@ 10047f4c     Stdafx.obj
 0002:00009f5c       ??_C@_1M@KDBONEHP@?$AAe?$AAs?$AA?9?$AAC?$AAR@ 10047f5c     Stdafx.obj
 0002:00009f6c       ??_C@_1M@FHMDOHNN@?$AAf?$AAr?$AA?9?$AAL?$AAU@ 10047f6c     Stdafx.obj
 0002:00009f7c       ??_C@_1BG@NFKKMAFG@?$AAb?$AAs?$AA?9?$AAB?$AAA?$AA?9?$AAL?$AAa?$AAt?$AAn@ 10047f7c     Stdafx.obj
 0002:00009f98       ??_C@_1O@IMNBEMCI@?$AAs?$AAm?$AAj?$AA?9?$AAS?$AAE@ 10047f98     Stdafx.obj
 0002:00009fa8       ??_C@_1M@DHHMBNDP@?$AAa?$AAr?$AA?9?$AAM?$AAA@ 10047fa8     Stdafx.obj
 0002:00009fb8       ??_C@_1M@BNBLJCGH@?$AAe?$AAn?$AA?9?$AAI?$AAE@ 10047fb8     Stdafx.obj
 0002:00009fc8       ??_C@_1M@GEPAFMDL@?$AAe?$AAs?$AA?9?$AAP?$AAA@ 10047fc8     Stdafx.obj
 0002:00009fd8       ??_C@_1M@OJONDMDL@?$AAf?$AAr?$AA?9?$AAM?$AAC@ 10047fd8     Stdafx.obj
 0002:00009fe8       ??_C@_1BG@OBCNFJB@?$AAs?$AAr?$AA?9?$AAB?$AAA?$AA?9?$AAL?$AAa?$AAt?$AAn@ 10047fe8     Stdafx.obj
 0002:0000a004       ??_C@_1O@KEMEEGPO@?$AAs?$AAm?$AAa?$AA?9?$AAN?$AAO@ 10048004     Stdafx.obj
 0002:0000a014       ??_C@_1M@ELMGFODK@?$AAa?$AAr?$AA?9?$AAT?$AAN@ 10048014     Stdafx.obj
 0002:0000a024       ??_C@_1M@BHDLHFAF@?$AAe?$AAn?$AA?9?$AAZ?$AAA@ 10048024     Stdafx.obj
 0002:0000a034       ??_C@_1M@BMGIGLIF@?$AAe?$AAs?$AA?9?$AAD?$AAO@ 10048034     Stdafx.obj
 0002:0000a044       ??_C@_1BG@CMBHIPBE@?$AAs?$AAr?$AA?9?$AAB?$AAA?$AA?9?$AAC?$AAy?$AAr?$AAl@ 10048044     Stdafx.obj
 0002:0000a060       ??_C@_1O@HEDBLHNP@?$AAs?$AAm?$AAa?$AA?9?$AAS?$AAE@ 10048060     Stdafx.obj
 0002:0000a070       ??_C@_1M@DAGCADIM@?$AAa?$AAr?$AA?9?$AAO?$AAM@ 10048070     Stdafx.obj
 0002:0000a080       ??_C@_1M@FODLMICG@?$AAe?$AAn?$AA?9?$AAJ?$AAM@ 10048080     Stdafx.obj
 0002:0000a090       ??_C@_1M@DNMLCIHB@?$AAe?$AAs?$AA?9?$AAV?$AAE@ 10048090     Stdafx.obj
 0002:0000a0a0       ??_C@_1O@EOKHMKJK@?$AAs?$AAm?$AAs?$AA?9?$AAF?$AAI@ 100480a0     Stdafx.obj
 0002:0000a0b0       ??_C@_1M@CAFJMKOF@?$AAa?$AAr?$AA?9?$AAY?$AAE@ 100480b0     Stdafx.obj
 0002:0000a0c0       ??_C@_1M@CBFHIJLI@?$AAe?$AAn?$AA?9?$AAC?$AAB@ 100480c0     Stdafx.obj
 0002:0000a0d0       ??_C@_1M@BGNFLDN@?$AAe?$AAs?$AA?9?$AAC?$AAO@ 100480d0     Stdafx.obj
 0002:0000a0e0       ??_C@_1O@JMPHMAMC@?$AAs?$AAm?$AAn?$AA?9?$AAF?$AAI@ 100480e0     Stdafx.obj
 0002:0000a0f0       ??_C@_1M@JLANABKE@?$AAa?$AAr?$AA?9?$AAS?$AAY@ 100480f0     Stdafx.obj
 0002:0000a100       ??_C@_1M@HPKGCFGN@?$AAe?$AAn?$AA?9?$AAB?$AAZ@ 10048100     Stdafx.obj
 0002:0000a110       ??_C@_1M@OLJCMLGM@?$AAe?$AAs?$AA?9?$AAP?$AAE@ 10048110     Stdafx.obj
 0002:0000a120       ??_C@_1M@MKKGFKLE@?$AAa?$AAr?$AA?9?$AAJ?$AAO@ 10048120     Stdafx.obj
 0002:0000a130       ??_C@_1M@EKPGLDNI@?$AAe?$AAn?$AA?9?$AAT?$AAT@ 10048130     Stdafx.obj
 0002:0000a140       ??_C@_1M@OONGHFHE@?$AAe?$AAs?$AA?9?$AAA?$AAR@ 10048140     Stdafx.obj
 0002:0000a150       ??_C@_1M@OOJFGBHE@?$AAa?$AAr?$AA?9?$AAL?$AAB@ 10048150     Stdafx.obj
 0002:0000a160       ??_C@_1M@GCEJHNEG@?$AAe?$AAn?$AA?9?$AAZ?$AAW@ 10048160     Stdafx.obj
 0002:0000a170       ??_C@_1M@JNOCAHJI@?$AAe?$AAs?$AA?9?$AAE?$AAC@ 10048170     Stdafx.obj
 0002:0000a180       ??_C@_1M@JEFHPGGB@?$AAa?$AAr?$AA?9?$AAK?$AAW@ 10048180     Stdafx.obj
 0002:0000a190       ??_C@_1M@MLKIBJOJ@?$AAe?$AAn?$AA?9?$AAP?$AAH@ 10048190     Stdafx.obj
 0002:0000a1a0       ??_C@_1M@BDNIPEND@?$AAe?$AAs?$AA?9?$AAC?$AAL@ 100481a0     Stdafx.obj
 0002:0000a1b0       ??_C@_1M@MPNMEKBD@?$AAa?$AAr?$AA?9?$AAA?$AAE@ 100481b0     Stdafx.obj
 0002:0000a1c0       ??_C@_1M@KBJALCPI@?$AAe?$AAs?$AA?9?$AAU?$AAY@ 100481c0     Stdafx.obj
 0002:0000a1d0       ??_C@_1M@LLCCOAGA@?$AAa?$AAr?$AA?9?$AAB?$AAH@ 100481d0     Stdafx.obj
 0002:0000a1e0       ??_C@_1M@PBFNCDEL@?$AAe?$AAs?$AA?9?$AAP?$AAY@ 100481e0     Stdafx.obj
 0002:0000a1f0       ??_C@_1M@EDGINPNP@?$AAa?$AAr?$AA?9?$AAQ?$AAA@ 100481f0     Stdafx.obj
 0002:0000a200       ??_C@_1M@MKDBIIJI@?$AAe?$AAs?$AA?9?$AAB?$AAO@ 10048200     Stdafx.obj
 0002:0000a210       ??_C@_1M@CPKKEBLD@?$AAe?$AAs?$AA?9?$AAS?$AAV@ 10048210     Stdafx.obj
 0002:0000a220       ??_C@_1M@NDBGMMJL@?$AAe?$AAs?$AA?9?$AAH?$AAN@ 10048220     Stdafx.obj
 0002:0000a230       ??_C@_1M@JIJIBHDP@?$AAe?$AAs?$AA?9?$AAN?$AAI@ 10048230     Stdafx.obj
 0002:0000a240       ??_C@_1M@CGFMKEEK@?$AAe?$AAs?$AA?9?$AAP?$AAR@ 10048240     Stdafx.obj
 0002:0000a250       ??_C@_1O@ICJHKIIK@?$AAz?$AAh?$AA?9?$AAC?$AAH?$AAT@ 10048250     Stdafx.obj
 0002:0000a260       ??_C@_15CLNEJCE@?$AAs?$AAr@ 10048260     Stdafx.obj
 0002:0000a268       __pAtlLocaleNameToIndexTable 10048268     Stdafx.obj
 0002:0000aaf4       ??_C@_1M@KAHEKEIG@?$AAa?$AAf?$AA?9?$AAz?$AAa@ 10048af4     Stdafx.obj
 0002:0000ab04       ??_C@_1M@GIECOABL@?$AAa?$AAr?$AA?9?$AAa?$AAe@ 10048b04     Stdafx.obj
 0002:0000ab14       ??_C@_1M@BMLMEKGI@?$AAa?$AAr?$AA?9?$AAb?$AAh@ 10048b14     Stdafx.obj
 0002:0000ab24       ??_C@_1M@DAPFDGGB@?$AAa?$AAr?$AA?9?$AAd?$AAz@ 10048b24     Stdafx.obj
 0002:0000ab34       ??_C@_1M@FJNKGKIG@?$AAa?$AAr?$AA?9?$AAe?$AAg@ 10048b34     Stdafx.obj
 0002:0000ab44       ??_C@_1M@FLGKKCLO@?$AAa?$AAr?$AA?9?$AAi?$AAq@ 10048b44     Stdafx.obj
 0002:0000ab54       ??_C@_1M@GNDIPALM@?$AAa?$AAr?$AA?9?$AAj?$AAo@ 10048b54     Stdafx.obj
 0002:0000ab64       ??_C@_1M@DDMJFMGJ@?$AAa?$AAr?$AA?9?$AAk?$AAw@ 10048b64     Stdafx.obj
 0002:0000ab74       ??_C@_1M@EJALMLHM@?$AAa?$AAr?$AA?9?$AAl?$AAb@ 10048b74     Stdafx.obj
 0002:0000ab84       ??_C@_1M@MOBDBLOC@?$AAa?$AAr?$AA?9?$AAl?$AAy@ 10048b84     Stdafx.obj
 0002:0000ab94       ??_C@_1M@JAOCLHDH@?$AAa?$AAr?$AA?9?$AAm?$AAa@ 10048b94     Stdafx.obj
 0002:0000aba4       ??_C@_1M@JHPMKJIE@?$AAa?$AAr?$AA?9?$AAo?$AAm@ 10048ba4     Stdafx.obj
 0002:0000abb4       ??_C@_1M@OEPGHFNH@?$AAa?$AAr?$AA?9?$AAq?$AAa@ 10048bb4     Stdafx.obj
 0002:0000abc4       ??_C@_1M@KJDONENM@?$AAa?$AAr?$AA?9?$AAs?$AAa@ 10048bc4     Stdafx.obj
 0002:0000abd4       ??_C@_1M@DMJDKLKM@?$AAa?$AAr?$AA?9?$AAs?$AAy@ 10048bd4     Stdafx.obj
 0002:0000abe4       ??_C@_1M@OMFIPEDC@?$AAa?$AAr?$AA?9?$AAt?$AAn@ 10048be4     Stdafx.obj
 0002:0000abf4       ??_C@_1M@IHMHGAON@?$AAa?$AAr?$AA?9?$AAy?$AAe@ 10048bf4     Stdafx.obj
 0002:0000ac04       ??_C@_1BG@KDCPGJGB@?$AAa?$AAz?$AA?9?$AAa?$AAz?$AA?9?$AAc?$AAy?$AAr?$AAl@ 10048c04     Stdafx.obj
 0002:0000ac20       ??_C@_1BG@IBCKDDOE@?$AAa?$AAz?$AA?9?$AAa?$AAz?$AA?9?$AAl?$AAa?$AAt?$AAn@ 10048c20     Stdafx.obj
 0002:0000ac3c       ??_C@_1M@EGPFDCPD@?$AAb?$AAe?$AA?9?$AAb?$AAy@ 10048c3c     Stdafx.obj
 0002:0000ac4c       ??_C@_1M@PCMGMCGC@?$AAb?$AAg?$AA?9?$AAb?$AAg@ 10048c4c     Stdafx.obj
 0002:0000ac5c       ??_C@_1M@BJBMFGOB@?$AAb?$AAn?$AA?9?$AAi?$AAn@ 10048c5c     Stdafx.obj
 0002:0000ac6c       ??_C@_1BG@EAKMMACD@?$AAb?$AAs?$AA?9?$AAb?$AAa?$AA?9?$AAl?$AAa?$AAt?$AAn@ 10048c6c     Stdafx.obj
 0002:0000ac88       ??_C@_1M@KGADAODK@?$AAc?$AAa?$AA?9?$AAe?$AAs@ 10048c88     Stdafx.obj
 0002:0000ac98       ??_C@_1M@COAJPDHI@?$AAc?$AAs?$AA?9?$AAc?$AAz@ 10048c98     Stdafx.obj
 0002:0000aca8       ??_C@_1M@DHBHFONH@?$AAc?$AAy?$AA?9?$AAg?$AAb@ 10048ca8     Stdafx.obj
 0002:0000acb8       ??_C@_1M@IMGKELGA@?$AAd?$AAa?$AA?9?$AAd?$AAk@ 10048cb8     Stdafx.obj
 0002:0000acc8       ??_C@_1M@NNDGDNGA@?$AAd?$AAe?$AA?9?$AAa?$AAt@ 10048cc8     Stdafx.obj
 0002:0000acd8       ??_C@_1M@IKDBHEEM@?$AAd?$AAe?$AA?9?$AAc?$AAh@ 10048cd8     Stdafx.obj
 0002:0000ace8       ??_C@_1M@GFFOJMCJ@?$AAd?$AAe?$AA?9?$AAd?$AAe@ 10048ce8     Stdafx.obj
 0002:0000acf8       ??_C@_1M@MDNLKBPM@?$AAd?$AAe?$AA?9?$AAl?$AAi@ 10048cf8     Stdafx.obj
 0002:0000ad08       ??_C@_1M@NJBEEJNL@?$AAd?$AAe?$AA?9?$AAl?$AAu@ 10048d08     Stdafx.obj
 0002:0000ad18       ??_C@_1O@GNNELBAP@?$AAd?$AAi?$AAv?$AA?9?$AAm?$AAv@ 10048d18     Stdafx.obj
 0002:0000ad28       ??_C@_1M@EJLEOGAE@?$AAe?$AAl?$AA?9?$AAg?$AAr@ 10048d28     Stdafx.obj
 0002:0000ad38       ??_C@_1M@GMPONJN@?$AAe?$AAn?$AA?9?$AAa?$AAu@ 10048d38     Stdafx.obj
 0002:0000ad48       ??_C@_1M@NIDIIPGF@?$AAe?$AAn?$AA?9?$AAb?$AAz@ 10048d48     Stdafx.obj
 0002:0000ad58       ??_C@_1M@JEHMIMFO@?$AAe?$AAn?$AA?9?$AAc?$AAa@ 10048d58     Stdafx.obj
 0002:0000ad68       ??_C@_1M@IGMJCDLA@?$AAe?$AAn?$AA?9?$AAc?$AAb@ 10048d68     Stdafx.obj
 0002:0000ad78       ??_C@_1M@BNFIGBKG@?$AAe?$AAn?$AA?9?$AAg?$AAb@ 10048d78     Stdafx.obj
 0002:0000ad88       ??_C@_1M@LKIFDIGP@?$AAe?$AAn?$AA?9?$AAi?$AAe@ 10048d88     Stdafx.obj
 0002:0000ad98       ??_C@_1M@PJKFGCCO@?$AAe?$AAn?$AA?9?$AAj?$AAm@ 10048d98     Stdafx.obj
 0002:0000ada8       ??_C@_1M@KPPKEPBO@?$AAe?$AAn?$AA?9?$AAn?$AAz@ 10048da8     Stdafx.obj
 0002:0000adb8       ??_C@_1M@GMDGLDOB@?$AAe?$AAn?$AA?9?$AAp?$AAh@ 10048db8     Stdafx.obj
 0002:0000adc8       ??_C@_1M@ONGIBJNA@?$AAe?$AAn?$AA?9?$AAt?$AAt@ 10048dc8     Stdafx.obj
 0002:0000add8       ??_C@_1M@LLODPCMM@?$AAe?$AAn?$AA?9?$AAu?$AAs@ 10048dd8     Stdafx.obj
 0002:0000ade8       ??_C@_1M@LAKFNPAN@?$AAe?$AAn?$AA?9?$AAz?$AAa@ 10048de8     Stdafx.obj
 0002:0000adf8       ??_C@_1M@MFNHNHEO@?$AAe?$AAn?$AA?9?$AAz?$AAw@ 10048df8     Stdafx.obj
 0002:0000ae08       ??_C@_1M@EJEINPHM@?$AAe?$AAs?$AA?9?$AAa?$AAr@ 10048e08     Stdafx.obj
 0002:0000ae18       ??_C@_1M@GNKPCCJA@?$AAe?$AAs?$AA?9?$AAb?$AAo@ 10048e18     Stdafx.obj
 0002:0000ae28       ??_C@_1M@LEEGFONL@?$AAe?$AAs?$AA?9?$AAc?$AAl@ 10048e28     Stdafx.obj
 0002:0000ae38       ??_C@_1M@KGPDPBDF@?$AAe?$AAs?$AA?9?$AAc?$AAo@ 10048e38     Stdafx.obj
 0002:0000ae48       ??_C@_1M@EIAHOHH@?$AAe?$AAs?$AA?9?$AAc?$AAr@ 10048e48     Stdafx.obj
 0002:0000ae58       ??_C@_1M@LLPGMBIN@?$AAe?$AAs?$AA?9?$AAd?$AAo@ 10048e58     Stdafx.obj
 0002:0000ae68       ??_C@_1M@DKHMKNJA@?$AAe?$AAs?$AA?9?$AAe?$AAc@ 10048e68     Stdafx.obj
 0002:0000ae78       ??_C@_1M@GKGFPKAP@?$AAe?$AAs?$AA?9?$AAe?$AAs@ 10048e78     Stdafx.obj
 0002:0000ae88       ??_C@_1M@LKHKGDLN@?$AAe?$AAs?$AA?9?$AAg?$AAt@ 10048e88     Stdafx.obj
 0002:0000ae98       ??_C@_1M@HEIIGGJD@?$AAe?$AAs?$AA?9?$AAh?$AAn@ 10048e98     Stdafx.obj
 0002:0000aea8       ??_C@_1M@FBDHPPGD@?$AAe?$AAs?$AA?9?$AAm?$AAx@ 10048ea8     Stdafx.obj
 0002:0000aeb8       ??_C@_1M@DPAGLNDH@?$AAe?$AAs?$AA?9?$AAn?$AAi@ 10048eb8     Stdafx.obj
 0002:0000aec8       ??_C@_1M@MDGOPGDD@?$AAe?$AAs?$AA?9?$AAp?$AAa@ 10048ec8     Stdafx.obj
 0002:0000aed8       ??_C@_1M@EMAMGBGE@?$AAe?$AAs?$AA?9?$AAp?$AAe@ 10048ed8     Stdafx.obj
 0002:0000aee8       ??_C@_1M@IBMCAOEC@?$AAe?$AAs?$AA?9?$AAp?$AAr@ 10048ee8     Stdafx.obj
 0002:0000aef8       ??_C@_1M@FGMDIJED@?$AAe?$AAs?$AA?9?$AAp?$AAy@ 10048ef8     Stdafx.obj
 0002:0000af08       ??_C@_1M@IIDEOLLL@?$AAe?$AAs?$AA?9?$AAs?$AAv@ 10048f08     Stdafx.obj
 0002:0000af18       ??_C@_1M@GAOBIPA@?$AAe?$AAs?$AA?9?$AAu?$AAy@ 10048f18     Stdafx.obj
 0002:0000af28       ??_C@_1M@JKFFICHJ@?$AAe?$AAs?$AA?9?$AAv?$AAe@ 10048f28     Stdafx.obj
 0002:0000af38       ??_C@_1M@PNMLOJDF@?$AAe?$AAt?$AA?9?$AAe?$AAe@ 10048f38     Stdafx.obj
 0002:0000af48       ??_C@_1M@GHHLIKEI@?$AAe?$AAu?$AA?9?$AAe?$AAs@ 10048f48     Stdafx.obj
 0002:0000af58       ??_C@_1M@PBNONODE@?$AAf?$AAa?$AA?9?$AAi?$AAr@ 10048f58     Stdafx.obj
 0002:0000af68       ??_C@_1M@JEEHPMIL@?$AAf?$AAi?$AA?9?$AAf?$AAi@ 10048f68     Stdafx.obj
 0002:0000af78       ??_C@_1M@LMDCNDBA@?$AAf?$AAo?$AA?9?$AAf?$AAo@ 10048f78     Stdafx.obj
 0002:0000af88       ??_C@_1M@JKEOHLDK@?$AAf?$AAr?$AA?9?$AAb?$AAe@ 10048f88     Stdafx.obj
 0002:0000af98       ??_C@_1M@NOHADPMI@?$AAf?$AAr?$AA?9?$AAc?$AAa@ 10048f98     Stdafx.obj
 0002:0000afa8       ??_C@_1M@KDHIHAEC@?$AAf?$AAr?$AA?9?$AAc?$AAh@ 10048fa8     Stdafx.obj
 0002:0000afb8       ??_C@_1M@MMBBFGAK@?$AAf?$AAr?$AA?9?$AAf?$AAr@ 10048fb8     Stdafx.obj
 0002:0000afc8       ??_C@_1M@PAFNENNF@?$AAf?$AAr?$AA?9?$AAl?$AAu@ 10048fc8     Stdafx.obj
 0002:0000afd8       ??_C@_1M@EOHDJGDD@?$AAf?$AAr?$AA?9?$AAm?$AAc@ 10048fd8     Stdafx.obj
 0002:0000afe8       ??_C@_1M@FAPLLOPF@?$AAg?$AAl?$AA?9?$AAe?$AAs@ 10048fe8     Stdafx.obj
 0002:0000aff8       ??_C@_1M@FOPBFLOO@?$AAg?$AAu?$AA?9?$AAi?$AAn@ 10048ff8     Stdafx.obj
 0002:0000b008       ??_C@_1M@KBMCINPM@?$AAh?$AAe?$AA?9?$AAi?$AAl@ 10049008     Stdafx.obj
 0002:0000b018       ??_C@_1M@BBPHKFPJ@?$AAh?$AAi?$AA?9?$AAi?$AAn@ 10049018     Stdafx.obj
 0002:0000b028       ??_C@_1M@PMBNDPHD@?$AAh?$AAr?$AA?9?$AAb?$AAa@ 10049028     Stdafx.obj
 0002:0000b038       ??_C@_1M@BPCKOEGE@?$AAh?$AAr?$AA?9?$AAh?$AAr@ 10049038     Stdafx.obj
 0002:0000b048       ??_C@_1M@GACBMHKE@?$AAh?$AAu?$AA?9?$AAh?$AAu@ 10049048     Stdafx.obj
 0002:0000b058       ??_C@_1M@MILPAJJC@?$AAh?$AAy?$AA?9?$AAa?$AAm@ 10049058     Stdafx.obj
 0002:0000b068       ??_C@_1M@BABBICEC@?$AAi?$AAd?$AA?9?$AAi?$AAd@ 10049068     Stdafx.obj
 0002:0000b078       ??_C@_1M@BIKNHHPF@?$AAi?$AAs?$AA?9?$AAi?$AAs@ 10049078     Stdafx.obj
 0002:0000b088       ??_C@_1M@NMPCJPHE@?$AAi?$AAt?$AA?9?$AAc?$AAh@ 10049088     Stdafx.obj
 0002:0000b098       ??_C@_1M@GHKGFEDF@?$AAi?$AAt?$AA?9?$AAi?$AAt@ 10049098     Stdafx.obj
 0002:0000b0a8       ??_C@_1M@NIEJCJJA@?$AAj?$AAa?$AA?9?$AAj?$AAp@ 100490a8     Stdafx.obj
 0002:0000b0b8       ??_C@_1M@JILFNBIM@?$AAk?$AAa?$AA?9?$AAg?$AAe@ 100490b8     Stdafx.obj
 0002:0000b0c8       ??_C@_1M@PACPMGPH@?$AAk?$AAk?$AA?9?$AAk?$AAz@ 100490c8     Stdafx.obj
 0002:0000b0d8       ??_C@_1M@IELFGMHA@?$AAk?$AAn?$AA?9?$AAi?$AAn@ 100490d8     Stdafx.obj
 0002:0000b0e8       ??_C@_1O@IBBJHCH@?$AAk?$AAo?$AAk?$AA?9?$AAi?$AAn@ 100490e8     Stdafx.obj
 0002:0000b0f8       ??_C@_1M@DMHAEOGC@?$AAk?$AAo?$AA?9?$AAk?$AAr@ 100490f8     Stdafx.obj
 0002:0000b108       ??_C@_1M@HBAHBIGA@?$AAk?$AAy?$AA?9?$AAk?$AAg@ 10049108     Stdafx.obj
 0002:0000b118       ??_C@_1M@KPMILCJG@?$AAl?$AAt?$AA?9?$AAl?$AAt@ 10049118     Stdafx.obj
 0002:0000b128       ??_C@_1M@BDEKKCA@?$AAl?$AAv?$AA?9?$AAl?$AAv@ 10049128     Stdafx.obj
 0002:0000b138       ??_C@_1M@ELCKCCJJ@?$AAm?$AAi?$AA?9?$AAn?$AAz@ 10049138     Stdafx.obj
 0002:0000b148       ??_C@_1M@CBOOLAPA@?$AAm?$AAk?$AA?9?$AAm?$AAk@ 10049148     Stdafx.obj
 0002:0000b158       ??_C@_1M@GPHNBJKN@?$AAm?$AAl?$AA?9?$AAi?$AAn@ 10049158     Stdafx.obj
 0002:0000b168       ??_C@_1M@PABJILIG@?$AAm?$AAn?$AA?9?$AAm?$AAn@ 10049168     Stdafx.obj
 0002:0000b178       ??_C@_1M@FGBKKIPG@?$AAm?$AAr?$AA?9?$AAi?$AAn@ 10049178     Stdafx.obj
 0002:0000b188       ??_C@_1M@NDBPDDAL@?$AAm?$AAs?$AA?9?$AAb?$AAn@ 10049188     Stdafx.obj
 0002:0000b198       ??_C@_1M@OPIHOOPI@?$AAm?$AAs?$AA?9?$AAm?$AAy@ 10049198     Stdafx.obj
 0002:0000b1a8       ??_C@_1M@PPDBCNFM@?$AAm?$AAt?$AA?9?$AAm?$AAt@ 100491a8     Stdafx.obj
 0002:0000b1b8       ??_C@_1M@KDJDKMDD@?$AAn?$AAb?$AA?9?$AAn?$AAo@ 100491b8     Stdafx.obj
 0002:0000b1c8       ??_C@_1M@KFCFLMJP@?$AAn?$AAl?$AA?9?$AAb?$AAe@ 100491c8     Stdafx.obj
 0002:0000b1d8       ??_C@_1M@KPOPDDGO@?$AAn?$AAl?$AA?9?$AAn?$AAl@ 100491d8     Stdafx.obj
 0002:0000b1e8       ??_C@_1M@LJKPEMLN@?$AAn?$AAn?$AA?9?$AAn?$AAo@ 100491e8     Stdafx.obj
 0002:0000b1f8       ??_C@_1M@BDGHHBFL@?$AAn?$AAs?$AA?9?$AAz?$AAa@ 100491f8     Stdafx.obj
 0002:0000b208       ??_C@_1M@IDEHOAP@?$AAp?$AAa?$AA?9?$AAi?$AAn@ 10049208     Stdafx.obj
 0002:0000b218       ??_C@_1M@HDBKGOGH@?$AAp?$AAl?$AA?9?$AAp?$AAl@ 10049218     Stdafx.obj
 0002:0000b228       ??_C@_1M@LJLLCMEH@?$AAp?$AAt?$AA?9?$AAb?$AAr@ 10049228     Stdafx.obj
 0002:0000b238       ??_C@_1M@NCMONAAL@?$AAp?$AAt?$AA?9?$AAp?$AAt@ 10049238     Stdafx.obj
 0002:0000b248       ??_C@_1O@EAKMAJDN@?$AAq?$AAu?$AAz?$AA?9?$AAb?$AAo@ 10049248     Stdafx.obj
 0002:0000b258       ??_C@_1O@BHHPIGDN@?$AAq?$AAu?$AAz?$AA?9?$AAe?$AAc@ 10049258     Stdafx.obj
 0002:0000b268       ??_C@_1O@GBAPEKMJ@?$AAq?$AAu?$AAz?$AA?9?$AAp?$AAe@ 10049268     Stdafx.obj
 0002:0000b278       ??_C@_1M@CLGLEFBO@?$AAr?$AAo?$AA?9?$AAr?$AAo@ 10049278     Stdafx.obj
 0002:0000b288       ??_C@_1M@CEEDODME@?$AAr?$AAu?$AA?9?$AAr?$AAu@ 10049288     Stdafx.obj
 0002:0000b298       ??_C@_1M@HPKKKMPP@?$AAs?$AAa?$AA?9?$AAi?$AAn@ 10049298     Stdafx.obj
 0002:0000b2a8       ??_C@_1M@BKMAIGOJ@?$AAs?$AAe?$AA?9?$AAf?$AAi@ 100492a8     Stdafx.obj
 0002:0000b2b8       ??_C@_1M@NDPIFLFI@?$AAs?$AAe?$AA?9?$AAn?$AAo@ 100492b8     Stdafx.obj
 0002:0000b2c8       ??_C@_1M@DANKKHJ@?$AAs?$AAe?$AA?9?$AAs?$AAe@ 100492c8     Stdafx.obj
 0002:0000b2d8       ??_C@_1M@PNBLONPJ@?$AAs?$AAk?$AA?9?$AAs?$AAk@ 100492d8     Stdafx.obj
 0002:0000b2e8       ??_C@_1M@LFMODOAL@?$AAs?$AAl?$AA?9?$AAs?$AAi@ 100492e8     Stdafx.obj
 0002:0000b2f8       ??_C@_1O@DFKOMPG@?$AAs?$AAm?$AAa?$AA?9?$AAn?$AAo@ 100492f8     Stdafx.obj
 0002:0000b308       ??_C@_1O@NDKPBNNH@?$AAs?$AAm?$AAa?$AA?9?$AAs?$AAe@ 10049308     Stdafx.obj
 0002:0000b318       ??_C@_1O@PLLKBHAB@?$AAs?$AAm?$AAj?$AA?9?$AAn?$AAo@ 10049318     Stdafx.obj
 0002:0000b328       ??_C@_1O@CLEPOGCA@?$AAs?$AAm?$AAj?$AA?9?$AAs?$AAe@ 10049328     Stdafx.obj
 0002:0000b338       ??_C@_1O@DLGJGKMK@?$AAs?$AAm?$AAn?$AA?9?$AAf?$AAi@ 10049338     Stdafx.obj
 0002:0000b348       ??_C@_1O@OJDJGAJC@?$AAs?$AAm?$AAs?$AA?9?$AAf?$AAi@ 10049348     Stdafx.obj
 0002:0000b358       ??_C@_1M@BOFOGHPB@?$AAs?$AAq?$AA?9?$AAa?$AAl@ 10049358     Stdafx.obj
 0002:0000b368       ??_C@_1BG@LJBBIPGB@?$AAs?$AAr?$AA?9?$AAb?$AAa?$AA?9?$AAc?$AAy?$AAr?$AAl@ 10049368     Stdafx.obj
 0002:0000b384       ??_C@_1BG@JLBENFOE@?$AAs?$AAr?$AA?9?$AAb?$AAa?$AA?9?$AAl?$AAa?$AAt?$AAn@ 10049384     Stdafx.obj
 0002:0000b3a0       ??_C@_1BG@KODPNHE@?$AAs?$AAr?$AA?9?$AAs?$AAp?$AA?9?$AAc?$AAy?$AAr?$AAl@ 100493a0     Stdafx.obj
 0002:0000b3bc       ??_C@_1BG@CIOGKHPB@?$AAs?$AAr?$AA?9?$AAs?$AAp?$AA?9?$AAl?$AAa?$AAt?$AAn@ 100493bc     Stdafx.obj
 0002:0000b3d8       ??_C@_1M@NGFJLMAC@?$AAs?$AAv?$AA?9?$AAf?$AAi@ 100493d8     Stdafx.obj
 0002:0000b3e8       ??_C@_1M@MPJEJAJC@?$AAs?$AAv?$AA?9?$AAs?$AAe@ 100493e8     Stdafx.obj
 0002:0000b3f8       ??_C@_1M@MPNDHLFK@?$AAs?$AAw?$AA?9?$AAk?$AAe@ 100493f8     Stdafx.obj
 0002:0000b408       ??_C@_1O@KOHBJJI@?$AAs?$AAy?$AAr?$AA?9?$AAs?$AAy@ 10049408     Stdafx.obj
 0002:0000b418       ??_C@_1M@LDCEFHA@?$AAt?$AAa?$AA?9?$AAi?$AAn@ 10049418     Stdafx.obj
 0002:0000b428       ??_C@_1M@CNJOFAK@?$AAt?$AAe?$AA?9?$AAi?$AAn@ 10049428     Stdafx.obj
 0002:0000b438       ??_C@_1M@GNAECACD@?$AAt?$AAh?$AA?9?$AAt?$AAh@ 10049438     Stdafx.obj
 0002:0000b448       ??_C@_1M@CHBIHOJO@?$AAt?$AAn?$AA?9?$AAz?$AAa@ 10049448     Stdafx.obj
 0002:0000b458       ??_C@_1M@GCCMIGPJ@?$AAt?$AAr?$AA?9?$AAt?$AAr@ 10049458     Stdafx.obj
 0002:0000b468       ??_C@_1M@CELMCNBK@?$AAt?$AAt?$AA?9?$AAr?$AAu@ 10049468     Stdafx.obj
 0002:0000b478       ??_C@_1M@KLMCELGA@?$AAu?$AAk?$AA?9?$AAu?$AAa@ 10049478     Stdafx.obj
 0002:0000b488       ??_C@_1M@EPAJJAJF@?$AAu?$AAr?$AA?9?$AAp?$AAk@ 10049488     Stdafx.obj
 0002:0000b498       ??_C@_1BG@GEGPMCDJ@?$AAu?$AAz?$AA?9?$AAu?$AAz?$AA?9?$AAc?$AAy?$AAr?$AAl@ 10049498     Stdafx.obj
 0002:0000b4b4       ??_C@_1BG@EGGKJILM@?$AAu?$AAz?$AA?9?$AAu?$AAz?$AA?9?$AAl?$AAa?$AAt?$AAn@ 100494b4     Stdafx.obj
 0002:0000b4d0       ??_C@_1M@GFOCLFF@?$AAv?$AAi?$AA?9?$AAv?$AAn@ 100494d0     Stdafx.obj
 0002:0000b4e0       ??_C@_1M@CPAMEDFI@?$AAx?$AAh?$AA?9?$AAz?$AAa@ 100494e0     Stdafx.obj
 0002:0000b4f0       ??_C@_1O@EBKIFIGN@?$AAz?$AAh?$AA?9?$AAc?$AAh?$AAs@ 100494f0     Stdafx.obj
 0002:0000b500       ??_C@_1O@NMHPGANE@?$AAz?$AAh?$AA?9?$AAc?$AAh?$AAt@ 10049500     Stdafx.obj
 0002:0000b510       ??_C@_1M@LPINJOMC@?$AAz?$AAh?$AA?9?$AAc?$AAn@ 10049510     Stdafx.obj
 0002:0000b520       ??_C@_1M@OCJEJODD@?$AAz?$AAh?$AA?9?$AAh?$AAk@ 10049520     Stdafx.obj
 0002:0000b530       ??_C@_1M@DNDLJINH@?$AAz?$AAh?$AA?9?$AAm?$AAo@ 10049530     Stdafx.obj
 0002:0000b540       ??_C@_1M@MBFDNDND@?$AAz?$AAh?$AA?9?$AAs?$AAg@ 10049540     Stdafx.obj
 0002:0000b550       ??_C@_1M@IMEPLEPE@?$AAz?$AAh?$AA?9?$AAt?$AAw@ 10049550     Stdafx.obj
 0002:0000b560       ??_C@_1M@BBGHNHJP@?$AAz?$AAu?$AA?9?$AAz?$AAa@ 10049560     Stdafx.obj
 0002:0000b570       ?szInvalidDateTime@ATL@@3QBDB 10049570     Stdafx.obj
 0002:0000b574       ??_C@_0BB@KEKMKJPM@Invalid?5DateTime@ 10049574     Stdafx.obj
 0002:0000b588       ?szInvalidDateTimeSpan@ATL@@3QBDB 10049588     Stdafx.obj
 0002:0000b58c       ??_C@_0BF@GPPHKJFN@Invalid?5DateTimeSpan@ 1004958c     Stdafx.obj
 0002:0000b5a8       _CLSID_Registrar           100495a8     Stdafx.obj
 0002:0000b5bc       _IID_IRegistrar            100495bc     Stdafx.obj
 0002:0000b5d0       _IID_IDocHostUIHandlerDispatch 100495d0     Stdafx.obj
 0002:0000b5e4       _IID_IAxWinHostWindow      100495e4     Stdafx.obj
 0002:0000b5f8       _IID_IAxWinHostWindowLic   100495f8     Stdafx.obj
 0002:0000b60c       _IID_IAxWinAmbientDispatch 1004960c     Stdafx.obj
 0002:0000b620       _IID_IAxWinAmbientDispatchEx 10049620     Stdafx.obj
 0002:0000b634       _IID_IInternalConnection   10049634     Stdafx.obj
 0002:0000b648       _LIBID_ATLLib              10049648     Stdafx.obj
 0002:0000b65b       ?chDirSep@ATL@@3DB         1004965b     Stdafx.obj
 0002:0000b65c       ?chRightBracket@ATL@@3DB   1004965c     Stdafx.obj
 0002:0000b65d       ?chLeftBracket@ATL@@3DB    1004965d     Stdafx.obj
 0002:0000b65e       ?chQuote@ATL@@3DB          1004965e     Stdafx.obj
 0002:0000b65f       ?chEquals@ATL@@3DB         1004965f     Stdafx.obj
 0002:0000b660       ?szStringVal@ATL@@3QBDB    10049660     Stdafx.obj
 0002:0000b664       ??_C@_01CPLAODJH@S@        10049664     Stdafx.obj
 0002:0000b668       ?multiszStringVal@ATL@@3QBDB 10049668     Stdafx.obj
 0002:0000b66c       ??_C@_01PLPBNMEI@M@        1004966c     Stdafx.obj
 0002:0000b670       ?szDwordVal@ATL@@3QBDB     10049670     Stdafx.obj
 0002:0000b674       ??_C@_01CKDDGHAB@D@        10049674     Stdafx.obj
 0002:0000b678       ?szBinaryVal@ATL@@3QBDB    10049678     Stdafx.obj
 0002:0000b67c       ??_C@_01HMGJMAIH@B@        1004967c     Stdafx.obj
 0002:0000b680       ?szValToken@ATL@@3QBDB     10049680     Stdafx.obj
 0002:0000b684       ??_C@_03LAIAPFCB@Val@      10049684     Stdafx.obj
 0002:0000b688       ?szForceRemove@ATL@@3QBDB  10049688     Stdafx.obj
 0002:0000b68c       ??_C@_0M@DBGDLGLL@ForceRemove@ 1004968c     Stdafx.obj
 0002:0000b69c       ?szNoRemove@ATL@@3QBDB     1004969c     Stdafx.obj
 0002:0000b6a0       ??_C@_08KAAPDIAN@NoRemove@ 100496a0     Stdafx.obj
 0002:0000b6ac       ?szDelete@ATL@@3QBDB       100496ac     Stdafx.obj
 0002:0000b6b0       ??_C@_06JBKGCNBB@Delete@   100496b0     Stdafx.obj
 0002:0000b6b8       _c_DwmMaxQueuedBuffers     100496b8     Stdafx.obj
 0002:0000b6bc       _c_DwmMaxMonitors          100496bc     Stdafx.obj
 0002:0000b6c0       _c_DwmMaxAdapters          100496c0     Stdafx.obj
 0002:0000b6c4       ?CLSID_WinFormsControl@@3U_GUID@@B 100496c4     Stdafx.obj
 0002:0000b6d8       ??_C@_13COJANIEC@?$AA0@    100496d8     Stdafx.obj
 0002:0000b6dc       ??_C@_0BA@MKMIKKJB@atlTraceGeneral@ 100496dc     Stdafx.obj
 0002:0000b6f0       ??_C@_0M@DGPFJEBB@atlTraceCOM@ 100496f0     Stdafx.obj
 0002:0000b700       ??_C@_0L@LHELAKBP@atlTraceQI@ 10049700     Stdafx.obj
 0002:0000b710       ??_C@_0BC@MALHFBAO@atlTraceRegistrar@ 10049710     Stdafx.obj
 0002:0000b728       ??_C@_0BB@ILPPDKFL@atlTraceRefcount@ 10049728     Stdafx.obj
 0002:0000b73c       ??_C@_0BC@DGHHNKDC@atlTraceWindowing@ 1004973c     Stdafx.obj
 0002:0000b754       ??_C@_0BB@GHKJKKIE@atlTraceControls@ 10049754     Stdafx.obj
 0002:0000b768       ??_C@_0BA@DKOAAGGM@atlTraceHosting@ 10049768     Stdafx.obj
 0002:0000b77c       ??_C@_0BB@BEBMGMDO@atlTraceDBClient@ 1004977c     Stdafx.obj
 0002:0000b790       ??_C@_0BD@KOADKDIA@atlTraceDBProvider@ 10049790     Stdafx.obj
 0002:0000b7a8       ??_C@_0P@LNEGBOLO@atlTraceSnapin@ 100497a8     Stdafx.obj
 0002:0000b7bc       ??_C@_0BA@MCBFIDIC@atlTraceNotImpl@ 100497bc     Stdafx.obj
 0002:0000b7d0       ??_C@_0BD@PJPCCAKP@atlTraceAllocation@ 100497d0     Stdafx.obj
 0002:0000b7e8       ??_C@_0N@BNNILHBE@atlTraceTime@ 100497e8     Stdafx.obj
 0002:0000b7f8       ??_C@_0O@MEOJAOKK@atlTraceCache@ 100497f8     Stdafx.obj
 0002:0000b808       ??_C@_0BA@IDBKCKK@atlTraceStencil@ 10049808     Stdafx.obj
 0002:0000b81c       ??_C@_0M@IOBBMAHG@atlTraceMap@ 1004981c     Stdafx.obj
 0002:0000b82c       ??_C@_0N@FEAAACHD@atlTraceUtil@ 1004982c     Stdafx.obj
 0002:0000b83c       ??_C@_0BB@DNJDADMG@atlTraceSecurity@ 1004983c     Stdafx.obj
 0002:0000b850       ??_C@_0N@KLPNCFEE@atlTraceSync@ 10049850     Stdafx.obj
 0002:0000b860       ??_C@_0O@KHOBHOBJ@atlTraceISAPI@ 10049860     Stdafx.obj
 0002:0000b874       ??_7CWin32Heap@ATL@@6B@    10049874     Stdafx.obj
 0002:0000b88c       ??_C@_1BG@CLPBKBHG@?$AAh?$AAH?$AAe?$AAa?$AAp?$AA?5?$AA?$CB?$AA?$DN?$AA?5?$AA0@ 1004988c     Stdafx.obj
 0002:0000b8a8       ??_C@_1OA@FNEDKMNI@?$AAc?$AA?3?$AA?2?$AAp?$AAr?$AAo?$AAg?$AAr?$AAa?$AAm?$AA?5?$AAf?$AAi?$AAl?$AAe@ 100498a8     Stdafx.obj
 0002:0000b9b4       ??_C@_1BC@PMINONJG@?$AAb?$AAS?$AAu?$AAc?$AAc?$AAe?$AAs?$AAs@ 100499b4     Stdafx.obj
 0002:0000b9cc       ??_C@_1BE@BLGCOAPB@?$AAn?$AAR?$AAe?$AAf?$AAs?$AA?5?$AA?$DO?$AA?5?$AA0@ 100499cc     Stdafx.obj
 0002:0000b9e8       ??_C@_1OI@LKICOBAJ@?$AAc?$AA?3?$AA?2?$AAp?$AAr?$AAo?$AAg?$AAr?$AAa?$AAm?$AA?5?$AAf?$AAi?$AAl?$AAe@ 100499e8     Stdafx.obj
 0002:0000bb00       ??_C@_1CA@MEFFJNJ@?$AAp?$AAS?$AAt?$AAr?$AAi?$AAn?$AAg?$AAM?$AAg?$AAr?$AA?5?$AA?$DN?$AA?$DN?$AA?5?$AA0@ 10049b00     Stdafx.obj
 0002:0000bb28       ??_C@_1OC@KJBACLGD@?$AAc?$AA?3?$AA?2?$AAp?$AAr?$AAo?$AAg?$AAr?$AAa?$AAm?$AA?5?$AAf?$AAi?$AAl?$AAe@ 10049b28     Stdafx.obj
 0002:0000bc38       ??_C@_0HB@FHIMFEIJ@c?3?2program?5files?5?$CIx86?$CJ?2microsof@ 10049c38     Stdafx.obj
 0002:0000bcc0       ??_C@_0EA@EJEMLPD@ERROR?5?3?5Unable?5to?5initialize?5cr@ 10049cc0     Stdafx.obj
 0002:0000bd10       ??_C@_0ED@GFNHMOFC@ERROR?5?3?5Unable?5to?5initialize?5cr@ 10049d10     Stdafx.obj
 0002:0000bd64       ??_7CAtlStringMgr@ATL@@6B@ 10049d64     Stdafx.obj
 0002:0000bd88       ??_C@_1OA@NFJNFLGL@?$AAc?$AA?3?$AA?2?$AAp?$AAr?$AAo?$AAg?$AAr?$AAa?$AAm?$AA?5?$AAf?$AAi?$AAl?$AAe@ 10049d88     Stdafx.obj
 0002:0000be94       ??_C@_1BG@IEBIBJEI@?$AAp?$AAD?$AAa?$AAt?$AAa?$AA?5?$AA?$CB?$AA?$DN?$AA?5?$AA0@ 10049e94     Stdafx.obj
 0002:0000beb0       ??_C@_1DE@KEEBDKDC@?$AAp?$AAD?$AAa?$AAt?$AAa?$AA?9?$AA?$DO?$AAp?$AAS?$AAt?$AAr?$AAi?$AAn?$AAg?$AAM@ 10049eb0     Stdafx.obj
 0002:0000bef0       ??_C@_1EA@JHMKKLFC@?$AAn?$AAI?$AAn?$AAd?$AAe?$AAx?$AA?5?$AA?$DO?$AA?$DN?$AA?5?$AA0?$AA?5?$AA?$CG?$AA?$CG?$AA?5@ 10049ef0     Stdafx.obj
 0002:0000bf40       ??_C@_1OK@GILLOEON@?$AAc?$AA?3?$AA?2?$AAp?$AAr?$AAo?$AAg?$AAr?$AAa?$AAm?$AA?5?$AAf?$AAi?$AAl?$AAe@ 10049f40     Stdafx.obj
 0002:0000c058       ??_C@_0O@JKAFBCMB@CreateActCtxW@ 1004a058     mfcs140d:nolib.obj
 0002:0000c068       ??_C@_0P@CECBPMJL@ActivateActCtx@ 1004a068     mfcs140d:nolib.obj
 0002:0000c07c       ??_C@_0BB@NPIOCCPF@DeactivateActCtx@ 1004a07c     mfcs140d:nolib.obj
 0002:0000c090       ??_C@_0BJ@MGNMALIC@FindActCtxSectionStringW@ 1004a090     mfcs140d:nolib.obj
 0002:0000c0b0       ??_C@_0N@IMINIHMJ@QueryActCtxW@ 1004a0b0     mfcs140d:nolib.obj
 0002:0000c0c0       ??_C@_0BD@GIGEJCNH@GetModuleHandleExW@ 1004a0c0     mfcs140d:nolib.obj
 0002:0000c0d8       ??_C@_1BK@BFMCNHEO@?$AAC?$AAo?$AAm?$AAc?$AAt?$AAl?$AA3?$AA2?$AA?4?$AAd?$AAl?$AAl@ 1004a0d8     mfcs140d:nolib.obj
 0002:0000c0f8       ?debugString@?4??IsolationAwarePrivatenPgViNgRzlnPgpgk@@9@4@4QBDB 1004a0f8     mfcs140d:nolib.obj
 0002:0000c140       ?c@?1??WinbaseIsolationAwarePrivatetRgCebPnQQeRff_xReaRYQP_QYY@@9@4@4UIsolationAwarePrivate_pBAFGnAG_zBqHyr_vAsB@@B 1004a140     mfcs140d:nolib.obj
 0002:0000c154       ??_C@_1BK@EJBALEBG@?$AAK?$AAe?$AAr?$AAn?$AAe?$AAl?$AA3?$AA2?$AA?4?$AAd?$AAl?$AAl@ 1004a154     mfcs140d:nolib.obj
 0002:0000c174       ??_C@_0N@HAOHNMDE@Kernel32?4dll@ 1004a174     mfcs140d:nolib.obj
 0002:0000c188       ??_C@_1IM@JDALAIMN@?$AAd?$AA?3?$AA?2?$AAa?$AAg?$AAe?$AAn?$AAt?$AA?2?$AA_?$AAw?$AAo?$AAr?$AAk?$AA?2@ 1004a188     mfcs140d:nolib.obj
 0002:0000c230       ??_C@_1IM@OAKAGKEO@?$AAd?$AA?3?$AA?2?$AAa?$AAg?$AAe?$AAn?$AAt?$AA?2?$AA_?$AAw?$AAo?$AAr?$AAk?$AA?2@ 1004a230     mfcs140d:nolib.obj
 0002:0000c2d8       ??_C@_1II@MFCNAHJH@?$AAd?$AA?3?$AA?2?$AAa?$AAg?$AAe?$AAn?$AAt?$AA?2?$AA_?$AAw?$AAo?$AAr?$AAk?$AA?2@ 1004a2d8     mfcs140d:nolib.obj
 0002:0000c380       ??_C@_1JA@NMBLLECH@?$AAd?$AA?3?$AA?2?$AAa?$AAg?$AAe?$AAn?$AAt?$AA?2?$AA_?$AAw?$AAo?$AAr?$AAk?$AA?2@ 1004a380     mfcs140d:nolib.obj
 0002:0000c430       ??_C@_1IK@JPPFJKKH@?$AAd?$AA?3?$AA?2?$AAa?$AAg?$AAe?$AAn?$AAt?$AA?2?$AA_?$AAw?$AAo?$AAr?$AAk?$AA?2@ 1004a430     mfcs140d:nolib.obj
 0002:0000c4d8       ??_C@_0EF@IPDELHHG@d?3?2agent?2_work?23?2s?2src?2vctools?2@ 1004a4d8     mfcs140d:nolib.obj
 0002:0000c530       ??_C@_1II@ENPDPACE@?$AAd?$AA?3?$AA?2?$AAa?$AAg?$AAe?$AAn?$AAt?$AA?2?$AA_?$AAw?$AAo?$AAr?$AAk?$AA?2@ 1004a530     mfcs140d:nolib.obj
 0002:0000c5d8       ??_C@_1JC@HILNCOCD@?$AAd?$AA?3?$AA?2?$AAa?$AAg?$AAe?$AAn?$AAt?$AA?2?$AA_?$AAw?$AAo?$AAr?$AAk?$AA?2@ 1004a5d8     mfcs140d:nolib.obj
 0002:0000c68c       ??_7type_info@@6B@         1004a68c     msvcrtd:std_type_info_static.obj
 0002:0000c698       ??_C@_1EC@JIJBPKFM@?$AAa?$AAp?$AAi?$AA?9?$AAm?$AAs?$AA?9?$AAw?$AAi?$AAn?$AA?9?$AAc?$AAo?$AAr?$AAe@ 1004a698     msvcrtd:thread_safe_statics.obj
 0002:0000c6e8       ??_C@_1BK@MGMFAEKH@?$AAk?$AAe?$AAr?$AAn?$AAe?$AAl?$AA3?$AA2?$AA?4?$AAd?$AAl?$AAl@ 1004a6e8     msvcrtd:thread_safe_statics.obj
 0002:0000c708       ??_C@_0BM@HLJJNPAH@InitializeConditionVariable@ 1004a708     msvcrtd:thread_safe_statics.obj
 0002:0000c72c       ??_C@_0BJ@JEBJOJFJ@SleepConditionVariableCS@ 1004a72c     msvcrtd:thread_safe_statics.obj
 0002:0000c74c       ??_C@_0BJ@PGPPEPCC@WakeAllConditionVariable@ 1004a74c     msvcrtd:thread_safe_statics.obj
 0002:0000c770       ??_C@_1JM@MEGLFHBK@?$AAd?$AA?3?$AA?2?$AAa?$AAg?$AAe?$AAn?$AAt?$AA?2?$AA_?$AAw?$AAo?$AAr?$AAk?$AA?2@ 1004a770     msvcrtd:thread_safe_statics.obj
 0002:0000c82c       __pDefaultRawDllMain       1004a82c     msvcrtd:dll_dllmain.obj
 0002:0000c8f8       ??_C@_0NN@NGPKDKPD@The?5value?5of?5ESP?5was?5not?5proper@ 1004a8f8     msvcrtd:error.obj
 0002:0000ca08       ??_C@_0BBN@GPMLNJCF@A?5cast?5to?5a?5smaller?5data?5type?5h@ 1004aa08     msvcrtd:error.obj
 0002:0000cb60       ??_C@_0BN@FFOINMNJ@Stack?5memory?5was?5corrupted?6?$AN@ 1004ab60     msvcrtd:error.obj
 0002:0000cb84       ??_C@_0DG@HKJMLLLP@A?5local?5variable?5was?5used?5befor@ 1004ab84     msvcrtd:error.obj
 0002:0000cbc4       ??_C@_0CM@NGINOKPC@Stack?5memory?5around?5_alloca?5was@ 1004abc4     msvcrtd:error.obj
 0002:0000cbf8       ??_C@_0BO@GNIAFIKK@Unknown?5Runtime?5Check?5Error?6?$AN@ 1004abf8     msvcrtd:error.obj
 0002:0000cc20       ??_C@_1GM@OLMCBDMB@?$AAR?$AAu?$AAn?$AAt?$AAi?$AAm?$AAe?$AA?5?$AAC?$AAh?$AAe?$AAc?$AAk?$AA?5?$AAE@ 1004ac20     msvcrtd:error.obj
 0002:0000cca8       ??_C@_1EA@NFKNIFJP@?$AAR?$AAu?$AAn?$AA?9?$AAT?$AAi?$AAm?$AAe?$AA?5?$AAC?$AAh?$AAe?$AAc?$AAk?$AA?5@ 1004aca8     msvcrtd:error.obj
 0002:0000ccf4       ??_C@_0BB@PFFGGCJP@Unknown?5Filename@ 1004acf4     msvcrtd:error.obj
 0002:0000cd08       ??_C@_0BE@GNBOBNCK@Unknown?5Module?5Name@ 1004ad08     msvcrtd:error.obj
 0002:0000cd20       ??_C@_0CA@IODNCDPG@Run?9Time?5Check?5Failure?5?$CD?$CFd?5?9?5?$CFs@ 1004ad20     msvcrtd:error.obj
 0002:0000cd48       ??_C@_0CG@IAFNJNEE@Stack?5corrupted?5near?5unknown?5va@ 1004ad48     msvcrtd:error.obj
 0002:0000cd78       ??_C@_05MKKEDADM@?$CF?42X?5@ 1004ad78     msvcrtd:error.obj
 0002:0000cd80       ??_C@_0EJ@LJKNEOLN@Stack?5area?5around?5_alloca?5memor@ 1004ad80     msvcrtd:error.obj
 0002:0000cdd8       ??_C@_02LLMPMKNF@?$DO?5@   1004add8     msvcrtd:error.obj
 0002:0000cddc       ??_C@_08OMAHNMHJ@?6Data?3?5?$DM@ 1004addc     msvcrtd:error.obj
 0002:0000cde8       ??_C@_0CK@DKGBICFE@?6Allocation?5number?5within?5this?5@ 1004ade8     msvcrtd:error.obj
 0002:0000ce1c       ??_C@_07DFDJCKFN@?6Size?3?5@ 1004ae1c     msvcrtd:error.obj
 0002:0000ce28       ??_C@_0N@MHFFIMFG@?6Address?3?50x@ 1004ae28     msvcrtd:error.obj
 0002:0000ce38       ??_C@_0EI@CLEPFNGI@Stack?5area?5around?5_alloca?5memor@ 1004ae38     msvcrtd:error.obj
 0002:0000ce90       ??_C@_0BK@ODNDAGKB@?$CFs?$CFs?$CFp?$CFs?$CFzd?$CFs?$CFd?$CFs?$CFs?$CFs?$CFs?$CFs@ 1004ae90     msvcrtd:error.obj
 0002:0000ceb0       ??_C@_0DE@OHJBPMBP@A?5variable?5is?5being?5used?5withou@ 1004aeb0     msvcrtd:error.obj
 0002:0000cf08       ??_C@_0BJ@HEGAHDFO@Stack?5pointer?5corruption@ 1004af08     msvcrtd:userapi.obj
 0002:0000cf28       ??_C@_0CK@FEGOIOPB@Cast?5to?5smaller?5type?5causing?5lo@ 1004af28     msvcrtd:userapi.obj
 0002:0000cf5c       ??_C@_0BI@CIGMDCBH@Stack?5memory?5corruption@ 1004af5c     msvcrtd:userapi.obj
 0002:0000cf78       ??_C@_0CK@CNLNOEPB@Local?5variable?5used?5before?5init@ 1004af78     msvcrtd:userapi.obj
 0002:0000cfac       ??_C@_0BP@OGBCLIBO@Stack?5around?5_alloca?5corrupted@ 1004afac     msvcrtd:userapi.obj
 0002:0000d030       ??_C@_1EI@MLPKHBGE@?$AAa?$AAp?$AAi?$AA?9?$AAm?$AAs?$AA?9?$AAw?$AAi?$AAn?$AA?9?$AAc?$AAo?$AAr?$AAe@ 1004b030     msvcrtd:pdblkup.obj
 0002:0000d088       ??_C@_1BK@JHLNAEJL@?$AAa?$AAd?$AAv?$AAa?$AAp?$AAi?$AA3?$AA2?$AA?4?$AAd?$AAl?$AAl@ 1004b088     msvcrtd:pdblkup.obj
 0002:0000d0a8       ??_C@_0O@COHOBMLB@RegOpenKeyExW@ 1004b0a8     msvcrtd:pdblkup.obj
 0002:0000d0b8       ??_C@_0BB@GLNAEDBD@RegQueryValueExW@ 1004b0b8     msvcrtd:pdblkup.obj
 0002:0000d0cc       ??_C@_0M@HLOHPNFA@RegCloseKey@ 1004b0cc     msvcrtd:pdblkup.obj
 0002:0000d0e0       ??_C@_1HE@EBEAGLFB@?$AAS?$AAO?$AAF?$AAT?$AAW?$AAA?$AAR?$AAE?$AA?2?$AAW?$AAo?$AAw?$AA6?$AA4?$AA3@ 1004b0e0     msvcrtd:pdblkup.obj
 0002:0000d16c       ??_C@_1BG@EABPBLLF@?$AAP?$AAr?$AAo?$AAd?$AAu?$AAc?$AAt?$AAD?$AAi?$AAr@ 1004b16c     msvcrtd:pdblkup.obj
 0002:0000d1ac       ??_C@_1BC@JINFINNJ@?$AAM?$AAS?$AAP?$AAD?$AAB?$AA1?$AA4?$AA0@ 1004b1ac     msvcrtd:pdblkup.obj
 0002:0000d1c4       ??_C@_0BB@KCIACLNC@PDBOpenValidate5@ 1004b1c4     msvcrtd:pdblkup.obj
 0002:0000d1d8       ??_C@_01KDCPPGHE@r@        1004b1d8     msvcrtd:pdblkup.obj
 0002:0000d1dc       _GUID_ATLVer30             1004b1dc     atls:atlbase.obj
 0002:0000d1f0       _GUID_ATLVer70             1004b1f0     atls:atlbase.obj
 0002:0000d204       _GUID_ATLVer100            1004b204     atls:atlbase.obj
 0002:0000d218       _GUID_ATLVer110            1004b218     atls:atlbase.obj
 0002:0000d230       ??_C@_1IC@ONKHOIDK@?$AAE?$AAR?$AAR?$AAO?$AAR?$AA?5?$AA?3?$AA?5?$AAU?$AAn?$AAa?$AAb?$AAl?$AAe?$AA?5@ 1004b230     atls:atlbase.obj
 0002:0000d2cc       ?chDirSep@ATL@@3_WB        1004b2cc     atls:stdafx.obj
 0002:0000d2d0       ?chRightBracket@ATL@@3_WB  1004b2d0     atls:stdafx.obj
 0002:0000d2d4       ?chLeftBracket@ATL@@3_WB   1004b2d4     atls:stdafx.obj
 0002:0000d2d8       ?chQuote@ATL@@3_WB         1004b2d8     atls:stdafx.obj
 0002:0000d2dc       ?chEquals@ATL@@3_WB        1004b2dc     atls:stdafx.obj
 0002:0000d2e0       ?szStringVal@ATL@@3QB_WB   1004b2e0     atls:stdafx.obj
 0002:0000d2e4       ??_C@_13HADIAKP@?$AAS@     1004b2e4     atls:stdafx.obj
 0002:0000d2e8       ?multiszStringVal@ATL@@3QB_WB 1004b2e8     atls:stdafx.obj
 0002:0000d2ec       ??_C@_13LHMFKAAD@?$AAM@    1004b2ec     atls:stdafx.obj
 0002:0000d2f0       ?szDwordVal@ATL@@3QB_WB    1004b2f0     atls:stdafx.obj
 0002:0000d2f4       ??_C@_13MKMNOPIJ@?$AAD@    1004b2f4     atls:stdafx.obj
 0002:0000d2f8       ?szBinaryVal@ATL@@3QB_WB   1004b2f8     atls:stdafx.obj
 0002:0000d2fc       ??_C@_13OPKGLAFF@?$AAB@    1004b2fc     atls:stdafx.obj
 0002:0000d300       ?szValToken@ATL@@3QB_WB    1004b300     atls:stdafx.obj
 0002:0000d304       ??_C@_17LLMMEOJD@?$AAV?$AAa?$AAl@ 1004b304     atls:stdafx.obj
 0002:0000d310       ?szForceRemove@ATL@@3QB_WB 1004b310     atls:stdafx.obj
 0002:0000d314       ??_C@_1BI@JFAIJMHL@?$AAF?$AAo?$AAr?$AAc?$AAe?$AAR?$AAe?$AAm?$AAo?$AAv?$AAe@ 1004b314     atls:stdafx.obj
 0002:0000d330       ?szNoRemove@ATL@@3QB_WB    1004b330     atls:stdafx.obj
 0002:0000d334       ??_C@_1BC@GCKHIPE@?$AAN?$AAo?$AAR?$AAe?$AAm?$AAo?$AAv?$AAe@ 1004b334     atls:stdafx.obj
 0002:0000d34c       ?szDelete@ATL@@3QB_WB      1004b34c     atls:stdafx.obj
 0002:0000d350       ??_C@_1O@JDLOHAN@?$AAD?$AAe?$AAl?$AAe?$AAt?$AAe@ 1004b350     atls:stdafx.obj
 0002:0000d398       __load_config_used         1004b398     msvcrtd:loadcfg.obj
 0002:0000d878       __tls_used                 1004b878     msvcrtd:tlssup.obj
 0002:0000d994       ??_R1A@?0A@EA@CObject@@8   1004b994     DlgMatchWizard.obj
 0002:0000d9b8       ??_R3CObject@@8            1004b9b8     DlgMatchWizard.obj
 0002:0000d9cc       ??_R2CObject@@8            1004b9cc     DlgMatchWizard.obj
 0002:0000d9d4       ??_R1A@?0A@EA@CDialog@@8   1004b9d4     DlgMatchWizard.obj
 0002:0000d9f8       ??_R3CDialog@@8            1004b9f8     DlgMatchWizard.obj
 0002:0000da0c       ??_R2CDialog@@8            1004ba0c     DlgMatchWizard.obj
 0002:0000da20       ??_R1A@?0A@EA@CWnd@@8      1004ba20     DlgMatchWizard.obj
 0002:0000da44       ??_R3CWnd@@8               1004ba44     DlgMatchWizard.obj
 0002:0000da58       ??_R2CWnd@@8               1004ba58     DlgMatchWizard.obj
 0002:0000da68       ??_R1A@?0A@EA@CCmdTarget@@8 1004ba68     DlgMatchWizard.obj
 0002:0000da8c       ??_R3CCmdTarget@@8         1004ba8c     DlgMatchWizard.obj
 0002:0000daa0       ??_R2CCmdTarget@@8         1004baa0     DlgMatchWizard.obj
 0002:0000daac       ??_R4?$CWHArray@PAUtagGameMatchOption@@ABQAU1@@@6B@ 1004baac     DlgMatchWizard.obj
 0002:0000dac4       ??_R3?$CWHArray@PAUtagGameMatchOption@@ABQAU1@@@8 1004bac4     DlgMatchWizard.obj
 0002:0000dad8       ??_R2?$CWHArray@PAUtagGameMatchOption@@ABQAU1@@@8 1004bad8     DlgMatchWizard.obj
 0002:0000dae0       ??_R1A@?0A@EA@?$CWHArray@PAUtagGameMatchOption@@ABQAU1@@@8 1004bae0     DlgMatchWizard.obj
 0002:0000db04       ??_R4?$CWHArray@PAUtagMatchRewardInfo@@ABQAU1@@@6B@ 1004bb04     DlgMatchWizard.obj
 0002:0000db1c       ??_R3?$CWHArray@PAUtagMatchRewardInfo@@ABQAU1@@@8 1004bb1c     DlgMatchWizard.obj
 0002:0000db30       ??_R2?$CWHArray@PAUtagMatchRewardInfo@@ABQAU1@@@8 1004bb30     DlgMatchWizard.obj
 0002:0000db38       ??_R1A@?0A@EA@?$CWHArray@PAUtagMatchRewardInfo@@ABQAU1@@@8 1004bb38     DlgMatchWizard.obj
 0002:0000db5c       ??_R4CMatchInfoBuffer@@6B@ 1004bb5c     DlgMatchWizard.obj
 0002:0000db74       ??_R3CMatchInfoBuffer@@8   1004bb74     DlgMatchWizard.obj
 0002:0000db88       ??_R2CMatchInfoBuffer@@8   1004bb88     DlgMatchWizard.obj
 0002:0000db90       ??_R1A@?0A@EA@CMatchInfoBuffer@@8 1004bb90     DlgMatchWizard.obj
 0002:0000dbb4       ??_R4CRewardInfoBuffer@@6B@ 1004bbb4     DlgMatchWizard.obj
 0002:0000dbcc       ??_R3CRewardInfoBuffer@@8  1004bbcc     DlgMatchWizard.obj
 0002:0000dbe0       ??_R2CRewardInfoBuffer@@8  1004bbe0     DlgMatchWizard.obj
 0002:0000dbe8       ??_R1A@?0A@EA@CRewardInfoBuffer@@8 1004bbe8     DlgMatchWizard.obj
 0002:0000dc0c       ??_R4CMatchInfoManager@@6B@ 1004bc0c     DlgMatchWizard.obj
 0002:0000dc24       ??_R3CMatchInfoManager@@8  1004bc24     DlgMatchWizard.obj
 0002:0000dc38       ??_R2CMatchInfoManager@@8  1004bc38     DlgMatchWizard.obj
 0002:0000dc40       ??_R1A@?0A@EA@CMatchInfoManager@@8 1004bc40     DlgMatchWizard.obj
 0002:0000dc64       ??_R4CDlgMatchItem@@6B@    1004bc64     DlgMatchWizard.obj
 0002:0000dc7c       ??_R3CDlgMatchItem@@8      1004bc7c     DlgMatchWizard.obj
 0002:0000dc90       ??_R2CDlgMatchItem@@8      1004bc90     DlgMatchWizard.obj
 0002:0000dcac       ??_R1A@?0A@EA@CDlgMatchItem@@8 1004bcac     DlgMatchWizard.obj
 0002:0000dcd0       ??_R4CDlgMatchWizard@@6B@  1004bcd0     DlgMatchWizard.obj
 0002:0000dce8       ??_R3CDlgMatchWizard@@8    1004bce8     DlgMatchWizard.obj
 0002:0000dcfc       ??_R2CDlgMatchWizard@@8    1004bcfc     DlgMatchWizard.obj
 0002:0000dd18       ??_R1A@?0A@EA@CDlgMatchWizard@@8 1004bd18     DlgMatchWizard.obj
 0002:0000dd3c       ??_R4CDlgMatchWizardStep1@@6B@ 1004bd3c     DlgMatchWizard.obj
 0002:0000dd54       ??_R3CDlgMatchWizardStep1@@8 1004bd54     DlgMatchWizard.obj
 0002:0000dd68       ??_R2CDlgMatchWizardStep1@@8 1004bd68     DlgMatchWizard.obj
 0002:0000dd88       ??_R1A@?0A@EA@CDlgMatchWizardStep1@@8 1004bd88     DlgMatchWizard.obj
 0002:0000ddac       ??_R1A@?0A@EA@CDlgMatchWizardItem@@8 1004bdac     DlgMatchWizard.obj
 0002:0000ddd0       ??_R3CDlgMatchWizardItem@@8 1004bdd0     DlgMatchWizard.obj
 0002:0000dde4       ??_R2CDlgMatchWizardItem@@8 1004bde4     DlgMatchWizard.obj
 0002:0000de00       ??_R4CDlgMatchWizardStep2@@6B@ 1004be00     DlgMatchWizard.obj
 0002:0000de18       ??_R3CDlgMatchWizardStep2@@8 1004be18     DlgMatchWizard.obj
 0002:0000de2c       ??_R2CDlgMatchWizardStep2@@8 1004be2c     DlgMatchWizard.obj
 0002:0000de4c       ??_R1A@?0A@EA@CDlgMatchWizardStep2@@8 1004be4c     DlgMatchWizard.obj
 0002:0000de70       ??_R4CDlgMatchSignup1@@6B@ 1004be70     DlgMatchWizard.obj
 0002:0000de88       ??_R3CDlgMatchSignup1@@8   1004be88     DlgMatchWizard.obj
 0002:0000de9c       ??_R2CDlgMatchSignup1@@8   1004be9c     DlgMatchWizard.obj
 0002:0000debc       ??_R1A@?0A@EA@CDlgMatchSignup1@@8 1004bebc     DlgMatchWizard.obj
 0002:0000dee0       ??_R4CDlgMatchSignup2@@6B@ 1004bee0     DlgMatchWizard.obj
 0002:0000def8       ??_R3CDlgMatchSignup2@@8   1004bef8     DlgMatchWizard.obj
 0002:0000df0c       ??_R2CDlgMatchSignup2@@8   1004bf0c     DlgMatchWizard.obj
 0002:0000df2c       ??_R1A@?0A@EA@CDlgMatchSignup2@@8 1004bf2c     DlgMatchWizard.obj
 0002:0000df50       ??_R4CDlgMatchDistribute@@6B@ 1004bf50     DlgMatchWizard.obj
 0002:0000df68       ??_R3CDlgMatchDistribute@@8 1004bf68     DlgMatchWizard.obj
 0002:0000df7c       ??_R2CDlgMatchDistribute@@8 1004bf7c     DlgMatchWizard.obj
 0002:0000df9c       ??_R1A@?0A@EA@CDlgMatchDistribute@@8 1004bf9c     DlgMatchWizard.obj
 0002:0000dfc0       ??_R4CDlgMatchRankingMode@@6B@ 1004bfc0     DlgMatchWizard.obj
 0002:0000dfd8       ??_R3CDlgMatchRankingMode@@8 1004bfd8     DlgMatchWizard.obj
 0002:0000dfec       ??_R2CDlgMatchRankingMode@@8 1004bfec     DlgMatchWizard.obj
 0002:0000e00c       ??_R1A@?0A@EA@CDlgMatchRankingMode@@8 1004c00c     DlgMatchWizard.obj
 0002:0000e030       ??_R4CDlgMatchReward@@6B@  1004c030     DlgMatchWizard.obj
 0002:0000e048       ??_R3CDlgMatchReward@@8    1004c048     DlgMatchWizard.obj
 0002:0000e05c       ??_R2CDlgMatchReward@@8    1004c05c     DlgMatchWizard.obj
 0002:0000e07c       ??_R1A@?0A@EA@CDlgMatchReward@@8 1004c07c     DlgMatchWizard.obj
 0002:0000e0a0       ??_R4CDlgMatchLockTime@@6B@ 1004c0a0     DlgMatchWizard.obj
 0002:0000e0b8       ??_R3CDlgMatchLockTime@@8  1004c0b8     DlgMatchWizard.obj
 0002:0000e0cc       ??_R2CDlgMatchLockTime@@8  1004c0cc     DlgMatchWizard.obj
 0002:0000e0ec       ??_R1A@?0A@EA@CDlgMatchLockTime@@8 1004c0ec     DlgMatchWizard.obj
 0002:0000e110       ??_R4CDlgMatchImmediate@@6B@ 1004c110     DlgMatchWizard.obj
 0002:0000e128       ??_R3CDlgMatchImmediate@@8 1004c128     DlgMatchWizard.obj
 0002:0000e13c       ??_R2CDlgMatchImmediate@@8 1004c13c     DlgMatchWizard.obj
 0002:0000e15c       ??_R1A@?0A@EA@CDlgMatchImmediate@@8 1004c15c     DlgMatchWizard.obj
 0002:0000e180       ??_R4CDlgMatchWizardItem@@6B@ 1004c180     DlgMatchWizard.obj
 0002:0000e198       ??_R4CGameServiceManagerHelper@@6B@ 1004c198     DlgServerItem.obj
 0002:0000e1b0       ??_R3CGameServiceManagerHelper@@8 1004c1b0     DlgServerItem.obj
 0002:0000e1c4       ??_R2CGameServiceManagerHelper@@8 1004c1c4     DlgServerItem.obj
 0002:0000e1d0       ??_R1A@?0A@EA@CGameServiceManagerHelper@@8 1004c1d0     DlgServerItem.obj
 0002:0000e1f4       ??_R1A@?0A@EA@?$CTempldateHelper@UIGameServiceManager@@@@8 1004c1f4     DlgServerItem.obj
 0002:0000e218       ??_R3?$CTempldateHelper@UIGameServiceManager@@@@8 1004c218     DlgServerItem.obj
 0002:0000e22c       ??_R2?$CTempldateHelper@UIGameServiceManager@@@@8 1004c22c     DlgServerItem.obj
 0002:0000e234       ??_R4?$CTempldateHelper@UIGameServiceManager@@@@6B@ 1004c234     DlgServerItem.obj
 0002:0000e24c       ??_R4CMatchOptionBuffer@@6B@ 1004c24c     DlgServerItem.obj
 0002:0000e264       ??_R3CMatchOptionBuffer@@8 1004c264     DlgServerItem.obj
 0002:0000e278       ??_R2CMatchOptionBuffer@@8 1004c278     DlgServerItem.obj
 0002:0000e280       ??_R1A@?0A@EA@CMatchOptionBuffer@@8 1004c280     DlgServerItem.obj
 0002:0000e2a4       ??_R4CServerInfoManager@@6B@ 1004c2a4     DlgServerItem.obj
 0002:0000e2bc       ??_R3CServerInfoManager@@8 1004c2bc     DlgServerItem.obj
 0002:0000e2d0       ??_R2CServerInfoManager@@8 1004c2d0     DlgServerItem.obj
 0002:0000e2d8       ??_R1A@?0A@EA@CServerInfoManager@@8 1004c2d8     DlgServerItem.obj
 0002:0000e2fc       ??_R4CDlgServerItem@@6B@   1004c2fc     DlgServerItem.obj
 0002:0000e314       ??_R3CDlgServerItem@@8     1004c314     DlgServerItem.obj
 0002:0000e328       ??_R2CDlgServerItem@@8     1004c328     DlgServerItem.obj
 0002:0000e344       ??_R1A@?0A@EA@CDlgServerItem@@8 1004c344     DlgServerItem.obj
 0002:0000e368       ??_R4CDataBaseHelper@@6B@  1004c368     DlgServerMatch.obj
 0002:0000e380       ??_R3CDataBaseHelper@@8    1004c380     DlgServerMatch.obj
 0002:0000e394       ??_R2CDataBaseHelper@@8    1004c394     DlgServerMatch.obj
 0002:0000e3a0       ??_R1A@?0A@EA@CDataBaseHelper@@8 1004c3a0     DlgServerMatch.obj
 0002:0000e3c4       ??_R1A@?0A@EA@?$CTempldateHelper@UIDataBase@@@@8 1004c3c4     DlgServerMatch.obj
 0002:0000e3e8       ??_R3?$CTempldateHelper@UIDataBase@@@@8 1004c3e8     DlgServerMatch.obj
 0002:0000e3fc       ??_R2?$CTempldateHelper@UIDataBase@@@@8 1004c3fc     DlgServerMatch.obj
 0002:0000e404       ??_R4?$CTempldateHelper@UIDataBase@@@@6B@ 1004c404     DlgServerMatch.obj
 0002:0000e41c       ??_R4CDlgServerMatch@@6B@  1004c41c     DlgServerMatch.obj
 0002:0000e434       ??_R3CDlgServerMatch@@8    1004c434     DlgServerMatch.obj
 0002:0000e448       ??_R2CDlgServerMatch@@8    1004c448     DlgServerMatch.obj
 0002:0000e464       ??_R1A@?0A@EA@CDlgServerMatch@@8 1004c464     DlgServerMatch.obj
 0002:0000e488       ??_R4CModuleDBParameter@@6B@ 1004c488     DlgServerMatch.obj
 0002:0000e4a0       ??_R3CModuleDBParameter@@8 1004c4a0     DlgServerMatch.obj
 0002:0000e4b4       ??_R2CModuleDBParameter@@8 1004c4b4     DlgServerMatch.obj
 0002:0000e4bc       ??_R1A@?0A@EA@CModuleDBParameter@@8 1004c4bc     DlgServerMatch.obj
 0002:0000e4e0       ??_R4CModuleInfoManager@@6B@ 1004c4e0     DlgServerWizard.obj
 0002:0000e4f8       ??_R3CModuleInfoManager@@8 1004c4f8     DlgServerWizard.obj
 0002:0000e50c       ??_R2CModuleInfoManager@@8 1004c50c     DlgServerWizard.obj
 0002:0000e514       ??_R1A@?0A@EA@CModuleInfoManager@@8 1004c514     DlgServerWizard.obj
 0002:0000e538       ??_R4CDlgServerWizard@@6B@ 1004c538     DlgServerWizard.obj
 0002:0000e550       ??_R3CDlgServerWizard@@8   1004c550     DlgServerWizard.obj
 0002:0000e564       ??_R2CDlgServerWizard@@8   1004c564     DlgServerWizard.obj
 0002:0000e580       ??_R1A@?0A@EA@CDlgServerWizard@@8 1004c580     DlgServerWizard.obj
 0002:0000e5a4       ??_R4CDlgServerOptionItem@@6B@ 1004c5a4     DlgServerWizard.obj
 0002:0000e5bc       ??_R3CDlgServerOptionItem@@8 1004c5bc     DlgServerWizard.obj
 0002:0000e5d0       ??_R2CDlgServerOptionItem@@8 1004c5d0     DlgServerWizard.obj
 0002:0000e5ec       ??_R1A@?0A@EA@CDlgServerOptionItem@@8 1004c5ec     DlgServerWizard.obj
 0002:0000e610       ??_R4CDlgServerWizardItem2@@6B@ 1004c610     DlgServerWizard.obj
 0002:0000e628       ??_R3CDlgServerWizardItem2@@8 1004c628     DlgServerWizard.obj
 0002:0000e63c       ??_R2CDlgServerWizardItem2@@8 1004c63c     DlgServerWizard.obj
 0002:0000e65c       ??_R1A@?0A@EA@CDlgServerWizardItem2@@8 1004c65c     DlgServerWizard.obj
 0002:0000e680       ??_R1A@?0A@EA@CDlgServerWizardItem@@8 1004c680     DlgServerWizard.obj
 0002:0000e6a4       ??_R3CDlgServerWizardItem@@8 1004c6a4     DlgServerWizard.obj
 0002:0000e6b8       ??_R2CDlgServerWizardItem@@8 1004c6b8     DlgServerWizard.obj
 0002:0000e6d4       ??_R4CDlgServerOptionItem1@@6B@ 1004c6d4     DlgServerWizard.obj
 0002:0000e6ec       ??_R3CDlgServerOptionItem1@@8 1004c6ec     DlgServerWizard.obj
 0002:0000e700       ??_R2CDlgServerOptionItem1@@8 1004c700     DlgServerWizard.obj
 0002:0000e720       ??_R1A@?0A@EA@CDlgServerOptionItem1@@8 1004c720     DlgServerWizard.obj
 0002:0000e744       ??_R4CDlgServerOptionItem2@@6B@ 1004c744     DlgServerWizard.obj
 0002:0000e75c       ??_R3CDlgServerOptionItem2@@8 1004c75c     DlgServerWizard.obj
 0002:0000e770       ??_R2CDlgServerOptionItem2@@8 1004c770     DlgServerWizard.obj
 0002:0000e790       ??_R1A@?0A@EA@CDlgServerOptionItem2@@8 1004c790     DlgServerWizard.obj
 0002:0000e7b4       ??_R4CDlgServerOptionItem3@@6B@ 1004c7b4     DlgServerWizard.obj
 0002:0000e7cc       ??_R3CDlgServerOptionItem3@@8 1004c7cc     DlgServerWizard.obj
 0002:0000e7e0       ??_R2CDlgServerOptionItem3@@8 1004c7e0     DlgServerWizard.obj
 0002:0000e800       ??_R1A@?0A@EA@CDlgServerOptionItem3@@8 1004c800     DlgServerWizard.obj
 0002:0000e824       ??_R4CDlgServerOptionItem5@@6B@ 1004c824     DlgServerWizard.obj
 0002:0000e83c       ??_R3CDlgServerOptionItem5@@8 1004c83c     DlgServerWizard.obj
 0002:0000e850       ??_R2CDlgServerOptionItem5@@8 1004c850     DlgServerWizard.obj
 0002:0000e870       ??_R1A@?0A@EA@CDlgServerOptionItem5@@8 1004c870     DlgServerWizard.obj
 0002:0000e894       ??_R4CDlgServerOptionItemCustom@@6B@ 1004c894     DlgServerWizard.obj
 0002:0000e8ac       ??_R3CDlgServerOptionItemCustom@@8 1004c8ac     DlgServerWizard.obj
 0002:0000e8c0       ??_R2CDlgServerOptionItemCustom@@8 1004c8c0     DlgServerWizard.obj
 0002:0000e8e0       ??_R1A@?0A@EA@CDlgServerOptionItemCustom@@8 1004c8e0     DlgServerWizard.obj
 0002:0000e904       ??_R4CDlgServerOptionItemPersonal@@6B@ 1004c904     DlgServerWizard.obj
 0002:0000e91c       ??_R3CDlgServerOptionItemPersonal@@8 1004c91c     DlgServerWizard.obj
 0002:0000e930       ??_R2CDlgServerOptionItemPersonal@@8 1004c930     DlgServerWizard.obj
 0002:0000e950       ??_R1A@?0A@EA@CDlgServerOptionItemPersonal@@8 1004c950     DlgServerWizard.obj
 0002:0000e974       ??_R4CDlgServerWizardItem@@6B@ 1004c974     DlgServerWizard.obj
 0002:0000e98c       ??_R4CDlgServerWizardItem1@@6B@ 1004c98c     DlgServerWizard.obj
 0002:0000e9a4       ??_R3CDlgServerWizardItem1@@8 1004c9a4     DlgServerWizard.obj
 0002:0000e9b8       ??_R2CDlgServerWizardItem1@@8 1004c9b8     DlgServerWizard.obj
 0002:0000e9d8       ??_R1A@?0A@EA@CDlgServerWizardItem1@@8 1004c9d8     DlgServerWizard.obj
 0002:0000e9fc       ??_R4CListHeaderCtrl@@6B@  1004c9fc     ListControl.obj
 0002:0000ea14       ??_R3CListHeaderCtrl@@8    1004ca14     ListControl.obj
 0002:0000ea28       ??_R2CListHeaderCtrl@@8    1004ca28     ListControl.obj
 0002:0000ea44       ??_R1A@?0A@EA@CListHeaderCtrl@@8 1004ca44     ListControl.obj
 0002:0000ea68       ??_R1A@?0A@EA@CHeaderCtrl@@8 1004ca68     ListControl.obj
 0002:0000ea8c       ??_R3CHeaderCtrl@@8        1004ca8c     ListControl.obj
 0002:0000eaa0       ??_R2CHeaderCtrl@@8        1004caa0     ListControl.obj
 0002:0000eab4       ??_R4CListControl@@6B@     1004cab4     ListControl.obj
 0002:0000eacc       ??_R3CListControl@@8       1004cacc     ListControl.obj
 0002:0000eae0       ??_R2CListControl@@8       1004cae0     ListControl.obj
 0002:0000eafc       ??_R1A@?0A@EA@CListControl@@8 1004cafc     ListControl.obj
 0002:0000eb20       ??_R1A@?0A@EA@CListCtrl@@8 1004cb20     ListControl.obj
 0002:0000eb44       ??_R3CListCtrl@@8          1004cb44     ListControl.obj
 0002:0000eb58       ??_R2CListCtrl@@8          1004cb58     ListControl.obj
 0002:0000eb6c       ??_R4CMatchListControl@@6B@ 1004cb6c     MatchListControl.obj
 0002:0000eb84       ??_R3CMatchListControl@@8  1004cb84     MatchListControl.obj
 0002:0000eb98       ??_R2CMatchListControl@@8  1004cb98     MatchListControl.obj
 0002:0000ebb8       ??_R1A@?0A@EA@CMatchListControl@@8 1004cbb8     MatchListControl.obj
 0002:0000ebdc       ??_R4CRewardListControl@@6B@ 1004cbdc     MatchListControl.obj
 0002:0000ebf4       ??_R3CRewardListControl@@8 1004cbf4     MatchListControl.obj
 0002:0000ec08       ??_R2CRewardListControl@@8 1004cc08     MatchListControl.obj
 0002:0000ec28       ??_R1A@?0A@EA@CRewardListControl@@8 1004cc28     MatchListControl.obj
 0002:0000ec4c       ??_R4?$CWHArray@PAUtagGameModuleInfo@@ABQAU1@@@6B@ 1004cc4c     ModuleInfoManager.obj
 0002:0000ec64       ??_R3?$CWHArray@PAUtagGameModuleInfo@@ABQAU1@@@8 1004cc64     ModuleInfoManager.obj
 0002:0000ec78       ??_R2?$CWHArray@PAUtagGameModuleInfo@@ABQAU1@@@8 1004cc78     ModuleInfoManager.obj
 0002:0000ec80       ??_R1A@?0A@EA@?$CWHArray@PAUtagGameModuleInfo@@ABQAU1@@@8 1004cc80     ModuleInfoManager.obj
 0002:0000eca4       ??_R4?$CMap@GGPAUtagGameModuleInfo@@PAU1@@@6B@ 1004cca4     ModuleInfoManager.obj
 0002:0000ecbc       ??_R3?$CMap@GGPAUtagGameModuleInfo@@PAU1@@@8 1004ccbc     ModuleInfoManager.obj
 0002:0000ecd0       ??_R2?$CMap@GGPAUtagGameModuleInfo@@PAU1@@@8 1004ccd0     ModuleInfoManager.obj
 0002:0000ecdc       ??_R1A@?0A@EA@?$CMap@GGPAUtagGameModuleInfo@@PAU1@@@8 1004ccdc     ModuleInfoManager.obj
 0002:0000ed00       ??_R4CModuleInfoBuffer@@6B@ 1004cd00     ModuleInfoManager.obj
 0002:0000ed18       ??_R3CModuleInfoBuffer@@8  1004cd18     ModuleInfoManager.obj
 0002:0000ed2c       ??_R2CModuleInfoBuffer@@8  1004cd2c     ModuleInfoManager.obj
 0002:0000ed34       ??_R1A@?0A@EA@CModuleInfoBuffer@@8 1004cd34     ModuleInfoManager.obj
 0002:0000ed58       ??_R4CModuleListControl@@6B@ 1004cd58     ModuleListControl.obj
 0002:0000ed70       ??_R3CModuleListControl@@8 1004cd70     ModuleListControl.obj
 0002:0000ed84       ??_R2CModuleListControl@@8 1004cd84     ModuleListControl.obj
 0002:0000eda4       ??_R1A@?0A@EA@CModuleListControl@@8 1004cda4     ModuleListControl.obj
 0002:0000edc8       ??_R4CServerCustomRule@@6B@ 1004cdc8     ServerCustomRule.obj
 0002:0000ede0       ??_R3CServerCustomRule@@8  1004cde0     ServerCustomRule.obj
 0002:0000edf4       ??_R2CServerCustomRule@@8  1004cdf4     ServerCustomRule.obj
 0002:0000edfc       ??_R1A@?0A@EA@CServerCustomRule@@8 1004cdfc     ServerCustomRule.obj
 0002:0000ee20       ??_R4?$CWHArray@PAUtagGameServerInfo@@ABQAU1@@@6B@ 1004ce20     ServerInfoManager.obj
 0002:0000ee38       ??_R3?$CWHArray@PAUtagGameServerInfo@@ABQAU1@@@8 1004ce38     ServerInfoManager.obj
 0002:0000ee4c       ??_R2?$CWHArray@PAUtagGameServerInfo@@ABQAU1@@@8 1004ce4c     ServerInfoManager.obj
 0002:0000ee54       ??_R1A@?0A@EA@?$CWHArray@PAUtagGameServerInfo@@ABQAU1@@@8 1004ce54     ServerInfoManager.obj
 0002:0000ee78       ??_R4?$CMap@GGPAUtagGameServerInfo@@PAU1@@@6B@ 1004ce78     ServerInfoManager.obj
 0002:0000ee90       ??_R3?$CMap@GGPAUtagGameServerInfo@@PAU1@@@8 1004ce90     ServerInfoManager.obj
 0002:0000eea4       ??_R2?$CMap@GGPAUtagGameServerInfo@@PAU1@@@8 1004cea4     ServerInfoManager.obj
 0002:0000eeb0       ??_R1A@?0A@EA@?$CMap@GGPAUtagGameServerInfo@@PAU1@@@8 1004ceb0     ServerInfoManager.obj
 0002:0000eed4       ??_R4CServerInfoBuffer@@6B@ 1004ced4     ServerInfoManager.obj
 0002:0000eeec       ??_R3CServerInfoBuffer@@8  1004ceec     ServerInfoManager.obj
 0002:0000ef00       ??_R2CServerInfoBuffer@@8  1004cf00     ServerInfoManager.obj
 0002:0000ef08       ??_R1A@?0A@EA@CServerInfoBuffer@@8 1004cf08     ServerInfoManager.obj
 0002:0000ef2c       ??_R4CServerListControl@@6B@ 1004cf2c     ServerListControl.obj
 0002:0000ef44       ??_R3CServerListControl@@8 1004cf44     ServerListControl.obj
 0002:0000ef58       ??_R2CServerListControl@@8 1004cf58     ServerListControl.obj
 0002:0000ef78       ??_R1A@?0A@EA@CServerListControl@@8 1004cf78     ServerListControl.obj
 0002:0000ef9c       ??_R4CWin32Heap@ATL@@6B@   1004cf9c     Stdafx.obj
 0002:0000efb4       ??_R3CWin32Heap@ATL@@8     1004cfb4     Stdafx.obj
 0002:0000efc8       ??_R2CWin32Heap@ATL@@8     1004cfc8     Stdafx.obj
 0002:0000efd4       ??_R1A@?0A@EA@CWin32Heap@ATL@@8 1004cfd4     Stdafx.obj
 0002:0000eff8       ??_R1A@?0A@EA@IAtlMemMgr@ATL@@8 1004cff8     Stdafx.obj
 0002:0000f01c       ??_R3IAtlMemMgr@ATL@@8     1004d01c     Stdafx.obj
 0002:0000f030       ??_R2IAtlMemMgr@ATL@@8     1004d030     Stdafx.obj
 0002:0000f038       ??_R1A@?0A@EA@IAtlStringMgr@ATL@@8 1004d038     Stdafx.obj
 0002:0000f05c       ??_R3IAtlStringMgr@ATL@@8  1004d05c     Stdafx.obj
 0002:0000f070       ??_R2IAtlStringMgr@ATL@@8  1004d070     Stdafx.obj
 0002:0000f078       ??_R4CAtlStringMgr@ATL@@6B@ 1004d078     Stdafx.obj
 0002:0000f090       ??_R3CAtlStringMgr@ATL@@8  1004d090     Stdafx.obj
 0002:0000f0a4       ??_R2CAtlStringMgr@ATL@@8  1004d0a4     Stdafx.obj
 0002:0000f0b0       ??_R1A@?0A@EA@CAtlStringMgr@ATL@@8 1004d0b0     Stdafx.obj
 0002:0000f0d4       ??_R4type_info@@6B@        1004d0d4     msvcrtd:std_type_info_static.obj
 0002:0000f0ec       ??_R3type_info@@8          1004d0ec     msvcrtd:std_type_info_static.obj
 0002:0000f100       ??_R2type_info@@8          1004d100     msvcrtd:std_type_info_static.obj
 0002:0000f108       ??_R1A@?0A@EA@type_info@@8 1004d108     msvcrtd:std_type_info_static.obj
 0002:0000f2b0       ___safe_se_handler_table   1004d2b0     <linker-defined>
 0002:0000f79c       ___rtc_iaa                 1004d79c     msvcrtd:initsect.obj
 0002:0000f9ac       ___rtc_izz                 1004d9ac     msvcrtd:initsect.obj
 0002:0000fab0       ___rtc_taa                 1004dab0     msvcrtd:initsect.obj
 0002:0000fcc0       ___rtc_tzz                 1004dcc0     msvcrtd:initsect.obj
 0002:00012070       ___pobjMapEntryFirst       10050070     Stdafx.obj
 0002:00012174       ___pobjMapEntryLast        10050174     Stdafx.obj
 0003:00000000       ?m_nCategory@CTrace@ATL@@1IA 10058000     DlgMatchWizard.obj
 0003:00000004       ?__LINE__Var@?0??AtlThrowImpl@ATL@@YGXJ@Z@4JA 10058004     DlgMatchWizard.obj
 0003:00000008       ?__LINE__Var@?0???0CTime@ATL@@QAE@HHHHHHH@Z@4JA 10058008     DlgMatchWizard.obj
 0003:0000000c       ?__LINE__Var@?0??GetLocalTm@CTime@ATL@@QBEPAUtm@@PAU4@@Z@4JA 1005800c     DlgMatchWizard.obj
 0003:00000010       ?__LINE__Var@?0??_Maklocwcs@std@@YAPA_WPB_W@Z@4JA 10058010     DlgMatchWizard.obj
 0003:00000014       ?__LINE__Var@?0??SetMatchRewardOption@CDlgMatchReward@@IAEXPAUtagMatchRewardInfo@@@Z@4JA 10058014     DlgMatchWizard.obj
 0003:00000018       ?__LINE__Var@?0??OnBnClickedLast@CDlgMatchWizard@@QAEXXZ@4JA 10058018     DlgMatchWizard.obj
 0003:0000001c       ?__LINE__Var@?0??OnBnClickedNext@CDlgMatchWizard@@QAEXXZ@4JA 1005801c     DlgMatchWizard.obj
 0003:00000020       ?__LINE__Var@?0??OnBnClickedFinish@CDlgMatchWizard@@QAEXXZ@4JA 10058020     DlgMatchWizard.obj
 0003:00000024       ?__LINE__Var@?0??LoadDBServerItem@CDlgServerItem@@IAE_NXZ@4JA 10058024     DlgServerItem.obj
 0003:00000028       ?__LINE__Var@?0??GetModuleInitParameter@CDlgServerItem@@IAE_NPAUtagGameServerInfo@@_N@Z@4JA 10058028     DlgServerItem.obj
 0003:0000002c       ?__LINE__Var@?0??OnBnClickedLoadServer@CDlgServerItem@@IAEXXZ@4JA 1005802c     DlgServerItem.obj
 0003:00000030       ?__LINE__Var@?0??OnBnClickedDeleteServer@CDlgServerItem@@IAEXXZ@4JA 10058030     DlgServerItem.obj
 0003:00000034       ?__LINE__Var@?0??LoadDBMatchItem@CDlgServerMatch@@IAE_NXZ@4JA 10058034     DlgServerMatch.obj
 0003:00000038       ?__LINE__Var@?0??QueryMatchDataBase@CDlgServerMatch@@IAE_NXZ@4JA 10058038     DlgServerMatch.obj
 0003:0000003c       ?__LINE__Var@?0??OnBnClickedLoadMatch@CDlgServerMatch@@IAEXXZ@4JA 1005803c     DlgServerMatch.obj
 0003:00000040       ?__LINE__Var@?0??OnBnClickedOptionMatch@CDlgServerMatch@@IAEXXZ@4JA 10058040     DlgServerMatch.obj
 0003:00000044       ?__LINE__Var@?0??OnBnClickedDeleteMatch@CDlgServerMatch@@IAEXXZ@4JA 10058044     DlgServerMatch.obj
 0003:00000048       ?__LINE__Var@?0??LoadDBModuleItem@CDlgServerWizardItem1@@IAE_NXZ@4JA 10058048     DlgServerWizard.obj
 0003:0000004c       ?__LINE__Var@?0??SetWizardParameter@CDlgServerWizard@@QAEXPAUIGameServiceManager@@PAUtagGameServiceOption@@@Z@4JA 1005804c     DlgServerWizard.obj
 0003:00000050       ?__LINE__Var@?0??OnBnClickedLast@CDlgServerWizard@@QAEXXZ@4JA 10058050     DlgServerWizard.obj
 0003:00000054       ?__LINE__Var@?0??OnBnClickedNext@CDlgServerWizard@@QAEXXZ@4JA 10058054     DlgServerWizard.obj
 0003:00000058       ?__LINE__Var@?0??OnBnClickedFinish@CDlgServerWizard@@QAEXXZ@4JA 10058058     DlgServerWizard.obj
 0003:0000005c       ?__LINE__Var@?0???1CMatchInfoBuffer@@UAE@XZ@4JA 1005805c     MatchInfoManager.obj
 0003:00000060       ?__LINE__Var@?0??InsertMatchOption@CMatchInfoBuffer@@QAEPAUtagGameMatchOption@@PAU3@@Z@4JA 10058060     MatchInfoManager.obj
 0003:00000064       ?__LINE__Var@?0???1CRewardInfoBuffer@@UAE@XZ@4JA 10058064     MatchInfoManager.obj
 0003:00000068       ?__LINE__Var@?0??InsertMatchRewardInfo@CRewardInfoBuffer@@QAEPAUtagMatchRewardInfo@@AAU3@@Z@4JA 10058068     MatchInfoManager.obj
 0003:0000006c       ?__LINE__Var@?0??LoadGameMatchReward@CMatchInfoManager@@QAEGKAAVCRewardInfoBuffer@@@Z@4JA 1005806c     MatchInfoManager.obj
 0003:00000070       ?__LINE__Var@?0??LoadGameMatchOption@CMatchInfoManager@@QAE_NGKAAUtagGameMatchOption@@@Z@4JA 10058070     MatchInfoManager.obj
 0003:00000074       ?__LINE__Var@?0??LoadGameMatchOption@CMatchInfoManager@@QAE_NGQADAAVCMatchInfoBuffer@@@Z@4JA 10058074     MatchInfoManager.obj
 0003:00000078       ?__LINE__Var@?0??DeleteGameMatchOption@CMatchInfoManager@@QAE_NK@Z@4JA 10058078     MatchInfoManager.obj
 0003:0000007c       ?__LINE__Var@?0??InsertGameMatchOption@CMatchInfoManager@@QAE_NPAUtagCreateMatchInfo@@AAUtagGameMatchOption@@@Z@4JA 1005807c     MatchInfoManager.obj
 0003:00000080       ?__LINE__Var@?0??ModifyGameMatchOption@CMatchInfoManager@@QAE_NPAUtagCreateMatchInfo@@AAUtagGameMatchOption@@@Z@4JA 10058080     MatchInfoManager.obj
 0003:00000084       ?__LINE__Var@?0??ReadGameMatchOption@CMatchInfoManager@@AAE_NAAVCDataBaseAide@@AAUtagGameMatchOption@@@Z@4JA 10058084     MatchInfoManager.obj
 0003:00000088       ?__LINE__Var@?0??GetListItemColor@CMatchListControl@@UAEXJIAAUtagListItemColor@@@Z@4JA 10058088     MatchListControl.obj
 0003:0000008c       ?__LINE__Var@?0??GetListItemColor@CRewardListControl@@UAEXJIAAUtagListItemColor@@@Z@4JA 1005808c     MatchListControl.obj
 0003:00000090       ?__LINE__Var@?0???0CModuleDBParameter@@QAE@XZ@4JA 10058090     ModuleDBParameter.obj
 0003:00000094       ?__LINE__Var@?0???1CModuleDBParameter@@UAE@XZ@4JA 10058094     ModuleDBParameter.obj
 0003:00000098       ?__LINE__Var@?0???1CModuleInfoBuffer@@UAE@XZ@4JA 10058098     ModuleInfoManager.obj
 0003:0000009c       ?__LINE__Var@?0??InsertModuleInfo@CModuleInfoBuffer@@QAE_NPAUtagGameModuleInfo@@@Z@4JA 1005809c     ModuleInfoManager.obj
 0003:000000a0       ?__LINE__Var@?0??GetListItemColor@CModuleListControl@@UAEXJIAAUtagListItemColor@@@Z@4JA 100580a0     ModuleListControl.obj
 0003:000000a4       ?__LINE__Var@?0???1CServerInfoBuffer@@UAE@XZ@4JA 100580a4     ServerInfoManager.obj
 0003:000000a8       ?__LINE__Var@?0??InsertServerInfo@CServerInfoBuffer@@QAE_NPAUtagGameServerInfo@@@Z@4JA 100580a8     ServerInfoManager.obj
 0003:000000ac       ?__LINE__Var@?0???1CMatchOptionBuffer@@UAE@XZ@4JA 100580ac     ServerInfoManager.obj
 0003:000000b0       ?__LINE__Var@?0??InsertMatchOption@CMatchOptionBuffer@@QAE_NPAUtagGameMatchOption@@@Z@4JA 100580b0     ServerInfoManager.obj
 0003:000000b4       ?__LINE__Var@?0??LoadGameServerInfo@CServerInfoManager@@QAE_NQADAAVCServerInfoBuffer@@@Z@4JA 100580b4     ServerInfoManager.obj
 0003:000000b8       ?__LINE__Var@?0??LoadGameServerInfo@CServerInfoManager@@QAE_NQADGAAUtagGameServerInfo@@@Z@4JA 100580b8     ServerInfoManager.obj
 0003:000000bc       ?__LINE__Var@?0??DeleteGameServer@CServerInfoManager@@QAE_NG@Z@4JA 100580bc     ServerInfoManager.obj
 0003:000000c0       ?__LINE__Var@?0??InsertGameServer@CServerInfoManager@@QAE_NPAUtagGameServerCreate@@AAUtagGameServerInfo@@@Z@4JA 100580c0     ServerInfoManager.obj
 0003:000000c4       ?__LINE__Var@?0??ModifyGameServer@CServerInfoManager@@QAE_NPAUtagGameServerCreate@@AAUtagGameServerInfo@@@Z@4JA 100580c4     ServerInfoManager.obj
 0003:000000c8       ?__LINE__Var@?0??ReadGameServerInfo@CServerInfoManager@@AAE_NAAVCDataBaseAide@@AAUtagGameServerInfo@@@Z@4JA 100580c8     ServerInfoManager.obj
 0003:000000cc       ?__LINE__Var@?0??LoadPersonalRoomParameter@CServerInfoManager@@QAE_NAAUtagPersonalRoomOption@@AAUtagPersonalRoomOptionRightAndFee@@G@Z@4JA 100580cc     ServerInfoManager.obj
 0003:000000d0       ?__LINE__Var@?0??GetListItemColor@CServerListControl@@UAEXJIAAUtagListItemColor@@@Z@4JA 100580d0     ServerListControl.obj
 0003:000000d4       __pIncludeInitManaged      100580d4     Stdafx.obj
 0003:000000d8       ?__LINE__Var@?0??AtlWinModuleInit@ATL@@YGJPAU_ATL_WIN_MODULE70@2@@Z@4JA 100580d8     Stdafx.obj
 0003:000000dc       _WinbaseIsolationAwarePrivateT_UnPgpgk 100580dc     mfcs140d:nolib.obj
 0003:000000e0       ___security_cookie_complement 100580e0     msvcrtd:gs_cookie.obj
 0003:000000e4       ___security_cookie         100580e4     msvcrtd:gs_cookie.obj
 0003:000000f0       ___scrt_native_dllmain_reason 100580f0     msvcrtd:utility.obj
 0003:000000f4       __Init_global_epoch        100580f4     msvcrtd:thread_safe_statics.obj
 0003:000000f8       ___isa_enabled             100580f8     msvcrtd:cpu_disp.obj
 0003:000000fc       ?_RTC_ErrorLevels@@3PAHA   100580fc     msvcrtd:error.obj
 0003:00000114       ___scrt_ucrt_dll_is_in_use 10058114     msvcrtd:ucrt_stubs.obj
 0003:0000024c       ??_R0?AVCObject@@@8        1005824c     DlgMatchWizard.obj
 0003:00000268       ??_R0?AVCDialog@@@8        10058268     DlgMatchWizard.obj
 0003:00000284       ??_R0?AVCWnd@@@8           10058284     DlgMatchWizard.obj
 0003:0000029c       ??_R0?AVCCmdTarget@@@8     1005829c     DlgMatchWizard.obj
 0003:000002bc       ??_R0?AV?$CWHArray@PAUtagGameMatchOption@@ABQAU1@@@@8 100582bc     DlgMatchWizard.obj
 0003:00000300       ??_R0?AV?$CWHArray@PAUtagMatchRewardInfo@@ABQAU1@@@@8 10058300     DlgMatchWizard.obj
 0003:00000344       ??_R0?AVCMatchInfoBuffer@@@8 10058344     DlgMatchWizard.obj
 0003:0000036c       ??_R0?AVCRewardInfoBuffer@@@8 1005836c     DlgMatchWizard.obj
 0003:00000394       ??_R0?AVCMatchInfoManager@@@8 10058394     DlgMatchWizard.obj
 0003:000003bc       ??_R0?AVCDlgMatchItem@@@8  100583bc     DlgMatchWizard.obj
 0003:000003e0       ??_R0?AVCDlgMatchWizard@@@8 100583e0     DlgMatchWizard.obj
 0003:00000404       ??_R0?AVCDlgMatchWizardStep1@@@8 10058404     DlgMatchWizard.obj
 0003:00000430       ??_R0?AVCDlgMatchWizardItem@@@8 10058430     DlgMatchWizard.obj
 0003:00000458       ??_R0?AVCDlgMatchWizardStep2@@@8 10058458     DlgMatchWizard.obj
 0003:00000484       ??_R0?AVCDlgMatchSignup1@@@8 10058484     DlgMatchWizard.obj
 0003:000004ac       ??_R0?AVCDlgMatchSignup2@@@8 100584ac     DlgMatchWizard.obj
 0003:000004d4       ??_R0?AVCDlgMatchDistribute@@@8 100584d4     DlgMatchWizard.obj
 0003:000004fc       ??_R0?AVCDlgMatchRankingMode@@@8 100584fc     DlgMatchWizard.obj
 0003:00000528       ??_R0?AVCDlgMatchReward@@@8 10058528     DlgMatchWizard.obj
 0003:0000054c       ??_R0?AVCDlgMatchLockTime@@@8 1005854c     DlgMatchWizard.obj
 0003:00000574       ??_R0?AVCDlgMatchImmediate@@@8 10058574     DlgMatchWizard.obj
 0003:0000059c       ??_R0PAD@8                 1005859c     DlgServerItem.obj
 0003:000005ac       ??_R0?AVCGameServiceManagerHelper@@@8 100585ac     DlgServerItem.obj
 0003:000005dc       ??_R0?AV?$CTempldateHelper@UIGameServiceManager@@@@@8 100585dc     DlgServerItem.obj
 0003:00000620       ??_R0?AVCMatchOptionBuffer@@@8 10058620     DlgServerItem.obj
 0003:00000648       ??_R0?AVCServerInfoManager@@@8 10058648     DlgServerItem.obj
 0003:00000670       ??_R0?AVCDlgServerItem@@@8 10058670     DlgServerItem.obj
 0003:00000694       ??_R0PAUIDataBaseException@@@8 10058694     DlgServerMatch.obj
 0003:000006bc       ??_R0?AVCDataBaseHelper@@@8 100586bc     DlgServerMatch.obj
 0003:000006e0       ??_R0?AV?$CTempldateHelper@UIDataBase@@@@@8 100586e0     DlgServerMatch.obj
 0003:00000718       ??_R0?AVCDlgServerMatch@@@8 10058718     DlgServerMatch.obj
 0003:0000073c       ??_R0?AVCModuleDBParameter@@@8 1005873c     DlgServerMatch.obj
 0003:00000764       ??_R0?AVCModuleInfoManager@@@8 10058764     DlgServerWizard.obj
 0003:0000078c       ??_R0?AVCDlgServerWizard@@@8 1005878c     DlgServerWizard.obj
 0003:000007b4       ??_R0?AVCDlgServerOptionItem@@@8 100587b4     DlgServerWizard.obj
 0003:000007e0       ??_R0?AVCDlgServerWizardItem2@@@8 100587e0     DlgServerWizard.obj
 0003:0000080c       ??_R0?AVCDlgServerWizardItem@@@8 1005880c     DlgServerWizard.obj
 0003:00000838       ??_R0?AVCDlgServerOptionItem1@@@8 10058838     DlgServerWizard.obj
 0003:00000864       ??_R0?AVCDlgServerOptionItem2@@@8 10058864     DlgServerWizard.obj
 0003:00000890       ??_R0?AVCDlgServerOptionItem3@@@8 10058890     DlgServerWizard.obj
 0003:000008bc       ??_R0?AVCDlgServerOptionItem5@@@8 100588bc     DlgServerWizard.obj
 0003:000008e8       ??_R0?AVCDlgServerOptionItemCustom@@@8 100588e8     DlgServerWizard.obj
 0003:0000091c       ??_R0?AVCDlgServerOptionItemPersonal@@@8 1005891c     DlgServerWizard.obj
 0003:00000950       ??_R0?AVCDlgServerWizardItem1@@@8 10058950     DlgServerWizard.obj
 0003:0000097c       ??_R0?AVCListHeaderCtrl@@@8 1005897c     ListControl.obj
 0003:000009a0       ??_R0?AVCHeaderCtrl@@@8    100589a0     ListControl.obj
 0003:000009c0       ??_R0?AVCListControl@@@8   100589c0     ListControl.obj
 0003:000009e0       ??_R0?AVCListCtrl@@@8      100589e0     ListControl.obj
 0003:000009fc       ??_R0?AVCMatchListControl@@@8 100589fc     MatchListControl.obj
 0003:00000a24       ??_R0?AVCRewardListControl@@@8 10058a24     MatchListControl.obj
 0003:00000a4c       ??_R0?AV?$CWHArray@PAUtagGameModuleInfo@@ABQAU1@@@@8 10058a4c     ModuleInfoManager.obj
 0003:00000a90       ??_R0?AV?$CMap@GGPAUtagGameModuleInfo@@PAU1@@@@8 10058a90     ModuleInfoManager.obj
 0003:00000ad0       ??_R0?AVCModuleInfoBuffer@@@8 10058ad0     ModuleInfoManager.obj
 0003:00000af8       ??_R0?AVCModuleListControl@@@8 10058af8     ModuleListControl.obj
 0003:00000b20       ??_R0?AVCServerCustomRule@@@8 10058b20     ServerCustomRule.obj
 0003:00000b48       ??_R0?AV?$CWHArray@PAUtagGameServerInfo@@ABQAU1@@@@8 10058b48     ServerInfoManager.obj
 0003:00000b8c       ??_R0?AV?$CMap@GGPAUtagGameServerInfo@@PAU1@@@@8 10058b8c     ServerInfoManager.obj
 0003:00000bcc       ??_R0?AVCServerInfoBuffer@@@8 10058bcc     ServerInfoManager.obj
 0003:00000bf4       ??_R0?AVCServerListControl@@@8 10058bf4     ServerListControl.obj
 0003:00000c1c       ??_R0?AVCWin32Heap@ATL@@@8 10058c1c     Stdafx.obj
 0003:00000c40       ??_R0?AUIAtlMemMgr@ATL@@@8 10058c40     Stdafx.obj
 0003:00000c64       ??_R0?AUIAtlStringMgr@ATL@@@8 10058c64     Stdafx.obj
 0003:00000c8c       ??_R0?AVCAtlStringMgr@ATL@@@8 10058c8c     Stdafx.obj
 0003:00000cb4       ??_R0?AVtype_info@@@8      10058cb4     msvcrtd:std_type_info_static.obj
 0003:00000df8       ?_OptionsStorage@?1??__local_stdio_printf_options@@9@4_KA 10058df8     DlgMatchWizard.obj
 0003:00000e04       ?atlTraceException@ATL@@3V?$CTraceCategoryEx@$0CAAA@$0A@@1@A 10058e04     DlgMatchWizard.obj
 0003:00000e08       ?m_nLevel@CTrace@ATL@@1IA  10058e08     DlgMatchWizard.obj
 0003:00000e0c       ?m_nLastCategory@CTrace@ATL@@1IA 10058e0c     DlgMatchWizard.obj
 0003:00000e10       ?m_nMap@CTrace@ATL@@1PAUCategoryMap@12@A 10058e10     DlgMatchWizard.obj
 0003:00003510       ?atlTraceString@ATL@@3V?$CTraceCategoryEx@$0CAAAA@$0A@@1@A 1005b510     DlgServerWizard.obj
 0003:0000364c       ?m_pModuleDBParameter@CModuleDBParameter@@1PAV1@A 1005b64c     ModuleDBParameter.obj
 0003:00003650       __afxForceEXTDLL           1005b650     ModuleManager.obj
 0003:0000370c       ?_pPerfRegFunc@ATL@@3P6AJPAUHINSTANCE__@@@ZA 1005b70c     Stdafx.obj
 0003:00003710       ?_pPerfUnRegFunc@ATL@@3P6AJXZA 1005b710     Stdafx.obj
 0003:00003714       ?_AtlRegisterPerUser@ATL@@3_NA 1005b714     Stdafx.obj
 0003:00003718       ?_pAtlModule@ATL@@3PAVCAtlModule@1@A 1005b718     Stdafx.obj
 0003:0000371c       ?_pModule@ATL@@3PAVCComModule@1@A 1005b71c     Stdafx.obj
 0003:00003720       ?_pAtlAutoThreadModule@ATL@@3PAUIAtlAutoThreadModule@1@A 1005b720     Stdafx.obj
 0003:00003724       ___@@_PchSym_@00@UKlsKomKqyKlsKroKqzUszkkbtznvdsUKltKqnKrmKluKrpKpyKlsKpoKpkUKlvKorKpmKlqKqsKovKlsKqoKplKluKomKquUKltKprKpyKluKqmKqsKlsKplKpyKlsKqzKrtUwvyftPzmhrUhgwzucOlyq@4B2008FD98C1DD4 1005b724     Stdafx.obj
 0003:00003728       ?atlTraceGeneral@ATL@@3V?$CTraceCategoryEx@$00$0A@@1@A 1005b728     Stdafx.obj
 0003:0000372c       ?atlTraceCOM@ATL@@3V?$CTraceCategoryEx@$01$0A@@1@A 1005b72c     Stdafx.obj
 0003:00003730       ?atlTraceQI@ATL@@3V?$CTraceCategoryEx@$03$0A@@1@A 1005b730     Stdafx.obj
 0003:00003734       ?atlTraceRegistrar@ATL@@3V?$CTraceCategoryEx@$07$0A@@1@A 1005b734     Stdafx.obj
 0003:00003738       ?atlTraceRefcount@ATL@@3V?$CTraceCategoryEx@$0BA@$0A@@1@A 1005b738     Stdafx.obj
 0003:0000373c       ?atlTraceWindowing@ATL@@3V?$CTraceCategoryEx@$0CA@$0A@@1@A 1005b73c     Stdafx.obj
 0003:00003740       ?atlTraceControls@ATL@@3V?$CTraceCategoryEx@$0EA@$0A@@1@A 1005b740     Stdafx.obj
 0003:00003744       ?atlTraceHosting@ATL@@3V?$CTraceCategoryEx@$0IA@$0A@@1@A 1005b744     Stdafx.obj
 0003:00003748       ?atlTraceDBClient@ATL@@3V?$CTraceCategoryEx@$0BAA@$0A@@1@A 1005b748     Stdafx.obj
 0003:0000374c       ?atlTraceDBProvider@ATL@@3V?$CTraceCategoryEx@$0CAA@$0A@@1@A 1005b74c     Stdafx.obj
 0003:00003750       ?atlTraceSnapin@ATL@@3V?$CTraceCategoryEx@$0EAA@$0A@@1@A 1005b750     Stdafx.obj
 0003:00003754       ?atlTraceNotImpl@ATL@@3V?$CTraceCategoryEx@$0IAA@$0A@@1@A 1005b754     Stdafx.obj
 0003:00003758       ?atlTraceAllocation@ATL@@3V?$CTraceCategoryEx@$0BAAA@$0A@@1@A 1005b758     Stdafx.obj
 0003:0000375c       ?atlTraceTime@ATL@@3V?$CTraceCategoryEx@$0EAAA@$0A@@1@A 1005b75c     Stdafx.obj
 0003:00003760       ?atlTraceCache@ATL@@3V?$CTraceCategoryEx@$0IAAA@$0A@@1@A 1005b760     Stdafx.obj
 0003:00003764       ?atlTraceStencil@ATL@@3V?$CTraceCategoryEx@$0BAAAA@$0A@@1@A 1005b764     Stdafx.obj
 0003:00003768       ?atlTraceMap@ATL@@3V?$CTraceCategoryEx@$0EAAAA@$0A@@1@A 1005b768     Stdafx.obj
 0003:0000376c       ?atlTraceUtil@ATL@@3V?$CTraceCategoryEx@$0IAAAA@$0A@@1@A 1005b76c     Stdafx.obj
 0003:00003770       ?atlTraceSecurity@ATL@@3V?$CTraceCategoryEx@$0BAAAAA@$0A@@1@A 1005b770     Stdafx.obj
 0003:00003774       ?atlTraceSync@ATL@@3V?$CTraceCategoryEx@$0CAAAAA@$0A@@1@A 1005b774     Stdafx.obj
 0003:00003778       ?atlTraceISAPI@ATL@@3V?$CTraceCategoryEx@$0EAAAAA@$0A@@1@A 1005b778     Stdafx.obj
 0003:0000377c       ?m_bInitFailed@CAtlBaseModule@ATL@@2_NA 1005b77c     Stdafx.obj
 0003:00003780       ?_AtlComModule@ATL@@3VCAtlComModule@1@A 1005b780     Stdafx.obj
 0003:000037b0       ?_AtlWinModule@ATL@@3VCAtlWinModule@1@A 1005b7b0     Stdafx.obj
 0003:000037e4       ?strHeap@?1??GetInstance@CAtlStringMgr@ATL@@SAPAUIAtlStringMgr@3@XZ@4VCWin32Heap@3@A 1005b7e4     Stdafx.obj
 0003:000037f4       ?$TSS0@?1??GetInstance@CAtlStringMgr@ATL@@SAPAUIAtlStringMgr@3@XZ@4HA 1005b7f4     Stdafx.obj
 0003:000037f8       ?strMgr@?1??GetInstance@CAtlStringMgr@ATL@@SAPAUIAtlStringMgr@3@XZ@4V23@A 1005b7f8     Stdafx.obj
 0003:0000381c       ?$TSS1@?1??GetInstance@CAtlStringMgr@ATL@@SAPAUIAtlStringMgr@3@XZ@4HA 1005b81c     Stdafx.obj
 0003:00003820       ?InitializeCAtlStringMgr@ATLImplementationDetails@ATL@@3UCAtlStringMgrStaticInitializer@12@A 1005b820     Stdafx.obj
 0003:00003824       __afxForceEXCLUDE          1005b824     mfcs140d:nolib.obj
 0003:00003828       _IsolationAwarePrivateT_SqbjaYRiRY 1005b828     mfcs140d:nolib.obj
 0003:0000382c       _IsolationAwarePrivateT_SAbnPgpgk 1005b82c     mfcs140d:nolib.obj
 0003:00003830       _WinbaseIsolationAwarePrivateT_SpeRNgRQnPgpgk 1005b830     mfcs140d:nolib.obj
 0003:00003834       _WinbaseIsolationAwarePrivateT_SpYRNahcpNYYRQ 1005b834     mfcs140d:nolib.obj
 0003:00003838       ?s_pfn@?1??IsolationAwareCreateActCtxW@@9@4@4P6GPAXPBUtagACTCTXW@@@ZA 1005b838     mfcs140d:nolib.obj
 0003:0000383c       ?s_pfn@?1??IsolationAwareActivateActCtx@@9@8@4P6GHPAXPAK@ZA 1005b83c     mfcs140d:nolib.obj
 0003:00003840       ?s_pfn@?1??IsolationAwareDeactivateActCtx@@9@8@4P6GHKK@ZA 1005b840     mfcs140d:nolib.obj
 0003:00003844       ?s_pfn@?1??IsolationAwareFindActCtxSectionStringW@@9@20@4P6GHKPBU_GUID@@KPB_WPAUtagACTCTX_SECTION_KEYED_DATA@@@ZA 1005b844     mfcs140d:nolib.obj
 0003:00003848       ?s_pfn@?1??IsolationAwareQueryActCtxW@@9@28@4P6GHKPAX0K0KPAK@ZA 1005b848     mfcs140d:nolib.obj
 0003:0000384c       ?m@?1??WinbaseIsolationAwarePrivatetRgCebPnQQeRff_xReaRYQP_QYY@@9@4@4UIsolationAwarePrivate_zHGnoyr_zBqHyr_vAsB@@A 1005b84c     mfcs140d:nolib.obj
 0003:00003850       ??_B?1??GetInstance@CAtlStringMgr@ATL@@SAPAUIAtlStringMgr@2@XZ@51 1005b850     mfcs140d:nolib.obj
 0003:00003854       __afxForceSTDAFX           1005b854     mfcs140d:stdafx.obj
 0003:00003858       ___scrt_current_native_startup_state 1005b858     msvcrtd:utility.obj
 0003:0000385c       ___scrt_native_startup_lock 1005b85c     msvcrtd:utility.obj
 0003:000038b4       __tls_index                1005b8b4     msvcrtd:tlssup.obj
 0003:00003c7c       ___isa_available           1005bc7c     msvcrtd:cpu_disp.obj
 0003:00003c80       ___favor                   1005bc80     msvcrtd:cpu_disp.obj
 0003:00003c88       ___scrt_debugger_hook_flag 1005bc88     msvcrtd:utility_desktop.obj
 0003:00003c90       ?__type_info_root_node@@3U__type_info_node@@A 1005bc90     msvcrtd:tncleanup.obj
 0003:00003ca0       ?_OptionsStorage@?1??__local_stdio_scanf_options@@9@4_KA 1005bca0     msvcrtd:default_local_stdio_options.obj
 0003:00003cc0       ?_AtlBaseModule@ATL@@3VCAtlBaseModule@1@A 1005bcc0     atls:atlbase.obj
 0003:00003d04       ___@@_PchSym_@00@UztvmgUPdlipUDUhUrmgvinvwrzgvUexgllohUzgohOmzgrevkilqPBACIAJCBDBUlyqiUcIGUhgwzucOlyq@4B2008FD98C1DD4 1005bd04     atls:stdafx.obj
 0003:00003d08       ___dyn_tls_init_callback   1005bd08     <common>
 0004:00000000       __imp__OutputDebugStringW@4 1005c000     kernel32:KERNEL32.dll
 0004:00000004       __imp__SetLastError@4      1005c004     kernel32:KERNEL32.dll
 0004:00000008       __imp__GetModuleHandleA@4  1005c008     kernel32:KERNEL32.dll
 0004:0000000c       __imp__lstrcpynA@12        1005c00c     kernel32:KERNEL32.dll
 0004:00000010       __imp__MultiByteToWideChar@24 1005c010     kernel32:KERNEL32.dll
 0004:00000014       __imp__GetProcAddress@8    1005c014     kernel32:KERNEL32.dll
 0004:00000018       __imp__FreeLibrary@4       1005c018     kernel32:KERNEL32.dll
 0004:0000001c       __imp__LoadLibraryA@4      1005c01c     kernel32:KERNEL32.dll
 0004:00000020       __imp__lstrcmpA@8          1005c020     kernel32:KERNEL32.dll
 0004:00000024       __imp__lstrcmpiA@8         1005c024     kernel32:KERNEL32.dll
 0004:00000028       __imp__lstrcpyA@8          1005c028     kernel32:KERNEL32.dll
 0004:0000002c       __imp__lstrlenA@4          1005c02c     kernel32:KERNEL32.dll
 0004:00000030       __imp__WritePrivateProfileStringA@16 1005c030     kernel32:KERNEL32.dll
 0004:00000034       __imp__DecodePointer@4     1005c034     kernel32:KERNEL32.dll
 0004:00000038       __imp__RaiseException@16   1005c038     kernel32:KERNEL32.dll
 0004:0000003c       __imp__HeapDestroy@4       1005c03c     kernel32:KERNEL32.dll
 0004:00000040       __imp__HeapAlloc@12        1005c040     kernel32:KERNEL32.dll
 0004:00000044       __imp__HeapReAlloc@16      1005c044     kernel32:KERNEL32.dll
 0004:00000048       __imp__HeapFree@12         1005c048     kernel32:KERNEL32.dll
 0004:0000004c       __imp__HeapSize@12         1005c04c     kernel32:KERNEL32.dll
 0004:00000050       __imp__GetProcessHeap@0    1005c050     kernel32:KERNEL32.dll
 0004:00000054       __imp__InitializeCriticalSectionAndSpinCount@8 1005c054     kernel32:KERNEL32.dll
 0004:00000058       __imp__DeleteCriticalSection@4 1005c058     kernel32:KERNEL32.dll
 0004:0000005c       __imp__OutputDebugStringA@4 1005c05c     kernel32:KERNEL32.dll
 0004:00000060       __imp__GetModuleFileNameW@12 1005c060     kernel32:KERNEL32.dll
 0004:00000064       __imp__GetModuleHandleW@4  1005c064     kernel32:KERNEL32.dll
 0004:00000068       __imp__LoadLibraryW@4      1005c068     kernel32:KERNEL32.dll
 0004:0000006c       __imp__CloseHandle@4       1005c06c     kernel32:KERNEL32.dll
 0004:00000070       __imp__EnterCriticalSection@4 1005c070     kernel32:KERNEL32.dll
 0004:00000074       __imp__LeaveCriticalSection@4 1005c074     kernel32:KERNEL32.dll
 0004:00000078       __imp__SetEvent@4          1005c078     kernel32:KERNEL32.dll
 0004:0000007c       __imp__ResetEvent@4        1005c07c     kernel32:KERNEL32.dll
 0004:00000080       __imp__WaitForSingleObjectEx@12 1005c080     kernel32:KERNEL32.dll
 0004:00000084       __imp__CreateEventW@16     1005c084     kernel32:KERNEL32.dll
 0004:00000088       __imp__UnhandledExceptionFilter@4 1005c088     kernel32:KERNEL32.dll
 0004:0000008c       __imp__SetUnhandledExceptionFilter@4 1005c08c     kernel32:KERNEL32.dll
 0004:00000090       __imp__GetCurrentProcess@0 1005c090     kernel32:KERNEL32.dll
 0004:00000094       __imp__TerminateProcess@8  1005c094     kernel32:KERNEL32.dll
 0004:00000098       __imp__IsProcessorFeaturePresent@4 1005c098     kernel32:KERNEL32.dll
 0004:0000009c       __imp__IsDebuggerPresent@0 1005c09c     kernel32:KERNEL32.dll
 0004:000000a0       __imp__GetStartupInfoW@4   1005c0a0     kernel32:KERNEL32.dll
 0004:000000a4       __imp__QueryPerformanceCounter@4 1005c0a4     kernel32:KERNEL32.dll
 0004:000000a8       __imp__GetCurrentProcessId@0 1005c0a8     kernel32:KERNEL32.dll
 0004:000000ac       __imp__GetCurrentThreadId@0 1005c0ac     kernel32:KERNEL32.dll
 0004:000000b0       __imp__GetSystemTimeAsFileTime@4 1005c0b0     kernel32:KERNEL32.dll
 0004:000000b4       __imp__InitializeSListHead@4 1005c0b4     kernel32:KERNEL32.dll
 0004:000000b8       __imp__VirtualQuery@12     1005c0b8     kernel32:KERNEL32.dll
 0004:000000bc       __imp__WideCharToMultiByte@32 1005c0bc     kernel32:KERNEL32.dll
 0004:000000c0       __imp__GetLastError@0      1005c0c0     kernel32:KERNEL32.dll
 0004:000000c4       \177KERNEL32_NULL_THUNK_DATA 1005c0c4     kernel32:KERNEL32.dll
 0004:00000114       __imp_?GetValue_LONGLONG@CDataBaseAide@@QAE_JPBD@Z 1005c114     KernelEngine:KernelEngine.dll
 0004:00000118       __imp_?TraceString@CTraceService@@SA_NPBDW4enTraceLevel@@@Z 1005c118     KernelEngine:KernelEngine.dll
 0004:0000011c       __imp_??0CDataBaseAide@@QAE@PAUIUnknownEx@@@Z 1005c11c     KernelEngine:KernelEngine.dll
 0004:00000120       __imp_??1CDataBaseAide@@UAE@XZ 1005c120     KernelEngine:KernelEngine.dll
 0004:00000124       __imp_?SetDataBase@CDataBaseAide@@QAE_NPAUIUnknownEx@@@Z 1005c124     KernelEngine:KernelEngine.dll
 0004:00000128       __imp_?GetValue_WORD@CDataBaseAide@@QAEGPBD@Z 1005c128     KernelEngine:KernelEngine.dll
 0004:0000012c       __imp_?GetValue_String@CDataBaseAide@@QAEXPBDPADI@Z 1005c12c     KernelEngine:KernelEngine.dll
 0004:00000130       __imp_?ResetParameter@CDataBaseAide@@QAEXXZ 1005c130     KernelEngine:KernelEngine.dll
 0004:00000134       __imp_?AddParameter@CDataBaseAide@@QAEXPBD0W4ParameterDirectionEnum@ADOCG@@@Z 1005c134     KernelEngine:KernelEngine.dll
 0004:00000138       __imp_??0CDataBaseAide@@QAE@ABV0@@Z 1005c138     KernelEngine:KernelEngine.dll
 0004:0000013c       __imp_?AddParameter@CDataBaseAide@@QAEXPBDJW4ParameterDirectionEnum@ADOCG@@@Z 1005c13c     KernelEngine:KernelEngine.dll
 0004:00000140       __imp_?GetValue_LONG@CDataBaseAide@@QAEJPBD@Z 1005c140     KernelEngine:KernelEngine.dll
 0004:00000144       __imp_?GetValue_INT@CDataBaseAide@@QAEHPBD@Z 1005c144     KernelEngine:KernelEngine.dll
 0004:00000148       __imp_?AddParameterOutput@CDataBaseAide@@QAEXPBDPADIW4ParameterDirectionEnum@ADOCG@@@Z 1005c148     KernelEngine:KernelEngine.dll
 0004:0000014c       __imp_?AddParameter@CDataBaseAide@@QAEXPBDAAU_SYSTEMTIME@@W4ParameterDirectionEnum@ADOCG@@@Z 1005c14c     KernelEngine:KernelEngine.dll
 0004:00000150       __imp_?AddParameter@CDataBaseAide@@QAEXPBDKW4ParameterDirectionEnum@ADOCG@@@Z 1005c150     KernelEngine:KernelEngine.dll
 0004:00000154       __imp_?AddParameter@CDataBaseAide@@QAEXPBDGW4ParameterDirectionEnum@ADOCG@@@Z 1005c154     KernelEngine:KernelEngine.dll
 0004:00000158       __imp_?AddParameter@CDataBaseAide@@QAEXPBDEW4ParameterDirectionEnum@ADOCG@@@Z 1005c158     KernelEngine:KernelEngine.dll
 0004:0000015c       __imp_?AddParameter@CDataBaseAide@@QAEXPBD_JW4ParameterDirectionEnum@ADOCG@@@Z 1005c15c     KernelEngine:KernelEngine.dll
 0004:00000160       __imp_?AddParameter@CDataBaseAide@@QAEXPBDHW4ParameterDirectionEnum@ADOCG@@@Z 1005c160     KernelEngine:KernelEngine.dll
 0004:00000164       __imp_?GetParameter@CDataBaseAide@@QAEXPBDPADI@Z 1005c164     KernelEngine:KernelEngine.dll
 0004:00000168       __imp_?ExecuteProcess@CDataBaseAide@@QAEJPBD_N@Z 1005c168     KernelEngine:KernelEngine.dll
 0004:0000016c       __imp_?GetValue_SystemTime@CDataBaseAide@@QAEXPBDAAU_SYSTEMTIME@@@Z 1005c16c     KernelEngine:KernelEngine.dll
 0004:00000170       __imp_?GetValue_DWORD@CDataBaseAide@@QAEKPBD@Z 1005c170     KernelEngine:KernelEngine.dll
 0004:00000174       __imp_?GetValue_BYTE@CDataBaseAide@@QAEEPBD@Z 1005c174     KernelEngine:KernelEngine.dll
 0004:00000178       \177KernelEngine_NULL_THUNK_DATA 1005c178     KernelEngine:KernelEngine.dll
 0004:000001b8       __imp_?_Getmonths@_Locinfo@std@@QBEPBDXZ 1005c1b8     msvcprtd:MSVCP140D.dll
 0004:000001bc       __imp_?_W_Getmonths@_Locinfo@std@@QBEPBGXZ 1005c1bc     msvcprtd:MSVCP140D.dll
 0004:000001c0       __imp_?_W_Getdays@_Locinfo@std@@QBEPBGXZ 1005c1c0     msvcprtd:MSVCP140D.dll
 0004:000001c4       __imp_?_Xbad_alloc@std@@YAXXZ 1005c1c4     msvcprtd:MSVCP140D.dll
 0004:000001c8       __imp_?_Getdays@_Locinfo@std@@QBEPBDXZ 1005c1c8     msvcprtd:MSVCP140D.dll
 0004:000001cc       __imp_?_Getcvt@_Locinfo@std@@QBE?AU_Cvtvec@@XZ 1005c1cc     msvcprtd:MSVCP140D.dll
 0004:000001d0       __imp___Mbrtowc            1005c1d0     msvcprtd:MSVCP140D.dll
 0004:000001d4       \177MSVCP140D_NULL_THUNK_DATA 1005c1d4     msvcprtd:MSVCP140D.dll
 0004:00000204       __imp__SysFreeString@4     1005c204     oleaut32:OLEAUT32.dll
 0004:00000208       \177OLEAUT32_NULL_THUNK_DATA 1005c208     oleaut32:OLEAUT32.dll
 0004:00000234       __imp_?WriteInt@CWHIniData@@QAE_NPBD0H@Z 1005c234     ServiceCore:ServiceCore.dll
 0004:00000238       __imp_?ReadInt@CWHIniData@@QAEIPBD0H@Z 1005c238     ServiceCore:ServiceCore.dll
 0004:0000023c       __imp_?SetIniFilePath@CWHIniData@@QAEXPBD@Z 1005c23c     ServiceCore:ServiceCore.dll
 0004:00000240       __imp_??1CWHIniData@@UAE@XZ 1005c240     ServiceCore:ServiceCore.dll
 0004:00000244       __imp_??0CWHIniData@@QAE@XZ 1005c244     ServiceCore:ServiceCore.dll
 0004:00000248       __imp_?GetWorkDirectory@CWHService@@SA_NQADG@Z 1005c248     ServiceCore:ServiceCore.dll
 0004:0000024c       __imp_?XorCrevasse@CWHEncrypt@@SA_NPBDPADG@Z 1005c24c     ServiceCore:ServiceCore.dll
 0004:00000250       __imp_?GetModuleVersion@CWHService@@SA_NPBDAAK@Z 1005c250     ServiceCore:ServiceCore.dll
 0004:00000254       __imp_?GetMachineID@CWHService@@SA_NQAD@Z 1005c254     ServiceCore:ServiceCore.dll
 0004:00000258       \177ServiceCore_NULL_THUNK_DATA 1005c258     ServiceCore:ServiceCore.dll
 0004:00000288       __imp__PostQuitMessage@4   1005c288     user32:USER32.dll
 0004:0000028c       __imp__wsprintfA           1005c28c     user32:USER32.dll
 0004:00000290       __imp__DestroyWindow@4     1005c290     user32:USER32.dll
 0004:00000294       __imp__SetWindowPos@28     1005c294     user32:USER32.dll
 0004:00000298       __imp__SetFocus@4          1005c298     user32:USER32.dll
 0004:0000029c       __imp__CopyRect@8          1005c29c     user32:USER32.dll
 0004:000002a0       __imp__UnregisterClassA@8  1005c2a0     user32:USER32.dll
 0004:000002a4       __imp__PeekMessageA@20     1005c2a4     user32:USER32.dll
 0004:000002a8       \177USER32_NULL_THUNK_DATA 1005c2a8     user32:USER32.dll
 0004:000002d8       __imp___purecall           1005c2d8     vcruntimed:VCRUNTIME140D.dll
 0004:000002dc       __imp__memcpy              1005c2dc     vcruntimed:VCRUNTIME140D.dll
 0004:000002e0       __imp__memset              1005c2e0     vcruntimed:VCRUNTIME140D.dll
 0004:000002e4       __imp____CxxFrameHandler3  1005c2e4     vcruntimed:VCRUNTIME140D.dll
 0004:000002e8       __imp__memmove             1005c2e8     vcruntimed:VCRUNTIME140D.dll
 0004:000002ec       __imp___except_handler4_common 1005c2ec     vcruntimed:VCRUNTIME140D.dll
 0004:000002f0       __imp____std_type_info_destroy_list 1005c2f0     vcruntimed:VCRUNTIME140D.dll
 0004:000002f4       __imp____vcrt_GetModuleFileNameW 1005c2f4     vcruntimed:VCRUNTIME140D.dll
 0004:000002f8       __imp____vcrt_LoadLibraryExW 1005c2f8     vcruntimed:VCRUNTIME140D.dll
 0004:000002fc       __imp____vcrt_GetModuleHandleW 1005c2fc     vcruntimed:VCRUNTIME140D.dll
 0004:00000300       \177VCRUNTIME140D_NULL_THUNK_DATA 1005c300     vcruntimed:VCRUNTIME140D.dll
 0004:00000334       __imp__htonl@4             1005c334     ws2_32:WS2_32.dll
 0004:00000338       __imp__inet_addr@4         1005c338     ws2_32:WS2_32.dll
 0004:0000033c       \177WS2_32_NULL_THUNK_DATA 1005c33c     ws2_32:WS2_32.dll
 0004:00000368       __imp_?accDoDefaultAction@CWnd@@UAEJUtagVARIANT@@@Z 1005c368     mfc140d:mfc140d.dll
 0004:0000036c       __imp_?put_accName@CWnd@@UAEJUtagVARIANT@@PA_W@Z 1005c36c     mfc140d:mfc140d.dll
 0004:00000370       __imp_?put_accValue@CWnd@@UAEJUtagVARIANT@@PA_W@Z 1005c370     mfc140d:mfc140d.dll
 0004:00000374       __imp_?SetProxy@CWnd@@UAEJPAUIAccessibleProxy@@@Z 1005c374     mfc140d:mfc140d.dll
 0004:00000378       __imp_?CreateAccessibleProxy@CWnd@@UAEJIJPAJ@Z 1005c378     mfc140d:mfc140d.dll
 0004:0000037c       __imp_?OnCommand@CWnd@@MAEHIJ@Z 1005c37c     mfc140d:mfc140d.dll
 0004:00000380       __imp_?OnNotify@CWnd@@MAEHIJPAJ@Z 1005c380     mfc140d:mfc140d.dll
 0004:00000384       __imp_?OnSize@CWnd@@IAEXIHH@Z 1005c384     mfc140d:mfc140d.dll
 0004:00000388       __imp_?GetSuperWndProcAddr@CWnd@@MAEPAP6GJPAUHWND__@@IIJ@ZXZ 1005c388     mfc140d:mfc140d.dll
 0004:0000038c       __imp_?DoDataExchange@CWnd@@MAEXPAVCDataExchange@@@Z 1005c38c     mfc140d:mfc140d.dll
 0004:00000390       __imp_?BeginModalState@CWnd@@UAEXXZ 1005c390     mfc140d:mfc140d.dll
 0004:00000394       __imp_?EndModalState@CWnd@@UAEXXZ 1005c394     mfc140d:mfc140d.dll
 0004:00000398       __imp_?OnAmbientProperty@CWnd@@UAEHPAVCOleControlSite@@JPAUtagVARIANT@@@Z 1005c398     mfc140d:mfc140d.dll
 0004:0000039c       __imp_?WindowProc@CWnd@@MAEJIIJ@Z 1005c39c     mfc140d:mfc140d.dll
 0004:000003a0       __imp_?OnWndMsg@CWnd@@MAEHIIJPAJ@Z 1005c3a0     mfc140d:mfc140d.dll
 0004:000003a4       __imp_?DefWindowProcA@CWnd@@MAEJIIJ@Z 1005c3a4     mfc140d:mfc140d.dll
 0004:000003a8       __imp_?PostNcDestroy@CWnd@@MAEXXZ 1005c3a8     mfc140d:mfc140d.dll
 0004:000003ac       __imp_?OnChildNotify@CWnd@@MAEHIIJPAJ@Z 1005c3ac     mfc140d:mfc140d.dll
 0004:000003b0       __imp_?OnTouchInputs@CWnd@@MAEHIPAUtagTOUCHINPUT@@@Z 1005c3b0     mfc140d:mfc140d.dll
 0004:000003b4       __imp_?OnTouchInput@CWnd@@MAEHVCPoint@@HHPAUtagTOUCHINPUT@@@Z 1005c3b4     mfc140d:mfc140d.dll
 0004:000003b8       __imp_?GetGestureStatus@CWnd@@MAEKVCPoint@@@Z 1005c3b8     mfc140d:mfc140d.dll
 0004:000003bc       __imp_?OnGestureZoom@CWnd@@MAEHVCPoint@@J@Z 1005c3bc     mfc140d:mfc140d.dll
 0004:000003c0       __imp_?OnGesturePan@CWnd@@MAEHVCPoint@@0@Z 1005c3c0     mfc140d:mfc140d.dll
 0004:000003c4       __imp_?OnGestureRotate@CWnd@@MAEHVCPoint@@N@Z 1005c3c4     mfc140d:mfc140d.dll
 0004:000003c8       __imp_?OnGestureTwoFingerTap@CWnd@@MAEHVCPoint@@@Z 1005c3c8     mfc140d:mfc140d.dll
 0004:000003cc       __imp_?OnGesturePressAndTap@CWnd@@MAEHVCPoint@@J@Z 1005c3cc     mfc140d:mfc140d.dll
 0004:000003d0       __imp_?ResizeDynamicLayout@CWnd@@MAEXXZ 1005c3d0     mfc140d:mfc140d.dll
 0004:000003d4       __imp_?IsFrameWnd@CWnd@@UBEHXZ 1005c3d4     mfc140d:mfc140d.dll
 0004:000003d8       __imp_?OnFinalRelease@CWnd@@UAEXXZ 1005c3d8     mfc140d:mfc140d.dll
 0004:000003dc       __imp_?CreateControlContainer@CWnd@@MAEHPAPAVCOleControlContainer@@@Z 1005c3dc     mfc140d:mfc140d.dll
 0004:000003e0       __imp_?CreateControlSite@CWnd@@MAEHPAVCOleControlContainer@@PAPAVCOleControlSite@@IABU_GUID@@@Z 1005c3e0     mfc140d:mfc140d.dll
 0004:000003e4       __imp_?GetRuntimeClass@CDialog@@UBEPAUCRuntimeClass@@XZ 1005c3e4     mfc140d:mfc140d.dll
 0004:000003e8       __imp_?Create@CDialog@@UAEHPBDPAVCWnd@@@Z 1005c3e8     mfc140d:mfc140d.dll
 0004:000003ec       __imp_?Create@CDialog@@UAEHIPAVCWnd@@@Z 1005c3ec     mfc140d:mfc140d.dll
 0004:000003f0       __imp_?CreateIndirect@CDialog@@UAEHPBUDLGTEMPLATE@@PAVCWnd@@PAX@Z 1005c3f0     mfc140d:mfc140d.dll
 0004:000003f4       __imp_?CreateIndirect@CDialog@@UAEHPAXPAVCWnd@@@Z 1005c3f4     mfc140d:mfc140d.dll
 0004:000003f8       __imp_??0CDialog@@QAE@IPAVCWnd@@@Z 1005c3f8     mfc140d:mfc140d.dll
 0004:000003fc       __imp_?DoModal@CDialog@@UAEHXZ 1005c3fc     mfc140d:mfc140d.dll
 0004:00000400       __imp_?EndDialog@CDialog@@QAEXH@Z 1005c400     mfc140d:mfc140d.dll
 0004:00000404       __imp_?OnInitDialog@CDialog@@UAEHXZ 1005c404     mfc140d:mfc140d.dll
 0004:00000408       __imp_?OnSetFont@CDialog@@UAEXPAVCFont@@@Z 1005c408     mfc140d:mfc140d.dll
 0004:0000040c       __imp_?OnCancel@CDialog@@MAEXXZ 1005c40c     mfc140d:mfc140d.dll
 0004:00000410       __imp_??1CDialog@@UAE@XZ   1005c410     mfc140d:mfc140d.dll
 0004:00000414       __imp_?AssertValid@CDialog@@UBEXXZ 1005c414     mfc140d:mfc140d.dll
 0004:00000418       __imp_?Dump@CDialog@@UBEXAAVCDumpContext@@@Z 1005c418     mfc140d:mfc140d.dll
 0004:0000041c       __imp_?PreTranslateMessage@CDialog@@UAEHPAUtagMSG@@@Z 1005c41c     mfc140d:mfc140d.dll
 0004:00000420       __imp_?OnCmdMsg@CDialog@@UAEHIHPAXPAUAFX_CMDHANDLERINFO@@@Z 1005c420     mfc140d:mfc140d.dll
 0004:00000424       __imp_?CheckAutoCenter@CDialog@@UAEHXZ 1005c424     mfc140d:mfc140d.dll
 0004:00000428       __imp_?SetOccDialogInfo@CDialog@@MAEHPAU_AFX_OCC_DIALOG_INFO@@@Z 1005c428     mfc140d:mfc140d.dll
 0004:0000042c       __imp_?GetOccDialogInfo@CDialog@@MAEPAU_AFX_OCC_DIALOG_INFO@@XZ 1005c42c     mfc140d:mfc140d.dll
 0004:00000430       __imp_?PreInitDialog@CDialog@@MAEXXZ 1005c430     mfc140d:mfc140d.dll
 0004:00000434       __imp_?GetCheck@CButton@@QBEHXZ 1005c434     mfc140d:mfc140d.dll
 0004:00000438       __imp_?SetCheck@CButton@@QAEXH@Z 1005c438     mfc140d:mfc140d.dll
 0004:0000043c       __imp_?GetCurSel@CComboBox@@QBEHXZ 1005c43c     mfc140d:mfc140d.dll
 0004:00000440       __imp_?SetCurSel@CComboBox@@QAEHH@Z 1005c440     mfc140d:mfc140d.dll
 0004:00000444       __imp_?GetItemData@CComboBox@@QBEKH@Z 1005c444     mfc140d:mfc140d.dll
 0004:00000448       __imp_?SetItemData@CComboBox@@QAEHHK@Z 1005c448     mfc140d:mfc140d.dll
 0004:0000044c       __imp_?GetItemDataPtr@CComboBox@@QBEPAXH@Z 1005c44c     mfc140d:mfc140d.dll
 0004:00000450       __imp_?SetItemDataPtr@CComboBox@@QAEHHPAX@Z 1005c450     mfc140d:mfc140d.dll
 0004:00000454       __imp_?AddString@CComboBox@@QAEHPBD@Z 1005c454     mfc140d:mfc140d.dll
 0004:00000458       __imp_?InsertString@CComboBox@@QAEHHPBD@Z 1005c458     mfc140d:mfc140d.dll
 0004:0000045c       __imp_?LimitText@CEdit@@QAEXH@Z 1005c45c     mfc140d:mfc140d.dll
 0004:00000460       __imp_?AfxSetResourceHandle@@YGXPAUHINSTANCE__@@@Z 1005c460     mfc140d:mfc140d.dll
 0004:00000464       __imp_?AfxMessageBox@@YGHPBDII@Z 1005c464     mfc140d:mfc140d.dll
 0004:00000468       __imp_?GetTime@CDateTimeCtrl@@QBEKAAVCTime@ATL@@@Z 1005c468     mfc140d:mfc140d.dll
 0004:0000046c       __imp_?SetTime@CDateTimeCtrl@@QAEHPAU_SYSTEMTIME@@@Z 1005c46c     mfc140d:mfc140d.dll
 0004:00000470       __imp_?GetTime@CDateTimeCtrl@@QBEKPAU_SYSTEMTIME@@@Z 1005c470     mfc140d:mfc140d.dll
 0004:00000474       __imp_?GetItemData@CListCtrl@@QBEKH@Z 1005c474     mfc140d:mfc140d.dll
 0004:00000478       __imp_?GetCurSel@CTabCtrl@@QBEHXZ 1005c478     mfc140d:mfc140d.dll
 0004:0000047c       __imp_?SetItemSize@CTabCtrl@@QAE?AVCSize@@V2@@Z 1005c47c     mfc140d:mfc140d.dll
 0004:00000480       __imp_?InsertItem@CTabCtrl@@QAEJHPBD@Z 1005c480     mfc140d:mfc140d.dll
 0004:00000484       __imp_?AfxAssertValidObject@@YGXPBVCObject@@PBDH@Z 1005c484     mfc140d:mfc140d.dll
 0004:00000488       __imp_?AfxIsValidAddress@@YGHPBXIH@Z 1005c488     mfc140d:mfc140d.dll
 0004:0000048c       __imp_?AfxLoadLibrary@@YGPAUHINSTANCE__@@PBD@Z 1005c48c     mfc140d:mfc140d.dll
 0004:00000490       __imp_?AfxFreeLibrary@@YGHPAUHINSTANCE__@@@Z 1005c490     mfc140d:mfc140d.dll
 0004:00000494       __imp_?GetItemCount@CListCtrl@@QBEHXZ 1005c494     mfc140d:mfc140d.dll
 0004:00000498       __imp_?GetFirstSelectedItemPosition@CListCtrl@@QBEPAU__POSITION@@XZ 1005c498     mfc140d:mfc140d.dll
 0004:0000049c       __imp_?GetNextSelectedItem@CListCtrl@@QBEHAAPAU__POSITION@@@Z 1005c49c     mfc140d:mfc140d.dll
 0004:000004a0       __imp_?SetItemState@CListCtrl@@QAEHHII@Z 1005c4a0     mfc140d:mfc140d.dll
 0004:000004a4       __imp_?DeleteItem@CListCtrl@@QAEHH@Z 1005c4a4     mfc140d:mfc140d.dll
 0004:000004a8       __imp_?DeleteAllItems@CListCtrl@@QAEHXZ 1005c4a8     mfc140d:mfc140d.dll
 0004:000004ac       __imp_?OnOK@CDialog@@MAEXXZ 1005c4ac     mfc140d:mfc140d.dll
 0004:000004b0       __imp_?GetLength@?$CSimpleStringT@D$00@ATL@@QBEHXZ 1005c4b0     mfc140d:mfc140d.dll
 0004:000004b4       __imp_??0?$CStringT@DV?$StrTraitMFC_DLL@DV?$ChTraitsCRT@D@ATL@@@@@ATL@@QAE@PBD@Z 1005c4b4     mfc140d:mfc140d.dll
 0004:000004b8       __imp_??4?$CStringT@DV?$StrTraitMFC_DLL@DV?$ChTraitsCRT@D@ATL@@@@@ATL@@QAEAAV01@ABV01@@Z 1005c4b8     mfc140d:mfc140d.dll
 0004:000004bc       __imp_?Left@?$CStringT@DV?$StrTraitMFC_DLL@DV?$ChTraitsCRT@D@ATL@@@@@ATL@@QBE?AV12@H@Z 1005c4bc     mfc140d:mfc140d.dll
 0004:000004c0       __imp_?GetSafeHwnd@CWnd@@QBEPAUHWND__@@XZ 1005c4c0     mfc140d:mfc140d.dll
 0004:000004c4       __imp_?MoveWindow@CWnd@@QAEXPBUtagRECT@@H@Z 1005c4c4     mfc140d:mfc140d.dll
 0004:000004c8       __imp_?HtmlHelpA@CWnd@@UAEXKI@Z 1005c4c8     mfc140d:mfc140d.dll
 0004:000004cc       __imp_?OnNcDestroy@CWnd@@IAEXXZ 1005c4cc     mfc140d:mfc140d.dll
 0004:000004d0       __imp_??0CStatic@@QAE@XZ   1005c4d0     mfc140d:mfc140d.dll
 0004:000004d4       __imp_??1CStatic@@UAE@XZ   1005c4d4     mfc140d:mfc140d.dll
 0004:000004d8       __imp_?GetCount@CComboBox@@QBEHXZ 1005c4d8     mfc140d:mfc140d.dll
 0004:000004dc       __imp_??0CToolTipCtrl@@QAE@XZ 1005c4dc     mfc140d:mfc140d.dll
 0004:000004e0       __imp_?SetMaxTipWidth@CToolTipCtrl@@QAEHH@Z 1005c4e0     mfc140d:mfc140d.dll
 0004:000004e4       __imp_?Activate@CToolTipCtrl@@QAEXH@Z 1005c4e4     mfc140d:mfc140d.dll
 0004:000004e8       __imp_?AddTool@CToolTipCtrl@@QAEHPAVCWnd@@PBDPBUtagRECT@@I@Z 1005c4e8     mfc140d:mfc140d.dll
 0004:000004ec       __imp_?RelayEvent@CToolTipCtrl@@QAEXPAUtagMSG@@@Z 1005c4ec     mfc140d:mfc140d.dll
 0004:000004f0       __imp_??1CToolTipCtrl@@UAE@XZ 1005c4f0     mfc140d:mfc140d.dll
 0004:000004f4       __imp_??0CTabCtrl@@QAE@XZ  1005c4f4     mfc140d:mfc140d.dll
 0004:000004f8       __imp_?SetCurSel@CTabCtrl@@QAEHH@Z 1005c4f8     mfc140d:mfc140d.dll
 0004:000004fc       __imp_?AdjustRect@CTabCtrl@@QAEXHPAUtagRECT@@@Z 1005c4fc     mfc140d:mfc140d.dll
 0004:00000500       __imp_??1CTabCtrl@@UAE@XZ  1005c500     mfc140d:mfc140d.dll
 0004:00000504       __imp_?GetAddress@CIPAddressCtrl@@QBEHAAK@Z 1005c504     mfc140d:mfc140d.dll
 0004:00000508       __imp_?SetAddress@CIPAddressCtrl@@QAEXK@Z 1005c508     mfc140d:mfc140d.dll
 0004:0000050c       __imp_?GetThisMessageMap@CWnd@@KGPBUAFX_MSGMAP@@XZ 1005c50c     mfc140d:mfc140d.dll
 0004:00000510       __imp_?GetThisMessageMap@CListCtrl@@KGPBUAFX_MSGMAP@@XZ 1005c510     mfc140d:mfc140d.dll
 0004:00000514       __imp_?FromHandle@CDC@@SGPAV1@PAUHDC__@@@Z 1005c514     mfc140d:mfc140d.dll
 0004:00000518       __imp_?SelectObject@CDC@@UAEPAVCFont@@PAV2@@Z 1005c518     mfc140d:mfc140d.dll
 0004:0000051c       __imp_?SetBkMode@CDC@@QAEHH@Z 1005c51c     mfc140d:mfc140d.dll
 0004:00000520       __imp_?DrawFocusRect@CDC@@QAEXPBUtagRECT@@@Z 1005c520     mfc140d:mfc140d.dll
 0004:00000524       __imp_?DrawTextA@CDC@@UAEHPBDHPAUtagRECT@@I@Z 1005c524     mfc140d:mfc140d.dll
 0004:00000528       __imp_?DrawFrameControl@CDC@@QAEHPAUtagRECT@@II@Z 1005c528     mfc140d:mfc140d.dll
 0004:0000052c       __imp_?FillSolidRect@CDC@@QAEXPBUtagRECT@@K@Z 1005c52c     mfc140d:mfc140d.dll
 0004:00000530       __imp_?FillSolidRect@CDC@@QAEXHHHHK@Z 1005c530     mfc140d:mfc140d.dll
 0004:00000534       __imp_??0CPaintDC@@QAE@PAVCWnd@@@Z 1005c534     mfc140d:mfc140d.dll
 0004:00000538       __imp_?get_accDefaultAction@CWnd@@UAEJUtagVARIANT@@PAPA_W@Z 1005c538     mfc140d:mfc140d.dll
 0004:0000053c       __imp_?OnCmdMsg@CCmdTarget@@UAEHIHPAXPAUAFX_CMDHANDLERINFO@@@Z 1005c53c     mfc140d:mfc140d.dll
 0004:00000540       __imp_?SubclassWindow@CWnd@@QAEHPAUHWND__@@@Z 1005c540     mfc140d:mfc140d.dll
 0004:00000544       __imp_?GetFont@CWnd@@QBEPAVCFont@@XZ 1005c544     mfc140d:mfc140d.dll
 0004:00000548       __imp_?OnEraseBkgnd@CWnd@@IAEHPAVCDC@@@Z 1005c548     mfc140d:mfc140d.dll
 0004:0000054c       __imp_?accHitTest@CWnd@@UAEJJJPAUtagVARIANT@@@Z 1005c54c     mfc140d:mfc140d.dll
 0004:00000550       __imp_?CheckAutoCenter@CWnd@@UAEHXZ 1005c550     mfc140d:mfc140d.dll
 0004:00000554       __imp_?AssertValid@CWnd@@UBEXXZ 1005c554     mfc140d:mfc140d.dll
 0004:00000558       __imp_?Dump@CWnd@@UBEXAAVCDumpContext@@@Z 1005c558     mfc140d:mfc140d.dll
 0004:0000055c       __imp_?SetOccDialogInfo@CWnd@@MAEHPAU_AFX_OCC_DIALOG_INFO@@@Z 1005c55c     mfc140d:mfc140d.dll
 0004:00000560       __imp_?GetOccDialogInfo@CWnd@@MAEPAU_AFX_OCC_DIALOG_INFO@@XZ 1005c560     mfc140d:mfc140d.dll
 0004:00000564       __imp_?GetRuntimeClass@CListCtrl@@UBEPAUCRuntimeClass@@XZ 1005c564     mfc140d:mfc140d.dll
 0004:00000568       __imp_??0CListCtrl@@QAE@XZ 1005c568     mfc140d:mfc140d.dll
 0004:0000056c       __imp_?GetBkColor@CListCtrl@@QBEKXZ 1005c56c     mfc140d:mfc140d.dll
 0004:00000570       __imp_?SetBkColor@CListCtrl@@QAEHK@Z 1005c570     mfc140d:mfc140d.dll
 0004:00000574       __imp_?GetItemText@CListCtrl@@QBEHHHPADH@Z 1005c574     mfc140d:mfc140d.dll
 0004:00000578       __imp_?GetHeaderCtrl@CListCtrl@@QBEPAVCHeaderCtrl@@XZ 1005c578     mfc140d:mfc140d.dll
 0004:0000057c       __imp_?GetSubItemRect@CListCtrl@@QBEHHHHAAVCRect@@@Z 1005c57c     mfc140d:mfc140d.dll
 0004:00000580       __imp_?SetExtendedStyle@CListCtrl@@QAEKK@Z 1005c580     mfc140d:mfc140d.dll
 0004:00000584       __imp_?SortItems@CListCtrl@@QAEHP6GHJJJ@ZK@Z 1005c584     mfc140d:mfc140d.dll
 0004:00000588       __imp_??1CListCtrl@@UAE@XZ 1005c588     mfc140d:mfc140d.dll
 0004:0000058c       __imp_?OnChildNotify@CListCtrl@@MAEHIIJPAJ@Z 1005c58c     mfc140d:mfc140d.dll
 0004:00000590       __imp_?GetRuntimeClass@CHeaderCtrl@@UBEPAUCRuntimeClass@@XZ 1005c590     mfc140d:mfc140d.dll
 0004:00000594       __imp_??0CHeaderCtrl@@QAE@XZ 1005c594     mfc140d:mfc140d.dll
 0004:00000598       __imp_?Create@CHeaderCtrl@@UAEHKABUtagRECT@@PAVCWnd@@I@Z 1005c598     mfc140d:mfc140d.dll
 0004:0000059c       __imp_?CreateEx@CHeaderCtrl@@UAEHKKABUtagRECT@@PAVCWnd@@I@Z 1005c59c     mfc140d:mfc140d.dll
 0004:000005a0       __imp_?GetItemCount@CHeaderCtrl@@QBEHXZ 1005c5a0     mfc140d:mfc140d.dll
 0004:000005a4       __imp_?GetItem@CHeaderCtrl@@QBEHHPAU_HD_ITEMA@@@Z 1005c5a4     mfc140d:mfc140d.dll
 0004:000005a8       __imp_?GetItemRect@CHeaderCtrl@@QBEHHPAUtagRECT@@@Z 1005c5a8     mfc140d:mfc140d.dll
 0004:000005ac       __imp_?DrawItem@CHeaderCtrl@@UAEXPAUtagDRAWITEMSTRUCT@@@Z 1005c5ac     mfc140d:mfc140d.dll
 0004:000005b0       __imp_??1CHeaderCtrl@@UAE@XZ 1005c5b0     mfc140d:mfc140d.dll
 0004:000005b4       __imp_?OnChildNotify@CHeaderCtrl@@MAEHIIJPAJ@Z 1005c5b4     mfc140d:mfc140d.dll
 0004:000005b8       __imp_??2@YAPAXI@Z         1005c5b8     mfc140d:mfc140d.dll
 0004:000005bc       __imp_??_U@YAPAXI@Z        1005c5bc     mfc140d:mfc140d.dll
 0004:000005c0       __imp_?SetItem@CListCtrl@@QAEHHHIPBDHIIJ@Z 1005c5c0     mfc140d:mfc140d.dll
 0004:000005c4       __imp_?FindItem@CListCtrl@@QBEHPAUtagLVFINDINFOA@@H@Z 1005c5c4     mfc140d:mfc140d.dll
 0004:000005c8       __imp_?RedrawItems@CListCtrl@@QAEHHH@Z 1005c5c8     mfc140d:mfc140d.dll
 0004:000005cc       __imp_?InsertColumn@CListCtrl@@QAEHHPBDHHH@Z 1005c5cc     mfc140d:mfc140d.dll
 0004:000005d0       __imp_?InsertItem@CListCtrl@@QAEHIHPBDIIHJ@Z 1005c5d0     mfc140d:mfc140d.dll
 0004:000005d4       __imp_?GetRuntimeClass@CObject@@UBEPAUCRuntimeClass@@XZ 1005c5d4     mfc140d:mfc140d.dll
 0004:000005d8       __imp_??1CObject@@UAE@XZ   1005c5d8     mfc140d:mfc140d.dll
 0004:000005dc       __imp_??0CObject@@IAE@XZ   1005c5dc     mfc140d:mfc140d.dll
 0004:000005e0       __imp_?AssertValid@CObject@@UBEXXZ 1005c5e0     mfc140d:mfc140d.dll
 0004:000005e4       __imp_?Dump@CObject@@UBEXAAVCDumpContext@@@Z 1005c5e4     mfc140d:mfc140d.dll
 0004:000005e8       __imp_??_U@YAPAXIPBDH@Z    1005c5e8     mfc140d:mfc140d.dll
 0004:000005ec       __imp_?IsStoring@CArchive@@QBEHXZ 1005c5ec     mfc140d:mfc140d.dll
 0004:000005f0       __imp_?EnsureRead@CArchive@@QAEXPAXI@Z 1005c5f0     mfc140d:mfc140d.dll
 0004:000005f4       __imp_?Write@CArchive@@QAEXPBXI@Z 1005c5f4     mfc140d:mfc140d.dll
 0004:000005f8       __imp_?ReadCount@CArchive@@QAEKXZ 1005c5f8     mfc140d:mfc140d.dll
 0004:000005fc       __imp_?WriteCount@CArchive@@QAEXK@Z 1005c5fc     mfc140d:mfc140d.dll
 0004:00000600       __imp_?GetDepth@CDumpContext@@QBEHXZ 1005c600     mfc140d:mfc140d.dll
 0004:00000604       __imp_??6CDumpContext@@QAEAAV0@PBD@Z 1005c604     mfc140d:mfc140d.dll
 0004:00000608       __imp_??6CDumpContext@@QAEAAV0@H@Z 1005c608     mfc140d:mfc140d.dll
 0004:0000060c       __imp_?Create@CPlex@@SGPAU1@AAPAU1@II@Z 1005c60c     mfc140d:mfc140d.dll
 0004:00000610       __imp_?FreeDataChain@CPlex@@QAEXXZ 1005c610     mfc140d:mfc140d.dll
 0004:00000614       __imp_??2CObject@@SGPAXI@Z 1005c614     mfc140d:mfc140d.dll
 0004:00000618       __imp_?AfxGetModuleState@@YGPAVAFX_MODULE_STATE@@XZ 1005c618     mfc140d:mfc140d.dll
 0004:0000061c       __imp_??0CDynLinkLibrary@@QAE@AAUAFX_EXTENSION_MODULE@@H@Z 1005c61c     mfc140d:mfc140d.dll
 0004:00000620       __imp_?AfxInitExtensionModule@@YGHAAUAFX_EXTENSION_MODULE@@PAUHINSTANCE__@@@Z 1005c620     mfc140d:mfc140d.dll
 0004:00000624       __imp_?AfxTermExtensionModule@@YGXAAUAFX_EXTENSION_MODULE@@H@Z 1005c624     mfc140d:mfc140d.dll
 0004:00000628       __imp_?accNavigate@CWnd@@UAEJJUtagVARIANT@@PAU2@@Z 1005c628     mfc140d:mfc140d.dll
 0004:0000062c       __imp_?WinHelpA@CWnd@@UAEXKI@Z 1005c62c     mfc140d:mfc140d.dll
 0004:00000630       __imp_?GetParent@CWnd@@QBEPAV1@XZ 1005c630     mfc140d:mfc140d.dll
 0004:00000634       __imp_?GetScrollBarCtrl@CWnd@@UBEPAVCScrollBar@@H@Z 1005c634     mfc140d:mfc140d.dll
 0004:00000638       __imp_?SetDlgItemTextA@CWnd@@QAEXHPBD@Z 1005c638     mfc140d:mfc140d.dll
 0004:0000063c       __imp_?SetDlgItemInt@CWnd@@QAEXHIH@Z 1005c63c     mfc140d:mfc140d.dll
 0004:00000640       __imp_?IsDlgButtonChecked@CWnd@@QBEIH@Z 1005c640     mfc140d:mfc140d.dll
 0004:00000644       __imp_?GetDlgItemTextA@CWnd@@QBEHHPADH@Z 1005c644     mfc140d:mfc140d.dll
 0004:00000648       __imp_?GetDlgItemInt@CWnd@@QBEIHPAHH@Z 1005c648     mfc140d:mfc140d.dll
 0004:0000064c       __imp_?GetCheckedRadioButton@CWnd@@QBEHHH@Z 1005c64c     mfc140d:mfc140d.dll
 0004:00000650       __imp_?CheckRadioButton@CWnd@@QAEXHHH@Z 1005c650     mfc140d:mfc140d.dll
 0004:00000654       __imp_?SetFocus@CWnd@@QAEPAV1@XZ 1005c654     mfc140d:mfc140d.dll
 0004:00000658       __imp_?EnableWindow@CWnd@@QAEHH@Z 1005c658     mfc140d:mfc140d.dll
 0004:0000065c       __imp_?OnToolHitTest@CWnd@@UBEHVCPoint@@PAUtagTOOLINFOA@@@Z 1005c65c     mfc140d:mfc140d.dll
 0004:00000660       __imp_?ShowWindow@CWnd@@QAEHH@Z 1005c660     mfc140d:mfc140d.dll
 0004:00000664       __imp_?ScreenToClient@CWnd@@QBEXPAUtagRECT@@@Z 1005c664     mfc140d:mfc140d.dll
 0004:00000668       __imp_?GetClientRect@CWnd@@QBEXPAUtagRECT@@@Z 1005c668     mfc140d:mfc140d.dll
 0004:0000066c       __imp_?GetWindowRect@CWnd@@QBEXPAUtagRECT@@@Z 1005c66c     mfc140d:mfc140d.dll
 0004:00000670       __imp_?SetWindowPos@CWnd@@QAEHPBV1@HHHHI@Z 1005c670     mfc140d:mfc140d.dll
 0004:00000674       __imp_?SetMenu@CWnd@@UAEHPAVCMenu@@@Z 1005c674     mfc140d:mfc140d.dll
 0004:00000678       __imp_?GetMenu@CWnd@@UBEPAVCMenu@@XZ 1005c678     mfc140d:mfc140d.dll
 0004:0000067c       __imp_?SetWindowTextA@CWnd@@QAEXPBD@Z 1005c67c     mfc140d:mfc140d.dll
 0004:00000680       __imp_?PostMessageA@CWnd@@QAEHIIJ@Z 1005c680     mfc140d:mfc140d.dll
 0004:00000684       __imp_?GetDlgItem@CWnd@@QBEPAV1@H@Z 1005c684     mfc140d:mfc140d.dll
 0004:00000688       __imp_?CalcWindowRect@CWnd@@UAEXPAUtagRECT@@I@Z 1005c688     mfc140d:mfc140d.dll
 0004:0000068c       __imp_?PreCreateWindow@CWnd@@UAEHAAUtagCREATESTRUCTA@@@Z 1005c68c     mfc140d:mfc140d.dll
 0004:00000690       __imp_?DestroyWindow@CWnd@@UAEHXZ 1005c690     mfc140d:mfc140d.dll
 0004:00000694       __imp_?CreateEx@CWnd@@UAEHKPBD0KABUtagRECT@@PAV1@IPAX@Z 1005c694     mfc140d:mfc140d.dll
 0004:00000698       __imp_?CreateEx@CWnd@@UAEHKPBD0KHHHHPAUHWND__@@PAUHMENU__@@PAX@Z 1005c698     mfc140d:mfc140d.dll
 0004:0000069c       __imp_?Create@CWnd@@UAEHPBD0KABUtagRECT@@PAV1@IPAUCCreateContext@@@Z 1005c69c     mfc140d:mfc140d.dll
 0004:000006a0       __imp_?PreSubclassWindow@CWnd@@UAEXXZ 1005c6a0     mfc140d:mfc140d.dll
 0004:000006a4       __imp_?GetConnectionHook@CCmdTarget@@MAEPAUIConnectionPoint@@ABU_GUID@@@Z 1005c6a4     mfc140d:mfc140d.dll
 0004:000006a8       __imp_?GetExtraConnectionPoints@CCmdTarget@@MAEHPAVCPtrArray@@@Z 1005c6a8     mfc140d:mfc140d.dll
 0004:000006ac       __imp_?GetInterfaceHook@CCmdTarget@@UAEPAUIUnknown@@PBX@Z 1005c6ac     mfc140d:mfc140d.dll
 0004:000006b0       __imp_?OnCreateAggregates@CCmdTarget@@UAEHXZ 1005c6b0     mfc140d:mfc140d.dll
 0004:000006b4       __imp_?GetEventSinkMap@CCmdTarget@@MBEPBUAFX_EVENTSINKMAP@@XZ 1005c6b4     mfc140d:mfc140d.dll
 0004:000006b8       __imp_?GetConnectionMap@CCmdTarget@@MBEPBUAFX_CONNECTIONMAP@@XZ 1005c6b8     mfc140d:mfc140d.dll
 0004:000006bc       __imp_?GetDispatchMap@CCmdTarget@@MBEPBUAFX_DISPMAP@@XZ 1005c6bc     mfc140d:mfc140d.dll
 0004:000006c0       __imp_?GetCommandMap@CCmdTarget@@MBEPBUAFX_OLECMDMAP@@XZ 1005c6c0     mfc140d:mfc140d.dll
 0004:000006c4       __imp_?GetTypeLib@CCmdTarget@@UAEJKPAPAUITypeLib@@@Z 1005c6c4     mfc140d:mfc140d.dll
 0004:000006c8       __imp_?GetTypeLibCache@CCmdTarget@@UAEPAVCTypeLibCache@@XZ 1005c6c8     mfc140d:mfc140d.dll
 0004:000006cc       __imp_?GetTypeInfoCount@CCmdTarget@@UAEIXZ 1005c6cc     mfc140d:mfc140d.dll
 0004:000006d0       __imp_?GetDispatchIID@CCmdTarget@@UAEHPAU_GUID@@@Z 1005c6d0     mfc140d:mfc140d.dll
 0004:000006d4       __imp_?IsInvokeAllowed@CCmdTarget@@UAEHJ@Z 1005c6d4     mfc140d:mfc140d.dll
 0004:000006d8       __imp_?DDX_Control@@YGXPAVCDataExchange@@HAAVCWnd@@@Z 1005c6d8     mfc140d:mfc140d.dll
 0004:000006dc       __imp_?Format@?$CStringT@DV?$StrTraitMFC_DLL@DV?$ChTraitsCRT@D@ATL@@@@@ATL@@QAAXPBDZZ 1005c6dc     mfc140d:mfc140d.dll
 0004:000006e0       __imp_??1?$CStringT@DV?$StrTraitMFC_DLL@DV?$ChTraitsCRT@D@ATL@@@@@ATL@@QAE@XZ 1005c6e0     mfc140d:mfc140d.dll
 0004:000006e4       __imp_??0?$CStringT@DV?$StrTraitMFC_DLL@DV?$ChTraitsCRT@D@ATL@@@@@ATL@@QAE@XZ 1005c6e4     mfc140d:mfc140d.dll
 0004:000006e8       __imp_?Empty@?$CSimpleStringT@D$00@ATL@@QAEXXZ 1005c6e8     mfc140d:mfc140d.dll
 0004:000006ec       __imp_?Append@?$CSimpleStringT@D$00@ATL@@QAEXABV12@@Z 1005c6ec     mfc140d:mfc140d.dll
 0004:000006f0       __imp_?get_accSelection@CWnd@@UAEJPAUtagVARIANT@@@Z 1005c6f0     mfc140d:mfc140d.dll
 0004:000006f4       __imp_?get_accFocus@CWnd@@UAEJPAUtagVARIANT@@@Z 1005c6f4     mfc140d:mfc140d.dll
 0004:000006f8       __imp_?get_accKeyboardShortcut@CWnd@@UAEJUtagVARIANT@@PAPA_W@Z 1005c6f8     mfc140d:mfc140d.dll
 0004:000006fc       __imp_?get_accHelpTopic@CWnd@@UAEJPAPA_WUtagVARIANT@@PAJ@Z 1005c6fc     mfc140d:mfc140d.dll
 0004:00000700       __imp_?get_accHelp@CWnd@@UAEJUtagVARIANT@@PAPA_W@Z 1005c700     mfc140d:mfc140d.dll
 0004:00000704       __imp_?get_accState@CWnd@@UAEJUtagVARIANT@@PAU2@@Z 1005c704     mfc140d:mfc140d.dll
 0004:00000708       __imp_?get_accRole@CWnd@@UAEJUtagVARIANT@@PAU2@@Z 1005c708     mfc140d:mfc140d.dll
 0004:0000070c       __imp_?get_accDescription@CWnd@@UAEJUtagVARIANT@@PAPA_W@Z 1005c70c     mfc140d:mfc140d.dll
 0004:00000710       __imp_?get_accValue@CWnd@@UAEJUtagVARIANT@@PAPA_W@Z 1005c710     mfc140d:mfc140d.dll
 0004:00000714       __imp_??B?$CSimpleStringT@D$00@ATL@@QBEPBDXZ 1005c714     mfc140d:mfc140d.dll
 0004:00000718       __imp_?Serialize@CObject@@UAEXAAVCArchive@@@Z 1005c718     mfc140d:mfc140d.dll
 0004:0000071c       __imp_??3CObject@@SGXPAX@Z 1005c71c     mfc140d:mfc140d.dll
 0004:00000720       __imp_?AfxThrowOleException@@YGXJ@Z 1005c720     mfc140d:mfc140d.dll
 0004:00000724       __imp_?AfxThrowInvalidArgException@@YGXXZ 1005c724     mfc140d:mfc140d.dll
 0004:00000728       __imp_?AfxThrowMemoryException@@YGXXZ 1005c728     mfc140d:mfc140d.dll
 0004:0000072c       __imp_??_V@YAXPAX@Z        1005c72c     mfc140d:mfc140d.dll
 0004:00000730       __imp_??3@YAXPAX@Z         1005c730     mfc140d:mfc140d.dll
 0004:00000734       __imp_?GetThisMessageMap@CDialog@@KGPBUAFX_MSGMAP@@XZ 1005c734     mfc140d:mfc140d.dll
 0004:00000738       __imp_?get_accName@CWnd@@UAEJUtagVARIANT@@PAPA_W@Z 1005c738     mfc140d:mfc140d.dll
 0004:0000073c       __imp_?accLocation@CWnd@@UAEJPAJ000UtagVARIANT@@@Z 1005c73c     mfc140d:mfc140d.dll
 0004:00000740       __imp_?PreTranslateMessage@CWnd@@UAEHPAUtagMSG@@@Z 1005c740     mfc140d:mfc140d.dll
 0004:00000744       __imp_?accSelect@CWnd@@UAEJJUtagVARIANT@@@Z 1005c744     mfc140d:mfc140d.dll
 0004:00000748       __imp_?get_accChild@CWnd@@UAEJUtagVARIANT@@PAPAUIDispatch@@@Z 1005c748     mfc140d:mfc140d.dll
 0004:0000074c       __imp_?get_accChildCount@CWnd@@UAEJPAJ@Z 1005c74c     mfc140d:mfc140d.dll
 0004:00000750       __imp_?get_accParent@CWnd@@UAEJPAPAUIDispatch@@@Z 1005c750     mfc140d:mfc140d.dll
 0004:00000754       __imp_?EnsureStdObj@CWnd@@UAEJXZ 1005c754     mfc140d:mfc140d.dll
 0004:00000758       __imp_?GetInterfaceMap@CWnd@@MBEPBUAFX_INTERFACEMAP@@XZ 1005c758     mfc140d:mfc140d.dll
 0004:0000075c       __imp_?OnDrawIconicThumbnailOrLivePreview@CWnd@@UAEXAAVCDC@@VCRect@@VCSize@@HAAH@Z 1005c75c     mfc140d:mfc140d.dll
 0004:00000760       __imp_?EndModalLoop@CWnd@@UAEXH@Z 1005c760     mfc140d:mfc140d.dll
 0004:00000764       __imp_?ContinueModal@CWnd@@UAEHXZ 1005c764     mfc140d:mfc140d.dll
 0004:00000768       __imp_??1CPaintDC@@UAE@XZ  1005c768     mfc140d:mfc140d.dll
 0004:0000076c       __imp_?WinHelpInternal@CWnd@@UAEXKI@Z 1005c76c     mfc140d:mfc140d.dll
 0004:00000770       __imp_?OnSetFocus@CWnd@@IAEXPAV1@@Z 1005c770     mfc140d:mfc140d.dll
 0004:00000774       \177mfc140d_NULL_THUNK_DATA 1005c774     mfc140d:mfc140d.dll
 0004:0000086c       __imp__wcslen              1005c86c     ucrtd:ucrtbased.dll
 0004:00000870       __imp__strlen              1005c870     ucrtd:ucrtbased.dll
 0004:00000874       __imp____stdio_common_vswprintf_s 1005c874     ucrtd:ucrtbased.dll
 0004:00000878       __imp____stdio_common_vsprintf 1005c878     ucrtd:ucrtbased.dll
 0004:0000087c       __imp____stdio_common_vsnprintf_s 1005c87c     ucrtd:ucrtbased.dll
 0004:00000880       __imp__free                1005c880     ucrtd:ucrtbased.dll
 0004:00000884       __imp__malloc              1005c884     ucrtd:ucrtbased.dll
 0004:00000888       __imp___localtime64_s      1005c888     ucrtd:ucrtbased.dll
 0004:0000088c       __imp___mktime64           1005c88c     ucrtd:ucrtbased.dll
 0004:00000890       __imp___calloc_dbg         1005c890     ucrtd:ucrtbased.dll
 0004:00000894       __imp___CrtDbgReport       1005c894     ucrtd:ucrtbased.dll
 0004:00000898       __imp___CrtDbgReportW      1005c898     ucrtd:ucrtbased.dll
 0004:0000089c       __imp__ldiv                1005c89c     ucrtd:ucrtbased.dll
 0004:000008a0       __imp___itoa               1005c8a0     ucrtd:ucrtbased.dll
 0004:000008a4       __imp__terminate           1005c8a4     ucrtd:ucrtbased.dll
 0004:000008a8       __imp___seh_filter_dll     1005c8a8     ucrtd:ucrtbased.dll
 0004:000008ac       __imp___configure_narrow_argv 1005c8ac     ucrtd:ucrtbased.dll
 0004:000008b0       __imp__wcscpy_s            1005c8b0     ucrtd:ucrtbased.dll
 0004:000008b4       __imp___initialize_onexit_table 1005c8b4     ucrtd:ucrtbased.dll
 0004:000008b8       __imp___register_onexit_function 1005c8b8     ucrtd:ucrtbased.dll
 0004:000008bc       __imp___execute_onexit_table 1005c8bc     ucrtd:ucrtbased.dll
 0004:000008c0       __imp___crt_atexit         1005c8c0     ucrtd:ucrtbased.dll
 0004:000008c4       __imp___crt_at_quick_exit  1005c8c4     ucrtd:ucrtbased.dll
 0004:000008c8       __imp___cexit              1005c8c8     ucrtd:ucrtbased.dll
 0004:000008cc       __imp___initterm           1005c8cc     ucrtd:ucrtbased.dll
 0004:000008d0       __imp___initterm_e         1005c8d0     ucrtd:ucrtbased.dll
 0004:000008d4       __imp__strcpy_s            1005c8d4     ucrtd:ucrtbased.dll
 0004:000008d8       __imp__strcat_s            1005c8d8     ucrtd:ucrtbased.dll
 0004:000008dc       __imp____stdio_common_vsprintf_s 1005c8dc     ucrtd:ucrtbased.dll
 0004:000008e0       __imp___wmakepath_s        1005c8e0     ucrtd:ucrtbased.dll
 0004:000008e4       __imp___wsplitpath_s       1005c8e4     ucrtd:ucrtbased.dll
 0004:000008e8       __imp___invalid_parameter_noinfo 1005c8e8     ucrtd:ucrtbased.dll
 0004:000008ec       __imp___errno              1005c8ec     ucrtd:ucrtbased.dll
 0004:000008f0       __imp___recalloc           1005c8f0     ucrtd:ucrtbased.dll
 0004:000008f4       __imp___initialize_narrow_environment 1005c8f4     ucrtd:ucrtbased.dll
 0004:000008f8       \177ucrtbased_NULL_THUNK_DATA 1005c8f8     ucrtd:ucrtbased.dll
 0004:00000940       __IMPORT_DESCRIPTOR_ServiceCore 1005c940     ServiceCore:ServiceCore.dll
 0004:00000954       __IMPORT_DESCRIPTOR_KernelEngine 1005c954     KernelEngine:KernelEngine.dll
 0004:00000968       __IMPORT_DESCRIPTOR_mfc140d 1005c968     mfc140d:mfc140d.dll
 0004:0000097c       __IMPORT_DESCRIPTOR_KERNEL32 1005c97c     kernel32:KERNEL32.dll
 0004:00000990       __IMPORT_DESCRIPTOR_USER32 1005c990     user32:USER32.dll
 0004:000009a4       __IMPORT_DESCRIPTOR_OLEAUT32 1005c9a4     oleaut32:OLEAUT32.dll
 0004:000009b8       __IMPORT_DESCRIPTOR_MSVCP140D 1005c9b8     msvcprtd:MSVCP140D.dll
 0004:000009cc       __IMPORT_DESCRIPTOR_WS2_32 1005c9cc     ws2_32:WS2_32.dll
 0004:000009e0       __IMPORT_DESCRIPTOR_VCRUNTIME140D 1005c9e0     vcruntimed:VCRUNTIME140D.dll
 0004:000009f4       __IMPORT_DESCRIPTOR_ucrtbased 1005c9f4     ucrtd:ucrtbased.dll
 0004:00000a08       __NULL_IMPORT_DESCRIPTOR   1005ca08     ServiceCore:ServiceCore.dll
 0005:00000000       __tls_start                1005f000     msvcrtd:tlssup.obj
 0005:00000104       __Init_thread_epoch        1005f104     msvcrtd:thread_safe_statics.obj
 0005:00000208       __tls_end                  1005f208     msvcrtd:tlssup.obj
 0006:00000000       ___guard_check_icall_fptr  10060000     msvcrtd:guard_support.obj

 entry point at        0001:00000b2c

 Static symbols

 0000:fff94000       .debug$S                   10000000     mfc140d:mfc140d.dll
 0000:fff94000       .debug$S                   10000000     mfc140d:mfc140d.dll
 0000:fff94000       .debug$S                   10000000     mfc140d:mfc140d.dll
 0000:fff94000       .debug$S                   10000000     mfc140d:mfc140d.dll
 0000:fff94000       .debug$S                   10000000     mfc140d:mfc140d.dll
 0000:fff94000       .debug$S                   10000000     mfc140d:mfc140d.dll
 0000:fff94000       .debug$S                   10000000     mfc140d:mfc140d.dll
 0000:fff94000       .debug$S                   10000000     mfc140d:mfc140d.dll
 0000:fff94000       .debug$S                   10000000     mfc140d:mfc140d.dll
 0000:fff94000       .debug$S                   10000000     mfc140d:mfc140d.dll
 0000:fff94000       .debug$S                   10000000     mfc140d:mfc140d.dll
 0000:fff94000       .debug$S                   10000000     mfc140d:mfc140d.dll
 0000:fff94000       .debug$S                   10000000     mfc140d:mfc140d.dll
 0000:fff94000       .debug$S                   10000000     mfc140d:mfc140d.dll
 0000:fff94000       .debug$S                   10000000     mfc140d:mfc140d.dll
 0000:fff94000       .debug$S                   10000000     mfc140d:mfc140d.dll
 0000:fff94000       .debug$S                   10000000     mfc140d:mfc140d.dll
 0000:fff94000       .debug$S                   10000000     mfc140d:mfc140d.dll
 0000:fff94000       .debug$S                   10000000     mfc140d:mfc140d.dll
 0000:fff94000       .debug$S                   10000000     mfc140d:mfc140d.dll
 0000:fff94000       .debug$S                   10000000     mfc140d:mfc140d.dll
 0000:fff94000       .debug$S                   10000000     mfc140d:mfc140d.dll
 0000:fff94000       .debug$S                   10000000     mfc140d:mfc140d.dll
 0000:fff94000       .debug$S                   10000000     mfc140d:mfc140d.dll
 0000:fff94000       .debug$S                   10000000     mfc140d:mfc140d.dll
 0000:fff94000       .debug$S                   10000000     mfc140d:mfc140d.dll
 0000:fff94000       .debug$S                   10000000     mfc140d:mfc140d.dll
 0000:fff94000       .debug$S                   10000000     mfc140d:mfc140d.dll
 0000:fff94000       .debug$S                   10000000     mfc140d:mfc140d.dll
 0000:fff94000       .debug$S                   10000000     mfc140d:mfc140d.dll
 0000:fff94000       .debug$S                   10000000     mfc140d:mfc140d.dll
 0000:fff94000       .debug$S                   10000000     mfc140d:mfc140d.dll
 0000:fff94000       .debug$S                   10000000     mfc140d:mfc140d.dll
 0000:fff94000       .debug$S                   10000000     mfc140d:mfc140d.dll
 0000:fff94000       .debug$S                   10000000     mfc140d:mfc140d.dll
 0000:fff94000       .debug$S                   10000000     mfc140d:mfc140d.dll
 0000:fff94000       .debug$S                   10000000     mfc140d:mfc140d.dll
 0000:fff94000       .debug$S                   10000000     mfc140d:mfc140d.dll
 0000:fff94000       .debug$S                   10000000     mfc140d:mfc140d.dll
 0000:fff94000       .debug$S                   10000000     mfc140d:mfc140d.dll
 0000:fff94000       .debug$S                   10000000     mfc140d:mfc140d.dll
 0000:fff94000       .debug$S                   10000000     mfc140d:mfc140d.dll
 0000:fff94000       .debug$S                   10000000     mfc140d:mfc140d.dll
 0000:fff94000       .debug$S                   10000000     mfc140d:mfc140d.dll
 0000:fff94000       .debug$S                   10000000     mfc140d:mfc140d.dll
 0000:fff94000       .debug$S                   10000000     mfc140d:mfc140d.dll
 0000:fff94000       .debug$S                   10000000     mfc140d:mfc140d.dll
 0000:fff94000       .debug$S                   10000000     mfc140d:mfc140d.dll
 0000:fff94000       .debug$S                   10000000     mfc140d:mfc140d.dll
 0000:fff94000       .debug$S                   10000000     mfc140d:mfc140d.dll
 0000:fff94000       .debug$S                   10000000     mfc140d:mfc140d.dll
 0000:fff94000       .debug$S                   10000000     mfc140d:mfc140d.dll
 0000:fff94000       .debug$S                   10000000     mfc140d:mfc140d.dll
 0000:fff94000       .debug$S                   10000000     mfc140d:mfc140d.dll
 0000:fff94000       .debug$S                   10000000     mfc140d:mfc140d.dll
 0000:fff94000       .debug$S                   10000000     mfc140d:mfc140d.dll
 0000:fff94000       .debug$S                   10000000     mfc140d:mfc140d.dll
 0000:fff94000       .debug$S                   10000000     mfc140d:mfc140d.dll
 0000:fff94000       .debug$S                   10000000     mfc140d:mfc140d.dll
 0000:fff94000       .debug$S                   10000000     mfc140d:mfc140d.dll
 0000:fff94000       .debug$S                   10000000     mfc140d:mfc140d.dll
 0000:fff94000       .debug$S                   10000000     mfc140d:mfc140d.dll
 0000:fff94000       .debug$S                   10000000     mfc140d:mfc140d.dll
 0000:fff94000       .debug$S                   10000000     mfc140d:mfc140d.dll
 0000:fff94000       .debug$S                   10000000     mfc140d:mfc140d.dll
 0000:fff94000       .debug$S                   10000000     mfc140d:mfc140d.dll
 0000:fff94000       .debug$S                   10000000     mfc140d:mfc140d.dll
 0000:fff94000       .debug$S                   10000000     mfc140d:mfc140d.dll
 0000:fff94000       .debug$S                   10000000     mfc140d:mfc140d.dll
 0000:fff94000       .debug$S                   10000000     mfc140d:mfc140d.dll
 0000:fff94000       .debug$S                   10000000     mfc140d:mfc140d.dll
 0000:fff94000       .debug$S                   10000000     mfc140d:mfc140d.dll
 0000:fff94000       .debug$S                   10000000     mfc140d:mfc140d.dll
 0000:fff94000       .debug$S                   10000000     mfc140d:mfc140d.dll
 0001:fffff000       __ehhandler$??_ECMatchInfoBuffer@@UAEPAXI@Z 10000000 f   DlgServerMatch.obj
 0001:fffff000       __ehhandler$??_ECRewardInfoBuffer@@UAEPAXI@Z 10000000 f   DlgServerMatch.obj
 0001:fffff000       __ehhandler$??_ECMatchInfoManager@@UAEPAXI@Z 10000000 f   DlgServerMatch.obj
 0000:fff94000       .debug$S                   10000000     mfc140d:mfc140d.dll
 0000:fff94000       .debug$S                   10000000     mfc140d:mfc140d.dll
 0000:fff94000       .debug$S                   10000000     mfc140d:mfc140d.dll
 0000:fff94000       .debug$S                   10000000     mfc140d:mfc140d.dll
 0000:fff94000       .debug$S                   10000000     mfc140d:mfc140d.dll
 0000:fff94000       .debug$S                   10000000     mfc140d:mfc140d.dll
 0000:fff94000       .debug$S                   10000000     mfc140d:mfc140d.dll
 0000:fff94000       .debug$S                   10000000     mfc140d:mfc140d.dll
 0000:fff94000       .debug$S                   10000000     mfc140d:mfc140d.dll
 0000:fff94000       .debug$S                   10000000     mfc140d:mfc140d.dll
 0000:fff94000       .debug$S                   10000000     mfc140d:mfc140d.dll
 0000:fff94000       .debug$S                   10000000     mfc140d:mfc140d.dll
 0000:fff94000       .debug$S                   10000000     mfc140d:mfc140d.dll
 0000:fff94000       .debug$S                   10000000     mfc140d:mfc140d.dll
 0000:fff94000       .debug$S                   10000000     mfc140d:mfc140d.dll
 0000:fff94000       .debug$S                   10000000     mfc140d:mfc140d.dll
 0000:fff94000       .debug$S                   10000000     mfc140d:mfc140d.dll
 0002:fffc2000       __ehfuncinfo$??_ECMatchInfoBuffer@@UAEPAXI@Z 10000000     DlgServerMatch.obj
 0002:fffc2000       __ehfuncinfo$??_ECRewardInfoBuffer@@UAEPAXI@Z 10000000     DlgServerMatch.obj
 0002:fffc2000       __ehfuncinfo$??_ECMatchInfoManager@@UAEPAXI@Z 10000000     DlgServerMatch.obj
 0000:fff94000       .debug$S                   10000000     mfc140d:mfc140d.dll
 0000:fff94000       .debug$S                   10000000     mfc140d:mfc140d.dll
 0001:fffff000       __ehhandler$??1?$CTempldateHelper@UIGameServiceManager@@@@UAE@XZ 10000000 f   DlgServerWizard.obj
 0001:fffff000       __ehhandler$?CreateInstance@?$CTempldateHelper@UIGameServiceManager@@@@QAE_NXZ 10000000 f   DlgServerWizard.obj
 0000:fff94000       .debug$S                   10000000     mfc140d:mfc140d.dll
 0000:fff94000       .debug$S                   10000000     mfc140d:mfc140d.dll
 0000:fff94000       .debug$S                   10000000     mfc140d:mfc140d.dll
 0001:fffff000       __ehhandler$??_ECMatchOptionBuffer@@UAEPAXI@Z 10000000 f   DlgServerWizard.obj
 0001:fffff000       __ehhandler$??_ECServerInfoManager@@UAEPAXI@Z 10000000 f   DlgServerWizard.obj
 0000:fff94000       .debug$S                   10000000     mfc140d:mfc140d.dll
 0000:fff94000       .debug$S                   10000000     mfc140d:mfc140d.dll
 0000:fff94000       .debug$S                   10000000     mfc140d:mfc140d.dll
 0000:fff94000       .debug$S                   10000000     mfc140d:mfc140d.dll
 0000:fff94000       .debug$S                   10000000     mfc140d:mfc140d.dll
 0000:fff94000       .debug$S                   10000000     mfc140d:mfc140d.dll
 0000:fff94000       .debug$S                   10000000     mfc140d:mfc140d.dll
 0000:fff94000       .debug$S                   10000000     mfc140d:mfc140d.dll
 0000:fff94000       .debug$S                   10000000     mfc140d:mfc140d.dll
 0000:fff94000       .debug$S                   10000000     mfc140d:mfc140d.dll
 0000:fff94000       .debug$S                   10000000     mfc140d:mfc140d.dll
 0000:fff94000       .debug$S                   10000000     mfc140d:mfc140d.dll
 0000:fff94000       .debug$S                   10000000     mfc140d:mfc140d.dll
 0000:fff94000       .debug$S                   10000000     mfc140d:mfc140d.dll
 0000:fff94000       .debug$S                   10000000     mfc140d:mfc140d.dll
 0000:fff94000       .debug$S                   10000000     mfc140d:mfc140d.dll
 0000:fff94000       .debug$S                   10000000     mfc140d:mfc140d.dll
 0000:fff94000       .debug$S                   10000000     mfc140d:mfc140d.dll
 0000:fff94000       .debug$S                   10000000     mfc140d:mfc140d.dll
 0000:fff94000       .debug$S                   10000000     mfc140d:mfc140d.dll
 0000:fff94000       .debug$S                   10000000     mfc140d:mfc140d.dll
 0000:fff94000       .debug$S                   10000000     mfc140d:mfc140d.dll
 0000:fff94000       .debug$S                   10000000     mfc140d:mfc140d.dll
 0000:fff94000       .debug$S                   10000000     mfc140d:mfc140d.dll
 0000:fff94000       .debug$S                   10000000     mfc140d:mfc140d.dll
 0000:fff94000       .debug$S                   10000000     mfc140d:mfc140d.dll
 0000:fff94000       .debug$S                   10000000     mfc140d:mfc140d.dll
 0000:fff94000       .debug$S                   10000000     mfc140d:mfc140d.dll
 0000:fff94000       .debug$S                   10000000     mfc140d:mfc140d.dll
 0000:fff94000       .debug$S                   10000000     mfc140d:mfc140d.dll
 0000:fff94000       .debug$S                   10000000     mfc140d:mfc140d.dll
 0000:fff94000       .debug$S                   10000000     mfc140d:mfc140d.dll
 0000:fff94000       .debug$S                   10000000     mfc140d:mfc140d.dll
 0000:fff94000       .debug$S                   10000000     mfc140d:mfc140d.dll
 0000:fff94000       .debug$S                   10000000     mfc140d:mfc140d.dll
 0000:fff94000       .debug$S                   10000000     mfc140d:mfc140d.dll
 0000:fff94000       .debug$S                   10000000     mfc140d:mfc140d.dll
 0000:fff94000       .debug$S                   10000000     mfc140d:mfc140d.dll
 0000:fff94000       .debug$S                   10000000     mfc140d:mfc140d.dll
 0000:fff94000       .debug$S                   10000000     mfc140d:mfc140d.dll
 0000:fff94000       .debug$S                   10000000     mfc140d:mfc140d.dll
 0000:fff94000       .debug$S                   10000000     mfc140d:mfc140d.dll
 0000:fff94000       .debug$S                   10000000     mfc140d:mfc140d.dll
 0000:fff94000       .debug$S                   10000000     mfc140d:mfc140d.dll
 0000:fff94000       .debug$S                   10000000     mfc140d:mfc140d.dll
 0000:fff94000       .debug$S                   10000000     mfc140d:mfc140d.dll
 0000:fff94000       .debug$S                   10000000     mfc140d:mfc140d.dll
 0000:fff94000       .debug$S                   10000000     mfc140d:mfc140d.dll
 0000:fff94000       .debug$S                   10000000     mfc140d:mfc140d.dll
 0000:fff94000       .debug$S                   10000000     mfc140d:mfc140d.dll
 0001:fffff000       __ehhandler$??_ECModuleDBParameter@@UAEPAXI@Z 10000000 f   DlgServerWizard.obj
 0002:fffc2000       __ehfuncinfo$??1?$CTempldateHelper@UIGameServiceManager@@@@UAE@XZ 10000000     DlgServerWizard.obj
 0000:fff94000       .debug$S                   10000000     mfc140d:mfc140d.dll
 0002:fffc2000       __unwindtable$?CreateInstance@?$CTempldateHelper@UIGameServiceManager@@@@QAE_NXZ 10000000     DlgServerWizard.obj
 0000:fff94000       .debug$S                   10000000     mfc140d:mfc140d.dll
 0000:fff94000       .debug$S                   10000000     mfc140d:mfc140d.dll
 0002:fffc2000       __ehfuncinfo$??_ECMatchOptionBuffer@@UAEPAXI@Z 10000000     DlgServerWizard.obj
 0002:fffc2000       __ehfuncinfo$??_ECServerInfoManager@@UAEPAXI@Z 10000000     DlgServerWizard.obj
 0002:fffc2000       __ehfuncinfo$??_ECModuleDBParameter@@UAEPAXI@Z 10000000     DlgServerWizard.obj
 0002:fffc2000       ?atlTraceException$initializer$@ATL@@3P6AXXZA 10000000     DlgServerWizard.obj
 0000:fff94000       .debug$S                   10000000     mfc140d:mfc140d.dll
 0000:fff94000       .debug$S                   10000000     mfc140d:mfc140d.dll
 0000:fff94000       .debug$S                   10000000     mfc140d:mfc140d.dll
 0000:fff94000       .debug$S                   10000000     mfc140d:mfc140d.dll
 0000:fff94000       .debug$S                   10000000     mfc140d:mfc140d.dll
 0000:fff94000       .debug$S                   10000000     mfc140d:mfc140d.dll
 0000:fff94000       .debug$S                   10000000     mfc140d:mfc140d.dll
 0001:fffff000       __ehhandler$??1?$CTempldateHelper@UIDataBase@@@@UAE@XZ 10000000 f   MatchInfoManager.obj
 0001:fffff000       __ehhandler$?CreateInstance@?$CTempldateHelper@UIDataBase@@@@QAE_NXZ 10000000 f   MatchInfoManager.obj
 0000:fff94000       .debug$S                   10000000     mfc140d:mfc140d.dll
 0000:fff94000       .debug$S                   10000000     mfc140d:mfc140d.dll
 0001:fffff000       __ehhandler$??_ECModuleDBParameter@@UAEPAXI@Z 10000000 f   MatchInfoManager.obj
 0000:fff94000       .debug$S                   10000000     mfc140d:mfc140d.dll
 0000:fff94000       .debug$S                   10000000     mfc140d:mfc140d.dll
 0000:fff94000       .debug$S                   10000000     mfc140d:mfc140d.dll
 0000:fff94000       .debug$S                   10000000     mfc140d:mfc140d.dll
 0000:fff94000       .debug$S                   10000000     mfc140d:mfc140d.dll
 0000:fff94000       .debug$S                   10000000     mfc140d:mfc140d.dll
 0000:fff94000       .debug$S                   10000000     mfc140d:mfc140d.dll
 0000:fff94000       .debug$S                   10000000     mfc140d:mfc140d.dll
 0001:fffff000       __ehhandler$??_ECMatchInfoBuffer@@UAEPAXI@Z 10000000 f   MatchInfoManager.obj
 0000:fff94000       .debug$S                   10000000     mfc140d:mfc140d.dll
 0000:fff94000       .debug$S                   10000000     mfc140d:mfc140d.dll
 0000:fff94000       .debug$S                   10000000     mfc140d:mfc140d.dll
 0000:fff94000       .debug$S                   10000000     mfc140d:mfc140d.dll
 0000:fff94000       .debug$S                   10000000     mfc140d:mfc140d.dll
 0000:fff94000       .debug$S                   10000000     mfc140d:mfc140d.dll
 0000:fff94000       .debug$S                   10000000     mfc140d:mfc140d.dll
 0000:fff94000       .debug$S                   10000000     mfc140d:mfc140d.dll
 0001:fffff000       __ehhandler$??_ECRewardInfoBuffer@@UAEPAXI@Z 10000000 f   MatchInfoManager.obj
 0000:fff94000       .debug$S                   10000000     mfc140d:mfc140d.dll
 0000:fff94000       .debug$S                   10000000     mfc140d:mfc140d.dll
 0000:fff94000       .debug$S                   10000000     mfc140d:mfc140d.dll
 0000:fff94000       .debug$S                   10000000     mfc140d:mfc140d.dll
 0000:fff94000       .debug$S                   10000000     mfc140d:mfc140d.dll
 0000:fff94000       .debug$S                   10000000     mfc140d:mfc140d.dll
 0000:fff94000       .debug$S                   10000000     mfc140d:mfc140d.dll
 0000:fff94000       .debug$S                   10000000     mfc140d:mfc140d.dll
 0000:fff94000       .debug$S                   10000000     mfc140d:mfc140d.dll
 0000:fff94000       .debug$S                   10000000     mfc140d:mfc140d.dll
 0000:fff94000       .debug$S                   10000000     mfc140d:mfc140d.dll
 0000:fffa1000       __guard_fids__             10000000     mfcs140d:nolib.obj
 0001:fffff000       __unwindfunclet$?TraceV@CTrace@ATL@@SAXPBDHII0PAD@Z$0 10000000 f   mfcs140d:nolib.obj
 0001:fffff000       __unwindfunclet$??RCTraceFileAndLineInfo@ATL@@QBAXHIPBDZZ$0 10000000 f   mfcs140d:nolib.obj
 0001:fffff000       __ehhandler$??1?$CSimpleArray@GV?$CSimpleArrayEqualHelper@G@ATL@@@ATL@@QAE@XZ 10000000 f   mfcs140d:nolib.obj
 0001:fffff000       __unwindfunclet$??0_ATL_WIN_MODULE70@ATL@@QAE@XZ$0 10000000 f   mfcs140d:nolib.obj
 0001:fffff000       __ehhandler$??1CAtlComModule@ATL@@QAE@XZ 10000000 f   mfcs140d:nolib.obj
 0001:fffff000       __ehhandler$??1CAtlWinModule@ATL@@QAE@XZ 10000000 f   mfcs140d:nolib.obj
 0000:fff94000       .debug$S                   10000000     mfc140d:mfc140d.dll
 0000:fff94000       .debug$S                   10000000     mfc140d:mfc140d.dll
 0002:fffc2000       __unwindtable$?TraceV@CTrace@ATL@@SAXPBDHII0PAD@Z 10000000     mfcs140d:nolib.obj
 0002:fffc2000       __unwindtable$??RCTraceFileAndLineInfo@ATL@@QBAXHIPBDZZ 10000000     mfcs140d:nolib.obj
 0002:fffc2000       __ehfuncinfo$??1?$CSimpleArray@GV?$CSimpleArrayEqualHelper@G@ATL@@@ATL@@QAE@XZ 10000000     mfcs140d:nolib.obj
 0002:fffc2000       __unwindtable$??0_ATL_WIN_MODULE70@ATL@@QAE@XZ 10000000     mfcs140d:nolib.obj
 0002:fffc2000       __ehfuncinfo$??1CAtlComModule@ATL@@QAE@XZ 10000000     mfcs140d:nolib.obj
 0000:fffa1000       __guard_fids_??__E_AtlComModule@ATL@@YAXXZ 10000000     mfcs140d:nolib.obj
 0001:fffff000       __ehhandler$??_ECMatchInfoManager@@UAEPAXI@Z 10000000 f   MatchInfoManager.obj
 0001:fffff000       __ehhandler$??_ECModuleInfoManager@@UAEPAXI@Z 10000000 f   MatchInfoManager.obj
 0002:fffc2000       __ehfuncinfo$??1?$CTempldateHelper@UIDataBase@@@@UAE@XZ 10000000     MatchInfoManager.obj
 0002:fffc2000       __ehfuncinfo$??1CAtlWinModule@ATL@@QAE@XZ 10000000     mfcs140d:nolib.obj
 0002:fffc2000       __unwindtable$?CreateInstance@?$CTempldateHelper@UIDataBase@@@@QAE_NXZ 10000000     MatchInfoManager.obj
 0000:fffa1000       __guard_fids_??__E_AtlWinModule@ATL@@YAXXZ 10000000     mfcs140d:nolib.obj
 0000:fffa1000       __guard_fids_?GetInstance@CAtlStringMgr@ATL@@SAPAUIAtlStringMgr@2@XZ 10000000     mfcs140d:nolib.obj
 0002:fffc2000       __ehfuncinfo$??_ECModuleDBParameter@@UAEPAXI@Z 10000000     MatchInfoManager.obj
 0002:fffc2000       __ehfuncinfo$??_ECMatchInfoBuffer@@UAEPAXI@Z 10000000     MatchInfoManager.obj
 0002:fffc2000       __ehfuncinfo$??_ECRewardInfoBuffer@@UAEPAXI@Z 10000000     MatchInfoManager.obj
 0002:fffc2000       __ehfuncinfo$??_ECMatchInfoManager@@UAEPAXI@Z 10000000     MatchInfoManager.obj
 0002:fffc2000       __ehfuncinfo$??_ECModuleInfoManager@@UAEPAXI@Z 10000000     MatchInfoManager.obj
 0000:fffa1000       __guard_fids_??_Estringdispid@CComTypeInfoHolder@ATL@@QAEPAXI@Z 10000000     mfcs140d:nolib.obj
 0000:fff94000       .debug$S                   10000000     mfc140d:mfc140d.dll
 0000:fff94000       .debug$S                   10000000     mfc140d:mfc140d.dll
 0000:fff94000       .debug$S                   10000000     mfc140d:mfc140d.dll
 0002:fffc2000       ?atlTraceGeneral$initializer$@ATL@@3P6AXXZA 10000000     mfcs140d:nolib.obj
 0001:fffff000       __ehhandler$??_ECModuleDBParameter@@UAEPAXI@Z 10000000 f   ModuleDBParameter.obj
 0002:fffc2000       __ehfuncinfo$??_ECModuleDBParameter@@UAEPAXI@Z 10000000     ModuleDBParameter.obj
 0001:fffff000       __ehhandler$??1?$CTempldateHelper@UIDataBase@@@@UAE@XZ 10000000 f   ModuleInfoManager.obj
 0001:fffff000       __ehhandler$?CreateInstance@?$CTempldateHelper@UIDataBase@@@@QAE_NXZ 10000000 f   ModuleInfoManager.obj
 0000:fffa1000       __guard_fids__             10000000     mfcs140d:nolib.obj
 0000:fffa1000       __guard_fids__             10000000     mfcs140d:nolib.obj
 0001:fffff000       __ehhandler$??1?$CTempldateHelper@UIGameServiceManager@@@@UAE@XZ 10000000 f   ModuleInfoManager.obj
 0001:fffff000       __ehhandler$?CreateInstance@?$CTempldateHelper@UIGameServiceManager@@@@QAE_NXZ 10000000 f   ModuleInfoManager.obj
 0000:fffa1000       __guard_fids__             10000000     mfcs140d:nolib.obj
 0000:fffa1000       __guard_fids__             10000000     mfcs140d:nolib.obj
 0001:fffff000       __ehhandler$??_ECModuleDBParameter@@UAEPAXI@Z 10000000 f   ModuleInfoManager.obj
 0000:fffa1000       __guard_fids__             10000000     mfcs140d:nolib.obj
 0000:fffa1000       __guard_fids__             10000000     mfcs140d:nolib.obj
 0002:fffc2000       ?atlTraceCOM$initializer$@ATL@@3P6AXXZA 10000000     mfcs140d:nolib.obj
 0000:fffa1000       __guard_fids__             10000000     mfcs140d:nolib.obj
 0002:fffc2000       ?atlTraceQI$initializer$@ATL@@3P6AXXZA 10000000     mfcs140d:nolib.obj
 0000:fffa1000       __guard_fids__             10000000     mfcs140d:nolib.obj
 0002:fffc2000       ?atlTraceRegistrar$initializer$@ATL@@3P6AXXZA 10000000     mfcs140d:nolib.obj
 0000:fffa1000       __guard_fids__             10000000     mfcs140d:nolib.obj
 0002:fffc2000       ?atlTraceRefcount$initializer$@ATL@@3P6AXXZA 10000000     mfcs140d:nolib.obj
 0000:fffa1000       __guard_fids__             10000000     mfcs140d:nolib.obj
 0002:fffc2000       ?atlTraceWindowing$initializer$@ATL@@3P6AXXZA 10000000     mfcs140d:nolib.obj
 0000:fffa1000       __guard_fids__             10000000     mfcs140d:nolib.obj
 0002:fffc2000       ?atlTraceControls$initializer$@ATL@@3P6AXXZA 10000000     mfcs140d:nolib.obj
 0000:fffa1000       __guard_fids__             10000000     mfcs140d:nolib.obj
 0002:fffc2000       ?atlTraceHosting$initializer$@ATL@@3P6AXXZA 10000000     mfcs140d:nolib.obj
 0000:fffa1000       __guard_fids__             10000000     mfcs140d:nolib.obj
 0002:fffc2000       ?atlTraceDBClient$initializer$@ATL@@3P6AXXZA 10000000     mfcs140d:nolib.obj
 0000:fffa1000       __guard_fids__             10000000     mfcs140d:nolib.obj
 0002:fffc2000       ?atlTraceDBProvider$initializer$@ATL@@3P6AXXZA 10000000     mfcs140d:nolib.obj
 0001:fffff000       __ehhandler$??_ECModuleInfoManager@@UAEPAXI@Z 10000000 f   ModuleInfoManager.obj
 0002:fffc2000       __ehfuncinfo$??1?$CTempldateHelper@UIDataBase@@@@UAE@XZ 10000000     ModuleInfoManager.obj
 0000:fffa1000       __guard_fids__             10000000     mfcs140d:nolib.obj
 0002:fffc2000       __unwindtable$?CreateInstance@?$CTempldateHelper@UIDataBase@@@@QAE_NXZ 10000000     ModuleInfoManager.obj
 0002:fffc2000       ?atlTraceSnapin$initializer$@ATL@@3P6AXXZA 10000000     mfcs140d:nolib.obj
 0000:fffa1000       __guard_fids__             10000000     mfcs140d:nolib.obj
 0002:fffc2000       __ehfuncinfo$??1?$CTempldateHelper@UIGameServiceManager@@@@UAE@XZ 10000000     ModuleInfoManager.obj
 0002:fffc2000       ?atlTraceNotImpl$initializer$@ATL@@3P6AXXZA 10000000     mfcs140d:nolib.obj
 0002:fffc2000       __unwindtable$?CreateInstance@?$CTempldateHelper@UIGameServiceManager@@@@QAE_NXZ 10000000     ModuleInfoManager.obj
 0000:fffa1000       __guard_fids__             10000000     mfcs140d:nolib.obj
 0002:fffc2000       ?atlTraceAllocation$initializer$@ATL@@3P6AXXZA 10000000     mfcs140d:nolib.obj
 0002:fffc2000       __ehfuncinfo$??_ECModuleDBParameter@@UAEPAXI@Z 10000000     ModuleInfoManager.obj
 0002:fffc2000       __ehfuncinfo$??_ECModuleInfoManager@@UAEPAXI@Z 10000000     ModuleInfoManager.obj
 0000:fffa1000       __guard_fids__             10000000     mfcs140d:nolib.obj
 0002:fffc2000       ?atlTraceException$initializer$@ATL@@3P6AXXZA 10000000     mfcs140d:nolib.obj
 0000:fffa1000       __guard_fids__             10000000     mfcs140d:nolib.obj
 0002:fffc2000       ?atlTraceTime$initializer$@ATL@@3P6AXXZA 10000000     mfcs140d:nolib.obj
 0001:fffff000       __ehhandler$??1?$CTempldateHelper@UIDataBase@@@@UAE@XZ 10000000 f   ServerInfoManager.obj
 0001:fffff000       __ehhandler$?CreateInstance@?$CTempldateHelper@UIDataBase@@@@QAE_NXZ 10000000 f   ServerInfoManager.obj
 0000:fffa1000       __guard_fids__             10000000     mfcs140d:nolib.obj
 0002:fffc2000       ?atlTraceCache$initializer$@ATL@@3P6AXXZA 10000000     mfcs140d:nolib.obj
 0001:fffff000       __ehhandler$??_ECModuleDBParameter@@UAEPAXI@Z 10000000 f   ServerInfoManager.obj
 0000:fffa1000       __guard_fids__             10000000     mfcs140d:nolib.obj
 0002:fffc2000       ?atlTraceStencil$initializer$@ATL@@3P6AXXZA 10000000     mfcs140d:nolib.obj
 0000:fffa1000       __guard_fids__             10000000     mfcs140d:nolib.obj
 0002:fffc2000       ?atlTraceString$initializer$@ATL@@3P6AXXZA 10000000     mfcs140d:nolib.obj
 0000:fffa1000       __guard_fids__             10000000     mfcs140d:nolib.obj
 0002:fffc2000       ?atlTraceMap$initializer$@ATL@@3P6AXXZA 10000000     mfcs140d:nolib.obj
 0000:fffa1000       __guard_fids__             10000000     mfcs140d:nolib.obj
 0002:fffc2000       ?atlTraceUtil$initializer$@ATL@@3P6AXXZA 10000000     mfcs140d:nolib.obj
 0000:fffa1000       __guard_fids__             10000000     mfcs140d:nolib.obj
 0002:fffc2000       ?atlTraceSecurity$initializer$@ATL@@3P6AXXZA 10000000     mfcs140d:nolib.obj
 0000:fffa1000       __guard_fids__             10000000     mfcs140d:nolib.obj
 0002:fffc2000       ?atlTraceSync$initializer$@ATL@@3P6AXXZA 10000000     mfcs140d:nolib.obj
 0000:fffa1000       __guard_fids__             10000000     mfcs140d:nolib.obj
 0002:fffc2000       ?atlTraceISAPI$initializer$@ATL@@3P6AXXZA 10000000     mfcs140d:nolib.obj
 0000:fffa1000       __guard_fids__             10000000     mfcs140d:nolib.obj
 0002:fffc2000       ?_AtlComModule$initializer$@ATL@@3P6AXXZA 10000000     mfcs140d:nolib.obj
 0000:fffa1000       __guard_fids__             10000000     mfcs140d:nolib.obj
 0002:fffc2000       ?_AtlWinModule$initializer$@ATL@@3P6AXXZA 10000000     mfcs140d:nolib.obj
 0000:fffa1000       __guard_fids__             10000000     mfcs140d:nolib.obj
 0002:fffc2000       ?InitializeCAtlStringMgr$initializer$@ATLImplementationDetails@ATL@@3P6AXXZA 10000000     mfcs140d:nolib.obj
 0000:fffa1000       __guard_fids__             10000000     mfcs140d:nolib.obj
 0001:fffff000       __ehhandler$??_ECMatchOptionBuffer@@UAEPAXI@Z 10000000 f   ServerInfoManager.obj
 0000:fffa1000       __guard_fids__             10000000     mfcs140d:stdafx.obj
 0001:fffff000       __unwindfunclet$?TraceV@CTrace@ATL@@SAXPBDHII0PAD@Z$0 10000000 f   mfcs140d:stdafx.obj
 0001:fffff000       __unwindfunclet$??RCTraceFileAndLineInfo@ATL@@QBAXHIPBDZZ$0 10000000 f   mfcs140d:stdafx.obj
 0001:fffff000       __ehhandler$??1?$CSimpleArray@GV?$CSimpleArrayEqualHelper@G@ATL@@@ATL@@QAE@XZ 10000000 f   mfcs140d:stdafx.obj
 0001:fffff000       __unwindfunclet$??0_ATL_WIN_MODULE70@ATL@@QAE@XZ$0 10000000 f   mfcs140d:stdafx.obj
 0001:fffff000       __ehhandler$??1CAtlComModule@ATL@@QAE@XZ 10000000 f   mfcs140d:stdafx.obj
 0001:fffff000       __ehhandler$??1CAtlWinModule@ATL@@QAE@XZ 10000000 f   mfcs140d:stdafx.obj
 0001:fffff000       __ehhandler$??_Estringdispid@CComTypeInfoHolder@ATL@@QAEPAXI@Z 10000000 f   mfcs140d:stdafx.obj
 0002:fffc2000       __sehtable$_WinbaseIsolationAwarePrivatetRgzlnPgpgk@0 10000000     mfcs140d:stdafx.obj
 0002:fffc2000       __sehtable$_IsolationAwareUnregisterClassA@8 10000000     mfcs140d:stdafx.obj
 0002:fffc2000       __unwindtable$?TraceV@CTrace@ATL@@SAXPBDHII0PAD@Z 10000000     mfcs140d:stdafx.obj
 0002:fffc2000       __unwindtable$??RCTraceFileAndLineInfo@ATL@@QBAXHIPBDZZ 10000000     mfcs140d:stdafx.obj
 0002:fffc2000       __ehfuncinfo$??1?$CSimpleArray@GV?$CSimpleArrayEqualHelper@G@ATL@@@ATL@@QAE@XZ 10000000     mfcs140d:stdafx.obj
 0002:fffc2000       __unwindtable$??0_ATL_WIN_MODULE70@ATL@@QAE@XZ 10000000     mfcs140d:stdafx.obj
 0002:fffc2000       __ehfuncinfo$??1CAtlComModule@ATL@@QAE@XZ 10000000     mfcs140d:stdafx.obj
 0000:fffa1000       __guard_fids_??__E_AtlComModule@ATL@@YAXXZ 10000000     mfcs140d:stdafx.obj
 0002:fffc2000       __ehfuncinfo$??1CAtlWinModule@ATL@@QAE@XZ 10000000     mfcs140d:stdafx.obj
 0000:fffa1000       __guard_fids_??__E_AtlWinModule@ATL@@YAXXZ 10000000     mfcs140d:stdafx.obj
 0000:fffa1000       __guard_fids_?GetInstance@CAtlStringMgr@ATL@@SAPAUIAtlStringMgr@2@XZ 10000000     mfcs140d:stdafx.obj
 0000:fffa1000       __guard_fids_??_Estringdispid@CComTypeInfoHolder@ATL@@QAEPAXI@Z 10000000     mfcs140d:stdafx.obj
 0002:fffc2000       __ehfuncinfo$??_Estringdispid@CComTypeInfoHolder@ATL@@QAEPAXI@Z 10000000     mfcs140d:stdafx.obj
 0000:fff94000       .debug$S                   10000000     mfc140d:mfc140d.dll
 0000:fff94000       .debug$S                   10000000     mfc140d:mfc140d.dll
 0002:fffc2000       ?atlTraceGeneral$initializer$@ATL@@3P6AXXZA 10000000     mfcs140d:stdafx.obj
 0000:fffa1000       __guard_fids__             10000000     mfcs140d:stdafx.obj
 0000:fffa1000       __guard_fids__             10000000     mfcs140d:stdafx.obj
 0000:fffa1000       __guard_fids__             10000000     mfcs140d:stdafx.obj
 0000:fffa1000       __guard_fids__             10000000     mfcs140d:stdafx.obj
 0000:fffa1000       __guard_fids__             10000000     mfcs140d:stdafx.obj
 0000:fffa1000       __guard_fids__             10000000     mfcs140d:stdafx.obj
 0001:fffff000       __ehhandler$??_ECServerInfoManager@@UAEPAXI@Z 10000000 f   ServerInfoManager.obj
 0002:fffc2000       __ehfuncinfo$??1?$CTempldateHelper@UIDataBase@@@@UAE@XZ 10000000     ServerInfoManager.obj
 0002:fffc2000       ?atlTraceCOM$initializer$@ATL@@3P6AXXZA 10000000     mfcs140d:stdafx.obj
 0002:fffc2000       __unwindtable$?CreateInstance@?$CTempldateHelper@UIDataBase@@@@QAE_NXZ 10000000     ServerInfoManager.obj
 0000:fffa1000       __guard_fids__             10000000     mfcs140d:stdafx.obj
 0002:fffc2000       ?atlTraceQI$initializer$@ATL@@3P6AXXZA 10000000     mfcs140d:stdafx.obj
 0002:fffc2000       __ehfuncinfo$??_ECModuleDBParameter@@UAEPAXI@Z 10000000     ServerInfoManager.obj
 0002:fffc2000       __ehfuncinfo$??_ECMatchOptionBuffer@@UAEPAXI@Z 10000000     ServerInfoManager.obj
 0002:fffc2000       __ehfuncinfo$??_ECServerInfoManager@@UAEPAXI@Z 10000000     ServerInfoManager.obj
 0000:fffa1000       __guard_fids__             10000000     mfcs140d:stdafx.obj
 0002:fffc2000       ?atlTraceRegistrar$initializer$@ATL@@3P6AXXZA 10000000     mfcs140d:stdafx.obj
 0000:fffa1000       __guard_fids__             10000000     mfcs140d:stdafx.obj
 0002:fffc2000       ?atlTraceRefcount$initializer$@ATL@@3P6AXXZA 10000000     mfcs140d:stdafx.obj
 0000:fffa1000       __guard_fids__             10000000     mfcs140d:stdafx.obj
 0002:fffc2000       ?atlTraceWindowing$initializer$@ATL@@3P6AXXZA 10000000     mfcs140d:stdafx.obj
 0000:fffa1000       __guard_fids__             10000000     mfcs140d:stdafx.obj
 0002:fffc2000       ?atlTraceControls$initializer$@ATL@@3P6AXXZA 10000000     mfcs140d:stdafx.obj
 0000:fffa1000       __guard_fids__             10000000     mfcs140d:stdafx.obj
 0002:fffc2000       ?atlTraceHosting$initializer$@ATL@@3P6AXXZA 10000000     mfcs140d:stdafx.obj
 0000:fffa1000       __guard_fids__             10000000     mfcs140d:stdafx.obj
 0002:fffc2000       ?atlTraceDBClient$initializer$@ATL@@3P6AXXZA 10000000     mfcs140d:stdafx.obj
 0000:fffa1000       __guard_fids__             10000000     mfcs140d:stdafx.obj
 0002:fffc2000       ?atlTraceDBProvider$initializer$@ATL@@3P6AXXZA 10000000     mfcs140d:stdafx.obj
 0000:fffa1000       __guard_fids__             10000000     mfcs140d:stdafx.obj
 0002:fffc2000       ?atlTraceSnapin$initializer$@ATL@@3P6AXXZA 10000000     mfcs140d:stdafx.obj
 0000:fffa1000       __guard_fids__             10000000     mfcs140d:stdafx.obj
 0002:fffc2000       ?atlTraceNotImpl$initializer$@ATL@@3P6AXXZA 10000000     mfcs140d:stdafx.obj
 0000:fffa1000       __guard_fids__             10000000     mfcs140d:stdafx.obj
 0002:fffc2000       ?atlTraceAllocation$initializer$@ATL@@3P6AXXZA 10000000     mfcs140d:stdafx.obj
 0000:fffa1000       __guard_fids__             10000000     mfcs140d:stdafx.obj
 0002:fffc2000       ?atlTraceException$initializer$@ATL@@3P6AXXZA 10000000     mfcs140d:stdafx.obj
 0000:fffa1000       __guard_fids__             10000000     mfcs140d:stdafx.obj
 0002:fffc2000       ?atlTraceTime$initializer$@ATL@@3P6AXXZA 10000000     mfcs140d:stdafx.obj
 0000:fffa1000       __guard_fids__             10000000     mfcs140d:stdafx.obj
 0002:fffc2000       ?atlTraceCache$initializer$@ATL@@3P6AXXZA 10000000     mfcs140d:stdafx.obj
 0000:fffa1000       __guard_fids__             10000000     mfcs140d:stdafx.obj
 0002:fffc2000       ?atlTraceStencil$initializer$@ATL@@3P6AXXZA 10000000     mfcs140d:stdafx.obj
 0000:fffa1000       __guard_fids__             10000000     mfcs140d:stdafx.obj
 0002:fffc2000       ?atlTraceString$initializer$@ATL@@3P6AXXZA 10000000     mfcs140d:stdafx.obj
 0000:fffa1000       __guard_fids__             10000000     mfcs140d:stdafx.obj
 0002:fffc2000       ?atlTraceMap$initializer$@ATL@@3P6AXXZA 10000000     mfcs140d:stdafx.obj
 0001:fffff000       __unwindfunclet$?TraceV@CTrace@ATL@@SAXPBDHII0PAD@Z$0 10000000 f   Stdafx.obj
 0000:fffa1000       __guard_fids__             10000000     mfcs140d:stdafx.obj
 0002:fffc2000       ?atlTraceUtil$initializer$@ATL@@3P6AXXZA 10000000     mfcs140d:stdafx.obj
 0001:fffff000       __unwindfunclet$??RCTraceFileAndLineInfo@ATL@@QBAXHIPBDZZ$0 10000000 f   Stdafx.obj
 0000:fffa1000       __guard_fids__             10000000     mfcs140d:stdafx.obj
 0002:fffc2000       ?atlTraceSecurity$initializer$@ATL@@3P6AXXZA 10000000     mfcs140d:stdafx.obj
 0000:fffa1000       __guard_fids__             10000000     mfcs140d:stdafx.obj
 0002:fffc2000       ?atlTraceSync$initializer$@ATL@@3P6AXXZA 10000000     mfcs140d:stdafx.obj
 0000:fffa1000       __guard_fids__             10000000     mfcs140d:stdafx.obj
 0002:fffc2000       ?atlTraceISAPI$initializer$@ATL@@3P6AXXZA 10000000     mfcs140d:stdafx.obj
 0002:fffc2000       __unwindtable$?TraceV@CTrace@ATL@@SAXPBDHII0PAD@Z 10000000     Stdafx.obj
 0000:fffa1000       __guard_fids__             10000000     mfcs140d:stdafx.obj
 0002:fffc2000       __unwindtable$??RCTraceFileAndLineInfo@ATL@@QBAXHIPBDZZ 10000000     Stdafx.obj
 0002:fffc2000       ?_AtlComModule$initializer$@ATL@@3P6AXXZA 10000000     mfcs140d:stdafx.obj
 0000:fffa1000       __guard_fids__             10000000     mfcs140d:stdafx.obj
 0002:fffc2000       ?_AtlWinModule$initializer$@ATL@@3P6AXXZA 10000000     mfcs140d:stdafx.obj
 0000:fffa1000       __guard_fids__             10000000     mfcs140d:stdafx.obj
 0002:fffc2000       ?InitializeCAtlStringMgr$initializer$@ATLImplementationDetails@ATL@@3P6AXXZA 10000000     mfcs140d:stdafx.obj
 0000:fffa1000       __guard_fids__             10000000     mfcs140d:stdafx.obj
 0000:fff94000       .debug$S                   10000000     mfc140d:mfc140d.dll
 0000:fff94000       .debug$S                   10000000     mfc140d:mfc140d.dll
 0000:fffa1000       __guard_fids__             10000000     msvcrtd:std_type_info_static.obj
 0000:fff94000       .debug$S                   10000000     mfc140d:mfc140d.dll
 0000:fff94000       .debug$S                   10000000     mfc140d:mfc140d.dll
 0000:fff94000       .debug$S                   10000000     mfc140d:mfc140d.dll
 0000:fff94000       .debug$S                   10000000     mfc140d:mfc140d.dll
 0002:fffc2000       ?atlTraceException$initializer$@ATL@@3P6AXXZA 10000000     Stdafx.obj
 0000:fff94000       .debug$S                   10000000     mfc140d:mfc140d.dll
 0000:fffa1000       __guard_fids__             10000000     msvcrtd:thread_safe_statics.obj
 0000:fff94000       .debug$S                   10000000     mfc140d:mfc140d.dll
 0002:fffc2000       ?atlTraceString$initializer$@ATL@@3P6AXXZA 10000000     Stdafx.obj
 0000:fff94000       .debug$S                   10000000     mfc140d:mfc140d.dll
 0000:fffa1000       __guard_fids_?__scrt_initialize_thread_safe_statics@@YAHXZ 10000000     msvcrtd:thread_safe_statics.obj
 0000:fff94000       .debug$S                   10000000     mfc140d:mfc140d.dll
 0000:fff94000       .debug$S                   10000000     mfc140d:mfc140d.dll
 0000:fff94000       .debug$S                   10000000     mfc140d:mfc140d.dll
 0000:fff94000       .debug$S                   10000000     mfc140d:mfc140d.dll
 0000:fff94000       .debug$S                   10000000     mfc140d:mfc140d.dll
 0000:fff94000       .debug$S                   10000000     mfc140d:mfc140d.dll
 0000:fff94000       .debug$S                   10000000     ServiceCore:ServiceCore.dll
 0000:fff94000       .debug$S                   10000000     ServiceCore:ServiceCore.dll
 0000:fff94000       .debug$S                   10000000     ServiceCore:ServiceCore.dll
 0000:fff94000       .debug$S                   10000000     ServiceCore:ServiceCore.dll
 0000:fff94000       .debug$S                   10000000     ServiceCore:ServiceCore.dll
 0000:fff94000       .debug$S                   10000000     ServiceCore:ServiceCore.dll
 0000:fff94000       .debug$S                   10000000     ServiceCore:ServiceCore.dll
 0000:fff94000       .debug$S                   10000000     ServiceCore:ServiceCore.dll
 0000:fff94000       .debug$S                   10000000     ServiceCore:ServiceCore.dll
 0000:fff94000       .debug$S                   10000000     KernelEngine:KernelEngine.dll
 0000:fff94000       .debug$S                   10000000     KernelEngine:KernelEngine.dll
 0000:fff94000       .debug$S                   10000000     KernelEngine:KernelEngine.dll
 0000:fff94000       .debug$S                   10000000     KernelEngine:KernelEngine.dll
 0000:fff94000       .debug$S                   10000000     KernelEngine:KernelEngine.dll
 0000:fff94000       .debug$S                   10000000     KernelEngine:KernelEngine.dll
 0000:fff94000       .debug$S                   10000000     KernelEngine:KernelEngine.dll
 0000:fff94000       .debug$S                   10000000     KernelEngine:KernelEngine.dll
 0000:fff94000       .debug$S                   10000000     KernelEngine:KernelEngine.dll
 0000:fff94000       .debug$S                   10000000     KernelEngine:KernelEngine.dll
 0000:fff94000       .debug$S                   10000000     KernelEngine:KernelEngine.dll
 0000:fff94000       .debug$S                   10000000     KernelEngine:KernelEngine.dll
 0000:fff94000       .debug$S                   10000000     KernelEngine:KernelEngine.dll
 0000:fff94000       .debug$S                   10000000     KernelEngine:KernelEngine.dll
 0000:fff94000       .debug$S                   10000000     KernelEngine:KernelEngine.dll
 0000:fff94000       .debug$S                   10000000     KernelEngine:KernelEngine.dll
 0000:fff94000       .debug$S                   10000000     KernelEngine:KernelEngine.dll
 0000:fff94000       .debug$S                   10000000     KernelEngine:KernelEngine.dll
 0000:fff94000       .debug$S                   10000000     KernelEngine:KernelEngine.dll
 0000:fff94000       .debug$S                   10000000     KernelEngine:KernelEngine.dll
 0000:fff94000       .debug$S                   10000000     KernelEngine:KernelEngine.dll
 0000:fff94000       .debug$S                   10000000     KernelEngine:KernelEngine.dll
 0000:fff94000       .debug$S                   10000000     KernelEngine:KernelEngine.dll
 0000:fff94000       .debug$S                   10000000     KernelEngine:KernelEngine.dll
 0000:fff94000       .debug$S                   10000000     KernelEngine:KernelEngine.dll
 0000:fff94000       .debug$S                   10000000     mfc140d:mfc140d.dll
 0000:fff94000       .debug$S                   10000000     mfc140d:mfc140d.dll
 0000:fff94000       .debug$S                   10000000     mfc140d:mfc140d.dll
 0000:fff94000       .debug$S                   10000000     mfc140d:mfc140d.dll
 0000:fff94000       .debug$S                   10000000     mfc140d:mfc140d.dll
 0000:fff94000       .debug$S                   10000000     mfc140d:mfc140d.dll
 0000:fff94000       .debug$S                   10000000     mfc140d:mfc140d.dll
 0000:fff94000       .debug$S                   10000000     mfc140d:mfc140d.dll
 0000:fff94000       .debug$S                   10000000     mfc140d:mfc140d.dll
 0000:fff94000       .debug$S                   10000000     mfc140d:mfc140d.dll
 0000:fff94000       .debug$S                   10000000     mfc140d:mfc140d.dll
 0000:fff94000       .debug$S                   10000000     mfc140d:mfc140d.dll
 0000:fff94000       .debug$S                   10000000     mfc140d:mfc140d.dll
 0000:fff94000       .debug$S                   10000000     mfc140d:mfc140d.dll
 0000:fff94000       .debug$S                   10000000     mfc140d:mfc140d.dll
 0000:fff94000       .debug$S                   10000000     mfc140d:mfc140d.dll
 0000:fff94000       .debug$S                   10000000     mfc140d:mfc140d.dll
 0000:fff94000       .debug$S                   10000000     mfc140d:mfc140d.dll
 0000:fff94000       .debug$S                   10000000     mfc140d:mfc140d.dll
 0000:fff94000       .debug$S                   10000000     ModuleManager.exp
 0000:fff94000       .debug$S                   10000000     mfc140d:mfc140d.dll
 0000:fff94000       .debug$S                   10000000     kernel32:KERNEL32.dll
 0000:fff94000       .debug$S                   10000000     mfc140d:mfc140d.dll
 0000:fff94000       .debug$S                   10000000     ucrtd:ucrtbased.dll
 0000:fff94000       .debug$S                   10000000     ucrtd:ucrtbased.dll
 0000:fff94000       .debug$S                   10000000     ucrtd:ucrtbased.dll
 0000:fff94000       .debug$S                   10000000     ucrtd:ucrtbased.dll
 0000:fff94000       .debug$S                   10000000     ucrtd:ucrtbased.dll
 0000:fff94000       .debug$S                   10000000     ucrtd:ucrtbased.dll
 0000:fff94000       .debug$S                   10000000     ucrtd:ucrtbased.dll
 0000:fff94000       .debug$S                   10000000     ucrtd:ucrtbased.dll
 0000:fff94000       .debug$S                   10000000     ucrtd:ucrtbased.dll
 0000:fff94000       .debug$S                   10000000     ucrtd:ucrtbased.dll
 0000:fff94000       .debug$S                   10000000     ucrtd:ucrtbased.dll
 0000:fff94000       .debug$S                   10000000     ucrtd:ucrtbased.dll
 0000:fff94000       .debug$S                   10000000     ucrtd:ucrtbased.dll
 0000:fff94000       .debug$S                   10000000     ucrtd:ucrtbased.dll
 0000:fff94000       .debug$S                   10000000     ucrtd:ucrtbased.dll
 0000:fff94000       .debug$S                   10000000     ucrtd:ucrtbased.dll
 0000:fff94000       .debug$S                   10000000     ucrtd:ucrtbased.dll
 0000:fff94000       .debug$S                   10000000     ucrtd:ucrtbased.dll
 0000:fff94000       .debug$S                   10000000     ucrtd:ucrtbased.dll
 0000:fff94000       .debug$S                   10000000     ucrtd:ucrtbased.dll
 0000:fff94000       .debug$S                   10000000     ucrtd:ucrtbased.dll
 0000:fff94000       .debug$S                   10000000     ucrtd:ucrtbased.dll
 0000:fff94000       .debug$S                   10000000     ucrtd:ucrtbased.dll
 0000:fff94000       .debug$S                   10000000     ucrtd:ucrtbased.dll
 0000:fff94000       .debug$S                   10000000     ucrtd:ucrtbased.dll
 0000:fff94000       .debug$S                   10000000     ucrtd:ucrtbased.dll
 0000:fff94000       .debug$S                   10000000     ucrtd:ucrtbased.dll
 0000:fff94000       .debug$S                   10000000     ucrtd:ucrtbased.dll
 0000:fff94000       .debug$S                   10000000     ucrtd:ucrtbased.dll
 0000:fff94000       .debug$S                   10000000     ucrtd:ucrtbased.dll
 0000:fff94000       .debug$S                   10000000     ucrtd:ucrtbased.dll
 0000:fff94000       .debug$S                   10000000     ucrtd:ucrtbased.dll
 0000:fff94000       .debug$S                   10000000     ucrtd:ucrtbased.dll
 0000:fff94000       .debug$S                   10000000     ucrtd:ucrtbased.dll
 0000:fff94000       .debug$S                   10000000     ucrtd:ucrtbased.dll
 0000:fff94000       .debug$S                   10000000     mfc140d:mfc140d.dll
 0000:fff94000       .debug$S                   10000000     vcruntimed:VCRUNTIME140D.dll
 0000:fff94000       .debug$S                   10000000     vcruntimed:VCRUNTIME140D.dll
 0000:fff94000       .debug$S                   10000000     vcruntimed:VCRUNTIME140D.dll
 0000:fff94000       .debug$S                   10000000     vcruntimed:VCRUNTIME140D.dll
 0000:fff94000       .debug$S                   10000000     vcruntimed:VCRUNTIME140D.dll
 0000:fff94000       .debug$S                   10000000     vcruntimed:VCRUNTIME140D.dll
 0000:fff94000       .debug$S                   10000000     vcruntimed:VCRUNTIME140D.dll
 0000:fff94000       .debug$S                   10000000     vcruntimed:VCRUNTIME140D.dll
 0000:fff94000       .debug$S                   10000000     vcruntimed:VCRUNTIME140D.dll
 0000:fff94000       .debug$S                   10000000     vcruntimed:VCRUNTIME140D.dll
 0000:fff94000       .debug$S                   10000000     mfc140d:mfc140d.dll
 0000:fff94000       .debug$S                   10000000     ws2_32:WS2_32.dll
 0000:fff94000       .debug$S                   10000000     ws2_32:WS2_32.dll
 0000:fff94000       .debug$S                   10000000     mfc140d:mfc140d.dll
 0000:fff94000       .debug$S                   10000000     msvcprtd:MSVCP140D.dll
 0000:fff94000       .debug$S                   10000000     msvcprtd:MSVCP140D.dll
 0000:fff94000       .debug$S                   10000000     msvcprtd:MSVCP140D.dll
 0000:fff94000       .debug$S                   10000000     msvcprtd:MSVCP140D.dll
 0000:fff94000       .debug$S                   10000000     msvcprtd:MSVCP140D.dll
 0000:fff94000       .debug$S                   10000000     msvcprtd:MSVCP140D.dll
 0000:fff94000       .debug$S                   10000000     msvcprtd:MSVCP140D.dll
 0000:fff94000       .debug$S                   10000000     mfc140d:mfc140d.dll
 0000:fff94000       .debug$S                   10000000     oleaut32:OLEAUT32.dll
 0000:fffa1000       __guard_fids__             10000000     atls:atlbase.obj
 0000:fff94000       .debug$S                   10000000     mfc140d:mfc140d.dll
 0000:fffa1000       __guard_fids_??__E_AtlBaseModule@ATL@@YAXXZ 10000000     atls:atlbase.obj
 0000:fffa1000       __guard_fids_?dllmain_dispatch@@YAHQAUHINSTANCE__@@KQAX@Z 10000000     msvcrtd:dll_dllmain.obj
 0000:fff94000       .debug$S                   10000000     mfc140d:mfc140d.dll
 0000:fff94000       .debug$S                   10000000     mfc140d:mfc140d.dll
 0000:fff94000       .debug$S                   10000000     mfc140d:mfc140d.dll
 0000:fff94000       .debug$S                   10000000     user32:USER32.dll
 0000:fff94000       .debug$S                   10000000     user32:USER32.dll
 0000:fff94000       .debug$S                   10000000     user32:USER32.dll
 0000:fff94000       .debug$S                   10000000     user32:USER32.dll
 0000:fff94000       .debug$S                   10000000     user32:USER32.dll
 0000:fff94000       .debug$S                   10000000     user32:USER32.dll
 0000:fff94000       .debug$S                   10000000     user32:USER32.dll
 0000:fff94000       .debug$S                   10000000     user32:USER32.dll
 0000:fff94000       .debug$S                   10000000     mfc140d:mfc140d.dll
 0000:fff94000       .debug$S                   10000000     kernel32:KERNEL32.dll
 0000:fff94000       .debug$S                   10000000     kernel32:KERNEL32.dll
 0000:fff94000       .debug$S                   10000000     kernel32:KERNEL32.dll
 0000:fff94000       .debug$S                   10000000     kernel32:KERNEL32.dll
 0000:fff94000       .debug$S                   10000000     kernel32:KERNEL32.dll
 0000:fff94000       .debug$S                   10000000     kernel32:KERNEL32.dll
 0000:fff94000       .debug$S                   10000000     kernel32:KERNEL32.dll
 0000:fff94000       .debug$S                   10000000     kernel32:KERNEL32.dll
 0000:fff94000       .debug$S                   10000000     kernel32:KERNEL32.dll
 0000:fff94000       .debug$S                   10000000     kernel32:KERNEL32.dll
 0000:fff94000       .debug$S                   10000000     kernel32:KERNEL32.dll
 0000:fff94000       .debug$S                   10000000     kernel32:KERNEL32.dll
 0000:fff94000       .debug$S                   10000000     kernel32:KERNEL32.dll
 0000:fff94000       .debug$S                   10000000     kernel32:KERNEL32.dll
 0000:fff94000       .debug$S                   10000000     kernel32:KERNEL32.dll
 0000:fff94000       .debug$S                   10000000     kernel32:KERNEL32.dll
 0000:fff94000       .debug$S                   10000000     kernel32:KERNEL32.dll
 0000:fff94000       .debug$S                   10000000     kernel32:KERNEL32.dll
 0000:fff94000       .debug$S                   10000000     kernel32:KERNEL32.dll
 0000:fff94000       .debug$S                   10000000     kernel32:KERNEL32.dll
 0000:fff94000       .debug$S                   10000000     kernel32:KERNEL32.dll
 0000:fff94000       .debug$S                   10000000     kernel32:KERNEL32.dll
 0000:fff94000       .debug$S                   10000000     kernel32:KERNEL32.dll
 0000:fff94000       .debug$S                   10000000     kernel32:KERNEL32.dll
 0000:fff94000       .debug$S                   10000000     kernel32:KERNEL32.dll
 0000:fff94000       .debug$S                   10000000     kernel32:KERNEL32.dll
 0000:fff94000       .debug$S                   10000000     kernel32:KERNEL32.dll
 0000:fff94000       .debug$S                   10000000     kernel32:KERNEL32.dll
 0000:fff94000       .debug$S                   10000000     kernel32:KERNEL32.dll
 0000:fff94000       .debug$S                   10000000     kernel32:KERNEL32.dll
 0000:fff94000       .debug$S                   10000000     kernel32:KERNEL32.dll
 0000:fff94000       .debug$S                   10000000     kernel32:KERNEL32.dll
 0000:fff94000       .debug$S                   10000000     kernel32:KERNEL32.dll
 0000:fff94000       .debug$S                   10000000     kernel32:KERNEL32.dll
 0000:fff94000       .debug$S                   10000000     kernel32:KERNEL32.dll
 0000:fff94000       .debug$S                   10000000     kernel32:KERNEL32.dll
 0000:fff94000       .debug$S                   10000000     kernel32:KERNEL32.dll
 0000:fff94000       .debug$S                   10000000     kernel32:KERNEL32.dll
 0000:fff94000       .debug$S                   10000000     kernel32:KERNEL32.dll
 0000:fff94000       .debug$S                   10000000     kernel32:KERNEL32.dll
 0000:fff94000       .debug$S                   10000000     kernel32:KERNEL32.dll
 0000:fff94000       .debug$S                   10000000     kernel32:KERNEL32.dll
 0000:fff94000       .debug$S                   10000000     kernel32:KERNEL32.dll
 0000:fff94000       .debug$S                   10000000     kernel32:KERNEL32.dll
 0000:fff94000       .debug$S                   10000000     kernel32:KERNEL32.dll
 0000:fff94000       .debug$S                   10000000     kernel32:KERNEL32.dll
 0000:fff94000       .debug$S                   10000000     kernel32:KERNEL32.dll
 0000:fff94000       .debug$S                   10000000     kernel32:KERNEL32.dll
 0000:fff94000       .debug$S                   10000000     mfc140d:mfc140d.dll
 0000:fff94000       .debug$S                   10000000     mfc140d:mfc140d.dll
 0000:fff94000       .debug$S                   10000000     mfc140d:mfc140d.dll
 0000:fff94000       .debug$S                   10000000     mfc140d:mfc140d.dll
 0000:fff94000       .debug$S                   10000000     mfc140d:mfc140d.dll
 0000:fffa1000       __guard_fids___CRT_RTC_INIT 10000000     msvcrtd:init.obj
 0000:fffa1000       __guard_fids___CRT_RTC_INITW 10000000     msvcrtd:init.obj
 0000:fff94000       .debug$S                   10000000     mfc140d:mfc140d.dll
 0000:fff94000       .debug$S                   10000000     mfc140d:mfc140d.dll
 0000:fff94000       .debug$S                   10000000     mfc140d:mfc140d.dll
 0000:fff94000       .debug$S                   10000000     mfc140d:mfc140d.dll
 0000:fff94000       .debug$S                   10000000     mfc140d:mfc140d.dll
 0000:fff94000       .debug$S                   10000000     mfc140d:mfc140d.dll
 0000:fff94000       .debug$S                   10000000     mfc140d:mfc140d.dll
 0000:fffa1000       __guard_fids___except_handler4 10000000     msvcrtd:chandler4gs.obj
 0000:fffa1000       __guard_fids__             10000000     msvcrtd:guard_support.obj
 0000:fffa1000       __guard_fids___guard_icall_checks_enforced 10000000     msvcrtd:guard_support.obj
 0000:fff94000       .debug$S                   10000000     mfc140d:mfc140d.dll
 0000:fff94000       .debug$S                   10000000     mfc140d:mfc140d.dll
 0000:fff94000       .debug$S                   10000000     mfc140d:mfc140d.dll
 0000:fff94000       .debug$S                   10000000     mfc140d:mfc140d.dll
 0000:fff94000       .debug$S                   10000000     mfc140d:mfc140d.dll
 0000:fff94000       .debug$S                   10000000     mfc140d:mfc140d.dll
 0000:fff94000       .debug$S                   10000000     mfc140d:mfc140d.dll
 0000:fff94000       .debug$S                   10000000     mfc140d:mfc140d.dll
 0000:fff94000       .debug$S                   10000000     mfc140d:mfc140d.dll
 0000:fffa1000       __guard_fids____scrt_set_unhandled_exception_filter 10000000     msvcrtd:utility_desktop.obj
 0000:fff94000       .debug$S                   10000000     mfc140d:mfc140d.dll
 0001:fffff008       __ehhandler$??RCTraceFileAndLineInfo@ATL@@QBAXHIPBDZZ 10000008 f   Stdafx.obj
 0001:fffff008       __unwindfunclet$?TraceV@CTrace@ATL@@SAXPBDHII0PAD@Z$1 10000008 f   Stdafx.obj
 0001:fffff008       __unwindfunclet$?TraceV@CTrace@ATL@@SAXPBDHII0PAD@Z$1 10000008 f   mfcs140d:nolib.obj
 0001:fffff008       __ehhandler$??RCTraceFileAndLineInfo@ATL@@QBAXHIPBDZZ 10000008 f   mfcs140d:nolib.obj
 0002:fffc2008       __ehfuncinfo$??0_ATL_WIN_MODULE70@ATL@@QAE@XZ 10000008     mfcs140d:stdafx.obj
 0002:fffc2008       __ehfuncinfo$??RCTraceFileAndLineInfo@ATL@@QBAXHIPBDZZ 10000008     mfcs140d:stdafx.obj
 0002:fffc2008       __ehfuncinfo$??RCTraceFileAndLineInfo@ATL@@QBAXHIPBDZZ 10000008     Stdafx.obj
 0001:fffff008       __ehhandler$??RCTraceFileAndLineInfo@ATL@@QBAXHIPBDZZ 10000008 f   mfcs140d:stdafx.obj
 0001:fffff008       __unwindfunclet$?TraceV@CTrace@ATL@@SAXPBDHII0PAD@Z$1 10000008 f   mfcs140d:stdafx.obj
 0002:fffc2008       __ehfuncinfo$??0_ATL_WIN_MODULE70@ATL@@QAE@XZ 10000008     mfcs140d:nolib.obj
 0002:fffc2008       __ehfuncinfo$??RCTraceFileAndLineInfo@ATL@@QBAXHIPBDZZ 10000008     mfcs140d:nolib.obj
 0001:fffff00b       __ehhandler$??0_ATL_WIN_MODULE70@ATL@@QAE@XZ 1000000b f   mfcs140d:stdafx.obj
 0001:fffff00b       __ehhandler$??0_ATL_WIN_MODULE70@ATL@@QAE@XZ 1000000b f   mfcs140d:nolib.obj
 0002:fffc2010       __tryblocktable$?CreateInstance@?$CTempldateHelper@UIGameServiceManager@@@@QAE_NXZ 10000010     ModuleInfoManager.obj
 0001:fffff010       __ehhandler$?TraceV@CTrace@ATL@@SAXPBDHII0PAD@Z 10000010 f   Stdafx.obj
 0002:fffc2010       __tryblocktable$?CreateInstance@?$CTempldateHelper@UIDataBase@@@@QAE_NXZ 10000010     MatchInfoManager.obj
 0002:fffc2010       __ehfuncinfo$?TraceV@CTrace@ATL@@SAXPBDHII0PAD@Z 10000010     Stdafx.obj
 0001:fffff010       __ehhandler$?TraceV@CTrace@ATL@@SAXPBDHII0PAD@Z 10000010 f   mfcs140d:stdafx.obj
 0002:fffc2010       __tryblocktable$?CreateInstance@?$CTempldateHelper@UIDataBase@@@@QAE_NXZ 10000010     ServerInfoManager.obj
 0002:fffc2010       __ehfuncinfo$?TraceV@CTrace@ATL@@SAXPBDHII0PAD@Z 10000010     mfcs140d:stdafx.obj
 0001:fffff010       __ehhandler$?TraceV@CTrace@ATL@@SAXPBDHII0PAD@Z 10000010 f   mfcs140d:nolib.obj
 0002:fffc2010       __tryblocktable$?CreateInstance@?$CTempldateHelper@UIDataBase@@@@QAE_NXZ 10000010     ModuleInfoManager.obj
 0002:fffc2010       __tryblocktable$?CreateInstance@?$CTempldateHelper@UIGameServiceManager@@@@QAE_NXZ 10000010     DlgServerWizard.obj
 0002:fffc2010       __ehfuncinfo$?TraceV@CTrace@ATL@@SAXPBDHII0PAD@Z 10000010     mfcs140d:nolib.obj
 0002:fffc2024       __catchsym$?CreateInstance@?$CTempldateHelper@UIGameServiceManager@@@@QAE_NXZ$3 10000024     ModuleInfoManager.obj
 0002:fffc2024       __catchsym$?CreateInstance@?$CTempldateHelper@UIDataBase@@@@QAE_NXZ$3 10000024     ModuleInfoManager.obj
 0002:fffc2024       __catchsym$?CreateInstance@?$CTempldateHelper@UIDataBase@@@@QAE_NXZ$3 10000024     ServerInfoManager.obj
 0002:fffc2024       __catchsym$?CreateInstance@?$CTempldateHelper@UIDataBase@@@@QAE_NXZ$3 10000024     MatchInfoManager.obj
 0002:fffc2024       __catchsym$?CreateInstance@?$CTempldateHelper@UIGameServiceManager@@@@QAE_NXZ$3 10000024     DlgServerWizard.obj
 0002:fffc2044       __ehfuncinfo$?CreateInstance@?$CTempldateHelper@UIDataBase@@@@QAE_NXZ 10000044     ModuleInfoManager.obj
 0002:fffc2044       __ehfuncinfo$?CreateInstance@?$CTempldateHelper@UIGameServiceManager@@@@QAE_NXZ 10000044     ModuleInfoManager.obj
 0002:fffc2044       __ehfuncinfo$?CreateInstance@?$CTempldateHelper@UIDataBase@@@@QAE_NXZ 10000044     MatchInfoManager.obj
 0002:fffc2044       __ehfuncinfo$?CreateInstance@?$CTempldateHelper@UIGameServiceManager@@@@QAE_NXZ 10000044     DlgServerWizard.obj
 0002:fffc2044       __ehfuncinfo$?CreateInstance@?$CTempldateHelper@UIDataBase@@@@QAE_NXZ 10000044     ServerInfoManager.obj
 0001:fffff068       $LN6                       10000068     mfcs140d:nolib.obj
 0001:fffff068       $LN6                       10000068     mfcs140d:nolib.obj
 0001:fffff068       $LN6                       10000068     mfcs140d:stdafx.obj
 0001:fffff068       $LN6                       10000068     mfcs140d:stdafx.obj
 0001:fffff070       $LN5                       10000070     mfcs140d:nolib.obj
 0001:fffff070       $LN5                       10000070     mfcs140d:stdafx.obj
 0001:fffff070       $LN5                       10000070     mfcs140d:nolib.obj
 0001:fffff070       $LN5                       10000070     mfcs140d:stdafx.obj
 0001:fffff07c       $LN4                       1000007c     mfcs140d:stdafx.obj
 0001:fffff07c       $LN4                       1000007c     mfcs140d:stdafx.obj
 0001:fffff07c       $LN4                       1000007c     mfcs140d:nolib.obj
 0001:fffff07c       $LN4                       1000007c     mfcs140d:nolib.obj
 0001:fffff0b4       $LN7                       100000b4     mfcs140d:nolib.obj
 0001:fffff0b4       $LN7                       100000b4     mfcs140d:stdafx.obj
 0001:fffff0bc       $LN6                       100000bc     mfcs140d:stdafx.obj
 0001:fffff0bc       $LN6                       100000bc     mfcs140d:nolib.obj
 0001:fffff0c8       $LN4                       100000c8     mfcs140d:nolib.obj
 0001:fffff0c8       $LN4                       100000c8     mfcs140d:stdafx.obj
 0001:fffff11c       $LN8                       1000011c     mfcs140d:stdafx.obj
 0001:fffff11c       $LN8                       1000011c     mfcs140d:nolib.obj
 0001:fffff124       $LN7                       10000124     mfcs140d:stdafx.obj
 0001:fffff124       $LN7                       10000124     mfcs140d:nolib.obj
 0001:fffff130       $LN6                       10000130     mfcs140d:nolib.obj
 0001:fffff130       $LN6                       10000130     mfcs140d:stdafx.obj
 0001:fffff16c       $LN22                      1000016c     mfcs140d:stdafx.obj
 0001:fffff174       $LN21                      10000174     mfcs140d:stdafx.obj
 0001:fffff18c       $LN20                      1000018c     mfcs140d:stdafx.obj
 0001:fffff195       __catch$?CreateInstance@?$CTempldateHelper@UIDataBase@@@@QAE_NXZ$0 10000195 f   ServerInfoManager.obj
 0001:fffff195       __catch$?CreateInstance@?$CTempldateHelper@UIGameServiceManager@@@@QAE_NXZ$0 10000195 f   ModuleInfoManager.obj
 0001:fffff195       __catch$?CreateInstance@?$CTempldateHelper@UIDataBase@@@@QAE_NXZ$0 10000195 f   MatchInfoManager.obj
 0001:fffff195       __catch$?CreateInstance@?$CTempldateHelper@UIDataBase@@@@QAE_NXZ$0 10000195 f   ModuleInfoManager.obj
 0001:fffff195       __catch$?CreateInstance@?$CTempldateHelper@UIGameServiceManager@@@@QAE_NXZ$0 10000195 f   DlgServerWizard.obj
 0001:fffff196       $LN19                      10000196     mfcs140d:stdafx.obj
 0001:fffff1c5       __catch$?CreateInstance@?$CTempldateHelper@UIGameServiceManager@@@@QAE_NXZ$1 100001c5 f   DlgServerWizard.obj
 0001:fffff1c5       __catch$?CreateInstance@?$CTempldateHelper@UIDataBase@@@@QAE_NXZ$1 100001c5 f   MatchInfoManager.obj
 0001:fffff1c5       __catch$?CreateInstance@?$CTempldateHelper@UIDataBase@@@@QAE_NXZ$1 100001c5 f   ModuleInfoManager.obj
 0001:fffff1c5       __catch$?CreateInstance@?$CTempldateHelper@UIGameServiceManager@@@@QAE_NXZ$1 100001c5 f   ModuleInfoManager.obj
 0001:fffff1c5       __catch$?CreateInstance@?$CTempldateHelper@UIDataBase@@@@QAE_NXZ$1 100001c5 f   ServerInfoManager.obj
 0001:fffff1d0       $LN24                      100001d0     mfcs140d:nolib.obj
 0001:fffff1d0       $LN24                      100001d0     mfcs140d:stdafx.obj
 0001:fffff1d8       $LN23                      100001d8     mfcs140d:stdafx.obj
 0001:fffff1d8       $LN23                      100001d8     mfcs140d:nolib.obj
 0001:fffff1f0       $LN22                      100001f0     mfcs140d:stdafx.obj
 0001:fffff1f0       $LN22                      100001f0     mfcs140d:nolib.obj
 0001:fffff1f0       $LN25                      100001f0     mfcs140d:nolib.obj
 0001:fffff1f0       $LN25                      100001f0     mfcs140d:stdafx.obj
 0001:fffff1f8       $LN24                      100001f8     mfcs140d:nolib.obj
 0001:fffff1f8       $LN14                      100001f8     mfcs140d:stdafx.obj
 0001:fffff1f8       $LN14                      100001f8     mfcs140d:nolib.obj
 0001:fffff1f8       $LN24                      100001f8     mfcs140d:stdafx.obj
 0001:fffff1fb       $LN21                      100001fb     mfcs140d:stdafx.obj
 0001:fffff1fb       $LN21                      100001fb     mfcs140d:nolib.obj
 0001:fffff200       $LN13                      10000200     mfcs140d:nolib.obj
 0001:fffff200       $LN13                      10000200     mfcs140d:stdafx.obj
 0001:fffff210       $LN23                      10000210     mfcs140d:stdafx.obj
 0001:fffff210       $LN23                      10000210     mfcs140d:nolib.obj
 0001:fffff218       $LN11                      10000218     mfcs140d:nolib.obj
 0001:fffff218       $LN11                      10000218     mfcs140d:stdafx.obj
 0001:fffff21b       $LN22                      1000021b     mfcs140d:stdafx.obj
 0001:fffff21b       $LN22                      1000021b     mfcs140d:nolib.obj
 0001:fffff21f       $LN10                      1000021f     mfcs140d:stdafx.obj
 0001:fffff21f       $LN10                      1000021f     mfcs140d:nolib.obj
 0001:fffff250       $LN17                      10000250     mfcs140d:stdafx.obj
 0001:fffff250       $LN17                      10000250     mfcs140d:nolib.obj
 0001:fffff258       $LN16                      10000258     mfcs140d:nolib.obj
 0001:fffff258       $LN16                      10000258     mfcs140d:stdafx.obj
 0001:fffff27c       $LN15                      1000027c     mfcs140d:stdafx.obj
 0001:fffff27c       $LN15                      1000027c     mfcs140d:nolib.obj
 0001:fffff285       $LN14                      10000285     mfcs140d:stdafx.obj
 0001:fffff285       $LN14                      10000285     mfcs140d:nolib.obj
 0001:fffff28c       $LN13                      1000028c     mfcs140d:nolib.obj
 0001:fffff28c       $LN13                      1000028c     mfcs140d:stdafx.obj
 0001:fffff2cc       $LN36                      100002cc     mfcs140d:stdafx.obj
 0001:fffff2d4       $LN35                      100002d4     mfcs140d:stdafx.obj
 0001:fffff31c       $LN34                      1000031c     mfcs140d:stdafx.obj
 0001:fffff333       $LN33                      10000333     mfcs140d:stdafx.obj
 0001:fffff33c       $LN32                      1000033c     mfcs140d:stdafx.obj
 0001:fffff34f       $LN31                      1000034f     mfcs140d:stdafx.obj
 0001:fffff356       $LN30                      10000356     mfcs140d:stdafx.obj
 0001:fffff360       $LN29                      10000360     mfcs140d:stdafx.obj
 0001:00002820       ??__EatlTraceException@ATL@@YAXXZ 10003820 f   DlgMatchWizard.obj
 0001:00002850       ??__EatlTraceException@ATL@@YAXXZ 10003850 f   DlgServerWizard.obj
 0001:00002880       ??__EatlTraceString@ATL@@YAXXZ 10003880 f   DlgServerWizard.obj
 0001:000028b0       ??__EInitializeCAtlStringMgr@ATLImplementationDetails@ATL@@YAXXZ 100038b0 f   Stdafx.obj
 0001:000028d0       ??__E_AtlComModule@ATL@@YAXXZ 100038d0 f   Stdafx.obj
 0001:00002900       ??__E_AtlWinModule@ATL@@YAXXZ 10003900 f   Stdafx.obj
 0001:00002930       ??__EatlTraceAllocation@ATL@@YAXXZ 10003930 f   Stdafx.obj
 0001:00002960       ??__EatlTraceCOM@ATL@@YAXXZ 10003960 f   Stdafx.obj
 0001:00002990       ??__EatlTraceCache@ATL@@YAXXZ 10003990 f   Stdafx.obj
 0001:000029c0       ??__EatlTraceControls@ATL@@YAXXZ 100039c0 f   Stdafx.obj
 0001:000029f0       ??__EatlTraceDBClient@ATL@@YAXXZ 100039f0 f   Stdafx.obj
 0001:00002a20       ??__EatlTraceDBProvider@ATL@@YAXXZ 10003a20 f   Stdafx.obj
 0001:00002a50       ??__EatlTraceException@ATL@@YAXXZ 10003a50 f   Stdafx.obj
 0001:00002a80       ??__EatlTraceGeneral@ATL@@YAXXZ 10003a80 f   Stdafx.obj
 0001:00002ab0       ??__EatlTraceHosting@ATL@@YAXXZ 10003ab0 f   Stdafx.obj
 0001:00002ae0       ??__EatlTraceISAPI@ATL@@YAXXZ 10003ae0 f   Stdafx.obj
 0001:00002b10       ??__EatlTraceMap@ATL@@YAXXZ 10003b10 f   Stdafx.obj
 0001:00002b40       ??__EatlTraceNotImpl@ATL@@YAXXZ 10003b40 f   Stdafx.obj
 0001:00002b70       ??__EatlTraceQI@ATL@@YAXXZ 10003b70 f   Stdafx.obj
 0001:00002ba0       ??__EatlTraceRefcount@ATL@@YAXXZ 10003ba0 f   Stdafx.obj
 0001:00002bd0       ??__EatlTraceRegistrar@ATL@@YAXXZ 10003bd0 f   Stdafx.obj
 0001:00002c00       ??__EatlTraceSecurity@ATL@@YAXXZ 10003c00 f   Stdafx.obj
 0001:00002c30       ??__EatlTraceSnapin@ATL@@YAXXZ 10003c30 f   Stdafx.obj
 0001:00002c60       ??__EatlTraceStencil@ATL@@YAXXZ 10003c60 f   Stdafx.obj
 0001:00002c90       ??__EatlTraceString@ATL@@YAXXZ 10003c90 f   Stdafx.obj
 0001:00002cc0       ??__EatlTraceSync@ATL@@YAXXZ 10003cc0 f   Stdafx.obj
 0001:00002cf0       ??__EatlTraceTime@ATL@@YAXXZ 10003cf0 f   Stdafx.obj
 0001:00002d20       ??__EatlTraceUtil@ATL@@YAXXZ 10003d20 f   Stdafx.obj
 0001:00002d50       ??__EatlTraceWindowing@ATL@@YAXXZ 10003d50 f   Stdafx.obj
 0001:00002d80       ??__EInitializeCAtlStringMgr@ATLImplementationDetails@ATL@@YAXXZ 10003d80 f   mfcs140d:nolib.obj
 0001:00002da0       ??__E_AtlComModule@ATL@@YAXXZ 10003da0 f   mfcs140d:nolib.obj
 0001:00002dd0       ??__E_AtlWinModule@ATL@@YAXXZ 10003dd0 f   mfcs140d:nolib.obj
 0001:00002e00       ??__EatlTraceAllocation@ATL@@YAXXZ 10003e00 f   mfcs140d:nolib.obj
 0001:00002e30       ??__EatlTraceCOM@ATL@@YAXXZ 10003e30 f   mfcs140d:nolib.obj
 0001:00002e60       ??__EatlTraceCache@ATL@@YAXXZ 10003e60 f   mfcs140d:nolib.obj
 0001:00002e90       ??__EatlTraceControls@ATL@@YAXXZ 10003e90 f   mfcs140d:nolib.obj
 0001:00002ec0       ??__EatlTraceDBClient@ATL@@YAXXZ 10003ec0 f   mfcs140d:nolib.obj
 0001:00002ef0       ??__EatlTraceDBProvider@ATL@@YAXXZ 10003ef0 f   mfcs140d:nolib.obj
 0001:00002f20       ??__EatlTraceException@ATL@@YAXXZ 10003f20 f   mfcs140d:nolib.obj
 0001:00002f50       ??__EatlTraceGeneral@ATL@@YAXXZ 10003f50 f   mfcs140d:nolib.obj
 0001:00002f80       ??__EatlTraceHosting@ATL@@YAXXZ 10003f80 f   mfcs140d:nolib.obj
 0001:00002fb0       ??__EatlTraceISAPI@ATL@@YAXXZ 10003fb0 f   mfcs140d:nolib.obj
 0001:00002fe0       ??__EatlTraceMap@ATL@@YAXXZ 10003fe0 f   mfcs140d:nolib.obj
 0001:00003010       ??__EatlTraceNotImpl@ATL@@YAXXZ 10004010 f   mfcs140d:nolib.obj
 0001:00003040       ??__EatlTraceQI@ATL@@YAXXZ 10004040 f   mfcs140d:nolib.obj
 0001:00003070       ??__EatlTraceRefcount@ATL@@YAXXZ 10004070 f   mfcs140d:nolib.obj
 0001:000030a0       ??__EatlTraceRegistrar@ATL@@YAXXZ 100040a0 f   mfcs140d:nolib.obj
 0001:000030d0       ??__EatlTraceSecurity@ATL@@YAXXZ 100040d0 f   mfcs140d:nolib.obj
 0001:00003100       ??__EatlTraceSnapin@ATL@@YAXXZ 10004100 f   mfcs140d:nolib.obj
 0001:00003130       ??__EatlTraceStencil@ATL@@YAXXZ 10004130 f   mfcs140d:nolib.obj
 0001:00003160       ??__EatlTraceString@ATL@@YAXXZ 10004160 f   mfcs140d:nolib.obj
 0001:00003190       ??__EatlTraceSync@ATL@@YAXXZ 10004190 f   mfcs140d:nolib.obj
 0001:000031c0       ??__EatlTraceTime@ATL@@YAXXZ 100041c0 f   mfcs140d:nolib.obj
 0001:000031f0       ??__EatlTraceUtil@ATL@@YAXXZ 100041f0 f   mfcs140d:nolib.obj
 0001:00003220       ??__EatlTraceWindowing@ATL@@YAXXZ 10004220 f   mfcs140d:nolib.obj
 0001:00003250       ??__EInitializeCAtlStringMgr@ATLImplementationDetails@ATL@@YAXXZ 10004250 f   mfcs140d:stdafx.obj
 0001:00003270       ??__E_AtlComModule@ATL@@YAXXZ 10004270 f   mfcs140d:stdafx.obj
 0001:000032a0       ??__E_AtlWinModule@ATL@@YAXXZ 100042a0 f   mfcs140d:stdafx.obj
 0001:000032d0       ??__EatlTraceAllocation@ATL@@YAXXZ 100042d0 f   mfcs140d:stdafx.obj
 0001:00003300       ??__EatlTraceCOM@ATL@@YAXXZ 10004300 f   mfcs140d:stdafx.obj
 0001:00003330       ??__EatlTraceCache@ATL@@YAXXZ 10004330 f   mfcs140d:stdafx.obj
 0001:00003360       ??__EatlTraceControls@ATL@@YAXXZ 10004360 f   mfcs140d:stdafx.obj
 0001:00003390       ??__EatlTraceDBClient@ATL@@YAXXZ 10004390 f   mfcs140d:stdafx.obj
 0001:000033c0       ??__EatlTraceDBProvider@ATL@@YAXXZ 100043c0 f   mfcs140d:stdafx.obj
 0001:000033f0       ??__EatlTraceException@ATL@@YAXXZ 100043f0 f   mfcs140d:stdafx.obj
 0001:00003420       ??__EatlTraceGeneral@ATL@@YAXXZ 10004420 f   mfcs140d:stdafx.obj
 0001:00003450       ??__EatlTraceHosting@ATL@@YAXXZ 10004450 f   mfcs140d:stdafx.obj
 0001:00003480       ??__EatlTraceISAPI@ATL@@YAXXZ 10004480 f   mfcs140d:stdafx.obj
 0001:000034b0       ??__EatlTraceMap@ATL@@YAXXZ 100044b0 f   mfcs140d:stdafx.obj
 0001:000034e0       ??__EatlTraceNotImpl@ATL@@YAXXZ 100044e0 f   mfcs140d:stdafx.obj
 0001:00003510       ??__EatlTraceQI@ATL@@YAXXZ 10004510 f   mfcs140d:stdafx.obj
 0001:00003540       ??__EatlTraceRefcount@ATL@@YAXXZ 10004540 f   mfcs140d:stdafx.obj
 0001:00003570       ??__EatlTraceRegistrar@ATL@@YAXXZ 10004570 f   mfcs140d:stdafx.obj
 0001:000035a0       ??__EatlTraceSecurity@ATL@@YAXXZ 100045a0 f   mfcs140d:stdafx.obj
 0001:000035d0       ??__EatlTraceSnapin@ATL@@YAXXZ 100045d0 f   mfcs140d:stdafx.obj
 0001:00003600       ??__EatlTraceStencil@ATL@@YAXXZ 10004600 f   mfcs140d:stdafx.obj
 0001:00003630       ??__EatlTraceString@ATL@@YAXXZ 10004630 f   mfcs140d:stdafx.obj
 0001:00003660       ??__EatlTraceSync@ATL@@YAXXZ 10004660 f   mfcs140d:stdafx.obj
 0001:00003690       ??__EatlTraceTime@ATL@@YAXXZ 10004690 f   mfcs140d:stdafx.obj
 0001:000036c0       ??__EatlTraceUtil@ATL@@YAXXZ 100046c0 f   mfcs140d:stdafx.obj
 0001:000036f0       ??__EatlTraceWindowing@ATL@@YAXXZ 100046f0 f   mfcs140d:stdafx.obj
 0001:00003711       ??__E_AtlBaseModule@ATL@@YAXXZ 10004711 f   atls:atlbase.obj
 0001:0000f635       __catch$?CreateInstance@?$CTempldateHelper@UIGameServiceManager@@@@QAE_NXZ$0 10010635 f i DlgServerItem.obj
 0001:0000f665       __catch$?CreateInstance@?$CTempldateHelper@UIGameServiceManager@@@@QAE_NXZ$1 10010665 f i DlgServerItem.obj
 0001:00011985       __catch$?CreateInstance@?$CTempldateHelper@UIDataBase@@@@QAE_NXZ$0 10012985 f i DlgServerMatch.obj
 0001:000119b5       __catch$?CreateInstance@?$CTempldateHelper@UIDataBase@@@@QAE_NXZ$1 100129b5 f i DlgServerMatch.obj
 0001:0001226c       __catch$?QueryMatchDataBase@CDlgServerMatch@@IAE_NXZ$0 1001326c f   DlgServerMatch.obj
 0001:000129ac       $LN9                       100139ac     DlgServerWizard.obj
 0001:00012a7c       $LN9                       10013a7c     DlgServerWizard.obj
 0001:00012b4c       $LN9                       10013b4c     DlgServerWizard.obj
 0001:00012c1c       $LN9                       10013c1c     DlgServerWizard.obj
 0001:00012cec       $LN9                       10013cec     DlgServerWizard.obj
 0001:000130ac       $LN11                      100140ac     DlgServerWizard.obj
 0001:0001a0dc       $LN46                      1001b0dc     DlgServerWizard.obj
 0001:0001a0f4       $LN47                      1001b0f4     DlgServerWizard.obj
 0001:0001dde8       $LN14                      1001ede8     DlgServerWizard.obj
 0001:0001ddfc       $LN13                      1001edfc     DlgServerWizard.obj
 0001:0001ee9b       __catch$??1CMatchInfoBuffer@@UAE@XZ$0 1001fe9b f   MatchInfoManager.obj
 0001:0001f048       __catch$??1CRewardInfoBuffer@@UAE@XZ$0 10020048 f   MatchInfoManager.obj
 0001:0001f8f2       __catch$?CreateMatchOption@CMatchInfoBuffer@@AAEPAUtagGameMatchOption@@XZ$0 100208f2 f   MatchInfoManager.obj
 0001:0001fa3f       __catch$?CreateMatchRewardInfo@CRewardInfoBuffer@@AAEPAUtagMatchRewardInfo@@XZ$0 10020a3f f   MatchInfoManager.obj
 0001:0001fc58       __catch$?DeleteGameMatchOption@CMatchInfoManager@@QAE_NK@Z$0 10020c58 f   MatchInfoManager.obj
 0001:00020502       __catch$?InsertGameMatchOption@CMatchInfoManager@@QAE_NPAUtagCreateMatchInfo@@AAUtagGameMatchOption@@@Z$0 10021502 f   MatchInfoManager.obj
 0001:00020ba4       __catch$?LoadGameMatchOption@CMatchInfoManager@@QAE_NGKAAUtagGameMatchOption@@@Z$0 10021ba4 f   MatchInfoManager.obj
 0001:0002101f       __catch$?LoadGameMatchOption@CMatchInfoManager@@QAE_NGQADAAVCMatchInfoBuffer@@@Z$0 1002201f f   MatchInfoManager.obj
 0001:000214a5       __catch$?LoadGameMatchReward@CMatchInfoManager@@QAEGKAAVCRewardInfoBuffer@@@Z$0 100224a5 f   MatchInfoManager.obj
 0001:00021bc0       __catch$?ModifyGameMatchOption@CMatchInfoManager@@QAE_NPAUtagCreateMatchInfo@@AAUtagGameMatchOption@@@Z$0 10022bc0 f   MatchInfoManager.obj
 0001:000233c0       $LN9                       100243c0     MatchListControl.obj
 0001:00023c38       $LN19                      10024c38     MatchListControl.obj
 0001:000249b4       __catch$??1CModuleInfoBuffer@@UAE@XZ$0 100259b4 f   ModuleInfoManager.obj
 0001:00024a43       __catch$??1CModuleInfoBuffer@@UAE@XZ$2 10025a43 f   ModuleInfoManager.obj
 0001:00025192       __catch$?CreateModuleInfo@CModuleInfoBuffer@@AAEPAUtagGameModuleInfo@@XZ$0 10026192 f   ModuleInfoManager.obj
 0001:00025d4b       __catch$?LoadGameModuleInfo@CModuleInfoManager@@QAE_NAAVCModuleInfoBuffer@@@Z$0 10026d4b f   ModuleInfoManager.obj
 0001:00026bd4       $LN13                      10027bd4     ModuleListControl.obj
 0001:00027250       $LN26                      10028250     ModuleListControl.obj
 0001:00027d7b       __catch$??1CMatchOptionBuffer@@UAE@XZ$0 10028d7b f   ServerInfoManager.obj
 0001:00027ee4       __catch$??1CServerInfoBuffer@@UAE@XZ$0 10028ee4 f   ServerInfoManager.obj
 0001:00027f73       __catch$??1CServerInfoBuffer@@UAE@XZ$2 10028f73 f   ServerInfoManager.obj
 0001:000287a2       __catch$?CreateMatchOption@CMatchOptionBuffer@@AAEPAUtagGameMatchOption@@XZ$0 100297a2 f   ServerInfoManager.obj
 0001:000288f2       __catch$?CreateServerInfo@CServerInfoBuffer@@AAEPAUtagGameServerInfo@@XZ$0 100298f2 f   ServerInfoManager.obj
 0001:00028b96       __catch$?DeleteGameServer@CServerInfoManager@@QAE_NG@Z$0 10029b96 f   ServerInfoManager.obj
 0001:000299db       __catch$?InsertGameServer@CServerInfoManager@@QAE_NPAUtagGameServerCreate@@AAUtagGameServerInfo@@@Z$0 1002a9db f   ServerInfoManager.obj
 0001:0002a430       __catch$?InsertPersonalRoomParameter@CServerInfoManager@@QAE_NVCDataBaseAide@@UtagPersonalRoomOption@@UtagPersonalRoomOptionRightAndFee@@GG@Z$0 1002b430 f   ServerInfoManager.obj
 0001:0002aa4a       __catch$?LoadGameServerInfo@CServerInfoManager@@QAE_NQADAAVCServerInfoBuffer@@@Z$0 1002ba4a f   ServerInfoManager.obj
 0001:0002ae9f       __catch$?LoadGameServerInfo@CServerInfoManager@@QAE_NQADGAAUtagGameServerInfo@@@Z$0 1002be9f f   ServerInfoManager.obj
 0001:0002b65d       __catch$?LoadPersonalRoomParameter@CServerInfoManager@@QAE_NAAUtagPersonalRoomOption@@AAUtagPersonalRoomOptionRightAndFee@@G@Z$0 1002c65d f   ServerInfoManager.obj
 0001:0002bfef       __catch$?ModifyGameServer@CServerInfoManager@@QAE_NPAUtagGameServerCreate@@AAUtagGameServerInfo@@@Z$0 1002cfef f   ServerInfoManager.obj
 0001:0002c98e       __catch$?ModifyPersonalRoomParameter@CServerInfoManager@@QAE_NVCDataBaseAide@@UtagPersonalRoomOption@@UtagPersonalRoomOptionRightAndFee@@GG@Z$0 1002d98e f   ServerInfoManager.obj
 0001:0002ec10       $LN26                      1002fc10     ServerListControl.obj
 0001:0002f59c       $LN41                      1003059c     ServerListControl.obj
 0001:0003215c       $LN22                      1003315c     mfcs140d:nolib.obj
 0001:00032164       $LN21                      10033164     mfcs140d:nolib.obj
 0001:0003217c       $LN20                      1003317c     mfcs140d:nolib.obj
 0001:00032186       $LN19                      10033186     mfcs140d:nolib.obj
 0001:000324fc       $LN36                      100334fc     mfcs140d:nolib.obj
 0001:00032504       $LN35                      10033504     mfcs140d:nolib.obj
 0001:0003254c       $LN34                      1003354c     mfcs140d:nolib.obj
 0001:00032563       $LN33                      10033563     mfcs140d:nolib.obj
 0001:0003256c       $LN32                      1003356c     mfcs140d:nolib.obj
 0001:0003257f       $LN31                      1003357f     mfcs140d:nolib.obj
 0001:00032586       $LN30                      10033586     mfcs140d:nolib.obj
 0001:00032590       $LN29                      10033590     mfcs140d:nolib.obj
 0001:000327b0       ?ArrayUnwindFilter@@YAHPAU_EXCEPTION_POINTERS@@@Z 100337b0 f   msvcrtd:ehvecdtr.obj
 0001:00032990       $$000000                   10033990     msvcrtd:chkstk.obj
 0001:00032a70       ?find_pe_section@@YAPAU_IMAGE_SECTION_HEADER@@QAEI@Z 10033a70 f   msvcrtd:utility.obj
 0001:00032b30       ?is_potentially_valid_image_base@@YA_NQAX@Z 10033b30 f   msvcrtd:utility.obj
 0001:00033270       ?__scrt_initialize_thread_safe_statics@@YAHXZ 10034270 f   msvcrtd:thread_safe_statics.obj
 0001:00033390       ?__scrt_initialize_thread_safe_statics_platform_specific@@YAXXZ 10034390 f   msvcrtd:thread_safe_statics.obj
 0001:00033530       ?__scrt_uninitialize_thread_safe_statics@@YAXXZ 10034530 f   msvcrtd:thread_safe_statics.obj
 0001:00033850       ?dllmain_crt_dispatch@@YGHQAUHINSTANCE__@@KQAX@Z 10034850 f   msvcrtd:dll_dllmain.obj
 0001:000338bc       $LN11                      100348bc     msvcrtd:dll_dllmain.obj
 0001:000338f0       ?dllmain_crt_process_attach@@YAHQAUHINSTANCE__@@QAX@Z 100348f0 f   msvcrtd:dll_dllmain.obj
 0001:00033ac0       ?dllmain_crt_process_detach@@YAH_N@Z 10034ac0 f   msvcrtd:dll_dllmain.obj
 0001:00033bd0       ?dllmain_dispatch@@YAHQAUHINSTANCE__@@KQAX@Z 10034bd0 f   msvcrtd:dll_dllmain.obj
 0001:00033dc0       ?dllmain_raw@@YGHQAUHINSTANCE__@@KQAX@Z 10034dc0 f   msvcrtd:dll_dllmain.obj
 0001:00034d30       ___get_entropy             10035d30 f   msvcrtd:gs_support.obj
 0001:00034f90       ?DebuggerProbe@@YA_NK@Z    10035f90 f   msvcrtd:error.obj
 0001:00034fe0       ?DebuggerRuntime@@YA_NKHPAXPB_W@Z 10035fe0 f   msvcrtd:error.obj
 0001:000352b0       ?_getMemBlockDataString@@YAXPAD0PBDI@Z 100362b0 f   msvcrtd:error.obj
 0001:00035340       ?_strlen_priv@@YAIPBD@Z    10036340 f   msvcrtd:error.obj
 0001:00035360       ?failwithmessage@@YAXPAXHHPBD@Z 10036360 f   msvcrtd:error.obj
 0001:000355e0       ?notify_debugger@@YAXABUtagEXCEPTION_VISUALCPP_DEBUG_INFO@@@Z 100365e0 f   msvcrtd:error.obj
 0001:000358b0       ?GetPdbDll@@YAPAUHINSTANCE__@@XZ 100368b0 f   msvcrtd:pdblkup.obj
 0001:00035a40       ?GetPdbDllFromInstallPath@@YAPAUHINSTANCE__@@XZ 10036a40 f   msvcrtd:pdblkup.obj
 0001:00035d30       ?GetPdbDllPathFromFilePath@@YAHPB_WPA_WI@Z 10036d30 f   msvcrtd:pdblkup.obj
 0001:00036902       _memmove_s                 10037902 f   atls:atlbase.obj
 0001:000386d0       __unwindfunclet$??0CDlgMatchReward@@QAE@XZ$0 100396d0 f   DlgMatchWizard.obj
 0001:000386d8       __ehhandler$??0CDlgMatchReward@@QAE@XZ 100396d8 f   DlgMatchWizard.obj
 0001:00038700       __unwindfunclet$??0CDlgMatchWizard@@QAE@XZ$0 10039700 f   DlgMatchWizard.obj
 0001:00038708       __unwindfunclet$??0CDlgMatchWizard@@QAE@XZ$1 10039708 f   DlgMatchWizard.obj
 0001:00038716       __unwindfunclet$??0CDlgMatchWizard@@QAE@XZ$2 10039716 f   DlgMatchWizard.obj
 0001:00038724       __unwindfunclet$??0CDlgMatchWizard@@QAE@XZ$3 10039724 f   DlgMatchWizard.obj
 0001:00038732       __unwindfunclet$??0CDlgMatchWizard@@QAE@XZ$4 10039732 f   DlgMatchWizard.obj
 0001:00038740       __ehhandler$??0CDlgMatchWizard@@QAE@XZ 10039740 f   DlgMatchWizard.obj
 0001:00038780       __unwindfunclet$??0CDlgMatchWizardStep1@@QAE@XZ$0 10039780 f   DlgMatchWizard.obj
 0001:00038788       __unwindfunclet$??0CDlgMatchWizardStep1@@QAE@XZ$1 10039788 f   DlgMatchWizard.obj
 0001:00038796       __unwindfunclet$??0CDlgMatchWizardStep1@@QAE@XZ$2 10039796 f   DlgMatchWizard.obj
 0001:000387a4       __unwindfunclet$??0CDlgMatchWizardStep1@@QAE@XZ$3 100397a4 f   DlgMatchWizard.obj
 0001:000387b2       __unwindfunclet$??0CDlgMatchWizardStep1@@QAE@XZ$4 100397b2 f   DlgMatchWizard.obj
 0001:000387c0       __ehhandler$??0CDlgMatchWizardStep1@@QAE@XZ 100397c0 f   DlgMatchWizard.obj
 0001:00038800       __unwindfunclet$??0CDlgMatchWizardStep2@@QAE@XZ$0 10039800 f   DlgMatchWizard.obj
 0001:00038808       __unwindfunclet$??0CDlgMatchWizardStep2@@QAE@XZ$1 10039808 f   DlgMatchWizard.obj
 0001:00038816       __ehhandler$??0CDlgMatchWizardStep2@@QAE@XZ 10039816 f   DlgMatchWizard.obj
 0001:00038840       __unwindfunclet$??RCTraceFileAndLineInfo@ATL@@QBAXHIPBDZZ$0 10039840 f   DlgMatchWizard.obj
 0001:00038848       __ehhandler$??RCTraceFileAndLineInfo@ATL@@QBAXHIPBDZZ 10039848 f   DlgMatchWizard.obj
 0001:00038870       __ehhandler$??_ECDlgMatchDistribute@@UAEPAXI@Z 10039870 f   DlgMatchWizard.obj
 0001:000388a0       __ehhandler$??_ECDlgMatchImmediate@@UAEPAXI@Z 100398a0 f   DlgMatchWizard.obj
 0001:000388d0       __ehhandler$??_ECDlgMatchItem@@MAEPAXI@Z 100398d0 f   DlgMatchWizard.obj
 0001:00038900       __ehhandler$??_ECDlgMatchLockTime@@UAEPAXI@Z 10039900 f   DlgMatchWizard.obj
 0001:00038930       __ehhandler$??_ECDlgMatchRankingMode@@UAEPAXI@Z 10039930 f   DlgMatchWizard.obj
 0001:00038960       __ehhandler$??_ECDlgMatchReward@@UAEPAXI@Z 10039960 f   DlgMatchWizard.obj
 0001:00038990       __ehhandler$??_ECDlgMatchSignup1@@UAEPAXI@Z 10039990 f   DlgMatchWizard.obj
 0001:000389c0       __ehhandler$??_ECDlgMatchSignup2@@UAEPAXI@Z 100399c0 f   DlgMatchWizard.obj
 0001:000389f0       __ehhandler$??_ECDlgMatchWizard@@UAEPAXI@Z 100399f0 f   DlgMatchWizard.obj
 0001:00038a20       __ehhandler$??_ECDlgMatchWizardItem@@MAEPAXI@Z 10039a20 f   DlgMatchWizard.obj
 0001:00038a50       __ehhandler$??_ECDlgMatchWizardStep1@@UAEPAXI@Z 10039a50 f   DlgMatchWizard.obj
 0001:00038a80       __ehhandler$??_ECDlgMatchWizardStep2@@UAEPAXI@Z 10039a80 f   DlgMatchWizard.obj
 0001:00038ab0       __ehhandler$??_ECMatchInfoBuffer@@UAEPAXI@Z 10039ab0 f   DlgMatchWizard.obj
 0001:00038ae0       __ehhandler$??_ECMatchInfoManager@@UAEPAXI@Z 10039ae0 f   DlgMatchWizard.obj
 0001:00038b10       __ehhandler$??_ECRewardInfoBuffer@@UAEPAXI@Z 10039b10 f   DlgMatchWizard.obj
 0001:00038b40       __unwindfunclet$?OnBnClickedFinish@CDlgMatchWizard@@QAEXXZ$0 10039b40 f   DlgMatchWizard.obj
 0001:00038b4c       __unwindfunclet$?OnBnClickedFinish@CDlgMatchWizard@@QAEXXZ$1 10039b4c f   DlgMatchWizard.obj
 0001:00038b58       __unwindfunclet$?OnBnClickedFinish@CDlgMatchWizard@@QAEXXZ$2 10039b58 f   DlgMatchWizard.obj
 0001:00038b64       __unwindfunclet$?OnBnClickedFinish@CDlgMatchWizard@@QAEXXZ$3 10039b64 f   DlgMatchWizard.obj
 0001:00038b6f       __ehhandler$?OnBnClickedFinish@CDlgMatchWizard@@QAEXXZ 10039b6f f   DlgMatchWizard.obj
 0001:00038bb0       __unwindfunclet$?OnInitDialog@CDlgMatchWizard@@UAEHXZ$0 10039bb0 f   DlgMatchWizard.obj
 0001:00038bb8       __ehhandler$?OnInitDialog@CDlgMatchWizard@@UAEHXZ 10039bb8 f   DlgMatchWizard.obj
 0001:00038bf0       __unwindfunclet$?TraceV@CTrace@ATL@@SAXPBDHII0PAD@Z$0 10039bf0 f   DlgMatchWizard.obj
 0001:00038bf8       __unwindfunclet$?TraceV@CTrace@ATL@@SAXPBDHII0PAD@Z$1 10039bf8 f   DlgMatchWizard.obj
 0001:00038c00       __ehhandler$?TraceV@CTrace@ATL@@SAXPBDHII0PAD@Z 10039c00 f   DlgMatchWizard.obj
 0001:00038c30       __unwindfunclet$?TransferMatchReward@CDlgMatchWizard@@AAEXAAV?$CStringT@DV?$StrTraitMFC_DLL@DV?$ChTraitsCRT@D@ATL@@@@@ATL@@00@Z$0 10039c30 f   DlgMatchWizard.obj
 0001:00038c39       __ehhandler$?TransferMatchReward@CDlgMatchWizard@@AAEXAAV?$CStringT@DV?$StrTraitMFC_DLL@DV?$ChTraitsCRT@D@ATL@@@@@ATL@@00@Z 10039c39 f   DlgMatchWizard.obj
 0001:00038c60       __unwindfunclet$??0CDlgServerItem@@QAE@XZ$0 10039c60 f   DlgServerItem.obj
 0001:00038c68       __unwindfunclet$??0CDlgServerItem@@QAE@XZ$1 10039c68 f   DlgServerItem.obj
 0001:00038c76       __unwindfunclet$??0CDlgServerItem@@QAE@XZ$2 10039c76 f   DlgServerItem.obj
 0001:00038c84       __ehhandler$??0CDlgServerItem@@QAE@XZ 10039c84 f   DlgServerItem.obj
 0001:00038cb0       __ehhandler$??1?$CTempldateHelper@UIGameServiceManager@@@@UAE@XZ 10039cb0 f   DlgServerItem.obj
 0001:00038ce0       __ehhandler$??_ECDlgServerItem@@UAEPAXI@Z 10039ce0 f   DlgServerItem.obj
 0001:00038d10       __ehhandler$??_ECMatchOptionBuffer@@UAEPAXI@Z 10039d10 f   DlgServerItem.obj
 0001:00038d40       __ehhandler$??_ECServerInfoManager@@UAEPAXI@Z 10039d40 f   DlgServerItem.obj
 0001:00038d70       __ehhandler$?CreateInstance@?$CTempldateHelper@UIGameServiceManager@@@@QAE_NXZ 10039d70 f   DlgServerItem.obj
 0001:00038da0       __unwindfunclet$?GetModuleInitParameter@CDlgServerItem@@IAE_NPAUtagGameServerInfo@@_N@Z$0 10039da0 f   DlgServerItem.obj
 0001:00038dab       __ehhandler$?GetModuleInitParameter@CDlgServerItem@@IAE_NPAUtagGameServerInfo@@_N@Z 10039dab f   DlgServerItem.obj
 0001:00038de0       __unwindfunclet$?LoadDBServerItem@CDlgServerItem@@IAE_NXZ$0 10039de0 f   DlgServerItem.obj
 0001:00038deb       __ehhandler$?LoadDBServerItem@CDlgServerItem@@IAE_NXZ 10039deb f   DlgServerItem.obj
 0001:00038e20       __unwindfunclet$?LoadPersonalRoomPatameter@CDlgServerItem@@QAE_NG@Z$0 10039e20 f   DlgServerItem.obj
 0001:00038e2b       __ehhandler$?LoadPersonalRoomPatameter@CDlgServerItem@@QAE_NG@Z 10039e2b f   DlgServerItem.obj
 0001:00038e60       __unwindfunclet$?OnBnClickedDeleteServer@CDlgServerItem@@IAEXXZ$0 10039e60 f   DlgServerItem.obj
 0001:00038e6b       __ehhandler$?OnBnClickedDeleteServer@CDlgServerItem@@IAEXXZ 10039e6b f   DlgServerItem.obj
 0001:00038ea0       __unwindfunclet$?OpenGameServer@CDlgServerItem@@QAE_NG@Z$0 10039ea0 f   DlgServerItem.obj
 0001:00038eab       __ehhandler$?OpenGameServer@CDlgServerItem@@QAE_NG@Z 10039eab f   DlgServerItem.obj
 0001:00038ee0       __unwindfunclet$??0CDlgServerMatch@@QAE@XZ$0 10039ee0 f   DlgServerMatch.obj
 0001:00038ee8       __unwindfunclet$??0CDlgServerMatch@@QAE@XZ$1 10039ee8 f   DlgServerMatch.obj
 0001:00038ef6       __ehhandler$??0CDlgServerMatch@@QAE@XZ 10039ef6 f   DlgServerMatch.obj
 0001:00038f20       __ehhandler$??1?$CTempldateHelper@UIDataBase@@@@UAE@XZ 10039f20 f   DlgServerMatch.obj
 0001:00038f50       __ehhandler$??_ECDlgServerMatch@@UAEPAXI@Z 10039f50 f   DlgServerMatch.obj
 0001:00038f80       __ehhandler$??_ECModuleDBParameter@@UAEPAXI@Z 10039f80 f   DlgServerMatch.obj
 0001:00038fb0       __ehhandler$?CreateInstance@?$CTempldateHelper@UIDataBase@@@@QAE_NXZ 10039fb0 f   DlgServerMatch.obj
 0001:00038fe0       __unwindfunclet$?LoadDBMatchItem@CDlgServerMatch@@IAE_NXZ$0 10039fe0 f   DlgServerMatch.obj
 0001:00038fe8       __ehhandler$?LoadDBMatchItem@CDlgServerMatch@@IAE_NXZ 10039fe8 f   DlgServerMatch.obj
 0001:00039020       __unwindfunclet$?OnBnClickedCreateMatch@CDlgServerMatch@@IAEXXZ$0 1003a020 f   DlgServerMatch.obj
 0001:0003902b       __ehhandler$?OnBnClickedCreateMatch@CDlgServerMatch@@IAEXXZ 1003a02b f   DlgServerMatch.obj
 0001:00039060       __unwindfunclet$?OnBnClickedDeleteMatch@CDlgServerMatch@@IAEXXZ$0 1003a060 f   DlgServerMatch.obj
 0001:00039068       __ehhandler$?OnBnClickedDeleteMatch@CDlgServerMatch@@IAEXXZ 1003a068 f   DlgServerMatch.obj
 0001:00039090       __unwindfunclet$?OnBnClickedOptionMatch@CDlgServerMatch@@IAEXXZ$0 1003a090 f   DlgServerMatch.obj
 0001:0003909b       __ehhandler$?OnBnClickedOptionMatch@CDlgServerMatch@@IAEXXZ 1003a09b f   DlgServerMatch.obj
 0001:000390d0       __unwindfunclet$?QueryMatchDataBase@CDlgServerMatch@@IAE_NXZ$2 1003a0d0 f   DlgServerMatch.obj
 0001:000390d9       __unwindfunclet$?QueryMatchDataBase@CDlgServerMatch@@IAE_NXZ$3 1003a0d9 f   DlgServerMatch.obj
 0001:000390e4       __ehhandler$?QueryMatchDataBase@CDlgServerMatch@@IAE_NXZ 1003a0e4 f   DlgServerMatch.obj
 0001:00039120       __unwindfunclet$??0CDlgServerOptionItem@@IAE@I@Z$0 1003a120 f   DlgServerWizard.obj
 0001:00039128       __ehhandler$??0CDlgServerOptionItem@@IAE@I@Z 1003a128 f   DlgServerWizard.obj
 0001:00039150       __unwindfunclet$??0CDlgServerWizard@@QAE@XZ$0 1003a150 f   DlgServerWizard.obj
 0001:00039158       __unwindfunclet$??0CDlgServerWizard@@QAE@XZ$1 1003a158 f   DlgServerWizard.obj
 0001:00039166       __ehhandler$??0CDlgServerWizard@@QAE@XZ 1003a166 f   DlgServerWizard.obj
 0001:00039190       __unwindfunclet$??0CDlgServerWizardItem1@@QAE@XZ$0 1003a190 f   DlgServerWizard.obj
 0001:00039198       __unwindfunclet$??0CDlgServerWizardItem1@@QAE@XZ$1 1003a198 f   DlgServerWizard.obj
 0001:000391a6       __unwindfunclet$??0CDlgServerWizardItem1@@QAE@XZ$2 1003a1a6 f   DlgServerWizard.obj
 0001:000391b4       __unwindfunclet$??0CDlgServerWizardItem1@@QAE@XZ$3 1003a1b4 f   DlgServerWizard.obj
 0001:000391c2       __unwindfunclet$??0CDlgServerWizardItem1@@QAE@XZ$4 1003a1c2 f   DlgServerWizard.obj
 0001:000391d0       __ehhandler$??0CDlgServerWizardItem1@@QAE@XZ 1003a1d0 f   DlgServerWizard.obj
 0001:00039210       __unwindfunclet$??0CDlgServerWizardItem2@@QAE@XZ$0 1003a210 f   DlgServerWizard.obj
 0001:00039218       __unwindfunclet$??0CDlgServerWizardItem2@@QAE@XZ$1 1003a218 f   DlgServerWizard.obj
 0001:00039226       __unwindfunclet$??0CDlgServerWizardItem2@@QAE@XZ$2 1003a226 f   DlgServerWizard.obj
 0001:00039234       __unwindfunclet$??0CDlgServerWizardItem2@@QAE@XZ$3 1003a234 f   DlgServerWizard.obj
 0001:00039242       __unwindfunclet$??0CDlgServerWizardItem2@@QAE@XZ$4 1003a242 f   DlgServerWizard.obj
 0001:00039250       __unwindfunclet$??0CDlgServerWizardItem2@@QAE@XZ$5 1003a250 f   DlgServerWizard.obj
 0001:0003925e       __unwindfunclet$??0CDlgServerWizardItem2@@QAE@XZ$6 1003a25e f   DlgServerWizard.obj
 0001:0003926c       __ehhandler$??0CDlgServerWizardItem2@@QAE@XZ 1003a26c f   DlgServerWizard.obj
 0001:000392b0       __ehhandler$??_ECDlgServerOptionItem1@@UAEPAXI@Z 1003a2b0 f   DlgServerWizard.obj
 0001:000392e0       __ehhandler$??_ECDlgServerOptionItem2@@UAEPAXI@Z 1003a2e0 f   DlgServerWizard.obj
 0001:00039310       __ehhandler$??_ECDlgServerOptionItem3@@UAEPAXI@Z 1003a310 f   DlgServerWizard.obj
 0001:00039340       __ehhandler$??_ECDlgServerOptionItem5@@UAEPAXI@Z 1003a340 f   DlgServerWizard.obj
 0001:00039370       __ehhandler$??_ECDlgServerOptionItem@@MAEPAXI@Z 1003a370 f   DlgServerWizard.obj
 0001:000393a0       __ehhandler$??_ECDlgServerOptionItemCustom@@UAEPAXI@Z 1003a3a0 f   DlgServerWizard.obj
 0001:000393d0       __ehhandler$??_ECDlgServerOptionItemPersonal@@UAEPAXI@Z 1003a3d0 f   DlgServerWizard.obj
 0001:00039400       __ehhandler$??_ECDlgServerWizard@@UAEPAXI@Z 1003a400 f   DlgServerWizard.obj
 0001:00039430       __ehhandler$??_ECDlgServerWizardItem1@@UAEPAXI@Z 1003a430 f   DlgServerWizard.obj
 0001:00039460       __ehhandler$??_ECDlgServerWizardItem2@@UAEPAXI@Z 1003a460 f   DlgServerWizard.obj
 0001:00039490       __ehhandler$??_ECDlgServerWizardItem@@MAEPAXI@Z 1003a490 f   DlgServerWizard.obj
 0001:000394c0       __ehhandler$??_ECModuleInfoManager@@UAEPAXI@Z 1003a4c0 f   DlgServerWizard.obj
 0001:000394f0       __unwindfunclet$?GetPersonalRoomInfo@CDlgServerOptionItem5@@QAE_NK@Z$0 1003a4f0 f   DlgServerWizard.obj
 0001:000394fc       __ehhandler$?GetPersonalRoomInfo@CDlgServerOptionItem5@@QAE_NK@Z 1003a4fc f   DlgServerWizard.obj
 0001:00039540       __unwindfunclet$?OnBnClickedFinish@CDlgServerWizard@@QAEXXZ$0 1003a540 f   DlgServerWizard.obj
 0001:0003954b       __ehhandler$?OnBnClickedFinish@CDlgServerWizard@@QAEXXZ 1003a54b f   DlgServerWizard.obj
 0001:00039580       __unwindfunclet$?OnInitDialog@CDlgServerWizardItem2@@MAEHXZ$0 1003a580 f   DlgServerWizard.obj
 0001:0003958b       __ehhandler$?OnInitDialog@CDlgServerWizardItem2@@MAEHXZ 1003a58b f   DlgServerWizard.obj
 0001:000395c0       __unwindfunclet$?SaveData@CDlgServerWizard@@QAEXXZ$0 1003a5c0 f   DlgServerWizard.obj
 0001:000395cc       __unwindfunclet$?SaveData@CDlgServerWizard@@QAEXXZ$1 1003a5cc f   DlgServerWizard.obj
 0001:000395d8       __unwindfunclet$?SaveData@CDlgServerWizard@@QAEXXZ$2 1003a5d8 f   DlgServerWizard.obj
 0001:000395e4       __ehhandler$?SaveData@CDlgServerWizard@@QAEXXZ 1003a5e4 f   DlgServerWizard.obj
 0001:00039620       __unwindfunclet$??0CListControl@@QAE@XZ$0 1003a620 f   ListControl.obj
 0001:00039628       __ehhandler$??0CListControl@@QAE@XZ 1003a628 f   ListControl.obj
 0001:00039650       __ehhandler$??_ECListControl@@UAEPAXI@Z 1003a650 f   ListControl.obj
 0001:00039680       __ehhandler$??_ECListHeaderCtrl@@UAEPAXI@Z 1003a680 f   ListControl.obj
 0001:000396b0       __unwindfunclet$?OnPaint@CListHeaderCtrl@@IAEXXZ$0 1003a6b0 f   ListControl.obj
 0001:000396b8       __ehhandler$?OnPaint@CListHeaderCtrl@@IAEXXZ 1003a6b8 f   ListControl.obj
 0001:000396f0       __unwindfunclet$??0CMatchInfoBuffer@@QAE@XZ$0 1003a6f0 f   MatchInfoManager.obj
 0001:000396fb       __ehhandler$??0CMatchInfoBuffer@@QAE@XZ 1003a6fb f   MatchInfoManager.obj
 0001:00039720       __unwindfunclet$??0CRewardInfoBuffer@@QAE@XZ$0 1003a720 f   MatchInfoManager.obj
 0001:0003972b       __ehhandler$??0CRewardInfoBuffer@@QAE@XZ 1003a72b f   MatchInfoManager.obj
 0001:00039750       __unwindfunclet$??1CMatchInfoBuffer@@UAE@XZ$2 1003a750 f   MatchInfoManager.obj
 0001:0003975b       __unwindfunclet$??1CMatchInfoBuffer@@UAE@XZ$3 1003a75b f   MatchInfoManager.obj
 0001:00039766       __ehhandler$??1CMatchInfoBuffer@@UAE@XZ 1003a766 f   MatchInfoManager.obj
 0001:00039790       __unwindfunclet$??1CRewardInfoBuffer@@UAE@XZ$2 1003a790 f   MatchInfoManager.obj
 0001:0003979b       __unwindfunclet$??1CRewardInfoBuffer@@UAE@XZ$3 1003a79b f   MatchInfoManager.obj
 0001:000397a6       __ehhandler$??1CRewardInfoBuffer@@UAE@XZ 1003a7a6 f   MatchInfoManager.obj
 0001:000397d0       __ehhandler$?CreateMatchOption@CMatchInfoBuffer@@AAEPAUtagGameMatchOption@@XZ 1003a7d0 f   MatchInfoManager.obj
 0001:00039800       __ehhandler$?CreateMatchRewardInfo@CRewardInfoBuffer@@AAEPAUtagMatchRewardInfo@@XZ 1003a800 f   MatchInfoManager.obj
 0001:00039830       __unwindfunclet$?DeleteGameMatchOption@CMatchInfoManager@@QAE_NK@Z$2 1003a830 f   MatchInfoManager.obj
 0001:00039839       __unwindfunclet$?DeleteGameMatchOption@CMatchInfoManager@@QAE_NK@Z$3 1003a839 f   MatchInfoManager.obj
 0001:00039844       __ehhandler$?DeleteGameMatchOption@CMatchInfoManager@@QAE_NK@Z 1003a844 f   MatchInfoManager.obj
 0001:00039880       __unwindfunclet$?InsertGameMatchOption@CMatchInfoManager@@QAE_NPAUtagCreateMatchInfo@@AAUtagGameMatchOption@@@Z$2 1003a880 f   MatchInfoManager.obj
 0001:00039889       __unwindfunclet$?InsertGameMatchOption@CMatchInfoManager@@QAE_NPAUtagCreateMatchInfo@@AAUtagGameMatchOption@@@Z$3 1003a889 f   MatchInfoManager.obj
 0001:00039894       __ehhandler$?InsertGameMatchOption@CMatchInfoManager@@QAE_NPAUtagCreateMatchInfo@@AAUtagGameMatchOption@@@Z 1003a894 f   MatchInfoManager.obj
 0001:000398d0       __unwindfunclet$?LoadGameMatchOption@CMatchInfoManager@@QAE_NGKAAUtagGameMatchOption@@@Z$2 1003a8d0 f   MatchInfoManager.obj
 0001:000398d9       __unwindfunclet$?LoadGameMatchOption@CMatchInfoManager@@QAE_NGKAAUtagGameMatchOption@@@Z$3 1003a8d9 f   MatchInfoManager.obj
 0001:000398e4       __ehhandler$?LoadGameMatchOption@CMatchInfoManager@@QAE_NGKAAUtagGameMatchOption@@@Z 1003a8e4 f   MatchInfoManager.obj
 0001:00039920       __unwindfunclet$?LoadGameMatchOption@CMatchInfoManager@@QAE_NGQADAAVCMatchInfoBuffer@@@Z$2 1003a920 f   MatchInfoManager.obj
 0001:00039929       __unwindfunclet$?LoadGameMatchOption@CMatchInfoManager@@QAE_NGQADAAVCMatchInfoBuffer@@@Z$3 1003a929 f   MatchInfoManager.obj
 0001:00039934       __ehhandler$?LoadGameMatchOption@CMatchInfoManager@@QAE_NGQADAAVCMatchInfoBuffer@@@Z 1003a934 f   MatchInfoManager.obj
 0001:00039970       __unwindfunclet$?LoadGameMatchReward@CMatchInfoManager@@QAEGKAAVCRewardInfoBuffer@@@Z$2 1003a970 f   MatchInfoManager.obj
 0001:00039979       __unwindfunclet$?LoadGameMatchReward@CMatchInfoManager@@QAEGKAAVCRewardInfoBuffer@@@Z$3 1003a979 f   MatchInfoManager.obj
 0001:00039984       __ehhandler$?LoadGameMatchReward@CMatchInfoManager@@QAEGKAAVCRewardInfoBuffer@@@Z 1003a984 f   MatchInfoManager.obj
 0001:000399c0       __unwindfunclet$?ModifyGameMatchOption@CMatchInfoManager@@QAE_NPAUtagCreateMatchInfo@@AAUtagGameMatchOption@@@Z$2 1003a9c0 f   MatchInfoManager.obj
 0001:000399c9       __unwindfunclet$?ModifyGameMatchOption@CMatchInfoManager@@QAE_NPAUtagCreateMatchInfo@@AAUtagGameMatchOption@@@Z$3 1003a9c9 f   MatchInfoManager.obj
 0001:000399d4       __ehhandler$?ModifyGameMatchOption@CMatchInfoManager@@QAE_NPAUtagCreateMatchInfo@@AAUtagGameMatchOption@@@Z 1003a9d4 f   MatchInfoManager.obj
 0001:00039a10       __unwindfunclet$?ReadGameMatchOption@CMatchInfoManager@@AAE_NAAVCDataBaseAide@@AAUtagGameMatchOption@@@Z$0 1003aa10 f   MatchInfoManager.obj
 0001:00039a1b       __ehhandler$?ReadGameMatchOption@CMatchInfoManager@@AAE_NAAVCDataBaseAide@@AAUtagGameMatchOption@@@Z 1003aa1b f   MatchInfoManager.obj
 0001:00039a50       __ehhandler$??_ECMatchListControl@@UAEPAXI@Z 1003aa50 f   MatchListControl.obj
 0001:00039a80       __ehhandler$??_ECRewardListControl@@UAEPAXI@Z 1003aa80 f   MatchListControl.obj
 0001:00039ab0       __ehhandler$??1CModuleDBParameter@@UAE@XZ 1003aab0 f   ModuleDBParameter.obj
 0001:00039ae0       __unwindfunclet$??0?$CMap@GGPAUtagGameModuleInfo@@PAU1@@@QAE@H@Z$0 1003aae0 f   ModuleInfoManager.obj
 0001:00039ae8       __ehhandler$??0?$CMap@GGPAUtagGameModuleInfo@@PAU1@@@QAE@H@Z 1003aae8 f   ModuleInfoManager.obj
 0001:00039b10       __unwindfunclet$??0CModuleInfoBuffer@@QAE@XZ$0 1003ab10 f   ModuleInfoManager.obj
 0001:00039b1b       __ehhandler$??0CModuleInfoBuffer@@QAE@XZ 1003ab1b f   ModuleInfoManager.obj
 0001:00039b40       __ehhandler$??1?$CMap@GGPAUtagGameModuleInfo@@PAU1@@@UAE@XZ 1003ab40 f   ModuleInfoManager.obj
 0001:00039b70       __unwindfunclet$??1CModuleInfoBuffer@@UAE@XZ$4 1003ab70 f   ModuleInfoManager.obj
 0001:00039b7b       __unwindfunclet$??1CModuleInfoBuffer@@UAE@XZ$5 1003ab7b f   ModuleInfoManager.obj
 0001:00039b86       __ehhandler$??1CModuleInfoBuffer@@UAE@XZ 1003ab86 f   ModuleInfoManager.obj
 0001:00039bb0       __ehhandler$??_ECModuleInfoBuffer@@UAEPAXI@Z 1003abb0 f   ModuleInfoManager.obj
 0001:00039be0       __ehhandler$?CreateModuleInfo@CModuleInfoBuffer@@AAEPAUtagGameModuleInfo@@XZ 1003abe0 f   ModuleInfoManager.obj
 0001:00039c10       __unwindfunclet$?GetGameServiceAttrib@CModuleInfoManager@@QAE_NPBDAAUtagGameServiceAttrib@@@Z$0 1003ac10 f   ModuleInfoManager.obj
 0001:00039c1b       __ehhandler$?GetGameServiceAttrib@CModuleInfoManager@@QAE_NPBDAAUtagGameServiceAttrib@@@Z 1003ac1b f   ModuleInfoManager.obj
 0001:00039c50       __unwindfunclet$?LoadGameModuleInfo@CModuleInfoManager@@QAE_NAAVCModuleInfoBuffer@@@Z$2 1003ac50 f   ModuleInfoManager.obj
 0001:00039c59       __unwindfunclet$?LoadGameModuleInfo@CModuleInfoManager@@QAE_NAAVCModuleInfoBuffer@@@Z$3 1003ac59 f   ModuleInfoManager.obj
 0001:00039c64       __ehhandler$?LoadGameModuleInfo@CModuleInfoManager@@QAE_NAAVCModuleInfoBuffer@@@Z 1003ac64 f   ModuleInfoManager.obj
 0001:00039ca0       __ehhandler$??_ECModuleListControl@@UAEPAXI@Z 1003aca0 f   ModuleListControl.obj
 0001:00039cd0       __ehhandler$??_ECServerCustomRule@@UAEPAXI@Z 1003acd0 f   ServerCustomRule.obj
 0001:00039d00       __unwindfunclet$??0?$CMap@GGPAUtagGameServerInfo@@PAU1@@@QAE@H@Z$0 1003ad00 f   ServerInfoManager.obj
 0001:00039d08       __ehhandler$??0?$CMap@GGPAUtagGameServerInfo@@PAU1@@@QAE@H@Z 1003ad08 f   ServerInfoManager.obj
 0001:00039d30       __unwindfunclet$??0CMatchOptionBuffer@@QAE@XZ$0 1003ad30 f   ServerInfoManager.obj
 0001:00039d3b       __ehhandler$??0CMatchOptionBuffer@@QAE@XZ 1003ad3b f   ServerInfoManager.obj
 0001:00039d60       __unwindfunclet$??0CServerInfoBuffer@@QAE@XZ$0 1003ad60 f   ServerInfoManager.obj
 0001:00039d6b       __ehhandler$??0CServerInfoBuffer@@QAE@XZ 1003ad6b f   ServerInfoManager.obj
 0001:00039d90       __ehhandler$??1?$CMap@GGPAUtagGameServerInfo@@PAU1@@@UAE@XZ 1003ad90 f   ServerInfoManager.obj
 0001:00039dc0       __unwindfunclet$??1CMatchOptionBuffer@@UAE@XZ$2 1003adc0 f   ServerInfoManager.obj
 0001:00039dcb       __unwindfunclet$??1CMatchOptionBuffer@@UAE@XZ$3 1003adcb f   ServerInfoManager.obj
 0001:00039dd6       __ehhandler$??1CMatchOptionBuffer@@UAE@XZ 1003add6 f   ServerInfoManager.obj
 0001:00039e00       __unwindfunclet$??1CServerInfoBuffer@@UAE@XZ$4 1003ae00 f   ServerInfoManager.obj
 0001:00039e0b       __unwindfunclet$??1CServerInfoBuffer@@UAE@XZ$5 1003ae0b f   ServerInfoManager.obj
 0001:00039e16       __ehhandler$??1CServerInfoBuffer@@UAE@XZ 1003ae16 f   ServerInfoManager.obj
 0001:00039e40       __ehhandler$??_ECServerInfoBuffer@@UAEPAXI@Z 1003ae40 f   ServerInfoManager.obj
 0001:00039e70       __ehhandler$?CreateMatchOption@CMatchOptionBuffer@@AAEPAUtagGameMatchOption@@XZ 1003ae70 f   ServerInfoManager.obj
 0001:00039ea0       __ehhandler$?CreateServerInfo@CServerInfoBuffer@@AAEPAUtagGameServerInfo@@XZ 1003aea0 f   ServerInfoManager.obj
 0001:00039ed0       __unwindfunclet$?DeleteGameServer@CServerInfoManager@@QAE_NG@Z$2 1003aed0 f   ServerInfoManager.obj
 0001:00039ed9       __unwindfunclet$?DeleteGameServer@CServerInfoManager@@QAE_NG@Z$3 1003aed9 f   ServerInfoManager.obj
 0001:00039ee4       __ehhandler$?DeleteGameServer@CServerInfoManager@@QAE_NG@Z 1003aee4 f   ServerInfoManager.obj
 0001:00039f20       __unwindfunclet$?InsertGameServer@CServerInfoManager@@QAE_NPAUtagGameServerCreate@@AAUtagGameServerInfo@@@Z$2 1003af20 f   ServerInfoManager.obj
 0001:00039f29       __unwindfunclet$?InsertGameServer@CServerInfoManager@@QAE_NPAUtagGameServerCreate@@AAUtagGameServerInfo@@@Z$3 1003af29 f   ServerInfoManager.obj
 0001:00039f34       __ehhandler$?InsertGameServer@CServerInfoManager@@QAE_NPAUtagGameServerCreate@@AAUtagGameServerInfo@@@Z 1003af34 f   ServerInfoManager.obj
 0001:00039f70       __unwindfunclet$?InsertPersonalRoomParameter@CServerInfoManager@@QAE_NVCDataBaseAide@@UtagPersonalRoomOption@@UtagPersonalRoomOptionRightAndFee@@GG@Z$2 1003af70 f   ServerInfoManager.obj
 0001:00039f79       __ehhandler$?InsertPersonalRoomParameter@CServerInfoManager@@QAE_NVCDataBaseAide@@UtagPersonalRoomOption@@UtagPersonalRoomOptionRightAndFee@@GG@Z 1003af79 f   ServerInfoManager.obj
 0001:00039fb0       __unwindfunclet$?LoadGameServerInfo@CServerInfoManager@@QAE_NQADAAVCServerInfoBuffer@@@Z$2 1003afb0 f   ServerInfoManager.obj
 0001:00039fb9       __unwindfunclet$?LoadGameServerInfo@CServerInfoManager@@QAE_NQADAAVCServerInfoBuffer@@@Z$3 1003afb9 f   ServerInfoManager.obj
 0001:00039fc4       __ehhandler$?LoadGameServerInfo@CServerInfoManager@@QAE_NQADAAVCServerInfoBuffer@@@Z 1003afc4 f   ServerInfoManager.obj
 0001:0003a000       __unwindfunclet$?LoadGameServerInfo@CServerInfoManager@@QAE_NQADGAAUtagGameServerInfo@@@Z$2 1003b000 f   ServerInfoManager.obj
 0001:0003a009       __unwindfunclet$?LoadGameServerInfo@CServerInfoManager@@QAE_NQADGAAUtagGameServerInfo@@@Z$3 1003b009 f   ServerInfoManager.obj
 0001:0003a014       __ehhandler$?LoadGameServerInfo@CServerInfoManager@@QAE_NQADGAAUtagGameServerInfo@@@Z 1003b014 f   ServerInfoManager.obj
 0001:0003a050       __unwindfunclet$?LoadPersonalRoomParameter@CServerInfoManager@@QAE_NAAUtagPersonalRoomOption@@AAUtagPersonalRoomOptionRightAndFee@@G@Z$2 1003b050 f   ServerInfoManager.obj
 0001:0003a059       __unwindfunclet$?LoadPersonalRoomParameter@CServerInfoManager@@QAE_NAAUtagPersonalRoomOption@@AAUtagPersonalRoomOptionRightAndFee@@G@Z$3 1003b059 f   ServerInfoManager.obj
 0001:0003a064       __ehhandler$?LoadPersonalRoomParameter@CServerInfoManager@@QAE_NAAUtagPersonalRoomOption@@AAUtagPersonalRoomOptionRightAndFee@@G@Z 1003b064 f   ServerInfoManager.obj
 0001:0003a0a0       __unwindfunclet$?ModifyGameServer@CServerInfoManager@@QAE_NPAUtagGameServerCreate@@AAUtagGameServerInfo@@@Z$2 1003b0a0 f   ServerInfoManager.obj
 0001:0003a0a9       __unwindfunclet$?ModifyGameServer@CServerInfoManager@@QAE_NPAUtagGameServerCreate@@AAUtagGameServerInfo@@@Z$3 1003b0a9 f   ServerInfoManager.obj
 0001:0003a0b4       __ehhandler$?ModifyGameServer@CServerInfoManager@@QAE_NPAUtagGameServerCreate@@AAUtagGameServerInfo@@@Z 1003b0b4 f   ServerInfoManager.obj
 0001:0003a0f0       __unwindfunclet$?ModifyPersonalRoomParameter@CServerInfoManager@@QAE_NVCDataBaseAide@@UtagPersonalRoomOption@@UtagPersonalRoomOptionRightAndFee@@GG@Z$2 1003b0f0 f   ServerInfoManager.obj
 0001:0003a0f9       __ehhandler$?ModifyPersonalRoomParameter@CServerInfoManager@@QAE_NVCDataBaseAide@@UtagPersonalRoomOption@@UtagPersonalRoomOptionRightAndFee@@GG@Z 1003b0f9 f   ServerInfoManager.obj
 0001:0003a130       __ehhandler$??_ECServerListControl@@UAEPAXI@Z 1003b130 f   ServerListControl.obj
 0001:0003a160       __unwindfunclet$??0_ATL_WIN_MODULE70@ATL@@QAE@XZ$0 1003b160 f   Stdafx.obj
 0001:0003a16b       __ehhandler$??0_ATL_WIN_MODULE70@ATL@@QAE@XZ 1003b16b f   Stdafx.obj
 0001:0003a190       __ehhandler$??1?$CSimpleArray@GV?$CSimpleArrayEqualHelper@G@ATL@@@ATL@@QAE@XZ 1003b190 f   Stdafx.obj
 0001:0003a1c0       __ehhandler$??1CAtlComModule@ATL@@QAE@XZ 1003b1c0 f   Stdafx.obj
 0001:0003a1f0       __ehhandler$??1CAtlWinModule@ATL@@QAE@XZ 1003b1f0 f   Stdafx.obj
 0001:0003a220       __ehhandler$??_Estringdispid@CComTypeInfoHolder@ATL@@QAEPAXI@Z 1003b220 f   mfcs140d:nolib.obj
 0001:0003a250       __ehhandler$?__scrt_initialize_thread_safe_statics_platform_specific@@YAXXZ 1003b250 f   msvcrtd:thread_safe_statics.obj
 0001:0003a280       __ehhandler$?__scrt_uninitialize_thread_safe_statics@@YAXXZ 1003b280 f   msvcrtd:thread_safe_statics.obj
 0001:0003b410       ??__F_AtlComModule@ATL@@YAXXZ 1003c410 f   Stdafx.obj
 0001:0003b430       ??__F_AtlWinModule@ATL@@YAXXZ 1003c430 f   Stdafx.obj
 0001:0003b490       ??__F_AtlComModule@ATL@@YAXXZ 1003c490 f   mfcs140d:nolib.obj
 0001:0003b4b0       ??__F_AtlWinModule@ATL@@YAXXZ 1003c4b0 f   mfcs140d:nolib.obj
 0001:0003b4d0       ??__F_AtlComModule@ATL@@YAXXZ 1003c4d0 f   mfcs140d:stdafx.obj
 0001:0003b4f0       ??__F_AtlWinModule@ATL@@YAXXZ 1003c4f0 f   mfcs140d:stdafx.obj
 0001:0003b50b       ??__F_AtlBaseModule@ATL@@YAXXZ 1003c50b f   atls:atlbase.obj
 0002:00000104       ?_AtlBaseModule$initializer$@ATL@@3P6AXXZA 1003e104     atls:atlbase.obj
 0002:00000208       ?atlTraceException$initializer$@ATL@@3P6AXXZA 1003e208     DlgMatchWizard.obj
 0002:0000020c       ?atlTraceString$initializer$@ATL@@3P6AXXZA 1003e20c     DlgServerWizard.obj
 0002:00000210       ?atlTraceGeneral$initializer$@ATL@@3P6AXXZA 1003e210     Stdafx.obj
 0002:00000214       ?atlTraceCOM$initializer$@ATL@@3P6AXXZA 1003e214     Stdafx.obj
 0002:00000218       ?atlTraceQI$initializer$@ATL@@3P6AXXZA 1003e218     Stdafx.obj
 0002:0000021c       ?atlTraceRegistrar$initializer$@ATL@@3P6AXXZA 1003e21c     Stdafx.obj
 0002:00000220       ?atlTraceRefcount$initializer$@ATL@@3P6AXXZA 1003e220     Stdafx.obj
 0002:00000224       ?atlTraceWindowing$initializer$@ATL@@3P6AXXZA 1003e224     Stdafx.obj
 0002:00000228       ?atlTraceControls$initializer$@ATL@@3P6AXXZA 1003e228     Stdafx.obj
 0002:0000022c       ?atlTraceHosting$initializer$@ATL@@3P6AXXZA 1003e22c     Stdafx.obj
 0002:00000230       ?atlTraceDBClient$initializer$@ATL@@3P6AXXZA 1003e230     Stdafx.obj
 0002:00000234       ?atlTraceDBProvider$initializer$@ATL@@3P6AXXZA 1003e234     Stdafx.obj
 0002:00000238       ?atlTraceSnapin$initializer$@ATL@@3P6AXXZA 1003e238     Stdafx.obj
 0002:0000023c       ?atlTraceNotImpl$initializer$@ATL@@3P6AXXZA 1003e23c     Stdafx.obj
 0002:00000240       ?atlTraceAllocation$initializer$@ATL@@3P6AXXZA 1003e240     Stdafx.obj
 0002:00000244       ?atlTraceTime$initializer$@ATL@@3P6AXXZA 1003e244     Stdafx.obj
 0002:00000248       ?atlTraceCache$initializer$@ATL@@3P6AXXZA 1003e248     Stdafx.obj
 0002:0000024c       ?atlTraceStencil$initializer$@ATL@@3P6AXXZA 1003e24c     Stdafx.obj
 0002:00000250       ?atlTraceMap$initializer$@ATL@@3P6AXXZA 1003e250     Stdafx.obj
 0002:00000254       ?atlTraceUtil$initializer$@ATL@@3P6AXXZA 1003e254     Stdafx.obj
 0002:00000258       ?atlTraceSecurity$initializer$@ATL@@3P6AXXZA 1003e258     Stdafx.obj
 0002:0000025c       ?atlTraceSync$initializer$@ATL@@3P6AXXZA 1003e25c     Stdafx.obj
 0002:00000260       ?atlTraceISAPI$initializer$@ATL@@3P6AXXZA 1003e260     Stdafx.obj
 0002:00000264       ?_AtlComModule$initializer$@ATL@@3P6AXXZA 1003e264     Stdafx.obj
 0002:00000268       ?_AtlWinModule$initializer$@ATL@@3P6AXXZA 1003e268     Stdafx.obj
 0002:0000026c       ?InitializeCAtlStringMgr$initializer$@ATLImplementationDetails@ATL@@3P6AXXZA 1003e26c     Stdafx.obj
 0002:0000058c       ?__scrt_initialize_tss_var@@3P6AHXZA 1003e58c     msvcrtd:thread_safe_statics.obj
 0002:00000bb0       ?IID_ITraceServiceManager@@3U_GUID@@B 1003ebb0     DlgMatchWizard.obj
 0002:00000bc0       ?IID_IAsynchronismEngine@@3U_GUID@@B 1003ebc0     DlgMatchWizard.obj
 0002:00000bd0       ?IID_IDataBase@@3U_GUID@@B 1003ebd0     DlgMatchWizard.obj
 0002:00000be0       ?IID_IDataBaseEngine@@3U_GUID@@B 1003ebe0     DlgMatchWizard.obj
 0002:00000bf0       ?IID_IUDPNetworkEngine@@3U_GUID@@B 1003ebf0     DlgMatchWizard.obj
 0002:00000c00       ?IID_ITCPNetworkEngine@@3U_GUID@@B 1003ec00     DlgMatchWizard.obj
 0002:00000c10       ?IID_ITCPSocketService@@3U_GUID@@B 1003ec10     DlgMatchWizard.obj
 0002:00000c20       ?IID_IWEBSocketService@@3U_GUID@@B 1003ec20     DlgMatchWizard.obj
 0002:00000c30       ?IID_ITimerEngine@@3U_GUID@@B 1003ec30     DlgMatchWizard.obj
 0002:00000c40       ?IID_IAttemperEngine@@3U_GUID@@B 1003ec40     DlgMatchWizard.obj
 0002:00000c50       ?IID_IGameServiceManager@@3U_GUID@@B 1003ec50     DlgMatchWizard.obj
 0002:00000c60       ?IID_IAndroidUserItemSink@@3U_GUID@@B 1003ec60     DlgMatchWizard.obj
 0002:00000c70       ?_messageEntries@?1??GetThisMessageMap@CDlgMatchItem@@KGPBUAFX_MSGMAP@@XZ@4QBUAFX_MSGMAP_ENTRY@@B 1003ec70     DlgMatchWizard.obj
 0002:00000ca0       ?messageMap@?1??GetThisMessageMap@CDlgMatchItem@@KGPBUAFX_MSGMAP@@XZ@4U3@B 1003eca0     DlgMatchWizard.obj
 0002:00000ca8       ?_messageEntries@?1??GetThisMessageMap@CDlgMatchWizardItem@@KGPBUAFX_MSGMAP@@XZ@4QBUAFX_MSGMAP_ENTRY@@B 1003eca8     DlgMatchWizard.obj
 0002:00000cd8       ?messageMap@?1??GetThisMessageMap@CDlgMatchWizardItem@@KGPBUAFX_MSGMAP@@XZ@4U3@B 1003ecd8     DlgMatchWizard.obj
 0002:00000ce0       ?_messageEntries@?1??GetThisMessageMap@CDlgMatchSignup1@@KGPBUAFX_MSGMAP@@XZ@4QBUAFX_MSGMAP_ENTRY@@B 1003ece0     DlgMatchWizard.obj
 0002:00000d10       ?messageMap@?1??GetThisMessageMap@CDlgMatchSignup1@@KGPBUAFX_MSGMAP@@XZ@4U3@B 1003ed10     DlgMatchWizard.obj
 0002:00000d18       ?_messageEntries@?1??GetThisMessageMap@CDlgMatchReward@@KGPBUAFX_MSGMAP@@XZ@4QBUAFX_MSGMAP_ENTRY@@B 1003ed18     DlgMatchWizard.obj
 0002:00000d90       ?messageMap@?1??GetThisMessageMap@CDlgMatchReward@@KGPBUAFX_MSGMAP@@XZ@4U3@B 1003ed90     DlgMatchWizard.obj
 0002:00000d98       ?_messageEntries@?1??GetThisMessageMap@CDlgMatchWizardStep1@@KGPBUAFX_MSGMAP@@XZ@4QBUAFX_MSGMAP_ENTRY@@B 1003ed98     DlgMatchWizard.obj
 0002:00000de0       ?messageMap@?1??GetThisMessageMap@CDlgMatchWizardStep1@@KGPBUAFX_MSGMAP@@XZ@4U3@B 1003ede0     DlgMatchWizard.obj
 0002:00000de8       ?_messageEntries@?1??GetThisMessageMap@CDlgMatchWizard@@KGPBUAFX_MSGMAP@@XZ@4QBUAFX_MSGMAP_ENTRY@@B 1003ede8     DlgMatchWizard.obj
 0002:00000e48       ?messageMap@?1??GetThisMessageMap@CDlgMatchWizard@@KGPBUAFX_MSGMAP@@XZ@4U3@B 1003ee48     DlgMatchWizard.obj
 0002:000032f0       ?IID_ITraceServiceManager@@3U_GUID@@B 100412f0     DlgServerItem.obj
 0002:00003300       ?IID_IAsynchronismEngine@@3U_GUID@@B 10041300     DlgServerItem.obj
 0002:00003310       ?IID_IDataBase@@3U_GUID@@B 10041310     DlgServerItem.obj
 0002:00003320       ?IID_IDataBaseEngine@@3U_GUID@@B 10041320     DlgServerItem.obj
 0002:00003330       ?IID_IUDPNetworkEngine@@3U_GUID@@B 10041330     DlgServerItem.obj
 0002:00003340       ?IID_ITCPNetworkEngine@@3U_GUID@@B 10041340     DlgServerItem.obj
 0002:00003350       ?IID_ITCPSocketService@@3U_GUID@@B 10041350     DlgServerItem.obj
 0002:00003360       ?IID_IWEBSocketService@@3U_GUID@@B 10041360     DlgServerItem.obj
 0002:00003370       ?IID_ITimerEngine@@3U_GUID@@B 10041370     DlgServerItem.obj
 0002:00003380       ?IID_IAttemperEngine@@3U_GUID@@B 10041380     DlgServerItem.obj
 0002:00003390       ?IID_IGameServiceManager@@3U_GUID@@B 10041390     DlgServerItem.obj
 0002:000033a0       ?IID_IAndroidUserItemSink@@3U_GUID@@B 100413a0     DlgServerItem.obj
 0002:000033b0       ?_messageEntries@?1??GetThisMessageMap@CDlgServerItem@@KGPBUAFX_MSGMAP@@XZ@4QBUAFX_MSGMAP_ENTRY@@B 100413b0     DlgServerItem.obj
 0002:00003458       ?messageMap@?1??GetThisMessageMap@CDlgServerItem@@KGPBUAFX_MSGMAP@@XZ@4U3@B 10041458     DlgServerItem.obj
 0002:000039b8       ?IID_ITraceServiceManager@@3U_GUID@@B 100419b8     DlgServerMatch.obj
 0002:000039c8       ?IID_IAsynchronismEngine@@3U_GUID@@B 100419c8     DlgServerMatch.obj
 0002:000039d8       ?IID_IDataBase@@3U_GUID@@B 100419d8     DlgServerMatch.obj
 0002:000039e8       ?IID_IDataBaseEngine@@3U_GUID@@B 100419e8     DlgServerMatch.obj
 0002:000039f8       ?IID_IUDPNetworkEngine@@3U_GUID@@B 100419f8     DlgServerMatch.obj
 0002:00003a08       ?IID_ITCPNetworkEngine@@3U_GUID@@B 10041a08     DlgServerMatch.obj
 0002:00003a18       ?IID_ITCPSocketService@@3U_GUID@@B 10041a18     DlgServerMatch.obj
 0002:00003a28       ?IID_IWEBSocketService@@3U_GUID@@B 10041a28     DlgServerMatch.obj
 0002:00003a38       ?IID_ITimerEngine@@3U_GUID@@B 10041a38     DlgServerMatch.obj
 0002:00003a48       ?IID_IAttemperEngine@@3U_GUID@@B 10041a48     DlgServerMatch.obj
 0002:00003a58       ?IID_IGameServiceManager@@3U_GUID@@B 10041a58     DlgServerMatch.obj
 0002:00003a68       ?IID_IAndroidUserItemSink@@3U_GUID@@B 10041a68     DlgServerMatch.obj
 0002:00003a78       ?_messageEntries@?1??GetThisMessageMap@CDlgServerMatch@@KGPBUAFX_MSGMAP@@XZ@4QBUAFX_MSGMAP_ENTRY@@B 10041a78     DlgServerMatch.obj
 0002:00003b20       ?messageMap@?1??GetThisMessageMap@CDlgServerMatch@@KGPBUAFX_MSGMAP@@XZ@4U3@B 10041b20     DlgServerMatch.obj
 0002:00003e70       ?szTreasureDB@@3QBDB       10041e70     DlgServerWizard.obj
 0002:00003e80       ?szGameMatchDB@@3QBDB      10041e80     DlgServerWizard.obj
 0002:00003e90       ?szGameScoreDB@@3QBDB      10041e90     DlgServerWizard.obj
 0002:00003ea0       ?IID_ITraceServiceManager@@3U_GUID@@B 10041ea0     DlgServerWizard.obj
 0002:00003eb0       ?IID_IAsynchronismEngine@@3U_GUID@@B 10041eb0     DlgServerWizard.obj
 0002:00003ec0       ?IID_IDataBase@@3U_GUID@@B 10041ec0     DlgServerWizard.obj
 0002:00003ed0       ?IID_IDataBaseEngine@@3U_GUID@@B 10041ed0     DlgServerWizard.obj
 0002:00003ee0       ?IID_IUDPNetworkEngine@@3U_GUID@@B 10041ee0     DlgServerWizard.obj
 0002:00003ef0       ?IID_ITCPNetworkEngine@@3U_GUID@@B 10041ef0     DlgServerWizard.obj
 0002:00003f00       ?IID_ITCPSocketService@@3U_GUID@@B 10041f00     DlgServerWizard.obj
 0002:00003f10       ?IID_IWEBSocketService@@3U_GUID@@B 10041f10     DlgServerWizard.obj
 0002:00003f20       ?IID_ITimerEngine@@3U_GUID@@B 10041f20     DlgServerWizard.obj
 0002:00003f30       ?IID_IAttemperEngine@@3U_GUID@@B 10041f30     DlgServerWizard.obj
 0002:00003f40       ?IID_IGameServiceManager@@3U_GUID@@B 10041f40     DlgServerWizard.obj
 0002:00003f50       ?IID_IGameServiceCustomRule@@3U_GUID@@B 10041f50     DlgServerWizard.obj
 0002:00003f60       ?IID_IGameServicePersonalRule@@3U_GUID@@B 10041f60     DlgServerWizard.obj
 0002:00003f70       ?IID_IAndroidUserItemSink@@3U_GUID@@B 10041f70     DlgServerWizard.obj
 0002:00003f80       ?_messageEntries@?1??GetThisMessageMap@CDlgServerOptionItem@@KGPBUAFX_MSGMAP@@XZ@4QBUAFX_MSGMAP_ENTRY@@B 10041f80     DlgServerWizard.obj
 0002:00003fb0       ?messageMap@?1??GetThisMessageMap@CDlgServerOptionItem@@KGPBUAFX_MSGMAP@@XZ@4U3@B 10041fb0     DlgServerWizard.obj
 0002:00003fb8       ?_messageEntries@?1??GetThisMessageMap@CDlgServerWizardItem@@KGPBUAFX_MSGMAP@@XZ@4QBUAFX_MSGMAP_ENTRY@@B 10041fb8     DlgServerWizard.obj
 0002:00003fe8       ?messageMap@?1??GetThisMessageMap@CDlgServerWizardItem@@KGPBUAFX_MSGMAP@@XZ@4U3@B 10041fe8     DlgServerWizard.obj
 0002:00003ff0       ?_messageEntries@?1??GetThisMessageMap@CDlgServerOptionItem1@@KGPBUAFX_MSGMAP@@XZ@4QBUAFX_MSGMAP_ENTRY@@B 10041ff0     DlgServerWizard.obj
 0002:00004080       ?messageMap@?1??GetThisMessageMap@CDlgServerOptionItem1@@KGPBUAFX_MSGMAP@@XZ@4U3@B 10042080     DlgServerWizard.obj
 0002:00004088       ?_messageEntries@?1??GetThisMessageMap@CDlgServerOptionItem2@@KGPBUAFX_MSGMAP@@XZ@4QBUAFX_MSGMAP_ENTRY@@B 10042088     DlgServerWizard.obj
 0002:000040a0       ?messageMap@?1??GetThisMessageMap@CDlgServerOptionItem2@@KGPBUAFX_MSGMAP@@XZ@4U3@B 100420a0     DlgServerWizard.obj
 0002:000040a8       ?_messageEntries@?1??GetThisMessageMap@CDlgServerOptionItem3@@KGPBUAFX_MSGMAP@@XZ@4QBUAFX_MSGMAP_ENTRY@@B 100420a8     DlgServerWizard.obj
 0002:000040c0       ?messageMap@?1??GetThisMessageMap@CDlgServerOptionItem3@@KGPBUAFX_MSGMAP@@XZ@4U3@B 100420c0     DlgServerWizard.obj
 0002:000040c8       ?_messageEntries@?1??GetThisMessageMap@CDlgServerOptionItemCustom@@KGPBUAFX_MSGMAP@@XZ@4QBUAFX_MSGMAP_ENTRY@@B 100420c8     DlgServerWizard.obj
 0002:00004110       ?messageMap@?1??GetThisMessageMap@CDlgServerOptionItemCustom@@KGPBUAFX_MSGMAP@@XZ@4U3@B 10042110     DlgServerWizard.obj
 0002:00004118       ?_messageEntries@?1??GetThisMessageMap@CDlgServerOptionItemPersonal@@KGPBUAFX_MSGMAP@@XZ@4QBUAFX_MSGMAP_ENTRY@@B 10042118     DlgServerWizard.obj
 0002:00004160       ?messageMap@?1??GetThisMessageMap@CDlgServerOptionItemPersonal@@KGPBUAFX_MSGMAP@@XZ@4U3@B 10042160     DlgServerWizard.obj
 0002:00004168       ?_messageEntries@?1??GetThisMessageMap@CDlgServerWizardItem1@@KGPBUAFX_MSGMAP@@XZ@4QBUAFX_MSGMAP_ENTRY@@B 10042168     DlgServerWizard.obj
 0002:00004198       ?messageMap@?1??GetThisMessageMap@CDlgServerWizardItem1@@KGPBUAFX_MSGMAP@@XZ@4U3@B 10042198     DlgServerWizard.obj
 0002:000041a0       ?_messageEntries@?1??GetThisMessageMap@CDlgServerWizardItem2@@KGPBUAFX_MSGMAP@@XZ@4QBUAFX_MSGMAP_ENTRY@@B 100421a0     DlgServerWizard.obj
 0002:000041e8       ?messageMap@?1??GetThisMessageMap@CDlgServerWizardItem2@@KGPBUAFX_MSGMAP@@XZ@4U3@B 100421e8     DlgServerWizard.obj
 0002:000041f0       ?_messageEntries@?1??GetThisMessageMap@CDlgServerOptionItem5@@KGPBUAFX_MSGMAP@@XZ@4QBUAFX_MSGMAP_ENTRY@@B 100421f0     DlgServerWizard.obj
 0002:000042b0       ?messageMap@?1??GetThisMessageMap@CDlgServerOptionItem5@@KGPBUAFX_MSGMAP@@XZ@4U3@B 100422b0     DlgServerWizard.obj
 0002:000042b8       ?_messageEntries@?1??GetThisMessageMap@CDlgServerWizard@@KGPBUAFX_MSGMAP@@XZ@4QBUAFX_MSGMAP_ENTRY@@B 100422b8     DlgServerWizard.obj
 0002:00004318       ?messageMap@?1??GetThisMessageMap@CDlgServerWizard@@KGPBUAFX_MSGMAP@@XZ@4U3@B 10042318     DlgServerWizard.obj
 0002:00006640       ?IID_ITraceServiceManager@@3U_GUID@@B 10044640     ListControl.obj
 0002:00006650       ?IID_IAsynchronismEngine@@3U_GUID@@B 10044650     ListControl.obj
 0002:00006660       ?IID_IDataBase@@3U_GUID@@B 10044660     ListControl.obj
 0002:00006670       ?IID_IDataBaseEngine@@3U_GUID@@B 10044670     ListControl.obj
 0002:00006680       ?IID_IUDPNetworkEngine@@3U_GUID@@B 10044680     ListControl.obj
 0002:00006690       ?IID_ITCPNetworkEngine@@3U_GUID@@B 10044690     ListControl.obj
 0002:000066a0       ?IID_ITCPSocketService@@3U_GUID@@B 100446a0     ListControl.obj
 0002:000066b0       ?IID_IWEBSocketService@@3U_GUID@@B 100446b0     ListControl.obj
 0002:000066c0       ?IID_ITimerEngine@@3U_GUID@@B 100446c0     ListControl.obj
 0002:000066d0       ?IID_IAttemperEngine@@3U_GUID@@B 100446d0     ListControl.obj
 0002:000066e0       ?IID_IGameServiceManager@@3U_GUID@@B 100446e0     ListControl.obj
 0002:000066f0       ?IID_IAndroidUserItemSink@@3U_GUID@@B 100446f0     ListControl.obj
 0002:00006700       ?_messageEntries@?1??GetThisMessageMap@CListHeaderCtrl@@KGPBUAFX_MSGMAP@@XZ@4QBUAFX_MSGMAP_ENTRY@@B 10044700     ListControl.obj
 0002:00006730       ?messageMap@?1??GetThisMessageMap@CListHeaderCtrl@@KGPBUAFX_MSGMAP@@XZ@4U3@B 10044730     ListControl.obj
 0002:00006738       ?_messageEntries@?1??GetThisMessageMap@CListControl@@KGPBUAFX_MSGMAP@@XZ@4QBUAFX_MSGMAP_ENTRY@@B 10044738     ListControl.obj
 0002:00006780       ?messageMap@?1??GetThisMessageMap@CListControl@@KGPBUAFX_MSGMAP@@XZ@4U3@B 10044780     ListControl.obj
 0002:00006b60       ?IID_ITraceServiceManager@@3U_GUID@@B 10044b60     MatchInfoManager.obj
 0002:00006b70       ?IID_IAsynchronismEngine@@3U_GUID@@B 10044b70     MatchInfoManager.obj
 0002:00006b80       ?IID_IDataBase@@3U_GUID@@B 10044b80     MatchInfoManager.obj
 0002:00006b90       ?IID_IDataBaseEngine@@3U_GUID@@B 10044b90     MatchInfoManager.obj
 0002:00006ba0       ?IID_IUDPNetworkEngine@@3U_GUID@@B 10044ba0     MatchInfoManager.obj
 0002:00006bb0       ?IID_ITCPNetworkEngine@@3U_GUID@@B 10044bb0     MatchInfoManager.obj
 0002:00006bc0       ?IID_ITCPSocketService@@3U_GUID@@B 10044bc0     MatchInfoManager.obj
 0002:00006bd0       ?IID_IWEBSocketService@@3U_GUID@@B 10044bd0     MatchInfoManager.obj
 0002:00006be0       ?IID_ITimerEngine@@3U_GUID@@B 10044be0     MatchInfoManager.obj
 0002:00006bf0       ?IID_IAttemperEngine@@3U_GUID@@B 10044bf0     MatchInfoManager.obj
 0002:00006c00       ?IID_IGameServiceManager@@3U_GUID@@B 10044c00     MatchInfoManager.obj
 0002:00006c10       ?IID_IAndroidUserItemSink@@3U_GUID@@B 10044c10     MatchInfoManager.obj
 0002:00007208       ?IID_ITraceServiceManager@@3U_GUID@@B 10045208     MatchListControl.obj
 0002:00007218       ?IID_IAsynchronismEngine@@3U_GUID@@B 10045218     MatchListControl.obj
 0002:00007228       ?IID_IDataBase@@3U_GUID@@B 10045228     MatchListControl.obj
 0002:00007238       ?IID_IDataBaseEngine@@3U_GUID@@B 10045238     MatchListControl.obj
 0002:00007248       ?IID_IUDPNetworkEngine@@3U_GUID@@B 10045248     MatchListControl.obj
 0002:00007258       ?IID_ITCPNetworkEngine@@3U_GUID@@B 10045258     MatchListControl.obj
 0002:00007268       ?IID_ITCPSocketService@@3U_GUID@@B 10045268     MatchListControl.obj
 0002:00007278       ?IID_IWEBSocketService@@3U_GUID@@B 10045278     MatchListControl.obj
 0002:00007288       ?IID_ITimerEngine@@3U_GUID@@B 10045288     MatchListControl.obj
 0002:00007298       ?IID_IAttemperEngine@@3U_GUID@@B 10045298     MatchListControl.obj
 0002:000072a8       ?IID_IGameServiceManager@@3U_GUID@@B 100452a8     MatchListControl.obj
 0002:000072b8       ?IID_IAndroidUserItemSink@@3U_GUID@@B 100452b8     MatchListControl.obj
 0002:00007758       ?IID_ITraceServiceManager@@3U_GUID@@B 10045758     ModuleDBParameter.obj
 0002:00007768       ?IID_IAsynchronismEngine@@3U_GUID@@B 10045768     ModuleDBParameter.obj
 0002:00007778       ?IID_IDataBase@@3U_GUID@@B 10045778     ModuleDBParameter.obj
 0002:00007788       ?IID_IDataBaseEngine@@3U_GUID@@B 10045788     ModuleDBParameter.obj
 0002:00007798       ?IID_IUDPNetworkEngine@@3U_GUID@@B 10045798     ModuleDBParameter.obj
 0002:000077a8       ?IID_ITCPNetworkEngine@@3U_GUID@@B 100457a8     ModuleDBParameter.obj
 0002:000077b8       ?IID_ITCPSocketService@@3U_GUID@@B 100457b8     ModuleDBParameter.obj
 0002:000077c8       ?IID_IWEBSocketService@@3U_GUID@@B 100457c8     ModuleDBParameter.obj
 0002:000077d8       ?IID_ITimerEngine@@3U_GUID@@B 100457d8     ModuleDBParameter.obj
 0002:000077e8       ?IID_IAttemperEngine@@3U_GUID@@B 100457e8     ModuleDBParameter.obj
 0002:000077f8       ?IID_IGameServiceManager@@3U_GUID@@B 100457f8     ModuleDBParameter.obj
 0002:00007808       ?IID_IAndroidUserItemSink@@3U_GUID@@B 10045808     ModuleDBParameter.obj
 0002:000078a0       ?IID_ITraceServiceManager@@3U_GUID@@B 100458a0     ModuleInfoManager.obj
 0002:000078b0       ?IID_IAsynchronismEngine@@3U_GUID@@B 100458b0     ModuleInfoManager.obj
 0002:000078c0       ?IID_IDataBase@@3U_GUID@@B 100458c0     ModuleInfoManager.obj
 0002:000078d0       ?IID_IDataBaseEngine@@3U_GUID@@B 100458d0     ModuleInfoManager.obj
 0002:000078e0       ?IID_IUDPNetworkEngine@@3U_GUID@@B 100458e0     ModuleInfoManager.obj
 0002:000078f0       ?IID_ITCPNetworkEngine@@3U_GUID@@B 100458f0     ModuleInfoManager.obj
 0002:00007900       ?IID_ITCPSocketService@@3U_GUID@@B 10045900     ModuleInfoManager.obj
 0002:00007910       ?IID_IWEBSocketService@@3U_GUID@@B 10045910     ModuleInfoManager.obj
 0002:00007920       ?IID_ITimerEngine@@3U_GUID@@B 10045920     ModuleInfoManager.obj
 0002:00007930       ?IID_IAttemperEngine@@3U_GUID@@B 10045930     ModuleInfoManager.obj
 0002:00007940       ?IID_IGameServiceManager@@3U_GUID@@B 10045940     ModuleInfoManager.obj
 0002:00007950       ?IID_IAndroidUserItemSink@@3U_GUID@@B 10045950     ModuleInfoManager.obj
 0002:00007b10       ?IID_ITraceServiceManager@@3U_GUID@@B 10045b10     ModuleListControl.obj
 0002:00007b20       ?IID_IAsynchronismEngine@@3U_GUID@@B 10045b20     ModuleListControl.obj
 0002:00007b30       ?IID_IDataBase@@3U_GUID@@B 10045b30     ModuleListControl.obj
 0002:00007b40       ?IID_IDataBaseEngine@@3U_GUID@@B 10045b40     ModuleListControl.obj
 0002:00007b50       ?IID_IUDPNetworkEngine@@3U_GUID@@B 10045b50     ModuleListControl.obj
 0002:00007b60       ?IID_ITCPNetworkEngine@@3U_GUID@@B 10045b60     ModuleListControl.obj
 0002:00007b70       ?IID_ITCPSocketService@@3U_GUID@@B 10045b70     ModuleListControl.obj
 0002:00007b80       ?IID_IWEBSocketService@@3U_GUID@@B 10045b80     ModuleListControl.obj
 0002:00007b90       ?IID_ITimerEngine@@3U_GUID@@B 10045b90     ModuleListControl.obj
 0002:00007ba0       ?IID_IAttemperEngine@@3U_GUID@@B 10045ba0     ModuleListControl.obj
 0002:00007bb0       ?IID_IGameServiceManager@@3U_GUID@@B 10045bb0     ModuleListControl.obj
 0002:00007bc0       ?IID_IAndroidUserItemSink@@3U_GUID@@B 10045bc0     ModuleListControl.obj
 0002:00007e98       ?IID_ITraceServiceManager@@3U_GUID@@B 10045e98     ModuleManager.obj
 0002:00007ea8       ?IID_IAsynchronismEngine@@3U_GUID@@B 10045ea8     ModuleManager.obj
 0002:00007eb8       ?IID_IDataBase@@3U_GUID@@B 10045eb8     ModuleManager.obj
 0002:00007ec8       ?IID_IDataBaseEngine@@3U_GUID@@B 10045ec8     ModuleManager.obj
 0002:00007ed8       ?IID_IUDPNetworkEngine@@3U_GUID@@B 10045ed8     ModuleManager.obj
 0002:00007ee8       ?IID_ITCPNetworkEngine@@3U_GUID@@B 10045ee8     ModuleManager.obj
 0002:00007ef8       ?IID_ITCPSocketService@@3U_GUID@@B 10045ef8     ModuleManager.obj
 0002:00007f08       ?IID_IWEBSocketService@@3U_GUID@@B 10045f08     ModuleManager.obj
 0002:00007f18       ?IID_ITimerEngine@@3U_GUID@@B 10045f18     ModuleManager.obj
 0002:00007f28       ?IID_IAttemperEngine@@3U_GUID@@B 10045f28     ModuleManager.obj
 0002:00007f38       ?IID_IGameServiceManager@@3U_GUID@@B 10045f38     ModuleManager.obj
 0002:00007f48       ?IID_IAndroidUserItemSink@@3U_GUID@@B 10045f48     ModuleManager.obj
 0002:00007f80       ?IID_ITraceServiceManager@@3U_GUID@@B 10045f80     ServerCustomRule.obj
 0002:00007f90       ?IID_IAsynchronismEngine@@3U_GUID@@B 10045f90     ServerCustomRule.obj
 0002:00007fa0       ?IID_IDataBase@@3U_GUID@@B 10045fa0     ServerCustomRule.obj
 0002:00007fb0       ?IID_IDataBaseEngine@@3U_GUID@@B 10045fb0     ServerCustomRule.obj
 0002:00007fc0       ?IID_IUDPNetworkEngine@@3U_GUID@@B 10045fc0     ServerCustomRule.obj
 0002:00007fd0       ?IID_ITCPNetworkEngine@@3U_GUID@@B 10045fd0     ServerCustomRule.obj
 0002:00007fe0       ?IID_ITCPSocketService@@3U_GUID@@B 10045fe0     ServerCustomRule.obj
 0002:00007ff0       ?IID_IWEBSocketService@@3U_GUID@@B 10045ff0     ServerCustomRule.obj
 0002:00008000       ?IID_ITimerEngine@@3U_GUID@@B 10046000     ServerCustomRule.obj
 0002:00008010       ?IID_IAttemperEngine@@3U_GUID@@B 10046010     ServerCustomRule.obj
 0002:00008020       ?IID_IGameServiceManager@@3U_GUID@@B 10046020     ServerCustomRule.obj
 0002:00008030       ?IID_IAndroidUserItemSink@@3U_GUID@@B 10046030     ServerCustomRule.obj
 0002:00008074       ?IID_ITraceServiceManager@@3U_GUID@@B 10046074     ServerInfoManager.obj
 0002:00008084       ?IID_IAsynchronismEngine@@3U_GUID@@B 10046084     ServerInfoManager.obj
 0002:00008094       ?IID_IDataBase@@3U_GUID@@B 10046094     ServerInfoManager.obj
 0002:000080a4       ?IID_IDataBaseEngine@@3U_GUID@@B 100460a4     ServerInfoManager.obj
 0002:000080b4       ?IID_IUDPNetworkEngine@@3U_GUID@@B 100460b4     ServerInfoManager.obj
 0002:000080c4       ?IID_ITCPNetworkEngine@@3U_GUID@@B 100460c4     ServerInfoManager.obj
 0002:000080d4       ?IID_ITCPSocketService@@3U_GUID@@B 100460d4     ServerInfoManager.obj
 0002:000080e4       ?IID_IWEBSocketService@@3U_GUID@@B 100460e4     ServerInfoManager.obj
 0002:000080f4       ?IID_ITimerEngine@@3U_GUID@@B 100460f4     ServerInfoManager.obj
 0002:00008104       ?IID_IAttemperEngine@@3U_GUID@@B 10046104     ServerInfoManager.obj
 0002:00008114       ?IID_IGameServiceManager@@3U_GUID@@B 10046114     ServerInfoManager.obj
 0002:00008124       ?IID_IAndroidUserItemSink@@3U_GUID@@B 10046124     ServerInfoManager.obj
 0002:00008988       ?IID_ITraceServiceManager@@3U_GUID@@B 10046988     ServerListControl.obj
 0002:00008998       ?IID_IAsynchronismEngine@@3U_GUID@@B 10046998     ServerListControl.obj
 0002:000089a8       ?IID_IDataBase@@3U_GUID@@B 100469a8     ServerListControl.obj
 0002:000089b8       ?IID_IDataBaseEngine@@3U_GUID@@B 100469b8     ServerListControl.obj
 0002:000089c8       ?IID_IUDPNetworkEngine@@3U_GUID@@B 100469c8     ServerListControl.obj
 0002:000089d8       ?IID_ITCPNetworkEngine@@3U_GUID@@B 100469d8     ServerListControl.obj
 0002:000089e8       ?IID_ITCPSocketService@@3U_GUID@@B 100469e8     ServerListControl.obj
 0002:000089f8       ?IID_IWEBSocketService@@3U_GUID@@B 100469f8     ServerListControl.obj
 0002:00008a08       ?IID_ITimerEngine@@3U_GUID@@B 10046a08     ServerListControl.obj
 0002:00008a18       ?IID_IAttemperEngine@@3U_GUID@@B 10046a18     ServerListControl.obj
 0002:00008a28       ?IID_IGameServiceManager@@3U_GUID@@B 10046a28     ServerListControl.obj
 0002:00008a38       ?IID_IAndroidUserItemSink@@3U_GUID@@B 10046a38     ServerListControl.obj
 0002:0000c830       _GS_ExceptionPointers      1004a830     msvcrtd:gs_report.obj
 0002:0000c83c       ?_RTC_ErrorMessages@@3QBQBDB 1004a83c     msvcrtd:error.obj
 0002:0000c854       ?_RTC_NoFalsePositives@@3QBHB 1004a854     msvcrtd:error.obj
 0002:0000c86c       ?stack_premsg@@3QBDB       1004a86c     msvcrtd:error.obj
 0002:0000c888       ?stack_postmsg@@3QBDB      1004a888     msvcrtd:error.obj
 0002:0000c89c       ?uninit_premsg@@3QBDB      1004a89c     msvcrtd:error.obj
 0002:0000c8ac       ?uninit_postmsg@@3QBDB     1004a8ac     msvcrtd:error.obj
 0002:0000cef0       ?_RTC_errlist@@3QBQBDB     1004aef0     msvcrtd:userapi.obj
 0002:0000cfd4       ?mspdbName@@3QB_WB         1004afd4     msvcrtd:pdblkup.obj
 0002:0000cff8       ?debugCrtFileName@@3QB_WB  1004aff8     msvcrtd:pdblkup.obj
 0002:0000d188       ?dllExt@?1??GetPdbDllPathFromFilePath@@YAHPB_WPA_WI@Z@4QB_WB 1004b188     msvcrtd:pdblkup.obj
 0002:0000d194       ?mspdbFilename@?1??GetPdbDllPathFromFilePath@@YAHPB_WPA_WI@Z@4QB_WB 1004b194     msvcrtd:pdblkup.obj
 0002:0000f8a0       __RTC_InitBase.rtc$IMZ     1004d8a0     mfcs140d:nolib.obj
 0002:0000f8a4       __RTC_InitBase.rtc$IMZ     1004d8a4     mfcs140d:stdafx.obj
 0002:0000fbb4       __RTC_Shutdown.rtc$TMZ     1004dbb4     mfcs140d:nolib.obj
 0002:0000fbb8       __RTC_Shutdown.rtc$TMZ     1004dbb8     mfcs140d:stdafx.obj
 0002:0000fdc8       __unwindtable$?TraceV@CTrace@ATL@@SAXPBDHII0PAD@Z 1004ddc8     DlgMatchWizard.obj
 0002:0000fdd8       __ehfuncinfo$?TraceV@CTrace@ATL@@SAXPBDHII0PAD@Z 1004ddd8     DlgMatchWizard.obj
 0002:0000fe04       __unwindtable$??RCTraceFileAndLineInfo@ATL@@QBAXHIPBDZZ 1004de04     DlgMatchWizard.obj
 0002:0000fe0c       __ehfuncinfo$??RCTraceFileAndLineInfo@ATL@@QBAXHIPBDZZ 1004de0c     DlgMatchWizard.obj
 0002:0000fe34       __ehfuncinfo$??_ECMatchInfoBuffer@@UAEPAXI@Z 1004de34     DlgMatchWizard.obj
 0002:0000fe5c       __ehfuncinfo$??_ECRewardInfoBuffer@@UAEPAXI@Z 1004de5c     DlgMatchWizard.obj
 0002:0000fe84       __ehfuncinfo$??_ECMatchInfoManager@@UAEPAXI@Z 1004de84     DlgMatchWizard.obj
 0002:0000feac       __ehfuncinfo$??_ECDlgMatchItem@@MAEPAXI@Z 1004deac     DlgMatchWizard.obj
 0002:0000fed4       __ehfuncinfo$??_ECDlgMatchSignup1@@UAEPAXI@Z 1004ded4     DlgMatchWizard.obj
 0002:0000fefc       __ehfuncinfo$??_ECDlgMatchSignup2@@UAEPAXI@Z 1004defc     DlgMatchWizard.obj
 0002:0000ff24       __ehfuncinfo$??_ECDlgMatchDistribute@@UAEPAXI@Z 1004df24     DlgMatchWizard.obj
 0002:0000ff4c       __ehfuncinfo$??_ECDlgMatchRankingMode@@UAEPAXI@Z 1004df4c     DlgMatchWizard.obj
 0002:0000ff74       __unwindtable$??0CDlgMatchReward@@QAE@XZ 1004df74     DlgMatchWizard.obj
 0002:0000ff7c       __ehfuncinfo$??0CDlgMatchReward@@QAE@XZ 1004df7c     DlgMatchWizard.obj
 0002:0000ffa4       __ehfuncinfo$??_ECDlgMatchReward@@UAEPAXI@Z 1004dfa4     DlgMatchWizard.obj
 0002:0000ffcc       __ehfuncinfo$??_ECDlgMatchLockTime@@UAEPAXI@Z 1004dfcc     DlgMatchWizard.obj
 0002:0000fff4       __ehfuncinfo$??_ECDlgMatchImmediate@@UAEPAXI@Z 1004dff4     DlgMatchWizard.obj
 0002:0001001c       __ehfuncinfo$??_ECDlgMatchWizardItem@@MAEPAXI@Z 1004e01c     DlgMatchWizard.obj
 0002:00010044       __ehfuncinfo$??0CDlgMatchWizardStep1@@QAE@XZ 1004e044     DlgMatchWizard.obj
 0002:00010068       __unwindtable$??0CDlgMatchWizardStep1@@QAE@XZ 1004e068     DlgMatchWizard.obj
 0002:00010098       __ehfuncinfo$??_ECDlgMatchWizardStep1@@UAEPAXI@Z 1004e098     DlgMatchWizard.obj
 0002:000100c0       __unwindtable$??0CDlgMatchWizardStep2@@QAE@XZ 1004e0c0     DlgMatchWizard.obj
 0002:000100d0       __ehfuncinfo$??0CDlgMatchWizardStep2@@QAE@XZ 1004e0d0     DlgMatchWizard.obj
 0002:000100fc       __ehfuncinfo$??_ECDlgMatchWizardStep2@@UAEPAXI@Z 1004e0fc     DlgMatchWizard.obj
 0002:00010124       __ehfuncinfo$??0CDlgMatchWizard@@QAE@XZ 1004e124     DlgMatchWizard.obj
 0002:00010148       __unwindtable$??0CDlgMatchWizard@@QAE@XZ 1004e148     DlgMatchWizard.obj
 0002:00010178       __unwindtable$?OnInitDialog@CDlgMatchWizard@@UAEHXZ 1004e178     DlgMatchWizard.obj
 0002:00010180       __ehfuncinfo$?OnInitDialog@CDlgMatchWizard@@UAEHXZ 1004e180     DlgMatchWizard.obj
 0002:000101a8       __unwindtable$?TransferMatchReward@CDlgMatchWizard@@AAEXAAV?$CStringT@DV?$StrTraitMFC_DLL@DV?$ChTraitsCRT@D@ATL@@@@@ATL@@00@Z 1004e1a8     DlgMatchWizard.obj
 0002:000101b0       __ehfuncinfo$?TransferMatchReward@CDlgMatchWizard@@AAEXAAV?$CStringT@DV?$StrTraitMFC_DLL@DV?$ChTraitsCRT@D@ATL@@@@@ATL@@00@Z 1004e1b0     DlgMatchWizard.obj
 0002:000101d8       __unwindtable$?OnBnClickedFinish@CDlgMatchWizard@@QAEXXZ 1004e1d8     DlgMatchWizard.obj
 0002:000101f8       __ehfuncinfo$?OnBnClickedFinish@CDlgMatchWizard@@QAEXXZ 1004e1f8     DlgMatchWizard.obj
 0002:00010224       __ehfuncinfo$??_ECDlgMatchWizard@@UAEPAXI@Z 1004e224     DlgMatchWizard.obj
 0002:0001024c       __ehfuncinfo$??1?$CTempldateHelper@UIGameServiceManager@@@@UAE@XZ 1004e24c     DlgServerItem.obj
 0002:00010274       __unwindtable$?CreateInstance@?$CTempldateHelper@UIGameServiceManager@@@@QAE_NXZ 1004e274     DlgServerItem.obj
 0002:00010284       __tryblocktable$?CreateInstance@?$CTempldateHelper@UIGameServiceManager@@@@QAE_NXZ 1004e284     DlgServerItem.obj
 0002:00010298       __catchsym$?CreateInstance@?$CTempldateHelper@UIGameServiceManager@@@@QAE_NXZ$3 1004e298     DlgServerItem.obj
 0002:000102b8       __ehfuncinfo$?CreateInstance@?$CTempldateHelper@UIGameServiceManager@@@@QAE_NXZ 1004e2b8     DlgServerItem.obj
 0002:000102e8       __ehfuncinfo$??_ECMatchOptionBuffer@@UAEPAXI@Z 1004e2e8     DlgServerItem.obj
 0002:00010310       __ehfuncinfo$??_ECServerInfoManager@@UAEPAXI@Z 1004e310     DlgServerItem.obj
 0002:00010338       __unwindtable$??0CDlgServerItem@@QAE@XZ 1004e338     DlgServerItem.obj
 0002:00010350       __ehfuncinfo$??0CDlgServerItem@@QAE@XZ 1004e350     DlgServerItem.obj
 0002:0001037c       __unwindtable$?OpenGameServer@CDlgServerItem@@QAE_NG@Z 1004e37c     DlgServerItem.obj
 0002:00010384       __ehfuncinfo$?OpenGameServer@CDlgServerItem@@QAE_NG@Z 1004e384     DlgServerItem.obj
 0002:000103ac       __unwindtable$?LoadPersonalRoomPatameter@CDlgServerItem@@QAE_NG@Z 1004e3ac     DlgServerItem.obj
 0002:000103b4       __ehfuncinfo$?LoadPersonalRoomPatameter@CDlgServerItem@@QAE_NG@Z 1004e3b4     DlgServerItem.obj
 0002:000103dc       __unwindtable$?LoadDBServerItem@CDlgServerItem@@IAE_NXZ 1004e3dc     DlgServerItem.obj
 0002:000103e4       __ehfuncinfo$?LoadDBServerItem@CDlgServerItem@@IAE_NXZ 1004e3e4     DlgServerItem.obj
 0002:0001040c       __unwindtable$?GetModuleInitParameter@CDlgServerItem@@IAE_NPAUtagGameServerInfo@@_N@Z 1004e40c     DlgServerItem.obj
 0002:00010414       __ehfuncinfo$?GetModuleInitParameter@CDlgServerItem@@IAE_NPAUtagGameServerInfo@@_N@Z 1004e414     DlgServerItem.obj
 0002:0001043c       __unwindtable$?OnBnClickedDeleteServer@CDlgServerItem@@IAEXXZ 1004e43c     DlgServerItem.obj
 0002:00010444       __ehfuncinfo$?OnBnClickedDeleteServer@CDlgServerItem@@IAEXXZ 1004e444     DlgServerItem.obj
 0002:0001046c       __ehfuncinfo$??_ECDlgServerItem@@UAEPAXI@Z 1004e46c     DlgServerItem.obj
 0002:00010494       __ehfuncinfo$??1?$CTempldateHelper@UIDataBase@@@@UAE@XZ 1004e494     DlgServerMatch.obj
 0002:000104bc       __unwindtable$?CreateInstance@?$CTempldateHelper@UIDataBase@@@@QAE_NXZ 1004e4bc     DlgServerMatch.obj
 0002:000104cc       __tryblocktable$?CreateInstance@?$CTempldateHelper@UIDataBase@@@@QAE_NXZ 1004e4cc     DlgServerMatch.obj
 0002:000104e0       __catchsym$?CreateInstance@?$CTempldateHelper@UIDataBase@@@@QAE_NXZ$3 1004e4e0     DlgServerMatch.obj
 0002:00010500       __ehfuncinfo$?CreateInstance@?$CTempldateHelper@UIDataBase@@@@QAE_NXZ 1004e500     DlgServerMatch.obj
 0002:00010530       __unwindtable$??0CDlgServerMatch@@QAE@XZ 1004e530     DlgServerMatch.obj
 0002:00010540       __ehfuncinfo$??0CDlgServerMatch@@QAE@XZ 1004e540     DlgServerMatch.obj
 0002:0001056c       __unwindtable$?LoadDBMatchItem@CDlgServerMatch@@IAE_NXZ 1004e56c     DlgServerMatch.obj
 0002:00010574       __ehfuncinfo$?LoadDBMatchItem@CDlgServerMatch@@IAE_NXZ 1004e574     DlgServerMatch.obj
 0002:0001059c       __catchsym$?QueryMatchDataBase@CDlgServerMatch@@IAE_NXZ$4 1004e59c     DlgServerMatch.obj
 0002:000105ac       __tryblocktable$?QueryMatchDataBase@CDlgServerMatch@@IAE_NXZ 1004e5ac     DlgServerMatch.obj
 0002:000105c0       __unwindtable$?QueryMatchDataBase@CDlgServerMatch@@IAE_NXZ 1004e5c0     DlgServerMatch.obj
 0002:000105e0       __ehfuncinfo$?QueryMatchDataBase@CDlgServerMatch@@IAE_NXZ 1004e5e0     DlgServerMatch.obj
 0002:00010610       __unwindtable$?OnBnClickedOptionMatch@CDlgServerMatch@@IAEXXZ 1004e610     DlgServerMatch.obj
 0002:00010618       __ehfuncinfo$?OnBnClickedOptionMatch@CDlgServerMatch@@IAEXXZ 1004e618     DlgServerMatch.obj
 0002:00010640       __unwindtable$?OnBnClickedDeleteMatch@CDlgServerMatch@@IAEXXZ 1004e640     DlgServerMatch.obj
 0002:00010648       __ehfuncinfo$?OnBnClickedDeleteMatch@CDlgServerMatch@@IAEXXZ 1004e648     DlgServerMatch.obj
 0002:00010670       __unwindtable$?OnBnClickedCreateMatch@CDlgServerMatch@@IAEXXZ 1004e670     DlgServerMatch.obj
 0002:00010678       __ehfuncinfo$?OnBnClickedCreateMatch@CDlgServerMatch@@IAEXXZ 1004e678     DlgServerMatch.obj
 0002:000106a0       __ehfuncinfo$??_ECDlgServerMatch@@UAEPAXI@Z 1004e6a0     DlgServerMatch.obj
 0002:000106c8       __ehfuncinfo$??_ECModuleDBParameter@@UAEPAXI@Z 1004e6c8     DlgServerMatch.obj
 0002:000106f0       __ehfuncinfo$??_ECModuleInfoManager@@UAEPAXI@Z 1004e6f0     DlgServerWizard.obj
 0002:00010718       __unwindtable$??0CDlgServerOptionItem@@IAE@I@Z 1004e718     DlgServerWizard.obj
 0002:00010720       __ehfuncinfo$??0CDlgServerOptionItem@@IAE@I@Z 1004e720     DlgServerWizard.obj
 0002:00010748       __ehfuncinfo$??_ECDlgServerOptionItem@@MAEPAXI@Z 1004e748     DlgServerWizard.obj
 0002:00010770       __ehfuncinfo$??_ECDlgServerOptionItem1@@UAEPAXI@Z 1004e770     DlgServerWizard.obj
 0002:00010798       __ehfuncinfo$??_ECDlgServerOptionItem2@@UAEPAXI@Z 1004e798     DlgServerWizard.obj
 0002:000107c0       __ehfuncinfo$??_ECDlgServerOptionItem3@@UAEPAXI@Z 1004e7c0     DlgServerWizard.obj
 0002:000107e8       __unwindtable$?GetPersonalRoomInfo@CDlgServerOptionItem5@@QAE_NK@Z 1004e7e8     DlgServerWizard.obj
 0002:000107f0       __ehfuncinfo$?GetPersonalRoomInfo@CDlgServerOptionItem5@@QAE_NK@Z 1004e7f0     DlgServerWizard.obj
 0002:00010818       __ehfuncinfo$??_ECDlgServerOptionItem5@@UAEPAXI@Z 1004e818     DlgServerWizard.obj
 0002:00010840       __ehfuncinfo$??_ECDlgServerOptionItemCustom@@UAEPAXI@Z 1004e840     DlgServerWizard.obj
 0002:00010868       __ehfuncinfo$??_ECDlgServerOptionItemPersonal@@UAEPAXI@Z 1004e868     DlgServerWizard.obj
 0002:00010890       __ehfuncinfo$??_ECDlgServerWizardItem@@MAEPAXI@Z 1004e890     DlgServerWizard.obj
 0002:000108b8       __ehfuncinfo$??0CDlgServerWizardItem1@@QAE@XZ 1004e8b8     DlgServerWizard.obj
 0002:000108dc       __unwindtable$??0CDlgServerWizardItem1@@QAE@XZ 1004e8dc     DlgServerWizard.obj
 0002:0001090c       __ehfuncinfo$??_ECDlgServerWizardItem1@@UAEPAXI@Z 1004e90c     DlgServerWizard.obj
 0002:00010934       __ehfuncinfo$??0CDlgServerWizardItem2@@QAE@XZ 1004e934     DlgServerWizard.obj
 0002:00010958       __unwindtable$??0CDlgServerWizardItem2@@QAE@XZ 1004e958     DlgServerWizard.obj
 0002:0001099c       __unwindtable$?OnInitDialog@CDlgServerWizardItem2@@MAEHXZ 1004e99c     DlgServerWizard.obj
 0002:000109a4       __ehfuncinfo$?OnInitDialog@CDlgServerWizardItem2@@MAEHXZ 1004e9a4     DlgServerWizard.obj
 0002:000109cc       __ehfuncinfo$??_ECDlgServerWizardItem2@@UAEPAXI@Z 1004e9cc     DlgServerWizard.obj
 0002:000109f4       __unwindtable$??0CDlgServerWizard@@QAE@XZ 1004e9f4     DlgServerWizard.obj
 0002:00010a04       __ehfuncinfo$??0CDlgServerWizard@@QAE@XZ 1004ea04     DlgServerWizard.obj
 0002:00010a30       __unwindtable$?OnBnClickedFinish@CDlgServerWizard@@QAEXXZ 1004ea30     DlgServerWizard.obj
 0002:00010a38       __ehfuncinfo$?OnBnClickedFinish@CDlgServerWizard@@QAEXXZ 1004ea38     DlgServerWizard.obj
 0002:00010a60       __unwindtable$?SaveData@CDlgServerWizard@@QAEXXZ 1004ea60     DlgServerWizard.obj
 0002:00010a78       __ehfuncinfo$?SaveData@CDlgServerWizard@@QAEXXZ 1004ea78     DlgServerWizard.obj
 0002:00010aa4       __ehfuncinfo$??_ECDlgServerWizard@@UAEPAXI@Z 1004eaa4     DlgServerWizard.obj
 0002:00010acc       __unwindtable$?OnPaint@CListHeaderCtrl@@IAEXXZ 1004eacc     ListControl.obj
 0002:00010ad4       __ehfuncinfo$?OnPaint@CListHeaderCtrl@@IAEXXZ 1004ead4     ListControl.obj
 0002:00010afc       __ehfuncinfo$??_ECListHeaderCtrl@@UAEPAXI@Z 1004eafc     ListControl.obj
 0002:00010b24       __unwindtable$??0CListControl@@QAE@XZ 1004eb24     ListControl.obj
 0002:00010b2c       __ehfuncinfo$??0CListControl@@QAE@XZ 1004eb2c     ListControl.obj
 0002:00010b54       __ehfuncinfo$??_ECListControl@@UAEPAXI@Z 1004eb54     ListControl.obj
 0002:00010b7c       __unwindtable$??0CMatchInfoBuffer@@QAE@XZ 1004eb7c     MatchInfoManager.obj
 0002:00010b84       __ehfuncinfo$??0CMatchInfoBuffer@@QAE@XZ 1004eb84     MatchInfoManager.obj
 0002:00010bac       __catchsym$??1CMatchInfoBuffer@@UAE@XZ$4 1004ebac     MatchInfoManager.obj
 0002:00010bbc       __tryblocktable$??1CMatchInfoBuffer@@UAE@XZ 1004ebbc     MatchInfoManager.obj
 0002:00010bd0       __unwindtable$??1CMatchInfoBuffer@@UAE@XZ 1004ebd0     MatchInfoManager.obj
 0002:00010bf0       __ehfuncinfo$??1CMatchInfoBuffer@@UAE@XZ 1004ebf0     MatchInfoManager.obj
 0002:00010c20       __catchsym$?CreateMatchOption@CMatchInfoBuffer@@AAEPAUtagGameMatchOption@@XZ$2 1004ec20     MatchInfoManager.obj
 0002:00010c30       __unwindtable$?CreateMatchOption@CMatchInfoBuffer@@AAEPAUtagGameMatchOption@@XZ 1004ec30     MatchInfoManager.obj
 0002:00010c40       __tryblocktable$?CreateMatchOption@CMatchInfoBuffer@@AAEPAUtagGameMatchOption@@XZ 1004ec40     MatchInfoManager.obj
 0002:00010c54       __ehfuncinfo$?CreateMatchOption@CMatchInfoBuffer@@AAEPAUtagGameMatchOption@@XZ 1004ec54     MatchInfoManager.obj
 0002:00010c80       __unwindtable$??0CRewardInfoBuffer@@QAE@XZ 1004ec80     MatchInfoManager.obj
 0002:00010c88       __ehfuncinfo$??0CRewardInfoBuffer@@QAE@XZ 1004ec88     MatchInfoManager.obj
 0002:00010cb0       __catchsym$??1CRewardInfoBuffer@@UAE@XZ$4 1004ecb0     MatchInfoManager.obj
 0002:00010cc0       __tryblocktable$??1CRewardInfoBuffer@@UAE@XZ 1004ecc0     MatchInfoManager.obj
 0002:00010cd4       __unwindtable$??1CRewardInfoBuffer@@UAE@XZ 1004ecd4     MatchInfoManager.obj
 0002:00010cf4       __ehfuncinfo$??1CRewardInfoBuffer@@UAE@XZ 1004ecf4     MatchInfoManager.obj
 0002:00010d24       __catchsym$?CreateMatchRewardInfo@CRewardInfoBuffer@@AAEPAUtagMatchRewardInfo@@XZ$2 1004ed24     MatchInfoManager.obj
 0002:00010d34       __unwindtable$?CreateMatchRewardInfo@CRewardInfoBuffer@@AAEPAUtagMatchRewardInfo@@XZ 1004ed34     MatchInfoManager.obj
 0002:00010d44       __tryblocktable$?CreateMatchRewardInfo@CRewardInfoBuffer@@AAEPAUtagMatchRewardInfo@@XZ 1004ed44     MatchInfoManager.obj
 0002:00010d58       __ehfuncinfo$?CreateMatchRewardInfo@CRewardInfoBuffer@@AAEPAUtagMatchRewardInfo@@XZ 1004ed58     MatchInfoManager.obj
 0002:00010d84       __catchsym$?LoadGameMatchReward@CMatchInfoManager@@QAEGKAAVCRewardInfoBuffer@@@Z$4 1004ed84     MatchInfoManager.obj
 0002:00010d94       __tryblocktable$?LoadGameMatchReward@CMatchInfoManager@@QAEGKAAVCRewardInfoBuffer@@@Z 1004ed94     MatchInfoManager.obj
 0002:00010da8       __unwindtable$?LoadGameMatchReward@CMatchInfoManager@@QAEGKAAVCRewardInfoBuffer@@@Z 1004eda8     MatchInfoManager.obj
 0002:00010dc8       __ehfuncinfo$?LoadGameMatchReward@CMatchInfoManager@@QAEGKAAVCRewardInfoBuffer@@@Z 1004edc8     MatchInfoManager.obj
 0002:00010df8       __catchsym$?LoadGameMatchOption@CMatchInfoManager@@QAE_NGKAAUtagGameMatchOption@@@Z$4 1004edf8     MatchInfoManager.obj
 0002:00010e08       __tryblocktable$?LoadGameMatchOption@CMatchInfoManager@@QAE_NGKAAUtagGameMatchOption@@@Z 1004ee08     MatchInfoManager.obj
 0002:00010e1c       __unwindtable$?LoadGameMatchOption@CMatchInfoManager@@QAE_NGKAAUtagGameMatchOption@@@Z 1004ee1c     MatchInfoManager.obj
 0002:00010e3c       __ehfuncinfo$?LoadGameMatchOption@CMatchInfoManager@@QAE_NGKAAUtagGameMatchOption@@@Z 1004ee3c     MatchInfoManager.obj
 0002:00010e6c       __catchsym$?LoadGameMatchOption@CMatchInfoManager@@QAE_NGQADAAVCMatchInfoBuffer@@@Z$4 1004ee6c     MatchInfoManager.obj
 0002:00010e7c       __tryblocktable$?LoadGameMatchOption@CMatchInfoManager@@QAE_NGQADAAVCMatchInfoBuffer@@@Z 1004ee7c     MatchInfoManager.obj
 0002:00010e90       __unwindtable$?LoadGameMatchOption@CMatchInfoManager@@QAE_NGQADAAVCMatchInfoBuffer@@@Z 1004ee90     MatchInfoManager.obj
 0002:00010eb0       __ehfuncinfo$?LoadGameMatchOption@CMatchInfoManager@@QAE_NGQADAAVCMatchInfoBuffer@@@Z 1004eeb0     MatchInfoManager.obj
 0002:00010ee0       __catchsym$?DeleteGameMatchOption@CMatchInfoManager@@QAE_NK@Z$4 1004eee0     MatchInfoManager.obj
 0002:00010ef0       __tryblocktable$?DeleteGameMatchOption@CMatchInfoManager@@QAE_NK@Z 1004eef0     MatchInfoManager.obj
 0002:00010f04       __unwindtable$?DeleteGameMatchOption@CMatchInfoManager@@QAE_NK@Z 1004ef04     MatchInfoManager.obj
 0002:00010f24       __ehfuncinfo$?DeleteGameMatchOption@CMatchInfoManager@@QAE_NK@Z 1004ef24     MatchInfoManager.obj
 0002:00010f54       __catchsym$?InsertGameMatchOption@CMatchInfoManager@@QAE_NPAUtagCreateMatchInfo@@AAUtagGameMatchOption@@@Z$4 1004ef54     MatchInfoManager.obj
 0002:00010f64       __tryblocktable$?InsertGameMatchOption@CMatchInfoManager@@QAE_NPAUtagCreateMatchInfo@@AAUtagGameMatchOption@@@Z 1004ef64     MatchInfoManager.obj
 0002:00010f78       __unwindtable$?InsertGameMatchOption@CMatchInfoManager@@QAE_NPAUtagCreateMatchInfo@@AAUtagGameMatchOption@@@Z 1004ef78     MatchInfoManager.obj
 0002:00010f98       __ehfuncinfo$?InsertGameMatchOption@CMatchInfoManager@@QAE_NPAUtagCreateMatchInfo@@AAUtagGameMatchOption@@@Z 1004ef98     MatchInfoManager.obj
 0002:00010fc8       __catchsym$?ModifyGameMatchOption@CMatchInfoManager@@QAE_NPAUtagCreateMatchInfo@@AAUtagGameMatchOption@@@Z$4 1004efc8     MatchInfoManager.obj
 0002:00010fd8       __tryblocktable$?ModifyGameMatchOption@CMatchInfoManager@@QAE_NPAUtagCreateMatchInfo@@AAUtagGameMatchOption@@@Z 1004efd8     MatchInfoManager.obj
 0002:00010fec       __unwindtable$?ModifyGameMatchOption@CMatchInfoManager@@QAE_NPAUtagCreateMatchInfo@@AAUtagGameMatchOption@@@Z 1004efec     MatchInfoManager.obj
 0002:0001100c       __ehfuncinfo$?ModifyGameMatchOption@CMatchInfoManager@@QAE_NPAUtagCreateMatchInfo@@AAUtagGameMatchOption@@@Z 1004f00c     MatchInfoManager.obj
 0002:0001103c       __unwindtable$?ReadGameMatchOption@CMatchInfoManager@@AAE_NAAVCDataBaseAide@@AAUtagGameMatchOption@@@Z 1004f03c     MatchInfoManager.obj
 0002:00011044       __ehfuncinfo$?ReadGameMatchOption@CMatchInfoManager@@AAE_NAAVCDataBaseAide@@AAUtagGameMatchOption@@@Z 1004f044     MatchInfoManager.obj
 0002:0001106c       __ehfuncinfo$??_ECMatchListControl@@UAEPAXI@Z 1004f06c     MatchListControl.obj
 0002:00011094       __ehfuncinfo$??_ECRewardListControl@@UAEPAXI@Z 1004f094     MatchListControl.obj
 0002:000110bc       __ehfuncinfo$??1CModuleDBParameter@@UAE@XZ 1004f0bc     ModuleDBParameter.obj
 0002:000110e4       __unwindtable$??0?$CMap@GGPAUtagGameModuleInfo@@PAU1@@@QAE@H@Z 1004f0e4     ModuleInfoManager.obj
 0002:000110ec       __ehfuncinfo$??0?$CMap@GGPAUtagGameModuleInfo@@PAU1@@@QAE@H@Z 1004f0ec     ModuleInfoManager.obj
 0002:00011114       __ehfuncinfo$??1?$CMap@GGPAUtagGameModuleInfo@@PAU1@@@UAE@XZ 1004f114     ModuleInfoManager.obj
 0002:0001113c       __unwindtable$??0CModuleInfoBuffer@@QAE@XZ 1004f13c     ModuleInfoManager.obj
 0002:00011144       __ehfuncinfo$??0CModuleInfoBuffer@@QAE@XZ 1004f144     ModuleInfoManager.obj
 0002:0001116c       __catchsym$??1CModuleInfoBuffer@@UAE@XZ$7 1004f16c     ModuleInfoManager.obj
 0002:0001117c       __catchsym$??1CModuleInfoBuffer@@UAE@XZ$6 1004f17c     ModuleInfoManager.obj
 0002:0001118c       __ehfuncinfo$??1CModuleInfoBuffer@@UAE@XZ 1004f18c     ModuleInfoManager.obj
 0002:000111b0       __tryblocktable$??1CModuleInfoBuffer@@UAE@XZ 1004f1b0     ModuleInfoManager.obj
 0002:000111d8       __unwindtable$??1CModuleInfoBuffer@@UAE@XZ 1004f1d8     ModuleInfoManager.obj
 0002:00011218       __catchsym$?CreateModuleInfo@CModuleInfoBuffer@@AAEPAUtagGameModuleInfo@@XZ$2 1004f218     ModuleInfoManager.obj
 0002:00011228       __unwindtable$?CreateModuleInfo@CModuleInfoBuffer@@AAEPAUtagGameModuleInfo@@XZ 1004f228     ModuleInfoManager.obj
 0002:00011238       __tryblocktable$?CreateModuleInfo@CModuleInfoBuffer@@AAEPAUtagGameModuleInfo@@XZ 1004f238     ModuleInfoManager.obj
 0002:0001124c       __ehfuncinfo$?CreateModuleInfo@CModuleInfoBuffer@@AAEPAUtagGameModuleInfo@@XZ 1004f24c     ModuleInfoManager.obj
 0002:00011278       __ehfuncinfo$??_ECModuleInfoBuffer@@UAEPAXI@Z 1004f278     ModuleInfoManager.obj
 0002:000112a0       __catchsym$?LoadGameModuleInfo@CModuleInfoManager@@QAE_NAAVCModuleInfoBuffer@@@Z$4 1004f2a0     ModuleInfoManager.obj
 0002:000112b0       __tryblocktable$?LoadGameModuleInfo@CModuleInfoManager@@QAE_NAAVCModuleInfoBuffer@@@Z 1004f2b0     ModuleInfoManager.obj
 0002:000112c4       __unwindtable$?LoadGameModuleInfo@CModuleInfoManager@@QAE_NAAVCModuleInfoBuffer@@@Z 1004f2c4     ModuleInfoManager.obj
 0002:000112e4       __ehfuncinfo$?LoadGameModuleInfo@CModuleInfoManager@@QAE_NAAVCModuleInfoBuffer@@@Z 1004f2e4     ModuleInfoManager.obj
 0002:00011314       __unwindtable$?GetGameServiceAttrib@CModuleInfoManager@@QAE_NPBDAAUtagGameServiceAttrib@@@Z 1004f314     ModuleInfoManager.obj
 0002:0001131c       __ehfuncinfo$?GetGameServiceAttrib@CModuleInfoManager@@QAE_NPBDAAUtagGameServiceAttrib@@@Z 1004f31c     ModuleInfoManager.obj
 0002:00011344       __ehfuncinfo$??_ECModuleListControl@@UAEPAXI@Z 1004f344     ModuleListControl.obj
 0002:0001136c       __ehfuncinfo$??_ECServerCustomRule@@UAEPAXI@Z 1004f36c     ServerCustomRule.obj
 0002:00011394       __unwindtable$??0?$CMap@GGPAUtagGameServerInfo@@PAU1@@@QAE@H@Z 1004f394     ServerInfoManager.obj
 0002:0001139c       __ehfuncinfo$??0?$CMap@GGPAUtagGameServerInfo@@PAU1@@@QAE@H@Z 1004f39c     ServerInfoManager.obj
 0002:000113c4       __ehfuncinfo$??1?$CMap@GGPAUtagGameServerInfo@@PAU1@@@UAE@XZ 1004f3c4     ServerInfoManager.obj
 0002:000113ec       __unwindtable$??0CServerInfoBuffer@@QAE@XZ 1004f3ec     ServerInfoManager.obj
 0002:000113f4       __ehfuncinfo$??0CServerInfoBuffer@@QAE@XZ 1004f3f4     ServerInfoManager.obj
 0002:0001141c       __catchsym$??1CServerInfoBuffer@@UAE@XZ$7 1004f41c     ServerInfoManager.obj
 0002:0001142c       __catchsym$??1CServerInfoBuffer@@UAE@XZ$6 1004f42c     ServerInfoManager.obj
 0002:0001143c       __ehfuncinfo$??1CServerInfoBuffer@@UAE@XZ 1004f43c     ServerInfoManager.obj
 0002:00011460       __tryblocktable$??1CServerInfoBuffer@@UAE@XZ 1004f460     ServerInfoManager.obj
 0002:00011488       __unwindtable$??1CServerInfoBuffer@@UAE@XZ 1004f488     ServerInfoManager.obj
 0002:000114c8       __catchsym$?CreateServerInfo@CServerInfoBuffer@@AAEPAUtagGameServerInfo@@XZ$2 1004f4c8     ServerInfoManager.obj
 0002:000114d8       __unwindtable$?CreateServerInfo@CServerInfoBuffer@@AAEPAUtagGameServerInfo@@XZ 1004f4d8     ServerInfoManager.obj
 0002:000114e8       __tryblocktable$?CreateServerInfo@CServerInfoBuffer@@AAEPAUtagGameServerInfo@@XZ 1004f4e8     ServerInfoManager.obj
 0002:000114fc       __ehfuncinfo$?CreateServerInfo@CServerInfoBuffer@@AAEPAUtagGameServerInfo@@XZ 1004f4fc     ServerInfoManager.obj
 0002:00011528       __ehfuncinfo$??_ECServerInfoBuffer@@UAEPAXI@Z 1004f528     ServerInfoManager.obj
 0002:00011550       __unwindtable$??0CMatchOptionBuffer@@QAE@XZ 1004f550     ServerInfoManager.obj
 0002:00011558       __ehfuncinfo$??0CMatchOptionBuffer@@QAE@XZ 1004f558     ServerInfoManager.obj
 0002:00011580       __catchsym$??1CMatchOptionBuffer@@UAE@XZ$4 1004f580     ServerInfoManager.obj
 0002:00011590       __tryblocktable$??1CMatchOptionBuffer@@UAE@XZ 1004f590     ServerInfoManager.obj
 0002:000115a4       __unwindtable$??1CMatchOptionBuffer@@UAE@XZ 1004f5a4     ServerInfoManager.obj
 0002:000115c4       __ehfuncinfo$??1CMatchOptionBuffer@@UAE@XZ 1004f5c4     ServerInfoManager.obj
 0002:000115f4       __catchsym$?CreateMatchOption@CMatchOptionBuffer@@AAEPAUtagGameMatchOption@@XZ$2 1004f5f4     ServerInfoManager.obj
 0002:00011604       __unwindtable$?CreateMatchOption@CMatchOptionBuffer@@AAEPAUtagGameMatchOption@@XZ 1004f604     ServerInfoManager.obj
 0002:00011614       __tryblocktable$?CreateMatchOption@CMatchOptionBuffer@@AAEPAUtagGameMatchOption@@XZ 1004f614     ServerInfoManager.obj
 0002:00011628       __ehfuncinfo$?CreateMatchOption@CMatchOptionBuffer@@AAEPAUtagGameMatchOption@@XZ 1004f628     ServerInfoManager.obj
 0002:00011654       __catchsym$?LoadGameServerInfo@CServerInfoManager@@QAE_NQADAAVCServerInfoBuffer@@@Z$4 1004f654     ServerInfoManager.obj
 0002:00011664       __tryblocktable$?LoadGameServerInfo@CServerInfoManager@@QAE_NQADAAVCServerInfoBuffer@@@Z 1004f664     ServerInfoManager.obj
 0002:00011678       __unwindtable$?LoadGameServerInfo@CServerInfoManager@@QAE_NQADAAVCServerInfoBuffer@@@Z 1004f678     ServerInfoManager.obj
 0002:00011698       __ehfuncinfo$?LoadGameServerInfo@CServerInfoManager@@QAE_NQADAAVCServerInfoBuffer@@@Z 1004f698     ServerInfoManager.obj
 0002:000116c8       __catchsym$?LoadGameServerInfo@CServerInfoManager@@QAE_NQADGAAUtagGameServerInfo@@@Z$4 1004f6c8     ServerInfoManager.obj
 0002:000116d8       __tryblocktable$?LoadGameServerInfo@CServerInfoManager@@QAE_NQADGAAUtagGameServerInfo@@@Z 1004f6d8     ServerInfoManager.obj
 0002:000116ec       __unwindtable$?LoadGameServerInfo@CServerInfoManager@@QAE_NQADGAAUtagGameServerInfo@@@Z 1004f6ec     ServerInfoManager.obj
 0002:0001170c       __ehfuncinfo$?LoadGameServerInfo@CServerInfoManager@@QAE_NQADGAAUtagGameServerInfo@@@Z 1004f70c     ServerInfoManager.obj
 0002:0001173c       __catchsym$?DeleteGameServer@CServerInfoManager@@QAE_NG@Z$4 1004f73c     ServerInfoManager.obj
 0002:0001174c       __tryblocktable$?DeleteGameServer@CServerInfoManager@@QAE_NG@Z 1004f74c     ServerInfoManager.obj
 0002:00011760       __unwindtable$?DeleteGameServer@CServerInfoManager@@QAE_NG@Z 1004f760     ServerInfoManager.obj
 0002:00011780       __ehfuncinfo$?DeleteGameServer@CServerInfoManager@@QAE_NG@Z 1004f780     ServerInfoManager.obj
 0002:000117b0       __catchsym$?InsertGameServer@CServerInfoManager@@QAE_NPAUtagGameServerCreate@@AAUtagGameServerInfo@@@Z$5 1004f7b0     ServerInfoManager.obj
 0002:000117c0       __tryblocktable$?InsertGameServer@CServerInfoManager@@QAE_NPAUtagGameServerCreate@@AAUtagGameServerInfo@@@Z 1004f7c0     ServerInfoManager.obj
 0002:000117d4       __unwindtable$?InsertGameServer@CServerInfoManager@@QAE_NPAUtagGameServerCreate@@AAUtagGameServerInfo@@@Z 1004f7d4     ServerInfoManager.obj
 0002:000117f4       __ehfuncinfo$?InsertGameServer@CServerInfoManager@@QAE_NPAUtagGameServerCreate@@AAUtagGameServerInfo@@@Z 1004f7f4     ServerInfoManager.obj
 0002:00011824       __catchsym$?ModifyGameServer@CServerInfoManager@@QAE_NPAUtagGameServerCreate@@AAUtagGameServerInfo@@@Z$5 1004f824     ServerInfoManager.obj
 0002:00011834       __tryblocktable$?ModifyGameServer@CServerInfoManager@@QAE_NPAUtagGameServerCreate@@AAUtagGameServerInfo@@@Z 1004f834     ServerInfoManager.obj
 0002:00011848       __unwindtable$?ModifyGameServer@CServerInfoManager@@QAE_NPAUtagGameServerCreate@@AAUtagGameServerInfo@@@Z 1004f848     ServerInfoManager.obj
 0002:00011868       __ehfuncinfo$?ModifyGameServer@CServerInfoManager@@QAE_NPAUtagGameServerCreate@@AAUtagGameServerInfo@@@Z 1004f868     ServerInfoManager.obj
 0002:00011898       __catchsym$?LoadPersonalRoomParameter@CServerInfoManager@@QAE_NAAUtagPersonalRoomOption@@AAUtagPersonalRoomOptionRightAndFee@@G@Z$4 1004f898     ServerInfoManager.obj
 0002:000118a8       __tryblocktable$?LoadPersonalRoomParameter@CServerInfoManager@@QAE_NAAUtagPersonalRoomOption@@AAUtagPersonalRoomOptionRightAndFee@@G@Z 1004f8a8     ServerInfoManager.obj
 0002:000118bc       __unwindtable$?LoadPersonalRoomParameter@CServerInfoManager@@QAE_NAAUtagPersonalRoomOption@@AAUtagPersonalRoomOptionRightAndFee@@G@Z 1004f8bc     ServerInfoManager.obj
 0002:000118dc       __ehfuncinfo$?LoadPersonalRoomParameter@CServerInfoManager@@QAE_NAAUtagPersonalRoomOption@@AAUtagPersonalRoomOptionRightAndFee@@G@Z 1004f8dc     ServerInfoManager.obj
 0002:0001190c       __catchsym$?InsertPersonalRoomParameter@CServerInfoManager@@QAE_NVCDataBaseAide@@UtagPersonalRoomOption@@UtagPersonalRoomOptionRightAndFee@@GG@Z$3 1004f90c     ServerInfoManager.obj
 0002:0001191c       __tryblocktable$?InsertPersonalRoomParameter@CServerInfoManager@@QAE_NVCDataBaseAide@@UtagPersonalRoomOption@@UtagPersonalRoomOptionRightAndFee@@GG@Z 1004f91c     ServerInfoManager.obj
 0002:00011930       __unwindtable$?InsertPersonalRoomParameter@CServerInfoManager@@QAE_NVCDataBaseAide@@UtagPersonalRoomOption@@UtagPersonalRoomOptionRightAndFee@@GG@Z 1004f930     ServerInfoManager.obj
 0002:00011948       __ehfuncinfo$?InsertPersonalRoomParameter@CServerInfoManager@@QAE_NVCDataBaseAide@@UtagPersonalRoomOption@@UtagPersonalRoomOptionRightAndFee@@GG@Z 1004f948     ServerInfoManager.obj
 0002:00011978       __catchsym$?ModifyPersonalRoomParameter@CServerInfoManager@@QAE_NVCDataBaseAide@@UtagPersonalRoomOption@@UtagPersonalRoomOptionRightAndFee@@GG@Z$3 1004f978     ServerInfoManager.obj
 0002:00011988       __tryblocktable$?ModifyPersonalRoomParameter@CServerInfoManager@@QAE_NVCDataBaseAide@@UtagPersonalRoomOption@@UtagPersonalRoomOptionRightAndFee@@GG@Z 1004f988     ServerInfoManager.obj
 0002:0001199c       __unwindtable$?ModifyPersonalRoomParameter@CServerInfoManager@@QAE_NVCDataBaseAide@@UtagPersonalRoomOption@@UtagPersonalRoomOptionRightAndFee@@GG@Z 1004f99c     ServerInfoManager.obj
 0002:000119b4       __ehfuncinfo$?ModifyPersonalRoomParameter@CServerInfoManager@@QAE_NVCDataBaseAide@@UtagPersonalRoomOption@@UtagPersonalRoomOptionRightAndFee@@GG@Z 1004f9b4     ServerInfoManager.obj
 0002:000119e4       __ehfuncinfo$??_ECServerListControl@@UAEPAXI@Z 1004f9e4     ServerListControl.obj
 0002:00011a0c       __ehfuncinfo$??1?$CSimpleArray@GV?$CSimpleArrayEqualHelper@G@ATL@@@ATL@@QAE@XZ 1004fa0c     Stdafx.obj
 0002:00011a34       __unwindtable$??0_ATL_WIN_MODULE70@ATL@@QAE@XZ 1004fa34     Stdafx.obj
 0002:00011a3c       __ehfuncinfo$??0_ATL_WIN_MODULE70@ATL@@QAE@XZ 1004fa3c     Stdafx.obj
 0002:00011a64       __ehfuncinfo$??1CAtlComModule@ATL@@QAE@XZ 1004fa64     Stdafx.obj
 0002:00011a8c       __ehfuncinfo$??1CAtlWinModule@ATL@@QAE@XZ 1004fa8c     Stdafx.obj
 0002:00011ab8       __sehtable$_WinbaseIsolationAwarePrivatetRgzlnPgpgk@0 1004fab8     mfcs140d:nolib.obj
 0002:00011ad8       __sehtable$_IsolationAwareUnregisterClassA@8 1004fad8     mfcs140d:nolib.obj
 0002:00011af8       __ehfuncinfo$??_Estringdispid@CComTypeInfoHolder@ATL@@QAEPAXI@Z 1004faf8     mfcs140d:nolib.obj
 0002:00011b20       __sehtable$??_M@YGXPAXIIP6EX0@Z@Z 1004fb20     msvcrtd:ehvecdtr.obj
 0002:00011b40       __sehtable$?__ArrayUnwind@@YGXPAXIIP6EX0@Z@Z 1004fb40     msvcrtd:ehvecdtr.obj
 0002:00011b60       __sehtable$___scrt_is_nonwritable_in_current_image 1004fb60     msvcrtd:utility.obj
 0002:00011b80       __ehfuncinfo$?__scrt_initialize_thread_safe_statics_platform_specific@@YAXXZ 1004fb80     msvcrtd:thread_safe_statics.obj
 0002:00011ba8       __ehfuncinfo$?__scrt_uninitialize_thread_safe_statics@@YAXXZ 1004fba8     msvcrtd:thread_safe_statics.obj
 0002:00011bd0       __sehtable$?dllmain_crt_process_attach@@YAHQAUHINSTANCE__@@QAX@Z 1004fbd0     msvcrtd:dll_dllmain.obj
 0002:00011bf0       __sehtable$?dllmain_crt_process_detach@@YAH_N@Z 1004fbf0     msvcrtd:dll_dllmain.obj
 0002:00011c10       __sehtable$?dllmain_dispatch@@YAHQAUHINSTANCE__@@KQAX@Z 1004fc10     msvcrtd:dll_dllmain.obj
 0002:00011c30       __sehtable$?notify_debugger@@YAXABUtagEXCEPTION_VISUALCPP_DEBUG_INFO@@@Z 1004fc30     msvcrtd:error.obj
 0002:00012280       .edata                     10050280     ModuleManager.exp
 0002:000122a8       rgpv                       100502a8     ModuleManager.exp
 0002:000129ac       rgszName                   100509ac     ModuleManager.exp
 0002:000130b0       rgwOrd                     100510b0     ModuleManager.exp
 0002:00013432       szName                     10051432     ModuleManager.exp
 0002:00013444       $N00001                    10051444     ModuleManager.exp
 0002:00013463       $N00002                    10051463     ModuleManager.exp
 0002:00013481       $N00003                    10051481     ModuleManager.exp
 0002:0001349b       $N00004                    1005149b     ModuleManager.exp
 0002:000134b8       $N00005                    100514b8     ModuleManager.exp
 0002:000134d8       $N00006                    100514d8     ModuleManager.exp
 0002:000134f3       $N00007                    100514f3     ModuleManager.exp
 0002:0001350f       $N00008                    1005150f     ModuleManager.exp
 0002:0001352b       $N00009                    1005152b     ModuleManager.exp
 0002:00013546       $N00010                    10051546     ModuleManager.exp
 0002:00013566       $N00011                    10051566     ModuleManager.exp
 0002:00013586       $N00012                    10051586     ModuleManager.exp
 0002:000135a6       $N00013                    100515a6     ModuleManager.exp
 0002:000135c0       $N00014                    100515c0     ModuleManager.exp
 0002:000135db       $N00015                    100515db     ModuleManager.exp
 0002:000135fc       $N00016                    100515fc     ModuleManager.exp
 0002:0001361d       $N00017                    1005161d     ModuleManager.exp
 0002:0001363e       $N00018                    1005163e     ModuleManager.exp
 0002:0001365f       $N00019                    1005165f     ModuleManager.exp
 0002:00013680       $N00020                    10051680     ModuleManager.exp
 0002:000136a6       $N00021                    100516a6     ModuleManager.exp
 0002:000136ce       $N00022                    100516ce     ModuleManager.exp
 0002:000136ea       $N00023                    100516ea     ModuleManager.exp
 0002:0001370b       $N00024                    1005170b     ModuleManager.exp
 0002:0001372c       $N00025                    1005172c     ModuleManager.exp
 0002:0001374d       $N00026                    1005174d     ModuleManager.exp
 0002:00013765       $N00027                    10051765     ModuleManager.exp
 0002:00013780       $N00028                    10051780     ModuleManager.exp
 0002:000137a1       $N00029                    100517a1     ModuleManager.exp
 0002:000137bd       $N00030                    100517bd     ModuleManager.exp
 0002:000137df       $N00031                    100517df     ModuleManager.exp
 0002:000137fc       $N00032                    100517fc     ModuleManager.exp
 0002:00013819       $N00033                    10051819     ModuleManager.exp
 0002:0001383c       $N00034                    1005183c     ModuleManager.exp
 0002:0001385a       $N00035                    1005185a     ModuleManager.exp
 0002:0001387d       $N00036                    1005187d     ModuleManager.exp
 0002:0001389b       $N00037                    1005189b     ModuleManager.exp
 0002:000138b8       $N00038                    100518b8     ModuleManager.exp
 0002:000138db       $N00039                    100518db     ModuleManager.exp
 0002:000138f9       $N00040                    100518f9     ModuleManager.exp
 0002:00013917       $N00041                    10051917     ModuleManager.exp
 0002:00013939       $N00042                    10051939     ModuleManager.exp
 0002:00013956       $N00043                    10051956     ModuleManager.exp
 0002:00013974       $N00044                    10051974     ModuleManager.exp
 0002:00013996       $N00045                    10051996     ModuleManager.exp
 0002:000139b3       $N00046                    100519b3     ModuleManager.exp
 0002:000139d0       $N00047                    100519d0     ModuleManager.exp
 0002:000139f3       $N00048                    100519f3     ModuleManager.exp
 0002:00013a11       $N00049                    10051a11     ModuleManager.exp
