; Listing generated by Microsoft (R) Optimizing Compiler Version 19.16.27032.1 

	TITLE	G:\网狐\HappyGameWH\服务端\系统模块\服务器组件\约战服务\PersonalRoomServiceManager.cpp
	.686P
	.XMM
	include listing.inc
	.model	flat

INCLUDELIB MSVCRTD
INCLUDELIB OLDNAMES

CONST	SEGMENT
?IID_IUnknownEx@@3U_GUID@@B DD 05feec21eH		; IID_IUnknownEx
	DW	0dbf3H
	DW	046f0H
	DB	09fH
	DB	057H
	DB	0d1H
	DB	0cdH
	DB	071H
	DB	01cH
	DB	046H
	DB	0deH
?IID_IPersonalRoomServiceManager@@3U_GUID@@B DD 0c59d784bH ; IID_IPersonalRoomServiceManager
	DW	08875H
	DW	041f5H
	DB	0a3H
	DB	0d0H
	DB	023H
	DB	094H
	DB	096H
	DB	0e0H
	DB	028H
	DB	03cH
CONST	ENDS
PUBLIC	??_H@YGXPAXIIP6EPAX0@Z@Z			; `vector constructor iterator'
PUBLIC	?__empty_global_delete@@YAXPAX@Z		; __empty_global_delete
PUBLIC	?__empty_global_delete@@YAXPAXI@Z		; __empty_global_delete
PUBLIC	_IsEqualGUID
PUBLIC	_==
PUBLIC	?AfxAssertFailedLine@@YGHPBDH@Z			; AfxAssertFailedLine
PUBLIC	??0IUnknownEx@@QAE@XZ				; IUnknownEx::IUnknownEx
PUBLIC	??0IUnknownEx@@QAE@ABU0@@Z			; IUnknownEx::IUnknownEx
PUBLIC	??4IUnknownEx@@QAEAAU0@ABU0@@Z			; IUnknownEx::operator=
PUBLIC	?GetProductVer@@YAEK@Z				; GetProductVer
PUBLIC	?GetMainVer@@YAEK@Z				; GetMainVer
PUBLIC	?GetSubVer@@YAEK@Z				; GetSubVer
PUBLIC	?GetBuildVer@@YAEK@Z				; GetBuildVer
PUBLIC	?InterfaceVersionCompare@@YA_NKK@Z		; InterfaceVersionCompare
PUBLIC	??0IPersonalRoomServiceManager@@QAE@XZ		; IPersonalRoomServiceManager::IPersonalRoomServiceManager
PUBLIC	??0IPersonalRoomServiceManager@@QAE@ABU0@@Z	; IPersonalRoomServiceManager::IPersonalRoomServiceManager
PUBLIC	??4IPersonalRoomServiceManager@@QAEAAU0@ABU0@@Z	; IPersonalRoomServiceManager::operator=
PUBLIC	??0CPersonalRoomServiceManager@@QAE@XZ		; CPersonalRoomServiceManager::CPersonalRoomServiceManager
PUBLIC	??1CPersonalRoomServiceManager@@UAE@XZ		; CPersonalRoomServiceManager::~CPersonalRoomServiceManager
PUBLIC	?Release@CPersonalRoomServiceManager@@UAEXXZ	; CPersonalRoomServiceManager::Release
PUBLIC	?QueryInterface@CPersonalRoomServiceManager@@UAEPAXABU_GUID@@K@Z ; CPersonalRoomServiceManager::QueryInterface
PUBLIC	?StopService@CPersonalRoomServiceManager@@UAE_NXZ ; CPersonalRoomServiceManager::StopService
PUBLIC	?StartService@CPersonalRoomServiceManager@@UAE_NXZ ; CPersonalRoomServiceManager::StartService
PUBLIC	?CreatePersonalRoom@CPersonalRoomServiceManager@@UAE_NE@Z ; CPersonalRoomServiceManager::CreatePersonalRoom
PUBLIC	?BindTableFrame@CPersonalRoomServiceManager@@UAE_NPAUITableFrame@@G@Z ; CPersonalRoomServiceManager::BindTableFrame
PUBLIC	?InitPersonalRooomInterface@CPersonalRoomServiceManager@@UAE_NAAUtagPersonalRoomManagerParameter@@@Z ; CPersonalRoomServiceManager::InitPersonalRooomInterface
PUBLIC	?OnEventTimer@CPersonalRoomServiceManager@@UAE_NKI@Z ; CPersonalRoomServiceManager::OnEventTimer
PUBLIC	?OnEventDataBase@CPersonalRoomServiceManager@@UAE_NGPAUIServerUserItem@@PAXGK@Z ; CPersonalRoomServiceManager::OnEventDataBase
PUBLIC	?OnEventSocketPersonalRoom@CPersonalRoomServiceManager@@UAE_NGPAXGPAUIServerUserItem@@K@Z ; CPersonalRoomServiceManager::OnEventSocketPersonalRoom
PUBLIC	?OnTCPSocketMainServiceInfo@CPersonalRoomServiceManager@@UAE_NGPAXG@Z ; CPersonalRoomServiceManager::OnTCPSocketMainServiceInfo
PUBLIC	?OnEventUserLogon@CPersonalRoomServiceManager@@UAE_NPAUIServerUserItem@@@Z ; CPersonalRoomServiceManager::OnEventUserLogon
PUBLIC	?OnEventUserLogout@CPersonalRoomServiceManager@@UAE_NPAUIServerUserItem@@@Z ; CPersonalRoomServiceManager::OnEventUserLogout
PUBLIC	?OnEventUserLogonFinish@CPersonalRoomServiceManager@@UAE_NPAUIServerUserItem@@@Z ; CPersonalRoomServiceManager::OnEventUserLogonFinish
PUBLIC	?GetServerUserItemSink@CPersonalRoomServiceManager@@UAEPAUIUnknownEx@@XZ ; CPersonalRoomServiceManager::GetServerUserItemSink
PUBLIC	?TestPersonal@CPersonalRoomServiceManager@@UAEXXZ ; CPersonalRoomServiceManager::TestPersonal
PUBLIC	?OnTCPNetworkSubMBQueryGameServer@CPersonalRoomServiceManager@@UAE_NPAXGKPAUtagPersonalBindParameter@@PAUITCPSocketService@@@Z ; CPersonalRoomServiceManager::OnTCPNetworkSubMBQueryGameServer
PUBLIC	?OnTCPNetworkSubMBSearchServerTable@CPersonalRoomServiceManager@@UAE_NPAXGKPAUtagPersonalBindParameter@@PAUITCPSocketService@@@Z ; CPersonalRoomServiceManager::OnTCPNetworkSubMBSearchServerTable
PUBLIC	?OnTCPNetworkSubMBDissumeSearchServerTable@CPersonalRoomServiceManager@@UAE_NPAXGKPAUtagPersonalBindParameter@@PAUITCPSocketService@@@Z ; CPersonalRoomServiceManager::OnTCPNetworkSubMBDissumeSearchServerTable
PUBLIC	?OnTCPNetworkSubMBPersonalParameter@CPersonalRoomServiceManager@@UAE_NPAXGKPAUIDataBaseEngine@@@Z ; CPersonalRoomServiceManager::OnTCPNetworkSubMBPersonalParameter
PUBLIC	?OnTCPNetworkSubMBQueryPersonalRoomList@CPersonalRoomServiceManager@@UAE_NPAXGKPAUITCPSocketService@@@Z ; CPersonalRoomServiceManager::OnTCPNetworkSubMBQueryPersonalRoomList
PUBLIC	?OnTCPNetworkSubQueryUserRoomScore@CPersonalRoomServiceManager@@UAE_NPAXGKPAUIDataBaseEngine@@@Z ; CPersonalRoomServiceManager::OnTCPNetworkSubQueryUserRoomScore
PUBLIC	??0CPersonalRoomServiceManager@@QAE@ABV0@@Z	; CPersonalRoomServiceManager::CPersonalRoomServiceManager
PUBLIC	??4CPersonalRoomServiceManager@@QAEAAV0@ABV0@@Z	; CPersonalRoomServiceManager::operator=
PUBLIC	??_GCPersonalRoomServiceManager@@UAEPAXI@Z	; CPersonalRoomServiceManager::`scalar deleting destructor'
PUBLIC	??_ECPersonalRoomServiceManager@@UAEPAXI@Z	; CPersonalRoomServiceManager::`vector deleting destructor'
PUBLIC	_CreatePersonalRoomServiceManager
PUBLIC	??_7IUnknownEx@@6B@				; IUnknownEx::`vftable'
PUBLIC	??_7IPersonalRoomServiceManager@@6B@		; IPersonalRoomServiceManager::`vftable'
PUBLIC	??_7CPersonalRoomServiceManager@@6B@		; CPersonalRoomServiceManager::`vftable'
PUBLIC	?__LINE__Var@?0???1CPersonalRoomServiceManager@@UAE@XZ@4JA ; `CPersonalRoomServiceManager::~CPersonalRoomServiceManager'::`1'::__LINE__Var
PUBLIC	??_C@_0FH@KBPFBDOA@g?3?2?M?x?$LK?$PM?2happygamewh?2?$LH?$PO?N?q?$LG?K?2?O?$LF?M?$LD@ ; `string'
PUBLIC	?__LINE__Var@?0??StopService@CPersonalRoomServiceManager@@UAE_NXZ@4JA ; `CPersonalRoomServiceManager::StopService'::`1'::__LINE__Var
PUBLIC	?__LINE__Var@?0??StartService@CPersonalRoomServiceManager@@UAE_NXZ@4JA ; `CPersonalRoomServiceManager::StartService'::`1'::__LINE__Var
PUBLIC	?__LINE__Var@?0??CreatePersonalRoom@CPersonalRoomServiceManager@@UAE_NE@Z@4JA ; `CPersonalRoomServiceManager::CreatePersonalRoom'::`1'::__LINE__Var
PUBLIC	__TI2PAD
PUBLIC	__CTA2PAD
PUBLIC	??_R0PAD@8					; char * `RTTI Type Descriptor'
PUBLIC	__CT??_R0PAD@84
PUBLIC	??_R0PAX@8					; void * `RTTI Type Descriptor'
PUBLIC	__CT??_R0PAX@84
PUBLIC	??_C@_0BD@NGFHCBFH@?$LE?$LE?$LN?$KI?T?$LM?U?$LN?$LH?$LP?$LM?d?J?$KH?$LA?$NM?$KD?$KB@ ; `string'
PUBLIC	?__LINE__Var@?0??BindTableFrame@CPersonalRoomServiceManager@@UAE_NPAUITableFrame@@G@Z@4JA ; `CPersonalRoomServiceManager::BindTableFrame'::`1'::__LINE__Var
PUBLIC	?__LINE__Var@?0??InitPersonalRooomInterface@CPersonalRoomServiceManager@@UAE_NAAUtagPersonalRoomManagerParameter@@@Z@4JA ; `CPersonalRoomServiceManager::InitPersonalRooomInterface'::`1'::__LINE__Var
PUBLIC	?__LINE__Var@?0??OnEventTimer@CPersonalRoomServiceManager@@UAE_NKI@Z@4JA ; `CPersonalRoomServiceManager::OnEventTimer'::`1'::__LINE__Var
PUBLIC	?__LINE__Var@?0??OnEventDataBase@CPersonalRoomServiceManager@@UAE_NGPAUIServerUserItem@@PAXGK@Z@4JA ; `CPersonalRoomServiceManager::OnEventDataBase'::`1'::__LINE__Var
PUBLIC	?__LINE__Var@?0??OnEventSocketPersonalRoom@CPersonalRoomServiceManager@@UAE_NGPAXGPAUIServerUserItem@@K@Z@4JA ; `CPersonalRoomServiceManager::OnEventSocketPersonalRoom'::`1'::__LINE__Var
PUBLIC	?__LINE__Var@?0??OnTCPSocketMainServiceInfo@CPersonalRoomServiceManager@@UAE_NGPAXG@Z@4JA ; `CPersonalRoomServiceManager::OnTCPSocketMainServiceInfo'::`1'::__LINE__Var
PUBLIC	?__LINE__Var@?0??OnEventUserLogon@CPersonalRoomServiceManager@@UAE_NPAUIServerUserItem@@@Z@4JA ; `CPersonalRoomServiceManager::OnEventUserLogon'::`1'::__LINE__Var
PUBLIC	?__LINE__Var@?0??OnEventUserLogout@CPersonalRoomServiceManager@@UAE_NPAUIServerUserItem@@@Z@4JA ; `CPersonalRoomServiceManager::OnEventUserLogout'::`1'::__LINE__Var
PUBLIC	?__LINE__Var@?0??OnEventUserLogonFinish@CPersonalRoomServiceManager@@UAE_NPAUIServerUserItem@@@Z@4JA ; `CPersonalRoomServiceManager::OnEventUserLogonFinish'::`1'::__LINE__Var
PUBLIC	??_C@_0BG@CPFLEHPP@ptdtsr?5?$CK?$CK?$CK?5?K?$LN?H?K?$LH?$LP?$LC?b?J?T@ ; `string'
PUBLIC	?__LINE__Var@?0??OnTCPNetworkSubMBQueryGameServer@CPersonalRoomServiceManager@@UAE_NPAXGKPAUtagPersonalBindParameter@@PAUITCPSocketService@@@Z@4JA ; `CPersonalRoomServiceManager::OnTCPNetworkSubMBQueryGameServer'::`1'::__LINE__Var
PUBLIC	?__LINE__Var@?0??OnTCPNetworkSubMBSearchServerTable@CPersonalRoomServiceManager@@UAE_NPAXGKPAUtagPersonalBindParameter@@PAUITCPSocketService@@@Z@4JA ; `CPersonalRoomServiceManager::OnTCPNetworkSubMBSearchServerTable'::`1'::__LINE__Var
PUBLIC	?__LINE__Var@?0??OnTCPNetworkSubMBDissumeSearchServerTable@CPersonalRoomServiceManager@@UAE_NPAXGKPAUtagPersonalBindParameter@@PAUITCPSocketService@@@Z@4JA ; `CPersonalRoomServiceManager::OnTCPNetworkSubMBDissumeSearchServerTable'::`1'::__LINE__Var
PUBLIC	?__LINE__Var@?0??OnTCPNetworkSubMBPersonalParameter@CPersonalRoomServiceManager@@UAE_NPAXGKPAUIDataBaseEngine@@@Z@4JA ; `CPersonalRoomServiceManager::OnTCPNetworkSubMBPersonalParameter'::`1'::__LINE__Var
PUBLIC	?__LINE__Var@?0??OnTCPNetworkSubMBQueryPersonalRoomList@CPersonalRoomServiceManager@@UAE_NPAXGKPAUITCPSocketService@@@Z@4JA ; `CPersonalRoomServiceManager::OnTCPNetworkSubMBQueryPersonalRoomList'::`1'::__LINE__Var
PUBLIC	??_C@_0FO@NAEDIFFF@ptdt?5?$CK?$CK?$CK?5?$LF?G?B?$LM?$LH?$PO?N?q?F?w?5?$LC?i?Q?$KP?K?$LN?H?K?$LH?$LP?$LM@ ; `string'
PUBLIC	?__LINE__Var@?0??OnTCPNetworkSubQueryUserRoomScore@CPersonalRoomServiceManager@@UAE_NPAXGKPAUIDataBaseEngine@@@Z@4JA ; `CPersonalRoomServiceManager::OnTCPNetworkSubQueryUserRoomScore'::`1'::__LINE__Var
PUBLIC	??_C@_0CL@HNECKIB@ptdt?5?$CK?$CK?$CK?5OnTCPNetworkSubQueryUs@ ; `string'
PUBLIC	?__LINE__Var@?0??GetServerUserItemSink@CPersonalRoomServiceManager@@UAEPAUIUnknownEx@@XZ@4JA ; `CPersonalRoomServiceManager::GetServerUserItemSink'::`1'::__LINE__Var
PUBLIC	??_C@_08HBOFLKLL@?$LE?$LE?$LN?$KI?J?$KH?$LA?$NM@ ; `string'
PUBLIC	??_C@_0N@DLOPLLLM@?$LN?S?$LP?Z?$LC?i?Q?$KP?J?$KH?$LA?$NM@ ; `string'
PUBLIC	??_R4IUnknownEx@@6B@				; IUnknownEx::`RTTI Complete Object Locator'
PUBLIC	??_R0?AUIUnknownEx@@@8				; IUnknownEx `RTTI Type Descriptor'
PUBLIC	??_R3IUnknownEx@@8				; IUnknownEx::`RTTI Class Hierarchy Descriptor'
PUBLIC	??_R2IUnknownEx@@8				; IUnknownEx::`RTTI Base Class Array'
PUBLIC	??_R1A@?0A@EA@IUnknownEx@@8			; IUnknownEx::`RTTI Base Class Descriptor at (0,-1,0,64)'
PUBLIC	??_R4IPersonalRoomServiceManager@@6B@		; IPersonalRoomServiceManager::`RTTI Complete Object Locator'
PUBLIC	??_R0?AUIPersonalRoomServiceManager@@@8		; IPersonalRoomServiceManager `RTTI Type Descriptor'
PUBLIC	??_R3IPersonalRoomServiceManager@@8		; IPersonalRoomServiceManager::`RTTI Class Hierarchy Descriptor'
PUBLIC	??_R2IPersonalRoomServiceManager@@8		; IPersonalRoomServiceManager::`RTTI Base Class Array'
PUBLIC	??_R1A@?0A@EA@IPersonalRoomServiceManager@@8	; IPersonalRoomServiceManager::`RTTI Base Class Descriptor at (0,-1,0,64)'
PUBLIC	??_R4CPersonalRoomServiceManager@@6B@		; CPersonalRoomServiceManager::`RTTI Complete Object Locator'
PUBLIC	??_R0?AVCPersonalRoomServiceManager@@@8		; CPersonalRoomServiceManager `RTTI Type Descriptor'
PUBLIC	??_R3CPersonalRoomServiceManager@@8		; CPersonalRoomServiceManager::`RTTI Class Hierarchy Descriptor'
PUBLIC	??_R2CPersonalRoomServiceManager@@8		; CPersonalRoomServiceManager::`RTTI Base Class Array'
PUBLIC	??_R1A@?0A@EA@CPersonalRoomServiceManager@@8	; CPersonalRoomServiceManager::`RTTI Base Class Descriptor at (0,-1,0,64)'
EXTRN	??_M@YGXPAXIIP6EX0@Z@Z:PROC			; `eh vector destructor iterator'
EXTRN	__purecall:PROC
EXTRN	??2@YAPAXI@Z:PROC				; operator new
EXTRN	??3@YAXPAXI@Z:PROC				; operator delete
EXTRN	??_V@YAXPAXI@Z:PROC				; operator delete[]
EXTRN	_memcmp:PROC
EXTRN	_memset:PROC
EXTRN	__imp__OutputDebugStringA@4:PROC
EXTRN	__imp__lstrcpynA@12:PROC
EXTRN	__imp__wsprintfA:PROC
EXTRN	__imp__PeekMessageA@20:PROC
EXTRN	__imp__PostQuitMessage@4:PROC
EXTRN	__imp___CrtDbgReport:PROC
EXTRN	??0CPersonalRoomGame@@QAE@XZ:PROC		; CPersonalRoomGame::CPersonalRoomGame
EXTRN	@__security_check_cookie@4:PROC
EXTRN	__CxxThrowException@8:PROC
EXTRN	___CxxFrameHandler3:PROC
EXTRN	_memset:PROC
EXTRN	??_7type_info@@6B@:QWORD			; type_info::`vftable'
EXTRN	___security_cookie:DWORD
;	COMDAT ??_R1A@?0A@EA@CPersonalRoomServiceManager@@8
rdata$r	SEGMENT
??_R1A@?0A@EA@CPersonalRoomServiceManager@@8 DD FLAT:??_R0?AVCPersonalRoomServiceManager@@@8 ; CPersonalRoomServiceManager::`RTTI Base Class Descriptor at (0,-1,0,64)'
	DD	02H
	DD	00H
	DD	0ffffffffH
	DD	00H
	DD	040H
	DD	FLAT:??_R3CPersonalRoomServiceManager@@8
rdata$r	ENDS
;	COMDAT ??_R2CPersonalRoomServiceManager@@8
rdata$r	SEGMENT
??_R2CPersonalRoomServiceManager@@8 DD FLAT:??_R1A@?0A@EA@CPersonalRoomServiceManager@@8 ; CPersonalRoomServiceManager::`RTTI Base Class Array'
	DD	FLAT:??_R1A@?0A@EA@IPersonalRoomServiceManager@@8
	DD	FLAT:??_R1A@?0A@EA@IUnknownEx@@8
rdata$r	ENDS
;	COMDAT ??_R3CPersonalRoomServiceManager@@8
rdata$r	SEGMENT
??_R3CPersonalRoomServiceManager@@8 DD 00H		; CPersonalRoomServiceManager::`RTTI Class Hierarchy Descriptor'
	DD	00H
	DD	03H
	DD	FLAT:??_R2CPersonalRoomServiceManager@@8
rdata$r	ENDS
;	COMDAT ??_R0?AVCPersonalRoomServiceManager@@@8
data$r	SEGMENT
??_R0?AVCPersonalRoomServiceManager@@@8 DD FLAT:??_7type_info@@6B@ ; CPersonalRoomServiceManager `RTTI Type Descriptor'
	DD	00H
	DB	'.?AVCPersonalRoomServiceManager@@', 00H
data$r	ENDS
;	COMDAT ??_R4CPersonalRoomServiceManager@@6B@
rdata$r	SEGMENT
??_R4CPersonalRoomServiceManager@@6B@ DD 00H		; CPersonalRoomServiceManager::`RTTI Complete Object Locator'
	DD	00H
	DD	00H
	DD	FLAT:??_R0?AVCPersonalRoomServiceManager@@@8
	DD	FLAT:??_R3CPersonalRoomServiceManager@@8
rdata$r	ENDS
;	COMDAT ??_R1A@?0A@EA@IPersonalRoomServiceManager@@8
rdata$r	SEGMENT
??_R1A@?0A@EA@IPersonalRoomServiceManager@@8 DD FLAT:??_R0?AUIPersonalRoomServiceManager@@@8 ; IPersonalRoomServiceManager::`RTTI Base Class Descriptor at (0,-1,0,64)'
	DD	01H
	DD	00H
	DD	0ffffffffH
	DD	00H
	DD	040H
	DD	FLAT:??_R3IPersonalRoomServiceManager@@8
rdata$r	ENDS
;	COMDAT ??_R2IPersonalRoomServiceManager@@8
rdata$r	SEGMENT
??_R2IPersonalRoomServiceManager@@8 DD FLAT:??_R1A@?0A@EA@IPersonalRoomServiceManager@@8 ; IPersonalRoomServiceManager::`RTTI Base Class Array'
	DD	FLAT:??_R1A@?0A@EA@IUnknownEx@@8
rdata$r	ENDS
;	COMDAT ??_R3IPersonalRoomServiceManager@@8
rdata$r	SEGMENT
??_R3IPersonalRoomServiceManager@@8 DD 00H		; IPersonalRoomServiceManager::`RTTI Class Hierarchy Descriptor'
	DD	00H
	DD	02H
	DD	FLAT:??_R2IPersonalRoomServiceManager@@8
rdata$r	ENDS
;	COMDAT ??_R0?AUIPersonalRoomServiceManager@@@8
data$r	SEGMENT
??_R0?AUIPersonalRoomServiceManager@@@8 DD FLAT:??_7type_info@@6B@ ; IPersonalRoomServiceManager `RTTI Type Descriptor'
	DD	00H
	DB	'.?AUIPersonalRoomServiceManager@@', 00H
data$r	ENDS
;	COMDAT ??_R4IPersonalRoomServiceManager@@6B@
rdata$r	SEGMENT
??_R4IPersonalRoomServiceManager@@6B@ DD 00H		; IPersonalRoomServiceManager::`RTTI Complete Object Locator'
	DD	00H
	DD	00H
	DD	FLAT:??_R0?AUIPersonalRoomServiceManager@@@8
	DD	FLAT:??_R3IPersonalRoomServiceManager@@8
rdata$r	ENDS
;	COMDAT ??_R1A@?0A@EA@IUnknownEx@@8
rdata$r	SEGMENT
??_R1A@?0A@EA@IUnknownEx@@8 DD FLAT:??_R0?AUIUnknownEx@@@8 ; IUnknownEx::`RTTI Base Class Descriptor at (0,-1,0,64)'
	DD	00H
	DD	00H
	DD	0ffffffffH
	DD	00H
	DD	040H
	DD	FLAT:??_R3IUnknownEx@@8
rdata$r	ENDS
;	COMDAT ??_R2IUnknownEx@@8
rdata$r	SEGMENT
??_R2IUnknownEx@@8 DD FLAT:??_R1A@?0A@EA@IUnknownEx@@8	; IUnknownEx::`RTTI Base Class Array'
rdata$r	ENDS
;	COMDAT ??_R3IUnknownEx@@8
rdata$r	SEGMENT
??_R3IUnknownEx@@8 DD 00H				; IUnknownEx::`RTTI Class Hierarchy Descriptor'
	DD	00H
	DD	01H
	DD	FLAT:??_R2IUnknownEx@@8
rdata$r	ENDS
;	COMDAT ??_R0?AUIUnknownEx@@@8
data$r	SEGMENT
??_R0?AUIUnknownEx@@@8 DD FLAT:??_7type_info@@6B@	; IUnknownEx `RTTI Type Descriptor'
	DD	00H
	DB	'.?AUIUnknownEx@@', 00H
data$r	ENDS
;	COMDAT ??_R4IUnknownEx@@6B@
rdata$r	SEGMENT
??_R4IUnknownEx@@6B@ DD 00H				; IUnknownEx::`RTTI Complete Object Locator'
	DD	00H
	DD	00H
	DD	FLAT:??_R0?AUIUnknownEx@@@8
	DD	FLAT:??_R3IUnknownEx@@8
rdata$r	ENDS
;	COMDAT ??_C@_0N@DLOPLLLM@?$LN?S?$LP?Z?$LC?i?Q?$KP?J?$KH?$LA?$NM@
CONST	SEGMENT
??_C@_0N@DLOPLLLM@?$LN?S?$LP?Z?$LC?i?Q?$KP?J?$KH?$LA?$NM@ DB 0bdH, 0d3H, 0bfH
	DB	0daH, 0b2H, 0e9H, 0d1H, 0afH, 0caH, 0a7H, 0b0H, 0dcH, 00H ; `string'
CONST	ENDS
;	COMDAT ??_C@_08HBOFLKLL@?$LE?$LE?$LN?$KI?J?$KH?$LA?$NM@
CONST	SEGMENT
??_C@_08HBOFLKLL@?$LE?$LE?$LN?$KI?J?$KH?$LA?$NM@ DB 0b4H, 0b4H, 0bdH, 0a8H
	DB	0caH, 0a7H, 0b0H, 0dcH, 00H			; `string'
CONST	ENDS
;	COMDAT ?__LINE__Var@?0??GetServerUserItemSink@CPersonalRoomServiceManager@@UAEPAUIUnknownEx@@XZ@4JA
_DATA	SEGMENT
?__LINE__Var@?0??GetServerUserItemSink@CPersonalRoomServiceManager@@UAEPAUIUnknownEx@@XZ@4JA DD 0156H ; `CPersonalRoomServiceManager::GetServerUserItemSink'::`1'::__LINE__Var
_DATA	ENDS
;	COMDAT ??_C@_0CL@HNECKIB@ptdt?5?$CK?$CK?$CK?5OnTCPNetworkSubQueryUs@
CONST	SEGMENT
??_C@_0CL@HNECKIB@ptdt?5?$CK?$CK?$CK?5OnTCPNetworkSubQueryUs@ DB 'ptdt **'
	DB	'* OnTCPNetworkSubQueryUserRoomScore', 00H	; `string'
CONST	ENDS
;	COMDAT ?__LINE__Var@?0??OnTCPNetworkSubQueryUserRoomScore@CPersonalRoomServiceManager@@UAE_NPAXGKPAUIDataBaseEngine@@@Z@4JA
_DATA	SEGMENT
?__LINE__Var@?0??OnTCPNetworkSubQueryUserRoomScore@CPersonalRoomServiceManager@@UAE_NPAXGKPAUIDataBaseEngine@@@Z@4JA DD 013dH ; `CPersonalRoomServiceManager::OnTCPNetworkSubQueryUserRoomScore'::`1'::__LINE__Var
_DATA	ENDS
;	COMDAT ??_C@_0FO@NAEDIFFF@ptdt?5?$CK?$CK?$CK?5?$LF?G?B?$LM?$LH?$PO?N?q?F?w?5?$LC?i?Q?$KP?K?$LN?H?K?$LH?$LP?$LM@
CONST	SEGMENT
??_C@_0FO@NAEDIFFF@ptdt?5?$CK?$CK?$CK?5?$LF?G?B?$LM?$LH?$PO?N?q?F?w?5?$LC?i?Q?$KP?K?$LN?H?K?$LH?$LP?$LM@ DB 'p'
	DB	'tdt *** ', 0b5H, 0c7H, 0c2H, 0bcH, 0b7H, 0feH, 0ceH, 0f1H, 0c6H
	DB	0f7H, ' ', 0b2H, 0e9H, 0d1H, 0afH, 0cbH, 0bdH, 0c8H, 0cbH, 0b7H
	DB	0bfH, 0bcH, 0e4H, 0c1H, 0d0H, 0b1H, 0edH, ' dwSocketID = %d   '
	DB	'SC_QeuryPersonalRoomList.dwUserID = %d', 00H ; `string'
CONST	ENDS
;	COMDAT ?__LINE__Var@?0??OnTCPNetworkSubMBQueryPersonalRoomList@CPersonalRoomServiceManager@@UAE_NPAXGKPAUITCPSocketService@@@Z@4JA
_DATA	SEGMENT
?__LINE__Var@?0??OnTCPNetworkSubMBQueryPersonalRoomList@CPersonalRoomServiceManager@@UAE_NPAXGKPAUITCPSocketService@@@Z@4JA DD 0125H ; `CPersonalRoomServiceManager::OnTCPNetworkSubMBQueryPersonalRoomList'::`1'::__LINE__Var
_DATA	ENDS
;	COMDAT ?__LINE__Var@?0??OnTCPNetworkSubMBPersonalParameter@CPersonalRoomServiceManager@@UAE_NPAXGKPAUIDataBaseEngine@@@Z@4JA
_DATA	SEGMENT
?__LINE__Var@?0??OnTCPNetworkSubMBPersonalParameter@CPersonalRoomServiceManager@@UAE_NPAXGKPAUIDataBaseEngine@@@Z@4JA DD 0110H ; `CPersonalRoomServiceManager::OnTCPNetworkSubMBPersonalParameter'::`1'::__LINE__Var
_DATA	ENDS
;	COMDAT ?__LINE__Var@?0??OnTCPNetworkSubMBDissumeSearchServerTable@CPersonalRoomServiceManager@@UAE_NPAXGKPAUtagPersonalBindParameter@@PAUITCPSocketService@@@Z@4JA
_DATA	SEGMENT
?__LINE__Var@?0??OnTCPNetworkSubMBDissumeSearchServerTable@CPersonalRoomServiceManager@@UAE_NPAXGKPAUtagPersonalBindParameter@@PAUITCPSocketService@@@Z@4JA DD 0fbH ; `CPersonalRoomServiceManager::OnTCPNetworkSubMBDissumeSearchServerTable'::`1'::__LINE__Var
_DATA	ENDS
;	COMDAT ?__LINE__Var@?0??OnTCPNetworkSubMBSearchServerTable@CPersonalRoomServiceManager@@UAE_NPAXGKPAUtagPersonalBindParameter@@PAUITCPSocketService@@@Z@4JA
_DATA	SEGMENT
?__LINE__Var@?0??OnTCPNetworkSubMBSearchServerTable@CPersonalRoomServiceManager@@UAE_NPAXGKPAUtagPersonalBindParameter@@PAUITCPSocketService@@@Z@4JA DD 0e5H ; `CPersonalRoomServiceManager::OnTCPNetworkSubMBSearchServerTable'::`1'::__LINE__Var
_DATA	ENDS
;	COMDAT ?__LINE__Var@?0??OnTCPNetworkSubMBQueryGameServer@CPersonalRoomServiceManager@@UAE_NPAXGKPAUtagPersonalBindParameter@@PAUITCPSocketService@@@Z@4JA
_DATA	SEGMENT
?__LINE__Var@?0??OnTCPNetworkSubMBQueryGameServer@CPersonalRoomServiceManager@@UAE_NPAXGKPAUtagPersonalBindParameter@@PAUITCPSocketService@@@Z@4JA DD 0cdH ; `CPersonalRoomServiceManager::OnTCPNetworkSubMBQueryGameServer'::`1'::__LINE__Var
_DATA	ENDS
;	COMDAT ??_C@_0BG@CPFLEHPP@ptdtsr?5?$CK?$CK?$CK?5?K?$LN?H?K?$LH?$LP?$LC?b?J?T@
CONST	SEGMENT
??_C@_0BG@CPFLEHPP@ptdtsr?5?$CK?$CK?$CK?5?K?$LN?H?K?$LH?$LP?$LC?b?J?T@ DB 'p'
	DB	'tdtsr *** ', 0cbH, 0bdH, 0c8H, 0cbH, 0b7H, 0bfH, 0b2H, 0e2H, 0caH
	DB	0d4H, 00H					; `string'
CONST	ENDS
;	COMDAT ?__LINE__Var@?0??OnEventUserLogonFinish@CPersonalRoomServiceManager@@UAE_NPAUIServerUserItem@@@Z@4JA
_DATA	SEGMENT
?__LINE__Var@?0??OnEventUserLogonFinish@CPersonalRoomServiceManager@@UAE_NPAUIServerUserItem@@@Z@4JA DD 0bbH ; `CPersonalRoomServiceManager::OnEventUserLogonFinish'::`1'::__LINE__Var
_DATA	ENDS
;	COMDAT ?__LINE__Var@?0??OnEventUserLogout@CPersonalRoomServiceManager@@UAE_NPAUIServerUserItem@@@Z@4JA
_DATA	SEGMENT
?__LINE__Var@?0??OnEventUserLogout@CPersonalRoomServiceManager@@UAE_NPAUIServerUserItem@@@Z@4JA DD 0afH ; `CPersonalRoomServiceManager::OnEventUserLogout'::`1'::__LINE__Var
_DATA	ENDS
;	COMDAT ?__LINE__Var@?0??OnEventUserLogon@CPersonalRoomServiceManager@@UAE_NPAUIServerUserItem@@@Z@4JA
_DATA	SEGMENT
?__LINE__Var@?0??OnEventUserLogon@CPersonalRoomServiceManager@@UAE_NPAUIServerUserItem@@@Z@4JA DD 0a3H ; `CPersonalRoomServiceManager::OnEventUserLogon'::`1'::__LINE__Var
_DATA	ENDS
;	COMDAT ?__LINE__Var@?0??OnTCPSocketMainServiceInfo@CPersonalRoomServiceManager@@UAE_NGPAXG@Z@4JA
_DATA	SEGMENT
?__LINE__Var@?0??OnTCPSocketMainServiceInfo@CPersonalRoomServiceManager@@UAE_NGPAXG@Z@4JA DD 098H ; `CPersonalRoomServiceManager::OnTCPSocketMainServiceInfo'::`1'::__LINE__Var
_DATA	ENDS
;	COMDAT ?__LINE__Var@?0??OnEventSocketPersonalRoom@CPersonalRoomServiceManager@@UAE_NGPAXGPAUIServerUserItem@@K@Z@4JA
_DATA	SEGMENT
?__LINE__Var@?0??OnEventSocketPersonalRoom@CPersonalRoomServiceManager@@UAE_NGPAXGPAUIServerUserItem@@K@Z@4JA DD 08cH ; `CPersonalRoomServiceManager::OnEventSocketPersonalRoom'::`1'::__LINE__Var
_DATA	ENDS
;	COMDAT ?__LINE__Var@?0??OnEventDataBase@CPersonalRoomServiceManager@@UAE_NGPAUIServerUserItem@@PAXGK@Z@4JA
_DATA	SEGMENT
?__LINE__Var@?0??OnEventDataBase@CPersonalRoomServiceManager@@UAE_NGPAUIServerUserItem@@PAXGK@Z@4JA DD 07fH ; `CPersonalRoomServiceManager::OnEventDataBase'::`1'::__LINE__Var
_DATA	ENDS
;	COMDAT ?__LINE__Var@?0??OnEventTimer@CPersonalRoomServiceManager@@UAE_NKI@Z@4JA
_DATA	SEGMENT
?__LINE__Var@?0??OnEventTimer@CPersonalRoomServiceManager@@UAE_NKI@Z@4JA DD 073H ; `CPersonalRoomServiceManager::OnEventTimer'::`1'::__LINE__Var
_DATA	ENDS
;	COMDAT ?__LINE__Var@?0??InitPersonalRooomInterface@CPersonalRoomServiceManager@@UAE_NAAUtagPersonalRoomManagerParameter@@@Z@4JA
_DATA	SEGMENT
?__LINE__Var@?0??InitPersonalRooomInterface@CPersonalRoomServiceManager@@UAE_NAAUtagPersonalRoomManagerParameter@@@Z@4JA DD 067H ; `CPersonalRoomServiceManager::InitPersonalRooomInterface'::`1'::__LINE__Var
_DATA	ENDS
;	COMDAT ?__LINE__Var@?0??BindTableFrame@CPersonalRoomServiceManager@@UAE_NPAUITableFrame@@G@Z@4JA
_DATA	SEGMENT
?__LINE__Var@?0??BindTableFrame@CPersonalRoomServiceManager@@UAE_NPAUITableFrame@@G@Z@4JA DD 05aH ; `CPersonalRoomServiceManager::BindTableFrame'::`1'::__LINE__Var
_DATA	ENDS
;	COMDAT ??_C@_0BD@NGFHCBFH@?$LE?$LE?$LN?$KI?T?$LM?U?$LN?$LH?$LP?$LM?d?J?$KH?$LA?$NM?$KD?$KB@
CONST	SEGMENT
??_C@_0BD@NGFHCBFH@?$LE?$LE?$LN?$KI?T?$LM?U?$LN?$LH?$LP?$LM?d?J?$KH?$LA?$NM?$KD?$KB@ DB 0b4H
	DB	0b4H, 0bdH, 0a8H, 0d4H, 0bcH, 0d5H, 0bdH, 0b7H, 0bfH, 0bcH, 0e4H
	DB	0caH, 0a7H, 0b0H, 0dcH, 0a3H, 0a1H, 00H	; `string'
CONST	ENDS
;	COMDAT __CT??_R0PAX@84
xdata$x	SEGMENT
__CT??_R0PAX@84 DD 01H
	DD	FLAT:??_R0PAX@8
	DD	00H
	DD	0ffffffffH
	ORG $+4
	DD	04H
	DD	00H
xdata$x	ENDS
;	COMDAT ??_R0PAX@8
data$r	SEGMENT
??_R0PAX@8 DD	FLAT:??_7type_info@@6B@			; void * `RTTI Type Descriptor'
	DD	00H
	DB	'.PAX', 00H
data$r	ENDS
;	COMDAT __CT??_R0PAD@84
xdata$x	SEGMENT
__CT??_R0PAD@84 DD 01H
	DD	FLAT:??_R0PAD@8
	DD	00H
	DD	0ffffffffH
	ORG $+4
	DD	04H
	DD	00H
xdata$x	ENDS
;	COMDAT ??_R0PAD@8
data$r	SEGMENT
??_R0PAD@8 DD	FLAT:??_7type_info@@6B@			; char * `RTTI Type Descriptor'
	DD	00H
	DB	'.PAD', 00H
data$r	ENDS
;	COMDAT __CTA2PAD
xdata$x	SEGMENT
__CTA2PAD DD	02H
	DD	FLAT:__CT??_R0PAD@84
	DD	FLAT:__CT??_R0PAX@84
xdata$x	ENDS
;	COMDAT __TI2PAD
xdata$x	SEGMENT
__TI2PAD DD	00H
	DD	00H
	DD	00H
	DD	FLAT:__CTA2PAD
xdata$x	ENDS
;	COMDAT ?__LINE__Var@?0??CreatePersonalRoom@CPersonalRoomServiceManager@@UAE_NE@Z@4JA
_DATA	SEGMENT
?__LINE__Var@?0??CreatePersonalRoom@CPersonalRoomServiceManager@@UAE_NE@Z@4JA DD 045H ; `CPersonalRoomServiceManager::CreatePersonalRoom'::`1'::__LINE__Var
_DATA	ENDS
;	COMDAT ?__LINE__Var@?0??StartService@CPersonalRoomServiceManager@@UAE_NXZ@4JA
_DATA	SEGMENT
?__LINE__Var@?0??StartService@CPersonalRoomServiceManager@@UAE_NXZ@4JA DD 02dH ; `CPersonalRoomServiceManager::StartService'::`1'::__LINE__Var
_DATA	ENDS
;	COMDAT ?__LINE__Var@?0??StopService@CPersonalRoomServiceManager@@UAE_NXZ@4JA
_DATA	SEGMENT
?__LINE__Var@?0??StopService@CPersonalRoomServiceManager@@UAE_NXZ@4JA DD 01eH ; `CPersonalRoomServiceManager::StopService'::`1'::__LINE__Var
_DATA	ENDS
;	COMDAT ??_C@_0FH@KBPFBDOA@g?3?2?M?x?$LK?$PM?2happygamewh?2?$LH?$PO?N?q?$LG?K?2?O?$LF?M?$LD@
CONST	SEGMENT
??_C@_0FH@KBPFBDOA@g?3?2?M?x?$LK?$PM?2happygamewh?2?$LH?$PO?N?q?$LG?K?2?O?$LF?M?$LD@ DB 'g'
	DB	':\', 0cdH, 0f8H, 0baH, 0fcH, '\happygamewh\', 0b7H, 0feH, 0ceH
	DB	0f1H, 0b6H, 0cbH, '\', 0cfH, 0b5H, 0cdH, 0b3H, 0c4H, 0a3H, 0bfH
	DB	0e9H, '\', 0b7H, 0feH, 0ceH, 0f1H, 0c6H, 0f7H, 0d7H, 0e9H, 0bcH
	DB	0feH, '\', 0d4H, 0bcH, 0d5H, 0bdH, 0b7H, 0feH, 0ceH, 0f1H, '\p'
	DB	'ersonalroomservicemanager.cpp', 00H		; `string'
CONST	ENDS
;	COMDAT ?__LINE__Var@?0???1CPersonalRoomServiceManager@@UAE@XZ@4JA
_DATA	SEGMENT
?__LINE__Var@?0???1CPersonalRoomServiceManager@@UAE@XZ@4JA DD 017H ; `CPersonalRoomServiceManager::~CPersonalRoomServiceManager'::`1'::__LINE__Var
_DATA	ENDS
;	COMDAT ??_7CPersonalRoomServiceManager@@6B@
CONST	SEGMENT
??_7CPersonalRoomServiceManager@@6B@ DD FLAT:??_R4CPersonalRoomServiceManager@@6B@ ; CPersonalRoomServiceManager::`vftable'
	DD	FLAT:?Release@CPersonalRoomServiceManager@@UAEXXZ
	DD	FLAT:?QueryInterface@CPersonalRoomServiceManager@@UAEPAXABU_GUID@@K@Z
	DD	FLAT:?StopService@CPersonalRoomServiceManager@@UAE_NXZ
	DD	FLAT:?StartService@CPersonalRoomServiceManager@@UAE_NXZ
	DD	FLAT:?CreatePersonalRoom@CPersonalRoomServiceManager@@UAE_NE@Z
	DD	FLAT:?BindTableFrame@CPersonalRoomServiceManager@@UAE_NPAUITableFrame@@G@Z
	DD	FLAT:?InitPersonalRooomInterface@CPersonalRoomServiceManager@@UAE_NAAUtagPersonalRoomManagerParameter@@@Z
	DD	FLAT:?OnEventTimer@CPersonalRoomServiceManager@@UAE_NKI@Z
	DD	FLAT:?OnEventDataBase@CPersonalRoomServiceManager@@UAE_NGPAUIServerUserItem@@PAXGK@Z
	DD	FLAT:?OnEventSocketPersonalRoom@CPersonalRoomServiceManager@@UAE_NGPAXGPAUIServerUserItem@@K@Z
	DD	FLAT:?OnTCPSocketMainServiceInfo@CPersonalRoomServiceManager@@UAE_NGPAXG@Z
	DD	FLAT:?OnEventUserLogon@CPersonalRoomServiceManager@@UAE_NPAUIServerUserItem@@@Z
	DD	FLAT:?OnEventUserLogout@CPersonalRoomServiceManager@@UAE_NPAUIServerUserItem@@@Z
	DD	FLAT:?OnEventUserLogonFinish@CPersonalRoomServiceManager@@UAE_NPAUIServerUserItem@@@Z
	DD	FLAT:?GetServerUserItemSink@CPersonalRoomServiceManager@@UAEPAUIUnknownEx@@XZ
	DD	FLAT:?TestPersonal@CPersonalRoomServiceManager@@UAEXXZ
	DD	FLAT:?OnTCPNetworkSubMBQueryGameServer@CPersonalRoomServiceManager@@UAE_NPAXGKPAUtagPersonalBindParameter@@PAUITCPSocketService@@@Z
	DD	FLAT:?OnTCPNetworkSubMBSearchServerTable@CPersonalRoomServiceManager@@UAE_NPAXGKPAUtagPersonalBindParameter@@PAUITCPSocketService@@@Z
	DD	FLAT:?OnTCPNetworkSubMBDissumeSearchServerTable@CPersonalRoomServiceManager@@UAE_NPAXGKPAUtagPersonalBindParameter@@PAUITCPSocketService@@@Z
	DD	FLAT:?OnTCPNetworkSubMBPersonalParameter@CPersonalRoomServiceManager@@UAE_NPAXGKPAUIDataBaseEngine@@@Z
	DD	FLAT:?OnTCPNetworkSubMBQueryPersonalRoomList@CPersonalRoomServiceManager@@UAE_NPAXGKPAUITCPSocketService@@@Z
	DD	FLAT:?OnTCPNetworkSubQueryUserRoomScore@CPersonalRoomServiceManager@@UAE_NPAXGKPAUIDataBaseEngine@@@Z
	DD	FLAT:??_ECPersonalRoomServiceManager@@UAEPAXI@Z
CONST	ENDS
;	COMDAT ??_7IPersonalRoomServiceManager@@6B@
CONST	SEGMENT
??_7IPersonalRoomServiceManager@@6B@ DD FLAT:??_R4IPersonalRoomServiceManager@@6B@ ; IPersonalRoomServiceManager::`vftable'
	DD	FLAT:__purecall
	DD	FLAT:__purecall
	DD	FLAT:__purecall
	DD	FLAT:__purecall
	DD	FLAT:__purecall
	DD	FLAT:__purecall
	DD	FLAT:__purecall
	DD	FLAT:__purecall
	DD	FLAT:__purecall
	DD	FLAT:__purecall
	DD	FLAT:__purecall
	DD	FLAT:__purecall
	DD	FLAT:__purecall
	DD	FLAT:__purecall
	DD	FLAT:__purecall
	DD	FLAT:__purecall
	DD	FLAT:__purecall
	DD	FLAT:__purecall
	DD	FLAT:__purecall
	DD	FLAT:__purecall
	DD	FLAT:__purecall
	DD	FLAT:__purecall
CONST	ENDS
;	COMDAT ??_7IUnknownEx@@6B@
CONST	SEGMENT
??_7IUnknownEx@@6B@ DD FLAT:??_R4IUnknownEx@@6B@	; IUnknownEx::`vftable'
	DD	FLAT:__purecall
	DD	FLAT:__purecall
CONST	ENDS
;	COMDAT xdata$x
xdata$x	SEGMENT
__catchsym$_CreatePersonalRoomServiceManager$6 DD 040H
	DD	00H
	DD	00H
	DD	FLAT:__catch$_CreatePersonalRoomServiceManager$2
__catchsym$_CreatePersonalRoomServiceManager$5 DD 040H
	DD	00H
	DD	00H
	DD	FLAT:__catch$_CreatePersonalRoomServiceManager$0
__ehfuncinfo$_CreatePersonalRoomServiceManager DD 019930522H
	DD	05H
	DD	FLAT:__unwindtable$_CreatePersonalRoomServiceManager
	DD	02H
	DD	FLAT:__tryblocktable$_CreatePersonalRoomServiceManager
	DD	2 DUP(00H)
	DD	00H
	DD	01H
__tryblocktable$_CreatePersonalRoomServiceManager DD 00H
	DD	01H
	DD	02H
	DD	01H
	DD	FLAT:__catchsym$_CreatePersonalRoomServiceManager$5
	DD	03H
	DD	03H
	DD	04H
	DD	01H
	DD	FLAT:__catchsym$_CreatePersonalRoomServiceManager$6
__unwindtable$_CreatePersonalRoomServiceManager DD 0ffffffffH
	DD	00H
	DD	00H
	DD	FLAT:__unwindfunclet$_CreatePersonalRoomServiceManager$4
	DD	0ffffffffH
	DD	00H
	DD	0ffffffffH
	DD	00H
	DD	0ffffffffH
	DD	00H
xdata$x	ENDS
;	COMDAT xdata$x
xdata$x	SEGMENT
__ehfuncinfo$??_ECPersonalRoomServiceManager@@UAEPAXI@Z DD 019930522H
	DD	00H
	DD	00H
	DD	2 DUP(00H)
	DD	2 DUP(00H)
	DD	00H
	DD	05H
xdata$x	ENDS
;	COMDAT xdata$x
xdata$x	SEGMENT
__catchsym$?CreatePersonalRoom@CPersonalRoomServiceManager@@UAE_NE@Z$3 DD 040H
	DD	00H
	DD	00H
	DD	FLAT:__catch$?CreatePersonalRoom@CPersonalRoomServiceManager@@UAE_NE@Z$0
__tryblocktable$?CreatePersonalRoom@CPersonalRoomServiceManager@@UAE_NE@Z DD 00H
	DD	01H
	DD	02H
	DD	01H
	DD	FLAT:__catchsym$?CreatePersonalRoom@CPersonalRoomServiceManager@@UAE_NE@Z$3
__unwindtable$?CreatePersonalRoom@CPersonalRoomServiceManager@@UAE_NE@Z DD 0ffffffffH
	DD	00H
	DD	00H
	DD	FLAT:__unwindfunclet$?CreatePersonalRoom@CPersonalRoomServiceManager@@UAE_NE@Z$2
	DD	0ffffffffH
	DD	00H
__ehfuncinfo$?CreatePersonalRoom@CPersonalRoomServiceManager@@UAE_NE@Z DD 019930522H
	DD	03H
	DD	FLAT:__unwindtable$?CreatePersonalRoom@CPersonalRoomServiceManager@@UAE_NE@Z
	DD	01H
	DD	FLAT:__tryblocktable$?CreatePersonalRoom@CPersonalRoomServiceManager@@UAE_NE@Z
	DD	2 DUP(00H)
	DD	00H
	DD	01H
xdata$x	ENDS
;	COMDAT xdata$x
xdata$x	SEGMENT
__catchsym$??1CPersonalRoomServiceManager@@UAE@XZ$2 DD 040H
	DD	00H
	DD	00H
	DD	FLAT:__catch$??1CPersonalRoomServiceManager@@UAE@XZ$0
__unwindtable$??1CPersonalRoomServiceManager@@UAE@XZ DD 0ffffffffH
	DD	00H
	DD	0ffffffffH
	DD	00H
__tryblocktable$??1CPersonalRoomServiceManager@@UAE@XZ DD 00H
	DD	00H
	DD	01H
	DD	01H
	DD	FLAT:__catchsym$??1CPersonalRoomServiceManager@@UAE@XZ$2
__ehfuncinfo$??1CPersonalRoomServiceManager@@UAE@XZ DD 019930522H
	DD	02H
	DD	FLAT:__unwindtable$??1CPersonalRoomServiceManager@@UAE@XZ
	DD	01H
	DD	FLAT:__tryblocktable$??1CPersonalRoomServiceManager@@UAE@XZ
	DD	2 DUP(00H)
	DD	00H
	DD	05H
xdata$x	ENDS
; Function compile flags: /Odtp /ZI
; File g:\网狐\happygamewh\服务端\系统模块\服务器组件\约战服务\personalroomservicemanager.cpp
;	COMDAT _CreatePersonalRoomServiceManager
_TEXT	SEGMENT
tv75 = -124						; size = 4
tv143 = -120						; size = 4
tv144 = -116						; size = 4
tv140 = -116						; size = 4
tv129 = -116						; size = 4
$T2 = -112						; size = 4
$T3 = -108						; size = 4
$T4 = -104						; size = 4
$T5 = -100						; size = 4
$T6 = -96						; size = 4
$T7 = -92						; size = 4
_pObject$8 = -24					; size = 4
_pPersonalRoomServiceManager$ = -20			; size = 4
__$EHRec$ = -16						; size = 16
_Guid$ = 8						; size = 4
_dwInterfaceVer$ = 12					; size = 4
_CreatePersonalRoomServiceManager PROC			; COMDAT

; 354  : DECLARE_CREATE_MODULE(PersonalRoomServiceManager);

  00000	55		 push	 ebp
  00001	8b ec		 mov	 ebp, esp
  00003	6a ff		 push	 -1
  00005	68 00 00 00 00	 push	 __ehhandler$_CreatePersonalRoomServiceManager
  0000a	64 a1 00 00 00
	00		 mov	 eax, DWORD PTR fs:0
  00010	50		 push	 eax
  00011	51		 push	 ecx
  00012	83 ec 6c	 sub	 esp, 108		; 0000006cH
  00015	53		 push	 ebx
  00016	56		 push	 esi
  00017	57		 push	 edi
  00018	a1 00 00 00 00	 mov	 eax, DWORD PTR ___security_cookie
  0001d	33 c5		 xor	 eax, ebp
  0001f	50		 push	 eax
  00020	8d 45 f4	 lea	 eax, DWORD PTR __$EHRec$[ebp+4]
  00023	64 a3 00 00 00
	00		 mov	 DWORD PTR fs:0, eax
  00029	89 65 f0	 mov	 DWORD PTR __$EHRec$[ebp], esp
  0002c	c7 45 ec 00 00
	00 00		 mov	 DWORD PTR _pPersonalRoomServiceManager$[ebp], 0
  00033	c7 45 fc 00 00
	00 00		 mov	 DWORD PTR __$EHRec$[ebp+12], 0
  0003a	6a 10		 push	 16			; 00000010H
  0003c	e8 00 00 00 00	 call	 ??2@YAPAXI@Z		; operator new
  00041	83 c4 04	 add	 esp, 4
  00044	89 45 8c	 mov	 DWORD PTR tv140[ebp], eax
  00047	8b 45 8c	 mov	 eax, DWORD PTR tv140[ebp]
  0004a	89 45 a0	 mov	 DWORD PTR $T6[ebp], eax
  0004d	c6 45 fc 01	 mov	 BYTE PTR __$EHRec$[ebp+12], 1
  00051	83 7d a0 00	 cmp	 DWORD PTR $T6[ebp], 0
  00055	74 13		 je	 SHORT $LN7@CreatePers
  00057	8b 4d a0	 mov	 ecx, DWORD PTR $T6[ebp]
  0005a	e8 00 00 00 00	 call	 ??0CPersonalRoomServiceManager@@QAE@XZ ; CPersonalRoomServiceManager::CPersonalRoomServiceManager
  0005f	89 45 88	 mov	 DWORD PTR tv143[ebp], eax
  00062	8b 4d 88	 mov	 ecx, DWORD PTR tv143[ebp]
  00065	89 4d 84	 mov	 DWORD PTR tv75[ebp], ecx
  00068	eb 07		 jmp	 SHORT $LN8@CreatePers
$LN7@CreatePers:
  0006a	c7 45 84 00 00
	00 00		 mov	 DWORD PTR tv75[ebp], 0
$LN8@CreatePers:
  00071	8b 55 84	 mov	 edx, DWORD PTR tv75[ebp]
  00074	89 55 a4	 mov	 DWORD PTR $T7[ebp], edx
  00077	c6 45 fc 00	 mov	 BYTE PTR __$EHRec$[ebp+12], 0
  0007b	8b 45 a4	 mov	 eax, DWORD PTR $T7[ebp]
  0007e	89 45 ec	 mov	 DWORD PTR _pPersonalRoomServiceManager$[ebp], eax
  00081	83 7d ec 00	 cmp	 DWORD PTR _pPersonalRoomServiceManager$[ebp], 0
  00085	75 15		 jne	 SHORT $LN3@CreatePers
  00087	c7 45 9c 00 00
	00 00		 mov	 DWORD PTR $T5[ebp], OFFSET ??_C@_08HBOFLKLL@?$LE?$LE?$LN?$KI?J?$KH?$LA?$NM@
  0008e	68 00 00 00 00	 push	 OFFSET __TI2PAD
  00093	8d 45 9c	 lea	 eax, DWORD PTR $T5[ebp]
  00096	50		 push	 eax
  00097	e8 00 00 00 00	 call	 __CxxThrowException@8
$LN3@CreatePers:
  0009c	8b 45 0c	 mov	 eax, DWORD PTR _dwInterfaceVer$[ebp]
  0009f	50		 push	 eax
  000a0	8b 4d 08	 mov	 ecx, DWORD PTR _Guid$[ebp]
  000a3	51		 push	 ecx
  000a4	8b 55 ec	 mov	 edx, DWORD PTR _pPersonalRoomServiceManager$[ebp]
  000a7	8b 02		 mov	 eax, DWORD PTR [edx]
  000a9	8b 4d ec	 mov	 ecx, DWORD PTR _pPersonalRoomServiceManager$[ebp]
  000ac	8b 50 04	 mov	 edx, DWORD PTR [eax+4]
  000af	ff d2		 call	 edx
  000b1	89 45 8c	 mov	 DWORD PTR tv144[ebp], eax
  000b4	8b 45 8c	 mov	 eax, DWORD PTR tv144[ebp]
  000b7	89 45 e8	 mov	 DWORD PTR _pObject$8[ebp], eax
  000ba	83 7d e8 00	 cmp	 DWORD PTR _pObject$8[ebp], 0
  000be	75 15		 jne	 SHORT $LN4@CreatePers
  000c0	c7 45 98 00 00
	00 00		 mov	 DWORD PTR $T4[ebp], OFFSET ??_C@_0N@DLOPLLLM@?$LN?S?$LP?Z?$LC?i?Q?$KP?J?$KH?$LA?$NM@
  000c7	68 00 00 00 00	 push	 OFFSET __TI2PAD
  000cc	8d 45 98	 lea	 eax, DWORD PTR $T4[ebp]
  000cf	50		 push	 eax
  000d0	e8 00 00 00 00	 call	 __CxxThrowException@8
$LN4@CreatePers:
  000d5	8b 45 e8	 mov	 eax, DWORD PTR _pObject$8[ebp]
  000d8	e9 83 00 00 00	 jmp	 $LN6@CreatePers
__catch$_CreatePersonalRoomServiceManager$0:
  000dd	b8 00 00 00 00	 mov	 eax, $LN18@CreatePers
  000e2	c3		 ret	 0
  000e3	c7 45 fc ff ff
	ff ff		 mov	 DWORD PTR __$EHRec$[ebp+12], -1
  000ea	eb 07		 jmp	 SHORT __tryend$_CreatePersonalRoomServiceManager$1
$LN18@CreatePers:
  000ec	c7 45 fc ff ff
	ff ff		 mov	 DWORD PTR __$EHRec$[ebp+12], -1
__tryend$_CreatePersonalRoomServiceManager$1:
  000f3	c7 45 fc 03 00
	00 00		 mov	 DWORD PTR __$EHRec$[ebp+12], 3
  000fa	8b 45 ec	 mov	 eax, DWORD PTR _pPersonalRoomServiceManager$[ebp]
  000fd	89 45 90	 mov	 DWORD PTR $T2[ebp], eax
  00100	8b 4d 90	 mov	 ecx, DWORD PTR $T2[ebp]
  00103	89 4d 94	 mov	 DWORD PTR $T3[ebp], ecx
  00106	83 7d 94 00	 cmp	 DWORD PTR $T3[ebp], 0
  0010a	74 14		 je	 SHORT $LN9@CreatePers
  0010c	6a 01		 push	 1
  0010e	8b 55 94	 mov	 edx, DWORD PTR $T3[ebp]
  00111	8b 02		 mov	 eax, DWORD PTR [edx]
  00113	8b 4d 94	 mov	 ecx, DWORD PTR $T3[ebp]
  00116	8b 50 58	 mov	 edx, DWORD PTR [eax+88]
  00119	ff d2		 call	 edx
  0011b	89 45 8c	 mov	 DWORD PTR tv129[ebp], eax
  0011e	eb 07		 jmp	 SHORT $LN10@CreatePers
$LN9@CreatePers:
  00120	c7 45 8c 00 00
	00 00		 mov	 DWORD PTR tv129[ebp], 0
$LN10@CreatePers:
  00127	eb 1e		 jmp	 SHORT $LN14@CreatePers
__catch$_CreatePersonalRoomServiceManager$2:
  00129	33 c0		 xor	 eax, eax
  0012b	75 14		 jne	 SHORT $LN11@CreatePers
  0012d	68 62 01 00 00	 push	 354			; 00000162H
  00132	68 00 00 00 00	 push	 OFFSET ??_C@_0FH@KBPFBDOA@g?3?2?M?x?$LK?$PM?2happygamewh?2?$LH?$PO?N?q?$LG?K?2?O?$LF?M?$LD@
  00137	e8 00 00 00 00	 call	 ?AfxAssertFailedLine@@YGHPBDH@Z ; AfxAssertFailedLine
  0013c	85 c0		 test	 eax, eax
  0013e	74 01		 je	 SHORT $LN11@CreatePers
  00140	cc		 int	 3
$LN11@CreatePers:
  00141	b8 00 00 00 00	 mov	 eax, $LN20@CreatePers
  00146	c3		 ret	 0
$LN14@CreatePers:
  00147	c7 45 fc ff ff
	ff ff		 mov	 DWORD PTR __$EHRec$[ebp+12], -1
  0014e	eb 07		 jmp	 SHORT __tryend$_CreatePersonalRoomServiceManager$3
$LN20@CreatePers:
  00150	c7 45 fc ff ff
	ff ff		 mov	 DWORD PTR __$EHRec$[ebp+12], -1
__tryend$_CreatePersonalRoomServiceManager$3:
  00157	c7 45 ec 00 00
	00 00		 mov	 DWORD PTR _pPersonalRoomServiceManager$[ebp], 0
  0015e	33 c0		 xor	 eax, eax
$LN6@CreatePers:
  00160	8b 4d f4	 mov	 ecx, DWORD PTR __$EHRec$[ebp+4]
  00163	64 89 0d 00 00
	00 00		 mov	 DWORD PTR fs:0, ecx
  0016a	59		 pop	 ecx
  0016b	5f		 pop	 edi
  0016c	5e		 pop	 esi
  0016d	5b		 pop	 ebx
  0016e	8b e5		 mov	 esp, ebp
  00170	5d		 pop	 ebp
  00171	c3		 ret	 0
_TEXT	ENDS
;	COMDAT text$x
text$x	SEGMENT
__unwindfunclet$_CreatePersonalRoomServiceManager$4:
  00000	6a 10		 push	 16			; 00000010H
  00002	8b 45 a0	 mov	 eax, DWORD PTR $T6[ebp]
  00005	50		 push	 eax
  00006	e8 00 00 00 00	 call	 ??3@YAXPAXI@Z		; operator delete
  0000b	83 c4 08	 add	 esp, 8
  0000e	c3		 ret	 0
__ehhandler$_CreatePersonalRoomServiceManager:
  0000f	8b 54 24 08	 mov	 edx, DWORD PTR [esp+8]
  00013	8d 42 0c	 lea	 eax, DWORD PTR [edx+12]
  00016	8b 4a 80	 mov	 ecx, DWORD PTR [edx-128]
  00019	33 c8		 xor	 ecx, eax
  0001b	e8 00 00 00 00	 call	 @__security_check_cookie@4
  00020	b8 00 00 00 00	 mov	 eax, OFFSET __ehfuncinfo$_CreatePersonalRoomServiceManager
  00025	e9 00 00 00 00	 jmp	 ___CxxFrameHandler3
text$x	ENDS
_CreatePersonalRoomServiceManager ENDP
; Function compile flags: /Odtp /ZI
;	COMDAT ??_ECPersonalRoomServiceManager@@UAEPAXI@Z
_TEXT	SEGMENT
_this$ = -16						; size = 4
__$EHRec$ = -12						; size = 12
___flags$ = 8						; size = 4
??_ECPersonalRoomServiceManager@@UAEPAXI@Z PROC		; CPersonalRoomServiceManager::`vector deleting destructor', COMDAT
; _this$ = ecx
  00000	55		 push	 ebp
  00001	8b ec		 mov	 ebp, esp
  00003	6a ff		 push	 -1
  00005	68 00 00 00 00	 push	 __ehhandler$??_ECPersonalRoomServiceManager@@UAEPAXI@Z
  0000a	64 a1 00 00 00
	00		 mov	 eax, DWORD PTR fs:0
  00010	50		 push	 eax
  00011	83 ec 44	 sub	 esp, 68			; 00000044H
  00014	53		 push	 ebx
  00015	56		 push	 esi
  00016	57		 push	 edi
  00017	a1 00 00 00 00	 mov	 eax, DWORD PTR ___security_cookie
  0001c	33 c5		 xor	 eax, ebp
  0001e	50		 push	 eax
  0001f	8d 45 f4	 lea	 eax, DWORD PTR __$EHRec$[ebp]
  00022	64 a3 00 00 00
	00		 mov	 DWORD PTR fs:0, eax
  00028	89 4d f0	 mov	 DWORD PTR _this$[ebp], ecx
  0002b	8b 45 08	 mov	 eax, DWORD PTR ___flags$[ebp]
  0002e	83 e0 02	 and	 eax, 2
  00031	74 43		 je	 SHORT $LN2@vector
  00033	68 00 00 00 00	 push	 OFFSET ??1CPersonalRoomServiceManager@@UAE@XZ ; CPersonalRoomServiceManager::~CPersonalRoomServiceManager
  00038	8b 45 f0	 mov	 eax, DWORD PTR _this$[ebp]
  0003b	8b 48 fc	 mov	 ecx, DWORD PTR [eax-4]
  0003e	51		 push	 ecx
  0003f	6a 10		 push	 16			; 00000010H
  00041	8b 55 f0	 mov	 edx, DWORD PTR _this$[ebp]
  00044	52		 push	 edx
  00045	e8 00 00 00 00	 call	 ??_M@YGXPAXIIP6EX0@Z@Z
  0004a	8b 45 08	 mov	 eax, DWORD PTR ___flags$[ebp]
  0004d	83 e0 01	 and	 eax, 1
  00050	74 1c		 je	 SHORT $LN3@vector
  00052	8b 45 f0	 mov	 eax, DWORD PTR _this$[ebp]
  00055	8b 48 fc	 mov	 ecx, DWORD PTR [eax-4]
  00058	c1 e1 04	 shl	 ecx, 4
  0005b	83 c1 04	 add	 ecx, 4
  0005e	51		 push	 ecx
  0005f	8b 55 f0	 mov	 edx, DWORD PTR _this$[ebp]
  00062	83 ea 04	 sub	 edx, 4
  00065	52		 push	 edx
  00066	e8 00 00 00 00	 call	 ??_V@YAXPAXI@Z		; operator delete[]
  0006b	83 c4 08	 add	 esp, 8
$LN3@vector:
  0006e	8b 45 f0	 mov	 eax, DWORD PTR _this$[ebp]
  00071	83 e8 04	 sub	 eax, 4
  00074	eb 21		 jmp	 SHORT $LN5@vector
$LN2@vector:
  00076	8b 4d f0	 mov	 ecx, DWORD PTR _this$[ebp]
  00079	e8 00 00 00 00	 call	 ??1CPersonalRoomServiceManager@@UAE@XZ ; CPersonalRoomServiceManager::~CPersonalRoomServiceManager
  0007e	8b 45 08	 mov	 eax, DWORD PTR ___flags$[ebp]
  00081	83 e0 01	 and	 eax, 1
  00084	74 0e		 je	 SHORT $LN4@vector
  00086	6a 10		 push	 16			; 00000010H
  00088	8b 45 f0	 mov	 eax, DWORD PTR _this$[ebp]
  0008b	50		 push	 eax
  0008c	e8 00 00 00 00	 call	 ??3@YAXPAXI@Z		; operator delete
  00091	83 c4 08	 add	 esp, 8
$LN4@vector:
  00094	8b 45 f0	 mov	 eax, DWORD PTR _this$[ebp]
$LN5@vector:
  00097	8b 4d f4	 mov	 ecx, DWORD PTR __$EHRec$[ebp]
  0009a	64 89 0d 00 00
	00 00		 mov	 DWORD PTR fs:0, ecx
  000a1	59		 pop	 ecx
  000a2	5f		 pop	 edi
  000a3	5e		 pop	 esi
  000a4	5b		 pop	 ebx
  000a5	8b e5		 mov	 esp, ebp
  000a7	5d		 pop	 ebp
  000a8	c2 04 00	 ret	 4
_TEXT	ENDS
;	COMDAT text$x
text$x	SEGMENT
__ehhandler$??_ECPersonalRoomServiceManager@@UAEPAXI@Z:
  00000	8b 54 24 08	 mov	 edx, DWORD PTR [esp+8]
  00004	8d 42 0c	 lea	 eax, DWORD PTR [edx+12]
  00007	8b 4a ac	 mov	 ecx, DWORD PTR [edx-84]
  0000a	33 c8		 xor	 ecx, eax
  0000c	e8 00 00 00 00	 call	 @__security_check_cookie@4
  00011	b8 00 00 00 00	 mov	 eax, OFFSET __ehfuncinfo$??_ECPersonalRoomServiceManager@@UAEPAXI@Z
  00016	e9 00 00 00 00	 jmp	 ___CxxFrameHandler3
text$x	ENDS
??_ECPersonalRoomServiceManager@@UAEPAXI@Z ENDP		; CPersonalRoomServiceManager::`vector deleting destructor'
; Function compile flags: /Odtp /ZI
;	COMDAT ??_GCPersonalRoomServiceManager@@UAEPAXI@Z
_TEXT	SEGMENT
_this$ = -4						; size = 4
___flags$ = 8						; size = 4
??_GCPersonalRoomServiceManager@@UAEPAXI@Z PROC		; CPersonalRoomServiceManager::`scalar deleting destructor', COMDAT
; _this$ = ecx
  00000	55		 push	 ebp
  00001	8b ec		 mov	 ebp, esp
  00003	83 ec 44	 sub	 esp, 68			; 00000044H
  00006	53		 push	 ebx
  00007	56		 push	 esi
  00008	57		 push	 edi
  00009	89 4d fc	 mov	 DWORD PTR _this$[ebp], ecx
  0000c	8b 4d fc	 mov	 ecx, DWORD PTR _this$[ebp]
  0000f	e8 00 00 00 00	 call	 ??1CPersonalRoomServiceManager@@UAE@XZ ; CPersonalRoomServiceManager::~CPersonalRoomServiceManager
  00014	8b 45 08	 mov	 eax, DWORD PTR ___flags$[ebp]
  00017	83 e0 01	 and	 eax, 1
  0001a	74 0e		 je	 SHORT $LN2@scalar
  0001c	6a 10		 push	 16			; 00000010H
  0001e	8b 45 fc	 mov	 eax, DWORD PTR _this$[ebp]
  00021	50		 push	 eax
  00022	e8 00 00 00 00	 call	 ??3@YAXPAXI@Z		; operator delete
  00027	83 c4 08	 add	 esp, 8
$LN2@scalar:
  0002a	8b 45 fc	 mov	 eax, DWORD PTR _this$[ebp]
  0002d	5f		 pop	 edi
  0002e	5e		 pop	 esi
  0002f	5b		 pop	 ebx
  00030	8b e5		 mov	 esp, ebp
  00032	5d		 pop	 ebp
  00033	c2 04 00	 ret	 4
??_GCPersonalRoomServiceManager@@UAEPAXI@Z ENDP		; CPersonalRoomServiceManager::`scalar deleting destructor'
_TEXT	ENDS
; Function compile flags: /Odtp /ZI
;	COMDAT ??4CPersonalRoomServiceManager@@QAEAAV0@ABV0@@Z
_TEXT	SEGMENT
_this$ = -4						; size = 4
___that$ = 8						; size = 4
??4CPersonalRoomServiceManager@@QAEAAV0@ABV0@@Z PROC	; CPersonalRoomServiceManager::operator=, COMDAT
; _this$ = ecx
  00000	55		 push	 ebp
  00001	8b ec		 mov	 ebp, esp
  00003	83 ec 44	 sub	 esp, 68			; 00000044H
  00006	53		 push	 ebx
  00007	56		 push	 esi
  00008	57		 push	 edi
  00009	89 4d fc	 mov	 DWORD PTR _this$[ebp], ecx
  0000c	8b 45 08	 mov	 eax, DWORD PTR ___that$[ebp]
  0000f	50		 push	 eax
  00010	8b 4d fc	 mov	 ecx, DWORD PTR _this$[ebp]
  00013	e8 00 00 00 00	 call	 ??4IPersonalRoomServiceManager@@QAEAAU0@ABU0@@Z
  00018	8b 45 fc	 mov	 eax, DWORD PTR _this$[ebp]
  0001b	8b 4d 08	 mov	 ecx, DWORD PTR ___that$[ebp]
  0001e	8a 51 04	 mov	 dl, BYTE PTR [ecx+4]
  00021	88 50 04	 mov	 BYTE PTR [eax+4], dl
  00024	8b 45 fc	 mov	 eax, DWORD PTR _this$[ebp]
  00027	8b 4d 08	 mov	 ecx, DWORD PTR ___that$[ebp]
  0002a	8b 51 08	 mov	 edx, DWORD PTR [ecx+8]
  0002d	89 50 08	 mov	 DWORD PTR [eax+8], edx
  00030	8b 45 fc	 mov	 eax, DWORD PTR _this$[ebp]
  00033	8b 4d 08	 mov	 ecx, DWORD PTR ___that$[ebp]
  00036	8b 51 0c	 mov	 edx, DWORD PTR [ecx+12]
  00039	89 50 0c	 mov	 DWORD PTR [eax+12], edx
  0003c	8b 45 fc	 mov	 eax, DWORD PTR _this$[ebp]
  0003f	5f		 pop	 edi
  00040	5e		 pop	 esi
  00041	5b		 pop	 ebx
  00042	8b e5		 mov	 esp, ebp
  00044	5d		 pop	 ebp
  00045	c2 04 00	 ret	 4
??4CPersonalRoomServiceManager@@QAEAAV0@ABV0@@Z ENDP	; CPersonalRoomServiceManager::operator=
_TEXT	ENDS
; Function compile flags: /Odtp /ZI
;	COMDAT ??0CPersonalRoomServiceManager@@QAE@ABV0@@Z
_TEXT	SEGMENT
_this$ = -4						; size = 4
___that$ = 8						; size = 4
??0CPersonalRoomServiceManager@@QAE@ABV0@@Z PROC	; CPersonalRoomServiceManager::CPersonalRoomServiceManager, COMDAT
; _this$ = ecx
  00000	55		 push	 ebp
  00001	8b ec		 mov	 ebp, esp
  00003	83 ec 44	 sub	 esp, 68			; 00000044H
  00006	53		 push	 ebx
  00007	56		 push	 esi
  00008	57		 push	 edi
  00009	89 4d fc	 mov	 DWORD PTR _this$[ebp], ecx
  0000c	8b 45 08	 mov	 eax, DWORD PTR ___that$[ebp]
  0000f	50		 push	 eax
  00010	8b 4d fc	 mov	 ecx, DWORD PTR _this$[ebp]
  00013	e8 00 00 00 00	 call	 ??0IPersonalRoomServiceManager@@QAE@ABU0@@Z
  00018	8b 45 fc	 mov	 eax, DWORD PTR _this$[ebp]
  0001b	c7 00 00 00 00
	00		 mov	 DWORD PTR [eax], OFFSET ??_7CPersonalRoomServiceManager@@6B@
  00021	8b 45 fc	 mov	 eax, DWORD PTR _this$[ebp]
  00024	8b 4d 08	 mov	 ecx, DWORD PTR ___that$[ebp]
  00027	8a 51 04	 mov	 dl, BYTE PTR [ecx+4]
  0002a	88 50 04	 mov	 BYTE PTR [eax+4], dl
  0002d	8b 45 fc	 mov	 eax, DWORD PTR _this$[ebp]
  00030	8b 4d 08	 mov	 ecx, DWORD PTR ___that$[ebp]
  00033	8b 51 08	 mov	 edx, DWORD PTR [ecx+8]
  00036	89 50 08	 mov	 DWORD PTR [eax+8], edx
  00039	8b 45 fc	 mov	 eax, DWORD PTR _this$[ebp]
  0003c	8b 4d 08	 mov	 ecx, DWORD PTR ___that$[ebp]
  0003f	8b 51 0c	 mov	 edx, DWORD PTR [ecx+12]
  00042	89 50 0c	 mov	 DWORD PTR [eax+12], edx
  00045	8b 45 fc	 mov	 eax, DWORD PTR _this$[ebp]
  00048	5f		 pop	 edi
  00049	5e		 pop	 esi
  0004a	5b		 pop	 ebx
  0004b	8b e5		 mov	 esp, ebp
  0004d	5d		 pop	 ebp
  0004e	c2 04 00	 ret	 4
??0CPersonalRoomServiceManager@@QAE@ABV0@@Z ENDP	; CPersonalRoomServiceManager::CPersonalRoomServiceManager
_TEXT	ENDS
; Function compile flags: /Odtp /ZI
; File g:\网狐\happygamewh\服务端\系统模块\服务器组件\约战服务\personalroomservicemanager.cpp
;	COMDAT ?OnTCPNetworkSubQueryUserRoomScore@CPersonalRoomServiceManager@@UAE_NPAXGKPAUIDataBaseEngine@@@Z
_TEXT	SEGMENT
_QUERY_USER_ROOM_INFO$ = -12				; size = 4
_pQueryUserRoomScore$ = -8				; size = 4
_this$ = -4						; size = 4
_pData$ = 8						; size = 4
_wDataSize$ = 12					; size = 2
_dwSocketID$ = 16					; size = 4
_pIDataBaseEngine$ = 20					; size = 4
?OnTCPNetworkSubQueryUserRoomScore@CPersonalRoomServiceManager@@UAE_NPAXGKPAUIDataBaseEngine@@@Z PROC ; CPersonalRoomServiceManager::OnTCPNetworkSubQueryUserRoomScore, COMDAT
; _this$ = ecx

; 317  : {

  00000	55		 push	 ebp
  00001	8b ec		 mov	 ebp, esp
  00003	83 ec 4c	 sub	 esp, 76			; 0000004cH
  00006	53		 push	 ebx
  00007	56		 push	 esi
  00008	57		 push	 edi
  00009	89 4d fc	 mov	 DWORD PTR _this$[ebp], ecx

; 318  : 	OutputDebugString(TEXT("ptdt *** OnTCPNetworkSubQueryUserRoomScore"));

  0000c	68 00 00 00 00	 push	 OFFSET ??_C@_0CL@HNECKIB@ptdt?5?$CK?$CK?$CK?5OnTCPNetworkSubQueryUs@
  00011	ff 15 00 00 00
	00		 call	 DWORD PTR __imp__OutputDebugStringA@4

; 319  : 
; 320  : 	//校验数据
; 321  : 	ASSERT(wDataSize == sizeof(CMD_GR_QUERY_USER_ROOM_SCORE));

  00017	0f b7 45 0c	 movzx	 eax, WORD PTR _wDataSize$[ebp]
  0001b	83 f8 08	 cmp	 eax, 8
  0001e	74 19		 je	 SHORT $LN4@OnTCPNetwo
  00020	8b 0d 00 00 00
	00		 mov	 ecx, DWORD PTR ?__LINE__Var@?0??OnTCPNetworkSubQueryUserRoomScore@CPersonalRoomServiceManager@@UAE_NPAXGKPAUIDataBaseEngine@@@Z@4JA
  00026	83 c1 04	 add	 ecx, 4
  00029	51		 push	 ecx
  0002a	68 00 00 00 00	 push	 OFFSET ??_C@_0FH@KBPFBDOA@g?3?2?M?x?$LK?$PM?2happygamewh?2?$LH?$PO?N?q?$LG?K?2?O?$LF?M?$LD@
  0002f	e8 00 00 00 00	 call	 ?AfxAssertFailedLine@@YGHPBDH@Z ; AfxAssertFailedLine
  00034	85 c0		 test	 eax, eax
  00036	74 01		 je	 SHORT $LN4@OnTCPNetwo
  00038	cc		 int	 3
$LN4@OnTCPNetwo:

; 322  : 	if(wDataSize != sizeof(CMD_GR_QUERY_USER_ROOM_SCORE)) return false;

  00039	0f b7 45 0c	 movzx	 eax, WORD PTR _wDataSize$[ebp]
  0003d	83 f8 08	 cmp	 eax, 8
  00040	74 04		 je	 SHORT $LN2@OnTCPNetwo
  00042	32 c0		 xor	 al, al
  00044	eb 5a		 jmp	 SHORT $LN1@OnTCPNetwo
$LN2@OnTCPNetwo:

; 323  : 
; 324  : 	//提取数据
; 325  : 	CMD_GR_QUERY_USER_ROOM_SCORE * pQueryUserRoomScore = (CMD_GR_QUERY_USER_ROOM_SCORE*)pData;

  00046	8b 45 08	 mov	 eax, DWORD PTR _pData$[ebp]
  00049	89 45 f8	 mov	 DWORD PTR _pQueryUserRoomScore$[ebp], eax

; 326  : 	ASSERT(pQueryUserRoomScore!=NULL);

  0004c	83 7d f8 00	 cmp	 DWORD PTR _pQueryUserRoomScore$[ebp], 0
  00050	75 18		 jne	 SHORT $LN5@OnTCPNetwo
  00052	a1 00 00 00 00	 mov	 eax, DWORD PTR ?__LINE__Var@?0??OnTCPNetworkSubQueryUserRoomScore@CPersonalRoomServiceManager@@UAE_NPAXGKPAUIDataBaseEngine@@@Z@4JA
  00057	83 c0 09	 add	 eax, 9
  0005a	50		 push	 eax
  0005b	68 00 00 00 00	 push	 OFFSET ??_C@_0FH@KBPFBDOA@g?3?2?M?x?$LK?$PM?2happygamewh?2?$LH?$PO?N?q?$LG?K?2?O?$LF?M?$LD@
  00060	e8 00 00 00 00	 call	 ?AfxAssertFailedLine@@YGHPBDH@Z ; AfxAssertFailedLine
  00065	85 c0		 test	 eax, eax
  00067	74 01		 je	 SHORT $LN5@OnTCPNetwo
  00069	cc		 int	 3
$LN5@OnTCPNetwo:

; 327  : 
; 328  : 	//发送数据
; 329  : 	DBR_GR_QUERY_USER_ROOM_INFO QUERY_USER_ROOM_INFO;
; 330  : 	ZeroMemory(&QUERY_USER_ROOM_INFO, sizeof(DBR_GR_QUERY_USER_ROOM_INFO));

  0006a	6a 04		 push	 4
  0006c	6a 00		 push	 0
  0006e	8d 45 f4	 lea	 eax, DWORD PTR _QUERY_USER_ROOM_INFO$[ebp]
  00071	50		 push	 eax
  00072	e8 00 00 00 00	 call	 _memset
  00077	83 c4 0c	 add	 esp, 12			; 0000000cH

; 331  : 	QUERY_USER_ROOM_INFO.dwUserID = pQueryUserRoomScore->dwUserID;//请求房间成绩的玩家

  0007a	8b 45 f8	 mov	 eax, DWORD PTR _pQueryUserRoomScore$[ebp]
  0007d	8b 08		 mov	 ecx, DWORD PTR [eax]
  0007f	89 4d f4	 mov	 DWORD PTR _QUERY_USER_ROOM_INFO$[ebp], ecx

; 332  : 
; 333  : 	//投递数据
; 334  : 	pIDataBaseEngine->PostDataBaseRequest(DBR_GR_QUERY_USER_ROOM_SCORE,dwSocketID, &QUERY_USER_ROOM_INFO, sizeof(DBR_GR_QUERY_USER_ROOM_INFO));

  00082	6a 04		 push	 4
  00084	8d 45 f4	 lea	 eax, DWORD PTR _QUERY_USER_ROOM_INFO$[ebp]
  00087	50		 push	 eax
  00088	8b 4d 10	 mov	 ecx, DWORD PTR _dwSocketID$[ebp]
  0008b	51		 push	 ecx
  0008c	68 a3 00 00 00	 push	 163			; 000000a3H
  00091	8b 55 14	 mov	 edx, DWORD PTR _pIDataBaseEngine$[ebp]
  00094	8b 02		 mov	 eax, DWORD PTR [edx]
  00096	8b 4d 14	 mov	 ecx, DWORD PTR _pIDataBaseEngine$[ebp]
  00099	8b 50 20	 mov	 edx, DWORD PTR [eax+32]
  0009c	ff d2		 call	 edx

; 335  : 
; 336  : 	return true;

  0009e	b0 01		 mov	 al, 1
$LN1@OnTCPNetwo:

; 337  : }

  000a0	5f		 pop	 edi
  000a1	5e		 pop	 esi
  000a2	5b		 pop	 ebx
  000a3	8b e5		 mov	 esp, ebp
  000a5	5d		 pop	 ebp
  000a6	c2 10 00	 ret	 16			; 00000010H
?OnTCPNetworkSubQueryUserRoomScore@CPersonalRoomServiceManager@@UAE_NPAXGKPAUIDataBaseEngine@@@Z ENDP ; CPersonalRoomServiceManager::OnTCPNetworkSubQueryUserRoomScore
_TEXT	ENDS
; Function compile flags: /Odtp /ZI
; File g:\网狐\happygamewh\服务端\系统模块\服务器组件\约战服务\personalroomservicemanager.cpp
;	COMDAT ?OnTCPNetworkSubMBQueryPersonalRoomList@CPersonalRoomServiceManager@@UAE_NPAXGKPAUITCPSocketService@@@Z
_TEXT	SEGMENT
_szInfo$ = -284						; size = 260
_SC_QeuryPersonalRoomList$ = -24			; size = 12
_pQueryPersonalRoomList$ = -12				; size = 4
_this$ = -8						; size = 4
__$ArrayPad$ = -4					; size = 4
_pData$ = 8						; size = 4
_wDataSize$ = 12					; size = 2
_dwSocketID$ = 16					; size = 4
_pITCPSocketService$ = 20				; size = 4
?OnTCPNetworkSubMBQueryPersonalRoomList@CPersonalRoomServiceManager@@UAE_NPAXGKPAUITCPSocketService@@@Z PROC ; CPersonalRoomServiceManager::OnTCPNetworkSubMBQueryPersonalRoomList, COMDAT
; _this$ = ecx

; 293  : {

  00000	55		 push	 ebp
  00001	8b ec		 mov	 ebp, esp
  00003	81 ec 5c 01 00
	00		 sub	 esp, 348		; 0000015cH
  00009	a1 00 00 00 00	 mov	 eax, DWORD PTR ___security_cookie
  0000e	33 c5		 xor	 eax, ebp
  00010	89 45 fc	 mov	 DWORD PTR __$ArrayPad$[ebp], eax
  00013	53		 push	 ebx
  00014	56		 push	 esi
  00015	57		 push	 edi
  00016	89 4d f8	 mov	 DWORD PTR _this$[ebp], ecx

; 294  : 	//校验数据
; 295  : 	ASSERT(wDataSize == sizeof(CMD_MB_QeuryPersonalRoomList));

  00019	0f b7 45 0c	 movzx	 eax, WORD PTR _wDataSize$[ebp]
  0001d	83 f8 08	 cmp	 eax, 8
  00020	74 19		 je	 SHORT $LN4@OnTCPNetwo
  00022	8b 0d 00 00 00
	00		 mov	 ecx, DWORD PTR ?__LINE__Var@?0??OnTCPNetworkSubMBQueryPersonalRoomList@CPersonalRoomServiceManager@@UAE_NPAXGKPAUITCPSocketService@@@Z@4JA
  00028	83 c1 02	 add	 ecx, 2
  0002b	51		 push	 ecx
  0002c	68 00 00 00 00	 push	 OFFSET ??_C@_0FH@KBPFBDOA@g?3?2?M?x?$LK?$PM?2happygamewh?2?$LH?$PO?N?q?$LG?K?2?O?$LF?M?$LD@
  00031	e8 00 00 00 00	 call	 ?AfxAssertFailedLine@@YGHPBDH@Z ; AfxAssertFailedLine
  00036	85 c0		 test	 eax, eax
  00038	74 01		 je	 SHORT $LN4@OnTCPNetwo
  0003a	cc		 int	 3
$LN4@OnTCPNetwo:

; 296  : 	if(wDataSize != sizeof(CMD_MB_QeuryPersonalRoomList)) return false;

  0003b	0f b7 45 0c	 movzx	 eax, WORD PTR _wDataSize$[ebp]
  0003f	83 f8 08	 cmp	 eax, 8
  00042	74 04		 je	 SHORT $LN2@OnTCPNetwo
  00044	32 c0		 xor	 al, al
  00046	eb 79		 jmp	 SHORT $LN1@OnTCPNetwo
$LN2@OnTCPNetwo:

; 297  : 
; 298  : 	CMD_MB_QeuryPersonalRoomList* pQueryPersonalRoomList = (CMD_MB_QeuryPersonalRoomList*)pData;

  00048	8b 45 08	 mov	 eax, DWORD PTR _pData$[ebp]
  0004b	89 45 f4	 mov	 DWORD PTR _pQueryPersonalRoomList$[ebp], eax

; 299  : 
; 300  : 	CMD_MB_SC_QeuryPersonalRoomList  SC_QeuryPersonalRoomList; 
; 301  : 	SC_QeuryPersonalRoomList.dwUserID = pQueryPersonalRoomList->dwUserID;

  0004e	8b 45 f4	 mov	 eax, DWORD PTR _pQueryPersonalRoomList$[ebp]
  00051	8b 08		 mov	 ecx, DWORD PTR [eax]
  00053	89 4d e8	 mov	 DWORD PTR _SC_QeuryPersonalRoomList$[ebp], ecx

; 302  : 	SC_QeuryPersonalRoomList.dwSocketID = dwSocketID;

  00056	8b 45 10	 mov	 eax, DWORD PTR _dwSocketID$[ebp]
  00059	89 45 ec	 mov	 DWORD PTR _SC_QeuryPersonalRoomList$[ebp+4], eax

; 303  : 	SC_QeuryPersonalRoomList.dwKindID = pQueryPersonalRoomList->dwKindID;

  0005c	8b 45 f4	 mov	 eax, DWORD PTR _pQueryPersonalRoomList$[ebp]
  0005f	8b 48 04	 mov	 ecx, DWORD PTR [eax+4]
  00062	89 4d f0	 mov	 DWORD PTR _SC_QeuryPersonalRoomList$[ebp+8], ecx

; 304  : 
; 305  : 	TCHAR szInfo[260] = {0};

  00065	68 04 01 00 00	 push	 260			; 00000104H
  0006a	6a 00		 push	 0
  0006c	8d 85 e4 fe ff
	ff		 lea	 eax, DWORD PTR _szInfo$[ebp]
  00072	50		 push	 eax
  00073	e8 00 00 00 00	 call	 _memset
  00078	83 c4 0c	 add	 esp, 12			; 0000000cH

; 306  : 	wsprintf(szInfo, TEXT("ptdt *** 登录服务器 查询私人房间列表 dwSocketID = %d   SC_QeuryPersonalRoomList.dwUserID = %d"), dwSocketID,  SC_QeuryPersonalRoomList.dwUserID);

  0007b	8b 45 e8	 mov	 eax, DWORD PTR _SC_QeuryPersonalRoomList$[ebp]
  0007e	50		 push	 eax
  0007f	8b 4d 10	 mov	 ecx, DWORD PTR _dwSocketID$[ebp]
  00082	51		 push	 ecx
  00083	68 00 00 00 00	 push	 OFFSET ??_C@_0FO@NAEDIFFF@ptdt?5?$CK?$CK?$CK?5?$LF?G?B?$LM?$LH?$PO?N?q?F?w?5?$LC?i?Q?$KP?K?$LN?H?K?$LH?$LP?$LM@
  00088	8d 95 e4 fe ff
	ff		 lea	 edx, DWORD PTR _szInfo$[ebp]
  0008e	52		 push	 edx
  0008f	ff 15 00 00 00
	00		 call	 DWORD PTR __imp__wsprintfA
  00095	83 c4 10	 add	 esp, 16			; 00000010H

; 307  : 	OutputDebugString(szInfo);

  00098	8d 85 e4 fe ff
	ff		 lea	 eax, DWORD PTR _szInfo$[ebp]
  0009e	50		 push	 eax
  0009f	ff 15 00 00 00
	00		 call	 DWORD PTR __imp__OutputDebugStringA@4

; 308  : 	//构造数据
; 309  : 	pITCPSocketService->SendData(MDM_CS_SERVICE_INFO, SUB_CS_S_QUERY_PERSONAL_ROOM_LIST, &SC_QeuryPersonalRoomList, sizeof(CMD_MB_SC_QeuryPersonalRoomList));

  000a5	6a 0c		 push	 12			; 0000000cH
  000a7	8d 45 e8	 lea	 eax, DWORD PTR _SC_QeuryPersonalRoomList$[ebp]
  000aa	50		 push	 eax
  000ab	68 8c 00 00 00	 push	 140			; 0000008cH
  000b0	6a 02		 push	 2
  000b2	8b 4d 14	 mov	 ecx, DWORD PTR _pITCPSocketService$[ebp]
  000b5	8b 11		 mov	 edx, DWORD PTR [ecx]
  000b7	8b 4d 14	 mov	 ecx, DWORD PTR _pITCPSocketService$[ebp]
  000ba	8b 42 24	 mov	 eax, DWORD PTR [edx+36]
  000bd	ff d0		 call	 eax

; 310  : 
; 311  : 	return true;

  000bf	b0 01		 mov	 al, 1
$LN1@OnTCPNetwo:

; 312  : }

  000c1	5f		 pop	 edi
  000c2	5e		 pop	 esi
  000c3	5b		 pop	 ebx
  000c4	8b 4d fc	 mov	 ecx, DWORD PTR __$ArrayPad$[ebp]
  000c7	33 cd		 xor	 ecx, ebp
  000c9	e8 00 00 00 00	 call	 @__security_check_cookie@4
  000ce	8b e5		 mov	 esp, ebp
  000d0	5d		 pop	 ebp
  000d1	c2 10 00	 ret	 16			; 00000010H
?OnTCPNetworkSubMBQueryPersonalRoomList@CPersonalRoomServiceManager@@UAE_NPAXGKPAUITCPSocketService@@@Z ENDP ; CPersonalRoomServiceManager::OnTCPNetworkSubMBQueryPersonalRoomList
_TEXT	ENDS
; Function compile flags: /Odtp /ZI
; File g:\网狐\happygamewh\服务端\系统模块\服务器组件\约战服务\personalroomservicemanager.cpp
;	COMDAT ?OnTCPNetworkSubMBPersonalParameter@CPersonalRoomServiceManager@@UAE_NPAXGKPAUIDataBaseEngine@@@Z
_TEXT	SEGMENT
_GetPersonalParameter$ = -12				; size = 4
_pGetPersonalParameter$ = -8				; size = 4
_this$ = -4						; size = 4
_pData$ = 8						; size = 4
_wDataSize$ = 12					; size = 2
_dwSocketID$ = 16					; size = 4
_pIDataBaseEngine$ = 20					; size = 4
?OnTCPNetworkSubMBPersonalParameter@CPersonalRoomServiceManager@@UAE_NPAXGKPAUIDataBaseEngine@@@Z PROC ; CPersonalRoomServiceManager::OnTCPNetworkSubMBPersonalParameter, COMDAT
; _this$ = ecx

; 272  : {

  00000	55		 push	 ebp
  00001	8b ec		 mov	 ebp, esp
  00003	83 ec 4c	 sub	 esp, 76			; 0000004cH
  00006	53		 push	 ebx
  00007	56		 push	 esi
  00008	57		 push	 edi
  00009	89 4d fc	 mov	 DWORD PTR _this$[ebp], ecx

; 273  : 	//校验数据
; 274  : 	ASSERT(wDataSize == sizeof(CMD_MB_GetPersonalParameter));

  0000c	0f b7 45 0c	 movzx	 eax, WORD PTR _wDataSize$[ebp]
  00010	83 f8 04	 cmp	 eax, 4
  00013	74 19		 je	 SHORT $LN4@OnTCPNetwo
  00015	8b 0d 00 00 00
	00		 mov	 ecx, DWORD PTR ?__LINE__Var@?0??OnTCPNetworkSubMBPersonalParameter@CPersonalRoomServiceManager@@UAE_NPAXGKPAUIDataBaseEngine@@@Z@4JA
  0001b	83 c1 02	 add	 ecx, 2
  0001e	51		 push	 ecx
  0001f	68 00 00 00 00	 push	 OFFSET ??_C@_0FH@KBPFBDOA@g?3?2?M?x?$LK?$PM?2happygamewh?2?$LH?$PO?N?q?$LG?K?2?O?$LF?M?$LD@
  00024	e8 00 00 00 00	 call	 ?AfxAssertFailedLine@@YGHPBDH@Z ; AfxAssertFailedLine
  00029	85 c0		 test	 eax, eax
  0002b	74 01		 je	 SHORT $LN4@OnTCPNetwo
  0002d	cc		 int	 3
$LN4@OnTCPNetwo:

; 275  : 	if(wDataSize != sizeof(CMD_MB_GetPersonalParameter)) return false;

  0002e	0f b7 45 0c	 movzx	 eax, WORD PTR _wDataSize$[ebp]
  00032	83 f8 04	 cmp	 eax, 4
  00035	74 04		 je	 SHORT $LN2@OnTCPNetwo
  00037	32 c0		 xor	 al, al
  00039	eb 3c		 jmp	 SHORT $LN1@OnTCPNetwo
$LN2@OnTCPNetwo:

; 276  : 
; 277  : 	CMD_MB_GetPersonalParameter* pGetPersonalParameter = (CMD_MB_GetPersonalParameter*)pData;

  0003b	8b 45 08	 mov	 eax, DWORD PTR _pData$[ebp]
  0003e	89 45 f8	 mov	 DWORD PTR _pGetPersonalParameter$[ebp], eax

; 278  : 
; 279  : 	//构造数据
; 280  : 	DBR_MB_GetPersonalParameter GetPersonalParameter;
; 281  : 	ZeroMemory(&GetPersonalParameter, sizeof(DBR_MB_GetPersonalParameter));

  00041	6a 04		 push	 4
  00043	6a 00		 push	 0
  00045	8d 45 f4	 lea	 eax, DWORD PTR _GetPersonalParameter$[ebp]
  00048	50		 push	 eax
  00049	e8 00 00 00 00	 call	 _memset
  0004e	83 c4 0c	 add	 esp, 12			; 0000000cH

; 282  : 	GetPersonalParameter.dwKindID = pGetPersonalParameter->dwKindID;

  00051	8b 45 f8	 mov	 eax, DWORD PTR _pGetPersonalParameter$[ebp]
  00054	8b 08		 mov	 ecx, DWORD PTR [eax]
  00056	89 4d f4	 mov	 DWORD PTR _GetPersonalParameter$[ebp], ecx

; 283  : 
; 284  : 	//投递数据
; 285  : 	pIDataBaseEngine->PostDataBaseRequest(DBR_MB_GET_PERSONAL_PARAMETER,dwSocketID, &GetPersonalParameter, sizeof(DBR_MB_GetPersonalParameter));

  00059	6a 04		 push	 4
  0005b	8d 45 f4	 lea	 eax, DWORD PTR _GetPersonalParameter$[ebp]
  0005e	50		 push	 eax
  0005f	8b 4d 10	 mov	 ecx, DWORD PTR _dwSocketID$[ebp]
  00062	51		 push	 ecx
  00063	68 a5 00 00 00	 push	 165			; 000000a5H
  00068	8b 55 14	 mov	 edx, DWORD PTR _pIDataBaseEngine$[ebp]
  0006b	8b 02		 mov	 eax, DWORD PTR [edx]
  0006d	8b 4d 14	 mov	 ecx, DWORD PTR _pIDataBaseEngine$[ebp]
  00070	8b 50 20	 mov	 edx, DWORD PTR [eax+32]
  00073	ff d2		 call	 edx

; 286  : 
; 287  : 	return true;

  00075	b0 01		 mov	 al, 1
$LN1@OnTCPNetwo:

; 288  : }

  00077	5f		 pop	 edi
  00078	5e		 pop	 esi
  00079	5b		 pop	 ebx
  0007a	8b e5		 mov	 esp, ebp
  0007c	5d		 pop	 ebp
  0007d	c2 10 00	 ret	 16			; 00000010H
?OnTCPNetworkSubMBPersonalParameter@CPersonalRoomServiceManager@@UAE_NPAXGKPAUIDataBaseEngine@@@Z ENDP ; CPersonalRoomServiceManager::OnTCPNetworkSubMBPersonalParameter
_TEXT	ENDS
; Function compile flags: /Odtp /ZI
; File g:\网狐\happygamewh\服务端\系统模块\服务器组件\约战服务\personalroomservicemanager.cpp
;	COMDAT ?OnTCPNetworkSubMBDissumeSearchServerTable@CPersonalRoomServiceManager@@UAE_NPAXGKPAUtagPersonalBindParameter@@PAUITCPSocketService@@@Z
_TEXT	SEGMENT
_SearchTable$ = -36					; size = 23
_pSearchServerTable$ = -12				; size = 4
_this$ = -8						; size = 4
__$ArrayPad$ = -4					; size = 4
_pData$ = 8						; size = 4
_wDataSize$ = 12					; size = 2
_dwSocketID$ = 16					; size = 4
_pBindParameter$ = 20					; size = 4
_pITCPSocketService$ = 24				; size = 4
?OnTCPNetworkSubMBDissumeSearchServerTable@CPersonalRoomServiceManager@@UAE_NPAXGKPAUtagPersonalBindParameter@@PAUITCPSocketService@@@Z PROC ; CPersonalRoomServiceManager::OnTCPNetworkSubMBDissumeSearchServerTable, COMDAT
; _this$ = ecx

; 251  : {

  00000	55		 push	 ebp
  00001	8b ec		 mov	 ebp, esp
  00003	83 ec 64	 sub	 esp, 100		; 00000064H
  00006	a1 00 00 00 00	 mov	 eax, DWORD PTR ___security_cookie
  0000b	33 c5		 xor	 eax, ebp
  0000d	89 45 fc	 mov	 DWORD PTR __$ArrayPad$[ebp], eax
  00010	53		 push	 ebx
  00011	56		 push	 esi
  00012	57		 push	 edi
  00013	89 4d f8	 mov	 DWORD PTR _this$[ebp], ecx

; 252  : 	//校验数据
; 253  : 	ASSERT(wDataSize == sizeof(CMD_MB_DissumeSearchServerTable));

  00016	0f b7 45 0c	 movzx	 eax, WORD PTR _wDataSize$[ebp]
  0001a	83 f8 07	 cmp	 eax, 7
  0001d	74 19		 je	 SHORT $LN4@OnTCPNetwo
  0001f	8b 0d 00 00 00
	00		 mov	 ecx, DWORD PTR ?__LINE__Var@?0??OnTCPNetworkSubMBDissumeSearchServerTable@CPersonalRoomServiceManager@@UAE_NPAXGKPAUtagPersonalBindParameter@@PAUITCPSocketService@@@Z@4JA
  00025	83 c1 02	 add	 ecx, 2
  00028	51		 push	 ecx
  00029	68 00 00 00 00	 push	 OFFSET ??_C@_0FH@KBPFBDOA@g?3?2?M?x?$LK?$PM?2happygamewh?2?$LH?$PO?N?q?$LG?K?2?O?$LF?M?$LD@
  0002e	e8 00 00 00 00	 call	 ?AfxAssertFailedLine@@YGHPBDH@Z ; AfxAssertFailedLine
  00033	85 c0		 test	 eax, eax
  00035	74 01		 je	 SHORT $LN4@OnTCPNetwo
  00037	cc		 int	 3
$LN4@OnTCPNetwo:

; 254  : 	if(wDataSize != sizeof(CMD_MB_DissumeSearchServerTable)) return false;

  00038	0f b7 45 0c	 movzx	 eax, WORD PTR _wDataSize$[ebp]
  0003c	83 f8 07	 cmp	 eax, 7
  0003f	74 04		 je	 SHORT $LN2@OnTCPNetwo
  00041	32 c0		 xor	 al, al
  00043	eb 60		 jmp	 SHORT $LN1@OnTCPNetwo
$LN2@OnTCPNetwo:

; 255  : 
; 256  : 	CMD_MB_DissumeSearchServerTable* pSearchServerTable = (CMD_MB_DissumeSearchServerTable*)pData;

  00045	8b 45 08	 mov	 eax, DWORD PTR _pData$[ebp]
  00048	89 45 f4	 mov	 DWORD PTR _pSearchServerTable$[ebp], eax

; 257  : 
; 258  : 	CMD_CS_C_SearchTable SearchTable;
; 259  : 	ZeroMemory(&SearchTable, sizeof(CMD_CS_C_SearchTable));

  0004b	6a 17		 push	 23			; 00000017H
  0004d	6a 00		 push	 0
  0004f	8d 45 dc	 lea	 eax, DWORD PTR _SearchTable$[ebp]
  00052	50		 push	 eax
  00053	e8 00 00 00 00	 call	 _memset
  00058	83 c4 0c	 add	 esp, 12			; 0000000cH

; 260  : 
; 261  : 	SearchTable.dwSocketID = dwSocketID;

  0005b	8b 45 10	 mov	 eax, DWORD PTR _dwSocketID$[ebp]
  0005e	89 45 dc	 mov	 DWORD PTR _SearchTable$[ebp], eax

; 262  : 	SearchTable.dwClientAddr = (pBindParameter + LOWORD(dwSocketID))->dwClientAddr;

  00061	8b 45 10	 mov	 eax, DWORD PTR _dwSocketID$[ebp]
  00064	25 ff ff 00 00	 and	 eax, 65535		; 0000ffffH
  00069	0f b7 c8	 movzx	 ecx, ax
  0006c	6b d1 0c	 imul	 edx, ecx, 12
  0006f	8b 45 14	 mov	 eax, DWORD PTR _pBindParameter$[ebp]
  00072	8b 4c 10 04	 mov	 ecx, DWORD PTR [eax+edx+4]
  00076	89 4d e0	 mov	 DWORD PTR _SearchTable$[ebp+4], ecx

; 263  : 	lstrcpyn(SearchTable.szPersonalTableID, pSearchServerTable->szServerID, CountArray(SearchTable.szPersonalTableID));

  00079	6a 07		 push	 7
  0007b	8b 45 f4	 mov	 eax, DWORD PTR _pSearchServerTable$[ebp]
  0007e	50		 push	 eax
  0007f	8d 4d ec	 lea	 ecx, DWORD PTR _SearchTable$[ebp+16]
  00082	51		 push	 ecx
  00083	ff 15 00 00 00
	00		 call	 DWORD PTR __imp__lstrcpynA@12

; 264  : 
; 265  : 	pITCPSocketService->SendData(MDM_CS_SERVICE_INFO, SUB_CS_C_DISSUME_SEARCH_TABLE, &SearchTable, sizeof(CMD_CS_C_SearchTable));

  00089	6a 17		 push	 23			; 00000017H
  0008b	8d 45 dc	 lea	 eax, DWORD PTR _SearchTable$[ebp]
  0008e	50		 push	 eax
  0008f	68 8e 00 00 00	 push	 142			; 0000008eH
  00094	6a 02		 push	 2
  00096	8b 4d 18	 mov	 ecx, DWORD PTR _pITCPSocketService$[ebp]
  00099	8b 11		 mov	 edx, DWORD PTR [ecx]
  0009b	8b 4d 18	 mov	 ecx, DWORD PTR _pITCPSocketService$[ebp]
  0009e	8b 42 24	 mov	 eax, DWORD PTR [edx+36]
  000a1	ff d0		 call	 eax

; 266  : 
; 267  : 	return true;

  000a3	b0 01		 mov	 al, 1
$LN1@OnTCPNetwo:

; 268  : }

  000a5	5f		 pop	 edi
  000a6	5e		 pop	 esi
  000a7	5b		 pop	 ebx
  000a8	8b 4d fc	 mov	 ecx, DWORD PTR __$ArrayPad$[ebp]
  000ab	33 cd		 xor	 ecx, ebp
  000ad	e8 00 00 00 00	 call	 @__security_check_cookie@4
  000b2	8b e5		 mov	 esp, ebp
  000b4	5d		 pop	 ebp
  000b5	c2 14 00	 ret	 20			; 00000014H
?OnTCPNetworkSubMBDissumeSearchServerTable@CPersonalRoomServiceManager@@UAE_NPAXGKPAUtagPersonalBindParameter@@PAUITCPSocketService@@@Z ENDP ; CPersonalRoomServiceManager::OnTCPNetworkSubMBDissumeSearchServerTable
_TEXT	ENDS
; Function compile flags: /Odtp /ZI
; File g:\网狐\happygamewh\服务端\系统模块\服务器组件\约战服务\personalroomservicemanager.cpp
;	COMDAT ?OnTCPNetworkSubMBSearchServerTable@CPersonalRoomServiceManager@@UAE_NPAXGKPAUtagPersonalBindParameter@@PAUITCPSocketService@@@Z
_TEXT	SEGMENT
_SearchTable$ = -36					; size = 23
_pSearchServerTable$ = -12				; size = 4
_this$ = -8						; size = 4
__$ArrayPad$ = -4					; size = 4
_pData$ = 8						; size = 4
_wDataSize$ = 12					; size = 2
_dwSocketID$ = 16					; size = 4
_pBindParameter$ = 20					; size = 4
_pITCPSocketService$ = 24				; size = 4
?OnTCPNetworkSubMBSearchServerTable@CPersonalRoomServiceManager@@UAE_NPAXGKPAUtagPersonalBindParameter@@PAUITCPSocketService@@@Z PROC ; CPersonalRoomServiceManager::OnTCPNetworkSubMBSearchServerTable, COMDAT
; _this$ = ecx

; 229  : {

  00000	55		 push	 ebp
  00001	8b ec		 mov	 ebp, esp
  00003	83 ec 64	 sub	 esp, 100		; 00000064H
  00006	a1 00 00 00 00	 mov	 eax, DWORD PTR ___security_cookie
  0000b	33 c5		 xor	 eax, ebp
  0000d	89 45 fc	 mov	 DWORD PTR __$ArrayPad$[ebp], eax
  00010	53		 push	 ebx
  00011	56		 push	 esi
  00012	57		 push	 edi
  00013	89 4d f8	 mov	 DWORD PTR _this$[ebp], ecx

; 230  : 	//校验数据
; 231  : 	ASSERT(wDataSize == sizeof(CMD_MB_SearchServerTable));

  00016	0f b7 45 0c	 movzx	 eax, WORD PTR _wDataSize$[ebp]
  0001a	83 f8 0f	 cmp	 eax, 15			; 0000000fH
  0001d	74 19		 je	 SHORT $LN4@OnTCPNetwo
  0001f	8b 0d 00 00 00
	00		 mov	 ecx, DWORD PTR ?__LINE__Var@?0??OnTCPNetworkSubMBSearchServerTable@CPersonalRoomServiceManager@@UAE_NPAXGKPAUtagPersonalBindParameter@@PAUITCPSocketService@@@Z@4JA
  00025	83 c1 02	 add	 ecx, 2
  00028	51		 push	 ecx
  00029	68 00 00 00 00	 push	 OFFSET ??_C@_0FH@KBPFBDOA@g?3?2?M?x?$LK?$PM?2happygamewh?2?$LH?$PO?N?q?$LG?K?2?O?$LF?M?$LD@
  0002e	e8 00 00 00 00	 call	 ?AfxAssertFailedLine@@YGHPBDH@Z ; AfxAssertFailedLine
  00033	85 c0		 test	 eax, eax
  00035	74 01		 je	 SHORT $LN4@OnTCPNetwo
  00037	cc		 int	 3
$LN4@OnTCPNetwo:

; 232  : 	if(wDataSize != sizeof(CMD_MB_SearchServerTable)) return false;

  00038	0f b7 45 0c	 movzx	 eax, WORD PTR _wDataSize$[ebp]
  0003c	83 f8 0f	 cmp	 eax, 15			; 0000000fH
  0003f	74 04		 je	 SHORT $LN2@OnTCPNetwo
  00041	32 c0		 xor	 al, al
  00043	eb 6c		 jmp	 SHORT $LN1@OnTCPNetwo
$LN2@OnTCPNetwo:

; 233  : 
; 234  : 	CMD_MB_SearchServerTable* pSearchServerTable = (CMD_MB_SearchServerTable*)pData;

  00045	8b 45 08	 mov	 eax, DWORD PTR _pData$[ebp]
  00048	89 45 f4	 mov	 DWORD PTR _pSearchServerTable$[ebp], eax

; 235  : 
; 236  : 	CMD_CS_C_SearchTable SearchTable;
; 237  : 	ZeroMemory(&SearchTable, sizeof(CMD_CS_C_SearchTable));

  0004b	6a 17		 push	 23			; 00000017H
  0004d	6a 00		 push	 0
  0004f	8d 45 dc	 lea	 eax, DWORD PTR _SearchTable$[ebp]
  00052	50		 push	 eax
  00053	e8 00 00 00 00	 call	 _memset
  00058	83 c4 0c	 add	 esp, 12			; 0000000cH

; 238  : 
; 239  : 	SearchTable.dwSocketID = dwSocketID;

  0005b	8b 45 10	 mov	 eax, DWORD PTR _dwSocketID$[ebp]
  0005e	89 45 dc	 mov	 DWORD PTR _SearchTable$[ebp], eax

; 240  : 	SearchTable.dwKindID = pSearchServerTable->dwKindID;

  00061	8b 45 f4	 mov	 eax, DWORD PTR _pSearchServerTable$[ebp]
  00064	8b 48 0b	 mov	 ecx, DWORD PTR [eax+11]
  00067	89 4d e4	 mov	 DWORD PTR _SearchTable$[ebp+8], ecx

; 241  : 	SearchTable.dwClientAddr = (pBindParameter + LOWORD(dwSocketID))->dwClientAddr;

  0006a	8b 45 10	 mov	 eax, DWORD PTR _dwSocketID$[ebp]
  0006d	25 ff ff 00 00	 and	 eax, 65535		; 0000ffffH
  00072	0f b7 c8	 movzx	 ecx, ax
  00075	6b d1 0c	 imul	 edx, ecx, 12
  00078	8b 45 14	 mov	 eax, DWORD PTR _pBindParameter$[ebp]
  0007b	8b 4c 10 04	 mov	 ecx, DWORD PTR [eax+edx+4]
  0007f	89 4d e0	 mov	 DWORD PTR _SearchTable$[ebp+4], ecx

; 242  : 	lstrcpyn(SearchTable.szPersonalTableID, pSearchServerTable->szServerID, CountArray(SearchTable.szPersonalTableID));

  00082	6a 07		 push	 7
  00084	8b 45 f4	 mov	 eax, DWORD PTR _pSearchServerTable$[ebp]
  00087	83 c0 04	 add	 eax, 4
  0008a	50		 push	 eax
  0008b	8d 4d ec	 lea	 ecx, DWORD PTR _SearchTable$[ebp+16]
  0008e	51		 push	 ecx
  0008f	ff 15 00 00 00
	00		 call	 DWORD PTR __imp__lstrcpynA@12

; 243  : 
; 244  : 	pITCPSocketService->SendData(MDM_CS_SERVICE_INFO, SUB_CS_C_SEARCH_TABLE, &SearchTable, sizeof(CMD_CS_C_SearchTable));

  00095	6a 17		 push	 23			; 00000017H
  00097	8d 45 dc	 lea	 eax, DWORD PTR _SearchTable$[ebp]
  0009a	50		 push	 eax
  0009b	68 83 00 00 00	 push	 131			; 00000083H
  000a0	6a 02		 push	 2
  000a2	8b 4d 18	 mov	 ecx, DWORD PTR _pITCPSocketService$[ebp]
  000a5	8b 11		 mov	 edx, DWORD PTR [ecx]
  000a7	8b 4d 18	 mov	 ecx, DWORD PTR _pITCPSocketService$[ebp]
  000aa	8b 42 24	 mov	 eax, DWORD PTR [edx+36]
  000ad	ff d0		 call	 eax

; 245  : 
; 246  : 	return true;

  000af	b0 01		 mov	 al, 1
$LN1@OnTCPNetwo:

; 247  : }

  000b1	5f		 pop	 edi
  000b2	5e		 pop	 esi
  000b3	5b		 pop	 ebx
  000b4	8b 4d fc	 mov	 ecx, DWORD PTR __$ArrayPad$[ebp]
  000b7	33 cd		 xor	 ecx, ebp
  000b9	e8 00 00 00 00	 call	 @__security_check_cookie@4
  000be	8b e5		 mov	 esp, ebp
  000c0	5d		 pop	 ebp
  000c1	c2 14 00	 ret	 20			; 00000014H
?OnTCPNetworkSubMBSearchServerTable@CPersonalRoomServiceManager@@UAE_NPAXGKPAUtagPersonalBindParameter@@PAUITCPSocketService@@@Z ENDP ; CPersonalRoomServiceManager::OnTCPNetworkSubMBSearchServerTable
_TEXT	ENDS
; Function compile flags: /Odtp /ZI
; File g:\网狐\happygamewh\服务端\系统模块\服务器组件\约战服务\personalroomservicemanager.cpp
;	COMDAT ?OnTCPNetworkSubMBQueryGameServer@CPersonalRoomServiceManager@@UAE_NPAXGKPAUtagPersonalBindParameter@@PAUITCPSocketService@@@Z
_TEXT	SEGMENT
_QueryGameServer$ = -32					; size = 17
_pGameServer$ = -12					; size = 4
_this$ = -8						; size = 4
__$ArrayPad$ = -4					; size = 4
_pData$ = 8						; size = 4
_wDataSize$ = 12					; size = 2
_dwSocketID$ = 16					; size = 4
_pBindParameter$ = 20					; size = 4
_pITCPSocketService$ = 24				; size = 4
?OnTCPNetworkSubMBQueryGameServer@CPersonalRoomServiceManager@@UAE_NPAXGKPAUtagPersonalBindParameter@@PAUITCPSocketService@@@Z PROC ; CPersonalRoomServiceManager::OnTCPNetworkSubMBQueryGameServer, COMDAT
; _this$ = ecx

; 205  : {

  00000	55		 push	 ebp
  00001	8b ec		 mov	 ebp, esp
  00003	83 ec 60	 sub	 esp, 96			; 00000060H
  00006	a1 00 00 00 00	 mov	 eax, DWORD PTR ___security_cookie
  0000b	33 c5		 xor	 eax, ebp
  0000d	89 45 fc	 mov	 DWORD PTR __$ArrayPad$[ebp], eax
  00010	53		 push	 ebx
  00011	56		 push	 esi
  00012	57		 push	 edi
  00013	89 4d f8	 mov	 DWORD PTR _this$[ebp], ecx

; 206  : 	//校验数据
; 207  : 	ASSERT(wDataSize == sizeof(CMD_MB_QueryGameServer));

  00016	0f b7 45 0c	 movzx	 eax, WORD PTR _wDataSize$[ebp]
  0001a	83 f8 09	 cmp	 eax, 9
  0001d	74 19		 je	 SHORT $LN4@OnTCPNetwo
  0001f	8b 0d 00 00 00
	00		 mov	 ecx, DWORD PTR ?__LINE__Var@?0??OnTCPNetworkSubMBQueryGameServer@CPersonalRoomServiceManager@@UAE_NPAXGKPAUtagPersonalBindParameter@@PAUITCPSocketService@@@Z@4JA
  00025	83 c1 02	 add	 ecx, 2
  00028	51		 push	 ecx
  00029	68 00 00 00 00	 push	 OFFSET ??_C@_0FH@KBPFBDOA@g?3?2?M?x?$LK?$PM?2happygamewh?2?$LH?$PO?N?q?$LG?K?2?O?$LF?M?$LD@
  0002e	e8 00 00 00 00	 call	 ?AfxAssertFailedLine@@YGHPBDH@Z ; AfxAssertFailedLine
  00033	85 c0		 test	 eax, eax
  00035	74 01		 je	 SHORT $LN4@OnTCPNetwo
  00037	cc		 int	 3
$LN4@OnTCPNetwo:

; 208  : 	if(wDataSize != sizeof(CMD_MB_QueryGameServer)) return false;

  00038	0f b7 45 0c	 movzx	 eax, WORD PTR _wDataSize$[ebp]
  0003c	83 f8 09	 cmp	 eax, 9
  0003f	74 04		 je	 SHORT $LN2@OnTCPNetwo
  00041	32 c0		 xor	 al, al
  00043	eb 6a		 jmp	 SHORT $LN1@OnTCPNetwo
$LN2@OnTCPNetwo:

; 209  : 
; 210  : 	CMD_MB_QueryGameServer* pGameServer = (CMD_MB_QueryGameServer*)pData;

  00045	8b 45 08	 mov	 eax, DWORD PTR _pData$[ebp]
  00048	89 45 f4	 mov	 DWORD PTR _pGameServer$[ebp], eax

; 211  : 
; 212  : 	//构造数据
; 213  : 	CMD_CS_C_QueryGameServer QueryGameServer;
; 214  : 	ZeroMemory(&QueryGameServer, sizeof(CMD_CS_C_QueryGameServer));

  0004b	6a 11		 push	 17			; 00000011H
  0004d	6a 00		 push	 0
  0004f	8d 45 e0	 lea	 eax, DWORD PTR _QueryGameServer$[ebp]
  00052	50		 push	 eax
  00053	e8 00 00 00 00	 call	 _memset
  00058	83 c4 0c	 add	 esp, 12			; 0000000cH

; 215  : 	QueryGameServer.dwUserID = pGameServer->dwUserID;

  0005b	8b 45 f4	 mov	 eax, DWORD PTR _pGameServer$[ebp]
  0005e	8b 08		 mov	 ecx, DWORD PTR [eax]
  00060	89 4d e0	 mov	 DWORD PTR _QueryGameServer$[ebp], ecx

; 216  : 	QueryGameServer.dwKindID = pGameServer->dwKindID;

  00063	8b 45 f4	 mov	 eax, DWORD PTR _pGameServer$[ebp]
  00066	8b 48 04	 mov	 ecx, DWORD PTR [eax+4]
  00069	89 4d e4	 mov	 DWORD PTR _QueryGameServer$[ebp+4], ecx

; 217  : 	QueryGameServer.cbIsJoinGame = pGameServer->cbIsJoinGame;

  0006c	8b 45 f4	 mov	 eax, DWORD PTR _pGameServer$[ebp]
  0006f	8a 48 08	 mov	 cl, BYTE PTR [eax+8]
  00072	88 4d e8	 mov	 BYTE PTR _QueryGameServer$[ebp+8], cl

; 218  : 	QueryGameServer.dwSocketID = dwSocketID;

  00075	8b 45 10	 mov	 eax, DWORD PTR _dwSocketID$[ebp]
  00078	89 45 e9	 mov	 DWORD PTR _QueryGameServer$[ebp+9], eax

; 219  : 	QueryGameServer.dwClientAddr = (pBindParameter + LOWORD(dwSocketID))->dwClientAddr;

  0007b	8b 45 10	 mov	 eax, DWORD PTR _dwSocketID$[ebp]
  0007e	25 ff ff 00 00	 and	 eax, 65535		; 0000ffffH
  00083	0f b7 c8	 movzx	 ecx, ax
  00086	6b d1 0c	 imul	 edx, ecx, 12
  00089	8b 45 14	 mov	 eax, DWORD PTR _pBindParameter$[ebp]
  0008c	8b 4c 10 04	 mov	 ecx, DWORD PTR [eax+edx+4]
  00090	89 4d ed	 mov	 DWORD PTR _QueryGameServer$[ebp+13], ecx

; 220  : 
; 221  : 	//发送数据
; 222  : 	pITCPSocketService->SendData(MDM_CS_SERVICE_INFO, SUB_CS_C_QUERY_GAME_SERVER, &QueryGameServer, sizeof(CMD_CS_C_QueryGameServer));

  00093	6a 11		 push	 17			; 00000011H
  00095	8d 45 e0	 lea	 eax, DWORD PTR _QueryGameServer$[ebp]
  00098	50		 push	 eax
  00099	68 85 00 00 00	 push	 133			; 00000085H
  0009e	6a 02		 push	 2
  000a0	8b 4d 18	 mov	 ecx, DWORD PTR _pITCPSocketService$[ebp]
  000a3	8b 11		 mov	 edx, DWORD PTR [ecx]
  000a5	8b 4d 18	 mov	 ecx, DWORD PTR _pITCPSocketService$[ebp]
  000a8	8b 42 24	 mov	 eax, DWORD PTR [edx+36]
  000ab	ff d0		 call	 eax

; 223  : 
; 224  : 	return true;

  000ad	b0 01		 mov	 al, 1
$LN1@OnTCPNetwo:

; 225  : }

  000af	5f		 pop	 edi
  000b0	5e		 pop	 esi
  000b1	5b		 pop	 ebx
  000b2	8b 4d fc	 mov	 ecx, DWORD PTR __$ArrayPad$[ebp]
  000b5	33 cd		 xor	 ecx, ebp
  000b7	e8 00 00 00 00	 call	 @__security_check_cookie@4
  000bc	8b e5		 mov	 esp, ebp
  000be	5d		 pop	 ebp
  000bf	c2 14 00	 ret	 20			; 00000014H
?OnTCPNetworkSubMBQueryGameServer@CPersonalRoomServiceManager@@UAE_NPAXGKPAUtagPersonalBindParameter@@PAUITCPSocketService@@@Z ENDP ; CPersonalRoomServiceManager::OnTCPNetworkSubMBQueryGameServer
_TEXT	ENDS
; Function compile flags: /Odtp /ZI
; File g:\网狐\happygamewh\服务端\系统模块\服务器组件\约战服务\personalroomservicemanager.cpp
;	COMDAT ?TestPersonal@CPersonalRoomServiceManager@@UAEXXZ
_TEXT	SEGMENT
_this$ = -4						; size = 4
?TestPersonal@CPersonalRoomServiceManager@@UAEXXZ PROC	; CPersonalRoomServiceManager::TestPersonal, COMDAT
; _this$ = ecx

; 199  : {

  00000	55		 push	 ebp
  00001	8b ec		 mov	 ebp, esp
  00003	83 ec 44	 sub	 esp, 68			; 00000044H
  00006	53		 push	 ebx
  00007	56		 push	 esi
  00008	57		 push	 edi
  00009	89 4d fc	 mov	 DWORD PTR _this$[ebp], ecx

; 200  : 	OutputDebugString(TEXT("ptdtsr *** 私人房测试"));

  0000c	68 00 00 00 00	 push	 OFFSET ??_C@_0BG@CPFLEHPP@ptdtsr?5?$CK?$CK?$CK?5?K?$LN?H?K?$LH?$LP?$LC?b?J?T@
  00011	ff 15 00 00 00
	00		 call	 DWORD PTR __imp__OutputDebugStringA@4

; 201  : }

  00017	5f		 pop	 edi
  00018	5e		 pop	 esi
  00019	5b		 pop	 ebx
  0001a	8b e5		 mov	 esp, ebp
  0001c	5d		 pop	 ebp
  0001d	c3		 ret	 0
?TestPersonal@CPersonalRoomServiceManager@@UAEXXZ ENDP	; CPersonalRoomServiceManager::TestPersonal
_TEXT	ENDS
; Function compile flags: /Odtp /ZI
; File g:\网狐\happygamewh\服务端\系统模块\服务器组件\约战服务\personalroomservicemanager.cpp
;	COMDAT ?GetServerUserItemSink@CPersonalRoomServiceManager@@UAEPAUIUnknownEx@@XZ
_TEXT	SEGMENT
tv90 = -72						; size = 4
_this$ = -4						; size = 4
?GetServerUserItemSink@CPersonalRoomServiceManager@@UAEPAUIUnknownEx@@XZ PROC ; CPersonalRoomServiceManager::GetServerUserItemSink, COMDAT
; _this$ = ecx

; 342  : {

  00000	55		 push	 ebp
  00001	8b ec		 mov	 ebp, esp
  00003	83 ec 48	 sub	 esp, 72			; 00000048H
  00006	53		 push	 ebx
  00007	56		 push	 esi
  00008	57		 push	 edi
  00009	89 4d fc	 mov	 DWORD PTR _this$[ebp], ecx

; 343  : 	ASSERT(m_pIPersonalRoomItem!=NULL);

  0000c	8b 45 fc	 mov	 eax, DWORD PTR _this$[ebp]
  0000f	83 78 08 00	 cmp	 DWORD PTR [eax+8], 0
  00013	75 19		 jne	 SHORT $LN4@GetServerU
  00015	8b 0d 00 00 00
	00		 mov	 ecx, DWORD PTR ?__LINE__Var@?0??GetServerUserItemSink@CPersonalRoomServiceManager@@UAEPAUIUnknownEx@@XZ@4JA
  0001b	83 c1 01	 add	 ecx, 1
  0001e	51		 push	 ecx
  0001f	68 00 00 00 00	 push	 OFFSET ??_C@_0FH@KBPFBDOA@g?3?2?M?x?$LK?$PM?2happygamewh?2?$LH?$PO?N?q?$LG?K?2?O?$LF?M?$LD@
  00024	e8 00 00 00 00	 call	 ?AfxAssertFailedLine@@YGHPBDH@Z ; AfxAssertFailedLine
  00029	85 c0		 test	 eax, eax
  0002b	74 01		 je	 SHORT $LN4@GetServerU
  0002d	cc		 int	 3
$LN4@GetServerU:

; 344  : 	if(m_pIPersonalRoomItem!=NULL)

  0002e	8b 45 fc	 mov	 eax, DWORD PTR _this$[ebp]
  00031	83 78 08 00	 cmp	 DWORD PTR [eax+8], 0
  00035	74 37		 je	 SHORT $LN2@GetServerU

; 345  : 	{
; 346  : 		return QUERY_OBJECT_PTR_INTERFACE(m_pIPersonalRoomItem,IUnknownEx);

  00037	8b 45 fc	 mov	 eax, DWORD PTR _this$[ebp]
  0003a	83 78 08 00	 cmp	 DWORD PTR [eax+8], 0
  0003e	75 09		 jne	 SHORT $LN5@GetServerU
  00040	c7 45 b8 00 00
	00 00		 mov	 DWORD PTR tv90[ebp], 0
  00047	eb 20		 jmp	 SHORT $LN6@GetServerU
$LN5@GetServerU:
  00049	68 00 01 01 06	 push	 100729088		; 06010100H
  0004e	68 00 00 00 00	 push	 OFFSET ?IID_IUnknownEx@@3U_GUID@@B
  00053	8b 4d fc	 mov	 ecx, DWORD PTR _this$[ebp]
  00056	8b 51 08	 mov	 edx, DWORD PTR [ecx+8]
  00059	8b 45 fc	 mov	 eax, DWORD PTR _this$[ebp]
  0005c	8b 12		 mov	 edx, DWORD PTR [edx]
  0005e	8b 48 08	 mov	 ecx, DWORD PTR [eax+8]
  00061	8b 42 04	 mov	 eax, DWORD PTR [edx+4]
  00064	ff d0		 call	 eax
  00066	89 45 b8	 mov	 DWORD PTR tv90[ebp], eax
$LN6@GetServerU:
  00069	8b 45 b8	 mov	 eax, DWORD PTR tv90[ebp]
  0006c	eb 02		 jmp	 SHORT $LN1@GetServerU
$LN2@GetServerU:

; 347  : 	}
; 348  : 	return NULL;

  0006e	33 c0		 xor	 eax, eax
$LN1@GetServerU:

; 349  : }

  00070	5f		 pop	 edi
  00071	5e		 pop	 esi
  00072	5b		 pop	 ebx
  00073	8b e5		 mov	 esp, ebp
  00075	5d		 pop	 ebp
  00076	c3		 ret	 0
?GetServerUserItemSink@CPersonalRoomServiceManager@@UAEPAUIUnknownEx@@XZ ENDP ; CPersonalRoomServiceManager::GetServerUserItemSink
_TEXT	ENDS
; Function compile flags: /Odtp /ZI
; File g:\网狐\happygamewh\服务端\系统模块\服务器组件\约战服务\personalroomservicemanager.cpp
;	COMDAT ?OnEventUserLogonFinish@CPersonalRoomServiceManager@@UAE_NPAUIServerUserItem@@@Z
_TEXT	SEGMENT
_this$ = -4						; size = 4
_pIServerUserItem$ = 8					; size = 4
?OnEventUserLogonFinish@CPersonalRoomServiceManager@@UAE_NPAUIServerUserItem@@@Z PROC ; CPersonalRoomServiceManager::OnEventUserLogonFinish, COMDAT
; _this$ = ecx

; 187  : {

  00000	55		 push	 ebp
  00001	8b ec		 mov	 ebp, esp
  00003	83 ec 44	 sub	 esp, 68			; 00000044H
  00006	53		 push	 ebx
  00007	56		 push	 esi
  00008	57		 push	 edi
  00009	89 4d fc	 mov	 DWORD PTR _this$[ebp], ecx

; 188  : 	ASSERT(m_pIPersonalRoomItem!=NULL);

  0000c	8b 45 fc	 mov	 eax, DWORD PTR _this$[ebp]
  0000f	83 78 08 00	 cmp	 DWORD PTR [eax+8], 0
  00013	75 19		 jne	 SHORT $LN4@OnEventUse
  00015	8b 0d 00 00 00
	00		 mov	 ecx, DWORD PTR ?__LINE__Var@?0??OnEventUserLogonFinish@CPersonalRoomServiceManager@@UAE_NPAUIServerUserItem@@@Z@4JA
  0001b	83 c1 01	 add	 ecx, 1
  0001e	51		 push	 ecx
  0001f	68 00 00 00 00	 push	 OFFSET ??_C@_0FH@KBPFBDOA@g?3?2?M?x?$LK?$PM?2happygamewh?2?$LH?$PO?N?q?$LG?K?2?O?$LF?M?$LD@
  00024	e8 00 00 00 00	 call	 ?AfxAssertFailedLine@@YGHPBDH@Z ; AfxAssertFailedLine
  00029	85 c0		 test	 eax, eax
  0002b	74 01		 je	 SHORT $LN4@OnEventUse
  0002d	cc		 int	 3
$LN4@OnEventUse:

; 189  : 	if(m_pIPersonalRoomItem!=NULL)

  0002e	8b 45 fc	 mov	 eax, DWORD PTR _this$[ebp]
  00031	83 78 08 00	 cmp	 DWORD PTR [eax+8], 0
  00035	74 19		 je	 SHORT $LN2@OnEventUse

; 190  : 	{
; 191  : 		return m_pIPersonalRoomItem->OnEventUserLogonFinish(pIServerUserItem);	

  00037	8b 45 08	 mov	 eax, DWORD PTR _pIServerUserItem$[ebp]
  0003a	50		 push	 eax
  0003b	8b 4d fc	 mov	 ecx, DWORD PTR _this$[ebp]
  0003e	8b 51 08	 mov	 edx, DWORD PTR [ecx+8]
  00041	8b 45 fc	 mov	 eax, DWORD PTR _this$[ebp]
  00044	8b 12		 mov	 edx, DWORD PTR [edx]
  00046	8b 48 08	 mov	 ecx, DWORD PTR [eax+8]
  00049	8b 42 2c	 mov	 eax, DWORD PTR [edx+44]
  0004c	ff d0		 call	 eax
  0004e	eb 02		 jmp	 SHORT $LN1@OnEventUse
$LN2@OnEventUse:

; 192  : 	}
; 193  : 
; 194  : 	return true;

  00050	b0 01		 mov	 al, 1
$LN1@OnEventUse:

; 195  : }

  00052	5f		 pop	 edi
  00053	5e		 pop	 esi
  00054	5b		 pop	 ebx
  00055	8b e5		 mov	 esp, ebp
  00057	5d		 pop	 ebp
  00058	c2 04 00	 ret	 4
?OnEventUserLogonFinish@CPersonalRoomServiceManager@@UAE_NPAUIServerUserItem@@@Z ENDP ; CPersonalRoomServiceManager::OnEventUserLogonFinish
_TEXT	ENDS
; Function compile flags: /Odtp /ZI
; File g:\网狐\happygamewh\服务端\系统模块\服务器组件\约战服务\personalroomservicemanager.cpp
;	COMDAT ?OnEventUserLogout@CPersonalRoomServiceManager@@UAE_NPAUIServerUserItem@@@Z
_TEXT	SEGMENT
_this$ = -4						; size = 4
_pIServerUserItem$ = 8					; size = 4
?OnEventUserLogout@CPersonalRoomServiceManager@@UAE_NPAUIServerUserItem@@@Z PROC ; CPersonalRoomServiceManager::OnEventUserLogout, COMDAT
; _this$ = ecx

; 175  : {

  00000	55		 push	 ebp
  00001	8b ec		 mov	 ebp, esp
  00003	83 ec 44	 sub	 esp, 68			; 00000044H
  00006	53		 push	 ebx
  00007	56		 push	 esi
  00008	57		 push	 edi
  00009	89 4d fc	 mov	 DWORD PTR _this$[ebp], ecx

; 176  : 	ASSERT(m_pIPersonalRoomItem!=NULL);

  0000c	8b 45 fc	 mov	 eax, DWORD PTR _this$[ebp]
  0000f	83 78 08 00	 cmp	 DWORD PTR [eax+8], 0
  00013	75 19		 jne	 SHORT $LN4@OnEventUse
  00015	8b 0d 00 00 00
	00		 mov	 ecx, DWORD PTR ?__LINE__Var@?0??OnEventUserLogout@CPersonalRoomServiceManager@@UAE_NPAUIServerUserItem@@@Z@4JA
  0001b	83 c1 01	 add	 ecx, 1
  0001e	51		 push	 ecx
  0001f	68 00 00 00 00	 push	 OFFSET ??_C@_0FH@KBPFBDOA@g?3?2?M?x?$LK?$PM?2happygamewh?2?$LH?$PO?N?q?$LG?K?2?O?$LF?M?$LD@
  00024	e8 00 00 00 00	 call	 ?AfxAssertFailedLine@@YGHPBDH@Z ; AfxAssertFailedLine
  00029	85 c0		 test	 eax, eax
  0002b	74 01		 je	 SHORT $LN4@OnEventUse
  0002d	cc		 int	 3
$LN4@OnEventUse:

; 177  : 	if(m_pIPersonalRoomItem!=NULL)

  0002e	8b 45 fc	 mov	 eax, DWORD PTR _this$[ebp]
  00031	83 78 08 00	 cmp	 DWORD PTR [eax+8], 0
  00035	74 19		 je	 SHORT $LN2@OnEventUse

; 178  : 	{
; 179  : 		return m_pIPersonalRoomItem->OnEventUserLogout(pIServerUserItem);	

  00037	8b 45 08	 mov	 eax, DWORD PTR _pIServerUserItem$[ebp]
  0003a	50		 push	 eax
  0003b	8b 4d fc	 mov	 ecx, DWORD PTR _this$[ebp]
  0003e	8b 51 08	 mov	 edx, DWORD PTR [ecx+8]
  00041	8b 45 fc	 mov	 eax, DWORD PTR _this$[ebp]
  00044	8b 12		 mov	 edx, DWORD PTR [edx]
  00046	8b 48 08	 mov	 ecx, DWORD PTR [eax+8]
  00049	8b 42 28	 mov	 eax, DWORD PTR [edx+40]
  0004c	ff d0		 call	 eax
  0004e	eb 02		 jmp	 SHORT $LN1@OnEventUse
$LN2@OnEventUse:

; 180  : 	}
; 181  : 
; 182  : 	return true;

  00050	b0 01		 mov	 al, 1
$LN1@OnEventUse:

; 183  : }

  00052	5f		 pop	 edi
  00053	5e		 pop	 esi
  00054	5b		 pop	 ebx
  00055	8b e5		 mov	 esp, ebp
  00057	5d		 pop	 ebp
  00058	c2 04 00	 ret	 4
?OnEventUserLogout@CPersonalRoomServiceManager@@UAE_NPAUIServerUserItem@@@Z ENDP ; CPersonalRoomServiceManager::OnEventUserLogout
_TEXT	ENDS
; Function compile flags: /Odtp /ZI
; File g:\网狐\happygamewh\服务端\系统模块\服务器组件\约战服务\personalroomservicemanager.cpp
;	COMDAT ?OnEventUserLogon@CPersonalRoomServiceManager@@UAE_NPAUIServerUserItem@@@Z
_TEXT	SEGMENT
_this$ = -4						; size = 4
_pIServerUserItem$ = 8					; size = 4
?OnEventUserLogon@CPersonalRoomServiceManager@@UAE_NPAUIServerUserItem@@@Z PROC ; CPersonalRoomServiceManager::OnEventUserLogon, COMDAT
; _this$ = ecx

; 163  : {

  00000	55		 push	 ebp
  00001	8b ec		 mov	 ebp, esp
  00003	83 ec 44	 sub	 esp, 68			; 00000044H
  00006	53		 push	 ebx
  00007	56		 push	 esi
  00008	57		 push	 edi
  00009	89 4d fc	 mov	 DWORD PTR _this$[ebp], ecx

; 164  : 	ASSERT(m_pIPersonalRoomItem!=NULL);

  0000c	8b 45 fc	 mov	 eax, DWORD PTR _this$[ebp]
  0000f	83 78 08 00	 cmp	 DWORD PTR [eax+8], 0
  00013	75 19		 jne	 SHORT $LN4@OnEventUse
  00015	8b 0d 00 00 00
	00		 mov	 ecx, DWORD PTR ?__LINE__Var@?0??OnEventUserLogon@CPersonalRoomServiceManager@@UAE_NPAUIServerUserItem@@@Z@4JA
  0001b	83 c1 01	 add	 ecx, 1
  0001e	51		 push	 ecx
  0001f	68 00 00 00 00	 push	 OFFSET ??_C@_0FH@KBPFBDOA@g?3?2?M?x?$LK?$PM?2happygamewh?2?$LH?$PO?N?q?$LG?K?2?O?$LF?M?$LD@
  00024	e8 00 00 00 00	 call	 ?AfxAssertFailedLine@@YGHPBDH@Z ; AfxAssertFailedLine
  00029	85 c0		 test	 eax, eax
  0002b	74 01		 je	 SHORT $LN4@OnEventUse
  0002d	cc		 int	 3
$LN4@OnEventUse:

; 165  : 	if(m_pIPersonalRoomItem!=NULL)

  0002e	8b 45 fc	 mov	 eax, DWORD PTR _this$[ebp]
  00031	83 78 08 00	 cmp	 DWORD PTR [eax+8], 0
  00035	74 19		 je	 SHORT $LN2@OnEventUse

; 166  : 	{
; 167  : 		return m_pIPersonalRoomItem->OnEventUserLogon(pIServerUserItem);	

  00037	8b 45 08	 mov	 eax, DWORD PTR _pIServerUserItem$[ebp]
  0003a	50		 push	 eax
  0003b	8b 4d fc	 mov	 ecx, DWORD PTR _this$[ebp]
  0003e	8b 51 08	 mov	 edx, DWORD PTR [ecx+8]
  00041	8b 45 fc	 mov	 eax, DWORD PTR _this$[ebp]
  00044	8b 12		 mov	 edx, DWORD PTR [edx]
  00046	8b 48 08	 mov	 ecx, DWORD PTR [eax+8]
  00049	8b 42 24	 mov	 eax, DWORD PTR [edx+36]
  0004c	ff d0		 call	 eax
  0004e	eb 02		 jmp	 SHORT $LN1@OnEventUse
$LN2@OnEventUse:

; 168  : 	}
; 169  : 
; 170  : 	return true;

  00050	b0 01		 mov	 al, 1
$LN1@OnEventUse:

; 171  : }

  00052	5f		 pop	 edi
  00053	5e		 pop	 esi
  00054	5b		 pop	 ebx
  00055	8b e5		 mov	 esp, ebp
  00057	5d		 pop	 ebp
  00058	c2 04 00	 ret	 4
?OnEventUserLogon@CPersonalRoomServiceManager@@UAE_NPAUIServerUserItem@@@Z ENDP ; CPersonalRoomServiceManager::OnEventUserLogon
_TEXT	ENDS
; Function compile flags: /Odtp /ZI
; File g:\网狐\happygamewh\服务端\系统模块\服务器组件\约战服务\personalroomservicemanager.cpp
;	COMDAT ?OnTCPSocketMainServiceInfo@CPersonalRoomServiceManager@@UAE_NGPAXG@Z
_TEXT	SEGMENT
_this$ = -4						; size = 4
_wSubCmdID$ = 8						; size = 2
_pData$ = 12						; size = 4
_wDataSize$ = 16					; size = 2
?OnTCPSocketMainServiceInfo@CPersonalRoomServiceManager@@UAE_NGPAXG@Z PROC ; CPersonalRoomServiceManager::OnTCPSocketMainServiceInfo, COMDAT
; _this$ = ecx

; 152  : {

  00000	55		 push	 ebp
  00001	8b ec		 mov	 ebp, esp
  00003	83 ec 44	 sub	 esp, 68			; 00000044H
  00006	53		 push	 ebx
  00007	56		 push	 esi
  00008	57		 push	 edi
  00009	89 4d fc	 mov	 DWORD PTR _this$[ebp], ecx

; 153  : 	ASSERT(m_pIPersonalRoomItem!=NULL);

  0000c	8b 45 fc	 mov	 eax, DWORD PTR _this$[ebp]
  0000f	83 78 08 00	 cmp	 DWORD PTR [eax+8], 0
  00013	75 19		 jne	 SHORT $LN4@OnTCPSocke
  00015	8b 0d 00 00 00
	00		 mov	 ecx, DWORD PTR ?__LINE__Var@?0??OnTCPSocketMainServiceInfo@CPersonalRoomServiceManager@@UAE_NGPAXG@Z@4JA
  0001b	83 c1 01	 add	 ecx, 1
  0001e	51		 push	 ecx
  0001f	68 00 00 00 00	 push	 OFFSET ??_C@_0FH@KBPFBDOA@g?3?2?M?x?$LK?$PM?2happygamewh?2?$LH?$PO?N?q?$LG?K?2?O?$LF?M?$LD@
  00024	e8 00 00 00 00	 call	 ?AfxAssertFailedLine@@YGHPBDH@Z ; AfxAssertFailedLine
  00029	85 c0		 test	 eax, eax
  0002b	74 01		 je	 SHORT $LN4@OnTCPSocke
  0002d	cc		 int	 3
$LN4@OnTCPSocke:

; 154  : 	if(m_pIPersonalRoomItem!=NULL)

  0002e	8b 45 fc	 mov	 eax, DWORD PTR _this$[ebp]
  00031	83 78 08 00	 cmp	 DWORD PTR [eax+8], 0
  00035	74 23		 je	 SHORT $LN2@OnTCPSocke

; 155  : 	{
; 156  : 		return m_pIPersonalRoomItem->OnTCPSocketMainServiceInfo(wSubCmdID,pData,wDataSize);	

  00037	0f b7 45 10	 movzx	 eax, WORD PTR _wDataSize$[ebp]
  0003b	50		 push	 eax
  0003c	8b 4d 0c	 mov	 ecx, DWORD PTR _pData$[ebp]
  0003f	51		 push	 ecx
  00040	0f b7 55 08	 movzx	 edx, WORD PTR _wSubCmdID$[ebp]
  00044	52		 push	 edx
  00045	8b 45 fc	 mov	 eax, DWORD PTR _this$[ebp]
  00048	8b 48 08	 mov	 ecx, DWORD PTR [eax+8]
  0004b	8b 55 fc	 mov	 edx, DWORD PTR _this$[ebp]
  0004e	8b 01		 mov	 eax, DWORD PTR [ecx]
  00050	8b 4a 08	 mov	 ecx, DWORD PTR [edx+8]
  00053	8b 50 20	 mov	 edx, DWORD PTR [eax+32]
  00056	ff d2		 call	 edx
  00058	eb 02		 jmp	 SHORT $LN1@OnTCPSocke
$LN2@OnTCPSocke:

; 157  : 	}
; 158  : 	return true;

  0005a	b0 01		 mov	 al, 1
$LN1@OnTCPSocke:

; 159  : }

  0005c	5f		 pop	 edi
  0005d	5e		 pop	 esi
  0005e	5b		 pop	 ebx
  0005f	8b e5		 mov	 esp, ebp
  00061	5d		 pop	 ebp
  00062	c2 0c 00	 ret	 12			; 0000000cH
?OnTCPSocketMainServiceInfo@CPersonalRoomServiceManager@@UAE_NGPAXG@Z ENDP ; CPersonalRoomServiceManager::OnTCPSocketMainServiceInfo
_TEXT	ENDS
; Function compile flags: /Odtp /ZI
; File g:\网狐\happygamewh\服务端\系统模块\服务器组件\约战服务\personalroomservicemanager.cpp
;	COMDAT ?OnEventSocketPersonalRoom@CPersonalRoomServiceManager@@UAE_NGPAXGPAUIServerUserItem@@K@Z
_TEXT	SEGMENT
_this$ = -4						; size = 4
_wSubCmdID$ = 8						; size = 2
_pData$ = 12						; size = 4
_wDataSize$ = 16					; size = 2
_pIServerUserItem$ = 20					; size = 4
_dwSocketID$ = 24					; size = 4
?OnEventSocketPersonalRoom@CPersonalRoomServiceManager@@UAE_NGPAXGPAUIServerUserItem@@K@Z PROC ; CPersonalRoomServiceManager::OnEventSocketPersonalRoom, COMDAT
; _this$ = ecx

; 140  : {

  00000	55		 push	 ebp
  00001	8b ec		 mov	 ebp, esp
  00003	83 ec 44	 sub	 esp, 68			; 00000044H
  00006	53		 push	 ebx
  00007	56		 push	 esi
  00008	57		 push	 edi
  00009	89 4d fc	 mov	 DWORD PTR _this$[ebp], ecx

; 141  : 	ASSERT(m_pIPersonalRoomItem!=NULL);

  0000c	8b 45 fc	 mov	 eax, DWORD PTR _this$[ebp]
  0000f	83 78 08 00	 cmp	 DWORD PTR [eax+8], 0
  00013	75 19		 jne	 SHORT $LN4@OnEventSoc
  00015	8b 0d 00 00 00
	00		 mov	 ecx, DWORD PTR ?__LINE__Var@?0??OnEventSocketPersonalRoom@CPersonalRoomServiceManager@@UAE_NGPAXGPAUIServerUserItem@@K@Z@4JA
  0001b	83 c1 01	 add	 ecx, 1
  0001e	51		 push	 ecx
  0001f	68 00 00 00 00	 push	 OFFSET ??_C@_0FH@KBPFBDOA@g?3?2?M?x?$LK?$PM?2happygamewh?2?$LH?$PO?N?q?$LG?K?2?O?$LF?M?$LD@
  00024	e8 00 00 00 00	 call	 ?AfxAssertFailedLine@@YGHPBDH@Z ; AfxAssertFailedLine
  00029	85 c0		 test	 eax, eax
  0002b	74 01		 je	 SHORT $LN4@OnEventSoc
  0002d	cc		 int	 3
$LN4@OnEventSoc:

; 142  : 	if(m_pIPersonalRoomItem!=NULL)

  0002e	8b 45 fc	 mov	 eax, DWORD PTR _this$[ebp]
  00031	83 78 08 00	 cmp	 DWORD PTR [eax+8], 0
  00035	74 2b		 je	 SHORT $LN2@OnEventSoc

; 143  : 	{
; 144  : 		return m_pIPersonalRoomItem->OnEventSocketPersonalRoom(wSubCmdID,pData,wDataSize,pIServerUserItem,dwSocketID);	

  00037	8b 45 18	 mov	 eax, DWORD PTR _dwSocketID$[ebp]
  0003a	50		 push	 eax
  0003b	8b 4d 14	 mov	 ecx, DWORD PTR _pIServerUserItem$[ebp]
  0003e	51		 push	 ecx
  0003f	0f b7 55 10	 movzx	 edx, WORD PTR _wDataSize$[ebp]
  00043	52		 push	 edx
  00044	8b 45 0c	 mov	 eax, DWORD PTR _pData$[ebp]
  00047	50		 push	 eax
  00048	0f b7 4d 08	 movzx	 ecx, WORD PTR _wSubCmdID$[ebp]
  0004c	51		 push	 ecx
  0004d	8b 55 fc	 mov	 edx, DWORD PTR _this$[ebp]
  00050	8b 42 08	 mov	 eax, DWORD PTR [edx+8]
  00053	8b 4d fc	 mov	 ecx, DWORD PTR _this$[ebp]
  00056	8b 10		 mov	 edx, DWORD PTR [eax]
  00058	8b 49 08	 mov	 ecx, DWORD PTR [ecx+8]
  0005b	8b 42 1c	 mov	 eax, DWORD PTR [edx+28]
  0005e	ff d0		 call	 eax
  00060	eb 02		 jmp	 SHORT $LN1@OnEventSoc
$LN2@OnEventSoc:

; 145  : 	}
; 146  : 
; 147  : 	return true;

  00062	b0 01		 mov	 al, 1
$LN1@OnEventSoc:

; 148  : }

  00064	5f		 pop	 edi
  00065	5e		 pop	 esi
  00066	5b		 pop	 ebx
  00067	8b e5		 mov	 esp, ebp
  00069	5d		 pop	 ebp
  0006a	c2 14 00	 ret	 20			; 00000014H
?OnEventSocketPersonalRoom@CPersonalRoomServiceManager@@UAE_NGPAXGPAUIServerUserItem@@K@Z ENDP ; CPersonalRoomServiceManager::OnEventSocketPersonalRoom
_TEXT	ENDS
; Function compile flags: /Odtp /ZI
; File g:\网狐\happygamewh\服务端\系统模块\服务器组件\约战服务\personalroomservicemanager.cpp
;	COMDAT ?OnEventDataBase@CPersonalRoomServiceManager@@UAE_NGPAUIServerUserItem@@PAXGK@Z
_TEXT	SEGMENT
_this$ = -4						; size = 4
_wRequestID$ = 8					; size = 2
_pIServerUserItem$ = 12					; size = 4
_pData$ = 16						; size = 4
_wDataSize$ = 20					; size = 2
_dwContextID$ = 24					; size = 4
?OnEventDataBase@CPersonalRoomServiceManager@@UAE_NGPAUIServerUserItem@@PAXGK@Z PROC ; CPersonalRoomServiceManager::OnEventDataBase, COMDAT
; _this$ = ecx

; 127  : {

  00000	55		 push	 ebp
  00001	8b ec		 mov	 ebp, esp
  00003	83 ec 44	 sub	 esp, 68			; 00000044H
  00006	53		 push	 ebx
  00007	56		 push	 esi
  00008	57		 push	 edi
  00009	89 4d fc	 mov	 DWORD PTR _this$[ebp], ecx

; 128  : 	ASSERT(m_pIPersonalRoomItem!=NULL);

  0000c	8b 45 fc	 mov	 eax, DWORD PTR _this$[ebp]
  0000f	83 78 08 00	 cmp	 DWORD PTR [eax+8], 0
  00013	75 19		 jne	 SHORT $LN4@OnEventDat
  00015	8b 0d 00 00 00
	00		 mov	 ecx, DWORD PTR ?__LINE__Var@?0??OnEventDataBase@CPersonalRoomServiceManager@@UAE_NGPAUIServerUserItem@@PAXGK@Z@4JA
  0001b	83 c1 01	 add	 ecx, 1
  0001e	51		 push	 ecx
  0001f	68 00 00 00 00	 push	 OFFSET ??_C@_0FH@KBPFBDOA@g?3?2?M?x?$LK?$PM?2happygamewh?2?$LH?$PO?N?q?$LG?K?2?O?$LF?M?$LD@
  00024	e8 00 00 00 00	 call	 ?AfxAssertFailedLine@@YGHPBDH@Z ; AfxAssertFailedLine
  00029	85 c0		 test	 eax, eax
  0002b	74 01		 je	 SHORT $LN4@OnEventDat
  0002d	cc		 int	 3
$LN4@OnEventDat:

; 129  : 	if(m_pIPersonalRoomItem!=NULL)

  0002e	8b 45 fc	 mov	 eax, DWORD PTR _this$[ebp]
  00031	83 78 08 00	 cmp	 DWORD PTR [eax+8], 0
  00035	74 2b		 je	 SHORT $LN2@OnEventDat

; 130  : 	{
; 131  : 		return m_pIPersonalRoomItem->OnEventDataBase(wRequestID,pIServerUserItem,pData,wDataSize,dwContextID);	

  00037	8b 45 18	 mov	 eax, DWORD PTR _dwContextID$[ebp]
  0003a	50		 push	 eax
  0003b	0f b7 4d 14	 movzx	 ecx, WORD PTR _wDataSize$[ebp]
  0003f	51		 push	 ecx
  00040	8b 55 10	 mov	 edx, DWORD PTR _pData$[ebp]
  00043	52		 push	 edx
  00044	8b 45 0c	 mov	 eax, DWORD PTR _pIServerUserItem$[ebp]
  00047	50		 push	 eax
  00048	0f b7 4d 08	 movzx	 ecx, WORD PTR _wRequestID$[ebp]
  0004c	51		 push	 ecx
  0004d	8b 55 fc	 mov	 edx, DWORD PTR _this$[ebp]
  00050	8b 42 08	 mov	 eax, DWORD PTR [edx+8]
  00053	8b 4d fc	 mov	 ecx, DWORD PTR _this$[ebp]
  00056	8b 10		 mov	 edx, DWORD PTR [eax]
  00058	8b 49 08	 mov	 ecx, DWORD PTR [ecx+8]
  0005b	8b 42 18	 mov	 eax, DWORD PTR [edx+24]
  0005e	ff d0		 call	 eax
  00060	eb 02		 jmp	 SHORT $LN1@OnEventDat
$LN2@OnEventDat:

; 132  : 	}
; 133  : 
; 134  : 	return true;

  00062	b0 01		 mov	 al, 1
$LN1@OnEventDat:

; 135  : }

  00064	5f		 pop	 edi
  00065	5e		 pop	 esi
  00066	5b		 pop	 ebx
  00067	8b e5		 mov	 esp, ebp
  00069	5d		 pop	 ebp
  0006a	c2 14 00	 ret	 20			; 00000014H
?OnEventDataBase@CPersonalRoomServiceManager@@UAE_NGPAUIServerUserItem@@PAXGK@Z ENDP ; CPersonalRoomServiceManager::OnEventDataBase
_TEXT	ENDS
; Function compile flags: /Odtp /ZI
; File g:\网狐\happygamewh\服务端\系统模块\服务器组件\约战服务\personalroomservicemanager.cpp
;	COMDAT ?OnEventTimer@CPersonalRoomServiceManager@@UAE_NKI@Z
_TEXT	SEGMENT
_this$ = -4						; size = 4
_dwTimerID$ = 8						; size = 4
_dwBindParameter$ = 12					; size = 4
?OnEventTimer@CPersonalRoomServiceManager@@UAE_NKI@Z PROC ; CPersonalRoomServiceManager::OnEventTimer, COMDAT
; _this$ = ecx

; 115  : {

  00000	55		 push	 ebp
  00001	8b ec		 mov	 ebp, esp
  00003	83 ec 44	 sub	 esp, 68			; 00000044H
  00006	53		 push	 ebx
  00007	56		 push	 esi
  00008	57		 push	 edi
  00009	89 4d fc	 mov	 DWORD PTR _this$[ebp], ecx

; 116  : 	ASSERT(m_pIPersonalRoomItem!=NULL);

  0000c	8b 45 fc	 mov	 eax, DWORD PTR _this$[ebp]
  0000f	83 78 08 00	 cmp	 DWORD PTR [eax+8], 0
  00013	75 19		 jne	 SHORT $LN4@OnEventTim
  00015	8b 0d 00 00 00
	00		 mov	 ecx, DWORD PTR ?__LINE__Var@?0??OnEventTimer@CPersonalRoomServiceManager@@UAE_NKI@Z@4JA
  0001b	83 c1 01	 add	 ecx, 1
  0001e	51		 push	 ecx
  0001f	68 00 00 00 00	 push	 OFFSET ??_C@_0FH@KBPFBDOA@g?3?2?M?x?$LK?$PM?2happygamewh?2?$LH?$PO?N?q?$LG?K?2?O?$LF?M?$LD@
  00024	e8 00 00 00 00	 call	 ?AfxAssertFailedLine@@YGHPBDH@Z ; AfxAssertFailedLine
  00029	85 c0		 test	 eax, eax
  0002b	74 01		 je	 SHORT $LN4@OnEventTim
  0002d	cc		 int	 3
$LN4@OnEventTim:

; 117  : 	if(m_pIPersonalRoomItem!=NULL)

  0002e	8b 45 fc	 mov	 eax, DWORD PTR _this$[ebp]
  00031	83 78 08 00	 cmp	 DWORD PTR [eax+8], 0
  00035	74 1d		 je	 SHORT $LN2@OnEventTim

; 118  : 	{
; 119  : 		return m_pIPersonalRoomItem->OnEventTimer(dwTimerID,dwBindParameter);	

  00037	8b 45 0c	 mov	 eax, DWORD PTR _dwBindParameter$[ebp]
  0003a	50		 push	 eax
  0003b	8b 4d 08	 mov	 ecx, DWORD PTR _dwTimerID$[ebp]
  0003e	51		 push	 ecx
  0003f	8b 55 fc	 mov	 edx, DWORD PTR _this$[ebp]
  00042	8b 42 08	 mov	 eax, DWORD PTR [edx+8]
  00045	8b 4d fc	 mov	 ecx, DWORD PTR _this$[ebp]
  00048	8b 10		 mov	 edx, DWORD PTR [eax]
  0004a	8b 49 08	 mov	 ecx, DWORD PTR [ecx+8]
  0004d	8b 42 14	 mov	 eax, DWORD PTR [edx+20]
  00050	ff d0		 call	 eax
  00052	eb 02		 jmp	 SHORT $LN1@OnEventTim
$LN2@OnEventTim:

; 120  : 	}
; 121  : 
; 122  : 	return true;

  00054	b0 01		 mov	 al, 1
$LN1@OnEventTim:

; 123  : }

  00056	5f		 pop	 edi
  00057	5e		 pop	 esi
  00058	5b		 pop	 ebx
  00059	8b e5		 mov	 esp, ebp
  0005b	5d		 pop	 ebp
  0005c	c2 08 00	 ret	 8
?OnEventTimer@CPersonalRoomServiceManager@@UAE_NKI@Z ENDP ; CPersonalRoomServiceManager::OnEventTimer
_TEXT	ENDS
; Function compile flags: /Odtp /ZI
; File g:\网狐\happygamewh\服务端\系统模块\服务器组件\约战服务\personalroomservicemanager.cpp
;	COMDAT ?InitPersonalRooomInterface@CPersonalRoomServiceManager@@UAE_NAAUtagPersonalRoomManagerParameter@@@Z
_TEXT	SEGMENT
_this$ = -4						; size = 4
_PersonalManagerParameter$ = 8				; size = 4
?InitPersonalRooomInterface@CPersonalRoomServiceManager@@UAE_NAAUtagPersonalRoomManagerParameter@@@Z PROC ; CPersonalRoomServiceManager::InitPersonalRooomInterface, COMDAT
; _this$ = ecx

; 103  : {

  00000	55		 push	 ebp
  00001	8b ec		 mov	 ebp, esp
  00003	83 ec 44	 sub	 esp, 68			; 00000044H
  00006	53		 push	 ebx
  00007	56		 push	 esi
  00008	57		 push	 edi
  00009	89 4d fc	 mov	 DWORD PTR _this$[ebp], ecx

; 104  : 	ASSERT(m_pIPersonalRoomItem!=NULL);

  0000c	8b 45 fc	 mov	 eax, DWORD PTR _this$[ebp]
  0000f	83 78 08 00	 cmp	 DWORD PTR [eax+8], 0
  00013	75 19		 jne	 SHORT $LN4@InitPerson
  00015	8b 0d 00 00 00
	00		 mov	 ecx, DWORD PTR ?__LINE__Var@?0??InitPersonalRooomInterface@CPersonalRoomServiceManager@@UAE_NAAUtagPersonalRoomManagerParameter@@@Z@4JA
  0001b	83 c1 01	 add	 ecx, 1
  0001e	51		 push	 ecx
  0001f	68 00 00 00 00	 push	 OFFSET ??_C@_0FH@KBPFBDOA@g?3?2?M?x?$LK?$PM?2happygamewh?2?$LH?$PO?N?q?$LG?K?2?O?$LF?M?$LD@
  00024	e8 00 00 00 00	 call	 ?AfxAssertFailedLine@@YGHPBDH@Z ; AfxAssertFailedLine
  00029	85 c0		 test	 eax, eax
  0002b	74 01		 je	 SHORT $LN4@InitPerson
  0002d	cc		 int	 3
$LN4@InitPerson:

; 105  : 	if(m_pIPersonalRoomItem!=NULL)

  0002e	8b 45 fc	 mov	 eax, DWORD PTR _this$[ebp]
  00031	83 78 08 00	 cmp	 DWORD PTR [eax+8], 0
  00035	74 19		 je	 SHORT $LN2@InitPerson

; 106  : 	{
; 107  : 		return m_pIPersonalRoomItem->InitPersonalRooomInterface(PersonalManagerParameter);

  00037	8b 45 08	 mov	 eax, DWORD PTR _PersonalManagerParameter$[ebp]
  0003a	50		 push	 eax
  0003b	8b 4d fc	 mov	 ecx, DWORD PTR _this$[ebp]
  0003e	8b 51 08	 mov	 edx, DWORD PTR [ecx+8]
  00041	8b 45 fc	 mov	 eax, DWORD PTR _this$[ebp]
  00044	8b 12		 mov	 edx, DWORD PTR [edx]
  00046	8b 48 08	 mov	 ecx, DWORD PTR [eax+8]
  00049	8b 42 10	 mov	 eax, DWORD PTR [edx+16]
  0004c	ff d0		 call	 eax
  0004e	eb 02		 jmp	 SHORT $LN1@InitPerson
$LN2@InitPerson:

; 108  : 	}
; 109  : 
; 110  : 	return true;

  00050	b0 01		 mov	 al, 1
$LN1@InitPerson:

; 111  : }

  00052	5f		 pop	 edi
  00053	5e		 pop	 esi
  00054	5b		 pop	 ebx
  00055	8b e5		 mov	 esp, ebp
  00057	5d		 pop	 ebp
  00058	c2 04 00	 ret	 4
?InitPersonalRooomInterface@CPersonalRoomServiceManager@@UAE_NAAUtagPersonalRoomManagerParameter@@@Z ENDP ; CPersonalRoomServiceManager::InitPersonalRooomInterface
_TEXT	ENDS
; Function compile flags: /Odtp /ZI
; File g:\网狐\happygamewh\服务端\系统模块\服务器组件\约战服务\personalroomservicemanager.cpp
;	COMDAT ?BindTableFrame@CPersonalRoomServiceManager@@UAE_NPAUITableFrame@@G@Z
_TEXT	SEGMENT
_this$ = -4						; size = 4
_pTableFrame$ = 8					; size = 4
_wTableID$ = 12						; size = 2
?BindTableFrame@CPersonalRoomServiceManager@@UAE_NPAUITableFrame@@G@Z PROC ; CPersonalRoomServiceManager::BindTableFrame, COMDAT
; _this$ = ecx

; 90   : {

  00000	55		 push	 ebp
  00001	8b ec		 mov	 ebp, esp
  00003	83 ec 44	 sub	 esp, 68			; 00000044H
  00006	53		 push	 ebx
  00007	56		 push	 esi
  00008	57		 push	 edi
  00009	89 4d fc	 mov	 DWORD PTR _this$[ebp], ecx

; 91   : 	ASSERT(m_pIPersonalRoomItem!=NULL);

  0000c	8b 45 fc	 mov	 eax, DWORD PTR _this$[ebp]
  0000f	83 78 08 00	 cmp	 DWORD PTR [eax+8], 0
  00013	75 19		 jne	 SHORT $LN4@BindTableF
  00015	8b 0d 00 00 00
	00		 mov	 ecx, DWORD PTR ?__LINE__Var@?0??BindTableFrame@CPersonalRoomServiceManager@@UAE_NPAUITableFrame@@G@Z@4JA
  0001b	83 c1 01	 add	 ecx, 1
  0001e	51		 push	 ecx
  0001f	68 00 00 00 00	 push	 OFFSET ??_C@_0FH@KBPFBDOA@g?3?2?M?x?$LK?$PM?2happygamewh?2?$LH?$PO?N?q?$LG?K?2?O?$LF?M?$LD@
  00024	e8 00 00 00 00	 call	 ?AfxAssertFailedLine@@YGHPBDH@Z ; AfxAssertFailedLine
  00029	85 c0		 test	 eax, eax
  0002b	74 01		 je	 SHORT $LN4@BindTableF
  0002d	cc		 int	 3
$LN4@BindTableF:

; 92   : 	if(m_pIPersonalRoomItem!=NULL)

  0002e	8b 45 fc	 mov	 eax, DWORD PTR _this$[ebp]
  00031	83 78 08 00	 cmp	 DWORD PTR [eax+8], 0
  00035	74 1e		 je	 SHORT $LN2@BindTableF

; 93   : 	{
; 94   : 		return m_pIPersonalRoomItem->BindTableFrame(pTableFrame,wTableID);	

  00037	0f b7 45 0c	 movzx	 eax, WORD PTR _wTableID$[ebp]
  0003b	50		 push	 eax
  0003c	8b 4d 08	 mov	 ecx, DWORD PTR _pTableFrame$[ebp]
  0003f	51		 push	 ecx
  00040	8b 55 fc	 mov	 edx, DWORD PTR _this$[ebp]
  00043	8b 42 08	 mov	 eax, DWORD PTR [edx+8]
  00046	8b 4d fc	 mov	 ecx, DWORD PTR _this$[ebp]
  00049	8b 10		 mov	 edx, DWORD PTR [eax]
  0004b	8b 49 08	 mov	 ecx, DWORD PTR [ecx+8]
  0004e	8b 42 0c	 mov	 eax, DWORD PTR [edx+12]
  00051	ff d0		 call	 eax
  00053	eb 02		 jmp	 SHORT $LN1@BindTableF
$LN2@BindTableF:

; 95   : 	}
; 96   : 
; 97   : 	return true;

  00055	b0 01		 mov	 al, 1
$LN1@BindTableF:

; 98   : }

  00057	5f		 pop	 edi
  00058	5e		 pop	 esi
  00059	5b		 pop	 ebx
  0005a	8b e5		 mov	 esp, ebp
  0005c	5d		 pop	 ebp
  0005d	c2 08 00	 ret	 8
?BindTableFrame@CPersonalRoomServiceManager@@UAE_NPAUITableFrame@@G@Z ENDP ; CPersonalRoomServiceManager::BindTableFrame
_TEXT	ENDS
; Function compile flags: /Odtp /ZI
; File g:\网狐\happygamewh\服务端\系统模块\服务器组件\约战服务\personalroomservicemanager.cpp
;	COMDAT ?CreatePersonalRoom@CPersonalRoomServiceManager@@UAE_NE@Z
_TEXT	SEGMENT
tv89 = -112						; size = 4
tv143 = -108						; size = 4
tv140 = -104						; size = 4
tv135 = -104						; size = 4
$T2 = -97						; size = 1
$T3 = -96						; size = 4
$T4 = -92						; size = 4
$T5 = -88						; size = 4
_this$ = -20						; size = 4
__$EHRec$ = -16						; size = 16
_cbPersonalRoomType$ = 8				; size = 1
?CreatePersonalRoom@CPersonalRoomServiceManager@@UAE_NE@Z PROC ; CPersonalRoomServiceManager::CreatePersonalRoom, COMDAT
; _this$ = ecx

; 69   : {

  00000	55		 push	 ebp
  00001	8b ec		 mov	 ebp, esp
  00003	6a ff		 push	 -1
  00005	68 00 00 00 00	 push	 __ehhandler$?CreatePersonalRoom@CPersonalRoomServiceManager@@UAE_NE@Z
  0000a	64 a1 00 00 00
	00		 mov	 eax, DWORD PTR fs:0
  00010	50		 push	 eax
  00011	51		 push	 ecx
  00012	83 ec 60	 sub	 esp, 96			; 00000060H
  00015	53		 push	 ebx
  00016	56		 push	 esi
  00017	57		 push	 edi
  00018	a1 00 00 00 00	 mov	 eax, DWORD PTR ___security_cookie
  0001d	33 c5		 xor	 eax, ebp
  0001f	50		 push	 eax
  00020	8d 45 f4	 lea	 eax, DWORD PTR __$EHRec$[ebp+4]
  00023	64 a3 00 00 00
	00		 mov	 DWORD PTR fs:0, eax
  00029	89 65 f0	 mov	 DWORD PTR __$EHRec$[ebp], esp
  0002c	89 4d ec	 mov	 DWORD PTR _this$[ebp], ecx

; 70   : 	//接口判断
; 71   : 	ASSERT(m_pIPersonalRoomItem==NULL);

  0002f	8b 45 ec	 mov	 eax, DWORD PTR _this$[ebp]
  00032	83 78 08 00	 cmp	 DWORD PTR [eax+8], 0
  00036	74 19		 je	 SHORT $LN6@CreatePers
  00038	8b 0d 00 00 00
	00		 mov	 ecx, DWORD PTR ?__LINE__Var@?0??CreatePersonalRoom@CPersonalRoomServiceManager@@UAE_NE@Z@4JA
  0003e	83 c1 02	 add	 ecx, 2
  00041	51		 push	 ecx
  00042	68 00 00 00 00	 push	 OFFSET ??_C@_0FH@KBPFBDOA@g?3?2?M?x?$LK?$PM?2happygamewh?2?$LH?$PO?N?q?$LG?K?2?O?$LF?M?$LD@
  00047	e8 00 00 00 00	 call	 ?AfxAssertFailedLine@@YGHPBDH@Z ; AfxAssertFailedLine
  0004c	85 c0		 test	 eax, eax
  0004e	74 01		 je	 SHORT $LN6@CreatePers
  00050	cc		 int	 3
$LN6@CreatePers:

; 72   : 	if(m_pIPersonalRoomItem!=NULL) return false;

  00051	8b 45 ec	 mov	 eax, DWORD PTR _this$[ebp]
  00054	83 78 08 00	 cmp	 DWORD PTR [eax+8], 0
  00058	74 07		 je	 SHORT $LN2@CreatePers
  0005a	32 c0		 xor	 al, al
  0005c	e9 d2 00 00 00	 jmp	 $LN5@CreatePers
$LN2@CreatePers:

; 73   : 
; 74   : 	try

  00061	c7 45 fc 00 00
	00 00		 mov	 DWORD PTR __$EHRec$[ebp+12], 0

; 75   : 	{
; 76   : 		m_pIPersonalRoomItem = new CPersonalRoomGame();

  00068	68 c8 00 00 00	 push	 200			; 000000c8H
  0006d	e8 00 00 00 00	 call	 ??2@YAPAXI@Z		; operator new
  00072	83 c4 04	 add	 esp, 4
  00075	89 45 98	 mov	 DWORD PTR tv140[ebp], eax
  00078	8b 45 98	 mov	 eax, DWORD PTR tv140[ebp]
  0007b	89 45 a4	 mov	 DWORD PTR $T4[ebp], eax
  0007e	c6 45 fc 01	 mov	 BYTE PTR __$EHRec$[ebp+12], 1
  00082	83 7d a4 00	 cmp	 DWORD PTR $T4[ebp], 0
  00086	74 13		 je	 SHORT $LN7@CreatePers
  00088	8b 4d a4	 mov	 ecx, DWORD PTR $T4[ebp]
  0008b	e8 00 00 00 00	 call	 ??0CPersonalRoomGame@@QAE@XZ ; CPersonalRoomGame::CPersonalRoomGame
  00090	89 45 94	 mov	 DWORD PTR tv143[ebp], eax
  00093	8b 4d 94	 mov	 ecx, DWORD PTR tv143[ebp]
  00096	89 4d 90	 mov	 DWORD PTR tv89[ebp], ecx
  00099	eb 07		 jmp	 SHORT $LN8@CreatePers
$LN7@CreatePers:
  0009b	c7 45 90 00 00
	00 00		 mov	 DWORD PTR tv89[ebp], 0
$LN8@CreatePers:
  000a2	8b 55 90	 mov	 edx, DWORD PTR tv89[ebp]
  000a5	89 55 a8	 mov	 DWORD PTR $T5[ebp], edx
  000a8	c6 45 fc 00	 mov	 BYTE PTR __$EHRec$[ebp+12], 0
  000ac	8b 45 ec	 mov	 eax, DWORD PTR _this$[ebp]
  000af	8b 4d a8	 mov	 ecx, DWORD PTR $T5[ebp]
  000b2	89 48 08	 mov	 DWORD PTR [eax+8], ecx

; 77   : 		if(m_pIPersonalRoomItem==NULL) throw TEXT("创建约战房间失败！");

  000b5	8b 45 ec	 mov	 eax, DWORD PTR _this$[ebp]
  000b8	83 78 08 00	 cmp	 DWORD PTR [eax+8], 0
  000bc	75 15		 jne	 SHORT $LN4@CreatePers
  000be	c7 45 a0 00 00
	00 00		 mov	 DWORD PTR $T3[ebp], OFFSET ??_C@_0BD@NGFHCBFH@?$LE?$LE?$LN?$KI?T?$LM?U?$LN?$LH?$LP?$LM?d?J?$KH?$LA?$NM?$KD?$KB@
  000c5	68 00 00 00 00	 push	 OFFSET __TI2PAD
  000ca	8d 45 a0	 lea	 eax, DWORD PTR $T3[ebp]
  000cd	50		 push	 eax
  000ce	e8 00 00 00 00	 call	 __CxxThrowException@8
$LN4@CreatePers:

; 78   : 	}

  000d3	eb 2d		 jmp	 SHORT $LN12@CreatePers
__catch$?CreatePersonalRoom@CPersonalRoomServiceManager@@UAE_NE@Z$0:

; 79   : 	catch(...)
; 80   : 	{
; 81   : 		ASSERT(FALSE);

  000d5	33 c0		 xor	 eax, eax
  000d7	75 19		 jne	 SHORT $LN9@CreatePers
  000d9	8b 0d 00 00 00
	00		 mov	 ecx, DWORD PTR ?__LINE__Var@?0??CreatePersonalRoom@CPersonalRoomServiceManager@@UAE_NE@Z@4JA
  000df	83 c1 0c	 add	 ecx, 12			; 0000000cH
  000e2	51		 push	 ecx
  000e3	68 00 00 00 00	 push	 OFFSET ??_C@_0FH@KBPFBDOA@g?3?2?M?x?$LK?$PM?2happygamewh?2?$LH?$PO?N?q?$LG?K?2?O?$LF?M?$LD@
  000e8	e8 00 00 00 00	 call	 ?AfxAssertFailedLine@@YGHPBDH@Z ; AfxAssertFailedLine
  000ed	85 c0		 test	 eax, eax
  000ef	74 01		 je	 SHORT $LN9@CreatePers
  000f1	cc		 int	 3
$LN9@CreatePers:

; 82   : 		return false;

  000f2	c6 45 9f 00	 mov	 BYTE PTR $T2[ebp], 0
  000f6	b8 00 00 00 00	 mov	 eax, $LN16@CreatePers
  000fb	c3		 ret	 0

; 83   : 	}

  000fc	b8 00 00 00 00	 mov	 eax, $LN12@CreatePers
  00101	c3		 ret	 0
$LN12@CreatePers:
  00102	c7 45 fc ff ff
	ff ff		 mov	 DWORD PTR __$EHRec$[ebp+12], -1
  00109	eb 0c		 jmp	 SHORT $LN15@CreatePers
$LN16@CreatePers:
  0010b	c7 45 fc ff ff
	ff ff		 mov	 DWORD PTR __$EHRec$[ebp+12], -1

; 82   : 		return false;

  00112	8a 45 9f	 mov	 al, BYTE PTR $T2[ebp]
  00115	eb 1c		 jmp	 SHORT $LN5@CreatePers
$LN15@CreatePers:

; 84   : 
; 85   : 	return m_pIPersonalRoomItem!=NULL;

  00117	8b 45 ec	 mov	 eax, DWORD PTR _this$[ebp]
  0011a	83 78 08 00	 cmp	 DWORD PTR [eax+8], 0
  0011e	74 09		 je	 SHORT $LN10@CreatePers
  00120	c7 45 98 01 00
	00 00		 mov	 DWORD PTR tv135[ebp], 1
  00127	eb 07		 jmp	 SHORT $LN11@CreatePers
$LN10@CreatePers:
  00129	c7 45 98 00 00
	00 00		 mov	 DWORD PTR tv135[ebp], 0
$LN11@CreatePers:
  00130	8a 45 98	 mov	 al, BYTE PTR tv135[ebp]
$LN5@CreatePers:

; 86   : }

  00133	8b 4d f4	 mov	 ecx, DWORD PTR __$EHRec$[ebp+4]
  00136	64 89 0d 00 00
	00 00		 mov	 DWORD PTR fs:0, ecx
  0013d	59		 pop	 ecx
  0013e	5f		 pop	 edi
  0013f	5e		 pop	 esi
  00140	5b		 pop	 ebx
  00141	8b e5		 mov	 esp, ebp
  00143	5d		 pop	 ebp
  00144	c2 04 00	 ret	 4
_TEXT	ENDS
;	COMDAT text$x
text$x	SEGMENT
__unwindfunclet$?CreatePersonalRoom@CPersonalRoomServiceManager@@UAE_NE@Z$2:
  00000	68 c8 00 00 00	 push	 200			; 000000c8H
  00005	8b 45 a4	 mov	 eax, DWORD PTR $T4[ebp]
  00008	50		 push	 eax
  00009	e8 00 00 00 00	 call	 ??3@YAXPAXI@Z		; operator delete
  0000e	83 c4 08	 add	 esp, 8
  00011	c3		 ret	 0
__ehhandler$?CreatePersonalRoom@CPersonalRoomServiceManager@@UAE_NE@Z:
  00012	8b 54 24 08	 mov	 edx, DWORD PTR [esp+8]
  00016	8d 42 0c	 lea	 eax, DWORD PTR [edx+12]
  00019	8b 4a 8c	 mov	 ecx, DWORD PTR [edx-116]
  0001c	33 c8		 xor	 ecx, eax
  0001e	e8 00 00 00 00	 call	 @__security_check_cookie@4
  00023	b8 00 00 00 00	 mov	 eax, OFFSET __ehfuncinfo$?CreatePersonalRoom@CPersonalRoomServiceManager@@UAE_NE@Z
  00028	e9 00 00 00 00	 jmp	 ___CxxFrameHandler3
text$x	ENDS
?CreatePersonalRoom@CPersonalRoomServiceManager@@UAE_NE@Z ENDP ; CPersonalRoomServiceManager::CreatePersonalRoom
; Function compile flags: /Odtp /ZI
; File g:\网狐\happygamewh\服务端\系统模块\服务器组件\约战服务\personalroomservicemanager.cpp
;	COMDAT ?StartService@CPersonalRoomServiceManager@@UAE_NXZ
_TEXT	SEGMENT
_this$ = -4						; size = 4
?StartService@CPersonalRoomServiceManager@@UAE_NXZ PROC	; CPersonalRoomServiceManager::StartService, COMDAT
; _this$ = ecx

; 45   : {

  00000	55		 push	 ebp
  00001	8b ec		 mov	 ebp, esp
  00003	83 ec 44	 sub	 esp, 68			; 00000044H
  00006	53		 push	 ebx
  00007	56		 push	 esi
  00008	57		 push	 edi
  00009	89 4d fc	 mov	 DWORD PTR _this$[ebp], ecx

; 46   : 	//状态判断
; 47   : 	ASSERT(m_bIsService==false);

  0000c	8b 45 fc	 mov	 eax, DWORD PTR _this$[ebp]
  0000f	0f b6 48 04	 movzx	 ecx, BYTE PTR [eax+4]
  00013	85 c9		 test	 ecx, ecx
  00015	74 19		 je	 SHORT $LN5@StartServi
  00017	8b 15 00 00 00
	00		 mov	 edx, DWORD PTR ?__LINE__Var@?0??StartService@CPersonalRoomServiceManager@@UAE_NXZ@4JA
  0001d	83 c2 02	 add	 edx, 2
  00020	52		 push	 edx
  00021	68 00 00 00 00	 push	 OFFSET ??_C@_0FH@KBPFBDOA@g?3?2?M?x?$LK?$PM?2happygamewh?2?$LH?$PO?N?q?$LG?K?2?O?$LF?M?$LD@
  00026	e8 00 00 00 00	 call	 ?AfxAssertFailedLine@@YGHPBDH@Z ; AfxAssertFailedLine
  0002b	85 c0		 test	 eax, eax
  0002d	74 01		 je	 SHORT $LN5@StartServi
  0002f	cc		 int	 3
$LN5@StartServi:

; 48   : 	if(m_bIsService==true) return false;

  00030	8b 45 fc	 mov	 eax, DWORD PTR _this$[ebp]
  00033	0f b6 48 04	 movzx	 ecx, BYTE PTR [eax+4]
  00037	83 f9 01	 cmp	 ecx, 1
  0003a	75 04		 jne	 SHORT $LN2@StartServi
  0003c	32 c0		 xor	 al, al
  0003e	eb 25		 jmp	 SHORT $LN1@StartServi
$LN2@StartServi:

; 49   : 
; 50   : 	//设置状态
; 51   : 	m_bIsService=true;

  00040	8b 45 fc	 mov	 eax, DWORD PTR _this$[ebp]
  00043	c6 40 04 01	 mov	 BYTE PTR [eax+4], 1

; 52   : 
; 53   : 	//启动通知
; 54   : 	if(m_pIPersonalRoomItem!=NULL) m_pIPersonalRoomItem->OnStartService();

  00047	8b 45 fc	 mov	 eax, DWORD PTR _this$[ebp]
  0004a	83 78 08 00	 cmp	 DWORD PTR [eax+8], 0
  0004e	74 13		 je	 SHORT $LN3@StartServi
  00050	8b 45 fc	 mov	 eax, DWORD PTR _this$[ebp]
  00053	8b 48 08	 mov	 ecx, DWORD PTR [eax+8]
  00056	8b 55 fc	 mov	 edx, DWORD PTR _this$[ebp]
  00059	8b 01		 mov	 eax, DWORD PTR [ecx]
  0005b	8b 4a 08	 mov	 ecx, DWORD PTR [edx+8]
  0005e	8b 50 08	 mov	 edx, DWORD PTR [eax+8]
  00061	ff d2		 call	 edx
$LN3@StartServi:

; 55   : 
; 56   : 	return true;

  00063	b0 01		 mov	 al, 1
$LN1@StartServi:

; 57   : }

  00065	5f		 pop	 edi
  00066	5e		 pop	 esi
  00067	5b		 pop	 ebx
  00068	8b e5		 mov	 esp, ebp
  0006a	5d		 pop	 ebp
  0006b	c3		 ret	 0
?StartService@CPersonalRoomServiceManager@@UAE_NXZ ENDP	; CPersonalRoomServiceManager::StartService
_TEXT	ENDS
; Function compile flags: /Odtp /ZI
; File g:\网狐\happygamewh\服务端\系统模块\服务器组件\约战服务\personalroomservicemanager.cpp
;	COMDAT ?StopService@CPersonalRoomServiceManager@@UAE_NXZ
_TEXT	SEGMENT
_this$ = -4						; size = 4
?StopService@CPersonalRoomServiceManager@@UAE_NXZ PROC	; CPersonalRoomServiceManager::StopService, COMDAT
; _this$ = ecx

; 30   : {

  00000	55		 push	 ebp
  00001	8b ec		 mov	 ebp, esp
  00003	83 ec 44	 sub	 esp, 68			; 00000044H
  00006	53		 push	 ebx
  00007	56		 push	 esi
  00008	57		 push	 edi
  00009	89 4d fc	 mov	 DWORD PTR _this$[ebp], ecx

; 31   : 	//状态判断
; 32   : 	ASSERT(m_bIsService==true);

  0000c	8b 45 fc	 mov	 eax, DWORD PTR _this$[ebp]
  0000f	0f b6 48 04	 movzx	 ecx, BYTE PTR [eax+4]
  00013	83 f9 01	 cmp	 ecx, 1
  00016	74 19		 je	 SHORT $LN5@StopServic
  00018	8b 15 00 00 00
	00		 mov	 edx, DWORD PTR ?__LINE__Var@?0??StopService@CPersonalRoomServiceManager@@UAE_NXZ@4JA
  0001e	83 c2 02	 add	 edx, 2
  00021	52		 push	 edx
  00022	68 00 00 00 00	 push	 OFFSET ??_C@_0FH@KBPFBDOA@g?3?2?M?x?$LK?$PM?2happygamewh?2?$LH?$PO?N?q?$LG?K?2?O?$LF?M?$LD@
  00027	e8 00 00 00 00	 call	 ?AfxAssertFailedLine@@YGHPBDH@Z ; AfxAssertFailedLine
  0002c	85 c0		 test	 eax, eax
  0002e	74 01		 je	 SHORT $LN5@StopServic
  00030	cc		 int	 3
$LN5@StopServic:

; 33   : 
; 34   : 	//设置状态
; 35   : 	m_bIsService=false;

  00031	8b 45 fc	 mov	 eax, DWORD PTR _this$[ebp]
  00034	c6 40 04 00	 mov	 BYTE PTR [eax+4], 0

; 36   : 
; 37   : 	//释放指针
; 38   : 	if(m_pIPersonalRoomItem!=NULL) SafeRelease(m_pIPersonalRoomItem);

  00038	8b 45 fc	 mov	 eax, DWORD PTR _this$[ebp]
  0003b	83 78 08 00	 cmp	 DWORD PTR [eax+8], 0
  0003f	74 25		 je	 SHORT $LN2@StopServic
  00041	8b 45 fc	 mov	 eax, DWORD PTR _this$[ebp]
  00044	83 78 08 00	 cmp	 DWORD PTR [eax+8], 0
  00048	74 1c		 je	 SHORT $LN2@StopServic
  0004a	8b 45 fc	 mov	 eax, DWORD PTR _this$[ebp]
  0004d	8b 48 08	 mov	 ecx, DWORD PTR [eax+8]
  00050	8b 55 fc	 mov	 edx, DWORD PTR _this$[ebp]
  00053	8b 01		 mov	 eax, DWORD PTR [ecx]
  00055	8b 4a 08	 mov	 ecx, DWORD PTR [edx+8]
  00058	8b 10		 mov	 edx, DWORD PTR [eax]
  0005a	ff d2		 call	 edx
  0005c	8b 45 fc	 mov	 eax, DWORD PTR _this$[ebp]
  0005f	c7 40 08 00 00
	00 00		 mov	 DWORD PTR [eax+8], 0
$LN2@StopServic:

; 39   : 
; 40   : 	return true;

  00066	b0 01		 mov	 al, 1

; 41   : }

  00068	5f		 pop	 edi
  00069	5e		 pop	 esi
  0006a	5b		 pop	 ebx
  0006b	8b e5		 mov	 esp, ebp
  0006d	5d		 pop	 ebp
  0006e	c3		 ret	 0
?StopService@CPersonalRoomServiceManager@@UAE_NXZ ENDP	; CPersonalRoomServiceManager::StopService
_TEXT	ENDS
; Function compile flags: /Odtp /ZI
; File g:\网狐\happygamewh\服务端\系统模块\服务器组件\约战服务\personalroomservicemanager.cpp
;	COMDAT ?QueryInterface@CPersonalRoomServiceManager@@UAEPAXABU_GUID@@K@Z
_TEXT	SEGMENT
_this$ = -4						; size = 4
_Guid$ = 8						; size = 4
_dwQueryVer$ = 12					; size = 4
?QueryInterface@CPersonalRoomServiceManager@@UAEPAXABU_GUID@@K@Z PROC ; CPersonalRoomServiceManager::QueryInterface, COMDAT
; _this$ = ecx

; 60   : {

  00000	55		 push	 ebp
  00001	8b ec		 mov	 ebp, esp
  00003	83 ec 44	 sub	 esp, 68			; 00000044H
  00006	53		 push	 ebx
  00007	56		 push	 esi
  00008	57		 push	 edi
  00009	89 4d fc	 mov	 DWORD PTR _this$[ebp], ecx

; 61   : 								 
; 62   : 	QUERYINTERFACE(IPersonalRoomServiceManager,Guid,dwQueryVer);	

  0000c	68 00 00 00 00	 push	 OFFSET ?IID_IPersonalRoomServiceManager@@3U_GUID@@B
  00011	8b 45 08	 mov	 eax, DWORD PTR _Guid$[ebp]
  00014	50		 push	 eax
  00015	e8 00 00 00 00	 call	 _==
  0001a	83 c4 08	 add	 esp, 8
  0001d	0f b6 c8	 movzx	 ecx, al
  00020	85 c9		 test	 ecx, ecx
  00022	74 1d		 je	 SHORT $LN2@QueryInter
  00024	68 00 01 01 06	 push	 100729088		; 06010100H
  00029	8b 45 0c	 mov	 eax, DWORD PTR _dwQueryVer$[ebp]
  0002c	50		 push	 eax
  0002d	e8 00 00 00 00	 call	 ?InterfaceVersionCompare@@YA_NKK@Z ; InterfaceVersionCompare
  00032	83 c4 08	 add	 esp, 8
  00035	0f b6 c8	 movzx	 ecx, al
  00038	85 c9		 test	 ecx, ecx
  0003a	74 05		 je	 SHORT $LN2@QueryInter
  0003c	8b 45 fc	 mov	 eax, DWORD PTR _this$[ebp]
  0003f	eb 37		 jmp	 SHORT $LN1@QueryInter
$LN2@QueryInter:

; 63   : 	QUERYINTERFACE_IUNKNOWNEX(IPersonalRoomServiceManager,Guid,dwQueryVer);

  00041	68 00 00 00 00	 push	 OFFSET ?IID_IUnknownEx@@3U_GUID@@B
  00046	8b 45 08	 mov	 eax, DWORD PTR _Guid$[ebp]
  00049	50		 push	 eax
  0004a	e8 00 00 00 00	 call	 _==
  0004f	83 c4 08	 add	 esp, 8
  00052	0f b6 c8	 movzx	 ecx, al
  00055	85 c9		 test	 ecx, ecx
  00057	74 1d		 je	 SHORT $LN3@QueryInter
  00059	68 00 01 01 06	 push	 100729088		; 06010100H
  0005e	8b 45 0c	 mov	 eax, DWORD PTR _dwQueryVer$[ebp]
  00061	50		 push	 eax
  00062	e8 00 00 00 00	 call	 ?InterfaceVersionCompare@@YA_NKK@Z ; InterfaceVersionCompare
  00067	83 c4 08	 add	 esp, 8
  0006a	0f b6 c8	 movzx	 ecx, al
  0006d	85 c9		 test	 ecx, ecx
  0006f	74 05		 je	 SHORT $LN3@QueryInter
  00071	8b 45 fc	 mov	 eax, DWORD PTR _this$[ebp]
  00074	eb 02		 jmp	 SHORT $LN1@QueryInter
$LN3@QueryInter:

; 64   : 	return NULL;

  00076	33 c0		 xor	 eax, eax
$LN1@QueryInter:

; 65   : }

  00078	5f		 pop	 edi
  00079	5e		 pop	 esi
  0007a	5b		 pop	 ebx
  0007b	8b e5		 mov	 esp, ebp
  0007d	5d		 pop	 ebp
  0007e	c2 08 00	 ret	 8
?QueryInterface@CPersonalRoomServiceManager@@UAEPAXABU_GUID@@K@Z ENDP ; CPersonalRoomServiceManager::QueryInterface
_TEXT	ENDS
; Function compile flags: /Odtp /ZI
; File g:\网狐\happygamewh\服务端\系统模块\服务器组件\约战服务\personalroomservicemanager.h
;	COMDAT ?Release@CPersonalRoomServiceManager@@UAEXXZ
_TEXT	SEGMENT
tv70 = -80						; size = 4
$T1 = -76						; size = 4
$T2 = -72						; size = 4
_this$ = -4						; size = 4
?Release@CPersonalRoomServiceManager@@UAEXXZ PROC	; CPersonalRoomServiceManager::Release, COMDAT
; _this$ = ecx

; 36   : 	virtual VOID  Release() { delete this; }

  00000	55		 push	 ebp
  00001	8b ec		 mov	 ebp, esp
  00003	83 ec 50	 sub	 esp, 80			; 00000050H
  00006	53		 push	 ebx
  00007	56		 push	 esi
  00008	57		 push	 edi
  00009	89 4d fc	 mov	 DWORD PTR _this$[ebp], ecx
  0000c	8b 45 fc	 mov	 eax, DWORD PTR _this$[ebp]
  0000f	89 45 b4	 mov	 DWORD PTR $T1[ebp], eax
  00012	8b 4d b4	 mov	 ecx, DWORD PTR $T1[ebp]
  00015	89 4d b8	 mov	 DWORD PTR $T2[ebp], ecx
  00018	83 7d b8 00	 cmp	 DWORD PTR $T2[ebp], 0
  0001c	74 14		 je	 SHORT $LN3@Release
  0001e	6a 01		 push	 1
  00020	8b 55 b8	 mov	 edx, DWORD PTR $T2[ebp]
  00023	8b 02		 mov	 eax, DWORD PTR [edx]
  00025	8b 4d b8	 mov	 ecx, DWORD PTR $T2[ebp]
  00028	8b 50 58	 mov	 edx, DWORD PTR [eax+88]
  0002b	ff d2		 call	 edx
  0002d	89 45 b0	 mov	 DWORD PTR tv70[ebp], eax
  00030	eb 07		 jmp	 SHORT $LN1@Release
$LN3@Release:
  00032	c7 45 b0 00 00
	00 00		 mov	 DWORD PTR tv70[ebp], 0
$LN1@Release:
  00039	5f		 pop	 edi
  0003a	5e		 pop	 esi
  0003b	5b		 pop	 ebx
  0003c	8b e5		 mov	 esp, ebp
  0003e	5d		 pop	 ebp
  0003f	c3		 ret	 0
?Release@CPersonalRoomServiceManager@@UAEXXZ ENDP	; CPersonalRoomServiceManager::Release
_TEXT	ENDS
; Function compile flags: /Odtp /ZI
; File g:\网狐\happygamewh\服务端\系统模块\服务器组件\约战服务\personalroomservicemanager.cpp
;	COMDAT ??1CPersonalRoomServiceManager@@UAE@XZ
_TEXT	SEGMENT
$T2 = -88						; size = 4
_this$ = -20						; size = 4
__$EHRec$ = -16						; size = 16
??1CPersonalRoomServiceManager@@UAE@XZ PROC		; CPersonalRoomServiceManager::~CPersonalRoomServiceManager, COMDAT
; _this$ = ecx

; 23   : {	

  00000	55		 push	 ebp
  00001	8b ec		 mov	 ebp, esp
  00003	6a ff		 push	 -1
  00005	68 00 00 00 00	 push	 __ehhandler$??1CPersonalRoomServiceManager@@UAE@XZ
  0000a	64 a1 00 00 00
	00		 mov	 eax, DWORD PTR fs:0
  00010	50		 push	 eax
  00011	51		 push	 ecx
  00012	83 ec 48	 sub	 esp, 72			; 00000048H
  00015	53		 push	 ebx
  00016	56		 push	 esi
  00017	57		 push	 edi
  00018	a1 00 00 00 00	 mov	 eax, DWORD PTR ___security_cookie
  0001d	33 c5		 xor	 eax, ebp
  0001f	50		 push	 eax
  00020	8d 45 f4	 lea	 eax, DWORD PTR __$EHRec$[ebp+4]
  00023	64 a3 00 00 00
	00		 mov	 DWORD PTR fs:0, eax
  00029	89 65 f0	 mov	 DWORD PTR __$EHRec$[ebp], esp
  0002c	89 4d ec	 mov	 DWORD PTR _this$[ebp], ecx
  0002f	8b 45 ec	 mov	 eax, DWORD PTR _this$[ebp]
  00032	c7 00 00 00 00
	00		 mov	 DWORD PTR [eax], OFFSET ??_7CPersonalRoomServiceManager@@6B@

; 24   : 	//释放指针
; 25   : 	if(m_pIPersonalRoomItem!=NULL) SafeDelete(m_pIPersonalRoomItem);

  00038	8b 45 ec	 mov	 eax, DWORD PTR _this$[ebp]
  0003b	83 78 08 00	 cmp	 DWORD PTR [eax+8], 0
  0003f	74 5d		 je	 SHORT $LN4@CPersonalR
  00041	c7 45 fc 00 00
	00 00		 mov	 DWORD PTR __$EHRec$[ebp+12], 0
  00048	8b 45 ec	 mov	 eax, DWORD PTR _this$[ebp]
  0004b	8b 48 08	 mov	 ecx, DWORD PTR [eax+8]
  0004e	89 4d a8	 mov	 DWORD PTR $T2[ebp], ecx
  00051	6a 04		 push	 4
  00053	8b 55 a8	 mov	 edx, DWORD PTR $T2[ebp]
  00056	52		 push	 edx
  00057	e8 00 00 00 00	 call	 ??3@YAXPAXI@Z		; operator delete
  0005c	83 c4 08	 add	 esp, 8
  0005f	eb 23		 jmp	 SHORT $LN6@CPersonalR
__catch$??1CPersonalRoomServiceManager@@UAE@XZ$0:
  00061	33 c0		 xor	 eax, eax
  00063	75 19		 jne	 SHORT $LN5@CPersonalR
  00065	8b 0d 00 00 00
	00		 mov	 ecx, DWORD PTR ?__LINE__Var@?0???1CPersonalRoomServiceManager@@UAE@XZ@4JA
  0006b	83 c1 02	 add	 ecx, 2
  0006e	51		 push	 ecx
  0006f	68 00 00 00 00	 push	 OFFSET ??_C@_0FH@KBPFBDOA@g?3?2?M?x?$LK?$PM?2happygamewh?2?$LH?$PO?N?q?$LG?K?2?O?$LF?M?$LD@
  00074	e8 00 00 00 00	 call	 ?AfxAssertFailedLine@@YGHPBDH@Z ; AfxAssertFailedLine
  00079	85 c0		 test	 eax, eax
  0007b	74 01		 je	 SHORT $LN5@CPersonalR
  0007d	cc		 int	 3
$LN5@CPersonalR:
  0007e	b8 00 00 00 00	 mov	 eax, $LN9@CPersonalR
  00083	c3		 ret	 0
$LN6@CPersonalR:
  00084	c7 45 fc ff ff
	ff ff		 mov	 DWORD PTR __$EHRec$[ebp+12], -1
  0008b	eb 07		 jmp	 SHORT __tryend$??1CPersonalRoomServiceManager@@UAE@XZ$1
$LN9@CPersonalR:
  0008d	c7 45 fc ff ff
	ff ff		 mov	 DWORD PTR __$EHRec$[ebp+12], -1
__tryend$??1CPersonalRoomServiceManager@@UAE@XZ$1:
  00094	8b 45 ec	 mov	 eax, DWORD PTR _this$[ebp]
  00097	c7 40 08 00 00
	00 00		 mov	 DWORD PTR [eax+8], 0
$LN4@CPersonalR:

; 26   : }

  0009e	8b 4d f4	 mov	 ecx, DWORD PTR __$EHRec$[ebp+4]
  000a1	64 89 0d 00 00
	00 00		 mov	 DWORD PTR fs:0, ecx
  000a8	59		 pop	 ecx
  000a9	5f		 pop	 edi
  000aa	5e		 pop	 esi
  000ab	5b		 pop	 ebx
  000ac	8b e5		 mov	 esp, ebp
  000ae	5d		 pop	 ebp
  000af	c3		 ret	 0
_TEXT	ENDS
;	COMDAT text$x
text$x	SEGMENT
__ehhandler$??1CPersonalRoomServiceManager@@UAE@XZ:
  00000	8b 54 24 08	 mov	 edx, DWORD PTR [esp+8]
  00004	8d 42 0c	 lea	 eax, DWORD PTR [edx+12]
  00007	8b 4a a4	 mov	 ecx, DWORD PTR [edx-92]
  0000a	33 c8		 xor	 ecx, eax
  0000c	e8 00 00 00 00	 call	 @__security_check_cookie@4
  00011	b8 00 00 00 00	 mov	 eax, OFFSET __ehfuncinfo$??1CPersonalRoomServiceManager@@UAE@XZ
  00016	e9 00 00 00 00	 jmp	 ___CxxFrameHandler3
text$x	ENDS
??1CPersonalRoomServiceManager@@UAE@XZ ENDP		; CPersonalRoomServiceManager::~CPersonalRoomServiceManager
; Function compile flags: /Odtp /ZI
; File g:\网狐\happygamewh\服务端\系统模块\服务器组件\约战服务\personalroomservicemanager.cpp
;	COMDAT ??0CPersonalRoomServiceManager@@QAE@XZ
_TEXT	SEGMENT
_this$ = -4						; size = 4
??0CPersonalRoomServiceManager@@QAE@XZ PROC		; CPersonalRoomServiceManager::CPersonalRoomServiceManager, COMDAT
; _this$ = ecx

; 11   : {

  00000	55		 push	 ebp
  00001	8b ec		 mov	 ebp, esp
  00003	83 ec 44	 sub	 esp, 68			; 00000044H
  00006	53		 push	 ebx
  00007	56		 push	 esi
  00008	57		 push	 edi
  00009	89 4d fc	 mov	 DWORD PTR _this$[ebp], ecx
  0000c	8b 4d fc	 mov	 ecx, DWORD PTR _this$[ebp]
  0000f	e8 00 00 00 00	 call	 ??0IPersonalRoomServiceManager@@QAE@XZ
  00014	8b 45 fc	 mov	 eax, DWORD PTR _this$[ebp]
  00017	c7 00 00 00 00
	00		 mov	 DWORD PTR [eax], OFFSET ??_7CPersonalRoomServiceManager@@6B@

; 12   : 	//状态变量
; 13   : 	m_bIsService=false;

  0001d	8b 45 fc	 mov	 eax, DWORD PTR _this$[ebp]
  00020	c6 40 04 00	 mov	 BYTE PTR [eax+4], 0

; 14   : 
; 15   : 	//设置变量
; 16   : 	m_pIPersonalRoomItem=NULL;

  00024	8b 45 fc	 mov	 eax, DWORD PTR _this$[ebp]
  00027	c7 40 08 00 00
	00 00		 mov	 DWORD PTR [eax+8], 0

; 17   : 
; 18   : 	return;
; 19   : }

  0002e	8b 45 fc	 mov	 eax, DWORD PTR _this$[ebp]
  00031	5f		 pop	 edi
  00032	5e		 pop	 esi
  00033	5b		 pop	 ebx
  00034	8b e5		 mov	 esp, ebp
  00036	5d		 pop	 ebp
  00037	c3		 ret	 0
??0CPersonalRoomServiceManager@@QAE@XZ ENDP		; CPersonalRoomServiceManager::CPersonalRoomServiceManager
_TEXT	ENDS
; Function compile flags: /Odtp /ZI
;	COMDAT ??4IPersonalRoomServiceManager@@QAEAAU0@ABU0@@Z
_TEXT	SEGMENT
_this$ = -4						; size = 4
___that$ = 8						; size = 4
??4IPersonalRoomServiceManager@@QAEAAU0@ABU0@@Z PROC	; IPersonalRoomServiceManager::operator=, COMDAT
; _this$ = ecx
  00000	55		 push	 ebp
  00001	8b ec		 mov	 ebp, esp
  00003	83 ec 44	 sub	 esp, 68			; 00000044H
  00006	53		 push	 ebx
  00007	56		 push	 esi
  00008	57		 push	 edi
  00009	89 4d fc	 mov	 DWORD PTR _this$[ebp], ecx
  0000c	8b 45 08	 mov	 eax, DWORD PTR ___that$[ebp]
  0000f	50		 push	 eax
  00010	8b 4d fc	 mov	 ecx, DWORD PTR _this$[ebp]
  00013	e8 00 00 00 00	 call	 ??4IUnknownEx@@QAEAAU0@ABU0@@Z
  00018	8b 45 fc	 mov	 eax, DWORD PTR _this$[ebp]
  0001b	5f		 pop	 edi
  0001c	5e		 pop	 esi
  0001d	5b		 pop	 ebx
  0001e	8b e5		 mov	 esp, ebp
  00020	5d		 pop	 ebp
  00021	c2 04 00	 ret	 4
??4IPersonalRoomServiceManager@@QAEAAU0@ABU0@@Z ENDP	; IPersonalRoomServiceManager::operator=
_TEXT	ENDS
; Function compile flags: /Odtp /ZI
;	COMDAT ??0IPersonalRoomServiceManager@@QAE@ABU0@@Z
_TEXT	SEGMENT
_this$ = -4						; size = 4
___that$ = 8						; size = 4
??0IPersonalRoomServiceManager@@QAE@ABU0@@Z PROC	; IPersonalRoomServiceManager::IPersonalRoomServiceManager, COMDAT
; _this$ = ecx
  00000	55		 push	 ebp
  00001	8b ec		 mov	 ebp, esp
  00003	83 ec 44	 sub	 esp, 68			; 00000044H
  00006	53		 push	 ebx
  00007	56		 push	 esi
  00008	57		 push	 edi
  00009	89 4d fc	 mov	 DWORD PTR _this$[ebp], ecx
  0000c	8b 45 08	 mov	 eax, DWORD PTR ___that$[ebp]
  0000f	50		 push	 eax
  00010	8b 4d fc	 mov	 ecx, DWORD PTR _this$[ebp]
  00013	e8 00 00 00 00	 call	 ??0IUnknownEx@@QAE@ABU0@@Z
  00018	8b 45 fc	 mov	 eax, DWORD PTR _this$[ebp]
  0001b	c7 00 00 00 00
	00		 mov	 DWORD PTR [eax], OFFSET ??_7IPersonalRoomServiceManager@@6B@
  00021	8b 45 fc	 mov	 eax, DWORD PTR _this$[ebp]
  00024	5f		 pop	 edi
  00025	5e		 pop	 esi
  00026	5b		 pop	 ebx
  00027	8b e5		 mov	 esp, ebp
  00029	5d		 pop	 ebp
  0002a	c2 04 00	 ret	 4
??0IPersonalRoomServiceManager@@QAE@ABU0@@Z ENDP	; IPersonalRoomServiceManager::IPersonalRoomServiceManager
_TEXT	ENDS
; Function compile flags: /Odtp /ZI
;	COMDAT ??0IPersonalRoomServiceManager@@QAE@XZ
_TEXT	SEGMENT
_this$ = -4						; size = 4
??0IPersonalRoomServiceManager@@QAE@XZ PROC		; IPersonalRoomServiceManager::IPersonalRoomServiceManager, COMDAT
; _this$ = ecx
  00000	55		 push	 ebp
  00001	8b ec		 mov	 ebp, esp
  00003	83 ec 44	 sub	 esp, 68			; 00000044H
  00006	53		 push	 ebx
  00007	56		 push	 esi
  00008	57		 push	 edi
  00009	89 4d fc	 mov	 DWORD PTR _this$[ebp], ecx
  0000c	8b 4d fc	 mov	 ecx, DWORD PTR _this$[ebp]
  0000f	e8 00 00 00 00	 call	 ??0IUnknownEx@@QAE@XZ
  00014	8b 45 fc	 mov	 eax, DWORD PTR _this$[ebp]
  00017	c7 00 00 00 00
	00		 mov	 DWORD PTR [eax], OFFSET ??_7IPersonalRoomServiceManager@@6B@
  0001d	8b 45 fc	 mov	 eax, DWORD PTR _this$[ebp]
  00020	5f		 pop	 edi
  00021	5e		 pop	 esi
  00022	5b		 pop	 ebx
  00023	8b e5		 mov	 esp, ebp
  00025	5d		 pop	 ebp
  00026	c3		 ret	 0
??0IPersonalRoomServiceManager@@QAE@XZ ENDP		; IPersonalRoomServiceManager::IPersonalRoomServiceManager
_TEXT	ENDS
; Function compile flags: /Odtp /ZI
; File g:\网狐\happygamewh\服务端\系统模块\全局定义\module.h
;	COMDAT ?InterfaceVersionCompare@@YA_NKK@Z
_TEXT	SEGMENT
_dwQueryVer$ = 8					; size = 4
_dwInterfaceVer$ = 12					; size = 4
?InterfaceVersionCompare@@YA_NKK@Z PROC			; InterfaceVersionCompare, COMDAT

; 68   : {

  00000	55		 push	 ebp
  00001	8b ec		 mov	 ebp, esp
  00003	83 ec 40	 sub	 esp, 64			; 00000040H
  00006	53		 push	 ebx
  00007	56		 push	 esi
  00008	57		 push	 edi

; 69   : 	if (GetSubVer(dwQueryVer)>GetSubVer(dwInterfaceVer)) return false;

  00009	8b 45 08	 mov	 eax, DWORD PTR _dwQueryVer$[ebp]
  0000c	50		 push	 eax
  0000d	e8 00 00 00 00	 call	 ?GetSubVer@@YAEK@Z	; GetSubVer
  00012	83 c4 04	 add	 esp, 4
  00015	0f b6 f0	 movzx	 esi, al
  00018	8b 4d 0c	 mov	 ecx, DWORD PTR _dwInterfaceVer$[ebp]
  0001b	51		 push	 ecx
  0001c	e8 00 00 00 00	 call	 ?GetSubVer@@YAEK@Z	; GetSubVer
  00021	83 c4 04	 add	 esp, 4
  00024	0f b6 d0	 movzx	 edx, al
  00027	3b f2		 cmp	 esi, edx
  00029	7e 04		 jle	 SHORT $LN2@InterfaceV
  0002b	32 c0		 xor	 al, al
  0002d	eb 74		 jmp	 SHORT $LN1@InterfaceV
$LN2@InterfaceV:

; 70   : 	if (GetMainVer(dwQueryVer)!=GetMainVer(dwInterfaceVer)) return false;

  0002f	8b 45 08	 mov	 eax, DWORD PTR _dwQueryVer$[ebp]
  00032	50		 push	 eax
  00033	e8 00 00 00 00	 call	 ?GetMainVer@@YAEK@Z	; GetMainVer
  00038	83 c4 04	 add	 esp, 4
  0003b	0f b6 f0	 movzx	 esi, al
  0003e	8b 4d 0c	 mov	 ecx, DWORD PTR _dwInterfaceVer$[ebp]
  00041	51		 push	 ecx
  00042	e8 00 00 00 00	 call	 ?GetMainVer@@YAEK@Z	; GetMainVer
  00047	83 c4 04	 add	 esp, 4
  0004a	0f b6 d0	 movzx	 edx, al
  0004d	3b f2		 cmp	 esi, edx
  0004f	74 04		 je	 SHORT $LN3@InterfaceV
  00051	32 c0		 xor	 al, al
  00053	eb 4e		 jmp	 SHORT $LN1@InterfaceV
$LN3@InterfaceV:

; 71   : 	if (GetBuildVer(dwQueryVer)!=GetBuildVer(dwInterfaceVer)) return false;

  00055	8b 45 08	 mov	 eax, DWORD PTR _dwQueryVer$[ebp]
  00058	50		 push	 eax
  00059	e8 00 00 00 00	 call	 ?GetBuildVer@@YAEK@Z	; GetBuildVer
  0005e	83 c4 04	 add	 esp, 4
  00061	0f b6 f0	 movzx	 esi, al
  00064	8b 4d 0c	 mov	 ecx, DWORD PTR _dwInterfaceVer$[ebp]
  00067	51		 push	 ecx
  00068	e8 00 00 00 00	 call	 ?GetBuildVer@@YAEK@Z	; GetBuildVer
  0006d	83 c4 04	 add	 esp, 4
  00070	0f b6 d0	 movzx	 edx, al
  00073	3b f2		 cmp	 esi, edx
  00075	74 04		 je	 SHORT $LN4@InterfaceV
  00077	32 c0		 xor	 al, al
  00079	eb 28		 jmp	 SHORT $LN1@InterfaceV
$LN4@InterfaceV:

; 72   : 	if (GetProductVer(dwQueryVer)!=GetProductVer(dwInterfaceVer)) return false;

  0007b	8b 45 08	 mov	 eax, DWORD PTR _dwQueryVer$[ebp]
  0007e	50		 push	 eax
  0007f	e8 00 00 00 00	 call	 ?GetProductVer@@YAEK@Z	; GetProductVer
  00084	83 c4 04	 add	 esp, 4
  00087	0f b6 f0	 movzx	 esi, al
  0008a	8b 4d 0c	 mov	 ecx, DWORD PTR _dwInterfaceVer$[ebp]
  0008d	51		 push	 ecx
  0008e	e8 00 00 00 00	 call	 ?GetProductVer@@YAEK@Z	; GetProductVer
  00093	83 c4 04	 add	 esp, 4
  00096	0f b6 d0	 movzx	 edx, al
  00099	3b f2		 cmp	 esi, edx
  0009b	74 04		 je	 SHORT $LN5@InterfaceV
  0009d	32 c0		 xor	 al, al
  0009f	eb 02		 jmp	 SHORT $LN1@InterfaceV
$LN5@InterfaceV:

; 73   : 	return true;

  000a1	b0 01		 mov	 al, 1
$LN1@InterfaceV:

; 74   : };

  000a3	5f		 pop	 edi
  000a4	5e		 pop	 esi
  000a5	5b		 pop	 ebx
  000a6	8b e5		 mov	 esp, ebp
  000a8	5d		 pop	 ebp
  000a9	c3		 ret	 0
?InterfaceVersionCompare@@YA_NKK@Z ENDP			; InterfaceVersionCompare
_TEXT	ENDS
; Function compile flags: /Odtp /ZI
; File g:\网狐\happygamewh\服务端\系统模块\全局定义\module.h
;	COMDAT ?GetBuildVer@@YAEK@Z
_TEXT	SEGMENT
_dwVersion$ = 8						; size = 4
?GetBuildVer@@YAEK@Z PROC				; GetBuildVer, COMDAT

; 62   : {

  00000	55		 push	 ebp
  00001	8b ec		 mov	 ebp, esp
  00003	83 ec 40	 sub	 esp, 64			; 00000040H
  00006	53		 push	 ebx
  00007	56		 push	 esi
  00008	57		 push	 edi

; 63   : 	return ((BYTE *)&dwVersion)[0];

  00009	b8 01 00 00 00	 mov	 eax, 1
  0000e	6b c8 00	 imul	 ecx, eax, 0
  00011	8a 44 0d 08	 mov	 al, BYTE PTR _dwVersion$[ebp+ecx]

; 64   : }

  00015	5f		 pop	 edi
  00016	5e		 pop	 esi
  00017	5b		 pop	 ebx
  00018	8b e5		 mov	 esp, ebp
  0001a	5d		 pop	 ebp
  0001b	c3		 ret	 0
?GetBuildVer@@YAEK@Z ENDP				; GetBuildVer
_TEXT	ENDS
; Function compile flags: /Odtp /ZI
; File g:\网狐\happygamewh\服务端\系统模块\全局定义\module.h
;	COMDAT ?GetSubVer@@YAEK@Z
_TEXT	SEGMENT
_dwVersion$ = 8						; size = 4
?GetSubVer@@YAEK@Z PROC					; GetSubVer, COMDAT

; 56   : {

  00000	55		 push	 ebp
  00001	8b ec		 mov	 ebp, esp
  00003	83 ec 40	 sub	 esp, 64			; 00000040H
  00006	53		 push	 ebx
  00007	56		 push	 esi
  00008	57		 push	 edi

; 57   : 	return ((BYTE *)&dwVersion)[1];

  00009	b8 01 00 00 00	 mov	 eax, 1
  0000e	c1 e0 00	 shl	 eax, 0
  00011	8a 44 05 08	 mov	 al, BYTE PTR _dwVersion$[ebp+eax]

; 58   : }

  00015	5f		 pop	 edi
  00016	5e		 pop	 esi
  00017	5b		 pop	 ebx
  00018	8b e5		 mov	 esp, ebp
  0001a	5d		 pop	 ebp
  0001b	c3		 ret	 0
?GetSubVer@@YAEK@Z ENDP					; GetSubVer
_TEXT	ENDS
; Function compile flags: /Odtp /ZI
; File g:\网狐\happygamewh\服务端\系统模块\全局定义\module.h
;	COMDAT ?GetMainVer@@YAEK@Z
_TEXT	SEGMENT
_dwVersion$ = 8						; size = 4
?GetMainVer@@YAEK@Z PROC				; GetMainVer, COMDAT

; 50   : {

  00000	55		 push	 ebp
  00001	8b ec		 mov	 ebp, esp
  00003	83 ec 40	 sub	 esp, 64			; 00000040H
  00006	53		 push	 ebx
  00007	56		 push	 esi
  00008	57		 push	 edi

; 51   : 	return ((BYTE *)&dwVersion)[2];

  00009	b8 01 00 00 00	 mov	 eax, 1
  0000e	d1 e0		 shl	 eax, 1
  00010	8a 44 05 08	 mov	 al, BYTE PTR _dwVersion$[ebp+eax]

; 52   : }

  00014	5f		 pop	 edi
  00015	5e		 pop	 esi
  00016	5b		 pop	 ebx
  00017	8b e5		 mov	 esp, ebp
  00019	5d		 pop	 ebp
  0001a	c3		 ret	 0
?GetMainVer@@YAEK@Z ENDP				; GetMainVer
_TEXT	ENDS
; Function compile flags: /Odtp /ZI
; File g:\网狐\happygamewh\服务端\系统模块\全局定义\module.h
;	COMDAT ?GetProductVer@@YAEK@Z
_TEXT	SEGMENT
_dwVersion$ = 8						; size = 4
?GetProductVer@@YAEK@Z PROC				; GetProductVer, COMDAT

; 44   : {

  00000	55		 push	 ebp
  00001	8b ec		 mov	 ebp, esp
  00003	83 ec 40	 sub	 esp, 64			; 00000040H
  00006	53		 push	 ebx
  00007	56		 push	 esi
  00008	57		 push	 edi

; 45   : 	return ((BYTE *)&dwVersion)[3];

  00009	b8 01 00 00 00	 mov	 eax, 1
  0000e	6b c8 03	 imul	 ecx, eax, 3
  00011	8a 44 0d 08	 mov	 al, BYTE PTR _dwVersion$[ebp+ecx]

; 46   : }

  00015	5f		 pop	 edi
  00016	5e		 pop	 esi
  00017	5b		 pop	 ebx
  00018	8b e5		 mov	 esp, ebp
  0001a	5d		 pop	 ebp
  0001b	c3		 ret	 0
?GetProductVer@@YAEK@Z ENDP				; GetProductVer
_TEXT	ENDS
; Function compile flags: /Odtp /ZI
;	COMDAT ??4IUnknownEx@@QAEAAU0@ABU0@@Z
_TEXT	SEGMENT
_this$ = -4						; size = 4
___that$ = 8						; size = 4
??4IUnknownEx@@QAEAAU0@ABU0@@Z PROC			; IUnknownEx::operator=, COMDAT
; _this$ = ecx
  00000	55		 push	 ebp
  00001	8b ec		 mov	 ebp, esp
  00003	83 ec 44	 sub	 esp, 68			; 00000044H
  00006	53		 push	 ebx
  00007	56		 push	 esi
  00008	57		 push	 edi
  00009	89 4d fc	 mov	 DWORD PTR _this$[ebp], ecx
  0000c	8b 45 fc	 mov	 eax, DWORD PTR _this$[ebp]
  0000f	5f		 pop	 edi
  00010	5e		 pop	 esi
  00011	5b		 pop	 ebx
  00012	8b e5		 mov	 esp, ebp
  00014	5d		 pop	 ebp
  00015	c2 04 00	 ret	 4
??4IUnknownEx@@QAEAAU0@ABU0@@Z ENDP			; IUnknownEx::operator=
_TEXT	ENDS
; Function compile flags: /Odtp /ZI
;	COMDAT ??0IUnknownEx@@QAE@ABU0@@Z
_TEXT	SEGMENT
_this$ = -4						; size = 4
___that$ = 8						; size = 4
??0IUnknownEx@@QAE@ABU0@@Z PROC				; IUnknownEx::IUnknownEx, COMDAT
; _this$ = ecx
  00000	55		 push	 ebp
  00001	8b ec		 mov	 ebp, esp
  00003	83 ec 44	 sub	 esp, 68			; 00000044H
  00006	53		 push	 ebx
  00007	56		 push	 esi
  00008	57		 push	 edi
  00009	89 4d fc	 mov	 DWORD PTR _this$[ebp], ecx
  0000c	8b 45 fc	 mov	 eax, DWORD PTR _this$[ebp]
  0000f	c7 00 00 00 00
	00		 mov	 DWORD PTR [eax], OFFSET ??_7IUnknownEx@@6B@
  00015	8b 45 fc	 mov	 eax, DWORD PTR _this$[ebp]
  00018	5f		 pop	 edi
  00019	5e		 pop	 esi
  0001a	5b		 pop	 ebx
  0001b	8b e5		 mov	 esp, ebp
  0001d	5d		 pop	 ebp
  0001e	c2 04 00	 ret	 4
??0IUnknownEx@@QAE@ABU0@@Z ENDP				; IUnknownEx::IUnknownEx
_TEXT	ENDS
; Function compile flags: /Odtp /ZI
;	COMDAT ??0IUnknownEx@@QAE@XZ
_TEXT	SEGMENT
_this$ = -4						; size = 4
??0IUnknownEx@@QAE@XZ PROC				; IUnknownEx::IUnknownEx, COMDAT
; _this$ = ecx
  00000	55		 push	 ebp
  00001	8b ec		 mov	 ebp, esp
  00003	83 ec 44	 sub	 esp, 68			; 00000044H
  00006	53		 push	 ebx
  00007	56		 push	 esi
  00008	57		 push	 edi
  00009	89 4d fc	 mov	 DWORD PTR _this$[ebp], ecx
  0000c	8b 45 fc	 mov	 eax, DWORD PTR _this$[ebp]
  0000f	c7 00 00 00 00
	00		 mov	 DWORD PTR [eax], OFFSET ??_7IUnknownEx@@6B@
  00015	8b 45 fc	 mov	 eax, DWORD PTR _this$[ebp]
  00018	5f		 pop	 edi
  00019	5e		 pop	 esi
  0001a	5b		 pop	 ebx
  0001b	8b e5		 mov	 esp, ebp
  0001d	5d		 pop	 ebp
  0001e	c3		 ret	 0
??0IUnknownEx@@QAE@XZ ENDP				; IUnknownEx::IUnknownEx
_TEXT	ENDS
; Function compile flags: /Odtp /ZI
; File c:\program files (x86)\microsoft visual studio\2017\community\vc\tools\msvc\14.16.27023\atlmfc\include\afx.h
;	COMDAT ?AfxAssertFailedLine@@YGHPBDH@Z
_TEXT	SEGMENT
_bResult$ = -36						; size = 4
_bQuit$ = -32						; size = 4
_msg$ = -28						; size = 28
_lpszFileName$ = 8					; size = 4
_nLine$ = 12						; size = 4
?AfxAssertFailedLine@@YGHPBDH@Z PROC			; AfxAssertFailedLine, COMDAT

; 312  : {

  00000	55		 push	 ebp
  00001	8b ec		 mov	 ebp, esp
  00003	83 ec 64	 sub	 esp, 100		; 00000064H
  00006	53		 push	 ebx
  00007	56		 push	 esi
  00008	57		 push	 edi

; 313  : 	// we remove WM_QUIT because if it is in the queue then the message box
; 314  : 	// won't display
; 315  : 	MSG msg;
; 316  : 	BOOL bQuit = PeekMessage(&msg, NULL, WM_QUIT, WM_QUIT, PM_REMOVE);

  00009	6a 01		 push	 1
  0000b	6a 12		 push	 18			; 00000012H
  0000d	6a 12		 push	 18			; 00000012H
  0000f	6a 00		 push	 0
  00011	8d 45 e4	 lea	 eax, DWORD PTR _msg$[ebp]
  00014	50		 push	 eax
  00015	ff 15 00 00 00
	00		 call	 DWORD PTR __imp__PeekMessageA@20
  0001b	89 45 e0	 mov	 DWORD PTR _bQuit$[ebp], eax

; 317  : 	BOOL bResult = _CrtDbgReport(_CRT_ASSERT, lpszFileName, nLine, NULL, NULL);

  0001e	6a 00		 push	 0
  00020	6a 00		 push	 0
  00022	8b 45 0c	 mov	 eax, DWORD PTR _nLine$[ebp]
  00025	50		 push	 eax
  00026	8b 4d 08	 mov	 ecx, DWORD PTR _lpszFileName$[ebp]
  00029	51		 push	 ecx
  0002a	6a 02		 push	 2
  0002c	ff 15 00 00 00
	00		 call	 DWORD PTR __imp___CrtDbgReport
  00032	83 c4 14	 add	 esp, 20			; 00000014H
  00035	89 45 dc	 mov	 DWORD PTR _bResult$[ebp], eax

; 318  : 	if (bQuit)

  00038	83 7d e0 00	 cmp	 DWORD PTR _bQuit$[ebp], 0
  0003c	74 0a		 je	 SHORT $LN2@AfxAssertF

; 319  : 		PostQuitMessage((int)msg.wParam);

  0003e	8b 45 ec	 mov	 eax, DWORD PTR _msg$[ebp+8]
  00041	50		 push	 eax
  00042	ff 15 00 00 00
	00		 call	 DWORD PTR __imp__PostQuitMessage@4
$LN2@AfxAssertF:

; 320  : 	return bResult;

  00048	8b 45 dc	 mov	 eax, DWORD PTR _bResult$[ebp]

; 321  : }

  0004b	5f		 pop	 edi
  0004c	5e		 pop	 esi
  0004d	5b		 pop	 ebx
  0004e	8b e5		 mov	 esp, ebp
  00050	5d		 pop	 ebp
  00051	c2 08 00	 ret	 8
?AfxAssertFailedLine@@YGHPBDH@Z ENDP			; AfxAssertFailedLine
_TEXT	ENDS
; Function compile flags: /Odtp /ZI
; File c:\program files (x86)\windows kits\10\include\10.0.17763.0\shared\guiddef.h
;	COMDAT _==
_TEXT	SEGMENT
tv68 = -68						; size = 4
_guidOne$ = 8						; size = 4
_guidOther$ = 12					; size = 4
_==	PROC						; COMDAT

; 193  : {

  00000	55		 push	 ebp
  00001	8b ec		 mov	 ebp, esp
  00003	83 ec 44	 sub	 esp, 68			; 00000044H
  00006	53		 push	 ebx
  00007	56		 push	 esi
  00008	57		 push	 edi

; 194  :     return !!IsEqualGUID(guidOne,guidOther);

  00009	8b 45 0c	 mov	 eax, DWORD PTR _guidOther$[ebp]
  0000c	50		 push	 eax
  0000d	8b 4d 08	 mov	 ecx, DWORD PTR _guidOne$[ebp]
  00010	51		 push	 ecx
  00011	e8 00 00 00 00	 call	 _IsEqualGUID
  00016	83 c4 08	 add	 esp, 8
  00019	85 c0		 test	 eax, eax
  0001b	74 09		 je	 SHORT $LN3@
  0001d	c7 45 bc 01 00
	00 00		 mov	 DWORD PTR tv68[ebp], 1
  00024	eb 07		 jmp	 SHORT $LN4@
$LN3@:
  00026	c7 45 bc 00 00
	00 00		 mov	 DWORD PTR tv68[ebp], 0
$LN4@:
  0002d	8a 45 bc	 mov	 al, BYTE PTR tv68[ebp]

; 195  : }

  00030	5f		 pop	 edi
  00031	5e		 pop	 esi
  00032	5b		 pop	 ebx
  00033	8b e5		 mov	 esp, ebp
  00035	5d		 pop	 ebp
  00036	c3		 ret	 0
_==	ENDP
_TEXT	ENDS
; Function compile flags: /Odtp /ZI
; File c:\program files (x86)\windows kits\10\include\10.0.17763.0\shared\guiddef.h
;	COMDAT _IsEqualGUID
_TEXT	SEGMENT
tv69 = -68						; size = 4
_rguid1$ = 8						; size = 4
_rguid2$ = 12						; size = 4
_IsEqualGUID PROC					; COMDAT

; 160  : {

  00000	55		 push	 ebp
  00001	8b ec		 mov	 ebp, esp
  00003	83 ec 44	 sub	 esp, 68			; 00000044H
  00006	53		 push	 ebx
  00007	56		 push	 esi
  00008	57		 push	 edi

; 161  :     return !memcmp(&rguid1, &rguid2, sizeof(GUID));

  00009	6a 10		 push	 16			; 00000010H
  0000b	8b 45 0c	 mov	 eax, DWORD PTR _rguid2$[ebp]
  0000e	50		 push	 eax
  0000f	8b 4d 08	 mov	 ecx, DWORD PTR _rguid1$[ebp]
  00012	51		 push	 ecx
  00013	e8 00 00 00 00	 call	 _memcmp
  00018	83 c4 0c	 add	 esp, 12			; 0000000cH
  0001b	85 c0		 test	 eax, eax
  0001d	75 09		 jne	 SHORT $LN3@IsEqualGUI
  0001f	c7 45 bc 01 00
	00 00		 mov	 DWORD PTR tv69[ebp], 1
  00026	eb 07		 jmp	 SHORT $LN4@IsEqualGUI
$LN3@IsEqualGUI:
  00028	c7 45 bc 00 00
	00 00		 mov	 DWORD PTR tv69[ebp], 0
$LN4@IsEqualGUI:
  0002f	8b 45 bc	 mov	 eax, DWORD PTR tv69[ebp]

; 162  : }

  00032	5f		 pop	 edi
  00033	5e		 pop	 esi
  00034	5b		 pop	 ebx
  00035	8b e5		 mov	 esp, ebp
  00037	5d		 pop	 ebp
  00038	c3		 ret	 0
_IsEqualGUID ENDP
_TEXT	ENDS
; Function compile flags: /Odtp /ZI
; File g:\网狐\happygamewh\服务端\系统模块\服务器组件\约战服务\personalroomservicemanager.cpp
;	COMDAT ?__empty_global_delete@@YAXPAXI@Z
_TEXT	SEGMENT
___formal$ = 8						; size = 4
___formal$ = 12						; size = 4
?__empty_global_delete@@YAXPAXI@Z PROC			; __empty_global_delete, COMDAT

  00000	55		 push	 ebp
  00001	8b ec		 mov	 ebp, esp
  00003	83 ec 40	 sub	 esp, 64			; 00000040H
  00006	53		 push	 ebx
  00007	56		 push	 esi
  00008	57		 push	 edi
  00009	5f		 pop	 edi
  0000a	5e		 pop	 esi
  0000b	5b		 pop	 ebx
  0000c	8b e5		 mov	 esp, ebp
  0000e	5d		 pop	 ebp
  0000f	c3		 ret	 0
?__empty_global_delete@@YAXPAXI@Z ENDP			; __empty_global_delete
_TEXT	ENDS
; Function compile flags: /Odtp /ZI
; File g:\网狐\happygamewh\服务端\系统模块\服务器组件\约战服务\personalroomservicemanager.cpp
;	COMDAT ?__empty_global_delete@@YAXPAX@Z
_TEXT	SEGMENT
___formal$ = 8						; size = 4
?__empty_global_delete@@YAXPAX@Z PROC			; __empty_global_delete, COMDAT

  00000	55		 push	 ebp
  00001	8b ec		 mov	 ebp, esp
  00003	83 ec 40	 sub	 esp, 64			; 00000040H
  00006	53		 push	 ebx
  00007	56		 push	 esi
  00008	57		 push	 edi
  00009	5f		 pop	 edi
  0000a	5e		 pop	 esi
  0000b	5b		 pop	 ebx
  0000c	8b e5		 mov	 esp, ebp
  0000e	5d		 pop	 ebp
  0000f	c3		 ret	 0
?__empty_global_delete@@YAXPAX@Z ENDP			; __empty_global_delete
_TEXT	ENDS
; Function compile flags: /Odtp /ZI
;	COMDAT ??_H@YGXPAXIIP6EPAX0@Z@Z
_TEXT	SEGMENT
tv66 = -68						; size = 4
___t$ = 8						; size = 4
___s$ = 12						; size = 4
___n$ = 16						; size = 4
___f$ = 20						; size = 4
??_H@YGXPAXIIP6EPAX0@Z@Z PROC				; `vector constructor iterator', COMDAT
  00000	55		 push	 ebp
  00001	8b ec		 mov	 ebp, esp
  00003	83 ec 44	 sub	 esp, 68			; 00000044H
  00006	53		 push	 ebx
  00007	56		 push	 esi
  00008	57		 push	 edi
$LN2@vector:
  00009	8b 45 10	 mov	 eax, DWORD PTR ___n$[ebp]
  0000c	89 45 bc	 mov	 DWORD PTR tv66[ebp], eax
  0000f	8b 4d 10	 mov	 ecx, DWORD PTR ___n$[ebp]
  00012	83 e9 01	 sub	 ecx, 1
  00015	89 4d 10	 mov	 DWORD PTR ___n$[ebp], ecx
  00018	83 7d bc 00	 cmp	 DWORD PTR tv66[ebp], 0
  0001c	76 11		 jbe	 SHORT $LN1@vector
  0001e	8b 4d 08	 mov	 ecx, DWORD PTR ___t$[ebp]
  00021	ff 55 14	 call	 DWORD PTR ___f$[ebp]
  00024	8b 45 08	 mov	 eax, DWORD PTR ___t$[ebp]
  00027	03 45 0c	 add	 eax, DWORD PTR ___s$[ebp]
  0002a	89 45 08	 mov	 DWORD PTR ___t$[ebp], eax
  0002d	eb da		 jmp	 SHORT $LN2@vector
$LN1@vector:
  0002f	5f		 pop	 edi
  00030	5e		 pop	 esi
  00031	5b		 pop	 ebx
  00032	8b e5		 mov	 esp, ebp
  00034	5d		 pop	 ebp
  00035	c2 10 00	 ret	 16			; 00000010H
??_H@YGXPAXIIP6EPAX0@Z@Z ENDP				; `vector constructor iterator'
_TEXT	ENDS
END
