; Listing generated by Microsoft (R) Optimizing Compiler Version 19.16.27032.1 

	TITLE	G:\网狐\HappyGameWH\服务端\系统模块\服务器组件\约战服务\PersonalRoomGame.cpp
	.686P
	.XMM
	include listing.inc
	.model	flat

INCLUDELIB MSVCRTD
INCLUDELIB OLDNAMES

CONST	SEGMENT
?IID_IUnknownEx@@3U_GUID@@B DD 05feec21eH		; IID_IUnknownEx
	DW	0dbf3H
	DW	046f0H
	DB	09fH
	DB	057H
	DB	0d1H
	DB	0cdH
	DB	071H
	DB	01cH
	DB	046H
	DB	0deH
?szTreasureDB@@3QBDB DB 'QPTreasureDB', 00H		; szTreasureDB
	ORG $+3
?szCompilation@@3QBDB DB 'ED56BE63-3026-465B-9DFC-17F595145F3D', 00H ; szCompilation
	ORG $+3
?IID_IServerUserItemSink@@3U_GUID@@B DD 09d0cfe02H	; IID_IServerUserItemSink
	DW	0fe9H
	DW	04a8bH
	DB	097H
	DB	095H
	DB	0acH
	DB	032H
	DB	067H
	DB	05aH
	DB	0f8H
	DB	0b1H
?IID_IPersonalRoomServiceManager@@3U_GUID@@B DD 0c59d784bH ; IID_IPersonalRoomServiceManager
	DW	08875H
	DW	041f5H
	DB	0a3H
	DB	0d0H
	DB	023H
	DB	094H
	DB	096H
	DB	0e0H
	DB	028H
	DB	03cH
?IID_IPersonalRoomItem@@3U_GUID@@B DD 0db849912H	; IID_IPersonalRoomItem
	DW	07834H
	DW	04429H
	DB	0aeH
	DB	0aH
	DB	04cH
	DB	01aH
	DB	096H
	DB	087H
	DB	038H
	DB	0a9H
?IID_IPersonalRoomEventSink@@3U_GUID@@B DD 02650c8a7H	; IID_IPersonalRoomEventSink
	DW	0313dH
	DW	04635H
	DB	0bfH
	DB	027H
	DB	04bH
	DB	03aH
	DB	0d0H
	DB	05eH
	DB	00H
	DB	04H
?IID_IMatchServiceManager@@3U_GUID@@B DD 07d381e8aH	; IID_IMatchServiceManager
	DW	08c10H
	DW	04443H
	DB	0b5H
	DB	0adH
	DB	075H
	DB	04bH
	DB	0e5H
	DB	050H
	DB	0c5H
	DB	053H
CONST	ENDS
PUBLIC	??_H@YGXPAXIIP6EPAX0@Z@Z			; `vector constructor iterator'
PUBLIC	?__empty_global_delete@@YAXPAX@Z		; __empty_global_delete
PUBLIC	?__empty_global_delete@@YAXPAXI@Z		; __empty_global_delete
PUBLIC	??2@YAPAXIPAX@Z					; operator new
PUBLIC	_IsEqualGUID
PUBLIC	_==
PUBLIC	?AfxAssertFailedLine@@YGHPBDH@Z			; AfxAssertFailedLine
PUBLIC	??0tagPersonalUserScoreInfo@@QAE@XZ		; tagPersonalUserScoreInfo::tagPersonalUserScoreInfo
PUBLIC	??0IUnknownEx@@QAE@XZ				; IUnknownEx::IUnknownEx
PUBLIC	?GetProductVer@@YAEK@Z				; GetProductVer
PUBLIC	?GetMainVer@@YAEK@Z				; GetMainVer
PUBLIC	?GetSubVer@@YAEK@Z				; GetSubVer
PUBLIC	?GetBuildVer@@YAEK@Z				; GetBuildVer
PUBLIC	?InterfaceVersionCompare@@YA_NKK@Z		; InterfaceVersionCompare
PUBLIC	?IsImmediateWriteScore@CServerRule@@SA_NK@Z	; CServerRule::IsImmediateWriteScore
PUBLIC	??0CMD_CS_C_DismissTable@@QAE@XZ		; CMD_CS_C_DismissTable::CMD_CS_C_DismissTable
PUBLIC	??0CMD_GR_DissumeTable@@QAE@XZ			; CMD_GR_DissumeTable::CMD_GR_DissumeTable
PUBLIC	??0IServerUserItemSink@@QAE@XZ			; IServerUserItemSink::IServerUserItemSink
PUBLIC	??0IPersonalRoomItem@@QAE@XZ			; IPersonalRoomItem::IPersonalRoomItem
PUBLIC	??0IPersonalRoomEventSink@@QAE@XZ		; IPersonalRoomEventSink::IPersonalRoomEventSink
PUBLIC	??0?$CWHArray@PAUtagPersonalTableParameter@@ABQAU1@@@QAE@XZ ; CWHArray<tagPersonalTableParameter *,tagPersonalTableParameter * const &>::CWHArray<tagPersonalTableParameter *,tagPersonalTableParameter * const &>
PUBLIC	??1?$CWHArray@PAUtagPersonalTableParameter@@ABQAU1@@@UAE@XZ ; CWHArray<tagPersonalTableParameter *,tagPersonalTableParameter * const &>::~CWHArray<tagPersonalTableParameter *,tagPersonalTableParameter * const &>
PUBLIC	?GetCount@?$CWHArray@PAUtagPersonalTableParameter@@ABQAU1@@@QBEHXZ ; CWHArray<tagPersonalTableParameter *,tagPersonalTableParameter * const &>::GetCount
PUBLIC	?Add@?$CWHArray@PAUtagPersonalTableParameter@@ABQAU1@@@QAEHABQAUtagPersonalTableParameter@@@Z ; CWHArray<tagPersonalTableParameter *,tagPersonalTableParameter * const &>::Add
PUBLIC	?GetAt@?$CWHArray@PAUtagPersonalTableParameter@@ABQAU1@@@QAEAAPAUtagPersonalTableParameter@@H@Z ; CWHArray<tagPersonalTableParameter *,tagPersonalTableParameter * const &>::GetAt
PUBLIC	?SetSize@?$CWHArray@PAUtagPersonalTableParameter@@ABQAU1@@@QAEXH@Z ; CWHArray<tagPersonalTableParameter *,tagPersonalTableParameter * const &>::SetSize
PUBLIC	?SetAtGrow@?$CWHArray@PAUtagPersonalTableParameter@@ABQAU1@@@QAEXHABQAUtagPersonalTableParameter@@@Z ; CWHArray<tagPersonalTableParameter *,tagPersonalTableParameter * const &>::SetAtGrow
PUBLIC	?RemoveAll@?$CWHArray@PAUtagPersonalTableParameter@@ABQAU1@@@QAEXXZ ; CWHArray<tagPersonalTableParameter *,tagPersonalTableParameter * const &>::RemoveAll
PUBLIC	?AllocMemory@?$CWHArray@PAUtagPersonalTableParameter@@ABQAU1@@@QAEXH@Z ; CWHArray<tagPersonalTableParameter *,tagPersonalTableParameter * const &>::AllocMemory
PUBLIC	??_G?$CWHArray@PAUtagPersonalTableParameter@@ABQAU1@@@UAEPAXI@Z ; CWHArray<tagPersonalTableParameter *,tagPersonalTableParameter * const &>::`scalar deleting destructor'
PUBLIC	??0CPersonalRoomGame@@QAE@XZ			; CPersonalRoomGame::CPersonalRoomGame
PUBLIC	??1CPersonalRoomGame@@UAE@XZ			; CPersonalRoomGame::~CPersonalRoomGame
PUBLIC	?Release@CPersonalRoomGame@@UAEXXZ		; CPersonalRoomGame::Release
PUBLIC	?QueryInterface@CPersonalRoomGame@@UAEPAXABU_GUID@@K@Z ; CPersonalRoomGame::QueryInterface
PUBLIC	?OnStartService@CPersonalRoomGame@@UAEXXZ	; CPersonalRoomGame::OnStartService
PUBLIC	?BindTableFrame@CPersonalRoomGame@@UAE_NPAUITableFrame@@G@Z ; CPersonalRoomGame::BindTableFrame
PUBLIC	?InitPersonalRooomInterface@CPersonalRoomGame@@UAE_NAAUtagPersonalRoomManagerParameter@@@Z ; CPersonalRoomGame::InitPersonalRooomInterface
PUBLIC	?OnEventTimer@CPersonalRoomGame@@UAE_NKI@Z	; CPersonalRoomGame::OnEventTimer
PUBLIC	?OnEventDataBase@CPersonalRoomGame@@UAE_NGPAUIServerUserItem@@PAXGK@Z ; CPersonalRoomGame::OnEventDataBase
PUBLIC	?OnEventSocketPersonalRoom@CPersonalRoomGame@@UAE_NGPAXGPAUIServerUserItem@@K@Z ; CPersonalRoomGame::OnEventSocketPersonalRoom
PUBLIC	?OnEventUserItemScore@CPersonalRoomGame@@UAE_NPAUIServerUserItem@@E@Z ; CPersonalRoomGame::OnEventUserItemScore
PUBLIC	?OnEventUserItemGameData@CPersonalRoomGame@@UAE_NPAUIServerUserItem@@E@Z ; CPersonalRoomGame::OnEventUserItemGameData
PUBLIC	?OnEventUserItemStatus@CPersonalRoomGame@@UAE_NPAUIServerUserItem@@GG@Z ; CPersonalRoomGame::OnEventUserItemStatus
PUBLIC	?OnEventUserItemRight@CPersonalRoomGame@@UAE_NPAUIServerUserItem@@KKE@Z ; CPersonalRoomGame::OnEventUserItemRight
PUBLIC	?OnEventUserLogon@CPersonalRoomGame@@UAE_NPAUIServerUserItem@@@Z ; CPersonalRoomGame::OnEventUserLogon
PUBLIC	?OnEventUserLogout@CPersonalRoomGame@@UAE_NPAUIServerUserItem@@@Z ; CPersonalRoomGame::OnEventUserLogout
PUBLIC	?OnEventUserLogonFinish@CPersonalRoomGame@@UAE_NPAUIServerUserItem@@@Z ; CPersonalRoomGame::OnEventUserLogonFinish
PUBLIC	?OnEventGameStart@CPersonalRoomGame@@UAE_NPAUITableFrame@@G@Z ; CPersonalRoomGame::OnEventGameStart
PUBLIC	?PersonalRoomWriteJoinInfo@CPersonalRoomGame@@UAEXKGGKKPAD@Z ; CPersonalRoomGame::PersonalRoomWriteJoinInfo
PUBLIC	?OnEventGameEnd@CPersonalRoomGame@@UAE_NPAUITableFrame@@GPAUIServerUserItem@@E@Z ; CPersonalRoomGame::OnEventGameEnd
PUBLIC	?OnEventGameEnd@CPersonalRoomGame@@UAE_NGGKAAKHPAEU_SYSTEMTIME@@PAUtagPersonalUserScoreInfo@@HE@Z ; CPersonalRoomGame::OnEventGameEnd
PUBLIC	?OnEventUserReturnMatch@CPersonalRoomGame@@UAE_NPAUITableFrame@@PAUIServerUserItem@@@Z ; CPersonalRoomGame::OnEventUserReturnMatch
PUBLIC	?PersonalPayRoomCard@CPersonalRoomGame@@UAE_NKGGK@Z ; CPersonalRoomGame::PersonalPayRoomCard
PUBLIC	?OnActionUserSitDown@CPersonalRoomGame@@UAE_NGGPAUIServerUserItem@@_N@Z ; CPersonalRoomGame::OnActionUserSitDown
PUBLIC	?OnActionUserStandUp@CPersonalRoomGame@@UAE_NGGPAUIServerUserItem@@_N@Z ; CPersonalRoomGame::OnActionUserStandUp
PUBLIC	?OnActionUserOnReady@CPersonalRoomGame@@UAE_NGGPAUIServerUserItem@@PAXG@Z ; CPersonalRoomGame::OnActionUserOnReady
PUBLIC	?OnTCPNetworkSubCreateTable@CPersonalRoomGame@@IAE_NPAXGKPAUIServerUserItem@@@Z ; CPersonalRoomGame::OnTCPNetworkSubCreateTable
PUBLIC	?OnTCPNetworkSubCancelRequest@CPersonalRoomGame@@IAE_NPAXGKPAUIServerUserItem@@@Z ; CPersonalRoomGame::OnTCPNetworkSubCancelRequest
PUBLIC	?OnTCPNetworkSubRequestReply@CPersonalRoomGame@@IAE_NPAXGKPAUIServerUserItem@@@Z ; CPersonalRoomGame::OnTCPNetworkSubRequestReply
PUBLIC	?OnTCPNetworkSubHostDissumeTable@CPersonalRoomGame@@IAE_NPAXGKPAUIServerUserItem@@@Z ; CPersonalRoomGame::OnTCPNetworkSubHostDissumeTable
PUBLIC	?OnTCPNetworkSubQueryJoinInfo@CPersonalRoomGame@@IAE_NPAXGKPAUIServerUserItem@@@Z ; CPersonalRoomGame::OnTCPNetworkSubQueryJoinInfo
PUBLIC	?OnDBCreateSucess@CPersonalRoomGame@@IAE_NKPAXGPAUIServerUserItem@@@Z ; CPersonalRoomGame::OnDBCreateSucess
PUBLIC	?OnDBCreateFailure@CPersonalRoomGame@@IAE_NKPAXGPAUIServerUserItem@@@Z ; CPersonalRoomGame::OnDBCreateFailure
PUBLIC	?OnDBCancelCreateTable@CPersonalRoomGame@@IAE_NKPAXGPAUIServerUserItem@@@Z ; CPersonalRoomGame::OnDBCancelCreateTable
PUBLIC	?OnDBLoadPersonalParameter@CPersonalRoomGame@@IAE_NKPAXGPAUIServerUserItem@@@Z ; CPersonalRoomGame::OnDBLoadPersonalParameter
PUBLIC	?OnDBDissumeTableResult@CPersonalRoomGame@@IAE_NKPAXGPAUIServerUserItem@@@Z ; CPersonalRoomGame::OnDBDissumeTableResult
PUBLIC	?OnDBCurrenceRoomCardAndBeant@CPersonalRoomGame@@IAE_NKPAXGPAUIServerUserItem@@@Z ; CPersonalRoomGame::OnDBCurrenceRoomCardAndBeant
PUBLIC	?OnTCPSocketMainServiceInfo@CPersonalRoomGame@@UAE_NGPAXG@Z ; CPersonalRoomGame::OnTCPSocketMainServiceInfo
PUBLIC	??_GCPersonalRoomGame@@UAEPAXI@Z		; CPersonalRoomGame::`scalar deleting destructor'
PUBLIC	?Release@CPersonalRoomGame@@W3AEXXZ		; [thunk]:CPersonalRoomGame::Release`adjustor{4}'
PUBLIC	?QueryInterface@CPersonalRoomGame@@W3AEPAXABU_GUID@@K@Z ; [thunk]:CPersonalRoomGame::QueryInterface`adjustor{4}'
PUBLIC	?Release@CPersonalRoomGame@@W7AEXXZ		; [thunk]:CPersonalRoomGame::Release`adjustor{8}'
PUBLIC	?QueryInterface@CPersonalRoomGame@@W7AEPAXABU_GUID@@K@Z ; [thunk]:CPersonalRoomGame::QueryInterface`adjustor{8}'
PUBLIC	??_C@_02DKCKIIND@?$CFs@				; `string'
PUBLIC	??_7IUnknownEx@@6B@				; IUnknownEx::`vftable'
PUBLIC	??_7IServerUserItemSink@@6B@			; IServerUserItemSink::`vftable'
PUBLIC	??_7IPersonalRoomItem@@6B@			; IPersonalRoomItem::`vftable'
PUBLIC	??_7IPersonalRoomEventSink@@6B@			; IPersonalRoomEventSink::`vftable'
PUBLIC	??_7?$CWHArray@PAUtagPersonalTableParameter@@ABQAU1@@@6B@ ; CWHArray<tagPersonalTableParameter *,tagPersonalTableParameter * const &>::`vftable'
PUBLIC	??_7CPersonalRoomGame@@6BIPersonalRoomItem@@@	; CPersonalRoomGame::`vftable'
PUBLIC	??_7CPersonalRoomGame@@6BIPersonalRoomEventSink@@@ ; CPersonalRoomGame::`vftable'
PUBLIC	??_7CPersonalRoomGame@@6BIServerUserItemSink@@@	; CPersonalRoomGame::`vftable'
PUBLIC	?__LINE__Var@?0???1CPersonalRoomGame@@UAE@XZ@4JA ; `CPersonalRoomGame::~CPersonalRoomGame'::`1'::__LINE__Var
PUBLIC	??_C@_0EN@PBHPFOKJ@g?3?2?M?x?$LK?$PM?2happygamewh?2?$LH?$PO?N?q?$LG?K?2?O?$LF?M?$LD@ ; `string'
PUBLIC	?__LINE__Var@?0??BindTableFrame@CPersonalRoomGame@@UAE_NPAUITableFrame@@G@Z@4JA ; `CPersonalRoomGame::BindTableFrame'::`1'::__LINE__Var
PUBLIC	?__LINE__Var@?0??OnEventUserItemScore@CPersonalRoomGame@@UAE_NPAUIServerUserItem@@E@Z@4JA ; `CPersonalRoomGame::OnEventUserItemScore'::`1'::__LINE__Var
PUBLIC	??_C@_0L@INAKIJJF@?T?$LM?U?$LN?$LN?a?J?x?$KB?$KD@ ; `string'
PUBLIC	?__LINE__Var@?0??OnTCPNetworkSubCreateTable@CPersonalRoomGame@@IAE_NPAXGKPAUIServerUserItem@@@Z@4JA ; `CPersonalRoomGame::OnTCPNetworkSubCreateTable'::`1'::__LINE__Var
PUBLIC	??_C@_0CF@BENLJJPJ@?M?f?$LM?R?U?$PN?T?Z?T?$LM?U?$LN?$LH?$LP?S?N?O?$LH?V?P?$KD?$KM?$LC?$LL?D?$NM?$LE?$LE?$LN?$KI?$LH@ ; `string'
PUBLIC	??_C@_0CF@DJFGALCD@?D?$LP?G?$LA?$LI?C?S?N?O?$LH?T?$LM?U?$LN?$LH?$LP?$LM?d?R?Q?B?z?$KD?$KM?G?k?I?T?$LK?s?T@ ; `string'
PUBLIC	?__LINE__Var@?0??OnTCPNetworkSubCancelRequest@CPersonalRoomGame@@IAE_NPAXGKPAUIServerUserItem@@@Z@4JA ; `CPersonalRoomGame::OnTCPNetworkSubCancelRequest'::`1'::__LINE__Var
PUBLIC	?__LINE__Var@?0??OnTCPNetworkSubRequestReply@CPersonalRoomGame@@IAE_NPAXGKPAUIServerUserItem@@@Z@4JA ; `CPersonalRoomGame::OnTCPNetworkSubRequestReply'::`1'::__LINE__Var
PUBLIC	?__LINE__Var@?0??OnTCPNetworkSubHostDissumeTable@CPersonalRoomGame@@IAE_NPAXGKPAUIServerUserItem@@@Z@4JA ; `CPersonalRoomGame::OnTCPNetworkSubHostDissumeTable'::`1'::__LINE__Var
PUBLIC	?__LINE__Var@?0??OnTCPNetworkSubQueryJoinInfo@CPersonalRoomGame@@IAE_NPAXGKPAUIServerUserItem@@@Z@4JA ; `CPersonalRoomGame::OnTCPNetworkSubQueryJoinInfo'::`1'::__LINE__Var
PUBLIC	?__LINE__Var@?0??OnDBCurrenceRoomCardAndBeant@CPersonalRoomGame@@IAE_NKPAXGPAUIServerUserItem@@@Z@4JA ; `CPersonalRoomGame::OnDBCurrenceRoomCardAndBeant'::`1'::__LINE__Var
PUBLIC	?__LINE__Var@?0??OnDBDissumeTableResult@CPersonalRoomGame@@IAE_NKPAXGPAUIServerUserItem@@@Z@4JA ; `CPersonalRoomGame::OnDBDissumeTableResult'::`1'::__LINE__Var
PUBLIC	?__LINE__Var@?0??OnDBLoadPersonalParameter@CPersonalRoomGame@@IAE_NKPAXGPAUIServerUserItem@@@Z@4JA ; `CPersonalRoomGame::OnDBLoadPersonalParameter'::`1'::__LINE__Var
PUBLIC	?__LINE__Var@?0??OnDBCreateSucess@CPersonalRoomGame@@IAE_NKPAXGPAUIServerUserItem@@@Z@4JA ; `CPersonalRoomGame::OnDBCreateSucess'::`1'::__LINE__Var
PUBLIC	??_C@_0BB@JFMJGBEP@?$CFd?$CFd?$CFd?$CFd?$CFd?$CFd?$CFd?$CFd@ ; `string'
PUBLIC	??_C@_0BB@LPANEFD@?$LE?$LE?$LN?$KI?W?$MA?W?S?W?x?O?B?J?$KH?$LA?$NM@ ; `string'
PUBLIC	?__LINE__Var@?0??OnDBCreateFailure@CPersonalRoomGame@@IAE_NKPAXGPAUIServerUserItem@@@Z@4JA ; `CPersonalRoomGame::OnDBCreateFailure'::`1'::__LINE__Var
PUBLIC	?__LINE__Var@?0??OnDBCancelCreateTable@CPersonalRoomGame@@IAE_NKPAXGPAUIServerUserItem@@@Z@4JA ; `CPersonalRoomGame::OnDBCancelCreateTable'::`1'::__LINE__Var
PUBLIC	??_C@_0P@LGKLJHBF@?S?N?O?$LH?W?T?$LG?$KP?$LN?b?I?$KC?$KB?$KD@ ; `string'
PUBLIC	??_C@_0BL@EKGKFEBG@?S?N?O?$LH?N?$LE?$LP?$KK?J?$LM?$KD?$KM?S?N?O?$LH?W?T?$LG?$KP?$LN?b?I?$KC?$KB?$KD@ ; `string'
PUBLIC	??_C@_0CD@JHECHKJE@?$LH?$LP?V?w?M?K?$LD?v?S?N?O?$LH?$LL?r?S?N?O?$LH?$LD?$KM?J?$LB?$KD?$KM?S?N?O?$LH?$LN?b?I@ ; `string'
PUBLIC	??_C@_0BF@BBCEPGNP@?S?N?O?$LH?$LD?$KM?J?$LB?$KD?$KM?S?N?O?$LH?$LN?b?I?$KC?$KB?$KD@ ; `string'
PUBLIC	??_C@_0CJ@IPIKOHBH@?T?$LM?U?$LN?$LJ?f?$LG?$KI?$LP?$KK?J?$LM?J?$LB?$LM?d?$LF?$LN?N?$LE?$LP?$KK?J?$LM?S?N?O?$LH?$KD?$KM?S@ ; `string'
PUBLIC	?__LINE__Var@?0??OnTCPSocketMainServiceInfo@CPersonalRoomGame@@UAE_NGPAXG@Z@4JA ; `CPersonalRoomGame::OnTCPSocketMainServiceInfo'::`1'::__LINE__Var
PUBLIC	??_C@_0BF@OAHKEPFP@?$LE?$LE?$LN?$KI?$LH?$LP?$LM?d?$LC?N?J?$PN?$LC?$LL?U?$PN?H?$LH?$KD?$KB@ ; `string'
PUBLIC	??_C@_0DF@LDFGAABH@g?3?2?M?x?$LK?$PM?2happygamewh?2?$LH?$PO?N?q?$LG?K?2?O?$LF?M?$LD@ ; `string'
PUBLIC	??_R4IUnknownEx@@6B@				; IUnknownEx::`RTTI Complete Object Locator'
PUBLIC	??_R0?AUIUnknownEx@@@8				; IUnknownEx `RTTI Type Descriptor'
PUBLIC	??_R3IUnknownEx@@8				; IUnknownEx::`RTTI Class Hierarchy Descriptor'
PUBLIC	??_R2IUnknownEx@@8				; IUnknownEx::`RTTI Base Class Array'
PUBLIC	??_R1A@?0A@EA@IUnknownEx@@8			; IUnknownEx::`RTTI Base Class Descriptor at (0,-1,0,64)'
PUBLIC	??_R4IServerUserItemSink@@6B@			; IServerUserItemSink::`RTTI Complete Object Locator'
PUBLIC	??_R0?AUIServerUserItemSink@@@8			; IServerUserItemSink `RTTI Type Descriptor'
PUBLIC	??_R3IServerUserItemSink@@8			; IServerUserItemSink::`RTTI Class Hierarchy Descriptor'
PUBLIC	??_R2IServerUserItemSink@@8			; IServerUserItemSink::`RTTI Base Class Array'
PUBLIC	??_R1A@?0A@EA@IServerUserItemSink@@8		; IServerUserItemSink::`RTTI Base Class Descriptor at (0,-1,0,64)'
PUBLIC	??_R4IPersonalRoomItem@@6B@			; IPersonalRoomItem::`RTTI Complete Object Locator'
PUBLIC	??_R0?AUIPersonalRoomItem@@@8			; IPersonalRoomItem `RTTI Type Descriptor'
PUBLIC	??_R3IPersonalRoomItem@@8			; IPersonalRoomItem::`RTTI Class Hierarchy Descriptor'
PUBLIC	??_R2IPersonalRoomItem@@8			; IPersonalRoomItem::`RTTI Base Class Array'
PUBLIC	??_R1A@?0A@EA@IPersonalRoomItem@@8		; IPersonalRoomItem::`RTTI Base Class Descriptor at (0,-1,0,64)'
PUBLIC	??_R4IPersonalRoomEventSink@@6B@		; IPersonalRoomEventSink::`RTTI Complete Object Locator'
PUBLIC	??_R0?AUIPersonalRoomEventSink@@@8		; IPersonalRoomEventSink `RTTI Type Descriptor'
PUBLIC	??_R3IPersonalRoomEventSink@@8			; IPersonalRoomEventSink::`RTTI Class Hierarchy Descriptor'
PUBLIC	??_R2IPersonalRoomEventSink@@8			; IPersonalRoomEventSink::`RTTI Base Class Array'
PUBLIC	??_R1A@?0A@EA@IPersonalRoomEventSink@@8		; IPersonalRoomEventSink::`RTTI Base Class Descriptor at (0,-1,0,64)'
PUBLIC	??_R4?$CWHArray@PAUtagPersonalTableParameter@@ABQAU1@@@6B@ ; CWHArray<tagPersonalTableParameter *,tagPersonalTableParameter * const &>::`RTTI Complete Object Locator'
PUBLIC	??_R0?AV?$CWHArray@PAUtagPersonalTableParameter@@ABQAU1@@@@8 ; CWHArray<tagPersonalTableParameter *,tagPersonalTableParameter * const &> `RTTI Type Descriptor'
PUBLIC	??_R3?$CWHArray@PAUtagPersonalTableParameter@@ABQAU1@@@8 ; CWHArray<tagPersonalTableParameter *,tagPersonalTableParameter * const &>::`RTTI Class Hierarchy Descriptor'
PUBLIC	??_R2?$CWHArray@PAUtagPersonalTableParameter@@ABQAU1@@@8 ; CWHArray<tagPersonalTableParameter *,tagPersonalTableParameter * const &>::`RTTI Base Class Array'
PUBLIC	??_R1A@?0A@EA@?$CWHArray@PAUtagPersonalTableParameter@@ABQAU1@@@8 ; CWHArray<tagPersonalTableParameter *,tagPersonalTableParameter * const &>::`RTTI Base Class Descriptor at (0,-1,0,64)'
PUBLIC	??_R4CPersonalRoomGame@@6BIPersonalRoomItem@@@	; CPersonalRoomGame::`RTTI Complete Object Locator'
PUBLIC	??_R0?AVCPersonalRoomGame@@@8			; CPersonalRoomGame `RTTI Type Descriptor'
PUBLIC	??_R3CPersonalRoomGame@@8			; CPersonalRoomGame::`RTTI Class Hierarchy Descriptor'
PUBLIC	??_R2CPersonalRoomGame@@8			; CPersonalRoomGame::`RTTI Base Class Array'
PUBLIC	??_R1A@?0A@EA@CPersonalRoomGame@@8		; CPersonalRoomGame::`RTTI Base Class Descriptor at (0,-1,0,64)'
PUBLIC	??_R1A@?0A@EC@IUnknownEx@@8			; IUnknownEx::`RTTI Base Class Descriptor at (0,-1,0,66)'
PUBLIC	??_R13?0A@EA@IPersonalRoomEventSink@@8		; IPersonalRoomEventSink::`RTTI Base Class Descriptor at (4,-1,0,64)'
PUBLIC	??_R13?0A@EC@IUnknownEx@@8			; IUnknownEx::`RTTI Base Class Descriptor at (4,-1,0,66)'
PUBLIC	??_R17?0A@EA@IServerUserItemSink@@8		; IServerUserItemSink::`RTTI Base Class Descriptor at (8,-1,0,64)'
PUBLIC	??_R17?0A@EC@IUnknownEx@@8			; IUnknownEx::`RTTI Base Class Descriptor at (8,-1,0,66)'
PUBLIC	??_R4CPersonalRoomGame@@6BIPersonalRoomEventSink@@@ ; CPersonalRoomGame::`RTTI Complete Object Locator'
PUBLIC	??_R4CPersonalRoomGame@@6BIServerUserItemSink@@@ ; CPersonalRoomGame::`RTTI Complete Object Locator'
EXTRN	__purecall:PROC
EXTRN	??2@YAPAXI@Z:PROC				; operator new
EXTRN	??3@YAXPAXI@Z:PROC				; operator delete
EXTRN	??_U@YAPAXI@Z:PROC				; operator new[]
EXTRN	??_V@YAXPAX@Z:PROC				; operator delete[]
EXTRN	_memcmp:PROC
EXTRN	_memcpy:PROC
EXTRN	_memset:PROC
EXTRN	__imp__GetLocalTime@4:PROC
EXTRN	__imp__lstrcmpA@8:PROC
EXTRN	__imp__lstrcpynA@12:PROC
EXTRN	__imp__lstrlenA@4:PROC
EXTRN	__imp__wsprintfA:PROC
EXTRN	__imp__PeekMessageA@20:PROC
EXTRN	__imp__PostQuitMessage@4:PROC
EXTRN	__imp__srand:PROC
EXTRN	__imp__rand:PROC
EXTRN	__imp___time64:PROC
EXTRN	__imp___CrtDbgReport:PROC
EXTRN	?AfxThrowInvalidArgException@@YGXXZ:PROC	; AfxThrowInvalidArgException
EXTRN	__imp_?TraceString@CTraceService@@SA_NPBDW4enTraceLevel@@@Z:PROC
EXTRN	??0CPersonalTableFrameHook@@QAE@XZ:PROC		; CPersonalTableFrameHook::CPersonalTableFrameHook
EXTRN	??_E?$CWHArray@PAUtagPersonalTableParameter@@ABQAU1@@@UAEPAXI@Z:PROC ; CWHArray<tagPersonalTableParameter *,tagPersonalTableParameter * const &>::`vector deleting destructor'
EXTRN	??_ECPersonalRoomGame@@UAEPAXI@Z:PROC		; CPersonalRoomGame::`vector deleting destructor'
EXTRN	@__security_check_cookie@4:PROC
EXTRN	___CxxFrameHandler3:PROC
EXTRN	_memset:PROC
EXTRN	??_7type_info@@6B@:QWORD			; type_info::`vftable'
EXTRN	___security_cookie:DWORD
;	COMDAT ??_R4CPersonalRoomGame@@6BIServerUserItemSink@@@
rdata$r	SEGMENT
??_R4CPersonalRoomGame@@6BIServerUserItemSink@@@ DD 00H	; CPersonalRoomGame::`RTTI Complete Object Locator'
	DD	08H
	DD	00H
	DD	FLAT:??_R0?AVCPersonalRoomGame@@@8
	DD	FLAT:??_R3CPersonalRoomGame@@8
rdata$r	ENDS
;	COMDAT ??_R4CPersonalRoomGame@@6BIPersonalRoomEventSink@@@
rdata$r	SEGMENT
??_R4CPersonalRoomGame@@6BIPersonalRoomEventSink@@@ DD 00H ; CPersonalRoomGame::`RTTI Complete Object Locator'
	DD	04H
	DD	00H
	DD	FLAT:??_R0?AVCPersonalRoomGame@@@8
	DD	FLAT:??_R3CPersonalRoomGame@@8
rdata$r	ENDS
;	COMDAT ??_R17?0A@EC@IUnknownEx@@8
rdata$r	SEGMENT
??_R17?0A@EC@IUnknownEx@@8 DD FLAT:??_R0?AUIUnknownEx@@@8 ; IUnknownEx::`RTTI Base Class Descriptor at (8,-1,0,66)'
	DD	00H
	DD	08H
	DD	0ffffffffH
	DD	00H
	DD	042H
	DD	FLAT:??_R3IUnknownEx@@8
rdata$r	ENDS
;	COMDAT ??_R17?0A@EA@IServerUserItemSink@@8
rdata$r	SEGMENT
??_R17?0A@EA@IServerUserItemSink@@8 DD FLAT:??_R0?AUIServerUserItemSink@@@8 ; IServerUserItemSink::`RTTI Base Class Descriptor at (8,-1,0,64)'
	DD	01H
	DD	08H
	DD	0ffffffffH
	DD	00H
	DD	040H
	DD	FLAT:??_R3IServerUserItemSink@@8
rdata$r	ENDS
;	COMDAT ??_R13?0A@EC@IUnknownEx@@8
rdata$r	SEGMENT
??_R13?0A@EC@IUnknownEx@@8 DD FLAT:??_R0?AUIUnknownEx@@@8 ; IUnknownEx::`RTTI Base Class Descriptor at (4,-1,0,66)'
	DD	00H
	DD	04H
	DD	0ffffffffH
	DD	00H
	DD	042H
	DD	FLAT:??_R3IUnknownEx@@8
rdata$r	ENDS
;	COMDAT ??_R13?0A@EA@IPersonalRoomEventSink@@8
rdata$r	SEGMENT
??_R13?0A@EA@IPersonalRoomEventSink@@8 DD FLAT:??_R0?AUIPersonalRoomEventSink@@@8 ; IPersonalRoomEventSink::`RTTI Base Class Descriptor at (4,-1,0,64)'
	DD	01H
	DD	04H
	DD	0ffffffffH
	DD	00H
	DD	040H
	DD	FLAT:??_R3IPersonalRoomEventSink@@8
rdata$r	ENDS
;	COMDAT ??_R1A@?0A@EC@IUnknownEx@@8
rdata$r	SEGMENT
??_R1A@?0A@EC@IUnknownEx@@8 DD FLAT:??_R0?AUIUnknownEx@@@8 ; IUnknownEx::`RTTI Base Class Descriptor at (0,-1,0,66)'
	DD	00H
	DD	00H
	DD	0ffffffffH
	DD	00H
	DD	042H
	DD	FLAT:??_R3IUnknownEx@@8
rdata$r	ENDS
;	COMDAT ??_R1A@?0A@EA@CPersonalRoomGame@@8
rdata$r	SEGMENT
??_R1A@?0A@EA@CPersonalRoomGame@@8 DD FLAT:??_R0?AVCPersonalRoomGame@@@8 ; CPersonalRoomGame::`RTTI Base Class Descriptor at (0,-1,0,64)'
	DD	06H
	DD	00H
	DD	0ffffffffH
	DD	00H
	DD	040H
	DD	FLAT:??_R3CPersonalRoomGame@@8
rdata$r	ENDS
;	COMDAT ??_R2CPersonalRoomGame@@8
rdata$r	SEGMENT
??_R2CPersonalRoomGame@@8 DD FLAT:??_R1A@?0A@EA@CPersonalRoomGame@@8 ; CPersonalRoomGame::`RTTI Base Class Array'
	DD	FLAT:??_R1A@?0A@EA@IPersonalRoomItem@@8
	DD	FLAT:??_R1A@?0A@EC@IUnknownEx@@8
	DD	FLAT:??_R13?0A@EA@IPersonalRoomEventSink@@8
	DD	FLAT:??_R13?0A@EC@IUnknownEx@@8
	DD	FLAT:??_R17?0A@EA@IServerUserItemSink@@8
	DD	FLAT:??_R17?0A@EC@IUnknownEx@@8
rdata$r	ENDS
;	COMDAT ??_R3CPersonalRoomGame@@8
rdata$r	SEGMENT
??_R3CPersonalRoomGame@@8 DD 00H			; CPersonalRoomGame::`RTTI Class Hierarchy Descriptor'
	DD	05H
	DD	07H
	DD	FLAT:??_R2CPersonalRoomGame@@8
rdata$r	ENDS
;	COMDAT ??_R0?AVCPersonalRoomGame@@@8
data$r	SEGMENT
??_R0?AVCPersonalRoomGame@@@8 DD FLAT:??_7type_info@@6B@ ; CPersonalRoomGame `RTTI Type Descriptor'
	DD	00H
	DB	'.?AVCPersonalRoomGame@@', 00H
data$r	ENDS
;	COMDAT ??_R4CPersonalRoomGame@@6BIPersonalRoomItem@@@
rdata$r	SEGMENT
??_R4CPersonalRoomGame@@6BIPersonalRoomItem@@@ DD 00H	; CPersonalRoomGame::`RTTI Complete Object Locator'
	DD	00H
	DD	00H
	DD	FLAT:??_R0?AVCPersonalRoomGame@@@8
	DD	FLAT:??_R3CPersonalRoomGame@@8
rdata$r	ENDS
;	COMDAT ??_R1A@?0A@EA@?$CWHArray@PAUtagPersonalTableParameter@@ABQAU1@@@8
rdata$r	SEGMENT
??_R1A@?0A@EA@?$CWHArray@PAUtagPersonalTableParameter@@ABQAU1@@@8 DD FLAT:??_R0?AV?$CWHArray@PAUtagPersonalTableParameter@@ABQAU1@@@@8 ; CWHArray<tagPersonalTableParameter *,tagPersonalTableParameter * const &>::`RTTI Base Class Descriptor at (0,-1,0,64)'
	DD	00H
	DD	00H
	DD	0ffffffffH
	DD	00H
	DD	040H
	DD	FLAT:??_R3?$CWHArray@PAUtagPersonalTableParameter@@ABQAU1@@@8
rdata$r	ENDS
;	COMDAT ??_R2?$CWHArray@PAUtagPersonalTableParameter@@ABQAU1@@@8
rdata$r	SEGMENT
??_R2?$CWHArray@PAUtagPersonalTableParameter@@ABQAU1@@@8 DD FLAT:??_R1A@?0A@EA@?$CWHArray@PAUtagPersonalTableParameter@@ABQAU1@@@8 ; CWHArray<tagPersonalTableParameter *,tagPersonalTableParameter * const &>::`RTTI Base Class Array'
rdata$r	ENDS
;	COMDAT ??_R3?$CWHArray@PAUtagPersonalTableParameter@@ABQAU1@@@8
rdata$r	SEGMENT
??_R3?$CWHArray@PAUtagPersonalTableParameter@@ABQAU1@@@8 DD 00H ; CWHArray<tagPersonalTableParameter *,tagPersonalTableParameter * const &>::`RTTI Class Hierarchy Descriptor'
	DD	00H
	DD	01H
	DD	FLAT:??_R2?$CWHArray@PAUtagPersonalTableParameter@@ABQAU1@@@8
rdata$r	ENDS
;	COMDAT ??_R0?AV?$CWHArray@PAUtagPersonalTableParameter@@ABQAU1@@@@8
data$r	SEGMENT
??_R0?AV?$CWHArray@PAUtagPersonalTableParameter@@ABQAU1@@@@8 DD FLAT:??_7type_info@@6B@ ; CWHArray<tagPersonalTableParameter *,tagPersonalTableParameter * const &> `RTTI Type Descriptor'
	DD	00H
	DB	'.?AV?$CWHArray@PAUtagPersonalTableParameter@@ABQAU1@@@', 00H
data$r	ENDS
;	COMDAT ??_R4?$CWHArray@PAUtagPersonalTableParameter@@ABQAU1@@@6B@
rdata$r	SEGMENT
??_R4?$CWHArray@PAUtagPersonalTableParameter@@ABQAU1@@@6B@ DD 00H ; CWHArray<tagPersonalTableParameter *,tagPersonalTableParameter * const &>::`RTTI Complete Object Locator'
	DD	00H
	DD	00H
	DD	FLAT:??_R0?AV?$CWHArray@PAUtagPersonalTableParameter@@ABQAU1@@@@8
	DD	FLAT:??_R3?$CWHArray@PAUtagPersonalTableParameter@@ABQAU1@@@8
rdata$r	ENDS
;	COMDAT ??_R1A@?0A@EA@IPersonalRoomEventSink@@8
rdata$r	SEGMENT
??_R1A@?0A@EA@IPersonalRoomEventSink@@8 DD FLAT:??_R0?AUIPersonalRoomEventSink@@@8 ; IPersonalRoomEventSink::`RTTI Base Class Descriptor at (0,-1,0,64)'
	DD	01H
	DD	00H
	DD	0ffffffffH
	DD	00H
	DD	040H
	DD	FLAT:??_R3IPersonalRoomEventSink@@8
rdata$r	ENDS
;	COMDAT ??_R2IPersonalRoomEventSink@@8
rdata$r	SEGMENT
??_R2IPersonalRoomEventSink@@8 DD FLAT:??_R1A@?0A@EA@IPersonalRoomEventSink@@8 ; IPersonalRoomEventSink::`RTTI Base Class Array'
	DD	FLAT:??_R1A@?0A@EA@IUnknownEx@@8
rdata$r	ENDS
;	COMDAT ??_R3IPersonalRoomEventSink@@8
rdata$r	SEGMENT
??_R3IPersonalRoomEventSink@@8 DD 00H			; IPersonalRoomEventSink::`RTTI Class Hierarchy Descriptor'
	DD	00H
	DD	02H
	DD	FLAT:??_R2IPersonalRoomEventSink@@8
rdata$r	ENDS
;	COMDAT ??_R0?AUIPersonalRoomEventSink@@@8
data$r	SEGMENT
??_R0?AUIPersonalRoomEventSink@@@8 DD FLAT:??_7type_info@@6B@ ; IPersonalRoomEventSink `RTTI Type Descriptor'
	DD	00H
	DB	'.?AUIPersonalRoomEventSink@@', 00H
data$r	ENDS
;	COMDAT ??_R4IPersonalRoomEventSink@@6B@
rdata$r	SEGMENT
??_R4IPersonalRoomEventSink@@6B@ DD 00H			; IPersonalRoomEventSink::`RTTI Complete Object Locator'
	DD	00H
	DD	00H
	DD	FLAT:??_R0?AUIPersonalRoomEventSink@@@8
	DD	FLAT:??_R3IPersonalRoomEventSink@@8
rdata$r	ENDS
;	COMDAT ??_R1A@?0A@EA@IPersonalRoomItem@@8
rdata$r	SEGMENT
??_R1A@?0A@EA@IPersonalRoomItem@@8 DD FLAT:??_R0?AUIPersonalRoomItem@@@8 ; IPersonalRoomItem::`RTTI Base Class Descriptor at (0,-1,0,64)'
	DD	01H
	DD	00H
	DD	0ffffffffH
	DD	00H
	DD	040H
	DD	FLAT:??_R3IPersonalRoomItem@@8
rdata$r	ENDS
;	COMDAT ??_R2IPersonalRoomItem@@8
rdata$r	SEGMENT
??_R2IPersonalRoomItem@@8 DD FLAT:??_R1A@?0A@EA@IPersonalRoomItem@@8 ; IPersonalRoomItem::`RTTI Base Class Array'
	DD	FLAT:??_R1A@?0A@EA@IUnknownEx@@8
rdata$r	ENDS
;	COMDAT ??_R3IPersonalRoomItem@@8
rdata$r	SEGMENT
??_R3IPersonalRoomItem@@8 DD 00H			; IPersonalRoomItem::`RTTI Class Hierarchy Descriptor'
	DD	00H
	DD	02H
	DD	FLAT:??_R2IPersonalRoomItem@@8
rdata$r	ENDS
;	COMDAT ??_R0?AUIPersonalRoomItem@@@8
data$r	SEGMENT
??_R0?AUIPersonalRoomItem@@@8 DD FLAT:??_7type_info@@6B@ ; IPersonalRoomItem `RTTI Type Descriptor'
	DD	00H
	DB	'.?AUIPersonalRoomItem@@', 00H
data$r	ENDS
;	COMDAT ??_R4IPersonalRoomItem@@6B@
rdata$r	SEGMENT
??_R4IPersonalRoomItem@@6B@ DD 00H			; IPersonalRoomItem::`RTTI Complete Object Locator'
	DD	00H
	DD	00H
	DD	FLAT:??_R0?AUIPersonalRoomItem@@@8
	DD	FLAT:??_R3IPersonalRoomItem@@8
rdata$r	ENDS
;	COMDAT ??_R1A@?0A@EA@IServerUserItemSink@@8
rdata$r	SEGMENT
??_R1A@?0A@EA@IServerUserItemSink@@8 DD FLAT:??_R0?AUIServerUserItemSink@@@8 ; IServerUserItemSink::`RTTI Base Class Descriptor at (0,-1,0,64)'
	DD	01H
	DD	00H
	DD	0ffffffffH
	DD	00H
	DD	040H
	DD	FLAT:??_R3IServerUserItemSink@@8
rdata$r	ENDS
;	COMDAT ??_R2IServerUserItemSink@@8
rdata$r	SEGMENT
??_R2IServerUserItemSink@@8 DD FLAT:??_R1A@?0A@EA@IServerUserItemSink@@8 ; IServerUserItemSink::`RTTI Base Class Array'
	DD	FLAT:??_R1A@?0A@EA@IUnknownEx@@8
rdata$r	ENDS
;	COMDAT ??_R3IServerUserItemSink@@8
rdata$r	SEGMENT
??_R3IServerUserItemSink@@8 DD 00H			; IServerUserItemSink::`RTTI Class Hierarchy Descriptor'
	DD	00H
	DD	02H
	DD	FLAT:??_R2IServerUserItemSink@@8
rdata$r	ENDS
;	COMDAT ??_R0?AUIServerUserItemSink@@@8
data$r	SEGMENT
??_R0?AUIServerUserItemSink@@@8 DD FLAT:??_7type_info@@6B@ ; IServerUserItemSink `RTTI Type Descriptor'
	DD	00H
	DB	'.?AUIServerUserItemSink@@', 00H
data$r	ENDS
;	COMDAT ??_R4IServerUserItemSink@@6B@
rdata$r	SEGMENT
??_R4IServerUserItemSink@@6B@ DD 00H			; IServerUserItemSink::`RTTI Complete Object Locator'
	DD	00H
	DD	00H
	DD	FLAT:??_R0?AUIServerUserItemSink@@@8
	DD	FLAT:??_R3IServerUserItemSink@@8
rdata$r	ENDS
;	COMDAT ??_R1A@?0A@EA@IUnknownEx@@8
rdata$r	SEGMENT
??_R1A@?0A@EA@IUnknownEx@@8 DD FLAT:??_R0?AUIUnknownEx@@@8 ; IUnknownEx::`RTTI Base Class Descriptor at (0,-1,0,64)'
	DD	00H
	DD	00H
	DD	0ffffffffH
	DD	00H
	DD	040H
	DD	FLAT:??_R3IUnknownEx@@8
rdata$r	ENDS
;	COMDAT ??_R2IUnknownEx@@8
rdata$r	SEGMENT
??_R2IUnknownEx@@8 DD FLAT:??_R1A@?0A@EA@IUnknownEx@@8	; IUnknownEx::`RTTI Base Class Array'
rdata$r	ENDS
;	COMDAT ??_R3IUnknownEx@@8
rdata$r	SEGMENT
??_R3IUnknownEx@@8 DD 00H				; IUnknownEx::`RTTI Class Hierarchy Descriptor'
	DD	00H
	DD	01H
	DD	FLAT:??_R2IUnknownEx@@8
rdata$r	ENDS
;	COMDAT ??_R0?AUIUnknownEx@@@8
data$r	SEGMENT
??_R0?AUIUnknownEx@@@8 DD FLAT:??_7type_info@@6B@	; IUnknownEx `RTTI Type Descriptor'
	DD	00H
	DB	'.?AUIUnknownEx@@', 00H
data$r	ENDS
;	COMDAT ??_R4IUnknownEx@@6B@
rdata$r	SEGMENT
??_R4IUnknownEx@@6B@ DD 00H				; IUnknownEx::`RTTI Complete Object Locator'
	DD	00H
	DD	00H
	DD	FLAT:??_R0?AUIUnknownEx@@@8
	DD	FLAT:??_R3IUnknownEx@@8
rdata$r	ENDS
;	COMDAT ??_C@_0DF@LDFGAABH@g?3?2?M?x?$LK?$PM?2happygamewh?2?$LH?$PO?N?q?$LG?K?2?O?$LF?M?$LD@
CONST	SEGMENT
??_C@_0DF@LDFGAABH@g?3?2?M?x?$LK?$PM?2happygamewh?2?$LH?$PO?N?q?$LG?K?2?O?$LF?M?$LD@ DB 'g'
	DB	':\', 0cdH, 0f8H, 0baH, 0fcH, '\happygamewh\', 0b7H, 0feH, 0ceH
	DB	0f1H, 0b6H, 0cbH, '\', 0cfH, 0b5H, 0cdH, 0b3H, 0c4H, 0a3H, 0bfH
	DB	0e9H, '\', 0c8H, 0abH, 0beH, 0d6H, 0b6H, 0a8H, 0d2H, 0e5H, '\a'
	DB	'rray.h', 00H				; `string'
CONST	ENDS
;	COMDAT ??_C@_0BF@OAHKEPFP@?$LE?$LE?$LN?$KI?$LH?$LP?$LM?d?$LC?N?J?$PN?$LC?$LL?U?$PN?H?$LH?$KD?$KB@
CONST	SEGMENT
??_C@_0BF@OAHKEPFP@?$LE?$LE?$LN?$KI?$LH?$LP?$LM?d?$LC?N?J?$PN?$LC?$LL?U?$PN?H?$LH?$KD?$KB@ DB 0b4H
	DB	0b4H, 0bdH, 0a8H, 0b7H, 0bfH, 0bcH, 0e4H, 0b2H, 0ceH, 0caH, 0fdH
	DB	0b2H, 0bbH, 0d5H, 0fdH, 0c8H, 0b7H, 0a3H, 0a1H, 00H ; `string'
CONST	ENDS
;	COMDAT ?__LINE__Var@?0??OnTCPSocketMainServiceInfo@CPersonalRoomGame@@UAE_NGPAXG@Z@4JA
_DATA	SEGMENT
?__LINE__Var@?0??OnTCPSocketMainServiceInfo@CPersonalRoomGame@@UAE_NGPAXG@Z@4JA DD 0576H ; `CPersonalRoomGame::OnTCPSocketMainServiceInfo'::`1'::__LINE__Var
_DATA	ENDS
;	COMDAT ??_C@_0CJ@IPIKOHBH@?T?$LM?U?$LN?$LJ?f?$LG?$KI?$LP?$KK?J?$LM?J?$LB?$LM?d?$LF?$LN?N?$LE?$LP?$KK?J?$LM?S?N?O?$LH?$KD?$KM?S@
CONST	SEGMENT
??_C@_0CJ@IPIKOHBH@?T?$LM?U?$LN?$LJ?f?$LG?$KI?$LP?$KK?J?$LM?J?$LB?$LM?d?$LF?$LN?N?$LE?$LP?$KK?J?$LM?S?N?O?$LH?$KD?$KM?S@ DB 0d4H
	DB	0bcH, 0d5H, 0bdH, 0b9H, 0e6H, 0b6H, 0a8H, 0bfH, 0aaH, 0caH, 0bcH
	DB	0caH, 0b1H, 0bcH, 0e4H, 0b5H, 0bdH, 0ceH, 0b4H, 0bfH, 0aaH, 0caH
	DB	0bcH, 0d3H, 0ceH, 0cfH, 0b7H, 0a3H, 0acH, 0d3H, 0ceH, 0cfH, 0b7H
	DB	0bdH, 0e2H, 0c9H, 0a2H, 0a1H, 0a3H, 00H	; `string'
CONST	ENDS
;	COMDAT ??_C@_0BF@BBCEPGNP@?S?N?O?$LH?$LD?$KM?J?$LB?$KD?$KM?S?N?O?$LH?$LN?b?I?$KC?$KB?$KD@
CONST	SEGMENT
??_C@_0BF@BBCEPGNP@?S?N?O?$LH?$LD?$KM?J?$LB?$KD?$KM?S?N?O?$LH?$LN?b?I?$KC?$KB?$KD@ DB 0d3H
	DB	0ceH, 0cfH, 0b7H, 0b3H, 0acH, 0caH, 0b1H, 0a3H, 0acH, 0d3H, 0ceH
	DB	0cfH, 0b7H, 0bdH, 0e2H, 0c9H, 0a2H, 0a1H, 0a3H, 00H ; `string'
CONST	ENDS
;	COMDAT ??_C@_0CD@JHECHKJE@?$LH?$LP?V?w?M?K?$LD?v?S?N?O?$LH?$LL?r?S?N?O?$LH?$LD?$KM?J?$LB?$KD?$KM?S?N?O?$LH?$LN?b?I@
CONST	SEGMENT
??_C@_0CD@JHECHKJE@?$LH?$LP?V?w?M?K?$LD?v?S?N?O?$LH?$LL?r?S?N?O?$LH?$LD?$KM?J?$LB?$KD?$KM?S?N?O?$LH?$LN?b?I@ DB 0b7H
	DB	0bfH, 0d6H, 0f7H, 0cdH, 0cbH, 0b3H, 0f6H, 0d3H, 0ceH, 0cfH, 0b7H
	DB	0bbH, 0f2H, 0d3H, 0ceH, 0cfH, 0b7H, 0b3H, 0acH, 0caH, 0b1H, 0a3H
	DB	0acH, 0d3H, 0ceH, 0cfH, 0b7H, 0bdH, 0e2H, 0c9H, 0a2H, 0a1H, 0a3H
	DB	00H						; `string'
CONST	ENDS
;	COMDAT ??_C@_0BL@EKGKFEBG@?S?N?O?$LH?N?$LE?$LP?$KK?J?$LM?$KD?$KM?S?N?O?$LH?W?T?$LG?$KP?$LN?b?I?$KC?$KB?$KD@
CONST	SEGMENT
??_C@_0BL@EKGKFEBG@?S?N?O?$LH?N?$LE?$LP?$KK?J?$LM?$KD?$KM?S?N?O?$LH?W?T?$LG?$KP?$LN?b?I?$KC?$KB?$KD@ DB 0d3H
	DB	0ceH, 0cfH, 0b7H, 0ceH, 0b4H, 0bfH, 0aaH, 0caH, 0bcH, 0a3H, 0acH
	DB	0d3H, 0ceH, 0cfH, 0b7H, 0d7H, 0d4H, 0b6H, 0afH, 0bdH, 0e2H, 0c9H
	DB	0a2H, 0a1H, 0a3H, 00H			; `string'
CONST	ENDS
;	COMDAT ??_C@_0P@LGKLJHBF@?S?N?O?$LH?W?T?$LG?$KP?$LN?b?I?$KC?$KB?$KD@
CONST	SEGMENT
??_C@_0P@LGKLJHBF@?S?N?O?$LH?W?T?$LG?$KP?$LN?b?I?$KC?$KB?$KD@ DB 0d3H, 0ceH
	DB	0cfH, 0b7H, 0d7H, 0d4H, 0b6H, 0afH, 0bdH, 0e2H, 0c9H, 0a2H, 0a1H
	DB	0a3H, 00H					; `string'
CONST	ENDS
;	COMDAT ?__LINE__Var@?0??OnDBCancelCreateTable@CPersonalRoomGame@@IAE_NKPAXGPAUIServerUserItem@@@Z@4JA
_DATA	SEGMENT
?__LINE__Var@?0??OnDBCancelCreateTable@CPersonalRoomGame@@IAE_NKPAXGPAUIServerUserItem@@@Z@4JA DD 051fH ; `CPersonalRoomGame::OnDBCancelCreateTable'::`1'::__LINE__Var
_DATA	ENDS
;	COMDAT ?__LINE__Var@?0??OnDBCreateFailure@CPersonalRoomGame@@IAE_NKPAXGPAUIServerUserItem@@@Z@4JA
_DATA	SEGMENT
?__LINE__Var@?0??OnDBCreateFailure@CPersonalRoomGame@@IAE_NKPAXGPAUIServerUserItem@@@Z@4JA DD 04f9H ; `CPersonalRoomGame::OnDBCreateFailure'::`1'::__LINE__Var
_DATA	ENDS
;	COMDAT ??_C@_0BB@LPANEFD@?$LE?$LE?$LN?$KI?W?$MA?W?S?W?x?O?B?J?$KH?$LA?$NM@
CONST	SEGMENT
??_C@_0BB@LPANEFD@?$LE?$LE?$LN?$KI?W?$MA?W?S?W?x?O?B?J?$KH?$LA?$NM@ DB 0b4H
	DB	0b4H, 0bdH, 0a8H, 0d7H, 0c0H, 0d7H, 0d3H, 0d7H, 0f8H, 0cfH, 0c2H
	DB	0caH, 0a7H, 0b0H, 0dcH, 00H			; `string'
CONST	ENDS
;	COMDAT ??_C@_0BB@JFMJGBEP@?$CFd?$CFd?$CFd?$CFd?$CFd?$CFd?$CFd?$CFd@
CONST	SEGMENT
??_C@_0BB@JFMJGBEP@?$CFd?$CFd?$CFd?$CFd?$CFd?$CFd?$CFd?$CFd@ DB '%d%d%d%d'
	DB	'%d%d%d%d', 00H				; `string'
CONST	ENDS
;	COMDAT ?__LINE__Var@?0??OnDBCreateSucess@CPersonalRoomGame@@IAE_NKPAXGPAUIServerUserItem@@@Z@4JA
_DATA	SEGMENT
?__LINE__Var@?0??OnDBCreateSucess@CPersonalRoomGame@@IAE_NKPAXGPAUIServerUserItem@@@Z@4JA DD 03d4H ; `CPersonalRoomGame::OnDBCreateSucess'::`1'::__LINE__Var
_DATA	ENDS
;	COMDAT ?__LINE__Var@?0??OnDBLoadPersonalParameter@CPersonalRoomGame@@IAE_NKPAXGPAUIServerUserItem@@@Z@4JA
_DATA	SEGMENT
?__LINE__Var@?0??OnDBLoadPersonalParameter@CPersonalRoomGame@@IAE_NKPAXGPAUIServerUserItem@@@Z@4JA DD 03b1H ; `CPersonalRoomGame::OnDBLoadPersonalParameter'::`1'::__LINE__Var
_DATA	ENDS
;	COMDAT ?__LINE__Var@?0??OnDBDissumeTableResult@CPersonalRoomGame@@IAE_NKPAXGPAUIServerUserItem@@@Z@4JA
_DATA	SEGMENT
?__LINE__Var@?0??OnDBDissumeTableResult@CPersonalRoomGame@@IAE_NKPAXGPAUIServerUserItem@@@Z@4JA DD 0398H ; `CPersonalRoomGame::OnDBDissumeTableResult'::`1'::__LINE__Var
_DATA	ENDS
;	COMDAT ?__LINE__Var@?0??OnDBCurrenceRoomCardAndBeant@CPersonalRoomGame@@IAE_NKPAXGPAUIServerUserItem@@@Z@4JA
_DATA	SEGMENT
?__LINE__Var@?0??OnDBCurrenceRoomCardAndBeant@CPersonalRoomGame@@IAE_NKPAXGPAUIServerUserItem@@@Z@4JA DD 0371H ; `CPersonalRoomGame::OnDBCurrenceRoomCardAndBeant'::`1'::__LINE__Var
_DATA	ENDS
;	COMDAT ?__LINE__Var@?0??OnTCPNetworkSubQueryJoinInfo@CPersonalRoomGame@@IAE_NPAXGKPAUIServerUserItem@@@Z@4JA
_DATA	SEGMENT
?__LINE__Var@?0??OnTCPNetworkSubQueryJoinInfo@CPersonalRoomGame@@IAE_NPAXGKPAUIServerUserItem@@@Z@4JA DD 0349H ; `CPersonalRoomGame::OnTCPNetworkSubQueryJoinInfo'::`1'::__LINE__Var
_DATA	ENDS
;	COMDAT ?__LINE__Var@?0??OnTCPNetworkSubHostDissumeTable@CPersonalRoomGame@@IAE_NPAXGKPAUIServerUserItem@@@Z@4JA
_DATA	SEGMENT
?__LINE__Var@?0??OnTCPNetworkSubHostDissumeTable@CPersonalRoomGame@@IAE_NPAXGKPAUIServerUserItem@@@Z@4JA DD 0304H ; `CPersonalRoomGame::OnTCPNetworkSubHostDissumeTable'::`1'::__LINE__Var
_DATA	ENDS
;	COMDAT ?__LINE__Var@?0??OnTCPNetworkSubRequestReply@CPersonalRoomGame@@IAE_NPAXGKPAUIServerUserItem@@@Z@4JA
_DATA	SEGMENT
?__LINE__Var@?0??OnTCPNetworkSubRequestReply@CPersonalRoomGame@@IAE_NPAXGKPAUIServerUserItem@@@Z@4JA DD 02d8H ; `CPersonalRoomGame::OnTCPNetworkSubRequestReply'::`1'::__LINE__Var
_DATA	ENDS
;	COMDAT ?__LINE__Var@?0??OnTCPNetworkSubCancelRequest@CPersonalRoomGame@@IAE_NPAXGKPAUIServerUserItem@@@Z@4JA
_DATA	SEGMENT
?__LINE__Var@?0??OnTCPNetworkSubCancelRequest@CPersonalRoomGame@@IAE_NPAXGKPAUIServerUserItem@@@Z@4JA DD 02a1H ; `CPersonalRoomGame::OnTCPNetworkSubCancelRequest'::`1'::__LINE__Var
_DATA	ENDS
;	COMDAT ??_C@_0CF@DJFGALCD@?D?$LP?G?$LA?$LI?C?S?N?O?$LH?T?$LM?U?$LN?$LH?$LP?$LM?d?R?Q?B?z?$KD?$KM?G?k?I?T?$LK?s?T@
CONST	SEGMENT
??_C@_0CF@DJFGALCD@?D?$LP?G?$LA?$LI?C?S?N?O?$LH?T?$LM?U?$LN?$LH?$LP?$LM?d?R?Q?B?z?$KD?$KM?G?k?I?T?$LK?s?T@ DB 0c4H
	DB	0bfH, 0c7H, 0b0H, 0b8H, 0c3H, 0d3H, 0ceH, 0cfH, 0b7H, 0d4H, 0bcH
	DB	0d5H, 0bdH, 0b7H, 0bfH, 0bcH, 0e4H, 0d2H, 0d1H, 0c2H, 0faH, 0a3H
	DB	0acH, 0c7H, 0ebH, 0c9H, 0d4H, 0baH, 0f3H, 0d4H, 0d9H, 0caH, 0d4H
	DB	0a3H, 0a1H, 00H				; `string'
CONST	ENDS
;	COMDAT ??_C@_0CF@BENLJJPJ@?M?f?$LM?R?U?$PN?T?Z?T?$LM?U?$LN?$LH?$LP?S?N?O?$LH?V?P?$KD?$KM?$LC?$LL?D?$NM?$LE?$LE?$LN?$KI?$LH@
CONST	SEGMENT
??_C@_0CF@BENLJJPJ@?M?f?$LM?R?U?$PN?T?Z?T?$LM?U?$LN?$LH?$LP?S?N?O?$LH?V?P?$KD?$KM?$LC?$LL?D?$NM?$LE?$LE?$LN?$KI?$LH@ DB 0cdH
	DB	0e6H, 0bcH, 0d2H, 0d5H, 0fdH, 0d4H, 0daH, 0d4H, 0bcH, 0d5H, 0bdH
	DB	0b7H, 0bfH, 0d3H, 0ceH, 0cfH, 0b7H, 0d6H, 0d0H, 0a3H, 0acH, 0b2H
	DB	0bbH, 0c4H, 0dcH, 0b4H, 0b4H, 0bdH, 0a8H, 0b7H, 0bfH, 0bcH, 0e4H
	DB	0a3H, 0a1H, 00H				; `string'
CONST	ENDS
;	COMDAT ?__LINE__Var@?0??OnTCPNetworkSubCreateTable@CPersonalRoomGame@@IAE_NPAXGKPAUIServerUserItem@@@Z@4JA
_DATA	SEGMENT
?__LINE__Var@?0??OnTCPNetworkSubCreateTable@CPersonalRoomGame@@IAE_NPAXGKPAUIServerUserItem@@@Z@4JA DD 0254H ; `CPersonalRoomGame::OnTCPNetworkSubCreateTable'::`1'::__LINE__Var
_DATA	ENDS
;	COMDAT ??_C@_0L@INAKIJJF@?T?$LM?U?$LN?$LN?a?J?x?$KB?$KD@
CONST	SEGMENT
??_C@_0L@INAKIJJF@?T?$LM?U?$LN?$LN?a?J?x?$KB?$KD@ DB 0d4H, 0bcH, 0d5H, 0bdH
	DB	0bdH, 0e1H, 0caH, 0f8H, 0a1H, 0a3H, 00H	; `string'
CONST	ENDS
;	COMDAT ?__LINE__Var@?0??OnEventUserItemScore@CPersonalRoomGame@@UAE_NPAUIServerUserItem@@E@Z@4JA
_DATA	SEGMENT
?__LINE__Var@?0??OnEventUserItemScore@CPersonalRoomGame@@UAE_NPAUIServerUserItem@@E@Z@4JA DD 0d2H ; `CPersonalRoomGame::OnEventUserItemScore'::`1'::__LINE__Var
_DATA	ENDS
;	COMDAT ?__LINE__Var@?0??BindTableFrame@CPersonalRoomGame@@UAE_NPAUITableFrame@@G@Z@4JA
_DATA	SEGMENT
?__LINE__Var@?0??BindTableFrame@CPersonalRoomGame@@UAE_NPAUITableFrame@@G@Z@4JA DD 050H ; `CPersonalRoomGame::BindTableFrame'::`1'::__LINE__Var
_DATA	ENDS
;	COMDAT ??_C@_0EN@PBHPFOKJ@g?3?2?M?x?$LK?$PM?2happygamewh?2?$LH?$PO?N?q?$LG?K?2?O?$LF?M?$LD@
CONST	SEGMENT
??_C@_0EN@PBHPFOKJ@g?3?2?M?x?$LK?$PM?2happygamewh?2?$LH?$PO?N?q?$LG?K?2?O?$LF?M?$LD@ DB 'g'
	DB	':\', 0cdH, 0f8H, 0baH, 0fcH, '\happygamewh\', 0b7H, 0feH, 0ceH
	DB	0f1H, 0b6H, 0cbH, '\', 0cfH, 0b5H, 0cdH, 0b3H, 0c4H, 0a3H, 0bfH
	DB	0e9H, '\', 0b7H, 0feH, 0ceH, 0f1H, 0c6H, 0f7H, 0d7H, 0e9H, 0bcH
	DB	0feH, '\', 0d4H, 0bcH, 0d5H, 0bdH, 0b7H, 0feH, 0ceH, 0f1H, '\p'
	DB	'ersonalroomgame.cpp', 00H			; `string'
CONST	ENDS
;	COMDAT ?__LINE__Var@?0???1CPersonalRoomGame@@UAE@XZ@4JA
_DATA	SEGMENT
?__LINE__Var@?0???1CPersonalRoomGame@@UAE@XZ@4JA DD 032H ; `CPersonalRoomGame::~CPersonalRoomGame'::`1'::__LINE__Var
_DATA	ENDS
;	COMDAT ??_7CPersonalRoomGame@@6BIServerUserItemSink@@@
CONST	SEGMENT
??_7CPersonalRoomGame@@6BIServerUserItemSink@@@ DD FLAT:??_R4CPersonalRoomGame@@6BIServerUserItemSink@@@ ; CPersonalRoomGame::`vftable'
	DD	FLAT:?Release@CPersonalRoomGame@@W7AEXXZ
	DD	FLAT:?QueryInterface@CPersonalRoomGame@@W7AEPAXABU_GUID@@K@Z
	DD	FLAT:?OnEventUserItemScore@CPersonalRoomGame@@UAE_NPAUIServerUserItem@@E@Z
	DD	FLAT:?OnEventUserItemGameData@CPersonalRoomGame@@UAE_NPAUIServerUserItem@@E@Z
	DD	FLAT:?OnEventUserItemStatus@CPersonalRoomGame@@UAE_NPAUIServerUserItem@@GG@Z
	DD	FLAT:?OnEventUserItemRight@CPersonalRoomGame@@UAE_NPAUIServerUserItem@@KKE@Z
CONST	ENDS
;	COMDAT ??_7CPersonalRoomGame@@6BIPersonalRoomEventSink@@@
CONST	SEGMENT
??_7CPersonalRoomGame@@6BIPersonalRoomEventSink@@@ DD FLAT:??_R4CPersonalRoomGame@@6BIPersonalRoomEventSink@@@ ; CPersonalRoomGame::`vftable'
	DD	FLAT:?Release@CPersonalRoomGame@@W3AEXXZ
	DD	FLAT:?QueryInterface@CPersonalRoomGame@@W3AEPAXABU_GUID@@K@Z
	DD	FLAT:?OnEventGameStart@CPersonalRoomGame@@UAE_NPAUITableFrame@@G@Z
	DD	FLAT:?PersonalRoomWriteJoinInfo@CPersonalRoomGame@@UAEXKGGKKPAD@Z
	DD	FLAT:?PersonalPayRoomCard@CPersonalRoomGame@@UAE_NKGGK@Z
	DD	FLAT:?OnEventGameEnd@CPersonalRoomGame@@UAE_NGGKAAKHPAEU_SYSTEMTIME@@PAUtagPersonalUserScoreInfo@@HE@Z
	DD	FLAT:?OnEventGameEnd@CPersonalRoomGame@@UAE_NPAUITableFrame@@GPAUIServerUserItem@@E@Z
	DD	FLAT:?OnEventUserReturnMatch@CPersonalRoomGame@@UAE_NPAUITableFrame@@PAUIServerUserItem@@@Z
	DD	FLAT:?OnActionUserSitDown@CPersonalRoomGame@@UAE_NGGPAUIServerUserItem@@_N@Z
	DD	FLAT:?OnActionUserStandUp@CPersonalRoomGame@@UAE_NGGPAUIServerUserItem@@_N@Z
	DD	FLAT:?OnActionUserOnReady@CPersonalRoomGame@@UAE_NGGPAUIServerUserItem@@PAXG@Z
CONST	ENDS
;	COMDAT ??_7CPersonalRoomGame@@6BIPersonalRoomItem@@@
CONST	SEGMENT
??_7CPersonalRoomGame@@6BIPersonalRoomItem@@@ DD FLAT:??_R4CPersonalRoomGame@@6BIPersonalRoomItem@@@ ; CPersonalRoomGame::`vftable'
	DD	FLAT:?Release@CPersonalRoomGame@@UAEXXZ
	DD	FLAT:?QueryInterface@CPersonalRoomGame@@UAEPAXABU_GUID@@K@Z
	DD	FLAT:?OnStartService@CPersonalRoomGame@@UAEXXZ
	DD	FLAT:?BindTableFrame@CPersonalRoomGame@@UAE_NPAUITableFrame@@G@Z
	DD	FLAT:?InitPersonalRooomInterface@CPersonalRoomGame@@UAE_NAAUtagPersonalRoomManagerParameter@@@Z
	DD	FLAT:?OnEventTimer@CPersonalRoomGame@@UAE_NKI@Z
	DD	FLAT:?OnEventDataBase@CPersonalRoomGame@@UAE_NGPAUIServerUserItem@@PAXGK@Z
	DD	FLAT:?OnEventSocketPersonalRoom@CPersonalRoomGame@@UAE_NGPAXGPAUIServerUserItem@@K@Z
	DD	FLAT:?OnTCPSocketMainServiceInfo@CPersonalRoomGame@@UAE_NGPAXG@Z
	DD	FLAT:?OnEventUserLogon@CPersonalRoomGame@@UAE_NPAUIServerUserItem@@@Z
	DD	FLAT:?OnEventUserLogout@CPersonalRoomGame@@UAE_NPAUIServerUserItem@@@Z
	DD	FLAT:?OnEventUserLogonFinish@CPersonalRoomGame@@UAE_NPAUIServerUserItem@@@Z
	DD	FLAT:??_ECPersonalRoomGame@@UAEPAXI@Z
CONST	ENDS
;	COMDAT ??_7?$CWHArray@PAUtagPersonalTableParameter@@ABQAU1@@@6B@
CONST	SEGMENT
??_7?$CWHArray@PAUtagPersonalTableParameter@@ABQAU1@@@6B@ DD FLAT:??_R4?$CWHArray@PAUtagPersonalTableParameter@@ABQAU1@@@6B@ ; CWHArray<tagPersonalTableParameter *,tagPersonalTableParameter * const &>::`vftable'
	DD	FLAT:??_E?$CWHArray@PAUtagPersonalTableParameter@@ABQAU1@@@UAEPAXI@Z
CONST	ENDS
;	COMDAT ??_7IPersonalRoomEventSink@@6B@
CONST	SEGMENT
??_7IPersonalRoomEventSink@@6B@ DD FLAT:??_R4IPersonalRoomEventSink@@6B@ ; IPersonalRoomEventSink::`vftable'
	DD	FLAT:__purecall
	DD	FLAT:__purecall
	DD	FLAT:__purecall
	DD	FLAT:__purecall
	DD	FLAT:__purecall
	DD	FLAT:__purecall
	DD	FLAT:__purecall
	DD	FLAT:__purecall
	DD	FLAT:__purecall
	DD	FLAT:__purecall
	DD	FLAT:__purecall
CONST	ENDS
;	COMDAT ??_7IPersonalRoomItem@@6B@
CONST	SEGMENT
??_7IPersonalRoomItem@@6B@ DD FLAT:??_R4IPersonalRoomItem@@6B@ ; IPersonalRoomItem::`vftable'
	DD	FLAT:__purecall
	DD	FLAT:__purecall
	DD	FLAT:__purecall
	DD	FLAT:__purecall
	DD	FLAT:__purecall
	DD	FLAT:__purecall
	DD	FLAT:__purecall
	DD	FLAT:__purecall
	DD	FLAT:__purecall
	DD	FLAT:__purecall
	DD	FLAT:__purecall
	DD	FLAT:__purecall
CONST	ENDS
;	COMDAT ??_7IServerUserItemSink@@6B@
CONST	SEGMENT
??_7IServerUserItemSink@@6B@ DD FLAT:??_R4IServerUserItemSink@@6B@ ; IServerUserItemSink::`vftable'
	DD	FLAT:__purecall
	DD	FLAT:__purecall
	DD	FLAT:__purecall
	DD	FLAT:__purecall
	DD	FLAT:__purecall
	DD	FLAT:__purecall
CONST	ENDS
;	COMDAT ??_7IUnknownEx@@6B@
CONST	SEGMENT
??_7IUnknownEx@@6B@ DD FLAT:??_R4IUnknownEx@@6B@	; IUnknownEx::`vftable'
	DD	FLAT:__purecall
	DD	FLAT:__purecall
CONST	ENDS
;	COMDAT ??_C@_02DKCKIIND@?$CFs@
CONST	SEGMENT
??_C@_02DKCKIIND@?$CFs@ DB '%s', 00H			; `string'
CONST	ENDS
;	COMDAT xdata$x
xdata$x	SEGMENT
__catchsym$?OnDBLoadPersonalParameter@CPersonalRoomGame@@IAE_NKPAXGPAUIServerUserItem@@@Z$2 DD 040H
	DD	00H
	DD	00H
	DD	FLAT:__catch$?OnDBLoadPersonalParameter@CPersonalRoomGame@@IAE_NKPAXGPAUIServerUserItem@@@Z$0
__unwindtable$?OnDBLoadPersonalParameter@CPersonalRoomGame@@IAE_NKPAXGPAUIServerUserItem@@@Z DD 0ffffffffH
	DD	00H
	DD	0ffffffffH
	DD	00H
__tryblocktable$?OnDBLoadPersonalParameter@CPersonalRoomGame@@IAE_NKPAXGPAUIServerUserItem@@@Z DD 00H
	DD	00H
	DD	01H
	DD	01H
	DD	FLAT:__catchsym$?OnDBLoadPersonalParameter@CPersonalRoomGame@@IAE_NKPAXGPAUIServerUserItem@@@Z$2
__ehfuncinfo$?OnDBLoadPersonalParameter@CPersonalRoomGame@@IAE_NKPAXGPAUIServerUserItem@@@Z DD 019930522H
	DD	02H
	DD	FLAT:__unwindtable$?OnDBLoadPersonalParameter@CPersonalRoomGame@@IAE_NKPAXGPAUIServerUserItem@@@Z
	DD	01H
	DD	FLAT:__tryblocktable$?OnDBLoadPersonalParameter@CPersonalRoomGame@@IAE_NKPAXGPAUIServerUserItem@@@Z
	DD	2 DUP(00H)
	DD	00H
	DD	01H
xdata$x	ENDS
;	COMDAT xdata$x
xdata$x	SEGMENT
__unwindtable$?BindTableFrame@CPersonalRoomGame@@UAE_NPAUITableFrame@@G@Z DD 0ffffffffH
	DD	FLAT:__unwindfunclet$?BindTableFrame@CPersonalRoomGame@@UAE_NPAUITableFrame@@G@Z$0
__ehfuncinfo$?BindTableFrame@CPersonalRoomGame@@UAE_NPAUITableFrame@@G@Z DD 019930522H
	DD	01H
	DD	FLAT:__unwindtable$?BindTableFrame@CPersonalRoomGame@@UAE_NPAUITableFrame@@G@Z
	DD	2 DUP(00H)
	DD	2 DUP(00H)
	DD	00H
	DD	01H
xdata$x	ENDS
;	COMDAT xdata$x
xdata$x	SEGMENT
__catchsym$??1CPersonalRoomGame@@UAE@XZ$3 DD 040H
	DD	00H
	DD	00H
	DD	FLAT:__catch$??1CPersonalRoomGame@@UAE@XZ$0
__tryblocktable$??1CPersonalRoomGame@@UAE@XZ DD 01H
	DD	01H
	DD	02H
	DD	01H
	DD	FLAT:__catchsym$??1CPersonalRoomGame@@UAE@XZ$3
__unwindtable$??1CPersonalRoomGame@@UAE@XZ DD 0ffffffffH
	DD	FLAT:__unwindfunclet$??1CPersonalRoomGame@@UAE@XZ$2
	DD	00H
	DD	00H
	DD	00H
	DD	00H
__ehfuncinfo$??1CPersonalRoomGame@@UAE@XZ DD 019930522H
	DD	03H
	DD	FLAT:__unwindtable$??1CPersonalRoomGame@@UAE@XZ
	DD	01H
	DD	FLAT:__tryblocktable$??1CPersonalRoomGame@@UAE@XZ
	DD	2 DUP(00H)
	DD	00H
	DD	05H
xdata$x	ENDS
; Function compile flags: /Odsp /ZI
;	COMDAT ?QueryInterface@CPersonalRoomGame@@W7AEPAXABU_GUID@@K@Z
_TEXT	SEGMENT
?QueryInterface@CPersonalRoomGame@@W7AEPAXABU_GUID@@K@Z PROC ; [thunk]:CPersonalRoomGame::QueryInterface`adjustor{8}', COMDAT
  00000	83 e9 08	 sub	 ecx, 8
  00003	e9 00 00 00 00	 jmp	 ?QueryInterface@CPersonalRoomGame@@UAEPAXABU_GUID@@K@Z ; CPersonalRoomGame::QueryInterface
?QueryInterface@CPersonalRoomGame@@W7AEPAXABU_GUID@@K@Z ENDP ; [thunk]:CPersonalRoomGame::QueryInterface`adjustor{8}'
_TEXT	ENDS
; Function compile flags: /Odsp /ZI
;	COMDAT ?Release@CPersonalRoomGame@@W7AEXXZ
_TEXT	SEGMENT
?Release@CPersonalRoomGame@@W7AEXXZ PROC		; [thunk]:CPersonalRoomGame::Release`adjustor{8}', COMDAT
  00000	83 e9 08	 sub	 ecx, 8
  00003	e9 00 00 00 00	 jmp	 ?Release@CPersonalRoomGame@@UAEXXZ ; CPersonalRoomGame::Release
?Release@CPersonalRoomGame@@W7AEXXZ ENDP		; [thunk]:CPersonalRoomGame::Release`adjustor{8}'
_TEXT	ENDS
; Function compile flags: /Odsp /ZI
;	COMDAT ?QueryInterface@CPersonalRoomGame@@W3AEPAXABU_GUID@@K@Z
_TEXT	SEGMENT
?QueryInterface@CPersonalRoomGame@@W3AEPAXABU_GUID@@K@Z PROC ; [thunk]:CPersonalRoomGame::QueryInterface`adjustor{4}', COMDAT
  00000	83 e9 04	 sub	 ecx, 4
  00003	e9 00 00 00 00	 jmp	 ?QueryInterface@CPersonalRoomGame@@UAEPAXABU_GUID@@K@Z ; CPersonalRoomGame::QueryInterface
?QueryInterface@CPersonalRoomGame@@W3AEPAXABU_GUID@@K@Z ENDP ; [thunk]:CPersonalRoomGame::QueryInterface`adjustor{4}'
_TEXT	ENDS
; Function compile flags: /Odsp /ZI
;	COMDAT ?Release@CPersonalRoomGame@@W3AEXXZ
_TEXT	SEGMENT
?Release@CPersonalRoomGame@@W3AEXXZ PROC		; [thunk]:CPersonalRoomGame::Release`adjustor{4}', COMDAT
  00000	83 e9 04	 sub	 ecx, 4
  00003	e9 00 00 00 00	 jmp	 ?Release@CPersonalRoomGame@@UAEXXZ ; CPersonalRoomGame::Release
?Release@CPersonalRoomGame@@W3AEXXZ ENDP		; [thunk]:CPersonalRoomGame::Release`adjustor{4}'
_TEXT	ENDS
; Function compile flags: /Odtp /ZI
;	COMDAT ??_GCPersonalRoomGame@@UAEPAXI@Z
_TEXT	SEGMENT
_this$ = -4						; size = 4
___flags$ = 8						; size = 4
??_GCPersonalRoomGame@@UAEPAXI@Z PROC			; CPersonalRoomGame::`scalar deleting destructor', COMDAT
; _this$ = ecx
  00000	55		 push	 ebp
  00001	8b ec		 mov	 ebp, esp
  00003	83 ec 44	 sub	 esp, 68			; 00000044H
  00006	53		 push	 ebx
  00007	56		 push	 esi
  00008	57		 push	 edi
  00009	89 4d fc	 mov	 DWORD PTR _this$[ebp], ecx
  0000c	8b 4d fc	 mov	 ecx, DWORD PTR _this$[ebp]
  0000f	e8 00 00 00 00	 call	 ??1CPersonalRoomGame@@UAE@XZ ; CPersonalRoomGame::~CPersonalRoomGame
  00014	8b 45 08	 mov	 eax, DWORD PTR ___flags$[ebp]
  00017	83 e0 01	 and	 eax, 1
  0001a	74 11		 je	 SHORT $LN2@scalar
  0001c	68 c8 00 00 00	 push	 200			; 000000c8H
  00021	8b 45 fc	 mov	 eax, DWORD PTR _this$[ebp]
  00024	50		 push	 eax
  00025	e8 00 00 00 00	 call	 ??3@YAXPAXI@Z		; operator delete
  0002a	83 c4 08	 add	 esp, 8
$LN2@scalar:
  0002d	8b 45 fc	 mov	 eax, DWORD PTR _this$[ebp]
  00030	5f		 pop	 edi
  00031	5e		 pop	 esi
  00032	5b		 pop	 ebx
  00033	8b e5		 mov	 esp, ebp
  00035	5d		 pop	 ebp
  00036	c2 04 00	 ret	 4
??_GCPersonalRoomGame@@UAEPAXI@Z ENDP			; CPersonalRoomGame::`scalar deleting destructor'
_TEXT	ENDS
; Function compile flags: /Odtp /ZI
; File g:\网狐\happygamewh\服务端\系统模块\服务器组件\约战服务\personalroomgame.cpp
;	COMDAT ?OnTCPSocketMainServiceInfo@CPersonalRoomGame@@UAE_NGPAXG@Z
_TEXT	SEGMENT
tv84 = -460						; size = 4
tv85 = -456						; size = 4
tv65 = -456						; size = 4
_i$1 = -388						; size = 4
_i$2 = -384						; size = 4
_pTableFrame$3 = -380					; size = 4
_pDismissTable$4 = -376					; size = 4
_CreateRecord$5 = -372					; size = 82
_CreateSuccess$6 = -288					; size = 76
_PersonalTableParameter$7 = -212			; size = 48
_pTableFrame$8 = -164					; size = 4
_pTableFrame$9 = -160					; size = 4
_CreateFailure$10 = -156				; size = 132
_pIServerUserItem$11 = -24				; size = 4
_pAttemperEngineSink$12 = -20				; size = 4
_wBindIndex$13 = -16					; size = 2
_pCreateTableResult$14 = -12				; size = 4
_this$ = -8						; size = 4
__$ArrayPad$ = -4					; size = 4
_wSubCmdID$ = 8						; size = 2
_pData$ = 12						; size = 4
_wDataSize$ = 16					; size = 2
?OnTCPSocketMainServiceInfo@CPersonalRoomGame@@UAE_NGPAXG@Z PROC ; CPersonalRoomGame::OnTCPSocketMainServiceInfo, COMDAT
; _this$ = ecx

; 1398 : {

  00000	55		 push	 ebp
  00001	8b ec		 mov	 ebp, esp
  00003	81 ec cc 01 00
	00		 sub	 esp, 460		; 000001ccH
  00009	a1 00 00 00 00	 mov	 eax, DWORD PTR ___security_cookie
  0000e	33 c5		 xor	 eax, ebp
  00010	89 45 fc	 mov	 DWORD PTR __$ArrayPad$[ebp], eax
  00013	53		 push	 ebx
  00014	56		 push	 esi
  00015	57		 push	 edi
  00016	89 4d f8	 mov	 DWORD PTR _this$[ebp], ecx

; 1399 : 	switch (wSubCmdID)

  00019	0f b7 45 08	 movzx	 eax, WORD PTR _wSubCmdID$[ebp]
  0001d	89 85 38 fe ff
	ff		 mov	 DWORD PTR tv65[ebp], eax
  00023	81 bd 38 fe ff
	ff 88 00 00 00	 cmp	 DWORD PTR tv65[ebp], 136 ; 00000088H
  0002d	74 15		 je	 SHORT $LN10@OnTCPSocke
  0002f	81 bd 38 fe ff
	ff 8a 00 00 00	 cmp	 DWORD PTR tv65[ebp], 138 ; 0000008aH
  00039	0f 84 90 03 00
	00		 je	 $LN16@OnTCPSocke
  0003f	e9 19 05 00 00	 jmp	 $LN2@OnTCPSocke
$LN10@OnTCPSocke:

; 1400 : 	{
; 1401 : 	case SUB_CS_S_CREATE_TABLE_RESULT:		//创建结果
; 1402 : 		{
; 1403 : 			//效验参数
; 1404 : 			ASSERT(wDataSize==sizeof(CMD_CS_S_CreateTableResult));

  00044	0f b7 45 10	 movzx	 eax, WORD PTR _wDataSize$[ebp]
  00048	3d ef 00 00 00	 cmp	 eax, 239		; 000000efH
  0004d	74 19		 je	 SHORT $LN20@OnTCPSocke
  0004f	8b 0d 00 00 00
	00		 mov	 ecx, DWORD PTR ?__LINE__Var@?0??OnTCPSocketMainServiceInfo@CPersonalRoomGame@@UAE_NGPAXG@Z@4JA
  00055	83 c1 06	 add	 ecx, 6
  00058	51		 push	 ecx
  00059	68 00 00 00 00	 push	 OFFSET ??_C@_0EN@PBHPFOKJ@g?3?2?M?x?$LK?$PM?2happygamewh?2?$LH?$PO?N?q?$LG?K?2?O?$LF?M?$LD@
  0005e	e8 00 00 00 00	 call	 ?AfxAssertFailedLine@@YGHPBDH@Z ; AfxAssertFailedLine
  00063	85 c0		 test	 eax, eax
  00065	74 01		 je	 SHORT $LN20@OnTCPSocke
  00067	cc		 int	 3
$LN20@OnTCPSocke:

; 1405 : 			if (wDataSize!=sizeof(CMD_CS_S_CreateTableResult)) return false;

  00068	0f b7 45 10	 movzx	 eax, WORD PTR _wDataSize$[ebp]
  0006c	3d ef 00 00 00	 cmp	 eax, 239		; 000000efH
  00071	74 07		 je	 SHORT $LN11@OnTCPSocke
  00073	32 c0		 xor	 al, al
  00075	e9 e5 04 00 00	 jmp	 $LN1@OnTCPSocke
$LN11@OnTCPSocke:

; 1406 : 
; 1407 : 			//变量定义
; 1408 : 			CMD_CS_S_CreateTableResult * pCreateTableResult=(CMD_CS_S_CreateTableResult *)pData;

  0007a	8b 45 0c	 mov	 eax, DWORD PTR _pData$[ebp]
  0007d	89 45 f4	 mov	 DWORD PTR _pCreateTableResult$14[ebp], eax

; 1409 : 
; 1410 : 			//获取用户
; 1411 : 			WORD wBindIndex=LOWORD(pCreateTableResult->dwSocketID);

  00080	8b 45 f4	 mov	 eax, DWORD PTR _pCreateTableResult$14[ebp]
  00083	8b 08		 mov	 ecx, DWORD PTR [eax]
  00085	81 e1 ff ff 00
	00		 and	 ecx, 65535		; 0000ffffH
  0008b	66 89 4d f0	 mov	 WORD PTR _wBindIndex$13[ebp], cx

; 1412 : 			//判断在线
; 1413 : 			CAttemperEngineSink * pAttemperEngineSink= (CAttemperEngineSink *)m_pIGameServiceFrame;

  0008f	8b 45 f8	 mov	 eax, DWORD PTR _this$[ebp]
  00092	8b 88 b8 00 00
	00		 mov	 ecx, DWORD PTR [eax+184]
  00098	89 8d 38 fe ff
	ff		 mov	 DWORD PTR tv85[ebp], ecx
  0009e	83 bd 38 fe ff
	ff 00		 cmp	 DWORD PTR tv85[ebp], 0
  000a5	74 11		 je	 SHORT $LN21@OnTCPSocke
  000a7	8b 95 38 fe ff
	ff		 mov	 edx, DWORD PTR tv85[ebp]
  000ad	83 ea 04	 sub	 edx, 4
  000b0	89 95 34 fe ff
	ff		 mov	 DWORD PTR tv84[ebp], edx
  000b6	eb 0a		 jmp	 SHORT $LN22@OnTCPSocke
$LN21@OnTCPSocke:
  000b8	c7 85 34 fe ff
	ff 00 00 00 00	 mov	 DWORD PTR tv84[ebp], 0
$LN22@OnTCPSocke:
  000c2	8b 85 34 fe ff
	ff		 mov	 eax, DWORD PTR tv84[ebp]
  000c8	89 45 ec	 mov	 DWORD PTR _pAttemperEngineSink$12[ebp], eax

; 1414 : 			IServerUserItem * pIServerUserItem=pAttemperEngineSink->GetBindUserItem(wBindIndex);

  000cb	0f b7 45 f0	 movzx	 eax, WORD PTR _wBindIndex$13[ebp]
  000cf	50		 push	 eax
  000d0	8b 4d ec	 mov	 ecx, DWORD PTR _pAttemperEngineSink$12[ebp]
  000d3	8b 11		 mov	 edx, DWORD PTR [ecx]
  000d5	8b 4d ec	 mov	 ecx, DWORD PTR _pAttemperEngineSink$12[ebp]
  000d8	8b 42 3c	 mov	 eax, DWORD PTR [edx+60]
  000db	ff d0		 call	 eax
  000dd	89 45 e8	 mov	 DWORD PTR _pIServerUserItem$11[ebp], eax

; 1415 : 			if (pIServerUserItem==NULL) return false;

  000e0	83 7d e8 00	 cmp	 DWORD PTR _pIServerUserItem$11[ebp], 0
  000e4	75 07		 jne	 SHORT $LN12@OnTCPSocke
  000e6	32 c0		 xor	 al, al
  000e8	e9 72 04 00 00	 jmp	 $LN1@OnTCPSocke
$LN12@OnTCPSocke:

; 1416 : 
; 1417 : 			if(pCreateTableResult->PersonalTable.dwDrawCountLimit == 0 && pCreateTableResult->PersonalTable.dwDrawTimeLimit == 0)

  000ed	8b 45 f4	 mov	 eax, DWORD PTR _pCreateTableResult$14[ebp]
  000f0	83 78 2e 00	 cmp	 DWORD PTR [eax+46], 0
  000f4	0f 85 db 00 00
	00		 jne	 $LN13@OnTCPSocke
  000fa	8b 45 f4	 mov	 eax, DWORD PTR _pCreateTableResult$14[ebp]
  000fd	83 78 32 00	 cmp	 DWORD PTR [eax+50], 0
  00101	0f 85 ce 00 00
	00		 jne	 $LN13@OnTCPSocke

; 1418 : 			{
; 1419 : 				//构造数据
; 1420 : 				CMD_GR_CreateFailure CreateFailure;
; 1421 : 				ZeroMemory(&CreateFailure, sizeof(CMD_GR_CreateFailure));

  00107	68 84 00 00 00	 push	 132			; 00000084H
  0010c	6a 00		 push	 0
  0010e	8d 85 64 ff ff
	ff		 lea	 eax, DWORD PTR _CreateFailure$10[ebp]
  00114	50		 push	 eax
  00115	e8 00 00 00 00	 call	 _memset
  0011a	83 c4 0c	 add	 esp, 12			; 0000000cH

; 1422 : 
; 1423 : 				CTableFrame* pTableFrame = (CTableFrame*)m_ppITableFrame[pCreateTableResult->PersonalTable.dwTableID];

  0011d	8b 45 f4	 mov	 eax, DWORD PTR _pCreateTableResult$14[ebp]
  00120	8b 48 26	 mov	 ecx, DWORD PTR [eax+38]
  00123	8b 55 f8	 mov	 edx, DWORD PTR _this$[ebp]
  00126	8b 82 a0 00 00
	00		 mov	 eax, DWORD PTR [edx+160]
  0012c	8b 0c 88	 mov	 ecx, DWORD PTR [eax+ecx*4]
  0012f	89 8d 60 ff ff
	ff		 mov	 DWORD PTR _pTableFrame$9[ebp], ecx

; 1424 : 				ASSERT(pTableFrame != NULL);

  00135	83 bd 60 ff ff
	ff 00		 cmp	 DWORD PTR _pTableFrame$9[ebp], 0
  0013c	75 18		 jne	 SHORT $LN23@OnTCPSocke
  0013e	a1 00 00 00 00	 mov	 eax, DWORD PTR ?__LINE__Var@?0??OnTCPSocketMainServiceInfo@CPersonalRoomGame@@UAE_NGPAXG@Z@4JA
  00143	83 c0 1a	 add	 eax, 26			; 0000001aH
  00146	50		 push	 eax
  00147	68 00 00 00 00	 push	 OFFSET ??_C@_0EN@PBHPFOKJ@g?3?2?M?x?$LK?$PM?2happygamewh?2?$LH?$PO?N?q?$LG?K?2?O?$LF?M?$LD@
  0014c	e8 00 00 00 00	 call	 ?AfxAssertFailedLine@@YGHPBDH@Z ; AfxAssertFailedLine
  00151	85 c0		 test	 eax, eax
  00153	74 01		 je	 SHORT $LN23@OnTCPSocke
  00155	cc		 int	 3
$LN23@OnTCPSocke:

; 1425 : 				if (pTableFrame == NULL) return false;

  00156	83 bd 60 ff ff
	ff 00		 cmp	 DWORD PTR _pTableFrame$9[ebp], 0
  0015d	75 07		 jne	 SHORT $LN14@OnTCPSocke
  0015f	32 c0		 xor	 al, al
  00161	e9 f9 03 00 00	 jmp	 $LN1@OnTCPSocke
$LN14@OnTCPSocke:

; 1426 : 				
; 1427 : 				pTableFrame->SetPersonalTableLocked(false);

  00166	6a 00		 push	 0
  00168	8b 85 60 ff ff
	ff		 mov	 eax, DWORD PTR _pTableFrame$9[ebp]
  0016e	8b 10		 mov	 edx, DWORD PTR [eax]
  00170	8b 8d 60 ff ff
	ff		 mov	 ecx, DWORD PTR _pTableFrame$9[ebp]
  00176	8b 42 4c	 mov	 eax, DWORD PTR [edx+76]
  00179	ff d0		 call	 eax

; 1428 : 
; 1429 : 				CreateFailure.lErrorCode = 1;

  0017b	c7 85 64 ff ff
	ff 01 00 00 00	 mov	 DWORD PTR _CreateFailure$10[ebp], 1

; 1430 : 				lstrcpyn(CreateFailure.szDescribeString, TEXT("创建房间参数不正确！"), CountArray(CreateFailure.szDescribeString));

  00185	68 80 00 00 00	 push	 128			; 00000080H
  0018a	68 00 00 00 00	 push	 OFFSET ??_C@_0BF@OAHKEPFP@?$LE?$LE?$LN?$KI?$LH?$LP?$LM?d?$LC?N?J?$PN?$LC?$LL?U?$PN?H?$LH?$KD?$KB@
  0018f	8d 85 68 ff ff
	ff		 lea	 eax, DWORD PTR _CreateFailure$10[ebp+4]
  00195	50		 push	 eax
  00196	ff 15 00 00 00
	00		 call	 DWORD PTR __imp__lstrcpynA@12

; 1431 : 
; 1432 : 				//发送数据
; 1433 : 				m_pITCPNetworkEngine->SendData(pCreateTableResult->dwSocketID, MDM_GR_PERSONAL_TABLE, SUB_GR_CREATE_FAILURE, &CreateFailure, sizeof(CMD_GR_CreateFailure));

  0019c	68 84 00 00 00	 push	 132			; 00000084H
  001a1	8d 85 64 ff ff
	ff		 lea	 eax, DWORD PTR _CreateFailure$10[ebp]
  001a7	50		 push	 eax
  001a8	6a 03		 push	 3
  001aa	68 d2 00 00 00	 push	 210			; 000000d2H
  001af	8b 4d f4	 mov	 ecx, DWORD PTR _pCreateTableResult$14[ebp]
  001b2	8b 11		 mov	 edx, DWORD PTR [ecx]
  001b4	52		 push	 edx
  001b5	8b 45 f8	 mov	 eax, DWORD PTR _this$[ebp]
  001b8	8b 88 b0 00 00
	00		 mov	 ecx, DWORD PTR [eax+176]
  001be	8b 55 f8	 mov	 edx, DWORD PTR _this$[ebp]
  001c1	8b 01		 mov	 eax, DWORD PTR [ecx]
  001c3	8b 8a b0 00 00
	00		 mov	 ecx, DWORD PTR [edx+176]
  001c9	8b 50 20	 mov	 edx, DWORD PTR [eax+32]
  001cc	ff d2		 call	 edx

; 1434 : 
; 1435 : 				return false;

  001ce	32 c0		 xor	 al, al
  001d0	e9 8a 03 00 00	 jmp	 $LN1@OnTCPSocke
$LN13@OnTCPSocke:

; 1436 : 			}
; 1437 : 
; 1438 : 			//获取桌子
; 1439 : 			CTableFrame* pTableFrame = (CTableFrame*)m_ppITableFrame[pCreateTableResult->PersonalTable.dwTableID];

  001d5	8b 45 f4	 mov	 eax, DWORD PTR _pCreateTableResult$14[ebp]
  001d8	8b 48 26	 mov	 ecx, DWORD PTR [eax+38]
  001db	8b 55 f8	 mov	 edx, DWORD PTR _this$[ebp]
  001de	8b 82 a0 00 00
	00		 mov	 eax, DWORD PTR [edx+160]
  001e4	8b 0c 88	 mov	 ecx, DWORD PTR [eax+ecx*4]
  001e7	89 8d 5c ff ff
	ff		 mov	 DWORD PTR _pTableFrame$8[ebp], ecx

; 1440 : 			ASSERT(pTableFrame != NULL);

  001ed	83 bd 5c ff ff
	ff 00		 cmp	 DWORD PTR _pTableFrame$8[ebp], 0
  001f4	75 18		 jne	 SHORT $LN24@OnTCPSocke
  001f6	a1 00 00 00 00	 mov	 eax, DWORD PTR ?__LINE__Var@?0??OnTCPSocketMainServiceInfo@CPersonalRoomGame@@UAE_NGPAXG@Z@4JA
  001fb	83 c0 2a	 add	 eax, 42			; 0000002aH
  001fe	50		 push	 eax
  001ff	68 00 00 00 00	 push	 OFFSET ??_C@_0EN@PBHPFOKJ@g?3?2?M?x?$LK?$PM?2happygamewh?2?$LH?$PO?N?q?$LG?K?2?O?$LF?M?$LD@
  00204	e8 00 00 00 00	 call	 ?AfxAssertFailedLine@@YGHPBDH@Z ; AfxAssertFailedLine
  00209	85 c0		 test	 eax, eax
  0020b	74 01		 je	 SHORT $LN24@OnTCPSocke
  0020d	cc		 int	 3
$LN24@OnTCPSocke:

; 1441 : 			if (pTableFrame == NULL) return false;

  0020e	83 bd 5c ff ff
	ff 00		 cmp	 DWORD PTR _pTableFrame$8[ebp], 0
  00215	75 07		 jne	 SHORT $LN15@OnTCPSocke
  00217	32 c0		 xor	 al, al
  00219	e9 41 03 00 00	 jmp	 $LN1@OnTCPSocke
$LN15@OnTCPSocke:

; 1442 : 
; 1443 : 			tagPersonalTableParameter PersonalTableParameter = pTableFrame->GetPersonalTableParameter();

  0021e	8d 85 2c ff ff
	ff		 lea	 eax, DWORD PTR _PersonalTableParameter$7[ebp]
  00224	50		 push	 eax
  00225	8b 8d 5c ff ff
	ff		 mov	 ecx, DWORD PTR _pTableFrame$8[ebp]
  0022b	8b 11		 mov	 edx, DWORD PTR [ecx]
  0022d	8b 8d 5c ff ff
	ff		 mov	 ecx, DWORD PTR _pTableFrame$8[ebp]
  00233	8b 42 64	 mov	 eax, DWORD PTR [edx+100]
  00236	ff d0		 call	 eax

; 1444 : 			pTableFrame->SetPersonalRoomID(pCreateTableResult->PersonalTable.dwPersonalRoomID);

  00238	8b 45 f4	 mov	 eax, DWORD PTR _pCreateTableResult$14[ebp]
  0023b	8b 48 3e	 mov	 ecx, DWORD PTR [eax+62]
  0023e	51		 push	 ecx
  0023f	8b 95 5c ff ff
	ff		 mov	 edx, DWORD PTR _pTableFrame$8[ebp]
  00245	8b 02		 mov	 eax, DWORD PTR [edx]
  00247	8b 8d 5c ff ff
	ff		 mov	 ecx, DWORD PTR _pTableFrame$8[ebp]
  0024d	8b 90 40 01 00
	00		 mov	 edx, DWORD PTR [eax+320]
  00253	ff d2		 call	 edx

; 1445 : 
; 1446 : 			//构造数据
; 1447 : 			CMD_GR_CreateSuccess CreateSuccess;
; 1448 : 			ZeroMemory(&CreateSuccess, sizeof(CMD_GR_CreateSuccess));

  00255	6a 4c		 push	 76			; 0000004cH
  00257	6a 00		 push	 0
  00259	8d 85 e0 fe ff
	ff		 lea	 eax, DWORD PTR _CreateSuccess$6[ebp]
  0025f	50		 push	 eax
  00260	e8 00 00 00 00	 call	 _memset
  00265	83 c4 0c	 add	 esp, 12			; 0000000cH

; 1449 : 
; 1450 : 			CreateSuccess.dwDrawCountLimit = PersonalTableParameter.dwPlayTurnCount;

  00268	8b 85 3f ff ff
	ff		 mov	 eax, DWORD PTR _PersonalTableParameter$7[ebp+19]
  0026e	89 85 e4 fe ff
	ff		 mov	 DWORD PTR _CreateSuccess$6[ebp+4], eax

; 1451 : 			CreateSuccess.dwDrawTimeLimit = PersonalTableParameter.dwPlayTimeLimit;

  00274	8b 85 43 ff ff
	ff		 mov	 eax, DWORD PTR _PersonalTableParameter$7[ebp+23]
  0027a	89 85 e8 fe ff
	ff		 mov	 DWORD PTR _CreateSuccess$6[ebp+8], eax

; 1452 : 			//CreateSuccess.lDiamond = pIServerUserItem->GetUserInfo()->lDiamond;
; 1453 : 			CreateSuccess.bConsumptionType = pIServerUserItem->GetUserInfo()->bConsumptionType;

  00280	8b 45 e8	 mov	 eax, DWORD PTR _pIServerUserItem$11[ebp]
  00283	8b 10		 mov	 edx, DWORD PTR [eax]
  00285	8b 4d e8	 mov	 ecx, DWORD PTR _pIServerUserItem$11[ebp]
  00288	8b 42 20	 mov	 eax, DWORD PTR [edx+32]
  0028b	ff d0		 call	 eax
  0028d	05 98 00 00 00	 add	 eax, 152		; 00000098H
  00292	b9 10 00 00 00	 mov	 ecx, 16			; 00000010H
  00297	8b f0		 mov	 esi, eax
  00299	8d bd ec fe ff
	ff		 lea	 edi, DWORD PTR _CreateSuccess$6[ebp+12]
  0029f	f3 a5		 rep movsd

; 1454 : 			CreateSuccess.dwPersonalRoomID = pCreateTableResult->PersonalTable.dwPersonalRoomID;

  002a1	8b 45 f4	 mov	 eax, DWORD PTR _pCreateTableResult$14[ebp]
  002a4	8b 48 3e	 mov	 ecx, DWORD PTR [eax+62]
  002a7	89 8d e0 fe ff
	ff		 mov	 DWORD PTR _CreateSuccess$6[ebp], ecx

; 1455 : 			m_pITCPNetworkEngine->SendData(pCreateTableResult->dwSocketID, MDM_GR_PERSONAL_TABLE, SUB_GR_CREATE_SUCCESS, &CreateSuccess, sizeof(CMD_GR_CreateSuccess));

  002ad	6a 4c		 push	 76			; 0000004cH
  002af	8d 85 e0 fe ff
	ff		 lea	 eax, DWORD PTR _CreateSuccess$6[ebp]
  002b5	50		 push	 eax
  002b6	6a 02		 push	 2
  002b8	68 d2 00 00 00	 push	 210			; 000000d2H
  002bd	8b 4d f4	 mov	 ecx, DWORD PTR _pCreateTableResult$14[ebp]
  002c0	8b 11		 mov	 edx, DWORD PTR [ecx]
  002c2	52		 push	 edx
  002c3	8b 45 f8	 mov	 eax, DWORD PTR _this$[ebp]
  002c6	8b 88 b0 00 00
	00		 mov	 ecx, DWORD PTR [eax+176]
  002cc	8b 55 f8	 mov	 edx, DWORD PTR _this$[ebp]
  002cf	8b 01		 mov	 eax, DWORD PTR [ecx]
  002d1	8b 8a b0 00 00
	00		 mov	 ecx, DWORD PTR [edx+176]
  002d7	8b 50 20	 mov	 edx, DWORD PTR [eax+32]
  002da	ff d2		 call	 edx

; 1456 : 
; 1457 : 
; 1458 : 			//插入桌子创建记录
; 1459 : 			DBR_GR_InsertCreateRecord  CreateRecord;
; 1460 : 			ZeroMemory(&CreateRecord, sizeof(DBR_GR_InsertCreateRecord));

  002dc	6a 52		 push	 82			; 00000052H
  002de	6a 00		 push	 0
  002e0	8d 85 8c fe ff
	ff		 lea	 eax, DWORD PTR _CreateRecord$5[ebp]
  002e6	50		 push	 eax
  002e7	e8 00 00 00 00	 call	 _memset
  002ec	83 c4 0c	 add	 esp, 12			; 0000000cH

; 1461 : 
; 1462 : 			//桌子数据
; 1463 : 			CreateRecord.dwServerID	= pCreateTableResult->PersonalTable.dwServerID;

  002ef	8b 45 f4	 mov	 eax, DWORD PTR _pCreateTableResult$14[ebp]
  002f2	8b 48 1e	 mov	 ecx, DWORD PTR [eax+30]
  002f5	89 8d 90 fe ff
	ff		 mov	 DWORD PTR _CreateRecord$5[ebp+4], ecx

; 1464 : 			CreateRecord.dwUserID = pCreateTableResult->PersonalTable.dwUserID;

  002fb	8b 45 f4	 mov	 eax, DWORD PTR _pCreateTableResult$14[ebp]
  002fe	8b 48 2a	 mov	 ecx, DWORD PTR [eax+42]
  00301	89 8d 8c fe ff
	ff		 mov	 DWORD PTR _CreateRecord$5[ebp], ecx

; 1465 : 			CreateRecord.lCellScore = pCreateTableResult->PersonalTable.lCellScore;

  00307	8b 45 f4	 mov	 eax, DWORD PTR _pCreateTableResult$14[ebp]
  0030a	8b 48 36	 mov	 ecx, DWORD PTR [eax+54]
  0030d	89 8d 94 fe ff
	ff		 mov	 DWORD PTR _CreateRecord$5[ebp+8], ecx
  00313	8b 50 3a	 mov	 edx, DWORD PTR [eax+58]
  00316	89 95 98 fe ff
	ff		 mov	 DWORD PTR _CreateRecord$5[ebp+12], edx

; 1466 : 			CreateRecord.dwDrawCountLimit = pCreateTableResult->PersonalTable.dwDrawCountLimit;

  0031c	8b 45 f4	 mov	 eax, DWORD PTR _pCreateTableResult$14[ebp]
  0031f	8a 48 2e	 mov	 cl, BYTE PTR [eax+46]
  00322	88 8d 9c fe ff
	ff		 mov	 BYTE PTR _CreateRecord$5[ebp+16], cl

; 1467 : 			CreateRecord.dwDrawTimeLimit = pCreateTableResult->PersonalTable.dwDrawTimeLimit;

  00328	8b 45 f4	 mov	 eax, DWORD PTR _pCreateTableResult$14[ebp]
  0032b	8b 48 32	 mov	 ecx, DWORD PTR [eax+50]
  0032e	89 8d 9d fe ff
	ff		 mov	 DWORD PTR _CreateRecord$5[ebp+17], ecx

; 1468 : 			//lstrcpyn(CreateRecord.szPassword, pCreateTableResult->PersonalTable.szPassword, CountArray(CreateRecord.szPassword));
; 1469 : 			CreateRecord.dwPersonalRoomID = pCreateTableResult->PersonalTable.dwPersonalRoomID;

  00334	8b 45 f4	 mov	 eax, DWORD PTR _pCreateTableResult$14[ebp]
  00337	8b 48 3e	 mov	 ecx, DWORD PTR [eax+62]
  0033a	89 8d a1 fe ff
	ff		 mov	 DWORD PTR _CreateRecord$5[ebp+21], ecx

; 1470 : 			CreateRecord.wJoinGamePeopleCount = pCreateTableResult->PersonalTable.wJoinGamePeopleCount;

  00340	8b 45 f4	 mov	 eax, DWORD PTR _pCreateTableResult$14[ebp]
  00343	8a 48 4d	 mov	 cl, BYTE PTR [eax+77]
  00346	88 8d ca fe ff
	ff		 mov	 BYTE PTR _CreateRecord$5[ebp+62], cl

; 1471 : 			CreateRecord.dwRoomTax =  pCreateTableResult->PersonalTable.dwRoomTax;

  0034c	8b 45 f4	 mov	 eax, DWORD PTR _pCreateTableResult$14[ebp]
  0034f	8b 48 49	 mov	 ecx, DWORD PTR [eax+73]
  00352	89 8d c6 fe ff
	ff		 mov	 DWORD PTR _CreateRecord$5[ebp+58], ecx

; 1472 : 			lstrcpyn(CreateRecord.szClientAddr, pCreateTableResult->szClientAddr, CountArray(CreateRecord.szClientAddr));

  00358	6a 10		 push	 16			; 00000010H
  0035a	8b 45 f4	 mov	 eax, DWORD PTR _pCreateTableResult$14[ebp]
  0035d	83 c0 08	 add	 eax, 8
  00360	50		 push	 eax
  00361	8d 8d cb fe ff
	ff		 lea	 ecx, DWORD PTR _CreateRecord$5[ebp+63]
  00367	51		 push	 ecx
  00368	ff 15 00 00 00
	00		 call	 DWORD PTR __imp__lstrcpynA@12

; 1473 : 			CreateRecord.cbPayMode = pCreateTableResult->cbPayMode;

  0036e	8b 45 f4	 mov	 eax, DWORD PTR _pCreateTableResult$14[ebp]
  00371	8a 48 18	 mov	 cl, BYTE PTR [eax+24]
  00374	88 8d db fe ff
	ff		 mov	 BYTE PTR _CreateRecord$5[ebp+79], cl

; 1474 : 			CreateRecord.lNeedRoomCard = pCreateTableResult->lNeedRoomCard;

  0037a	8b 45 f4	 mov	 eax, DWORD PTR _pCreateTableResult$14[ebp]
  0037d	8a 48 1a	 mov	 cl, BYTE PTR [eax+26]
  00380	88 8d dc fe ff
	ff		 mov	 BYTE PTR _CreateRecord$5[ebp+80], cl

; 1475 : 			CreateRecord.cbGameMode = pCreateTableResult->cbGameMode;

  00386	8b 45 f4	 mov	 eax, DWORD PTR _pCreateTableResult$14[ebp]
  00389	8a 48 19	 mov	 cl, BYTE PTR [eax+25]
  0038c	88 8d dd fe ff
	ff		 mov	 BYTE PTR _CreateRecord$5[ebp+81], cl

; 1476 : 
; 1477 : 			m_pIDBCorrespondManager->PostDataBaseRequest(CreateRecord.dwUserID, DBR_GR_INSERT_CREATE_RECORD, 0, &CreateRecord, sizeof(CreateRecord));

  00392	6a 00		 push	 0
  00394	6a 52		 push	 82			; 00000052H
  00396	8d 85 8c fe ff
	ff		 lea	 eax, DWORD PTR _CreateRecord$5[ebp]
  0039c	50		 push	 eax
  0039d	6a 00		 push	 0
  0039f	68 18 05 00 00	 push	 1304			; 00000518H
  003a4	8b 8d 8c fe ff
	ff		 mov	 ecx, DWORD PTR _CreateRecord$5[ebp]
  003aa	51		 push	 ecx
  003ab	8b 55 f8	 mov	 edx, DWORD PTR _this$[ebp]
  003ae	8b 82 a8 00 00
	00		 mov	 eax, DWORD PTR [edx+168]
  003b4	8b 4d f8	 mov	 ecx, DWORD PTR _this$[ebp]
  003b7	8b 91 a8 00 00
	00		 mov	 edx, DWORD PTR [ecx+168]
  003bd	8b 00		 mov	 eax, DWORD PTR [eax]
  003bf	52		 push	 edx
  003c0	8b 48 14	 mov	 ecx, DWORD PTR [eax+20]
  003c3	ff d1		 call	 ecx
  003c5	83 c4 1c	 add	 esp, 28			; 0000001cH

; 1478 : 
; 1479 : 			return true;

  003c8	b0 01		 mov	 al, 1
  003ca	e9 90 01 00 00	 jmp	 $LN1@OnTCPSocke
$LN16@OnTCPSocke:

; 1480 : 		}
; 1481 : 	case SUB_CS_C_DISMISS_TABLE_RESULT:		//解散结果
; 1482 : 		{
; 1483 : 			ASSERT(wDataSize == sizeof(CMD_CS_C_DismissTableResult));

  003cf	0f b7 45 10	 movzx	 eax, WORD PTR _wDataSize$[ebp]
  003d3	3d b5 02 00 00	 cmp	 eax, 693		; 000002b5H
  003d8	74 19		 je	 SHORT $LN25@OnTCPSocke
  003da	8b 0d 00 00 00
	00		 mov	 ecx, DWORD PTR ?__LINE__Var@?0??OnTCPSocketMainServiceInfo@CPersonalRoomGame@@UAE_NGPAXG@Z@4JA
  003e0	83 c1 55	 add	 ecx, 85			; 00000055H
  003e3	51		 push	 ecx
  003e4	68 00 00 00 00	 push	 OFFSET ??_C@_0EN@PBHPFOKJ@g?3?2?M?x?$LK?$PM?2happygamewh?2?$LH?$PO?N?q?$LG?K?2?O?$LF?M?$LD@
  003e9	e8 00 00 00 00	 call	 ?AfxAssertFailedLine@@YGHPBDH@Z ; AfxAssertFailedLine
  003ee	85 c0		 test	 eax, eax
  003f0	74 01		 je	 SHORT $LN25@OnTCPSocke
  003f2	cc		 int	 3
$LN25@OnTCPSocke:

; 1484 : 			if(wDataSize != sizeof(CMD_CS_C_DismissTableResult)) return false;

  003f3	0f b7 45 10	 movzx	 eax, WORD PTR _wDataSize$[ebp]
  003f7	3d b5 02 00 00	 cmp	 eax, 693		; 000002b5H
  003fc	74 07		 je	 SHORT $LN17@OnTCPSocke
  003fe	32 c0		 xor	 al, al
  00400	e9 5a 01 00 00	 jmp	 $LN1@OnTCPSocke
$LN17@OnTCPSocke:

; 1485 : 
; 1486 : 			CMD_CS_C_DismissTableResult* pDismissTable = (CMD_CS_C_DismissTableResult*)pData;

  00405	8b 45 0c	 mov	 eax, DWORD PTR _pData$[ebp]
  00408	89 85 88 fe ff
	ff		 mov	 DWORD PTR _pDismissTable$4[ebp], eax

; 1487 : 			//获取桌子
; 1488 : 			CTableFrame* pTableFrame = (CTableFrame*)m_ppITableFrame[pDismissTable->PersonalTableInfo.dwTableID];

  0040e	8b 85 88 fe ff
	ff		 mov	 eax, DWORD PTR _pDismissTable$4[ebp]
  00414	8b 48 0c	 mov	 ecx, DWORD PTR [eax+12]
  00417	8b 55 f8	 mov	 edx, DWORD PTR _this$[ebp]
  0041a	8b 82 a0 00 00
	00		 mov	 eax, DWORD PTR [edx+160]
  00420	8b 0c 88	 mov	 ecx, DWORD PTR [eax+ecx*4]
  00423	89 8d 84 fe ff
	ff		 mov	 DWORD PTR _pTableFrame$3[ebp], ecx

; 1489 : 			ASSERT(pTableFrame != NULL);

  00429	83 bd 84 fe ff
	ff 00		 cmp	 DWORD PTR _pTableFrame$3[ebp], 0
  00430	75 18		 jne	 SHORT $LN26@OnTCPSocke
  00432	a1 00 00 00 00	 mov	 eax, DWORD PTR ?__LINE__Var@?0??OnTCPSocketMainServiceInfo@CPersonalRoomGame@@UAE_NGPAXG@Z@4JA
  00437	83 c0 5b	 add	 eax, 91			; 0000005bH
  0043a	50		 push	 eax
  0043b	68 00 00 00 00	 push	 OFFSET ??_C@_0EN@PBHPFOKJ@g?3?2?M?x?$LK?$PM?2happygamewh?2?$LH?$PO?N?q?$LG?K?2?O?$LF?M?$LD@
  00440	e8 00 00 00 00	 call	 ?AfxAssertFailedLine@@YGHPBDH@Z ; AfxAssertFailedLine
  00445	85 c0		 test	 eax, eax
  00447	74 01		 je	 SHORT $LN26@OnTCPSocke
  00449	cc		 int	 3
$LN26@OnTCPSocke:

; 1490 : 			if (pTableFrame == NULL) return false;

  0044a	83 bd 84 fe ff
	ff 00		 cmp	 DWORD PTR _pTableFrame$3[ebp], 0
  00451	75 07		 jne	 SHORT $LN18@OnTCPSocke
  00453	32 c0		 xor	 al, al
  00455	e9 05 01 00 00	 jmp	 $LN1@OnTCPSocke
$LN18@OnTCPSocke:

; 1491 : 
; 1492 : 			for (int i = 0; i < pTableFrame->GetChairCount(); i++)

  0045a	c7 85 80 fe ff
	ff 00 00 00 00	 mov	 DWORD PTR _i$2[ebp], 0
  00464	eb 0f		 jmp	 SHORT $LN6@OnTCPSocke
$LN4@OnTCPSocke:
  00466	8b 85 80 fe ff
	ff		 mov	 eax, DWORD PTR _i$2[ebp]
  0046c	83 c0 01	 add	 eax, 1
  0046f	89 85 80 fe ff
	ff		 mov	 DWORD PTR _i$2[ebp], eax
$LN6@OnTCPSocke:
  00475	8b 85 84 fe ff
	ff		 mov	 eax, DWORD PTR _pTableFrame$3[ebp]
  0047b	8b 10		 mov	 edx, DWORD PTR [eax]
  0047d	8b 8d 84 fe ff
	ff		 mov	 ecx, DWORD PTR _pTableFrame$3[ebp]
  00483	8b 42 0c	 mov	 eax, DWORD PTR [edx+12]
  00486	ff d0		 call	 eax
  00488	0f b7 c8	 movzx	 ecx, ax
  0048b	39 8d 80 fe ff
	ff		 cmp	 DWORD PTR _i$2[ebp], ecx
  00491	7d 36		 jge	 SHORT $LN5@OnTCPSocke

; 1493 : 			{
; 1494 : 				memcpy(&(pDismissTable->PersonalUserScoreInfo[i]), &(pTableFrame->m_PersonalUserScoreInfo[i]),  sizeof(tagPersonalUserScoreInfo));

  00493	6a 3c		 push	 60			; 0000003cH
  00495	6b 85 80 fe ff
	ff 3c		 imul	 eax, DWORD PTR _i$2[ebp], 60
  0049c	8b 8d 84 fe ff
	ff		 mov	 ecx, DWORD PTR _pTableFrame$3[ebp]
  004a2	8d 94 01 9d 11
	00 00		 lea	 edx, DWORD PTR [ecx+eax+4509]
  004a9	52		 push	 edx
  004aa	6b 85 80 fe ff
	ff 3c		 imul	 eax, DWORD PTR _i$2[ebp], 60
  004b1	8b 8d 88 fe ff
	ff		 mov	 ecx, DWORD PTR _pDismissTable$4[ebp]
  004b7	8d 94 01 d5 00
	00 00		 lea	 edx, DWORD PTR [ecx+eax+213]
  004be	52		 push	 edx
  004bf	e8 00 00 00 00	 call	 _memcpy
  004c4	83 c4 0c	 add	 esp, 12			; 0000000cH

; 1495 : 			}

  004c7	eb 9d		 jmp	 SHORT $LN4@OnTCPSocke
$LN5@OnTCPSocke:

; 1496 : 			for (int i = 0; i < pTableFrame->GetChairCount(); i++)

  004c9	c7 85 7c fe ff
	ff 00 00 00 00	 mov	 DWORD PTR _i$1[ebp], 0
  004d3	eb 0f		 jmp	 SHORT $LN9@OnTCPSocke
$LN7@OnTCPSocke:
  004d5	8b 85 7c fe ff
	ff		 mov	 eax, DWORD PTR _i$1[ebp]
  004db	83 c0 01	 add	 eax, 1
  004de	89 85 7c fe ff
	ff		 mov	 DWORD PTR _i$1[ebp], eax
$LN9@OnTCPSocke:
  004e4	8b 85 84 fe ff
	ff		 mov	 eax, DWORD PTR _pTableFrame$3[ebp]
  004ea	8b 10		 mov	 edx, DWORD PTR [eax]
  004ec	8b 8d 84 fe ff
	ff		 mov	 ecx, DWORD PTR _pTableFrame$3[ebp]
  004f2	8b 42 0c	 mov	 eax, DWORD PTR [edx+12]
  004f5	ff d0		 call	 eax
  004f7	0f b7 c8	 movzx	 ecx, ax
  004fa	39 8d 7c fe ff
	ff		 cmp	 DWORD PTR _i$1[ebp], ecx
  00500	7d 23		 jge	 SHORT $LN8@OnTCPSocke

; 1497 : 			{
; 1498 : 				ZeroMemory(&(pTableFrame->m_PersonalUserScoreInfo[i]), sizeof(pTableFrame->m_PersonalUserScoreInfo[i]));

  00502	6a 3c		 push	 60			; 0000003cH
  00504	6a 00		 push	 0
  00506	6b 85 7c fe ff
	ff 3c		 imul	 eax, DWORD PTR _i$1[ebp], 60
  0050d	8b 8d 84 fe ff
	ff		 mov	 ecx, DWORD PTR _pTableFrame$3[ebp]
  00513	8d 94 01 9d 11
	00 00		 lea	 edx, DWORD PTR [ecx+eax+4509]
  0051a	52		 push	 edx
  0051b	e8 00 00 00 00	 call	 _memset
  00520	83 c4 0c	 add	 esp, 12			; 0000000cH

; 1499 : 			}

  00523	eb b0		 jmp	 SHORT $LN7@OnTCPSocke
$LN8@OnTCPSocke:

; 1500 : 
; 1501 : 			m_pIDBCorrespondManager->PostDataBaseRequest(0, DBR_GR_DISSUME_ROOM, 0, pDismissTable, sizeof(CMD_CS_C_DismissTableResult));

  00525	6a 00		 push	 0
  00527	68 b5 02 00 00	 push	 693			; 000002b5H
  0052c	8b 85 88 fe ff
	ff		 mov	 eax, DWORD PTR _pDismissTable$4[ebp]
  00532	50		 push	 eax
  00533	6a 00		 push	 0
  00535	68 19 05 00 00	 push	 1305			; 00000519H
  0053a	6a 00		 push	 0
  0053c	8b 4d f8	 mov	 ecx, DWORD PTR _this$[ebp]
  0053f	8b 91 a8 00 00
	00		 mov	 edx, DWORD PTR [ecx+168]
  00545	8b 45 f8	 mov	 eax, DWORD PTR _this$[ebp]
  00548	8b 88 a8 00 00
	00		 mov	 ecx, DWORD PTR [eax+168]
  0054e	8b 12		 mov	 edx, DWORD PTR [edx]
  00550	51		 push	 ecx
  00551	8b 42 14	 mov	 eax, DWORD PTR [edx+20]
  00554	ff d0		 call	 eax
  00556	83 c4 1c	 add	 esp, 28			; 0000001cH

; 1502 : 			return true;

  00559	b0 01		 mov	 al, 1
  0055b	eb 02		 jmp	 SHORT $LN1@OnTCPSocke
$LN2@OnTCPSocke:

; 1503 : 
; 1504 : 		}
; 1505 : 	}
; 1506 : 	return true;

  0055d	b0 01		 mov	 al, 1
$LN1@OnTCPSocke:

; 1507 : }

  0055f	5f		 pop	 edi
  00560	5e		 pop	 esi
  00561	5b		 pop	 ebx
  00562	8b 4d fc	 mov	 ecx, DWORD PTR __$ArrayPad$[ebp]
  00565	33 cd		 xor	 ecx, ebp
  00567	e8 00 00 00 00	 call	 @__security_check_cookie@4
  0056c	8b e5		 mov	 esp, ebp
  0056e	5d		 pop	 ebp
  0056f	c2 0c 00	 ret	 12			; 0000000cH
?OnTCPSocketMainServiceInfo@CPersonalRoomGame@@UAE_NGPAXG@Z ENDP ; CPersonalRoomGame::OnTCPSocketMainServiceInfo
_TEXT	ENDS
; Function compile flags: /Odtp /ZI
; File g:\网狐\happygamewh\服务端\系统模块\服务器组件\约战服务\personalroomgame.cpp
;	COMDAT ?OnDBCurrenceRoomCardAndBeant@CPersonalRoomGame@@IAE_NKPAXGPAUIServerUserItem@@@Z
_TEXT	SEGMENT
_DismissTable$ = -92					; size = 12
_pTableFrame$ = -80					; size = 4
_CurrenceRoomCardAndBeans$ = -76			; size = 64
_pCardAndBeans$ = -12					; size = 4
_this$ = -8						; size = 4
__$ArrayPad$ = -4					; size = 4
_dwContextID$ = 8					; size = 4
_pData$ = 12						; size = 4
_wDataSize$ = 16					; size = 2
_pIServerUserItem$ = 20					; size = 4
?OnDBCurrenceRoomCardAndBeant@CPersonalRoomGame@@IAE_NKPAXGPAUIServerUserItem@@@Z PROC ; CPersonalRoomGame::OnDBCurrenceRoomCardAndBeant, COMDAT
; _this$ = ecx

; 881  : {

  00000	55		 push	 ebp
  00001	8b ec		 mov	 ebp, esp
  00003	81 ec 9c 00 00
	00		 sub	 esp, 156		; 0000009cH
  00009	a1 00 00 00 00	 mov	 eax, DWORD PTR ___security_cookie
  0000e	33 c5		 xor	 eax, ebp
  00010	89 45 fc	 mov	 DWORD PTR __$ArrayPad$[ebp], eax
  00013	53		 push	 ebx
  00014	56		 push	 esi
  00015	57		 push	 edi
  00016	89 4d f8	 mov	 DWORD PTR _this$[ebp], ecx

; 882  : 	//效验参数
; 883  : 	ASSERT(wDataSize == sizeof(DBO_GR_CurrenceRoomCardAndBeans));

  00019	0f b7 45 10	 movzx	 eax, WORD PTR _wDataSize$[ebp]
  0001d	83 f8 44	 cmp	 eax, 68			; 00000044H
  00020	74 19		 je	 SHORT $LN6@OnDBCurren
  00022	8b 0d 00 00 00
	00		 mov	 ecx, DWORD PTR ?__LINE__Var@?0??OnDBCurrenceRoomCardAndBeant@CPersonalRoomGame@@IAE_NKPAXGPAUIServerUserItem@@@Z@4JA
  00028	83 c1 02	 add	 ecx, 2
  0002b	51		 push	 ecx
  0002c	68 00 00 00 00	 push	 OFFSET ??_C@_0EN@PBHPFOKJ@g?3?2?M?x?$LK?$PM?2happygamewh?2?$LH?$PO?N?q?$LG?K?2?O?$LF?M?$LD@
  00031	e8 00 00 00 00	 call	 ?AfxAssertFailedLine@@YGHPBDH@Z ; AfxAssertFailedLine
  00036	85 c0		 test	 eax, eax
  00038	74 01		 je	 SHORT $LN6@OnDBCurren
  0003a	cc		 int	 3
$LN6@OnDBCurren:

; 884  : 	if (sizeof(DBO_GR_CurrenceRoomCardAndBeans)!=wDataSize) return false;

  0003b	0f b7 45 10	 movzx	 eax, WORD PTR _wDataSize$[ebp]
  0003f	83 f8 44	 cmp	 eax, 68			; 00000044H
  00042	74 07		 je	 SHORT $LN2@OnDBCurren
  00044	32 c0		 xor	 al, al
  00046	e9 0a 01 00 00	 jmp	 $LN1@OnDBCurren
$LN2@OnDBCurren:

; 885  : 	DBO_GR_CurrenceRoomCardAndBeans * pCardAndBeans = (DBO_GR_CurrenceRoomCardAndBeans *)pData;

  0004b	8b 45 0c	 mov	 eax, DWORD PTR _pData$[ebp]
  0004e	89 45 f4	 mov	 DWORD PTR _pCardAndBeans$[ebp], eax

; 886  : 	CMD_GR_CurrenceRoomCardAndBeans  CurrenceRoomCardAndBeans;
; 887  : 	//CurrenceRoomCardAndBeans.lDiamond = pCardAndBeans->lDiamond;
; 888  : 	CurrenceRoomCardAndBeans.bConsumptionType = pCardAndBeans->bConsumptionType;

  00051	b9 10 00 00 00	 mov	 ecx, 16			; 00000010H
  00056	8b 75 f4	 mov	 esi, DWORD PTR _pCardAndBeans$[ebp]
  00059	8d 7d b4	 lea	 edi, DWORD PTR _CurrenceRoomCardAndBeans$[ebp]
  0005c	f3 a5		 rep movsd

; 889  : 
; 890  : 	m_pITCPNetworkEngine->SendData(dwContextID, MDM_GR_PERSONAL_TABLE, SUB_GR_CURRECE_ROOMCARD_AND_BEAN, &CurrenceRoomCardAndBeans, sizeof(CMD_GR_CurrenceRoomCardAndBeans));

  0005e	6a 40		 push	 64			; 00000040H
  00060	8d 45 b4	 lea	 eax, DWORD PTR _CurrenceRoomCardAndBeans$[ebp]
  00063	50		 push	 eax
  00064	6a 10		 push	 16			; 00000010H
  00066	68 d2 00 00 00	 push	 210			; 000000d2H
  0006b	8b 4d 08	 mov	 ecx, DWORD PTR _dwContextID$[ebp]
  0006e	51		 push	 ecx
  0006f	8b 55 f8	 mov	 edx, DWORD PTR _this$[ebp]
  00072	8b 82 b0 00 00
	00		 mov	 eax, DWORD PTR [edx+176]
  00078	8b 4d f8	 mov	 ecx, DWORD PTR _this$[ebp]
  0007b	8b 10		 mov	 edx, DWORD PTR [eax]
  0007d	8b 89 b0 00 00
	00		 mov	 ecx, DWORD PTR [ecx+176]
  00083	8b 42 20	 mov	 eax, DWORD PTR [edx+32]
  00086	ff d0		 call	 eax

; 891  : 
; 892  : 	//获取桌子
; 893  : 	CTableFrame* pTableFrame = (CTableFrame*)m_ppITableFrame[pCardAndBeans->dwTableID];

  00088	8b 45 f4	 mov	 eax, DWORD PTR _pCardAndBeans$[ebp]
  0008b	8b 48 40	 mov	 ecx, DWORD PTR [eax+64]
  0008e	8b 55 f8	 mov	 edx, DWORD PTR _this$[ebp]
  00091	8b 82 a0 00 00
	00		 mov	 eax, DWORD PTR [edx+160]
  00097	8b 0c 88	 mov	 ecx, DWORD PTR [eax+ecx*4]
  0009a	89 4d b0	 mov	 DWORD PTR _pTableFrame$[ebp], ecx

; 894  : 
; 895  : 	ASSERT(pTableFrame != NULL);

  0009d	83 7d b0 00	 cmp	 DWORD PTR _pTableFrame$[ebp], 0
  000a1	75 18		 jne	 SHORT $LN7@OnDBCurren
  000a3	a1 00 00 00 00	 mov	 eax, DWORD PTR ?__LINE__Var@?0??OnDBCurrenceRoomCardAndBeant@CPersonalRoomGame@@IAE_NKPAXGPAUIServerUserItem@@@Z@4JA
  000a8	83 c0 0e	 add	 eax, 14			; 0000000eH
  000ab	50		 push	 eax
  000ac	68 00 00 00 00	 push	 OFFSET ??_C@_0EN@PBHPFOKJ@g?3?2?M?x?$LK?$PM?2happygamewh?2?$LH?$PO?N?q?$LG?K?2?O?$LF?M?$LD@
  000b1	e8 00 00 00 00	 call	 ?AfxAssertFailedLine@@YGHPBDH@Z ; AfxAssertFailedLine
  000b6	85 c0		 test	 eax, eax
  000b8	74 01		 je	 SHORT $LN7@OnDBCurren
  000ba	cc		 int	 3
$LN7@OnDBCurren:

; 896  : 	if (pTableFrame == NULL) return false;

  000bb	83 7d b0 00	 cmp	 DWORD PTR _pTableFrame$[ebp], 0
  000bf	75 07		 jne	 SHORT $LN3@OnDBCurren
  000c1	32 c0		 xor	 al, al
  000c3	e9 8d 00 00 00	 jmp	 $LN1@OnDBCurren
$LN3@OnDBCurren:

; 897  : 
; 898  : 	pTableFrame->HostDissumeGame(true);

  000c8	6a 01		 push	 1
  000ca	8b 45 b0	 mov	 eax, DWORD PTR _pTableFrame$[ebp]
  000cd	8b 10		 mov	 edx, DWORD PTR [eax]
  000cf	8b 4d b0	 mov	 ecx, DWORD PTR _pTableFrame$[ebp]
  000d2	8b 82 44 01 00
	00		 mov	 eax, DWORD PTR [edx+324]
  000d8	ff d0		 call	 eax

; 899  : 
; 900  : 	if (pTableFrame)

  000da	83 7d b0 00	 cmp	 DWORD PTR _pTableFrame$[ebp], 0
  000de	74 0f		 je	 SHORT $LN4@OnDBCurren

; 901  : 	{
; 902  : 		pTableFrame->SetPersonalTableLocked(false);

  000e0	6a 00		 push	 0
  000e2	8b 45 b0	 mov	 eax, DWORD PTR _pTableFrame$[ebp]
  000e5	8b 10		 mov	 edx, DWORD PTR [eax]
  000e7	8b 4d b0	 mov	 ecx, DWORD PTR _pTableFrame$[ebp]
  000ea	8b 42 4c	 mov	 eax, DWORD PTR [edx+76]
  000ed	ff d0		 call	 eax
$LN4@OnDBCurren:

; 903  : 	}
; 904  : 
; 905  : 	//发送数据
; 906  : 	CMD_CS_C_DismissTable DismissTable;

  000ef	8d 4d a4	 lea	 ecx, DWORD PTR _DismissTable$[ebp]
  000f2	e8 00 00 00 00	 call	 ??0CMD_CS_C_DismissTable@@QAE@XZ ; CMD_CS_C_DismissTable::CMD_CS_C_DismissTable

; 907  : 	ZeroMemory(&DismissTable, sizeof(CMD_CS_C_DismissTable));

  000f7	6a 0c		 push	 12			; 0000000cH
  000f9	6a 00		 push	 0
  000fb	8d 45 a4	 lea	 eax, DWORD PTR _DismissTable$[ebp]
  000fe	50		 push	 eax
  000ff	e8 00 00 00 00	 call	 _memset
  00104	83 c4 0c	 add	 esp, 12			; 0000000cH

; 908  : 	DismissTable.dwSocketID = dwContextID;

  00107	8b 45 08	 mov	 eax, DWORD PTR _dwContextID$[ebp]
  0010a	89 45 a4	 mov	 DWORD PTR _DismissTable$[ebp], eax

; 909  : 	DismissTable.dwServerID = m_pGameServiceOption->wServerID;

  0010d	8b 45 f8	 mov	 eax, DWORD PTR _this$[ebp]
  00110	8b 48 10	 mov	 ecx, DWORD PTR [eax+16]
  00113	0f b7 51 06	 movzx	 edx, WORD PTR [ecx+6]
  00117	89 55 a8	 mov	 DWORD PTR _DismissTable$[ebp+4], edx

; 910  : 	DismissTable.dwTableID = pTableFrame->GetTableID();

  0011a	8b 45 b0	 mov	 eax, DWORD PTR _pTableFrame$[ebp]
  0011d	8b 10		 mov	 edx, DWORD PTR [eax]
  0011f	8b 4d b0	 mov	 ecx, DWORD PTR _pTableFrame$[ebp]
  00122	8b 42 08	 mov	 eax, DWORD PTR [edx+8]
  00125	ff d0		 call	 eax
  00127	0f b7 c8	 movzx	 ecx, ax
  0012a	89 4d ac	 mov	 DWORD PTR _DismissTable$[ebp+8], ecx

; 911  : 
; 912  : 	//发送消息
; 913  : 	m_pITCPSocketService->SendData(MDM_CS_SERVICE_INFO, SUB_CS_C_DISMISS_TABLE, &DismissTable, sizeof(CMD_CS_C_DismissTable));

  0012d	6a 0c		 push	 12			; 0000000cH
  0012f	8d 45 a4	 lea	 eax, DWORD PTR _DismissTable$[ebp]
  00132	50		 push	 eax
  00133	68 89 00 00 00	 push	 137			; 00000089H
  00138	6a 02		 push	 2
  0013a	8b 4d f8	 mov	 ecx, DWORD PTR _this$[ebp]
  0013d	8b 91 b4 00 00
	00		 mov	 edx, DWORD PTR [ecx+180]
  00143	8b 45 f8	 mov	 eax, DWORD PTR _this$[ebp]
  00146	8b 12		 mov	 edx, DWORD PTR [edx]
  00148	8b 88 b4 00 00
	00		 mov	 ecx, DWORD PTR [eax+180]
  0014e	8b 42 24	 mov	 eax, DWORD PTR [edx+36]
  00151	ff d0		 call	 eax

; 914  : 
; 915  : 	return true;

  00153	b0 01		 mov	 al, 1
$LN1@OnDBCurren:

; 916  : }

  00155	5f		 pop	 edi
  00156	5e		 pop	 esi
  00157	5b		 pop	 ebx
  00158	8b 4d fc	 mov	 ecx, DWORD PTR __$ArrayPad$[ebp]
  0015b	33 cd		 xor	 ecx, ebp
  0015d	e8 00 00 00 00	 call	 @__security_check_cookie@4
  00162	8b e5		 mov	 esp, ebp
  00164	5d		 pop	 ebp
  00165	c2 10 00	 ret	 16			; 00000010H
?OnDBCurrenceRoomCardAndBeant@CPersonalRoomGame@@IAE_NKPAXGPAUIServerUserItem@@@Z ENDP ; CPersonalRoomGame::OnDBCurrenceRoomCardAndBeant
_TEXT	ENDS
; Function compile flags: /Odtp /ZI
; File g:\网狐\happygamewh\服务端\系统模块\服务器组件\约战服务\personalroomgame.cpp
;	COMDAT ?OnDBDissumeTableResult@CPersonalRoomGame@@IAE_NKPAXGPAUIServerUserItem@@@Z
_TEXT	SEGMENT
_i$1 = -520						; size = 4
_DissumeTable$ = -516					; size = 501
_pDissumeResult$ = -12					; size = 4
_this$ = -8						; size = 4
__$ArrayPad$ = -4					; size = 4
_dwContextID$ = 8					; size = 4
_pData$ = 12						; size = 4
_wDataSize$ = 16					; size = 2
_pIServerUserItem$ = 20					; size = 4
?OnDBDissumeTableResult@CPersonalRoomGame@@IAE_NKPAXGPAUIServerUserItem@@@Z PROC ; CPersonalRoomGame::OnDBDissumeTableResult, COMDAT
; _this$ = ecx

; 920  : {

  00000	55		 push	 ebp
  00001	8b ec		 mov	 ebp, esp
  00003	81 ec 88 02 00
	00		 sub	 esp, 648		; 00000288H
  00009	a1 00 00 00 00	 mov	 eax, DWORD PTR ___security_cookie
  0000e	33 c5		 xor	 eax, ebp
  00010	89 45 fc	 mov	 DWORD PTR __$ArrayPad$[ebp], eax
  00013	53		 push	 ebx
  00014	56		 push	 esi
  00015	57		 push	 edi
  00016	89 4d f8	 mov	 DWORD PTR _this$[ebp], ecx

; 921  : 	//效验参数
; 922  : 	ASSERT(wDataSize == sizeof(DBO_GR_DissumeResult));

  00019	0f b7 45 10	 movzx	 eax, WORD PTR _wDataSize$[ebp]
  0001d	3d 00 02 00 00	 cmp	 eax, 512		; 00000200H
  00022	74 19		 je	 SHORT $LN7@OnDBDissum
  00024	8b 0d 00 00 00
	00		 mov	 ecx, DWORD PTR ?__LINE__Var@?0??OnDBDissumeTableResult@CPersonalRoomGame@@IAE_NKPAXGPAUIServerUserItem@@@Z@4JA
  0002a	83 c1 02	 add	 ecx, 2
  0002d	51		 push	 ecx
  0002e	68 00 00 00 00	 push	 OFFSET ??_C@_0EN@PBHPFOKJ@g?3?2?M?x?$LK?$PM?2happygamewh?2?$LH?$PO?N?q?$LG?K?2?O?$LF?M?$LD@
  00033	e8 00 00 00 00	 call	 ?AfxAssertFailedLine@@YGHPBDH@Z ; AfxAssertFailedLine
  00038	85 c0		 test	 eax, eax
  0003a	74 01		 je	 SHORT $LN7@OnDBDissum
  0003c	cc		 int	 3
$LN7@OnDBDissum:

; 923  : 	if (sizeof(DBO_GR_DissumeResult)!=wDataSize) return false;

  0003d	0f b7 45 10	 movzx	 eax, WORD PTR _wDataSize$[ebp]
  00041	3d 00 02 00 00	 cmp	 eax, 512		; 00000200H
  00046	74 07		 je	 SHORT $LN5@OnDBDissum
  00048	32 c0		 xor	 al, al
  0004a	e9 d4 00 00 00	 jmp	 $LN1@OnDBDissum
$LN5@OnDBDissum:

; 924  : 	DBO_GR_DissumeResult * pDissumeResult = (DBO_GR_DissumeResult *)pData;

  0004f	8b 45 0c	 mov	 eax, DWORD PTR _pData$[ebp]
  00052	89 45 f4	 mov	 DWORD PTR _pDissumeResult$[ebp], eax

; 925  : 	CMD_GR_DissumeTable  DissumeTable;

  00055	8d 8d fc fd ff
	ff		 lea	 ecx, DWORD PTR _DissumeTable$[ebp]
  0005b	e8 00 00 00 00	 call	 ??0CMD_GR_DissumeTable@@QAE@XZ

; 926  : 	DissumeTable.cbIsDissumSuccess = pDissumeResult->cbIsDissumSuccess;

  00060	8b 45 f4	 mov	 eax, DWORD PTR _pDissumeResult$[ebp]
  00063	8a 48 08	 mov	 cl, BYTE PTR [eax+8]
  00066	88 8d fc fd ff
	ff		 mov	 BYTE PTR _DissumeTable$[ebp], cl

; 927  : 	DissumeTable.dwPersonalRoomID = pDissumeResult->dwPersonalRoomID;

  0006c	8b 45 f4	 mov	 eax, DWORD PTR _pDissumeResult$[ebp]
  0006f	8b 48 0c	 mov	 ecx, DWORD PTR [eax+12]
  00072	89 8d fd fd ff
	ff		 mov	 DWORD PTR _DissumeTable$[ebp+1], ecx

; 928  : 	DissumeTable.sysDissumeTime = pDissumeResult->sysDissumeTime;

  00078	8b 45 f4	 mov	 eax, DWORD PTR _pDissumeResult$[ebp]
  0007b	83 c0 10	 add	 eax, 16			; 00000010H
  0007e	8b 08		 mov	 ecx, DWORD PTR [eax]
  00080	89 8d 01 fe ff
	ff		 mov	 DWORD PTR _DissumeTable$[ebp+5], ecx
  00086	8b 50 04	 mov	 edx, DWORD PTR [eax+4]
  00089	89 95 05 fe ff
	ff		 mov	 DWORD PTR _DissumeTable$[ebp+9], edx
  0008f	8b 48 08	 mov	 ecx, DWORD PTR [eax+8]
  00092	89 8d 09 fe ff
	ff		 mov	 DWORD PTR _DissumeTable$[ebp+13], ecx
  00098	8b 50 0c	 mov	 edx, DWORD PTR [eax+12]
  0009b	89 95 0d fe ff
	ff		 mov	 DWORD PTR _DissumeTable$[ebp+17], edx

; 929  : 
; 930  : 	//获取房间玩家的信息
; 931  : 	for (int i = 0; i < PERSONAL_ROOM_CHAIR; i++)

  000a1	c7 85 f8 fd ff
	ff 00 00 00 00	 mov	 DWORD PTR _i$1[ebp], 0
  000ab	eb 0f		 jmp	 SHORT $LN4@OnDBDissum
$LN2@OnDBDissum:
  000ad	8b 85 f8 fd ff
	ff		 mov	 eax, DWORD PTR _i$1[ebp]
  000b3	83 c0 01	 add	 eax, 1
  000b6	89 85 f8 fd ff
	ff		 mov	 DWORD PTR _i$1[ebp], eax
$LN4@OnDBDissum:
  000bc	83 bd f8 fd ff
	ff 08		 cmp	 DWORD PTR _i$1[ebp], 8
  000c3	7d 2a		 jge	 SHORT $LN3@OnDBDissum

; 932  : 	{
; 933  : 		memcpy(&DissumeTable.PersonalUserScoreInfo[i],  &pDissumeResult->PersonalUserScoreInfo[i],  sizeof(tagPersonalUserScoreInfo));

  000c5	6a 3c		 push	 60			; 0000003cH
  000c7	6b 85 f8 fd ff
	ff 3c		 imul	 eax, DWORD PTR _i$1[ebp], 60
  000ce	8b 4d f4	 mov	 ecx, DWORD PTR _pDissumeResult$[ebp]
  000d1	8d 54 01 20	 lea	 edx, DWORD PTR [ecx+eax+32]
  000d5	52		 push	 edx
  000d6	6b 85 f8 fd ff
	ff 3c		 imul	 eax, DWORD PTR _i$1[ebp], 60
  000dd	8d 8c 05 11 fe
	ff ff		 lea	 ecx, DWORD PTR _DissumeTable$[ebp+eax+21]
  000e4	51		 push	 ecx
  000e5	e8 00 00 00 00	 call	 _memcpy
  000ea	83 c4 0c	 add	 esp, 12			; 0000000cH

; 934  : 	}

  000ed	eb be		 jmp	 SHORT $LN2@OnDBDissum
$LN3@OnDBDissum:

; 935  : 
; 936  : 	m_pITCPNetworkEngine->SendData(pDissumeResult->dwSocketID, MDM_GR_PERSONAL_TABLE, SUB_GR_HOST_DISSUME_TABLE_RESULT, &DissumeTable, sizeof(CMD_GR_DissumeTable));

  000ef	68 f5 01 00 00	 push	 501			; 000001f5H
  000f4	8d 85 fc fd ff
	ff		 lea	 eax, DWORD PTR _DissumeTable$[ebp]
  000fa	50		 push	 eax
  000fb	6a 0d		 push	 13			; 0000000dH
  000fd	68 d2 00 00 00	 push	 210			; 000000d2H
  00102	8b 4d f4	 mov	 ecx, DWORD PTR _pDissumeResult$[ebp]
  00105	8b 11		 mov	 edx, DWORD PTR [ecx]
  00107	52		 push	 edx
  00108	8b 45 f8	 mov	 eax, DWORD PTR _this$[ebp]
  0010b	8b 88 b0 00 00
	00		 mov	 ecx, DWORD PTR [eax+176]
  00111	8b 55 f8	 mov	 edx, DWORD PTR _this$[ebp]
  00114	8b 01		 mov	 eax, DWORD PTR [ecx]
  00116	8b 8a b0 00 00
	00		 mov	 ecx, DWORD PTR [edx+176]
  0011c	8b 50 20	 mov	 edx, DWORD PTR [eax+32]
  0011f	ff d2		 call	 edx

; 937  : 
; 938  : 	return true;

  00121	b0 01		 mov	 al, 1
$LN1@OnDBDissum:

; 939  : 
; 940  : }

  00123	5f		 pop	 edi
  00124	5e		 pop	 esi
  00125	5b		 pop	 ebx
  00126	8b 4d fc	 mov	 ecx, DWORD PTR __$ArrayPad$[ebp]
  00129	33 cd		 xor	 ecx, ebp
  0012b	e8 00 00 00 00	 call	 @__security_check_cookie@4
  00130	8b e5		 mov	 esp, ebp
  00132	5d		 pop	 ebp
  00133	c2 10 00	 ret	 16			; 00000010H
?OnDBDissumeTableResult@CPersonalRoomGame@@IAE_NKPAXGPAUIServerUserItem@@@Z ENDP ; CPersonalRoomGame::OnDBDissumeTableResult
_TEXT	ENDS
; Function compile flags: /Odtp /ZI
; File g:\网狐\happygamewh\服务端\系统模块\服务器组件\约战服务\personalroomgame.cpp
;	COMDAT ?OnDBLoadPersonalParameter@CPersonalRoomGame@@IAE_NKPAXGPAUIServerUserItem@@@Z
_TEXT	SEGMENT
$T2 = -120						; size = 4
$T3 = -116						; size = 4
_pPersonalTableParameter$4 = -48			; size = 4
_i$5 = -44						; size = 4
_pParameterData$ = -40					; size = 4
_wCount$ = -36						; size = 2
_pPersonalTableParameter$6 = -32			; size = 4
_i$7 = -28						; size = 4
_nSize$8 = -24						; size = 4
_this$ = -20						; size = 4
__$EHRec$ = -16						; size = 16
_dwContextID$ = 8					; size = 4
_pData$ = 12						; size = 4
_wDataSize$ = 16					; size = 2
_pIServerUserItem$ = 20					; size = 4
?OnDBLoadPersonalParameter@CPersonalRoomGame@@IAE_NKPAXGPAUIServerUserItem@@@Z PROC ; CPersonalRoomGame::OnDBLoadPersonalParameter, COMDAT
; _this$ = ecx

; 945  : {

  00000	55		 push	 ebp
  00001	8b ec		 mov	 ebp, esp
  00003	6a ff		 push	 -1
  00005	68 00 00 00 00	 push	 __ehhandler$?OnDBLoadPersonalParameter@CPersonalRoomGame@@IAE_NKPAXGPAUIServerUserItem@@@Z
  0000a	64 a1 00 00 00
	00		 mov	 eax, DWORD PTR fs:0
  00010	50		 push	 eax
  00011	51		 push	 ecx
  00012	83 ec 68	 sub	 esp, 104		; 00000068H
  00015	53		 push	 ebx
  00016	56		 push	 esi
  00017	57		 push	 edi
  00018	a1 00 00 00 00	 mov	 eax, DWORD PTR ___security_cookie
  0001d	33 c5		 xor	 eax, ebp
  0001f	50		 push	 eax
  00020	8d 45 f4	 lea	 eax, DWORD PTR __$EHRec$[ebp+4]
  00023	64 a3 00 00 00
	00		 mov	 DWORD PTR fs:0, eax
  00029	89 65 f0	 mov	 DWORD PTR __$EHRec$[ebp], esp
  0002c	89 4d ec	 mov	 DWORD PTR _this$[ebp], ecx

; 946  : 	//效验参数
; 947  : 	ASSERT(wDataSize%sizeof(tagPersonalTableParameter)==0);

  0002f	0f b7 45 10	 movzx	 eax, WORD PTR _wDataSize$[ebp]
  00033	33 d2		 xor	 edx, edx
  00035	b9 30 00 00 00	 mov	 ecx, 48			; 00000030H
  0003a	f7 f1		 div	 ecx
  0003c	85 d2		 test	 edx, edx
  0003e	74 19		 je	 SHORT $LN12@OnDBLoadPe
  00040	8b 15 00 00 00
	00		 mov	 edx, DWORD PTR ?__LINE__Var@?0??OnDBLoadPersonalParameter@CPersonalRoomGame@@IAE_NKPAXGPAUIServerUserItem@@@Z@4JA
  00046	83 c2 02	 add	 edx, 2
  00049	52		 push	 edx
  0004a	68 00 00 00 00	 push	 OFFSET ??_C@_0EN@PBHPFOKJ@g?3?2?M?x?$LK?$PM?2happygamewh?2?$LH?$PO?N?q?$LG?K?2?O?$LF?M?$LD@
  0004f	e8 00 00 00 00	 call	 ?AfxAssertFailedLine@@YGHPBDH@Z ; AfxAssertFailedLine
  00054	85 c0		 test	 eax, eax
  00056	74 01		 je	 SHORT $LN12@OnDBLoadPe
  00058	cc		 int	 3
$LN12@OnDBLoadPe:

; 948  : 	if (wDataSize%sizeof(tagPersonalTableParameter)!=0) return false;

  00059	0f b7 45 10	 movzx	 eax, WORD PTR _wDataSize$[ebp]
  0005d	33 d2		 xor	 edx, edx
  0005f	b9 30 00 00 00	 mov	 ecx, 48			; 00000030H
  00064	f7 f1		 div	 ecx
  00066	85 d2		 test	 edx, edx
  00068	74 07		 je	 SHORT $LN8@OnDBLoadPe
  0006a	32 c0		 xor	 al, al
  0006c	e9 5d 01 00 00	 jmp	 $LN1@OnDBLoadPe
$LN8@OnDBLoadPe:

; 949  : 
; 950  : 	//清楚缓存
; 951  : 	ASSERT(m_PersonalTableParameterArray.GetCount() == 0);

  00071	8b 4d ec	 mov	 ecx, DWORD PTR _this$[ebp]
  00074	81 c1 8c 00 00
	00		 add	 ecx, 140		; 0000008cH
  0007a	e8 00 00 00 00	 call	 ?GetCount@?$CWHArray@PAUtagPersonalTableParameter@@ABQAU1@@@QBEHXZ ; CWHArray<tagPersonalTableParameter *,tagPersonalTableParameter * const &>::GetCount
  0007f	85 c0		 test	 eax, eax
  00081	74 18		 je	 SHORT $LN13@OnDBLoadPe
  00083	a1 00 00 00 00	 mov	 eax, DWORD PTR ?__LINE__Var@?0??OnDBLoadPersonalParameter@CPersonalRoomGame@@IAE_NKPAXGPAUIServerUserItem@@@Z@4JA
  00088	83 c0 06	 add	 eax, 6
  0008b	50		 push	 eax
  0008c	68 00 00 00 00	 push	 OFFSET ??_C@_0EN@PBHPFOKJ@g?3?2?M?x?$LK?$PM?2happygamewh?2?$LH?$PO?N?q?$LG?K?2?O?$LF?M?$LD@
  00091	e8 00 00 00 00	 call	 ?AfxAssertFailedLine@@YGHPBDH@Z ; AfxAssertFailedLine
  00096	85 c0		 test	 eax, eax
  00098	74 01		 je	 SHORT $LN13@OnDBLoadPe
  0009a	cc		 int	 3
$LN13@OnDBLoadPe:

; 952  : 	if(m_PersonalTableParameterArray.GetCount() != 0)

  0009b	8b 4d ec	 mov	 ecx, DWORD PTR _this$[ebp]
  0009e	81 c1 8c 00 00
	00		 add	 ecx, 140		; 0000008cH
  000a4	e8 00 00 00 00	 call	 ?GetCount@?$CWHArray@PAUtagPersonalTableParameter@@ABQAU1@@@QBEHXZ ; CWHArray<tagPersonalTableParameter *,tagPersonalTableParameter * const &>::GetCount
  000a9	85 c0		 test	 eax, eax
  000ab	0f 84 ac 00 00
	00		 je	 $LN9@OnDBLoadPe

; 953  : 	{
; 954  : 		INT_PTR nSize = m_PersonalTableParameterArray.GetCount();

  000b1	8b 4d ec	 mov	 ecx, DWORD PTR _this$[ebp]
  000b4	81 c1 8c 00 00
	00		 add	 ecx, 140		; 0000008cH
  000ba	e8 00 00 00 00	 call	 ?GetCount@?$CWHArray@PAUtagPersonalTableParameter@@ABQAU1@@@QBEHXZ ; CWHArray<tagPersonalTableParameter *,tagPersonalTableParameter * const &>::GetCount
  000bf	89 45 e8	 mov	 DWORD PTR _nSize$8[ebp], eax

; 955  : 		for(INT_PTR i = 0; i < nSize; ++i)

  000c2	c7 45 e4 00 00
	00 00		 mov	 DWORD PTR _i$7[ebp], 0
  000c9	eb 09		 jmp	 SHORT $LN4@OnDBLoadPe
$LN2@OnDBLoadPe:
  000cb	8b 45 e4	 mov	 eax, DWORD PTR _i$7[ebp]
  000ce	83 c0 01	 add	 eax, 1
  000d1	89 45 e4	 mov	 DWORD PTR _i$7[ebp], eax
$LN4@OnDBLoadPe:
  000d4	8b 45 e4	 mov	 eax, DWORD PTR _i$7[ebp]
  000d7	3b 45 e8	 cmp	 eax, DWORD PTR _nSize$8[ebp]
  000da	7d 73		 jge	 SHORT $LN3@OnDBLoadPe

; 956  : 		{
; 957  : 			tagPersonalTableParameter* pPersonalTableParameter = m_PersonalTableParameterArray.GetAt(i);

  000dc	8b 45 e4	 mov	 eax, DWORD PTR _i$7[ebp]
  000df	50		 push	 eax
  000e0	8b 4d ec	 mov	 ecx, DWORD PTR _this$[ebp]
  000e3	81 c1 8c 00 00
	00		 add	 ecx, 140		; 0000008cH
  000e9	e8 00 00 00 00	 call	 ?GetAt@?$CWHArray@PAUtagPersonalTableParameter@@ABQAU1@@@QAEAAPAUtagPersonalTableParameter@@H@Z ; CWHArray<tagPersonalTableParameter *,tagPersonalTableParameter * const &>::GetAt
  000ee	8b 08		 mov	 ecx, DWORD PTR [eax]
  000f0	89 4d e0	 mov	 DWORD PTR _pPersonalTableParameter$6[ebp], ecx

; 958  : 			SafeDelete(pPersonalTableParameter);

  000f3	c7 45 fc 00 00
	00 00		 mov	 DWORD PTR __$EHRec$[ebp+12], 0
  000fa	8b 45 e0	 mov	 eax, DWORD PTR _pPersonalTableParameter$6[ebp]
  000fd	89 45 8c	 mov	 DWORD PTR $T3[ebp], eax
  00100	6a 30		 push	 48			; 00000030H
  00102	8b 4d 8c	 mov	 ecx, DWORD PTR $T3[ebp]
  00105	51		 push	 ecx
  00106	e8 00 00 00 00	 call	 ??3@YAXPAXI@Z		; operator delete
  0010b	83 c4 08	 add	 esp, 8
  0010e	eb 23		 jmp	 SHORT $LN15@OnDBLoadPe
__catch$?OnDBLoadPersonalParameter@CPersonalRoomGame@@IAE_NKPAXGPAUIServerUserItem@@@Z$0:
  00110	33 c0		 xor	 eax, eax
  00112	75 19		 jne	 SHORT $LN14@OnDBLoadPe
  00114	8b 0d 00 00 00
	00		 mov	 ecx, DWORD PTR ?__LINE__Var@?0??OnDBLoadPersonalParameter@CPersonalRoomGame@@IAE_NKPAXGPAUIServerUserItem@@@Z@4JA
  0011a	83 c1 0d	 add	 ecx, 13			; 0000000dH
  0011d	51		 push	 ecx
  0011e	68 00 00 00 00	 push	 OFFSET ??_C@_0EN@PBHPFOKJ@g?3?2?M?x?$LK?$PM?2happygamewh?2?$LH?$PO?N?q?$LG?K?2?O?$LF?M?$LD@
  00123	e8 00 00 00 00	 call	 ?AfxAssertFailedLine@@YGHPBDH@Z ; AfxAssertFailedLine
  00128	85 c0		 test	 eax, eax
  0012a	74 01		 je	 SHORT $LN14@OnDBLoadPe
  0012c	cc		 int	 3
$LN14@OnDBLoadPe:
  0012d	b8 00 00 00 00	 mov	 eax, $LN18@OnDBLoadPe
  00132	c3		 ret	 0
$LN15@OnDBLoadPe:
  00133	c7 45 fc ff ff
	ff ff		 mov	 DWORD PTR __$EHRec$[ebp+12], -1
  0013a	eb 07		 jmp	 SHORT __tryend$?OnDBLoadPersonalParameter@CPersonalRoomGame@@IAE_NKPAXGPAUIServerUserItem@@@Z$1
$LN18@OnDBLoadPe:
  0013c	c7 45 fc ff ff
	ff ff		 mov	 DWORD PTR __$EHRec$[ebp+12], -1
__tryend$?OnDBLoadPersonalParameter@CPersonalRoomGame@@IAE_NKPAXGPAUIServerUserItem@@@Z$1:
  00143	c7 45 e0 00 00
	00 00		 mov	 DWORD PTR _pPersonalTableParameter$6[ebp], 0

; 959  : 		}

  0014a	e9 7c ff ff ff	 jmp	 $LN2@OnDBLoadPe
$LN3@OnDBLoadPe:

; 960  : 		m_PersonalTableParameterArray.RemoveAll();

  0014f	8b 4d ec	 mov	 ecx, DWORD PTR _this$[ebp]
  00152	81 c1 8c 00 00
	00		 add	 ecx, 140		; 0000008cH
  00158	e8 00 00 00 00	 call	 ?RemoveAll@?$CWHArray@PAUtagPersonalTableParameter@@ABQAU1@@@QAEXXZ ; CWHArray<tagPersonalTableParameter *,tagPersonalTableParameter * const &>::RemoveAll
$LN9@OnDBLoadPe:

; 961  : 	}
; 962  : 
; 963  : 	//数据转换
; 964  : 	WORD wCount = wDataSize/sizeof(tagPersonalTableParameter);

  0015d	0f b7 45 10	 movzx	 eax, WORD PTR _wDataSize$[ebp]
  00161	33 d2		 xor	 edx, edx
  00163	b9 30 00 00 00	 mov	 ecx, 48			; 00000030H
  00168	f7 f1		 div	 ecx
  0016a	66 89 45 dc	 mov	 WORD PTR _wCount$[ebp], ax

; 965  : 	tagPersonalTableParameter* pParameterData = (tagPersonalTableParameter*)pData;

  0016e	8b 45 0c	 mov	 eax, DWORD PTR _pData$[ebp]
  00171	89 45 d8	 mov	 DWORD PTR _pParameterData$[ebp], eax

; 966  : 
; 967  : 	//保存配置
; 968  : 	for(int i = 0; i < wCount; ++i)

  00174	c7 45 d4 00 00
	00 00		 mov	 DWORD PTR _i$5[ebp], 0
  0017b	eb 09		 jmp	 SHORT $LN7@OnDBLoadPe
$LN5@OnDBLoadPe:
  0017d	8b 45 d4	 mov	 eax, DWORD PTR _i$5[ebp]
  00180	83 c0 01	 add	 eax, 1
  00183	89 45 d4	 mov	 DWORD PTR _i$5[ebp], eax
$LN7@OnDBLoadPe:
  00186	0f b7 45 dc	 movzx	 eax, WORD PTR _wCount$[ebp]
  0018a	39 45 d4	 cmp	 DWORD PTR _i$5[ebp], eax
  0018d	7d 3d		 jge	 SHORT $LN6@OnDBLoadPe

; 969  : 	{
; 970  : 		tagPersonalTableParameter* pPersonalTableParameter = new tagPersonalTableParameter;

  0018f	6a 30		 push	 48			; 00000030H
  00191	e8 00 00 00 00	 call	 ??2@YAPAXI@Z		; operator new
  00196	83 c4 04	 add	 esp, 4
  00199	89 45 88	 mov	 DWORD PTR $T2[ebp], eax
  0019c	8b 45 88	 mov	 eax, DWORD PTR $T2[ebp]
  0019f	89 45 d0	 mov	 DWORD PTR _pPersonalTableParameter$4[ebp], eax

; 971  : 		CopyMemory(pPersonalTableParameter,&pParameterData[i],sizeof(tagPersonalTableParameter));

  001a2	6a 30		 push	 48			; 00000030H
  001a4	6b 45 d4 30	 imul	 eax, DWORD PTR _i$5[ebp], 48
  001a8	03 45 d8	 add	 eax, DWORD PTR _pParameterData$[ebp]
  001ab	50		 push	 eax
  001ac	8b 4d d0	 mov	 ecx, DWORD PTR _pPersonalTableParameter$4[ebp]
  001af	51		 push	 ecx
  001b0	e8 00 00 00 00	 call	 _memcpy
  001b5	83 c4 0c	 add	 esp, 12			; 0000000cH

; 972  : 		m_PersonalTableParameterArray.Add(pPersonalTableParameter);

  001b8	8d 45 d0	 lea	 eax, DWORD PTR _pPersonalTableParameter$4[ebp]
  001bb	50		 push	 eax
  001bc	8b 4d ec	 mov	 ecx, DWORD PTR _this$[ebp]
  001bf	81 c1 8c 00 00
	00		 add	 ecx, 140		; 0000008cH
  001c5	e8 00 00 00 00	 call	 ?Add@?$CWHArray@PAUtagPersonalTableParameter@@ABQAU1@@@QAEHABQAUtagPersonalTableParameter@@@Z ; CWHArray<tagPersonalTableParameter *,tagPersonalTableParameter * const &>::Add

; 973  : 	}

  001ca	eb b1		 jmp	 SHORT $LN5@OnDBLoadPe
$LN6@OnDBLoadPe:

; 974  : 
; 975  : 	return true;

  001cc	b0 01		 mov	 al, 1
$LN1@OnDBLoadPe:

; 976  : }

  001ce	8b 4d f4	 mov	 ecx, DWORD PTR __$EHRec$[ebp+4]
  001d1	64 89 0d 00 00
	00 00		 mov	 DWORD PTR fs:0, ecx
  001d8	59		 pop	 ecx
  001d9	5f		 pop	 edi
  001da	5e		 pop	 esi
  001db	5b		 pop	 ebx
  001dc	8b e5		 mov	 esp, ebp
  001de	5d		 pop	 ebp
  001df	c2 10 00	 ret	 16			; 00000010H
_TEXT	ENDS
;	COMDAT text$x
text$x	SEGMENT
__ehhandler$?OnDBLoadPersonalParameter@CPersonalRoomGame@@IAE_NKPAXGPAUIServerUserItem@@@Z:
  00000	8b 54 24 08	 mov	 edx, DWORD PTR [esp+8]
  00004	8d 42 0c	 lea	 eax, DWORD PTR [edx+12]
  00007	8b 4a 84	 mov	 ecx, DWORD PTR [edx-124]
  0000a	33 c8		 xor	 ecx, eax
  0000c	e8 00 00 00 00	 call	 @__security_check_cookie@4
  00011	b8 00 00 00 00	 mov	 eax, OFFSET __ehfuncinfo$?OnDBLoadPersonalParameter@CPersonalRoomGame@@IAE_NKPAXGPAUIServerUserItem@@@Z
  00016	e9 00 00 00 00	 jmp	 ___CxxFrameHandler3
text$x	ENDS
?OnDBLoadPersonalParameter@CPersonalRoomGame@@IAE_NKPAXGPAUIServerUserItem@@@Z ENDP ; CPersonalRoomGame::OnDBLoadPersonalParameter
; Function compile flags: /Odtp /ZI
; File g:\网狐\happygamewh\服务端\系统模块\服务器组件\约战服务\personalroomgame.cpp
;	COMDAT ?OnDBCancelCreateTable@CPersonalRoomGame@@IAE_NKPAXGPAUIServerUserItem@@@Z
_TEXT	SEGMENT
tv79 = -380						; size = 4
tv80 = -376						; size = 4
_CancelTable$ = -308					; size = 132
_CancelTable$1 = -176					; size = 132
_pBind$2 = -44						; size = 4
_wBindIndex$3 = -40					; size = 2
_pUserItem$4 = -36					; size = 4
_i$5 = -32						; size = 4
_wChairCount$ = -28					; size = 2
_pTableFrame$ = -24					; size = 4
_pCancelCreateResult$ = -20				; size = 4
_pBindParameter$ = -16					; size = 4
_pAttemperEngineSink$ = -12				; size = 4
_this$ = -8						; size = 4
__$ArrayPad$ = -4					; size = 4
_dwContextID$ = 8					; size = 4
_pData$ = 12						; size = 4
_wDataSize$ = 16					; size = 2
_pIServerUserItem$ = 20					; size = 4
?OnDBCancelCreateTable@CPersonalRoomGame@@IAE_NKPAXGPAUIServerUserItem@@@Z PROC ; CPersonalRoomGame::OnDBCancelCreateTable, COMDAT
; _this$ = ecx

; 1311 : {

  00000	55		 push	 ebp
  00001	8b ec		 mov	 ebp, esp
  00003	81 ec 7c 01 00
	00		 sub	 esp, 380		; 0000017cH
  00009	a1 00 00 00 00	 mov	 eax, DWORD PTR ___security_cookie
  0000e	33 c5		 xor	 eax, ebp
  00010	89 45 fc	 mov	 DWORD PTR __$ArrayPad$[ebp], eax
  00013	53		 push	 ebx
  00014	56		 push	 esi
  00015	57		 push	 edi
  00016	89 4d f8	 mov	 DWORD PTR _this$[ebp], ecx

; 1312 : 	//数据校验
; 1313 : 	ASSERT(wDataSize == sizeof(DBO_GR_CancelCreateResult));

  00019	0f b7 45 10	 movzx	 eax, WORD PTR _wDataSize$[ebp]
  0001d	3d 90 00 00 00	 cmp	 eax, 144		; 00000090H
  00022	74 19		 je	 SHORT $LN27@OnDBCancel
  00024	8b 0d 00 00 00
	00		 mov	 ecx, DWORD PTR ?__LINE__Var@?0??OnDBCancelCreateTable@CPersonalRoomGame@@IAE_NKPAXGPAUIServerUserItem@@@Z@4JA
  0002a	83 c1 02	 add	 ecx, 2
  0002d	51		 push	 ecx
  0002e	68 00 00 00 00	 push	 OFFSET ??_C@_0EN@PBHPFOKJ@g?3?2?M?x?$LK?$PM?2happygamewh?2?$LH?$PO?N?q?$LG?K?2?O?$LF?M?$LD@
  00033	e8 00 00 00 00	 call	 ?AfxAssertFailedLine@@YGHPBDH@Z ; AfxAssertFailedLine
  00038	85 c0		 test	 eax, eax
  0003a	74 01		 je	 SHORT $LN27@OnDBCancel
  0003c	cc		 int	 3
$LN27@OnDBCancel:

; 1314 : 	if(wDataSize != sizeof(DBO_GR_CancelCreateResult)) return false;

  0003d	0f b7 45 10	 movzx	 eax, WORD PTR _wDataSize$[ebp]
  00041	3d 90 00 00 00	 cmp	 eax, 144		; 00000090H
  00046	74 07		 je	 SHORT $LN5@OnDBCancel
  00048	32 c0		 xor	 al, al
  0004a	e9 97 03 00 00	 jmp	 $LN1@OnDBCancel
$LN5@OnDBCancel:

; 1315 : 
; 1316 : 	////判断在线
; 1317 : 	CAttemperEngineSink * pAttemperEngineSink= (CAttemperEngineSink *)m_pIGameServiceFrame;

  0004f	8b 45 f8	 mov	 eax, DWORD PTR _this$[ebp]
  00052	8b 88 b8 00 00
	00		 mov	 ecx, DWORD PTR [eax+184]
  00058	89 8d 88 fe ff
	ff		 mov	 DWORD PTR tv80[ebp], ecx
  0005e	83 bd 88 fe ff
	ff 00		 cmp	 DWORD PTR tv80[ebp], 0
  00065	74 11		 je	 SHORT $LN28@OnDBCancel
  00067	8b 95 88 fe ff
	ff		 mov	 edx, DWORD PTR tv80[ebp]
  0006d	83 ea 04	 sub	 edx, 4
  00070	89 95 84 fe ff
	ff		 mov	 DWORD PTR tv79[ebp], edx
  00076	eb 0a		 jmp	 SHORT $LN29@OnDBCancel
$LN28@OnDBCancel:
  00078	c7 85 84 fe ff
	ff 00 00 00 00	 mov	 DWORD PTR tv79[ebp], 0
$LN29@OnDBCancel:
  00082	8b 85 84 fe ff
	ff		 mov	 eax, DWORD PTR tv79[ebp]
  00088	89 45 f4	 mov	 DWORD PTR _pAttemperEngineSink$[ebp], eax

; 1318 : 	tagBindParameter * pBindParameter=pAttemperEngineSink->GetBindParameter(LOWORD(dwContextID));

  0008b	8b 45 08	 mov	 eax, DWORD PTR _dwContextID$[ebp]
  0008e	25 ff ff 00 00	 and	 eax, 65535		; 0000ffffH
  00093	50		 push	 eax
  00094	8b 4d f4	 mov	 ecx, DWORD PTR _pAttemperEngineSink$[ebp]
  00097	8b 11		 mov	 edx, DWORD PTR [ecx]
  00099	8b 4d f4	 mov	 ecx, DWORD PTR _pAttemperEngineSink$[ebp]
  0009c	8b 42 40	 mov	 eax, DWORD PTR [edx+64]
  0009f	ff d0		 call	 eax
  000a1	89 45 f0	 mov	 DWORD PTR _pBindParameter$[ebp], eax

; 1319 : 	if(pBindParameter == NULL) return true;

  000a4	83 7d f0 00	 cmp	 DWORD PTR _pBindParameter$[ebp], 0
  000a8	75 07		 jne	 SHORT $LN6@OnDBCancel
  000aa	b0 01		 mov	 al, 1
  000ac	e9 35 03 00 00	 jmp	 $LN1@OnDBCancel
$LN6@OnDBCancel:

; 1320 : 	if ((pBindParameter->dwSocketID!=dwContextID)||(pBindParameter->pIServerUserItem==NULL)) return true;

  000b1	8b 45 f0	 mov	 eax, DWORD PTR _pBindParameter$[ebp]
  000b4	8b 08		 mov	 ecx, DWORD PTR [eax]
  000b6	3b 4d 08	 cmp	 ecx, DWORD PTR _dwContextID$[ebp]
  000b9	75 09		 jne	 SHORT $LN8@OnDBCancel
  000bb	8b 45 f0	 mov	 eax, DWORD PTR _pBindParameter$[ebp]
  000be	83 78 1c 00	 cmp	 DWORD PTR [eax+28], 0
  000c2	75 07		 jne	 SHORT $LN7@OnDBCancel
$LN8@OnDBCancel:
  000c4	b0 01		 mov	 al, 1
  000c6	e9 1b 03 00 00	 jmp	 $LN1@OnDBCancel
$LN7@OnDBCancel:

; 1321 : 
; 1322 : 	////获取用户
; 1323 : 	if (pIServerUserItem==NULL) return false;

  000cb	83 7d 14 00	 cmp	 DWORD PTR _pIServerUserItem$[ebp], 0
  000cf	75 07		 jne	 SHORT $LN9@OnDBCancel
  000d1	32 c0		 xor	 al, al
  000d3	e9 0e 03 00 00	 jmp	 $LN1@OnDBCancel
$LN9@OnDBCancel:

; 1324 : 
; 1325 : 	//获取数据
; 1326 : 	DBO_GR_CancelCreateResult* pCancelCreateResult = (DBO_GR_CancelCreateResult*)pData;

  000d8	8b 45 0c	 mov	 eax, DWORD PTR _pData$[ebp]
  000db	89 45 ec	 mov	 DWORD PTR _pCancelCreateResult$[ebp], eax

; 1327 : 	CTableFrame* pTableFrame = (CTableFrame*)m_ppITableFrame[pCancelCreateResult->dwTableID];

  000de	8b 45 ec	 mov	 eax, DWORD PTR _pCancelCreateResult$[ebp]
  000e1	8b 48 04	 mov	 ecx, DWORD PTR [eax+4]
  000e4	8b 55 f8	 mov	 edx, DWORD PTR _this$[ebp]
  000e7	8b 82 a0 00 00
	00		 mov	 eax, DWORD PTR [edx+160]
  000ed	8b 0c 88	 mov	 ecx, DWORD PTR [eax+ecx*4]
  000f0	89 4d e8	 mov	 DWORD PTR _pTableFrame$[ebp], ecx

; 1328 : 	ASSERT(pTableFrame != NULL);

  000f3	83 7d e8 00	 cmp	 DWORD PTR _pTableFrame$[ebp], 0
  000f7	75 18		 jne	 SHORT $LN30@OnDBCancel
  000f9	a1 00 00 00 00	 mov	 eax, DWORD PTR ?__LINE__Var@?0??OnDBCancelCreateTable@CPersonalRoomGame@@IAE_NKPAXGPAUIServerUserItem@@@Z@4JA
  000fe	83 c0 11	 add	 eax, 17			; 00000011H
  00101	50		 push	 eax
  00102	68 00 00 00 00	 push	 OFFSET ??_C@_0EN@PBHPFOKJ@g?3?2?M?x?$LK?$PM?2happygamewh?2?$LH?$PO?N?q?$LG?K?2?O?$LF?M?$LD@
  00107	e8 00 00 00 00	 call	 ?AfxAssertFailedLine@@YGHPBDH@Z ; AfxAssertFailedLine
  0010c	85 c0		 test	 eax, eax
  0010e	74 01		 je	 SHORT $LN30@OnDBCancel
  00110	cc		 int	 3
$LN30@OnDBCancel:

; 1329 : 	if (pTableFrame == NULL) return false;

  00111	83 7d e8 00	 cmp	 DWORD PTR _pTableFrame$[ebp], 0
  00115	75 07		 jne	 SHORT $LN10@OnDBCancel
  00117	32 c0		 xor	 al, al
  00119	e9 c8 02 00 00	 jmp	 $LN1@OnDBCancel
$LN10@OnDBCancel:

; 1330 : 
; 1331 : 	pTableFrame->SetPersonalTableLocked(false);

  0011e	6a 00		 push	 0
  00120	8b 45 e8	 mov	 eax, DWORD PTR _pTableFrame$[ebp]
  00123	8b 10		 mov	 edx, DWORD PTR [eax]
  00125	8b 4d e8	 mov	 ecx, DWORD PTR _pTableFrame$[ebp]
  00128	8b 42 4c	 mov	 eax, DWORD PTR [edx+76]
  0012b	ff d0		 call	 eax

; 1332 : 	pTableFrame->SetPersonalTable(0, 0, 0);

  0012d	6a 00		 push	 0
  0012f	6a 00		 push	 0
  00131	6a 00		 push	 0
  00133	6a 00		 push	 0
  00135	8b 45 e8	 mov	 eax, DWORD PTR _pTableFrame$[ebp]
  00138	8b 10		 mov	 edx, DWORD PTR [eax]
  0013a	8b 4d e8	 mov	 ecx, DWORD PTR _pTableFrame$[ebp]
  0013d	8b 42 58	 mov	 eax, DWORD PTR [edx+88]
  00140	ff d0		 call	 eax

; 1333 : 	pTableFrame->SetTableOwner(0);

  00142	6a 00		 push	 0
  00144	8b 45 e8	 mov	 eax, DWORD PTR _pTableFrame$[ebp]
  00147	8b 10		 mov	 edx, DWORD PTR [eax]
  00149	8b 4d e8	 mov	 ecx, DWORD PTR _pTableFrame$[ebp]
  0014c	8b 42 50	 mov	 eax, DWORD PTR [edx+80]
  0014f	ff d0		 call	 eax

; 1334 : 
; 1335 : 	WORD wChairCount = pTableFrame->GetChairCount();

  00151	8b 45 e8	 mov	 eax, DWORD PTR _pTableFrame$[ebp]
  00154	8b 10		 mov	 edx, DWORD PTR [eax]
  00156	8b 4d e8	 mov	 ecx, DWORD PTR _pTableFrame$[ebp]
  00159	8b 42 0c	 mov	 eax, DWORD PTR [edx+12]
  0015c	ff d0		 call	 eax
  0015e	66 89 45 e4	 mov	 WORD PTR _wChairCount$[ebp], ax

; 1336 : 
; 1337 : 	
; 1338 : 	for(int i = 0; i < wChairCount; ++i)

  00162	c7 45 e0 00 00
	00 00		 mov	 DWORD PTR _i$5[ebp], 0
  00169	eb 09		 jmp	 SHORT $LN4@OnDBCancel
$LN2@OnDBCancel:
  0016b	8b 45 e0	 mov	 eax, DWORD PTR _i$5[ebp]
  0016e	83 c0 01	 add	 eax, 1
  00171	89 45 e0	 mov	 DWORD PTR _i$5[ebp], eax
$LN4@OnDBCancel:
  00174	0f b7 45 e4	 movzx	 eax, WORD PTR _wChairCount$[ebp]
  00178	39 45 e0	 cmp	 DWORD PTR _i$5[ebp], eax
  0017b	0f 8d dc 01 00
	00		 jge	 $LN3@OnDBCancel

; 1339 : 	{
; 1340 : 		IServerUserItem* pUserItem =pTableFrame->GetTableUserItem(i);

  00181	0f b7 45 e0	 movzx	 eax, WORD PTR _i$5[ebp]
  00185	50		 push	 eax
  00186	8b 4d e8	 mov	 ecx, DWORD PTR _pTableFrame$[ebp]
  00189	8b 11		 mov	 edx, DWORD PTR [ecx]
  0018b	8b 4d e8	 mov	 ecx, DWORD PTR _pTableFrame$[ebp]
  0018e	8b 82 9c 00 00
	00		 mov	 eax, DWORD PTR [edx+156]
  00194	ff d0		 call	 eax
  00196	89 45 dc	 mov	 DWORD PTR _pUserItem$4[ebp], eax

; 1341 : 		if(pUserItem == NULL) continue;

  00199	83 7d dc 00	 cmp	 DWORD PTR _pUserItem$4[ebp], 0
  0019d	75 02		 jne	 SHORT $LN11@OnDBCancel
  0019f	eb ca		 jmp	 SHORT $LN2@OnDBCancel
$LN11@OnDBCancel:

; 1342 : 		if(pUserItem->GetUserStatus() == US_OFFLINE) 

  001a1	8b 45 dc	 mov	 eax, DWORD PTR _pUserItem$4[ebp]
  001a4	8b 10		 mov	 edx, DWORD PTR [eax]
  001a6	8b 4d dc	 mov	 ecx, DWORD PTR _pUserItem$4[ebp]
  001a9	8b 42 74	 mov	 eax, DWORD PTR [edx+116]
  001ac	ff d0		 call	 eax
  001ae	0f b6 c8	 movzx	 ecx, al
  001b1	83 f9 06	 cmp	 ecx, 6
  001b4	75 18		 jne	 SHORT $LN12@OnDBCancel

; 1343 : 		{
; 1344 : 			pTableFrame->PerformStandUpAction(pUserItem);

  001b6	6a 00		 push	 0
  001b8	8b 45 dc	 mov	 eax, DWORD PTR _pUserItem$4[ebp]
  001bb	50		 push	 eax
  001bc	8b 4d e8	 mov	 ecx, DWORD PTR _pTableFrame$[ebp]
  001bf	8b 11		 mov	 edx, DWORD PTR [ecx]
  001c1	8b 4d e8	 mov	 ecx, DWORD PTR _pTableFrame$[ebp]
  001c4	8b 82 d8 00 00
	00		 mov	 eax, DWORD PTR [edx+216]
  001ca	ff d0		 call	 eax

; 1345 : 			continue;

  001cc	eb 9d		 jmp	 SHORT $LN2@OnDBCancel
$LN12@OnDBCancel:

; 1346 : 		}
; 1347 : 		//绑定参数
; 1348 : 		WORD wBindIndex = pUserItem->GetBindIndex();

  001ce	8b 45 dc	 mov	 eax, DWORD PTR _pUserItem$4[ebp]
  001d1	8b 10		 mov	 edx, DWORD PTR [eax]
  001d3	8b 4d dc	 mov	 ecx, DWORD PTR _pUserItem$4[ebp]
  001d6	8b 42 08	 mov	 eax, DWORD PTR [edx+8]
  001d9	ff d0		 call	 eax
  001db	66 89 45 d8	 mov	 WORD PTR _wBindIndex$3[ebp], ax

; 1349 : 		tagBindParameter * pBind=pAttemperEngineSink->GetBindParameter(wBindIndex);

  001df	0f b7 45 d8	 movzx	 eax, WORD PTR _wBindIndex$3[ebp]
  001e3	50		 push	 eax
  001e4	8b 4d f4	 mov	 ecx, DWORD PTR _pAttemperEngineSink$[ebp]
  001e7	8b 11		 mov	 edx, DWORD PTR [ecx]
  001e9	8b 4d f4	 mov	 ecx, DWORD PTR _pAttemperEngineSink$[ebp]
  001ec	8b 42 40	 mov	 eax, DWORD PTR [edx+64]
  001ef	ff d0		 call	 eax
  001f1	89 45 d4	 mov	 DWORD PTR _pBind$2[ebp], eax

; 1350 : 		if(pBind == NULL) continue;

  001f4	83 7d d4 00	 cmp	 DWORD PTR _pBind$2[ebp], 0
  001f8	75 05		 jne	 SHORT $LN13@OnDBCancel
  001fa	e9 6c ff ff ff	 jmp	 $LN2@OnDBCancel
$LN13@OnDBCancel:

; 1351 : 
; 1352 : 		//构造数据
; 1353 : 		CMD_GR_CancelTable CancelTable;
; 1354 : 		ZeroMemory(&CancelTable, sizeof(CMD_GR_CancelTable));

  001ff	68 84 00 00 00	 push	 132			; 00000084H
  00204	6a 00		 push	 0
  00206	8d 85 50 ff ff
	ff		 lea	 eax, DWORD PTR _CancelTable$1[ebp]
  0020c	50		 push	 eax
  0020d	e8 00 00 00 00	 call	 _memset
  00212	83 c4 0c	 add	 esp, 12			; 0000000cH

; 1355 : 		CancelTable.dwReason = pCancelCreateResult->dwReason;

  00215	8b 45 ec	 mov	 eax, DWORD PTR _pCancelCreateResult$[ebp]
  00218	8b 48 08	 mov	 ecx, DWORD PTR [eax+8]
  0021b	89 8d 50 ff ff
	ff		 mov	 DWORD PTR _CancelTable$1[ebp], ecx

; 1356 : 		if(pCancelCreateResult->dwReason == CANCELTABLE_REASON_SYSTEM)

  00221	8b 45 ec	 mov	 eax, DWORD PTR _pCancelCreateResult$[ebp]
  00224	83 78 08 01	 cmp	 DWORD PTR [eax+8], 1
  00228	75 1c		 jne	 SHORT $LN14@OnDBCancel

; 1357 : 			lstrcpyn(CancelTable.szDescribeString, TEXT("游戏自动解散。"), CountArray(CancelTable.szDescribeString));

  0022a	68 80 00 00 00	 push	 128			; 00000080H
  0022f	68 00 00 00 00	 push	 OFFSET ??_C@_0P@LGKLJHBF@?S?N?O?$LH?W?T?$LG?$KP?$LN?b?I?$KC?$KB?$KD@
  00234	8d 85 54 ff ff
	ff		 lea	 eax, DWORD PTR _CancelTable$1[ebp+4]
  0023a	50		 push	 eax
  0023b	ff 15 00 00 00
	00		 call	 DWORD PTR __imp__lstrcpynA@12
  00241	e9 86 00 00 00	 jmp	 $LN15@OnDBCancel
$LN14@OnDBCancel:

; 1358 : 		else if(pCancelCreateResult->dwReason == CANCELTABLE_REASON_PLAYER)

  00246	8b 45 ec	 mov	 eax, DWORD PTR _pCancelCreateResult$[ebp]
  00249	83 78 08 00	 cmp	 DWORD PTR [eax+8], 0
  0024d	75 19		 jne	 SHORT $LN16@OnDBCancel

; 1359 : 			lstrcpyn(CancelTable.szDescribeString, TEXT("游戏未开始，游戏自动解散。"), CountArray(CancelTable.szDescribeString));

  0024f	68 80 00 00 00	 push	 128			; 00000080H
  00254	68 00 00 00 00	 push	 OFFSET ??_C@_0BL@EKGKFEBG@?S?N?O?$LH?N?$LE?$LP?$KK?J?$LM?$KD?$KM?S?N?O?$LH?W?T?$LG?$KP?$LN?b?I?$KC?$KB?$KD@
  00259	8d 85 54 ff ff
	ff		 lea	 eax, DWORD PTR _CancelTable$1[ebp+4]
  0025f	50		 push	 eax
  00260	ff 15 00 00 00
	00		 call	 DWORD PTR __imp__lstrcpynA@12
  00266	eb 64		 jmp	 SHORT $LN15@OnDBCancel
$LN16@OnDBCancel:

; 1360 : 		else if(pCancelCreateResult->dwReason == CANCELTABLE_REASON_ENFOCE)

  00268	8b 45 ec	 mov	 eax, DWORD PTR _pCancelCreateResult$[ebp]
  0026b	83 78 08 02	 cmp	 DWORD PTR [eax+8], 2
  0026f	75 19		 jne	 SHORT $LN18@OnDBCancel

; 1361 : 			lstrcpyn(CancelTable.szDescribeString, TEXT("房主退出游戏或游戏超时，游戏解散。"), CountArray(CancelTable.szDescribeString));

  00271	68 80 00 00 00	 push	 128			; 00000080H
  00276	68 00 00 00 00	 push	 OFFSET ??_C@_0CD@JHECHKJE@?$LH?$LP?V?w?M?K?$LD?v?S?N?O?$LH?$LL?r?S?N?O?$LH?$LD?$KM?J?$LB?$KD?$KM?S?N?O?$LH?$LN?b?I@
  0027b	8d 85 54 ff ff
	ff		 lea	 eax, DWORD PTR _CancelTable$1[ebp+4]
  00281	50		 push	 eax
  00282	ff 15 00 00 00
	00		 call	 DWORD PTR __imp__lstrcpynA@12
  00288	eb 42		 jmp	 SHORT $LN15@OnDBCancel
$LN18@OnDBCancel:

; 1362 : 		else if(pCancelCreateResult->dwReason == CANCELTABLE_REASON_OVER_TIME)

  0028a	8b 45 ec	 mov	 eax, DWORD PTR _pCancelCreateResult$[ebp]
  0028d	83 78 08 05	 cmp	 DWORD PTR [eax+8], 5
  00291	75 19		 jne	 SHORT $LN20@OnDBCancel

; 1363 : 			lstrcpyn(CancelTable.szDescribeString, TEXT("游戏超时，游戏解散。"), CountArray(CancelTable.szDescribeString));

  00293	68 80 00 00 00	 push	 128			; 00000080H
  00298	68 00 00 00 00	 push	 OFFSET ??_C@_0BF@BBCEPGNP@?S?N?O?$LH?$LD?$KM?J?$LB?$KD?$KM?S?N?O?$LH?$LN?b?I?$KC?$KB?$KD@
  0029d	8d 85 54 ff ff
	ff		 lea	 eax, DWORD PTR _CancelTable$1[ebp+4]
  002a3	50		 push	 eax
  002a4	ff 15 00 00 00
	00		 call	 DWORD PTR __imp__lstrcpynA@12
  002aa	eb 20		 jmp	 SHORT $LN15@OnDBCancel
$LN20@OnDBCancel:

; 1364 : 		else if(pCancelCreateResult->dwReason == CANCELTABLE_REASON_NOT_START)

  002ac	8b 45 ec	 mov	 eax, DWORD PTR _pCancelCreateResult$[ebp]
  002af	83 78 08 04	 cmp	 DWORD PTR [eax+8], 4
  002b3	75 17		 jne	 SHORT $LN15@OnDBCancel

; 1365 : 			lstrcpyn(CancelTable.szDescribeString, TEXT("约战规定开始时间到未开始游戏，游戏解散。"), CountArray(CancelTable.szDescribeString));

  002b5	68 80 00 00 00	 push	 128			; 00000080H
  002ba	68 00 00 00 00	 push	 OFFSET ??_C@_0CJ@IPIKOHBH@?T?$LM?U?$LN?$LJ?f?$LG?$KI?$LP?$KK?J?$LM?J?$LB?$LM?d?$LF?$LN?N?$LE?$LP?$KK?J?$LM?S?N?O?$LH?$KD?$KM?S@
  002bf	8d 85 54 ff ff
	ff		 lea	 eax, DWORD PTR _CancelTable$1[ebp+4]
  002c5	50		 push	 eax
  002c6	ff 15 00 00 00
	00		 call	 DWORD PTR __imp__lstrcpynA@12
$LN15@OnDBCancel:

; 1366 : 
; 1367 : 		if (CANCELTABLE_REASON_NOT_START == pCancelCreateResult->dwReason || CANCELTABLE_REASON_OVER_TIME == pCancelCreateResult->dwReason)

  002cc	8b 45 ec	 mov	 eax, DWORD PTR _pCancelCreateResult$[ebp]
  002cf	83 78 08 04	 cmp	 DWORD PTR [eax+8], 4
  002d3	74 09		 je	 SHORT $LN24@OnDBCancel
  002d5	8b 45 ec	 mov	 eax, DWORD PTR _pCancelCreateResult$[ebp]
  002d8	83 78 08 05	 cmp	 DWORD PTR [eax+8], 5
  002dc	75 0a		 jne	 SHORT $LN23@OnDBCancel
$LN24@OnDBCancel:

; 1368 : 		{
; 1369 : 			CancelTable.dwReason = CANCELTABLE_REASON_SYSTEM;

  002de	c7 85 50 ff ff
	ff 01 00 00 00	 mov	 DWORD PTR _CancelTable$1[ebp], 1
$LN23@OnDBCancel:

; 1370 : 		}
; 1371 : 		//解散消息
; 1372 : 		if (m_pITCPNetworkEngine)

  002e8	8b 45 f8	 mov	 eax, DWORD PTR _this$[ebp]
  002eb	83 b8 b0 00 00
	00 00		 cmp	 DWORD PTR [eax+176], 0
  002f2	74 32		 je	 SHORT $LN25@OnDBCancel

; 1373 : 			m_pITCPNetworkEngine->SendData(pBind->dwSocketID, MDM_GR_PERSONAL_TABLE, SUB_GR_CANCEL_TABLE, &CancelTable, sizeof(CMD_GR_CancelTable));

  002f4	68 84 00 00 00	 push	 132			; 00000084H
  002f9	8d 85 50 ff ff
	ff		 lea	 eax, DWORD PTR _CancelTable$1[ebp]
  002ff	50		 push	 eax
  00300	6a 04		 push	 4
  00302	68 d2 00 00 00	 push	 210			; 000000d2H
  00307	8b 4d d4	 mov	 ecx, DWORD PTR _pBind$2[ebp]
  0030a	8b 11		 mov	 edx, DWORD PTR [ecx]
  0030c	52		 push	 edx
  0030d	8b 45 f8	 mov	 eax, DWORD PTR _this$[ebp]
  00310	8b 88 b0 00 00
	00		 mov	 ecx, DWORD PTR [eax+176]
  00316	8b 55 f8	 mov	 edx, DWORD PTR _this$[ebp]
  00319	8b 01		 mov	 eax, DWORD PTR [ecx]
  0031b	8b 8a b0 00 00
	00		 mov	 ecx, DWORD PTR [edx+176]
  00321	8b 50 20	 mov	 edx, DWORD PTR [eax+32]
  00324	ff d2		 call	 edx
$LN25@OnDBCancel:

; 1374 : 
; 1375 : 		//用户状态
; 1376 : 		pUserItem->SetUserStatus(US_FREE, INVALID_TABLE, INVALID_CHAIR);

  00326	68 ff ff 00 00	 push	 65535			; 0000ffffH
  0032b	68 ff ff 00 00	 push	 65535			; 0000ffffH
  00330	6a 01		 push	 1
  00332	8b 45 dc	 mov	 eax, DWORD PTR _pUserItem$4[ebp]
  00335	8b 10		 mov	 edx, DWORD PTR [eax]
  00337	8b 4d dc	 mov	 ecx, DWORD PTR _pUserItem$4[ebp]
  0033a	8b 82 fc 00 00
	00		 mov	 eax, DWORD PTR [edx+252]
  00340	ff d0		 call	 eax

; 1377 : 		pTableFrame->PerformStandUpAction(pUserItem);

  00342	6a 00		 push	 0
  00344	8b 45 dc	 mov	 eax, DWORD PTR _pUserItem$4[ebp]
  00347	50		 push	 eax
  00348	8b 4d e8	 mov	 ecx, DWORD PTR _pTableFrame$[ebp]
  0034b	8b 11		 mov	 edx, DWORD PTR [ecx]
  0034d	8b 4d e8	 mov	 ecx, DWORD PTR _pTableFrame$[ebp]
  00350	8b 82 d8 00 00
	00		 mov	 eax, DWORD PTR [edx+216]
  00356	ff d0		 call	 eax

; 1378 : 	}

  00358	e9 0e fe ff ff	 jmp	 $LN2@OnDBCancel
$LN3@OnDBCancel:

; 1379 : 
; 1380 : 	////构造数据
; 1381 : 	CMD_GR_CancelTable CancelTable;
; 1382 : 	ZeroMemory(&CancelTable, sizeof(CMD_GR_CancelTable));

  0035d	68 84 00 00 00	 push	 132			; 00000084H
  00362	6a 00		 push	 0
  00364	8d 85 cc fe ff
	ff		 lea	 eax, DWORD PTR _CancelTable$[ebp]
  0036a	50		 push	 eax
  0036b	e8 00 00 00 00	 call	 _memset
  00370	83 c4 0c	 add	 esp, 12			; 0000000cH

; 1383 : 	CancelTable.dwReason = pCancelCreateResult->dwReason;

  00373	8b 45 ec	 mov	 eax, DWORD PTR _pCancelCreateResult$[ebp]
  00376	8b 48 08	 mov	 ecx, DWORD PTR [eax+8]
  00379	89 8d cc fe ff
	ff		 mov	 DWORD PTR _CancelTable$[ebp], ecx

; 1384 : 	lstrcpyn(CancelTable.szDescribeString, pCancelCreateResult->szDescribeString, CountArray(CancelTable.szDescribeString));

  0037f	68 80 00 00 00	 push	 128			; 00000080H
  00384	8b 45 ec	 mov	 eax, DWORD PTR _pCancelCreateResult$[ebp]
  00387	83 c0 10	 add	 eax, 16			; 00000010H
  0038a	50		 push	 eax
  0038b	8d 8d d0 fe ff
	ff		 lea	 ecx, DWORD PTR _CancelTable$[ebp+4]
  00391	51		 push	 ecx
  00392	ff 15 00 00 00
	00		 call	 DWORD PTR __imp__lstrcpynA@12

; 1385 : 
; 1386 : 	////发送数据
; 1387 : 	m_pITCPNetworkEngine->SendData(dwContextID, MDM_GR_PERSONAL_TABLE, SUB_GR_CANCEL_TABLE, &CancelTable, sizeof(CMD_GR_CancelTable));

  00398	68 84 00 00 00	 push	 132			; 00000084H
  0039d	8d 85 cc fe ff
	ff		 lea	 eax, DWORD PTR _CancelTable$[ebp]
  003a3	50		 push	 eax
  003a4	6a 04		 push	 4
  003a6	68 d2 00 00 00	 push	 210			; 000000d2H
  003ab	8b 4d 08	 mov	 ecx, DWORD PTR _dwContextID$[ebp]
  003ae	51		 push	 ecx
  003af	8b 55 f8	 mov	 edx, DWORD PTR _this$[ebp]
  003b2	8b 82 b0 00 00
	00		 mov	 eax, DWORD PTR [edx+176]
  003b8	8b 4d f8	 mov	 ecx, DWORD PTR _this$[ebp]
  003bb	8b 10		 mov	 edx, DWORD PTR [eax]
  003bd	8b 89 b0 00 00
	00		 mov	 ecx, DWORD PTR [ecx+176]
  003c3	8b 42 20	 mov	 eax, DWORD PTR [edx+32]
  003c6	ff d0		 call	 eax

; 1388 : 
; 1389 : 	////退出用户
; 1390 : 	pIServerUserItem->SetUserStatus(US_NULL, INVALID_TABLE, INVALID_CHAIR);

  003c8	68 ff ff 00 00	 push	 65535			; 0000ffffH
  003cd	68 ff ff 00 00	 push	 65535			; 0000ffffH
  003d2	6a 00		 push	 0
  003d4	8b 45 14	 mov	 eax, DWORD PTR _pIServerUserItem$[ebp]
  003d7	8b 10		 mov	 edx, DWORD PTR [eax]
  003d9	8b 4d 14	 mov	 ecx, DWORD PTR _pIServerUserItem$[ebp]
  003dc	8b 82 fc 00 00
	00		 mov	 eax, DWORD PTR [edx+252]
  003e2	ff d0		 call	 eax

; 1391 : 
; 1392 : 	return true;

  003e4	b0 01		 mov	 al, 1
$LN1@OnDBCancel:

; 1393 : }

  003e6	5f		 pop	 edi
  003e7	5e		 pop	 esi
  003e8	5b		 pop	 ebx
  003e9	8b 4d fc	 mov	 ecx, DWORD PTR __$ArrayPad$[ebp]
  003ec	33 cd		 xor	 ecx, ebp
  003ee	e8 00 00 00 00	 call	 @__security_check_cookie@4
  003f3	8b e5		 mov	 esp, ebp
  003f5	5d		 pop	 ebp
  003f6	c2 10 00	 ret	 16			; 00000010H
?OnDBCancelCreateTable@CPersonalRoomGame@@IAE_NKPAXGPAUIServerUserItem@@@Z ENDP ; CPersonalRoomGame::OnDBCancelCreateTable
_TEXT	ENDS
; Function compile flags: /Odtp /ZI
; File g:\网狐\happygamewh\服务端\系统模块\服务器组件\约战服务\personalroomgame.cpp
;	COMDAT ?OnDBCreateFailure@CPersonalRoomGame@@IAE_NKPAXGPAUIServerUserItem@@@Z
_TEXT	SEGMENT
tv79 = -228						; size = 4
tv80 = -224						; size = 4
_CreateFailure$ = -156					; size = 132
_pTableFrame$ = -24					; size = 4
_pCreateFailure$ = -20					; size = 4
_pBindParameter$ = -16					; size = 4
_pAttemperEngineSink$ = -12				; size = 4
_this$ = -8						; size = 4
__$ArrayPad$ = -4					; size = 4
_dwContextID$ = 8					; size = 4
_pData$ = 12						; size = 4
_wDataSize$ = 16					; size = 2
_pIServerUserItem$ = 20					; size = 4
?OnDBCreateFailure@CPersonalRoomGame@@IAE_NKPAXGPAUIServerUserItem@@@Z PROC ; CPersonalRoomGame::OnDBCreateFailure, COMDAT
; _this$ = ecx

; 1273 : {

  00000	55		 push	 ebp
  00001	8b ec		 mov	 ebp, esp
  00003	81 ec e4 00 00
	00		 sub	 esp, 228		; 000000e4H
  00009	a1 00 00 00 00	 mov	 eax, DWORD PTR ___security_cookie
  0000e	33 c5		 xor	 eax, ebp
  00010	89 45 fc	 mov	 DWORD PTR __$ArrayPad$[ebp], eax
  00013	53		 push	 ebx
  00014	56		 push	 esi
  00015	57		 push	 edi
  00016	89 4d f8	 mov	 DWORD PTR _this$[ebp], ecx

; 1274 : 	//数据校验
; 1275 : 	ASSERT(wDataSize == sizeof(DBO_GR_CreateFailure));

  00019	0f b7 45 10	 movzx	 eax, WORD PTR _wDataSize$[ebp]
  0001d	3d 88 00 00 00	 cmp	 eax, 136		; 00000088H
  00022	74 19		 je	 SHORT $LN8@OnDBCreate
  00024	8b 0d 00 00 00
	00		 mov	 ecx, DWORD PTR ?__LINE__Var@?0??OnDBCreateFailure@CPersonalRoomGame@@IAE_NKPAXGPAUIServerUserItem@@@Z@4JA
  0002a	83 c1 02	 add	 ecx, 2
  0002d	51		 push	 ecx
  0002e	68 00 00 00 00	 push	 OFFSET ??_C@_0EN@PBHPFOKJ@g?3?2?M?x?$LK?$PM?2happygamewh?2?$LH?$PO?N?q?$LG?K?2?O?$LF?M?$LD@
  00033	e8 00 00 00 00	 call	 ?AfxAssertFailedLine@@YGHPBDH@Z ; AfxAssertFailedLine
  00038	85 c0		 test	 eax, eax
  0003a	74 01		 je	 SHORT $LN8@OnDBCreate
  0003c	cc		 int	 3
$LN8@OnDBCreate:

; 1276 : 	if(wDataSize != sizeof(DBO_GR_CreateFailure)) return false;

  0003d	0f b7 45 10	 movzx	 eax, WORD PTR _wDataSize$[ebp]
  00041	3d 88 00 00 00	 cmp	 eax, 136		; 00000088H
  00046	74 07		 je	 SHORT $LN2@OnDBCreate
  00048	32 c0		 xor	 al, al
  0004a	e9 61 01 00 00	 jmp	 $LN1@OnDBCreate
$LN2@OnDBCreate:

; 1277 : 
; 1278 : 	//判断在线
; 1279 : 	CAttemperEngineSink * pAttemperEngineSink= (CAttemperEngineSink *)m_pIGameServiceFrame;

  0004f	8b 45 f8	 mov	 eax, DWORD PTR _this$[ebp]
  00052	8b 88 b8 00 00
	00		 mov	 ecx, DWORD PTR [eax+184]
  00058	89 8d 20 ff ff
	ff		 mov	 DWORD PTR tv80[ebp], ecx
  0005e	83 bd 20 ff ff
	ff 00		 cmp	 DWORD PTR tv80[ebp], 0
  00065	74 11		 je	 SHORT $LN9@OnDBCreate
  00067	8b 95 20 ff ff
	ff		 mov	 edx, DWORD PTR tv80[ebp]
  0006d	83 ea 04	 sub	 edx, 4
  00070	89 95 1c ff ff
	ff		 mov	 DWORD PTR tv79[ebp], edx
  00076	eb 0a		 jmp	 SHORT $LN10@OnDBCreate
$LN9@OnDBCreate:
  00078	c7 85 1c ff ff
	ff 00 00 00 00	 mov	 DWORD PTR tv79[ebp], 0
$LN10@OnDBCreate:
  00082	8b 85 1c ff ff
	ff		 mov	 eax, DWORD PTR tv79[ebp]
  00088	89 45 f4	 mov	 DWORD PTR _pAttemperEngineSink$[ebp], eax

; 1280 : 	tagBindParameter * pBindParameter=pAttemperEngineSink->GetBindParameter(LOWORD(dwContextID));

  0008b	8b 45 08	 mov	 eax, DWORD PTR _dwContextID$[ebp]
  0008e	25 ff ff 00 00	 and	 eax, 65535		; 0000ffffH
  00093	50		 push	 eax
  00094	8b 4d f4	 mov	 ecx, DWORD PTR _pAttemperEngineSink$[ebp]
  00097	8b 11		 mov	 edx, DWORD PTR [ecx]
  00099	8b 4d f4	 mov	 ecx, DWORD PTR _pAttemperEngineSink$[ebp]
  0009c	8b 42 40	 mov	 eax, DWORD PTR [edx+64]
  0009f	ff d0		 call	 eax
  000a1	89 45 f0	 mov	 DWORD PTR _pBindParameter$[ebp], eax

; 1281 : 	if ((pBindParameter->dwSocketID!=dwContextID)||(pBindParameter->pIServerUserItem==NULL)) return true;

  000a4	8b 45 f0	 mov	 eax, DWORD PTR _pBindParameter$[ebp]
  000a7	8b 08		 mov	 ecx, DWORD PTR [eax]
  000a9	3b 4d 08	 cmp	 ecx, DWORD PTR _dwContextID$[ebp]
  000ac	75 09		 jne	 SHORT $LN4@OnDBCreate
  000ae	8b 45 f0	 mov	 eax, DWORD PTR _pBindParameter$[ebp]
  000b1	83 78 1c 00	 cmp	 DWORD PTR [eax+28], 0
  000b5	75 07		 jne	 SHORT $LN3@OnDBCreate
$LN4@OnDBCreate:
  000b7	b0 01		 mov	 al, 1
  000b9	e9 f2 00 00 00	 jmp	 $LN1@OnDBCreate
$LN3@OnDBCreate:

; 1282 : 
; 1283 : 	//获取用户
; 1284 : 	if (pIServerUserItem==NULL) return false;

  000be	83 7d 14 00	 cmp	 DWORD PTR _pIServerUserItem$[ebp], 0
  000c2	75 07		 jne	 SHORT $LN5@OnDBCreate
  000c4	32 c0		 xor	 al, al
  000c6	e9 e5 00 00 00	 jmp	 $LN1@OnDBCreate
$LN5@OnDBCreate:

; 1285 : 
; 1286 : 	DBO_GR_CreateFailure* pCreateFailure = (DBO_GR_CreateFailure*)pData;

  000cb	8b 45 0c	 mov	 eax, DWORD PTR _pData$[ebp]
  000ce	89 45 ec	 mov	 DWORD PTR _pCreateFailure$[ebp], eax

; 1287 : 
; 1288 : 	CTableFrame* pTableFrame = (CTableFrame*)m_ppITableFrame[pCreateFailure->dwTableID];

  000d1	8b 45 ec	 mov	 eax, DWORD PTR _pCreateFailure$[ebp]
  000d4	8b 08		 mov	 ecx, DWORD PTR [eax]
  000d6	8b 55 f8	 mov	 edx, DWORD PTR _this$[ebp]
  000d9	8b 82 a0 00 00
	00		 mov	 eax, DWORD PTR [edx+160]
  000df	8b 0c 88	 mov	 ecx, DWORD PTR [eax+ecx*4]
  000e2	89 4d e8	 mov	 DWORD PTR _pTableFrame$[ebp], ecx

; 1289 : 	ASSERT(pTableFrame != NULL);

  000e5	83 7d e8 00	 cmp	 DWORD PTR _pTableFrame$[ebp], 0
  000e9	75 18		 jne	 SHORT $LN11@OnDBCreate
  000eb	a1 00 00 00 00	 mov	 eax, DWORD PTR ?__LINE__Var@?0??OnDBCreateFailure@CPersonalRoomGame@@IAE_NKPAXGPAUIServerUserItem@@@Z@4JA
  000f0	83 c0 10	 add	 eax, 16			; 00000010H
  000f3	50		 push	 eax
  000f4	68 00 00 00 00	 push	 OFFSET ??_C@_0EN@PBHPFOKJ@g?3?2?M?x?$LK?$PM?2happygamewh?2?$LH?$PO?N?q?$LG?K?2?O?$LF?M?$LD@
  000f9	e8 00 00 00 00	 call	 ?AfxAssertFailedLine@@YGHPBDH@Z ; AfxAssertFailedLine
  000fe	85 c0		 test	 eax, eax
  00100	74 01		 je	 SHORT $LN11@OnDBCreate
  00102	cc		 int	 3
$LN11@OnDBCreate:

; 1290 : 	if (pTableFrame == NULL) return false;

  00103	83 7d e8 00	 cmp	 DWORD PTR _pTableFrame$[ebp], 0
  00107	75 07		 jne	 SHORT $LN6@OnDBCreate
  00109	32 c0		 xor	 al, al
  0010b	e9 a0 00 00 00	 jmp	 $LN1@OnDBCreate
$LN6@OnDBCreate:

; 1291 : 
; 1292 : 	pTableFrame->SetPersonalTableLocked(false);

  00110	6a 00		 push	 0
  00112	8b 45 e8	 mov	 eax, DWORD PTR _pTableFrame$[ebp]
  00115	8b 10		 mov	 edx, DWORD PTR [eax]
  00117	8b 4d e8	 mov	 ecx, DWORD PTR _pTableFrame$[ebp]
  0011a	8b 42 4c	 mov	 eax, DWORD PTR [edx+76]
  0011d	ff d0		 call	 eax

; 1293 : 	pTableFrame->SetPersonalTable(0, 0, 0);

  0011f	6a 00		 push	 0
  00121	6a 00		 push	 0
  00123	6a 00		 push	 0
  00125	6a 00		 push	 0
  00127	8b 45 e8	 mov	 eax, DWORD PTR _pTableFrame$[ebp]
  0012a	8b 10		 mov	 edx, DWORD PTR [eax]
  0012c	8b 4d e8	 mov	 ecx, DWORD PTR _pTableFrame$[ebp]
  0012f	8b 42 58	 mov	 eax, DWORD PTR [edx+88]
  00132	ff d0		 call	 eax

; 1294 : 	pTableFrame->SetTableOwner(0);

  00134	6a 00		 push	 0
  00136	8b 45 e8	 mov	 eax, DWORD PTR _pTableFrame$[ebp]
  00139	8b 10		 mov	 edx, DWORD PTR [eax]
  0013b	8b 4d e8	 mov	 ecx, DWORD PTR _pTableFrame$[ebp]
  0013e	8b 42 50	 mov	 eax, DWORD PTR [edx+80]
  00141	ff d0		 call	 eax

; 1295 : 
; 1296 : 	//构造数据
; 1297 : 	CMD_GR_CreateFailure CreateFailure;
; 1298 : 	ZeroMemory(&CreateFailure, sizeof(CMD_GR_CreateFailure));

  00143	68 84 00 00 00	 push	 132			; 00000084H
  00148	6a 00		 push	 0
  0014a	8d 85 64 ff ff
	ff		 lea	 eax, DWORD PTR _CreateFailure$[ebp]
  00150	50		 push	 eax
  00151	e8 00 00 00 00	 call	 _memset
  00156	83 c4 0c	 add	 esp, 12			; 0000000cH

; 1299 : 
; 1300 : 	CreateFailure.lErrorCode = pCreateFailure->lErrorCode;

  00159	8b 45 ec	 mov	 eax, DWORD PTR _pCreateFailure$[ebp]
  0015c	8b 48 04	 mov	 ecx, DWORD PTR [eax+4]
  0015f	89 8d 64 ff ff
	ff		 mov	 DWORD PTR _CreateFailure$[ebp], ecx

; 1301 : 	lstrcpyn(CreateFailure.szDescribeString, pCreateFailure->szDescribeString, CountArray(CreateFailure.szDescribeString));

  00165	68 80 00 00 00	 push	 128			; 00000080H
  0016a	8b 45 ec	 mov	 eax, DWORD PTR _pCreateFailure$[ebp]
  0016d	83 c0 08	 add	 eax, 8
  00170	50		 push	 eax
  00171	8d 8d 68 ff ff
	ff		 lea	 ecx, DWORD PTR _CreateFailure$[ebp+4]
  00177	51		 push	 ecx
  00178	ff 15 00 00 00
	00		 call	 DWORD PTR __imp__lstrcpynA@12

; 1302 : 
; 1303 : 	//发送数据
; 1304 : 	m_pITCPNetworkEngine->SendData(dwContextID, MDM_GR_PERSONAL_TABLE, SUB_GR_CREATE_FAILURE, &CreateFailure, sizeof(CMD_GR_CreateFailure));

  0017e	68 84 00 00 00	 push	 132			; 00000084H
  00183	8d 85 64 ff ff
	ff		 lea	 eax, DWORD PTR _CreateFailure$[ebp]
  00189	50		 push	 eax
  0018a	6a 03		 push	 3
  0018c	68 d2 00 00 00	 push	 210			; 000000d2H
  00191	8b 4d 08	 mov	 ecx, DWORD PTR _dwContextID$[ebp]
  00194	51		 push	 ecx
  00195	8b 55 f8	 mov	 edx, DWORD PTR _this$[ebp]
  00198	8b 82 b0 00 00
	00		 mov	 eax, DWORD PTR [edx+176]
  0019e	8b 4d f8	 mov	 ecx, DWORD PTR _this$[ebp]
  001a1	8b 10		 mov	 edx, DWORD PTR [eax]
  001a3	8b 89 b0 00 00
	00		 mov	 ecx, DWORD PTR [ecx+176]
  001a9	8b 42 20	 mov	 eax, DWORD PTR [edx+32]
  001ac	ff d0		 call	 eax

; 1305 : 
; 1306 : 	return true;

  001ae	b0 01		 mov	 al, 1
$LN1@OnDBCreate:

; 1307 : }

  001b0	5f		 pop	 edi
  001b1	5e		 pop	 esi
  001b2	5b		 pop	 ebx
  001b3	8b 4d fc	 mov	 ecx, DWORD PTR __$ArrayPad$[ebp]
  001b6	33 cd		 xor	 ecx, ebp
  001b8	e8 00 00 00 00	 call	 @__security_check_cookie@4
  001bd	8b e5		 mov	 esp, ebp
  001bf	5d		 pop	 ebp
  001c0	c2 10 00	 ret	 16			; 00000010H
?OnDBCreateFailure@CPersonalRoomGame@@IAE_NKPAXGPAUIServerUserItem@@@Z ENDP ; CPersonalRoomGame::OnDBCreateFailure
_TEXT	ENDS
; Function compile flags: /Odtp /ZI
; File g:\网狐\happygamewh\服务端\系统模块\服务器组件\约战服务\personalroomgame.cpp
;	COMDAT ?OnDBCreateSucess@CPersonalRoomGame@@IAE_NKPAXGPAUIServerUserItem@@@Z
_TEXT	SEGMENT
tv79 = -696						; size = 4
tv80 = -692						; size = 4
_CS_CreateTable$ = -560					; size = 239
_CancelCreateTable$1 = -320				; size = 32
_wSitDownCount$ = -288					; size = 2
_pUserRule$ = -284					; size = 4
_pUserInfo$ = -280					; size = 4
_ChangeChairCount$ = -276				; size = 4
_PersonalTableParameter$ = -272				; size = 48
_tm$ = -224						; size = 16
_szInfo$ = -208						; size = 32
_i$2 = -176						; size = 4
__roompass$ = -172					; size = 120
_pTableParameter$3 = -52				; size = 4
_i$4 = -48						; size = 4
_nSize$ = -44						; size = 4
_cbIsJoinGame$ = -37					; size = 1
_lIniScore$ = -36					; size = 8
_wChairID$ = -28					; size = 2
_pTableFrame$ = -24					; size = 4
_pCreateSuccess$ = -20					; size = 4
_pBindParameter$ = -16					; size = 4
_pAttemperEngineSink$ = -12				; size = 4
_this$ = -8						; size = 4
__$ArrayPad$ = -4					; size = 4
_dwContextID$ = 8					; size = 4
_pData$ = 12						; size = 4
_wDataSize$ = 16					; size = 2
_pIServerUserItem$ = 20					; size = 4
?OnDBCreateSucess@CPersonalRoomGame@@IAE_NKPAXGPAUIServerUserItem@@@Z PROC ; CPersonalRoomGame::OnDBCreateSucess, COMDAT
; _this$ = ecx

; 980  : {

  00000	55		 push	 ebp
  00001	8b ec		 mov	 ebp, esp
  00003	81 ec b8 02 00
	00		 sub	 esp, 696		; 000002b8H
  00009	a1 00 00 00 00	 mov	 eax, DWORD PTR ___security_cookie
  0000e	33 c5		 xor	 eax, ebp
  00010	89 45 fc	 mov	 DWORD PTR __$ArrayPad$[ebp], eax
  00013	53		 push	 ebx
  00014	56		 push	 esi
  00015	57		 push	 edi
  00016	89 4d f8	 mov	 DWORD PTR _this$[ebp], ecx

; 981  : 	//数据校验
; 982  : 	ASSERT(wDataSize == sizeof(DBO_GR_CreateSuccess));

  00019	0f b7 45 10	 movzx	 eax, WORD PTR _wDataSize$[ebp]
  0001d	3d fc 00 00 00	 cmp	 eax, 252		; 000000fcH
  00022	74 19		 je	 SHORT $LN35@OnDBCreate
  00024	8b 0d 00 00 00
	00		 mov	 ecx, DWORD PTR ?__LINE__Var@?0??OnDBCreateSucess@CPersonalRoomGame@@IAE_NKPAXGPAUIServerUserItem@@@Z@4JA
  0002a	83 c1 02	 add	 ecx, 2
  0002d	51		 push	 ecx
  0002e	68 00 00 00 00	 push	 OFFSET ??_C@_0EN@PBHPFOKJ@g?3?2?M?x?$LK?$PM?2happygamewh?2?$LH?$PO?N?q?$LG?K?2?O?$LF?M?$LD@
  00033	e8 00 00 00 00	 call	 ?AfxAssertFailedLine@@YGHPBDH@Z ; AfxAssertFailedLine
  00038	85 c0		 test	 eax, eax
  0003a	74 01		 je	 SHORT $LN35@OnDBCreate
  0003c	cc		 int	 3
$LN35@OnDBCreate:

; 983  : 	if(wDataSize != sizeof(DBO_GR_CreateSuccess)) return false;

  0003d	0f b7 45 10	 movzx	 eax, WORD PTR _wDataSize$[ebp]
  00041	3d fc 00 00 00	 cmp	 eax, 252		; 000000fcH
  00046	74 07		 je	 SHORT $LN8@OnDBCreate
  00048	32 c0		 xor	 al, al
  0004a	e9 19 0c 00 00	 jmp	 $LN1@OnDBCreate
$LN8@OnDBCreate:

; 984  : 
; 985  : 	//判断在线
; 986  : 	CAttemperEngineSink * pAttemperEngineSink= (CAttemperEngineSink *)m_pIGameServiceFrame;

  0004f	8b 45 f8	 mov	 eax, DWORD PTR _this$[ebp]
  00052	8b 88 b8 00 00
	00		 mov	 ecx, DWORD PTR [eax+184]
  00058	89 8d 4c fd ff
	ff		 mov	 DWORD PTR tv80[ebp], ecx
  0005e	83 bd 4c fd ff
	ff 00		 cmp	 DWORD PTR tv80[ebp], 0
  00065	74 11		 je	 SHORT $LN36@OnDBCreate
  00067	8b 95 4c fd ff
	ff		 mov	 edx, DWORD PTR tv80[ebp]
  0006d	83 ea 04	 sub	 edx, 4
  00070	89 95 48 fd ff
	ff		 mov	 DWORD PTR tv79[ebp], edx
  00076	eb 0a		 jmp	 SHORT $LN37@OnDBCreate
$LN36@OnDBCreate:
  00078	c7 85 48 fd ff
	ff 00 00 00 00	 mov	 DWORD PTR tv79[ebp], 0
$LN37@OnDBCreate:
  00082	8b 85 48 fd ff
	ff		 mov	 eax, DWORD PTR tv79[ebp]
  00088	89 45 f4	 mov	 DWORD PTR _pAttemperEngineSink$[ebp], eax

; 987  : 	tagBindParameter * pBindParameter=pAttemperEngineSink->GetBindParameter(LOWORD(dwContextID));

  0008b	8b 45 08	 mov	 eax, DWORD PTR _dwContextID$[ebp]
  0008e	25 ff ff 00 00	 and	 eax, 65535		; 0000ffffH
  00093	50		 push	 eax
  00094	8b 4d f4	 mov	 ecx, DWORD PTR _pAttemperEngineSink$[ebp]
  00097	8b 11		 mov	 edx, DWORD PTR [ecx]
  00099	8b 4d f4	 mov	 ecx, DWORD PTR _pAttemperEngineSink$[ebp]
  0009c	8b 42 40	 mov	 eax, DWORD PTR [edx+64]
  0009f	ff d0		 call	 eax
  000a1	89 45 f0	 mov	 DWORD PTR _pBindParameter$[ebp], eax

; 988  : 	if ((pBindParameter->dwSocketID!=dwContextID)||(pBindParameter->pIServerUserItem==NULL)) return true;

  000a4	8b 45 f0	 mov	 eax, DWORD PTR _pBindParameter$[ebp]
  000a7	8b 08		 mov	 ecx, DWORD PTR [eax]
  000a9	3b 4d 08	 cmp	 ecx, DWORD PTR _dwContextID$[ebp]
  000ac	75 09		 jne	 SHORT $LN10@OnDBCreate
  000ae	8b 45 f0	 mov	 eax, DWORD PTR _pBindParameter$[ebp]
  000b1	83 78 1c 00	 cmp	 DWORD PTR [eax+28], 0
  000b5	75 07		 jne	 SHORT $LN9@OnDBCreate
$LN10@OnDBCreate:
  000b7	b0 01		 mov	 al, 1
  000b9	e9 aa 0b 00 00	 jmp	 $LN1@OnDBCreate
$LN9@OnDBCreate:

; 989  : 
; 990  : 	//获取用户
; 991  : 	if (pIServerUserItem==NULL) return false;

  000be	83 7d 14 00	 cmp	 DWORD PTR _pIServerUserItem$[ebp], 0
  000c2	75 07		 jne	 SHORT $LN11@OnDBCreate
  000c4	32 c0		 xor	 al, al
  000c6	e9 9d 0b 00 00	 jmp	 $LN1@OnDBCreate
$LN11@OnDBCreate:

; 992  : 
; 993  : 	DBO_GR_CreateSuccess* pCreateSuccess = (DBO_GR_CreateSuccess*)pData;

  000cb	8b 45 0c	 mov	 eax, DWORD PTR _pData$[ebp]
  000ce	89 45 ec	 mov	 DWORD PTR _pCreateSuccess$[ebp], eax

; 994  : 
; 995  : 	//获取信息
; 996  : 	CTableFrame* pTableFrame = (CTableFrame*)m_ppITableFrame[pCreateSuccess->dwTableID];

  000d1	8b 45 ec	 mov	 eax, DWORD PTR _pCreateSuccess$[ebp]
  000d4	8b 48 48	 mov	 ecx, DWORD PTR [eax+72]
  000d7	8b 55 f8	 mov	 edx, DWORD PTR _this$[ebp]
  000da	8b 82 a0 00 00
	00		 mov	 eax, DWORD PTR [edx+160]
  000e0	8b 0c 88	 mov	 ecx, DWORD PTR [eax+ecx*4]
  000e3	89 4d e8	 mov	 DWORD PTR _pTableFrame$[ebp], ecx

; 997  : 
; 998  : 	if(pTableFrame == NULL)

  000e6	83 7d e8 00	 cmp	 DWORD PTR _pTableFrame$[ebp], 0
  000ea	75 07		 jne	 SHORT $LN12@OnDBCreate

; 999  : 	{
; 1000 : 		return true;

  000ec	b0 01		 mov	 al, 1
  000ee	e9 75 0b 00 00	 jmp	 $LN1@OnDBCreate
$LN12@OnDBCreate:

; 1001 : 	}
; 1002 : 
; 1003 : 	WORD wChairID = pTableFrame->GetNullChairID();

  000f3	8b 45 e8	 mov	 eax, DWORD PTR _pTableFrame$[ebp]
  000f6	8b 10		 mov	 edx, DWORD PTR [eax]
  000f8	8b 4d e8	 mov	 ecx, DWORD PTR _pTableFrame$[ebp]
  000fb	8b 82 2c 01 00
	00		 mov	 eax, DWORD PTR [edx+300]
  00101	ff d0		 call	 eax
  00103	66 89 45 e4	 mov	 WORD PTR _wChairID$[ebp], ax

; 1004 : 	
; 1005 : 	//设置房主的地址
; 1006 : 	pTableFrame->SetHostAddr(pIServerUserItem->GetClientAddr());

  00107	8b 45 14	 mov	 eax, DWORD PTR _pIServerUserItem$[ebp]
  0010a	8b 10		 mov	 edx, DWORD PTR [eax]
  0010c	8b 4d 14	 mov	 ecx, DWORD PTR _pIServerUserItem$[ebp]
  0010f	8b 42 0c	 mov	 eax, DWORD PTR [edx+12]
  00112	ff d0		 call	 eax
  00114	50		 push	 eax
  00115	8b 4d e8	 mov	 ecx, DWORD PTR _pTableFrame$[ebp]
  00118	8b 11		 mov	 edx, DWORD PTR [ecx]
  0011a	8b 4d e8	 mov	 ecx, DWORD PTR _pTableFrame$[ebp]
  0011d	8b 82 60 01 00
	00		 mov	 eax, DWORD PTR [edx+352]
  00123	ff d0		 call	 eax

; 1007 : 
; 1008 : 	//初始分数
; 1009 : 	LONGLONG lIniScore = 0;

  00125	0f 57 c0	 xorps	 xmm0, xmm0
  00128	66 0f 13 45 dc	 movlpd	 QWORD PTR _lIniScore$[ebp], xmm0

; 1010 : 	byte cbIsJoinGame = 0;

  0012d	c6 45 db 00	 mov	 BYTE PTR _cbIsJoinGame$[ebp], 0

; 1011 : 	INT_PTR nSize = m_PersonalTableParameterArray.GetCount();

  00131	8b 4d f8	 mov	 ecx, DWORD PTR _this$[ebp]
  00134	81 c1 8c 00 00
	00		 add	 ecx, 140		; 0000008cH
  0013a	e8 00 00 00 00	 call	 ?GetCount@?$CWHArray@PAUtagPersonalTableParameter@@ABQAU1@@@QBEHXZ ; CWHArray<tagPersonalTableParameter *,tagPersonalTableParameter * const &>::GetCount
  0013f	89 45 d4	 mov	 DWORD PTR _nSize$[ebp], eax

; 1012 : 	for(INT_PTR i = 0; i < nSize; ++i)

  00142	c7 45 d0 00 00
	00 00		 mov	 DWORD PTR _i$4[ebp], 0
  00149	eb 09		 jmp	 SHORT $LN4@OnDBCreate
$LN2@OnDBCreate:
  0014b	8b 45 d0	 mov	 eax, DWORD PTR _i$4[ebp]
  0014e	83 c0 01	 add	 eax, 1
  00151	89 45 d0	 mov	 DWORD PTR _i$4[ebp], eax
$LN4@OnDBCreate:
  00154	8b 45 d0	 mov	 eax, DWORD PTR _i$4[ebp]
  00157	3b 45 d4	 cmp	 eax, DWORD PTR _nSize$[ebp]
  0015a	0f 8d 88 00 00
	00		 jge	 $LN3@OnDBCreate

; 1013 : 	{
; 1014 : 		tagPersonalTableParameter* pTableParameter = m_PersonalTableParameterArray.GetAt(i);

  00160	8b 45 d0	 mov	 eax, DWORD PTR _i$4[ebp]
  00163	50		 push	 eax
  00164	8b 4d f8	 mov	 ecx, DWORD PTR _this$[ebp]
  00167	81 c1 8c 00 00
	00		 add	 ecx, 140		; 0000008cH
  0016d	e8 00 00 00 00	 call	 ?GetAt@?$CWHArray@PAUtagPersonalTableParameter@@ABQAU1@@@QAEAAPAUtagPersonalTableParameter@@H@Z ; CWHArray<tagPersonalTableParameter *,tagPersonalTableParameter * const &>::GetAt
  00172	8b 08		 mov	 ecx, DWORD PTR [eax]
  00174	89 4d cc	 mov	 DWORD PTR _pTableParameter$3[ebp], ecx

; 1015 : 		if(pTableParameter->dwPlayTurnCount == pCreateSuccess->dwDrawCountLimit && pTableParameter->dwPlayTimeLimit == pCreateSuccess->dwDrawTimeLimit)

  00177	8b 45 cc	 mov	 eax, DWORD PTR _pTableParameter$3[ebp]
  0017a	8b 4d ec	 mov	 ecx, DWORD PTR _pCreateSuccess$[ebp]
  0017d	8b 50 13	 mov	 edx, DWORD PTR [eax+19]
  00180	3b 51 4c	 cmp	 edx, DWORD PTR [ecx+76]
  00183	75 5e		 jne	 SHORT $LN13@OnDBCreate
  00185	8b 45 cc	 mov	 eax, DWORD PTR _pTableParameter$3[ebp]
  00188	8b 4d ec	 mov	 ecx, DWORD PTR _pCreateSuccess$[ebp]
  0018b	8b 50 17	 mov	 edx, DWORD PTR [eax+23]
  0018e	3b 51 50	 cmp	 edx, DWORD PTR [ecx+80]
  00191	75 50		 jne	 SHORT $LN13@OnDBCreate

; 1016 : 		{
; 1017 : 			lIniScore = pTableParameter->lIniScore;

  00193	8b 45 cc	 mov	 eax, DWORD PTR _pTableParameter$3[ebp]
  00196	8b 48 01	 mov	 ecx, DWORD PTR [eax+1]
  00199	89 4d dc	 mov	 DWORD PTR _lIniScore$[ebp], ecx
  0019c	8b 50 05	 mov	 edx, DWORD PTR [eax+5]
  0019f	89 55 e0	 mov	 DWORD PTR _lIniScore$[ebp+4], edx

; 1018 : 
; 1019 : 			//将配置信息改为制定的配置信息
; 1020 : 			pTableParameter->wJoinGamePeopleCount = pCreateSuccess->wJoinGamePeopleCount;				//参加游戏的最大人数

  001a2	8b 45 cc	 mov	 eax, DWORD PTR _pTableParameter$3[ebp]
  001a5	8b 4d ec	 mov	 ecx, DWORD PTR _pCreateSuccess$[ebp]
  001a8	66 8b 51 54	 mov	 dx, WORD PTR [ecx+84]
  001ac	66 89 50 09	 mov	 WORD PTR [eax+9], dx

; 1021 : 			pTableParameter->lCellScore = pCreateSuccess->lCellScore;									//约战房的最大底分

  001b0	8b 45 ec	 mov	 eax, DWORD PTR _pCreateSuccess$[ebp]
  001b3	8b 40 04	 mov	 eax, DWORD PTR [eax+4]
  001b6	99		 cdq
  001b7	8b 4d cc	 mov	 ecx, DWORD PTR _pTableParameter$3[ebp]
  001ba	89 41 0b	 mov	 DWORD PTR [ecx+11], eax
  001bd	89 51 0f	 mov	 DWORD PTR [ecx+15], edx

; 1022 : 
; 1023 : 			pTableParameter->dwPlayTurnCount = pCreateSuccess->dwDrawCountLimit; 						//私人放进行游戏的最大局数

  001c0	8b 45 cc	 mov	 eax, DWORD PTR _pTableParameter$3[ebp]
  001c3	8b 4d ec	 mov	 ecx, DWORD PTR _pCreateSuccess$[ebp]
  001c6	8b 51 4c	 mov	 edx, DWORD PTR [ecx+76]
  001c9	89 50 13	 mov	 DWORD PTR [eax+19], edx

; 1024 : 			pTableParameter->dwPlayTimeLimit = pCreateSuccess->dwDrawTimeLimit;							//约战房进行游戏的最大时间 单位秒

  001cc	8b 45 cc	 mov	 eax, DWORD PTR _pTableParameter$3[ebp]
  001cf	8b 4d ec	 mov	 ecx, DWORD PTR _pCreateSuccess$[ebp]
  001d2	8b 51 50	 mov	 edx, DWORD PTR [ecx+80]
  001d5	89 50 17	 mov	 DWORD PTR [eax+23], edx

; 1025 : 
; 1026 : 			cbIsJoinGame = pTableParameter->cbIsJoinGame ;

  001d8	8b 45 cc	 mov	 eax, DWORD PTR _pTableParameter$3[ebp]
  001db	8a 48 1b	 mov	 cl, BYTE PTR [eax+27]
  001de	88 4d db	 mov	 BYTE PTR _cbIsJoinGame$[ebp], cl

; 1027 : 
; 1028 : 			break;

  001e1	eb 05		 jmp	 SHORT $LN3@OnDBCreate
$LN13@OnDBCreate:

; 1029 : 		}
; 1030 : 	}

  001e3	e9 63 ff ff ff	 jmp	 $LN2@OnDBCreate
$LN3@OnDBCreate:

; 1031 : 
; 1032 : 	cbIsJoinGame = m_pPersonalRoomOption->cbIsJoinGame;

  001e8	8b 45 f8	 mov	 eax, DWORD PTR _this$[ebp]
  001eb	8b 48 0c	 mov	 ecx, DWORD PTR [eax+12]
  001ee	8a 11		 mov	 dl, BYTE PTR [ecx]
  001f0	88 55 db	 mov	 BYTE PTR _cbIsJoinGame$[ebp], dl

; 1033 : 	if (pCreateSuccess->lCellScore != 0)

  001f3	8b 45 ec	 mov	 eax, DWORD PTR _pCreateSuccess$[ebp]
  001f6	83 78 04 00	 cmp	 DWORD PTR [eax+4], 0
  001fa	74 14		 je	 SHORT $LN14@OnDBCreate

; 1034 : 	{
; 1035 : 			pTableFrame->SetCellScore(pCreateSuccess->lCellScore);

  001fc	8b 45 ec	 mov	 eax, DWORD PTR _pCreateSuccess$[ebp]
  001ff	8b 48 04	 mov	 ecx, DWORD PTR [eax+4]
  00202	51		 push	 ecx
  00203	8b 55 e8	 mov	 edx, DWORD PTR _pTableFrame$[ebp]
  00206	8b 02		 mov	 eax, DWORD PTR [edx]
  00208	8b 4d e8	 mov	 ecx, DWORD PTR _pTableFrame$[ebp]
  0020b	8b 50 34	 mov	 edx, DWORD PTR [eax+52]
  0020e	ff d2		 call	 edx
$LN14@OnDBCreate:

; 1036 : 	}
; 1037 : 
; 1038 : 	pTableFrame->SetGameRule(pCreateSuccess->cbGameRule, RULE_LEN);

  00210	6a 64		 push	 100			; 00000064H
  00212	8b 45 ec	 mov	 eax, DWORD PTR _pCreateSuccess$[ebp]
  00215	05 8f 00 00 00	 add	 eax, 143		; 0000008fH
  0021a	50		 push	 eax
  0021b	8b 4d e8	 mov	 ecx, DWORD PTR _pTableFrame$[ebp]
  0021e	8b 11		 mov	 edx, DWORD PTR [ecx]
  00220	8b 4d e8	 mov	 ecx, DWORD PTR _pTableFrame$[ebp]
  00223	8b 82 4c 01 00
	00		 mov	 eax, DWORD PTR [edx+332]
  00229	ff d0		 call	 eax

; 1039 : 	
; 1040 : 	tagRoomPassword  _roompass[MAX_PASSWORD_COUNT];
; 1041 : 	memset(_roompass, 0, sizeof(_roompass));

  0022b	6a 78		 push	 120			; 00000078H
  0022d	6a 00		 push	 0
  0022f	8d 85 54 ff ff
	ff		 lea	 eax, DWORD PTR __roompass$[ebp]
  00235	50		 push	 eax
  00236	e8 00 00 00 00	 call	 _memset
  0023b	83 c4 0c	 add	 esp, 12			; 0000000cH

; 1042 : 
; 1043 : 	if (pCreateSuccess->cbPassword == 1)

  0023e	8b 45 ec	 mov	 eax, DWORD PTR _pCreateSuccess$[ebp]
  00241	0f b6 48 7e	 movzx	 ecx, BYTE PTR [eax+126]
  00245	83 f9 01	 cmp	 ecx, 1
  00248	0f 85 83 00 00
	00		 jne	 $LN15@OnDBCreate

; 1044 : 	{
; 1045 : 		srand(rand());

  0024e	ff 15 00 00 00
	00		 call	 DWORD PTR __imp__rand
  00254	50		 push	 eax
  00255	ff 15 00 00 00
	00		 call	 DWORD PTR __imp__srand
  0025b	83 c4 04	 add	 esp, 4

; 1046 : 		for (int i = 0; i < MAX_PASSWORD_COUNT; i++)

  0025e	c7 85 50 ff ff
	ff 00 00 00 00	 mov	 DWORD PTR _i$2[ebp], 0
  00268	eb 0f		 jmp	 SHORT $LN7@OnDBCreate
$LN5@OnDBCreate:
  0026a	8b 85 50 ff ff
	ff		 mov	 eax, DWORD PTR _i$2[ebp]
  00270	83 c0 01	 add	 eax, 1
  00273	89 85 50 ff ff
	ff		 mov	 DWORD PTR _i$2[ebp], eax
$LN7@OnDBCreate:
  00279	83 bd 50 ff ff
	ff 0a		 cmp	 DWORD PTR _i$2[ebp], 10	; 0000000aH
  00280	7d 39		 jge	 SHORT $LN6@OnDBCreate

; 1047 : 		{
; 1048 : 			_roompass[i].dwRoomPass = rand() % 9999 + (rand() % 89 + 10) * 10000;

  00282	ff 15 00 00 00
	00		 call	 DWORD PTR __imp__rand
  00288	99		 cdq
  00289	b9 0f 27 00 00	 mov	 ecx, 9999		; 0000270fH
  0028e	f7 f9		 idiv	 ecx
  00290	8b f2		 mov	 esi, edx
  00292	ff 15 00 00 00
	00		 call	 DWORD PTR __imp__rand
  00298	99		 cdq
  00299	b9 59 00 00 00	 mov	 ecx, 89			; 00000059H
  0029e	f7 f9		 idiv	 ecx
  002a0	83 c2 0a	 add	 edx, 10			; 0000000aH
  002a3	69 d2 10 27 00
	00		 imul	 edx, edx, 10000
  002a9	03 f2		 add	 esi, edx
  002ab	6b 85 50 ff ff
	ff 0c		 imul	 eax, DWORD PTR _i$2[ebp], 12
  002b2	89 b4 05 58 ff
	ff ff		 mov	 DWORD PTR __roompass$[ebp+eax+4], esi

; 1049 : 		}	

  002b9	eb af		 jmp	 SHORT $LN5@OnDBCreate
$LN6@OnDBCreate:

; 1050 : 		pTableFrame->SetPersonalTablePassword(_roompass);

  002bb	8d 85 54 ff ff
	ff		 lea	 eax, DWORD PTR __roompass$[ebp]
  002c1	50		 push	 eax
  002c2	8b 4d e8	 mov	 ecx, DWORD PTR _pTableFrame$[ebp]
  002c5	8b 11		 mov	 edx, DWORD PTR [ecx]
  002c7	8b 4d e8	 mov	 ecx, DWORD PTR _pTableFrame$[ebp]
  002ca	8b 42 14	 mov	 eax, DWORD PTR [edx+20]
  002cd	ff d0		 call	 eax

; 1051 : 	}
; 1052 : 	else

  002cf	eb 14		 jmp	 SHORT $LN16@OnDBCreate
$LN15@OnDBCreate:

; 1053 : 		pTableFrame->SetPersonalTablePassword(_roompass);

  002d1	8d 85 54 ff ff
	ff		 lea	 eax, DWORD PTR __roompass$[ebp]
  002d7	50		 push	 eax
  002d8	8b 4d e8	 mov	 ecx, DWORD PTR _pTableFrame$[ebp]
  002db	8b 11		 mov	 edx, DWORD PTR [ecx]
  002dd	8b 4d e8	 mov	 ecx, DWORD PTR _pTableFrame$[ebp]
  002e0	8b 42 14	 mov	 eax, DWORD PTR [edx+20]
  002e3	ff d0		 call	 eax
$LN16@OnDBCreate:

; 1054 : 	//生成房间唯一标识
; 1055 : 	TCHAR szInfo[32] = {0};

  002e5	33 c0		 xor	 eax, eax
  002e7	89 85 30 ff ff
	ff		 mov	 DWORD PTR _szInfo$[ebp], eax
  002ed	89 85 34 ff ff
	ff		 mov	 DWORD PTR _szInfo$[ebp+4], eax
  002f3	89 85 38 ff ff
	ff		 mov	 DWORD PTR _szInfo$[ebp+8], eax
  002f9	89 85 3c ff ff
	ff		 mov	 DWORD PTR _szInfo$[ebp+12], eax
  002ff	89 85 40 ff ff
	ff		 mov	 DWORD PTR _szInfo$[ebp+16], eax
  00305	89 85 44 ff ff
	ff		 mov	 DWORD PTR _szInfo$[ebp+20], eax
  0030b	89 85 48 ff ff
	ff		 mov	 DWORD PTR _szInfo$[ebp+24], eax
  00311	89 85 4c ff ff
	ff		 mov	 DWORD PTR _szInfo$[ebp+28], eax

; 1056 : 	SYSTEMTIME tm;
; 1057 : 	GetLocalTime(&tm);

  00317	8d 85 20 ff ff
	ff		 lea	 eax, DWORD PTR _tm$[ebp]
  0031d	50		 push	 eax
  0031e	ff 15 00 00 00
	00		 call	 DWORD PTR __imp__GetLocalTime@4

; 1058 : 	wsprintf(szInfo, TEXT("%d%d%d%d%d%d%d%d"), pIServerUserItem->GetUserID(),  tm.wYear,  tm.wMonth, tm.wDay, tm.wHour, tm.wMinute, tm.wSecond, tm.wMilliseconds);

  00324	0f b7 85 2e ff
	ff ff		 movzx	 eax, WORD PTR _tm$[ebp+14]
  0032b	50		 push	 eax
  0032c	0f b7 8d 2c ff
	ff ff		 movzx	 ecx, WORD PTR _tm$[ebp+12]
  00333	51		 push	 ecx
  00334	0f b7 95 2a ff
	ff ff		 movzx	 edx, WORD PTR _tm$[ebp+10]
  0033b	52		 push	 edx
  0033c	0f b7 85 28 ff
	ff ff		 movzx	 eax, WORD PTR _tm$[ebp+8]
  00343	50		 push	 eax
  00344	0f b7 8d 26 ff
	ff ff		 movzx	 ecx, WORD PTR _tm$[ebp+6]
  0034b	51		 push	 ecx
  0034c	0f b7 95 22 ff
	ff ff		 movzx	 edx, WORD PTR _tm$[ebp+2]
  00353	52		 push	 edx
  00354	0f b7 85 20 ff
	ff ff		 movzx	 eax, WORD PTR _tm$[ebp]
  0035b	50		 push	 eax
  0035c	8b 4d 14	 mov	 ecx, DWORD PTR _pIServerUserItem$[ebp]
  0035f	8b 11		 mov	 edx, DWORD PTR [ecx]
  00361	8b 4d 14	 mov	 ecx, DWORD PTR _pIServerUserItem$[ebp]
  00364	8b 42 5c	 mov	 eax, DWORD PTR [edx+92]
  00367	ff d0		 call	 eax
  00369	50		 push	 eax
  0036a	68 00 00 00 00	 push	 OFFSET ??_C@_0BB@JFMJGBEP@?$CFd?$CFd?$CFd?$CFd?$CFd?$CFd?$CFd?$CFd@
  0036f	8d 8d 30 ff ff
	ff		 lea	 ecx, DWORD PTR _szInfo$[ebp]
  00375	51		 push	 ecx
  00376	ff 15 00 00 00
	00		 call	 DWORD PTR __imp__wsprintfA
  0037c	83 c4 28	 add	 esp, 40			; 00000028H

; 1059 : 
; 1060 : 	//设置私人房间唯一标识
; 1061 : 	pTableFrame->SetPersonalRoomGUID(szInfo, lstrlen(szInfo));

  0037f	8d 85 30 ff ff
	ff		 lea	 eax, DWORD PTR _szInfo$[ebp]
  00385	50		 push	 eax
  00386	ff 15 00 00 00
	00		 call	 DWORD PTR __imp__lstrlenA@4
  0038c	50		 push	 eax
  0038d	8d 8d 30 ff ff
	ff		 lea	 ecx, DWORD PTR _szInfo$[ebp]
  00393	51		 push	 ecx
  00394	8b 55 e8	 mov	 edx, DWORD PTR _pTableFrame$[ebp]
  00397	8b 02		 mov	 eax, DWORD PTR [edx]
  00399	8b 4d e8	 mov	 ecx, DWORD PTR _pTableFrame$[ebp]
  0039c	8b 90 50 01 00
	00		 mov	 edx, DWORD PTR [eax+336]
  003a2	ff d2		 call	 edx

; 1062 : 	pTableFrame->SetPersonalRoomID(0);

  003a4	6a 00		 push	 0
  003a6	8b 45 e8	 mov	 eax, DWORD PTR _pTableFrame$[ebp]
  003a9	8b 10		 mov	 edx, DWORD PTR [eax]
  003ab	8b 4d e8	 mov	 ecx, DWORD PTR _pTableFrame$[ebp]
  003ae	8b 82 40 01 00
	00		 mov	 eax, DWORD PTR [edx+320]
  003b4	ff d0		 call	 eax

; 1063 : 
; 1064 : 	//如果使用的是金币数据库
; 1065 : 	if (lstrcmp(m_pGameServiceOption->szDataBaseName, szTreasureDB) == 0)

  003b6	68 00 00 00 00	 push	 OFFSET ?szTreasureDB@@3QBDB
  003bb	8b 45 f8	 mov	 eax, DWORD PTR _this$[ebp]
  003be	8b 48 10	 mov	 ecx, DWORD PTR [eax+16]
  003c1	81 c1 ac 00 00
	00		 add	 ecx, 172		; 000000acH
  003c7	51		 push	 ecx
  003c8	ff 15 00 00 00
	00		 call	 DWORD PTR __imp__lstrcmpA@8
  003ce	85 c0		 test	 eax, eax
  003d0	75 33		 jne	 SHORT $LN17@OnDBCreate

; 1066 : 	{
; 1067 : 		pTableFrame->SetPersonalTable(pCreateSuccess->dwDrawCountLimit, pCreateSuccess->dwDrawTimeLimit, 0);

  003d2	6a 00		 push	 0
  003d4	6a 00		 push	 0
  003d6	8b 45 ec	 mov	 eax, DWORD PTR _pCreateSuccess$[ebp]
  003d9	8b 48 50	 mov	 ecx, DWORD PTR [eax+80]
  003dc	51		 push	 ecx
  003dd	8b 55 ec	 mov	 edx, DWORD PTR _pCreateSuccess$[ebp]
  003e0	8b 42 4c	 mov	 eax, DWORD PTR [edx+76]
  003e3	50		 push	 eax
  003e4	8b 4d e8	 mov	 ecx, DWORD PTR _pTableFrame$[ebp]
  003e7	8b 11		 mov	 edx, DWORD PTR [ecx]
  003e9	8b 4d e8	 mov	 ecx, DWORD PTR _pTableFrame$[ebp]
  003ec	8b 42 58	 mov	 eax, DWORD PTR [edx+88]
  003ef	ff d0		 call	 eax

; 1068 : 		pTableFrame->SetDataBaseMode(0);

  003f1	6a 00		 push	 0
  003f3	8b 45 e8	 mov	 eax, DWORD PTR _pTableFrame$[ebp]
  003f6	8b 10		 mov	 edx, DWORD PTR [eax]
  003f8	8b 4d e8	 mov	 ecx, DWORD PTR _pTableFrame$[ebp]
  003fb	8b 82 08 01 00
	00		 mov	 eax, DWORD PTR [edx+264]
  00401	ff d0		 call	 eax

; 1069 : 	}
; 1070 : 	else

  00403	eb 35		 jmp	 SHORT $LN18@OnDBCreate
$LN17@OnDBCreate:

; 1071 : 	{
; 1072 : 		pTableFrame->SetPersonalTable(pCreateSuccess->dwDrawCountLimit, pCreateSuccess->dwDrawTimeLimit, lIniScore);

  00405	8b 45 e0	 mov	 eax, DWORD PTR _lIniScore$[ebp+4]
  00408	50		 push	 eax
  00409	8b 4d dc	 mov	 ecx, DWORD PTR _lIniScore$[ebp]
  0040c	51		 push	 ecx
  0040d	8b 55 ec	 mov	 edx, DWORD PTR _pCreateSuccess$[ebp]
  00410	8b 42 50	 mov	 eax, DWORD PTR [edx+80]
  00413	50		 push	 eax
  00414	8b 4d ec	 mov	 ecx, DWORD PTR _pCreateSuccess$[ebp]
  00417	8b 51 4c	 mov	 edx, DWORD PTR [ecx+76]
  0041a	52		 push	 edx
  0041b	8b 45 e8	 mov	 eax, DWORD PTR _pTableFrame$[ebp]
  0041e	8b 10		 mov	 edx, DWORD PTR [eax]
  00420	8b 4d e8	 mov	 ecx, DWORD PTR _pTableFrame$[ebp]
  00423	8b 42 58	 mov	 eax, DWORD PTR [edx+88]
  00426	ff d0		 call	 eax

; 1073 : 		pTableFrame->SetDataBaseMode(1);

  00428	6a 01		 push	 1
  0042a	8b 45 e8	 mov	 eax, DWORD PTR _pTableFrame$[ebp]
  0042d	8b 10		 mov	 edx, DWORD PTR [eax]
  0042f	8b 4d e8	 mov	 ecx, DWORD PTR _pTableFrame$[ebp]
  00432	8b 82 08 01 00
	00		 mov	 eax, DWORD PTR [edx+264]
  00438	ff d0		 call	 eax
$LN18@OnDBCreate:

; 1074 : 	}
; 1075 : 
; 1076 : 
; 1077 : 	//设置桌子配置信息
; 1078 : 	tagPersonalTableParameter PersonalTableParameter;
; 1079 : 	PersonalTableParameter.lIniScore = lIniScore;

  0043a	8b 45 dc	 mov	 eax, DWORD PTR _lIniScore$[ebp]
  0043d	89 85 f1 fe ff
	ff		 mov	 DWORD PTR _PersonalTableParameter$[ebp+1], eax
  00443	8b 4d e0	 mov	 ecx, DWORD PTR _lIniScore$[ebp+4]
  00446	89 8d f5 fe ff
	ff		 mov	 DWORD PTR _PersonalTableParameter$[ebp+5], ecx

; 1080 : 	PersonalTableParameter.wJoinGamePeopleCount = pCreateSuccess->wJoinGamePeopleCount;					//参加游戏的最大人数

  0044c	8b 45 ec	 mov	 eax, DWORD PTR _pCreateSuccess$[ebp]
  0044f	66 8b 48 54	 mov	 cx, WORD PTR [eax+84]
  00453	66 89 8d f9 fe
	ff ff		 mov	 WORD PTR _PersonalTableParameter$[ebp+9], cx

; 1081 : 	PersonalTableParameter.lCellScore = pCreateSuccess->lCellScore;										//约战房的最大底分

  0045a	8b 45 ec	 mov	 eax, DWORD PTR _pCreateSuccess$[ebp]
  0045d	8b 40 04	 mov	 eax, DWORD PTR [eax+4]
  00460	99		 cdq
  00461	89 85 fb fe ff
	ff		 mov	 DWORD PTR _PersonalTableParameter$[ebp+11], eax
  00467	89 95 ff fe ff
	ff		 mov	 DWORD PTR _PersonalTableParameter$[ebp+15], edx

; 1082 : 	PersonalTableParameter.dwPlayTurnCount = pCreateSuccess->dwDrawCountLimit; 							//私人放进行游戏的最大局数

  0046d	8b 45 ec	 mov	 eax, DWORD PTR _pCreateSuccess$[ebp]
  00470	8b 48 4c	 mov	 ecx, DWORD PTR [eax+76]
  00473	89 8d 03 ff ff
	ff		 mov	 DWORD PTR _PersonalTableParameter$[ebp+19], ecx

; 1083 : 	PersonalTableParameter.dwPlayTimeLimit = pCreateSuccess->dwDrawTimeLimit;							//约战房进行游戏的最大时间 单位秒

  00479	8b 45 ec	 mov	 eax, DWORD PTR _pCreateSuccess$[ebp]
  0047c	8b 48 50	 mov	 ecx, DWORD PTR [eax+80]
  0047f	89 8d 07 ff ff
	ff		 mov	 DWORD PTR _PersonalTableParameter$[ebp+23], ecx

; 1084 : 	PersonalTableParameter.cbIsJoinGame = cbIsJoinGame;

  00485	8a 45 db	 mov	 al, BYTE PTR _cbIsJoinGame$[ebp]
  00488	88 85 0b ff ff
	ff		 mov	 BYTE PTR _PersonalTableParameter$[ebp+27], al

; 1085 : 		
; 1086 : 	PersonalTableParameter.dwTimeAfterBeginCount = m_pPersonalRoomOption->dwTimeAfterBeginCount;

  0048e	8b 45 f8	 mov	 eax, DWORD PTR _this$[ebp]
  00491	8b 48 0c	 mov	 ecx, DWORD PTR [eax+12]
  00494	8b 51 5d	 mov	 edx, DWORD PTR [ecx+93]
  00497	89 95 0c ff ff
	ff		 mov	 DWORD PTR _PersonalTableParameter$[ebp+28], edx

; 1087 : 	PersonalTableParameter.dwTimeAfterCreateRoom =m_pPersonalRoomOption->dwTimeAfterCreateRoom;

  0049d	8b 45 f8	 mov	 eax, DWORD PTR _this$[ebp]
  004a0	8b 48 0c	 mov	 ecx, DWORD PTR [eax+12]
  004a3	8b 51 69	 mov	 edx, DWORD PTR [ecx+105]
  004a6	89 95 18 ff ff
	ff		 mov	 DWORD PTR _PersonalTableParameter$[ebp+40], edx

; 1088 : 	PersonalTableParameter.dwTimeNotBeginGame = m_pPersonalRoomOption->dwTimeNotBeginGame;

  004ac	8b 45 f8	 mov	 eax, DWORD PTR _this$[ebp]
  004af	8b 48 0c	 mov	 ecx, DWORD PTR [eax+12]
  004b2	8b 51 65	 mov	 edx, DWORD PTR [ecx+101]
  004b5	89 95 14 ff ff
	ff		 mov	 DWORD PTR _PersonalTableParameter$[ebp+36], edx

; 1089 : 	PersonalTableParameter.dwTimeOffLineCount = m_pPersonalRoomOption->dwTimeOffLineCount;

  004bb	8b 45 f8	 mov	 eax, DWORD PTR _this$[ebp]
  004be	8b 48 0c	 mov	 ecx, DWORD PTR [eax+12]
  004c1	8b 51 61	 mov	 edx, DWORD PTR [ecx+97]
  004c4	89 95 10 ff ff
	ff		 mov	 DWORD PTR _PersonalTableParameter$[ebp+32], edx

; 1090 : 	PersonalTableParameter.wBeginFreeTime = m_pPersonalRoomOption->wBeginFreeTime;

  004ca	8b 45 f8	 mov	 eax, DWORD PTR _this$[ebp]
  004cd	8b 48 0c	 mov	 ecx, DWORD PTR [eax+12]
  004d0	66 8b 51 6d	 mov	 dx, WORD PTR [ecx+109]
  004d4	66 89 95 1c ff
	ff ff		 mov	 WORD PTR _PersonalTableParameter$[ebp+44], dx

; 1091 : 	PersonalTableParameter.wEndFreeTime = m_pPersonalRoomOption->wEndFreeTime;

  004db	8b 45 f8	 mov	 eax, DWORD PTR _this$[ebp]
  004de	8b 48 0c	 mov	 ecx, DWORD PTR [eax+12]
  004e1	66 8b 51 6f	 mov	 dx, WORD PTR [ecx+111]
  004e5	66 89 95 1e ff
	ff ff		 mov	 WORD PTR _PersonalTableParameter$[ebp+46], dx

; 1092 : 
; 1093 : 	pTableFrame->SetPersonalTableParameter(PersonalTableParameter, *m_pPersonalRoomOption);

  004ec	8b 45 f8	 mov	 eax, DWORD PTR _this$[ebp]
  004ef	8b 70 0c	 mov	 esi, DWORD PTR [eax+12]
  004f2	83 ec 74	 sub	 esp, 116		; 00000074H
  004f5	b9 1c 00 00 00	 mov	 ecx, 28			; 0000001cH
  004fa	8b fc		 mov	 edi, esp
  004fc	f3 a5		 rep movsd
  004fe	a4		 movsb
  004ff	83 ec 30	 sub	 esp, 48			; 00000030H
  00502	b9 0c 00 00 00	 mov	 ecx, 12			; 0000000cH
  00507	8d b5 f0 fe ff
	ff		 lea	 esi, DWORD PTR _PersonalTableParameter$[ebp]
  0050d	8b fc		 mov	 edi, esp
  0050f	f3 a5		 rep movsd
  00511	8b 4d e8	 mov	 ecx, DWORD PTR _pTableFrame$[ebp]
  00514	8b 11		 mov	 edx, DWORD PTR [ecx]
  00516	8b 4d e8	 mov	 ecx, DWORD PTR _pTableFrame$[ebp]
  00519	8b 42 5c	 mov	 eax, DWORD PTR [edx+92]
  0051c	ff d0		 call	 eax

; 1094 : 
; 1095 : 	//设置支付模式
; 1096 : 	pTableFrame->SetPayRoomCardMode(pCreateSuccess->cbPayMode, pCreateSuccess->iRoomCardFee,pCreateSuccess->cbGameMode);

  0051e	8b 45 ec	 mov	 eax, DWORD PTR _pCreateSuccess$[ebp]
  00521	0f b6 88 f9 00
	00 00		 movzx	 ecx, BYTE PTR [eax+249]
  00528	51		 push	 ecx
  00529	8b 55 ec	 mov	 edx, DWORD PTR _pCreateSuccess$[ebp]
  0052c	8b 82 f4 00 00
	00		 mov	 eax, DWORD PTR [edx+244]
  00532	50		 push	 eax
  00533	8b 4d ec	 mov	 ecx, DWORD PTR _pCreateSuccess$[ebp]
  00536	0f b6 91 f8 00
	00 00		 movzx	 edx, BYTE PTR [ecx+248]
  0053d	52		 push	 edx
  0053e	8b 45 e8	 mov	 eax, DWORD PTR _pTableFrame$[ebp]
  00541	8b 10		 mov	 edx, DWORD PTR [eax]
  00543	8b 4d e8	 mov	 ecx, DWORD PTR _pTableFrame$[ebp]
  00546	8b 82 58 01 00
	00		 mov	 eax, DWORD PTR [edx+344]
  0054c	ff d0		 call	 eax

; 1097 : 
; 1098 : 	pTableFrame->SetCreatePersonalTime(tm);

  0054e	83 ec 10	 sub	 esp, 16			; 00000010H
  00551	8b c4		 mov	 eax, esp
  00553	8b 8d 20 ff ff
	ff		 mov	 ecx, DWORD PTR _tm$[ebp]
  00559	89 08		 mov	 DWORD PTR [eax], ecx
  0055b	8b 95 24 ff ff
	ff		 mov	 edx, DWORD PTR _tm$[ebp+4]
  00561	89 50 04	 mov	 DWORD PTR [eax+4], edx
  00564	8b 8d 28 ff ff
	ff		 mov	 ecx, DWORD PTR _tm$[ebp+8]
  0056a	89 48 08	 mov	 DWORD PTR [eax+8], ecx
  0056d	8b 95 2c ff ff
	ff		 mov	 edx, DWORD PTR _tm$[ebp+12]
  00573	89 50 0c	 mov	 DWORD PTR [eax+12], edx
  00576	8b 45 e8	 mov	 eax, DWORD PTR _pTableFrame$[ebp]
  00579	8b 10		 mov	 edx, DWORD PTR [eax]
  0057b	8b 4d e8	 mov	 ecx, DWORD PTR _pTableFrame$[ebp]
  0057e	8b 82 68 01 00
	00		 mov	 eax, DWORD PTR [edx+360]
  00584	ff d0		 call	 eax

; 1099 : 	
; 1100 : 	CMD_GR_ChangeChairCount  ChangeChairCount;
; 1101 : 	ChangeChairCount.dwChairCount = pCreateSuccess->wJoinGamePeopleCount;

  00586	8b 45 ec	 mov	 eax, DWORD PTR _pCreateSuccess$[ebp]
  00589	0f b7 48 54	 movzx	 ecx, WORD PTR [eax+84]
  0058d	89 8d ec fe ff
	ff		 mov	 DWORD PTR _ChangeChairCount$[ebp], ecx

; 1102 : 	//cbGameRule[1] 为  2 、3 、4 、5, 0分别对应 2人 、 3人 、 4人 、 5人 、 2-5人 这几种配置
; 1103 : 	if (pCreateSuccess->cbGameRule[0] == SET_RULE ) 

  00593	b8 01 00 00 00	 mov	 eax, 1
  00598	6b c8 00	 imul	 ecx, eax, 0
  0059b	8b 55 ec	 mov	 edx, DWORD PTR _pCreateSuccess$[ebp]
  0059e	0f b6 84 0a 8f
	00 00 00	 movzx	 eax, BYTE PTR [edx+ecx+143]
  005a6	83 f8 01	 cmp	 eax, 1
  005a9	0f 85 f7 00 00
	00		 jne	 $LN19@OnDBCreate

; 1104 : 	{
; 1105 : 		if( pCreateSuccess->cbGameRule[1] != 0)

  005af	b8 01 00 00 00	 mov	 eax, 1
  005b4	c1 e0 00	 shl	 eax, 0
  005b7	8b 4d ec	 mov	 ecx, DWORD PTR _pCreateSuccess$[ebp]
  005ba	0f b6 94 01 8f
	00 00 00	 movzx	 edx, BYTE PTR [ecx+eax+143]
  005c2	85 d2		 test	 edx, edx
  005c4	74 72		 je	 SHORT $LN20@OnDBCreate

; 1106 : 		{
; 1107 : 			pTableFrame->SetTableChairCount(pCreateSuccess->cbGameRule[1]);

  005c6	b8 01 00 00 00	 mov	 eax, 1
  005cb	c1 e0 00	 shl	 eax, 0
  005ce	8b 4d ec	 mov	 ecx, DWORD PTR _pCreateSuccess$[ebp]
  005d1	66 0f b6 94 01
	8f 00 00 00	 movzx	 dx, BYTE PTR [ecx+eax+143]
  005da	0f b7 c2	 movzx	 eax, dx
  005dd	50		 push	 eax
  005de	8b 4d e8	 mov	 ecx, DWORD PTR _pTableFrame$[ebp]
  005e1	8b 11		 mov	 edx, DWORD PTR [ecx]
  005e3	8b 4d e8	 mov	 ecx, DWORD PTR _pTableFrame$[ebp]
  005e6	8b 82 00 01 00
	00		 mov	 eax, DWORD PTR [edx+256]
  005ec	ff d0		 call	 eax

; 1108 : 			
; 1109 : 			ChangeChairCount.dwChairCount = pCreateSuccess->cbGameRule[1];

  005ee	b8 01 00 00 00	 mov	 eax, 1
  005f3	c1 e0 00	 shl	 eax, 0
  005f6	8b 4d ec	 mov	 ecx, DWORD PTR _pCreateSuccess$[ebp]
  005f9	0f b6 94 01 8f
	00 00 00	 movzx	 edx, BYTE PTR [ecx+eax+143]
  00601	89 95 ec fe ff
	ff		 mov	 DWORD PTR _ChangeChairCount$[ebp], edx

; 1110 : 
; 1111 : 			//向客户端发送桌子上椅子数量改变的消息
; 1112 : 			m_pITCPNetworkEngine->SendData(pBindParameter->dwSocketID, MDM_GR_PERSONAL_TABLE, SUB_GR_CHANGE_CHAIR_COUNT, &ChangeChairCount,  sizeof(CMD_GR_ChangeChairCount));	

  00607	6a 04		 push	 4
  00609	8d 85 ec fe ff
	ff		 lea	 eax, DWORD PTR _ChangeChairCount$[ebp]
  0060f	50		 push	 eax
  00610	6a 11		 push	 17			; 00000011H
  00612	68 d2 00 00 00	 push	 210			; 000000d2H
  00617	8b 4d f0	 mov	 ecx, DWORD PTR _pBindParameter$[ebp]
  0061a	8b 11		 mov	 edx, DWORD PTR [ecx]
  0061c	52		 push	 edx
  0061d	8b 45 f8	 mov	 eax, DWORD PTR _this$[ebp]
  00620	8b 88 b0 00 00
	00		 mov	 ecx, DWORD PTR [eax+176]
  00626	8b 55 f8	 mov	 edx, DWORD PTR _this$[ebp]
  00629	8b 01		 mov	 eax, DWORD PTR [ecx]
  0062b	8b 8a b0 00 00
	00		 mov	 ecx, DWORD PTR [edx+176]
  00631	8b 50 20	 mov	 edx, DWORD PTR [eax+32]
  00634	ff d2		 call	 edx

; 1113 : 		}
; 1114 : 		else

  00636	eb 6e		 jmp	 SHORT $LN19@OnDBCreate
$LN20@OnDBCreate:

; 1115 : 		{
; 1116 : 			pTableFrame->SetTableChairCount( pCreateSuccess->cbGameRule[2]);

  00638	b8 01 00 00 00	 mov	 eax, 1
  0063d	d1 e0		 shl	 eax, 1
  0063f	8b 4d ec	 mov	 ecx, DWORD PTR _pCreateSuccess$[ebp]
  00642	66 0f b6 94 01
	8f 00 00 00	 movzx	 dx, BYTE PTR [ecx+eax+143]
  0064b	0f b7 c2	 movzx	 eax, dx
  0064e	50		 push	 eax
  0064f	8b 4d e8	 mov	 ecx, DWORD PTR _pTableFrame$[ebp]
  00652	8b 11		 mov	 edx, DWORD PTR [ecx]
  00654	8b 4d e8	 mov	 ecx, DWORD PTR _pTableFrame$[ebp]
  00657	8b 82 00 01 00
	00		 mov	 eax, DWORD PTR [edx+256]
  0065d	ff d0		 call	 eax

; 1117 : 			
; 1118 : 			ChangeChairCount.dwChairCount = pCreateSuccess->cbGameRule[2];

  0065f	b8 01 00 00 00	 mov	 eax, 1
  00664	d1 e0		 shl	 eax, 1
  00666	8b 4d ec	 mov	 ecx, DWORD PTR _pCreateSuccess$[ebp]
  00669	0f b6 94 01 8f
	00 00 00	 movzx	 edx, BYTE PTR [ecx+eax+143]
  00671	89 95 ec fe ff
	ff		 mov	 DWORD PTR _ChangeChairCount$[ebp], edx

; 1119 : 
; 1120 : 			//向客户端发送桌子上椅子数量改变的消息
; 1121 : 			m_pITCPNetworkEngine->SendData(pBindParameter->dwSocketID, MDM_GR_PERSONAL_TABLE, SUB_GR_CHANGE_CHAIR_COUNT, &ChangeChairCount,  sizeof(CMD_GR_ChangeChairCount));	

  00677	6a 04		 push	 4
  00679	8d 85 ec fe ff
	ff		 lea	 eax, DWORD PTR _ChangeChairCount$[ebp]
  0067f	50		 push	 eax
  00680	6a 11		 push	 17			; 00000011H
  00682	68 d2 00 00 00	 push	 210			; 000000d2H
  00687	8b 4d f0	 mov	 ecx, DWORD PTR _pBindParameter$[ebp]
  0068a	8b 11		 mov	 edx, DWORD PTR [ecx]
  0068c	52		 push	 edx
  0068d	8b 45 f8	 mov	 eax, DWORD PTR _this$[ebp]
  00690	8b 88 b0 00 00
	00		 mov	 ecx, DWORD PTR [eax+176]
  00696	8b 55 f8	 mov	 edx, DWORD PTR _this$[ebp]
  00699	8b 01		 mov	 eax, DWORD PTR [ecx]
  0069b	8b 8a b0 00 00
	00		 mov	 ecx, DWORD PTR [edx+176]
  006a1	8b 50 20	 mov	 edx, DWORD PTR [eax+32]
  006a4	ff d2		 call	 edx
$LN19@OnDBCreate:

; 1122 : 		}
; 1123 : 	}
; 1124 : 	//转转麻将设置一张桌子上椅子的个数
; 1125 : 	if (m_pGameServiceAttrib->wKindID == ZZMJ_KIND_ID || m_pGameServiceAttrib->wKindID  == HZMJ_KIND_ID)

  006a6	8b 45 f8	 mov	 eax, DWORD PTR _this$[ebp]
  006a9	8b 48 14	 mov	 ecx, DWORD PTR [eax+20]
  006ac	0f b7 11	 movzx	 edx, WORD PTR [ecx]
  006af	81 fa 82 01 00
	00		 cmp	 edx, 386		; 00000182H
  006b5	74 15		 je	 SHORT $LN23@OnDBCreate
  006b7	8b 45 f8	 mov	 eax, DWORD PTR _this$[ebp]
  006ba	8b 48 14	 mov	 ecx, DWORD PTR [eax+20]
  006bd	0f b7 11	 movzx	 edx, WORD PTR [ecx]
  006c0	81 fa 85 01 00
	00		 cmp	 edx, 389		; 00000185H
  006c6	0f 85 88 00 00
	00		 jne	 $LN22@OnDBCreate
$LN23@OnDBCreate:

; 1126 : 	{
; 1127 : 		if (pCreateSuccess->cbGameRule[0] == SET_RULE) 

  006cc	b8 01 00 00 00	 mov	 eax, 1
  006d1	6b c8 00	 imul	 ecx, eax, 0
  006d4	8b 55 ec	 mov	 edx, DWORD PTR _pCreateSuccess$[ebp]
  006d7	0f b6 84 0a 8f
	00 00 00	 movzx	 eax, BYTE PTR [edx+ecx+143]
  006df	83 f8 01	 cmp	 eax, 1
  006e2	75 70		 jne	 SHORT $LN22@OnDBCreate

; 1128 : 		{
; 1129 : 			pTableFrame->SetTableChairCount(pCreateSuccess->cbGameRule[1]);

  006e4	b8 01 00 00 00	 mov	 eax, 1
  006e9	c1 e0 00	 shl	 eax, 0
  006ec	8b 4d ec	 mov	 ecx, DWORD PTR _pCreateSuccess$[ebp]
  006ef	66 0f b6 94 01
	8f 00 00 00	 movzx	 dx, BYTE PTR [ecx+eax+143]
  006f8	0f b7 c2	 movzx	 eax, dx
  006fb	50		 push	 eax
  006fc	8b 4d e8	 mov	 ecx, DWORD PTR _pTableFrame$[ebp]
  006ff	8b 11		 mov	 edx, DWORD PTR [ecx]
  00701	8b 4d e8	 mov	 ecx, DWORD PTR _pTableFrame$[ebp]
  00704	8b 82 00 01 00
	00		 mov	 eax, DWORD PTR [edx+256]
  0070a	ff d0		 call	 eax

; 1130 : 
; 1131 : 			ChangeChairCount.dwChairCount = pCreateSuccess->cbGameRule[1];

  0070c	b8 01 00 00 00	 mov	 eax, 1
  00711	c1 e0 00	 shl	 eax, 0
  00714	8b 4d ec	 mov	 ecx, DWORD PTR _pCreateSuccess$[ebp]
  00717	0f b6 94 01 8f
	00 00 00	 movzx	 edx, BYTE PTR [ecx+eax+143]
  0071f	89 95 ec fe ff
	ff		 mov	 DWORD PTR _ChangeChairCount$[ebp], edx

; 1132 : 
; 1133 : 			//向客户端发送桌子上椅子数量改变的消息
; 1134 : 			m_pITCPNetworkEngine->SendData(pBindParameter->dwSocketID, MDM_GR_PERSONAL_TABLE, SUB_GR_CHANGE_CHAIR_COUNT, &ChangeChairCount,  sizeof(CMD_GR_ChangeChairCount));	

  00725	6a 04		 push	 4
  00727	8d 85 ec fe ff
	ff		 lea	 eax, DWORD PTR _ChangeChairCount$[ebp]
  0072d	50		 push	 eax
  0072e	6a 11		 push	 17			; 00000011H
  00730	68 d2 00 00 00	 push	 210			; 000000d2H
  00735	8b 4d f0	 mov	 ecx, DWORD PTR _pBindParameter$[ebp]
  00738	8b 11		 mov	 edx, DWORD PTR [ecx]
  0073a	52		 push	 edx
  0073b	8b 45 f8	 mov	 eax, DWORD PTR _this$[ebp]
  0073e	8b 88 b0 00 00
	00		 mov	 ecx, DWORD PTR [eax+176]
  00744	8b 55 f8	 mov	 edx, DWORD PTR _this$[ebp]
  00747	8b 01		 mov	 eax, DWORD PTR [ecx]
  00749	8b 8a b0 00 00
	00		 mov	 ecx, DWORD PTR [edx+176]
  0074f	8b 50 20	 mov	 edx, DWORD PTR [eax+32]
  00752	ff d2		 call	 edx
$LN22@OnDBCreate:

; 1135 : 		}
; 1136 : 	}
; 1137 : 
; 1138 : 	if ( ((m_pGameServiceOption->wServerType) & GAME_GENRE_PERSONAL) != 0 )

  00754	8b 45 f8	 mov	 eax, DWORD PTR _this$[ebp]
  00757	8b 48 10	 mov	 ecx, DWORD PTR [eax+16]
  0075a	0f b7 51 4c	 movzx	 edx, WORD PTR [ecx+76]
  0075e	83 e2 10	 and	 edx, 16			; 00000010H
  00761	0f 84 e0 01 00
	00		 je	 $LN25@OnDBCreate

; 1139 : 	{
; 1140 : 		//诈金花房卡设置椅子个数
; 1141 : 		if (m_pGameServiceAttrib->wKindID == ZJH_KIND_ID)

  00767	8b 45 f8	 mov	 eax, DWORD PTR _this$[ebp]
  0076a	8b 48 14	 mov	 ecx, DWORD PTR [eax+20]
  0076d	0f b7 11	 movzx	 edx, WORD PTR [ecx]
  00770	83 fa 06	 cmp	 edx, 6
  00773	0f 85 de 00 00
	00		 jne	 $LN26@OnDBCreate

; 1142 : 		{
; 1143 : 			//cbGameRule[1] 为  2 、3 、4 、5, 0分别对应 2人 、 3人 、 4人 、 5人 、 2-5人 这几种配置
; 1144 : 			if (pCreateSuccess->cbGameRule[0] == SET_RULE && pCreateSuccess->cbGameRule[1] != 0) 

  00779	b8 01 00 00 00	 mov	 eax, 1
  0077e	6b c8 00	 imul	 ecx, eax, 0
  00781	8b 55 ec	 mov	 edx, DWORD PTR _pCreateSuccess$[ebp]
  00784	0f b6 84 0a 8f
	00 00 00	 movzx	 eax, BYTE PTR [edx+ecx+143]
  0078c	83 f8 01	 cmp	 eax, 1
  0078f	0f 85 89 00 00
	00		 jne	 $LN27@OnDBCreate
  00795	b8 01 00 00 00	 mov	 eax, 1
  0079a	c1 e0 00	 shl	 eax, 0
  0079d	8b 4d ec	 mov	 ecx, DWORD PTR _pCreateSuccess$[ebp]
  007a0	0f b6 94 01 8f
	00 00 00	 movzx	 edx, BYTE PTR [ecx+eax+143]
  007a8	85 d2		 test	 edx, edx
  007aa	74 72		 je	 SHORT $LN27@OnDBCreate

; 1145 : 			{
; 1146 : 				pTableFrame->SetTableChairCount(pCreateSuccess->cbGameRule[1]);

  007ac	b8 01 00 00 00	 mov	 eax, 1
  007b1	c1 e0 00	 shl	 eax, 0
  007b4	8b 4d ec	 mov	 ecx, DWORD PTR _pCreateSuccess$[ebp]
  007b7	66 0f b6 94 01
	8f 00 00 00	 movzx	 dx, BYTE PTR [ecx+eax+143]
  007c0	0f b7 c2	 movzx	 eax, dx
  007c3	50		 push	 eax
  007c4	8b 4d e8	 mov	 ecx, DWORD PTR _pTableFrame$[ebp]
  007c7	8b 11		 mov	 edx, DWORD PTR [ecx]
  007c9	8b 4d e8	 mov	 ecx, DWORD PTR _pTableFrame$[ebp]
  007cc	8b 82 00 01 00
	00		 mov	 eax, DWORD PTR [edx+256]
  007d2	ff d0		 call	 eax

; 1147 : 				
; 1148 : 				ChangeChairCount.dwChairCount = pCreateSuccess->cbGameRule[1];

  007d4	b8 01 00 00 00	 mov	 eax, 1
  007d9	c1 e0 00	 shl	 eax, 0
  007dc	8b 4d ec	 mov	 ecx, DWORD PTR _pCreateSuccess$[ebp]
  007df	0f b6 94 01 8f
	00 00 00	 movzx	 edx, BYTE PTR [ecx+eax+143]
  007e7	89 95 ec fe ff
	ff		 mov	 DWORD PTR _ChangeChairCount$[ebp], edx

; 1149 : 
; 1150 : 				//向客户端发送桌子上椅子数量改变的消息
; 1151 : 				m_pITCPNetworkEngine->SendData(pBindParameter->dwSocketID, MDM_GR_PERSONAL_TABLE, SUB_GR_CHANGE_CHAIR_COUNT, &ChangeChairCount,  sizeof(CMD_GR_ChangeChairCount));	

  007ed	6a 04		 push	 4
  007ef	8d 85 ec fe ff
	ff		 lea	 eax, DWORD PTR _ChangeChairCount$[ebp]
  007f5	50		 push	 eax
  007f6	6a 11		 push	 17			; 00000011H
  007f8	68 d2 00 00 00	 push	 210			; 000000d2H
  007fd	8b 4d f0	 mov	 ecx, DWORD PTR _pBindParameter$[ebp]
  00800	8b 11		 mov	 edx, DWORD PTR [ecx]
  00802	52		 push	 edx
  00803	8b 45 f8	 mov	 eax, DWORD PTR _this$[ebp]
  00806	8b 88 b0 00 00
	00		 mov	 ecx, DWORD PTR [eax+176]
  0080c	8b 55 f8	 mov	 edx, DWORD PTR _this$[ebp]
  0080f	8b 01		 mov	 eax, DWORD PTR [ecx]
  00811	8b 8a b0 00 00
	00		 mov	 ecx, DWORD PTR [edx+176]
  00817	8b 50 20	 mov	 edx, DWORD PTR [eax+32]
  0081a	ff d2		 call	 edx

; 1152 : 			}
; 1153 : 			else

  0081c	eb 39		 jmp	 SHORT $LN26@OnDBCreate
$LN27@OnDBCreate:

; 1154 : 			{
; 1155 : 
; 1156 : 				//pTableFrame->SetTableChairCount(ZJH_MAX_PLAYER);
; 1157 : 				
; 1158 : 				ChangeChairCount.dwChairCount = ZJH_MAX_PLAYER;

  0081e	c7 85 ec fe ff
	ff 05 00 00 00	 mov	 DWORD PTR _ChangeChairCount$[ebp], 5

; 1159 : 
; 1160 : 				//向客户端发送桌子上椅子数量改变的消息
; 1161 : 				m_pITCPNetworkEngine->SendData(pBindParameter->dwSocketID, MDM_GR_PERSONAL_TABLE, SUB_GR_CHANGE_CHAIR_COUNT, &ChangeChairCount,  sizeof(CMD_GR_ChangeChairCount));	

  00828	6a 04		 push	 4
  0082a	8d 85 ec fe ff
	ff		 lea	 eax, DWORD PTR _ChangeChairCount$[ebp]
  00830	50		 push	 eax
  00831	6a 11		 push	 17			; 00000011H
  00833	68 d2 00 00 00	 push	 210			; 000000d2H
  00838	8b 4d f0	 mov	 ecx, DWORD PTR _pBindParameter$[ebp]
  0083b	8b 11		 mov	 edx, DWORD PTR [ecx]
  0083d	52		 push	 edx
  0083e	8b 45 f8	 mov	 eax, DWORD PTR _this$[ebp]
  00841	8b 88 b0 00 00
	00		 mov	 ecx, DWORD PTR [eax+176]
  00847	8b 55 f8	 mov	 edx, DWORD PTR _this$[ebp]
  0084a	8b 01		 mov	 eax, DWORD PTR [ecx]
  0084c	8b 8a b0 00 00
	00		 mov	 ecx, DWORD PTR [edx+176]
  00852	8b 50 20	 mov	 edx, DWORD PTR [eax+32]
  00855	ff d2		 call	 edx
$LN26@OnDBCreate:

; 1162 : 			}
; 1163 : 		}
; 1164 : 
; 1165 : 		//诈金花房卡设置椅子个数
; 1166 : 		if (m_pGameServiceAttrib->wKindID == NN_KIND_ID)

  00857	8b 45 f8	 mov	 eax, DWORD PTR _this$[ebp]
  0085a	8b 48 14	 mov	 ecx, DWORD PTR [eax+20]
  0085d	0f b7 11	 movzx	 edx, WORD PTR [ecx]
  00860	83 fa 1b	 cmp	 edx, 27			; 0000001bH
  00863	0f 85 de 00 00
	00		 jne	 $LN25@OnDBCreate

; 1167 : 		{
; 1168 : 			//cbGameRule[1] 为  2 、3 、4 、5, 0分别对应 2人 、 3人 、 4人 、 5人 、 2-5人 这几种配置
; 1169 : 			if (pCreateSuccess->cbGameRule[0] == SET_RULE && pCreateSuccess->cbGameRule[1] != 0) 

  00869	b8 01 00 00 00	 mov	 eax, 1
  0086e	6b c8 00	 imul	 ecx, eax, 0
  00871	8b 55 ec	 mov	 edx, DWORD PTR _pCreateSuccess$[ebp]
  00874	0f b6 84 0a 8f
	00 00 00	 movzx	 eax, BYTE PTR [edx+ecx+143]
  0087c	83 f8 01	 cmp	 eax, 1
  0087f	0f 85 89 00 00
	00		 jne	 $LN30@OnDBCreate
  00885	b8 01 00 00 00	 mov	 eax, 1
  0088a	c1 e0 00	 shl	 eax, 0
  0088d	8b 4d ec	 mov	 ecx, DWORD PTR _pCreateSuccess$[ebp]
  00890	0f b6 94 01 8f
	00 00 00	 movzx	 edx, BYTE PTR [ecx+eax+143]
  00898	85 d2		 test	 edx, edx
  0089a	74 72		 je	 SHORT $LN30@OnDBCreate

; 1170 : 			{
; 1171 : 				pTableFrame->SetTableChairCount(pCreateSuccess->cbGameRule[1]);

  0089c	b8 01 00 00 00	 mov	 eax, 1
  008a1	c1 e0 00	 shl	 eax, 0
  008a4	8b 4d ec	 mov	 ecx, DWORD PTR _pCreateSuccess$[ebp]
  008a7	66 0f b6 94 01
	8f 00 00 00	 movzx	 dx, BYTE PTR [ecx+eax+143]
  008b0	0f b7 c2	 movzx	 eax, dx
  008b3	50		 push	 eax
  008b4	8b 4d e8	 mov	 ecx, DWORD PTR _pTableFrame$[ebp]
  008b7	8b 11		 mov	 edx, DWORD PTR [ecx]
  008b9	8b 4d e8	 mov	 ecx, DWORD PTR _pTableFrame$[ebp]
  008bc	8b 82 00 01 00
	00		 mov	 eax, DWORD PTR [edx+256]
  008c2	ff d0		 call	 eax

; 1172 : 				
; 1173 : 				ChangeChairCount.dwChairCount = pCreateSuccess->cbGameRule[1];

  008c4	b8 01 00 00 00	 mov	 eax, 1
  008c9	c1 e0 00	 shl	 eax, 0
  008cc	8b 4d ec	 mov	 ecx, DWORD PTR _pCreateSuccess$[ebp]
  008cf	0f b6 94 01 8f
	00 00 00	 movzx	 edx, BYTE PTR [ecx+eax+143]
  008d7	89 95 ec fe ff
	ff		 mov	 DWORD PTR _ChangeChairCount$[ebp], edx

; 1174 : 
; 1175 : 				//向客户端发送桌子上椅子数量改变的消息
; 1176 : 				m_pITCPNetworkEngine->SendData(pBindParameter->dwSocketID, MDM_GR_PERSONAL_TABLE, SUB_GR_CHANGE_CHAIR_COUNT, &ChangeChairCount,  sizeof(CMD_GR_ChangeChairCount));	

  008dd	6a 04		 push	 4
  008df	8d 85 ec fe ff
	ff		 lea	 eax, DWORD PTR _ChangeChairCount$[ebp]
  008e5	50		 push	 eax
  008e6	6a 11		 push	 17			; 00000011H
  008e8	68 d2 00 00 00	 push	 210			; 000000d2H
  008ed	8b 4d f0	 mov	 ecx, DWORD PTR _pBindParameter$[ebp]
  008f0	8b 11		 mov	 edx, DWORD PTR [ecx]
  008f2	52		 push	 edx
  008f3	8b 45 f8	 mov	 eax, DWORD PTR _this$[ebp]
  008f6	8b 88 b0 00 00
	00		 mov	 ecx, DWORD PTR [eax+176]
  008fc	8b 55 f8	 mov	 edx, DWORD PTR _this$[ebp]
  008ff	8b 01		 mov	 eax, DWORD PTR [ecx]
  00901	8b 8a b0 00 00
	00		 mov	 ecx, DWORD PTR [edx+176]
  00907	8b 50 20	 mov	 edx, DWORD PTR [eax+32]
  0090a	ff d2		 call	 edx

; 1177 : 			}
; 1178 : 			else

  0090c	eb 39		 jmp	 SHORT $LN25@OnDBCreate
$LN30@OnDBCreate:

; 1179 : 			{
; 1180 : 
; 1181 : 				//pTableFrame->SetTableChairCount(NN_MAX_PLAYER);
; 1182 : 				
; 1183 : 				ChangeChairCount.dwChairCount = NN_MAX_PLAYER;

  0090e	c7 85 ec fe ff
	ff 04 00 00 00	 mov	 DWORD PTR _ChangeChairCount$[ebp], 4

; 1184 : 
; 1185 : 				//向客户端发送桌子上椅子数量改变的消息
; 1186 : 				m_pITCPNetworkEngine->SendData(pBindParameter->dwSocketID, MDM_GR_PERSONAL_TABLE, SUB_GR_CHANGE_CHAIR_COUNT, &ChangeChairCount,  sizeof(CMD_GR_ChangeChairCount));	

  00918	6a 04		 push	 4
  0091a	8d 85 ec fe ff
	ff		 lea	 eax, DWORD PTR _ChangeChairCount$[ebp]
  00920	50		 push	 eax
  00921	6a 11		 push	 17			; 00000011H
  00923	68 d2 00 00 00	 push	 210			; 000000d2H
  00928	8b 4d f0	 mov	 ecx, DWORD PTR _pBindParameter$[ebp]
  0092b	8b 11		 mov	 edx, DWORD PTR [ecx]
  0092d	52		 push	 edx
  0092e	8b 45 f8	 mov	 eax, DWORD PTR _this$[ebp]
  00931	8b 88 b0 00 00
	00		 mov	 ecx, DWORD PTR [eax+176]
  00937	8b 55 f8	 mov	 edx, DWORD PTR _this$[ebp]
  0093a	8b 01		 mov	 eax, DWORD PTR [ecx]
  0093c	8b 8a b0 00 00
	00		 mov	 ecx, DWORD PTR [edx+176]
  00942	8b 50 20	 mov	 edx, DWORD PTR [eax+32]
  00945	ff d2		 call	 edx
$LN25@OnDBCreate:

; 1187 : 			}
; 1188 : 		}
; 1189 : 	}
; 1190 : 
; 1191 : 
; 1192 : 	//设置桌子	
; 1193 : 	tagUserInfo* pUserInfo = pIServerUserItem->GetUserInfo();

  00947	8b 45 14	 mov	 eax, DWORD PTR _pIServerUserItem$[ebp]
  0094a	8b 10		 mov	 edx, DWORD PTR [eax]
  0094c	8b 4d 14	 mov	 ecx, DWORD PTR _pIServerUserItem$[ebp]
  0094f	8b 42 20	 mov	 eax, DWORD PTR [edx+32]
  00952	ff d0		 call	 eax
  00954	89 85 e8 fe ff
	ff		 mov	 DWORD PTR _pUserInfo$[ebp], eax

; 1194 : 	//pUserInfo->dBeans = pCreateSuccess->dCurBeans;
; 1195 : 	//pUserInfo->lDiamond = pCreateSuccess->lDiamond;
; 1196 : 	pUserInfo->bConsumptionType = pCreateSuccess->bConsumptionType;

  0095a	8b 75 ec	 mov	 esi, DWORD PTR _pCreateSuccess$[ebp]
  0095d	83 c6 08	 add	 esi, 8
  00960	8b bd e8 fe ff
	ff		 mov	 edi, DWORD PTR _pUserInfo$[ebp]
  00966	81 c7 98 00 00
	00		 add	 edi, 152		; 00000098H
  0096c	b9 10 00 00 00	 mov	 ecx, 16			; 00000010H
  00971	f3 a5		 rep movsd

; 1197 : 
; 1198 : 	pTableFrame->SetTableOwner(pUserInfo->dwUserID);

  00973	8b 85 e8 fe ff
	ff		 mov	 eax, DWORD PTR _pUserInfo$[ebp]
  00979	8b 08		 mov	 ecx, DWORD PTR [eax]
  0097b	51		 push	 ecx
  0097c	8b 55 e8	 mov	 edx, DWORD PTR _pTableFrame$[ebp]
  0097f	8b 02		 mov	 eax, DWORD PTR [edx]
  00981	8b 4d e8	 mov	 ecx, DWORD PTR _pTableFrame$[ebp]
  00984	8b 50 50	 mov	 edx, DWORD PTR [eax+80]
  00987	ff d2		 call	 edx

; 1199 : 	pTableFrame->SetTimerNotBeginAfterCreate();

  00989	8b 45 e8	 mov	 eax, DWORD PTR _pTableFrame$[ebp]
  0098c	8b 10		 mov	 edx, DWORD PTR [eax]
  0098e	8b 4d e8	 mov	 ecx, DWORD PTR _pTableFrame$[ebp]
  00991	8b 42 68	 mov	 eax, DWORD PTR [edx+104]
  00994	ff d0		 call	 eax

; 1200 : 
; 1201 : 	tagUserRule* pUserRule = pIServerUserItem->GetUserRule();

  00996	8b 45 14	 mov	 eax, DWORD PTR _pIServerUserItem$[ebp]
  00999	8b 10		 mov	 edx, DWORD PTR [eax]
  0099b	8b 4d 14	 mov	 ecx, DWORD PTR _pIServerUserItem$[ebp]
  0099e	8b 42 28	 mov	 eax, DWORD PTR [edx+40]
  009a1	ff d0		 call	 eax
  009a3	89 85 e4 fe ff
	ff		 mov	 DWORD PTR _pUserRule$[ebp], eax

; 1202 : //	lstrcpyn(pUserRule->szPassword, pCreateSuccess->szPassword, CountArray(pUserRule->szPassword));
; 1203 : 
; 1204 : 	WORD   wSitDownCount = 0;

  009a9	33 c0		 xor	 eax, eax
  009ab	66 89 85 e0 fe
	ff ff		 mov	 WORD PTR _wSitDownCount$[ebp], ax

; 1205 : 	//如果房主参与游戏
; 1206 : 	if (pCreateSuccess->cbIsJoinGame)

  009b2	8b 45 ec	 mov	 eax, DWORD PTR _pCreateSuccess$[ebp]
  009b5	0f b6 48 5c	 movzx	 ecx, BYTE PTR [eax+92]
  009b9	85 c9		 test	 ecx, ecx
  009bb	0f 84 34 01 00
	00		 je	 $LN32@OnDBCreate

; 1207 : 	{
; 1208 : 		//执行坐下
; 1209 : 		if(pTableFrame->PerformSitDownAction(wChairID, pIServerUserItem)== FALSE)

  009c1	6a 00		 push	 0
  009c3	6a 00		 push	 0
  009c5	8b 45 14	 mov	 eax, DWORD PTR _pIServerUserItem$[ebp]
  009c8	50		 push	 eax
  009c9	0f b7 4d e4	 movzx	 ecx, WORD PTR _wChairID$[ebp]
  009cd	51		 push	 ecx
  009ce	8b 55 e8	 mov	 edx, DWORD PTR _pTableFrame$[ebp]
  009d1	8b 02		 mov	 eax, DWORD PTR [edx]
  009d3	8b 4d e8	 mov	 ecx, DWORD PTR _pTableFrame$[ebp]
  009d6	8b 90 e0 00 00
	00		 mov	 edx, DWORD PTR [eax+224]
  009dc	ff d2		 call	 edx
  009de	0f b6 c0	 movzx	 eax, al
  009e1	85 c0		 test	 eax, eax
  009e3	0f 85 00 01 00
	00		 jne	 $LN33@OnDBCreate

; 1210 : 		{
; 1211 : 			CTraceService::TraceString(TEXT("创建桌子坐下失败"), TraceLevel_Info);

  009e9	6a 00		 push	 0
  009eb	68 00 00 00 00	 push	 OFFSET ??_C@_0BB@LPANEFD@?$LE?$LE?$LN?$KI?W?$MA?W?S?W?x?O?B?J?$KH?$LA?$NM@
  009f0	ff 15 00 00 00
	00		 call	 DWORD PTR __imp_?TraceString@CTraceService@@SA_NPBDW4enTraceLevel@@@Z
  009f6	83 c4 08	 add	 esp, 8

; 1212 : 			//解锁桌子
; 1213 : 			pTableFrame->SetPersonalTableLocked(false);

  009f9	6a 00		 push	 0
  009fb	8b 45 e8	 mov	 eax, DWORD PTR _pTableFrame$[ebp]
  009fe	8b 10		 mov	 edx, DWORD PTR [eax]
  00a00	8b 4d e8	 mov	 ecx, DWORD PTR _pTableFrame$[ebp]
  00a03	8b 42 4c	 mov	 eax, DWORD PTR [edx+76]
  00a06	ff d0		 call	 eax

; 1214 : 			pTableFrame->SetPersonalTable(0, 0, 0);

  00a08	6a 00		 push	 0
  00a0a	6a 00		 push	 0
  00a0c	6a 00		 push	 0
  00a0e	6a 00		 push	 0
  00a10	8b 45 e8	 mov	 eax, DWORD PTR _pTableFrame$[ebp]
  00a13	8b 10		 mov	 edx, DWORD PTR [eax]
  00a15	8b 4d e8	 mov	 ecx, DWORD PTR _pTableFrame$[ebp]
  00a18	8b 42 58	 mov	 eax, DWORD PTR [edx+88]
  00a1b	ff d0		 call	 eax

; 1215 : 			pTableFrame->SetCellScore(m_pGameServiceOption->lCellScore);

  00a1d	8b 45 f8	 mov	 eax, DWORD PTR _this$[ebp]
  00a20	8b 48 10	 mov	 ecx, DWORD PTR [eax+16]
  00a23	8b 51 08	 mov	 edx, DWORD PTR [ecx+8]
  00a26	52		 push	 edx
  00a27	8b 45 e8	 mov	 eax, DWORD PTR _pTableFrame$[ebp]
  00a2a	8b 10		 mov	 edx, DWORD PTR [eax]
  00a2c	8b 4d e8	 mov	 ecx, DWORD PTR _pTableFrame$[ebp]
  00a2f	8b 42 34	 mov	 eax, DWORD PTR [edx+52]
  00a32	ff d0		 call	 eax

; 1216 : 			pTableFrame->SetTableOwner(0);

  00a34	6a 00		 push	 0
  00a36	8b 45 e8	 mov	 eax, DWORD PTR _pTableFrame$[ebp]
  00a39	8b 10		 mov	 edx, DWORD PTR [eax]
  00a3b	8b 4d e8	 mov	 ecx, DWORD PTR _pTableFrame$[ebp]
  00a3e	8b 42 50	 mov	 eax, DWORD PTR [edx+80]
  00a41	ff d0		 call	 eax

; 1217 : 
; 1218 : 			//退还费用
; 1219 : 			DBR_GR_CancelCreateTable CancelCreateTable;
; 1220 : 			ZeroMemory(&CancelCreateTable, sizeof(DBR_GR_CancelCreateTable));

  00a43	6a 20		 push	 32			; 00000020H
  00a45	6a 00		 push	 0
  00a47	8d 85 c0 fe ff
	ff		 lea	 eax, DWORD PTR _CancelCreateTable$1[ebp]
  00a4d	50		 push	 eax
  00a4e	e8 00 00 00 00	 call	 _memset
  00a53	83 c4 0c	 add	 esp, 12			; 0000000cH

; 1221 : 
; 1222 : 			CancelCreateTable.dwUserID = pCreateSuccess->dwUserID;

  00a56	8b 45 ec	 mov	 eax, DWORD PTR _pCreateSuccess$[ebp]
  00a59	8b 08		 mov	 ecx, DWORD PTR [eax]
  00a5b	89 8d c0 fe ff
	ff		 mov	 DWORD PTR _CancelCreateTable$1[ebp], ecx

; 1223 : 			CancelCreateTable.dwClientAddr = pBindParameter->dwClientAddr;

  00a61	8b 45 f0	 mov	 eax, DWORD PTR _pBindParameter$[ebp]
  00a64	8b 48 04	 mov	 ecx, DWORD PTR [eax+4]
  00a67	89 8d c8 fe ff
	ff		 mov	 DWORD PTR _CancelCreateTable$1[ebp+8], ecx

; 1224 : 			CancelCreateTable.dwTableID = pCreateSuccess->dwTableID;

  00a6d	8b 45 ec	 mov	 eax, DWORD PTR _pCreateSuccess$[ebp]
  00a70	8b 48 48	 mov	 ecx, DWORD PTR [eax+72]
  00a73	89 8d cc fe ff
	ff		 mov	 DWORD PTR _CancelCreateTable$1[ebp+12], ecx

; 1225 : 			CancelCreateTable.dwReason = CANCELTABLE_REASON_SYSTEM;

  00a79	c7 85 d0 fe ff
	ff 01 00 00 00	 mov	 DWORD PTR _CancelCreateTable$1[ebp+16], 1

; 1226 : 			CancelCreateTable.dwDrawCountLimit = pCreateSuccess->dwDrawCountLimit;

  00a83	8b 45 ec	 mov	 eax, DWORD PTR _pCreateSuccess$[ebp]
  00a86	8b 48 4c	 mov	 ecx, DWORD PTR [eax+76]
  00a89	89 8d d4 fe ff
	ff		 mov	 DWORD PTR _CancelCreateTable$1[ebp+20], ecx

; 1227 : 			CancelCreateTable.dwDrawTimeLimit = pCreateSuccess->dwDrawTimeLimit;

  00a8f	8b 45 ec	 mov	 eax, DWORD PTR _pCreateSuccess$[ebp]
  00a92	8b 48 50	 mov	 ecx, DWORD PTR [eax+80]
  00a95	89 8d d8 fe ff
	ff		 mov	 DWORD PTR _CancelCreateTable$1[ebp+24], ecx

; 1228 : 			CancelCreateTable.dwServerID = m_pGameServiceOption->wServerID;

  00a9b	8b 45 f8	 mov	 eax, DWORD PTR _this$[ebp]
  00a9e	8b 48 10	 mov	 ecx, DWORD PTR [eax+16]
  00aa1	0f b7 51 06	 movzx	 edx, WORD PTR [ecx+6]
  00aa5	89 95 c4 fe ff
	ff		 mov	 DWORD PTR _CancelCreateTable$1[ebp+4], edx

; 1229 : 
; 1230 : 			//投递数据
; 1231 : 			m_pIDBCorrespondManager->PostDataBaseRequest(pCreateSuccess->dwUserID, DBR_GR_CANCEL_CREATE_TABLE, dwContextID, &CancelCreateTable, sizeof(DBR_GR_CancelCreateTable));

  00aab	6a 00		 push	 0
  00aad	6a 20		 push	 32			; 00000020H
  00aaf	8d 85 c0 fe ff
	ff		 lea	 eax, DWORD PTR _CancelCreateTable$1[ebp]
  00ab5	50		 push	 eax
  00ab6	8b 4d 08	 mov	 ecx, DWORD PTR _dwContextID$[ebp]
  00ab9	51		 push	 ecx
  00aba	68 16 05 00 00	 push	 1302			; 00000516H
  00abf	8b 55 ec	 mov	 edx, DWORD PTR _pCreateSuccess$[ebp]
  00ac2	8b 02		 mov	 eax, DWORD PTR [edx]
  00ac4	50		 push	 eax
  00ac5	8b 4d f8	 mov	 ecx, DWORD PTR _this$[ebp]
  00ac8	8b 91 a8 00 00
	00		 mov	 edx, DWORD PTR [ecx+168]
  00ace	8b 45 f8	 mov	 eax, DWORD PTR _this$[ebp]
  00ad1	8b 88 a8 00 00
	00		 mov	 ecx, DWORD PTR [eax+168]
  00ad7	8b 12		 mov	 edx, DWORD PTR [edx]
  00ad9	51		 push	 ecx
  00ada	8b 42 14	 mov	 eax, DWORD PTR [edx+20]
  00add	ff d0		 call	 eax
  00adf	83 c4 1c	 add	 esp, 28			; 0000001cH

; 1232 : 
; 1233 : 			return true;

  00ae2	b0 01		 mov	 al, 1
  00ae4	e9 7f 01 00 00	 jmp	 $LN1@OnDBCreate
$LN33@OnDBCreate:

; 1234 : 		}
; 1235 : 
; 1236 : 		wSitDownCount = 1;

  00ae9	b8 01 00 00 00	 mov	 eax, 1
  00aee	66 89 85 e0 fe
	ff ff		 mov	 WORD PTR _wSitDownCount$[ebp], ax
$LN32@OnDBCreate:

; 1237 : 	}
; 1238 : 	
; 1239 : 	//数据汇总
; 1240 : 	CMD_CS_C_CreateTable CS_CreateTable;
; 1241 : 	ZeroMemory(&CS_CreateTable, sizeof(CMD_CS_C_CreateTable));

  00af5	68 ef 00 00 00	 push	 239			; 000000efH
  00afa	6a 00		 push	 0
  00afc	8d 85 d0 fd ff
	ff		 lea	 eax, DWORD PTR _CS_CreateTable$[ebp]
  00b02	50		 push	 eax
  00b03	e8 00 00 00 00	 call	 _memset
  00b08	83 c4 0c	 add	 esp, 12			; 0000000cH

; 1242 : 
; 1243 : 	CS_CreateTable.dwSocketID = dwContextID;

  00b0b	8b 45 08	 mov	 eax, DWORD PTR _dwContextID$[ebp]
  00b0e	89 85 d0 fd ff
	ff		 mov	 DWORD PTR _CS_CreateTable$[ebp], eax

; 1244 : 	CS_CreateTable.dwClientAddr = pBindParameter->dwClientAddr;

  00b14	8b 45 f0	 mov	 eax, DWORD PTR _pBindParameter$[ebp]
  00b17	8b 48 04	 mov	 ecx, DWORD PTR [eax+4]
  00b1a	89 8d d4 fd ff
	ff		 mov	 DWORD PTR _CS_CreateTable$[ebp+4], ecx

; 1245 : 	CS_CreateTable.PersonalTable.dwServerID	= m_pGameServiceOption->wServerID;

  00b20	8b 45 f8	 mov	 eax, DWORD PTR _this$[ebp]
  00b23	8b 48 10	 mov	 ecx, DWORD PTR [eax+16]
  00b26	0f b7 51 06	 movzx	 edx, WORD PTR [ecx+6]
  00b2a	89 95 ee fd ff
	ff		 mov	 DWORD PTR _CS_CreateTable$[ebp+30], edx

; 1246 : 	CS_CreateTable.PersonalTable.dwKindID = m_pGameServiceOption->wKindID;

  00b30	8b 45 f8	 mov	 eax, DWORD PTR _this$[ebp]
  00b33	8b 48 10	 mov	 ecx, DWORD PTR [eax+16]
  00b36	0f b7 11	 movzx	 edx, WORD PTR [ecx]
  00b39	89 95 f2 fd ff
	ff		 mov	 DWORD PTR _CS_CreateTable$[ebp+34], edx

; 1247 : 	CS_CreateTable.PersonalTable.dwTableID = pCreateSuccess->dwTableID;

  00b3f	8b 45 ec	 mov	 eax, DWORD PTR _pCreateSuccess$[ebp]
  00b42	8b 48 48	 mov	 ecx, DWORD PTR [eax+72]
  00b45	89 8d f6 fd ff
	ff		 mov	 DWORD PTR _CS_CreateTable$[ebp+38], ecx

; 1248 : 	CS_CreateTable.PersonalTable.dwUserID = pIServerUserItem->GetUserID();

  00b4b	8b 45 14	 mov	 eax, DWORD PTR _pIServerUserItem$[ebp]
  00b4e	8b 10		 mov	 edx, DWORD PTR [eax]
  00b50	8b 4d 14	 mov	 ecx, DWORD PTR _pIServerUserItem$[ebp]
  00b53	8b 42 5c	 mov	 eax, DWORD PTR [edx+92]
  00b56	ff d0		 call	 eax
  00b58	89 85 fa fd ff
	ff		 mov	 DWORD PTR _CS_CreateTable$[ebp+42], eax

; 1249 : 	CS_CreateTable.PersonalTable.dwDrawCountLimit = pCreateSuccess->dwDrawCountLimit;

  00b5e	8b 45 ec	 mov	 eax, DWORD PTR _pCreateSuccess$[ebp]
  00b61	8b 48 4c	 mov	 ecx, DWORD PTR [eax+76]
  00b64	89 8d fe fd ff
	ff		 mov	 DWORD PTR _CS_CreateTable$[ebp+46], ecx

; 1250 : 	CS_CreateTable.PersonalTable.dwDrawTimeLimit = pCreateSuccess->dwDrawTimeLimit;

  00b6a	8b 45 ec	 mov	 eax, DWORD PTR _pCreateSuccess$[ebp]
  00b6d	8b 48 50	 mov	 ecx, DWORD PTR [eax+80]
  00b70	89 8d 02 fe ff
	ff		 mov	 DWORD PTR _CS_CreateTable$[ebp+50], ecx

; 1251 : 	CS_CreateTable.PersonalTable.lCellScore = pCreateSuccess->lCellScore;

  00b76	8b 45 ec	 mov	 eax, DWORD PTR _pCreateSuccess$[ebp]
  00b79	8b 40 04	 mov	 eax, DWORD PTR [eax+4]
  00b7c	99		 cdq
  00b7d	89 85 06 fe ff
	ff		 mov	 DWORD PTR _CS_CreateTable$[ebp+54], eax
  00b83	89 95 0a fe ff
	ff		 mov	 DWORD PTR _CS_CreateTable$[ebp+58], edx

; 1252 : 	CS_CreateTable.PersonalTable.dwRoomTax = pCreateSuccess->dwRoomTax;

  00b89	8b 45 ec	 mov	 eax, DWORD PTR _pCreateSuccess$[ebp]
  00b8c	8b 48 58	 mov	 ecx, DWORD PTR [eax+88]
  00b8f	89 8d 19 fe ff
	ff		 mov	 DWORD PTR _CS_CreateTable$[ebp+73], ecx

; 1253 : 	CS_CreateTable.PersonalTable.wJoinGamePeopleCount = ChangeChairCount.dwChairCount;//pCreateSuccess->wJoinGamePeopleCount;

  00b95	66 8b 85 ec fe
	ff ff		 mov	 ax, WORD PTR _ChangeChairCount$[ebp]
  00b9c	66 89 85 1d fe
	ff ff		 mov	 WORD PTR _CS_CreateTable$[ebp+77], ax

; 1254 : 	//lstrcpyn(CS_CreateTable.PersonalTable.szPassword, pCreateSuccess->szPassword, CountArray(CS_CreateTable.PersonalTable.szPassword));
; 1255 : 	lstrcpyn(CS_CreateTable.szClientAddr, pCreateSuccess->szClientAddr, CountArray(CS_CreateTable.szClientAddr));

  00ba3	6a 10		 push	 16			; 00000010H
  00ba5	8b 45 ec	 mov	 eax, DWORD PTR _pCreateSuccess$[ebp]
  00ba8	83 c0 7f	 add	 eax, 127		; 0000007fH
  00bab	50		 push	 eax
  00bac	8d 8d d8 fd ff
	ff		 lea	 ecx, DWORD PTR _CS_CreateTable$[ebp+8]
  00bb2	51		 push	 ecx
  00bb3	ff 15 00 00 00
	00		 call	 DWORD PTR __imp__lstrcpynA@12

; 1256 : 	CS_CreateTable.cbPayMode = pCreateSuccess->cbPayMode; 

  00bb9	8b 45 ec	 mov	 eax, DWORD PTR _pCreateSuccess$[ebp]
  00bbc	8a 88 f8 00 00
	00		 mov	 cl, BYTE PTR [eax+248]
  00bc2	88 8d e8 fd ff
	ff		 mov	 BYTE PTR _CS_CreateTable$[ebp+24], cl

; 1257 : 	CS_CreateTable.lNeedRoomCard = pCreateSuccess->iRoomCardFee;

  00bc8	8b 45 ec	 mov	 eax, DWORD PTR _pCreateSuccess$[ebp]
  00bcb	8b 88 f4 00 00
	00		 mov	 ecx, DWORD PTR [eax+244]
  00bd1	89 8d ea fd ff
	ff		 mov	 DWORD PTR _CS_CreateTable$[ebp+26], ecx

; 1258 : 	CS_CreateTable.PersonalTable.cbPassword = pCreateSuccess->cbPassword;

  00bd7	8b 45 ec	 mov	 eax, DWORD PTR _pCreateSuccess$[ebp]
  00bda	8a 48 7e	 mov	 cl, BYTE PTR [eax+126]
  00bdd	88 8d 40 fe ff
	ff		 mov	 BYTE PTR _CS_CreateTable$[ebp+112], cl

; 1259 : 	memcpy(CS_CreateTable.PersonalTable.hRoomPassword, _roompass, sizeof(_roompass));

  00be3	6a 78		 push	 120			; 00000078H
  00be5	8d 85 54 ff ff
	ff		 lea	 eax, DWORD PTR __roompass$[ebp]
  00beb	50		 push	 eax
  00bec	8d 8d 41 fe ff
	ff		 lea	 ecx, DWORD PTR _CS_CreateTable$[ebp+113]
  00bf2	51		 push	 ecx
  00bf3	e8 00 00 00 00	 call	 _memcpy
  00bf8	83 c4 0c	 add	 esp, 12			; 0000000cH

; 1260 : 	CS_CreateTable.PersonalTable.wBeginFreeTime =  m_pPersonalRoomOption->wBeginFreeTime;

  00bfb	8b 45 f8	 mov	 eax, DWORD PTR _this$[ebp]
  00bfe	8b 48 0c	 mov	 ecx, DWORD PTR [eax+12]
  00c01	66 8b 51 6d	 mov	 dx, WORD PTR [ecx+109]
  00c05	66 89 95 b9 fe
	ff ff		 mov	 WORD PTR _CS_CreateTable$[ebp+233], dx

; 1261 : 	CS_CreateTable.PersonalTable.wEndFreeTime = m_pPersonalRoomOption->wEndFreeTime;

  00c0c	8b 45 f8	 mov	 eax, DWORD PTR _this$[ebp]
  00c0f	8b 48 0c	 mov	 ecx, DWORD PTR [eax+12]
  00c12	66 8b 51 6f	 mov	 dx, WORD PTR [ecx+111]
  00c16	66 89 95 bb fe
	ff ff		 mov	 WORD PTR _CS_CreateTable$[ebp+235], dx

; 1262 : 	CS_CreateTable.PersonalTable.wCurSitPlayer = wSitDownCount;

  00c1d	66 8b 85 e0 fe
	ff ff		 mov	 ax, WORD PTR _wSitDownCount$[ebp]
  00c24	66 89 85 bd fe
	ff ff		 mov	 WORD PTR _CS_CreateTable$[ebp+237], ax

; 1263 : 	CS_CreateTable.cbGameMode = pCreateSuccess->cbGameMode;

  00c2b	8b 45 ec	 mov	 eax, DWORD PTR _pCreateSuccess$[ebp]
  00c2e	8a 88 f9 00 00
	00		 mov	 cl, BYTE PTR [eax+249]
  00c34	88 8d e9 fd ff
	ff		 mov	 BYTE PTR _CS_CreateTable$[ebp+25], cl

; 1264 : 	//发送数据
; 1265 : 	m_pITCPSocketService->SendData(MDM_CS_SERVICE_INFO, SUB_CS_C_CREATE_TABLE, &CS_CreateTable, sizeof(CMD_CS_C_CreateTable));

  00c3a	68 ef 00 00 00	 push	 239			; 000000efH
  00c3f	8d 85 d0 fd ff
	ff		 lea	 eax, DWORD PTR _CS_CreateTable$[ebp]
  00c45	50		 push	 eax
  00c46	68 87 00 00 00	 push	 135			; 00000087H
  00c4b	6a 02		 push	 2
  00c4d	8b 4d f8	 mov	 ecx, DWORD PTR _this$[ebp]
  00c50	8b 91 b4 00 00
	00		 mov	 edx, DWORD PTR [ecx+180]
  00c56	8b 45 f8	 mov	 eax, DWORD PTR _this$[ebp]
  00c59	8b 12		 mov	 edx, DWORD PTR [edx]
  00c5b	8b 88 b4 00 00
	00		 mov	 ecx, DWORD PTR [eax+180]
  00c61	8b 42 24	 mov	 eax, DWORD PTR [edx+36]
  00c64	ff d0		 call	 eax

; 1266 : 
; 1267 : 
; 1268 : 	return true;

  00c66	b0 01		 mov	 al, 1
$LN1@OnDBCreate:

; 1269 : }

  00c68	5f		 pop	 edi
  00c69	5e		 pop	 esi
  00c6a	5b		 pop	 ebx
  00c6b	8b 4d fc	 mov	 ecx, DWORD PTR __$ArrayPad$[ebp]
  00c6e	33 cd		 xor	 ecx, ebp
  00c70	e8 00 00 00 00	 call	 @__security_check_cookie@4
  00c75	8b e5		 mov	 esp, ebp
  00c77	5d		 pop	 ebp
  00c78	c2 10 00	 ret	 16			; 00000010H
?OnDBCreateSucess@CPersonalRoomGame@@IAE_NKPAXGPAUIServerUserItem@@@Z ENDP ; CPersonalRoomGame::OnDBCreateSucess
_TEXT	ENDS
; Function compile flags: /Odtp /ZI
; File g:\网狐\happygamewh\服务端\系统模块\服务器组件\约战服务\personalroomgame.cpp
;	COMDAT ?OnTCPNetworkSubQueryJoinInfo@CPersonalRoomGame@@IAE_NPAXGKPAUIServerUserItem@@@Z
_TEXT	SEGMENT
_JoinInfoResult$ = -140					; size = 117
_pTableFrame$ = -20					; size = 4
_wBindIndex$ = -16					; size = 2
_pJoinInfo$ = -12					; size = 4
_this$ = -8						; size = 4
__$ArrayPad$ = -4					; size = 4
_pData$ = 8						; size = 4
_wDataSize$ = 12					; size = 2
_dwSocketID$ = 16					; size = 4
_pIServerUserItem$ = 20					; size = 4
?OnTCPNetworkSubQueryJoinInfo@CPersonalRoomGame@@IAE_NPAXGKPAUIServerUserItem@@@Z PROC ; CPersonalRoomGame::OnTCPNetworkSubQueryJoinInfo, COMDAT
; _this$ = ecx

; 841  : {

  00000	55		 push	 ebp
  00001	8b ec		 mov	 ebp, esp
  00003	81 ec cc 00 00
	00		 sub	 esp, 204		; 000000ccH
  00009	a1 00 00 00 00	 mov	 eax, DWORD PTR ___security_cookie
  0000e	33 c5		 xor	 eax, ebp
  00010	89 45 fc	 mov	 DWORD PTR __$ArrayPad$[ebp], eax
  00013	53		 push	 ebx
  00014	56		 push	 esi
  00015	57		 push	 edi
  00016	89 4d f8	 mov	 DWORD PTR _this$[ebp], ecx

; 842  : 	//校验数据
; 843  : 	ASSERT(wDataSize == sizeof(CMD_GR_QueryJoinInfo));

  00019	0f b7 45 0c	 movzx	 eax, WORD PTR _wDataSize$[ebp]
  0001d	83 f8 08	 cmp	 eax, 8
  00020	74 19		 je	 SHORT $LN6@OnTCPNetwo
  00022	8b 0d 00 00 00
	00		 mov	 ecx, DWORD PTR ?__LINE__Var@?0??OnTCPNetworkSubQueryJoinInfo@CPersonalRoomGame@@IAE_NPAXGKPAUIServerUserItem@@@Z@4JA
  00028	83 c1 02	 add	 ecx, 2
  0002b	51		 push	 ecx
  0002c	68 00 00 00 00	 push	 OFFSET ??_C@_0EN@PBHPFOKJ@g?3?2?M?x?$LK?$PM?2happygamewh?2?$LH?$PO?N?q?$LG?K?2?O?$LF?M?$LD@
  00031	e8 00 00 00 00	 call	 ?AfxAssertFailedLine@@YGHPBDH@Z ; AfxAssertFailedLine
  00036	85 c0		 test	 eax, eax
  00038	74 01		 je	 SHORT $LN6@OnTCPNetwo
  0003a	cc		 int	 3
$LN6@OnTCPNetwo:

; 844  : 	if (wDataSize != sizeof(CMD_GR_QueryJoinInfo)) return false;

  0003b	0f b7 45 0c	 movzx	 eax, WORD PTR _wDataSize$[ebp]
  0003f	83 f8 08	 cmp	 eax, 8
  00042	74 07		 je	 SHORT $LN2@OnTCPNetwo
  00044	32 c0		 xor	 al, al
  00046	e9 6b 01 00 00	 jmp	 $LN1@OnTCPNetwo
$LN2@OnTCPNetwo:

; 845  : 
; 846  : 	//提取数据
; 847  : 	CMD_GR_QueryJoinInfo * pJoinInfo = (CMD_GR_QueryJoinInfo*)pData;

  0004b	8b 45 08	 mov	 eax, DWORD PTR _pData$[ebp]
  0004e	89 45 f4	 mov	 DWORD PTR _pJoinInfo$[ebp], eax

; 848  : 	ASSERT(pJoinInfo != NULL);

  00051	83 7d f4 00	 cmp	 DWORD PTR _pJoinInfo$[ebp], 0
  00055	75 18		 jne	 SHORT $LN7@OnTCPNetwo
  00057	a1 00 00 00 00	 mov	 eax, DWORD PTR ?__LINE__Var@?0??OnTCPNetworkSubQueryJoinInfo@CPersonalRoomGame@@IAE_NPAXGKPAUIServerUserItem@@@Z@4JA
  0005c	83 c0 07	 add	 eax, 7
  0005f	50		 push	 eax
  00060	68 00 00 00 00	 push	 OFFSET ??_C@_0EN@PBHPFOKJ@g?3?2?M?x?$LK?$PM?2happygamewh?2?$LH?$PO?N?q?$LG?K?2?O?$LF?M?$LD@
  00065	e8 00 00 00 00	 call	 ?AfxAssertFailedLine@@YGHPBDH@Z ; AfxAssertFailedLine
  0006a	85 c0		 test	 eax, eax
  0006c	74 01		 je	 SHORT $LN7@OnTCPNetwo
  0006e	cc		 int	 3
$LN7@OnTCPNetwo:

; 849  : 	//获取用户
; 850  : 	WORD wBindIndex=LOWORD(dwSocketID);

  0006f	8b 45 10	 mov	 eax, DWORD PTR _dwSocketID$[ebp]
  00072	25 ff ff 00 00	 and	 eax, 65535		; 0000ffffH
  00077	66 89 45 f0	 mov	 WORD PTR _wBindIndex$[ebp], ax

; 851  : 	//IServerUserItem * pIServerUserItem=GetBindUserItem(wBindIndex);
; 852  : 	//if (pIServerUserItem==NULL) return false;
; 853  : 
; 854  : 	if (pJoinInfo->dwTableID >= m_pGameServiceOption->wTableCount)

  0007b	8b 45 f8	 mov	 eax, DWORD PTR _this$[ebp]
  0007e	8b 48 10	 mov	 ecx, DWORD PTR [eax+16]
  00081	0f b7 51 46	 movzx	 edx, WORD PTR [ecx+70]
  00085	8b 45 f4	 mov	 eax, DWORD PTR _pJoinInfo$[ebp]
  00088	39 50 04	 cmp	 DWORD PTR [eax+4], edx
  0008b	72 24		 jb	 SHORT $LN3@OnTCPNetwo

; 855  : 	{
; 856  : 		ASSERT(FALSE);

  0008d	33 c0		 xor	 eax, eax
  0008f	75 19		 jne	 SHORT $LN8@OnTCPNetwo
  00091	8b 0d 00 00 00
	00		 mov	 ecx, DWORD PTR ?__LINE__Var@?0??OnTCPNetworkSubQueryJoinInfo@CPersonalRoomGame@@IAE_NPAXGKPAUIServerUserItem@@@Z@4JA
  00097	83 c1 0f	 add	 ecx, 15			; 0000000fH
  0009a	51		 push	 ecx
  0009b	68 00 00 00 00	 push	 OFFSET ??_C@_0EN@PBHPFOKJ@g?3?2?M?x?$LK?$PM?2happygamewh?2?$LH?$PO?N?q?$LG?K?2?O?$LF?M?$LD@
  000a0	e8 00 00 00 00	 call	 ?AfxAssertFailedLine@@YGHPBDH@Z ; AfxAssertFailedLine
  000a5	85 c0		 test	 eax, eax
  000a7	74 01		 je	 SHORT $LN8@OnTCPNetwo
  000a9	cc		 int	 3
$LN8@OnTCPNetwo:

; 857  : 		return false;

  000aa	32 c0		 xor	 al, al
  000ac	e9 05 01 00 00	 jmp	 $LN1@OnTCPNetwo
$LN3@OnTCPNetwo:

; 858  : 	}
; 859  : 	//获取桌子
; 860  : 	CTableFrame* pTableFrame = (CTableFrame*)m_ppITableFrame[pJoinInfo->dwTableID];

  000b1	8b 45 f4	 mov	 eax, DWORD PTR _pJoinInfo$[ebp]
  000b4	8b 48 04	 mov	 ecx, DWORD PTR [eax+4]
  000b7	8b 55 f8	 mov	 edx, DWORD PTR _this$[ebp]
  000ba	8b 82 a0 00 00
	00		 mov	 eax, DWORD PTR [edx+160]
  000c0	8b 0c 88	 mov	 ecx, DWORD PTR [eax+ecx*4]
  000c3	89 4d ec	 mov	 DWORD PTR _pTableFrame$[ebp], ecx

; 861  : 
; 862  : 	ASSERT(pTableFrame != NULL);

  000c6	83 7d ec 00	 cmp	 DWORD PTR _pTableFrame$[ebp], 0
  000ca	75 18		 jne	 SHORT $LN9@OnTCPNetwo
  000cc	a1 00 00 00 00	 mov	 eax, DWORD PTR ?__LINE__Var@?0??OnTCPNetworkSubQueryJoinInfo@CPersonalRoomGame@@IAE_NPAXGKPAUIServerUserItem@@@Z@4JA
  000d1	83 c0 15	 add	 eax, 21			; 00000015H
  000d4	50		 push	 eax
  000d5	68 00 00 00 00	 push	 OFFSET ??_C@_0EN@PBHPFOKJ@g?3?2?M?x?$LK?$PM?2happygamewh?2?$LH?$PO?N?q?$LG?K?2?O?$LF?M?$LD@
  000da	e8 00 00 00 00	 call	 ?AfxAssertFailedLine@@YGHPBDH@Z ; AfxAssertFailedLine
  000df	85 c0		 test	 eax, eax
  000e1	74 01		 je	 SHORT $LN9@OnTCPNetwo
  000e3	cc		 int	 3
$LN9@OnTCPNetwo:

; 863  : 	if (pTableFrame == NULL) return false;

  000e4	83 7d ec 00	 cmp	 DWORD PTR _pTableFrame$[ebp], 0
  000e8	75 07		 jne	 SHORT $LN4@OnTCPNetwo
  000ea	32 c0		 xor	 al, al
  000ec	e9 c5 00 00 00	 jmp	 $LN1@OnTCPNetwo
$LN4@OnTCPNetwo:

; 864  : 	
; 865  : 	//投递数据	
; 866  : 	CMD_GR_QueryJoinInfoResult JoinInfoResult;
; 867  : 	ZeroMemory(&JoinInfoResult, sizeof(CMD_GR_QueryJoinInfoResult));

  000f1	6a 75		 push	 117			; 00000075H
  000f3	6a 00		 push	 0
  000f5	8d 85 74 ff ff
	ff		 lea	 eax, DWORD PTR _JoinInfoResult$[ebp]
  000fb	50		 push	 eax
  000fc	e8 00 00 00 00	 call	 _memset
  00101	83 c4 0c	 add	 esp, 12			; 0000000cH

; 868  : 	JoinInfoResult.dwTableOwnerID = pTableFrame->GetTableOwner();

  00104	8b 45 ec	 mov	 eax, DWORD PTR _pTableFrame$[ebp]
  00107	8b 10		 mov	 edx, DWORD PTR [eax]
  00109	8b 4d ec	 mov	 ecx, DWORD PTR _pTableFrame$[ebp]
  0010c	8b 42 54	 mov	 eax, DWORD PTR [edx+84]
  0010f	ff d0		 call	 eax
  00111	89 85 74 ff ff
	ff		 mov	 DWORD PTR _JoinInfoResult$[ebp], eax

; 869  : 	JoinInfoResult.cbPayMode = pTableFrame->GetPayRoomCardMode();

  00117	8b 45 ec	 mov	 eax, DWORD PTR _pTableFrame$[ebp]
  0011a	8b 10		 mov	 edx, DWORD PTR [eax]
  0011c	8b 4d ec	 mov	 ecx, DWORD PTR _pTableFrame$[ebp]
  0011f	8b 82 5c 01 00
	00		 mov	 eax, DWORD PTR [edx+348]
  00125	ff d0		 call	 eax
  00127	88 85 78 ff ff
	ff		 mov	 BYTE PTR _JoinInfoResult$[ebp+4], al

; 870  : 	JoinInfoResult.dwDrawCountLimit = pTableFrame->GetDrawCountLimit();

  0012d	8b 45 ec	 mov	 eax, DWORD PTR _pTableFrame$[ebp]
  00130	8b 10		 mov	 edx, DWORD PTR [eax]
  00132	8b 4d ec	 mov	 ecx, DWORD PTR _pTableFrame$[ebp]
  00135	8b 82 10 01 00
	00		 mov	 eax, DWORD PTR [edx+272]
  0013b	ff d0		 call	 eax
  0013d	89 85 79 ff ff
	ff		 mov	 DWORD PTR _JoinInfoResult$[ebp+5], eax

; 871  : 	JoinInfoResult.lDiamondFee = pTableFrame->m_lPayRoomCardCount;

  00143	8b 45 ec	 mov	 eax, DWORD PTR _pTableFrame$[ebp]
  00146	8b 88 d8 46 00
	00		 mov	 ecx, DWORD PTR [eax+18136]
  0014c	89 8d 7d ff ff
	ff		 mov	 DWORD PTR _JoinInfoResult$[ebp+9], ecx

; 872  : 	JoinInfoResult.bRoomPwd = pTableFrame->IsTableLocked();

  00152	8b 45 ec	 mov	 eax, DWORD PTR _pTableFrame$[ebp]
  00155	8b 10		 mov	 edx, DWORD PTR [eax]
  00157	8b 4d ec	 mov	 ecx, DWORD PTR _pTableFrame$[ebp]
  0015a	8b 42 38	 mov	 eax, DWORD PTR [edx+56]
  0015d	ff d0		 call	 eax
  0015f	0f b6 c8	 movzx	 ecx, al
  00162	89 4d 81	 mov	 DWORD PTR _JoinInfoResult$[ebp+13], ecx

; 873  : 	memcpy(JoinInfoResult.cbGameRule, pTableFrame->GetGameRule(), sizeof(JoinInfoResult.cbGameRule));

  00165	6a 64		 push	 100			; 00000064H
  00167	8b 45 ec	 mov	 eax, DWORD PTR _pTableFrame$[ebp]
  0016a	8b 10		 mov	 edx, DWORD PTR [eax]
  0016c	8b 4d ec	 mov	 ecx, DWORD PTR _pTableFrame$[ebp]
  0016f	8b 82 f8 00 00
	00		 mov	 eax, DWORD PTR [edx+248]
  00175	ff d0		 call	 eax
  00177	50		 push	 eax
  00178	8d 4d 85	 lea	 ecx, DWORD PTR _JoinInfoResult$[ebp+17]
  0017b	51		 push	 ecx
  0017c	e8 00 00 00 00	 call	 _memcpy
  00181	83 c4 0c	 add	 esp, 12			; 0000000cH

; 874  : 	
; 875  : 	m_pITCPNetworkEngine->SendData(dwSocketID, MDM_GR_PERSONAL_TABLE, SUB_GR_QUERY_JOIN_INFO_RESULT, &JoinInfoResult, sizeof(CMD_GR_QueryJoinInfoResult));

  00184	6a 75		 push	 117			; 00000075H
  00186	8d 85 74 ff ff
	ff		 lea	 eax, DWORD PTR _JoinInfoResult$[ebp]
  0018c	50		 push	 eax
  0018d	68 2d 01 00 00	 push	 301			; 0000012dH
  00192	68 d2 00 00 00	 push	 210			; 000000d2H
  00197	8b 4d 10	 mov	 ecx, DWORD PTR _dwSocketID$[ebp]
  0019a	51		 push	 ecx
  0019b	8b 55 f8	 mov	 edx, DWORD PTR _this$[ebp]
  0019e	8b 82 b0 00 00
	00		 mov	 eax, DWORD PTR [edx+176]
  001a4	8b 4d f8	 mov	 ecx, DWORD PTR _this$[ebp]
  001a7	8b 10		 mov	 edx, DWORD PTR [eax]
  001a9	8b 89 b0 00 00
	00		 mov	 ecx, DWORD PTR [ecx+176]
  001af	8b 42 20	 mov	 eax, DWORD PTR [edx+32]
  001b2	ff d0		 call	 eax

; 876  : 		
; 877  : 	return true;

  001b4	b0 01		 mov	 al, 1
$LN1@OnTCPNetwo:

; 878  : }

  001b6	5f		 pop	 edi
  001b7	5e		 pop	 esi
  001b8	5b		 pop	 ebx
  001b9	8b 4d fc	 mov	 ecx, DWORD PTR __$ArrayPad$[ebp]
  001bc	33 cd		 xor	 ecx, ebp
  001be	e8 00 00 00 00	 call	 @__security_check_cookie@4
  001c3	8b e5		 mov	 esp, ebp
  001c5	5d		 pop	 ebp
  001c6	c2 10 00	 ret	 16			; 00000010H
?OnTCPNetworkSubQueryJoinInfo@CPersonalRoomGame@@IAE_NPAXGKPAUIServerUserItem@@@Z ENDP ; CPersonalRoomGame::OnTCPNetworkSubQueryJoinInfo
_TEXT	ENDS
; Function compile flags: /Odtp /ZI
; File g:\网狐\happygamewh\服务端\系统模块\服务器组件\约战服务\personalroomgame.cpp
;	COMDAT ?OnTCPNetworkSubHostDissumeTable@CPersonalRoomGame@@IAE_NPAXGKPAUIServerUserItem@@@Z
_TEXT	SEGMENT
_DismissTable$ = -24					; size = 12
_pTableFrame$ = -12					; size = 4
_pCancelRequest$ = -8					; size = 4
_this$ = -4						; size = 4
_pData$ = 8						; size = 4
_wDataSize$ = 12					; size = 2
_dwSocketID$ = 16					; size = 4
_pIServerUserItem$ = 20					; size = 4
?OnTCPNetworkSubHostDissumeTable@CPersonalRoomGame@@IAE_NPAXGKPAUIServerUserItem@@@Z PROC ; CPersonalRoomGame::OnTCPNetworkSubHostDissumeTable, COMDAT
; _this$ = ecx

; 772  : {

  00000	55		 push	 ebp
  00001	8b ec		 mov	 ebp, esp
  00003	83 ec 58	 sub	 esp, 88			; 00000058H
  00006	53		 push	 ebx
  00007	56		 push	 esi
  00008	57		 push	 edi
  00009	89 4d fc	 mov	 DWORD PTR _this$[ebp], ecx

; 773  : 	//校验数据
; 774  : 	ASSERT(wDataSize == sizeof(CMD_GR_HostDissumeGame));

  0000c	0f b7 45 0c	 movzx	 eax, WORD PTR _wDataSize$[ebp]
  00010	83 f8 08	 cmp	 eax, 8
  00013	74 19		 je	 SHORT $LN7@OnTCPNetwo
  00015	8b 0d 00 00 00
	00		 mov	 ecx, DWORD PTR ?__LINE__Var@?0??OnTCPNetworkSubHostDissumeTable@CPersonalRoomGame@@IAE_NPAXGKPAUIServerUserItem@@@Z@4JA
  0001b	83 c1 02	 add	 ecx, 2
  0001e	51		 push	 ecx
  0001f	68 00 00 00 00	 push	 OFFSET ??_C@_0EN@PBHPFOKJ@g?3?2?M?x?$LK?$PM?2happygamewh?2?$LH?$PO?N?q?$LG?K?2?O?$LF?M?$LD@
  00024	e8 00 00 00 00	 call	 ?AfxAssertFailedLine@@YGHPBDH@Z ; AfxAssertFailedLine
  00029	85 c0		 test	 eax, eax
  0002b	74 01		 je	 SHORT $LN7@OnTCPNetwo
  0002d	cc		 int	 3
$LN7@OnTCPNetwo:

; 775  : 	if(wDataSize != sizeof(CMD_GR_HostDissumeGame)) return false;

  0002e	0f b7 45 0c	 movzx	 eax, WORD PTR _wDataSize$[ebp]
  00032	83 f8 08	 cmp	 eax, 8
  00035	74 07		 je	 SHORT $LN2@OnTCPNetwo
  00037	32 c0		 xor	 al, al
  00039	e9 27 01 00 00	 jmp	 $LN1@OnTCPNetwo
$LN2@OnTCPNetwo:

; 776  : 
; 777  : 	//提取数据
; 778  : 	CMD_GR_HostDissumeGame * pCancelRequest = (CMD_GR_HostDissumeGame*)pData;

  0003e	8b 45 08	 mov	 eax, DWORD PTR _pData$[ebp]
  00041	89 45 f8	 mov	 DWORD PTR _pCancelRequest$[ebp], eax

; 779  : 	ASSERT(pCancelRequest!=NULL);

  00044	83 7d f8 00	 cmp	 DWORD PTR _pCancelRequest$[ebp], 0
  00048	75 18		 jne	 SHORT $LN8@OnTCPNetwo
  0004a	a1 00 00 00 00	 mov	 eax, DWORD PTR ?__LINE__Var@?0??OnTCPNetworkSubHostDissumeTable@CPersonalRoomGame@@IAE_NPAXGKPAUIServerUserItem@@@Z@4JA
  0004f	83 c0 07	 add	 eax, 7
  00052	50		 push	 eax
  00053	68 00 00 00 00	 push	 OFFSET ??_C@_0EN@PBHPFOKJ@g?3?2?M?x?$LK?$PM?2happygamewh?2?$LH?$PO?N?q?$LG?K?2?O?$LF?M?$LD@
  00058	e8 00 00 00 00	 call	 ?AfxAssertFailedLine@@YGHPBDH@Z ; AfxAssertFailedLine
  0005d	85 c0		 test	 eax, eax
  0005f	74 01		 je	 SHORT $LN8@OnTCPNetwo
  00061	cc		 int	 3
$LN8@OnTCPNetwo:

; 780  : 	
; 781  : 	if (pCancelRequest->dwTableID >= m_pGameServiceOption->wTableCount)

  00062	8b 45 fc	 mov	 eax, DWORD PTR _this$[ebp]
  00065	8b 48 10	 mov	 ecx, DWORD PTR [eax+16]
  00068	0f b7 51 46	 movzx	 edx, WORD PTR [ecx+70]
  0006c	8b 45 f8	 mov	 eax, DWORD PTR _pCancelRequest$[ebp]
  0006f	39 50 04	 cmp	 DWORD PTR [eax+4], edx
  00072	72 24		 jb	 SHORT $LN3@OnTCPNetwo

; 782  : 	{
; 783  : 		ASSERT(FALSE);

  00074	33 c0		 xor	 eax, eax
  00076	75 19		 jne	 SHORT $LN9@OnTCPNetwo
  00078	8b 0d 00 00 00
	00		 mov	 ecx, DWORD PTR ?__LINE__Var@?0??OnTCPNetworkSubHostDissumeTable@CPersonalRoomGame@@IAE_NPAXGKPAUIServerUserItem@@@Z@4JA
  0007e	83 c1 0b	 add	 ecx, 11			; 0000000bH
  00081	51		 push	 ecx
  00082	68 00 00 00 00	 push	 OFFSET ??_C@_0EN@PBHPFOKJ@g?3?2?M?x?$LK?$PM?2happygamewh?2?$LH?$PO?N?q?$LG?K?2?O?$LF?M?$LD@
  00087	e8 00 00 00 00	 call	 ?AfxAssertFailedLine@@YGHPBDH@Z ; AfxAssertFailedLine
  0008c	85 c0		 test	 eax, eax
  0008e	74 01		 je	 SHORT $LN9@OnTCPNetwo
  00090	cc		 int	 3
$LN9@OnTCPNetwo:

; 784  : 		return false;

  00091	32 c0		 xor	 al, al
  00093	e9 cd 00 00 00	 jmp	 $LN1@OnTCPNetwo
$LN3@OnTCPNetwo:

; 785  : 	}
; 786  : 	//获取用户
; 787  : 	//WORD wBindIndex=LOWORD(dwSocketID);
; 788  : 	//IServerUserItem * pIServerUserItem=GetBindUserItem(wBindIndex);
; 789  : 	//if (pIServerUserItem==NULL) return false;
; 790  : 
; 791  : 	//获取桌子
; 792  : 	CTableFrame* pTableFrame = (CTableFrame*)m_ppITableFrame[pCancelRequest->dwTableID];

  00098	8b 45 f8	 mov	 eax, DWORD PTR _pCancelRequest$[ebp]
  0009b	8b 48 04	 mov	 ecx, DWORD PTR [eax+4]
  0009e	8b 55 fc	 mov	 edx, DWORD PTR _this$[ebp]
  000a1	8b 82 a0 00 00
	00		 mov	 eax, DWORD PTR [edx+160]
  000a7	8b 0c 88	 mov	 ecx, DWORD PTR [eax+ecx*4]
  000aa	89 4d f4	 mov	 DWORD PTR _pTableFrame$[ebp], ecx

; 793  : 	
; 794  : 	ASSERT(pTableFrame != NULL);

  000ad	83 7d f4 00	 cmp	 DWORD PTR _pTableFrame$[ebp], 0
  000b1	75 18		 jne	 SHORT $LN10@OnTCPNetwo
  000b3	a1 00 00 00 00	 mov	 eax, DWORD PTR ?__LINE__Var@?0??OnTCPNetworkSubHostDissumeTable@CPersonalRoomGame@@IAE_NPAXGKPAUIServerUserItem@@@Z@4JA
  000b8	83 c0 16	 add	 eax, 22			; 00000016H
  000bb	50		 push	 eax
  000bc	68 00 00 00 00	 push	 OFFSET ??_C@_0EN@PBHPFOKJ@g?3?2?M?x?$LK?$PM?2happygamewh?2?$LH?$PO?N?q?$LG?K?2?O?$LF?M?$LD@
  000c1	e8 00 00 00 00	 call	 ?AfxAssertFailedLine@@YGHPBDH@Z ; AfxAssertFailedLine
  000c6	85 c0		 test	 eax, eax
  000c8	74 01		 je	 SHORT $LN10@OnTCPNetwo
  000ca	cc		 int	 3
$LN10@OnTCPNetwo:

; 795  : 	if (pTableFrame == NULL) return false;

  000cb	83 7d f4 00	 cmp	 DWORD PTR _pTableFrame$[ebp], 0
  000cf	75 07		 jne	 SHORT $LN4@OnTCPNetwo
  000d1	32 c0		 xor	 al, al
  000d3	e9 8d 00 00 00	 jmp	 $LN1@OnTCPNetwo
$LN4@OnTCPNetwo:

; 796  : 
; 797  : 	pTableFrame->HostDissumeGame(true);

  000d8	6a 01		 push	 1
  000da	8b 45 f4	 mov	 eax, DWORD PTR _pTableFrame$[ebp]
  000dd	8b 10		 mov	 edx, DWORD PTR [eax]
  000df	8b 4d f4	 mov	 ecx, DWORD PTR _pTableFrame$[ebp]
  000e2	8b 82 44 01 00
	00		 mov	 eax, DWORD PTR [edx+324]
  000e8	ff d0		 call	 eax

; 798  : 
; 799  : 	if (pTableFrame)

  000ea	83 7d f4 00	 cmp	 DWORD PTR _pTableFrame$[ebp], 0
  000ee	74 0f		 je	 SHORT $LN5@OnTCPNetwo

; 800  : 	{
; 801  : 		pTableFrame->SetPersonalTableLocked(false);

  000f0	6a 00		 push	 0
  000f2	8b 45 f4	 mov	 eax, DWORD PTR _pTableFrame$[ebp]
  000f5	8b 10		 mov	 edx, DWORD PTR [eax]
  000f7	8b 4d f4	 mov	 ecx, DWORD PTR _pTableFrame$[ebp]
  000fa	8b 42 4c	 mov	 eax, DWORD PTR [edx+76]
  000fd	ff d0		 call	 eax
$LN5@OnTCPNetwo:

; 802  : 	}
; 803  : 
; 804  : 	//发送数据
; 805  : 	CMD_CS_C_DismissTable DismissTable;

  000ff	8d 4d e8	 lea	 ecx, DWORD PTR _DismissTable$[ebp]
  00102	e8 00 00 00 00	 call	 ??0CMD_CS_C_DismissTable@@QAE@XZ ; CMD_CS_C_DismissTable::CMD_CS_C_DismissTable

; 806  : 	ZeroMemory(&DismissTable, sizeof(CMD_CS_C_DismissTable));

  00107	6a 0c		 push	 12			; 0000000cH
  00109	6a 00		 push	 0
  0010b	8d 45 e8	 lea	 eax, DWORD PTR _DismissTable$[ebp]
  0010e	50		 push	 eax
  0010f	e8 00 00 00 00	 call	 _memset
  00114	83 c4 0c	 add	 esp, 12			; 0000000cH

; 807  : 	DismissTable.dwSocketID = dwSocketID;

  00117	8b 45 10	 mov	 eax, DWORD PTR _dwSocketID$[ebp]
  0011a	89 45 e8	 mov	 DWORD PTR _DismissTable$[ebp], eax

; 808  : 	DismissTable.dwServerID = m_pGameServiceOption->wServerID;

  0011d	8b 45 fc	 mov	 eax, DWORD PTR _this$[ebp]
  00120	8b 48 10	 mov	 ecx, DWORD PTR [eax+16]
  00123	0f b7 51 06	 movzx	 edx, WORD PTR [ecx+6]
  00127	89 55 ec	 mov	 DWORD PTR _DismissTable$[ebp+4], edx

; 809  : 	DismissTable.dwTableID = pTableFrame->GetTableID();

  0012a	8b 45 f4	 mov	 eax, DWORD PTR _pTableFrame$[ebp]
  0012d	8b 10		 mov	 edx, DWORD PTR [eax]
  0012f	8b 4d f4	 mov	 ecx, DWORD PTR _pTableFrame$[ebp]
  00132	8b 42 08	 mov	 eax, DWORD PTR [edx+8]
  00135	ff d0		 call	 eax
  00137	0f b7 c8	 movzx	 ecx, ax
  0013a	89 4d f0	 mov	 DWORD PTR _DismissTable$[ebp+8], ecx

; 810  : 	//发送消息
; 811  : 	m_pITCPSocketService->SendData(MDM_CS_SERVICE_INFO, SUB_CS_C_DISMISS_TABLE, &DismissTable, sizeof(CMD_CS_C_DismissTable));

  0013d	6a 0c		 push	 12			; 0000000cH
  0013f	8d 45 e8	 lea	 eax, DWORD PTR _DismissTable$[ebp]
  00142	50		 push	 eax
  00143	68 89 00 00 00	 push	 137			; 00000089H
  00148	6a 02		 push	 2
  0014a	8b 4d fc	 mov	 ecx, DWORD PTR _this$[ebp]
  0014d	8b 91 b4 00 00
	00		 mov	 edx, DWORD PTR [ecx+180]
  00153	8b 45 fc	 mov	 eax, DWORD PTR _this$[ebp]
  00156	8b 12		 mov	 edx, DWORD PTR [edx]
  00158	8b 88 b4 00 00
	00		 mov	 ecx, DWORD PTR [eax+180]
  0015e	8b 42 24	 mov	 eax, DWORD PTR [edx+36]
  00161	ff d0		 call	 eax

; 812  : 
; 813  : 	//ASSERT(pTableFrame != NULL);
; 814  : 	//if (pTableFrame == NULL) return false;
; 815  : 	////if (lstrcmp(pTableFrame->GetPersonalTableID(),  pCancelRequest->szRoomID) != 0)
; 816  : 	////{
; 817  : 	////	SendData(pIServerUserItem, MDM_GR_PERSONAL_TABLE, SUB_GF_ALREADY_CANCLE, NULL, 0);
; 818  : 	////	return true;
; 819  : 	////}
; 820  : 
; 821  : 	////投递数据
; 822  : 	//DBR_GR_CancelCreateTable CancelCreateTable;
; 823  : 	//ZeroMemory(&CancelCreateTable, sizeof(DBR_GR_CancelCreateTable));
; 824  : 
; 825  : 	//CancelCreateTable.dwUserID = pTableFrame->GetTableOwner();
; 826  : 	//CancelCreateTable.dwReason = pTableFrame->GetDrawCount();
; 827  : 	//CancelCreateTable.dwDrawCountLimit = pTableFrame->GetPersonalTableParameter().dwPlayTurnCount;
; 828  : 	//CancelCreateTable.dwDrawTimeLimit = pTableFrame->GetPersonalTableParameter().dwPlayTimeLimit;
; 829  : 	//CancelCreateTable.dwServerID = m_pGameServiceOption->wServerID;
; 830  : 	//lstrcpyn(CancelCreateTable.szRoomID,  pTableFrame->GetPersonalTableID(), sizeof(CancelCreateTable.szRoomID) );
; 831  : 	//
; 832  : 	//CancelCreateTable.dwTableID = pCancelRequest->dwTableID;
; 833  : 	//
; 834  : 	//m_pIDBCorrespondManager->PostDataBaseRequest(CancelCreateTable.dwUserID, DBR_GR_HOST_CANCEL_CREATE_TABLE, dwSocketID, &CancelCreateTable, sizeof(DBR_GR_CancelCreateTable));
; 835  : 	//	
; 836  : 	return true;

  00163	b0 01		 mov	 al, 1
$LN1@OnTCPNetwo:

; 837  : }

  00165	5f		 pop	 edi
  00166	5e		 pop	 esi
  00167	5b		 pop	 ebx
  00168	8b e5		 mov	 esp, ebp
  0016a	5d		 pop	 ebp
  0016b	c2 10 00	 ret	 16			; 00000010H
?OnTCPNetworkSubHostDissumeTable@CPersonalRoomGame@@IAE_NPAXGKPAUIServerUserItem@@@Z ENDP ; CPersonalRoomGame::OnTCPNetworkSubHostDissumeTable
_TEXT	ENDS
; Function compile flags: /Odtp /ZI
; File g:\网狐\happygamewh\服务端\系统模块\服务器组件\约战服务\personalroomgame.cpp
;	COMDAT ?OnTCPNetworkSubRequestReply@CPersonalRoomGame@@IAE_NPAXGKPAUIServerUserItem@@@Z
_TEXT	SEGMENT
_pUserItem$1 = -24					; size = 4
_i$2 = -20						; size = 4
_wChairCount$ = -16					; size = 2
_pTableFrame$ = -12					; size = 4
_pRequestReply$ = -8					; size = 4
_this$ = -4						; size = 4
_pData$ = 8						; size = 4
_wDataSize$ = 12					; size = 2
_dwSocketID$ = 16					; size = 4
_pIServerUserItem$ = 20					; size = 4
?OnTCPNetworkSubRequestReply@CPersonalRoomGame@@IAE_NPAXGKPAUIServerUserItem@@@Z PROC ; CPersonalRoomGame::OnTCPNetworkSubRequestReply, COMDAT
; _this$ = ecx

; 728  : {

  00000	55		 push	 ebp
  00001	8b ec		 mov	 ebp, esp
  00003	83 ec 58	 sub	 esp, 88			; 00000058H
  00006	53		 push	 ebx
  00007	56		 push	 esi
  00008	57		 push	 edi
  00009	89 4d fc	 mov	 DWORD PTR _this$[ebp], ecx

; 729  : 
; 730  : 	//校验数据
; 731  : 	ASSERT(wDataSize == sizeof(CMD_GR_RequestReply));

  0000c	0f b7 45 0c	 movzx	 eax, WORD PTR _wDataSize$[ebp]
  00010	83 f8 09	 cmp	 eax, 9
  00013	74 19		 je	 SHORT $LN13@OnTCPNetwo
  00015	8b 0d 00 00 00
	00		 mov	 ecx, DWORD PTR ?__LINE__Var@?0??OnTCPNetworkSubRequestReply@CPersonalRoomGame@@IAE_NPAXGKPAUIServerUserItem@@@Z@4JA
  0001b	83 c1 03	 add	 ecx, 3
  0001e	51		 push	 ecx
  0001f	68 00 00 00 00	 push	 OFFSET ??_C@_0EN@PBHPFOKJ@g?3?2?M?x?$LK?$PM?2happygamewh?2?$LH?$PO?N?q?$LG?K?2?O?$LF?M?$LD@
  00024	e8 00 00 00 00	 call	 ?AfxAssertFailedLine@@YGHPBDH@Z ; AfxAssertFailedLine
  00029	85 c0		 test	 eax, eax
  0002b	74 01		 je	 SHORT $LN13@OnTCPNetwo
  0002d	cc		 int	 3
$LN13@OnTCPNetwo:

; 732  : 	if(wDataSize != sizeof(CMD_GR_RequestReply)) return false;

  0002e	0f b7 45 0c	 movzx	 eax, WORD PTR _wDataSize$[ebp]
  00032	83 f8 09	 cmp	 eax, 9
  00035	74 07		 je	 SHORT $LN5@OnTCPNetwo
  00037	32 c0		 xor	 al, al
  00039	e9 55 01 00 00	 jmp	 $LN1@OnTCPNetwo
$LN5@OnTCPNetwo:

; 733  : 
; 734  : 	//提取数据
; 735  : 	CMD_GR_RequestReply * pRequestReply = (CMD_GR_RequestReply*)pData;

  0003e	8b 45 08	 mov	 eax, DWORD PTR _pData$[ebp]
  00041	89 45 f8	 mov	 DWORD PTR _pRequestReply$[ebp], eax

; 736  : 	ASSERT(pRequestReply!=NULL);

  00044	83 7d f8 00	 cmp	 DWORD PTR _pRequestReply$[ebp], 0
  00048	75 18		 jne	 SHORT $LN14@OnTCPNetwo
  0004a	a1 00 00 00 00	 mov	 eax, DWORD PTR ?__LINE__Var@?0??OnTCPNetworkSubRequestReply@CPersonalRoomGame@@IAE_NPAXGKPAUIServerUserItem@@@Z@4JA
  0004f	83 c0 08	 add	 eax, 8
  00052	50		 push	 eax
  00053	68 00 00 00 00	 push	 OFFSET ??_C@_0EN@PBHPFOKJ@g?3?2?M?x?$LK?$PM?2happygamewh?2?$LH?$PO?N?q?$LG?K?2?O?$LF?M?$LD@
  00058	e8 00 00 00 00	 call	 ?AfxAssertFailedLine@@YGHPBDH@Z ; AfxAssertFailedLine
  0005d	85 c0		 test	 eax, eax
  0005f	74 01		 je	 SHORT $LN14@OnTCPNetwo
  00061	cc		 int	 3
$LN14@OnTCPNetwo:

; 737  : 	
; 738  : 	if (pRequestReply->dwTableID >= m_pGameServiceOption->wTableCount)

  00062	8b 45 fc	 mov	 eax, DWORD PTR _this$[ebp]
  00065	8b 48 10	 mov	 ecx, DWORD PTR [eax+16]
  00068	0f b7 51 46	 movzx	 edx, WORD PTR [ecx+70]
  0006c	8b 45 f8	 mov	 eax, DWORD PTR _pRequestReply$[ebp]
  0006f	39 50 04	 cmp	 DWORD PTR [eax+4], edx
  00072	72 24		 jb	 SHORT $LN6@OnTCPNetwo

; 739  : 	{
; 740  : 		ASSERT(FALSE);

  00074	33 c0		 xor	 eax, eax
  00076	75 19		 jne	 SHORT $LN15@OnTCPNetwo
  00078	8b 0d 00 00 00
	00		 mov	 ecx, DWORD PTR ?__LINE__Var@?0??OnTCPNetworkSubRequestReply@CPersonalRoomGame@@IAE_NPAXGKPAUIServerUserItem@@@Z@4JA
  0007e	83 c1 0c	 add	 ecx, 12			; 0000000cH
  00081	51		 push	 ecx
  00082	68 00 00 00 00	 push	 OFFSET ??_C@_0EN@PBHPFOKJ@g?3?2?M?x?$LK?$PM?2happygamewh?2?$LH?$PO?N?q?$LG?K?2?O?$LF?M?$LD@
  00087	e8 00 00 00 00	 call	 ?AfxAssertFailedLine@@YGHPBDH@Z ; AfxAssertFailedLine
  0008c	85 c0		 test	 eax, eax
  0008e	74 01		 je	 SHORT $LN15@OnTCPNetwo
  00090	cc		 int	 3
$LN15@OnTCPNetwo:

; 741  : 		return false;

  00091	32 c0		 xor	 al, al
  00093	e9 fb 00 00 00	 jmp	 $LN1@OnTCPNetwo
$LN6@OnTCPNetwo:

; 742  : 	}
; 743  : 	//获取用户
; 744  : 	//WORD wBindIndex=LOWORD(dwSocketID);
; 745  : 	//IServerUserItem * pIServerUserItem=GetBindUserItem(wBindIndex);
; 746  : 	if (pIServerUserItem==NULL) return false;

  00098	83 7d 14 00	 cmp	 DWORD PTR _pIServerUserItem$[ebp], 0
  0009c	75 07		 jne	 SHORT $LN7@OnTCPNetwo
  0009e	32 c0		 xor	 al, al
  000a0	e9 ee 00 00 00	 jmp	 $LN1@OnTCPNetwo
$LN7@OnTCPNetwo:

; 747  : 
; 748  : 	//获取桌子
; 749  : 	CTableFrame* pTableFrame = (CTableFrame*)m_ppITableFrame[pRequestReply->dwTableID];

  000a5	8b 45 f8	 mov	 eax, DWORD PTR _pRequestReply$[ebp]
  000a8	8b 48 04	 mov	 ecx, DWORD PTR [eax+4]
  000ab	8b 55 fc	 mov	 edx, DWORD PTR _this$[ebp]
  000ae	8b 82 a0 00 00
	00		 mov	 eax, DWORD PTR [edx+160]
  000b4	8b 0c 88	 mov	 ecx, DWORD PTR [eax+ecx*4]
  000b7	89 4d f4	 mov	 DWORD PTR _pTableFrame$[ebp], ecx

; 750  : 	ASSERT(pTableFrame != NULL);

  000ba	83 7d f4 00	 cmp	 DWORD PTR _pTableFrame$[ebp], 0
  000be	75 18		 jne	 SHORT $LN16@OnTCPNetwo
  000c0	a1 00 00 00 00	 mov	 eax, DWORD PTR ?__LINE__Var@?0??OnTCPNetworkSubRequestReply@CPersonalRoomGame@@IAE_NPAXGKPAUIServerUserItem@@@Z@4JA
  000c5	83 c0 16	 add	 eax, 22			; 00000016H
  000c8	50		 push	 eax
  000c9	68 00 00 00 00	 push	 OFFSET ??_C@_0EN@PBHPFOKJ@g?3?2?M?x?$LK?$PM?2happygamewh?2?$LH?$PO?N?q?$LG?K?2?O?$LF?M?$LD@
  000ce	e8 00 00 00 00	 call	 ?AfxAssertFailedLine@@YGHPBDH@Z ; AfxAssertFailedLine
  000d3	85 c0		 test	 eax, eax
  000d5	74 01		 je	 SHORT $LN16@OnTCPNetwo
  000d7	cc		 int	 3
$LN16@OnTCPNetwo:

; 751  : 	if (pTableFrame == NULL) return false;

  000d8	83 7d f4 00	 cmp	 DWORD PTR _pTableFrame$[ebp], 0
  000dc	75 07		 jne	 SHORT $LN8@OnTCPNetwo
  000de	32 c0		 xor	 al, al
  000e0	e9 ae 00 00 00	 jmp	 $LN1@OnTCPNetwo
$LN8@OnTCPNetwo:

; 752  : 	//if(pRequestReply->dwUserID == pTableFrame->GetTableOwner()->GetUserID()) return false;
; 753  : 
; 754  : 	//转发数据
; 755  : 	WORD wChairCount = pTableFrame->GetChairCount();

  000e5	8b 45 f4	 mov	 eax, DWORD PTR _pTableFrame$[ebp]
  000e8	8b 10		 mov	 edx, DWORD PTR [eax]
  000ea	8b 4d f4	 mov	 ecx, DWORD PTR _pTableFrame$[ebp]
  000ed	8b 42 0c	 mov	 eax, DWORD PTR [edx+12]
  000f0	ff d0		 call	 eax
  000f2	66 89 45 f0	 mov	 WORD PTR _wChairCount$[ebp], ax

; 756  : 	for(int i = 0; i < wChairCount; ++i)

  000f6	c7 45 ec 00 00
	00 00		 mov	 DWORD PTR _i$2[ebp], 0
  000fd	eb 09		 jmp	 SHORT $LN4@OnTCPNetwo
$LN2@OnTCPNetwo:
  000ff	8b 45 ec	 mov	 eax, DWORD PTR _i$2[ebp]
  00102	83 c0 01	 add	 eax, 1
  00105	89 45 ec	 mov	 DWORD PTR _i$2[ebp], eax
$LN4@OnTCPNetwo:
  00108	0f b7 45 f0	 movzx	 eax, WORD PTR _wChairCount$[ebp]
  0010c	39 45 ec	 cmp	 DWORD PTR _i$2[ebp], eax
  0010f	7d 57		 jge	 SHORT $LN3@OnTCPNetwo

; 757  : 	{
; 758  : 		//过滤用户
; 759  : 		IServerUserItem* pUserItem = pTableFrame->GetTableUserItem(i);

  00111	0f b7 45 ec	 movzx	 eax, WORD PTR _i$2[ebp]
  00115	50		 push	 eax
  00116	8b 4d f4	 mov	 ecx, DWORD PTR _pTableFrame$[ebp]
  00119	8b 11		 mov	 edx, DWORD PTR [ecx]
  0011b	8b 4d f4	 mov	 ecx, DWORD PTR _pTableFrame$[ebp]
  0011e	8b 82 9c 00 00
	00		 mov	 eax, DWORD PTR [edx+156]
  00124	ff d0		 call	 eax
  00126	89 45 e8	 mov	 DWORD PTR _pUserItem$1[ebp], eax

; 760  : 		if(pUserItem == NULL || pUserItem == pIServerUserItem) continue;

  00129	83 7d e8 00	 cmp	 DWORD PTR _pUserItem$1[ebp], 0
  0012d	74 08		 je	 SHORT $LN10@OnTCPNetwo
  0012f	8b 45 e8	 mov	 eax, DWORD PTR _pUserItem$1[ebp]
  00132	3b 45 14	 cmp	 eax, DWORD PTR _pIServerUserItem$[ebp]
  00135	75 02		 jne	 SHORT $LN9@OnTCPNetwo
$LN10@OnTCPNetwo:
  00137	eb c6		 jmp	 SHORT $LN2@OnTCPNetwo
$LN9@OnTCPNetwo:

; 761  : 
; 762  : 		m_pIGameServiceFrame->SendData(pUserItem, MDM_GR_PERSONAL_TABLE, SUB_GR_REQUEST_REPLY, pData, wDataSize);

  00139	0f b7 45 0c	 movzx	 eax, WORD PTR _wDataSize$[ebp]
  0013d	50		 push	 eax
  0013e	8b 4d 08	 mov	 ecx, DWORD PTR _pData$[ebp]
  00141	51		 push	 ecx
  00142	6a 06		 push	 6
  00144	68 d2 00 00 00	 push	 210			; 000000d2H
  00149	8b 55 e8	 mov	 edx, DWORD PTR _pUserItem$1[ebp]
  0014c	52		 push	 edx
  0014d	8b 45 fc	 mov	 eax, DWORD PTR _this$[ebp]
  00150	8b 88 b8 00 00
	00		 mov	 ecx, DWORD PTR [eax+184]
  00156	8b 55 fc	 mov	 edx, DWORD PTR _this$[ebp]
  00159	8b 01		 mov	 eax, DWORD PTR [ecx]
  0015b	8b 8a b8 00 00
	00		 mov	 ecx, DWORD PTR [edx+184]
  00161	8b 50 1c	 mov	 edx, DWORD PTR [eax+28]
  00164	ff d2		 call	 edx

; 763  : 	}

  00166	eb 97		 jmp	 SHORT $LN2@OnTCPNetwo
$LN3@OnTCPNetwo:

; 764  : 
; 765  : 	if(pTableFrame->CancelTableRequestReply(pRequestReply->dwUserID, pRequestReply->cbAgree) == false) return false;

  00168	8b 45 f8	 mov	 eax, DWORD PTR _pRequestReply$[ebp]
  0016b	0f b6 48 08	 movzx	 ecx, BYTE PTR [eax+8]
  0016f	51		 push	 ecx
  00170	8b 55 f8	 mov	 edx, DWORD PTR _pRequestReply$[ebp]
  00173	8b 02		 mov	 eax, DWORD PTR [edx]
  00175	50		 push	 eax
  00176	8b 4d f4	 mov	 ecx, DWORD PTR _pTableFrame$[ebp]
  00179	8b 11		 mov	 edx, DWORD PTR [ecx]
  0017b	8b 4d f4	 mov	 ecx, DWORD PTR _pTableFrame$[ebp]
  0017e	8b 82 3c 01 00
	00		 mov	 eax, DWORD PTR [edx+316]
  00184	ff d0		 call	 eax
  00186	0f b6 c8	 movzx	 ecx, al
  00189	85 c9		 test	 ecx, ecx
  0018b	75 04		 jne	 SHORT $LN11@OnTCPNetwo
  0018d	32 c0		 xor	 al, al
  0018f	eb 02		 jmp	 SHORT $LN1@OnTCPNetwo
$LN11@OnTCPNetwo:

; 766  : 
; 767  : 	return true;

  00191	b0 01		 mov	 al, 1
$LN1@OnTCPNetwo:

; 768  : }

  00193	5f		 pop	 edi
  00194	5e		 pop	 esi
  00195	5b		 pop	 ebx
  00196	8b e5		 mov	 esp, ebp
  00198	5d		 pop	 ebp
  00199	c2 10 00	 ret	 16			; 00000010H
?OnTCPNetworkSubRequestReply@CPersonalRoomGame@@IAE_NPAXGKPAUIServerUserItem@@@Z ENDP ; CPersonalRoomGame::OnTCPNetworkSubRequestReply
_TEXT	ENDS
; Function compile flags: /Odtp /ZI
; File g:\网狐\happygamewh\服务端\系统模块\服务器组件\约战服务\personalroomgame.cpp
;	COMDAT ?OnTCPNetworkSubCancelRequest@CPersonalRoomGame@@IAE_NPAXGKPAUIServerUserItem@@@Z
_TEXT	SEGMENT
_pUserItem$1 = -44					; size = 4
_i$2 = -40						; size = 4
_wChairCount$ = -36					; size = 2
_cancelResult$ = -32					; size = 14
_pTableFrame$ = -16					; size = 4
_pCancelRequest$ = -12					; size = 4
_this$ = -8						; size = 4
__$ArrayPad$ = -4					; size = 4
_pData$ = 8						; size = 4
_wDataSize$ = 12					; size = 2
_dwSocketID$ = 16					; size = 4
_pIServerUserItem$ = 20					; size = 4
?OnTCPNetworkSubCancelRequest@CPersonalRoomGame@@IAE_NPAXGKPAUIServerUserItem@@@Z PROC ; CPersonalRoomGame::OnTCPNetworkSubCancelRequest, COMDAT
; _this$ = ecx

; 673  : {

  00000	55		 push	 ebp
  00001	8b ec		 mov	 ebp, esp
  00003	83 ec 6c	 sub	 esp, 108		; 0000006cH
  00006	a1 00 00 00 00	 mov	 eax, DWORD PTR ___security_cookie
  0000b	33 c5		 xor	 eax, ebp
  0000d	89 45 fc	 mov	 DWORD PTR __$ArrayPad$[ebp], eax
  00010	53		 push	 ebx
  00011	56		 push	 esi
  00012	57		 push	 edi
  00013	89 4d f8	 mov	 DWORD PTR _this$[ebp], ecx

; 674  : 	//校验数据
; 675  : 	ASSERT(wDataSize == sizeof(CMD_GR_CancelRequest));

  00016	0f b7 45 0c	 movzx	 eax, WORD PTR _wDataSize$[ebp]
  0001a	83 f8 0c	 cmp	 eax, 12			; 0000000cH
  0001d	74 19		 je	 SHORT $LN11@OnTCPNetwo
  0001f	8b 0d 00 00 00
	00		 mov	 ecx, DWORD PTR ?__LINE__Var@?0??OnTCPNetworkSubCancelRequest@CPersonalRoomGame@@IAE_NPAXGKPAUIServerUserItem@@@Z@4JA
  00025	83 c1 02	 add	 ecx, 2
  00028	51		 push	 ecx
  00029	68 00 00 00 00	 push	 OFFSET ??_C@_0EN@PBHPFOKJ@g?3?2?M?x?$LK?$PM?2happygamewh?2?$LH?$PO?N?q?$LG?K?2?O?$LF?M?$LD@
  0002e	e8 00 00 00 00	 call	 ?AfxAssertFailedLine@@YGHPBDH@Z ; AfxAssertFailedLine
  00033	85 c0		 test	 eax, eax
  00035	74 01		 je	 SHORT $LN11@OnTCPNetwo
  00037	cc		 int	 3
$LN11@OnTCPNetwo:

; 676  : 	if(wDataSize != sizeof(CMD_GR_CancelRequest)) return false;

  00038	0f b7 45 0c	 movzx	 eax, WORD PTR _wDataSize$[ebp]
  0003c	83 f8 0c	 cmp	 eax, 12			; 0000000cH
  0003f	74 07		 je	 SHORT $LN5@OnTCPNetwo
  00041	32 c0		 xor	 al, al
  00043	e9 63 01 00 00	 jmp	 $LN1@OnTCPNetwo
$LN5@OnTCPNetwo:

; 677  : 
; 678  : 	//提取数据
; 679  : 	CMD_GR_CancelRequest * pCancelRequest = (CMD_GR_CancelRequest*)pData;

  00048	8b 45 08	 mov	 eax, DWORD PTR _pData$[ebp]
  0004b	89 45 f4	 mov	 DWORD PTR _pCancelRequest$[ebp], eax

; 680  : 	ASSERT(pCancelRequest!=NULL);

  0004e	83 7d f4 00	 cmp	 DWORD PTR _pCancelRequest$[ebp], 0
  00052	75 18		 jne	 SHORT $LN12@OnTCPNetwo
  00054	a1 00 00 00 00	 mov	 eax, DWORD PTR ?__LINE__Var@?0??OnTCPNetworkSubCancelRequest@CPersonalRoomGame@@IAE_NPAXGKPAUIServerUserItem@@@Z@4JA
  00059	83 c0 07	 add	 eax, 7
  0005c	50		 push	 eax
  0005d	68 00 00 00 00	 push	 OFFSET ??_C@_0EN@PBHPFOKJ@g?3?2?M?x?$LK?$PM?2happygamewh?2?$LH?$PO?N?q?$LG?K?2?O?$LF?M?$LD@
  00062	e8 00 00 00 00	 call	 ?AfxAssertFailedLine@@YGHPBDH@Z ; AfxAssertFailedLine
  00067	85 c0		 test	 eax, eax
  00069	74 01		 je	 SHORT $LN12@OnTCPNetwo
  0006b	cc		 int	 3
$LN12@OnTCPNetwo:

; 681  : 	
; 682  : 	if (pCancelRequest->dwTableID >= m_pGameServiceOption->wTableCount)

  0006c	8b 45 f8	 mov	 eax, DWORD PTR _this$[ebp]
  0006f	8b 48 10	 mov	 ecx, DWORD PTR [eax+16]
  00072	0f b7 51 46	 movzx	 edx, WORD PTR [ecx+70]
  00076	8b 45 f4	 mov	 eax, DWORD PTR _pCancelRequest$[ebp]
  00079	39 50 04	 cmp	 DWORD PTR [eax+4], edx
  0007c	72 24		 jb	 SHORT $LN6@OnTCPNetwo

; 683  : 	{
; 684  : 		ASSERT(FALSE);

  0007e	33 c0		 xor	 eax, eax
  00080	75 19		 jne	 SHORT $LN13@OnTCPNetwo
  00082	8b 0d 00 00 00
	00		 mov	 ecx, DWORD PTR ?__LINE__Var@?0??OnTCPNetworkSubCancelRequest@CPersonalRoomGame@@IAE_NPAXGKPAUIServerUserItem@@@Z@4JA
  00088	83 c1 0b	 add	 ecx, 11			; 0000000bH
  0008b	51		 push	 ecx
  0008c	68 00 00 00 00	 push	 OFFSET ??_C@_0EN@PBHPFOKJ@g?3?2?M?x?$LK?$PM?2happygamewh?2?$LH?$PO?N?q?$LG?K?2?O?$LF?M?$LD@
  00091	e8 00 00 00 00	 call	 ?AfxAssertFailedLine@@YGHPBDH@Z ; AfxAssertFailedLine
  00096	85 c0		 test	 eax, eax
  00098	74 01		 je	 SHORT $LN13@OnTCPNetwo
  0009a	cc		 int	 3
$LN13@OnTCPNetwo:

; 685  : 		return false;

  0009b	32 c0		 xor	 al, al
  0009d	e9 09 01 00 00	 jmp	 $LN1@OnTCPNetwo
$LN6@OnTCPNetwo:

; 686  : 	}
; 687  : 	//获取用户
; 688  : 	//WORD wBindIndex=LOWORD(dwSocketID);
; 689  : 	//IServerUserItem * pIServerUserItem=GetBindUserItem(wBindIndex);
; 690  : 	//if (pIServerUserItem==NULL) return false;
; 691  : 
; 692  : 	//获取桌子
; 693  : 	CTableFrame* pTableFrame = (CTableFrame*)m_ppITableFrame[pCancelRequest->dwTableID];

  000a2	8b 45 f4	 mov	 eax, DWORD PTR _pCancelRequest$[ebp]
  000a5	8b 48 04	 mov	 ecx, DWORD PTR [eax+4]
  000a8	8b 55 f8	 mov	 edx, DWORD PTR _this$[ebp]
  000ab	8b 82 a0 00 00
	00		 mov	 eax, DWORD PTR [edx+160]
  000b1	8b 0c 88	 mov	 ecx, DWORD PTR [eax+ecx*4]
  000b4	89 4d f0	 mov	 DWORD PTR _pTableFrame$[ebp], ecx

; 694  : 	ASSERT(pTableFrame != NULL);

  000b7	83 7d f0 00	 cmp	 DWORD PTR _pTableFrame$[ebp], 0
  000bb	75 18		 jne	 SHORT $LN14@OnTCPNetwo
  000bd	a1 00 00 00 00	 mov	 eax, DWORD PTR ?__LINE__Var@?0??OnTCPNetworkSubCancelRequest@CPersonalRoomGame@@IAE_NPAXGKPAUIServerUserItem@@@Z@4JA
  000c2	83 c0 15	 add	 eax, 21			; 00000015H
  000c5	50		 push	 eax
  000c6	68 00 00 00 00	 push	 OFFSET ??_C@_0EN@PBHPFOKJ@g?3?2?M?x?$LK?$PM?2happygamewh?2?$LH?$PO?N?q?$LG?K?2?O?$LF?M?$LD@
  000cb	e8 00 00 00 00	 call	 ?AfxAssertFailedLine@@YGHPBDH@Z ; AfxAssertFailedLine
  000d0	85 c0		 test	 eax, eax
  000d2	74 01		 je	 SHORT $LN14@OnTCPNetwo
  000d4	cc		 int	 3
$LN14@OnTCPNetwo:

; 695  : 	if (pTableFrame == NULL) return false;

  000d5	83 7d f0 00	 cmp	 DWORD PTR _pTableFrame$[ebp], 0
  000d9	75 07		 jne	 SHORT $LN7@OnTCPNetwo
  000db	32 c0		 xor	 al, al
  000dd	e9 c9 00 00 00	 jmp	 $LN1@OnTCPNetwo
$LN7@OnTCPNetwo:

; 696  : 
; 697  : 	//如果请求解散的房间不是当前房间则返回
; 698  : 	//if (lstrcmp(pTableFrame->GetPersonalTableID(),  pCancelRequest->szRoomID) != 0)
; 699  : 	//{
; 700  : 
; 701  : 	//	return true;
; 702  : 	//}
; 703  : 
; 704  : 	if(pTableFrame->CancelTableRequest(pCancelRequest->dwUserID, static_cast<WORD>(pCancelRequest->dwChairID)) == false) return false;

  000e2	8b 45 f4	 mov	 eax, DWORD PTR _pCancelRequest$[ebp]
  000e5	0f b7 48 08	 movzx	 ecx, WORD PTR [eax+8]
  000e9	51		 push	 ecx
  000ea	8b 55 f4	 mov	 edx, DWORD PTR _pCancelRequest$[ebp]
  000ed	8b 02		 mov	 eax, DWORD PTR [edx]
  000ef	50		 push	 eax
  000f0	8b 4d f0	 mov	 ecx, DWORD PTR _pTableFrame$[ebp]
  000f3	8b 11		 mov	 edx, DWORD PTR [ecx]
  000f5	8b 4d f0	 mov	 ecx, DWORD PTR _pTableFrame$[ebp]
  000f8	8b 82 38 01 00
	00		 mov	 eax, DWORD PTR [edx+312]
  000fe	ff d0		 call	 eax
  00100	0f b6 c8	 movzx	 ecx, al
  00103	85 c9		 test	 ecx, ecx
  00105	75 07		 jne	 SHORT $LN8@OnTCPNetwo
  00107	32 c0		 xor	 al, al
  00109	e9 9d 00 00 00	 jmp	 $LN1@OnTCPNetwo
$LN8@OnTCPNetwo:

; 705  : 
; 706  : 	CMD_GR_CancelRequest_Result cancelResult;
; 707  : 	cancelResult.dwUserID = pCancelRequest->dwUserID;

  0010e	8b 45 f4	 mov	 eax, DWORD PTR _pCancelRequest$[ebp]
  00111	8b 08		 mov	 ecx, DWORD PTR [eax]
  00113	89 4d e0	 mov	 DWORD PTR _cancelResult$[ebp], ecx

; 708  : 	cancelResult.dwTableID = pCancelRequest->dwTableID;

  00116	8b 45 f4	 mov	 eax, DWORD PTR _pCancelRequest$[ebp]
  00119	8b 48 04	 mov	 ecx, DWORD PTR [eax+4]
  0011c	89 4d e4	 mov	 DWORD PTR _cancelResult$[ebp+4], ecx

; 709  : 	cancelResult.dwChairID = pCancelRequest->dwChairID;

  0011f	8b 45 f4	 mov	 eax, DWORD PTR _pCancelRequest$[ebp]
  00122	8b 48 08	 mov	 ecx, DWORD PTR [eax+8]
  00125	89 4d e8	 mov	 DWORD PTR _cancelResult$[ebp+8], ecx

; 710  : 	cancelResult.wCancelTime = 150;                       //#define  TIME_CANCEL		150 *1000

  00128	b8 96 00 00 00	 mov	 eax, 150		; 00000096H
  0012d	66 89 45 ec	 mov	 WORD PTR _cancelResult$[ebp+12], ax

; 711  : 
; 712  : 	//转发数据
; 713  : 	WORD wChairCount = pTableFrame->GetChairCount();

  00131	8b 45 f0	 mov	 eax, DWORD PTR _pTableFrame$[ebp]
  00134	8b 10		 mov	 edx, DWORD PTR [eax]
  00136	8b 4d f0	 mov	 ecx, DWORD PTR _pTableFrame$[ebp]
  00139	8b 42 0c	 mov	 eax, DWORD PTR [edx+12]
  0013c	ff d0		 call	 eax
  0013e	66 89 45 dc	 mov	 WORD PTR _wChairCount$[ebp], ax

; 714  : 	for(int i = 0; i < wChairCount; ++i)

  00142	c7 45 d8 00 00
	00 00		 mov	 DWORD PTR _i$2[ebp], 0
  00149	eb 09		 jmp	 SHORT $LN4@OnTCPNetwo
$LN2@OnTCPNetwo:
  0014b	8b 45 d8	 mov	 eax, DWORD PTR _i$2[ebp]
  0014e	83 c0 01	 add	 eax, 1
  00151	89 45 d8	 mov	 DWORD PTR _i$2[ebp], eax
$LN4@OnTCPNetwo:
  00154	0f b7 45 dc	 movzx	 eax, WORD PTR _wChairCount$[ebp]
  00158	39 45 d8	 cmp	 DWORD PTR _i$2[ebp], eax
  0015b	7d 4c		 jge	 SHORT $LN3@OnTCPNetwo

; 715  : 	{
; 716  : 		//过滤用户
; 717  : 
; 718  : 		IServerUserItem* pUserItem = pTableFrame->GetTableUserItem(i);

  0015d	0f b7 45 d8	 movzx	 eax, WORD PTR _i$2[ebp]
  00161	50		 push	 eax
  00162	8b 4d f0	 mov	 ecx, DWORD PTR _pTableFrame$[ebp]
  00165	8b 11		 mov	 edx, DWORD PTR [ecx]
  00167	8b 4d f0	 mov	 ecx, DWORD PTR _pTableFrame$[ebp]
  0016a	8b 82 9c 00 00
	00		 mov	 eax, DWORD PTR [edx+156]
  00170	ff d0		 call	 eax
  00172	89 45 d4	 mov	 DWORD PTR _pUserItem$1[ebp], eax

; 719  : 		if(pUserItem == NULL/* || pUserItem == pIServerUserItem*/) continue;

  00175	83 7d d4 00	 cmp	 DWORD PTR _pUserItem$1[ebp], 0
  00179	75 02		 jne	 SHORT $LN9@OnTCPNetwo
  0017b	eb ce		 jmp	 SHORT $LN2@OnTCPNetwo
$LN9@OnTCPNetwo:

; 720  : 
; 721  : 		m_pIGameServiceFrame->SendData(pUserItem, MDM_GR_PERSONAL_TABLE, SUB_GR_CANCEL_REQUEST, &cancelResult, sizeof(cancelResult));

  0017d	6a 0e		 push	 14			; 0000000eH
  0017f	8d 45 e0	 lea	 eax, DWORD PTR _cancelResult$[ebp]
  00182	50		 push	 eax
  00183	6a 05		 push	 5
  00185	68 d2 00 00 00	 push	 210			; 000000d2H
  0018a	8b 4d d4	 mov	 ecx, DWORD PTR _pUserItem$1[ebp]
  0018d	51		 push	 ecx
  0018e	8b 55 f8	 mov	 edx, DWORD PTR _this$[ebp]
  00191	8b 82 b8 00 00
	00		 mov	 eax, DWORD PTR [edx+184]
  00197	8b 4d f8	 mov	 ecx, DWORD PTR _this$[ebp]
  0019a	8b 10		 mov	 edx, DWORD PTR [eax]
  0019c	8b 89 b8 00 00
	00		 mov	 ecx, DWORD PTR [ecx+184]
  001a2	8b 42 1c	 mov	 eax, DWORD PTR [edx+28]
  001a5	ff d0		 call	 eax

; 722  : 	}

  001a7	eb a2		 jmp	 SHORT $LN2@OnTCPNetwo
$LN3@OnTCPNetwo:

; 723  : 
; 724  : 	return true;

  001a9	b0 01		 mov	 al, 1
$LN1@OnTCPNetwo:

; 725  : }

  001ab	5f		 pop	 edi
  001ac	5e		 pop	 esi
  001ad	5b		 pop	 ebx
  001ae	8b 4d fc	 mov	 ecx, DWORD PTR __$ArrayPad$[ebp]
  001b1	33 cd		 xor	 ecx, ebp
  001b3	e8 00 00 00 00	 call	 @__security_check_cookie@4
  001b8	8b e5		 mov	 esp, ebp
  001ba	5d		 pop	 ebp
  001bb	c2 10 00	 ret	 16			; 00000010H
?OnTCPNetworkSubCancelRequest@CPersonalRoomGame@@IAE_NPAXGKPAUIServerUserItem@@@Z ENDP ; CPersonalRoomGame::OnTCPNetworkSubCancelRequest
_TEXT	ENDS
; Function compile flags: /Odtp /ZI
; File g:\网狐\happygamewh\服务端\系统模块\服务器组件\约战服务\personalroomgame.cpp
;	COMDAT ?OnTCPNetworkSubCreateTable@CPersonalRoomGame@@IAE_NPAXGKPAUIServerUserItem@@@Z
_TEXT	SEGMENT
_CreateFailure$ = -688					; size = 132
_CreateTable$1 = -556					; size = 140
_dwTableID$2 = -416					; size = 4
_pTableFrame$3 = -412					; size = 4
_i$4 = -408						; size = 4
_szInfo$ = -404						; size = 260
_CreateFailure$5 = -144					; size = 132
_pCreateTable$ = -12					; size = 4
_this$ = -8						; size = 4
__$ArrayPad$ = -4					; size = 4
_pData$ = 8						; size = 4
_wDataSize$ = 12					; size = 2
_dwSocketID$ = 16					; size = 4
_pIServerUserItem$ = 20					; size = 4
?OnTCPNetworkSubCreateTable@CPersonalRoomGame@@IAE_NPAXGKPAUIServerUserItem@@@Z PROC ; CPersonalRoomGame::OnTCPNetworkSubCreateTable, COMDAT
; _this$ = ecx

; 596  : {

  00000	55		 push	 ebp
  00001	8b ec		 mov	 ebp, esp
  00003	81 ec 30 03 00
	00		 sub	 esp, 816		; 00000330H
  00009	a1 00 00 00 00	 mov	 eax, DWORD PTR ___security_cookie
  0000e	33 c5		 xor	 eax, ebp
  00010	89 45 fc	 mov	 DWORD PTR __$ArrayPad$[ebp], eax
  00013	53		 push	 ebx
  00014	56		 push	 esi
  00015	57		 push	 edi
  00016	89 4d f8	 mov	 DWORD PTR _this$[ebp], ecx

; 597  : 	//效验数据
; 598  : 	ASSERT(wDataSize==sizeof(CMD_GR_CreateTable));

  00019	0f b7 45 0c	 movzx	 eax, WORD PTR _wDataSize$[ebp]
  0001d	83 f8 7d	 cmp	 eax, 125		; 0000007dH
  00020	74 19		 je	 SHORT $LN10@OnTCPNetwo
  00022	8b 0d 00 00 00
	00		 mov	 ecx, DWORD PTR ?__LINE__Var@?0??OnTCPNetworkSubCreateTable@CPersonalRoomGame@@IAE_NPAXGKPAUIServerUserItem@@@Z@4JA
  00028	83 c1 02	 add	 ecx, 2
  0002b	51		 push	 ecx
  0002c	68 00 00 00 00	 push	 OFFSET ??_C@_0EN@PBHPFOKJ@g?3?2?M?x?$LK?$PM?2happygamewh?2?$LH?$PO?N?q?$LG?K?2?O?$LF?M?$LD@
  00031	e8 00 00 00 00	 call	 ?AfxAssertFailedLine@@YGHPBDH@Z ; AfxAssertFailedLine
  00036	85 c0		 test	 eax, eax
  00038	74 01		 je	 SHORT $LN10@OnTCPNetwo
  0003a	cc		 int	 3
$LN10@OnTCPNetwo:

; 599  : 	if (wDataSize!=sizeof(CMD_GR_CreateTable)) return false;

  0003b	0f b7 45 0c	 movzx	 eax, WORD PTR _wDataSize$[ebp]
  0003f	83 f8 7d	 cmp	 eax, 125		; 0000007dH
  00042	74 07		 je	 SHORT $LN5@OnTCPNetwo
  00044	32 c0		 xor	 al, al
  00046	e9 1c 03 00 00	 jmp	 $LN1@OnTCPNetwo
$LN5@OnTCPNetwo:

; 600  : 
; 601  : 	//提取数据
; 602  : 	CMD_GR_CreateTable * pCreateTable = (CMD_GR_CreateTable*)pData;

  0004b	8b 45 08	 mov	 eax, DWORD PTR _pData$[ebp]
  0004e	89 45 f4	 mov	 DWORD PTR _pCreateTable$[ebp], eax

; 603  : 	ASSERT(pCreateTable!=NULL);

  00051	83 7d f4 00	 cmp	 DWORD PTR _pCreateTable$[ebp], 0
  00055	75 18		 jne	 SHORT $LN11@OnTCPNetwo
  00057	a1 00 00 00 00	 mov	 eax, DWORD PTR ?__LINE__Var@?0??OnTCPNetworkSubCreateTable@CPersonalRoomGame@@IAE_NPAXGKPAUIServerUserItem@@@Z@4JA
  0005c	83 c0 07	 add	 eax, 7
  0005f	50		 push	 eax
  00060	68 00 00 00 00	 push	 OFFSET ??_C@_0EN@PBHPFOKJ@g?3?2?M?x?$LK?$PM?2happygamewh?2?$LH?$PO?N?q?$LG?K?2?O?$LF?M?$LD@
  00065	e8 00 00 00 00	 call	 ?AfxAssertFailedLine@@YGHPBDH@Z ; AfxAssertFailedLine
  0006a	85 c0		 test	 eax, eax
  0006c	74 01		 je	 SHORT $LN11@OnTCPNetwo
  0006e	cc		 int	 3
$LN11@OnTCPNetwo:

; 604  : 	
; 605  : 	//检查玩家状态，判断玩家是否在游戏中，如果在，则不能创建房间
; 606  : 	if (pIServerUserItem->GetUserStatus() == US_OFFLINE || US_PLAYING == pIServerUserItem->GetUserStatus())

  0006f	8b 45 14	 mov	 eax, DWORD PTR _pIServerUserItem$[ebp]
  00072	8b 10		 mov	 edx, DWORD PTR [eax]
  00074	8b 4d 14	 mov	 ecx, DWORD PTR _pIServerUserItem$[ebp]
  00077	8b 42 74	 mov	 eax, DWORD PTR [edx+116]
  0007a	ff d0		 call	 eax
  0007c	0f b6 c8	 movzx	 ecx, al
  0007f	83 f9 06	 cmp	 ecx, 6
  00082	74 15		 je	 SHORT $LN7@OnTCPNetwo
  00084	8b 45 14	 mov	 eax, DWORD PTR _pIServerUserItem$[ebp]
  00087	8b 10		 mov	 edx, DWORD PTR [eax]
  00089	8b 4d 14	 mov	 ecx, DWORD PTR _pIServerUserItem$[ebp]
  0008c	8b 42 74	 mov	 eax, DWORD PTR [edx+116]
  0008f	ff d0		 call	 eax
  00091	0f b6 c8	 movzx	 ecx, al
  00094	83 f9 05	 cmp	 ecx, 5
  00097	75 6e		 jne	 SHORT $LN6@OnTCPNetwo
$LN7@OnTCPNetwo:

; 607  : 	{
; 608  : 		//构造数据
; 609  : 		CMD_GR_CreateFailure CreateFailure;
; 610  : 		ZeroMemory(&CreateFailure, sizeof(CMD_GR_CreateFailure));

  00099	68 84 00 00 00	 push	 132			; 00000084H
  0009e	6a 00		 push	 0
  000a0	8d 85 70 ff ff
	ff		 lea	 eax, DWORD PTR _CreateFailure$5[ebp]
  000a6	50		 push	 eax
  000a7	e8 00 00 00 00	 call	 _memset
  000ac	83 c4 0c	 add	 esp, 12			; 0000000cH

; 611  : 
; 612  : 		CreateFailure.lErrorCode = 1;

  000af	c7 85 70 ff ff
	ff 01 00 00 00	 mov	 DWORD PTR _CreateFailure$5[ebp], 1

; 613  : 		lstrcpyn(CreateFailure.szDescribeString, TEXT("玩家正在约战房游戏中，不能创建房间！"), CountArray(CreateFailure.szDescribeString));

  000b9	68 80 00 00 00	 push	 128			; 00000080H
  000be	68 00 00 00 00	 push	 OFFSET ??_C@_0CF@BENLJJPJ@?M?f?$LM?R?U?$PN?T?Z?T?$LM?U?$LN?$LH?$LP?S?N?O?$LH?V?P?$KD?$KM?$LC?$LL?D?$NM?$LE?$LE?$LN?$KI?$LH@
  000c3	8d 85 74 ff ff
	ff		 lea	 eax, DWORD PTR _CreateFailure$5[ebp+4]
  000c9	50		 push	 eax
  000ca	ff 15 00 00 00
	00		 call	 DWORD PTR __imp__lstrcpynA@12

; 614  : 
; 615  : 		//发送数据
; 616  : 		m_pITCPNetworkEngine->SendData(dwSocketID, MDM_GR_PERSONAL_TABLE, SUB_GR_CREATE_FAILURE, &CreateFailure, sizeof(CMD_GR_CreateFailure));

  000d0	68 84 00 00 00	 push	 132			; 00000084H
  000d5	8d 85 70 ff ff
	ff		 lea	 eax, DWORD PTR _CreateFailure$5[ebp]
  000db	50		 push	 eax
  000dc	6a 03		 push	 3
  000de	68 d2 00 00 00	 push	 210			; 000000d2H
  000e3	8b 4d 10	 mov	 ecx, DWORD PTR _dwSocketID$[ebp]
  000e6	51		 push	 ecx
  000e7	8b 55 f8	 mov	 edx, DWORD PTR _this$[ebp]
  000ea	8b 82 b0 00 00
	00		 mov	 eax, DWORD PTR [edx+176]
  000f0	8b 4d f8	 mov	 ecx, DWORD PTR _this$[ebp]
  000f3	8b 10		 mov	 edx, DWORD PTR [eax]
  000f5	8b 89 b0 00 00
	00		 mov	 ecx, DWORD PTR [ecx+176]
  000fb	8b 42 20	 mov	 eax, DWORD PTR [edx+32]
  000fe	ff d0		 call	 eax

; 617  : 		return true;

  00100	b0 01		 mov	 al, 1
  00102	e9 60 02 00 00	 jmp	 $LN1@OnTCPNetwo
$LN6@OnTCPNetwo:

; 618  : 	}
; 619  : 
; 620  : 	//寻找空闲桌子
; 621  : 	//INT_PTR nSize = m_ppITableFrame.GetCount();
; 622  : 	TCHAR szInfo[260] = {0};

  00107	68 04 01 00 00	 push	 260			; 00000104H
  0010c	6a 00		 push	 0
  0010e	8d 85 6c fe ff
	ff		 lea	 eax, DWORD PTR _szInfo$[ebp]
  00114	50		 push	 eax
  00115	e8 00 00 00 00	 call	 _memset
  0011a	83 c4 0c	 add	 esp, 12			; 0000000cH

; 623  : 	for(INT_PTR i = 0; i < m_pGameServiceOption->wTableCount; ++i)

  0011d	c7 85 68 fe ff
	ff 00 00 00 00	 mov	 DWORD PTR _i$4[ebp], 0
  00127	eb 0f		 jmp	 SHORT $LN4@OnTCPNetwo
$LN2@OnTCPNetwo:
  00129	8b 85 68 fe ff
	ff		 mov	 eax, DWORD PTR _i$4[ebp]
  0012f	83 c0 01	 add	 eax, 1
  00132	89 85 68 fe ff
	ff		 mov	 DWORD PTR _i$4[ebp], eax
$LN4@OnTCPNetwo:
  00138	8b 45 f8	 mov	 eax, DWORD PTR _this$[ebp]
  0013b	8b 48 10	 mov	 ecx, DWORD PTR [eax+16]
  0013e	0f b7 51 46	 movzx	 edx, WORD PTR [ecx+70]
  00142	39 95 68 fe ff
	ff		 cmp	 DWORD PTR _i$4[ebp], edx
  00148	0f 8d b0 01 00
	00		 jge	 $LN3@OnTCPNetwo

; 624  : 	{
; 625  : 		CTableFrame* pTableFrame = (CTableFrame*)m_ppITableFrame[i];

  0014e	8b 45 f8	 mov	 eax, DWORD PTR _this$[ebp]
  00151	8b 88 a0 00 00
	00		 mov	 ecx, DWORD PTR [eax+160]
  00157	8b 95 68 fe ff
	ff		 mov	 edx, DWORD PTR _i$4[ebp]
  0015d	8b 04 91	 mov	 eax, DWORD PTR [ecx+edx*4]
  00160	89 85 64 fe ff
	ff		 mov	 DWORD PTR _pTableFrame$3[ebp], eax

; 626  : 
; 627  : 		if(pTableFrame->GetNullChairCount() == pTableFrame->GetChairCount() && pTableFrame->IsPersonalTableLocked() == false)

  00166	8b 85 64 fe ff
	ff		 mov	 eax, DWORD PTR _pTableFrame$3[ebp]
  0016c	8b 10		 mov	 edx, DWORD PTR [eax]
  0016e	8b 8d 64 fe ff
	ff		 mov	 ecx, DWORD PTR _pTableFrame$3[ebp]
  00174	8b 42 10	 mov	 eax, DWORD PTR [edx+16]
  00177	ff d0		 call	 eax
  00179	0f b7 f0	 movzx	 esi, ax
  0017c	8b 8d 64 fe ff
	ff		 mov	 ecx, DWORD PTR _pTableFrame$3[ebp]
  00182	8b 11		 mov	 edx, DWORD PTR [ecx]
  00184	8b 8d 64 fe ff
	ff		 mov	 ecx, DWORD PTR _pTableFrame$3[ebp]
  0018a	8b 42 0c	 mov	 eax, DWORD PTR [edx+12]
  0018d	ff d0		 call	 eax
  0018f	0f b7 c8	 movzx	 ecx, ax
  00192	3b f1		 cmp	 esi, ecx
  00194	0f 85 5f 01 00
	00		 jne	 $LN8@OnTCPNetwo
  0019a	8b 85 64 fe ff
	ff		 mov	 eax, DWORD PTR _pTableFrame$3[ebp]
  001a0	8b 10		 mov	 edx, DWORD PTR [eax]
  001a2	8b 8d 64 fe ff
	ff		 mov	 ecx, DWORD PTR _pTableFrame$3[ebp]
  001a8	8b 42 48	 mov	 eax, DWORD PTR [edx+72]
  001ab	ff d0		 call	 eax
  001ad	0f b6 c8	 movzx	 ecx, al
  001b0	85 c9		 test	 ecx, ecx
  001b2	0f 85 41 01 00
	00		 jne	 $LN8@OnTCPNetwo

; 628  : 		{
; 629  : 			//锁定桌子
; 630  : 			pTableFrame->SetPersonalTableLocked(true);

  001b8	6a 01		 push	 1
  001ba	8b 85 64 fe ff
	ff		 mov	 eax, DWORD PTR _pTableFrame$3[ebp]
  001c0	8b 10		 mov	 edx, DWORD PTR [eax]
  001c2	8b 8d 64 fe ff
	ff		 mov	 ecx, DWORD PTR _pTableFrame$3[ebp]
  001c8	8b 42 4c	 mov	 eax, DWORD PTR [edx+76]
  001cb	ff d0		 call	 eax

; 631  : 
; 632  : 			//桌子号
; 633  : 			DWORD dwTableID = pTableFrame->GetTableID();

  001cd	8b 85 64 fe ff
	ff		 mov	 eax, DWORD PTR _pTableFrame$3[ebp]
  001d3	8b 10		 mov	 edx, DWORD PTR [eax]
  001d5	8b 8d 64 fe ff
	ff		 mov	 ecx, DWORD PTR _pTableFrame$3[ebp]
  001db	8b 42 08	 mov	 eax, DWORD PTR [edx+8]
  001de	ff d0		 call	 eax
  001e0	0f b7 c8	 movzx	 ecx, ax
  001e3	89 8d 60 fe ff
	ff		 mov	 DWORD PTR _dwTableID$2[ebp], ecx

; 634  : 
; 635  : 			//构造数据
; 636  : 			DBR_GR_CreateTable CreateTable;
; 637  : 			ZeroMemory(&CreateTable, sizeof(DBR_GR_CreateTable));

  001e9	68 8c 00 00 00	 push	 140			; 0000008cH
  001ee	6a 00		 push	 0
  001f0	8d 85 d4 fd ff
	ff		 lea	 eax, DWORD PTR _CreateTable$1[ebp]
  001f6	50		 push	 eax
  001f7	e8 00 00 00 00	 call	 _memset
  001fc	83 c4 0c	 add	 esp, 12			; 0000000cH

; 638  : 
; 639  : 			CreateTable.dwUserID = pIServerUserItem->GetUserID();

  001ff	8b 45 14	 mov	 eax, DWORD PTR _pIServerUserItem$[ebp]
  00202	8b 10		 mov	 edx, DWORD PTR [eax]
  00204	8b 4d 14	 mov	 ecx, DWORD PTR _pIServerUserItem$[ebp]
  00207	8b 42 5c	 mov	 eax, DWORD PTR [edx+92]
  0020a	ff d0		 call	 eax
  0020c	89 85 d4 fd ff
	ff		 mov	 DWORD PTR _CreateTable$1[ebp], eax

; 640  : 			CreateTable.dwClientAddr = pIServerUserItem->GetClientAddr();

  00212	8b 45 14	 mov	 eax, DWORD PTR _pIServerUserItem$[ebp]
  00215	8b 10		 mov	 edx, DWORD PTR [eax]
  00217	8b 4d 14	 mov	 ecx, DWORD PTR _pIServerUserItem$[ebp]
  0021a	8b 42 0c	 mov	 eax, DWORD PTR [edx+12]
  0021d	ff d0		 call	 eax
  0021f	89 85 d8 fd ff
	ff		 mov	 DWORD PTR _CreateTable$1[ebp+4], eax

; 641  : 			CreateTable.dwServerID = m_pGameServiceOption->wServerID;

  00225	8b 45 f8	 mov	 eax, DWORD PTR _this$[ebp]
  00228	8b 48 10	 mov	 ecx, DWORD PTR [eax+16]
  0022b	0f b7 51 06	 movzx	 edx, WORD PTR [ecx+6]
  0022f	89 95 e0 fd ff
	ff		 mov	 DWORD PTR _CreateTable$1[ebp+12], edx

; 642  : 			CreateTable.dwTableID = dwTableID;

  00235	8b 85 60 fe ff
	ff		 mov	 eax, DWORD PTR _dwTableID$2[ebp]
  0023b	89 85 e4 fd ff
	ff		 mov	 DWORD PTR _CreateTable$1[ebp+16], eax

; 643  : 			CreateTable.dwDrawCountLimit = pCreateTable->dwDrawCountLimit;

  00241	8b 45 f4	 mov	 eax, DWORD PTR _pCreateTable$[ebp]
  00244	8b 48 08	 mov	 ecx, DWORD PTR [eax+8]
  00247	89 8d ec fd ff
	ff		 mov	 DWORD PTR _CreateTable$1[ebp+24], ecx

; 644  : 			CreateTable.dwDrawTimeLimit = pCreateTable->dwDrawTimeLimit;

  0024d	8b 45 f4	 mov	 eax, DWORD PTR _pCreateTable$[ebp]
  00250	8b 48 0c	 mov	 ecx, DWORD PTR [eax+12]
  00253	89 8d f0 fd ff
	ff		 mov	 DWORD PTR _CreateTable$1[ebp+28], ecx

; 645  : 			CreateTable.lCellScore = static_cast<LONG>(pCreateTable->lCellScore);

  00259	8b 45 f4	 mov	 eax, DWORD PTR _pCreateTable$[ebp]
  0025c	8b 08		 mov	 ecx, DWORD PTR [eax]
  0025e	89 8d dc fd ff
	ff		 mov	 DWORD PTR _CreateTable$1[ebp+8], ecx

; 646  : 			CreateTable.dwRoomTax = pCreateTable->dwRoomTax;

  00264	8b 45 f4	 mov	 eax, DWORD PTR _pCreateTable$[ebp]
  00267	8b 48 12	 mov	 ecx, DWORD PTR [eax+18]
  0026a	89 8d f4 fd ff
	ff		 mov	 DWORD PTR _CreateTable$1[ebp+32], ecx

; 647  : 			CreateTable.wJoinGamePeopleCount = pCreateTable->wJoinGamePeopleCount;

  00270	8b 45 f4	 mov	 eax, DWORD PTR _pCreateTable$[ebp]
  00273	66 8b 48 10	 mov	 cx, WORD PTR [eax+16]
  00277	66 89 8d e8 fd
	ff ff		 mov	 WORD PTR _CreateTable$1[ebp+20], cx

; 648  : 			CreateTable.cbPassword = pCreateTable->cbPassword;

  0027e	8b 45 f4	 mov	 eax, DWORD PTR _pCreateTable$[ebp]
  00281	8a 48 16	 mov	 cl, BYTE PTR [eax+22]
  00284	88 8d f8 fd ff
	ff		 mov	 BYTE PTR _CreateTable$1[ebp+36], cl

; 649  : 			memcpy(CreateTable.cbGameRule, pCreateTable->cbGameRule,  CountArray(CreateTable.cbGameRule));

  0028a	6a 64		 push	 100			; 00000064H
  0028c	8b 45 f4	 mov	 eax, DWORD PTR _pCreateTable$[ebp]
  0028f	83 c0 18	 add	 eax, 24			; 00000018H
  00292	50		 push	 eax
  00293	8d 8d f9 fd ff
	ff		 lea	 ecx, DWORD PTR _CreateTable$1[ebp+37]
  00299	51		 push	 ecx
  0029a	e8 00 00 00 00	 call	 _memcpy
  0029f	83 c4 0c	 add	 esp, 12			; 0000000cH

; 650  : 			CreateTable.cbPayMode = pCreateTable->cbPayMode;

  002a2	8b 45 f4	 mov	 eax, DWORD PTR _pCreateTable$[ebp]
  002a5	8a 48 17	 mov	 cl, BYTE PTR [eax+23]
  002a8	88 8d 5d fe ff
	ff		 mov	 BYTE PTR _CreateTable$1[ebp+137], cl

; 651  : 			CreateTable.cbGameMode = pCreateTable->cbGameMode;

  002ae	8b 45 f4	 mov	 eax, DWORD PTR _pCreateTable$[ebp]
  002b1	8a 48 7c	 mov	 cl, BYTE PTR [eax+124]
  002b4	88 8d 5e fe ff
	ff		 mov	 BYTE PTR _CreateTable$1[ebp+138], cl

; 652  : 			//投递数据
; 653  : 			m_pIDBCorrespondManager->PostDataBaseRequest(CreateTable.dwUserID, DBR_GR_CREATE_TABLE, dwSocketID, &CreateTable, sizeof(DBR_GR_CreateTable));

  002ba	6a 00		 push	 0
  002bc	68 8c 00 00 00	 push	 140			; 0000008cH
  002c1	8d 85 d4 fd ff
	ff		 lea	 eax, DWORD PTR _CreateTable$1[ebp]
  002c7	50		 push	 eax
  002c8	8b 4d 10	 mov	 ecx, DWORD PTR _dwSocketID$[ebp]
  002cb	51		 push	 ecx
  002cc	68 15 05 00 00	 push	 1301			; 00000515H
  002d1	8b 95 d4 fd ff
	ff		 mov	 edx, DWORD PTR _CreateTable$1[ebp]
  002d7	52		 push	 edx
  002d8	8b 45 f8	 mov	 eax, DWORD PTR _this$[ebp]
  002db	8b 88 a8 00 00
	00		 mov	 ecx, DWORD PTR [eax+168]
  002e1	8b 55 f8	 mov	 edx, DWORD PTR _this$[ebp]
  002e4	8b 82 a8 00 00
	00		 mov	 eax, DWORD PTR [edx+168]
  002ea	8b 09		 mov	 ecx, DWORD PTR [ecx]
  002ec	50		 push	 eax
  002ed	8b 51 14	 mov	 edx, DWORD PTR [ecx+20]
  002f0	ff d2		 call	 edx
  002f2	83 c4 1c	 add	 esp, 28			; 0000001cH

; 654  : 
; 655  : 			return true;

  002f5	b0 01		 mov	 al, 1
  002f7	eb 6e		 jmp	 SHORT $LN1@OnTCPNetwo
$LN8@OnTCPNetwo:

; 656  : 		}
; 657  : 	}

  002f9	e9 2b fe ff ff	 jmp	 $LN2@OnTCPNetwo
$LN3@OnTCPNetwo:

; 658  : 
; 659  : 	//构造数据
; 660  : 	CMD_GR_CreateFailure CreateFailure;
; 661  : 	ZeroMemory(&CreateFailure, sizeof(CMD_GR_CreateFailure));

  002fe	68 84 00 00 00	 push	 132			; 00000084H
  00303	6a 00		 push	 0
  00305	8d 85 50 fd ff
	ff		 lea	 eax, DWORD PTR _CreateFailure$[ebp]
  0030b	50		 push	 eax
  0030c	e8 00 00 00 00	 call	 _memset
  00311	83 c4 0c	 add	 esp, 12			; 0000000cH

; 662  : 
; 663  : 	CreateFailure.lErrorCode = 1;

  00314	c7 85 50 fd ff
	ff 01 00 00 00	 mov	 DWORD PTR _CreateFailure$[ebp], 1

; 664  : 	lstrcpyn(CreateFailure.szDescribeString, TEXT("目前该游戏约战房间已满，请稍后再试！"), CountArray(CreateFailure.szDescribeString));

  0031e	68 80 00 00 00	 push	 128			; 00000080H
  00323	68 00 00 00 00	 push	 OFFSET ??_C@_0CF@DJFGALCD@?D?$LP?G?$LA?$LI?C?S?N?O?$LH?T?$LM?U?$LN?$LH?$LP?$LM?d?R?Q?B?z?$KD?$KM?G?k?I?T?$LK?s?T@
  00328	8d 85 54 fd ff
	ff		 lea	 eax, DWORD PTR _CreateFailure$[ebp+4]
  0032e	50		 push	 eax
  0032f	ff 15 00 00 00
	00		 call	 DWORD PTR __imp__lstrcpynA@12

; 665  : 
; 666  : 	//发送数据
; 667  : 	m_pITCPNetworkEngine->SendData(dwSocketID, MDM_GR_PERSONAL_TABLE, SUB_GR_CREATE_FAILURE, &CreateFailure, sizeof(CMD_GR_CreateFailure));

  00335	68 84 00 00 00	 push	 132			; 00000084H
  0033a	8d 85 50 fd ff
	ff		 lea	 eax, DWORD PTR _CreateFailure$[ebp]
  00340	50		 push	 eax
  00341	6a 03		 push	 3
  00343	68 d2 00 00 00	 push	 210			; 000000d2H
  00348	8b 4d 10	 mov	 ecx, DWORD PTR _dwSocketID$[ebp]
  0034b	51		 push	 ecx
  0034c	8b 55 f8	 mov	 edx, DWORD PTR _this$[ebp]
  0034f	8b 82 b0 00 00
	00		 mov	 eax, DWORD PTR [edx+176]
  00355	8b 4d f8	 mov	 ecx, DWORD PTR _this$[ebp]
  00358	8b 10		 mov	 edx, DWORD PTR [eax]
  0035a	8b 89 b0 00 00
	00		 mov	 ecx, DWORD PTR [ecx+176]
  00360	8b 42 20	 mov	 eax, DWORD PTR [edx+32]
  00363	ff d0		 call	 eax

; 668  : 
; 669  : 	return true;

  00365	b0 01		 mov	 al, 1
$LN1@OnTCPNetwo:

; 670  : }

  00367	5f		 pop	 edi
  00368	5e		 pop	 esi
  00369	5b		 pop	 ebx
  0036a	8b 4d fc	 mov	 ecx, DWORD PTR __$ArrayPad$[ebp]
  0036d	33 cd		 xor	 ecx, ebp
  0036f	e8 00 00 00 00	 call	 @__security_check_cookie@4
  00374	8b e5		 mov	 esp, ebp
  00376	5d		 pop	 ebp
  00377	c2 10 00	 ret	 16			; 00000010H
?OnTCPNetworkSubCreateTable@CPersonalRoomGame@@IAE_NPAXGKPAUIServerUserItem@@@Z ENDP ; CPersonalRoomGame::OnTCPNetworkSubCreateTable
_TEXT	ENDS
; Function compile flags: /Odtp /ZI
; File g:\网狐\happygamewh\服务端\系统模块\服务器组件\约战服务\personalroomgame.cpp
;	COMDAT ?OnActionUserOnReady@CPersonalRoomGame@@UAE_NGGPAUIServerUserItem@@PAXG@Z
_TEXT	SEGMENT
_this$ = -4						; size = 4
_wTableID$ = 8						; size = 2
_wChairID$ = 12						; size = 2
_pIServerUserItem$ = 16					; size = 4
_pData$ = 20						; size = 4
