; Listing generated by Microsoft (R) Optimizing Compiler Version 19.16.27032.1 

	TITLE	G:\网狐\HappyGameWH\服务端\系统模块\服务器组件\约战服务\TableFrameHook.cpp
	.686P
	.XMM
	include listing.inc
	.model	flat

INCLUDELIB MSVCRTD
INCLUDELIB OLDNAMES

PUBLIC	?m_wPlayerCount@CPersonalTableFrameHook@@1GB	; CPersonalTableFrameHook::m_wPlayerCount
CONST	SEGMENT
?IID_IUnknownEx@@3U_GUID@@B DD 05feec21eH		; IID_IUnknownEx
	DW	0dbf3H
	DW	046f0H
	DB	09fH
	DB	057H
	DB	0d1H
	DB	0cdH
	DB	071H
	DB	01cH
	DB	046H
	DB	0deH
?IID_ITableFrame@@3U_GUID@@B DD 0860cd1cfH		; IID_ITableFrame
	DW	01a4fH
	DW	04e35H
	DB	0b8H
	DB	0cH
	DB	0d2H
	DB	046H
	DB	0a4H
	DB	0efH
	DB	0fdH
	DB	0fbH
?IID_IPersonalRoomServiceManager@@3U_GUID@@B DD 0c59d784bH ; IID_IPersonalRoomServiceManager
	DW	08875H
	DW	041f5H
	DB	0a3H
	DB	0d0H
	DB	023H
	DB	094H
	DB	096H
	DB	0e0H
	DB	028H
	DB	03cH
?IID_IPersonalRoomEventSink@@3U_GUID@@B DD 02650c8a7H	; IID_IPersonalRoomEventSink
	DW	0313dH
	DW	04635H
	DB	0bfH
	DB	027H
	DB	04bH
	DB	03aH
	DB	0d0H
	DB	05eH
	DB	00H
	DB	04H
?IID_IPersonalTableFrameHook@@3U_GUID@@B DD 010ac366eH	; IID_IPersonalTableFrameHook
	DW	09d0cH
	DW	041b6H
	DB	09bH
	DB	02eH
	DB	039H
	DB	09aH
	DB	010H
	DB	013H
	DB	017H
	DB	081H
?m_wPlayerCount@CPersonalTableFrameHook@@1GB DW 0c8H	; CPersonalTableFrameHook::m_wPlayerCount
CONST	ENDS
PUBLIC	?__empty_global_delete@@YAXPAX@Z		; __empty_global_delete
PUBLIC	?__empty_global_delete@@YAXPAXI@Z		; __empty_global_delete
PUBLIC	_IsEqualGUID
PUBLIC	_==
PUBLIC	?AfxAssertFailedLine@@YGHPBDH@Z			; AfxAssertFailedLine
PUBLIC	??0IUnknownEx@@QAE@XZ				; IUnknownEx::IUnknownEx
PUBLIC	?GetProductVer@@YAEK@Z				; GetProductVer
PUBLIC	?GetMainVer@@YAEK@Z				; GetMainVer
PUBLIC	?GetSubVer@@YAEK@Z				; GetSubVer
PUBLIC	?GetBuildVer@@YAEK@Z				; GetBuildVer
PUBLIC	?InterfaceVersionCompare@@YA_NKK@Z		; InterfaceVersionCompare
PUBLIC	??0ITableUserAction@@QAE@XZ			; ITableUserAction::ITableUserAction
PUBLIC	??0IPersonalTableFrameHook@@QAE@XZ		; IPersonalTableFrameHook::IPersonalTableFrameHook
PUBLIC	??0CPersonalTableFrameHook@@QAE@XZ		; CPersonalTableFrameHook::CPersonalTableFrameHook
PUBLIC	??1CPersonalTableFrameHook@@UAE@XZ		; CPersonalTableFrameHook::~CPersonalTableFrameHook
PUBLIC	?Release@CPersonalTableFrameHook@@UAEXXZ	; CPersonalTableFrameHook::Release
PUBLIC	?QueryInterface@CPersonalTableFrameHook@@UAEPAXABU_GUID@@K@Z ; CPersonalTableFrameHook::QueryInterface
PUBLIC	?SetPersonalRoomEventSink@CPersonalTableFrameHook@@UAE_NPAUIUnknownEx@@@Z ; CPersonalTableFrameHook::SetPersonalRoomEventSink
PUBLIC	?InitTableFrameHook@CPersonalTableFrameHook@@UAE_NPAUIUnknownEx@@@Z ; CPersonalTableFrameHook::InitTableFrameHook
PUBLIC	?OnEventGameStart@CPersonalTableFrameHook@@UAE_NG@Z ; CPersonalTableFrameHook::OnEventGameStart
PUBLIC	?PersonalRoomWriteJoinInfo@CPersonalTableFrameHook@@UAEXKGGKKPAD@Z ; CPersonalTableFrameHook::PersonalRoomWriteJoinInfo
PUBLIC	?OnEventGameEnd@CPersonalTableFrameHook@@UAE_NGPAUIServerUserItem@@E@Z ; CPersonalTableFrameHook::OnEventGameEnd
PUBLIC	?OnEventGameEnd@CPersonalTableFrameHook@@UAE_NGGKAAKHPAEU_SYSTEMTIME@@PAUtagPersonalUserScoreInfo@@HE@Z ; CPersonalTableFrameHook::OnEventGameEnd
PUBLIC	?OnEventUserReturnMatch@CPersonalTableFrameHook@@UAE_NPAUIServerUserItem@@@Z ; CPersonalTableFrameHook::OnEventUserReturnMatch
PUBLIC	?OnActionUserOffLine@CPersonalTableFrameHook@@UAE_NGPAUIServerUserItem@@@Z ; CPersonalTableFrameHook::OnActionUserOffLine
PUBLIC	?OnActionUserConnect@CPersonalTableFrameHook@@UAE_NGPAUIServerUserItem@@@Z ; CPersonalTableFrameHook::OnActionUserConnect
PUBLIC	?OnActionUserSitDown@CPersonalTableFrameHook@@UAE_NGPAUIServerUserItem@@_N@Z ; CPersonalTableFrameHook::OnActionUserSitDown
PUBLIC	?OnActionUserStandUp@CPersonalTableFrameHook@@UAE_NGPAUIServerUserItem@@_N@Z ; CPersonalTableFrameHook::OnActionUserStandUp
PUBLIC	?OnActionUserOnReady@CPersonalTableFrameHook@@UAE_NGPAUIServerUserItem@@PAXG@Z ; CPersonalTableFrameHook::OnActionUserOnReady
PUBLIC	?PersonalPayRoomCard@CPersonalTableFrameHook@@UAE_NKGGK@Z ; CPersonalTableFrameHook::PersonalPayRoomCard
PUBLIC	??_GCPersonalTableFrameHook@@UAEPAXI@Z		; CPersonalTableFrameHook::`scalar deleting destructor'
PUBLIC	?Release@CPersonalTableFrameHook@@W3AEXXZ	; [thunk]:CPersonalTableFrameHook::Release`adjustor{4}'
PUBLIC	?QueryInterface@CPersonalTableFrameHook@@W3AEPAXABU_GUID@@K@Z ; [thunk]:CPersonalTableFrameHook::QueryInterface`adjustor{4}'
PUBLIC	??_7IUnknownEx@@6B@				; IUnknownEx::`vftable'
PUBLIC	??_7ITableUserAction@@6B@			; ITableUserAction::`vftable'
PUBLIC	??_7IPersonalTableFrameHook@@6B@		; IPersonalTableFrameHook::`vftable'
PUBLIC	??_7CPersonalTableFrameHook@@6BIPersonalTableFrameHook@@@ ; CPersonalTableFrameHook::`vftable'
PUBLIC	??_7CPersonalTableFrameHook@@6BITableUserAction@@@ ; CPersonalTableFrameHook::`vftable'
PUBLIC	?__LINE__Var@?0??InitTableFrameHook@CPersonalTableFrameHook@@UAE_NPAUIUnknownEx@@@Z@4JA ; `CPersonalTableFrameHook::InitTableFrameHook'::`1'::__LINE__Var
PUBLIC	??_C@_0EL@MAFCNDJI@g?3?2?M?x?$LK?$PM?2happygamewh?2?$LH?$PO?N?q?$LG?K?2?O?$LF?M?$LD@ ; `string'
PUBLIC	??_R4IUnknownEx@@6B@				; IUnknownEx::`RTTI Complete Object Locator'
PUBLIC	??_R0?AUIUnknownEx@@@8				; IUnknownEx `RTTI Type Descriptor'
PUBLIC	??_R3IUnknownEx@@8				; IUnknownEx::`RTTI Class Hierarchy Descriptor'
PUBLIC	??_R2IUnknownEx@@8				; IUnknownEx::`RTTI Base Class Array'
PUBLIC	??_R1A@?0A@EA@IUnknownEx@@8			; IUnknownEx::`RTTI Base Class Descriptor at (0,-1,0,64)'
PUBLIC	??_R4ITableUserAction@@6B@			; ITableUserAction::`RTTI Complete Object Locator'
PUBLIC	??_R0?AUITableUserAction@@@8			; ITableUserAction `RTTI Type Descriptor'
PUBLIC	??_R3ITableUserAction@@8			; ITableUserAction::`RTTI Class Hierarchy Descriptor'
PUBLIC	??_R2ITableUserAction@@8			; ITableUserAction::`RTTI Base Class Array'
PUBLIC	??_R1A@?0A@EA@ITableUserAction@@8		; ITableUserAction::`RTTI Base Class Descriptor at (0,-1,0,64)'
PUBLIC	??_R4IPersonalTableFrameHook@@6B@		; IPersonalTableFrameHook::`RTTI Complete Object Locator'
PUBLIC	??_R0?AUIPersonalTableFrameHook@@@8		; IPersonalTableFrameHook `RTTI Type Descriptor'
PUBLIC	??_R3IPersonalTableFrameHook@@8			; IPersonalTableFrameHook::`RTTI Class Hierarchy Descriptor'
PUBLIC	??_R2IPersonalTableFrameHook@@8			; IPersonalTableFrameHook::`RTTI Base Class Array'
PUBLIC	??_R1A@?0A@EA@IPersonalTableFrameHook@@8	; IPersonalTableFrameHook::`RTTI Base Class Descriptor at (0,-1,0,64)'
PUBLIC	??_R4CPersonalTableFrameHook@@6BIPersonalTableFrameHook@@@ ; CPersonalTableFrameHook::`RTTI Complete Object Locator'
PUBLIC	??_R0?AVCPersonalTableFrameHook@@@8		; CPersonalTableFrameHook `RTTI Type Descriptor'
PUBLIC	??_R3CPersonalTableFrameHook@@8			; CPersonalTableFrameHook::`RTTI Class Hierarchy Descriptor'
PUBLIC	??_R2CPersonalTableFrameHook@@8			; CPersonalTableFrameHook::`RTTI Base Class Array'
PUBLIC	??_R1A@?0A@EA@CPersonalTableFrameHook@@8	; CPersonalTableFrameHook::`RTTI Base Class Descriptor at (0,-1,0,64)'
PUBLIC	??_R1A@?0A@EC@IUnknownEx@@8			; IUnknownEx::`RTTI Base Class Descriptor at (0,-1,0,66)'
PUBLIC	??_R13?0A@EN@ITableUserAction@@8		; ITableUserAction::`RTTI Base Class Descriptor at (4,-1,0,77)'
PUBLIC	??_R13?0A@EL@IUnknownEx@@8			; IUnknownEx::`RTTI Base Class Descriptor at (4,-1,0,75)'
PUBLIC	??_R4CPersonalTableFrameHook@@6BITableUserAction@@@ ; CPersonalTableFrameHook::`RTTI Complete Object Locator'
EXTRN	__purecall:PROC
EXTRN	??3@YAXPAXI@Z:PROC				; operator delete
EXTRN	_memcmp:PROC
EXTRN	__imp__PeekMessageA@20:PROC
EXTRN	__imp__PostQuitMessage@4:PROC
EXTRN	__imp___CrtDbgReport:PROC
EXTRN	??_ECPersonalTableFrameHook@@UAEPAXI@Z:PROC	; CPersonalTableFrameHook::`vector deleting destructor'
EXTRN	??_7type_info@@6B@:QWORD			; type_info::`vftable'
;	COMDAT ??_R4CPersonalTableFrameHook@@6BITableUserAction@@@
rdata$r	SEGMENT
??_R4CPersonalTableFrameHook@@6BITableUserAction@@@ DD 00H ; CPersonalTableFrameHook::`RTTI Complete Object Locator'
	DD	04H
	DD	00H
	DD	FLAT:??_R0?AVCPersonalTableFrameHook@@@8
	DD	FLAT:??_R3CPersonalTableFrameHook@@8
rdata$r	ENDS
;	COMDAT ??_R13?0A@EL@IUnknownEx@@8
rdata$r	SEGMENT
??_R13?0A@EL@IUnknownEx@@8 DD FLAT:??_R0?AUIUnknownEx@@@8 ; IUnknownEx::`RTTI Base Class Descriptor at (4,-1,0,75)'
	DD	00H
	DD	04H
	DD	0ffffffffH
	DD	00H
	DD	04bH
	DD	FLAT:??_R3IUnknownEx@@8
rdata$r	ENDS
;	COMDAT ??_R13?0A@EN@ITableUserAction@@8
rdata$r	SEGMENT
??_R13?0A@EN@ITableUserAction@@8 DD FLAT:??_R0?AUITableUserAction@@@8 ; ITableUserAction::`RTTI Base Class Descriptor at (4,-1,0,77)'
	DD	01H
	DD	04H
	DD	0ffffffffH
	DD	00H
	DD	04dH
	DD	FLAT:??_R3ITableUserAction@@8
rdata$r	ENDS
;	COMDAT ??_R1A@?0A@EC@IUnknownEx@@8
rdata$r	SEGMENT
??_R1A@?0A@EC@IUnknownEx@@8 DD FLAT:??_R0?AUIUnknownEx@@@8 ; IUnknownEx::`RTTI Base Class Descriptor at (0,-1,0,66)'
	DD	00H
	DD	00H
	DD	0ffffffffH
	DD	00H
	DD	042H
	DD	FLAT:??_R3IUnknownEx@@8
rdata$r	ENDS
;	COMDAT ??_R1A@?0A@EA@CPersonalTableFrameHook@@8
rdata$r	SEGMENT
??_R1A@?0A@EA@CPersonalTableFrameHook@@8 DD FLAT:??_R0?AVCPersonalTableFrameHook@@@8 ; CPersonalTableFrameHook::`RTTI Base Class Descriptor at (0,-1,0,64)'
	DD	04H
	DD	00H
	DD	0ffffffffH
	DD	00H
	DD	040H
	DD	FLAT:??_R3CPersonalTableFrameHook@@8
rdata$r	ENDS
;	COMDAT ??_R2CPersonalTableFrameHook@@8
rdata$r	SEGMENT
??_R2CPersonalTableFrameHook@@8 DD FLAT:??_R1A@?0A@EA@CPersonalTableFrameHook@@8 ; CPersonalTableFrameHook::`RTTI Base Class Array'
	DD	FLAT:??_R1A@?0A@EA@IPersonalTableFrameHook@@8
	DD	FLAT:??_R1A@?0A@EC@IUnknownEx@@8
	DD	FLAT:??_R13?0A@EN@ITableUserAction@@8
	DD	FLAT:??_R13?0A@EL@IUnknownEx@@8
rdata$r	ENDS
;	COMDAT ??_R3CPersonalTableFrameHook@@8
rdata$r	SEGMENT
??_R3CPersonalTableFrameHook@@8 DD 00H			; CPersonalTableFrameHook::`RTTI Class Hierarchy Descriptor'
	DD	05H
	DD	05H
	DD	FLAT:??_R2CPersonalTableFrameHook@@8
rdata$r	ENDS
;	COMDAT ??_R0?AVCPersonalTableFrameHook@@@8
data$r	SEGMENT
??_R0?AVCPersonalTableFrameHook@@@8 DD FLAT:??_7type_info@@6B@ ; CPersonalTableFrameHook `RTTI Type Descriptor'
	DD	00H
	DB	'.?AVCPersonalTableFrameHook@@', 00H
data$r	ENDS
;	COMDAT ??_R4CPersonalTableFrameHook@@6BIPersonalTableFrameHook@@@
rdata$r	SEGMENT
??_R4CPersonalTableFrameHook@@6BIPersonalTableFrameHook@@@ DD 00H ; CPersonalTableFrameHook::`RTTI Complete Object Locator'
	DD	00H
	DD	00H
	DD	FLAT:??_R0?AVCPersonalTableFrameHook@@@8
	DD	FLAT:??_R3CPersonalTableFrameHook@@8
rdata$r	ENDS
;	COMDAT ??_R1A@?0A@EA@IPersonalTableFrameHook@@8
rdata$r	SEGMENT
??_R1A@?0A@EA@IPersonalTableFrameHook@@8 DD FLAT:??_R0?AUIPersonalTableFrameHook@@@8 ; IPersonalTableFrameHook::`RTTI Base Class Descriptor at (0,-1,0,64)'
	DD	01H
	DD	00H
	DD	0ffffffffH
	DD	00H
	DD	040H
	DD	FLAT:??_R3IPersonalTableFrameHook@@8
rdata$r	ENDS
;	COMDAT ??_R2IPersonalTableFrameHook@@8
rdata$r	SEGMENT
??_R2IPersonalTableFrameHook@@8 DD FLAT:??_R1A@?0A@EA@IPersonalTableFrameHook@@8 ; IPersonalTableFrameHook::`RTTI Base Class Array'
	DD	FLAT:??_R1A@?0A@EA@IUnknownEx@@8
rdata$r	ENDS
;	COMDAT ??_R3IPersonalTableFrameHook@@8
rdata$r	SEGMENT
??_R3IPersonalTableFrameHook@@8 DD 00H			; IPersonalTableFrameHook::`RTTI Class Hierarchy Descriptor'
	DD	00H
	DD	02H
	DD	FLAT:??_R2IPersonalTableFrameHook@@8
rdata$r	ENDS
;	COMDAT ??_R0?AUIPersonalTableFrameHook@@@8
data$r	SEGMENT
??_R0?AUIPersonalTableFrameHook@@@8 DD FLAT:??_7type_info@@6B@ ; IPersonalTableFrameHook `RTTI Type Descriptor'
	DD	00H
	DB	'.?AUIPersonalTableFrameHook@@', 00H
data$r	ENDS
;	COMDAT ??_R4IPersonalTableFrameHook@@6B@
rdata$r	SEGMENT
??_R4IPersonalTableFrameHook@@6B@ DD 00H		; IPersonalTableFrameHook::`RTTI Complete Object Locator'
	DD	00H
	DD	00H
	DD	FLAT:??_R0?AUIPersonalTableFrameHook@@@8
	DD	FLAT:??_R3IPersonalTableFrameHook@@8
rdata$r	ENDS
;	COMDAT ??_R1A@?0A@EA@ITableUserAction@@8
rdata$r	SEGMENT
??_R1A@?0A@EA@ITableUserAction@@8 DD FLAT:??_R0?AUITableUserAction@@@8 ; ITableUserAction::`RTTI Base Class Descriptor at (0,-1,0,64)'
	DD	01H
	DD	00H
	DD	0ffffffffH
	DD	00H
	DD	040H
	DD	FLAT:??_R3ITableUserAction@@8
rdata$r	ENDS
;	COMDAT ??_R2ITableUserAction@@8
rdata$r	SEGMENT
??_R2ITableUserAction@@8 DD FLAT:??_R1A@?0A@EA@ITableUserAction@@8 ; ITableUserAction::`RTTI Base Class Array'
	DD	FLAT:??_R1A@?0A@EA@IUnknownEx@@8
rdata$r	ENDS
;	COMDAT ??_R3ITableUserAction@@8
rdata$r	SEGMENT
??_R3ITableUserAction@@8 DD 00H				; ITableUserAction::`RTTI Class Hierarchy Descriptor'
	DD	00H
	DD	02H
	DD	FLAT:??_R2ITableUserAction@@8
rdata$r	ENDS
;	COMDAT ??_R0?AUITableUserAction@@@8
data$r	SEGMENT
??_R0?AUITableUserAction@@@8 DD FLAT:??_7type_info@@6B@	; ITableUserAction `RTTI Type Descriptor'
	DD	00H
	DB	'.?AUITableUserAction@@', 00H
data$r	ENDS
;	COMDAT ??_R4ITableUserAction@@6B@
rdata$r	SEGMENT
??_R4ITableUserAction@@6B@ DD 00H			; ITableUserAction::`RTTI Complete Object Locator'
	DD	00H
	DD	00H
	DD	FLAT:??_R0?AUITableUserAction@@@8
	DD	FLAT:??_R3ITableUserAction@@8
rdata$r	ENDS
;	COMDAT ??_R1A@?0A@EA@IUnknownEx@@8
rdata$r	SEGMENT
??_R1A@?0A@EA@IUnknownEx@@8 DD FLAT:??_R0?AUIUnknownEx@@@8 ; IUnknownEx::`RTTI Base Class Descriptor at (0,-1,0,64)'
	DD	00H
	DD	00H
	DD	0ffffffffH
	DD	00H
	DD	040H
	DD	FLAT:??_R3IUnknownEx@@8
rdata$r	ENDS
;	COMDAT ??_R2IUnknownEx@@8
rdata$r	SEGMENT
??_R2IUnknownEx@@8 DD FLAT:??_R1A@?0A@EA@IUnknownEx@@8	; IUnknownEx::`RTTI Base Class Array'
rdata$r	ENDS
;	COMDAT ??_R3IUnknownEx@@8
rdata$r	SEGMENT
??_R3IUnknownEx@@8 DD 00H				; IUnknownEx::`RTTI Class Hierarchy Descriptor'
	DD	00H
	DD	01H
	DD	FLAT:??_R2IUnknownEx@@8
rdata$r	ENDS
;	COMDAT ??_R0?AUIUnknownEx@@@8
data$r	SEGMENT
??_R0?AUIUnknownEx@@@8 DD FLAT:??_7type_info@@6B@	; IUnknownEx `RTTI Type Descriptor'
	DD	00H
	DB	'.?AUIUnknownEx@@', 00H
data$r	ENDS
;	COMDAT ??_R4IUnknownEx@@6B@
rdata$r	SEGMENT
??_R4IUnknownEx@@6B@ DD 00H				; IUnknownEx::`RTTI Complete Object Locator'
	DD	00H
	DD	00H
	DD	FLAT:??_R0?AUIUnknownEx@@@8
	DD	FLAT:??_R3IUnknownEx@@8
rdata$r	ENDS
;	COMDAT ??_C@_0EL@MAFCNDJI@g?3?2?M?x?$LK?$PM?2happygamewh?2?$LH?$PO?N?q?$LG?K?2?O?$LF?M?$LD@
CONST	SEGMENT
??_C@_0EL@MAFCNDJI@g?3?2?M?x?$LK?$PM?2happygamewh?2?$LH?$PO?N?q?$LG?K?2?O?$LF?M?$LD@ DB 'g'
	DB	':\', 0cdH, 0f8H, 0baH, 0fcH, '\happygamewh\', 0b7H, 0feH, 0ceH
	DB	0f1H, 0b6H, 0cbH, '\', 0cfH, 0b5H, 0cdH, 0b3H, 0c4H, 0a3H, 0bfH
	DB	0e9H, '\', 0b7H, 0feH, 0ceH, 0f1H, 0c6H, 0f7H, 0d7H, 0e9H, 0bcH
	DB	0feH, '\', 0d4H, 0bcH, 0d5H, 0bdH, 0b7H, 0feH, 0ceH, 0f1H, '\t'
	DB	'ableframehook.cpp', 00H			; `string'
CONST	ENDS
;	COMDAT ?__LINE__Var@?0??InitTableFrameHook@CPersonalTableFrameHook@@UAE_NPAUIUnknownEx@@@Z@4JA
_DATA	SEGMENT
?__LINE__Var@?0??InitTableFrameHook@CPersonalTableFrameHook@@UAE_NPAUIUnknownEx@@@Z@4JA DD 02fH ; `CPersonalTableFrameHook::InitTableFrameHook'::`1'::__LINE__Var
_DATA	ENDS
;	COMDAT ??_7CPersonalTableFrameHook@@6BITableUserAction@@@
CONST	SEGMENT
??_7CPersonalTableFrameHook@@6BITableUserAction@@@ DD FLAT:??_R4CPersonalTableFrameHook@@6BITableUserAction@@@ ; CPersonalTableFrameHook::`vftable'
	DD	FLAT:?Release@CPersonalTableFrameHook@@W3AEXXZ
	DD	FLAT:?QueryInterface@CPersonalTableFrameHook@@W3AEPAXABU_GUID@@K@Z
	DD	FLAT:?OnActionUserOffLine@CPersonalTableFrameHook@@UAE_NGPAUIServerUserItem@@@Z
	DD	FLAT:?OnActionUserConnect@CPersonalTableFrameHook@@UAE_NGPAUIServerUserItem@@@Z
	DD	FLAT:?OnActionUserSitDown@CPersonalTableFrameHook@@UAE_NGPAUIServerUserItem@@_N@Z
	DD	FLAT:?OnActionUserStandUp@CPersonalTableFrameHook@@UAE_NGPAUIServerUserItem@@_N@Z
	DD	FLAT:?OnActionUserOnReady@CPersonalTableFrameHook@@UAE_NGPAUIServerUserItem@@PAXG@Z
CONST	ENDS
;	COMDAT ??_7CPersonalTableFrameHook@@6BIPersonalTableFrameHook@@@
CONST	SEGMENT
??_7CPersonalTableFrameHook@@6BIPersonalTableFrameHook@@@ DD FLAT:??_R4CPersonalTableFrameHook@@6BIPersonalTableFrameHook@@@ ; CPersonalTableFrameHook::`vftable'
	DD	FLAT:?Release@CPersonalTableFrameHook@@UAEXXZ
	DD	FLAT:?QueryInterface@CPersonalTableFrameHook@@UAEPAXABU_GUID@@K@Z
	DD	FLAT:?SetPersonalRoomEventSink@CPersonalTableFrameHook@@UAE_NPAUIUnknownEx@@@Z
	DD	FLAT:?InitTableFrameHook@CPersonalTableFrameHook@@UAE_NPAUIUnknownEx@@@Z
	DD	FLAT:?OnEventGameStart@CPersonalTableFrameHook@@UAE_NG@Z
	DD	FLAT:?PersonalRoomWriteJoinInfo@CPersonalTableFrameHook@@UAEXKGGKKPAD@Z
	DD	FLAT:?OnEventGameEnd@CPersonalTableFrameHook@@UAE_NGGKAAKHPAEU_SYSTEMTIME@@PAUtagPersonalUserScoreInfo@@HE@Z
	DD	FLAT:?OnEventGameEnd@CPersonalTableFrameHook@@UAE_NGPAUIServerUserItem@@E@Z
	DD	FLAT:?PersonalPayRoomCard@CPersonalTableFrameHook@@UAE_NKGGK@Z
	DD	FLAT:??_ECPersonalTableFrameHook@@UAEPAXI@Z
	DD	FLAT:?OnEventUserReturnMatch@CPersonalTableFrameHook@@UAE_NPAUIServerUserItem@@@Z
CONST	ENDS
;	COMDAT ??_7IPersonalTableFrameHook@@6B@
CONST	SEGMENT
??_7IPersonalTableFrameHook@@6B@ DD FLAT:??_R4IPersonalTableFrameHook@@6B@ ; IPersonalTableFrameHook::`vftable'
	DD	FLAT:__purecall
	DD	FLAT:__purecall
	DD	FLAT:__purecall
	DD	FLAT:__purecall
	DD	FLAT:__purecall
	DD	FLAT:__purecall
	DD	FLAT:__purecall
	DD	FLAT:__purecall
	DD	FLAT:__purecall
CONST	ENDS
;	COMDAT ??_7ITableUserAction@@6B@
CONST	SEGMENT
??_7ITableUserAction@@6B@ DD FLAT:??_R4ITableUserAction@@6B@ ; ITableUserAction::`vftable'
	DD	FLAT:__purecall
	DD	FLAT:__purecall
	DD	FLAT:__purecall
	DD	FLAT:__purecall
	DD	FLAT:__purecall
	DD	FLAT:__purecall
	DD	FLAT:__purecall
CONST	ENDS
;	COMDAT ??_7IUnknownEx@@6B@
CONST	SEGMENT
??_7IUnknownEx@@6B@ DD FLAT:??_R4IUnknownEx@@6B@	; IUnknownEx::`vftable'
	DD	FLAT:__purecall
	DD	FLAT:__purecall
CONST	ENDS
; Function compile flags: /Odsp /ZI
;	COMDAT ?QueryInterface@CPersonalTableFrameHook@@W3AEPAXABU_GUID@@K@Z
_TEXT	SEGMENT
?QueryInterface@CPersonalTableFrameHook@@W3AEPAXABU_GUID@@K@Z PROC ; [thunk]:CPersonalTableFrameHook::QueryInterface`adjustor{4}', COMDAT
  00000	83 e9 04	 sub	 ecx, 4
  00003	e9 00 00 00 00	 jmp	 ?QueryInterface@CPersonalTableFrameHook@@UAEPAXABU_GUID@@K@Z ; CPersonalTableFrameHook::QueryInterface
?QueryInterface@CPersonalTableFrameHook@@W3AEPAXABU_GUID@@K@Z ENDP ; [thunk]:CPersonalTableFrameHook::QueryInterface`adjustor{4}'
_TEXT	ENDS
; Function compile flags: /Odsp /ZI
;	COMDAT ?Release@CPersonalTableFrameHook@@W3AEXXZ
_TEXT	SEGMENT
?Release@CPersonalTableFrameHook@@W3AEXXZ PROC		; [thunk]:CPersonalTableFrameHook::Release`adjustor{4}', COMDAT
  00000	83 e9 04	 sub	 ecx, 4
  00003	e9 00 00 00 00	 jmp	 ?Release@CPersonalTableFrameHook@@UAEXXZ ; CPersonalTableFrameHook::Release
?Release@CPersonalTableFrameHook@@W3AEXXZ ENDP		; [thunk]:CPersonalTableFrameHook::Release`adjustor{4}'
_TEXT	ENDS
; Function compile flags: /Odtp /ZI
;	COMDAT ??_GCPersonalTableFrameHook@@UAEPAXI@Z
_TEXT	SEGMENT
_this$ = -4						; size = 4
___flags$ = 8						; size = 4
??_GCPersonalTableFrameHook@@UAEPAXI@Z PROC		; CPersonalTableFrameHook::`scalar deleting destructor', COMDAT
; _this$ = ecx
  00000	55		 push	 ebp
  00001	8b ec		 mov	 ebp, esp
  00003	83 ec 44	 sub	 esp, 68			; 00000044H
  00006	53		 push	 ebx
  00007	56		 push	 esi
  00008	57		 push	 edi
  00009	89 4d fc	 mov	 DWORD PTR _this$[ebp], ecx
  0000c	8b 4d fc	 mov	 ecx, DWORD PTR _this$[ebp]
  0000f	e8 00 00 00 00	 call	 ??1CPersonalTableFrameHook@@UAE@XZ ; CPersonalTableFrameHook::~CPersonalTableFrameHook
  00014	8b 45 08	 mov	 eax, DWORD PTR ___flags$[ebp]
  00017	83 e0 01	 and	 eax, 1
  0001a	74 0e		 je	 SHORT $LN2@scalar
  0001c	6a 14		 push	 20			; 00000014H
  0001e	8b 45 fc	 mov	 eax, DWORD PTR _this$[ebp]
  00021	50		 push	 eax
  00022	e8 00 00 00 00	 call	 ??3@YAXPAXI@Z		; operator delete
  00027	83 c4 08	 add	 esp, 8
$LN2@scalar:
  0002a	8b 45 fc	 mov	 eax, DWORD PTR _this$[ebp]
  0002d	5f		 pop	 edi
  0002e	5e		 pop	 esi
  0002f	5b		 pop	 ebx
  00030	8b e5		 mov	 esp, ebp
  00032	5d		 pop	 ebp
  00033	c2 04 00	 ret	 4
??_GCPersonalTableFrameHook@@UAEPAXI@Z ENDP		; CPersonalTableFrameHook::`scalar deleting destructor'
_TEXT	ENDS
; Function compile flags: /Odtp /ZI
; File g:\网狐\happygamewh\服务端\系统模块\服务器组件\约战服务\tableframehook.cpp
;	COMDAT ?PersonalPayRoomCard@CPersonalTableFrameHook@@UAE_NKGGK@Z
_TEXT	SEGMENT
_this$ = -4						; size = 4
_dwUserID$ = 8						; size = 4
_wTableID$ = 12						; size = 2
_wChairCount$ = 16					; size = 2
_dwPersonalRoomID$ = 20					; size = 4
?PersonalPayRoomCard@CPersonalTableFrameHook@@UAE_NKGGK@Z PROC ; CPersonalTableFrameHook::PersonalPayRoomCard, COMDAT
; _this$ = ecx

; 82   : {

  00000	55		 push	 ebp
  00001	8b ec		 mov	 ebp, esp
  00003	83 ec 44	 sub	 esp, 68			; 00000044H
  00006	53		 push	 ebx
  00007	56		 push	 esi
  00008	57		 push	 edi
  00009	89 4d fc	 mov	 DWORD PTR _this$[ebp], ecx

; 83   : 	if(m_pPersonalRoomEventSink!=NULL)

  0000c	8b 45 fc	 mov	 eax, DWORD PTR _this$[ebp]
  0000f	83 78 0c 00	 cmp	 DWORD PTR [eax+12], 0
  00013	74 27		 je	 SHORT $LN2@PersonalPa

; 84   : 	{
; 85   : 		return m_pPersonalRoomEventSink->PersonalPayRoomCard(dwUserID, wTableID, wChairCount, dwPersonalRoomID);

  00015	8b 45 14	 mov	 eax, DWORD PTR _dwPersonalRoomID$[ebp]
  00018	50		 push	 eax
  00019	0f b7 4d 10	 movzx	 ecx, WORD PTR _wChairCount$[ebp]
  0001d	51		 push	 ecx
  0001e	0f b7 55 0c	 movzx	 edx, WORD PTR _wTableID$[ebp]
  00022	52		 push	 edx
  00023	8b 45 08	 mov	 eax, DWORD PTR _dwUserID$[ebp]
  00026	50		 push	 eax
  00027	8b 4d fc	 mov	 ecx, DWORD PTR _this$[ebp]
  0002a	8b 51 0c	 mov	 edx, DWORD PTR [ecx+12]
  0002d	8b 45 fc	 mov	 eax, DWORD PTR _this$[ebp]
  00030	8b 12		 mov	 edx, DWORD PTR [edx]
  00032	8b 48 0c	 mov	 ecx, DWORD PTR [eax+12]
  00035	8b 42 10	 mov	 eax, DWORD PTR [edx+16]
  00038	ff d0		 call	 eax
  0003a	eb 02		 jmp	 SHORT $LN1@PersonalPa
$LN2@PersonalPa:

; 86   : 	}
; 87   : 	return false;

  0003c	32 c0		 xor	 al, al
$LN1@PersonalPa:

; 88   : }

  0003e	5f		 pop	 edi
  0003f	5e		 pop	 esi
  00040	5b		 pop	 ebx
  00041	8b e5		 mov	 esp, ebp
  00043	5d		 pop	 ebp
  00044	c2 10 00	 ret	 16			; 00000010H
?PersonalPayRoomCard@CPersonalTableFrameHook@@UAE_NKGGK@Z ENDP ; CPersonalTableFrameHook::PersonalPayRoomCard
_TEXT	ENDS
; Function compile flags: /Odtp /ZI
; File g:\网狐\happygamewh\服务端\系统模块\服务器组件\约战服务\tableframehook.cpp
;	COMDAT ?OnActionUserOnReady@CPersonalTableFrameHook@@UAE_NGPAUIServerUserItem@@PAXG@Z
_TEXT	SEGMENT
_this$ = -4						; size = 4
_wChairID$ = 8						; size = 2
_pIServerUserItem$ = 12					; size = 4
_pData$ = 16						; size = 4
_wDataSize$ = 20					; size = 2
?OnActionUserOnReady@CPersonalTableFrameHook@@UAE_NGPAUIServerUserItem@@PAXG@Z PROC ; CPersonalTableFrameHook::OnActionUserOnReady, COMDAT
; _this$ = ecx

; 147  : {

  00000	55		 push	 ebp
  00001	8b ec		 mov	 ebp, esp
  00003	83 ec 44	 sub	 esp, 68			; 00000044H
  00006	53		 push	 ebx
  00007	56		 push	 esi
  00008	57		 push	 edi
  00009	89 4d fc	 mov	 DWORD PTR _this$[ebp], ecx

; 148  : 	if(m_pPersonalRoomEventSink!=NULL)

  0000c	8b 45 fc	 mov	 eax, DWORD PTR _this$[ebp]
  0000f	83 78 08 00	 cmp	 DWORD PTR [eax+8], 0
  00013	74 38		 je	 SHORT $LN2@OnActionUs

; 149  : 	{
; 150  : 		return m_pPersonalRoomEventSink->OnActionUserOnReady(pIServerUserItem->GetTableID(), wChairID, pIServerUserItem ,pData ,wDataSize);

  00015	0f b7 45 14	 movzx	 eax, WORD PTR _wDataSize$[ebp]
  00019	50		 push	 eax
  0001a	8b 4d 10	 mov	 ecx, DWORD PTR _pData$[ebp]
  0001d	51		 push	 ecx
  0001e	8b 55 0c	 mov	 edx, DWORD PTR _pIServerUserItem$[ebp]
  00021	52		 push	 edx
  00022	0f b7 45 08	 movzx	 eax, WORD PTR _wChairID$[ebp]
  00026	50		 push	 eax
  00027	8b 4d 0c	 mov	 ecx, DWORD PTR _pIServerUserItem$[ebp]
  0002a	8b 11		 mov	 edx, DWORD PTR [ecx]
  0002c	8b 4d 0c	 mov	 ecx, DWORD PTR _pIServerUserItem$[ebp]
  0002f	8b 42 68	 mov	 eax, DWORD PTR [edx+104]
  00032	ff d0		 call	 eax
  00034	0f b7 c8	 movzx	 ecx, ax
  00037	51		 push	 ecx
  00038	8b 55 fc	 mov	 edx, DWORD PTR _this$[ebp]
  0003b	8b 42 08	 mov	 eax, DWORD PTR [edx+8]
  0003e	8b 4d fc	 mov	 ecx, DWORD PTR _this$[ebp]
  00041	8b 10		 mov	 edx, DWORD PTR [eax]
  00043	8b 49 08	 mov	 ecx, DWORD PTR [ecx+8]
  00046	8b 42 28	 mov	 eax, DWORD PTR [edx+40]
  00049	ff d0		 call	 eax
  0004b	eb 02		 jmp	 SHORT $LN1@OnActionUs
$LN2@OnActionUs:

; 151  : 	}
; 152  : 
; 153  : 	return false;

  0004d	32 c0		 xor	 al, al
$LN1@OnActionUs:

; 154  : }

  0004f	5f		 pop	 edi
  00050	5e		 pop	 esi
  00051	5b		 pop	 ebx
  00052	8b e5		 mov	 esp, ebp
  00054	5d		 pop	 ebp
  00055	c2 10 00	 ret	 16			; 00000010H
?OnActionUserOnReady@CPersonalTableFrameHook@@UAE_NGPAUIServerUserItem@@PAXG@Z ENDP ; CPersonalTableFrameHook::OnActionUserOnReady
_TEXT	ENDS
; Function compile flags: /Odtp /ZI
; File g:\网狐\happygamewh\服务端\系统模块\服务器组件\约战服务\tableframehook.cpp
;	COMDAT ?OnActionUserStandUp@CPersonalTableFrameHook@@UAE_NGPAUIServerUserItem@@_N@Z
_TEXT	SEGMENT
_this$ = -4						; size = 4
_wChairID$ = 8						; size = 2
_pIServerUserItem$ = 12					; size = 4
_bLookonUser$ = 16					; size = 1
?OnActionUserStandUp@CPersonalTableFrameHook@@UAE_NGPAUIServerUserItem@@_N@Z PROC ; CPersonalTableFrameHook::OnActionUserStandUp, COMDAT
; _this$ = ecx

; 136  : {

  00000	55		 push	 ebp
  00001	8b ec		 mov	 ebp, esp
  00003	83 ec 44	 sub	 esp, 68			; 00000044H
  00006	53		 push	 ebx
  00007	56		 push	 esi
  00008	57		 push	 edi
  00009	89 4d fc	 mov	 DWORD PTR _this$[ebp], ecx

; 137  : 	if(m_pPersonalRoomEventSink!=NULL) 

  0000c	8b 45 fc	 mov	 eax, DWORD PTR _this$[ebp]
  0000f	83 78 08 00	 cmp	 DWORD PTR [eax+8], 0
  00013	74 34		 je	 SHORT $LN2@OnActionUs

; 138  : 	{
; 139  : 		return m_pPersonalRoomEventSink->OnActionUserStandUp(pIServerUserItem->GetTableID(), wChairID, pIServerUserItem, bLookonUser);

  00015	0f b6 45 10	 movzx	 eax, BYTE PTR _bLookonUser$[ebp]
  00019	50		 push	 eax
  0001a	8b 4d 0c	 mov	 ecx, DWORD PTR _pIServerUserItem$[ebp]
  0001d	51		 push	 ecx
  0001e	0f b7 55 08	 movzx	 edx, WORD PTR _wChairID$[ebp]
  00022	52		 push	 edx
  00023	8b 45 0c	 mov	 eax, DWORD PTR _pIServerUserItem$[ebp]
  00026	8b 10		 mov	 edx, DWORD PTR [eax]
  00028	8b 4d 0c	 mov	 ecx, DWORD PTR _pIServerUserItem$[ebp]
  0002b	8b 42 68	 mov	 eax, DWORD PTR [edx+104]
  0002e	ff d0		 call	 eax
  00030	0f b7 c8	 movzx	 ecx, ax
  00033	51		 push	 ecx
  00034	8b 55 fc	 mov	 edx, DWORD PTR _this$[ebp]
  00037	8b 42 08	 mov	 eax, DWORD PTR [edx+8]
  0003a	8b 4d fc	 mov	 ecx, DWORD PTR _this$[ebp]
  0003d	8b 10		 mov	 edx, DWORD PTR [eax]
  0003f	8b 49 08	 mov	 ecx, DWORD PTR [ecx+8]
  00042	8b 42 24	 mov	 eax, DWORD PTR [edx+36]
  00045	ff d0		 call	 eax
  00047	eb 02		 jmp	 SHORT $LN1@OnActionUs
$LN2@OnActionUs:

; 140  : 	}
; 141  : 
; 142  : 	return false;

  00049	32 c0		 xor	 al, al
$LN1@OnActionUs:

; 143  : }

  0004b	5f		 pop	 edi
  0004c	5e		 pop	 esi
  0004d	5b		 pop	 ebx
  0004e	8b e5		 mov	 esp, ebp
  00050	5d		 pop	 ebp
  00051	c2 0c 00	 ret	 12			; 0000000cH
?OnActionUserStandUp@CPersonalTableFrameHook@@UAE_NGPAUIServerUserItem@@_N@Z ENDP ; CPersonalTableFrameHook::OnActionUserStandUp
_TEXT	ENDS
; Function compile flags: /Odtp /ZI
; File g:\网狐\happygamewh\服务端\系统模块\服务器组件\约战服务\tableframehook.cpp
;	COMDAT ?OnActionUserSitDown@CPersonalTableFrameHook@@UAE_NGPAUIServerUserItem@@_N@Z
_TEXT	SEGMENT
_this$ = -4						; size = 4
_wChairID$ = 8						; size = 2
_pIServerUserItem$ = 12					; size = 4
_bLookonUser$ = 16					; size = 1
?OnActionUserSitDown@CPersonalTableFrameHook@@UAE_NGPAUIServerUserItem@@_N@Z PROC ; CPersonalTableFrameHook::OnActionUserSitDown, COMDAT
; _this$ = ecx

; 125  : {

  00000	55		 push	 ebp
  00001	8b ec		 mov	 ebp, esp
  00003	83 ec 44	 sub	 esp, 68			; 00000044H
  00006	53		 push	 ebx
  00007	56		 push	 esi
  00008	57		 push	 edi
  00009	89 4d fc	 mov	 DWORD PTR _this$[ebp], ecx

; 126  : 	if(m_pPersonalRoomEventSink!=NULL)  

  0000c	8b 45 fc	 mov	 eax, DWORD PTR _this$[ebp]
  0000f	83 78 08 00	 cmp	 DWORD PTR [eax+8], 0
  00013	74 34		 je	 SHORT $LN2@OnActionUs

; 127  : 	{
; 128  : 		return m_pPersonalRoomEventSink->OnActionUserSitDown(pIServerUserItem->GetTableID(), wChairID, pIServerUserItem, bLookonUser);

  00015	0f b6 45 10	 movzx	 eax, BYTE PTR _bLookonUser$[ebp]
  00019	50		 push	 eax
  0001a	8b 4d 0c	 mov	 ecx, DWORD PTR _pIServerUserItem$[ebp]
  0001d	51		 push	 ecx
  0001e	0f b7 55 08	 movzx	 edx, WORD PTR _wChairID$[ebp]
  00022	52		 push	 edx
  00023	8b 45 0c	 mov	 eax, DWORD PTR _pIServerUserItem$[ebp]
  00026	8b 10		 mov	 edx, DWORD PTR [eax]
  00028	8b 4d 0c	 mov	 ecx, DWORD PTR _pIServerUserItem$[ebp]
  0002b	8b 42 68	 mov	 eax, DWORD PTR [edx+104]
  0002e	ff d0		 call	 eax
  00030	0f b7 c8	 movzx	 ecx, ax
  00033	51		 push	 ecx
  00034	8b 55 fc	 mov	 edx, DWORD PTR _this$[ebp]
  00037	8b 42 08	 mov	 eax, DWORD PTR [edx+8]
  0003a	8b 4d fc	 mov	 ecx, DWORD PTR _this$[ebp]
  0003d	8b 10		 mov	 edx, DWORD PTR [eax]
  0003f	8b 49 08	 mov	 ecx, DWORD PTR [ecx+8]
  00042	8b 42 20	 mov	 eax, DWORD PTR [edx+32]
  00045	ff d0		 call	 eax
  00047	eb 02		 jmp	 SHORT $LN1@OnActionUs
$LN2@OnActionUs:

; 129  : 	}
; 130  : 
; 131  : 	return false;

  00049	32 c0		 xor	 al, al
$LN1@OnActionUs:

; 132  : }

  0004b	5f		 pop	 edi
  0004c	5e		 pop	 esi
  0004d	5b		 pop	 ebx
  0004e	8b e5		 mov	 esp, ebp
  00050	5d		 pop	 ebp
  00051	c2 0c 00	 ret	 12			; 0000000cH
?OnActionUserSitDown@CPersonalTableFrameHook@@UAE_NGPAUIServerUserItem@@_N@Z ENDP ; CPersonalTableFrameHook::OnActionUserSitDown
_TEXT	ENDS
; Function compile flags: /Odtp /ZI
; File g:\网狐\happygamewh\服务端\系统模块\服务器组件\约战服务\tableframehook.h
;	COMDAT ?OnActionUserConnect@CPersonalTableFrameHook@@UAE_NGPAUIServerUserItem@@@Z
_TEXT	SEGMENT
_this$ = -4						; size = 4
_wChairID$ = 8						; size = 2
_pIServerUserItem$ = 12					; size = 4
?OnActionUserConnect@CPersonalTableFrameHook@@UAE_NGPAUIServerUserItem@@@Z PROC ; CPersonalTableFrameHook::OnActionUserConnect, COMDAT
; _this$ = ecx

; 75   : 	virtual bool OnActionUserConnect(WORD wChairID, IServerUserItem * pIServerUserItem) { return true; }

  00000	55		 push	 ebp
  00001	8b ec		 mov	 ebp, esp
  00003	83 ec 44	 sub	 esp, 68			; 00000044H
  00006	53		 push	 ebx
  00007	56		 push	 esi
  00008	57		 push	 edi
  00009	89 4d fc	 mov	 DWORD PTR _this$[ebp], ecx
  0000c	b0 01		 mov	 al, 1
  0000e	5f		 pop	 edi
  0000f	5e		 pop	 esi
  00010	5b		 pop	 ebx
  00011	8b e5		 mov	 esp, ebp
  00013	5d		 pop	 ebp
  00014	c2 08 00	 ret	 8
?OnActionUserConnect@CPersonalTableFrameHook@@UAE_NGPAUIServerUserItem@@@Z ENDP ; CPersonalTableFrameHook::OnActionUserConnect
_TEXT	ENDS
; Function compile flags: /Odtp /ZI
; File g:\网狐\happygamewh\服务端\系统模块\服务器组件\约战服务\tableframehook.h
;	COMDAT ?OnActionUserOffLine@CPersonalTableFrameHook@@UAE_NGPAUIServerUserItem@@@Z
_TEXT	SEGMENT
_this$ = -4						; size = 4
_wChairID$ = 8						; size = 2
_pIServerUserItem$ = 12					; size = 4
?OnActionUserOffLine@CPersonalTableFrameHook@@UAE_NGPAUIServerUserItem@@@Z PROC ; CPersonalTableFrameHook::OnActionUserOffLine, COMDAT
; _this$ = ecx

; 73   : 	virtual bool OnActionUserOffLine(WORD wChairID, IServerUserItem * pIServerUserItem) { return true; }

  00000	55		 push	 ebp
  00001	8b ec		 mov	 ebp, esp
  00003	83 ec 44	 sub	 esp, 68			; 00000044H
  00006	53		 push	 ebx
  00007	56		 push	 esi
  00008	57		 push	 edi
  00009	89 4d fc	 mov	 DWORD PTR _this$[ebp], ecx
  0000c	b0 01		 mov	 al, 1
  0000e	5f		 pop	 edi
  0000f	5e		 pop	 esi
  00010	5b		 pop	 ebx
  00011	8b e5		 mov	 esp, ebp
  00013	5d		 pop	 ebp
  00014	c2 08 00	 ret	 8
?OnActionUserOffLine@CPersonalTableFrameHook@@UAE_NGPAUIServerUserItem@@@Z ENDP ; CPersonalTableFrameHook::OnActionUserOffLine
_TEXT	ENDS
; Function compile flags: /Odtp /ZI
; File g:\网狐\happygamewh\服务端\系统模块\服务器组件\约战服务\tableframehook.cpp
;	COMDAT ?OnEventUserReturnMatch@CPersonalTableFrameHook@@UAE_NPAUIServerUserItem@@@Z
_TEXT	SEGMENT
_this$ = -4						; size = 4
_pIServerUserItem$ = 8					; size = 4
?OnEventUserReturnMatch@CPersonalTableFrameHook@@UAE_NPAUIServerUserItem@@@Z PROC ; CPersonalTableFrameHook::OnEventUserReturnMatch, COMDAT
; _this$ = ecx

; 114  : {

  00000	55		 push	 ebp
  00001	8b ec		 mov	 ebp, esp
  00003	83 ec 44	 sub	 esp, 68			; 00000044H
  00006	53		 push	 ebx
  00007	56		 push	 esi
  00008	57		 push	 edi
  00009	89 4d fc	 mov	 DWORD PTR _this$[ebp], ecx

; 115  : 	if(m_pPersonalRoomEventSink!=NULL)

  0000c	8b 45 fc	 mov	 eax, DWORD PTR _this$[ebp]
  0000f	83 78 0c 00	 cmp	 DWORD PTR [eax+12], 0
  00013	74 20		 je	 SHORT $LN2@OnEventUse

; 116  : 	{
; 117  : 		return m_pPersonalRoomEventSink->OnEventUserReturnMatch(m_pITableFrame,pIServerUserItem);

  00015	8b 45 08	 mov	 eax, DWORD PTR _pIServerUserItem$[ebp]
  00018	50		 push	 eax
  00019	8b 4d fc	 mov	 ecx, DWORD PTR _this$[ebp]
  0001c	8b 51 08	 mov	 edx, DWORD PTR [ecx+8]
  0001f	52		 push	 edx
  00020	8b 45 fc	 mov	 eax, DWORD PTR _this$[ebp]
  00023	8b 48 0c	 mov	 ecx, DWORD PTR [eax+12]
  00026	8b 55 fc	 mov	 edx, DWORD PTR _this$[ebp]
  00029	8b 01		 mov	 eax, DWORD PTR [ecx]
  0002b	8b 4a 0c	 mov	 ecx, DWORD PTR [edx+12]
  0002e	8b 50 1c	 mov	 edx, DWORD PTR [eax+28]
  00031	ff d2		 call	 edx
  00033	eb 02		 jmp	 SHORT $LN1@OnEventUse
$LN2@OnEventUse:

; 118  : 	}
; 119  : 
; 120  : 	return false;

  00035	32 c0		 xor	 al, al
$LN1@OnEventUse:

; 121  : }

  00037	5f		 pop	 edi
  00038	5e		 pop	 esi
  00039	5b		 pop	 ebx
  0003a	8b e5		 mov	 esp, ebp
  0003c	5d		 pop	 ebp
  0003d	c2 04 00	 ret	 4
?OnEventUserReturnMatch@CPersonalTableFrameHook@@UAE_NPAUIServerUserItem@@@Z ENDP ; CPersonalTableFrameHook::OnEventUserReturnMatch
_TEXT	ENDS
; Function compile flags: /Odtp /ZI
; File g:\网狐\happygamewh\服务端\系统模块\服务器组件\约战服务\tableframehook.cpp
;	COMDAT ?OnEventGameEnd@CPersonalTableFrameHook@@UAE_NGGKAAKHPAEU_SYSTEMTIME@@PAUtagPersonalUserScoreInfo@@HE@Z
_TEXT	SEGMENT
_this$ = -4						; size = 4
_wTableID$ = 8						; size = 2
_wChairCount$ = 12					; size = 2
_dwDrawCountLimit$ = 16					; size = 4
_dwPersonalPlayCount$ = 20				; size = 4
_nSpecialInfoLen$ = 24					; size = 4
_cbSpecialInfo$ = 28					; size = 4
_sysStartTime$ = 32					; size = 16
_PersonalUserScoreInfo$ = 48				; size = 4
_bPersonalLoop$ = 52					; size = 4
_cbGameMode$ = 56					; size = 1
?OnEventGameEnd@CPersonalTableFrameHook@@UAE_NGGKAAKHPAEU_SYSTEMTIME@@PAUtagPersonalUserScoreInfo@@HE@Z PROC ; CPersonalTableFrameHook::OnEventGameEnd, COMDAT
; _this$ = ecx

; 103  : {

  00000	55		 push	 ebp
  00001	8b ec		 mov	 ebp, esp
  00003	83 ec 44	 sub	 esp, 68			; 00000044H
  00006	53		 push	 ebx
  00007	56		 push	 esi
  00008	57		 push	 edi
  00009	89 4d fc	 mov	 DWORD PTR _this$[ebp], ecx

; 104  : 	if(m_pPersonalRoomEventSink!=NULL)

  0000c	8b 45 fc	 mov	 eax, DWORD PTR _this$[ebp]
  0000f	83 78 0c 00	 cmp	 DWORD PTR [eax+12], 0
  00013	74 58		 je	 SHORT $LN2@OnEventGam

; 105  : 	{
; 106  : 		return m_pPersonalRoomEventSink->OnEventGameEnd(wTableID, wChairCount, dwDrawCountLimit, dwPersonalPlayCount, nSpecialInfoLen, cbSpecialInfo, sysStartTime, PersonalUserScoreInfo, bPersonalLoop,cbGameMode);

  00015	0f b6 45 38	 movzx	 eax, BYTE PTR _cbGameMode$[ebp]
  00019	50		 push	 eax
  0001a	8b 4d 34	 mov	 ecx, DWORD PTR _bPersonalLoop$[ebp]
  0001d	51		 push	 ecx
  0001e	8b 55 30	 mov	 edx, DWORD PTR _PersonalUserScoreInfo$[ebp]
  00021	52		 push	 edx
  00022	83 ec 10	 sub	 esp, 16			; 00000010H
  00025	8b c4		 mov	 eax, esp
  00027	8b 4d 20	 mov	 ecx, DWORD PTR _sysStartTime$[ebp]
  0002a	89 08		 mov	 DWORD PTR [eax], ecx
  0002c	8b 55 24	 mov	 edx, DWORD PTR _sysStartTime$[ebp+4]
  0002f	89 50 04	 mov	 DWORD PTR [eax+4], edx
  00032	8b 4d 28	 mov	 ecx, DWORD PTR _sysStartTime$[ebp+8]
  00035	89 48 08	 mov	 DWORD PTR [eax+8], ecx
  00038	8b 55 2c	 mov	 edx, DWORD PTR _sysStartTime$[ebp+12]
  0003b	89 50 0c	 mov	 DWORD PTR [eax+12], edx
  0003e	8b 45 1c	 mov	 eax, DWORD PTR _cbSpecialInfo$[ebp]
  00041	50		 push	 eax
  00042	8b 4d 18	 mov	 ecx, DWORD PTR _nSpecialInfoLen$[ebp]
  00045	51		 push	 ecx
  00046	8b 55 14	 mov	 edx, DWORD PTR _dwPersonalPlayCount$[ebp]
  00049	52		 push	 edx
  0004a	8b 45 10	 mov	 eax, DWORD PTR _dwDrawCountLimit$[ebp]
  0004d	50		 push	 eax
  0004e	0f b7 4d 0c	 movzx	 ecx, WORD PTR _wChairCount$[ebp]
  00052	51		 push	 ecx
  00053	0f b7 55 08	 movzx	 edx, WORD PTR _wTableID$[ebp]
  00057	52		 push	 edx
  00058	8b 45 fc	 mov	 eax, DWORD PTR _this$[ebp]
  0005b	8b 48 0c	 mov	 ecx, DWORD PTR [eax+12]
  0005e	8b 55 fc	 mov	 edx, DWORD PTR _this$[ebp]
  00061	8b 01		 mov	 eax, DWORD PTR [ecx]
  00063	8b 4a 0c	 mov	 ecx, DWORD PTR [edx+12]
  00066	8b 50 14	 mov	 edx, DWORD PTR [eax+20]
  00069	ff d2		 call	 edx
  0006b	eb 02		 jmp	 SHORT $LN1@OnEventGam
$LN2@OnEventGam:

; 107  : 	}
; 108  : 
; 109  : 	return false;

  0006d	32 c0		 xor	 al, al
$LN1@OnEventGam:

; 110  : }

  0006f	5f		 pop	 edi
  00070	5e		 pop	 esi
  00071	5b		 pop	 ebx
  00072	8b e5		 mov	 esp, ebp
  00074	5d		 pop	 ebp
  00075	c2 34 00	 ret	 52			; 00000034H
?OnEventGameEnd@CPersonalTableFrameHook@@UAE_NGGKAAKHPAEU_SYSTEMTIME@@PAUtagPersonalUserScoreInfo@@HE@Z ENDP ; CPersonalTableFrameHook::OnEventGameEnd
_TEXT	ENDS
; Function compile flags: /Odtp /ZI
; File g:\网狐\happygamewh\服务端\系统模块\服务器组件\约战服务\tableframehook.cpp
;	COMDAT ?OnEventGameEnd@CPersonalTableFrameHook@@UAE_NGPAUIServerUserItem@@E@Z
_TEXT	SEGMENT
_this$ = -4						; size = 4
_wChairID$ = 8						; size = 2
_pIServerUserItem$ = 12					; size = 4
_cbReason$ = 16						; size = 1
?OnEventGameEnd@CPersonalTableFrameHook@@UAE_NGPAUIServerUserItem@@E@Z PROC ; CPersonalTableFrameHook::OnEventGameEnd, COMDAT
; _this$ = ecx

; 92   : {

  00000	55		 push	 ebp
  00001	8b ec		 mov	 ebp, esp
  00003	83 ec 44	 sub	 esp, 68			; 00000044H
  00006	53		 push	 ebx
  00007	56		 push	 esi
  00008	57		 push	 edi
  00009	89 4d fc	 mov	 DWORD PTR _this$[ebp], ecx

; 93   : 	if(m_pPersonalRoomEventSink!=NULL)

  0000c	8b 45 fc	 mov	 eax, DWORD PTR _this$[ebp]
  0000f	83 78 0c 00	 cmp	 DWORD PTR [eax+12], 0
  00013	74 2a		 je	 SHORT $LN2@OnEventGam

; 94   : 	{
; 95   : 		return m_pPersonalRoomEventSink->OnEventGameEnd(m_pITableFrame,wChairID,pIServerUserItem,cbReason);

  00015	0f b6 45 10	 movzx	 eax, BYTE PTR _cbReason$[ebp]
  00019	50		 push	 eax
  0001a	8b 4d 0c	 mov	 ecx, DWORD PTR _pIServerUserItem$[ebp]
  0001d	51		 push	 ecx
  0001e	0f b7 55 08	 movzx	 edx, WORD PTR _wChairID$[ebp]
  00022	52		 push	 edx
  00023	8b 45 fc	 mov	 eax, DWORD PTR _this$[ebp]
  00026	8b 48 08	 mov	 ecx, DWORD PTR [eax+8]
  00029	51		 push	 ecx
  0002a	8b 55 fc	 mov	 edx, DWORD PTR _this$[ebp]
  0002d	8b 42 0c	 mov	 eax, DWORD PTR [edx+12]
  00030	8b 4d fc	 mov	 ecx, DWORD PTR _this$[ebp]
  00033	8b 10		 mov	 edx, DWORD PTR [eax]
  00035	8b 49 0c	 mov	 ecx, DWORD PTR [ecx+12]
  00038	8b 42 18	 mov	 eax, DWORD PTR [edx+24]
  0003b	ff d0		 call	 eax
  0003d	eb 02		 jmp	 SHORT $LN1@OnEventGam
$LN2@OnEventGam:

; 96   : 	}
; 97   : 	
; 98   : 	return false;

  0003f	32 c0		 xor	 al, al
$LN1@OnEventGam:

; 99   : }

  00041	5f		 pop	 edi
  00042	5e		 pop	 esi
  00043	5b		 pop	 ebx
  00044	8b e5		 mov	 esp, ebp
  00046	5d		 pop	 ebp
  00047	c2 0c 00	 ret	 12			; 0000000cH
?OnEventGameEnd@CPersonalTableFrameHook@@UAE_NGPAUIServerUserItem@@E@Z ENDP ; CPersonalTableFrameHook::OnEventGameEnd
_TEXT	ENDS
; Function compile flags: /Odtp /ZI
; File g:\网狐\happygamewh\服务端\系统模块\服务器组件\约战服务\tableframehook.cpp
;	COMDAT ?PersonalRoomWriteJoinInfo@CPersonalTableFrameHook@@UAEXKGGKKPAD@Z
_TEXT	SEGMENT
_this$ = -4						; size = 4
_dwUserID$ = 8						; size = 4
_wTableID$ = 12						; size = 2
_wChairID$ = 16						; size = 2
_dwKindID$ = 20						; size = 4
_dwPersonalRoomID$ = 24					; size = 4
_szPersonalRoomGUID$ = 28				; size = 4
?PersonalRoomWriteJoinInfo@CPersonalTableFrameHook@@UAEXKGGKKPAD@Z PROC ; CPersonalTableFrameHook::PersonalRoomWriteJoinInfo, COMDAT
; _this$ = ecx

; 73   : {

  00000	55		 push	 ebp
  00001	8b ec		 mov	 ebp, esp
  00003	83 ec 44	 sub	 esp, 68			; 00000044H
  00006	53		 push	 ebx
  00007	56		 push	 esi
  00008	57		 push	 edi
  00009	89 4d fc	 mov	 DWORD PTR _this$[ebp], ecx

; 74   : 	if(m_pPersonalRoomEventSink!=NULL)

  0000c	8b 45 fc	 mov	 eax, DWORD PTR _this$[ebp]
  0000f	83 78 0c 00	 cmp	 DWORD PTR [eax+12], 0
  00013	74 2d		 je	 SHORT $LN1@PersonalRo

; 75   : 	{
; 76   : 		return m_pPersonalRoomEventSink->PersonalRoomWriteJoinInfo(dwUserID, wTableID, wChairID, dwKindID, dwPersonalRoomID, szPersonalRoomGUID);

  00015	8b 45 1c	 mov	 eax, DWORD PTR _szPersonalRoomGUID$[ebp]
  00018	50		 push	 eax
  00019	8b 4d 18	 mov	 ecx, DWORD PTR _dwPersonalRoomID$[ebp]
  0001c	51		 push	 ecx
  0001d	8b 55 14	 mov	 edx, DWORD PTR _dwKindID$[ebp]
  00020	52		 push	 edx
  00021	0f b7 45 10	 movzx	 eax, WORD PTR _wChairID$[ebp]
  00025	50		 push	 eax
  00026	0f b7 4d 0c	 movzx	 ecx, WORD PTR _wTableID$[ebp]
  0002a	51		 push	 ecx
  0002b	8b 55 08	 mov	 edx, DWORD PTR _dwUserID$[ebp]
  0002e	52		 push	 edx
  0002f	8b 45 fc	 mov	 eax, DWORD PTR _this$[ebp]
  00032	8b 48 0c	 mov	 ecx, DWORD PTR [eax+12]
  00035	8b 55 fc	 mov	 edx, DWORD PTR _this$[ebp]
  00038	8b 01		 mov	 eax, DWORD PTR [ecx]
  0003a	8b 4a 0c	 mov	 ecx, DWORD PTR [edx+12]
  0003d	8b 50 0c	 mov	 edx, DWORD PTR [eax+12]
  00040	ff d2		 call	 edx
$LN1@PersonalRo:

; 77   : 	}
; 78   : 	return;
; 79   : }

  00042	5f		 pop	 edi
  00043	5e		 pop	 esi
  00044	5b		 pop	 ebx
  00045	8b e5		 mov	 esp, ebp
  00047	5d		 pop	 ebp
  00048	c2 18 00	 ret	 24			; 00000018H
?PersonalRoomWriteJoinInfo@CPersonalTableFrameHook@@UAEXKGGKKPAD@Z ENDP ; CPersonalTableFrameHook::PersonalRoomWriteJoinInfo
_TEXT	ENDS
; Function compile flags: /Odtp /ZI
; File g:\网狐\happygamewh\服务端\系统模块\服务器组件\约战服务\tableframehook.cpp
;	COMDAT ?OnEventGameStart@CPersonalTableFrameHook@@UAE_NG@Z
_TEXT	SEGMENT
_this$ = -4						; size = 4
_wChairCount$ = 8					; size = 2
?OnEventGameStart@CPersonalTableFrameHook@@UAE_NG@Z PROC ; CPersonalTableFrameHook::OnEventGameStart, COMDAT
; _this$ = ecx

; 62   : {

  00000	55		 push	 ebp
  00001	8b ec		 mov	 ebp, esp
  00003	83 ec 44	 sub	 esp, 68			; 00000044H
  00006	53		 push	 ebx
  00007	56		 push	 esi
  00008	57		 push	 edi
  00009	89 4d fc	 mov	 DWORD PTR _this$[ebp], ecx

; 63   : 	if(m_pPersonalRoomEventSink!=NULL)

  0000c	8b 45 fc	 mov	 eax, DWORD PTR _this$[ebp]
  0000f	83 78 0c 00	 cmp	 DWORD PTR [eax+12], 0
  00013	74 21		 je	 SHORT $LN2@OnEventGam

; 64   : 	{
; 65   : 		return m_pPersonalRoomEventSink->OnEventGameStart(m_pITableFrame, wChairCount);

  00015	0f b7 45 08	 movzx	 eax, WORD PTR _wChairCount$[ebp]
  00019	50		 push	 eax
  0001a	8b 4d fc	 mov	 ecx, DWORD PTR _this$[ebp]
  0001d	8b 51 08	 mov	 edx, DWORD PTR [ecx+8]
  00020	52		 push	 edx
  00021	8b 45 fc	 mov	 eax, DWORD PTR _this$[ebp]
  00024	8b 48 0c	 mov	 ecx, DWORD PTR [eax+12]
  00027	8b 55 fc	 mov	 edx, DWORD PTR _this$[ebp]
  0002a	8b 01		 mov	 eax, DWORD PTR [ecx]
  0002c	8b 4a 0c	 mov	 ecx, DWORD PTR [edx+12]
  0002f	8b 50 08	 mov	 edx, DWORD PTR [eax+8]
  00032	ff d2		 call	 edx
  00034	eb 02		 jmp	 SHORT $LN1@OnEventGam
$LN2@OnEventGam:

; 66   : 	}
; 67   : 
; 68   : 	return false;

  00036	32 c0		 xor	 al, al
$LN1@OnEventGam:

; 69   : }

  00038	5f		 pop	 edi
  00039	5e		 pop	 esi
  0003a	5b		 pop	 ebx
  0003b	8b e5		 mov	 esp, ebp
  0003d	5d		 pop	 ebp
  0003e	c2 04 00	 ret	 4
?OnEventGameStart@CPersonalTableFrameHook@@UAE_NG@Z ENDP ; CPersonalTableFrameHook::OnEventGameStart
_TEXT	ENDS
; Function compile flags: /Odtp /ZI
; File g:\网狐\happygamewh\服务端\系统模块\服务器组件\约战服务\tableframehook.cpp
;	COMDAT ?InitTableFrameHook@CPersonalTableFrameHook@@UAE_NPAUIUnknownEx@@@Z
_TEXT	SEGMENT
tv79 = -72						; size = 4
_this$ = -4						; size = 4
_pIUnknownEx$ = 8					; size = 4
?InitTableFrameHook@CPersonalTableFrameHook@@UAE_NPAUIUnknownEx@@@Z PROC ; CPersonalTableFrameHook::InitTableFrameHook, COMDAT
; _this$ = ecx

; 47   : {

  00000	55		 push	 ebp
  00001	8b ec		 mov	 ebp, esp
  00003	83 ec 48	 sub	 esp, 72			; 00000048H
  00006	53		 push	 ebx
  00007	56		 push	 esi
  00008	57		 push	 edi
  00009	89 4d fc	 mov	 DWORD PTR _this$[ebp], ecx

; 48   : 	//查询接口
; 49   : 	ASSERT(pIUnknownEx!=NULL);

  0000c	83 7d 08 00	 cmp	 DWORD PTR _pIUnknownEx$[ebp], 0
  00010	75 18		 jne	 SHORT $LN4@InitTableF
  00012	a1 00 00 00 00	 mov	 eax, DWORD PTR ?__LINE__Var@?0??InitTableFrameHook@CPersonalTableFrameHook@@UAE_NPAUIUnknownEx@@@Z@4JA
  00017	83 c0 02	 add	 eax, 2
  0001a	50		 push	 eax
  0001b	68 00 00 00 00	 push	 OFFSET ??_C@_0EL@MAFCNDJI@g?3?2?M?x?$LK?$PM?2happygamewh?2?$LH?$PO?N?q?$LG?K?2?O?$LF?M?$LD@
  00020	e8 00 00 00 00	 call	 ?AfxAssertFailedLine@@YGHPBDH@Z ; AfxAssertFailedLine
  00025	85 c0		 test	 eax, eax
  00027	74 01		 je	 SHORT $LN4@InitTableF
  00029	cc		 int	 3
$LN4@InitTableF:

; 50   : 	m_pITableFrame=QUERY_OBJECT_PTR_INTERFACE(pIUnknownEx,ITableFrame);

  0002a	83 7d 08 00	 cmp	 DWORD PTR _pIUnknownEx$[ebp], 0
  0002e	75 09		 jne	 SHORT $LN5@InitTableF
  00030	c7 45 b8 00 00
	00 00		 mov	 DWORD PTR tv79[ebp], 0
  00037	eb 1a		 jmp	 SHORT $LN6@InitTableF
$LN5@InitTableF:
  00039	68 00 01 01 06	 push	 100729088		; 06010100H
  0003e	68 00 00 00 00	 push	 OFFSET ?IID_ITableFrame@@3U_GUID@@B
  00043	8b 45 08	 mov	 eax, DWORD PTR _pIUnknownEx$[ebp]
  00046	8b 10		 mov	 edx, DWORD PTR [eax]
  00048	8b 4d 08	 mov	 ecx, DWORD PTR _pIUnknownEx$[ebp]
  0004b	8b 42 04	 mov	 eax, DWORD PTR [edx+4]
  0004e	ff d0		 call	 eax
  00050	89 45 b8	 mov	 DWORD PTR tv79[ebp], eax
$LN6@InitTableF:
  00053	8b 4d fc	 mov	 ecx, DWORD PTR _this$[ebp]
  00056	8b 55 b8	 mov	 edx, DWORD PTR tv79[ebp]
  00059	89 51 08	 mov	 DWORD PTR [ecx+8], edx

; 51   : 	if (m_pITableFrame==NULL) return false;

  0005c	8b 45 fc	 mov	 eax, DWORD PTR _this$[ebp]
  0005f	83 78 08 00	 cmp	 DWORD PTR [eax+8], 0
  00063	75 04		 jne	 SHORT $LN2@InitTableF
  00065	32 c0		 xor	 al, al
  00067	eb 3d		 jmp	 SHORT $LN1@InitTableF
$LN2@InitTableF:

; 52   : 
; 53   : 	//获取参数
; 54   : 	m_pGameServiceOption=m_pITableFrame->GetGameServiceOption();

  00069	8b 45 fc	 mov	 eax, DWORD PTR _this$[ebp]
  0006c	8b 48 08	 mov	 ecx, DWORD PTR [eax+8]
  0006f	8b 55 fc	 mov	 edx, DWORD PTR _this$[ebp]
  00072	8b 01		 mov	 eax, DWORD PTR [ecx]
  00074	8b 4a 08	 mov	 ecx, DWORD PTR [edx+8]
  00077	8b 50 24	 mov	 edx, DWORD PTR [eax+36]
  0007a	ff d2		 call	 edx
  0007c	8b 4d fc	 mov	 ecx, DWORD PTR _this$[ebp]
  0007f	89 41 10	 mov	 DWORD PTR [ecx+16], eax

; 55   : 	ASSERT(m_pGameServiceOption!=NULL);

  00082	8b 45 fc	 mov	 eax, DWORD PTR _this$[ebp]
  00085	83 78 10 00	 cmp	 DWORD PTR [eax+16], 0
  00089	75 19		 jne	 SHORT $LN7@InitTableF
  0008b	8b 0d 00 00 00
	00		 mov	 ecx, DWORD PTR ?__LINE__Var@?0??InitTableFrameHook@CPersonalTableFrameHook@@UAE_NPAUIUnknownEx@@@Z@4JA
  00091	83 c1 08	 add	 ecx, 8
  00094	51		 push	 ecx
  00095	68 00 00 00 00	 push	 OFFSET ??_C@_0EL@MAFCNDJI@g?3?2?M?x?$LK?$PM?2happygamewh?2?$LH?$PO?N?q?$LG?K?2?O?$LF?M?$LD@
  0009a	e8 00 00 00 00	 call	 ?AfxAssertFailedLine@@YGHPBDH@Z ; AfxAssertFailedLine
  0009f	85 c0		 test	 eax, eax
  000a1	74 01		 je	 SHORT $LN7@InitTableF
  000a3	cc		 int	 3
$LN7@InitTableF:

; 56   : 
; 57   : 	return true;

  000a4	b0 01		 mov	 al, 1
$LN1@InitTableF:

; 58   : }

  000a6	5f		 pop	 edi
  000a7	5e		 pop	 esi
  000a8	5b		 pop	 ebx
  000a9	8b e5		 mov	 esp, ebp
  000ab	5d		 pop	 ebp
  000ac	c2 04 00	 ret	 4
?InitTableFrameHook@CPersonalTableFrameHook@@UAE_NPAUIUnknownEx@@@Z ENDP ; CPersonalTableFrameHook::InitTableFrameHook
_TEXT	ENDS
; Function compile flags: /Odtp /ZI
; File g:\网狐\happygamewh\服务端\系统模块\服务器组件\约战服务\tableframehook.cpp
;	COMDAT ?SetPersonalRoomEventSink@CPersonalTableFrameHook@@UAE_NPAUIUnknownEx@@@Z
_TEXT	SEGMENT
tv72 = -72						; size = 4
_this$ = -4						; size = 4
_pIUnknownEx$ = 8					; size = 4
?SetPersonalRoomEventSink@CPersonalTableFrameHook@@UAE_NPAUIUnknownEx@@@Z PROC ; CPersonalTableFrameHook::SetPersonalRoomEventSink, COMDAT
; _this$ = ecx

; 39   : {

  00000	55		 push	 ebp
  00001	8b ec		 mov	 ebp, esp
  00003	83 ec 48	 sub	 esp, 72			; 00000048H
  00006	53		 push	 ebx
  00007	56		 push	 esi
  00008	57		 push	 edi
  00009	89 4d fc	 mov	 DWORD PTR _this$[ebp], ecx

; 40   : 	m_pPersonalRoomEventSink=QUERY_OBJECT_PTR_INTERFACE(pIUnknownEx,IPersonalRoomEventSink);

  0000c	83 7d 08 00	 cmp	 DWORD PTR _pIUnknownEx$[ebp], 0
  00010	75 09		 jne	 SHORT $LN3@SetPersona
  00012	c7 45 b8 00 00
	00 00		 mov	 DWORD PTR tv72[ebp], 0
  00019	eb 1a		 jmp	 SHORT $LN4@SetPersona
$LN3@SetPersona:
  0001b	68 00 01 01 06	 push	 100729088		; 06010100H
  00020	68 00 00 00 00	 push	 OFFSET ?IID_IPersonalRoomEventSink@@3U_GUID@@B
  00025	8b 45 08	 mov	 eax, DWORD PTR _pIUnknownEx$[ebp]
  00028	8b 10		 mov	 edx, DWORD PTR [eax]
  0002a	8b 4d 08	 mov	 ecx, DWORD PTR _pIUnknownEx$[ebp]
  0002d	8b 42 04	 mov	 eax, DWORD PTR [edx+4]
  00030	ff d0		 call	 eax
  00032	89 45 b8	 mov	 DWORD PTR tv72[ebp], eax
$LN4@SetPersona:
  00035	8b 4d fc	 mov	 ecx, DWORD PTR _this$[ebp]
  00038	8b 55 b8	 mov	 edx, DWORD PTR tv72[ebp]
  0003b	89 51 0c	 mov	 DWORD PTR [ecx+12], edx

; 41   : 
; 42   : 	return true;

  0003e	b0 01		 mov	 al, 1

; 43   : }

  00040	5f		 pop	 edi
  00041	5e		 pop	 esi
  00042	5b		 pop	 ebx
  00043	8b e5		 mov	 esp, ebp
  00045	5d		 pop	 ebp
  00046	c2 04 00	 ret	 4
?SetPersonalRoomEventSink@CPersonalTableFrameHook@@UAE_NPAUIUnknownEx@@@Z ENDP ; CPersonalTableFrameHook::SetPersonalRoomEventSink
_TEXT	ENDS
; Function compile flags: /Odtp /ZI
; File g:\网狐\happygamewh\服务端\系统模块\服务器组件\约战服务\tableframehook.cpp
;	COMDAT ?QueryInterface@CPersonalTableFrameHook@@UAEPAXABU_GUID@@K@Z
_TEXT	SEGMENT
_this$ = -4						; size = 4
_Guid$ = 8						; size = 4
_dwQueryVer$ = 12					; size = 4
?QueryInterface@CPersonalTableFrameHook@@UAEPAXABU_GUID@@K@Z PROC ; CPersonalTableFrameHook::QueryInterface, COMDAT
; _this$ = ecx

; 30   : {

  00000	55		 push	 ebp
  00001	8b ec		 mov	 ebp, esp
  00003	83 ec 44	 sub	 esp, 68			; 00000044H
  00006	53		 push	 ebx
  00007	56		 push	 esi
  00008	57		 push	 edi
  00009	89 4d fc	 mov	 DWORD PTR _this$[ebp], ecx

; 31   : 	QUERYINTERFACE(IPersonalTableFrameHook,Guid,dwQueryVer);

  0000c	68 00 00 00 00	 push	 OFFSET ?IID_IPersonalTableFrameHook@@3U_GUID@@B
  00011	8b 45 08	 mov	 eax, DWORD PTR _Guid$[ebp]
  00014	50		 push	 eax
  00015	e8 00 00 00 00	 call	 _==
  0001a	83 c4 08	 add	 esp, 8
  0001d	0f b6 c8	 movzx	 ecx, al
  00020	85 c9		 test	 ecx, ecx
  00022	74 1d		 je	 SHORT $LN2@QueryInter
  00024	68 00 01 01 06	 push	 100729088		; 06010100H
  00029	8b 45 0c	 mov	 eax, DWORD PTR _dwQueryVer$[ebp]
  0002c	50		 push	 eax
  0002d	e8 00 00 00 00	 call	 ?InterfaceVersionCompare@@YA_NKK@Z ; InterfaceVersionCompare
  00032	83 c4 08	 add	 esp, 8
  00035	0f b6 c8	 movzx	 ecx, al
  00038	85 c9		 test	 ecx, ecx
  0003a	74 05		 je	 SHORT $LN2@QueryInter
  0003c	8b 45 fc	 mov	 eax, DWORD PTR _this$[ebp]
  0003f	eb 6c		 jmp	 SHORT $LN1@QueryInter
$LN2@QueryInter:

; 32   : 	QUERYINTERFACE(IPersonalTableFrameHook,Guid,dwQueryVer);

  00041	68 00 00 00 00	 push	 OFFSET ?IID_IPersonalTableFrameHook@@3U_GUID@@B
  00046	8b 45 08	 mov	 eax, DWORD PTR _Guid$[ebp]
  00049	50		 push	 eax
  0004a	e8 00 00 00 00	 call	 _==
  0004f	83 c4 08	 add	 esp, 8
  00052	0f b6 c8	 movzx	 ecx, al
  00055	85 c9		 test	 ecx, ecx
  00057	74 1d		 je	 SHORT $LN3@QueryInter
  00059	68 00 01 01 06	 push	 100729088		; 06010100H
  0005e	8b 45 0c	 mov	 eax, DWORD PTR _dwQueryVer$[ebp]
  00061	50		 push	 eax
  00062	e8 00 00 00 00	 call	 ?InterfaceVersionCompare@@YA_NKK@Z ; InterfaceVersionCompare
  00067	83 c4 08	 add	 esp, 8
  0006a	0f b6 c8	 movzx	 ecx, al
  0006d	85 c9		 test	 ecx, ecx
  0006f	74 05		 je	 SHORT $LN3@QueryInter
  00071	8b 45 fc	 mov	 eax, DWORD PTR _this$[ebp]
  00074	eb 37		 jmp	 SHORT $LN1@QueryInter
$LN3@QueryInter:

; 33   : 	QUERYINTERFACE_IUNKNOWNEX(IPersonalTableFrameHook,Guid,dwQueryVer);

  00076	68 00 00 00 00	 push	 OFFSET ?IID_IUnknownEx@@3U_GUID@@B
  0007b	8b 45 08	 mov	 eax, DWORD PTR _Guid$[ebp]
  0007e	50		 push	 eax
  0007f	e8 00 00 00 00	 call	 _==
  00084	83 c4 08	 add	 esp, 8
  00087	0f b6 c8	 movzx	 ecx, al
  0008a	85 c9		 test	 ecx, ecx
  0008c	74 1d		 je	 SHORT $LN4@QueryInter
  0008e	68 00 01 01 06	 push	 100729088		; 06010100H
  00093	8b 45 0c	 mov	 eax, DWORD PTR _dwQueryVer$[ebp]
  00096	50		 push	 eax
  00097	e8 00 00 00 00	 call	 ?InterfaceVersionCompare@@YA_NKK@Z ; InterfaceVersionCompare
  0009c	83 c4 08	 add	 esp, 8
  0009f	0f b6 c8	 movzx	 ecx, al
  000a2	85 c9		 test	 ecx, ecx
  000a4	74 05		 je	 SHORT $LN4@QueryInter
  000a6	8b 45 fc	 mov	 eax, DWORD PTR _this$[ebp]
  000a9	eb 02		 jmp	 SHORT $LN1@QueryInter
$LN4@QueryInter:

; 34   : 	return NULL;

  000ab	33 c0		 xor	 eax, eax
$LN1@QueryInter:

; 35   : }

  000ad	5f		 pop	 edi
  000ae	5e		 pop	 esi
  000af	5b		 pop	 ebx
  000b0	8b e5		 mov	 esp, ebp
  000b2	5d		 pop	 ebp
  000b3	c2 08 00	 ret	 8
?QueryInterface@CPersonalTableFrameHook@@UAEPAXABU_GUID@@K@Z ENDP ; CPersonalTableFrameHook::QueryInterface
_TEXT	ENDS
; Function compile flags: /Odtp /ZI
; File g:\网狐\happygamewh\服务端\系统模块\服务器组件\约战服务\tableframehook.h
;	COMDAT ?Release@CPersonalTableFrameHook@@UAEXXZ
_TEXT	SEGMENT
tv70 = -80						; size = 4
$T1 = -76						; size = 4
$T2 = -72						; size = 4
_this$ = -4						; size = 4
?Release@CPersonalTableFrameHook@@UAEXXZ PROC		; CPersonalTableFrameHook::Release, COMDAT
; _this$ = ecx

; 43   : 	virtual VOID  Release() { delete this; }

  00000	55		 push	 ebp
  00001	8b ec		 mov	 ebp, esp
  00003	83 ec 50	 sub	 esp, 80			; 00000050H
  00006	53		 push	 ebx
  00007	56		 push	 esi
  00008	57		 push	 edi
  00009	89 4d fc	 mov	 DWORD PTR _this$[ebp], ecx
  0000c	8b 45 fc	 mov	 eax, DWORD PTR _this$[ebp]
  0000f	89 45 b4	 mov	 DWORD PTR $T1[ebp], eax
  00012	8b 4d b4	 mov	 ecx, DWORD PTR $T1[ebp]
  00015	89 4d b8	 mov	 DWORD PTR $T2[ebp], ecx
  00018	83 7d b8 00	 cmp	 DWORD PTR $T2[ebp], 0
  0001c	74 14		 je	 SHORT $LN3@Release
  0001e	6a 01		 push	 1
  00020	8b 55 b8	 mov	 edx, DWORD PTR $T2[ebp]
  00023	8b 02		 mov	 eax, DWORD PTR [edx]
  00025	8b 4d b8	 mov	 ecx, DWORD PTR $T2[ebp]
  00028	8b 50 24	 mov	 edx, DWORD PTR [eax+36]
  0002b	ff d2		 call	 edx
  0002d	89 45 b0	 mov	 DWORD PTR tv70[ebp], eax
  00030	eb 07		 jmp	 SHORT $LN1@Release
$LN3@Release:
  00032	c7 45 b0 00 00
	00 00		 mov	 DWORD PTR tv70[ebp], 0
$LN1@Release:
  00039	5f		 pop	 edi
  0003a	5e		 pop	 esi
  0003b	5b		 pop	 ebx
  0003c	8b e5		 mov	 esp, ebp
  0003e	5d		 pop	 ebp
  0003f	c3		 ret	 0
?Release@CPersonalTableFrameHook@@UAEXXZ ENDP		; CPersonalTableFrameHook::Release
_TEXT	ENDS
; Function compile flags: /Odtp /ZI
; File g:\网狐\happygamewh\服务端\系统模块\服务器组件\约战服务\tableframehook.cpp
;	COMDAT ??1CPersonalTableFrameHook@@UAE@XZ
_TEXT	SEGMENT
_this$ = -4						; size = 4
??1CPersonalTableFrameHook@@UAE@XZ PROC			; CPersonalTableFrameHook::~CPersonalTableFrameHook, COMDAT
; _this$ = ecx

; 25   : {

  00000	55		 push	 ebp
  00001	8b ec		 mov	 ebp, esp
  00003	83 ec 44	 sub	 esp, 68			; 00000044H
  00006	53		 push	 ebx
  00007	56		 push	 esi
  00008	57		 push	 edi
  00009	89 4d fc	 mov	 DWORD PTR _this$[ebp], ecx
  0000c	8b 45 fc	 mov	 eax, DWORD PTR _this$[ebp]
  0000f	c7 00 00 00 00
	00		 mov	 DWORD PTR [eax], OFFSET ??_7CPersonalTableFrameHook@@6BIPersonalTableFrameHook@@@
  00015	8b 45 fc	 mov	 eax, DWORD PTR _this$[ebp]
  00018	c7 40 04 00 00
	00 00		 mov	 DWORD PTR [eax+4], OFFSET ??_7CPersonalTableFrameHook@@6BITableUserAction@@@

; 26   : }

  0001f	5f		 pop	 edi
  00020	5e		 pop	 esi
  00021	5b		 pop	 ebx
  00022	8b e5		 mov	 esp, ebp
  00024	5d		 pop	 ebp
  00025	c3		 ret	 0
??1CPersonalTableFrameHook@@UAE@XZ ENDP			; CPersonalTableFrameHook::~CPersonalTableFrameHook
_TEXT	ENDS
; Function compile flags: /Odtp /ZI
; File g:\网狐\happygamewh\服务端\系统模块\服务器组件\约战服务\tableframehook.cpp
;	COMDAT ??0CPersonalTableFrameHook@@QAE@XZ
_TEXT	SEGMENT
_this$ = -4						; size = 4
??0CPersonalTableFrameHook@@QAE@XZ PROC			; CPersonalTableFrameHook::CPersonalTableFrameHook, COMDAT
; _this$ = ecx

; 14   : {

  00000	55		 push	 ebp
  00001	8b ec		 mov	 ebp, esp
  00003	83 ec 44	 sub	 esp, 68			; 00000044H
  00006	53		 push	 ebx
  00007	56		 push	 esi
  00008	57		 push	 edi
  00009	89 4d fc	 mov	 DWORD PTR _this$[ebp], ecx
  0000c	8b 4d fc	 mov	 ecx, DWORD PTR _this$[ebp]
  0000f	e8 00 00 00 00	 call	 ??0IPersonalTableFrameHook@@QAE@XZ
  00014	8b 4d fc	 mov	 ecx, DWORD PTR _this$[ebp]
  00017	83 c1 04	 add	 ecx, 4
  0001a	e8 00 00 00 00	 call	 ??0ITableUserAction@@QAE@XZ
  0001f	8b 45 fc	 mov	 eax, DWORD PTR _this$[ebp]
  00022	c7 00 00 00 00
	00		 mov	 DWORD PTR [eax], OFFSET ??_7CPersonalTableFrameHook@@6BIPersonalTableFrameHook@@@
  00028	8b 45 fc	 mov	 eax, DWORD PTR _this$[ebp]
  0002b	c7 40 04 00 00
	00 00		 mov	 DWORD PTR [eax+4], OFFSET ??_7CPersonalTableFrameHook@@6BITableUserAction@@@

; 15   : 	//组件变量
; 16   : 	m_pITableFrame=NULL;

  00032	8b 45 fc	 mov	 eax, DWORD PTR _this$[ebp]
  00035	c7 40 08 00 00
	00 00		 mov	 DWORD PTR [eax+8], 0

; 17   : 	m_pGameServiceOption=NULL;

  0003c	8b 45 fc	 mov	 eax, DWORD PTR _this$[ebp]
  0003f	c7 40 10 00 00
	00 00		 mov	 DWORD PTR [eax+16], 0

; 18   : 	m_pPersonalRoomEventSink=NULL;

  00046	8b 45 fc	 mov	 eax, DWORD PTR _this$[ebp]
  00049	c7 40 0c 00 00
	00 00		 mov	 DWORD PTR [eax+12], 0

; 19   : 
; 20   : 	return;
; 21   : }

  00050	8b 45 fc	 mov	 eax, DWORD PTR _this$[ebp]
  00053	5f		 pop	 edi
  00054	5e		 pop	 esi
  00055	5b		 pop	 ebx
  00056	8b e5		 mov	 esp, ebp
  00058	5d		 pop	 ebp
  00059	c3		 ret	 0
??0CPersonalTableFrameHook@@QAE@XZ ENDP			; CPersonalTableFrameHook::CPersonalTableFrameHook
_TEXT	ENDS
; Function compile flags: /Odtp /ZI
;	COMDAT ??0IPersonalTableFrameHook@@QAE@XZ
_TEXT	SEGMENT
_this$ = -4						; size = 4
??0IPersonalTableFrameHook@@QAE@XZ PROC			; IPersonalTableFrameHook::IPersonalTableFrameHook, COMDAT
; _this$ = ecx
  00000	55		 push	 ebp
  00001	8b ec		 mov	 ebp, esp
  00003	83 ec 44	 sub	 esp, 68			; 00000044H
  00006	53		 push	 ebx
  00007	56		 push	 esi
  00008	57		 push	 edi
  00009	89 4d fc	 mov	 DWORD PTR _this$[ebp], ecx
  0000c	8b 4d fc	 mov	 ecx, DWORD PTR _this$[ebp]
  0000f	e8 00 00 00 00	 call	 ??0IUnknownEx@@QAE@XZ
  00014	8b 45 fc	 mov	 eax, DWORD PTR _this$[ebp]
  00017	c7 00 00 00 00
	00		 mov	 DWORD PTR [eax], OFFSET ??_7IPersonalTableFrameHook@@6B@
  0001d	8b 45 fc	 mov	 eax, DWORD PTR _this$[ebp]
  00020	5f		 pop	 edi
  00021	5e		 pop	 esi
  00022	5b		 pop	 ebx
  00023	8b e5		 mov	 esp, ebp
  00025	5d		 pop	 ebp
  00026	c3		 ret	 0
??0IPersonalTableFrameHook@@QAE@XZ ENDP			; IPersonalTableFrameHook::IPersonalTableFrameHook
_TEXT	ENDS
; Function compile flags: /Odtp /ZI
;	COMDAT ??0ITableUserAction@@QAE@XZ
_TEXT	SEGMENT
_this$ = -4						; size = 4
??0ITableUserAction@@QAE@XZ PROC			; ITableUserAction::ITableUserAction, COMDAT
; _this$ = ecx
  00000	55		 push	 ebp
  00001	8b ec		 mov	 ebp, esp
  00003	83 ec 44	 sub	 esp, 68			; 00000044H
  00006	53		 push	 ebx
  00007	56		 push	 esi
  00008	57		 push	 edi
  00009	89 4d fc	 mov	 DWORD PTR _this$[ebp], ecx
  0000c	8b 4d fc	 mov	 ecx, DWORD PTR _this$[ebp]
  0000f	e8 00 00 00 00	 call	 ??0IUnknownEx@@QAE@XZ
  00014	8b 45 fc	 mov	 eax, DWORD PTR _this$[ebp]
  00017	c7 00 00 00 00
	00		 mov	 DWORD PTR [eax], OFFSET ??_7ITableUserAction@@6B@
  0001d	8b 45 fc	 mov	 eax, DWORD PTR _this$[ebp]
  00020	5f		 pop	 edi
  00021	5e		 pop	 esi
  00022	5b		 pop	 ebx
  00023	8b e5		 mov	 esp, ebp
  00025	5d		 pop	 ebp
  00026	c3		 ret	 0
??0ITableUserAction@@QAE@XZ ENDP			; ITableUserAction::ITableUserAction
_TEXT	ENDS
; Function compile flags: /Odtp /ZI
; File g:\网狐\happygamewh\服务端\系统模块\全局定义\module.h
;	COMDAT ?InterfaceVersionCompare@@YA_NKK@Z
_TEXT	SEGMENT
_dwQueryVer$ = 8					; size = 4
_dwInterfaceVer$ = 12					; size = 4
?InterfaceVersionCompare@@YA_NKK@Z PROC			; InterfaceVersionCompare, COMDAT

; 68   : {

  00000	55		 push	 ebp
  00001	8b ec		 mov	 ebp, esp
  00003	83 ec 40	 sub	 esp, 64			; 00000040H
  00006	53		 push	 ebx
  00007	56		 push	 esi
  00008	57		 push	 edi

; 69   : 	if (GetSubVer(dwQueryVer)>GetSubVer(dwInterfaceVer)) return false;

  00009	8b 45 08	 mov	 eax, DWORD PTR _dwQueryVer$[ebp]
  0000c	50		 push	 eax
  0000d	e8 00 00 00 00	 call	 ?GetSubVer@@YAEK@Z	; GetSubVer
  00012	83 c4 04	 add	 esp, 4
  00015	0f b6 f0	 movzx	 esi, al
  00018	8b 4d 0c	 mov	 ecx, DWORD PTR _dwInterfaceVer$[ebp]
  0001b	51		 push	 ecx
  0001c	e8 00 00 00 00	 call	 ?GetSubVer@@YAEK@Z	; GetSubVer
  00021	83 c4 04	 add	 esp, 4
  00024	0f b6 d0	 movzx	 edx, al
  00027	3b f2		 cmp	 esi, edx
  00029	7e 04		 jle	 SHORT $LN2@InterfaceV
  0002b	32 c0		 xor	 al, al
  0002d	eb 74		 jmp	 SHORT $LN1@InterfaceV
$LN2@InterfaceV:

; 70   : 	if (GetMainVer(dwQueryVer)!=GetMainVer(dwInterfaceVer)) return false;

  0002f	8b 45 08	 mov	 eax, DWORD PTR _dwQueryVer$[ebp]
  00032	50		 push	 eax
  00033	e8 00 00 00 00	 call	 ?GetMainVer@@YAEK@Z	; GetMainVer
  00038	83 c4 04	 add	 esp, 4
  0003b	0f b6 f0	 movzx	 esi, al
  0003e	8b 4d 0c	 mov	 ecx, DWORD PTR _dwInterfaceVer$[ebp]
  00041	51		 push	 ecx
  00042	e8 00 00 00 00	 call	 ?GetMainVer@@YAEK@Z	; GetMainVer
  00047	83 c4 04	 add	 esp, 4
  0004a	0f b6 d0	 movzx	 edx, al
  0004d	3b f2		 cmp	 esi, edx
  0004f	74 04		 je	 SHORT $LN3@InterfaceV
  00051	32 c0		 xor	 al, al
  00053	eb 4e		 jmp	 SHORT $LN1@InterfaceV
$LN3@InterfaceV:

; 71   : 	if (GetBuildVer(dwQueryVer)!=GetBuildVer(dwInterfaceVer)) return false;

  00055	8b 45 08	 mov	 eax, DWORD PTR _dwQueryVer$[ebp]
  00058	50		 push	 eax
  00059	e8 00 00 00 00	 call	 ?GetBuildVer@@YAEK@Z	; GetBuildVer
  0005e	83 c4 04	 add	 esp, 4
  00061	0f b6 f0	 movzx	 esi, al
  00064	8b 4d 0c	 mov	 ecx, DWORD PTR _dwInterfaceVer$[ebp]
  00067	51		 push	 ecx
  00068	e8 00 00 00 00	 call	 ?GetBuildVer@@YAEK@Z	; GetBuildVer
  0006d	83 c4 04	 add	 esp, 4
  00070	0f b6 d0	 movzx	 edx, al
  00073	3b f2		 cmp	 esi, edx
  00075	74 04		 je	 SHORT $LN4@InterfaceV
  00077	32 c0		 xor	 al, al
  00079	eb 28		 jmp	 SHORT $LN1@InterfaceV
$LN4@InterfaceV:

; 72   : 	if (GetProductVer(dwQueryVer)!=GetProductVer(dwInterfaceVer)) return false;

  0007b	8b 45 08	 mov	 eax, DWORD PTR _dwQueryVer$[ebp]
  0007e	50		 push	 eax
  0007f	e8 00 00 00 00	 call	 ?GetProductVer@@YAEK@Z	; GetProductVer
  00084	83 c4 04	 add	 esp, 4
  00087	0f b6 f0	 movzx	 esi, al
  0008a	8b 4d 0c	 mov	 ecx, DWORD PTR _dwInterfaceVer$[ebp]
  0008d	51		 push	 ecx
  0008e	e8 00 00 00 00	 call	 ?GetProductVer@@YAEK@Z	; GetProductVer
  00093	83 c4 04	 add	 esp, 4
  00096	0f b6 d0	 movzx	 edx, al
  00099	3b f2		 cmp	 esi, edx
  0009b	74 04		 je	 SHORT $LN5@InterfaceV
  0009d	32 c0		 xor	 al, al
  0009f	eb 02		 jmp	 SHORT $LN1@InterfaceV
$LN5@InterfaceV:

; 73   : 	return true;

  000a1	b0 01		 mov	 al, 1
$LN1@InterfaceV:

; 74   : };

  000a3	5f		 pop	 edi
  000a4	5e		 pop	 esi
  000a5	5b		 pop	 ebx
  000a6	8b e5		 mov	 esp, ebp
  000a8	5d		 pop	 ebp
  000a9	c3		 ret	 0
?InterfaceVersionCompare@@YA_NKK@Z ENDP			; InterfaceVersionCompare
_TEXT	ENDS
; Function compile flags: /Odtp /ZI
; File g:\网狐\happygamewh\服务端\系统模块\全局定义\module.h
;	COMDAT ?GetBuildVer@@YAEK@Z
_TEXT	SEGMENT
_dwVersion$ = 8						; size = 4
?GetBuildVer@@YAEK@Z PROC				; GetBuildVer, COMDAT

; 62   : {

  00000	55		 push	 ebp
  00001	8b ec		 mov	 ebp, esp
  00003	83 ec 40	 sub	 esp, 64			; 00000040H
  00006	53		 push	 ebx
  00007	56		 push	 esi
  00008	57		 push	 edi

; 63   : 	return ((BYTE *)&dwVersion)[0];

  00009	b8 01 00 00 00	 mov	 eax, 1
  0000e	6b c8 00	 imul	 ecx, eax, 0
  00011	8a 44 0d 08	 mov	 al, BYTE PTR _dwVersion$[ebp+ecx]

; 64   : }

  00015	5f		 pop	 edi
  00016	5e		 pop	 esi
  00017	5b		 pop	 ebx
  00018	8b e5		 mov	 esp, ebp
  0001a	5d		 pop	 ebp
  0001b	c3		 ret	 0
?GetBuildVer@@YAEK@Z ENDP				; GetBuildVer
_TEXT	ENDS
; Function compile flags: /Odtp /ZI
; File g:\网狐\happygamewh\服务端\系统模块\全局定义\module.h
;	COMDAT ?GetSubVer@@YAEK@Z
_TEXT	SEGMENT
_dwVersion$ = 8						; size = 4
?GetSubVer@@YAEK@Z PROC					; GetSubVer, COMDAT

; 56   : {

  00000	55		 push	 ebp
  00001	8b ec		 mov	 ebp, esp
  00003	83 ec 40	 sub	 esp, 64			; 00000040H
  00006	53		 push	 ebx
  00007	56		 push	 esi
  00008	57		 push	 edi

; 57   : 	return ((BYTE *)&dwVersion)[1];

  00009	b8 01 00 00 00	 mov	 eax, 1
  0000e	c1 e0 00	 shl	 eax, 0
  00011	8a 44 05 08	 mov	 al, BYTE PTR _dwVersion$[ebp+eax]

; 58   : }

  00015	5f		 pop	 edi
  00016	5e		 pop	 esi
  00017	5b		 pop	 ebx
  00018	8b e5		 mov	 esp, ebp
  0001a	5d		 pop	 ebp
  0001b	c3		 ret	 0
?GetSubVer@@YAEK@Z ENDP					; GetSubVer
_TEXT	ENDS
; Function compile flags: /Odtp /ZI
; File g:\网狐\happygamewh\服务端\系统模块\全局定义\module.h
;	COMDAT ?GetMainVer@@YAEK@Z
_TEXT	SEGMENT
_dwVersion$ = 8						; size = 4
?GetMainVer@@YAEK@Z PROC				; GetMainVer, COMDAT

; 50   : {

  00000	55		 push	 ebp
  00001	8b ec		 mov	 ebp, esp
  00003	83 ec 40	 sub	 esp, 64			; 00000040H
  00006	53		 push	 ebx
  00007	56		 push	 esi
  00008	57		 push	 edi

; 51   : 	return ((BYTE *)&dwVersion)[2];

  00009	b8 01 00 00 00	 mov	 eax, 1
  0000e	d1 e0		 shl	 eax, 1
  00010	8a 44 05 08	 mov	 al, BYTE PTR _dwVersion$[ebp+eax]

; 52   : }

  00014	5f		 pop	 edi
  00015	5e		 pop	 esi
  00016	5b		 pop	 ebx
  00017	8b e5		 mov	 esp, ebp
  00019	5d		 pop	 ebp
  0001a	c3		 ret	 0
?GetMainVer@@YAEK@Z ENDP				; GetMainVer
_TEXT	ENDS
; Function compile flags: /Odtp /ZI
; File g:\网狐\happygamewh\服务端\系统模块\全局定义\module.h
;	COMDAT ?GetProductVer@@YAEK@Z
_TEXT	SEGMENT
_dwVersion$ = 8						; size = 4
?GetProductVer@@YAEK@Z PROC				; GetProductVer, COMDAT

; 44   : {

  00000	55		 push	 ebp
  00001	8b ec		 mov	 ebp, esp
  00003	83 ec 40	 sub	 esp, 64			; 00000040H
  00006	53		 push	 ebx
  00007	56		 push	 esi
  00008	57		 push	 edi

; 45   : 	return ((BYTE *)&dwVersion)[3];

  00009	b8 01 00 00 00	 mov	 eax, 1
  0000e	6b c8 03	 imul	 ecx, eax, 3
  00011	8a 44 0d 08	 mov	 al, BYTE PTR _dwVersion$[ebp+ecx]

; 46   : }

  00015	5f		 pop	 edi
  00016	5e		 pop	 esi
  00017	5b		 pop	 ebx
  00018	8b e5		 mov	 esp, ebp
  0001a	5d		 pop	 ebp
  0001b	c3		 ret	 0
?GetProductVer@@YAEK@Z ENDP				; GetProductVer
_TEXT	ENDS
; Function compile flags: /Odtp /ZI
;	COMDAT ??0IUnknownEx@@QAE@XZ
_TEXT	SEGMENT
_this$ = -4						; size = 4
??0IUnknownEx@@QAE@XZ PROC				; IUnknownEx::IUnknownEx, COMDAT
; _this$ = ecx
  00000	55		 push	 ebp
  00001	8b ec		 mov	 ebp, esp
  00003	83 ec 44	 sub	 esp, 68			; 00000044H
  00006	53		 push	 ebx
  00007	56		 push	 esi
  00008	57		 push	 edi
  00009	89 4d fc	 mov	 DWORD PTR _this$[ebp], ecx
  0000c	8b 45 fc	 mov	 eax, DWORD PTR _this$[ebp]
  0000f	c7 00 00 00 00
	00		 mov	 DWORD PTR [eax], OFFSET ??_7IUnknownEx@@6B@
  00015	8b 45 fc	 mov	 eax, DWORD PTR _this$[ebp]
  00018	5f		 pop	 edi
  00019	5e		 pop	 esi
  0001a	5b		 pop	 ebx
  0001b	8b e5		 mov	 esp, ebp
  0001d	5d		 pop	 ebp
  0001e	c3		 ret	 0
??0IUnknownEx@@QAE@XZ ENDP				; IUnknownEx::IUnknownEx
_TEXT	ENDS
; Function compile flags: /Odtp /ZI
; File c:\program files (x86)\microsoft visual studio\2017\community\vc\tools\msvc\14.16.27023\atlmfc\include\afx.h
;	COMDAT ?AfxAssertFailedLine@@YGHPBDH@Z
_TEXT	SEGMENT
_bResult$ = -36						; size = 4
_bQuit$ = -32						; size = 4
_msg$ = -28						; size = 28
_lpszFileName$ = 8					; size = 4
_nLine$ = 12						; size = 4
?AfxAssertFailedLine@@YGHPBDH@Z PROC			; AfxAssertFailedLine, COMDAT

; 312  : {

  00000	55		 push	 ebp
  00001	8b ec		 mov	 ebp, esp
  00003	83 ec 64	 sub	 esp, 100		; 00000064H
  00006	53		 push	 ebx
  00007	56		 push	 esi
  00008	57		 push	 edi

; 313  : 	// we remove WM_QUIT because if it is in the queue then the message box
; 314  : 	// won't display
; 315  : 	MSG msg;
; 316  : 	BOOL bQuit = PeekMessage(&msg, NULL, WM_QUIT, WM_QUIT, PM_REMOVE);

  00009	6a 01		 push	 1
  0000b	6a 12		 push	 18			; 00000012H
  0000d	6a 12		 push	 18			; 00000012H
  0000f	6a 00		 push	 0
  00011	8d 45 e4	 lea	 eax, DWORD PTR _msg$[ebp]
  00014	50		 push	 eax
  00015	ff 15 00 00 00
	00		 call	 DWORD PTR __imp__PeekMessageA@20
  0001b	89 45 e0	 mov	 DWORD PTR _bQuit$[ebp], eax

; 317  : 	BOOL bResult = _CrtDbgReport(_CRT_ASSERT, lpszFileName, nLine, NULL, NULL);

  0001e	6a 00		 push	 0
  00020	6a 00		 push	 0
  00022	8b 45 0c	 mov	 eax, DWORD PTR _nLine$[ebp]
  00025	50		 push	 eax
  00026	8b 4d 08	 mov	 ecx, DWORD PTR _lpszFileName$[ebp]
  00029	51		 push	 ecx
  0002a	6a 02		 push	 2
  0002c	ff 15 00 00 00
	00		 call	 DWORD PTR __imp___CrtDbgReport
  00032	83 c4 14	 add	 esp, 20			; 00000014H
  00035	89 45 dc	 mov	 DWORD PTR _bResult$[ebp], eax

; 318  : 	if (bQuit)

  00038	83 7d e0 00	 cmp	 DWORD PTR _bQuit$[ebp], 0
  0003c	74 0a		 je	 SHORT $LN2@AfxAssertF

; 319  : 		PostQuitMessage((int)msg.wParam);

  0003e	8b 45 ec	 mov	 eax, DWORD PTR _msg$[ebp+8]
  00041	50		 push	 eax
  00042	ff 15 00 00 00
	00		 call	 DWORD PTR __imp__PostQuitMessage@4
$LN2@AfxAssertF:

; 320  : 	return bResult;

  00048	8b 45 dc	 mov	 eax, DWORD PTR _bResult$[ebp]

; 321  : }

  0004b	5f		 pop	 edi
  0004c	5e		 pop	 esi
  0004d	5b		 pop	 ebx
  0004e	8b e5		 mov	 esp, ebp
  00050	5d		 pop	 ebp
  00051	c2 08 00	 ret	 8
?AfxAssertFailedLine@@YGHPBDH@Z ENDP			; AfxAssertFailedLine
_TEXT	ENDS
; Function compile flags: /Odtp /ZI
; File c:\program files (x86)\windows kits\10\include\10.0.17763.0\shared\guiddef.h
;	COMDAT _==
_TEXT	SEGMENT
tv68 = -68						; size = 4
_guidOne$ = 8						; size = 4
_guidOther$ = 12					; size = 4
_==	PROC						; COMDAT

; 193  : {

  00000	55		 push	 ebp
  00001	8b ec		 mov	 ebp, esp
  00003	83 ec 44	 sub	 esp, 68			; 00000044H
  00006	53		 push	 ebx
  00007	56		 push	 esi
  00008	57		 push	 edi

; 194  :     return !!IsEqualGUID(guidOne,guidOther);

  00009	8b 45 0c	 mov	 eax, DWORD PTR _guidOther$[ebp]
  0000c	50		 push	 eax
  0000d	8b 4d 08	 mov	 ecx, DWORD PTR _guidOne$[ebp]
  00010	51		 push	 ecx
  00011	e8 00 00 00 00	 call	 _IsEqualGUID
  00016	83 c4 08	 add	 esp, 8
  00019	85 c0		 test	 eax, eax
  0001b	74 09		 je	 SHORT $LN3@
  0001d	c7 45 bc 01 00
	00 00		 mov	 DWORD PTR tv68[ebp], 1
  00024	eb 07		 jmp	 SHORT $LN4@
$LN3@:
  00026	c7 45 bc 00 00
	00 00		 mov	 DWORD PTR tv68[ebp], 0
$LN4@:
  0002d	8a 45 bc	 mov	 al, BYTE PTR tv68[ebp]

; 195  : }

  00030	5f		 pop	 edi
  00031	5e		 pop	 esi
  00032	5b		 pop	 ebx
  00033	8b e5		 mov	 esp, ebp
  00035	5d		 pop	 ebp
  00036	c3		 ret	 0
_==	ENDP
_TEXT	ENDS
; Function compile flags: /Odtp /ZI
; File c:\program files (x86)\windows kits\10\include\10.0.17763.0\shared\guiddef.h
;	COMDAT _IsEqualGUID
_TEXT	SEGMENT
tv69 = -68						; size = 4
_rguid1$ = 8						; size = 4
_rguid2$ = 12						; size = 4
_IsEqualGUID PROC					; COMDAT

; 160  : {

  00000	55		 push	 ebp
  00001	8b ec		 mov	 ebp, esp
  00003	83 ec 44	 sub	 esp, 68			; 00000044H
  00006	53		 push	 ebx
  00007	56		 push	 esi
  00008	57		 push	 edi

; 161  :     return !memcmp(&rguid1, &rguid2, sizeof(GUID));

  00009	6a 10		 push	 16			; 00000010H
  0000b	8b 45 0c	 mov	 eax, DWORD PTR _rguid2$[ebp]
  0000e	50		 push	 eax
  0000f	8b 4d 08	 mov	 ecx, DWORD PTR _rguid1$[ebp]
  00012	51		 push	 ecx
  00013	e8 00 00 00 00	 call	 _memcmp
  00018	83 c4 0c	 add	 esp, 12			; 0000000cH
  0001b	85 c0		 test	 eax, eax
  0001d	75 09		 jne	 SHORT $LN3@IsEqualGUI
  0001f	c7 45 bc 01 00
	00 00		 mov	 DWORD PTR tv69[ebp], 1
  00026	eb 07		 jmp	 SHORT $LN4@IsEqualGUI
$LN3@IsEqualGUI:
  00028	c7 45 bc 00 00
	00 00		 mov	 DWORD PTR tv69[ebp], 0
$LN4@IsEqualGUI:
  0002f	8b 45 bc	 mov	 eax, DWORD PTR tv69[ebp]

; 162  : }

  00032	5f		 pop	 edi
  00033	5e		 pop	 esi
  00034	5b		 pop	 ebx
  00035	8b e5		 mov	 esp, ebp
  00037	5d		 pop	 ebp
  00038	c3		 ret	 0
_IsEqualGUID ENDP
_TEXT	ENDS
; Function compile flags: /Odtp /ZI
; File g:\网狐\happygamewh\服务端\系统模块\服务器组件\约战服务\tableframehook.cpp
;	COMDAT ?__empty_global_delete@@YAXPAXI@Z
_TEXT	SEGMENT
___formal$ = 8						; size = 4
___formal$ = 12						; size = 4
?__empty_global_delete@@YAXPAXI@Z PROC			; __empty_global_delete, COMDAT

  00000	55		 push	 ebp
  00001	8b ec		 mov	 ebp, esp
  00003	83 ec 40	 sub	 esp, 64			; 00000040H
  00006	53		 push	 ebx
  00007	56		 push	 esi
  00008	57		 push	 edi
  00009	5f		 pop	 edi
  0000a	5e		 pop	 esi
  0000b	5b		 pop	 ebx
  0000c	8b e5		 mov	 esp, ebp
  0000e	5d		 pop	 ebp
  0000f	c3		 ret	 0
?__empty_global_delete@@YAXPAXI@Z ENDP			; __empty_global_delete
_TEXT	ENDS
; Function compile flags: /Odtp /ZI
; File g:\网狐\happygamewh\服务端\系统模块\服务器组件\约战服务\tableframehook.cpp
;	COMDAT ?__empty_global_delete@@YAXPAX@Z
_TEXT	SEGMENT
___formal$ = 8						; size = 4
?__empty_global_delete@@YAXPAX@Z PROC			; __empty_global_delete, COMDAT

  00000	55		 push	 ebp
  00001	8b ec		 mov	 ebp, esp
  00003	83 ec 40	 sub	 esp, 64			; 00000040H
  00006	53		 push	 ebx
  00007	56		 push	 esi
  00008	57		 push	 edi
  00009	5f		 pop	 edi
  0000a	5e		 pop	 esi
  0000b	5b		 pop	 ebx
  0000c	8b e5		 mov	 esp, ebp
  0000e	5d		 pop	 ebp
  0000f	c3		 ret	 0
?__empty_global_delete@@YAXPAX@Z ENDP			; __empty_global_delete
_TEXT	ENDS
END
