; Listing generated by Microsoft (R) Optimizing Compiler Version 19.16.27032.1 

	TITLE	G:\网狐\HappyGameWH\服务端\系统模块\服务器组件\游戏服务器\AttemperEngineSink.cpp
	.686P
	.XMM
	include listing.inc
	.model	flat

INCLUDELIB MSVCRTD
INCLUDELIB OLDNAMES

CONST	SEGMENT
?IID_IUnknownEx@@3U_GUID@@B DD 05feec21eH		; IID_IUnknownEx
	DW	0dbf3H
	DW	046f0H
	DB	09fH
	DB	057H
	DB	0d1H
	DB	0cdH
	DB	071H
	DB	01cH
	DB	046H
	DB	0deH
?szTreasureDB@@3QBDB DB 'QPTreasureDB', 00H		; szTreasureDB
	ORG $+3
?szCompilation@@3QBDB DB 'ED56BE63-3026-465B-9DFC-17F595145F3D', 00H ; szCompilation
	ORG $+3
?IID_ITCPNetworkEngineEvent@@3U_GUID@@B DD 0b7e6da53H	; IID_ITCPNetworkEngineEvent
	DW	0fca5H
	DW	04d90H
	DB	085H
	DB	048H
	DB	0feH
	DB	05H
	DB	0f6H
	DB	0b4H
	DB	0c0H
	DB	0efH
?IID_IAttemperEngineSink@@3U_GUID@@B DD 0831b9001H	; IID_IAttemperEngineSink
	DW	04450H
	DW	045ddH
	DB	091H
	DB	037H
	DB	0dH
	DB	026H
	DB	016H
	DB	0e3H
	DB	075H
	DB	032H
?IID_IServerUserItemSink@@3U_GUID@@B DD 09d0cfe02H	; IID_IServerUserItemSink
	DW	0fe9H
	DW	04a8bH
	DB	097H
	DB	095H
	DB	0acH
	DB	032H
	DB	067H
	DB	05aH
	DB	0f8H
	DB	0b1H
?IID_IServerUserManager@@3U_GUID@@B DD 077a3c4dfH	; IID_IServerUserManager
	DW	01d95H
	DW	048c6H
	DB	0acH
	DB	09dH
	DB	075H
	DB	0d7H
	DB	06cH
	DB	02aH
	DB	03cH
	DB	0eH
?IID_ITableFrame@@3U_GUID@@B DD 0860cd1cfH		; IID_ITableFrame
	DW	01a4fH
	DW	04e35H
	DB	0b8H
	DB	0cH
	DB	0d2H
	DB	046H
	DB	0a4H
	DB	0efH
	DB	0fdH
	DB	0fbH
?IID_IMainServiceFrame@@3U_GUID@@B DD 0baaf5584H	; IID_IMainServiceFrame
	DW	0f9b4H
	DW	041b6H
	DB	0aeH
	DB	06bH
	DB	0efH
	DB	04dH
	DB	054H
	DB	041H
	DB	0f8H
	DB	032H
CONST	ENDS
PUBLIC	??_H@YGXPAXIIP6EPAX0@Z@Z			; `vector constructor iterator'
PUBLIC	?__empty_global_delete@@YAXPAX@Z		; __empty_global_delete
PUBLIC	?__empty_global_delete@@YAXPAXI@Z		; __empty_global_delete
PUBLIC	??2@YAPAXIPAX@Z					; operator new
PUBLIC	_IsEqualGUID
PUBLIC	_==
PUBLIC	___local_stdio_printf_options
PUBLIC	__vswprintf_s_l
PUBLIC	_swprintf_s
PUBLIC	__vsnprintf_l
PUBLIC	__vsnprintf
PUBLIC	__vsnprintf_s_l
PUBLIC	__vsnprintf_s
PUBLIC	__snprintf
PUBLIC	?AfxAssertFailedLine@@YGHPBDH@Z			; AfxAssertFailedLine
PUBLIC	??0?$CTraceCategoryEx@$0CAAA@$0A@@ATL@@QAE@PBD@Z ; ATL::CTraceCategoryEx<8192,0>::CTraceCategoryEx<8192,0>
PUBLIC	??0?$CTraceCategoryEx@$0CAAAA@$0A@@ATL@@QAE@PBD@Z ; ATL::CTraceCategoryEx<131072,0>::CTraceCategoryEx<131072,0>
PUBLIC	?RegisterCategory@CTrace@ATL@@SAXPBDI@Z		; ATL::CTrace::RegisterCategory
PUBLIC	?data@CPlex@@QAEPAXXZ				; CPlex::data
PUBLIC	??$HashKey@K@@YGIK@Z				; HashKey<unsigned long>
PUBLIC	??0tagPersonalUserScoreInfo@@QAE@XZ		; tagPersonalUserScoreInfo::tagPersonalUserScoreInfo
PUBLIC	??0IUnknownEx@@QAE@XZ				; IUnknownEx::IUnknownEx
PUBLIC	?GetProductVer@@YAEK@Z				; GetProductVer
PUBLIC	?GetMainVer@@YAEK@Z				; GetMainVer
PUBLIC	?GetSubVer@@YAEK@Z				; GetSubVer
PUBLIC	?GetBuildVer@@YAEK@Z				; GetBuildVer
PUBLIC	?InterfaceVersionCompare@@YA_NKK@Z		; InterfaceVersionCompare
PUBLIC	??0CSendPacketHelper@@QAE@PAXG@Z		; CSendPacketHelper::CSendPacketHelper
PUBLIC	?GetDataSize@CSendPacketHelper@@QAEGXZ		; CSendPacketHelper::GetDataSize
PUBLIC	?AddPacket@CSendPacketHelper@@QAE_NPBDG@Z	; CSendPacketHelper::AddPacket
PUBLIC	?AddPacket@CSendPacketHelper@@QAE_NPAXGG@Z	; CSendPacketHelper::AddPacket
PUBLIC	??0CRecvPacketHelper@@QAE@PBXG@Z		; CRecvPacketHelper::CRecvPacketHelper
PUBLIC	?GetData@CRecvPacketHelper@@QAEPAXAAUtagDataDescribe@@@Z ; CRecvPacketHelper::GetData
PUBLIC	?IsForfendGameChat@CServerRule@@SA_NK@Z		; CServerRule::IsForfendGameChat
PUBLIC	?IsForfendRoomChat@CServerRule@@SA_NK@Z		; CServerRule::IsForfendRoomChat
PUBLIC	?IsForfendWisperChat@CServerRule@@SA_NK@Z	; CServerRule::IsForfendWisperChat
PUBLIC	?IsForfendWisperOnGame@CServerRule@@SA_NK@Z	; CServerRule::IsForfendWisperOnGame
PUBLIC	?IsAllowDynamicJoin@CServerRule@@SA_NK@Z	; CServerRule::IsAllowDynamicJoin
PUBLIC	?IsAllowOffLineTrustee@CServerRule@@SA_NK@Z	; CServerRule::IsAllowOffLineTrustee
PUBLIC	?IsAllowAvertCheatMode@CServerRule@@SA_NK@Z	; CServerRule::IsAllowAvertCheatMode
PUBLIC	?IsRecordGameScore@CServerRule@@SA_NK@Z		; CServerRule::IsRecordGameScore
PUBLIC	?IsRecordGameTrack@CServerRule@@SA_NK@Z		; CServerRule::IsRecordGameTrack
PUBLIC	?IsImmediateWriteScore@CServerRule@@SA_NK@Z	; CServerRule::IsImmediateWriteScore
PUBLIC	?IsForfendRoomEnter@CServerRule@@SA_NK@Z	; CServerRule::IsForfendRoomEnter
PUBLIC	?IsForfendGameEnter@CServerRule@@SA_NK@Z	; CServerRule::IsForfendGameEnter
PUBLIC	?IsForfendGameLookon@CServerRule@@SA_NK@Z	; CServerRule::IsForfendGameLookon
PUBLIC	?IsForfendTakeInRoom@CServerRule@@SA_NK@Z	; CServerRule::IsForfendTakeInRoom
PUBLIC	?IsForfendTakeInGame@CServerRule@@SA_NK@Z	; CServerRule::IsForfendTakeInGame
PUBLIC	?IsForfendSaveInRoom@CServerRule@@SA_NK@Z	; CServerRule::IsForfendSaveInRoom
PUBLIC	?IsForfendSaveInGame@CServerRule@@SA_NK@Z	; CServerRule::IsForfendSaveInGame
PUBLIC	?IsForfendGameRule@CServerRule@@SA_NK@Z		; CServerRule::IsForfendGameRule
PUBLIC	?IsForfendLockTable@CServerRule@@SA_NK@Z	; CServerRule::IsForfendLockTable
PUBLIC	?IsAllowAndroidAttend@CServerRule@@SA_NK@Z	; CServerRule::IsAllowAndroidAttend
PUBLIC	?IsAllowAndroidSimulate@CServerRule@@SA_NK@Z	; CServerRule::IsAllowAndroidSimulate
PUBLIC	?SetForfendGameChat@CServerRule@@SAXAAK_N@Z	; CServerRule::SetForfendGameChat
PUBLIC	?SetForfendRoomChat@CServerRule@@SAXAAK_N@Z	; CServerRule::SetForfendRoomChat
PUBLIC	?SetForfendWisperChat@CServerRule@@SAXAAK_N@Z	; CServerRule::SetForfendWisperChat
PUBLIC	?SetForfendWisperOnGame@CServerRule@@SAXAAK_N@Z	; CServerRule::SetForfendWisperOnGame
PUBLIC	?SetAllowDynamicJoin@CServerRule@@SAXAAK_N@Z	; CServerRule::SetAllowDynamicJoin
PUBLIC	?SetAllowOffLineTrustee@CServerRule@@SAXAAK_N@Z	; CServerRule::SetAllowOffLineTrustee
PUBLIC	?SetRecordGameScore@CServerRule@@SAXAAK_N@Z	; CServerRule::SetRecordGameScore
PUBLIC	?SetRecordGameTrack@CServerRule@@SAXAAK_N@Z	; CServerRule::SetRecordGameTrack
PUBLIC	?SetImmediateWriteScore@CServerRule@@SAXAAK_N@Z	; CServerRule::SetImmediateWriteScore
PUBLIC	?SetForfendRoomEnter@CServerRule@@SAXAAK_N@Z	; CServerRule::SetForfendRoomEnter
PUBLIC	?SetForfendGameEnter@CServerRule@@SAXAAK_N@Z	; CServerRule::SetForfendGameEnter
PUBLIC	?SetForfendGameLookon@CServerRule@@SAXAAK_N@Z	; CServerRule::SetForfendGameLookon
PUBLIC	?SetForfendTakeInRoom@CServerRule@@SAXAAK_N@Z	; CServerRule::SetForfendTakeInRoom
PUBLIC	?SetForfendTakeInGame@CServerRule@@SAXAAK_N@Z	; CServerRule::SetForfendTakeInGame
PUBLIC	?SetForfendSaveInRoom@CServerRule@@SAXAAK_N@Z	; CServerRule::SetForfendSaveInRoom
PUBLIC	?SetForfendSaveInGame@CServerRule@@SAXAAK_N@Z	; CServerRule::SetForfendSaveInGame
PUBLIC	?SetForfendGameRule@CServerRule@@SAXAAK_N@Z	; CServerRule::SetForfendGameRule
PUBLIC	?SetForfendLockTable@CServerRule@@SAXAAK_N@Z	; CServerRule::SetForfendLockTable
PUBLIC	?SetAllowAndroidAttend@CServerRule@@SAXAAK_N@Z	; CServerRule::SetAllowAndroidAttend
PUBLIC	?IsSuportPlayBack@CServerRule@@SA_NK@Z		; CServerRule::IsSuportPlayBack
PUBLIC	?CanWisper@CUserRight@@SA_NK@Z			; CUserRight::CanWisper
PUBLIC	?CanRoomChat@CUserRight@@SA_NK@Z		; CUserRight::CanRoomChat
PUBLIC	?CanKillOutUser@CUserRight@@SA_NK@Z		; CUserRight::CanKillOutUser
PUBLIC	?IsGameMatchUser@CUserRight@@SA_NK@Z		; CUserRight::IsGameMatchUser
PUBLIC	?IsGameCheatUser@CUserRight@@SA_NK@Z		; CUserRight::IsGameCheatUser
PUBLIC	?CanLimitWisper@CMasterRight@@SA_NK@Z		; CMasterRight::CanLimitWisper
PUBLIC	?CanLimitRoomChat@CMasterRight@@SA_NK@Z		; CMasterRight::CanLimitRoomChat
PUBLIC	?CanLimitGameChat@CMasterRight@@SA_NK@Z		; CMasterRight::CanLimitGameChat
PUBLIC	?CanKillUser@CMasterRight@@SA_NK@Z		; CMasterRight::CanKillUser
PUBLIC	?CanDismissGame@CMasterRight@@SA_NK@Z		; CMasterRight::CanDismissGame
PUBLIC	?CanLimitUserChat@CMasterRight@@SA_NK@Z		; CMasterRight::CanLimitUserChat
PUBLIC	?CanSendWarning@CMasterRight@@SA_NK@Z		; CMasterRight::CanSendWarning
PUBLIC	?CanIssueMessage@CMasterRight@@SA_NK@Z		; CMasterRight::CanIssueMessage
PUBLIC	?CanManagerAndroid@CMasterRight@@SA_NK@Z	; CMasterRight::CanManagerAndroid
PUBLIC	??0CMD_CS_C_UpdateTablePlayerCount@@QAE@XZ	; CMD_CS_C_UpdateTablePlayerCount::CMD_CS_C_UpdateTablePlayerCount
PUBLIC	??0CMD_CS_C_DismissTable@@QAE@XZ		; CMD_CS_C_DismissTable::CMD_CS_C_DismissTable
PUBLIC	??0CMD_GR_DissumeTable@@QAE@XZ			; CMD_GR_DissumeTable::CMD_GR_DissumeTable
PUBLIC	??0IAttemperEngineSink@@QAE@XZ			; IAttemperEngineSink::IAttemperEngineSink
PUBLIC	??C?$CTempldateHelper@UITCPNetworkEngine@@@@QBEPAUITCPNetworkEngine@@XZ ; CTempldateHelper<ITCPNetworkEngine>::operator->
PUBLIC	?GetInterface@?$CTempldateHelper@UITCPNetworkEngine@@@@QBEPAUITCPNetworkEngine@@XZ ; CTempldateHelper<ITCPNetworkEngine>::GetInterface
PUBLIC	??0IServerUserItemSink@@QAE@XZ			; IServerUserItemSink::IServerUserItemSink
PUBLIC	??0IMainServiceFrame@@QAE@XZ			; IMainServiceFrame::IMainServiceFrame
PUBLIC	??$SerializeElements@K@@YGXAAVCArchive@@PAKH@Z	; SerializeElements<unsigned long>
PUBLIC	??$DumpElements@K@@YGXAAVCDumpContext@@PBKH@Z	; DumpElements<unsigned long>
PUBLIC	??$CompareElements@KK@@YGHPBK0@Z		; CompareElements<unsigned long,unsigned long>
PUBLIC	?GetCount@CDistributeManager@@QAEGXZ		; CDistributeManager::GetCount
PUBLIC	?SetDistributeRule@CDistributeManager@@QAEXE@Z	; CDistributeManager::SetDistributeRule
PUBLIC	??0?$CWHArray@PBDABQBD@@QAE@XZ			; CWHArray<char const *,char const * const &>::CWHArray<char const *,char const * const &>
PUBLIC	??1?$CWHArray@PBDABQBD@@UAE@XZ			; CWHArray<char const *,char const * const &>::~CWHArray<char const *,char const * const &>
PUBLIC	??_G?$CWHArray@PBDABQBD@@UAEPAXI@Z		; CWHArray<char const *,char const * const &>::`scalar deleting destructor'
PUBLIC	??0CFilterTree@@QAE@XZ				; CFilterTree::CFilterTree
PUBLIC	??0CSensitiveWordsFilter@@QAE@XZ		; CSensitiveWordsFilter::CSensitiveWordsFilter
PUBLIC	??1CSensitiveWordsFilter@@UAE@XZ		; CSensitiveWordsFilter::~CSensitiveWordsFilter
PUBLIC	??_GCSensitiveWordsFilter@@UAEPAXI@Z		; CSensitiveWordsFilter::`scalar deleting destructor'
PUBLIC	??0?$CWHArray@PAUtagPersonalTableParameter@@ABQAU1@@@QAE@XZ ; CWHArray<tagPersonalTableParameter *,tagPersonalTableParameter * const &>::CWHArray<tagPersonalTableParameter *,tagPersonalTableParameter * const &>
PUBLIC	??1?$CWHArray@PAUtagPersonalTableParameter@@ABQAU1@@@UAE@XZ ; CWHArray<tagPersonalTableParameter *,tagPersonalTableParameter * const &>::~CWHArray<tagPersonalTableParameter *,tagPersonalTableParameter * const &>
PUBLIC	?GetCount@?$CWHArray@PAUtagPersonalTableParameter@@ABQAU1@@@QBEHXZ ; CWHArray<tagPersonalTableParameter *,tagPersonalTableParameter * const &>::GetCount
PUBLIC	?Add@?$CWHArray@PAUtagPersonalTableParameter@@ABQAU1@@@QAEHABQAUtagPersonalTableParameter@@@Z ; CWHArray<tagPersonalTableParameter *,tagPersonalTableParameter * const &>::Add
PUBLIC	?GetAt@?$CWHArray@PAUtagPersonalTableParameter@@ABQAU1@@@QAEAAPAUtagPersonalTableParameter@@H@Z ; CWHArray<tagPersonalTableParameter *,tagPersonalTableParameter * const &>::GetAt
PUBLIC	?SetSize@?$CWHArray@PAUtagPersonalTableParameter@@ABQAU1@@@QAEXH@Z ; CWHArray<tagPersonalTableParameter *,tagPersonalTableParameter * const &>::SetSize
PUBLIC	?SetAtGrow@?$CWHArray@PAUtagPersonalTableParameter@@ABQAU1@@@QAEXHABQAUtagPersonalTableParameter@@@Z ; CWHArray<tagPersonalTableParameter *,tagPersonalTableParameter * const &>::SetAtGrow
PUBLIC	?RemoveAll@?$CWHArray@PAUtagPersonalTableParameter@@ABQAU1@@@QAEXXZ ; CWHArray<tagPersonalTableParameter *,tagPersonalTableParameter * const &>::RemoveAll
PUBLIC	?AllocMemory@?$CWHArray@PAUtagPersonalTableParameter@@ABQAU1@@@QAEXH@Z ; CWHArray<tagPersonalTableParameter *,tagPersonalTableParameter * const &>::AllocMemory
PUBLIC	??_G?$CWHArray@PAUtagPersonalTableParameter@@ABQAU1@@@UAEPAXI@Z ; CWHArray<tagPersonalTableParameter *,tagPersonalTableParameter * const &>::`scalar deleting destructor'
PUBLIC	??0?$CWHArray@PAVCTableFrame@@ABQAV1@@@QAE@XZ	; CWHArray<CTableFrame *,CTableFrame * const &>::CWHArray<CTableFrame *,CTableFrame * const &>
PUBLIC	??1?$CWHArray@PAVCTableFrame@@ABQAV1@@@UAE@XZ	; CWHArray<CTableFrame *,CTableFrame * const &>::~CWHArray<CTableFrame *,CTableFrame * const &>
PUBLIC	?GetCount@?$CWHArray@PAVCTableFrame@@ABQAV1@@@QBEHXZ ; CWHArray<CTableFrame *,CTableFrame * const &>::GetCount
PUBLIC	?GetData@?$CWHArray@PAVCTableFrame@@ABQAV1@@@QAEPAPAVCTableFrame@@XZ ; CWHArray<CTableFrame *,CTableFrame * const &>::GetData
PUBLIC	?GetAt@?$CWHArray@PAVCTableFrame@@ABQAV1@@@QAEAAPAVCTableFrame@@H@Z ; CWHArray<CTableFrame *,CTableFrame * const &>::GetAt
PUBLIC	?ElementAt@?$CWHArray@PAVCTableFrame@@ABQAV1@@@QAEAAPAVCTableFrame@@H@Z ; CWHArray<CTableFrame *,CTableFrame * const &>::ElementAt
PUBLIC	?SetSize@?$CWHArray@PAVCTableFrame@@ABQAV1@@@QAEXH@Z ; CWHArray<CTableFrame *,CTableFrame * const &>::SetSize
PUBLIC	?RemoveAll@?$CWHArray@PAVCTableFrame@@ABQAV1@@@QAEXXZ ; CWHArray<CTableFrame *,CTableFrame * const &>::RemoveAll
PUBLIC	??A?$CWHArray@PAVCTableFrame@@ABQAV1@@@QAEAAPAVCTableFrame@@H@Z ; CWHArray<CTableFrame *,CTableFrame * const &>::operator[]
PUBLIC	?AllocMemory@?$CWHArray@PAVCTableFrame@@ABQAV1@@@QAEXH@Z ; CWHArray<CTableFrame *,CTableFrame * const &>::AllocMemory
PUBLIC	??_G?$CWHArray@PAVCTableFrame@@ABQAV1@@@UAEPAXI@Z ; CWHArray<CTableFrame *,CTableFrame * const &>::`scalar deleting destructor'
PUBLIC	??0?$CMap@KKKAAK@@QAE@H@Z			; CMap<unsigned long,unsigned long,unsigned long,unsigned long &>::CMap<unsigned long,unsigned long,unsigned long,unsigned long &>
PUBLIC	?Lookup@?$CMap@KKKAAK@@QBEHKAAK@Z		; CMap<unsigned long,unsigned long,unsigned long,unsigned long &>::Lookup
PUBLIC	??A?$CMap@KKKAAK@@QAEAAKK@Z			; CMap<unsigned long,unsigned long,unsigned long,unsigned long &>::operator[]
PUBLIC	?SetAt@?$CMap@KKKAAK@@QAEXKAAK@Z		; CMap<unsigned long,unsigned long,unsigned long,unsigned long &>::SetAt
PUBLIC	?RemoveKey@?$CMap@KKKAAK@@QAEHK@Z		; CMap<unsigned long,unsigned long,unsigned long,unsigned long &>::RemoveKey
PUBLIC	?RemoveAll@?$CMap@KKKAAK@@QAEXXZ		; CMap<unsigned long,unsigned long,unsigned long,unsigned long &>::RemoveAll
PUBLIC	?GetStartPosition@?$CMap@KKKAAK@@QBEPAU__POSITION@@XZ ; CMap<unsigned long,unsigned long,unsigned long,unsigned long &>::GetStartPosition
PUBLIC	?GetNextAssoc@?$CMap@KKKAAK@@QBEXAAPAU__POSITION@@AAK1@Z ; CMap<unsigned long,unsigned long,unsigned long,unsigned long &>::GetNextAssoc
PUBLIC	?InitHashTable@?$CMap@KKKAAK@@QAEXIH@Z		; CMap<unsigned long,unsigned long,unsigned long,unsigned long &>::InitHashTable
PUBLIC	?NewAssoc@?$CMap@KKKAAK@@IAEPAVCAssoc@1@K@Z	; CMap<unsigned long,unsigned long,unsigned long,unsigned long &>::NewAssoc
PUBLIC	?FreeAssoc@?$CMap@KKKAAK@@IAEXPAVCAssoc@1@@Z	; CMap<unsigned long,unsigned long,unsigned long,unsigned long &>::FreeAssoc
PUBLIC	?GetAssocAt@?$CMap@KKKAAK@@IBEPAVCAssoc@1@KAAI0@Z ; CMap<unsigned long,unsigned long,unsigned long,unsigned long &>::GetAssocAt
PUBLIC	??1?$CMap@KKKAAK@@UAE@XZ			; CMap<unsigned long,unsigned long,unsigned long,unsigned long &>::~CMap<unsigned long,unsigned long,unsigned long,unsigned long &>
PUBLIC	?Serialize@?$CMap@KKKAAK@@UAEXAAVCArchive@@@Z	; CMap<unsigned long,unsigned long,unsigned long,unsigned long &>::Serialize
PUBLIC	?Dump@?$CMap@KKKAAK@@UBEXAAVCDumpContext@@@Z	; CMap<unsigned long,unsigned long,unsigned long,unsigned long &>::Dump
PUBLIC	?AssertValid@?$CMap@KKKAAK@@UBEXXZ		; CMap<unsigned long,unsigned long,unsigned long,unsigned long &>::AssertValid
PUBLIC	??_G?$CMap@KKKAAK@@UAEPAXI@Z			; CMap<unsigned long,unsigned long,unsigned long,unsigned long &>::`scalar deleting destructor'
PUBLIC	??0?$CWHArray@PAUtagSystemMessage@@ABQAU1@@@QAE@XZ ; CWHArray<tagSystemMessage *,tagSystemMessage * const &>::CWHArray<tagSystemMessage *,tagSystemMessage * const &>
PUBLIC	??1?$CWHArray@PAUtagSystemMessage@@ABQAU1@@@UAE@XZ ; CWHArray<tagSystemMessage *,tagSystemMessage * const &>::~CWHArray<tagSystemMessage *,tagSystemMessage * const &>
PUBLIC	?GetCount@?$CWHArray@PAUtagSystemMessage@@ABQAU1@@@QBEHXZ ; CWHArray<tagSystemMessage *,tagSystemMessage * const &>::GetCount
PUBLIC	?Add@?$CWHArray@PAUtagSystemMessage@@ABQAU1@@@QAEHABQAUtagSystemMessage@@@Z ; CWHArray<tagSystemMessage *,tagSystemMessage * const &>::Add
PUBLIC	?Append@?$CWHArray@PAUtagSystemMessage@@ABQAU1@@@QAEHABV1@@Z ; CWHArray<tagSystemMessage *,tagSystemMessage * const &>::Append
PUBLIC	?ElementAt@?$CWHArray@PAUtagSystemMessage@@ABQAU1@@@QAEAAPAUtagSystemMessage@@H@Z ; CWHArray<tagSystemMessage *,tagSystemMessage * const &>::ElementAt
PUBLIC	?SetSize@?$CWHArray@PAUtagSystemMessage@@ABQAU1@@@QAEXH@Z ; CWHArray<tagSystemMessage *,tagSystemMessage * const &>::SetSize
PUBLIC	?SetAtGrow@?$CWHArray@PAUtagSystemMessage@@ABQAU1@@@QAEXHABQAUtagSystemMessage@@@Z ; CWHArray<tagSystemMessage *,tagSystemMessage * const &>::SetAtGrow
PUBLIC	?RemoveAt@?$CWHArray@PAUtagSystemMessage@@ABQAU1@@@QAEXHH@Z ; CWHArray<tagSystemMessage *,tagSystemMessage * const &>::RemoveAt
PUBLIC	?RemoveAll@?$CWHArray@PAUtagSystemMessage@@ABQAU1@@@QAEXXZ ; CWHArray<tagSystemMessage *,tagSystemMessage * const &>::RemoveAll
PUBLIC	??A?$CWHArray@PAUtagSystemMessage@@ABQAU1@@@QAEAAPAUtagSystemMessage@@H@Z ; CWHArray<tagSystemMessage *,tagSystemMessage * const &>::operator[]
PUBLIC	?AllocMemory@?$CWHArray@PAUtagSystemMessage@@ABQAU1@@@QAEXH@Z ; CWHArray<tagSystemMessage *,tagSystemMessage * const &>::AllocMemory
PUBLIC	??_G?$CWHArray@PAUtagSystemMessage@@ABQAU1@@@UAEPAXI@Z ; CWHArray<tagSystemMessage *,tagSystemMessage * const &>::`scalar deleting destructor'
PUBLIC	??0CAttemperEngineSink@@QAE@XZ			; CAttemperEngineSink::CAttemperEngineSink
PUBLIC	??1CAttemperEngineSink@@UAE@XZ			; CAttemperEngineSink::~CAttemperEngineSink
PUBLIC	?Release@CAttemperEngineSink@@UAEXXZ		; CAttemperEngineSink::Release
PUBLIC	?QueryInterface@CAttemperEngineSink@@UAEPAXABU_GUID@@K@Z ; CAttemperEngineSink::QueryInterface
PUBLIC	?OnAttemperEngineStart@CAttemperEngineSink@@UAE_NPAUIUnknownEx@@@Z ; CAttemperEngineSink::OnAttemperEngineStart
PUBLIC	?OnAttemperEngineConclude@CAttemperEngineSink@@UAE_NPAUIUnknownEx@@@Z ; CAttemperEngineSink::OnAttemperEngineConclude
PUBLIC	?OnEventControl@CAttemperEngineSink@@UAE_NGPAXG@Z ; CAttemperEngineSink::OnEventControl
PUBLIC	?OnEventAttemperData@CAttemperEngineSink@@UAE_NGPAXG@Z ; CAttemperEngineSink::OnEventAttemperData
PUBLIC	?OnEventTimer@CAttemperEngineSink@@UAE_NKI@Z	; CAttemperEngineSink::OnEventTimer
PUBLIC	?OnEventDataBase@CAttemperEngineSink@@UAE_NGKPAXG@Z ; CAttemperEngineSink::OnEventDataBase
PUBLIC	?OnEventTCPSocketLink@CAttemperEngineSink@@UAE_NGH@Z ; CAttemperEngineSink::OnEventTCPSocketLink
PUBLIC	?OnEventTCPSocketShut@CAttemperEngineSink@@UAE_NGE@Z ; CAttemperEngineSink::OnEventTCPSocketShut
PUBLIC	?OnEventTCPSocketRead@CAttemperEngineSink@@UAE_NGUTCP_Command@@PAXG@Z ; CAttemperEngineSink::OnEventTCPSocketRead
PUBLIC	?OnEventTCPNetworkBind@CAttemperEngineSink@@UAE_NKK@Z ; CAttemperEngineSink::OnEventTCPNetworkBind
PUBLIC	?OnEventTCPNetworkShut@CAttemperEngineSink@@UAE_NKKK@Z ; CAttemperEngineSink::OnEventTCPNetworkShut
PUBLIC	?OnEventTCPNetworkRead@CAttemperEngineSink@@UAE_NUTCP_Command@@PAXGK@Z ; CAttemperEngineSink::OnEventTCPNetworkRead
PUBLIC	?SendRoomMessage@CAttemperEngineSink@@UAE_NPBDG@Z ; CAttemperEngineSink::SendRoomMessage
PUBLIC	?SendGameMessage@CAttemperEngineSink@@UAE_NPBDG@Z ; CAttemperEngineSink::SendGameMessage
PUBLIC	?SendRoomMessage@CAttemperEngineSink@@UAE_NPAUIServerUserItem@@PBDG@Z ; CAttemperEngineSink::SendRoomMessage
PUBLIC	?SendGameMessage@CAttemperEngineSink@@UAE_NPAUIServerUserItem@@PBDG@Z ; CAttemperEngineSink::SendGameMessage
PUBLIC	?SendRoomMessage@CAttemperEngineSink@@UAE_NKPBDG_N@Z ; CAttemperEngineSink::SendRoomMessage
PUBLIC	?SendData@CAttemperEngineSink@@UAE_NEGGPAXG@Z	; CAttemperEngineSink::SendData
PUBLIC	?SendData@CAttemperEngineSink@@UAE_NKGGPAXG@Z	; CAttemperEngineSink::SendData
PUBLIC	?SendData@CAttemperEngineSink@@UAE_NPAUIServerUserItem@@GGPAXG@Z ; CAttemperEngineSink::SendData
PUBLIC	?SendDataBatchToMobileUser@CAttemperEngineSink@@UAE_NGGGPAXG@Z ; CAttemperEngineSink::SendDataBatchToMobileUser
PUBLIC	?SendDataBatchToCheatUser@CAttemperEngineSink@@UAE_NPAUIServerUserItem@@GGPAXG@Z ; CAttemperEngineSink::SendDataBatchToCheatUser
PUBLIC	?DisconnectCorrespond@CAttemperEngineSink@@UAE_NXZ ; CAttemperEngineSink::DisconnectCorrespond
PUBLIC	?InsertDistribute@CAttemperEngineSink@@UAE_NPAUIServerUserItem@@@Z ; CAttemperEngineSink::InsertDistribute
PUBLIC	?DeleteDistribute@CAttemperEngineSink@@UAE_NPAUIServerUserItem@@@Z ; CAttemperEngineSink::DeleteDistribute
PUBLIC	?SensitiveWordFilter@CAttemperEngineSink@@UAEXPBDPADH@Z ; CAttemperEngineSink::SensitiveWordFilter
PUBLIC	?UnLockAndroidUser@CAttemperEngineSink@@UAEXGG@Z ; CAttemperEngineSink::UnLockAndroidUser
PUBLIC	?DismissPersonalTable@CAttemperEngineSink@@UAEXGG@Z ; CAttemperEngineSink::DismissPersonalTable
PUBLIC	?CancelCreateTable@CAttemperEngineSink@@UAEXKKKKGK@Z ; CAttemperEngineSink::CancelCreateTable
PUBLIC	?UpdateTablePlayerCount@CAttemperEngineSink@@UAEXGGG@Z ; CAttemperEngineSink::UpdateTablePlayerCount
PUBLIC	?PersonalRoomWriteJoinInfo@CAttemperEngineSink@@UAEXKGGKKPAD@Z ; CAttemperEngineSink::PersonalRoomWriteJoinInfo
PUBLIC	?OnEventUserItemScore@CAttemperEngineSink@@UAE_NPAUIServerUserItem@@E@Z ; CAttemperEngineSink::OnEventUserItemScore
PUBLIC	?OnEventUserItemStatus@CAttemperEngineSink@@UAE_NPAUIServerUserItem@@GG@Z ; CAttemperEngineSink::OnEventUserItemStatus
PUBLIC	?OnEventUserItemRight@CAttemperEngineSink@@UAE_NPAUIServerUserItem@@KKE@Z ; CAttemperEngineSink::OnEventUserItemRight
PUBLIC	?OnEventUserItemGameData@CAttemperEngineSink@@UAE_NPAUIServerUserItem@@E@Z ; CAttemperEngineSink::OnEventUserItemGameData
PUBLIC	?OnDBLogonSuccess@CAttemperEngineSink@@IAE_NKPAXG@Z ; CAttemperEngineSink::OnDBLogonSuccess
PUBLIC	?OnDBLogonFailure@CAttemperEngineSink@@IAE_NKPAXG@Z ; CAttemperEngineSink::OnDBLogonFailure
PUBLIC	?OnDBGameParameter@CAttemperEngineSink@@IAE_NKPAXG@Z ; CAttemperEngineSink::OnDBGameParameter
PUBLIC	?OnDBGameColumnInfo@CAttemperEngineSink@@IAE_NKPAXG@Z ; CAttemperEngineSink::OnDBGameColumnInfo
PUBLIC	?OnDBGameAndroidInfo@CAttemperEngineSink@@IAE_NKPAXG@Z ; CAttemperEngineSink::OnDBGameAndroidInfo
PUBLIC	?OnDBGameAndroidParameter@CAttemperEngineSink@@IAE_NKPAXG@Z ; CAttemperEngineSink::OnDBGameAndroidParameter
PUBLIC	?OnDBGamePropertyBuff@CAttemperEngineSink@@IAE_NKPAXG@Z ; CAttemperEngineSink::OnDBGamePropertyBuff
PUBLIC	?OnDBGameLoadTrumpet@CAttemperEngineSink@@IAE_NKPAXG@Z ; CAttemperEngineSink::OnDBGameLoadTrumpet
PUBLIC	?OnDBGameSendTrumpet@CAttemperEngineSink@@IAE_NKPAXG@Z ; CAttemperEngineSink::OnDBGameSendTrumpet
PUBLIC	?OnDBGameMemberParameter@CAttemperEngineSink@@IAE_NKPAXG@Z ; CAttemperEngineSink::OnDBGameMemberParameter
PUBLIC	?OnDBPCMemberDayQueryInfoResult@CAttemperEngineSink@@IAE_NKPAXG@Z ; CAttemperEngineSink::OnDBPCMemberDayQueryInfoResult
PUBLIC	?OnDBPCMemberDayPresentResult@CAttemperEngineSink@@IAE_NKPAXG@Z ; CAttemperEngineSink::OnDBPCMemberDayPresentResult
PUBLIC	?OnDBPCMemberDayGiftResult@CAttemperEngineSink@@IAE_NKPAXG@Z ; CAttemperEngineSink::OnDBPCMemberDayGiftResult
PUBLIC	?OnDBUserInsureInfo@CAttemperEngineSink@@IAE_NKPAXG@Z ; CAttemperEngineSink::OnDBUserInsureInfo
PUBLIC	?OnDBUserInsureSuccess@CAttemperEngineSink@@IAE_NKPAXG@Z ; CAttemperEngineSink::OnDBUserInsureSuccess
PUBLIC	?OnDBUserInsureFailure@CAttemperEngineSink@@IAE_NKPAXG@Z ; CAttemperEngineSink::OnDBUserInsureFailure
PUBLIC	?OnDBUserInsureUserInfo@CAttemperEngineSink@@IAE_NKPAXG@Z ; CAttemperEngineSink::OnDBUserInsureUserInfo
PUBLIC	?OnDBUserInsureEnableResult@CAttemperEngineSink@@IAE_NKPAXG@Z ; CAttemperEngineSink::OnDBUserInsureEnableResult
PUBLIC	?OnDBPCUserCheckInInfo@CAttemperEngineSink@@IAE_NKPAXG@Z ; CAttemperEngineSink::OnDBPCUserCheckInInfo
PUBLIC	?OnDBPCUserCheckInResult@CAttemperEngineSink@@IAE_NKPAXG@Z ; CAttemperEngineSink::OnDBPCUserCheckInResult
PUBLIC	?OnDBPCCheckInReward@CAttemperEngineSink@@IAE_NKPAXG@Z ; CAttemperEngineSink::OnDBPCCheckInReward
PUBLIC	?OnDBPCBaseEnsureParameter@CAttemperEngineSink@@IAE_NKPAXG@Z ; CAttemperEngineSink::OnDBPCBaseEnsureParameter
PUBLIC	?OnDBPCBaseEnsureResult@CAttemperEngineSink@@IAE_NKPAXG@Z ; CAttemperEngineSink::OnDBPCBaseEnsureResult
PUBLIC	?OnDBUserTaskList@CAttemperEngineSink@@IAE_NKPAXG@Z ; CAttemperEngineSink::OnDBUserTaskList
PUBLIC	?OnDBUserTaskListEnd@CAttemperEngineSink@@IAE_NKPAXG@Z ; CAttemperEngineSink::OnDBUserTaskListEnd
PUBLIC	?OnDBUserTaskInfo@CAttemperEngineSink@@IAE_NKPAXG@Z ; CAttemperEngineSink::OnDBUserTaskInfo
PUBLIC	?OnDBUserTaskResult@CAttemperEngineSink@@IAE_NKPAXG@Z ; CAttemperEngineSink::OnDBUserTaskResult
PUBLIC	?OnDBPropertySuccess@CAttemperEngineSink@@IAE_NKPAXG@Z ; CAttemperEngineSink::OnDBPropertySuccess
PUBLIC	?OnDBPropertyFailure@CAttemperEngineSink@@IAE_NKPAXG@Z ; CAttemperEngineSink::OnDBPropertyFailure
PUBLIC	?OnDBGamePropertyBuy@CAttemperEngineSink@@IAE_NKPAXG@Z ; CAttemperEngineSink::OnDBGamePropertyBuy
PUBLIC	?OnDBQueryPropertyBackpack@CAttemperEngineSink@@IAE_NKPAXG@Z ; CAttemperEngineSink::OnDBQueryPropertyBackpack
PUBLIC	?OnDBQueryPropertyUse@CAttemperEngineSink@@IAE_NKPAXG@Z ; CAttemperEngineSink::OnDBQueryPropertyUse
PUBLIC	?OnDBQuerySendPresent@CAttemperEngineSink@@IAE_NKPAXG@Z ; CAttemperEngineSink::OnDBQuerySendPresent
PUBLIC	?OnDBQueryPropertyPresent@CAttemperEngineSink@@IAE_NKPAXG@Z ; CAttemperEngineSink::OnDBQueryPropertyPresent
PUBLIC	?OnDBQueryGetSendPresent@CAttemperEngineSink@@IAE_NKPAXG@Z ; CAttemperEngineSink::OnDBQueryGetSendPresent
PUBLIC	?OnDBPurchaseResult@CAttemperEngineSink@@IAE_NKPAXG@Z ; CAttemperEngineSink::OnDBPurchaseResult
PUBLIC	?OnDBExChangeResult@CAttemperEngineSink@@IAE_NKPAXG@Z ; CAttemperEngineSink::OnDBExChangeResult
PUBLIC	?OnDBSystemMessage@CAttemperEngineSink@@IAE_NKPAXG@Z ; CAttemperEngineSink::OnDBSystemMessage
PUBLIC	?OnDBSensitiveWords@CAttemperEngineSink@@IAE_NKPAXG@Z ; CAttemperEngineSink::OnDBSensitiveWords
PUBLIC	?OnDBSystemMessageFinish@CAttemperEngineSink@@IAE_NKPAXG@Z ; CAttemperEngineSink::OnDBSystemMessageFinish
PUBLIC	?OnDBPCGrowLevelConfig@CAttemperEngineSink@@IAE_NKPAXG@Z ; CAttemperEngineSink::OnDBPCGrowLevelConfig
PUBLIC	?OnDBPCGrowLevelParameter@CAttemperEngineSink@@IAE_NKPAXG@Z ; CAttemperEngineSink::OnDBPCGrowLevelParameter
PUBLIC	?OnDBPCGrowLevelUpgrade@CAttemperEngineSink@@IAE_NKPAXG@Z ; CAttemperEngineSink::OnDBPCGrowLevelUpgrade
PUBLIC	?OnDBCreateSucess@CAttemperEngineSink@@IAE_NKPAXG@Z ; CAttemperEngineSink::OnDBCreateSucess
PUBLIC	?OnDBCreateFailure@CAttemperEngineSink@@IAE_NKPAXG@Z ; CAttemperEngineSink::OnDBCreateFailure
PUBLIC	?OnDBCancelCreateTable@CAttemperEngineSink@@IAE_NKPAXG@Z ; CAttemperEngineSink::OnDBCancelCreateTable
PUBLIC	?OnDBLoadPersonalParameter@CAttemperEngineSink@@IAE_NKPAXG@Z ; CAttemperEngineSink::OnDBLoadPersonalParameter
PUBLIC	?OnDBDissumeTableResult@CAttemperEngineSink@@IAE_NKPAXG@Z ; CAttemperEngineSink::OnDBDissumeTableResult
PUBLIC	?OnDBQueryUserRoomScore@CAttemperEngineSink@@IAE_NKPAXG@Z ; CAttemperEngineSink::OnDBQueryUserRoomScore
PUBLIC	?OnDBCurrenceRoomCardAndBeant@CAttemperEngineSink@@IAE_NKPAXG@Z ; CAttemperEngineSink::OnDBCurrenceRoomCardAndBeant
PUBLIC	?OnTCPSocketMainRegister@CAttemperEngineSink@@IAE_NGPAXG@Z ; CAttemperEngineSink::OnTCPSocketMainRegister
PUBLIC	?OnTCPSocketMainServiceInfo@CAttemperEngineSink@@IAE_NGPAXG@Z ; CAttemperEngineSink::OnTCPSocketMainServiceInfo
PUBLIC	?OnTCPSocketMainUserCollect@CAttemperEngineSink@@IAE_NGPAXG@Z ; CAttemperEngineSink::OnTCPSocketMainUserCollect
PUBLIC	?OnTCPSocketMainManagerService@CAttemperEngineSink@@IAE_NGPAXG@Z ; CAttemperEngineSink::OnTCPSocketMainManagerService
PUBLIC	?OnTCPSocketMainAndroidService@CAttemperEngineSink@@IAE_NGPAXG@Z ; CAttemperEngineSink::OnTCPSocketMainAndroidService
PUBLIC	?OnTCPSocketMainPersonalRoomRegister@CAttemperEngineSink@@IAE_NGPAXG@Z ; CAttemperEngineSink::OnTCPSocketMainPersonalRoomRegister
PUBLIC	?OnTCPNetworkMainUser@CAttemperEngineSink@@IAE_NGPAXGK@Z ; CAttemperEngineSink::OnTCPNetworkMainUser
PUBLIC	?OnTCPNetworkMainLogon@CAttemperEngineSink@@IAE_NGPAXGK@Z ; CAttemperEngineSink::OnTCPNetworkMainLogon
PUBLIC	?OnTCPNetworkMainGame@CAttemperEngineSink@@IAE_NGPAXGK@Z ; CAttemperEngineSink::OnTCPNetworkMainGame
PUBLIC	?OnTCPNetworkMainFrame@CAttemperEngineSink@@IAE_NGPAXGK@Z ; CAttemperEngineSink::OnTCPNetworkMainFrame
PUBLIC	?OnTCPNetworkMainInsure@CAttemperEngineSink@@IAE_NGPAXGK@Z ; CAttemperEngineSink::OnTCPNetworkMainInsure
PUBLIC	?OnTCPNetworkMainTask@CAttemperEngineSink@@IAE_NGPAXGK@Z ; CAttemperEngineSink::OnTCPNetworkMainTask
PUBLIC	?OnTCPNetworkMainBaseEnsure@CAttemperEngineSink@@IAE_NGPAXGK@Z ; CAttemperEngineSink::OnTCPNetworkMainBaseEnsure
PUBLIC	?OnTCPNetworkMainExchange@CAttemperEngineSink@@IAE_NGPAXGK@Z ; CAttemperEngineSink::OnTCPNetworkMainExchange
PUBLIC	?OnTCPNetworkMainMember@CAttemperEngineSink@@IAE_NGPAXGK@Z ; CAttemperEngineSink::OnTCPNetworkMainMember
PUBLIC	?OnTCPNetworkMainProperty@CAttemperEngineSink@@IAE_NGPAXGK@Z ; CAttemperEngineSink::OnTCPNetworkMainProperty
PUBLIC	?OnTCPNetworkMainManage@CAttemperEngineSink@@IAE_NGPAXGK@Z ; CAttemperEngineSink::OnTCPNetworkMainManage
PUBLIC	?OnTCPNetworkMainMatch@CAttemperEngineSink@@IAE_NGPAXGK@Z ; CAttemperEngineSink::OnTCPNetworkMainMatch
PUBLIC	?OnTCPNetworkMainCheckIn@CAttemperEngineSink@@IAE_NGPAXGK@Z ; CAttemperEngineSink::OnTCPNetworkMainCheckIn
PUBLIC	?OnTCPNetworkMainPersonalTable@CAttemperEngineSink@@IAE_NGPAXGK@Z ; CAttemperEngineSink::OnTCPNetworkMainPersonalTable
PUBLIC	?OnTCPNetworkSubLogonUserID@CAttemperEngineSink@@IAE_NPAXGK@Z ; CAttemperEngineSink::OnTCPNetworkSubLogonUserID
PUBLIC	?OnTCPNetworkSubLogonMobile@CAttemperEngineSink@@IAE_NPAXGK@Z ; CAttemperEngineSink::OnTCPNetworkSubLogonMobile
PUBLIC	?OnTCPNetworkSubLogonAccounts@CAttemperEngineSink@@IAE_NPAXGK@Z ; CAttemperEngineSink::OnTCPNetworkSubLogonAccounts
PUBLIC	?OnTCPNetworkSubUserRule@CAttemperEngineSink@@IAE_NPAXGK@Z ; CAttemperEngineSink::OnTCPNetworkSubUserRule
PUBLIC	?OnTCPNetworkSubUserLookon@CAttemperEngineSink@@IAE_NPAXGK@Z ; CAttemperEngineSink::OnTCPNetworkSubUserLookon
PUBLIC	?OnTCPNetworkSubUserSitDown@CAttemperEngineSink@@IAE_NPAXGK@Z ; CAttemperEngineSink::OnTCPNetworkSubUserSitDown
PUBLIC	?OnTCPNetworkSubUserStandUp@CAttemperEngineSink@@IAE_NPAXGK@Z ; CAttemperEngineSink::OnTCPNetworkSubUserStandUp
PUBLIC	?OnTCPNetworkSubUserChat@CAttemperEngineSink@@IAE_NPAXGK@Z ; CAttemperEngineSink::OnTCPNetworkSubUserChat
PUBLIC	?OnTCPNetworkSubWisperChat@CAttemperEngineSink@@IAE_NPAXGK@Z ; CAttemperEngineSink::OnTCPNetworkSubWisperChat
PUBLIC	?OnTCPNetworkSubUserExpression@CAttemperEngineSink@@IAE_NPAXGK@Z ; CAttemperEngineSink::OnTCPNetworkSubUserExpression
PUBLIC	?OnTCPNetworkSubWisperExpression@CAttemperEngineSink@@IAE_NPAXGK@Z ; CAttemperEngineSink::OnTCPNetworkSubWisperExpression
PUBLIC	?OnTCPNetworkSubGamePropertyBuy@CAttemperEngineSink@@IAE_NPAXGK@Z ; CAttemperEngineSink::OnTCPNetworkSubGamePropertyBuy
PUBLIC	?OnTCPNetworkSubPropertyBackpack@CAttemperEngineSink@@IAE_NPAXGK@Z ; CAttemperEngineSink::OnTCPNetworkSubPropertyBackpack
PUBLIC	?OnTCPNetworkSubPropertyUse@CAttemperEngineSink@@IAE_NPAXGK@Z ; CAttemperEngineSink::OnTCPNetworkSubPropertyUse
PUBLIC	?OnTCPNetworkSubQuerySendPresent@CAttemperEngineSink@@IAE_NPAXGK@Z ; CAttemperEngineSink::OnTCPNetworkSubQuerySendPresent
PUBLIC	?OnTCPNetworkSubPropertyPresent@CAttemperEngineSink@@IAE_NPAXGK@Z ; CAttemperEngineSink::OnTCPNetworkSubPropertyPresent
PUBLIC	?OnTCPNetworkSubGetSendPresent@CAttemperEngineSink@@IAE_NPAXGK@Z ; CAttemperEngineSink::OnTCPNetworkSubGetSendPresent
PUBLIC	?OnTCPNetwordSubSendTrumpet@CAttemperEngineSink@@IAE_NPAXGK@Z ; CAttemperEngineSink::OnTCPNetwordSubSendTrumpet
PUBLIC	?OnTCPNetworkSubUserInviteReq@CAttemperEngineSink@@IAE_NPAXGK@Z ; CAttemperEngineSink::OnTCPNetworkSubUserInviteReq
PUBLIC	?OnTCPNetworkSubUserRepulseSit@CAttemperEngineSink@@IAE_NPAXGK@Z ; CAttemperEngineSink::OnTCPNetworkSubUserRepulseSit
PUBLIC	?OnTCPNetworkSubMemberKickUser@CAttemperEngineSink@@IAE_NPAXGK@Z ; CAttemperEngineSink::OnTCPNetworkSubMemberKickUser
PUBLIC	?OnTCPNetworkSubUserInfoReq@CAttemperEngineSink@@IAE_NPAXGK@Z ; CAttemperEngineSink::OnTCPNetworkSubUserInfoReq
PUBLIC	?OnTCPNetworkSubUserChairReq@CAttemperEngineSink@@IAE_NPAXGK@Z ; CAttemperEngineSink::OnTCPNetworkSubUserChairReq
PUBLIC	?OnTCPNetworkSubChairUserInfoReq@CAttemperEngineSink@@IAE_NPAXGK@Z ; CAttemperEngineSink::OnTCPNetworkSubChairUserInfoReq
PUBLIC	?OnTCPNetworkSubGrowLevelQuery@CAttemperEngineSink@@IAE_NPAXGK@Z ; CAttemperEngineSink::OnTCPNetworkSubGrowLevelQuery
PUBLIC	?OnTCPNetworkSubQueryInsureInfo@CAttemperEngineSink@@IAE_NPAXGK@Z ; CAttemperEngineSink::OnTCPNetworkSubQueryInsureInfo
PUBLIC	?OnTCPNetworkSubEnableInsureRequest@CAttemperEngineSink@@IAE_NPAXGK@Z ; CAttemperEngineSink::OnTCPNetworkSubEnableInsureRequest
PUBLIC	?OnTCPNetworkSubSaveScoreRequest@CAttemperEngineSink@@IAE_NPAXGK@Z ; CAttemperEngineSink::OnTCPNetworkSubSaveScoreRequest
PUBLIC	?OnTCPNetworkSubTakeScoreRequest@CAttemperEngineSink@@IAE_NPAXGK@Z ; CAttemperEngineSink::OnTCPNetworkSubTakeScoreRequest
PUBLIC	?OnTCPNetworkSubTransferScoreRequest@CAttemperEngineSink@@IAE_NPAXGK@Z ; CAttemperEngineSink::OnTCPNetworkSubTransferScoreRequest
PUBLIC	?OnTCPNetworkSubQueryUserInfoRequest@CAttemperEngineSink@@IAE_NPAXGK@Z ; CAttemperEngineSink::OnTCPNetworkSubQueryUserInfoRequest
PUBLIC	?OnTCPNetworkSubCheckInQueryRequest@CAttemperEngineSink@@IAE_NPAXGK@Z ; CAttemperEngineSink::OnTCPNetworkSubCheckInQueryRequest
PUBLIC	?OnTCPNetworkSubCheckInDoneRequest@CAttemperEngineSink@@IAE_NPAXGK@Z ; CAttemperEngineSink::OnTCPNetworkSubCheckInDoneRequest
PUBLIC	?OnTCPNetworkSubBaseEnsureQueryRequest@CAttemperEngineSink@@IAE_NPAXGK@Z ; CAttemperEngineSink::OnTCPNetworkSubBaseEnsureQueryRequest
PUBLIC	?OnTCPNetworkSubBaseEnsureTakeRequest@CAttemperEngineSink@@IAE_NPAXGK@Z ; CAttemperEngineSink::OnTCPNetworkSubBaseEnsureTakeRequest
PUBLIC	?OnTCPNetworkSubTakeTaskRequest@CAttemperEngineSink@@IAE_NPAXGK@Z ; CAttemperEngineSink::OnTCPNetworkSubTakeTaskRequest
PUBLIC	?OnTCPNetworkSubTaskRewardRequest@CAttemperEngineSink@@IAE_NPAXGK@Z ; CAttemperEngineSink::OnTCPNetworkSubTaskRewardRequest
PUBLIC	?OnTCPNetworkSubLoadTaskInfoRequest@CAttemperEngineSink@@IAE_NPAXGK@Z ; CAttemperEngineSink::OnTCPNetworkSubLoadTaskInfoRequest
PUBLIC	?OnTCPNetworkSubGiveUpTaskRequest@CAttemperEngineSink@@IAE_NPAXGK@Z ; CAttemperEngineSink::OnTCPNetworkSubGiveUpTaskRequest
PUBLIC	?OnTCPNetworkSubMemberQueryInfo@CAttemperEngineSink@@IAE_NPAXGK@Z ; CAttemperEngineSink::OnTCPNetworkSubMemberQueryInfo
PUBLIC	?OnTCPNetworkSubMemberDayPresent@CAttemperEngineSink@@IAE_NPAXGK@Z ; CAttemperEngineSink::OnTCPNetworkSubMemberDayPresent
PUBLIC	?OnTCPNetworkSubMemberDayGift@CAttemperEngineSink@@IAE_NPAXGK@Z ; CAttemperEngineSink::OnTCPNetworkSubMemberDayGift
PUBLIC	?OnTCPNetworkSubQueryExchangeInfo@CAttemperEngineSink@@IAE_NPAXGK@Z ; CAttemperEngineSink::OnTCPNetworkSubQueryExchangeInfo
PUBLIC	?OnTCPNetworkSubPurchaseMember@CAttemperEngineSink@@IAE_NPAXGK@Z ; CAttemperEngineSink::OnTCPNetworkSubPurchaseMember
PUBLIC	?OnTCPNetworkSubExchangeScoreByIngot@CAttemperEngineSink@@IAE_NPAXGK@Z ; CAttemperEngineSink::OnTCPNetworkSubExchangeScoreByIngot
PUBLIC	?OnTCPNetworkSubExchangeScoreByBeans@CAttemperEngineSink@@IAE_NPAXGK@Z ; CAttemperEngineSink::OnTCPNetworkSubExchangeScoreByBeans
PUBLIC	?OnTCPNetworkSubQueryOption@CAttemperEngineSink@@IAE_NPAXGK@Z ; CAttemperEngineSink::OnTCPNetworkSubQueryOption
PUBLIC	?OnTCPNetworkSubOptionServer@CAttemperEngineSink@@IAE_NPAXGK@Z ; CAttemperEngineSink::OnTCPNetworkSubOptionServer
PUBLIC	?OnTCPNetworkSubManagerKickUser@CAttemperEngineSink@@IAE_NPAXGK@Z ; CAttemperEngineSink::OnTCPNetworkSubManagerKickUser
PUBLIC	?OnTCPNetworkSubLimitUserChat@CAttemperEngineSink@@IAE_NPAXGK@Z ; CAttemperEngineSink::OnTCPNetworkSubLimitUserChat
PUBLIC	?OnTCPNetworkSubKickAllUser@CAttemperEngineSink@@IAE_NPAXGK@Z ; CAttemperEngineSink::OnTCPNetworkSubKickAllUser
PUBLIC	?OnTCPNetworkSubSendMessage@CAttemperEngineSink@@IAE_NPAXGK@Z ; CAttemperEngineSink::OnTCPNetworkSubSendMessage
PUBLIC	?OnTCPNetworkSubDismissGame@CAttemperEngineSink@@IAE_NPAXGK@Z ; CAttemperEngineSink::OnTCPNetworkSubDismissGame
PUBLIC	?OnTCPNetworkSubWarningUser@CAttemperEngineSink@@IAE_NPAXGK@Z ; CAttemperEngineSink::OnTCPNetworkSubWarningUser
PUBLIC	?OnTCPNetworkSubRoomCheat@CAttemperEngineSink@@IAE_NPAXGK@Z ; CAttemperEngineSink::OnTCPNetworkSubRoomCheat
PUBLIC	?OnTCPNetworkSubCreateTable@CAttemperEngineSink@@IAE_NPAXGK@Z ; CAttemperEngineSink::OnTCPNetworkSubCreateTable
PUBLIC	?OnTCPNetworkSubCancelRequest@CAttemperEngineSink@@IAE_NPAXGK@Z ; CAttemperEngineSink::OnTCPNetworkSubCancelRequest
PUBLIC	?OnTCPNetworkSubRequestReply@CAttemperEngineSink@@IAE_NPAXGK@Z ; CAttemperEngineSink::OnTCPNetworkSubRequestReply
PUBLIC	?OnTCPNetworkSubHostDissumeTable@CAttemperEngineSink@@IAE_NPAXGK@Z ; CAttemperEngineSink::OnTCPNetworkSubHostDissumeTable
PUBLIC	?OnTCPNetworkSubQueryUserRoomScore@CAttemperEngineSink@@IAE_NPAXGK@Z ; CAttemperEngineSink::OnTCPNetworkSubQueryUserRoomScore
PUBLIC	?OnEventUserLogon@CAttemperEngineSink@@IAEXPAUIServerUserItem@@_N@Z ; CAttemperEngineSink::OnEventUserLogon
PUBLIC	?OnEventUserLogout@CAttemperEngineSink@@IAEXPAUIServerUserItem@@K@Z ; CAttemperEngineSink::OnEventUserLogout
PUBLIC	?PerformDistribute@CAttemperEngineSink@@IAE_NXZ	; CAttemperEngineSink::PerformDistribute
PUBLIC	?PerformUnlockScore@CAttemperEngineSink@@IAE_NKKK@Z ; CAttemperEngineSink::PerformUnlockScore
PUBLIC	?PerformCheckVersion@CAttemperEngineSink@@IAE_NKKKK@Z ; CAttemperEngineSink::PerformCheckVersion
PUBLIC	?PerformTaskProgress@CAttemperEngineSink@@IAE_NPAUIServerUserItem@@PAUtagUserTaskEntry@@KKK@Z ; CAttemperEngineSink::PerformTaskProgress
PUBLIC	?SwitchUserItemConnect@CAttemperEngineSink@@IAE_NPAUIServerUserItem@@QADGEGG@Z ; CAttemperEngineSink::SwitchUserItemConnect
PUBLIC	?PerformRoomTaskProgress@CAttemperEngineSink@@QAE_NPAUIServerUserItem@@HHH@Z ; CAttemperEngineSink::PerformRoomTaskProgress
PUBLIC	?PerformRoomTaskProgress@CAttemperEngineSink@@QAE_NPAUIServerUserItem@@PAUtagUserTaskEntry@@HHH@Z ; CAttemperEngineSink::PerformRoomTaskProgress
PUBLIC	?SendUserInfoPacket@CAttemperEngineSink@@IAE_NPAUIServerUserItem@@K_N@Z ; CAttemperEngineSink::SendUserInfoPacket
PUBLIC	?OnEventPropertyBuyPrep@CAttemperEngineSink@@IAE_NGGPAUIServerUserItem@@0@Z ; CAttemperEngineSink::OnEventPropertyBuyPrep
PUBLIC	?SendPropertyMessage@CAttemperEngineSink@@IAE_NKKGG@Z ; CAttemperEngineSink::SendPropertyMessage
PUBLIC	?SendPropertyEffect@CAttemperEngineSink@@IAE_NPAUIServerUserItem@@G@Z ; CAttemperEngineSink::SendPropertyEffect
PUBLIC	?SendLogonFailure@CAttemperEngineSink@@IAE_NPBDJK@Z ; CAttemperEngineSink::SendLogonFailure
PUBLIC	?SendInsureFailure@CAttemperEngineSink@@IAE_NPAUIServerUserItem@@PBDJE@Z ; CAttemperEngineSink::SendInsureFailure
PUBLIC	?SendRequestFailure@CAttemperEngineSink@@IAE_NPAUIServerUserItem@@PBDJ@Z ; CAttemperEngineSink::SendRequestFailure
PUBLIC	?SendPropertyFailure@CAttemperEngineSink@@IAE_NPAUIServerUserItem@@PBDJG@Z ; CAttemperEngineSink::SendPropertyFailure
PUBLIC	?GetBindUserItem@CAttemperEngineSink@@UAEPAUIServerUserItem@@G@Z ; CAttemperEngineSink::GetBindUserItem
PUBLIC	?GetBindParameter@CAttemperEngineSink@@UAEPAUtagBindParameter@@G@Z ; CAttemperEngineSink::GetBindParameter
PUBLIC	?GetPropertyType@CAttemperEngineSink@@QAEGG@Z	; CAttemperEngineSink::GetPropertyType
PUBLIC	?SaveVideoPlayerInfo@CAttemperEngineSink@@QAE_NKPAD@Z ; CAttemperEngineSink::SaveVideoPlayerInfo
PUBLIC	?SaveVideoDataInfo@CAttemperEngineSink@@QAE_NPADGGPAEG@Z ; CAttemperEngineSink::SaveVideoDataInfo
PUBLIC	?InitAndroidUser@CAttemperEngineSink@@IAE_NXZ	; CAttemperEngineSink::InitAndroidUser
PUBLIC	?InitTableFrameArray@CAttemperEngineSink@@IAE_NXZ ; CAttemperEngineSink::InitTableFrameArray
PUBLIC	?InitMatchServiceManager@CAttemperEngineSink@@IAE_NXZ ; CAttemperEngineSink::InitMatchServiceManager
PUBLIC	?InitPersonalRoomServiceManager@CAttemperEngineSink@@IAE_NXZ ; CAttemperEngineSink::InitPersonalRoomServiceManager
PUBLIC	?SendUIControlPacket@CAttemperEngineSink@@IAE_NGPAXG@Z ; CAttemperEngineSink::SendUIControlPacket
PUBLIC	?SetMobileUserParameter@CAttemperEngineSink@@IAEXPAUIServerUserItem@@EGG@Z ; CAttemperEngineSink::SetMobileUserParameter
PUBLIC	?SendUserInfoPacketBatchToMobileUser@CAttemperEngineSink@@IAE_NPAUIServerUserItem@@K@Z ; CAttemperEngineSink::SendUserInfoPacketBatchToMobileUser
PUBLIC	?SendVisibleTableUserInfoToMobileUser@CAttemperEngineSink@@IAE_NPAUIServerUserItem@@G@Z ; CAttemperEngineSink::SendVisibleTableUserInfoToMobileUser
PUBLIC	?SendUserInfoPacketBatchToPage@CAttemperEngineSink@@IAE_NPAUIServerUserItem@@@Z ; CAttemperEngineSink::SendUserInfoPacketBatchToPage
PUBLIC	?MobileUserImmediately@CAttemperEngineSink@@IAE_NPAUIServerUserItem@@@Z ; CAttemperEngineSink::MobileUserImmediately
PUBLIC	?SendSystemMessage@CAttemperEngineSink@@IAE_NPAUCMD_GR_SendMessage@@G@Z ; CAttemperEngineSink::SendSystemMessage
PUBLIC	?RemoveSystemMessage@CAttemperEngineSink@@IAEXXZ ; CAttemperEngineSink::RemoveSystemMessage
PUBLIC	??_GCAttemperEngineSink@@UAEPAXI@Z		; CAttemperEngineSink::`scalar deleting destructor'
PUBLIC	?GetServiceStatus@CServiceUnits@@QAE?AW4enServiceStatus@@XZ ; CServiceUnits::GetServiceStatus
PUBLIC	??$_snprintf_s@$0CAA@@@YAHAAY0CAA@DIPBDZZ	; _snprintf_s<512>
PUBLIC	??$_snprintf_s@$0IA@@@YAHAAY0IA@DIPBDZZ		; _snprintf_s<128>
PUBLIC	??$_snprintf_s@$0BAA@@@YAHAAY0BAA@DIPBDZZ	; _snprintf_s<256>
PUBLIC	??$_snprintf_s@$0EA@@@YAHAAY0EA@DIPBDZZ		; _snprintf_s<64>
PUBLIC	??0?$CWHArray@UtagDistributeInfo@@ABU1@@@QAE@XZ	; CWHArray<tagDistributeInfo,tagDistributeInfo const &>::CWHArray<tagDistributeInfo,tagDistributeInfo const &>
PUBLIC	??1?$CWHArray@UtagDistributeInfo@@ABU1@@@UAE@XZ	; CWHArray<tagDistributeInfo,tagDistributeInfo const &>::~CWHArray<tagDistributeInfo,tagDistributeInfo const &>
PUBLIC	?GetCount@?$CWHArray@UtagDistributeInfo@@ABU1@@@QBEHXZ ; CWHArray<tagDistributeInfo,tagDistributeInfo const &>::GetCount
PUBLIC	?ElementAt@?$CWHArray@UtagDistributeInfo@@ABU1@@@QAEAAUtagDistributeInfo@@H@Z ; CWHArray<tagDistributeInfo,tagDistributeInfo const &>::ElementAt
PUBLIC	?RemoveAt@?$CWHArray@UtagDistributeInfo@@ABU1@@@QAEXHH@Z ; CWHArray<tagDistributeInfo,tagDistributeInfo const &>::RemoveAt
PUBLIC	??A?$CWHArray@UtagDistributeInfo@@ABU1@@@QAEAAUtagDistributeInfo@@H@Z ; CWHArray<tagDistributeInfo,tagDistributeInfo const &>::operator[]
PUBLIC	??_G?$CWHArray@UtagDistributeInfo@@ABU1@@@UAEPAXI@Z ; CWHArray<tagDistributeInfo,tagDistributeInfo const &>::`scalar deleting destructor'
PUBLIC	??0CPair@?$CMap@KKKAAK@@IAE@K@Z			; CMap<unsigned long,unsigned long,unsigned long,unsigned long &>::CPair::CPair
PUBLIC	??0CAssoc@?$CMap@KKKAAK@@QAE@K@Z		; CMap<unsigned long,unsigned long,unsigned long,unsigned long &>::CAssoc::CAssoc
PUBLIC	?Release@CAttemperEngineSink@@W3AEXXZ		; [thunk]:CAttemperEngineSink::Release`adjustor{4}'
PUBLIC	?QueryInterface@CAttemperEngineSink@@W3AEPAXABU_GUID@@K@Z ; [thunk]:CAttemperEngineSink::QueryInterface`adjustor{4}'
PUBLIC	?Release@CAttemperEngineSink@@W7AEXXZ		; [thunk]:CAttemperEngineSink::Release`adjustor{8}'
PUBLIC	?QueryInterface@CAttemperEngineSink@@W7AEPAXABU_GUID@@K@Z ; [thunk]:CAttemperEngineSink::QueryInterface`adjustor{8}'
PUBLIC	?_OptionsStorage@?1??__local_stdio_printf_options@@9@4_KA ; `__local_stdio_printf_options'::`2'::_OptionsStorage
PUBLIC	??_C@_17CNPHIMPH@?$AA?$CF?$AAl?$AAs@		; `string'
PUBLIC	?atlTraceException@ATL@@3V?$CTraceCategoryEx@$0CAAA@$0A@@1@A ; ATL::atlTraceException
PUBLIC	??_C@_0BC@PGMFNIFA@atlTraceException@		; `string'
PUBLIC	?atlTraceString@ATL@@3V?$CTraceCategoryEx@$0CAAAA@$0A@@1@A ; ATL::atlTraceString
PUBLIC	??_C@_0P@MBNHGHMI@atlTraceString@		; `string'
PUBLIC	?m_nLastCategory@CTrace@ATL@@1IA		; ATL::CTrace::m_nLastCategory
PUBLIC	?m_nMap@CTrace@ATL@@1PAUCategoryMap@12@A	; ATL::CTrace::m_nMap
PUBLIC	??_C@_17LGGGMOOB@?$AA?$CF?$AAh?$AAs@		; `string'
PUBLIC	??_C@_1EO@EBPPKGOM@?$AAf?$AAa?$AAl?$AAs?$AAe?$AA?5?$AA?$CG?$AA?$CG?$AA?5?$AA?$CC?$AAT?$AAo?$AAo?$AA?5?$AAm@ ; `string'
PUBLIC	??_C@_1OE@PDFAMNPL@?$AAc?$AA?3?$AA?2?$AAp?$AAr?$AAo?$AAg?$AAr?$AAa?$AAm?$AA?5?$AAf?$AAi?$AAl?$AAe@ ; `string'
PUBLIC	??_C@_00CNPNBAHC@@				; `string'
PUBLIC	??_7IUnknownEx@@6B@				; IUnknownEx::`vftable'
PUBLIC	?__LINE__Var@?0??AddPacket@CSendPacketHelper@@QAE_NPBDG@Z@4JA ; `CSendPacketHelper::AddPacket'::`1'::__LINE__Var
PUBLIC	??_C@_0DK@NEJIDGKJ@g?3?2?M?x?$LK?$PM?2happygamewh?2?$LH?$PO?N?q?$LG?K?2?O?$LF?M?$LD@ ; `string'
PUBLIC	?__LINE__Var@?0??AddPacket@CSendPacketHelper@@QAE_NPAXGG@Z@4JA ; `CSendPacketHelper::AddPacket'::`1'::__LINE__Var
PUBLIC	?__LINE__Var@?0??GetData@CRecvPacketHelper@@QAEPAXAAUtagDataDescribe@@@Z@4JA ; `CRecvPacketHelper::GetData'::`1'::__LINE__Var
PUBLIC	??_7IAttemperEngineSink@@6B@			; IAttemperEngineSink::`vftable'
PUBLIC	??_7IServerUserItemSink@@6B@			; IServerUserItemSink::`vftable'
PUBLIC	??_7IMainServiceFrame@@6B@			; IMainServiceFrame::`vftable'
PUBLIC	??_C@_0BI@PDGLEKAG@PersonalRoomService?4dll@	; `string'
PUBLIC	??_C@_0HC@HBCNBCLF@c?3?2program?5files?5?$CIx86?$CJ?2microsof@ ; `string'
PUBLIC	??_C@_05PLCFPPOI@with?5@			; `string'
PUBLIC	??_C@_09HCLNAIDE@?5elements@			; `string'
PUBLIC	??_C@_01EEMJAFIK@?6@				; `string'
PUBLIC	??_C@_03OHJIHPJH@?6?7?$FL@			; `string'
PUBLIC	??_C@_04OAFLPOMH@?$FN?5?$DN?5@			; `string'
PUBLIC	??_R1A@?0A@EA@CObject@@8			; CObject::`RTTI Base Class Descriptor at (0,-1,0,64)'
PUBLIC	??_R0?AVCObject@@@8				; CObject `RTTI Type Descriptor'
PUBLIC	??_R3CObject@@8					; CObject::`RTTI Class Hierarchy Descriptor'
PUBLIC	??_R2CObject@@8					; CObject::`RTTI Base Class Array'
PUBLIC	??_7?$CWHArray@PBDABQBD@@6B@			; CWHArray<char const *,char const * const &>::`vftable'
PUBLIC	??_7CSensitiveWordsFilter@@6B@			; CSensitiveWordsFilter::`vftable'
PUBLIC	??_7?$CWHArray@PAUtagPersonalTableParameter@@ABQAU1@@@6B@ ; CWHArray<tagPersonalTableParameter *,tagPersonalTableParameter * const &>::`vftable'
PUBLIC	??_7?$CWHArray@PAVCTableFrame@@ABQAV1@@@6B@	; CWHArray<CTableFrame *,CTableFrame * const &>::`vftable'
PUBLIC	??_7?$CMap@KKKAAK@@6B@				; CMap<unsigned long,unsigned long,unsigned long,unsigned long &>::`vftable'
PUBLIC	??_7?$CWHArray@PAUtagSystemMessage@@ABQAU1@@@6B@ ; CWHArray<tagSystemMessage *,tagSystemMessage * const &>::`vftable'
PUBLIC	??_7CAttemperEngineSink@@6BIAttemperEngineSink@@@ ; CAttemperEngineSink::`vftable'
PUBLIC	??_7CAttemperEngineSink@@6BIMainServiceFrame@@@	; CAttemperEngineSink::`vftable'
PUBLIC	??_7CAttemperEngineSink@@6BIServerUserItemSink@@@ ; CAttemperEngineSink::`vftable'
PUBLIC	?__LINE__Var@?0???1CAttemperEngineSink@@UAE@XZ@4JA ; `CAttemperEngineSink::~CAttemperEngineSink'::`1'::__LINE__Var
PUBLIC	?__LINE__Var@?0??OnAttemperEngineStart@CAttemperEngineSink@@UAE_NPAUIUnknownEx@@@Z@4JA ; `CAttemperEngineSink::OnAttemperEngineStart'::`1'::__LINE__Var
PUBLIC	?__LINE__Var@?0??OnAttemperEngineConclude@CAttemperEngineSink@@UAE_NPAUIUnknownEx@@@Z@4JA ; `CAttemperEngineSink::OnAttemperEngineConclude'::`1'::__LINE__Var
PUBLIC	??_C@_0BN@EEJNAPCD@?U?$PN?T?Z?A?$KM?$LN?S?P?$KN?$LF?w?$LH?$PO?N?q?F?w?5?$FL?5?$CFs?3?$CFd?5?$FN@ ; `string'
PUBLIC	??_C@_0BN@BAEBLECI@?U?$PN?T?Z?A?$KM?$LN?S?T?$LM?U?$LN?$LH?$PO?N?q?F?w?5?$FL?5?$CFs?3?$CFd?5?$FN@ ; `string'
PUBLIC	?__LINE__Var@?0??OnEventTimer@CAttemperEngineSink@@UAE_NKI@Z@4JA ; `CAttemperEngineSink::OnEventTimer'::`1'::__LINE__Var
PUBLIC	??_C@_0BH@ENKFPCCP@?$LG?$KI?J?$LB?F?w?R?l?$LD?$KD?$KD?$LKTimerID?$DN?$CFd@ ; `string'
PUBLIC	?__LINE__Var@?0??OnEventDataBase@CAttemperEngineSink@@UAE_NGKPAXG@Z@4JA ; `CAttemperEngineSink::OnEventDataBase'::`1'::__LINE__Var
PUBLIC	?__LINE__Var@?0??OnEventTCPSocketShut@CAttemperEngineSink@@UAE_NGE@Z@4JA ; `CAttemperEngineSink::OnEventTCPSocketShut'::`1'::__LINE__Var
PUBLIC	??_C@_0CN@HPLNLDC@?S?k?P?$KN?$LF?w?$LH?$PO?N?q?F?w?$LF?D?A?$KM?$LN?S?$LJ?X?$LB?U?A?K?$KD?$KM?$CFld?5?C@ ; `string'
PUBLIC	??_C@_0CN@ONGINNEE@?S?k?T?$LM?U?$LN?$LH?$PO?N?q?F?w?$LF?D?A?$KM?$LN?S?$LJ?X?$LB?U?A?K?$KD?$KM?$CFld?5?C@ ; `string'
PUBLIC	?__LINE__Var@?0??OnEventTCPSocketLink@CAttemperEngineSink@@UAE_NGH@Z@4JA ; `CAttemperEngineSink::OnEventTCPSocketLink'::`1'::__LINE__Var
PUBLIC	??_C@_0CP@NEANHCGA@?P?$KN?$LF?w?$LH?$PO?N?q?F?w?A?$KM?$LN?S?J?$KH?$LA?$NM?5?$FL?5?$CFld?5?$FN?$KD?$KM?$CFld@ ; `string'
PUBLIC	??_C@_0BM@IFKABAKD@?U?$PN?T?Z?$LH?$KC?K?M?S?N?O?$LH?$LH?$LP?$LM?d?W?$KC?$LC?a?P?E?O?$KC?4?4?4@ ; `string'
PUBLIC	??_C@_0CP@IEGHCDCN@?T?$LM?U?$LN?$LH?$PO?N?q?F?w?A?$KM?$LN?S?J?$KH?$LA?$NM?5?$FL?5?$CFld?5?$FN?$KD?$KM?$CFld@ ; `string'
PUBLIC	?__LINE__Var@?0??OnEventTCPSocketRead@CAttemperEngineSink@@UAE_NGUTCP_Command@@PAXG@Z@4JA ; `CAttemperEngineSink::OnEventTCPSocketRead'::`1'::__LINE__Var
PUBLIC	?__LINE__Var@?0??OnEventTCPNetworkBind@CAttemperEngineSink@@UAE_NKK@Z@4JA ; `CAttemperEngineSink::OnEventTCPNetworkBind'::`1'::__LINE__Var
PUBLIC	?__LINE__Var@?0??OnEventTCPNetworkShut@CAttemperEngineSink@@UAE_NKKK@Z@4JA ; `CAttemperEngineSink::OnEventTCPNetworkShut'::`1'::__LINE__Var
PUBLIC	??_C@_0BK@KGOAMGLA@?$LJ?X?$LB?U?A?$KM?$LN?S?R?l?$LD?$KD?3?5wTableID?$DN?$CFd@ ; `string'
PUBLIC	??_C@_0EC@EPLGCFIG@?$LL?a?$LH?$KC?I?z?R?l?$LD?$KD?$LF?D?O?$PL?O?$KC?3?5Command?4wMain@ ; `string'
PUBLIC	??_C@_0DG@GPBCOFJG@?S?N?O?$LH?C?$PM?A?n?$LH?$LF?$LL?X?5false?5?5?5wMainCmdID@ ; `string'
PUBLIC	??_C@_0CA@BDDILDFJ@MDM_GF_FRAME?5?$LP?r?$LM?$NM?C?$PM?A?n?$LH?$LF?$LL?X?5false@ ; `string'
PUBLIC	?__LINE__Var@?0??SendRoomMessage@CAttemperEngineSink@@UAE_NPAUIServerUserItem@@PBDG@Z@4JA ; `CAttemperEngineSink::SendRoomMessage'::`1'::__LINE__Var
PUBLIC	?__LINE__Var@?0??SendGameMessage@CAttemperEngineSink@@UAE_NPAUIServerUserItem@@PBDG@Z@4JA ; `CAttemperEngineSink::SendGameMessage'::`1'::__LINE__Var
PUBLIC	?__LINE__Var@?0??SendData@CAttemperEngineSink@@UAE_NPAUIServerUserItem@@GGPAXG@Z@4JA ; `CAttemperEngineSink::SendData'::`1'::__LINE__Var
PUBLIC	?__LINE__Var@?0??OnEventUserItemScore@CAttemperEngineSink@@UAE_NPAUIServerUserItem@@E@Z@4JA ; `CAttemperEngineSink::OnEventUserItemScore'::`1'::__LINE__Var
PUBLIC	?__LINE__Var@?0??OnEventUserItemStatus@CAttemperEngineSink@@UAE_NPAUIServerUserItem@@GG@Z@4JA ; `CAttemperEngineSink::OnEventUserItemStatus'::`1'::__LINE__Var
PUBLIC	?__LINE__Var@?0??OnEventUserItemRight@CAttemperEngineSink@@UAE_NPAUIServerUserItem@@KKE@Z@4JA ; `CAttemperEngineSink::OnEventUserItemRight'::`1'::__LINE__Var
PUBLIC	?__LINE__Var@?0??OnEventUserItemGameData@CAttemperEngineSink@@UAE_NPAUIServerUserItem@@E@Z@4JA ; `CAttemperEngineSink::OnEventUserItemGameData'::`1'::__LINE__Var
PUBLIC	?__LINE__Var@?0??OnDBLogonSuccess@CAttemperEngineSink@@IAE_NKPAXG@Z@4JA ; `CAttemperEngineSink::OnDBLogonSuccess'::`1'::__LINE__Var
PUBLIC	??_C@_0CJ@GMGBIJBK@?D?z?R?Q?$LB?$LL?$LJ?$NM?$MA?m?T?$LB?G?k?$LD?v?$LH?$LP?$LM?d?01?P?$KB?J?$LB?V?$KO?D?Z?$LC@ ; `string'
PUBLIC	??_C@_0DF@CKMKCLBK@?$LB?$KH?G?$LI?$KD?$KM?S?I?S?Z?O?$LF?M?$LD?N?$KM?$LL?$KE?$LF?D?T?$KN?R?r?$KD?$KM?$LF?$LB?G?$LA?S@ ; `string'
PUBLIC	??_C@_0EO@NGJGJCKH@?$LB?$KH?G?$LI?$KD?$KM?D?z?$LF?D?S?N?O?$LH?$LD?I?$LM?$KI?$LF?M?S?Z?$LF?$LB?G?$LA?S?N?O?$LH?$LH@ ; `string'
PUBLIC	??_C@_0EO@DKDPOCDP@?$LB?$KH?G?$LI?$KD?$KM?D?z?$LF?D?S?N?O?$LH?$LD?I?$LM?$KI?$LI?$NP?S?Z?$LF?$LB?G?$LA?S?N?O?$LH?$LH@ ; `string'
PUBLIC	??_C@_0EN@LEGFOBHM@?$LB?$KH?G?$LI?$KD?$KM?D?z?$LF?D?$LL?a?T?$LB?$LM?$LG?$LB?p?$LF?M?S?Z?$LF?$LB?G?$LA?S?N?O?$LH?$LH@ ; `string'
PUBLIC	??_C@_0EN@HOOHFPLN@?$LB?$KH?G?$LI?$KD?$KM?D?z?$LF?D?$LL?a?T?$LB?$LM?$LG?$LB?p?$LI?$NP?S?Z?$LF?$LB?G?$LA?S?N?O?$LH?$LH@ ; `string'
PUBLIC	??_C@_0DD@EDDOLGC@?$LB?$KH?G?$LI?$KD?$KM?S?I?S?Z?$LE?K?$LH?$LP?$LM?d?R?Q?$LO?$KN?H?K?B?z?$KD?$KM?F?U?M?$KI?M@ ; `string'
PUBLIC	?__LINE__Var@?0??OnDBGameParameter@CAttemperEngineSink@@IAE_NKPAXG@Z@4JA ; `CAttemperEngineSink::OnDBGameParameter'::`1'::__LINE__Var
PUBLIC	??_C@_0DH@PICEIPLI@?F?$LN?L?$KI?J?$PN?$LO?$NN?$LP?b?$LH?$PO?N?q?W?i?$LM?$PO?$LA?f?$LB?$LO?W?$KC?$LC?a?P?E?O?$KC?S@ ; `string'
PUBLIC	?__LINE__Var@?0??OnDBGameColumnInfo@CAttemperEngineSink@@IAE_NKPAXG@Z@4JA ; `CAttemperEngineSink::OnDBGameColumnInfo'::`1'::__LINE__Var
PUBLIC	?__LINE__Var@?0??OnDBGameAndroidInfo@CAttemperEngineSink@@IAE_NKPAXG@Z@4JA ; `CAttemperEngineSink::OnDBGameAndroidInfo'::`1'::__LINE__Var
PUBLIC	?__LINE__Var@?0??OnDBGameAndroidParameter@CAttemperEngineSink@@IAE_NKPAXG@Z@4JA ; `CAttemperEngineSink::OnDBGameAndroidParameter'::`1'::__LINE__Var
PUBLIC	?__LINE__Var@?0??OnDBGamePropertyBuff@CAttemperEngineSink@@IAE_NKPAXG@Z@4JA ; `CAttemperEngineSink::OnDBGamePropertyBuff'::`1'::__LINE__Var
PUBLIC	?__LINE__Var@?0??OnDBPCMemberDayQueryInfoResult@CAttemperEngineSink@@IAE_NKPAXG@Z@4JA ; `CAttemperEngineSink::OnDBPCMemberDayQueryInfoResult'::`1'::__LINE__Var
PUBLIC	?__LINE__Var@?0??OnDBPCMemberDayPresentResult@CAttemperEngineSink@@IAE_NKPAXG@Z@4JA ; `CAttemperEngineSink::OnDBPCMemberDayPresentResult'::`1'::__LINE__Var
PUBLIC	?__LINE__Var@?0??OnDBPCMemberDayGiftResult@CAttemperEngineSink@@IAE_NKPAXG@Z@4JA ; `CAttemperEngineSink::OnDBPCMemberDayGiftResult'::`1'::__LINE__Var
PUBLIC	?__LINE__Var@?0??OnDBUserInsureInfo@CAttemperEngineSink@@IAE_NKPAXG@Z@4JA ; `CAttemperEngineSink::OnDBUserInsureInfo'::`1'::__LINE__Var
PUBLIC	?__LINE__Var@?0??OnDBUserInsureSuccess@CAttemperEngineSink@@IAE_NKPAXG@Z@4JA ; `CAttemperEngineSink::OnDBUserInsureSuccess'::`1'::__LINE__Var
PUBLIC	?__LINE__Var@?0??OnDBUserInsureFailure@CAttemperEngineSink@@IAE_NKPAXG@Z@4JA ; `CAttemperEngineSink::OnDBUserInsureFailure'::`1'::__LINE__Var
PUBLIC	?__LINE__Var@?0??OnDBUserInsureUserInfo@CAttemperEngineSink@@IAE_NKPAXG@Z@4JA ; `CAttemperEngineSink::OnDBUserInsureUserInfo'::`1'::__LINE__Var
PUBLIC	?__LINE__Var@?0??OnDBUserInsureEnableResult@CAttemperEngineSink@@IAE_NKPAXG@Z@4JA ; `CAttemperEngineSink::OnDBUserInsureEnableResult'::`1'::__LINE__Var
PUBLIC	?__LINE__Var@?0??OnDBPropertySuccess@CAttemperEngineSink@@IAE_NKPAXG@Z@4JA ; `CAttemperEngineSink::OnDBPropertySuccess'::`1'::__LINE__Var
PUBLIC	?__LINE__Var@?0??OnDBPropertyFailure@CAttemperEngineSink@@IAE_NKPAXG@Z@4JA ; `CAttemperEngineSink::OnDBPropertyFailure'::`1'::__LINE__Var
PUBLIC	?__LINE__Var@?0??OnDBGamePropertyBuy@CAttemperEngineSink@@IAE_NKPAXG@Z@4JA ; `CAttemperEngineSink::OnDBGamePropertyBuy'::`1'::__LINE__Var
PUBLIC	?__LINE__Var@?0??OnDBPurchaseResult@CAttemperEngineSink@@IAE_NKPAXG@Z@4JA ; `CAttemperEngineSink::OnDBPurchaseResult'::`1'::__LINE__Var
PUBLIC	?__LINE__Var@?0??OnDBExChangeResult@CAttemperEngineSink@@IAE_NKPAXG@Z@4JA ; `CAttemperEngineSink::OnDBExChangeResult'::`1'::__LINE__Var
PUBLIC	?__LINE__Var@?0??OnDBPCUserCheckInResult@CAttemperEngineSink@@IAE_NKPAXG@Z@4JA ; `CAttemperEngineSink::OnDBPCUserCheckInResult'::`1'::__LINE__Var
PUBLIC	?__LINE__Var@?0??OnDBPCCheckInReward@CAttemperEngineSink@@IAE_NKPAXG@Z@4JA ; `CAttemperEngineSink::OnDBPCCheckInReward'::`1'::__LINE__Var
PUBLIC	?__LINE__Var@?0??OnDBPCBaseEnsureResult@CAttemperEngineSink@@IAE_NKPAXG@Z@4JA ; `CAttemperEngineSink::OnDBPCBaseEnsureResult'::`1'::__LINE__Var
PUBLIC	?__LINE__Var@?0??OnDBUserTaskInfo@CAttemperEngineSink@@IAE_NKPAXG@Z@4JA ; `CAttemperEngineSink::OnDBUserTaskInfo'::`1'::__LINE__Var
PUBLIC	?__LINE__Var@?0??OnDBUserTaskResult@CAttemperEngineSink@@IAE_NKPAXG@Z@4JA ; `CAttemperEngineSink::OnDBUserTaskResult'::`1'::__LINE__Var
PUBLIC	?__LINE__Var@?0??OnDBSystemMessage@CAttemperEngineSink@@IAE_NKPAXG@Z@4JA ; `CAttemperEngineSink::OnDBSystemMessage'::`1'::__LINE__Var
PUBLIC	?__LINE__Var@?0??OnDBPCGrowLevelParameter@CAttemperEngineSink@@IAE_NKPAXG@Z@4JA ; `CAttemperEngineSink::OnDBPCGrowLevelParameter'::`1'::__LINE__Var
PUBLIC	?__LINE__Var@?0??OnDBPCGrowLevelUpgrade@CAttemperEngineSink@@IAE_NKPAXG@Z@4JA ; `CAttemperEngineSink::OnDBPCGrowLevelUpgrade'::`1'::__LINE__Var
PUBLIC	?__LINE__Var@?0??OnDBCreateSucess@CAttemperEngineSink@@IAE_NKPAXG@Z@4JA ; `CAttemperEngineSink::OnDBCreateSucess'::`1'::__LINE__Var
PUBLIC	??_C@_0BB@LPANEFD@?$LE?$LE?$LN?$KI?W?$MA?W?S?W?x?O?B?J?$KH?$LA?$NM@ ; `string'
PUBLIC	?__LINE__Var@?0??OnDBCreateFailure@CAttemperEngineSink@@IAE_NKPAXG@Z@4JA ; `CAttemperEngineSink::OnDBCreateFailure'::`1'::__LINE__Var
PUBLIC	?__LINE__Var@?0??OnDBCancelCreateTable@CAttemperEngineSink@@IAE_NKPAXG@Z@4JA ; `CAttemperEngineSink::OnDBCancelCreateTable'::`1'::__LINE__Var
PUBLIC	??_C@_0P@LGKLJHBF@?S?N?O?$LH?W?T?$LG?$KP?$LN?b?I?$KC?$KB?$KD@ ; `string'
PUBLIC	??_C@_0BL@EKGKFEBG@?S?N?O?$LH?N?$LE?$LP?$KK?J?$LM?$KD?$KM?S?N?O?$LH?W?T?$LG?$KP?$LN?b?I?$KC?$KB?$KD@ ; `string'
PUBLIC	??_C@_0CD@JHECHKJE@?$LH?$LP?V?w?M?K?$LD?v?S?N?O?$LH?$LL?r?S?N?O?$LH?$LD?$KM?J?$LB?$KD?$KM?S?N?O?$LH?$LN?b?I@ ; `string'
PUBLIC	??_C@_0BF@BBCEPGNP@?S?N?O?$LH?$LD?$KM?J?$LB?$KD?$KM?S?N?O?$LH?$LN?b?I?$KC?$KB?$KD@ ; `string'
PUBLIC	??_C@_0CJ@IPIKOHBH@?T?$LM?U?$LN?$LJ?f?$LG?$KI?$LP?$KK?J?$LM?J?$LB?$LM?d?$LF?$LN?N?$LE?$LP?$KK?J?$LM?S?N?O?$LH?$KD?$KM?S@ ; `string'
PUBLIC	?__LINE__Var@?0??OnDBLoadPersonalParameter@CAttemperEngineSink@@IAE_NKPAXG@Z@4JA ; `CAttemperEngineSink::OnDBLoadPersonalParameter'::`1'::__LINE__Var
PUBLIC	?__LINE__Var@?0??OnDBDissumeTableResult@CAttemperEngineSink@@IAE_NKPAXG@Z@4JA ; `CAttemperEngineSink::OnDBDissumeTableResult'::`1'::__LINE__Var
PUBLIC	?__LINE__Var@?0??OnDBCurrenceRoomCardAndBeant@CAttemperEngineSink@@IAE_NKPAXG@Z@4JA ; `CAttemperEngineSink::OnDBCurrenceRoomCardAndBeant'::`1'::__LINE__Var
PUBLIC	?__LINE__Var@?0??OnTCPSocketMainRegister@CAttemperEngineSink@@IAE_NGPAXG@Z@4JA ; `CAttemperEngineSink::OnTCPSocketMainRegister'::`1'::__LINE__Var
PUBLIC	?__LINE__Var@?0??OnTCPSocketMainPersonalRoomRegister@CAttemperEngineSink@@IAE_NGPAXG@Z@4JA ; `CAttemperEngineSink::OnTCPSocketMainPersonalRoomRegister'::`1'::__LINE__Var
PUBLIC	?__LINE__Var@?0??OnTCPSocketMainServiceInfo@CAttemperEngineSink@@IAE_NGPAXG@Z@4JA ; `CAttemperEngineSink::OnTCPSocketMainServiceInfo'::`1'::__LINE__Var
PUBLIC	??_C@_0BF@OAHKEPFP@?$LE?$LE?$LN?$KI?$LH?$LP?$LM?d?$LC?N?J?$PN?$LC?$LL?U?$PN?H?$LH?$KD?$KB@ ; `string'
PUBLIC	?__LINE__Var@?0??OnTCPSocketMainUserCollect@CAttemperEngineSink@@IAE_NGPAXG@Z@4JA ; `CAttemperEngineSink::OnTCPSocketMainUserCollect'::`1'::__LINE__Var
PUBLIC	?__LINE__Var@?0??OnTCPSocketMainAndroidService@CAttemperEngineSink@@IAE_NGPAXG@Z@4JA ; `CAttemperEngineSink::OnTCPSocketMainAndroidService'::`1'::__LINE__Var
PUBLIC	?__LINE__Var@?0??OnTCPNetworkMainInsure@CAttemperEngineSink@@IAE_NGPAXGK@Z@4JA ; `CAttemperEngineSink::OnTCPNetworkMainInsure'::`1'::__LINE__Var
PUBLIC	?__LINE__Var@?0??OnTCPNetworkMainMatch@CAttemperEngineSink@@IAE_NGPAXGK@Z@4JA ; `CAttemperEngineSink::OnTCPNetworkMainMatch'::`1'::__LINE__Var
PUBLIC	?__LINE__Var@?0??OnTCPNetworkMainPersonalTable@CAttemperEngineSink@@IAE_NGPAXGK@Z@4JA ; `CAttemperEngineSink::OnTCPNetworkMainPersonalTable'::`1'::__LINE__Var
PUBLIC	?__LINE__Var@?0??OnTCPNetworkMainGame@CAttemperEngineSink@@IAE_NGPAXGK@Z@4JA ; `CAttemperEngineSink::OnTCPNetworkMainGame'::`1'::__LINE__Var
PUBLIC	?__LINE__Var@?0??OnTCPNetworkMainFrame@CAttemperEngineSink@@IAE_NGPAXGK@Z@4JA ; `CAttemperEngineSink::OnTCPNetworkMainFrame'::`1'::__LINE__Var
PUBLIC	?__LINE__Var@?0??OnTCPNetworkSubLogonUserID@CAttemperEngineSink@@IAE_NPAXGK@Z@4JA ; `CAttemperEngineSink::OnTCPNetworkSubLogonUserID'::`1'::__LINE__Var
PUBLIC	??_C@_0CL@OCEOPNCD@?$LB?$KH?G?$LI?$KD?$KM?D?z?J?d?H?k?$LF?D?$LH?$LP?$LM?d?C?$NM?B?k?$LC?$LL?U?$PN?H?$LH?$KD?$KM?G@ ; `string'
PUBLIC	??_C@_0CP@JGONOMBF@?$LK?$NM?$LB?$KH?G?$LI?$KD?$KM?$LE?K?S?N?O?$LH?$LH?$LP?$LM?d?R?Q?$LO?$KN?$LJ?X?$LB?U?A?K?$KD?$KM?$LC@ ; `string'
PUBLIC	??_C@_0DD@PBGKLFPO@?$LI?C?U?J?$LK?E?R?Q?T?Z?$LE?K?$LH?$LP?$LM?d?S?N?O?$LH?$KD?$KM?G?R?$LC?$LL?T?J?P?m?L@ ; `string'
PUBLIC	??_C@_0CL@KDGAPOGL@?$LK?$NM?$LB?$KH?G?$LI?$KD?$KM?D?z?$LF?D?$LF?G?B?$LM?C?$NM?B?k?$LE?m?N?s?$KD?$KM?$LC?$LL?T?J?P@ ; `string'
PUBLIC	?__LINE__Var@?0??OnTCPNetworkSubLogonMobile@CAttemperEngineSink@@IAE_NPAXGK@Z@4JA ; `CAttemperEngineSink::OnTCPNetworkSubLogonMobile'::`1'::__LINE__Var
PUBLIC	?__LINE__Var@?0??OnTCPNetworkSubLogonAccounts@CAttemperEngineSink@@IAE_NPAXGK@Z@4JA ; `CAttemperEngineSink::OnTCPNetworkSubLogonAccounts'::`1'::__LINE__Var
PUBLIC	?__LINE__Var@?0??OnTCPNetworkSubUserRule@CAttemperEngineSink@@IAE_NPAXGK@Z@4JA ; `CAttemperEngineSink::OnTCPNetworkSubUserRule'::`1'::__LINE__Var
PUBLIC	?__LINE__Var@?0??OnTCPNetworkSubUserLookon@CAttemperEngineSink@@IAE_NPAXGK@Z@4JA ; `CAttemperEngineSink::OnTCPNetworkSubUserLookon'::`1'::__LINE__Var
PUBLIC	??_C@_0CP@IADBOHKH@?D?z?U?$PN?T?Z?S?N?O?$LH?V?P?$KD?$KM?T?$NN?J?$LB?$LC?$LL?D?$NM?$MA?k?$LP?$KK?$KD?$KM?G?k?O@ ; `string'
PUBLIC	?__LINE__Var@?0??OnTCPNetworkSubUserSitDown@CAttemperEngineSink@@IAE_NPAXGK@Z@4JA ; `CAttemperEngineSink::OnTCPNetworkSubUserSitDown'::`1'::__LINE__Var
PUBLIC	??_C@_0BN@BCDLHLAL@?$LE?m?N?s?$LF?D?$LH?$LP?$LM?d?G?k?G?s?$KD?$KM?G?k?I?T?$LK?s?T?Y?J?T?$KD?$KB@ ; `string'
PUBLIC	??_C@_0EF@JJCEJGNN@?$LF?$LB?G?$LA?S?N?O?$LH?$LH?$LP?$LM?d?R?Q?$LO?$KN?H?K?B?z?N?$KK?$LL?$LM?A?K?$KD?$KM?T?$NN?J@ ; `string'
PUBLIC	??_C@_0DP@DPCOLKLL@?S?I?S?Z?$LE?K?S?N?O?$LH?W?$MA?T?$NN?J?$LB?C?$LL?S?P?$LP?I?R?T?H?C?D?z?$LM?S?H@ ; `string'
PUBLIC	??_C@_0DD@KHGFKAPM@?S?I?S?Z?$LE?K?$LH?$LP?$LM?d?C?$LL?S?P?$LP?U?S?$OA?$LF?D?N?$LL?V?C?A?K?$KD?$KM?G?k?Q@ ; `string'
PUBLIC	?__LINE__Var@?0??OnTCPNetworkSubUserStandUp@CAttemperEngineSink@@IAE_NPAXGK@Z@4JA ; `CAttemperEngineSink::OnTCPNetworkSubUserStandUp'::`1'::__LINE__Var
PUBLIC	??_C@_0CP@JLGPNJOP@?T?$LM?U?$LN?N?$LE?$LN?a?J?x?$KD?$KM?$LC?$LL?D?$NM?$MA?k?$LP?$KK?S?N?O?$LH?$KD?$KM?G?k?O?H?M@ ; `string'
PUBLIC	?__LINE__Var@?0??OnTCPNetworkSubUserChat@CAttemperEngineSink@@IAE_NPAXGK@Z@4JA ; `CAttemperEngineSink::OnTCPNetworkSubUserChat'::`1'::__LINE__Var
PUBLIC	??_C@_0CH@OBNELMKK@?$LB?$KH?G?$LI?$KD?$KM?$LF?$LB?G?$LA?$LE?K?S?N?O?$LH?$LH?$LP?$LM?d?$LN?$PL?V?$LJ?S?C?$LL?$KH?$LE?s?L@ ; `string'
PUBLIC	??_C@_0DN@EKHAPMJC@?$LB?$KH?G?$LI?$KD?$KM?D?z?C?$LL?S?P?$LE?s?L?$PM?$LH?$KC?Q?T?$LF?D?H?$KI?O?$NO?$KD?$KM?H?t?P@ ; `string'
PUBLIC	?__LINE__Var@?0??OnTCPNetworkSubUserExpression@CAttemperEngineSink@@IAE_NPAXGK@Z@4JA ; `CAttemperEngineSink::OnTCPNetworkSubUserExpression'::`1'::__LINE__Var
PUBLIC	?__LINE__Var@?0??OnTCPNetworkSubWisperChat@CAttemperEngineSink@@IAE_NPAXGK@Z@4JA ; `CAttemperEngineSink::OnTCPNetworkSubWisperChat'::`1'::__LINE__Var
PUBLIC	??_C@_0CD@EOEHCMPC@?$LB?$KH?G?$LI?$KD?$KM?$LF?$LB?G?$LA?$LE?K?S?N?O?$LH?$LH?$LP?$LM?d?$LN?$PL?V?$LJ?S?C?$LL?$KH?K?$LN?A@ ; `string'
PUBLIC	??_C@_0DB@MDMMFNJG@?$LB?$KH?G?$LI?$KD?$KM?$LE?K?S?N?O?$LH?$LH?$LP?$LM?d?$LC?$LL?T?J?P?m?T?Z?S?N?O?$LH?V?P?S@ ; `string'
PUBLIC	??_C@_0DN@JGPLIPLP@?$LB?$KH?G?$LI?$KD?$KM?D?z?C?$LL?S?P?$LH?$KC?K?M?K?$LN?A?D?$LF?D?H?$KI?O?$NO?$KD?$KM?H?t?P@ ; `string'
PUBLIC	?__LINE__Var@?0??OnTCPNetworkSubWisperExpression@CAttemperEngineSink@@IAE_NPAXGK@Z@4JA ; `CAttemperEngineSink::OnTCPNetworkSubWisperExpression'::`1'::__LINE__Var
PUBLIC	?__LINE__Var@?0??OnTCPNetworkSubGamePropertyBuy@CAttemperEngineSink@@IAE_NPAXGK@Z@4JA ; `CAttemperEngineSink::OnTCPNetworkSubGamePropertyBuy'::`1'::__LINE__Var
PUBLIC	?__LINE__Var@?0??OnTCPNetworkSubPropertyBackpack@CAttemperEngineSink@@IAE_NPAXGK@Z@4JA ; `CAttemperEngineSink::OnTCPNetworkSubPropertyBackpack'::`1'::__LINE__Var
PUBLIC	?__LINE__Var@?0??OnTCPNetworkSubPropertyUse@CAttemperEngineSink@@IAE_NPAXGK@Z@4JA ; `CAttemperEngineSink::OnTCPNetworkSubPropertyUse'::`1'::__LINE__Var
PUBLIC	?__LINE__Var@?0??OnTCPNetworkSubQuerySendPresent@CAttemperEngineSink@@IAE_NPAXGK@Z@4JA ; `CAttemperEngineSink::OnTCPNetworkSubQuerySendPresent'::`1'::__LINE__Var
PUBLIC	?__LINE__Var@?0??OnTCPNetworkSubPropertyPresent@CAttemperEngineSink@@IAE_NPAXGK@Z@4JA ; `CAttemperEngineSink::OnTCPNetworkSubPropertyPresent'::`1'::__LINE__Var
PUBLIC	?__LINE__Var@?0??OnTCPNetworkSubGetSendPresent@CAttemperEngineSink@@IAE_NPAXGK@Z@4JA ; `CAttemperEngineSink::OnTCPNetworkSubGetSendPresent'::`1'::__LINE__Var
PUBLIC	?__LINE__Var@?0??OnTCPNetwordSubSendTrumpet@CAttemperEngineSink@@IAE_NPAXGK@Z@4JA ; `CAttemperEngineSink::OnTCPNetwordSubSendTrumpet'::`1'::__LINE__Var
PUBLIC	??_C@_0BL@BLADOFOC@?$LB?H?H?$PM?$LH?$LP?$LM?d?$LC?$LL?$LP?I?R?T?J?$LJ?S?C?$LE?K?$LJ?$KG?D?$NM?$KD?$KB@ ; `string'
PUBLIC	??_C@_0BL@GEANMNIE@?A?$LH?O?$LA?$LH?$LP?$LM?d?$LC?$LL?$LP?I?R?T?J?$LJ?S?C?$LE?K?$LJ?$KG?D?$NM?$KD?$KB@ ; `string'
PUBLIC	?__LINE__Var@?0??OnTCPNetworkSubUserInviteReq@CAttemperEngineSink@@IAE_NPAXGK@Z@4JA ; `CAttemperEngineSink::OnTCPNetworkSubUserInviteReq'::`1'::__LINE__Var
PUBLIC	?__LINE__Var@?0??OnTCPNetworkSubUserRepulseSit@CAttemperEngineSink@@IAE_NPAXGK@Z@4JA ; `CAttemperEngineSink::OnTCPNetworkSubUserRepulseSit'::`1'::__LINE__Var
PUBLIC	??_C@_0CB@KFOICNLL@?$LE?K?W?$MA?S?P?M?f?$LM?R?I?h?V?C?A?K?$LC?$LL?S?k?D?z?M?$KM?W?$MA?S?N?O?$LH?$KD@ ; `string'
PUBLIC	?__LINE__Var@?0??OnTCPNetworkSubMemberKickUser@CAttemperEngineSink@@IAE_NPAXGK@Z@4JA ; `CAttemperEngineSink::OnTCPNetworkSubMemberKickUser'::`1'::__LINE__Var
PUBLIC	??_C@_0CB@KLELGMNL@?$LK?$NM?$LB?$KH?G?$LI?$KD?$KM?L?$NP?$LD?v?$LJ?$NM?$MA?m?T?$LB?J?G?$LC?$LL?$LB?$LL?T?J?P?m?$LF?D?$KD@ ; `string'
PUBLIC	??_C@_0BL@FDOJANAH@?$LK?$NM?$LB?$KH?G?$LI?$KD?$KM?$LA?Y?H?K?S?N?O?$LH?$LC?$LL?P?m?L?$NP?H?K?$KD?$KB@ ; `string'
PUBLIC	??_C@_0DA@FMANDGLC@?S?I?S?Z?M?f?$LM?R?5?$FL?5?$CFs?5?$FN?5?U?$PN?T?Z?S?N?O?$LH?V?P?0?D?z?$LC?$LL@ ; `string'
PUBLIC	??_C@_0DE@ODOOJLKG@?S?I?S?Z?M?f?$LM?R?5?$FL?5?$CFs?5?$FN?5?U?$PN?T?Z?J?$LJ?S?C?$LH?$MA?L?$NP?$LP?$KI?0@ ; `string'
PUBLIC	??_C@_0BD@DKHPFDBP@?D?c?R?Q?$LB?$LL?$CFs?G?k?$MA?k?W?$MA?W?S?$KD?$KB@ ; `string'
PUBLIC	?__LINE__Var@?0??OnTCPNetworkSubUserInfoReq@CAttemperEngineSink@@IAE_NPAXGK@Z@4JA ; `CAttemperEngineSink::OnTCPNetworkSubUserInfoReq'::`1'::__LINE__Var
PUBLIC	??_C@_0BL@OFHFAKJ@OnTCPNetworkSubUserInfoReq@	; `string'
PUBLIC	?__LINE__Var@?0??OnTCPNetworkSubUserChairReq@CAttemperEngineSink@@IAE_NPAXGK@Z@4JA ; `CAttemperEngineSink::OnTCPNetworkSubUserChairReq'::`1'::__LINE__Var
PUBLIC	??_C@_0BM@GOINLOJB@OnTCPNetworkSubUserChairReq@	; `string'
PUBLIC	??_C@_0BH@GBDECKFN@?C?$LL?U?R?$LF?$LN?$LP?I?$LN?x?H?k?$LF?D?S?N?O?$LH?W?$MA?$KD?$KB@ ; `string'
PUBLIC	?__LINE__Var@?0??OnTCPNetworkSubChairUserInfoReq@CAttemperEngineSink@@IAE_NPAXGK@Z@4JA ; `CAttemperEngineSink::OnTCPNetworkSubChairUserInfoReq'::`1'::__LINE__Var
PUBLIC	?__LINE__Var@?0??OnTCPNetworkSubGrowLevelQuery@CAttemperEngineSink@@IAE_NPAXGK@Z@4JA ; `CAttemperEngineSink::OnTCPNetworkSubGrowLevelQuery'::`1'::__LINE__Var
PUBLIC	?__LINE__Var@?0??OnTCPNetworkSubPurchaseMember@CAttemperEngineSink@@IAE_NPAXGK@Z@4JA ; `CAttemperEngineSink::OnTCPNetworkSubPurchaseMember'::`1'::__LINE__Var
PUBLIC	?__LINE__Var@?0??OnTCPNetworkSubExchangeScoreByIngot@CAttemperEngineSink@@IAE_NPAXGK@Z@4JA ; `CAttemperEngineSink::OnTCPNetworkSubExchangeScoreByIngot'::`1'::__LINE__Var
PUBLIC	?__LINE__Var@?0??OnTCPNetworkSubExchangeScoreByBeans@CAttemperEngineSink@@IAE_NPAXGK@Z@4JA ; `CAttemperEngineSink::OnTCPNetworkSubExchangeScoreByBeans'::`1'::__LINE__Var
PUBLIC	?__LINE__Var@?0??OnTCPNetworkSubQueryInsureInfo@CAttemperEngineSink@@IAE_NPAXGK@Z@4JA ; `CAttemperEngineSink::OnTCPNetworkSubQueryInsureInfo'::`1'::__LINE__Var
PUBLIC	?__LINE__Var@?0??OnTCPNetworkSubEnableInsureRequest@CAttemperEngineSink@@IAE_NPAXGK@Z@4JA ; `CAttemperEngineSink::OnTCPNetworkSubEnableInsureRequest'::`1'::__LINE__Var
PUBLIC	?__LINE__Var@?0??OnTCPNetworkSubSaveScoreRequest@CAttemperEngineSink@@IAE_NPAXGK@Z@4JA ; `CAttemperEngineSink::OnTCPNetworkSubSaveScoreRequest'::`1'::__LINE__Var
PUBLIC	??_C@_0CD@DACLODCK@?$LE?K?$LH?$LP?$LM?d?$LN?$PL?V?$LJ?$LH?$LP?$LM?d?$LE?f?$LP?n?$KD?$KM?$LE?f?H?k?$LC?Y?W?w?J?$KH?$LA@ ; `string'
PUBLIC	??_C@_0CD@MMKIAMDO@?$LE?K?$LH?$LP?$LM?d?$LN?$PL?V?$LJ?S?N?O?$LH?$LE?f?$LP?n?$KD?$KM?$LE?f?H?k?$LC?Y?W?w?J?$KH?$LA@ ; `string'
PUBLIC	??_C@_0DL@FGFMEKII@?S?I?S?Z?D?z?U?$PN?T?Z?S?N?O?$LH?V?P?$KD?$KM?S?N?O?$LH?$LB?R?$LP?I?$LE?f?H?k?$LG@ ; `string'
PUBLIC	??_C@_0CD@DPHNMKOK@?D?z?$LF?D?S?N?O?$LH?$LB?R?S?$OA?$LG?n?$LC?$LL?W?c?$KD?$KM?$LE?f?H?k?$LC?Y?W?w?J?$KH?$LA@ ; `string'
PUBLIC	?__LINE__Var@?0??OnTCPNetworkSubTakeScoreRequest@CAttemperEngineSink@@IAE_NPAXGK@Z@4JA ; `CAttemperEngineSink::OnTCPNetworkSubTakeScoreRequest'::`1'::__LINE__Var
PUBLIC	??_C@_0CD@FDAGJDOL@?$LE?K?$LH?$LP?$LM?d?$LN?$PL?V?$LJ?$LH?$LP?$LM?d?H?$KB?$LP?n?$KD?$KM?H?$KB?$LD?v?$LC?Y?W?w?J?$KH?$LA@ ; `string'
PUBLIC	??_C@_0CD@KPIFHMPP@?$LE?K?$LH?$LP?$LM?d?$LN?$PL?V?$LJ?S?N?O?$LH?H?$KB?$LP?n?$KD?$KM?H?$KB?$LD?v?$LC?Y?W?w?J?$KH?$LA@ ; `string'
PUBLIC	?__LINE__Var@?0??OnTCPNetworkSubTransferScoreRequest@CAttemperEngineSink@@IAE_NPAXGK@Z@4JA ; `CAttemperEngineSink::OnTCPNetworkSubTransferScoreRequest'::`1'::__LINE__Var
PUBLIC	?__LINE__Var@?0??OnTCPNetworkSubQueryUserInfoRequest@CAttemperEngineSink@@IAE_NPAXGK@Z@4JA ; `CAttemperEngineSink::OnTCPNetworkSubQueryUserInfoRequest'::`1'::__LINE__Var
PUBLIC	??_C@_0BF@KCLAAAGP@?G?k?J?d?H?k?$LK?O?$LH?$KI?$LF?D?M?f?$LM?RID?$KD?$KB@ ; `string'
PUBLIC	?__LINE__Var@?0??OnTCPNetworkSubCheckInQueryRequest@CAttemperEngineSink@@IAE_NPAXGK@Z@4JA ; `CAttemperEngineSink::OnTCPNetworkSubCheckInQueryRequest'::`1'::__LINE__Var
PUBLIC	?__LINE__Var@?0??OnTCPNetworkSubCheckInDoneRequest@CAttemperEngineSink@@IAE_NPAXGK@Z@4JA ; `CAttemperEngineSink::OnTCPNetworkSubCheckInDoneRequest'::`1'::__LINE__Var
PUBLIC	?__LINE__Var@?0??OnTCPNetworkSubTakeTaskRequest@CAttemperEngineSink@@IAE_NPAXGK@Z@4JA ; `CAttemperEngineSink::OnTCPNetworkSubTakeTaskRequest'::`1'::__LINE__Var
PUBLIC	?__LINE__Var@?0??OnTCPNetworkSubTaskRewardRequest@CAttemperEngineSink@@IAE_NPAXGK@Z@4JA ; `CAttemperEngineSink::OnTCPNetworkSubTaskRewardRequest'::`1'::__LINE__Var
PUBLIC	?__LINE__Var@?0??OnTCPNetworkSubLoadTaskInfoRequest@CAttemperEngineSink@@IAE_NPAXGK@Z@4JA ; `CAttemperEngineSink::OnTCPNetworkSubLoadTaskInfoRequest'::`1'::__LINE__Var
PUBLIC	?__LINE__Var@?0??OnTCPNetworkSubGiveUpTaskRequest@CAttemperEngineSink@@IAE_NPAXGK@Z@4JA ; `CAttemperEngineSink::OnTCPNetworkSubGiveUpTaskRequest'::`1'::__LINE__Var
PUBLIC	?__LINE__Var@?0??OnTCPNetworkSubMemberQueryInfo@CAttemperEngineSink@@IAE_NPAXGK@Z@4JA ; `CAttemperEngineSink::OnTCPNetworkSubMemberQueryInfo'::`1'::__LINE__Var
PUBLIC	?__LINE__Var@?0??OnTCPNetworkSubMemberDayPresent@CAttemperEngineSink@@IAE_NPAXGK@Z@4JA ; `CAttemperEngineSink::OnTCPNetworkSubMemberDayPresent'::`1'::__LINE__Var
PUBLIC	?__LINE__Var@?0??OnTCPNetworkSubMemberDayGift@CAttemperEngineSink@@IAE_NPAXGK@Z@4JA ; `CAttemperEngineSink::OnTCPNetworkSubMemberDayGift'::`1'::__LINE__Var
PUBLIC	?__LINE__Var@?0??OnTCPNetworkSubBaseEnsureTakeRequest@CAttemperEngineSink@@IAE_NPAXGK@Z@4JA ; `CAttemperEngineSink::OnTCPNetworkSubBaseEnsureTakeRequest'::`1'::__LINE__Var
PUBLIC	?__LINE__Var@?0??OnTCPNetworkSubQueryOption@CAttemperEngineSink@@IAE_NPAXGK@Z@4JA ; `CAttemperEngineSink::OnTCPNetworkSubQueryOption'::`1'::__LINE__Var
PUBLIC	?__LINE__Var@?0??OnTCPNetworkSubOptionServer@CAttemperEngineSink@@IAE_NPAXGK@Z@4JA ; `CAttemperEngineSink::OnTCPNetworkSubOptionServer'::`1'::__LINE__Var
PUBLIC	??_C@_0DD@HAEGHLFE@?$LF?$LB?G?$LA?S?N?O?$LH?$LH?$PO?N?q?F?w?$LH?$LP?$LM?d?$LF?D?$KB?$LA?T?K?P?P?V?$LF?$KB?$LB?W@ ; `string'
PUBLIC	??_C@_0CH@EPNGOIIN@?T?$LG?$LD?L?P?$NO?$LI?D?$LH?$LP?$LM?d?E?d?V?C?M?$KI?V?$KK?5?$LJ?$NM?$MA?m?T?$LB?5?$CFs?5@ ; `string'
PUBLIC	?__LINE__Var@?0??OnTCPNetworkSubManagerKickUser@CAttemperEngineSink@@IAE_NPAXGK@Z@4JA ; `CAttemperEngineSink::OnTCPNetworkSubManagerKickUser'::`1'::__LINE__Var
PUBLIC	??_C@_0BH@LKMDCKF@?D?c?R?Q?$LB?$LL?$LJ?$NM?$MA?m?T?$LB?G?k?$MA?k?W?$MA?W?S?$KD?$KB@ ; `string'
PUBLIC	??_C@_0BN@NHDPIONK@?D?c?R?Q?$LB?$LL?$LJ?$NM?$MA?m?T?$LB?G?k?$MA?k?$LE?K?S?N?O?$LH?$LH?$LP?$LM?d?$KD?$KB@ ; `string'
PUBLIC	?__LINE__Var@?0??OnTCPNetworkSubLimitUserChat@CAttemperEngineSink@@IAE_NPAXGK@Z@4JA ; `CAttemperEngineSink::OnTCPNetworkSubLimitUserChat'::`1'::__LINE__Var
PUBLIC	??_C@_0BH@DNGDNDFB@?S?C?$LL?$KH?A?D?L?l?H?$KI?O?$NO?E?d?V?C?$LD?I?$LJ?$KG?$KD?$KB@ ; `string'
PUBLIC	?__LINE__Var@?0??OnTCPNetworkSubKickAllUser@CAttemperEngineSink@@IAE_NPAXGK@Z@4JA ; `CAttemperEngineSink::OnTCPNetworkSubKickAllUser'::`1'::__LINE__Var
PUBLIC	?__LINE__Var@?0??OnTCPNetworkSubSendMessage@CAttemperEngineSink@@IAE_NPAXGK@Z@4JA ; `CAttemperEngineSink::OnTCPNetworkSubSendMessage'::`1'::__LINE__Var
PUBLIC	?__LINE__Var@?0??OnTCPNetworkSubDismissGame@CAttemperEngineSink@@IAE_NPAXGK@Z@4JA ; `CAttemperEngineSink::OnTCPNetworkSubDismissGame'::`1'::__LINE__Var
PUBLIC	??_C@_0BN@HMAGCPIB@?$LB?$KH?G?$LI?$KD?$KM?$LE?K?W?$MA?R?Q?$LB?$LL?$LJ?$NM?$MA?m?T?$LB?$LN?b?I?$KC?S?N?O?$LH@ ; `string'
PUBLIC	?__LINE__Var@?0??OnTCPNetworkSubWarningUser@CAttemperEngineSink@@IAE_NPAXGK@Z@4JA ; `CAttemperEngineSink::OnTCPNetworkSubWarningUser'::`1'::__LINE__Var
PUBLIC	??_C@_08EGGGBJKA@?$LO?$KP?$LI?f?$KD?$LK?$CFs@	; `string'
PUBLIC	?__LINE__Var@?0??OnTCPNetworkSubRoomCheat@CAttemperEngineSink@@IAE_NPAXGK@Z@4JA ; `CAttemperEngineSink::OnTCPNetworkSubRoomCheat'::`1'::__LINE__Var
PUBLIC	?__LINE__Var@?0??OnTCPNetworkSubCreateTable@CAttemperEngineSink@@IAE_NPAXGK@Z@4JA ; `CAttemperEngineSink::OnTCPNetworkSubCreateTable'::`1'::__LINE__Var
PUBLIC	??_C@_0CF@DJFGALCD@?D?$LP?G?$LA?$LI?C?S?N?O?$LH?T?$LM?U?$LN?$LH?$LP?$LM?d?R?Q?B?z?$KD?$KM?G?k?I?T?$LK?s?T@ ; `string'
PUBLIC	?__LINE__Var@?0??OnTCPNetworkSubCancelRequest@CAttemperEngineSink@@IAE_NPAXGK@Z@4JA ; `CAttemperEngineSink::OnTCPNetworkSubCancelRequest'::`1'::__LINE__Var
PUBLIC	?__LINE__Var@?0??OnTCPNetworkSubRequestReply@CAttemperEngineSink@@IAE_NPAXGK@Z@4JA ; `CAttemperEngineSink::OnTCPNetworkSubRequestReply'::`1'::__LINE__Var
PUBLIC	?__LINE__Var@?0??OnTCPNetworkSubHostDissumeTable@CAttemperEngineSink@@IAE_NPAXGK@Z@4JA ; `CAttemperEngineSink::OnTCPNetworkSubHostDissumeTable'::`1'::__LINE__Var
PUBLIC	?__LINE__Var@?0??OnEventUserLogon@CAttemperEngineSink@@IAEXPAUIServerUserItem@@_N@Z@4JA ; `CAttemperEngineSink::OnEventUserLogon'::`1'::__LINE__Var
PUBLIC	??_C@_0CJ@KGCLMCGJ@?$LL?$LG?S?$KN?D?z?$LN?x?H?k?$KB?$LA?$CFs?$KB?$LB?S?N?O?$LH?$LH?$LP?$LM?d?$KD?$KM?W?$KD?D?z?S@ ; `string'
PUBLIC	?__LINE__Var@?0??PerformTaskProgress@CAttemperEngineSink@@IAE_NPAUIServerUserItem@@PAUtagUserTaskEntry@@KKK@Z@4JA ; `CAttemperEngineSink::PerformTaskProgress'::`1'::__LINE__Var
PUBLIC	?__LINE__Var@?0??PerformRoomTaskProgress@CAttemperEngineSink@@QAE_NPAUIServerUserItem@@PAUtagUserTaskEntry@@HHH@Z@4JA ; `CAttemperEngineSink::PerformRoomTaskProgress'::`1'::__LINE__Var
PUBLIC	?__LINE__Var@?0??SwitchUserItemConnect@CAttemperEngineSink@@IAE_NPAUIServerUserItem@@QADGEGG@Z@4JA ; `CAttemperEngineSink::SwitchUserItemConnect'::`1'::__LINE__Var
PUBLIC	??_C@_0DJ@GOKIFCOM@?G?k?W?$KC?R?b?$KD?$KM?D?z?$LF?D?U?J?$LK?E?T?Z?A?m?R?$LL?$LF?X?$LH?$LN?$LN?x?H?k?A@ ; `string'
PUBLIC	??_C@_0DL@JOMAFBAE@?G?k?W?$KC?R?b?$KD?$KM?D?z?$LF?D?U?J?$LK?E?T?Z?A?m?R?$LL?$LF?X?$LH?$LN?$LN?x?H?k?A@ ; `string'
PUBLIC	?__LINE__Var@?0??SendInsureFailure@CAttemperEngineSink@@IAE_NPAUIServerUserItem@@PBDJE@Z@4JA ; `CAttemperEngineSink::SendInsureFailure'::`1'::__LINE__Var
PUBLIC	?__LINE__Var@?0??SendUserInfoPacket@CAttemperEngineSink@@IAE_NPAUIServerUserItem@@K_N@Z@4JA ; `CAttemperEngineSink::SendUserInfoPacket'::`1'::__LINE__Var
PUBLIC	??_C@_0CD@EJEBAEKE@?T?y?K?M?J?$KH?$LA?$NM?$KD?$KM?D?z?R?$KK?T?y?K?M?$LF?D?M?f?$LM?R?R?Q?$LO?$KN?$MA?k?$LP@ ; `string'
PUBLIC	??_C@_0CA@DODBMCGI@?$LE?K?$LH?$LP?$LM?d?$LC?$LL?$LP?I?R?T?J?$LJ?S?C?$LE?K?$LF?$MA?$LO?$NP?0?$LJ?$LK?B?r?J?$KH?$LA?$NM@ ; `string'
PUBLIC	??_C@_0BK@PJNAMAD@?$LE?K?$LF?$MA?$LO?$NP?$LL?$LJ?N?$LE?F?t?S?C?0?$LJ?$LK?B?r?J?$KH?$LA?$NM?$KD?$KB@ ; `string'
PUBLIC	??_C@_0BO@BJFEPHFF@?$LE?K?$LF?$MA?$LO?$NP?$LC?$LL?$LP?I?W?T?$LM?$LK?J?$LJ?S?C?0?$LJ?$LK?B?r?J?$KH?$LA?$NM?$KD?$KB@ ; `string'
PUBLIC	??_C@_0CN@PKMMDIPC@?$LE?K?$LF?$MA?$LO?$NP?$LC?$LL?$LP?I?T?y?K?M?$LI?x?M?f?$LM?R?0?V?$LL?D?$NM?W?T?$LM?$LK?J?$LJ@ ; `string'
PUBLIC	??_C@_0CE@NGJLFFIP@?$LE?K?$LF?$MA?$LO?$NP?$LC?$LL?$LP?I?T?y?K?M?$LI?x?E?T?$LJ?$NL?S?C?$LL?$KH?0?$LJ?$LK?B?r?J?$KH@ ; `string'
PUBLIC	??_C@_0DD@NEAJDNEE@?D?z?O?V?T?Z?$LF?D?$LL?$PN?$LH?V?R?Q?$LO?$KN?J?G?$LH?G?$LI?$LK?J?$PN?$KD?$KM?$LC?$LL?P?h?R@ ; `string'
PUBLIC	??_C@_0DH@KNCICMPD@?$FL?5?$CFs?5?$FN?O?V?T?Z?$LF?D?$LL?$PN?$LH?V?R?Q?$LO?$KN?J?G?$LH?G?$LI?$LK?J?$PN?$KD?$KM?$LC@ ; `string'
PUBLIC	??_C@_0DA@MICEKNAN@?D?z?O?V?T?Z?$LF?D?L?S?E?$NM?B?J?R?Q?$LO?$KN?N?$KK0?$KD?$KM?$LC?$LL?P?h?R?$KK?J?$LJ@ ; `string'
PUBLIC	??_C@_0DE@EDOEDLLN@?$FL?5?$CFs?5?$FN?O?V?T?Z?$LF?D?L?S?E?$NM?B?J?R?Q?$LO?$KN?N?$KK0?$KD?$KM?$LC?$LL?P?h@ ; `string'
PUBLIC	?__LINE__Var@?0??GetBindUserItem@CAttemperEngineSink@@UAEPAUIServerUserItem@@G@Z@4JA ; `CAttemperEngineSink::GetBindUserItem'::`1'::__LINE__Var
PUBLIC	?__LINE__Var@?0??GetBindParameter@CAttemperEngineSink@@UAEPAUtagBindParameter@@G@Z@4JA ; `CAttemperEngineSink::GetBindParameter'::`1'::__LINE__Var
PUBLIC	?__LINE__Var@?0??GetPropertyType@CAttemperEngineSink@@QAEGG@Z@4JA ; `CAttemperEngineSink::GetPropertyType'::`1'::__LINE__Var
PUBLIC	?__LINE__Var@?0??PerformDistribute@CAttemperEngineSink@@IAE_NXZ@4JA ; `CAttemperEngineSink::PerformDistribute'::`1'::__LINE__Var
PUBLIC	??_7?$CWHArray@UtagDistributeInfo@@ABU1@@@6B@	; CWHArray<tagDistributeInfo,tagDistributeInfo const &>::`vftable'
PUBLIC	??_C@_0M@OHDHAOMF@?$LH?V?E?d?S?C?$LL?$KH1?$AN?6@ ; `string'
PUBLIC	??_C@_0M@PFICKBCL@?$LH?V?E?d?S?C?$LL?$KH2?$AN?6@ ; `string'
PUBLIC	??_C@_0M@ENDOMGEO@?$LH?V?E?d?S?C?$LL?$KH3?$AN?6@ ; `string'
PUBLIC	??_C@_0P@CMOCDKCC@?$LH?V?E?d?S?C?$LL?$KH4?9?$CFs?$AN?6@ ; `string'
PUBLIC	??_C@_0L@JCGJHCKC@?W?x?O?B?J?$KH?$LA?$NM?$KD?$KB@ ; `string'
PUBLIC	??_C@_09FMIBEIGP@?$LH?V?E?d?S?C?$LL?$KH5@	; `string'
PUBLIC	??_C@_09HHKMBLKM@?$LH?V?E?d?S?C?$LL?$KH6@	; `string'
PUBLIC	??_C@_09GOLHCKON@?$LH?V?E?d?S?C?$LL?$KH7@	; `string'
PUBLIC	??_C@_09OJCPDGCC@?$LH?V?E?d?S?C?$LL?$KH8@	; `string'
PUBLIC	?__LINE__Var@?0??InitTableFrameArray@CAttemperEngineSink@@IAE_NXZ@4JA ; `CAttemperEngineSink::InitTableFrameArray'::`1'::__LINE__Var
PUBLIC	?__LINE__Var@?0??InsertDistribute@CAttemperEngineSink@@UAE_NPAUIServerUserItem@@@Z@4JA ; `CAttemperEngineSink::InsertDistribute'::`1'::__LINE__Var
PUBLIC	?__LINE__Var@?0??SendUserInfoPacketBatchToMobileUser@CAttemperEngineSink@@IAE_NPAUIServerUserItem@@K@Z@4JA ; `CAttemperEngineSink::SendUserInfoPacketBatchToMobileUser'::`1'::__LINE__Var
PUBLIC	?__LINE__Var@?0??SendUserInfoPacketBatchToPage@CAttemperEngineSink@@IAE_NPAUIServerUserItem@@@Z@4JA ; `CAttemperEngineSink::SendUserInfoPacketBatchToPage'::`1'::__LINE__Var
PUBLIC	?__LINE__Var@?0??SendSystemMessage@CAttemperEngineSink@@IAE_NPAUCMD_GR_SendMessage@@G@Z@4JA ; `CAttemperEngineSink::SendSystemMessage'::`1'::__LINE__Var
PUBLIC	??_C@_0DF@LDFGAABH@g?3?2?M?x?$LK?$PM?2happygamewh?2?$LH?$PO?N?q?$LG?K?2?O?$LF?M?$LD@ ; `string'
PUBLIC	??_R4IUnknownEx@@6B@				; IUnknownEx::`RTTI Complete Object Locator'
PUBLIC	??_R0?AUIUnknownEx@@@8				; IUnknownEx `RTTI Type Descriptor'
PUBLIC	??_R3IUnknownEx@@8				; IUnknownEx::`RTTI Class Hierarchy Descriptor'
PUBLIC	??_R2IUnknownEx@@8				; IUnknownEx::`RTTI Base Class Array'
PUBLIC	??_R1A@?0A@EA@IUnknownEx@@8			; IUnknownEx::`RTTI Base Class Descriptor at (0,-1,0,64)'
PUBLIC	??_R4IAttemperEngineSink@@6B@			; IAttemperEngineSink::`RTTI Complete Object Locator'
PUBLIC	??_R0?AUIAttemperEngineSink@@@8			; IAttemperEngineSink `RTTI Type Descriptor'
PUBLIC	??_R3IAttemperEngineSink@@8			; IAttemperEngineSink::`RTTI Class Hierarchy Descriptor'
PUBLIC	??_R2IAttemperEngineSink@@8			; IAttemperEngineSink::`RTTI Base Class Array'
PUBLIC	??_R1A@?0A@EA@IAttemperEngineSink@@8		; IAttemperEngineSink::`RTTI Base Class Descriptor at (0,-1,0,64)'
PUBLIC	??_R4IServerUserItemSink@@6B@			; IServerUserItemSink::`RTTI Complete Object Locator'
PUBLIC	??_R0?AUIServerUserItemSink@@@8			; IServerUserItemSink `RTTI Type Descriptor'
PUBLIC	??_R3IServerUserItemSink@@8			; IServerUserItemSink::`RTTI Class Hierarchy Descriptor'
PUBLIC	??_R2IServerUserItemSink@@8			; IServerUserItemSink::`RTTI Base Class Array'
PUBLIC	??_R1A@?0A@EA@IServerUserItemSink@@8		; IServerUserItemSink::`RTTI Base Class Descriptor at (0,-1,0,64)'
PUBLIC	??_R4IMainServiceFrame@@6B@			; IMainServiceFrame::`RTTI Complete Object Locator'
PUBLIC	??_R0?AUIMainServiceFrame@@@8			; IMainServiceFrame `RTTI Type Descriptor'
PUBLIC	??_R3IMainServiceFrame@@8			; IMainServiceFrame::`RTTI Class Hierarchy Descriptor'
PUBLIC	??_R2IMainServiceFrame@@8			; IMainServiceFrame::`RTTI Base Class Array'
PUBLIC	??_R1A@?0A@EA@IMainServiceFrame@@8		; IMainServiceFrame::`RTTI Base Class Descriptor at (0,-1,0,64)'
PUBLIC	??_R4?$CWHArray@PAVCTableFrame@@ABQAV1@@@6B@	; CWHArray<CTableFrame *,CTableFrame * const &>::`RTTI Complete Object Locator'
PUBLIC	??_R0?AV?$CWHArray@PAVCTableFrame@@ABQAV1@@@@8	; CWHArray<CTableFrame *,CTableFrame * const &> `RTTI Type Descriptor'
PUBLIC	??_R3?$CWHArray@PAVCTableFrame@@ABQAV1@@@8	; CWHArray<CTableFrame *,CTableFrame * const &>::`RTTI Class Hierarchy Descriptor'
PUBLIC	??_R2?$CWHArray@PAVCTableFrame@@ABQAV1@@@8	; CWHArray<CTableFrame *,CTableFrame * const &>::`RTTI Base Class Array'
PUBLIC	??_R1A@?0A@EA@?$CWHArray@PAVCTableFrame@@ABQAV1@@@8 ; CWHArray<CTableFrame *,CTableFrame * const &>::`RTTI Base Class Descriptor at (0,-1,0,64)'
PUBLIC	??_R4?$CWHArray@UtagDistributeInfo@@ABU1@@@6B@	; CWHArray<tagDistributeInfo,tagDistributeInfo const &>::`RTTI Complete Object Locator'
PUBLIC	??_R0?AV?$CWHArray@UtagDistributeInfo@@ABU1@@@@8 ; CWHArray<tagDistributeInfo,tagDistributeInfo const &> `RTTI Type Descriptor'
PUBLIC	??_R3?$CWHArray@UtagDistributeInfo@@ABU1@@@8	; CWHArray<tagDistributeInfo,tagDistributeInfo const &>::`RTTI Class Hierarchy Descriptor'
PUBLIC	??_R2?$CWHArray@UtagDistributeInfo@@ABU1@@@8	; CWHArray<tagDistributeInfo,tagDistributeInfo const &>::`RTTI Base Class Array'
PUBLIC	??_R1A@?0A@EA@?$CWHArray@UtagDistributeInfo@@ABU1@@@8 ; CWHArray<tagDistributeInfo,tagDistributeInfo const &>::`RTTI Base Class Descriptor at (0,-1,0,64)'
PUBLIC	??_R4?$CWHArray@PBDABQBD@@6B@			; CWHArray<char const *,char const * const &>::`RTTI Complete Object Locator'
PUBLIC	??_R0?AV?$CWHArray@PBDABQBD@@@8			; CWHArray<char const *,char const * const &> `RTTI Type Descriptor'
PUBLIC	??_R3?$CWHArray@PBDABQBD@@8			; CWHArray<char const *,char const * const &>::`RTTI Class Hierarchy Descriptor'
PUBLIC	??_R2?$CWHArray@PBDABQBD@@8			; CWHArray<char const *,char const * const &>::`RTTI Base Class Array'
PUBLIC	??_R1A@?0A@EA@?$CWHArray@PBDABQBD@@8		; CWHArray<char const *,char const * const &>::`RTTI Base Class Descriptor at (0,-1,0,64)'
PUBLIC	??_R4CSensitiveWordsFilter@@6B@			; CSensitiveWordsFilter::`RTTI Complete Object Locator'
PUBLIC	??_R0?AVCSensitiveWordsFilter@@@8		; CSensitiveWordsFilter `RTTI Type Descriptor'
PUBLIC	??_R3CSensitiveWordsFilter@@8			; CSensitiveWordsFilter::`RTTI Class Hierarchy Descriptor'
PUBLIC	??_R2CSensitiveWordsFilter@@8			; CSensitiveWordsFilter::`RTTI Base Class Array'
PUBLIC	??_R1A@?0A@EA@CSensitiveWordsFilter@@8		; CSensitiveWordsFilter::`RTTI Base Class Descriptor at (0,-1,0,64)'
PUBLIC	??_R4?$CWHArray@PAUtagSystemMessage@@ABQAU1@@@6B@ ; CWHArray<tagSystemMessage *,tagSystemMessage * const &>::`RTTI Complete Object Locator'
PUBLIC	??_R0?AV?$CWHArray@PAUtagSystemMessage@@ABQAU1@@@@8 ; CWHArray<tagSystemMessage *,tagSystemMessage * const &> `RTTI Type Descriptor'
PUBLIC	??_R3?$CWHArray@PAUtagSystemMessage@@ABQAU1@@@8	; CWHArray<tagSystemMessage *,tagSystemMessage * const &>::`RTTI Class Hierarchy Descriptor'
PUBLIC	??_R2?$CWHArray@PAUtagSystemMessage@@ABQAU1@@@8	; CWHArray<tagSystemMessage *,tagSystemMessage * const &>::`RTTI Base Class Array'
PUBLIC	??_R1A@?0A@EA@?$CWHArray@PAUtagSystemMessage@@ABQAU1@@@8 ; CWHArray<tagSystemMessage *,tagSystemMessage * const &>::`RTTI Base Class Descriptor at (0,-1,0,64)'
PUBLIC	??_R4?$CMap@KKKAAK@@6B@				; CMap<unsigned long,unsigned long,unsigned long,unsigned long &>::`RTTI Complete Object Locator'
PUBLIC	??_R0?AV?$CMap@KKKAAK@@@8			; CMap<unsigned long,unsigned long,unsigned long,unsigned long &> `RTTI Type Descriptor'
PUBLIC	??_R3?$CMap@KKKAAK@@8				; CMap<unsigned long,unsigned long,unsigned long,unsigned long &>::`RTTI Class Hierarchy Descriptor'
PUBLIC	??_R2?$CMap@KKKAAK@@8				; CMap<unsigned long,unsigned long,unsigned long,unsigned long &>::`RTTI Base Class Array'
PUBLIC	??_R1A@?0A@EA@?$CMap@KKKAAK@@8			; CMap<unsigned long,unsigned long,unsigned long,unsigned long &>::`RTTI Base Class Descriptor at (0,-1,0,64)'
PUBLIC	??_R4?$CWHArray@PAUtagPersonalTableParameter@@ABQAU1@@@6B@ ; CWHArray<tagPersonalTableParameter *,tagPersonalTableParameter * const &>::`RTTI Complete Object Locator'
PUBLIC	??_R0?AV?$CWHArray@PAUtagPersonalTableParameter@@ABQAU1@@@@8 ; CWHArray<tagPersonalTableParameter *,tagPersonalTableParameter * const &> `RTTI Type Descriptor'
PUBLIC	??_R3?$CWHArray@PAUtagPersonalTableParameter@@ABQAU1@@@8 ; CWHArray<tagPersonalTableParameter *,tagPersonalTableParameter * const &>::`RTTI Class Hierarchy Descriptor'
PUBLIC	??_R2?$CWHArray@PAUtagPersonalTableParameter@@ABQAU1@@@8 ; CWHArray<tagPersonalTableParameter *,tagPersonalTableParameter * const &>::`RTTI Base Class Array'
PUBLIC	??_R1A@?0A@EA@?$CWHArray@PAUtagPersonalTableParameter@@ABQAU1@@@8 ; CWHArray<tagPersonalTableParameter *,tagPersonalTableParameter * const &>::`RTTI Base Class Descriptor at (0,-1,0,64)'
PUBLIC	??_R4CAttemperEngineSink@@6BIAttemperEngineSink@@@ ; CAttemperEngineSink::`RTTI Complete Object Locator'
PUBLIC	??_R0?AVCAttemperEngineSink@@@8			; CAttemperEngineSink `RTTI Type Descriptor'
PUBLIC	??_R3CAttemperEngineSink@@8			; CAttemperEngineSink::`RTTI Class Hierarchy Descriptor'
PUBLIC	??_R2CAttemperEngineSink@@8			; CAttemperEngineSink::`RTTI Base Class Array'
PUBLIC	??_R1A@?0A@EA@CAttemperEngineSink@@8		; CAttemperEngineSink::`RTTI Base Class Descriptor at (0,-1,0,64)'
PUBLIC	??_R1A@?0A@EC@IUnknownEx@@8			; IUnknownEx::`RTTI Base Class Descriptor at (0,-1,0,66)'
PUBLIC	??_R13?0A@EA@IMainServiceFrame@@8		; IMainServiceFrame::`RTTI Base Class Descriptor at (4,-1,0,64)'
PUBLIC	??_R13?0A@EC@IUnknownEx@@8			; IUnknownEx::`RTTI Base Class Descriptor at (4,-1,0,66)'
PUBLIC	??_R17?0A@EA@IServerUserItemSink@@8		; IServerUserItemSink::`RTTI Base Class Descriptor at (8,-1,0,64)'
PUBLIC	??_R17?0A@EC@IUnknownEx@@8			; IUnknownEx::`RTTI Base Class Descriptor at (8,-1,0,66)'
PUBLIC	??_R4CAttemperEngineSink@@6BIMainServiceFrame@@@ ; CAttemperEngineSink::`RTTI Complete Object Locator'
PUBLIC	??_R4CAttemperEngineSink@@6BIServerUserItemSink@@@ ; CAttemperEngineSink::`RTTI Complete Object Locator'
EXTRN	__purecall:PROC
EXTRN	??3@YAXPAXI@Z:PROC				; operator delete
EXTRN	?__global_delete@@YAXPAXI@Z:PROC		; __global_delete
EXTRN	??_U@YAPAXI@Z:PROC				; operator new[]
EXTRN	??_V@YAXPAX@Z:PROC				; operator delete[]
EXTRN	_memcmp:PROC
EXTRN	_memcpy:PROC
EXTRN	_memmove:PROC
EXTRN	_memset:PROC
EXTRN	__imp__wcscpy_s:PROC
EXTRN	__imp__GetTickCount@0:PROC
EXTRN	__imp__FreeLibrary@4:PROC
EXTRN	__imp__LoadLibraryA@4:PROC
EXTRN	__imp__lstrcmpA@8:PROC
EXTRN	__imp__lstrcpynA@12:PROC
EXTRN	__imp__lstrlenA@4:PROC
EXTRN	__imp__wsprintfA:PROC
EXTRN	__imp__PeekMessageA@20:PROC
EXTRN	__imp__PostQuitMessage@4:PROC
EXTRN	__imp____stdio_common_vswprintf_s:PROC
EXTRN	__imp____stdio_common_vsprintf:PROC
EXTRN	__imp____stdio_common_vsnprintf_s:PROC
EXTRN	__imp__ldiv:PROC
EXTRN	__imp__srand:PROC
EXTRN	__imp__rand:PROC
EXTRN	__imp___time64:PROC
EXTRN	__imp___CrtDbgReport:PROC
EXTRN	__imp___CrtDbgReportW:PROC
EXTRN	?AfxAssertValidObject@@YGXPBVCObject@@PBDH@Z:PROC ; AfxAssertValidObject
EXTRN	?AfxThrowInvalidArgException@@YGXXZ:PROC	; AfxThrowInvalidArgException
EXTRN	?GetRuntimeClass@CObject@@UBEPAUCRuntimeClass@@XZ:PROC ; CObject::GetRuntimeClass
EXTRN	??1CObject@@UAE@XZ:PROC				; CObject::~CObject
EXTRN	??3CObject@@SGXPAX@Z:PROC			; CObject::operator delete
EXTRN	??0CObject@@IAE@XZ:PROC				; CObject::CObject
EXTRN	?Serialize@CObject@@UAEXAAVCArchive@@@Z:PROC	; CObject::Serialize
EXTRN	?AssertValid@CObject@@UBEXXZ:PROC		; CObject::AssertValid
EXTRN	?Dump@CObject@@UBEXAAVCDumpContext@@@Z:PROC	; CObject::Dump
EXTRN	__imp_??B?$CSimpleStringT@D$00@ATL@@QBEPBDXZ:PROC
EXTRN	__imp_?Append@?$CSimpleStringT@D$00@ATL@@QAEXPBD@Z:PROC
EXTRN	__imp_?GetLength@?$CSimpleStringT@D$00@ATL@@QBEHXZ:PROC
EXTRN	__imp_??0?$CStringT@DV?$StrTraitMFC_DLL@DV?$ChTraitsCRT@D@ATL@@@@@ATL@@QAE@XZ:PROC
EXTRN	__imp_??0?$CStringT@DV?$StrTraitMFC_DLL@DV?$ChTraitsCRT@D@ATL@@@@@ATL@@QAE@PBD@Z:PROC
EXTRN	__imp_??1?$CStringT@DV?$StrTraitMFC_DLL@DV?$ChTraitsCRT@D@ATL@@@@@ATL@@QAE@XZ:PROC
EXTRN	__imp_?Trim@?$CStringT@DV?$StrTraitMFC_DLL@DV?$ChTraitsCRT@D@ATL@@@@@ATL@@QAEAAV12@XZ:PROC
EXTRN	__imp_?Format@?$CStringT@DV?$StrTraitMFC_DLL@DV?$ChTraitsCRT@D@ATL@@@@@ATL@@QAAXPBDZZ:PROC
EXTRN	?AfxIsValidAddress@@YGHPBXIH@Z:PROC		; AfxIsValidAddress
EXTRN	??2@YAPAXIPBDH@Z:PROC				; operator new
EXTRN	??3@YAXPAXPBDH@Z:PROC				; operator delete
EXTRN	??_U@YAPAXIPBDH@Z:PROC				; operator new[]
EXTRN	?IsStoring@CArchive@@QBEHXZ:PROC		; CArchive::IsStoring
EXTRN	?EnsureRead@CArchive@@QAEXPAXI@Z:PROC		; CArchive::EnsureRead
EXTRN	?Write@CArchive@@QAEXPBXI@Z:PROC		; CArchive::Write
EXTRN	?ReadCount@CArchive@@QAEKXZ:PROC		; CArchive::ReadCount
EXTRN	?WriteCount@CArchive@@QAEXK@Z:PROC		; CArchive::WriteCount
EXTRN	?GetDepth@CDumpContext@@QBEHXZ:PROC		; CDumpContext::GetDepth
EXTRN	??6CDumpContext@@QAEAAV0@PBD@Z:PROC		; CDumpContext::operator<<
EXTRN	??6CDumpContext@@QAEAAV0@H@Z:PROC		; CDumpContext::operator<<
EXTRN	?Create@CPlex@@SGPAU1@AAPAU1@II@Z:PROC		; CPlex::Create
EXTRN	?FreeDataChain@CPlex@@QAEXXZ:PROC		; CPlex::FreeDataChain
EXTRN	__imp_?TraceString@CTraceService@@SA_NPBDW4enTraceLevel@@@Z:PROC
EXTRN	__imp_??0CUserTaskManager@@QAE@XZ:PROC
EXTRN	__imp_??1CUserTaskManager@@UAE@XZ:PROC
EXTRN	__imp_?ResetTaskManager@CUserTaskManager@@QAEXXZ:PROC
EXTRN	__imp_??0CServerUserManager@@QAE@XZ:PROC
EXTRN	__imp_??1CServerUserManager@@UAE@XZ:PROC
EXTRN	__imp_??0CAndroidUserManager@@QAE@XZ:PROC
EXTRN	__imp_??1CAndroidUserManager@@UAE@XZ:PROC
EXTRN	__imp_?SetMainServiceFrame@CAndroidUserManager@@QAEXPAUIMainServiceFrame@@@Z:PROC
EXTRN	__imp_?GetAndroidParameter@CAndroidUserManager@@QAEPAUtagAndroidParameterEx@@K@Z:PROC
EXTRN	__imp_??0CGamePropertyManager@@QAE@XZ:PROC
EXTRN	__imp_??1CGamePropertyManager@@UAE@XZ:PROC
EXTRN	__imp_?SetGamePropertyBuff@CGamePropertyManager@@QAE_NKQBUtagPropertyBuff@@G@Z:PROC
EXTRN	__imp_?ClearUserBuff@CGamePropertyManager@@QAE_NK@Z:PROC
EXTRN	__imp_?SearchPropertyItem@CGamePropertyManager@@QAEPAUtagPropertyInfo@@G@Z:PROC
EXTRN	__imp_?SearchValidPropertyBuff@CGamePropertyManager@@SAPAUtagPropertyBuff@@KW4PROP_KIND@@@Z:PROC
EXTRN	??0CTableFrame@@QAE@XZ:PROC			; CTableFrame::CTableFrame
EXTRN	?GetRandNullChairID@CTableFrame@@QAEGXZ:PROC	; CTableFrame::GetRandNullChairID
EXTRN	?GetSitUserCount@CTableFrame@@QAEGXZ:PROC	; CTableFrame::GetSitUserCount
EXTRN	?GetTableUserInfo@CTableFrame@@QAEGAAUtagTableUserInfo@@@Z:PROC ; CTableFrame::GetTableUserInfo
EXTRN	?InitializationFrame@CTableFrame@@QAE_NGAAUtagTableFrameParameter@@@Z:PROC ; CTableFrame::InitializationFrame
EXTRN	?OnEventUserOffLine@CTableFrame@@QAE_NPAUIServerUserItem@@@Z:PROC ; CTableFrame::OnEventUserOffLine
EXTRN	?OnEventTimer@CTableFrame@@QAE_NKI@Z:PROC	; CTableFrame::OnEventTimer
EXTRN	?OnEventSocketGame@CTableFrame@@QAE_NGPAXGPAUIServerUserItem@@@Z:PROC ; CTableFrame::OnEventSocketGame
EXTRN	?OnEventSocketFrame@CTableFrame@@QAE_NGPAXGPAUIServerUserItem@@@Z:PROC ; CTableFrame::OnEventSocketFrame
EXTRN	?SendRequestFailure@CTableFrame@@QAE_NPAUIServerUserItem@@PBDJ@Z:PROC ; CTableFrame::SendRequestFailure
EXTRN	?EfficacyEnterTableScoreRule@CTableFrame@@QAE_NGPAUIServerUserItem@@@Z:PROC ; CTableFrame::EfficacyEnterTableScoreRule
EXTRN	??0CServerListManager@NServerListManager@@QAE@XZ:PROC ; NServerListManager::CServerListManager::CServerListManager
EXTRN	??1CServerListManager@NServerListManager@@UAE@XZ:PROC ; NServerListManager::CServerListManager::~CServerListManager
EXTRN	?ResetServerList@CServerListManager@NServerListManager@@QAEXXZ:PROC ; NServerListManager::CServerListManager::ResetServerList
EXTRN	?CleanServerItem@CServerListManager@NServerListManager@@QAEXXZ:PROC ; NServerListManager::CServerListManager::CleanServerItem
EXTRN	?DisuseServerItem@CServerListManager@NServerListManager@@QAEXXZ:PROC ; NServerListManager::CServerListManager::DisuseServerItem
EXTRN	?InsertGameServer@CServerListManager@NServerListManager@@QAE_NPAUtagGameServer@@@Z:PROC ; NServerListManager::CServerListManager::InsertGameServer
EXTRN	?DeleteGameServer@CServerListManager@NServerListManager@@QAE_NG@Z:PROC ; NServerListManager::CServerListManager::DeleteGameServer
EXTRN	?SearchGameServer@CServerListManager@NServerListManager@@QAEPAVCGameServerItem@2@G@Z:PROC ; NServerListManager::CServerListManager::SearchGameServer
EXTRN	??0CDistributeManager@@QAE@XZ:PROC		; CDistributeManager::CDistributeManager
EXTRN	??1CDistributeManager@@UAE@XZ:PROC		; CDistributeManager::~CDistributeManager
EXTRN	?RemoveAll@CDistributeManager@@QAEXXZ:PROC	; CDistributeManager::RemoveAll
EXTRN	?RemoveDistributeNode@CDistributeManager@@QAEXPAUtagDistributeNode@@@Z:PROC ; CDistributeManager::RemoveDistributeNode
EXTRN	?RemoveDistributeNode@CDistributeManager@@QAEXPBUIServerUserItem@@@Z:PROC ; CDistributeManager::RemoveDistributeNode
EXTRN	?InsertDistributeNode@CDistributeManager@@QAEHABUtagDistributeInfo@@@Z:PROC ; CDistributeManager::InsertDistributeNode
EXTRN	?PerformDistribute@CDistributeManager@@QAEGAAV?$CWHArray@UtagDistributeInfo@@ABU1@@@G@Z:PROC ; CDistributeManager::PerformDistribute
EXTRN	??_E?$CWHArray@PBDABQBD@@UAEPAXI@Z:PROC		; CWHArray<char const *,char const * const &>::`vector deleting destructor'
EXTRN	??1CFilterTree@@QAE@XZ:PROC			; CFilterTree::~CFilterTree
EXTRN	?ResetSensitiveWordArray@CSensitiveWordsFilter@@QAEXXZ:PROC ; CSensitiveWordsFilter::ResetSensitiveWordArray
EXTRN	?AddSensitiveWords@CSensitiveWordsFilter@@QAE_NPBD@Z:PROC ; CSensitiveWordsFilter::AddSensitiveWords
EXTRN	?FinishAdd@CSensitiveWordsFilter@@QAEXXZ:PROC	; CSensitiveWordsFilter::FinishAdd
EXTRN	?Filtrate@CSensitiveWordsFilter@@QAEXPBDPADH@Z:PROC ; CSensitiveWordsFilter::Filtrate
EXTRN	??_ECSensitiveWordsFilter@@UAEPAXI@Z:PROC	; CSensitiveWordsFilter::`vector deleting destructor'
EXTRN	??_E?$CWHArray@PAUtagPersonalTableParameter@@ABQAU1@@@UAEPAXI@Z:PROC ; CWHArray<tagPersonalTableParameter *,tagPersonalTableParameter * const &>::`vector deleting destructor'
EXTRN	??_E?$CWHArray@PAVCTableFrame@@ABQAV1@@@UAEPAXI@Z:PROC ; CWHArray<CTableFrame *,CTableFrame * const &>::`vector deleting destructor'
EXTRN	??_E?$CMap@KKKAAK@@UAEPAXI@Z:PROC		; CMap<unsigned long,unsigned long,unsigned long,unsigned long &>::`vector deleting destructor'
EXTRN	??_E?$CWHArray@PAUtagSystemMessage@@ABQAU1@@@UAEPAXI@Z:PROC ; CWHArray<tagSystemMessage *,tagSystemMessage * const &>::`vector deleting destructor'
EXTRN	??_ECAttemperEngineSink@@UAEPAXI@Z:PROC		; CAttemperEngineSink::`vector deleting destructor'
EXTRN	?PostControlRequest@CServiceUnits@@QAE_NGPAXG@Z:PROC ; CServiceUnits::PostControlRequest
EXTRN	?RectifyServiceParameter@CServiceUnits@@IAE_NXZ:PROC ; CServiceUnits::RectifyServiceParameter
EXTRN	??_E?$CWHArray@UtagDistributeInfo@@ABU1@@@UAEPAXI@Z:PROC ; CWHArray<tagDistributeInfo,tagDistributeInfo const &>::`vector deleting destructor'
EXTRN	@__security_check_cookie@4:PROC
EXTRN	___CxxFrameHandler3:PROC
EXTRN	__alldiv:PROC
EXTRN	__allmul:PROC
EXTRN	__allrem:PROC
EXTRN	__chkstk:PROC
EXTRN	_memset:PROC
EXTRN	??_7type_info@@6B@:QWORD			; type_info::`vftable'
EXTRN	?g_pServiceUnits@CServiceUnits@@2PAV1@A:DWORD	; CServiceUnits::g_pServiceUnits
EXTRN	___security_cookie:DWORD
EXTRN	__fltused:DWORD
;	COMDAT ?_OptionsStorage@?1??__local_stdio_printf_options@@9@4_KA
_BSS	SEGMENT
?_OptionsStorage@?1??__local_stdio_printf_options@@9@4_KA DQ 01H DUP (?) ; `__local_stdio_printf_options'::`2'::_OptionsStorage
_BSS	ENDS
;	COMDAT ?atlTraceException@ATL@@3V?$CTraceCategoryEx@$0CAAA@$0A@@1@A
_BSS	SEGMENT
?atlTraceException@ATL@@3V?$CTraceCategoryEx@$0CAAA@$0A@@1@A DD 01H DUP (?) ; ATL::atlTraceException
_BSS	ENDS
;	COMDAT ?atlTraceString@ATL@@3V?$CTraceCategoryEx@$0CAAAA@$0A@@1@A
_BSS	SEGMENT
?atlTraceString@ATL@@3V?$CTraceCategoryEx@$0CAAAA@$0A@@1@A DD 01H DUP (?) ; ATL::atlTraceString
_BSS	ENDS
;	COMDAT ?m_nLastCategory@CTrace@ATL@@1IA
_BSS	SEGMENT
?m_nLastCategory@CTrace@ATL@@1IA DD 01H DUP (?)		; ATL::CTrace::m_nLastCategory
_BSS	ENDS
;	COMDAT ?m_nMap@CTrace@ATL@@1PAUCategoryMap@12@A
_BSS	SEGMENT
?m_nMap@CTrace@ATL@@1PAUCategoryMap@12@A DB 02080H DUP (?) ; ATL::CTrace::m_nMap
_BSS	ENDS
;	COMDAT CRT$XCU
CRT$XCU	SEGMENT
?atlTraceException$initializer$@ATL@@3P6AXXZA DD FLAT:??__EatlTraceException@ATL@@YAXXZ ; ATL::atlTraceException$initializer$
CRT$XCU	ENDS
;	COMDAT ??_R4CAttemperEngineSink@@6BIServerUserItemSink@@@
rdata$r	SEGMENT
??_R4CAttemperEngineSink@@6BIServerUserItemSink@@@ DD 00H ; CAttemperEngineSink::`RTTI Complete Object Locator'
	DD	08H
	DD	00H
	DD	FLAT:??_R0?AVCAttemperEngineSink@@@8
	DD	FLAT:??_R3CAttemperEngineSink@@8
rdata$r	ENDS
;	COMDAT ??_R4CAttemperEngineSink@@6BIMainServiceFrame@@@
rdata$r	SEGMENT
??_R4CAttemperEngineSink@@6BIMainServiceFrame@@@ DD 00H	; CAttemperEngineSink::`RTTI Complete Object Locator'
	DD	04H
	DD	00H
	DD	FLAT:??_R0?AVCAttemperEngineSink@@@8
	DD	FLAT:??_R3CAttemperEngineSink@@8
rdata$r	ENDS
;	COMDAT ??_R17?0A@EC@IUnknownEx@@8
rdata$r	SEGMENT
??_R17?0A@EC@IUnknownEx@@8 DD FLAT:??_R0?AUIUnknownEx@@@8 ; IUnknownEx::`RTTI Base Class Descriptor at (8,-1,0,66)'
	DD	00H
	DD	08H
	DD	0ffffffffH
	DD	00H
	DD	042H
	DD	FLAT:??_R3IUnknownEx@@8
rdata$r	ENDS
;	COMDAT ??_R17?0A@EA@IServerUserItemSink@@8
rdata$r	SEGMENT
??_R17?0A@EA@IServerUserItemSink@@8 DD FLAT:??_R0?AUIServerUserItemSink@@@8 ; IServerUserItemSink::`RTTI Base Class Descriptor at (8,-1,0,64)'
	DD	01H
	DD	08H
	DD	0ffffffffH
	DD	00H
	DD	040H
	DD	FLAT:??_R3IServerUserItemSink@@8
rdata$r	ENDS
;	COMDAT ??_R13?0A@EC@IUnknownEx@@8
rdata$r	SEGMENT
??_R13?0A@EC@IUnknownEx@@8 DD FLAT:??_R0?AUIUnknownEx@@@8 ; IUnknownEx::`RTTI Base Class Descriptor at (4,-1,0,66)'
	DD	00H
	DD	04H
	DD	0ffffffffH
	DD	00H
	DD	042H
	DD	FLAT:??_R3IUnknownEx@@8
rdata$r	ENDS
;	COMDAT ??_R13?0A@EA@IMainServiceFrame@@8
rdata$r	SEGMENT
??_R13?0A@EA@IMainServiceFrame@@8 DD FLAT:??_R0?AUIMainServiceFrame@@@8 ; IMainServiceFrame::`RTTI Base Class Descriptor at (4,-1,0,64)'
	DD	01H
	DD	04H
	DD	0ffffffffH
	DD	00H
	DD	040H
	DD	FLAT:??_R3IMainServiceFrame@@8
rdata$r	ENDS
;	COMDAT ??_R1A@?0A@EC@IUnknownEx@@8
rdata$r	SEGMENT
??_R1A@?0A@EC@IUnknownEx@@8 DD FLAT:??_R0?AUIUnknownEx@@@8 ; IUnknownEx::`RTTI Base Class Descriptor at (0,-1,0,66)'
	DD	00H
	DD	00H
	DD	0ffffffffH
	DD	00H
	DD	042H
	DD	FLAT:??_R3IUnknownEx@@8
rdata$r	ENDS
;	COMDAT ??_R1A@?0A@EA@CAttemperEngineSink@@8
rdata$r	SEGMENT
??_R1A@?0A@EA@CAttemperEngineSink@@8 DD FLAT:??_R0?AVCAttemperEngineSink@@@8 ; CAttemperEngineSink::`RTTI Base Class Descriptor at (0,-1,0,64)'
	DD	06H
	DD	00H
	DD	0ffffffffH
	DD	00H
	DD	040H
	DD	FLAT:??_R3CAttemperEngineSink@@8
rdata$r	ENDS
;	COMDAT ??_R2CAttemperEngineSink@@8
rdata$r	SEGMENT
??_R2CAttemperEngineSink@@8 DD FLAT:??_R1A@?0A@EA@CAttemperEngineSink@@8 ; CAttemperEngineSink::`RTTI Base Class Array'
	DD	FLAT:??_R1A@?0A@EA@IAttemperEngineSink@@8
	DD	FLAT:??_R1A@?0A@EC@IUnknownEx@@8
	DD	FLAT:??_R13?0A@EA@IMainServiceFrame@@8
	DD	FLAT:??_R13?0A@EC@IUnknownEx@@8
	DD	FLAT:??_R17?0A@EA@IServerUserItemSink@@8
	DD	FLAT:??_R17?0A@EC@IUnknownEx@@8
rdata$r	ENDS
;	COMDAT ??_R3CAttemperEngineSink@@8
rdata$r	SEGMENT
??_R3CAttemperEngineSink@@8 DD 00H			; CAttemperEngineSink::`RTTI Class Hierarchy Descriptor'
	DD	05H
	DD	07H
	DD	FLAT:??_R2CAttemperEngineSink@@8
rdata$r	ENDS
;	COMDAT ??_R0?AVCAttemperEngineSink@@@8
data$r	SEGMENT
??_R0?AVCAttemperEngineSink@@@8 DD FLAT:??_7type_info@@6B@ ; CAttemperEngineSink `RTTI Type Descriptor'
	DD	00H
	DB	'.?AVCAttemperEngineSink@@', 00H
data$r	ENDS
;	COMDAT ??_R4CAttemperEngineSink@@6BIAttemperEngineSink@@@
rdata$r	SEGMENT
??_R4CAttemperEngineSink@@6BIAttemperEngineSink@@@ DD 00H ; CAttemperEngineSink::`RTTI Complete Object Locator'
	DD	00H
	DD	00H
	DD	FLAT:??_R0?AVCAttemperEngineSink@@@8
	DD	FLAT:??_R3CAttemperEngineSink@@8
rdata$r	ENDS
;	COMDAT ??_R1A@?0A@EA@?$CWHArray@PAUtagPersonalTableParameter@@ABQAU1@@@8
rdata$r	SEGMENT
??_R1A@?0A@EA@?$CWHArray@PAUtagPersonalTableParameter@@ABQAU1@@@8 DD FLAT:??_R0?AV?$CWHArray@PAUtagPersonalTableParameter@@ABQAU1@@@@8 ; CWHArray<tagPersonalTableParameter *,tagPersonalTableParameter * const &>::`RTTI Base Class Descriptor at (0,-1,0,64)'
	DD	00H
	DD	00H
	DD	0ffffffffH
	DD	00H
	DD	040H
	DD	FLAT:??_R3?$CWHArray@PAUtagPersonalTableParameter@@ABQAU1@@@8
rdata$r	ENDS
;	COMDAT ??_R2?$CWHArray@PAUtagPersonalTableParameter@@ABQAU1@@@8
rdata$r	SEGMENT
??_R2?$CWHArray@PAUtagPersonalTableParameter@@ABQAU1@@@8 DD FLAT:??_R1A@?0A@EA@?$CWHArray@PAUtagPersonalTableParameter@@ABQAU1@@@8 ; CWHArray<tagPersonalTableParameter *,tagPersonalTableParameter * const &>::`RTTI Base Class Array'
rdata$r	ENDS
;	COMDAT ??_R3?$CWHArray@PAUtagPersonalTableParameter@@ABQAU1@@@8
rdata$r	SEGMENT
??_R3?$CWHArray@PAUtagPersonalTableParameter@@ABQAU1@@@8 DD 00H ; CWHArray<tagPersonalTableParameter *,tagPersonalTableParameter * const &>::`RTTI Class Hierarchy Descriptor'
	DD	00H
	DD	01H
	DD	FLAT:??_R2?$CWHArray@PAUtagPersonalTableParameter@@ABQAU1@@@8
rdata$r	ENDS
;	COMDAT ??_R0?AV?$CWHArray@PAUtagPersonalTableParameter@@ABQAU1@@@@8
data$r	SEGMENT
??_R0?AV?$CWHArray@PAUtagPersonalTableParameter@@ABQAU1@@@@8 DD FLAT:??_7type_info@@6B@ ; CWHArray<tagPersonalTableParameter *,tagPersonalTableParameter * const &> `RTTI Type Descriptor'
	DD	00H
	DB	'.?AV?$CWHArray@PAUtagPersonalTableParameter@@ABQAU1@@@', 00H
data$r	ENDS
;	COMDAT ??_R4?$CWHArray@PAUtagPersonalTableParameter@@ABQAU1@@@6B@
rdata$r	SEGMENT
??_R4?$CWHArray@PAUtagPersonalTableParameter@@ABQAU1@@@6B@ DD 00H ; CWHArray<tagPersonalTableParameter *,tagPersonalTableParameter * const &>::`RTTI Complete Object Locator'
	DD	00H
	DD	00H
	DD	FLAT:??_R0?AV?$CWHArray@PAUtagPersonalTableParameter@@ABQAU1@@@@8
	DD	FLAT:??_R3?$CWHArray@PAUtagPersonalTableParameter@@ABQAU1@@@8
rdata$r	ENDS
;	COMDAT ??_R1A@?0A@EA@?$CMap@KKKAAK@@8
rdata$r	SEGMENT
??_R1A@?0A@EA@?$CMap@KKKAAK@@8 DD FLAT:??_R0?AV?$CMap@KKKAAK@@@8 ; CMap<unsigned long,unsigned long,unsigned long,unsigned long &>::`RTTI Base Class Descriptor at (0,-1,0,64)'
	DD	01H
	DD	00H
	DD	0ffffffffH
	DD	00H
	DD	040H
	DD	FLAT:??_R3?$CMap@KKKAAK@@8
rdata$r	ENDS
;	COMDAT ??_R2?$CMap@KKKAAK@@8
rdata$r	SEGMENT
??_R2?$CMap@KKKAAK@@8 DD FLAT:??_R1A@?0A@EA@?$CMap@KKKAAK@@8 ; CMap<unsigned long,unsigned long,unsigned long,unsigned long &>::`RTTI Base Class Array'
	DD	FLAT:??_R1A@?0A@EA@CObject@@8
rdata$r	ENDS
;	COMDAT ??_R3?$CMap@KKKAAK@@8
rdata$r	SEGMENT
??_R3?$CMap@KKKAAK@@8 DD 00H				; CMap<unsigned long,unsigned long,unsigned long,unsigned long &>::`RTTI Class Hierarchy Descriptor'
	DD	00H
	DD	02H
	DD	FLAT:??_R2?$CMap@KKKAAK@@8
rdata$r	ENDS
;	COMDAT ??_R0?AV?$CMap@KKKAAK@@@8
data$r	SEGMENT
??_R0?AV?$CMap@KKKAAK@@@8 DD FLAT:??_7type_info@@6B@	; CMap<unsigned long,unsigned long,unsigned long,unsigned long &> `RTTI Type Descriptor'
	DD	00H
	DB	'.?AV?$CMap@KKKAAK@@', 00H
data$r	ENDS
;	COMDAT ??_R4?$CMap@KKKAAK@@6B@
rdata$r	SEGMENT
??_R4?$CMap@KKKAAK@@6B@ DD 00H				; CMap<unsigned long,unsigned long,unsigned long,unsigned long &>::`RTTI Complete Object Locator'
	DD	00H
	DD	00H
	DD	FLAT:??_R0?AV?$CMap@KKKAAK@@@8
	DD	FLAT:??_R3?$CMap@KKKAAK@@8
rdata$r	ENDS
;	COMDAT ??_R1A@?0A@EA@?$CWHArray@PAUtagSystemMessage@@ABQAU1@@@8
rdata$r	SEGMENT
??_R1A@?0A@EA@?$CWHArray@PAUtagSystemMessage@@ABQAU1@@@8 DD FLAT:??_R0?AV?$CWHArray@PAUtagSystemMessage@@ABQAU1@@@@8 ; CWHArray<tagSystemMessage *,tagSystemMessage * const &>::`RTTI Base Class Descriptor at (0,-1,0,64)'
	DD	00H
	DD	00H
	DD	0ffffffffH
	DD	00H
	DD	040H
	DD	FLAT:??_R3?$CWHArray@PAUtagSystemMessage@@ABQAU1@@@8
rdata$r	ENDS
;	COMDAT ??_R2?$CWHArray@PAUtagSystemMessage@@ABQAU1@@@8
rdata$r	SEGMENT
??_R2?$CWHArray@PAUtagSystemMessage@@ABQAU1@@@8 DD FLAT:??_R1A@?0A@EA@?$CWHArray@PAUtagSystemMessage@@ABQAU1@@@8 ; CWHArray<tagSystemMessage *,tagSystemMessage * const &>::`RTTI Base Class Array'
rdata$r	ENDS
;	COMDAT ??_R3?$CWHArray@PAUtagSystemMessage@@ABQAU1@@@8
rdata$r	SEGMENT
??_R3?$CWHArray@PAUtagSystemMessage@@ABQAU1@@@8 DD 00H	; CWHArray<tagSystemMessage *,tagSystemMessage * const &>::`RTTI Class Hierarchy Descriptor'
	DD	00H
	DD	01H
	DD	FLAT:??_R2?$CWHArray@PAUtagSystemMessage@@ABQAU1@@@8
rdata$r	ENDS
;	COMDAT ??_R0?AV?$CWHArray@PAUtagSystemMessage@@ABQAU1@@@@8
data$r	SEGMENT
??_R0?AV?$CWHArray@PAUtagSystemMessage@@ABQAU1@@@@8 DD FLAT:??_7type_info@@6B@ ; CWHArray<tagSystemMessage *,tagSystemMessage * const &> `RTTI Type Descriptor'
	DD	00H
	DB	'.?AV?$CWHArray@PAUtagSystemMessage@@ABQAU1@@@', 00H
data$r	ENDS
;	COMDAT ??_R4?$CWHArray@PAUtagSystemMessage@@ABQAU1@@@6B@
rdata$r	SEGMENT
??_R4?$CWHArray@PAUtagSystemMessage@@ABQAU1@@@6B@ DD 00H ; CWHArray<tagSystemMessage *,tagSystemMessage * const &>::`RTTI Complete Object Locator'
	DD	00H
	DD	00H
	DD	FLAT:??_R0?AV?$CWHArray@PAUtagSystemMessage@@ABQAU1@@@@8
	DD	FLAT:??_R3?$CWHArray@PAUtagSystemMessage@@ABQAU1@@@8
rdata$r	ENDS
;	COMDAT ??_R1A@?0A@EA@CSensitiveWordsFilter@@8
rdata$r	SEGMENT
??_R1A@?0A@EA@CSensitiveWordsFilter@@8 DD FLAT:??_R0?AVCSensitiveWordsFilter@@@8 ; CSensitiveWordsFilter::`RTTI Base Class Descriptor at (0,-1,0,64)'
	DD	00H
	DD	00H
	DD	0ffffffffH
	DD	00H
	DD	040H
	DD	FLAT:??_R3CSensitiveWordsFilter@@8
rdata$r	ENDS
;	COMDAT ??_R2CSensitiveWordsFilter@@8
rdata$r	SEGMENT
??_R2CSensitiveWordsFilter@@8 DD FLAT:??_R1A@?0A@EA@CSensitiveWordsFilter@@8 ; CSensitiveWordsFilter::`RTTI Base Class Array'
rdata$r	ENDS
;	COMDAT ??_R3CSensitiveWordsFilter@@8
rdata$r	SEGMENT
??_R3CSensitiveWordsFilter@@8 DD 00H			; CSensitiveWordsFilter::`RTTI Class Hierarchy Descriptor'
	DD	00H
	DD	01H
	DD	FLAT:??_R2CSensitiveWordsFilter@@8
rdata$r	ENDS
;	COMDAT ??_R0?AVCSensitiveWordsFilter@@@8
data$r	SEGMENT
??_R0?AVCSensitiveWordsFilter@@@8 DD FLAT:??_7type_info@@6B@ ; CSensitiveWordsFilter `RTTI Type Descriptor'
	DD	00H
	DB	'.?AVCSensitiveWordsFilter@@', 00H
data$r	ENDS
;	COMDAT ??_R4CSensitiveWordsFilter@@6B@
rdata$r	SEGMENT
??_R4CSensitiveWordsFilter@@6B@ DD 00H			; CSensitiveWordsFilter::`RTTI Complete Object Locator'
	DD	00H
	DD	00H
	DD	FLAT:??_R0?AVCSensitiveWordsFilter@@@8
	DD	FLAT:??_R3CSensitiveWordsFilter@@8
rdata$r	ENDS
;	COMDAT ??_R1A@?0A@EA@?$CWHArray@PBDABQBD@@8
rdata$r	SEGMENT
??_R1A@?0A@EA@?$CWHArray@PBDABQBD@@8 DD FLAT:??_R0?AV?$CWHArray@PBDABQBD@@@8 ; CWHArray<char const *,char const * const &>::`RTTI Base Class Descriptor at (0,-1,0,64)'
	DD	00H
	DD	00H
	DD	0ffffffffH
	DD	00H
	DD	040H
	DD	FLAT:??_R3?$CWHArray@PBDABQBD@@8
rdata$r	ENDS
;	COMDAT ??_R2?$CWHArray@PBDABQBD@@8
rdata$r	SEGMENT
??_R2?$CWHArray@PBDABQBD@@8 DD FLAT:??_R1A@?0A@EA@?$CWHArray@PBDABQBD@@8 ; CWHArray<char const *,char const * const &>::`RTTI Base Class Array'
rdata$r	ENDS
;	COMDAT ??_R3?$CWHArray@PBDABQBD@@8
rdata$r	SEGMENT
??_R3?$CWHArray@PBDABQBD@@8 DD 00H			; CWHArray<char const *,char const * const &>::`RTTI Class Hierarchy Descriptor'
	DD	00H
	DD	01H
	DD	FLAT:??_R2?$CWHArray@PBDABQBD@@8
rdata$r	ENDS
;	COMDAT ??_R0?AV?$CWHArray@PBDABQBD@@@8
data$r	SEGMENT
??_R0?AV?$CWHArray@PBDABQBD@@@8 DD FLAT:??_7type_info@@6B@ ; CWHArray<char const *,char const * const &> `RTTI Type Descriptor'
	DD	00H
	DB	'.?AV?$CWHArray@PBDABQBD@@', 00H
data$r	ENDS
;	COMDAT ??_R4?$CWHArray@PBDABQBD@@6B@
rdata$r	SEGMENT
??_R4?$CWHArray@PBDABQBD@@6B@ DD 00H			; CWHArray<char const *,char const * const &>::`RTTI Complete Object Locator'
	DD	00H
	DD	00H
	DD	FLAT:??_R0?AV?$CWHArray@PBDABQBD@@@8
	DD	FLAT:??_R3?$CWHArray@PBDABQBD@@8
rdata$r	ENDS
;	COMDAT ??_R1A@?0A@EA@?$CWHArray@UtagDistributeInfo@@ABU1@@@8
rdata$r	SEGMENT
??_R1A@?0A@EA@?$CWHArray@UtagDistributeInfo@@ABU1@@@8 DD FLAT:??_R0?AV?$CWHArray@UtagDistributeInfo@@ABU1@@@@8 ; CWHArray<tagDistributeInfo,tagDistributeInfo const &>::`RTTI Base Class Descriptor at (0,-1,0,64)'
	DD	00H
	DD	00H
	DD	0ffffffffH
	DD	00H
	DD	040H
	DD	FLAT:??_R3?$CWHArray@UtagDistributeInfo@@ABU1@@@8
rdata$r	ENDS
;	COMDAT ??_R2?$CWHArray@UtagDistributeInfo@@ABU1@@@8
rdata$r	SEGMENT
??_R2?$CWHArray@UtagDistributeInfo@@ABU1@@@8 DD FLAT:??_R1A@?0A@EA@?$CWHArray@UtagDistributeInfo@@ABU1@@@8 ; CWHArray<tagDistributeInfo,tagDistributeInfo const &>::`RTTI Base Class Array'
rdata$r	ENDS
;	COMDAT ??_R3?$CWHArray@UtagDistributeInfo@@ABU1@@@8
rdata$r	SEGMENT
??_R3?$CWHArray@UtagDistributeInfo@@ABU1@@@8 DD 00H	; CWHArray<tagDistributeInfo,tagDistributeInfo const &>::`RTTI Class Hierarchy Descriptor'
	DD	00H
	DD	01H
	DD	FLAT:??_R2?$CWHArray@UtagDistributeInfo@@ABU1@@@8
rdata$r	ENDS
;	COMDAT ??_R0?AV?$CWHArray@UtagDistributeInfo@@ABU1@@@@8
data$r	SEGMENT
??_R0?AV?$CWHArray@UtagDistributeInfo@@ABU1@@@@8 DD FLAT:??_7type_info@@6B@ ; CWHArray<tagDistributeInfo,tagDistributeInfo const &> `RTTI Type Descriptor'
	DD	00H
	DB	'.?AV?$CWHArray@UtagDistributeInfo@@ABU1@@@', 00H
data$r	ENDS
;	COMDAT ??_R4?$CWHArray@UtagDistributeInfo@@ABU1@@@6B@
rdata$r	SEGMENT
??_R4?$CWHArray@UtagDistributeInfo@@ABU1@@@6B@ DD 00H	; CWHArray<tagDistributeInfo,tagDistributeInfo const &>::`RTTI Complete Object Locator'
	DD	00H
	DD	00H
	DD	FLAT:??_R0?AV?$CWHArray@UtagDistributeInfo@@ABU1@@@@8
	DD	FLAT:??_R3?$CWHArray@UtagDistributeInfo@@ABU1@@@8
rdata$r	ENDS
;	COMDAT ??_R1A@?0A@EA@?$CWHArray@PAVCTableFrame@@ABQAV1@@@8
rdata$r	SEGMENT
??_R1A@?0A@EA@?$CWHArray@PAVCTableFrame@@ABQAV1@@@8 DD FLAT:??_R0?AV?$CWHArray@PAVCTableFrame@@ABQAV1@@@@8 ; CWHArray<CTableFrame *,CTableFrame * const &>::`RTTI Base Class Descriptor at (0,-1,0,64)'
	DD	00H
	DD	00H
	DD	0ffffffffH
	DD	00H
	DD	040H
	DD	FLAT:??_R3?$CWHArray@PAVCTableFrame@@ABQAV1@@@8
rdata$r	ENDS
;	COMDAT ??_R2?$CWHArray@PAVCTableFrame@@ABQAV1@@@8
rdata$r	SEGMENT
??_R2?$CWHArray@PAVCTableFrame@@ABQAV1@@@8 DD FLAT:??_R1A@?0A@EA@?$CWHArray@PAVCTableFrame@@ABQAV1@@@8 ; CWHArray<CTableFrame *,CTableFrame * const &>::`RTTI Base Class Array'
rdata$r	ENDS
;	COMDAT ??_R3?$CWHArray@PAVCTableFrame@@ABQAV1@@@8
rdata$r	SEGMENT
??_R3?$CWHArray@PAVCTableFrame@@ABQAV1@@@8 DD 00H	; CWHArray<CTableFrame *,CTableFrame * const &>::`RTTI Class Hierarchy Descriptor'
	DD	00H
	DD	01H
	DD	FLAT:??_R2?$CWHArray@PAVCTableFrame@@ABQAV1@@@8
rdata$r	ENDS
;	COMDAT ??_R0?AV?$CWHArray@PAVCTableFrame@@ABQAV1@@@@8
data$r	SEGMENT
??_R0?AV?$CWHArray@PAVCTableFrame@@ABQAV1@@@@8 DD FLAT:??_7type_info@@6B@ ; CWHArray<CTableFrame *,CTableFrame * const &> `RTTI Type Descriptor'
	DD	00H
	DB	'.?AV?$CWHArray@PAVCTableFrame@@ABQAV1@@@', 00H
data$r	ENDS
;	COMDAT ??_R4?$CWHArray@PAVCTableFrame@@ABQAV1@@@6B@
rdata$r	SEGMENT
??_R4?$CWHArray@PAVCTableFrame@@ABQAV1@@@6B@ DD 00H	; CWHArray<CTableFrame *,CTableFrame * const &>::`RTTI Complete Object Locator'
	DD	00H
	DD	00H
	DD	FLAT:??_R0?AV?$CWHArray@PAVCTableFrame@@ABQAV1@@@@8
	DD	FLAT:??_R3?$CWHArray@PAVCTableFrame@@ABQAV1@@@8
rdata$r	ENDS
;	COMDAT ??_R1A@?0A@EA@IMainServiceFrame@@8
rdata$r	SEGMENT
??_R1A@?0A@EA@IMainServiceFrame@@8 DD FLAT:??_R0?AUIMainServiceFrame@@@8 ; IMainServiceFrame::`RTTI Base Class Descriptor at (0,-1,0,64)'
	DD	01H
	DD	00H
	DD	0ffffffffH
	DD	00H
	DD	040H
	DD	FLAT:??_R3IMainServiceFrame@@8
rdata$r	ENDS
;	COMDAT ??_R2IMainServiceFrame@@8
rdata$r	SEGMENT
??_R2IMainServiceFrame@@8 DD FLAT:??_R1A@?0A@EA@IMainServiceFrame@@8 ; IMainServiceFrame::`RTTI Base Class Array'
	DD	FLAT:??_R1A@?0A@EA@IUnknownEx@@8
rdata$r	ENDS
;	COMDAT ??_R3IMainServiceFrame@@8
rdata$r	SEGMENT
??_R3IMainServiceFrame@@8 DD 00H			; IMainServiceFrame::`RTTI Class Hierarchy Descriptor'
	DD	00H
	DD	02H
	DD	FLAT:??_R2IMainServiceFrame@@8
rdata$r	ENDS
;	COMDAT ??_R0?AUIMainServiceFrame@@@8
data$r	SEGMENT
??_R0?AUIMainServiceFrame@@@8 DD FLAT:??_7type_info@@6B@ ; IMainServiceFrame `RTTI Type Descriptor'
	DD	00H
	DB	'.?AUIMainServiceFrame@@', 00H
data$r	ENDS
;	COMDAT ??_R4IMainServiceFrame@@6B@
rdata$r	SEGMENT
??_R4IMainServiceFrame@@6B@ DD 00H			; IMainServiceFrame::`RTTI Complete Object Locator'
	DD	00H
	DD	00H
	DD	FLAT:??_R0?AUIMainServiceFrame@@@8
	DD	FLAT:??_R3IMainServiceFrame@@8
rdata$r	ENDS
;	COMDAT ??_R1A@?0A@EA@IServerUserItemSink@@8
rdata$r	SEGMENT
??_R1A@?0A@EA@IServerUserItemSink@@8 DD FLAT:??_R0?AUIServerUserItemSink@@@8 ; IServerUserItemSink::`RTTI Base Class Descriptor at (0,-1,0,64)'
	DD	01H
	DD	00H
	DD	0ffffffffH
	DD	00H
	DD	040H
	DD	FLAT:??_R3IServerUserItemSink@@8
rdata$r	ENDS
;	COMDAT ??_R2IServerUserItemSink@@8
rdata$r	SEGMENT
??_R2IServerUserItemSink@@8 DD FLAT:??_R1A@?0A@EA@IServerUserItemSink@@8 ; IServerUserItemSink::`RTTI Base Class Array'
	DD	FLAT:??_R1A@?0A@EA@IUnknownEx@@8
rdata$r	ENDS
;	COMDAT ??_R3IServerUserItemSink@@8
rdata$r	SEGMENT
??_R3IServerUserItemSink@@8 DD 00H			; IServerUserItemSink::`RTTI Class Hierarchy Descriptor'
	DD	00H
	DD	02H
	DD	FLAT:??_R2IServerUserItemSink@@8
rdata$r	ENDS
;	COMDAT ??_R0?AUIServerUserItemSink@@@8
data$r	SEGMENT
??_R0?AUIServerUserItemSink@@@8 DD FLAT:??_7type_info@@6B@ ; IServerUserItemSink `RTTI Type Descriptor'
	DD	00H
	DB	'.?AUIServerUserItemSink@@', 00H
data$r	ENDS
;	COMDAT ??_R4IServerUserItemSink@@6B@
rdata$r	SEGMENT
??_R4IServerUserItemSink@@6B@ DD 00H			; IServerUserItemSink::`RTTI Complete Object Locator'
	DD	00H
	DD	00H
	DD	FLAT:??_R0?AUIServerUserItemSink@@@8
	DD	FLAT:??_R3IServerUserItemSink@@8
rdata$r	ENDS
;	COMDAT ??_R1A@?0A@EA@IAttemperEngineSink@@8
rdata$r	SEGMENT
??_R1A@?0A@EA@IAttemperEngineSink@@8 DD FLAT:??_R0?AUIAttemperEngineSink@@@8 ; IAttemperEngineSink::`RTTI Base Class Descriptor at (0,-1,0,64)'
	DD	01H
	DD	00H
	DD	0ffffffffH
	DD	00H
	DD	040H
	DD	FLAT:??_R3IAttemperEngineSink@@8
rdata$r	ENDS
;	COMDAT ??_R2IAttemperEngineSink@@8
rdata$r	SEGMENT
??_R2IAttemperEngineSink@@8 DD FLAT:??_R1A@?0A@EA@IAttemperEngineSink@@8 ; IAttemperEngineSink::`RTTI Base Class Array'
	DD	FLAT:??_R1A@?0A@EA@IUnknownEx@@8
rdata$r	ENDS
;	COMDAT ??_R3IAttemperEngineSink@@8
rdata$r	SEGMENT
??_R3IAttemperEngineSink@@8 DD 00H			; IAttemperEngineSink::`RTTI Class Hierarchy Descriptor'
	DD	00H
	DD	02H
	DD	FLAT:??_R2IAttemperEngineSink@@8
rdata$r	ENDS
;	COMDAT ??_R0?AUIAttemperEngineSink@@@8
data$r	SEGMENT
??_R0?AUIAttemperEngineSink@@@8 DD FLAT:??_7type_info@@6B@ ; IAttemperEngineSink `RTTI Type Descriptor'
	DD	00H
	DB	'.?AUIAttemperEngineSink@@', 00H
data$r	ENDS
;	COMDAT ??_R4IAttemperEngineSink@@6B@
rdata$r	SEGMENT
??_R4IAttemperEngineSink@@6B@ DD 00H			; IAttemperEngineSink::`RTTI Complete Object Locator'
	DD	00H
	DD	00H
	DD	FLAT:??_R0?AUIAttemperEngineSink@@@8
	DD	FLAT:??_R3IAttemperEngineSink@@8
rdata$r	ENDS
;	COMDAT ??_R1A@?0A@EA@IUnknownEx@@8
rdata$r	SEGMENT
??_R1A@?0A@EA@IUnknownEx@@8 DD FLAT:??_R0?AUIUnknownEx@@@8 ; IUnknownEx::`RTTI Base Class Descriptor at (0,-1,0,64)'
	DD	00H
	DD	00H
	DD	0ffffffffH
	DD	00H
	DD	040H
	DD	FLAT:??_R3IUnknownEx@@8
rdata$r	ENDS
;	COMDAT ??_R2IUnknownEx@@8
rdata$r	SEGMENT
??_R2IUnknownEx@@8 DD FLAT:??_R1A@?0A@EA@IUnknownEx@@8	; IUnknownEx::`RTTI Base Class Array'
rdata$r	ENDS
;	COMDAT ??_R3IUnknownEx@@8
rdata$r	SEGMENT
??_R3IUnknownEx@@8 DD 00H				; IUnknownEx::`RTTI Class Hierarchy Descriptor'
	DD	00H
	DD	01H
	DD	FLAT:??_R2IUnknownEx@@8
rdata$r	ENDS
;	COMDAT ??_R0?AUIUnknownEx@@@8
data$r	SEGMENT
??_R0?AUIUnknownEx@@@8 DD FLAT:??_7type_info@@6B@	; IUnknownEx `RTTI Type Descriptor'
	DD	00H
	DB	'.?AUIUnknownEx@@', 00H
data$r	ENDS
;	COMDAT ??_R4IUnknownEx@@6B@
rdata$r	SEGMENT
??_R4IUnknownEx@@6B@ DD 00H				; IUnknownEx::`RTTI Complete Object Locator'
	DD	00H
	DD	00H
	DD	FLAT:??_R0?AUIUnknownEx@@@8
	DD	FLAT:??_R3IUnknownEx@@8
rdata$r	ENDS
;	COMDAT ??_C@_0DF@LDFGAABH@g?3?2?M?x?$LK?$PM?2happygamewh?2?$LH?$PO?N?q?$LG?K?2?O?$LF?M?$LD@
CONST	SEGMENT
??_C@_0DF@LDFGAABH@g?3?2?M?x?$LK?$PM?2happygamewh?2?$LH?$PO?N?q?$LG?K?2?O?$LF?M?$LD@ DB 'g'
	DB	':\', 0cdH, 0f8H, 0baH, 0fcH, '\happygamewh\', 0b7H, 0feH, 0ceH
	DB	0f1H, 0b6H, 0cbH, '\', 0cfH, 0b5H, 0cdH, 0b3H, 0c4H, 0a3H, 0bfH
	DB	0e9H, '\', 0c8H, 0abH, 0beH, 0d6H, 0b6H, 0a8H, 0d2H, 0e5H, '\a'
	DB	'rray.h', 00H				; `string'
CONST	ENDS
;	COMDAT ?__LINE__Var@?0??SendSystemMessage@CAttemperEngineSink@@IAE_NPAUCMD_GR_SendMessage@@G@Z@4JA
_DATA	SEGMENT
?__LINE__Var@?0??SendSystemMessage@CAttemperEngineSink@@IAE_NPAUCMD_GR_SendMessage@@G@Z@4JA DD 02a39H ; `CAttemperEngineSink::SendSystemMessage'::`1'::__LINE__Var
_DATA	ENDS
;	COMDAT ?__LINE__Var@?0??SendUserInfoPacketBatchToPage@CAttemperEngineSink@@IAE_NPAUIServerUserItem@@@Z@4JA
_DATA	SEGMENT
?__LINE__Var@?0??SendUserInfoPacketBatchToPage@CAttemperEngineSink@@IAE_NPAUIServerUserItem@@@Z@4JA DD 0299dH ; `CAttemperEngineSink::SendUserInfoPacketBatchToPage'::`1'::__LINE__Var
_DATA	ENDS
;	COMDAT ?__LINE__Var@?0??SendUserInfoPacketBatchToMobileUser@CAttemperEngineSink@@IAE_NPAUIServerUserItem@@K@Z@4JA
_DATA	SEGMENT
?__LINE__Var@?0??SendUserInfoPacketBatchToMobileUser@CAttemperEngineSink@@IAE_NPAUIServerUserItem@@K@Z@4JA DD 028f6H ; `CAttemperEngineSink::SendUserInfoPacketBatchToMobileUser'::`1'::__LINE__Var
_DATA	ENDS
;	COMDAT ?__LINE__Var@?0??InsertDistribute@CAttemperEngineSink@@UAE_NPAUIServerUserItem@@@Z@4JA
_DATA	SEGMENT
?__LINE__Var@?0??InsertDistribute@CAttemperEngineSink@@UAE_NPAUIServerUserItem@@@Z@4JA DD 02830H ; `CAttemperEngineSink::InsertDistribute'::`1'::__LINE__Var
_DATA	ENDS
;	COMDAT ?__LINE__Var@?0??InitTableFrameArray@CAttemperEngineSink@@IAE_NXZ@4JA
_DATA	SEGMENT
?__LINE__Var@?0??InitTableFrameArray@CAttemperEngineSink@@IAE_NXZ@4JA DD 027a0H ; `CAttemperEngineSink::InitTableFrameArray'::`1'::__LINE__Var
_DATA	ENDS
;	COMDAT ??_C@_09OJCPDGCC@?$LH?V?E?d?S?C?$LL?$KH8@
CONST	SEGMENT
??_C@_09OJCPDGCC@?$LH?V?E?d?S?C?$LL?$KH8@ DB 0b7H, 0d6H, 0c5H, 0e4H, 0d3H
	DB	0c3H, 0bbH, 0a7H, '8', 00H			; `string'
CONST	ENDS
;	COMDAT ??_C@_09GOLHCKON@?$LH?V?E?d?S?C?$LL?$KH7@
CONST	SEGMENT
??_C@_09GOLHCKON@?$LH?V?E?d?S?C?$LL?$KH7@ DB 0b7H, 0d6H, 0c5H, 0e4H, 0d3H
	DB	0c3H, 0bbH, 0a7H, '7', 00H			; `string'
CONST	ENDS
;	COMDAT ??_C@_09HHKMBLKM@?$LH?V?E?d?S?C?$LL?$KH6@
CONST	SEGMENT
??_C@_09HHKMBLKM@?$LH?V?E?d?S?C?$LL?$KH6@ DB 0b7H, 0d6H, 0c5H, 0e4H, 0d3H
	DB	0c3H, 0bbH, 0a7H, '6', 00H			; `string'
CONST	ENDS
;	COMDAT ??_C@_09FMIBEIGP@?$LH?V?E?d?S?C?$LL?$KH5@
CONST	SEGMENT
??_C@_09FMIBEIGP@?$LH?V?E?d?S?C?$LL?$KH5@ DB 0b7H, 0d6H, 0c5H, 0e4H, 0d3H
	DB	0c3H, 0bbH, 0a7H, '5', 00H			; `string'
CONST	ENDS
;	COMDAT ??_C@_0L@JCGJHCKC@?W?x?O?B?J?$KH?$LA?$NM?$KD?$KB@
CONST	SEGMENT
??_C@_0L@JCGJHCKC@?W?x?O?B?J?$KH?$LA?$NM?$KD?$KB@ DB 0d7H, 0f8H, 0cfH, 0c2H
	DB	0caH, 0a7H, 0b0H, 0dcH, 0a3H, 0a1H, 00H	; `string'
CONST	ENDS
;	COMDAT ??_C@_0P@CMOCDKCC@?$LH?V?E?d?S?C?$LL?$KH4?9?$CFs?$AN?6@
CONST	SEGMENT
??_C@_0P@CMOCDKCC@?$LH?V?E?d?S?C?$LL?$KH4?9?$CFs?$AN?6@ DB 0b7H, 0d6H, 0c5H
	DB	0e4H, 0d3H, 0c3H, 0bbH, 0a7H, '4-%s', 0dH, 0aH, 00H ; `string'
CONST	ENDS
;	COMDAT ??_C@_0M@ENDOMGEO@?$LH?V?E?d?S?C?$LL?$KH3?$AN?6@
CONST	SEGMENT
??_C@_0M@ENDOMGEO@?$LH?V?E?d?S?C?$LL?$KH3?$AN?6@ DB 0b7H, 0d6H, 0c5H, 0e4H
	DB	0d3H, 0c3H, 0bbH, 0a7H, '3', 0dH, 0aH, 00H	; `string'
CONST	ENDS
;	COMDAT ??_C@_0M@PFICKBCL@?$LH?V?E?d?S?C?$LL?$KH2?$AN?6@
CONST	SEGMENT
??_C@_0M@PFICKBCL@?$LH?V?E?d?S?C?$LL?$KH2?$AN?6@ DB 0b7H, 0d6H, 0c5H, 0e4H
	DB	0d3H, 0c3H, 0bbH, 0a7H, '2', 0dH, 0aH, 00H	; `string'
CONST	ENDS
;	COMDAT ??_C@_0M@OHDHAOMF@?$LH?V?E?d?S?C?$LL?$KH1?$AN?6@
CONST	SEGMENT
??_C@_0M@OHDHAOMF@?$LH?V?E?d?S?C?$LL?$KH1?$AN?6@ DB 0b7H, 0d6H, 0c5H, 0e4H
	DB	0d3H, 0c3H, 0bbH, 0a7H, '1', 0dH, 0aH, 00H	; `string'
CONST	ENDS
;	COMDAT ??_7?$CWHArray@UtagDistributeInfo@@ABU1@@@6B@
CONST	SEGMENT
??_7?$CWHArray@UtagDistributeInfo@@ABU1@@@6B@ DD FLAT:??_R4?$CWHArray@UtagDistributeInfo@@ABU1@@@6B@ ; CWHArray<tagDistributeInfo,tagDistributeInfo const &>::`vftable'
	DD	FLAT:??_E?$CWHArray@UtagDistributeInfo@@ABU1@@@UAEPAXI@Z
CONST	ENDS
;	COMDAT ?__LINE__Var@?0??PerformDistribute@CAttemperEngineSink@@IAE_NXZ@4JA
_DATA	SEGMENT
?__LINE__Var@?0??PerformDistribute@CAttemperEngineSink@@IAE_NXZ@4JA DD 026fcH ; `CAttemperEngineSink::PerformDistribute'::`1'::__LINE__Var
_DATA	ENDS
;	COMDAT ?__LINE__Var@?0??GetPropertyType@CAttemperEngineSink@@QAEGG@Z@4JA
_DATA	SEGMENT
?__LINE__Var@?0??GetPropertyType@CAttemperEngineSink@@QAEGG@Z@4JA DD 026c5H ; `CAttemperEngineSink::GetPropertyType'::`1'::__LINE__Var
_DATA	ENDS
;	COMDAT ?__LINE__Var@?0??GetBindParameter@CAttemperEngineSink@@UAEPAUtagBindParameter@@G@Z@4JA
_DATA	SEGMENT
?__LINE__Var@?0??GetBindParameter@CAttemperEngineSink@@UAEPAUtagBindParameter@@G@Z@4JA DD 026adH ; `CAttemperEngineSink::GetBindParameter'::`1'::__LINE__Var
_DATA	ENDS
;	COMDAT ?__LINE__Var@?0??GetBindUserItem@CAttemperEngineSink@@UAEPAUIServerUserItem@@G@Z@4JA
_DATA	SEGMENT
?__LINE__Var@?0??GetBindUserItem@CAttemperEngineSink@@UAEPAUIServerUserItem@@G@Z@4JA DD 0269bH ; `CAttemperEngineSink::GetBindUserItem'::`1'::__LINE__Var
_DATA	ENDS
;	COMDAT ??_C@_0DE@EDOEDLLN@?$FL?5?$CFs?5?$FN?O?V?T?Z?$LF?D?L?S?E?$NM?B?J?R?Q?$LO?$KN?N?$KK0?$KD?$KM?$LC?$LL?P?h@
CONST	SEGMENT
??_C@_0DE@EDOEDLLN@?$FL?5?$CFs?5?$FN?O?V?T?Z?$LF?D?L?S?E?$NM?B?J?R?Q?$LO?$KN?N?$KK0?$KD?$KM?$LC?$LL?P?h@ DB '['
	DB	' %s ]', 0cfH, 0d6H, 0d4H, 0daH, 0b5H, 0c4H, 0ccH, 0d3H, 0c5H, 0dcH
	DB	0c2H, 0caH, 0d2H, 0d1H, 0beH, 0adH, 0ceH, 0aaH, '0', 0a3H, 0acH
	DB	0b2H, 0bbH, 0d0H, 0e8H, 0d2H, 0aaH, 0caH, 0b9H, 0d3H, 0c3H, 0ccH
	DB	0d3H, 0c5H, 0dcH, 0c7H, 0e5H, 0c1H, 0e3H, 0b5H, 0c0H, 0beH, 0dfH
	DB	0a3H, 0a1H, 00H				; `string'
CONST	ENDS
;	COMDAT ??_C@_0DA@MICEKNAN@?D?z?O?V?T?Z?$LF?D?L?S?E?$NM?B?J?R?Q?$LO?$KN?N?$KK0?$KD?$KM?$LC?$LL?P?h?R?$KK?J?$LJ@
CONST	SEGMENT
??_C@_0DA@MICEKNAN@?D?z?O?V?T?Z?$LF?D?L?S?E?$NM?B?J?R?Q?$LO?$KN?N?$KK0?$KD?$KM?$LC?$LL?P?h?R?$KK?J?$LJ@ DB 0c4H
	DB	0faH, 0cfH, 0d6H, 0d4H, 0daH, 0b5H, 0c4H, 0ccH, 0d3H, 0c5H, 0dcH
	DB	0c2H, 0caH, 0d2H, 0d1H, 0beH, 0adH, 0ceH, 0aaH, '0', 0a3H, 0acH
	DB	0b2H, 0bbH, 0d0H, 0e8H, 0d2H, 0aaH, 0caH, 0b9H, 0d3H, 0c3H, 0ccH
	DB	0d3H, 0c5H, 0dcH, 0c7H, 0e5H, 0c1H, 0e3H, 0b5H, 0c0H, 0beH, 0dfH
	DB	0a3H, 0a1H, 00H				; `string'
CONST	ENDS
;	COMDAT ??_C@_0DH@KNCICMPD@?$FL?5?$CFs?5?$FN?O?V?T?Z?$LF?D?$LL?$PN?$LH?V?R?Q?$LO?$KN?J?G?$LH?G?$LI?$LK?J?$PN?$KD?$KM?$LC@
CONST	SEGMENT
??_C@_0DH@KNCICMPD@?$FL?5?$CFs?5?$FN?O?V?T?Z?$LF?D?$LL?$PN?$LH?V?R?Q?$LO?$KN?J?G?$LH?G?$LI?$LK?J?$PN?$KD?$KM?$LC@ DB '['
	DB	' %s ]', 0cfH, 0d6H, 0d4H, 0daH, 0b5H, 0c4H, 0bbH, 0fdH, 0b7H, 0d6H
	DB	0d2H, 0d1H, 0beH, 0adH, 0caH, 0c7H, 0b7H, 0c7H, 0b8H, 0baH, 0caH
	DB	0fdH, 0a3H, 0acH, 0b2H, 0bbH, 0d0H, 0e8H, 0d2H, 0aaH, 0caH, 0b9H
	DB	0d3H, 0c3H, 0b8H, 0baH, 0b7H, 0d6H, 0c7H, 0e5H, 0c1H, 0e3H, 0b5H
	DB	0c0H, 0beH, 0dfH, 0a3H, 0a1H, 00H		; `string'
CONST	ENDS
;	COMDAT ??_C@_0DD@NEAJDNEE@?D?z?O?V?T?Z?$LF?D?$LL?$PN?$LH?V?R?Q?$LO?$KN?J?G?$LH?G?$LI?$LK?J?$PN?$KD?$KM?$LC?$LL?P?h?R@
CONST	SEGMENT
??_C@_0DD@NEAJDNEE@?D?z?O?V?T?Z?$LF?D?$LL?$PN?$LH?V?R?Q?$LO?$KN?J?G?$LH?G?$LI?$LK?J?$PN?$KD?$KM?$LC?$LL?P?h?R@ DB 0c4H
	DB	0faH, 0cfH, 0d6H, 0d4H, 0daH, 0b5H, 0c4H, 0bbH, 0fdH, 0b7H, 0d6H
	DB	0d2H, 0d1H, 0beH, 0adH, 0caH, 0c7H, 0b7H, 0c7H, 0b8H, 0baH, 0caH
	DB	0fdH, 0a3H, 0acH, 0b2H, 0bbH, 0d0H, 0e8H, 0d2H, 0aaH, 0caH, 0b9H
	DB	0d3H, 0c3H, 0b8H, 0baH, 0b7H, 0d6H, 0c7H, 0e5H, 0c1H, 0e3H, 0b5H
	DB	0c0H, 0beH, 0dfH, 0a3H, 0a1H, 00H		; `string'
CONST	ENDS
;	COMDAT ??_C@_0CE@NGJLFFIP@?$LE?K?$LF?$MA?$LO?$NP?$LC?$LL?$LP?I?T?y?K?M?$LI?x?E?T?$LJ?$NL?S?C?$LL?$KH?0?$LJ?$LK?B?r?J?$KH@
CONST	SEGMENT
??_C@_0CE@NGJLFFIP@?$LE?K?$LF?$MA?$LO?$NP?$LC?$LL?$LP?I?T?y?K?M?$LI?x?E?T?$LJ?$NL?S?C?$LL?$KH?0?$LJ?$LK?B?r?J?$KH@ DB 0b4H
	DB	0cbH, 0b5H, 0c0H, 0beH, 0dfH, 0b2H, 0bbH, 0bfH, 0c9H, 0d4H, 0f9H
	DB	0cbH, 0cdH, 0b8H, 0f8H, 0c5H, 0d4H, 0b9H, 0dbH, 0d3H, 0c3H, 0bbH
	DB	0a7H, ',', 0b9H, 0baH, 0c2H, 0f2H, 0caH, 0a7H, 0b0H, 0dcH, 0a3H
	DB	0a1H, 00H					; `string'
CONST	ENDS
;	COMDAT ??_C@_0CN@PKMMDIPC@?$LE?K?$LF?$MA?$LO?$NP?$LC?$LL?$LP?I?T?y?K?M?$LI?x?M?f?$LM?R?0?V?$LL?D?$NM?W?T?$LM?$LK?J?$LJ@
CONST	SEGMENT
??_C@_0CN@PKMMDIPC@?$LE?K?$LF?$MA?$LO?$NP?$LC?$LL?$LP?I?T?y?K?M?$LI?x?M?f?$LM?R?0?V?$LL?D?$NM?W?T?$LM?$LK?J?$LJ@ DB 0b4H
	DB	0cbH, 0b5H, 0c0H, 0beH, 0dfH, 0b2H, 0bbH, 0bfH, 0c9H, 0d4H, 0f9H
	DB	0cbH, 0cdH, 0b8H, 0f8H, 0cdH, 0e6H, 0bcH, 0d2H, ',', 0d6H, 0bbH
	DB	0c4H, 0dcH, 0d7H, 0d4H, 0bcH, 0baH, 0caH, 0b9H, 0d3H, 0c3H, ','
	DB	0b9H, 0baH, 0c2H, 0f2H, 0caH, 0a7H, 0b0H, 0dcH, 0a3H, 0a1H, 00H ; `string'
CONST	ENDS
;	COMDAT ??_C@_0BO@BJFEPHFF@?$LE?K?$LF?$MA?$LO?$NP?$LC?$LL?$LP?I?W?T?$LM?$LK?J?$LJ?S?C?0?$LJ?$LK?B?r?J?$KH?$LA?$NM?$KD?$KB@
CONST	SEGMENT
??_C@_0BO@BJFEPHFF@?$LE?K?$LF?$MA?$LO?$NP?$LC?$LL?$LP?I?W?T?$LM?$LK?J?$LJ?S?C?0?$LJ?$LK?B?r?J?$KH?$LA?$NM?$KD?$KB@ DB 0b4H
	DB	0cbH, 0b5H, 0c0H, 0beH, 0dfH, 0b2H, 0bbH, 0bfH, 0c9H, 0d7H, 0d4H
	DB	0bcH, 0baH, 0caH, 0b9H, 0d3H, 0c3H, ',', 0b9H, 0baH, 0c2H, 0f2H
	DB	0caH, 0a7H, 0b0H, 0dcH, 0a3H, 0a1H, 00H	; `string'
CONST	ENDS
;	COMDAT ??_C@_0BK@PJNAMAD@?$LE?K?$LF?$MA?$LO?$NP?$LL?$LJ?N?$LE?F?t?S?C?0?$LJ?$LK?B?r?J?$KH?$LA?$NM?$KD?$KB@
CONST	SEGMENT
??_C@_0BK@PJNAMAD@?$LE?K?$LF?$MA?$LO?$NP?$LL?$LJ?N?$LE?F?t?S?C?0?$LJ?$LK?B?r?J?$KH?$LA?$NM?$KD?$KB@ DB 0b4H
	DB	0cbH, 0b5H, 0c0H, 0beH, 0dfH, 0bbH, 0b9H, 0ceH, 0b4H, 0c6H, 0f4H
	DB	0d3H, 0c3H, ',', 0b9H, 0baH, 0c2H, 0f2H, 0caH, 0a7H, 0b0H, 0dcH
	DB	0a3H, 0a1H, 00H				; `string'
CONST	ENDS
;	COMDAT ??_C@_0CA@DODBMCGI@?$LE?K?$LH?$LP?$LM?d?$LC?$LL?$LP?I?R?T?J?$LJ?S?C?$LE?K?$LF?$MA?$LO?$NP?0?$LJ?$LK?B?r?J?$KH?$LA?$NM@
CONST	SEGMENT
??_C@_0CA@DODBMCGI@?$LE?K?$LH?$LP?$LM?d?$LC?$LL?$LP?I?R?T?J?$LJ?S?C?$LE?K?$LF?$MA?$LO?$NP?0?$LJ?$LK?B?r?J?$KH?$LA?$NM@ DB 0b4H
	DB	0cbH, 0b7H, 0bfH, 0bcH, 0e4H, 0b2H, 0bbH, 0bfH, 0c9H, 0d2H, 0d4H
	DB	0caH, 0b9H, 0d3H, 0c3H, 0b4H, 0cbH, 0b5H, 0c0H, 0beH, 0dfH, ','
	DB	0b9H, 0baH, 0c2H, 0f2H, 0caH, 0a7H, 0b0H, 0dcH, 00H ; `string'
CONST	ENDS
;	COMDAT ??_C@_0CD@EJEBAEKE@?T?y?K?M?J?$KH?$LA?$NM?$KD?$KM?D?z?R?$KK?T?y?K?M?$LF?D?M?f?$LM?R?R?Q?$LO?$KN?$MA?k?$LP@
CONST	SEGMENT
??_C@_0CD@EJEBAEKE@?T?y?K?M?J?$KH?$LA?$NM?$KD?$KM?D?z?R?$KK?T?y?K?M?$LF?D?M?f?$LM?R?R?Q?$LO?$KN?$MA?k?$LP@ DB 0d4H
	DB	0f9H, 0cbH, 0cdH, 0caH, 0a7H, 0b0H, 0dcH, 0a3H, 0acH, 0c4H, 0faH
	DB	0d2H, 0aaH, 0d4H, 0f9H, 0cbH, 0cdH, 0b5H, 0c4H, 0cdH, 0e6H, 0bcH
	DB	0d2H, 0d2H, 0d1H, 0beH, 0adH, 0c0H, 0ebH, 0bfH, 0aaH, 0a3H, 0a1H
	DB	00H						; `string'
CONST	ENDS
;	COMDAT ?__LINE__Var@?0??SendUserInfoPacket@CAttemperEngineSink@@IAE_NPAUIServerUserItem@@K_N@Z@4JA
_DATA	SEGMENT
?__LINE__Var@?0??SendUserInfoPacket@CAttemperEngineSink@@IAE_NPAUIServerUserItem@@K_N@Z@4JA DD 0258cH ; `CAttemperEngineSink::SendUserInfoPacket'::`1'::__LINE__Var
_DATA	ENDS
;	COMDAT ?__LINE__Var@?0??SendInsureFailure@CAttemperEngineSink@@IAE_NPAUIServerUserItem@@PBDJE@Z@4JA
_DATA	SEGMENT
?__LINE__Var@?0??SendInsureFailure@CAttemperEngineSink@@IAE_NPAUIServerUserItem@@PBDJE@Z@4JA DD 0254bH ; `CAttemperEngineSink::SendInsureFailure'::`1'::__LINE__Var
_DATA	ENDS
;	COMDAT ??_C@_0DL@JOMAFBAE@?G?k?W?$KC?R?b?$KD?$KM?D?z?$LF?D?U?J?$LK?E?T?Z?A?m?R?$LL?$LF?X?$LH?$LN?$LN?x?H?k?A@
CONST	SEGMENT
??_C@_0DL@JOMAFBAE@?G?k?W?$KC?R?b?$KD?$KM?D?z?$LF?D?U?J?$LK?E?T?Z?A?m?R?$LL?$LF?X?$LH?$LN?$LN?x?H?k?A@ DB 0c7H
	DB	0ebH, 0d7H, 0a2H, 0d2H, 0e2H, 0a3H, 0acH, 0c4H, 0faH, 0b5H, 0c4H
	DB	0d5H, 0caH, 0baH, 0c5H, 0d4H, 0daH, 0c1H, 0edH, 0d2H, 0bbH, 0b5H
	DB	0d8H, 0b7H, 0bdH, 0bdH, 0f8H, 0c8H, 0ebH, 0c1H, 0cbH, 0b4H, 0cbH
	DB	0d3H, 0ceH, 0cfH, 0b7H, 0b7H, 0bfH, 0bcH, 0e4H, 0a3H, 0acH, 0b6H
	DB	0d4H, 0b7H, 0bdH, 0b1H, 0bbH, 0c6H, 0c8H, 0c0H, 0ebH, 0bfH, 0aaH
	DB	0a3H, 0a1H, 00H				; `string'
CONST	ENDS
;	COMDAT ??_C@_0DJ@GOKIFCOM@?G?k?W?$KC?R?b?$KD?$KM?D?z?$LF?D?U?J?$LK?E?T?Z?A?m?R?$LL?$LF?X?$LH?$LN?$LN?x?H?k?A@
CONST	SEGMENT
??_C@_0DJ@GOKIFCOM@?G?k?W?$KC?R?b?$KD?$KM?D?z?$LF?D?U?J?$LK?E?T?Z?A?m?R?$LL?$LF?X?$LH?$LN?$LN?x?H?k?A@ DB 0c7H
	DB	0ebH, 0d7H, 0a2H, 0d2H, 0e2H, 0a3H, 0acH, 0c4H, 0faH, 0b5H, 0c4H
	DB	0d5H, 0caH, 0baH, 0c5H, 0d4H, 0daH, 0c1H, 0edH, 0d2H, 0bbH, 0b5H
	DB	0d8H, 0b7H, 0bdH, 0bdH, 0f8H, 0c8H, 0ebH, 0c1H, 0cbH, 0b4H, 0cbH
	DB	0d3H, 0ceH, 0cfH, 0b7H, 0b7H, 0bfH, 0bcH, 0e4H, 0a3H, 0acH, 0c4H
	DB	0faH, 0b1H, 0bbH, 0c6H, 0c8H, 0c0H, 0ebH, 0bfH, 0aaH, 0a3H, 0a1H
	DB	00H						; `string'
CONST	ENDS
;	COMDAT ?__LINE__Var@?0??SwitchUserItemConnect@CAttemperEngineSink@@IAE_NPAUIServerUserItem@@QADGEGG@Z@4JA
_DATA	SEGMENT
?__LINE__Var@?0??SwitchUserItemConnect@CAttemperEngineSink@@IAE_NPAUIServerUserItem@@QADGEGG@Z@4JA DD 024d7H ; `CAttemperEngineSink::SwitchUserItemConnect'::`1'::__LINE__Var
_DATA	ENDS
;	COMDAT ?__LINE__Var@?0??PerformRoomTaskProgress@CAttemperEngineSink@@QAE_NPAUIServerUserItem@@PAUtagUserTaskEntry@@HHH@Z@4JA
_DATA	SEGMENT
?__LINE__Var@?0??PerformRoomTaskProgress@CAttemperEngineSink@@QAE_NPAUIServerUserItem@@PAUtagUserTaskEntry@@HHH@Z@4JA DD 0243dH ; `CAttemperEngineSink::PerformRoomTaskProgress'::`1'::__LINE__Var
_DATA	ENDS
;	COMDAT ?__LINE__Var@?0??PerformTaskProgress@CAttemperEngineSink@@IAE_NPAUIServerUserItem@@PAUtagUserTaskEntry@@KKK@Z@4JA
_DATA	SEGMENT
?__LINE__Var@?0??PerformTaskProgress@CAttemperEngineSink@@IAE_NPAUIServerUserItem@@PAUtagUserTaskEntry@@KKK@Z@4JA DD 023b5H ; `CAttemperEngineSink::PerformTaskProgress'::`1'::__LINE__Var
_DATA	ENDS
;	COMDAT ??_C@_0CJ@KGCLMCGJ@?$LL?$LG?S?$KN?D?z?$LN?x?H?k?$KB?$LA?$CFs?$KB?$LB?S?N?O?$LH?$LH?$LP?$LM?d?$KD?$KM?W?$KD?D?z?S@
CONST	SEGMENT
??_C@_0CJ@KGCLMCGJ@?$LL?$LG?S?$KN?D?z?$LN?x?H?k?$KB?$LA?$CFs?$KB?$LB?S?N?O?$LH?$LH?$LP?$LM?d?$KD?$KM?W?$KD?D?z?S@ DB 0bbH
	DB	0b6H, 0d3H, 0adH, 0c4H, 0faH, 0bdH, 0f8H, 0c8H, 0ebH, 0a1H, 0b0H
	DB	'%s', 0a1H, 0b1H, 0d3H, 0ceH, 0cfH, 0b7H, 0b7H, 0bfH, 0bcH, 0e4H
	DB	0a3H, 0acH, 0d7H, 0a3H, 0c4H, 0faH, 0d3H, 0ceH, 0cfH, 0b7H, 0d3H
	DB	0e4H, 0bfH, 0ecH, 0a3H, 0a1H, 00H		; `string'
CONST	ENDS
;	COMDAT ?__LINE__Var@?0??OnEventUserLogon@CAttemperEngineSink@@IAEXPAUIServerUserItem@@_N@Z@4JA
_DATA	SEGMENT
?__LINE__Var@?0??OnEventUserLogon@CAttemperEngineSink@@IAEXPAUIServerUserItem@@_N@Z@4JA DD 02245H ; `CAttemperEngineSink::OnEventUserLogon'::`1'::__LINE__Var
_DATA	ENDS
;	COMDAT ?__LINE__Var@?0??OnTCPNetworkSubHostDissumeTable@CAttemperEngineSink@@IAE_NPAXGK@Z@4JA
_DATA	SEGMENT
?__LINE__Var@?0??OnTCPNetworkSubHostDissumeTable@CAttemperEngineSink@@IAE_NPAXGK@Z@4JA DD 021eaH ; `CAttemperEngineSink::OnTCPNetworkSubHostDissumeTable'::`1'::__LINE__Var
_DATA	ENDS
;	COMDAT ?__LINE__Var@?0??OnTCPNetworkSubRequestReply@CAttemperEngineSink@@IAE_NPAXGK@Z@4JA
_DATA	SEGMENT
?__LINE__Var@?0??OnTCPNetworkSubRequestReply@CAttemperEngineSink@@IAE_NPAXGK@Z@4JA DD 021c5H ; `CAttemperEngineSink::OnTCPNetworkSubRequestReply'::`1'::__LINE__Var
_DATA	ENDS
;	COMDAT ?__LINE__Var@?0??OnTCPNetworkSubCancelRequest@CAttemperEngineSink@@IAE_NPAXGK@Z@4JA
_DATA	SEGMENT
?__LINE__Var@?0??OnTCPNetworkSubCancelRequest@CAttemperEngineSink@@IAE_NPAXGK@Z@4JA DD 021a1H ; `CAttemperEngineSink::OnTCPNetworkSubCancelRequest'::`1'::__LINE__Var
_DATA	ENDS
;	COMDAT ??_C@_0CF@DJFGALCD@?D?$LP?G?$LA?$LI?C?S?N?O?$LH?T?$LM?U?$LN?$LH?$LP?$LM?d?R?Q?B?z?$KD?$KM?G?k?I?T?$LK?s?T@
CONST	SEGMENT
??_C@_0CF@DJFGALCD@?D?$LP?G?$LA?$LI?C?S?N?O?$LH?T?$LM?U?$LN?$LH?$LP?$LM?d?R?Q?B?z?$KD?$KM?G?k?I?T?$LK?s?T@ DB 0c4H
	DB	0bfH, 0c7H, 0b0H, 0b8H, 0c3H, 0d3H, 0ceH, 0cfH, 0b7H, 0d4H, 0bcH
	DB	0d5H, 0bdH, 0b7H, 0bfH, 0bcH, 0e4H, 0d2H, 0d1H, 0c2H, 0faH, 0a3H
	DB	0acH, 0c7H, 0ebH, 0c9H, 0d4H, 0baH, 0f3H, 0d4H, 0d9H, 0caH, 0d4H
	DB	0a3H, 0a1H, 00H				; `string'
CONST	ENDS
;	COMDAT ?__LINE__Var@?0??OnTCPNetworkSubCreateTable@CAttemperEngineSink@@IAE_NPAXGK@Z@4JA
_DATA	SEGMENT
?__LINE__Var@?0??OnTCPNetworkSubCreateTable@CAttemperEngineSink@@IAE_NPAXGK@Z@4JA DD 0215dH ; `CAttemperEngineSink::OnTCPNetworkSubCreateTable'::`1'::__LINE__Var
_DATA	ENDS
;	COMDAT ?__LINE__Var@?0??OnTCPNetworkSubRoomCheat@CAttemperEngineSink@@IAE_NPAXGK@Z@4JA
_DATA	SEGMENT
?__LINE__Var@?0??OnTCPNetworkSubRoomCheat@CAttemperEngineSink@@IAE_NPAXGK@Z@4JA DD 0212cH ; `CAttemperEngineSink::OnTCPNetworkSubRoomCheat'::`1'::__LINE__Var
_DATA	ENDS
;	COMDAT ??_C@_08EGGGBJKA@?$LO?$KP?$LI?f?$KD?$LK?$CFs@
CONST	SEGMENT
??_C@_08EGGGBJKA@?$LO?$KP?$LI?f?$KD?$LK?$CFs@ DB 0beH, 0afH, 0b8H, 0e6H, 0a3H
	DB	0baH, '%s', 00H				; `string'
CONST	ENDS
;	COMDAT ?__LINE__Var@?0??OnTCPNetworkSubWarningUser@CAttemperEngineSink@@IAE_NPAXGK@Z@4JA
_DATA	SEGMENT
?__LINE__Var@?0??OnTCPNetworkSubWarningUser@CAttemperEngineSink@@IAE_NPAXGK@Z@4JA DD 02109H ; `CAttemperEngineSink::OnTCPNetworkSubWarningUser'::`1'::__LINE__Var
_DATA	ENDS
;	COMDAT ??_C@_0BN@HMAGCPIB@?$LB?$KH?G?$LI?$KD?$KM?$LE?K?W?$MA?R?Q?$LB?$LL?$LJ?$NM?$MA?m?T?$LB?$LN?b?I?$KC?S?N?O?$LH@
CONST	SEGMENT
??_C@_0BN@HMAGCPIB@?$LB?$KH?G?$LI?$KD?$KM?$LE?K?W?$MA?R?Q?$LB?$LL?$LJ?$NM?$MA?m?T?$LB?$LN?b?I?$KC?S?N?O?$LH@ DB 0b1H
	DB	0a7H, 0c7H, 0b8H, 0a3H, 0acH, 0b4H, 0cbH, 0d7H, 0c0H, 0d2H, 0d1H
	DB	0b1H, 0bbH, 0b9H, 0dcH, 0c0H, 0edH, 0d4H, 0b1H, 0bdH, 0e2H, 0c9H
	DB	0a2H, 0d3H, 0ceH, 0cfH, 0b7H, 00H		; `string'
CONST	ENDS
;	COMDAT ?__LINE__Var@?0??OnTCPNetworkSubDismissGame@CAttemperEngineSink@@IAE_NPAXGK@Z@4JA
_DATA	SEGMENT
?__LINE__Var@?0??OnTCPNetworkSubDismissGame@CAttemperEngineSink@@IAE_NPAXGK@Z@4JA DD 020e9H ; `CAttemperEngineSink::OnTCPNetworkSubDismissGame'::`1'::__LINE__Var
_DATA	ENDS
;	COMDAT ?__LINE__Var@?0??OnTCPNetworkSubSendMessage@CAttemperEngineSink@@IAE_NPAXGK@Z@4JA
_DATA	SEGMENT
?__LINE__Var@?0??OnTCPNetworkSubSendMessage@CAttemperEngineSink@@IAE_NPAXGK@Z@4JA DD 020bcH ; `CAttemperEngineSink::OnTCPNetworkSubSendMessage'::`1'::__LINE__Var
_DATA	ENDS
;	COMDAT ?__LINE__Var@?0??OnTCPNetworkSubKickAllUser@CAttemperEngineSink@@IAE_NPAXGK@Z@4JA
_DATA	SEGMENT
?__LINE__Var@?0??OnTCPNetworkSubKickAllUser@CAttemperEngineSink@@IAE_NPAXGK@Z@4JA DD 0208aH ; `CAttemperEngineSink::OnTCPNetworkSubKickAllUser'::`1'::__LINE__Var
_DATA	ENDS
;	COMDAT ??_C@_0BH@DNGDNDFB@?S?C?$LL?$KH?A?D?L?l?H?$KI?O?$NO?E?d?V?C?$LD?I?$LJ?$KG?$KD?$KB@
CONST	SEGMENT
??_C@_0BH@DNGDNDFB@?S?C?$LL?$KH?A?D?L?l?H?$KI?O?$NO?E?d?V?C?$LD?I?$LJ?$KG?$KD?$KB@ DB 0d3H
	DB	0c3H, 0bbH, 0a7H, 0c1H, 0c4H, 0ccH, 0ecH, 0c8H, 0a8H, 0cfH, 0deH
	DB	0c5H, 0e4H, 0d6H, 0c3H, 0b3H, 0c9H, 0b9H, 0a6H, 0a3H, 0a1H, 00H ; `string'
CONST	ENDS
;	COMDAT ?__LINE__Var@?0??OnTCPNetworkSubLimitUserChat@CAttemperEngineSink@@IAE_NPAXGK@Z@4JA
_DATA	SEGMENT
?__LINE__Var@?0??OnTCPNetworkSubLimitUserChat@CAttemperEngineSink@@IAE_NPAXGK@Z@4JA DD 02036H ; `CAttemperEngineSink::OnTCPNetworkSubLimitUserChat'::`1'::__LINE__Var
_DATA	ENDS
;	COMDAT ??_C@_0BN@NHDPIONK@?D?c?R?Q?$LB?$LL?$LJ?$NM?$MA?m?T?$LB?G?k?$MA?k?$LE?K?S?N?O?$LH?$LH?$LP?$LM?d?$KD?$KB@
CONST	SEGMENT
??_C@_0BN@NHDPIONK@?D?c?R?Q?$LB?$LL?$LJ?$NM?$MA?m?T?$LB?G?k?$MA?k?$LE?K?S?N?O?$LH?$LH?$LP?$LM?d?$KD?$KB@ DB 0c4H
	DB	0e3H, 0d2H, 0d1H, 0b1H, 0bbH, 0b9H, 0dcH, 0c0H, 0edH, 0d4H, 0b1H
	DB	0c7H, 0ebH, 0c0H, 0ebH, 0b4H, 0cbH, 0d3H, 0ceH, 0cfH, 0b7H, 0b7H
	DB	0bfH, 0bcH, 0e4H, 0a3H, 0a1H, 00H		; `string'
CONST	ENDS
;	COMDAT ??_C@_0BH@LKMDCKF@?D?c?R?Q?$LB?$LL?$LJ?$NM?$MA?m?T?$LB?G?k?$MA?k?W?$MA?W?S?$KD?$KB@
CONST	SEGMENT
??_C@_0BH@LKMDCKF@?D?c?R?Q?$LB?$LL?$LJ?$NM?$MA?m?T?$LB?G?k?$MA?k?W?$MA?W?S?$KD?$KB@ DB 0c4H
	DB	0e3H, 0d2H, 0d1H, 0b1H, 0bbH, 0b9H, 0dcH, 0c0H, 0edH, 0d4H, 0b1H
	DB	0c7H, 0ebH, 0c0H, 0ebH, 0d7H, 0c0H, 0d7H, 0d3H, 0a3H, 0a1H, 00H ; `string'
CONST	ENDS
;	COMDAT ?__LINE__Var@?0??OnTCPNetworkSubManagerKickUser@CAttemperEngineSink@@IAE_NPAXGK@Z@4JA
_DATA	SEGMENT
?__LINE__Var@?0??OnTCPNetworkSubManagerKickUser@CAttemperEngineSink@@IAE_NPAXGK@Z@4JA DD 02002H ; `CAttemperEngineSink::OnTCPNetworkSubManagerKickUser'::`1'::__LINE__Var
_DATA	ENDS
;	COMDAT ??_C@_0CH@EPNGOIIN@?T?$LG?$LD?L?P?$NO?$LI?D?$LH?$LP?$LM?d?E?d?V?C?M?$KI?V?$KK?5?$LJ?$NM?$MA?m?T?$LB?5?$CFs?5@
CONST	SEGMENT
??_C@_0CH@EPNGOIIN@?T?$LG?$LD?L?P?$NO?$LI?D?$LH?$LP?$LM?d?E?d?V?C?M?$KI?V?$KK?5?$LJ?$NM?$MA?m?T?$LB?5?$CFs?5@ DB 0d4H
	DB	0b6H, 0b3H, 0ccH, 0d0H, 0deH, 0b8H, 0c4H, 0b7H, 0bfH, 0bcH, 0e4H
	DB	0c5H, 0e4H, 0d6H, 0c3H, 0cdH, 0a8H, 0d6H, 0aaH, ' ', 0b9H, 0dcH
	DB	0c0H, 0edH, 0d4H, 0b1H, ' %s [ %ld ]', 00H	; `string'
CONST	ENDS
;	COMDAT ??_C@_0DD@HAEGHLFE@?$LF?$LB?G?$LA?S?N?O?$LH?$LH?$PO?N?q?F?w?$LH?$LP?$LM?d?$LF?D?$KB?$LA?T?K?P?P?V?$LF?$KB?$LB?W@
CONST	SEGMENT
??_C@_0DD@HAEGHLFE@?$LF?$LB?G?$LA?S?N?O?$LH?$LH?$PO?N?q?F?w?$LH?$LP?$LM?d?$LF?D?$KB?$LA?T?K?P?P?V?$LF?$KB?$LB?W@ DB 0b5H
	DB	0b1H, 0c7H, 0b0H, 0d3H, 0ceH, 0cfH, 0b7H, 0b7H, 0feH, 0ceH, 0f1H
	DB	0c6H, 0f7H, 0b7H, 0bfH, 0bcH, 0e4H, 0b5H, 0c4H, 0a1H, 0b0H, 0d4H
	DB	0cbH, 0d0H, 0d0H, 0d6H, 0b5H, 0a1H, 0b1H, 0d7H, 0b4H, 0ccH, 0acH
	DB	0c5H, 0e4H, 0d6H, 0c3H, 0caH, 0fdH, 0beH, 0ddH, 0d0H, 0deH, 0b8H
	DB	0c4H, 0b3H, 0c9H, 0b9H, 0a6H, 00H		; `string'
CONST	ENDS
;	COMDAT ?__LINE__Var@?0??OnTCPNetworkSubOptionServer@CAttemperEngineSink@@IAE_NPAXGK@Z@4JA
_DATA	SEGMENT
?__LINE__Var@?0??OnTCPNetworkSubOptionServer@CAttemperEngineSink@@IAE_NPAXGK@Z@4JA DD 01f5bH ; `CAttemperEngineSink::OnTCPNetworkSubOptionServer'::`1'::__LINE__Var
_DATA	ENDS
;	COMDAT ?__LINE__Var@?0??OnTCPNetworkSubQueryOption@CAttemperEngineSink@@IAE_NPAXGK@Z@4JA
_DATA	SEGMENT
?__LINE__Var@?0??OnTCPNetworkSubQueryOption@CAttemperEngineSink@@IAE_NPAXGK@Z@4JA DD 01f11H ; `CAttemperEngineSink::OnTCPNetworkSubQueryOption'::`1'::__LINE__Var
_DATA	ENDS
;	COMDAT ?__LINE__Var@?0??OnTCPNetworkSubBaseEnsureTakeRequest@CAttemperEngineSink@@IAE_NPAXGK@Z@4JA
_DATA	SEGMENT
?__LINE__Var@?0??OnTCPNetworkSubBaseEnsureTakeRequest@CAttemperEngineSink@@IAE_NPAXGK@Z@4JA DD 01ef4H ; `CAttemperEngineSink::OnTCPNetworkSubBaseEnsureTakeRequest'::`1'::__LINE__Var
_DATA	ENDS
;	COMDAT ?__LINE__Var@?0??OnTCPNetworkSubMemberDayGift@CAttemperEngineSink@@IAE_NPAXGK@Z@4JA
_DATA	SEGMENT
?__LINE__Var@?0??OnTCPNetworkSubMemberDayGift@CAttemperEngineSink@@IAE_NPAXGK@Z@4JA DD 01ec9H ; `CAttemperEngineSink::OnTCPNetworkSubMemberDayGift'::`1'::__LINE__Var
_DATA	ENDS
;	COMDAT ?__LINE__Var@?0??OnTCPNetworkSubMemberDayPresent@CAttemperEngineSink@@IAE_NPAXGK@Z@4JA
_DATA	SEGMENT
?__LINE__Var@?0??OnTCPNetworkSubMemberDayPresent@CAttemperEngineSink@@IAE_NPAXGK@Z@4JA DD 01eadH ; `CAttemperEngineSink::OnTCPNetworkSubMemberDayPresent'::`1'::__LINE__Var
_DATA	ENDS
;	COMDAT ?__LINE__Var@?0??OnTCPNetworkSubMemberQueryInfo@CAttemperEngineSink@@IAE_NPAXGK@Z@4JA
_DATA	SEGMENT
?__LINE__Var@?0??OnTCPNetworkSubMemberQueryInfo@CAttemperEngineSink@@IAE_NPAXGK@Z@4JA DD 01e91H ; `CAttemperEngineSink::OnTCPNetworkSubMemberQueryInfo'::`1'::__LINE__Var
_DATA	ENDS
;	COMDAT ?__LINE__Var@?0??OnTCPNetworkSubGiveUpTaskRequest@CAttemperEngineSink@@IAE_NPAXGK@Z@4JA
_DATA	SEGMENT
?__LINE__Var@?0??OnTCPNetworkSubGiveUpTaskRequest@CAttemperEngineSink@@IAE_NPAXGK@Z@4JA DD 01e73H ; `CAttemperEngineSink::OnTCPNetworkSubGiveUpTaskRequest'::`1'::__LINE__Var
_DATA	ENDS
;	COMDAT ?__LINE__Var@?0??OnTCPNetworkSubLoadTaskInfoRequest@CAttemperEngineSink@@IAE_NPAXGK@Z@4JA
_DATA	SEGMENT
?__LINE__Var@?0??OnTCPNetworkSubLoadTaskInfoRequest@CAttemperEngineSink@@IAE_NPAXGK@Z@4JA DD 01e5aH ; `CAttemperEngineSink::OnTCPNetworkSubLoadTaskInfoRequest'::`1'::__LINE__Var
_DATA	ENDS
;	COMDAT ?__LINE__Var@?0??OnTCPNetworkSubTaskRewardRequest@CAttemperEngineSink@@IAE_NPAXGK@Z@4JA
_DATA	SEGMENT
?__LINE__Var@?0??OnTCPNetworkSubTaskRewardRequest@CAttemperEngineSink@@IAE_NPAXGK@Z@4JA DD 01e3cH ; `CAttemperEngineSink::OnTCPNetworkSubTaskRewardRequest'::`1'::__LINE__Var
_DATA	ENDS
;	COMDAT ?__LINE__Var@?0??OnTCPNetworkSubTakeTaskRequest@CAttemperEngineSink@@IAE_NPAXGK@Z@4JA
_DATA	SEGMENT
?__LINE__Var@?0??OnTCPNetworkSubTakeTaskRequest@CAttemperEngineSink@@IAE_NPAXGK@Z@4JA DD 01e1eH ; `CAttemperEngineSink::OnTCPNetworkSubTakeTaskRequest'::`1'::__LINE__Var
_DATA	ENDS
;	COMDAT ?__LINE__Var@?0??OnTCPNetworkSubCheckInDoneRequest@CAttemperEngineSink@@IAE_NPAXGK@Z@4JA
_DATA	SEGMENT
?__LINE__Var@?0??OnTCPNetworkSubCheckInDoneRequest@CAttemperEngineSink@@IAE_NPAXGK@Z@4JA DD 01e01H ; `CAttemperEngineSink::OnTCPNetworkSubCheckInDoneRequest'::`1'::__LINE__Var
_DATA	ENDS
;	COMDAT ?__LINE__Var@?0??OnTCPNetworkSubCheckInQueryRequest@CAttemperEngineSink@@IAE_NPAXGK@Z@4JA
_DATA	SEGMENT
?__LINE__Var@?0??OnTCPNetworkSubCheckInQueryRequest@CAttemperEngineSink@@IAE_NPAXGK@Z@4JA DD 01de7H ; `CAttemperEngineSink::OnTCPNetworkSubCheckInQueryRequest'::`1'::__LINE__Var
_DATA	ENDS
;	COMDAT ??_C@_0BF@KCLAAAGP@?G?k?J?d?H?k?$LK?O?$LH?$KI?$LF?D?M?f?$LM?RID?$KD?$KB@
CONST	SEGMENT
??_C@_0BF@KCLAAAGP@?G?k?J?d?H?k?$LK?O?$LH?$KI?$LF?D?M?f?$LM?RID?$KD?$KB@ DB 0c7H
	DB	0ebH, 0caH, 0e4H, 0c8H, 0ebH, 0baH, 0cfH, 0b7H, 0a8H, 0b5H, 0c4H
	DB	0cdH, 0e6H, 0bcH, 0d2H, 'ID', 0a3H, 0a1H, 00H ; `string'
CONST	ENDS
;	COMDAT ?__LINE__Var@?0??OnTCPNetworkSubQueryUserInfoRequest@CAttemperEngineSink@@IAE_NPAXGK@Z@4JA
_DATA	SEGMENT
?__LINE__Var@?0??OnTCPNetworkSubQueryUserInfoRequest@CAttemperEngineSink@@IAE_NPAXGK@Z@4JA DD 01dabH ; `CAttemperEngineSink::OnTCPNetworkSubQueryUserInfoRequest'::`1'::__LINE__Var
_DATA	ENDS
;	COMDAT ?__LINE__Var@?0??OnTCPNetworkSubTransferScoreRequest@CAttemperEngineSink@@IAE_NPAXGK@Z@4JA
_DATA	SEGMENT
?__LINE__Var@?0??OnTCPNetworkSubTransferScoreRequest@CAttemperEngineSink@@IAE_NPAXGK@Z@4JA DD 01d7cH ; `CAttemperEngineSink::OnTCPNetworkSubTransferScoreRequest'::`1'::__LINE__Var
_DATA	ENDS
;	COMDAT ??_C@_0CD@KPIFHMPP@?$LE?K?$LH?$LP?$LM?d?$LN?$PL?V?$LJ?S?N?O?$LH?H?$KB?$LP?n?$KD?$KM?H?$KB?$LD?v?$LC?Y?W?w?J?$KH?$LA@
CONST	SEGMENT
??_C@_0CD@KPIFHMPP@?$LE?K?$LH?$LP?$LM?d?$LN?$PL?V?$LJ?S?N?O?$LH?H?$KB?$LP?n?$KD?$KM?H?$KB?$LD?v?$LC?Y?W?w?J?$KH?$LA@ DB 0b4H
	DB	0cbH, 0b7H, 0bfH, 0bcH, 0e4H, 0bdH, 0fbH, 0d6H, 0b9H, 0d3H, 0ceH
	DB	0cfH, 0b7H, 0c8H, 0a1H, 0bfH, 0eeH, 0a3H, 0acH, 0c8H, 0a1H, 0b3H
	DB	0f6H, 0b2H, 0d9H, 0d7H, 0f7H, 0caH, 0a7H, 0b0H, 0dcH, 0a3H, 0a1H
	DB	00H						; `string'
CONST	ENDS
;	COMDAT ??_C@_0CD@FDAGJDOL@?$LE?K?$LH?$LP?$LM?d?$LN?$PL?V?$LJ?$LH?$LP?$LM?d?H?$KB?$LP?n?$KD?$KM?H?$KB?$LD?v?$LC?Y?W?w?J?$KH?$LA@
CONST	SEGMENT
??_C@_0CD@FDAGJDOL@?$LE?K?$LH?$LP?$LM?d?$LN?$PL?V?$LJ?$LH?$LP?$LM?d?H?$KB?$LP?n?$KD?$KM?H?$KB?$LD?v?$LC?Y?W?w?J?$KH?$LA@ DB 0b4H
	DB	0cbH, 0b7H, 0bfH, 0bcH, 0e4H, 0bdH, 0fbH, 0d6H, 0b9H, 0b7H, 0bfH
	DB	0bcH, 0e4H, 0c8H, 0a1H, 0bfH, 0eeH, 0a3H, 0acH, 0c8H, 0a1H, 0b3H
	DB	0f6H, 0b2H, 0d9H, 0d7H, 0f7H, 0caH, 0a7H, 0b0H, 0dcH, 0a3H, 0a1H
	DB	00H						; `string'
CONST	ENDS
;	COMDAT ?__LINE__Var@?0??OnTCPNetworkSubTakeScoreRequest@CAttemperEngineSink@@IAE_NPAXGK@Z@4JA
_DATA	SEGMENT
?__LINE__Var@?0??OnTCPNetworkSubTakeScoreRequest@CAttemperEngineSink@@IAE_NPAXGK@Z@4JA DD 01d3fH ; `CAttemperEngineSink::OnTCPNetworkSubTakeScoreRequest'::`1'::__LINE__Var
_DATA	ENDS
;	COMDAT ??_C@_0CD@DPHNMKOK@?D?z?$LF?D?S?N?O?$LH?$LB?R?S?$OA?$LG?n?$LC?$LL?W?c?$KD?$KM?$LE?f?H?k?$LC?Y?W?w?J?$KH?$LA@
CONST	SEGMENT
??_C@_0CD@DPHNMKOK@?D?z?$LF?D?S?N?O?$LH?$LB?R?S?$OA?$LG?n?$LC?$LL?W?c?$KD?$KM?$LE?f?H?k?$LC?Y?W?w?J?$KH?$LA@ DB 0c4H
	DB	0faH, 0b5H, 0c4H, 0d3H, 0ceH, 0cfH, 0b7H, 0b1H, 0d2H, 0d3H, 0e0H
	DB	0b6H, 0eeH, 0b2H, 0bbH, 0d7H, 0e3H, 0a3H, 0acH, 0b4H, 0e6H, 0c8H
	DB	0ebH, 0b2H, 0d9H, 0d7H, 0f7H, 0caH, 0a7H, 0b0H, 0dcH, 0a3H, 0a1H
	DB	00H						; `string'
CONST	ENDS
;	COMDAT ??_C@_0DL@FGFMEKII@?S?I?S?Z?D?z?U?$PN?T?Z?S?N?O?$LH?V?P?$KD?$KM?S?N?O?$LH?$LB?R?$LP?I?$LE?f?H?k?$LG@
CONST	SEGMENT
??_C@_0DL@FGFMEKII@?S?I?S?Z?D?z?U?$PN?T?Z?S?N?O?$LH?V?P?$KD?$KM?S?N?O?$LH?$LB?R?$LP?I?$LE?f?H?k?$LG@ DB 0d3H
	DB	0c9H, 0d3H, 0daH, 0c4H, 0faH, 0d5H, 0fdH, 0d4H, 0daH, 0d3H, 0ceH
	DB	0cfH, 0b7H, 0d6H, 0d0H, 0a3H, 0acH, 0d3H, 0ceH, 0cfH, 0b7H, 0b1H
	DB	0d2H, 0bfH, 0c9H, 0b4H, 0e6H, 0c8H, 0ebH, 0b6H, 0eeH, 0b6H, 0c8H
	DB	0ceH, 0aaH, ' %I64d', 0a3H, 0acH, 0b4H, 0e6H, 0c8H, 0ebH, 0b2H
	DB	0d9H, 0d7H, 0f7H, 0caH, 0a7H, 0b0H, 0dcH, 0a3H, 0a1H, 00H ; `string'
CONST	ENDS
;	COMDAT ??_C@_0CD@MMKIAMDO@?$LE?K?$LH?$LP?$LM?d?$LN?$PL?V?$LJ?S?N?O?$LH?$LE?f?$LP?n?$KD?$KM?$LE?f?H?k?$LC?Y?W?w?J?$KH?$LA@
CONST	SEGMENT
??_C@_0CD@MMKIAMDO@?$LE?K?$LH?$LP?$LM?d?$LN?$PL?V?$LJ?S?N?O?$LH?$LE?f?$LP?n?$KD?$KM?$LE?f?H?k?$LC?Y?W?w?J?$KH?$LA@ DB 0b4H
	DB	0cbH, 0b7H, 0bfH, 0bcH, 0e4H, 0bdH, 0fbH, 0d6H, 0b9H, 0d3H, 0ceH
	DB	0cfH, 0b7H, 0b4H, 0e6H, 0bfH, 0eeH, 0a3H, 0acH, 0b4H, 0e6H, 0c8H
	DB	0ebH, 0b2H, 0d9H, 0d7H, 0f7H, 0caH, 0a7H, 0b0H, 0dcH, 0a3H, 0a1H
	DB	00H						; `string'
CONST	ENDS
;	COMDAT ??_C@_0CD@DACLODCK@?$LE?K?$LH?$LP?$LM?d?$LN?$PL?V?$LJ?$LH?$LP?$LM?d?$LE?f?$LP?n?$KD?$KM?$LE?f?H?k?$LC?Y?W?w?J?$KH?$LA@
CONST	SEGMENT
??_C@_0CD@DACLODCK@?$LE?K?$LH?$LP?$LM?d?$LN?$PL?V?$LJ?$LH?$LP?$LM?d?$LE?f?$LP?n?$KD?$KM?$LE?f?H?k?$LC?Y?W?w?J?$KH?$LA@ DB 0b4H
	DB	0cbH, 0b7H, 0bfH, 0bcH, 0e4H, 0bdH, 0fbH, 0d6H, 0b9H, 0b7H, 0bfH
	DB	0bcH, 0e4H, 0b4H, 0e6H, 0bfH, 0eeH, 0a3H, 0acH, 0b4H, 0e6H, 0c8H
	DB	0ebH, 0b2H, 0d9H, 0d7H, 0f7H, 0caH, 0a7H, 0b0H, 0dcH, 0a3H, 0a1H
	DB	00H						; `string'
CONST	ENDS
;	COMDAT ?__LINE__Var@?0??OnTCPNetworkSubSaveScoreRequest@CAttemperEngineSink@@IAE_NPAXGK@Z@4JA
_DATA	SEGMENT
?__LINE__Var@?0??OnTCPNetworkSubSaveScoreRequest@CAttemperEngineSink@@IAE_NPAXGK@Z@4JA DD 01cd9H ; `CAttemperEngineSink::OnTCPNetworkSubSaveScoreRequest'::`1'::__LINE__Var
_DATA	ENDS
;	COMDAT ?__LINE__Var@?0??OnTCPNetworkSubEnableInsureRequest@CAttemperEngineSink@@IAE_NPAXGK@Z@4JA
_DATA	SEGMENT
?__LINE__Var@?0??OnTCPNetworkSubEnableInsureRequest@CAttemperEngineSink@@IAE_NPAXGK@Z@4JA DD 01cb1H ; `CAttemperEngineSink::OnTCPNetworkSubEnableInsureRequest'::`1'::__LINE__Var
_DATA	ENDS
;	COMDAT ?__LINE__Var@?0??OnTCPNetworkSubQueryInsureInfo@CAttemperEngineSink@@IAE_NPAXGK@Z@4JA
_DATA	SEGMENT
?__LINE__Var@?0??OnTCPNetworkSubQueryInsureInfo@CAttemperEngineSink@@IAE_NPAXGK@Z@4JA DD 01c8bH ; `CAttemperEngineSink::OnTCPNetworkSubQueryInsureInfo'::`1'::__LINE__Var
_DATA	ENDS
;	COMDAT ?__LINE__Var@?0??OnTCPNetworkSubExchangeScoreByBeans@CAttemperEngineSink@@IAE_NPAXGK@Z@4JA
_DATA	SEGMENT
?__LINE__Var@?0??OnTCPNetworkSubExchangeScoreByBeans@CAttemperEngineSink@@IAE_NPAXGK@Z@4JA DD 01c68H ; `CAttemperEngineSink::OnTCPNetworkSubExchangeScoreByBeans'::`1'::__LINE__Var
_DATA	ENDS
;	COMDAT ?__LINE__Var@?0??OnTCPNetworkSubExchangeScoreByIngot@CAttemperEngineSink@@IAE_NPAXGK@Z@4JA
_DATA	SEGMENT
?__LINE__Var@?0??OnTCPNetworkSubExchangeScoreByIngot@CAttemperEngineSink@@IAE_NPAXGK@Z@4JA DD 01c41H ; `CAttemperEngineSink::OnTCPNetworkSubExchangeScoreByIngot'::`1'::__LINE__Var
_DATA	ENDS
;	COMDAT ?__LINE__Var@?0??OnTCPNetworkSubPurchaseMember@CAttemperEngineSink@@IAE_NPAXGK@Z@4JA
_DATA	SEGMENT
?__LINE__Var@?0??OnTCPNetworkSubPurchaseMember@CAttemperEngineSink@@IAE_NPAXGK@Z@4JA DD 01c1dH ; `CAttemperEngineSink::OnTCPNetworkSubPurchaseMember'::`1'::__LINE__Var
_DATA	ENDS
;	COMDAT ?__LINE__Var@?0??OnTCPNetworkSubGrowLevelQuery@CAttemperEngineSink@@IAE_NPAXGK@Z@4JA
_DATA	SEGMENT
?__LINE__Var@?0??OnTCPNetworkSubGrowLevelQuery@CAttemperEngineSink@@IAE_NPAXGK@Z@4JA DD 01be4H ; `CAttemperEngineSink::OnTCPNetworkSubGrowLevelQuery'::`1'::__LINE__Var
_DATA	ENDS
;	COMDAT ?__LINE__Var@?0??OnTCPNetworkSubChairUserInfoReq@CAttemperEngineSink@@IAE_NPAXGK@Z@4JA
_DATA	SEGMENT
?__LINE__Var@?0??OnTCPNetworkSubChairUserInfoReq@CAttemperEngineSink@@IAE_NPAXGK@Z@4JA DD 01b95H ; `CAttemperEngineSink::OnTCPNetworkSubChairUserInfoReq'::`1'::__LINE__Var
_DATA	ENDS
;	COMDAT ??_C@_0BH@GBDECKFN@?C?$LL?U?R?$LF?$LN?$LP?I?$LN?x?H?k?$LF?D?S?N?O?$LH?W?$MA?$KD?$KB@
CONST	SEGMENT
??_C@_0BH@GBDECKFN@?C?$LL?U?R?$LF?$LN?$LP?I?$LN?x?H?k?$LF?D?S?N?O?$LH?W?$MA?$KD?$KB@ DB 0c3H
	DB	0bbH, 0d5H, 0d2H, 0b5H, 0bdH, 0bfH, 0c9H, 0bdH, 0f8H, 0c8H, 0ebH
	DB	0b5H, 0c4H, 0d3H, 0ceH, 0cfH, 0b7H, 0d7H, 0c0H, 0a3H, 0a1H, 00H ; `string'
CONST	ENDS
;	COMDAT ??_C@_0BM@GOINLOJB@OnTCPNetworkSubUserChairReq@
CONST	SEGMENT
??_C@_0BM@GOINLOJB@OnTCPNetworkSubUserChairReq@ DB 'OnTCPNetworkSubUserCh'
	DB	'airReq', 00H				; `string'
CONST	ENDS
;	COMDAT ?__LINE__Var@?0??OnTCPNetworkSubUserChairReq@CAttemperEngineSink@@IAE_NPAXGK@Z@4JA
_DATA	SEGMENT
?__LINE__Var@?0??OnTCPNetworkSubUserChairReq@CAttemperEngineSink@@IAE_NPAXGK@Z@4JA DD 01b1aH ; `CAttemperEngineSink::OnTCPNetworkSubUserChairReq'::`1'::__LINE__Var
_DATA	ENDS
;	COMDAT ??_C@_0BL@OFHFAKJ@OnTCPNetworkSubUserInfoReq@
CONST	SEGMENT
??_C@_0BL@OFHFAKJ@OnTCPNetworkSubUserInfoReq@ DB 'OnTCPNetworkSubUserInfo'
	DB	'Req', 00H					; `string'
CONST	ENDS
;	COMDAT ?__LINE__Var@?0??OnTCPNetworkSubUserInfoReq@CAttemperEngineSink@@IAE_NPAXGK@Z@4JA
_DATA	SEGMENT
?__LINE__Var@?0??OnTCPNetworkSubUserInfoReq@CAttemperEngineSink@@IAE_NPAXGK@Z@4JA DD 01af5H ; `CAttemperEngineSink::OnTCPNetworkSubUserInfoReq'::`1'::__LINE__Var
_DATA	ENDS
;	COMDAT ??_C@_0BD@DKHPFDBP@?D?c?R?Q?$LB?$LL?$CFs?G?k?$MA?k?W?$MA?W?S?$KD?$KB@
CONST	SEGMENT
??_C@_0BD@DKHPFDBP@?D?c?R?Q?$LB?$LL?$CFs?G?k?$MA?k?W?$MA?W?S?$KD?$KB@ DB 0c4H
	DB	0e3H, 0d2H, 0d1H, 0b1H, 0bbH, '%s', 0c7H, 0ebH, 0c0H, 0ebH, 0d7H
	DB	0c0H, 0d7H, 0d3H, 0a3H, 0a1H, 00H		; `string'
CONST	ENDS
;	COMDAT ??_C@_0DE@ODOOJLKG@?S?I?S?Z?M?f?$LM?R?5?$FL?5?$CFs?5?$FN?5?U?$PN?T?Z?J?$LJ?S?C?$LH?$MA?L?$NP?$LP?$KI?0@
CONST	SEGMENT
??_C@_0DE@ODOOJLKG@?S?I?S?Z?M?f?$LM?R?5?$FL?5?$CFs?5?$FN?5?U?$PN?T?Z?J?$LJ?S?C?$LH?$MA?L?$NP?$LP?$KI?0@ DB 0d3H
	DB	0c9H, 0d3H, 0daH, 0cdH, 0e6H, 0bcH, 0d2H, ' [ %s ] ', 0d5H, 0fdH
	DB	0d4H, 0daH, 0caH, 0b9H, 0d3H, 0c3H, 0b7H, 0c0H, 0ccH, 0dfH, 0bfH
	DB	0a8H, ',', 0c4H, 0faH, 0ceH, 0deH, 0b7H, 0a8H, 0bdH, 0abH, 0cbH
	DB	0fcH, 0ccH, 0dfH, 0b3H, 0f6H, 0d3H, 0ceH, 0cfH, 0b7H, 0a3H, 0a1H
	DB	00H						; `string'
CONST	ENDS
;	COMDAT ??_C@_0DA@FMANDGLC@?S?I?S?Z?M?f?$LM?R?5?$FL?5?$CFs?5?$FN?5?U?$PN?T?Z?S?N?O?$LH?V?P?0?D?z?$LC?$LL@
CONST	SEGMENT
??_C@_0DA@FMANDGLC@?S?I?S?Z?M?f?$LM?R?5?$FL?5?$CFs?5?$FN?5?U?$PN?T?Z?S?N?O?$LH?V?P?0?D?z?$LC?$LL@ DB 0d3H
	DB	0c9H, 0d3H, 0daH, 0cdH, 0e6H, 0bcH, 0d2H, ' [ %s ] ', 0d5H, 0fdH
	DB	0d4H, 0daH, 0d3H, 0ceH, 0cfH, 0b7H, 0d6H, 0d0H, ',', 0c4H, 0faH
	DB	0b2H, 0bbH, 0c4H, 0dcH, 0bdH, 0abH, 0cbH, 0fcH, 0ccH, 0dfH, 0b3H
	DB	0f6H, 0d3H, 0ceH, 0cfH, 0b7H, 0a3H, 0a1H, 00H ; `string'
CONST	ENDS
;	COMDAT ??_C@_0BL@FDOJANAH@?$LK?$NM?$LB?$KH?G?$LI?$KD?$KM?$LA?Y?H?K?S?N?O?$LH?$LC?$LL?P?m?L?$NP?H?K?$KD?$KB@
CONST	SEGMENT
??_C@_0BL@FDOJANAH@?$LK?$NM?$LB?$KH?G?$LI?$KD?$KM?$LA?Y?H?K?S?N?O?$LH?$LC?$LL?P?m?L?$NP?H?K?$KD?$KB@ DB 0baH
	DB	0dcH, 0b1H, 0a7H, 0c7H, 0b8H, 0a3H, 0acH, 0b0H, 0d9H, 0c8H, 0cbH
	DB	0d3H, 0ceH, 0cfH, 0b7H, 0b2H, 0bbH, 0d0H, 0edH, 0ccH, 0dfH, 0c8H
	DB	0cbH, 0a3H, 0a1H, 00H			; `string'
CONST	ENDS
;	COMDAT ??_C@_0CB@KLELGMNL@?$LK?$NM?$LB?$KH?G?$LI?$KD?$KM?L?$NP?$LD?v?$LJ?$NM?$MA?m?T?$LB?J?G?$LC?$LL?$LB?$LL?T?J?P?m?$LF?D?$KD@
CONST	SEGMENT
??_C@_0CB@KLELGMNL@?$LK?$NM?$LB?$KH?G?$LI?$KD?$KM?L?$NP?$LD?v?$LJ?$NM?$MA?m?T?$LB?J?G?$LC?$LL?$LB?$LL?T?J?P?m?$LF?D?$KD@ DB 0baH
	DB	0dcH, 0b1H, 0a7H, 0c7H, 0b8H, 0a3H, 0acH, 0ccH, 0dfH, 0b3H, 0f6H
	DB	0b9H, 0dcH, 0c0H, 0edH, 0d4H, 0b1H, 0caH, 0c7H, 0b2H, 0bbH, 0b1H
	DB	0bbH, 0d4H, 0caH, 0d0H, 0edH, 0b5H, 0c4H, 0a3H, 0a1H, 00H ; `string'
CONST	ENDS
;	COMDAT ?__LINE__Var@?0??OnTCPNetworkSubMemberKickUser@CAttemperEngineSink@@IAE_NPAXGK@Z@4JA
_DATA	SEGMENT
?__LINE__Var@?0??OnTCPNetworkSubMemberKickUser@CAttemperEngineSink@@IAE_NPAXGK@Z@4JA DD 01aa1H ; `CAttemperEngineSink::OnTCPNetworkSubMemberKickUser'::`1'::__LINE__Var
_DATA	ENDS
;	COMDAT ??_C@_0CB@KFOICNLL@?$LE?K?W?$MA?S?P?M?f?$LM?R?I?h?V?C?A?K?$LC?$LL?S?k?D?z?M?$KM?W?$MA?S?N?O?$LH?$KD@
CONST	SEGMENT
??_C@_0CB@KFOICNLL@?$LE?K?W?$MA?S?P?M?f?$LM?R?I?h?V?C?A?K?$LC?$LL?S?k?D?z?M?$KM?W?$MA?S?N?O?$LH?$KD@ DB 0b4H
	DB	0cbH, 0d7H, 0c0H, 0d3H, 0d0H, 0cdH, 0e6H, 0bcH, 0d2H, 0c9H, 0e8H
	DB	0d6H, 0c3H, 0c1H, 0cbH, 0b2H, 0bbH, 0d3H, 0ebH, 0c4H, 0faH, 0cdH
	DB	0acH, 0d7H, 0c0H, 0d3H, 0ceH, 0cfH, 0b7H, 0a3H, 0a1H, 00H ; `string'
CONST	ENDS
;	COMDAT ?__LINE__Var@?0??OnTCPNetworkSubUserRepulseSit@CAttemperEngineSink@@IAE_NPAXGK@Z@4JA
_DATA	SEGMENT
?__LINE__Var@?0??OnTCPNetworkSubUserRepulseSit@CAttemperEngineSink@@IAE_NPAXGK@Z@4JA DD 01a7cH ; `CAttemperEngineSink::OnTCPNetworkSubUserRepulseSit'::`1'::__LINE__Var
_DATA	ENDS
;	COMDAT ?__LINE__Var@?0??OnTCPNetworkSubUserInviteReq@CAttemperEngineSink@@IAE_NPAXGK@Z@4JA
_DATA	SEGMENT
?__LINE__Var@?0??OnTCPNetworkSubUserInviteReq@CAttemperEngineSink@@IAE_NPAXGK@Z@4JA DD 01a58H ; `CAttemperEngineSink::OnTCPNetworkSubUserInviteReq'::`1'::__LINE__Var
_DATA	ENDS
;	COMDAT ??_C@_0BL@GEANMNIE@?A?$LH?O?$LA?$LH?$LP?$LM?d?$LC?$LL?$LP?I?R?T?J?$LJ?S?C?$LE?K?$LJ?$KG?D?$NM?$KD?$KB@
CONST	SEGMENT
??_C@_0BL@GEANMNIE@?A?$LH?O?$LA?$LH?$LP?$LM?d?$LC?$LL?$LP?I?R?T?J?$LJ?S?C?$LE?K?$LJ?$KG?D?$NM?$KD?$KB@ DB 0c1H
	DB	0b7H, 0cfH, 0b0H, 0b7H, 0bfH, 0bcH, 0e4H, 0b2H, 0bbH, 0bfH, 0c9H
	DB	0d2H, 0d4H, 0caH, 0b9H, 0d3H, 0c3H, 0b4H, 0cbH, 0b9H, 0a6H, 0c4H
	DB	0dcH, 0a3H, 0a1H, 00H			; `string'
CONST	ENDS
;	COMDAT ??_C@_0BL@BLADOFOC@?$LB?H?H?$PM?$LH?$LP?$LM?d?$LC?$LL?$LP?I?R?T?J?$LJ?S?C?$LE?K?$LJ?$KG?D?$NM?$KD?$KB@
CONST	SEGMENT
??_C@_0BL@BLADOFOC@?$LB?H?H?$PM?$LH?$LP?$LM?d?$LC?$LL?$LP?I?R?T?J?$LJ?S?C?$LE?K?$LJ?$KG?D?$NM?$KD?$KB@ DB 0b1H
	DB	0c8H, 0c8H, 0fcH, 0b7H, 0bfH, 0bcH, 0e4H, 0b2H, 0bbH, 0bfH, 0c9H
	DB	0d2H, 0d4H, 0caH, 0b9H, 0d3H, 0c3H, 0b4H, 0cbH, 0b9H, 0a6H, 0c4H
	DB	0dcH, 0a3H, 0a1H, 00H			; `string'
CONST	ENDS
;	COMDAT ?__LINE__Var@?0??OnTCPNetwordSubSendTrumpet@CAttemperEngineSink@@IAE_NPAXGK@Z@4JA
_DATA	SEGMENT
?__LINE__Var@?0??OnTCPNetwordSubSendTrumpet@CAttemperEngineSink@@IAE_NPAXGK@Z@4JA DD 01a27H ; `CAttemperEngineSink::OnTCPNetwordSubSendTrumpet'::`1'::__LINE__Var
_DATA	ENDS
;	COMDAT ?__LINE__Var@?0??OnTCPNetworkSubGetSendPresent@CAttemperEngineSink@@IAE_NPAXGK@Z@4JA
_DATA	SEGMENT
?__LINE__Var@?0??OnTCPNetworkSubGetSendPresent@CAttemperEngineSink@@IAE_NPAXGK@Z@4JA DD 01a0fH ; `CAttemperEngineSink::OnTCPNetworkSubGetSendPresent'::`1'::__LINE__Var
_DATA	ENDS
;	COMDAT ?__LINE__Var@?0??OnTCPNetworkSubPropertyPresent@CAttemperEngineSink@@IAE_NPAXGK@Z@4JA
_DATA	SEGMENT
?__LINE__Var@?0??OnTCPNetworkSubPropertyPresent@CAttemperEngineSink@@IAE_NPAXGK@Z@4JA DD 019f5H ; `CAttemperEngineSink::OnTCPNetworkSubPropertyPresent'::`1'::__LINE__Var
_DATA	ENDS
;	COMDAT ?__LINE__Var@?0??OnTCPNetworkSubQuerySendPresent@CAttemperEngineSink@@IAE_NPAXGK@Z@4JA
_DATA	SEGMENT
?__LINE__Var@?0??OnTCPNetworkSubQuerySendPresent@CAttemperEngineSink@@IAE_NPAXGK@Z@4JA DD 019e1H ; `CAttemperEngineSink::OnTCPNetworkSubQuerySendPresent'::`1'::__LINE__Var
_DATA	ENDS
;	COMDAT ?__LINE__Var@?0??OnTCPNetworkSubPropertyUse@CAttemperEngineSink@@IAE_NPAXGK@Z@4JA
_DATA	SEGMENT
?__LINE__Var@?0??OnTCPNetworkSubPropertyUse@CAttemperEngineSink@@IAE_NPAXGK@Z@4JA DD 019c1H ; `CAttemperEngineSink::OnTCPNetworkSubPropertyUse'::`1'::__LINE__Var
_DATA	ENDS
;	COMDAT ?__LINE__Var@?0??OnTCPNetworkSubPropertyBackpack@CAttemperEngineSink@@IAE_NPAXGK@Z@4JA
_DATA	SEGMENT
?__LINE__Var@?0??OnTCPNetworkSubPropertyBackpack@CAttemperEngineSink@@IAE_NPAXGK@Z@4JA DD 019abH ; `CAttemperEngineSink::OnTCPNetworkSubPropertyBackpack'::`1'::__LINE__Var
_DATA	ENDS
;	COMDAT ?__LINE__Var@?0??OnTCPNetworkSubGamePropertyBuy@CAttemperEngineSink@@IAE_NPAXGK@Z@4JA
_DATA	SEGMENT
?__LINE__Var@?0??OnTCPNetworkSubGamePropertyBuy@CAttemperEngineSink@@IAE_NPAXGK@Z@4JA DD 01987H ; `CAttemperEngineSink::OnTCPNetworkSubGamePropertyBuy'::`1'::__LINE__Var
_DATA	ENDS
;	COMDAT ?__LINE__Var@?0??OnTCPNetworkSubWisperExpression@CAttemperEngineSink@@IAE_NPAXGK@Z@4JA
_DATA	SEGMENT
?__LINE__Var@?0??OnTCPNetworkSubWisperExpression@CAttemperEngineSink@@IAE_NPAXGK@Z@4JA DD 0191aH ; `CAttemperEngineSink::OnTCPNetworkSubWisperExpression'::`1'::__LINE__Var
_DATA	ENDS
;	COMDAT ??_C@_0DN@JGPLIPLP@?$LB?$KH?G?$LI?$KD?$KM?D?z?C?$LL?S?P?$LH?$KC?K?M?K?$LN?A?D?$LF?D?H?$KI?O?$NO?$KD?$KM?H?t?P@
CONST	SEGMENT
??_C@_0DN@JGPLIPLP@?$LB?$KH?G?$LI?$KD?$KM?D?z?C?$LL?S?P?$LH?$KC?K?M?K?$LN?A?D?$LF?D?H?$KI?O?$NO?$KD?$KM?H?t?P@ DB 0b1H
	DB	0a7H, 0c7H, 0b8H, 0a3H, 0acH, 0c4H, 0faH, 0c3H, 0bbH, 0d3H, 0d0H
	DB	0b7H, 0a2H, 0cbH, 0cdH, 0cbH, 0bdH, 0c1H, 0c4H, 0b5H, 0c4H, 0c8H
	DB	0a8H, 0cfH, 0deH, 0a3H, 0acH, 0c8H, 0f4H, 0d0H, 0e8H, 0d2H, 0aaH
	DB	0b0H, 0efH, 0d6H, 0faH, 0a3H, 0acH, 0c7H, 0ebH, 0c1H, 0aaH, 0cfH
	DB	0b5H, 0d3H, 0ceH, 0cfH, 0b7H, 0bfH, 0cdH, 0b7H, 0feH, 0d7H, 0c9H
	DB	0d1H, 0afH, 0a3H, 0a1H, 00H			; `string'
CONST	ENDS
;	COMDAT ??_C@_0DB@MDMMFNJG@?$LB?$KH?G?$LI?$KD?$KM?$LE?K?S?N?O?$LH?$LH?$LP?$LM?d?$LC?$LL?T?J?P?m?T?Z?S?N?O?$LH?V?P?S@
CONST	SEGMENT
??_C@_0DB@MDMMFNJG@?$LB?$KH?G?$LI?$KD?$KM?$LE?K?S?N?O?$LH?$LH?$LP?$LM?d?$LC?$LL?T?J?P?m?T?Z?S?N?O?$LH?V?P?S@ DB 0b1H
	DB	0a7H, 0c7H, 0b8H, 0a3H, 0acH, 0b4H, 0cbH, 0d3H, 0ceH, 0cfH, 0b7H
	DB	0b7H, 0bfH, 0bcH, 0e4H, 0b2H, 0bbH, 0d4H, 0caH, 0d0H, 0edH, 0d4H
	DB	0daH, 0d3H, 0ceH, 0cfH, 0b7H, 0d6H, 0d0H, 0d3H, 0ebH, 0cdH, 0acH
	DB	0d7H, 0c0H, 0b5H, 0c4H, 0cdH, 0e6H, 0bcH, 0d2H, 0cbH, 0bdH, 0c1H
	DB	0c4H, 0a3H, 0a1H, 00H			; `string'
CONST	ENDS
;	COMDAT ??_C@_0CD@EOEHCMPC@?$LB?$KH?G?$LI?$KD?$KM?$LF?$LB?G?$LA?$LE?K?S?N?O?$LH?$LH?$LP?$LM?d?$LN?$PL?V?$LJ?S?C?$LL?$KH?K?$LN?A@
CONST	SEGMENT
??_C@_0CD@EOEHCMPC@?$LB?$KH?G?$LI?$KD?$KM?$LF?$LB?G?$LA?$LE?K?S?N?O?$LH?$LH?$LP?$LM?d?$LN?$PL?V?$LJ?S?C?$LL?$KH?K?$LN?A@ DB 0b1H
	DB	0a7H, 0c7H, 0b8H, 0a3H, 0acH, 0b5H, 0b1H, 0c7H, 0b0H, 0b4H, 0cbH
	DB	0d3H, 0ceH, 0cfH, 0b7H, 0b7H, 0bfH, 0bcH, 0e4H, 0bdH, 0fbH, 0d6H
	DB	0b9H, 0d3H, 0c3H, 0bbH, 0a7H, 0cbH, 0bdH, 0c1H, 0c4H, 0a3H, 0a1H
	DB	00H						; `string'
CONST	ENDS
;	COMDAT ?__LINE__Var@?0??OnTCPNetworkSubWisperChat@CAttemperEngineSink@@IAE_NPAXGK@Z@4JA
_DATA	SEGMENT
?__LINE__Var@?0??OnTCPNetworkSubWisperChat@CAttemperEngineSink@@IAE_NPAXGK@Z@4JA DD 018a5H ; `CAttemperEngineSink::OnTCPNetworkSubWisperChat'::`1'::__LINE__Var
_DATA	ENDS
;	COMDAT ?__LINE__Var@?0??OnTCPNetworkSubUserExpression@CAttemperEngineSink@@IAE_NPAXGK@Z@4JA
_DATA	SEGMENT
?__LINE__Var@?0??OnTCPNetworkSubUserExpression@CAttemperEngineSink@@IAE_NPAXGK@Z@4JA DD 01867H ; `CAttemperEngineSink::OnTCPNetworkSubUserExpression'::`1'::__LINE__Var
_DATA	ENDS
;	COMDAT ??_C@_0DN@EKHAPMJC@?$LB?$KH?G?$LI?$KD?$KM?D?z?C?$LL?S?P?$LE?s?L?$PM?$LH?$KC?Q?T?$LF?D?H?$KI?O?$NO?$KD?$KM?H?t?P@
CONST	SEGMENT
??_C@_0DN@EKHAPMJC@?$LB?$KH?G?$LI?$KD?$KM?D?z?C?$LL?S?P?$LE?s?L?$PM?$LH?$KC?Q?T?$LF?D?H?$KI?O?$NO?$KD?$KM?H?t?P@ DB 0b1H
	DB	0a7H, 0c7H, 0b8H, 0a3H, 0acH, 0c4H, 0faH, 0c3H, 0bbH, 0d3H, 0d0H
	DB	0b4H, 0f3H, 0ccH, 0fcH, 0b7H, 0a2H, 0d1H, 0d4H, 0b5H, 0c4H, 0c8H
	DB	0a8H, 0cfH, 0deH, 0a3H, 0acH, 0c8H, 0f4H, 0d0H, 0e8H, 0d2H, 0aaH
	DB	0b0H, 0efH, 0d6H, 0faH, 0a3H, 0acH, 0c7H, 0ebH, 0c1H, 0aaH, 0cfH
	DB	0b5H, 0d3H, 0ceH, 0cfH, 0b7H, 0bfH, 0cdH, 0b7H, 0feH, 0d7H, 0c9H
	DB	0d1H, 0afH, 0a3H, 0a1H, 00H			; `string'
CONST	ENDS
;	COMDAT ??_C@_0CH@OBNELMKK@?$LB?$KH?G?$LI?$KD?$KM?$LF?$LB?G?$LA?$LE?K?S?N?O?$LH?$LH?$LP?$LM?d?$LN?$PL?V?$LJ?S?C?$LL?$KH?$LE?s?L@
CONST	SEGMENT
??_C@_0CH@OBNELMKK@?$LB?$KH?G?$LI?$KD?$KM?$LF?$LB?G?$LA?$LE?K?S?N?O?$LH?$LH?$LP?$LM?d?$LN?$PL?V?$LJ?S?C?$LL?$KH?$LE?s?L@ DB 0b1H
	DB	0a7H, 0c7H, 0b8H, 0a3H, 0acH, 0b5H, 0b1H, 0c7H, 0b0H, 0b4H, 0cbH
	DB	0d3H, 0ceH, 0cfH, 0b7H, 0b7H, 0bfH, 0bcH, 0e4H, 0bdH, 0fbH, 0d6H
	DB	0b9H, 0d3H, 0c3H, 0bbH, 0a7H, 0b4H, 0f3H, 0ccH, 0fcH, 0c1H, 0c4H
	DB	0ccH, 0ecH, 0a3H, 0a1H, 00H			; `string'
CONST	ENDS
;	COMDAT ?__LINE__Var@?0??OnTCPNetworkSubUserChat@CAttemperEngineSink@@IAE_NPAXGK@Z@4JA
_DATA	SEGMENT
?__LINE__Var@?0??OnTCPNetworkSubUserChat@CAttemperEngineSink@@IAE_NPAXGK@Z@4JA DD 0181dH ; `CAttemperEngineSink::OnTCPNetworkSubUserChat'::`1'::__LINE__Var
_DATA	ENDS
;	COMDAT ??_C@_0CP@JLGPNJOP@?T?$LM?U?$LN?N?$LE?$LN?a?J?x?$KD?$KM?$LC?$LL?D?$NM?$MA?k?$LP?$KK?S?N?O?$LH?$KD?$KM?G?k?O?H?M@
CONST	SEGMENT
??_C@_0CP@JLGPNJOP@?T?$LM?U?$LN?N?$LE?$LN?a?J?x?$KD?$KM?$LC?$LL?D?$NM?$MA?k?$LP?$KK?S?N?O?$LH?$KD?$KM?G?k?O?H?M@ DB 0d4H
	DB	0bcH, 0d5H, 0bdH, 0ceH, 0b4H, 0bdH, 0e1H, 0caH, 0f8H, 0a3H, 0acH
	DB	0b2H, 0bbH, 0c4H, 0dcH, 0c0H, 0ebH, 0bfH, 0aaH, 0d3H, 0ceH, 0cfH
	DB	0b7H, 0a3H, 0acH, 0c7H, 0ebH, 0cfH, 0c8H, 0cdH, 0eaH, 0b3H, 0c9H
	DB	0d4H, 0bcH, 0d5H, 0bdH, 0d4H, 0d9H, 0c0H, 0ebH, 0bfH, 0aaH, 0a3H
	DB	0a1H, 00H					; `string'
CONST	ENDS
;	COMDAT ?__LINE__Var@?0??OnTCPNetworkSubUserStandUp@CAttemperEngineSink@@IAE_NPAXGK@Z@4JA
_DATA	SEGMENT
?__LINE__Var@?0??OnTCPNetworkSubUserStandUp@CAttemperEngineSink@@IAE_NPAXGK@Z@4JA DD 017deH ; `CAttemperEngineSink::OnTCPNetworkSubUserStandUp'::`1'::__LINE__Var
_DATA	ENDS
;	COMDAT ??_C@_0DD@KHGFKAPM@?S?I?S?Z?$LE?K?$LH?$LP?$LM?d?C?$LL?S?P?$LP?U?S?$OA?$LF?D?N?$LL?V?C?A?K?$KD?$KM?G?k?Q@
CONST	SEGMENT
??_C@_0DD@KHGFKAPM@?S?I?S?Z?$LE?K?$LH?$LP?$LM?d?C?$LL?S?P?$LP?U?S?$OA?$LF?D?N?$LL?V?C?A?K?$KD?$KM?G?k?Q@ DB 0d3H
	DB	0c9H, 0d3H, 0daH, 0b4H, 0cbH, 0b7H, 0bfH, 0bcH, 0e4H, 0c3H, 0bbH
	DB	0d3H, 0d0H, 0bfH, 0d5H, 0d3H, 0e0H, 0b5H, 0c4H, 0ceH, 0bbH, 0d6H
	DB	0c3H, 0c1H, 0cbH, 0a3H, 0acH, 0c7H, 0ebH, 0d1H, 0a1H, 0d4H, 0f1H
	DB	0c1H, 0edH, 0cdH, 0e2H, 0b5H, 0c4H, 0d3H, 0ceH, 0cfH, 0b7H, 0b7H
	DB	0bfH, 0bcH, 0e4H, 0a3H, 0a1H, 00H		; `string'
CONST	ENDS
;	COMDAT ??_C@_0DP@DPCOLKLL@?S?I?S?Z?$LE?K?S?N?O?$LH?W?$MA?T?$NN?J?$LB?C?$LL?S?P?$LP?I?R?T?H?C?D?z?$LM?S?H@
CONST	SEGMENT
??_C@_0DP@DPCOLKLL@?S?I?S?Z?$LE?K?S?N?O?$LH?W?$MA?T?$NN?J?$LB?C?$LL?S?P?$LP?I?R?T?H?C?D?z?$LM?S?H@ DB 0d3H
	DB	0c9H, 0d3H, 0daH, 0b4H, 0cbH, 0d3H, 0ceH, 0cfH, 0b7H, 0d7H, 0c0H
	DB	0d4H, 0ddH, 0caH, 0b1H, 0c3H, 0bbH, 0d3H, 0d0H, 0bfH, 0c9H, 0d2H
	DB	0d4H, 0c8H, 0c3H, 0c4H, 0faH, 0bcH, 0d3H, 0c8H, 0ebH, 0b5H, 0c4H
	DB	0ceH, 0bbH, 0d6H, 0c3H, 0c1H, 0cbH, 0a3H, 0acH, 0c7H, 0ebH, 0d1H
	DB	0a1H, 0d4H, 0f1H, 0c1H, 0edH, 0cdH, 0e2H, 0b5H, 0c4H, 0d3H, 0ceH
	DB	0cfH, 0b7H, 0d7H, 0c0H, 0a3H, 0a1H, 00H	; `string'
CONST	ENDS
;	COMDAT ??_C@_0EF@JJCEJGNN@?$LF?$LB?G?$LA?S?N?O?$LH?$LH?$LP?$LM?d?R?Q?$LO?$KN?H?K?B?z?N?$KK?$LL?$LM?A?K?$KD?$KM?T?$NN?J@
CONST	SEGMENT
??_C@_0EF@JJCEJGNN@?$LF?$LB?G?$LA?S?N?O?$LH?$LH?$LP?$LM?d?R?Q?$LO?$KN?H?K?B?z?N?$KK?$LL?$LM?A?K?$KD?$KM?T?$NN?J@ DB 0b5H
	DB	0b1H, 0c7H, 0b0H, 0d3H, 0ceH, 0cfH, 0b7H, 0b7H, 0bfH, 0bcH, 0e4H
	DB	0d2H, 0d1H, 0beH, 0adH, 0c8H, 0cbH, 0c2H, 0faH, 0ceH, 0aaH, 0bbH
	DB	0bcH, 0c1H, 0cbH, 0a3H, 0acH, 0d4H, 0ddH, 0caH, 0b1H, 0c3H, 0bbH
	DB	0d3H, 0d0H, 0bfH, 0c9H, 0d2H, 0d4H, 0c8H, 0c3H, 0c4H, 0faH, 0bcH
	DB	0d3H, 0c8H, 0ebH, 0b5H, 0c4H, 0ceH, 0bbH, 0d6H, 0c3H, 0a3H, 0acH
	DB	0c7H, 0ebH, 0c9H, 0d4H, 0baH, 0f3H, 0d4H, 0d9H, 0caH, 0d4H, 0a3H
	DB	0a1H, 00H					; `string'
CONST	ENDS
;	COMDAT ??_C@_0BN@BCDLHLAL@?$LE?m?N?s?$LF?D?$LH?$LP?$LM?d?G?k?G?s?$KD?$KM?G?k?I?T?$LK?s?T?Y?J?T?$KD?$KB@
CONST	SEGMENT
??_C@_0BN@BCDLHLAL@?$LE?m?N?s?$LF?D?$LH?$LP?$LM?d?G?k?G?s?$KD?$KM?G?k?I?T?$LK?s?T?Y?J?T?$KD?$KB@ DB 0b4H
	DB	0edH, 0ceH, 0f3H, 0b5H, 0c4H, 0b7H, 0bfH, 0bcH, 0e4H, 0c7H, 0ebH
	DB	0c7H, 0f3H, 0a3H, 0acH, 0c7H, 0ebH, 0c9H, 0d4H, 0baH, 0f3H, 0d4H
	DB	0d9H, 0caH, 0d4H, 0a3H, 0a1H, 00H		; `string'
CONST	ENDS
;	COMDAT ?__LINE__Var@?0??OnTCPNetworkSubUserSitDown@CAttemperEngineSink@@IAE_NPAXGK@Z@4JA
_DATA	SEGMENT
?__LINE__Var@?0??OnTCPNetworkSubUserSitDown@CAttemperEngineSink@@IAE_NPAXGK@Z@4JA DD 0173bH ; `CAttemperEngineSink::OnTCPNetworkSubUserSitDown'::`1'::__LINE__Var
_DATA	ENDS
;	COMDAT ??_C@_0CP@IADBOHKH@?D?z?U?$PN?T?Z?S?N?O?$LH?V?P?$KD?$KM?T?$NN?J?$LB?$LC?$LL?D?$NM?$MA?k?$LP?$KK?$KD?$KM?G?k?O@
CONST	SEGMENT
??_C@_0CP@IADBOHKH@?D?z?U?$PN?T?Z?S?N?O?$LH?V?P?$KD?$KM?T?$NN?J?$LB?$LC?$LL?D?$NM?$MA?k?$LP?$KK?$KD?$KM?G?k?O@ DB 0c4H
	DB	0faH, 0d5H, 0fdH, 0d4H, 0daH, 0d3H, 0ceH, 0cfH, 0b7H, 0d6H, 0d0H
	DB	0a3H, 0acH, 0d4H, 0ddH, 0caH, 0b1H, 0b2H, 0bbH, 0c4H, 0dcH, 0c0H
	DB	0ebH, 0bfH, 0aaH, 0a3H, 0acH, 0c7H, 0ebH, 0cfH, 0c8H, 0bdH, 0e1H
	DB	0caH, 0f8H, 0b5H, 0b1H, 0c7H, 0b0H, 0d3H, 0ceH, 0cfH, 0b7H, 0a3H
	DB	0a1H, 00H					; `string'
CONST	ENDS
;	COMDAT ?__LINE__Var@?0??OnTCPNetworkSubUserLookon@CAttemperEngineSink@@IAE_NPAXGK@Z@4JA
_DATA	SEGMENT
?__LINE__Var@?0??OnTCPNetworkSubUserLookon@CAttemperEngineSink@@IAE_NPAXGK@Z@4JA DD 0170cH ; `CAttemperEngineSink::OnTCPNetworkSubUserLookon'::`1'::__LINE__Var
_DATA	ENDS
;	COMDAT ?__LINE__Var@?0??OnTCPNetworkSubUserRule@CAttemperEngineSink@@IAE_NPAXGK@Z@4JA
_DATA	SEGMENT
?__LINE__Var@?0??OnTCPNetworkSubUserRule@CAttemperEngineSink@@IAE_NPAXGK@Z@4JA DD 016bcH ; `CAttemperEngineSink::OnTCPNetworkSubUserRule'::`1'::__LINE__Var
_DATA	ENDS
;	COMDAT ?__LINE__Var@?0??OnTCPNetworkSubLogonAccounts@CAttemperEngineSink@@IAE_NPAXGK@Z@4JA
_DATA	SEGMENT
?__LINE__Var@?0??OnTCPNetworkSubLogonAccounts@CAttemperEngineSink@@IAE_NPAXGK@Z@4JA DD 0166aH ; `CAttemperEngineSink::OnTCPNetworkSubLogonAccounts'::`1'::__LINE__Var
_DATA	ENDS
;	COMDAT ?__LINE__Var@?0??OnTCPNetworkSubLogonMobile@CAttemperEngineSink@@IAE_NPAXGK@Z@4JA
_DATA	SEGMENT
?__LINE__Var@?0??OnTCPNetworkSubLogonMobile@CAttemperEngineSink@@IAE_NPAXGK@Z@4JA DD 015fdH ; `CAttemperEngineSink::OnTCPNetworkSubLogonMobile'::`1'::__LINE__Var
_DATA	ENDS
;	COMDAT ??_C@_0CL@KDGAPOGL@?$LK?$NM?$LB?$KH?G?$LI?$KD?$KM?D?z?$LF?D?$LF?G?B?$LM?C?$NM?B?k?$LE?m?N?s?$KD?$KM?$LC?$LL?T?J?P@
CONST	SEGMENT
??_C@_0CL@KDGAPOGL@?$LK?$NM?$LB?$KH?G?$LI?$KD?$KM?D?z?$LF?D?$LF?G?B?$LM?C?$NM?B?k?$LE?m?N?s?$KD?$KM?$LC?$LL?T?J?P@ DB 0baH
	DB	0dcH, 0b1H, 0a7H, 0c7H, 0b8H, 0a3H, 0acH, 0c4H, 0faH, 0b5H, 0c4H
	DB	0b5H, 0c7H, 0c2H, 0bcH, 0c3H, 0dcH, 0c2H, 0ebH, 0b4H, 0edH, 0ceH
	DB	0f3H, 0a3H, 0acH, 0b2H, 0bbH, 0d4H, 0caH, 0d0H, 0edH, 0bcH, 0ccH
	DB	0d0H, 0f8H, 0bdH, 0f8H, 0c8H, 0ebH, 0a3H, 0a1H, 00H ; `string'
CONST	ENDS
;	COMDAT ??_C@_0DD@PBGKLFPO@?$LI?C?U?J?$LK?E?R?Q?T?Z?$LE?K?$LH?$LP?$LM?d?S?N?O?$LH?$KD?$KM?G?R?$LC?$LL?T?J?P?m?L@
CONST	SEGMENT
??_C@_0DD@PBGKLFPO@?$LI?C?U?J?$LK?E?R?Q?T?Z?$LE?K?$LH?$LP?$LM?d?S?N?O?$LH?$KD?$KM?G?R?$LC?$LL?T?J?P?m?L@ DB 0b8H
	DB	0c3H, 0d5H, 0caH, 0baH, 0c5H, 0d2H, 0d1H, 0d4H, 0daH, 0b4H, 0cbH
	DB	0b7H, 0bfH, 0bcH, 0e4H, 0d3H, 0ceH, 0cfH, 0b7H, 0a3H, 0acH, 0c7H
	DB	0d2H, 0b2H, 0bbH, 0d4H, 0caH, 0d0H, 0edH, 0ccH, 0dfH, 0b3H, 0f6H
	DB	0a3H, 0acH, 0c7H, 0ebH, 0d7H, 0c9H, 0d1H, 0afH, 0b9H, 0dcH, 0c0H
	DB	0edH, 0d4H, 0b1H, 0a3H, 0a1H, 00H		; `string'
CONST	ENDS
;	COMDAT ??_C@_0CP@JGONOMBF@?$LK?$NM?$LB?$KH?G?$LI?$KD?$KM?$LE?K?S?N?O?$LH?$LH?$LP?$LM?d?R?Q?$LO?$KN?$LJ?X?$LB?U?A?K?$KD?$KM?$LC@
CONST	SEGMENT
??_C@_0CP@JGONOMBF@?$LK?$NM?$LB?$KH?G?$LI?$KD?$KM?$LE?K?S?N?O?$LH?$LH?$LP?$LM?d?R?Q?$LO?$KN?$LJ?X?$LB?U?A?K?$KD?$KM?$LC@ DB 0baH
	DB	0dcH, 0b1H, 0a7H, 0c7H, 0b8H, 0a3H, 0acH, 0b4H, 0cbH, 0d3H, 0ceH
	DB	0cfH, 0b7H, 0b7H, 0bfH, 0bcH, 0e4H, 0d2H, 0d1H, 0beH, 0adH, 0b9H
	DB	0d8H, 0b1H, 0d5H, 0c1H, 0cbH, 0a3H, 0acH, 0b2H, 0bbH, 0d4H, 0caH
	DB	0d0H, 0edH, 0bcH, 0ccH, 0d0H, 0f8H, 0bdH, 0f8H, 0c8H, 0ebH, 0a3H
	DB	0a1H, 00H					; `string'
CONST	ENDS
;	COMDAT ??_C@_0CL@OCEOPNCD@?$LB?$KH?G?$LI?$KD?$KM?D?z?J?d?H?k?$LF?D?$LH?$LP?$LM?d?C?$NM?B?k?$LC?$LL?U?$PN?H?$LH?$KD?$KM?G@
CONST	SEGMENT
??_C@_0CL@OCEOPNCD@?$LB?$KH?G?$LI?$KD?$KM?D?z?J?d?H?k?$LF?D?$LH?$LP?$LM?d?C?$NM?B?k?$LC?$LL?U?$PN?H?$LH?$KD?$KM?G@ DB 0b1H
	DB	0a7H, 0c7H, 0b8H, 0a3H, 0acH, 0c4H, 0faH, 0caH, 0e4H, 0c8H, 0ebH
	DB	0b5H, 0c4H, 0b7H, 0bfH, 0bcH, 0e4H, 0c3H, 0dcH, 0c2H, 0ebH, 0b2H
	DB	0bbH, 0d5H, 0fdH, 0c8H, 0b7H, 0a3H, 0acH, 0c7H, 0ebH, 0d6H, 0d8H
	DB	0d0H, 0c2H, 0caH, 0e4H, 0c8H, 0ebH, 0a3H, 0a1H, 00H ; `string'
CONST	ENDS
;	COMDAT ?__LINE__Var@?0??OnTCPNetworkSubLogonUserID@CAttemperEngineSink@@IAE_NPAXGK@Z@4JA
_DATA	SEGMENT
?__LINE__Var@?0??OnTCPNetworkSubLogonUserID@CAttemperEngineSink@@IAE_NPAXGK@Z@4JA DD 0158cH ; `CAttemperEngineSink::OnTCPNetworkSubLogonUserID'::`1'::__LINE__Var
_DATA	ENDS
;	COMDAT ?__LINE__Var@?0??OnTCPNetworkMainFrame@CAttemperEngineSink@@IAE_NGPAXGK@Z@4JA
_DATA	SEGMENT
?__LINE__Var@?0??OnTCPNetworkMainFrame@CAttemperEngineSink@@IAE_NGPAXGK@Z@4JA DD 01577H ; `CAttemperEngineSink::OnTCPNetworkMainFrame'::`1'::__LINE__Var
_DATA	ENDS
;	COMDAT ?__LINE__Var@?0??OnTCPNetworkMainGame@CAttemperEngineSink@@IAE_NGPAXGK@Z@4JA
_DATA	SEGMENT
?__LINE__Var@?0??OnTCPNetworkMainGame@CAttemperEngineSink@@IAE_NGPAXGK@Z@4JA DD 01562H ; `CAttemperEngineSink::OnTCPNetworkMainGame'::`1'::__LINE__Var
_DATA	ENDS
;	COMDAT ?__LINE__Var@?0??OnTCPNetworkMainPersonalTable@CAttemperEngineSink@@IAE_NGPAXGK@Z@4JA
_DATA	SEGMENT
?__LINE__Var@?0??OnTCPNetworkMainPersonalTable@CAttemperEngineSink@@IAE_NGPAXGK@Z@4JA DD 0154eH ; `CAttemperEngineSink::OnTCPNetworkMainPersonalTable'::`1'::__LINE__Var
_DATA	ENDS
;	COMDAT ?__LINE__Var@?0??OnTCPNetworkMainMatch@CAttemperEngineSink@@IAE_NGPAXGK@Z@4JA
_DATA	SEGMENT
?__LINE__Var@?0??OnTCPNetworkMainMatch@CAttemperEngineSink@@IAE_NGPAXGK@Z@4JA DD 0153bH ; `CAttemperEngineSink::OnTCPNetworkMainMatch'::`1'::__LINE__Var
_DATA	ENDS
;	COMDAT ?__LINE__Var@?0??OnTCPNetworkMainInsure@CAttemperEngineSink@@IAE_NGPAXGK@Z@4JA
_DATA	SEGMENT
?__LINE__Var@?0??OnTCPNetworkMainInsure@CAttemperEngineSink@@IAE_NGPAXGK@Z@4JA DD 0144fH ; `CAttemperEngineSink::OnTCPNetworkMainInsure'::`1'::__LINE__Var
_DATA	ENDS
;	COMDAT ?__LINE__Var@?0??OnTCPSocketMainAndroidService@CAttemperEngineSink@@IAE_NGPAXG@Z@4JA
_DATA	SEGMENT
?__LINE__Var@?0??OnTCPSocketMainAndroidService@CAttemperEngineSink@@IAE_NGPAXG@Z@4JA DD 013bfH ; `CAttemperEngineSink::OnTCPSocketMainAndroidService'::`1'::__LINE__Var
_DATA	ENDS
;	COMDAT ?__LINE__Var@?0??OnTCPSocketMainUserCollect@CAttemperEngineSink@@IAE_NGPAXG@Z@4JA
_DATA	SEGMENT
?__LINE__Var@?0??OnTCPSocketMainUserCollect@CAttemperEngineSink@@IAE_NGPAXG@Z@4JA DD 01361H ; `CAttemperEngineSink::OnTCPSocketMainUserCollect'::`1'::__LINE__Var
_DATA	ENDS
;	COMDAT ??_C@_0BF@OAHKEPFP@?$LE?$LE?$LN?$KI?$LH?$LP?$LM?d?$LC?N?J?$PN?$LC?$LL?U?$PN?H?$LH?$KD?$KB@
CONST	SEGMENT
??_C@_0BF@OAHKEPFP@?$LE?$LE?$LN?$KI?$LH?$LP?$LM?d?$LC?N?J?$PN?$LC?$LL?U?$PN?H?$LH?$KD?$KB@ DB 0b4H
	DB	0b4H, 0bdH, 0a8H, 0b7H, 0bfH, 0bcH, 0e4H, 0b2H, 0ceH, 0caH, 0fdH
	DB	0b2H, 0bbH, 0d5H, 0fdH, 0c8H, 0b7H, 0a3H, 0a1H, 00H ; `string'
CONST	ENDS
;	COMDAT ?__LINE__Var@?0??OnTCPSocketMainServiceInfo@CAttemperEngineSink@@IAE_NGPAXG@Z@4JA
_DATA	SEGMENT
?__LINE__Var@?0??OnTCPSocketMainServiceInfo@CAttemperEngineSink@@IAE_NGPAXG@Z@4JA DD 01266H ; `CAttemperEngineSink::OnTCPSocketMainServiceInfo'::`1'::__LINE__Var
_DATA	ENDS
;	COMDAT ?__LINE__Var@?0??OnTCPSocketMainPersonalRoomRegister@CAttemperEngineSink@@IAE_NGPAXG@Z@4JA
_DATA	SEGMENT
?__LINE__Var@?0??OnTCPSocketMainPersonalRoomRegister@CAttemperEngineSink@@IAE_NGPAXG@Z@4JA DD 01242H ; `CAttemperEngineSink::OnTCPSocketMainPersonalRoomRegister'::`1'::__LINE__Var
_DATA	ENDS
;	COMDAT ?__LINE__Var@?0??OnTCPSocketMainRegister@CAttemperEngineSink@@IAE_NGPAXG@Z@4JA
_DATA	SEGMENT
?__LINE__Var@?0??OnTCPSocketMainRegister@CAttemperEngineSink@@IAE_NGPAXG@Z@4JA DD 0121dH ; `CAttemperEngineSink::OnTCPSocketMainRegister'::`1'::__LINE__Var
_DATA	ENDS
;	COMDAT ?__LINE__Var@?0??OnDBCurrenceRoomCardAndBeant@CAttemperEngineSink@@IAE_NKPAXG@Z@4JA
_DATA	SEGMENT
?__LINE__Var@?0??OnDBCurrenceRoomCardAndBeant@CAttemperEngineSink@@IAE_NKPAXG@Z@4JA DD 0120bH ; `CAttemperEngineSink::OnDBCurrenceRoomCardAndBeant'::`1'::__LINE__Var
_DATA	ENDS
;	COMDAT ?__LINE__Var@?0??OnDBDissumeTableResult@CAttemperEngineSink@@IAE_NKPAXG@Z@4JA
_DATA	SEGMENT
?__LINE__Var@?0??OnDBDissumeTableResult@CAttemperEngineSink@@IAE_NKPAXG@Z@4JA DD 011e6H ; `CAttemperEngineSink::OnDBDissumeTableResult'::`1'::__LINE__Var
_DATA	ENDS
;	COMDAT ?__LINE__Var@?0??OnDBLoadPersonalParameter@CAttemperEngineSink@@IAE_NKPAXG@Z@4JA
_DATA	SEGMENT
?__LINE__Var@?0??OnDBLoadPersonalParameter@CAttemperEngineSink@@IAE_NKPAXG@Z@4JA DD 011c3H ; `CAttemperEngineSink::OnDBLoadPersonalParameter'::`1'::__LINE__Var
_DATA	ENDS
;	COMDAT ??_C@_0CJ@IPIKOHBH@?T?$LM?U?$LN?$LJ?f?$LG?$KI?$LP?$KK?J?$LM?J?$LB?$LM?d?$LF?$LN?N?$LE?$LP?$KK?J?$LM?S?N?O?$LH?$KD?$KM?S@
CONST	SEGMENT
??_C@_0CJ@IPIKOHBH@?T?$LM?U?$LN?$LJ?f?$LG?$KI?$LP?$KK?J?$LM?J?$LB?$LM?d?$LF?$LN?N?$LE?$LP?$KK?J?$LM?S?N?O?$LH?$KD?$KM?S@ DB 0d4H
	DB	0bcH, 0d5H, 0bdH, 0b9H, 0e6H, 0b6H, 0a8H, 0bfH, 0aaH, 0caH, 0bcH
	DB	0caH, 0b1H, 0bcH, 0e4H, 0b5H, 0bdH, 0ceH, 0b4H, 0bfH, 0aaH, 0caH
	DB	0bcH, 0d3H, 0ceH, 0cfH, 0b7H, 0a3H, 0acH, 0d3H, 0ceH, 0cfH, 0b7H
	DB	0bdH, 0e2H, 0c9H, 0a2H, 0a1H, 0a3H, 00H	; `string'
CONST	ENDS
;	COMDAT ??_C@_0BF@BBCEPGNP@?S?N?O?$LH?$LD?$KM?J?$LB?$KD?$KM?S?N?O?$LH?$LN?b?I?$KC?$KB?$KD@
CONST	SEGMENT
??_C@_0BF@BBCEPGNP@?S?N?O?$LH?$LD?$KM?J?$LB?$KD?$KM?S?N?O?$LH?$LN?b?I?$KC?$KB?$KD@ DB 0d3H
	DB	0ceH, 0cfH, 0b7H, 0b3H, 0acH, 0caH, 0b1H, 0a3H, 0acH, 0d3H, 0ceH
	DB	0cfH, 0b7H, 0bdH, 0e2H, 0c9H, 0a2H, 0a1H, 0a3H, 00H ; `string'
CONST	ENDS
;	COMDAT ??_C@_0CD@JHECHKJE@?$LH?$LP?V?w?M?K?$LD?v?S?N?O?$LH?$LL?r?S?N?O?$LH?$LD?$KM?J?$LB?$KD?$KM?S?N?O?$LH?$LN?b?I@
CONST	SEGMENT
??_C@_0CD@JHECHKJE@?$LH?$LP?V?w?M?K?$LD?v?S?N?O?$LH?$LL?r?S?N?O?$LH?$LD?$KM?J?$LB?$KD?$KM?S?N?O?$LH?$LN?b?I@ DB 0b7H
	DB	0bfH, 0d6H, 0f7H, 0cdH, 0cbH, 0b3H, 0f6H, 0d3H, 0ceH, 0cfH, 0b7H
	DB	0bbH, 0f2H, 0d3H, 0ceH, 0cfH, 0b7H, 0b3H, 0acH, 0caH, 0b1H, 0a3H
	DB	0acH, 0d3H, 0ceH, 0cfH, 0b7H, 0bdH, 0e2H, 0c9H, 0a2H, 0a1H, 0a3H
	DB	00H						; `string'
CONST	ENDS
;	COMDAT ??_C@_0BL@EKGKFEBG@?S?N?O?$LH?N?$LE?$LP?$KK?J?$LM?$KD?$KM?S?N?O?$LH?W?T?$LG?$KP?$LN?b?I?$KC?$KB?$KD@
CONST	SEGMENT
??_C@_0BL@EKGKFEBG@?S?N?O?$LH?N?$LE?$LP?$KK?J?$LM?$KD?$KM?S?N?O?$LH?W?T?$LG?$KP?$LN?b?I?$KC?$KB?$KD@ DB 0d3H
	DB	0ceH, 0cfH, 0b7H, 0ceH, 0b4H, 0bfH, 0aaH, 0caH, 0bcH, 0a3H, 0acH
	DB	0d3H, 0ceH, 0cfH, 0b7H, 0d7H, 0d4H, 0b6H, 0afH, 0bdH, 0e2H, 0c9H
	DB	0a2H, 0a1H, 0a3H, 00H			; `string'
CONST	ENDS
;	COMDAT ??_C@_0P@LGKLJHBF@?S?N?O?$LH?W?T?$LG?$KP?$LN?b?I?$KC?$KB?$KD@
CONST	SEGMENT
??_C@_0P@LGKLJHBF@?S?N?O?$LH?W?T?$LG?$KP?$LN?b?I?$KC?$KB?$KD@ DB 0d3H, 0ceH
	DB	0cfH, 0b7H, 0d7H, 0d4H, 0b6H, 0afH, 0bdH, 0e2H, 0c9H, 0a2H, 0a1H
	DB	0a3H, 00H					; `string'
CONST	ENDS
;	COMDAT ?__LINE__Var@?0??OnDBCancelCreateTable@CAttemperEngineSink@@IAE_NKPAXG@Z@4JA
_DATA	SEGMENT
?__LINE__Var@?0??OnDBCancelCreateTable@CAttemperEngineSink@@IAE_NKPAXG@Z@4JA DD 01170H ; `CAttemperEngineSink::OnDBCancelCreateTable'::`1'::__LINE__Var
_DATA	ENDS
;	COMDAT ?__LINE__Var@?0??OnDBCreateFailure@CAttemperEngineSink@@IAE_NKPAXG@Z@4JA
_DATA	SEGMENT
?__LINE__Var@?0??OnDBCreateFailure@CAttemperEngineSink@@IAE_NKPAXG@Z@4JA DD 01151H ; `CAttemperEngineSink::OnDBCreateFailure'::`1'::__LINE__Var
_DATA	ENDS
;	COMDAT ??_C@_0BB@LPANEFD@?$LE?$LE?$LN?$KI?W?$MA?W?S?W?x?O?B?J?$KH?$LA?$NM@
CONST	SEGMENT
??_C@_0BB@LPANEFD@?$LE?$LE?$LN?$KI?W?$MA?W?S?W?x?O?B?J?$KH?$LA?$NM@ DB 0b4H
	DB	0b4H, 0bdH, 0a8H, 0d7H, 0c0H, 0d7H, 0d3H, 0d7H, 0f8H, 0cfH, 0c2H
	DB	0caH, 0a7H, 0b0H, 0dcH, 00H			; `string'
CONST	ENDS
;	COMDAT ?__LINE__Var@?0??OnDBCreateSucess@CAttemperEngineSink@@IAE_NKPAXG@Z@4JA
_DATA	SEGMENT
?__LINE__Var@?0??OnDBCreateSucess@CAttemperEngineSink@@IAE_NKPAXG@Z@4JA DD 010afH ; `CAttemperEngineSink::OnDBCreateSucess'::`1'::__LINE__Var
_DATA	ENDS
;	COMDAT ?__LINE__Var@?0??OnDBPCGrowLevelUpgrade@CAttemperEngineSink@@IAE_NKPAXG@Z@4JA
_DATA	SEGMENT
?__LINE__Var@?0??OnDBPCGrowLevelUpgrade@CAttemperEngineSink@@IAE_NKPAXG@Z@4JA DD 01085H ; `CAttemperEngineSink::OnDBPCGrowLevelUpgrade'::`1'::__LINE__Var
_DATA	ENDS
;	COMDAT ?__LINE__Var@?0??OnDBPCGrowLevelParameter@CAttemperEngineSink@@IAE_NKPAXG@Z@4JA
_DATA	SEGMENT
?__LINE__Var@?0??OnDBPCGrowLevelParameter@CAttemperEngineSink@@IAE_NKPAXG@Z@4JA DD 01069H ; `CAttemperEngineSink::OnDBPCGrowLevelParameter'::`1'::__LINE__Var
_DATA	ENDS
;	COMDAT ?__LINE__Var@?0??OnDBSystemMessage@CAttemperEngineSink@@IAE_NKPAXG@Z@4JA
_DATA	SEGMENT
?__LINE__Var@?0??OnDBSystemMessage@CAttemperEngineSink@@IAE_NKPAXG@Z@4JA DD 01007H ; `CAttemperEngineSink::OnDBSystemMessage'::`1'::__LINE__Var
_DATA	ENDS
;	COMDAT ?__LINE__Var@?0??OnDBUserTaskResult@CAttemperEngineSink@@IAE_NKPAXG@Z@4JA
_DATA	SEGMENT
?__LINE__Var@?0??OnDBUserTaskResult@CAttemperEngineSink@@IAE_NKPAXG@Z@4JA DD 0fc1H ; `CAttemperEngineSink::OnDBUserTaskResult'::`1'::__LINE__Var
_DATA	ENDS
;	COMDAT ?__LINE__Var@?0??OnDBUserTaskInfo@CAttemperEngineSink@@IAE_NKPAXG@Z@4JA
_DATA	SEGMENT
?__LINE__Var@?0??OnDBUserTaskInfo@CAttemperEngineSink@@IAE_NKPAXG@Z@4JA DD 0f74H ; `CAttemperEngineSink::OnDBUserTaskInfo'::`1'::__LINE__Var
_DATA	ENDS
;	COMDAT ?__LINE__Var@?0??OnDBPCBaseEnsureResult@CAttemperEngineSink@@IAE_NKPAXG@Z@4JA
_DATA	SEGMENT
?__LINE__Var@?0??OnDBPCBaseEnsureResult@CAttemperEngineSink@@IAE_NKPAXG@Z@4JA DD 0f36H ; `CAttemperEngineSink::OnDBPCBaseEnsureResult'::`1'::__LINE__Var
_DATA	ENDS
;	COMDAT ?__LINE__Var@?0??OnDBPCCheckInReward@CAttemperEngineSink@@IAE_NKPAXG@Z@4JA
_DATA	SEGMENT
?__LINE__Var@?0??OnDBPCCheckInReward@CAttemperEngineSink@@IAE_NKPAXG@Z@4JA DD 0f0dH ; `CAttemperEngineSink::OnDBPCCheckInReward'::`1'::__LINE__Var
_DATA	ENDS
;	COMDAT ?__LINE__Var@?0??OnDBPCUserCheckInResult@CAttemperEngineSink@@IAE_NKPAXG@Z@4JA
_DATA	SEGMENT
?__LINE__Var@?0??OnDBPCUserCheckInResult@CAttemperEngineSink@@IAE_NKPAXG@Z@4JA DD 0ee9H ; `CAttemperEngineSink::OnDBPCUserCheckInResult'::`1'::__LINE__Var
_DATA	ENDS
;	COMDAT ?__LINE__Var@?0??OnDBExChangeResult@CAttemperEngineSink@@IAE_NKPAXG@Z@4JA
_DATA	SEGMENT
?__LINE__Var@?0??OnDBExChangeResult@CAttemperEngineSink@@IAE_NKPAXG@Z@4JA DD 0e9dH ; `CAttemperEngineSink::OnDBExChangeResult'::`1'::__LINE__Var
_DATA	ENDS
;	COMDAT ?__LINE__Var@?0??OnDBPurchaseResult@CAttemperEngineSink@@IAE_NKPAXG@Z@4JA
_DATA	SEGMENT
?__LINE__Var@?0??OnDBPurchaseResult@CAttemperEngineSink@@IAE_NKPAXG@Z@4JA DD 0e60H ; `CAttemperEngineSink::OnDBPurchaseResult'::`1'::__LINE__Var
_DATA	ENDS
;	COMDAT ?__LINE__Var@?0??OnDBGamePropertyBuy@CAttemperEngineSink@@IAE_NKPAXG@Z@4JA
_DATA	SEGMENT
?__LINE__Var@?0??OnDBGamePropertyBuy@CAttemperEngineSink@@IAE_NKPAXG@Z@4JA DD 0da4H ; `CAttemperEngineSink::OnDBGamePropertyBuy'::`1'::__LINE__Var
_DATA	ENDS
;	COMDAT ?__LINE__Var@?0??OnDBPropertyFailure@CAttemperEngineSink@@IAE_NKPAXG@Z@4JA
_DATA	SEGMENT
?__LINE__Var@?0??OnDBPropertyFailure@CAttemperEngineSink@@IAE_NKPAXG@Z@4JA DD 0d90H ; `CAttemperEngineSink::OnDBPropertyFailure'::`1'::__LINE__Var
_DATA	ENDS
;	COMDAT ?__LINE__Var@?0??OnDBPropertySuccess@CAttemperEngineSink@@IAE_NKPAXG@Z@4JA
_DATA	SEGMENT
?__LINE__Var@?0??OnDBPropertySuccess@CAttemperEngineSink@@IAE_NKPAXG@Z@4JA DD 0d12H ; `CAttemperEngineSink::OnDBPropertySuccess'::`1'::__LINE__Var
_DATA	ENDS
;	COMDAT ?__LINE__Var@?0??OnDBUserInsureEnableResult@CAttemperEngineSink@@IAE_NKPAXG@Z@4JA
_DATA	SEGMENT
?__LINE__Var@?0??OnDBUserInsureEnableResult@CAttemperEngineSink@@IAE_NKPAXG@Z@4JA DD 0cf2H ; `CAttemperEngineSink::OnDBUserInsureEnableResult'::`1'::__LINE__Var
_DATA	ENDS
;	COMDAT ?__LINE__Var@?0??OnDBUserInsureUserInfo@CAttemperEngineSink@@IAE_NKPAXG@Z@4JA
_DATA	SEGMENT
?__LINE__Var@?0??OnDBUserInsureUserInfo@CAttemperEngineSink@@IAE_NKPAXG@Z@4JA DD 0cd5H ; `CAttemperEngineSink::OnDBUserInsureUserInfo'::`1'::__LINE__Var
_DATA	ENDS
;	COMDAT ?__LINE__Var@?0??OnDBUserInsureFailure@CAttemperEngineSink@@IAE_NKPAXG@Z@4JA
_DATA	SEGMENT
?__LINE__Var@?0??OnDBUserInsureFailure@CAttemperEngineSink@@IAE_NKPAXG@Z@4JA DD 0cb8H ; `CAttemperEngineSink::OnDBUserInsureFailure'::`1'::__LINE__Var
_DATA	ENDS
;	COMDAT ?__LINE__Var@?0??OnDBUserInsureSuccess@CAttemperEngineSink@@IAE_NKPAXG@Z@4JA
_DATA	SEGMENT
?__LINE__Var@?0??OnDBUserInsureSuccess@CAttemperEngineSink@@IAE_NKPAXG@Z@4JA DD 0c84H ; `CAttemperEngineSink::OnDBUserInsureSuccess'::`1'::__LINE__Var
_DATA	ENDS
;	COMDAT ?__LINE__Var@?0??OnDBUserInsureInfo@CAttemperEngineSink@@IAE_NKPAXG@Z@4JA
_DATA	SEGMENT
?__LINE__Var@?0??OnDBUserInsureInfo@CAttemperEngineSink@@IAE_NKPAXG@Z@4JA DD 0c5eH ; `CAttemperEngineSink::OnDBUserInsureInfo'::`1'::__LINE__Var
_DATA	ENDS
;	COMDAT ?__LINE__Var@?0??OnDBPCMemberDayGiftResult@CAttemperEngineSink@@IAE_NKPAXG@Z@4JA
_DATA	SEGMENT
?__LINE__Var@?0??OnDBPCMemberDayGiftResult@CAttemperEngineSink@@IAE_NKPAXG@Z@4JA DD 0c44H ; `CAttemperEngineSink::OnDBPCMemberDayGiftResult'::`1'::__LINE__Var
_DATA	ENDS
;	COMDAT ?__LINE__Var@?0??OnDBPCMemberDayPresentResult@CAttemperEngineSink@@IAE_NKPAXG@Z@4JA
_DATA	SEGMENT
?__LINE__Var@?0??OnDBPCMemberDayPresentResult@CAttemperEngineSink@@IAE_NKPAXG@Z@4JA DD 0c21H ; `CAttemperEngineSink::OnDBPCMemberDayPresentResult'::`1'::__LINE__Var
_DATA	ENDS
;	COMDAT ?__LINE__Var@?0??OnDBPCMemberDayQueryInfoResult@CAttemperEngineSink@@IAE_NKPAXG@Z@4JA
_DATA	SEGMENT
?__LINE__Var@?0??OnDBPCMemberDayQueryInfoResult@CAttemperEngineSink@@IAE_NKPAXG@Z@4JA DD 0c04H ; `CAttemperEngineSink::OnDBPCMemberDayQueryInfoResult'::`1'::__LINE__Var
_DATA	ENDS
;	COMDAT ?__LINE__Var@?0??OnDBGamePropertyBuff@CAttemperEngineSink@@IAE_NKPAXG@Z@4JA
_DATA	SEGMENT
?__LINE__Var@?0??OnDBGamePropertyBuff@CAttemperEngineSink@@IAE_NKPAXG@Z@4JA DD 0ba5H ; `CAttemperEngineSink::OnDBGamePropertyBuff'::`1'::__LINE__Var
_DATA	ENDS
;	COMDAT ?__LINE__Var@?0??OnDBGameAndroidParameter@CAttemperEngineSink@@IAE_NKPAXG@Z@4JA
_DATA	SEGMENT
?__LINE__Var@?0??OnDBGameAndroidParameter@CAttemperEngineSink@@IAE_NKPAXG@Z@4JA DD 0b91H ; `CAttemperEngineSink::OnDBGameAndroidParameter'::`1'::__LINE__Var
_DATA	ENDS
;	COMDAT ?__LINE__Var@?0??OnDBGameAndroidInfo@CAttemperEngineSink@@IAE_NKPAXG@Z@4JA
_DATA	SEGMENT
?__LINE__Var@?0??OnDBGameAndroidInfo@CAttemperEngineSink@@IAE_NKPAXG@Z@4JA DD 0b7dH ; `CAttemperEngineSink::OnDBGameAndroidInfo'::`1'::__LINE__Var
_DATA	ENDS
;	COMDAT ?__LINE__Var@?0??OnDBGameColumnInfo@CAttemperEngineSink@@IAE_NKPAXG@Z@4JA
_DATA	SEGMENT
?__LINE__Var@?0??OnDBGameColumnInfo@CAttemperEngineSink@@IAE_NKPAXG@Z@4JA DD 0b63H ; `CAttemperEngineSink::OnDBGameColumnInfo'::`1'::__LINE__Var
_DATA	ENDS
;	COMDAT ??_C@_0DH@PICEIPLI@?F?$LN?L?$KI?J?$PN?$LO?$NN?$LP?b?$LH?$PO?N?q?W?i?$LM?$PO?$LA?f?$LB?$LO?W?$KC?$LC?a?P?E?O?$KC?S@
CONST	SEGMENT
??_C@_0DH@PICEIPLI@?F?$LN?L?$KI?J?$PN?$LO?$NN?$LP?b?$LH?$PO?N?q?W?i?$LM?$PO?$LA?f?$LB?$LO?W?$KC?$LC?a?P?E?O?$KC?S@ DB 0c6H
	DB	0bdH, 0ccH, 0a8H, 0caH, 0fdH, 0beH, 0ddH, 0bfH, 0e2H, 0b7H, 0feH
	DB	0ceH, 0f1H, 0d7H, 0e9H, 0bcH, 0feH, 0b0H, 0e6H, 0b1H, 0beH, 0d7H
	DB	0a2H, 0b2H, 0e1H, 0d0H, 0c5H, 0cfH, 0a2H, 0d3H, 0ebH, 0b5H, 0b1H
	DB	0c7H, 0b0H, 0d7H, 0e9H, 0bcH, 0feH, 0b0H, 0e6H, 0b1H, 0beH, 0d0H
	DB	0c5H, 0cfH, 0a2H, 0b2H, 0bbH, 0d2H, 0bbH, 0d6H, 0c2H, 00H ; `string'
CONST	ENDS
;	COMDAT ?__LINE__Var@?0??OnDBGameParameter@CAttemperEngineSink@@IAE_NKPAXG@Z@4JA
_DATA	SEGMENT
?__LINE__Var@?0??OnDBGameParameter@CAttemperEngineSink@@IAE_NKPAXG@Z@4JA DD 0b2eH ; `CAttemperEngineSink::OnDBGameParameter'::`1'::__LINE__Var
_DATA	ENDS
;	COMDAT ??_C@_0DD@EDDOLGC@?$LB?$KH?G?$LI?$KD?$KM?S?I?S?Z?$LE?K?$LH?$LP?$LM?d?R?Q?$LO?$KN?H?K?B?z?$KD?$KM?F?U?M?$KI?M@
CONST	SEGMENT
??_C@_0DD@EDDOLGC@?$LB?$KH?G?$LI?$KD?$KM?S?I?S?Z?$LE?K?$LH?$LP?$LM?d?R?Q?$LO?$KN?H?K?B?z?$KD?$KM?F?U?M?$KI?M@ DB 0b1H
	DB	0a7H, 0c7H, 0b8H, 0a3H, 0acH, 0d3H, 0c9H, 0d3H, 0daH, 0b4H, 0cbH
	DB	0b7H, 0bfH, 0bcH, 0e4H, 0d2H, 0d1H, 0beH, 0adH, 0c8H, 0cbH, 0c2H
	DB	0faH, 0a3H, 0acH, 0c6H, 0d5H, 0cdH, 0a8H, 0cdH, 0e6H, 0bcH, 0d2H
	DB	0b2H, 0bbH, 0c4H, 0dcH, 0bcH, 0ccH, 0d0H, 0f8H, 0bdH, 0f8H, 0c8H
	DB	0ebH, 0c1H, 0cbH, 0a3H, 0a1H, 00H		; `string'
CONST	ENDS
;	COMDAT ??_C@_0EN@HOOHFPLN@?$LB?$KH?G?$LI?$KD?$KM?D?z?$LF?D?$LL?a?T?$LB?$LM?$LG?$LB?p?$LI?$NP?S?Z?$LF?$LB?G?$LA?S?N?O?$LH?$LH@
CONST	SEGMENT
??_C@_0EN@HOOHFPLN@?$LB?$KH?G?$LI?$KD?$KM?D?z?$LF?D?$LL?a?T?$LB?$LM?$LG?$LB?p?$LI?$NP?S?Z?$LF?$LB?G?$LA?S?N?O?$LH?$LH@ DB 0b1H
	DB	0a7H, 0c7H, 0b8H, 0a3H, 0acH, 0c4H, 0faH, 0b5H, 0c4H, 0bbH, 0e1H
	DB	0d4H, 0b1H, 0bcH, 0b6H, 0b1H, 0f0H, 0b8H, 0dfH, 0d3H, 0daH, 0b5H
	DB	0b1H, 0c7H, 0b0H, 0d3H, 0ceH, 0cfH, 0b7H, 0b7H, 0bfH, 0bcH, 0e4H
	DB	0b5H, 0c4H, 0d7H, 0eeH, 0b8H, 0dfH, 0bdH, 0f8H, 0c8H, 0ebH, 0bbH
	DB	0e1H, 0d4H, 0b1H, 0ccH, 0f5H, 0bcH, 0feH, 0a3H, 0acH, 0b2H, 0bbH
	DB	0c4H, 0dcH, 0bdH, 0f8H, 0c8H, 0ebH, 0b5H, 0b1H, 0c7H, 0b0H, 0d3H
	DB	0ceH, 0cfH, 0b7H, 0b7H, 0bfH, 0bcH, 0e4H, 0a3H, 0a1H, 00H ; `string'
CONST	ENDS
;	COMDAT ??_C@_0EN@LEGFOBHM@?$LB?$KH?G?$LI?$KD?$KM?D?z?$LF?D?$LL?a?T?$LB?$LM?$LG?$LB?p?$LF?M?S?Z?$LF?$LB?G?$LA?S?N?O?$LH?$LH@
CONST	SEGMENT
??_C@_0EN@LEGFOBHM@?$LB?$KH?G?$LI?$KD?$KM?D?z?$LF?D?$LL?a?T?$LB?$LM?$LG?$LB?p?$LF?M?S?Z?$LF?$LB?G?$LA?S?N?O?$LH?$LH@ DB 0b1H
	DB	0a7H, 0c7H, 0b8H, 0a3H, 0acH, 0c4H, 0faH, 0b5H, 0c4H, 0bbH, 0e1H
	DB	0d4H, 0b1H, 0bcH, 0b6H, 0b1H, 0f0H, 0b5H, 0cdH, 0d3H, 0daH, 0b5H
	DB	0b1H, 0c7H, 0b0H, 0d3H, 0ceH, 0cfH, 0b7H, 0b7H, 0bfH, 0bcH, 0e4H
	DB	0b5H, 0c4H, 0d7H, 0eeH, 0b5H, 0cdH, 0bdH, 0f8H, 0c8H, 0ebH, 0bbH
	DB	0e1H, 0d4H, 0b1H, 0ccH, 0f5H, 0bcH, 0feH, 0a3H, 0acH, 0b2H, 0bbH
	DB	0c4H, 0dcH, 0bdH, 0f8H, 0c8H, 0ebH, 0b5H, 0b1H, 0c7H, 0b0H, 0d3H
	DB	0ceH, 0cfH, 0b7H, 0b7H, 0bfH, 0bcH, 0e4H, 0a3H, 0a1H, 00H ; `string'
CONST	ENDS
;	COMDAT ??_C@_0EO@DKDPOCDP@?$LB?$KH?G?$LI?$KD?$KM?D?z?$LF?D?S?N?O?$LH?$LD?I?$LM?$KI?$LI?$NP?S?Z?$LF?$LB?G?$LA?S?N?O?$LH?$LH@
CONST	SEGMENT
??_C@_0EO@DKDPOCDP@?$LB?$KH?G?$LI?$KD?$KM?D?z?$LF?D?S?N?O?$LH?$LD?I?$LM?$KI?$LI?$NP?S?Z?$LF?$LB?G?$LA?S?N?O?$LH?$LH@ DB 0b1H
	DB	0a7H, 0c7H, 0b8H, 0a3H, 0acH, 0c4H, 0faH, 0b5H, 0c4H, 0d3H, 0ceH
	DB	0cfH, 0b7H, 0b3H, 0c9H, 0bcH, 0a8H, 0b8H, 0dfH, 0d3H, 0daH, 0b5H
	DB	0b1H, 0c7H, 0b0H, 0d3H, 0ceH, 0cfH, 0b7H, 0b7H, 0bfH, 0bcH, 0e4H
	DB	0b5H, 0c4H, 0d7H, 0eeH, 0b8H, 0dfH, 0bdH, 0f8H, 0c8H, 0ebH, 0b3H
	DB	0c9H, 0bcH, 0a8H, '%I64d', 0a3H, 0acH, 0b2H, 0bbH, 0c4H, 0dcH, 0bdH
	DB	0f8H, 0c8H, 0ebH, 0b5H, 0b1H, 0c7H, 0b0H, 0d3H, 0ceH, 0cfH, 0b7H
	DB	0b7H, 0bfH, 0bcH, 0e4H, 0a3H, 0a1H, 00H	; `string'
CONST	ENDS
;	COMDAT ??_C@_0EO@NGJGJCKH@?$LB?$KH?G?$LI?$KD?$KM?D?z?$LF?D?S?N?O?$LH?$LD?I?$LM?$KI?$LF?M?S?Z?$LF?$LB?G?$LA?S?N?O?$LH?$LH@
CONST	SEGMENT
??_C@_0EO@NGJGJCKH@?$LB?$KH?G?$LI?$KD?$KM?D?z?$LF?D?S?N?O?$LH?$LD?I?$LM?$KI?$LF?M?S?Z?$LF?$LB?G?$LA?S?N?O?$LH?$LH@ DB 0b1H
	DB	0a7H, 0c7H, 0b8H, 0a3H, 0acH, 0c4H, 0faH, 0b5H, 0c4H, 0d3H, 0ceH
	DB	0cfH, 0b7H, 0b3H, 0c9H, 0bcH, 0a8H, 0b5H, 0cdH, 0d3H, 0daH, 0b5H
	DB	0b1H, 0c7H, 0b0H, 0d3H, 0ceH, 0cfH, 0b7H, 0b7H, 0bfH, 0bcH, 0e4H
	DB	0b5H, 0c4H, 0d7H, 0eeH, 0b5H, 0cdH, 0bdH, 0f8H, 0c8H, 0ebH, 0b3H
	DB	0c9H, 0bcH, 0a8H, '%I64d', 0a3H, 0acH, 0b2H, 0bbH, 0c4H, 0dcH, 0bdH
	DB	0f8H, 0c8H, 0ebH, 0b5H, 0b1H, 0c7H, 0b0H, 0d3H, 0ceH, 0cfH, 0b7H
	DB	0b7H, 0bfH, 0bcH, 0e4H, 0a3H, 0a1H, 00H	; `string'
CONST	ENDS
;	COMDAT ??_C@_0DF@CKMKCLBK@?$LB?$KH?G?$LI?$KD?$KM?S?I?S?Z?O?$LF?M?$LD?N?$KM?$LL?$KE?$LF?D?T?$KN?R?r?$KD?$KM?$LF?$LB?G?$LA?S@
CONST	SEGMENT
??_C@_0DF@CKMKCLBK@?$LB?$KH?G?$LI?$KD?$KM?S?I?S?Z?O?$LF?M?$LD?N?$KM?$LL?$KE?$LF?D?T?$KN?R?r?$KD?$KM?$LF?$LB?G?$LA?S@ DB 0b1H
	DB	0a7H, 0c7H, 0b8H, 0a3H, 0acH, 0d3H, 0c9H, 0d3H, 0daH, 0cfH, 0b5H
	DB	0cdH, 0b3H, 0ceH, 0acH, 0bbH, 0a4H, 0b5H, 0c4H, 0d4H, 0adH, 0d2H
	DB	0f2H, 0a3H, 0acH, 0b5H, 0b1H, 0c7H, 0b0H, 0d3H, 0ceH, 0cfH, 0b7H
	DB	0b7H, 0bfH, 0bcH, 0e4H, 0bdH, 0fbH, 0d6H, 0b9H, 0d3H, 0c3H, 0bbH
	DB	0a7H, 0bdH, 0f8H, 0c8H, 0ebH, 0a3H, 0a1H, 00H ; `string'
CONST	ENDS
;	COMDAT ??_C@_0CJ@GMGBIJBK@?D?z?R?Q?$LB?$LL?$LJ?$NM?$MA?m?T?$LB?G?k?$LD?v?$LH?$LP?$LM?d?01?P?$KB?J?$LB?V?$KO?D?Z?$LC@
CONST	SEGMENT
??_C@_0CJ@GMGBIJBK@?D?z?R?Q?$LB?$LL?$LJ?$NM?$MA?m?T?$LB?G?k?$LD?v?$LH?$LP?$LM?d?01?P?$KB?J?$LB?V?$KO?D?Z?$LC@ DB 0c4H
	DB	0faH, 0d2H, 0d1H, 0b1H, 0bbH, 0b9H, 0dcH, 0c0H, 0edH, 0d4H, 0b1H
	DB	0c7H, 0ebH, 0b3H, 0f6H, 0b7H, 0bfH, 0bcH, 0e4H, ',1', 0d0H, 0a1H
	DB	0caH, 0b1H, 0d6H, 0aeH, 0c4H, 0daH, 0b2H, 0bbH, 0c4H, 0dcH, 0bdH
	DB	0f8H, 0c8H, 0ebH, 0a3H, 0a1H, 00H		; `string'
CONST	ENDS
;	COMDAT ?__LINE__Var@?0??OnDBLogonSuccess@CAttemperEngineSink@@IAE_NKPAXG@Z@4JA
_DATA	SEGMENT
?__LINE__Var@?0??OnDBLogonSuccess@CAttemperEngineSink@@IAE_NKPAXG@Z@4JA DD 09cfH ; `CAttemperEngineSink::OnDBLogonSuccess'::`1'::__LINE__Var
_DATA	ENDS
;	COMDAT ?__LINE__Var@?0??OnEventUserItemGameData@CAttemperEngineSink@@UAE_NPAUIServerUserItem@@E@Z@4JA
_DATA	SEGMENT
?__LINE__Var@?0??OnEventUserItemGameData@CAttemperEngineSink@@UAE_NPAUIServerUserItem@@E@Z@4JA DD 09a5H ; `CAttemperEngineSink::OnEventUserItemGameData'::`1'::__LINE__Var
_DATA	ENDS
;	COMDAT ?__LINE__Var@?0??OnEventUserItemRight@CAttemperEngineSink@@UAE_NPAUIServerUserItem@@KKE@Z@4JA
_DATA	SEGMENT
?__LINE__Var@?0??OnEventUserItemRight@CAttemperEngineSink@@UAE_NPAUIServerUserItem@@KKE@Z@4JA DD 098eH ; `CAttemperEngineSink::OnEventUserItemRight'::`1'::__LINE__Var
_DATA	ENDS
;	COMDAT ?__LINE__Var@?0??OnEventUserItemStatus@CAttemperEngineSink@@UAE_NPAUIServerUserItem@@GG@Z@4JA
_DATA	SEGMENT
?__LINE__Var@?0??OnEventUserItemStatus@CAttemperEngineSink@@UAE_NPAUIServerUserItem@@GG@Z@4JA DD 091aH ; `CAttemperEngineSink::OnEventUserItemStatus'::`1'::__LINE__Var
_DATA	ENDS
;	COMDAT ?__LINE__Var@?0??OnEventUserItemScore@CAttemperEngineSink@@UAE_NPAUIServerUserItem@@E@Z@4JA
_DATA	SEGMENT
?__LINE__Var@?0??OnEventUserItemScore@CAttemperEngineSink@@UAE_NPAUIServerUserItem@@E@Z@4JA DD 0866H ; `CAttemperEngineSink::OnEventUserItemScore'::`1'::__LINE__Var
_DATA	ENDS
;	COMDAT ?__LINE__Var@?0??SendData@CAttemperEngineSink@@UAE_NPAUIServerUserItem@@GGPAXG@Z@4JA
_DATA	SEGMENT
?__LINE__Var@?0??SendData@CAttemperEngineSink@@UAE_NPAUIServerUserItem@@GGPAXG@Z@4JA DD 07e0H ; `CAttemperEngineSink::SendData'::`1'::__LINE__Var
_DATA	ENDS
;	COMDAT ?__LINE__Var@?0??SendGameMessage@CAttemperEngineSink@@UAE_NPAUIServerUserItem@@PBDG@Z@4JA
_DATA	SEGMENT
?__LINE__Var@?0??SendGameMessage@CAttemperEngineSink@@UAE_NPAUIServerUserItem@@PBDG@Z@4JA DD 0761H ; `CAttemperEngineSink::SendGameMessage'::`1'::__LINE__Var
_DATA	ENDS
;	COMDAT ?__LINE__Var@?0??SendRoomMessage@CAttemperEngineSink@@UAE_NPAUIServerUserItem@@PBDG@Z@4JA
_DATA	SEGMENT
?__LINE__Var@?0??SendRoomMessage@CAttemperEngineSink@@UAE_NPAUIServerUserItem@@PBDG@Z@4JA DD 072dH ; `CAttemperEngineSink::SendRoomMessage'::`1'::__LINE__Var
_DATA	ENDS
;	COMDAT ??_C@_0CA@BDDILDFJ@MDM_GF_FRAME?5?$LP?r?$LM?$NM?C?$PM?A?n?$LH?$LF?$LL?X?5false@
CONST	SEGMENT
??_C@_0CA@BDDILDFJ@MDM_GF_FRAME?5?$LP?r?$LM?$NM?C?$PM?A?n?$LH?$LF?$LL?X?5false@ DB 'M'
	DB	'DM_GF_FRAME ', 0bfH, 0f2H, 0bcH, 0dcH, 0c3H, 0fcH, 0c1H, 0eeH
	DB	0b7H, 0b5H, 0bbH, 0d8H, ' false', 00H	; `string'
CONST	ENDS
;	COMDAT ??_C@_0DG@GPBCOFJG@?S?N?O?$LH?C?$PM?A?n?$LH?$LF?$LL?X?5false?5?5?5wMainCmdID@
CONST	SEGMENT
??_C@_0DG@GPBCOFJG@?S?N?O?$LH?C?$PM?A?n?$LH?$LF?$LL?X?5false?5?5?5wMainCmdID@ DB 0d3H
	DB	0ceH, 0cfH, 0b7H, 0c3H, 0fcH, 0c1H, 0eeH, 0b7H, 0b5H, 0bbH, 0d8H
	DB	' false   wMainCmdID = %d  wSubCmdID = %d ', 00H ; `string'
CONST	ENDS
;	COMDAT ??_C@_0EC@EPLGCFIG@?$LL?a?$LH?$KC?I?z?R?l?$LD?$KD?$LF?D?O?$PL?O?$KC?3?5Command?4wMain@
CONST	SEGMENT
??_C@_0EC@EPLGCFIG@?$LL?a?$LH?$KC?I?z?R?l?$LD?$KD?$LF?D?O?$PL?O?$KC?3?5Command?4wMain@ DB 0bbH
	DB	0e1H, 0b7H, 0a2H, 0c9H, 0faH, 0d2H, 0ecH, 0b3H, 0a3H, 0b5H, 0c4H
	DB	0cfH, 0fbH, 0cfH, 0a2H, ': Command.wMainCmdID =%d   Command.wS'
	DB	'ubCmdID = %d', 00H				; `string'
CONST	ENDS
;	COMDAT ??_C@_0BK@KGOAMGLA@?$LJ?X?$LB?U?A?$KM?$LN?S?R?l?$LD?$KD?3?5wTableID?$DN?$CFd@
CONST	SEGMENT
??_C@_0BK@KGOAMGLA@?$LJ?X?$LB?U?A?$KM?$LN?S?R?l?$LD?$KD?3?5wTableID?$DN?$CFd@ DB 0b9H
	DB	0d8H, 0b1H, 0d5H, 0c1H, 0acH, 0bdH, 0d3H, 0d2H, 0ecH, 0b3H, 0a3H
	DB	': wTableID=%d', 00H				; `string'
CONST	ENDS
;	COMDAT ?__LINE__Var@?0??OnEventTCPNetworkShut@CAttemperEngineSink@@UAE_NKKK@Z@4JA
_DATA	SEGMENT
?__LINE__Var@?0??OnEventTCPNetworkShut@CAttemperEngineSink@@UAE_NKKK@Z@4JA DD 066aH ; `CAttemperEngineSink::OnEventTCPNetworkShut'::`1'::__LINE__Var
_DATA	ENDS
;	COMDAT ?__LINE__Var@?0??OnEventTCPNetworkBind@CAttemperEngineSink@@UAE_NKK@Z@4JA
_DATA	SEGMENT
?__LINE__Var@?0??OnEventTCPNetworkBind@CAttemperEngineSink@@UAE_NKK@Z@4JA DD 0653H ; `CAttemperEngineSink::OnEventTCPNetworkBind'::`1'::__LINE__Var
_DATA	ENDS
;	COMDAT ?__LINE__Var@?0??OnEventTCPSocketRead@CAttemperEngineSink@@UAE_NGUTCP_Command@@PAXG@Z@4JA
_DATA	SEGMENT
?__LINE__Var@?0??OnEventTCPSocketRead@CAttemperEngineSink@@UAE_NGUTCP_Command@@PAXG@Z@4JA DD 0615H ; `CAttemperEngineSink::OnEventTCPSocketRead'::`1'::__LINE__Var
_DATA	ENDS
;	COMDAT ??_C@_0CP@IEGHCDCN@?T?$LM?U?$LN?$LH?$PO?N?q?F?w?A?$KM?$LN?S?J?$KH?$LA?$NM?5?$FL?5?$CFld?5?$FN?$KD?$KM?$CFld@
CONST	SEGMENT
??_C@_0CP@IEGHCDCN@?T?$LM?U?$LN?$LH?$PO?N?q?F?w?A?$KM?$LN?S?J?$KH?$LA?$NM?5?$FL?5?$CFld?5?$FN?$KD?$KM?$CFld@ DB 0d4H
	DB	0bcH, 0d5H, 0bdH, 0b7H, 0feH, 0ceH, 0f1H, 0c6H, 0f7H, 0c1H, 0acH
	DB	0bdH, 0d3H, 0caH, 0a7H, 0b0H, 0dcH, ' [ %ld ]', 0a3H, 0acH, '%'
	DB	'ld ', 0c3H, 0ebH, 0baH, 0f3H, 0bdH, 0abH, 0d6H, 0d8H, 0d0H, 0c2H
	DB	0c1H, 0acH, 0bdH, 0d3H, 00H			; `string'
CONST	ENDS
;	COMDAT ??_C@_0BM@IFKABAKD@?U?$PN?T?Z?$LH?$KC?K?M?S?N?O?$LH?$LH?$LP?$LM?d?W?$KC?$LC?a?P?E?O?$KC?4?4?4@
CONST	SEGMENT
??_C@_0BM@IFKABAKD@?U?$PN?T?Z?$LH?$KC?K?M?S?N?O?$LH?$LH?$LP?$LM?d?W?$KC?$LC?a?P?E?O?$KC?4?4?4@ DB 0d5H
	DB	0fdH, 0d4H, 0daH, 0b7H, 0a2H, 0cbH, 0cdH, 0d3H, 0ceH, 0cfH, 0b7H
	DB	0b7H, 0bfH, 0bcH, 0e4H, 0d7H, 0a2H, 0b2H, 0e1H, 0d0H, 0c5H, 0cfH
	DB	0a2H, '...', 00H				; `string'
CONST	ENDS
;	COMDAT ??_C@_0CP@NEANHCGA@?P?$KN?$LF?w?$LH?$PO?N?q?F?w?A?$KM?$LN?S?J?$KH?$LA?$NM?5?$FL?5?$CFld?5?$FN?$KD?$KM?$CFld@
CONST	SEGMENT
??_C@_0CP@NEANHCGA@?P?$KN?$LF?w?$LH?$PO?N?q?F?w?A?$KM?$LN?S?J?$KH?$LA?$NM?5?$FL?5?$CFld?5?$FN?$KD?$KM?$CFld@ DB 0d0H
	DB	0adH, 0b5H, 0f7H, 0b7H, 0feH, 0ceH, 0f1H, 0c6H, 0f7H, 0c1H, 0acH
	DB	0bdH, 0d3H, 0caH, 0a7H, 0b0H, 0dcH, ' [ %ld ]', 0a3H, 0acH, '%'
	DB	'ld ', 0c3H, 0ebH, 0baH, 0f3H, 0bdH, 0abH, 0d6H, 0d8H, 0d0H, 0c2H
	DB	0c1H, 0acH, 0bdH, 0d3H, 00H			; `string'
CONST	ENDS
;	COMDAT ?__LINE__Var@?0??OnEventTCPSocketLink@CAttemperEngineSink@@UAE_NGH@Z@4JA
_DATA	SEGMENT
?__LINE__Var@?0??OnEventTCPSocketLink@CAttemperEngineSink@@UAE_NGH@Z@4JA DD 0551H ; `CAttemperEngineSink::OnEventTCPSocketLink'::`1'::__LINE__Var
_DATA	ENDS
;	COMDAT ??_C@_0CN@ONGINNEE@?S?k?T?$LM?U?$LN?$LH?$PO?N?q?F?w?$LF?D?A?$KM?$LN?S?$LJ?X?$LB?U?A?K?$KD?$KM?$CFld?5?C@
CONST	SEGMENT
??_C@_0CN@ONGINNEE@?S?k?T?$LM?U?$LN?$LH?$PO?N?q?F?w?$LF?D?A?$KM?$LN?S?$LJ?X?$LB?U?A?K?$KD?$KM?$CFld?5?C@ DB 0d3H
	DB	0ebH, 0d4H, 0bcH, 0d5H, 0bdH, 0b7H, 0feH, 0ceH, 0f1H, 0c6H, 0f7H
	DB	0b5H, 0c4H, 0c1H, 0acH, 0bdH, 0d3H, 0b9H, 0d8H, 0b1H, 0d5H, 0c1H
	DB	0cbH, 0a3H, 0acH, '%ld ', 0c3H, 0ebH, 0baH, 0f3H, 0bdH, 0abH, 0d6H
	DB	0d8H, 0d0H, 0c2H, 0c1H, 0acH, 0bdH, 0d3H, 00H ; `string'
CONST	ENDS
;	COMDAT ??_C@_0CN@HPLNLDC@?S?k?P?$KN?$LF?w?$LH?$PO?N?q?F?w?$LF?D?A?$KM?$LN?S?$LJ?X?$LB?U?A?K?$KD?$KM?$CFld?5?C@
CONST	SEGMENT
??_C@_0CN@HPLNLDC@?S?k?P?$KN?$LF?w?$LH?$PO?N?q?F?w?$LF?D?A?$KM?$LN?S?$LJ?X?$LB?U?A?K?$KD?$KM?$CFld?5?C@ DB 0d3H
	DB	0ebH, 0d0H, 0adH, 0b5H, 0f7H, 0b7H, 0feH, 0ceH, 0f1H, 0c6H, 0f7H
	DB	0b5H, 0c4H, 0c1H, 0acH, 0bdH, 0d3H, 0b9H, 0d8H, 0b1H, 0d5H, 0c1H
	DB	0cbH, 0a3H, 0acH, '%ld ', 0c3H, 0ebH, 0baH, 0f3H, 0bdH, 0abH, 0d6H
	DB	0d8H, 0d0H, 0c2H, 0c1H, 0acH, 0bdH, 0d3H, 00H ; `string'
CONST	ENDS
;	COMDAT ?__LINE__Var@?0??OnEventTCPSocketShut@CAttemperEngineSink@@UAE_NGE@Z@4JA
_DATA	SEGMENT
?__LINE__Var@?0??OnEventTCPSocketShut@CAttemperEngineSink@@UAE_NGE@Z@4JA DD 051cH ; `CAttemperEngineSink::OnEventTCPSocketShut'::`1'::__LINE__Var
_DATA	ENDS
;	COMDAT ?__LINE__Var@?0??OnEventDataBase@CAttemperEngineSink@@UAE_NGKPAXG@Z@4JA
_DATA	SEGMENT
?__LINE__Var@?0??OnEventDataBase@CAttemperEngineSink@@UAE_NGKPAXG@Z@4JA DD 0420H ; `CAttemperEngineSink::OnEventDataBase'::`1'::__LINE__Var
_DATA	ENDS
;	COMDAT ??_C@_0BH@ENKFPCCP@?$LG?$KI?J?$LB?F?w?R?l?$LD?$KD?$KD?$LKTimerID?$DN?$CFd@
CONST	SEGMENT
??_C@_0BH@ENKFPCCP@?$LG?$KI?J?$LB?F?w?R?l?$LD?$KD?$KD?$LKTimerID?$DN?$CFd@ DB 0b6H
	DB	0a8H, 0caH, 0b1H, 0c6H, 0f7H, 0d2H, 0ecH, 0b3H, 0a3H, 0a3H, 0baH
	DB	'TimerID=%d', 00H				; `string'
CONST	ENDS
;	COMDAT ?__LINE__Var@?0??OnEventTimer@CAttemperEngineSink@@UAE_NKI@Z@4JA
_DATA	SEGMENT
?__LINE__Var@?0??OnEventTimer@CAttemperEngineSink@@UAE_NKI@Z@4JA DD 01ceH ; `CAttemperEngineSink::OnEventTimer'::`1'::__LINE__Var
_DATA	ENDS
;	COMDAT ??_C@_0BN@BAEBLECI@?U?$PN?T?Z?A?$KM?$LN?S?T?$LM?U?$LN?$LH?$PO?N?q?F?w?5?$FL?5?$CFs?3?$CFd?5?$FN@
CONST	SEGMENT
??_C@_0BN@BAEBLECI@?U?$PN?T?Z?A?$KM?$LN?S?T?$LM?U?$LN?$LH?$PO?N?q?F?w?5?$FL?5?$CFs?3?$CFd?5?$FN@ DB 0d5H
	DB	0fdH, 0d4H, 0daH, 0c1H, 0acH, 0bdH, 0d3H, 0d4H, 0bcH, 0d5H, 0bdH
	DB	0b7H, 0feH, 0ceH, 0f1H, 0c6H, 0f7H, ' [ %s:%d ]', 00H ; `string'
CONST	ENDS
;	COMDAT ??_C@_0BN@EEJNAPCD@?U?$PN?T?Z?A?$KM?$LN?S?P?$KN?$LF?w?$LH?$PO?N?q?F?w?5?$FL?5?$CFs?3?$CFd?5?$FN@
CONST	SEGMENT
??_C@_0BN@EEJNAPCD@?U?$PN?T?Z?A?$KM?$LN?S?P?$KN?$LF?w?$LH?$PO?N?q?F?w?5?$FL?5?$CFs?3?$CFd?5?$FN@ DB 0d5H
	DB	0fdH, 0d4H, 0daH, 0c1H, 0acH, 0bdH, 0d3H, 0d0H, 0adH, 0b5H, 0f7H
	DB	0b7H, 0feH, 0ceH, 0f1H, 0c6H, 0f7H, ' [ %s:%d ]', 00H ; `string'
CONST	ENDS
;	COMDAT ?__LINE__Var@?0??OnAttemperEngineConclude@CAttemperEngineSink@@UAE_NPAUIUnknownEx@@@Z@4JA
_DATA	SEGMENT
?__LINE__Var@?0??OnAttemperEngineConclude@CAttemperEngineSink@@UAE_NPAUIUnknownEx@@@Z@4JA DD 011cH ; `CAttemperEngineSink::OnAttemperEngineConclude'::`1'::__LINE__Var
_DATA	ENDS
;	COMDAT ?__LINE__Var@?0??OnAttemperEngineStart@CAttemperEngineSink@@UAE_NPAUIUnknownEx@@@Z@4JA
_DATA	SEGMENT
?__LINE__Var@?0??OnAttemperEngineStart@CAttemperEngineSink@@UAE_NPAUIUnknownEx@@@Z@4JA DD 0a6H ; `CAttemperEngineSink::OnAttemperEngineStart'::`1'::__LINE__Var
_DATA	ENDS
;	COMDAT ?__LINE__Var@?0???1CAttemperEngineSink@@UAE@XZ@4JA
_DATA	SEGMENT
?__LINE__Var@?0???1CAttemperEngineSink@@UAE@XZ@4JA DD 07eH ; `CAttemperEngineSink::~CAttemperEngineSink'::`1'::__LINE__Var
_DATA	ENDS
_DATA	SEGMENT
?THIS_FILE@@3PADA DB 'g:\', 0cdH, 0f8H, 0baH, 0fcH, '\happygamewh\', 0b7H
	DB	0feH, 0ceH, 0f1H, 0b6H, 0cbH, '\', 0cfH, 0b5H, 0cdH, 0b3H, 0c4H
	DB	0a3H, 0bfH, 0e9H, '\', 0b7H, 0feH, 0ceH, 0f1H, 0c6H, 0f7H, 0d7H
	DB	0e9H, 0bcH, 0feH, '\', 0d3H, 0ceH, 0cfH, 0b7H, 0b7H, 0feH, 0ceH
	DB	0f1H, 0c6H, 0f7H, '\attemperenginesink.cpp', 00H ; THIS_FILE
_DATA	ENDS
;	COMDAT ??_7CAttemperEngineSink@@6BIServerUserItemSink@@@
CONST	SEGMENT
??_7CAttemperEngineSink@@6BIServerUserItemSink@@@ DD FLAT:??_R4CAttemperEngineSink@@6BIServerUserItemSink@@@ ; CAttemperEngineSink::`vftable'
	DD	FLAT:?Release@CAttemperEngineSink@@W7AEXXZ
	DD	FLAT:?QueryInterface@CAttemperEngineSink@@W7AEPAXABU_GUID@@K@Z
	DD	FLAT:?OnEventUserItemScore@CAttemperEngineSink@@UAE_NPAUIServerUserItem@@E@Z
	DD	FLAT:?OnEventUserItemGameData@CAttemperEngineSink@@UAE_NPAUIServerUserItem@@E@Z
	DD	FLAT:?OnEventUserItemStatus@CAttemperEngineSink@@UAE_NPAUIServerUserItem@@GG@Z
	DD	FLAT:?OnEventUserItemRight@CAttemperEngineSink@@UAE_NPAUIServerUserItem@@KKE@Z
CONST	ENDS
;	COMDAT ??_7CAttemperEngineSink@@6BIMainServiceFrame@@@
CONST	SEGMENT
??_7CAttemperEngineSink@@6BIMainServiceFrame@@@ DD FLAT:??_R4CAttemperEngineSink@@6BIMainServiceFrame@@@ ; CAttemperEngineSink::`vftable'
	DD	FLAT:?Release@CAttemperEngineSink@@W3AEXXZ
	DD	FLAT:?QueryInterface@CAttemperEngineSink@@W3AEPAXABU_GUID@@K@Z
	DD	FLAT:?SendRoomMessage@CAttemperEngineSink@@UAE_NKPBDG_N@Z
	DD	FLAT:?SendRoomMessage@CAttemperEngineSink@@UAE_NPAUIServerUserItem@@PBDG@Z
	DD	FLAT:?SendRoomMessage@CAttemperEngineSink@@UAE_NPBDG@Z
	DD	FLAT:?SendGameMessage@CAttemperEngineSink@@UAE_NPAUIServerUserItem@@PBDG@Z
	DD	FLAT:?SendGameMessage@CAttemperEngineSink@@UAE_NPBDG@Z
	DD	FLAT:?SendData@CAttemperEngineSink@@UAE_NPAUIServerUserItem@@GGPAXG@Z
	DD	FLAT:?SendData@CAttemperEngineSink@@UAE_NKGGPAXG@Z
	DD	FLAT:?SendData@CAttemperEngineSink@@UAE_NEGGPAXG@Z
	DD	FLAT:?SendDataBatchToMobileUser@CAttemperEngineSink@@UAE_NGGGPAXG@Z
	DD	FLAT:?SendDataBatchToCheatUser@CAttemperEngineSink@@UAE_NPAUIServerUserItem@@GGPAXG@Z
	DD	FLAT:?DisconnectCorrespond@CAttemperEngineSink@@UAE_NXZ
	DD	FLAT:?InsertDistribute@CAttemperEngineSink@@UAE_NPAUIServerUserItem@@@Z
	DD	FLAT:?DeleteDistribute@CAttemperEngineSink@@UAE_NPAUIServerUserItem@@@Z
	DD	FLAT:?SensitiveWordFilter@CAttemperEngineSink@@UAEXPBDPADH@Z
	DD	FLAT:?UnLockAndroidUser@CAttemperEngineSink@@UAEXGG@Z
	DD	FLAT:?DismissPersonalTable@CAttemperEngineSink@@UAEXGG@Z
	DD	FLAT:?CancelCreateTable@CAttemperEngineSink@@UAEXKKKKGK@Z
	DD	FLAT:?UpdateTablePlayerCount@CAttemperEngineSink@@UAEXGGG@Z
	DD	FLAT:?PersonalRoomWriteJoinInfo@CAttemperEngineSink@@UAEXKGGKKPAD@Z
CONST	ENDS
;	COMDAT ??_7CAttemperEngineSink@@6BIAttemperEngineSink@@@
CONST	SEGMENT
??_7CAttemperEngineSink@@6BIAttemperEngineSink@@@ DD FLAT:??_R4CAttemperEngineSink@@6BIAttemperEngineSink@@@ ; CAttemperEngineSink::`vftable'
	DD	FLAT:?Release@CAttemperEngineSink@@UAEXXZ
	DD	FLAT:?QueryInterface@CAttemperEngineSink@@UAEPAXABU_GUID@@K@Z
	DD	FLAT:?OnAttemperEngineStart@CAttemperEngineSink@@UAE_NPAUIUnknownEx@@@Z
	DD	FLAT:?OnAttemperEngineConclude@CAttemperEngineSink@@UAE_NPAUIUnknownEx@@@Z
	DD	FLAT:?OnEventControl@CAttemperEngineSink@@UAE_NGPAXG@Z
	DD	FLAT:?OnEventAttemperData@CAttemperEngineSink@@UAE_NGPAXG@Z
	DD	FLAT:?OnEventTimer@CAttemperEngineSink@@UAE_NKI@Z
	DD	FLAT:?OnEventDataBase@CAttemperEngineSink@@UAE_NGKPAXG@Z
	DD	FLAT:?OnEventTCPSocketLink@CAttemperEngineSink@@UAE_NGH@Z
	DD	FLAT:?OnEventTCPSocketShut@CAttemperEngineSink@@UAE_NGE@Z
	DD	FLAT:?OnEventTCPSocketRead@CAttemperEngineSink@@UAE_NGUTCP_Command@@PAXG@Z
	DD	FLAT:?OnEventTCPNetworkBind@CAttemperEngineSink@@UAE_NKK@Z
	DD	FLAT:?OnEventTCPNetworkShut@CAttemperEngineSink@@UAE_NKKK@Z
	DD	FLAT:?OnEventTCPNetworkRead@CAttemperEngineSink@@UAE_NUTCP_Command@@PAXGK@Z
	DD	FLAT:??_ECAttemperEngineSink@@UAEPAXI@Z
	DD	FLAT:?GetBindUserItem@CAttemperEngineSink@@UAEPAUIServerUserItem@@G@Z
	DD	FLAT:?GetBindParameter@CAttemperEngineSink@@UAEPAUtagBindParameter@@G@Z
CONST	ENDS
;	COMDAT ??_7?$CWHArray@PAUtagSystemMessage@@ABQAU1@@@6B@
CONST	SEGMENT
??_7?$CWHArray@PAUtagSystemMessage@@ABQAU1@@@6B@ DD FLAT:??_R4?$CWHArray@PAUtagSystemMessage@@ABQAU1@@@6B@ ; CWHArray<tagSystemMessage *,tagSystemMessage * const &>::`vftable'
	DD	FLAT:??_E?$CWHArray@PAUtagSystemMessage@@ABQAU1@@@UAEPAXI@Z
CONST	ENDS
;	COMDAT ??_7?$CMap@KKKAAK@@6B@
CONST	SEGMENT
??_7?$CMap@KKKAAK@@6B@ DD FLAT:??_R4?$CMap@KKKAAK@@6B@	; CMap<unsigned long,unsigned long,unsigned long,unsigned long &>::`vftable'
	DD	FLAT:?GetRuntimeClass@CObject@@UBEPAUCRuntimeClass@@XZ
	DD	FLAT:??_E?$CMap@KKKAAK@@UAEPAXI@Z
	DD	FLAT:?Serialize@?$CMap@KKKAAK@@UAEXAAVCArchive@@@Z
	DD	FLAT:?AssertValid@?$CMap@KKKAAK@@UBEXXZ
	DD	FLAT:?Dump@?$CMap@KKKAAK@@UBEXAAVCDumpContext@@@Z
CONST	ENDS
;	COMDAT ??_7?$CWHArray@PAVCTableFrame@@ABQAV1@@@6B@
CONST	SEGMENT
??_7?$CWHArray@PAVCTableFrame@@ABQAV1@@@6B@ DD FLAT:??_R4?$CWHArray@PAVCTableFrame@@ABQAV1@@@6B@ ; CWHArray<CTableFrame *,CTableFrame * const &>::`vftable'
	DD	FLAT:??_E?$CWHArray@PAVCTableFrame@@ABQAV1@@@UAEPAXI@Z
CONST	ENDS
;	COMDAT ??_7?$CWHArray@PAUtagPersonalTableParameter@@ABQAU1@@@6B@
CONST	SEGMENT
??_7?$CWHArray@PAUtagPersonalTableParameter@@ABQAU1@@@6B@ DD FLAT:??_R4?$CWHArray@PAUtagPersonalTableParameter@@ABQAU1@@@6B@ ; CWHArray<tagPersonalTableParameter *,tagPersonalTableParameter * const &>::`vftable'
	DD	FLAT:??_E?$CWHArray@PAUtagPersonalTableParameter@@ABQAU1@@@UAEPAXI@Z
CONST	ENDS
;	COMDAT ??_7CSensitiveWordsFilter@@6B@
CONST	SEGMENT
??_7CSensitiveWordsFilter@@6B@ DD FLAT:??_R4CSensitiveWordsFilter@@6B@ ; CSensitiveWordsFilter::`vftable'
	DD	FLAT:??_ECSensitiveWordsFilter@@UAEPAXI@Z
CONST	ENDS
;	COMDAT ??_7?$CWHArray@PBDABQBD@@6B@
CONST	SEGMENT
??_7?$CWHArray@PBDABQBD@@6B@ DD FLAT:??_R4?$CWHArray@PBDABQBD@@6B@ ; CWHArray<char const *,char const * const &>::`vftable'
	DD	FLAT:??_E?$CWHArray@PBDABQBD@@UAEPAXI@Z
CONST	ENDS
;	COMDAT ??_R2CObject@@8
rdata$r	SEGMENT
??_R2CObject@@8 DD FLAT:??_R1A@?0A@EA@CObject@@8	; CObject::`RTTI Base Class Array'
rdata$r	ENDS
;	COMDAT ??_R3CObject@@8
rdata$r	SEGMENT
??_R3CObject@@8 DD 00H					; CObject::`RTTI Class Hierarchy Descriptor'
	DD	00H
	DD	01H
	DD	FLAT:??_R2CObject@@8
rdata$r	ENDS
;	COMDAT ??_R0?AVCObject@@@8
data$r	SEGMENT
??_R0?AVCObject@@@8 DD FLAT:??_7type_info@@6B@		; CObject `RTTI Type Descriptor'
	DD	00H
	DB	'.?AVCObject@@', 00H
data$r	ENDS
;	COMDAT ??_R1A@?0A@EA@CObject@@8
rdata$r	SEGMENT
??_R1A@?0A@EA@CObject@@8 DD FLAT:??_R0?AVCObject@@@8	; CObject::`RTTI Base Class Descriptor at (0,-1,0,64)'
	DD	00H
	DD	00H
	DD	0ffffffffH
	DD	00H
	DD	040H
	DD	FLAT:??_R3CObject@@8
rdata$r	ENDS
;	COMDAT ??_C@_04OAFLPOMH@?$FN?5?$DN?5@
CONST	SEGMENT
??_C@_04OAFLPOMH@?$FN?5?$DN?5@ DB '] = ', 00H		; `string'
CONST	ENDS
;	COMDAT ??_C@_03OHJIHPJH@?6?7?$FL@
CONST	SEGMENT
??_C@_03OHJIHPJH@?6?7?$FL@ DB 0aH, 09H, '[', 00H	; `string'
CONST	ENDS
;	COMDAT ??_C@_01EEMJAFIK@?6@
CONST	SEGMENT
??_C@_01EEMJAFIK@?6@ DB 0aH, 00H			; `string'
CONST	ENDS
;	COMDAT ??_C@_09HCLNAIDE@?5elements@
CONST	SEGMENT
??_C@_09HCLNAIDE@?5elements@ DB ' elements', 00H	; `string'
CONST	ENDS
;	COMDAT ??_C@_05PLCFPPOI@with?5@
CONST	SEGMENT
??_C@_05PLCFPPOI@with?5@ DB 'with ', 00H		; `string'
CONST	ENDS
;	COMDAT ??_C@_0HC@HBCNBCLF@c?3?2program?5files?5?$CIx86?$CJ?2microsof@
CONST	SEGMENT
??_C@_0HC@HBCNBCLF@c?3?2program?5files?5?$CIx86?$CJ?2microsof@ DB 'c:\pro'
	DB	'gram files (x86)\microsoft visual studio\2017\community\vc\to'
	DB	'ols\msvc\14.16.27023\atlmfc\include\afxtempl.h', 00H ; `string'
CONST	ENDS
;	COMDAT ??_C@_0BI@PDGLEKAG@PersonalRoomService?4dll@
CONST	SEGMENT
??_C@_0BI@PDGLEKAG@PersonalRoomService?4dll@ DB 'PersonalRoomService.dll', 00H ; `string'
CONST	ENDS
;	COMDAT ??_7IMainServiceFrame@@6B@
CONST	SEGMENT
??_7IMainServiceFrame@@6B@ DD FLAT:??_R4IMainServiceFrame@@6B@ ; IMainServiceFrame::`vftable'
	DD	FLAT:__purecall
	DD	FLAT:__purecall
	DD	FLAT:__purecall
	DD	FLAT:__purecall
	DD	FLAT:__purecall
	DD	FLAT:__purecall
	DD	FLAT:__purecall
	DD	FLAT:__purecall
	DD	FLAT:__purecall
	DD	FLAT:__purecall
	DD	FLAT:__purecall
	DD	FLAT:__purecall
	DD	FLAT:__purecall
	DD	FLAT:__purecall
	DD	FLAT:__purecall
	DD	FLAT:__purecall
	DD	FLAT:__purecall
	DD	FLAT:__purecall
	DD	FLAT:__purecall
	DD	FLAT:__purecall
	DD	FLAT:__purecall
CONST	ENDS
;	COMDAT ??_7IServerUserItemSink@@6B@
CONST	SEGMENT
??_7IServerUserItemSink@@6B@ DD FLAT:??_R4IServerUserItemSink@@6B@ ; IServerUserItemSink::`vftable'
	DD	FLAT:__purecall
	DD	FLAT:__purecall
	DD	FLAT:__purecall
	DD	FLAT:__purecall
	DD	FLAT:__purecall
	DD	FLAT:__purecall
CONST	ENDS
;	COMDAT ??_7IAttemperEngineSink@@6B@
CONST	SEGMENT
??_7IAttemperEngineSink@@6B@ DD FLAT:??_R4IAttemperEngineSink@@6B@ ; IAttemperEngineSink::`vftable'
	DD	FLAT:__purecall
	DD	FLAT:__purecall
	DD	FLAT:__purecall
	DD	FLAT:__purecall
	DD	FLAT:__purecall
	DD	FLAT:__purecall
	DD	FLAT:__purecall
	DD	FLAT:__purecall
	DD	FLAT:__purecall
	DD	FLAT:__purecall
	DD	FLAT:__purecall
	DD	FLAT:__purecall
	DD	FLAT:__purecall
	DD	FLAT:__purecall
CONST	ENDS
;	COMDAT ?__LINE__Var@?0??GetData@CRecvPacketHelper@@QAEPAXAAUtagDataDescribe@@@Z@4JA
_DATA	SEGMENT
?__LINE__Var@?0??GetData@CRecvPacketHelper@@QAEPAXAAUtagDataDescribe@@@Z@4JA DD 09aH ; `CRecvPacketHelper::GetData'::`1'::__LINE__Var
_DATA	ENDS
;	COMDAT ?__LINE__Var@?0??AddPacket@CSendPacketHelper@@QAE_NPAXGG@Z@4JA
_DATA	SEGMENT
?__LINE__Var@?0??AddPacket@CSendPacketHelper@@QAE_NPAXGG@Z@4JA DD 072H ; `CSendPacketHelper::AddPacket'::`1'::__LINE__Var
_DATA	ENDS
;	COMDAT ??_C@_0DK@NEJIDGKJ@g?3?2?M?x?$LK?$PM?2happygamewh?2?$LH?$PO?N?q?$LG?K?2?O?$LF?M?$LD@
CONST	SEGMENT
??_C@_0DK@NEJIDGKJ@g?3?2?M?x?$LK?$PM?2happygamewh?2?$LH?$PO?N?q?$LG?K?2?O?$LF?M?$LD@ DB 'g'
	DB	':\', 0cdH, 0f8H, 0baH, 0fcH, '\happygamewh\', 0b7H, 0feH, 0ceH
	DB	0f1H, 0b6H, 0cbH, '\', 0cfH, 0b5H, 0cdH, 0b3H, 0c4H, 0a3H, 0bfH
	DB	0e9H, '\', 0c8H, 0abH, 0beH, 0d6H, 0b6H, 0a8H, 0d2H, 0e5H, '\p'
	DB	'acketaide.h', 00H				; `string'
CONST	ENDS
;	COMDAT ?__LINE__Var@?0??AddPacket@CSendPacketHelper@@QAE_NPBDG@Z@4JA
_DATA	SEGMENT
?__LINE__Var@?0??AddPacket@CSendPacketHelper@@QAE_NPBDG@Z@4JA DD 05cH ; `CSendPacketHelper::AddPacket'::`1'::__LINE__Var
_DATA	ENDS
;	COMDAT ??_7IUnknownEx@@6B@
CONST	SEGMENT
??_7IUnknownEx@@6B@ DD FLAT:??_R4IUnknownEx@@6B@	; IUnknownEx::`vftable'
	DD	FLAT:__purecall
	DD	FLAT:__purecall
CONST	ENDS
;	COMDAT ??_C@_00CNPNBAHC@@
CONST	SEGMENT
??_C@_00CNPNBAHC@@ DB 00H				; `string'
CONST	ENDS
;	COMDAT ??_C@_1OE@PDFAMNPL@?$AAc?$AA?3?$AA?2?$AAp?$AAr?$AAo?$AAg?$AAr?$AAa?$AAm?$AA?5?$AAf?$AAi?$AAl?$AAe@
CONST	SEGMENT
??_C@_1OE@PDFAMNPL@?$AAc?$AA?3?$AA?2?$AAp?$AAr?$AAo?$AAg?$AAr?$AAa?$AAm?$AA?5?$AAf?$AAi?$AAl?$AAe@ DB 'c'
	DB	00H, ':', 00H, '\', 00H, 'p', 00H, 'r', 00H, 'o', 00H, 'g', 00H
	DB	'r', 00H, 'a', 00H, 'm', 00H, ' ', 00H, 'f', 00H, 'i', 00H, 'l'
	DB	00H, 'e', 00H, 's', 00H, ' ', 00H, '(', 00H, 'x', 00H, '8', 00H
	DB	'6', 00H, ')', 00H, '\', 00H, 'm', 00H, 'i', 00H, 'c', 00H, 'r'
	DB	00H, 'o', 00H, 's', 00H, 'o', 00H, 'f', 00H, 't', 00H, ' ', 00H
	DB	'v', 00H, 'i', 00H, 's', 00H, 'u', 00H, 'a', 00H, 'l', 00H, ' '
	DB	00H, 's', 00H, 't', 00H, 'u', 00H, 'd', 00H, 'i', 00H, 'o', 00H
	DB	'\', 00H, '2', 00H, '0', 00H, '1', 00H, '7', 00H, '\', 00H, 'c'
	DB	00H, 'o', 00H, 'm', 00H, 'm', 00H, 'u', 00H, 'n', 00H, 'i', 00H
	DB	't', 00H, 'y', 00H, '\', 00H, 'v', 00H, 'c', 00H, '\', 00H, 't'
	DB	00H, 'o', 00H, 'o', 00H, 'l', 00H, 's', 00H, '\', 00H, 'm', 00H
	DB	's', 00H, 'v', 00H, 'c', 00H, '\', 00H, '1', 00H, '4', 00H, '.'
	DB	00H, '1', 00H, '6', 00H, '.', 00H, '2', 00H, '7', 00H, '0', 00H
	DB	'2', 00H, '3', 00H, '\', 00H, 'a', 00H, 't', 00H, 'l', 00H, 'm'
	DB	00H, 'f', 00H, 'c', 00H, '\', 00H, 'i', 00H, 'n', 00H, 'c', 00H
	DB	'l', 00H, 'u', 00H, 'd', 00H, 'e', 00H, '\', 00H, 'a', 00H, 't'
	DB	00H, 'l', 00H, 't', 00H, 'r', 00H, 'a', 00H, 'c', 00H, 'e', 00H
	DB	'.', 00H, 'h', 00H, 00H, 00H			; `string'
CONST	ENDS
;	COMDAT ??_C@_1EO@EBPPKGOM@?$AAf?$AAa?$AAl?$AAs?$AAe?$AA?5?$AA?$CG?$AA?$CG?$AA?5?$AA?$CC?$AAT?$AAo?$AAo?$AA?5?$AAm@
CONST	SEGMENT
??_C@_1EO@EBPPKGOM@?$AAf?$AAa?$AAl?$AAs?$AAe?$AA?5?$AA?$CG?$AA?$CG?$AA?5?$AA?$CC?$AAT?$AAo?$AAo?$AA?5?$AAm@ DB 'f'
	DB	00H, 'a', 00H, 'l', 00H, 's', 00H, 'e', 00H, ' ', 00H, '&', 00H
	DB	'&', 00H, ' ', 00H, '"', 00H, 'T', 00H, 'o', 00H, 'o', 00H, ' '
	DB	00H, 'm', 00H, 'a', 00H, 'n', 00H, 'y', 00H, ' ', 00H, 'c', 00H
	DB	'a', 00H, 't', 00H, 'e', 00H, 'g', 00H, 'o', 00H, 'r', 00H, 'i'
	DB	00H, 'e', 00H, 's', 00H, ' ', 00H, 'd', 00H, 'e', 00H, 'f', 00H
	DB	'i', 00H, 'n', 00H, 'e', 00H, 'd', 00H, '"', 00H, 00H, 00H ; `string'
CONST	ENDS
;	COMDAT ??_C@_17LGGGMOOB@?$AA?$CF?$AAh?$AAs@
CONST	SEGMENT
??_C@_17LGGGMOOB@?$AA?$CF?$AAh?$AAs@ DB '%', 00H, 'h', 00H, 's', 00H, 00H
	DB	00H						; `string'
CONST	ENDS
;	COMDAT ??_C@_0P@MBNHGHMI@atlTraceString@
CONST	SEGMENT
??_C@_0P@MBNHGHMI@atlTraceString@ DB 'atlTraceString', 00H ; `string'
CONST	ENDS
;	COMDAT ??_C@_0BC@PGMFNIFA@atlTraceException@
CONST	SEGMENT
??_C@_0BC@PGMFNIFA@atlTraceException@ DB 'atlTraceException', 00H ; `string'
CONST	ENDS
;	COMDAT ??_C@_17CNPHIMPH@?$AA?$CF?$AAl?$AAs@
CONST	SEGMENT
??_C@_17CNPHIMPH@?$AA?$CF?$AAl?$AAs@ DB '%', 00H, 'l', 00H, 's', 00H, 00H
	DB	00H						; `string'
CONST	ENDS
;	COMDAT xdata$x
xdata$x	SEGMENT
__unwindtable$?InitTableFrameArray@CAttemperEngineSink@@IAE_NXZ DD 0ffffffffH
	DD	FLAT:__unwindfunclet$?InitTableFrameArray@CAttemperEngineSink@@IAE_NXZ$0
__ehfuncinfo$?InitTableFrameArray@CAttemperEngineSink@@IAE_NXZ DD 019930522H
	DD	01H
	DD	FLAT:__unwindtable$?InitTableFrameArray@CAttemperEngineSink@@IAE_NXZ
	DD	2 DUP(00H)
	DD	2 DUP(00H)
	DD	00H
	DD	01H
xdata$x	ENDS
;	COMDAT xdata$x
xdata$x	SEGMENT
__catchsym$?PerformDistribute@CAttemperEngineSink@@IAE_NXZ$4 DD 040H
	DD	00H
	DD	00H
	DD	FLAT:__catch$?PerformDistribute@CAttemperEngineSink@@IAE_NXZ$0
__tryblocktable$?PerformDistribute@CAttemperEngineSink@@IAE_NXZ DD 01H
	DD	02H
	DD	03H
	DD	01H
	DD	FLAT:__catchsym$?PerformDistribute@CAttemperEngineSink@@IAE_NXZ$4
__unwindtable$?PerformDistribute@CAttemperEngineSink@@IAE_NXZ DD 0ffffffffH
	DD	FLAT:__unwindfunclet$?PerformDistribute@CAttemperEngineSink@@IAE_NXZ$2
	DD	00H
	DD	00H
	DD	01H
	DD	FLAT:__unwindfunclet$?PerformDistribute@CAttemperEngineSink@@IAE_NXZ$3
	DD	00H
	DD	00H
__ehfuncinfo$?PerformDistribute@CAttemperEngineSink@@IAE_NXZ DD 019930522H
	DD	04H
	DD	FLAT:__unwindtable$?PerformDistribute@CAttemperEngineSink@@IAE_NXZ
	DD	01H
	DD	FLAT:__tryblocktable$?PerformDistribute@CAttemperEngineSink@@IAE_NXZ
	DD	2 DUP(00H)
	DD	00H
	DD	01H
xdata$x	ENDS
;	COMDAT xdata$x
xdata$x	SEGMENT
__unwindtable$?OnTCPNetworkSubLogonAccounts@CAttemperEngineSink@@IAE_NPAXGK@Z DD 0ffffffffH
	DD	FLAT:__unwindfunclet$?OnTCPNetworkSubLogonAccounts@CAttemperEngineSink@@IAE_NPAXGK@Z$0
__ehfuncinfo$?OnTCPNetworkSubLogonAccounts@CAttemperEngineSink@@IAE_NPAXGK@Z DD 019930522H
	DD	01H
	DD	FLAT:__unwindtable$?OnTCPNetworkSubLogonAccounts@CAttemperEngineSink@@IAE_NPAXGK@Z
	DD	2 DUP(00H)
	DD	2 DUP(00H)
	DD	00H
	DD	01H
xdata$x	ENDS
;	COMDAT xdata$x
xdata$x	SEGMENT
__unwindtable$?OnTCPNetworkSubLogonMobile@CAttemperEngineSink@@IAE_NPAXGK@Z DD 0ffffffffH
	DD	FLAT:__unwindfunclet$?OnTCPNetworkSubLogonMobile@CAttemperEngineSink@@IAE_NPAXGK@Z$0
__ehfuncinfo$?OnTCPNetworkSubLogonMobile@CAttemperEngineSink@@IAE_NPAXGK@Z DD 019930522H
	DD	01H
	DD	FLAT:__unwindtable$?OnTCPNetworkSubLogonMobile@CAttemperEngineSink@@IAE_NPAXGK@Z
	DD	2 DUP(00H)
	DD	2 DUP(00H)
	DD	00H
	DD	01H
xdata$x	ENDS
;	COMDAT xdata$x
xdata$x	SEGMENT
__unwindtable$?OnTCPNetworkSubLogonUserID@CAttemperEngineSink@@IAE_NPAXGK@Z DD 0ffffffffH
	DD	FLAT:__unwindfunclet$?OnTCPNetworkSubLogonUserID@CAttemperEngineSink@@IAE_NPAXGK@Z$0
__ehfuncinfo$?OnTCPNetworkSubLogonUserID@CAttemperEngineSink@@IAE_NPAXGK@Z DD 019930522H
	DD	01H
	DD	FLAT:__unwindtable$?OnTCPNetworkSubLogonUserID@CAttemperEngineSink@@IAE_NPAXGK@Z
	DD	2 DUP(00H)
	DD	2 DUP(00H)
	DD	00H
	DD	01H
xdata$x	ENDS
;	COMDAT xdata$x
xdata$x	SEGMENT
__catchsym$?OnDBLoadPersonalParameter@CAttemperEngineSink@@IAE_NKPAXG@Z$2 DD 040H
	DD	00H
	DD	00H
	DD	FLAT:__catch$?OnDBLoadPersonalParameter@CAttemperEngineSink@@IAE_NKPAXG@Z$0
__unwindtable$?OnDBLoadPersonalParameter@CAttemperEngineSink@@IAE_NKPAXG@Z DD 0ffffffffH
	DD	00H
	DD	0ffffffffH
	DD	00H
__tryblocktable$?OnDBLoadPersonalParameter@CAttemperEngineSink@@IAE_NKPAXG@Z DD 00H
	DD	00H
	DD	01H
	DD	01H
	DD	FLAT:__catchsym$?OnDBLoadPersonalParameter@CAttemperEngineSink@@IAE_NKPAXG@Z$2
__ehfuncinfo$?OnDBLoadPersonalParameter@CAttemperEngineSink@@IAE_NKPAXG@Z DD 019930522H
	DD	02H
	DD	FLAT:__unwindtable$?OnDBLoadPersonalParameter@CAttemperEngineSink@@IAE_NKPAXG@Z
	DD	01H
	DD	FLAT:__tryblocktable$?OnDBLoadPersonalParameter@CAttemperEngineSink@@IAE_NKPAXG@Z
	DD	2 DUP(00H)
	DD	00H
	DD	01H
xdata$x	ENDS
;	COMDAT xdata$x
xdata$x	SEGMENT
__catchsym$?OnEventTCPNetworkShut@CAttemperEngineSink@@UAE_NKKK@Z$2 DD 040H
	DD	00H
	DD	00H
	DD	FLAT:__catch$?OnEventTCPNetworkShut@CAttemperEngineSink@@UAE_NKKK@Z$0
__unwindtable$?OnEventTCPNetworkShut@CAttemperEngineSink@@UAE_NKKK@Z DD 0ffffffffH
	DD	00H
	DD	0ffffffffH
	DD	00H
__tryblocktable$?OnEventTCPNetworkShut@CAttemperEngineSink@@UAE_NKKK@Z DD 00H
	DD	00H
	DD	01H
	DD	01H
	DD	FLAT:__catchsym$?OnEventTCPNetworkShut@CAttemperEngineSink@@UAE_NKKK@Z$2
__ehfuncinfo$?OnEventTCPNetworkShut@CAttemperEngineSink@@UAE_NKKK@Z DD 019930522H
	DD	02H
	DD	FLAT:__unwindtable$?OnEventTCPNetworkShut@CAttemperEngineSink@@UAE_NKKK@Z
	DD	01H
	DD	FLAT:__tryblocktable$?OnEventTCPNetworkShut@CAttemperEngineSink@@UAE_NKKK@Z
	DD	2 DUP(00H)
	DD	00H
	DD	01H
xdata$x	ENDS
;	COMDAT xdata$x
xdata$x	SEGMENT
__catchsym$?OnEventTimer@CAttemperEngineSink@@UAE_NKI@Z$5 DD 040H
	DD	00H
	DD	00H
	DD	FLAT:__catch$?OnEventTimer@CAttemperEngineSink@@UAE_NKI@Z$2
__catchsym$?OnEventTimer@CAttemperEngineSink@@UAE_NKI@Z$4 DD 040H
	DD	00H
	DD	00H
	DD	FLAT:__catch$?OnEventTimer@CAttemperEngineSink@@UAE_NKI@Z$0
__unwindtable$?OnEventTimer@CAttemperEngineSink@@UAE_NKI@Z DD 0ffffffffH
	DD	00H
	DD	00H
	DD	00H
	DD	00H
	DD	00H
	DD	0ffffffffH
	DD	00H
__ehfuncinfo$?OnEventTimer@CAttemperEngineSink@@UAE_NKI@Z DD 019930522H
	DD	04H
	DD	FLAT:__unwindtable$?OnEventTimer@CAttemperEngineSink@@UAE_NKI@Z
	DD	02H
	DD	FLAT:__tryblocktable$?OnEventTimer@CAttemperEngineSink@@UAE_NKI@Z
	DD	2 DUP(00H)
	DD	00H
	DD	01H
__tryblocktable$?OnEventTimer@CAttemperEngineSink@@UAE_NKI@Z DD 01H
	DD	01H
	DD	02H
	DD	01H
	DD	FLAT:__catchsym$?OnEventTimer@CAttemperEngineSink@@UAE_NKI@Z$4
	DD	00H
	DD	02H
	DD	03H
	DD	01H
	DD	FLAT:__catchsym$?OnEventTimer@CAttemperEngineSink@@UAE_NKI@Z$5
xdata$x	ENDS
;	COMDAT xdata$x
xdata$x	SEGMENT
__catchsym$?OnAttemperEngineConclude@CAttemperEngineSink@@UAE_NPAUIUnknownEx@@@Z$8 DD 040H
	DD	00H
	DD	00H
	DD	FLAT:__catch$?OnAttemperEngineConclude@CAttemperEngineSink@@UAE_NPAUIUnknownEx@@@Z$4
__catchsym$?OnAttemperEngineConclude@CAttemperEngineSink@@UAE_NPAUIUnknownEx@@@Z$7 DD 040H
	DD	00H
	DD	00H
	DD	FLAT:__catch$?OnAttemperEngineConclude@CAttemperEngineSink@@UAE_NPAUIUnknownEx@@@Z$2
__catchsym$?OnAttemperEngineConclude@CAttemperEngineSink@@UAE_NPAUIUnknownEx@@@Z$6 DD 040H
	DD	00H
	DD	00H
	DD	FLAT:__catch$?OnAttemperEngineConclude@CAttemperEngineSink@@UAE_NPAUIUnknownEx@@@Z$0
__ehfuncinfo$?OnAttemperEngineConclude@CAttemperEngineSink@@UAE_NPAUIUnknownEx@@@Z DD 019930522H
	DD	06H
	DD	FLAT:__unwindtable$?OnAttemperEngineConclude@CAttemperEngineSink@@UAE_NPAUIUnknownEx@@@Z
	DD	03H
	DD	FLAT:__tryblocktable$?OnAttemperEngineConclude@CAttemperEngineSink@@UAE_NPAUIUnknownEx@@@Z
	DD	2 DUP(00H)
	DD	00H
	DD	01H
__unwindtable$?OnAttemperEngineConclude@CAttemperEngineSink@@UAE_NPAUIUnknownEx@@@Z DD 0ffffffffH
	DD	00H
	DD	0ffffffffH
	DD	00H
	DD	0ffffffffH
	DD	00H
	DD	0ffffffffH
	DD	00H
	DD	0ffffffffH
	DD	00H
	DD	0ffffffffH
	DD	00H
__tryblocktable$?OnAttemperEngineConclude@CAttemperEngineSink@@UAE_NPAUIUnknownEx@@@Z DD 00H
	DD	00H
	DD	01H
	DD	01H
	DD	FLAT:__catchsym$?OnAttemperEngineConclude@CAttemperEngineSink@@UAE_NPAUIUnknownEx@@@Z$6
	DD	02H
	DD	02H
	DD	03H
	DD	01H
	DD	FLAT:__catchsym$?OnAttemperEngineConclude@CAttemperEngineSink@@UAE_NPAUIUnknownEx@@@Z$7
	DD	04H
	DD	04H
	DD	05H
	DD	01H
	DD	FLAT:__catchsym$?OnAttemperEngineConclude@CAttemperEngineSink@@UAE_NPAUIUnknownEx@@@Z$8
xdata$x	ENDS
;	COMDAT xdata$x
xdata$x	SEGMENT
__catchsym$??1CAttemperEngineSink@@UAE@XZ$20 DD 040H
	DD	00H
	DD	00H
	DD	FLAT:__catch$??1CAttemperEngineSink@@UAE@XZ$4
__catchsym$??1CAttemperEngineSink@@UAE@XZ$19 DD 040H
	DD	00H
	DD	00H
	DD	FLAT:__catch$??1CAttemperEngineSink@@UAE@XZ$2
__catchsym$??1CAttemperEngineSink@@UAE@XZ$18 DD 040H
	DD	00H
	DD	00H
	DD	FLAT:__catch$??1CAttemperEngineSink@@UAE@XZ$0
__ehfuncinfo$??1CAttemperEngineSink@@UAE@XZ DD 019930522H
	DD	012H
	DD	FLAT:__unwindtable$??1CAttemperEngineSink@@UAE@XZ
	DD	03H
	DD	FLAT:__tryblocktable$??1CAttemperEngineSink@@UAE@XZ
	DD	2 DUP(00H)
	DD	00H
	DD	05H
__tryblocktable$??1CAttemperEngineSink@@UAE@XZ DD 0cH
	DD	0cH
	DD	0dH
	DD	01H
	DD	FLAT:__catchsym$??1CAttemperEngineSink@@UAE@XZ$18
	DD	0eH
	DD	0eH
	DD	0fH
	DD	01H
	DD	FLAT:__catchsym$??1CAttemperEngineSink@@UAE@XZ$19
	DD	010H
	DD	010H
	DD	011H
	DD	01H
	DD	FLAT:__catchsym$??1CAttemperEngineSink@@UAE@XZ$20
__unwindtable$??1CAttemperEngineSink@@UAE@XZ DD 0ffffffffH
	DD	FLAT:__unwindfunclet$??1CAttemperEngineSink@@UAE@XZ$6
	DD	00H
	DD	FLAT:__unwindfunclet$??1CAttemperEngineSink@@UAE@XZ$7
	DD	01H
	DD	FLAT:__unwindfunclet$??1CAttemperEngineSink@@UAE@XZ$8
	DD	02H
	DD	FLAT:__unwindfunclet$??1CAttemperEngineSink@@UAE@XZ$9
	DD	03H
	DD	FLAT:__unwindfunclet$??1CAttemperEngineSink@@UAE@XZ$10
	DD	04H
	DD	FLAT:__unwindfunclet$??1CAttemperEngineSink@@UAE@XZ$11
	DD	05H
	DD	FLAT:__unwindfunclet$??1CAttemperEngineSink@@UAE@XZ$12
	DD	06H
	DD	FLAT:__unwindfunclet$??1CAttemperEngineSink@@UAE@XZ$13
	DD	07H
	DD	FLAT:__unwindfunclet$??1CAttemperEngineSink@@UAE@XZ$14
	DD	08H
	DD	FLAT:__unwindfunclet$??1CAttemperEngineSink@@UAE@XZ$15
	DD	09H
	DD	FLAT:__unwindfunclet$??1CAttemperEngineSink@@UAE@XZ$16
	DD	0aH
	DD	FLAT:__unwindfunclet$??1CAttemperEngineSink@@UAE@XZ$17
	DD	0bH
	DD	00H
	DD	0bH
	DD	00H
	DD	0bH
	DD	00H
	DD	0bH
	DD	00H
	DD	0bH
	DD	00H
	DD	0bH
	DD	00H
xdata$x	ENDS
;	COMDAT xdata$x
xdata$x	SEGMENT
__ehfuncinfo$??0CAttemperEngineSink@@QAE@XZ DD 019930522H
	DD	0bH
	DD	FLAT:__unwindtable$??0CAttemperEngineSink@@QAE@XZ
	DD	2 DUP(00H)
	DD	2 DUP(00H)
	DD	00H
	DD	01H
__unwindtable$??0CAttemperEngineSink@@QAE@XZ DD 0ffffffffH
	DD	FLAT:__unwindfunclet$??0CAttemperEngineSink@@QAE@XZ$0
	DD	00H
	DD	FLAT:__unwindfunclet$??0CAttemperEngineSink@@QAE@XZ$1
	DD	01H
	DD	FLAT:__unwindfunclet$??0CAttemperEngineSink@@QAE@XZ$2
	DD	02H
	DD	FLAT:__unwindfunclet$??0CAttemperEngineSink@@QAE@XZ$3
	DD	03H
	DD	FLAT:__unwindfunclet$??0CAttemperEngineSink@@QAE@XZ$4
	DD	04H
	DD	FLAT:__unwindfunclet$??0CAttemperEngineSink@@QAE@XZ$5
	DD	05H
	DD	FLAT:__unwindfunclet$??0CAttemperEngineSink@@QAE@XZ$6
	DD	06H
	DD	FLAT:__unwindfunclet$??0CAttemperEngineSink@@QAE@XZ$7
	DD	07H
	DD	FLAT:__unwindfunclet$??0CAttemperEngineSink@@QAE@XZ$8
	DD	08H
	DD	FLAT:__unwindfunclet$??0CAttemperEngineSink@@QAE@XZ$9
	DD	09H
	DD	FLAT:__unwindfunclet$??0CAttemperEngineSink@@QAE@XZ$10
xdata$x	ENDS
;	COMDAT xdata$x
xdata$x	SEGMENT
__ehfuncinfo$??1?$CMap@KKKAAK@@UAE@XZ DD 019930522H
	DD	00H
	DD	00H
	DD	2 DUP(00H)
	DD	2 DUP(00H)
	DD	00H
	DD	05H
xdata$x	ENDS
;	COMDAT xdata$x
xdata$x	SEGMENT
__unwindtable$??0?$CMap@KKKAAK@@QAE@H@Z DD 0ffffffffH
	DD	FLAT:__unwindfunclet$??0?$CMap@KKKAAK@@QAE@H@Z$0
__ehfuncinfo$??0?$CMap@KKKAAK@@QAE@H@Z DD 019930522H
	DD	01H
	DD	FLAT:__unwindtable$??0?$CMap@KKKAAK@@QAE@H@Z
	DD	2 DUP(00H)
	DD	2 DUP(00H)
	DD	00H
	DD	01H
xdata$x	ENDS
;	COMDAT CRT$XCU
CRT$XCU	SEGMENT
?atlTraceString$initializer$@ATL@@3P6AXXZA DD FLAT:??__EatlTraceString@ATL@@YAXXZ ; ATL::atlTraceString$initializer$
CRT$XCU	ENDS
; Function compile flags: /Odsp /ZI
;	COMDAT ?QueryInterface@CAttemperEngineSink@@W7AEPAXABU_GUID@@K@Z
_TEXT	SEGMENT
?QueryInterface@CAttemperEngineSink@@W7AEPAXABU_GUID@@K@Z PROC ; [thunk]:CAttemperEngineSink::QueryInterface`adjustor{8}', COMDAT
  00000	83 e9 08	 sub	 ecx, 8
  00003	e9 00 00 00 00	 jmp	 ?QueryInterface@CAttemperEngineSink@@UAEPAXABU_GUID@@K@Z ; CAttemperEngineSink::QueryInterface
?QueryInterface@CAttemperEngineSink@@W7AEPAXABU_GUID@@K@Z ENDP ; [thunk]:CAttemperEngineSink::QueryInterface`adjustor{8}'
_TEXT	ENDS
; Function compile flags: /Odsp /ZI
;	COMDAT ?Release@CAttemperEngineSink@@W7AEXXZ
_TEXT	SEGMENT
?Release@CAttemperEngineSink@@W7AEXXZ PROC		; [thunk]:CAttemperEngineSink::Release`adjustor{8}', COMDAT
  00000	83 e9 08	 sub	 ecx, 8
  00003	e9 00 00 00 00	 jmp	 ?Release@CAttemperEngineSink@@UAEXXZ ; CAttemperEngineSink::Release
?Release@CAttemperEngineSink@@W7AEXXZ ENDP		; [thunk]:CAttemperEngineSink::Release`adjustor{8}'
_TEXT	ENDS
; Function compile flags: /Odsp /ZI
;	COMDAT ?QueryInterface@CAttemperEngineSink@@W3AEPAXABU_GUID@@K@Z
_TEXT	SEGMENT
?QueryInterface@CAttemperEngineSink@@W3AEPAXABU_GUID@@K@Z PROC ; [thunk]:CAttemperEngineSink::QueryInterface`adjustor{4}', COMDAT
  00000	83 e9 04	 sub	 ecx, 4
  00003	e9 00 00 00 00	 jmp	 ?QueryInterface@CAttemperEngineSink@@UAEPAXABU_GUID@@K@Z ; CAttemperEngineSink::QueryInterface
?QueryInterface@CAttemperEngineSink@@W3AEPAXABU_GUID@@K@Z ENDP ; [thunk]:CAttemperEngineSink::QueryInterface`adjustor{4}'
_TEXT	ENDS
; Function compile flags: /Odsp /ZI
;	COMDAT ?Release@CAttemperEngineSink@@W3AEXXZ
_TEXT	SEGMENT
?Release@CAttemperEngineSink@@W3AEXXZ PROC		; [thunk]:CAttemperEngineSink::Release`adjustor{4}', COMDAT
  00000	83 e9 04	 sub	 ecx, 4
  00003	e9 00 00 00 00	 jmp	 ?Release@CAttemperEngineSink@@UAEXXZ ; CAttemperEngineSink::Release
?Release@CAttemperEngineSink@@W3AEXXZ ENDP		; [thunk]:CAttemperEngineSink::Release`adjustor{4}'
_TEXT	ENDS
; Function compile flags: /Odtp /ZI
; File c:\program files (x86)\microsoft visual studio\2017\community\vc\tools\msvc\14.16.27023\atlmfc\include\afxtempl.h
;	COMDAT ??0CAssoc@?$CMap@KKKAAK@@QAE@K@Z
_TEXT	SEGMENT
_this$ = -4						; size = 4
_key$ = 8						; size = 4
??0CAssoc@?$CMap@KKKAAK@@QAE@K@Z PROC			; CMap<unsigned long,unsigned long,unsigned long,unsigned long &>::CAssoc::CAssoc, COMDAT
; _this$ = ecx

; 1267 : 		CAssoc( ARG_KEY key ) : CPair( key ) {}

  00000	55		 push	 ebp
  00001	8b ec		 mov	 ebp, esp
  00003	83 ec 44	 sub	 esp, 68			; 00000044H
  00006	53		 push	 ebx
  00007	56		 push	 esi
  00008	57		 push	 edi
  00009	89 4d fc	 mov	 DWORD PTR _this$[ebp], ecx
  0000c	8b 45 08	 mov	 eax, DWORD PTR _key$[ebp]
  0000f	50		 push	 eax
  00010	8b 4d fc	 mov	 ecx, DWORD PTR _this$[ebp]
  00013	e8 00 00 00 00	 call	 ??0CPair@?$CMap@KKKAAK@@IAE@K@Z ; CMap<unsigned long,unsigned long,unsigned long,unsigned long &>::CPair::CPair
  00018	8b 45 fc	 mov	 eax, DWORD PTR _this$[ebp]
  0001b	5f		 pop	 edi
  0001c	5e		 pop	 esi
  0001d	5b		 pop	 ebx
  0001e	8b e5		 mov	 esp, ebp
  00020	5d		 pop	 ebp
  00021	c2 04 00	 ret	 4
??0CAssoc@?$CMap@KKKAAK@@QAE@K@Z ENDP			; CMap<unsigned long,unsigned long,unsigned long,unsigned long &>::CAssoc::CAssoc
_TEXT	ENDS
; Function compile flags: /Odtp /ZI
; File c:\program files (x86)\microsoft visual studio\2017\community\vc\tools\msvc\14.16.27023\atlmfc\include\afxtempl.h
;	COMDAT ??0CPair@?$CMap@KKKAAK@@IAE@K@Z
_TEXT	SEGMENT
_this$ = -4						; size = 4
_keyval$ = 8						; size = 4
??0CPair@?$CMap@KKKAAK@@IAE@K@Z PROC			; CMap<unsigned long,unsigned long,unsigned long,unsigned long &>::CPair::CPair, COMDAT
; _this$ = ecx

; 1256 : 		CPair( ARG_KEY keyval ) : key( keyval )	{}

  00000	55		 push	 ebp
  00001	8b ec		 mov	 ebp, esp
  00003	83 ec 44	 sub	 esp, 68			; 00000044H
  00006	53		 push	 ebx
  00007	56		 push	 esi
  00008	57		 push	 edi
  00009	89 4d fc	 mov	 DWORD PTR _this$[ebp], ecx
  0000c	8b 45 fc	 mov	 eax, DWORD PTR _this$[ebp]
  0000f	8b 4d 08	 mov	 ecx, DWORD PTR _keyval$[ebp]
  00012	89 08		 mov	 DWORD PTR [eax], ecx
  00014	8b 45 fc	 mov	 eax, DWORD PTR _this$[ebp]
  00017	5f		 pop	 edi
  00018	5e		 pop	 esi
  00019	5b		 pop	 ebx
  0001a	8b e5		 mov	 esp, ebp
  0001c	5d		 pop	 ebp
  0001d	c2 04 00	 ret	 4
??0CPair@?$CMap@KKKAAK@@IAE@K@Z ENDP			; CMap<unsigned long,unsigned long,unsigned long,unsigned long &>::CPair::CPair
_TEXT	ENDS
; Function compile flags: /Odtp /ZI
;	COMDAT ??_G?$CWHArray@UtagDistributeInfo@@ABU1@@@UAEPAXI@Z
_TEXT	SEGMENT
_this$ = -4						; size = 4
___flags$ = 8						; size = 4
??_G?$CWHArray@UtagDistributeInfo@@ABU1@@@UAEPAXI@Z PROC ; CWHArray<tagDistributeInfo,tagDistributeInfo const &>::`scalar deleting destructor', COMDAT
; _this$ = ecx
  00000	55		 push	 ebp
  00001	8b ec		 mov	 ebp, esp
  00003	83 ec 44	 sub	 esp, 68			; 00000044H
  00006	53		 push	 ebx
  00007	56		 push	 esi
  00008	57		 push	 edi
  00009	89 4d fc	 mov	 DWORD PTR _this$[ebp], ecx
  0000c	8b 4d fc	 mov	 ecx, DWORD PTR _this$[ebp]
  0000f	e8 00 00 00 00	 call	 ??1?$CWHArray@UtagDistributeInfo@@ABU1@@@UAE@XZ ; CWHArray<tagDistributeInfo,tagDistributeInfo const &>::~CWHArray<tagDistributeInfo,tagDistributeInfo const &>
  00014	8b 45 08	 mov	 eax, DWORD PTR ___flags$[ebp]
  00017	83 e0 01	 and	 eax, 1
  0001a	74 0e		 je	 SHORT $LN2@scalar
  0001c	6a 14		 push	 20			; 00000014H
  0001e	8b 45 fc	 mov	 eax, DWORD PTR _this$[ebp]
  00021	50		 push	 eax
  00022	e8 00 00 00 00	 call	 ??3@YAXPAXI@Z		; operator delete
  00027	83 c4 08	 add	 esp, 8
$LN2@scalar:
  0002a	8b 45 fc	 mov	 eax, DWORD PTR _this$[ebp]
  0002d	5f		 pop	 edi
  0002e	5e		 pop	 esi
  0002f	5b		 pop	 ebx
  00030	8b e5		 mov	 esp, ebp
  00032	5d		 pop	 ebp
  00033	c2 04 00	 ret	 4
??_G?$CWHArray@UtagDistributeInfo@@ABU1@@@UAEPAXI@Z ENDP ; CWHArray<tagDistributeInfo,tagDistributeInfo const &>::`scalar deleting destructor'
_TEXT	ENDS
; Function compile flags: /Odtp /ZI
; File g:\网狐\happygamewh\服务端\系统模块\全局定义\array.h
;	COMDAT ??A?$CWHArray@UtagDistributeInfo@@ABU1@@@QAEAAUtagDistributeInfo@@H@Z
_TEXT	SEGMENT
_this$ = -4						; size = 4
_nIndex$ = 8						; size = 4
??A?$CWHArray@UtagDistributeInfo@@ABU1@@@QAEAAUtagDistributeInfo@@H@Z PROC ; CWHArray<tagDistributeInfo,tagDistributeInfo const &>::operator[], COMDAT
; _this$ = ecx

; 114  : { 

  00000	55		 push	 ebp
  00001	8b ec		 mov	 ebp, esp
  00003	83 ec 44	 sub	 esp, 68			; 00000044H
  00006	53		 push	 ebx
  00007	56		 push	 esi
  00008	57		 push	 edi
  00009	89 4d fc	 mov	 DWORD PTR _this$[ebp], ecx

; 115  : 	return ElementAt(nIndex);

  0000c	8b 45 08	 mov	 eax, DWORD PTR _nIndex$[ebp]
  0000f	50		 push	 eax
  00010	8b 4d fc	 mov	 ecx, DWORD PTR _this$[ebp]
  00013	e8 00 00 00 00	 call	 ?ElementAt@?$CWHArray@UtagDistributeInfo@@ABU1@@@QAEAAUtagDistributeInfo@@H@Z ; CWHArray<tagDistributeInfo,tagDistributeInfo const &>::ElementAt

; 116  : }

  00018	5f		 pop	 edi
  00019	5e		 pop	 esi
  0001a	5b		 pop	 ebx
  0001b	8b e5		 mov	 esp, ebp
  0001d	5d		 pop	 ebp
  0001e	c2 04 00	 ret	 4
??A?$CWHArray@UtagDistributeInfo@@ABU1@@@QAEAAUtagDistributeInfo@@H@Z ENDP ; CWHArray<tagDistributeInfo,tagDistributeInfo const &>::operator[]
_TEXT	ENDS
; Function compile flags: /Odtp /ZI
; File g:\网狐\happygamewh\服务端\系统模块\全局定义\array.h
;	COMDAT ?RemoveAt@?$CWHArray@UtagDistributeInfo@@ABU1@@@QAEXHH@Z
_TEXT	SEGMENT
_i$1 = -12						; size = 4
_nMoveCount$ = -8					; size = 4
_this$ = -4						; size = 4
_nIndex$ = 8						; size = 4
_nCount$ = 12						; size = 4
?RemoveAt@?$CWHArray@UtagDistributeInfo@@ABU1@@@QAEXHH@Z PROC ; CWHArray<tagDistributeInfo,tagDistributeInfo const &>::RemoveAt, COMDAT
; _this$ = ecx

; 360  : {

  00000	55		 push	 ebp
  00001	8b ec		 mov	 ebp, esp
  00003	83 ec 4c	 sub	 esp, 76			; 0000004cH
  00006	53		 push	 ebx
  00007	56		 push	 esi
  00008	57		 push	 edi
  00009	89 4d fc	 mov	 DWORD PTR _this$[ebp], ecx

; 361  : 	//效验参数
; 362  : 	ASSERT(nIndex>=0);

  0000c	83 7d 08 00	 cmp	 DWORD PTR _nIndex$[ebp], 0
  00010	7d 14		 jge	 SHORT $LN9@RemoveAt
  00012	68 6a 01 00 00	 push	 362			; 0000016aH
  00017	68 00 00 00 00	 push	 OFFSET ??_C@_0DF@LDFGAABH@g?3?2?M?x?$LK?$PM?2happygamewh?2?$LH?$PO?N?q?$LG?K?2?O?$LF?M?$LD@
  0001c	e8 00 00 00 00	 call	 ?AfxAssertFailedLine@@YGHPBDH@Z ; AfxAssertFailedLine
  00021	85 c0		 test	 eax, eax
  00023	74 01		 je	 SHORT $LN9@RemoveAt
  00025	cc		 int	 3
$LN9@RemoveAt:

; 363  : 	ASSERT(nCount>=0);

  00026	83 7d 0c 00	 cmp	 DWORD PTR _nCount$[ebp], 0
  0002a	7d 14		 jge	 SHORT $LN10@RemoveAt
  0002c	68 6b 01 00 00	 push	 363			; 0000016bH
  00031	68 00 00 00 00	 push	 OFFSET ??_C@_0DF@LDFGAABH@g?3?2?M?x?$LK?$PM?2happygamewh?2?$LH?$PO?N?q?$LG?K?2?O?$LF?M?$LD@
  00036	e8 00 00 00 00	 call	 ?AfxAssertFailedLine@@YGHPBDH@Z ; AfxAssertFailedLine
  0003b	85 c0		 test	 eax, eax
  0003d	74 01		 je	 SHORT $LN10@RemoveAt
  0003f	cc		 int	 3
$LN10@RemoveAt:

; 364  : 	ASSERT(nIndex+nCount<=m_nElementCount);

  00040	8b 45 08	 mov	 eax, DWORD PTR _nIndex$[ebp]
  00043	03 45 0c	 add	 eax, DWORD PTR _nCount$[ebp]
  00046	8b 4d fc	 mov	 ecx, DWORD PTR _this$[ebp]
  00049	3b 41 10	 cmp	 eax, DWORD PTR [ecx+16]
  0004c	7e 14		 jle	 SHORT $LN11@RemoveAt
  0004e	68 6c 01 00 00	 push	 364			; 0000016cH
  00053	68 00 00 00 00	 push	 OFFSET ??_C@_0DF@LDFGAABH@g?3?2?M?x?$LK?$PM?2happygamewh?2?$LH?$PO?N?q?$LG?K?2?O?$LF?M?$LD@
  00058	e8 00 00 00 00	 call	 ?AfxAssertFailedLine@@YGHPBDH@Z ; AfxAssertFailedLine
  0005d	85 c0		 test	 eax, eax
  0005f	74 01		 je	 SHORT $LN11@RemoveAt
  00061	cc		 int	 3
$LN11@RemoveAt:

; 365  : 	if ((nIndex<0)||(nCount<0)||((nIndex+nCount>m_nElementCount))) AfxThrowInvalidArgException();

  00062	83 7d 08 00	 cmp	 DWORD PTR _nIndex$[ebp], 0
  00066	7c 14		 jl	 SHORT $LN6@RemoveAt
  00068	83 7d 0c 00	 cmp	 DWORD PTR _nCount$[ebp], 0
  0006c	7c 0e		 jl	 SHORT $LN6@RemoveAt
  0006e	8b 45 08	 mov	 eax, DWORD PTR _nIndex$[ebp]
  00071	03 45 0c	 add	 eax, DWORD PTR _nCount$[ebp]
  00074	8b 4d fc	 mov	 ecx, DWORD PTR _this$[ebp]
  00077	3b 41 10	 cmp	 eax, DWORD PTR [ecx+16]
  0007a	7e 05		 jle	 SHORT $LN5@RemoveAt
$LN6@RemoveAt:
  0007c	e8 00 00 00 00	 call	 ?AfxThrowInvalidArgException@@YGXXZ ; AfxThrowInvalidArgException
$LN5@RemoveAt:

; 366  : 
; 367  : 	//删除数据
; 368  : 	INT_PTR nMoveCount=m_nElementCount-(nIndex+nCount);

  00081	8b 45 08	 mov	 eax, DWORD PTR _nIndex$[ebp]
  00084	03 45 0c	 add	 eax, DWORD PTR _nCount$[ebp]
  00087	8b 4d fc	 mov	 ecx, DWORD PTR _this$[ebp]
  0008a	8b 51 10	 mov	 edx, DWORD PTR [ecx+16]
  0008d	2b d0		 sub	 edx, eax
  0008f	89 55 f8	 mov	 DWORD PTR _nMoveCount$[ebp], edx

; 369  : 	for (INT_PTR i=0;i<nCount;i++) (m_pData+nIndex+i)->~TYPE();

  00092	c7 45 f4 00 00
	00 00		 mov	 DWORD PTR _i$1[ebp], 0
  00099	eb 09		 jmp	 SHORT $LN4@RemoveAt
$LN2@RemoveAt:
  0009b	8b 45 f4	 mov	 eax, DWORD PTR _i$1[ebp]
  0009e	83 c0 01	 add	 eax, 1
  000a1	89 45 f4	 mov	 DWORD PTR _i$1[ebp], eax
$LN4@RemoveAt:
  000a4	8b 45 f4	 mov	 eax, DWORD PTR _i$1[ebp]
  000a7	3b 45 0c	 cmp	 eax, DWORD PTR _nCount$[ebp]
  000aa	7d 02		 jge	 SHORT $LN3@RemoveAt
  000ac	eb ed		 jmp	 SHORT $LN2@RemoveAt
$LN3@RemoveAt:

; 370  : 	if (nMoveCount>0) memmove(m_pData+nIndex,m_pData+nIndex+nCount,nMoveCount*sizeof(TYPE));

  000ae	83 7d f8 00	 cmp	 DWORD PTR _nMoveCount$[ebp], 0
  000b2	7e 2b		 jle	 SHORT $LN7@RemoveAt
  000b4	6b 45 f8 0c	 imul	 eax, DWORD PTR _nMoveCount$[ebp], 12
  000b8	50		 push	 eax
  000b9	6b 4d 08 0c	 imul	 ecx, DWORD PTR _nIndex$[ebp], 12
  000bd	8b 55 fc	 mov	 edx, DWORD PTR _this$[ebp]
  000c0	8b 42 04	 mov	 eax, DWORD PTR [edx+4]
  000c3	03 c1		 add	 eax, ecx
  000c5	6b 4d 0c 0c	 imul	 ecx, DWORD PTR _nCount$[ebp], 12
  000c9	03 c1		 add	 eax, ecx
  000cb	50		 push	 eax
  000cc	6b 55 08 0c	 imul	 edx, DWORD PTR _nIndex$[ebp], 12
  000d0	8b 45 fc	 mov	 eax, DWORD PTR _this$[ebp]
  000d3	03 50 04	 add	 edx, DWORD PTR [eax+4]
  000d6	52		 push	 edx
  000d7	e8 00 00 00 00	 call	 _memmove
  000dc	83 c4 0c	 add	 esp, 12			; 0000000cH
$LN7@RemoveAt:

; 371  : 	m_nElementCount-=nCount;

  000df	8b 45 fc	 mov	 eax, DWORD PTR _this$[ebp]
  000e2	8b 48 10	 mov	 ecx, DWORD PTR [eax+16]
  000e5	2b 4d 0c	 sub	 ecx, DWORD PTR _nCount$[ebp]
  000e8	8b 55 fc	 mov	 edx, DWORD PTR _this$[ebp]
  000eb	89 4a 10	 mov	 DWORD PTR [edx+16], ecx
$LN8@RemoveAt:

; 372  : 
; 373  : 	return;
; 374  : }

  000ee	5f		 pop	 edi
  000ef	5e		 pop	 esi
  000f0	5b		 pop	 ebx
  000f1	8b e5		 mov	 esp, ebp
  000f3	5d		 pop	 ebp
  000f4	c2 08 00	 ret	 8
?RemoveAt@?$CWHArray@UtagDistributeInfo@@ABU1@@@QAEXHH@Z ENDP ; CWHArray<tagDistributeInfo,tagDistributeInfo const &>::RemoveAt
_TEXT	ENDS
; Function compile flags: /Odtp /ZI
; File g:\网狐\happygamewh\服务端\系统模块\全局定义\array.h
;	COMDAT ?ElementAt@?$CWHArray@UtagDistributeInfo@@ABU1@@@QAEAAUtagDistributeInfo@@H@Z
_TEXT	SEGMENT
_this$ = -4						; size = 4
_nIndex$ = 8						; size = 4
?ElementAt@?$CWHArray@UtagDistributeInfo@@ABU1@@@QAEAAUtagDistributeInfo@@H@Z PROC ; CWHArray<tagDistributeInfo,tagDistributeInfo const &>::ElementAt, COMDAT
; _this$ = ecx

; 232  : {

  00000	55		 push	 ebp
  00001	8b ec		 mov	 ebp, esp
  00003	83 ec 44	 sub	 esp, 68			; 00000044H
  00006	53		 push	 ebx
  00007	56		 push	 esi
  00008	57		 push	 edi
  00009	89 4d fc	 mov	 DWORD PTR _this$[ebp], ecx

; 233  : 	ASSERT((nIndex>=0)&&(nIndex<m_nElementCount));

  0000c	83 7d 08 00	 cmp	 DWORD PTR _nIndex$[ebp], 0
  00010	7c 0b		 jl	 SHORT $LN4@ElementAt
  00012	8b 45 fc	 mov	 eax, DWORD PTR _this$[ebp]
  00015	8b 4d 08	 mov	 ecx, DWORD PTR _nIndex$[ebp]
  00018	3b 48 10	 cmp	 ecx, DWORD PTR [eax+16]
  0001b	7c 14		 jl	 SHORT $LN5@ElementAt
$LN4@ElementAt:
  0001d	68 e9 00 00 00	 push	 233			; 000000e9H
  00022	68 00 00 00 00	 push	 OFFSET ??_C@_0DF@LDFGAABH@g?3?2?M?x?$LK?$PM?2happygamewh?2?$LH?$PO?N?q?$LG?K?2?O?$LF?M?$LD@
  00027	e8 00 00 00 00	 call	 ?AfxAssertFailedLine@@YGHPBDH@Z ; AfxAssertFailedLine
  0002c	85 c0		 test	 eax, eax
  0002e	74 01		 je	 SHORT $LN5@ElementAt
  00030	cc		 int	 3
$LN5@ElementAt:

; 234  : 	if ((nIndex<0)&&(nIndex>=m_nElementCount)) AfxThrowInvalidArgException();

  00031	83 7d 08 00	 cmp	 DWORD PTR _nIndex$[ebp], 0
  00035	7d 10		 jge	 SHORT $LN2@ElementAt
  00037	8b 45 fc	 mov	 eax, DWORD PTR _this$[ebp]
  0003a	8b 4d 08	 mov	 ecx, DWORD PTR _nIndex$[ebp]
  0003d	3b 48 10	 cmp	 ecx, DWORD PTR [eax+16]
  00040	7c 05		 jl	 SHORT $LN2@ElementAt
  00042	e8 00 00 00 00	 call	 ?AfxThrowInvalidArgException@@YGXXZ ; AfxThrowInvalidArgException
$LN2@ElementAt:

; 235  : 	
; 236  : 	return m_pData[nIndex];

  00047	6b 45 08 0c	 imul	 eax, DWORD PTR _nIndex$[ebp], 12
  0004b	8b 4d fc	 mov	 ecx, DWORD PTR _this$[ebp]
  0004e	03 41 04	 add	 eax, DWORD PTR [ecx+4]
$LN3@ElementAt:

; 237  : }

  00051	5f		 pop	 edi
  00052	5e		 pop	 esi
  00053	5b		 pop	 ebx
  00054	8b e5		 mov	 esp, ebp
  00056	5d		 pop	 ebp
  00057	c2 04 00	 ret	 4
?ElementAt@?$CWHArray@UtagDistributeInfo@@ABU1@@@QAEAAUtagDistributeInfo@@H@Z ENDP ; CWHArray<tagDistributeInfo,tagDistributeInfo const &>::ElementAt
_TEXT	ENDS
; Function compile flags: /Odtp /ZI
; File g:\网狐\happygamewh\服务端\系统模块\全局定义\array.h
;	COMDAT ?GetCount@?$CWHArray@UtagDistributeInfo@@ABU1@@@QBEHXZ
_TEXT	SEGMENT
_this$ = -4						; size = 4
?GetCount@?$CWHArray@UtagDistributeInfo@@ABU1@@@QBEHXZ PROC ; CWHArray<tagDistributeInfo,tagDistributeInfo const &>::GetCount, COMDAT
; _this$ = ecx

; 98   : {

  00000	55		 push	 ebp
  00001	8b ec		 mov	 ebp, esp
  00003	83 ec 44	 sub	 esp, 68			; 00000044H
  00006	53		 push	 ebx
  00007	56		 push	 esi
  00008	57		 push	 edi
  00009	89 4d fc	 mov	 DWORD PTR _this$[ebp], ecx

; 99   : 	return m_nElementCount;

  0000c	8b 45 fc	 mov	 eax, DWORD PTR _this$[ebp]
  0000f	8b 40 10	 mov	 eax, DWORD PTR [eax+16]

; 100  : }

  00012	5f		 pop	 edi
  00013	5e		 pop	 esi
  00014	5b		 pop	 ebx
  00015	8b e5		 mov	 esp, ebp
  00017	5d		 pop	 ebp
  00018	c3		 ret	 0
?GetCount@?$CWHArray@UtagDistributeInfo@@ABU1@@@QBEHXZ ENDP ; CWHArray<tagDistributeInfo,tagDistributeInfo const &>::GetCount
_TEXT	ENDS
; Function compile flags: /Odtp /ZI
; File g:\网狐\happygamewh\服务端\系统模块\全局定义\array.h
;	COMDAT ??1?$CWHArray@UtagDistributeInfo@@ABU1@@@UAE@XZ
_TEXT	SEGMENT
$T1 = -76						; size = 4
_i$2 = -8						; size = 4
_this$ = -4						; size = 4
??1?$CWHArray@UtagDistributeInfo@@ABU1@@@UAE@XZ PROC	; CWHArray<tagDistributeInfo,tagDistributeInfo const &>::~CWHArray<tagDistributeInfo,tagDistributeInfo const &>, COMDAT
; _this$ = ecx

; 143  : {

  00000	55		 push	 ebp
  00001	8b ec		 mov	 ebp, esp
  00003	83 ec 4c	 sub	 esp, 76			; 0000004cH
  00006	53		 push	 ebx
  00007	56		 push	 esi
  00008	57		 push	 edi
  00009	89 4d fc	 mov	 DWORD PTR _this$[ebp], ecx
  0000c	8b 45 fc	 mov	 eax, DWORD PTR _this$[ebp]
  0000f	c7 00 00 00 00
	00		 mov	 DWORD PTR [eax], OFFSET ??_7?$CWHArray@UtagDistributeInfo@@ABU1@@@6B@

; 144  : 	if (m_pData!=NULL)

  00015	8b 45 fc	 mov	 eax, DWORD PTR _this$[ebp]
  00018	83 78 04 00	 cmp	 DWORD PTR [eax+4], 0
  0001c	74 3e		 je	 SHORT $LN6@CWHArray

; 145  : 	{
; 146  : 		for (INT_PTR i=0;i<m_nElementCount;i++)	(m_pData+i)->~TYPE();

  0001e	c7 45 f8 00 00
	00 00		 mov	 DWORD PTR _i$2[ebp], 0
  00025	eb 09		 jmp	 SHORT $LN4@CWHArray
$LN2@CWHArray:
  00027	8b 45 f8	 mov	 eax, DWORD PTR _i$2[ebp]
  0002a	83 c0 01	 add	 eax, 1
  0002d	89 45 f8	 mov	 DWORD PTR _i$2[ebp], eax
$LN4@CWHArray:
  00030	8b 45 fc	 mov	 eax, DWORD PTR _this$[ebp]
  00033	8b 4d f8	 mov	 ecx, DWORD PTR _i$2[ebp]
  00036	3b 48 10	 cmp	 ecx, DWORD PTR [eax+16]
  00039	7d 02		 jge	 SHORT $LN3@CWHArray
  0003b	eb ea		 jmp	 SHORT $LN2@CWHArray
$LN3@CWHArray:

; 147  : 		delete [] (BYTE *)m_pData;

  0003d	8b 45 fc	 mov	 eax, DWORD PTR _this$[ebp]
  00040	8b 48 04	 mov	 ecx, DWORD PTR [eax+4]
  00043	89 4d b4	 mov	 DWORD PTR $T1[ebp], ecx
  00046	8b 55 b4	 mov	 edx, DWORD PTR $T1[ebp]
  00049	52		 push	 edx
  0004a	e8 00 00 00 00	 call	 ??_V@YAXPAX@Z		; operator delete[]
  0004f	83 c4 04	 add	 esp, 4

; 148  : 		m_pData=NULL;

  00052	8b 45 fc	 mov	 eax, DWORD PTR _this$[ebp]
  00055	c7 40 04 00 00
	00 00		 mov	 DWORD PTR [eax+4], 0
$LN6@CWHArray:

; 149  : 	}
; 150  : 
; 151  : 	return;
; 152  : }

  0005c	5f		 pop	 edi
  0005d	5e		 pop	 esi
  0005e	5b		 pop	 ebx
  0005f	8b e5		 mov	 esp, ebp
  00061	5d		 pop	 ebp
  00062	c3		 ret	 0
??1?$CWHArray@UtagDistributeInfo@@ABU1@@@UAE@XZ ENDP	; CWHArray<tagDistributeInfo,tagDistributeInfo const &>::~CWHArray<tagDistributeInfo,tagDistributeInfo const &>
_TEXT	ENDS
; Function compile flags: /Odtp /ZI
; File g:\网狐\happygamewh\服务端\系统模块\全局定义\array.h
;	COMDAT ??0?$CWHArray@UtagDistributeInfo@@ABU1@@@QAE@XZ
_TEXT	SEGMENT
_this$ = -4						; size = 4
??0?$CWHArray@UtagDistributeInfo@@ABU1@@@QAE@XZ PROC	; CWHArray<tagDistributeInfo,tagDistributeInfo const &>::CWHArray<tagDistributeInfo,tagDistributeInfo const &>, COMDAT
; _this$ = ecx

; 131  : {

  00000	55		 push	 ebp
  00001	8b ec		 mov	 ebp, esp
  00003	83 ec 44	 sub	 esp, 68			; 00000044H
  00006	53		 push	 ebx
  00007	56		 push	 esi
  00008	57		 push	 edi
  00009	89 4d fc	 mov	 DWORD PTR _this$[ebp], ecx
  0000c	8b 45 fc	 mov	 eax, DWORD PTR _this$[ebp]
  0000f	c7 00 00 00 00
	00		 mov	 DWORD PTR [eax], OFFSET ??_7?$CWHArray@UtagDistributeInfo@@ABU1@@@6B@

; 132  : 	m_pData=NULL;

  00015	8b 45 fc	 mov	 eax, DWORD PTR _this$[ebp]
  00018	c7 40 04 00 00
	00 00		 mov	 DWORD PTR [eax+4], 0

; 133  : 	m_nMaxCount=0;

  0001f	8b 45 fc	 mov	 eax, DWORD PTR _this$[ebp]
  00022	c7 40 08 00 00
	00 00		 mov	 DWORD PTR [eax+8], 0

; 134  : 	m_nGrowCount=0;

  00029	8b 45 fc	 mov	 eax, DWORD PTR _this$[ebp]
  0002c	c7 40 0c 00 00
	00 00		 mov	 DWORD PTR [eax+12], 0

; 135  : 	m_nElementCount=0;

  00033	8b 45 fc	 mov	 eax, DWORD PTR _this$[ebp]
  00036	c7 40 10 00 00
	00 00		 mov	 DWORD PTR [eax+16], 0

; 136  : 
; 137  : 	return;
; 138  : }

  0003d	8b 45 fc	 mov	 eax, DWORD PTR _this$[ebp]
  00040	5f		 pop	 edi
  00041	5e		 pop	 esi
  00042	5b		 pop	 ebx
  00043	8b e5		 mov	 esp, ebp
  00045	5d		 pop	 ebp
  00046	c3		 ret	 0
??0?$CWHArray@UtagDistributeInfo@@ABU1@@@QAE@XZ ENDP	; CWHArray<tagDistributeInfo,tagDistributeInfo const &>::CWHArray<tagDistributeInfo,tagDistributeInfo const &>
_TEXT	ENDS
; Function compile flags: /Odtp /ZI
; File c:\program files (x86)\windows kits\10\include\10.0.17763.0\ucrt\stdio.h
;	COMDAT ??$_snprintf_s@$0EA@@@YAHAAY0EA@DIPBDZZ
_TEXT	SEGMENT
__ArgList$ = -4						; size = 4
__Buffer$ = 8						; size = 4
__BufferCount$ = 12					; size = 4
__Format$ = 16						; size = 4
??$_snprintf_s@$0EA@@@YAHAAY0EA@DIPBDZZ PROC		; _snprintf_s<64>, COMDAT

; 2079 :         )

  00000	55		 push	 ebp
  00001	8b ec		 mov	 ebp, esp
  00003	83 ec 48	 sub	 esp, 72			; 00000048H
  00006	53		 push	 ebx
  00007	56		 push	 esi
  00008	57		 push	 edi

; 2073 :     __DEFINE_CPP_OVERLOAD_SECURE_FUNC_0_2_ARGLIST(

  00009	8d 45 14	 lea	 eax, DWORD PTR __Format$[ebp+4]
  0000c	89 45 fc	 mov	 DWORD PTR __ArgList$[ebp], eax
  0000f	8b 45 fc	 mov	 eax, DWORD PTR __ArgList$[ebp]
  00012	50		 push	 eax
  00013	8b 4d 10	 mov	 ecx, DWORD PTR __Format$[ebp]
  00016	51		 push	 ecx
  00017	8b 55 0c	 mov	 edx, DWORD PTR __BufferCount$[ebp]
  0001a	52		 push	 edx
  0001b	6a 40		 push	 64			; 00000040H
  0001d	8b 45 08	 mov	 eax, DWORD PTR __Buffer$[ebp]
  00020	50		 push	 eax
  00021	e8 00 00 00 00	 call	 __vsnprintf_s
  00026	83 c4 14	 add	 esp, 20			; 00000014H
  00029	5f		 pop	 edi
  0002a	5e		 pop	 esi
  0002b	5b		 pop	 ebx
  0002c	8b e5		 mov	 esp, ebp
  0002e	5d		 pop	 ebp
  0002f	c3		 ret	 0
??$_snprintf_s@$0EA@@@YAHAAY0EA@DIPBDZZ ENDP		; _snprintf_s<64>
_TEXT	ENDS
; Function compile flags: /Odtp /ZI
; File c:\program files (x86)\windows kits\10\include\10.0.17763.0\ucrt\stdio.h
;	COMDAT ??$_snprintf_s@$0BAA@@@YAHAAY0BAA@DIPBDZZ
_TEXT	SEGMENT
__ArgList$ = -4						; size = 4
__Buffer$ = 8						; size = 4
__BufferCount$ = 12					; size = 4
__Format$ = 16						; size = 4
??$_snprintf_s@$0BAA@@@YAHAAY0BAA@DIPBDZZ PROC		; _snprintf_s<256>, COMDAT

; 2079 :         )

  00000	55		 push	 ebp
  00001	8b ec		 mov	 ebp, esp
  00003	83 ec 48	 sub	 esp, 72			; 00000048H
  00006	53		 push	 ebx
  00007	56		 push	 esi
  00008	57		 push	 edi

; 2073 :     __DEFINE_CPP_OVERLOAD_SECURE_FUNC_0_2_ARGLIST(

  00009	8d 45 14	 lea	 eax, DWORD PTR __Format$[ebp+4]
  0000c	89 45 fc	 mov	 DWORD PTR __ArgList$[ebp], eax
  0000f	8b 45 fc	 mov	 eax, DWORD PTR __ArgList$[ebp]
  00012	50		 push	 eax
  00013	8b 4d 10	 mov	 ecx, DWORD PTR __Format$[ebp]
  00016	51		 push	 ecx
  00017	8b 55 0c	 mov	 edx, DWORD PTR __BufferCount$[ebp]
  0001a	52		 push	 edx
  0001b	68 00 01 00 00	 push	 256			; 00000100H
  00020	8b 45 08	 mov	 eax, DWORD PTR __Buffer$[ebp]
  00023	50		 push	 eax
  00024	e8 00 00 00 00	 call	 __vsnprintf_s
  00029	83 c4 14	 add	 esp, 20			; 00000014H
  0002c	5f		 pop	 edi
  0002d	5e		 pop	 esi
  0002e	5b		 pop	 ebx
  0002f	8b e5		 mov	 esp, ebp
  00031	5d		 pop	 ebp
  00032	c3		 ret	 0
??$_snprintf_s@$0BAA@@@YAHAAY0BAA@DIPBDZZ ENDP		; _snprintf_s<256>
_TEXT	ENDS
; Function compile flags: /Odtp /ZI
; File c:\program files (x86)\windows kits\10\include\10.0.17763.0\ucrt\stdio.h
;	COMDAT ??$_snprintf_s@$0IA@@@YAHAAY0IA@DIPBDZZ
_TEXT	SEGMENT
__ArgList$ = -4						; size = 4
__Buffer$ = 8						; size = 4
__BufferCount$ = 12					; size = 4
__Format$ = 16						; size = 4
??$_snprintf_s@$0IA@@@YAHAAY0IA@DIPBDZZ PROC		; _snprintf_s<128>, COMDAT

; 2079 :         )

  00000	55		 push	 ebp
  00001	8b ec		 mov	 ebp, esp
  00003	83 ec 48	 sub	 esp, 72			; 00000048H
  00006	53		 push	 ebx
  00007	56		 push	 esi
  00008	57		 push	 edi

; 2073 :     __DEFINE_CPP_OVERLOAD_SECURE_FUNC_0_2_ARGLIST(

  00009	8d 45 14	 lea	 eax, DWORD PTR __Format$[ebp+4]
  0000c	89 45 fc	 mov	 DWORD PTR __ArgList$[ebp], eax
  0000f	8b 45 fc	 mov	 eax, DWORD PTR __ArgList$[ebp]
  00012	50		 push	 eax
  00013	8b 4d 10	 mov	 ecx, DWORD PTR __Format$[ebp]
  00016	51		 push	 ecx
  00017	8b 55 0c	 mov	 edx, DWORD PTR __BufferCount$[ebp]
  0001a	52		 push	 edx
  0001b	68 80 00 00 00	 push	 128			; 00000080H
  00020	8b 45 08	 mov	 eax, DWORD PTR __Buffer$[ebp]
  00023	50		 push	 eax
  00024	e8 00 00 00 00	 call	 __vsnprintf_s
  00029	83 c4 14	 add	 esp, 20			; 00000014H
  0002c	5f		 pop	 edi
  0002d	5e		 pop	 esi
  0002e	5b		 pop	 ebx
  0002f	8b e5		 mov	 esp, ebp
  00031	5d		 pop	 ebp
  00032	c3		 ret	 0
??$_snprintf_s@$0IA@@@YAHAAY0IA@DIPBDZZ ENDP		; _snprintf_s<128>
_TEXT	ENDS
; Function compile flags: /Odtp /ZI
; File c:\program files (x86)\windows kits\10\include\10.0.17763.0\ucrt\stdio.h
;	COMDAT ??$_snprintf_s@$0CAA@@@YAHAAY0CAA@DIPBDZZ
_TEXT	SEGMENT
__ArgList$ = -4						; size = 4
__Buffer$ = 8						; size = 4
__BufferCount$ = 12					; size = 4
__Format$ = 16						; size = 4
??$_snprintf_s@$0CAA@@@YAHAAY0CAA@DIPBDZZ PROC		; _snprintf_s<512>, COMDAT

; 2079 :         )

  00000	55		 push	 ebp
  00001	8b ec		 mov	 ebp, esp
  00003	83 ec 48	 sub	 esp, 72			; 00000048H
  00006	53		 push	 ebx
  00007	56		 push	 esi
  00008	57		 push	 edi

; 2073 :     __DEFINE_CPP_OVERLOAD_SECURE_FUNC_0_2_ARGLIST(

  00009	8d 45 14	 lea	 eax, DWORD PTR __Format$[ebp+4]
  0000c	89 45 fc	 mov	 DWORD PTR __ArgList$[ebp], eax
  0000f	8b 45 fc	 mov	 eax, DWORD PTR __ArgList$[ebp]
  00012	50		 push	 eax
  00013	8b 4d 10	 mov	 ecx, DWORD PTR __Format$[ebp]
  00016	51		 push	 ecx
  00017	8b 55 0c	 mov	 edx, DWORD PTR __BufferCount$[ebp]
  0001a	52		 push	 edx
  0001b	68 00 02 00 00	 push	 512			; 00000200H
  00020	8b 45 08	 mov	 eax, DWORD PTR __Buffer$[ebp]
  00023	50		 push	 eax
  00024	e8 00 00 00 00	 call	 __vsnprintf_s
  00029	83 c4 14	 add	 esp, 20			; 00000014H
  0002c	5f		 pop	 edi
  0002d	5e		 pop	 esi
  0002e	5b		 pop	 ebx
  0002f	8b e5		 mov	 esp, ebp
  00031	5d		 pop	 ebp
  00032	c3		 ret	 0
??$_snprintf_s@$0CAA@@@YAHAAY0CAA@DIPBDZZ ENDP		; _snprintf_s<512>
_TEXT	ENDS
; Function compile flags: /Odtp /ZI
; File g:\网狐\happygamewh\服务端\系统模块\服务器组件\游戏服务器\serviceunits.h
;	COMDAT ?GetServiceStatus@CServiceUnits@@QAE?AW4enServiceStatus@@XZ
_TEXT	SEGMENT
_this$ = -4						; size = 4
?GetServiceStatus@CServiceUnits@@QAE?AW4enServiceStatus@@XZ PROC ; CServiceUnits::GetServiceStatus, COMDAT
; _this$ = ecx

; 113  : 	enServiceStatus GetServiceStatus() { return m_ServiceStatus; }

  00000	55		 push	 ebp
  00001	8b ec		 mov	 ebp, esp
  00003	83 ec 44	 sub	 esp, 68			; 00000044H
  00006	53		 push	 ebx
  00007	56		 push	 esi
  00008	57		 push	 edi
  00009	89 4d fc	 mov	 DWORD PTR _this$[ebp], ecx
  0000c	8b 45 fc	 mov	 eax, DWORD PTR _this$[ebp]
  0000f	8b 80 1c 02 00
	00		 mov	 eax, DWORD PTR [eax+540]
  00015	5f		 pop	 edi
  00016	5e		 pop	 esi
  00017	5b		 pop	 ebx
  00018	8b e5		 mov	 esp, ebp
  0001a	5d		 pop	 ebp
  0001b	c3		 ret	 0
?GetServiceStatus@CServiceUnits@@QAE?AW4enServiceStatus@@XZ ENDP ; CServiceUnits::GetServiceStatus
_TEXT	ENDS
; Function compile flags: /Odtp /ZI
;	COMDAT ??_GCAttemperEngineSink@@UAEPAXI@Z
_TEXT	SEGMENT
_this$ = -4						; size = 4
___flags$ = 8						; size = 4
??_GCAttemperEngineSink@@UAEPAXI@Z PROC			; CAttemperEngineSink::`scalar deleting destructor', COMDAT
; _this$ = ecx
  00000	55		 push	 ebp
  00001	8b ec		 mov	 ebp, esp
  00003	83 ec 44	 sub	 esp, 68			; 00000044H
  00006	53		 push	 ebx
  00007	56		 push	 esi
  00008	57		 push	 edi
  00009	89 4d fc	 mov	 DWORD PTR _this$[ebp], ecx
  0000c	8b 4d fc	 mov	 ecx, DWORD PTR _this$[ebp]
  0000f	e8 00 00 00 00	 call	 ??1CAttemperEngineSink@@UAE@XZ ; CAttemperEngineSink::~CAttemperEngineSink
  00014	8b 45 08	 mov	 eax, DWORD PTR ___flags$[ebp]
  00017	83 e0 01	 and	 eax, 1
  0001a	74 11		 je	 SHORT $LN2@scalar
  0001c	68 d8 3f 02 00	 push	 147416			; 00023fd8H
  00021	8b 45 fc	 mov	 eax, DWORD PTR _this$[ebp]
  00024	50		 push	 eax
  00025	e8 00 00 00 00	 call	 ??3@YAXPAXI@Z		; operator delete
  0002a	83 c4 08	 add	 esp, 8
$LN2@scalar:
  0002d	8b 45 fc	 mov	 eax, DWORD PTR _this$[ebp]
  00030	5f		 pop	 edi
  00031	5e		 pop	 esi
  00032	5b		 pop	 ebx
  00033	8b e5		 mov	 esp, ebp
  00035	5d		 pop	 ebp
  00036	c2 04 00	 ret	 4
??_GCAttemperEngineSink@@UAEPAXI@Z ENDP			; CAttemperEngineSink::`scalar deleting destructor'
_TEXT	ENDS
; Function compile flags: /Odtp /ZI
; File g:\网狐\happygamewh\服务端\系统模块\服务器组件\游戏服务器\attemperenginesink.cpp
;	COMDAT ?RemoveSystemMessage@CAttemperEngineSink@@IAEXXZ
_TEXT	SEGMENT
_this$ = -4						; size = 4
?RemoveSystemMessage@CAttemperEngineSink@@IAEXXZ PROC	; CAttemperEngineSink::RemoveSystemMessage, COMDAT
; _this$ = ecx

; 1049 : {

  00000	55		 push	 ebp
  00001	8b ec		 mov	 ebp, esp
  00003	83 ec 44	 sub	 esp, 68			; 00000044H
  00006	53		 push	 ebx
  00007	56		 push	 esi
  00008	57		 push	 edi
  00009	89 4d fc	 mov	 DWORD PTR _this$[ebp], ecx

; 1050 : 	//缓存消息
; 1051 : 	m_SystemMessageBuffer.Append(m_SystemMessageActive);

  0000c	8b 45 fc	 mov	 eax, DWORD PTR _this$[ebp]
  0000f	05 68 3f 02 00	 add	 eax, 147304		; 00023f68H
  00014	50		 push	 eax
  00015	8b 4d fc	 mov	 ecx, DWORD PTR _this$[ebp]
  00018	81 c1 7c 3f 02
	00		 add	 ecx, 147324		; 00023f7cH
  0001e	e8 00 00 00 00	 call	 ?Append@?$CWHArray@PAUtagSystemMessage@@ABQAU1@@@QAEHABV1@@Z ; CWHArray<tagSystemMessage *,tagSystemMessage * const &>::Append

; 1052 : 	m_SystemMessageActive.RemoveAll();

  00023	8b 4d fc	 mov	 ecx, DWORD PTR _this$[ebp]
  00026	81 c1 68 3f 02
	00		 add	 ecx, 147304		; 00023f68H
  0002c	e8 00 00 00 00	 call	 ?RemoveAll@?$CWHArray@PAUtagSystemMessage@@ABQAU1@@@QAEXXZ ; CWHArray<tagSystemMessage *,tagSystemMessage * const &>::RemoveAll

; 1053 : }

  00031	5f		 pop	 edi
  00032	5e		 pop	 esi
  00033	5b		 pop	 ebx
  00034	8b e5		 mov	 esp, ebp
  00036	5d		 pop	 ebp
  00037	c3		 ret	 0
?RemoveSystemMessage@CAttemperEngineSink@@IAEXXZ ENDP	; CAttemperEngineSink::RemoveSystemMessage
_TEXT	ENDS
; Function compile flags: /Odtp /ZI
; File g:\网狐\happygamewh\服务端\系统模块\服务器组件\游戏服务器\attemperenginesink.cpp
;	COMDAT ?SendSystemMessage@CAttemperEngineSink@@IAE_NPAUCMD_GR_SendMessage@@G@Z
_TEXT	SEGMENT
_this$ = -4						; size = 4
_pSendMessage$ = 8					; size = 4
_wDataSize$ = 12					; size = 2
?SendSystemMessage@CAttemperEngineSink@@IAE_NPAUCMD_GR_SendMessage@@G@Z PROC ; CAttemperEngineSink::SendSystemMessage, COMDAT
; _this$ = ecx

; 10809: {

  00000	55		 push	 ebp
  00001	8b ec		 mov	 ebp, esp
  00003	83 ec 44	 sub	 esp, 68			; 00000044H
  00006	53		 push	 ebx
  00007	56		 push	 esi
  00008	57		 push	 edi
  00009	89 4d fc	 mov	 DWORD PTR _this$[ebp], ecx

; 10810: 	//消息处理
; 10811: 	ASSERT(pSendMessage!=NULL);

  0000c	83 7d 08 00	 cmp	 DWORD PTR _pSendMessage$[ebp], 0
  00010	75 18		 jne	 SHORT $LN8@SendSystem
  00012	a1 00 00 00 00	 mov	 eax, DWORD PTR ?__LINE__Var@?0??SendSystemMessage@CAttemperEngineSink@@IAE_NPAUCMD_GR_SendMessage@@G@Z@4JA
  00017	83 c0 02	 add	 eax, 2
  0001a	50		 push	 eax
  0001b	68 00 00 00 00	 push	 OFFSET ?THIS_FILE@@3PADA
  00020	e8 00 00 00 00	 call	 ?AfxAssertFailedLine@@YGHPBDH@Z ; AfxAssertFailedLine
  00025	85 c0		 test	 eax, eax
  00027	74 01		 je	 SHORT $LN8@SendSystem
  00029	cc		 int	 3
$LN8@SendSystem:

; 10812: 
; 10813: 	//效验数据
; 10814: 	ASSERT(wDataSize==sizeof(CMD_GR_SendMessage)-sizeof(pSendMessage->szSystemMessage)+sizeof(TCHAR)*pSendMessage->wChatLength);

  0002a	0f b7 45 0c	 movzx	 eax, WORD PTR _wDataSize$[ebp]
  0002e	8b 4d 08	 mov	 ecx, DWORD PTR _pSendMessage$[ebp]
  00031	0f b7 51 10	 movzx	 edx, WORD PTR [ecx+16]
  00035	83 c2 12	 add	 edx, 18			; 00000012H
  00038	3b c2		 cmp	 eax, edx
  0003a	74 18		 je	 SHORT $LN9@SendSystem
  0003c	a1 00 00 00 00	 mov	 eax, DWORD PTR ?__LINE__Var@?0??SendSystemMessage@CAttemperEngineSink@@IAE_NPAUCMD_GR_SendMessage@@G@Z@4JA
  00041	83 c0 05	 add	 eax, 5
  00044	50		 push	 eax
  00045	68 00 00 00 00	 push	 OFFSET ?THIS_FILE@@3PADA
  0004a	e8 00 00 00 00	 call	 ?AfxAssertFailedLine@@YGHPBDH@Z ; AfxAssertFailedLine
  0004f	85 c0		 test	 eax, eax
  00051	74 01		 je	 SHORT $LN9@SendSystem
  00053	cc		 int	 3
$LN9@SendSystem:

; 10815: 	if (wDataSize!=sizeof(CMD_GR_SendMessage)-sizeof(pSendMessage->szSystemMessage)+sizeof(TCHAR)*pSendMessage->wChatLength) 

  00054	0f b7 45 0c	 movzx	 eax, WORD PTR _wDataSize$[ebp]
  00058	8b 4d 08	 mov	 ecx, DWORD PTR _pSendMessage$[ebp]
  0005b	0f b7 51 10	 movzx	 edx, WORD PTR [ecx+16]
  0005f	83 c2 12	 add	 edx, 18			; 00000012H
  00062	3b c2		 cmp	 eax, edx
  00064	74 07		 je	 SHORT $LN2@SendSystem

; 10816: 		return false;

  00066	32 c0		 xor	 al, al
  00068	e9 88 00 00 00	 jmp	 $LN1@SendSystem
$LN2@SendSystem:

; 10817: 
; 10818: 	//所有房间
; 10819: 	if(pSendMessage->cbAllRoom == TRUE)

  0006d	8b 45 08	 mov	 eax, DWORD PTR _pSendMessage$[ebp]
  00070	0f b6 48 02	 movzx	 ecx, BYTE PTR [eax+2]
  00074	83 f9 01	 cmp	 ecx, 1
  00077	75 2f		 jne	 SHORT $LN3@SendSystem

; 10820: 	{
; 10821: 		pSendMessage->cbAllRoom=FALSE;

  00079	8b 45 08	 mov	 eax, DWORD PTR _pSendMessage$[ebp]
  0007c	c6 40 02 00	 mov	 BYTE PTR [eax+2], 0

; 10822: 		m_pITCPSocketService->SendData(MDM_CS_MANAGER_SERVICE,SUB_CS_C_SYSTEM_MESSAGE,pSendMessage,wDataSize);

  00080	0f b7 45 0c	 movzx	 eax, WORD PTR _wDataSize$[ebp]
  00084	50		 push	 eax
  00085	8b 4d 08	 mov	 ecx, DWORD PTR _pSendMessage$[ebp]
  00088	51		 push	 ecx
  00089	6a 01		 push	 1
  0008b	6a 05		 push	 5
  0008d	8b 55 fc	 mov	 edx, DWORD PTR _this$[ebp]
  00090	8b 82 b0 3f 02
	00		 mov	 eax, DWORD PTR [edx+147376]
  00096	8b 4d fc	 mov	 ecx, DWORD PTR _this$[ebp]
  00099	8b 10		 mov	 edx, DWORD PTR [eax]
  0009b	8b 89 b0 3f 02
	00		 mov	 ecx, DWORD PTR [ecx+147376]
  000a1	8b 42 24	 mov	 eax, DWORD PTR [edx+36]
  000a4	ff d0		 call	 eax

; 10823: 	}
