; Listing generated by Microsoft (R) Optimizing Compiler Version 19.16.27032.1 

	TITLE	G:\网狐\HappyGameWH\服务端\系统模块\服务器组件\游戏服务器\DataBaseEngineSink.cpp
	.686P
	.XMM
	include listing.inc
	.model	flat

INCLUDELIB MSVCRTD
INCLUDELIB OLDNAMES

CONST	SEGMENT
?IID_IUnknownEx@@3U_GUID@@B DD 05feec21eH		; IID_IUnknownEx
	DW	0dbf3H
	DW	046f0H
	DB	09fH
	DB	057H
	DB	0d1H
	DB	0cdH
	DB	071H
	DB	01cH
	DB	046H
	DB	0deH
?szCompilation@@3QBDB DB 'ED56BE63-3026-465B-9DFC-17F595145F3D', 00H ; szCompilation
	ORG $+3
?IID_IDataBase@@3U_GUID@@B DD 0a2e38a78H		; IID_IDataBase
	DW	01e4fH
	DW	04de4H
	DB	0a5H
	DB	0d1H
	DB	0b9H
	DB	019H
	DB	09bH
	DB	0ceH
	DB	041H
	DB	0aeH
?IID_IDataBaseEngine@@3U_GUID@@B DD 047b5a119H		; IID_IDataBaseEngine
	DW	01676H
	DW	049a3H
	DB	0beH
	DB	0aeH
	DB	0caH
	DB	027H
	DB	0ebH
	DB	059H
	DB	097H
	DB	022H
?IID_IDataBaseEngineSink@@3U_GUID@@B DD 0ed26ed6H	; IID_IDataBaseEngineSink
	DW	069d7H
	DW	04f5bH
	DB	0b0H
	DB	0caH
	DB	017H
	DB	0aeH
	DB	0abH
	DB	0baH
	DB	06H
	DB	0dfH
?IID_IGameDataBaseEngine@@3U_GUID@@B DD 04310e733H	; IID_IGameDataBaseEngine
	DW	0c49bH
	DW	04592H
	DB	0a3H
	DB	0b1H
	DB	073H
	DB	018H
	DB	0d1H
	DB	053H
	DB	02fH
	DB	03eH
?IID_IGameDataBaseEngineSink@@3U_GUID@@B DD 0a6c5e2ccH	; IID_IGameDataBaseEngineSink
	DW	034c1H
	DW	0422cH
	DB	0a0H
	DB	01bH
	DB	054H
	DB	0abH
	DB	068H
	DB	0faH
	DB	0e6H
	DB	081H
CONST	ENDS
PUBLIC	??_H@YGXPAXIIP6EPAX0@Z@Z			; `vector constructor iterator'
PUBLIC	?__empty_global_delete@@YAXPAX@Z		; __empty_global_delete
PUBLIC	?__empty_global_delete@@YAXPAXI@Z		; __empty_global_delete
PUBLIC	_IsEqualGUID
PUBLIC	_==
PUBLIC	_HRESULT_FROM_WIN32
PUBLIC	___local_stdio_printf_options
PUBLIC	__vswprintf_s_l
PUBLIC	_swprintf_s
PUBLIC	__vsnprintf_l
PUBLIC	__vsnprintf
PUBLIC	__vsnprintf_s_l
PUBLIC	__vsnprintf_s
PUBLIC	__vscprintf_l
PUBLIC	__vscprintf
PUBLIC	__snprintf
PUBLIC	?AfxAssertFailedLine@@YGHPBDH@Z			; AfxAssertFailedLine
PUBLIC	?AtlThrowImpl@ATL@@YGXJ@Z			; ATL::AtlThrowImpl
PUBLIC	?AtlThrowLastWin32@ATL@@YGXXZ			; ATL::AtlThrowLastWin32
PUBLIC	??$AtlMultiply@I@ATL@@YAJPAIII@Z		; ATL::AtlMultiply<unsigned int>
PUBLIC	?Allocate@CCRTAllocator@ATL@@SAPAXI@Z		; ATL::CCRTAllocator::Allocate
PUBLIC	?Free@CCRTAllocator@ATL@@SAXPAX@Z		; ATL::CCRTAllocator::Free
PUBLIC	?_AtlGetConversionACP@ATL@@YGIXZ		; ATL::_AtlGetConversionACP
PUBLIC	??0?$CTraceCategoryEx@$0CAAA@$0A@@ATL@@QAE@PBD@Z ; ATL::CTraceCategoryEx<8192,0>::CTraceCategoryEx<8192,0>
PUBLIC	??B?$CTraceCategoryEx@$0CAAA@$0A@@ATL@@QAEIXZ	; ATL::CTraceCategoryEx<8192,0>::operator unsigned int
PUBLIC	?GetCategoryName@CTrace@ATL@@CAPA_WI@Z		; ATL::CTrace::GetCategoryName
PUBLIC	?TraceV@CTrace@ATL@@CAXPBDHIIPB_W@Z		; ATL::CTrace::TraceV
PUBLIC	?TraceV@CTrace@ATL@@SAXPBDHII0PAD@Z		; ATL::CTrace::TraceV
PUBLIC	?RegisterCategory@CTrace@ATL@@SAXPBDI@Z		; ATL::CTrace::RegisterCategory
PUBLIC	??0?$CHeapPtrBase@_WVCCRTAllocator@ATL@@@ATL@@IAE@XZ ; ATL::CHeapPtrBase<wchar_t,ATL::CCRTAllocator>::CHeapPtrBase<wchar_t,ATL::CCRTAllocator>
PUBLIC	??1?$CHeapPtrBase@_WVCCRTAllocator@ATL@@@ATL@@QAE@XZ ; ATL::CHeapPtrBase<wchar_t,ATL::CCRTAllocator>::~CHeapPtrBase<wchar_t,ATL::CCRTAllocator>
PUBLIC	??B?$CHeapPtrBase@_WVCCRTAllocator@ATL@@@ATL@@QBEPA_WXZ ; ATL::CHeapPtrBase<wchar_t,ATL::CCRTAllocator>::operator wchar_t *
PUBLIC	?AllocateBytes@?$CHeapPtrBase@_WVCCRTAllocator@ATL@@@ATL@@QAE_NI@Z ; ATL::CHeapPtrBase<wchar_t,ATL::CCRTAllocator>::AllocateBytes
PUBLIC	?Free@?$CHeapPtrBase@_WVCCRTAllocator@ATL@@@ATL@@QAEXXZ ; ATL::CHeapPtrBase<wchar_t,ATL::CCRTAllocator>::Free
PUBLIC	??0?$CHeapPtr@_WVCCRTAllocator@ATL@@@ATL@@QAE@XZ ; ATL::CHeapPtr<wchar_t,ATL::CCRTAllocator>::CHeapPtr<wchar_t,ATL::CCRTAllocator>
PUBLIC	?Allocate@?$CHeapPtr@_WVCCRTAllocator@ATL@@@ATL@@QAE_NI@Z ; ATL::CHeapPtr<wchar_t,ATL::CCRTAllocator>::Allocate
PUBLIC	??1?$CHeapPtr@_WVCCRTAllocator@ATL@@@ATL@@QAE@XZ ; ATL::CHeapPtr<wchar_t,ATL::CCRTAllocator>::~CHeapPtr<wchar_t,ATL::CCRTAllocator>
PUBLIC	??0?$CHeapPtrBase@DVCCRTAllocator@ATL@@@ATL@@IAE@XZ ; ATL::CHeapPtrBase<char,ATL::CCRTAllocator>::CHeapPtrBase<char,ATL::CCRTAllocator>
PUBLIC	??1?$CHeapPtrBase@DVCCRTAllocator@ATL@@@ATL@@QAE@XZ ; ATL::CHeapPtrBase<char,ATL::CCRTAllocator>::~CHeapPtrBase<char,ATL::CCRTAllocator>
PUBLIC	??B?$CHeapPtrBase@DVCCRTAllocator@ATL@@@ATL@@QBEPADXZ ; ATL::CHeapPtrBase<char,ATL::CCRTAllocator>::operator char *
PUBLIC	?AllocateBytes@?$CHeapPtrBase@DVCCRTAllocator@ATL@@@ATL@@QAE_NI@Z ; ATL::CHeapPtrBase<char,ATL::CCRTAllocator>::AllocateBytes
PUBLIC	?Free@?$CHeapPtrBase@DVCCRTAllocator@ATL@@@ATL@@QAEXXZ ; ATL::CHeapPtrBase<char,ATL::CCRTAllocator>::Free
PUBLIC	??0?$CHeapPtr@DVCCRTAllocator@ATL@@@ATL@@QAE@XZ	; ATL::CHeapPtr<char,ATL::CCRTAllocator>::CHeapPtr<char,ATL::CCRTAllocator>
PUBLIC	?Allocate@?$CHeapPtr@DVCCRTAllocator@ATL@@@ATL@@QAE_NI@Z ; ATL::CHeapPtr<char,ATL::CCRTAllocator>::Allocate
PUBLIC	??1?$CHeapPtr@DVCCRTAllocator@ATL@@@ATL@@QAE@XZ	; ATL::CHeapPtr<char,ATL::CCRTAllocator>::~CHeapPtr<char,ATL::CCRTAllocator>
PUBLIC	??0CPreserveLastError@ATL@@QAE@XZ		; ATL::CPreserveLastError::CPreserveLastError
PUBLIC	??1CPreserveLastError@ATL@@QAE@XZ		; ATL::CPreserveLastError::~CPreserveLastError
PUBLIC	??0CTraceFileAndLineInfo@ATL@@QAE@PBDH@Z	; ATL::CTraceFileAndLineInfo::CTraceFileAndLineInfo
PUBLIC	??RCTraceFileAndLineInfo@ATL@@QBAXHIPBDZZ	; ATL::CTraceFileAndLineInfo::operator()
PUBLIC	??0CTime@ATL@@QAE@_J@Z				; ATL::CTime::CTime
PUBLIC	??0CTime@ATL@@QAE@HHHHHHH@Z			; ATL::CTime::CTime
PUBLIC	??0CTime@ATL@@QAE@ABU_SYSTEMTIME@@H@Z		; ATL::CTime::CTime
PUBLIC	?GetTime@CTime@ATL@@QBE_JXZ			; ATL::CTime::GetTime
PUBLIC	??0tagPersonalUserScoreInfo@@QAE@XZ		; tagPersonalUserScoreInfo::tagPersonalUserScoreInfo
PUBLIC	??0IUnknownEx@@QAE@XZ				; IUnknownEx::IUnknownEx
PUBLIC	?GetProductVer@@YAEK@Z				; GetProductVer
PUBLIC	?GetMainVer@@YAEK@Z				; GetMainVer
PUBLIC	?GetSubVer@@YAEK@Z				; GetSubVer
PUBLIC	?GetBuildVer@@YAEK@Z				; GetBuildVer
PUBLIC	?InterfaceVersionCompare@@YA_NKK@Z		; InterfaceVersionCompare
PUBLIC	?IsSuportPlayBack@CServerRule@@SA_NK@Z		; CServerRule::IsSuportPlayBack
PUBLIC	?CheckError@_com_util@@YAXJ@Z			; _com_util::CheckError
PUBLIC	??0_variant_t@@QAE@XZ				; _variant_t::_variant_t
PUBLIC	??0_variant_t@@QAE@ABUtagVARIANT@@@Z		; _variant_t::_variant_t
PUBLIC	??1_variant_t@@QAE@XZ				; _variant_t::~_variant_t
PUBLIC	??0IDataBaseEngineSink@@QAE@XZ			; IDataBaseEngineSink::IDataBaseEngineSink
PUBLIC	??0?$CTempldateHelper@UIDataBase@@@@QAE@ABU_GUID@@KPBD1@Z ; CTempldateHelper<IDataBase>::CTempldateHelper<IDataBase>
PUBLIC	??1?$CTempldateHelper@UIDataBase@@@@UAE@XZ	; CTempldateHelper<IDataBase>::~CTempldateHelper<IDataBase>
PUBLIC	?CloseInstance@?$CTempldateHelper@UIDataBase@@@@QAE_NXZ ; CTempldateHelper<IDataBase>::CloseInstance
PUBLIC	?CreateInstance@?$CTempldateHelper@UIDataBase@@@@QAE_NXZ ; CTempldateHelper<IDataBase>::CreateInstance
PUBLIC	??C?$CTempldateHelper@UIDataBase@@@@QBEPAUIDataBase@@XZ ; CTempldateHelper<IDataBase>::operator->
PUBLIC	?GetInterface@?$CTempldateHelper@UIDataBase@@@@QBEPAUIDataBase@@XZ ; CTempldateHelper<IDataBase>::GetInterface
PUBLIC	??_G?$CTempldateHelper@UIDataBase@@@@UAEPAXI@Z	; CTempldateHelper<IDataBase>::`scalar deleting destructor'
PUBLIC	??0CDataBaseHelper@@QAE@XZ			; CDataBaseHelper::CDataBaseHelper
PUBLIC	??1CDataBaseHelper@@UAE@XZ			; CDataBaseHelper::~CDataBaseHelper
PUBLIC	??_GCDataBaseHelper@@UAEPAXI@Z			; CDataBaseHelper::`scalar deleting destructor'
PUBLIC	??0IGameDataBaseEngine@@QAE@XZ			; IGameDataBaseEngine::IGameDataBaseEngine
PUBLIC	??0DBO_GR_DissumeResult@@QAE@XZ			; DBO_GR_DissumeResult::DBO_GR_DissumeResult
PUBLIC	??0CDataBaseEngineSink@@QAE@XZ			; CDataBaseEngineSink::CDataBaseEngineSink
PUBLIC	??1CDataBaseEngineSink@@UAE@XZ			; CDataBaseEngineSink::~CDataBaseEngineSink
PUBLIC	?Release@CDataBaseEngineSink@@UAEXXZ		; CDataBaseEngineSink::Release
PUBLIC	?QueryInterface@CDataBaseEngineSink@@UAEPAXABU_GUID@@K@Z ; CDataBaseEngineSink::QueryInterface
PUBLIC	?GetCustomRule@CDataBaseEngineSink@@UAEPAXXZ	; CDataBaseEngineSink::GetCustomRule
PUBLIC	?GetGameServiceAttrib@CDataBaseEngineSink@@UAEPAUtagGameServiceAttrib@@XZ ; CDataBaseEngineSink::GetGameServiceAttrib
PUBLIC	?GetGameServiceOption@CDataBaseEngineSink@@UAEPAUtagGameServiceOption@@XZ ; CDataBaseEngineSink::GetGameServiceOption
PUBLIC	?GetDataBase@CDataBaseEngineSink@@UAEPAXABU_GUID@@K@Z ; CDataBaseEngineSink::GetDataBase
PUBLIC	?GetDataBaseEngine@CDataBaseEngineSink@@UAEPAXABU_GUID@@K@Z ; CDataBaseEngineSink::GetDataBaseEngine
PUBLIC	?PostGameDataBaseResult@CDataBaseEngineSink@@UAE_NGPAXG@Z ; CDataBaseEngineSink::PostGameDataBaseResult
PUBLIC	?OnDataBaseEngineStart@CDataBaseEngineSink@@UAE_NPAUIUnknownEx@@@Z ; CDataBaseEngineSink::OnDataBaseEngineStart
PUBLIC	?OnDataBaseEngineConclude@CDataBaseEngineSink@@UAE_NPAUIUnknownEx@@@Z ; CDataBaseEngineSink::OnDataBaseEngineConclude
PUBLIC	?OnDataBaseEngineTimer@CDataBaseEngineSink@@UAE_NKI@Z ; CDataBaseEngineSink::OnDataBaseEngineTimer
PUBLIC	?OnDataBaseEngineControl@CDataBaseEngineSink@@UAE_NGPAXG@Z ; CDataBaseEngineSink::OnDataBaseEngineControl
PUBLIC	?OnDataBaseEngineRequest@CDataBaseEngineSink@@UAE_NGKPAXG@Z ; CDataBaseEngineSink::OnDataBaseEngineRequest
PUBLIC	?OnRequestLogonUserID@CDataBaseEngineSink@@IAE_NKPAXGAAKH@Z ; CDataBaseEngineSink::OnRequestLogonUserID
PUBLIC	?OnRequestLogonMobile@CDataBaseEngineSink@@IAE_NKPAXGAAK@Z ; CDataBaseEngineSink::OnRequestLogonMobile
PUBLIC	?OnRequestLogonAccounts@CDataBaseEngineSink@@IAE_NKPAXGAAK@Z ; CDataBaseEngineSink::OnRequestLogonAccounts
PUBLIC	?OnRequestWriteGameScore@CDataBaseEngineSink@@IAE_NKPAXGAAK@Z ; CDataBaseEngineSink::OnRequestWriteGameScore
PUBLIC	?OnRequestLeaveGameServer@CDataBaseEngineSink@@IAE_NKPAXGAAK@Z ; CDataBaseEngineSink::OnRequestLeaveGameServer
PUBLIC	?OnRequestGameScoreRecord@CDataBaseEngineSink@@IAE_NKPAXGAAK@Z ; CDataBaseEngineSink::OnRequestGameScoreRecord
PUBLIC	?OnRequestLoadParameter@CDataBaseEngineSink@@IAE_NKPAXGAAK@Z ; CDataBaseEngineSink::OnRequestLoadParameter
PUBLIC	?OnRequestLoadGameColumn@CDataBaseEngineSink@@IAE_NKPAXGAAK@Z ; CDataBaseEngineSink::OnRequestLoadGameColumn
PUBLIC	?OnRequestLoadAndroidUser@CDataBaseEngineSink@@IAE_NKPAXGAAK@Z ; CDataBaseEngineSink::OnRequestLoadAndroidUser
PUBLIC	?OnRequestLoadAndroidParameter@CDataBaseEngineSink@@IAE_NKPAXGAAK@Z ; CDataBaseEngineSink::OnRequestLoadAndroidParameter
PUBLIC	?OnRequestLoadGrowLevelConfig@CDataBaseEngineSink@@IAE_NKPAXGAAK@Z ; CDataBaseEngineSink::OnRequestLoadGrowLevelConfig
PUBLIC	?OnRequestBuyGameProperty@CDataBaseEngineSink@@IAE_NKPAXGAAK@Z ; CDataBaseEngineSink::OnRequestBuyGameProperty
PUBLIC	?OnRequestPropertyBackpack@CDataBaseEngineSink@@IAE_NKPAXGAAK@Z ; CDataBaseEngineSink::OnRequestPropertyBackpack
PUBLIC	?OnRequestPropertyUse@CDataBaseEngineSink@@IAE_NKPAXGAAK@Z ; CDataBaseEngineSink::OnRequestPropertyUse
PUBLIC	?OnRequestQuerySendPresent@CDataBaseEngineSink@@IAE_NKPAXGAAK@Z ; CDataBaseEngineSink::OnRequestQuerySendPresent
PUBLIC	?OnRequestPropertyPresent@CDataBaseEngineSink@@IAE_NKPAXGAAK@Z ; CDataBaseEngineSink::OnRequestPropertyPresent
PUBLIC	?OnRequestGetSendPresent@CDataBaseEngineSink@@IAE_NKPAXGAAK@Z ; CDataBaseEngineSink::OnRequestGetSendPresent
PUBLIC	?OnRequestLoadGameBuff@CDataBaseEngineSink@@IAE_NKPAXGAAK@Z ; CDataBaseEngineSink::OnRequestLoadGameBuff
PUBLIC	?OnRequestLoadGameTrumpet@CDataBaseEngineSink@@IAE_NKPAXGAAK@Z ; CDataBaseEngineSink::OnRequestLoadGameTrumpet
PUBLIC	?OnRequestSendTrumpet@CDataBaseEngineSink@@IAE_NKPAXGAAK@Z ; CDataBaseEngineSink::OnRequestSendTrumpet
PUBLIC	?OnRequestWriteUserGameData@CDataBaseEngineSink@@IAE_NKPAXGAAK@Z ; CDataBaseEngineSink::OnRequestWriteUserGameData
PUBLIC	?OnRequestManageUserRight@CDataBaseEngineSink@@IAE_NKPAXGAAK@Z ; CDataBaseEngineSink::OnRequestManageUserRight
PUBLIC	?OnRequestManageMatchRight@CDataBaseEngineSink@@IAE_NKPAXGAAK@Z ; CDataBaseEngineSink::OnRequestManageMatchRight
PUBLIC	?OnRequestLoadSystemMessage@CDataBaseEngineSink@@IAE_NKPAXGAAK@Z ; CDataBaseEngineSink::OnRequestLoadSystemMessage
PUBLIC	?OnRequestLoadSensitiveWords@CDataBaseEngineSink@@IAE_NKPAXGAAK@Z ; CDataBaseEngineSink::OnRequestLoadSensitiveWords
PUBLIC	?OnRequestUnlockAndroidUser@CDataBaseEngineSink@@IAE_NKPAXGAAK@Z ; CDataBaseEngineSink::OnRequestUnlockAndroidUser
PUBLIC	?OnRequestMatchSignup@CDataBaseEngineSink@@IAE_NKPAXGAAK@Z ; CDataBaseEngineSink::OnRequestMatchSignup
PUBLIC	?OnRequestMatchUnSignup@CDataBaseEngineSink@@IAE_NKPAXGAAK@Z ; CDataBaseEngineSink::OnRequestMatchUnSignup
PUBLIC	?OnRequestMatchSignupStart@CDataBaseEngineSink@@IAE_NKPAXGAAK@Z ; CDataBaseEngineSink::OnRequestMatchSignupStart
PUBLIC	?OnRequestMatchQueryQualify@CDataBaseEngineSink@@IAE_NKPAXGAAK@Z ; CDataBaseEngineSink::OnRequestMatchQueryQualify
PUBLIC	?OnRequestMatchBuySafeCard@CDataBaseEngineSink@@IAE_NKPAXGAAK@Z ; CDataBaseEngineSink::OnRequestMatchBuySafeCard
PUBLIC	?OnRequestMatchStart@CDataBaseEngineSink@@IAE_NKPAXGAAK@Z ; CDataBaseEngineSink::OnRequestMatchStart
PUBLIC	?OnRequestMatchOver@CDataBaseEngineSink@@IAE_NKPAXGAAK@Z ; CDataBaseEngineSink::OnRequestMatchOver
PUBLIC	?OnRequestMatchCancel@CDataBaseEngineSink@@IAE_NKPAXGAAK@Z ; CDataBaseEngineSink::OnRequestMatchCancel
PUBLIC	?OnRequestMatchReward@CDataBaseEngineSink@@IAE_NKPAXGAAK@Z ; CDataBaseEngineSink::OnRequestMatchReward
PUBLIC	?OnRequestMatchEliminate@CDataBaseEngineSink@@IAE_NKPAXGAAK@Z ; CDataBaseEngineSink::OnRequestMatchEliminate
PUBLIC	?OnRequestMatchRecordGrades@CDataBaseEngineSink@@IAE_NKPAXGAAK@Z ; CDataBaseEngineSink::OnRequestMatchRecordGrades
PUBLIC	?OnRequestMatchUserRevive@CDataBaseEngineSink@@IAE_NKPAXGAAK@Z ; CDataBaseEngineSink::OnRequestMatchUserRevive
PUBLIC	?OnRequestMatchQueryReviveInfo@CDataBaseEngineSink@@IAE_NKPAXGAAK@Z ; CDataBaseEngineSink::OnRequestMatchQueryReviveInfo
PUBLIC	?OnRequestQueryGrowLevelParameter@CDataBaseEngineSink@@IAE_NKPAXGAAK@Z ; CDataBaseEngineSink::OnRequestQueryGrowLevelParameter
PUBLIC	?OnRequestUserEnableInsure@CDataBaseEngineSink@@IAE_NKPAXGAAK@Z ; CDataBaseEngineSink::OnRequestUserEnableInsure
PUBLIC	?OnRequestUserSaveScore@CDataBaseEngineSink@@IAE_NKPAXGAAK@Z ; CDataBaseEngineSink::OnRequestUserSaveScore
PUBLIC	?OnRequestUserTakeScore@CDataBaseEngineSink@@IAE_NKPAXGAAK@Z ; CDataBaseEngineSink::OnRequestUserTakeScore
PUBLIC	?OnRequestUserTransferScore@CDataBaseEngineSink@@IAE_NKPAXGAAK@Z ; CDataBaseEngineSink::OnRequestUserTransferScore
PUBLIC	?OnRequestQueryInsureInfo@CDataBaseEngineSink@@IAE_NKPAXGAAK@Z ; CDataBaseEngineSink::OnRequestQueryInsureInfo
PUBLIC	?OnRequestQueryTransferUserInfo@CDataBaseEngineSink@@IAE_NKPAXGAAK@Z ; CDataBaseEngineSink::OnRequestQueryTransferUserInfo
PUBLIC	?OnRequestTaskGiveUp@CDataBaseEngineSink@@IAE_NKPAXGAAK@Z ; CDataBaseEngineSink::OnRequestTaskGiveUp
PUBLIC	?OnRequestTaskTake@CDataBaseEngineSink@@IAE_NKPAXGAAK@Z ; CDataBaseEngineSink::OnRequestTaskTake
PUBLIC	?OnRequestTaskReward@CDataBaseEngineSink@@IAE_NKPAXGAAK@Z ; CDataBaseEngineSink::OnRequestTaskReward
PUBLIC	?OnRequestLoadTaskList@CDataBaseEngineSink@@IAE_NKPAXGAAK@Z ; CDataBaseEngineSink::OnRequestLoadTaskList
PUBLIC	?OnRequestTaskQueryInfo@CDataBaseEngineSink@@IAE_NKPAXGAAK@Z ; CDataBaseEngineSink::OnRequestTaskQueryInfo
PUBLIC	?OnRequestRoomTaskProgress@CDataBaseEngineSink@@IAE_NKPAXGAAK@Z ; CDataBaseEngineSink::OnRequestRoomTaskProgress
PUBLIC	?OnRequestMemberLoadParameter@CDataBaseEngineSink@@IAE_NKPAXGAAK@Z ; CDataBaseEngineSink::OnRequestMemberLoadParameter
PUBLIC	?OnRequestMemberQueryInfo@CDataBaseEngineSink@@IAE_NKPAXGAAK@Z ; CDataBaseEngineSink::OnRequestMemberQueryInfo
PUBLIC	?OnRequestMemberDayPresent@CDataBaseEngineSink@@IAE_NKPAXGAAK@Z ; CDataBaseEngineSink::OnRequestMemberDayPresent
PUBLIC	?OnRequestMemberDayGift@CDataBaseEngineSink@@IAE_NKPAXGAAK@Z ; CDataBaseEngineSink::OnRequestMemberDayGift
PUBLIC	?OnRequestPurchaseMember@CDataBaseEngineSink@@IAE_NKPAXGAAK@Z ; CDataBaseEngineSink::OnRequestPurchaseMember
PUBLIC	?OnRequestExchangeScoreByIngot@CDataBaseEngineSink@@IAE_NKPAXGAAK@Z ; CDataBaseEngineSink::OnRequestExchangeScoreByIngot
PUBLIC	?OnRequestExchangeScoreByBeans@CDataBaseEngineSink@@IAE_NKPAXGAAK@Z ; CDataBaseEngineSink::OnRequestExchangeScoreByBeans
PUBLIC	?OnRequestCreateTable@CDataBaseEngineSink@@IAE_NKPAXGAAK@Z ; CDataBaseEngineSink::OnRequestCreateTable
PUBLIC	?OnRequsetInsertCreateRecord@CDataBaseEngineSink@@IAE_NKPAXGAAK@Z ; CDataBaseEngineSink::OnRequsetInsertCreateRecord
PUBLIC	?OnRequsetDissumeRoom@CDataBaseEngineSink@@IAE_NKPAXGAAK@Z ; CDataBaseEngineSink::OnRequsetDissumeRoom
PUBLIC	?OnRequestCancelCreateTable@CDataBaseEngineSink@@IAE_NKPAXGAAK@Z ; CDataBaseEngineSink::OnRequestCancelCreateTable
PUBLIC	?OnRequestHostCancelCreateTable@CDataBaseEngineSink@@IAE_NKPAXGAAK@Z ; CDataBaseEngineSink::OnRequestHostCancelCreateTable
PUBLIC	?OnRequestLoadPersonalParameter@CDataBaseEngineSink@@IAE_NKPAXGAAK@Z ; CDataBaseEngineSink::OnRequestLoadPersonalParameter
PUBLIC	?OnRequestQueryUserRoomScore@CDataBaseEngineSink@@IAE_NKPAXGAAK@Z ; CDataBaseEngineSink::OnRequestQueryUserRoomScore
PUBLIC	?OnRequestWritePersonalGameScore@CDataBaseEngineSink@@IAE_NKPAXGAAK@Z ; CDataBaseEngineSink::OnRequestWritePersonalGameScore
PUBLIC	?OnRequestWriteJoinInfo@CDataBaseEngineSink@@IAE_NKPAXGAAK@Z ; CDataBaseEngineSink::OnRequestWriteJoinInfo
PUBLIC	?OnRequestPayRoomCard@CDataBaseEngineSink@@IAE_NKPAXGAAK@Z ; CDataBaseEngineSink::OnRequestPayRoomCard
PUBLIC	?OnRequestWriteVideoPlayerInfo@CDataBaseEngineSink@@IAE_NKPAXGAAK@Z ; CDataBaseEngineSink::OnRequestWriteVideoPlayerInfo
PUBLIC	?OnRequestWriteVideoDataInfo@CDataBaseEngineSink@@IAE_NKPAXGAAK@Z ; CDataBaseEngineSink::OnRequestWriteVideoDataInfo
PUBLIC	?OnRequestLoadCheckIn@CDataBaseEngineSink@@IAE_NKPAXGAAK@Z ; CDataBaseEngineSink::OnRequestLoadCheckIn
PUBLIC	?OnRequestCheckInQueryInfo@CDataBaseEngineSink@@IAE_NKPAXGAAK@Z ; CDataBaseEngineSink::OnRequestCheckInQueryInfo
PUBLIC	?OnRequestCheckInDone@CDataBaseEngineSink@@IAE_NKPAXGAAK@Z ; CDataBaseEngineSink::OnRequestCheckInDone
PUBLIC	?OnRequestLoadBaseEnsure@CDataBaseEngineSink@@IAE_NKPAXGAAK@Z ; CDataBaseEngineSink::OnRequestLoadBaseEnsure
PUBLIC	?OnRequestTakeBaseEnsure@CDataBaseEngineSink@@IAE_NKPAXGAAK@Z ; CDataBaseEngineSink::OnRequestTakeBaseEnsure
PUBLIC	?OnLogonDisposeResult@CDataBaseEngineSink@@AAEXKKPBD_NEGG@Z ; CDataBaseEngineSink::OnLogonDisposeResult
PUBLIC	?OnInsureDisposeResult@CDataBaseEngineSink@@AAEXKK_JPBD_NE@Z ; CDataBaseEngineSink::OnInsureDisposeResult
PUBLIC	??_GCDataBaseEngineSink@@UAEPAXI@Z		; CDataBaseEngineSink::`scalar deleting destructor'
PUBLIC	??$_snprintf_s@$0BA@@@YAHAAY0BA@DIPBDZZ		; _snprintf_s<16>
PUBLIC	??0?$CW2AEX@$0IA@@ATL@@QAE@PB_W@Z		; ATL::CW2AEX<128>::CW2AEX<128>
PUBLIC	??1?$CW2AEX@$0IA@@ATL@@QAE@XZ			; ATL::CW2AEX<128>::~CW2AEX<128>
PUBLIC	??B?$CW2AEX@$0IA@@ATL@@QBEPADXZ			; ATL::CW2AEX<128>::operator char *
PUBLIC	?Init@?$CW2AEX@$0IA@@ATL@@AAEXPB_WI@Z		; ATL::CW2AEX<128>::Init
PUBLIC	?Hex2Char@@YAXPADAAE@Z				; Hex2Char
PUBLIC	?HexStr2CharStr@@YAXPADHPAE@Z			; HexStr2CharStr
PUBLIC	??$AtlConvFreeMemory@D@ATL@@YAXPAD0H@Z		; ATL::AtlConvFreeMemory<char>
PUBLIC	??$AtlConvAllocMemory@D@ATL@@YAXPAPADHPADH@Z	; ATL::AtlConvAllocMemory<char>
PUBLIC	??$_snprintf_s@$0IA@@@YAHAAY0IA@DIPBDZZ		; _snprintf_s<128>
PUBLIC	?Release@CDataBaseEngineSink@@W3AEXXZ		; [thunk]:CDataBaseEngineSink::Release`adjustor{4}'
PUBLIC	?QueryInterface@CDataBaseEngineSink@@W3AEPAXABU_GUID@@K@Z ; [thunk]:CDataBaseEngineSink::QueryInterface`adjustor{4}'
PUBLIC	?_OptionsStorage@?1??__local_stdio_printf_options@@9@4_KA ; `__local_stdio_printf_options'::`2'::_OptionsStorage
PUBLIC	??_C@_17CNPHIMPH@?$AA?$CF?$AAl?$AAs@		; `string'
PUBLIC	??_C@_1OE@IAPLKPHI@?$AAc?$AA?3?$AA?2?$AAp?$AAr?$AAo?$AAg?$AAr?$AAa?$AAm?$AA?5?$AAf?$AAi?$AAl?$AAe@ ; `string'
PUBLIC	??_C@_1OC@PNEKCFJL@?$AAc?$AA?3?$AA?2?$AAp?$AAr?$AAo?$AAg?$AAr?$AAa?$AAm?$AA?5?$AAf?$AAi?$AAl?$AAe@ ; `string'
PUBLIC	?atlTraceException@ATL@@3V?$CTraceCategoryEx@$0CAAA@$0A@@1@A ; ATL::atlTraceException
PUBLIC	??_C@_0BC@PGMFNIFA@atlTraceException@		; `string'
PUBLIC	?m_nLevel@CTrace@ATL@@1IA			; ATL::CTrace::m_nLevel
PUBLIC	?m_nCategory@CTrace@ATL@@1IA			; ATL::CTrace::m_nCategory
PUBLIC	?m_nLastCategory@CTrace@ATL@@1IA		; ATL::CTrace::m_nLastCategory
PUBLIC	?m_nMap@CTrace@ATL@@1PAUCategoryMap@12@A	; ATL::CTrace::m_nMap
PUBLIC	??_C@_1O@LFNDFEBP@?$AA?$CF?$AAl?$AAs?$AA?5?$AA?9?$AA?5@ ; `string'
PUBLIC	??_C@_1M@PGKOAACE@?$AA?$CF?$AAu?$AA?5?$AA?9?$AA?5@ ; `string'
PUBLIC	??_C@_1O@OAIPCDPO@?$AA?$CF?$AAl?$AAs?$AA?$CF?$AAl?$AAs@ ; `string'
PUBLIC	??_C@_17LGGGMOOB@?$AA?$CF?$AAh?$AAs@		; `string'
PUBLIC	??_C@_1EO@EBPPKGOM@?$AAf?$AAa?$AAl?$AAs?$AAe?$AA?5?$AA?$CG?$AA?$CG?$AA?5?$AA?$CC?$AAT?$AAo?$AAo?$AA?5?$AAm@ ; `string'
PUBLIC	??_C@_1OE@PDFAMNPL@?$AAc?$AA?3?$AA?2?$AAp?$AAr?$AAo?$AAg?$AAr?$AAa?$AAm?$AA?5?$AAf?$AAi?$AAl?$AAe@ ; `string'
PUBLIC	?__LINE__Var@?0??AtlThrowImpl@ATL@@YGXJ@Z@4JA	; `ATL::AtlThrowImpl'::`1'::__LINE__Var
PUBLIC	??_C@_0HD@OEBHCJKM@c?3?2program?5files?5?$CIx86?$CJ?2microsof@ ; `string'
PUBLIC	??_C@_0BF@IAAKIJDJ@AtlThrow?3?5hr?5?$DN?50x?$CFx?6@ ; `string'
PUBLIC	??_C@_1BM@GBBOFEAE@?$AA_?$AA_?$AAa?$AAt?$AAl?$AA_?$AAc?$AAo?$AAn?$AAd?$AAV?$AAa?$AAl@ ; `string'
PUBLIC	?__LINE__Var@?0???0CTime@ATL@@QAE@HHHHHHH@Z@4JA	; `ATL::CTime::CTime'::`1'::__LINE__Var
PUBLIC	??_C@_1OC@IALJLBM@?$AAc?$AA?3?$AA?2?$AAp?$AAr?$AAo?$AAg?$AAr?$AAa?$AAm?$AA?5?$AAf?$AAi?$AAl?$AAe@ ; `string'
PUBLIC	??_C@_1BK@NHHHCKNA@?$AAm?$AA_?$AAt?$AAi?$AAm?$AAe?$AA?5?$AA?$CB?$AA?$DN?$AA?5?$AA?9?$AA1@ ; `string'
PUBLIC	??_C@_02DPKJAMEF@?$CFd@				; `string'
PUBLIC	??_C@_00CNPNBAHC@@				; `string'
PUBLIC	??_C@_02DKCKIIND@?$CFs@				; `string'
PUBLIC	??_7IUnknownEx@@6B@				; IUnknownEx::`vftable'
PUBLIC	??_7IDataBaseEngineSink@@6B@			; IDataBaseEngineSink::`vftable'
PUBLIC	??_7?$CTempldateHelper@UIDataBase@@@@6B@	; CTempldateHelper<IDataBase>::`vftable'
PUBLIC	??_7CDataBaseHelper@@6B@			; CDataBaseHelper::`vftable'
PUBLIC	??_C@_0P@IKJBDFNG@CreateDataBase@		; `string'
PUBLIC	??_C@_0BB@BEMLEOHB@KernelEngine?4dll@		; `string'
PUBLIC	??_7IGameDataBaseEngine@@6B@			; IGameDataBaseEngine::`vftable'
PUBLIC	??_C@_1BK@NHECDDNK@?$AAm?$AA_?$AAp?$AAD?$AAa?$AAt?$AAa?$AA?5?$AA?$DN?$AA?$DN?$AA?5?$AA0@ ; `string'
PUBLIC	??_R4CDataBaseHelper@@6B@			; CDataBaseHelper::`RTTI Complete Object Locator'
PUBLIC	??_R0?AVCDataBaseHelper@@@8			; CDataBaseHelper `RTTI Type Descriptor'
PUBLIC	??_R3CDataBaseHelper@@8				; CDataBaseHelper::`RTTI Class Hierarchy Descriptor'
PUBLIC	??_R2CDataBaseHelper@@8				; CDataBaseHelper::`RTTI Base Class Array'
PUBLIC	??_R1A@?0A@EA@CDataBaseHelper@@8		; CDataBaseHelper::`RTTI Base Class Descriptor at (0,-1,0,64)'
PUBLIC	??_R1A@?0A@EA@?$CTempldateHelper@UIDataBase@@@@8 ; CTempldateHelper<IDataBase>::`RTTI Base Class Descriptor at (0,-1,0,64)'
PUBLIC	??_R0?AV?$CTempldateHelper@UIDataBase@@@@@8	; CTempldateHelper<IDataBase> `RTTI Type Descriptor'
PUBLIC	??_R3?$CTempldateHelper@UIDataBase@@@@8		; CTempldateHelper<IDataBase>::`RTTI Class Hierarchy Descriptor'
PUBLIC	??_R2?$CTempldateHelper@UIDataBase@@@@8		; CTempldateHelper<IDataBase>::`RTTI Base Class Array'
PUBLIC	??_R4?$CTempldateHelper@UIDataBase@@@@6B@	; CTempldateHelper<IDataBase>::`RTTI Complete Object Locator'
PUBLIC	??_7CDataBaseEngineSink@@6BIDataBaseEngineSink@@@ ; CDataBaseEngineSink::`vftable'
PUBLIC	??_7CDataBaseEngineSink@@6BIGameDataBaseEngine@@@ ; CDataBaseEngineSink::`vftable'
PUBLIC	?__LINE__Var@?0??GetDataBase@CDataBaseEngineSink@@UAEPAXABU_GUID@@K@Z@4JA ; `CDataBaseEngineSink::GetDataBase'::`1'::__LINE__Var
PUBLIC	??_C@_0FB@KGNGNNGI@g?3?2?M?x?$LK?$PM?2happygamewh?2?$LH?$PO?N?q?$LG?K?2?O?$LF?M?$LD@ ; `string'
PUBLIC	?__LINE__Var@?0??GetDataBaseEngine@CDataBaseEngineSink@@UAEPAXABU_GUID@@K@Z@4JA ; `CDataBaseEngineSink::GetDataBaseEngine'::`1'::__LINE__Var
PUBLIC	?__LINE__Var@?0??OnDataBaseEngineStart@CDataBaseEngineSink@@UAE_NPAUIUnknownEx@@@Z@4JA ; `CDataBaseEngineSink::OnDataBaseEngineStart'::`1'::__LINE__Var
PUBLIC	??_C@_0CD@LCDNOEOA@?S?N?O?$LH?J?$PN?$LO?$NN?$LP?b?$MA?$KJ?U?$LJ?$LJ?$LD?W?S?R?$PN?G?f?$LG?T?O?s?E?d?V?C?J@ ; `string'
PUBLIC	??_R0PAUIDataBaseException@@@8			; IDataBaseException * `RTTI Type Descriptor'
PUBLIC	??_C@_0CL@EMJCKBGA@CDataBaseEngineSink?3?3OnDataBase@ ; `string'
PUBLIC	??_C@_07KKAAKNCA@?$CFs?5?5?5?$CFs@		; `string'
PUBLIC	?__LINE__Var@?0??OnRequestLogonUserID@CDataBaseEngineSink@@IAE_NKPAXGAAKH@Z@4JA ; `CDataBaseEngineSink::OnRequestLogonUserID'::`1'::__LINE__Var
PUBLIC	??_C@_0M@PCENNPGA@?$CFd?4?$CFd?4?$CFd?4?$CFd@	; `string'
PUBLIC	??_C@_09KCDEMNBD@?$EAdwUserID@			; `string'
PUBLIC	??_C@_0N@OCODJCJL@?$EAstrPassword@		; `string'
PUBLIC	??_C@_0N@IDHGAHBD@?$EAstrClientIP@		; `string'
PUBLIC	??_C@_0O@MBPPCANG@?$EAstrMachineID@		; `string'
PUBLIC	??_C@_08HBBOJKPI@?$EAwKindID@			; `string'
PUBLIC	??_C@_0L@FIEHJJML@?$EAwServerID@		; `string'
PUBLIC	??_C@_0L@MKEKGMGP@?$EAdwMatchID@		; `string'
PUBLIC	??_C@_09IPBDDIPA@?$EAlMatchNo@			; `string'
PUBLIC	??_C@_0N@NLBCJFKK@?$EAcbMatchType@		; `string'
PUBLIC	??_C@_0BC@IIOJPJPJ@?$EAstrErrorDescribe@	; `string'
PUBLIC	??_C@_0BG@EHAHJCGI@GSP_GR_EfficacyUserID@	; `string'
PUBLIC	??_C@_0DH@NMJACNII@?S?I?S?Z?J?$PN?$LO?$NN?$LP?b?$LC?Y?W?w?R?l?$LD?$KD?$KD?$KM?G?k?D?z?I?T?$LK?s?V?X?J@ ; `string'
PUBLIC	?__LINE__Var@?0??OnRequestLogonMobile@CDataBaseEngineSink@@IAE_NKPAXGAAK@Z@4JA ; `CDataBaseEngineSink::OnRequestLogonMobile'::`1'::__LINE__Var
PUBLIC	??_C@_0BC@KHGFDOLM@?$EAcbPersonalServer@	; `string'
PUBLIC	??_C@_0BG@OAADBPEH@GSP_GR_EfficacyMobile@	; `string'
PUBLIC	??_C@_0CK@MGDIICLE@CDataBaseEngineSink?3?3OnRequestL@ ; `string'
PUBLIC	?__LINE__Var@?0??OnRequestLogonAccounts@CDataBaseEngineSink@@IAE_NKPAXGAAK@Z@4JA ; `CDataBaseEngineSink::OnRequestLogonAccounts'::`1'::__LINE__Var
PUBLIC	??_C@_0N@MLMFFBNL@?$EAstrAccounts@		; `string'
PUBLIC	??_C@_0BI@BOJOKCIN@GSP_GR_EfficacyAccounts@	; `string'
PUBLIC	??_C@_0CM@KPLBNJDB@CDataBaseEngineSink?3?3OnRequestL@ ; `string'
PUBLIC	?__LINE__Var@?0??OnRequestWriteGameScore@CDataBaseEngineSink@@IAE_NKPAXGAAK@Z@4JA ; `CDataBaseEngineSink::OnRequestWriteGameScore'::`1'::__LINE__Var
PUBLIC	??_C@_0N@BIOKLHCN@?$EAdwDBQuestID@		; `string'
PUBLIC	??_C@_0O@PPOIJHID@?$EAdwInoutIndex@		; `string'
PUBLIC	??_C@_07IHGEHHKH@?$EAlScore@			; `string'
PUBLIC	??_C@_07LKNHCBOJ@?$EAlGrade@			; `string'
PUBLIC	??_C@_08OCBOKEP@?$EAlInsure@			; `string'
PUBLIC	??_C@_09OLPFNGOI@?$EAlRevenue@			; `string'
PUBLIC	??_C@_0L@EMKAIBLN@?$EAlWinCount@		; `string'
PUBLIC	??_C@_0M@BEHGNDKH@?$EAlLostCount@		; `string'
PUBLIC	??_C@_0M@FFFIBKLO@?$EAlDrawCount@		; `string'
PUBLIC	??_C@_0M@EBKENAHN@?$EAlFleeCount@		; `string'
PUBLIC	??_C@_0BA@FNKIBADP@?$EAlIntegralCount@		; `string'
PUBLIC	??_C@_0M@ENGFFDDJ@?$EAlUserMedal@		; `string'
PUBLIC	??_C@_0N@MGELBJJC@?$EAlExperience@		; `string'
PUBLIC	??_C@_0N@FDFNLKLE@?$EAlLoveLiness@		; `string'
PUBLIC	??_C@_0BB@ILKLMOOE@?$EAdwPlayTimeCount@		; `string'
PUBLIC	??_C@_0P@FLMBKOGD@?$EAcbTaskForward@		; `string'
PUBLIC	??_C@_0BG@DLJGFNHB@GSP_GR_WriteGameScore@	; `string'
PUBLIC	??_C@_0CN@JLMFBEAP@CDataBaseEngineSink?3?3OnRequestW@ ; `string'
PUBLIC	?__LINE__Var@?0??OnRequestLeaveGameServer@CDataBaseEngineSink@@IAE_NKPAXGAAK@Z@4JA ; `CDataBaseEngineSink::OnRequestLeaveGameServer'::`1'::__LINE__Var
PUBLIC	??_C@_0BD@NIKDNNEL@?$EAdwOnLineTimeCount@	; `string'
PUBLIC	??_C@_0P@IACLLIC@?$EAdwLeaveReason@		; `string'
PUBLIC	??_C@_0O@FKMDFANF@?$EAlRecordScore@		; `string'
PUBLIC	??_C@_0O@GHHAAGJL@?$EAlRecordGrade@		; `string'
PUBLIC	??_C@_0P@LAPHFNHI@?$EAlRecordInsure@		; `string'
PUBLIC	??_C@_0BA@FDPGKFFA@?$EAlRecordRevenue@		; `string'
PUBLIC	??_C@_0BB@IJKCLJHA@?$EAlRecordWinCount@		; `string'
PUBLIC	??_C@_0BC@PBGGGPJC@?$EAlRecordLostCount@	; `string'
PUBLIC	??_C@_0BC@LAEIKGIL@?$EAlRecordDrawCount@	; `string'
PUBLIC	??_C@_0BC@KELEGMEI@?$EAlRecordFleeCount@	; `string'
PUBLIC	??_C@_0BC@KIHFOPAM@?$EAlRecordUserMedal@	; `string'
PUBLIC	??_C@_0BD@JABNMNAN@?$EAlRecordExperience@	; `string'
PUBLIC	??_C@_0BD@FALGOCL@?$EAlRecordLoveLiness@	; `string'
PUBLIC	??_C@_0BH@CFEHAANM@?$EAdwRecordPlayTimeCount@	; `string'
PUBLIC	??_C@_0BB@BDJPJJDH@?$EAlVariationScore@		; `string'
PUBLIC	??_C@_0BB@COCMMPHJ@?$EAlVariationGrade@		; `string'
PUBLIC	??_C@_0BC@POLKICOF@?$EAlVariationInsure@	; `string'
PUBLIC	??_C@_0BD@NNAGAHHG@?$EAlVariationRevenue@	; `string'
PUBLIC	??_C@_0BE@FLCBMMCP@?$EAlVariationWinCount@	; `string'
PUBLIC	??_C@_0BF@KGAKAIC@?$EAlVariationLostCount@	; `string'
PUBLIC	??_C@_0BF@ELEOGJJL@?$EAlVariationDrawCount@	; `string'
PUBLIC	??_C@_0BF@FPLCKDFI@?$EAlVariationFleeCount@	; `string'
PUBLIC	??_C@_0BJ@HKGEBBIO@?$EAlVariationIntegralCount@	; `string'
PUBLIC	??_C@_0BF@FDHDCABM@?$EAlVariationUserMedal@	; `string'
PUBLIC	??_C@_0BG@INFBNLKG@?$EAlVariationExperience@	; `string'
PUBLIC	??_C@_0BG@BIEHHIIA@?$EAlVariationLoveLiness@	; `string'
PUBLIC	??_C@_0BK@LBPPCHBA@?$EAdwVariationPlayTimeCount@ ; `string'
PUBLIC	??_C@_0BC@DCDJHBHF@?$EAcbIsPersonalRoom@	; `string'
PUBLIC	??_C@_0BH@MLOBMFPB@GSP_GR_LeaveGameServer@	; `string'
PUBLIC	??_C@_0CO@HMPMMKID@CDataBaseEngineSink?3?3OnRequestL@ ; `string'
PUBLIC	?__LINE__Var@?0??OnRequestWritePersonalGameScore@CDataBaseEngineSink@@IAE_NKPAXGAAK@Z@4JA ; `CDataBaseEngineSink::OnRequestWritePersonalGameScore'::`1'::__LINE__Var
PUBLIC	??_C@_0BC@LLEGCEPB@?$EAdwPersonalRoomID@	; `string'
PUBLIC	??_C@_0L@LJHFIHID@?$EAdwMatchNo@		; `string'
PUBLIC	??_C@_0O@GFIHOHG@?$EAdwRoomHostID@		; `string'
PUBLIC	??_C@_0P@DBPPDOEI@?$EAdwPersonalTax@		; `string'
PUBLIC	??_C@_0BF@JFHEMCEA@?$EAstrPersonalRoomGUID@	; `string'
PUBLIC	??_C@_0BO@LELKKMEB@GSP_GR_WritePersonalGameScore@ ; `string'
PUBLIC	??_C@_0P@OLEHMMGF@?T?$LM?U?$LN?$LH?$LP?$LM?d?P?$LE?$LH?V?51@ ; `string'
PUBLIC	??_C@_0P@MAGKJPKG@?T?$LM?U?$LN?$LH?$LP?$LM?d?P?$LE?$LH?V?52@ ; `string'
PUBLIC	??_C@_0P@NJHBKOOH@?T?$LM?U?$LN?$LH?$LP?$LM?d?P?$LE?$LH?V?53@ ; `string'
PUBLIC	??_C@_06INBEDIMB@?$EAstrID@			; `string'
PUBLIC	??_C@_0L@NKNBMEGF@?$EAlGamesNum@		; `string'
PUBLIC	??_C@_0M@CIPFFAIA@?$EAcbGameMode@		; `string'
PUBLIC	??_C@_0N@DPNIOAJI@?$EAcbLoopCount@		; `string'
PUBLIC	??_C@_0BL@EDODNHHH@GSP_GR_WriteRecordBackInfo@	; `string'
PUBLIC	??_C@_0DF@CGMOPKIG@CDataBaseEngineSink?3?3OnRequestW@ ; `string'
PUBLIC	?__LINE__Var@?0??OnRequestGameScoreRecord@CDataBaseEngineSink@@IAE_NKPAXGAAK@Z@4JA ; `CDataBaseEngineSink::OnRequestGameScoreRecord'::`1'::__LINE__Var
PUBLIC	??_C@_09BEPIILDK@?$EAwTableID@			; `string'
PUBLIC	??_C@_0M@NBOKIGPJ@?$EAwUserCount@		; `string'
PUBLIC	??_C@_0P@CKGONGPM@?$EAwAndroidCount@		; `string'
PUBLIC	??_C@_0N@PABBDPKG@?$EAlWasteCount@		; `string'
PUBLIC	??_C@_0P@NCELGDGP@?$EAlRevenueCount@		; `string'
PUBLIC	??_C@_0N@GPKBKOPN@?$EAdwUserMemal@		; `string'
PUBLIC	??_C@_0BB@PGLAPBFB@?$EASystemTimeStart@		; `string'
PUBLIC	??_C@_0BE@EDEOJJCJ@?$EASystemTimeConclude@	; `string'
PUBLIC	??_C@_0BG@LIJOAHKH@GSP_GR_RecordDrawInfo@	; `string'
PUBLIC	??_C@_06CNNJCHLH@DrawID@			; `string'
PUBLIC	??_C@_09GKJPNPDO@?$EAdwDrawID@			; `string'
PUBLIC	??_C@_09HEKEGECD@?$EAwChairID@			; `string'
PUBLIC	??_C@_0N@BCKJOBHH@?$EAdwUserMedal@		; `string'
PUBLIC	??_C@_0BH@GDKLKNEL@GSP_GR_RecordDrawScore@	; `string'
PUBLIC	??_C@_0CO@PMJFKAHH@CDataBaseEngineSink?3?3OnRequestG@ ; `string'
PUBLIC	??_C@_0BF@PPDAJELF@GSP_GR_LoadParameter@	; `string'
PUBLIC	??_C@_09ONKIKKOA@MedalRate@			; `string'
PUBLIC	??_C@_0M@DBHJHGAC@RevenueRate@			; `string'
PUBLIC	??_C@_0N@GLADEADN@ExchangeRate@			; `string'
PUBLIC	??_C@_0BE@JJGPDMNP@PresentExchangeRate@		; `string'
PUBLIC	??_C@_08NAMHLHLO@RateGold@			; `string'
PUBLIC	??_C@_0BC@IMPEKOG@EducateGrantScore@		; `string'
PUBLIC	??_C@_0O@ICJCJIAI@WinExperience@		; `string'
PUBLIC	??_C@_0O@DNEICACF@ClientVersion@		; `string'
PUBLIC	??_C@_0O@BNALHPOE@ServerVersion@		; `string'
PUBLIC	??_C@_0CM@KGJLJCFF@CDataBaseEngineSink?3?3OnRequestL@ ; `string'
PUBLIC	?__LINE__Var@?0??OnRequestLoadGameColumn@CDataBaseEngineSink@@IAE_NKPAXGAAK@Z@4JA ; `CDataBaseEngineSink::OnRequestLoadGameColumn'::`1'::__LINE__Var
PUBLIC	??_C@_0BG@IEDFJCH@GSP_GR_GameColumnItem@	; `string'
PUBLIC	??_C@_0M@COECLCNM@ColumnWidth@			; `string'
PUBLIC	??_C@_0N@JAOGOMAE@DataDescribe@			; `string'
PUBLIC	??_C@_0L@EBJKHBJE@ColumnName@			; `string'
PUBLIC	??_C@_0CN@LJMNCEOE@CDataBaseEngineSink?3?3OnRequestL@ ; `string'
PUBLIC	?__LINE__Var@?0??OnRequestLoadAndroidUser@CDataBaseEngineSink@@IAE_NKPAXGAAK@Z@4JA ; `CDataBaseEngineSink::OnRequestLoadAndroidUser'::`1'::__LINE__Var
PUBLIC	??_C@_0L@BDGKHOMD@?$EAdwBatchID@		; `string'
PUBLIC	??_C@_0BA@DNMBDDEJ@?$EAdwAndroidCount@		; `string'
PUBLIC	??_C@_0BH@DNAMKFJF@?$EAdwAndroidCountMember0@	; `string'
PUBLIC	??_C@_0BH@CEBHJENE@?$EAdwAndroidCountMember1@	; `string'
PUBLIC	??_C@_0BH@PDKMHBH@?$EAdwAndroidCountMember2@	; `string'
PUBLIC	??_C@_0BH@BGCBPGFG@?$EAdwAndroidCountMember3@	; `string'
PUBLIC	??_C@_0BH@FJGAGAJB@?$EAdwAndroidCountMember4@	; `string'
PUBLIC	??_C@_0BH@EAHLFBNA@?$EAdwAndroidCountMember5@	; `string'
PUBLIC	??_C@_0BH@BJLDIKBA@GSP_GR_LoadAndroidUser@	; `string'
PUBLIC	??_C@_06OFHCDFJK@UserID@			; `string'
PUBLIC	??_C@_09GHCLGGMH@LogonPass@			; `string'
PUBLIC	??_C@_0CO@KOKOIFGC@CDataBaseEngineSink?3?3OnRequestL@ ; `string'
PUBLIC	?__LINE__Var@?0??OnRequestLoadAndroidParameter@CDataBaseEngineSink@@IAE_NKPAXGAAK@Z@4JA ; `CDataBaseEngineSink::OnRequestLoadAndroidParameter'::`1'::__LINE__Var
PUBLIC	??_C@_0BM@HFEEKHA@GSP_GR_LoadAndroidConfigure@	; `string'
PUBLIC	??_C@_07IHEJADLP@BatchID@			; `string'
PUBLIC	??_C@_0M@CGPIJAFO@ServiceMode@			; `string'
PUBLIC	??_C@_0N@LHJAPBGB@AndroidCount@			; `string'
PUBLIC	??_C@_09JEABEHKK@EnterTime@			; `string'
PUBLIC	??_C@_09JGPPHJIC@LeaveTime@			; `string'
PUBLIC	??_C@_0N@INLGMBIA@TakeMinScore@			; `string'
PUBLIC	??_C@_0N@FKFNHDMB@TakeMaxScore@			; `string'
PUBLIC	??_C@_0BB@CIODOFGF@EnterMinInterval@		; `string'
PUBLIC	??_C@_0BB@LIJAPFIP@EnterMaxInterval@		; `string'
PUBLIC	??_C@_0BB@LHMMNCPE@LeaveMinInterval@		; `string'
PUBLIC	??_C@_0BB@CHLPMCBO@LeaveMaxInterval@		; `string'
PUBLIC	??_C@_0BB@CKJBODDL@SwitchMinInnings@		; `string'
PUBLIC	??_C@_0BB@OGJMJIDE@SwitchMaxInnings@		; `string'
PUBLIC	??_C@_0BE@BKOJNNPF@AndroidCountMember0@		; `string'
PUBLIC	??_C@_0BE@DPCOMLE@AndroidCountMember1@		; `string'
PUBLIC	??_C@_0BE@CINPLPHH@AndroidCountMember2@		; `string'
PUBLIC	??_C@_0BE@DBMEIODG@AndroidCountMember3@		; `string'
PUBLIC	??_C@_0BE@HOIFBIPB@AndroidCountMember4@		; `string'
PUBLIC	??_C@_0BE@GHJOCJLA@AndroidCountMember5@		; `string'
PUBLIC	??_C@_0DD@MMLAFNDG@CDataBaseEngineSink?3?3OnRequestL@ ; `string'
PUBLIC	?__LINE__Var@?0??OnRequestUserEnableInsure@CDataBaseEngineSink@@IAE_NKPAXGAAK@Z@4JA ; `CDataBaseEngineSink::OnRequestUserEnableInsure'::`1'::__LINE__Var
PUBLIC	??_C@_0O@JCJPMBHE@?$EAstrLogonPass@		; `string'
PUBLIC	??_C@_0P@EDLCJHLF@?$EAstrInsurePass@		; `string'
PUBLIC	??_C@_0BI@EOGGEIFI@GSP_GR_UserEnableInsure@	; `string'
PUBLIC	??_C@_0CP@PANKEFEH@CDataBaseEngineSink?3?3OnRequestU@ ; `string'
PUBLIC	??_C@_0CD@MJBPILMG@?S?I?S?Z?J?$PN?$LO?$NN?$LP?b?$LC?Y?W?w?R?l?$LD?$KD?$KD?$KM?G?k?D?z?I?T?$LK?s?V?X?J@ ; `string'
PUBLIC	?__LINE__Var@?0??OnRequestUserSaveScore@CDataBaseEngineSink@@IAE_NKPAXGAAK@Z@4JA ; `CDataBaseEngineSink::OnRequestUserSaveScore'::`1'::__LINE__Var
PUBLIC	??_C@_0M@DMDPGKCL@?$EAlSaveScore@		; `string'
PUBLIC	??_C@_0BF@ONNMJOCF@GSP_GR_UserSaveScore@	; `string'
PUBLIC	??_C@_0CM@LEHHJIMF@CDataBaseEngineSink?3?3OnRequestU@ ; `string'
PUBLIC	?__LINE__Var@?0??OnRequestUserTakeScore@CDataBaseEngineSink@@IAE_NKPAXGAAK@Z@4JA ; `CDataBaseEngineSink::OnRequestUserTakeScore'::`1'::__LINE__Var
PUBLIC	??_C@_0M@DJFNFFKI@?$EAlTakeScore@		; `string'
PUBLIC	??_C@_0BF@OILOKBKG@GSP_GR_UserTakeScore@	; `string'
PUBLIC	??_C@_0CM@LBBFKHEG@CDataBaseEngineSink?3?3OnRequestU@ ; `string'
PUBLIC	?__LINE__Var@?0??OnRequestUserTransferScore@CDataBaseEngineSink@@IAE_NKPAXGAAK@Z@4JA ; `CDataBaseEngineSink::OnRequestUserTransferScore'::`1'::__LINE__Var
PUBLIC	??_C@_0BA@MGGCKEGC@?$EAlTransferScore@		; `string'
PUBLIC	??_C@_09OBNFMHID@?$EAdwGameID@			; `string'
PUBLIC	??_C@_0BA@MNCPGFOB@?$EAstrTransRemark@		; `string'
PUBLIC	??_C@_0BJ@BAPHEKDA@GSP_GR_UserTransferScore@	; `string'
PUBLIC	??_C@_0DA@JNEBPLMI@CDataBaseEngineSink?3?3OnRequestU@ ; `string'
PUBLIC	?__LINE__Var@?0??OnRequestQueryInsureInfo@CDataBaseEngineSink@@IAE_NKPAXGAAK@Z@4JA ; `CDataBaseEngineSink::OnRequestQueryInsureInfo'::`1'::__LINE__Var
PUBLIC	??_C@_0BL@GGGEOIGJ@GSP_GR_QueryUserInsureInfo@	; `string'
PUBLIC	??_C@_0P@DBBFLPKL@EnjoinTransfer@		; `string'
PUBLIC	??_C@_0M@KJEDGHOP@RevenueTake@			; `string'
PUBLIC	??_C@_0BA@HIHDDCHL@RevenueTransfer@		; `string'
PUBLIC	??_C@_0BG@EHBBDEOF@RevenueTransferMember@	; `string'
PUBLIC	??_C@_08BHBELLIH@ServerID@			; `string'
PUBLIC	??_C@_05DGAPONBB@Score@				; `string'
PUBLIC	??_C@_06CMJCJHGM@Insure@			; `string'
PUBLIC	??_C@_0BF@DFIKLPAJ@TransferPrerequisite@	; `string'
PUBLIC	??_C@_09BHJIBPFI@UserRight@			; `string'
PUBLIC	??_C@_0CO@GLIMKCDC@CDataBaseEngineSink?3?3OnRequestQ@ ; `string'
PUBLIC	?__LINE__Var@?0??OnRequestQueryTransferUserInfo@CDataBaseEngineSink@@IAE_NKPAXGAAK@Z@4JA ; `CDataBaseEngineSink::OnRequestQueryTransferUserInfo'::`1'::__LINE__Var
PUBLIC	??_C@_0O@KBJAEAIJ@?$EAcbByNickName@		; `string'
PUBLIC	??_C@_0BN@BPPBPPLC@GSP_GR_QueryTransferUserInfo@ ; `string'
PUBLIC	??_C@_06KGJDDPAK@GameID@			; `string'
PUBLIC	??_C@_08HAKGLFIM@Accounts@			; `string'
PUBLIC	??_C@_0DE@LJCJKDHO@CDataBaseEngineSink?3?3OnRequestQ@ ; `string'
PUBLIC	?__LINE__Var@?0??OnRequestTaskGiveUp@CDataBaseEngineSink@@IAE_NKPAXGAAK@Z@4JA ; `CDataBaseEngineSink::OnRequestTaskGiveUp'::`1'::__LINE__Var
PUBLIC	??_C@_08MMMILHNH@?$EAwTaskID@			; `string'
PUBLIC	??_C@_0BC@OIFHAIIF@GSP_GR_TaskGiveUp@		; `string'
PUBLIC	??_C@_0CJ@ILCACMNL@CDataBaseEngineSink?3?3OnRequestT@ ; `string'
PUBLIC	?__LINE__Var@?0??OnRequestTaskTake@CDataBaseEngineSink@@IAE_NKPAXGAAK@Z@4JA ; `CDataBaseEngineSink::OnRequestTaskTake'::`1'::__LINE__Var
PUBLIC	??_C@_0BA@OEKNDNNG@GSP_GR_TaskTake@		; `string'
PUBLIC	??_C@_0CH@BNKPKJJC@CDataBaseEngineSink?3?3OnRequestT@ ; `string'
PUBLIC	?__LINE__Var@?0??OnRequestTaskReward@CDataBaseEngineSink@@IAE_NKPAXGAAK@Z@4JA ; `CDataBaseEngineSink::OnRequestTaskReward'::`1'::__LINE__Var
PUBLIC	??_C@_0BC@LNNECEA@GSP_GR_TaskReward@		; `string'
PUBLIC	??_C@_05OOEBDDIB@Ingot@				; `string'
PUBLIC	??_C@_0CJ@GIKKGGBO@CDataBaseEngineSink?3?3OnRequestT@ ; `string'
PUBLIC	??_C@_0BE@DLBECAIO@GSP_GR_LoadTaskList@		; `string'
PUBLIC	??_C@_06MPKKOHIJ@TaskID@			; `string'
PUBLIC	??_C@_08CGFBPIO@TaskType@			; `string'
PUBLIC	??_C@_08LFHMHDM@UserType@			; `string'
PUBLIC	??_C@_06HCHMMKKG@KindID@			; `string'
PUBLIC	??_C@_07EDCJMCFO@Innings@			; `string'
PUBLIC	??_C@_09OHILOMME@TimeLimit@			; `string'
PUBLIC	??_C@_0BC@HPFPIBKO@StandardAwardGold@		; `string'
PUBLIC	??_C@_0BD@NAANCEAG@StandardAwardMedal@		; `string'
PUBLIC	??_C@_0BA@NOFNIKCO@MemberAwardGold@		; `string'
PUBLIC	??_C@_0BB@DNBEKFCN@MemberAwardMedal@		; `string'
PUBLIC	??_C@_08KJGGNPPO@TaskName@			; `string'
PUBLIC	??_C@_0BA@OIFLMOIG@TaskDescription@		; `string'
PUBLIC	??_C@_0CL@CDCPNHPC@CDataBaseEngineSink?3?3OnRequestL@ ; `string'
PUBLIC	?__LINE__Var@?0??OnRequestTaskQueryInfo@CDataBaseEngineSink@@IAE_NKPAXGAAK@Z@4JA ; `CDataBaseEngineSink::OnRequestTaskQueryInfo'::`1'::__LINE__Var
PUBLIC	??_C@_0BF@CABIHPIH@GSP_GR_QueryTaskInfo@	; `string'
PUBLIC	??_C@_0L@LCDMJJED@TaskStatus@			; `string'
PUBLIC	??_C@_08DAJBHHIG@Progress@			; `string'
PUBLIC	??_C@_0CM@BKBDBKAO@CDataBaseEngineSink?3?3OnRequestT@ ; `string'
PUBLIC	?__LINE__Var@?0??OnRequestPurchaseMember@CDataBaseEngineSink@@IAE_NKPAXGAAK@Z@4JA ; `CDataBaseEngineSink::OnRequestPurchaseMember'::`1'::__LINE__Var
PUBLIC	??_C@_0P@NMLGPOCE@?$EAcbMemberOrder@		; `string'
PUBLIC	??_C@_0O@OLHLCFMI@?$EAPurchaseTime@		; `string'
PUBLIC	??_C@_0BC@HOOFHDNN@?$EAstrNotifyContent@	; `string'
PUBLIC	??_C@_0BG@EJNBGOOH@GSP_GR_PurchaseMember@	; `string'
PUBLIC	??_C@_09DOHMEJBC@CurrScore@			; `string'
PUBLIC	??_C@_09JAMNPFHM@CurrBeans@			; `string'
PUBLIC	??_C@_0M@CEFIIFDG@MemberOrder@			; `string'
PUBLIC	??_C@_0CN@OJICCHJJ@CDataBaseEngineSink?3?3OnRequestP@ ; `string'
PUBLIC	??_C@_0BJ@OKFJHKJC@?J?$PN?$LO?$NN?$LP?b?R?l?$LD?$KD?$KD?$KM?G?k?I?T?$LK?s?T?Y?J?T?$KD?$KB@ ; `string'
PUBLIC	?__LINE__Var@?0??OnRequestExchangeScoreByIngot@CDataBaseEngineSink@@IAE_NKPAXGAAK@Z@4JA ; `CDataBaseEngineSink::OnRequestExchangeScoreByIngot'::`1'::__LINE__Var
PUBLIC	??_C@_0P@HLLJOKNA@?$EAExchangeIngot@		; `string'
PUBLIC	??_C@_0BM@CGBMFEMN@GSP_GR_ExchangeScoreByIngot@	; `string'
PUBLIC	??_C@_0L@LFJDLFHC@CurrInsure@			; `string'
PUBLIC	??_C@_09OGDCJHIC@CurrIngot@			; `string'
PUBLIC	??_C@_0DD@ECBHPPGI@CDataBaseEngineSink?3?3OnRequestE@ ; `string'
PUBLIC	?__LINE__Var@?0??OnRequestExchangeScoreByBeans@CDataBaseEngineSink@@IAE_NKPAXGAAK@Z@4JA ; `CDataBaseEngineSink::OnRequestExchangeScoreByBeans'::`1'::__LINE__Var
PUBLIC	??_C@_0P@NEGIICO@?$EAExchangeBeans@		; `string'
PUBLIC	??_C@_0BM@FAODDGDD@GSP_GR_ExchangeScoreByBeans@	; `string'
PUBLIC	??_C@_0DD@DEOIJNJG@CDataBaseEngineSink?3?3OnRequestE@ ; `string'
PUBLIC	?__LINE__Var@?0??OnRequestCreateTable@CDataBaseEngineSink@@IAE_NKPAXGAAK@Z@4JA ; `CDataBaseEngineSink::OnRequestCreateTable'::`1'::__LINE__Var
PUBLIC	??_C@_0M@EODDKFON@?$EAdwServerID@		; `string'
PUBLIC	??_C@_0BC@OJLPCFLJ@?$EAdwDrawCountLimit@	; `string'
PUBLIC	??_C@_0BB@GNGNCHP@?$EAdwDrawTimeLimit@		; `string'
PUBLIC	??_C@_0L@MKMNCOIA@?$EAcbPayMode@		; `string'
PUBLIC	??_C@_0BG@JHMIPHGJ@GSP_GR_CreateTableFee@	; `string'
PUBLIC	??_C@_09GKKCFNJE@dCurBeans@			; `string'
PUBLIC	??_C@_07KLLDCFGI@Diamond@			; `string'
PUBLIC	??_C@_0L@HLGININO@IsJoinGame@			; `string'
PUBLIC	??_C@_0M@FCOEMICD@RoomCardFee@			; `string'
PUBLIC	??_C@_0CK@PCMMMPAB@CDataBaseEngineSink?3?3OnRequestC@ ; `string'
PUBLIC	?__LINE__Var@?0??OnRequsetInsertCreateRecord@CDataBaseEngineSink@@IAE_NKPAXGAAK@Z@4JA ; `CDataBaseEngineSink::OnRequsetInsertCreateRecord'::`1'::__LINE__Var
PUBLIC	??_C@_0M@DOJONCPP@?$EAlCellScore@		; `string'
PUBLIC	??_C@_0M@LDFFBNFK@?$EAszPassWord@		; `string'
PUBLIC	??_C@_0BG@OPNEFMMB@?$EAwJoinGamePeopleCount@	; `string'
PUBLIC	??_C@_0L@BGJPFBDC@?$EAdwRoomTax@		; `string'
PUBLIC	??_C@_0P@OCGFALPI@?$EAstrClientAddr@		; `string'
PUBLIC	??_C@_0P@BMDMNKBP@?$EAlNeedRoomCard@		; `string'
PUBLIC	??_C@_0BK@ENDDICLC@GSP_GR_InsertCreateRecord@	; `string'
PUBLIC	??_C@_0DB@JIAHEJMG@CDataBaseEngineSink?3?3OnRequsetI@ ; `string'
PUBLIC	?__LINE__Var@?0??OnRequestRoomTaskProgress@CDataBaseEngineSink@@IAE_NKPAXGAAK@Z@4JA ; `CDataBaseEngineSink::OnRequestRoomTaskProgress'::`1'::__LINE__Var
PUBLIC	??_C@_0BH@MBIPJJG@GSP_GR_TaskForwardRoom@	; `string'
PUBLIC	??_C@_0CP@JCNEGAGN@CDataBaseEngineSink?3?3OnRequestR@ ; `string'
PUBLIC	?__LINE__Var@?0??OnRequestCancelCreateTable@CDataBaseEngineSink@@IAE_NKPAXGAAK@Z@4JA ; `CDataBaseEngineSink::OnRequestCancelCreateTable'::`1'::__LINE__Var
PUBLIC	??_C@_0BH@PEGJEIJA@GSP_GR_CreateTableQuit@	; `string'
PUBLIC	??_C@_0DA@COMBFLNK@CDataBaseEngineSink?3?3OnRequestC@ ; `string'
PUBLIC	?__LINE__Var@?0??OnRequestPayRoomCard@CDataBaseEngineSink@@IAE_NKPAXGAAK@Z@4JA ; `CDataBaseEngineSink::OnRequestPayRoomCard'::`1'::__LINE__Var
PUBLIC	??_C@_09DFDKDCCP@?$EAdwKindID@			; `string'
PUBLIC	??_C@_0BD@IFAMGNPA@GSP_GS_PayRoomCard@		; `string'
PUBLIC	??_C@_08EPCALAFM@RoomCard@			; `string'
PUBLIC	??_C@_0CK@JELDIHFB@CDataBaseEngineSink?3?3OnRequestP@ ; `string'
PUBLIC	?__LINE__Var@?0??OnRequestHostCancelCreateTable@CDataBaseEngineSink@@IAE_NKPAXGAAK@Z@4JA ; `CDataBaseEngineSink::OnRequestHostCancelCreateTable'::`1'::__LINE__Var
PUBLIC	??_C@_0DE@HCHBNBGO@CDataBaseEngineSink?3?3OnRequestH@ ; `string'
PUBLIC	?__LINE__Var@?0??OnRequsetDissumeRoom@CDataBaseEngineSink@@IAE_NKPAXGAAK@Z@4JA ; `CDataBaseEngineSink::OnRequsetDissumeRoom'::`1'::__LINE__Var
PUBLIC	??_C@_0N@JHGDNOFD@?$EAlRoomHostID@		; `string'
PUBLIC	??_C@_0L@KCMGAPDJ@?$EAlTaxCount@		; `string'
PUBLIC	??_C@_0BE@NAHDLGHP@?$EAcbPersonalRoomInfo@	; `string'
PUBLIC	??_C@_0BL@PABMBFJD@GSP_GR_DissumePersonalRoom@	; `string'
PUBLIC	??_C@_0M@HLPFMBJA@DissumeDate@			; `string'
PUBLIC	??_C@_0CK@LFPKHGBF@CDataBaseEngineSink?3?3OnRequsetD@ ; `string'
PUBLIC	??_C@_0CB@MMPODBFJ@GSP_GS_LoadPersonalRoomParamete@ ; `string'
PUBLIC	??_C@_0BA@GCOMLPGF@PersonalRoomTax@		; `string'
PUBLIC	??_C@_09BAGGAEBH@MinPeople@			; `string'
PUBLIC	??_C@_09BBGKJOKD@MaxPeople@			; `string'
PUBLIC	??_C@_0N@CNCFIDBJ@MaxCellScore@			; `string'
PUBLIC	??_C@_0P@LNMJOPEM@CanCreateCount@		; `string'
PUBLIC	??_C@_0O@FAGABJFM@PlayTimeLimit@		; `string'
PUBLIC	??_C@_0O@FDPMPBME@PlayTurnCount@		; `string'
PUBLIC	??_C@_0BE@NHDBBOLF@TimeAfterBeginCount@		; `string'
PUBLIC	??_C@_0BB@BHHEMCMJ@TimeOffLineCount@		; `string'
PUBLIC	??_C@_0BB@EFKEMBID@TimeNotBeginGame@		; `string'
PUBLIC	??_C@_0BM@CMLNFFIM@TimeNotBeginAfterCreateRoom@	; `string'
PUBLIC	??_C@_0O@DEEAMCAI@BeginFreeTime@		; `string'
PUBLIC	??_C@_0M@OHDGOHJM@EndFreeTime@			; `string'
PUBLIC	??_C@_0DE@KBOJGAM@CDataBaseEngineSink?3?3OnRequestL@ ; `string'
PUBLIC	??_C@_0DA@CFJDFJBA@?$CFs?5?5?5GSP_GS_LoadPersonalRoomPar@ ; `string'
PUBLIC	??_C@_0BP@BLHAELOH@GSP_MB_GetPersonalFeeParameter@ ; `string'
PUBLIC	??_C@_08MILKFGPP@IniScore@			; `string'
PUBLIC	??_C@_0O@DDOJCLEH@DrawTimeLimit@		; `string'
PUBLIC	??_C@_0P@MBIIKCNO@DrawCountLimit@		; `string'
PUBLIC	??_C@_08JJGOBBMF@GameMode@			; `string'
PUBLIC	?__LINE__Var@?0??OnRequestBuyGameProperty@CDataBaseEngineSink@@IAE_NKPAXGAAK@Z@4JA ; `CDataBaseEngineSink::OnRequestBuyGameProperty'::`1'::__LINE__Var
PUBLIC	??_C@_0O@DKLCKEMB@?$EAdwPropertyID@		; `string'
PUBLIC	??_C@_0P@EDMHJKLC@?$EAiDiamondCount@		; `string'
PUBLIC	??_C@_0BD@IGKNKDED@GSP_GP_BuyProperty@		; `string'
PUBLIC	??_C@_0L@FPKPEDKI@PropertyID@			; `string'
PUBLIC	??_C@_09GGKKDIOI@ItemCount@			; `string'
PUBLIC	??_C@_04PABHPHAJ@Gold@				; `string'
PUBLIC	??_C@_09LPJHEOCP@UserMedal@			; `string'
PUBLIC	??_C@_0L@KHHLPNPI@LoveLiness@			; `string'
PUBLIC	??_C@_04FOIHINLL@Cash@				; `string'
PUBLIC	??_C@_0CO@MPKMHGDB@CDataBaseEngineSink?3?3OnRequestB@ ; `string'
PUBLIC	?__LINE__Var@?0??OnRequestPropertyBackpack@CDataBaseEngineSink@@IAE_NKPAXGAAK@Z@4JA ; `CDataBaseEngineSink::OnRequestPropertyBackpack'::`1'::__LINE__Var
PUBLIC	??_C@_07PAELCOKM@?$EAdwKind@			; `string'
PUBLIC	??_C@_0BJ@NINJDHMC@GSP_GP_QueryUserBackpack@	; `string'
PUBLIC	??_C@_0L@IGEJKFCI@GoodsCount@			; `string'
PUBLIC	??_C@_07MDLPIIFA@GoodsID@			; `string'
PUBLIC	??_C@_04BDAIJBLK@Kind@				; `string'
PUBLIC	??_C@_07JEPNMDKI@UseArea@			; `string'
PUBLIC	??_C@_09OBCHOID@Recommend@			; `string'
PUBLIC	??_C@_0P@FDPEKBGF@SendLoveLiness@		; `string'
PUBLIC	??_C@_0P@ENAAGJJA@RecvLoveLiness@		; `string'
PUBLIC	??_C@_0P@JNHGNONC@UseResultsGold@		; `string'
PUBLIC	??_C@_04FABLJDN@Name@				; `string'
PUBLIC	??_C@_0BA@KPHOLCOF@RegulationsInfo@		; `string'
PUBLIC	??_C@_0CP@HIDLIGIE@CDataBaseEngineSink?3?3OnRequestP@ ; `string'
PUBLIC	?__LINE__Var@?0??OnRequestPropertyUse@CDataBaseEngineSink@@IAE_NKPAXGAAK@Z@4JA ; `CDataBaseEngineSink::OnRequestPropertyUse'::`1'::__LINE__Var
PUBLIC	??_C@_0O@GOEJDCMG@?$EAdwRecvUserID@		; `string'
PUBLIC	??_C@_09NLOJOBDL@?$EAdwPropID@			; `string'
PUBLIC	??_C@_0N@PEPMKFNO@?$EAdwPropCount@		; `string'
PUBLIC	??_C@_0P@IDLLGLHM@GSP_GP_UseProp@		; `string'
PUBLIC	??_C@_0M@CENFFNCO@ServiceArea@			; `string'
PUBLIC	??_C@_0BE@IAAJAJPN@UseResultsValidTime@		; `string'
PUBLIC	??_C@_0P@DNPEGDJL@RemainderCount@		; `string'
PUBLIC	??_C@_07NBJKJPHI@UseTime@			; `string'
PUBLIC	??_C@_0CK@BKABFICD@CDataBaseEngineSink?3?3OnRequestP@ ; `string'
PUBLIC	?__LINE__Var@?0??OnRequestQuerySendPresent@CDataBaseEngineSink@@IAE_NKPAXGAAK@Z@4JA ; `CDataBaseEngineSink::OnRequestQuerySendPresent'::`1'::__LINE__Var
PUBLIC	??_C@_0BI@HEBCAEB@GSP_GP_QuerySendPresent@	; `string'
PUBLIC	??_C@_0P@KKCLPPAI@ReceiverUserID@		; `string'
PUBLIC	??_C@_06JMKPBJLC@PropID@			; `string'
PUBLIC	??_C@_09FJMCAKIG@PropCount@			; `string'
PUBLIC	??_C@_08FBPGFENK@SendTime@			; `string'
PUBLIC	??_C@_0CP@MNEJCLKP@CDataBaseEngineSink?3?3OnRequestQ@ ; `string'
PUBLIC	?__LINE__Var@?0??OnRequestPropertyPresent@CDataBaseEngineSink@@IAE_NKPAXGAAK@Z@4JA ; `CDataBaseEngineSink::OnRequestPropertyPresent'::`1'::__LINE__Var
PUBLIC	??_C@_0BF@FNAOCACP@?$EAstrReceiverNickName@	; `string'
PUBLIC	??_C@_0BC@MBPNHCPP@?$EAdwReceiverGameID@	; `string'
PUBLIC	??_C@_0CB@GDJHILDF@GSP_GP_UserSendPresentByNickNam@ ; `string'
PUBLIC	??_C@_0BL@FEGBPCHF@GSP_GP_UserSendPresentByID@	; `string'
PUBLIC	??_C@_0L@LFENFKP@RecvUserID@			; `string'
PUBLIC	??_C@_0CO@GBFGHFMF@CDataBaseEngineSink?3?3OnRequestP@ ; `string'
PUBLIC	?__LINE__Var@?0??OnRequestGetSendPresent@CDataBaseEngineSink@@IAE_NKPAXGAAK@Z@4JA ; `CDataBaseEngineSink::OnRequestGetSendPresent'::`1'::__LINE__Var
PUBLIC	??_C@_0M@HCJEDCFO@?$EAszPassword@		; `string'
PUBLIC	??_C@_0BG@OJMAFDGN@GSP_GP_GetSendPresent@	; `string'
PUBLIC	??_C@_0CN@JNKPIKNE@CDataBaseEngineSink?3?3OnRequestG@ ; `string'
PUBLIC	?__LINE__Var@?0??OnRequestLoadGameBuff@CDataBaseEngineSink@@IAE_NKPAXGAAK@Z@4JA ; `CDataBaseEngineSink::OnRequestLoadGameBuff'::`1'::__LINE__Var
PUBLIC	??_C@_0BI@NBGDCCNF@GSP_GP_LoadUserGameBuff@	; `string'
PUBLIC	??_C@_0CB@MPNELBLF@UseResultsValidTimeScoreMultipl@ ; `string'
PUBLIC	??_C@_0CL@HMGPGIKL@CDataBaseEngineSink?3?3OnRequestL@ ; `string'
PUBLIC	?__LINE__Var@?0??OnRequestLoadGameTrumpet@CDataBaseEngineSink@@IAE_NKPAXGAAK@Z@4JA ; `CDataBaseEngineSink::OnRequestLoadGameTrumpet'::`1'::__LINE__Var
PUBLIC	??_C@_0BL@BLNKNDGL@GSP_GP_LoadUserGameTrumpet@	; `string'
PUBLIC	??_C@_0N@ONHPIBJK@TrumpetCount@			; `string'
PUBLIC	??_C@_0M@DKNNIFDG@TyphonCount@			; `string'
PUBLIC	??_C@_0CO@EGJFHNDI@CDataBaseEngineSink?3?3OnRequestL@ ; `string'
PUBLIC	?__LINE__Var@?0??OnRequestSendTrumpet@CDataBaseEngineSink@@IAE_NKPAXGAAK@Z@4JA ; `CDataBaseEngineSink::OnRequestSendTrumpet'::`1'::__LINE__Var
PUBLIC	??_C@_0BL@DDFCIKG@GSP_GP_LoadMemberParameter@	; `string'
PUBLIC	??_C@_08BPIBDNIC@TaskRate@			; `string'
PUBLIC	??_C@_08KNMAEPIC@ShopRate@			; `string'
PUBLIC	??_C@_0L@HCDIDBBG@InsureRate@			; `string'
PUBLIC	??_C@_0L@FNLEFFGF@DayPresent@			; `string'
PUBLIC	??_C@_09MEAFLDAC@DayGiftID@			; `string'
PUBLIC	??_C@_0L@CCDAGKKN@MemberName@			; `string'
PUBLIC	??_C@_0DC@HJENCEP@CDataBaseEngineSink?3?3OnRequestM@ ; `string'
PUBLIC	?__LINE__Var@?0??OnRequestMemberQueryInfo@CDataBaseEngineSink@@IAE_NKPAXGAAK@Z@4JA ; `CDataBaseEngineSink::OnRequestMemberQueryInfo'::`1'::__LINE__Var
PUBLIC	??_C@_0BH@LLGIDDOH@GSP_GP_MemberQueryInfo@	; `string'
PUBLIC	??_C@_07FHKFELEN@Present@			; `string'
PUBLIC	??_C@_04JCCJDPFC@Gift@				; `string'
PUBLIC	??_C@_0BH@GJOLKKFC@GSP_GP_MemberGiftQuery@	; `string'
PUBLIC	??_C@_02OLOABKKD@ID@				; `string'
PUBLIC	??_C@_05IJGIMMHE@Count@				; `string'
PUBLIC	??_C@_0CO@JKBFHBG@CDataBaseEngineSink?3?3OnRequestM@ ; `string'
PUBLIC	?__LINE__Var@?0??OnRequestMemberDayPresent@CDataBaseEngineSink@@IAE_NKPAXGAAK@Z@4JA ; `CDataBaseEngineSink::OnRequestMemberDayPresent'::`1'::__LINE__Var
PUBLIC	??_C@_0BI@IMKLDJBC@GSP_GP_MemberDayPresent@	; `string'
PUBLIC	??_C@_0CP@EGKDDCPM@CDataBaseEngineSink?3?3OnRequestM@ ; `string'
PUBLIC	?__LINE__Var@?0??OnRequestMemberDayGift@CDataBaseEngineSink@@IAE_NKPAXGAAK@Z@4JA ; `CDataBaseEngineSink::OnRequestMemberDayGift'::`1'::__LINE__Var
PUBLIC	??_C@_0BF@LPGDHGAC@GSP_GP_MemberDayGift@	; `string'
PUBLIC	??_C@_0CM@GBGIFFIB@CDataBaseEngineSink?3?3OnRequestM@ ; `string'
PUBLIC	??_C@_0BJ@DMKNJEFD@GSP_GP_LoadCheckInReward@	; `string'
PUBLIC	??_C@_05IDMPJLID@DayID@				; `string'
PUBLIC	??_C@_0L@CKLPJIFO@RewardGold@			; `string'
PUBLIC	??_C@_0CK@FNAFJCAP@CDataBaseEngineSink?3?3OnRequestL@ ; `string'
PUBLIC	?__LINE__Var@?0??OnRequestCheckInQueryInfo@CDataBaseEngineSink@@IAE_NKPAXGAAK@Z@4JA ; `CDataBaseEngineSink::OnRequestCheckInQueryInfo'::`1'::__LINE__Var
PUBLIC	??_C@_0BI@LFNCLCOF@GSP_GR_CheckInQueryInfo@	; `string'
PUBLIC	??_C@_0L@GCLIEHGN@SeriesDate@			; `string'
PUBLIC	??_C@_0P@BNJFDPAO@TodayCheckIned@		; `string'
PUBLIC	??_C@_0CP@LGOLPPK@CDataBaseEngineSink?3?3OnRequestC@ ; `string'
PUBLIC	?__LINE__Var@?0??OnRequestCheckInDone@CDataBaseEngineSink@@IAE_NKPAXGAAK@Z@4JA ; `CDataBaseEngineSink::OnRequestCheckInDone'::`1'::__LINE__Var
PUBLIC	??_C@_0BD@OMHLIIHM@GSP_GR_CheckInDone@		; `string'
PUBLIC	??_C@_0CK@GAMLIDKL@CDataBaseEngineSink?3?3OnRequestC@ ; `string'
PUBLIC	??_C@_0BG@GGEFBDLG@GSP_GP_LoadBaseEnsure@	; `string'
PUBLIC	??_C@_09DDOCKIAO@TakeTimes@			; `string'
PUBLIC	??_C@_0M@HIMENDIH@ScoreAmount@			; `string'
PUBLIC	??_C@_0P@BGLILAFC@ScoreCondition@		; `string'
PUBLIC	??_C@_0CN@BCCKMKAP@CDataBaseEngineSink?3?3OnRequestL@ ; `string'
PUBLIC	?__LINE__Var@?0??OnRequestTakeBaseEnsure@CDataBaseEngineSink@@IAE_NKPAXGAAK@Z@4JA ; `CDataBaseEngineSink::OnRequestTakeBaseEnsure'::`1'::__LINE__Var
PUBLIC	??_C@_0BG@IHMPDPLH@GSP_GP_TakeBaseEnsure@	; `string'
PUBLIC	??_C@_0CN@PDKAOGAO@CDataBaseEngineSink?3?3OnRequestT@ ; `string'
PUBLIC	?__LINE__Var@?0??OnRequestWriteUserGameData@CDataBaseEngineSink@@IAE_NKPAXGAAK@Z@4JA ; `CDataBaseEngineSink::OnRequestWriteUserGameData'::`1'::__LINE__Var
PUBLIC	??_C@_0BB@JLIKJFGB@?$EAstrUserGameData@		; `string'
PUBLIC	??_C@_0BJ@GCODDHKA@GSP_GR_WriteUserGameData@	; `string'
PUBLIC	??_C@_0DA@OPFFIGFI@CDataBaseEngineSink?3?3OnRequestW@ ; `string'
PUBLIC	?__LINE__Var@?0??OnRequestMatchSignup@CDataBaseEngineSink@@IAE_NKPAXGAAK@Z@4JA ; `CDataBaseEngineSink::OnRequestMatchSignup'::`1'::__LINE__Var
PUBLIC	??_C@_0L@BLIPNNEF@?$EAInitScore@		; `string'
PUBLIC	??_C@_0O@IGAIKEL@?$EAcbSignupMode@		; `string'
PUBLIC	??_C@_0BA@PJNEIBNN@?$EAwMaxSignupUser@		; `string'
PUBLIC	??_C@_0BE@DFAICMFL@GSP_GR_UserMatchFee@		; `string'
PUBLIC	??_C@_09MJOGCHJF@UserIngot@			; `string'
PUBLIC	??_C@_0L@IELFPBJG@SignupMode@			; `string'
PUBLIC	??_C@_0CK@HDOEOIAJ@CDataBaseEngineSink?3?3OnRequestM@ ; `string'
PUBLIC	?__LINE__Var@?0??OnRequestMatchUnSignup@CDataBaseEngineSink@@IAE_NKPAXGAAK@Z@4JA ; `CDataBaseEngineSink::OnRequestMatchUnSignup'::`1'::__LINE__Var
PUBLIC	??_C@_0BF@DMBMNJML@GSP_GR_UserMatchQuit@	; `string'
PUBLIC	??_C@_0CM@JAAGFEIO@CDataBaseEngineSink?3?3OnRequestM@ ; `string'
PUBLIC	?__LINE__Var@?0??OnRequestMatchSignupStart@CDataBaseEngineSink@@IAE_NKPAXGAAK@Z@4JA ; `CDataBaseEngineSink::OnRequestMatchSignupStart'::`1'::__LINE__Var
PUBLIC	??_C@_0BI@BDGKPIAM@GSP_GR_MatchSignupStart@	; `string'
PUBLIC	??_C@_0CP@KNNGPFBD@CDataBaseEngineSink?3?3OnRequestM@ ; `string'
PUBLIC	?__LINE__Var@?0??OnRequestMatchQueryQualify@CDataBaseEngineSink@@IAE_NKPAXGAAK@Z@4JA ; `CDataBaseEngineSink::OnRequestMatchQueryQualify'::`1'::__LINE__Var
PUBLIC	??_C@_0BJ@LHFMEEJO@GSP_GR_MatchQueryQualify@	; `string'
PUBLIC	??_C@_0DA@DKOKPFGG@CDataBaseEngineSink?3?3OnRequestM@ ; `string'
PUBLIC	?__LINE__Var@?0??OnRequestMatchBuySafeCard@CDataBaseEngineSink@@IAE_NKPAXGAAK@Z@4JA ; `CDataBaseEngineSink::OnRequestMatchBuySafeCard'::`1'::__LINE__Var
PUBLIC	??_C@_0O@KDGEANGE@?$EAlSafeCardFee@		; `string'
PUBLIC	??_C@_0BI@LBDNJNBP@GSP_GR_MatchBuySafeCard@	; `string'
PUBLIC	??_C@_0CP@PIBJAAA@CDataBaseEngineSink?3?3OnRequestM@ ; `string'
PUBLIC	??_C@_0BN@OJBGGGID@?J?$PN?$LO?$NN?$LP?b?R?l?$LD?$KD?$KD?$KM?$LB?$KD?O?U?$LP?$KI?$LJ?$LK?B?r?J?$KH?$LA?$NM?$KD?$KB@ ; `string'
PUBLIC	?__LINE__Var@?0??OnRequestMatchStart@CDataBaseEngineSink@@IAE_NKPAXGAAK@Z@4JA ; `CDataBaseEngineSink::OnRequestMatchStart'::`1'::__LINE__Var
PUBLIC	??_C@_0BC@LKLALIFP@GSP_GR_MatchStart@		; `string'
PUBLIC	??_C@_0CJ@NJMHJMAB@CDataBaseEngineSink?3?3OnRequestM@ ; `string'
PUBLIC	?__LINE__Var@?0??OnRequestMatchOver@CDataBaseEngineSink@@IAE_NKPAXGAAK@Z@4JA ; `CDataBaseEngineSink::OnRequestMatchOver'::`1'::__LINE__Var
PUBLIC	??_C@_0N@LLNFOKNK@?$EAcbPlayCount@		; `string'
PUBLIC	??_C@_0O@DEBJJKGF@?$EAbMatchFinish@		; `string'
PUBLIC	??_C@_0BA@ONKGNJI@?$EAMatchStartTime@		; `string'
PUBLIC	??_C@_0O@EPJCLNKL@?$EAMatchEndTime@		; `string'
PUBLIC	??_C@_0BB@DPPGPFAF@GSP_GR_MatchOver@		; `string'
PUBLIC	??_C@_06DEAKIBIA@RankID@			; `string'
PUBLIC	??_C@_0M@BLJEFPLJ@RewardIngot@			; `string'
PUBLIC	??_C@_0BB@DAEFAHAB@RewardExperience@		; `string'
PUBLIC	??_C@_0CI@EOLOHCBI@CDataBaseEngineSink?3?3OnRequestM@ ; `string'
PUBLIC	?__LINE__Var@?0??OnRequestMatchCancel@CDataBaseEngineSink@@IAE_NKPAXGAAK@Z@4JA ; `CDataBaseEngineSink::OnRequestMatchCancel'::`1'::__LINE__Var
PUBLIC	??_C@_0BD@HBPCLJPM@GSP_GR_MatchCancel@		; `string'
PUBLIC	??_C@_0CK@PNECLCCL@CDataBaseEngineSink?3?3OnRequestM@ ; `string'
PUBLIC	?__LINE__Var@?0??OnRequestMatchReward@CDataBaseEngineSink@@IAE_NKPAXGAAK@Z@4JA ; `CDataBaseEngineSink::OnRequestMatchReward'::`1'::__LINE__Var
PUBLIC	??_C@_0N@NOJJNPBC@?$EAlRewardGold@		; `string'
PUBLIC	??_C@_0O@GEAKHEEF@?$EAlRewardIngot@		; `string'
PUBLIC	??_C@_0BE@GJCFMENF@?$EAdwRewardExperience@	; `string'
PUBLIC	??_C@_0BD@DNIDGOBF@GSP_GR_MatchReward@		; `string'
PUBLIC	?__LINE__Var@?0??OnRequestMatchEliminate@CDataBaseEngineSink@@IAE_NKPAXGAAK@Z@4JA ; `CDataBaseEngineSink::OnRequestMatchEliminate'::`1'::__LINE__Var
PUBLIC	??_C@_0BG@LJCLLFED@GSP_GR_MatchEliminate@	; `string'
PUBLIC	??_C@_0CN@BJHIPMDN@CDataBaseEngineSink?3?3OnRequestM@ ; `string'
PUBLIC	?__LINE__Var@?0??OnRequestMatchRecordGrades@CDataBaseEngineSink@@IAE_NKPAXGAAK@Z@4JA ; `CDataBaseEngineSink::OnRequestMatchRecordGrades'::`1'::__LINE__Var
PUBLIC	??_C@_0M@LHDIAACG@?$EAlInitScore@		; `string'
PUBLIC	??_C@_0BJ@DLPOEIIC@GSP_GR_MatchRecordGrades@	; `string'
PUBLIC	??_C@_0DA@LGEIPJHK@CDataBaseEngineSink?3?3OnRequestM@ ; `string'
PUBLIC	?__LINE__Var@?0??OnRequestMatchUserRevive@CDataBaseEngineSink@@IAE_NKPAXGAAK@Z@4JA ; `CDataBaseEngineSink::OnRequestMatchUserRevive'::`1'::__LINE__Var
PUBLIC	??_C@_0L@DOOJENON@?$EACullScore@		; `string'
PUBLIC	??_C@_0M@FFMDAOAJ@?$EAlReviveFee@		; `string'
PUBLIC	??_C@_0P@LFFONGOD@?$EAcbReviveTimes@		; `string'
PUBLIC	??_C@_0BH@GCGKLCNC@GSP_GR_MatchUserRevive@	; `string'
PUBLIC	??_C@_0CO@NFHHLNKA@CDataBaseEngineSink?3?3OnRequestM@ ; `string'
PUBLIC	??_C@_0BH@HLMAJMNC@?J?$PN?$LO?$NN?$LP?b?R?l?$LD?$KD?$KD?$KM?$LI?$LE?$LL?n?J?$KH?$LA?$NM?$KD?$KB@ ; `string'
PUBLIC	?__LINE__Var@?0??OnRequestMatchQueryReviveInfo@CDataBaseEngineSink@@IAE_NKPAXGAAK@Z@4JA ; `CDataBaseEngineSink::OnRequestMatchQueryReviveInfo'::`1'::__LINE__Var
PUBLIC	??_C@_0BM@PMKNKCGD@GSP_GR_MatchQueryReviveInfo@	; `string'
PUBLIC	??_C@_0P@NHLPBHLE@SafeCardRevive@		; `string'
PUBLIC	??_C@_0M@ENLAKNPB@ReviveTimes@			; `string'
PUBLIC	??_C@_0DD@JIKGAJMG@CDataBaseEngineSink?3?3OnRequestM@ ; `string'
PUBLIC	??_C@_0BL@JMLNBDFD@GSP_GR_LoadGrowLevelConfig@	; `string'
PUBLIC	??_C@_07CLGGPGGC@LevelID@			; `string'
PUBLIC	??_C@_0L@DCGNFONO@Experience@			; `string'
PUBLIC	??_C@_0DC@PMLOHGEK@CDataBaseEngineSink?3?3OnRequestL@ ; `string'
PUBLIC	?__LINE__Var@?0??OnRequestQueryGrowLevelParameter@CDataBaseEngineSink@@IAE_NKPAXGAAK@Z@4JA ; `CDataBaseEngineSink::OnRequestQueryGrowLevelParameter'::`1'::__LINE__Var
PUBLIC	??_C@_0BE@FBKCBHAM@?$EAstrUpgradeDescribe@	; `string'
PUBLIC	??_C@_0BG@MGKFFOPK@GSP_GP_QueryGrowLevel@	; `string'
PUBLIC	??_C@_0M@NBPAMKCD@CurrLevelID@			; `string'
PUBLIC	??_C@_0BC@CPJKHIND@UpgradeExperience@		; `string'
PUBLIC	??_C@_0M@GNOFDGAD@RewardMedal@			; `string'
PUBLIC	??_C@_0BE@JMMGGPNE@?$EAstrUpGradeDescribe@	; `string'
PUBLIC	??_C@_0DG@OCMGMCGE@CDataBaseEngineSink?3?3OnRequestQ@ ; `string'
PUBLIC	?__LINE__Var@?0??OnRequestManageUserRight@CDataBaseEngineSink@@IAE_NKPAXGAAK@Z@4JA ; `CDataBaseEngineSink::OnRequestManageUserRight'::`1'::__LINE__Var
PUBLIC	??_C@_0M@NMGCHBNI@?$EAdwAddRight@		; `string'
PUBLIC	??_C@_0P@CLJCGMJC@?$EAdwRemoveRight@		; `string'
PUBLIC	??_C@_0BH@JGGGJBNO@GSP_GR_ManageUserRight@	; `string'
PUBLIC	??_C@_0CO@CBHLJOKM@CDataBaseEngineSink?3?3OnRequestM@ ; `string'
PUBLIC	?__LINE__Var@?0??OnRequestManageMatchRight@CDataBaseEngineSink@@IAE_NKPAXGAAK@Z@4JA ; `CDataBaseEngineSink::OnRequestManageMatchRight'::`1'::__LINE__Var
PUBLIC	??_C@_0BI@IGKLMPDN@GSP_GR_ManageMatchRight@	; `string'
PUBLIC	??_C@_0CP@DIBHMCCC@CDataBaseEngineSink?3?3OnRequestM@ ; `string'
PUBLIC	??_C@_0BJ@GFLIDCFB@GSP_GR_LoadSystemMessage@	; `string'
PUBLIC	??_C@_0M@BHEKDOEH@ServerRange@			; `string'
PUBLIC	??_C@_0M@ECIDEJHH@MessageType@			; `string'
PUBLIC	??_C@_08MBIPKANE@TimeRate@			; `string'
PUBLIC	??_C@_0O@EOKEIOEE@MessageString@		; `string'
PUBLIC	??_C@_09MHCEAAPI@StartTime@			; `string'
PUBLIC	??_C@_0N@DIGHLIGE@ConcludeTime@			; `string'
PUBLIC	??_C@_0BK@GOGBDBKC@GSP_GR_LoadSensitiveWords@	; `string'
PUBLIC	??_C@_0P@PCOKOAF@SensitiveWords@		; `string'
PUBLIC	??_C@_0DB@NNIKPNDN@CDataBaseEngineSink?3?3OnRequestL@ ; `string'
PUBLIC	?__LINE__Var@?0??OnRequestUnlockAndroidUser@CDataBaseEngineSink@@IAE_NKPAXGAAK@Z@4JA ; `CDataBaseEngineSink::OnRequestUnlockAndroidUser'::`1'::__LINE__Var
PUBLIC	??_C@_09LJJBNBM@?$EAwBatchID@			; `string'
PUBLIC	??_C@_0BJ@GEMLPEBL@GSP_GR_UnlockAndroidUser@	; `string'
PUBLIC	??_C@_0DA@OJHNEFOD@CDataBaseEngineSink?3?3OnRequestU@ ; `string'
PUBLIC	?__LINE__Var@?0??OnLogonDisposeResult@CDataBaseEngineSink@@AAEXKKPBD_NEGG@Z@4JA ; `CDataBaseEngineSink::OnLogonDisposeResult'::`1'::__LINE__Var
PUBLIC	??_C@_06LPNEIKNP@FaceID@			; `string'
PUBLIC	??_C@_07IKIDGEIC@GroupID@			; `string'
PUBLIC	??_C@_08GOBKDNAK@CustomID@			; `string'
PUBLIC	??_C@_08CELDJAGK@NickName@			; `string'
PUBLIC	??_C@_09DOCDJBIG@GroupName@			; `string'
PUBLIC	??_C@_06HKFFEOFI@Gender@			; `string'
PUBLIC	??_C@_0M@HCDMHMBE@MasterOrder@			; `string'
PUBLIC	??_C@_0L@CPAJNIME@UnderWrite@			; `string'
PUBLIC	??_C@_02MOGAAOHP@QQ@				; `string'
PUBLIC	??_C@_05LMBPBNBJ@EMail@				; `string'
PUBLIC	??_C@_09MAIOJANC@SeatPhone@			; `string'
PUBLIC	??_C@_0M@OJIHCJC@MobilePhone@			; `string'
PUBLIC	??_C@_0O@GKEPGAEM@DwellingPlace@		; `string'
PUBLIC	??_C@_0L@FEKLBNBC@PostalCode@			; `string'
PUBLIC	??_C@_05LLMLLFP@Grade@				; `string'
PUBLIC	??_C@_06FMMMEEGK@Dimand@			; `string'
PUBLIC	??_C@_08NMLNNJOO@WinCount@			; `string'
PUBLIC	??_C@_09OGIEMOLB@LostCount@			; `string'
PUBLIC	??_C@_09KHKKAHKI@DrawCount@			; `string'
PUBLIC	??_C@_09LDFGMNGL@FleeCount@			; `string'
PUBLIC	??_C@_0O@EJBNDIFA@IntegralCount@		; `string'
PUBLIC	??_C@_07EAMDMMMO@AgentID@			; `string'
PUBLIC	??_C@_0M@JGHDFAPJ@MasterRight@			; `string'
PUBLIC	??_C@_0L@JKPFHAOK@InoutIndex@			; `string'
PUBLIC	??_C@_0M@PJKHBHCK@ResidueTime@			; `string'
PUBLIC	??_C@_0BJ@IFJCFNBF@GSP_GR_QueryUserGameData@	; `string'
PUBLIC	??_C@_0N@HBNIIIGG@UserGameData@			; `string'
PUBLIC	??_C@_0CK@GJNGIALF@CDataBaseEngineSink?3?3OnLogonDis@ ; `string'
PUBLIC	??_C@_0N@PAGJFPFL@?$CFs?5?5?5?$CFs?5?$LD?v?$LE?m@ ; `string'
PUBLIC	??_C@_0M@DNAOABEK@SourceScore@			; `string'
PUBLIC	??_C@_0N@NACABOPM@SourceInsure@			; `string'
PUBLIC	??_C@_0O@NODKFAON@InsureRevenue@		; `string'
PUBLIC	??_C@_0P@MOIGFANG@VariationScore@		; `string'
PUBLIC	??_C@_0BA@CJGKEJMC@VariationInsure@		; `string'
PUBLIC	?__LINE__Var@?0??OnRequestWriteJoinInfo@CDataBaseEngineSink@@IAE_NKPAXGAAK@Z@4JA ; `CDataBaseEngineSink::OnRequestWriteJoinInfo'::`1'::__LINE__Var
PUBLIC	??_C@_0L@MALOIOF@?$EAdwTableID@			; `string'
PUBLIC	??_C@_0L@GMFHAHPM@?$EAdwChairID@		; `string'
PUBLIC	??_C@_0M@FDEHBDCL@?$EAszRoomGUID@		; `string'
PUBLIC	??_C@_0CB@GCADOFKG@GSP_GR_WritePersonalRoomJoinInf@ ; `string'
PUBLIC	??_C@_0CE@PEDHBAHP@OnRequestWriteJoinInfo?5?$LK?$KP?J?$PN?V?P?S?P@ ; `string'
PUBLIC	?__LINE__Var@?0??OnRequestWriteVideoPlayerInfo@CDataBaseEngineSink@@IAE_NKPAXGAAK@Z@4JA ; `CDataBaseEngineSink::OnRequestWriteVideoPlayerInfo'::`1'::__LINE__Var
PUBLIC	??_C@_0P@CHNNICGD@?$EAszVideoNumber@		; `string'
PUBLIC	??_C@_0CP@CHBEJABO@VideoPlayerInfo?5?$CK?$CK?$CK?$CK?$CK?5?V?$LE?P?P?P?$LE?5?$LC?N@ ; `string'
PUBLIC	??_C@_0BN@NMLOBHHE@GSP_GR_RecordVideoPlayerInfo@ ; `string'
PUBLIC	??_C@_0CL@KLKPPIFO@OnRequestWriteVideoPlayerInfo?5?$LK@ ; `string'
PUBLIC	?__LINE__Var@?0??OnRequestWriteVideoDataInfo@CDataBaseEngineSink@@IAE_NKPAXGAAK@Z@4JA ; `CDataBaseEngineSink::OnRequestWriteVideoDataInfo'::`1'::__LINE__Var
PUBLIC	??_C@_0N@DDOPDEFM@?$EAszVideoData@		; `string'
PUBLIC	??_C@_0CJ@PDKCICIH@VideoData?5?$CK?$CK?$CK?$CK?$CK?5?V?$LE?P?P?P?$LE?5?$LC?N?S?k?S?N?O?$LH@ ; `string'
PUBLIC	??_C@_0BL@OHGHDNFN@GSP_GR_RecordVideoDataInfo@	; `string'
PUBLIC	??_C@_0CJ@OFLINJEP@OnRequestWriteVideoDataInfo?5?$LK?$KP?J@ ; `string'
PUBLIC	??_C@_0DG@CDIFDKED@g?3?2?M?x?$LK?$PM?2happygamewh?2?$LH?$PO?N?q?$LG?K?2?O?$LF?M?$LD@ ; `string'
PUBLIC	??_C@_0BD@LMOFNGMO@?$KB?$LA?$CFs?$KB?$LB?D?$KD?$LP?i?$LM?S?T?X?J?$KH?$LA?$NM@ ; `string'
PUBLIC	??_C@_0BM@PEGNCJOH@?U?R?$LC?$LL?$LF?$LN?W?i?$LM?$PO?$LE?$LE?$LN?$KI?$LK?$KP?J?$PN?$KB?$LA?$CFs?$KB?$LB?3?$CFd@ ; `string'
PUBLIC	??_C@_0BL@PDAODLKM@?$LF?w?S?C?$LK?$KP?J?$PN?$KB?$LA?$CFs?$KB?$LB?I?z?$LD?I?$LG?T?O?s?J?$KH?$LA?$NM@ ; `string'
PUBLIC	??_R0PAD@8					; char * `RTTI Type Descriptor'
PUBLIC	??_C@_0BJ@JGPFHIJF@?S?I?S?Z?$KB?$LA?$CFs?$KB?$LB?$KD?$KM?W?i?$LM?$PO?$LE?$LE?$LN?$KI?J?$KH?$LA?$NM@ ; `string'
PUBLIC	??_C@_0DB@JBNKENAJ@?W?i?$LM?$PO?$LE?$LE?$LN?$KI?$LK?$KP?J?$PN?$KB?$LA?$CFs?$KB?$LB?$LC?z?I?z?N?$LE?V?$KK?R?l?$LD?$KD?$LE@ ; `string'
PUBLIC	??_R4IUnknownEx@@6B@				; IUnknownEx::`RTTI Complete Object Locator'
PUBLIC	??_R0?AUIUnknownEx@@@8				; IUnknownEx `RTTI Type Descriptor'
PUBLIC	??_R3IUnknownEx@@8				; IUnknownEx::`RTTI Class Hierarchy Descriptor'
PUBLIC	??_R2IUnknownEx@@8				; IUnknownEx::`RTTI Base Class Array'
PUBLIC	??_R1A@?0A@EA@IUnknownEx@@8			; IUnknownEx::`RTTI Base Class Descriptor at (0,-1,0,64)'
PUBLIC	??_R4IDataBaseEngineSink@@6B@			; IDataBaseEngineSink::`RTTI Complete Object Locator'
PUBLIC	??_R0?AUIDataBaseEngineSink@@@8			; IDataBaseEngineSink `RTTI Type Descriptor'
PUBLIC	??_R3IDataBaseEngineSink@@8			; IDataBaseEngineSink::`RTTI Class Hierarchy Descriptor'
PUBLIC	??_R2IDataBaseEngineSink@@8			; IDataBaseEngineSink::`RTTI Base Class Array'
PUBLIC	??_R1A@?0A@EA@IDataBaseEngineSink@@8		; IDataBaseEngineSink::`RTTI Base Class Descriptor at (0,-1,0,64)'
PUBLIC	??_R4IGameDataBaseEngine@@6B@			; IGameDataBaseEngine::`RTTI Complete Object Locator'
PUBLIC	??_R0?AUIGameDataBaseEngine@@@8			; IGameDataBaseEngine `RTTI Type Descriptor'
PUBLIC	??_R3IGameDataBaseEngine@@8			; IGameDataBaseEngine::`RTTI Class Hierarchy Descriptor'
PUBLIC	??_R2IGameDataBaseEngine@@8			; IGameDataBaseEngine::`RTTI Base Class Array'
PUBLIC	??_R1A@?0A@EA@IGameDataBaseEngine@@8		; IGameDataBaseEngine::`RTTI Base Class Descriptor at (0,-1,0,64)'
PUBLIC	??_R4CDataBaseEngineSink@@6BIDataBaseEngineSink@@@ ; CDataBaseEngineSink::`RTTI Complete Object Locator'
PUBLIC	??_R0?AVCDataBaseEngineSink@@@8			; CDataBaseEngineSink `RTTI Type Descriptor'
PUBLIC	??_R3CDataBaseEngineSink@@8			; CDataBaseEngineSink::`RTTI Class Hierarchy Descriptor'
PUBLIC	??_R2CDataBaseEngineSink@@8			; CDataBaseEngineSink::`RTTI Base Class Array'
PUBLIC	??_R1A@?0A@EA@CDataBaseEngineSink@@8		; CDataBaseEngineSink::`RTTI Base Class Descriptor at (0,-1,0,64)'
PUBLIC	??_R1A@?0A@EC@IUnknownEx@@8			; IUnknownEx::`RTTI Base Class Descriptor at (0,-1,0,66)'
PUBLIC	??_R13?0A@EA@IGameDataBaseEngine@@8		; IGameDataBaseEngine::`RTTI Base Class Descriptor at (4,-1,0,64)'
PUBLIC	??_R13?0A@EC@IUnknownEx@@8			; IUnknownEx::`RTTI Base Class Descriptor at (4,-1,0,66)'
PUBLIC	??_R4CDataBaseEngineSink@@6BIGameDataBaseEngine@@@ ; CDataBaseEngineSink::`RTTI Complete Object Locator'
EXTRN	__purecall:PROC
EXTRN	??3@YAXPAXI@Z:PROC				; operator delete
EXTRN	___report_rangecheckfailure:PROC
EXTRN	_memcmp:PROC
EXTRN	_memcpy:PROC
EXTRN	_memset:PROC
EXTRN	__imp__wcscpy_s:PROC
EXTRN	__imp__wcslen:PROC
EXTRN	__imp__OutputDebugStringA@4:PROC
EXTRN	__imp__GetLastError@0:PROC
EXTRN	__imp__SetLastError@4:PROC
EXTRN	__imp__GetProcAddress@8:PROC
EXTRN	__imp__lstrcpynA@12:PROC
EXTRN	__imp__lstrlenA@4:PROC
EXTRN	__imp__wsprintfA:PROC
EXTRN	__imp__PeekMessageA@20:PROC
EXTRN	__imp__PostQuitMessage@4:PROC
EXTRN	__imp__MultiByteToWideChar@24:PROC
EXTRN	__imp__WideCharToMultiByte@32:PROC
EXTRN	__imp____stdio_common_vswprintf_s:PROC
EXTRN	__imp____stdio_common_vsprintf:PROC
EXTRN	__imp____stdio_common_vsnprintf_s:PROC
EXTRN	__imp__calloc:PROC
EXTRN	__imp__free:PROC
EXTRN	__imp__malloc:PROC
EXTRN	__imp___recalloc:PROC
EXTRN	__imp__rand:PROC
EXTRN	__imp___itoa:PROC
EXTRN	__imp___mktime64:PROC
EXTRN	__imp___time64:PROC
EXTRN	__imp___CrtDbgReport:PROC
EXTRN	__imp___CrtDbgReportW:PROC
EXTRN	__imp__SafeArrayCreate@12:PROC
EXTRN	__imp__SafeArrayPutElement@12:PROC
EXTRN	__imp__VariantInit@4:PROC
EXTRN	__imp__VariantClear@4:PROC
EXTRN	__imp__VariantCopy@8:PROC
EXTRN	?AfxThrowMemoryException@@YGXXZ:PROC		; AfxThrowMemoryException
EXTRN	?AfxThrowOleException@@YGXJ@Z:PROC		; AfxThrowOleException
EXTRN	__imp_??B?$CSimpleStringT@D$00@ATL@@QBEPBDXZ:PROC
EXTRN	__imp_?GetLength@?$CSimpleStringT@D$00@ATL@@QBEHXZ:PROC
EXTRN	__imp_??0?$CStringT@DV?$StrTraitMFC_DLL@DV?$ChTraitsCRT@D@ATL@@@@@ATL@@QAE@XZ:PROC
EXTRN	__imp_??1?$CStringT@DV?$StrTraitMFC_DLL@DV?$ChTraitsCRT@D@ATL@@@@@ATL@@QAE@XZ:PROC
EXTRN	__imp_??4?$CStringT@DV?$StrTraitMFC_DLL@DV?$ChTraitsCRT@D@ATL@@@@@ATL@@QAEAAV01@ABV01@@Z:PROC
EXTRN	__imp_?Find@?$CStringT@DV?$StrTraitMFC_DLL@DV?$ChTraitsCRT@D@ATL@@@@@ATL@@QBEHDH@Z:PROC
EXTRN	__imp_?Right@?$CStringT@DV?$StrTraitMFC_DLL@DV?$ChTraitsCRT@D@ATL@@@@@ATL@@QBE?AV12@H@Z:PROC
EXTRN	__imp_?Left@?$CStringT@DV?$StrTraitMFC_DLL@DV?$ChTraitsCRT@D@ATL@@@@@ATL@@QBE?AV12@H@Z:PROC
EXTRN	__imp_?Format@?$CStringT@DV?$StrTraitMFC_DLL@DV?$ChTraitsCRT@D@ATL@@@@@ATL@@QAAXPBDZZ:PROC
EXTRN	__imp__StrToIntA@4:PROC
EXTRN	?AfxLoadLibrary@@YGPAUHINSTANCE__@@PBD@Z:PROC	; AfxLoadLibrary
EXTRN	?AfxFreeLibrary@@YGHPAUHINSTANCE__@@@Z:PROC	; AfxFreeLibrary
EXTRN	?_com_issue_error@@YGXJ@Z:PROC			; _com_issue_error
EXTRN	??_E?$CTempldateHelper@UIDataBase@@@@UAEPAXI@Z:PROC ; CTempldateHelper<IDataBase>::`vector deleting destructor'
EXTRN	??_ECDataBaseHelper@@UAEPAXI@Z:PROC		; CDataBaseHelper::`vector deleting destructor'
EXTRN	__imp_??0CDataBaseAide@@QAE@PAUIUnknownEx@@@Z:PROC
EXTRN	__imp_??1CDataBaseAide@@UAE@XZ:PROC
EXTRN	__imp_?SetDataBase@CDataBaseAide@@QAE_NPAUIUnknownEx@@@Z:PROC
EXTRN	__imp_?GetValue_INT@CDataBaseAide@@QAEHPBD@Z:PROC
EXTRN	__imp_?GetValue_LONG@CDataBaseAide@@QAEJPBD@Z:PROC
EXTRN	__imp_?GetValue_BYTE@CDataBaseAide@@QAEEPBD@Z:PROC
EXTRN	__imp_?GetValue_WORD@CDataBaseAide@@QAEGPBD@Z:PROC
EXTRN	__imp_?GetValue_DWORD@CDataBaseAide@@QAEKPBD@Z:PROC
EXTRN	__imp_?GetValue_DOUBLE@CDataBaseAide@@QAENPBD@Z:PROC
EXTRN	__imp_?GetValue_LONGLONG@CDataBaseAide@@QAE_JPBD@Z:PROC
EXTRN	__imp_?GetValue_SystemTime@CDataBaseAide@@QAEXPBDAAU_SYSTEMTIME@@@Z:PROC
EXTRN	__imp_?GetValue_String@CDataBaseAide@@QAEXPBDPADI@Z:PROC
EXTRN	__imp_?ResetParameter@CDataBaseAide@@QAEXXZ:PROC
EXTRN	__imp_?GetParameter@CDataBaseAide@@QAEXPBDAAV_variant_t@@@Z:PROC
EXTRN	__imp_?AddParameter@CDataBaseAide@@QAEXPBDHW4ParameterDirectionEnum@ADOCG@@@Z:PROC
EXTRN	__imp_?AddParameter@CDataBaseAide@@QAEXPBDJW4ParameterDirectionEnum@ADOCG@@@Z:PROC
EXTRN	__imp_?AddParameter@CDataBaseAide@@QAEXPBD_JW4ParameterDirectionEnum@ADOCG@@@Z:PROC
EXTRN	__imp_?AddParameter@CDataBaseAide@@QAEXPBDEW4ParameterDirectionEnum@ADOCG@@@Z:PROC
EXTRN	__imp_?AddParameter@CDataBaseAide@@QAEXPBDGW4ParameterDirectionEnum@ADOCG@@@Z:PROC
EXTRN	__imp_?AddParameter@CDataBaseAide@@QAEXPBDKW4ParameterDirectionEnum@ADOCG@@@Z:PROC
EXTRN	__imp_?AddParameter@CDataBaseAide@@QAEXPBDNW4ParameterDirectionEnum@ADOCG@@@Z:PROC
EXTRN	__imp_?AddParameter@CDataBaseAide@@QAEXPBD0W4ParameterDirectionEnum@ADOCG@@@Z:PROC
EXTRN	__imp_?AddParameter@CDataBaseAide@@QAEXPBDAAU_SYSTEMTIME@@W4ParameterDirectionEnum@ADOCG@@@Z:PROC
EXTRN	__imp_?AddParameterOutput@CDataBaseAide@@QAEXPBDPADIW4ParameterDirectionEnum@ADOCG@@@Z:PROC
EXTRN	__imp_?GetReturnValue@CDataBaseAide@@QAEJXZ:PROC
EXTRN	__imp_?ExecuteProcess@CDataBaseAide@@QAEJPBD_N@Z:PROC
EXTRN	__imp_?TraceString@CTraceService@@SA_NPBDW4enTraceLevel@@@Z:PROC
EXTRN	??_ECDataBaseEngineSink@@UAEPAXI@Z:PROC		; CDataBaseEngineSink::`vector deleting destructor'
EXTRN	@__security_check_cookie@4:PROC
EXTRN	___CxxFrameHandler3:PROC
EXTRN	__chkstk:PROC
EXTRN	__dtol3:PROC
EXTRN	_memset:PROC
EXTRN	??_7type_info@@6B@:QWORD			; type_info::`vftable'
EXTRN	___security_cookie:DWORD
EXTRN	__fltused:DWORD
;	COMDAT ?_OptionsStorage@?1??__local_stdio_printf_options@@9@4_KA
_BSS	SEGMENT
?_OptionsStorage@?1??__local_stdio_printf_options@@9@4_KA DQ 01H DUP (?) ; `__local_stdio_printf_options'::`2'::_OptionsStorage
_BSS	ENDS
;	COMDAT ?atlTraceException@ATL@@3V?$CTraceCategoryEx@$0CAAA@$0A@@1@A
_BSS	SEGMENT
?atlTraceException@ATL@@3V?$CTraceCategoryEx@$0CAAA@$0A@@1@A DD 01H DUP (?) ; ATL::atlTraceException
_BSS	ENDS
;	COMDAT ?m_nLevel@CTrace@ATL@@1IA
_BSS	SEGMENT
?m_nLevel@CTrace@ATL@@1IA DD 01H DUP (?)		; ATL::CTrace::m_nLevel
_BSS	ENDS
;	COMDAT ?m_nLastCategory@CTrace@ATL@@1IA
_BSS	SEGMENT
?m_nLastCategory@CTrace@ATL@@1IA DD 01H DUP (?)		; ATL::CTrace::m_nLastCategory
_BSS	ENDS
;	COMDAT ?m_nMap@CTrace@ATL@@1PAUCategoryMap@12@A
_BSS	SEGMENT
?m_nMap@CTrace@ATL@@1PAUCategoryMap@12@A DB 02080H DUP (?) ; ATL::CTrace::m_nMap
_BSS	ENDS
;	COMDAT CRT$XCU
CRT$XCU	SEGMENT
?atlTraceException$initializer$@ATL@@3P6AXXZA DD FLAT:??__EatlTraceException@ATL@@YAXXZ ; ATL::atlTraceException$initializer$
CRT$XCU	ENDS
;	COMDAT ??_R4CDataBaseEngineSink@@6BIGameDataBaseEngine@@@
rdata$r	SEGMENT
??_R4CDataBaseEngineSink@@6BIGameDataBaseEngine@@@ DD 00H ; CDataBaseEngineSink::`RTTI Complete Object Locator'
	DD	04H
	DD	00H
	DD	FLAT:??_R0?AVCDataBaseEngineSink@@@8
	DD	FLAT:??_R3CDataBaseEngineSink@@8
rdata$r	ENDS
;	COMDAT ??_R13?0A@EC@IUnknownEx@@8
rdata$r	SEGMENT
??_R13?0A@EC@IUnknownEx@@8 DD FLAT:??_R0?AUIUnknownEx@@@8 ; IUnknownEx::`RTTI Base Class Descriptor at (4,-1,0,66)'
	DD	00H
	DD	04H
	DD	0ffffffffH
	DD	00H
	DD	042H
	DD	FLAT:??_R3IUnknownEx@@8
rdata$r	ENDS
;	COMDAT ??_R13?0A@EA@IGameDataBaseEngine@@8
rdata$r	SEGMENT
??_R13?0A@EA@IGameDataBaseEngine@@8 DD FLAT:??_R0?AUIGameDataBaseEngine@@@8 ; IGameDataBaseEngine::`RTTI Base Class Descriptor at (4,-1,0,64)'
	DD	01H
	DD	04H
	DD	0ffffffffH
	DD	00H
	DD	040H
	DD	FLAT:??_R3IGameDataBaseEngine@@8
rdata$r	ENDS
;	COMDAT ??_R1A@?0A@EC@IUnknownEx@@8
rdata$r	SEGMENT
??_R1A@?0A@EC@IUnknownEx@@8 DD FLAT:??_R0?AUIUnknownEx@@@8 ; IUnknownEx::`RTTI Base Class Descriptor at (0,-1,0,66)'
	DD	00H
	DD	00H
	DD	0ffffffffH
	DD	00H
	DD	042H
	DD	FLAT:??_R3IUnknownEx@@8
rdata$r	ENDS
;	COMDAT ??_R1A@?0A@EA@CDataBaseEngineSink@@8
rdata$r	SEGMENT
??_R1A@?0A@EA@CDataBaseEngineSink@@8 DD FLAT:??_R0?AVCDataBaseEngineSink@@@8 ; CDataBaseEngineSink::`RTTI Base Class Descriptor at (0,-1,0,64)'
	DD	04H
	DD	00H
	DD	0ffffffffH
	DD	00H
	DD	040H
	DD	FLAT:??_R3CDataBaseEngineSink@@8
rdata$r	ENDS
;	COMDAT ??_R2CDataBaseEngineSink@@8
rdata$r	SEGMENT
??_R2CDataBaseEngineSink@@8 DD FLAT:??_R1A@?0A@EA@CDataBaseEngineSink@@8 ; CDataBaseEngineSink::`RTTI Base Class Array'
	DD	FLAT:??_R1A@?0A@EA@IDataBaseEngineSink@@8
	DD	FLAT:??_R1A@?0A@EC@IUnknownEx@@8
	DD	FLAT:??_R13?0A@EA@IGameDataBaseEngine@@8
	DD	FLAT:??_R13?0A@EC@IUnknownEx@@8
rdata$r	ENDS
;	COMDAT ??_R3CDataBaseEngineSink@@8
rdata$r	SEGMENT
??_R3CDataBaseEngineSink@@8 DD 00H			; CDataBaseEngineSink::`RTTI Class Hierarchy Descriptor'
	DD	05H
	DD	05H
	DD	FLAT:??_R2CDataBaseEngineSink@@8
rdata$r	ENDS
;	COMDAT ??_R0?AVCDataBaseEngineSink@@@8
data$r	SEGMENT
??_R0?AVCDataBaseEngineSink@@@8 DD FLAT:??_7type_info@@6B@ ; CDataBaseEngineSink `RTTI Type Descriptor'
	DD	00H
	DB	'.?AVCDataBaseEngineSink@@', 00H
data$r	ENDS
;	COMDAT ??_R4CDataBaseEngineSink@@6BIDataBaseEngineSink@@@
rdata$r	SEGMENT
??_R4CDataBaseEngineSink@@6BIDataBaseEngineSink@@@ DD 00H ; CDataBaseEngineSink::`RTTI Complete Object Locator'
	DD	00H
	DD	00H
	DD	FLAT:??_R0?AVCDataBaseEngineSink@@@8
	DD	FLAT:??_R3CDataBaseEngineSink@@8
rdata$r	ENDS
;	COMDAT ??_R1A@?0A@EA@IGameDataBaseEngine@@8
rdata$r	SEGMENT
??_R1A@?0A@EA@IGameDataBaseEngine@@8 DD FLAT:??_R0?AUIGameDataBaseEngine@@@8 ; IGameDataBaseEngine::`RTTI Base Class Descriptor at (0,-1,0,64)'
	DD	01H
	DD	00H
	DD	0ffffffffH
	DD	00H
	DD	040H
	DD	FLAT:??_R3IGameDataBaseEngine@@8
rdata$r	ENDS
;	COMDAT ??_R2IGameDataBaseEngine@@8
rdata$r	SEGMENT
??_R2IGameDataBaseEngine@@8 DD FLAT:??_R1A@?0A@EA@IGameDataBaseEngine@@8 ; IGameDataBaseEngine::`RTTI Base Class Array'
	DD	FLAT:??_R1A@?0A@EA@IUnknownEx@@8
rdata$r	ENDS
;	COMDAT ??_R3IGameDataBaseEngine@@8
rdata$r	SEGMENT
??_R3IGameDataBaseEngine@@8 DD 00H			; IGameDataBaseEngine::`RTTI Class Hierarchy Descriptor'
	DD	00H
	DD	02H
	DD	FLAT:??_R2IGameDataBaseEngine@@8
rdata$r	ENDS
;	COMDAT ??_R0?AUIGameDataBaseEngine@@@8
data$r	SEGMENT
??_R0?AUIGameDataBaseEngine@@@8 DD FLAT:??_7type_info@@6B@ ; IGameDataBaseEngine `RTTI Type Descriptor'
	DD	00H
	DB	'.?AUIGameDataBaseEngine@@', 00H
data$r	ENDS
;	COMDAT ??_R4IGameDataBaseEngine@@6B@
rdata$r	SEGMENT
??_R4IGameDataBaseEngine@@6B@ DD 00H			; IGameDataBaseEngine::`RTTI Complete Object Locator'
	DD	00H
	DD	00H
	DD	FLAT:??_R0?AUIGameDataBaseEngine@@@8
	DD	FLAT:??_R3IGameDataBaseEngine@@8
rdata$r	ENDS
;	COMDAT ??_R1A@?0A@EA@IDataBaseEngineSink@@8
rdata$r	SEGMENT
??_R1A@?0A@EA@IDataBaseEngineSink@@8 DD FLAT:??_R0?AUIDataBaseEngineSink@@@8 ; IDataBaseEngineSink::`RTTI Base Class Descriptor at (0,-1,0,64)'
	DD	01H
	DD	00H
	DD	0ffffffffH
	DD	00H
	DD	040H
	DD	FLAT:??_R3IDataBaseEngineSink@@8
rdata$r	ENDS
;	COMDAT ??_R2IDataBaseEngineSink@@8
rdata$r	SEGMENT
??_R2IDataBaseEngineSink@@8 DD FLAT:??_R1A@?0A@EA@IDataBaseEngineSink@@8 ; IDataBaseEngineSink::`RTTI Base Class Array'
	DD	FLAT:??_R1A@?0A@EA@IUnknownEx@@8
rdata$r	ENDS
;	COMDAT ??_R3IDataBaseEngineSink@@8
rdata$r	SEGMENT
??_R3IDataBaseEngineSink@@8 DD 00H			; IDataBaseEngineSink::`RTTI Class Hierarchy Descriptor'
	DD	00H
	DD	02H
	DD	FLAT:??_R2IDataBaseEngineSink@@8
rdata$r	ENDS
;	COMDAT ??_R0?AUIDataBaseEngineSink@@@8
data$r	SEGMENT
??_R0?AUIDataBaseEngineSink@@@8 DD FLAT:??_7type_info@@6B@ ; IDataBaseEngineSink `RTTI Type Descriptor'
	DD	00H
	DB	'.?AUIDataBaseEngineSink@@', 00H
data$r	ENDS
;	COMDAT ??_R4IDataBaseEngineSink@@6B@
rdata$r	SEGMENT
??_R4IDataBaseEngineSink@@6B@ DD 00H			; IDataBaseEngineSink::`RTTI Complete Object Locator'
	DD	00H
	DD	00H
	DD	FLAT:??_R0?AUIDataBaseEngineSink@@@8
	DD	FLAT:??_R3IDataBaseEngineSink@@8
rdata$r	ENDS
;	COMDAT ??_R1A@?0A@EA@IUnknownEx@@8
rdata$r	SEGMENT
??_R1A@?0A@EA@IUnknownEx@@8 DD FLAT:??_R0?AUIUnknownEx@@@8 ; IUnknownEx::`RTTI Base Class Descriptor at (0,-1,0,64)'
	DD	00H
	DD	00H
	DD	0ffffffffH
	DD	00H
	DD	040H
	DD	FLAT:??_R3IUnknownEx@@8
rdata$r	ENDS
;	COMDAT ??_R2IUnknownEx@@8
rdata$r	SEGMENT
??_R2IUnknownEx@@8 DD FLAT:??_R1A@?0A@EA@IUnknownEx@@8	; IUnknownEx::`RTTI Base Class Array'
rdata$r	ENDS
;	COMDAT ??_R3IUnknownEx@@8
rdata$r	SEGMENT
??_R3IUnknownEx@@8 DD 00H				; IUnknownEx::`RTTI Class Hierarchy Descriptor'
	DD	00H
	DD	01H
	DD	FLAT:??_R2IUnknownEx@@8
rdata$r	ENDS
;	COMDAT ??_R0?AUIUnknownEx@@@8
data$r	SEGMENT
??_R0?AUIUnknownEx@@@8 DD FLAT:??_7type_info@@6B@	; IUnknownEx `RTTI Type Descriptor'
	DD	00H
	DB	'.?AUIUnknownEx@@', 00H
data$r	ENDS
;	COMDAT ??_R4IUnknownEx@@6B@
rdata$r	SEGMENT
??_R4IUnknownEx@@6B@ DD 00H				; IUnknownEx::`RTTI Complete Object Locator'
	DD	00H
	DD	00H
	DD	FLAT:??_R0?AUIUnknownEx@@@8
	DD	FLAT:??_R3IUnknownEx@@8
rdata$r	ENDS
;	COMDAT ??_C@_0DB@JBNKENAJ@?W?i?$LM?$PO?$LE?$LE?$LN?$KI?$LK?$KP?J?$PN?$KB?$LA?$CFs?$KB?$LB?$LC?z?I?z?N?$LE?V?$KK?R?l?$LD?$KD?$LE@
CONST	SEGMENT
??_C@_0DB@JBNKENAJ@?W?i?$LM?$PO?$LE?$LE?$LN?$KI?$LK?$KP?J?$PN?$KB?$LA?$CFs?$KB?$LB?$LC?z?I?z?N?$LE?V?$KK?R?l?$LD?$KD?$LE@ DB 0d7H
	DB	0e9H, 0bcH, 0feH, 0b4H, 0b4H, 0bdH, 0a8H, 0baH, 0afH, 0caH, 0fdH
	DB	0a1H, 0b0H, '%s', 0a1H, 0b1H, 0b2H, 0faH, 0c9H, 0faH, 0ceH, 0b4H
	DB	0d6H, 0aaH, 0d2H, 0ecH, 0b3H, 0a3H, 0b4H, 0edH, 0ceH, 0f3H, 0a3H
	DB	0acH, 0d7H, 0e9H, 0bcH, 0feH, 0b4H, 0b4H, 0bdH, 0a8H, 0caH, 0a7H
	DB	0b0H, 0dcH, 00H				; `string'
CONST	ENDS
;	COMDAT ??_C@_0BJ@JGPFHIJF@?S?I?S?Z?$KB?$LA?$CFs?$KB?$LB?$KD?$KM?W?i?$LM?$PO?$LE?$LE?$LN?$KI?J?$KH?$LA?$NM@
CONST	SEGMENT
??_C@_0BJ@JGPFHIJF@?S?I?S?Z?$KB?$LA?$CFs?$KB?$LB?$KD?$KM?W?i?$LM?$PO?$LE?$LE?$LN?$KI?J?$KH?$LA?$NM@ DB 0d3H
	DB	0c9H, 0d3H, 0daH, 0a1H, 0b0H, '%s', 0a1H, 0b1H, 0a3H, 0acH, 0d7H
	DB	0e9H, 0bcH, 0feH, 0b4H, 0b4H, 0bdH, 0a8H, 0caH, 0a7H, 0b0H, 0dcH
	DB	00H						; `string'
CONST	ENDS
;	COMDAT ??_R0PAD@8
data$r	SEGMENT
??_R0PAD@8 DD	FLAT:??_7type_info@@6B@			; char * `RTTI Type Descriptor'
	DD	00H
	DB	'.PAD', 00H
data$r	ENDS
;	COMDAT ??_C@_0BL@PDAODLKM@?$LF?w?S?C?$LK?$KP?J?$PN?$KB?$LA?$CFs?$KB?$LB?I?z?$LD?I?$LG?T?O?s?J?$KH?$LA?$NM@
CONST	SEGMENT
??_C@_0BL@PDAODLKM@?$LF?w?S?C?$LK?$KP?J?$PN?$KB?$LA?$CFs?$KB?$LB?I?z?$LD?I?$LG?T?O?s?J?$KH?$LA?$NM@ DB 0b5H
	DB	0f7H, 0d3H, 0c3H, 0baH, 0afH, 0caH, 0fdH, 0a1H, 0b0H, '%s', 0a1H
	DB	0b1H, 0c9H, 0faH, 0b3H, 0c9H, 0b6H, 0d4H, 0cfH, 0f3H, 0caH, 0a7H
	DB	0b0H, 0dcH, 00H				; `string'
CONST	ENDS
;	COMDAT ??_C@_0BM@PEGNCJOH@?U?R?$LC?$LL?$LF?$LN?W?i?$LM?$PO?$LE?$LE?$LN?$KI?$LK?$KP?J?$PN?$KB?$LA?$CFs?$KB?$LB?3?$CFd@
CONST	SEGMENT
??_C@_0BM@PEGNCJOH@?U?R?$LC?$LL?$LF?$LN?W?i?$LM?$PO?$LE?$LE?$LN?$KI?$LK?$KP?J?$PN?$KB?$LA?$CFs?$KB?$LB?3?$CFd@ DB 0d5H
	DB	0d2H, 0b2H, 0bbH, 0b5H, 0bdH, 0d7H, 0e9H, 0bcH, 0feH, 0b4H, 0b4H
	DB	0bdH, 0a8H, 0baH, 0afH, 0caH, 0fdH, 0a1H, 0b0H, '%s', 0a1H, 0b1H
	DB	':%d', 00H					; `string'
CONST	ENDS
;	COMDAT ??_C@_0BD@LMOFNGMO@?$KB?$LA?$CFs?$KB?$LB?D?$KD?$LP?i?$LM?S?T?X?J?$KH?$LA?$NM@
CONST	SEGMENT
??_C@_0BD@LMOFNGMO@?$KB?$LA?$CFs?$KB?$LB?D?$KD?$LP?i?$LM?S?T?X?J?$KH?$LA?$NM@ DB 0a1H
	DB	0b0H, '%s', 0a1H, 0b1H, 0c4H, 0a3H, 0bfH, 0e9H, 0bcH, 0d3H, 0d4H
	DB	0d8H, 0caH, 0a7H, 0b0H, 0dcH, 00H		; `string'
CONST	ENDS
;	COMDAT ??_C@_0DG@CDIFDKED@g?3?2?M?x?$LK?$PM?2happygamewh?2?$LH?$PO?N?q?$LG?K?2?O?$LF?M?$LD@
CONST	SEGMENT
??_C@_0DG@CDIFDKED@g?3?2?M?x?$LK?$PM?2happygamewh?2?$LH?$PO?N?q?$LG?K?2?O?$LF?M?$LD@ DB 'g'
	DB	':\', 0cdH, 0f8H, 0baH, 0fcH, '\happygamewh\', 0b7H, 0feH, 0ceH
	DB	0f1H, 0b6H, 0cbH, '\', 0cfH, 0b5H, 0cdH, 0b3H, 0c4H, 0a3H, 0bfH
	DB	0e9H, '\', 0c8H, 0abH, 0beH, 0d6H, 0b6H, 0a8H, 0d2H, 0e5H, '\m'
	DB	'odule.h', 00H				; `string'
CONST	ENDS
;	COMDAT ??_C@_0CJ@OFLINJEP@OnRequestWriteVideoDataInfo?5?$LK?$KP?J@
CONST	SEGMENT
??_C@_0CJ@OFLINJEP@OnRequestWriteVideoDataInfo?5?$LK?$KP?J@ DB 'OnRequest'
	DB	'WriteVideoDataInfo ', 0baH, 0afH, 0caH, 0fdH, 0d6H, 0d0H, 0d3H
	DB	0d0H, 0b4H, 0edH, 0ceH, 0f3H, 00H		; `string'
CONST	ENDS
;	COMDAT ??_C@_0BL@OHGHDNFN@GSP_GR_RecordVideoDataInfo@
CONST	SEGMENT
??_C@_0BL@OHGHDNFN@GSP_GR_RecordVideoDataInfo@ DB 'GSP_GR_RecordVideoData'
	DB	'Info', 00H					; `string'
CONST	ENDS
;	COMDAT ??_C@_0CJ@PDKCICIH@VideoData?5?$CK?$CK?$CK?$CK?$CK?5?V?$LE?P?P?P?$LE?5?$LC?N?S?k?S?N?O?$LH@
CONST	SEGMENT
??_C@_0CJ@PDKCICIH@VideoData?5?$CK?$CK?$CK?$CK?$CK?5?V?$LE?P?P?P?$LE?5?$LC?N?S?k?S?N?O?$LH@ DB 'V'
	DB	'ideoData ***** ', 0d6H, 0b4H, 0d0H, 0d0H, 0d0H, 0b4H, ' ', 0b2H
	DB	0ceH, 0d3H, 0ebH, 0d3H, 0ceH, 0cfH, 0b7H, ' ', 0b4H, 0e6H, 0b4H
	DB	0a2H, 0b9H, 0fdH, 0b3H, 0ccH, 00H		; `string'
CONST	ENDS
;	COMDAT ??_C@_0N@DDOPDEFM@?$EAszVideoData@
CONST	SEGMENT
??_C@_0N@DDOPDEFM@?$EAszVideoData@ DB '@szVideoData', 00H ; `string'
CONST	ENDS
;	COMDAT ?__LINE__Var@?0??OnRequestWriteVideoDataInfo@CDataBaseEngineSink@@IAE_NKPAXGAAK@Z@4JA
_DATA	SEGMENT
?__LINE__Var@?0??OnRequestWriteVideoDataInfo@CDataBaseEngineSink@@IAE_NKPAXGAAK@Z@4JA DD 01835H ; `CDataBaseEngineSink::OnRequestWriteVideoDataInfo'::`1'::__LINE__Var
_DATA	ENDS
;	COMDAT ??_C@_0CL@KLKPPIFO@OnRequestWriteVideoPlayerInfo?5?$LK@
CONST	SEGMENT
??_C@_0CL@KLKPPIFO@OnRequestWriteVideoPlayerInfo?5?$LK@ DB 'OnRequestWrit'
	DB	'eVideoPlayerInfo ', 0baH, 0afH, 0caH, 0fdH, 0d6H, 0d0H, 0d3H, 0d0H
	DB	0b4H, 0edH, 0ceH, 0f3H, 00H			; `string'
CONST	ENDS
;	COMDAT ??_C@_0BN@NMLOBHHE@GSP_GR_RecordVideoPlayerInfo@
CONST	SEGMENT
??_C@_0BN@NMLOBHHE@GSP_GR_RecordVideoPlayerInfo@ DB 'GSP_GR_RecordVideoPl'
	DB	'ayerInfo', 00H				; `string'
CONST	ENDS
;	COMDAT ??_C@_0CP@CHBEJABO@VideoPlayerInfo?5?$CK?$CK?$CK?$CK?$CK?5?V?$LE?P?P?P?$LE?5?$LC?N@
CONST	SEGMENT
??_C@_0CP@CHBEJABO@VideoPlayerInfo?5?$CK?$CK?$CK?$CK?$CK?5?V?$LE?P?P?P?$LE?5?$LC?N@ DB 'V'
	DB	'ideoPlayerInfo ***** ', 0d6H, 0b4H, 0d0H, 0d0H, 0d0H, 0b4H, ' '
	DB	0b2H, 0ceH, 0d3H, 0ebH, 0d3H, 0ceH, 0cfH, 0b7H, ' ', 0b4H, 0e6H
	DB	0b4H, 0a2H, 0b9H, 0fdH, 0b3H, 0ccH, 00H	; `string'
CONST	ENDS
;	COMDAT ??_C@_0P@CHNNICGD@?$EAszVideoNumber@
CONST	SEGMENT
??_C@_0P@CHNNICGD@?$EAszVideoNumber@ DB '@szVideoNumber', 00H ; `string'
CONST	ENDS
;	COMDAT ?__LINE__Var@?0??OnRequestWriteVideoPlayerInfo@CDataBaseEngineSink@@IAE_NKPAXGAAK@Z@4JA
_DATA	SEGMENT
?__LINE__Var@?0??OnRequestWriteVideoPlayerInfo@CDataBaseEngineSink@@IAE_NKPAXGAAK@Z@4JA DD 01811H ; `CDataBaseEngineSink::OnRequestWriteVideoPlayerInfo'::`1'::__LINE__Var
_DATA	ENDS
;	COMDAT ??_C@_0CE@PEDHBAHP@OnRequestWriteJoinInfo?5?$LK?$KP?J?$PN?V?P?S?P@
CONST	SEGMENT
??_C@_0CE@PEDHBAHP@OnRequestWriteJoinInfo?5?$LK?$KP?J?$PN?V?P?S?P@ DB 'On'
	DB	'RequestWriteJoinInfo ', 0baH, 0afH, 0caH, 0fdH, 0d6H, 0d0H, 0d3H
	DB	0d0H, 0b4H, 0edH, 0ceH, 0f3H, 00H		; `string'
CONST	ENDS
;	COMDAT ??_C@_0CB@GCADOFKG@GSP_GR_WritePersonalRoomJoinInf@
CONST	SEGMENT
??_C@_0CB@GCADOFKG@GSP_GR_WritePersonalRoomJoinInf@ DB 'GSP_GR_WritePerso'
	DB	'nalRoomJoinInfo', 00H			; `string'
CONST	ENDS
;	COMDAT ??_C@_0M@FDEHBDCL@?$EAszRoomGUID@
CONST	SEGMENT
??_C@_0M@FDEHBDCL@?$EAszRoomGUID@ DB '@szRoomGUID', 00H	; `string'
CONST	ENDS
;	COMDAT ??_C@_0L@GMFHAHPM@?$EAdwChairID@
CONST	SEGMENT
??_C@_0L@GMFHAHPM@?$EAdwChairID@ DB '@dwChairID', 00H	; `string'
CONST	ENDS
;	COMDAT ??_C@_0L@MALOIOF@?$EAdwTableID@
CONST	SEGMENT
??_C@_0L@MALOIOF@?$EAdwTableID@ DB '@dwTableID', 00H	; `string'
CONST	ENDS
;	COMDAT ?__LINE__Var@?0??OnRequestWriteJoinInfo@CDataBaseEngineSink@@IAE_NKPAXGAAK@Z@4JA
_DATA	SEGMENT
?__LINE__Var@?0??OnRequestWriteJoinInfo@CDataBaseEngineSink@@IAE_NKPAXGAAK@Z@4JA DD 017edH ; `CDataBaseEngineSink::OnRequestWriteJoinInfo'::`1'::__LINE__Var
_DATA	ENDS
;	COMDAT ??_C@_0BA@CJGKEJMC@VariationInsure@
CONST	SEGMENT
??_C@_0BA@CJGKEJMC@VariationInsure@ DB 'VariationInsure', 00H ; `string'
CONST	ENDS
;	COMDAT ??_C@_0P@MOIGFANG@VariationScore@
CONST	SEGMENT
??_C@_0P@MOIGFANG@VariationScore@ DB 'VariationScore', 00H ; `string'
CONST	ENDS
;	COMDAT ??_C@_0O@NODKFAON@InsureRevenue@
CONST	SEGMENT
??_C@_0O@NODKFAON@InsureRevenue@ DB 'InsureRevenue', 00H ; `string'
CONST	ENDS
;	COMDAT ??_C@_0N@NACABOPM@SourceInsure@
CONST	SEGMENT
??_C@_0N@NACABOPM@SourceInsure@ DB 'SourceInsure', 00H	; `string'
CONST	ENDS
;	COMDAT ??_C@_0M@DNAOABEK@SourceScore@
CONST	SEGMENT
??_C@_0M@DNAOABEK@SourceScore@ DB 'SourceScore', 00H	; `string'
CONST	ENDS
;	COMDAT ??_C@_0N@PAGJFPFL@?$CFs?5?5?5?$CFs?5?$LD?v?$LE?m@
CONST	SEGMENT
??_C@_0N@PAGJFPFL@?$CFs?5?5?5?$CFs?5?$LD?v?$LE?m@ DB '%s   %s ', 0b3H, 0f6H
	DB	0b4H, 0edH, 00H				; `string'
CONST	ENDS
;	COMDAT ??_C@_0CK@GJNGIALF@CDataBaseEngineSink?3?3OnLogonDis@
CONST	SEGMENT
??_C@_0CK@GJNGIALF@CDataBaseEngineSink?3?3OnLogonDis@ DB 'CDataBaseEngine'
	DB	'Sink::OnLogonDisposeResult', 00H		; `string'
CONST	ENDS
;	COMDAT ??_C@_0N@HBNIIIGG@UserGameData@
CONST	SEGMENT
??_C@_0N@HBNIIIGG@UserGameData@ DB 'UserGameData', 00H	; `string'
CONST	ENDS
;	COMDAT ??_C@_0BJ@IFJCFNBF@GSP_GR_QueryUserGameData@
CONST	SEGMENT
??_C@_0BJ@IFJCFNBF@GSP_GR_QueryUserGameData@ DB 'GSP_GR_QueryUserGameData'
	DB	00H						; `string'
CONST	ENDS
;	COMDAT ??_C@_0M@PJKHBHCK@ResidueTime@
CONST	SEGMENT
??_C@_0M@PJKHBHCK@ResidueTime@ DB 'ResidueTime', 00H	; `string'
CONST	ENDS
;	COMDAT ??_C@_0L@JKPFHAOK@InoutIndex@
CONST	SEGMENT
??_C@_0L@JKPFHAOK@InoutIndex@ DB 'InoutIndex', 00H	; `string'
CONST	ENDS
;	COMDAT ??_C@_0M@JGHDFAPJ@MasterRight@
CONST	SEGMENT
??_C@_0M@JGHDFAPJ@MasterRight@ DB 'MasterRight', 00H	; `string'
CONST	ENDS
;	COMDAT ??_C@_07EAMDMMMO@AgentID@
CONST	SEGMENT
??_C@_07EAMDMMMO@AgentID@ DB 'AgentID', 00H		; `string'
CONST	ENDS
;	COMDAT ??_C@_0O@EJBNDIFA@IntegralCount@
CONST	SEGMENT
??_C@_0O@EJBNDIFA@IntegralCount@ DB 'IntegralCount', 00H ; `string'
CONST	ENDS
;	COMDAT ??_C@_09LDFGMNGL@FleeCount@
CONST	SEGMENT
??_C@_09LDFGMNGL@FleeCount@ DB 'FleeCount', 00H		; `string'
CONST	ENDS
;	COMDAT ??_C@_09KHKKAHKI@DrawCount@
CONST	SEGMENT
??_C@_09KHKKAHKI@DrawCount@ DB 'DrawCount', 00H		; `string'
CONST	ENDS
;	COMDAT ??_C@_09OGIEMOLB@LostCount@
CONST	SEGMENT
??_C@_09OGIEMOLB@LostCount@ DB 'LostCount', 00H		; `string'
CONST	ENDS
;	COMDAT ??_C@_08NMLNNJOO@WinCount@
CONST	SEGMENT
??_C@_08NMLNNJOO@WinCount@ DB 'WinCount', 00H		; `string'
CONST	ENDS
;	COMDAT ??_C@_06FMMMEEGK@Dimand@
CONST	SEGMENT
??_C@_06FMMMEEGK@Dimand@ DB 'Dimand', 00H		; `string'
CONST	ENDS
;	COMDAT ??_C@_05LLMLLFP@Grade@
CONST	SEGMENT
??_C@_05LLMLLFP@Grade@ DB 'Grade', 00H			; `string'
CONST	ENDS
;	COMDAT ??_C@_0L@FEKLBNBC@PostalCode@
CONST	SEGMENT
??_C@_0L@FEKLBNBC@PostalCode@ DB 'PostalCode', 00H	; `string'
CONST	ENDS
;	COMDAT ??_C@_0O@GKEPGAEM@DwellingPlace@
CONST	SEGMENT
??_C@_0O@GKEPGAEM@DwellingPlace@ DB 'DwellingPlace', 00H ; `string'
CONST	ENDS
;	COMDAT ??_C@_0M@OJIHCJC@MobilePhone@
CONST	SEGMENT
??_C@_0M@OJIHCJC@MobilePhone@ DB 'MobilePhone', 00H	; `string'
CONST	ENDS
;	COMDAT ??_C@_09MAIOJANC@SeatPhone@
CONST	SEGMENT
??_C@_09MAIOJANC@SeatPhone@ DB 'SeatPhone', 00H		; `string'
CONST	ENDS
;	COMDAT ??_C@_05LMBPBNBJ@EMail@
CONST	SEGMENT
??_C@_05LMBPBNBJ@EMail@ DB 'EMail', 00H			; `string'
CONST	ENDS
;	COMDAT ??_C@_02MOGAAOHP@QQ@
CONST	SEGMENT
??_C@_02MOGAAOHP@QQ@ DB 'QQ', 00H			; `string'
CONST	ENDS
;	COMDAT ??_C@_0L@CPAJNIME@UnderWrite@
CONST	SEGMENT
??_C@_0L@CPAJNIME@UnderWrite@ DB 'UnderWrite', 00H	; `string'
CONST	ENDS
;	COMDAT ??_C@_0M@HCDMHMBE@MasterOrder@
CONST	SEGMENT
??_C@_0M@HCDMHMBE@MasterOrder@ DB 'MasterOrder', 00H	; `string'
CONST	ENDS
;	COMDAT ??_C@_06HKFFEOFI@Gender@
CONST	SEGMENT
??_C@_06HKFFEOFI@Gender@ DB 'Gender', 00H		; `string'
CONST	ENDS
;	COMDAT ??_C@_09DOCDJBIG@GroupName@
CONST	SEGMENT
??_C@_09DOCDJBIG@GroupName@ DB 'GroupName', 00H		; `string'
CONST	ENDS
;	COMDAT ??_C@_08CELDJAGK@NickName@
CONST	SEGMENT
??_C@_08CELDJAGK@NickName@ DB 'NickName', 00H		; `string'
CONST	ENDS
;	COMDAT ??_C@_08GOBKDNAK@CustomID@
CONST	SEGMENT
??_C@_08GOBKDNAK@CustomID@ DB 'CustomID', 00H		; `string'
CONST	ENDS
;	COMDAT ??_C@_07IKIDGEIC@GroupID@
CONST	SEGMENT
??_C@_07IKIDGEIC@GroupID@ DB 'GroupID', 00H		; `string'
CONST	ENDS
;	COMDAT ??_C@_06LPNEIKNP@FaceID@
CONST	SEGMENT
??_C@_06LPNEIKNP@FaceID@ DB 'FaceID', 00H		; `string'
CONST	ENDS
;	COMDAT ?__LINE__Var@?0??OnLogonDisposeResult@CDataBaseEngineSink@@AAEXKKPBD_NEGG@Z@4JA
_DATA	SEGMENT
?__LINE__Var@?0??OnLogonDisposeResult@CDataBaseEngineSink@@AAEXKKPBD_NEGG@Z@4JA DD 0171aH ; `CDataBaseEngineSink::OnLogonDisposeResult'::`1'::__LINE__Var
_DATA	ENDS
;	COMDAT ??_C@_0DA@OJHNEFOD@CDataBaseEngineSink?3?3OnRequestU@
CONST	SEGMENT
??_C@_0DA@OJHNEFOD@CDataBaseEngineSink?3?3OnRequestU@ DB 'CDataBaseEngine'
	DB	'Sink::OnRequestUnlockAndroidUser', 00H	; `string'
CONST	ENDS
;	COMDAT ??_C@_0BJ@GEMLPEBL@GSP_GR_UnlockAndroidUser@
CONST	SEGMENT
??_C@_0BJ@GEMLPEBL@GSP_GR_UnlockAndroidUser@ DB 'GSP_GR_UnlockAndroidUser'
	DB	00H						; `string'
CONST	ENDS
;	COMDAT ??_C@_09LJJBNBM@?$EAwBatchID@
CONST	SEGMENT
??_C@_09LJJBNBM@?$EAwBatchID@ DB '@wBatchID', 00H	; `string'
CONST	ENDS
;	COMDAT ?__LINE__Var@?0??OnRequestUnlockAndroidUser@CDataBaseEngineSink@@IAE_NKPAXGAAK@Z@4JA
_DATA	SEGMENT
?__LINE__Var@?0??OnRequestUnlockAndroidUser@CDataBaseEngineSink@@IAE_NKPAXGAAK@Z@4JA DD 016f8H ; `CDataBaseEngineSink::OnRequestUnlockAndroidUser'::`1'::__LINE__Var
_DATA	ENDS
;	COMDAT ??_C@_0DB@NNIKPNDN@CDataBaseEngineSink?3?3OnRequestL@
CONST	SEGMENT
??_C@_0DB@NNIKPNDN@CDataBaseEngineSink?3?3OnRequestL@ DB 'CDataBaseEngine'
	DB	'Sink::OnRequestLoadSensitiveWords', 00H	; `string'
CONST	ENDS
;	COMDAT ??_C@_0P@PCOKOAF@SensitiveWords@
CONST	SEGMENT
??_C@_0P@PCOKOAF@SensitiveWords@ DB 'SensitiveWords', 00H ; `string'
CONST	ENDS
;	COMDAT ??_C@_0BK@GOGBDBKC@GSP_GR_LoadSensitiveWords@
CONST	SEGMENT
??_C@_0BK@GOGBDBKC@GSP_GR_LoadSensitiveWords@ DB 'GSP_GR_LoadSensitiveWor'
	DB	'ds', 00H					; `string'
CONST	ENDS
;	COMDAT ??_C@_0N@DIGHLIGE@ConcludeTime@
CONST	SEGMENT
??_C@_0N@DIGHLIGE@ConcludeTime@ DB 'ConcludeTime', 00H	; `string'
CONST	ENDS
;	COMDAT ??_C@_09MHCEAAPI@StartTime@
CONST	SEGMENT
??_C@_09MHCEAAPI@StartTime@ DB 'StartTime', 00H		; `string'
CONST	ENDS
;	COMDAT ??_C@_0O@EOKEIOEE@MessageString@
CONST	SEGMENT
??_C@_0O@EOKEIOEE@MessageString@ DB 'MessageString', 00H ; `string'
CONST	ENDS
;	COMDAT ??_C@_08MBIPKANE@TimeRate@
CONST	SEGMENT
??_C@_08MBIPKANE@TimeRate@ DB 'TimeRate', 00H		; `string'
CONST	ENDS
;	COMDAT ??_C@_0M@ECIDEJHH@MessageType@
CONST	SEGMENT
??_C@_0M@ECIDEJHH@MessageType@ DB 'MessageType', 00H	; `string'
CONST	ENDS
;	COMDAT ??_C@_0M@BHEKDOEH@ServerRange@
CONST	SEGMENT
??_C@_0M@BHEKDOEH@ServerRange@ DB 'ServerRange', 00H	; `string'
CONST	ENDS
;	COMDAT ??_C@_0BJ@GFLIDCFB@GSP_GR_LoadSystemMessage@
CONST	SEGMENT
??_C@_0BJ@GFLIDCFB@GSP_GR_LoadSystemMessage@ DB 'GSP_GR_LoadSystemMessage'
	DB	00H						; `string'
CONST	ENDS
;	COMDAT ??_C@_0CP@DIBHMCCC@CDataBaseEngineSink?3?3OnRequestM@
CONST	SEGMENT
??_C@_0CP@DIBHMCCC@CDataBaseEngineSink?3?3OnRequestM@ DB 'CDataBaseEngine'
	DB	'Sink::OnRequestManageMatchRight', 00H	; `string'
CONST	ENDS
;	COMDAT ??_C@_0BI@IGKLMPDN@GSP_GR_ManageMatchRight@
CONST	SEGMENT
??_C@_0BI@IGKLMPDN@GSP_GR_ManageMatchRight@ DB 'GSP_GR_ManageMatchRight', 00H ; `string'
CONST	ENDS
;	COMDAT ?__LINE__Var@?0??OnRequestManageMatchRight@CDataBaseEngineSink@@IAE_NKPAXGAAK@Z@4JA
_DATA	SEGMENT
?__LINE__Var@?0??OnRequestManageMatchRight@CDataBaseEngineSink@@IAE_NKPAXGAAK@Z@4JA DD 01627H ; `CDataBaseEngineSink::OnRequestManageMatchRight'::`1'::__LINE__Var
_DATA	ENDS
;	COMDAT ??_C@_0CO@CBHLJOKM@CDataBaseEngineSink?3?3OnRequestM@
CONST	SEGMENT
??_C@_0CO@CBHLJOKM@CDataBaseEngineSink?3?3OnRequestM@ DB 'CDataBaseEngine'
	DB	'Sink::OnRequestManageUserRight', 00H	; `string'
CONST	ENDS
;	COMDAT ??_C@_0BH@JGGGJBNO@GSP_GR_ManageUserRight@
CONST	SEGMENT
??_C@_0BH@JGGGJBNO@GSP_GR_ManageUserRight@ DB 'GSP_GR_ManageUserRight', 00H ; `string'
CONST	ENDS
;	COMDAT ??_C@_0P@CLJCGMJC@?$EAdwRemoveRight@
CONST	SEGMENT
??_C@_0P@CLJCGMJC@?$EAdwRemoveRight@ DB '@dwRemoveRight', 00H ; `string'
CONST	ENDS
;	COMDAT ??_C@_0M@NMGCHBNI@?$EAdwAddRight@
CONST	SEGMENT
??_C@_0M@NMGCHBNI@?$EAdwAddRight@ DB '@dwAddRight', 00H	; `string'
CONST	ENDS
;	COMDAT ?__LINE__Var@?0??OnRequestManageUserRight@CDataBaseEngineSink@@IAE_NKPAXGAAK@Z@4JA
_DATA	SEGMENT
?__LINE__Var@?0??OnRequestManageUserRight@CDataBaseEngineSink@@IAE_NKPAXGAAK@Z@4JA DD 01602H ; `CDataBaseEngineSink::OnRequestManageUserRight'::`1'::__LINE__Var
_DATA	ENDS
;	COMDAT ??_C@_0DG@OCMGMCGE@CDataBaseEngineSink?3?3OnRequestQ@
CONST	SEGMENT
??_C@_0DG@OCMGMCGE@CDataBaseEngineSink?3?3OnRequestQ@ DB 'CDataBaseEngine'
	DB	'Sink::OnRequestQueryGrowLevelParameter', 00H ; `string'
CONST	ENDS
;	COMDAT ??_C@_0BE@JMMGGPNE@?$EAstrUpGradeDescribe@
CONST	SEGMENT
??_C@_0BE@JMMGGPNE@?$EAstrUpGradeDescribe@ DB '@strUpGradeDescribe', 00H ; `string'
CONST	ENDS
;	COMDAT ??_C@_0M@GNOFDGAD@RewardMedal@
CONST	SEGMENT
??_C@_0M@GNOFDGAD@RewardMedal@ DB 'RewardMedal', 00H	; `string'
CONST	ENDS
;	COMDAT ??_C@_0BC@CPJKHIND@UpgradeExperience@
CONST	SEGMENT
??_C@_0BC@CPJKHIND@UpgradeExperience@ DB 'UpgradeExperience', 00H ; `string'
CONST	ENDS
;	COMDAT ??_C@_0M@NBPAMKCD@CurrLevelID@
CONST	SEGMENT
??_C@_0M@NBPAMKCD@CurrLevelID@ DB 'CurrLevelID', 00H	; `string'
CONST	ENDS
;	COMDAT ??_C@_0BG@MGKFFOPK@GSP_GP_QueryGrowLevel@
CONST	SEGMENT
??_C@_0BG@MGKFFOPK@GSP_GP_QueryGrowLevel@ DB 'GSP_GP_QueryGrowLevel', 00H ; `string'
CONST	ENDS
;	COMDAT ??_C@_0BE@FBKCBHAM@?$EAstrUpgradeDescribe@
CONST	SEGMENT
??_C@_0BE@FBKCBHAM@?$EAstrUpgradeDescribe@ DB '@strUpgradeDescribe', 00H ; `string'
CONST	ENDS
;	COMDAT ?__LINE__Var@?0??OnRequestQueryGrowLevelParameter@CDataBaseEngineSink@@IAE_NKPAXGAAK@Z@4JA
_DATA	SEGMENT
?__LINE__Var@?0??OnRequestQueryGrowLevelParameter@CDataBaseEngineSink@@IAE_NKPAXGAAK@Z@4JA DD 015a4H ; `CDataBaseEngineSink::OnRequestQueryGrowLevelParameter'::`1'::__LINE__Var
_DATA	ENDS
;	COMDAT ??_C@_0DC@PMLOHGEK@CDataBaseEngineSink?3?3OnRequestL@
CONST	SEGMENT
??_C@_0DC@PMLOHGEK@CDataBaseEngineSink?3?3OnRequestL@ DB 'CDataBaseEngine'
	DB	'Sink::OnRequestLoadGrowLevelConfig', 00H	; `string'
CONST	ENDS
;	COMDAT ??_C@_0L@DCGNFONO@Experience@
CONST	SEGMENT
??_C@_0L@DCGNFONO@Experience@ DB 'Experience', 00H	; `string'
CONST	ENDS
;	COMDAT ??_C@_07CLGGPGGC@LevelID@
CONST	SEGMENT
??_C@_07CLGGPGGC@LevelID@ DB 'LevelID', 00H		; `string'
CONST	ENDS
;	COMDAT ??_C@_0BL@JMLNBDFD@GSP_GR_LoadGrowLevelConfig@
CONST	SEGMENT
??_C@_0BL@JMLNBDFD@GSP_GR_LoadGrowLevelConfig@ DB 'GSP_GR_LoadGrowLevelCo'
	DB	'nfig', 00H					; `string'
CONST	ENDS
;	COMDAT ??_C@_0DD@JIKGAJMG@CDataBaseEngineSink?3?3OnRequestM@
CONST	SEGMENT
??_C@_0DD@JIKGAJMG@CDataBaseEngineSink?3?3OnRequestM@ DB 'CDataBaseEngine'
	DB	'Sink::OnRequestMatchQueryReviveInfo', 00H	; `string'
CONST	ENDS
;	COMDAT ??_C@_0M@ENLAKNPB@ReviveTimes@
CONST	SEGMENT
??_C@_0M@ENLAKNPB@ReviveTimes@ DB 'ReviveTimes', 00H	; `string'
CONST	ENDS
;	COMDAT ??_C@_0P@NHLPBHLE@SafeCardRevive@
CONST	SEGMENT
??_C@_0P@NHLPBHLE@SafeCardRevive@ DB 'SafeCardRevive', 00H ; `string'
CONST	ENDS
;	COMDAT ??_C@_0BM@PMKNKCGD@GSP_GR_MatchQueryReviveInfo@
CONST	SEGMENT
??_C@_0BM@PMKNKCGD@GSP_GR_MatchQueryReviveInfo@ DB 'GSP_GR_MatchQueryRevi'
	DB	'veInfo', 00H				; `string'
CONST	ENDS
;	COMDAT ?__LINE__Var@?0??OnRequestMatchQueryReviveInfo@CDataBaseEngineSink@@IAE_NKPAXGAAK@Z@4JA
_DATA	SEGMENT
?__LINE__Var@?0??OnRequestMatchQueryReviveInfo@CDataBaseEngineSink@@IAE_NKPAXGAAK@Z@4JA DD 01529H ; `CDataBaseEngineSink::OnRequestMatchQueryReviveInfo'::`1'::__LINE__Var
_DATA	ENDS
;	COMDAT ??_C@_0BH@HLMAJMNC@?J?$PN?$LO?$NN?$LP?b?R?l?$LD?$KD?$KD?$KM?$LI?$LE?$LL?n?J?$KH?$LA?$NM?$KD?$KB@
CONST	SEGMENT
??_C@_0BH@HLMAJMNC@?J?$PN?$LO?$NN?$LP?b?R?l?$LD?$KD?$KD?$KM?$LI?$LE?$LL?n?J?$KH?$LA?$NM?$KD?$KB@ DB 0caH
	DB	0fdH, 0beH, 0ddH, 0bfH, 0e2H, 0d2H, 0ecH, 0b3H, 0a3H, 0a3H, 0acH
	DB	0b8H, 0b4H, 0bbH, 0eeH, 0caH, 0a7H, 0b0H, 0dcH, 0a3H, 0a1H, 00H ; `string'
CONST	ENDS
;	COMDAT ??_C@_0CO@NFHHLNKA@CDataBaseEngineSink?3?3OnRequestM@
CONST	SEGMENT
??_C@_0CO@NFHHLNKA@CDataBaseEngineSink?3?3OnRequestM@ DB 'CDataBaseEngine'
	DB	'Sink::OnRequestMatchUserRevive', 00H	; `string'
CONST	ENDS
;	COMDAT ??_C@_0BH@GCGKLCNC@GSP_GR_MatchUserRevive@
CONST	SEGMENT
??_C@_0BH@GCGKLCNC@GSP_GR_MatchUserRevive@ DB 'GSP_GR_MatchUserRevive', 00H ; `string'
CONST	ENDS
;	COMDAT ??_C@_0P@LFFONGOD@?$EAcbReviveTimes@
CONST	SEGMENT
??_C@_0P@LFFONGOD@?$EAcbReviveTimes@ DB '@cbReviveTimes', 00H ; `string'
CONST	ENDS
;	COMDAT ??_C@_0M@FFMDAOAJ@?$EAlReviveFee@
CONST	SEGMENT
??_C@_0M@FFMDAOAJ@?$EAlReviveFee@ DB '@lReviveFee', 00H	; `string'
CONST	ENDS
;	COMDAT ??_C@_0L@DOOJENON@?$EACullScore@
CONST	SEGMENT
??_C@_0L@DOOJENON@?$EACullScore@ DB '@CullScore', 00H	; `string'
CONST	ENDS
;	COMDAT ?__LINE__Var@?0??OnRequestMatchUserRevive@CDataBaseEngineSink@@IAE_NKPAXGAAK@Z@4JA
_DATA	SEGMENT
?__LINE__Var@?0??OnRequestMatchUserRevive@CDataBaseEngineSink@@IAE_NKPAXGAAK@Z@4JA DD 014d4H ; `CDataBaseEngineSink::OnRequestMatchUserRevive'::`1'::__LINE__Var
_DATA	ENDS
;	COMDAT ??_C@_0DA@LGEIPJHK@CDataBaseEngineSink?3?3OnRequestM@
CONST	SEGMENT
??_C@_0DA@LGEIPJHK@CDataBaseEngineSink?3?3OnRequestM@ DB 'CDataBaseEngine'
	DB	'Sink::OnRequestMatchRecordGrades', 00H	; `string'
CONST	ENDS
;	COMDAT ??_C@_0BJ@DLPOEIIC@GSP_GR_MatchRecordGrades@
CONST	SEGMENT
??_C@_0BJ@DLPOEIIC@GSP_GR_MatchRecordGrades@ DB 'GSP_GR_MatchRecordGrades'
	DB	00H						; `string'
CONST	ENDS
;	COMDAT ??_C@_0M@LHDIAACG@?$EAlInitScore@
CONST	SEGMENT
??_C@_0M@LHDIAACG@?$EAlInitScore@ DB '@lInitScore', 00H	; `string'
CONST	ENDS
;	COMDAT ?__LINE__Var@?0??OnRequestMatchRecordGrades@CDataBaseEngineSink@@IAE_NKPAXGAAK@Z@4JA
_DATA	SEGMENT
?__LINE__Var@?0??OnRequestMatchRecordGrades@CDataBaseEngineSink@@IAE_NKPAXGAAK@Z@4JA DD 014acH ; `CDataBaseEngineSink::OnRequestMatchRecordGrades'::`1'::__LINE__Var
_DATA	ENDS
;	COMDAT ??_C@_0CN@BJHIPMDN@CDataBaseEngineSink?3?3OnRequestM@
CONST	SEGMENT
??_C@_0CN@BJHIPMDN@CDataBaseEngineSink?3?3OnRequestM@ DB 'CDataBaseEngine'
	DB	'Sink::OnRequestMatchEliminate', 00H		; `string'
CONST	ENDS
;	COMDAT ??_C@_0BG@LJCLLFED@GSP_GR_MatchEliminate@
CONST	SEGMENT
??_C@_0BG@LJCLLFED@GSP_GR_MatchEliminate@ DB 'GSP_GR_MatchEliminate', 00H ; `string'
CONST	ENDS
;	COMDAT ?__LINE__Var@?0??OnRequestMatchEliminate@CDataBaseEngineSink@@IAE_NKPAXGAAK@Z@4JA
_DATA	SEGMENT
?__LINE__Var@?0??OnRequestMatchEliminate@CDataBaseEngineSink@@IAE_NKPAXGAAK@Z@4JA DD 01483H ; `CDataBaseEngineSink::OnRequestMatchEliminate'::`1'::__LINE__Var
_DATA	ENDS
;	COMDAT ??_C@_0BD@DNIDGOBF@GSP_GR_MatchReward@
CONST	SEGMENT
??_C@_0BD@DNIDGOBF@GSP_GR_MatchReward@ DB 'GSP_GR_MatchReward', 00H ; `string'
CONST	ENDS
;	COMDAT ??_C@_0BE@GJCFMENF@?$EAdwRewardExperience@
CONST	SEGMENT
??_C@_0BE@GJCFMENF@?$EAdwRewardExperience@ DB '@dwRewardExperience', 00H ; `string'
CONST	ENDS
;	COMDAT ??_C@_0O@GEAKHEEF@?$EAlRewardIngot@
CONST	SEGMENT
??_C@_0O@GEAKHEEF@?$EAlRewardIngot@ DB '@lRewardIngot', 00H ; `string'
CONST	ENDS
;	COMDAT ??_C@_0N@NOJJNPBC@?$EAlRewardGold@
CONST	SEGMENT
??_C@_0N@NOJJNPBC@?$EAlRewardGold@ DB '@lRewardGold', 00H ; `string'
CONST	ENDS
;	COMDAT ?__LINE__Var@?0??OnRequestMatchReward@CDataBaseEngineSink@@IAE_NKPAXGAAK@Z@4JA
_DATA	SEGMENT
?__LINE__Var@?0??OnRequestMatchReward@CDataBaseEngineSink@@IAE_NKPAXGAAK@Z@4JA DD 0143bH ; `CDataBaseEngineSink::OnRequestMatchReward'::`1'::__LINE__Var
_DATA	ENDS
;	COMDAT ??_C@_0CK@PNECLCCL@CDataBaseEngineSink?3?3OnRequestM@
CONST	SEGMENT
??_C@_0CK@PNECLCCL@CDataBaseEngineSink?3?3OnRequestM@ DB 'CDataBaseEngine'
	DB	'Sink::OnRequestMatchCancel', 00H		; `string'
CONST	ENDS
;	COMDAT ??_C@_0BD@HBPCLJPM@GSP_GR_MatchCancel@
CONST	SEGMENT
??_C@_0BD@HBPCLJPM@GSP_GR_MatchCancel@ DB 'GSP_GR_MatchCancel', 00H ; `string'
CONST	ENDS
;	COMDAT ?__LINE__Var@?0??OnRequestMatchCancel@CDataBaseEngineSink@@IAE_NKPAXGAAK@Z@4JA
_DATA	SEGMENT
?__LINE__Var@?0??OnRequestMatchCancel@CDataBaseEngineSink@@IAE_NKPAXGAAK@Z@4JA DD 0140bH ; `CDataBaseEngineSink::OnRequestMatchCancel'::`1'::__LINE__Var
_DATA	ENDS
;	COMDAT ??_C@_0CI@EOLOHCBI@CDataBaseEngineSink?3?3OnRequestM@
CONST	SEGMENT
??_C@_0CI@EOLOHCBI@CDataBaseEngineSink?3?3OnRequestM@ DB 'CDataBaseEngine'
	DB	'Sink::OnRequestMatchOver', 00H		; `string'
CONST	ENDS
;	COMDAT ??_C@_0BB@DAEFAHAB@RewardExperience@
CONST	SEGMENT
??_C@_0BB@DAEFAHAB@RewardExperience@ DB 'RewardExperience', 00H ; `string'
CONST	ENDS
;	COMDAT ??_C@_0M@BLJEFPLJ@RewardIngot@
CONST	SEGMENT
??_C@_0M@BLJEFPLJ@RewardIngot@ DB 'RewardIngot', 00H	; `string'
CONST	ENDS
;	COMDAT ??_C@_06DEAKIBIA@RankID@
CONST	SEGMENT
??_C@_06DEAKIBIA@RankID@ DB 'RankID', 00H		; `string'
CONST	ENDS
;	COMDAT ??_C@_0BB@DPPGPFAF@GSP_GR_MatchOver@
CONST	SEGMENT
??_C@_0BB@DPPGPFAF@GSP_GR_MatchOver@ DB 'GSP_GR_MatchOver', 00H ; `string'
CONST	ENDS
;	COMDAT ??_C@_0O@EPJCLNKL@?$EAMatchEndTime@
CONST	SEGMENT
??_C@_0O@EPJCLNKL@?$EAMatchEndTime@ DB '@MatchEndTime', 00H ; `string'
CONST	ENDS
;	COMDAT ??_C@_0BA@ONKGNJI@?$EAMatchStartTime@
CONST	SEGMENT
??_C@_0BA@ONKGNJI@?$EAMatchStartTime@ DB '@MatchStartTime', 00H ; `string'
CONST	ENDS
;	COMDAT ??_C@_0O@DEBJJKGF@?$EAbMatchFinish@
CONST	SEGMENT
??_C@_0O@DEBJJKGF@?$EAbMatchFinish@ DB '@bMatchFinish', 00H ; `string'
CONST	ENDS
;	COMDAT ??_C@_0N@LLNFOKNK@?$EAcbPlayCount@
CONST	SEGMENT
??_C@_0N@LLNFOKNK@?$EAcbPlayCount@ DB '@cbPlayCount', 00H ; `string'
CONST	ENDS
;	COMDAT ?__LINE__Var@?0??OnRequestMatchOver@CDataBaseEngineSink@@IAE_NKPAXGAAK@Z@4JA
_DATA	SEGMENT
?__LINE__Var@?0??OnRequestMatchOver@CDataBaseEngineSink@@IAE_NKPAXGAAK@Z@4JA DD 013bcH ; `CDataBaseEngineSink::OnRequestMatchOver'::`1'::__LINE__Var
_DATA	ENDS
;	COMDAT ??_C@_0CJ@NJMHJMAB@CDataBaseEngineSink?3?3OnRequestM@
CONST	SEGMENT
??_C@_0CJ@NJMHJMAB@CDataBaseEngineSink?3?3OnRequestM@ DB 'CDataBaseEngine'
	DB	'Sink::OnRequestMatchStart', 00H		; `string'
CONST	ENDS
;	COMDAT ??_C@_0BC@LKLALIFP@GSP_GR_MatchStart@
CONST	SEGMENT
??_C@_0BC@LKLALIFP@GSP_GR_MatchStart@ DB 'GSP_GR_MatchStart', 00H ; `string'
CONST	ENDS
;	COMDAT ?__LINE__Var@?0??OnRequestMatchStart@CDataBaseEngineSink@@IAE_NKPAXGAAK@Z@4JA
_DATA	SEGMENT
?__LINE__Var@?0??OnRequestMatchStart@CDataBaseEngineSink@@IAE_NKPAXGAAK@Z@4JA DD 01395H ; `CDataBaseEngineSink::OnRequestMatchStart'::`1'::__LINE__Var
_DATA	ENDS
;	COMDAT ??_C@_0BN@OJBGGGID@?J?$PN?$LO?$NN?$LP?b?R?l?$LD?$KD?$KD?$KM?$LB?$KD?O?U?$LP?$KI?$LJ?$LK?B?r?J?$KH?$LA?$NM?$KD?$KB@
CONST	SEGMENT
??_C@_0BN@OJBGGGID@?J?$PN?$LO?$NN?$LP?b?R?l?$LD?$KD?$KD?$KM?$LB?$KD?O?U?$LP?$KI?$LJ?$LK?B?r?J?$KH?$LA?$NM?$KD?$KB@ DB 0caH
	DB	0fdH, 0beH, 0ddH, 0bfH, 0e2H, 0d2H, 0ecH, 0b3H, 0a3H, 0a3H, 0acH
	DB	0b1H, 0a3H, 0cfH, 0d5H, 0bfH, 0a8H, 0b9H, 0baH, 0c2H, 0f2H, 0caH
	DB	0a7H, 0b0H, 0dcH, 0a3H, 0a1H, 00H		; `string'
CONST	ENDS
;	COMDAT ??_C@_0CP@PIBJAAA@CDataBaseEngineSink?3?3OnRequestM@
CONST	SEGMENT
??_C@_0CP@PIBJAAA@CDataBaseEngineSink?3?3OnRequestM@ DB 'CDataBaseEngineS'
	DB	'ink::OnRequestMatchBuySafeCard', 00H	; `string'
CONST	ENDS
;	COMDAT ??_C@_0BI@LBDNJNBP@GSP_GR_MatchBuySafeCard@
CONST	SEGMENT
??_C@_0BI@LBDNJNBP@GSP_GR_MatchBuySafeCard@ DB 'GSP_GR_MatchBuySafeCard', 00H ; `string'
CONST	ENDS
;	COMDAT ??_C@_0O@KDGEANGE@?$EAlSafeCardFee@
CONST	SEGMENT
??_C@_0O@KDGEANGE@?$EAlSafeCardFee@ DB '@lSafeCardFee', 00H ; `string'
CONST	ENDS
;	COMDAT ?__LINE__Var@?0??OnRequestMatchBuySafeCard@CDataBaseEngineSink@@IAE_NKPAXGAAK@Z@4JA
_DATA	SEGMENT
?__LINE__Var@?0??OnRequestMatchBuySafeCard@CDataBaseEngineSink@@IAE_NKPAXGAAK@Z@4JA DD 01344H ; `CDataBaseEngineSink::OnRequestMatchBuySafeCard'::`1'::__LINE__Var
_DATA	ENDS
;	COMDAT ??_C@_0DA@DKOKPFGG@CDataBaseEngineSink?3?3OnRequestM@
CONST	SEGMENT
??_C@_0DA@DKOKPFGG@CDataBaseEngineSink?3?3OnRequestM@ DB 'CDataBaseEngine'
	DB	'Sink::OnRequestMatchQueryQualify', 00H	; `string'
CONST	ENDS
;	COMDAT ??_C@_0BJ@LHFMEEJO@GSP_GR_MatchQueryQualify@
CONST	SEGMENT
??_C@_0BJ@LHFMEEJO@GSP_GR_MatchQueryQualify@ DB 'GSP_GR_MatchQueryQualify'
	DB	00H						; `string'
CONST	ENDS
;	COMDAT ?__LINE__Var@?0??OnRequestMatchQueryQualify@CDataBaseEngineSink@@IAE_NKPAXGAAK@Z@4JA
_DATA	SEGMENT
?__LINE__Var@?0??OnRequestMatchQueryQualify@CDataBaseEngineSink@@IAE_NKPAXGAAK@Z@4JA DD 01317H ; `CDataBaseEngineSink::OnRequestMatchQueryQualify'::`1'::__LINE__Var
_DATA	ENDS
;	COMDAT ??_C@_0CP@KNNGPFBD@CDataBaseEngineSink?3?3OnRequestM@
CONST	SEGMENT
??_C@_0CP@KNNGPFBD@CDataBaseEngineSink?3?3OnRequestM@ DB 'CDataBaseEngine'
	DB	'Sink::OnRequestMatchSignupStart', 00H	; `string'
CONST	ENDS
;	COMDAT ??_C@_0BI@BDGKPIAM@GSP_GR_MatchSignupStart@
CONST	SEGMENT
??_C@_0BI@BDGKPIAM@GSP_GR_MatchSignupStart@ DB 'GSP_GR_MatchSignupStart', 00H ; `string'
CONST	ENDS
;	COMDAT ?__LINE__Var@?0??OnRequestMatchSignupStart@CDataBaseEngineSink@@IAE_NKPAXGAAK@Z@4JA
_DATA	SEGMENT
?__LINE__Var@?0??OnRequestMatchSignupStart@CDataBaseEngineSink@@IAE_NKPAXGAAK@Z@4JA DD 012efH ; `CDataBaseEngineSink::OnRequestMatchSignupStart'::`1'::__LINE__Var
_DATA	ENDS
;	COMDAT ??_C@_0CM@JAAGFEIO@CDataBaseEngineSink?3?3OnRequestM@
CONST	SEGMENT
??_C@_0CM@JAAGFEIO@CDataBaseEngineSink?3?3OnRequestM@ DB 'CDataBaseEngine'
	DB	'Sink::OnRequestMatchUnSignup', 00H		; `string'
CONST	ENDS
;	COMDAT ??_C@_0BF@DMBMNJML@GSP_GR_UserMatchQuit@
CONST	SEGMENT
??_C@_0BF@DMBMNJML@GSP_GR_UserMatchQuit@ DB 'GSP_GR_UserMatchQuit', 00H ; `string'
CONST	ENDS
;	COMDAT ?__LINE__Var@?0??OnRequestMatchUnSignup@CDataBaseEngineSink@@IAE_NKPAXGAAK@Z@4JA
_DATA	SEGMENT
?__LINE__Var@?0??OnRequestMatchUnSignup@CDataBaseEngineSink@@IAE_NKPAXGAAK@Z@4JA DD 01284H ; `CDataBaseEngineSink::OnRequestMatchUnSignup'::`1'::__LINE__Var
_DATA	ENDS
;	COMDAT ??_C@_0CK@HDOEOIAJ@CDataBaseEngineSink?3?3OnRequestM@
CONST	SEGMENT
??_C@_0CK@HDOEOIAJ@CDataBaseEngineSink?3?3OnRequestM@ DB 'CDataBaseEngine'
	DB	'Sink::OnRequestMatchSignup', 00H		; `string'
CONST	ENDS
;	COMDAT ??_C@_0L@IELFPBJG@SignupMode@
CONST	SEGMENT
??_C@_0L@IELFPBJG@SignupMode@ DB 'SignupMode', 00H	; `string'
CONST	ENDS
;	COMDAT ??_C@_09MJOGCHJF@UserIngot@
CONST	SEGMENT
??_C@_09MJOGCHJF@UserIngot@ DB 'UserIngot', 00H		; `string'
CONST	ENDS
;	COMDAT ??_C@_0BE@DFAICMFL@GSP_GR_UserMatchFee@
CONST	SEGMENT
??_C@_0BE@DFAICMFL@GSP_GR_UserMatchFee@ DB 'GSP_GR_UserMatchFee', 00H ; `string'
CONST	ENDS
;	COMDAT ??_C@_0BA@PJNEIBNN@?$EAwMaxSignupUser@
CONST	SEGMENT
??_C@_0BA@PJNEIBNN@?$EAwMaxSignupUser@ DB '@wMaxSignupUser', 00H ; `string'
CONST	ENDS
;	COMDAT ??_C@_0O@IGAIKEL@?$EAcbSignupMode@
CONST	SEGMENT
??_C@_0O@IGAIKEL@?$EAcbSignupMode@ DB '@cbSignupMode', 00H ; `string'
CONST	ENDS
;	COMDAT ??_C@_0L@BLIPNNEF@?$EAInitScore@
CONST	SEGMENT
??_C@_0L@BLIPNNEF@?$EAInitScore@ DB '@InitScore', 00H	; `string'
CONST	ENDS
;	COMDAT ?__LINE__Var@?0??OnRequestMatchSignup@CDataBaseEngineSink@@IAE_NKPAXGAAK@Z@4JA
_DATA	SEGMENT
?__LINE__Var@?0??OnRequestMatchSignup@CDataBaseEngineSink@@IAE_NKPAXGAAK@Z@4JA DD 01224H ; `CDataBaseEngineSink::OnRequestMatchSignup'::`1'::__LINE__Var
_DATA	ENDS
;	COMDAT ??_C@_0DA@OPFFIGFI@CDataBaseEngineSink?3?3OnRequestW@
CONST	SEGMENT
??_C@_0DA@OPFFIGFI@CDataBaseEngineSink?3?3OnRequestW@ DB 'CDataBaseEngine'
	DB	'Sink::OnRequestWriteUserGameData', 00H	; `string'
CONST	ENDS
;	COMDAT ??_C@_0BJ@GCODDHKA@GSP_GR_WriteUserGameData@
CONST	SEGMENT
??_C@_0BJ@GCODDHKA@GSP_GR_WriteUserGameData@ DB 'GSP_GR_WriteUserGameData'
	DB	00H						; `string'
CONST	ENDS
;	COMDAT ??_C@_0BB@JLIKJFGB@?$EAstrUserGameData@
CONST	SEGMENT
??_C@_0BB@JLIKJFGB@?$EAstrUserGameData@ DB '@strUserGameData', 00H ; `string'
CONST	ENDS
;	COMDAT ?__LINE__Var@?0??OnRequestWriteUserGameData@CDataBaseEngineSink@@IAE_NKPAXGAAK@Z@4JA
_DATA	SEGMENT
?__LINE__Var@?0??OnRequestWriteUserGameData@CDataBaseEngineSink@@IAE_NKPAXGAAK@Z@4JA DD 011f7H ; `CDataBaseEngineSink::OnRequestWriteUserGameData'::`1'::__LINE__Var
_DATA	ENDS
;	COMDAT ??_C@_0CN@PDKAOGAO@CDataBaseEngineSink?3?3OnRequestT@
CONST	SEGMENT
??_C@_0CN@PDKAOGAO@CDataBaseEngineSink?3?3OnRequestT@ DB 'CDataBaseEngine'
	DB	'Sink::OnRequestTakeBaseEnsure', 00H		; `string'
CONST	ENDS
;	COMDAT ??_C@_0BG@IHMPDPLH@GSP_GP_TakeBaseEnsure@
CONST	SEGMENT
??_C@_0BG@IHMPDPLH@GSP_GP_TakeBaseEnsure@ DB 'GSP_GP_TakeBaseEnsure', 00H ; `string'
CONST	ENDS
;	COMDAT ?__LINE__Var@?0??OnRequestTakeBaseEnsure@CDataBaseEngineSink@@IAE_NKPAXGAAK@Z@4JA
_DATA	SEGMENT
?__LINE__Var@?0??OnRequestTakeBaseEnsure@CDataBaseEngineSink@@IAE_NKPAXGAAK@Z@4JA DD 011a3H ; `CDataBaseEngineSink::OnRequestTakeBaseEnsure'::`1'::__LINE__Var
_DATA	ENDS
;	COMDAT ??_C@_0CN@BCCKMKAP@CDataBaseEngineSink?3?3OnRequestL@
CONST	SEGMENT
??_C@_0CN@BCCKMKAP@CDataBaseEngineSink?3?3OnRequestL@ DB 'CDataBaseEngine'
	DB	'Sink::OnRequestLoadBaseEnsure', 00H		; `string'
CONST	ENDS
;	COMDAT ??_C@_0P@BGLILAFC@ScoreCondition@
CONST	SEGMENT
??_C@_0P@BGLILAFC@ScoreCondition@ DB 'ScoreCondition', 00H ; `string'
CONST	ENDS
;	COMDAT ??_C@_0M@HIMENDIH@ScoreAmount@
CONST	SEGMENT
??_C@_0M@HIMENDIH@ScoreAmount@ DB 'ScoreAmount', 00H	; `string'
CONST	ENDS
;	COMDAT ??_C@_09DDOCKIAO@TakeTimes@
CONST	SEGMENT
??_C@_09DDOCKIAO@TakeTimes@ DB 'TakeTimes', 00H		; `string'
CONST	ENDS
;	COMDAT ??_C@_0BG@GGEFBDLG@GSP_GP_LoadBaseEnsure@
CONST	SEGMENT
??_C@_0BG@GGEFBDLG@GSP_GP_LoadBaseEnsure@ DB 'GSP_GP_LoadBaseEnsure', 00H ; `string'
CONST	ENDS
;	COMDAT ??_C@_0CK@GAMLIDKL@CDataBaseEngineSink?3?3OnRequestC@
CONST	SEGMENT
??_C@_0CK@GAMLIDKL@CDataBaseEngineSink?3?3OnRequestC@ DB 'CDataBaseEngine'
	DB	'Sink::OnRequestCheckInDone', 00H		; `string'
CONST	ENDS
;	COMDAT ??_C@_0BD@OMHLIIHM@GSP_GR_CheckInDone@
CONST	SEGMENT
??_C@_0BD@OMHLIIHM@GSP_GR_CheckInDone@ DB 'GSP_GR_CheckInDone', 00H ; `string'
CONST	ENDS
;	COMDAT ?__LINE__Var@?0??OnRequestCheckInDone@CDataBaseEngineSink@@IAE_NKPAXGAAK@Z@4JA
_DATA	SEGMENT
?__LINE__Var@?0??OnRequestCheckInDone@CDataBaseEngineSink@@IAE_NKPAXGAAK@Z@4JA DD 01125H ; `CDataBaseEngineSink::OnRequestCheckInDone'::`1'::__LINE__Var
_DATA	ENDS
;	COMDAT ??_C@_0CP@LGOLPPK@CDataBaseEngineSink?3?3OnRequestC@
CONST	SEGMENT
??_C@_0CP@LGOLPPK@CDataBaseEngineSink?3?3OnRequestC@ DB 'CDataBaseEngineS'
	DB	'ink::OnRequestCheckInQueryInfo', 00H	; `string'
CONST	ENDS
;	COMDAT ??_C@_0P@BNJFDPAO@TodayCheckIned@
CONST	SEGMENT
??_C@_0P@BNJFDPAO@TodayCheckIned@ DB 'TodayCheckIned', 00H ; `string'
CONST	ENDS
;	COMDAT ??_C@_0L@GCLIEHGN@SeriesDate@
CONST	SEGMENT
??_C@_0L@GCLIEHGN@SeriesDate@ DB 'SeriesDate', 00H	; `string'
CONST	ENDS
;	COMDAT ??_C@_0BI@LFNCLCOF@GSP_GR_CheckInQueryInfo@
CONST	SEGMENT
??_C@_0BI@LFNCLCOF@GSP_GR_CheckInQueryInfo@ DB 'GSP_GR_CheckInQueryInfo', 00H ; `string'
CONST	ENDS
;	COMDAT ?__LINE__Var@?0??OnRequestCheckInQueryInfo@CDataBaseEngineSink@@IAE_NKPAXGAAK@Z@4JA
_DATA	SEGMENT
?__LINE__Var@?0??OnRequestCheckInQueryInfo@CDataBaseEngineSink@@IAE_NKPAXGAAK@Z@4JA DD 010daH ; `CDataBaseEngineSink::OnRequestCheckInQueryInfo'::`1'::__LINE__Var
_DATA	ENDS
;	COMDAT ??_C@_0CK@FNAFJCAP@CDataBaseEngineSink?3?3OnRequestL@
CONST	SEGMENT
??_C@_0CK@FNAFJCAP@CDataBaseEngineSink?3?3OnRequestL@ DB 'CDataBaseEngine'
	DB	'Sink::OnRequestLoadCheckIn', 00H		; `string'
CONST	ENDS
;	COMDAT ??_C@_0L@CKLPJIFO@RewardGold@
CONST	SEGMENT
??_C@_0L@CKLPJIFO@RewardGold@ DB 'RewardGold', 00H	; `string'
CONST	ENDS
;	COMDAT ??_C@_05IDMPJLID@DayID@
CONST	SEGMENT
??_C@_05IDMPJLID@DayID@ DB 'DayID', 00H			; `string'
CONST	ENDS
;	COMDAT ??_C@_0BJ@DMKNJEFD@GSP_GP_LoadCheckInReward@
CONST	SEGMENT
??_C@_0BJ@DMKNJEFD@GSP_GP_LoadCheckInReward@ DB 'GSP_GP_LoadCheckInReward'
	DB	00H						; `string'
CONST	ENDS
;	COMDAT ??_C@_0CM@GBGIFFIB@CDataBaseEngineSink?3?3OnRequestM@
CONST	SEGMENT
??_C@_0CM@GBGIFFIB@CDataBaseEngineSink?3?3OnRequestM@ DB 'CDataBaseEngine'
	DB	'Sink::OnRequestMemberDayGift', 00H		; `string'
CONST	ENDS
;	COMDAT ??_C@_0BF@LPGDHGAC@GSP_GP_MemberDayGift@
CONST	SEGMENT
??_C@_0BF@LPGDHGAC@GSP_GP_MemberDayGift@ DB 'GSP_GP_MemberDayGift', 00H ; `string'
CONST	ENDS
;	COMDAT ?__LINE__Var@?0??OnRequestMemberDayGift@CDataBaseEngineSink@@IAE_NKPAXGAAK@Z@4JA
_DATA	SEGMENT
?__LINE__Var@?0??OnRequestMemberDayGift@CDataBaseEngineSink@@IAE_NKPAXGAAK@Z@4JA DD 01065H ; `CDataBaseEngineSink::OnRequestMemberDayGift'::`1'::__LINE__Var
_DATA	ENDS
;	COMDAT ??_C@_0CP@EGKDDCPM@CDataBaseEngineSink?3?3OnRequestM@
CONST	SEGMENT
??_C@_0CP@EGKDDCPM@CDataBaseEngineSink?3?3OnRequestM@ DB 'CDataBaseEngine'
	DB	'Sink::OnRequestMemberDayPresent', 00H	; `string'
CONST	ENDS
;	COMDAT ??_C@_0BI@IMKLDJBC@GSP_GP_MemberDayPresent@
CONST	SEGMENT
??_C@_0BI@IMKLDJBC@GSP_GP_MemberDayPresent@ DB 'GSP_GP_MemberDayPresent', 00H ; `string'
CONST	ENDS
;	COMDAT ?__LINE__Var@?0??OnRequestMemberDayPresent@CDataBaseEngineSink@@IAE_NKPAXGAAK@Z@4JA
_DATA	SEGMENT
?__LINE__Var@?0??OnRequestMemberDayPresent@CDataBaseEngineSink@@IAE_NKPAXGAAK@Z@4JA DD 0101eH ; `CDataBaseEngineSink::OnRequestMemberDayPresent'::`1'::__LINE__Var
_DATA	ENDS
;	COMDAT ??_C@_0CO@JKBFHBG@CDataBaseEngineSink?3?3OnRequestM@
CONST	SEGMENT
??_C@_0CO@JKBFHBG@CDataBaseEngineSink?3?3OnRequestM@ DB 'CDataBaseEngineS'
	DB	'ink::OnRequestMemberQueryInfo', 00H		; `string'
CONST	ENDS
;	COMDAT ??_C@_05IJGIMMHE@Count@
CONST	SEGMENT
??_C@_05IJGIMMHE@Count@ DB 'Count', 00H			; `string'
CONST	ENDS
;	COMDAT ??_C@_02OLOABKKD@ID@
CONST	SEGMENT
??_C@_02OLOABKKD@ID@ DB 'ID', 00H			; `string'
CONST	ENDS
;	COMDAT ??_C@_0BH@GJOLKKFC@GSP_GP_MemberGiftQuery@
CONST	SEGMENT
??_C@_0BH@GJOLKKFC@GSP_GP_MemberGiftQuery@ DB 'GSP_GP_MemberGiftQuery', 00H ; `string'
CONST	ENDS
;	COMDAT ??_C@_04JCCJDPFC@Gift@
CONST	SEGMENT
??_C@_04JCCJDPFC@Gift@ DB 'Gift', 00H			; `string'
CONST	ENDS
;	COMDAT ??_C@_07FHKFELEN@Present@
CONST	SEGMENT
??_C@_07FHKFELEN@Present@ DB 'Present', 00H		; `string'
CONST	ENDS
;	COMDAT ??_C@_0BH@LLGIDDOH@GSP_GP_MemberQueryInfo@
CONST	SEGMENT
??_C@_0BH@LLGIDDOH@GSP_GP_MemberQueryInfo@ DB 'GSP_GP_MemberQueryInfo', 00H ; `string'
CONST	ENDS
;	COMDAT ?__LINE__Var@?0??OnRequestMemberQueryInfo@CDataBaseEngineSink@@IAE_NKPAXGAAK@Z@4JA
_DATA	SEGMENT
?__LINE__Var@?0??OnRequestMemberQueryInfo@CDataBaseEngineSink@@IAE_NKPAXGAAK@Z@4JA DD 0fbeH ; `CDataBaseEngineSink::OnRequestMemberQueryInfo'::`1'::__LINE__Var
_DATA	ENDS
;	COMDAT ??_C@_0DC@HJENCEP@CDataBaseEngineSink?3?3OnRequestM@
CONST	SEGMENT
??_C@_0DC@HJENCEP@CDataBaseEngineSink?3?3OnRequestM@ DB 'CDataBaseEngineS'
	DB	'ink::OnRequestMemberLoadParameter', 00H	; `string'
CONST	ENDS
;	COMDAT ??_C@_0L@CCDAGKKN@MemberName@
CONST	SEGMENT
??_C@_0L@CCDAGKKN@MemberName@ DB 'MemberName', 00H	; `string'
CONST	ENDS
;	COMDAT ??_C@_09MEAFLDAC@DayGiftID@
CONST	SEGMENT
??_C@_09MEAFLDAC@DayGiftID@ DB 'DayGiftID', 00H		; `string'
CONST	ENDS
;	COMDAT ??_C@_0L@FNLEFFGF@DayPresent@
CONST	SEGMENT
??_C@_0L@FNLEFFGF@DayPresent@ DB 'DayPresent', 00H	; `string'
CONST	ENDS
;	COMDAT ??_C@_0L@HCDIDBBG@InsureRate@
CONST	SEGMENT
??_C@_0L@HCDIDBBG@InsureRate@ DB 'InsureRate', 00H	; `string'
CONST	ENDS
;	COMDAT ??_C@_08KNMAEPIC@ShopRate@
CONST	SEGMENT
??_C@_08KNMAEPIC@ShopRate@ DB 'ShopRate', 00H		; `string'
CONST	ENDS
;	COMDAT ??_C@_08BPIBDNIC@TaskRate@
CONST	SEGMENT
??_C@_08BPIBDNIC@TaskRate@ DB 'TaskRate', 00H		; `string'
CONST	ENDS
;	COMDAT ??_C@_0BL@DDFCIKG@GSP_GP_LoadMemberParameter@
CONST	SEGMENT
??_C@_0BL@DDFCIKG@GSP_GP_LoadMemberParameter@ DB 'GSP_GP_LoadMemberParame'
	DB	'ter', 00H					; `string'
CONST	ENDS
;	COMDAT ?__LINE__Var@?0??OnRequestSendTrumpet@CDataBaseEngineSink@@IAE_NKPAXGAAK@Z@4JA
_DATA	SEGMENT
?__LINE__Var@?0??OnRequestSendTrumpet@CDataBaseEngineSink@@IAE_NKPAXGAAK@Z@4JA DD 0f46H ; `CDataBaseEngineSink::OnRequestSendTrumpet'::`1'::__LINE__Var
_DATA	ENDS
;	COMDAT ??_C@_0CO@EGJFHNDI@CDataBaseEngineSink?3?3OnRequestL@
CONST	SEGMENT
??_C@_0CO@EGJFHNDI@CDataBaseEngineSink?3?3OnRequestL@ DB 'CDataBaseEngine'
	DB	'Sink::OnRequestLoadGameTrumpet', 00H	; `string'
CONST	ENDS
;	COMDAT ??_C@_0M@DKNNIFDG@TyphonCount@
CONST	SEGMENT
??_C@_0M@DKNNIFDG@TyphonCount@ DB 'TyphonCount', 00H	; `string'
CONST	ENDS
;	COMDAT ??_C@_0N@ONHPIBJK@TrumpetCount@
CONST	SEGMENT
??_C@_0N@ONHPIBJK@TrumpetCount@ DB 'TrumpetCount', 00H	; `string'
CONST	ENDS
;	COMDAT ??_C@_0BL@BLNKNDGL@GSP_GP_LoadUserGameTrumpet@
CONST	SEGMENT
??_C@_0BL@BLNKNDGL@GSP_GP_LoadUserGameTrumpet@ DB 'GSP_GP_LoadUserGameTru'
	DB	'mpet', 00H					; `string'
CONST	ENDS
;	COMDAT ?__LINE__Var@?0??OnRequestLoadGameTrumpet@CDataBaseEngineSink@@IAE_NKPAXGAAK@Z@4JA
_DATA	SEGMENT
?__LINE__Var@?0??OnRequestLoadGameTrumpet@CDataBaseEngineSink@@IAE_NKPAXGAAK@Z@4JA DD 0f15H ; `CDataBaseEngineSink::OnRequestLoadGameTrumpet'::`1'::__LINE__Var
_DATA	ENDS
;	COMDAT ??_C@_0CL@HMGPGIKL@CDataBaseEngineSink?3?3OnRequestL@
CONST	SEGMENT
??_C@_0CL@HMGPGIKL@CDataBaseEngineSink?3?3OnRequestL@ DB 'CDataBaseEngine'
	DB	'Sink::OnRequestLoadGameBuff', 00H		; `string'
CONST	ENDS
;	COMDAT ??_C@_0CB@MPNELBLF@UseResultsValidTimeScoreMultipl@
CONST	SEGMENT
??_C@_0CB@MPNELBLF@UseResultsValidTimeScoreMultipl@ DB 'UseResultsValidTi'
	DB	'meScoreMultiple', 00H			; `string'
CONST	ENDS
;	COMDAT ??_C@_0BI@NBGDCCNF@GSP_GP_LoadUserGameBuff@
CONST	SEGMENT
??_C@_0BI@NBGDCCNF@GSP_GP_LoadUserGameBuff@ DB 'GSP_GP_LoadUserGameBuff', 00H ; `string'
CONST	ENDS
;	COMDAT ?__LINE__Var@?0??OnRequestLoadGameBuff@CDataBaseEngineSink@@IAE_NKPAXGAAK@Z@4JA
_DATA	SEGMENT
?__LINE__Var@?0??OnRequestLoadGameBuff@CDataBaseEngineSink@@IAE_NKPAXGAAK@Z@4JA DD 0ec8H ; `CDataBaseEngineSink::OnRequestLoadGameBuff'::`1'::__LINE__Var
_DATA	ENDS
;	COMDAT ??_C@_0CN@JNKPIKNE@CDataBaseEngineSink?3?3OnRequestG@
CONST	SEGMENT
??_C@_0CN@JNKPIKNE@CDataBaseEngineSink?3?3OnRequestG@ DB 'CDataBaseEngine'
	DB	'Sink::OnRequestGetSendPresent', 00H		; `string'
CONST	ENDS
;	COMDAT ??_C@_0BG@OJMAFDGN@GSP_GP_GetSendPresent@
CONST	SEGMENT
??_C@_0BG@OJMAFDGN@GSP_GP_GetSendPresent@ DB 'GSP_GP_GetSendPresent', 00H ; `string'
CONST	ENDS
;	COMDAT ??_C@_0M@HCJEDCFO@?$EAszPassword@
CONST	SEGMENT
??_C@_0M@HCJEDCFO@?$EAszPassword@ DB '@szPassword', 00H	; `string'
CONST	ENDS
;	COMDAT ?__LINE__Var@?0??OnRequestGetSendPresent@CDataBaseEngineSink@@IAE_NKPAXGAAK@Z@4JA
_DATA	SEGMENT
?__LINE__Var@?0??OnRequestGetSendPresent@CDataBaseEngineSink@@IAE_NKPAXGAAK@Z@4JA DD 0e7cH ; `CDataBaseEngineSink::OnRequestGetSendPresent'::`1'::__LINE__Var
_DATA	ENDS
;	COMDAT ??_C@_0CO@GBFGHFMF@CDataBaseEngineSink?3?3OnRequestP@
CONST	SEGMENT
??_C@_0CO@GBFGHFMF@CDataBaseEngineSink?3?3OnRequestP@ DB 'CDataBaseEngine'
	DB	'Sink::OnRequestPropertyPresent', 00H	; `string'
CONST	ENDS
;	COMDAT ??_C@_0L@LFENFKP@RecvUserID@
CONST	SEGMENT
??_C@_0L@LFENFKP@RecvUserID@ DB 'RecvUserID', 00H	; `string'
CONST	ENDS
;	COMDAT ??_C@_0BL@FEGBPCHF@GSP_GP_UserSendPresentByID@
CONST	SEGMENT
??_C@_0BL@FEGBPCHF@GSP_GP_UserSendPresentByID@ DB 'GSP_GP_UserSendPresent'
	DB	'ByID', 00H					; `string'
CONST	ENDS
;	COMDAT ??_C@_0CB@GDJHILDF@GSP_GP_UserSendPresentByNickNam@
CONST	SEGMENT
??_C@_0CB@GDJHILDF@GSP_GP_UserSendPresentByNickNam@ DB 'GSP_GP_UserSendPr'
	DB	'esentByNickName', 00H			; `string'
CONST	ENDS
;	COMDAT ??_C@_0BC@MBPNHCPP@?$EAdwReceiverGameID@
CONST	SEGMENT
??_C@_0BC@MBPNHCPP@?$EAdwReceiverGameID@ DB '@dwReceiverGameID', 00H ; `string'
CONST	ENDS
;	COMDAT ??_C@_0BF@FNAOCACP@?$EAstrReceiverNickName@
CONST	SEGMENT
??_C@_0BF@FNAOCACP@?$EAstrReceiverNickName@ DB '@strReceiverNickName', 00H ; `string'
CONST	ENDS
;	COMDAT ?__LINE__Var@?0??OnRequestPropertyPresent@CDataBaseEngineSink@@IAE_NKPAXGAAK@Z@4JA
_DATA	SEGMENT
?__LINE__Var@?0??OnRequestPropertyPresent@CDataBaseEngineSink@@IAE_NKPAXGAAK@Z@4JA DD 0e2bH ; `CDataBaseEngineSink::OnRequestPropertyPresent'::`1'::__LINE__Var
_DATA	ENDS
;	COMDAT ??_C@_0CP@MNEJCLKP@CDataBaseEngineSink?3?3OnRequestQ@
CONST	SEGMENT
??_C@_0CP@MNEJCLKP@CDataBaseEngineSink?3?3OnRequestQ@ DB 'CDataBaseEngine'
	DB	'Sink::OnRequestQuerySendPresent', 00H	; `string'
CONST	ENDS
;	COMDAT ??_C@_08FBPGFENK@SendTime@
CONST	SEGMENT
??_C@_08FBPGFENK@SendTime@ DB 'SendTime', 00H		; `string'
CONST	ENDS
;	COMDAT ??_C@_09FJMCAKIG@PropCount@
CONST	SEGMENT
??_C@_09FJMCAKIG@PropCount@ DB 'PropCount', 00H		; `string'
CONST	ENDS
;	COMDAT ??_C@_06JMKPBJLC@PropID@
CONST	SEGMENT
??_C@_06JMKPBJLC@PropID@ DB 'PropID', 00H		; `string'
CONST	ENDS
;	COMDAT ??_C@_0P@KKCLPPAI@ReceiverUserID@
CONST	SEGMENT
??_C@_0P@KKCLPPAI@ReceiverUserID@ DB 'ReceiverUserID', 00H ; `string'
CONST	ENDS
;	COMDAT ??_C@_0BI@HEBCAEB@GSP_GP_QuerySendPresent@
CONST	SEGMENT
??_C@_0BI@HEBCAEB@GSP_GP_QuerySendPresent@ DB 'GSP_GP_QuerySendPresent', 00H ; `string'
CONST	ENDS
;	COMDAT ?__LINE__Var@?0??OnRequestQuerySendPresent@CDataBaseEngineSink@@IAE_NKPAXGAAK@Z@4JA
_DATA	SEGMENT
?__LINE__Var@?0??OnRequestQuerySendPresent@CDataBaseEngineSink@@IAE_NKPAXGAAK@Z@4JA DD 0ddeH ; `CDataBaseEngineSink::OnRequestQuerySendPresent'::`1'::__LINE__Var
_DATA	ENDS
;	COMDAT ??_C@_0CK@BKABFICD@CDataBaseEngineSink?3?3OnRequestP@
CONST	SEGMENT
??_C@_0CK@BKABFICD@CDataBaseEngineSink?3?3OnRequestP@ DB 'CDataBaseEngine'
	DB	'Sink::OnRequestPropertyUse', 00H		; `string'
CONST	ENDS
;	COMDAT ??_C@_07NBJKJPHI@UseTime@
CONST	SEGMENT
??_C@_07NBJKJPHI@UseTime@ DB 'UseTime', 00H		; `string'
CONST	ENDS
;	COMDAT ??_C@_0P@DNPEGDJL@RemainderCount@
CONST	SEGMENT
??_C@_0P@DNPEGDJL@RemainderCount@ DB 'RemainderCount', 00H ; `string'
CONST	ENDS
;	COMDAT ??_C@_0BE@IAAJAJPN@UseResultsValidTime@
CONST	SEGMENT
??_C@_0BE@IAAJAJPN@UseResultsValidTime@ DB 'UseResultsValidTime', 00H ; `string'
CONST	ENDS
;	COMDAT ??_C@_0M@CENFFNCO@ServiceArea@
CONST	SEGMENT
??_C@_0M@CENFFNCO@ServiceArea@ DB 'ServiceArea', 00H	; `string'
CONST	ENDS
;	COMDAT ??_C@_0P@IDLLGLHM@GSP_GP_UseProp@
CONST	SEGMENT
??_C@_0P@IDLLGLHM@GSP_GP_UseProp@ DB 'GSP_GP_UseProp', 00H ; `string'
CONST	ENDS
;	COMDAT ??_C@_0N@PEPMKFNO@?$EAdwPropCount@
CONST	SEGMENT
??_C@_0N@PEPMKFNO@?$EAdwPropCount@ DB '@dwPropCount', 00H ; `string'
CONST	ENDS
;	COMDAT ??_C@_09NLOJOBDL@?$EAdwPropID@
CONST	SEGMENT
??_C@_09NLOJOBDL@?$EAdwPropID@ DB '@dwPropID', 00H	; `string'
CONST	ENDS
;	COMDAT ??_C@_0O@GOEJDCMG@?$EAdwRecvUserID@
CONST	SEGMENT
??_C@_0O@GOEJDCMG@?$EAdwRecvUserID@ DB '@dwRecvUserID', 00H ; `string'
CONST	ENDS
;	COMDAT ?__LINE__Var@?0??OnRequestPropertyUse@CDataBaseEngineSink@@IAE_NKPAXGAAK@Z@4JA
_DATA	SEGMENT
?__LINE__Var@?0??OnRequestPropertyUse@CDataBaseEngineSink@@IAE_NKPAXGAAK@Z@4JA DD 0d8fH ; `CDataBaseEngineSink::OnRequestPropertyUse'::`1'::__LINE__Var
_DATA	ENDS
;	COMDAT ??_C@_0CP@HIDLIGIE@CDataBaseEngineSink?3?3OnRequestP@
CONST	SEGMENT
??_C@_0CP@HIDLIGIE@CDataBaseEngineSink?3?3OnRequestP@ DB 'CDataBaseEngine'
	DB	'Sink::OnRequestPropertyBackpack', 00H	; `string'
CONST	ENDS
;	COMDAT ??_C@_0BA@KPHOLCOF@RegulationsInfo@
CONST	SEGMENT
??_C@_0BA@KPHOLCOF@RegulationsInfo@ DB 'RegulationsInfo', 00H ; `string'
CONST	ENDS
;	COMDAT ??_C@_04FABLJDN@Name@
CONST	SEGMENT
??_C@_04FABLJDN@Name@ DB 'Name', 00H			; `string'
CONST	ENDS
;	COMDAT ??_C@_0P@JNHGNONC@UseResultsGold@
CONST	SEGMENT
??_C@_0P@JNHGNONC@UseResultsGold@ DB 'UseResultsGold', 00H ; `string'
CONST	ENDS
;	COMDAT ??_C@_0P@ENAAGJJA@RecvLoveLiness@
CONST	SEGMENT
??_C@_0P@ENAAGJJA@RecvLoveLiness@ DB 'RecvLoveLiness', 00H ; `string'
CONST	ENDS
;	COMDAT ??_C@_0P@FDPEKBGF@SendLoveLiness@
CONST	SEGMENT
??_C@_0P@FDPEKBGF@SendLoveLiness@ DB 'SendLoveLiness', 00H ; `string'
CONST	ENDS
;	COMDAT ??_C@_09OBCHOID@Recommend@
CONST	SEGMENT
??_C@_09OBCHOID@Recommend@ DB 'Recommend', 00H		; `string'
CONST	ENDS
;	COMDAT ??_C@_07JEPNMDKI@UseArea@
CONST	SEGMENT
??_C@_07JEPNMDKI@UseArea@ DB 'UseArea', 00H		; `string'
CONST	ENDS
;	COMDAT ??_C@_04BDAIJBLK@Kind@
CONST	SEGMENT
??_C@_04BDAIJBLK@Kind@ DB 'Kind', 00H			; `string'
CONST	ENDS
;	COMDAT ??_C@_07MDLPIIFA@GoodsID@
CONST	SEGMENT
??_C@_07MDLPIIFA@GoodsID@ DB 'GoodsID', 00H		; `string'
CONST	ENDS
;	COMDAT ??_C@_0L@IGEJKFCI@GoodsCount@
CONST	SEGMENT
??_C@_0L@IGEJKFCI@GoodsCount@ DB 'GoodsCount', 00H	; `string'
CONST	ENDS
;	COMDAT ??_C@_0BJ@NINJDHMC@GSP_GP_QueryUserBackpack@
CONST	SEGMENT
??_C@_0BJ@NINJDHMC@GSP_GP_QueryUserBackpack@ DB 'GSP_GP_QueryUserBackpack'
	DB	00H						; `string'
CONST	ENDS
;	COMDAT ??_C@_07PAELCOKM@?$EAdwKind@
CONST	SEGMENT
??_C@_07PAELCOKM@?$EAdwKind@ DB '@dwKind', 00H		; `string'
CONST	ENDS
;	COMDAT ?__LINE__Var@?0??OnRequestPropertyBackpack@CDataBaseEngineSink@@IAE_NKPAXGAAK@Z@4JA
_DATA	SEGMENT
?__LINE__Var@?0??OnRequestPropertyBackpack@CDataBaseEngineSink@@IAE_NKPAXGAAK@Z@4JA DD 0d24H ; `CDataBaseEngineSink::OnRequestPropertyBackpack'::`1'::__LINE__Var
_DATA	ENDS
;	COMDAT ??_C@_0CO@MPKMHGDB@CDataBaseEngineSink?3?3OnRequestB@
CONST	SEGMENT
??_C@_0CO@MPKMHGDB@CDataBaseEngineSink?3?3OnRequestB@ DB 'CDataBaseEngine'
	DB	'Sink::OnRequestBuyGameProperty', 00H	; `string'
CONST	ENDS
;	COMDAT ??_C@_04FOIHINLL@Cash@
CONST	SEGMENT
??_C@_04FOIHINLL@Cash@ DB 'Cash', 00H			; `string'
CONST	ENDS
;	COMDAT ??_C@_0L@KHHLPNPI@LoveLiness@
CONST	SEGMENT
??_C@_0L@KHHLPNPI@LoveLiness@ DB 'LoveLiness', 00H	; `string'
CONST	ENDS
;	COMDAT ??_C@_09LPJHEOCP@UserMedal@
CONST	SEGMENT
??_C@_09LPJHEOCP@UserMedal@ DB 'UserMedal', 00H		; `string'
CONST	ENDS
;	COMDAT ??_C@_04PABHPHAJ@Gold@
CONST	SEGMENT
??_C@_04PABHPHAJ@Gold@ DB 'Gold', 00H			; `string'
CONST	ENDS
;	COMDAT ??_C@_09GGKKDIOI@ItemCount@
CONST	SEGMENT
??_C@_09GGKKDIOI@ItemCount@ DB 'ItemCount', 00H		; `string'
CONST	ENDS
;	COMDAT ??_C@_0L@FPKPEDKI@PropertyID@
CONST	SEGMENT
??_C@_0L@FPKPEDKI@PropertyID@ DB 'PropertyID', 00H	; `string'
CONST	ENDS
;	COMDAT ??_C@_0BD@IGKNKDED@GSP_GP_BuyProperty@
CONST	SEGMENT
??_C@_0BD@IGKNKDED@GSP_GP_BuyProperty@ DB 'GSP_GP_BuyProperty', 00H ; `string'
CONST	ENDS
;	COMDAT ??_C@_0P@EDMHJKLC@?$EAiDiamondCount@
CONST	SEGMENT
??_C@_0P@EDMHJKLC@?$EAiDiamondCount@ DB '@iDiamondCount', 00H ; `string'
CONST	ENDS
;	COMDAT ??_C@_0O@DKLCKEMB@?$EAdwPropertyID@
CONST	SEGMENT
??_C@_0O@DKLCKEMB@?$EAdwPropertyID@ DB '@dwPropertyID', 00H ; `string'
CONST	ENDS
;	COMDAT ?__LINE__Var@?0??OnRequestBuyGameProperty@CDataBaseEngineSink@@IAE_NKPAXGAAK@Z@4JA
_DATA	SEGMENT
?__LINE__Var@?0??OnRequestBuyGameProperty@CDataBaseEngineSink@@IAE_NKPAXGAAK@Z@4JA DD 0cd1H ; `CDataBaseEngineSink::OnRequestBuyGameProperty'::`1'::__LINE__Var
_DATA	ENDS
;	COMDAT ??_C@_08JJGOBBMF@GameMode@
CONST	SEGMENT
??_C@_08JJGOBBMF@GameMode@ DB 'GameMode', 00H		; `string'
CONST	ENDS
;	COMDAT ??_C@_0P@MBIIKCNO@DrawCountLimit@
CONST	SEGMENT
??_C@_0P@MBIIKCNO@DrawCountLimit@ DB 'DrawCountLimit', 00H ; `string'
CONST	ENDS
;	COMDAT ??_C@_0O@DDOJCLEH@DrawTimeLimit@
CONST	SEGMENT
??_C@_0O@DDOJCLEH@DrawTimeLimit@ DB 'DrawTimeLimit', 00H ; `string'
CONST	ENDS
;	COMDAT ??_C@_08MILKFGPP@IniScore@
CONST	SEGMENT
??_C@_08MILKFGPP@IniScore@ DB 'IniScore', 00H		; `string'
CONST	ENDS
;	COMDAT ??_C@_0BP@BLHAELOH@GSP_MB_GetPersonalFeeParameter@
CONST	SEGMENT
??_C@_0BP@BLHAELOH@GSP_MB_GetPersonalFeeParameter@ DB 'GSP_MB_GetPersonal'
	DB	'FeeParameter', 00H				; `string'
CONST	ENDS
;	COMDAT ??_C@_0DA@CFJDFJBA@?$CFs?5?5?5GSP_GS_LoadPersonalRoomPar@
CONST	SEGMENT
??_C@_0DA@CFJDFJBA@?$CFs?5?5?5GSP_GS_LoadPersonalRoomPar@ DB '%s   GSP_GS'
	DB	'_LoadPersonalRoomParameter ', 0b4H, 0edH, 0ceH, 0f3H, ' = %d', 00H ; `string'
CONST	ENDS
;	COMDAT ??_C@_0DE@KBOJGAM@CDataBaseEngineSink?3?3OnRequestL@
CONST	SEGMENT
??_C@_0DE@KBOJGAM@CDataBaseEngineSink?3?3OnRequestL@ DB 'CDataBaseEngineS'
	DB	'ink::OnRequestLoadPersonalParameter', 00H	; `string'
CONST	ENDS
;	COMDAT ??_C@_0M@OHDGOHJM@EndFreeTime@
CONST	SEGMENT
??_C@_0M@OHDGOHJM@EndFreeTime@ DB 'EndFreeTime', 00H	; `string'
CONST	ENDS
;	COMDAT ??_C@_0O@DEEAMCAI@BeginFreeTime@
CONST	SEGMENT
??_C@_0O@DEEAMCAI@BeginFreeTime@ DB 'BeginFreeTime', 00H ; `string'
CONST	ENDS
;	COMDAT ??_C@_0BM@CMLNFFIM@TimeNotBeginAfterCreateRoom@
CONST	SEGMENT
??_C@_0BM@CMLNFFIM@TimeNotBeginAfterCreateRoom@ DB 'TimeNotBeginAfterCrea'
	DB	'teRoom', 00H				; `string'
CONST	ENDS
;	COMDAT ??_C@_0BB@EFKEMBID@TimeNotBeginGame@
CONST	SEGMENT
??_C@_0BB@EFKEMBID@TimeNotBeginGame@ DB 'TimeNotBeginGame', 00H ; `string'
CONST	ENDS
;	COMDAT ??_C@_0BB@BHHEMCMJ@TimeOffLineCount@
CONST	SEGMENT
??_C@_0BB@BHHEMCMJ@TimeOffLineCount@ DB 'TimeOffLineCount', 00H ; `string'
CONST	ENDS
;	COMDAT ??_C@_0BE@NHDBBOLF@TimeAfterBeginCount@
CONST	SEGMENT
??_C@_0BE@NHDBBOLF@TimeAfterBeginCount@ DB 'TimeAfterBeginCount', 00H ; `string'
CONST	ENDS
;	COMDAT ??_C@_0O@FDPMPBME@PlayTurnCount@
CONST	SEGMENT
??_C@_0O@FDPMPBME@PlayTurnCount@ DB 'PlayTurnCount', 00H ; `string'
CONST	ENDS
;	COMDAT ??_C@_0O@FAGABJFM@PlayTimeLimit@
CONST	SEGMENT
??_C@_0O@FAGABJFM@PlayTimeLimit@ DB 'PlayTimeLimit', 00H ; `string'
CONST	ENDS
;	COMDAT ??_C@_0P@LNMJOPEM@CanCreateCount@
CONST	SEGMENT
??_C@_0P@LNMJOPEM@CanCreateCount@ DB 'CanCreateCount', 00H ; `string'
CONST	ENDS
;	COMDAT ??_C@_0N@CNCFIDBJ@MaxCellScore@
CONST	SEGMENT
??_C@_0N@CNCFIDBJ@MaxCellScore@ DB 'MaxCellScore', 00H	; `string'
CONST	ENDS
;	COMDAT ??_C@_09BBGKJOKD@MaxPeople@
CONST	SEGMENT
??_C@_09BBGKJOKD@MaxPeople@ DB 'MaxPeople', 00H		; `string'
CONST	ENDS
;	COMDAT ??_C@_09BAGGAEBH@MinPeople@
CONST	SEGMENT
??_C@_09BAGGAEBH@MinPeople@ DB 'MinPeople', 00H		; `string'
CONST	ENDS
;	COMDAT ??_C@_0BA@GCOMLPGF@PersonalRoomTax@
CONST	SEGMENT
??_C@_0BA@GCOMLPGF@PersonalRoomTax@ DB 'PersonalRoomTax', 00H ; `string'
CONST	ENDS
;	COMDAT ??_C@_0CB@MMPODBFJ@GSP_GS_LoadPersonalRoomParamete@
CONST	SEGMENT
??_C@_0CB@MMPODBFJ@GSP_GS_LoadPersonalRoomParamete@ DB 'GSP_GS_LoadPerson'
	DB	'alRoomParameter', 00H			; `string'
CONST	ENDS
;	COMDAT ??_C@_0CK@LFPKHGBF@CDataBaseEngineSink?3?3OnRequsetD@
CONST	SEGMENT
??_C@_0CK@LFPKHGBF@CDataBaseEngineSink?3?3OnRequsetD@ DB 'CDataBaseEngine'
	DB	'Sink::OnRequsetDissumeRoom', 00H		; `string'
CONST	ENDS
;	COMDAT ??_C@_0M@HLPFMBJA@DissumeDate@
CONST	SEGMENT
??_C@_0M@HLPFMBJA@DissumeDate@ DB 'DissumeDate', 00H	; `string'
CONST	ENDS
;	COMDAT ??_C@_0BL@PABMBFJD@GSP_GR_DissumePersonalRoom@
CONST	SEGMENT
??_C@_0BL@PABMBFJD@GSP_GR_DissumePersonalRoom@ DB 'GSP_GR_DissumePersonal'
	DB	'Room', 00H					; `string'
CONST	ENDS
;	COMDAT ??_C@_0BE@NAHDLGHP@?$EAcbPersonalRoomInfo@
CONST	SEGMENT
??_C@_0BE@NAHDLGHP@?$EAcbPersonalRoomInfo@ DB '@cbPersonalRoomInfo', 00H ; `string'
CONST	ENDS
;	COMDAT ??_C@_0L@KCMGAPDJ@?$EAlTaxCount@
CONST	SEGMENT
??_C@_0L@KCMGAPDJ@?$EAlTaxCount@ DB '@lTaxCount', 00H	; `string'
CONST	ENDS
;	COMDAT ??_C@_0N@JHGDNOFD@?$EAlRoomHostID@
CONST	SEGMENT
??_C@_0N@JHGDNOFD@?$EAlRoomHostID@ DB '@lRoomHostID', 00H ; `string'
CONST	ENDS
;	COMDAT ?__LINE__Var@?0??OnRequsetDissumeRoom@CDataBaseEngineSink@@IAE_NKPAXGAAK@Z@4JA
_DATA	SEGMENT
?__LINE__Var@?0??OnRequsetDissumeRoom@CDataBaseEngineSink@@IAE_NKPAXGAAK@Z@4JA DD 0bbeH ; `CDataBaseEngineSink::OnRequsetDissumeRoom'::`1'::__LINE__Var
_DATA	ENDS
;	COMDAT ??_C@_0DE@HCHBNBGO@CDataBaseEngineSink?3?3OnRequestH@
CONST	SEGMENT
??_C@_0DE@HCHBNBGO@CDataBaseEngineSink?3?3OnRequestH@ DB 'CDataBaseEngine'
	DB	'Sink::OnRequestHostCancelCreateTable', 00H	; `string'
CONST	ENDS
;	COMDAT ?__LINE__Var@?0??OnRequestHostCancelCreateTable@CDataBaseEngineSink@@IAE_NKPAXGAAK@Z@4JA
_DATA	SEGMENT
?__LINE__Var@?0??OnRequestHostCancelCreateTable@CDataBaseEngineSink@@IAE_NKPAXGAAK@Z@4JA DD 0b7bH ; `CDataBaseEngineSink::OnRequestHostCancelCreateTable'::`1'::__LINE__Var
_DATA	ENDS
;	COMDAT ??_C@_0CK@JELDIHFB@CDataBaseEngineSink?3?3OnRequestP@
CONST	SEGMENT
??_C@_0CK@JELDIHFB@CDataBaseEngineSink?3?3OnRequestP@ DB 'CDataBaseEngine'
	DB	'Sink::OnRequestPayRoomCard', 00H		; `string'
CONST	ENDS
;	COMDAT ??_C@_08EPCALAFM@RoomCard@
CONST	SEGMENT
??_C@_08EPCALAFM@RoomCard@ DB 'RoomCard', 00H		; `string'
CONST	ENDS
;	COMDAT ??_C@_0BD@IFAMGNPA@GSP_GS_PayRoomCard@
CONST	SEGMENT
??_C@_0BD@IFAMGNPA@GSP_GS_PayRoomCard@ DB 'GSP_GS_PayRoomCard', 00H ; `string'
CONST	ENDS
;	COMDAT ??_C@_09DFDKDCCP@?$EAdwKindID@
CONST	SEGMENT
??_C@_09DFDKDCCP@?$EAdwKindID@ DB '@dwKindID', 00H	; `string'
CONST	ENDS
;	COMDAT ?__LINE__Var@?0??OnRequestPayRoomCard@CDataBaseEngineSink@@IAE_NKPAXGAAK@Z@4JA
_DATA	SEGMENT
?__LINE__Var@?0??OnRequestPayRoomCard@CDataBaseEngineSink@@IAE_NKPAXGAAK@Z@4JA DD 0b37H ; `CDataBaseEngineSink::OnRequestPayRoomCard'::`1'::__LINE__Var
_DATA	ENDS
;	COMDAT ??_C@_0DA@COMBFLNK@CDataBaseEngineSink?3?3OnRequestC@
CONST	SEGMENT
??_C@_0DA@COMBFLNK@CDataBaseEngineSink?3?3OnRequestC@ DB 'CDataBaseEngine'
	DB	'Sink::OnRequestCancelCreateTable', 00H	; `string'
CONST	ENDS
;	COMDAT ??_C@_0BH@PEGJEIJA@GSP_GR_CreateTableQuit@
CONST	SEGMENT
??_C@_0BH@PEGJEIJA@GSP_GR_CreateTableQuit@ DB 'GSP_GR_CreateTableQuit', 00H ; `string'
CONST	ENDS
;	COMDAT ?__LINE__Var@?0??OnRequestCancelCreateTable@CDataBaseEngineSink@@IAE_NKPAXGAAK@Z@4JA
_DATA	SEGMENT
?__LINE__Var@?0??OnRequestCancelCreateTable@CDataBaseEngineSink@@IAE_NKPAXGAAK@Z@4JA DD 0aebH ; `CDataBaseEngineSink::OnRequestCancelCreateTable'::`1'::__LINE__Var
_DATA	ENDS
;	COMDAT ??_C@_0CP@JCNEGAGN@CDataBaseEngineSink?3?3OnRequestR@
CONST	SEGMENT
??_C@_0CP@JCNEGAGN@CDataBaseEngineSink?3?3OnRequestR@ DB 'CDataBaseEngine'
	DB	'Sink::OnRequestRoomTaskProgress', 00H	; `string'
CONST	ENDS
;	COMDAT ??_C@_0BH@MBIPJJG@GSP_GR_TaskForwardRoom@
CONST	SEGMENT
??_C@_0BH@MBIPJJG@GSP_GR_TaskForwardRoom@ DB 'GSP_GR_TaskForwardRoom', 00H ; `string'
CONST	ENDS
;	COMDAT ?__LINE__Var@?0??OnRequestRoomTaskProgress@CDataBaseEngineSink@@IAE_NKPAXGAAK@Z@4JA
_DATA	SEGMENT
?__LINE__Var@?0??OnRequestRoomTaskProgress@CDataBaseEngineSink@@IAE_NKPAXGAAK@Z@4JA DD 0acaH ; `CDataBaseEngineSink::OnRequestRoomTaskProgress'::`1'::__LINE__Var
_DATA	ENDS
;	COMDAT ??_C@_0DB@JIAHEJMG@CDataBaseEngineSink?3?3OnRequsetI@
CONST	SEGMENT
??_C@_0DB@JIAHEJMG@CDataBaseEngineSink?3?3OnRequsetI@ DB 'CDataBaseEngine'
	DB	'Sink::OnRequsetInsertCreateRecord', 00H	; `string'
CONST	ENDS
;	COMDAT ??_C@_0BK@ENDDICLC@GSP_GR_InsertCreateRecord@
CONST	SEGMENT
??_C@_0BK@ENDDICLC@GSP_GR_InsertCreateRecord@ DB 'GSP_GR_InsertCreateReco'
	DB	'rd', 00H					; `string'
CONST	ENDS
;	COMDAT ??_C@_0P@BMDMNKBP@?$EAlNeedRoomCard@
CONST	SEGMENT
??_C@_0P@BMDMNKBP@?$EAlNeedRoomCard@ DB '@lNeedRoomCard', 00H ; `string'
CONST	ENDS
;	COMDAT ??_C@_0P@OCGFALPI@?$EAstrClientAddr@
CONST	SEGMENT
??_C@_0P@OCGFALPI@?$EAstrClientAddr@ DB '@strClientAddr', 00H ; `string'
CONST	ENDS
;	COMDAT ??_C@_0L@BGJPFBDC@?$EAdwRoomTax@
CONST	SEGMENT
??_C@_0L@BGJPFBDC@?$EAdwRoomTax@ DB '@dwRoomTax', 00H	; `string'
CONST	ENDS
;	COMDAT ??_C@_0BG@OPNEFMMB@?$EAwJoinGamePeopleCount@
CONST	SEGMENT
??_C@_0BG@OPNEFMMB@?$EAwJoinGamePeopleCount@ DB '@wJoinGamePeopleCount', 00H ; `string'
CONST	ENDS
;	COMDAT ??_C@_0M@LDFFBNFK@?$EAszPassWord@
CONST	SEGMENT
??_C@_0M@LDFFBNFK@?$EAszPassWord@ DB '@szPassWord', 00H	; `string'
CONST	ENDS
;	COMDAT ??_C@_0M@DOJONCPP@?$EAlCellScore@
CONST	SEGMENT
??_C@_0M@DOJONCPP@?$EAlCellScore@ DB '@lCellScore', 00H	; `string'
CONST	ENDS
;	COMDAT ?__LINE__Var@?0??OnRequsetInsertCreateRecord@CDataBaseEngineSink@@IAE_NKPAXGAAK@Z@4JA
_DATA	SEGMENT
?__LINE__Var@?0??OnRequsetInsertCreateRecord@CDataBaseEngineSink@@IAE_NKPAXGAAK@Z@4JA DD 0a9bH ; `CDataBaseEngineSink::OnRequsetInsertCreateRecord'::`1'::__LINE__Var
_DATA	ENDS
;	COMDAT ??_C@_0CK@PCMMMPAB@CDataBaseEngineSink?3?3OnRequestC@
CONST	SEGMENT
??_C@_0CK@PCMMMPAB@CDataBaseEngineSink?3?3OnRequestC@ DB 'CDataBaseEngine'
	DB	'Sink::OnRequestCreateTable', 00H		; `string'
CONST	ENDS
;	COMDAT ??_C@_0M@FCOEMICD@RoomCardFee@
CONST	SEGMENT
??_C@_0M@FCOEMICD@RoomCardFee@ DB 'RoomCardFee', 00H	; `string'
CONST	ENDS
;	COMDAT ??_C@_0L@HLGININO@IsJoinGame@
CONST	SEGMENT
??_C@_0L@HLGININO@IsJoinGame@ DB 'IsJoinGame', 00H	; `string'
CONST	ENDS
;	COMDAT ??_C@_07KLLDCFGI@Diamond@
CONST	SEGMENT
??_C@_07KLLDCFGI@Diamond@ DB 'Diamond', 00H		; `string'
CONST	ENDS
;	COMDAT ??_C@_09GKKCFNJE@dCurBeans@
CONST	SEGMENT
??_C@_09GKKCFNJE@dCurBeans@ DB 'dCurBeans', 00H		; `string'
CONST	ENDS
;	COMDAT ??_C@_0BG@JHMIPHGJ@GSP_GR_CreateTableFee@
CONST	SEGMENT
??_C@_0BG@JHMIPHGJ@GSP_GR_CreateTableFee@ DB 'GSP_GR_CreateTableFee', 00H ; `string'
CONST	ENDS
;	COMDAT ??_C@_0L@MKMNCOIA@?$EAcbPayMode@
CONST	SEGMENT
??_C@_0L@MKMNCOIA@?$EAcbPayMode@ DB '@cbPayMode', 00H	; `string'
CONST	ENDS
;	COMDAT ??_C@_0BB@GNGNCHP@?$EAdwDrawTimeLimit@
CONST	SEGMENT
??_C@_0BB@GNGNCHP@?$EAdwDrawTimeLimit@ DB '@dwDrawTimeLimit', 00H ; `string'
CONST	ENDS
;	COMDAT ??_C@_0BC@OJLPCFLJ@?$EAdwDrawCountLimit@
CONST	SEGMENT
??_C@_0BC@OJLPCFLJ@?$EAdwDrawCountLimit@ DB '@dwDrawCountLimit', 00H ; `string'
CONST	ENDS
;	COMDAT ??_C@_0M@EODDKFON@?$EAdwServerID@
CONST	SEGMENT
??_C@_0M@EODDKFON@?$EAdwServerID@ DB '@dwServerID', 00H	; `string'
CONST	ENDS
;	COMDAT ?__LINE__Var@?0??OnRequestCreateTable@CDataBaseEngineSink@@IAE_NKPAXGAAK@Z@4JA
_DATA	SEGMENT
?__LINE__Var@?0??OnRequestCreateTable@CDataBaseEngineSink@@IAE_NKPAXGAAK@Z@4JA DD 0a32H ; `CDataBaseEngineSink::OnRequestCreateTable'::`1'::__LINE__Var
_DATA	ENDS
;	COMDAT ??_C@_0DD@DEOIJNJG@CDataBaseEngineSink?3?3OnRequestE@
CONST	SEGMENT
??_C@_0DD@DEOIJNJG@CDataBaseEngineSink?3?3OnRequestE@ DB 'CDataBaseEngine'
	DB	'Sink::OnRequestExchangeScoreByBeans', 00H	; `string'
CONST	ENDS
;	COMDAT ??_C@_0BM@FAODDGDD@GSP_GR_ExchangeScoreByBeans@
CONST	SEGMENT
??_C@_0BM@FAODDGDD@GSP_GR_ExchangeScoreByBeans@ DB 'GSP_GR_ExchangeScoreB'
	DB	'yBeans', 00H				; `string'
CONST	ENDS
;	COMDAT ??_C@_0P@NEGIICO@?$EAExchangeBeans@
CONST	SEGMENT
??_C@_0P@NEGIICO@?$EAExchangeBeans@ DB '@ExchangeBeans', 00H ; `string'
CONST	ENDS
;	COMDAT ?__LINE__Var@?0??OnRequestExchangeScoreByBeans@CDataBaseEngineSink@@IAE_NKPAXGAAK@Z@4JA
_DATA	SEGMENT
?__LINE__Var@?0??OnRequestExchangeScoreByBeans@CDataBaseEngineSink@@IAE_NKPAXGAAK@Z@4JA DD 09d4H ; `CDataBaseEngineSink::OnRequestExchangeScoreByBeans'::`1'::__LINE__Var
_DATA	ENDS
;	COMDAT ??_C@_0DD@ECBHPPGI@CDataBaseEngineSink?3?3OnRequestE@
CONST	SEGMENT
??_C@_0DD@ECBHPPGI@CDataBaseEngineSink?3?3OnRequestE@ DB 'CDataBaseEngine'
	DB	'Sink::OnRequestExchangeScoreByIngot', 00H	; `string'
CONST	ENDS
;	COMDAT ??_C@_09OGDCJHIC@CurrIngot@
CONST	SEGMENT
??_C@_09OGDCJHIC@CurrIngot@ DB 'CurrIngot', 00H		; `string'
CONST	ENDS
;	COMDAT ??_C@_0L@LFJDLFHC@CurrInsure@
CONST	SEGMENT
??_C@_0L@LFJDLFHC@CurrInsure@ DB 'CurrInsure', 00H	; `string'
CONST	ENDS
;	COMDAT ??_C@_0BM@CGBMFEMN@GSP_GR_ExchangeScoreByIngot@
CONST	SEGMENT
??_C@_0BM@CGBMFEMN@GSP_GR_ExchangeScoreByIngot@ DB 'GSP_GR_ExchangeScoreB'
	DB	'yIngot', 00H				; `string'
CONST	ENDS
;	COMDAT ??_C@_0P@HLLJOKNA@?$EAExchangeIngot@
CONST	SEGMENT
??_C@_0P@HLLJOKNA@?$EAExchangeIngot@ DB '@ExchangeIngot', 00H ; `string'
CONST	ENDS
;	COMDAT ?__LINE__Var@?0??OnRequestExchangeScoreByIngot@CDataBaseEngineSink@@IAE_NKPAXGAAK@Z@4JA
_DATA	SEGMENT
?__LINE__Var@?0??OnRequestExchangeScoreByIngot@CDataBaseEngineSink@@IAE_NKPAXGAAK@Z@4JA DD 0976H ; `CDataBaseEngineSink::OnRequestExchangeScoreByIngot'::`1'::__LINE__Var
_DATA	ENDS
;	COMDAT ??_C@_0BJ@OKFJHKJC@?J?$PN?$LO?$NN?$LP?b?R?l?$LD?$KD?$KD?$KM?G?k?I?T?$LK?s?T?Y?J?T?$KD?$KB@
CONST	SEGMENT
??_C@_0BJ@OKFJHKJC@?J?$PN?$LO?$NN?$LP?b?R?l?$LD?$KD?$KD?$KM?G?k?I?T?$LK?s?T?Y?J?T?$KD?$KB@ DB 0caH
	DB	0fdH, 0beH, 0ddH, 0bfH, 0e2H, 0d2H, 0ecH, 0b3H, 0a3H, 0a3H, 0acH
	DB	0c7H, 0ebH, 0c9H, 0d4H, 0baH, 0f3H, 0d4H, 0d9H, 0caH, 0d4H, 0a3H
	DB	0a1H, 00H					; `string'
CONST	ENDS
;	COMDAT ??_C@_0CN@OJICCHJJ@CDataBaseEngineSink?3?3OnRequestP@
CONST	SEGMENT
??_C@_0CN@OJICCHJJ@CDataBaseEngineSink?3?3OnRequestP@ DB 'CDataBaseEngine'
	DB	'Sink::OnRequestPurchaseMember', 00H		; `string'
CONST	ENDS
;	COMDAT ??_C@_0M@CEFIIFDG@MemberOrder@
CONST	SEGMENT
??_C@_0M@CEFIIFDG@MemberOrder@ DB 'MemberOrder', 00H	; `string'
CONST	ENDS
;	COMDAT ??_C@_09JAMNPFHM@CurrBeans@
CONST	SEGMENT
??_C@_09JAMNPFHM@CurrBeans@ DB 'CurrBeans', 00H		; `string'
CONST	ENDS
;	COMDAT ??_C@_09DOHMEJBC@CurrScore@
CONST	SEGMENT
??_C@_09DOHMEJBC@CurrScore@ DB 'CurrScore', 00H		; `string'
CONST	ENDS
;	COMDAT ??_C@_0BG@EJNBGOOH@GSP_GR_PurchaseMember@
CONST	SEGMENT
??_C@_0BG@EJNBGOOH@GSP_GR_PurchaseMember@ DB 'GSP_GR_PurchaseMember', 00H ; `string'
CONST	ENDS
;	COMDAT ??_C@_0BC@HOOFHDNN@?$EAstrNotifyContent@
CONST	SEGMENT
??_C@_0BC@HOOFHDNN@?$EAstrNotifyContent@ DB '@strNotifyContent', 00H ; `string'
CONST	ENDS
;	COMDAT ??_C@_0O@OLHLCFMI@?$EAPurchaseTime@
CONST	SEGMENT
??_C@_0O@OLHLCFMI@?$EAPurchaseTime@ DB '@PurchaseTime', 00H ; `string'
CONST	ENDS
;	COMDAT ??_C@_0P@NMLGPOCE@?$EAcbMemberOrder@
CONST	SEGMENT
??_C@_0P@NMLGPOCE@?$EAcbMemberOrder@ DB '@cbMemberOrder', 00H ; `string'
CONST	ENDS
;	COMDAT ?__LINE__Var@?0??OnRequestPurchaseMember@CDataBaseEngineSink@@IAE_NKPAXGAAK@Z@4JA
_DATA	SEGMENT
?__LINE__Var@?0??OnRequestPurchaseMember@CDataBaseEngineSink@@IAE_NKPAXGAAK@Z@4JA DD 0917H ; `CDataBaseEngineSink::OnRequestPurchaseMember'::`1'::__LINE__Var
_DATA	ENDS
;	COMDAT ??_C@_0CM@BKBDBKAO@CDataBaseEngineSink?3?3OnRequestT@
CONST	SEGMENT
??_C@_0CM@BKBDBKAO@CDataBaseEngineSink?3?3OnRequestT@ DB 'CDataBaseEngine'
	DB	'Sink::OnRequestTaskQueryInfo', 00H		; `string'
CONST	ENDS
;	COMDAT ??_C@_08DAJBHHIG@Progress@
CONST	SEGMENT
??_C@_08DAJBHHIG@Progress@ DB 'Progress', 00H		; `string'
CONST	ENDS
;	COMDAT ??_C@_0L@LCDMJJED@TaskStatus@
CONST	SEGMENT
??_C@_0L@LCDMJJED@TaskStatus@ DB 'TaskStatus', 00H	; `string'
CONST	ENDS
;	COMDAT ??_C@_0BF@CABIHPIH@GSP_GR_QueryTaskInfo@
CONST	SEGMENT
??_C@_0BF@CABIHPIH@GSP_GR_QueryTaskInfo@ DB 'GSP_GR_QueryTaskInfo', 00H ; `string'
CONST	ENDS
;	COMDAT ?__LINE__Var@?0??OnRequestTaskQueryInfo@CDataBaseEngineSink@@IAE_NKPAXGAAK@Z@4JA
_DATA	SEGMENT
?__LINE__Var@?0??OnRequestTaskQueryInfo@CDataBaseEngineSink@@IAE_NKPAXGAAK@Z@4JA DD 08b1H ; `CDataBaseEngineSink::OnRequestTaskQueryInfo'::`1'::__LINE__Var
_DATA	ENDS
;	COMDAT ??_C@_0CL@CDCPNHPC@CDataBaseEngineSink?3?3OnRequestL@
CONST	SEGMENT
??_C@_0CL@CDCPNHPC@CDataBaseEngineSink?3?3OnRequestL@ DB 'CDataBaseEngine'
	DB	'Sink::OnRequestLoadTaskList', 00H		; `string'
CONST	ENDS
;	COMDAT ??_C@_0BA@OIFLMOIG@TaskDescription@
CONST	SEGMENT
??_C@_0BA@OIFLMOIG@TaskDescription@ DB 'TaskDescription', 00H ; `string'
CONST	ENDS
;	COMDAT ??_C@_08KJGGNPPO@TaskName@
CONST	SEGMENT
??_C@_08KJGGNPPO@TaskName@ DB 'TaskName', 00H		; `string'
CONST	ENDS
;	COMDAT ??_C@_0BB@DNBEKFCN@MemberAwardMedal@
CONST	SEGMENT
??_C@_0BB@DNBEKFCN@MemberAwardMedal@ DB 'MemberAwardMedal', 00H ; `string'
CONST	ENDS
;	COMDAT ??_C@_0BA@NOFNIKCO@MemberAwardGold@
CONST	SEGMENT
??_C@_0BA@NOFNIKCO@MemberAwardGold@ DB 'MemberAwardGold', 00H ; `string'
CONST	ENDS
;	COMDAT ??_C@_0BD@NAANCEAG@StandardAwardMedal@
CONST	SEGMENT
??_C@_0BD@NAANCEAG@StandardAwardMedal@ DB 'StandardAwardMedal', 00H ; `string'
CONST	ENDS
;	COMDAT ??_C@_0BC@HPFPIBKO@StandardAwardGold@
CONST	SEGMENT
??_C@_0BC@HPFPIBKO@StandardAwardGold@ DB 'StandardAwardGold', 00H ; `string'
CONST	ENDS
;	COMDAT ??_C@_09OHILOMME@TimeLimit@
CONST	SEGMENT
??_C@_09OHILOMME@TimeLimit@ DB 'TimeLimit', 00H		; `string'
CONST	ENDS
;	COMDAT ??_C@_07EDCJMCFO@Innings@
CONST	SEGMENT
??_C@_07EDCJMCFO@Innings@ DB 'Innings', 00H		; `string'
CONST	ENDS
;	COMDAT ??_C@_06HCHMMKKG@KindID@
CONST	SEGMENT
??_C@_06HCHMMKKG@KindID@ DB 'KindID', 00H		; `string'
CONST	ENDS
;	COMDAT ??_C@_08LFHMHDM@UserType@
CONST	SEGMENT
??_C@_08LFHMHDM@UserType@ DB 'UserType', 00H		; `string'
CONST	ENDS
;	COMDAT ??_C@_08CGFBPIO@TaskType@
CONST	SEGMENT
??_C@_08CGFBPIO@TaskType@ DB 'TaskType', 00H		; `string'
CONST	ENDS
;	COMDAT ??_C@_06MPKKOHIJ@TaskID@
CONST	SEGMENT
??_C@_06MPKKOHIJ@TaskID@ DB 'TaskID', 00H		; `string'
CONST	ENDS
;	COMDAT ??_C@_0BE@DLBECAIO@GSP_GR_LoadTaskList@
CONST	SEGMENT
??_C@_0BE@DLBECAIO@GSP_GR_LoadTaskList@ DB 'GSP_GR_LoadTaskList', 00H ; `string'
CONST	ENDS
;	COMDAT ??_C@_0CJ@GIKKGGBO@CDataBaseEngineSink?3?3OnRequestT@
CONST	SEGMENT
??_C@_0CJ@GIKKGGBO@CDataBaseEngineSink?3?3OnRequestT@ DB 'CDataBaseEngine'
	DB	'Sink::OnRequestTaskReward', 00H		; `string'
CONST	ENDS
;	COMDAT ??_C@_05OOEBDDIB@Ingot@
CONST	SEGMENT
??_C@_05OOEBDDIB@Ingot@ DB 'Ingot', 00H			; `string'
CONST	ENDS
;	COMDAT ??_C@_0BC@LNNECEA@GSP_GR_TaskReward@
CONST	SEGMENT
??_C@_0BC@LNNECEA@GSP_GR_TaskReward@ DB 'GSP_GR_TaskReward', 00H ; `string'
CONST	ENDS
;	COMDAT ?__LINE__Var@?0??OnRequestTaskReward@CDataBaseEngineSink@@IAE_NKPAXGAAK@Z@4JA
_DATA	SEGMENT
?__LINE__Var@?0??OnRequestTaskReward@CDataBaseEngineSink@@IAE_NKPAXGAAK@Z@4JA DD 07f8H ; `CDataBaseEngineSink::OnRequestTaskReward'::`1'::__LINE__Var
_DATA	ENDS
;	COMDAT ??_C@_0CH@BNKPKJJC@CDataBaseEngineSink?3?3OnRequestT@
CONST	SEGMENT
??_C@_0CH@BNKPKJJC@CDataBaseEngineSink?3?3OnRequestT@ DB 'CDataBaseEngine'
	DB	'Sink::OnRequestTaskTake', 00H		; `string'
CONST	ENDS
;	COMDAT ??_C@_0BA@OEKNDNNG@GSP_GR_TaskTake@
CONST	SEGMENT
??_C@_0BA@OEKNDNNG@GSP_GR_TaskTake@ DB 'GSP_GR_TaskTake', 00H ; `string'
CONST	ENDS
;	COMDAT ?__LINE__Var@?0??OnRequestTaskTake@CDataBaseEngineSink@@IAE_NKPAXGAAK@Z@4JA
_DATA	SEGMENT
?__LINE__Var@?0??OnRequestTaskTake@CDataBaseEngineSink@@IAE_NKPAXGAAK@Z@4JA DD 07acH ; `CDataBaseEngineSink::OnRequestTaskTake'::`1'::__LINE__Var
_DATA	ENDS
;	COMDAT ??_C@_0CJ@ILCACMNL@CDataBaseEngineSink?3?3OnRequestT@
CONST	SEGMENT
??_C@_0CJ@ILCACMNL@CDataBaseEngineSink?3?3OnRequestT@ DB 'CDataBaseEngine'
	DB	'Sink::OnRequestTaskGiveUp', 00H		; `string'
CONST	ENDS
;	COMDAT ??_C@_0BC@OIFHAIIF@GSP_GR_TaskGiveUp@
CONST	SEGMENT
??_C@_0BC@OIFHAIIF@GSP_GR_TaskGiveUp@ DB 'GSP_GR_TaskGiveUp', 00H ; `string'
CONST	ENDS
;	COMDAT ??_C@_08MMMILHNH@?$EAwTaskID@
CONST	SEGMENT
??_C@_08MMMILHNH@?$EAwTaskID@ DB '@wTaskID', 00H	; `string'
CONST	ENDS
;	COMDAT ?__LINE__Var@?0??OnRequestTaskGiveUp@CDataBaseEngineSink@@IAE_NKPAXGAAK@Z@4JA
_DATA	SEGMENT
?__LINE__Var@?0??OnRequestTaskGiveUp@CDataBaseEngineSink@@IAE_NKPAXGAAK@Z@4JA DD 0760H ; `CDataBaseEngineSink::OnRequestTaskGiveUp'::`1'::__LINE__Var
_DATA	ENDS
;	COMDAT ??_C@_0DE@LJCJKDHO@CDataBaseEngineSink?3?3OnRequestQ@
CONST	SEGMENT
??_C@_0DE@LJCJKDHO@CDataBaseEngineSink?3?3OnRequestQ@ DB 'CDataBaseEngine'
	DB	'Sink::OnRequestQueryTransferUserInfo', 00H	; `string'
CONST	ENDS
;	COMDAT ??_C@_08HAKGLFIM@Accounts@
CONST	SEGMENT
??_C@_08HAKGLFIM@Accounts@ DB 'Accounts', 00H		; `string'
CONST	ENDS
;	COMDAT ??_C@_06KGJDDPAK@GameID@
CONST	SEGMENT
??_C@_06KGJDDPAK@GameID@ DB 'GameID', 00H		; `string'
CONST	ENDS
;	COMDAT ??_C@_0BN@BPPBPPLC@GSP_GR_QueryTransferUserInfo@
CONST	SEGMENT
??_C@_0BN@BPPBPPLC@GSP_GR_QueryTransferUserInfo@ DB 'GSP_GR_QueryTransfer'
	DB	'UserInfo', 00H				; `string'
CONST	ENDS
;	COMDAT ??_C@_0O@KBJAEAIJ@?$EAcbByNickName@
CONST	SEGMENT
??_C@_0O@KBJAEAIJ@?$EAcbByNickName@ DB '@cbByNickName', 00H ; `string'
CONST	ENDS
;	COMDAT ?__LINE__Var@?0??OnRequestQueryTransferUserInfo@CDataBaseEngineSink@@IAE_NKPAXGAAK@Z@4JA
_DATA	SEGMENT
?__LINE__Var@?0??OnRequestQueryTransferUserInfo@CDataBaseEngineSink@@IAE_NKPAXGAAK@Z@4JA DD 071fH ; `CDataBaseEngineSink::OnRequestQueryTransferUserInfo'::`1'::__LINE__Var
_DATA	ENDS
;	COMDAT ??_C@_0CO@GLIMKCDC@CDataBaseEngineSink?3?3OnRequestQ@
CONST	SEGMENT
??_C@_0CO@GLIMKCDC@CDataBaseEngineSink?3?3OnRequestQ@ DB 'CDataBaseEngine'
	DB	'Sink::OnRequestQueryInsureInfo', 00H	; `string'
CONST	ENDS
;	COMDAT ??_C@_09BHJIBPFI@UserRight@
CONST	SEGMENT
??_C@_09BHJIBPFI@UserRight@ DB 'UserRight', 00H		; `string'
CONST	ENDS
;	COMDAT ??_C@_0BF@DFIKLPAJ@TransferPrerequisite@
CONST	SEGMENT
??_C@_0BF@DFIKLPAJ@TransferPrerequisite@ DB 'TransferPrerequisite', 00H ; `string'
CONST	ENDS
;	COMDAT ??_C@_06CMJCJHGM@Insure@
CONST	SEGMENT
??_C@_06CMJCJHGM@Insure@ DB 'Insure', 00H		; `string'
CONST	ENDS
;	COMDAT ??_C@_05DGAPONBB@Score@
CONST	SEGMENT
??_C@_05DGAPONBB@Score@ DB 'Score', 00H			; `string'
CONST	ENDS
;	COMDAT ??_C@_08BHBELLIH@ServerID@
CONST	SEGMENT
??_C@_08BHBELLIH@ServerID@ DB 'ServerID', 00H		; `string'
CONST	ENDS
;	COMDAT ??_C@_0BG@EHBBDEOF@RevenueTransferMember@
CONST	SEGMENT
??_C@_0BG@EHBBDEOF@RevenueTransferMember@ DB 'RevenueTransferMember', 00H ; `string'
CONST	ENDS
;	COMDAT ??_C@_0BA@HIHDDCHL@RevenueTransfer@
CONST	SEGMENT
??_C@_0BA@HIHDDCHL@RevenueTransfer@ DB 'RevenueTransfer', 00H ; `string'
CONST	ENDS
;	COMDAT ??_C@_0M@KJEDGHOP@RevenueTake@
CONST	SEGMENT
??_C@_0M@KJEDGHOP@RevenueTake@ DB 'RevenueTake', 00H	; `string'
CONST	ENDS
;	COMDAT ??_C@_0P@DBBFLPKL@EnjoinTransfer@
CONST	SEGMENT
??_C@_0P@DBBFLPKL@EnjoinTransfer@ DB 'EnjoinTransfer', 00H ; `string'
CONST	ENDS
;	COMDAT ??_C@_0BL@GGGEOIGJ@GSP_GR_QueryUserInsureInfo@
CONST	SEGMENT
??_C@_0BL@GGGEOIGJ@GSP_GR_QueryUserInsureInfo@ DB 'GSP_GR_QueryUserInsure'
	DB	'Info', 00H					; `string'
CONST	ENDS
;	COMDAT ?__LINE__Var@?0??OnRequestQueryInsureInfo@CDataBaseEngineSink@@IAE_NKPAXGAAK@Z@4JA
_DATA	SEGMENT
?__LINE__Var@?0??OnRequestQueryInsureInfo@CDataBaseEngineSink@@IAE_NKPAXGAAK@Z@4JA DD 06d1H ; `CDataBaseEngineSink::OnRequestQueryInsureInfo'::`1'::__LINE__Var
_DATA	ENDS
;	COMDAT ??_C@_0DA@JNEBPLMI@CDataBaseEngineSink?3?3OnRequestU@
CONST	SEGMENT
??_C@_0DA@JNEBPLMI@CDataBaseEngineSink?3?3OnRequestU@ DB 'CDataBaseEngine'
	DB	'Sink::OnRequestUserTransferScore', 00H	; `string'
CONST	ENDS
;	COMDAT ??_C@_0BJ@BAPHEKDA@GSP_GR_UserTransferScore@
CONST	SEGMENT
??_C@_0BJ@BAPHEKDA@GSP_GR_UserTransferScore@ DB 'GSP_GR_UserTransferScore'
	DB	00H						; `string'
CONST	ENDS
;	COMDAT ??_C@_0BA@MNCPGFOB@?$EAstrTransRemark@
CONST	SEGMENT
??_C@_0BA@MNCPGFOB@?$EAstrTransRemark@ DB '@strTransRemark', 00H ; `string'
CONST	ENDS
;	COMDAT ??_C@_09OBNFMHID@?$EAdwGameID@
CONST	SEGMENT
??_C@_09OBNFMHID@?$EAdwGameID@ DB '@dwGameID', 00H	; `string'
CONST	ENDS
;	COMDAT ??_C@_0BA@MGGCKEGC@?$EAlTransferScore@
CONST	SEGMENT
??_C@_0BA@MGGCKEGC@?$EAlTransferScore@ DB '@lTransferScore', 00H ; `string'
CONST	ENDS
;	COMDAT ?__LINE__Var@?0??OnRequestUserTransferScore@CDataBaseEngineSink@@IAE_NKPAXGAAK@Z@4JA
_DATA	SEGMENT
?__LINE__Var@?0??OnRequestUserTransferScore@CDataBaseEngineSink@@IAE_NKPAXGAAK@Z@4JA DD 0694H ; `CDataBaseEngineSink::OnRequestUserTransferScore'::`1'::__LINE__Var
_DATA	ENDS
;	COMDAT ??_C@_0CM@LBBFKHEG@CDataBaseEngineSink?3?3OnRequestU@
CONST	SEGMENT
??_C@_0CM@LBBFKHEG@CDataBaseEngineSink?3?3OnRequestU@ DB 'CDataBaseEngine'
	DB	'Sink::OnRequestUserTakeScore', 00H		; `string'
CONST	ENDS
;	COMDAT ??_C@_0BF@OILOKBKG@GSP_GR_UserTakeScore@
CONST	SEGMENT
??_C@_0BF@OILOKBKG@GSP_GR_UserTakeScore@ DB 'GSP_GR_UserTakeScore', 00H ; `string'
CONST	ENDS
;	COMDAT ??_C@_0M@DJFNFFKI@?$EAlTakeScore@
CONST	SEGMENT
??_C@_0M@DJFNFFKI@?$EAlTakeScore@ DB '@lTakeScore', 00H	; `string'
CONST	ENDS
;	COMDAT ?__LINE__Var@?0??OnRequestUserTakeScore@CDataBaseEngineSink@@IAE_NKPAXGAAK@Z@4JA
_DATA	SEGMENT
?__LINE__Var@?0??OnRequestUserTakeScore@CDataBaseEngineSink@@IAE_NKPAXGAAK@Z@4JA DD 0659H ; `CDataBaseEngineSink::OnRequestUserTakeScore'::`1'::__LINE__Var
_DATA	ENDS
;	COMDAT ??_C@_0CM@LEHHJIMF@CDataBaseEngineSink?3?3OnRequestU@
CONST	SEGMENT
??_C@_0CM@LEHHJIMF@CDataBaseEngineSink?3?3OnRequestU@ DB 'CDataBaseEngine'
	DB	'Sink::OnRequestUserSaveScore', 00H		; `string'
CONST	ENDS
;	COMDAT ??_C@_0BF@ONNMJOCF@GSP_GR_UserSaveScore@
CONST	SEGMENT
??_C@_0BF@ONNMJOCF@GSP_GR_UserSaveScore@ DB 'GSP_GR_UserSaveScore', 00H ; `string'
CONST	ENDS
;	COMDAT ??_C@_0M@DMDPGKCL@?$EAlSaveScore@
CONST	SEGMENT
??_C@_0M@DMDPGKCL@?$EAlSaveScore@ DB '@lSaveScore', 00H	; `string'
CONST	ENDS
;	COMDAT ?__LINE__Var@?0??OnRequestUserSaveScore@CDataBaseEngineSink@@IAE_NKPAXGAAK@Z@4JA
_DATA	SEGMENT
?__LINE__Var@?0??OnRequestUserSaveScore@CDataBaseEngineSink@@IAE_NKPAXGAAK@Z@4JA DD 061fH ; `CDataBaseEngineSink::OnRequestUserSaveScore'::`1'::__LINE__Var
_DATA	ENDS
;	COMDAT ??_C@_0CD@MJBPILMG@?S?I?S?Z?J?$PN?$LO?$NN?$LP?b?$LC?Y?W?w?R?l?$LD?$KD?$KD?$KM?G?k?D?z?I?T?$LK?s?V?X?J@
CONST	SEGMENT
??_C@_0CD@MJBPILMG@?S?I?S?Z?J?$PN?$LO?$NN?$LP?b?$LC?Y?W?w?R?l?$LD?$KD?$KD?$KM?G?k?D?z?I?T?$LK?s?V?X?J@ DB 0d3H
	DB	0c9H, 0d3H, 0daH, 0caH, 0fdH, 0beH, 0ddH, 0bfH, 0e2H, 0b2H, 0d9H
	DB	0d7H, 0f7H, 0d2H, 0ecH, 0b3H, 0a3H, 0a3H, 0acH, 0c7H, 0ebH, 0c4H
	DB	0faH, 0c9H, 0d4H, 0baH, 0f3H, 0d6H, 0d8H, 0caH, 0d4H, 0a3H, 0a1H
	DB	00H						; `string'
CONST	ENDS
;	COMDAT ??_C@_0CP@PANKEFEH@CDataBaseEngineSink?3?3OnRequestU@
CONST	SEGMENT
??_C@_0CP@PANKEFEH@CDataBaseEngineSink?3?3OnRequestU@ DB 'CDataBaseEngine'
	DB	'Sink::OnRequestUserEnableInsure', 00H	; `string'
CONST	ENDS
;	COMDAT ??_C@_0BI@EOGGEIFI@GSP_GR_UserEnableInsure@
CONST	SEGMENT
??_C@_0BI@EOGGEIFI@GSP_GR_UserEnableInsure@ DB 'GSP_GR_UserEnableInsure', 00H ; `string'
CONST	ENDS
;	COMDAT ??_C@_0P@EDLCJHLF@?$EAstrInsurePass@
CONST	SEGMENT
??_C@_0P@EDLCJHLF@?$EAstrInsurePass@ DB '@strInsurePass', 00H ; `string'
CONST	ENDS
;	COMDAT ??_C@_0O@JCJPMBHE@?$EAstrLogonPass@
CONST	SEGMENT
??_C@_0O@JCJPMBHE@?$EAstrLogonPass@ DB '@strLogonPass', 00H ; `string'
CONST	ENDS
;	COMDAT ?__LINE__Var@?0??OnRequestUserEnableInsure@CDataBaseEngineSink@@IAE_NKPAXGAAK@Z@4JA
_DATA	SEGMENT
?__LINE__Var@?0??OnRequestUserEnableInsure@CDataBaseEngineSink@@IAE_NKPAXGAAK@Z@4JA DD 05ccH ; `CDataBaseEngineSink::OnRequestUserEnableInsure'::`1'::__LINE__Var
_DATA	ENDS
;	COMDAT ??_C@_0DD@MMLAFNDG@CDataBaseEngineSink?3?3OnRequestL@
CONST	SEGMENT
??_C@_0DD@MMLAFNDG@CDataBaseEngineSink?3?3OnRequestL@ DB 'CDataBaseEngine'
	DB	'Sink::OnRequestLoadAndroidParameter', 00H	; `string'
CONST	ENDS
;	COMDAT ??_C@_0BE@GHJOCJLA@AndroidCountMember5@
CONST	SEGMENT
??_C@_0BE@GHJOCJLA@AndroidCountMember5@ DB 'AndroidCountMember5', 00H ; `string'
CONST	ENDS
;	COMDAT ??_C@_0BE@HOIFBIPB@AndroidCountMember4@
CONST	SEGMENT
??_C@_0BE@HOIFBIPB@AndroidCountMember4@ DB 'AndroidCountMember4', 00H ; `string'
CONST	ENDS
;	COMDAT ??_C@_0BE@DBMEIODG@AndroidCountMember3@
CONST	SEGMENT
??_C@_0BE@DBMEIODG@AndroidCountMember3@ DB 'AndroidCountMember3', 00H ; `string'
CONST	ENDS
;	COMDAT ??_C@_0BE@CINPLPHH@AndroidCountMember2@
CONST	SEGMENT
??_C@_0BE@CINPLPHH@AndroidCountMember2@ DB 'AndroidCountMember2', 00H ; `string'
CONST	ENDS
;	COMDAT ??_C@_0BE@DPCOMLE@AndroidCountMember1@
CONST	SEGMENT
??_C@_0BE@DPCOMLE@AndroidCountMember1@ DB 'AndroidCountMember1', 00H ; `string'
CONST	ENDS
;	COMDAT ??_C@_0BE@BKOJNNPF@AndroidCountMember0@
CONST	SEGMENT
??_C@_0BE@BKOJNNPF@AndroidCountMember0@ DB 'AndroidCountMember0', 00H ; `string'
CONST	ENDS
;	COMDAT ??_C@_0BB@OGJMJIDE@SwitchMaxInnings@
CONST	SEGMENT
??_C@_0BB@OGJMJIDE@SwitchMaxInnings@ DB 'SwitchMaxInnings', 00H ; `string'
CONST	ENDS
;	COMDAT ??_C@_0BB@CKJBODDL@SwitchMinInnings@
CONST	SEGMENT
??_C@_0BB@CKJBODDL@SwitchMinInnings@ DB 'SwitchMinInnings', 00H ; `string'
CONST	ENDS
;	COMDAT ??_C@_0BB@CHLPMCBO@LeaveMaxInterval@
CONST	SEGMENT
??_C@_0BB@CHLPMCBO@LeaveMaxInterval@ DB 'LeaveMaxInterval', 00H ; `string'
CONST	ENDS
;	COMDAT ??_C@_0BB@LHMMNCPE@LeaveMinInterval@
CONST	SEGMENT
??_C@_0BB@LHMMNCPE@LeaveMinInterval@ DB 'LeaveMinInterval', 00H ; `string'
CONST	ENDS
;	COMDAT ??_C@_0BB@LIJAPFIP@EnterMaxInterval@
CONST	SEGMENT
??_C@_0BB@LIJAPFIP@EnterMaxInterval@ DB 'EnterMaxInterval', 00H ; `string'
CONST	ENDS
;	COMDAT ??_C@_0BB@CIODOFGF@EnterMinInterval@
CONST	SEGMENT
??_C@_0BB@CIODOFGF@EnterMinInterval@ DB 'EnterMinInterval', 00H ; `string'
CONST	ENDS
;	COMDAT ??_C@_0N@FKFNHDMB@TakeMaxScore@
CONST	SEGMENT
??_C@_0N@FKFNHDMB@TakeMaxScore@ DB 'TakeMaxScore', 00H	; `string'
CONST	ENDS
;	COMDAT ??_C@_0N@INLGMBIA@TakeMinScore@
CONST	SEGMENT
??_C@_0N@INLGMBIA@TakeMinScore@ DB 'TakeMinScore', 00H	; `string'
CONST	ENDS
;	COMDAT ??_C@_09JGPPHJIC@LeaveTime@
CONST	SEGMENT
??_C@_09JGPPHJIC@LeaveTime@ DB 'LeaveTime', 00H		; `string'
CONST	ENDS
;	COMDAT ??_C@_09JEABEHKK@EnterTime@
CONST	SEGMENT
??_C@_09JEABEHKK@EnterTime@ DB 'EnterTime', 00H		; `string'
CONST	ENDS
;	COMDAT ??_C@_0N@LHJAPBGB@AndroidCount@
CONST	SEGMENT
??_C@_0N@LHJAPBGB@AndroidCount@ DB 'AndroidCount', 00H	; `string'
CONST	ENDS
;	COMDAT ??_C@_0M@CGPIJAFO@ServiceMode@
CONST	SEGMENT
??_C@_0M@CGPIJAFO@ServiceMode@ DB 'ServiceMode', 00H	; `string'
CONST	ENDS
;	COMDAT ??_C@_07IHEJADLP@BatchID@
CONST	SEGMENT
??_C@_07IHEJADLP@BatchID@ DB 'BatchID', 00H		; `string'
CONST	ENDS
;	COMDAT ??_C@_0BM@HFEEKHA@GSP_GR_LoadAndroidConfigure@
CONST	SEGMENT
??_C@_0BM@HFEEKHA@GSP_GR_LoadAndroidConfigure@ DB 'GSP_GR_LoadAndroidConf'
	DB	'igure', 00H					; `string'
CONST	ENDS
;	COMDAT ?__LINE__Var@?0??OnRequestLoadAndroidParameter@CDataBaseEngineSink@@IAE_NKPAXGAAK@Z@4JA
_DATA	SEGMENT
?__LINE__Var@?0??OnRequestLoadAndroidParameter@CDataBaseEngineSink@@IAE_NKPAXGAAK@Z@4JA DD 0578H ; `CDataBaseEngineSink::OnRequestLoadAndroidParameter'::`1'::__LINE__Var
_DATA	ENDS
;	COMDAT ??_C@_0CO@KOKOIFGC@CDataBaseEngineSink?3?3OnRequestL@
CONST	SEGMENT
??_C@_0CO@KOKOIFGC@CDataBaseEngineSink?3?3OnRequestL@ DB 'CDataBaseEngine'
	DB	'Sink::OnRequestLoadAndroidUser', 00H	; `string'
CONST	ENDS
;	COMDAT ??_C@_09GHCLGGMH@LogonPass@
CONST	SEGMENT
??_C@_09GHCLGGMH@LogonPass@ DB 'LogonPass', 00H		; `string'
CONST	ENDS
;	COMDAT ??_C@_06OFHCDFJK@UserID@
CONST	SEGMENT
??_C@_06OFHCDFJK@UserID@ DB 'UserID', 00H		; `string'
CONST	ENDS
;	COMDAT ??_C@_0BH@BJLDIKBA@GSP_GR_LoadAndroidUser@
CONST	SEGMENT
??_C@_0BH@BJLDIKBA@GSP_GR_LoadAndroidUser@ DB 'GSP_GR_LoadAndroidUser', 00H ; `string'
CONST	ENDS
;	COMDAT ??_C@_0BH@EAHLFBNA@?$EAdwAndroidCountMember5@
CONST	SEGMENT
??_C@_0BH@EAHLFBNA@?$EAdwAndroidCountMember5@ DB '@dwAndroidCountMember5', 00H ; `string'
CONST	ENDS
;	COMDAT ??_C@_0BH@FJGAGAJB@?$EAdwAndroidCountMember4@
CONST	SEGMENT
??_C@_0BH@FJGAGAJB@?$EAdwAndroidCountMember4@ DB '@dwAndroidCountMember4', 00H ; `string'
CONST	ENDS
;	COMDAT ??_C@_0BH@BGCBPGFG@?$EAdwAndroidCountMember3@
CONST	SEGMENT
??_C@_0BH@BGCBPGFG@?$EAdwAndroidCountMember3@ DB '@dwAndroidCountMember3', 00H ; `string'
CONST	ENDS
;	COMDAT ??_C@_0BH@PDKMHBH@?$EAdwAndroidCountMember2@
CONST	SEGMENT
??_C@_0BH@PDKMHBH@?$EAdwAndroidCountMember2@ DB '@dwAndroidCountMember2', 00H ; `string'
CONST	ENDS
;	COMDAT ??_C@_0BH@CEBHJENE@?$EAdwAndroidCountMember1@
CONST	SEGMENT
??_C@_0BH@CEBHJENE@?$EAdwAndroidCountMember1@ DB '@dwAndroidCountMember1', 00H ; `string'
CONST	ENDS
;	COMDAT ??_C@_0BH@DNAMKFJF@?$EAdwAndroidCountMember0@
CONST	SEGMENT
??_C@_0BH@DNAMKFJF@?$EAdwAndroidCountMember0@ DB '@dwAndroidCountMember0', 00H ; `string'
CONST	ENDS
;	COMDAT ??_C@_0BA@DNMBDDEJ@?$EAdwAndroidCount@
CONST	SEGMENT
??_C@_0BA@DNMBDDEJ@?$EAdwAndroidCount@ DB '@dwAndroidCount', 00H ; `string'
CONST	ENDS
;	COMDAT ??_C@_0L@BDGKHOMD@?$EAdwBatchID@
CONST	SEGMENT
??_C@_0L@BDGKHOMD@?$EAdwBatchID@ DB '@dwBatchID', 00H	; `string'
CONST	ENDS
;	COMDAT ?__LINE__Var@?0??OnRequestLoadAndroidUser@CDataBaseEngineSink@@IAE_NKPAXGAAK@Z@4JA
_DATA	SEGMENT
?__LINE__Var@?0??OnRequestLoadAndroidUser@CDataBaseEngineSink@@IAE_NKPAXGAAK@Z@4JA DD 0525H ; `CDataBaseEngineSink::OnRequestLoadAndroidUser'::`1'::__LINE__Var
_DATA	ENDS
;	COMDAT ??_C@_0CN@LJMNCEOE@CDataBaseEngineSink?3?3OnRequestL@
CONST	SEGMENT
??_C@_0CN@LJMNCEOE@CDataBaseEngineSink?3?3OnRequestL@ DB 'CDataBaseEngine'
	DB	'Sink::OnRequestLoadGameColumn', 00H		; `string'
CONST	ENDS
;	COMDAT ??_C@_0L@EBJKHBJE@ColumnName@
CONST	SEGMENT
??_C@_0L@EBJKHBJE@ColumnName@ DB 'ColumnName', 00H	; `string'
CONST	ENDS
;	COMDAT ??_C@_0N@JAOGOMAE@DataDescribe@
CONST	SEGMENT
??_C@_0N@JAOGOMAE@DataDescribe@ DB 'DataDescribe', 00H	; `string'
CONST	ENDS
;	COMDAT ??_C@_0M@COECLCNM@ColumnWidth@
CONST	SEGMENT
??_C@_0M@COECLCNM@ColumnWidth@ DB 'ColumnWidth', 00H	; `string'
CONST	ENDS
;	COMDAT ??_C@_0BG@IEDFJCH@GSP_GR_GameColumnItem@
CONST	SEGMENT
??_C@_0BG@IEDFJCH@GSP_GR_GameColumnItem@ DB 'GSP_GR_GameColumnItem', 00H ; `string'
CONST	ENDS
;	COMDAT ?__LINE__Var@?0??OnRequestLoadGameColumn@CDataBaseEngineSink@@IAE_NKPAXGAAK@Z@4JA
_DATA	SEGMENT
?__LINE__Var@?0??OnRequestLoadGameColumn@CDataBaseEngineSink@@IAE_NKPAXGAAK@Z@4JA DD 04e4H ; `CDataBaseEngineSink::OnRequestLoadGameColumn'::`1'::__LINE__Var
_DATA	ENDS
;	COMDAT ??_C@_0CM@KGJLJCFF@CDataBaseEngineSink?3?3OnRequestL@
CONST	SEGMENT
??_C@_0CM@KGJLJCFF@CDataBaseEngineSink?3?3OnRequestL@ DB 'CDataBaseEngine'
	DB	'Sink::OnRequestLoadParameter', 00H		; `string'
CONST	ENDS
;	COMDAT ??_C@_0O@BNALHPOE@ServerVersion@
CONST	SEGMENT
??_C@_0O@BNALHPOE@ServerVersion@ DB 'ServerVersion', 00H ; `string'
CONST	ENDS
;	COMDAT ??_C@_0O@DNEICACF@ClientVersion@
CONST	SEGMENT
??_C@_0O@DNEICACF@ClientVersion@ DB 'ClientVersion', 00H ; `string'
CONST	ENDS
;	COMDAT ??_C@_0O@ICJCJIAI@WinExperience@
CONST	SEGMENT
??_C@_0O@ICJCJIAI@WinExperience@ DB 'WinExperience', 00H ; `string'
CONST	ENDS
;	COMDAT ??_C@_0BC@IMPEKOG@EducateGrantScore@
CONST	SEGMENT
??_C@_0BC@IMPEKOG@EducateGrantScore@ DB 'EducateGrantScore', 00H ; `string'
CONST	ENDS
;	COMDAT ??_C@_08NAMHLHLO@RateGold@
CONST	SEGMENT
??_C@_08NAMHLHLO@RateGold@ DB 'RateGold', 00H		; `string'
CONST	ENDS
;	COMDAT ??_C@_0BE@JJGPDMNP@PresentExchangeRate@
CONST	SEGMENT
??_C@_0BE@JJGPDMNP@PresentExchangeRate@ DB 'PresentExchangeRate', 00H ; `string'
CONST	ENDS
;	COMDAT ??_C@_0N@GLADEADN@ExchangeRate@
CONST	SEGMENT
??_C@_0N@GLADEADN@ExchangeRate@ DB 'ExchangeRate', 00H	; `string'
CONST	ENDS
;	COMDAT ??_C@_0M@DBHJHGAC@RevenueRate@
CONST	SEGMENT
??_C@_0M@DBHJHGAC@RevenueRate@ DB 'RevenueRate', 00H	; `string'
CONST	ENDS
;	COMDAT ??_C@_09ONKIKKOA@MedalRate@
CONST	SEGMENT
??_C@_09ONKIKKOA@MedalRate@ DB 'MedalRate', 00H		; `string'
CONST	ENDS
;	COMDAT ??_C@_0BF@PPDAJELF@GSP_GR_LoadParameter@
CONST	SEGMENT
??_C@_0BF@PPDAJELF@GSP_GR_LoadParameter@ DB 'GSP_GR_LoadParameter', 00H ; `string'
CONST	ENDS
;	COMDAT ??_C@_0CO@PMJFKAHH@CDataBaseEngineSink?3?3OnRequestG@
CONST	SEGMENT
??_C@_0CO@PMJFKAHH@CDataBaseEngineSink?3?3OnRequestG@ DB 'CDataBaseEngine'
	DB	'Sink::OnRequestGameScoreRecord', 00H	; `string'
CONST	ENDS
;	COMDAT ??_C@_0BH@GDKLKNEL@GSP_GR_RecordDrawScore@
CONST	SEGMENT
??_C@_0BH@GDKLKNEL@GSP_GR_RecordDrawScore@ DB 'GSP_GR_RecordDrawScore', 00H ; `string'
CONST	ENDS
;	COMDAT ??_C@_0N@BCKJOBHH@?$EAdwUserMedal@
CONST	SEGMENT
??_C@_0N@BCKJOBHH@?$EAdwUserMedal@ DB '@dwUserMedal', 00H ; `string'
CONST	ENDS
;	COMDAT ??_C@_09HEKEGECD@?$EAwChairID@
CONST	SEGMENT
??_C@_09HEKEGECD@?$EAwChairID@ DB '@wChairID', 00H	; `string'
CONST	ENDS
;	COMDAT ??_C@_09GKJPNPDO@?$EAdwDrawID@
CONST	SEGMENT
??_C@_09GKJPNPDO@?$EAdwDrawID@ DB '@dwDrawID', 00H	; `string'
CONST	ENDS
;	COMDAT ??_C@_06CNNJCHLH@DrawID@
CONST	SEGMENT
??_C@_06CNNJCHLH@DrawID@ DB 'DrawID', 00H		; `string'
CONST	ENDS
;	COMDAT ??_C@_0BG@LIJOAHKH@GSP_GR_RecordDrawInfo@
CONST	SEGMENT
??_C@_0BG@LIJOAHKH@GSP_GR_RecordDrawInfo@ DB 'GSP_GR_RecordDrawInfo', 00H ; `string'
CONST	ENDS
;	COMDAT ??_C@_0BE@EDEOJJCJ@?$EASystemTimeConclude@
CONST	SEGMENT
??_C@_0BE@EDEOJJCJ@?$EASystemTimeConclude@ DB '@SystemTimeConclude', 00H ; `string'
CONST	ENDS
;	COMDAT ??_C@_0BB@PGLAPBFB@?$EASystemTimeStart@
CONST	SEGMENT
??_C@_0BB@PGLAPBFB@?$EASystemTimeStart@ DB '@SystemTimeStart', 00H ; `string'
CONST	ENDS
;	COMDAT ??_C@_0N@GPKBKOPN@?$EAdwUserMemal@
CONST	SEGMENT
??_C@_0N@GPKBKOPN@?$EAdwUserMemal@ DB '@dwUserMemal', 00H ; `string'
CONST	ENDS
;	COMDAT ??_C@_0P@NCELGDGP@?$EAlRevenueCount@
CONST	SEGMENT
??_C@_0P@NCELGDGP@?$EAlRevenueCount@ DB '@lRevenueCount', 00H ; `string'
CONST	ENDS
;	COMDAT ??_C@_0N@PABBDPKG@?$EAlWasteCount@
CONST	SEGMENT
??_C@_0N@PABBDPKG@?$EAlWasteCount@ DB '@lWasteCount', 00H ; `string'
CONST	ENDS
;	COMDAT ??_C@_0P@CKGONGPM@?$EAwAndroidCount@
CONST	SEGMENT
??_C@_0P@CKGONGPM@?$EAwAndroidCount@ DB '@wAndroidCount', 00H ; `string'
CONST	ENDS
;	COMDAT ??_C@_0M@NBOKIGPJ@?$EAwUserCount@
CONST	SEGMENT
??_C@_0M@NBOKIGPJ@?$EAwUserCount@ DB '@wUserCount', 00H	; `string'
CONST	ENDS
;	COMDAT ??_C@_09BEPIILDK@?$EAwTableID@
CONST	SEGMENT
??_C@_09BEPIILDK@?$EAwTableID@ DB '@wTableID', 00H	; `string'
CONST	ENDS
;	COMDAT ?__LINE__Var@?0??OnRequestGameScoreRecord@CDataBaseEngineSink@@IAE_NKPAXGAAK@Z@4JA
_DATA	SEGMENT
?__LINE__Var@?0??OnRequestGameScoreRecord@CDataBaseEngineSink@@IAE_NKPAXGAAK@Z@4JA DD 0450H ; `CDataBaseEngineSink::OnRequestGameScoreRecord'::`1'::__LINE__Var
_DATA	ENDS
;	COMDAT ??_C@_0DF@CGMOPKIG@CDataBaseEngineSink?3?3OnRequestW@
CONST	SEGMENT
??_C@_0DF@CGMOPKIG@CDataBaseEngineSink?3?3OnRequestW@ DB 'CDataBaseEngine'
	DB	'Sink::OnRequestWritePersonalGameScore', 00H	; `string'
CONST	ENDS
;	COMDAT ??_C@_0BL@EDODNHHH@GSP_GR_WriteRecordBackInfo@
CONST	SEGMENT
??_C@_0BL@EDODNHHH@GSP_GR_WriteRecordBackInfo@ DB 'GSP_GR_WriteRecordBack'
	DB	'Info', 00H					; `string'
CONST	ENDS
;	COMDAT ??_C@_0N@DPNIOAJI@?$EAcbLoopCount@
CONST	SEGMENT
??_C@_0N@DPNIOAJI@?$EAcbLoopCount@ DB '@cbLoopCount', 00H ; `string'
CONST	ENDS
;	COMDAT ??_C@_0M@CIPFFAIA@?$EAcbGameMode@
CONST	SEGMENT
??_C@_0M@CIPFFAIA@?$EAcbGameMode@ DB '@cbGameMode', 00H	; `string'
CONST	ENDS
;	COMDAT ??_C@_0L@NKNBMEGF@?$EAlGamesNum@
CONST	SEGMENT
??_C@_0L@NKNBMEGF@?$EAlGamesNum@ DB '@lGamesNum', 00H	; `string'
CONST	ENDS
;	COMDAT ??_C@_06INBEDIMB@?$EAstrID@
CONST	SEGMENT
??_C@_06INBEDIMB@?$EAstrID@ DB '@strID', 00H		; `string'
CONST	ENDS
;	COMDAT ??_C@_0P@NJHBKOOH@?T?$LM?U?$LN?$LH?$LP?$LM?d?P?$LE?$LH?V?53@
CONST	SEGMENT
??_C@_0P@NJHBKOOH@?T?$LM?U?$LN?$LH?$LP?$LM?d?P?$LE?$LH?V?53@ DB 0d4H, 0bcH
	DB	0d5H, 0bdH, 0b7H, 0bfH, 0bcH, 0e4H, 0d0H, 0b4H, 0b7H, 0d6H, ' '
	DB	'3', 00H					; `string'
CONST	ENDS
;	COMDAT ??_C@_0P@MAGKJPKG@?T?$LM?U?$LN?$LH?$LP?$LM?d?P?$LE?$LH?V?52@
CONST	SEGMENT
??_C@_0P@MAGKJPKG@?T?$LM?U?$LN?$LH?$LP?$LM?d?P?$LE?$LH?V?52@ DB 0d4H, 0bcH
	DB	0d5H, 0bdH, 0b7H, 0bfH, 0bcH, 0e4H, 0d0H, 0b4H, 0b7H, 0d6H, ' '
	DB	'2', 00H					; `string'
CONST	ENDS
;	COMDAT ??_C@_0P@OLEHMMGF@?T?$LM?U?$LN?$LH?$LP?$LM?d?P?$LE?$LH?V?51@
CONST	SEGMENT
??_C@_0P@OLEHMMGF@?T?$LM?U?$LN?$LH?$LP?$LM?d?P?$LE?$LH?V?51@ DB 0d4H, 0bcH
	DB	0d5H, 0bdH, 0b7H, 0bfH, 0bcH, 0e4H, 0d0H, 0b4H, 0b7H, 0d6H, ' '
	DB	'1', 00H					; `string'
CONST	ENDS
;	COMDAT ??_C@_0BO@LELKKMEB@GSP_GR_WritePersonalGameScore@
CONST	SEGMENT
??_C@_0BO@LELKKMEB@GSP_GR_WritePersonalGameScore@ DB 'GSP_GR_WritePersona'
	DB	'lGameScore', 00H				; `string'
CONST	ENDS
;	COMDAT ??_C@_0BF@JFHEMCEA@?$EAstrPersonalRoomGUID@
CONST	SEGMENT
??_C@_0BF@JFHEMCEA@?$EAstrPersonalRoomGUID@ DB '@strPersonalRoomGUID', 00H ; `string'
CONST	ENDS
;	COMDAT ??_C@_0P@DBPPDOEI@?$EAdwPersonalTax@
CONST	SEGMENT
??_C@_0P@DBPPDOEI@?$EAdwPersonalTax@ DB '@dwPersonalTax', 00H ; `string'
CONST	ENDS
;	COMDAT ??_C@_0O@GFIHOHG@?$EAdwRoomHostID@
CONST	SEGMENT
??_C@_0O@GFIHOHG@?$EAdwRoomHostID@ DB '@dwRoomHostID', 00H ; `string'
CONST	ENDS
;	COMDAT ??_C@_0L@LJHFIHID@?$EAdwMatchNo@
CONST	SEGMENT
??_C@_0L@LJHFIHID@?$EAdwMatchNo@ DB '@dwMatchNo', 00H	; `string'
CONST	ENDS
;	COMDAT ??_C@_0BC@LLEGCEPB@?$EAdwPersonalRoomID@
CONST	SEGMENT
??_C@_0BC@LLEGCEPB@?$EAdwPersonalRoomID@ DB '@dwPersonalRoomID', 00H ; `string'
CONST	ENDS
;	COMDAT ?__LINE__Var@?0??OnRequestWritePersonalGameScore@CDataBaseEngineSink@@IAE_NKPAXGAAK@Z@4JA
_DATA	SEGMENT
?__LINE__Var@?0??OnRequestWritePersonalGameScore@CDataBaseEngineSink@@IAE_NKPAXGAAK@Z@4JA DD 03e4H ; `CDataBaseEngineSink::OnRequestWritePersonalGameScore'::`1'::__LINE__Var
_DATA	ENDS
;	COMDAT ??_C@_0CO@HMPMMKID@CDataBaseEngineSink?3?3OnRequestL@
CONST	SEGMENT
??_C@_0CO@HMPMMKID@CDataBaseEngineSink?3?3OnRequestL@ DB 'CDataBaseEngine'
	DB	'Sink::OnRequestLeaveGameServer', 00H	; `string'
CONST	ENDS
;	COMDAT ??_C@_0BH@MLOBMFPB@GSP_GR_LeaveGameServer@
CONST	SEGMENT
??_C@_0BH@MLOBMFPB@GSP_GR_LeaveGameServer@ DB 'GSP_GR_LeaveGameServer', 00H ; `string'
CONST	ENDS
;	COMDAT ??_C@_0BC@DCDJHBHF@?$EAcbIsPersonalRoom@
CONST	SEGMENT
??_C@_0BC@DCDJHBHF@?$EAcbIsPersonalRoom@ DB '@cbIsPersonalRoom', 00H ; `string'
CONST	ENDS
;	COMDAT ??_C@_0BK@LBPPCHBA@?$EAdwVariationPlayTimeCount@
CONST	SEGMENT
??_C@_0BK@LBPPCHBA@?$EAdwVariationPlayTimeCount@ DB '@dwVariationPlayTime'
	DB	'Count', 00H					; `string'
CONST	ENDS
;	COMDAT ??_C@_0BG@BIEHHIIA@?$EAlVariationLoveLiness@
CONST	SEGMENT
??_C@_0BG@BIEHHIIA@?$EAlVariationLoveLiness@ DB '@lVariationLoveLiness', 00H ; `string'
CONST	ENDS
;	COMDAT ??_C@_0BG@INFBNLKG@?$EAlVariationExperience@
CONST	SEGMENT
??_C@_0BG@INFBNLKG@?$EAlVariationExperience@ DB '@lVariationExperience', 00H ; `string'
CONST	ENDS
;	COMDAT ??_C@_0BF@FDHDCABM@?$EAlVariationUserMedal@
CONST	SEGMENT
??_C@_0BF@FDHDCABM@?$EAlVariationUserMedal@ DB '@lVariationUserMedal', 00H ; `string'
CONST	ENDS
;	COMDAT ??_C@_0BJ@HKGEBBIO@?$EAlVariationIntegralCount@
CONST	SEGMENT
??_C@_0BJ@HKGEBBIO@?$EAlVariationIntegralCount@ DB '@lVariationIntegralCo'
	DB	'unt', 00H					; `string'
CONST	ENDS
;	COMDAT ??_C@_0BF@FPLCKDFI@?$EAlVariationFleeCount@
CONST	SEGMENT
??_C@_0BF@FPLCKDFI@?$EAlVariationFleeCount@ DB '@lVariationFleeCount', 00H ; `string'
CONST	ENDS
;	COMDAT ??_C@_0BF@ELEOGJJL@?$EAlVariationDrawCount@
CONST	SEGMENT
??_C@_0BF@ELEOGJJL@?$EAlVariationDrawCount@ DB '@lVariationDrawCount', 00H ; `string'
CONST	ENDS
;	COMDAT ??_C@_0BF@KGAKAIC@?$EAlVariationLostCount@
CONST	SEGMENT
??_C@_0BF@KGAKAIC@?$EAlVariationLostCount@ DB '@lVariationLostCount', 00H ; `string'
CONST	ENDS
;	COMDAT ??_C@_0BE@FLCBMMCP@?$EAlVariationWinCount@
CONST	SEGMENT
??_C@_0BE@FLCBMMCP@?$EAlVariationWinCount@ DB '@lVariationWinCount', 00H ; `string'
CONST	ENDS
;	COMDAT ??_C@_0BD@NNAGAHHG@?$EAlVariationRevenue@
CONST	SEGMENT
??_C@_0BD@NNAGAHHG@?$EAlVariationRevenue@ DB '@lVariationRevenue', 00H ; `string'
CONST	ENDS
;	COMDAT ??_C@_0BC@POLKICOF@?$EAlVariationInsure@
CONST	SEGMENT
??_C@_0BC@POLKICOF@?$EAlVariationInsure@ DB '@lVariationInsure', 00H ; `string'
CONST	ENDS
;	COMDAT ??_C@_0BB@COCMMPHJ@?$EAlVariationGrade@
CONST	SEGMENT
??_C@_0BB@COCMMPHJ@?$EAlVariationGrade@ DB '@lVariationGrade', 00H ; `string'
CONST	ENDS
;	COMDAT ??_C@_0BB@BDJPJJDH@?$EAlVariationScore@
CONST	SEGMENT
??_C@_0BB@BDJPJJDH@?$EAlVariationScore@ DB '@lVariationScore', 00H ; `string'
CONST	ENDS
;	COMDAT ??_C@_0BH@CFEHAANM@?$EAdwRecordPlayTimeCount@
CONST	SEGMENT
??_C@_0BH@CFEHAANM@?$EAdwRecordPlayTimeCount@ DB '@dwRecordPlayTimeCount', 00H ; `string'
CONST	ENDS
;	COMDAT ??_C@_0BD@FALGOCL@?$EAlRecordLoveLiness@
CONST	SEGMENT
??_C@_0BD@FALGOCL@?$EAlRecordLoveLiness@ DB '@lRecordLoveLiness', 00H ; `string'
CONST	ENDS
;	COMDAT ??_C@_0BD@JABNMNAN@?$EAlRecordExperience@
CONST	SEGMENT
??_C@_0BD@JABNMNAN@?$EAlRecordExperience@ DB '@lRecordExperience', 00H ; `string'
CONST	ENDS
;	COMDAT ??_C@_0BC@KIHFOPAM@?$EAlRecordUserMedal@
CONST	SEGMENT
??_C@_0BC@KIHFOPAM@?$EAlRecordUserMedal@ DB '@lRecordUserMedal', 00H ; `string'
CONST	ENDS
;	COMDAT ??_C@_0BC@KELEGMEI@?$EAlRecordFleeCount@
CONST	SEGMENT
??_C@_0BC@KELEGMEI@?$EAlRecordFleeCount@ DB '@lRecordFleeCount', 00H ; `string'
CONST	ENDS
;	COMDAT ??_C@_0BC@LAEIKGIL@?$EAlRecordDrawCount@
CONST	SEGMENT
??_C@_0BC@LAEIKGIL@?$EAlRecordDrawCount@ DB '@lRecordDrawCount', 00H ; `string'
CONST	ENDS
;	COMDAT ??_C@_0BC@PBGGGPJC@?$EAlRecordLostCount@
CONST	SEGMENT
??_C@_0BC@PBGGGPJC@?$EAlRecordLostCount@ DB '@lRecordLostCount', 00H ; `string'
CONST	ENDS
;	COMDAT ??_C@_0BB@IJKCLJHA@?$EAlRecordWinCount@
CONST	SEGMENT
??_C@_0BB@IJKCLJHA@?$EAlRecordWinCount@ DB '@lRecordWinCount', 00H ; `string'
CONST	ENDS
;	COMDAT ??_C@_0BA@FDPGKFFA@?$EAlRecordRevenue@
CONST	SEGMENT
??_C@_0BA@FDPGKFFA@?$EAlRecordRevenue@ DB '@lRecordRevenue', 00H ; `string'
CONST	ENDS
;	COMDAT ??_C@_0P@LAPHFNHI@?$EAlRecordInsure@
CONST	SEGMENT
??_C@_0P@LAPHFNHI@?$EAlRecordInsure@ DB '@lRecordInsure', 00H ; `string'
CONST	ENDS
;	COMDAT ??_C@_0O@GHHAAGJL@?$EAlRecordGrade@
CONST	SEGMENT
??_C@_0O@GHHAAGJL@?$EAlRecordGrade@ DB '@lRecordGrade', 00H ; `string'
CONST	ENDS
;	COMDAT ??_C@_0O@FKMDFANF@?$EAlRecordScore@
CONST	SEGMENT
??_C@_0O@FKMDFANF@?$EAlRecordScore@ DB '@lRecordScore', 00H ; `string'
CONST	ENDS
;	COMDAT ??_C@_0P@IACLLIC@?$EAdwLeaveReason@
CONST	SEGMENT
??_C@_0P@IACLLIC@?$EAdwLeaveReason@ DB '@dwLeaveReason', 00H ; `string'
CONST	ENDS
;	COMDAT ??_C@_0BD@NIKDNNEL@?$EAdwOnLineTimeCount@
CONST	SEGMENT
??_C@_0BD@NIKDNNEL@?$EAdwOnLineTimeCount@ DB '@dwOnLineTimeCount', 00H ; `string'
CONST	ENDS
;	COMDAT ?__LINE__Var@?0??OnRequestLeaveGameServer@CDataBaseEngineSink@@IAE_NKPAXGAAK@Z@4JA
_DATA	SEGMENT
?__LINE__Var@?0??OnRequestLeaveGameServer@CDataBaseEngineSink@@IAE_NKPAXGAAK@Z@4JA DD 038cH ; `CDataBaseEngineSink::OnRequestLeaveGameServer'::`1'::__LINE__Var
_DATA	ENDS
;	COMDAT ??_C@_0CN@JLMFBEAP@CDataBaseEngineSink?3?3OnRequestW@
CONST	SEGMENT
??_C@_0CN@JLMFBEAP@CDataBaseEngineSink?3?3OnRequestW@ DB 'CDataBaseEngine'
	DB	'Sink::OnRequestWriteGameScore', 00H		; `string'
CONST	ENDS
;	COMDAT ??_C@_0BG@DLJGFNHB@GSP_GR_WriteGameScore@
CONST	SEGMENT
??_C@_0BG@DLJGFNHB@GSP_GR_WriteGameScore@ DB 'GSP_GR_WriteGameScore', 00H ; `string'
CONST	ENDS
;	COMDAT ??_C@_0P@FLMBKOGD@?$EAcbTaskForward@
CONST	SEGMENT
??_C@_0P@FLMBKOGD@?$EAcbTaskForward@ DB '@cbTaskForward', 00H ; `string'
CONST	ENDS
;	COMDAT ??_C@_0BB@ILKLMOOE@?$EAdwPlayTimeCount@
CONST	SEGMENT
??_C@_0BB@ILKLMOOE@?$EAdwPlayTimeCount@ DB '@dwPlayTimeCount', 00H ; `string'
CONST	ENDS
;	COMDAT ??_C@_0N@FDFNLKLE@?$EAlLoveLiness@
CONST	SEGMENT
??_C@_0N@FDFNLKLE@?$EAlLoveLiness@ DB '@lLoveLiness', 00H ; `string'
CONST	ENDS
;	COMDAT ??_C@_0N@MGELBJJC@?$EAlExperience@
CONST	SEGMENT
??_C@_0N@MGELBJJC@?$EAlExperience@ DB '@lExperience', 00H ; `string'
CONST	ENDS
;	COMDAT ??_C@_0M@ENGFFDDJ@?$EAlUserMedal@
CONST	SEGMENT
??_C@_0M@ENGFFDDJ@?$EAlUserMedal@ DB '@lUserMedal', 00H	; `string'
CONST	ENDS
;	COMDAT ??_C@_0BA@FNKIBADP@?$EAlIntegralCount@
CONST	SEGMENT
??_C@_0BA@FNKIBADP@?$EAlIntegralCount@ DB '@lIntegralCount', 00H ; `string'
CONST	ENDS
;	COMDAT ??_C@_0M@EBKENAHN@?$EAlFleeCount@
CONST	SEGMENT
??_C@_0M@EBKENAHN@?$EAlFleeCount@ DB '@lFleeCount', 00H	; `string'
CONST	ENDS
;	COMDAT ??_C@_0M@FFFIBKLO@?$EAlDrawCount@
CONST	SEGMENT
??_C@_0M@FFFIBKLO@?$EAlDrawCount@ DB '@lDrawCount', 00H	; `string'
CONST	ENDS
;	COMDAT ??_C@_0M@BEHGNDKH@?$EAlLostCount@
CONST	SEGMENT
??_C@_0M@BEHGNDKH@?$EAlLostCount@ DB '@lLostCount', 00H	; `string'
CONST	ENDS
;	COMDAT ??_C@_0L@EMKAIBLN@?$EAlWinCount@
CONST	SEGMENT
??_C@_0L@EMKAIBLN@?$EAlWinCount@ DB '@lWinCount', 00H	; `string'
CONST	ENDS
;	COMDAT ??_C@_09OLPFNGOI@?$EAlRevenue@
CONST	SEGMENT
??_C@_09OLPFNGOI@?$EAlRevenue@ DB '@lRevenue', 00H	; `string'
CONST	ENDS
;	COMDAT ??_C@_08OCBOKEP@?$EAlInsure@
CONST	SEGMENT
??_C@_08OCBOKEP@?$EAlInsure@ DB '@lInsure', 00H		; `string'
CONST	ENDS
;	COMDAT ??_C@_07LKNHCBOJ@?$EAlGrade@
CONST	SEGMENT
??_C@_07LKNHCBOJ@?$EAlGrade@ DB '@lGrade', 00H		; `string'
CONST	ENDS
;	COMDAT ??_C@_07IHGEHHKH@?$EAlScore@
CONST	SEGMENT
??_C@_07IHGEHHKH@?$EAlScore@ DB '@lScore', 00H		; `string'
CONST	ENDS
;	COMDAT ??_C@_0O@PPOIJHID@?$EAdwInoutIndex@
CONST	SEGMENT
??_C@_0O@PPOIJHID@?$EAdwInoutIndex@ DB '@dwInoutIndex', 00H ; `string'
CONST	ENDS
;	COMDAT ??_C@_0N@BIOKLHCN@?$EAdwDBQuestID@
CONST	SEGMENT
??_C@_0N@BIOKLHCN@?$EAdwDBQuestID@ DB '@dwDBQuestID', 00H ; `string'
CONST	ENDS
;	COMDAT ?__LINE__Var@?0??OnRequestWriteGameScore@CDataBaseEngineSink@@IAE_NKPAXGAAK@Z@4JA
_DATA	SEGMENT
?__LINE__Var@?0??OnRequestWriteGameScore@CDataBaseEngineSink@@IAE_NKPAXGAAK@Z@4JA DD 0341H ; `CDataBaseEngineSink::OnRequestWriteGameScore'::`1'::__LINE__Var
_DATA	ENDS
;	COMDAT ??_C@_0CM@KPLBNJDB@CDataBaseEngineSink?3?3OnRequestL@
CONST	SEGMENT
??_C@_0CM@KPLBNJDB@CDataBaseEngineSink?3?3OnRequestL@ DB 'CDataBaseEngine'
	DB	'Sink::OnRequestLogonAccounts', 00H		; `string'
CONST	ENDS
;	COMDAT ??_C@_0BI@BOJOKCIN@GSP_GR_EfficacyAccounts@
CONST	SEGMENT
??_C@_0BI@BOJOKCIN@GSP_GR_EfficacyAccounts@ DB 'GSP_GR_EfficacyAccounts', 00H ; `string'
CONST	ENDS
;	COMDAT ??_C@_0N@MLMFFBNL@?$EAstrAccounts@
CONST	SEGMENT
??_C@_0N@MLMFFBNL@?$EAstrAccounts@ DB '@strAccounts', 00H ; `string'
CONST	ENDS
;	COMDAT ?__LINE__Var@?0??OnRequestLogonAccounts@CDataBaseEngineSink@@IAE_NKPAXGAAK@Z@4JA
_DATA	SEGMENT
?__LINE__Var@?0??OnRequestLogonAccounts@CDataBaseEngineSink@@IAE_NKPAXGAAK@Z@4JA DD 0308H ; `CDataBaseEngineSink::OnRequestLogonAccounts'::`1'::__LINE__Var
_DATA	ENDS
;	COMDAT ??_C@_0CK@MGDIICLE@CDataBaseEngineSink?3?3OnRequestL@
CONST	SEGMENT
??_C@_0CK@MGDIICLE@CDataBaseEngineSink?3?3OnRequestL@ DB 'CDataBaseEngine'
	DB	'Sink::OnRequestLogonMobile', 00H		; `string'
CONST	ENDS
;	COMDAT ??_C@_0BG@OAADBPEH@GSP_GR_EfficacyMobile@
CONST	SEGMENT
??_C@_0BG@OAADBPEH@GSP_GR_EfficacyMobile@ DB 'GSP_GR_EfficacyMobile', 00H ; `string'
CONST	ENDS
;	COMDAT ??_C@_0BC@KHGFDOLM@?$EAcbPersonalServer@
CONST	SEGMENT
??_C@_0BC@KHGFDOLM@?$EAcbPersonalServer@ DB '@cbPersonalServer', 00H ; `string'
CONST	ENDS
;	COMDAT ?__LINE__Var@?0??OnRequestLogonMobile@CDataBaseEngineSink@@IAE_NKPAXGAAK@Z@4JA
_DATA	SEGMENT
?__LINE__Var@?0??OnRequestLogonMobile@CDataBaseEngineSink@@IAE_NKPAXGAAK@Z@4JA DD 02bbH ; `CDataBaseEngineSink::OnRequestLogonMobile'::`1'::__LINE__Var
_DATA	ENDS
;	COMDAT ??_C@_0DH@NMJACNII@?S?I?S?Z?J?$PN?$LO?$NN?$LP?b?$LC?Y?W?w?R?l?$LD?$KD?$KD?$KM?G?k?D?z?I?T?$LK?s?V?X?J@
CONST	SEGMENT
??_C@_0DH@NMJACNII@?S?I?S?Z?J?$PN?$LO?$NN?$LP?b?$LC?Y?W?w?R?l?$LD?$KD?$KD?$KM?G?k?D?z?I?T?$LK?s?V?X?J@ DB 0d3H
	DB	0c9H, 0d3H, 0daH, 0caH, 0fdH, 0beH, 0ddH, 0bfH, 0e2H, 0b2H, 0d9H
	DB	0d7H, 0f7H, 0d2H, 0ecH, 0b3H, 0a3H, 0a3H, 0acH, 0c7H, 0ebH, 0c4H
	DB	0faH, 0c9H, 0d4H, 0baH, 0f3H, 0d6H, 0d8H, 0caH, 0d4H, 0bbH, 0f2H
	DB	0d1H, 0a1H, 0d4H, 0f1H, 0c1H, 0edH, 0d2H, 0bbH, 0b7H, 0feH, 0ceH
	DB	0f1H, 0c6H, 0f7H, 0b5H, 0c7H, 0c2H, 0bcH, 0a3H, 0a1H, 00H ; `string'
CONST	ENDS
;	COMDAT ??_C@_0BG@EHAHJCGI@GSP_GR_EfficacyUserID@
CONST	SEGMENT
??_C@_0BG@EHAHJCGI@GSP_GR_EfficacyUserID@ DB 'GSP_GR_EfficacyUserID', 00H ; `string'
CONST	ENDS
;	COMDAT ??_C@_0BC@IIOJPJPJ@?$EAstrErrorDescribe@
CONST	SEGMENT
??_C@_0BC@IIOJPJPJ@?$EAstrErrorDescribe@ DB '@strErrorDescribe', 00H ; `string'
CONST	ENDS
;	COMDAT ??_C@_0N@NLBCJFKK@?$EAcbMatchType@
CONST	SEGMENT
??_C@_0N@NLBCJFKK@?$EAcbMatchType@ DB '@cbMatchType', 00H ; `string'
CONST	ENDS
;	COMDAT ??_C@_09IPBDDIPA@?$EAlMatchNo@
CONST	SEGMENT
??_C@_09IPBDDIPA@?$EAlMatchNo@ DB '@lMatchNo', 00H	; `string'
CONST	ENDS
;	COMDAT ??_C@_0L@MKEKGMGP@?$EAdwMatchID@
CONST	SEGMENT
??_C@_0L@MKEKGMGP@?$EAdwMatchID@ DB '@dwMatchID', 00H	; `string'
CONST	ENDS
;	COMDAT ??_C@_0L@FIEHJJML@?$EAwServerID@
CONST	SEGMENT
??_C@_0L@FIEHJJML@?$EAwServerID@ DB '@wServerID', 00H	; `string'
CONST	ENDS
;	COMDAT ??_C@_08HBBOJKPI@?$EAwKindID@
CONST	SEGMENT
??_C@_08HBBOJKPI@?$EAwKindID@ DB '@wKindID', 00H	; `string'
CONST	ENDS
;	COMDAT ??_C@_0O@MBPPCANG@?$EAstrMachineID@
CONST	SEGMENT
??_C@_0O@MBPPCANG@?$EAstrMachineID@ DB '@strMachineID', 00H ; `string'
CONST	ENDS
;	COMDAT ??_C@_0N@IDHGAHBD@?$EAstrClientIP@
CONST	SEGMENT
??_C@_0N@IDHGAHBD@?$EAstrClientIP@ DB '@strClientIP', 00H ; `string'
CONST	ENDS
;	COMDAT ??_C@_0N@OCODJCJL@?$EAstrPassword@
CONST	SEGMENT
??_C@_0N@OCODJCJL@?$EAstrPassword@ DB '@strPassword', 00H ; `string'
CONST	ENDS
;	COMDAT ??_C@_09KCDEMNBD@?$EAdwUserID@
CONST	SEGMENT
??_C@_09KCDEMNBD@?$EAdwUserID@ DB '@dwUserID', 00H	; `string'
CONST	ENDS
;	COMDAT ??_C@_0M@PCENNPGA@?$CFd?4?$CFd?4?$CFd?4?$CFd@
CONST	SEGMENT
??_C@_0M@PCENNPGA@?$CFd?4?$CFd?4?$CFd?4?$CFd@ DB '%d.%d.%d.%d', 00H ; `string'
CONST	ENDS
;	COMDAT ?__LINE__Var@?0??OnRequestLogonUserID@CDataBaseEngineSink@@IAE_NKPAXGAAKH@Z@4JA
_DATA	SEGMENT
?__LINE__Var@?0??OnRequestLogonUserID@CDataBaseEngineSink@@IAE_NKPAXGAAKH@Z@4JA DD 0279H ; `CDataBaseEngineSink::OnRequestLogonUserID'::`1'::__LINE__Var
_DATA	ENDS
;	COMDAT ??_C@_07KKAAKNCA@?$CFs?5?5?5?$CFs@
CONST	SEGMENT
??_C@_07KKAAKNCA@?$CFs?5?5?5?$CFs@ DB '%s   %s', 00H	; `string'
CONST	ENDS
;	COMDAT ??_C@_0CL@EMJCKBGA@CDataBaseEngineSink?3?3OnDataBase@
CONST	SEGMENT
??_C@_0CL@EMJCKBGA@CDataBaseEngineSink?3?3OnDataBase@ DB 'CDataBaseEngine'
	DB	'Sink::OnDataBaseEngineStart', 00H		; `string'
CONST	ENDS
;	COMDAT ??_R0PAUIDataBaseException@@@8
data$r	SEGMENT
??_R0PAUIDataBaseException@@@8 DD FLAT:??_7type_info@@6B@ ; IDataBaseException * `RTTI Type Descriptor'
	DD	00H
	DB	'.PAUIDataBaseException@@', 00H
data$r	ENDS
;	COMDAT ??_C@_0CD@LCDNOEOA@?S?N?O?$LH?J?$PN?$LO?$NN?$LP?b?$MA?$KJ?U?$LJ?$LJ?$LD?W?S?R?$PN?G?f?$LG?T?O?s?E?d?V?C?J@
CONST	SEGMENT
??_C@_0CD@LCDNOEOA@?S?N?O?$LH?J?$PN?$LO?$NN?$LP?b?$MA?$KJ?U?$LJ?$LJ?$LD?W?S?R?$PN?G?f?$LG?T?O?s?E?d?V?C?J@ DB 0d3H
	DB	0ceH, 0cfH, 0b7H, 0caH, 0fdH, 0beH, 0ddH, 0bfH, 0e2H, 0c0H, 0a9H
	DB	0d5H, 0b9H, 0b9H, 0b3H, 0d7H, 0d3H, 0d2H, 0fdH, 0c7H, 0e6H, 0b6H
	DB	0d4H, 0cfH, 0f3H, 0c5H, 0e4H, 0d6H, 0c3H, 0caH, 0a7H, 0b0H, 0dcH
	DB	00H						; `string'
CONST	ENDS
;	COMDAT ?__LINE__Var@?0??OnDataBaseEngineStart@CDataBaseEngineSink@@UAE_NPAUIUnknownEx@@@Z@4JA
_DATA	SEGMENT
?__LINE__Var@?0??OnDataBaseEngineStart@CDataBaseEngineSink@@UAE_NPAUIUnknownEx@@@Z@4JA DD 054H ; `CDataBaseEngineSink::OnDataBaseEngineStart'::`1'::__LINE__Var
_DATA	ENDS
;	COMDAT ?__LINE__Var@?0??GetDataBaseEngine@CDataBaseEngineSink@@UAEPAXABU_GUID@@K@Z@4JA
_DATA	SEGMENT
?__LINE__Var@?0??GetDataBaseEngine@CDataBaseEngineSink@@UAEPAXABU_GUID@@K@Z@4JA DD 041H ; `CDataBaseEngineSink::GetDataBaseEngine'::`1'::__LINE__Var
_DATA	ENDS
;	COMDAT ??_C@_0FB@KGNGNNGI@g?3?2?M?x?$LK?$PM?2happygamewh?2?$LH?$PO?N?q?$LG?K?2?O?$LF?M?$LD@
CONST	SEGMENT
??_C@_0FB@KGNGNNGI@g?3?2?M?x?$LK?$PM?2happygamewh?2?$LH?$PO?N?q?$LG?K?2?O?$LF?M?$LD@ DB 'g'
	DB	':\', 0cdH, 0f8H, 0baH, 0fcH, '\happygamewh\', 0b7H, 0feH, 0ceH
	DB	0f1H, 0b6H, 0cbH, '\', 0cfH, 0b5H, 0cdH, 0b3H, 0c4H, 0a3H, 0bfH
	DB	0e9H, '\', 0b7H, 0feH, 0ceH, 0f1H, 0c6H, 0f7H, 0d7H, 0e9H, 0bcH
	DB	0feH, '\', 0d3H, 0ceH, 0cfH, 0b7H, 0b7H, 0feH, 0ceH, 0f1H, 0c6H
	DB	0f7H, '\databaseenginesink.cpp', 00H		; `string'
CONST	ENDS
;	COMDAT ?__LINE__Var@?0??GetDataBase@CDataBaseEngineSink@@UAEPAXABU_GUID@@K@Z@4JA
_DATA	SEGMENT
?__LINE__Var@?0??GetDataBase@CDataBaseEngineSink@@UAEPAXABU_GUID@@K@Z@4JA DD 033H ; `CDataBaseEngineSink::GetDataBase'::`1'::__LINE__Var
_DATA	ENDS
;	COMDAT ??_7CDataBaseEngineSink@@6BIGameDataBaseEngine@@@
CONST	SEGMENT
??_7CDataBaseEngineSink@@6BIGameDataBaseEngine@@@ DD FLAT:??_R4CDataBaseEngineSink@@6BIGameDataBaseEngine@@@ ; CDataBaseEngineSink::`vftable'
	DD	FLAT:?Release@CDataBaseEngineSink@@W3AEXXZ
	DD	FLAT:?QueryInterface@CDataBaseEngineSink@@W3AEPAXABU_GUID@@K@Z
	DD	FLAT:?GetCustomRule@CDataBaseEngineSink@@UAEPAXXZ
	DD	FLAT:?GetGameServiceAttrib@CDataBaseEngineSink@@UAEPAUtagGameServiceAttrib@@XZ
	DD	FLAT:?GetGameServiceOption@CDataBaseEngineSink@@UAEPAUtagGameServiceOption@@XZ
	DD	FLAT:?GetDataBase@CDataBaseEngineSink@@UAEPAXABU_GUID@@K@Z
	DD	FLAT:?GetDataBaseEngine@CDataBaseEngineSink@@UAEPAXABU_GUID@@K@Z
	DD	FLAT:?PostGameDataBaseResult@CDataBaseEngineSink@@UAE_NGPAXG@Z
CONST	ENDS
;	COMDAT ??_7CDataBaseEngineSink@@6BIDataBaseEngineSink@@@
CONST	SEGMENT
??_7CDataBaseEngineSink@@6BIDataBaseEngineSink@@@ DD FLAT:??_R4CDataBaseEngineSink@@6BIDataBaseEngineSink@@@ ; CDataBaseEngineSink::`vftable'
	DD	FLAT:?Release@CDataBaseEngineSink@@UAEXXZ
	DD	FLAT:?QueryInterface@CDataBaseEngineSink@@UAEPAXABU_GUID@@K@Z
	DD	FLAT:?OnDataBaseEngineStart@CDataBaseEngineSink@@UAE_NPAUIUnknownEx@@@Z
	DD	FLAT:?OnDataBaseEngineConclude@CDataBaseEngineSink@@UAE_NPAUIUnknownEx@@@Z
	DD	FLAT:?OnDataBaseEngineTimer@CDataBaseEngineSink@@UAE_NKI@Z
	DD	FLAT:?OnDataBaseEngineControl@CDataBaseEngineSink@@UAE_NGPAXG@Z
	DD	FLAT:?OnDataBaseEngineRequest@CDataBaseEngineSink@@UAE_NGKPAXG@Z
	DD	FLAT:??_ECDataBaseEngineSink@@UAEPAXI@Z
CONST	ENDS
;	COMDAT ??_R4?$CTempldateHelper@UIDataBase@@@@6B@
rdata$r	SEGMENT
??_R4?$CTempldateHelper@UIDataBase@@@@6B@ DD 00H	; CTempldateHelper<IDataBase>::`RTTI Complete Object Locator'
	DD	00H
	DD	00H
	DD	FLAT:??_R0?AV?$CTempldateHelper@UIDataBase@@@@@8
	DD	FLAT:??_R3?$CTempldateHelper@UIDataBase@@@@8
rdata$r	ENDS
;	COMDAT ??_R2?$CTempldateHelper@UIDataBase@@@@8
rdata$r	SEGMENT
??_R2?$CTempldateHelper@UIDataBase@@@@8 DD FLAT:??_R1A@?0A@EA@?$CTempldateHelper@UIDataBase@@@@8 ; CTempldateHelper<IDataBase>::`RTTI Base Class Array'
rdata$r	ENDS
;	COMDAT ??_R3?$CTempldateHelper@UIDataBase@@@@8
rdata$r	SEGMENT
??_R3?$CTempldateHelper@UIDataBase@@@@8 DD 00H		; CTempldateHelper<IDataBase>::`RTTI Class Hierarchy Descriptor'
	DD	00H
	DD	01H
	DD	FLAT:??_R2?$CTempldateHelper@UIDataBase@@@@8
rdata$r	ENDS
;	COMDAT ??_R0?AV?$CTempldateHelper@UIDataBase@@@@@8
data$r	SEGMENT
??_R0?AV?$CTempldateHelper@UIDataBase@@@@@8 DD FLAT:??_7type_info@@6B@ ; CTempldateHelper<IDataBase> `RTTI Type Descriptor'
	DD	00H
	DB	'.?AV?$CTempldateHelper@UIDataBase@@@@', 00H
data$r	ENDS
;	COMDAT ??_R1A@?0A@EA@?$CTempldateHelper@UIDataBase@@@@8
rdata$r	SEGMENT
??_R1A@?0A@EA@?$CTempldateHelper@UIDataBase@@@@8 DD FLAT:??_R0?AV?$CTempldateHelper@UIDataBase@@@@@8 ; CTempldateHelper<IDataBase>::`RTTI Base Class Descriptor at (0,-1,0,64)'
	DD	00H
	DD	00H
	DD	0ffffffffH
	DD	00H
	DD	040H
	DD	FLAT:??_R3?$CTempldateHelper@UIDataBase@@@@8
rdata$r	ENDS
;	COMDAT ??_R1A@?0A@EA@CDataBaseHelper@@8
rdata$r	SEGMENT
??_R1A@?0A@EA@CDataBaseHelper@@8 DD FLAT:??_R0?AVCDataBaseHelper@@@8 ; CDataBaseHelper::`RTTI Base Class Descriptor at (0,-1,0,64)'
	DD	01H
	DD	00H
	DD	0ffffffffH
	DD	00H
	DD	040H
	DD	FLAT:??_R3CDataBaseHelper@@8
rdata$r	ENDS
;	COMDAT ??_R2CDataBaseHelper@@8
rdata$r	SEGMENT
??_R2CDataBaseHelper@@8 DD FLAT:??_R1A@?0A@EA@CDataBaseHelper@@8 ; CDataBaseHelper::`RTTI Base Class Array'
	DD	FLAT:??_R1A@?0A@EA@?$CTempldateHelper@UIDataBase@@@@8
rdata$r	ENDS
;	COMDAT ??_R3CDataBaseHelper@@8
rdata$r	SEGMENT
??_R3CDataBaseHelper@@8 DD 00H				; CDataBaseHelper::`RTTI Class Hierarchy Descriptor'
	DD	00H
	DD	02H
	DD	FLAT:??_R2CDataBaseHelper@@8
rdata$r	ENDS
;	COMDAT ??_R0?AVCDataBaseHelper@@@8
data$r	SEGMENT
??_R0?AVCDataBaseHelper@@@8 DD FLAT:??_7type_info@@6B@	; CDataBaseHelper `RTTI Type Descriptor'
	DD	00H
	DB	'.?AVCDataBaseHelper@@', 00H
data$r	ENDS
;	COMDAT ??_R4CDataBaseHelper@@6B@
rdata$r	SEGMENT
??_R4CDataBaseHelper@@6B@ DD 00H			; CDataBaseHelper::`RTTI Complete Object Locator'
	DD	00H
	DD	00H
	DD	FLAT:??_R0?AVCDataBaseHelper@@@8
	DD	FLAT:??_R3CDataBaseHelper@@8
rdata$r	ENDS
;	COMDAT ??_C@_1BK@NHECDDNK@?$AAm?$AA_?$AAp?$AAD?$AAa?$AAt?$AAa?$AA?5?$AA?$DN?$AA?$DN?$AA?5?$AA0@
CONST	SEGMENT
??_C@_1BK@NHECDDNK@?$AAm?$AA_?$AAp?$AAD?$AAa?$AAt?$AAa?$AA?5?$AA?$DN?$AA?$DN?$AA?5?$AA0@ DB 'm'
	DB	00H, '_', 00H, 'p', 00H, 'D', 00H, 'a', 00H, 't', 00H, 'a', 00H
	DB	' ', 00H, '=', 00H, '=', 00H, ' ', 00H, '0', 00H, 00H, 00H ; `string'
CONST	ENDS
;	COMDAT ??_7IGameDataBaseEngine@@6B@
CONST	SEGMENT
??_7IGameDataBaseEngine@@6B@ DD FLAT:??_R4IGameDataBaseEngine@@6B@ ; IGameDataBaseEngine::`vftable'
	DD	FLAT:__purecall
	DD	FLAT:__purecall
	DD	FLAT:__purecall
	DD	FLAT:__purecall
	DD	FLAT:__purecall
	DD	FLAT:__purecall
	DD	FLAT:__purecall
	DD	FLAT:__purecall
CONST	ENDS
;	COMDAT ??_C@_0BB@BEMLEOHB@KernelEngine?4dll@
CONST	SEGMENT
??_C@_0BB@BEMLEOHB@KernelEngine?4dll@ DB 'KernelEngine.dll', 00H ; `string'
CONST	ENDS
;	COMDAT ??_C@_0P@IKJBDFNG@CreateDataBase@
CONST	SEGMENT
??_C@_0P@IKJBDFNG@CreateDataBase@ DB 'CreateDataBase', 00H ; `string'
CONST	ENDS
;	COMDAT ??_7CDataBaseHelper@@6B@
CONST	SEGMENT
??_7CDataBaseHelper@@6B@ DD FLAT:??_R4CDataBaseHelper@@6B@ ; CDataBaseHelper::`vftable'
	DD	FLAT:??_ECDataBaseHelper@@UAEPAXI@Z
CONST	ENDS
;	COMDAT ??_7?$CTempldateHelper@UIDataBase@@@@6B@
CONST	SEGMENT
??_7?$CTempldateHelper@UIDataBase@@@@6B@ DD FLAT:??_R4?$CTempldateHelper@UIDataBase@@@@6B@ ; CTempldateHelper<IDataBase>::`vftable'
	DD	FLAT:??_E?$CTempldateHelper@UIDataBase@@@@UAEPAXI@Z
CONST	ENDS
;	COMDAT ??_7IDataBaseEngineSink@@6B@
CONST	SEGMENT
??_7IDataBaseEngineSink@@6B@ DD FLAT:??_R4IDataBaseEngineSink@@6B@ ; IDataBaseEngineSink::`vftable'
	DD	FLAT:__purecall
	DD	FLAT:__purecall
	DD	FLAT:__purecall
	DD	FLAT:__purecall
	DD	FLAT:__purecall
	DD	FLAT:__purecall
	DD	FLAT:__purecall
CONST	ENDS
;	COMDAT ??_7IUnknownEx@@6B@
CONST	SEGMENT
??_7IUnknownEx@@6B@ DD FLAT:??_R4IUnknownEx@@6B@	; IUnknownEx::`vftable'
	DD	FLAT:__purecall
	DD	FLAT:__purecall
CONST	ENDS
;	COMDAT ??_C@_02DKCKIIND@?$CFs@
CONST	SEGMENT
??_C@_02DKCKIIND@?$CFs@ DB '%s', 00H			; `string'
CONST	ENDS
;	COMDAT ??_C@_00CNPNBAHC@@
CONST	SEGMENT
??_C@_00CNPNBAHC@@ DB 00H				; `string'
CONST	ENDS
;	COMDAT ??_C@_02DPKJAMEF@?$CFd@
CONST	SEGMENT
??_C@_02DPKJAMEF@?$CFd@ DB '%d', 00H			; `string'
CONST	ENDS
;	COMDAT ??_C@_1BK@NHHHCKNA@?$AAm?$AA_?$AAt?$AAi?$AAm?$AAe?$AA?5?$AA?$CB?$AA?$DN?$AA?5?$AA?9?$AA1@
CONST	SEGMENT
??_C@_1BK@NHHHCKNA@?$AAm?$AA_?$AAt?$AAi?$AAm?$AAe?$AA?5?$AA?$CB?$AA?$DN?$AA?5?$AA?9?$AA1@ DB 'm'
	DB	00H, '_', 00H, 't', 00H, 'i', 00H, 'm', 00H, 'e', 00H, ' ', 00H
	DB	'!', 00H, '=', 00H, ' ', 00H, '-', 00H, '1', 00H, 00H, 00H ; `string'
CONST	ENDS
;	COMDAT ??_C@_1OC@IALJLBM@?$AAc?$AA?3?$AA?2?$AAp?$AAr?$AAo?$AAg?$AAr?$AAa?$AAm?$AA?5?$AAf?$AAi?$AAl?$AAe@
CONST	SEGMENT
??_C@_1OC@IALJLBM@?$AAc?$AA?3?$AA?2?$AAp?$AAr?$AAo?$AAg?$AAr?$AAa?$AAm?$AA?5?$AAf?$AAi?$AAl?$AAe@ DB 'c'
	DB	00H, ':', 00H, '\', 00H, 'p', 00H, 'r', 00H, 'o', 00H, 'g', 00H
	DB	'r', 00H, 'a', 00H, 'm', 00H, ' ', 00H, 'f', 00H, 'i', 00H, 'l'
	DB	00H, 'e', 00H, 's', 00H, ' ', 00H, '(', 00H, 'x', 00H, '8', 00H
	DB	'6', 00H, ')', 00H, '\', 00H, 'm', 00H, 'i', 00H, 'c', 00H, 'r'
	DB	00H, 'o', 00H, 's', 00H, 'o', 00H, 'f', 00H, 't', 00H, ' ', 00H
	DB	'v', 00H, 'i', 00H, 's', 00H, 'u', 00H, 'a', 00H, 'l', 00H, ' '
	DB	00H, 's', 00H, 't', 00H, 'u', 00H, 'd', 00H, 'i', 00H, 'o', 00H
	DB	'\', 00H, '2', 00H, '0', 00H, '1', 00H, '7', 00H, '\', 00H, 'c'
	DB	00H, 'o', 00H, 'm', 00H, 'm', 00H, 'u', 00H, 'n', 00H, 'i', 00H
	DB	't', 00H, 'y', 00H, '\', 00H, 'v', 00H, 'c', 00H, '\', 00H, 't'
	DB	00H, 'o', 00H, 'o', 00H, 'l', 00H, 's', 00H, '\', 00H, 'm', 00H
	DB	's', 00H, 'v', 00H, 'c', 00H, '\', 00H, '1', 00H, '4', 00H, '.'
	DB	00H, '1', 00H, '6', 00H, '.', 00H, '2', 00H, '7', 00H, '0', 00H
	DB	'2', 00H, '3', 00H, '\', 00H, 'a', 00H, 't', 00H, 'l', 00H, 'm'
	DB	00H, 'f', 00H, 'c', 00H, '\', 00H, 'i', 00H, 'n', 00H, 'c', 00H
	DB	'l', 00H, 'u', 00H, 'd', 00H, 'e', 00H, '\', 00H, 'a', 00H, 't'
	DB	00H, 'l', 00H, 't', 00H, 'i', 00H, 'm', 00H, 'e', 00H, '.', 00H
	DB	'h', 00H, 00H, 00H				; `string'
CONST	ENDS
;	COMDAT ?__LINE__Var@?0???0CTime@ATL@@QAE@HHHHHHH@Z@4JA
_DATA	SEGMENT
?__LINE__Var@?0???0CTime@ATL@@QAE@HHHHHHH@Z@4JA DD 01adH ; `ATL::CTime::CTime'::`1'::__LINE__Var
_DATA	ENDS
;	COMDAT ??_C@_1BM@GBBOFEAE@?$AA_?$AA_?$AAa?$AAt?$AAl?$AA_?$AAc?$AAo?$AAn?$AAd?$AAV?$AAa?$AAl@
CONST	SEGMENT
??_C@_1BM@GBBOFEAE@?$AA_?$AA_?$AAa?$AAt?$AAl?$AA_?$AAc?$AAo?$AAn?$AAd?$AAV?$AAa?$AAl@ DB '_'
	DB	00H, '_', 00H, 'a', 00H, 't', 00H, 'l', 00H, '_', 00H, 'c', 00H
	DB	'o', 00H, 'n', 00H, 'd', 00H, 'V', 00H, 'a', 00H, 'l', 00H, 00H
	DB	00H						; `string'
CONST	ENDS
;	COMDAT ??_C@_0BF@IAAKIJDJ@AtlThrow?3?5hr?5?$DN?50x?$CFx?6@
CONST	SEGMENT
??_C@_0BF@IAAKIJDJ@AtlThrow?3?5hr?5?$DN?50x?$CFx?6@ DB 'AtlThrow: hr = 0x'
	DB	'%x', 0aH, 00H				; `string'
CONST	ENDS
;	COMDAT ??_C@_0HD@OEBHCJKM@c?3?2program?5files?5?$CIx86?$CJ?2microsof@
CONST	SEGMENT
??_C@_0HD@OEBHCJKM@c?3?2program?5files?5?$CIx86?$CJ?2microsof@ DB 'c:\pro'
	DB	'gram files (x86)\microsoft visual studio\2017\community\vc\to'
	DB	'ols\msvc\14.16.27023\atlmfc\include\atlexcept.h', 00H ; `string'
CONST	ENDS
;	COMDAT ?__LINE__Var@?0??AtlThrowImpl@ATL@@YGXJ@Z@4JA
_DATA	SEGMENT
?__LINE__Var@?0??AtlThrowImpl@ATL@@YGXJ@Z@4JA DD 041H	; `ATL::AtlThrowImpl'::`1'::__LINE__Var
_DATA	ENDS
;	COMDAT ??_C@_1OE@PDFAMNPL@?$AAc?$AA?3?$AA?2?$AAp?$AAr?$AAo?$AAg?$AAr?$AAa?$AAm?$AA?5?$AAf?$AAi?$AAl?$AAe@
CONST	SEGMENT
??_C@_1OE@PDFAMNPL@?$AAc?$AA?3?$AA?2?$AAp?$AAr?$AAo?$AAg?$AAr?$AAa?$AAm?$AA?5?$AAf?$AAi?$AAl?$AAe@ DB 'c'
	DB	00H, ':', 00H, '\', 00H, 'p', 00H, 'r', 00H, 'o', 00H, 'g', 00H
	DB	'r', 00H, 'a', 00H, 'm', 00H, ' ', 00H, 'f', 00H, 'i', 00H, 'l'
	DB	00H, 'e', 00H, 's', 00H, ' ', 00H, '(', 00H, 'x', 00H, '8', 00H
	DB	'6', 00H, ')', 00H, '\', 00H, 'm', 00H, 'i', 00H, 'c', 00H, 'r'
	DB	00H, 'o', 00H, 's', 00H, 'o', 00H, 'f', 00H, 't', 00H, ' ', 00H
	DB	'v', 00H, 'i', 00H, 's', 00H, 'u', 00H, 'a', 00H, 'l', 00H, ' '
	DB	00H, 's', 00H, 't', 00H, 'u', 00H, 'd', 00H, 'i', 00H, 'o', 00H
	DB	'\', 00H, '2', 00H, '0', 00H, '1', 00H, '7', 00H, '\', 00H, 'c'
	DB	00H, 'o', 00H, 'm', 00H, 'm', 00H, 'u', 00H, 'n', 00H, 'i', 00H
	DB	't', 00H, 'y', 00H, '\', 00H, 'v', 00H, 'c', 00H, '\', 00H, 't'
	DB	00H, 'o', 00H, 'o', 00H, 'l', 00H, 's', 00H, '\', 00H, 'm', 00H
	DB	's', 00H, 'v', 00H, 'c', 00H, '\', 00H, '1', 00H, '4', 00H, '.'
	DB	00H, '1', 00H, '6', 00H, '.', 00H, '2', 00H, '7', 00H, '0', 00H
	DB	'2', 00H, '3', 00H, '\', 00H, 'a', 00H, 't', 00H, 'l', 00H, 'm'
	DB	00H, 'f', 00H, 'c', 00H, '\', 00H, 'i', 00H, 'n', 00H, 'c', 00H
	DB	'l', 00H, 'u', 00H, 'd', 00H, 'e', 00H, '\', 00H, 'a', 00H, 't'
	DB	00H, 'l', 00H, 't', 00H, 'r', 00H, 'a', 00H, 'c', 00H, 'e', 00H
	DB	'.', 00H, 'h', 00H, 00H, 00H			; `string'
CONST	ENDS
;	COMDAT ??_C@_1EO@EBPPKGOM@?$AAf?$AAa?$AAl?$AAs?$AAe?$AA?5?$AA?$CG?$AA?$CG?$AA?5?$AA?$CC?$AAT?$AAo?$AAo?$AA?5?$AAm@
CONST	SEGMENT
??_C@_1EO@EBPPKGOM@?$AAf?$AAa?$AAl?$AAs?$AAe?$AA?5?$AA?$CG?$AA?$CG?$AA?5?$AA?$CC?$AAT?$AAo?$AAo?$AA?5?$AAm@ DB 'f'
	DB	00H, 'a', 00H, 'l', 00H, 's', 00H, 'e', 00H, ' ', 00H, '&', 00H
	DB	'&', 00H, ' ', 00H, '"', 00H, 'T', 00H, 'o', 00H, 'o', 00H, ' '
	DB	00H, 'm', 00H, 'a', 00H, 'n', 00H, 'y', 00H, ' ', 00H, 'c', 00H
	DB	'a', 00H, 't', 00H, 'e', 00H, 'g', 00H, 'o', 00H, 'r', 00H, 'i'
	DB	00H, 'e', 00H, 's', 00H, ' ', 00H, 'd', 00H, 'e', 00H, 'f', 00H
	DB	'i', 00H, 'n', 00H, 'e', 00H, 'd', 00H, '"', 00H, 00H, 00H ; `string'
CONST	ENDS
;	COMDAT ??_C@_17LGGGMOOB@?$AA?$CF?$AAh?$AAs@
CONST	SEGMENT
??_C@_17LGGGMOOB@?$AA?$CF?$AAh?$AAs@ DB '%', 00H, 'h', 00H, 's', 00H, 00H
	DB	00H						; `string'
CONST	ENDS
;	COMDAT ??_C@_1O@OAIPCDPO@?$AA?$CF?$AAl?$AAs?$AA?$CF?$AAl?$AAs@
CONST	SEGMENT
??_C@_1O@OAIPCDPO@?$AA?$CF?$AAl?$AAs?$AA?$CF?$AAl?$AAs@ DB '%', 00H, 'l', 00H
	DB	's', 00H, '%', 00H, 'l', 00H, 's', 00H, 00H, 00H ; `string'
CONST	ENDS
;	COMDAT ??_C@_1M@PGKOAACE@?$AA?$CF?$AAu?$AA?5?$AA?9?$AA?5@
CONST	SEGMENT
??_C@_1M@PGKOAACE@?$AA?$CF?$AAu?$AA?5?$AA?9?$AA?5@ DB '%', 00H, 'u', 00H, ' '
	DB	00H, '-', 00H, ' ', 00H, 00H, 00H		; `string'
CONST	ENDS
;	COMDAT ??_C@_1O@LFNDFEBP@?$AA?$CF?$AAl?$AAs?$AA?5?$AA?9?$AA?5@
CONST	SEGMENT
??_C@_1O@LFNDFEBP@?$AA?$CF?$AAl?$AAs?$AA?5?$AA?9?$AA?5@ DB '%', 00H, 'l', 00H
	DB	's', 00H, ' ', 00H, '-', 00H, ' ', 00H, 00H, 00H ; `string'
CONST	ENDS
;	COMDAT ?m_nCategory@CTrace@ATL@@1IA
_DATA	SEGMENT
?m_nCategory@CTrace@ATL@@1IA DD 0ffffffffH		; ATL::CTrace::m_nCategory
_DATA	ENDS
;	COMDAT ??_C@_0BC@PGMFNIFA@atlTraceException@
CONST	SEGMENT
??_C@_0BC@PGMFNIFA@atlTraceException@ DB 'atlTraceException', 00H ; `string'
CONST	ENDS
;	COMDAT ??_C@_1OC@PNEKCFJL@?$AAc?$AA?3?$AA?2?$AAp?$AAr?$AAo?$AAg?$AAr?$AAa?$AAm?$AA?5?$AAf?$AAi?$AAl?$AAe@
CONST	SEGMENT
??_C@_1OC@PNEKCFJL@?$AAc?$AA?3?$AA?2?$AAp?$AAr?$AAo?$AAg?$AAr?$AAa?$AAm?$AA?5?$AAf?$AAi?$AAl?$AAe@ DB 'c'
	DB	00H, ':', 00H, '\', 00H, 'p', 00H, 'r', 00H, 'o', 00H, 'g', 00H
	DB	'r', 00H, 'a', 00H, 'm', 00H, ' ', 00H, 'f', 00H, 'i', 00H, 'l'
	DB	00H, 'e', 00H, 's', 00H, ' ', 00H, '(', 00H, 'x', 00H, '8', 00H
	DB	'6', 00H, ')', 00H, '\', 00H, 'm', 00H, 'i', 00H, 'c', 00H, 'r'
	DB	00H, 'o', 00H, 's', 00H, 'o', 00H, 'f', 00H, 't', 00H, ' ', 00H
	DB	'v', 00H, 'i', 00H, 's', 00H, 'u', 00H, 'a', 00H, 'l', 00H, ' '
	DB	00H, 's', 00H, 't', 00H, 'u', 00H, 'd', 00H, 'i', 00H, 'o', 00H
	DB	'\', 00H, '2', 00H, '0', 00H, '1', 00H, '7', 00H, '\', 00H, 'c'
	DB	00H, 'o', 00H, 'm', 00H, 'm', 00H, 'u', 00H, 'n', 00H, 'i', 00H
	DB	't', 00H, 'y', 00H, '\', 00H, 'v', 00H, 'c', 00H, '\', 00H, 't'
	DB	00H, 'o', 00H, 'o', 00H, 'l', 00H, 's', 00H, '\', 00H, 'm', 00H
	DB	's', 00H, 'v', 00H, 'c', 00H, '\', 00H, '1', 00H, '4', 00H, '.'
	DB	00H, '1', 00H, '6', 00H, '.', 00H, '2', 00H, '7', 00H, '0', 00H
	DB	'2', 00H, '3', 00H, '\', 00H, 'a', 00H, 't', 00H, 'l', 00H, 'm'
	DB	00H, 'f', 00H, 'c', 00H, '\', 00H, 'i', 00H, 'n', 00H, 'c', 00H
	DB	'l', 00H, 'u', 00H, 'd', 00H, 'e', 00H, '\', 00H, 'a', 00H, 't'
	DB	00H, 'l', 00H, 'c', 00H, 'o', 00H, 'n', 00H, 'v', 00H, '.', 00H
	DB	'h', 00H, 00H, 00H				; `string'
CONST	ENDS
;	COMDAT ??_C@_1OE@IAPLKPHI@?$AAc?$AA?3?$AA?2?$AAp?$AAr?$AAo?$AAg?$AAr?$AAa?$AAm?$AA?5?$AAf?$AAi?$AAl?$AAe@
CONST	SEGMENT
??_C@_1OE@IAPLKPHI@?$AAc?$AA?3?$AA?2?$AAp?$AAr?$AAo?$AAg?$AAr?$AAa?$AAm?$AA?5?$AAf?$AAi?$AAl?$AAe@ DB 'c'
	DB	00H, ':', 00H, '\', 00H, 'p', 00H, 'r', 00H, 'o', 00H, 'g', 00H
	DB	'r', 00H, 'a', 00H, 'm', 00H, ' ', 00H, 'f', 00H, 'i', 00H, 'l'
	DB	00H, 'e', 00H, 's', 00H, ' ', 00H, '(', 00H, 'x', 00H, '8', 00H
	DB	'6', 00H, ')', 00H, '\', 00H, 'm', 00H, 'i', 00H, 'c', 00H, 'r'
	DB	00H, 'o', 00H, 's', 00H, 'o', 00H, 'f', 00H, 't', 00H, ' ', 00H
	DB	'v', 00H, 'i', 00H, 's', 00H, 'u', 00H, 'a', 00H, 'l', 00H, ' '
	DB	00H, 's', 00H, 't', 00H, 'u', 00H, 'd', 00H, 'i', 00H, 'o', 00H
	DB	'\', 00H, '2', 00H, '0', 00H, '1', 00H, '7', 00H, '\', 00H, 'c'
	DB	00H, 'o', 00H, 'm', 00H, 'm', 00H, 'u', 00H, 'n', 00H, 'i', 00H
	DB	't', 00H, 'y', 00H, '\', 00H, 'v', 00H, 'c', 00H, '\', 00H, 't'
	DB	00H, 'o', 00H, 'o', 00H, 'l', 00H, 's', 00H, '\', 00H, 'm', 00H
	DB	's', 00H, 'v', 00H, 'c', 00H, '\', 00H, '1', 00H, '4', 00H, '.'
	DB	00H, '1', 00H, '6', 00H, '.', 00H, '2', 00H, '7', 00H, '0', 00H
	DB	'2', 00H, '3', 00H, '\', 00H, 'a', 00H, 't', 00H, 'l', 00H, 'm'
	DB	00H, 'f', 00H, 'c', 00H, '\', 00H, 'i', 00H, 'n', 00H, 'c', 00H
	DB	'l', 00H, 'u', 00H, 'd', 00H, 'e', 00H, '\', 00H, 'a', 00H, 't'
	DB	00H, 'l', 00H, 'a', 00H, 'l', 00H, 'l', 00H, 'o', 00H, 'c', 00H
	DB	'.', 00H, 'h', 00H, 00H, 00H			; `string'
CONST	ENDS
;	COMDAT ??_C@_17CNPHIMPH@?$AA?$CF?$AAl?$AAs@
CONST	SEGMENT
??_C@_17CNPHIMPH@?$AA?$CF?$AAl?$AAs@ DB '%', 00H, 'l', 00H, 's', 00H, 00H
	DB	00H						; `string'
CONST	ENDS
;	COMDAT xdata$x
xdata$x	SEGMENT
__catchsym$?OnLogonDisposeResult@CDataBaseEngineSink@@AAEXKKPBD_NEGG@Z$5 DD 040H
	DD	00H
	DD	00H
	DD	FLAT:__catch$?OnLogonDisposeResult@CDataBaseEngineSink@@AAEXKKPBD_NEGG@Z$2
__catchsym$?OnLogonDisposeResult@CDataBaseEngineSink@@AAEXKKPBD_NEGG@Z$4 DD 040H
	DD	00H
	DD	00H
	DD	FLAT:__catch$?OnLogonDisposeResult@CDataBaseEngineSink@@AAEXKKPBD_NEGG@Z$0
__unwindtable$?OnLogonDisposeResult@CDataBaseEngineSink@@AAEXKKPBD_NEGG@Z DD 0ffffffffH
	DD	00H
	DD	0ffffffffH
	DD	00H
	DD	0ffffffffH
	DD	00H
	DD	0ffffffffH
	DD	00H
__ehfuncinfo$?OnLogonDisposeResult@CDataBaseEngineSink@@AAEXKKPBD_NEGG@Z DD 019930522H
	DD	04H
	DD	FLAT:__unwindtable$?OnLogonDisposeResult@CDataBaseEngineSink@@AAEXKKPBD_NEGG@Z
	DD	02H
	DD	FLAT:__tryblocktable$?OnLogonDisposeResult@CDataBaseEngineSink@@AAEXKKPBD_NEGG@Z
	DD	2 DUP(00H)
	DD	00H
	DD	01H
__tryblocktable$?OnLogonDisposeResult@CDataBaseEngineSink@@AAEXKKPBD_NEGG@Z DD 00H
	DD	00H
	DD	01H
	DD	01H
	DD	FLAT:__catchsym$?OnLogonDisposeResult@CDataBaseEngineSink@@AAEXKKPBD_NEGG@Z$4
	DD	02H
	DD	02H
	DD	03H
	DD	01H
	DD	FLAT:__catchsym$?OnLogonDisposeResult@CDataBaseEngineSink@@AAEXKKPBD_NEGG@Z$5
xdata$x	ENDS
;	COMDAT xdata$x
xdata$x	SEGMENT
__catchsym$?OnRequestTakeBaseEnsure@CDataBaseEngineSink@@IAE_NKPAXGAAK@Z$4 DD 00H
	DD	FLAT:??_R0PAUIDataBaseException@@@8
	DD	0fffffea4H
	DD	FLAT:__catch$?OnRequestTakeBaseEnsure@CDataBaseEngineSink@@IAE_NKPAXGAAK@Z$0
__tryblocktable$?OnRequestTakeBaseEnsure@CDataBaseEngineSink@@IAE_NKPAXGAAK@Z DD 00H
	DD	01H
	DD	02H
	DD	01H
	DD	FLAT:__catchsym$?OnRequestTakeBaseEnsure@CDataBaseEngineSink@@IAE_NKPAXGAAK@Z$4
__unwindtable$?OnRequestTakeBaseEnsure@CDataBaseEngineSink@@IAE_NKPAXGAAK@Z DD 0ffffffffH
	DD	00H
	DD	00H
	DD	FLAT:__unwindfunclet$?OnRequestTakeBaseEnsure@CDataBaseEngineSink@@IAE_NKPAXGAAK@Z$2
	DD	0ffffffffH
	DD	00H
__ehfuncinfo$?OnRequestTakeBaseEnsure@CDataBaseEngineSink@@IAE_NKPAXGAAK@Z DD 019930522H
	DD	03H
	DD	FLAT:__unwindtable$?OnRequestTakeBaseEnsure@CDataBaseEngineSink@@IAE_NKPAXGAAK@Z
	DD	01H
	DD	FLAT:__tryblocktable$?OnRequestTakeBaseEnsure@CDataBaseEngineSink@@IAE_NKPAXGAAK@Z
	DD	2 DUP(00H)
	DD	00H
	DD	01H
xdata$x	ENDS
;	COMDAT xdata$x
xdata$x	SEGMENT
__catchsym$?OnRequestLoadBaseEnsure@CDataBaseEngineSink@@IAE_NKPAXGAAK@Z$2 DD 00H
	DD	FLAT:??_R0PAUIDataBaseException@@@8
	DD	0ffffffc8H
	DD	FLAT:__catch$?OnRequestLoadBaseEnsure@CDataBaseEngineSink@@IAE_NKPAXGAAK@Z$0
__unwindtable$?OnRequestLoadBaseEnsure@CDataBaseEngineSink@@IAE_NKPAXGAAK@Z DD 0ffffffffH
	DD	00H
	DD	0ffffffffH
	DD	00H
__tryblocktable$?OnRequestLoadBaseEnsure@CDataBaseEngineSink@@IAE_NKPAXGAAK@Z DD 00H
	DD	00H
	DD	01H
	DD	01H
	DD	FLAT:__catchsym$?OnRequestLoadBaseEnsure@CDataBaseEngineSink@@IAE_NKPAXGAAK@Z$2
__ehfuncinfo$?OnRequestLoadBaseEnsure@CDataBaseEngineSink@@IAE_NKPAXGAAK@Z DD 019930522H
	DD	02H
	DD	FLAT:__unwindtable$?OnRequestLoadBaseEnsure@CDataBaseEngineSink@@IAE_NKPAXGAAK@Z
	DD	01H
	DD	FLAT:__tryblocktable$?OnRequestLoadBaseEnsure@CDataBaseEngineSink@@IAE_NKPAXGAAK@Z
	DD	2 DUP(00H)
	DD	00H
	DD	01H
xdata$x	ENDS
;	COMDAT xdata$x
xdata$x	SEGMENT
__catchsym$?OnRequestCheckInDone@CDataBaseEngineSink@@IAE_NKPAXGAAK@Z$4 DD 00H
	DD	FLAT:??_R0PAUIDataBaseException@@@8
	DD	0fffffea4H
	DD	FLAT:__catch$?OnRequestCheckInDone@CDataBaseEngineSink@@IAE_NKPAXGAAK@Z$0
__tryblocktable$?OnRequestCheckInDone@CDataBaseEngineSink@@IAE_NKPAXGAAK@Z DD 00H
	DD	01H
	DD	02H
	DD	01H
	DD	FLAT:__catchsym$?OnRequestCheckInDone@CDataBaseEngineSink@@IAE_NKPAXGAAK@Z$4
__unwindtable$?OnRequestCheckInDone@CDataBaseEngineSink@@IAE_NKPAXGAAK@Z DD 0ffffffffH
	DD	00H
	DD	00H
	DD	FLAT:__unwindfunclet$?OnRequestCheckInDone@CDataBaseEngineSink@@IAE_NKPAXGAAK@Z$2
	DD	0ffffffffH
	DD	00H
__ehfuncinfo$?OnRequestCheckInDone@CDataBaseEngineSink@@IAE_NKPAXGAAK@Z DD 019930522H
	DD	03H
	DD	FLAT:__unwindtable$?OnRequestCheckInDone@CDataBaseEngineSink@@IAE_NKPAXGAAK@Z
	DD	01H
	DD	FLAT:__tryblocktable$?OnRequestCheckInDone@CDataBaseEngineSink@@IAE_NKPAXGAAK@Z
	DD	2 DUP(00H)
	DD	00H
	DD	01H
xdata$x	ENDS
;	COMDAT xdata$x
xdata$x	SEGMENT
__catchsym$?OnRequestCheckInQueryInfo@CDataBaseEngineSink@@IAE_NKPAXGAAK@Z$4 DD 00H
	DD	FLAT:??_R0PAUIDataBaseException@@@8
	DD	0fffffeb8H
	DD	FLAT:__catch$?OnRequestCheckInQueryInfo@CDataBaseEngineSink@@IAE_NKPAXGAAK@Z$0
__tryblocktable$?OnRequestCheckInQueryInfo@CDataBaseEngineSink@@IAE_NKPAXGAAK@Z DD 00H
	DD	01H
	DD	02H
	DD	01H
	DD	FLAT:__catchsym$?OnRequestCheckInQueryInfo@CDataBaseEngineSink@@IAE_NKPAXGAAK@Z$4
__unwindtable$?OnRequestCheckInQueryInfo@CDataBaseEngineSink@@IAE_NKPAXGAAK@Z DD 0ffffffffH
	DD	00H
	DD	00H
	DD	FLAT:__unwindfunclet$?OnRequestCheckInQueryInfo@CDataBaseEngineSink@@IAE_NKPAXGAAK@Z$2
	DD	0ffffffffH
	DD	00H
__ehfuncinfo$?OnRequestCheckInQueryInfo@CDataBaseEngineSink@@IAE_NKPAXGAAK@Z DD 019930522H
	DD	03H
	DD	FLAT:__unwindtable$?OnRequestCheckInQueryInfo@CDataBaseEngineSink@@IAE_NKPAXGAAK@Z
	DD	01H
	DD	FLAT:__tryblocktable$?OnRequestCheckInQueryInfo@CDataBaseEngineSink@@IAE_NKPAXGAAK@Z
	DD	2 DUP(00H)
	DD	00H
	DD	01H
xdata$x	ENDS
;	COMDAT xdata$x
xdata$x	SEGMENT
__catchsym$?OnRequestLoadCheckIn@CDataBaseEngineSink@@IAE_NKPAXGAAK@Z$2 DD 00H
	DD	FLAT:??_R0PAUIDataBaseException@@@8
	DD	0ffffffa4H
	DD	FLAT:__catch$?OnRequestLoadCheckIn@CDataBaseEngineSink@@IAE_NKPAXGAAK@Z$0
__unwindtable$?OnRequestLoadCheckIn@CDataBaseEngineSink@@IAE_NKPAXGAAK@Z DD 0ffffffffH
	DD	00H
	DD	0ffffffffH
	DD	00H
__tryblocktable$?OnRequestLoadCheckIn@CDataBaseEngineSink@@IAE_NKPAXGAAK@Z DD 00H
	DD	00H
	DD	01H
	DD	01H
	DD	FLAT:__catchsym$?OnRequestLoadCheckIn@CDataBaseEngineSink@@IAE_NKPAXGAAK@Z$2
__ehfuncinfo$?OnRequestLoadCheckIn@CDataBaseEngineSink@@IAE_NKPAXGAAK@Z DD 019930522H
	DD	02H
	DD	FLAT:__unwindtable$?OnRequestLoadCheckIn@CDataBaseEngineSink@@IAE_NKPAXGAAK@Z
	DD	01H
	DD	FLAT:__tryblocktable$?OnRequestLoadCheckIn@CDataBaseEngineSink@@IAE_NKPAXGAAK@Z
	DD	2 DUP(00H)
	DD	00H
	DD	01H
xdata$x	ENDS
;	COMDAT xdata$x
xdata$x	SEGMENT
__catchsym$?OnRequestWriteVideoDataInfo@CDataBaseEngineSink@@IAE_NKPAXGAAK@Z$3 DD 040H
	DD	00H
	DD	00H
	DD	FLAT:__catch$?OnRequestWriteVideoDataInfo@CDataBaseEngineSink@@IAE_NKPAXGAAK@Z$0
__tryblocktable$?OnRequestWriteVideoDataInfo@CDataBaseEngineSink@@IAE_NKPAXGAAK@Z DD 00H
	DD	01H
	DD	02H
	DD	01H
	DD	FLAT:__catchsym$?OnRequestWriteVideoDataInfo@CDataBaseEngineSink@@IAE_NKPAXGAAK@Z$3
__unwindtable$?OnRequestWriteVideoDataInfo@CDataBaseEngineSink@@IAE_NKPAXGAAK@Z DD 0ffffffffH
	DD	00H
	DD	00H
	DD	FLAT:__unwindfunclet$?OnRequestWriteVideoDataInfo@CDataBaseEngineSink@@IAE_NKPAXGAAK@Z$2
	DD	0ffffffffH
	DD	00H
__ehfuncinfo$?OnRequestWriteVideoDataInfo@CDataBaseEngineSink@@IAE_NKPAXGAAK@Z DD 019930522H
	DD	03H
	DD	FLAT:__unwindtable$?OnRequestWriteVideoDataInfo@CDataBaseEngineSink@@IAE_NKPAXGAAK@Z
	DD	01H
	DD	FLAT:__tryblocktable$?OnRequestWriteVideoDataInfo@CDataBaseEngineSink@@IAE_NKPAXGAAK@Z
	DD	2 DUP(00H)
	DD	00H
	DD	01H
xdata$x	ENDS
;	COMDAT xdata$x
xdata$x	SEGMENT
__catchsym$?OnRequestWriteVideoPlayerInfo@CDataBaseEngineSink@@IAE_NKPAXGAAK@Z$2 DD 040H
	DD	00H
	DD	00H
	DD	FLAT:__catch$?OnRequestWriteVideoPlayerInfo@CDataBaseEngineSink@@IAE_NKPAXGAAK@Z$0
__unwindtable$?OnRequestWriteVideoPlayerInfo@CDataBaseEngineSink@@IAE_NKPAXGAAK@Z DD 0ffffffffH
	DD	00H
	DD	0ffffffffH
	DD	00H
__tryblocktable$?OnRequestWriteVideoPlayerInfo@CDataBaseEngineSink@@IAE_NKPAXGAAK@Z DD 00H
	DD	00H
	DD	01H
	DD	01H
	DD	FLAT:__catchsym$?OnRequestWriteVideoPlayerInfo@CDataBaseEngineSink@@IAE_NKPAXGAAK@Z$2
__ehfuncinfo$?OnRequestWriteVideoPlayerInfo@CDataBaseEngineSink@@IAE_NKPAXGAAK@Z DD 019930522H
	DD	02H
	DD	FLAT:__unwindtable$?OnRequestWriteVideoPlayerInfo@CDataBaseEngineSink@@IAE_NKPAXGAAK@Z
	DD	01H
	DD	FLAT:__tryblocktable$?OnRequestWriteVideoPlayerInfo@CDataBaseEngineSink@@IAE_NKPAXGAAK@Z
	DD	2 DUP(00H)
	DD	00H
	DD	01H
xdata$x	ENDS
;	COMDAT xdata$x
xdata$x	SEGMENT
__catchsym$?OnRequestPayRoomCard@CDataBaseEngineSink@@IAE_NKPAXGAAK@Z$2 DD 00H
	DD	FLAT:??_R0PAUIDataBaseException@@@8
	DD	0ffffff08H
	DD	FLAT:__catch$?OnRequestPayRoomCard@CDataBaseEngineSink@@IAE_NKPAXGAAK@Z$0
__unwindtable$?OnRequestPayRoomCard@CDataBaseEngineSink@@IAE_NKPAXGAAK@Z DD 0ffffffffH
	DD	00H
	DD	0ffffffffH
	DD	00H
__tryblocktable$?OnRequestPayRoomCard@CDataBaseEngineSink@@IAE_NKPAXGAAK@Z DD 00H
	DD	00H
	DD	01H
	DD	01H
	DD	FLAT:__catchsym$?OnRequestPayRoomCard@CDataBaseEngineSink@@IAE_NKPAXGAAK@Z$2
__ehfuncinfo$?OnRequestPayRoomCard@CDataBaseEngineSink@@IAE_NKPAXGAAK@Z DD 019930522H
	DD	02H
	DD	FLAT:__unwindtable$?OnRequestPayRoomCard@CDataBaseEngineSink@@IAE_NKPAXGAAK@Z
	DD	01H
	DD	FLAT:__tryblocktable$?OnRequestPayRoomCard@CDataBaseEngineSink@@IAE_NKPAXGAAK@Z
	DD	2 DUP(00H)
	DD	00H
	DD	01H
xdata$x	ENDS
;	COMDAT xdata$x
xdata$x	SEGMENT
__catchsym$?OnRequestWriteJoinInfo@CDataBaseEngineSink@@IAE_NKPAXGAAK@Z$2 DD 040H
	DD	00H
	DD	00H
	DD	FLAT:__catch$?OnRequestWriteJoinInfo@CDataBaseEngineSink@@IAE_NKPAXGAAK@Z$0
__unwindtable$?OnRequestWriteJoinInfo@CDataBaseEngineSink@@IAE_NKPAXGAAK@Z DD 0ffffffffH
	DD	00H
	DD	0ffffffffH
	DD	00H
__tryblocktable$?OnRequestWriteJoinInfo@CDataBaseEngineSink@@IAE_NKPAXGAAK@Z DD 00H
	DD	00H
	DD	01H
	DD	01H
	DD	FLAT:__catchsym$?OnRequestWriteJoinInfo@CDataBaseEngineSink@@IAE_NKPAXGAAK@Z$2
__ehfuncinfo$?OnRequestWriteJoinInfo@CDataBaseEngineSink@@IAE_NKPAXGAAK@Z DD 019930522H
	DD	02H
	DD	FLAT:__unwindtable$?OnRequestWriteJoinInfo@CDataBaseEngineSink@@IAE_NKPAXGAAK@Z
	DD	01H
	DD	FLAT:__tryblocktable$?OnRequestWriteJoinInfo@CDataBaseEngineSink@@IAE_NKPAXGAAK@Z
	DD	2 DUP(00H)
	DD	00H
	DD	01H
xdata$x	ENDS
;	COMDAT xdata$x
xdata$x	SEGMENT
__catchsym$?OnRequestWritePersonalGameScore@CDataBaseEngineSink@@IAE_NKPAXGAAK@Z$2 DD 00H
	DD	FLAT:??_R0PAUIDataBaseException@@@8
	DD	0ffffff94H
	DD	FLAT:__catch$?OnRequestWritePersonalGameScore@CDataBaseEngineSink@@IAE_NKPAXGAAK@Z$0
__unwindtable$?OnRequestWritePersonalGameScore@CDataBaseEngineSink@@IAE_NKPAXGAAK@Z DD 0ffffffffH
	DD	00H
	DD	0ffffffffH
	DD	00H
__tryblocktable$?OnRequestWritePersonalGameScore@CDataBaseEngineSink@@IAE_NKPAXGAAK@Z DD 00H
	DD	00H
	DD	01H
	DD	01H
	DD	FLAT:__catchsym$?OnRequestWritePersonalGameScore@CDataBaseEngineSink@@IAE_NKPAXGAAK@Z$2
__ehfuncinfo$?OnRequestWritePersonalGameScore@CDataBaseEngineSink@@IAE_NKPAXGAAK@Z DD 019930522H
	DD	02H
	DD	FLAT:__unwindtable$?OnRequestWritePersonalGameScore@CDataBaseEngineSink@@IAE_NKPAXGAAK@Z
	DD	01H
	DD	FLAT:__tryblocktable$?OnRequestWritePersonalGameScore@CDataBaseEngineSink@@IAE_NKPAXGAAK@Z
	DD	2 DUP(00H)
	DD	00H
	DD	01H
xdata$x	ENDS
;	COMDAT xdata$x
xdata$x	SEGMENT
__catchsym$?OnRequestLoadPersonalParameter@CDataBaseEngineSink@@IAE_NKPAXGAAK@Z$2 DD 00H
	DD	FLAT:??_R0PAUIDataBaseException@@@8
	DD	0ffffbddcH
	DD	FLAT:__catch$?OnRequestLoadPersonalParameter@CDataBaseEngineSink@@IAE_NKPAXGAAK@Z$0
__unwindtable$?OnRequestLoadPersonalParameter@CDataBaseEngineSink@@IAE_NKPAXGAAK@Z DD 0ffffffffH
	DD	00H
	DD	0ffffffffH
	DD	00H
__tryblocktable$?OnRequestLoadPersonalParameter@CDataBaseEngineSink@@IAE_NKPAXGAAK@Z DD 00H
	DD	00H
	DD	01H
	DD	01H
	DD	FLAT:__catchsym$?OnRequestLoadPersonalParameter@CDataBaseEngineSink@@IAE_NKPAXGAAK@Z$2
__ehfuncinfo$?OnRequestLoadPersonalParameter@CDataBaseEngineSink@@IAE_NKPAXGAAK@Z DD 019930522H
	DD	02H
	DD	FLAT:__unwindtable$?OnRequestLoadPersonalParameter@CDataBaseEngineSink@@IAE_NKPAXGAAK@Z
	DD	01H
	DD	FLAT:__tryblocktable$?OnRequestLoadPersonalParameter@CDataBaseEngineSink@@IAE_NKPAXGAAK@Z
	DD	2 DUP(00H)
	DD	00H
	DD	01H
xdata$x	ENDS
;	COMDAT xdata$x
xdata$x	SEGMENT
__catchsym$?OnRequestHostCancelCreateTable@CDataBaseEngineSink@@IAE_NKPAXGAAK@Z$2 DD 00H
	DD	FLAT:??_R0PAUIDataBaseException@@@8
	DD	0ffffff08H
	DD	FLAT:__catch$?OnRequestHostCancelCreateTable@CDataBaseEngineSink@@IAE_NKPAXGAAK@Z$0
__unwindtable$?OnRequestHostCancelCreateTable@CDataBaseEngineSink@@IAE_NKPAXGAAK@Z DD 0ffffffffH
	DD	00H
	DD	0ffffffffH
	DD	00H
__tryblocktable$?OnRequestHostCancelCreateTable@CDataBaseEngineSink@@IAE_NKPAXGAAK@Z DD 00H
	DD	00H
	DD	01H
	DD	01H
	DD	FLAT:__catchsym$?OnRequestHostCancelCreateTable@CDataBaseEngineSink@@IAE_NKPAXGAAK@Z$2
__ehfuncinfo$?OnRequestHostCancelCreateTable@CDataBaseEngineSink@@IAE_NKPAXGAAK@Z DD 019930522H
	DD	02H
	DD	FLAT:__unwindtable$?OnRequestHostCancelCreateTable@CDataBaseEngineSink@@IAE_NKPAXGAAK@Z
	DD	01H
	DD	FLAT:__tryblocktable$?OnRequestHostCancelCreateTable@CDataBaseEngineSink@@IAE_NKPAXGAAK@Z
	DD	2 DUP(00H)
	DD	00H
	DD	01H
xdata$x	ENDS
;	COMDAT xdata$x
xdata$x	SEGMENT
__catchsym$?OnRequestCancelCreateTable@CDataBaseEngineSink@@IAE_NKPAXGAAK@Z$4 DD 00H
	DD	FLAT:??_R0PAUIDataBaseException@@@8
	DD	0fffffeacH
	DD	FLAT:__catch$?OnRequestCancelCreateTable@CDataBaseEngineSink@@IAE_NKPAXGAAK@Z$0
__tryblocktable$?OnRequestCancelCreateTable@CDataBaseEngineSink@@IAE_NKPAXGAAK@Z DD 00H
	DD	01H
	DD	02H
	DD	01H
	DD	FLAT:__catchsym$?OnRequestCancelCreateTable@CDataBaseEngineSink@@IAE_NKPAXGAAK@Z$4
__unwindtable$?OnRequestCancelCreateTable@CDataBaseEngineSink@@IAE_NKPAXGAAK@Z DD 0ffffffffH
	DD	00H
	DD	00H
	DD	FLAT:__unwindfunclet$?OnRequestCancelCreateTable@CDataBaseEngineSink@@IAE_NKPAXGAAK@Z$2
	DD	0ffffffffH
	DD	00H
__ehfuncinfo$?OnRequestCancelCreateTable@CDataBaseEngineSink@@IAE_NKPAXGAAK@Z DD 019930522H
	DD	03H
	DD	FLAT:__unwindtable$?OnRequestCancelCreateTable@CDataBaseEngineSink@@IAE_NKPAXGAAK@Z
	DD	01H
	DD	FLAT:__tryblocktable$?OnRequestCancelCreateTable@CDataBaseEngineSink@@IAE_NKPAXGAAK@Z
	DD	2 DUP(00H)
	DD	00H
	DD	01H
xdata$x	ENDS
;	COMDAT xdata$x
xdata$x	SEGMENT
__catchsym$?OnRequsetDissumeRoom@CDataBaseEngineSink@@IAE_NKPAXGAAK@Z$3 DD 00H
	DD	FLAT:??_R0PAUIDataBaseException@@@8
	DD	0fffff5e0H
	DD	FLAT:__catch$?OnRequsetDissumeRoom@CDataBaseEngineSink@@IAE_NKPAXGAAK@Z$0
__tryblocktable$?OnRequsetDissumeRoom@CDataBaseEngineSink@@IAE_NKPAXGAAK@Z DD 00H
	DD	01H
	DD	02H
	DD	01H
	DD	FLAT:__catchsym$?OnRequsetDissumeRoom@CDataBaseEngineSink@@IAE_NKPAXGAAK@Z$3
__unwindtable$?OnRequsetDissumeRoom@CDataBaseEngineSink@@IAE_NKPAXGAAK@Z DD 0ffffffffH
	DD	00H
	DD	00H
	DD	FLAT:__unwindfunclet$?OnRequsetDissumeRoom@CDataBaseEngineSink@@IAE_NKPAXGAAK@Z$2
	DD	0ffffffffH
	DD	00H
__ehfuncinfo$?OnRequsetDissumeRoom@CDataBaseEngineSink@@IAE_NKPAXGAAK@Z DD 019930522H
	DD	03H
	DD	FLAT:__unwindtable$?OnRequsetDissumeRoom@CDataBaseEngineSink@@IAE_NKPAXGAAK@Z
	DD	01H
	DD	FLAT:__tryblocktable$?OnRequsetDissumeRoom@CDataBaseEngineSink@@IAE_NKPAXGAAK@Z
	DD	2 DUP(00H)
	DD	00H
	DD	01H
xdata$x	ENDS
;	COMDAT xdata$x
xdata$x	SEGMENT
__catchsym$?OnRequsetInsertCreateRecord@CDataBaseEngineSink@@IAE_NKPAXGAAK@Z$2 DD 00H
	DD	FLAT:??_R0PAUIDataBaseException@@@8
	DD	0ffffff60H
	DD	FLAT:__catch$?OnRequsetInsertCreateRecord@CDataBaseEngineSink@@IAE_NKPAXGAAK@Z$0
__unwindtable$?OnRequsetInsertCreateRecord@CDataBaseEngineSink@@IAE_NKPAXGAAK@Z DD 0ffffffffH
	DD	00H
	DD	0ffffffffH
	DD	00H
__tryblocktable$?OnRequsetInsertCreateRecord@CDataBaseEngineSink@@IAE_NKPAXGAAK@Z DD 00H
	DD	00H
	DD	01H
	DD	01H
	DD	FLAT:__catchsym$?OnRequsetInsertCreateRecord@CDataBaseEngineSink@@IAE_NKPAXGAAK@Z$2
__ehfuncinfo$?OnRequsetInsertCreateRecord@CDataBaseEngineSink@@IAE_NKPAXGAAK@Z DD 019930522H
	DD	02H
	DD	FLAT:__unwindtable$?OnRequsetInsertCreateRecord@CDataBaseEngineSink@@IAE_NKPAXGAAK@Z
	DD	01H
	DD	FLAT:__tryblocktable$?OnRequsetInsertCreateRecord@CDataBaseEngineSink@@IAE_NKPAXGAAK@Z
	DD	2 DUP(00H)
	DD	00H
	DD	01H
xdata$x	ENDS
;	COMDAT xdata$x
xdata$x	SEGMENT
__catchsym$?OnRequestCreateTable@CDataBaseEngineSink@@IAE_NKPAXGAAK@Z$4 DD 00H
	DD	FLAT:??_R0PAUIDataBaseException@@@8
	DD	0fffffdb4H
	DD	FLAT:__catch$?OnRequestCreateTable@CDataBaseEngineSink@@IAE_NKPAXGAAK@Z$0
__tryblocktable$?OnRequestCreateTable@CDataBaseEngineSink@@IAE_NKPAXGAAK@Z DD 00H
	DD	01H
	DD	02H
	DD	01H
	DD	FLAT:__catchsym$?OnRequestCreateTable@CDataBaseEngineSink@@IAE_NKPAXGAAK@Z$4
__unwindtable$?OnRequestCreateTable@CDataBaseEngineSink@@IAE_NKPAXGAAK@Z DD 0ffffffffH
	DD	00H
	DD	00H
	DD	FLAT:__unwindfunclet$?OnRequestCreateTable@CDataBaseEngineSink@@IAE_NKPAXGAAK@Z$2
	DD	0ffffffffH
	DD	00H
__ehfuncinfo$?OnRequestCreateTable@CDataBaseEngineSink@@IAE_NKPAXGAAK@Z DD 019930522H
	DD	03H
	DD	FLAT:__unwindtable$?OnRequestCreateTable@CDataBaseEngineSink@@IAE_NKPAXGAAK@Z
	DD	01H
	DD	FLAT:__tryblocktable$?OnRequestCreateTable@CDataBaseEngineSink@@IAE_NKPAXGAAK@Z
	DD	2 DUP(00H)
	DD	00H
	DD	01H
xdata$x	ENDS
;	COMDAT xdata$x
xdata$x	SEGMENT
__catchsym$?OnRequestExchangeScoreByBeans@CDataBaseEngineSink@@IAE_NKPAXGAAK@Z$4 DD 00H
	DD	FLAT:??_R0PAUIDataBaseException@@@8
	DD	0fffffe70H
	DD	FLAT:__catch$?OnRequestExchangeScoreByBeans@CDataBaseEngineSink@@IAE_NKPAXGAAK@Z$0
__tryblocktable$?OnRequestExchangeScoreByBeans@CDataBaseEngineSink@@IAE_NKPAXGAAK@Z DD 00H
	DD	01H
	DD	02H
	DD	01H
	DD	FLAT:__catchsym$?OnRequestExchangeScoreByBeans@CDataBaseEngineSink@@IAE_NKPAXGAAK@Z$4
__unwindtable$?OnRequestExchangeScoreByBeans@CDataBaseEngineSink@@IAE_NKPAXGAAK@Z DD 0ffffffffH
	DD	00H
	DD	00H
	DD	FLAT:__unwindfunclet$?OnRequestExchangeScoreByBeans@CDataBaseEngineSink@@IAE_NKPAXGAAK@Z$2
	DD	0ffffffffH
	DD	00H
__ehfuncinfo$?OnRequestExchangeScoreByBeans@CDataBaseEngineSink@@IAE_NKPAXGAAK@Z DD 019930522H
	DD	03H
	DD	FLAT:__unwindtable$?OnRequestExchangeScoreByBeans@CDataBaseEngineSink@@IAE_NKPAXGAAK@Z
	DD	01H
	DD	FLAT:__tryblocktable$?OnRequestExchangeScoreByBeans@CDataBaseEngineSink@@IAE_NKPAXGAAK@Z
	DD	2 DUP(00H)
	DD	00H
	DD	01H
xdata$x	ENDS
;	COMDAT xdata$x
xdata$x	SEGMENT
__catchsym$?OnRequestExchangeScoreByIngot@CDataBaseEngineSink@@IAE_NKPAXGAAK@Z$4 DD 00H
	DD	FLAT:??_R0PAUIDataBaseException@@@8
	DD	0fffffe70H
	DD	FLAT:__catch$?OnRequestExchangeScoreByIngot@CDataBaseEngineSink@@IAE_NKPAXGAAK@Z$0
__tryblocktable$?OnRequestExchangeScoreByIngot@CDataBaseEngineSink@@IAE_NKPAXGAAK@Z DD 00H
	DD	01H
	DD	02H
	DD	01H
	DD	FLAT:__catchsym$?OnRequestExchangeScoreByIngot@CDataBaseEngineSink@@IAE_NKPAXGAAK@Z$4
__unwindtable$?OnRequestExchangeScoreByIngot@CDataBaseEngineSink@@IAE_NKPAXGAAK@Z DD 0ffffffffH
	DD	00H
	DD	00H
	DD	FLAT:__unwindfunclet$?OnRequestExchangeScoreByIngot@CDataBaseEngineSink@@IAE_NKPAXGAAK@Z$2
	DD	0ffffffffH
	DD	00H
__ehfuncinfo$?OnRequestExchangeScoreByIngot@CDataBaseEngineSink@@IAE_NKPAXGAAK@Z DD 019930522H
	DD	03H
	DD	FLAT:__unwindtable$?OnRequestExchangeScoreByIngot@CDataBaseEngineSink@@IAE_NKPAXGAAK@Z
	DD	01H
	DD	FLAT:__tryblocktable$?OnRequestExchangeScoreByIngot@CDataBaseEngineSink@@IAE_NKPAXGAAK@Z
	DD	2 DUP(00H)
	DD	00H
	DD	01H
xdata$x	ENDS
;	COMDAT xdata$x
xdata$x	SEGMENT
__catchsym$?OnRequestPurchaseMember@CDataBaseEngineSink@@IAE_NKPAXGAAK@Z$4 DD 00H
	DD	FLAT:??_R0PAUIDataBaseException@@@8
	DD	0fffffe6cH
	DD	FLAT:__catch$?OnRequestPurchaseMember@CDataBaseEngineSink@@IAE_NKPAXGAAK@Z$0
__tryblocktable$?OnRequestPurchaseMember@CDataBaseEngineSink@@IAE_NKPAXGAAK@Z DD 00H
	DD	01H
	DD	02H
	DD	01H
	DD	FLAT:__catchsym$?OnRequestPurchaseMember@CDataBaseEngineSink@@IAE_NKPAXGAAK@Z$4
__unwindtable$?OnRequestPurchaseMember@CDataBaseEngineSink@@IAE_NKPAXGAAK@Z DD 0ffffffffH
	DD	00H
	DD	00H
	DD	FLAT:__unwindfunclet$?OnRequestPurchaseMember@CDataBaseEngineSink@@IAE_NKPAXGAAK@Z$2
	DD	0ffffffffH
	DD	00H
__ehfuncinfo$?OnRequestPurchaseMember@CDataBaseEngineSink@@IAE_NKPAXGAAK@Z DD 019930522H
	DD	03H
	DD	FLAT:__unwindtable$?OnRequestPurchaseMember@CDataBaseEngineSink@@IAE_NKPAXGAAK@Z
	DD	01H
	DD	FLAT:__tryblocktable$?OnRequestPurchaseMember@CDataBaseEngineSink@@IAE_NKPAXGAAK@Z
	DD	2 DUP(00H)
	DD	00H
	DD	01H
xdata$x	ENDS
;	COMDAT xdata$x
xdata$x	SEGMENT
__catchsym$?OnRequestMemberDayGift@CDataBaseEngineSink@@IAE_NKPAXGAAK@Z$4 DD 00H
	DD	FLAT:??_R0PAUIDataBaseException@@@8
	DD	0fffffeb0H
	DD	FLAT:__catch$?OnRequestMemberDayGift@CDataBaseEngineSink@@IAE_NKPAXGAAK@Z$0
__tryblocktable$?OnRequestMemberDayGift@CDataBaseEngineSink@@IAE_NKPAXGAAK@Z DD 00H
	DD	01H
	DD	02H
	DD	01H
	DD	FLAT:__catchsym$?OnRequestMemberDayGift@CDataBaseEngineSink@@IAE_NKPAXGAAK@Z$4
__unwindtable$?OnRequestMemberDayGift@CDataBaseEngineSink@@IAE_NKPAXGAAK@Z DD 0ffffffffH
	DD	00H
	DD	00H
	DD	FLAT:__unwindfunclet$?OnRequestMemberDayGift@CDataBaseEngineSink@@IAE_NKPAXGAAK@Z$2
	DD	0ffffffffH
	DD	00H
__ehfuncinfo$?OnRequestMemberDayGift@CDataBaseEngineSink@@IAE_NKPAXGAAK@Z DD 019930522H
	DD	03H
	DD	FLAT:__unwindtable$?OnRequestMemberDayGift@CDataBaseEngineSink@@IAE_NKPAXGAAK@Z
	DD	01H
	DD	FLAT:__tryblocktable$?OnRequestMemberDayGift@CDataBaseEngineSink@@IAE_NKPAXGAAK@Z
	DD	2 DUP(00H)
	DD	00H
	DD	01H
xdata$x	ENDS
;	COMDAT xdata$x
xdata$x	SEGMENT
__catchsym$?OnRequestMemberDayPresent@CDataBaseEngineSink@@IAE_NKPAXGAAK@Z$4 DD 00H
	DD	FLAT:??_R0PAUIDataBaseException@@@8
	DD	0fffffea4H
	DD	FLAT:__catch$?OnRequestMemberDayPresent@CDataBaseEngineSink@@IAE_NKPAXGAAK@Z$0
__tryblocktable$?OnRequestMemberDayPresent@CDataBaseEngineSink@@IAE_NKPAXGAAK@Z DD 00H
	DD	01H
	DD	02H
	DD	01H
	DD	FLAT:__catchsym$?OnRequestMemberDayPresent@CDataBaseEngineSink@@IAE_NKPAXGAAK@Z$4
__unwindtable$?OnRequestMemberDayPresent@CDataBaseEngineSink@@IAE_NKPAXGAAK@Z DD 0ffffffffH
	DD	00H
	DD	00H
	DD	FLAT:__unwindfunclet$?OnRequestMemberDayPresent@CDataBaseEngineSink@@IAE_NKPAXGAAK@Z$2
	DD	0ffffffffH
	DD	00H
__ehfuncinfo$?OnRequestMemberDayPresent@CDataBaseEngineSink@@IAE_NKPAXGAAK@Z DD 019930522H
	DD	03H
	DD	FLAT:__unwindtable$?OnRequestMemberDayPresent@CDataBaseEngineSink@@IAE_NKPAXGAAK@Z
	DD	01H
	DD	FLAT:__tryblocktable$?OnRequestMemberDayPresent@CDataBaseEngineSink@@IAE_NKPAXGAAK@Z
	DD	2 DUP(00H)
	DD	00H
	DD	01H
xdata$x	ENDS
;	COMDAT xdata$x
xdata$x	SEGMENT
__catchsym$?OnRequestMemberQueryInfo@CDataBaseEngineSink@@IAE_NKPAXGAAK@Z$2 DD 00H
	DD	FLAT:??_R0PAUIDataBaseException@@@8
	DD	0fffffeecH
	DD	FLAT:__catch$?OnRequestMemberQueryInfo@CDataBaseEngineSink@@IAE_NKPAXGAAK@Z$0
__unwindtable$?OnRequestMemberQueryInfo@CDataBaseEngineSink@@IAE_NKPAXGAAK@Z DD 0ffffffffH
	DD	00H
	DD	0ffffffffH
	DD	00H
__tryblocktable$?OnRequestMemberQueryInfo@CDataBaseEngineSink@@IAE_NKPAXGAAK@Z DD 00H
	DD	00H
	DD	01H
	DD	01H
	DD	FLAT:__catchsym$?OnRequestMemberQueryInfo@CDataBaseEngineSink@@IAE_NKPAXGAAK@Z$2
__ehfuncinfo$?OnRequestMemberQueryInfo@CDataBaseEngineSink@@IAE_NKPAXGAAK@Z DD 019930522H
	DD	02H
	DD	FLAT:__unwindtable$?OnRequestMemberQueryInfo@CDataBaseEngineSink@@IAE_NKPAXGAAK@Z
	DD	01H
	DD	FLAT:__tryblocktable$?OnRequestMemberQueryInfo@CDataBaseEngineSink@@IAE_NKPAXGAAK@Z
	DD	2 DUP(00H)
	DD	00H
	DD	01H
xdata$x	ENDS
;	COMDAT xdata$x
xdata$x	SEGMENT
__catchsym$?OnRequestMemberLoadParameter@CDataBaseEngineSink@@IAE_NKPAXGAAK@Z$2 DD 00H
	DD	FLAT:??_R0PAUIDataBaseException@@@8
	DD	0fffff590H
	DD	FLAT:__catch$?OnRequestMemberLoadParameter@CDataBaseEngineSink@@IAE_NKPAXGAAK@Z$0
__unwindtable$?OnRequestMemberLoadParameter@CDataBaseEngineSink@@IAE_NKPAXGAAK@Z DD 0ffffffffH
	DD	00H
	DD	0ffffffffH
	DD	00H
__tryblocktable$?OnRequestMemberLoadParameter@CDataBaseEngineSink@@IAE_NKPAXGAAK@Z DD 00H
	DD	00H
	DD	01H
	DD	01H
	DD	FLAT:__catchsym$?OnRequestMemberLoadParameter@CDataBaseEngineSink@@IAE_NKPAXGAAK@Z$2
__ehfuncinfo$?OnRequestMemberLoadParameter@CDataBaseEngineSink@@IAE_NKPAXGAAK@Z DD 019930522H
	DD	02H
	DD	FLAT:__unwindtable$?OnRequestMemberLoadParameter@CDataBaseEngineSink@@IAE_NKPAXGAAK@Z
	DD	01H
	DD	FLAT:__tryblocktable$?OnRequestMemberLoadParameter@CDataBaseEngineSink@@IAE_NKPAXGAAK@Z
	DD	2 DUP(00H)
	DD	00H
	DD	01H
xdata$x	ENDS
;	COMDAT xdata$x
xdata$x	SEGMENT
__catchsym$?OnRequestRoomTaskProgress@CDataBaseEngineSink@@IAE_NKPAXGAAK@Z$2 DD 00H
	DD	FLAT:??_R0PAUIDataBaseException@@@8
	DD	0ffffffe0H
	DD	FLAT:__catch$?OnRequestRoomTaskProgress@CDataBaseEngineSink@@IAE_NKPAXGAAK@Z$0
__unwindtable$?OnRequestRoomTaskProgress@CDataBaseEngineSink@@IAE_NKPAXGAAK@Z DD 0ffffffffH
	DD	00H
	DD	0ffffffffH
	DD	00H
__tryblocktable$?OnRequestRoomTaskProgress@CDataBaseEngineSink@@IAE_NKPAXGAAK@Z DD 00H
	DD	00H
	DD	01H
	DD	01H
	DD	FLAT:__catchsym$?OnRequestRoomTaskProgress@CDataBaseEngineSink@@IAE_NKPAXGAAK@Z$2
__ehfuncinfo$?OnRequestRoomTaskProgress@CDataBaseEngineSink@@IAE_NKPAXGAAK@Z DD 019930522H
	DD	02H
	DD	FLAT:__unwindtable$?OnRequestRoomTaskProgress@CDataBaseEngineSink@@IAE_NKPAXGAAK@Z
	DD	01H
	DD	FLAT:__tryblocktable$?OnRequestRoomTaskProgress@CDataBaseEngineSink@@IAE_NKPAXGAAK@Z
	DD	2 DUP(00H)
	DD	00H
	DD	01H
xdata$x	ENDS
;	COMDAT xdata$x
xdata$x	SEGMENT
__catchsym$?OnRequestTaskQueryInfo@CDataBaseEngineSink@@IAE_NKPAXGAAK@Z$4 DD 00H
	DD	FLAT:??_R0PAUIDataBaseException@@@8
	DD	0fffffc24H
	DD	FLAT:__catch$?OnRequestTaskQueryInfo@CDataBaseEngineSink@@IAE_NKPAXGAAK@Z$0
__tryblocktable$?OnRequestTaskQueryInfo@CDataBaseEngineSink@@IAE_NKPAXGAAK@Z DD 00H
	DD	01H
	DD	02H
	DD	01H
	DD	FLAT:__catchsym$?OnRequestTaskQueryInfo@CDataBaseEngineSink@@IAE_NKPAXGAAK@Z$4
__unwindtable$?OnRequestTaskQueryInfo@CDataBaseEngineSink@@IAE_NKPAXGAAK@Z DD 0ffffffffH
	DD	00H
	DD	00H
	DD	FLAT:__unwindfunclet$?OnRequestTaskQueryInfo@CDataBaseEngineSink@@IAE_NKPAXGAAK@Z$2
	DD	0ffffffffH
	DD	00H
__ehfuncinfo$?OnRequestTaskQueryInfo@CDataBaseEngineSink@@IAE_NKPAXGAAK@Z DD 019930522H
	DD	03H
	DD	FLAT:__unwindtable$?OnRequestTaskQueryInfo@CDataBaseEngineSink@@IAE_NKPAXGAAK@Z
	DD	01H
	DD	FLAT:__tryblocktable$?OnRequestTaskQueryInfo@CDataBaseEngineSink@@IAE_NKPAXGAAK@Z
	DD	2 DUP(00H)
	DD	00H
	DD	01H
xdata$x	ENDS
;	COMDAT xdata$x
xdata$x	SEGMENT
__catchsym$?OnRequestLoadTaskList@CDataBaseEngineSink@@IAE_NKPAXGAAK@Z$2 DD 00H
	DD	FLAT:??_R0PAUIDataBaseException@@@8
	DD	0ffffc228H
	DD	FLAT:__catch$?OnRequestLoadTaskList@CDataBaseEngineSink@@IAE_NKPAXGAAK@Z$0
__unwindtable$?OnRequestLoadTaskList@CDataBaseEngineSink@@IAE_NKPAXGAAK@Z DD 0ffffffffH
	DD	00H
	DD	0ffffffffH
	DD	00H
__tryblocktable$?OnRequestLoadTaskList@CDataBaseEngineSink@@IAE_NKPAXGAAK@Z DD 00H
	DD	00H
	DD	01H
	DD	01H
	DD	FLAT:__catchsym$?OnRequestLoadTaskList@CDataBaseEngineSink@@IAE_NKPAXGAAK@Z$2
__ehfuncinfo$?OnRequestLoadTaskList@CDataBaseEngineSink@@IAE_NKPAXGAAK@Z DD 019930522H
	DD	02H
	DD	FLAT:__unwindtable$?OnRequestLoadTaskList@CDataBaseEngineSink@@IAE_NKPAXGAAK@Z
	DD	01H
	DD	FLAT:__tryblocktable$?OnRequestLoadTaskList@CDataBaseEngineSink@@IAE_NKPAXGAAK@Z
	DD	2 DUP(00H)
	DD	00H
	DD	01H
xdata$x	ENDS
;	COMDAT xdata$x
xdata$x	SEGMENT
__catchsym$?OnRequestTaskReward@CDataBaseEngineSink@@IAE_NKPAXGAAK@Z$4 DD 00H
	DD	FLAT:??_R0PAUIDataBaseException@@@8
	DD	0fffffe9cH
	DD	FLAT:__catch$?OnRequestTaskReward@CDataBaseEngineSink@@IAE_NKPAXGAAK@Z$0
__tryblocktable$?OnRequestTaskReward@CDataBaseEngineSink@@IAE_NKPAXGAAK@Z DD 00H
	DD	01H
	DD	02H
	DD	01H
	DD	FLAT:__catchsym$?OnRequestTaskReward@CDataBaseEngineSink@@IAE_NKPAXGAAK@Z$4
__unwindtable$?OnRequestTaskReward@CDataBaseEngineSink@@IAE_NKPAXGAAK@Z DD 0ffffffffH
	DD	00H
	DD	00H
	DD	FLAT:__unwindfunclet$?OnRequestTaskReward@CDataBaseEngineSink@@IAE_NKPAXGAAK@Z$2
	DD	0ffffffffH
	DD	00H
__ehfuncinfo$?OnRequestTaskReward@CDataBaseEngineSink@@IAE_NKPAXGAAK@Z DD 019930522H
	DD	03H
	DD	FLAT:__unwindtable$?OnRequestTaskReward@CDataBaseEngineSink@@IAE_NKPAXGAAK@Z
	DD	01H
	DD	FLAT:__tryblocktable$?OnRequestTaskReward@CDataBaseEngineSink@@IAE_NKPAXGAAK@Z
	DD	2 DUP(00H)
	DD	00H
	DD	01H
xdata$x	ENDS
;	COMDAT xdata$x
xdata$x	SEGMENT
__catchsym$?OnRequestTaskTake@CDataBaseEngineSink@@IAE_NKPAXGAAK@Z$4 DD 00H
	DD	FLAT:??_R0PAUIDataBaseException@@@8
	DD	0fffffe9cH
	DD	FLAT:__catch$?OnRequestTaskTake@CDataBaseEngineSink@@IAE_NKPAXGAAK@Z$0
__tryblocktable$?OnRequestTaskTake@CDataBaseEngineSink@@IAE_NKPAXGAAK@Z DD 00H
	DD	01H
	DD	02H
	DD	01H
	DD	FLAT:__catchsym$?OnRequestTaskTake@CDataBaseEngineSink@@IAE_NKPAXGAAK@Z$4
__unwindtable$?OnRequestTaskTake@CDataBaseEngineSink@@IAE_NKPAXGAAK@Z DD 0ffffffffH
	DD	00H
	DD	00H
	DD	FLAT:__unwindfunclet$?OnRequestTaskTake@CDataBaseEngineSink@@IAE_NKPAXGAAK@Z$2
	DD	0ffffffffH
	DD	00H
__ehfuncinfo$?OnRequestTaskTake@CDataBaseEngineSink@@IAE_NKPAXGAAK@Z DD 019930522H
	DD	03H
	DD	FLAT:__unwindtable$?OnRequestTaskTake@CDataBaseEngineSink@@IAE_NKPAXGAAK@Z
	DD	01H
	DD	FLAT:__tryblocktable$?OnRequestTaskTake@CDataBaseEngineSink@@IAE_NKPAXGAAK@Z
	DD	2 DUP(00H)
	DD	00H
	DD	01H
xdata$x	ENDS
;	COMDAT xdata$x
xdata$x	SEGMENT
__catchsym$?OnRequestTaskGiveUp@CDataBaseEngineSink@@IAE_NKPAXGAAK@Z$4 DD 00H
	DD	FLAT:??_R0PAUIDataBaseException@@@8
	DD	0fffffe9cH
	DD	FLAT:__catch$?OnRequestTaskGiveUp@CDataBaseEngineSink@@IAE_NKPAXGAAK@Z$0
__tryblocktable$?OnRequestTaskGiveUp@CDataBaseEngineSink@@IAE_NKPAXGAAK@Z DD 00H
	DD	01H
	DD	02H
	DD	01H
	DD	FLAT:__catchsym$?OnRequestTaskGiveUp@CDataBaseEngineSink@@IAE_NKPAXGAAK@Z$4
__unwindtable$?OnRequestTaskGiveUp@CDataBaseEngineSink@@IAE_NKPAXGAAK@Z DD 0ffffffffH
	DD	00H
	DD	00H
	DD	FLAT:__unwindfunclet$?OnRequestTaskGiveUp@CDataBaseEngineSink@@IAE_NKPAXGAAK@Z$2
	DD	0ffffffffH
	DD	00H
__ehfuncinfo$?OnRequestTaskGiveUp@CDataBaseEngineSink@@IAE_NKPAXGAAK@Z DD 019930522H
	DD	03H
	DD	FLAT:__unwindtable$?OnRequestTaskGiveUp@CDataBaseEngineSink@@IAE_NKPAXGAAK@Z
	DD	01H
	DD	FLAT:__tryblocktable$?OnRequestTaskGiveUp@CDataBaseEngineSink@@IAE_NKPAXGAAK@Z
	DD	2 DUP(00H)
	DD	00H
	DD	01H
xdata$x	ENDS
;	COMDAT xdata$x
xdata$x	SEGMENT
__catchsym$?OnRequestQueryTransferUserInfo@CDataBaseEngineSink@@IAE_NKPAXGAAK@Z$4 DD 00H
	DD	FLAT:??_R0PAUIDataBaseException@@@8
	DD	0ffffff28H
	DD	FLAT:__catch$?OnRequestQueryTransferUserInfo@CDataBaseEngineSink@@IAE_NKPAXGAAK@Z$0
__tryblocktable$?OnRequestQueryTransferUserInfo@CDataBaseEngineSink@@IAE_NKPAXGAAK@Z DD 00H
	DD	02H
	DD	03H
	DD	01H
	DD	FLAT:__catchsym$?OnRequestQueryTransferUserInfo@CDataBaseEngineSink@@IAE_NKPAXGAAK@Z$4
__unwindtable$?OnRequestQueryTransferUserInfo@CDataBaseEngineSink@@IAE_NKPAXGAAK@Z DD 0ffffffffH
	DD	00H
	DD	00H
	DD	FLAT:__unwindfunclet$?OnRequestQueryTransferUserInfo@CDataBaseEngineSink@@IAE_NKPAXGAAK@Z$2
	DD	01H
	DD	FLAT:__unwindfunclet$?OnRequestQueryTransferUserInfo@CDataBaseEngineSink@@IAE_NKPAXGAAK@Z$3
	DD	0ffffffffH
	DD	00H
__ehfuncinfo$?OnRequestQueryTransferUserInfo@CDataBaseEngineSink@@IAE_NKPAXGAAK@Z DD 019930522H
	DD	04H
	DD	FLAT:__unwindtable$?OnRequestQueryTransferUserInfo@CDataBaseEngineSink@@IAE_NKPAXGAAK@Z
	DD	01H
	DD	FLAT:__tryblocktable$?OnRequestQueryTransferUserInfo@CDataBaseEngineSink@@IAE_NKPAXGAAK@Z
	DD	2 DUP(00H)
	DD	00H
	DD	01H
xdata$x	ENDS
;	COMDAT xdata$x
xdata$x	SEGMENT
__catchsym$?OnRequestQueryInsureInfo@CDataBaseEngineSink@@IAE_NKPAXGAAK@Z$4 DD 00H
	DD	FLAT:??_R0PAUIDataBaseException@@@8
	DD	0ffffff0cH
	DD	FLAT:__catch$?OnRequestQueryInsureInfo@CDataBaseEngineSink@@IAE_NKPAXGAAK@Z$0
__tryblocktable$?OnRequestQueryInsureInfo@CDataBaseEngineSink@@IAE_NKPAXGAAK@Z DD 00H
	DD	02H
	DD	03H
	DD	01H
	DD	FLAT:__catchsym$?OnRequestQueryInsureInfo@CDataBaseEngineSink@@IAE_NKPAXGAAK@Z$4
__unwindtable$?OnRequestQueryInsureInfo@CDataBaseEngineSink@@IAE_NKPAXGAAK@Z DD 0ffffffffH
	DD	00H
	DD	00H
	DD	FLAT:__unwindfunclet$?OnRequestQueryInsureInfo@CDataBaseEngineSink@@IAE_NKPAXGAAK@Z$2
	DD	01H
	DD	FLAT:__unwindfunclet$?OnRequestQueryInsureInfo@CDataBaseEngineSink@@IAE_NKPAXGAAK@Z$3
	DD	0ffffffffH
	DD	00H
__ehfuncinfo$?OnRequestQueryInsureInfo@CDataBaseEngineSink@@IAE_NKPAXGAAK@Z DD 019930522H
	DD	04H
	DD	FLAT:__unwindtable$?OnRequestQueryInsureInfo@CDataBaseEngineSink@@IAE_NKPAXGAAK@Z
	DD	01H
	DD	FLAT:__tryblocktable$?OnRequestQueryInsureInfo@CDataBaseEngineSink@@IAE_NKPAXGAAK@Z
	DD	2 DUP(00H)
	DD	00H
	DD	01H
xdata$x	ENDS
;	COMDAT xdata$x
xdata$x	SEGMENT
__catchsym$?OnRequestUserTransferScore@CDataBaseEngineSink@@IAE_NKPAXGAAK@Z$4 DD 00H
	DD	FLAT:??_R0PAUIDataBaseException@@@8
	DD	0ffffff38H
	DD	FLAT:__catch$?OnRequestUserTransferScore@CDataBaseEngineSink@@IAE_NKPAXGAAK@Z$0
__tryblocktable$?OnRequestUserTransferScore@CDataBaseEngineSink@@IAE_NKPAXGAAK@Z DD 00H
	DD	02H
	DD	03H
	DD	01H
	DD	FLAT:__catchsym$?OnRequestUserTransferScore@CDataBaseEngineSink@@IAE_NKPAXGAAK@Z$4
__unwindtable$?OnRequestUserTransferScore@CDataBaseEngineSink@@IAE_NKPAXGAAK@Z DD 0ffffffffH
	DD	00H
	DD	00H
	DD	FLAT:__unwindfunclet$?OnRequestUserTransferScore@CDataBaseEngineSink@@IAE_NKPAXGAAK@Z$2
	DD	01H
	DD	FLAT:__unwindfunclet$?OnRequestUserTransferScore@CDataBaseEngineSink@@IAE_NKPAXGAAK@Z$3
	DD	0ffffffffH
	DD	00H
__ehfuncinfo$?OnRequestUserTransferScore@CDataBaseEngineSink@@IAE_NKPAXGAAK@Z DD 019930522H
	DD	04H
	DD	FLAT:__unwindtable$?OnRequestUserTransferScore@CDataBaseEngineSink@@IAE_NKPAXGAAK@Z
	DD	01H
	DD	FLAT:__tryblocktable$?OnRequestUserTransferScore@CDataBaseEngineSink@@IAE_NKPAXGAAK@Z
	DD	2 DUP(00H)
	DD	00H
	DD	01H
xdata$x	ENDS
;	COMDAT xdata$x
xdata$x	SEGMENT
__catchsym$?OnRequestUserTakeScore@CDataBaseEngineSink@@IAE_NKPAXGAAK@Z$4 DD 00H
	DD	FLAT:??_R0PAUIDataBaseException@@@8
	DD	0ffffff38H
	DD	FLAT:__catch$?OnRequestUserTakeScore@CDataBaseEngineSink@@IAE_NKPAXGAAK@Z$0
__tryblocktable$?OnRequestUserTakeScore@CDataBaseEngineSink@@IAE_NKPAXGAAK@Z DD 00H
	DD	02H
	DD	03H
	DD	01H
	DD	FLAT:__catchsym$?OnRequestUserTakeScore@CDataBaseEngineSink@@IAE_NKPAXGAAK@Z$4
__unwindtable$?OnRequestUserTakeScore@CDataBaseEngineSink@@IAE_NKPAXGAAK@Z DD 0ffffffffH
	DD	00H
	DD	00H
	DD	FLAT:__unwindfunclet$?OnRequestUserTakeScore@CDataBaseEngineSink@@IAE_NKPAXGAAK@Z$2
	DD	01H
	DD	FLAT:__unwindfunclet$?OnRequestUserTakeScore@CDataBaseEngineSink@@IAE_NKPAXGAAK@Z$3
	DD	0ffffffffH
	DD	00H
__ehfuncinfo$?OnRequestUserTakeScore@CDataBaseEngineSink@@IAE_NKPAXGAAK@Z DD 019930522H
	DD	04H
	DD	FLAT:__unwindtable$?OnRequestUserTakeScore@CDataBaseEngineSink@@IAE_NKPAXGAAK@Z
	DD	01H
	DD	FLAT:__tryblocktable$?OnRequestUserTakeScore@CDataBaseEngineSink@@IAE_NKPAXGAAK@Z
	DD	2 DUP(00H)
	DD	00H
	DD	01H
xdata$x	ENDS
;	COMDAT xdata$x
xdata$x	SEGMENT
__catchsym$?OnRequestUserSaveScore@CDataBaseEngineSink@@IAE_NKPAXGAAK@Z$4 DD 00H
	DD	FLAT:??_R0PAUIDataBaseException@@@8
	DD	0ffffff38H
	DD	FLAT:__catch$?OnRequestUserSaveScore@CDataBaseEngineSink@@IAE_NKPAXGAAK@Z$0
__tryblocktable$?OnRequestUserSaveScore@CDataBaseEngineSink@@IAE_NKPAXGAAK@Z DD 00H
	DD	02H
	DD	03H
	DD	01H
	DD	FLAT:__catchsym$?OnRequestUserSaveScore@CDataBaseEngineSink@@IAE_NKPAXGAAK@Z$4
__unwindtable$?OnRequestUserSaveScore@CDataBaseEngineSink@@IAE_NKPAXGAAK@Z DD 0ffffffffH
	DD	00H
	DD	00H
	DD	FLAT:__unwindfunclet$?OnRequestUserSaveScore@CDataBaseEngineSink@@IAE_NKPAXGAAK@Z$2
	DD	01H
	DD	FLAT:__unwindfunclet$?OnRequestUserSaveScore@CDataBaseEngineSink@@IAE_NKPAXGAAK@Z$3
	DD	0ffffffffH
	DD	00H
__ehfuncinfo$?OnRequestUserSaveScore@CDataBaseEngineSink@@IAE_NKPAXGAAK@Z DD 019930522H
	DD	04H
	DD	FLAT:__unwindtable$?OnRequestUserSaveScore@CDataBaseEngineSink@@IAE_NKPAXGAAK@Z
	DD	01H
	DD	FLAT:__tryblocktable$?OnRequestUserSaveScore@CDataBaseEngineSink@@IAE_NKPAXGAAK@Z
	DD	2 DUP(00H)
	DD	00H
	DD	01H
xdata$x	ENDS
;	COMDAT xdata$x
xdata$x	SEGMENT
__catchsym$?OnRequestUserEnableInsure@CDataBaseEngineSink@@IAE_NKPAXGAAK@Z$4 DD 00H
	DD	FLAT:??_R0PAUIDataBaseException@@@8
	DD	0fffffeacH
	DD	FLAT:__catch$?OnRequestUserEnableInsure@CDataBaseEngineSink@@IAE_NKPAXGAAK@Z$0
__tryblocktable$?OnRequestUserEnableInsure@CDataBaseEngineSink@@IAE_NKPAXGAAK@Z DD 00H
	DD	01H
	DD	02H
	DD	01H
	DD	FLAT:__catchsym$?OnRequestUserEnableInsure@CDataBaseEngineSink@@IAE_NKPAXGAAK@Z$4
__unwindtable$?OnRequestUserEnableInsure@CDataBaseEngineSink@@IAE_NKPAXGAAK@Z DD 0ffffffffH
	DD	00H
	DD	00H
	DD	FLAT:__unwindfunclet$?OnRequestUserEnableInsure@CDataBaseEngineSink@@IAE_NKPAXGAAK@Z$2
	DD	0ffffffffH
	DD	00H
__ehfuncinfo$?OnRequestUserEnableInsure@CDataBaseEngineSink@@IAE_NKPAXGAAK@Z DD 019930522H
	DD	03H
	DD	FLAT:__unwindtable$?OnRequestUserEnableInsure@CDataBaseEngineSink@@IAE_NKPAXGAAK@Z
	DD	01H
	DD	FLAT:__tryblocktable$?OnRequestUserEnableInsure@CDataBaseEngineSink@@IAE_NKPAXGAAK@Z
	DD	2 DUP(00H)
	DD	00H
	DD	01H
xdata$x	ENDS
;	COMDAT xdata$x
xdata$x	SEGMENT
__catchsym$?OnRequestQueryGrowLevelParameter@CDataBaseEngineSink@@IAE_NKPAXGAAK@Z$4 DD 00H
	DD	FLAT:??_R0PAUIDataBaseException@@@8
	DD	0fffffe54H
	DD	FLAT:__catch$?OnRequestQueryGrowLevelParameter@CDataBaseEngineSink@@IAE_NKPAXGAAK@Z$0
__tryblocktable$?OnRequestQueryGrowLevelParameter@CDataBaseEngineSink@@IAE_NKPAXGAAK@Z DD 00H
	DD	01H
	DD	02H
	DD	01H
	DD	FLAT:__catchsym$?OnRequestQueryGrowLevelParameter@CDataBaseEngineSink@@IAE_NKPAXGAAK@Z$4
__unwindtable$?OnRequestQueryGrowLevelParameter@CDataBaseEngineSink@@IAE_NKPAXGAAK@Z DD 0ffffffffH
	DD	00H
	DD	00H
	DD	FLAT:__unwindfunclet$?OnRequestQueryGrowLevelParameter@CDataBaseEngineSink@@IAE_NKPAXGAAK@Z$2
	DD	0ffffffffH
	DD	00H
__ehfuncinfo$?OnRequestQueryGrowLevelParameter@CDataBaseEngineSink@@IAE_NKPAXGAAK@Z DD 019930522H
	DD	03H
	DD	FLAT:__unwindtable$?OnRequestQueryGrowLevelParameter@CDataBaseEngineSink@@IAE_NKPAXGAAK@Z
	DD	01H
	DD	FLAT:__tryblocktable$?OnRequestQueryGrowLevelParameter@CDataBaseEngineSink@@IAE_NKPAXGAAK@Z
	DD	2 DUP(00H)
	DD	00H
	DD	01H
xdata$x	ENDS
;	COMDAT xdata$x
xdata$x	SEGMENT
__catchsym$?OnRequestMatchQueryReviveInfo@CDataBaseEngineSink@@IAE_NKPAXGAAK@Z$2 DD 00H
	DD	FLAT:??_R0PAUIDataBaseException@@@8
	DD	0ffffffd8H
	DD	FLAT:__catch$?OnRequestMatchQueryReviveInfo@CDataBaseEngineSink@@IAE_NKPAXGAAK@Z$0
__unwindtable$?OnRequestMatchQueryReviveInfo@CDataBaseEngineSink@@IAE_NKPAXGAAK@Z DD 0ffffffffH
	DD	00H
	DD	0ffffffffH
	DD	00H
__tryblocktable$?OnRequestMatchQueryReviveInfo@CDataBaseEngineSink@@IAE_NKPAXGAAK@Z DD 00H
	DD	00H
	DD	01H
	DD	01H
	DD	FLAT:__catchsym$?OnRequestMatchQueryReviveInfo@CDataBaseEngineSink@@IAE_NKPAXGAAK@Z$2
__ehfuncinfo$?OnRequestMatchQueryReviveInfo@CDataBaseEngineSink@@IAE_NKPAXGAAK@Z DD 019930522H
	DD	02H
	DD	FLAT:__unwindtable$?OnRequestMatchQueryReviveInfo@CDataBaseEngineSink@@IAE_NKPAXGAAK@Z
	DD	01H
	DD	FLAT:__tryblocktable$?OnRequestMatchQueryReviveInfo@CDataBaseEngineSink@@IAE_NKPAXGAAK@Z
	DD	2 DUP(00H)
	DD	00H
	DD	01H
xdata$x	ENDS
;	COMDAT xdata$x
xdata$x	SEGMENT
__catchsym$?OnRequestMatchUserRevive@CDataBaseEngineSink@@IAE_NKPAXGAAK@Z$4 DD 00H
	DD	FLAT:??_R0PAUIDataBaseException@@@8
	DD	0fffffeb8H
	DD	FLAT:__catch$?OnRequestMatchUserRevive@CDataBaseEngineSink@@IAE_NKPAXGAAK@Z$0
__tryblocktable$?OnRequestMatchUserRevive@CDataBaseEngineSink@@IAE_NKPAXGAAK@Z DD 00H
	DD	01H
	DD	02H
	DD	01H
	DD	FLAT:__catchsym$?OnRequestMatchUserRevive@CDataBaseEngineSink@@IAE_NKPAXGAAK@Z$4
__unwindtable$?OnRequestMatchUserRevive@CDataBaseEngineSink@@IAE_NKPAXGAAK@Z DD 0ffffffffH
	DD	00H
	DD	00H
	DD	FLAT:__unwindfunclet$?OnRequestMatchUserRevive@CDataBaseEngineSink@@IAE_NKPAXGAAK@Z$2
	DD	0ffffffffH
	DD	00H
__ehfuncinfo$?OnRequestMatchUserRevive@CDataBaseEngineSink@@IAE_NKPAXGAAK@Z DD 019930522H
	DD	03H
	DD	FLAT:__unwindtable$?OnRequestMatchUserRevive@CDataBaseEngineSink@@IAE_NKPAXGAAK@Z
	DD	01H
	DD	FLAT:__tryblocktable$?OnRequestMatchUserRevive@CDataBaseEngineSink@@IAE_NKPAXGAAK@Z
	DD	2 DUP(00H)
	DD	00H
	DD	01H
xdata$x	ENDS
;	COMDAT xdata$x
xdata$x	SEGMENT
__catchsym$?OnRequestMatchRecordGrades@CDataBaseEngineSink@@IAE_NKPAXGAAK@Z$2 DD 00H
	DD	FLAT:??_R0PAUIDataBaseException@@@8
	DD	0ffffffdcH
	DD	FLAT:__catch$?OnRequestMatchRecordGrades@CDataBaseEngineSink@@IAE_NKPAXGAAK@Z$0
__unwindtable$?OnRequestMatchRecordGrades@CDataBaseEngineSink@@IAE_NKPAXGAAK@Z DD 0ffffffffH
	DD	00H
	DD	0ffffffffH
	DD	00H
__tryblocktable$?OnRequestMatchRecordGrades@CDataBaseEngineSink@@IAE_NKPAXGAAK@Z DD 00H
	DD	00H
	DD	01H
	DD	01H
	DD	FLAT:__catchsym$?OnRequestMatchRecordGrades@CDataBaseEngineSink@@IAE_NKPAXGAAK@Z$2
__ehfuncinfo$?OnRequestMatchRecordGrades@CDataBaseEngineSink@@IAE_NKPAXGAAK@Z DD 019930522H
	DD	02H
	DD	FLAT:__unwindtable$?OnRequestMatchRecordGrades@CDataBaseEngineSink@@IAE_NKPAXGAAK@Z
	DD	01H
	DD	FLAT:__tryblocktable$?OnRequestMatchRecordGrades@CDataBaseEngineSink@@IAE_NKPAXGAAK@Z
	DD	2 DUP(00H)
	DD	00H
	DD	01H
xdata$x	ENDS
;	COMDAT xdata$x
xdata$x	SEGMENT
__catchsym$?OnRequestMatchEliminate@CDataBaseEngineSink@@IAE_NKPAXGAAK@Z$2 DD 00H
	DD	FLAT:??_R0PAUIDataBaseException@@@8
	DD	0ffffffdcH
	DD	FLAT:__catch$?OnRequestMatchEliminate@CDataBaseEngineSink@@IAE_NKPAXGAAK@Z$0
__unwindtable$?OnRequestMatchEliminate@CDataBaseEngineSink@@IAE_NKPAXGAAK@Z DD 0ffffffffH
	DD	00H
	DD	0ffffffffH
	DD	00H
__tryblocktable$?OnRequestMatchEliminate@CDataBaseEngineSink@@IAE_NKPAXGAAK@Z DD 00H
	DD	00H
	DD	01H
	DD	01H
	DD	FLAT:__catchsym$?OnRequestMatchEliminate@CDataBaseEngineSink@@IAE_NKPAXGAAK@Z$2
__ehfuncinfo$?OnRequestMatchEliminate@CDataBaseEngineSink@@IAE_NKPAXGAAK@Z DD 019930522H
	DD	02H
	DD	FLAT:__unwindtable$?OnRequestMatchEliminate@CDataBaseEngineSink@@IAE_NKPAXGAAK@Z
	DD	01H
	DD	FLAT:__tryblocktable$?OnRequestMatchEliminate@CDataBaseEngineSink@@IAE_NKPAXGAAK@Z
	DD	2 DUP(00H)
	DD	00H
	DD	01H
xdata$x	ENDS
;	COMDAT xdata$x
xdata$x	SEGMENT
__catchsym$?OnRequestMatchReward@CDataBaseEngineSink@@IAE_NKPAXGAAK@Z$2 DD 00H
	DD	FLAT:??_R0PAUIDataBaseException@@@8
	DD	0ffffffb8H
	DD	FLAT:__catch$?OnRequestMatchReward@CDataBaseEngineSink@@IAE_NKPAXGAAK@Z$0
__unwindtable$?OnRequestMatchReward@CDataBaseEngineSink@@IAE_NKPAXGAAK@Z DD 0ffffffffH
	DD	00H
	DD	0ffffffffH
	DD	00H
__tryblocktable$?OnRequestMatchReward@CDataBaseEngineSink@@IAE_NKPAXGAAK@Z DD 00H
	DD	00H
	DD	01H
	DD	01H
	DD	FLAT:__catchsym$?OnRequestMatchReward@CDataBaseEngineSink@@IAE_NKPAXGAAK@Z$2
__ehfuncinfo$?OnRequestMatchReward@CDataBaseEngineSink@@IAE_NKPAXGAAK@Z DD 019930522H
	DD	02H
	DD	FLAT:__unwindtable$?OnRequestMatchReward@CDataBaseEngineSink@@IAE_NKPAXGAAK@Z
	DD	01H
	DD	FLAT:__tryblocktable$?OnRequestMatchReward@CDataBaseEngineSink@@IAE_NKPAXGAAK@Z
	DD	2 DUP(00H)
	DD	00H
	DD	01H
xdata$x	ENDS
;	COMDAT xdata$x
xdata$x	SEGMENT
__catchsym$?OnRequestMatchCancel@CDataBaseEngineSink@@IAE_NKPAXGAAK@Z$2 DD 00H
	DD	FLAT:??_R0PAUIDataBaseException@@@8
	DD	0ffffffd4H
	DD	FLAT:__catch$?OnRequestMatchCancel@CDataBaseEngineSink@@IAE_NKPAXGAAK@Z$0
__unwindtable$?OnRequestMatchCancel@CDataBaseEngineSink@@IAE_NKPAXGAAK@Z DD 0ffffffffH
	DD	00H
	DD	0ffffffffH
	DD	00H
__tryblocktable$?OnRequestMatchCancel@CDataBaseEngineSink@@IAE_NKPAXGAAK@Z DD 00H
	DD	00H
	DD	01H
	DD	01H
	DD	FLAT:__catchsym$?OnRequestMatchCancel@CDataBaseEngineSink@@IAE_NKPAXGAAK@Z$2
__ehfuncinfo$?OnRequestMatchCancel@CDataBaseEngineSink@@IAE_NKPAXGAAK@Z DD 019930522H
	DD	02H
	DD	FLAT:__unwindtable$?OnRequestMatchCancel@CDataBaseEngineSink@@IAE_NKPAXGAAK@Z
	DD	01H
	DD	FLAT:__tryblocktable$?OnRequestMatchCancel@CDataBaseEngineSink@@IAE_NKPAXGAAK@Z
	DD	2 DUP(00H)
	DD	00H
	DD	01H
xdata$x	ENDS
;	COMDAT xdata$x
xdata$x	SEGMENT
__catchsym$?OnRequestMatchOver@CDataBaseEngineSink@@IAE_NKPAXGAAK@Z$2 DD 00H
	DD	FLAT:??_R0PAUIDataBaseException@@@8
	DD	0ffffebbcH
	DD	FLAT:__catch$?OnRequestMatchOver@CDataBaseEngineSink@@IAE_NKPAXGAAK@Z$0
__unwindtable$?OnRequestMatchOver@CDataBaseEngineSink@@IAE_NKPAXGAAK@Z DD 0ffffffffH
	DD	00H
	DD	0ffffffffH
	DD	00H
__tryblocktable$?OnRequestMatchOver@CDataBaseEngineSink@@IAE_NKPAXGAAK@Z DD 00H
	DD	00H
	DD	01H
	DD	01H
	DD	FLAT:__catchsym$?OnRequestMatchOver@CDataBaseEngineSink@@IAE_NKPAXGAAK@Z$2
__ehfuncinfo$?OnRequestMatchOver@CDataBaseEngineSink@@IAE_NKPAXGAAK@Z DD 019930522H
	DD	02H
	DD	FLAT:__unwindtable$?OnRequestMatchOver@CDataBaseEngineSink@@IAE_NKPAXGAAK@Z
	DD	01H
	DD	FLAT:__tryblocktable$?OnRequestMatchOver@CDataBaseEngineSink@@IAE_NKPAXGAAK@Z
	DD	2 DUP(00H)
	DD	00H
	DD	01H
xdata$x	ENDS
;	COMDAT xdata$x
xdata$x	SEGMENT
__catchsym$?OnRequestMatchStart@CDataBaseEngineSink@@IAE_NKPAXGAAK@Z$2 DD 00H
	DD	FLAT:??_R0PAUIDataBaseException@@@8
	DD	0ffffffdcH
	DD	FLAT:__catch$?OnRequestMatchStart@CDataBaseEngineSink@@IAE_NKPAXGAAK@Z$0
__unwindtable$?OnRequestMatchStart@CDataBaseEngineSink@@IAE_NKPAXGAAK@Z DD 0ffffffffH
	DD	00H
	DD	0ffffffffH
	DD	00H
__tryblocktable$?OnRequestMatchStart@CDataBaseEngineSink@@IAE_NKPAXGAAK@Z DD 00H
	DD	00H
	DD	01H
	DD	01H
	DD	FLAT:__catchsym$?OnRequestMatchStart@CDataBaseEngineSink@@IAE_NKPAXGAAK@Z$2
__ehfuncinfo$?OnRequestMatchStart@CDataBaseEngineSink@@IAE_NKPAXGAAK@Z DD 019930522H
	DD	02H
	DD	FLAT:__unwindtable$?OnRequestMatchStart@CDataBaseEngineSink@@IAE_NKPAXGAAK@Z
	DD	01H
	DD	FLAT:__tryblocktable$?OnRequestMatchStart@CDataBaseEngineSink@@IAE_NKPAXGAAK@Z
	DD	2 DUP(00H)
	DD	00H
	DD	01H
xdata$x	ENDS
;	COMDAT xdata$x
xdata$x	SEGMENT
__catchsym$?OnRequestMatchBuySafeCard@CDataBaseEngineSink@@IAE_NKPAXGAAK@Z$4 DD 00H
	DD	FLAT:??_R0PAUIDataBaseException@@@8
	DD	0fffffeb8H
	DD	FLAT:__catch$?OnRequestMatchBuySafeCard@CDataBaseEngineSink@@IAE_NKPAXGAAK@Z$0
__tryblocktable$?OnRequestMatchBuySafeCard@CDataBaseEngineSink@@IAE_NKPAXGAAK@Z DD 00H
	DD	01H
	DD	02H
	DD	01H
	DD	FLAT:__catchsym$?OnRequestMatchBuySafeCard@CDataBaseEngineSink@@IAE_NKPAXGAAK@Z$4
__unwindtable$?OnRequestMatchBuySafeCard@CDataBaseEngineSink@@IAE_NKPAXGAAK@Z DD 0ffffffffH
	DD	00H
	DD	00H
	DD	FLAT:__unwindfunclet$?OnRequestMatchBuySafeCard@CDataBaseEngineSink@@IAE_NKPAXGAAK@Z$2
	DD	0ffffffffH
	DD	00H
__ehfuncinfo$?OnRequestMatchBuySafeCard@CDataBaseEngineSink@@IAE_NKPAXGAAK@Z DD 019930522H
	DD	03H
	DD	FLAT:__unwindtable$?OnRequestMatchBuySafeCard@CDataBaseEngineSink@@IAE_NKPAXGAAK@Z
	DD	01H
	DD	FLAT:__tryblocktable$?OnRequestMatchBuySafeCard@CDataBaseEngineSink@@IAE_NKPAXGAAK@Z
	DD	2 DUP(00H)
	DD	00H
	DD	01H
xdata$x	ENDS
;	COMDAT xdata$x
xdata$x	SEGMENT
__catchsym$?OnRequestMatchQueryQualify@CDataBaseEngineSink@@IAE_NKPAXGAAK@Z$2 DD 00H
	DD	FLAT:??_R0PAUIDataBaseException@@@8
	DD	0ffffffd8H
	DD	FLAT:__catch$?OnRequestMatchQueryQualify@CDataBaseEngineSink@@IAE_NKPAXGAAK@Z$0
__unwindtable$?OnRequestMatchQueryQualify@CDataBaseEngineSink@@IAE_NKPAXGAAK@Z DD 0ffffffffH
	DD	00H
	DD	0ffffffffH
	DD	00H
__tryblocktable$?OnRequestMatchQueryQualify@CDataBaseEngineSink@@IAE_NKPAXGAAK@Z DD 00H
	DD	00H
	DD	01H
	DD	01H
	DD	FLAT:__catchsym$?OnRequestMatchQueryQualify@CDataBaseEngineSink@@IAE_NKPAXGAAK@Z$2
__ehfuncinfo$?OnRequestMatchQueryQualify@CDataBaseEngineSink@@IAE_NKPAXGAAK@Z DD 019930522H
	DD	02H
	DD	FLAT:__unwindtable$?OnRequestMatchQueryQualify@CDataBaseEngineSink@@IAE_NKPAXGAAK@Z
	DD	01H
	DD	FLAT:__tryblocktable$?OnRequestMatchQueryQualify@CDataBaseEngineSink@@IAE_NKPAXGAAK@Z
	DD	2 DUP(00H)
	DD	00H
	DD	01H
xdata$x	ENDS
;	COMDAT xdata$x
xdata$x	SEGMENT
__catchsym$?OnRequestMatchSignupStart@CDataBaseEngineSink@@IAE_NKPAXGAAK@Z$2 DD 00H
	DD	FLAT:??_R0PAUIDataBaseException@@@8
	DD	0ffffffdcH
	DD	FLAT:__catch$?OnRequestMatchSignupStart@CDataBaseEngineSink@@IAE_NKPAXGAAK@Z$0
__unwindtable$?OnRequestMatchSignupStart@CDataBaseEngineSink@@IAE_NKPAXGAAK@Z DD 0ffffffffH
	DD	00H
	DD	0ffffffffH
	DD	00H
__tryblocktable$?OnRequestMatchSignupStart@CDataBaseEngineSink@@IAE_NKPAXGAAK@Z DD 00H
	DD	00H
	DD	01H
	DD	01H
	DD	FLAT:__catchsym$?OnRequestMatchSignupStart@CDataBaseEngineSink@@IAE_NKPAXGAAK@Z$2
__ehfuncinfo$?OnRequestMatchSignupStart@CDataBaseEngineSink@@IAE_NKPAXGAAK@Z DD 019930522H
	DD	02H
	DD	FLAT:__unwindtable$?OnRequestMatchSignupStart@CDataBaseEngineSink@@IAE_NKPAXGAAK@Z
	DD	01H
	DD	FLAT:__tryblocktable$?OnRequestMatchSignupStart@CDataBaseEngineSink@@IAE_NKPAXGAAK@Z
	DD	2 DUP(00H)
	DD	00H
	DD	01H
xdata$x	ENDS
;	COMDAT xdata$x
xdata$x	SEGMENT
__catchsym$?OnRequestMatchUnSignup@CDataBaseEngineSink@@IAE_NKPAXGAAK@Z$4 DD 00H
	DD	FLAT:??_R0PAUIDataBaseException@@@8
	DD	0fffffe8cH
	DD	FLAT:__catch$?OnRequestMatchUnSignup@CDataBaseEngineSink@@IAE_NKPAXGAAK@Z$0
__tryblocktable$?OnRequestMatchUnSignup@CDataBaseEngineSink@@IAE_NKPAXGAAK@Z DD 00H
	DD	01H
	DD	02H
	DD	01H
	DD	FLAT:__catchsym$?OnRequestMatchUnSignup@CDataBaseEngineSink@@IAE_NKPAXGAAK@Z$4
__unwindtable$?OnRequestMatchUnSignup@CDataBaseEngineSink@@IAE_NKPAXGAAK@Z DD 0ffffffffH
	DD	00H
	DD	00H
	DD	FLAT:__unwindfunclet$?OnRequestMatchUnSignup@CDataBaseEngineSink@@IAE_NKPAXGAAK@Z$2
	DD	0ffffffffH
	DD	00H
__ehfuncinfo$?OnRequestMatchUnSignup@CDataBaseEngineSink@@IAE_NKPAXGAAK@Z DD 019930522H
	DD	03H
	DD	FLAT:__unwindtable$?OnRequestMatchUnSignup@CDataBaseEngineSink@@IAE_NKPAXGAAK@Z
	DD	01H
	DD	FLAT:__tryblocktable$?OnRequestMatchUnSignup@CDataBaseEngineSink@@IAE_NKPAXGAAK@Z
	DD	2 DUP(00H)
	DD	00H
	DD	01H
xdata$x	ENDS
;	COMDAT xdata$x
xdata$x	SEGMENT
__catchsym$?OnRequestMatchSignup@CDataBaseEngineSink@@IAE_NKPAXGAAK@Z$4 DD 00H
	DD	FLAT:??_R0PAUIDataBaseException@@@8
	DD	0fffffe8cH
	DD	FLAT:__catch$?OnRequestMatchSignup@CDataBaseEngineSink@@IAE_NKPAXGAAK@Z$0
__tryblocktable$?OnRequestMatchSignup@CDataBaseEngineSink@@IAE_NKPAXGAAK@Z DD 00H
	DD	01H
	DD	02H
	DD	01H
	DD	FLAT:__catchsym$?OnRequestMatchSignup@CDataBaseEngineSink@@IAE_NKPAXGAAK@Z$4
__unwindtable$?OnRequestMatchSignup@CDataBaseEngineSink@@IAE_NKPAXGAAK@Z DD 0ffffffffH
	DD	00H
	DD	00H
	DD	FLAT:__unwindfunclet$?OnRequestMatchSignup@CDataBaseEngineSink@@IAE_NKPAXGAAK@Z$2
	DD	0ffffffffH
	DD	00H
__ehfuncinfo$?OnRequestMatchSignup@CDataBaseEngineSink@@IAE_NKPAXGAAK@Z DD 019930522H
	DD	03H
	DD	FLAT:__unwindtable$?OnRequestMatchSignup@CDataBaseEngineSink@@IAE_NKPAXGAAK@Z
	DD	01H
	DD	FLAT:__tryblocktable$?OnRequestMatchSignup@CDataBaseEngineSink@@IAE_NKPAXGAAK@Z
	DD	2 DUP(00H)
	DD	00H
	DD	01H
xdata$x	ENDS
;	COMDAT xdata$x
xdata$x	SEGMENT
__catchsym$?OnRequestUnlockAndroidUser@CDataBaseEngineSink@@IAE_NKPAXGAAK@Z$2 DD 00H
	DD	FLAT:??_R0PAUIDataBaseException@@@8
	DD	0ffffffdcH
	DD	FLAT:__catch$?OnRequestUnlockAndroidUser@CDataBaseEngineSink@@IAE_NKPAXGAAK@Z$0
__unwindtable$?OnRequestUnlockAndroidUser@CDataBaseEngineSink@@IAE_NKPAXGAAK@Z DD 0ffffffffH
	DD	00H
	DD	0ffffffffH
	DD	00H
__tryblocktable$?OnRequestUnlockAndroidUser@CDataBaseEngineSink@@IAE_NKPAXGAAK@Z DD 00H
	DD	00H
	DD	01H
	DD	01H
	DD	FLAT:__catchsym$?OnRequestUnlockAndroidUser@CDataBaseEngineSink@@IAE_NKPAXGAAK@Z$2
__ehfuncinfo$?OnRequestUnlockAndroidUser@CDataBaseEngineSink@@IAE_NKPAXGAAK@Z DD 019930522H
	DD	02H
	DD	FLAT:__unwindtable$?OnRequestUnlockAndroidUser@CDataBaseEngineSink@@IAE_NKPAXGAAK@Z
	DD	01H
	DD	FLAT:__tryblocktable$?OnRequestUnlockAndroidUser@CDataBaseEngineSink@@IAE_NKPAXGAAK@Z
	DD	2 DUP(00H)
	DD	00H
	DD	01H
xdata$x	ENDS
;	COMDAT xdata$x
xdata$x	SEGMENT
__catchsym$?OnRequestLoadSensitiveWords@CDataBaseEngineSink@@IAE_NKPAXGAAK@Z$2 DD 00H
	DD	FLAT:??_R0PAUIDataBaseException@@@8
	DD	0ffffffc0H
	DD	FLAT:__catch$?OnRequestLoadSensitiveWords@CDataBaseEngineSink@@IAE_NKPAXGAAK@Z$0
__unwindtable$?OnRequestLoadSensitiveWords@CDataBaseEngineSink@@IAE_NKPAXGAAK@Z DD 0ffffffffH
	DD	00H
	DD	0ffffffffH
	DD	00H
__tryblocktable$?OnRequestLoadSensitiveWords@CDataBaseEngineSink@@IAE_NKPAXGAAK@Z DD 00H
	DD	00H
	DD	01H
	DD	01H
	DD	FLAT:__catchsym$?OnRequestLoadSensitiveWords@CDataBaseEngineSink@@IAE_NKPAXGAAK@Z$2
__ehfuncinfo$?OnRequestLoadSensitiveWords@CDataBaseEngineSink@@IAE_NKPAXGAAK@Z DD 019930522H
	DD	02H
	DD	FLAT:__unwindtable$?OnRequestLoadSensitiveWords@CDataBaseEngineSink@@IAE_NKPAXGAAK@Z
	DD	01H
	DD	FLAT:__tryblocktable$?OnRequestLoadSensitiveWords@CDataBaseEngineSink@@IAE_NKPAXGAAK@Z
	DD	2 DUP(00H)
	DD	00H
	DD	01H
xdata$x	ENDS
;	COMDAT xdata$x
xdata$x	SEGMENT
__catchsym$?OnRequestLoadSystemMessage@CDataBaseEngineSink@@IAE_NKPAXGAAK@Z$5 DD 00H
	DD	FLAT:??_R0PAUIDataBaseException@@@8
	DD	0fffffae8H
	DD	FLAT:__catch$?OnRequestLoadSystemMessage@CDataBaseEngineSink@@IAE_NKPAXGAAK@Z$0
__tryblocktable$?OnRequestLoadSystemMessage@CDataBaseEngineSink@@IAE_NKPAXGAAK@Z DD 00H
	DD	03H
	DD	04H
	DD	01H
	DD	FLAT:__catchsym$?OnRequestLoadSystemMessage@CDataBaseEngineSink@@IAE_NKPAXGAAK@Z$5
__ehfuncinfo$?OnRequestLoadSystemMessage@CDataBaseEngineSink@@IAE_NKPAXGAAK@Z DD 019930522H
	DD	05H
	DD	FLAT:__unwindtable$?OnRequestLoadSystemMessage@CDataBaseEngineSink@@IAE_NKPAXGAAK@Z
	DD	01H
	DD	FLAT:__tryblocktable$?OnRequestLoadSystemMessage@CDataBaseEngineSink@@IAE_NKPAXGAAK@Z
	DD	2 DUP(00H)
	DD	00H
	DD	01H
__unwindtable$?OnRequestLoadSystemMessage@CDataBaseEngineSink@@IAE_NKPAXGAAK@Z DD 0ffffffffH
	DD	00H
	DD	00H
	DD	FLAT:__unwindfunclet$?OnRequestLoadSystemMessage@CDataBaseEngineSink@@IAE_NKPAXGAAK@Z$2
	DD	01H
	DD	FLAT:__unwindfunclet$?OnRequestLoadSystemMessage@CDataBaseEngineSink@@IAE_NKPAXGAAK@Z$3
	DD	02H
	DD	FLAT:__unwindfunclet$?OnRequestLoadSystemMessage@CDataBaseEngineSink@@IAE_NKPAXGAAK@Z$4
	DD	0ffffffffH
	DD	00H
xdata$x	ENDS
;	COMDAT xdata$x
xdata$x	SEGMENT
__catchsym$?OnRequestManageMatchRight@CDataBaseEngineSink@@IAE_NKPAXGAAK@Z$2 DD 00H
	DD	FLAT:??_R0PAUIDataBaseException@@@8
	DD	0ffffffdcH
	DD	FLAT:__catch$?OnRequestManageMatchRight@CDataBaseEngineSink@@IAE_NKPAXGAAK@Z$0
__unwindtable$?OnRequestManageMatchRight@CDataBaseEngineSink@@IAE_NKPAXGAAK@Z DD 0ffffffffH
	DD	00H
	DD	0ffffffffH
	DD	00H
__tryblocktable$?OnRequestManageMatchRight@CDataBaseEngineSink@@IAE_NKPAXGAAK@Z DD 00H
	DD	00H
	DD	01H
	DD	01H
	DD	FLAT:__catchsym$?OnRequestManageMatchRight@CDataBaseEngineSink@@IAE_NKPAXGAAK@Z$2
__ehfuncinfo$?OnRequestManageMatchRight@CDataBaseEngineSink@@IAE_NKPAXGAAK@Z DD 019930522H
	DD	02H
	DD	FLAT:__unwindtable$?OnRequestManageMatchRight@CDataBaseEngineSink@@IAE_NKPAXGAAK@Z
	DD	01H
	DD	FLAT:__tryblocktable$?OnRequestManageMatchRight@CDataBaseEngineSink@@IAE_NKPAXGAAK@Z
	DD	2 DUP(00H)
	DD	00H
	DD	01H
xdata$x	ENDS
;	COMDAT xdata$x
xdata$x	SEGMENT
__catchsym$?OnRequestManageUserRight@CDataBaseEngineSink@@IAE_NKPAXGAAK@Z$2 DD 00H
	DD	FLAT:??_R0PAUIDataBaseException@@@8
	DD	0ffffffdcH
	DD	FLAT:__catch$?OnRequestManageUserRight@CDataBaseEngineSink@@IAE_NKPAXGAAK@Z$0
__unwindtable$?OnRequestManageUserRight@CDataBaseEngineSink@@IAE_NKPAXGAAK@Z DD 0ffffffffH
	DD	00H
	DD	0ffffffffH
	DD	00H
__tryblocktable$?OnRequestManageUserRight@CDataBaseEngineSink@@IAE_NKPAXGAAK@Z DD 00H
	DD	00H
	DD	01H
	DD	01H
	DD	FLAT:__catchsym$?OnRequestManageUserRight@CDataBaseEngineSink@@IAE_NKPAXGAAK@Z$2
__ehfuncinfo$?OnRequestManageUserRight@CDataBaseEngineSink@@IAE_NKPAXGAAK@Z DD 019930522H
	DD	02H
	DD	FLAT:__unwindtable$?OnRequestManageUserRight@CDataBaseEngineSink@@IAE_NKPAXGAAK@Z
	DD	01H
	DD	FLAT:__tryblocktable$?OnRequestManageUserRight@CDataBaseEngineSink@@IAE_NKPAXGAAK@Z
	DD	2 DUP(00H)
	DD	00H
	DD	01H
xdata$x	ENDS
;	COMDAT xdata$x
xdata$x	SEGMENT
__catchsym$?OnRequestWriteUserGameData@CDataBaseEngineSink@@IAE_NKPAXGAAK@Z$2 DD 00H
	DD	FLAT:??_R0PAUIDataBaseException@@@8
	DD	0ffffffc0H
	DD	FLAT:__catch$?OnRequestWriteUserGameData@CDataBaseEngineSink@@IAE_NKPAXGAAK@Z$0
__unwindtable$?OnRequestWriteUserGameData@CDataBaseEngineSink@@IAE_NKPAXGAAK@Z DD 0ffffffffH
	DD	00H
	DD	0ffffffffH
	DD	00H
__tryblocktable$?OnRequestWriteUserGameData@CDataBaseEngineSink@@IAE_NKPAXGAAK@Z DD 00H
	DD	00H
	DD	01H
	DD	01H
	DD	FLAT:__catchsym$?OnRequestWriteUserGameData@CDataBaseEngineSink@@IAE_NKPAXGAAK@Z$2
__ehfuncinfo$?OnRequestWriteUserGameData@CDataBaseEngineSink@@IAE_NKPAXGAAK@Z DD 019930522H
	DD	02H
	DD	FLAT:__unwindtable$?OnRequestWriteUserGameData@CDataBaseEngineSink@@IAE_NKPAXGAAK@Z
	DD	01H
	DD	FLAT:__tryblocktable$?OnRequestWriteUserGameData@CDataBaseEngineSink@@IAE_NKPAXGAAK@Z
	DD	2 DUP(00H)
	DD	00H
	DD	01H
xdata$x	ENDS
;	COMDAT xdata$x
xdata$x	SEGMENT
__catchsym$?OnRequestSendTrumpet@CDataBaseEngineSink@@IAE_NKPAXGAAK@Z$2 DD 00H
	DD	FLAT:??_R0PAUIDataBaseException@@@8
	DD	0ffffff24H
	DD	FLAT:__catch$?OnRequestSendTrumpet@CDataBaseEngineSink@@IAE_NKPAXGAAK@Z$0
__unwindtable$?OnRequestSendTrumpet@CDataBaseEngineSink@@IAE_NKPAXGAAK@Z DD 0ffffffffH
	DD	00H
	DD	0ffffffffH
	DD	00H
__tryblocktable$?OnRequestSendTrumpet@CDataBaseEngineSink@@IAE_NKPAXGAAK@Z DD 00H
	DD	00H
	DD	01H
	DD	01H
