; Listing generated by Microsoft (R) Optimizing Compiler Version 19.16.27032.1 

	TITLE	G:\网狐\HappyGameWH\服务端\系统模块\服务器组件\游戏服务器\GameServerDlg.cpp
	.686P
	.XMM
	include listing.inc
	.model	flat

INCLUDELIB MSVCRTD
INCLUDELIB OLDNAMES

PUBLIC	?OnBnClickedStartService@CGameServerDlg@@IAEXXZ	; CGameServerDlg::OnBnClickedStartService
PUBLIC	?OnBnClickedStopService@CGameServerDlg@@IAEXXZ	; CGameServerDlg::OnBnClickedStopService
PUBLIC	?OnBnClickedOpenServer@CGameServerDlg@@IAEXXZ	; CGameServerDlg::OnBnClickedOpenServer
PUBLIC	?OnBnClickedCreateServer@CGameServerDlg@@IAEXXZ	; CGameServerDlg::OnBnClickedCreateServer
PUBLIC	?OnBnClickedOptionServer@CGameServerDlg@@IAEXXZ	; CGameServerDlg::OnBnClickedOptionServer
PUBLIC	?OnBnClickedOptionMatch@CGameServerDlg@@IAEXXZ	; CGameServerDlg::OnBnClickedOptionMatch
PUBLIC	?OnQueryEndSession@CGameServerDlg@@QAEHXZ	; CGameServerDlg::OnQueryEndSession
PUBLIC	?OnMessageProcessCmdLine@CGameServerDlg@@QAEJIJ@Z ; CGameServerDlg::OnMessageProcessCmdLine
EXTRN	?GetThisMessageMap@CDialog@@KGPBUAFX_MSGMAP@@XZ:PROC ; CDialog::GetThisMessageMap
CONST	SEGMENT
?szPlatformDB@@3QBDB DB 'QPPlatformDB', 00H		; szPlatformDB
	ORG $+3
?szCompilation@@3QBDB DB 'ED56BE63-3026-465B-9DFC-17F595145F3D', 00H ; szCompilation
	ORG $+3
?IID_IGameServiceManager@@3U_GUID@@B DD 04b2b9d8fH	; IID_IGameServiceManager
	DW	0ce1bH
	DW	044f3H
	DB	0a5H
	DB	022H
	DB	065H
	DB	01aH
	DB	065H
	DB	0c9H
	DB	0aH
	DB	025H
?_messageEntries@?1??GetThisMessageMap@CGameServerDlg@@KGPBUAFX_MSGMAP@@XZ@4QBUAFX_MSGMAP_ENTRY@@B DD 011H ; `CGameServerDlg::GetThisMessageMap'::`2'::_messageEntries
	DD	00H
	DD	00H
	DD	00H
	DD	01eH
	DD	FLAT:?OnQueryEndSession@CGameServerDlg@@QAEHXZ
	DD	0111H
	DD	00H
	DD	03efH
	DD	03efH
	DD	03aH
	DD	FLAT:?OnBnClickedOpenServer@CGameServerDlg@@IAEXXZ
	DD	0111H
	DD	00H
	DD	03eaH
	DD	03eaH
	DD	03aH
	DD	FLAT:?OnBnClickedStopService@CGameServerDlg@@IAEXXZ
	DD	0111H
	DD	00H
	DD	03e8H
	DD	03e8H
	DD	03aH
	DD	FLAT:?OnBnClickedStartService@CGameServerDlg@@IAEXXZ
	DD	0111H
	DD	00H
	DD	03eeH
	DD	03eeH
	DD	03aH
	DD	FLAT:?OnBnClickedCreateServer@CGameServerDlg@@IAEXXZ
	DD	0111H
	DD	00H
	DD	03ebH
	DD	03ebH
	DD	03aH
	DD	FLAT:?OnBnClickedOptionServer@CGameServerDlg@@IAEXXZ
	DD	0111H
	DD	00H
	DD	03f5H
	DD	03f5H
	DD	03aH
	DD	FLAT:?OnBnClickedOptionMatch@CGameServerDlg@@IAEXXZ
	DD	0464H
	DD	00H
	DD	00H
	DD	00H
	DD	0eH
	DD	FLAT:?OnMessageProcessCmdLine@CGameServerDlg@@QAEJIJ@Z
	DD	00H
	DD	00H
	DD	00H
	DD	00H
	DD	00H
	DD	00H
?messageMap@?1??GetThisMessageMap@CGameServerDlg@@KGPBUAFX_MSGMAP@@XZ@4U3@B DD FLAT:?GetThisMessageMap@CDialog@@KGPBUAFX_MSGMAP@@XZ ; `CGameServerDlg::GetThisMessageMap'::`2'::messageMap
	DD	FLAT:?_messageEntries@?1??GetThisMessageMap@CGameServerDlg@@KGPBUAFX_MSGMAP@@XZ@4QBUAFX_MSGMAP_ENTRY@@B
CONST	ENDS
PUBLIC	??_H@YGXPAXIIP6EPAX0@Z@Z			; `vector constructor iterator'
PUBLIC	?__empty_global_delete@@YAXPAX@Z		; __empty_global_delete
PUBLIC	?__empty_global_delete@@YAXPAXI@Z		; __empty_global_delete
PUBLIC	___local_stdio_printf_options
PUBLIC	__vsnprintf_s_l
PUBLIC	__vsnprintf_s
PUBLIC	?AfxAssertFailedLine@@YGHPBDH@Z			; AfxAssertFailedLine
PUBLIC	??0CreateRoomPayFee@@QAE@XZ			; CreateRoomPayFee::CreateRoomPayFee
PUBLIC	??0tagPersonalRoomOptionRightAndFee@@QAE@XZ	; tagPersonalRoomOptionRightAndFee::tagPersonalRoomOptionRightAndFee
PUBLIC	??0?$CTempldateHelper@UIGameServiceManager@@@@QAE@ABU_GUID@@K@Z ; CTempldateHelper<IGameServiceManager>::CTempldateHelper<IGameServiceManager>
PUBLIC	??1?$CTempldateHelper@UIGameServiceManager@@@@UAE@XZ ; CTempldateHelper<IGameServiceManager>::~CTempldateHelper<IGameServiceManager>
PUBLIC	?CloseInstance@?$CTempldateHelper@UIGameServiceManager@@@@QAE_NXZ ; CTempldateHelper<IGameServiceManager>::CloseInstance
PUBLIC	?CreateInstance@?$CTempldateHelper@UIGameServiceManager@@@@QAE_NXZ ; CTempldateHelper<IGameServiceManager>::CreateInstance
PUBLIC	?SetModuleCreateInfo@?$CTempldateHelper@UIGameServiceManager@@@@QAEXPBD0@Z ; CTempldateHelper<IGameServiceManager>::SetModuleCreateInfo
PUBLIC	?GetInterface@?$CTempldateHelper@UIGameServiceManager@@@@QBEPAUIGameServiceManager@@XZ ; CTempldateHelper<IGameServiceManager>::GetInterface
PUBLIC	??_G?$CTempldateHelper@UIGameServiceManager@@@@UAEPAXI@Z ; CTempldateHelper<IGameServiceManager>::`scalar deleting destructor'
PUBLIC	??0CGameServiceManagerHelper@@QAE@XZ		; CGameServiceManagerHelper::CGameServiceManagerHelper
PUBLIC	??1CGameServiceManagerHelper@@UAE@XZ		; CGameServiceManagerHelper::~CGameServiceManagerHelper
PUBLIC	??_GCGameServiceManagerHelper@@UAEPAXI@Z	; CGameServiceManagerHelper::`scalar deleting destructor'
PUBLIC	??0tagModuleInitParameter@@QAE@XZ		; tagModuleInitParameter::tagModuleInitParameter
PUBLIC	??0IServiceUnitsSink@@QAE@XZ			; IServiceUnitsSink::IServiceUnitsSink
PUBLIC	?GetServiceStatus@CServiceUnits@@QAE?AW4enServiceStatus@@XZ ; CServiceUnits::GetServiceStatus
PUBLIC	??0CGameServerDlg@@QAE@XZ			; CGameServerDlg::CGameServerDlg
PUBLIC	??1CGameServerDlg@@UAE@XZ			; CGameServerDlg::~CGameServerDlg
PUBLIC	?DoDataExchange@CGameServerDlg@@MAEXPAVCDataExchange@@@Z ; CGameServerDlg::DoDataExchange
PUBLIC	?OnInitDialog@CGameServerDlg@@MAEHXZ		; CGameServerDlg::OnInitDialog
PUBLIC	?OnOK@CGameServerDlg@@MAEXXZ			; CGameServerDlg::OnOK
PUBLIC	?OnCancel@CGameServerDlg@@MAEXXZ		; CGameServerDlg::OnCancel
PUBLIC	?PreTranslateMessage@CGameServerDlg@@MAEHPAUtagMSG@@@Z ; CGameServerDlg::PreTranslateMessage
PUBLIC	?OnServiceUnitsStatus@CGameServerDlg@@UAEXW4enServiceStatus@@@Z ; CGameServerDlg::OnServiceUnitsStatus
PUBLIC	?UpdateServerLogo@CGameServerDlg@@IAEXPBD@Z	; CGameServerDlg::UpdateServerLogo
PUBLIC	?UpdateServerTitle@CGameServerDlg@@IAEXW4enServiceStatus@@@Z ; CGameServerDlg::UpdateServerTitle
PUBLIC	?UpdateParameterStatus@CGameServerDlg@@IAEXAAUtagModuleInitParameter@@@Z ; CGameServerDlg::UpdateParameterStatus
PUBLIC	?StartServerService@CGameServerDlg@@IAE_NG@Z	; CGameServerDlg::StartServerService
PUBLIC	?GetPlatformDBParameter@CGameServerDlg@@IAE_NAAUtagDataBaseParameter@@@Z ; CGameServerDlg::GetPlatformDBParameter
PUBLIC	?GetThisMessageMap@CGameServerDlg@@KGPBUAFX_MSGMAP@@XZ ; CGameServerDlg::GetThisMessageMap
PUBLIC	?GetMessageMap@CGameServerDlg@@MBEPBUAFX_MSGMAP@@XZ ; CGameServerDlg::GetMessageMap
PUBLIC	??_GCGameServerDlg@@UAEPAXI@Z			; CGameServerDlg::`scalar deleting destructor'
PUBLIC	??$_snprintf_s@$0IA@@@YAHAAY0IA@DIPBDZZ		; _snprintf_s<128>
PUBLIC	??$_snprintf_s@$0BAA@@@YAHAAY0BAA@DIPBDZZ	; _snprintf_s<256>
PUBLIC	??$_snprintf_s@$0BAE@@@YAHAAY0BAE@DIPBDZZ	; _snprintf_s<260>
PUBLIC	?_OptionsStorage@?1??__local_stdio_printf_options@@9@4_KA ; `__local_stdio_printf_options'::`2'::_OptionsStorage
PUBLIC	??_C@_00CNPNBAHC@@				; `string'
PUBLIC	??_7?$CTempldateHelper@UIGameServiceManager@@@@6B@ ; CTempldateHelper<IGameServiceManager>::`vftable'
PUBLIC	??_7CGameServiceManagerHelper@@6B@		; CGameServiceManagerHelper::`vftable'
PUBLIC	??_R1A@?0A@EA@CObject@@8			; CObject::`RTTI Base Class Descriptor at (0,-1,0,64)'
PUBLIC	??_R0?AVCObject@@@8				; CObject `RTTI Type Descriptor'
PUBLIC	??_R3CObject@@8					; CObject::`RTTI Class Hierarchy Descriptor'
PUBLIC	??_R2CObject@@8					; CObject::`RTTI Base Class Array'
PUBLIC	??_R1A@?0A@EA@CDialog@@8			; CDialog::`RTTI Base Class Descriptor at (0,-1,0,64)'
PUBLIC	??_R0?AVCDialog@@@8				; CDialog `RTTI Type Descriptor'
PUBLIC	??_R3CDialog@@8					; CDialog::`RTTI Class Hierarchy Descriptor'
PUBLIC	??_R2CDialog@@8					; CDialog::`RTTI Base Class Array'
PUBLIC	??_R1A@?0A@EA@CWnd@@8				; CWnd::`RTTI Base Class Descriptor at (0,-1,0,64)'
PUBLIC	??_R0?AVCWnd@@@8				; CWnd `RTTI Type Descriptor'
PUBLIC	??_R3CWnd@@8					; CWnd::`RTTI Class Hierarchy Descriptor'
PUBLIC	??_R2CWnd@@8					; CWnd::`RTTI Base Class Array'
PUBLIC	??_R1A@?0A@EA@CCmdTarget@@8			; CCmdTarget::`RTTI Base Class Descriptor at (0,-1,0,64)'
PUBLIC	??_R0?AVCCmdTarget@@@8				; CCmdTarget `RTTI Type Descriptor'
PUBLIC	??_R3CCmdTarget@@8				; CCmdTarget::`RTTI Class Hierarchy Descriptor'
PUBLIC	??_R2CCmdTarget@@8				; CCmdTarget::`RTTI Base Class Array'
PUBLIC	??_R4CGameServiceManagerHelper@@6B@		; CGameServiceManagerHelper::`RTTI Complete Object Locator'
PUBLIC	??_R0?AVCGameServiceManagerHelper@@@8		; CGameServiceManagerHelper `RTTI Type Descriptor'
PUBLIC	??_R3CGameServiceManagerHelper@@8		; CGameServiceManagerHelper::`RTTI Class Hierarchy Descriptor'
PUBLIC	??_R2CGameServiceManagerHelper@@8		; CGameServiceManagerHelper::`RTTI Base Class Array'
PUBLIC	??_R1A@?0A@EA@CGameServiceManagerHelper@@8	; CGameServiceManagerHelper::`RTTI Base Class Descriptor at (0,-1,0,64)'
PUBLIC	??_R1A@?0A@EA@?$CTempldateHelper@UIGameServiceManager@@@@8 ; CTempldateHelper<IGameServiceManager>::`RTTI Base Class Descriptor at (0,-1,0,64)'
PUBLIC	??_R0?AV?$CTempldateHelper@UIGameServiceManager@@@@@8 ; CTempldateHelper<IGameServiceManager> `RTTI Type Descriptor'
PUBLIC	??_R3?$CTempldateHelper@UIGameServiceManager@@@@8 ; CTempldateHelper<IGameServiceManager>::`RTTI Class Hierarchy Descriptor'
PUBLIC	??_R2?$CTempldateHelper@UIGameServiceManager@@@@8 ; CTempldateHelper<IGameServiceManager>::`RTTI Base Class Array'
PUBLIC	??_R4?$CTempldateHelper@UIGameServiceManager@@@@6B@ ; CTempldateHelper<IGameServiceManager>::`RTTI Complete Object Locator'
PUBLIC	??_7IServiceUnitsSink@@6B@			; IServiceUnitsSink::`vftable'
PUBLIC	??_7CGameServerDlg@@6BCDialog@@@		; CGameServerDlg::`vftable'
PUBLIC	??_7CGameServerDlg@@6BIServiceUnitsSink@@@	; CGameServerDlg::`vftable'
PUBLIC	??_C@_0BH@KHNDMDBK@?S?N?O?$LH?$LH?$PO?N?q?F?w?5?9?9?5?$FL?5?M?$KD?V?$LJ?5?$FN@ ; `string'
PUBLIC	??_C@_0CN@IKJEBACB@?S?N?O?$LH?$LH?$PO?N?q?F?w?U?$PN?T?Z?T?K?P?P?V?P?$KD?$KM?D?z?H?$LH?J?$LF?R?$KK?$LJ@ ; `string'
PUBLIC	??_C@_0N@HNGKNHMM@?$LH?$PO?N?q?M?$KD?V?$LJ?$LD?I?$LJ?$KG@ ; `string'
PUBLIC	??_C@_0BC@OFPAKDFO@?U?$PN?T?Z?$LD?u?J?$LM?$LL?$KP?W?i?$LM?$PO?4?4?4@ ; `string'
PUBLIC	??_C@_0N@POOFBOKN@?$LH?$PO?N?q?F?t?$LG?$KP?$LD?I?$LJ?$KG@ ; `string'
PUBLIC	??_C@_0M@DFOIIBOA@SERVER_ICON@			; `string'
PUBLIC	??_C@_04MLIFMOBA@?M?$KD?V?$LJ@			; `string'
PUBLIC	??_C@_06CCMEENJJ@?$LD?u?J?$LM?$LL?$KP@		; `string'
PUBLIC	??_C@_04OIFFEIFD@?T?K?P?P@			; `string'
PUBLIC	??_C@_0L@LDJEFOCL@?S?N?O?$LH?$LH?$PO?N?q?F?w@	; `string'
PUBLIC	??_C@_0BB@DFCOOJKB@?$FL?5?$CFs?5?$FN?5?9?9?5?$FL?5?$CFs?5?$FN@ ; `string'
PUBLIC	??_C@_0BI@FDOICMHH@?$FL?5?$CFs?5?$FN?5?$LH?$LP?$LM?d?$LC?N?J?$PN?$LM?S?T?X?$LD?I?$LJ?$KG@ ; `string'
PUBLIC	?__LINE__Var@?0??StartServerService@CGameServerDlg@@IAE_NG@Z@4JA ; `CGameServerDlg::StartServerService'::`1'::__LINE__Var
PUBLIC	??_C@_0BP@CKJOPMBN@?$LH?$LP?$LM?d?E?d?V?C?$LC?N?J?$PN?$LC?$LL?$LE?f?T?Z?$LL?r?U?$NP?$LM?S?T?X?J?$KH?$LA?$NM@ ; `string'
PUBLIC	??_C@_0EM@GFMANDOO@g?3?2?M?x?$LK?$PM?2happygamewh?2?$LH?$PO?N?q?$LG?K?2?O?$LF?M?$LD@ ; `string'
PUBLIC	??_C@_0BH@GFNFOOOG@?$CFs?2ServerParameter?4ini@	; `string'
PUBLIC	??_C@_06NHDHPCNO@DBPort@			; `string'
PUBLIC	??_C@_0L@KKFJCNPO@PlatformDB@			; `string'
PUBLIC	??_C@_06BDEHLDKJ@DBAddr@			; `string'
PUBLIC	??_C@_06EKCLIHPK@DBUser@			; `string'
PUBLIC	??_C@_06HJGLHJBN@DBPass@			; `string'
PUBLIC	??_C@_06KMJLGLFD@DBName@			; `string'
PUBLIC	?__LINE__Var@?0??OnBnClickedStartService@CGameServerDlg@@IAEXXZ@4JA ; `CGameServerDlg::OnBnClickedStartService'::`1'::__LINE__Var
PUBLIC	?__LINE__Var@?0??OnBnClickedStopService@CGameServerDlg@@IAEXXZ@4JA ; `CGameServerDlg::OnBnClickedStopService'::`1'::__LINE__Var
PUBLIC	??_C@_0BJ@EBOMCPGB@CreateGameServiceManager@	; `string'
PUBLIC	??_C@_0CJ@DJPOCDMJ@?$LH?$PO?N?q?W?i?$LM?$PO?$LC?$LL?$LE?f?T?Z?$LL?r?U?$NP?$LM?S?T?X?J?$KH?$LA?$NM?$KD?$KM?E?d?V@ ; `string'
PUBLIC	??_C@_0BG@CBENBMOF@?$FL?$CFs?$FN?5?$LB?H?H?$PM?E?d?V?C?$LM?S?T?X?$LD?I?$LJ?$KG@ ; `string'
PUBLIC	??_C@_0CJ@LFENAACN@?$LH?$PO?N?q?U?$PN?T?Z?T?K?P?P?V?P?$KD?$KM?O?$LF?M?$LD?R?$KK?G?s?W?$KC?O?z?$LL?X?$LL@ ; `string'
PUBLIC	??_C@_0L@MLALHOMK@?1ServerID?3@			; `string'
PUBLIC	??_C@_0DG@CDIFDKED@g?3?2?M?x?$LK?$PM?2happygamewh?2?$LH?$PO?N?q?$LG?K?2?O?$LF?M?$LD@ ; `string'
PUBLIC	??_C@_0BD@LMOFNGMO@?$KB?$LA?$CFs?$KB?$LB?D?$KD?$LP?i?$LM?S?T?X?J?$KH?$LA?$NM@ ; `string'
PUBLIC	??_C@_0BM@PEGNCJOH@?U?R?$LC?$LL?$LF?$LN?W?i?$LM?$PO?$LE?$LE?$LN?$KI?$LK?$KP?J?$PN?$KB?$LA?$CFs?$KB?$LB?3?$CFd@ ; `string'
PUBLIC	??_C@_0BL@PDAODLKM@?$LF?w?S?C?$LK?$KP?J?$PN?$KB?$LA?$CFs?$KB?$LB?I?z?$LD?I?$LG?T?O?s?J?$KH?$LA?$NM@ ; `string'
PUBLIC	??_R0PAD@8					; char * `RTTI Type Descriptor'
PUBLIC	??_C@_0BJ@JGPFHIJF@?S?I?S?Z?$KB?$LA?$CFs?$KB?$LB?$KD?$KM?W?i?$LM?$PO?$LE?$LE?$LN?$KI?J?$KH?$LA?$NM@ ; `string'
PUBLIC	??_C@_0DB@JBNKENAJ@?W?i?$LM?$PO?$LE?$LE?$LN?$KI?$LK?$KP?J?$PN?$KB?$LA?$CFs?$KB?$LB?$LC?z?I?z?N?$LE?V?$KK?R?l?$LD?$KD?$LE@ ; `string'
PUBLIC	??_R4IServiceUnitsSink@@6B@			; IServiceUnitsSink::`RTTI Complete Object Locator'
PUBLIC	??_R0?AUIServiceUnitsSink@@@8			; IServiceUnitsSink `RTTI Type Descriptor'
PUBLIC	??_R3IServiceUnitsSink@@8			; IServiceUnitsSink::`RTTI Class Hierarchy Descriptor'
PUBLIC	??_R2IServiceUnitsSink@@8			; IServiceUnitsSink::`RTTI Base Class Array'
PUBLIC	??_R1A@?0A@EA@IServiceUnitsSink@@8		; IServiceUnitsSink::`RTTI Base Class Descriptor at (0,-1,0,64)'
PUBLIC	??_R4CGameServerDlg@@6BCDialog@@@		; CGameServerDlg::`RTTI Complete Object Locator'
PUBLIC	??_R0?AVCGameServerDlg@@@8			; CGameServerDlg `RTTI Type Descriptor'
PUBLIC	??_R3CGameServerDlg@@8				; CGameServerDlg::`RTTI Class Hierarchy Descriptor'
PUBLIC	??_R2CGameServerDlg@@8				; CGameServerDlg::`RTTI Base Class Array'
PUBLIC	??_R1A@?0A@EA@CGameServerDlg@@8			; CGameServerDlg::`RTTI Base Class Descriptor at (0,-1,0,64)'
PUBLIC	??_R1KI@?0A@EA@IServiceUnitsSink@@8		; IServiceUnitsSink::`RTTI Base Class Descriptor at (168,-1,0,64)'
PUBLIC	??_R4CGameServerDlg@@6BIServiceUnitsSink@@@	; CGameServerDlg::`RTTI Complete Object Locator'
EXTRN	__purecall:PROC
EXTRN	??3@YAXPAXI@Z:PROC				; operator delete
EXTRN	?__global_delete@@YAXPAXI@Z:PROC		; __global_delete
EXTRN	_memset:PROC
EXTRN	__imp__GetLastError@0:PROC
EXTRN	__imp__GetModuleHandleA@4:PROC
EXTRN	__imp__GetProcAddress@8:PROC
EXTRN	__imp__lstrcpynA@12:PROC
EXTRN	__imp__PeekMessageA@20:PROC
EXTRN	__imp__PostQuitMessage@4:PROC
EXTRN	__imp__LoadIconA@8:PROC
EXTRN	__imp____stdio_common_vsnprintf_s:PROC
EXTRN	__imp__atol:PROC
EXTRN	__imp___CrtDbgReport:PROC
EXTRN	??3CObject@@SGXPAX@Z:PROC			; CObject::operator delete
EXTRN	?Serialize@CObject@@UAEXAAVCArchive@@@Z:PROC	; CObject::Serialize
EXTRN	?DDX_Control@@YGXPAVCDataExchange@@HAAVCWnd@@@Z:PROC ; DDX_Control
EXTRN	?IsInvokeAllowed@CCmdTarget@@UAEHJ@Z:PROC	; CCmdTarget::IsInvokeAllowed
EXTRN	?GetDispatchIID@CCmdTarget@@UAEHPAU_GUID@@@Z:PROC ; CCmdTarget::GetDispatchIID
EXTRN	?GetTypeInfoCount@CCmdTarget@@UAEIXZ:PROC	; CCmdTarget::GetTypeInfoCount
EXTRN	?GetTypeLibCache@CCmdTarget@@UAEPAVCTypeLibCache@@XZ:PROC ; CCmdTarget::GetTypeLibCache
EXTRN	?GetTypeLib@CCmdTarget@@UAEJKPAPAUITypeLib@@@Z:PROC ; CCmdTarget::GetTypeLib
EXTRN	?GetCommandMap@CCmdTarget@@MBEPBUAFX_OLECMDMAP@@XZ:PROC ; CCmdTarget::GetCommandMap
EXTRN	?GetDispatchMap@CCmdTarget@@MBEPBUAFX_DISPMAP@@XZ:PROC ; CCmdTarget::GetDispatchMap
EXTRN	?GetConnectionMap@CCmdTarget@@MBEPBUAFX_CONNECTIONMAP@@XZ:PROC ; CCmdTarget::GetConnectionMap
EXTRN	?GetEventSinkMap@CCmdTarget@@MBEPBUAFX_EVENTSINKMAP@@XZ:PROC ; CCmdTarget::GetEventSinkMap
EXTRN	?OnCreateAggregates@CCmdTarget@@UAEHXZ:PROC	; CCmdTarget::OnCreateAggregates
EXTRN	?GetInterfaceHook@CCmdTarget@@UAEPAUIUnknown@@PBX@Z:PROC ; CCmdTarget::GetInterfaceHook
EXTRN	?GetExtraConnectionPoints@CCmdTarget@@MAEHPAVCPtrArray@@@Z:PROC ; CCmdTarget::GetExtraConnectionPoints
EXTRN	?GetConnectionHook@CCmdTarget@@MAEPAUIConnectionPoint@@ABU_GUID@@@Z:PROC ; CCmdTarget::GetConnectionHook
EXTRN	?PreSubclassWindow@CWnd@@UAEXXZ:PROC		; CWnd::PreSubclassWindow
EXTRN	?Create@CWnd@@UAEHPBD0KABUtagRECT@@PAV1@IPAUCCreateContext@@@Z:PROC ; CWnd::Create
EXTRN	?CreateEx@CWnd@@UAEHKPBD0KHHHHPAUHWND__@@PAUHMENU__@@PAX@Z:PROC ; CWnd::CreateEx
EXTRN	?CreateEx@CWnd@@UAEHKPBD0KABUtagRECT@@PAV1@IPAX@Z:PROC ; CWnd::CreateEx
EXTRN	?DestroyWindow@CWnd@@UAEHXZ:PROC		; CWnd::DestroyWindow
EXTRN	?PreCreateWindow@CWnd@@UAEHAAUtagCREATESTRUCTA@@@Z:PROC ; CWnd::PreCreateWindow
EXTRN	?CalcWindowRect@CWnd@@UAEXPAUtagRECT@@I@Z:PROC	; CWnd::CalcWindowRect
EXTRN	?GetDlgItem@CWnd@@QBEPAV1@H@Z:PROC		; CWnd::GetDlgItem
EXTRN	?PostMessageA@CWnd@@QAEHIIJ@Z:PROC		; CWnd::PostMessageA
EXTRN	?SetWindowTextA@CWnd@@QAEXPBD@Z:PROC		; CWnd::SetWindowTextA
EXTRN	?GetMenu@CWnd@@UBEPAVCMenu@@XZ:PROC		; CWnd::GetMenu
EXTRN	?SetMenu@CWnd@@UAEHPAVCMenu@@@Z:PROC		; CWnd::SetMenu
EXTRN	?OnToolHitTest@CWnd@@UBEHVCPoint@@PAUtagTOOLINFOA@@@Z:PROC ; CWnd::OnToolHitTest
EXTRN	?EnableWindow@CWnd@@QAEHH@Z:PROC		; CWnd::EnableWindow
EXTRN	?SetDlgItemInt@CWnd@@QAEXHIH@Z:PROC		; CWnd::SetDlgItemInt
EXTRN	?SetDlgItemTextA@CWnd@@QAEXHPBD@Z:PROC		; CWnd::SetDlgItemTextA
EXTRN	?GetScrollBarCtrl@CWnd@@UBEPAVCScrollBar@@H@Z:PROC ; CWnd::GetScrollBarCtrl
EXTRN	?SetIcon@CWnd@@QAEPAUHICON__@@PAU2@H@Z:PROC	; CWnd::SetIcon
EXTRN	?WinHelpA@CWnd@@UAEXKI@Z:PROC			; CWnd::WinHelpA
EXTRN	?HtmlHelpA@CWnd@@UAEXKI@Z:PROC			; CWnd::HtmlHelpA
EXTRN	?WinHelpInternal@CWnd@@UAEXKI@Z:PROC		; CWnd::WinHelpInternal
EXTRN	?ContinueModal@CWnd@@UAEHXZ:PROC		; CWnd::ContinueModal
EXTRN	?EndModalLoop@CWnd@@UAEXH@Z:PROC		; CWnd::EndModalLoop
EXTRN	?OnDrawIconicThumbnailOrLivePreview@CWnd@@UAEXAAVCDC@@VCRect@@VCSize@@HAAH@Z:PROC ; CWnd::OnDrawIconicThumbnailOrLivePreview
EXTRN	?GetInterfaceMap@CWnd@@MBEPBUAFX_INTERFACEMAP@@XZ:PROC ; CWnd::GetInterfaceMap
EXTRN	?EnsureStdObj@CWnd@@UAEJXZ:PROC			; CWnd::EnsureStdObj
EXTRN	?get_accParent@CWnd@@UAEJPAPAUIDispatch@@@Z:PROC ; CWnd::get_accParent
EXTRN	?get_accChildCount@CWnd@@UAEJPAJ@Z:PROC		; CWnd::get_accChildCount
EXTRN	?get_accChild@CWnd@@UAEJUtagVARIANT@@PAPAUIDispatch@@@Z:PROC ; CWnd::get_accChild
EXTRN	?get_accName@CWnd@@UAEJUtagVARIANT@@PAPA_W@Z:PROC ; CWnd::get_accName
EXTRN	?get_accValue@CWnd@@UAEJUtagVARIANT@@PAPA_W@Z:PROC ; CWnd::get_accValue
EXTRN	?get_accDescription@CWnd@@UAEJUtagVARIANT@@PAPA_W@Z:PROC ; CWnd::get_accDescription
EXTRN	?get_accRole@CWnd@@UAEJUtagVARIANT@@PAU2@@Z:PROC ; CWnd::get_accRole
EXTRN	?get_accState@CWnd@@UAEJUtagVARIANT@@PAU2@@Z:PROC ; CWnd::get_accState
EXTRN	?get_accHelp@CWnd@@UAEJUtagVARIANT@@PAPA_W@Z:PROC ; CWnd::get_accHelp
EXTRN	?get_accHelpTopic@CWnd@@UAEJPAPA_WUtagVARIANT@@PAJ@Z:PROC ; CWnd::get_accHelpTopic
EXTRN	?get_accKeyboardShortcut@CWnd@@UAEJUtagVARIANT@@PAPA_W@Z:PROC ; CWnd::get_accKeyboardShortcut
EXTRN	?get_accFocus@CWnd@@UAEJPAUtagVARIANT@@@Z:PROC	; CWnd::get_accFocus
EXTRN	?get_accSelection@CWnd@@UAEJPAUtagVARIANT@@@Z:PROC ; CWnd::get_accSelection
EXTRN	?get_accDefaultAction@CWnd@@UAEJUtagVARIANT@@PAPA_W@Z:PROC ; CWnd::get_accDefaultAction
EXTRN	?accSelect@CWnd@@UAEJJUtagVARIANT@@@Z:PROC	; CWnd::accSelect
EXTRN	?accLocation@CWnd@@UAEJPAJ000UtagVARIANT@@@Z:PROC ; CWnd::accLocation
EXTRN	?accNavigate@CWnd@@UAEJJUtagVARIANT@@PAU2@@Z:PROC ; CWnd::accNavigate
EXTRN	?accHitTest@CWnd@@UAEJJJPAUtagVARIANT@@@Z:PROC	; CWnd::accHitTest
EXTRN	?accDoDefaultAction@CWnd@@UAEJUtagVARIANT@@@Z:PROC ; CWnd::accDoDefaultAction
EXTRN	?put_accName@CWnd@@UAEJUtagVARIANT@@PA_W@Z:PROC	; CWnd::put_accName
EXTRN	?put_accValue@CWnd@@UAEJUtagVARIANT@@PA_W@Z:PROC ; CWnd::put_accValue
EXTRN	?SetProxy@CWnd@@UAEJPAUIAccessibleProxy@@@Z:PROC ; CWnd::SetProxy
EXTRN	?CreateAccessibleProxy@CWnd@@UAEJIJPAJ@Z:PROC	; CWnd::CreateAccessibleProxy
EXTRN	?OnCommand@CWnd@@MAEHIJ@Z:PROC			; CWnd::OnCommand
EXTRN	?OnNotify@CWnd@@MAEHIJPAJ@Z:PROC		; CWnd::OnNotify
EXTRN	?GetSuperWndProcAddr@CWnd@@MAEPAP6GJPAUHWND__@@IIJ@ZXZ:PROC ; CWnd::GetSuperWndProcAddr
EXTRN	?DoDataExchange@CWnd@@MAEXPAVCDataExchange@@@Z:PROC ; CWnd::DoDataExchange
EXTRN	?BeginModalState@CWnd@@UAEXXZ:PROC		; CWnd::BeginModalState
EXTRN	?EndModalState@CWnd@@UAEXXZ:PROC		; CWnd::EndModalState
EXTRN	?OnAmbientProperty@CWnd@@UAEHPAVCOleControlSite@@JPAUtagVARIANT@@@Z:PROC ; CWnd::OnAmbientProperty
EXTRN	?WindowProc@CWnd@@MAEJIIJ@Z:PROC		; CWnd::WindowProc
EXTRN	?OnWndMsg@CWnd@@MAEHIIJPAJ@Z:PROC		; CWnd::OnWndMsg
EXTRN	?DefWindowProcA@CWnd@@MAEJIIJ@Z:PROC		; CWnd::DefWindowProcA
EXTRN	?PostNcDestroy@CWnd@@MAEXXZ:PROC		; CWnd::PostNcDestroy
EXTRN	?OnChildNotify@CWnd@@MAEHIIJPAJ@Z:PROC		; CWnd::OnChildNotify
EXTRN	?OnTouchInputs@CWnd@@MAEHIPAUtagTOUCHINPUT@@@Z:PROC ; CWnd::OnTouchInputs
EXTRN	?OnTouchInput@CWnd@@MAEHVCPoint@@HHPAUtagTOUCHINPUT@@@Z:PROC ; CWnd::OnTouchInput
EXTRN	?GetGestureStatus@CWnd@@MAEKVCPoint@@@Z:PROC	; CWnd::GetGestureStatus
EXTRN	?OnGestureZoom@CWnd@@MAEHVCPoint@@J@Z:PROC	; CWnd::OnGestureZoom
EXTRN	?OnGesturePan@CWnd@@MAEHVCPoint@@0@Z:PROC	; CWnd::OnGesturePan
EXTRN	?OnGestureRotate@CWnd@@MAEHVCPoint@@N@Z:PROC	; CWnd::OnGestureRotate
EXTRN	?OnGestureTwoFingerTap@CWnd@@MAEHVCPoint@@@Z:PROC ; CWnd::OnGestureTwoFingerTap
EXTRN	?OnGesturePressAndTap@CWnd@@MAEHVCPoint@@J@Z:PROC ; CWnd::OnGesturePressAndTap
EXTRN	?ResizeDynamicLayout@CWnd@@MAEXXZ:PROC		; CWnd::ResizeDynamicLayout
EXTRN	?IsFrameWnd@CWnd@@UBEHXZ:PROC			; CWnd::IsFrameWnd
EXTRN	?OnFinalRelease@CWnd@@UAEXXZ:PROC		; CWnd::OnFinalRelease
EXTRN	?CreateControlContainer@CWnd@@MAEHPAPAVCOleControlContainer@@@Z:PROC ; CWnd::CreateControlContainer
EXTRN	?CreateControlSite@CWnd@@MAEHPAVCOleControlContainer@@PAPAVCOleControlSite@@IABU_GUID@@@Z:PROC ; CWnd::CreateControlSite
EXTRN	?GetRuntimeClass@CDialog@@UBEPAUCRuntimeClass@@XZ:PROC ; CDialog::GetRuntimeClass
EXTRN	?Create@CDialog@@UAEHPBDPAVCWnd@@@Z:PROC	; CDialog::Create
EXTRN	?Create@CDialog@@UAEHIPAVCWnd@@@Z:PROC		; CDialog::Create
EXTRN	?CreateIndirect@CDialog@@UAEHPBUDLGTEMPLATE@@PAVCWnd@@PAX@Z:PROC ; CDialog::CreateIndirect
EXTRN	?CreateIndirect@CDialog@@UAEHPAXPAVCWnd@@@Z:PROC ; CDialog::CreateIndirect
EXTRN	??0CDialog@@QAE@IPAVCWnd@@@Z:PROC		; CDialog::CDialog
EXTRN	?DoModal@CDialog@@UAEHXZ:PROC			; CDialog::DoModal
EXTRN	?OnInitDialog@CDialog@@UAEHXZ:PROC		; CDialog::OnInitDialog
EXTRN	?OnSetFont@CDialog@@UAEXPAVCFont@@@Z:PROC	; CDialog::OnSetFont
EXTRN	?OnCancel@CDialog@@MAEXXZ:PROC			; CDialog::OnCancel
EXTRN	??1CDialog@@UAE@XZ:PROC				; CDialog::~CDialog
EXTRN	?AssertValid@CDialog@@UBEXXZ:PROC		; CDialog::AssertValid
EXTRN	?Dump@CDialog@@UBEXAAVCDumpContext@@@Z:PROC	; CDialog::Dump
EXTRN	?PreTranslateMessage@CDialog@@UAEHPAUtagMSG@@@Z:PROC ; CDialog::PreTranslateMessage
EXTRN	?OnCmdMsg@CDialog@@UAEHIHPAXPAUAFX_CMDHANDLERINFO@@@Z:PROC ; CDialog::OnCmdMsg
EXTRN	?CheckAutoCenter@CDialog@@UAEHXZ:PROC		; CDialog::CheckAutoCenter
EXTRN	?SetOccDialogInfo@CDialog@@MAEHPAU_AFX_OCC_DIALOG_INFO@@@Z:PROC ; CDialog::SetOccDialogInfo
EXTRN	?GetOccDialogInfo@CDialog@@MAEPAU_AFX_OCC_DIALOG_INFO@@XZ:PROC ; CDialog::GetOccDialogInfo
EXTRN	?PreInitDialog@CDialog@@MAEXXZ:PROC		; CDialog::PreInitDialog
EXTRN	?SetIcon@CStatic@@QAEPAUHICON__@@PAU2@@Z:PROC	; CStatic::SetIcon
EXTRN	?AfxGetApp@@YGPAVCWinApp@@XZ:PROC		; AfxGetApp
EXTRN	?AfxGetInstanceHandle@@YGPAUHINSTANCE__@@XZ:PROC ; AfxGetInstanceHandle
EXTRN	?AfxSetResourceHandle@@YGXPAUHINSTANCE__@@@Z:PROC ; AfxSetResourceHandle
EXTRN	?AfxMessageBox@@YGHPBDII@Z:PROC			; AfxMessageBox
EXTRN	?AfxLoadLibrary@@YGPAUHINSTANCE__@@PBD@Z:PROC	; AfxLoadLibrary
EXTRN	?AfxFreeLibrary@@YGHPAUHINSTANCE__@@@Z:PROC	; AfxFreeLibrary
EXTRN	__imp_?GetWorkDirectory@CWHService@@SA_NQADG@Z:PROC
EXTRN	__imp_??0CWHIniData@@QAE@XZ:PROC
EXTRN	__imp_??1CWHIniData@@UAE@XZ:PROC
EXTRN	__imp_?SetIniFilePath@CWHIniData@@QAEXPBD@Z:PROC
EXTRN	__imp_?ReadInt@CWHIniData@@QAEIPBD0H@Z:PROC
EXTRN	__imp_?ReadEncryptString@CWHIniData@@QAEPBDPBD00PADG@Z:PROC
EXTRN	__imp_??0CWHCommandLine@@QAE@XZ:PROC
EXTRN	__imp_??1CWHCommandLine@@UAE@XZ:PROC
EXTRN	__imp_?SearchCommandItem@CWHCommandLine@@QAE_NPBD0QADG@Z:PROC
EXTRN	__imp_?TraceString@CTraceService@@SA_NPBDW4enTraceLevel@@@Z:PROC
EXTRN	__imp_??0CTraceServiceControl@@QAE@XZ:PROC
EXTRN	__imp_??1CTraceServiceControl@@UAE@XZ:PROC
EXTRN	??_E?$CTempldateHelper@UIGameServiceManager@@@@UAEPAXI@Z:PROC ; CTempldateHelper<IGameServiceManager>::`vector deleting destructor'
EXTRN	??_ECGameServiceManagerHelper@@UAEPAXI@Z:PROC	; CGameServiceManagerHelper::`vector deleting destructor'
EXTRN	__imp_??0CDlgServerItem@@QAE@XZ:PROC
EXTRN	__imp_??1CDlgServerItem@@UAE@XZ:PROC
EXTRN	__imp_?OpenGameServer@CDlgServerItem@@QAE_NXZ:PROC
EXTRN	__imp_?OpenGameServer@CDlgServerItem@@QAE_NG@Z:PROC
EXTRN	__imp_?LoadPersonalRoomPatameter@CDlgServerItem@@QAE_NG@Z:PROC
EXTRN	__imp_??0CDlgServerMatch@@QAE@XZ:PROC
EXTRN	__imp_??1CDlgServerMatch@@UAE@XZ:PROC
EXTRN	__imp_?OpenGameMatch@CDlgServerMatch@@QAE_NAAUtagGameServiceAttrib@@AAUtagGameServiceOption@@@Z:PROC
EXTRN	__imp_??0CDlgServerWizard@@QAE@XZ:PROC
EXTRN	__imp_??1CDlgServerWizard@@UAE@XZ:PROC
EXTRN	__imp_?CreateGameServer@CDlgServerWizard@@QAE_NXZ:PROC
EXTRN	__imp_?SetWizardParameter@CDlgServerWizard@@QAEXPAUIGameServiceManager@@PAUtagGameServiceOption@@@Z:PROC
EXTRN	__imp_?SetPersonalRoomParameter@CDlgServerWizard@@QAEXUtagPersonalRoomOption@@UtagPersonalRoomOptionRightAndFee@@@Z:PROC
EXTRN	__imp_??0CModuleDBParameter@@QAE@XZ:PROC
EXTRN	__imp_??1CModuleDBParameter@@UAE@XZ:PROC
EXTRN	__imp_?SetPlatformDBParameter@CModuleDBParameter@@QAEXAAUtagDataBaseParameter@@@Z:PROC
EXTRN	??0CServiceUnits@@QAE@XZ:PROC			; CServiceUnits::CServiceUnits
EXTRN	??1CServiceUnits@@UAE@XZ:PROC			; CServiceUnits::~CServiceUnits
EXTRN	?SetServiceUnitsSink@CServiceUnits@@QAE_NPAUIServiceUnitsSink@@@Z:PROC ; CServiceUnits::SetServiceUnitsSink
EXTRN	?StartService@CServiceUnits@@QAE_NXZ:PROC	; CServiceUnits::StartService
EXTRN	?ConcludeService@CServiceUnits@@QAE_NXZ:PROC	; CServiceUnits::ConcludeService
EXTRN	?CollocateService@CServiceUnits@@QAE_NAAUtagGameMatchOption@@@Z:PROC ; CServiceUnits::CollocateService
EXTRN	?CollocateService@CServiceUnits@@QAE_NPBDAAUtagGameServiceOption@@@Z:PROC ; CServiceUnits::CollocateService
EXTRN	??_ECGameServerDlg@@UAEPAXI@Z:PROC		; CGameServerDlg::`vector deleting destructor'
EXTRN	@__security_check_cookie@4:PROC
EXTRN	___CxxFrameHandler3:PROC
EXTRN	__chkstk:PROC
EXTRN	_memset:PROC
EXTRN	??_7type_info@@6B@:QWORD			; type_info::`vftable'
EXTRN	___security_cookie:DWORD
;	COMDAT ?_OptionsStorage@?1??__local_stdio_printf_options@@9@4_KA
_BSS	SEGMENT
?_OptionsStorage@?1??__local_stdio_printf_options@@9@4_KA DQ 01H DUP (?) ; `__local_stdio_printf_options'::`2'::_OptionsStorage
_BSS	ENDS
;	COMDAT ??_R4CGameServerDlg@@6BIServiceUnitsSink@@@
rdata$r	SEGMENT
??_R4CGameServerDlg@@6BIServiceUnitsSink@@@ DD 00H	; CGameServerDlg::`RTTI Complete Object Locator'
	DD	0a8H
	DD	00H
	DD	FLAT:??_R0?AVCGameServerDlg@@@8
	DD	FLAT:??_R3CGameServerDlg@@8
rdata$r	ENDS
;	COMDAT ??_R1KI@?0A@EA@IServiceUnitsSink@@8
rdata$r	SEGMENT
??_R1KI@?0A@EA@IServiceUnitsSink@@8 DD FLAT:??_R0?AUIServiceUnitsSink@@@8 ; IServiceUnitsSink::`RTTI Base Class Descriptor at (168,-1,0,64)'
	DD	00H
	DD	0a8H
	DD	0ffffffffH
	DD	00H
	DD	040H
	DD	FLAT:??_R3IServiceUnitsSink@@8
rdata$r	ENDS
;	COMDAT ??_R1A@?0A@EA@CGameServerDlg@@8
rdata$r	SEGMENT
??_R1A@?0A@EA@CGameServerDlg@@8 DD FLAT:??_R0?AVCGameServerDlg@@@8 ; CGameServerDlg::`RTTI Base Class Descriptor at (0,-1,0,64)'
	DD	05H
	DD	00H
	DD	0ffffffffH
	DD	00H
	DD	040H
	DD	FLAT:??_R3CGameServerDlg@@8
rdata$r	ENDS
;	COMDAT ??_R2CGameServerDlg@@8
rdata$r	SEGMENT
??_R2CGameServerDlg@@8 DD FLAT:??_R1A@?0A@EA@CGameServerDlg@@8 ; CGameServerDlg::`RTTI Base Class Array'
	DD	FLAT:??_R1A@?0A@EA@CDialog@@8
	DD	FLAT:??_R1A@?0A@EA@CWnd@@8
	DD	FLAT:??_R1A@?0A@EA@CCmdTarget@@8
	DD	FLAT:??_R1A@?0A@EA@CObject@@8
	DD	FLAT:??_R1KI@?0A@EA@IServiceUnitsSink@@8
rdata$r	ENDS
;	COMDAT ??_R3CGameServerDlg@@8
rdata$r	SEGMENT
??_R3CGameServerDlg@@8 DD 00H				; CGameServerDlg::`RTTI Class Hierarchy Descriptor'
	DD	01H
	DD	06H
	DD	FLAT:??_R2CGameServerDlg@@8
rdata$r	ENDS
;	COMDAT ??_R0?AVCGameServerDlg@@@8
data$r	SEGMENT
??_R0?AVCGameServerDlg@@@8 DD FLAT:??_7type_info@@6B@	; CGameServerDlg `RTTI Type Descriptor'
	DD	00H
	DB	'.?AVCGameServerDlg@@', 00H
data$r	ENDS
;	COMDAT ??_R4CGameServerDlg@@6BCDialog@@@
rdata$r	SEGMENT
??_R4CGameServerDlg@@6BCDialog@@@ DD 00H		; CGameServerDlg::`RTTI Complete Object Locator'
	DD	00H
	DD	00H
	DD	FLAT:??_R0?AVCGameServerDlg@@@8
	DD	FLAT:??_R3CGameServerDlg@@8
rdata$r	ENDS
;	COMDAT ??_R1A@?0A@EA@IServiceUnitsSink@@8
rdata$r	SEGMENT
??_R1A@?0A@EA@IServiceUnitsSink@@8 DD FLAT:??_R0?AUIServiceUnitsSink@@@8 ; IServiceUnitsSink::`RTTI Base Class Descriptor at (0,-1,0,64)'
	DD	00H
	DD	00H
	DD	0ffffffffH
	DD	00H
	DD	040H
	DD	FLAT:??_R3IServiceUnitsSink@@8
rdata$r	ENDS
;	COMDAT ??_R2IServiceUnitsSink@@8
rdata$r	SEGMENT
??_R2IServiceUnitsSink@@8 DD FLAT:??_R1A@?0A@EA@IServiceUnitsSink@@8 ; IServiceUnitsSink::`RTTI Base Class Array'
rdata$r	ENDS
;	COMDAT ??_R3IServiceUnitsSink@@8
rdata$r	SEGMENT
??_R3IServiceUnitsSink@@8 DD 00H			; IServiceUnitsSink::`RTTI Class Hierarchy Descriptor'
	DD	00H
	DD	01H
	DD	FLAT:??_R2IServiceUnitsSink@@8
rdata$r	ENDS
;	COMDAT ??_R0?AUIServiceUnitsSink@@@8
data$r	SEGMENT
??_R0?AUIServiceUnitsSink@@@8 DD FLAT:??_7type_info@@6B@ ; IServiceUnitsSink `RTTI Type Descriptor'
	DD	00H
	DB	'.?AUIServiceUnitsSink@@', 00H
data$r	ENDS
;	COMDAT ??_R4IServiceUnitsSink@@6B@
rdata$r	SEGMENT
??_R4IServiceUnitsSink@@6B@ DD 00H			; IServiceUnitsSink::`RTTI Complete Object Locator'
	DD	00H
	DD	00H
	DD	FLAT:??_R0?AUIServiceUnitsSink@@@8
	DD	FLAT:??_R3IServiceUnitsSink@@8
rdata$r	ENDS
;	COMDAT ??_C@_0DB@JBNKENAJ@?W?i?$LM?$PO?$LE?$LE?$LN?$KI?$LK?$KP?J?$PN?$KB?$LA?$CFs?$KB?$LB?$LC?z?I?z?N?$LE?V?$KK?R?l?$LD?$KD?$LE@
CONST	SEGMENT
??_C@_0DB@JBNKENAJ@?W?i?$LM?$PO?$LE?$LE?$LN?$KI?$LK?$KP?J?$PN?$KB?$LA?$CFs?$KB?$LB?$LC?z?I?z?N?$LE?V?$KK?R?l?$LD?$KD?$LE@ DB 0d7H
	DB	0e9H, 0bcH, 0feH, 0b4H, 0b4H, 0bdH, 0a8H, 0baH, 0afH, 0caH, 0fdH
	DB	0a1H, 0b0H, '%s', 0a1H, 0b1H, 0b2H, 0faH, 0c9H, 0faH, 0ceH, 0b4H
	DB	0d6H, 0aaH, 0d2H, 0ecH, 0b3H, 0a3H, 0b4H, 0edH, 0ceH, 0f3H, 0a3H
	DB	0acH, 0d7H, 0e9H, 0bcH, 0feH, 0b4H, 0b4H, 0bdH, 0a8H, 0caH, 0a7H
	DB	0b0H, 0dcH, 00H				; `string'
CONST	ENDS
;	COMDAT ??_C@_0BJ@JGPFHIJF@?S?I?S?Z?$KB?$LA?$CFs?$KB?$LB?$KD?$KM?W?i?$LM?$PO?$LE?$LE?$LN?$KI?J?$KH?$LA?$NM@
CONST	SEGMENT
??_C@_0BJ@JGPFHIJF@?S?I?S?Z?$KB?$LA?$CFs?$KB?$LB?$KD?$KM?W?i?$LM?$PO?$LE?$LE?$LN?$KI?J?$KH?$LA?$NM@ DB 0d3H
	DB	0c9H, 0d3H, 0daH, 0a1H, 0b0H, '%s', 0a1H, 0b1H, 0a3H, 0acH, 0d7H
	DB	0e9H, 0bcH, 0feH, 0b4H, 0b4H, 0bdH, 0a8H, 0caH, 0a7H, 0b0H, 0dcH
	DB	00H						; `string'
CONST	ENDS
;	COMDAT ??_R0PAD@8
data$r	SEGMENT
??_R0PAD@8 DD	FLAT:??_7type_info@@6B@			; char * `RTTI Type Descriptor'
	DD	00H
	DB	'.PAD', 00H
data$r	ENDS
;	COMDAT ??_C@_0BL@PDAODLKM@?$LF?w?S?C?$LK?$KP?J?$PN?$KB?$LA?$CFs?$KB?$LB?I?z?$LD?I?$LG?T?O?s?J?$KH?$LA?$NM@
CONST	SEGMENT
??_C@_0BL@PDAODLKM@?$LF?w?S?C?$LK?$KP?J?$PN?$KB?$LA?$CFs?$KB?$LB?I?z?$LD?I?$LG?T?O?s?J?$KH?$LA?$NM@ DB 0b5H
	DB	0f7H, 0d3H, 0c3H, 0baH, 0afH, 0caH, 0fdH, 0a1H, 0b0H, '%s', 0a1H
	DB	0b1H, 0c9H, 0faH, 0b3H, 0c9H, 0b6H, 0d4H, 0cfH, 0f3H, 0caH, 0a7H
	DB	0b0H, 0dcH, 00H				; `string'
CONST	ENDS
;	COMDAT ??_C@_0BM@PEGNCJOH@?U?R?$LC?$LL?$LF?$LN?W?i?$LM?$PO?$LE?$LE?$LN?$KI?$LK?$KP?J?$PN?$KB?$LA?$CFs?$KB?$LB?3?$CFd@
CONST	SEGMENT
??_C@_0BM@PEGNCJOH@?U?R?$LC?$LL?$LF?$LN?W?i?$LM?$PO?$LE?$LE?$LN?$KI?$LK?$KP?J?$PN?$KB?$LA?$CFs?$KB?$LB?3?$CFd@ DB 0d5H
	DB	0d2H, 0b2H, 0bbH, 0b5H, 0bdH, 0d7H, 0e9H, 0bcH, 0feH, 0b4H, 0b4H
	DB	0bdH, 0a8H, 0baH, 0afH, 0caH, 0fdH, 0a1H, 0b0H, '%s', 0a1H, 0b1H
	DB	':%d', 00H					; `string'
CONST	ENDS
;	COMDAT ??_C@_0BD@LMOFNGMO@?$KB?$LA?$CFs?$KB?$LB?D?$KD?$LP?i?$LM?S?T?X?J?$KH?$LA?$NM@
CONST	SEGMENT
??_C@_0BD@LMOFNGMO@?$KB?$LA?$CFs?$KB?$LB?D?$KD?$LP?i?$LM?S?T?X?J?$KH?$LA?$NM@ DB 0a1H
	DB	0b0H, '%s', 0a1H, 0b1H, 0c4H, 0a3H, 0bfH, 0e9H, 0bcH, 0d3H, 0d4H
	DB	0d8H, 0caH, 0a7H, 0b0H, 0dcH, 00H		; `string'
CONST	ENDS
;	COMDAT ??_C@_0DG@CDIFDKED@g?3?2?M?x?$LK?$PM?2happygamewh?2?$LH?$PO?N?q?$LG?K?2?O?$LF?M?$LD@
CONST	SEGMENT
??_C@_0DG@CDIFDKED@g?3?2?M?x?$LK?$PM?2happygamewh?2?$LH?$PO?N?q?$LG?K?2?O?$LF?M?$LD@ DB 'g'
	DB	':\', 0cdH, 0f8H, 0baH, 0fcH, '\happygamewh\', 0b7H, 0feH, 0ceH
	DB	0f1H, 0b6H, 0cbH, '\', 0cfH, 0b5H, 0cdH, 0b3H, 0c4H, 0a3H, 0bfH
	DB	0e9H, '\', 0c8H, 0abH, 0beH, 0d6H, 0b6H, 0a8H, 0d2H, 0e5H, '\m'
	DB	'odule.h', 00H				; `string'
CONST	ENDS
;	COMDAT ??_C@_0L@MLALHOMK@?1ServerID?3@
CONST	SEGMENT
??_C@_0L@MLALHOMK@?1ServerID?3@ DB '/ServerID:', 00H	; `string'
CONST	ENDS
;	COMDAT ??_C@_0CJ@LFENAACN@?$LH?$PO?N?q?U?$PN?T?Z?T?K?P?P?V?P?$KD?$KM?O?$LF?M?$LD?R?$KK?G?s?W?$KC?O?z?$LL?X?$LL@
CONST	SEGMENT
??_C@_0CJ@LFENAACN@?$LH?$PO?N?q?U?$PN?T?Z?T?K?P?P?V?P?$KD?$KM?O?$LF?M?$LD?R?$KK?G?s?W?$KC?O?z?$LL?X?$LL@ DB 0b7H
	DB	0feH, 0ceH, 0f1H, 0d5H, 0fdH, 0d4H, 0daH, 0d4H, 0cbH, 0d0H, 0d0H
	DB	0d6H, 0d0H, 0a3H, 0acH, 0cfH, 0b5H, 0cdH, 0b3H, 0d2H, 0aaH, 0c7H
	DB	0f3H, 0d7H, 0a2H, 0cfH, 0faH, 0bbH, 0d8H, 0bbH, 0b0H, 0c7H, 0ebH
	DB	0c7H, 0f3H, 0caH, 0a7H, 0b0H, 0dcH, 00H	; `string'
CONST	ENDS
;	COMDAT ??_C@_0BG@CBENBMOF@?$FL?$CFs?$FN?5?$LB?H?H?$PM?E?d?V?C?$LM?S?T?X?$LD?I?$LJ?$KG@
CONST	SEGMENT
??_C@_0BG@CBENBMOF@?$FL?$CFs?$FN?5?$LB?H?H?$PM?E?d?V?C?$LM?S?T?X?$LD?I?$LJ?$KG@ DB '['
	DB	'%s] ', 0b1H, 0c8H, 0c8H, 0fcH, 0c5H, 0e4H, 0d6H, 0c3H, 0bcH, 0d3H
	DB	0d4H, 0d8H, 0b3H, 0c9H, 0b9H, 0a6H, 00H	; `string'
CONST	ENDS
;	COMDAT ??_C@_0CJ@DJPOCDMJ@?$LH?$PO?N?q?W?i?$LM?$PO?$LC?$LL?$LE?f?T?Z?$LL?r?U?$NP?$LM?S?T?X?J?$KH?$LA?$NM?$KD?$KM?E?d?V@
CONST	SEGMENT
??_C@_0CJ@DJPOCDMJ@?$LH?$PO?N?q?W?i?$LM?$PO?$LC?$LL?$LE?f?T?Z?$LL?r?U?$NP?$LM?S?T?X?J?$KH?$LA?$NM?$KD?$KM?E?d?V@ DB 0b7H
	DB	0feH, 0ceH, 0f1H, 0d7H, 0e9H, 0bcH, 0feH, 0b2H, 0bbH, 0b4H, 0e6H
	DB	0d4H, 0daH, 0bbH, 0f2H, 0d5H, 0dfH, 0bcH, 0d3H, 0d4H, 0d8H, 0caH
	DB	0a7H, 0b0H, 0dcH, 0a3H, 0acH, 0c5H, 0e4H, 0d6H, 0c3H, 0b7H, 0bfH
	DB	0bcH, 0e4H, 0caH, 0a7H, 0b0H, 0dcH, 00H	; `string'
CONST	ENDS
;	COMDAT ??_C@_0BJ@EBOMCPGB@CreateGameServiceManager@
CONST	SEGMENT
??_C@_0BJ@EBOMCPGB@CreateGameServiceManager@ DB 'CreateGameServiceManager'
	DB	00H						; `string'
CONST	ENDS
;	COMDAT ?__LINE__Var@?0??OnBnClickedStopService@CGameServerDlg@@IAEXXZ@4JA
_DATA	SEGMENT
?__LINE__Var@?0??OnBnClickedStopService@CGameServerDlg@@IAEXXZ@4JA DD 018cH ; `CGameServerDlg::OnBnClickedStopService'::`1'::__LINE__Var
_DATA	ENDS
;	COMDAT ?__LINE__Var@?0??OnBnClickedStartService@CGameServerDlg@@IAEXXZ@4JA
_DATA	SEGMENT
?__LINE__Var@?0??OnBnClickedStartService@CGameServerDlg@@IAEXXZ@4JA DD 017cH ; `CGameServerDlg::OnBnClickedStartService'::`1'::__LINE__Var
_DATA	ENDS
;	COMDAT ??_C@_06KMJLGLFD@DBName@
CONST	SEGMENT
??_C@_06KMJLGLFD@DBName@ DB 'DBName', 00H		; `string'
CONST	ENDS
;	COMDAT ??_C@_06HJGLHJBN@DBPass@
CONST	SEGMENT
??_C@_06HJGLHJBN@DBPass@ DB 'DBPass', 00H		; `string'
CONST	ENDS
;	COMDAT ??_C@_06EKCLIHPK@DBUser@
CONST	SEGMENT
??_C@_06EKCLIHPK@DBUser@ DB 'DBUser', 00H		; `string'
CONST	ENDS
;	COMDAT ??_C@_06BDEHLDKJ@DBAddr@
CONST	SEGMENT
??_C@_06BDEHLDKJ@DBAddr@ DB 'DBAddr', 00H		; `string'
CONST	ENDS
;	COMDAT ??_C@_0L@KKFJCNPO@PlatformDB@
CONST	SEGMENT
??_C@_0L@KKFJCNPO@PlatformDB@ DB 'PlatformDB', 00H	; `string'
CONST	ENDS
;	COMDAT ??_C@_06NHDHPCNO@DBPort@
CONST	SEGMENT
??_C@_06NHDHPCNO@DBPort@ DB 'DBPort', 00H		; `string'
CONST	ENDS
;	COMDAT ??_C@_0BH@GFNFOOOG@?$CFs?2ServerParameter?4ini@
CONST	SEGMENT
??_C@_0BH@GFNFOOOG@?$CFs?2ServerParameter?4ini@ DB '%s\ServerParameter.in'
	DB	'i', 00H					; `string'
CONST	ENDS
;	COMDAT ??_C@_0EM@GFMANDOO@g?3?2?M?x?$LK?$PM?2happygamewh?2?$LH?$PO?N?q?$LG?K?2?O?$LF?M?$LD@
CONST	SEGMENT
??_C@_0EM@GFMANDOO@g?3?2?M?x?$LK?$PM?2happygamewh?2?$LH?$PO?N?q?$LG?K?2?O?$LF?M?$LD@ DB 'g'
	DB	':\', 0cdH, 0f8H, 0baH, 0fcH, '\happygamewh\', 0b7H, 0feH, 0ceH
	DB	0f1H, 0b6H, 0cbH, '\', 0cfH, 0b5H, 0cdH, 0b3H, 0c4H, 0a3H, 0bfH
	DB	0e9H, '\', 0b7H, 0feH, 0ceH, 0f1H, 0c6H, 0f7H, 0d7H, 0e9H, 0bcH
	DB	0feH, '\', 0d3H, 0ceH, 0cfH, 0b7H, 0b7H, 0feH, 0ceH, 0f1H, 0c6H
	DB	0f7H, '\gameserverdlg.cpp', 00H		; `string'
CONST	ENDS
;	COMDAT ??_C@_0BP@CKJOPMBN@?$LH?$LP?$LM?d?E?d?V?C?$LC?N?J?$PN?$LC?$LL?$LE?f?T?Z?$LL?r?U?$NP?$LM?S?T?X?J?$KH?$LA?$NM@
CONST	SEGMENT
??_C@_0BP@CKJOPMBN@?$LH?$LP?$LM?d?E?d?V?C?$LC?N?J?$PN?$LC?$LL?$LE?f?T?Z?$LL?r?U?$NP?$LM?S?T?X?J?$KH?$LA?$NM@ DB 0b7H
	DB	0bfH, 0bcH, 0e4H, 0c5H, 0e4H, 0d6H, 0c3H, 0b2H, 0ceH, 0caH, 0fdH
	DB	0b2H, 0bbH, 0b4H, 0e6H, 0d4H, 0daH, 0bbH, 0f2H, 0d5H, 0dfH, 0bcH
	DB	0d3H, 0d4H, 0d8H, 0caH, 0a7H, 0b0H, 0dcH, 00H ; `string'
CONST	ENDS
;	COMDAT ?__LINE__Var@?0??StartServerService@CGameServerDlg@@IAE_NG@Z@4JA
_DATA	SEGMENT
?__LINE__Var@?0??StartServerService@CGameServerDlg@@IAE_NG@Z@4JA DD 0140H ; `CGameServerDlg::StartServerService'::`1'::__LINE__Var
_DATA	ENDS
;	COMDAT ??_C@_0BI@FDOICMHH@?$FL?5?$CFs?5?$FN?5?$LH?$LP?$LM?d?$LC?N?J?$PN?$LM?S?T?X?$LD?I?$LJ?$KG@
CONST	SEGMENT
??_C@_0BI@FDOICMHH@?$FL?5?$CFs?5?$FN?5?$LH?$LP?$LM?d?$LC?N?J?$PN?$LM?S?T?X?$LD?I?$LJ?$KG@ DB '['
	DB	' %s ] ', 0b7H, 0bfH, 0bcH, 0e4H, 0b2H, 0ceH, 0caH, 0fdH, 0bcH
	DB	0d3H, 0d4H, 0d8H, 0b3H, 0c9H, 0b9H, 0a6H, 00H ; `string'
CONST	ENDS
;	COMDAT ??_C@_0BB@DFCOOJKB@?$FL?5?$CFs?5?$FN?5?9?9?5?$FL?5?$CFs?5?$FN@
CONST	SEGMENT
??_C@_0BB@DFCOOJKB@?$FL?5?$CFs?5?$FN?5?9?9?5?$FL?5?$CFs?5?$FN@ DB '[ %s ]'
	DB	' -- [ %s ]', 00H				; `string'
CONST	ENDS
;	COMDAT ??_C@_0L@LDJEFOCL@?S?N?O?$LH?$LH?$PO?N?q?F?w@
CONST	SEGMENT
??_C@_0L@LDJEFOCL@?S?N?O?$LH?$LH?$PO?N?q?F?w@ DB 0d3H, 0ceH, 0cfH, 0b7H, 0b7H
	DB	0feH, 0ceH, 0f1H, 0c6H, 0f7H, 00H		; `string'
CONST	ENDS
;	COMDAT ??_C@_04OIFFEIFD@?T?K?P?P@
CONST	SEGMENT
??_C@_04OIFFEIFD@?T?K?P?P@ DB 0d4H, 0cbH, 0d0H, 0d0H, 00H ; `string'
CONST	ENDS
;	COMDAT ??_C@_06CCMEENJJ@?$LD?u?J?$LM?$LL?$KP@
CONST	SEGMENT
??_C@_06CCMEENJJ@?$LD?u?J?$LM?$LL?$KP@ DB 0b3H, 0f5H, 0caH, 0bcH, 0bbH, 0afH
	DB	00H						; `string'
CONST	ENDS
;	COMDAT ??_C@_04MLIFMOBA@?M?$KD?V?$LJ@
CONST	SEGMENT
??_C@_04MLIFMOBA@?M?$KD?V?$LJ@ DB 0cdH, 0a3H, 0d6H, 0b9H, 00H ; `string'
CONST	ENDS
;	COMDAT ??_C@_0M@DFOIIBOA@SERVER_ICON@
CONST	SEGMENT
??_C@_0M@DFOIIBOA@SERVER_ICON@ DB 'SERVER_ICON', 00H	; `string'
CONST	ENDS
;	COMDAT ??_C@_0N@POOFBOKN@?$LH?$PO?N?q?F?t?$LG?$KP?$LD?I?$LJ?$KG@
CONST	SEGMENT
??_C@_0N@POOFBOKN@?$LH?$PO?N?q?F?t?$LG?$KP?$LD?I?$LJ?$KG@ DB 0b7H, 0feH, 0ceH
	DB	0f1H, 0c6H, 0f4H, 0b6H, 0afH, 0b3H, 0c9H, 0b9H, 0a6H, 00H ; `string'
CONST	ENDS
;	COMDAT ??_C@_0BC@OFPAKDFO@?U?$PN?T?Z?$LD?u?J?$LM?$LL?$KP?W?i?$LM?$PO?4?4?4@
CONST	SEGMENT
??_C@_0BC@OFPAKDFO@?U?$PN?T?Z?$LD?u?J?$LM?$LL?$KP?W?i?$LM?$PO?4?4?4@ DB 0d5H
	DB	0fdH, 0d4H, 0daH, 0b3H, 0f5H, 0caH, 0bcH, 0bbH, 0afH, 0d7H, 0e9H
	DB	0bcH, 0feH, '...', 00H			; `string'
CONST	ENDS
;	COMDAT ??_C@_0N@HNGKNHMM@?$LH?$PO?N?q?M?$KD?V?$LJ?$LD?I?$LJ?$KG@
CONST	SEGMENT
??_C@_0N@HNGKNHMM@?$LH?$PO?N?q?M?$KD?V?$LJ?$LD?I?$LJ?$KG@ DB 0b7H, 0feH, 0ceH
	DB	0f1H, 0cdH, 0a3H, 0d6H, 0b9H, 0b3H, 0c9H, 0b9H, 0a6H, 00H ; `string'
CONST	ENDS
;	COMDAT ??_C@_0CN@IKJEBACB@?S?N?O?$LH?$LH?$PO?N?q?F?w?U?$PN?T?Z?T?K?P?P?V?P?$KD?$KM?D?z?H?$LH?J?$LF?R?$KK?$LJ@
CONST	SEGMENT
??_C@_0CN@IKJEBACB@?S?N?O?$LH?$LH?$PO?N?q?F?w?U?$PN?T?Z?T?K?P?P?V?P?$KD?$KM?D?z?H?$LH?J?$LF?R?$KK?$LJ@ DB 0d3H
	DB	0ceH, 0cfH, 0b7H, 0b7H, 0feH, 0ceH, 0f1H, 0c6H, 0f7H, 0d5H, 0fdH
	DB	0d4H, 0daH, 0d4H, 0cbH, 0d0H, 0d0H, 0d6H, 0d0H, 0a3H, 0acH, 0c4H
	DB	0faH, 0c8H, 0b7H, 0caH, 0b5H, 0d2H, 0aaH, 0b9H, 0d8H, 0b1H, 0d5H
	DB	0b7H, 0feH, 0ceH, 0f1H, 0c6H, 0f7H, 0c2H, 0f0H, 0a3H, 0bfH, 00H ; `string'
CONST	ENDS
;	COMDAT ??_C@_0BH@KHNDMDBK@?S?N?O?$LH?$LH?$PO?N?q?F?w?5?9?9?5?$FL?5?M?$KD?V?$LJ?5?$FN@
CONST	SEGMENT
??_C@_0BH@KHNDMDBK@?S?N?O?$LH?$LH?$PO?N?q?F?w?5?9?9?5?$FL?5?M?$KD?V?$LJ?5?$FN@ DB 0d3H
	DB	0ceH, 0cfH, 0b7H, 0b7H, 0feH, 0ceH, 0f1H, 0c6H, 0f7H, ' -- [ ', 0cdH
	DB	0a3H, 0d6H, 0b9H, ' ]', 00H			; `string'
CONST	ENDS
;	COMDAT ??_7CGameServerDlg@@6BIServiceUnitsSink@@@
CONST	SEGMENT
??_7CGameServerDlg@@6BIServiceUnitsSink@@@ DD FLAT:??_R4CGameServerDlg@@6BIServiceUnitsSink@@@ ; CGameServerDlg::`vftable'
	DD	FLAT:?OnServiceUnitsStatus@CGameServerDlg@@UAEXW4enServiceStatus@@@Z
CONST	ENDS
;	COMDAT ??_7CGameServerDlg@@6BCDialog@@@
CONST	SEGMENT
??_7CGameServerDlg@@6BCDialog@@@ DD FLAT:??_R4CGameServerDlg@@6BCDialog@@@ ; CGameServerDlg::`vftable'
	DD	FLAT:?GetRuntimeClass@CDialog@@UBEPAUCRuntimeClass@@XZ
	DD	FLAT:??_ECGameServerDlg@@UAEPAXI@Z
	DD	FLAT:?Serialize@CObject@@UAEXAAVCArchive@@@Z
	DD	FLAT:?AssertValid@CDialog@@UBEXXZ
	DD	FLAT:?Dump@CDialog@@UBEXAAVCDumpContext@@@Z
	DD	FLAT:?OnCmdMsg@CDialog@@UAEHIHPAXPAUAFX_CMDHANDLERINFO@@@Z
	DD	FLAT:?OnFinalRelease@CWnd@@UAEXXZ
	DD	FLAT:?IsInvokeAllowed@CCmdTarget@@UAEHJ@Z
	DD	FLAT:?GetDispatchIID@CCmdTarget@@UAEHPAU_GUID@@@Z
	DD	FLAT:?GetTypeInfoCount@CCmdTarget@@UAEIXZ
	DD	FLAT:?GetTypeLibCache@CCmdTarget@@UAEPAVCTypeLibCache@@XZ
	DD	FLAT:?GetTypeLib@CCmdTarget@@UAEJKPAPAUITypeLib@@@Z
	DD	FLAT:?GetMessageMap@CGameServerDlg@@MBEPBUAFX_MSGMAP@@XZ
	DD	FLAT:?GetCommandMap@CCmdTarget@@MBEPBUAFX_OLECMDMAP@@XZ
	DD	FLAT:?GetDispatchMap@CCmdTarget@@MBEPBUAFX_DISPMAP@@XZ
	DD	FLAT:?GetConnectionMap@CCmdTarget@@MBEPBUAFX_CONNECTIONMAP@@XZ
	DD	FLAT:?GetInterfaceMap@CWnd@@MBEPBUAFX_INTERFACEMAP@@XZ
	DD	FLAT:?GetEventSinkMap@CCmdTarget@@MBEPBUAFX_EVENTSINKMAP@@XZ
	DD	FLAT:?OnCreateAggregates@CCmdTarget@@UAEHXZ
	DD	FLAT:?GetInterfaceHook@CCmdTarget@@UAEPAUIUnknown@@PBX@Z
	DD	FLAT:?GetExtraConnectionPoints@CCmdTarget@@MAEHPAVCPtrArray@@@Z
	DD	FLAT:?GetConnectionHook@CCmdTarget@@MAEPAUIConnectionPoint@@ABU_GUID@@@Z
	DD	FLAT:?PreSubclassWindow@CWnd@@UAEXXZ
	DD	FLAT:?Create@CWnd@@UAEHPBD0KABUtagRECT@@PAV1@IPAUCCreateContext@@@Z
	DD	FLAT:?CreateEx@CWnd@@UAEHKPBD0KABUtagRECT@@PAV1@IPAX@Z
	DD	FLAT:?CreateEx@CWnd@@UAEHKPBD0KHHHHPAUHWND__@@PAUHMENU__@@PAX@Z
	DD	FLAT:?DestroyWindow@CWnd@@UAEHXZ
	DD	FLAT:?PreCreateWindow@CWnd@@UAEHAAUtagCREATESTRUCTA@@@Z
	DD	FLAT:?CalcWindowRect@CWnd@@UAEXPAUtagRECT@@I@Z
	DD	FLAT:?GetMenu@CWnd@@UBEPAVCMenu@@XZ
	DD	FLAT:?SetMenu@CWnd@@UAEHPAVCMenu@@@Z
	DD	FLAT:?OnToolHitTest@CWnd@@UBEHVCPoint@@PAUtagTOOLINFOA@@@Z
	DD	FLAT:?GetScrollBarCtrl@CWnd@@UBEPAVCScrollBar@@H@Z
	DD	FLAT:?WinHelpA@CWnd@@UAEXKI@Z
	DD	FLAT:?HtmlHelpA@CWnd@@UAEXKI@Z
	DD	FLAT:?WinHelpInternal@CWnd@@UAEXKI@Z
	DD	FLAT:?ContinueModal@CWnd@@UAEHXZ
	DD	FLAT:?EndModalLoop@CWnd@@UAEXH@Z
	DD	FLAT:?OnDrawIconicThumbnailOrLivePreview@CWnd@@UAEXAAVCDC@@VCRect@@VCSize@@HAAH@Z
	DD	FLAT:?EnsureStdObj@CWnd@@UAEJXZ
	DD	FLAT:?get_accParent@CWnd@@UAEJPAPAUIDispatch@@@Z
	DD	FLAT:?get_accChildCount@CWnd@@UAEJPAJ@Z
	DD	FLAT:?get_accChild@CWnd@@UAEJUtagVARIANT@@PAPAUIDispatch@@@Z
	DD	FLAT:?get_accName@CWnd@@UAEJUtagVARIANT@@PAPA_W@Z
	DD	FLAT:?get_accValue@CWnd@@UAEJUtagVARIANT@@PAPA_W@Z
	DD	FLAT:?get_accDescription@CWnd@@UAEJUtagVARIANT@@PAPA_W@Z
	DD	FLAT:?get_accRole@CWnd@@UAEJUtagVARIANT@@PAU2@@Z
	DD	FLAT:?get_accState@CWnd@@UAEJUtagVARIANT@@PAU2@@Z
	DD	FLAT:?get_accHelp@CWnd@@UAEJUtagVARIANT@@PAPA_W@Z
	DD	FLAT:?get_accHelpTopic@CWnd@@UAEJPAPA_WUtagVARIANT@@PAJ@Z
	DD	FLAT:?get_accKeyboardShortcut@CWnd@@UAEJUtagVARIANT@@PAPA_W@Z
	DD	FLAT:?get_accFocus@CWnd@@UAEJPAUtagVARIANT@@@Z
	DD	FLAT:?get_accSelection@CWnd@@UAEJPAUtagVARIANT@@@Z
	DD	FLAT:?get_accDefaultAction@CWnd@@UAEJUtagVARIANT@@PAPA_W@Z
	DD	FLAT:?accSelect@CWnd@@UAEJJUtagVARIANT@@@Z
	DD	FLAT:?accLocation@CWnd@@UAEJPAJ000UtagVARIANT@@@Z
	DD	FLAT:?accNavigate@CWnd@@UAEJJUtagVARIANT@@PAU2@@Z
	DD	FLAT:?accHitTest@CWnd@@UAEJJJPAUtagVARIANT@@@Z
	DD	FLAT:?accDoDefaultAction@CWnd@@UAEJUtagVARIANT@@@Z
	DD	FLAT:?put_accName@CWnd@@UAEJUtagVARIANT@@PA_W@Z
	DD	FLAT:?put_accValue@CWnd@@UAEJUtagVARIANT@@PA_W@Z
	DD	FLAT:?SetProxy@CWnd@@UAEJPAUIAccessibleProxy@@@Z
	DD	FLAT:?CreateAccessibleProxy@CWnd@@UAEJIJPAJ@Z
	DD	FLAT:?OnCommand@CWnd@@MAEHIJ@Z
	DD	FLAT:?OnNotify@CWnd@@MAEHIJPAJ@Z
	DD	FLAT:?GetSuperWndProcAddr@CWnd@@MAEPAP6GJPAUHWND__@@IIJ@ZXZ
	DD	FLAT:?DoDataExchange@CGameServerDlg@@MAEXPAVCDataExchange@@@Z
	DD	FLAT:?BeginModalState@CWnd@@UAEXXZ
	DD	FLAT:?EndModalState@CWnd@@UAEXXZ
	DD	FLAT:?PreTranslateMessage@CGameServerDlg@@MAEHPAUtagMSG@@@Z
	DD	FLAT:?OnAmbientProperty@CWnd@@UAEHPAVCOleControlSite@@JPAUtagVARIANT@@@Z
	DD	FLAT:?WindowProc@CWnd@@MAEJIIJ@Z
	DD	FLAT:?OnWndMsg@CWnd@@MAEHIIJPAJ@Z
	DD	FLAT:?DefWindowProcA@CWnd@@MAEJIIJ@Z
	DD	FLAT:?PostNcDestroy@CWnd@@MAEXXZ
	DD	FLAT:?OnChildNotify@CWnd@@MAEHIIJPAJ@Z
	DD	FLAT:?OnTouchInputs@CWnd@@MAEHIPAUtagTOUCHINPUT@@@Z
	DD	FLAT:?OnTouchInput@CWnd@@MAEHVCPoint@@HHPAUtagTOUCHINPUT@@@Z
	DD	FLAT:?GetGestureStatus@CWnd@@MAEKVCPoint@@@Z
	DD	FLAT:?OnGestureZoom@CWnd@@MAEHVCPoint@@J@Z
	DD	FLAT:?OnGesturePan@CWnd@@MAEHVCPoint@@0@Z
	DD	FLAT:?OnGestureRotate@CWnd@@MAEHVCPoint@@N@Z
	DD	FLAT:?OnGestureTwoFingerTap@CWnd@@MAEHVCPoint@@@Z
	DD	FLAT:?OnGesturePressAndTap@CWnd@@MAEHVCPoint@@J@Z
	DD	FLAT:?ResizeDynamicLayout@CWnd@@MAEXXZ
	DD	FLAT:?CheckAutoCenter@CDialog@@UAEHXZ
	DD	FLAT:?IsFrameWnd@CWnd@@UBEHXZ
	DD	FLAT:?CreateControlContainer@CWnd@@MAEHPAPAVCOleControlContainer@@@Z
	DD	FLAT:?CreateControlSite@CWnd@@MAEHPAVCOleControlContainer@@PAPAVCOleControlSite@@IABU_GUID@@@Z
	DD	FLAT:?SetOccDialogInfo@CDialog@@MAEHPAU_AFX_OCC_DIALOG_INFO@@@Z
	DD	FLAT:?GetOccDialogInfo@CDialog@@MAEPAU_AFX_OCC_DIALOG_INFO@@XZ
	DD	FLAT:?Create@CDialog@@UAEHIPAVCWnd@@@Z
	DD	FLAT:?Create@CDialog@@UAEHPBDPAVCWnd@@@Z
	DD	FLAT:?CreateIndirect@CDialog@@UAEHPAXPAVCWnd@@@Z
	DD	FLAT:?CreateIndirect@CDialog@@UAEHPBUDLGTEMPLATE@@PAVCWnd@@PAX@Z
	DD	FLAT:?DoModal@CDialog@@UAEHXZ
	DD	FLAT:?OnInitDialog@CGameServerDlg@@MAEHXZ
	DD	FLAT:?OnSetFont@CDialog@@UAEXPAVCFont@@@Z
	DD	FLAT:?OnOK@CGameServerDlg@@MAEXXZ
	DD	FLAT:?OnCancel@CGameServerDlg@@MAEXXZ
	DD	FLAT:?PreInitDialog@CDialog@@MAEXXZ
CONST	ENDS
;	COMDAT ??_7IServiceUnitsSink@@6B@
CONST	SEGMENT
??_7IServiceUnitsSink@@6B@ DD FLAT:??_R4IServiceUnitsSink@@6B@ ; IServiceUnitsSink::`vftable'
	DD	FLAT:__purecall
CONST	ENDS
;	COMDAT ??_R4?$CTempldateHelper@UIGameServiceManager@@@@6B@
rdata$r	SEGMENT
??_R4?$CTempldateHelper@UIGameServiceManager@@@@6B@ DD 00H ; CTempldateHelper<IGameServiceManager>::`RTTI Complete Object Locator'
	DD	00H
	DD	00H
	DD	FLAT:??_R0?AV?$CTempldateHelper@UIGameServiceManager@@@@@8
	DD	FLAT:??_R3?$CTempldateHelper@UIGameServiceManager@@@@8
rdata$r	ENDS
;	COMDAT ??_R2?$CTempldateHelper@UIGameServiceManager@@@@8
rdata$r	SEGMENT
??_R2?$CTempldateHelper@UIGameServiceManager@@@@8 DD FLAT:??_R1A@?0A@EA@?$CTempldateHelper@UIGameServiceManager@@@@8 ; CTempldateHelper<IGameServiceManager>::`RTTI Base Class Array'
rdata$r	ENDS
;	COMDAT ??_R3?$CTempldateHelper@UIGameServiceManager@@@@8
rdata$r	SEGMENT
??_R3?$CTempldateHelper@UIGameServiceManager@@@@8 DD 00H ; CTempldateHelper<IGameServiceManager>::`RTTI Class Hierarchy Descriptor'
	DD	00H
	DD	01H
	DD	FLAT:??_R2?$CTempldateHelper@UIGameServiceManager@@@@8
rdata$r	ENDS
;	COMDAT ??_R0?AV?$CTempldateHelper@UIGameServiceManager@@@@@8
data$r	SEGMENT
??_R0?AV?$CTempldateHelper@UIGameServiceManager@@@@@8 DD FLAT:??_7type_info@@6B@ ; CTempldateHelper<IGameServiceManager> `RTTI Type Descriptor'
	DD	00H
	DB	'.?AV?$CTempldateHelper@UIGameServiceManager@@@@', 00H
data$r	ENDS
;	COMDAT ??_R1A@?0A@EA@?$CTempldateHelper@UIGameServiceManager@@@@8
rdata$r	SEGMENT
??_R1A@?0A@EA@?$CTempldateHelper@UIGameServiceManager@@@@8 DD FLAT:??_R0?AV?$CTempldateHelper@UIGameServiceManager@@@@@8 ; CTempldateHelper<IGameServiceManager>::`RTTI Base Class Descriptor at (0,-1,0,64)'
	DD	00H
	DD	00H
	DD	0ffffffffH
	DD	00H
	DD	040H
	DD	FLAT:??_R3?$CTempldateHelper@UIGameServiceManager@@@@8
rdata$r	ENDS
;	COMDAT ??_R1A@?0A@EA@CGameServiceManagerHelper@@8
rdata$r	SEGMENT
??_R1A@?0A@EA@CGameServiceManagerHelper@@8 DD FLAT:??_R0?AVCGameServiceManagerHelper@@@8 ; CGameServiceManagerHelper::`RTTI Base Class Descriptor at (0,-1,0,64)'
	DD	01H
	DD	00H
	DD	0ffffffffH
	DD	00H
	DD	040H
	DD	FLAT:??_R3CGameServiceManagerHelper@@8
rdata$r	ENDS
;	COMDAT ??_R2CGameServiceManagerHelper@@8
rdata$r	SEGMENT
??_R2CGameServiceManagerHelper@@8 DD FLAT:??_R1A@?0A@EA@CGameServiceManagerHelper@@8 ; CGameServiceManagerHelper::`RTTI Base Class Array'
	DD	FLAT:??_R1A@?0A@EA@?$CTempldateHelper@UIGameServiceManager@@@@8
rdata$r	ENDS
;	COMDAT ??_R3CGameServiceManagerHelper@@8
rdata$r	SEGMENT
??_R3CGameServiceManagerHelper@@8 DD 00H		; CGameServiceManagerHelper::`RTTI Class Hierarchy Descriptor'
	DD	00H
	DD	02H
	DD	FLAT:??_R2CGameServiceManagerHelper@@8
rdata$r	ENDS
;	COMDAT ??_R0?AVCGameServiceManagerHelper@@@8
data$r	SEGMENT
??_R0?AVCGameServiceManagerHelper@@@8 DD FLAT:??_7type_info@@6B@ ; CGameServiceManagerHelper `RTTI Type Descriptor'
	DD	00H
	DB	'.?AVCGameServiceManagerHelper@@', 00H
data$r	ENDS
;	COMDAT ??_R4CGameServiceManagerHelper@@6B@
rdata$r	SEGMENT
??_R4CGameServiceManagerHelper@@6B@ DD 00H		; CGameServiceManagerHelper::`RTTI Complete Object Locator'
	DD	00H
	DD	00H
	DD	FLAT:??_R0?AVCGameServiceManagerHelper@@@8
	DD	FLAT:??_R3CGameServiceManagerHelper@@8
rdata$r	ENDS
;	COMDAT ??_R2CCmdTarget@@8
rdata$r	SEGMENT
??_R2CCmdTarget@@8 DD FLAT:??_R1A@?0A@EA@CCmdTarget@@8	; CCmdTarget::`RTTI Base Class Array'
	DD	FLAT:??_R1A@?0A@EA@CObject@@8
rdata$r	ENDS
;	COMDAT ??_R3CCmdTarget@@8
rdata$r	SEGMENT
??_R3CCmdTarget@@8 DD 00H				; CCmdTarget::`RTTI Class Hierarchy Descriptor'
	DD	00H
	DD	02H
	DD	FLAT:??_R2CCmdTarget@@8
rdata$r	ENDS
;	COMDAT ??_R0?AVCCmdTarget@@@8
data$r	SEGMENT
??_R0?AVCCmdTarget@@@8 DD FLAT:??_7type_info@@6B@	; CCmdTarget `RTTI Type Descriptor'
	DD	00H
	DB	'.?AVCCmdTarget@@', 00H
data$r	ENDS
;	COMDAT ??_R1A@?0A@EA@CCmdTarget@@8
rdata$r	SEGMENT
??_R1A@?0A@EA@CCmdTarget@@8 DD FLAT:??_R0?AVCCmdTarget@@@8 ; CCmdTarget::`RTTI Base Class Descriptor at (0,-1,0,64)'
	DD	01H
	DD	00H
	DD	0ffffffffH
	DD	00H
	DD	040H
	DD	FLAT:??_R3CCmdTarget@@8
rdata$r	ENDS
;	COMDAT ??_R2CWnd@@8
rdata$r	SEGMENT
??_R2CWnd@@8 DD	FLAT:??_R1A@?0A@EA@CWnd@@8		; CWnd::`RTTI Base Class Array'
	DD	FLAT:??_R1A@?0A@EA@CCmdTarget@@8
	DD	FLAT:??_R1A@?0A@EA@CObject@@8
rdata$r	ENDS
;	COMDAT ??_R3CWnd@@8
rdata$r	SEGMENT
??_R3CWnd@@8 DD	00H					; CWnd::`RTTI Class Hierarchy Descriptor'
	DD	00H
	DD	03H
	DD	FLAT:??_R2CWnd@@8
rdata$r	ENDS
;	COMDAT ??_R0?AVCWnd@@@8
data$r	SEGMENT
??_R0?AVCWnd@@@8 DD FLAT:??_7type_info@@6B@		; CWnd `RTTI Type Descriptor'
	DD	00H
	DB	'.?AVCWnd@@', 00H
data$r	ENDS
;	COMDAT ??_R1A@?0A@EA@CWnd@@8
rdata$r	SEGMENT
??_R1A@?0A@EA@CWnd@@8 DD FLAT:??_R0?AVCWnd@@@8		; CWnd::`RTTI Base Class Descriptor at (0,-1,0,64)'
	DD	02H
	DD	00H
	DD	0ffffffffH
	DD	00H
	DD	040H
	DD	FLAT:??_R3CWnd@@8
rdata$r	ENDS
;	COMDAT ??_R2CDialog@@8
rdata$r	SEGMENT
??_R2CDialog@@8 DD FLAT:??_R1A@?0A@EA@CDialog@@8	; CDialog::`RTTI Base Class Array'
	DD	FLAT:??_R1A@?0A@EA@CWnd@@8
	DD	FLAT:??_R1A@?0A@EA@CCmdTarget@@8
	DD	FLAT:??_R1A@?0A@EA@CObject@@8
rdata$r	ENDS
;	COMDAT ??_R3CDialog@@8
rdata$r	SEGMENT
??_R3CDialog@@8 DD 00H					; CDialog::`RTTI Class Hierarchy Descriptor'
	DD	00H
	DD	04H
	DD	FLAT:??_R2CDialog@@8
rdata$r	ENDS
;	COMDAT ??_R0?AVCDialog@@@8
data$r	SEGMENT
??_R0?AVCDialog@@@8 DD FLAT:??_7type_info@@6B@		; CDialog `RTTI Type Descriptor'
	DD	00H
	DB	'.?AVCDialog@@', 00H
data$r	ENDS
;	COMDAT ??_R1A@?0A@EA@CDialog@@8
rdata$r	SEGMENT
??_R1A@?0A@EA@CDialog@@8 DD FLAT:??_R0?AVCDialog@@@8	; CDialog::`RTTI Base Class Descriptor at (0,-1,0,64)'
	DD	03H
	DD	00H
	DD	0ffffffffH
	DD	00H
	DD	040H
	DD	FLAT:??_R3CDialog@@8
rdata$r	ENDS
;	COMDAT ??_R2CObject@@8
rdata$r	SEGMENT
??_R2CObject@@8 DD FLAT:??_R1A@?0A@EA@CObject@@8	; CObject::`RTTI Base Class Array'
rdata$r	ENDS
;	COMDAT ??_R3CObject@@8
rdata$r	SEGMENT
??_R3CObject@@8 DD 00H					; CObject::`RTTI Class Hierarchy Descriptor'
	DD	00H
	DD	01H
	DD	FLAT:??_R2CObject@@8
rdata$r	ENDS
;	COMDAT ??_R0?AVCObject@@@8
data$r	SEGMENT
??_R0?AVCObject@@@8 DD FLAT:??_7type_info@@6B@		; CObject `RTTI Type Descriptor'
	DD	00H
	DB	'.?AVCObject@@', 00H
data$r	ENDS
;	COMDAT ??_R1A@?0A@EA@CObject@@8
rdata$r	SEGMENT
??_R1A@?0A@EA@CObject@@8 DD FLAT:??_R0?AVCObject@@@8	; CObject::`RTTI Base Class Descriptor at (0,-1,0,64)'
	DD	00H
	DD	00H
	DD	0ffffffffH
	DD	00H
	DD	040H
	DD	FLAT:??_R3CObject@@8
rdata$r	ENDS
;	COMDAT ??_7CGameServiceManagerHelper@@6B@
CONST	SEGMENT
??_7CGameServiceManagerHelper@@6B@ DD FLAT:??_R4CGameServiceManagerHelper@@6B@ ; CGameServiceManagerHelper::`vftable'
	DD	FLAT:??_ECGameServiceManagerHelper@@UAEPAXI@Z
CONST	ENDS
;	COMDAT ??_7?$CTempldateHelper@UIGameServiceManager@@@@6B@
CONST	SEGMENT
??_7?$CTempldateHelper@UIGameServiceManager@@@@6B@ DD FLAT:??_R4?$CTempldateHelper@UIGameServiceManager@@@@6B@ ; CTempldateHelper<IGameServiceManager>::`vftable'
	DD	FLAT:??_E?$CTempldateHelper@UIGameServiceManager@@@@UAEPAXI@Z
CONST	ENDS
;	COMDAT ??_C@_00CNPNBAHC@@
CONST	SEGMENT
??_C@_00CNPNBAHC@@ DB 00H				; `string'
CONST	ENDS
;	COMDAT xdata$x
xdata$x	SEGMENT
__unwindtable$?OnMessageProcessCmdLine@CGameServerDlg@@QAEJIJ@Z DD 0ffffffffH
	DD	FLAT:__unwindfunclet$?OnMessageProcessCmdLine@CGameServerDlg@@QAEJIJ@Z$0
__ehfuncinfo$?OnMessageProcessCmdLine@CGameServerDlg@@QAEJIJ@Z DD 019930522H
	DD	01H
	DD	FLAT:__unwindtable$?OnMessageProcessCmdLine@CGameServerDlg@@QAEJIJ@Z
	DD	2 DUP(00H)
	DD	2 DUP(00H)
	DD	00H
	DD	01H
xdata$x	ENDS
;	COMDAT xdata$x
xdata$x	SEGMENT
__unwindtable$?OnBnClickedOptionMatch@CGameServerDlg@@IAEXXZ DD 0ffffffffH
	DD	FLAT:__unwindfunclet$?OnBnClickedOptionMatch@CGameServerDlg@@IAEXXZ$0
__ehfuncinfo$?OnBnClickedOptionMatch@CGameServerDlg@@IAEXXZ DD 019930522H
	DD	01H
	DD	FLAT:__unwindtable$?OnBnClickedOptionMatch@CGameServerDlg@@IAEXXZ
	DD	2 DUP(00H)
	DD	2 DUP(00H)
	DD	00H
	DD	01H
xdata$x	ENDS
;	COMDAT xdata$x
xdata$x	SEGMENT
__unwindtable$?OnBnClickedOptionServer@CGameServerDlg@@IAEXXZ DD 0ffffffffH
	DD	FLAT:__unwindfunclet$?OnBnClickedOptionServer@CGameServerDlg@@IAEXXZ$0
	DD	00H
	DD	FLAT:__unwindfunclet$?OnBnClickedOptionServer@CGameServerDlg@@IAEXXZ$1
__ehfuncinfo$?OnBnClickedOptionServer@CGameServerDlg@@IAEXXZ DD 019930522H
	DD	02H
	DD	FLAT:__unwindtable$?OnBnClickedOptionServer@CGameServerDlg@@IAEXXZ
	DD	2 DUP(00H)
	DD	2 DUP(00H)
	DD	00H
	DD	01H
xdata$x	ENDS
;	COMDAT xdata$x
xdata$x	SEGMENT
__unwindtable$?OnBnClickedCreateServer@CGameServerDlg@@IAEXXZ DD 0ffffffffH
	DD	FLAT:__unwindfunclet$?OnBnClickedCreateServer@CGameServerDlg@@IAEXXZ$0
__ehfuncinfo$?OnBnClickedCreateServer@CGameServerDlg@@IAEXXZ DD 019930522H
	DD	01H
	DD	FLAT:__unwindtable$?OnBnClickedCreateServer@CGameServerDlg@@IAEXXZ
	DD	2 DUP(00H)
	DD	2 DUP(00H)
	DD	00H
	DD	01H
xdata$x	ENDS
;	COMDAT xdata$x
xdata$x	SEGMENT
__unwindtable$?OnBnClickedOpenServer@CGameServerDlg@@IAEXXZ DD 0ffffffffH
	DD	FLAT:__unwindfunclet$?OnBnClickedOpenServer@CGameServerDlg@@IAEXXZ$0
__ehfuncinfo$?OnBnClickedOpenServer@CGameServerDlg@@IAEXXZ DD 019930522H
	DD	01H
	DD	FLAT:__unwindtable$?OnBnClickedOpenServer@CGameServerDlg@@IAEXXZ
	DD	2 DUP(00H)
	DD	2 DUP(00H)
	DD	00H
	DD	01H
xdata$x	ENDS
;	COMDAT xdata$x
xdata$x	SEGMENT
__catchsym$?OnBnClickedStopService@CGameServerDlg@@IAEXXZ$2 DD 040H
	DD	00H
	DD	00H
	DD	FLAT:__catch$?OnBnClickedStopService@CGameServerDlg@@IAEXXZ$0
__unwindtable$?OnBnClickedStopService@CGameServerDlg@@IAEXXZ DD 0ffffffffH
	DD	00H
	DD	0ffffffffH
	DD	00H
__tryblocktable$?OnBnClickedStopService@CGameServerDlg@@IAEXXZ DD 00H
	DD	00H
	DD	01H
	DD	01H
	DD	FLAT:__catchsym$?OnBnClickedStopService@CGameServerDlg@@IAEXXZ$2
__ehfuncinfo$?OnBnClickedStopService@CGameServerDlg@@IAEXXZ DD 019930522H
	DD	02H
	DD	FLAT:__unwindtable$?OnBnClickedStopService@CGameServerDlg@@IAEXXZ
	DD	01H
	DD	FLAT:__tryblocktable$?OnBnClickedStopService@CGameServerDlg@@IAEXXZ
	DD	2 DUP(00H)
	DD	00H
	DD	01H
xdata$x	ENDS
;	COMDAT xdata$x
xdata$x	SEGMENT
__catchsym$?OnBnClickedStartService@CGameServerDlg@@IAEXXZ$2 DD 040H
	DD	00H
	DD	00H
	DD	FLAT:__catch$?OnBnClickedStartService@CGameServerDlg@@IAEXXZ$0
__unwindtable$?OnBnClickedStartService@CGameServerDlg@@IAEXXZ DD 0ffffffffH
	DD	00H
	DD	0ffffffffH
	DD	00H
__tryblocktable$?OnBnClickedStartService@CGameServerDlg@@IAEXXZ DD 00H
	DD	00H
	DD	01H
	DD	01H
	DD	FLAT:__catchsym$?OnBnClickedStartService@CGameServerDlg@@IAEXXZ$2
__ehfuncinfo$?OnBnClickedStartService@CGameServerDlg@@IAEXXZ DD 019930522H
	DD	02H
	DD	FLAT:__unwindtable$?OnBnClickedStartService@CGameServerDlg@@IAEXXZ
	DD	01H
	DD	FLAT:__tryblocktable$?OnBnClickedStartService@CGameServerDlg@@IAEXXZ
	DD	2 DUP(00H)
	DD	00H
	DD	01H
xdata$x	ENDS
;	COMDAT xdata$x
xdata$x	SEGMENT
__unwindtable$?GetPlatformDBParameter@CGameServerDlg@@IAE_NAAUtagDataBaseParameter@@@Z DD 0ffffffffH
	DD	FLAT:__unwindfunclet$?GetPlatformDBParameter@CGameServerDlg@@IAE_NAAUtagDataBaseParameter@@@Z$0
__ehfuncinfo$?GetPlatformDBParameter@CGameServerDlg@@IAE_NAAUtagDataBaseParameter@@@Z DD 019930522H
	DD	01H
	DD	FLAT:__unwindtable$?GetPlatformDBParameter@CGameServerDlg@@IAE_NAAUtagDataBaseParameter@@@Z
	DD	2 DUP(00H)
	DD	2 DUP(00H)
	DD	00H
	DD	01H
xdata$x	ENDS
;	COMDAT xdata$x
xdata$x	SEGMENT
__catchsym$?StartServerService@CGameServerDlg@@IAE_NG@Z$3 DD 040H
	DD	00H
	DD	00H
	DD	FLAT:__catch$?StartServerService@CGameServerDlg@@IAE_NG@Z$0
__tryblocktable$?StartServerService@CGameServerDlg@@IAE_NG@Z DD 01H
	DD	01H
	DD	02H
	DD	01H
	DD	FLAT:__catchsym$?StartServerService@CGameServerDlg@@IAE_NG@Z$3
__unwindtable$?StartServerService@CGameServerDlg@@IAE_NG@Z DD 0ffffffffH
	DD	FLAT:__unwindfunclet$?StartServerService@CGameServerDlg@@IAE_NG@Z$2
	DD	00H
	DD	00H
	DD	00H
	DD	00H
__ehfuncinfo$?StartServerService@CGameServerDlg@@IAE_NG@Z DD 019930522H
	DD	03H
	DD	FLAT:__unwindtable$?StartServerService@CGameServerDlg@@IAE_NG@Z
	DD	01H
	DD	FLAT:__tryblocktable$?StartServerService@CGameServerDlg@@IAE_NG@Z
	DD	2 DUP(00H)
	DD	00H
	DD	01H
xdata$x	ENDS
;	COMDAT xdata$x
xdata$x	SEGMENT
__unwindtable$??0CGameServerDlg@@QAE@XZ DD 0ffffffffH
	DD	FLAT:__unwindfunclet$??0CGameServerDlg@@QAE@XZ$0
	DD	00H
	DD	FLAT:__unwindfunclet$??0CGameServerDlg@@QAE@XZ$1
	DD	01H
	DD	FLAT:__unwindfunclet$??0CGameServerDlg@@QAE@XZ$2
	DD	02H
	DD	FLAT:__unwindfunclet$??0CGameServerDlg@@QAE@XZ$3
__ehfuncinfo$??0CGameServerDlg@@QAE@XZ DD 019930522H
	DD	04H
	DD	FLAT:__unwindtable$??0CGameServerDlg@@QAE@XZ
	DD	2 DUP(00H)
	DD	2 DUP(00H)
	DD	00H
	DD	01H
xdata$x	ENDS
;	COMDAT xdata$x
xdata$x	SEGMENT
__unwindtable$?CreateInstance@?$CTempldateHelper@UIGameServiceManager@@@@QAE_NXZ DD 0ffffffffH
	DD	00H
	DD	0ffffffffH
	DD	00H
__tryblocktable$?CreateInstance@?$CTempldateHelper@UIGameServiceManager@@@@QAE_NXZ DD 00H
	DD	00H
	DD	01H
	DD	02H
	DD	FLAT:__catchsym$?CreateInstance@?$CTempldateHelper@UIGameServiceManager@@@@QAE_NXZ$3
__catchsym$?CreateInstance@?$CTempldateHelper@UIGameServiceManager@@@@QAE_NXZ$3 DD 01H
	DD	FLAT:??_R0PAD@8
	DD	0ffffffe4H
	DD	FLAT:__catch$?CreateInstance@?$CTempldateHelper@UIGameServiceManager@@@@QAE_NXZ$0
	DD	040H
	DD	00H
	DD	00H
	DD	FLAT:__catch$?CreateInstance@?$CTempldateHelper@UIGameServiceManager@@@@QAE_NXZ$1
__ehfuncinfo$?CreateInstance@?$CTempldateHelper@UIGameServiceManager@@@@QAE_NXZ DD 019930522H
	DD	02H
	DD	FLAT:__unwindtable$?CreateInstance@?$CTempldateHelper@UIGameServiceManager@@@@QAE_NXZ
	DD	01H
	DD	FLAT:__tryblocktable$?CreateInstance@?$CTempldateHelper@UIGameServiceManager@@@@QAE_NXZ
	DD	2 DUP(00H)
	DD	00H
	DD	01H
xdata$x	ENDS
;	COMDAT xdata$x
xdata$x	SEGMENT
__ehfuncinfo$??1?$CTempldateHelper@UIGameServiceManager@@@@UAE@XZ DD 019930522H
	DD	00H
	DD	00H
	DD	2 DUP(00H)
	DD	2 DUP(00H)
	DD	00H
	DD	05H
xdata$x	ENDS
; Function compile flags: /Odtp /ZI
; File c:\program files (x86)\windows kits\10\include\10.0.17763.0\ucrt\stdio.h
;	COMDAT ??$_snprintf_s@$0BAE@@@YAHAAY0BAE@DIPBDZZ
_TEXT	SEGMENT
__ArgList$ = -4						; size = 4
__Buffer$ = 8						; size = 4
__BufferCount$ = 12					; size = 4
__Format$ = 16						; size = 4
??$_snprintf_s@$0BAE@@@YAHAAY0BAE@DIPBDZZ PROC		; _snprintf_s<260>, COMDAT

; 2079 :         )

  00000	55		 push	 ebp
  00001	8b ec		 mov	 ebp, esp
  00003	83 ec 48	 sub	 esp, 72			; 00000048H
  00006	53		 push	 ebx
  00007	56		 push	 esi
  00008	57		 push	 edi

; 2073 :     __DEFINE_CPP_OVERLOAD_SECURE_FUNC_0_2_ARGLIST(

  00009	8d 45 14	 lea	 eax, DWORD PTR __Format$[ebp+4]
  0000c	89 45 fc	 mov	 DWORD PTR __ArgList$[ebp], eax
  0000f	8b 45 fc	 mov	 eax, DWORD PTR __ArgList$[ebp]
  00012	50		 push	 eax
  00013	8b 4d 10	 mov	 ecx, DWORD PTR __Format$[ebp]
  00016	51		 push	 ecx
  00017	8b 55 0c	 mov	 edx, DWORD PTR __BufferCount$[ebp]
  0001a	52		 push	 edx
  0001b	68 04 01 00 00	 push	 260			; 00000104H
  00020	8b 45 08	 mov	 eax, DWORD PTR __Buffer$[ebp]
  00023	50		 push	 eax
  00024	e8 00 00 00 00	 call	 __vsnprintf_s
  00029	83 c4 14	 add	 esp, 20			; 00000014H
  0002c	5f		 pop	 edi
  0002d	5e		 pop	 esi
  0002e	5b		 pop	 ebx
  0002f	8b e5		 mov	 esp, ebp
  00031	5d		 pop	 ebp
  00032	c3		 ret	 0
??$_snprintf_s@$0BAE@@@YAHAAY0BAE@DIPBDZZ ENDP		; _snprintf_s<260>
_TEXT	ENDS
; Function compile flags: /Odtp /ZI
; File c:\program files (x86)\windows kits\10\include\10.0.17763.0\ucrt\stdio.h
;	COMDAT ??$_snprintf_s@$0BAA@@@YAHAAY0BAA@DIPBDZZ
_TEXT	SEGMENT
__ArgList$ = -4						; size = 4
__Buffer$ = 8						; size = 4
__BufferCount$ = 12					; size = 4
__Format$ = 16						; size = 4
??$_snprintf_s@$0BAA@@@YAHAAY0BAA@DIPBDZZ PROC		; _snprintf_s<256>, COMDAT

; 2079 :         )

  00000	55		 push	 ebp
  00001	8b ec		 mov	 ebp, esp
  00003	83 ec 48	 sub	 esp, 72			; 00000048H
  00006	53		 push	 ebx
  00007	56		 push	 esi
  00008	57		 push	 edi

; 2073 :     __DEFINE_CPP_OVERLOAD_SECURE_FUNC_0_2_ARGLIST(

  00009	8d 45 14	 lea	 eax, DWORD PTR __Format$[ebp+4]
  0000c	89 45 fc	 mov	 DWORD PTR __ArgList$[ebp], eax
  0000f	8b 45 fc	 mov	 eax, DWORD PTR __ArgList$[ebp]
  00012	50		 push	 eax
  00013	8b 4d 10	 mov	 ecx, DWORD PTR __Format$[ebp]
  00016	51		 push	 ecx
  00017	8b 55 0c	 mov	 edx, DWORD PTR __BufferCount$[ebp]
  0001a	52		 push	 edx
  0001b	68 00 01 00 00	 push	 256			; 00000100H
  00020	8b 45 08	 mov	 eax, DWORD PTR __Buffer$[ebp]
  00023	50		 push	 eax
  00024	e8 00 00 00 00	 call	 __vsnprintf_s
  00029	83 c4 14	 add	 esp, 20			; 00000014H
  0002c	5f		 pop	 edi
  0002d	5e		 pop	 esi
  0002e	5b		 pop	 ebx
  0002f	8b e5		 mov	 esp, ebp
  00031	5d		 pop	 ebp
  00032	c3		 ret	 0
??$_snprintf_s@$0BAA@@@YAHAAY0BAA@DIPBDZZ ENDP		; _snprintf_s<256>
_TEXT	ENDS
; Function compile flags: /Odtp /ZI
; File c:\program files (x86)\windows kits\10\include\10.0.17763.0\ucrt\stdio.h
;	COMDAT ??$_snprintf_s@$0IA@@@YAHAAY0IA@DIPBDZZ
_TEXT	SEGMENT
__ArgList$ = -4						; size = 4
__Buffer$ = 8						; size = 4
__BufferCount$ = 12					; size = 4
__Format$ = 16						; size = 4
??$_snprintf_s@$0IA@@@YAHAAY0IA@DIPBDZZ PROC		; _snprintf_s<128>, COMDAT

; 2079 :         )

  00000	55		 push	 ebp
  00001	8b ec		 mov	 ebp, esp
  00003	83 ec 48	 sub	 esp, 72			; 00000048H
  00006	53		 push	 ebx
  00007	56		 push	 esi
  00008	57		 push	 edi

; 2073 :     __DEFINE_CPP_OVERLOAD_SECURE_FUNC_0_2_ARGLIST(

  00009	8d 45 14	 lea	 eax, DWORD PTR __Format$[ebp+4]
  0000c	89 45 fc	 mov	 DWORD PTR __ArgList$[ebp], eax
  0000f	8b 45 fc	 mov	 eax, DWORD PTR __ArgList$[ebp]
  00012	50		 push	 eax
  00013	8b 4d 10	 mov	 ecx, DWORD PTR __Format$[ebp]
  00016	51		 push	 ecx
  00017	8b 55 0c	 mov	 edx, DWORD PTR __BufferCount$[ebp]
  0001a	52		 push	 edx
  0001b	68 80 00 00 00	 push	 128			; 00000080H
  00020	8b 45 08	 mov	 eax, DWORD PTR __Buffer$[ebp]
  00023	50		 push	 eax
  00024	e8 00 00 00 00	 call	 __vsnprintf_s
  00029	83 c4 14	 add	 esp, 20			; 00000014H
  0002c	5f		 pop	 edi
  0002d	5e		 pop	 esi
  0002e	5b		 pop	 ebx
  0002f	8b e5		 mov	 esp, ebp
  00031	5d		 pop	 ebp
  00032	c3		 ret	 0
??$_snprintf_s@$0IA@@@YAHAAY0IA@DIPBDZZ ENDP		; _snprintf_s<128>
_TEXT	ENDS
; Function compile flags: /Odtp /ZI
;	COMDAT ??_GCGameServerDlg@@UAEPAXI@Z
_TEXT	SEGMENT
_this$ = -4						; size = 4
___flags$ = 8						; size = 4
??_GCGameServerDlg@@UAEPAXI@Z PROC			; CGameServerDlg::`scalar deleting destructor', COMDAT
; _this$ = ecx
  00000	55		 push	 ebp
  00001	8b ec		 mov	 ebp, esp
  00003	83 ec 44	 sub	 esp, 68			; 00000044H
  00006	53		 push	 ebx
  00007	56		 push	 esi
  00008	57		 push	 edi
  00009	89 4d fc	 mov	 DWORD PTR _this$[ebp], ecx
  0000c	8b 4d fc	 mov	 ecx, DWORD PTR _this$[ebp]
  0000f	e8 00 00 00 00	 call	 ??1CGameServerDlg@@UAE@XZ ; CGameServerDlg::~CGameServerDlg
  00014	8b 45 08	 mov	 eax, DWORD PTR ___flags$[ebp]
  00017	83 e0 01	 and	 eax, 1
  0001a	74 24		 je	 SHORT $LN2@scalar
  0001c	8b 45 08	 mov	 eax, DWORD PTR ___flags$[ebp]
  0001f	83 e0 04	 and	 eax, 4
  00022	75 0b		 jne	 SHORT $LN3@scalar
  00024	8b 45 fc	 mov	 eax, DWORD PTR _this$[ebp]
  00027	50		 push	 eax
  00028	e8 00 00 00 00	 call	 ??3CObject@@SGXPAX@Z	; CObject::operator delete
  0002d	eb 11		 jmp	 SHORT $LN2@scalar
$LN3@scalar:
  0002f	68 58 5a 03 00	 push	 219736			; 00035a58H
  00034	8b 45 fc	 mov	 eax, DWORD PTR _this$[ebp]
  00037	50		 push	 eax
  00038	e8 00 00 00 00	 call	 ?__global_delete@@YAXPAXI@Z ; __global_delete
  0003d	83 c4 08	 add	 esp, 8
$LN2@scalar:
  00040	8b 45 fc	 mov	 eax, DWORD PTR _this$[ebp]
  00043	5f		 pop	 edi
  00044	5e		 pop	 esi
  00045	5b		 pop	 ebx
  00046	8b e5		 mov	 esp, ebp
  00048	5d		 pop	 ebp
  00049	c2 04 00	 ret	 4
??_GCGameServerDlg@@UAEPAXI@Z ENDP			; CGameServerDlg::`scalar deleting destructor'
_TEXT	ENDS
; Function compile flags: /Odtp /ZI
; File g:\网狐\happygamewh\服务端\系统模块\服务器组件\游戏服务器\gameserverdlg.cpp
;	COMDAT ?GetMessageMap@CGameServerDlg@@MBEPBUAFX_MSGMAP@@XZ
_TEXT	SEGMENT
_this$ = -4						; size = 4
?GetMessageMap@CGameServerDlg@@MBEPBUAFX_MSGMAP@@XZ PROC ; CGameServerDlg::GetMessageMap, COMDAT
; _this$ = ecx

; 11   : BEGIN_MESSAGE_MAP(CGameServerDlg, CDialog)

  00000	55		 push	 ebp
  00001	8b ec		 mov	 ebp, esp
  00003	83 ec 44	 sub	 esp, 68			; 00000044H
  00006	53		 push	 ebx
  00007	56		 push	 esi
  00008	57		 push	 edi
  00009	89 4d fc	 mov	 DWORD PTR _this$[ebp], ecx
  0000c	e8 00 00 00 00	 call	 ?GetThisMessageMap@CGameServerDlg@@KGPBUAFX_MSGMAP@@XZ ; CGameServerDlg::GetThisMessageMap
  00011	5f		 pop	 edi
  00012	5e		 pop	 esi
  00013	5b		 pop	 ebx
  00014	8b e5		 mov	 esp, ebp
  00016	5d		 pop	 ebp
  00017	c3		 ret	 0
?GetMessageMap@CGameServerDlg@@MBEPBUAFX_MSGMAP@@XZ ENDP ; CGameServerDlg::GetMessageMap
_TEXT	ENDS
; Function compile flags: /Odtp /ZI
; File g:\网狐\happygamewh\服务端\系统模块\服务器组件\游戏服务器\gameserverdlg.cpp
;	COMDAT ?GetThisMessageMap@CGameServerDlg@@KGPBUAFX_MSGMAP@@XZ
_TEXT	SEGMENT
?GetThisMessageMap@CGameServerDlg@@KGPBUAFX_MSGMAP@@XZ PROC ; CGameServerDlg::GetThisMessageMap, COMDAT

; 11   : BEGIN_MESSAGE_MAP(CGameServerDlg, CDialog)

  00000	55		 push	 ebp
  00001	8b ec		 mov	 ebp, esp
  00003	83 ec 40	 sub	 esp, 64			; 00000040H
  00006	53		 push	 ebx
  00007	56		 push	 esi
  00008	57		 push	 edi

; 12   : 
; 13   : 	//系统消息
; 14   : 	ON_WM_QUERYENDSESSION()
; 15   : 	ON_BN_CLICKED(IDC_OPEN_SERVER, OnBnClickedOpenServer)
; 16   : 	ON_BN_CLICKED(IDC_STOP_SERVICE, OnBnClickedStopService)
; 17   : 	ON_BN_CLICKED(IDC_START_SERVICE, OnBnClickedStartService)
; 18   : 	ON_BN_CLICKED(IDC_CREATE_SERVER, OnBnClickedCreateServer)
; 19   : 	ON_BN_CLICKED(IDC_OPTION_SERVER, OnBnClickedOptionServer)
; 20   : 	ON_BN_CLICKED(IDC_OPTION_MATCH, OnBnClickedOptionMatch)
; 21   : 
; 22   : 	//自定消息
; 23   : 	ON_MESSAGE(WM_PROCESS_CMD_LINE,OnMessageProcessCmdLine)
; 24   : 
; 25   : END_MESSAGE_MAP()

  00009	b8 00 00 00 00	 mov	 eax, OFFSET ?messageMap@?1??GetThisMessageMap@CGameServerDlg@@KGPBUAFX_MSGMAP@@XZ@4U3@B
  0000e	5f		 pop	 edi
  0000f	5e		 pop	 esi
  00010	5b		 pop	 ebx
  00011	8b e5		 mov	 esp, ebp
  00013	5d		 pop	 ebp
  00014	c3		 ret	 0
?GetThisMessageMap@CGameServerDlg@@KGPBUAFX_MSGMAP@@XZ ENDP ; CGameServerDlg::GetThisMessageMap
_TEXT	ENDS
; Function compile flags: /Odtp /ZI
; File g:\网狐\happygamewh\服务端\系统模块\服务器组件\游戏服务器\gameserverdlg.cpp
;	COMDAT ?OnMessageProcessCmdLine@CGameServerDlg@@QAEJIJ@Z
_TEXT	SEGMENT
$T2 = -132						; size = 4
_wServerID$3 = -64					; size = 2
_szSrverID$ = -60					; size = 32
_pszCommandLine$ = -28					; size = 4
_CommandLine$ = -24					; size = 4
_this$ = -20						; size = 4
__$ArrayPad$ = -16					; size = 4
__$EHRec$ = -12						; size = 12
_wParam$ = 8						; size = 4
_lParam$ = 12						; size = 4
?OnMessageProcessCmdLine@CGameServerDlg@@QAEJIJ@Z PROC	; CGameServerDlg::OnMessageProcessCmdLine, COMDAT
; _this$ = ecx

; 535  : {

  00000	55		 push	 ebp
  00001	8b ec		 mov	 ebp, esp
  00003	6a ff		 push	 -1
  00005	68 00 00 00 00	 push	 __ehhandler$?OnMessageProcessCmdLine@CGameServerDlg@@QAEJIJ@Z
  0000a	64 a1 00 00 00
	00		 mov	 eax, DWORD PTR fs:0
  00010	50		 push	 eax
  00011	83 ec 78	 sub	 esp, 120		; 00000078H
  00014	a1 00 00 00 00	 mov	 eax, DWORD PTR ___security_cookie
  00019	33 c5		 xor	 eax, ebp
  0001b	89 45 f0	 mov	 DWORD PTR __$ArrayPad$[ebp], eax
  0001e	53		 push	 ebx
  0001f	56		 push	 esi
  00020	57		 push	 edi
  00021	50		 push	 eax
  00022	8d 45 f4	 lea	 eax, DWORD PTR __$EHRec$[ebp]
  00025	64 a3 00 00 00
	00		 mov	 DWORD PTR fs:0, eax
  0002b	89 4d ec	 mov	 DWORD PTR _this$[ebp], ecx

; 536  : 	//变量定义
; 537  : 	CWHCommandLine CommandLine;

  0002e	8d 4d e8	 lea	 ecx, DWORD PTR _CommandLine$[ebp]
  00031	ff 15 00 00 00
	00		 call	 DWORD PTR __imp_??0CWHCommandLine@@QAE@XZ
  00037	c7 45 fc 00 00
	00 00		 mov	 DWORD PTR __$EHRec$[ebp+8], 0

; 538  : 	LPCTSTR pszCommandLine=(LPCTSTR)(lParam);

  0003e	8b 45 0c	 mov	 eax, DWORD PTR _lParam$[ebp]
  00041	89 45 e4	 mov	 DWORD PTR _pszCommandLine$[ebp], eax

; 539  : 
; 540  : 	//房间标识
; 541  : 	TCHAR szSrverID[32]=TEXT("");

  00044	a0 00 00 00 00	 mov	 al, BYTE PTR ??_C@_00CNPNBAHC@@
  00049	88 45 c4	 mov	 BYTE PTR _szSrverID$[ebp], al
  0004c	33 c0		 xor	 eax, eax
  0004e	89 45 c5	 mov	 DWORD PTR _szSrverID$[ebp+1], eax
  00051	89 45 c9	 mov	 DWORD PTR _szSrverID$[ebp+5], eax
  00054	89 45 cd	 mov	 DWORD PTR _szSrverID$[ebp+9], eax
  00057	89 45 d1	 mov	 DWORD PTR _szSrverID$[ebp+13], eax
  0005a	89 45 d5	 mov	 DWORD PTR _szSrverID$[ebp+17], eax
  0005d	89 45 d9	 mov	 DWORD PTR _szSrverID$[ebp+21], eax
  00060	89 45 dd	 mov	 DWORD PTR _szSrverID$[ebp+25], eax
  00063	66 89 45 e1	 mov	 WORD PTR _szSrverID$[ebp+29], ax
  00067	88 45 e3	 mov	 BYTE PTR _szSrverID$[ebp+31], al

; 542  : 	if (CommandLine.SearchCommandItem(pszCommandLine,TEXT("/ServerID:"),szSrverID,CountArray(szSrverID))==true)

  0006a	6a 20		 push	 32			; 00000020H
  0006c	8d 45 c4	 lea	 eax, DWORD PTR _szSrverID$[ebp]
  0006f	50		 push	 eax
  00070	68 00 00 00 00	 push	 OFFSET ??_C@_0L@MLALHOMK@?1ServerID?3@
  00075	8b 4d e4	 mov	 ecx, DWORD PTR _pszCommandLine$[ebp]
  00078	51		 push	 ecx
  00079	8d 4d e8	 lea	 ecx, DWORD PTR _CommandLine$[ebp]
  0007c	ff 15 00 00 00
	00		 call	 DWORD PTR __imp_?SearchCommandItem@CWHCommandLine@@QAE_NPBD0QADG@Z
  00082	0f b6 d0	 movzx	 edx, al
  00085	83 fa 01	 cmp	 edx, 1
  00088	75 30		 jne	 SHORT $LN2@OnMessageP

; 543  : 	{
; 544  : 		//获取房间
; 545  : 		WORD wServerID=(WORD)(_tstol(szSrverID));

  0008a	8d 45 c4	 lea	 eax, DWORD PTR _szSrverID$[ebp]
  0008d	50		 push	 eax
  0008e	ff 15 00 00 00
	00		 call	 DWORD PTR __imp__atol
  00094	83 c4 04	 add	 esp, 4
  00097	66 89 45 c0	 mov	 WORD PTR _wServerID$3[ebp], ax

; 546  : 
; 547  : 		//启动房间
; 548  : 		if (wServerID!=0)

  0009b	0f b7 45 c0	 movzx	 eax, WORD PTR _wServerID$3[ebp]
  0009f	85 c0		 test	 eax, eax
  000a1	74 17		 je	 SHORT $LN2@OnMessageP

; 549  : 		{
; 550  : 			//设置变量
; 551  : 			m_bAutoControl=true;

  000a3	8b 45 ec	 mov	 eax, DWORD PTR _this$[ebp]
  000a6	c6 80 18 4d 03
	00 01		 mov	 BYTE PTR [eax+216344], 1

; 552  : 
; 553  : 			//启动房间
; 554  : 			StartServerService(wServerID);

  000ad	0f b7 45 c0	 movzx	 eax, WORD PTR _wServerID$3[ebp]
  000b1	50		 push	 eax
  000b2	8b 4d ec	 mov	 ecx, DWORD PTR _this$[ebp]
  000b5	e8 00 00 00 00	 call	 ?StartServerService@CGameServerDlg@@IAE_NG@Z ; CGameServerDlg::StartServerService
$LN2@OnMessageP:

; 555  : 		}
; 556  : 	}
; 557  : 
; 558  : 	return 0L;

  000ba	c7 85 7c ff ff
	ff 00 00 00 00	 mov	 DWORD PTR $T2[ebp], 0
  000c4	c7 45 fc ff ff
	ff ff		 mov	 DWORD PTR __$EHRec$[ebp+8], -1
  000cb	8d 4d e8	 lea	 ecx, DWORD PTR _CommandLine$[ebp]
  000ce	ff 15 00 00 00
	00		 call	 DWORD PTR __imp_??1CWHCommandLine@@UAE@XZ
  000d4	8b 85 7c ff ff
	ff		 mov	 eax, DWORD PTR $T2[ebp]

; 559  : }

  000da	8b 4d f4	 mov	 ecx, DWORD PTR __$EHRec$[ebp]
  000dd	64 89 0d 00 00
	00 00		 mov	 DWORD PTR fs:0, ecx
  000e4	59		 pop	 ecx
  000e5	5f		 pop	 edi
  000e6	5e		 pop	 esi
  000e7	5b		 pop	 ebx
  000e8	8b 4d f0	 mov	 ecx, DWORD PTR __$ArrayPad$[ebp]
  000eb	33 cd		 xor	 ecx, ebp
  000ed	e8 00 00 00 00	 call	 @__security_check_cookie@4
  000f2	8b e5		 mov	 esp, ebp
  000f4	5d		 pop	 ebp
  000f5	c2 08 00	 ret	 8
_TEXT	ENDS
;	COMDAT text$x
text$x	SEGMENT
__unwindfunclet$?OnMessageProcessCmdLine@CGameServerDlg@@QAEJIJ@Z$0:
  00000	8d 4d e8	 lea	 ecx, DWORD PTR _CommandLine$[ebp]
  00003	ff 25 00 00 00
	00		 jmp	 DWORD PTR __imp_??1CWHCommandLine@@UAE@XZ
__ehhandler$?OnMessageProcessCmdLine@CGameServerDlg@@QAEJIJ@Z:
  00009	8b 54 24 08	 mov	 edx, DWORD PTR [esp+8]
  0000d	8d 42 0c	 lea	 eax, DWORD PTR [edx+12]
  00010	8b 8a 78 ff ff
	ff		 mov	 ecx, DWORD PTR [edx-136]
  00016	33 c8		 xor	 ecx, eax
  00018	e8 00 00 00 00	 call	 @__security_check_cookie@4
  0001d	8b 4a fc	 mov	 ecx, DWORD PTR [edx-4]
  00020	33 c8		 xor	 ecx, eax
  00022	e8 00 00 00 00	 call	 @__security_check_cookie@4
  00027	b8 00 00 00 00	 mov	 eax, OFFSET __ehfuncinfo$?OnMessageProcessCmdLine@CGameServerDlg@@QAEJIJ@Z
  0002c	e9 00 00 00 00	 jmp	 ___CxxFrameHandler3
text$x	ENDS
?OnMessageProcessCmdLine@CGameServerDlg@@QAEJIJ@Z ENDP	; CGameServerDlg::OnMessageProcessCmdLine
; Function compile flags: /Odtp /ZI
; File g:\网狐\happygamewh\服务端\系统模块\服务器组件\游戏服务器\gameserverdlg.cpp
;	COMDAT ?OnQueryEndSession@CGameServerDlg@@QAEHXZ
_TEXT	SEGMENT
_this$ = -4						; size = 4
?OnQueryEndSession@CGameServerDlg@@QAEHXZ PROC		; CGameServerDlg::OnQueryEndSession, COMDAT
; _this$ = ecx

; 522  : {

  00000	55		 push	 ebp
  00001	8b ec		 mov	 ebp, esp
  00003	83 ec 44	 sub	 esp, 68			; 00000044H
  00006	53		 push	 ebx
  00007	56		 push	 esi
  00008	57		 push	 edi
  00009	89 4d fc	 mov	 DWORD PTR _this$[ebp], ecx

; 523  : 	//提示消息
; 524  : 	if (m_ServiceUnits.GetServiceStatus()!=ServiceStatus_Stop)

  0000c	8b 4d fc	 mov	 ecx, DWORD PTR _this$[ebp]
  0000f	81 c1 b0 00 00
	00		 add	 ecx, 176		; 000000b0H
  00015	e8 00 00 00 00	 call	 ?GetServiceStatus@CServiceUnits@@QAE?AW4enServiceStatus@@XZ ; CServiceUnits::GetServiceStatus
  0001a	85 c0		 test	 eax, eax
  0001c	74 14		 je	 SHORT $LN2@OnQueryEnd

; 525  : 	{
; 526  : 		CTraceService::TraceString(TEXT("服务正在运行中，系统要求注销回话请求失败"),TraceLevel_Warning);

  0001e	6a 02		 push	 2
  00020	68 00 00 00 00	 push	 OFFSET ??_C@_0CJ@LFENAACN@?$LH?$PO?N?q?U?$PN?T?Z?T?K?P?P?V?P?$KD?$KM?O?$LF?M?$LD?R?$KK?G?s?W?$KC?O?z?$LL?X?$LL@
  00025	ff 15 00 00 00
	00		 call	 DWORD PTR __imp_?TraceString@CTraceService@@SA_NPBDW4enTraceLevel@@@Z
  0002b	83 c4 08	 add	 esp, 8

; 527  : 		return FALSE;

  0002e	33 c0		 xor	 eax, eax
  00030	eb 05		 jmp	 SHORT $LN1@OnQueryEnd
$LN2@OnQueryEnd:

; 528  : 	}
; 529  : 
; 530  : 	return TRUE;

  00032	b8 01 00 00 00	 mov	 eax, 1
$LN1@OnQueryEnd:

; 531  : }

  00037	5f		 pop	 edi
  00038	5e		 pop	 esi
  00039	5b		 pop	 ebx
  0003a	8b e5		 mov	 esp, ebp
  0003c	5d		 pop	 ebp
  0003d	c3		 ret	 0
?OnQueryEndSession@CGameServerDlg@@QAEHXZ ENDP		; CGameServerDlg::OnQueryEndSession
_TEXT	ENDS
; Function compile flags: /Odtp /ZI
; File g:\网狐\happygamewh\服务端\系统模块\服务器组件\游戏服务器\gameserverdlg.cpp
;	COMDAT ?OnBnClickedOptionMatch@CGameServerDlg@@IAEXXZ
_TEXT	SEGMENT
_szMessage$2 = -3912					; size = 128
_DlgServerMatch$ = -3784				; size = 3632
_DataBaseParameter$ = -152				; size = 130
_this$ = -20						; size = 4
__$ArrayPad$ = -16					; size = 4
__$EHRec$ = -12						; size = 12
?OnBnClickedOptionMatch@CGameServerDlg@@IAEXXZ PROC	; CGameServerDlg::OnBnClickedOptionMatch, COMDAT
; _this$ = ecx

; 491  : {

  00000	55		 push	 ebp
  00001	8b ec		 mov	 ebp, esp
  00003	6a ff		 push	 -1
  00005	68 00 00 00 00	 push	 __ehhandler$?OnBnClickedOptionMatch@CGameServerDlg@@IAEXXZ
  0000a	64 a1 00 00 00
	00		 mov	 eax, DWORD PTR fs:0
  00010	50		 push	 eax
  00011	b8 3c 11 00 00	 mov	 eax, 4412		; 0000113cH
  00016	e8 00 00 00 00	 call	 __chkstk
  0001b	a1 00 00 00 00	 mov	 eax, DWORD PTR ___security_cookie
  00020	33 c5		 xor	 eax, ebp
  00022	89 45 f0	 mov	 DWORD PTR __$ArrayPad$[ebp], eax
  00025	53		 push	 ebx
  00026	56		 push	 esi
  00027	57		 push	 edi
  00028	50		 push	 eax
  00029	8d 45 f4	 lea	 eax, DWORD PTR __$EHRec$[ebp]
  0002c	64 a3 00 00 00
	00		 mov	 DWORD PTR fs:0, eax
  00032	89 4d ec	 mov	 DWORD PTR _this$[ebp], ecx

; 492  : 	//不是比赛就过滤
; 493  : 	if((m_ModuleInitParameter.GameServiceOption.wServerType&GAME_GENRE_MATCH)==0) return;

  00035	8b 45 ec	 mov	 eax, DWORD PTR _this$[ebp]
  00038	0f b7 88 04 4e
	03 00		 movzx	 ecx, WORD PTR [eax+216580]
  0003f	83 e1 04	 and	 ecx, 4
  00042	75 05		 jne	 SHORT $LN2@OnBnClicke
  00044	e9 06 01 00 00	 jmp	 $LN1@OnBnClicke
$LN2@OnBnClicke:

; 494  : 
; 495  : 	//变量定义
; 496  : 	tagDataBaseParameter DataBaseParameter;
; 497  : 	ZeroMemory(&DataBaseParameter,sizeof(DataBaseParameter));

  00049	68 82 00 00 00	 push	 130			; 00000082H
  0004e	6a 00		 push	 0
  00050	8d 85 68 ff ff
	ff		 lea	 eax, DWORD PTR _DataBaseParameter$[ebp]
  00056	50		 push	 eax
  00057	e8 00 00 00 00	 call	 _memset
  0005c	83 c4 0c	 add	 esp, 12			; 0000000cH

; 498  : 
; 499  : 	//设置参数
; 500  : 	GetPlatformDBParameter(DataBaseParameter);

  0005f	8d 85 68 ff ff
	ff		 lea	 eax, DWORD PTR _DataBaseParameter$[ebp]
  00065	50		 push	 eax
  00066	8b 4d ec	 mov	 ecx, DWORD PTR _this$[ebp]
  00069	e8 00 00 00 00	 call	 ?GetPlatformDBParameter@CGameServerDlg@@IAE_NAAUtagDataBaseParameter@@@Z ; CGameServerDlg::GetPlatformDBParameter

; 501  : 	m_ModuleDBParameter.SetPlatformDBParameter(DataBaseParameter);

  0006e	8d 85 68 ff ff
	ff		 lea	 eax, DWORD PTR _DataBaseParameter$[ebp]
  00074	50		 push	 eax
  00075	8b 4d ec	 mov	 ecx, DWORD PTR _this$[ebp]
  00078	81 c1 10 4c 03
	00		 add	 ecx, 216080		; 00034c10H
  0007e	ff 15 00 00 00
	00		 call	 DWORD PTR __imp_?SetPlatformDBParameter@CModuleDBParameter@@QAEXAAUtagDataBaseParameter@@@Z

; 502  : 
; 503  : 	//配置比赛
; 504  : 	CDlgServerMatch DlgServerMatch;

  00084	8d 8d 38 f1 ff
	ff		 lea	 ecx, DWORD PTR _DlgServerMatch$[ebp]
  0008a	ff 15 00 00 00
	00		 call	 DWORD PTR __imp_??0CDlgServerMatch@@QAE@XZ
  00090	c7 45 fc 00 00
	00 00		 mov	 DWORD PTR __$EHRec$[ebp+8], 0

; 505  : 	if (DlgServerMatch.OpenGameMatch(m_ModuleInitParameter.GameServiceAttrib,m_ModuleInitParameter.GameServiceOption)) 

  00097	8b 45 ec	 mov	 eax, DWORD PTR _this$[ebp]
  0009a	05 b8 4d 03 00	 add	 eax, 216504		; 00034db8H
  0009f	50		 push	 eax
  000a0	8b 4d ec	 mov	 ecx, DWORD PTR _this$[ebp]
  000a3	81 c1 20 4d 03
	00		 add	 ecx, 216352		; 00034d20H
  000a9	51		 push	 ecx
  000aa	8d 8d 38 f1 ff
	ff		 lea	 ecx, DWORD PTR _DlgServerMatch$[ebp]
  000b0	ff 15 00 00 00
	00		 call	 DWORD PTR __imp_?OpenGameMatch@CDlgServerMatch@@QAE_NAAUtagGameServiceAttrib@@AAUtagGameServiceOption@@@Z
  000b6	0f b6 d0	 movzx	 edx, al
  000b9	85 d2		 test	 edx, edx
  000bb	74 7f		 je	 SHORT $LN3@OnBnClicke

; 506  : 	{
; 507  : 		//配置比赛
; 508  : 		m_ModuleInitParameter.GameMatchOption=DlgServerMatch.m_GameMatchOption;

  000bd	8b 7d ec	 mov	 edi, DWORD PTR _this$[ebp]
  000c0	81 c7 a8 56 03
	00		 add	 edi, 218792		; 000356a8H
  000c6	b9 b2 00 00 00	 mov	 ecx, 178		; 000000b2H
  000cb	8d b5 18 f3 ff
	ff		 lea	 esi, DWORD PTR _DlgServerMatch$[ebp+480]
  000d1	f3 a5		 rep movsd

; 509  : 
; 510  : 		//配置游戏
; 511  : 		m_ServiceUnits.CollocateService(m_ModuleInitParameter.GameMatchOption);

  000d3	8b 45 ec	 mov	 eax, DWORD PTR _this$[ebp]
  000d6	05 a8 56 03 00	 add	 eax, 218792		; 000356a8H
  000db	50		 push	 eax
  000dc	8b 4d ec	 mov	 ecx, DWORD PTR _this$[ebp]
  000df	81 c1 b0 00 00
	00		 add	 ecx, 176		; 000000b0H
  000e5	e8 00 00 00 00	 call	 ?CollocateService@CServiceUnits@@QAE_NAAUtagGameMatchOption@@@Z ; CServiceUnits::CollocateService

; 512  : 
; 513  : 		//变量定义
; 514  : 		TCHAR szMessage[128]=TEXT("");

  000ea	a0 00 00 00 00	 mov	 al, BYTE PTR ??_C@_00CNPNBAHC@@
  000ef	88 85 b8 f0 ff
	ff		 mov	 BYTE PTR _szMessage$2[ebp], al
  000f5	6a 7f		 push	 127			; 0000007fH
  000f7	6a 00		 push	 0
  000f9	8d 85 b9 f0 ff
	ff		 lea	 eax, DWORD PTR _szMessage$2[ebp+1]
  000ff	50		 push	 eax
  00100	e8 00 00 00 00	 call	 _memset
  00105	83 c4 0c	 add	 esp, 12			; 0000000cH

; 515  : 		_sntprintf_s(szMessage,CountArray(szMessage),TEXT("[%s] 比赛配置加载成功"),m_ModuleInitParameter.GameMatchOption.szMatchName);

  00108	8b 45 ec	 mov	 eax, DWORD PTR _this$[ebp]
  0010b	05 ba 56 03 00	 add	 eax, 218810		; 000356baH
  00110	50		 push	 eax
  00111	68 00 00 00 00	 push	 OFFSET ??_C@_0BG@CBENBMOF@?$FL?$CFs?$FN?5?$LB?H?H?$PM?E?d?V?C?$LM?S?T?X?$LD?I?$LJ?$KG@
  00116	68 80 00 00 00	 push	 128			; 00000080H
  0011b	8d 8d b8 f0 ff
	ff		 lea	 ecx, DWORD PTR _szMessage$2[ebp]
  00121	51		 push	 ecx
  00122	e8 00 00 00 00	 call	 ??$_snprintf_s@$0IA@@@YAHAAY0IA@DIPBDZZ ; _snprintf_s<128>
  00127	83 c4 10	 add	 esp, 16			; 00000010H

; 516  : 		CTraceService::TraceString(szMessage,TraceLevel_Normal);		

  0012a	6a 01		 push	 1
  0012c	8d 85 b8 f0 ff
	ff		 lea	 eax, DWORD PTR _szMessage$2[ebp]
  00132	50		 push	 eax
  00133	ff 15 00 00 00
	00		 call	 DWORD PTR __imp_?TraceString@CTraceService@@SA_NPBDW4enTraceLevel@@@Z
  00139	83 c4 08	 add	 esp, 8
$LN3@OnBnClicke:

; 517  : 	}
; 518  : }

  0013c	c7 45 fc ff ff
	ff ff		 mov	 DWORD PTR __$EHRec$[ebp+8], -1
  00143	8d 8d 38 f1 ff
	ff		 lea	 ecx, DWORD PTR _DlgServerMatch$[ebp]
  00149	ff 15 00 00 00
	00		 call	 DWORD PTR __imp_??1CDlgServerMatch@@UAE@XZ
$LN1@OnBnClicke:
  0014f	8b 4d f4	 mov	 ecx, DWORD PTR __$EHRec$[ebp]
  00152	64 89 0d 00 00
	00 00		 mov	 DWORD PTR fs:0, ecx
  00159	59		 pop	 ecx
  0015a	5f		 pop	 edi
  0015b	5e		 pop	 esi
  0015c	5b		 pop	 ebx
  0015d	8b 4d f0	 mov	 ecx, DWORD PTR __$ArrayPad$[ebp]
  00160	33 cd		 xor	 ecx, ebp
  00162	e8 00 00 00 00	 call	 @__security_check_cookie@4
  00167	8b e5		 mov	 esp, ebp
  00169	5d		 pop	 ebp
  0016a	c3		 ret	 0
_TEXT	ENDS
;	COMDAT text$x
text$x	SEGMENT
__unwindfunclet$?OnBnClickedOptionMatch@CGameServerDlg@@IAEXXZ$0:
  00000	8d 8d 38 f1 ff
	ff		 lea	 ecx, DWORD PTR _DlgServerMatch$[ebp]
  00006	ff 25 00 00 00
	00		 jmp	 DWORD PTR __imp_??1CDlgServerMatch@@UAE@XZ
__ehhandler$?OnBnClickedOptionMatch@CGameServerDlg@@IAEXXZ:
  0000c	8b 54 24 08	 mov	 edx, DWORD PTR [esp+8]
  00010	8d 42 0c	 lea	 eax, DWORD PTR [edx+12]
  00013	8b 8a b4 ee ff
	ff		 mov	 ecx, DWORD PTR [edx-4428]
  00019	33 c8		 xor	 ecx, eax
  0001b	e8 00 00 00 00	 call	 @__security_check_cookie@4
  00020	8b 4a fc	 mov	 ecx, DWORD PTR [edx-4]
  00023	33 c8		 xor	 ecx, eax
  00025	e8 00 00 00 00	 call	 @__security_check_cookie@4
  0002a	b8 00 00 00 00	 mov	 eax, OFFSET __ehfuncinfo$?OnBnClickedOptionMatch@CGameServerDlg@@IAEXXZ
  0002f	e9 00 00 00 00	 jmp	 ___CxxFrameHandler3
text$x	ENDS
?OnBnClickedOptionMatch@CGameServerDlg@@IAEXXZ ENDP	; CGameServerDlg::OnBnClickedOptionMatch
; Function compile flags: /Odtp /ZI
; File g:\网狐\happygamewh\服务端\系统模块\服务器组件\游戏服务器\gameserverdlg.cpp
;	COMDAT ?OnBnClickedOptionServer@CGameServerDlg@@IAEXXZ
_TEXT	SEGMENT
_DlgServerWizard$ = -7676				; size = 7184
_GameServiceManager$ = -492				; size = 472
_this$ = -20						; size = 4
__$ArrayPad$ = -16					; size = 4
__$EHRec$ = -12						; size = 12
?OnBnClickedOptionServer@CGameServerDlg@@IAEXXZ PROC	; CGameServerDlg::OnBnClickedOptionServer, COMDAT
; _this$ = ecx

; 463  : {

  00000	55		 push	 ebp
  00001	8b ec		 mov	 ebp, esp
  00003	6a ff		 push	 -1
  00005	68 00 00 00 00	 push	 __ehhandler$?OnBnClickedOptionServer@CGameServerDlg@@IAEXXZ
  0000a	64 a1 00 00 00
	00		 mov	 eax, DWORD PTR fs:0
  00010	50		 push	 eax
  00011	b8 f0 1f 00 00	 mov	 eax, 8176		; 00001ff0H
  00016	e8 00 00 00 00	 call	 __chkstk
  0001b	a1 00 00 00 00	 mov	 eax, DWORD PTR ___security_cookie
  00020	33 c5		 xor	 eax, ebp
  00022	89 45 f0	 mov	 DWORD PTR __$ArrayPad$[ebp], eax
  00025	53		 push	 ebx
  00026	56		 push	 esi
  00027	57		 push	 edi
  00028	50		 push	 eax
  00029	8d 45 f4	 lea	 eax, DWORD PTR __$EHRec$[ebp]
  0002c	64 a3 00 00 00
	00		 mov	 DWORD PTR fs:0, eax
  00032	89 4d ec	 mov	 DWORD PTR _this$[ebp], ecx

; 464  : 	//游戏模块
; 465  : 	CGameServiceManagerHelper GameServiceManager;

  00035	8d 8d 14 fe ff
	ff		 lea	 ecx, DWORD PTR _GameServiceManager$[ebp]
  0003b	e8 00 00 00 00	 call	 ??0CGameServiceManagerHelper@@QAE@XZ ; CGameServiceManagerHelper::CGameServiceManagerHelper
  00040	c7 45 fc 00 00
	00 00		 mov	 DWORD PTR __$EHRec$[ebp+8], 0

; 466  : 	GameServiceManager.SetModuleCreateInfo(m_ModuleInitParameter.GameServiceAttrib.szServerDLLName,GAME_SERVICE_CREATE_NAME);

  00047	68 00 00 00 00	 push	 OFFSET ??_C@_0BJ@EBOMCPGB@CreateGameServiceManager@
  0004c	8b 45 ec	 mov	 eax, DWORD PTR _this$[ebp]
  0004f	05 74 4d 03 00	 add	 eax, 216436		; 00034d74H
  00054	50		 push	 eax
  00055	8d 8d 14 fe ff
	ff		 lea	 ecx, DWORD PTR _GameServiceManager$[ebp]
  0005b	e8 00 00 00 00	 call	 ?SetModuleCreateInfo@?$CTempldateHelper@UIGameServiceManager@@@@QAEXPBD0@Z ; CTempldateHelper<IGameServiceManager>::SetModuleCreateInfo

; 467  : 
; 468  : 	//加载模块
; 469  : 	if (GameServiceManager.CreateInstance()==false)

  00060	8d 8d 14 fe ff
	ff		 lea	 ecx, DWORD PTR _GameServiceManager$[ebp]
  00066	e8 00 00 00 00	 call	 ?CreateInstance@?$CTempldateHelper@UIGameServiceManager@@@@QAE_NXZ ; CTempldateHelper<IGameServiceManager>::CreateInstance
  0006b	0f b6 c0	 movzx	 eax, al
  0006e	85 c0		 test	 eax, eax
  00070	75 25		 jne	 SHORT $LN2@OnBnClicke

; 470  : 	{
; 471  : 		AfxMessageBox(TEXT("服务组件不存在或者加载失败，配置房间失败"),MB_ICONERROR);

  00072	6a 00		 push	 0
  00074	6a 10		 push	 16			; 00000010H
  00076	68 00 00 00 00	 push	 OFFSET ??_C@_0CJ@DJPOCDMJ@?$LH?$PO?N?q?W?i?$LM?$PO?$LC?$LL?$LE?f?T?Z?$LL?r?U?$NP?$LM?S?T?X?J?$KH?$LA?$NM?$KD?$KM?E?d?V@
  0007b	e8 00 00 00 00	 call	 ?AfxMessageBox@@YGHPBDII@Z ; AfxMessageBox

; 472  : 		return;

  00080	c7 45 fc ff ff
	ff ff		 mov	 DWORD PTR __$EHRec$[ebp+8], -1
  00087	8d 8d 14 fe ff
	ff		 lea	 ecx, DWORD PTR _GameServiceManager$[ebp]
  0008d	e8 00 00 00 00	 call	 ??1CGameServiceManagerHelper@@UAE@XZ
  00092	e9 d0 00 00 00	 jmp	 $LN1@OnBnClicke
$LN2@OnBnClicke:

; 473  : 	}
; 474  : 
; 475  : 	//配置房间
; 476  : 	CDlgServerWizard DlgServerWizard;

  00097	8d 8d 04 e2 ff
	ff		 lea	 ecx, DWORD PTR _DlgServerWizard$[ebp]
  0009d	ff 15 00 00 00
	00		 call	 DWORD PTR __imp_??0CDlgServerWizard@@QAE@XZ
  000a3	c6 45 fc 01	 mov	 BYTE PTR __$EHRec$[ebp+8], 1

; 477  : 	DlgServerWizard.SetWizardParameter(GameServiceManager.GetInterface(),&m_ModuleInitParameter.GameServiceOption);

  000a7	8b 45 ec	 mov	 eax, DWORD PTR _this$[ebp]
  000aa	05 b8 4d 03 00	 add	 eax, 216504		; 00034db8H
  000af	50		 push	 eax
  000b0	8d 8d 14 fe ff
	ff		 lea	 ecx, DWORD PTR _GameServiceManager$[ebp]
  000b6	e8 00 00 00 00	 call	 ?GetInterface@?$CTempldateHelper@UIGameServiceManager@@@@QBEPAUIGameServiceManager@@XZ ; CTempldateHelper<IGameServiceManager>::GetInterface
  000bb	50		 push	 eax
  000bc	8d 8d 04 e2 ff
	ff		 lea	 ecx, DWORD PTR _DlgServerWizard$[ebp]
  000c2	ff 15 00 00 00
	00		 call	 DWORD PTR __imp_?SetWizardParameter@CDlgServerWizard@@QAEXPAUIGameServiceManager@@PAUtagGameServiceOption@@@Z

; 478  : 	DlgServerWizard.SetPersonalRoomParameter(m_ModuleInitParameter.PersonalRoomOption, m_ModuleInitParameter.m_pCreateRoomRightAndFee);

  000c8	8b 75 ec	 mov	 esi, DWORD PTR _this$[ebp]
  000cb	81 c6 e1 59 03
	00		 add	 esi, 219617		; 000359e1H
  000d1	83 ec 74	 sub	 esp, 116		; 00000074H
  000d4	b9 1d 00 00 00	 mov	 ecx, 29			; 0000001dH
  000d9	8b fc		 mov	 edi, esp
  000db	f3 a5		 rep movsd
  000dd	8b 75 ec	 mov	 esi, DWORD PTR _this$[ebp]
  000e0	81 c6 70 59 03
	00		 add	 esi, 219504		; 00035970H
  000e6	83 ec 74	 sub	 esp, 116		; 00000074H
  000e9	b9 1c 00 00 00	 mov	 ecx, 28			; 0000001cH
  000ee	8b fc		 mov	 edi, esp
  000f0	f3 a5		 rep movsd
  000f2	a4		 movsb
  000f3	8d 8d 04 e2 ff
	ff		 lea	 ecx, DWORD PTR _DlgServerWizard$[ebp]
  000f9	ff 15 00 00 00
	00		 call	 DWORD PTR __imp_?SetPersonalRoomParameter@CDlgServerWizard@@QAEXUtagPersonalRoomOption@@UtagPersonalRoomOptionRightAndFee@@@Z

; 479  : 
; 480  : 	//创建房间
; 481  : 	if (DlgServerWizard.CreateGameServer()==false) return;

  000ff	8d 8d 04 e2 ff
	ff		 lea	 ecx, DWORD PTR _DlgServerWizard$[ebp]
  00105	ff 15 00 00 00
	00		 call	 DWORD PTR __imp_?CreateGameServer@CDlgServerWizard@@QAE_NXZ
  0010b	0f b6 c0	 movzx	 eax, al
  0010e	85 c0		 test	 eax, eax
  00110	75 24		 jne	 SHORT $LN3@OnBnClicke
  00112	c6 45 fc 00	 mov	 BYTE PTR __$EHRec$[ebp+8], 0
  00116	8d 8d 04 e2 ff
	ff		 lea	 ecx, DWORD PTR _DlgServerWizard$[ebp]
  0011c	ff 15 00 00 00
	00		 call	 DWORD PTR __imp_??1CDlgServerWizard@@UAE@XZ
  00122	c7 45 fc ff ff
	ff ff		 mov	 DWORD PTR __$EHRec$[ebp+8], -1
  00129	8d 8d 14 fe ff
	ff		 lea	 ecx, DWORD PTR _GameServiceManager$[ebp]
  0012f	e8 00 00 00 00	 call	 ??1CGameServiceManagerHelper@@UAE@XZ
  00134	eb 31		 jmp	 SHORT $LN1@OnBnClicke
$LN3@OnBnClicke:

; 482  : 
; 483  : 	//更新状态
; 484  : 	UpdateParameterStatus(DlgServerWizard.m_ModuleInitParameter);

  00136	8d 85 bc e2 ff
	ff		 lea	 eax, DWORD PTR _DlgServerWizard$[ebp+184]
  0013c	50		 push	 eax
  0013d	8b 4d ec	 mov	 ecx, DWORD PTR _this$[ebp]
  00140	e8 00 00 00 00	 call	 ?UpdateParameterStatus@CGameServerDlg@@IAEXAAUtagModuleInitParameter@@@Z ; CGameServerDlg::UpdateParameterStatus

; 485  : 
; 486  : 	return;

  00145	c6 45 fc 00	 mov	 BYTE PTR __$EHRec$[ebp+8], 0
  00149	8d 8d 04 e2 ff
	ff		 lea	 ecx, DWORD PTR _DlgServerWizard$[ebp]
  0014f	ff 15 00 00 00
	00		 call	 DWORD PTR __imp_??1CDlgServerWizard@@UAE@XZ
  00155	c7 45 fc ff ff
	ff ff		 mov	 DWORD PTR __$EHRec$[ebp+8], -1
  0015c	8d 8d 14 fe ff
	ff		 lea	 ecx, DWORD PTR _GameServiceManager$[ebp]
  00162	e8 00 00 00 00	 call	 ??1CGameServiceManagerHelper@@UAE@XZ
$LN1@OnBnClicke:

; 487  : }

  00167	8b 4d f4	 mov	 ecx, DWORD PTR __$EHRec$[ebp]
  0016a	64 89 0d 00 00
	00 00		 mov	 DWORD PTR fs:0, ecx
  00171	59		 pop	 ecx
  00172	5f		 pop	 edi
  00173	5e		 pop	 esi
  00174	5b		 pop	 ebx
  00175	8b 4d f0	 mov	 ecx, DWORD PTR __$ArrayPad$[ebp]
  00178	33 cd		 xor	 ecx, ebp
  0017a	e8 00 00 00 00	 call	 @__security_check_cookie@4
  0017f	8b e5		 mov	 esp, ebp
  00181	5d		 pop	 ebp
  00182	c3		 ret	 0
_TEXT	ENDS
;	COMDAT text$x
text$x	SEGMENT
__unwindfunclet$?OnBnClickedOptionServer@CGameServerDlg@@IAEXXZ$0:
  00000	8d 8d 14 fe ff
	ff		 lea	 ecx, DWORD PTR _GameServiceManager$[ebp]
  00006	e9 00 00 00 00	 jmp	 ??1CGameServiceManagerHelper@@UAE@XZ
__unwindfunclet$?OnBnClickedOptionServer@CGameServerDlg@@IAEXXZ$1:
  0000b	8d 8d 04 e2 ff
	ff		 lea	 ecx, DWORD PTR _DlgServerWizard$[ebp]
  00011	ff 25 00 00 00
	00		 jmp	 DWORD PTR __imp_??1CDlgServerWizard@@UAE@XZ
__ehhandler$?OnBnClickedOptionServer@CGameServerDlg@@IAEXXZ:
  00017	8b 54 24 08	 mov	 edx, DWORD PTR [esp+8]
  0001b	8d 42 0c	 lea	 eax, DWORD PTR [edx+12]
  0001e	8b 8a 00 e0 ff
	ff		 mov	 ecx, DWORD PTR [edx-8192]
  00024	33 c8		 xor	 ecx, eax
  00026	e8 00 00 00 00	 call	 @__security_check_cookie@4
  0002b	8b 4a fc	 mov	 ecx, DWORD PTR [edx-4]
  0002e	33 c8		 xor	 ecx, eax
  00030	e8 00 00 00 00	 call	 @__security_check_cookie@4
  00035	b8 00 00 00 00	 mov	 eax, OFFSET __ehfuncinfo$?OnBnClickedOptionServer@CGameServerDlg@@IAEXXZ
  0003a	e9 00 00 00 00	 jmp	 ___CxxFrameHandler3
text$x	ENDS
?OnBnClickedOptionServer@CGameServerDlg@@IAEXXZ ENDP	; CGameServerDlg::OnBnClickedOptionServer
; Function compile flags: /Odtp /ZI
; File g:\网狐\happygamewh\服务端\系统模块\服务器组件\游戏服务器\gameserverdlg.cpp
;	COMDAT ?OnBnClickedCreateServer@CGameServerDlg@@IAEXXZ
_TEXT	SEGMENT
_DlgServerWizard$ = -7336				; size = 7184
_DataBaseParameter$ = -152				; size = 130
_this$ = -20						; size = 4
__$ArrayPad$ = -16					; size = 4
__$EHRec$ = -12						; size = 12
?OnBnClickedCreateServer@CGameServerDlg@@IAEXXZ PROC	; CGameServerDlg::OnBnClickedCreateServer, COMDAT
; _this$ = ecx

; 442  : {

  00000	55		 push	 ebp
  00001	8b ec		 mov	 ebp, esp
  00003	6a ff		 push	 -1
  00005	68 00 00 00 00	 push	 __ehhandler$?OnBnClickedCreateServer@CGameServerDlg@@IAEXXZ
  0000a	64 a1 00 00 00
	00		 mov	 eax, DWORD PTR fs:0
  00010	50		 push	 eax
  00011	b8 9c 1e 00 00	 mov	 eax, 7836		; 00001e9cH
  00016	e8 00 00 00 00	 call	 __chkstk
  0001b	a1 00 00 00 00	 mov	 eax, DWORD PTR ___security_cookie
  00020	33 c5		 xor	 eax, ebp
  00022	89 45 f0	 mov	 DWORD PTR __$ArrayPad$[ebp], eax
  00025	53		 push	 ebx
  00026	56		 push	 esi
  00027	57		 push	 edi
  00028	50		 push	 eax
  00029	8d 45 f4	 lea	 eax, DWORD PTR __$EHRec$[ebp]
  0002c	64 a3 00 00 00
	00		 mov	 DWORD PTR fs:0, eax
  00032	89 4d ec	 mov	 DWORD PTR _this$[ebp], ecx

; 443  : 	//变量定义
; 444  : 	tagDataBaseParameter DataBaseParameter;
; 445  : 	ZeroMemory(&DataBaseParameter,sizeof(DataBaseParameter));

  00035	68 82 00 00 00	 push	 130			; 00000082H
  0003a	6a 00		 push	 0
  0003c	8d 85 68 ff ff
	ff		 lea	 eax, DWORD PTR _DataBaseParameter$[ebp]
  00042	50		 push	 eax
  00043	e8 00 00 00 00	 call	 _memset
  00048	83 c4 0c	 add	 esp, 12			; 0000000cH

; 446  : 
; 447  : 	//设置参数
; 448  : 	GetPlatformDBParameter(DataBaseParameter);

  0004b	8d 85 68 ff ff
	ff		 lea	 eax, DWORD PTR _DataBaseParameter$[ebp]
  00051	50		 push	 eax
  00052	8b 4d ec	 mov	 ecx, DWORD PTR _this$[ebp]
  00055	e8 00 00 00 00	 call	 ?GetPlatformDBParameter@CGameServerDlg@@IAE_NAAUtagDataBaseParameter@@@Z ; CGameServerDlg::GetPlatformDBParameter

; 449  : 	m_ModuleDBParameter.SetPlatformDBParameter(DataBaseParameter);

  0005a	8d 85 68 ff ff
	ff		 lea	 eax, DWORD PTR _DataBaseParameter$[ebp]
  00060	50		 push	 eax
  00061	8b 4d ec	 mov	 ecx, DWORD PTR _this$[ebp]
  00064	81 c1 10 4c 03
	00		 add	 ecx, 216080		; 00034c10H
  0006a	ff 15 00 00 00
	00		 call	 DWORD PTR __imp_?SetPlatformDBParameter@CModuleDBParameter@@QAEXAAUtagDataBaseParameter@@@Z

; 450  : 
; 451  : 	//创建房间
; 452  : 	CDlgServerWizard DlgServerWizard;

  00070	8d 8d 58 e3 ff
	ff		 lea	 ecx, DWORD PTR _DlgServerWizard$[ebp]
  00076	ff 15 00 00 00
	00		 call	 DWORD PTR __imp_??0CDlgServerWizard@@QAE@XZ
  0007c	c7 45 fc 00 00
	00 00		 mov	 DWORD PTR __$EHRec$[ebp+8], 0

; 453  : 	if (DlgServerWizard.CreateGameServer()==false) return;

  00083	8d 8d 58 e3 ff
	ff		 lea	 ecx, DWORD PTR _DlgServerWizard$[ebp]
  00089	ff 15 00 00 00
	00		 call	 DWORD PTR __imp_?CreateGameServer@CDlgServerWizard@@QAE_NXZ
  0008f	0f b6 c0	 movzx	 eax, al
  00092	85 c0		 test	 eax, eax
  00094	75 15		 jne	 SHORT $LN2@OnBnClicke
  00096	c7 45 fc ff ff
	ff ff		 mov	 DWORD PTR __$EHRec$[ebp+8], -1
  0009d	8d 8d 58 e3 ff
	ff		 lea	 ecx, DWORD PTR _DlgServerWizard$[ebp]
  000a3	ff 15 00 00 00
	00		 call	 DWORD PTR __imp_??1CDlgServerWizard@@UAE@XZ
  000a9	eb 22		 jmp	 SHORT $LN1@OnBnClicke
$LN2@OnBnClicke:

; 454  : 
; 455  : 	//更新状态
; 456  : 	UpdateParameterStatus(DlgServerWizard.m_ModuleInitParameter);

  000ab	8d 85 10 e4 ff
	ff		 lea	 eax, DWORD PTR _DlgServerWizard$[ebp+184]
  000b1	50		 push	 eax
  000b2	8b 4d ec	 mov	 ecx, DWORD PTR _this$[ebp]
  000b5	e8 00 00 00 00	 call	 ?UpdateParameterStatus@CGameServerDlg@@IAEXAAUtagModuleInitParameter@@@Z ; CGameServerDlg::UpdateParameterStatus

; 457  : 
; 458  : 	return;

  000ba	c7 45 fc ff ff
	ff ff		 mov	 DWORD PTR __$EHRec$[ebp+8], -1
  000c1	8d 8d 58 e3 ff
	ff		 lea	 ecx, DWORD PTR _DlgServerWizard$[ebp]
  000c7	ff 15 00 00 00
	00		 call	 DWORD PTR __imp_??1CDlgServerWizard@@UAE@XZ
$LN1@OnBnClicke:

; 459  : }

  000cd	8b 4d f4	 mov	 ecx, DWORD PTR __$EHRec$[ebp]
  000d0	64 89 0d 00 00
	00 00		 mov	 DWORD PTR fs:0, ecx
  000d7	59		 pop	 ecx
  000d8	5f		 pop	 edi
  000d9	5e		 pop	 esi
  000da	5b		 pop	 ebx
  000db	8b 4d f0	 mov	 ecx, DWORD PTR __$ArrayPad$[ebp]
  000de	33 cd		 xor	 ecx, ebp
  000e0	e8 00 00 00 00	 call	 @__security_check_cookie@4
  000e5	8b e5		 mov	 esp, ebp
  000e7	5d		 pop	 ebp
  000e8	c3		 ret	 0
_TEXT	ENDS
;	COMDAT text$x
text$x	SEGMENT
__unwindfunclet$?OnBnClickedCreateServer@CGameServerDlg@@IAEXXZ$0:
  00000	8d 8d 58 e3 ff
	ff		 lea	 ecx, DWORD PTR _DlgServerWizard$[ebp]
  00006	ff 25 00 00 00
	00		 jmp	 DWORD PTR __imp_??1CDlgServerWizard@@UAE@XZ
__ehhandler$?OnBnClickedCreateServer@CGameServerDlg@@IAEXXZ:
  0000c	8b 54 24 08	 mov	 edx, DWORD PTR [esp+8]
  00010	8d 42 0c	 lea	 eax, DWORD PTR [edx+12]
  00013	8b 8a 54 e1 ff
	ff		 mov	 ecx, DWORD PTR [edx-7852]
  00019	33 c8		 xor	 ecx, eax
  0001b	e8 00 00 00 00	 call	 @__security_check_cookie@4
  00020	8b 4a fc	 mov	 ecx, DWORD PTR [edx-4]
  00023	33 c8		 xor	 ecx, eax
  00025	e8 00 00 00 00	 call	 @__security_check_cookie@4
  0002a	b8 00 00 00 00	 mov	 eax, OFFSET __ehfuncinfo$?OnBnClickedCreateServer@CGameServerDlg@@IAEXXZ
  0002f	e9 00 00 00 00	 jmp	 ___CxxFrameHandler3
text$x	ENDS
?OnBnClickedCreateServer@CGameServerDlg@@IAEXXZ ENDP	; CGameServerDlg::OnBnClickedCreateServer
; Function compile flags: /Odtp /ZI
; File g:\网狐\happygamewh\服务端\系统模块\服务器组件\游戏服务器\gameserverdlg.cpp
;	COMDAT ?OnBnClickedOpenServer@CGameServerDlg@@IAEXXZ
_TEXT	SEGMENT
_DlgServerItem$ = -4024					; size = 3872
_DataBaseParameter$ = -152				; size = 130
_this$ = -20						; size = 4
__$ArrayPad$ = -16					; size = 4
__$EHRec$ = -12						; size = 12
?OnBnClickedOpenServer@CGameServerDlg@@IAEXXZ PROC	; CGameServerDlg::OnBnClickedOpenServer, COMDAT
; _this$ = ecx

; 412  : {

  00000	55		 push	 ebp
  00001	8b ec		 mov	 ebp, esp
  00003	6a ff		 push	 -1
  00005	68 00 00 00 00	 push	 __ehhandler$?OnBnClickedOpenServer@CGameServerDlg@@IAEXXZ
  0000a	64 a1 00 00 00
	00		 mov	 eax, DWORD PTR fs:0
  00010	50		 push	 eax
  00011	b8 ac 11 00 00	 mov	 eax, 4524		; 000011acH
  00016	e8 00 00 00 00	 call	 __chkstk
  0001b	a1 00 00 00 00	 mov	 eax, DWORD PTR ___security_cookie
  00020	33 c5		 xor	 eax, ebp
  00022	89 45 f0	 mov	 DWORD PTR __$ArrayPad$[ebp], eax
  00025	53		 push	 ebx
  00026	56		 push	 esi
  00027	57		 push	 edi
  00028	50		 push	 eax
  00029	8d 45 f4	 lea	 eax, DWORD PTR __$EHRec$[ebp]
  0002c	64 a3 00 00 00
	00		 mov	 DWORD PTR fs:0, eax
  00032	89 4d ec	 mov	 DWORD PTR _this$[ebp], ecx

; 413  : 	//变量定义
; 414  : 	tagDataBaseParameter DataBaseParameter;
; 415  : 	ZeroMemory(&DataBaseParameter,sizeof(DataBaseParameter));

  00035	68 82 00 00 00	 push	 130			; 00000082H
  0003a	6a 00		 push	 0
  0003c	8d 85 68 ff ff
	ff		 lea	 eax, DWORD PTR _DataBaseParameter$[ebp]
  00042	50		 push	 eax
  00043	e8 00 00 00 00	 call	 _memset
  00048	83 c4 0c	 add	 esp, 12			; 0000000cH

; 416  : 
; 417  : 	//设置参数
; 418  : 	GetPlatformDBParameter(DataBaseParameter);

  0004b	8d 85 68 ff ff
	ff		 lea	 eax, DWORD PTR _DataBaseParameter$[ebp]
  00051	50		 push	 eax
  00052	8b 4d ec	 mov	 ecx, DWORD PTR _this$[ebp]
  00055	e8 00 00 00 00	 call	 ?GetPlatformDBParameter@CGameServerDlg@@IAE_NAAUtagDataBaseParameter@@@Z ; CGameServerDlg::GetPlatformDBParameter

; 419  : 	m_ModuleDBParameter.SetPlatformDBParameter(DataBaseParameter);

  0005a	8d 85 68 ff ff
	ff		 lea	 eax, DWORD PTR _DataBaseParameter$[ebp]
  00060	50		 push	 eax
  00061	8b 4d ec	 mov	 ecx, DWORD PTR _this$[ebp]
  00064	81 c1 10 4c 03
	00		 add	 ecx, 216080		; 00034c10H
  0006a	ff 15 00 00 00
	00		 call	 DWORD PTR __imp_?SetPlatformDBParameter@CModuleDBParameter@@QAEXAAUtagDataBaseParameter@@@Z

; 420  : 
; 421  : 	//配置房间
; 422  : 	CDlgServerItem DlgServerItem;

  00070	8d 8d 48 f0 ff
	ff		 lea	 ecx, DWORD PTR _DlgServerItem$[ebp]
  00076	ff 15 00 00 00
	00		 call	 DWORD PTR __imp_??0CDlgServerItem@@QAE@XZ
  0007c	c7 45 fc 00 00
	00 00		 mov	 DWORD PTR __$EHRec$[ebp+8], 0

; 423  : 	if (DlgServerItem.OpenGameServer()==false) return;

  00083	8d 8d 48 f0 ff
	ff		 lea	 ecx, DWORD PTR _DlgServerItem$[ebp]
  00089	ff 15 00 00 00
	00		 call	 DWORD PTR __imp_?OpenGameServer@CDlgServerItem@@QAE_NXZ
  0008f	0f b6 c0	 movzx	 eax, al
  00092	85 c0		 test	 eax, eax
  00094	75 15		 jne	 SHORT $LN2@OnBnClicke
  00096	c7 45 fc ff ff
	ff ff		 mov	 DWORD PTR __$EHRec$[ebp+8], -1
  0009d	8d 8d 48 f0 ff
	ff		 lea	 ecx, DWORD PTR _DlgServerItem$[ebp]
  000a3	ff 15 00 00 00
	00		 call	 DWORD PTR __imp_??1CDlgServerItem@@UAE@XZ
  000a9	eb 6f		 jmp	 SHORT $LN1@OnBnClicke
$LN2@OnBnClicke:

; 424  : 
; 425  : 	//更新状态
; 426  : 	UpdateParameterStatus(DlgServerItem.m_ModuleInitParameter);

  000ab	8d 85 30 f2 ff
	ff		 lea	 eax, DWORD PTR _DlgServerItem$[ebp+488]
  000b1	50		 push	 eax
  000b2	8b 4d ec	 mov	 ecx, DWORD PTR _this$[ebp]
  000b5	e8 00 00 00 00	 call	 ?UpdateParameterStatus@CGameServerDlg@@IAEXAAUtagModuleInitParameter@@@Z ; CGameServerDlg::UpdateParameterStatus

; 427  : 
; 428  : 	//加载约战房间配置
; 429  : 	if (DlgServerItem.m_ModuleInitParameter.GameServiceOption.wServerType == GAME_GENRE_PERSONAL)

  000ba	0f b7 85 14 f3
	ff ff		 movzx	 eax, WORD PTR _DlgServerItem$[ebp+716]
  000c1	83 f8 10	 cmp	 eax, 16			; 00000010H
  000c4	75 14		 jne	 SHORT $LN3@OnBnClicke

; 430  : 	{
; 431  : 		DlgServerItem.LoadPersonalRoomPatameter(DlgServerItem.m_ModuleInitParameter.GameServiceOption.wKindID);

  000c6	0f b7 85 c8 f2
	ff ff		 movzx	 eax, WORD PTR _DlgServerItem$[ebp+640]
  000cd	50		 push	 eax
  000ce	8d 8d 48 f0 ff
	ff		 lea	 ecx, DWORD PTR _DlgServerItem$[ebp]
  000d4	ff 15 00 00 00
	00		 call	 DWORD PTR __imp_?LoadPersonalRoomPatameter@CDlgServerItem@@QAE_NG@Z
$LN3@OnBnClicke:

; 432  : 	}
; 433  : 	m_ModuleInitParameter.PersonalRoomOption = DlgServerItem.m_ModuleInitParameter.PersonalRoomOption;

  000da	8b 7d ec	 mov	 edi, DWORD PTR _this$[ebp]
  000dd	81 c7 70 59 03
	00		 add	 edi, 219504		; 00035970H
  000e3	b9 1c 00 00 00	 mov	 ecx, 28			; 0000001cH
  000e8	8d b5 80 fe ff
	ff		 lea	 esi, DWORD PTR _DlgServerItem$[ebp+3640]
  000ee	f3 a5		 rep movsd
  000f0	a4		 movsb

; 434  : 	m_ModuleInitParameter.m_pCreateRoomRightAndFee = DlgServerItem.m_ModuleInitParameter.m_pCreateRoomRightAndFee;

  000f1	8b 7d ec	 mov	 edi, DWORD PTR _this$[ebp]
  000f4	81 c7 e1 59 03
	00		 add	 edi, 219617		; 000359e1H
  000fa	b9 1d 00 00 00	 mov	 ecx, 29			; 0000001dH
  000ff	8d b5 f1 fe ff
	ff		 lea	 esi, DWORD PTR _DlgServerItem$[ebp+3753]
  00105	f3 a5		 rep movsd

; 435  : 
; 436  : 
; 437  : 	return;

  00107	c7 45 fc ff ff
	ff ff		 mov	 DWORD PTR __$EHRec$[ebp+8], -1
  0010e	8d 8d 48 f0 ff
	ff		 lea	 ecx, DWORD PTR _DlgServerItem$[ebp]
  00114	ff 15 00 00 00
	00		 call	 DWORD PTR __imp_??1CDlgServerItem@@UAE@XZ
$LN1@OnBnClicke:

; 438  : }

  0011a	8b 4d f4	 mov	 ecx, DWORD PTR __$EHRec$[ebp]
  0011d	64 89 0d 00 00
	00 00		 mov	 DWORD PTR fs:0, ecx
  00124	59		 pop	 ecx
  00125	5f		 pop	 edi
  00126	5e		 pop	 esi
  00127	5b		 pop	 ebx
  00128	8b 4d f0	 mov	 ecx, DWORD PTR __$ArrayPad$[ebp]
  0012b	33 cd		 xor	 ecx, ebp
  0012d	e8 00 00 00 00	 call	 @__security_check_cookie@4
  00132	8b e5		 mov	 esp, ebp
  00134	5d		 pop	 ebp
  00135	c3		 ret	 0
_TEXT	ENDS
;	COMDAT text$x
text$x	SEGMENT
__unwindfunclet$?OnBnClickedOpenServer@CGameServerDlg@@IAEXXZ$0:
  00000	8d 8d 48 f0 ff
	ff		 lea	 ecx, DWORD PTR _DlgServerItem$[ebp]
  00006	ff 25 00 00 00
	00		 jmp	 DWORD PTR __imp_??1CDlgServerItem@@UAE@XZ
__ehhandler$?OnBnClickedOpenServer@CGameServerDlg@@IAEXXZ:
  0000c	8b 54 24 08	 mov	 edx, DWORD PTR [esp+8]
  00010	8d 42 0c	 lea	 eax, DWORD PTR [edx+12]
  00013	8b 8a 44 ee ff
	ff		 mov	 ecx, DWORD PTR [edx-4540]
  00019	33 c8		 xor	 ecx, eax
  0001b	e8 00 00 00 00	 call	 @__security_check_cookie@4
  00020	8b 4a fc	 mov	 ecx, DWORD PTR [edx-4]
  00023	33 c8		 xor	 ecx, eax
  00025	e8 00 00 00 00	 call	 @__security_check_cookie@4
  0002a	b8 00 00 00 00	 mov	 eax, OFFSET __ehfuncinfo$?OnBnClickedOpenServer@CGameServerDlg@@IAEXXZ
  0002f	e9 00 00 00 00	 jmp	 ___CxxFrameHandler3
text$x	ENDS
?OnBnClickedOpenServer@CGameServerDlg@@IAEXXZ ENDP	; CGameServerDlg::OnBnClickedOpenServer
; Function compile flags: /Odtp /ZI
; File g:\网狐\happygamewh\服务端\系统模块\服务器组件\游戏服务器\gameserverdlg.cpp
;	COMDAT ?OnBnClickedStopService@CGameServerDlg@@IAEXXZ
_TEXT	SEGMENT
_this$ = -20						; size = 4
__$EHRec$ = -16						; size = 16
?OnBnClickedStopService@CGameServerDlg@@IAEXXZ PROC	; CGameServerDlg::OnBnClickedStopService, COMDAT
; _this$ = ecx

; 396  : {

  00000	55		 push	 ebp
  00001	8b ec		 mov	 ebp, esp
  00003	6a ff		 push	 -1
  00005	68 00 00 00 00	 push	 __ehhandler$?OnBnClickedStopService@CGameServerDlg@@IAEXXZ
  0000a	64 a1 00 00 00
	00		 mov	 eax, DWORD PTR fs:0
  00010	50		 push	 eax
  00011	51		 push	 ecx
  00012	83 ec 44	 sub	 esp, 68			; 00000044H
  00015	53		 push	 ebx
  00016	56		 push	 esi
  00017	57		 push	 edi
  00018	a1 00 00 00 00	 mov	 eax, DWORD PTR ___security_cookie
  0001d	33 c5		 xor	 eax, ebp
  0001f	50		 push	 eax
  00020	8d 45 f4	 lea	 eax, DWORD PTR __$EHRec$[ebp+4]
  00023	64 a3 00 00 00
	00		 mov	 DWORD PTR fs:0, eax
  00029	89 65 f0	 mov	 DWORD PTR __$EHRec$[ebp], esp
  0002c	89 4d ec	 mov	 DWORD PTR _this$[ebp], ecx

; 397  : 	//停止服务
; 398  : 	try

  0002f	c7 45 fc 00 00
	00 00		 mov	 DWORD PTR __$EHRec$[ebp+12], 0

; 399  : 	{
; 400  : 		m_ServiceUnits.ConcludeService();

  00036	8b 4d ec	 mov	 ecx, DWORD PTR _this$[ebp]
  00039	81 c1 b0 00 00
	00		 add	 ecx, 176		; 000000b0H
  0003f	e8 00 00 00 00	 call	 ?ConcludeService@CServiceUnits@@QAE_NXZ ; CServiceUnits::ConcludeService

; 401  : 	}

  00044	eb 23		 jmp	 SHORT $LN5@OnBnClicke
__catch$?OnBnClickedStopService@CGameServerDlg@@IAEXXZ$0:

; 402  : 	catch (...)
; 403  : 	{
; 404  : 		ASSERT(FALSE);

  00046	33 c0		 xor	 eax, eax
  00048	75 19		 jne	 SHORT $LN4@OnBnClicke
  0004a	8b 0d 00 00 00
	00		 mov	 ecx, DWORD PTR ?__LINE__Var@?0??OnBnClickedStopService@CGameServerDlg@@IAEXXZ@4JA
  00050	83 c1 08	 add	 ecx, 8
  00053	51		 push	 ecx
  00054	68 00 00 00 00	 push	 OFFSET ??_C@_0EM@GFMANDOO@g?3?2?M?x?$LK?$PM?2happygamewh?2?$LH?$PO?N?q?$LG?K?2?O?$LF?M?$LD@
  00059	e8 00 00 00 00	 call	 ?AfxAssertFailedLine@@YGHPBDH@Z ; AfxAssertFailedLine
  0005e	85 c0		 test	 eax, eax
  00060	74 01		 je	 SHORT $LN4@OnBnClicke
  00062	cc		 int	 3
$LN4@OnBnClicke:

; 405  : 	}

  00063	b8 00 00 00 00	 mov	 eax, $LN8@OnBnClicke
  00068	c3		 ret	 0
$LN5@OnBnClicke:
  00069	c7 45 fc ff ff
	ff ff		 mov	 DWORD PTR __$EHRec$[ebp+12], -1
  00070	eb 07		 jmp	 SHORT $LN1@OnBnClicke
$LN8@OnBnClicke:
  00072	c7 45 fc ff ff
	ff ff		 mov	 DWORD PTR __$EHRec$[ebp+12], -1
$LN1@OnBnClicke:

; 406  : 
; 407  : 	return;
; 408  : }

  00079	8b 4d f4	 mov	 ecx, DWORD PTR __$EHRec$[ebp+4]
  0007c	64 89 0d 00 00
	00 00		 mov	 DWORD PTR fs:0, ecx
  00083	59		 pop	 ecx
  00084	5f		 pop	 edi
  00085	5e		 pop	 esi
  00086	5b		 pop	 ebx
  00087	8b e5		 mov	 esp, ebp
  00089	5d		 pop	 ebp
  0008a	c3		 ret	 0
_TEXT	ENDS
;	COMDAT text$x
text$x	SEGMENT
__ehhandler$?OnBnClickedStopService@CGameServerDlg@@IAEXXZ:
  00000	8b 54 24 08	 mov	 edx, DWORD PTR [esp+8]
  00004	8d 42 0c	 lea	 eax, DWORD PTR [edx+12]
  00007	8b 4a a8	 mov	 ecx, DWORD PTR [edx-88]
  0000a	33 c8		 xor	 ecx, eax
  0000c	e8 00 00 00 00	 call	 @__security_check_cookie@4
  00011	b8 00 00 00 00	 mov	 eax, OFFSET __ehfuncinfo$?OnBnClickedStopService@CGameServerDlg@@IAEXXZ
  00016	e9 00 00 00 00	 jmp	 ___CxxFrameHandler3
text$x	ENDS
?OnBnClickedStopService@CGameServerDlg@@IAEXXZ ENDP	; CGameServerDlg::OnBnClickedStopService
; Function compile flags: /Odtp /ZI
; File g:\网狐\happygamewh\服务端\系统模块\服务器组件\游戏服务器\gameserverdlg.cpp
;	COMDAT ?OnBnClickedStartService@CGameServerDlg@@IAEXXZ
_TEXT	SEGMENT
_this$ = -20						; size = 4
__$EHRec$ = -16						; size = 16
?OnBnClickedStartService@CGameServerDlg@@IAEXXZ PROC	; CGameServerDlg::OnBnClickedStartService, COMDAT
; _this$ = ecx

; 380  : {

  00000	55		 push	 ebp
  00001	8b ec		 mov	 ebp, esp
  00003	6a ff		 push	 -1
  00005	68 00 00 00 00	 push	 __ehhandler$?OnBnClickedStartService@CGameServerDlg@@IAEXXZ
  0000a	64 a1 00 00 00
	00		 mov	 eax, DWORD PTR fs:0
  00010	50		 push	 eax
  00011	51		 push	 ecx
  00012	83 ec 44	 sub	 esp, 68			; 00000044H
  00015	53		 push	 ebx
  00016	56		 push	 esi
  00017	57		 push	 edi
  00018	a1 00 00 00 00	 mov	 eax, DWORD PTR ___security_cookie
  0001d	33 c5		 xor	 eax, ebp
  0001f	50		 push	 eax
  00020	8d 45 f4	 lea	 eax, DWORD PTR __$EHRec$[ebp+4]
  00023	64 a3 00 00 00
	00		 mov	 DWORD PTR fs:0, eax
  00029	89 65 f0	 mov	 DWORD PTR __$EHRec$[ebp], esp
  0002c	89 4d ec	 mov	 DWORD PTR _this$[ebp], ecx

; 381  : 	//启动服务
; 382  : 	try

  0002f	c7 45 fc 00 00
	00 00		 mov	 DWORD PTR __$EHRec$[ebp+12], 0

; 383  : 	{
; 384  : 		m_ServiceUnits.StartService();

  00036	8b 4d ec	 mov	 ecx, DWORD PTR _this$[ebp]
  00039	81 c1 b0 00 00
	00		 add	 ecx, 176		; 000000b0H
  0003f	e8 00 00 00 00	 call	 ?StartService@CServiceUnits@@QAE_NXZ ; CServiceUnits::StartService

; 385  : 	}

  00044	eb 23		 jmp	 SHORT $LN5@OnBnClicke
__catch$?OnBnClickedStartService@CGameServerDlg@@IAEXXZ$0:

; 386  : 	catch (...)
; 387  : 	{
; 388  : 		ASSERT(FALSE);

  00046	33 c0		 xor	 eax, eax
  00048	75 19		 jne	 SHORT $LN4@OnBnClicke
  0004a	8b 0d 00 00 00
	00		 mov	 ecx, DWORD PTR ?__LINE__Var@?0??OnBnClickedStartService@CGameServerDlg@@IAEXXZ@4JA
  00050	83 c1 08	 add	 ecx, 8
  00053	51		 push	 ecx
  00054	68 00 00 00 00	 push	 OFFSET ??_C@_0EM@GFMANDOO@g?3?2?M?x?$LK?$PM?2happygamewh?2?$LH?$PO?N?q?$LG?K?2?O?$LF?M?$LD@
  00059	e8 00 00 00 00	 call	 ?AfxAssertFailedLine@@YGHPBDH@Z ; AfxAssertFailedLine
  0005e	85 c0		 test	 eax, eax
  00060	74 01		 je	 SHORT $LN4@OnBnClicke
  00062	cc		 int	 3
$LN4@OnBnClicke:

; 389  : 	}

  00063	b8 00 00 00 00	 mov	 eax, $LN8@OnBnClicke
  00068	c3		 ret	 0
$LN5@OnBnClicke:
  00069	c7 45 fc ff ff
	ff ff		 mov	 DWORD PTR __$EHRec$[ebp+12], -1
  00070	eb 07		 jmp	 SHORT $LN1@OnBnClicke
$LN8@OnBnClicke:
  00072	c7 45 fc ff ff
	ff ff		 mov	 DWORD PTR __$EHRec$[ebp+12], -1
$LN1@OnBnClicke:

; 390  : 
; 391  : 	return;
; 392  : }

  00079	8b 4d f4	 mov	 ecx, DWORD PTR __$EHRec$[ebp+4]
  0007c	64 89 0d 00 00
	00 00		 mov	 DWORD PTR fs:0, ecx
  00083	59		 pop	 ecx
  00084	5f		 pop	 edi
  00085	5e		 pop	 esi
  00086	5b		 pop	 ebx
  00087	8b e5		 mov	 esp, ebp
  00089	5d		 pop	 ebp
  0008a	c3		 ret	 0
_TEXT	ENDS
;	COMDAT text$x
text$x	SEGMENT
__ehhandler$?OnBnClickedStartService@CGameServerDlg@@IAEXXZ:
  00000	8b 54 24 08	 mov	 edx, DWORD PTR [esp+8]
  00004	8d 42 0c	 lea	 eax, DWORD PTR [edx+12]
  00007	8b 4a a8	 mov	 ecx, DWORD PTR [edx-88]
  0000a	33 c8		 xor	 ecx, eax
  0000c	e8 00 00 00 00	 call	 @__security_check_cookie@4
  00011	b8 00 00 00 00	 mov	 eax, OFFSET __ehfuncinfo$?OnBnClickedStartService@CGameServerDlg@@IAEXXZ
  00016	e9 00 00 00 00	 jmp	 ___CxxFrameHandler3
text$x	ENDS
?OnBnClickedStartService@CGameServerDlg@@IAEXXZ ENDP	; CGameServerDlg::OnBnClickedStartService
; Function compile flags: /Odtp /ZI
; File g:\网狐\happygamewh\服务端\系统模块\服务器组件\游戏服务器\gameserverdlg.cpp
;	COMDAT ?GetPlatformDBParameter@CGameServerDlg@@IAE_NAAUtagDataBaseParameter@@@Z
_TEXT	SEGMENT
$T2 = -933						; size = 1
_IniData$ = -804					; size = 264
_szIniFile$ = -540					; size = 260
_szWorkDir$ = -280					; size = 260
_this$ = -20						; size = 4
__$ArrayPad$ = -16					; size = 4
__$EHRec$ = -12						; size = 12
_DataBaseParameter$ = 8					; size = 4
?GetPlatformDBParameter@CGameServerDlg@@IAE_NAAUtagDataBaseParameter@@@Z PROC ; CGameServerDlg::GetPlatformDBParameter, COMDAT
; _this$ = ecx

; 355  : {

  00000	55		 push	 ebp
  00001	8b ec		 mov	 ebp, esp
  00003	6a ff		 push	 -1
  00005	68 00 00 00 00	 push	 __ehhandler$?GetPlatformDBParameter@CGameServerDlg@@IAE_NAAUtagDataBaseParameter@@@Z
  0000a	64 a1 00 00 00
	00		 mov	 eax, DWORD PTR fs:0
  00010	50		 push	 eax
  00011	81 ec 9c 03 00
	00		 sub	 esp, 924		; 0000039cH
  00017	a1 00 00 00 00	 mov	 eax, DWORD PTR ___security_cookie
  0001c	33 c5		 xor	 eax, ebp
  0001e	89 45 f0	 mov	 DWORD PTR __$ArrayPad$[ebp], eax
  00021	53		 push	 ebx
  00022	56		 push	 esi
  00023	57		 push	 edi
  00024	50		 push	 eax
  00025	8d 45 f4	 lea	 eax, DWORD PTR __$EHRec$[ebp]
  00028	64 a3 00 00 00
	00		 mov	 DWORD PTR fs:0, eax
  0002e	89 4d ec	 mov	 DWORD PTR _this$[ebp], ecx

; 356  : 	//获取路径
; 357  : 	TCHAR szWorkDir[MAX_PATH]=TEXT("");

  00031	a0 00 00 00 00	 mov	 al, BYTE PTR ??_C@_00CNPNBAHC@@
  00036	88 85 e8 fe ff
	ff		 mov	 BYTE PTR _szWorkDir$[ebp], al
  0003c	68 03 01 00 00	 push	 259			; 00000103H
  00041	6a 00		 push	 0
  00043	8d 85 e9 fe ff
	ff		 lea	 eax, DWORD PTR _szWorkDir$[ebp+1]
  00049	50		 push	 eax
  0004a	e8 00 00 00 00	 call	 _memset
  0004f	83 c4 0c	 add	 esp, 12			; 0000000cH

; 358  : 	CWHService::GetWorkDirectory(szWorkDir,CountArray(szWorkDir));

  00052	68 04 01 00 00	 push	 260			; 00000104H
  00057	8d 85 e8 fe ff
	ff		 lea	 eax, DWORD PTR _szWorkDir$[ebp]
  0005d	50		 push	 eax
  0005e	ff 15 00 00 00
	00		 call	 DWORD PTR __imp_?GetWorkDirectory@CWHService@@SA_NQADG@Z
  00064	83 c4 08	 add	 esp, 8

; 359  : 
; 360  : 	//构造路径
; 361  : 	TCHAR szIniFile[MAX_PATH]=TEXT("");

  00067	a0 00 00 00 00	 mov	 al, BYTE PTR ??_C@_00CNPNBAHC@@
  0006c	88 85 e4 fd ff
	ff		 mov	 BYTE PTR _szIniFile$[ebp], al
  00072	68 03 01 00 00	 push	 259			; 00000103H
  00077	6a 00		 push	 0
  00079	8d 85 e5 fd ff
	ff		 lea	 eax, DWORD PTR _szIniFile$[ebp+1]
  0007f	50		 push	 eax
  00080	e8 00 00 00 00	 call	 _memset
  00085	83 c4 0c	 add	 esp, 12			; 0000000cH

; 362  : 	_sntprintf_s(szIniFile,CountArray(szIniFile),TEXT("%s\\ServerParameter.ini"),szWorkDir);

  00088	8d 85 e8 fe ff
	ff		 lea	 eax, DWORD PTR _szWorkDir$[ebp]
  0008e	50		 push	 eax
  0008f	68 00 00 00 00	 push	 OFFSET ??_C@_0BH@GFNFOOOG@?$CFs?2ServerParameter?4ini@
  00094	68 04 01 00 00	 push	 260			; 00000104H
  00099	8d 8d e4 fd ff
	ff		 lea	 ecx, DWORD PTR _szIniFile$[ebp]
  0009f	51		 push	 ecx
  000a0	e8 00 00 00 00	 call	 ??$_snprintf_s@$0BAE@@@YAHAAY0BAE@DIPBDZZ ; _snprintf_s<260>
  000a5	83 c4 10	 add	 esp, 16			; 00000010H

; 363  : 
; 364  : 	//读取配置
; 365  : 	CWHIniData IniData;

  000a8	8d 8d dc fc ff
	ff		 lea	 ecx, DWORD PTR _IniData$[ebp]
  000ae	ff 15 00 00 00
	00		 call	 DWORD PTR __imp_??0CWHIniData@@QAE@XZ
  000b4	c7 45 fc 00 00
	00 00		 mov	 DWORD PTR __$EHRec$[ebp+8], 0

; 366  : 	IniData.SetIniFilePath(szIniFile);

  000bb	8d 85 e4 fd ff
	ff		 lea	 eax, DWORD PTR _szIniFile$[ebp]
  000c1	50		 push	 eax
  000c2	8d 8d dc fc ff
	ff		 lea	 ecx, DWORD PTR _IniData$[ebp]
  000c8	ff 15 00 00 00
	00		 call	 DWORD PTR __imp_?SetIniFilePath@CWHIniData@@QAEXPBD@Z

; 367  : 
; 368  : 	//连接信息
; 369  : 	DataBaseParameter.wDataBasePort=(WORD)IniData.ReadInt(TEXT("PlatformDB"),TEXT("DBPort"),1433);

  000ce	68 99 05 00 00	 push	 1433			; 00000599H
  000d3	68 00 00 00 00	 push	 OFFSET ??_C@_06NHDHPCNO@DBPort@
  000d8	68 00 00 00 00	 push	 OFFSET ??_C@_0L@KKFJCNPO@PlatformDB@
  000dd	8d 8d dc fc ff
	ff		 lea	 ecx, DWORD PTR _IniData$[ebp]
  000e3	ff 15 00 00 00
	00		 call	 DWORD PTR __imp_?ReadInt@CWHIniData@@QAEIPBD0H@Z
  000e9	8b 4d 08	 mov	 ecx, DWORD PTR _DataBaseParameter$[ebp]
  000ec	66 89 01	 mov	 WORD PTR [ecx], ax

; 370  : 	IniData.ReadEncryptString(TEXT("PlatformDB"),TEXT("DBAddr"),NULL,DataBaseParameter.szDataBaseAddr,CountArray(DataBaseParameter.szDataBaseAddr));

  000ef	6a 20		 push	 32			; 00000020H
  000f1	8b 45 08	 mov	 eax, DWORD PTR _DataBaseParameter$[ebp]
  000f4	83 c0 02	 add	 eax, 2
  000f7	50		 push	 eax
  000f8	6a 00		 push	 0
  000fa	68 00 00 00 00	 push	 OFFSET ??_C@_06BDEHLDKJ@DBAddr@
  000ff	68 00 00 00 00	 push	 OFFSET ??_C@_0L@KKFJCNPO@PlatformDB@
  00104	8d 8d dc fc ff
	ff		 lea	 ecx, DWORD PTR _IniData$[ebp]
  0010a	ff 15 00 00 00
	00		 call	 DWORD PTR __imp_?ReadEncryptString@CWHIniData@@QAEPBDPBD00PADG@Z

; 371  : 	IniData.ReadEncryptString(TEXT("PlatformDB"),TEXT("DBUser"),NULL,DataBaseParameter.szDataBaseUser,CountArray(DataBaseParameter.szDataBaseUser));

  00110	6a 20		 push	 32			; 00000020H
  00112	8b 45 08	 mov	 eax, DWORD PTR _DataBaseParameter$[ebp]
  00115	83 c0 22	 add	 eax, 34			; 00000022H
  00118	50		 push	 eax
  00119	6a 00		 push	 0
  0011b	68 00 00 00 00	 push	 OFFSET ??_C@_06EKCLIHPK@DBUser@
  00120	68 00 00 00 00	 push	 OFFSET ??_C@_0L@KKFJCNPO@PlatformDB@
  00125	8d 8d dc fc ff
	ff		 lea	 ecx, DWORD PTR _IniData$[ebp]
  0012b	ff 15 00 00 00
	00		 call	 DWORD PTR __imp_?ReadEncryptString@CWHIniData@@QAEPBDPBD00PADG@Z

; 372  : 	IniData.ReadEncryptString(TEXT("PlatformDB"),TEXT("DBPass"),NULL,DataBaseParameter.szDataBasePass,CountArray(DataBaseParameter.szDataBasePass));

  00131	6a 20		 push	 32			; 00000020H
  00133	8b 45 08	 mov	 eax, DWORD PTR _DataBaseParameter$[ebp]
  00136	83 c0 42	 add	 eax, 66			; 00000042H
  00139	50		 push	 eax
  0013a	6a 00		 push	 0
  0013c	68 00 00 00 00	 push	 OFFSET ??_C@_06HJGLHJBN@DBPass@
  00141	68 00 00 00 00	 push	 OFFSET ??_C@_0L@KKFJCNPO@PlatformDB@
  00146	8d 8d dc fc ff
	ff		 lea	 ecx, DWORD PTR _IniData$[ebp]
  0014c	ff 15 00 00 00
	00		 call	 DWORD PTR __imp_?ReadEncryptString@CWHIniData@@QAEPBDPBD00PADG@Z

; 373  : 	IniData.ReadEncryptString(TEXT("PlatformDB"),TEXT("DBName"),szPlatformDB,DataBaseParameter.szDataBaseName,CountArray(DataBaseParameter.szDataBaseName));

  00152	6a 20		 push	 32			; 00000020H
  00154	8b 45 08	 mov	 eax, DWORD PTR _DataBaseParameter$[ebp]
  00157	83 c0 62	 add	 eax, 98			; 00000062H
  0015a	50		 push	 eax
  0015b	68 00 00 00 00	 push	 OFFSET ?szPlatformDB@@3QBDB
  00160	68 00 00 00 00	 push	 OFFSET ??_C@_06KMJLGLFD@DBName@
  00165	68 00 00 00 00	 push	 OFFSET ??_C@_0L@KKFJCNPO@PlatformDB@
  0016a	8d 8d dc fc ff
	ff		 lea	 ecx, DWORD PTR _IniData$[ebp]
  00170	ff 15 00 00 00
	00		 call	 DWORD PTR __imp_?ReadEncryptString@CWHIniData@@QAEPBDPBD00PADG@Z

; 374  : 
; 375  : 	return true;

  00176	c6 85 5b fc ff
	ff 01		 mov	 BYTE PTR $T2[ebp], 1
  0017d	c7 45 fc ff ff
	ff ff		 mov	 DWORD PTR __$EHRec$[ebp+8], -1
  00184	8d 8d dc fc ff
	ff		 lea	 ecx, DWORD PTR _IniData$[ebp]
  0018a	ff 15 00 00 00
	00		 call	 DWORD PTR __imp_??1CWHIniData@@UAE@XZ
  00190	8a 85 5b fc ff
	ff		 mov	 al, BYTE PTR $T2[ebp]

; 376  : }

  00196	8b 4d f4	 mov	 ecx, DWORD PTR __$EHRec$[ebp]
  00199	64 89 0d 00 00
	00 00		 mov	 DWORD PTR fs:0, ecx
  001a0	59		 pop	 ecx
  001a1	5f		 pop	 edi
  001a2	5e		 pop	 esi
  001a3	5b		 pop	 ebx
  001a4	8b 4d f0	 mov	 ecx, DWORD PTR __$ArrayPad$[ebp]
  001a7	33 cd		 xor	 ecx, ebp
  001a9	e8 00 00 00 00	 call	 @__security_check_cookie@4
  001ae	8b e5		 mov	 esp, ebp
  001b0	5d		 pop	 ebp
  001b1	c2 04 00	 ret	 4
_TEXT	ENDS
;	COMDAT text$x
text$x	SEGMENT
__unwindfunclet$?GetPlatformDBParameter@CGameServerDlg@@IAE_NAAUtagDataBaseParameter@@@Z$0:
  00000	8d 8d dc fc ff
	ff		 lea	 ecx, DWORD PTR _IniData$[ebp]
  00006	ff 25 00 00 00
	00		 jmp	 DWORD PTR __imp_??1CWHIniData@@UAE@XZ
__ehhandler$?GetPlatformDBParameter@CGameServerDlg@@IAE_NAAUtagDataBaseParameter@@@Z:
  0000c	8b 54 24 08	 mov	 edx, DWORD PTR [esp+8]
  00010	8d 42 0c	 lea	 eax, DWORD PTR [edx+12]
  00013	8b 8a 54 fc ff
	ff		 mov	 ecx, DWORD PTR [edx-940]
  00019	33 c8		 xor	 ecx, eax
  0001b	e8 00 00 00 00	 call	 @__security_check_cookie@4
  00020	8b 4a fc	 mov	 ecx, DWORD PTR [edx-4]
  00023	33 c8		 xor	 ecx, eax
  00025	e8 00 00 00 00	 call	 @__security_check_cookie@4
  0002a	b8 00 00 00 00	 mov	 eax, OFFSET __ehfuncinfo$?GetPlatformDBParameter@CGameServerDlg@@IAE_NAAUtagDataBaseParameter@@@Z
  0002f	e9 00 00 00 00	 jmp	 ___CxxFrameHandler3
text$x	ENDS
?GetPlatformDBParameter@CGameServerDlg@@IAE_NAAUtagDataBaseParameter@@@Z ENDP ; CGameServerDlg::GetPlatformDBParameter
; Function compile flags: /Odtp /ZI
; File g:\网狐\happygamewh\服务端\系统模块\服务器组件\游戏服务器\gameserverdlg.cpp
;	COMDAT ?StartServerService@CGameServerDlg@@IAE_NG@Z
_TEXT	SEGMENT
$T2 = -4542						; size = 1
$T3 = -4541						; size = 1
_DlgServerItem$ = -4028					; size = 3872
_DataBaseParameter$ = -156				; size = 130
_this$ = -24						; size = 4
__$ArrayPad$ = -20					; size = 4
__$EHRec$ = -16						; size = 16
_wServerID$ = 8						; size = 2
?StartServerService@CGameServerDlg@@IAE_NG@Z PROC	; CGameServerDlg::StartServerService, COMDAT
; _this$ = ecx

; 320  : {

  00000	55		 push	 ebp
  00001	8b ec		 mov	 ebp, esp
  00003	6a ff		 push	 -1
  00005	68 00 00 00 00	 push	 __ehhandler$?StartServerService@CGameServerDlg@@IAE_NG@Z
  0000a	64 a1 00 00 00
	00		 mov	 eax, DWORD PTR fs:0
  00010	50		 push	 eax
  00011	51		 push	 ecx
  00012	b8 b0 11 00 00	 mov	 eax, 4528		; 000011b0H
  00017	e8 00 00 00 00	 call	 __chkstk
  0001c	a1 00 00 00 00	 mov	 eax, DWORD PTR ___security_cookie
  00021	33 c5		 xor	 eax, ebp
  00023	89 45 ec	 mov	 DWORD PTR __$ArrayPad$[ebp], eax
  00026	53		 push	 ebx
  00027	56		 push	 esi
  00028	57		 push	 edi
  00029	50		 push	 eax
  0002a	8d 45 f4	 lea	 eax, DWORD PTR __$EHRec$[ebp+4]
  0002d	64 a3 00 00 00
	00		 mov	 DWORD PTR fs:0, eax
  00033	89 65 f0	 mov	 DWORD PTR __$EHRec$[ebp], esp
  00036	89 4d e8	 mov	 DWORD PTR _this$[ebp], ecx

; 321  : 	//变量定义
; 322  : 	tagDataBaseParameter DataBaseParameter;
; 323  : 	ZeroMemory(&DataBaseParameter,sizeof(DataBaseParameter));

  00039	68 82 00 00 00	 push	 130			; 00000082H
  0003e	6a 00		 push	 0
  00040	8d 85 64 ff ff
	ff		 lea	 eax, DWORD PTR _DataBaseParameter$[ebp]
  00046	50		 push	 eax
  00047	e8 00 00 00 00	 call	 _memset
  0004c	83 c4 0c	 add	 esp, 12			; 0000000cH

; 324  : 
; 325  : 	//设置参数
; 326  : 	GetPlatformDBParameter(DataBaseParameter);

  0004f	8d 85 64 ff ff
	ff		 lea	 eax, DWORD PTR _DataBaseParameter$[ebp]
  00055	50		 push	 eax
  00056	8b 4d e8	 mov	 ecx, DWORD PTR _this$[ebp]
  00059	e8 00 00 00 00	 call	 ?GetPlatformDBParameter@CGameServerDlg@@IAE_NAAUtagDataBaseParameter@@@Z ; CGameServerDlg::GetPlatformDBParameter

; 327  : 	m_ModuleDBParameter.SetPlatformDBParameter(DataBaseParameter);

  0005e	8d 85 64 ff ff
	ff		 lea	 eax, DWORD PTR _DataBaseParameter$[ebp]
  00064	50		 push	 eax
  00065	8b 4d e8	 mov	 ecx, DWORD PTR _this$[ebp]
  00068	81 c1 10 4c 03
	00		 add	 ecx, 216080		; 00034c10H
  0006e	ff 15 00 00 00
	00		 call	 DWORD PTR __imp_?SetPlatformDBParameter@CModuleDBParameter@@QAEXAAUtagDataBaseParameter@@@Z

; 328  : 
; 329  : 	//读取配置
; 330  : 	CDlgServerItem DlgServerItem;

  00074	8d 8d 44 f0 ff
	ff		 lea	 ecx, DWORD PTR _DlgServerItem$[ebp]
  0007a	ff 15 00 00 00
	00		 call	 DWORD PTR __imp_??0CDlgServerItem@@QAE@XZ
  00080	c7 45 fc 00 00
	00 00		 mov	 DWORD PTR __$EHRec$[ebp+12], 0

; 331  : 	if (DlgServerItem.OpenGameServer(wServerID)==false)

  00087	0f b7 45 08	 movzx	 eax, WORD PTR _wServerID$[ebp]
  0008b	50		 push	 eax
  0008c	8d 8d 44 f0 ff
	ff		 lea	 ecx, DWORD PTR _DlgServerItem$[ebp]
  00092	ff 15 00 00 00
	00		 call	 DWORD PTR __imp_?OpenGameServer@CDlgServerItem@@QAE_NG@Z
  00098	0f b6 c8	 movzx	 ecx, al
  0009b	85 c9		 test	 ecx, ecx
  0009d	75 32		 jne	 SHORT $LN2@StartServe

; 332  : 	{
; 333  : 		CTraceService::TraceString(TEXT("房间配置参数不存在或者加载失败"),TraceLevel_Exception);

  0009f	6a 03		 push	 3
  000a1	68 00 00 00 00	 push	 OFFSET ??_C@_0BP@CKJOPMBN@?$LH?$LP?$LM?d?E?d?V?C?$LC?N?J?$PN?$LC?$LL?$LE?f?T?Z?$LL?r?U?$NP?$LM?S?T?X?J?$KH?$LA?$NM@
  000a6	ff 15 00 00 00
	00		 call	 DWORD PTR __imp_?TraceString@CTraceService@@SA_NPBDW4enTraceLevel@@@Z
  000ac	83 c4 08	 add	 esp, 8

; 334  : 		return false;

  000af	c6 85 43 ee ff
	ff 00		 mov	 BYTE PTR $T3[ebp], 0
  000b6	c7 45 fc ff ff
	ff ff		 mov	 DWORD PTR __$EHRec$[ebp+12], -1
  000bd	8d 8d 44 f0 ff
	ff		 lea	 ecx, DWORD PTR _DlgServerItem$[ebp]
  000c3	ff 15 00 00 00
	00		 call	 DWORD PTR __imp_??1CDlgServerItem@@UAE@XZ
  000c9	8a 85 43 ee ff
	ff		 mov	 al, BYTE PTR $T3[ebp]
  000cf	eb 76		 jmp	 SHORT $LN1@StartServe
$LN2@StartServe:

; 335  : 	}
; 336  : 
; 337  : 	//更新状态
; 338  : 	UpdateParameterStatus(DlgServerItem.m_ModuleInitParameter);

  000d1	8d 85 2c f2 ff
	ff		 lea	 eax, DWORD PTR _DlgServerItem$[ebp+488]
  000d7	50		 push	 eax
  000d8	8b 4d e8	 mov	 ecx, DWORD PTR _this$[ebp]
  000db	e8 00 00 00 00	 call	 ?UpdateParameterStatus@CGameServerDlg@@IAEXAAUtagModuleInitParameter@@@Z ; CGameServerDlg::UpdateParameterStatus

; 339  : 
; 340  : 	//启动服务
; 341  : 	try

  000e0	c6 45 fc 01	 mov	 BYTE PTR __$EHRec$[ebp+12], 1

; 342  : 	{
; 343  : 		m_ServiceUnits.StartService();

  000e4	8b 4d e8	 mov	 ecx, DWORD PTR _this$[ebp]
  000e7	81 c1 b0 00 00
	00		 add	 ecx, 176		; 000000b0H
  000ed	e8 00 00 00 00	 call	 ?StartService@CServiceUnits@@QAE_NXZ ; CServiceUnits::StartService

; 344  : 	}

  000f2	eb 23		 jmp	 SHORT $LN6@StartServe
__catch$?StartServerService@CGameServerDlg@@IAE_NG@Z$0:

; 345  : 	catch (...)
; 346  : 	{
; 347  : 		ASSERT(FALSE);

  000f4	33 c0		 xor	 eax, eax
  000f6	75 19		 jne	 SHORT $LN5@StartServe
  000f8	8b 0d 00 00 00
	00		 mov	 ecx, DWORD PTR ?__LINE__Var@?0??StartServerService@CGameServerDlg@@IAE_NG@Z@4JA
  000fe	83 c1 1b	 add	 ecx, 27			; 0000001bH
  00101	51		 push	 ecx
  00102	68 00 00 00 00	 push	 OFFSET ??_C@_0EM@GFMANDOO@g?3?2?M?x?$LK?$PM?2happygamewh?2?$LH?$PO?N?q?$LG?K?2?O?$LF?M?$LD@
  00107	e8 00 00 00 00	 call	 ?AfxAssertFailedLine@@YGHPBDH@Z ; AfxAssertFailedLine
  0010c	85 c0		 test	 eax, eax
  0010e	74 01		 je	 SHORT $LN5@StartServe
  00110	cc		 int	 3
$LN5@StartServe:

; 348  : 	}

  00111	b8 00 00 00 00	 mov	 eax, $LN10@StartServe
  00116	c3		 ret	 0
$LN6@StartServe:
  00117	c7 45 fc 00 00
	00 00		 mov	 DWORD PTR __$EHRec$[ebp+12], 0
  0011e	eb 07		 jmp	 SHORT __tryend$?StartServerService@CGameServerDlg@@IAE_NG@Z$1
$LN10@StartServe:
  00120	c7 45 fc 00 00
	00 00		 mov	 DWORD PTR __$EHRec$[ebp+12], 0
__tryend$?StartServerService@CGameServerDlg@@IAE_NG@Z$1:

; 349  : 
; 350  : 	return true;

  00127	c6 85 42 ee ff
	ff 01		 mov	 BYTE PTR $T2[ebp], 1
  0012e	c7 45 fc ff ff
	ff ff		 mov	 DWORD PTR __$EHRec$[ebp+12], -1
  00135	8d 8d 44 f0 ff
	ff		 lea	 ecx, DWORD PTR _DlgServerItem$[ebp]
  0013b	ff 15 00 00 00
	00		 call	 DWORD PTR __imp_??1CDlgServerItem@@UAE@XZ
  00141	8a 85 42 ee ff
	ff		 mov	 al, BYTE PTR $T2[ebp]
$LN1@StartServe:

; 351  : }

  00147	8b 4d f4	 mov	 ecx, DWORD PTR __$EHRec$[ebp+4]
  0014a	64 89 0d 00 00
	00 00		 mov	 DWORD PTR fs:0, ecx
  00151	59		 pop	 ecx
  00152	5f		 pop	 edi
  00153	5e		 pop	 esi
  00154	5b		 pop	 ebx
  00155	8b 4d ec	 mov	 ecx, DWORD PTR __$ArrayPad$[ebp]
  00158	33 cd		 xor	 ecx, ebp
  0015a	e8 00 00 00 00	 call	 @__security_check_cookie@4
  0015f	8b e5		 mov	 esp, ebp
  00161	5d		 pop	 ebp
  00162	c2 04 00	 ret	 4
_TEXT	ENDS
;	COMDAT text$x
text$x	SEGMENT
__unwindfunclet$?StartServerService@CGameServerDlg@@IAE_NG@Z$2:
  00000	8d 8d 44 f0 ff
	ff		 lea	 ecx, DWORD PTR _DlgServerItem$[ebp]
  00006	ff 25 00 00 00
	00		 jmp	 DWORD PTR __imp_??1CDlgServerItem@@UAE@XZ
__ehhandler$?StartServerService@CGameServerDlg@@IAE_NG@Z:
  0000c	8b 54 24 08	 mov	 edx, DWORD PTR [esp+8]
  00010	8d 42 0c	 lea	 eax, DWORD PTR [edx+12]
  00013	8b 8a 3c ee ff
	ff		 mov	 ecx, DWORD PTR [edx-4548]
  00019	33 c8		 xor	 ecx, eax
  0001b	e8 00 00 00 00	 call	 @__security_check_cookie@4
  00020	8b 4a f8	 mov	 ecx, DWORD PTR [edx-8]
  00023	33 c8		 xor	 ecx, eax
  00025	e8 00 00 00 00	 call	 @__security_check_cookie@4
  0002a	b8 00 00 00 00	 mov	 eax, OFFSET __ehfuncinfo$?StartServerService@CGameServerDlg@@IAE_NG@Z
  0002f	e9 00 00 00 00	 jmp	 ___CxxFrameHandler3
text$x	ENDS
?StartServerService@CGameServerDlg@@IAE_NG@Z ENDP	; CGameServerDlg::StartServerService
; Function compile flags: /Odtp /ZI
; File g:\网狐\happygamewh\服务端\系统模块\服务器组件\游戏服务器\gameserverdlg.cpp
;	COMDAT ?UpdateParameterStatus@CGameServerDlg@@IAEXAAUtagModuleInitParameter@@@Z
_TEXT	SEGMENT
_pszServerName$ = -272					; size = 4
_szString$ = -268					; size = 256
_pszServerDLLName$ = -12				; size = 4
_this$ = -8						; size = 4
__$ArrayPad$ = -4					; size = 4
_ModuleInitParameter$ = 8				; size = 4
?UpdateParameterStatus@CGameServerDlg@@IAEXAAUtagModuleInitParameter@@@Z PROC ; CGameServerDlg::UpdateParameterStatus, COMDAT
; _this$ = ecx

; 269  : {

  00000	55		 push	 ebp
  00001	8b ec		 mov	 ebp, esp
  00003	81 ec 50 01 00
	00		 sub	 esp, 336		; 00000150H
  00009	a1 00 00 00 00	 mov	 eax, DWORD PTR ___security_cookie
  0000e	33 c5		 xor	 eax, ebp
  00010	89 45 fc	 mov	 DWORD PTR __$ArrayPad$[ebp], eax
  00013	53		 push	 ebx
  00014	56		 push	 esi
  00015	57		 push	 edi
  00016	89 4d f8	 mov	 DWORD PTR _this$[ebp], ecx

; 270  : 	//设置变量
; 271  : 	m_bOptionSuccess=true;

  00019	8b 45 f8	 mov	 eax, DWORD PTR _this$[ebp]
  0001c	c6 80 19 4d 03
	00 01		 mov	 BYTE PTR [eax+216345], 1

; 272  : 	m_ModuleInitParameter=ModuleInitParameter;

  00023	8b 7d f8	 mov	 edi, DWORD PTR _this$[ebp]
  00026	81 c7 20 4d 03
	00		 add	 edi, 216352		; 00034d20H
  0002c	b9 4e 03 00 00	 mov	 ecx, 846		; 0000034eH
  00031	8b 75 08	 mov	 esi, DWORD PTR _ModuleInitParameter$[ebp]
  00034	f3 a5		 rep movsd

; 273  : 
; 274  : 	//更新标题
; 275  : 	UpdateServerTitle(ServiceStatus_Stop);

  00036	6a 00		 push	 0
  00038	8b 4d f8	 mov	 ecx, DWORD PTR _this$[ebp]
  0003b	e8 00 00 00 00	 call	 ?UpdateServerTitle@CGameServerDlg@@IAEXW4enServiceStatus@@@Z ; CGameServerDlg::UpdateServerTitle

; 276  : 	UpdateServerLogo(ModuleInitParameter.GameServiceAttrib.szServerDLLName);

  00040	8b 45 08	 mov	 eax, DWORD PTR _ModuleInitParameter$[ebp]
  00043	83 c0 54	 add	 eax, 84			; 00000054H
  00046	50		 push	 eax
  00047	8b 4d f8	 mov	 ecx, DWORD PTR _this$[ebp]
  0004a	e8 00 00 00 00	 call	 ?UpdateServerLogo@CGameServerDlg@@IAEXPBD@Z ; CGameServerDlg::UpdateServerLogo

; 277  : 
; 278  : 	//设置按钮
; 279  : 	GetDlgItem(IDC_START_SERVICE)->EnableWindow(TRUE);

  0004f	6a 01		 push	 1
  00051	68 e8 03 00 00	 push	 1000			; 000003e8H
  00056	8b 4d f8	 mov	 ecx, DWORD PTR _this$[ebp]
  00059	e8 00 00 00 00	 call	 ?GetDlgItem@CWnd@@QBEPAV1@H@Z ; CWnd::GetDlgItem
  0005e	8b c8		 mov	 ecx, eax
  00060	e8 00 00 00 00	 call	 ?EnableWindow@CWnd@@QAEHH@Z ; CWnd::EnableWindow

; 280  : 	GetDlgItem(IDC_OPTION_SERVER)->EnableWindow(TRUE);

  00065	6a 01		 push	 1
  00067	68 eb 03 00 00	 push	 1003			; 000003ebH
  0006c	8b 4d f8	 mov	 ecx, DWORD PTR _this$[ebp]
  0006f	e8 00 00 00 00	 call	 ?GetDlgItem@CWnd@@QBEPAV1@H@Z ; CWnd::GetDlgItem
  00074	8b c8		 mov	 ecx, eax
  00076	e8 00 00 00 00	 call	 ?EnableWindow@CWnd@@QAEHH@Z ; CWnd::EnableWindow

; 281  : 
; 282  : 	//不是比赛就过滤
; 283  : 	if((ModuleInitParameter.GameServiceOption.wServerType&GAME_GENRE_MATCH)!=0)

  0007b	8b 45 08	 mov	 eax, DWORD PTR _ModuleInitParameter$[ebp]
  0007e	0f b7 88 e4 00
	00 00		 movzx	 ecx, WORD PTR [eax+228]
  00085	83 e1 04	 and	 ecx, 4
  00088	74 18		 je	 SHORT $LN2@UpdatePara

; 284  : 	{
; 285  : 		GetDlgItem(IDC_OPTION_MATCH)->EnableWindow(TRUE);

  0008a	6a 01		 push	 1
  0008c	68 f5 03 00 00	 push	 1013			; 000003f5H
  00091	8b 4d f8	 mov	 ecx, DWORD PTR _this$[ebp]
  00094	e8 00 00 00 00	 call	 ?GetDlgItem@CWnd@@QBEPAV1@H@Z ; CWnd::GetDlgItem
  00099	8b c8		 mov	 ecx, eax
  0009b	e8 00 00 00 00	 call	 ?EnableWindow@CWnd@@QAEHH@Z ; CWnd::EnableWindow

; 286  : 	}
; 287  : 	else

  000a0	eb 16		 jmp	 SHORT $LN3@UpdatePara
$LN2@UpdatePara:

; 288  : 	{
; 289  : 		GetDlgItem(IDC_OPTION_MATCH)->EnableWindow(FALSE);

  000a2	6a 00		 push	 0
  000a4	68 f5 03 00 00	 push	 1013			; 000003f5H
  000a9	8b 4d f8	 mov	 ecx, DWORD PTR _this$[ebp]
  000ac	e8 00 00 00 00	 call	 ?GetDlgItem@CWnd@@QBEPAV1@H@Z ; CWnd::GetDlgItem
  000b1	8b c8		 mov	 ecx, eax
  000b3	e8 00 00 00 00	 call	 ?EnableWindow@CWnd@@QAEHH@Z ; CWnd::EnableWindow
$LN3@UpdatePara:

; 290  : 	}
; 291  : 
; 292  : 	//设置控件
; 293  : 	SetDlgItemText(IDC_GAME_NAME,m_ModuleInitParameter.GameServiceAttrib.szGameName);

  000b8	8b 45 f8	 mov	 eax, DWORD PTR _this$[ebp]
  000bb	05 26 4d 03 00	 add	 eax, 216358		; 00034d26H
  000c0	50		 push	 eax
  000c1	68 f2 03 00 00	 push	 1010			; 000003f2H
  000c6	8b 4d f8	 mov	 ecx, DWORD PTR _this$[ebp]
  000c9	e8 00 00 00 00	 call	 ?SetDlgItemTextA@CWnd@@QAEXHPBD@Z ; CWnd::SetDlgItemTextA

; 294  : 	SetDlgItemText(IDC_SERVER_NAME,m_ModuleInitParameter.GameServiceOption.szServerName);

  000ce	8b 45 f8	 mov	 eax, DWORD PTR _this$[ebp]
  000d1	05 08 4e 03 00	 add	 eax, 216584		; 00034e08H
  000d6	50		 push	 eax
  000d7	68 e9 03 00 00	 push	 1001			; 000003e9H
  000dc	8b 4d f8	 mov	 ecx, DWORD PTR _this$[ebp]
  000df	e8 00 00 00 00	 call	 ?SetDlgItemTextA@CWnd@@QAEXHPBD@Z ; CWnd::SetDlgItemTextA

; 295  : 
; 296  : 	//监听端口
; 297  : 	if (m_ModuleInitParameter.GameServiceOption.wServerPort==0)

  000e4	8b 45 f8	 mov	 eax, DWORD PTR _this$[ebp]
  000e7	0f b7 88 00 4e
	03 00		 movzx	 ecx, WORD PTR [eax+216576]
  000ee	85 c9		 test	 ecx, ecx
  000f0	75 0f		 jne	 SHORT $LN4@UpdatePara

; 298  : 	{
; 299  : 		m_ModuleInitParameter.GameServiceOption.wServerPort = 6000;

  000f2	b8 70 17 00 00	 mov	 eax, 6000		; 00001770H
  000f7	8b 4d f8	 mov	 ecx, DWORD PTR _this$[ebp]
  000fa	66 89 81 00 4e
	03 00		 mov	 WORD PTR [ecx+216576], ax
$LN4@UpdatePara:

; 300  : 	}
; 301  : 	SetDlgItemInt(IDC_SERVER_PORT, m_ModuleInitParameter.GameServiceOption.wServerPort);

  00101	6a 01		 push	 1
  00103	8b 45 f8	 mov	 eax, DWORD PTR _this$[ebp]
  00106	0f b7 88 00 4e
	03 00		 movzx	 ecx, WORD PTR [eax+216576]
  0010d	51		 push	 ecx
  0010e	68 f4 03 00 00	 push	 1012			; 000003f4H
  00113	8b 4d f8	 mov	 ecx, DWORD PTR _this$[ebp]
  00116	e8 00 00 00 00	 call	 ?SetDlgItemInt@CWnd@@QAEXHIH@Z ; CWnd::SetDlgItemInt

; 302  : 
; 303  : 	//设置模块
; 304  : 	LPCTSTR pszServerDLLName=m_ModuleInitParameter.GameServiceAttrib.szServerDLLName;

  0011b	8b 45 f8	 mov	 eax, DWORD PTR _this$[ebp]
  0011e	05 74 4d 03 00	 add	 eax, 216436		; 00034d74H
  00123	89 45 f4	 mov	 DWORD PTR _pszServerDLLName$[ebp], eax

; 305  : 	m_ServiceUnits.CollocateService(pszServerDLLName,m_ModuleInitParameter.GameServiceOption);

  00126	8b 45 f8	 mov	 eax, DWORD PTR _this$[ebp]
  00129	05 b8 4d 03 00	 add	 eax, 216504		; 00034db8H
  0012e	50		 push	 eax
  0012f	8b 4d f4	 mov	 ecx, DWORD PTR _pszServerDLLName$[ebp]
  00132	51		 push	 ecx
  00133	8b 4d f8	 mov	 ecx, DWORD PTR _this$[ebp]
  00136	81 c1 b0 00 00
	00		 add	 ecx, 176		; 000000b0H
  0013c	e8 00 00 00 00	 call	 ?CollocateService@CServiceUnits@@QAE_NPBDAAUtagGameServiceOption@@@Z ; CServiceUnits::CollocateService

; 306  : 
; 307  : 	//构造提示
; 308  : 	TCHAR szString[256]=TEXT("");

  00141	a0 00 00 00 00	 mov	 al, BYTE PTR ??_C@_00CNPNBAHC@@
  00146	88 85 f4 fe ff
	ff		 mov	 BYTE PTR _szString$[ebp], al
  0014c	68 ff 00 00 00	 push	 255			; 000000ffH
  00151	6a 00		 push	 0
  00153	8d 85 f5 fe ff
	ff		 lea	 eax, DWORD PTR _szString$[ebp+1]
  00159	50		 push	 eax
  0015a	e8 00 00 00 00	 call	 _memset
  0015f	83 c4 0c	 add	 esp, 12			; 0000000cH

; 309  : 	LPCTSTR pszServerName=m_ModuleInitParameter.GameServiceOption.szServerName;

  00162	8b 45 f8	 mov	 eax, DWORD PTR _this$[ebp]
  00165	05 08 4e 03 00	 add	 eax, 216584		; 00034e08H
  0016a	89 85 f0 fe ff
	ff		 mov	 DWORD PTR _pszServerName$[ebp], eax

; 310  : 	_sntprintf_s(szString,CountArray(szString),TEXT("[ %s ] 房间参数加载成功"),pszServerName);

  00170	8b 85 f0 fe ff
	ff		 mov	 eax, DWORD PTR _pszServerName$[ebp]
  00176	50		 push	 eax
  00177	68 00 00 00 00	 push	 OFFSET ??_C@_0BI@FDOICMHH@?$FL?5?$CFs?5?$FN?5?$LH?$LP?$LM?d?$LC?N?J?$PN?$LM?S?T?X?$LD?I?$LJ?$KG@
  0017c	68 00 01 00 00	 push	 256			; 00000100H
  00181	8d 8d f4 fe ff
	ff		 lea	 ecx, DWORD PTR _szString$[ebp]
  00187	51		 push	 ecx
  00188	e8 00 00 00 00	 call	 ??$_snprintf_s@$0BAA@@@YAHAAY0BAA@DIPBDZZ ; _snprintf_s<256>
  0018d	83 c4 10	 add	 esp, 16			; 00000010H

; 311  : 
; 312  : 	//输出信息
; 313  : 	CTraceService::TraceString(szString,TraceLevel_Normal);

  00190	6a 01		 push	 1
  00192	8d 85 f4 fe ff
	ff		 lea	 eax, DWORD PTR _szString$[ebp]
  00198	50		 push	 eax
  00199	ff 15 00 00 00
	00		 call	 DWORD PTR __imp_?TraceString@CTraceService@@SA_NPBDW4enTraceLevel@@@Z
  0019f	83 c4 08	 add	 esp, 8

; 314  : 
; 315  : 	return;
; 316  : }

  001a2	5f		 pop	 edi
  001a3	5e		 pop	 esi
  001a4	5b		 pop	 ebx
  001a5	8b 4d fc	 mov	 ecx, DWORD PTR __$ArrayPad$[ebp]
  001a8	33 cd		 xor	 ecx, ebp
  001aa	e8 00 00 00 00	 call	 @__security_check_cookie@4
  001af	8b e5		 mov	 esp, ebp
  001b1	5d		 pop	 ebp
  001b2	c2 04 00	 ret	 4
?UpdateParameterStatus@CGameServerDlg@@IAEXAAUtagModuleInitParameter@@@Z ENDP ; CGameServerDlg::UpdateParameterStatus
_TEXT	ENDS
; Function compile flags: /Odtp /ZI
; File g:\网狐\happygamewh\服务端\系统模块\服务器组件\游戏服务器\gameserverdlg.cpp
;	COMDAT ?UpdateServerTitle@CGameServerDlg@@IAEXW4enServiceStatus@@@Z
_TEXT	SEGMENT
tv64 = -212						; size = 4
_szTitle$ = -144					; size = 128
_pszServerName$ = -16					; size = 4
_pszStatusName$ = -12					; size = 4
_this$ = -8						; size = 4
__$ArrayPad$ = -4					; size = 4
_ServiceStatus$ = 8					; size = 4
?UpdateServerTitle@CGameServerDlg@@IAEXW4enServiceStatus@@@Z PROC ; CGameServerDlg::UpdateServerTitle, COMDAT
; _this$ = ecx

; 224  : {

  00000	55		 push	 ebp
  00001	8b ec		 mov	 ebp, esp
  00003	81 ec d4 00 00
	00		 sub	 esp, 212		; 000000d4H
  00009	a1 00 00 00 00	 mov	 eax, DWORD PTR ___security_cookie
  0000e	33 c5		 xor	 eax, ebp
  00010	89 45 fc	 mov	 DWORD PTR __$ArrayPad$[ebp], eax
  00013	53		 push	 ebx
  00014	56		 push	 esi
  00015	57		 push	 edi
  00016	89 4d f8	 mov	 DWORD PTR _this$[ebp], ecx

; 225  : 	//变量定义
; 226  : 	LPCTSTR pszStatusName=NULL;

  00019	c7 45 f4 00 00
	00 00		 mov	 DWORD PTR _pszStatusName$[ebp], 0

; 227  : 	LPCTSTR pszServerName=NULL;

  00020	c7 45 f0 00 00
	00 00		 mov	 DWORD PTR _pszServerName$[ebp], 0

; 228  : 
; 229  : 	//状态字符
; 230  : 	switch (ServiceStatus)

  00027	8b 45 08	 mov	 eax, DWORD PTR _ServiceStatus$[ebp]
  0002a	89 85 2c ff ff
	ff		 mov	 DWORD PTR tv64[ebp], eax
  00030	83 bd 2c ff ff
	ff 00		 cmp	 DWORD PTR tv64[ebp], 0
  00037	74 14		 je	 SHORT $LN4@UpdateServ
  00039	83 bd 2c ff ff
	ff 01		 cmp	 DWORD PTR tv64[ebp], 1
  00040	74 14		 je	 SHORT $LN5@UpdateServ
  00042	83 bd 2c ff ff
	ff 02		 cmp	 DWORD PTR tv64[ebp], 2
  00049	74 14		 je	 SHORT $LN6@UpdateServ
  0004b	eb 19		 jmp	 SHORT $LN2@UpdateServ
$LN4@UpdateServ:

; 231  : 	{
; 232  : 	case ServiceStatus_Stop:	//停止状态
; 233  : 		{
; 234  : 			pszStatusName=TEXT("停止");

  0004d	c7 45 f4 00 00
	00 00		 mov	 DWORD PTR _pszStatusName$[ebp], OFFSET ??_C@_04MLIFMOBA@?M?$KD?V?$LJ@

; 235  : 			break;

  00054	eb 10		 jmp	 SHORT $LN2@UpdateServ
$LN5@UpdateServ:

; 236  : 		}
; 237  : 	case ServiceStatus_Config:	//配置状态
; 238  : 		{
; 239  : 			pszStatusName=TEXT("初始化");

  00056	c7 45 f4 00 00
	00 00		 mov	 DWORD PTR _pszStatusName$[ebp], OFFSET ??_C@_06CCMEENJJ@?$LD?u?J?$LM?$LL?$KP@

; 240  : 			break;

  0005d	eb 07		 jmp	 SHORT $LN2@UpdateServ
$LN6@UpdateServ:

; 241  : 		}
; 242  : 	case ServiceStatus_Service:	//运行状态
; 243  : 		{
; 244  : 			pszStatusName=TEXT("运行");

  0005f	c7 45 f4 00 00
	00 00		 mov	 DWORD PTR _pszStatusName$[ebp], OFFSET ??_C@_04OIFFEIFD@?T?K?P?P@
$LN2@UpdateServ:

; 245  : 			break;
; 246  : 		}
; 247  : 	}
; 248  : 
; 249  : 	//房间名字
; 250  : 	if (m_bOptionSuccess==false) pszServerName=TEXT("游戏服务器");

  00066	8b 45 f8	 mov	 eax, DWORD PTR _this$[ebp]
  00069	0f b6 88 19 4d
	03 00		 movzx	 ecx, BYTE PTR [eax+216345]
  00070	85 c9		 test	 ecx, ecx
  00072	75 09		 jne	 SHORT $LN7@UpdateServ
  00074	c7 45 f0 00 00
	00 00		 mov	 DWORD PTR _pszServerName$[ebp], OFFSET ??_C@_0L@LDJEFOCL@?S?N?O?$LH?$LH?$PO?N?q?F?w@
  0007b	eb 0b		 jmp	 SHORT $LN8@UpdateServ
$LN7@UpdateServ:

; 251  : 	else pszServerName=m_ModuleInitParameter.GameServiceOption.szServerName;

  0007d	8b 45 f8	 mov	 eax, DWORD PTR _this$[ebp]
  00080	05 08 4e 03 00	 add	 eax, 216584		; 00034e08H
  00085	89 45 f0	 mov	 DWORD PTR _pszServerName$[ebp], eax
$LN8@UpdateServ:

; 252  : 
; 253  : 	//构造标题
; 254  : 	TCHAR szTitle[128]=TEXT("");

  00088	a0 00 00 00 00	 mov	 al, BYTE PTR ??_C@_00CNPNBAHC@@
  0008d	88 85 70 ff ff
	ff		 mov	 BYTE PTR _szTitle$[ebp], al
  00093	6a 7f		 push	 127			; 0000007fH
  00095	6a 00		 push	 0
  00097	8d 85 71 ff ff
	ff		 lea	 eax, DWORD PTR _szTitle$[ebp+1]
  0009d	50		 push	 eax
  0009e	e8 00 00 00 00	 call	 _memset
  000a3	83 c4 0c	 add	 esp, 12			; 0000000cH

; 255  : #ifndef _DEBUG
; 256  : 	_sntprintf_s(szTitle,CountArray(szTitle),TEXT("[ %s ] -- [ %s ] -- [ %s ]"),m_ModuleInitParameter.GameServiceAttrib.szGameName,pszServerName,pszStatusName);
; 257  : #else
; 258  : 	_sntprintf_s(szTitle,CountArray(szTitle),TEXT("[ %s ] -- [ %s ]"),pszServerName,pszStatusName);

  000a6	8b 45 f4	 mov	 eax, DWORD PTR _pszStatusName$[ebp]
  000a9	50		 push	 eax
  000aa	8b 4d f0	 mov	 ecx, DWORD PTR _pszServerName$[ebp]
  000ad	51		 push	 ecx
  000ae	68 00 00 00 00	 push	 OFFSET ??_C@_0BB@DFCOOJKB@?$FL?5?$CFs?5?$FN?5?9?9?5?$FL?5?$CFs?5?$FN@
  000b3	68 80 00 00 00	 push	 128			; 00000080H
  000b8	8d 95 70 ff ff
	ff		 lea	 edx, DWORD PTR _szTitle$[ebp]
  000be	52		 push	 edx
  000bf	e8 00 00 00 00	 call	 ??$_snprintf_s@$0IA@@@YAHAAY0IA@DIPBDZZ ; _snprintf_s<128>
  000c4	83 c4 14	 add	 esp, 20			; 00000014H

; 259  : #endif
; 260  : 
; 261  : 	//设置标题
; 262  : 	SetWindowText(szTitle);

  000c7	8d 85 70 ff ff
	ff		 lea	 eax, DWORD PTR _szTitle$[ebp]
  000cd	50		 push	 eax
  000ce	8b 4d f8	 mov	 ecx, DWORD PTR _this$[ebp]
  000d1	e8 00 00 00 00	 call	 ?SetWindowTextA@CWnd@@QAEXPBD@Z ; CWnd::SetWindowTextA

; 263  : 
; 264  : 	return;
; 265  : }

  000d6	5f		 pop	 edi
  000d7	5e		 pop	 esi
  000d8	5b		 pop	 ebx
  000d9	8b 4d fc	 mov	 ecx, DWORD PTR __$ArrayPad$[ebp]
  000dc	33 cd		 xor	 ecx, ebp
  000de	e8 00 00 00 00	 call	 @__security_check_cookie@4
  000e3	8b e5		 mov	 esp, ebp
  000e5	5d		 pop	 ebp
  000e6	c2 04 00	 ret	 4
?UpdateServerTitle@CGameServerDlg@@IAEXW4enServiceStatus@@@Z ENDP ; CGameServerDlg::UpdateServerTitle
_TEXT	ENDS
; Function compile flags: /Odtp /ZI
; File g:\网狐\happygamewh\服务端\系统模块\服务器组件\游戏服务器\gameserverdlg.cpp
;	COMDAT ?UpdateServerLogo@CGameServerDlg@@IAEXPBD@Z
_TEXT	SEGMENT
_pServerLogo$1 = -12					; size = 4
_hInstance$ = -8					; size = 4
_this$ = -4						; size = 4
_pszServerDLL$ = 8					; size = 4
?UpdateServerLogo@CGameServerDlg@@IAEXPBD@Z PROC	; CGameServerDlg::UpdateServerLogo, COMDAT
; _this$ = ecx

; 200  : {

  00000	55		 push	 ebp
  00001	8b ec		 mov	 ebp, esp
  00003	83 ec 4c	 sub	 esp, 76			; 0000004cH
  00006	53		 push	 ebx
  00007	56		 push	 esi
  00008	57		 push	 edi
  00009	89 4d fc	 mov	 DWORD PTR _this$[ebp], ecx

; 201  : 	//加载资源
; 202  : 	HINSTANCE hInstance=AfxLoadLibrary(pszServerDLL);

  0000c	8b 45 08	 mov	 eax, DWORD PTR _pszServerDLL$[ebp]
  0000f	50		 push	 eax
  00010	e8 00 00 00 00	 call	 ?AfxLoadLibrary@@YGPAUHINSTANCE__@@PBD@Z ; AfxLoadLibrary
  00015	89 45 f8	 mov	 DWORD PTR _hInstance$[ebp], eax

; 203  : 
; 204  : 	//加载图形
; 205  : 	if (hInstance!=NULL)

  00018	83 7d f8 00	 cmp	 DWORD PTR _hInstance$[ebp], 0
  0001c	74 48		 je	 SHORT $LN1@UpdateServ

; 206  : 	{
; 207  : 		//设置资源
; 208  : 		AfxSetResourceHandle(hInstance);

  0001e	8b 45 f8	 mov	 eax, DWORD PTR _hInstance$[ebp]
  00021	50		 push	 eax
  00022	e8 00 00 00 00	 call	 ?AfxSetResourceHandle@@YGXPAUHINSTANCE__@@@Z ; AfxSetResourceHandle

; 209  : 
; 210  : 		//设置资源
; 211  : 		CStatic * pServerLogo=(CStatic *)GetDlgItem(IDC_SERVER_LOGO);

  00027	68 f1 03 00 00	 push	 1009			; 000003f1H
  0002c	8b 4d fc	 mov	 ecx, DWORD PTR _this$[ebp]
  0002f	e8 00 00 00 00	 call	 ?GetDlgItem@CWnd@@QBEPAV1@H@Z ; CWnd::GetDlgItem
  00034	89 45 f4	 mov	 DWORD PTR _pServerLogo$1[ebp], eax

; 212  : 		pServerLogo->SetIcon(::LoadIcon(hInstance,TEXT("SERVER_ICON")));

  00037	68 00 00 00 00	 push	 OFFSET ??_C@_0M@DFOIIBOA@SERVER_ICON@
  0003c	8b 45 f8	 mov	 eax, DWORD PTR _hInstance$[ebp]
  0003f	50		 push	 eax
  00040	ff 15 00 00 00
	00		 call	 DWORD PTR __imp__LoadIconA@8
  00046	50		 push	 eax
  00047	8b 4d f4	 mov	 ecx, DWORD PTR _pServerLogo$1[ebp]
  0004a	e8 00 00 00 00	 call	 ?SetIcon@CStatic@@QAEPAUHICON__@@PAU2@@Z ; CStatic::SetIcon

; 213  : 
; 214  : 		//释放资源
; 215  : 		AfxFreeLibrary(hInstance);

  0004f	8b 45 f8	 mov	 eax, DWORD PTR _hInstance$[ebp]
  00052	50		 push	 eax
  00053	e8 00 00 00 00	 call	 ?AfxFreeLibrary@@YGHPAUHINSTANCE__@@@Z ; AfxFreeLibrary

; 216  : 		AfxSetResourceHandle(GetModuleHandle(NULL));

  00058	6a 00		 push	 0
  0005a	ff 15 00 00 00
	00		 call	 DWORD PTR __imp__GetModuleHandleA@4
  00060	50		 push	 eax
  00061	e8 00 00 00 00	 call	 ?AfxSetResourceHandle@@YGXPAUHINSTANCE__@@@Z ; AfxSetResourceHandle
$LN1@UpdateServ:

; 217  : 	}
; 218  : 
; 219  : 	return;
; 220  : }

  00066	5f		 pop	 edi
  00067	5e		 pop	 esi
  00068	5b		 pop	 ebx
  00069	8b e5		 mov	 esp, ebp
  0006b	5d		 pop	 ebp
  0006c	c2 04 00	 ret	 4
?UpdateServerLogo@CGameServerDlg@@IAEXPBD@Z ENDP	; CGameServerDlg::UpdateServerLogo
_TEXT	ENDS
; Function compile flags: /Odtp /ZI
; File g:\网狐\happygamewh\服务端\系统模块\服务器组件\游戏服务器\gameserverdlg.cpp
;	COMDAT ?OnServiceUnitsStatus@CGameServerDlg@@UAEXW4enServiceStatus@@@Z
_TEXT	SEGMENT
tv64 = -84						; size = 4
_pszDescribe$1 = -16					; size = 4
_pszDescribe$2 = -12					; size = 4
_pszDescribe$3 = -8					; size = 4
_this$ = -4						; size = 4
_ServiceStatus$ = 8					; size = 4
?OnServiceUnitsStatus@CGameServerDlg@@UAEXW4enServiceStatus@@@Z PROC ; CGameServerDlg::OnServiceUnitsStatus, COMDAT
; _this$ = ecx

; 111  : {

  00000	55		 push	 ebp
  00001	8b ec		 mov	 ebp, esp
  00003	83 ec 54	 sub	 esp, 84			; 00000054H
  00006	53		 push	 ebx
  00007	56		 push	 esi
  00008	57		 push	 edi
  00009	89 4d fc	 mov	 DWORD PTR _this$[ebp], ecx

; 112  : 	//状态设置
; 113  : 	switch (ServiceStatus)

  0000c	8b 45 08	 mov	 eax, DWORD PTR _ServiceStatus$[ebp]
  0000f	89 45 ac	 mov	 DWORD PTR tv64[ebp], eax
  00012	83 7d ac 00	 cmp	 DWORD PTR tv64[ebp], 0
  00016	74 19		 je	 SHORT $LN4@OnServiceU
  00018	83 7d ac 01	 cmp	 DWORD PTR tv64[ebp], 1
  0001c	0f 84 47 01 00
	00		 je	 $LN6@OnServiceU
  00022	83 7d ac 02	 cmp	 DWORD PTR tv64[ebp], 2
  00026	0f 84 66 02 00
	00		 je	 $LN7@OnServiceU
  0002c	e9 69 03 00 00	 jmp	 $LN1@OnServiceU
$LN4@OnServiceU:

; 114  : 	{
; 115  : 	case ServiceStatus_Stop:	//停止状态
; 116  : 		{
; 117  : 			//更新标题
; 118  : 			UpdateServerTitle(ServiceStatus);

  00031	8b 45 08	 mov	 eax, DWORD PTR _ServiceStatus$[ebp]
  00034	50		 push	 eax
  00035	8b 4d fc	 mov	 ecx, DWORD PTR _this$[ebp]
  00038	81 e9 a8 00 00
	00		 sub	 ecx, 168		; 000000a8H
  0003e	e8 00 00 00 00	 call	 ?UpdateServerTitle@CGameServerDlg@@IAEXW4enServiceStatus@@@Z ; CGameServerDlg::UpdateServerTitle

; 119  : 
; 120  : 			//服务按钮
; 121  : 			GetDlgItem(IDC_STOP_SERVICE)->EnableWindow(FALSE);

  00043	6a 00		 push	 0
  00045	68 ea 03 00 00	 push	 1002			; 000003eaH
  0004a	8b 4d fc	 mov	 ecx, DWORD PTR _this$[ebp]
  0004d	81 e9 a8 00 00
	00		 sub	 ecx, 168		; 000000a8H
  00053	e8 00 00 00 00	 call	 ?GetDlgItem@CWnd@@QBEPAV1@H@Z ; CWnd::GetDlgItem
  00058	8b c8		 mov	 ecx, eax
  0005a	e8 00 00 00 00	 call	 ?EnableWindow@CWnd@@QAEHH@Z ; CWnd::EnableWindow

; 122  : 			GetDlgItem(IDC_START_SERVICE)->EnableWindow(TRUE);

  0005f	6a 01		 push	 1
  00061	68 e8 03 00 00	 push	 1000			; 000003e8H
  00066	8b 4d fc	 mov	 ecx, DWORD PTR _this$[ebp]
  00069	81 e9 a8 00 00
	00		 sub	 ecx, 168		; 000000a8H
  0006f	e8 00 00 00 00	 call	 ?GetDlgItem@CWnd@@QBEPAV1@H@Z ; CWnd::GetDlgItem
  00074	8b c8		 mov	 ecx, eax
  00076	e8 00 00 00 00	 call	 ?EnableWindow@CWnd@@QAEHH@Z ; CWnd::EnableWindow

; 123  : 
; 124  : 			//配置按钮
; 125  : 			GetDlgItem(IDC_OPEN_MATCH)->EnableWindow(TRUE);

  0007b	6a 01		 push	 1
  0007d	68 f3 03 00 00	 push	 1011			; 000003f3H
  00082	8b 4d fc	 mov	 ecx, DWORD PTR _this$[ebp]
  00085	81 e9 a8 00 00
	00		 sub	 ecx, 168		; 000000a8H
  0008b	e8 00 00 00 00	 call	 ?GetDlgItem@CWnd@@QBEPAV1@H@Z ; CWnd::GetDlgItem
  00090	8b c8		 mov	 ecx, eax
  00092	e8 00 00 00 00	 call	 ?EnableWindow@CWnd@@QAEHH@Z ; CWnd::EnableWindow

; 126  : 			GetDlgItem(IDC_OPEN_SERVER)->EnableWindow(TRUE);

  00097	6a 01		 push	 1
  00099	68 ef 03 00 00	 push	 1007			; 000003efH
  0009e	8b 4d fc	 mov	 ecx, DWORD PTR _this$[ebp]
  000a1	81 e9 a8 00 00
	00		 sub	 ecx, 168		; 000000a8H
  000a7	e8 00 00 00 00	 call	 ?GetDlgItem@CWnd@@QBEPAV1@H@Z ; CWnd::GetDlgItem
  000ac	8b c8		 mov	 ecx, eax
  000ae	e8 00 00 00 00	 call	 ?EnableWindow@CWnd@@QAEHH@Z ; CWnd::EnableWindow

; 127  : 			GetDlgItem(IDC_CREATE_SERVER)->EnableWindow(TRUE);

  000b3	6a 01		 push	 1
  000b5	68 ee 03 00 00	 push	 1006			; 000003eeH
  000ba	8b 4d fc	 mov	 ecx, DWORD PTR _this$[ebp]
  000bd	81 e9 a8 00 00
	00		 sub	 ecx, 168		; 000000a8H
  000c3	e8 00 00 00 00	 call	 ?GetDlgItem@CWnd@@QBEPAV1@H@Z ; CWnd::GetDlgItem
  000c8	8b c8		 mov	 ecx, eax
  000ca	e8 00 00 00 00	 call	 ?EnableWindow@CWnd@@QAEHH@Z ; CWnd::EnableWindow

; 128  : 			GetDlgItem(IDC_OPTION_SERVER)->EnableWindow(TRUE);

  000cf	6a 01		 push	 1
  000d1	68 eb 03 00 00	 push	 1003			; 000003ebH
  000d6	8b 4d fc	 mov	 ecx, DWORD PTR _this$[ebp]
  000d9	81 e9 a8 00 00
	00		 sub	 ecx, 168		; 000000a8H
  000df	e8 00 00 00 00	 call	 ?GetDlgItem@CWnd@@QBEPAV1@H@Z ; CWnd::GetDlgItem
  000e4	8b c8		 mov	 ecx, eax
  000e6	e8 00 00 00 00	 call	 ?EnableWindow@CWnd@@QAEHH@Z ; CWnd::EnableWindow

; 129  : 			if((m_ModuleInitParameter.GameServiceOption.wServerType&GAME_GENRE_MATCH)!=0)

  000eb	8b 45 fc	 mov	 eax, DWORD PTR _this$[ebp]
  000ee	0f b7 88 5c 4d
	03 00		 movzx	 ecx, WORD PTR [eax+216412]
  000f5	83 e1 04	 and	 ecx, 4
  000f8	74 1c		 je	 SHORT $LN5@OnServiceU

; 130  : 				GetDlgItem(IDC_OPTION_MATCH)->EnableWindow(TRUE);

  000fa	6a 01		 push	 1
  000fc	68 f5 03 00 00	 push	 1013			; 000003f5H
  00101	8b 4d fc	 mov	 ecx, DWORD PTR _this$[ebp]
  00104	81 e9 a8 00 00
	00		 sub	 ecx, 168		; 000000a8H
  0010a	e8 00 00 00 00	 call	 ?GetDlgItem@CWnd@@QBEPAV1@H@Z ; CWnd::GetDlgItem
  0010f	8b c8		 mov	 ecx, eax
  00111	e8 00 00 00 00	 call	 ?EnableWindow@CWnd@@QAEHH@Z ; CWnd::EnableWindow
$LN5@OnServiceU:

; 131  : 
; 132  : 			//运行按钮
; 133  : 			GetDlgItem(IDC_RUN_PARAMETER)->EnableWindow(FALSE);

  00116	6a 00		 push	 0
  00118	68 ed 03 00 00	 push	 1005			; 000003edH
  0011d	8b 4d fc	 mov	 ecx, DWORD PTR _this$[ebp]
  00120	81 e9 a8 00 00
	00		 sub	 ecx, 168		; 000000a8H
  00126	e8 00 00 00 00	 call	 ?GetDlgItem@CWnd@@QBEPAV1@H@Z ; CWnd::GetDlgItem
  0012b	8b c8		 mov	 ecx, eax
  0012d	e8 00 00 00 00	 call	 ?EnableWindow@CWnd@@QAEHH@Z ; CWnd::EnableWindow

; 134  : 			GetDlgItem(IDC_SERVICE_CONTROL)->EnableWindow(FALSE);

  00132	6a 00		 push	 0
  00134	68 f0 03 00 00	 push	 1008			; 000003f0H
  00139	8b 4d fc	 mov	 ecx, DWORD PTR _this$[ebp]
  0013c	81 e9 a8 00 00
	00		 sub	 ecx, 168		; 000000a8H
  00142	e8 00 00 00 00	 call	 ?GetDlgItem@CWnd@@QBEPAV1@H@Z ; CWnd::GetDlgItem
  00147	8b c8		 mov	 ecx, eax
  00149	e8 00 00 00 00	 call	 ?EnableWindow@CWnd@@QAEHH@Z ; CWnd::EnableWindow

; 135  : 
; 136  : 			//提示信息
; 137  : 			LPCTSTR pszDescribe=TEXT("服务停止成功");

  0014e	c7 45 f8 00 00
	00 00		 mov	 DWORD PTR _pszDescribe$3[ebp], OFFSET ??_C@_0N@HNGKNHMM@?$LH?$PO?N?q?M?$KD?V?$LJ?$LD?I?$LJ?$KG@

; 138  : 			CTraceService::TraceString(pszDescribe,TraceLevel_Normal);

  00155	6a 01		 push	 1
  00157	8b 45 f8	 mov	 eax, DWORD PTR _pszDescribe$3[ebp]
  0015a	50		 push	 eax
  0015b	ff 15 00 00 00
	00		 call	 DWORD PTR __imp_?TraceString@CTraceService@@SA_NPBDW4enTraceLevel@@@Z
  00161	83 c4 08	 add	 esp, 8

; 139  : 
; 140  : 			break;

  00164	e9 31 02 00 00	 jmp	 $LN1@OnServiceU
$LN6@OnServiceU:

; 141  : 		}
; 142  : 	case ServiceStatus_Config:	//配置状态
; 143  : 		{
; 144  : 			//更新标题
; 145  : 			UpdateServerTitle(ServiceStatus);

  00169	8b 45 08	 mov	 eax, DWORD PTR _ServiceStatus$[ebp]
  0016c	50		 push	 eax
  0016d	8b 4d fc	 mov	 ecx, DWORD PTR _this$[ebp]
  00170	81 e9 a8 00 00
	00		 sub	 ecx, 168		; 000000a8H
  00176	e8 00 00 00 00	 call	 ?UpdateServerTitle@CGameServerDlg@@IAEXW4enServiceStatus@@@Z ; CGameServerDlg::UpdateServerTitle

; 146  : 
; 147  : 			//设置按钮
; 148  : 			GetDlgItem(IDC_STOP_SERVICE)->EnableWindow(TRUE);

  0017b	6a 01		 push	 1
  0017d	68 ea 03 00 00	 push	 1002			; 000003eaH
  00182	8b 4d fc	 mov	 ecx, DWORD PTR _this$[ebp]
  00185	81 e9 a8 00 00
	00		 sub	 ecx, 168		; 000000a8H
  0018b	e8 00 00 00 00	 call	 ?GetDlgItem@CWnd@@QBEPAV1@H@Z ; CWnd::GetDlgItem
  00190	8b c8		 mov	 ecx, eax
  00192	e8 00 00 00 00	 call	 ?EnableWindow@CWnd@@QAEHH@Z ; CWnd::EnableWindow

; 149  : 			GetDlgItem(IDC_START_SERVICE)->EnableWindow(FALSE);

  00197	6a 00		 push	 0
  00199	68 e8 03 00 00	 push	 1000			; 000003e8H
  0019e	8b 4d fc	 mov	 ecx, DWORD PTR _this$[ebp]
  001a1	81 e9 a8 00 00
	00		 sub	 ecx, 168		; 000000a8H
  001a7	e8 00 00 00 00	 call	 ?GetDlgItem@CWnd@@QBEPAV1@H@Z ; CWnd::GetDlgItem
  001ac	8b c8		 mov	 ecx, eax
  001ae	e8 00 00 00 00	 call	 ?EnableWindow@CWnd@@QAEHH@Z ; CWnd::EnableWindow

; 150  : 
; 151  : 			//配置按钮
; 152  : 			GetDlgItem(IDC_OPEN_MATCH)->EnableWindow(FALSE);

  001b3	6a 00		 push	 0
  001b5	68 f3 03 00 00	 push	 1011			; 000003f3H
  001ba	8b 4d fc	 mov	 ecx, DWORD PTR _this$[ebp]
  001bd	81 e9 a8 00 00
	00		 sub	 ecx, 168		; 000000a8H
  001c3	e8 00 00 00 00	 call	 ?GetDlgItem@CWnd@@QBEPAV1@H@Z ; CWnd::GetDlgItem
  001c8	8b c8		 mov	 ecx, eax
  001ca	e8 00 00 00 00	 call	 ?EnableWindow@CWnd@@QAEHH@Z ; CWnd::EnableWindow

; 153  : 			GetDlgItem(IDC_OPEN_SERVER)->EnableWindow(FALSE);

  001cf	6a 00		 push	 0
  001d1	68 ef 03 00 00	 push	 1007			; 000003efH
  001d6	8b 4d fc	 mov	 ecx, DWORD PTR _this$[ebp]
  001d9	81 e9 a8 00 00
	00		 sub	 ecx, 168		; 000000a8H
  001df	e8 00 00 00 00	 call	 ?GetDlgItem@CWnd@@QBEPAV1@H@Z ; CWnd::GetDlgItem
  001e4	8b c8		 mov	 ecx, eax
  001e6	e8 00 00 00 00	 call	 ?EnableWindow@CWnd@@QAEHH@Z ; CWnd::EnableWindow

; 154  : 			GetDlgItem(IDC_CREATE_SERVER)->EnableWindow(FALSE);

  001eb	6a 00		 push	 0
  001ed	68 ee 03 00 00	 push	 1006			; 000003eeH
  001f2	8b 4d fc	 mov	 ecx, DWORD PTR _this$[ebp]
  001f5	81 e9 a8 00 00
	00		 sub	 ecx, 168		; 000000a8H
  001fb	e8 00 00 00 00	 call	 ?GetDlgItem@CWnd@@QBEPAV1@H@Z ; CWnd::GetDlgItem
  00200	8b c8		 mov	 ecx, eax
  00202	e8 00 00 00 00	 call	 ?EnableWindow@CWnd@@QAEHH@Z ; CWnd::EnableWindow

; 155  : 			GetDlgItem(IDC_OPTION_SERVER)->EnableWindow(FALSE);

  00207	6a 00		 push	 0
  00209	68 eb 03 00 00	 push	 1003			; 000003ebH
  0020e	8b 4d fc	 mov	 ecx, DWORD PTR _this$[ebp]
  00211	81 e9 a8 00 00
	00		 sub	 ecx, 168		; 000000a8H
  00217	e8 00 00 00 00	 call	 ?GetDlgItem@CWnd@@QBEPAV1@H@Z ; CWnd::GetDlgItem
  0021c	8b c8		 mov	 ecx, eax
  0021e	e8 00 00 00 00	 call	 ?EnableWindow@CWnd@@QAEHH@Z ; CWnd::EnableWindow

; 156  : 			GetDlgItem(IDC_OPTION_MATCH)->EnableWindow(FALSE);

  00223	6a 00		 push	 0
  00225	68 f5 03 00 00	 push	 1013			; 000003f5H
  0022a	8b 4d fc	 mov	 ecx, DWORD PTR _this$[ebp]
  0022d	81 e9 a8 00 00
	00		 sub	 ecx, 168		; 000000a8H
  00233	e8 00 00 00 00	 call	 ?GetDlgItem@CWnd@@QBEPAV1@H@Z ; CWnd::GetDlgItem
  00238	8b c8		 mov	 ecx, eax
  0023a	e8 00 00 00 00	 call	 ?EnableWindow@CWnd@@QAEHH@Z ; CWnd::EnableWindow

; 157  : 
; 158  : 			//运行按钮
; 159  : 			GetDlgItem(IDC_RUN_PARAMETER)->EnableWindow(FALSE);

  0023f	6a 00		 push	 0
  00241	68 ed 03 00 00	 push	 1005			; 000003edH
  00246	8b 4d fc	 mov	 ecx, DWORD PTR _this$[ebp]
  00249	81 e9 a8 00 00
	00		 sub	 ecx, 168		; 000000a8H
  0024f	e8 00 00 00 00	 call	 ?GetDlgItem@CWnd@@QBEPAV1@H@Z ; CWnd::GetDlgItem
  00254	8b c8		 mov	 ecx, eax
  00256	e8 00 00 00 00	 call	 ?EnableWindow@CWnd@@QAEHH@Z ; CWnd::EnableWindow

; 160  : 			GetDlgItem(IDC_SERVICE_CONTROL)->EnableWindow(FALSE);

  0025b	6a 00		 push	 0
  0025d	68 f0 03 00 00	 push	 1008			; 000003f0H
  00262	8b 4d fc	 mov	 ecx, DWORD PTR _this$[ebp]
  00265	81 e9 a8 00 00
	00		 sub	 ecx, 168		; 000000a8H
  0026b	e8 00 00 00 00	 call	 ?GetDlgItem@CWnd@@QBEPAV1@H@Z ; CWnd::GetDlgItem
  00270	8b c8		 mov	 ecx, eax
  00272	e8 00 00 00 00	 call	 ?EnableWindow@CWnd@@QAEHH@Z ; CWnd::EnableWindow

; 161  : 
; 162  : 			//提示信息
; 163  : 			LPCTSTR pszDescribe=TEXT("正在初始化组件...");

  00277	c7 45 f4 00 00
	00 00		 mov	 DWORD PTR _pszDescribe$2[ebp], OFFSET ??_C@_0BC@OFPAKDFO@?U?$PN?T?Z?$LD?u?J?$LM?$LL?$KP?W?i?$LM?$PO?4?4?4@

; 164  : 			CTraceService::TraceString(pszDescribe,TraceLevel_Normal);

  0027e	6a 01		 push	 1
  00280	8b 45 f4	 mov	 eax, DWORD PTR _pszDescribe$2[ebp]
  00283	50		 push	 eax
  00284	ff 15 00 00 00
	00		 call	 DWORD PTR __imp_?TraceString@CTraceService@@SA_NPBDW4enTraceLevel@@@Z
  0028a	83 c4 08	 add	 esp, 8

; 165  : 
; 166  : 			break;

  0028d	e9 08 01 00 00	 jmp	 $LN1@OnServiceU
$LN7@OnServiceU:

; 167  : 		}
; 168  : 	case ServiceStatus_Service:	//服务状态
; 169  : 		{
; 170  : 			//更新标题
; 171  : 			UpdateServerTitle(ServiceStatus);

  00292	8b 45 08	 mov	 eax, DWORD PTR _ServiceStatus$[ebp]
  00295	50		 push	 eax
  00296	8b 4d fc	 mov	 ecx, DWORD PTR _this$[ebp]
  00299	81 e9 a8 00 00
	00		 sub	 ecx, 168		; 000000a8H
  0029f	e8 00 00 00 00	 call	 ?UpdateServerTitle@CGameServerDlg@@IAEXW4enServiceStatus@@@Z ; CGameServerDlg::UpdateServerTitle

; 172  : 
; 173  : 			//服务按钮
; 174  : 			GetDlgItem(IDC_STOP_SERVICE)->EnableWindow(TRUE);

  002a4	6a 01		 push	 1
  002a6	68 ea 03 00 00	 push	 1002			; 000003eaH
  002ab	8b 4d fc	 mov	 ecx, DWORD PTR _this$[ebp]
  002ae	81 e9 a8 00 00
	00		 sub	 ecx, 168		; 000000a8H
  002b4	e8 00 00 00 00	 call	 ?GetDlgItem@CWnd@@QBEPAV1@H@Z ; CWnd::GetDlgItem
  002b9	8b c8		 mov	 ecx, eax
  002bb	e8 00 00 00 00	 call	 ?EnableWindow@CWnd@@QAEHH@Z ; CWnd::EnableWindow

; 175  : 			GetDlgItem(IDC_START_SERVICE)->EnableWindow(FALSE);

  002c0	6a 00		 push	 0
  002c2	68 e8 03 00 00	 push	 1000			; 000003e8H
  002c7	8b 4d fc	 mov	 ecx, DWORD PTR _this$[ebp]
  002ca	81 e9 a8 00 00
	00		 sub	 ecx, 168		; 000000a8H
  002d0	e8 00 00 00 00	 call	 ?GetDlgItem@CWnd@@QBEPAV1@H@Z ; CWnd::GetDlgItem
  002d5	8b c8		 mov	 ecx, eax
  002d7	e8 00 00 00 00	 call	 ?EnableWindow@CWnd@@QAEHH@Z ; CWnd::EnableWindow

; 176  : 
; 177  : 			//配置按钮
; 178  : 			GetDlgItem(IDC_OPEN_MATCH)->EnableWindow(FALSE);

  002dc	6a 00		 push	 0
  002de	68 f3 03 00 00	 push	 1011			; 000003f3H
  002e3	8b 4d fc	 mov	 ecx, DWORD PTR _this$[ebp]
  002e6	81 e9 a8 00 00
	00		 sub	 ecx, 168		; 000000a8H
  002ec	e8 00 00 00 00	 call	 ?GetDlgItem@CWnd@@QBEPAV1@H@Z ; CWnd::GetDlgItem
  002f1	8b c8		 mov	 ecx, eax
  002f3	e8 00 00 00 00	 call	 ?EnableWindow@CWnd@@QAEHH@Z ; CWnd::EnableWindow

; 179  : 			GetDlgItem(IDC_OPEN_SERVER)->EnableWindow(FALSE);

  002f8	6a 00		 push	 0
  002fa	68 ef 03 00 00	 push	 1007			; 000003efH
  002ff	8b 4d fc	 mov	 ecx, DWORD PTR _this$[ebp]
  00302	81 e9 a8 00 00
	00		 sub	 ecx, 168		; 000000a8H
  00308	e8 00 00 00 00	 call	 ?GetDlgItem@CWnd@@QBEPAV1@H@Z ; CWnd::GetDlgItem
  0030d	8b c8		 mov	 ecx, eax
  0030f	e8 00 00 00 00	 call	 ?EnableWindow@CWnd@@QAEHH@Z ; CWnd::EnableWindow

; 180  : 			GetDlgItem(IDC_CREATE_SERVER)->EnableWindow(FALSE);

  00314	6a 00		 push	 0
  00316	68 ee 03 00 00	 push	 1006			; 000003eeH
  0031b	8b 4d fc	 mov	 ecx, DWORD PTR _this$[ebp]
  0031e	81 e9 a8 00 00
	00		 sub	 ecx, 168		; 000000a8H
  00324	e8 00 00 00 00	 call	 ?GetDlgItem@CWnd@@QBEPAV1@H@Z ; CWnd::GetDlgItem
  00329	8b c8		 mov	 ecx, eax
  0032b	e8 00 00 00 00	 call	 ?EnableWindow@CWnd@@QAEHH@Z ; CWnd::EnableWindow

; 181  : 			GetDlgItem(IDC_OPTION_SERVER)->EnableWindow(FALSE);

  00330	6a 00		 push	 0
  00332	68 eb 03 00 00	 push	 1003			; 000003ebH
  00337	8b 4d fc	 mov	 ecx, DWORD PTR _this$[ebp]
  0033a	81 e9 a8 00 00
	00		 sub	 ecx, 168		; 000000a8H
  00340	e8 00 00 00 00	 call	 ?GetDlgItem@CWnd@@QBEPAV1@H@Z ; CWnd::GetDlgItem
  00345	8b c8		 mov	 ecx, eax
  00347	e8 00 00 00 00	 call	 ?EnableWindow@CWnd@@QAEHH@Z ; CWnd::EnableWindow

; 182  : 
; 183  : 			//运行按钮
; 184  : 			GetDlgItem(IDC_RUN_PARAMETER)->EnableWindow(TRUE);

  0034c	6a 01		 push	 1
  0034e	68 ed 03 00 00	 push	 1005			; 000003edH
  00353	8b 4d fc	 mov	 ecx, DWORD PTR _this$[ebp]
  00356	81 e9 a8 00 00
	00		 sub	 ecx, 168		; 000000a8H
  0035c	e8 00 00 00 00	 call	 ?GetDlgItem@CWnd@@QBEPAV1@H@Z ; CWnd::GetDlgItem
  00361	8b c8		 mov	 ecx, eax
  00363	e8 00 00 00 00	 call	 ?EnableWindow@CWnd@@QAEHH@Z ; CWnd::EnableWindow

; 185  : 			GetDlgItem(IDC_SERVICE_CONTROL)->EnableWindow(TRUE);

  00368	6a 01		 push	 1
  0036a	68 f0 03 00 00	 push	 1008			; 000003f0H
  0036f	8b 4d fc	 mov	 ecx, DWORD PTR _this$[ebp]
  00372	81 e9 a8 00 00
	00		 sub	 ecx, 168		; 000000a8H
  00378	e8 00 00 00 00	 call	 ?GetDlgItem@CWnd@@QBEPAV1@H@Z ; CWnd::GetDlgItem
  0037d	8b c8		 mov	 ecx, eax
  0037f	e8 00 00 00 00	 call	 ?EnableWindow@CWnd@@QAEHH@Z ; CWnd::EnableWindow

; 186  : 
; 187  : 			//提示信息
; 188  : 			LPCTSTR pszDescribe=TEXT("服务启动成功");

  00384	c7 45 f0 00 00
	00 00		 mov	 DWORD PTR _pszDescribe$1[ebp], OFFSET ??_C@_0N@POOFBOKN@?$LH?$PO?N?q?F?t?$LG?$KP?$LD?I?$LJ?$KG@

; 189  : 			CTraceService::TraceString(pszDescribe,TraceLevel_Normal);

  0038b	6a 01		 push	 1
  0038d	8b 45 f0	 mov	 eax, DWORD PTR _pszDescribe$1[ebp]
  00390	50		 push	 eax
  00391	ff 15 00 00 00
	00		 call	 DWORD PTR __imp_?TraceString@CTraceService@@SA_NPBDW4enTraceLevel@@@Z
  00397	83 c4 08	 add	 esp, 8
$LN1@OnServiceU:

; 190  : 
; 191  : 			break;
; 192  : 		}
; 193  : 	}
; 194  : 
; 195  : 	return;
; 196  : }

  0039a	5f		 pop	 edi
  0039b	5e		 pop	 esi
  0039c	5b		 pop	 ebx
  0039d	8b e5		 mov	 esp, ebp
  0039f	5d		 pop	 ebp
  003a0	c2 04 00	 ret	 4
?OnServiceUnitsStatus@CGameServerDlg@@UAEXW4enServiceStatus@@@Z ENDP ; CGameServerDlg::OnServiceUnitsStatus
_TEXT	ENDS
; Function compile flags: /Odtp /ZI
; File g:\网狐\happygamewh\服务端\系统模块\服务器组件\游戏服务器\gameserverdlg.cpp
;	COMDAT ?PreTranslateMessage@CGameServerDlg@@MAEHPAUtagMSG@@@Z
_TEXT	SEGMENT
_this$ = -4						; size = 4
_pMsg$ = 8						; size = 4
?PreTranslateMessage@CGameServerDlg@@MAEHPAUtagMSG@@@Z PROC ; CGameServerDlg::PreTranslateMessage, COMDAT
; _this$ = ecx

; 99   : {

  00000	55		 push	 ebp
  00001	8b ec		 mov	 ebp, esp
  00003	83 ec 44	 sub	 esp, 68			; 00000044H
  00006	53		 push	 ebx
  00007	56		 push	 esi
  00008	57		 push	 edi
  00009	89 4d fc	 mov	 DWORD PTR _this$[ebp], ecx

; 100  : 	//按键过滤
; 101  : 	if ((pMsg->message==WM_KEYDOWN)&&(pMsg->wParam==VK_ESCAPE))

  0000c	8b 45 08	 mov	 eax, DWORD PTR _pMsg$[ebp]
  0000f	81 78 04 00 01
	00 00		 cmp	 DWORD PTR [eax+4], 256	; 00000100H
  00016	75 10		 jne	 SHORT $LN2@PreTransla
  00018	8b 45 08	 mov	 eax, DWORD PTR _pMsg$[ebp]
  0001b	83 78 08 1b	 cmp	 DWORD PTR [eax+8], 27	; 0000001bH
  0001f	75 07		 jne	 SHORT $LN2@PreTransla

; 102  : 	{
; 103  : 		return TRUE;

  00021	b8 01 00 00 00	 mov	 eax, 1
  00026	eb 0c		 jmp	 SHORT $LN1@PreTransla
$LN2@PreTransla:

; 104  : 	}
; 105  : 
; 106  : 	return __super::PreTranslateMessage(pMsg);

  00028	8b 45 08	 mov	 eax, DWORD PTR _pMsg$[ebp]
  0002b	50		 push	 eax
  0002c	8b 4d fc	 mov	 ecx, DWORD PTR _this$[ebp]
  0002f	e8 00 00 00 00	 call	 ?PreTranslateMessage@CDialog@@UAEHPAUtagMSG@@@Z ; CDialog::PreTranslateMessage
$LN1@PreTransla:

; 107  : }

  00034	5f		 pop	 edi
  00035	5e		 pop	 esi
  00036	5b		 pop	 ebx
  00037	8b e5		 mov	 esp, ebp
  00039	5d		 pop	 ebp
  0003a	c2 04 00	 ret	 4
?PreTranslateMessage@CGameServerDlg@@MAEHPAUtagMSG@@@Z ENDP ; CGameServerDlg::PreTranslateMessage
_TEXT	ENDS
; Function compile flags: /Odtp /ZI
; File g:\网狐\happygamewh\服务端\系统模块\服务器组件\游戏服务器\gameserverdlg.cpp
;	COMDAT ?OnCancel@CGameServerDlg@@MAEXXZ
_TEXT	SEGMENT
_pszQuestion$1 = -8					; size = 4
_this$ = -4						; size = 4
?OnCancel@CGameServerDlg@@MAEXXZ PROC			; CGameServerDlg::OnCancel, COMDAT
; _this$ = ecx

; 83   : {

  00000	55		 push	 ebp
  00001	8b ec		 mov	 ebp, esp
  00003	83 ec 48	 sub	 esp, 72			; 00000048H
  00006	53		 push	 ebx
  00007	56		 push	 esi
  00008	57		 push	 edi
  00009	89 4d fc	 mov	 DWORD PTR _this$[ebp], ecx

; 84   : 	//关闭询问
; 85   : 	if (m_ServiceUnits.GetServiceStatus()!=ServiceStatus_Stop)

  0000c	8b 4d fc	 mov	 ecx, DWORD PTR _this$[ebp]
  0000f	81 c1 b0 00 00
	00		 add	 ecx, 176		; 000000b0H
  00015	e8 00 00 00 00	 call	 ?GetServiceStatus@CServiceUnits@@QAE?AW4enServiceStatus@@XZ ; CServiceUnits::GetServiceStatus
  0001a	85 c0		 test	 eax, eax
  0001c	74 1e		 je	 SHORT $LN2@OnCancel

; 86   : 	{
; 87   : 		LPCTSTR pszQuestion=TEXT("游戏服务器正在运行中，您确实要关闭服务器吗？");

  0001e	c7 45 f8 00 00
	00 00		 mov	 DWORD PTR _pszQuestion$1[ebp], OFFSET ??_C@_0CN@IKJEBACB@?S?N?O?$LH?$LH?$PO?N?q?F?w?U?$PN?T?Z?T?K?P?P?V?P?$KD?$KM?D?z?H?$LH?J?$LF?R?$KK?$LJ@

; 88   : 		if (AfxMessageBox(pszQuestion,MB_YESNO|MB_DEFBUTTON2|MB_ICONQUESTION)!=IDYES) return;

  00025	6a 00		 push	 0
  00027	68 24 01 00 00	 push	 292			; 00000124H
  0002c	8b 45 f8	 mov	 eax, DWORD PTR _pszQuestion$1[ebp]
  0002f	50		 push	 eax
  00030	e8 00 00 00 00	 call	 ?AfxMessageBox@@YGHPBDII@Z ; AfxMessageBox
  00035	83 f8 06	 cmp	 eax, 6
  00038	74 02		 je	 SHORT $LN2@OnCancel
  0003a	eb 16		 jmp	 SHORT $LN1@OnCancel
$LN2@OnCancel:

; 89   : 	}
; 90   : 
; 91   : 	//停止服务
; 92   : 	m_ServiceUnits.ConcludeService();

  0003c	8b 4d fc	 mov	 ecx, DWORD PTR _this$[ebp]
  0003f	81 c1 b0 00 00
	00		 add	 ecx, 176		; 000000b0H
  00045	e8 00 00 00 00	 call	 ?ConcludeService@CServiceUnits@@QAE_NXZ ; CServiceUnits::ConcludeService

; 93   : 
; 94   : 	__super::OnCancel();

  0004a	8b 4d fc	 mov	 ecx, DWORD PTR _this$[ebp]
  0004d	e8 00 00 00 00	 call	 ?OnCancel@CDialog@@MAEXXZ ; CDialog::OnCancel
$LN1@OnCancel:

; 95   : }

  00052	5f		 pop	 edi
  00053	5e		 pop	 esi
  00054	5b		 pop	 ebx
  00055	8b e5		 mov	 esp, ebp
  00057	5d		 pop	 ebp
  00058	c3		 ret	 0
?OnCancel@CGameServerDlg@@MAEXXZ ENDP			; CGameServerDlg::OnCancel
_TEXT	ENDS
; Function compile flags: /Odtp /ZI
; File g:\网狐\happygamewh\服务端\系统模块\服务器组件\游戏服务器\gameserverdlg.cpp
;	COMDAT ?OnOK@CGameServerDlg@@MAEXXZ
_TEXT	SEGMENT
_this$ = -4						; size = 4
?OnOK@CGameServerDlg@@MAEXXZ PROC			; CGameServerDlg::OnOK, COMDAT
; _this$ = ecx

; 77   : {

  00000	55		 push	 ebp
  00001	8b ec		 mov	 ebp, esp
  00003	83 ec 44	 sub	 esp, 68			; 00000044H
  00006	53		 push	 ebx
  00007	56		 push	 esi
  00008	57		 push	 edi
  00009	89 4d fc	 mov	 DWORD PTR _this$[ebp], ecx

; 78   : 	return;
; 79   : }

  0000c	5f		 pop	 edi
  0000d	5e		 pop	 esi
  0000e	5b		 pop	 ebx
  0000f	8b e5		 mov	 esp, ebp
  00011	5d		 pop	 ebp
  00012	c3		 ret	 0
?OnOK@CGameServerDlg@@MAEXXZ ENDP			; CGameServerDlg::OnOK
_TEXT	ENDS
; Function compile flags: /Odtp /ZI
; File g:\网狐\happygamewh\服务端\系统模块\服务器组件\游戏服务器\gameserverdlg.cpp
;	COMDAT ?OnInitDialog@CGameServerDlg@@MAEHXZ
_TEXT	SEGMENT
tv132 = -80						; size = 4
_pszCmdLine$ = -12					; size = 4
_hIcon$ = -8						; size = 4
_this$ = -4						; size = 4
?OnInitDialog@CGameServerDlg@@MAEHXZ PROC		; CGameServerDlg::OnInitDialog, COMDAT
; _this$ = ecx

; 54   : {

  00000	55		 push	 ebp
  00001	8b ec		 mov	 ebp, esp
  00003	83 ec 50	 sub	 esp, 80			; 00000050H
  00006	53		 push	 ebx
  00007	56		 push	 esi
  00008	57		 push	 edi
  00009	89 4d fc	 mov	 DWORD PTR _this$[ebp], ecx

; 55   : 	__super::OnInitDialog();

  0000c	8b 4d fc	 mov	 ecx, DWORD PTR _this$[ebp]
  0000f	e8 00 00 00 00	 call	 ?OnInitDialog@CDialog@@UAEHXZ ; CDialog::OnInitDialog

; 56   : 
; 57   : 	//设置标题
; 58   : 	SetWindowText(TEXT("游戏服务器 -- [ 停止 ]"));

  00014	68 00 00 00 00	 push	 OFFSET ??_C@_0BH@KHNDMDBK@?S?N?O?$LH?$LH?$PO?N?q?F?w?5?9?9?5?$FL?5?M?$KD?V?$LJ?5?$FN@
  00019	8b 4d fc	 mov	 ecx, DWORD PTR _this$[ebp]
  0001c	e8 00 00 00 00	 call	 ?SetWindowTextA@CWnd@@QAEXPBD@Z ; CWnd::SetWindowTextA

; 59   : 
; 60   : 	//设置图标
; 61   : 	HICON hIcon=LoadIcon(AfxGetInstanceHandle(),MAKEINTRESOURCE(IDR_MAINFRAME));

  00021	68 80 00 00 00	 push	 128			; 00000080H
  00026	e8 00 00 00 00	 call	 ?AfxGetInstanceHandle@@YGPAUHINSTANCE__@@XZ ; AfxGetInstanceHandle
  0002b	50		 push	 eax
  0002c	ff 15 00 00 00
	00		 call	 DWORD PTR __imp__LoadIconA@8
  00032	89 45 f8	 mov	 DWORD PTR _hIcon$[ebp], eax

; 62   : 	SetIcon(hIcon,TRUE);

  00035	6a 01		 push	 1
  00037	8b 45 f8	 mov	 eax, DWORD PTR _hIcon$[ebp]
  0003a	50		 push	 eax
  0003b	8b 4d fc	 mov	 ecx, DWORD PTR _this$[ebp]
  0003e	e8 00 00 00 00	 call	 ?SetIcon@CWnd@@QAEPAUHICON__@@PAU2@H@Z ; CWnd::SetIcon

; 63   : 	SetIcon(hIcon,FALSE);

  00043	6a 00		 push	 0
  00045	8b 45 f8	 mov	 eax, DWORD PTR _hIcon$[ebp]
  00048	50		 push	 eax
  00049	8b 4d fc	 mov	 ecx, DWORD PTR _this$[ebp]
  0004c	e8 00 00 00 00	 call	 ?SetIcon@CWnd@@QAEPAUHICON__@@PAU2@H@Z ; CWnd::SetIcon

; 64   : 
; 65   : 	//设置组件
; 66   : 	m_ServiceUnits.SetServiceUnitsSink(this);

  00051	83 7d fc 00	 cmp	 DWORD PTR _this$[ebp], 0
  00055	74 0d		 je	 SHORT $LN4@OnInitDial
  00057	8b 45 fc	 mov	 eax, DWORD PTR _this$[ebp]
  0005a	05 a8 00 00 00	 add	 eax, 168		; 000000a8H
  0005f	89 45 b0	 mov	 DWORD PTR tv132[ebp], eax
  00062	eb 07		 jmp	 SHORT $LN5@OnInitDial
$LN4@OnInitDial:
  00064	c7 45 b0 00 00
	00 00		 mov	 DWORD PTR tv132[ebp], 0
$LN5@OnInitDial:
  0006b	8b 4d b0	 mov	 ecx, DWORD PTR tv132[ebp]
  0006e	51		 push	 ecx
  0006f	8b 4d fc	 mov	 ecx, DWORD PTR _this$[ebp]
  00072	81 c1 b0 00 00
	00		 add	 ecx, 176		; 000000b0H
  00078	e8 00 00 00 00	 call	 ?SetServiceUnitsSink@CServiceUnits@@QAE_NPAUIServiceUnitsSink@@@Z ; CServiceUnits::SetServiceUnitsSink

; 67   : 
; 68   : 	//命令处理
; 69   : 	LPCTSTR pszCmdLine=AfxGetApp()->m_lpCmdLine;

  0007d	e8 00 00 00 00	 call	 ?AfxGetApp@@YGPAVCWinApp@@XZ ; AfxGetApp
  00082	8b 40 48	 mov	 eax, DWORD PTR [eax+72]
  00085	89 45 f4	 mov	 DWORD PTR _pszCmdLine$[ebp], eax

; 70   : 	if (pszCmdLine[0]!=0) PostMessage(WM_PROCESS_CMD_LINE,0,(LPARAM)pszCmdLine);

  00088	b8 01 00 00 00	 mov	 eax, 1
  0008d	6b c8 00	 imul	 ecx, eax, 0
  00090	8b 55 f4	 mov	 edx, DWORD PTR _pszCmdLine$[ebp]
  00093	0f be 04 0a	 movsx	 eax, BYTE PTR [edx+ecx]
  00097	85 c0		 test	 eax, eax
  00099	74 13		 je	 SHORT $LN2@OnInitDial
  0009b	8b 45 f4	 mov	 eax, DWORD PTR _pszCmdLine$[ebp]
  0009e	50		 push	 eax
  0009f	6a 00		 push	 0
  000a1	68 64 04 00 00	 push	 1124			; 00000464H
  000a6	8b 4d fc	 mov	 ecx, DWORD PTR _this$[ebp]
  000a9	e8 00 00 00 00	 call	 ?PostMessageA@CWnd@@QAEHIIJ@Z ; CWnd::PostMessageA
$LN2@OnInitDial:

; 71   : 
; 72   : 	return TRUE;

  000ae	b8 01 00 00 00	 mov	 eax, 1

; 73   : }

  000b3	5f		 pop	 edi
  000b4	5e		 pop	 esi
  000b5	5b		 pop	 ebx
  000b6	8b e5		 mov	 esp, ebp
  000b8	5d		 pop	 ebp
  000b9	c3		 ret	 0
?OnInitDialog@CGameServerDlg@@MAEHXZ ENDP		; CGameServerDlg::OnInitDialog
_TEXT	ENDS
; Function compile flags: /Odtp /ZI
; File g:\网狐\happygamewh\服务端\系统模块\服务器组件\游戏服务器\gameserverdlg.cpp
;	COMDAT ?DoDataExchange@CGameServerDlg@@MAEXPAVCDataExchange@@@Z
_TEXT	SEGMENT
_this$ = -4						; size = 4
_pDX$ = 8						; size = 4
?DoDataExchange@CGameServerDlg@@MAEXPAVCDataExchange@@@Z PROC ; CGameServerDlg::DoDataExchange, COMDAT
; _this$ = ecx

; 47   : {

  00000	55		 push	 ebp
  00001	8b ec		 mov	 ebp, esp
  00003	83 ec 44	 sub	 esp, 68			; 00000044H
  00006	53		 push	 ebx
  00007	56		 push	 esi
  00008	57		 push	 edi
  00009	89 4d fc	 mov	 DWORD PTR _this$[ebp], ecx

; 48   : 	__super::DoDataExchange(pDX);

  0000c	8b 45 08	 mov	 eax, DWORD PTR _pDX$[ebp]
  0000f	50		 push	 eax
  00010	8b 4d fc	 mov	 ecx, DWORD PTR _this$[ebp]
  00013	e8 00 00 00 00	 call	 ?DoDataExchange@CWnd@@MAEXPAVCDataExchange@@@Z ; CWnd::DoDataExchange

; 49   : 	DDX_Control(pDX, IDC_TRACE_MESSAGE, m_TraceServiceControl);

  00018	8b 45 fc	 mov	 eax, DWORD PTR _this$[ebp]
  0001b	05 40 0b 03 00	 add	 eax, 199488		; 00030b40H
  00020	50		 push	 eax
  00021	68 ec 03 00 00	 push	 1004			; 000003ecH
  00026	8b 4d 08	 mov	 ecx, DWORD PTR _pDX$[ebp]
  00029	51		 push	 ecx
  0002a	e8 00 00 00 00	 call	 ?DDX_Control@@YGXPAVCDataExchange@@HAAVCWnd@@@Z ; DDX_Control

; 50   : }

  0002f	5f		 pop	 edi
  00030	5e		 pop	 esi
  00031	5b		 pop	 ebx
  00032	8b e5		 mov	 esp, ebp
  00034	5d		 pop	 ebp
  00035	c2 04 00	 ret	 4
?DoDataExchange@CGameServerDlg@@MAEXPAVCDataExchange@@@Z ENDP ; CGameServerDlg::DoDataExchange
_TEXT	ENDS
; Function compile flags: /Odtp /ZI
; File g:\网狐\happygamewh\服务端\系统模块\服务器组件\游戏服务器\gameserverdlg.cpp
;	COMDAT ??1CGameServerDlg@@UAE@XZ
_TEXT	SEGMENT
_this$ = -4						; size = 4
??1CGameServerDlg@@UAE@XZ PROC				; CGameServerDlg::~CGameServerDlg, COMDAT
; _this$ = ecx

; 42   : {

  00000	55		 push	 ebp
  00001	8b ec		 mov	 ebp, esp
  00003	83 ec 44	 sub	 esp, 68			; 00000044H
  00006	53		 push	 ebx
  00007	56		 push	 esi
  00008	57		 push	 edi
  00009	89 4d fc	 mov	 DWORD PTR _this$[ebp], ecx
  0000c	8b 45 fc	 mov	 eax, DWORD PTR _this$[ebp]
  0000f	c7 00 00 00 00
	00		 mov	 DWORD PTR [eax], OFFSET ??_7CGameServerDlg@@6BCDialog@@@
  00015	8b 45 fc	 mov	 eax, DWORD PTR _this$[ebp]
  00018	c7 80 a8 00 00
	00 00 00 00 00	 mov	 DWORD PTR [eax+168], OFFSET ??_7CGameServerDlg@@6BIServiceUnitsSink@@@

; 43   : }

  00022	8b 4d fc	 mov	 ecx, DWORD PTR _this$[ebp]
  00025	81 c1 10 4c 03
	00		 add	 ecx, 216080		; 00034c10H
  0002b	ff 15 00 00 00
	00		 call	 DWORD PTR __imp_??1CModuleDBParameter@@UAE@XZ
  00031	8b 4d fc	 mov	 ecx, DWORD PTR _this$[ebp]
  00034	81 c1 40 0b 03
	00		 add	 ecx, 199488		; 00030b40H
  0003a	ff 15 00 00 00
	00		 call	 DWORD PTR __imp_??1CTraceServiceControl@@UAE@XZ
  00040	8b 4d fc	 mov	 ecx, DWORD PTR _this$[ebp]
  00043	81 c1 b0 00 00
	00		 add	 ecx, 176		; 000000b0H
  00049	e8 00 00 00 00	 call	 ??1CServiceUnits@@UAE@XZ ; CServiceUnits::~CServiceUnits
  0004e	8b 4d fc	 mov	 ecx, DWORD PTR _this$[ebp]
  00051	e8 00 00 00 00	 call	 ??1CDialog@@UAE@XZ	; CDialog::~CDialog
  00056	5f		 pop	 edi
  00057	5e		 pop	 esi
  00058	5b		 pop	 ebx
  00059	8b e5		 mov	 esp, ebp
  0005b	5d		 pop	 ebp
  0005c	c3		 ret	 0
??1CGameServerDlg@@UAE@XZ ENDP				; CGameServerDlg::~CGameServerDlg
_TEXT	ENDS
; Function compile flags: /Odtp /ZI
; File g:\网狐\happygamewh\服务端\系统模块\服务器组件\游戏服务器\gameserverdlg.cpp
;	COMDAT ??0CGameServerDlg@@QAE@XZ
_TEXT	SEGMENT
_this$ = -16						; size = 4
__$EHRec$ = -12						; size = 12
??0CGameServerDlg@@QAE@XZ PROC				; CGameServerDlg::CGameServerDlg, COMDAT
; _this$ = ecx

; 31   : {

  00000	55		 push	 ebp
  00001	8b ec		 mov	 ebp, esp
  00003	6a ff		 push	 -1
  00005	68 00 00 00 00	 push	 __ehhandler$??0CGameServerDlg@@QAE@XZ
  0000a	64 a1 00 00 00
	00		 mov	 eax, DWORD PTR fs:0
  00010	50		 push	 eax
  00011	83 ec 44	 sub	 esp, 68			; 00000044H
  00014	53		 push	 ebx
  00015	56		 push	 esi
  00016	57		 push	 edi
  00017	a1 00 00 00 00	 mov	 eax, DWORD PTR ___security_cookie
  0001c	33 c5		 xor	 eax, ebp
  0001e	50		 push	 eax
  0001f	8d 45 f4	 lea	 eax, DWORD PTR __$EHRec$[ebp]
  00022	64 a3 00 00 00
	00		 mov	 DWORD PTR fs:0, eax
  00028	89 4d f0	 mov	 DWORD PTR _this$[ebp], ecx

; 30   : CGameServerDlg::CGameServerDlg() : CDialog(IDD_DLG_GAME_SERVER)

  0002b	6a 00		 push	 0
  0002d	6a 67		 push	 103			; 00000067H
  0002f	8b 4d f0	 mov	 ecx, DWORD PTR _this$[ebp]
  00032	e8 00 00 00 00	 call	 ??0CDialog@@QAE@IPAVCWnd@@@Z ; CDialog::CDialog
  00037	c7 45 fc 00 00
	00 00		 mov	 DWORD PTR __$EHRec$[ebp+8], 0

; 31   : {

  0003e	8b 4d f0	 mov	 ecx, DWORD PTR _this$[ebp]
  00041	81 c1 a8 00 00
	00		 add	 ecx, 168		; 000000a8H
  00047	e8 00 00 00 00	 call	 ??0IServiceUnitsSink@@QAE@XZ
  0004c	8b 45 f0	 mov	 eax, DWORD PTR _this$[ebp]
  0004f	c7 00 00 00 00
	00		 mov	 DWORD PTR [eax], OFFSET ??_7CGameServerDlg@@6BCDialog@@@
  00055	8b 45 f0	 mov	 eax, DWORD PTR _this$[ebp]
  00058	c7 80 a8 00 00
	00 00 00 00 00	 mov	 DWORD PTR [eax+168], OFFSET ??_7CGameServerDlg@@6BIServiceUnitsSink@@@
  00062	8b 4d f0	 mov	 ecx, DWORD PTR _this$[ebp]
  00065	81 c1 b0 00 00
	00		 add	 ecx, 176		; 000000b0H
  0006b	e8 00 00 00 00	 call	 ??0CServiceUnits@@QAE@XZ ; CServiceUnits::CServiceUnits
  00070	c6 45 fc 01	 mov	 BYTE PTR __$EHRec$[ebp+8], 1
  00074	8b 4d f0	 mov	 ecx, DWORD PTR _this$[ebp]
  00077	81 c1 40 0b 03
	00		 add	 ecx, 199488		; 00030b40H
  0007d	ff 15 00 00 00
	00		 call	 DWORD PTR __imp_??0CTraceServiceControl@@QAE@XZ
  00083	c6 45 fc 02	 mov	 BYTE PTR __$EHRec$[ebp+8], 2
  00087	8b 4d f0	 mov	 ecx, DWORD PTR _this$[ebp]
  0008a	81 c1 10 4c 03
	00		 add	 ecx, 216080		; 00034c10H
  00090	ff 15 00 00 00
	00		 call	 DWORD PTR __imp_??0CModuleDBParameter@@QAE@XZ
  00096	c6 45 fc 03	 mov	 BYTE PTR __$EHRec$[ebp+8], 3
  0009a	8b 4d f0	 mov	 ecx, DWORD PTR _this$[ebp]
  0009d	81 c1 20 4d 03
	00		 add	 ecx, 216352		; 00034d20H
  000a3	e8 00 00 00 00	 call	 ??0tagModuleInitParameter@@QAE@XZ

; 32   : 	//配置参数
; 33   : 	m_bAutoControl=false;

  000a8	8b 45 f0	 mov	 eax, DWORD PTR _this$[ebp]
  000ab	c6 80 18 4d 03
	00 00		 mov	 BYTE PTR [eax+216344], 0

; 34   : 	m_bOptionSuccess=false;

  000b2	8b 45 f0	 mov	 eax, DWORD PTR _this$[ebp]
  000b5	c6 80 19 4d 03
	00 00		 mov	 BYTE PTR [eax+216345], 0

; 35   : 	ZeroMemory(&m_ModuleInitParameter,sizeof(m_ModuleInitParameter));

  000bc	68 38 0d 00 00	 push	 3384			; 00000d38H
  000c1	6a 00		 push	 0
  000c3	8b 45 f0	 mov	 eax, DWORD PTR _this$[ebp]
  000c6	05 20 4d 03 00	 add	 eax, 216352		; 00034d20H
  000cb	50		 push	 eax
  000cc	e8 00 00 00 00	 call	 _memset
  000d1	83 c4 0c	 add	 esp, 12			; 0000000cH

; 36   : 
; 37   : 	return;
; 38   : }

  000d4	c7 45 fc ff ff
	ff ff		 mov	 DWORD PTR __$EHRec$[ebp+8], -1
  000db	8b 45 f0	 mov	 eax, DWORD PTR _this$[ebp]
  000de	8b 4d f4	 mov	 ecx, DWORD PTR __$EHRec$[ebp]
  000e1	64 89 0d 00 00
	00 00		 mov	 DWORD PTR fs:0, ecx
  000e8	59		 pop	 ecx
  000e9	5f		 pop	 edi
  000ea	5e		 pop	 esi
  000eb	5b		 pop	 ebx
  000ec	8b e5		 mov	 esp, ebp
  000ee	5d		 pop	 ebp
  000ef	c3		 ret	 0
_TEXT	ENDS
;	COMDAT text$x
text$x	SEGMENT
__unwindfunclet$??0CGameServerDlg@@QAE@XZ$0:
  00000	8b 4d f0	 mov	 ecx, DWORD PTR _this$[ebp]
  00003	e9 00 00 00 00	 jmp	 ??1CDialog@@UAE@XZ	; CDialog::~CDialog
__unwindfunclet$??0CGameServerDlg@@QAE@XZ$1:
  00008	8b 4d f0	 mov	 ecx, DWORD PTR _this$[ebp]
  0000b	81 c1 b0 00 00
	00		 add	 ecx, 176		; 000000b0H
  00011	e9 00 00 00 00	 jmp	 ??1CServiceUnits@@UAE@XZ ; CServiceUnits::~CServiceUnits
__unwindfunclet$??0CGameServerDlg@@QAE@XZ$2:
  00016	8b 4d f0	 mov	 ecx, DWORD PTR _this$[ebp]
  00019	81 c1 40 0b 03
	00		 add	 ecx, 199488		; 00030b40H
  0001f	ff 25 00 00 00
	00		 jmp	 DWORD PTR __imp_??1CTraceServiceControl@@UAE@XZ
__unwindfunclet$??0CGameServerDlg@@QAE@XZ$3:
  00025	8b 4d f0	 mov	 ecx, DWORD PTR _this$[ebp]
  00028	81 c1 10 4c 03
	00		 add	 ecx, 216080		; 00034c10H
  0002e	ff 25 00 00 00
	00		 jmp	 DWORD PTR __imp_??1CModuleDBParameter@@UAE@XZ
__ehhandler$??0CGameServerDlg@@QAE@XZ:
  00034	8b 54 24 08	 mov	 edx, DWORD PTR [esp+8]
  00038	8d 42 0c	 lea	 eax, DWORD PTR [edx+12]
  0003b	8b 4a ac	 mov	 ecx, DWORD PTR [edx-84]
  0003e	33 c8		 xor	 ecx, eax
  00040	e8 00 00 00 00	 call	 @__security_check_cookie@4
  00045	b8 00 00 00 00	 mov	 eax, OFFSET __ehfuncinfo$??0CGameServerDlg@@QAE@XZ
  0004a	e9 00 00 00 00	 jmp	 ___CxxFrameHandler3
text$x	ENDS
??0CGameServerDlg@@QAE@XZ ENDP				; CGameServerDlg::CGameServerDlg
; Function compile flags: /Odtp /ZI
; File g:\网狐\happygamewh\服务端\系统模块\服务器组件\游戏服务器\serviceunits.h
;	COMDAT ?GetServiceStatus@CServiceUnits@@QAE?AW4enServiceStatus@@XZ
_TEXT	SEGMENT
_this$ = -4						; size = 4
?GetServiceStatus@CServiceUnits@@QAE?AW4enServiceStatus@@XZ PROC ; CServiceUnits::GetServiceStatus, COMDAT
; _this$ = ecx

; 113  : 	enServiceStatus GetServiceStatus() { return m_ServiceStatus; }

  00000	55		 push	 ebp
  00001	8b ec		 mov	 ebp, esp
  00003	83 ec 44	 sub	 esp, 68			; 00000044H
  00006	53		 push	 ebx
  00007	56		 push	 esi
  00008	57		 push	 edi
  00009	89 4d fc	 mov	 DWORD PTR _this$[ebp], ecx
  0000c	8b 45 fc	 mov	 eax, DWORD PTR _this$[ebp]
  0000f	8b 80 1c 02 00
	00		 mov	 eax, DWORD PTR [eax+540]
  00015	5f		 pop	 edi
  00016	5e		 pop	 esi
  00017	5b		 pop	 ebx
  00018	8b e5		 mov	 esp, ebp
  0001a	5d		 pop	 ebp
  0001b	c3		 ret	 0
?GetServiceStatus@CServiceUnits@@QAE?AW4enServiceStatus@@XZ ENDP ; CServiceUnits::GetServiceStatus
_TEXT	ENDS
; Function compile flags: /Odtp /ZI
;	COMDAT ??0IServiceUnitsSink@@QAE@XZ
_TEXT	SEGMENT
_this$ = -4						; size = 4
??0IServiceUnitsSink@@QAE@XZ PROC			; IServiceUnitsSink::IServiceUnitsSink, COMDAT
; _this$ = ecx
  00000	55		 push	 ebp
  00001	8b ec		 mov	 ebp, esp
  00003	83 ec 44	 sub	 esp, 68			; 00000044H
  00006	53		 push	 ebx
  00007	56		 push	 esi
  00008	57		 push	 edi
  00009	89 4d fc	 mov	 DWORD PTR _this$[ebp], ecx
  0000c	8b 45 fc	 mov	 eax, DWORD PTR _this$[ebp]
  0000f	c7 00 00 00 00
	00		 mov	 DWORD PTR [eax], OFFSET ??_7IServiceUnitsSink@@6B@
  00015	8b 45 fc	 mov	 eax, DWORD PTR _this$[ebp]
  00018	5f		 pop	 edi
  00019	5e		 pop	 esi
  0001a	5b		 pop	 ebx
  0001b	8b e5		 mov	 esp, ebp
  0001d	5d		 pop	 ebp
  0001e	c3		 ret	 0
??0IServiceUnitsSink@@QAE@XZ ENDP			; IServiceUnitsSink::IServiceUnitsSink
_TEXT	ENDS
; Function compile flags: /Odtp /ZI
;	COMDAT ??0tagModuleInitParameter@@QAE@XZ
_TEXT	SEGMENT
_this$ = -4						; size = 4
??0tagModuleInitParameter@@QAE@XZ PROC			; tagModuleInitParameter::tagModuleInitParameter, COMDAT
; _this$ = ecx
  00000	55		 push	 ebp
  00001	8b ec		 mov	 ebp, esp
  00003	83 ec 44	 sub	 esp, 68			; 00000044H
  00006	53		 push	 ebx
  00007	56		 push	 esi
  00008	57		 push	 edi
  00009	89 4d fc	 mov	 DWORD PTR _this$[ebp], ecx
  0000c	8b 4d fc	 mov	 ecx, DWORD PTR _this$[ebp]
  0000f	81 c1 c1 0c 00
	00		 add	 ecx, 3265		; 00000cc1H
  00015	e8 00 00 00 00	 call	 ??0tagPersonalRoomOptionRightAndFee@@QAE@XZ
  0001a	8b 45 fc	 mov	 eax, DWORD PTR _this$[ebp]
  0001d	5f		 pop	 edi
  0001e	5e		 pop	 esi
  0001f	5b		 pop	 ebx
  00020	8b e5		 mov	 esp, ebp
  00022	5d		 pop	 ebp
  00023	c3		 ret	 0
??0tagModuleInitParameter@@QAE@XZ ENDP			; tagModuleInitParameter::tagModuleInitParameter
_TEXT	ENDS
; Function compile flags: /Odtp /ZI
;	COMDAT ??_GCGameServiceManagerHelper@@UAEPAXI@Z
_TEXT	SEGMENT
_this$ = -4						; size = 4
___flags$ = 8						; size = 4
??_GCGameServiceManagerHelper@@UAEPAXI@Z PROC		; CGameServiceManagerHelper::`scalar deleting destructor', COMDAT
; _this$ = ecx
  00000	55		 push	 ebp
  00001	8b ec		 mov	 ebp, esp
  00003	83 ec 44	 sub	 esp, 68			; 00000044H
  00006	53		 push	 ebx
  00007	56		 push	 esi
  00008	57		 push	 edi
  00009	89 4d fc	 mov	 DWORD PTR _this$[ebp], ecx
  0000c	8b 4d fc	 mov	 ecx, DWORD PTR _this$[ebp]
  0000f	e8 00 00 00 00	 call	 ??1CGameServiceManagerHelper@@UAE@XZ
  00014	8b 45 08	 mov	 eax, DWORD PTR ___flags$[ebp]
  00017	83 e0 01	 and	 eax, 1
  0001a	74 11		 je	 SHORT $LN2@scalar
  0001c	68 d8 01 00 00	 push	 472			; 000001d8H
  00021	8b 45 fc	 mov	 eax, DWORD PTR _this$[ebp]
  00024	50		 push	 eax
  00025	e8 00 00 00 00	 call	 ??3@YAXPAXI@Z		; operator delete
  0002a	83 c4 08	 add	 esp, 8
$LN2@scalar:
  0002d	8b 45 fc	 mov	 eax, DWORD PTR _this$[ebp]
  00030	5f		 pop	 edi
  00031	5e		 pop	 esi
  00032	5b		 pop	 ebx
  00033	8b e5		 mov	 esp, ebp
  00035	5d		 pop	 ebp
  00036	c2 04 00	 ret	 4
??_GCGameServiceManagerHelper@@UAEPAXI@Z ENDP		; CGameServiceManagerHelper::`scalar deleting destructor'
_TEXT	ENDS
; Function compile flags: /Odtp /ZI
;	COMDAT ??1CGameServiceManagerHelper@@UAE@XZ
_TEXT	SEGMENT
_this$ = -4						; size = 4
??1CGameServiceManagerHelper@@UAE@XZ PROC		; CGameServiceManagerHelper::~CGameServiceManagerHelper, COMDAT
; _this$ = ecx
  00000	55		 push	 ebp
  00001	8b ec		 mov	 ebp, esp
  00003	83 ec 44	 sub	 esp, 68			; 00000044H
  00006	53		 push	 ebx
  00007	56		 push	 esi
  00008	57		 push	 edi
  00009	89 4d fc	 mov	 DWORD PTR _this$[ebp], ecx
  0000c	8b 4d fc	 mov	 ecx, DWORD PTR _this$[ebp]
  0000f	e8 00 00 00 00	 call	 ??1?$CTempldateHelper@UIGameServiceManager@@@@UAE@XZ ; CTempldateHelper<IGameServiceManager>::~CTempldateHelper<IGameServiceManager>
  00014	5f		 pop	 edi
  00015	5e		 pop	 esi
  00016	5b		 pop	 ebx
  00017	8b e5		 mov	 esp, ebp
  00019	5d		 pop	 ebp
  0001a	c3		 ret	 0
??1CGameServiceManagerHelper@@UAE@XZ ENDP		; CGameServiceManagerHelper::~CGameServiceManagerHelper
_TEXT	ENDS
; Function compile flags: /Odtp /ZI
; File g:\网狐\happygamewh\服务端\系统模块\服务器组件\游戏服务\gameservicehead.h
;	COMDAT ??0CGameServiceManagerHelper@@QAE@XZ
_TEXT	SEGMENT
_this$ = -4						; size = 4
??0CGameServiceManagerHelper@@QAE@XZ PROC		; CGameServiceManagerHelper::CGameServiceManagerHelper, COMDAT
; _this$ = ecx

; 1702 : DECLARE_MODULE_DYNAMIC(GameServiceManager)

  00000	55		 push	 ebp
  00001	8b ec		 mov	 ebp, esp
  00003	83 ec 44	 sub	 esp, 68			; 00000044H
  00006	53		 push	 ebx
  00007	56		 push	 esi
  00008	57		 push	 edi
  00009	89 4d fc	 mov	 DWORD PTR _this$[ebp], ecx
  0000c	68 00 01 01 06	 push	 100729088		; 06010100H
  00011	68 00 00 00 00	 push	 OFFSET ?IID_IGameServiceManager@@3U_GUID@@B
  00016	8b 4d fc	 mov	 ecx, DWORD PTR _this$[ebp]
  00019	e8 00 00 00 00	 call	 ??0?$CTempldateHelper@UIGameServiceManager@@@@QAE@ABU_GUID@@K@Z ; CTempldateHelper<IGameServiceManager>::CTempldateHelper<IGameServiceManager>
  0001e	8b 45 fc	 mov	 eax, DWORD PTR _this$[ebp]
  00021	c7 00 00 00 00
	00		 mov	 DWORD PTR [eax], OFFSET ??_7CGameServiceManagerHelper@@6B@
  00027	8b 45 fc	 mov	 eax, DWORD PTR _this$[ebp]
  0002a	5f		 pop	 edi
  0002b	5e		 pop	 esi
  0002c	5b		 pop	 ebx
  0002d	8b e5		 mov	 esp, ebp
  0002f	5d		 pop	 ebp
  00030	c3		 ret	 0
??0CGameServiceManagerHelper@@QAE@XZ ENDP		; CGameServiceManagerHelper::CGameServiceManagerHelper
_TEXT	ENDS
; Function compile flags: /Odtp /ZI
;	COMDAT ??_G?$CTempldateHelper@UIGameServiceManager@@@@UAEPAXI@Z
_TEXT	SEGMENT
_this$ = -4						; size = 4
___flags$ = 8						; size = 4
??_G?$CTempldateHelper@UIGameServiceManager@@@@UAEPAXI@Z PROC ; CTempldateHelper<IGameServiceManager>::`scalar deleting destructor', COMDAT
; _this$ = ecx
  00000	55		 push	 ebp
  00001	8b ec		 mov	 ebp, esp
  00003	83 ec 44	 sub	 esp, 68			; 00000044H
  00006	53		 push	 ebx
  00007	56		 push	 esi
  00008	57		 push	 edi
  00009	89 4d fc	 mov	 DWORD PTR _this$[ebp], ecx
  0000c	8b 4d fc	 mov	 ecx, DWORD PTR _this$[ebp]
  0000f	e8 00 00 00 00	 call	 ??1?$CTempldateHelper@UIGameServiceManager@@@@UAE@XZ ; CTempldateHelper<IGameServiceManager>::~CTempldateHelper<IGameServiceManager>
  00014	8b 45 08	 mov	 eax, DWORD PTR ___flags$[ebp]
  00017	83 e0 01	 and	 eax, 1
  0001a	74 11		 je	 SHORT $LN2@scalar
  0001c	68 d8 01 00 00	 push	 472			; 000001d8H
  00021	8b 45 fc	 mov	 eax, DWORD PTR _this$[ebp]
  00024	50		 push	 eax
  00025	e8 00 00 00 00	 call	 ??3@YAXPAXI@Z		; operator delete
  0002a	83 c4 08	 add	 esp, 8
$LN2@scalar:
  0002d	8b 45 fc	 mov	 eax, DWORD PTR _this$[ebp]
  00030	5f		 pop	 edi
  00031	5e		 pop	 esi
  00032	5b		 pop	 ebx
  00033	8b e5		 mov	 esp, ebp
  00035	5d		 pop	 ebp
  00036	c2 04 00	 ret	 4
??_G?$CTempldateHelper@UIGameServiceManager@@@@UAEPAXI@Z ENDP ; CTempldateHelper<IGameServiceManager>::`scalar deleting destructor'
_TEXT	ENDS
; Function compile flags: /Odtp /ZI
; File g:\网狐\happygamewh\服务端\系统模块\全局定义\module.h
;	COMDAT ?GetInterface@?$CTempldateHelper@UIGameServiceManager@@@@QBEPAUIGameServiceManager@@XZ
_TEXT	SEGMENT
_this$ = -4						; size = 4
?GetInterface@?$CTempldateHelper@UIGameServiceManager@@@@QBEPAUIGameServiceManager@@XZ PROC ; CTempldateHelper<IGameServiceManager>::GetInterface, COMDAT
; _this$ = ecx

; 316  : { 

  00000	55		 push	 ebp
  00001	8b ec		 mov	 ebp, esp
  00003	83 ec 44	 sub	 esp, 68			; 00000044H
  00006	53		 push	 ebx
  00007	56		 push	 esi
  00008	57		 push	 edi
  00009	89 4d fc	 mov	 DWORD PTR _this$[ebp], ecx

; 317  : 	return m_pIModeluInterface; 

  0000c	8b 45 fc	 mov	 eax, DWORD PTR _this$[ebp]
  0000f	8b 80 54 01 00
	00		 mov	 eax, DWORD PTR [eax+340]

; 318  : }

  00015	5f		 pop	 edi
  00016	5e		 pop	 esi
  00017	5b		 pop	 ebx
  00018	8b e5		 mov	 esp, ebp
  0001a	5d		 pop	 ebp
  0001b	c3		 ret	 0
?GetInterface@?$CTempldateHelper@UIGameServiceManager@@@@QBEPAUIGameServiceManager@@XZ ENDP ; CTempldateHelper<IGameServiceManager>::GetInterface
_TEXT	ENDS
; Function compile flags: /Odtp /ZI
; File g:\网狐\happygamewh\服务端\系统模块\全局定义\module.h
;	COMDAT ?SetModuleCreateInfo@?$CTempldateHelper@UIGameServiceManager@@@@QAEXPBD0@Z
_TEXT	SEGMENT
_this$ = -4						; size = 4
_pszModuleDllName$ = 8					; size = 4
_pszCreateProc$ = 12					; size = 4
?SetModuleCreateInfo@?$CTempldateHelper@UIGameServiceManager@@@@QAEXPBD0@Z PROC ; CTempldateHelper<IGameServiceManager>::SetModuleCreateInfo, COMDAT
; _this$ = ecx

; 288  : {

  00000	55		 push	 ebp
  00001	8b ec		 mov	 ebp, esp
  00003	83 ec 44	 sub	 esp, 68			; 00000044H
  00006	53		 push	 ebx
  00007	56		 push	 esi
  00008	57		 push	 edi
  00009	89 4d fc	 mov	 DWORD PTR _this$[ebp], ecx

; 289  : 	//设置信息
; 290  : 	lstrcpynA(m_szCreateProc,pszCreateProc,CountArray(m_szCreateProc));

  0000c	6a 40		 push	 64			; 00000040H
  0000e	8b 45 0c	 mov	 eax, DWORD PTR _pszCreateProc$[ebp]
  00011	50		 push	 eax
  00012	8b 4d fc	 mov	 ecx, DWORD PTR _this$[ebp]
  00015	83 c1 0c	 add	 ecx, 12			; 0000000cH
  00018	51		 push	 ecx
  00019	ff 15 00 00 00
	00		 call	 DWORD PTR __imp__lstrcpynA@12

; 291  : 	lstrcpyn(m_szModuleDllName,pszModuleDllName,CountArray(m_szModuleDllName));

  0001f	68 04 01 00 00	 push	 260			; 00000104H
  00024	8b 45 08	 mov	 eax, DWORD PTR _pszModuleDllName$[ebp]
  00027	50		 push	 eax
  00028	8b 4d fc	 mov	 ecx, DWORD PTR _this$[ebp]
  0002b	83 c1 4c	 add	 ecx, 76			; 0000004cH
  0002e	51		 push	 ecx
  0002f	ff 15 00 00 00
	00		 call	 DWORD PTR __imp__lstrcpynA@12

; 292  : 
; 293  : 	return;
; 294  : }

  00035	5f		 pop	 edi
  00036	5e		 pop	 esi
  00037	5b		 pop	 ebx
  00038	8b e5		 mov	 esp, ebp
  0003a	5d		 pop	 ebp
  0003b	c2 08 00	 ret	 8
?SetModuleCreateInfo@?$CTempldateHelper@UIGameServiceManager@@@@QAEXPBD0@Z ENDP ; CTempldateHelper<IGameServiceManager>::SetModuleCreateInfo
_TEXT	ENDS
; Function compile flags: /Odtp /ZI
; File g:\网狐\happygamewh\服务端\系统模块\全局定义\module.h
;	COMDAT ?CreateInstance@?$CTempldateHelper@UIGameServiceManager@@@@QAE_NXZ
_TEXT	SEGMENT
tv173 = -100						; size = 4
tv172 = -100						; size = 4
tv171 = -100						; size = 4
tv170 = -100						; size = 4
$T2 = -94						; size = 1
$T3 = -93						; size = 1
_pszError$4 = -28					; size = 4
_CreateProc$5 = -24					; size = 4
_this$ = -20						; size = 4
__$EHRec$ = -16						; size = 16
?CreateInstance@?$CTempldateHelper@UIGameServiceManager@@@@QAE_NXZ PROC ; CTempldateHelper<IGameServiceManager>::CreateInstance, COMDAT
; _this$ = ecx

; 212  : {

  00000	55		 push	 ebp
  00001	8b ec		 mov	 ebp, esp
  00003	6a ff		 push	 -1
  00005	68 00 00 00 00	 push	 __ehhandler$?CreateInstance@?$CTempldateHelper@UIGameServiceManager@@@@QAE_NXZ
  0000a	64 a1 00 00 00
	00		 mov	 eax, DWORD PTR fs:0
  00010	50		 push	 eax
  00011	51		 push	 ecx
  00012	83 ec 54	 sub	 esp, 84			; 00000054H
  00015	53		 push	 ebx
  00016	56		 push	 esi
  00017	57		 push	 edi
  00018	a1 00 00 00 00	 mov	 eax, DWORD PTR ___security_cookie
  0001d	33 c5		 xor	 eax, ebp
  0001f	50		 push	 eax
  00020	8d 45 f4	 lea	 eax, DWORD PTR __$EHRec$[ebp+4]
  00023	64 a3 00 00 00
	00		 mov	 DWORD PTR fs:0, eax
  00029	89 65 f0	 mov	 DWORD PTR __$EHRec$[ebp], esp
  0002c	89 4d ec	 mov	 DWORD PTR _this$[ebp], ecx

; 213  : 	//释放组件
; 214  : 	CloseInstance();

  0002f	8b 4d ec	 mov	 ecx, DWORD PTR _this$[ebp]
  00032	e8 00 00 00 00	 call	 ?CloseInstance@?$CTempldateHelper@UIGameServiceManager@@@@QAE_NXZ ; CTempldateHelper<IGameServiceManager>::CloseInstance

; 215  : 
; 216  : 	//创建组件
; 217  : 	try

  00037	c7 45 fc 00 00
	00 00		 mov	 DWORD PTR __$EHRec$[ebp+12], 0

; 218  : 	{
; 219  : 		//效验参数
; 220  : 		ASSERT(m_szCreateProc[0]!=0);

  0003e	b8 01 00 00 00	 mov	 eax, 1
  00043	6b c8 00	 imul	 ecx, eax, 0
  00046	8b 55 ec	 mov	 edx, DWORD PTR _this$[ebp]
  00049	0f be 44 0a 0c	 movsx	 eax, BYTE PTR [edx+ecx+12]
  0004e	85 c0		 test	 eax, eax
  00050	75 19		 jne	 SHORT $LN7@CreateInst
  00052	68 dc 00 00 00	 push	 220			; 000000dcH
  00057	68 00 00 00 00	 push	 OFFSET ??_C@_0DG@CDIFDKED@g?3?2?M?x?$LK?$PM?2happygamewh?2?$LH?$PO?N?q?$LG?K?2?O?$LF?M?$LD@
  0005c	e8 00 00 00 00	 call	 ?AfxAssertFailedLine@@YGHPBDH@Z ; AfxAssertFailedLine
  00061	89 45 9c	 mov	 DWORD PTR tv170[ebp], eax
  00064	83 7d 9c 00	 cmp	 DWORD PTR tv170[ebp], 0
  00068	74 01		 je	 SHORT $LN7@CreateInst
  0006a	cc		 int	 3
$LN7@CreateInst:

; 221  : 		ASSERT(m_szModuleDllName[0]!=0);

  0006b	b8 01 00 00 00	 mov	 eax, 1
  00070	6b c8 00	 imul	 ecx, eax, 0
  00073	8b 55 ec	 mov	 edx, DWORD PTR _this$[ebp]
  00076	0f be 44 0a 4c	 movsx	 eax, BYTE PTR [edx+ecx+76]
  0007b	85 c0		 test	 eax, eax
  0007d	75 19		 jne	 SHORT $LN8@CreateInst
  0007f	68 dd 00 00 00	 push	 221			; 000000ddH
  00084	68 00 00 00 00	 push	 OFFSET ??_C@_0DG@CDIFDKED@g?3?2?M?x?$LK?$PM?2happygamewh?2?$LH?$PO?N?q?$LG?K?2?O?$LF?M?$LD@
  00089	e8 00 00 00 00	 call	 ?AfxAssertFailedLine@@YGHPBDH@Z ; AfxAssertFailedLine
  0008e	89 45 9c	 mov	 DWORD PTR tv171[ebp], eax
  00091	83 7d 9c 00	 cmp	 DWORD PTR tv171[ebp], 0
  00095	74 01		 je	 SHORT $LN8@CreateInst
  00097	cc		 int	 3
$LN8@CreateInst:

; 222  : 
; 223  : 		//加载模块
; 224  : 		m_hDllInstance=AfxLoadLibrary(m_szModuleDllName);

  00098	8b 45 ec	 mov	 eax, DWORD PTR _this$[ebp]
  0009b	83 c0 4c	 add	 eax, 76			; 0000004cH
  0009e	50		 push	 eax
  0009f	e8 00 00 00 00	 call	 ?AfxLoadLibrary@@YGPAUHINSTANCE__@@PBD@Z ; AfxLoadLibrary
  000a4	89 45 9c	 mov	 DWORD PTR tv172[ebp], eax
  000a7	8b 4d ec	 mov	 ecx, DWORD PTR _this$[ebp]
  000aa	8b 55 9c	 mov	 edx, DWORD PTR tv172[ebp]
  000ad	89 91 50 01 00
	00		 mov	 DWORD PTR [ecx+336], edx

; 225  : 		if (m_hDllInstance==NULL) 

  000b3	8b 45 ec	 mov	 eax, DWORD PTR _this$[ebp]
  000b6	83 b8 50 01 00
	00 00		 cmp	 DWORD PTR [eax+336], 0
  000bd	75 2a		 jne	 SHORT $LN3@CreateInst

; 226  : 		{
; 227  : 			_sntprintf_s(m_szDescribe,CountArray(m_szDescribe),TEXT("“%s”模块加载失败"),m_szModuleDllName);

  000bf	8b 45 ec	 mov	 eax, DWORD PTR _this$[ebp]
  000c2	83 c0 4c	 add	 eax, 76			; 0000004cH
  000c5	50		 push	 eax
  000c6	68 00 00 00 00	 push	 OFFSET ??_C@_0BD@LMOFNGMO@?$KB?$LA?$CFs?$KB?$LB?D?$KD?$LP?i?$LM?S?T?X?J?$KH?$LA?$NM@
  000cb	68 80 00 00 00	 push	 128			; 00000080H
  000d0	8b 4d ec	 mov	 ecx, DWORD PTR _this$[ebp]
  000d3	81 c1 58 01 00
	00		 add	 ecx, 344		; 00000158H
  000d9	51		 push	 ecx
  000da	e8 00 00 00 00	 call	 ??$_snprintf_s@$0IA@@@YAHAAY0IA@DIPBDZZ ; _snprintf_s<128>
  000df	83 c4 10	 add	 esp, 16			; 00000010H

; 228  : 			return false;

  000e2	32 c0		 xor	 al, al
  000e4	e9 34 01 00 00	 jmp	 $LN1@CreateInst
$LN3@CreateInst:

; 229  : 		}
; 230  : 
; 231  : 		//寻找函数
; 232  : 		ModuleCreateProc * CreateProc=(ModuleCreateProc *)GetProcAddress(m_hDllInstance,m_szCreateProc);

  000e9	8b 45 ec	 mov	 eax, DWORD PTR _this$[ebp]
  000ec	83 c0 0c	 add	 eax, 12			; 0000000cH
  000ef	50		 push	 eax
  000f0	8b 4d ec	 mov	 ecx, DWORD PTR _this$[ebp]
  000f3	8b 91 50 01 00
	00		 mov	 edx, DWORD PTR [ecx+336]
  000f9	52		 push	 edx
  000fa	ff 15 00 00 00
	00		 call	 DWORD PTR __imp__GetProcAddress@8
  00100	89 45 e8	 mov	 DWORD PTR _CreateProc$5[ebp], eax

; 233  : 		if (CreateProc==NULL) 

  00103	83 7d e8 00	 cmp	 DWORD PTR _CreateProc$5[ebp], 0
  00107	75 31		 jne	 SHORT $LN4@CreateInst

; 234  : 		{		
; 235  : 			_sntprintf_s(m_szDescribe, CountArray(m_szDescribe), TEXT("找不到组件创建函数“%s”:%d"), m_szCreateProc, GetLastError());

  00109	ff 15 00 00 00
	00		 call	 DWORD PTR __imp__GetLastError@0
  0010f	50		 push	 eax
  00110	8b 45 ec	 mov	 eax, DWORD PTR _this$[ebp]
  00113	83 c0 0c	 add	 eax, 12			; 0000000cH
  00116	50		 push	 eax
  00117	68 00 00 00 00	 push	 OFFSET ??_C@_0BM@PEGNCJOH@?U?R?$LC?$LL?$LF?$LN?W?i?$LM?$PO?$LE?$LE?$LN?$KI?$LK?$KP?J?$PN?$KB?$LA?$CFs?$KB?$LB?3?$CFd@
  0011c	68 80 00 00 00	 push	 128			; 00000080H
  00121	8b 4d ec	 mov	 ecx, DWORD PTR _this$[ebp]
  00124	81 c1 58 01 00
	00		 add	 ecx, 344		; 00000158H
  0012a	51		 push	 ecx
  0012b	e8 00 00 00 00	 call	 ??$_snprintf_s@$0IA@@@YAHAAY0IA@DIPBDZZ ; _snprintf_s<128>
  00130	83 c4 14	 add	 esp, 20			; 00000014H

; 236  : 			return false;

  00133	32 c0		 xor	 al, al
  00135	e9 e3 00 00 00	 jmp	 $LN1@CreateInst
$LN4@CreateInst:

; 237  : 		}
; 238  : 
; 239  : 		//创建组件
; 240  : 		m_pIModeluInterface=(IModeluInterface *)CreateProc(m_Guid,m_dwVersion);

  0013a	8b 45 ec	 mov	 eax, DWORD PTR _this$[ebp]
  0013d	8b 48 08	 mov	 ecx, DWORD PTR [eax+8]
  00140	51		 push	 ecx
  00141	8b 55 ec	 mov	 edx, DWORD PTR _this$[ebp]
  00144	8b 42 04	 mov	 eax, DWORD PTR [edx+4]
  00147	50		 push	 eax
  00148	ff 55 e8	 call	 DWORD PTR _CreateProc$5[ebp]
  0014b	83 c4 08	 add	 esp, 8
  0014e	89 45 9c	 mov	 DWORD PTR tv173[ebp], eax
  00151	8b 4d ec	 mov	 ecx, DWORD PTR _this$[ebp]
  00154	8b 55 9c	 mov	 edx, DWORD PTR tv173[ebp]
  00157	89 91 54 01 00
	00		 mov	 DWORD PTR [ecx+340], edx

; 241  : 		if (m_pIModeluInterface==NULL) 

  0015d	8b 45 ec	 mov	 eax, DWORD PTR _this$[ebp]
  00160	83 b8 54 01 00
	00 00		 cmp	 DWORD PTR [eax+340], 0
  00167	75 2a		 jne	 SHORT $LN5@CreateInst

; 242  : 		{
; 243  : 			_sntprintf_s(m_szDescribe,CountArray(m_szDescribe),TEXT("调用函数“%s”生成对象失败"),m_szCreateProc);

  00169	8b 45 ec	 mov	 eax, DWORD PTR _this$[ebp]
  0016c	83 c0 0c	 add	 eax, 12			; 0000000cH
  0016f	50		 push	 eax
  00170	68 00 00 00 00	 push	 OFFSET ??_C@_0BL@PDAODLKM@?$LF?w?S?C?$LK?$KP?J?$PN?$KB?$LA?$CFs?$KB?$LB?I?z?$LD?I?$LG?T?O?s?J?$KH?$LA?$NM@
  00175	68 80 00 00 00	 push	 128			; 00000080H
  0017a	8b 4d ec	 mov	 ecx, DWORD PTR _this$[ebp]
  0017d	81 c1 58 01 00
	00		 add	 ecx, 344		; 00000158H
  00183	51		 push	 ecx
  00184	e8 00 00 00 00	 call	 ??$_snprintf_s@$0IA@@@YAHAAY0IA@DIPBDZZ ; _snprintf_s<128>
  00189	83 c4 10	 add	 esp, 16			; 00000010H

; 244  : 			return false;

  0018c	32 c0		 xor	 al, al
  0018e	e9 8a 00 00 00	 jmp	 $LN1@CreateInst
$LN5@CreateInst:

; 245  : 		}
; 246  : 	}

  00193	eb 63		 jmp	 SHORT $LN9@CreateInst
__catch$?CreateInstance@?$CTempldateHelper@UIGameServiceManager@@@@QAE_NXZ$0:

; 247  : 	catch (LPCTSTR pszError)
; 248  : 	{
; 249  : 		_sntprintf_s(m_szDescribe,CountArray(m_szDescribe),TEXT("由于“%s”，组件创建失败"),pszError);

  00195	8b 45 e4	 mov	 eax, DWORD PTR _pszError$4[ebp]
  00198	50		 push	 eax
  00199	68 00 00 00 00	 push	 OFFSET ??_C@_0BJ@JGPFHIJF@?S?I?S?Z?$KB?$LA?$CFs?$KB?$LB?$KD?$KM?W?i?$LM?$PO?$LE?$LE?$LN?$KI?J?$KH?$LA?$NM@
  0019e	68 80 00 00 00	 push	 128			; 00000080H
  001a3	8b 4d ec	 mov	 ecx, DWORD PTR _this$[ebp]
  001a6	81 c1 58 01 00
	00		 add	 ecx, 344		; 00000158H
  001ac	51		 push	 ecx
  001ad	e8 00 00 00 00	 call	 ??$_snprintf_s@$0IA@@@YAHAAY0IA@DIPBDZZ ; _snprintf_s<128>
  001b2	83 c4 10	 add	 esp, 16			; 00000010H

; 250  : 		return false;

  001b5	c6 45 a3 00	 mov	 BYTE PTR $T3[ebp], 0
  001b9	b8 00 00 00 00	 mov	 eax, $LN13@CreateInst
  001be	c3		 ret	 0

; 251  : 	}

  001bf	b8 00 00 00 00	 mov	 eax, $LN9@CreateInst
  001c4	c3		 ret	 0
__catch$?CreateInstance@?$CTempldateHelper@UIGameServiceManager@@@@QAE_NXZ$1:

; 252  : 	catch (...)	
; 253  : 	{ 
; 254  : 		_sntprintf_s(m_szDescribe,CountArray(m_szDescribe),TEXT("组件创建函数“%s”产生未知异常错误，组件创建失败"),m_szCreateProc);

  001c5	8b 45 ec	 mov	 eax, DWORD PTR _this$[ebp]
  001c8	83 c0 0c	 add	 eax, 12			; 0000000cH
  001cb	50		 push	 eax
  001cc	68 00 00 00 00	 push	 OFFSET ??_C@_0DB@JBNKENAJ@?W?i?$LM?$PO?$LE?$LE?$LN?$KI?$LK?$KP?J?$PN?$KB?$LA?$CFs?$KB?$LB?$LC?z?I?z?N?$LE?V?$KK?R?l?$LD?$KD?$LE@
  001d1	68 80 00 00 00	 push	 128			; 00000080H
  001d6	8b 4d ec	 mov	 ecx, DWORD PTR _this$[ebp]
  001d9	81 c1 58 01 00
	00		 add	 ecx, 344		; 00000158H
  001df	51		 push	 ecx
  001e0	e8 00 00 00 00	 call	 ??$_snprintf_s@$0IA@@@YAHAAY0IA@DIPBDZZ ; _snprintf_s<128>
  001e5	83 c4 10	 add	 esp, 16			; 00000010H

; 255  : 		return false;

  001e8	c6 45 a2 00	 mov	 BYTE PTR $T2[ebp], 0
  001ec	b8 00 00 00 00	 mov	 eax, $LN15@CreateInst
  001f1	c3		 ret	 0

; 256  : 	}

  001f2	b8 00 00 00 00	 mov	 eax, $LN9@CreateInst
  001f7	c3		 ret	 0
$LN9@CreateInst:
  001f8	c7 45 fc ff ff
	ff ff		 mov	 DWORD PTR __$EHRec$[ebp+12], -1
  001ff	eb 0c		 jmp	 SHORT $LN14@CreateInst
$LN15@CreateInst:
  00201	c7 45 fc ff ff
	ff ff		 mov	 DWORD PTR __$EHRec$[ebp+12], -1

; 255  : 		return false;

  00208	8a 45 a2	 mov	 al, BYTE PTR $T2[ebp]
  0020b	eb 10		 jmp	 SHORT $LN1@CreateInst
$LN14@CreateInst:
  0020d	eb 0c		 jmp	 SHORT $LN12@CreateInst
$LN13@CreateInst:
  0020f	c7 45 fc ff ff
	ff ff		 mov	 DWORD PTR __$EHRec$[ebp+12], -1

; 250  : 		return false;

  00216	8a 45 a3	 mov	 al, BYTE PTR $T3[ebp]
  00219	eb 02		 jmp	 SHORT $LN1@CreateInst
$LN12@CreateInst:

; 257  : 
; 258  : 	return true;

  0021b	b0 01		 mov	 al, 1
$LN1@CreateInst:

; 259  : }

  0021d	8b 4d f4	 mov	 ecx, DWORD PTR __$EHRec$[ebp+4]
  00220	64 89 0d 00 00
	00 00		 mov	 DWORD PTR fs:0, ecx
  00227	59		 pop	 ecx
  00228	5f		 pop	 edi
  00229	5e		 pop	 esi
  0022a	5b		 pop	 ebx
  0022b	8b e5		 mov	 esp, ebp
  0022d	5d		 pop	 ebp
  0022e	c3		 ret	 0
_TEXT	ENDS
;	COMDAT text$x
text$x	SEGMENT
__ehhandler$?CreateInstance@?$CTempldateHelper@UIGameServiceManager@@@@QAE_NXZ:
  00000	8b 54 24 08	 mov	 edx, DWORD PTR [esp+8]
  00004	8d 42 0c	 lea	 eax, DWORD PTR [edx+12]
  00007	8b 4a 98	 mov	 ecx, DWORD PTR [edx-104]
  0000a	33 c8		 xor	 ecx, eax
  0000c	e8 00 00 00 00	 call	 @__security_check_cookie@4
  00011	b8 00 00 00 00	 mov	 eax, OFFSET __ehfuncinfo$?CreateInstance@?$CTempldateHelper@UIGameServiceManager@@@@QAE_NXZ
  00016	e9 00 00 00 00	 jmp	 ___CxxFrameHandler3
text$x	ENDS
?CreateInstance@?$CTempldateHelper@UIGameServiceManager@@@@QAE_NXZ ENDP ; CTempldateHelper<IGameServiceManager>::CreateInstance
; Function compile flags: /Odtp /ZI
; File g:\网狐\happygamewh\服务端\系统模块\全局定义\module.h
;	COMDAT ?CloseInstance@?$CTempldateHelper@UIGameServiceManager@@@@QAE_NXZ
_TEXT	SEGMENT
_this$ = -4						; size = 4
?CloseInstance@?$CTempldateHelper@UIGameServiceManager@@@@QAE_NXZ PROC ; CTempldateHelper<IGameServiceManager>::CloseInstance, COMDAT
; _this$ = ecx

; 264  : {

  00000	55		 push	 ebp
  00001	8b ec		 mov	 ebp, esp
  00003	83 ec 44	 sub	 esp, 68			; 00000044H
  00006	53		 push	 ebx
  00007	56		 push	 esi
  00008	57		 push	 edi
  00009	89 4d fc	 mov	 DWORD PTR _this$[ebp], ecx

; 265  : 	//设置变量
; 266  : 	m_szDescribe[0]=0;

  0000c	b8 01 00 00 00	 mov	 eax, 1
  00011	6b c8 00	 imul	 ecx, eax, 0
  00014	8b 55 fc	 mov	 edx, DWORD PTR _this$[ebp]
  00017	c6 84 0a 58 01
	00 00 00	 mov	 BYTE PTR [edx+ecx+344], 0

; 267  : 
; 268  : 	//销毁对象
; 269  : 	if (m_pIModeluInterface!=NULL)

  0001f	8b 45 fc	 mov	 eax, DWORD PTR _this$[ebp]
  00022	83 b8 54 01 00
	00 00		 cmp	 DWORD PTR [eax+340], 0
  00029	74 25		 je	 SHORT $LN2@CloseInsta

; 270  : 	{
; 271  : 		m_pIModeluInterface->Release();

  0002b	8b 45 fc	 mov	 eax, DWORD PTR _this$[ebp]
  0002e	8b 88 54 01 00
	00		 mov	 ecx, DWORD PTR [eax+340]
  00034	8b 55 fc	 mov	 edx, DWORD PTR _this$[ebp]
  00037	8b 01		 mov	 eax, DWORD PTR [ecx]
  00039	8b 8a 54 01 00
	00		 mov	 ecx, DWORD PTR [edx+340]
  0003f	8b 10		 mov	 edx, DWORD PTR [eax]
  00041	ff d2		 call	 edx

; 272  : 		m_pIModeluInterface=NULL;

  00043	8b 45 fc	 mov	 eax, DWORD PTR _this$[ebp]
  00046	c7 80 54 01 00
	00 00 00 00 00	 mov	 DWORD PTR [eax+340], 0
$LN2@CloseInsta:

; 273  : 	}
; 274  : 
; 275  : 	//释放 DLL
; 276  : 	if (m_hDllInstance!=NULL)

  00050	8b 45 fc	 mov	 eax, DWORD PTR _this$[ebp]
  00053	83 b8 50 01 00
	00 00		 cmp	 DWORD PTR [eax+336], 0
  0005a	74 1c		 je	 SHORT $LN3@CloseInsta

; 277  : 	{
; 278  : 		AfxFreeLibrary(m_hDllInstance);

  0005c	8b 45 fc	 mov	 eax, DWORD PTR _this$[ebp]
  0005f	8b 88 50 01 00
	00		 mov	 ecx, DWORD PTR [eax+336]
  00065	51		 push	 ecx
  00066	e8 00 00 00 00	 call	 ?AfxFreeLibrary@@YGHPAUHINSTANCE__@@@Z ; AfxFreeLibrary

; 279  : 		m_hDllInstance=NULL;

  0006b	8b 45 fc	 mov	 eax, DWORD PTR _this$[ebp]
  0006e	c7 80 50 01 00
	00 00 00 00 00	 mov	 DWORD PTR [eax+336], 0
$LN3@CloseInsta:

; 280  : 	}
; 281  : 
; 282  : 	return true;

  00078	b0 01		 mov	 al, 1

; 283  : }

  0007a	5f		 pop	 edi
  0007b	5e		 pop	 esi
  0007c	5b		 pop	 ebx
  0007d	8b e5		 mov	 esp, ebp
  0007f	5d		 pop	 ebp
  00080	c3		 ret	 0
?CloseInstance@?$CTempldateHelper@UIGameServiceManager@@@@QAE_NXZ ENDP ; CTempldateHelper<IGameServiceManager>::CloseInstance
_TEXT	ENDS
; Function compile flags: /Odtp /ZI
; File g:\网狐\happygamewh\服务端\系统模块\全局定义\module.h
;	COMDAT ??1?$CTempldateHelper@UIGameServiceManager@@@@UAE@XZ
_TEXT	SEGMENT
_this$ = -16						; size = 4
__$EHRec$ = -12						; size = 12
??1?$CTempldateHelper@UIGameServiceManager@@@@UAE@XZ PROC ; CTempldateHelper<IGameServiceManager>::~CTempldateHelper<IGameServiceManager>, COMDAT
; _this$ = ecx

; 205  : {

  00000	55		 push	 ebp
  00001	8b ec		 mov	 ebp, esp
  00003	6a ff		 push	 -1
  00005	68 00 00 00 00	 push	 __ehhandler$??1?$CTempldateHelper@UIGameServiceManager@@@@UAE@XZ
  0000a	64 a1 00 00 00
	00		 mov	 eax, DWORD PTR fs:0
  00010	50		 push	 eax
  00011	83 ec 44	 sub	 esp, 68			; 00000044H
  00014	53		 push	 ebx
  00015	56		 push	 esi
  00016	57		 push	 edi
  00017	a1 00 00 00 00	 mov	 eax, DWORD PTR ___security_cookie
  0001c	33 c5		 xor	 eax, ebp
  0001e	50		 push	 eax
  0001f	8d 45 f4	 lea	 eax, DWORD PTR __$EHRec$[ebp]
  00022	64 a3 00 00 00
	00		 mov	 DWORD PTR fs:0, eax
  00028	89 4d f0	 mov	 DWORD PTR _this$[ebp], ecx
  0002b	8b 45 f0	 mov	 eax, DWORD PTR _this$[ebp]
  0002e	c7 00 00 00 00
	00		 mov	 DWORD PTR [eax], OFFSET ??_7?$CTempldateHelper@UIGameServiceManager@@@@6B@

; 206  : 	CloseInstance();

  00034	8b 4d f0	 mov	 ecx, DWORD PTR _this$[ebp]
  00037	e8 00 00 00 00	 call	 ?CloseInstance@?$CTempldateHelper@UIGameServiceManager@@@@QAE_NXZ ; CTempldateHelper<IGameServiceManager>::CloseInstance

; 207  : }

  0003c	8b 4d f4	 mov	 ecx, DWORD PTR __$EHRec$[ebp]
  0003f	64 89 0d 00 00
	00 00		 mov	 DWORD PTR fs:0, ecx
  00046	59		 pop	 ecx
  00047	5f		 pop	 edi
  00048	5e		 pop	 esi
  00049	5b		 pop	 ebx
  0004a	8b e5		 mov	 esp, ebp
  0004c	5d		 pop	 ebp
  0004d	c3		 ret	 0
_TEXT	ENDS
;	COMDAT text$x
text$x	SEGMENT
__ehhandler$??1?$CTempldateHelper@UIGameServiceManager@@@@UAE@XZ:
  00000	8b 54 24 08	 mov	 edx, DWORD PTR [esp+8]
  00004	8d 42 0c	 lea	 eax, DWORD PTR [edx+12]
  00007	8b 4a ac	 mov	 ecx, DWORD PTR [edx-84]
  0000a	33 c8		 xor	 ecx, eax
  0000c	e8 00 00 00 00	 call	 @__security_check_cookie@4
  00011	b8 00 00 00 00	 mov	 eax, OFFSET __ehfuncinfo$??1?$CTempldateHelper@UIGameServiceManager@@@@UAE@XZ
  00016	e9 00 00 00 00	 jmp	 ___CxxFrameHandler3
text$x	ENDS
??1?$CTempldateHelper@UIGameServiceManager@@@@UAE@XZ ENDP ; CTempldateHelper<IGameServiceManager>::~CTempldateHelper<IGameServiceManager>
; Function compile flags: /Odtp /ZI
; File g:\网狐\happygamewh\服务端\系统模块\全局定义\module.h
;	COMDAT ??0?$CTempldateHelper@UIGameServiceManager@@@@QAE@ABU_GUID@@K@Z
_TEXT	SEGMENT
_this$ = -4						; size = 4
_Guid$ = 8						; size = 4
_dwVersion$ = 12					; size = 4
??0?$CTempldateHelper@UIGameServiceManager@@@@QAE@ABU_GUID@@K@Z PROC ; CTempldateHelper<IGameServiceManager>::CTempldateHelper<IGameServiceManager>, COMDAT
; _this$ = ecx

; 169  : {

  00000	55		 push	 ebp
  00001	8b ec		 mov	 ebp, esp
  00003	83 ec 44	 sub	 esp, 68			; 00000044H
  00006	53		 push	 ebx
  00007	56		 push	 esi
  00008	57		 push	 edi
  00009	89 4d fc	 mov	 DWORD PTR _this$[ebp], ecx
  0000c	8b 45 fc	 mov	 eax, DWORD PTR _this$[ebp]
  0000f	c7 00 00 00 00
	00		 mov	 DWORD PTR [eax], OFFSET ??_7?$CTempldateHelper@UIGameServiceManager@@@@6B@

; 168  : CTempldateHelper<IModeluInterface>::CTempldateHelper(REFGUID Guid, DWORD dwVersion) : m_dwVersion(dwVersion), m_Guid(Guid)

  00015	8b 45 fc	 mov	 eax, DWORD PTR _this$[ebp]
  00018	8b 4d 08	 mov	 ecx, DWORD PTR _Guid$[ebp]
  0001b	89 48 04	 mov	 DWORD PTR [eax+4], ecx
  0001e	8b 45 fc	 mov	 eax, DWORD PTR _this$[ebp]
  00021	8b 4d 0c	 mov	 ecx, DWORD PTR _dwVersion$[ebp]
  00024	89 48 08	 mov	 DWORD PTR [eax+8], ecx

; 170  : 	//辅助变量
; 171  : 	m_szDescribe[0]=0;

  00027	b8 01 00 00 00	 mov	 eax, 1
  0002c	6b c8 00	 imul	 ecx, eax, 0
  0002f	8b 55 fc	 mov	 edx, DWORD PTR _this$[ebp]
  00032	c6 84 0a 58 01
	00 00 00	 mov	 BYTE PTR [edx+ecx+344], 0

; 172  : 
; 173  : 	//内核信息
; 174  : 	m_hDllInstance=NULL;

  0003a	8b 45 fc	 mov	 eax, DWORD PTR _this$[ebp]
  0003d	c7 80 50 01 00
	00 00 00 00 00	 mov	 DWORD PTR [eax+336], 0

; 175  : 	m_pIModeluInterface=NULL;

  00047	8b 45 fc	 mov	 eax, DWORD PTR _this$[ebp]
  0004a	c7 80 54 01 00
	00 00 00 00 00	 mov	 DWORD PTR [eax+340], 0

; 176  : 
; 177  : 	//组件属性
; 178  : 	ZeroMemory(m_szCreateProc,sizeof(m_szCreateProc));

  00054	6a 40		 push	 64			; 00000040H
  00056	6a 00		 push	 0
  00058	8b 45 fc	 mov	 eax, DWORD PTR _this$[ebp]
  0005b	83 c0 0c	 add	 eax, 12			; 0000000cH
  0005e	50		 push	 eax
  0005f	e8 00 00 00 00	 call	 _memset
  00064	83 c4 0c	 add	 esp, 12			; 0000000cH

; 179  : 	ZeroMemory(m_szModuleDllName,sizeof(m_szModuleDllName));

  00067	68 04 01 00 00	 push	 260			; 00000104H
  0006c	6a 00		 push	 0
  0006e	8b 45 fc	 mov	 eax, DWORD PTR _this$[ebp]
  00071	83 c0 4c	 add	 eax, 76			; 0000004cH
  00074	50		 push	 eax
  00075	e8 00 00 00 00	 call	 _memset
  0007a	83 c4 0c	 add	 esp, 12			; 0000000cH

; 180  : 
; 181  : 	return;
; 182  : }

  0007d	8b 45 fc	 mov	 eax, DWORD PTR _this$[ebp]
  00080	5f		 pop	 edi
  00081	5e		 pop	 esi
  00082	5b		 pop	 ebx
  00083	8b e5		 mov	 esp, ebp
  00085	5d		 pop	 ebp
  00086	c2 08 00	 ret	 8
??0?$CTempldateHelper@UIGameServiceManager@@@@QAE@ABU_GUID@@K@Z ENDP ; CTempldateHelper<IGameServiceManager>::CTempldateHelper<IGameServiceManager>
_TEXT	ENDS
; Function compile flags: /Odtp /ZI
;	COMDAT ??0tagPersonalRoomOptionRightAndFee@@QAE@XZ
_TEXT	SEGMENT
_this$ = -4						; size = 4
??0tagPersonalRoomOptionRightAndFee@@QAE@XZ PROC	; tagPersonalRoomOptionRightAndFee::tagPersonalRoomOptionRightAndFee, COMDAT
; _this$ = ecx
  00000	55		 push	 ebp
  00001	8b ec		 mov	 ebp, esp
  00003	83 ec 44	 sub	 esp, 68			; 00000044H
  00006	53		 push	 ebx
  00007	56		 push	 esi
  00008	57		 push	 edi
  00009	89 4d fc	 mov	 DWORD PTR _this$[ebp], ecx
  0000c	68 00 00 00 00	 push	 OFFSET ??0CreateRoomPayFee@@QAE@XZ ; CreateRoomPayFee::CreateRoomPayFee
  00011	6a 05		 push	 5
  00013	6a 13		 push	 19			; 00000013H
  00015	8b 45 fc	 mov	 eax, DWORD PTR _this$[ebp]
  00018	83 c0 15	 add	 eax, 21			; 00000015H
  0001b	50		 push	 eax
  0001c	e8 00 00 00 00	 call	 ??_H@YGXPAXIIP6EPAX0@Z@Z
  00021	8b 45 fc	 mov	 eax, DWORD PTR _this$[ebp]
  00024	5f		 pop	 edi
  00025	5e		 pop	 esi
  00026	5b		 pop	 ebx
  00027	8b e5		 mov	 esp, ebp
  00029	5d		 pop	 ebp
  0002a	c3		 ret	 0
??0tagPersonalRoomOptionRightAndFee@@QAE@XZ ENDP	; tagPersonalRoomOptionRightAndFee::tagPersonalRoomOptionRightAndFee
_TEXT	ENDS
; Function compile flags: /Odtp /ZI
; File g:\网狐\happygamewh\服务端\系统模块\全局定义\struct.h
;	COMDAT ??0CreateRoomPayFee@@QAE@XZ
_TEXT	SEGMENT
_this$ = -4						; size = 4
??0CreateRoomPayFee@@QAE@XZ PROC			; CreateRoomPayFee::CreateRoomPayFee, COMDAT
; _this$ = ecx

; 1056 : 	CreateRoomPayFee()

  00000	55		 push	 ebp
  00001	8b ec		 mov	 ebp, esp
  00003	83 ec 44	 sub	 esp, 68			; 00000044H
  00006	53		 push	 ebx
  00007	56		 push	 esi
  00008	57		 push	 edi
  00009	89 4d fc	 mov	 DWORD PTR _this$[ebp], ecx

; 1057 : 	{
; 1058 : 		cbGameMode		= 0;

  0000c	8b 45 fc	 mov	 eax, DWORD PTR _this$[ebp]
  0000f	c6 00 00	 mov	 BYTE PTR [eax], 0

; 1059 : 		dwPlayTurnLimit = 0;

  00012	8b 45 fc	 mov	 eax, DWORD PTR _this$[ebp]
  00015	c7 40 01 00 00
	00 00		 mov	 DWORD PTR [eax+1], 0

; 1060 : 		dwPlayTimeLimit = 0;

  0001c	8b 45 fc	 mov	 eax, DWORD PTR _this$[ebp]
  0001f	c7 40 05 00 00
	00 00		 mov	 DWORD PTR [eax+5], 0

; 1061 : 		dwPayFee		= 0;

  00026	8b 45 fc	 mov	 eax, DWORD PTR _this$[ebp]
  00029	c7 40 09 00 00
	00 00		 mov	 DWORD PTR [eax+9], 0

; 1062 : 		wAAPayFee		= 0;

  00030	33 c0		 xor	 eax, eax
  00032	8b 4d fc	 mov	 ecx, DWORD PTR _this$[ebp]
  00035	66 89 41 0d	 mov	 WORD PTR [ecx+13], ax

; 1063 : 		dwIniScore		= 0;

  00039	8b 45 fc	 mov	 eax, DWORD PTR _this$[ebp]
  0003c	c7 40 0f 00 00
	00 00		 mov	 DWORD PTR [eax+15], 0

; 1064 : 	}

  00043	8b 45 fc	 mov	 eax, DWORD PTR _this$[ebp]
  00046	5f		 pop	 edi
  00047	5e		 pop	 esi
  00048	5b		 pop	 ebx
  00049	8b e5		 mov	 esp, ebp
  0004b	5d		 pop	 ebp
  0004c	c3		 ret	 0
??0CreateRoomPayFee@@QAE@XZ ENDP			; CreateRoomPayFee::CreateRoomPayFee
_TEXT	ENDS
; Function compile flags: /Odtp /ZI
; File c:\program files (x86)\microsoft visual studio\2017\community\vc\tools\msvc\14.16.27023\atlmfc\include\afx.h
;	COMDAT ?AfxAssertFailedLine@@YGHPBDH@Z
_TEXT	SEGMENT
_bResult$ = -36						; size = 4
_bQuit$ = -32						; size = 4
_msg$ = -28						; size = 28
_lpszFileName$ = 8					; size = 4
_nLine$ = 12						; size = 4
?AfxAssertFailedLine@@YGHPBDH@Z PROC			; AfxAssertFailedLine, COMDAT

; 312  : {

  00000	55		 push	 ebp
  00001	8b ec		 mov	 ebp, esp
  00003	83 ec 64	 sub	 esp, 100		; 00000064H
  00006	53		 push	 ebx
  00007	56		 push	 esi
  00008	57		 push	 edi

; 313  : 	// we remove WM_QUIT because if it is in the queue then the message box
; 314  : 	// won't display
; 315  : 	MSG msg;
; 316  : 	BOOL bQuit = PeekMessage(&msg, NULL, WM_QUIT, WM_QUIT, PM_REMOVE);

  00009	6a 01		 push	 1
  0000b	6a 12		 push	 18			; 00000012H
  0000d	6a 12		 push	 18			; 00000012H
  0000f	6a 00		 push	 0
  00011	8d 45 e4	 lea	 eax, DWORD PTR _msg$[ebp]
  00014	50		 push	 eax
  00015	ff 15 00 00 00
	00		 call	 DWORD PTR __imp__PeekMessageA@20
  0001b	89 45 e0	 mov	 DWORD PTR _bQuit$[ebp], eax

; 317  : 	BOOL bResult = _CrtDbgReport(_CRT_ASSERT, lpszFileName, nLine, NULL, NULL);

  0001e	6a 00		 push	 0
  00020	6a 00		 push	 0
  00022	8b 45 0c	 mov	 eax, DWORD PTR _nLine$[ebp]
  00025	50		 push	 eax
  00026	8b 4d 08	 mov	 ecx, DWORD PTR _lpszFileName$[ebp]
  00029	51		 push	 ecx
  0002a	6a 02		 push	 2
  0002c	ff 15 00 00 00
	00		 call	 DWORD PTR __imp___CrtDbgReport
  00032	83 c4 14	 add	 esp, 20			; 00000014H
  00035	89 45 dc	 mov	 DWORD PTR _bResult$[ebp], eax

; 318  : 	if (bQuit)

  00038	83 7d e0 00	 cmp	 DWORD PTR _bQuit$[ebp], 0
  0003c	74 0a		 je	 SHORT $LN2@AfxAssertF

; 319  : 		PostQuitMessage((int)msg.wParam);

  0003e	8b 45 ec	 mov	 eax, DWORD PTR _msg$[ebp+8]
  00041	50		 push	 eax
  00042	ff 15 00 00 00
	00		 call	 DWORD PTR __imp__PostQuitMessage@4
$LN2@AfxAssertF:

; 320  : 	return bResult;

  00048	8b 45 dc	 mov	 eax, DWORD PTR _bResult$[ebp]

; 321  : }

  0004b	5f		 pop	 edi
  0004c	5e		 pop	 esi
  0004d	5b		 pop	 ebx
  0004e	8b e5		 mov	 esp, ebp
  00050	5d		 pop	 ebp
  00051	c2 08 00	 ret	 8
?AfxAssertFailedLine@@YGHPBDH@Z ENDP			; AfxAssertFailedLine
_TEXT	ENDS
; Function compile flags: /Odtp /ZI
; File c:\program files (x86)\windows kits\10\include\10.0.17763.0\ucrt\stdio.h
;	COMDAT __vsnprintf_s
_TEXT	SEGMENT
__Buffer$ = 8						; size = 4
__BufferCount$ = 12					; size = 4
__MaxCount$ = 16					; size = 4
__Format$ = 20						; size = 4
__ArgList$ = 24						; size = 4
__vsnprintf_s PROC					; COMDAT

; 1605 :     {

  00000	55		 push	 ebp
  00001	8b ec		 mov	 ebp, esp
  00003	83 ec 40	 sub	 esp, 64			; 00000040H
  00006	53		 push	 ebx
  00007	56		 push	 esi
  00008	57		 push	 edi

; 1606 :         return _vsnprintf_s_l(_Buffer, _BufferCount, _MaxCount, _Format, NULL, _ArgList);

  00009	8b 45 18	 mov	 eax, DWORD PTR __ArgList$[ebp]
  0000c	50		 push	 eax
  0000d	6a 00		 push	 0
  0000f	8b 4d 14	 mov	 ecx, DWORD PTR __Format$[ebp]
  00012	51		 push	 ecx
  00013	8b 55 10	 mov	 edx, DWORD PTR __MaxCount$[ebp]
  00016	52		 push	 edx
  00017	8b 45 0c	 mov	 eax, DWORD PTR __BufferCount$[ebp]
  0001a	50		 push	 eax
  0001b	8b 4d 08	 mov	 ecx, DWORD PTR __Buffer$[ebp]
  0001e	51		 push	 ecx
  0001f	e8 00 00 00 00	 call	 __vsnprintf_s_l
  00024	83 c4 18	 add	 esp, 24			; 00000018H

; 1607 :     }

  00027	5f		 pop	 edi
  00028	5e		 pop	 esi
  00029	5b		 pop	 ebx
  0002a	8b e5		 mov	 esp, ebp
  0002c	5d		 pop	 ebp
  0002d	c3		 ret	 0
__vsnprintf_s ENDP
_TEXT	ENDS
; Function compile flags: /Odtp /ZI
; File c:\program files (x86)\windows kits\10\include\10.0.17763.0\ucrt\stdio.h
;	COMDAT __vsnprintf_s_l
_TEXT	SEGMENT
tv74 = -72						; size = 4
__Result$ = -4						; size = 4
__Buffer$ = 8						; size = 4
__BufferCount$ = 12					; size = 4
__MaxCount$ = 16					; size = 4
__Format$ = 20						; size = 4
__Locale$ = 24						; size = 4
__ArgList$ = 28						; size = 4
__vsnprintf_s_l PROC					; COMDAT

; 1584 :     {

  00000	55		 push	 ebp
  00001	8b ec		 mov	 ebp, esp
  00003	83 ec 48	 sub	 esp, 72			; 00000048H
  00006	53		 push	 ebx
  00007	56		 push	 esi
  00008	57		 push	 edi

; 1585 :         int const _Result = __stdio_common_vsnprintf_s(

  00009	8b 45 1c	 mov	 eax, DWORD PTR __ArgList$[ebp]
  0000c	50		 push	 eax
  0000d	8b 4d 18	 mov	 ecx, DWORD PTR __Locale$[ebp]
  00010	51		 push	 ecx
  00011	8b 55 14	 mov	 edx, DWORD PTR __Format$[ebp]
  00014	52		 push	 edx
  00015	8b 45 10	 mov	 eax, DWORD PTR __MaxCount$[ebp]
  00018	50		 push	 eax
  00019	8b 4d 0c	 mov	 ecx, DWORD PTR __BufferCount$[ebp]
  0001c	51		 push	 ecx
  0001d	8b 55 08	 mov	 edx, DWORD PTR __Buffer$[ebp]
  00020	52		 push	 edx
  00021	e8 00 00 00 00	 call	 ___local_stdio_printf_options
  00026	8b 48 04	 mov	 ecx, DWORD PTR [eax+4]
  00029	51		 push	 ecx
  0002a	8b 10		 mov	 edx, DWORD PTR [eax]
  0002c	52		 push	 edx
  0002d	ff 15 00 00 00
	00		 call	 DWORD PTR __imp____stdio_common_vsnprintf_s
  00033	83 c4 20	 add	 esp, 32			; 00000020H
  00036	89 45 fc	 mov	 DWORD PTR __Result$[ebp], eax

; 1586 :             _CRT_INTERNAL_LOCAL_PRINTF_OPTIONS,
; 1587 :             _Buffer, _BufferCount, _MaxCount, _Format, _Locale, _ArgList);
; 1588 : 
; 1589 :         return _Result < 0 ? -1 : _Result;

  00039	83 7d fc 00	 cmp	 DWORD PTR __Result$[ebp], 0
  0003d	7d 09		 jge	 SHORT $LN3@vsnprintf_
  0003f	c7 45 b8 ff ff
	ff ff		 mov	 DWORD PTR tv74[ebp], -1
  00046	eb 06		 jmp	 SHORT $LN4@vsnprintf_
$LN3@vsnprintf_:
  00048	8b 45 fc	 mov	 eax, DWORD PTR __Result$[ebp]
  0004b	89 45 b8	 mov	 DWORD PTR tv74[ebp], eax
$LN4@vsnprintf_:
  0004e	8b 45 b8	 mov	 eax, DWORD PTR tv74[ebp]

; 1590 :     }

  00051	5f		 pop	 edi
  00052	5e		 pop	 esi
  00053	5b		 pop	 ebx
  00054	8b e5		 mov	 esp, ebp
  00056	5d		 pop	 ebp
  00057	c3		 ret	 0
__vsnprintf_s_l ENDP
_TEXT	ENDS
; Function compile flags: /Odtp /ZI
; File c:\program files (x86)\windows kits\10\include\10.0.17763.0\ucrt\corecrt_stdio_config.h
;	COMDAT ___local_stdio_printf_options
_TEXT	SEGMENT
___local_stdio_printf_options PROC			; COMDAT

; 86   :     {

  00000	55		 push	 ebp
  00001	8b ec		 mov	 ebp, esp
  00003	83 ec 40	 sub	 esp, 64			; 00000040H
  00006	53		 push	 ebx
  00007	56		 push	 esi
  00008	57		 push	 edi

; 87   :         static unsigned __int64 _OptionsStorage;
; 88   :         return &_OptionsStorage;

  00009	b8 00 00 00 00	 mov	 eax, OFFSET ?_OptionsStorage@?1??__local_stdio_printf_options@@9@4_KA ; `__local_stdio_printf_options'::`2'::_OptionsStorage

; 89   :     }

  0000e	5f		 pop	 edi
  0000f	5e		 pop	 esi
  00010	5b		 pop	 ebx
  00011	8b e5		 mov	 esp, ebp
  00013	5d		 pop	 ebp
  00014	c3		 ret	 0
___local_stdio_printf_options ENDP
_TEXT	ENDS
; Function compile flags: /Odtp /ZI
; File g:\网狐\happygamewh\服务端\系统模块\服务器组件\游戏服务器\gameserverdlg.cpp
;	COMDAT ?__empty_global_delete@@YAXPAXI@Z
_TEXT	SEGMENT
___formal$ = 8						; size = 4
___formal$ = 12						; size = 4
?__empty_global_delete@@YAXPAXI@Z PROC			; __empty_global_delete, COMDAT

  00000	55		 push	 ebp
  00001	8b ec		 mov	 ebp, esp
  00003	83 ec 40	 sub	 esp, 64			; 00000040H
  00006	53		 push	 ebx
  00007	56		 push	 esi
  00008	57		 push	 edi
  00009	5f		 pop	 edi
  0000a	5e		 pop	 esi
  0000b	5b		 pop	 ebx
  0000c	8b e5		 mov	 esp, ebp
  0000e	5d		 pop	 ebp
  0000f	c3		 ret	 0
?__empty_global_delete@@YAXPAXI@Z ENDP			; __empty_global_delete
_TEXT	ENDS
; Function compile flags: /Odtp /ZI
; File g:\网狐\happygamewh\服务端\系统模块\服务器组件\游戏服务器\gameserverdlg.cpp
;	COMDAT ?__empty_global_delete@@YAXPAX@Z
_TEXT	SEGMENT
___formal$ = 8						; size = 4
?__empty_global_delete@@YAXPAX@Z PROC			; __empty_global_delete, COMDAT

  00000	55		 push	 ebp
  00001	8b ec		 mov	 ebp, esp
  00003	83 ec 40	 sub	 esp, 64			; 00000040H
  00006	53		 push	 ebx
  00007	56		 push	 esi
  00008	57		 push	 edi
  00009	5f		 pop	 edi
  0000a	5e		 pop	 esi
  0000b	5b		 pop	 ebx
  0000c	8b e5		 mov	 esp, ebp
  0000e	5d		 pop	 ebp
  0000f	c3		 ret	 0
?__empty_global_delete@@YAXPAX@Z ENDP			; __empty_global_delete
_TEXT	ENDS
; Function compile flags: /Odtp /ZI
;	COMDAT ??_H@YGXPAXIIP6EPAX0@Z@Z
_TEXT	SEGMENT
tv66 = -68						; size = 4
___t$ = 8						; size = 4
___s$ = 12						; size = 4
___n$ = 16						; size = 4
___f$ = 20						; size = 4
??_H@YGXPAXIIP6EPAX0@Z@Z PROC				; `vector constructor iterator', COMDAT
  00000	55		 push	 ebp
  00001	8b ec		 mov	 ebp, esp
  00003	83 ec 44	 sub	 esp, 68			; 00000044H
  00006	53		 push	 ebx
  00007	56		 push	 esi
  00008	57		 push	 edi
$LN2@vector:
  00009	8b 45 10	 mov	 eax, DWORD PTR ___n$[ebp]
  0000c	89 45 bc	 mov	 DWORD PTR tv66[ebp], eax
  0000f	8b 4d 10	 mov	 ecx, DWORD PTR ___n$[ebp]
  00012	83 e9 01	 sub	 ecx, 1
  00015	89 4d 10	 mov	 DWORD PTR ___n$[ebp], ecx
  00018	83 7d bc 00	 cmp	 DWORD PTR tv66[ebp], 0
  0001c	76 11		 jbe	 SHORT $LN1@vector
  0001e	8b 4d 08	 mov	 ecx, DWORD PTR ___t$[ebp]
  00021	ff 55 14	 call	 DWORD PTR ___f$[ebp]
  00024	8b 45 08	 mov	 eax, DWORD PTR ___t$[ebp]
  00027	03 45 0c	 add	 eax, DWORD PTR ___s$[ebp]
  0002a	89 45 08	 mov	 DWORD PTR ___t$[ebp], eax
  0002d	eb da		 jmp	 SHORT $LN2@vector
$LN1@vector:
  0002f	5f		 pop	 edi
  00030	5e		 pop	 esi
  00031	5b		 pop	 ebx
  00032	8b e5		 mov	 esp, ebp
  00034	5d		 pop	 ebp
  00035	c2 10 00	 ret	 16			; 00000010H
??_H@YGXPAXIIP6EPAX0@Z@Z ENDP				; `vector constructor iterator'
_TEXT	ENDS
END
