; Listing generated by Microsoft (R) Optimizing Compiler Version 19.16.27032.1 

	TITLE	G:\网狐\HappyGameWH\服务端\系统模块\服务器组件\游戏服务器\InitParameter.cpp
	.686P
	.XMM
	include listing.inc
	.model	flat

INCLUDELIB MSVCRTD
INCLUDELIB OLDNAMES

CONST	SEGMENT
?szPlatformDB@@3QBDB DB 'QPPlatformDB', 00H		; szPlatformDB
	ORG $+3
?szTreasureDB@@3QBDB DB 'QPTreasureDB', 00H		; szTreasureDB
CONST	ENDS
PUBLIC	?__empty_global_delete@@YAXPAX@Z		; __empty_global_delete
PUBLIC	?__empty_global_delete@@YAXPAXI@Z		; __empty_global_delete
PUBLIC	___local_stdio_printf_options
PUBLIC	__vswprintf_s_l
PUBLIC	_swprintf_s
PUBLIC	__vsnprintf_s_l
PUBLIC	__vsnprintf_s
PUBLIC	?AfxAssertFailedLine@@YGHPBDH@Z			; AfxAssertFailedLine
PUBLIC	??0?$CTraceCategoryEx@$0CAAA@$0A@@ATL@@QAE@PBD@Z ; ATL::CTraceCategoryEx<8192,0>::CTraceCategoryEx<8192,0>
PUBLIC	??0?$CTraceCategoryEx@$0CAAAA@$0A@@ATL@@QAE@PBD@Z ; ATL::CTraceCategoryEx<131072,0>::CTraceCategoryEx<131072,0>
PUBLIC	?RegisterCategory@CTrace@ATL@@SAXPBDI@Z		; ATL::CTrace::RegisterCategory
PUBLIC	??0CInitParameter@@QAE@XZ			; CInitParameter::CInitParameter
PUBLIC	??1CInitParameter@@UAE@XZ			; CInitParameter::~CInitParameter
PUBLIC	?InitParameter@CInitParameter@@QAEXXZ		; CInitParameter::InitParameter
PUBLIC	?LoadInitParameter@CInitParameter@@QAEXXZ	; CInitParameter::LoadInitParameter
PUBLIC	?SetServerParameter@CInitParameter@@QAEXPAUtagGameServiceAttrib@@PAUtagGameServiceOption@@@Z ; CInitParameter::SetServerParameter
PUBLIC	?ReadMobileParameter@CInitParameter@@QAEXXZ	; CInitParameter::ReadMobileParameter
PUBLIC	??_GCInitParameter@@UAEPAXI@Z			; CInitParameter::`scalar deleting destructor'
PUBLIC	??$_snprintf_s@$0BAE@@@YAHAAY0BAE@DIPBDZZ	; _snprintf_s<260>
PUBLIC	?_OptionsStorage@?1??__local_stdio_printf_options@@9@4_KA ; `__local_stdio_printf_options'::`2'::_OptionsStorage
PUBLIC	??_C@_17CNPHIMPH@?$AA?$CF?$AAl?$AAs@		; `string'
PUBLIC	?atlTraceException@ATL@@3V?$CTraceCategoryEx@$0CAAA@$0A@@1@A ; ATL::atlTraceException
PUBLIC	??_C@_0BC@PGMFNIFA@atlTraceException@		; `string'
PUBLIC	?atlTraceString@ATL@@3V?$CTraceCategoryEx@$0CAAAA@$0A@@1@A ; ATL::atlTraceString
PUBLIC	??_C@_0P@MBNHGHMI@atlTraceString@		; `string'
PUBLIC	?m_nLastCategory@CTrace@ATL@@1IA		; ATL::CTrace::m_nLastCategory
PUBLIC	?m_nMap@CTrace@ATL@@1PAUCategoryMap@12@A	; ATL::CTrace::m_nMap
PUBLIC	??_C@_17LGGGMOOB@?$AA?$CF?$AAh?$AAs@		; `string'
PUBLIC	??_C@_1EO@EBPPKGOM@?$AAf?$AAa?$AAl?$AAs?$AAe?$AA?5?$AA?$CG?$AA?$CG?$AA?5?$AA?$CC?$AAT?$AAo?$AAo?$AA?5?$AAm@ ; `string'
PUBLIC	??_C@_1OE@PDFAMNPL@?$AAc?$AA?3?$AA?2?$AAp?$AAr?$AAo?$AAg?$AAr?$AAa?$AAm?$AA?5?$AAf?$AAi?$AAl?$AAe@ ; `string'
PUBLIC	??_C@_00CNPNBAHC@@				; `string'
PUBLIC	??_7CInitParameter@@6B@				; CInitParameter::`vftable'
PUBLIC	??_C@_0BH@GFNFOOOG@?$CFs?2ServerParameter?4ini@	; `string'
PUBLIC	??_C@_0M@IOFGKGDC@ServiceName@			; `string'
PUBLIC	??_C@_0L@EJMBPMDM@ServerInfo@			; `string'
PUBLIC	??_C@_0M@DBIKHOMI@ServiceAddr@			; `string'
PUBLIC	??_C@_0M@PFPKDPLP@ServicePort@			; `string'
PUBLIC	??_C@_0L@EGGJEAIA@Correspond@			; `string'
PUBLIC	??_C@_0P@DFEDGGJF@CorrespondAddr@		; `string'
PUBLIC	??_C@_0BH@CBDBHJAC@PersonalRoomCorrespond@	; `string'
PUBLIC	??_C@_0BL@PIBNOFJN@PersonalRoomCorrespondAddr@	; `string'
PUBLIC	??_C@_06NHDHPCNO@DBPort@			; `string'
PUBLIC	??_C@_0L@BIEPDLBP@TreasureDB@			; `string'
PUBLIC	??_C@_09PFCHIMEP@127?40?40?41@			; `string'
PUBLIC	??_C@_06BDEHLDKJ@DBAddr@			; `string'
PUBLIC	??_C@_02CKOPKKAC@sa@				; `string'
PUBLIC	??_C@_06EKCLIHPK@DBUser@			; `string'
PUBLIC	??_C@_06PPNIIDOF@people@			; `string'
PUBLIC	??_C@_06HJGLHJBN@DBPass@			; `string'
PUBLIC	??_C@_06KMJLGLFD@DBName@			; `string'
PUBLIC	??_C@_0L@KKFJCNPO@PlatformDB@			; `string'
PUBLIC	?__LINE__Var@?0??ReadMobileParameter@CInitParameter@@QAEXXZ@4JA ; `CInitParameter::ReadMobileParameter'::`1'::__LINE__Var
PUBLIC	??_C@_0EM@MJJMOMAL@g?3?2?M?x?$LK?$PM?2happygamewh?2?$LH?$PO?N?q?$LG?K?2?O?$LF?M?$LD@ ; `string'
PUBLIC	??_C@_0BH@BMJGHNOL@?$CFs?2MobileParameter?4ini@	; `string'
PUBLIC	??_C@_0BP@LLKFDMEA@?N?$LE?U?R?$LF?$LNMobileParameter?4ini?N?D?$LM?$PO?$CB@ ; `string'
PUBLIC	??_C@_0BC@IGEEDJJG@VisibleTableCount@		; `string'
PUBLIC	??_C@_0BD@GBODAJDE@EverySendPageCount@		; `string'
PUBLIC	??_R4CInitParameter@@6B@			; CInitParameter::`RTTI Complete Object Locator'
PUBLIC	??_R0?AVCInitParameter@@@8			; CInitParameter `RTTI Type Descriptor'
PUBLIC	??_R3CInitParameter@@8				; CInitParameter::`RTTI Class Hierarchy Descriptor'
PUBLIC	??_R2CInitParameter@@8				; CInitParameter::`RTTI Base Class Array'
PUBLIC	??_R1A@?0A@EA@CInitParameter@@8			; CInitParameter::`RTTI Base Class Descriptor at (0,-1,0,64)'
EXTRN	??3@YAXPAXI@Z:PROC				; operator delete
EXTRN	_memset:PROC
EXTRN	__imp__wcscpy_s:PROC
EXTRN	__imp__PeekMessageA@20:PROC
EXTRN	__imp__PostQuitMessage@4:PROC
EXTRN	__imp____stdio_common_vswprintf_s:PROC
EXTRN	__imp____stdio_common_vsnprintf_s:PROC
EXTRN	__imp___CrtDbgReport:PROC
EXTRN	__imp___CrtDbgReportW:PROC
EXTRN	__imp_??B?$CSimpleStringT@D$00@ATL@@QBEPBDXZ:PROC
EXTRN	__imp_?GetLength@?$CSimpleStringT@D$00@ATL@@QBEHXZ:PROC
EXTRN	__imp_??0?$CStringT@DV?$StrTraitMFC_DLL@DV?$ChTraitsCRT@D@ATL@@@@@ATL@@QAE@PBD@Z:PROC
EXTRN	__imp_??1?$CStringT@DV?$StrTraitMFC_DLL@DV?$ChTraitsCRT@D@ATL@@@@@ATL@@QAE@XZ:PROC
EXTRN	__imp_??4?$CStringT@DV?$StrTraitMFC_DLL@DV?$ChTraitsCRT@D@ATL@@@@@ATL@@QAEAAV01@ABV01@@Z:PROC
EXTRN	__imp_?Left@?$CStringT@DV?$StrTraitMFC_DLL@DV?$ChTraitsCRT@D@ATL@@@@@ATL@@QBE?AV12@H@Z:PROC
EXTRN	__imp__PathFileExistsA@4:PROC
EXTRN	__imp_?GetWorkDirectory@CWHService@@SA_NQADG@Z:PROC
EXTRN	__imp_??0CWHIniData@@QAE@XZ:PROC
EXTRN	__imp_??1CWHIniData@@UAE@XZ:PROC
EXTRN	__imp_?SetIniFilePath@CWHIniData@@QAEXPBD@Z:PROC
EXTRN	__imp_?ReadInt@CWHIniData@@QAEIPBD0H@Z:PROC
EXTRN	__imp_?ReadEncryptString@CWHIniData@@QAEPBDPBD00PADG@Z:PROC
EXTRN	__imp_?TraceString@CTraceService@@SA_NPBDW4enTraceLevel@@@Z:PROC
EXTRN	??_ECInitParameter@@UAEPAXI@Z:PROC		; CInitParameter::`vector deleting destructor'
EXTRN	@__security_check_cookie@4:PROC
EXTRN	___CxxFrameHandler3:PROC
EXTRN	_memset:PROC
EXTRN	??_7type_info@@6B@:QWORD			; type_info::`vftable'
EXTRN	___security_cookie:DWORD
;	COMDAT ?_OptionsStorage@?1??__local_stdio_printf_options@@9@4_KA
_BSS	SEGMENT
?_OptionsStorage@?1??__local_stdio_printf_options@@9@4_KA DQ 01H DUP (?) ; `__local_stdio_printf_options'::`2'::_OptionsStorage
_BSS	ENDS
;	COMDAT ?atlTraceException@ATL@@3V?$CTraceCategoryEx@$0CAAA@$0A@@1@A
_BSS	SEGMENT
?atlTraceException@ATL@@3V?$CTraceCategoryEx@$0CAAA@$0A@@1@A DD 01H DUP (?) ; ATL::atlTraceException
_BSS	ENDS
;	COMDAT ?atlTraceString@ATL@@3V?$CTraceCategoryEx@$0CAAAA@$0A@@1@A
_BSS	SEGMENT
?atlTraceString@ATL@@3V?$CTraceCategoryEx@$0CAAAA@$0A@@1@A DD 01H DUP (?) ; ATL::atlTraceString
_BSS	ENDS
;	COMDAT ?m_nLastCategory@CTrace@ATL@@1IA
_BSS	SEGMENT
?m_nLastCategory@CTrace@ATL@@1IA DD 01H DUP (?)		; ATL::CTrace::m_nLastCategory
_BSS	ENDS
;	COMDAT ?m_nMap@CTrace@ATL@@1PAUCategoryMap@12@A
_BSS	SEGMENT
?m_nMap@CTrace@ATL@@1PAUCategoryMap@12@A DB 02080H DUP (?) ; ATL::CTrace::m_nMap
_BSS	ENDS
;	COMDAT CRT$XCU
CRT$XCU	SEGMENT
?atlTraceException$initializer$@ATL@@3P6AXXZA DD FLAT:??__EatlTraceException@ATL@@YAXXZ ; ATL::atlTraceException$initializer$
CRT$XCU	ENDS
;	COMDAT ??_R1A@?0A@EA@CInitParameter@@8
rdata$r	SEGMENT
??_R1A@?0A@EA@CInitParameter@@8 DD FLAT:??_R0?AVCInitParameter@@@8 ; CInitParameter::`RTTI Base Class Descriptor at (0,-1,0,64)'
	DD	00H
	DD	00H
	DD	0ffffffffH
	DD	00H
	DD	040H
	DD	FLAT:??_R3CInitParameter@@8
rdata$r	ENDS
;	COMDAT ??_R2CInitParameter@@8
rdata$r	SEGMENT
??_R2CInitParameter@@8 DD FLAT:??_R1A@?0A@EA@CInitParameter@@8 ; CInitParameter::`RTTI Base Class Array'
rdata$r	ENDS
;	COMDAT ??_R3CInitParameter@@8
rdata$r	SEGMENT
??_R3CInitParameter@@8 DD 00H				; CInitParameter::`RTTI Class Hierarchy Descriptor'
	DD	00H
	DD	01H
	DD	FLAT:??_R2CInitParameter@@8
rdata$r	ENDS
;	COMDAT ??_R0?AVCInitParameter@@@8
data$r	SEGMENT
??_R0?AVCInitParameter@@@8 DD FLAT:??_7type_info@@6B@	; CInitParameter `RTTI Type Descriptor'
	DD	00H
	DB	'.?AVCInitParameter@@', 00H
data$r	ENDS
;	COMDAT ??_R4CInitParameter@@6B@
rdata$r	SEGMENT
??_R4CInitParameter@@6B@ DD 00H				; CInitParameter::`RTTI Complete Object Locator'
	DD	00H
	DD	00H
	DD	FLAT:??_R0?AVCInitParameter@@@8
	DD	FLAT:??_R3CInitParameter@@8
rdata$r	ENDS
;	COMDAT ??_C@_0BD@GBODAJDE@EverySendPageCount@
CONST	SEGMENT
??_C@_0BD@GBODAJDE@EverySendPageCount@ DB 'EverySendPageCount', 00H ; `string'
CONST	ENDS
;	COMDAT ??_C@_0BC@IGEEDJJG@VisibleTableCount@
CONST	SEGMENT
??_C@_0BC@IGEEDJJG@VisibleTableCount@ DB 'VisibleTableCount', 00H ; `string'
CONST	ENDS
;	COMDAT ??_C@_0BP@LLKFDMEA@?N?$LE?U?R?$LF?$LNMobileParameter?4ini?N?D?$LM?$PO?$CB@
CONST	SEGMENT
??_C@_0BP@LLKFDMEA@?N?$LE?U?R?$LF?$LNMobileParameter?4ini?N?D?$LM?$PO?$CB@ DB 0ceH
	DB	0b4H, 0d5H, 0d2H, 0b5H, 0bdH, 'MobileParameter.ini', 0ceH, 0c4H
	DB	0bcH, 0feH, '!', 00H				; `string'
CONST	ENDS
;	COMDAT ??_C@_0BH@BMJGHNOL@?$CFs?2MobileParameter?4ini@
CONST	SEGMENT
??_C@_0BH@BMJGHNOL@?$CFs?2MobileParameter?4ini@ DB '%s\MobileParameter.in'
	DB	'i', 00H					; `string'
CONST	ENDS
;	COMDAT ??_C@_0EM@MJJMOMAL@g?3?2?M?x?$LK?$PM?2happygamewh?2?$LH?$PO?N?q?$LG?K?2?O?$LF?M?$LD@
CONST	SEGMENT
??_C@_0EM@MJJMOMAL@g?3?2?M?x?$LK?$PM?2happygamewh?2?$LH?$PO?N?q?$LG?K?2?O?$LF?M?$LD@ DB 'g'
	DB	':\', 0cdH, 0f8H, 0baH, 0fcH, '\happygamewh\', 0b7H, 0feH, 0ceH
	DB	0f1H, 0b6H, 0cbH, '\', 0cfH, 0b5H, 0cdH, 0b3H, 0c4H, 0a3H, 0bfH
	DB	0e9H, '\', 0b7H, 0feH, 0ceH, 0f1H, 0c6H, 0f7H, 0d7H, 0e9H, 0bcH
	DB	0feH, '\', 0d3H, 0ceH, 0cfH, 0b7H, 0b7H, 0feH, 0ceH, 0f1H, 0c6H
	DB	0f7H, '\initparameter.cpp', 00H		; `string'
CONST	ENDS
;	COMDAT ?__LINE__Var@?0??ReadMobileParameter@CInitParameter@@QAEXXZ@4JA
_DATA	SEGMENT
?__LINE__Var@?0??ReadMobileParameter@CInitParameter@@QAEXXZ@4JA DD 073H ; `CInitParameter::ReadMobileParameter'::`1'::__LINE__Var
_DATA	ENDS
;	COMDAT ??_C@_0L@KKFJCNPO@PlatformDB@
CONST	SEGMENT
??_C@_0L@KKFJCNPO@PlatformDB@ DB 'PlatformDB', 00H	; `string'
CONST	ENDS
;	COMDAT ??_C@_06KMJLGLFD@DBName@
CONST	SEGMENT
??_C@_06KMJLGLFD@DBName@ DB 'DBName', 00H		; `string'
CONST	ENDS
;	COMDAT ??_C@_06HJGLHJBN@DBPass@
CONST	SEGMENT
??_C@_06HJGLHJBN@DBPass@ DB 'DBPass', 00H		; `string'
CONST	ENDS
;	COMDAT ??_C@_06PPNIIDOF@people@
CONST	SEGMENT
??_C@_06PPNIIDOF@people@ DB 'people', 00H		; `string'
CONST	ENDS
;	COMDAT ??_C@_06EKCLIHPK@DBUser@
CONST	SEGMENT
??_C@_06EKCLIHPK@DBUser@ DB 'DBUser', 00H		; `string'
CONST	ENDS
;	COMDAT ??_C@_02CKOPKKAC@sa@
CONST	SEGMENT
??_C@_02CKOPKKAC@sa@ DB 'sa', 00H			; `string'
CONST	ENDS
;	COMDAT ??_C@_06BDEHLDKJ@DBAddr@
CONST	SEGMENT
??_C@_06BDEHLDKJ@DBAddr@ DB 'DBAddr', 00H		; `string'
CONST	ENDS
;	COMDAT ??_C@_09PFCHIMEP@127?40?40?41@
CONST	SEGMENT
??_C@_09PFCHIMEP@127?40?40?41@ DB '127.0.0.1', 00H	; `string'
CONST	ENDS
;	COMDAT ??_C@_0L@BIEPDLBP@TreasureDB@
CONST	SEGMENT
??_C@_0L@BIEPDLBP@TreasureDB@ DB 'TreasureDB', 00H	; `string'
CONST	ENDS
;	COMDAT ??_C@_06NHDHPCNO@DBPort@
CONST	SEGMENT
??_C@_06NHDHPCNO@DBPort@ DB 'DBPort', 00H		; `string'
CONST	ENDS
;	COMDAT ??_C@_0BL@PIBNOFJN@PersonalRoomCorrespondAddr@
CONST	SEGMENT
??_C@_0BL@PIBNOFJN@PersonalRoomCorrespondAddr@ DB 'PersonalRoomCorrespond'
	DB	'Addr', 00H					; `string'
CONST	ENDS
;	COMDAT ??_C@_0BH@CBDBHJAC@PersonalRoomCorrespond@
CONST	SEGMENT
??_C@_0BH@CBDBHJAC@PersonalRoomCorrespond@ DB 'PersonalRoomCorrespond', 00H ; `string'
CONST	ENDS
;	COMDAT ??_C@_0P@DFEDGGJF@CorrespondAddr@
CONST	SEGMENT
??_C@_0P@DFEDGGJF@CorrespondAddr@ DB 'CorrespondAddr', 00H ; `string'
CONST	ENDS
;	COMDAT ??_C@_0L@EGGJEAIA@Correspond@
CONST	SEGMENT
??_C@_0L@EGGJEAIA@Correspond@ DB 'Correspond', 00H	; `string'
CONST	ENDS
;	COMDAT ??_C@_0M@PFPKDPLP@ServicePort@
CONST	SEGMENT
??_C@_0M@PFPKDPLP@ServicePort@ DB 'ServicePort', 00H	; `string'
CONST	ENDS
;	COMDAT ??_C@_0M@DBIKHOMI@ServiceAddr@
CONST	SEGMENT
??_C@_0M@DBIKHOMI@ServiceAddr@ DB 'ServiceAddr', 00H	; `string'
CONST	ENDS
;	COMDAT ??_C@_0L@EJMBPMDM@ServerInfo@
CONST	SEGMENT
??_C@_0L@EJMBPMDM@ServerInfo@ DB 'ServerInfo', 00H	; `string'
CONST	ENDS
;	COMDAT ??_C@_0M@IOFGKGDC@ServiceName@
CONST	SEGMENT
??_C@_0M@IOFGKGDC@ServiceName@ DB 'ServiceName', 00H	; `string'
CONST	ENDS
;	COMDAT ??_C@_0BH@GFNFOOOG@?$CFs?2ServerParameter?4ini@
CONST	SEGMENT
??_C@_0BH@GFNFOOOG@?$CFs?2ServerParameter?4ini@ DB '%s\ServerParameter.in'
	DB	'i', 00H					; `string'
CONST	ENDS
;	COMDAT ??_7CInitParameter@@6B@
CONST	SEGMENT
??_7CInitParameter@@6B@ DD FLAT:??_R4CInitParameter@@6B@ ; CInitParameter::`vftable'
	DD	FLAT:??_ECInitParameter@@UAEPAXI@Z
CONST	ENDS
;	COMDAT ??_C@_00CNPNBAHC@@
CONST	SEGMENT
??_C@_00CNPNBAHC@@ DB 00H				; `string'
CONST	ENDS
;	COMDAT ??_C@_1OE@PDFAMNPL@?$AAc?$AA?3?$AA?2?$AAp?$AAr?$AAo?$AAg?$AAr?$AAa?$AAm?$AA?5?$AAf?$AAi?$AAl?$AAe@
CONST	SEGMENT
??_C@_1OE@PDFAMNPL@?$AAc?$AA?3?$AA?2?$AAp?$AAr?$AAo?$AAg?$AAr?$AAa?$AAm?$AA?5?$AAf?$AAi?$AAl?$AAe@ DB 'c'
	DB	00H, ':', 00H, '\', 00H, 'p', 00H, 'r', 00H, 'o', 00H, 'g', 00H
	DB	'r', 00H, 'a', 00H, 'm', 00H, ' ', 00H, 'f', 00H, 'i', 00H, 'l'
	DB	00H, 'e', 00H, 's', 00H, ' ', 00H, '(', 00H, 'x', 00H, '8', 00H
	DB	'6', 00H, ')', 00H, '\', 00H, 'm', 00H, 'i', 00H, 'c', 00H, 'r'
	DB	00H, 'o', 00H, 's', 00H, 'o', 00H, 'f', 00H, 't', 00H, ' ', 00H
	DB	'v', 00H, 'i', 00H, 's', 00H, 'u', 00H, 'a', 00H, 'l', 00H, ' '
	DB	00H, 's', 00H, 't', 00H, 'u', 00H, 'd', 00H, 'i', 00H, 'o', 00H
	DB	'\', 00H, '2', 00H, '0', 00H, '1', 00H, '7', 00H, '\', 00H, 'c'
	DB	00H, 'o', 00H, 'm', 00H, 'm', 00H, 'u', 00H, 'n', 00H, 'i', 00H
	DB	't', 00H, 'y', 00H, '\', 00H, 'v', 00H, 'c', 00H, '\', 00H, 't'
	DB	00H, 'o', 00H, 'o', 00H, 'l', 00H, 's', 00H, '\', 00H, 'm', 00H
	DB	's', 00H, 'v', 00H, 'c', 00H, '\', 00H, '1', 00H, '4', 00H, '.'
	DB	00H, '1', 00H, '6', 00H, '.', 00H, '2', 00H, '7', 00H, '0', 00H
	DB	'2', 00H, '3', 00H, '\', 00H, 'a', 00H, 't', 00H, 'l', 00H, 'm'
	DB	00H, 'f', 00H, 'c', 00H, '\', 00H, 'i', 00H, 'n', 00H, 'c', 00H
	DB	'l', 00H, 'u', 00H, 'd', 00H, 'e', 00H, '\', 00H, 'a', 00H, 't'
	DB	00H, 'l', 00H, 't', 00H, 'r', 00H, 'a', 00H, 'c', 00H, 'e', 00H
	DB	'.', 00H, 'h', 00H, 00H, 00H			; `string'
CONST	ENDS
;	COMDAT ??_C@_1EO@EBPPKGOM@?$AAf?$AAa?$AAl?$AAs?$AAe?$AA?5?$AA?$CG?$AA?$CG?$AA?5?$AA?$CC?$AAT?$AAo?$AAo?$AA?5?$AAm@
CONST	SEGMENT
??_C@_1EO@EBPPKGOM@?$AAf?$AAa?$AAl?$AAs?$AAe?$AA?5?$AA?$CG?$AA?$CG?$AA?5?$AA?$CC?$AAT?$AAo?$AAo?$AA?5?$AAm@ DB 'f'
	DB	00H, 'a', 00H, 'l', 00H, 's', 00H, 'e', 00H, ' ', 00H, '&', 00H
	DB	'&', 00H, ' ', 00H, '"', 00H, 'T', 00H, 'o', 00H, 'o', 00H, ' '
	DB	00H, 'm', 00H, 'a', 00H, 'n', 00H, 'y', 00H, ' ', 00H, 'c', 00H
	DB	'a', 00H, 't', 00H, 'e', 00H, 'g', 00H, 'o', 00H, 'r', 00H, 'i'
	DB	00H, 'e', 00H, 's', 00H, ' ', 00H, 'd', 00H, 'e', 00H, 'f', 00H
	DB	'i', 00H, 'n', 00H, 'e', 00H, 'd', 00H, '"', 00H, 00H, 00H ; `string'
CONST	ENDS
;	COMDAT ??_C@_17LGGGMOOB@?$AA?$CF?$AAh?$AAs@
CONST	SEGMENT
??_C@_17LGGGMOOB@?$AA?$CF?$AAh?$AAs@ DB '%', 00H, 'h', 00H, 's', 00H, 00H
	DB	00H						; `string'
CONST	ENDS
;	COMDAT ??_C@_0P@MBNHGHMI@atlTraceString@
CONST	SEGMENT
??_C@_0P@MBNHGHMI@atlTraceString@ DB 'atlTraceString', 00H ; `string'
CONST	ENDS
;	COMDAT ??_C@_0BC@PGMFNIFA@atlTraceException@
CONST	SEGMENT
??_C@_0BC@PGMFNIFA@atlTraceException@ DB 'atlTraceException', 00H ; `string'
CONST	ENDS
;	COMDAT ??_C@_17CNPHIMPH@?$AA?$CF?$AAl?$AAs@
CONST	SEGMENT
??_C@_17CNPHIMPH@?$AA?$CF?$AAl?$AAs@ DB '%', 00H, 'l', 00H, 's', 00H, 00H
	DB	00H						; `string'
CONST	ENDS
;	COMDAT xdata$x
xdata$x	SEGMENT
__unwindtable$?ReadMobileParameter@CInitParameter@@QAEXXZ DD 0ffffffffH
	DD	FLAT:__unwindfunclet$?ReadMobileParameter@CInitParameter@@QAEXXZ$0
	DD	00H
	DD	FLAT:__unwindfunclet$?ReadMobileParameter@CInitParameter@@QAEXXZ$1
	DD	01H
	DD	FLAT:__unwindfunclet$?ReadMobileParameter@CInitParameter@@QAEXXZ$2
__ehfuncinfo$?ReadMobileParameter@CInitParameter@@QAEXXZ DD 019930522H
	DD	03H
	DD	FLAT:__unwindtable$?ReadMobileParameter@CInitParameter@@QAEXXZ
	DD	2 DUP(00H)
	DD	2 DUP(00H)
	DD	00H
	DD	01H
xdata$x	ENDS
;	COMDAT xdata$x
xdata$x	SEGMENT
__unwindtable$?LoadInitParameter@CInitParameter@@QAEXXZ DD 0ffffffffH
	DD	FLAT:__unwindfunclet$?LoadInitParameter@CInitParameter@@QAEXXZ$0
__ehfuncinfo$?LoadInitParameter@CInitParameter@@QAEXXZ DD 019930522H
	DD	01H
	DD	FLAT:__unwindtable$?LoadInitParameter@CInitParameter@@QAEXXZ
	DD	2 DUP(00H)
	DD	2 DUP(00H)
	DD	00H
	DD	01H
xdata$x	ENDS
;	COMDAT CRT$XCU
CRT$XCU	SEGMENT
?atlTraceString$initializer$@ATL@@3P6AXXZA DD FLAT:??__EatlTraceString@ATL@@YAXXZ ; ATL::atlTraceString$initializer$
CRT$XCU	ENDS
; Function compile flags: /Odtp /ZI
; File c:\program files (x86)\windows kits\10\include\10.0.17763.0\ucrt\stdio.h
;	COMDAT ??$_snprintf_s@$0BAE@@@YAHAAY0BAE@DIPBDZZ
_TEXT	SEGMENT
__ArgList$ = -4						; size = 4
__Buffer$ = 8						; size = 4
__BufferCount$ = 12					; size = 4
__Format$ = 16						; size = 4
??$_snprintf_s@$0BAE@@@YAHAAY0BAE@DIPBDZZ PROC		; _snprintf_s<260>, COMDAT

; 2079 :         )

  00000	55		 push	 ebp
  00001	8b ec		 mov	 ebp, esp
  00003	83 ec 48	 sub	 esp, 72			; 00000048H
  00006	53		 push	 ebx
  00007	56		 push	 esi
  00008	57		 push	 edi

; 2073 :     __DEFINE_CPP_OVERLOAD_SECURE_FUNC_0_2_ARGLIST(

  00009	8d 45 14	 lea	 eax, DWORD PTR __Format$[ebp+4]
  0000c	89 45 fc	 mov	 DWORD PTR __ArgList$[ebp], eax
  0000f	8b 45 fc	 mov	 eax, DWORD PTR __ArgList$[ebp]
  00012	50		 push	 eax
  00013	8b 4d 10	 mov	 ecx, DWORD PTR __Format$[ebp]
  00016	51		 push	 ecx
  00017	8b 55 0c	 mov	 edx, DWORD PTR __BufferCount$[ebp]
  0001a	52		 push	 edx
  0001b	68 04 01 00 00	 push	 260			; 00000104H
  00020	8b 45 08	 mov	 eax, DWORD PTR __Buffer$[ebp]
  00023	50		 push	 eax
  00024	e8 00 00 00 00	 call	 __vsnprintf_s
  00029	83 c4 14	 add	 esp, 20			; 00000014H
  0002c	5f		 pop	 edi
  0002d	5e		 pop	 esi
  0002e	5b		 pop	 ebx
  0002f	8b e5		 mov	 esp, ebp
  00031	5d		 pop	 ebp
  00032	c3		 ret	 0
??$_snprintf_s@$0BAE@@@YAHAAY0BAE@DIPBDZZ ENDP		; _snprintf_s<260>
_TEXT	ENDS
; Function compile flags: /Odtp /ZI
;	COMDAT ??_GCInitParameter@@UAEPAXI@Z
_TEXT	SEGMENT
_this$ = -4						; size = 4
___flags$ = 8						; size = 4
??_GCInitParameter@@UAEPAXI@Z PROC			; CInitParameter::`scalar deleting destructor', COMDAT
; _this$ = ecx
  00000	55		 push	 ebp
  00001	8b ec		 mov	 ebp, esp
  00003	83 ec 44	 sub	 esp, 68			; 00000044H
  00006	53		 push	 ebx
  00007	56		 push	 esi
  00008	57		 push	 edi
  00009	89 4d fc	 mov	 DWORD PTR _this$[ebp], ecx
  0000c	8b 4d fc	 mov	 ecx, DWORD PTR _this$[ebp]
  0000f	e8 00 00 00 00	 call	 ??1CInitParameter@@UAE@XZ ; CInitParameter::~CInitParameter
  00014	8b 45 08	 mov	 eax, DWORD PTR ___flags$[ebp]
  00017	83 e0 01	 and	 eax, 1
  0001a	74 11		 je	 SHORT $LN2@scalar
  0001c	68 9c 01 00 00	 push	 412			; 0000019cH
  00021	8b 45 fc	 mov	 eax, DWORD PTR _this$[ebp]
  00024	50		 push	 eax
  00025	e8 00 00 00 00	 call	 ??3@YAXPAXI@Z		; operator delete
  0002a	83 c4 08	 add	 esp, 8
$LN2@scalar:
  0002d	8b 45 fc	 mov	 eax, DWORD PTR _this$[ebp]
  00030	5f		 pop	 edi
  00031	5e		 pop	 esi
  00032	5b		 pop	 ebx
  00033	8b e5		 mov	 esp, ebp
  00035	5d		 pop	 ebp
  00036	c2 04 00	 ret	 4
??_GCInitParameter@@UAEPAXI@Z ENDP			; CInitParameter::`scalar deleting destructor'
_TEXT	ENDS
; Function compile flags: /Odtp /ZI
; File g:\网狐\happygamewh\服务端\系统模块\服务器组件\游戏服务器\initparameter.cpp
;	COMDAT ?ReadMobileParameter@CInitParameter@@QAEXXZ
_TEXT	SEGMENT
tv196 = -948						; size = 4
tv143 = -944						; size = 4
$T2 = -940						; size = 4
_strClientName$ = -808					; size = 4
_IniData$ = -804					; size = 264
_szIniFile$ = -540					; size = 260
_szWorkDir$ = -280					; size = 260
_this$ = -20						; size = 4
__$ArrayPad$ = -16					; size = 4
__$EHRec$ = -12						; size = 12
?ReadMobileParameter@CInitParameter@@QAEXXZ PROC	; CInitParameter::ReadMobileParameter, COMDAT
; _this$ = ecx

; 115  : {

  00000	55		 push	 ebp
  00001	8b ec		 mov	 ebp, esp
  00003	6a ff		 push	 -1
  00005	68 00 00 00 00	 push	 __ehhandler$?ReadMobileParameter@CInitParameter@@QAEXXZ
  0000a	64 a1 00 00 00
	00		 mov	 eax, DWORD PTR fs:0
  00010	50		 push	 eax
  00011	81 ec a8 03 00
	00		 sub	 esp, 936		; 000003a8H
  00017	a1 00 00 00 00	 mov	 eax, DWORD PTR ___security_cookie
  0001c	33 c5		 xor	 eax, ebp
  0001e	89 45 f0	 mov	 DWORD PTR __$ArrayPad$[ebp], eax
  00021	53		 push	 ebx
  00022	56		 push	 esi
  00023	57		 push	 edi
  00024	50		 push	 eax
  00025	8d 45 f4	 lea	 eax, DWORD PTR __$EHRec$[ebp]
  00028	64 a3 00 00 00
	00		 mov	 DWORD PTR fs:0, eax
  0002e	89 4d ec	 mov	 DWORD PTR _this$[ebp], ecx

; 116  : 	ASSERT(m_pGameServiceAttrib!=NULL && m_pGameServiceOption!=NULL);

  00031	8b 45 ec	 mov	 eax, DWORD PTR _this$[ebp]
  00034	83 b8 94 01 00
	00 00		 cmp	 DWORD PTR [eax+404], 0
  0003b	74 0c		 je	 SHORT $LN6@ReadMobile
  0003d	8b 4d ec	 mov	 ecx, DWORD PTR _this$[ebp]
  00040	83 b9 98 01 00
	00 00		 cmp	 DWORD PTR [ecx+408], 0
  00047	75 19		 jne	 SHORT $LN7@ReadMobile
$LN6@ReadMobile:
  00049	8b 15 00 00 00
	00		 mov	 edx, DWORD PTR ?__LINE__Var@?0??ReadMobileParameter@CInitParameter@@QAEXXZ@4JA
  0004f	83 c2 01	 add	 edx, 1
  00052	52		 push	 edx
  00053	68 00 00 00 00	 push	 OFFSET ??_C@_0EM@MJJMOMAL@g?3?2?M?x?$LK?$PM?2happygamewh?2?$LH?$PO?N?q?$LG?K?2?O?$LF?M?$LD@
  00058	e8 00 00 00 00	 call	 ?AfxAssertFailedLine@@YGHPBDH@Z ; AfxAssertFailedLine
  0005d	85 c0		 test	 eax, eax
  0005f	74 01		 je	 SHORT $LN7@ReadMobile
  00061	cc		 int	 3
$LN7@ReadMobile:

; 117  : 	if (m_pGameServiceAttrib==NULL || m_pGameServiceOption==NULL) return;

  00062	8b 45 ec	 mov	 eax, DWORD PTR _this$[ebp]
  00065	83 b8 94 01 00
	00 00		 cmp	 DWORD PTR [eax+404], 0
  0006c	74 0c		 je	 SHORT $LN3@ReadMobile
  0006e	8b 45 ec	 mov	 eax, DWORD PTR _this$[ebp]
  00071	83 b8 98 01 00
	00 00		 cmp	 DWORD PTR [eax+408], 0
  00078	75 05		 jne	 SHORT $LN2@ReadMobile
$LN3@ReadMobile:
  0007a	e9 b9 01 00 00	 jmp	 $LN1@ReadMobile
$LN2@ReadMobile:

; 118  : 
; 119  : 	//获取路径
; 120  : 	TCHAR szWorkDir[MAX_PATH]=TEXT("");

  0007f	a0 00 00 00 00	 mov	 al, BYTE PTR ??_C@_00CNPNBAHC@@
  00084	88 85 e8 fe ff
	ff		 mov	 BYTE PTR _szWorkDir$[ebp], al
  0008a	68 03 01 00 00	 push	 259			; 00000103H
  0008f	6a 00		 push	 0
  00091	8d 85 e9 fe ff
	ff		 lea	 eax, DWORD PTR _szWorkDir$[ebp+1]
  00097	50		 push	 eax
  00098	e8 00 00 00 00	 call	 _memset
  0009d	83 c4 0c	 add	 esp, 12			; 0000000cH

; 121  : 	CWHService::GetWorkDirectory(szWorkDir,CountArray(szWorkDir));

  000a0	68 04 01 00 00	 push	 260			; 00000104H
  000a5	8d 85 e8 fe ff
	ff		 lea	 eax, DWORD PTR _szWorkDir$[ebp]
  000ab	50		 push	 eax
  000ac	ff 15 00 00 00
	00		 call	 DWORD PTR __imp_?GetWorkDirectory@CWHService@@SA_NQADG@Z
  000b2	83 c4 08	 add	 esp, 8

; 122  : 
; 123  : 	//构造路径
; 124  : 	TCHAR szIniFile[MAX_PATH]=TEXT("");

  000b5	a0 00 00 00 00	 mov	 al, BYTE PTR ??_C@_00CNPNBAHC@@
  000ba	88 85 e4 fd ff
	ff		 mov	 BYTE PTR _szIniFile$[ebp], al
  000c0	68 03 01 00 00	 push	 259			; 00000103H
  000c5	6a 00		 push	 0
  000c7	8d 85 e5 fd ff
	ff		 lea	 eax, DWORD PTR _szIniFile$[ebp+1]
  000cd	50		 push	 eax
  000ce	e8 00 00 00 00	 call	 _memset
  000d3	83 c4 0c	 add	 esp, 12			; 0000000cH

; 125  : 	_sntprintf_s(szIniFile,CountArray(szIniFile),TEXT("%s\\MobileParameter.ini"),szWorkDir);

  000d6	8d 85 e8 fe ff
	ff		 lea	 eax, DWORD PTR _szWorkDir$[ebp]
  000dc	50		 push	 eax
  000dd	68 00 00 00 00	 push	 OFFSET ??_C@_0BH@BMJGHNOL@?$CFs?2MobileParameter?4ini@
  000e2	68 04 01 00 00	 push	 260			; 00000104H
  000e7	8d 8d e4 fd ff
	ff		 lea	 ecx, DWORD PTR _szIniFile$[ebp]
  000ed	51		 push	 ecx
  000ee	e8 00 00 00 00	 call	 ??$_snprintf_s@$0BAE@@@YAHAAY0BAE@DIPBDZZ ; _snprintf_s<260>
  000f3	83 c4 10	 add	 esp, 16			; 00000010H

; 126  : 	if (PathFileExists(szIniFile)==FALSE)

  000f6	8d 85 e4 fd ff
	ff		 lea	 eax, DWORD PTR _szIniFile$[ebp]
  000fc	50		 push	 eax
  000fd	ff 15 00 00 00
	00		 call	 DWORD PTR __imp__PathFileExistsA@4
  00103	85 c0		 test	 eax, eax
  00105	75 15		 jne	 SHORT $LN4@ReadMobile

; 127  : 	{
; 128  : 		CTraceService::TraceString(TEXT("未找到MobileParameter.ini文件!"),TraceLevel_Exception);

  00107	6a 03		 push	 3
  00109	68 00 00 00 00	 push	 OFFSET ??_C@_0BP@LLKFDMEA@?N?$LE?U?R?$LF?$LNMobileParameter?4ini?N?D?$LM?$PO?$CB@
  0010e	ff 15 00 00 00
	00		 call	 DWORD PTR __imp_?TraceString@CTraceService@@SA_NPBDW4enTraceLevel@@@Z
  00114	83 c4 08	 add	 esp, 8

; 129  : 		return;

  00117	e9 1c 01 00 00	 jmp	 $LN1@ReadMobile
$LN4@ReadMobile:

; 130  : 	}
; 131  : 
; 132  : 	//读取配置
; 133  : 	CWHIniData IniData;

  0011c	8d 8d dc fc ff
	ff		 lea	 ecx, DWORD PTR _IniData$[ebp]
  00122	ff 15 00 00 00
	00		 call	 DWORD PTR __imp_??0CWHIniData@@QAE@XZ
  00128	c7 45 fc 00 00
	00 00		 mov	 DWORD PTR __$EHRec$[ebp+8], 0

; 134  : 	IniData.SetIniFilePath(szIniFile);

  0012f	8d 85 e4 fd ff
	ff		 lea	 eax, DWORD PTR _szIniFile$[ebp]
  00135	50		 push	 eax
  00136	8d 8d dc fc ff
	ff		 lea	 ecx, DWORD PTR _IniData$[ebp]
  0013c	ff 15 00 00 00
	00		 call	 DWORD PTR __imp_?SetIniFilePath@CWHIniData@@QAEXPBD@Z

; 135  : 
; 136  : 	CString strClientName(m_pGameServiceAttrib->szClientEXEName);

  00142	8b 45 ec	 mov	 eax, DWORD PTR _this$[ebp]
  00145	8b 88 94 01 00
	00		 mov	 ecx, DWORD PTR [eax+404]
  0014b	83 c1 74	 add	 ecx, 116		; 00000074H
  0014e	51		 push	 ecx
  0014f	8d 8d d8 fc ff
	ff		 lea	 ecx, DWORD PTR _strClientName$[ebp]
  00155	ff 15 00 00 00
	00		 call	 DWORD PTR __imp_??0?$CStringT@DV?$StrTraitMFC_DLL@DV?$ChTraitsCRT@D@ATL@@@@@ATL@@QAE@PBD@Z
  0015b	c6 45 fc 01	 mov	 BYTE PTR __$EHRec$[ebp+8], 1

; 137  : 	strClientName=strClientName.Left(strClientName.GetLength()-4);

  0015f	8d 8d d8 fc ff
	ff		 lea	 ecx, DWORD PTR _strClientName$[ebp]
  00165	ff 15 00 00 00
	00		 call	 DWORD PTR __imp_?GetLength@?$CSimpleStringT@D$00@ATL@@QBEHXZ
  0016b	83 e8 04	 sub	 eax, 4
  0016e	50		 push	 eax
  0016f	8d 85 54 fc ff
	ff		 lea	 eax, DWORD PTR $T2[ebp]
  00175	50		 push	 eax
  00176	8d 8d d8 fc ff
	ff		 lea	 ecx, DWORD PTR _strClientName$[ebp]
  0017c	ff 15 00 00 00
	00		 call	 DWORD PTR __imp_?Left@?$CStringT@DV?$StrTraitMFC_DLL@DV?$ChTraitsCRT@D@ATL@@@@@ATL@@QBE?AV12@H@Z
  00182	89 85 50 fc ff
	ff		 mov	 DWORD PTR tv143[ebp], eax
  00188	8b 8d 50 fc ff
	ff		 mov	 ecx, DWORD PTR tv143[ebp]
  0018e	89 8d 4c fc ff
	ff		 mov	 DWORD PTR tv196[ebp], ecx
  00194	c6 45 fc 02	 mov	 BYTE PTR __$EHRec$[ebp+8], 2
  00198	8b 95 4c fc ff
	ff		 mov	 edx, DWORD PTR tv196[ebp]
  0019e	52		 push	 edx
  0019f	8d 8d d8 fc ff
	ff		 lea	 ecx, DWORD PTR _strClientName$[ebp]
  001a5	ff 15 00 00 00
	00		 call	 DWORD PTR __imp_??4?$CStringT@DV?$StrTraitMFC_DLL@DV?$ChTraitsCRT@D@ATL@@@@@ATL@@QAEAAV01@ABV01@@Z
  001ab	c6 45 fc 01	 mov	 BYTE PTR __$EHRec$[ebp+8], 1
  001af	8d 8d 54 fc ff
	ff		 lea	 ecx, DWORD PTR $T2[ebp]
  001b5	ff 15 00 00 00
	00		 call	 DWORD PTR __imp_??1?$CStringT@DV?$StrTraitMFC_DLL@DV?$ChTraitsCRT@D@ATL@@@@@ATL@@QAE@XZ

; 138  : 
; 139  : 	m_wVisibleTableCount=IniData.ReadInt(strClientName,TEXT("VisibleTableCount"),m_wVisibleTableCount);

  001bb	8b 45 ec	 mov	 eax, DWORD PTR _this$[ebp]
  001be	0f b7 48 6c	 movzx	 ecx, WORD PTR [eax+108]
  001c2	51		 push	 ecx
  001c3	68 00 00 00 00	 push	 OFFSET ??_C@_0BC@IGEEDJJG@VisibleTableCount@
  001c8	8d 8d d8 fc ff
	ff		 lea	 ecx, DWORD PTR _strClientName$[ebp]
  001ce	ff 15 00 00 00
	00		 call	 DWORD PTR __imp_??B?$CSimpleStringT@D$00@ATL@@QBEPBDXZ
  001d4	50		 push	 eax
  001d5	8d 8d dc fc ff
	ff		 lea	 ecx, DWORD PTR _IniData$[ebp]
  001db	ff 15 00 00 00
	00		 call	 DWORD PTR __imp_?ReadInt@CWHIniData@@QAEIPBD0H@Z
  001e1	8b 55 ec	 mov	 edx, DWORD PTR _this$[ebp]
  001e4	66 89 42 6c	 mov	 WORD PTR [edx+108], ax

; 140  : 	m_wEverySendPageCount=IniData.ReadInt(strClientName,TEXT("EverySendPageCount"),m_wEverySendPageCount);

  001e8	8b 45 ec	 mov	 eax, DWORD PTR _this$[ebp]
  001eb	0f b7 48 6e	 movzx	 ecx, WORD PTR [eax+110]
  001ef	51		 push	 ecx
  001f0	68 00 00 00 00	 push	 OFFSET ??_C@_0BD@GBODAJDE@EverySendPageCount@
  001f5	8d 8d d8 fc ff
	ff		 lea	 ecx, DWORD PTR _strClientName$[ebp]
  001fb	ff 15 00 00 00
	00		 call	 DWORD PTR __imp_??B?$CSimpleStringT@D$00@ATL@@QBEPBDXZ
  00201	50		 push	 eax
  00202	8d 8d dc fc ff
	ff		 lea	 ecx, DWORD PTR _IniData$[ebp]
  00208	ff 15 00 00 00
	00		 call	 DWORD PTR __imp_?ReadInt@CWHIniData@@QAEIPBD0H@Z
  0020e	8b 55 ec	 mov	 edx, DWORD PTR _this$[ebp]
  00211	66 89 42 6e	 mov	 WORD PTR [edx+110], ax

; 141  : 
; 142  : 	return;

  00215	c6 45 fc 00	 mov	 BYTE PTR __$EHRec$[ebp+8], 0
  00219	8d 8d d8 fc ff
	ff		 lea	 ecx, DWORD PTR _strClientName$[ebp]
  0021f	ff 15 00 00 00
	00		 call	 DWORD PTR __imp_??1?$CStringT@DV?$StrTraitMFC_DLL@DV?$ChTraitsCRT@D@ATL@@@@@ATL@@QAE@XZ
  00225	c7 45 fc ff ff
	ff ff		 mov	 DWORD PTR __$EHRec$[ebp+8], -1
  0022c	8d 8d dc fc ff
	ff		 lea	 ecx, DWORD PTR _IniData$[ebp]
  00232	ff 15 00 00 00
	00		 call	 DWORD PTR __imp_??1CWHIniData@@UAE@XZ
$LN1@ReadMobile:

; 143  : }

  00238	8b 4d f4	 mov	 ecx, DWORD PTR __$EHRec$[ebp]
  0023b	64 89 0d 00 00
	00 00		 mov	 DWORD PTR fs:0, ecx
  00242	59		 pop	 ecx
  00243	5f		 pop	 edi
  00244	5e		 pop	 esi
  00245	5b		 pop	 ebx
  00246	8b 4d f0	 mov	 ecx, DWORD PTR __$ArrayPad$[ebp]
  00249	33 cd		 xor	 ecx, ebp
  0024b	e8 00 00 00 00	 call	 @__security_check_cookie@4
  00250	8b e5		 mov	 esp, ebp
  00252	5d		 pop	 ebp
  00253	c3		 ret	 0
_TEXT	ENDS
;	COMDAT text$x
text$x	SEGMENT
__unwindfunclet$?ReadMobileParameter@CInitParameter@@QAEXXZ$0:
  00000	8d 8d dc fc ff
	ff		 lea	 ecx, DWORD PTR _IniData$[ebp]
  00006	ff 25 00 00 00
	00		 jmp	 DWORD PTR __imp_??1CWHIniData@@UAE@XZ
__unwindfunclet$?ReadMobileParameter@CInitParameter@@QAEXXZ$1:
  0000c	8d 8d d8 fc ff
	ff		 lea	 ecx, DWORD PTR _strClientName$[ebp]
  00012	ff 25 00 00 00
	00		 jmp	 DWORD PTR __imp_??1?$CStringT@DV?$StrTraitMFC_DLL@DV?$ChTraitsCRT@D@ATL@@@@@ATL@@QAE@XZ
__unwindfunclet$?ReadMobileParameter@CInitParameter@@QAEXXZ$2:
  00018	8d 8d 54 fc ff
	ff		 lea	 ecx, DWORD PTR $T2[ebp]
  0001e	ff 25 00 00 00
	00		 jmp	 DWORD PTR __imp_??1?$CStringT@DV?$StrTraitMFC_DLL@DV?$ChTraitsCRT@D@ATL@@@@@ATL@@QAE@XZ
__ehhandler$?ReadMobileParameter@CInitParameter@@QAEXXZ:
  00024	8b 54 24 08	 mov	 edx, DWORD PTR [esp+8]
  00028	8d 42 0c	 lea	 eax, DWORD PTR [edx+12]
  0002b	8b 8a 48 fc ff
	ff		 mov	 ecx, DWORD PTR [edx-952]
  00031	33 c8		 xor	 ecx, eax
  00033	e8 00 00 00 00	 call	 @__security_check_cookie@4
  00038	8b 4a fc	 mov	 ecx, DWORD PTR [edx-4]
  0003b	33 c8		 xor	 ecx, eax
  0003d	e8 00 00 00 00	 call	 @__security_check_cookie@4
  00042	b8 00 00 00 00	 mov	 eax, OFFSET __ehfuncinfo$?ReadMobileParameter@CInitParameter@@QAEXXZ
  00047	e9 00 00 00 00	 jmp	 ___CxxFrameHandler3
text$x	ENDS
?ReadMobileParameter@CInitParameter@@QAEXXZ ENDP	; CInitParameter::ReadMobileParameter
; Function compile flags: /Odtp /ZI
; File g:\网狐\happygamewh\服务端\系统模块\服务器组件\游戏服务器\initparameter.cpp
;	COMDAT ?SetServerParameter@CInitParameter@@QAEXPAUtagGameServiceAttrib@@PAUtagGameServiceOption@@@Z
_TEXT	SEGMENT
_this$ = -4						; size = 4
_pGameServiceAttrib$ = 8				; size = 4
_pGameServiceOption$ = 12				; size = 4
?SetServerParameter@CInitParameter@@QAEXPAUtagGameServiceAttrib@@PAUtagGameServiceOption@@@Z PROC ; CInitParameter::SetServerParameter, COMDAT
; _this$ = ecx

; 108  : {

  00000	55		 push	 ebp
  00001	8b ec		 mov	 ebp, esp
  00003	83 ec 44	 sub	 esp, 68			; 00000044H
  00006	53		 push	 ebx
  00007	56		 push	 esi
  00008	57		 push	 edi
  00009	89 4d fc	 mov	 DWORD PTR _this$[ebp], ecx

; 109  : 	m_pGameServiceAttrib=pGameServiceAttrib;

  0000c	8b 45 fc	 mov	 eax, DWORD PTR _this$[ebp]
  0000f	8b 4d 08	 mov	 ecx, DWORD PTR _pGameServiceAttrib$[ebp]
  00012	89 88 94 01 00
	00		 mov	 DWORD PTR [eax+404], ecx

; 110  : 	m_pGameServiceOption=pGameServiceOption;

  00018	8b 45 fc	 mov	 eax, DWORD PTR _this$[ebp]
  0001b	8b 4d 0c	 mov	 ecx, DWORD PTR _pGameServiceOption$[ebp]
  0001e	89 88 98 01 00
	00		 mov	 DWORD PTR [eax+408], ecx

; 111  : }

  00024	5f		 pop	 edi
  00025	5e		 pop	 esi
  00026	5b		 pop	 ebx
  00027	8b e5		 mov	 esp, ebp
  00029	5d		 pop	 ebp
  0002a	c2 08 00	 ret	 8
?SetServerParameter@CInitParameter@@QAEXPAUtagGameServiceAttrib@@PAUtagGameServiceOption@@@Z ENDP ; CInitParameter::SetServerParameter
_TEXT	ENDS
; Function compile flags: /Odtp /ZI
; File g:\网狐\happygamewh\服务端\系统模块\服务器组件\游戏服务器\initparameter.cpp
;	COMDAT ?LoadInitParameter@CInitParameter@@QAEXXZ
_TEXT	SEGMENT
_IniData$ = -804					; size = 264
_szIniFile$ = -540					; size = 260
_szWorkDir$ = -280					; size = 260
_this$ = -20						; size = 4
__$ArrayPad$ = -16					; size = 4
__$EHRec$ = -12						; size = 12
?LoadInitParameter@CInitParameter@@QAEXXZ PROC		; CInitParameter::LoadInitParameter, COMDAT
; _this$ = ecx

; 59   : {

  00000	55		 push	 ebp
  00001	8b ec		 mov	 ebp, esp
  00003	6a ff		 push	 -1
  00005	68 00 00 00 00	 push	 __ehhandler$?LoadInitParameter@CInitParameter@@QAEXXZ
  0000a	64 a1 00 00 00
	00		 mov	 eax, DWORD PTR fs:0
  00010	50		 push	 eax
  00011	81 ec 98 03 00
	00		 sub	 esp, 920		; 00000398H
  00017	a1 00 00 00 00	 mov	 eax, DWORD PTR ___security_cookie
  0001c	33 c5		 xor	 eax, ebp
  0001e	89 45 f0	 mov	 DWORD PTR __$ArrayPad$[ebp], eax
  00021	53		 push	 ebx
  00022	56		 push	 esi
  00023	57		 push	 edi
  00024	50		 push	 eax
  00025	8d 45 f4	 lea	 eax, DWORD PTR __$EHRec$[ebp]
  00028	64 a3 00 00 00
	00		 mov	 DWORD PTR fs:0, eax
  0002e	89 4d ec	 mov	 DWORD PTR _this$[ebp], ecx

; 60   : 	//重置参数
; 61   : 	InitParameter();

  00031	8b 4d ec	 mov	 ecx, DWORD PTR _this$[ebp]
  00034	e8 00 00 00 00	 call	 ?InitParameter@CInitParameter@@QAEXXZ ; CInitParameter::InitParameter

; 62   : 
; 63   : 	//获取路径
; 64   : 	TCHAR szWorkDir[MAX_PATH]=TEXT("");

  00039	a0 00 00 00 00	 mov	 al, BYTE PTR ??_C@_00CNPNBAHC@@
  0003e	88 85 e8 fe ff
	ff		 mov	 BYTE PTR _szWorkDir$[ebp], al
  00044	68 03 01 00 00	 push	 259			; 00000103H
  00049	6a 00		 push	 0
  0004b	8d 85 e9 fe ff
	ff		 lea	 eax, DWORD PTR _szWorkDir$[ebp+1]
  00051	50		 push	 eax
  00052	e8 00 00 00 00	 call	 _memset
  00057	83 c4 0c	 add	 esp, 12			; 0000000cH

; 65   : 	CWHService::GetWorkDirectory(szWorkDir,CountArray(szWorkDir));

  0005a	68 04 01 00 00	 push	 260			; 00000104H
  0005f	8d 85 e8 fe ff
	ff		 lea	 eax, DWORD PTR _szWorkDir$[ebp]
  00065	50		 push	 eax
  00066	ff 15 00 00 00
	00		 call	 DWORD PTR __imp_?GetWorkDirectory@CWHService@@SA_NQADG@Z
  0006c	83 c4 08	 add	 esp, 8

; 66   : 
; 67   : 	//构造路径
; 68   : 	TCHAR szIniFile[MAX_PATH]=TEXT("");

  0006f	a0 00 00 00 00	 mov	 al, BYTE PTR ??_C@_00CNPNBAHC@@
  00074	88 85 e4 fd ff
	ff		 mov	 BYTE PTR _szIniFile$[ebp], al
  0007a	68 03 01 00 00	 push	 259			; 00000103H
  0007f	6a 00		 push	 0
  00081	8d 85 e5 fd ff
	ff		 lea	 eax, DWORD PTR _szIniFile$[ebp+1]
  00087	50		 push	 eax
  00088	e8 00 00 00 00	 call	 _memset
  0008d	83 c4 0c	 add	 esp, 12			; 0000000cH

; 69   : 	_sntprintf_s(szIniFile,CountArray(szIniFile),TEXT("%s\\ServerParameter.ini"),szWorkDir);

  00090	8d 85 e8 fe ff
	ff		 lea	 eax, DWORD PTR _szWorkDir$[ebp]
  00096	50		 push	 eax
  00097	68 00 00 00 00	 push	 OFFSET ??_C@_0BH@GFNFOOOG@?$CFs?2ServerParameter?4ini@
  0009c	68 04 01 00 00	 push	 260			; 00000104H
  000a1	8d 8d e4 fd ff
	ff		 lea	 ecx, DWORD PTR _szIniFile$[ebp]
  000a7	51		 push	 ecx
  000a8	e8 00 00 00 00	 call	 ??$_snprintf_s@$0BAE@@@YAHAAY0BAE@DIPBDZZ ; _snprintf_s<260>
  000ad	83 c4 10	 add	 esp, 16			; 00000010H

; 70   : 
; 71   : 	//读取配置
; 72   : 	CWHIniData IniData;

  000b0	8d 8d dc fc ff
	ff		 lea	 ecx, DWORD PTR _IniData$[ebp]
  000b6	ff 15 00 00 00
	00		 call	 DWORD PTR __imp_??0CWHIniData@@QAE@XZ
  000bc	c7 45 fc 00 00
	00 00		 mov	 DWORD PTR __$EHRec$[ebp+8], 0

; 73   : 	IniData.SetIniFilePath(szIniFile);

  000c3	8d 85 e4 fd ff
	ff		 lea	 eax, DWORD PTR _szIniFile$[ebp]
  000c9	50		 push	 eax
  000ca	8d 8d dc fc ff
	ff		 lea	 ecx, DWORD PTR _IniData$[ebp]
  000d0	ff 15 00 00 00
	00		 call	 DWORD PTR __imp_?SetIniFilePath@CWHIniData@@QAEXPBD@Z

; 74   : 
; 75   : 	//读取配置
; 76   : 	IniData.ReadEncryptString(TEXT("ServerInfo"),TEXT("ServiceName"),NULL,m_szServerName,CountArray(m_szServerName));

  000d6	6a 20		 push	 32			; 00000020H
  000d8	8b 45 ec	 mov	 eax, DWORD PTR _this$[ebp]
  000db	83 c0 4c	 add	 eax, 76			; 0000004cH
  000de	50		 push	 eax
  000df	6a 00		 push	 0
  000e1	68 00 00 00 00	 push	 OFFSET ??_C@_0M@IOFGKGDC@ServiceName@
  000e6	68 00 00 00 00	 push	 OFFSET ??_C@_0L@EJMBPMDM@ServerInfo@
  000eb	8d 8d dc fc ff
	ff		 lea	 ecx, DWORD PTR _IniData$[ebp]
  000f1	ff 15 00 00 00
	00		 call	 DWORD PTR __imp_?ReadEncryptString@CWHIniData@@QAEPBDPBD00PADG@Z

; 77   : 	IniData.ReadEncryptString(TEXT("ServerInfo"),TEXT("ServiceAddr"),NULL,m_ServiceAddress.szAddress,CountArray(m_ServiceAddress.szAddress));

  000f7	6a 20		 push	 32			; 00000020H
  000f9	8b 45 ec	 mov	 eax, DWORD PTR _this$[ebp]
  000fc	83 c0 70	 add	 eax, 112		; 00000070H
  000ff	50		 push	 eax
  00100	6a 00		 push	 0
  00102	68 00 00 00 00	 push	 OFFSET ??_C@_0M@DBIKHOMI@ServiceAddr@
  00107	68 00 00 00 00	 push	 OFFSET ??_C@_0L@EJMBPMDM@ServerInfo@
  0010c	8d 8d dc fc ff
	ff		 lea	 ecx, DWORD PTR _IniData$[ebp]
  00112	ff 15 00 00 00
	00		 call	 DWORD PTR __imp_?ReadEncryptString@CWHIniData@@QAEPBDPBD00PADG@Z

; 78   : 
; 79   : 	//协调信息
; 80   : 	m_wCorrespondPort=IniData.ReadInt(TEXT("Correspond"),TEXT("ServicePort"),m_wCorrespondPort);

  00118	8b 45 ec	 mov	 eax, DWORD PTR _this$[ebp]
  0011b	0f b7 48 08	 movzx	 ecx, WORD PTR [eax+8]
  0011f	51		 push	 ecx
  00120	68 00 00 00 00	 push	 OFFSET ??_C@_0M@PFPKDPLP@ServicePort@
  00125	68 00 00 00 00	 push	 OFFSET ??_C@_0L@EGGJEAIA@Correspond@
  0012a	8d 8d dc fc ff
	ff		 lea	 ecx, DWORD PTR _IniData$[ebp]
  00130	ff 15 00 00 00
	00		 call	 DWORD PTR __imp_?ReadInt@CWHIniData@@QAEIPBD0H@Z
  00136	8b 55 ec	 mov	 edx, DWORD PTR _this$[ebp]
  00139	66 89 42 08	 mov	 WORD PTR [edx+8], ax

; 81   : 	IniData.ReadEncryptString(TEXT("ServerInfo"),TEXT("CorrespondAddr"),NULL,m_CorrespondAddress.szAddress,CountArray(m_CorrespondAddress.szAddress));

  0013d	6a 20		 push	 32			; 00000020H
  0013f	8b 45 ec	 mov	 eax, DWORD PTR _this$[ebp]
  00142	83 c0 0a	 add	 eax, 10			; 0000000aH
  00145	50		 push	 eax
  00146	6a 00		 push	 0
  00148	68 00 00 00 00	 push	 OFFSET ??_C@_0P@DFEDGGJF@CorrespondAddr@
  0014d	68 00 00 00 00	 push	 OFFSET ??_C@_0L@EJMBPMDM@ServerInfo@
  00152	8d 8d dc fc ff
	ff		 lea	 ecx, DWORD PTR _IniData$[ebp]
  00158	ff 15 00 00 00
	00		 call	 DWORD PTR __imp_?ReadEncryptString@CWHIniData@@QAEPBDPBD00PADG@Z

; 82   : 
; 83   : 	//约战服务信息，默认地址与协调服务器地址相同
; 84   : 	m_wPrsnlRmCorrespondPort=IniData.ReadInt(TEXT("PersonalRoomCorrespond"),TEXT("ServicePort"),m_wPrsnlRmCorrespondPort);

  0015e	8b 45 ec	 mov	 eax, DWORD PTR _this$[ebp]
  00161	0f b7 48 2a	 movzx	 ecx, WORD PTR [eax+42]
  00165	51		 push	 ecx
  00166	68 00 00 00 00	 push	 OFFSET ??_C@_0M@PFPKDPLP@ServicePort@
  0016b	68 00 00 00 00	 push	 OFFSET ??_C@_0BH@CBDBHJAC@PersonalRoomCorrespond@
  00170	8d 8d dc fc ff
	ff		 lea	 ecx, DWORD PTR _IniData$[ebp]
  00176	ff 15 00 00 00
	00		 call	 DWORD PTR __imp_?ReadInt@CWHIniData@@QAEIPBD0H@Z
  0017c	8b 55 ec	 mov	 edx, DWORD PTR _this$[ebp]
  0017f	66 89 42 2a	 mov	 WORD PTR [edx+42], ax

; 85   : 	IniData.ReadEncryptString(TEXT("ServerInfo"),TEXT("PersonalRoomCorrespondAddr"),m_CorrespondAddress.szAddress,m_PrsnlRmCorrespondAddress.szAddress,CountArray(m_PrsnlRmCorrespondAddress.szAddress));

  00183	6a 20		 push	 32			; 00000020H
  00185	8b 45 ec	 mov	 eax, DWORD PTR _this$[ebp]
  00188	83 c0 2c	 add	 eax, 44			; 0000002cH
  0018b	50		 push	 eax
  0018c	8b 4d ec	 mov	 ecx, DWORD PTR _this$[ebp]
  0018f	83 c1 0a	 add	 ecx, 10			; 0000000aH
  00192	51		 push	 ecx
  00193	68 00 00 00 00	 push	 OFFSET ??_C@_0BL@PIBNOFJN@PersonalRoomCorrespondAddr@
  00198	68 00 00 00 00	 push	 OFFSET ??_C@_0L@EJMBPMDM@ServerInfo@
  0019d	8d 8d dc fc ff
	ff		 lea	 ecx, DWORD PTR _IniData$[ebp]
  001a3	ff 15 00 00 00
	00		 call	 DWORD PTR __imp_?ReadEncryptString@CWHIniData@@QAEPBDPBD00PADG@Z

; 86   : 
; 87   : 	//连接信息
; 88   : 	m_TreasureDBParameter.wDataBasePort=(WORD)IniData.ReadInt(TEXT("TreasureDB"),TEXT("DBPort"),1433);

  001a9	68 99 05 00 00	 push	 1433			; 00000599H
  001ae	68 00 00 00 00	 push	 OFFSET ??_C@_06NHDHPCNO@DBPort@
  001b3	68 00 00 00 00	 push	 OFFSET ??_C@_0L@BIEPDLBP@TreasureDB@
  001b8	8d 8d dc fc ff
	ff		 lea	 ecx, DWORD PTR _IniData$[ebp]
  001be	ff 15 00 00 00
	00		 call	 DWORD PTR __imp_?ReadInt@CWHIniData@@QAEIPBD0H@Z
  001c4	8b 4d ec	 mov	 ecx, DWORD PTR _this$[ebp]
  001c7	66 89 81 90 00
	00 00		 mov	 WORD PTR [ecx+144], ax

; 89   : 	IniData.ReadEncryptString(TEXT("TreasureDB"), TEXT("DBAddr"), TEXT("127.0.0.1"), m_TreasureDBParameter.szDataBaseAddr, CountArray(m_TreasureDBParameter.szDataBaseAddr));

  001ce	6a 20		 push	 32			; 00000020H
  001d0	8b 45 ec	 mov	 eax, DWORD PTR _this$[ebp]
  001d3	05 92 00 00 00	 add	 eax, 146		; 00000092H
  001d8	50		 push	 eax
  001d9	68 00 00 00 00	 push	 OFFSET ??_C@_09PFCHIMEP@127?40?40?41@
  001de	68 00 00 00 00	 push	 OFFSET ??_C@_06BDEHLDKJ@DBAddr@
  001e3	68 00 00 00 00	 push	 OFFSET ??_C@_0L@BIEPDLBP@TreasureDB@
  001e8	8d 8d dc fc ff
	ff		 lea	 ecx, DWORD PTR _IniData$[ebp]
  001ee	ff 15 00 00 00
	00		 call	 DWORD PTR __imp_?ReadEncryptString@CWHIniData@@QAEPBDPBD00PADG@Z

; 90   : 	IniData.ReadEncryptString(TEXT("TreasureDB"), TEXT("DBUser"), TEXT("sa"), m_TreasureDBParameter.szDataBaseUser, CountArray(m_TreasureDBParameter.szDataBaseUser));

  001f4	6a 20		 push	 32			; 00000020H
  001f6	8b 45 ec	 mov	 eax, DWORD PTR _this$[ebp]
  001f9	05 b2 00 00 00	 add	 eax, 178		; 000000b2H
  001fe	50		 push	 eax
  001ff	68 00 00 00 00	 push	 OFFSET ??_C@_02CKOPKKAC@sa@
  00204	68 00 00 00 00	 push	 OFFSET ??_C@_06EKCLIHPK@DBUser@
  00209	68 00 00 00 00	 push	 OFFSET ??_C@_0L@BIEPDLBP@TreasureDB@
  0020e	8d 8d dc fc ff
	ff		 lea	 ecx, DWORD PTR _IniData$[ebp]
  00214	ff 15 00 00 00
	00		 call	 DWORD PTR __imp_?ReadEncryptString@CWHIniData@@QAEPBDPBD00PADG@Z

; 91   : 	IniData.ReadEncryptString(TEXT("TreasureDB"), TEXT("DBPass"), TEXT("people"), m_TreasureDBParameter.szDataBasePass, CountArray(m_TreasureDBParameter.szDataBasePass));

  0021a	6a 20		 push	 32			; 00000020H
  0021c	8b 45 ec	 mov	 eax, DWORD PTR _this$[ebp]
  0021f	05 d2 00 00 00	 add	 eax, 210		; 000000d2H
  00224	50		 push	 eax
  00225	68 00 00 00 00	 push	 OFFSET ??_C@_06PPNIIDOF@people@
  0022a	68 00 00 00 00	 push	 OFFSET ??_C@_06HJGLHJBN@DBPass@
  0022f	68 00 00 00 00	 push	 OFFSET ??_C@_0L@BIEPDLBP@TreasureDB@
  00234	8d 8d dc fc ff
	ff		 lea	 ecx, DWORD PTR _IniData$[ebp]
  0023a	ff 15 00 00 00
	00		 call	 DWORD PTR __imp_?ReadEncryptString@CWHIniData@@QAEPBDPBD00PADG@Z

; 92   : 	IniData.ReadEncryptString(TEXT("TreasureDB"),TEXT("DBName"),szTreasureDB,m_TreasureDBParameter.szDataBaseName,CountArray(m_TreasureDBParameter.szDataBaseName));

  00240	6a 20		 push	 32			; 00000020H
  00242	8b 45 ec	 mov	 eax, DWORD PTR _this$[ebp]
  00245	05 f2 00 00 00	 add	 eax, 242		; 000000f2H
  0024a	50		 push	 eax
  0024b	68 00 00 00 00	 push	 OFFSET ?szTreasureDB@@3QBDB
  00250	68 00 00 00 00	 push	 OFFSET ??_C@_06KMJLGLFD@DBName@
  00255	68 00 00 00 00	 push	 OFFSET ??_C@_0L@BIEPDLBP@TreasureDB@
  0025a	8d 8d dc fc ff
	ff		 lea	 ecx, DWORD PTR _IniData$[ebp]
  00260	ff 15 00 00 00
	00		 call	 DWORD PTR __imp_?ReadEncryptString@CWHIniData@@QAEPBDPBD00PADG@Z

; 93   : 
; 94   : 	//连接信息
; 95   : 	m_PlatformDBParameter.wDataBasePort=(WORD)IniData.ReadInt(TEXT("PlatformDB"),TEXT("DBPort"),1433);

  00266	68 99 05 00 00	 push	 1433			; 00000599H
  0026b	68 00 00 00 00	 push	 OFFSET ??_C@_06NHDHPCNO@DBPort@
  00270	68 00 00 00 00	 push	 OFFSET ??_C@_0L@KKFJCNPO@PlatformDB@
  00275	8d 8d dc fc ff
	ff		 lea	 ecx, DWORD PTR _IniData$[ebp]
  0027b	ff 15 00 00 00
	00		 call	 DWORD PTR __imp_?ReadInt@CWHIniData@@QAEIPBD0H@Z
  00281	8b 4d ec	 mov	 ecx, DWORD PTR _this$[ebp]
  00284	66 89 81 12 01
	00 00		 mov	 WORD PTR [ecx+274], ax

; 96   : 	IniData.ReadEncryptString(TEXT("PlatformDB"), TEXT("DBAddr"), TEXT("127.0.0.1"), m_PlatformDBParameter.szDataBaseAddr, CountArray(m_PlatformDBParameter.szDataBaseAddr));

  0028b	6a 20		 push	 32			; 00000020H
  0028d	8b 45 ec	 mov	 eax, DWORD PTR _this$[ebp]
  00290	05 14 01 00 00	 add	 eax, 276		; 00000114H
  00295	50		 push	 eax
  00296	68 00 00 00 00	 push	 OFFSET ??_C@_09PFCHIMEP@127?40?40?41@
  0029b	68 00 00 00 00	 push	 OFFSET ??_C@_06BDEHLDKJ@DBAddr@
  002a0	68 00 00 00 00	 push	 OFFSET ??_C@_0L@KKFJCNPO@PlatformDB@
  002a5	8d 8d dc fc ff
	ff		 lea	 ecx, DWORD PTR _IniData$[ebp]
  002ab	ff 15 00 00 00
	00		 call	 DWORD PTR __imp_?ReadEncryptString@CWHIniData@@QAEPBDPBD00PADG@Z

; 97   : 	IniData.ReadEncryptString(TEXT("PlatformDB"), TEXT("DBUser"), TEXT("sa"), m_PlatformDBParameter.szDataBaseUser, CountArray(m_PlatformDBParameter.szDataBaseUser));

  002b1	6a 20		 push	 32			; 00000020H
  002b3	8b 45 ec	 mov	 eax, DWORD PTR _this$[ebp]
  002b6	05 34 01 00 00	 add	 eax, 308		; 00000134H
  002bb	50		 push	 eax
  002bc	68 00 00 00 00	 push	 OFFSET ??_C@_02CKOPKKAC@sa@
  002c1	68 00 00 00 00	 push	 OFFSET ??_C@_06EKCLIHPK@DBUser@
  002c6	68 00 00 00 00	 push	 OFFSET ??_C@_0L@KKFJCNPO@PlatformDB@
  002cb	8d 8d dc fc ff
	ff		 lea	 ecx, DWORD PTR _IniData$[ebp]
  002d1	ff 15 00 00 00
	00		 call	 DWORD PTR __imp_?ReadEncryptString@CWHIniData@@QAEPBDPBD00PADG@Z

; 98   : 	IniData.ReadEncryptString(TEXT("PlatformDB"), TEXT("DBPass"), TEXT("people"), m_PlatformDBParameter.szDataBasePass, CountArray(m_PlatformDBParameter.szDataBasePass));

  002d7	6a 20		 push	 32			; 00000020H
  002d9	8b 45 ec	 mov	 eax, DWORD PTR _this$[ebp]
  002dc	05 54 01 00 00	 add	 eax, 340		; 00000154H
  002e1	50		 push	 eax
  002e2	68 00 00 00 00	 push	 OFFSET ??_C@_06PPNIIDOF@people@
  002e7	68 00 00 00 00	 push	 OFFSET ??_C@_06HJGLHJBN@DBPass@
  002ec	68 00 00 00 00	 push	 OFFSET ??_C@_0L@KKFJCNPO@PlatformDB@
  002f1	8d 8d dc fc ff
	ff		 lea	 ecx, DWORD PTR _IniData$[ebp]
  002f7	ff 15 00 00 00
	00		 call	 DWORD PTR __imp_?ReadEncryptString@CWHIniData@@QAEPBDPBD00PADG@Z

; 99   : 	IniData.ReadEncryptString(TEXT("PlatformDB"),TEXT("DBName"),szPlatformDB,m_PlatformDBParameter.szDataBaseName,CountArray(m_PlatformDBParameter.szDataBaseName));

  002fd	6a 20		 push	 32			; 00000020H
  002ff	8b 45 ec	 mov	 eax, DWORD PTR _this$[ebp]
  00302	05 74 01 00 00	 add	 eax, 372		; 00000174H
  00307	50		 push	 eax
  00308	68 00 00 00 00	 push	 OFFSET ?szPlatformDB@@3QBDB
  0030d	68 00 00 00 00	 push	 OFFSET ??_C@_06KMJLGLFD@DBName@
  00312	68 00 00 00 00	 push	 OFFSET ??_C@_0L@KKFJCNPO@PlatformDB@
  00317	8d 8d dc fc ff
	ff		 lea	 ecx, DWORD PTR _IniData$[ebp]
  0031d	ff 15 00 00 00
	00		 call	 DWORD PTR __imp_?ReadEncryptString@CWHIniData@@QAEPBDPBD00PADG@Z

; 100  : 
; 101  : 	ReadMobileParameter();

  00323	8b 4d ec	 mov	 ecx, DWORD PTR _this$[ebp]
  00326	e8 00 00 00 00	 call	 ?ReadMobileParameter@CInitParameter@@QAEXXZ ; CInitParameter::ReadMobileParameter

; 102  : 
; 103  : 	return;

  0032b	c7 45 fc ff ff
	ff ff		 mov	 DWORD PTR __$EHRec$[ebp+8], -1
  00332	8d 8d dc fc ff
	ff		 lea	 ecx, DWORD PTR _IniData$[ebp]
  00338	ff 15 00 00 00
	00		 call	 DWORD PTR __imp_??1CWHIniData@@UAE@XZ

; 104  : }

  0033e	8b 4d f4	 mov	 ecx, DWORD PTR __$EHRec$[ebp]
  00341	64 89 0d 00 00
	00 00		 mov	 DWORD PTR fs:0, ecx
  00348	59		 pop	 ecx
  00349	5f		 pop	 edi
  0034a	5e		 pop	 esi
  0034b	5b		 pop	 ebx
  0034c	8b 4d f0	 mov	 ecx, DWORD PTR __$ArrayPad$[ebp]
  0034f	33 cd		 xor	 ecx, ebp
  00351	e8 00 00 00 00	 call	 @__security_check_cookie@4
  00356	8b e5		 mov	 esp, ebp
  00358	5d		 pop	 ebp
  00359	c3		 ret	 0
_TEXT	ENDS
;	COMDAT text$x
text$x	SEGMENT
__unwindfunclet$?LoadInitParameter@CInitParameter@@QAEXXZ$0:
  00000	8d 8d dc fc ff
	ff		 lea	 ecx, DWORD PTR _IniData$[ebp]
  00006	ff 25 00 00 00
	00		 jmp	 DWORD PTR __imp_??1CWHIniData@@UAE@XZ
__ehhandler$?LoadInitParameter@CInitParameter@@QAEXXZ:
  0000c	8b 54 24 08	 mov	 edx, DWORD PTR [esp+8]
  00010	8d 42 0c	 lea	 eax, DWORD PTR [edx+12]
  00013	8b 8a 58 fc ff
	ff		 mov	 ecx, DWORD PTR [edx-936]
  00019	33 c8		 xor	 ecx, eax
  0001b	e8 00 00 00 00	 call	 @__security_check_cookie@4
  00020	8b 4a fc	 mov	 ecx, DWORD PTR [edx-4]
  00023	33 c8		 xor	 ecx, eax
  00025	e8 00 00 00 00	 call	 @__security_check_cookie@4
  0002a	b8 00 00 00 00	 mov	 eax, OFFSET __ehfuncinfo$?LoadInitParameter@CInitParameter@@QAEXXZ
  0002f	e9 00 00 00 00	 jmp	 ___CxxFrameHandler3
text$x	ENDS
?LoadInitParameter@CInitParameter@@QAEXXZ ENDP		; CInitParameter::LoadInitParameter
; Function compile flags: /Odtp /ZI
; File g:\网狐\happygamewh\服务端\系统模块\服务器组件\游戏服务器\initparameter.cpp
;	COMDAT ?InitParameter@CInitParameter@@QAEXXZ
_TEXT	SEGMENT
_this$ = -4						; size = 4
?InitParameter@CInitParameter@@QAEXXZ PROC		; CInitParameter::InitParameter, COMDAT
; _this$ = ecx

; 32   : {

  00000	55		 push	 ebp
  00001	8b ec		 mov	 ebp, esp
  00003	83 ec 44	 sub	 esp, 68			; 00000044H
  00006	53		 push	 ebx
  00007	56		 push	 esi
  00008	57		 push	 edi
  00009	89 4d fc	 mov	 DWORD PTR _this$[ebp], ecx

; 33   : 	//时间定义
; 34   : 	m_wConnectTime=TIME_CONNECT;

  0000c	b8 1e 00 00 00	 mov	 eax, 30			; 0000001eH
  00011	8b 4d fc	 mov	 ecx, DWORD PTR _this$[ebp]
  00014	66 89 41 04	 mov	 WORD PTR [ecx+4], ax

; 35   : 	m_wCollectTime=TIME_COLLECT;

  00018	b8 1e 00 00 00	 mov	 eax, 30			; 0000001eH
  0001d	8b 4d fc	 mov	 ecx, DWORD PTR _this$[ebp]
  00020	66 89 41 06	 mov	 WORD PTR [ecx+6], ax

; 36   : 
; 37   : 	//手机变量
; 38   : 	m_wVisibleTableCount=4;

  00024	b8 04 00 00 00	 mov	 eax, 4
  00029	8b 4d fc	 mov	 ecx, DWORD PTR _this$[ebp]
  0002c	66 89 41 6c	 mov	 WORD PTR [ecx+108], ax

; 39   : 	m_wEverySendPageCount=1;

  00030	b8 01 00 00 00	 mov	 eax, 1
  00035	8b 4d fc	 mov	 ecx, DWORD PTR _this$[ebp]
  00038	66 89 41 6e	 mov	 WORD PTR [ecx+110], ax

; 40   : 
; 41   : 	//协调信息
; 42   : 	m_wCorrespondPort=PORT_CENTER;

  0003c	b8 75 17 00 00	 mov	 eax, 6005		; 00001775H
  00041	8b 4d fc	 mov	 ecx, DWORD PTR _this$[ebp]
  00044	66 89 41 08	 mov	 WORD PTR [ecx+8], ax

; 43   : 	ZeroMemory(&m_CorrespondAddress,sizeof(m_CorrespondAddress));

  00048	6a 20		 push	 32			; 00000020H
  0004a	6a 00		 push	 0
  0004c	8b 45 fc	 mov	 eax, DWORD PTR _this$[ebp]
  0004f	83 c0 0a	 add	 eax, 10			; 0000000aH
  00052	50		 push	 eax
  00053	e8 00 00 00 00	 call	 _memset
  00058	83 c4 0c	 add	 esp, 12			; 0000000cH

; 44   : 
; 45   : 	m_wPrsnlRmCorrespondPort = PORT_PERSONAL_ROOM;

  0005b	b8 74 17 00 00	 mov	 eax, 6004		; 00001774H
  00060	8b 4d fc	 mov	 ecx, DWORD PTR _this$[ebp]
  00063	66 89 41 2a	 mov	 WORD PTR [ecx+42], ax

; 46   : 	ZeroMemory(&m_PrsnlRmCorrespondAddress,sizeof(m_PrsnlRmCorrespondAddress));

  00067	6a 20		 push	 32			; 00000020H
  00069	6a 00		 push	 0
  0006b	8b 45 fc	 mov	 eax, DWORD PTR _this$[ebp]
  0006e	83 c0 2c	 add	 eax, 44			; 0000002cH
  00071	50		 push	 eax
  00072	e8 00 00 00 00	 call	 _memset
  00077	83 c4 0c	 add	 esp, 12			; 0000000cH

; 47   : 
; 48   : 	//配置信息
; 49   : 	ZeroMemory(m_szServerName,sizeof(m_szServerName));

  0007a	6a 20		 push	 32			; 00000020H
  0007c	6a 00		 push	 0
  0007e	8b 45 fc	 mov	 eax, DWORD PTR _this$[ebp]
  00081	83 c0 4c	 add	 eax, 76			; 0000004cH
  00084	50		 push	 eax
  00085	e8 00 00 00 00	 call	 _memset
  0008a	83 c4 0c	 add	 esp, 12			; 0000000cH

; 50   : 	ZeroMemory(&m_ServiceAddress,sizeof(m_ServiceAddress));

  0008d	6a 20		 push	 32			; 00000020H
  0008f	6a 00		 push	 0
  00091	8b 45 fc	 mov	 eax, DWORD PTR _this$[ebp]
  00094	83 c0 70	 add	 eax, 112		; 00000070H
  00097	50		 push	 eax
  00098	e8 00 00 00 00	 call	 _memset
  0009d	83 c4 0c	 add	 esp, 12			; 0000000cH

; 51   : 	ZeroMemory(&m_TreasureDBParameter,sizeof(m_TreasureDBParameter));

  000a0	68 82 00 00 00	 push	 130			; 00000082H
  000a5	6a 00		 push	 0
  000a7	8b 45 fc	 mov	 eax, DWORD PTR _this$[ebp]
  000aa	05 90 00 00 00	 add	 eax, 144		; 00000090H
  000af	50		 push	 eax
  000b0	e8 00 00 00 00	 call	 _memset
  000b5	83 c4 0c	 add	 esp, 12			; 0000000cH

; 52   : 	ZeroMemory(&m_PlatformDBParameter,sizeof(m_PlatformDBParameter));

  000b8	68 82 00 00 00	 push	 130			; 00000082H
  000bd	6a 00		 push	 0
  000bf	8b 45 fc	 mov	 eax, DWORD PTR _this$[ebp]
  000c2	05 12 01 00 00	 add	 eax, 274		; 00000112H
  000c7	50		 push	 eax
  000c8	e8 00 00 00 00	 call	 _memset
  000cd	83 c4 0c	 add	 esp, 12			; 0000000cH

; 53   : 
; 54   : 	return;
; 55   : }

  000d0	5f		 pop	 edi
  000d1	5e		 pop	 esi
  000d2	5b		 pop	 ebx
  000d3	8b e5		 mov	 esp, ebp
  000d5	5d		 pop	 ebp
  000d6	c3		 ret	 0
?InitParameter@CInitParameter@@QAEXXZ ENDP		; CInitParameter::InitParameter
_TEXT	ENDS
; Function compile flags: /Odtp /ZI
; File g:\网狐\happygamewh\服务端\系统模块\服务器组件\游戏服务器\initparameter.cpp
;	COMDAT ??1CInitParameter@@UAE@XZ
_TEXT	SEGMENT
_this$ = -4						; size = 4
??1CInitParameter@@UAE@XZ PROC				; CInitParameter::~CInitParameter, COMDAT
; _this$ = ecx

; 27   : {

  00000	55		 push	 ebp
  00001	8b ec		 mov	 ebp, esp
  00003	83 ec 44	 sub	 esp, 68			; 00000044H
  00006	53		 push	 ebx
  00007	56		 push	 esi
  00008	57		 push	 edi
  00009	89 4d fc	 mov	 DWORD PTR _this$[ebp], ecx
  0000c	8b 45 fc	 mov	 eax, DWORD PTR _this$[ebp]
  0000f	c7 00 00 00 00
	00		 mov	 DWORD PTR [eax], OFFSET ??_7CInitParameter@@6B@

; 28   : }

  00015	5f		 pop	 edi
  00016	5e		 pop	 esi
  00017	5b		 pop	 ebx
  00018	8b e5		 mov	 esp, ebp
  0001a	5d		 pop	 ebp
  0001b	c3		 ret	 0
??1CInitParameter@@UAE@XZ ENDP				; CInitParameter::~CInitParameter
_TEXT	ENDS
; Function compile flags: /Odtp /ZI
; File g:\网狐\happygamewh\服务端\系统模块\服务器组件\游戏服务器\initparameter.cpp
;	COMDAT ??0CInitParameter@@QAE@XZ
_TEXT	SEGMENT
_this$ = -4						; size = 4
??0CInitParameter@@QAE@XZ PROC				; CInitParameter::CInitParameter, COMDAT
; _this$ = ecx

; 18   : { 

  00000	55		 push	 ebp
  00001	8b ec		 mov	 ebp, esp
  00003	83 ec 44	 sub	 esp, 68			; 00000044H
  00006	53		 push	 ebx
  00007	56		 push	 esi
  00008	57		 push	 edi
  00009	89 4d fc	 mov	 DWORD PTR _this$[ebp], ecx
  0000c	8b 45 fc	 mov	 eax, DWORD PTR _this$[ebp]
  0000f	c7 00 00 00 00
	00		 mov	 DWORD PTR [eax], OFFSET ??_7CInitParameter@@6B@

; 19   : 	InitParameter();

  00015	8b 4d fc	 mov	 ecx, DWORD PTR _this$[ebp]
  00018	e8 00 00 00 00	 call	 ?InitParameter@CInitParameter@@QAEXXZ ; CInitParameter::InitParameter

; 20   : 
; 21   : 	m_pGameServiceAttrib=NULL;

  0001d	8b 45 fc	 mov	 eax, DWORD PTR _this$[ebp]
  00020	c7 80 94 01 00
	00 00 00 00 00	 mov	 DWORD PTR [eax+404], 0

; 22   : 	m_pGameServiceOption=NULL;

  0002a	8b 45 fc	 mov	 eax, DWORD PTR _this$[ebp]
  0002d	c7 80 98 01 00
	00 00 00 00 00	 mov	 DWORD PTR [eax+408], 0

; 23   : }

  00037	8b 45 fc	 mov	 eax, DWORD PTR _this$[ebp]
  0003a	5f		 pop	 edi
  0003b	5e		 pop	 esi
  0003c	5b		 pop	 ebx
  0003d	8b e5		 mov	 esp, ebp
  0003f	5d		 pop	 ebp
  00040	c3		 ret	 0
??0CInitParameter@@QAE@XZ ENDP				; CInitParameter::CInitParameter
_TEXT	ENDS
; Function compile flags: /Odtp /ZI
; File c:\program files (x86)\microsoft visual studio\2017\community\vc\tools\msvc\14.16.27023\atlmfc\include\atltrace.h
;	COMDAT ?RegisterCategory@CTrace@ATL@@SAXPBDI@Z
_TEXT	SEGMENT
_buffer$ = -260						; size = 256
__$ArrayPad$ = -4					; size = 4
_pszCategory$ = 8					; size = 4
_nCategory$ = 12					; size = 4
?RegisterCategory@CTrace@ATL@@SAXPBDI@Z PROC		; ATL::CTrace::RegisterCategory, COMDAT

; 329  : 	{

  00000	55		 push	 ebp
  00001	8b ec		 mov	 ebp, esp
  00003	81 ec 44 01 00
	00		 sub	 esp, 324		; 00000144H
  00009	a1 00 00 00 00	 mov	 eax, DWORD PTR ___security_cookie
  0000e	33 c5		 xor	 eax, ebp
  00010	89 45 fc	 mov	 DWORD PTR __$ArrayPad$[ebp], eax
  00013	53		 push	 ebx
  00014	56		 push	 esi
  00015	57		 push	 edi

; 330  : 		if (pszCategory == nullptr)

  00016	83 7d 08 00	 cmp	 DWORD PTR _pszCategory$[ebp], 0
  0001a	75 05		 jne	 SHORT $LN2@RegisterCa

; 331  : 		{
; 332  : 			return;

  0001c	e9 a9 00 00 00	 jmp	 $LN1@RegisterCa
$LN2@RegisterCa:

; 333  : 		}
; 334  : 
; 335  : 		if (m_nLastCategory >= MaxCategoryArray) 

  00021	83 3d 00 00 00
	00 20		 cmp	 DWORD PTR ?m_nLastCategory@CTrace@ATL@@1IA, 32 ; ATL::CTrace::m_nLastCategory, 00000020H
  00028	72 2d		 jb	 SHORT $LN3@RegisterCa

; 336  : 		{
; 337  : 			ATLASSERT(false && "Too many categories defined");

  0002a	33 c0		 xor	 eax, eax
  0002c	75 27		 jne	 SHORT $LN5@RegisterCa
  0002e	68 00 00 00 00	 push	 OFFSET ??_C@_1EO@EBPPKGOM@?$AAf?$AAa?$AAl?$AAs?$AAe?$AA?5?$AA?$CG?$AA?$CG?$AA?5?$AA?$CC?$AAT?$AAo?$AAo?$AA?5?$AAm@
  00033	68 00 00 00 00	 push	 OFFSET ??_C@_17CNPHIMPH@?$AA?$CF?$AAl?$AAs@
  00038	6a 00		 push	 0
  0003a	68 51 01 00 00	 push	 337			; 00000151H
  0003f	68 00 00 00 00	 push	 OFFSET ??_C@_1OE@PDFAMNPL@?$AAc?$AA?3?$AA?2?$AAp?$AAr?$AAo?$AAg?$AAr?$AAa?$AAm?$AA?5?$AAf?$AAi?$AAl?$AAe@
  00044	6a 02		 push	 2
  00046	ff 15 00 00 00
	00		 call	 DWORD PTR __imp___CrtDbgReportW
  0004c	83 c4 18	 add	 esp, 24			; 00000018H
  0004f	83 f8 01	 cmp	 eax, 1
  00052	75 01		 jne	 SHORT $LN5@RegisterCa
  00054	cc		 int	 3
$LN5@RegisterCa:

; 338  : 			return;

  00055	eb 73		 jmp	 SHORT $LN1@RegisterCa
$LN3@RegisterCa:

; 339  : 		}
; 340  : 
; 341  : 		m_nMap[m_nLastCategory].nCategory = nCategory;

  00057	69 05 00 00 00
	00 04 01 00 00	 imul	 eax, DWORD PTR ?m_nLastCategory@CTrace@ATL@@1IA, 260 ; ATL::CTrace::m_nLastCategory
  00061	8b 4d 0c	 mov	 ecx, DWORD PTR _nCategory$[ebp]
  00064	89 88 00 00 00
	00		 mov	 DWORD PTR ?m_nMap@CTrace@ATL@@1PAUCategoryMap@12@A[eax], ecx

; 342  : #ifdef _UNICODE
; 343  : 		wcscpy_s(m_nMap[m_nLastCategory].categryName, MaxLengthOfCategoryName - 1, pszCategory);
; 344  : #else
; 345  : 		wchar_t buffer[MaxLengthOfCategoryName] = { 0 };	

  0006a	68 00 01 00 00	 push	 256			; 00000100H
  0006f	6a 00		 push	 0
  00071	8d 85 fc fe ff
	ff		 lea	 eax, DWORD PTR _buffer$[ebp]
  00077	50		 push	 eax
  00078	e8 00 00 00 00	 call	 _memset
  0007d	83 c4 0c	 add	 esp, 12			; 0000000cH

; 346  : #if _MSC_VER < 1900
; 347  : 		swprintf_s(buffer, MaxLengthOfCategoryName - 1, L"%S", pszCategory);
; 348  : #else
; 349  : 		swprintf_s(buffer, MaxLengthOfCategoryName - 1, L"%hs", pszCategory);

  00080	8b 45 08	 mov	 eax, DWORD PTR _pszCategory$[ebp]
  00083	50		 push	 eax
  00084	68 00 00 00 00	 push	 OFFSET ??_C@_17LGGGMOOB@?$AA?$CF?$AAh?$AAs@
  00089	6a 7f		 push	 127			; 0000007fH
  0008b	8d 8d fc fe ff
	ff		 lea	 ecx, DWORD PTR _buffer$[ebp]
  00091	51		 push	 ecx
  00092	e8 00 00 00 00	 call	 _swprintf_s
  00097	83 c4 10	 add	 esp, 16			; 00000010H

; 350  : #endif
; 351  : 		wcscpy_s(m_nMap[m_nLastCategory].categryName, MaxLengthOfCategoryName - 1, buffer);

  0009a	8d 85 fc fe ff
	ff		 lea	 eax, DWORD PTR _buffer$[ebp]
  000a0	50		 push	 eax
  000a1	6a 7f		 push	 127			; 0000007fH
  000a3	69 0d 00 00 00
	00 04 01 00 00	 imul	 ecx, DWORD PTR ?m_nLastCategory@CTrace@ATL@@1IA, 260 ; ATL::CTrace::m_nLastCategory
  000ad	81 c1 04 00 00
	00		 add	 ecx, OFFSET ?m_nMap@CTrace@ATL@@1PAUCategoryMap@12@A+4
  000b3	51		 push	 ecx
  000b4	ff 15 00 00 00
	00		 call	 DWORD PTR __imp__wcscpy_s
  000ba	83 c4 0c	 add	 esp, 12			; 0000000cH

; 352  : #endif
; 353  : 	
; 354  : 		m_nLastCategory++;

  000bd	a1 00 00 00 00	 mov	 eax, DWORD PTR ?m_nLastCategory@CTrace@ATL@@1IA ; ATL::CTrace::m_nLastCategory
  000c2	83 c0 01	 add	 eax, 1
  000c5	a3 00 00 00 00	 mov	 DWORD PTR ?m_nLastCategory@CTrace@ATL@@1IA, eax ; ATL::CTrace::m_nLastCategory
$LN1@RegisterCa:

; 355  : 	}

  000ca	5f		 pop	 edi
  000cb	5e		 pop	 esi
  000cc	5b		 pop	 ebx
  000cd	8b 4d fc	 mov	 ecx, DWORD PTR __$ArrayPad$[ebp]
  000d0	33 cd		 xor	 ecx, ebp
  000d2	e8 00 00 00 00	 call	 @__security_check_cookie@4
  000d7	8b e5		 mov	 esp, ebp
  000d9	5d		 pop	 ebp
  000da	c3		 ret	 0
?RegisterCategory@CTrace@ATL@@SAXPBDI@Z ENDP		; ATL::CTrace::RegisterCategory
_TEXT	ENDS
; Function compile flags: /Odtp /ZI
; File c:\program files (x86)\microsoft visual studio\2017\community\vc\tools\msvc\14.16.27023\atlmfc\include\atltrace.h
;	COMDAT ??__EatlTraceString@ATL@@YAXXZ
text$di	SEGMENT
??__EatlTraceString@ATL@@YAXXZ PROC			; ATL::`dynamic initializer for 'atlTraceString'', COMDAT

; 114  : __declspec(selectany) CTraceCategoryEx<CTraceCategoryEx<>::TraceString> atlTraceString(_T("atlTraceString"));

  00000	55		 push	 ebp
  00001	8b ec		 mov	 ebp, esp
  00003	83 ec 40	 sub	 esp, 64			; 00000040H
  00006	53		 push	 ebx
  00007	56		 push	 esi
  00008	57		 push	 edi
  00009	68 00 00 00 00	 push	 OFFSET ??_C@_0P@MBNHGHMI@atlTraceString@
  0000e	b9 00 00 00 00	 mov	 ecx, OFFSET ?atlTraceString@ATL@@3V?$CTraceCategoryEx@$0CAAAA@$0A@@1@A ; ATL::atlTraceString
  00013	e8 00 00 00 00	 call	 ??0?$CTraceCategoryEx@$0CAAAA@$0A@@ATL@@QAE@PBD@Z ; ATL::CTraceCategoryEx<131072,0>::CTraceCategoryEx<131072,0>
  00018	5f		 pop	 edi
  00019	5e		 pop	 esi
  0001a	5b		 pop	 ebx
  0001b	8b e5		 mov	 esp, ebp
  0001d	5d		 pop	 ebp
  0001e	c3		 ret	 0
??__EatlTraceString@ATL@@YAXXZ ENDP			; ATL::`dynamic initializer for 'atlTraceString''
text$di	ENDS
; Function compile flags: /Odtp /ZI
; File c:\program files (x86)\microsoft visual studio\2017\community\vc\tools\msvc\14.16.27023\atlmfc\include\atltrace.h
;	COMDAT ??0?$CTraceCategoryEx@$0CAAAA@$0A@@ATL@@QAE@PBD@Z
_TEXT	SEGMENT
_this$ = -4						; size = 4
_pszCategoryName$ = 8					; size = 4
??0?$CTraceCategoryEx@$0CAAAA@$0A@@ATL@@QAE@PBD@Z PROC	; ATL::CTraceCategoryEx<131072,0>::CTraceCategoryEx<131072,0>, COMDAT
; _this$ = ecx

; 480  : {

  00000	55		 push	 ebp
  00001	8b ec		 mov	 ebp, esp
  00003	83 ec 44	 sub	 esp, 68			; 00000044H
  00006	53		 push	 ebx
  00007	56		 push	 esi
  00008	57		 push	 edi
  00009	89 4d fc	 mov	 DWORD PTR _this$[ebp], ecx

; 481  : 	CTrace::RegisterCategory(pszCategoryName, traceCategory);

  0000c	68 00 00 02 00	 push	 131072			; 00020000H
  00011	8b 45 08	 mov	 eax, DWORD PTR _pszCategoryName$[ebp]
  00014	50		 push	 eax
  00015	e8 00 00 00 00	 call	 ?RegisterCategory@CTrace@ATL@@SAXPBDI@Z ; ATL::CTrace::RegisterCategory
  0001a	83 c4 08	 add	 esp, 8

; 482  : }

  0001d	8b 45 fc	 mov	 eax, DWORD PTR _this$[ebp]
  00020	5f		 pop	 edi
  00021	5e		 pop	 esi
  00022	5b		 pop	 ebx
  00023	8b e5		 mov	 esp, ebp
  00025	5d		 pop	 ebp
  00026	c2 04 00	 ret	 4
??0?$CTraceCategoryEx@$0CAAAA@$0A@@ATL@@QAE@PBD@Z ENDP	; ATL::CTraceCategoryEx<131072,0>::CTraceCategoryEx<131072,0>
_TEXT	ENDS
; Function compile flags: /Odtp /ZI
; File c:\program files (x86)\microsoft visual studio\2017\community\vc\tools\msvc\14.16.27023\atlmfc\include\atltrace.h
;	COMDAT ??__EatlTraceException@ATL@@YAXXZ
text$di	SEGMENT
??__EatlTraceException@ATL@@YAXXZ PROC			; ATL::`dynamic initializer for 'atlTraceException'', COMDAT

; 110  : __declspec(selectany) CTraceCategoryEx<CTraceCategoryEx<>::TraceException> atlTraceException(_T("atlTraceException"));

  00000	55		 push	 ebp
  00001	8b ec		 mov	 ebp, esp
  00003	83 ec 40	 sub	 esp, 64			; 00000040H
  00006	53		 push	 ebx
  00007	56		 push	 esi
  00008	57		 push	 edi
  00009	68 00 00 00 00	 push	 OFFSET ??_C@_0BC@PGMFNIFA@atlTraceException@
  0000e	b9 00 00 00 00	 mov	 ecx, OFFSET ?atlTraceException@ATL@@3V?$CTraceCategoryEx@$0CAAA@$0A@@1@A ; ATL::atlTraceException
  00013	e8 00 00 00 00	 call	 ??0?$CTraceCategoryEx@$0CAAA@$0A@@ATL@@QAE@PBD@Z ; ATL::CTraceCategoryEx<8192,0>::CTraceCategoryEx<8192,0>
  00018	5f		 pop	 edi
  00019	5e		 pop	 esi
  0001a	5b		 pop	 ebx
  0001b	8b e5		 mov	 esp, ebp
  0001d	5d		 pop	 ebp
  0001e	c3		 ret	 0
??__EatlTraceException@ATL@@YAXXZ ENDP			; ATL::`dynamic initializer for 'atlTraceException''
text$di	ENDS
; Function compile flags: /Odtp /ZI
; File c:\program files (x86)\microsoft visual studio\2017\community\vc\tools\msvc\14.16.27023\atlmfc\include\atltrace.h
;	COMDAT ??0?$CTraceCategoryEx@$0CAAA@$0A@@ATL@@QAE@PBD@Z
_TEXT	SEGMENT
_this$ = -4						; size = 4
_pszCategoryName$ = 8					; size = 4
??0?$CTraceCategoryEx@$0CAAA@$0A@@ATL@@QAE@PBD@Z PROC	; ATL::CTraceCategoryEx<8192,0>::CTraceCategoryEx<8192,0>, COMDAT
; _this$ = ecx

; 480  : {

  00000	55		 push	 ebp
  00001	8b ec		 mov	 ebp, esp
  00003	83 ec 44	 sub	 esp, 68			; 00000044H
  00006	53		 push	 ebx
  00007	56		 push	 esi
  00008	57		 push	 edi
  00009	89 4d fc	 mov	 DWORD PTR _this$[ebp], ecx

; 481  : 	CTrace::RegisterCategory(pszCategoryName, traceCategory);

  0000c	68 00 20 00 00	 push	 8192			; 00002000H
  00011	8b 45 08	 mov	 eax, DWORD PTR _pszCategoryName$[ebp]
  00014	50		 push	 eax
  00015	e8 00 00 00 00	 call	 ?RegisterCategory@CTrace@ATL@@SAXPBDI@Z ; ATL::CTrace::RegisterCategory
  0001a	83 c4 08	 add	 esp, 8

; 482  : }

  0001d	8b 45 fc	 mov	 eax, DWORD PTR _this$[ebp]
  00020	5f		 pop	 edi
  00021	5e		 pop	 esi
  00022	5b		 pop	 ebx
  00023	8b e5		 mov	 esp, ebp
  00025	5d		 pop	 ebp
  00026	c2 04 00	 ret	 4
??0?$CTraceCategoryEx@$0CAAA@$0A@@ATL@@QAE@PBD@Z ENDP	; ATL::CTraceCategoryEx<8192,0>::CTraceCategoryEx<8192,0>
_TEXT	ENDS
; Function compile flags: /Odtp /ZI
; File c:\program files (x86)\microsoft visual studio\2017\community\vc\tools\msvc\14.16.27023\atlmfc\include\afx.h
;	COMDAT ?AfxAssertFailedLine@@YGHPBDH@Z
_TEXT	SEGMENT
_bResult$ = -36						; size = 4
_bQuit$ = -32						; size = 4
_msg$ = -28						; size = 28
_lpszFileName$ = 8					; size = 4
_nLine$ = 12						; size = 4
?AfxAssertFailedLine@@YGHPBDH@Z PROC			; AfxAssertFailedLine, COMDAT

; 312  : {

  00000	55		 push	 ebp
  00001	8b ec		 mov	 ebp, esp
  00003	83 ec 64	 sub	 esp, 100		; 00000064H
  00006	53		 push	 ebx
  00007	56		 push	 esi
  00008	57		 push	 edi

; 313  : 	// we remove WM_QUIT because if it is in the queue then the message box
; 314  : 	// won't display
; 315  : 	MSG msg;
; 316  : 	BOOL bQuit = PeekMessage(&msg, NULL, WM_QUIT, WM_QUIT, PM_REMOVE);

  00009	6a 01		 push	 1
  0000b	6a 12		 push	 18			; 00000012H
  0000d	6a 12		 push	 18			; 00000012H
  0000f	6a 00		 push	 0
  00011	8d 45 e4	 lea	 eax, DWORD PTR _msg$[ebp]
  00014	50		 push	 eax
  00015	ff 15 00 00 00
	00		 call	 DWORD PTR __imp__PeekMessageA@20
  0001b	89 45 e0	 mov	 DWORD PTR _bQuit$[ebp], eax

; 317  : 	BOOL bResult = _CrtDbgReport(_CRT_ASSERT, lpszFileName, nLine, NULL, NULL);

  0001e	6a 00		 push	 0
  00020	6a 00		 push	 0
  00022	8b 45 0c	 mov	 eax, DWORD PTR _nLine$[ebp]
  00025	50		 push	 eax
  00026	8b 4d 08	 mov	 ecx, DWORD PTR _lpszFileName$[ebp]
  00029	51		 push	 ecx
  0002a	6a 02		 push	 2
  0002c	ff 15 00 00 00
	00		 call	 DWORD PTR __imp___CrtDbgReport
  00032	83 c4 14	 add	 esp, 20			; 00000014H
  00035	89 45 dc	 mov	 DWORD PTR _bResult$[ebp], eax

; 318  : 	if (bQuit)

  00038	83 7d e0 00	 cmp	 DWORD PTR _bQuit$[ebp], 0
  0003c	74 0a		 je	 SHORT $LN2@AfxAssertF

; 319  : 		PostQuitMessage((int)msg.wParam);

  0003e	8b 45 ec	 mov	 eax, DWORD PTR _msg$[ebp+8]
  00041	50		 push	 eax
  00042	ff 15 00 00 00
	00		 call	 DWORD PTR __imp__PostQuitMessage@4
$LN2@AfxAssertF:

; 320  : 	return bResult;

  00048	8b 45 dc	 mov	 eax, DWORD PTR _bResult$[ebp]

; 321  : }

  0004b	5f		 pop	 edi
  0004c	5e		 pop	 esi
  0004d	5b		 pop	 ebx
  0004e	8b e5		 mov	 esp, ebp
  00050	5d		 pop	 ebp
  00051	c2 08 00	 ret	 8
?AfxAssertFailedLine@@YGHPBDH@Z ENDP			; AfxAssertFailedLine
_TEXT	ENDS
; Function compile flags: /Odtp /ZI
; File c:\program files (x86)\windows kits\10\include\10.0.17763.0\ucrt\stdio.h
;	COMDAT __vsnprintf_s
_TEXT	SEGMENT
__Buffer$ = 8						; size = 4
__BufferCount$ = 12					; size = 4
__MaxCount$ = 16					; size = 4
__Format$ = 20						; size = 4
__ArgList$ = 24						; size = 4
__vsnprintf_s PROC					; COMDAT

; 1605 :     {

  00000	55		 push	 ebp
  00001	8b ec		 mov	 ebp, esp
  00003	83 ec 40	 sub	 esp, 64			; 00000040H
  00006	53		 push	 ebx
  00007	56		 push	 esi
  00008	57		 push	 edi

; 1606 :         return _vsnprintf_s_l(_Buffer, _BufferCount, _MaxCount, _Format, NULL, _ArgList);

  00009	8b 45 18	 mov	 eax, DWORD PTR __ArgList$[ebp]
  0000c	50		 push	 eax
  0000d	6a 00		 push	 0
  0000f	8b 4d 14	 mov	 ecx, DWORD PTR __Format$[ebp]
  00012	51		 push	 ecx
  00013	8b 55 10	 mov	 edx, DWORD PTR __MaxCount$[ebp]
  00016	52		 push	 edx
  00017	8b 45 0c	 mov	 eax, DWORD PTR __BufferCount$[ebp]
  0001a	50		 push	 eax
  0001b	8b 4d 08	 mov	 ecx, DWORD PTR __Buffer$[ebp]
  0001e	51		 push	 ecx
  0001f	e8 00 00 00 00	 call	 __vsnprintf_s_l
  00024	83 c4 18	 add	 esp, 24			; 00000018H

; 1607 :     }

  00027	5f		 pop	 edi
  00028	5e		 pop	 esi
  00029	5b		 pop	 ebx
  0002a	8b e5		 mov	 esp, ebp
  0002c	5d		 pop	 ebp
  0002d	c3		 ret	 0
__vsnprintf_s ENDP
_TEXT	ENDS
; Function compile flags: /Odtp /ZI
; File c:\program files (x86)\windows kits\10\include\10.0.17763.0\ucrt\stdio.h
;	COMDAT __vsnprintf_s_l
_TEXT	SEGMENT
tv74 = -72						; size = 4
__Result$ = -4						; size = 4
__Buffer$ = 8						; size = 4
__BufferCount$ = 12					; size = 4
__MaxCount$ = 16					; size = 4
__Format$ = 20						; size = 4
__Locale$ = 24						; size = 4
__ArgList$ = 28						; size = 4
__vsnprintf_s_l PROC					; COMDAT

; 1584 :     {

  00000	55		 push	 ebp
  00001	8b ec		 mov	 ebp, esp
  00003	83 ec 48	 sub	 esp, 72			; 00000048H
  00006	53		 push	 ebx
  00007	56		 push	 esi
  00008	57		 push	 edi

; 1585 :         int const _Result = __stdio_common_vsnprintf_s(

  00009	8b 45 1c	 mov	 eax, DWORD PTR __ArgList$[ebp]
  0000c	50		 push	 eax
  0000d	8b 4d 18	 mov	 ecx, DWORD PTR __Locale$[ebp]
  00010	51		 push	 ecx
  00011	8b 55 14	 mov	 edx, DWORD PTR __Format$[ebp]
  00014	52		 push	 edx
  00015	8b 45 10	 mov	 eax, DWORD PTR __MaxCount$[ebp]
  00018	50		 push	 eax
  00019	8b 4d 0c	 mov	 ecx, DWORD PTR __BufferCount$[ebp]
  0001c	51		 push	 ecx
  0001d	8b 55 08	 mov	 edx, DWORD PTR __Buffer$[ebp]
  00020	52		 push	 edx
  00021	e8 00 00 00 00	 call	 ___local_stdio_printf_options
  00026	8b 48 04	 mov	 ecx, DWORD PTR [eax+4]
  00029	51		 push	 ecx
  0002a	8b 10		 mov	 edx, DWORD PTR [eax]
  0002c	52		 push	 edx
  0002d	ff 15 00 00 00
	00		 call	 DWORD PTR __imp____stdio_common_vsnprintf_s
  00033	83 c4 20	 add	 esp, 32			; 00000020H
  00036	89 45 fc	 mov	 DWORD PTR __Result$[ebp], eax

; 1586 :             _CRT_INTERNAL_LOCAL_PRINTF_OPTIONS,
; 1587 :             _Buffer, _BufferCount, _MaxCount, _Format, _Locale, _ArgList);
; 1588 : 
; 1589 :         return _Result < 0 ? -1 : _Result;

  00039	83 7d fc 00	 cmp	 DWORD PTR __Result$[ebp], 0
  0003d	7d 09		 jge	 SHORT $LN3@vsnprintf_
  0003f	c7 45 b8 ff ff
	ff ff		 mov	 DWORD PTR tv74[ebp], -1
  00046	eb 06		 jmp	 SHORT $LN4@vsnprintf_
$LN3@vsnprintf_:
  00048	8b 45 fc	 mov	 eax, DWORD PTR __Result$[ebp]
  0004b	89 45 b8	 mov	 DWORD PTR tv74[ebp], eax
$LN4@vsnprintf_:
  0004e	8b 45 b8	 mov	 eax, DWORD PTR tv74[ebp]

; 1590 :     }

  00051	5f		 pop	 edi
  00052	5e		 pop	 esi
  00053	5b		 pop	 ebx
  00054	8b e5		 mov	 esp, ebp
  00056	5d		 pop	 ebp
  00057	c3		 ret	 0
__vsnprintf_s_l ENDP
_TEXT	ENDS
; Function compile flags: /Odtp /ZI
; File c:\program files (x86)\windows kits\10\include\10.0.17763.0\ucrt\corecrt_wstdio.h
;	COMDAT _swprintf_s
_TEXT	SEGMENT
__ArgList$ = -8						; size = 4
__Result$ = -4						; size = 4
__Buffer$ = 8						; size = 4
__BufferCount$ = 12					; size = 4
__Format$ = 16						; size = 4
_swprintf_s PROC					; COMDAT

; 1538 :         {

  00000	55		 push	 ebp
  00001	8b ec		 mov	 ebp, esp
  00003	83 ec 4c	 sub	 esp, 76			; 0000004cH
  00006	53		 push	 ebx
  00007	56		 push	 esi
  00008	57		 push	 edi

; 1539 :             int _Result;
; 1540 :             va_list _ArgList;
; 1541 :             __crt_va_start(_ArgList, _Format);

  00009	8d 45 14	 lea	 eax, DWORD PTR __Format$[ebp+4]
  0000c	89 45 f8	 mov	 DWORD PTR __ArgList$[ebp], eax

; 1542 :             _Result = _vswprintf_s_l(_Buffer, _BufferCount, _Format, NULL, _ArgList);

  0000f	8b 45 f8	 mov	 eax, DWORD PTR __ArgList$[ebp]
  00012	50		 push	 eax
  00013	6a 00		 push	 0
  00015	8b 4d 10	 mov	 ecx, DWORD PTR __Format$[ebp]
  00018	51		 push	 ecx
  00019	8b 55 0c	 mov	 edx, DWORD PTR __BufferCount$[ebp]
  0001c	52		 push	 edx
  0001d	8b 45 08	 mov	 eax, DWORD PTR __Buffer$[ebp]
  00020	50		 push	 eax
  00021	e8 00 00 00 00	 call	 __vswprintf_s_l
  00026	83 c4 14	 add	 esp, 20			; 00000014H
  00029	89 45 fc	 mov	 DWORD PTR __Result$[ebp], eax

; 1543 :             __crt_va_end(_ArgList);

  0002c	c7 45 f8 00 00
	00 00		 mov	 DWORD PTR __ArgList$[ebp], 0

; 1544 :             return _Result;

  00033	8b 45 fc	 mov	 eax, DWORD PTR __Result$[ebp]

; 1545 :         }

  00036	5f		 pop	 edi
  00037	5e		 pop	 esi
  00038	5b		 pop	 ebx
  00039	8b e5		 mov	 esp, ebp
  0003b	5d		 pop	 ebp
  0003c	c3		 ret	 0
_swprintf_s ENDP
_TEXT	ENDS
; Function compile flags: /Odtp /ZI
; File c:\program files (x86)\windows kits\10\include\10.0.17763.0\ucrt\corecrt_wstdio.h
;	COMDAT __vswprintf_s_l
_TEXT	SEGMENT
tv73 = -72						; size = 4
__Result$ = -4						; size = 4
__Buffer$ = 8						; size = 4
__BufferCount$ = 12					; size = 4
__Format$ = 16						; size = 4
__Locale$ = 20						; size = 4
__ArgList$ = 24						; size = 4
__vswprintf_s_l PROC					; COMDAT

; 1264 :     {

  00000	55		 push	 ebp
  00001	8b ec		 mov	 ebp, esp
  00003	83 ec 48	 sub	 esp, 72			; 00000048H
  00006	53		 push	 ebx
  00007	56		 push	 esi
  00008	57		 push	 edi

; 1265 :         int const _Result = __stdio_common_vswprintf_s(

  00009	8b 45 18	 mov	 eax, DWORD PTR __ArgList$[ebp]
  0000c	50		 push	 eax
  0000d	8b 4d 14	 mov	 ecx, DWORD PTR __Locale$[ebp]
  00010	51		 push	 ecx
  00011	8b 55 10	 mov	 edx, DWORD PTR __Format$[ebp]
  00014	52		 push	 edx
  00015	8b 45 0c	 mov	 eax, DWORD PTR __BufferCount$[ebp]
  00018	50		 push	 eax
  00019	8b 4d 08	 mov	 ecx, DWORD PTR __Buffer$[ebp]
  0001c	51		 push	 ecx
  0001d	e8 00 00 00 00	 call	 ___local_stdio_printf_options
  00022	8b 50 04	 mov	 edx, DWORD PTR [eax+4]
  00025	52		 push	 edx
  00026	8b 00		 mov	 eax, DWORD PTR [eax]
  00028	50		 push	 eax
  00029	ff 15 00 00 00
	00		 call	 DWORD PTR __imp____stdio_common_vswprintf_s
  0002f	83 c4 1c	 add	 esp, 28			; 0000001cH
  00032	89 45 fc	 mov	 DWORD PTR __Result$[ebp], eax

; 1266 :             _CRT_INTERNAL_LOCAL_PRINTF_OPTIONS,
; 1267 :             _Buffer, _BufferCount, _Format, _Locale, _ArgList);
; 1268 : 
; 1269 :         return _Result < 0 ? -1 : _Result;

  00035	83 7d fc 00	 cmp	 DWORD PTR __Result$[ebp], 0
  00039	7d 09		 jge	 SHORT $LN3@vswprintf_
  0003b	c7 45 b8 ff ff
	ff ff		 mov	 DWORD PTR tv73[ebp], -1
  00042	eb 06		 jmp	 SHORT $LN4@vswprintf_
$LN3@vswprintf_:
  00044	8b 45 fc	 mov	 eax, DWORD PTR __Result$[ebp]
  00047	89 45 b8	 mov	 DWORD PTR tv73[ebp], eax
$LN4@vswprintf_:
  0004a	8b 45 b8	 mov	 eax, DWORD PTR tv73[ebp]

; 1270 :     }

  0004d	5f		 pop	 edi
  0004e	5e		 pop	 esi
  0004f	5b		 pop	 ebx
  00050	8b e5		 mov	 esp, ebp
  00052	5d		 pop	 ebp
  00053	c3		 ret	 0
__vswprintf_s_l ENDP
_TEXT	ENDS
; Function compile flags: /Odtp /ZI
; File c:\program files (x86)\windows kits\10\include\10.0.17763.0\ucrt\corecrt_stdio_config.h
;	COMDAT ___local_stdio_printf_options
_TEXT	SEGMENT
___local_stdio_printf_options PROC			; COMDAT

; 86   :     {

  00000	55		 push	 ebp
  00001	8b ec		 mov	 ebp, esp
  00003	83 ec 40	 sub	 esp, 64			; 00000040H
  00006	53		 push	 ebx
  00007	56		 push	 esi
  00008	57		 push	 edi

; 87   :         static unsigned __int64 _OptionsStorage;
; 88   :         return &_OptionsStorage;

  00009	b8 00 00 00 00	 mov	 eax, OFFSET ?_OptionsStorage@?1??__local_stdio_printf_options@@9@4_KA ; `__local_stdio_printf_options'::`2'::_OptionsStorage

; 89   :     }

  0000e	5f		 pop	 edi
  0000f	5e		 pop	 esi
  00010	5b		 pop	 ebx
  00011	8b e5		 mov	 esp, ebp
  00013	5d		 pop	 ebp
  00014	c3		 ret	 0
___local_stdio_printf_options ENDP
_TEXT	ENDS
; Function compile flags: /Odtp /ZI
; File g:\网狐\happygamewh\服务端\系统模块\服务器组件\游戏服务器\initparameter.cpp
;	COMDAT ?__empty_global_delete@@YAXPAXI@Z
_TEXT	SEGMENT
___formal$ = 8						; size = 4
___formal$ = 12						; size = 4
?__empty_global_delete@@YAXPAXI@Z PROC			; __empty_global_delete, COMDAT

  00000	55		 push	 ebp
  00001	8b ec		 mov	 ebp, esp
  00003	83 ec 40	 sub	 esp, 64			; 00000040H
  00006	53		 push	 ebx
  00007	56		 push	 esi
  00008	57		 push	 edi
  00009	5f		 pop	 edi
  0000a	5e		 pop	 esi
  0000b	5b		 pop	 ebx
  0000c	8b e5		 mov	 esp, ebp
  0000e	5d		 pop	 ebp
  0000f	c3		 ret	 0
?__empty_global_delete@@YAXPAXI@Z ENDP			; __empty_global_delete
_TEXT	ENDS
; Function compile flags: /Odtp /ZI
; File g:\网狐\happygamewh\服务端\系统模块\服务器组件\游戏服务器\initparameter.cpp
;	COMDAT ?__empty_global_delete@@YAXPAX@Z
_TEXT	SEGMENT
___formal$ = 8						; size = 4
?__empty_global_delete@@YAXPAX@Z PROC			; __empty_global_delete, COMDAT

  00000	55		 push	 ebp
  00001	8b ec		 mov	 ebp, esp
  00003	83 ec 40	 sub	 esp, 64			; 00000040H
  00006	53		 push	 ebx
  00007	56		 push	 esi
  00008	57		 push	 edi
  00009	5f		 pop	 edi
  0000a	5e		 pop	 esi
  0000b	5b		 pop	 ebx
  0000c	8b e5		 mov	 esp, ebp
  0000e	5d		 pop	 ebp
  0000f	c3		 ret	 0
?__empty_global_delete@@YAXPAX@Z ENDP			; __empty_global_delete
_TEXT	ENDS
END
