; Listing generated by Microsoft (R) Optimizing Compiler Version 19.16.27032.1 

	TITLE	G:\网狐\HappyGameWH\服务端\系统模块\服务器组件\游戏服务器\ServiceUnits.cpp
	.686P
	.XMM
	include listing.inc
	.model	flat

INCLUDELIB MSVCRTD
INCLUDELIB OLDNAMES

PUBLIC	?OnUIControlRequest@CServiceUnits@@IAEJIJ@Z	; CServiceUnits::OnUIControlRequest
PUBLIC	?g_pServiceUnits@CServiceUnits@@2PAV1@A		; CServiceUnits::g_pServiceUnits
EXTRN	?GetThisMessageMap@CWnd@@KGPBUAFX_MSGMAP@@XZ:PROC ; CWnd::GetThisMessageMap
_BSS	SEGMENT
?g_pServiceUnits@CServiceUnits@@2PAV1@A DD 01H DUP (?)	; CServiceUnits::g_pServiceUnits
_BSS	ENDS
CONST	SEGMENT
?IID_IUnknownEx@@3U_GUID@@B DD 05feec21eH		; IID_IUnknownEx
	DW	0dbf3H
	DW	046f0H
	DB	09fH
	DB	057H
	DB	0d1H
	DB	0cdH
	DB	071H
	DB	01cH
	DB	046H
	DB	0deH
?szCompilation@@3QBDB DB 'ED56BE63-3026-465B-9DFC-17F595145F3D', 00H ; szCompilation
	ORG $+3
?IID_IDataBase@@3U_GUID@@B DD 0a2e38a78H		; IID_IDataBase
	DW	01e4fH
	DW	04de4H
	DB	0a5H
	DB	0d1H
	DB	0b9H
	DB	019H
	DB	09bH
	DB	0ceH
	DB	041H
	DB	0aeH
?IID_IDataBaseEngine@@3U_GUID@@B DD 047b5a119H		; IID_IDataBaseEngine
	DW	01676H
	DW	049a3H
	DB	0beH
	DB	0aeH
	DB	0caH
	DB	027H
	DB	0ebH
	DB	059H
	DB	097H
	DB	022H
?IID_ITCPNetworkEngine@@3U_GUID@@B DD 07747f683H	; IID_ITCPNetworkEngine
	DW	0c0daH
	DW	04588H
	DB	089H
	DB	0ccH
	DB	015H
	DB	093H
	DB	0acH
	DB	0c0H
	DB	044H
	DB	0c8H
?IID_ITCPSocketService@@3U_GUID@@B DD 0709a4449H	; IID_ITCPSocketService
	DW	0ad77H
	DW	04b3dH
	DB	0b4H
	DB	0d6H
	DB	08dH
	DB	0bH
	DB	028H
	DB	065H
	DB	0ecH
	DB	0aeH
?IID_ITimerEngine@@3U_GUID@@B DD 0496401aeH		; IID_ITimerEngine
	DW	06fb0H
	DW	04e9fH
	DB	090H
	DB	098H
	DB	044H
	DB	09dH
	DB	09cH
	DB	0b2H
	DB	0bdH
	DB	097H
?IID_IDataBaseEngineEvent@@3U_GUID@@B DD 0c29c7131H	; IID_IDataBaseEngineEvent
	DW	0e84bH
	DW	04553H
	DB	0a8H
	DB	038H
	DB	012H
	DB	0eeH
	DB	07H
	DB	0ddH
	DB	0eH
	DB	0a3H
?IID_IAttemperEngine@@3U_GUID@@B DD 0b070b2cH		; IID_IAttemperEngine
	DW	09d72H
	DW	042d2H
	DB	0a5H
	DB	070H
	DB	0baH
	DB	02cH
	DB	0bfH
	DB	06fH
	DB	0bbH
	DB	01cH
?IID_IGameServiceManager@@3U_GUID@@B DD 04b2b9d8fH	; IID_IGameServiceManager
	DW	0ce1bH
	DW	044f3H
	DB	0a5H
	DB	022H
	DB	065H
	DB	01aH
	DB	065H
	DB	0c9H
	DB	0aH
	DB	025H
?IID_IGameServiceCustomTime@@3U_GUID@@B DD 0f57573b0H	; IID_IGameServiceCustomTime
	DW	063c3H
	DW	043a9H
	DB	08cH
	DB	0b1H
	DB	0e2H
	DB	022H
	DB	0d3H
	DB	093H
	DB	0e2H
	DB	0bH
?IID_IDBCorrespondManager@@3U_GUID@@B DD 0ba43154dH	; IID_IDBCorrespondManager
	DW	0924bH
	DW	04018H
	DB	0b2H
	DB	06dH
	DB	0a6H
	DB	096H
	DB	0b6H
	DB	028H
	DB	026H
	DB	0b2H
?IID_IMatchServiceManager@@3U_GUID@@B DD 07d381e8aH	; IID_IMatchServiceManager
	DW	08c10H
	DW	04443H
	DB	0b5H
	DB	0adH
	DB	075H
	DB	04bH
	DB	0e5H
	DB	050H
	DB	0c5H
	DB	053H
?IID_IPersonalRoomServiceManager@@3U_GUID@@B DD 0c59d784bH ; IID_IPersonalRoomServiceManager
	DW	08875H
	DW	041f5H
	DB	0a3H
	DB	0d0H
	DB	023H
	DB	094H
	DB	096H
	DB	0e0H
	DB	028H
	DB	03cH
?_messageEntries@?1??GetThisMessageMap@CServiceUnits@@KGPBUAFX_MSGMAP@@XZ@4QBUAFX_MSGMAP_ENTRY@@B DD 0464H ; `CServiceUnits::GetThisMessageMap'::`2'::_messageEntries
	DD	00H
	DD	00H
	DD	00H
	DD	0eH
	DD	FLAT:?OnUIControlRequest@CServiceUnits@@IAEJIJ@Z
	DD	00H
	DD	00H
	DD	00H
	DD	00H
	DD	00H
	DD	00H
?messageMap@?1??GetThisMessageMap@CServiceUnits@@KGPBUAFX_MSGMAP@@XZ@4U3@B DD FLAT:?GetThisMessageMap@CWnd@@KGPBUAFX_MSGMAP@@XZ ; `CServiceUnits::GetThisMessageMap'::`2'::messageMap
	DD	FLAT:?_messageEntries@?1??GetThisMessageMap@CServiceUnits@@KGPBUAFX_MSGMAP@@XZ@4QBUAFX_MSGMAP_ENTRY@@B
CONST	ENDS
PUBLIC	?__empty_global_delete@@YAXPAX@Z		; __empty_global_delete
PUBLIC	?__empty_global_delete@@YAXPAXI@Z		; __empty_global_delete
PUBLIC	___local_stdio_printf_options
PUBLIC	__vsnprintf_l
PUBLIC	__vsnprintf
PUBLIC	__vsnprintf_s_l
PUBLIC	__vsnprintf_s
PUBLIC	__snprintf
PUBLIC	?AfxAssertFailedLine@@YGHPBDH@Z			; AfxAssertFailedLine
PUBLIC	??0CRect@@QAE@HHHH@Z				; CRect::CRect
PUBLIC	?SetAllowAvertCheatMode@CServerRule@@SAXAAK_N@Z	; CServerRule::SetAllowAvertCheatMode
PUBLIC	?SetRecordGameScore@CServerRule@@SAXAAK_N@Z	; CServerRule::SetRecordGameScore
PUBLIC	?SetImmediateWriteScore@CServerRule@@SAXAAK_N@Z	; CServerRule::SetImmediateWriteScore
PUBLIC	?SetForfendGameRule@CServerRule@@SAXAAK_N@Z	; CServerRule::SetForfendGameRule
PUBLIC	?SetAllowAndroidSimulate@CServerRule@@SAXAAK_N@Z ; CServerRule::SetAllowAndroidSimulate
PUBLIC	??0?$CTempldateHelper@UIDataBase@@@@QAE@ABU_GUID@@KPBD1@Z ; CTempldateHelper<IDataBase>::CTempldateHelper<IDataBase>
PUBLIC	??1?$CTempldateHelper@UIDataBase@@@@UAE@XZ	; CTempldateHelper<IDataBase>::~CTempldateHelper<IDataBase>
PUBLIC	?CloseInstance@?$CTempldateHelper@UIDataBase@@@@QAE_NXZ ; CTempldateHelper<IDataBase>::CloseInstance
PUBLIC	?CreateInstance@?$CTempldateHelper@UIDataBase@@@@QAE_NXZ ; CTempldateHelper<IDataBase>::CreateInstance
PUBLIC	??C?$CTempldateHelper@UIDataBase@@@@QBEPAUIDataBase@@XZ ; CTempldateHelper<IDataBase>::operator->
PUBLIC	?GetInterface@?$CTempldateHelper@UIDataBase@@@@QBEPAUIDataBase@@XZ ; CTempldateHelper<IDataBase>::GetInterface
PUBLIC	??_G?$CTempldateHelper@UIDataBase@@@@UAEPAXI@Z	; CTempldateHelper<IDataBase>::`scalar deleting destructor'
PUBLIC	??0CDataBaseHelper@@QAE@XZ			; CDataBaseHelper::CDataBaseHelper
PUBLIC	??1CDataBaseHelper@@UAE@XZ			; CDataBaseHelper::~CDataBaseHelper
PUBLIC	??_GCDataBaseHelper@@UAEPAXI@Z			; CDataBaseHelper::`scalar deleting destructor'
PUBLIC	??0?$CTempldateHelper@UITimerEngine@@@@QAE@ABU_GUID@@KPBD1@Z ; CTempldateHelper<ITimerEngine>::CTempldateHelper<ITimerEngine>
PUBLIC	??1?$CTempldateHelper@UITimerEngine@@@@UAE@XZ	; CTempldateHelper<ITimerEngine>::~CTempldateHelper<ITimerEngine>
PUBLIC	?CloseInstance@?$CTempldateHelper@UITimerEngine@@@@QAE_NXZ ; CTempldateHelper<ITimerEngine>::CloseInstance
PUBLIC	?CreateInstance@?$CTempldateHelper@UITimerEngine@@@@QAE_NXZ ; CTempldateHelper<ITimerEngine>::CreateInstance
PUBLIC	?GetErrorDescribe@?$CTempldateHelper@UITimerEngine@@@@QBEPBDXZ ; CTempldateHelper<ITimerEngine>::GetErrorDescribe
PUBLIC	??C?$CTempldateHelper@UITimerEngine@@@@QBEPAUITimerEngine@@XZ ; CTempldateHelper<ITimerEngine>::operator->
PUBLIC	?GetInterface@?$CTempldateHelper@UITimerEngine@@@@QBEPAUITimerEngine@@XZ ; CTempldateHelper<ITimerEngine>::GetInterface
PUBLIC	??_G?$CTempldateHelper@UITimerEngine@@@@UAEPAXI@Z ; CTempldateHelper<ITimerEngine>::`scalar deleting destructor'
PUBLIC	??0CTimerEngineHelper@@QAE@XZ			; CTimerEngineHelper::CTimerEngineHelper
PUBLIC	??1CTimerEngineHelper@@UAE@XZ			; CTimerEngineHelper::~CTimerEngineHelper
PUBLIC	??_GCTimerEngineHelper@@UAEPAXI@Z		; CTimerEngineHelper::`scalar deleting destructor'
PUBLIC	??0?$CTempldateHelper@UIDataBaseEngine@@@@QAE@ABU_GUID@@KPBD1@Z ; CTempldateHelper<IDataBaseEngine>::CTempldateHelper<IDataBaseEngine>
PUBLIC	??1?$CTempldateHelper@UIDataBaseEngine@@@@UAE@XZ ; CTempldateHelper<IDataBaseEngine>::~CTempldateHelper<IDataBaseEngine>
PUBLIC	?CloseInstance@?$CTempldateHelper@UIDataBaseEngine@@@@QAE_NXZ ; CTempldateHelper<IDataBaseEngine>::CloseInstance
PUBLIC	?CreateInstance@?$CTempldateHelper@UIDataBaseEngine@@@@QAE_NXZ ; CTempldateHelper<IDataBaseEngine>::CreateInstance
PUBLIC	?GetErrorDescribe@?$CTempldateHelper@UIDataBaseEngine@@@@QBEPBDXZ ; CTempldateHelper<IDataBaseEngine>::GetErrorDescribe
PUBLIC	??C?$CTempldateHelper@UIDataBaseEngine@@@@QBEPAUIDataBaseEngine@@XZ ; CTempldateHelper<IDataBaseEngine>::operator->
PUBLIC	?GetInterface@?$CTempldateHelper@UIDataBaseEngine@@@@QBEPAUIDataBaseEngine@@XZ ; CTempldateHelper<IDataBaseEngine>::GetInterface
PUBLIC	??_G?$CTempldateHelper@UIDataBaseEngine@@@@UAEPAXI@Z ; CTempldateHelper<IDataBaseEngine>::`scalar deleting destructor'
PUBLIC	??0CDataBaseEngineHelper@@QAE@XZ		; CDataBaseEngineHelper::CDataBaseEngineHelper
PUBLIC	??1CDataBaseEngineHelper@@UAE@XZ		; CDataBaseEngineHelper::~CDataBaseEngineHelper
PUBLIC	??_GCDataBaseEngineHelper@@UAEPAXI@Z		; CDataBaseEngineHelper::`scalar deleting destructor'
PUBLIC	??0?$CTempldateHelper@UIAttemperEngine@@@@QAE@ABU_GUID@@KPBD1@Z ; CTempldateHelper<IAttemperEngine>::CTempldateHelper<IAttemperEngine>
PUBLIC	??1?$CTempldateHelper@UIAttemperEngine@@@@UAE@XZ ; CTempldateHelper<IAttemperEngine>::~CTempldateHelper<IAttemperEngine>
PUBLIC	?CloseInstance@?$CTempldateHelper@UIAttemperEngine@@@@QAE_NXZ ; CTempldateHelper<IAttemperEngine>::CloseInstance
PUBLIC	?CreateInstance@?$CTempldateHelper@UIAttemperEngine@@@@QAE_NXZ ; CTempldateHelper<IAttemperEngine>::CreateInstance
PUBLIC	?GetErrorDescribe@?$CTempldateHelper@UIAttemperEngine@@@@QBEPBDXZ ; CTempldateHelper<IAttemperEngine>::GetErrorDescribe
PUBLIC	??C?$CTempldateHelper@UIAttemperEngine@@@@QBEPAUIAttemperEngine@@XZ ; CTempldateHelper<IAttemperEngine>::operator->
PUBLIC	?GetInterface@?$CTempldateHelper@UIAttemperEngine@@@@QBEPAUIAttemperEngine@@XZ ; CTempldateHelper<IAttemperEngine>::GetInterface
PUBLIC	??_G?$CTempldateHelper@UIAttemperEngine@@@@UAEPAXI@Z ; CTempldateHelper<IAttemperEngine>::`scalar deleting destructor'
PUBLIC	??0CAttemperEngineHelper@@QAE@XZ		; CAttemperEngineHelper::CAttemperEngineHelper
PUBLIC	??1CAttemperEngineHelper@@UAE@XZ		; CAttemperEngineHelper::~CAttemperEngineHelper
PUBLIC	??_GCAttemperEngineHelper@@UAEPAXI@Z		; CAttemperEngineHelper::`scalar deleting destructor'
PUBLIC	??0?$CTempldateHelper@UITCPSocketService@@@@QAE@ABU_GUID@@KPBD1@Z ; CTempldateHelper<ITCPSocketService>::CTempldateHelper<ITCPSocketService>
PUBLIC	??1?$CTempldateHelper@UITCPSocketService@@@@UAE@XZ ; CTempldateHelper<ITCPSocketService>::~CTempldateHelper<ITCPSocketService>
PUBLIC	?CloseInstance@?$CTempldateHelper@UITCPSocketService@@@@QAE_NXZ ; CTempldateHelper<ITCPSocketService>::CloseInstance
PUBLIC	?CreateInstance@?$CTempldateHelper@UITCPSocketService@@@@QAE_NXZ ; CTempldateHelper<ITCPSocketService>::CreateInstance
PUBLIC	?GetErrorDescribe@?$CTempldateHelper@UITCPSocketService@@@@QBEPBDXZ ; CTempldateHelper<ITCPSocketService>::GetErrorDescribe
PUBLIC	??C?$CTempldateHelper@UITCPSocketService@@@@QBEPAUITCPSocketService@@XZ ; CTempldateHelper<ITCPSocketService>::operator->
PUBLIC	?GetInterface@?$CTempldateHelper@UITCPSocketService@@@@QBEPAUITCPSocketService@@XZ ; CTempldateHelper<ITCPSocketService>::GetInterface
PUBLIC	??_G?$CTempldateHelper@UITCPSocketService@@@@UAEPAXI@Z ; CTempldateHelper<ITCPSocketService>::`scalar deleting destructor'
PUBLIC	??0CTCPSocketServiceHelper@@QAE@XZ		; CTCPSocketServiceHelper::CTCPSocketServiceHelper
PUBLIC	??1CTCPSocketServiceHelper@@UAE@XZ		; CTCPSocketServiceHelper::~CTCPSocketServiceHelper
PUBLIC	??_GCTCPSocketServiceHelper@@UAEPAXI@Z		; CTCPSocketServiceHelper::`scalar deleting destructor'
PUBLIC	??0?$CTempldateHelper@UITCPNetworkEngine@@@@QAE@ABU_GUID@@KPBD1@Z ; CTempldateHelper<ITCPNetworkEngine>::CTempldateHelper<ITCPNetworkEngine>
PUBLIC	??1?$CTempldateHelper@UITCPNetworkEngine@@@@UAE@XZ ; CTempldateHelper<ITCPNetworkEngine>::~CTempldateHelper<ITCPNetworkEngine>
PUBLIC	?CloseInstance@?$CTempldateHelper@UITCPNetworkEngine@@@@QAE_NXZ ; CTempldateHelper<ITCPNetworkEngine>::CloseInstance
PUBLIC	?CreateInstance@?$CTempldateHelper@UITCPNetworkEngine@@@@QAE_NXZ ; CTempldateHelper<ITCPNetworkEngine>::CreateInstance
PUBLIC	?GetErrorDescribe@?$CTempldateHelper@UITCPNetworkEngine@@@@QBEPBDXZ ; CTempldateHelper<ITCPNetworkEngine>::GetErrorDescribe
PUBLIC	??C?$CTempldateHelper@UITCPNetworkEngine@@@@QBEPAUITCPNetworkEngine@@XZ ; CTempldateHelper<ITCPNetworkEngine>::operator->
PUBLIC	?GetInterface@?$CTempldateHelper@UITCPNetworkEngine@@@@QBEPAUITCPNetworkEngine@@XZ ; CTempldateHelper<ITCPNetworkEngine>::GetInterface
PUBLIC	??_G?$CTempldateHelper@UITCPNetworkEngine@@@@UAEPAXI@Z ; CTempldateHelper<ITCPNetworkEngine>::`scalar deleting destructor'
PUBLIC	??0CTCPNetworkEngineHelper@@QAE@XZ		; CTCPNetworkEngineHelper::CTCPNetworkEngineHelper
PUBLIC	??1CTCPNetworkEngineHelper@@UAE@XZ		; CTCPNetworkEngineHelper::~CTCPNetworkEngineHelper
PUBLIC	??_GCTCPNetworkEngineHelper@@UAEPAXI@Z		; CTCPNetworkEngineHelper::`scalar deleting destructor'
PUBLIC	??0?$CTempldateHelper@UIGameServiceManager@@@@QAE@ABU_GUID@@K@Z ; CTempldateHelper<IGameServiceManager>::CTempldateHelper<IGameServiceManager>
PUBLIC	??1?$CTempldateHelper@UIGameServiceManager@@@@UAE@XZ ; CTempldateHelper<IGameServiceManager>::~CTempldateHelper<IGameServiceManager>
PUBLIC	?CloseInstance@?$CTempldateHelper@UIGameServiceManager@@@@QAE_NXZ ; CTempldateHelper<IGameServiceManager>::CloseInstance
PUBLIC	?CreateInstance@?$CTempldateHelper@UIGameServiceManager@@@@QAE_NXZ ; CTempldateHelper<IGameServiceManager>::CreateInstance
PUBLIC	?SetModuleCreateInfo@?$CTempldateHelper@UIGameServiceManager@@@@QAEXPBD0@Z ; CTempldateHelper<IGameServiceManager>::SetModuleCreateInfo
PUBLIC	?GetErrorDescribe@?$CTempldateHelper@UIGameServiceManager@@@@QBEPBDXZ ; CTempldateHelper<IGameServiceManager>::GetErrorDescribe
PUBLIC	??C?$CTempldateHelper@UIGameServiceManager@@@@QBEPAUIGameServiceManager@@XZ ; CTempldateHelper<IGameServiceManager>::operator->
PUBLIC	?GetInterface@?$CTempldateHelper@UIGameServiceManager@@@@QBEPAUIGameServiceManager@@XZ ; CTempldateHelper<IGameServiceManager>::GetInterface
PUBLIC	??_G?$CTempldateHelper@UIGameServiceManager@@@@UAEPAXI@Z ; CTempldateHelper<IGameServiceManager>::`scalar deleting destructor'
PUBLIC	??0CGameServiceManagerHelper@@QAE@XZ		; CGameServiceManagerHelper::CGameServiceManagerHelper
PUBLIC	??1CGameServiceManagerHelper@@UAE@XZ		; CGameServiceManagerHelper::~CGameServiceManagerHelper
PUBLIC	??_GCGameServiceManagerHelper@@UAEPAXI@Z	; CGameServiceManagerHelper::`scalar deleting destructor'
PUBLIC	??0?$CTempldateHelper@UIMatchServiceManager@@@@QAE@ABU_GUID@@KPBD1@Z ; CTempldateHelper<IMatchServiceManager>::CTempldateHelper<IMatchServiceManager>
PUBLIC	??1?$CTempldateHelper@UIMatchServiceManager@@@@UAE@XZ ; CTempldateHelper<IMatchServiceManager>::~CTempldateHelper<IMatchServiceManager>
PUBLIC	?CloseInstance@?$CTempldateHelper@UIMatchServiceManager@@@@QAE_NXZ ; CTempldateHelper<IMatchServiceManager>::CloseInstance
PUBLIC	?CreateInstance@?$CTempldateHelper@UIMatchServiceManager@@@@QAE_NXZ ; CTempldateHelper<IMatchServiceManager>::CreateInstance
PUBLIC	?GetErrorDescribe@?$CTempldateHelper@UIMatchServiceManager@@@@QBEPBDXZ ; CTempldateHelper<IMatchServiceManager>::GetErrorDescribe
PUBLIC	??C?$CTempldateHelper@UIMatchServiceManager@@@@QBEPAUIMatchServiceManager@@XZ ; CTempldateHelper<IMatchServiceManager>::operator->
PUBLIC	?GetInterface@?$CTempldateHelper@UIMatchServiceManager@@@@QBEPAUIMatchServiceManager@@XZ ; CTempldateHelper<IMatchServiceManager>::GetInterface
PUBLIC	??_G?$CTempldateHelper@UIMatchServiceManager@@@@UAEPAXI@Z ; CTempldateHelper<IMatchServiceManager>::`scalar deleting destructor'
PUBLIC	??0CMatchServiceManagerHelper@@QAE@XZ		; CMatchServiceManagerHelper::CMatchServiceManagerHelper
PUBLIC	??1CMatchServiceManagerHelper@@UAE@XZ		; CMatchServiceManagerHelper::~CMatchServiceManagerHelper
PUBLIC	??_GCMatchServiceManagerHelper@@UAEPAXI@Z	; CMatchServiceManagerHelper::`scalar deleting destructor'
PUBLIC	??0?$CTempldateHelper@UIPersonalRoomServiceManager@@@@QAE@ABU_GUID@@KPBD1@Z ; CTempldateHelper<IPersonalRoomServiceManager>::CTempldateHelper<IPersonalRoomServiceManager>
PUBLIC	??1?$CTempldateHelper@UIPersonalRoomServiceManager@@@@UAE@XZ ; CTempldateHelper<IPersonalRoomServiceManager>::~CTempldateHelper<IPersonalRoomServiceManager>
PUBLIC	?CloseInstance@?$CTempldateHelper@UIPersonalRoomServiceManager@@@@QAE_NXZ ; CTempldateHelper<IPersonalRoomServiceManager>::CloseInstance
PUBLIC	?CreateInstance@?$CTempldateHelper@UIPersonalRoomServiceManager@@@@QAE_NXZ ; CTempldateHelper<IPersonalRoomServiceManager>::CreateInstance
PUBLIC	?GetErrorDescribe@?$CTempldateHelper@UIPersonalRoomServiceManager@@@@QBEPBDXZ ; CTempldateHelper<IPersonalRoomServiceManager>::GetErrorDescribe
PUBLIC	??C?$CTempldateHelper@UIPersonalRoomServiceManager@@@@QBEPAUIPersonalRoomServiceManager@@XZ ; CTempldateHelper<IPersonalRoomServiceManager>::operator->
PUBLIC	?GetInterface@?$CTempldateHelper@UIPersonalRoomServiceManager@@@@QBEPAUIPersonalRoomServiceManager@@XZ ; CTempldateHelper<IPersonalRoomServiceManager>::GetInterface
PUBLIC	??_G?$CTempldateHelper@UIPersonalRoomServiceManager@@@@UAEPAXI@Z ; CTempldateHelper<IPersonalRoomServiceManager>::`scalar deleting destructor'
PUBLIC	??0CPersonalRoomServiceManagerHelper@@QAE@XZ	; CPersonalRoomServiceManagerHelper::CPersonalRoomServiceManagerHelper
PUBLIC	??1CPersonalRoomServiceManagerHelper@@UAE@XZ	; CPersonalRoomServiceManagerHelper::~CPersonalRoomServiceManagerHelper
PUBLIC	??_GCPersonalRoomServiceManagerHelper@@UAEPAXI@Z ; CPersonalRoomServiceManagerHelper::`scalar deleting destructor'
PUBLIC	??0CServiceUnits@@QAE@XZ			; CServiceUnits::CServiceUnits
PUBLIC	??1CServiceUnits@@UAE@XZ			; CServiceUnits::~CServiceUnits
PUBLIC	?SetServiceUnitsSink@CServiceUnits@@QAE_NPAUIServiceUnitsSink@@@Z ; CServiceUnits::SetServiceUnitsSink
PUBLIC	?PostControlRequest@CServiceUnits@@QAE_NGPAXG@Z	; CServiceUnits::PostControlRequest
PUBLIC	?StartService@CServiceUnits@@QAE_NXZ		; CServiceUnits::StartService
PUBLIC	?ConcludeService@CServiceUnits@@QAE_NXZ		; CServiceUnits::ConcludeService
PUBLIC	?CollocateService@CServiceUnits@@QAE_NAAUtagGameMatchOption@@@Z ; CServiceUnits::CollocateService
PUBLIC	?CollocateService@CServiceUnits@@QAE_NPBDAAUtagGameServiceOption@@@Z ; CServiceUnits::CollocateService
PUBLIC	?LoadDataBaseParameter@CServiceUnits@@QAE_NPBD0AAUtagDataBaseParameter@@@Z ; CServiceUnits::LoadDataBaseParameter
PUBLIC	?CreateServiceDLL@CServiceUnits@@IAE_NXZ	; CServiceUnits::CreateServiceDLL
PUBLIC	?InitializeService@CServiceUnits@@IAE_NXZ	; CServiceUnits::InitializeService
PUBLIC	?StartKernelService@CServiceUnits@@IAE_NXZ	; CServiceUnits::StartKernelService
PUBLIC	?StartNetworkService@CServiceUnits@@IAE_NXZ	; CServiceUnits::StartNetworkService
PUBLIC	?RectifyServiceParameter@CServiceUnits@@IAE_NXZ	; CServiceUnits::RectifyServiceParameter
PUBLIC	?SetServiceStatus@CServiceUnits@@AAE_NW4enServiceStatus@@@Z ; CServiceUnits::SetServiceStatus
PUBLIC	?SendControlPacket@CServiceUnits@@AAE_NGPAXG@Z	; CServiceUnits::SendControlPacket
PUBLIC	?WritePersonalDissumeInfo@CServiceUnits@@AAE_NXZ ; CServiceUnits::WritePersonalDissumeInfo
PUBLIC	?ConnectPlatformDB@CServiceUnits@@AAE_NAAVCDataBaseHelper@@@Z ; CServiceUnits::ConnectPlatformDB
PUBLIC	?WriteSeverCount@CServiceUnits@@QAEX_N@Z	; CServiceUnits::WriteSeverCount
PUBLIC	?GetThisMessageMap@CServiceUnits@@KGPBUAFX_MSGMAP@@XZ ; CServiceUnits::GetThisMessageMap
PUBLIC	?GetMessageMap@CServiceUnits@@MBEPBUAFX_MSGMAP@@XZ ; CServiceUnits::GetMessageMap
PUBLIC	??_GCServiceUnits@@UAEPAXI@Z			; CServiceUnits::`scalar deleting destructor'
PUBLIC	??$_snprintf_s@$0IA@@@YAHAAY0IA@DIPBDZZ		; _snprintf_s<128>
PUBLIC	?_OptionsStorage@?1??__local_stdio_printf_options@@9@4_KA ; `__local_stdio_printf_options'::`2'::_OptionsStorage
PUBLIC	??_C@_02DPKJAMEF@?$CFd@				; `string'
PUBLIC	??_C@_00CNPNBAHC@@				; `string'
PUBLIC	??_7?$CTempldateHelper@UIDataBase@@@@6B@	; CTempldateHelper<IDataBase>::`vftable'
PUBLIC	??_7CDataBaseHelper@@6B@			; CDataBaseHelper::`vftable'
PUBLIC	??_C@_0P@IKJBDFNG@CreateDataBase@		; `string'
PUBLIC	??_C@_0BB@BEMLEOHB@KernelEngine?4dll@		; `string'
PUBLIC	??_7?$CTempldateHelper@UITimerEngine@@@@6B@	; CTempldateHelper<ITimerEngine>::`vftable'
PUBLIC	??_7CTimerEngineHelper@@6B@			; CTimerEngineHelper::`vftable'
PUBLIC	??_C@_0BC@PLOLBCGN@CreateTimerEngine@		; `string'
PUBLIC	??_7?$CTempldateHelper@UIDataBaseEngine@@@@6B@	; CTempldateHelper<IDataBaseEngine>::`vftable'
PUBLIC	??_7CDataBaseEngineHelper@@6B@			; CDataBaseEngineHelper::`vftable'
PUBLIC	??_C@_0BF@FHMKIOLL@CreateDataBaseEngine@	; `string'
PUBLIC	??_7?$CTempldateHelper@UIAttemperEngine@@@@6B@	; CTempldateHelper<IAttemperEngine>::`vftable'
PUBLIC	??_7CAttemperEngineHelper@@6B@			; CAttemperEngineHelper::`vftable'
PUBLIC	??_C@_0BF@PBPGMLEA@CreateAttemperEngine@	; `string'
PUBLIC	??_7?$CTempldateHelper@UITCPSocketService@@@@6B@ ; CTempldateHelper<ITCPSocketService>::`vftable'
PUBLIC	??_7CTCPSocketServiceHelper@@6B@		; CTCPSocketServiceHelper::`vftable'
PUBLIC	??_C@_0BH@FPPDPKKP@CreateTCPSocketService@	; `string'
PUBLIC	??_7?$CTempldateHelper@UITCPNetworkEngine@@@@6B@ ; CTempldateHelper<ITCPNetworkEngine>::`vftable'
PUBLIC	??_7CTCPNetworkEngineHelper@@6B@		; CTCPNetworkEngineHelper::`vftable'
PUBLIC	??_C@_0BH@LEGJPFFH@CreateTCPNetworkEngine@	; `string'
PUBLIC	??_7?$CTempldateHelper@UIGameServiceManager@@@@6B@ ; CTempldateHelper<IGameServiceManager>::`vftable'
PUBLIC	??_7CGameServiceManagerHelper@@6B@		; CGameServiceManagerHelper::`vftable'
PUBLIC	??_7?$CTempldateHelper@UIMatchServiceManager@@@@6B@ ; CTempldateHelper<IMatchServiceManager>::`vftable'
PUBLIC	??_7CMatchServiceManagerHelper@@6B@		; CMatchServiceManagerHelper::`vftable'
PUBLIC	??_C@_0BK@LKNHFFBP@CreateMatchServiceManager@	; `string'
PUBLIC	??_C@_0BB@LCDNABBP@MatchService?4dll@		; `string'
PUBLIC	??_7?$CTempldateHelper@UIPersonalRoomServiceManager@@@@6B@ ; CTempldateHelper<IPersonalRoomServiceManager>::`vftable'
PUBLIC	??_7CPersonalRoomServiceManagerHelper@@6B@	; CPersonalRoomServiceManagerHelper::`vftable'
PUBLIC	??_C@_0CB@MNMPKPAH@CreatePersonalRoomServiceManage@ ; `string'
PUBLIC	??_C@_0BI@PDGLEKAG@PersonalRoomService?4dll@	; `string'
PUBLIC	??_R1A@?0A@EA@CObject@@8			; CObject::`RTTI Base Class Descriptor at (0,-1,0,64)'
PUBLIC	??_R0?AVCObject@@@8				; CObject `RTTI Type Descriptor'
PUBLIC	??_R3CObject@@8					; CObject::`RTTI Class Hierarchy Descriptor'
PUBLIC	??_R2CObject@@8					; CObject::`RTTI Base Class Array'
PUBLIC	??_R1A@?0A@EA@CWnd@@8				; CWnd::`RTTI Base Class Descriptor at (0,-1,0,64)'
PUBLIC	??_R0?AVCWnd@@@8				; CWnd `RTTI Type Descriptor'
PUBLIC	??_R3CWnd@@8					; CWnd::`RTTI Class Hierarchy Descriptor'
PUBLIC	??_R2CWnd@@8					; CWnd::`RTTI Base Class Array'
PUBLIC	??_R1A@?0A@EA@CCmdTarget@@8			; CCmdTarget::`RTTI Base Class Descriptor at (0,-1,0,64)'
PUBLIC	??_R0?AVCCmdTarget@@@8				; CCmdTarget `RTTI Type Descriptor'
PUBLIC	??_R3CCmdTarget@@8				; CCmdTarget::`RTTI Class Hierarchy Descriptor'
PUBLIC	??_R2CCmdTarget@@8				; CCmdTarget::`RTTI Base Class Array'
PUBLIC	??_R4CDataBaseHelper@@6B@			; CDataBaseHelper::`RTTI Complete Object Locator'
PUBLIC	??_R0?AVCDataBaseHelper@@@8			; CDataBaseHelper `RTTI Type Descriptor'
PUBLIC	??_R3CDataBaseHelper@@8				; CDataBaseHelper::`RTTI Class Hierarchy Descriptor'
PUBLIC	??_R2CDataBaseHelper@@8				; CDataBaseHelper::`RTTI Base Class Array'
PUBLIC	??_R1A@?0A@EA@CDataBaseHelper@@8		; CDataBaseHelper::`RTTI Base Class Descriptor at (0,-1,0,64)'
PUBLIC	??_R1A@?0A@EA@?$CTempldateHelper@UIDataBase@@@@8 ; CTempldateHelper<IDataBase>::`RTTI Base Class Descriptor at (0,-1,0,64)'
PUBLIC	??_R0?AV?$CTempldateHelper@UIDataBase@@@@@8	; CTempldateHelper<IDataBase> `RTTI Type Descriptor'
PUBLIC	??_R3?$CTempldateHelper@UIDataBase@@@@8		; CTempldateHelper<IDataBase>::`RTTI Class Hierarchy Descriptor'
PUBLIC	??_R2?$CTempldateHelper@UIDataBase@@@@8		; CTempldateHelper<IDataBase>::`RTTI Base Class Array'
PUBLIC	??_R4?$CTempldateHelper@UIDataBase@@@@6B@	; CTempldateHelper<IDataBase>::`RTTI Complete Object Locator'
PUBLIC	??_R4CTimerEngineHelper@@6B@			; CTimerEngineHelper::`RTTI Complete Object Locator'
PUBLIC	??_R0?AVCTimerEngineHelper@@@8			; CTimerEngineHelper `RTTI Type Descriptor'
PUBLIC	??_R3CTimerEngineHelper@@8			; CTimerEngineHelper::`RTTI Class Hierarchy Descriptor'
PUBLIC	??_R2CTimerEngineHelper@@8			; CTimerEngineHelper::`RTTI Base Class Array'
PUBLIC	??_R1A@?0A@EA@CTimerEngineHelper@@8		; CTimerEngineHelper::`RTTI Base Class Descriptor at (0,-1,0,64)'
PUBLIC	??_R1A@?0A@EA@?$CTempldateHelper@UITimerEngine@@@@8 ; CTempldateHelper<ITimerEngine>::`RTTI Base Class Descriptor at (0,-1,0,64)'
PUBLIC	??_R0?AV?$CTempldateHelper@UITimerEngine@@@@@8	; CTempldateHelper<ITimerEngine> `RTTI Type Descriptor'
PUBLIC	??_R3?$CTempldateHelper@UITimerEngine@@@@8	; CTempldateHelper<ITimerEngine>::`RTTI Class Hierarchy Descriptor'
PUBLIC	??_R2?$CTempldateHelper@UITimerEngine@@@@8	; CTempldateHelper<ITimerEngine>::`RTTI Base Class Array'
PUBLIC	??_R4?$CTempldateHelper@UITimerEngine@@@@6B@	; CTempldateHelper<ITimerEngine>::`RTTI Complete Object Locator'
PUBLIC	??_R4CDataBaseEngineHelper@@6B@			; CDataBaseEngineHelper::`RTTI Complete Object Locator'
PUBLIC	??_R0?AVCDataBaseEngineHelper@@@8		; CDataBaseEngineHelper `RTTI Type Descriptor'
PUBLIC	??_R3CDataBaseEngineHelper@@8			; CDataBaseEngineHelper::`RTTI Class Hierarchy Descriptor'
PUBLIC	??_R2CDataBaseEngineHelper@@8			; CDataBaseEngineHelper::`RTTI Base Class Array'
PUBLIC	??_R1A@?0A@EA@CDataBaseEngineHelper@@8		; CDataBaseEngineHelper::`RTTI Base Class Descriptor at (0,-1,0,64)'
PUBLIC	??_R1A@?0A@EA@?$CTempldateHelper@UIDataBaseEngine@@@@8 ; CTempldateHelper<IDataBaseEngine>::`RTTI Base Class Descriptor at (0,-1,0,64)'
PUBLIC	??_R0?AV?$CTempldateHelper@UIDataBaseEngine@@@@@8 ; CTempldateHelper<IDataBaseEngine> `RTTI Type Descriptor'
PUBLIC	??_R3?$CTempldateHelper@UIDataBaseEngine@@@@8	; CTempldateHelper<IDataBaseEngine>::`RTTI Class Hierarchy Descriptor'
PUBLIC	??_R2?$CTempldateHelper@UIDataBaseEngine@@@@8	; CTempldateHelper<IDataBaseEngine>::`RTTI Base Class Array'
PUBLIC	??_R4?$CTempldateHelper@UIDataBaseEngine@@@@6B@	; CTempldateHelper<IDataBaseEngine>::`RTTI Complete Object Locator'
PUBLIC	??_R4CAttemperEngineHelper@@6B@			; CAttemperEngineHelper::`RTTI Complete Object Locator'
PUBLIC	??_R0?AVCAttemperEngineHelper@@@8		; CAttemperEngineHelper `RTTI Type Descriptor'
PUBLIC	??_R3CAttemperEngineHelper@@8			; CAttemperEngineHelper::`RTTI Class Hierarchy Descriptor'
PUBLIC	??_R2CAttemperEngineHelper@@8			; CAttemperEngineHelper::`RTTI Base Class Array'
PUBLIC	??_R1A@?0A@EA@CAttemperEngineHelper@@8		; CAttemperEngineHelper::`RTTI Base Class Descriptor at (0,-1,0,64)'
PUBLIC	??_R1A@?0A@EA@?$CTempldateHelper@UIAttemperEngine@@@@8 ; CTempldateHelper<IAttemperEngine>::`RTTI Base Class Descriptor at (0,-1,0,64)'
PUBLIC	??_R0?AV?$CTempldateHelper@UIAttemperEngine@@@@@8 ; CTempldateHelper<IAttemperEngine> `RTTI Type Descriptor'
PUBLIC	??_R3?$CTempldateHelper@UIAttemperEngine@@@@8	; CTempldateHelper<IAttemperEngine>::`RTTI Class Hierarchy Descriptor'
PUBLIC	??_R2?$CTempldateHelper@UIAttemperEngine@@@@8	; CTempldateHelper<IAttemperEngine>::`RTTI Base Class Array'
PUBLIC	??_R4?$CTempldateHelper@UIAttemperEngine@@@@6B@	; CTempldateHelper<IAttemperEngine>::`RTTI Complete Object Locator'
PUBLIC	??_R4CTCPSocketServiceHelper@@6B@		; CTCPSocketServiceHelper::`RTTI Complete Object Locator'
PUBLIC	??_R0?AVCTCPSocketServiceHelper@@@8		; CTCPSocketServiceHelper `RTTI Type Descriptor'
PUBLIC	??_R3CTCPSocketServiceHelper@@8			; CTCPSocketServiceHelper::`RTTI Class Hierarchy Descriptor'
PUBLIC	??_R2CTCPSocketServiceHelper@@8			; CTCPSocketServiceHelper::`RTTI Base Class Array'
PUBLIC	??_R1A@?0A@EA@CTCPSocketServiceHelper@@8	; CTCPSocketServiceHelper::`RTTI Base Class Descriptor at (0,-1,0,64)'
PUBLIC	??_R1A@?0A@EA@?$CTempldateHelper@UITCPSocketService@@@@8 ; CTempldateHelper<ITCPSocketService>::`RTTI Base Class Descriptor at (0,-1,0,64)'
PUBLIC	??_R0?AV?$CTempldateHelper@UITCPSocketService@@@@@8 ; CTempldateHelper<ITCPSocketService> `RTTI Type Descriptor'
PUBLIC	??_R3?$CTempldateHelper@UITCPSocketService@@@@8	; CTempldateHelper<ITCPSocketService>::`RTTI Class Hierarchy Descriptor'
PUBLIC	??_R2?$CTempldateHelper@UITCPSocketService@@@@8	; CTempldateHelper<ITCPSocketService>::`RTTI Base Class Array'
PUBLIC	??_R4?$CTempldateHelper@UITCPSocketService@@@@6B@ ; CTempldateHelper<ITCPSocketService>::`RTTI Complete Object Locator'
PUBLIC	??_R4CTCPNetworkEngineHelper@@6B@		; CTCPNetworkEngineHelper::`RTTI Complete Object Locator'
PUBLIC	??_R0?AVCTCPNetworkEngineHelper@@@8		; CTCPNetworkEngineHelper `RTTI Type Descriptor'
PUBLIC	??_R3CTCPNetworkEngineHelper@@8			; CTCPNetworkEngineHelper::`RTTI Class Hierarchy Descriptor'
PUBLIC	??_R2CTCPNetworkEngineHelper@@8			; CTCPNetworkEngineHelper::`RTTI Base Class Array'
PUBLIC	??_R1A@?0A@EA@CTCPNetworkEngineHelper@@8	; CTCPNetworkEngineHelper::`RTTI Base Class Descriptor at (0,-1,0,64)'
PUBLIC	??_R1A@?0A@EA@?$CTempldateHelper@UITCPNetworkEngine@@@@8 ; CTempldateHelper<ITCPNetworkEngine>::`RTTI Base Class Descriptor at (0,-1,0,64)'
PUBLIC	??_R0?AV?$CTempldateHelper@UITCPNetworkEngine@@@@@8 ; CTempldateHelper<ITCPNetworkEngine> `RTTI Type Descriptor'
PUBLIC	??_R3?$CTempldateHelper@UITCPNetworkEngine@@@@8	; CTempldateHelper<ITCPNetworkEngine>::`RTTI Class Hierarchy Descriptor'
PUBLIC	??_R2?$CTempldateHelper@UITCPNetworkEngine@@@@8	; CTempldateHelper<ITCPNetworkEngine>::`RTTI Base Class Array'
PUBLIC	??_R4?$CTempldateHelper@UITCPNetworkEngine@@@@6B@ ; CTempldateHelper<ITCPNetworkEngine>::`RTTI Complete Object Locator'
PUBLIC	??_R4CGameServiceManagerHelper@@6B@		; CGameServiceManagerHelper::`RTTI Complete Object Locator'
PUBLIC	??_R0?AVCGameServiceManagerHelper@@@8		; CGameServiceManagerHelper `RTTI Type Descriptor'
PUBLIC	??_R3CGameServiceManagerHelper@@8		; CGameServiceManagerHelper::`RTTI Class Hierarchy Descriptor'
PUBLIC	??_R2CGameServiceManagerHelper@@8		; CGameServiceManagerHelper::`RTTI Base Class Array'
PUBLIC	??_R1A@?0A@EA@CGameServiceManagerHelper@@8	; CGameServiceManagerHelper::`RTTI Base Class Descriptor at (0,-1,0,64)'
PUBLIC	??_R1A@?0A@EA@?$CTempldateHelper@UIGameServiceManager@@@@8 ; CTempldateHelper<IGameServiceManager>::`RTTI Base Class Descriptor at (0,-1,0,64)'
PUBLIC	??_R0?AV?$CTempldateHelper@UIGameServiceManager@@@@@8 ; CTempldateHelper<IGameServiceManager> `RTTI Type Descriptor'
PUBLIC	??_R3?$CTempldateHelper@UIGameServiceManager@@@@8 ; CTempldateHelper<IGameServiceManager>::`RTTI Class Hierarchy Descriptor'
PUBLIC	??_R2?$CTempldateHelper@UIGameServiceManager@@@@8 ; CTempldateHelper<IGameServiceManager>::`RTTI Base Class Array'
PUBLIC	??_R4?$CTempldateHelper@UIGameServiceManager@@@@6B@ ; CTempldateHelper<IGameServiceManager>::`RTTI Complete Object Locator'
PUBLIC	??_R4CMatchServiceManagerHelper@@6B@		; CMatchServiceManagerHelper::`RTTI Complete Object Locator'
PUBLIC	??_R0?AVCMatchServiceManagerHelper@@@8		; CMatchServiceManagerHelper `RTTI Type Descriptor'
PUBLIC	??_R3CMatchServiceManagerHelper@@8		; CMatchServiceManagerHelper::`RTTI Class Hierarchy Descriptor'
PUBLIC	??_R2CMatchServiceManagerHelper@@8		; CMatchServiceManagerHelper::`RTTI Base Class Array'
PUBLIC	??_R1A@?0A@EA@CMatchServiceManagerHelper@@8	; CMatchServiceManagerHelper::`RTTI Base Class Descriptor at (0,-1,0,64)'
PUBLIC	??_R1A@?0A@EA@?$CTempldateHelper@UIMatchServiceManager@@@@8 ; CTempldateHelper<IMatchServiceManager>::`RTTI Base Class Descriptor at (0,-1,0,64)'
PUBLIC	??_R0?AV?$CTempldateHelper@UIMatchServiceManager@@@@@8 ; CTempldateHelper<IMatchServiceManager> `RTTI Type Descriptor'
PUBLIC	??_R3?$CTempldateHelper@UIMatchServiceManager@@@@8 ; CTempldateHelper<IMatchServiceManager>::`RTTI Class Hierarchy Descriptor'
PUBLIC	??_R2?$CTempldateHelper@UIMatchServiceManager@@@@8 ; CTempldateHelper<IMatchServiceManager>::`RTTI Base Class Array'
PUBLIC	??_R4?$CTempldateHelper@UIMatchServiceManager@@@@6B@ ; CTempldateHelper<IMatchServiceManager>::`RTTI Complete Object Locator'
PUBLIC	??_R4CPersonalRoomServiceManagerHelper@@6B@	; CPersonalRoomServiceManagerHelper::`RTTI Complete Object Locator'
PUBLIC	??_R0?AVCPersonalRoomServiceManagerHelper@@@8	; CPersonalRoomServiceManagerHelper `RTTI Type Descriptor'
PUBLIC	??_R3CPersonalRoomServiceManagerHelper@@8	; CPersonalRoomServiceManagerHelper::`RTTI Class Hierarchy Descriptor'
PUBLIC	??_R2CPersonalRoomServiceManagerHelper@@8	; CPersonalRoomServiceManagerHelper::`RTTI Base Class Array'
PUBLIC	??_R1A@?0A@EA@CPersonalRoomServiceManagerHelper@@8 ; CPersonalRoomServiceManagerHelper::`RTTI Base Class Descriptor at (0,-1,0,64)'
PUBLIC	??_R1A@?0A@EA@?$CTempldateHelper@UIPersonalRoomServiceManager@@@@8 ; CTempldateHelper<IPersonalRoomServiceManager>::`RTTI Base Class Descriptor at (0,-1,0,64)'
PUBLIC	??_R0?AV?$CTempldateHelper@UIPersonalRoomServiceManager@@@@@8 ; CTempldateHelper<IPersonalRoomServiceManager> `RTTI Type Descriptor'
PUBLIC	??_R3?$CTempldateHelper@UIPersonalRoomServiceManager@@@@8 ; CTempldateHelper<IPersonalRoomServiceManager>::`RTTI Class Hierarchy Descriptor'
PUBLIC	??_R2?$CTempldateHelper@UIPersonalRoomServiceManager@@@@8 ; CTempldateHelper<IPersonalRoomServiceManager>::`RTTI Base Class Array'
PUBLIC	??_R4?$CTempldateHelper@UIPersonalRoomServiceManager@@@@6B@ ; CTempldateHelper<IPersonalRoomServiceManager>::`RTTI Complete Object Locator'
PUBLIC	??_7CServiceUnits@@6B@				; CServiceUnits::`vftable'
PUBLIC	?__LINE__Var@?0???0CServiceUnits@@QAE@XZ@4JA	; `CServiceUnits::CServiceUnits'::`1'::__LINE__Var
PUBLIC	??_C@_0EL@IDOGNJLC@g?3?2?M?x?$LK?$PM?2happygamewh?2?$LH?$PO?N?q?$LG?K?2?O?$LF?M?$LD@ ; `string'
PUBLIC	?__LINE__Var@?0??PostControlRequest@CServiceUnits@@QAE_NGPAXG@Z@4JA ; `CServiceUnits::PostControlRequest'::`1'::__LINE__Var
PUBLIC	?__LINE__Var@?0??StartService@CServiceUnits@@QAE_NXZ@4JA ; `CServiceUnits::StartService'::`1'::__LINE__Var
PUBLIC	?__LINE__Var@?0??CollocateService@CServiceUnits@@QAE_NPBDAAUtagGameServiceOption@@@Z@4JA ; `CServiceUnits::CollocateService'::`1'::__LINE__Var
PUBLIC	??_C@_0BJ@EBOMCPGB@CreateGameServiceManager@	; `string'
PUBLIC	?__LINE__Var@?0??CollocateService@CServiceUnits@@QAE_NAAUtagGameMatchOption@@@Z@4JA ; `CServiceUnits::CollocateService'::`1'::__LINE__Var
PUBLIC	??_C@_0BB@CINGBLJB@?T?$LM?U?$LN?$LH?$PO?N?q?F?t?$LG?$KP?J?$KH?$LA?$NM@ ; `string'
PUBLIC	?__LINE__Var@?0??StartKernelService@CServiceUnits@@IAE_NXZ@4JA ; `CServiceUnits::StartKernelService'::`1'::__LINE__Var
PUBLIC	?__LINE__Var@?0??StartNetworkService@CServiceUnits@@IAE_NXZ@4JA ; `CServiceUnits::StartNetworkService'::`1'::__LINE__Var
PUBLIC	??_C@_0DB@JLIFGLDO@?S?N?O?$LH?D?$KD?$LP?i?$LF?D?$LA?s?$LG?$KI?5DLL?5?C?$PL?W?V?S?k?E?d?V?C?D?$KD@ ; `string'
PUBLIC	??_C@_0BJ@PAFNNNND@?S?N?O?$LH?D?$KD?$LP?i?$LF?w?U?$PL?E?d?V?C?$LC?N?J?$PN?J?$KH?$LA?$NM@ ; `string'
PUBLIC	??_C@_0CH@OOGEGCIH@?S?N?O?$LH?D?$KD?$LP?i?$LC?$LL?V?$KH?$LD?V?E?d?V?C?V?P?V?$LI?$LG?$KI?$LF?D?$LH?$LP?$LM?d?D@ ; `string'
PUBLIC	??_C@_0P@OPCEHFKE@?N?$LE?$LM?S?T?X?$LB?H?H?$PM?E?d?V?C@ ; `string'
PUBLIC	?__LINE__Var@?0??SetServiceStatus@CServiceUnits@@AAE_NW4enServiceStatus@@@Z@4JA ; `CServiceUnits::SetServiceStatus'::`1'::__LINE__Var
PUBLIC	??_C@_0N@LNPLGNA@?$LH?$PO?N?q?F?t?$LG?$KP?J?$KH?$LA?$NM@ ; `string'
PUBLIC	?__LINE__Var@?0??SendControlPacket@CServiceUnits@@AAE_NGPAXG@Z@4JA ; `CServiceUnits::SendControlPacket'::`1'::__LINE__Var
PUBLIC	?__LINE__Var@?0??LoadDataBaseParameter@CServiceUnits@@QAE_NPBD0AAUtagDataBaseParameter@@@Z@4JA ; `CServiceUnits::LoadDataBaseParameter'::`1'::__LINE__Var
PUBLIC	??_C@_0BB@EOFIIHMB@?$EAstrDataBaseAddr@		; `string'
PUBLIC	??_C@_0BI@EBKHBLK@GSP_GS_LoadDataBaseInfo@	; `string'
PUBLIC	??_C@_0O@BGGHDOEH@ErrorDescribe@		; `string'
PUBLIC	??_C@_06EKCLIHPK@DBUser@			; `string'
PUBLIC	??_C@_0L@CINAGOHO@DBPassword@			; `string'
PUBLIC	??_C@_06NHDHPCNO@DBPort@			; `string'
PUBLIC	??_R0PAUIDataBaseException@@@8			; IDataBaseException * `RTTI Type Descriptor'
PUBLIC	?__LINE__Var@?0??OnUIControlRequest@CServiceUnits@@IAEJIJ@Z@4JA ; `CServiceUnits::OnUIControlRequest'::`1'::__LINE__Var
PUBLIC	??_C@_09LOOPACNL@?$CFs?2?$CFd?4ini@		; `string'
PUBLIC	??_C@_07DOAOMMKG@Enabled@			; `string'
PUBLIC	??_C@_06CKGENIKG@Enable@			; `string'
PUBLIC	?__LINE__Var@?0??WritePersonalDissumeInfo@CServiceUnits@@AAE_NXZ@4JA ; `CServiceUnits::WritePersonalDissumeInfo'::`1'::__LINE__Var
PUBLIC	??_C@_0L@FIEHJJML@?$EAwServerID@		; `string'
PUBLIC	??_C@_0BC@IIOJPJPJ@?$EAstrErrorDescribe@	; `string'
PUBLIC	??_C@_0CB@FOIHGICL@GSP_GS_CloseRoomWriteDissumeTim@ ; `string'
PUBLIC	??_C@_0DA@PCJBGNDG@CreateGameServer?5?$LE?$LE?$LN?$KI?5PlatformD@ ; `string'
PUBLIC	??_C@_0DG@CDIFDKED@g?3?2?M?x?$LK?$PM?2happygamewh?2?$LH?$PO?N?q?$LG?K?2?O?$LF?M?$LD@ ; `string'
PUBLIC	??_C@_0BD@LMOFNGMO@?$KB?$LA?$CFs?$KB?$LB?D?$KD?$LP?i?$LM?S?T?X?J?$KH?$LA?$NM@ ; `string'
PUBLIC	??_C@_0BM@PEGNCJOH@?U?R?$LC?$LL?$LF?$LN?W?i?$LM?$PO?$LE?$LE?$LN?$KI?$LK?$KP?J?$PN?$KB?$LA?$CFs?$KB?$LB?3?$CFd@ ; `string'
PUBLIC	??_C@_0BL@PDAODLKM@?$LF?w?S?C?$LK?$KP?J?$PN?$KB?$LA?$CFs?$KB?$LB?I?z?$LD?I?$LG?T?O?s?J?$KH?$LA?$NM@ ; `string'
PUBLIC	??_R0PAD@8					; char * `RTTI Type Descriptor'
PUBLIC	??_C@_0BJ@JGPFHIJF@?S?I?S?Z?$KB?$LA?$CFs?$KB?$LB?$KD?$KM?W?i?$LM?$PO?$LE?$LE?$LN?$KI?J?$KH?$LA?$NM@ ; `string'
PUBLIC	??_C@_0DB@JBNKENAJ@?W?i?$LM?$PO?$LE?$LE?$LN?$KI?$LK?$KP?J?$PN?$KB?$LA?$CFs?$KB?$LB?$LC?z?I?z?N?$LE?V?$KK?R?l?$LD?$KD?$LE@ ; `string'
PUBLIC	??_R4CServiceUnits@@6B@				; CServiceUnits::`RTTI Complete Object Locator'
PUBLIC	??_R0?AVCServiceUnits@@@8			; CServiceUnits `RTTI Type Descriptor'
PUBLIC	??_R3CServiceUnits@@8				; CServiceUnits::`RTTI Class Hierarchy Descriptor'
PUBLIC	??_R2CServiceUnits@@8				; CServiceUnits::`RTTI Base Class Array'
PUBLIC	??_R1A@?0A@EA@CServiceUnits@@8			; CServiceUnits::`RTTI Base Class Descriptor at (0,-1,0,64)'
EXTRN	??_L@YGXPAXIIP6EX0@Z1@Z:PROC			; `eh vector constructor iterator'
EXTRN	??_M@YGXPAXIIP6EX0@Z@Z:PROC			; `eh vector destructor iterator'
EXTRN	??3@YAXPAXI@Z:PROC				; operator delete
EXTRN	?__global_delete@@YAXPAXI@Z:PROC		; __global_delete
EXTRN	_memset:PROC
EXTRN	__imp__GetLastError@0:PROC
EXTRN	__imp__GetProcAddress@8:PROC
EXTRN	__imp__lstrcmpA@8:PROC
EXTRN	__imp__lstrcpynA@12:PROC
EXTRN	__imp__WritePrivateProfileStringA@16:PROC
EXTRN	__imp__wsprintfA:PROC
EXTRN	__imp__PeekMessageA@20:PROC
EXTRN	__imp__PostQuitMessage@4:PROC
EXTRN	__imp__IsWindow@4:PROC
EXTRN	__imp____stdio_common_vsprintf:PROC
EXTRN	__imp____stdio_common_vsnprintf_s:PROC
EXTRN	__imp___CrtDbgReport:PROC
EXTRN	??3CObject@@SGXPAX@Z:PROC			; CObject::operator delete
EXTRN	?Serialize@CObject@@UAEXAAVCArchive@@@Z:PROC	; CObject::Serialize
EXTRN	?OnCmdMsg@CCmdTarget@@UAEHIHPAXPAUAFX_CMDHANDLERINFO@@@Z:PROC ; CCmdTarget::OnCmdMsg
EXTRN	?IsInvokeAllowed@CCmdTarget@@UAEHJ@Z:PROC	; CCmdTarget::IsInvokeAllowed
EXTRN	?GetDispatchIID@CCmdTarget@@UAEHPAU_GUID@@@Z:PROC ; CCmdTarget::GetDispatchIID
EXTRN	?GetTypeInfoCount@CCmdTarget@@UAEIXZ:PROC	; CCmdTarget::GetTypeInfoCount
EXTRN	?GetTypeLibCache@CCmdTarget@@UAEPAVCTypeLibCache@@XZ:PROC ; CCmdTarget::GetTypeLibCache
EXTRN	?GetTypeLib@CCmdTarget@@UAEJKPAPAUITypeLib@@@Z:PROC ; CCmdTarget::GetTypeLib
EXTRN	?GetCommandMap@CCmdTarget@@MBEPBUAFX_OLECMDMAP@@XZ:PROC ; CCmdTarget::GetCommandMap
EXTRN	?GetDispatchMap@CCmdTarget@@MBEPBUAFX_DISPMAP@@XZ:PROC ; CCmdTarget::GetDispatchMap
EXTRN	?GetConnectionMap@CCmdTarget@@MBEPBUAFX_CONNECTIONMAP@@XZ:PROC ; CCmdTarget::GetConnectionMap
EXTRN	?GetEventSinkMap@CCmdTarget@@MBEPBUAFX_EVENTSINKMAP@@XZ:PROC ; CCmdTarget::GetEventSinkMap
EXTRN	?OnCreateAggregates@CCmdTarget@@UAEHXZ:PROC	; CCmdTarget::OnCreateAggregates
EXTRN	?GetInterfaceHook@CCmdTarget@@UAEPAUIUnknown@@PBX@Z:PROC ; CCmdTarget::GetInterfaceHook
EXTRN	?GetExtraConnectionPoints@CCmdTarget@@MAEHPAVCPtrArray@@@Z:PROC ; CCmdTarget::GetExtraConnectionPoints
EXTRN	?GetConnectionHook@CCmdTarget@@MAEPAUIConnectionPoint@@ABU_GUID@@@Z:PROC ; CCmdTarget::GetConnectionHook
EXTRN	?GetRuntimeClass@CWnd@@UBEPAUCRuntimeClass@@XZ:PROC ; CWnd::GetRuntimeClass
EXTRN	??0CWnd@@QAE@XZ:PROC				; CWnd::CWnd
EXTRN	?PreSubclassWindow@CWnd@@UAEXXZ:PROC		; CWnd::PreSubclassWindow
EXTRN	?Create@CWnd@@UAEHPBD0KABUtagRECT@@PAV1@IPAUCCreateContext@@@Z:PROC ; CWnd::Create
EXTRN	?CreateEx@CWnd@@UAEHKPBD0KHHHHPAUHWND__@@PAUHMENU__@@PAX@Z:PROC ; CWnd::CreateEx
EXTRN	?CreateEx@CWnd@@UAEHKPBD0KABUtagRECT@@PAV1@IPAX@Z:PROC ; CWnd::CreateEx
EXTRN	?DestroyWindow@CWnd@@UAEHXZ:PROC		; CWnd::DestroyWindow
EXTRN	?PreCreateWindow@CWnd@@UAEHAAUtagCREATESTRUCTA@@@Z:PROC ; CWnd::PreCreateWindow
EXTRN	?CalcWindowRect@CWnd@@UAEXPAUtagRECT@@I@Z:PROC	; CWnd::CalcWindowRect
EXTRN	?PostMessageA@CWnd@@QAEHIIJ@Z:PROC		; CWnd::PostMessageA
EXTRN	?GetMenu@CWnd@@UBEPAVCMenu@@XZ:PROC		; CWnd::GetMenu
EXTRN	?SetMenu@CWnd@@UAEHPAVCMenu@@@Z:PROC		; CWnd::SetMenu
EXTRN	?OnToolHitTest@CWnd@@UBEHVCPoint@@PAUtagTOOLINFOA@@@Z:PROC ; CWnd::OnToolHitTest
EXTRN	?GetScrollBarCtrl@CWnd@@UBEPAVCScrollBar@@H@Z:PROC ; CWnd::GetScrollBarCtrl
EXTRN	?WinHelpA@CWnd@@UAEXKI@Z:PROC			; CWnd::WinHelpA
EXTRN	?HtmlHelpA@CWnd@@UAEXKI@Z:PROC			; CWnd::HtmlHelpA
EXTRN	?WinHelpInternal@CWnd@@UAEXKI@Z:PROC		; CWnd::WinHelpInternal
EXTRN	?ContinueModal@CWnd@@UAEHXZ:PROC		; CWnd::ContinueModal
EXTRN	?EndModalLoop@CWnd@@UAEXH@Z:PROC		; CWnd::EndModalLoop
EXTRN	?OnDrawIconicThumbnailOrLivePreview@CWnd@@UAEXAAVCDC@@VCRect@@VCSize@@HAAH@Z:PROC ; CWnd::OnDrawIconicThumbnailOrLivePreview
EXTRN	?GetInterfaceMap@CWnd@@MBEPBUAFX_INTERFACEMAP@@XZ:PROC ; CWnd::GetInterfaceMap
EXTRN	?EnsureStdObj@CWnd@@UAEJXZ:PROC			; CWnd::EnsureStdObj
EXTRN	?get_accParent@CWnd@@UAEJPAPAUIDispatch@@@Z:PROC ; CWnd::get_accParent
EXTRN	?get_accChildCount@CWnd@@UAEJPAJ@Z:PROC		; CWnd::get_accChildCount
EXTRN	?get_accChild@CWnd@@UAEJUtagVARIANT@@PAPAUIDispatch@@@Z:PROC ; CWnd::get_accChild
EXTRN	?get_accName@CWnd@@UAEJUtagVARIANT@@PAPA_W@Z:PROC ; CWnd::get_accName
EXTRN	?get_accValue@CWnd@@UAEJUtagVARIANT@@PAPA_W@Z:PROC ; CWnd::get_accValue
EXTRN	?get_accDescription@CWnd@@UAEJUtagVARIANT@@PAPA_W@Z:PROC ; CWnd::get_accDescription
EXTRN	?get_accRole@CWnd@@UAEJUtagVARIANT@@PAU2@@Z:PROC ; CWnd::get_accRole
EXTRN	?get_accState@CWnd@@UAEJUtagVARIANT@@PAU2@@Z:PROC ; CWnd::get_accState
EXTRN	?get_accHelp@CWnd@@UAEJUtagVARIANT@@PAPA_W@Z:PROC ; CWnd::get_accHelp
EXTRN	?get_accHelpTopic@CWnd@@UAEJPAPA_WUtagVARIANT@@PAJ@Z:PROC ; CWnd::get_accHelpTopic
EXTRN	?get_accKeyboardShortcut@CWnd@@UAEJUtagVARIANT@@PAPA_W@Z:PROC ; CWnd::get_accKeyboardShortcut
EXTRN	?get_accFocus@CWnd@@UAEJPAUtagVARIANT@@@Z:PROC	; CWnd::get_accFocus
EXTRN	?get_accSelection@CWnd@@UAEJPAUtagVARIANT@@@Z:PROC ; CWnd::get_accSelection
EXTRN	?get_accDefaultAction@CWnd@@UAEJUtagVARIANT@@PAPA_W@Z:PROC ; CWnd::get_accDefaultAction
EXTRN	?accSelect@CWnd@@UAEJJUtagVARIANT@@@Z:PROC	; CWnd::accSelect
EXTRN	?accLocation@CWnd@@UAEJPAJ000UtagVARIANT@@@Z:PROC ; CWnd::accLocation
EXTRN	?accNavigate@CWnd@@UAEJJUtagVARIANT@@PAU2@@Z:PROC ; CWnd::accNavigate
EXTRN	?accHitTest@CWnd@@UAEJJJPAUtagVARIANT@@@Z:PROC	; CWnd::accHitTest
EXTRN	?accDoDefaultAction@CWnd@@UAEJUtagVARIANT@@@Z:PROC ; CWnd::accDoDefaultAction
EXTRN	?put_accName@CWnd@@UAEJUtagVARIANT@@PA_W@Z:PROC	; CWnd::put_accName
EXTRN	?put_accValue@CWnd@@UAEJUtagVARIANT@@PA_W@Z:PROC ; CWnd::put_accValue
EXTRN	?SetProxy@CWnd@@UAEJPAUIAccessibleProxy@@@Z:PROC ; CWnd::SetProxy
EXTRN	?CreateAccessibleProxy@CWnd@@UAEJIJPAJ@Z:PROC	; CWnd::CreateAccessibleProxy
EXTRN	?OnCommand@CWnd@@MAEHIJ@Z:PROC			; CWnd::OnCommand
EXTRN	?OnNotify@CWnd@@MAEHIJPAJ@Z:PROC		; CWnd::OnNotify
EXTRN	?GetSuperWndProcAddr@CWnd@@MAEPAP6GJPAUHWND__@@IIJ@ZXZ:PROC ; CWnd::GetSuperWndProcAddr
EXTRN	?DoDataExchange@CWnd@@MAEXPAVCDataExchange@@@Z:PROC ; CWnd::DoDataExchange
EXTRN	?BeginModalState@CWnd@@UAEXXZ:PROC		; CWnd::BeginModalState
EXTRN	?EndModalState@CWnd@@UAEXXZ:PROC		; CWnd::EndModalState
EXTRN	?PreTranslateMessage@CWnd@@UAEHPAUtagMSG@@@Z:PROC ; CWnd::PreTranslateMessage
EXTRN	?OnAmbientProperty@CWnd@@UAEHPAVCOleControlSite@@JPAUtagVARIANT@@@Z:PROC ; CWnd::OnAmbientProperty
EXTRN	?WindowProc@CWnd@@MAEJIIJ@Z:PROC		; CWnd::WindowProc
EXTRN	?OnWndMsg@CWnd@@MAEHIIJPAJ@Z:PROC		; CWnd::OnWndMsg
EXTRN	?DefWindowProcA@CWnd@@MAEJIIJ@Z:PROC		; CWnd::DefWindowProcA
EXTRN	?PostNcDestroy@CWnd@@MAEXXZ:PROC		; CWnd::PostNcDestroy
EXTRN	?OnChildNotify@CWnd@@MAEHIIJPAJ@Z:PROC		; CWnd::OnChildNotify
EXTRN	?OnTouchInputs@CWnd@@MAEHIPAUtagTOUCHINPUT@@@Z:PROC ; CWnd::OnTouchInputs
EXTRN	?OnTouchInput@CWnd@@MAEHVCPoint@@HHPAUtagTOUCHINPUT@@@Z:PROC ; CWnd::OnTouchInput
EXTRN	?GetGestureStatus@CWnd@@MAEKVCPoint@@@Z:PROC	; CWnd::GetGestureStatus
EXTRN	?OnGestureZoom@CWnd@@MAEHVCPoint@@J@Z:PROC	; CWnd::OnGestureZoom
EXTRN	?OnGesturePan@CWnd@@MAEHVCPoint@@0@Z:PROC	; CWnd::OnGesturePan
EXTRN	?OnGestureRotate@CWnd@@MAEHVCPoint@@N@Z:PROC	; CWnd::OnGestureRotate
EXTRN	?OnGestureTwoFingerTap@CWnd@@MAEHVCPoint@@@Z:PROC ; CWnd::OnGestureTwoFingerTap
EXTRN	?OnGesturePressAndTap@CWnd@@MAEHVCPoint@@J@Z:PROC ; CWnd::OnGesturePressAndTap
EXTRN	?ResizeDynamicLayout@CWnd@@MAEXXZ:PROC		; CWnd::ResizeDynamicLayout
EXTRN	??1CWnd@@UAE@XZ:PROC				; CWnd::~CWnd
EXTRN	?CheckAutoCenter@CWnd@@UAEHXZ:PROC		; CWnd::CheckAutoCenter
EXTRN	?AssertValid@CWnd@@UBEXXZ:PROC			; CWnd::AssertValid
EXTRN	?Dump@CWnd@@UBEXAAVCDumpContext@@@Z:PROC	; CWnd::Dump
EXTRN	?IsFrameWnd@CWnd@@UBEHXZ:PROC			; CWnd::IsFrameWnd
EXTRN	?OnFinalRelease@CWnd@@UAEXXZ:PROC		; CWnd::OnFinalRelease
EXTRN	?CreateControlContainer@CWnd@@MAEHPAPAVCOleControlContainer@@@Z:PROC ; CWnd::CreateControlContainer
EXTRN	?CreateControlSite@CWnd@@MAEHPAVCOleControlContainer@@PAPAVCOleControlSite@@IABU_GUID@@@Z:PROC ; CWnd::CreateControlSite
EXTRN	?SetOccDialogInfo@CWnd@@MAEHPAU_AFX_OCC_DIALOG_INFO@@@Z:PROC ; CWnd::SetOccDialogInfo
EXTRN	?GetOccDialogInfo@CWnd@@MAEPAU_AFX_OCC_DIALOG_INFO@@XZ:PROC ; CWnd::GetOccDialogInfo
EXTRN	?AfxGetMainWnd@@YGPAVCWnd@@XZ:PROC		; AfxGetMainWnd
EXTRN	?AfxMessageBox@@YGHPBDII@Z:PROC			; AfxMessageBox
EXTRN	?AfxLoadLibrary@@YGPAUHINSTANCE__@@PBD@Z:PROC	; AfxLoadLibrary
EXTRN	?AfxFreeLibrary@@YGHPAUHINSTANCE__@@@Z:PROC	; AfxFreeLibrary
EXTRN	??0CCriticalSection@@QAE@XZ:PROC		; CCriticalSection::CCriticalSection
EXTRN	??1CCriticalSection@@UAE@XZ:PROC		; CCriticalSection::~CCriticalSection
EXTRN	__imp_?XorCrevasse@CWHEncrypt@@SA_NPBDPADG@Z:PROC
EXTRN	__imp_?GetWorkDirectory@CWHService@@SA_NQADG@Z:PROC
EXTRN	__imp_??0CWHIniData@@QAE@XZ:PROC
EXTRN	__imp_??1CWHIniData@@UAE@XZ:PROC
EXTRN	__imp_?SetIniFilePath@CWHIniData@@QAEXPBD@Z:PROC
EXTRN	__imp_?ReadInt@CWHIniData@@QAEIPBD0H@Z:PROC
EXTRN	__imp_??0CWHDataQueue@@QAE@XZ:PROC
EXTRN	__imp_??1CWHDataQueue@@UAE@XZ:PROC
EXTRN	__imp_?InsertData@CWHDataQueue@@QAE_NGPAXG@Z:PROC
EXTRN	__imp_?DistillData@CWHDataQueue@@QAE_NAAUtagDataHead@@PAXG@Z:PROC
EXTRN	__imp_??0CWHDataLocker@@QAE@AAVCCriticalSection@@_N@Z:PROC
EXTRN	__imp_??1CWHDataLocker@@UAE@XZ:PROC
EXTRN	??_E?$CTempldateHelper@UIDataBase@@@@UAEPAXI@Z:PROC ; CTempldateHelper<IDataBase>::`vector deleting destructor'
EXTRN	??_ECDataBaseHelper@@UAEPAXI@Z:PROC		; CDataBaseHelper::`vector deleting destructor'
EXTRN	??_E?$CTempldateHelper@UITimerEngine@@@@UAEPAXI@Z:PROC ; CTempldateHelper<ITimerEngine>::`vector deleting destructor'
EXTRN	??_ECTimerEngineHelper@@UAEPAXI@Z:PROC		; CTimerEngineHelper::`vector deleting destructor'
EXTRN	??_E?$CTempldateHelper@UIDataBaseEngine@@@@UAEPAXI@Z:PROC ; CTempldateHelper<IDataBaseEngine>::`vector deleting destructor'
EXTRN	??_ECDataBaseEngineHelper@@UAEPAXI@Z:PROC	; CDataBaseEngineHelper::`vector deleting destructor'
EXTRN	??_E?$CTempldateHelper@UIAttemperEngine@@@@UAEPAXI@Z:PROC ; CTempldateHelper<IAttemperEngine>::`vector deleting destructor'
EXTRN	??_ECAttemperEngineHelper@@UAEPAXI@Z:PROC	; CAttemperEngineHelper::`vector deleting destructor'
EXTRN	??_E?$CTempldateHelper@UITCPSocketService@@@@UAEPAXI@Z:PROC ; CTempldateHelper<ITCPSocketService>::`vector deleting destructor'
EXTRN	??_ECTCPSocketServiceHelper@@UAEPAXI@Z:PROC	; CTCPSocketServiceHelper::`vector deleting destructor'
EXTRN	??_E?$CTempldateHelper@UITCPNetworkEngine@@@@UAEPAXI@Z:PROC ; CTempldateHelper<ITCPNetworkEngine>::`vector deleting destructor'
EXTRN	??_ECTCPNetworkEngineHelper@@UAEPAXI@Z:PROC	; CTCPNetworkEngineHelper::`vector deleting destructor'
EXTRN	__imp_??0CDataBaseAide@@QAE@PAUIUnknownEx@@@Z:PROC
EXTRN	__imp_??1CDataBaseAide@@UAE@XZ:PROC
EXTRN	__imp_?SetDataBase@CDataBaseAide@@QAE_NPAUIUnknownEx@@@Z:PROC
EXTRN	__imp_?GetValue_WORD@CDataBaseAide@@QAEGPBD@Z:PROC
EXTRN	__imp_?GetValue_String@CDataBaseAide@@QAEXPBDPADI@Z:PROC
EXTRN	__imp_?ResetParameter@CDataBaseAide@@QAEXXZ:PROC
EXTRN	__imp_?GetParameter@CDataBaseAide@@QAEXPBDPADI@Z:PROC
EXTRN	__imp_?AddParameter@CDataBaseAide@@QAEXPBDGW4ParameterDirectionEnum@ADOCG@@@Z:PROC
EXTRN	__imp_?AddParameter@CDataBaseAide@@QAEXPBD0W4ParameterDirectionEnum@ADOCG@@@Z:PROC
EXTRN	__imp_?AddParameterOutput@CDataBaseAide@@QAEXPBDPADIW4ParameterDirectionEnum@ADOCG@@@Z:PROC
EXTRN	__imp_?ExecuteProcess@CDataBaseAide@@QAEJPBD_N@Z:PROC
EXTRN	__imp_?TraceString@CTraceService@@SA_NPBDW4enTraceLevel@@@Z:PROC
EXTRN	??_E?$CTempldateHelper@UIGameServiceManager@@@@UAEPAXI@Z:PROC ; CTempldateHelper<IGameServiceManager>::`vector deleting destructor'
EXTRN	??_ECGameServiceManagerHelper@@UAEPAXI@Z:PROC	; CGameServiceManagerHelper::`vector deleting destructor'
EXTRN	??_E?$CTempldateHelper@UIMatchServiceManager@@@@UAEPAXI@Z:PROC ; CTempldateHelper<IMatchServiceManager>::`vector deleting destructor'
EXTRN	??_ECMatchServiceManagerHelper@@UAEPAXI@Z:PROC	; CMatchServiceManagerHelper::`vector deleting destructor'
EXTRN	??_E?$CTempldateHelper@UIPersonalRoomServiceManager@@@@UAEPAXI@Z:PROC ; CTempldateHelper<IPersonalRoomServiceManager>::`vector deleting destructor'
EXTRN	??_ECPersonalRoomServiceManagerHelper@@UAEPAXI@Z:PROC ; CPersonalRoomServiceManagerHelper::`vector deleting destructor'
EXTRN	__imp_?GetPlatformDBParameter@CModuleDBParameter@@QAEPAUtagDataBaseParameter@@XZ:PROC
EXTRN	__imp_?GetModuleDBParameter@CModuleDBParameter@@SAPAV1@XZ:PROC
EXTRN	??0CInitParameter@@QAE@XZ:PROC			; CInitParameter::CInitParameter
EXTRN	??1CInitParameter@@UAE@XZ:PROC			; CInitParameter::~CInitParameter
EXTRN	?LoadInitParameter@CInitParameter@@QAEXXZ:PROC	; CInitParameter::LoadInitParameter
EXTRN	?SetServerParameter@CInitParameter@@QAEXPAUtagGameServiceAttrib@@PAUtagGameServiceOption@@@Z:PROC ; CInitParameter::SetServerParameter
EXTRN	??0CAttemperEngineSink@@QAE@XZ:PROC		; CAttemperEngineSink::CAttemperEngineSink
EXTRN	??1CAttemperEngineSink@@UAE@XZ:PROC		; CAttemperEngineSink::~CAttemperEngineSink
EXTRN	??0CDataBaseEngineSink@@QAE@XZ:PROC		; CDataBaseEngineSink::CDataBaseEngineSink
EXTRN	??1CDataBaseEngineSink@@UAE@XZ:PROC		; CDataBaseEngineSink::~CDataBaseEngineSink
EXTRN	??0CDBCorrespondManager@@QAE@XZ:PROC		; CDBCorrespondManager::CDBCorrespondManager
EXTRN	??1CDBCorrespondManager@@QAE@XZ:PROC		; CDBCorrespondManager::~CDBCorrespondManager
EXTRN	??_ECServiceUnits@@UAEPAXI@Z:PROC		; CServiceUnits::`vector deleting destructor'
EXTRN	@__security_check_cookie@4:PROC
EXTRN	___CxxFrameHandler3:PROC
EXTRN	__chkstk:PROC
EXTRN	_memset:PROC
EXTRN	??_7type_info@@6B@:QWORD			; type_info::`vftable'
EXTRN	___security_cookie:DWORD
;	COMDAT ?_OptionsStorage@?1??__local_stdio_printf_options@@9@4_KA
_BSS	SEGMENT
?_OptionsStorage@?1??__local_stdio_printf_options@@9@4_KA DQ 01H DUP (?) ; `__local_stdio_printf_options'::`2'::_OptionsStorage
_BSS	ENDS
;	COMDAT ??_R1A@?0A@EA@CServiceUnits@@8
rdata$r	SEGMENT
??_R1A@?0A@EA@CServiceUnits@@8 DD FLAT:??_R0?AVCServiceUnits@@@8 ; CServiceUnits::`RTTI Base Class Descriptor at (0,-1,0,64)'
	DD	03H
	DD	00H
	DD	0ffffffffH
	DD	00H
	DD	040H
	DD	FLAT:??_R3CServiceUnits@@8
rdata$r	ENDS
;	COMDAT ??_R2CServiceUnits@@8
rdata$r	SEGMENT
??_R2CServiceUnits@@8 DD FLAT:??_R1A@?0A@EA@CServiceUnits@@8 ; CServiceUnits::`RTTI Base Class Array'
	DD	FLAT:??_R1A@?0A@EA@CWnd@@8
	DD	FLAT:??_R1A@?0A@EA@CCmdTarget@@8
	DD	FLAT:??_R1A@?0A@EA@CObject@@8
rdata$r	ENDS
;	COMDAT ??_R3CServiceUnits@@8
rdata$r	SEGMENT
??_R3CServiceUnits@@8 DD 00H				; CServiceUnits::`RTTI Class Hierarchy Descriptor'
	DD	00H
	DD	04H
	DD	FLAT:??_R2CServiceUnits@@8
rdata$r	ENDS
;	COMDAT ??_R0?AVCServiceUnits@@@8
data$r	SEGMENT
??_R0?AVCServiceUnits@@@8 DD FLAT:??_7type_info@@6B@	; CServiceUnits `RTTI Type Descriptor'
	DD	00H
	DB	'.?AVCServiceUnits@@', 00H
data$r	ENDS
;	COMDAT ??_R4CServiceUnits@@6B@
rdata$r	SEGMENT
??_R4CServiceUnits@@6B@ DD 00H				; CServiceUnits::`RTTI Complete Object Locator'
	DD	00H
	DD	00H
	DD	FLAT:??_R0?AVCServiceUnits@@@8
	DD	FLAT:??_R3CServiceUnits@@8
rdata$r	ENDS
;	COMDAT ??_C@_0DB@JBNKENAJ@?W?i?$LM?$PO?$LE?$LE?$LN?$KI?$LK?$KP?J?$PN?$KB?$LA?$CFs?$KB?$LB?$LC?z?I?z?N?$LE?V?$KK?R?l?$LD?$KD?$LE@
CONST	SEGMENT
??_C@_0DB@JBNKENAJ@?W?i?$LM?$PO?$LE?$LE?$LN?$KI?$LK?$KP?J?$PN?$KB?$LA?$CFs?$KB?$LB?$LC?z?I?z?N?$LE?V?$KK?R?l?$LD?$KD?$LE@ DB 0d7H
	DB	0e9H, 0bcH, 0feH, 0b4H, 0b4H, 0bdH, 0a8H, 0baH, 0afH, 0caH, 0fdH
	DB	0a1H, 0b0H, '%s', 0a1H, 0b1H, 0b2H, 0faH, 0c9H, 0faH, 0ceH, 0b4H
	DB	0d6H, 0aaH, 0d2H, 0ecH, 0b3H, 0a3H, 0b4H, 0edH, 0ceH, 0f3H, 0a3H
	DB	0acH, 0d7H, 0e9H, 0bcH, 0feH, 0b4H, 0b4H, 0bdH, 0a8H, 0caH, 0a7H
	DB	0b0H, 0dcH, 00H				; `string'
CONST	ENDS
;	COMDAT ??_C@_0BJ@JGPFHIJF@?S?I?S?Z?$KB?$LA?$CFs?$KB?$LB?$KD?$KM?W?i?$LM?$PO?$LE?$LE?$LN?$KI?J?$KH?$LA?$NM@
CONST	SEGMENT
??_C@_0BJ@JGPFHIJF@?S?I?S?Z?$KB?$LA?$CFs?$KB?$LB?$KD?$KM?W?i?$LM?$PO?$LE?$LE?$LN?$KI?J?$KH?$LA?$NM@ DB 0d3H
	DB	0c9H, 0d3H, 0daH, 0a1H, 0b0H, '%s', 0a1H, 0b1H, 0a3H, 0acH, 0d7H
	DB	0e9H, 0bcH, 0feH, 0b4H, 0b4H, 0bdH, 0a8H, 0caH, 0a7H, 0b0H, 0dcH
	DB	00H						; `string'
CONST	ENDS
;	COMDAT ??_R0PAD@8
data$r	SEGMENT
??_R0PAD@8 DD	FLAT:??_7type_info@@6B@			; char * `RTTI Type Descriptor'
	DD	00H
	DB	'.PAD', 00H
data$r	ENDS
;	COMDAT ??_C@_0BL@PDAODLKM@?$LF?w?S?C?$LK?$KP?J?$PN?$KB?$LA?$CFs?$KB?$LB?I?z?$LD?I?$LG?T?O?s?J?$KH?$LA?$NM@
CONST	SEGMENT
??_C@_0BL@PDAODLKM@?$LF?w?S?C?$LK?$KP?J?$PN?$KB?$LA?$CFs?$KB?$LB?I?z?$LD?I?$LG?T?O?s?J?$KH?$LA?$NM@ DB 0b5H
	DB	0f7H, 0d3H, 0c3H, 0baH, 0afH, 0caH, 0fdH, 0a1H, 0b0H, '%s', 0a1H
	DB	0b1H, 0c9H, 0faH, 0b3H, 0c9H, 0b6H, 0d4H, 0cfH, 0f3H, 0caH, 0a7H
	DB	0b0H, 0dcH, 00H				; `string'
CONST	ENDS
;	COMDAT ??_C@_0BM@PEGNCJOH@?U?R?$LC?$LL?$LF?$LN?W?i?$LM?$PO?$LE?$LE?$LN?$KI?$LK?$KP?J?$PN?$KB?$LA?$CFs?$KB?$LB?3?$CFd@
CONST	SEGMENT
??_C@_0BM@PEGNCJOH@?U?R?$LC?$LL?$LF?$LN?W?i?$LM?$PO?$LE?$LE?$LN?$KI?$LK?$KP?J?$PN?$KB?$LA?$CFs?$KB?$LB?3?$CFd@ DB 0d5H
	DB	0d2H, 0b2H, 0bbH, 0b5H, 0bdH, 0d7H, 0e9H, 0bcH, 0feH, 0b4H, 0b4H
	DB	0bdH, 0a8H, 0baH, 0afH, 0caH, 0fdH, 0a1H, 0b0H, '%s', 0a1H, 0b1H
	DB	':%d', 00H					; `string'
CONST	ENDS
;	COMDAT ??_C@_0BD@LMOFNGMO@?$KB?$LA?$CFs?$KB?$LB?D?$KD?$LP?i?$LM?S?T?X?J?$KH?$LA?$NM@
CONST	SEGMENT
??_C@_0BD@LMOFNGMO@?$KB?$LA?$CFs?$KB?$LB?D?$KD?$LP?i?$LM?S?T?X?J?$KH?$LA?$NM@ DB 0a1H
	DB	0b0H, '%s', 0a1H, 0b1H, 0c4H, 0a3H, 0bfH, 0e9H, 0bcH, 0d3H, 0d4H
	DB	0d8H, 0caH, 0a7H, 0b0H, 0dcH, 00H		; `string'
CONST	ENDS
;	COMDAT ??_C@_0DG@CDIFDKED@g?3?2?M?x?$LK?$PM?2happygamewh?2?$LH?$PO?N?q?$LG?K?2?O?$LF?M?$LD@
CONST	SEGMENT
??_C@_0DG@CDIFDKED@g?3?2?M?x?$LK?$PM?2happygamewh?2?$LH?$PO?N?q?$LG?K?2?O?$LF?M?$LD@ DB 'g'
	DB	':\', 0cdH, 0f8H, 0baH, 0fcH, '\happygamewh\', 0b7H, 0feH, 0ceH
	DB	0f1H, 0b6H, 0cbH, '\', 0cfH, 0b5H, 0cdH, 0b3H, 0c4H, 0a3H, 0bfH
	DB	0e9H, '\', 0c8H, 0abH, 0beH, 0d6H, 0b6H, 0a8H, 0d2H, 0e5H, '\m'
	DB	'odule.h', 00H				; `string'
CONST	ENDS
;	COMDAT ??_C@_0DA@PCJBGNDG@CreateGameServer?5?$LE?$LE?$LN?$KI?5PlatformD@
CONST	SEGMENT
??_C@_0DA@PCJBGNDG@CreateGameServer?5?$LE?$LE?$LN?$KI?5PlatformD@ DB 'Cre'
	DB	'ateGameServer ', 0b4H, 0b4H, 0bdH, 0a8H, ' PlatformDBModule ', 0b6H
	DB	0d4H, 0cfH, 0f3H, 0caH, 0a7H, 0b0H, 0dcH, 00H ; `string'
CONST	ENDS
;	COMDAT ??_C@_0CB@FOIHGICL@GSP_GS_CloseRoomWriteDissumeTim@
CONST	SEGMENT
??_C@_0CB@FOIHGICL@GSP_GS_CloseRoomWriteDissumeTim@ DB 'GSP_GS_CloseRoomW'
	DB	'riteDissumeTime', 00H			; `string'
CONST	ENDS
;	COMDAT ??_C@_0BC@IIOJPJPJ@?$EAstrErrorDescribe@
CONST	SEGMENT
??_C@_0BC@IIOJPJPJ@?$EAstrErrorDescribe@ DB '@strErrorDescribe', 00H ; `string'
CONST	ENDS
;	COMDAT ??_C@_0L@FIEHJJML@?$EAwServerID@
CONST	SEGMENT
??_C@_0L@FIEHJJML@?$EAwServerID@ DB '@wServerID', 00H	; `string'
CONST	ENDS
;	COMDAT ?__LINE__Var@?0??WritePersonalDissumeInfo@CServiceUnits@@AAE_NXZ@4JA
_DATA	SEGMENT
?__LINE__Var@?0??WritePersonalDissumeInfo@CServiceUnits@@AAE_NXZ@4JA DD 0351H ; `CServiceUnits::WritePersonalDissumeInfo'::`1'::__LINE__Var
_DATA	ENDS
;	COMDAT ??_C@_06CKGENIKG@Enable@
CONST	SEGMENT
??_C@_06CKGENIKG@Enable@ DB 'Enable', 00H		; `string'
CONST	ENDS
;	COMDAT ??_C@_07DOAOMMKG@Enabled@
CONST	SEGMENT
??_C@_07DOAOMMKG@Enabled@ DB 'Enabled', 00H		; `string'
CONST	ENDS
;	COMDAT ??_C@_09LOOPACNL@?$CFs?2?$CFd?4ini@
CONST	SEGMENT
??_C@_09LOOPACNL@?$CFs?2?$CFd?4ini@ DB '%s\%d.ini', 00H	; `string'
CONST	ENDS
;	COMDAT ?__LINE__Var@?0??OnUIControlRequest@CServiceUnits@@IAEJIJ@Z@4JA
_DATA	SEGMENT
?__LINE__Var@?0??OnUIControlRequest@CServiceUnits@@IAEJIJ@Z@4JA DD 02c7H ; `CServiceUnits::OnUIControlRequest'::`1'::__LINE__Var
_DATA	ENDS
;	COMDAT ??_R0PAUIDataBaseException@@@8
data$r	SEGMENT
??_R0PAUIDataBaseException@@@8 DD FLAT:??_7type_info@@6B@ ; IDataBaseException * `RTTI Type Descriptor'
	DD	00H
	DB	'.PAUIDataBaseException@@', 00H
data$r	ENDS
;	COMDAT ??_C@_06NHDHPCNO@DBPort@
CONST	SEGMENT
??_C@_06NHDHPCNO@DBPort@ DB 'DBPort', 00H		; `string'
CONST	ENDS
;	COMDAT ??_C@_0L@CINAGOHO@DBPassword@
CONST	SEGMENT
??_C@_0L@CINAGOHO@DBPassword@ DB 'DBPassword', 00H	; `string'
CONST	ENDS
;	COMDAT ??_C@_06EKCLIHPK@DBUser@
CONST	SEGMENT
??_C@_06EKCLIHPK@DBUser@ DB 'DBUser', 00H		; `string'
CONST	ENDS
;	COMDAT ??_C@_0O@BGGHDOEH@ErrorDescribe@
CONST	SEGMENT
??_C@_0O@BGGHDOEH@ErrorDescribe@ DB 'ErrorDescribe', 00H ; `string'
CONST	ENDS
;	COMDAT ??_C@_0BI@EBKHBLK@GSP_GS_LoadDataBaseInfo@
CONST	SEGMENT
??_C@_0BI@EBKHBLK@GSP_GS_LoadDataBaseInfo@ DB 'GSP_GS_LoadDataBaseInfo', 00H ; `string'
CONST	ENDS
;	COMDAT ??_C@_0BB@EOFIIHMB@?$EAstrDataBaseAddr@
CONST	SEGMENT
??_C@_0BB@EOFIIHMB@?$EAstrDataBaseAddr@ DB '@strDataBaseAddr', 00H ; `string'
CONST	ENDS
;	COMDAT ?__LINE__Var@?0??LoadDataBaseParameter@CServiceUnits@@QAE_NPBD0AAUtagDataBaseParameter@@@Z@4JA
_DATA	SEGMENT
?__LINE__Var@?0??LoadDataBaseParameter@CServiceUnits@@QAE_NPBD0AAUtagDataBaseParameter@@@Z@4JA DD 027fH ; `CServiceUnits::LoadDataBaseParameter'::`1'::__LINE__Var
_DATA	ENDS
;	COMDAT ?__LINE__Var@?0??SendControlPacket@CServiceUnits@@AAE_NGPAXG@Z@4JA
_DATA	SEGMENT
?__LINE__Var@?0??SendControlPacket@CServiceUnits@@AAE_NGPAXG@Z@4JA DD 0272H ; `CServiceUnits::SendControlPacket'::`1'::__LINE__Var
_DATA	ENDS
;	COMDAT ??_C@_0N@LNPLGNA@?$LH?$PO?N?q?F?t?$LG?$KP?J?$KH?$LA?$NM@
CONST	SEGMENT
??_C@_0N@LNPLGNA@?$LH?$PO?N?q?F?t?$LG?$KP?J?$KH?$LA?$NM@ DB 0b7H, 0feH, 0ceH
	DB	0f1H, 0c6H, 0f4H, 0b6H, 0afH, 0caH, 0a7H, 0b0H, 0dcH, 00H ; `string'
CONST	ENDS
;	COMDAT ?__LINE__Var@?0??SetServiceStatus@CServiceUnits@@AAE_NW4enServiceStatus@@@Z@4JA
_DATA	SEGMENT
?__LINE__Var@?0??SetServiceStatus@CServiceUnits@@AAE_NW4enServiceStatus@@@Z@4JA DD 025aH ; `CServiceUnits::SetServiceStatus'::`1'::__LINE__Var
_DATA	ENDS
;	COMDAT ??_C@_0P@OPCEHFKE@?N?$LE?$LM?S?T?X?$LB?H?H?$PM?E?d?V?C@
CONST	SEGMENT
??_C@_0P@OPCEHFKE@?N?$LE?$LM?S?T?X?$LB?H?H?$PM?E?d?V?C@ DB 0ceH, 0b4H, 0bcH
	DB	0d3H, 0d4H, 0d8H, 0b1H, 0c8H, 0c8H, 0fcH, 0c5H, 0e4H, 0d6H, 0c3H
	DB	00H						; `string'
CONST	ENDS
;	COMDAT ??_C@_0CH@OOGEGCIH@?S?N?O?$LH?D?$KD?$LP?i?$LC?$LL?V?$KH?$LD?V?E?d?V?C?V?P?V?$LI?$LG?$KI?$LF?D?$LH?$LP?$LM?d?D@
CONST	SEGMENT
??_C@_0CH@OOGEGCIH@?S?N?O?$LH?D?$KD?$LP?i?$LC?$LL?V?$KH?$LD?V?E?d?V?C?V?P?V?$LI?$LG?$KI?$LF?D?$LH?$LP?$LM?d?D@ DB 0d3H
	DB	0ceH, 0cfH, 0b7H, 0c4H, 0a3H, 0bfH, 0e9H, 0b2H, 0bbH, 0d6H, 0a7H
	DB	0b3H, 0d6H, 0c5H, 0e4H, 0d6H, 0c3H, 0d6H, 0d0H, 0d6H, 0b8H, 0b6H
	DB	0a8H, 0b5H, 0c4H, 0b7H, 0bfH, 0bcH, 0e4H, 0c4H, 0a3H, 0caH, 0bdH
	DB	0c0H, 0e0H, 0d0H, 0cdH, 00H			; `string'
CONST	ENDS
;	COMDAT ??_C@_0BJ@PAFNNNND@?S?N?O?$LH?D?$KD?$LP?i?$LF?w?U?$PL?E?d?V?C?$LC?N?J?$PN?J?$KH?$LA?$NM@
CONST	SEGMENT
??_C@_0BJ@PAFNNNND@?S?N?O?$LH?D?$KD?$LP?i?$LF?w?U?$PL?E?d?V?C?$LC?N?J?$PN?J?$KH?$LA?$NM@ DB 0d3H
	DB	0ceH, 0cfH, 0b7H, 0c4H, 0a3H, 0bfH, 0e9H, 0b5H, 0f7H, 0d5H, 0fbH
	DB	0c5H, 0e4H, 0d6H, 0c3H, 0b2H, 0ceH, 0caH, 0fdH, 0caH, 0a7H, 0b0H
	DB	0dcH, 00H					; `string'
CONST	ENDS
;	COMDAT ??_C@_0DB@JLIFGLDO@?S?N?O?$LH?D?$KD?$LP?i?$LF?D?$LA?s?$LG?$KI?5DLL?5?C?$PL?W?V?S?k?E?d?V?C?D?$KD@
CONST	SEGMENT
??_C@_0DB@JLIFGLDO@?S?N?O?$LH?D?$KD?$LP?i?$LF?D?$LA?s?$LG?$KI?5DLL?5?C?$PL?W?V?S?k?E?d?V?C?D?$KD@ DB 0d3H
	DB	0ceH, 0cfH, 0b7H, 0c4H, 0a3H, 0bfH, 0e9H, 0b5H, 0c4H, 0b0H, 0f3H
	DB	0b6H, 0a8H, ' DLL ', 0c3H, 0fbH, 0d7H, 0d6H, 0d3H, 0ebH, 0c5H, 0e4H
	DB	0d6H, 0c3H, 0c4H, 0a3H, 0bfH, 0e9H, ' DLL ', 0c3H, 0fbH, 0d7H, 0d6H
	DB	0b2H, 0bbH, 0d2H, 0bbH, 0d6H, 0c2H, 00H	; `string'
CONST	ENDS
;	COMDAT ?__LINE__Var@?0??StartNetworkService@CServiceUnits@@IAE_NXZ@4JA
_DATA	SEGMENT
?__LINE__Var@?0??StartNetworkService@CServiceUnits@@IAE_NXZ@4JA DD 01d1H ; `CServiceUnits::StartNetworkService'::`1'::__LINE__Var
_DATA	ENDS
;	COMDAT ?__LINE__Var@?0??StartKernelService@CServiceUnits@@IAE_NXZ@4JA
_DATA	SEGMENT
?__LINE__Var@?0??StartKernelService@CServiceUnits@@IAE_NXZ@4JA DD 0190H ; `CServiceUnits::StartKernelService'::`1'::__LINE__Var
_DATA	ENDS
;	COMDAT ??_C@_0BB@CINGBLJB@?T?$LM?U?$LN?$LH?$PO?N?q?F?t?$LG?$KP?J?$KH?$LA?$NM@
CONST	SEGMENT
??_C@_0BB@CINGBLJB@?T?$LM?U?$LN?$LH?$PO?N?q?F?t?$LG?$KP?J?$KH?$LA?$NM@ DB 0d4H
	DB	0bcH, 0d5H, 0bdH, 0b7H, 0feH, 0ceH, 0f1H, 0c6H, 0f4H, 0b6H, 0afH
	DB	0caH, 0a7H, 0b0H, 0dcH, 00H			; `string'
CONST	ENDS
;	COMDAT ?__LINE__Var@?0??CollocateService@CServiceUnits@@QAE_NAAUtagGameMatchOption@@@Z@4JA
_DATA	SEGMENT
?__LINE__Var@?0??CollocateService@CServiceUnits@@QAE_NAAUtagGameMatchOption@@@Z@4JA DD 0adH ; `CServiceUnits::CollocateService'::`1'::__LINE__Var
_DATA	ENDS
;	COMDAT ??_C@_0BJ@EBOMCPGB@CreateGameServiceManager@
CONST	SEGMENT
??_C@_0BJ@EBOMCPGB@CreateGameServiceManager@ DB 'CreateGameServiceManager'
	DB	00H						; `string'
CONST	ENDS
;	COMDAT ?__LINE__Var@?0??CollocateService@CServiceUnits@@QAE_NPBDAAUtagGameServiceOption@@@Z@4JA
_DATA	SEGMENT
?__LINE__Var@?0??CollocateService@CServiceUnits@@QAE_NPBDAAUtagGameServiceOption@@@Z@4JA DD 09fH ; `CServiceUnits::CollocateService'::`1'::__LINE__Var
_DATA	ENDS
;	COMDAT ?__LINE__Var@?0??StartService@CServiceUnits@@QAE_NXZ@4JA
_DATA	SEGMENT
?__LINE__Var@?0??StartService@CServiceUnits@@QAE_NXZ@4JA DD 04aH ; `CServiceUnits::StartService'::`1'::__LINE__Var
_DATA	ENDS
;	COMDAT ?__LINE__Var@?0??PostControlRequest@CServiceUnits@@QAE_NGPAXG@Z@4JA
_DATA	SEGMENT
?__LINE__Var@?0??PostControlRequest@CServiceUnits@@QAE_NGPAXG@Z@4JA DD 039H ; `CServiceUnits::PostControlRequest'::`1'::__LINE__Var
_DATA	ENDS
;	COMDAT ??_C@_0EL@IDOGNJLC@g?3?2?M?x?$LK?$PM?2happygamewh?2?$LH?$PO?N?q?$LG?K?2?O?$LF?M?$LD@
CONST	SEGMENT
??_C@_0EL@IDOGNJLC@g?3?2?M?x?$LK?$PM?2happygamewh?2?$LH?$PO?N?q?$LG?K?2?O?$LF?M?$LD@ DB 'g'
	DB	':\', 0cdH, 0f8H, 0baH, 0fcH, '\happygamewh\', 0b7H, 0feH, 0ceH
	DB	0f1H, 0b6H, 0cbH, '\', 0cfH, 0b5H, 0cdH, 0b3H, 0c4H, 0a3H, 0bfH
	DB	0e9H, '\', 0b7H, 0feH, 0ceH, 0f1H, 0c6H, 0f7H, 0d7H, 0e9H, 0bcH
	DB	0feH, '\', 0d3H, 0ceH, 0cfH, 0b7H, 0b7H, 0feH, 0ceH, 0f1H, 0c6H
	DB	0f7H, '\serviceunits.cpp', 00H		; `string'
CONST	ENDS
;	COMDAT ?__LINE__Var@?0???0CServiceUnits@@QAE@XZ@4JA
_DATA	SEGMENT
?__LINE__Var@?0???0CServiceUnits@@QAE@XZ@4JA DD 014H	; `CServiceUnits::CServiceUnits'::`1'::__LINE__Var
_DATA	ENDS
;	COMDAT ??_7CServiceUnits@@6B@
CONST	SEGMENT
??_7CServiceUnits@@6B@ DD FLAT:??_R4CServiceUnits@@6B@	; CServiceUnits::`vftable'
	DD	FLAT:?GetRuntimeClass@CWnd@@UBEPAUCRuntimeClass@@XZ
	DD	FLAT:??_ECServiceUnits@@UAEPAXI@Z
	DD	FLAT:?Serialize@CObject@@UAEXAAVCArchive@@@Z
	DD	FLAT:?AssertValid@CWnd@@UBEXXZ
	DD	FLAT:?Dump@CWnd@@UBEXAAVCDumpContext@@@Z
	DD	FLAT:?OnCmdMsg@CCmdTarget@@UAEHIHPAXPAUAFX_CMDHANDLERINFO@@@Z
	DD	FLAT:?OnFinalRelease@CWnd@@UAEXXZ
	DD	FLAT:?IsInvokeAllowed@CCmdTarget@@UAEHJ@Z
	DD	FLAT:?GetDispatchIID@CCmdTarget@@UAEHPAU_GUID@@@Z
	DD	FLAT:?GetTypeInfoCount@CCmdTarget@@UAEIXZ
	DD	FLAT:?GetTypeLibCache@CCmdTarget@@UAEPAVCTypeLibCache@@XZ
	DD	FLAT:?GetTypeLib@CCmdTarget@@UAEJKPAPAUITypeLib@@@Z
	DD	FLAT:?GetMessageMap@CServiceUnits@@MBEPBUAFX_MSGMAP@@XZ
	DD	FLAT:?GetCommandMap@CCmdTarget@@MBEPBUAFX_OLECMDMAP@@XZ
	DD	FLAT:?GetDispatchMap@CCmdTarget@@MBEPBUAFX_DISPMAP@@XZ
	DD	FLAT:?GetConnectionMap@CCmdTarget@@MBEPBUAFX_CONNECTIONMAP@@XZ
	DD	FLAT:?GetInterfaceMap@CWnd@@MBEPBUAFX_INTERFACEMAP@@XZ
	DD	FLAT:?GetEventSinkMap@CCmdTarget@@MBEPBUAFX_EVENTSINKMAP@@XZ
	DD	FLAT:?OnCreateAggregates@CCmdTarget@@UAEHXZ
	DD	FLAT:?GetInterfaceHook@CCmdTarget@@UAEPAUIUnknown@@PBX@Z
	DD	FLAT:?GetExtraConnectionPoints@CCmdTarget@@MAEHPAVCPtrArray@@@Z
	DD	FLAT:?GetConnectionHook@CCmdTarget@@MAEPAUIConnectionPoint@@ABU_GUID@@@Z
	DD	FLAT:?PreSubclassWindow@CWnd@@UAEXXZ
	DD	FLAT:?Create@CWnd@@UAEHPBD0KABUtagRECT@@PAV1@IPAUCCreateContext@@@Z
	DD	FLAT:?CreateEx@CWnd@@UAEHKPBD0KABUtagRECT@@PAV1@IPAX@Z
	DD	FLAT:?CreateEx@CWnd@@UAEHKPBD0KHHHHPAUHWND__@@PAUHMENU__@@PAX@Z
	DD	FLAT:?DestroyWindow@CWnd@@UAEHXZ
	DD	FLAT:?PreCreateWindow@CWnd@@UAEHAAUtagCREATESTRUCTA@@@Z
	DD	FLAT:?CalcWindowRect@CWnd@@UAEXPAUtagRECT@@I@Z
	DD	FLAT:?GetMenu@CWnd@@UBEPAVCMenu@@XZ
	DD	FLAT:?SetMenu@CWnd@@UAEHPAVCMenu@@@Z
	DD	FLAT:?OnToolHitTest@CWnd@@UBEHVCPoint@@PAUtagTOOLINFOA@@@Z
	DD	FLAT:?GetScrollBarCtrl@CWnd@@UBEPAVCScrollBar@@H@Z
	DD	FLAT:?WinHelpA@CWnd@@UAEXKI@Z
	DD	FLAT:?HtmlHelpA@CWnd@@UAEXKI@Z
	DD	FLAT:?WinHelpInternal@CWnd@@UAEXKI@Z
	DD	FLAT:?ContinueModal@CWnd@@UAEHXZ
	DD	FLAT:?EndModalLoop@CWnd@@UAEXH@Z
	DD	FLAT:?OnDrawIconicThumbnailOrLivePreview@CWnd@@UAEXAAVCDC@@VCRect@@VCSize@@HAAH@Z
	DD	FLAT:?EnsureStdObj@CWnd@@UAEJXZ
	DD	FLAT:?get_accParent@CWnd@@UAEJPAPAUIDispatch@@@Z
	DD	FLAT:?get_accChildCount@CWnd@@UAEJPAJ@Z
	DD	FLAT:?get_accChild@CWnd@@UAEJUtagVARIANT@@PAPAUIDispatch@@@Z
	DD	FLAT:?get_accName@CWnd@@UAEJUtagVARIANT@@PAPA_W@Z
	DD	FLAT:?get_accValue@CWnd@@UAEJUtagVARIANT@@PAPA_W@Z
	DD	FLAT:?get_accDescription@CWnd@@UAEJUtagVARIANT@@PAPA_W@Z
	DD	FLAT:?get_accRole@CWnd@@UAEJUtagVARIANT@@PAU2@@Z
	DD	FLAT:?get_accState@CWnd@@UAEJUtagVARIANT@@PAU2@@Z
	DD	FLAT:?get_accHelp@CWnd@@UAEJUtagVARIANT@@PAPA_W@Z
	DD	FLAT:?get_accHelpTopic@CWnd@@UAEJPAPA_WUtagVARIANT@@PAJ@Z
	DD	FLAT:?get_accKeyboardShortcut@CWnd@@UAEJUtagVARIANT@@PAPA_W@Z
	DD	FLAT:?get_accFocus@CWnd@@UAEJPAUtagVARIANT@@@Z
	DD	FLAT:?get_accSelection@CWnd@@UAEJPAUtagVARIANT@@@Z
	DD	FLAT:?get_accDefaultAction@CWnd@@UAEJUtagVARIANT@@PAPA_W@Z
	DD	FLAT:?accSelect@CWnd@@UAEJJUtagVARIANT@@@Z
	DD	FLAT:?accLocation@CWnd@@UAEJPAJ000UtagVARIANT@@@Z
	DD	FLAT:?accNavigate@CWnd@@UAEJJUtagVARIANT@@PAU2@@Z
	DD	FLAT:?accHitTest@CWnd@@UAEJJJPAUtagVARIANT@@@Z
	DD	FLAT:?accDoDefaultAction@CWnd@@UAEJUtagVARIANT@@@Z
	DD	FLAT:?put_accName@CWnd@@UAEJUtagVARIANT@@PA_W@Z
	DD	FLAT:?put_accValue@CWnd@@UAEJUtagVARIANT@@PA_W@Z
	DD	FLAT:?SetProxy@CWnd@@UAEJPAUIAccessibleProxy@@@Z
	DD	FLAT:?CreateAccessibleProxy@CWnd@@UAEJIJPAJ@Z
	DD	FLAT:?OnCommand@CWnd@@MAEHIJ@Z
	DD	FLAT:?OnNotify@CWnd@@MAEHIJPAJ@Z
	DD	FLAT:?GetSuperWndProcAddr@CWnd@@MAEPAP6GJPAUHWND__@@IIJ@ZXZ
	DD	FLAT:?DoDataExchange@CWnd@@MAEXPAVCDataExchange@@@Z
	DD	FLAT:?BeginModalState@CWnd@@UAEXXZ
	DD	FLAT:?EndModalState@CWnd@@UAEXXZ
	DD	FLAT:?PreTranslateMessage@CWnd@@UAEHPAUtagMSG@@@Z
	DD	FLAT:?OnAmbientProperty@CWnd@@UAEHPAVCOleControlSite@@JPAUtagVARIANT@@@Z
	DD	FLAT:?WindowProc@CWnd@@MAEJIIJ@Z
	DD	FLAT:?OnWndMsg@CWnd@@MAEHIIJPAJ@Z
	DD	FLAT:?DefWindowProcA@CWnd@@MAEJIIJ@Z
	DD	FLAT:?PostNcDestroy@CWnd@@MAEXXZ
	DD	FLAT:?OnChildNotify@CWnd@@MAEHIIJPAJ@Z
	DD	FLAT:?OnTouchInputs@CWnd@@MAEHIPAUtagTOUCHINPUT@@@Z
	DD	FLAT:?OnTouchInput@CWnd@@MAEHVCPoint@@HHPAUtagTOUCHINPUT@@@Z
	DD	FLAT:?GetGestureStatus@CWnd@@MAEKVCPoint@@@Z
	DD	FLAT:?OnGestureZoom@CWnd@@MAEHVCPoint@@J@Z
	DD	FLAT:?OnGesturePan@CWnd@@MAEHVCPoint@@0@Z
	DD	FLAT:?OnGestureRotate@CWnd@@MAEHVCPoint@@N@Z
	DD	FLAT:?OnGestureTwoFingerTap@CWnd@@MAEHVCPoint@@@Z
	DD	FLAT:?OnGesturePressAndTap@CWnd@@MAEHVCPoint@@J@Z
	DD	FLAT:?ResizeDynamicLayout@CWnd@@MAEXXZ
	DD	FLAT:?CheckAutoCenter@CWnd@@UAEHXZ
	DD	FLAT:?IsFrameWnd@CWnd@@UBEHXZ
	DD	FLAT:?CreateControlContainer@CWnd@@MAEHPAPAVCOleControlContainer@@@Z
	DD	FLAT:?CreateControlSite@CWnd@@MAEHPAVCOleControlContainer@@PAPAVCOleControlSite@@IABU_GUID@@@Z
	DD	FLAT:?SetOccDialogInfo@CWnd@@MAEHPAU_AFX_OCC_DIALOG_INFO@@@Z
	DD	FLAT:?GetOccDialogInfo@CWnd@@MAEPAU_AFX_OCC_DIALOG_INFO@@XZ
CONST	ENDS
;	COMDAT ??_R4?$CTempldateHelper@UIPersonalRoomServiceManager@@@@6B@
rdata$r	SEGMENT
??_R4?$CTempldateHelper@UIPersonalRoomServiceManager@@@@6B@ DD 00H ; CTempldateHelper<IPersonalRoomServiceManager>::`RTTI Complete Object Locator'
	DD	00H
	DD	00H
	DD	FLAT:??_R0?AV?$CTempldateHelper@UIPersonalRoomServiceManager@@@@@8
	DD	FLAT:??_R3?$CTempldateHelper@UIPersonalRoomServiceManager@@@@8
rdata$r	ENDS
;	COMDAT ??_R2?$CTempldateHelper@UIPersonalRoomServiceManager@@@@8
rdata$r	SEGMENT
??_R2?$CTempldateHelper@UIPersonalRoomServiceManager@@@@8 DD FLAT:??_R1A@?0A@EA@?$CTempldateHelper@UIPersonalRoomServiceManager@@@@8 ; CTempldateHelper<IPersonalRoomServiceManager>::`RTTI Base Class Array'
rdata$r	ENDS
;	COMDAT ??_R3?$CTempldateHelper@UIPersonalRoomServiceManager@@@@8
rdata$r	SEGMENT
??_R3?$CTempldateHelper@UIPersonalRoomServiceManager@@@@8 DD 00H ; CTempldateHelper<IPersonalRoomServiceManager>::`RTTI Class Hierarchy Descriptor'
	DD	00H
	DD	01H
	DD	FLAT:??_R2?$CTempldateHelper@UIPersonalRoomServiceManager@@@@8
rdata$r	ENDS
;	COMDAT ??_R0?AV?$CTempldateHelper@UIPersonalRoomServiceManager@@@@@8
data$r	SEGMENT
??_R0?AV?$CTempldateHelper@UIPersonalRoomServiceManager@@@@@8 DD FLAT:??_7type_info@@6B@ ; CTempldateHelper<IPersonalRoomServiceManager> `RTTI Type Descriptor'
	DD	00H
	DB	'.?AV?$CTempldateHelper@UIPersonalRoomServiceManager@@@@', 00H
data$r	ENDS
;	COMDAT ??_R1A@?0A@EA@?$CTempldateHelper@UIPersonalRoomServiceManager@@@@8
rdata$r	SEGMENT
??_R1A@?0A@EA@?$CTempldateHelper@UIPersonalRoomServiceManager@@@@8 DD FLAT:??_R0?AV?$CTempldateHelper@UIPersonalRoomServiceManager@@@@@8 ; CTempldateHelper<IPersonalRoomServiceManager>::`RTTI Base Class Descriptor at (0,-1,0,64)'
	DD	00H
	DD	00H
	DD	0ffffffffH
	DD	00H
	DD	040H
	DD	FLAT:??_R3?$CTempldateHelper@UIPersonalRoomServiceManager@@@@8
rdata$r	ENDS
;	COMDAT ??_R1A@?0A@EA@CPersonalRoomServiceManagerHelper@@8
rdata$r	SEGMENT
??_R1A@?0A@EA@CPersonalRoomServiceManagerHelper@@8 DD FLAT:??_R0?AVCPersonalRoomServiceManagerHelper@@@8 ; CPersonalRoomServiceManagerHelper::`RTTI Base Class Descriptor at (0,-1,0,64)'
	DD	01H
	DD	00H
	DD	0ffffffffH
	DD	00H
	DD	040H
	DD	FLAT:??_R3CPersonalRoomServiceManagerHelper@@8
rdata$r	ENDS
;	COMDAT ??_R2CPersonalRoomServiceManagerHelper@@8
rdata$r	SEGMENT
??_R2CPersonalRoomServiceManagerHelper@@8 DD FLAT:??_R1A@?0A@EA@CPersonalRoomServiceManagerHelper@@8 ; CPersonalRoomServiceManagerHelper::`RTTI Base Class Array'
	DD	FLAT:??_R1A@?0A@EA@?$CTempldateHelper@UIPersonalRoomServiceManager@@@@8
rdata$r	ENDS
;	COMDAT ??_R3CPersonalRoomServiceManagerHelper@@8
rdata$r	SEGMENT
??_R3CPersonalRoomServiceManagerHelper@@8 DD 00H	; CPersonalRoomServiceManagerHelper::`RTTI Class Hierarchy Descriptor'
	DD	00H
	DD	02H
	DD	FLAT:??_R2CPersonalRoomServiceManagerHelper@@8
rdata$r	ENDS
;	COMDAT ??_R0?AVCPersonalRoomServiceManagerHelper@@@8
data$r	SEGMENT
??_R0?AVCPersonalRoomServiceManagerHelper@@@8 DD FLAT:??_7type_info@@6B@ ; CPersonalRoomServiceManagerHelper `RTTI Type Descriptor'
	DD	00H
	DB	'.?AVCPersonalRoomServiceManagerHelper@@', 00H
data$r	ENDS
;	COMDAT ??_R4CPersonalRoomServiceManagerHelper@@6B@
rdata$r	SEGMENT
??_R4CPersonalRoomServiceManagerHelper@@6B@ DD 00H	; CPersonalRoomServiceManagerHelper::`RTTI Complete Object Locator'
	DD	00H
	DD	00H
	DD	FLAT:??_R0?AVCPersonalRoomServiceManagerHelper@@@8
	DD	FLAT:??_R3CPersonalRoomServiceManagerHelper@@8
rdata$r	ENDS
;	COMDAT ??_R4?$CTempldateHelper@UIMatchServiceManager@@@@6B@
rdata$r	SEGMENT
??_R4?$CTempldateHelper@UIMatchServiceManager@@@@6B@ DD 00H ; CTempldateHelper<IMatchServiceManager>::`RTTI Complete Object Locator'
	DD	00H
	DD	00H
	DD	FLAT:??_R0?AV?$CTempldateHelper@UIMatchServiceManager@@@@@8
	DD	FLAT:??_R3?$CTempldateHelper@UIMatchServiceManager@@@@8
rdata$r	ENDS
;	COMDAT ??_R2?$CTempldateHelper@UIMatchServiceManager@@@@8
rdata$r	SEGMENT
??_R2?$CTempldateHelper@UIMatchServiceManager@@@@8 DD FLAT:??_R1A@?0A@EA@?$CTempldateHelper@UIMatchServiceManager@@@@8 ; CTempldateHelper<IMatchServiceManager>::`RTTI Base Class Array'
rdata$r	ENDS
;	COMDAT ??_R3?$CTempldateHelper@UIMatchServiceManager@@@@8
rdata$r	SEGMENT
??_R3?$CTempldateHelper@UIMatchServiceManager@@@@8 DD 00H ; CTempldateHelper<IMatchServiceManager>::`RTTI Class Hierarchy Descriptor'
	DD	00H
	DD	01H
	DD	FLAT:??_R2?$CTempldateHelper@UIMatchServiceManager@@@@8
rdata$r	ENDS
;	COMDAT ??_R0?AV?$CTempldateHelper@UIMatchServiceManager@@@@@8
data$r	SEGMENT
??_R0?AV?$CTempldateHelper@UIMatchServiceManager@@@@@8 DD FLAT:??_7type_info@@6B@ ; CTempldateHelper<IMatchServiceManager> `RTTI Type Descriptor'
	DD	00H
	DB	'.?AV?$CTempldateHelper@UIMatchServiceManager@@@@', 00H
data$r	ENDS
;	COMDAT ??_R1A@?0A@EA@?$CTempldateHelper@UIMatchServiceManager@@@@8
rdata$r	SEGMENT
??_R1A@?0A@EA@?$CTempldateHelper@UIMatchServiceManager@@@@8 DD FLAT:??_R0?AV?$CTempldateHelper@UIMatchServiceManager@@@@@8 ; CTempldateHelper<IMatchServiceManager>::`RTTI Base Class Descriptor at (0,-1,0,64)'
	DD	00H
	DD	00H
	DD	0ffffffffH
	DD	00H
	DD	040H
	DD	FLAT:??_R3?$CTempldateHelper@UIMatchServiceManager@@@@8
rdata$r	ENDS
;	COMDAT ??_R1A@?0A@EA@CMatchServiceManagerHelper@@8
rdata$r	SEGMENT
??_R1A@?0A@EA@CMatchServiceManagerHelper@@8 DD FLAT:??_R0?AVCMatchServiceManagerHelper@@@8 ; CMatchServiceManagerHelper::`RTTI Base Class Descriptor at (0,-1,0,64)'
	DD	01H
	DD	00H
	DD	0ffffffffH
	DD	00H
	DD	040H
	DD	FLAT:??_R3CMatchServiceManagerHelper@@8
rdata$r	ENDS
;	COMDAT ??_R2CMatchServiceManagerHelper@@8
rdata$r	SEGMENT
??_R2CMatchServiceManagerHelper@@8 DD FLAT:??_R1A@?0A@EA@CMatchServiceManagerHelper@@8 ; CMatchServiceManagerHelper::`RTTI Base Class Array'
	DD	FLAT:??_R1A@?0A@EA@?$CTempldateHelper@UIMatchServiceManager@@@@8
rdata$r	ENDS
;	COMDAT ??_R3CMatchServiceManagerHelper@@8
rdata$r	SEGMENT
??_R3CMatchServiceManagerHelper@@8 DD 00H		; CMatchServiceManagerHelper::`RTTI Class Hierarchy Descriptor'
	DD	00H
	DD	02H
	DD	FLAT:??_R2CMatchServiceManagerHelper@@8
rdata$r	ENDS
;	COMDAT ??_R0?AVCMatchServiceManagerHelper@@@8
data$r	SEGMENT
??_R0?AVCMatchServiceManagerHelper@@@8 DD FLAT:??_7type_info@@6B@ ; CMatchServiceManagerHelper `RTTI Type Descriptor'
	DD	00H
	DB	'.?AVCMatchServiceManagerHelper@@', 00H
data$r	ENDS
;	COMDAT ??_R4CMatchServiceManagerHelper@@6B@
rdata$r	SEGMENT
??_R4CMatchServiceManagerHelper@@6B@ DD 00H		; CMatchServiceManagerHelper::`RTTI Complete Object Locator'
	DD	00H
	DD	00H
	DD	FLAT:??_R0?AVCMatchServiceManagerHelper@@@8
	DD	FLAT:??_R3CMatchServiceManagerHelper@@8
rdata$r	ENDS
;	COMDAT ??_R4?$CTempldateHelper@UIGameServiceManager@@@@6B@
rdata$r	SEGMENT
??_R4?$CTempldateHelper@UIGameServiceManager@@@@6B@ DD 00H ; CTempldateHelper<IGameServiceManager>::`RTTI Complete Object Locator'
	DD	00H
	DD	00H
	DD	FLAT:??_R0?AV?$CTempldateHelper@UIGameServiceManager@@@@@8
	DD	FLAT:??_R3?$CTempldateHelper@UIGameServiceManager@@@@8
rdata$r	ENDS
;	COMDAT ??_R2?$CTempldateHelper@UIGameServiceManager@@@@8
rdata$r	SEGMENT
??_R2?$CTempldateHelper@UIGameServiceManager@@@@8 DD FLAT:??_R1A@?0A@EA@?$CTempldateHelper@UIGameServiceManager@@@@8 ; CTempldateHelper<IGameServiceManager>::`RTTI Base Class Array'
rdata$r	ENDS
;	COMDAT ??_R3?$CTempldateHelper@UIGameServiceManager@@@@8
rdata$r	SEGMENT
??_R3?$CTempldateHelper@UIGameServiceManager@@@@8 DD 00H ; CTempldateHelper<IGameServiceManager>::`RTTI Class Hierarchy Descriptor'
	DD	00H
	DD	01H
	DD	FLAT:??_R2?$CTempldateHelper@UIGameServiceManager@@@@8
rdata$r	ENDS
;	COMDAT ??_R0?AV?$CTempldateHelper@UIGameServiceManager@@@@@8
data$r	SEGMENT
??_R0?AV?$CTempldateHelper@UIGameServiceManager@@@@@8 DD FLAT:??_7type_info@@6B@ ; CTempldateHelper<IGameServiceManager> `RTTI Type Descriptor'
	DD	00H
	DB	'.?AV?$CTempldateHelper@UIGameServiceManager@@@@', 00H
data$r	ENDS
;	COMDAT ??_R1A@?0A@EA@?$CTempldateHelper@UIGameServiceManager@@@@8
rdata$r	SEGMENT
??_R1A@?0A@EA@?$CTempldateHelper@UIGameServiceManager@@@@8 DD FLAT:??_R0?AV?$CTempldateHelper@UIGameServiceManager@@@@@8 ; CTempldateHelper<IGameServiceManager>::`RTTI Base Class Descriptor at (0,-1,0,64)'
	DD	00H
	DD	00H
	DD	0ffffffffH
	DD	00H
	DD	040H
	DD	FLAT:??_R3?$CTempldateHelper@UIGameServiceManager@@@@8
rdata$r	ENDS
;	COMDAT ??_R1A@?0A@EA@CGameServiceManagerHelper@@8
rdata$r	SEGMENT
??_R1A@?0A@EA@CGameServiceManagerHelper@@8 DD FLAT:??_R0?AVCGameServiceManagerHelper@@@8 ; CGameServiceManagerHelper::`RTTI Base Class Descriptor at (0,-1,0,64)'
	DD	01H
	DD	00H
	DD	0ffffffffH
	DD	00H
	DD	040H
	DD	FLAT:??_R3CGameServiceManagerHelper@@8
rdata$r	ENDS
;	COMDAT ??_R2CGameServiceManagerHelper@@8
rdata$r	SEGMENT
??_R2CGameServiceManagerHelper@@8 DD FLAT:??_R1A@?0A@EA@CGameServiceManagerHelper@@8 ; CGameServiceManagerHelper::`RTTI Base Class Array'
	DD	FLAT:??_R1A@?0A@EA@?$CTempldateHelper@UIGameServiceManager@@@@8
rdata$r	ENDS
;	COMDAT ??_R3CGameServiceManagerHelper@@8
rdata$r	SEGMENT
??_R3CGameServiceManagerHelper@@8 DD 00H		; CGameServiceManagerHelper::`RTTI Class Hierarchy Descriptor'
	DD	00H
	DD	02H
	DD	FLAT:??_R2CGameServiceManagerHelper@@8
rdata$r	ENDS
;	COMDAT ??_R0?AVCGameServiceManagerHelper@@@8
data$r	SEGMENT
??_R0?AVCGameServiceManagerHelper@@@8 DD FLAT:??_7type_info@@6B@ ; CGameServiceManagerHelper `RTTI Type Descriptor'
	DD	00H
	DB	'.?AVCGameServiceManagerHelper@@', 00H
data$r	ENDS
;	COMDAT ??_R4CGameServiceManagerHelper@@6B@
rdata$r	SEGMENT
??_R4CGameServiceManagerHelper@@6B@ DD 00H		; CGameServiceManagerHelper::`RTTI Complete Object Locator'
	DD	00H
	DD	00H
	DD	FLAT:??_R0?AVCGameServiceManagerHelper@@@8
	DD	FLAT:??_R3CGameServiceManagerHelper@@8
rdata$r	ENDS
;	COMDAT ??_R4?$CTempldateHelper@UITCPNetworkEngine@@@@6B@
rdata$r	SEGMENT
??_R4?$CTempldateHelper@UITCPNetworkEngine@@@@6B@ DD 00H ; CTempldateHelper<ITCPNetworkEngine>::`RTTI Complete Object Locator'
	DD	00H
	DD	00H
	DD	FLAT:??_R0?AV?$CTempldateHelper@UITCPNetworkEngine@@@@@8
	DD	FLAT:??_R3?$CTempldateHelper@UITCPNetworkEngine@@@@8
rdata$r	ENDS
;	COMDAT ??_R2?$CTempldateHelper@UITCPNetworkEngine@@@@8
rdata$r	SEGMENT
??_R2?$CTempldateHelper@UITCPNetworkEngine@@@@8 DD FLAT:??_R1A@?0A@EA@?$CTempldateHelper@UITCPNetworkEngine@@@@8 ; CTempldateHelper<ITCPNetworkEngine>::`RTTI Base Class Array'
rdata$r	ENDS
;	COMDAT ??_R3?$CTempldateHelper@UITCPNetworkEngine@@@@8
rdata$r	SEGMENT
??_R3?$CTempldateHelper@UITCPNetworkEngine@@@@8 DD 00H	; CTempldateHelper<ITCPNetworkEngine>::`RTTI Class Hierarchy Descriptor'
	DD	00H
	DD	01H
	DD	FLAT:??_R2?$CTempldateHelper@UITCPNetworkEngine@@@@8
rdata$r	ENDS
;	COMDAT ??_R0?AV?$CTempldateHelper@UITCPNetworkEngine@@@@@8
data$r	SEGMENT
??_R0?AV?$CTempldateHelper@UITCPNetworkEngine@@@@@8 DD FLAT:??_7type_info@@6B@ ; CTempldateHelper<ITCPNetworkEngine> `RTTI Type Descriptor'
	DD	00H
	DB	'.?AV?$CTempldateHelper@UITCPNetworkEngine@@@@', 00H
data$r	ENDS
;	COMDAT ??_R1A@?0A@EA@?$CTempldateHelper@UITCPNetworkEngine@@@@8
rdata$r	SEGMENT
??_R1A@?0A@EA@?$CTempldateHelper@UITCPNetworkEngine@@@@8 DD FLAT:??_R0?AV?$CTempldateHelper@UITCPNetworkEngine@@@@@8 ; CTempldateHelper<ITCPNetworkEngine>::`RTTI Base Class Descriptor at (0,-1,0,64)'
	DD	00H
	DD	00H
	DD	0ffffffffH
	DD	00H
	DD	040H
	DD	FLAT:??_R3?$CTempldateHelper@UITCPNetworkEngine@@@@8
rdata$r	ENDS
;	COMDAT ??_R1A@?0A@EA@CTCPNetworkEngineHelper@@8
rdata$r	SEGMENT
??_R1A@?0A@EA@CTCPNetworkEngineHelper@@8 DD FLAT:??_R0?AVCTCPNetworkEngineHelper@@@8 ; CTCPNetworkEngineHelper::`RTTI Base Class Descriptor at (0,-1,0,64)'
	DD	01H
	DD	00H
	DD	0ffffffffH
	DD	00H
	DD	040H
	DD	FLAT:??_R3CTCPNetworkEngineHelper@@8
rdata$r	ENDS
;	COMDAT ??_R2CTCPNetworkEngineHelper@@8
rdata$r	SEGMENT
??_R2CTCPNetworkEngineHelper@@8 DD FLAT:??_R1A@?0A@EA@CTCPNetworkEngineHelper@@8 ; CTCPNetworkEngineHelper::`RTTI Base Class Array'
	DD	FLAT:??_R1A@?0A@EA@?$CTempldateHelper@UITCPNetworkEngine@@@@8
rdata$r	ENDS
;	COMDAT ??_R3CTCPNetworkEngineHelper@@8
rdata$r	SEGMENT
??_R3CTCPNetworkEngineHelper@@8 DD 00H			; CTCPNetworkEngineHelper::`RTTI Class Hierarchy Descriptor'
	DD	00H
	DD	02H
	DD	FLAT:??_R2CTCPNetworkEngineHelper@@8
rdata$r	ENDS
;	COMDAT ??_R0?AVCTCPNetworkEngineHelper@@@8
data$r	SEGMENT
??_R0?AVCTCPNetworkEngineHelper@@@8 DD FLAT:??_7type_info@@6B@ ; CTCPNetworkEngineHelper `RTTI Type Descriptor'
	DD	00H
	DB	'.?AVCTCPNetworkEngineHelper@@', 00H
data$r	ENDS
;	COMDAT ??_R4CTCPNetworkEngineHelper@@6B@
rdata$r	SEGMENT
??_R4CTCPNetworkEngineHelper@@6B@ DD 00H		; CTCPNetworkEngineHelper::`RTTI Complete Object Locator'
	DD	00H
	DD	00H
	DD	FLAT:??_R0?AVCTCPNetworkEngineHelper@@@8
	DD	FLAT:??_R3CTCPNetworkEngineHelper@@8
rdata$r	ENDS
;	COMDAT ??_R4?$CTempldateHelper@UITCPSocketService@@@@6B@
rdata$r	SEGMENT
??_R4?$CTempldateHelper@UITCPSocketService@@@@6B@ DD 00H ; CTempldateHelper<ITCPSocketService>::`RTTI Complete Object Locator'
	DD	00H
	DD	00H
	DD	FLAT:??_R0?AV?$CTempldateHelper@UITCPSocketService@@@@@8
	DD	FLAT:??_R3?$CTempldateHelper@UITCPSocketService@@@@8
rdata$r	ENDS
;	COMDAT ??_R2?$CTempldateHelper@UITCPSocketService@@@@8
rdata$r	SEGMENT
??_R2?$CTempldateHelper@UITCPSocketService@@@@8 DD FLAT:??_R1A@?0A@EA@?$CTempldateHelper@UITCPSocketService@@@@8 ; CTempldateHelper<ITCPSocketService>::`RTTI Base Class Array'
rdata$r	ENDS
;	COMDAT ??_R3?$CTempldateHelper@UITCPSocketService@@@@8
rdata$r	SEGMENT
??_R3?$CTempldateHelper@UITCPSocketService@@@@8 DD 00H	; CTempldateHelper<ITCPSocketService>::`RTTI Class Hierarchy Descriptor'
	DD	00H
	DD	01H
	DD	FLAT:??_R2?$CTempldateHelper@UITCPSocketService@@@@8
rdata$r	ENDS
;	COMDAT ??_R0?AV?$CTempldateHelper@UITCPSocketService@@@@@8
data$r	SEGMENT
??_R0?AV?$CTempldateHelper@UITCPSocketService@@@@@8 DD FLAT:??_7type_info@@6B@ ; CTempldateHelper<ITCPSocketService> `RTTI Type Descriptor'
	DD	00H
	DB	'.?AV?$CTempldateHelper@UITCPSocketService@@@@', 00H
data$r	ENDS
;	COMDAT ??_R1A@?0A@EA@?$CTempldateHelper@UITCPSocketService@@@@8
rdata$r	SEGMENT
??_R1A@?0A@EA@?$CTempldateHelper@UITCPSocketService@@@@8 DD FLAT:??_R0?AV?$CTempldateHelper@UITCPSocketService@@@@@8 ; CTempldateHelper<ITCPSocketService>::`RTTI Base Class Descriptor at (0,-1,0,64)'
	DD	00H
	DD	00H
	DD	0ffffffffH
	DD	00H
	DD	040H
	DD	FLAT:??_R3?$CTempldateHelper@UITCPSocketService@@@@8
rdata$r	ENDS
;	COMDAT ??_R1A@?0A@EA@CTCPSocketServiceHelper@@8
rdata$r	SEGMENT
??_R1A@?0A@EA@CTCPSocketServiceHelper@@8 DD FLAT:??_R0?AVCTCPSocketServiceHelper@@@8 ; CTCPSocketServiceHelper::`RTTI Base Class Descriptor at (0,-1,0,64)'
	DD	01H
	DD	00H
	DD	0ffffffffH
	DD	00H
	DD	040H
	DD	FLAT:??_R3CTCPSocketServiceHelper@@8
rdata$r	ENDS
;	COMDAT ??_R2CTCPSocketServiceHelper@@8
rdata$r	SEGMENT
??_R2CTCPSocketServiceHelper@@8 DD FLAT:??_R1A@?0A@EA@CTCPSocketServiceHelper@@8 ; CTCPSocketServiceHelper::`RTTI Base Class Array'
	DD	FLAT:??_R1A@?0A@EA@?$CTempldateHelper@UITCPSocketService@@@@8
rdata$r	ENDS
;	COMDAT ??_R3CTCPSocketServiceHelper@@8
rdata$r	SEGMENT
??_R3CTCPSocketServiceHelper@@8 DD 00H			; CTCPSocketServiceHelper::`RTTI Class Hierarchy Descriptor'
	DD	00H
	DD	02H
	DD	FLAT:??_R2CTCPSocketServiceHelper@@8
rdata$r	ENDS
;	COMDAT ??_R0?AVCTCPSocketServiceHelper@@@8
data$r	SEGMENT
??_R0?AVCTCPSocketServiceHelper@@@8 DD FLAT:??_7type_info@@6B@ ; CTCPSocketServiceHelper `RTTI Type Descriptor'
	DD	00H
	DB	'.?AVCTCPSocketServiceHelper@@', 00H
data$r	ENDS
;	COMDAT ??_R4CTCPSocketServiceHelper@@6B@
rdata$r	SEGMENT
??_R4CTCPSocketServiceHelper@@6B@ DD 00H		; CTCPSocketServiceHelper::`RTTI Complete Object Locator'
	DD	00H
	DD	00H
	DD	FLAT:??_R0?AVCTCPSocketServiceHelper@@@8
	DD	FLAT:??_R3CTCPSocketServiceHelper@@8
rdata$r	ENDS
;	COMDAT ??_R4?$CTempldateHelper@UIAttemperEngine@@@@6B@
rdata$r	SEGMENT
??_R4?$CTempldateHelper@UIAttemperEngine@@@@6B@ DD 00H	; CTempldateHelper<IAttemperEngine>::`RTTI Complete Object Locator'
	DD	00H
	DD	00H
	DD	FLAT:??_R0?AV?$CTempldateHelper@UIAttemperEngine@@@@@8
	DD	FLAT:??_R3?$CTempldateHelper@UIAttemperEngine@@@@8
rdata$r	ENDS
;	COMDAT ??_R2?$CTempldateHelper@UIAttemperEngine@@@@8
rdata$r	SEGMENT
??_R2?$CTempldateHelper@UIAttemperEngine@@@@8 DD FLAT:??_R1A@?0A@EA@?$CTempldateHelper@UIAttemperEngine@@@@8 ; CTempldateHelper<IAttemperEngine>::`RTTI Base Class Array'
rdata$r	ENDS
;	COMDAT ??_R3?$CTempldateHelper@UIAttemperEngine@@@@8
rdata$r	SEGMENT
??_R3?$CTempldateHelper@UIAttemperEngine@@@@8 DD 00H	; CTempldateHelper<IAttemperEngine>::`RTTI Class Hierarchy Descriptor'
	DD	00H
	DD	01H
	DD	FLAT:??_R2?$CTempldateHelper@UIAttemperEngine@@@@8
rdata$r	ENDS
;	COMDAT ??_R0?AV?$CTempldateHelper@UIAttemperEngine@@@@@8
data$r	SEGMENT
??_R0?AV?$CTempldateHelper@UIAttemperEngine@@@@@8 DD FLAT:??_7type_info@@6B@ ; CTempldateHelper<IAttemperEngine> `RTTI Type Descriptor'
	DD	00H
	DB	'.?AV?$CTempldateHelper@UIAttemperEngine@@@@', 00H
data$r	ENDS
;	COMDAT ??_R1A@?0A@EA@?$CTempldateHelper@UIAttemperEngine@@@@8
rdata$r	SEGMENT
??_R1A@?0A@EA@?$CTempldateHelper@UIAttemperEngine@@@@8 DD FLAT:??_R0?AV?$CTempldateHelper@UIAttemperEngine@@@@@8 ; CTempldateHelper<IAttemperEngine>::`RTTI Base Class Descriptor at (0,-1,0,64)'
	DD	00H
	DD	00H
	DD	0ffffffffH
	DD	00H
	DD	040H
	DD	FLAT:??_R3?$CTempldateHelper@UIAttemperEngine@@@@8
rdata$r	ENDS
;	COMDAT ??_R1A@?0A@EA@CAttemperEngineHelper@@8
rdata$r	SEGMENT
??_R1A@?0A@EA@CAttemperEngineHelper@@8 DD FLAT:??_R0?AVCAttemperEngineHelper@@@8 ; CAttemperEngineHelper::`RTTI Base Class Descriptor at (0,-1,0,64)'
	DD	01H
	DD	00H
	DD	0ffffffffH
	DD	00H
	DD	040H
	DD	FLAT:??_R3CAttemperEngineHelper@@8
rdata$r	ENDS
;	COMDAT ??_R2CAttemperEngineHelper@@8
rdata$r	SEGMENT
??_R2CAttemperEngineHelper@@8 DD FLAT:??_R1A@?0A@EA@CAttemperEngineHelper@@8 ; CAttemperEngineHelper::`RTTI Base Class Array'
	DD	FLAT:??_R1A@?0A@EA@?$CTempldateHelper@UIAttemperEngine@@@@8
rdata$r	ENDS
;	COMDAT ??_R3CAttemperEngineHelper@@8
rdata$r	SEGMENT
??_R3CAttemperEngineHelper@@8 DD 00H			; CAttemperEngineHelper::`RTTI Class Hierarchy Descriptor'
	DD	00H
	DD	02H
	DD	FLAT:??_R2CAttemperEngineHelper@@8
rdata$r	ENDS
;	COMDAT ??_R0?AVCAttemperEngineHelper@@@8
data$r	SEGMENT
??_R0?AVCAttemperEngineHelper@@@8 DD FLAT:??_7type_info@@6B@ ; CAttemperEngineHelper `RTTI Type Descriptor'
	DD	00H
	DB	'.?AVCAttemperEngineHelper@@', 00H
data$r	ENDS
;	COMDAT ??_R4CAttemperEngineHelper@@6B@
rdata$r	SEGMENT
??_R4CAttemperEngineHelper@@6B@ DD 00H			; CAttemperEngineHelper::`RTTI Complete Object Locator'
	DD	00H
	DD	00H
	DD	FLAT:??_R0?AVCAttemperEngineHelper@@@8
	DD	FLAT:??_R3CAttemperEngineHelper@@8
rdata$r	ENDS
;	COMDAT ??_R4?$CTempldateHelper@UIDataBaseEngine@@@@6B@
rdata$r	SEGMENT
??_R4?$CTempldateHelper@UIDataBaseEngine@@@@6B@ DD 00H	; CTempldateHelper<IDataBaseEngine>::`RTTI Complete Object Locator'
	DD	00H
	DD	00H
	DD	FLAT:??_R0?AV?$CTempldateHelper@UIDataBaseEngine@@@@@8
	DD	FLAT:??_R3?$CTempldateHelper@UIDataBaseEngine@@@@8
rdata$r	ENDS
;	COMDAT ??_R2?$CTempldateHelper@UIDataBaseEngine@@@@8
rdata$r	SEGMENT
??_R2?$CTempldateHelper@UIDataBaseEngine@@@@8 DD FLAT:??_R1A@?0A@EA@?$CTempldateHelper@UIDataBaseEngine@@@@8 ; CTempldateHelper<IDataBaseEngine>::`RTTI Base Class Array'
rdata$r	ENDS
;	COMDAT ??_R3?$CTempldateHelper@UIDataBaseEngine@@@@8
rdata$r	SEGMENT
??_R3?$CTempldateHelper@UIDataBaseEngine@@@@8 DD 00H	; CTempldateHelper<IDataBaseEngine>::`RTTI Class Hierarchy Descriptor'
	DD	00H
	DD	01H
	DD	FLAT:??_R2?$CTempldateHelper@UIDataBaseEngine@@@@8
rdata$r	ENDS
;	COMDAT ??_R0?AV?$CTempldateHelper@UIDataBaseEngine@@@@@8
data$r	SEGMENT
??_R0?AV?$CTempldateHelper@UIDataBaseEngine@@@@@8 DD FLAT:??_7type_info@@6B@ ; CTempldateHelper<IDataBaseEngine> `RTTI Type Descriptor'
	DD	00H
	DB	'.?AV?$CTempldateHelper@UIDataBaseEngine@@@@', 00H
data$r	ENDS
;	COMDAT ??_R1A@?0A@EA@?$CTempldateHelper@UIDataBaseEngine@@@@8
rdata$r	SEGMENT
??_R1A@?0A@EA@?$CTempldateHelper@UIDataBaseEngine@@@@8 DD FLAT:??_R0?AV?$CTempldateHelper@UIDataBaseEngine@@@@@8 ; CTempldateHelper<IDataBaseEngine>::`RTTI Base Class Descriptor at (0,-1,0,64)'
	DD	00H
	DD	00H
	DD	0ffffffffH
	DD	00H
	DD	040H
	DD	FLAT:??_R3?$CTempldateHelper@UIDataBaseEngine@@@@8
rdata$r	ENDS
;	COMDAT ??_R1A@?0A@EA@CDataBaseEngineHelper@@8
rdata$r	SEGMENT
??_R1A@?0A@EA@CDataBaseEngineHelper@@8 DD FLAT:??_R0?AVCDataBaseEngineHelper@@@8 ; CDataBaseEngineHelper::`RTTI Base Class Descriptor at (0,-1,0,64)'
	DD	01H
	DD	00H
	DD	0ffffffffH
	DD	00H
	DD	040H
	DD	FLAT:??_R3CDataBaseEngineHelper@@8
rdata$r	ENDS
;	COMDAT ??_R2CDataBaseEngineHelper@@8
rdata$r	SEGMENT
??_R2CDataBaseEngineHelper@@8 DD FLAT:??_R1A@?0A@EA@CDataBaseEngineHelper@@8 ; CDataBaseEngineHelper::`RTTI Base Class Array'
	DD	FLAT:??_R1A@?0A@EA@?$CTempldateHelper@UIDataBaseEngine@@@@8
rdata$r	ENDS
;	COMDAT ??_R3CDataBaseEngineHelper@@8
rdata$r	SEGMENT
??_R3CDataBaseEngineHelper@@8 DD 00H			; CDataBaseEngineHelper::`RTTI Class Hierarchy Descriptor'
	DD	00H
	DD	02H
	DD	FLAT:??_R2CDataBaseEngineHelper@@8
rdata$r	ENDS
;	COMDAT ??_R0?AVCDataBaseEngineHelper@@@8
data$r	SEGMENT
??_R0?AVCDataBaseEngineHelper@@@8 DD FLAT:??_7type_info@@6B@ ; CDataBaseEngineHelper `RTTI Type Descriptor'
	DD	00H
	DB	'.?AVCDataBaseEngineHelper@@', 00H
data$r	ENDS
;	COMDAT ??_R4CDataBaseEngineHelper@@6B@
rdata$r	SEGMENT
??_R4CDataBaseEngineHelper@@6B@ DD 00H			; CDataBaseEngineHelper::`RTTI Complete Object Locator'
	DD	00H
	DD	00H
	DD	FLAT:??_R0?AVCDataBaseEngineHelper@@@8
	DD	FLAT:??_R3CDataBaseEngineHelper@@8
rdata$r	ENDS
;	COMDAT ??_R4?$CTempldateHelper@UITimerEngine@@@@6B@
rdata$r	SEGMENT
??_R4?$CTempldateHelper@UITimerEngine@@@@6B@ DD 00H	; CTempldateHelper<ITimerEngine>::`RTTI Complete Object Locator'
	DD	00H
	DD	00H
	DD	FLAT:??_R0?AV?$CTempldateHelper@UITimerEngine@@@@@8
	DD	FLAT:??_R3?$CTempldateHelper@UITimerEngine@@@@8
rdata$r	ENDS
;	COMDAT ??_R2?$CTempldateHelper@UITimerEngine@@@@8
rdata$r	SEGMENT
??_R2?$CTempldateHelper@UITimerEngine@@@@8 DD FLAT:??_R1A@?0A@EA@?$CTempldateHelper@UITimerEngine@@@@8 ; CTempldateHelper<ITimerEngine>::`RTTI Base Class Array'
rdata$r	ENDS
;	COMDAT ??_R3?$CTempldateHelper@UITimerEngine@@@@8
rdata$r	SEGMENT
??_R3?$CTempldateHelper@UITimerEngine@@@@8 DD 00H	; CTempldateHelper<ITimerEngine>::`RTTI Class Hierarchy Descriptor'
	DD	00H
	DD	01H
	DD	FLAT:??_R2?$CTempldateHelper@UITimerEngine@@@@8
rdata$r	ENDS
;	COMDAT ??_R0?AV?$CTempldateHelper@UITimerEngine@@@@@8
data$r	SEGMENT
??_R0?AV?$CTempldateHelper@UITimerEngine@@@@@8 DD FLAT:??_7type_info@@6B@ ; CTempldateHelper<ITimerEngine> `RTTI Type Descriptor'
	DD	00H
	DB	'.?AV?$CTempldateHelper@UITimerEngine@@@@', 00H
data$r	ENDS
;	COMDAT ??_R1A@?0A@EA@?$CTempldateHelper@UITimerEngine@@@@8
rdata$r	SEGMENT
??_R1A@?0A@EA@?$CTempldateHelper@UITimerEngine@@@@8 DD FLAT:??_R0?AV?$CTempldateHelper@UITimerEngine@@@@@8 ; CTempldateHelper<ITimerEngine>::`RTTI Base Class Descriptor at (0,-1,0,64)'
	DD	00H
	DD	00H
	DD	0ffffffffH
	DD	00H
	DD	040H
	DD	FLAT:??_R3?$CTempldateHelper@UITimerEngine@@@@8
rdata$r	ENDS
;	COMDAT ??_R1A@?0A@EA@CTimerEngineHelper@@8
rdata$r	SEGMENT
??_R1A@?0A@EA@CTimerEngineHelper@@8 DD FLAT:??_R0?AVCTimerEngineHelper@@@8 ; CTimerEngineHelper::`RTTI Base Class Descriptor at (0,-1,0,64)'
	DD	01H
	DD	00H
	DD	0ffffffffH
	DD	00H
	DD	040H
	DD	FLAT:??_R3CTimerEngineHelper@@8
rdata$r	ENDS
;	COMDAT ??_R2CTimerEngineHelper@@8
rdata$r	SEGMENT
??_R2CTimerEngineHelper@@8 DD FLAT:??_R1A@?0A@EA@CTimerEngineHelper@@8 ; CTimerEngineHelper::`RTTI Base Class Array'
	DD	FLAT:??_R1A@?0A@EA@?$CTempldateHelper@UITimerEngine@@@@8
rdata$r	ENDS
;	COMDAT ??_R3CTimerEngineHelper@@8
rdata$r	SEGMENT
??_R3CTimerEngineHelper@@8 DD 00H			; CTimerEngineHelper::`RTTI Class Hierarchy Descriptor'
	DD	00H
	DD	02H
	DD	FLAT:??_R2CTimerEngineHelper@@8
rdata$r	ENDS
;	COMDAT ??_R0?AVCTimerEngineHelper@@@8
data$r	SEGMENT
??_R0?AVCTimerEngineHelper@@@8 DD FLAT:??_7type_info@@6B@ ; CTimerEngineHelper `RTTI Type Descriptor'
	DD	00H
	DB	'.?AVCTimerEngineHelper@@', 00H
data$r	ENDS
;	COMDAT ??_R4CTimerEngineHelper@@6B@
rdata$r	SEGMENT
??_R4CTimerEngineHelper@@6B@ DD 00H			; CTimerEngineHelper::`RTTI Complete Object Locator'
	DD	00H
	DD	00H
	DD	FLAT:??_R0?AVCTimerEngineHelper@@@8
	DD	FLAT:??_R3CTimerEngineHelper@@8
rdata$r	ENDS
;	COMDAT ??_R4?$CTempldateHelper@UIDataBase@@@@6B@
rdata$r	SEGMENT
??_R4?$CTempldateHelper@UIDataBase@@@@6B@ DD 00H	; CTempldateHelper<IDataBase>::`RTTI Complete Object Locator'
	DD	00H
	DD	00H
	DD	FLAT:??_R0?AV?$CTempldateHelper@UIDataBase@@@@@8
	DD	FLAT:??_R3?$CTempldateHelper@UIDataBase@@@@8
rdata$r	ENDS
;	COMDAT ??_R2?$CTempldateHelper@UIDataBase@@@@8
rdata$r	SEGMENT
??_R2?$CTempldateHelper@UIDataBase@@@@8 DD FLAT:??_R1A@?0A@EA@?$CTempldateHelper@UIDataBase@@@@8 ; CTempldateHelper<IDataBase>::`RTTI Base Class Array'
rdata$r	ENDS
;	COMDAT ??_R3?$CTempldateHelper@UIDataBase@@@@8
rdata$r	SEGMENT
??_R3?$CTempldateHelper@UIDataBase@@@@8 DD 00H		; CTempldateHelper<IDataBase>::`RTTI Class Hierarchy Descriptor'
	DD	00H
	DD	01H
	DD	FLAT:??_R2?$CTempldateHelper@UIDataBase@@@@8
rdata$r	ENDS
;	COMDAT ??_R0?AV?$CTempldateHelper@UIDataBase@@@@@8
data$r	SEGMENT
??_R0?AV?$CTempldateHelper@UIDataBase@@@@@8 DD FLAT:??_7type_info@@6B@ ; CTempldateHelper<IDataBase> `RTTI Type Descriptor'
	DD	00H
	DB	'.?AV?$CTempldateHelper@UIDataBase@@@@', 00H
data$r	ENDS
;	COMDAT ??_R1A@?0A@EA@?$CTempldateHelper@UIDataBase@@@@8
rdata$r	SEGMENT
??_R1A@?0A@EA@?$CTempldateHelper@UIDataBase@@@@8 DD FLAT:??_R0?AV?$CTempldateHelper@UIDataBase@@@@@8 ; CTempldateHelper<IDataBase>::`RTTI Base Class Descriptor at (0,-1,0,64)'
	DD	00H
	DD	00H
	DD	0ffffffffH
	DD	00H
	DD	040H
	DD	FLAT:??_R3?$CTempldateHelper@UIDataBase@@@@8
rdata$r	ENDS
;	COMDAT ??_R1A@?0A@EA@CDataBaseHelper@@8
rdata$r	SEGMENT
??_R1A@?0A@EA@CDataBaseHelper@@8 DD FLAT:??_R0?AVCDataBaseHelper@@@8 ; CDataBaseHelper::`RTTI Base Class Descriptor at (0,-1,0,64)'
	DD	01H
	DD	00H
	DD	0ffffffffH
	DD	00H
	DD	040H
	DD	FLAT:??_R3CDataBaseHelper@@8
rdata$r	ENDS
;	COMDAT ??_R2CDataBaseHelper@@8
rdata$r	SEGMENT
??_R2CDataBaseHelper@@8 DD FLAT:??_R1A@?0A@EA@CDataBaseHelper@@8 ; CDataBaseHelper::`RTTI Base Class Array'
	DD	FLAT:??_R1A@?0A@EA@?$CTempldateHelper@UIDataBase@@@@8
rdata$r	ENDS
;	COMDAT ??_R3CDataBaseHelper@@8
rdata$r	SEGMENT
??_R3CDataBaseHelper@@8 DD 00H				; CDataBaseHelper::`RTTI Class Hierarchy Descriptor'
	DD	00H
	DD	02H
	DD	FLAT:??_R2CDataBaseHelper@@8
rdata$r	ENDS
;	COMDAT ??_R0?AVCDataBaseHelper@@@8
data$r	SEGMENT
??_R0?AVCDataBaseHelper@@@8 DD FLAT:??_7type_info@@6B@	; CDataBaseHelper `RTTI Type Descriptor'
	DD	00H
	DB	'.?AVCDataBaseHelper@@', 00H
data$r	ENDS
;	COMDAT ??_R4CDataBaseHelper@@6B@
rdata$r	SEGMENT
??_R4CDataBaseHelper@@6B@ DD 00H			; CDataBaseHelper::`RTTI Complete Object Locator'
	DD	00H
	DD	00H
	DD	FLAT:??_R0?AVCDataBaseHelper@@@8
	DD	FLAT:??_R3CDataBaseHelper@@8
rdata$r	ENDS
;	COMDAT ??_R2CCmdTarget@@8
rdata$r	SEGMENT
??_R2CCmdTarget@@8 DD FLAT:??_R1A@?0A@EA@CCmdTarget@@8	; CCmdTarget::`RTTI Base Class Array'
	DD	FLAT:??_R1A@?0A@EA@CObject@@8
rdata$r	ENDS
;	COMDAT ??_R3CCmdTarget@@8
rdata$r	SEGMENT
??_R3CCmdTarget@@8 DD 00H				; CCmdTarget::`RTTI Class Hierarchy Descriptor'
	DD	00H
	DD	02H
	DD	FLAT:??_R2CCmdTarget@@8
rdata$r	ENDS
;	COMDAT ??_R0?AVCCmdTarget@@@8
data$r	SEGMENT
??_R0?AVCCmdTarget@@@8 DD FLAT:??_7type_info@@6B@	; CCmdTarget `RTTI Type Descriptor'
	DD	00H
	DB	'.?AVCCmdTarget@@', 00H
data$r	ENDS
;	COMDAT ??_R1A@?0A@EA@CCmdTarget@@8
rdata$r	SEGMENT
??_R1A@?0A@EA@CCmdTarget@@8 DD FLAT:??_R0?AVCCmdTarget@@@8 ; CCmdTarget::`RTTI Base Class Descriptor at (0,-1,0,64)'
	DD	01H
	DD	00H
	DD	0ffffffffH
	DD	00H
	DD	040H
	DD	FLAT:??_R3CCmdTarget@@8
rdata$r	ENDS
;	COMDAT ??_R2CWnd@@8
rdata$r	SEGMENT
??_R2CWnd@@8 DD	FLAT:??_R1A@?0A@EA@CWnd@@8		; CWnd::`RTTI Base Class Array'
	DD	FLAT:??_R1A@?0A@EA@CCmdTarget@@8
	DD	FLAT:??_R1A@?0A@EA@CObject@@8
rdata$r	ENDS
;	COMDAT ??_R3CWnd@@8
rdata$r	SEGMENT
??_R3CWnd@@8 DD	00H					; CWnd::`RTTI Class Hierarchy Descriptor'
	DD	00H
	DD	03H
	DD	FLAT:??_R2CWnd@@8
rdata$r	ENDS
;	COMDAT ??_R0?AVCWnd@@@8
data$r	SEGMENT
??_R0?AVCWnd@@@8 DD FLAT:??_7type_info@@6B@		; CWnd `RTTI Type Descriptor'
	DD	00H
	DB	'.?AVCWnd@@', 00H
data$r	ENDS
;	COMDAT ??_R1A@?0A@EA@CWnd@@8
rdata$r	SEGMENT
??_R1A@?0A@EA@CWnd@@8 DD FLAT:??_R0?AVCWnd@@@8		; CWnd::`RTTI Base Class Descriptor at (0,-1,0,64)'
	DD	02H
	DD	00H
	DD	0ffffffffH
	DD	00H
	DD	040H
	DD	FLAT:??_R3CWnd@@8
rdata$r	ENDS
;	COMDAT ??_R2CObject@@8
rdata$r	SEGMENT
??_R2CObject@@8 DD FLAT:??_R1A@?0A@EA@CObject@@8	; CObject::`RTTI Base Class Array'
rdata$r	ENDS
;	COMDAT ??_R3CObject@@8
rdata$r	SEGMENT
??_R3CObject@@8 DD 00H					; CObject::`RTTI Class Hierarchy Descriptor'
	DD	00H
	DD	01H
	DD	FLAT:??_R2CObject@@8
rdata$r	ENDS
;	COMDAT ??_R0?AVCObject@@@8
data$r	SEGMENT
??_R0?AVCObject@@@8 DD FLAT:??_7type_info@@6B@		; CObject `RTTI Type Descriptor'
	DD	00H
	DB	'.?AVCObject@@', 00H
data$r	ENDS
;	COMDAT ??_R1A@?0A@EA@CObject@@8
rdata$r	SEGMENT
??_R1A@?0A@EA@CObject@@8 DD FLAT:??_R0?AVCObject@@@8	; CObject::`RTTI Base Class Descriptor at (0,-1,0,64)'
	DD	00H
	DD	00H
	DD	0ffffffffH
	DD	00H
	DD	040H
	DD	FLAT:??_R3CObject@@8
rdata$r	ENDS
;	COMDAT ??_C@_0BI@PDGLEKAG@PersonalRoomService?4dll@
CONST	SEGMENT
??_C@_0BI@PDGLEKAG@PersonalRoomService?4dll@ DB 'PersonalRoomService.dll', 00H ; `string'
CONST	ENDS
;	COMDAT ??_C@_0CB@MNMPKPAH@CreatePersonalRoomServiceManage@
CONST	SEGMENT
??_C@_0CB@MNMPKPAH@CreatePersonalRoomServiceManage@ DB 'CreatePersonalRoo'
	DB	'mServiceManager', 00H			; `string'
CONST	ENDS
;	COMDAT ??_7CPersonalRoomServiceManagerHelper@@6B@
CONST	SEGMENT
??_7CPersonalRoomServiceManagerHelper@@6B@ DD FLAT:??_R4CPersonalRoomServiceManagerHelper@@6B@ ; CPersonalRoomServiceManagerHelper::`vftable'
	DD	FLAT:??_ECPersonalRoomServiceManagerHelper@@UAEPAXI@Z
CONST	ENDS
;	COMDAT ??_7?$CTempldateHelper@UIPersonalRoomServiceManager@@@@6B@
CONST	SEGMENT
??_7?$CTempldateHelper@UIPersonalRoomServiceManager@@@@6B@ DD FLAT:??_R4?$CTempldateHelper@UIPersonalRoomServiceManager@@@@6B@ ; CTempldateHelper<IPersonalRoomServiceManager>::`vftable'
	DD	FLAT:??_E?$CTempldateHelper@UIPersonalRoomServiceManager@@@@UAEPAXI@Z
CONST	ENDS
;	COMDAT ??_C@_0BB@LCDNABBP@MatchService?4dll@
CONST	SEGMENT
??_C@_0BB@LCDNABBP@MatchService?4dll@ DB 'MatchService.dll', 00H ; `string'
CONST	ENDS
;	COMDAT ??_C@_0BK@LKNHFFBP@CreateMatchServiceManager@
CONST	SEGMENT
??_C@_0BK@LKNHFFBP@CreateMatchServiceManager@ DB 'CreateMatchServiceManag'
	DB	'er', 00H					; `string'
CONST	ENDS
;	COMDAT ??_7CMatchServiceManagerHelper@@6B@
CONST	SEGMENT
??_7CMatchServiceManagerHelper@@6B@ DD FLAT:??_R4CMatchServiceManagerHelper@@6B@ ; CMatchServiceManagerHelper::`vftable'
	DD	FLAT:??_ECMatchServiceManagerHelper@@UAEPAXI@Z
CONST	ENDS
;	COMDAT ??_7?$CTempldateHelper@UIMatchServiceManager@@@@6B@
CONST	SEGMENT
??_7?$CTempldateHelper@UIMatchServiceManager@@@@6B@ DD FLAT:??_R4?$CTempldateHelper@UIMatchServiceManager@@@@6B@ ; CTempldateHelper<IMatchServiceManager>::`vftable'
	DD	FLAT:??_E?$CTempldateHelper@UIMatchServiceManager@@@@UAEPAXI@Z
CONST	ENDS
;	COMDAT ??_7CGameServiceManagerHelper@@6B@
CONST	SEGMENT
??_7CGameServiceManagerHelper@@6B@ DD FLAT:??_R4CGameServiceManagerHelper@@6B@ ; CGameServiceManagerHelper::`vftable'
	DD	FLAT:??_ECGameServiceManagerHelper@@UAEPAXI@Z
CONST	ENDS
;	COMDAT ??_7?$CTempldateHelper@UIGameServiceManager@@@@6B@
CONST	SEGMENT
??_7?$CTempldateHelper@UIGameServiceManager@@@@6B@ DD FLAT:??_R4?$CTempldateHelper@UIGameServiceManager@@@@6B@ ; CTempldateHelper<IGameServiceManager>::`vftable'
	DD	FLAT:??_E?$CTempldateHelper@UIGameServiceManager@@@@UAEPAXI@Z
CONST	ENDS
;	COMDAT ??_C@_0BH@LEGJPFFH@CreateTCPNetworkEngine@
CONST	SEGMENT
??_C@_0BH@LEGJPFFH@CreateTCPNetworkEngine@ DB 'CreateTCPNetworkEngine', 00H ; `string'
CONST	ENDS
;	COMDAT ??_7CTCPNetworkEngineHelper@@6B@
CONST	SEGMENT
??_7CTCPNetworkEngineHelper@@6B@ DD FLAT:??_R4CTCPNetworkEngineHelper@@6B@ ; CTCPNetworkEngineHelper::`vftable'
	DD	FLAT:??_ECTCPNetworkEngineHelper@@UAEPAXI@Z
CONST	ENDS
;	COMDAT ??_7?$CTempldateHelper@UITCPNetworkEngine@@@@6B@
CONST	SEGMENT
??_7?$CTempldateHelper@UITCPNetworkEngine@@@@6B@ DD FLAT:??_R4?$CTempldateHelper@UITCPNetworkEngine@@@@6B@ ; CTempldateHelper<ITCPNetworkEngine>::`vftable'
	DD	FLAT:??_E?$CTempldateHelper@UITCPNetworkEngine@@@@UAEPAXI@Z
CONST	ENDS
;	COMDAT ??_C@_0BH@FPPDPKKP@CreateTCPSocketService@
CONST	SEGMENT
??_C@_0BH@FPPDPKKP@CreateTCPSocketService@ DB 'CreateTCPSocketService', 00H ; `string'
CONST	ENDS
;	COMDAT ??_7CTCPSocketServiceHelper@@6B@
CONST	SEGMENT
??_7CTCPSocketServiceHelper@@6B@ DD FLAT:??_R4CTCPSocketServiceHelper@@6B@ ; CTCPSocketServiceHelper::`vftable'
	DD	FLAT:??_ECTCPSocketServiceHelper@@UAEPAXI@Z
CONST	ENDS
;	COMDAT ??_7?$CTempldateHelper@UITCPSocketService@@@@6B@
CONST	SEGMENT
??_7?$CTempldateHelper@UITCPSocketService@@@@6B@ DD FLAT:??_R4?$CTempldateHelper@UITCPSocketService@@@@6B@ ; CTempldateHelper<ITCPSocketService>::`vftable'
	DD	FLAT:??_E?$CTempldateHelper@UITCPSocketService@@@@UAEPAXI@Z
CONST	ENDS
;	COMDAT ??_C@_0BF@PBPGMLEA@CreateAttemperEngine@
CONST	SEGMENT
??_C@_0BF@PBPGMLEA@CreateAttemperEngine@ DB 'CreateAttemperEngine', 00H ; `string'
CONST	ENDS
;	COMDAT ??_7CAttemperEngineHelper@@6B@
CONST	SEGMENT
??_7CAttemperEngineHelper@@6B@ DD FLAT:??_R4CAttemperEngineHelper@@6B@ ; CAttemperEngineHelper::`vftable'
	DD	FLAT:??_ECAttemperEngineHelper@@UAEPAXI@Z
CONST	ENDS
;	COMDAT ??_7?$CTempldateHelper@UIAttemperEngine@@@@6B@
CONST	SEGMENT
??_7?$CTempldateHelper@UIAttemperEngine@@@@6B@ DD FLAT:??_R4?$CTempldateHelper@UIAttemperEngine@@@@6B@ ; CTempldateHelper<IAttemperEngine>::`vftable'
	DD	FLAT:??_E?$CTempldateHelper@UIAttemperEngine@@@@UAEPAXI@Z
CONST	ENDS
;	COMDAT ??_C@_0BF@FHMKIOLL@CreateDataBaseEngine@
CONST	SEGMENT
??_C@_0BF@FHMKIOLL@CreateDataBaseEngine@ DB 'CreateDataBaseEngine', 00H ; `string'
CONST	ENDS
;	COMDAT ??_7CDataBaseEngineHelper@@6B@
CONST	SEGMENT
??_7CDataBaseEngineHelper@@6B@ DD FLAT:??_R4CDataBaseEngineHelper@@6B@ ; CDataBaseEngineHelper::`vftable'
	DD	FLAT:??_ECDataBaseEngineHelper@@UAEPAXI@Z
CONST	ENDS
;	COMDAT ??_7?$CTempldateHelper@UIDataBaseEngine@@@@6B@
CONST	SEGMENT
??_7?$CTempldateHelper@UIDataBaseEngine@@@@6B@ DD FLAT:??_R4?$CTempldateHelper@UIDataBaseEngine@@@@6B@ ; CTempldateHelper<IDataBaseEngine>::`vftable'
	DD	FLAT:??_E?$CTempldateHelper@UIDataBaseEngine@@@@UAEPAXI@Z
CONST	ENDS
;	COMDAT ??_C@_0BC@PLOLBCGN@CreateTimerEngine@
CONST	SEGMENT
??_C@_0BC@PLOLBCGN@CreateTimerEngine@ DB 'CreateTimerEngine', 00H ; `string'
CONST	ENDS
;	COMDAT ??_7CTimerEngineHelper@@6B@
CONST	SEGMENT
??_7CTimerEngineHelper@@6B@ DD FLAT:??_R4CTimerEngineHelper@@6B@ ; CTimerEngineHelper::`vftable'
	DD	FLAT:??_ECTimerEngineHelper@@UAEPAXI@Z
CONST	ENDS
;	COMDAT ??_7?$CTempldateHelper@UITimerEngine@@@@6B@
CONST	SEGMENT
??_7?$CTempldateHelper@UITimerEngine@@@@6B@ DD FLAT:??_R4?$CTempldateHelper@UITimerEngine@@@@6B@ ; CTempldateHelper<ITimerEngine>::`vftable'
	DD	FLAT:??_E?$CTempldateHelper@UITimerEngine@@@@UAEPAXI@Z
CONST	ENDS
;	COMDAT ??_C@_0BB@BEMLEOHB@KernelEngine?4dll@
CONST	SEGMENT
??_C@_0BB@BEMLEOHB@KernelEngine?4dll@ DB 'KernelEngine.dll', 00H ; `string'
CONST	ENDS
;	COMDAT ??_C@_0P@IKJBDFNG@CreateDataBase@
CONST	SEGMENT
??_C@_0P@IKJBDFNG@CreateDataBase@ DB 'CreateDataBase', 00H ; `string'
CONST	ENDS
;	COMDAT ??_7CDataBaseHelper@@6B@
CONST	SEGMENT
??_7CDataBaseHelper@@6B@ DD FLAT:??_R4CDataBaseHelper@@6B@ ; CDataBaseHelper::`vftable'
	DD	FLAT:??_ECDataBaseHelper@@UAEPAXI@Z
CONST	ENDS
;	COMDAT ??_7?$CTempldateHelper@UIDataBase@@@@6B@
CONST	SEGMENT
??_7?$CTempldateHelper@UIDataBase@@@@6B@ DD FLAT:??_R4?$CTempldateHelper@UIDataBase@@@@6B@ ; CTempldateHelper<IDataBase>::`vftable'
	DD	FLAT:??_E?$CTempldateHelper@UIDataBase@@@@UAEPAXI@Z
CONST	ENDS
;	COMDAT ??_C@_00CNPNBAHC@@
CONST	SEGMENT
??_C@_00CNPNBAHC@@ DB 00H				; `string'
CONST	ENDS
;	COMDAT ??_C@_02DPKJAMEF@?$CFd@
CONST	SEGMENT
??_C@_02DPKJAMEF@?$CFd@ DB '%d', 00H			; `string'
CONST	ENDS
;	COMDAT xdata$x
xdata$x	SEGMENT
__unwindtable$?OnUIControlRequest@CServiceUnits@@IAEJIJ@Z DD 0ffffffffH
	DD	FLAT:__unwindfunclet$?OnUIControlRequest@CServiceUnits@@IAEJIJ@Z$0
__ehfuncinfo$?OnUIControlRequest@CServiceUnits@@IAEJIJ@Z DD 019930522H
	DD	01H
	DD	FLAT:__unwindtable$?OnUIControlRequest@CServiceUnits@@IAEJIJ@Z
	DD	2 DUP(00H)
	DD	2 DUP(00H)
	DD	00H
	DD	01H
xdata$x	ENDS
;	COMDAT xdata$x
xdata$x	SEGMENT
__unwindtable$?WriteSeverCount@CServiceUnits@@QAEX_N@Z DD 0ffffffffH
	DD	FLAT:__unwindfunclet$?WriteSeverCount@CServiceUnits@@QAEX_N@Z$0
__ehfuncinfo$?WriteSeverCount@CServiceUnits@@QAEX_N@Z DD 019930522H
	DD	01H
	DD	FLAT:__unwindtable$?WriteSeverCount@CServiceUnits@@QAEX_N@Z
	DD	2 DUP(00H)
	DD	2 DUP(00H)
	DD	00H
	DD	01H
xdata$x	ENDS
;	COMDAT xdata$x
xdata$x	SEGMENT
__catchsym$?WritePersonalDissumeInfo@CServiceUnits@@AAE_NXZ$4 DD 00H
	DD	FLAT:??_R0PAUIDataBaseException@@@8
	DD	0fffffd84H
	DD	FLAT:__catch$?WritePersonalDissumeInfo@CServiceUnits@@AAE_NXZ$0
__tryblocktable$?WritePersonalDissumeInfo@CServiceUnits@@AAE_NXZ DD 02H
	DD	02H
	DD	03H
	DD	01H
	DD	FLAT:__catchsym$?WritePersonalDissumeInfo@CServiceUnits@@AAE_NXZ$4
__unwindtable$?WritePersonalDissumeInfo@CServiceUnits@@AAE_NXZ DD 0ffffffffH
	DD	FLAT:__unwindfunclet$?WritePersonalDissumeInfo@CServiceUnits@@AAE_NXZ$2
	DD	00H
	DD	FLAT:__unwindfunclet$?WritePersonalDissumeInfo@CServiceUnits@@AAE_NXZ$3
	DD	01H
	DD	00H
	DD	01H
	DD	00H
__ehfuncinfo$?WritePersonalDissumeInfo@CServiceUnits@@AAE_NXZ DD 019930522H
	DD	04H
	DD	FLAT:__unwindtable$?WritePersonalDissumeInfo@CServiceUnits@@AAE_NXZ
	DD	01H
	DD	FLAT:__tryblocktable$?WritePersonalDissumeInfo@CServiceUnits@@AAE_NXZ
	DD	2 DUP(00H)
	DD	00H
	DD	01H
xdata$x	ENDS
;	COMDAT xdata$x
xdata$x	SEGMENT
__catchsym$?LoadDataBaseParameter@CServiceUnits@@QAE_NPBD0AAUtagDataBaseParameter@@@Z$4 DD 00H
	DD	FLAT:??_R0PAUIDataBaseException@@@8
	DD	0fffff940H
	DD	FLAT:__catch$?LoadDataBaseParameter@CServiceUnits@@QAE_NPBD0AAUtagDataBaseParameter@@@Z$0
__tryblocktable$?LoadDataBaseParameter@CServiceUnits@@QAE_NPBD0AAUtagDataBaseParameter@@@Z DD 02H
	DD	02H
	DD	03H
	DD	01H
	DD	FLAT:__catchsym$?LoadDataBaseParameter@CServiceUnits@@QAE_NPBD0AAUtagDataBaseParameter@@@Z$4
__unwindtable$?LoadDataBaseParameter@CServiceUnits@@QAE_NPBD0AAUtagDataBaseParameter@@@Z DD 0ffffffffH
	DD	FLAT:__unwindfunclet$?LoadDataBaseParameter@CServiceUnits@@QAE_NPBD0AAUtagDataBaseParameter@@@Z$2
	DD	00H
	DD	FLAT:__unwindfunclet$?LoadDataBaseParameter@CServiceUnits@@QAE_NPBD0AAUtagDataBaseParameter@@@Z$3
	DD	01H
	DD	00H
	DD	01H
	DD	00H
__ehfuncinfo$?LoadDataBaseParameter@CServiceUnits@@QAE_NPBD0AAUtagDataBaseParameter@@@Z DD 019930522H
	DD	04H
	DD	FLAT:__unwindtable$?LoadDataBaseParameter@CServiceUnits@@QAE_NPBD0AAUtagDataBaseParameter@@@Z
	DD	01H
	DD	FLAT:__tryblocktable$?LoadDataBaseParameter@CServiceUnits@@QAE_NPBD0AAUtagDataBaseParameter@@@Z
	DD	2 DUP(00H)
	DD	00H
	DD	01H
xdata$x	ENDS
;	COMDAT xdata$x
xdata$x	SEGMENT
__unwindtable$?PostControlRequest@CServiceUnits@@QAE_NGPAXG@Z DD 0ffffffffH
	DD	FLAT:__unwindfunclet$?PostControlRequest@CServiceUnits@@QAE_NGPAXG@Z$0
__ehfuncinfo$?PostControlRequest@CServiceUnits@@QAE_NGPAXG@Z DD 019930522H
	DD	01H
	DD	FLAT:__unwindtable$?PostControlRequest@CServiceUnits@@QAE_NGPAXG@Z
	DD	2 DUP(00H)
	DD	2 DUP(00H)
	DD	00H
	DD	01H
xdata$x	ENDS
;	COMDAT xdata$x
xdata$x	SEGMENT
__ehfuncinfo$??1CServiceUnits@@UAE@XZ DD 019930522H
	DD	00H
	DD	00H
	DD	2 DUP(00H)
	DD	2 DUP(00H)
	DD	00H
	DD	05H
xdata$x	ENDS
;	COMDAT xdata$x
xdata$x	SEGMENT
__ehfuncinfo$??0CServiceUnits@@QAE@XZ DD 019930522H
	DD	012H
	DD	FLAT:__unwindtable$??0CServiceUnits@@QAE@XZ
	DD	2 DUP(00H)
	DD	2 DUP(00H)
	DD	00H
	DD	01H
__unwindtable$??0CServiceUnits@@QAE@XZ DD 0ffffffffH
	DD	FLAT:__unwindfunclet$??0CServiceUnits@@QAE@XZ$0
	DD	00H
	DD	FLAT:__unwindfunclet$??0CServiceUnits@@QAE@XZ$1
	DD	01H
	DD	FLAT:__unwindfunclet$??0CServiceUnits@@QAE@XZ$2
	DD	02H
	DD	FLAT:__unwindfunclet$??0CServiceUnits@@QAE@XZ$3
	DD	03H
	DD	FLAT:__unwindfunclet$??0CServiceUnits@@QAE@XZ$4
	DD	04H
	DD	FLAT:__unwindfunclet$??0CServiceUnits@@QAE@XZ$5
	DD	05H
	DD	FLAT:__unwindfunclet$??0CServiceUnits@@QAE@XZ$6
	DD	06H
	DD	FLAT:__unwindfunclet$??0CServiceUnits@@QAE@XZ$7
	DD	07H
	DD	FLAT:__unwindfunclet$??0CServiceUnits@@QAE@XZ$8
	DD	08H
	DD	FLAT:__unwindfunclet$??0CServiceUnits@@QAE@XZ$9
	DD	09H
	DD	FLAT:__unwindfunclet$??0CServiceUnits@@QAE@XZ$10
	DD	0aH
	DD	FLAT:__unwindfunclet$??0CServiceUnits@@QAE@XZ$11
	DD	0bH
	DD	FLAT:__unwindfunclet$??0CServiceUnits@@QAE@XZ$12
	DD	0cH
	DD	FLAT:__unwindfunclet$??0CServiceUnits@@QAE@XZ$13
	DD	0dH
	DD	FLAT:__unwindfunclet$??0CServiceUnits@@QAE@XZ$14
	DD	0eH
	DD	FLAT:__unwindfunclet$??0CServiceUnits@@QAE@XZ$15
	DD	0fH
	DD	FLAT:__unwindfunclet$??0CServiceUnits@@QAE@XZ$16
	DD	010H
	DD	FLAT:__unwindfunclet$??0CServiceUnits@@QAE@XZ$17
xdata$x	ENDS
;	COMDAT xdata$x
xdata$x	SEGMENT
__unwindtable$?CreateInstance@?$CTempldateHelper@UIPersonalRoomServiceManager@@@@QAE_NXZ DD 0ffffffffH
	DD	00H
	DD	0ffffffffH
	DD	00H
__tryblocktable$?CreateInstance@?$CTempldateHelper@UIPersonalRoomServiceManager@@@@QAE_NXZ DD 00H
	DD	00H
	DD	01H
	DD	02H
	DD	FLAT:__catchsym$?CreateInstance@?$CTempldateHelper@UIPersonalRoomServiceManager@@@@QAE_NXZ$3
__catchsym$?CreateInstance@?$CTempldateHelper@UIPersonalRoomServiceManager@@@@QAE_NXZ$3 DD 01H
	DD	FLAT:??_R0PAD@8
	DD	0ffffffe4H
	DD	FLAT:__catch$?CreateInstance@?$CTempldateHelper@UIPersonalRoomServiceManager@@@@QAE_NXZ$0
	DD	040H
	DD	00H
	DD	00H
	DD	FLAT:__catch$?CreateInstance@?$CTempldateHelper@UIPersonalRoomServiceManager@@@@QAE_NXZ$1
__ehfuncinfo$?CreateInstance@?$CTempldateHelper@UIPersonalRoomServiceManager@@@@QAE_NXZ DD 019930522H
	DD	02H
	DD	FLAT:__unwindtable$?CreateInstance@?$CTempldateHelper@UIPersonalRoomServiceManager@@@@QAE_NXZ
	DD	01H
	DD	FLAT:__tryblocktable$?CreateInstance@?$CTempldateHelper@UIPersonalRoomServiceManager@@@@QAE_NXZ
	DD	2 DUP(00H)
	DD	00H
	DD	01H
xdata$x	ENDS
;	COMDAT xdata$x
xdata$x	SEGMENT
__ehfuncinfo$??1?$CTempldateHelper@UIPersonalRoomServiceManager@@@@UAE@XZ DD 019930522H
	DD	00H
	DD	00H
	DD	2 DUP(00H)
	DD	2 DUP(00H)
	DD	00H
	DD	05H
xdata$x	ENDS
;	COMDAT xdata$x
xdata$x	SEGMENT
__unwindtable$?CreateInstance@?$CTempldateHelper@UIMatchServiceManager@@@@QAE_NXZ DD 0ffffffffH
	DD	00H
	DD	0ffffffffH
	DD	00H
__tryblocktable$?CreateInstance@?$CTempldateHelper@UIMatchServiceManager@@@@QAE_NXZ DD 00H
	DD	00H
	DD	01H
	DD	02H
	DD	FLAT:__catchsym$?CreateInstance@?$CTempldateHelper@UIMatchServiceManager@@@@QAE_NXZ$3
__catchsym$?CreateInstance@?$CTempldateHelper@UIMatchServiceManager@@@@QAE_NXZ$3 DD 01H
	DD	FLAT:??_R0PAD@8
	DD	0ffffffe4H
	DD	FLAT:__catch$?CreateInstance@?$CTempldateHelper@UIMatchServiceManager@@@@QAE_NXZ$0
	DD	040H
	DD	00H
	DD	00H
	DD	FLAT:__catch$?CreateInstance@?$CTempldateHelper@UIMatchServiceManager@@@@QAE_NXZ$1
__ehfuncinfo$?CreateInstance@?$CTempldateHelper@UIMatchServiceManager@@@@QAE_NXZ DD 019930522H
	DD	02H
	DD	FLAT:__unwindtable$?CreateInstance@?$CTempldateHelper@UIMatchServiceManager@@@@QAE_NXZ
	DD	01H
	DD	FLAT:__tryblocktable$?CreateInstance@?$CTempldateHelper@UIMatchServiceManager@@@@QAE_NXZ
	DD	2 DUP(00H)
	DD	00H
	DD	01H
xdata$x	ENDS
;	COMDAT xdata$x
xdata$x	SEGMENT
__ehfuncinfo$??1?$CTempldateHelper@UIMatchServiceManager@@@@UAE@XZ DD 019930522H
	DD	00H
	DD	00H
	DD	2 DUP(00H)
	DD	2 DUP(00H)
	DD	00H
	DD	05H
xdata$x	ENDS
;	COMDAT xdata$x
xdata$x	SEGMENT
__unwindtable$?CreateInstance@?$CTempldateHelper@UIGameServiceManager@@@@QAE_NXZ DD 0ffffffffH
	DD	00H
	DD	0ffffffffH
	DD	00H
__tryblocktable$?CreateInstance@?$CTempldateHelper@UIGameServiceManager@@@@QAE_NXZ DD 00H
	DD	00H
	DD	01H
	DD	02H
	DD	FLAT:__catchsym$?CreateInstance@?$CTempldateHelper@UIGameServiceManager@@@@QAE_NXZ$3
__catchsym$?CreateInstance@?$CTempldateHelper@UIGameServiceManager@@@@QAE_NXZ$3 DD 01H
	DD	FLAT:??_R0PAD@8
	DD	0ffffffe4H
	DD	FLAT:__catch$?CreateInstance@?$CTempldateHelper@UIGameServiceManager@@@@QAE_NXZ$0
	DD	040H
	DD	00H
	DD	00H
	DD	FLAT:__catch$?CreateInstance@?$CTempldateHelper@UIGameServiceManager@@@@QAE_NXZ$1
__ehfuncinfo$?CreateInstance@?$CTempldateHelper@UIGameServiceManager@@@@QAE_NXZ DD 019930522H
	DD	02H
	DD	FLAT:__unwindtable$?CreateInstance@?$CTempldateHelper@UIGameServiceManager@@@@QAE_NXZ
	DD	01H
	DD	FLAT:__tryblocktable$?CreateInstance@?$CTempldateHelper@UIGameServiceManager@@@@QAE_NXZ
	DD	2 DUP(00H)
	DD	00H
	DD	01H
xdata$x	ENDS
;	COMDAT xdata$x
xdata$x	SEGMENT
__ehfuncinfo$??1?$CTempldateHelper@UIGameServiceManager@@@@UAE@XZ DD 019930522H
	DD	00H
	DD	00H
	DD	2 DUP(00H)
	DD	2 DUP(00H)
	DD	00H
	DD	05H
xdata$x	ENDS
;	COMDAT xdata$x
xdata$x	SEGMENT
__unwindtable$?CreateInstance@?$CTempldateHelper@UITCPNetworkEngine@@@@QAE_NXZ DD 0ffffffffH
	DD	00H
	DD	0ffffffffH
	DD	00H
__tryblocktable$?CreateInstance@?$CTempldateHelper@UITCPNetworkEngine@@@@QAE_NXZ DD 00H
	DD	00H
	DD	01H
	DD	02H
	DD	FLAT:__catchsym$?CreateInstance@?$CTempldateHelper@UITCPNetworkEngine@@@@QAE_NXZ$3
__catchsym$?CreateInstance@?$CTempldateHelper@UITCPNetworkEngine@@@@QAE_NXZ$3 DD 01H
	DD	FLAT:??_R0PAD@8
	DD	0ffffffe4H
	DD	FLAT:__catch$?CreateInstance@?$CTempldateHelper@UITCPNetworkEngine@@@@QAE_NXZ$0
	DD	040H
	DD	00H
	DD	00H
	DD	FLAT:__catch$?CreateInstance@?$CTempldateHelper@UITCPNetworkEngine@@@@QAE_NXZ$1
__ehfuncinfo$?CreateInstance@?$CTempldateHelper@UITCPNetworkEngine@@@@QAE_NXZ DD 019930522H
	DD	02H
	DD	FLAT:__unwindtable$?CreateInstance@?$CTempldateHelper@UITCPNetworkEngine@@@@QAE_NXZ
	DD	01H
	DD	FLAT:__tryblocktable$?CreateInstance@?$CTempldateHelper@UITCPNetworkEngine@@@@QAE_NXZ
	DD	2 DUP(00H)
	DD	00H
	DD	01H
xdata$x	ENDS
;	COMDAT xdata$x
xdata$x	SEGMENT
__ehfuncinfo$??1?$CTempldateHelper@UITCPNetworkEngine@@@@UAE@XZ DD 019930522H
	DD	00H
	DD	00H
	DD	2 DUP(00H)
	DD	2 DUP(00H)
	DD	00H
	DD	05H
xdata$x	ENDS
;	COMDAT xdata$x
xdata$x	SEGMENT
__unwindtable$?CreateInstance@?$CTempldateHelper@UITCPSocketService@@@@QAE_NXZ DD 0ffffffffH
	DD	00H
	DD	0ffffffffH
	DD	00H
__tryblocktable$?CreateInstance@?$CTempldateHelper@UITCPSocketService@@@@QAE_NXZ DD 00H
	DD	00H
	DD	01H
	DD	02H
	DD	FLAT:__catchsym$?CreateInstance@?$CTempldateHelper@UITCPSocketService@@@@QAE_NXZ$3
__catchsym$?CreateInstance@?$CTempldateHelper@UITCPSocketService@@@@QAE_NXZ$3 DD 01H
	DD	FLAT:??_R0PAD@8
	DD	0ffffffe4H
	DD	FLAT:__catch$?CreateInstance@?$CTempldateHelper@UITCPSocketService@@@@QAE_NXZ$0
	DD	040H
	DD	00H
	DD	00H
	DD	FLAT:__catch$?CreateInstance@?$CTempldateHelper@UITCPSocketService@@@@QAE_NXZ$1
__ehfuncinfo$?CreateInstance@?$CTempldateHelper@UITCPSocketService@@@@QAE_NXZ DD 019930522H
	DD	02H
	DD	FLAT:__unwindtable$?CreateInstance@?$CTempldateHelper@UITCPSocketService@@@@QAE_NXZ
	DD	01H
	DD	FLAT:__tryblocktable$?CreateInstance@?$CTempldateHelper@UITCPSocketService@@@@QAE_NXZ
	DD	2 DUP(00H)
	DD	00H
	DD	01H
xdata$x	ENDS
;	COMDAT xdata$x
xdata$x	SEGMENT
__ehfuncinfo$??1?$CTempldateHelper@UITCPSocketService@@@@UAE@XZ DD 019930522H
	DD	00H
	DD	00H
	DD	2 DUP(00H)
	DD	2 DUP(00H)
	DD	00H
	DD	05H
xdata$x	ENDS
;	COMDAT xdata$x
xdata$x	SEGMENT
__unwindtable$?CreateInstance@?$CTempldateHelper@UIAttemperEngine@@@@QAE_NXZ DD 0ffffffffH
	DD	00H
	DD	0ffffffffH
	DD	00H
__tryblocktable$?CreateInstance@?$CTempldateHelper@UIAttemperEngine@@@@QAE_NXZ DD 00H
	DD	00H
	DD	01H
	DD	02H
	DD	FLAT:__catchsym$?CreateInstance@?$CTempldateHelper@UIAttemperEngine@@@@QAE_NXZ$3
__catchsym$?CreateInstance@?$CTempldateHelper@UIAttemperEngine@@@@QAE_NXZ$3 DD 01H
	DD	FLAT:??_R0PAD@8
	DD	0ffffffe4H
	DD	FLAT:__catch$?CreateInstance@?$CTempldateHelper@UIAttemperEngine@@@@QAE_NXZ$0
	DD	040H
	DD	00H
	DD	00H
	DD	FLAT:__catch$?CreateInstance@?$CTempldateHelper@UIAttemperEngine@@@@QAE_NXZ$1
__ehfuncinfo$?CreateInstance@?$CTempldateHelper@UIAttemperEngine@@@@QAE_NXZ DD 019930522H
	DD	02H
	DD	FLAT:__unwindtable$?CreateInstance@?$CTempldateHelper@UIAttemperEngine@@@@QAE_NXZ
	DD	01H
	DD	FLAT:__tryblocktable$?CreateInstance@?$CTempldateHelper@UIAttemperEngine@@@@QAE_NXZ
	DD	2 DUP(00H)
	DD	00H
	DD	01H
xdata$x	ENDS
;	COMDAT xdata$x
xdata$x	SEGMENT
__ehfuncinfo$??1?$CTempldateHelper@UIAttemperEngine@@@@UAE@XZ DD 019930522H
	DD	00H
	DD	00H
	DD	2 DUP(00H)
	DD	2 DUP(00H)
	DD	00H
	DD	05H
xdata$x	ENDS
;	COMDAT xdata$x
xdata$x	SEGMENT
__unwindtable$?CreateInstance@?$CTempldateHelper@UIDataBaseEngine@@@@QAE_NXZ DD 0ffffffffH
	DD	00H
	DD	0ffffffffH
	DD	00H
__tryblocktable$?CreateInstance@?$CTempldateHelper@UIDataBaseEngine@@@@QAE_NXZ DD 00H
	DD	00H
	DD	01H
	DD	02H
	DD	FLAT:__catchsym$?CreateInstance@?$CTempldateHelper@UIDataBaseEngine@@@@QAE_NXZ$3
__catchsym$?CreateInstance@?$CTempldateHelper@UIDataBaseEngine@@@@QAE_NXZ$3 DD 01H
	DD	FLAT:??_R0PAD@8
	DD	0ffffffe4H
	DD	FLAT:__catch$?CreateInstance@?$CTempldateHelper@UIDataBaseEngine@@@@QAE_NXZ$0
	DD	040H
	DD	00H
	DD	00H
	DD	FLAT:__catch$?CreateInstance@?$CTempldateHelper@UIDataBaseEngine@@@@QAE_NXZ$1
__ehfuncinfo$?CreateInstance@?$CTempldateHelper@UIDataBaseEngine@@@@QAE_NXZ DD 019930522H
	DD	02H
	DD	FLAT:__unwindtable$?CreateInstance@?$CTempldateHelper@UIDataBaseEngine@@@@QAE_NXZ
	DD	01H
	DD	FLAT:__tryblocktable$?CreateInstance@?$CTempldateHelper@UIDataBaseEngine@@@@QAE_NXZ
	DD	2 DUP(00H)
	DD	00H
	DD	01H
xdata$x	ENDS
;	COMDAT xdata$x
xdata$x	SEGMENT
__ehfuncinfo$??1?$CTempldateHelper@UIDataBaseEngine@@@@UAE@XZ DD 019930522H
	DD	00H
	DD	00H
	DD	2 DUP(00H)
	DD	2 DUP(00H)
	DD	00H
	DD	05H
xdata$x	ENDS
;	COMDAT xdata$x
xdata$x	SEGMENT
__unwindtable$?CreateInstance@?$CTempldateHelper@UITimerEngine@@@@QAE_NXZ DD 0ffffffffH
	DD	00H
	DD	0ffffffffH
	DD	00H
__tryblocktable$?CreateInstance@?$CTempldateHelper@UITimerEngine@@@@QAE_NXZ DD 00H
	DD	00H
	DD	01H
	DD	02H
	DD	FLAT:__catchsym$?CreateInstance@?$CTempldateHelper@UITimerEngine@@@@QAE_NXZ$3
__catchsym$?CreateInstance@?$CTempldateHelper@UITimerEngine@@@@QAE_NXZ$3 DD 01H
	DD	FLAT:??_R0PAD@8
	DD	0ffffffe4H
	DD	FLAT:__catch$?CreateInstance@?$CTempldateHelper@UITimerEngine@@@@QAE_NXZ$0
	DD	040H
	DD	00H
	DD	00H
	DD	FLAT:__catch$?CreateInstance@?$CTempldateHelper@UITimerEngine@@@@QAE_NXZ$1
__ehfuncinfo$?CreateInstance@?$CTempldateHelper@UITimerEngine@@@@QAE_NXZ DD 019930522H
	DD	02H
	DD	FLAT:__unwindtable$?CreateInstance@?$CTempldateHelper@UITimerEngine@@@@QAE_NXZ
	DD	01H
	DD	FLAT:__tryblocktable$?CreateInstance@?$CTempldateHelper@UITimerEngine@@@@QAE_NXZ
	DD	2 DUP(00H)
	DD	00H
	DD	01H
xdata$x	ENDS
;	COMDAT xdata$x
xdata$x	SEGMENT
__ehfuncinfo$??1?$CTempldateHelper@UITimerEngine@@@@UAE@XZ DD 019930522H
	DD	00H
	DD	00H
	DD	2 DUP(00H)
	DD	2 DUP(00H)
	DD	00H
	DD	05H
xdata$x	ENDS
;	COMDAT xdata$x
xdata$x	SEGMENT
__unwindtable$?CreateInstance@?$CTempldateHelper@UIDataBase@@@@QAE_NXZ DD 0ffffffffH
	DD	00H
	DD	0ffffffffH
	DD	00H
__tryblocktable$?CreateInstance@?$CTempldateHelper@UIDataBase@@@@QAE_NXZ DD 00H
	DD	00H
	DD	01H
	DD	02H
	DD	FLAT:__catchsym$?CreateInstance@?$CTempldateHelper@UIDataBase@@@@QAE_NXZ$3
__catchsym$?CreateInstance@?$CTempldateHelper@UIDataBase@@@@QAE_NXZ$3 DD 01H
	DD	FLAT:??_R0PAD@8
	DD	0ffffffe4H
	DD	FLAT:__catch$?CreateInstance@?$CTempldateHelper@UIDataBase@@@@QAE_NXZ$0
	DD	040H
	DD	00H
	DD	00H
	DD	FLAT:__catch$?CreateInstance@?$CTempldateHelper@UIDataBase@@@@QAE_NXZ$1
__ehfuncinfo$?CreateInstance@?$CTempldateHelper@UIDataBase@@@@QAE_NXZ DD 019930522H
	DD	02H
	DD	FLAT:__unwindtable$?CreateInstance@?$CTempldateHelper@UIDataBase@@@@QAE_NXZ
	DD	01H
	DD	FLAT:__tryblocktable$?CreateInstance@?$CTempldateHelper@UIDataBase@@@@QAE_NXZ
	DD	2 DUP(00H)
	DD	00H
	DD	01H
xdata$x	ENDS
;	COMDAT xdata$x
xdata$x	SEGMENT
__ehfuncinfo$??1?$CTempldateHelper@UIDataBase@@@@UAE@XZ DD 019930522H
	DD	00H
	DD	00H
	DD	2 DUP(00H)
	DD	2 DUP(00H)
	DD	00H
	DD	05H
xdata$x	ENDS
; Function compile flags: /Odtp /ZI
; File c:\program files (x86)\windows kits\10\include\10.0.17763.0\ucrt\stdio.h
;	COMDAT ??$_snprintf_s@$0IA@@@YAHAAY0IA@DIPBDZZ
_TEXT	SEGMENT
__ArgList$ = -4						; size = 4
__Buffer$ = 8						; size = 4
__BufferCount$ = 12					; size = 4
__Format$ = 16						; size = 4
??$_snprintf_s@$0IA@@@YAHAAY0IA@DIPBDZZ PROC		; _snprintf_s<128>, COMDAT

; 2079 :         )

  00000	55		 push	 ebp
  00001	8b ec		 mov	 ebp, esp
  00003	83 ec 48	 sub	 esp, 72			; 00000048H
  00006	53		 push	 ebx
  00007	56		 push	 esi
  00008	57		 push	 edi

; 2073 :     __DEFINE_CPP_OVERLOAD_SECURE_FUNC_0_2_ARGLIST(

  00009	8d 45 14	 lea	 eax, DWORD PTR __Format$[ebp+4]
  0000c	89 45 fc	 mov	 DWORD PTR __ArgList$[ebp], eax
  0000f	8b 45 fc	 mov	 eax, DWORD PTR __ArgList$[ebp]
  00012	50		 push	 eax
  00013	8b 4d 10	 mov	 ecx, DWORD PTR __Format$[ebp]
  00016	51		 push	 ecx
  00017	8b 55 0c	 mov	 edx, DWORD PTR __BufferCount$[ebp]
  0001a	52		 push	 edx
  0001b	68 80 00 00 00	 push	 128			; 00000080H
  00020	8b 45 08	 mov	 eax, DWORD PTR __Buffer$[ebp]
  00023	50		 push	 eax
  00024	e8 00 00 00 00	 call	 __vsnprintf_s
  00029	83 c4 14	 add	 esp, 20			; 00000014H
  0002c	5f		 pop	 edi
  0002d	5e		 pop	 esi
  0002e	5b		 pop	 ebx
  0002f	8b e5		 mov	 esp, ebp
  00031	5d		 pop	 ebp
  00032	c3		 ret	 0
??$_snprintf_s@$0IA@@@YAHAAY0IA@DIPBDZZ ENDP		; _snprintf_s<128>
_TEXT	ENDS
; Function compile flags: /Odtp /ZI
;	COMDAT ??_GCServiceUnits@@UAEPAXI@Z
_TEXT	SEGMENT
_this$ = -4						; size = 4
___flags$ = 8						; size = 4
??_GCServiceUnits@@UAEPAXI@Z PROC			; CServiceUnits::`scalar deleting destructor', COMDAT
; _this$ = ecx
  00000	55		 push	 ebp
  00001	8b ec		 mov	 ebp, esp
  00003	83 ec 44	 sub	 esp, 68			; 00000044H
  00006	53		 push	 ebx
  00007	56		 push	 esi
  00008	57		 push	 edi
  00009	89 4d fc	 mov	 DWORD PTR _this$[ebp], ecx
  0000c	8b 4d fc	 mov	 ecx, DWORD PTR _this$[ebp]
  0000f	e8 00 00 00 00	 call	 ??1CServiceUnits@@UAE@XZ ; CServiceUnits::~CServiceUnits
  00014	8b 45 08	 mov	 eax, DWORD PTR ___flags$[ebp]
  00017	83 e0 01	 and	 eax, 1
  0001a	74 24		 je	 SHORT $LN2@scalar
  0001c	8b 45 08	 mov	 eax, DWORD PTR ___flags$[ebp]
  0001f	83 e0 04	 and	 eax, 4
  00022	75 0b		 jne	 SHORT $LN3@scalar
  00024	8b 45 fc	 mov	 eax, DWORD PTR _this$[ebp]
  00027	50		 push	 eax
  00028	e8 00 00 00 00	 call	 ??3CObject@@SGXPAX@Z	; CObject::operator delete
  0002d	eb 11		 jmp	 SHORT $LN2@scalar
$LN3@scalar:
  0002f	68 90 0a 03 00	 push	 199312			; 00030a90H
  00034	8b 45 fc	 mov	 eax, DWORD PTR _this$[ebp]
  00037	50		 push	 eax
  00038	e8 00 00 00 00	 call	 ?__global_delete@@YAXPAXI@Z ; __global_delete
  0003d	83 c4 08	 add	 esp, 8
$LN2@scalar:
  00040	8b 45 fc	 mov	 eax, DWORD PTR _this$[ebp]
  00043	5f		 pop	 edi
  00044	5e		 pop	 esi
  00045	5b		 pop	 ebx
  00046	8b e5		 mov	 esp, ebp
  00048	5d		 pop	 ebp
  00049	c2 04 00	 ret	 4
??_GCServiceUnits@@UAEPAXI@Z ENDP			; CServiceUnits::`scalar deleting destructor'
_TEXT	ENDS
; Function compile flags: /Odtp /ZI
; File g:\网狐\happygamewh\服务端\系统模块\服务器组件\游戏服务器\serviceunits.cpp
;	COMDAT ?GetMessageMap@CServiceUnits@@MBEPBUAFX_MSGMAP@@XZ
_TEXT	SEGMENT
_this$ = -4						; size = 4
?GetMessageMap@CServiceUnits@@MBEPBUAFX_MSGMAP@@XZ PROC	; CServiceUnits::GetMessageMap, COMDAT
; _this$ = ecx

; 12   : BEGIN_MESSAGE_MAP(CServiceUnits, CWnd)

  00000	55		 push	 ebp
  00001	8b ec		 mov	 ebp, esp
  00003	83 ec 44	 sub	 esp, 68			; 00000044H
  00006	53		 push	 ebx
  00007	56		 push	 esi
  00008	57		 push	 edi
  00009	89 4d fc	 mov	 DWORD PTR _this$[ebp], ecx
  0000c	e8 00 00 00 00	 call	 ?GetThisMessageMap@CServiceUnits@@KGPBUAFX_MSGMAP@@XZ ; CServiceUnits::GetThisMessageMap
  00011	5f		 pop	 edi
  00012	5e		 pop	 esi
  00013	5b		 pop	 ebx
  00014	8b e5		 mov	 esp, ebp
  00016	5d		 pop	 ebp
  00017	c3		 ret	 0
?GetMessageMap@CServiceUnits@@MBEPBUAFX_MSGMAP@@XZ ENDP	; CServiceUnits::GetMessageMap
_TEXT	ENDS
; Function compile flags: /Odtp /ZI
; File g:\网狐\happygamewh\服务端\系统模块\服务器组件\游戏服务器\serviceunits.cpp
;	COMDAT ?GetThisMessageMap@CServiceUnits@@KGPBUAFX_MSGMAP@@XZ
_TEXT	SEGMENT
?GetThisMessageMap@CServiceUnits@@KGPBUAFX_MSGMAP@@XZ PROC ; CServiceUnits::GetThisMessageMap, COMDAT

; 12   : BEGIN_MESSAGE_MAP(CServiceUnits, CWnd)

  00000	55		 push	 ebp
  00001	8b ec		 mov	 ebp, esp
  00003	83 ec 40	 sub	 esp, 64			; 00000040H
  00006	53		 push	 ebx
  00007	56		 push	 esi
  00008	57		 push	 edi

; 13   : 	ON_MESSAGE(WM_UICONTROL_REQUEST,OnUIControlRequest)
; 14   : END_MESSAGE_MAP()

  00009	b8 00 00 00 00	 mov	 eax, OFFSET ?messageMap@?1??GetThisMessageMap@CServiceUnits@@KGPBUAFX_MSGMAP@@XZ@4U3@B
  0000e	5f		 pop	 edi
  0000f	5e		 pop	 esi
  00010	5b		 pop	 ebx
  00011	8b e5		 mov	 esp, ebp
  00013	5d		 pop	 ebp
  00014	c3		 ret	 0
?GetThisMessageMap@CServiceUnits@@KGPBUAFX_MSGMAP@@XZ ENDP ; CServiceUnits::GetThisMessageMap
_TEXT	ENDS
; Function compile flags: /Odtp /ZI
; File g:\网狐\happygamewh\服务端\系统模块\服务器组件\游戏服务器\serviceunits.cpp
;	COMDAT ?OnUIControlRequest@CServiceUnits@@IAEJIJ@Z
_TEXT	SEGMENT
tv175 = -16996						; size = 4
tv86 = -16996						; size = 4
$T2 = -16992						; size = 4
$T3 = -16988						; size = 4
$T4 = -16984						; size = 4
$T5 = -16980						; size = 4
$T6 = -16976						; size = 4
$T7 = -16972						; size = 4
$T8 = -16968						; size = 4
$T9 = -16964						; size = 4
$T10 = -16960						; size = 4
$T11 = -16956						; size = 4
$T12 = -16952						; size = 4
$T13 = -16948						; size = 4
_pControlResult$14 = -16432				; size = 4
_pControlResult$15 = -16428				; size = 4
_pControlResult$16 = -16424				; size = 4
_DataLocker$ = -16420					; size = 12
_cbBuffer$ = -16408					; size = 16384
_DataHead$ = -24					; size = 4
_this$ = -20						; size = 4
__$ArrayPad$ = -16					; size = 4
__$EHRec$ = -12						; size = 12
_wParam$ = 8						; size = 4
_lParam$ = 12						; size = 4
?OnUIControlRequest@CServiceUnits@@IAEJIJ@Z PROC	; CServiceUnits::OnUIControlRequest, COMDAT
; _this$ = ecx

; 711  : {

  00000	55		 push	 ebp
  00001	8b ec		 mov	 ebp, esp
  00003	6a ff		 push	 -1
  00005	68 00 00 00 00	 push	 __ehhandler$?OnUIControlRequest@CServiceUnits@@IAEJIJ@Z
  0000a	64 a1 00 00 00
	00		 mov	 eax, DWORD PTR fs:0
  00010	50		 push	 eax
  00011	b8 58 42 00 00	 mov	 eax, 16984		; 00004258H
  00016	e8 00 00 00 00	 call	 __chkstk
  0001b	a1 00 00 00 00	 mov	 eax, DWORD PTR ___security_cookie
  00020	33 c5		 xor	 eax, ebp
  00022	89 45 f0	 mov	 DWORD PTR __$ArrayPad$[ebp], eax
  00025	53		 push	 ebx
  00026	56		 push	 esi
  00027	57		 push	 edi
  00028	50		 push	 eax
  00029	8d 45 f4	 lea	 eax, DWORD PTR __$EHRec$[ebp]
  0002c	64 a3 00 00 00
	00		 mov	 DWORD PTR fs:0, eax
  00032	89 4d ec	 mov	 DWORD PTR _this$[ebp], ecx

; 712  : 	//变量定义
; 713  : 	tagDataHead DataHead;
; 714  : 	BYTE cbBuffer[MAX_ASYNCHRONISM_DATA];
; 715  : 
; 716  : 	//提取数据
; 717  : 	CWHDataLocker DataLocker(m_CriticalSection);

  00035	6a 01		 push	 1
  00037	8b 45 ec	 mov	 eax, DWORD PTR _this$[ebp]
  0003a	05 38 0f 00 00	 add	 eax, 3896		; 00000f38H
  0003f	50		 push	 eax
  00040	8d 8d dc bf ff
	ff		 lea	 ecx, DWORD PTR _DataLocker$[ebp]
  00046	ff 15 00 00 00
	00		 call	 DWORD PTR __imp_??0CWHDataLocker@@QAE@AAVCCriticalSection@@_N@Z
  0004c	c7 45 fc 00 00
	00 00		 mov	 DWORD PTR __$EHRec$[ebp+8], 0

; 718  : 	if (m_DataQueue.DistillData(DataHead,cbBuffer,sizeof(cbBuffer))==false)

  00053	68 00 40 00 00	 push	 16384			; 00004000H
  00058	8d 85 e8 bf ff
	ff		 lea	 eax, DWORD PTR _cbBuffer$[ebp]
  0005e	50		 push	 eax
  0005f	8d 4d e8	 lea	 ecx, DWORD PTR _DataHead$[ebp]
  00062	51		 push	 ecx
  00063	8b 4d ec	 mov	 ecx, DWORD PTR _this$[ebp]
  00066	81 c1 18 0f 00
	00		 add	 ecx, 3864		; 00000f18H
  0006c	ff 15 00 00 00
	00		 call	 DWORD PTR __imp_?DistillData@CWHDataQueue@@QAE_NAAUtagDataHead@@PAXG@Z
  00072	0f b6 d0	 movzx	 edx, al
  00075	85 d2		 test	 edx, edx
  00077	75 45		 jne	 SHORT $LN4@OnUIContro

; 719  : 	{
; 720  : 		ASSERT(FALSE);

  00079	33 c0		 xor	 eax, eax
  0007b	75 19		 jne	 SHORT $LN20@OnUIContro
  0007d	8b 0d 00 00 00
	00		 mov	 ecx, DWORD PTR ?__LINE__Var@?0??OnUIControlRequest@CServiceUnits@@IAEJIJ@Z@4JA
  00083	83 c1 09	 add	 ecx, 9
  00086	51		 push	 ecx
  00087	68 00 00 00 00	 push	 OFFSET ??_C@_0EL@IDOGNJLC@g?3?2?M?x?$LK?$PM?2happygamewh?2?$LH?$PO?N?q?$LG?K?2?O?$LF?M?$LD@
  0008c	e8 00 00 00 00	 call	 ?AfxAssertFailedLine@@YGHPBDH@Z ; AfxAssertFailedLine
  00091	85 c0		 test	 eax, eax
  00093	74 01		 je	 SHORT $LN20@OnUIContro
  00095	cc		 int	 3
$LN20@OnUIContro:

; 721  : 		return NULL;

  00096	c7 85 cc bd ff
	ff 00 00 00 00	 mov	 DWORD PTR $T13[ebp], 0
  000a0	c7 45 fc ff ff
	ff ff		 mov	 DWORD PTR __$EHRec$[ebp+8], -1
  000a7	8d 8d dc bf ff
	ff		 lea	 ecx, DWORD PTR _DataLocker$[ebp]
  000ad	ff 15 00 00 00
	00		 call	 DWORD PTR __imp_??1CWHDataLocker@@UAE@XZ
  000b3	8b 85 cc bd ff
	ff		 mov	 eax, DWORD PTR $T13[ebp]
  000b9	e9 8c 03 00 00	 jmp	 $LN1@OnUIContro
$LN4@OnUIContro:

; 722  : 	}
; 723  : 
; 724  : 	//数据处理
; 725  : 	switch (DataHead.wIdentifier)

  000be	0f b7 45 ea	 movzx	 eax, WORD PTR _DataHead$[ebp+2]
  000c2	89 85 9c bd ff
	ff		 mov	 DWORD PTR tv86[ebp], eax
  000c8	83 bd 9c bd ff
	ff 01		 cmp	 DWORD PTR tv86[ebp], 1
  000cf	74 1f		 je	 SHORT $LN5@OnUIContro
  000d1	83 bd 9c bd ff
	ff 02		 cmp	 DWORD PTR tv86[ebp], 2
  000d8	0f 84 fb 01 00
	00		 je	 $LN13@OnUIContro
  000de	83 bd 9c bd ff
	ff 03		 cmp	 DWORD PTR tv86[ebp], 3
  000e5	0f 84 f9 00 00
	00		 je	 $LN9@OnUIContro
  000eb	e9 37 03 00 00	 jmp	 $LN2@OnUIContro
$LN5@OnUIContro:

; 726  : 	{
; 727  : 	case UI_CORRESPOND_RESULT:		//协调成功
; 728  : 		{
; 729  : 			//效验消息
; 730  : 			ASSERT(DataHead.wDataSize==sizeof(CP_ControlResult));

  000f0	0f b7 45 e8	 movzx	 eax, WORD PTR _DataHead$[ebp]
  000f4	83 f8 01	 cmp	 eax, 1
  000f7	74 19		 je	 SHORT $LN21@OnUIContro
  000f9	8b 0d 00 00 00
	00		 mov	 ecx, DWORD PTR ?__LINE__Var@?0??OnUIControlRequest@CServiceUnits@@IAEJIJ@Z@4JA
  000ff	83 c1 13	 add	 ecx, 19			; 00000013H
  00102	51		 push	 ecx
  00103	68 00 00 00 00	 push	 OFFSET ??_C@_0EL@IDOGNJLC@g?3?2?M?x?$LK?$PM?2happygamewh?2?$LH?$PO?N?q?$LG?K?2?O?$LF?M?$LD@
  00108	e8 00 00 00 00	 call	 ?AfxAssertFailedLine@@YGHPBDH@Z ; AfxAssertFailedLine
  0010d	85 c0		 test	 eax, eax
  0010f	74 01		 je	 SHORT $LN21@OnUIContro
  00111	cc		 int	 3
$LN21@OnUIContro:

; 731  : 			if (DataHead.wDataSize!=sizeof(CP_ControlResult)) return 0;

  00112	0f b7 45 e8	 movzx	 eax, WORD PTR _DataHead$[ebp]
  00116	83 f8 01	 cmp	 eax, 1
  00119	74 28		 je	 SHORT $LN6@OnUIContro
  0011b	c7 85 c8 bd ff
	ff 00 00 00 00	 mov	 DWORD PTR $T12[ebp], 0
  00125	c7 45 fc ff ff
	ff ff		 mov	 DWORD PTR __$EHRec$[ebp+8], -1
  0012c	8d 8d dc bf ff
	ff		 lea	 ecx, DWORD PTR _DataLocker$[ebp]
  00132	ff 15 00 00 00
	00		 call	 DWORD PTR __imp_??1CWHDataLocker@@UAE@XZ
  00138	8b 85 c8 bd ff
	ff		 mov	 eax, DWORD PTR $T12[ebp]
  0013e	e9 07 03 00 00	 jmp	 $LN1@OnUIContro
$LN6@OnUIContro:

; 732  : 
; 733  : 			//变量定义
; 734  : 			CP_ControlResult * pControlResult=(CP_ControlResult *)cbBuffer;

  00143	8d 85 e8 bf ff
	ff		 lea	 eax, DWORD PTR _cbBuffer$[ebp]
  00149	89 85 d8 bf ff
	ff		 mov	 DWORD PTR _pControlResult$16[ebp], eax

; 735  : 
; 736  : 			//失败处理
; 737  : 			if ((m_ServiceStatus!=ServiceStatus_Service)&&(pControlResult->cbSuccess==ER_FAILURE))

  0014f	8b 45 ec	 mov	 eax, DWORD PTR _this$[ebp]
  00152	83 b8 1c 02 00
	00 02		 cmp	 DWORD PTR [eax+540], 2
  00159	74 3d		 je	 SHORT $LN7@OnUIContro
  0015b	8b 85 d8 bf ff
	ff		 mov	 eax, DWORD PTR _pControlResult$16[ebp]
  00161	0f b6 08	 movzx	 ecx, BYTE PTR [eax]
  00164	85 c9		 test	 ecx, ecx
  00166	75 30		 jne	 SHORT $LN7@OnUIContro

; 738  : 			{
; 739  : 				ConcludeService();

  00168	8b 4d ec	 mov	 ecx, DWORD PTR _this$[ebp]
  0016b	e8 00 00 00 00	 call	 ?ConcludeService@CServiceUnits@@QAE_NXZ ; CServiceUnits::ConcludeService

; 740  : 				return 0;

  00170	c7 85 c4 bd ff
	ff 00 00 00 00	 mov	 DWORD PTR $T11[ebp], 0
  0017a	c7 45 fc ff ff
	ff ff		 mov	 DWORD PTR __$EHRec$[ebp+8], -1
  00181	8d 8d dc bf ff
	ff		 lea	 ecx, DWORD PTR _DataLocker$[ebp]
  00187	ff 15 00 00 00
	00		 call	 DWORD PTR __imp_??1CWHDataLocker@@UAE@XZ
  0018d	8b 85 c4 bd ff
	ff		 mov	 eax, DWORD PTR $T11[ebp]
  00193	e9 b2 02 00 00	 jmp	 $LN1@OnUIContro
$LN7@OnUIContro:

; 741  : 			}
; 742  : 
; 743  : 			//成功处理
; 744  : 			if ((m_ServiceStatus!=ServiceStatus_Service)&&(pControlResult->cbSuccess==ER_SUCCESS))

  00198	8b 45 ec	 mov	 eax, DWORD PTR _this$[ebp]
  0019b	83 b8 1c 02 00
	00 02		 cmp	 DWORD PTR [eax+540], 2
  001a2	74 18		 je	 SHORT $LN8@OnUIContro
  001a4	8b 85 d8 bf ff
	ff		 mov	 eax, DWORD PTR _pControlResult$16[ebp]
  001aa	0f b6 08	 movzx	 ecx, BYTE PTR [eax]
  001ad	83 f9 01	 cmp	 ecx, 1
  001b0	75 0a		 jne	 SHORT $LN8@OnUIContro

; 745  : 			{
; 746  : 				//设置状态
; 747  : 				SetServiceStatus(ServiceStatus_Service);

  001b2	6a 02		 push	 2
  001b4	8b 4d ec	 mov	 ecx, DWORD PTR _this$[ebp]
  001b7	e8 00 00 00 00	 call	 ?SetServiceStatus@CServiceUnits@@AAE_NW4enServiceStatus@@@Z ; CServiceUnits::SetServiceStatus
$LN8@OnUIContro:

; 748  : 			}
; 749  : 
; 750  : 			return 0;

  001bc	c7 85 c0 bd ff
	ff 00 00 00 00	 mov	 DWORD PTR $T10[ebp], 0
  001c6	c7 45 fc ff ff
	ff ff		 mov	 DWORD PTR __$EHRec$[ebp+8], -1
  001cd	8d 8d dc bf ff
	ff		 lea	 ecx, DWORD PTR _DataLocker$[ebp]
  001d3	ff 15 00 00 00
	00		 call	 DWORD PTR __imp_??1CWHDataLocker@@UAE@XZ
  001d9	8b 85 c0 bd ff
	ff		 mov	 eax, DWORD PTR $T10[ebp]
  001df	e9 66 02 00 00	 jmp	 $LN1@OnUIContro
$LN9@OnUIContro:

; 751  : 		}
; 752  : 	case UI_PERSONAL_ROOM_CORRESPOND_RESULT:
; 753  : 		{
; 754  : 			//效验消息
; 755  : 			ASSERT(DataHead.wDataSize==sizeof(CP_ControlResult));

  001e4	0f b7 45 e8	 movzx	 eax, WORD PTR _DataHead$[ebp]
  001e8	83 f8 01	 cmp	 eax, 1
  001eb	74 19		 je	 SHORT $LN22@OnUIContro
  001ed	8b 0d 00 00 00
	00		 mov	 ecx, DWORD PTR ?__LINE__Var@?0??OnUIControlRequest@CServiceUnits@@IAEJIJ@Z@4JA
  001f3	83 c1 2c	 add	 ecx, 44			; 0000002cH
  001f6	51		 push	 ecx
  001f7	68 00 00 00 00	 push	 OFFSET ??_C@_0EL@IDOGNJLC@g?3?2?M?x?$LK?$PM?2happygamewh?2?$LH?$PO?N?q?$LG?K?2?O?$LF?M?$LD@
  001fc	e8 00 00 00 00	 call	 ?AfxAssertFailedLine@@YGHPBDH@Z ; AfxAssertFailedLine
  00201	85 c0		 test	 eax, eax
  00203	74 01		 je	 SHORT $LN22@OnUIContro
  00205	cc		 int	 3
$LN22@OnUIContro:

; 756  : 			if (DataHead.wDataSize!=sizeof(CP_ControlResult)) return 0;

  00206	0f b7 45 e8	 movzx	 eax, WORD PTR _DataHead$[ebp]
  0020a	83 f8 01	 cmp	 eax, 1
  0020d	74 28		 je	 SHORT $LN10@OnUIContro
  0020f	c7 85 bc bd ff
	ff 00 00 00 00	 mov	 DWORD PTR $T9[ebp], 0
  00219	c7 45 fc ff ff
	ff ff		 mov	 DWORD PTR __$EHRec$[ebp+8], -1
  00220	8d 8d dc bf ff
	ff		 lea	 ecx, DWORD PTR _DataLocker$[ebp]
  00226	ff 15 00 00 00
	00		 call	 DWORD PTR __imp_??1CWHDataLocker@@UAE@XZ
  0022c	8b 85 bc bd ff
	ff		 mov	 eax, DWORD PTR $T9[ebp]
  00232	e9 13 02 00 00	 jmp	 $LN1@OnUIContro
$LN10@OnUIContro:

; 757  : 
; 758  : 			//变量定义
; 759  : 			CP_ControlResult * pControlResult=(CP_ControlResult *)cbBuffer;

  00237	8d 85 e8 bf ff
	ff		 lea	 eax, DWORD PTR _cbBuffer$[ebp]
  0023d	89 85 d4 bf ff
	ff		 mov	 DWORD PTR _pControlResult$15[ebp], eax

; 760  : 
; 761  : 			//失败处理
; 762  : 			if (pControlResult->cbSuccess==ER_FAILURE)

  00243	8b 85 d4 bf ff
	ff		 mov	 eax, DWORD PTR _pControlResult$15[ebp]
  00249	0f b6 08	 movzx	 ecx, BYTE PTR [eax]
  0024c	85 c9		 test	 ecx, ecx
  0024e	75 61		 jne	 SHORT $LN11@OnUIContro

; 763  : 			{
; 764  : 				if (m_PrsnlRmTCPSocketService.GetInterface()!=NULL) m_PrsnlRmTCPSocketService->ConcludeService();

  00250	8b 4d ec	 mov	 ecx, DWORD PTR _this$[ebp]
  00253	81 c1 28 03 03
	00		 add	 ecx, 197416		; 00030328H
  00259	e8 00 00 00 00	 call	 ?GetInterface@?$CTempldateHelper@UITCPSocketService@@@@QBEPAUITCPSocketService@@XZ ; CTempldateHelper<ITCPSocketService>::GetInterface
  0025e	85 c0		 test	 eax, eax
  00260	74 27		 je	 SHORT $LN12@OnUIContro
  00262	8b 4d ec	 mov	 ecx, DWORD PTR _this$[ebp]
  00265	81 c1 28 03 03
	00		 add	 ecx, 197416		; 00030328H
  0026b	e8 00 00 00 00	 call	 ??C?$CTempldateHelper@UITCPSocketService@@@@QBEPAUITCPSocketService@@XZ ; CTempldateHelper<ITCPSocketService>::operator->
  00270	89 85 9c bd ff
	ff		 mov	 DWORD PTR tv175[ebp], eax
  00276	8b 85 9c bd ff
	ff		 mov	 eax, DWORD PTR tv175[ebp]
  0027c	8b 10		 mov	 edx, DWORD PTR [eax]
  0027e	8b 8d 9c bd ff
	ff		 mov	 ecx, DWORD PTR tv175[ebp]
  00284	8b 42 0c	 mov	 eax, DWORD PTR [edx+12]
  00287	ff d0		 call	 eax
$LN12@OnUIContro:

; 765  : 				return 0;

  00289	c7 85 b8 bd ff
	ff 00 00 00 00	 mov	 DWORD PTR $T8[ebp], 0
  00293	c7 45 fc ff ff
	ff ff		 mov	 DWORD PTR __$EHRec$[ebp+8], -1
  0029a	8d 8d dc bf ff
	ff		 lea	 ecx, DWORD PTR _DataLocker$[ebp]
  002a0	ff 15 00 00 00
	00		 call	 DWORD PTR __imp_??1CWHDataLocker@@UAE@XZ
  002a6	8b 85 b8 bd ff
	ff		 mov	 eax, DWORD PTR $T8[ebp]
  002ac	e9 99 01 00 00	 jmp	 $LN1@OnUIContro
$LN11@OnUIContro:

; 766  : 			}
; 767  : 			return 0;

  002b1	c7 85 b4 bd ff
	ff 00 00 00 00	 mov	 DWORD PTR $T7[ebp], 0
  002bb	c7 45 fc ff ff
	ff ff		 mov	 DWORD PTR __$EHRec$[ebp+8], -1
  002c2	8d 8d dc bf ff
	ff		 lea	 ecx, DWORD PTR _DataLocker$[ebp]
  002c8	ff 15 00 00 00
	00		 call	 DWORD PTR __imp_??1CWHDataLocker@@UAE@XZ
  002ce	8b 85 b4 bd ff
	ff		 mov	 eax, DWORD PTR $T7[ebp]
  002d4	e9 71 01 00 00	 jmp	 $LN1@OnUIContro
$LN13@OnUIContro:

; 768  : 		}
; 769  : 	case UI_SERVICE_CONFIG_RESULT:	//配置结果
; 770  : 		{
; 771  : 			//效验消息
; 772  : 			ASSERT(DataHead.wDataSize==sizeof(CP_ControlResult));

  002d9	0f b7 45 e8	 movzx	 eax, WORD PTR _DataHead$[ebp]
  002dd	83 f8 01	 cmp	 eax, 1
  002e0	74 19		 je	 SHORT $LN23@OnUIContro
  002e2	8b 0d 00 00 00
	00		 mov	 ecx, DWORD PTR ?__LINE__Var@?0??OnUIControlRequest@CServiceUnits@@IAEJIJ@Z@4JA
  002e8	83 c1 3d	 add	 ecx, 61			; 0000003dH
  002eb	51		 push	 ecx
  002ec	68 00 00 00 00	 push	 OFFSET ??_C@_0EL@IDOGNJLC@g?3?2?M?x?$LK?$PM?2happygamewh?2?$LH?$PO?N?q?$LG?K?2?O?$LF?M?$LD@
  002f1	e8 00 00 00 00	 call	 ?AfxAssertFailedLine@@YGHPBDH@Z ; AfxAssertFailedLine
  002f6	85 c0		 test	 eax, eax
  002f8	74 01		 je	 SHORT $LN23@OnUIContro
  002fa	cc		 int	 3
$LN23@OnUIContro:

; 773  : 			if (DataHead.wDataSize!=sizeof(CP_ControlResult)) return 0;

  002fb	0f b7 45 e8	 movzx	 eax, WORD PTR _DataHead$[ebp]
  002ff	83 f8 01	 cmp	 eax, 1
  00302	74 28		 je	 SHORT $LN14@OnUIContro
  00304	c7 85 b0 bd ff
	ff 00 00 00 00	 mov	 DWORD PTR $T6[ebp], 0
  0030e	c7 45 fc ff ff
	ff ff		 mov	 DWORD PTR __$EHRec$[ebp+8], -1
  00315	8d 8d dc bf ff
	ff		 lea	 ecx, DWORD PTR _DataLocker$[ebp]
  0031b	ff 15 00 00 00
	00		 call	 DWORD PTR __imp_??1CWHDataLocker@@UAE@XZ
  00321	8b 85 b0 bd ff
	ff		 mov	 eax, DWORD PTR $T6[ebp]
  00327	e9 1e 01 00 00	 jmp	 $LN1@OnUIContro
$LN14@OnUIContro:

; 774  : 
; 775  : 			//变量定义
; 776  : 			CP_ControlResult * pControlResult=(CP_ControlResult *)cbBuffer;

  0032c	8d 85 e8 bf ff
	ff		 lea	 eax, DWORD PTR _cbBuffer$[ebp]
  00332	89 85 d0 bf ff
	ff		 mov	 DWORD PTR _pControlResult$14[ebp], eax

; 777  : 
; 778  : 			//失败处理
; 779  : 			if ((m_ServiceStatus!=ServiceStatus_Service)&&(pControlResult->cbSuccess==ER_FAILURE))

  00338	8b 45 ec	 mov	 eax, DWORD PTR _this$[ebp]
  0033b	83 b8 1c 02 00
	00 02		 cmp	 DWORD PTR [eax+540], 2
  00342	74 3d		 je	 SHORT $LN15@OnUIContro
  00344	8b 85 d0 bf ff
	ff		 mov	 eax, DWORD PTR _pControlResult$14[ebp]
  0034a	0f b6 08	 movzx	 ecx, BYTE PTR [eax]
  0034d	85 c9		 test	 ecx, ecx
  0034f	75 30		 jne	 SHORT $LN15@OnUIContro

; 780  : 			{
; 781  : 				ConcludeService();

  00351	8b 4d ec	 mov	 ecx, DWORD PTR _this$[ebp]
  00354	e8 00 00 00 00	 call	 ?ConcludeService@CServiceUnits@@QAE_NXZ ; CServiceUnits::ConcludeService

; 782  : 				return 0;

  00359	c7 85 ac bd ff
	ff 00 00 00 00	 mov	 DWORD PTR $T5[ebp], 0
  00363	c7 45 fc ff ff
	ff ff		 mov	 DWORD PTR __$EHRec$[ebp+8], -1
  0036a	8d 8d dc bf ff
	ff		 lea	 ecx, DWORD PTR _DataLocker$[ebp]
  00370	ff 15 00 00 00
	00		 call	 DWORD PTR __imp_??1CWHDataLocker@@UAE@XZ
  00376	8b 85 ac bd ff
	ff		 mov	 eax, DWORD PTR $T5[ebp]
  0037c	e9 c9 00 00 00	 jmp	 $LN1@OnUIContro
$LN15@OnUIContro:

; 783  : 			}
; 784  : 
; 785  : 			//成功处理
; 786  : 			if ((m_ServiceStatus!=ServiceStatus_Service)&&(pControlResult->cbSuccess==ER_SUCCESS))

  00381	8b 45 ec	 mov	 eax, DWORD PTR _this$[ebp]
  00384	83 b8 1c 02 00
	00 02		 cmp	 DWORD PTR [eax+540], 2
  0038b	74 75		 je	 SHORT $LN16@OnUIContro
  0038d	8b 85 d0 bf ff
	ff		 mov	 eax, DWORD PTR _pControlResult$14[ebp]
  00393	0f b6 08	 movzx	 ecx, BYTE PTR [eax]
  00396	83 f9 01	 cmp	 ecx, 1
  00399	75 67		 jne	 SHORT $LN16@OnUIContro

; 787  : 			{
; 788  : 				//启动网络
; 789  : 				if (StartNetworkService()==false)

  0039b	8b 4d ec	 mov	 ecx, DWORD PTR _this$[ebp]
  0039e	e8 00 00 00 00	 call	 ?StartNetworkService@CServiceUnits@@IAE_NXZ ; CServiceUnits::StartNetworkService
  003a3	0f b6 c0	 movzx	 eax, al
  003a6	85 c0		 test	 eax, eax
  003a8	75 2d		 jne	 SHORT $LN17@OnUIContro

; 790  : 				{
; 791  : 					ConcludeService();

  003aa	8b 4d ec	 mov	 ecx, DWORD PTR _this$[ebp]
  003ad	e8 00 00 00 00	 call	 ?ConcludeService@CServiceUnits@@QAE_NXZ ; CServiceUnits::ConcludeService

; 792  : 					return 0;

  003b2	c7 85 a8 bd ff
	ff 00 00 00 00	 mov	 DWORD PTR $T4[ebp], 0
  003bc	c7 45 fc ff ff
	ff ff		 mov	 DWORD PTR __$EHRec$[ebp+8], -1
  003c3	8d 8d dc bf ff
	ff		 lea	 ecx, DWORD PTR _DataLocker$[ebp]
  003c9	ff 15 00 00 00
	00		 call	 DWORD PTR __imp_??1CWHDataLocker@@UAE@XZ
  003cf	8b 85 a8 bd ff
	ff		 mov	 eax, DWORD PTR $T4[ebp]
  003d5	eb 73		 jmp	 SHORT $LN1@OnUIContro
$LN17@OnUIContro:

; 793  : 				}
; 794  : 
; 795  : 				//连接协调
; 796  : 				SendControlPacket(CT_CONNECT_CORRESPOND,NULL,0);

  003d7	6a 00		 push	 0
  003d9	6a 00		 push	 0
  003db	6a 64		 push	 100			; 00000064H
  003dd	8b 4d ec	 mov	 ecx, DWORD PTR _this$[ebp]
  003e0	e8 00 00 00 00	 call	 ?SendControlPacket@CServiceUnits@@AAE_NGPAXG@Z ; CServiceUnits::SendControlPacket

; 797  : 				
; 798  : 				//如果是约战房间，连接约战服务器
; 799  : 				if((m_GameServiceOption.wServerType&GAME_GENRE_PERSONAL)!=0)

  003e5	8b 45 ec	 mov	 eax, DWORD PTR _this$[ebp]
  003e8	0f b7 88 ac 03
	00 00		 movzx	 ecx, WORD PTR [eax+940]
  003ef	83 e1 10	 and	 ecx, 16			; 00000010H
  003f2	74 0e		 je	 SHORT $LN16@OnUIContro

; 800  : 				{
; 801  : 					SendControlPacket(CT_CONNECT_PERSONAL_ROOM_CORRESPOND,NULL,0);

  003f4	6a 00		 push	 0
  003f6	6a 00		 push	 0
  003f8	6a 66		 push	 102			; 00000066H
  003fa	8b 4d ec	 mov	 ecx, DWORD PTR _this$[ebp]
  003fd	e8 00 00 00 00	 call	 ?SendControlPacket@CServiceUnits@@AAE_NGPAXG@Z ; CServiceUnits::SendControlPacket
$LN16@OnUIContro:

; 802  : 				}
; 803  : 			}
; 804  : 
; 805  : 			return 0;

  00402	c7 85 a4 bd ff
	ff 00 00 00 00	 mov	 DWORD PTR $T3[ebp], 0
  0040c	c7 45 fc ff ff
	ff ff		 mov	 DWORD PTR __$EHRec$[ebp+8], -1
  00413	8d 8d dc bf ff
	ff		 lea	 ecx, DWORD PTR _DataLocker$[ebp]
  00419	ff 15 00 00 00
	00		 call	 DWORD PTR __imp_??1CWHDataLocker@@UAE@XZ
  0041f	8b 85 a4 bd ff
	ff		 mov	 eax, DWORD PTR $T3[ebp]
  00425	eb 23		 jmp	 SHORT $LN1@OnUIContro
$LN2@OnUIContro:

; 806  : 		}
; 807  : 	}
; 808  : 
; 809  : 	return 0;

  00427	c7 85 a0 bd ff
	ff 00 00 00 00	 mov	 DWORD PTR $T2[ebp], 0
  00431	c7 45 fc ff ff
	ff ff		 mov	 DWORD PTR __$EHRec$[ebp+8], -1
  00438	8d 8d dc bf ff
	ff		 lea	 ecx, DWORD PTR _DataLocker$[ebp]
  0043e	ff 15 00 00 00
	00		 call	 DWORD PTR __imp_??1CWHDataLocker@@UAE@XZ
  00444	8b 85 a0 bd ff
	ff		 mov	 eax, DWORD PTR $T2[ebp]
$LN1@OnUIContro:

; 810  : }

  0044a	8b 4d f4	 mov	 ecx, DWORD PTR __$EHRec$[ebp]
  0044d	64 89 0d 00 00
	00 00		 mov	 DWORD PTR fs:0, ecx
  00454	59		 pop	 ecx
  00455	5f		 pop	 edi
  00456	5e		 pop	 esi
  00457	5b		 pop	 ebx
  00458	8b 4d f0	 mov	 ecx, DWORD PTR __$ArrayPad$[ebp]
  0045b	33 cd		 xor	 ecx, ebp
  0045d	e8 00 00 00 00	 call	 @__security_check_cookie@4
  00462	8b e5		 mov	 esp, ebp
  00464	5d		 pop	 ebp
  00465	c2 08 00	 ret	 8
_TEXT	ENDS
;	COMDAT text$x
text$x	SEGMENT
__unwindfunclet$?OnUIControlRequest@CServiceUnits@@IAEJIJ@Z$0:
  00000	8d 8d dc bf ff
	ff		 lea	 ecx, DWORD PTR _DataLocker$[ebp]
  00006	ff 25 00 00 00
	00		 jmp	 DWORD PTR __imp_??1CWHDataLocker@@UAE@XZ
__ehhandler$?OnUIControlRequest@CServiceUnits@@IAEJIJ@Z:
  0000c	8b 54 24 08	 mov	 edx, DWORD PTR [esp+8]
  00010	8d 42 0c	 lea	 eax, DWORD PTR [edx+12]
  00013	8b 8a 98 bd ff
	ff		 mov	 ecx, DWORD PTR [edx-17000]
  00019	33 c8		 xor	 ecx, eax
  0001b	e8 00 00 00 00	 call	 @__security_check_cookie@4
  00020	8b 4a fc	 mov	 ecx, DWORD PTR [edx-4]
  00023	33 c8		 xor	 ecx, eax
  00025	e8 00 00 00 00	 call	 @__security_check_cookie@4
  0002a	b8 00 00 00 00	 mov	 eax, OFFSET __ehfuncinfo$?OnUIControlRequest@CServiceUnits@@IAEJIJ@Z
  0002f	e9 00 00 00 00	 jmp	 ___CxxFrameHandler3
text$x	ENDS
?OnUIControlRequest@CServiceUnits@@IAEJIJ@Z ENDP	; CServiceUnits::OnUIControlRequest
; Function compile flags: /Odtp /ZI
; File g:\网狐\happygamewh\服务端\系统模块\服务器组件\游戏服务器\serviceunits.cpp
;	COMDAT ?WriteSeverCount@CServiceUnits@@QAEX_N@Z
_TEXT	SEGMENT
_szInfo$ = -828						; size = 20
_cbEnable$ = -805					; size = 1
_IniData$ = -804					; size = 264
_szIniFile$ = -540					; size = 260
_szWorkDir$ = -280					; size = 260
_this$ = -20						; size = 4
__$ArrayPad$ = -16					; size = 4
__$EHRec$ = -12						; size = 12
_bStartOrClose$ = 8					; size = 1
?WriteSeverCount@CServiceUnits@@QAEX_N@Z PROC		; CServiceUnits::WriteSeverCount, COMDAT
; _this$ = ecx

; 814  : {

  00000	55		 push	 ebp
  00001	8b ec		 mov	 ebp, esp
  00003	6a ff		 push	 -1
  00005	68 00 00 00 00	 push	 __ehhandler$?WriteSeverCount@CServiceUnits@@QAEX_N@Z
  0000a	64 a1 00 00 00
	00		 mov	 eax, DWORD PTR fs:0
  00010	50		 push	 eax
  00011	81 ec b0 03 00
	00		 sub	 esp, 944		; 000003b0H
  00017	a1 00 00 00 00	 mov	 eax, DWORD PTR ___security_cookie
  0001c	33 c5		 xor	 eax, ebp
  0001e	89 45 f0	 mov	 DWORD PTR __$ArrayPad$[ebp], eax
  00021	53		 push	 ebx
  00022	56		 push	 esi
  00023	57		 push	 edi
  00024	50		 push	 eax
  00025	8d 45 f4	 lea	 eax, DWORD PTR __$EHRec$[ebp]
  00028	64 a3 00 00 00
	00		 mov	 DWORD PTR fs:0, eax
  0002e	89 4d ec	 mov	 DWORD PTR _this$[ebp], ecx

; 815  : 	return;

  00031	e9 47 01 00 00	 jmp	 $LN1@WriteSever

; 816  : 	//获取路径
; 817  : 	TCHAR szWorkDir[MAX_PATH]=TEXT("");

  00036	a0 00 00 00 00	 mov	 al, BYTE PTR ??_C@_00CNPNBAHC@@
  0003b	88 85 e8 fe ff
	ff		 mov	 BYTE PTR _szWorkDir$[ebp], al
  00041	68 03 01 00 00	 push	 259			; 00000103H
  00046	6a 00		 push	 0
  00048	8d 85 e9 fe ff
	ff		 lea	 eax, DWORD PTR _szWorkDir$[ebp+1]
  0004e	50		 push	 eax
  0004f	e8 00 00 00 00	 call	 _memset
  00054	83 c4 0c	 add	 esp, 12			; 0000000cH

; 818  : 	CWHService::GetWorkDirectory(szWorkDir,CountArray(szWorkDir));

  00057	68 04 01 00 00	 push	 260			; 00000104H
  0005c	8d 85 e8 fe ff
	ff		 lea	 eax, DWORD PTR _szWorkDir$[ebp]
  00062	50		 push	 eax
  00063	ff 15 00 00 00
	00		 call	 DWORD PTR __imp_?GetWorkDirectory@CWHService@@SA_NQADG@Z
  00069	83 c4 08	 add	 esp, 8

; 819  : 
; 820  : 	//构造路径
; 821  : 	TCHAR szIniFile[MAX_PATH]=TEXT("");

  0006c	a0 00 00 00 00	 mov	 al, BYTE PTR ??_C@_00CNPNBAHC@@
  00071	88 85 e4 fd ff
	ff		 mov	 BYTE PTR _szIniFile$[ebp], al
  00077	68 03 01 00 00	 push	 259			; 00000103H
  0007c	6a 00		 push	 0
  0007e	8d 85 e5 fd ff
	ff		 lea	 eax, DWORD PTR _szIniFile$[ebp+1]
  00084	50		 push	 eax
  00085	e8 00 00 00 00	 call	 _memset
  0008a	83 c4 0c	 add	 esp, 12			; 0000000cH

; 822  : 	_sntprintf(szIniFile,CountArray(szIniFile),TEXT("%s\\%d.ini"),szWorkDir, m_GameServiceOption.wKindID);

  0008d	8b 45 ec	 mov	 eax, DWORD PTR _this$[ebp]
  00090	0f b7 88 60 03
	00 00		 movzx	 ecx, WORD PTR [eax+864]
  00097	51		 push	 ecx
  00098	8d 95 e8 fe ff
	ff		 lea	 edx, DWORD PTR _szWorkDir$[ebp]
  0009e	52		 push	 edx
  0009f	68 00 00 00 00	 push	 OFFSET ??_C@_09LOOPACNL@?$CFs?2?$CFd?4ini@
  000a4	68 04 01 00 00	 push	 260			; 00000104H
  000a9	8d 85 e4 fd ff
	ff		 lea	 eax, DWORD PTR _szIniFile$[ebp]
  000af	50		 push	 eax
  000b0	e8 00 00 00 00	 call	 __snprintf
  000b5	83 c4 14	 add	 esp, 20			; 00000014H

; 823  : 
; 824  : 	//读取配置
; 825  : 	CWHIniData IniData;

  000b8	8d 8d dc fc ff
	ff		 lea	 ecx, DWORD PTR _IniData$[ebp]
  000be	ff 15 00 00 00
	00		 call	 DWORD PTR __imp_??0CWHIniData@@QAE@XZ
  000c4	c7 45 fc 00 00
	00 00		 mov	 DWORD PTR __$EHRec$[ebp+8], 0

; 826  : 	IniData.SetIniFilePath(szIniFile);

  000cb	8d 85 e4 fd ff
	ff		 lea	 eax, DWORD PTR _szIniFile$[ebp]
  000d1	50		 push	 eax
  000d2	8d 8d dc fc ff
	ff		 lea	 ecx, DWORD PTR _IniData$[ebp]
  000d8	ff 15 00 00 00
	00		 call	 DWORD PTR __imp_?SetIniFilePath@CWHIniData@@QAEXPBD@Z

; 827  : 
; 828  : 	//是否允许配置私人房间参数
; 829  : 	byte cbEnable = IniData.ReadInt(TEXT("Enable"),TEXT("Enabled"),0);

  000de	6a 00		 push	 0
  000e0	68 00 00 00 00	 push	 OFFSET ??_C@_07DOAOMMKG@Enabled@
  000e5	68 00 00 00 00	 push	 OFFSET ??_C@_06CKGENIKG@Enable@
  000ea	8d 8d dc fc ff
	ff		 lea	 ecx, DWORD PTR _IniData$[ebp]
  000f0	ff 15 00 00 00
	00		 call	 DWORD PTR __imp_?ReadInt@CWHIniData@@QAEIPBD0H@Z
  000f6	88 85 db fc ff
	ff		 mov	 BYTE PTR _cbEnable$[ebp], al

; 830  : 
; 831  : 	if (bStartOrClose )

  000fc	0f b6 45 08	 movzx	 eax, BYTE PTR _bStartOrClose$[ebp]
  00100	85 c0		 test	 eax, eax
  00102	74 10		 je	 SHORT $LN2@WriteSever

; 832  : 	{
; 833  : 		cbEnable++;

  00104	8a 85 db fc ff
	ff		 mov	 al, BYTE PTR _cbEnable$[ebp]
  0010a	04 01		 add	 al, 1
  0010c	88 85 db fc ff
	ff		 mov	 BYTE PTR _cbEnable$[ebp], al

; 834  : 	}
; 835  : 	else

  00112	eb 0e		 jmp	 SHORT $LN3@WriteSever
$LN2@WriteSever:

; 836  : 	{
; 837  : 		cbEnable--;

  00114	8a 85 db fc ff
	ff		 mov	 al, BYTE PTR _cbEnable$[ebp]
  0011a	2c 01		 sub	 al, 1
  0011c	88 85 db fc ff
	ff		 mov	 BYTE PTR _cbEnable$[ebp], al
$LN3@WriteSever:

; 838  : 	}
; 839  : 
; 840  : 	TCHAR szInfo[20] = {0};

  00122	33 c0		 xor	 eax, eax
  00124	89 85 c4 fc ff
	ff		 mov	 DWORD PTR _szInfo$[ebp], eax
  0012a	89 85 c8 fc ff
	ff		 mov	 DWORD PTR _szInfo$[ebp+4], eax
  00130	89 85 cc fc ff
	ff		 mov	 DWORD PTR _szInfo$[ebp+8], eax
  00136	89 85 d0 fc ff
	ff		 mov	 DWORD PTR _szInfo$[ebp+12], eax
  0013c	89 85 d4 fc ff
	ff		 mov	 DWORD PTR _szInfo$[ebp+16], eax

; 841  : 	wsprintf(szInfo, TEXT("%d"), cbEnable);

  00142	0f b6 85 db fc
	ff ff		 movzx	 eax, BYTE PTR _cbEnable$[ebp]
  00149	50		 push	 eax
  0014a	68 00 00 00 00	 push	 OFFSET ??_C@_02DPKJAMEF@?$CFd@
  0014f	8d 8d c4 fc ff
	ff		 lea	 ecx, DWORD PTR _szInfo$[ebp]
  00155	51		 push	 ecx
  00156	ff 15 00 00 00
	00		 call	 DWORD PTR __imp__wsprintfA
  0015c	83 c4 0c	 add	 esp, 12			; 0000000cH

; 842  : 
; 843  : 	WritePrivateProfileString(TEXT("Enable"),TEXT("Enabled"), szInfo, szIniFile);

  0015f	8d 85 e4 fd ff
	ff		 lea	 eax, DWORD PTR _szIniFile$[ebp]
  00165	50		 push	 eax
  00166	8d 8d c4 fc ff
	ff		 lea	 ecx, DWORD PTR _szInfo$[ebp]
  0016c	51		 push	 ecx
  0016d	68 00 00 00 00	 push	 OFFSET ??_C@_07DOAOMMKG@Enabled@
  00172	68 00 00 00 00	 push	 OFFSET ??_C@_06CKGENIKG@Enable@
  00177	ff 15 00 00 00
	00		 call	 DWORD PTR __imp__WritePrivateProfileStringA@16
$LN1@WriteSever:

; 844  : 
; 845  : }

  0017d	8b 4d f4	 mov	 ecx, DWORD PTR __$EHRec$[ebp]
  00180	64 89 0d 00 00
	00 00		 mov	 DWORD PTR fs:0, ecx
  00187	59		 pop	 ecx
  00188	5f		 pop	 edi
  00189	5e		 pop	 esi
  0018a	5b		 pop	 ebx
  0018b	8b 4d f0	 mov	 ecx, DWORD PTR __$ArrayPad$[ebp]
  0018e	33 cd		 xor	 ecx, ebp
  00190	e8 00 00 00 00	 call	 @__security_check_cookie@4
  00195	8b e5		 mov	 esp, ebp
  00197	5d		 pop	 ebp
  00198	c2 04 00	 ret	 4
_TEXT	ENDS
;	COMDAT text$x
text$x	SEGMENT
__unwindfunclet$?WriteSeverCount@CServiceUnits@@QAEX_N@Z$0:
  00000	8d 8d dc fc ff
	ff		 lea	 ecx, DWORD PTR _IniData$[ebp]
  00006	ff 25 00 00 00
	00		 jmp	 DWORD PTR __imp_??1CWHIniData@@UAE@XZ
__ehhandler$?WriteSeverCount@CServiceUnits@@QAEX_N@Z:
  0000c	8b 54 24 08	 mov	 edx, DWORD PTR [esp+8]
  00010	8d 42 0c	 lea	 eax, DWORD PTR [edx+12]
  00013	8b 8a 40 fc ff
	ff		 mov	 ecx, DWORD PTR [edx-960]
  00019	33 c8		 xor	 ecx, eax
  0001b	e8 00 00 00 00	 call	 @__security_check_cookie@4
  00020	8b 4a fc	 mov	 ecx, DWORD PTR [edx-4]
  00023	33 c8		 xor	 ecx, eax
  00025	e8 00 00 00 00	 call	 @__security_check_cookie@4
  0002a	b8 00 00 00 00	 mov	 eax, OFFSET __ehfuncinfo$?WriteSeverCount@CServiceUnits@@QAEX_N@Z
  0002f	e9 00 00 00 00	 jmp	 ___CxxFrameHandler3
text$x	ENDS
?WriteSeverCount@CServiceUnits@@QAEX_N@Z ENDP		; CServiceUnits::WriteSeverCount
; Function compile flags: /Odtp /ZI
; File g:\网狐\happygamewh\服务端\系统模块\服务器组件\游戏服务器\serviceunits.cpp
;	COMDAT ?ConnectPlatformDB@CServiceUnits@@AAE_NAAVCDataBaseHelper@@@Z
_TEXT	SEGMENT
tv144 = -80						; size = 4
tv92 = -80						; size = 4
_pDataBaseParameter$ = -12				; size = 4
_pModuleDBParameter$ = -8				; size = 4
_this$ = -4						; size = 4
_PlatformDBModule$ = 8					; size = 4
?ConnectPlatformDB@CServiceUnits@@AAE_NAAVCDataBaseHelper@@@Z PROC ; CServiceUnits::ConnectPlatformDB, COMDAT
; _this$ = ecx

; 907  : {

  00000	55		 push	 ebp
  00001	8b ec		 mov	 ebp, esp
  00003	83 ec 50	 sub	 esp, 80			; 00000050H
  00006	53		 push	 ebx
  00007	56		 push	 esi
  00008	57		 push	 edi
  00009	89 4d fc	 mov	 DWORD PTR _this$[ebp], ecx

; 908  : 	//获取参数
; 909  : 	CModuleDBParameter * pModuleDBParameter = CModuleDBParameter::GetModuleDBParameter();

  0000c	ff 15 00 00 00
	00		 call	 DWORD PTR __imp_?GetModuleDBParameter@CModuleDBParameter@@SAPAV1@XZ
  00012	89 45 f8	 mov	 DWORD PTR _pModuleDBParameter$[ebp], eax

; 910  : 	tagDataBaseParameter * pDataBaseParameter = pModuleDBParameter->GetPlatformDBParameter();

  00015	8b 4d f8	 mov	 ecx, DWORD PTR _pModuleDBParameter$[ebp]
  00018	ff 15 00 00 00
	00		 call	 DWORD PTR __imp_?GetPlatformDBParameter@CModuleDBParameter@@QAEPAUtagDataBaseParameter@@XZ
  0001e	89 45 f4	 mov	 DWORD PTR _pDataBaseParameter$[ebp], eax

; 911  : 
; 912  : 	//创建对象
; 913  : 	if ((PlatformDBModule.GetInterface() == NULL) && (PlatformDBModule.CreateInstance() == false))

  00021	8b 4d 08	 mov	 ecx, DWORD PTR _PlatformDBModule$[ebp]
  00024	e8 00 00 00 00	 call	 ?GetInterface@?$CTempldateHelper@UIDataBase@@@@QBEPAUIDataBase@@XZ ; CTempldateHelper<IDataBase>::GetInterface
  00029	85 c0		 test	 eax, eax
  0002b	75 21		 jne	 SHORT $LN2@ConnectPla
  0002d	8b 4d 08	 mov	 ecx, DWORD PTR _PlatformDBModule$[ebp]
  00030	e8 00 00 00 00	 call	 ?CreateInstance@?$CTempldateHelper@UIDataBase@@@@QAE_NXZ ; CTempldateHelper<IDataBase>::CreateInstance
  00035	0f b6 c0	 movzx	 eax, al
  00038	85 c0		 test	 eax, eax
  0003a	75 12		 jne	 SHORT $LN2@ConnectPla

; 914  : 	{
; 915  : 		AfxMessageBox(TEXT("CreateGameServer 创建 PlatformDBModule 对象失败"), MB_ICONERROR);

  0003c	6a 00		 push	 0
  0003e	6a 10		 push	 16			; 00000010H
  00040	68 00 00 00 00	 push	 OFFSET ??_C@_0DA@PCJBGNDG@CreateGameServer?5?$LE?$LE?$LN?$KI?5PlatformD@
  00045	e8 00 00 00 00	 call	 ?AfxMessageBox@@YGHPBDII@Z ; AfxMessageBox

; 916  : 		return false;

  0004a	32 c0		 xor	 al, al
  0004c	eb 55		 jmp	 SHORT $LN1@ConnectPla
$LN2@ConnectPla:

; 917  : 	}
; 918  : 
; 919  : 	//设置连接
; 920  : 	PlatformDBModule->SetConnectionInfo(pDataBaseParameter->szDataBaseAddr, pDataBaseParameter->wDataBasePort,

  0004e	8b 4d 08	 mov	 ecx, DWORD PTR _PlatformDBModule$[ebp]
  00051	e8 00 00 00 00	 call	 ??C?$CTempldateHelper@UIDataBase@@@@QBEPAUIDataBase@@XZ ; CTempldateHelper<IDataBase>::operator->
  00056	89 45 b0	 mov	 DWORD PTR tv92[ebp], eax
  00059	8b 45 f4	 mov	 eax, DWORD PTR _pDataBaseParameter$[ebp]
  0005c	83 c0 42	 add	 eax, 66			; 00000042H
  0005f	50		 push	 eax
  00060	8b 4d f4	 mov	 ecx, DWORD PTR _pDataBaseParameter$[ebp]
  00063	83 c1 22	 add	 ecx, 34			; 00000022H
  00066	51		 push	 ecx
  00067	8b 55 f4	 mov	 edx, DWORD PTR _pDataBaseParameter$[ebp]
  0006a	83 c2 62	 add	 edx, 98			; 00000062H
  0006d	52		 push	 edx
  0006e	8b 45 f4	 mov	 eax, DWORD PTR _pDataBaseParameter$[ebp]
  00071	0f b7 08	 movzx	 ecx, WORD PTR [eax]
  00074	51		 push	 ecx
  00075	8b 55 f4	 mov	 edx, DWORD PTR _pDataBaseParameter$[ebp]
  00078	83 c2 02	 add	 edx, 2
  0007b	52		 push	 edx
  0007c	8b 45 b0	 mov	 eax, DWORD PTR tv92[ebp]
  0007f	8b 10		 mov	 edx, DWORD PTR [eax]
  00081	8b 4d b0	 mov	 ecx, DWORD PTR tv92[ebp]
  00084	8b 42 10	 mov	 eax, DWORD PTR [edx+16]
  00087	ff d0		 call	 eax

; 921  : 		pDataBaseParameter->szDataBaseName, pDataBaseParameter->szDataBaseUser, pDataBaseParameter->szDataBasePass);
; 922  : 
; 923  : 	//发起连接
; 924  : 	PlatformDBModule->OpenConnection();

  00089	8b 4d 08	 mov	 ecx, DWORD PTR _PlatformDBModule$[ebp]
  0008c	e8 00 00 00 00	 call	 ??C?$CTempldateHelper@UIDataBase@@@@QBEPAUIDataBase@@XZ ; CTempldateHelper<IDataBase>::operator->
  00091	89 45 b0	 mov	 DWORD PTR tv144[ebp], eax
  00094	8b 45 b0	 mov	 eax, DWORD PTR tv144[ebp]
  00097	8b 10		 mov	 edx, DWORD PTR [eax]
  00099	8b 4d b0	 mov	 ecx, DWORD PTR tv144[ebp]
  0009c	8b 42 08	 mov	 eax, DWORD PTR [edx+8]
  0009f	ff d0		 call	 eax

; 925  : 
; 926  : 	return true;

  000a1	b0 01		 mov	 al, 1
$LN1@ConnectPla:

; 927  : }

  000a3	5f		 pop	 edi
  000a4	5e		 pop	 esi
  000a5	5b		 pop	 ebx
  000a6	8b e5		 mov	 esp, ebp
  000a8	5d		 pop	 ebp
  000a9	c2 04 00	 ret	 4
?ConnectPlatformDB@CServiceUnits@@AAE_NAAVCDataBaseHelper@@@Z ENDP ; CServiceUnits::ConnectPlatformDB
_TEXT	ENDS
; Function compile flags: /Odtp /ZI
; File g:\网狐\happygamewh\服务端\系统模块\服务器组件\游戏服务器\serviceunits.cpp
;	COMDAT ?WritePersonalDissumeInfo@CServiceUnits@@AAE_NXZ
_TEXT	SEGMENT
tv184 = -780						; size = 4
tv183 = -780						; size = 4
tv65 = -780						; size = 4
tv69 = -774						; size = 1
$T2 = -773						; size = 1
$T3 = -772						; size = 1
$T4 = -771						; size = 1
$T5 = -770						; size = 1
$T6 = -769						; size = 1
_pszDescribe$7 = -640					; size = 4
_pIException$8 = -636					; size = 4
_szDescribeString$9 = -632				; size = 128
_PlatformDBModule$ = -504				; size = 472
_PlatformDBAide$ = -32					; size = 8
_this$ = -24						; size = 4
__$ArrayPad$ = -20					; size = 4
__$EHRec$ = -16						; size = 16
?WritePersonalDissumeInfo@CServiceUnits@@AAE_NXZ PROC	; CServiceUnits::WritePersonalDissumeInfo, COMDAT
; _this$ = ecx

; 849  : {

  00000	55		 push	 ebp
  00001	8b ec		 mov	 ebp, esp
  00003	6a ff		 push	 -1
  00005	68 00 00 00 00	 push	 __ehhandler$?WritePersonalDissumeInfo@CServiceUnits@@AAE_NXZ
  0000a	64 a1 00 00 00
	00		 mov	 eax, DWORD PTR fs:0
  00010	50		 push	 eax
  00011	51		 push	 ecx
  00012	81 ec fc 02 00
	00		 sub	 esp, 764		; 000002fcH
  00018	a1 00 00 00 00	 mov	 eax, DWORD PTR ___security_cookie
  0001d	33 c5		 xor	 eax, ebp
  0001f	89 45 ec	 mov	 DWORD PTR __$ArrayPad$[ebp], eax
  00022	53		 push	 ebx
  00023	56		 push	 esi
  00024	57		 push	 edi
  00025	50		 push	 eax
  00026	8d 45 f4	 lea	 eax, DWORD PTR __$EHRec$[ebp+4]
  00029	64 a3 00 00 00
	00		 mov	 DWORD PTR fs:0, eax
  0002f	89 65 f0	 mov	 DWORD PTR __$EHRec$[ebp], esp
  00032	89 4d e8	 mov	 DWORD PTR _this$[ebp], ecx

; 850  : 	//变量定义
; 851  : 	CDataBaseAide PlatformDBAide;

  00035	6a 00		 push	 0
  00037	8d 4d e0	 lea	 ecx, DWORD PTR _PlatformDBAide$[ebp]
  0003a	ff 15 00 00 00
	00		 call	 DWORD PTR __imp_??0CDataBaseAide@@QAE@PAUIUnknownEx@@@Z
  00040	c7 45 fc 00 00
	00 00		 mov	 DWORD PTR __$EHRec$[ebp+12], 0

; 852  : 	CDataBaseHelper PlatformDBModule;

  00047	8d 8d 08 fe ff
	ff		 lea	 ecx, DWORD PTR _PlatformDBModule$[ebp]
  0004d	e8 00 00 00 00	 call	 ??0CDataBaseHelper@@QAE@XZ ; CDataBaseHelper::CDataBaseHelper
  00052	c6 45 fc 01	 mov	 BYTE PTR __$EHRec$[ebp+12], 1

; 853  : 
; 854  : 	//执行逻辑
; 855  : 	try

  00056	c6 45 fc 02	 mov	 BYTE PTR __$EHRec$[ebp+12], 2

; 856  : 	{
; 857  : 		//连接数据库
; 858  : 		if (ConnectPlatformDB(PlatformDBModule) == false)

  0005a	8d 85 08 fe ff
	ff		 lea	 eax, DWORD PTR _PlatformDBModule$[ebp]
  00060	50		 push	 eax
  00061	8b 4d e8	 mov	 ecx, DWORD PTR _this$[ebp]
  00064	e8 00 00 00 00	 call	 ?ConnectPlatformDB@CServiceUnits@@AAE_NAAVCDataBaseHelper@@@Z ; CServiceUnits::ConnectPlatformDB
  00069	88 85 fa fc ff
	ff		 mov	 BYTE PTR tv69[ebp], al
  0006f	0f b6 8d fa fc
	ff ff		 movzx	 ecx, BYTE PTR tv69[ebp]
  00076	85 c9		 test	 ecx, ecx
  00078	75 59		 jne	 SHORT $LN3@WritePerso

; 859  : 		{
; 860  : 			ASSERT(FALSE);

  0007a	33 c0		 xor	 eax, eax
  0007c	75 24		 jne	 SHORT $LN6@WritePerso
  0007e	8b 0d 00 00 00
	00		 mov	 ecx, DWORD PTR ?__LINE__Var@?0??WritePersonalDissumeInfo@CServiceUnits@@AAE_NXZ@4JA
  00084	83 c1 0b	 add	 ecx, 11			; 0000000bH
  00087	51		 push	 ecx
  00088	68 00 00 00 00	 push	 OFFSET ??_C@_0EL@IDOGNJLC@g?3?2?M?x?$LK?$PM?2happygamewh?2?$LH?$PO?N?q?$LG?K?2?O?$LF?M?$LD@
  0008d	e8 00 00 00 00	 call	 ?AfxAssertFailedLine@@YGHPBDH@Z ; AfxAssertFailedLine
  00092	89 85 f4 fc ff
	ff		 mov	 DWORD PTR tv65[ebp], eax
  00098	83 bd f4 fc ff
	ff 00		 cmp	 DWORD PTR tv65[ebp], 0
  0009f	74 01		 je	 SHORT $LN6@WritePerso
  000a1	cc		 int	 3
$LN6@WritePerso:

; 861  : 			return false;

  000a2	c6 85 ff fc ff
	ff 00		 mov	 BYTE PTR $T6[ebp], 0
  000a9	c6 45 fc 00	 mov	 BYTE PTR __$EHRec$[ebp+12], 0
  000ad	8d 8d 08 fe ff
	ff		 lea	 ecx, DWORD PTR _PlatformDBModule$[ebp]
  000b3	e8 00 00 00 00	 call	 ??1CDataBaseHelper@@UAE@XZ
  000b8	c7 45 fc ff ff
	ff ff		 mov	 DWORD PTR __$EHRec$[ebp+12], -1
  000bf	8d 4d e0	 lea	 ecx, DWORD PTR _PlatformDBAide$[ebp]
  000c2	ff 15 00 00 00
	00		 call	 DWORD PTR __imp_??1CDataBaseAide@@UAE@XZ
  000c8	8a 85 ff fc ff
	ff		 mov	 al, BYTE PTR $T6[ebp]
  000ce	e9 e9 01 00 00	 jmp	 $LN1@WritePerso
$LN3@WritePerso:

; 862  : 		}
; 863  : 
; 864  : 		//设置对象
; 865  : 		PlatformDBAide.SetDataBase(PlatformDBModule.GetInterface());

  000d3	8d 8d 08 fe ff
	ff		 lea	 ecx, DWORD PTR _PlatformDBModule$[ebp]
  000d9	e8 00 00 00 00	 call	 ?GetInterface@?$CTempldateHelper@UIDataBase@@@@QBEPAUIDataBase@@XZ ; CTempldateHelper<IDataBase>::GetInterface
  000de	89 85 f4 fc ff
	ff		 mov	 DWORD PTR tv183[ebp], eax
  000e4	8b 85 f4 fc ff
	ff		 mov	 eax, DWORD PTR tv183[ebp]
  000ea	50		 push	 eax
  000eb	8d 4d e0	 lea	 ecx, DWORD PTR _PlatformDBAide$[ebp]
  000ee	ff 15 00 00 00
	00		 call	 DWORD PTR __imp_?SetDataBase@CDataBaseAide@@QAE_NPAUIUnknownEx@@@Z

; 866  : 
; 867  : 		//插入参数
; 868  : 		PlatformDBAide.ResetParameter();

  000f4	8d 4d e0	 lea	 ecx, DWORD PTR _PlatformDBAide$[ebp]
  000f7	ff 15 00 00 00
	00		 call	 DWORD PTR __imp_?ResetParameter@CDataBaseAide@@QAEXXZ

; 869  : 		PlatformDBAide.AddParameter(TEXT("@wServerID"), m_GameServiceOption.wServerID);

  000fd	6a 01		 push	 1
  000ff	8b 45 e8	 mov	 eax, DWORD PTR _this$[ebp]
  00102	0f b7 88 66 03
	00 00		 movzx	 ecx, WORD PTR [eax+870]
  00109	51		 push	 ecx
  0010a	68 00 00 00 00	 push	 OFFSET ??_C@_0L@FIEHJJML@?$EAwServerID@
  0010f	8d 4d e0	 lea	 ecx, DWORD PTR _PlatformDBAide$[ebp]
  00112	ff 15 00 00 00
	00		 call	 DWORD PTR __imp_?AddParameter@CDataBaseAide@@QAEXPBDGW4ParameterDirectionEnum@ADOCG@@@Z

; 870  : 
; 871  : 		//输出信息
; 872  : 		TCHAR szDescribeString[128] = TEXT("");

  00118	a0 00 00 00 00	 mov	 al, BYTE PTR ??_C@_00CNPNBAHC@@
  0011d	88 85 88 fd ff
	ff		 mov	 BYTE PTR _szDescribeString$9[ebp], al
  00123	6a 7f		 push	 127			; 0000007fH
  00125	6a 00		 push	 0
  00127	8d 85 89 fd ff
	ff		 lea	 eax, DWORD PTR _szDescribeString$9[ebp+1]
  0012d	50		 push	 eax
  0012e	e8 00 00 00 00	 call	 _memset
  00133	83 c4 0c	 add	 esp, 12			; 0000000cH

; 873  : 		PlatformDBAide.AddParameterOutput(TEXT("@strErrorDescribe"), szDescribeString, sizeof(szDescribeString), adParamOutput);

  00136	6a 02		 push	 2
  00138	68 80 00 00 00	 push	 128			; 00000080H
  0013d	8d 85 88 fd ff
	ff		 lea	 eax, DWORD PTR _szDescribeString$9[ebp]
  00143	50		 push	 eax
  00144	68 00 00 00 00	 push	 OFFSET ??_C@_0BC@IIOJPJPJ@?$EAstrErrorDescribe@
  00149	8d 4d e0	 lea	 ecx, DWORD PTR _PlatformDBAide$[ebp]
  0014c	ff 15 00 00 00
	00		 call	 DWORD PTR __imp_?AddParameterOutput@CDataBaseAide@@QAEXPBDPADIW4ParameterDirectionEnum@ADOCG@@@Z

; 874  : 
; 875  : 		//读取列表
; 876  : 		if (PlatformDBAide.ExecuteProcess(TEXT("GSP_GS_CloseRoomWriteDissumeTime"), true) != DB_SUCCESS)

  00152	6a 01		 push	 1
  00154	68 00 00 00 00	 push	 OFFSET ??_C@_0CB@FOIHGICL@GSP_GS_CloseRoomWriteDissumeTim@
  00159	8d 4d e0	 lea	 ecx, DWORD PTR _PlatformDBAide$[ebp]
  0015c	ff 15 00 00 00
	00		 call	 DWORD PTR __imp_?ExecuteProcess@CDataBaseAide@@QAEJPBD_N@Z
  00162	89 85 f4 fc ff
	ff		 mov	 DWORD PTR tv184[ebp], eax
  00168	83 bd f4 fc ff
	ff 00		 cmp	 DWORD PTR tv184[ebp], 0
  0016f	74 6d		 je	 SHORT $LN4@WritePerso

; 877  : 		{
; 878  : 			//获取信息
; 879  : 			PlatformDBAide.GetParameter(TEXT("@strErrorDescribe"), szDescribeString, CountArray(szDescribeString));

  00171	68 80 00 00 00	 push	 128			; 00000080H
  00176	8d 85 88 fd ff
	ff		 lea	 eax, DWORD PTR _szDescribeString$9[ebp]
  0017c	50		 push	 eax
  0017d	68 00 00 00 00	 push	 OFFSET ??_C@_0BC@IIOJPJPJ@?$EAstrErrorDescribe@
  00182	8d 4d e0	 lea	 ecx, DWORD PTR _PlatformDBAide$[ebp]
  00185	ff 15 00 00 00
	00		 call	 DWORD PTR __imp_?GetParameter@CDataBaseAide@@QAEXPBDPADI@Z

; 880  : 
; 881  : 			//错误提示
; 882  : 			CTraceService::TraceString(szDescribeString, TraceLevel_Exception);

  0018b	6a 03		 push	 3
  0018d	8d 85 88 fd ff
	ff		 lea	 eax, DWORD PTR _szDescribeString$9[ebp]
  00193	50		 push	 eax
  00194	ff 15 00 00 00
	00		 call	 DWORD PTR __imp_?TraceString@CTraceService@@SA_NPBDW4enTraceLevel@@@Z
  0019a	83 c4 08	 add	 esp, 8

; 883  : 
; 884  : 			//错误提示
; 885  : 			AfxMessageBox(szDescribeString, MB_ICONERROR);

  0019d	6a 00		 push	 0
  0019f	6a 10		 push	 16			; 00000010H
  001a1	8d 85 88 fd ff
	ff		 lea	 eax, DWORD PTR _szDescribeString$9[ebp]
  001a7	50		 push	 eax
  001a8	e8 00 00 00 00	 call	 ?AfxMessageBox@@YGHPBDII@Z ; AfxMessageBox

; 886  : 
; 887  : 			return false;

  001ad	c6 85 fe fc ff
	ff 00		 mov	 BYTE PTR $T5[ebp], 0
  001b4	c6 45 fc 00	 mov	 BYTE PTR __$EHRec$[ebp+12], 0
  001b8	8d 8d 08 fe ff
	ff		 lea	 ecx, DWORD PTR _PlatformDBModule$[ebp]
  001be	e8 00 00 00 00	 call	 ??1CDataBaseHelper@@UAE@XZ
  001c3	c7 45 fc ff ff
	ff ff		 mov	 DWORD PTR __$EHRec$[ebp+12], -1
  001ca	8d 4d e0	 lea	 ecx, DWORD PTR _PlatformDBAide$[ebp]
  001cd	ff 15 00 00 00
	00		 call	 DWORD PTR __imp_??1CDataBaseAide@@UAE@XZ
  001d3	8a 85 fe fc ff
	ff		 mov	 al, BYTE PTR $T5[ebp]
  001d9	e9 de 00 00 00	 jmp	 $LN1@WritePerso
$LN4@WritePerso:

; 888  : 		}
; 889  : 		return true;

  001de	c6 85 fd fc ff
	ff 01		 mov	 BYTE PTR $T4[ebp], 1
  001e5	c6 45 fc 00	 mov	 BYTE PTR __$EHRec$[ebp+12], 0
  001e9	8d 8d 08 fe ff
	ff		 lea	 ecx, DWORD PTR _PlatformDBModule$[ebp]
  001ef	e8 00 00 00 00	 call	 ??1CDataBaseHelper@@UAE@XZ
  001f4	c7 45 fc ff ff
	ff ff		 mov	 DWORD PTR __$EHRec$[ebp+12], -1
  001fb	8d 4d e0	 lea	 ecx, DWORD PTR _PlatformDBAide$[ebp]
  001fe	ff 15 00 00 00
	00		 call	 DWORD PTR __imp_??1CDataBaseAide@@UAE@XZ
  00204	8a 85 fd fc ff
	ff		 mov	 al, BYTE PTR $T4[ebp]
  0020a	e9 ad 00 00 00	 jmp	 $LN1@WritePerso
__catch$?WritePersonalDissumeInfo@CServiceUnits@@AAE_NXZ$0:

; 890  : 	}
; 891  : 	catch (IDataBaseException * pIException)
; 892  : 	{
; 893  : 		//错误信息
; 894  : 		LPCTSTR pszDescribe = pIException->GetExceptionDescribe();

  0020f	8b 85 84 fd ff
	ff		 mov	 eax, DWORD PTR _pIException$8[ebp]
  00215	8b 10		 mov	 edx, DWORD PTR [eax]
  00217	8b 8d 84 fd ff
	ff		 mov	 ecx, DWORD PTR _pIException$8[ebp]
  0021d	8b 42 0c	 mov	 eax, DWORD PTR [edx+12]
  00220	ff d0		 call	 eax
  00222	89 85 80 fd ff
	ff		 mov	 DWORD PTR _pszDescribe$7[ebp], eax

; 895  : 		CTraceService::TraceString(pszDescribe, TraceLevel_Exception);

  00228	6a 03		 push	 3
  0022a	8b 85 80 fd ff
	ff		 mov	 eax, DWORD PTR _pszDescribe$7[ebp]
  00230	50		 push	 eax
  00231	ff 15 00 00 00
	00		 call	 DWORD PTR __imp_?TraceString@CTraceService@@SA_NPBDW4enTraceLevel@@@Z
  00237	83 c4 08	 add	 esp, 8

; 896  : 
; 897  : 		//错误提示
; 898  : 		AfxMessageBox(pszDescribe, MB_ICONERROR);

  0023a	6a 00		 push	 0
  0023c	6a 10		 push	 16			; 00000010H
  0023e	8b 85 80 fd ff
	ff		 mov	 eax, DWORD PTR _pszDescribe$7[ebp]
  00244	50		 push	 eax
  00245	e8 00 00 00 00	 call	 ?AfxMessageBox@@YGHPBDII@Z ; AfxMessageBox

; 899  : 
; 900  : 		return false;

  0024a	c6 85 fc fc ff
	ff 00		 mov	 BYTE PTR $T3[ebp], 0
  00251	b8 00 00 00 00	 mov	 eax, $LN12@WritePerso
  00256	c3		 ret	 0

; 901  : 	}

  00257	b8 00 00 00 00	 mov	 eax, __tryend$?WritePersonalDissumeInfo@CServiceUnits@@AAE_NXZ$1
  0025c	c3		 ret	 0
__tryend$?WritePersonalDissumeInfo@CServiceUnits@@AAE_NXZ$1:
  0025d	c7 45 fc 01 00
	00 00		 mov	 DWORD PTR __$EHRec$[ebp+12], 1
  00264	eb 2a		 jmp	 SHORT $LN11@WritePerso
$LN12@WritePerso:

; 899  : 
; 900  : 		return false;

  00266	c7 45 fc 00 00
	00 00		 mov	 DWORD PTR __$EHRec$[ebp+12], 0
  0026d	8d 8d 08 fe ff
	ff		 lea	 ecx, DWORD PTR _PlatformDBModule$[ebp]
  00273	e8 00 00 00 00	 call	 ??1CDataBaseHelper@@UAE@XZ
  00278	c7 45 fc ff ff
	ff ff		 mov	 DWORD PTR __$EHRec$[ebp+12], -1
  0027f	8d 4d e0	 lea	 ecx, DWORD PTR _PlatformDBAide$[ebp]
  00282	ff 15 00 00 00
	00		 call	 DWORD PTR __imp_??1CDataBaseAide@@UAE@XZ
  00288	8a 85 fc fc ff
	ff		 mov	 al, BYTE PTR $T3[ebp]
  0028e	eb 2c		 jmp	 SHORT $LN1@WritePerso
$LN11@WritePerso:

; 902  : 
; 903  : 	return false;

  00290	c6 85 fb fc ff
	ff 00		 mov	 BYTE PTR $T2[ebp], 0
  00297	c6 45 fc 00	 mov	 BYTE PTR __$EHRec$[ebp+12], 0
  0029b	8d 8d 08 fe ff
	ff		 lea	 ecx, DWORD PTR _PlatformDBModule$[ebp]
  002a1	e8 00 00 00 00	 call	 ??1CDataBaseHelper@@UAE@XZ
  002a6	c7 45 fc ff ff
	ff ff		 mov	 DWORD PTR __$EHRec$[ebp+12], -1
  002ad	8d 4d e0	 lea	 ecx, DWORD PTR _PlatformDBAide$[ebp]
  002b0	ff 15 00 00 00
	00		 call	 DWORD PTR __imp_??1CDataBaseAide@@UAE@XZ
  002b6	8a 85 fb fc ff
	ff		 mov	 al, BYTE PTR $T2[ebp]
$LN1@WritePerso:

; 904  : }

  002bc	8b 4d f4	 mov	 ecx, DWORD PTR __$EHRec$[ebp+4]
  002bf	64 89 0d 00 00
	00 00		 mov	 DWORD PTR fs:0, ecx
  002c6	59		 pop	 ecx
  002c7	5f		 pop	 edi
  002c8	5e		 pop	 esi
  002c9	5b		 pop	 ebx
  002ca	8b 4d ec	 mov	 ecx, DWORD PTR __$ArrayPad$[ebp]
  002cd	33 cd		 xor	 ecx, ebp
  002cf	e8 00 00 00 00	 call	 @__security_check_cookie@4
  002d4	8b e5		 mov	 esp, ebp
  002d6	5d		 pop	 ebp
  002d7	c3		 ret	 0
_TEXT	ENDS
;	COMDAT text$x
text$x	SEGMENT
__unwindfunclet$?WritePersonalDissumeInfo@CServiceUnits@@AAE_NXZ$2:
  00000	8d 4d e0	 lea	 ecx, DWORD PTR _PlatformDBAide$[ebp]
  00003	ff 25 00 00 00
	00		 jmp	 DWORD PTR __imp_??1CDataBaseAide@@UAE@XZ
__unwindfunclet$?WritePersonalDissumeInfo@CServiceUnits@@AAE_NXZ$3:
  00009	8d 8d 08 fe ff
	ff		 lea	 ecx, DWORD PTR _PlatformDBModule$[ebp]
  0000f	e9 00 00 00 00	 jmp	 ??1CDataBaseHelper@@UAE@XZ
__ehhandler$?WritePersonalDissumeInfo@CServiceUnits@@AAE_NXZ:
  00014	8b 54 24 08	 mov	 edx, DWORD PTR [esp+8]
  00018	8d 42 0c	 lea	 eax, DWORD PTR [edx+12]
  0001b	8b 8a f0 fc ff
	ff		 mov	 ecx, DWORD PTR [edx-784]
  00021	33 c8		 xor	 ecx, eax
  00023	e8 00 00 00 00	 call	 @__security_check_cookie@4
  00028	8b 4a f8	 mov	 ecx, DWORD PTR [edx-8]
  0002b	33 c8		 xor	 ecx, eax
  0002d	e8 00 00 00 00	 call	 @__security_check_cookie@4
  00032	b8 00 00 00 00	 mov	 eax, OFFSET __ehfuncinfo$?WritePersonalDissumeInfo@CServiceUnits@@AAE_NXZ
  00037	e9 00 00 00 00	 jmp	 ___CxxFrameHandler3
text$x	ENDS
?WritePersonalDissumeInfo@CServiceUnits@@AAE_NXZ ENDP	; CServiceUnits::WritePersonalDissumeInfo
; Function compile flags: /Odtp /ZI
; File g:\网狐\happygamewh\服务端\系统模块\服务器组件\游戏服务器\serviceunits.cpp
;	COMDAT ?SendControlPacket@CServiceUnits@@AAE_NGPAXG@Z
_TEXT	SEGMENT
tv94 = -72						; size = 4
_this$ = -4						; size = 4
_wControlID$ = 8					; size = 2
_pData$ = 12						; size = 4
_wDataSize$ = 16					; size = 2
?SendControlPacket@CServiceUnits@@AAE_NGPAXG@Z PROC	; CServiceUnits::SendControlPacket, COMDAT
; _this$ = ecx

; 626  : {

  00000	55		 push	 ebp
  00001	8b ec		 mov	 ebp, esp
  00003	83 ec 48	 sub	 esp, 72			; 00000048H
  00006	53		 push	 ebx
  00007	56		 push	 esi
  00008	57		 push	 edi
  00009	89 4d fc	 mov	 DWORD PTR _this$[ebp], ecx

; 627  : 	//状态效验
; 628  : 	ASSERT(m_AttemperEngine.GetInterface()!=NULL);

  0000c	8b 4d fc	 mov	 ecx, DWORD PTR _this$[ebp]
  0000f	81 c1 a0 fd 02
	00		 add	 ecx, 196000		; 0002fda0H
  00015	e8 00 00 00 00	 call	 ?GetInterface@?$CTempldateHelper@UIAttemperEngine@@@@QBEPAUIAttemperEngine@@XZ ; CTempldateHelper<IAttemperEngine>::GetInterface
  0001a	85 c0		 test	 eax, eax
  0001c	75 18		 jne	 SHORT $LN4@SendContro
  0001e	a1 00 00 00 00	 mov	 eax, DWORD PTR ?__LINE__Var@?0??SendControlPacket@CServiceUnits@@AAE_NGPAXG@Z@4JA
  00023	83 c0 02	 add	 eax, 2
  00026	50		 push	 eax
  00027	68 00 00 00 00	 push	 OFFSET ??_C@_0EL@IDOGNJLC@g?3?2?M?x?$LK?$PM?2happygamewh?2?$LH?$PO?N?q?$LG?K?2?O?$LF?M?$LD@
  0002c	e8 00 00 00 00	 call	 ?AfxAssertFailedLine@@YGHPBDH@Z ; AfxAssertFailedLine
  00031	85 c0		 test	 eax, eax
  00033	74 01		 je	 SHORT $LN4@SendContro
  00035	cc		 int	 3
$LN4@SendContro:

; 629  : 	if (m_AttemperEngine.GetInterface()==NULL) return false;

  00036	8b 4d fc	 mov	 ecx, DWORD PTR _this$[ebp]
  00039	81 c1 a0 fd 02
	00		 add	 ecx, 196000		; 0002fda0H
  0003f	e8 00 00 00 00	 call	 ?GetInterface@?$CTempldateHelper@UIAttemperEngine@@@@QBEPAUIAttemperEngine@@XZ ; CTempldateHelper<IAttemperEngine>::GetInterface
  00044	85 c0		 test	 eax, eax
  00046	75 04		 jne	 SHORT $LN2@SendContro
  00048	32 c0		 xor	 al, al
  0004a	eb 2e		 jmp	 SHORT $LN1@SendContro
$LN2@SendContro:

; 630  : 
; 631  : 	//发送控制
; 632  : 	m_AttemperEngine->OnEventControl(wControlID,pData,wDataSize);

  0004c	8b 4d fc	 mov	 ecx, DWORD PTR _this$[ebp]
  0004f	81 c1 a0 fd 02
	00		 add	 ecx, 196000		; 0002fda0H
  00055	e8 00 00 00 00	 call	 ??C?$CTempldateHelper@UIAttemperEngine@@@@QBEPAUIAttemperEngine@@XZ ; CTempldateHelper<IAttemperEngine>::operator->
  0005a	89 45 b8	 mov	 DWORD PTR tv94[ebp], eax
  0005d	0f b7 45 10	 movzx	 eax, WORD PTR _wDataSize$[ebp]
  00061	50		 push	 eax
  00062	8b 4d 0c	 mov	 ecx, DWORD PTR _pData$[ebp]
  00065	51		 push	 ecx
  00066	0f b7 55 08	 movzx	 edx, WORD PTR _wControlID$[ebp]
  0006a	52		 push	 edx
  0006b	8b 45 b8	 mov	 eax, DWORD PTR tv94[ebp]
  0006e	8b 10		 mov	 edx, DWORD PTR [eax]
  00070	8b 4d b8	 mov	 ecx, DWORD PTR tv94[ebp]
  00073	8b 42 1c	 mov	 eax, DWORD PTR [edx+28]
  00076	ff d0		 call	 eax

; 633  : 
; 634  : 	return true;

  00078	b0 01		 mov	 al, 1
$LN1@SendContro:

; 635  : }

  0007a	5f		 pop	 edi
  0007b	5e		 pop	 esi
  0007c	5b		 pop	 ebx
  0007d	8b e5		 mov	 esp, ebp
  0007f	5d		 pop	 ebp
  00080	c2 0c 00	 ret	 12			; 0000000cH
?SendControlPacket@CServiceUnits@@AAE_NGPAXG@Z ENDP	; CServiceUnits::SendControlPacket
_TEXT	ENDS
; Function compile flags: /Odtp /ZI
; File g:\网狐\happygamewh\服务端\系统模块\服务器组件\游戏服务器\serviceunits.cpp
;	COMDAT ?SetServiceStatus@CServiceUnits@@AAE_NW4enServiceStatus@@@Z
_TEXT	SEGMENT
_pszString$1 = -8					; size = 4
_this$ = -4						; size = 4
_ServiceStatus$ = 8					; size = 4
?SetServiceStatus@CServiceUnits@@AAE_NW4enServiceStatus@@@Z PROC ; CServiceUnits::SetServiceStatus, COMDAT
; _this$ = ecx

; 602  : {

  00000	55		 push	 ebp
  00001	8b ec		 mov	 ebp, esp
  00003	83 ec 48	 sub	 esp, 72			; 00000048H
  00006	53		 push	 ebx
  00007	56		 push	 esi
  00008	57		 push	 edi
  00009	89 4d fc	 mov	 DWORD PTR _this$[ebp], ecx

; 603  : 	//状态判断
; 604  : 	if (m_ServiceStatus!=ServiceStatus)

  0000c	8b 45 fc	 mov	 eax, DWORD PTR _this$[ebp]
  0000f	8b 88 1c 02 00
	00		 mov	 ecx, DWORD PTR [eax+540]
  00015	3b 4d 08	 cmp	 ecx, DWORD PTR _ServiceStatus$[ebp]
  00018	0f 84 87 00 00
	00		 je	 $LN2@SetService

; 605  : 	{
; 606  : 		//错误通知
; 607  : 		if ((m_ServiceStatus!=ServiceStatus_Service)&&(ServiceStatus==ServiceStatus_Stop))

  0001e	8b 45 fc	 mov	 eax, DWORD PTR _this$[ebp]
  00021	83 b8 1c 02 00
	00 02		 cmp	 DWORD PTR [eax+540], 2
  00028	74 1c		 je	 SHORT $LN3@SetService
  0002a	83 7d 08 00	 cmp	 DWORD PTR _ServiceStatus$[ebp], 0
  0002e	75 16		 jne	 SHORT $LN3@SetService

; 608  : 		{
; 609  : 			LPCTSTR pszString=TEXT("服务启动失败");

  00030	c7 45 f8 00 00
	00 00		 mov	 DWORD PTR _pszString$1[ebp], OFFSET ??_C@_0N@LNPLGNA@?$LH?$PO?N?q?F?t?$LG?$KP?J?$KH?$LA?$NM@

; 610  : 			CTraceService::TraceString(pszString,TraceLevel_Exception);

  00037	6a 03		 push	 3
  00039	8b 45 f8	 mov	 eax, DWORD PTR _pszString$1[ebp]
  0003c	50		 push	 eax
  0003d	ff 15 00 00 00
	00		 call	 DWORD PTR __imp_?TraceString@CTraceService@@SA_NPBDW4enTraceLevel@@@Z
  00043	83 c4 08	 add	 esp, 8
$LN3@SetService:

; 611  : 		}
; 612  : 
; 613  : 		//设置变量
; 614  : 		m_ServiceStatus=ServiceStatus;

  00046	8b 45 fc	 mov	 eax, DWORD PTR _this$[ebp]
  00049	8b 4d 08	 mov	 ecx, DWORD PTR _ServiceStatus$[ebp]
  0004c	89 88 1c 02 00
	00		 mov	 DWORD PTR [eax+540], ecx

; 615  : 
; 616  : 		//状态通知
; 617  : 		ASSERT(m_pIServiceUnitsSink!=NULL);

  00052	8b 45 fc	 mov	 eax, DWORD PTR _this$[ebp]
  00055	83 b8 88 0a 03
	00 00		 cmp	 DWORD PTR [eax+199304], 0
  0005c	75 19		 jne	 SHORT $LN6@SetService
  0005e	8b 0d 00 00 00
	00		 mov	 ecx, DWORD PTR ?__LINE__Var@?0??SetServiceStatus@CServiceUnits@@AAE_NW4enServiceStatus@@@Z@4JA
  00064	83 c1 0f	 add	 ecx, 15			; 0000000fH
  00067	51		 push	 ecx
  00068	68 00 00 00 00	 push	 OFFSET ??_C@_0EL@IDOGNJLC@g?3?2?M?x?$LK?$PM?2happygamewh?2?$LH?$PO?N?q?$LG?K?2?O?$LF?M?$LD@
  0006d	e8 00 00 00 00	 call	 ?AfxAssertFailedLine@@YGHPBDH@Z ; AfxAssertFailedLine
  00072	85 c0		 test	 eax, eax
  00074	74 01		 je	 SHORT $LN6@SetService
  00076	cc		 int	 3
$LN6@SetService:

; 618  : 		if (m_pIServiceUnitsSink!=NULL) m_pIServiceUnitsSink->OnServiceUnitsStatus(m_ServiceStatus);

  00077	8b 45 fc	 mov	 eax, DWORD PTR _this$[ebp]
  0007a	83 b8 88 0a 03
	00 00		 cmp	 DWORD PTR [eax+199304], 0
  00081	74 22		 je	 SHORT $LN2@SetService
  00083	8b 45 fc	 mov	 eax, DWORD PTR _this$[ebp]
  00086	8b 88 1c 02 00
	00		 mov	 ecx, DWORD PTR [eax+540]
  0008c	51		 push	 ecx
  0008d	8b 55 fc	 mov	 edx, DWORD PTR _this$[ebp]
  00090	8b 82 88 0a 03
	00		 mov	 eax, DWORD PTR [edx+199304]
  00096	8b 4d fc	 mov	 ecx, DWORD PTR _this$[ebp]
  00099	8b 10		 mov	 edx, DWORD PTR [eax]
  0009b	8b 89 88 0a 03
	00		 mov	 ecx, DWORD PTR [ecx+199304]
  000a1	8b 02		 mov	 eax, DWORD PTR [edx]
  000a3	ff d0		 call	 eax
$LN2@SetService:

; 619  : 	}
; 620  : 
; 621  : 	return true;

  000a5	b0 01		 mov	 al, 1

; 622  : }

  000a7	5f		 pop	 edi
  000a8	5e		 pop	 esi
  000a9	5b		 pop	 ebx
  000aa	8b e5		 mov	 esp, ebp
  000ac	5d		 pop	 ebp
  000ad	c2 04 00	 ret	 4
?SetServiceStatus@CServiceUnits@@AAE_NW4enServiceStatus@@@Z ENDP ; CServiceUnits::SetServiceStatus
_TEXT	ENDS
; Function compile flags: /Odtp /ZI
; File g:\网狐\happygamewh\服务端\系统模块\服务器组件\游戏服务器\serviceunits.cpp
;	COMDAT ?RectifyServiceParameter@CServiceUnits@@IAE_NXZ
_TEXT	SEGMENT
tv357 = -88						; size = 8
tv342 = -88						; size = 8
tv508 = -80						; size = 4
tv475 = -80						; size = 4
tv507 = -76						; size = 4
tv499 = -76						; size = 4
tv474 = -76						; size = 4
tv317 = -76						; size = 4
tv208 = -76						; size = 4
tv181 = -76						; size = 4
tv131 = -76						; size = 4
tv72 = -76						; size = 4
tv259 = -74						; size = 2
tv245 = -74						; size = 2
tv223 = -74						; size = 2
_wMaxPlayer$ = -8					; size = 2
_this$ = -4						; size = 4
?RectifyServiceParameter@CServiceUnits@@IAE_NXZ PROC	; CServiceUnits::RectifyServiceParameter, COMDAT
; _this$ = ecx

; 478  : {

  00000	55		 push	 ebp
  00001	8b ec		 mov	 ebp, esp
  00003	83 ec 58	 sub	 esp, 88			; 00000058H
  00006	53		 push	 ebx
  00007	56		 push	 esi
  00008	57		 push	 edi
  00009	89 4d fc	 mov	 DWORD PTR _this$[ebp], ecx

; 479  : 	//读取属性
; 480  : 	m_GameServiceManager->GetServiceAttrib(m_GameServiceAttrib);

  0000c	8b 4d fc	 mov	 ecx, DWORD PTR _this$[ebp]
  0000f	81 c1 00 05 03
	00		 add	 ecx, 197888		; 00030500H
  00015	e8 00 00 00 00	 call	 ??C?$CTempldateHelper@UIGameServiceManager@@@@QBEPAUIGameServiceManager@@XZ ; CTempldateHelper<IGameServiceManager>::operator->
  0001a	89 45 b4	 mov	 DWORD PTR tv72[ebp], eax
  0001d	8b 45 fc	 mov	 eax, DWORD PTR _this$[ebp]
  00020	05 cc 02 00 00	 add	 eax, 716		; 000002ccH
  00025	50		 push	 eax
  00026	8b 4d b4	 mov	 ecx, DWORD PTR tv72[ebp]
  00029	8b 11		 mov	 edx, DWORD PTR [ecx]
  0002b	8b 4d b4	 mov	 ecx, DWORD PTR tv72[ebp]
  0002e	8b 42 14	 mov	 eax, DWORD PTR [edx+20]
  00031	ff d0		 call	 eax

; 481  : 	if (lstrcmp(m_GameServiceAttrib.szServerDLLName,m_GameServiceManager.m_szModuleDllName)!=0)

  00033	8b 45 fc	 mov	 eax, DWORD PTR _this$[ebp]
  00036	05 4c 05 03 00	 add	 eax, 197964		; 0003054cH
  0003b	50		 push	 eax
  0003c	8b 4d fc	 mov	 ecx, DWORD PTR _this$[ebp]
  0003f	81 c1 20 03 00
	00		 add	 ecx, 800		; 00000320H
  00045	51		 push	 ecx
  00046	ff 15 00 00 00
	00		 call	 DWORD PTR __imp__lstrcmpA@8
  0004c	85 c0		 test	 eax, eax
  0004e	74 17		 je	 SHORT $LN2@RectifySer

; 482  : 	{
; 483  : 		CTraceService::TraceString(TEXT("游戏模块的绑定 DLL 名字与配置模块 DLL 名字不一致"),TraceLevel_Exception);

  00050	6a 03		 push	 3
  00052	68 00 00 00 00	 push	 OFFSET ??_C@_0DB@JLIFGLDO@?S?N?O?$LH?D?$KD?$LP?i?$LF?D?$LA?s?$LG?$KI?5DLL?5?C?$PL?W?V?S?k?E?d?V?C?D?$KD@
  00057	ff 15 00 00 00
	00		 call	 DWORD PTR __imp_?TraceString@CTraceService@@SA_NPBDW4enTraceLevel@@@Z
  0005d	83 c4 08	 add	 esp, 8

; 484  : 		return false;

  00060	32 c0		 xor	 al, al
  00062	e9 dd 04 00 00	 jmp	 $LN1@RectifySer
$LN2@RectifySer:

; 485  : 	}
; 486  : 
; 487  : 	//调整参数
; 488  : 	if (m_GameServiceManager->RectifyParameter(m_GameServiceOption)==false)

  00067	8b 4d fc	 mov	 ecx, DWORD PTR _this$[ebp]
  0006a	81 c1 00 05 03
	00		 add	 ecx, 197888		; 00030500H
  00070	e8 00 00 00 00	 call	 ??C?$CTempldateHelper@UIGameServiceManager@@@@QBEPAUIGameServiceManager@@XZ ; CTempldateHelper<IGameServiceManager>::operator->
  00075	89 45 b4	 mov	 DWORD PTR tv131[ebp], eax
  00078	8b 45 fc	 mov	 eax, DWORD PTR _this$[ebp]
  0007b	05 60 03 00 00	 add	 eax, 864		; 00000360H
  00080	50		 push	 eax
  00081	8b 4d b4	 mov	 ecx, DWORD PTR tv131[ebp]
  00084	8b 11		 mov	 edx, DWORD PTR [ecx]
  00086	8b 4d b4	 mov	 ecx, DWORD PTR tv131[ebp]
  00089	8b 42 18	 mov	 eax, DWORD PTR [edx+24]
  0008c	ff d0		 call	 eax
  0008e	0f b6 c8	 movzx	 ecx, al
  00091	85 c9		 test	 ecx, ecx
  00093	75 17		 jne	 SHORT $LN3@RectifySer

; 489  : 	{
; 490  : 		CTraceService::TraceString(TEXT("游戏模块调整配置参数失败"),TraceLevel_Exception);

  00095	6a 03		 push	 3
  00097	68 00 00 00 00	 push	 OFFSET ??_C@_0BJ@PAFNNNND@?S?N?O?$LH?D?$KD?$LP?i?$LF?w?U?$PL?E?d?V?C?$LC?N?J?$PN?J?$KH?$LA?$NM@
  0009c	ff 15 00 00 00
	00		 call	 DWORD PTR __imp_?TraceString@CTraceService@@SA_NPBDW4enTraceLevel@@@Z
  000a2	83 c4 08	 add	 esp, 8

; 491  : 		return false;

  000a5	32 c0		 xor	 al, al
  000a7	e9 98 04 00 00	 jmp	 $LN1@RectifySer
$LN3@RectifySer:

; 492  : 	}
; 493  : 
; 494  : 	//服务类型
; 495  : 	if ((m_GameServiceOption.wServerType&m_GameServiceAttrib.wSupporType)==0)

  000ac	8b 45 fc	 mov	 eax, DWORD PTR _this$[ebp]
  000af	0f b7 88 ac 03
	00 00		 movzx	 ecx, WORD PTR [eax+940]
  000b6	8b 55 fc	 mov	 edx, DWORD PTR _this$[ebp]
  000b9	0f b7 82 d0 02
	00 00		 movzx	 eax, WORD PTR [edx+720]
  000c0	23 c8		 and	 ecx, eax
  000c2	75 17		 jne	 SHORT $LN4@RectifySer

; 496  : 	{
; 497  : 		CTraceService::TraceString(TEXT("游戏模块不支持配置中指定的房间模式类型"),TraceLevel_Exception);

  000c4	6a 03		 push	 3
  000c6	68 00 00 00 00	 push	 OFFSET ??_C@_0CH@OOGEGCIH@?S?N?O?$LH?D?$KD?$LP?i?$LC?$LL?V?$KH?$LD?V?E?d?V?C?V?P?V?$LI?$LG?$KI?$LF?D?$LH?$LP?$LM?d?D@
  000cb	ff 15 00 00 00
	00		 call	 DWORD PTR __imp_?TraceString@CTraceService@@SA_NPBDW4enTraceLevel@@@Z
  000d1	83 c4 08	 add	 esp, 8

; 498  : 		return false;

  000d4	32 c0		 xor	 al, al
  000d6	e9 69 04 00 00	 jmp	 $LN1@RectifySer
$LN4@RectifySer:

; 499  : 	}
; 500  : 
; 501  : 	//占位调整
; 502  : 	if (m_GameServiceAttrib.wChairCount==MAX_CHAIR)

  000db	8b 45 fc	 mov	 eax, DWORD PTR _this$[ebp]
  000de	0f b7 88 ce 02
	00 00		 movzx	 ecx, WORD PTR [eax+718]
  000e5	81 f9 c8 00 00
	00		 cmp	 ecx, 200		; 000000c8H
  000eb	75 13		 jne	 SHORT $LN5@RectifySer

; 503  : 	{
; 504  : 		CServerRule::SetAllowAndroidSimulate(m_GameServiceOption.dwServerRule,false);

  000ed	6a 00		 push	 0
  000ef	8b 45 fc	 mov	 eax, DWORD PTR _this$[ebp]
  000f2	05 9c 03 00 00	 add	 eax, 924		; 0000039cH
  000f7	50		 push	 eax
  000f8	e8 00 00 00 00	 call	 ?SetAllowAndroidSimulate@CServerRule@@SAXAAK_N@Z ; CServerRule::SetAllowAndroidSimulate
  000fd	83 c4 08	 add	 esp, 8
$LN5@RectifySer:

; 505  : 	}
; 506  : 
; 507  : 	//作弊模式
; 508  : 	if ((m_GameServiceOption.cbDistributeRule&DISTRIBUTE_ALLOW)!=0)

  00100	8b 45 fc	 mov	 eax, DWORD PTR _this$[ebp]
  00103	0f b6 88 f1 03
	00 00		 movzx	 ecx, BYTE PTR [eax+1009]
  0010a	83 e1 01	 and	 ecx, 1
  0010d	0f 84 de 01 00
	00		 je	 $LN6@RectifySer

; 509  : 	{
; 510  : 		//禁止规则
; 511  : 		CServerRule::SetForfendGameRule(m_GameServiceOption.dwServerRule,true);

  00113	6a 01		 push	 1
  00115	8b 45 fc	 mov	 eax, DWORD PTR _this$[ebp]
  00118	05 9c 03 00 00	 add	 eax, 924		; 0000039cH
  0011d	50		 push	 eax
  0011e	e8 00 00 00 00	 call	 ?SetForfendGameRule@CServerRule@@SAXAAK_N@Z ; CServerRule::SetForfendGameRule
  00123	83 c4 08	 add	 esp, 8

; 512  : 
; 513  : 		//设置作弊
; 514  : 		CServerRule::SetAllowAvertCheatMode(m_GameServiceOption.dwServerRule,true);		

  00126	6a 01		 push	 1
  00128	8b 45 fc	 mov	 eax, DWORD PTR _this$[ebp]
  0012b	05 9c 03 00 00	 add	 eax, 924		; 0000039cH
  00130	50		 push	 eax
  00131	e8 00 00 00 00	 call	 ?SetAllowAvertCheatMode@CServerRule@@SAXAAK_N@Z ; CServerRule::SetAllowAvertCheatMode
  00136	83 c4 08	 add	 esp, 8

; 515  : 
; 516  : 		//最少人数
; 517  : 		m_GameServiceOption.wMinDistributeUser=__max(2,m_GameServiceOption.wMinDistributeUser);

  00139	8b 45 fc	 mov	 eax, DWORD PTR _this$[ebp]
  0013c	0f b7 88 f2 03
	00 00		 movzx	 ecx, WORD PTR [eax+1010]
  00143	83 f9 02	 cmp	 ecx, 2
  00146	7d 09		 jge	 SHORT $LN22@RectifySer
  00148	c7 45 b4 02 00
	00 00		 mov	 DWORD PTR tv181[ebp], 2
  0014f	eb 0d		 jmp	 SHORT $LN23@RectifySer
$LN22@RectifySer:
  00151	8b 55 fc	 mov	 edx, DWORD PTR _this$[ebp]
  00154	0f b7 82 f2 03
	00 00		 movzx	 eax, WORD PTR [edx+1010]
  0015b	89 45 b4	 mov	 DWORD PTR tv181[ebp], eax
$LN23@RectifySer:
  0015e	8b 4d fc	 mov	 ecx, DWORD PTR _this$[ebp]
  00161	66 8b 55 b4	 mov	 dx, WORD PTR tv181[ebp]
  00165	66 89 91 f2 03
	00 00		 mov	 WORD PTR [ecx+1010], dx

; 518  : 
; 519  : 		//分组间隔
; 520  : 		if(m_GameServiceOption.wDistributeTimeSpace==0)

  0016c	8b 45 fc	 mov	 eax, DWORD PTR _this$[ebp]
  0016f	0f b7 88 f4 03
	00 00		 movzx	 ecx, WORD PTR [eax+1012]
  00176	85 c9		 test	 ecx, ecx
  00178	75 0f		 jne	 SHORT $LN7@RectifySer

; 521  : 		{
; 522  : 			m_GameServiceOption.wDistributeTimeSpace=15;

  0017a	b8 0f 00 00 00	 mov	 eax, 15			; 0000000fH
  0017f	8b 4d fc	 mov	 ecx, DWORD PTR _this$[ebp]
  00182	66 89 81 f4 03
	00 00		 mov	 WORD PTR [ecx+1012], ax
$LN7@RectifySer:

; 523  : 		}
; 524  : 
; 525  : 		//分组局数
; 526  : 		if (m_GameServiceOption.wDistributeDrawCount==0)

  00189	8b 45 fc	 mov	 eax, DWORD PTR _this$[ebp]
  0018c	0f b7 88 f6 03
	00 00		 movzx	 ecx, WORD PTR [eax+1014]
  00193	85 c9		 test	 ecx, ecx
  00195	75 0f		 jne	 SHORT $LN8@RectifySer

; 527  : 		{
; 528  : 			m_GameServiceOption.wDistributeDrawCount=1;

  00197	b8 01 00 00 00	 mov	 eax, 1
  0019c	8b 4d fc	 mov	 ecx, DWORD PTR _this$[ebp]
  0019f	66 89 81 f6 03
	00 00		 mov	 WORD PTR [ecx+1014], ax
$LN8@RectifySer:

; 529  : 		}
; 530  : 
; 531  : 		//最少游戏人数
; 532  : 		if (m_GameServiceOption.wMinPartakeGameUser!=0)

  001a6	8b 45 fc	 mov	 eax, DWORD PTR _this$[ebp]
  001a9	0f b7 88 f8 03
	00 00		 movzx	 ecx, WORD PTR [eax+1016]
  001b0	85 c9		 test	 ecx, ecx
  001b2	74 79		 je	 SHORT $LN9@RectifySer

; 533  : 		{
; 534  : 			m_GameServiceOption.wMinPartakeGameUser=__max(m_GameServiceOption.wMinPartakeGameUser,2);

  001b4	8b 45 fc	 mov	 eax, DWORD PTR _this$[ebp]
  001b7	0f b7 88 f8 03
	00 00		 movzx	 ecx, WORD PTR [eax+1016]
  001be	83 f9 02	 cmp	 ecx, 2
  001c1	7e 0f		 jle	 SHORT $LN24@RectifySer
  001c3	8b 55 fc	 mov	 edx, DWORD PTR _this$[ebp]
  001c6	0f b7 82 f8 03
	00 00		 movzx	 eax, WORD PTR [edx+1016]
  001cd	89 45 b4	 mov	 DWORD PTR tv208[ebp], eax
  001d0	eb 07		 jmp	 SHORT $LN25@RectifySer
$LN24@RectifySer:
  001d2	c7 45 b4 02 00
	00 00		 mov	 DWORD PTR tv208[ebp], 2
$LN25@RectifySer:
  001d9	8b 4d fc	 mov	 ecx, DWORD PTR _this$[ebp]
  001dc	66 8b 55 b4	 mov	 dx, WORD PTR tv208[ebp]
  001e0	66 89 91 f8 03
	00 00		 mov	 WORD PTR [ecx+1016], dx

; 535  : 			m_GameServiceOption.wMinPartakeGameUser=__min(m_GameServiceOption.wMinPartakeGameUser,m_GameServiceAttrib.wChairCount);

  001e7	8b 45 fc	 mov	 eax, DWORD PTR _this$[ebp]
  001ea	0f b7 88 f8 03
	00 00		 movzx	 ecx, WORD PTR [eax+1016]
  001f1	8b 55 fc	 mov	 edx, DWORD PTR _this$[ebp]
  001f4	0f b7 82 ce 02
	00 00		 movzx	 eax, WORD PTR [edx+718]
  001fb	3b c8		 cmp	 ecx, eax
  001fd	7d 10		 jge	 SHORT $LN26@RectifySer
  001ff	8b 4d fc	 mov	 ecx, DWORD PTR _this$[ebp]
  00202	66 8b 91 f8 03
	00 00		 mov	 dx, WORD PTR [ecx+1016]
  00209	66 89 55 b6	 mov	 WORD PTR tv223[ebp], dx
  0020d	eb 0e		 jmp	 SHORT $LN27@RectifySer
$LN26@RectifySer:
  0020f	8b 45 fc	 mov	 eax, DWORD PTR _this$[ebp]
  00212	66 8b 88 ce 02
	00 00		 mov	 cx, WORD PTR [eax+718]
  00219	66 89 4d b6	 mov	 WORD PTR tv223[ebp], cx
$LN27@RectifySer:
  0021d	8b 55 fc	 mov	 edx, DWORD PTR _this$[ebp]
  00220	66 8b 45 b6	 mov	 ax, WORD PTR tv223[ebp]
  00224	66 89 82 f8 03
	00 00		 mov	 WORD PTR [edx+1016], ax

; 536  : 		}
; 537  : 		else

  0022b	eb 14		 jmp	 SHORT $LN10@RectifySer
$LN9@RectifySer:

; 538  : 		{
; 539  : 			m_GameServiceOption.wMinPartakeGameUser=m_GameServiceAttrib.wChairCount;

  0022d	8b 45 fc	 mov	 eax, DWORD PTR _this$[ebp]
  00230	8b 4d fc	 mov	 ecx, DWORD PTR _this$[ebp]
  00233	66 8b 91 ce 02
	00 00		 mov	 dx, WORD PTR [ecx+718]
  0023a	66 89 90 f8 03
	00 00		 mov	 WORD PTR [eax+1016], dx
$LN10@RectifySer:

; 540  : 		}
; 541  : 
; 542  : 		//最大游戏人数
; 543  : 		if (m_GameServiceOption.wMaxPartakeGameUser!=0)

  00241	8b 45 fc	 mov	 eax, DWORD PTR _this$[ebp]
  00244	0f b7 88 fa 03
	00 00		 movzx	 ecx, WORD PTR [eax+1018]
  0024b	85 c9		 test	 ecx, ecx
  0024d	0f 84 8a 00 00
	00		 je	 $LN11@RectifySer

; 544  : 		{
; 545  : 			m_GameServiceOption.wMaxPartakeGameUser=__min(m_GameServiceOption.wMaxPartakeGameUser,m_GameServiceAttrib.wChairCount);

  00253	8b 45 fc	 mov	 eax, DWORD PTR _this$[ebp]
  00256	0f b7 88 fa 03
	00 00		 movzx	 ecx, WORD PTR [eax+1018]
  0025d	8b 55 fc	 mov	 edx, DWORD PTR _this$[ebp]
  00260	0f b7 82 ce 02
	00 00		 movzx	 eax, WORD PTR [edx+718]
  00267	3b c8		 cmp	 ecx, eax
  00269	7d 10		 jge	 SHORT $LN28@RectifySer
  0026b	8b 4d fc	 mov	 ecx, DWORD PTR _this$[ebp]
  0026e	66 8b 91 fa 03
	00 00		 mov	 dx, WORD PTR [ecx+1018]
  00275	66 89 55 b6	 mov	 WORD PTR tv245[ebp], dx
  00279	eb 0e		 jmp	 SHORT $LN29@RectifySer
$LN28@RectifySer:
  0027b	8b 45 fc	 mov	 eax, DWORD PTR _this$[ebp]
  0027e	66 8b 88 ce 02
	00 00		 mov	 cx, WORD PTR [eax+718]
  00285	66 89 4d b6	 mov	 WORD PTR tv245[ebp], cx
$LN29@RectifySer:
  00289	8b 55 fc	 mov	 edx, DWORD PTR _this$[ebp]
  0028c	66 8b 45 b6	 mov	 ax, WORD PTR tv245[ebp]
  00290	66 89 82 fa 03
	00 00		 mov	 WORD PTR [edx+1018], ax

; 546  : 			m_GameServiceOption.wMaxPartakeGameUser=__max(m_GameServiceOption.wMaxPartakeGameUser,m_GameServiceOption.wMinPartakeGameUser);

  00297	8b 45 fc	 mov	 eax, DWORD PTR _this$[ebp]
  0029a	0f b7 88 fa 03
	00 00		 movzx	 ecx, WORD PTR [eax+1018]
  002a1	8b 55 fc	 mov	 edx, DWORD PTR _this$[ebp]
  002a4	0f b7 82 f8 03
	00 00		 movzx	 eax, WORD PTR [edx+1016]
  002ab	3b c8		 cmp	 ecx, eax
  002ad	7e 10		 jle	 SHORT $LN30@RectifySer
  002af	8b 4d fc	 mov	 ecx, DWORD PTR _this$[ebp]
  002b2	66 8b 91 fa 03
	00 00		 mov	 dx, WORD PTR [ecx+1018]
  002b9	66 89 55 b6	 mov	 WORD PTR tv259[ebp], dx
  002bd	eb 0e		 jmp	 SHORT $LN31@RectifySer
$LN30@RectifySer:
  002bf	8b 45 fc	 mov	 eax, DWORD PTR _this$[ebp]
  002c2	66 8b 88 f8 03
	00 00		 mov	 cx, WORD PTR [eax+1016]
  002c9	66 89 4d b6	 mov	 WORD PTR tv259[ebp], cx
$LN31@RectifySer:
  002cd	8b 55 fc	 mov	 edx, DWORD PTR _this$[ebp]
  002d0	66 8b 45 b6	 mov	 ax, WORD PTR tv259[ebp]
  002d4	66 89 82 fa 03
	00 00		 mov	 WORD PTR [edx+1018], ax

; 547  : 		}
; 548  : 		else

  002db	eb 14		 jmp	 SHORT $LN6@RectifySer
$LN11@RectifySer:

; 549  : 		{
; 550  : 			m_GameServiceOption.wMaxPartakeGameUser=m_GameServiceAttrib.wChairCount;

  002dd	8b 45 fc	 mov	 eax, DWORD PTR _this$[ebp]
  002e0	8b 4d fc	 mov	 ecx, DWORD PTR _this$[ebp]
  002e3	66 8b 91 ce 02
	00 00		 mov	 dx, WORD PTR [ecx+718]
  002ea	66 89 90 fa 03
	00 00		 mov	 WORD PTR [eax+1018], dx
$LN6@RectifySer:

; 551  : 		}
; 552  : 	}
; 553  : 
; 554  : 	//游戏记录
; 555  : 	if (m_GameServiceOption.wServerType&(GAME_GENRE_GOLD|GAME_GENRE_MATCH))

  002f1	8b 45 fc	 mov	 eax, DWORD PTR _this$[ebp]
  002f4	0f b7 88 ac 03
	00 00		 movzx	 ecx, WORD PTR [eax+940]
  002fb	83 e1 05	 and	 ecx, 5
  002fe	74 13		 je	 SHORT $LN13@RectifySer

; 556  : 	{
; 557  : 		CServerRule::SetRecordGameScore(m_GameServiceOption.dwServerRule,true);

  00300	6a 01		 push	 1
  00302	8b 45 fc	 mov	 eax, DWORD PTR _this$[ebp]
  00305	05 9c 03 00 00	 add	 eax, 924		; 0000039cH
  0030a	50		 push	 eax
  0030b	e8 00 00 00 00	 call	 ?SetRecordGameScore@CServerRule@@SAXAAK_N@Z ; CServerRule::SetRecordGameScore
  00310	83 c4 08	 add	 esp, 8
$LN13@RectifySer:

; 558  : 	}
; 559  : 
; 560  : 	//即时写分
; 561  : 	if (m_GameServiceOption.wServerType&(GAME_GENRE_GOLD|GAME_GENRE_MATCH))

  00313	8b 45 fc	 mov	 eax, DWORD PTR _this$[ebp]
  00316	0f b7 88 ac 03
	00 00		 movzx	 ecx, WORD PTR [eax+940]
  0031d	83 e1 05	 and	 ecx, 5
  00320	74 13		 je	 SHORT $LN14@RectifySer

; 562  : 	{
; 563  : 		CServerRule::SetImmediateWriteScore(m_GameServiceOption.dwServerRule,true);

  00322	6a 01		 push	 1
  00324	8b 45 fc	 mov	 eax, DWORD PTR _this$[ebp]
  00327	05 9c 03 00 00	 add	 eax, 924		; 0000039cH
  0032c	50		 push	 eax
  0032d	e8 00 00 00 00	 call	 ?SetImmediateWriteScore@CServerRule@@SAXAAK_N@Z ; CServerRule::SetImmediateWriteScore
  00332	83 c4 08	 add	 esp, 8
$LN14@RectifySer:

; 564  : 	}
; 565  : 
; 566  : 	//挂接设置
; 567  : 	if (m_GameServiceOption.wSortID==0) m_GameServiceOption.wSortID=500;

  00335	8b 45 fc	 mov	 eax, DWORD PTR _this$[ebp]
  00338	0f b7 88 64 03
	00 00		 movzx	 ecx, WORD PTR [eax+868]
  0033f	85 c9		 test	 ecx, ecx
  00341	75 0f		 jne	 SHORT $LN15@RectifySer
  00343	b8 f4 01 00 00	 mov	 eax, 500		; 000001f4H
  00348	8b 4d fc	 mov	 ecx, DWORD PTR _this$[ebp]
  0034b	66 89 81 64 03
	00 00		 mov	 WORD PTR [ecx+868], ax
$LN15@RectifySer:

; 568  : 	if (m_GameServiceOption.wKindID==0) m_GameServiceOption.wKindID=m_GameServiceAttrib.wKindID;

  00352	8b 45 fc	 mov	 eax, DWORD PTR _this$[ebp]
  00355	0f b7 88 60 03
	00 00		 movzx	 ecx, WORD PTR [eax+864]
  0035c	85 c9		 test	 ecx, ecx
  0035e	75 14		 jne	 SHORT $LN16@RectifySer
  00360	8b 45 fc	 mov	 eax, DWORD PTR _this$[ebp]
  00363	8b 4d fc	 mov	 ecx, DWORD PTR _this$[ebp]
  00366	66 8b 91 cc 02
	00 00		 mov	 dx, WORD PTR [ecx+716]
  0036d	66 89 90 60 03
	00 00		 mov	 WORD PTR [eax+864], dx
$LN16@RectifySer:

; 569  : 
; 570  : 	//最大人数
; 571  : 	WORD wMaxPlayer=m_GameServiceOption.wTableCount*m_GameServiceAttrib.wChairCount;

  00374	8b 45 fc	 mov	 eax, DWORD PTR _this$[ebp]
  00377	0f b7 88 a6 03
	00 00		 movzx	 ecx, WORD PTR [eax+934]
  0037e	8b 55 fc	 mov	 edx, DWORD PTR _this$[ebp]
  00381	0f b7 82 ce 02
	00 00		 movzx	 eax, WORD PTR [edx+718]
  00388	0f af c8	 imul	 ecx, eax
  0038b	66 89 4d f8	 mov	 WORD PTR _wMaxPlayer$[ebp], cx

; 572  : 	m_GameServiceOption.wMaxPlayer=__max(m_GameServiceOption.wMaxPlayer,wMaxPlayer+RESERVE_USER_COUNT);

  0038f	8b 45 fc	 mov	 eax, DWORD PTR _this$[ebp]
  00392	0f b7 88 a4 03
	00 00		 movzx	 ecx, WORD PTR [eax+932]
  00399	0f b7 55 f8	 movzx	 edx, WORD PTR _wMaxPlayer$[ebp]
  0039d	83 c2 28	 add	 edx, 40			; 00000028H
  003a0	3b ca		 cmp	 ecx, edx
  003a2	7e 0f		 jle	 SHORT $LN32@RectifySer
  003a4	8b 45 fc	 mov	 eax, DWORD PTR _this$[ebp]
  003a7	0f b7 88 a4 03
	00 00		 movzx	 ecx, WORD PTR [eax+932]
  003ae	89 4d b4	 mov	 DWORD PTR tv317[ebp], ecx
  003b1	eb 0a		 jmp	 SHORT $LN33@RectifySer
$LN32@RectifySer:
  003b3	0f b7 55 f8	 movzx	 edx, WORD PTR _wMaxPlayer$[ebp]
  003b7	83 c2 28	 add	 edx, 40			; 00000028H
  003ba	89 55 b4	 mov	 DWORD PTR tv317[ebp], edx
$LN33@RectifySer:
  003bd	8b 45 fc	 mov	 eax, DWORD PTR _this$[ebp]
  003c0	66 8b 4d b4	 mov	 cx, WORD PTR tv317[ebp]
  003c4	66 89 88 a4 03
	00 00		 mov	 WORD PTR [eax+932], cx

; 573  : 
; 574  : 	//最小积分
; 575  : 	if (m_GameServiceOption.wServerType&GAME_GENRE_GOLD)

  003cb	8b 45 fc	 mov	 eax, DWORD PTR _this$[ebp]
  003ce	0f b7 88 ac 03
	00 00		 movzx	 ecx, WORD PTR [eax+940]
  003d5	83 e1 01	 and	 ecx, 1
  003d8	0f 84 a4 00 00
	00		 je	 $LN17@RectifySer

; 576  : 	{
; 577  : 		m_GameServiceOption.lMinTableScore+=m_GameServiceOption.lServiceScore;

  003de	8b 45 fc	 mov	 eax, DWORD PTR _this$[ebp]
  003e1	8b 4d fc	 mov	 ecx, DWORD PTR _this$[ebp]
  003e4	8b 90 80 03 00
	00		 mov	 edx, DWORD PTR [eax+896]
  003ea	03 91 70 03 00
	00		 add	 edx, DWORD PTR [ecx+880]
  003f0	8b 80 84 03 00
	00		 mov	 eax, DWORD PTR [eax+900]
  003f6	13 81 74 03 00
	00		 adc	 eax, DWORD PTR [ecx+884]
  003fc	8b 4d fc	 mov	 ecx, DWORD PTR _this$[ebp]
  003ff	89 91 80 03 00
	00		 mov	 DWORD PTR [ecx+896], edx
  00405	89 81 84 03 00
	00		 mov	 DWORD PTR [ecx+900], eax

; 578  : 		m_GameServiceOption.lMinTableScore=__max(m_GameServiceOption.lMinTableScore,m_GameServiceOption.lServiceScore);

  0040b	8b 45 fc	 mov	 eax, DWORD PTR _this$[ebp]
  0040e	8b 4d fc	 mov	 ecx, DWORD PTR _this$[ebp]
  00411	89 45 b4	 mov	 DWORD PTR tv474[ebp], eax
  00414	89 4d b0	 mov	 DWORD PTR tv475[ebp], ecx
  00417	8b 55 b4	 mov	 edx, DWORD PTR tv474[ebp]
  0041a	8b 45 b0	 mov	 eax, DWORD PTR tv475[ebp]
  0041d	8b 8a 84 03 00
	00		 mov	 ecx, DWORD PTR [edx+900]
  00423	3b 88 74 03 00
	00		 cmp	 ecx, DWORD PTR [eax+884]
  00429	7c 2d		 jl	 SHORT $LN34@RectifySer
  0042b	7f 14		 jg	 SHORT $LN38@RectifySer
  0042d	8b 55 b4	 mov	 edx, DWORD PTR tv474[ebp]
  00430	8b 45 b0	 mov	 eax, DWORD PTR tv475[ebp]
  00433	8b 8a 80 03 00
	00		 mov	 ecx, DWORD PTR [edx+896]
  00439	3b 88 70 03 00
	00		 cmp	 ecx, DWORD PTR [eax+880]
  0043f	76 17		 jbe	 SHORT $LN34@RectifySer
$LN38@RectifySer:
  00441	8b 55 fc	 mov	 edx, DWORD PTR _this$[ebp]
  00444	8b 82 80 03 00
	00		 mov	 eax, DWORD PTR [edx+896]
  0044a	89 45 a8	 mov	 DWORD PTR tv342[ebp], eax
  0044d	8b 8a 84 03 00
	00		 mov	 ecx, DWORD PTR [edx+900]
  00453	89 4d ac	 mov	 DWORD PTR tv342[ebp+4], ecx
  00456	eb 15		 jmp	 SHORT $LN35@RectifySer
$LN34@RectifySer:
  00458	8b 55 fc	 mov	 edx, DWORD PTR _this$[ebp]
  0045b	8b 82 70 03 00
	00		 mov	 eax, DWORD PTR [edx+880]
  00461	89 45 a8	 mov	 DWORD PTR tv342[ebp], eax
  00464	8b 8a 74 03 00
	00		 mov	 ecx, DWORD PTR [edx+884]
  0046a	89 4d ac	 mov	 DWORD PTR tv342[ebp+4], ecx
$LN35@RectifySer:
  0046d	8b 55 fc	 mov	 edx, DWORD PTR _this$[ebp]
  00470	8b 45 a8	 mov	 eax, DWORD PTR tv342[ebp]
  00473	89 82 80 03 00
	00		 mov	 DWORD PTR [edx+896], eax
  00479	8b 4d ac	 mov	 ecx, DWORD PTR tv342[ebp+4]
  0047c	89 8a 84 03 00
	00		 mov	 DWORD PTR [edx+900], ecx
$LN17@RectifySer:

; 579  : 	}
; 580  : 
; 581  : 	//限制调整
; 582  : 	if (m_GameServiceOption.lMaxEnterScore!=0L)

  00482	8b 45 fc	 mov	 eax, DWORD PTR _this$[ebp]
  00485	89 45 b4	 mov	 DWORD PTR tv499[ebp], eax
  00488	8b 4d b4	 mov	 ecx, DWORD PTR tv499[ebp]
  0048b	8b 55 b4	 mov	 edx, DWORD PTR tv499[ebp]
  0048e	8b 81 90 03 00
	00		 mov	 eax, DWORD PTR [ecx+912]
  00494	0b 82 94 03 00
	00		 or	 eax, DWORD PTR [edx+916]
  0049a	74 77		 je	 SHORT $LN18@RectifySer

; 583  : 	{
; 584  : 		m_GameServiceOption.lMaxEnterScore=__max(m_GameServiceOption.lMaxEnterScore,m_GameServiceOption.lMinTableScore);

  0049c	8b 45 fc	 mov	 eax, DWORD PTR _this$[ebp]
  0049f	8b 4d fc	 mov	 ecx, DWORD PTR _this$[ebp]
  004a2	89 45 b4	 mov	 DWORD PTR tv507[ebp], eax
  004a5	89 4d b0	 mov	 DWORD PTR tv508[ebp], ecx
  004a8	8b 55 b4	 mov	 edx, DWORD PTR tv507[ebp]
  004ab	8b 45 b0	 mov	 eax, DWORD PTR tv508[ebp]
  004ae	8b 8a 94 03 00
	00		 mov	 ecx, DWORD PTR [edx+916]
  004b4	3b 88 84 03 00
	00		 cmp	 ecx, DWORD PTR [eax+900]
  004ba	7c 2d		 jl	 SHORT $LN36@RectifySer
  004bc	7f 14		 jg	 SHORT $LN39@RectifySer
  004be	8b 55 b4	 mov	 edx, DWORD PTR tv507[ebp]
  004c1	8b 45 b0	 mov	 eax, DWORD PTR tv508[ebp]
  004c4	8b 8a 90 03 00
	00		 mov	 ecx, DWORD PTR [edx+912]
  004ca	3b 88 80 03 00
	00		 cmp	 ecx, DWORD PTR [eax+896]
  004d0	76 17		 jbe	 SHORT $LN36@RectifySer
$LN39@RectifySer:
  004d2	8b 55 fc	 mov	 edx, DWORD PTR _this$[ebp]
  004d5	8b 82 90 03 00
	00		 mov	 eax, DWORD PTR [edx+912]
  004db	89 45 a8	 mov	 DWORD PTR tv357[ebp], eax
  004de	8b 8a 94 03 00
	00		 mov	 ecx, DWORD PTR [edx+916]
  004e4	89 4d ac	 mov	 DWORD PTR tv357[ebp+4], ecx
  004e7	eb 15		 jmp	 SHORT $LN37@RectifySer
$LN36@RectifySer:
  004e9	8b 55 fc	 mov	 edx, DWORD PTR _this$[ebp]
  004ec	8b 82 80 03 00
	00		 mov	 eax, DWORD PTR [edx+896]
  004f2	89 45 a8	 mov	 DWORD PTR tv357[ebp], eax
  004f5	8b 8a 84 03 00
	00		 mov	 ecx, DWORD PTR [edx+900]
  004fb	89 4d ac	 mov	 DWORD PTR tv357[ebp+4], ecx
$LN37@RectifySer:
  004fe	8b 55 fc	 mov	 edx, DWORD PTR _this$[ebp]
  00501	8b 45 a8	 mov	 eax, DWORD PTR tv357[ebp]
  00504	89 82 90 03 00
	00		 mov	 DWORD PTR [edx+912], eax
  0050a	8b 4d ac	 mov	 ecx, DWORD PTR tv357[ebp+4]
  0050d	89 8a 94 03 00
	00		 mov	 DWORD PTR [edx+916], ecx
$LN18@RectifySer:

; 585  : 	}
; 586  : 
; 587  : 	//比赛配置
; 588  : 	if((m_GameServiceOption.wServerType&GAME_GENRE_MATCH)!=0)

  00513	8b 45 fc	 mov	 eax, DWORD PTR _this$[ebp]
  00516	0f b7 88 ac 03
	00 00		 movzx	 ecx, WORD PTR [eax+940]
  0051d	83 e1 04	 and	 ecx, 4
  00520	74 20		 je	 SHORT $LN19@RectifySer

; 589  : 	{
; 590  : 		if(m_GameMatchOption.dwMatchID==0)

  00522	8b 45 fc	 mov	 eax, DWORD PTR _this$[ebp]
  00525	83 b8 50 0c 00
	00 00		 cmp	 DWORD PTR [eax+3152], 0
  0052c	75 14		 jne	 SHORT $LN19@RectifySer

; 591  : 		{
; 592  : 			CTraceService::TraceString(TEXT("未加载比赛配置"),TraceLevel_Exception);

  0052e	6a 03		 push	 3
  00530	68 00 00 00 00	 push	 OFFSET ??_C@_0P@OPCEHFKE@?N?$LE?$LM?S?T?X?$LB?H?H?$PM?E?d?V?C@
  00535	ff 15 00 00 00
	00		 call	 DWORD PTR __imp_?TraceString@CTraceService@@SA_NPBDW4enTraceLevel@@@Z
  0053b	83 c4 08	 add	 esp, 8

; 593  : 			return false;

  0053e	32 c0		 xor	 al, al
  00540	eb 02		 jmp	 SHORT $LN1@RectifySer
$LN19@RectifySer:

; 594  : 		}
; 595  : 	}
; 596  : 
; 597  : 	return true;

  00542	b0 01		 mov	 al, 1
$LN1@RectifySer:

; 598  : }

  00544	5f		 pop	 edi
  00545	5e		 pop	 esi
  00546	5b		 pop	 ebx
  00547	8b e5		 mov	 esp, ebp
  00549	5d		 pop	 ebp
  0054a	c3		 ret	 0
?RectifyServiceParameter@CServiceUnits@@IAE_NXZ ENDP	; CServiceUnits::RectifyServiceParameter
_TEXT	ENDS
; Function compile flags: /Odtp /ZI
; File g:\网狐\happygamewh\服务端\系统模块\服务器组件\游戏服务器\serviceunits.cpp
;	COMDAT ?StartNetworkService@CServiceUnits@@IAE_NXZ
_TEXT	SEGMENT
tv76 = -72						; size = 4
_this$ = -4						; size = 4
?StartNetworkService@CServiceUnits@@IAE_NXZ PROC	; CServiceUnits::StartNetworkService, COMDAT
; _this$ = ecx

; 465  : {

  00000	55		 push	 ebp
  00001	8b ec		 mov	 ebp, esp
  00003	83 ec 48	 sub	 esp, 72			; 00000048H
  00006	53		 push	 ebx
  00007	56		 push	 esi
  00008	57		 push	 edi
  00009	89 4d fc	 mov	 DWORD PTR _this$[ebp], ecx

; 466  : 	//网络引擎
; 467  : 	if (m_TCPNetworkEngine->StartService()==false)

  0000c	8b 4d fc	 mov	 ecx, DWORD PTR _this$[ebp]
  0000f	81 c1 78 ff 02
	00		 add	 ecx, 196472		; 0002ff78H
  00015	e8 00 00 00 00	 call	 ??C?$CTempldateHelper@UITCPNetworkEngine@@@@QBEPAUITCPNetworkEngine@@XZ ; CTempldateHelper<ITCPNetworkEngine>::operator->
  0001a	89 45 b8	 mov	 DWORD PTR tv76[ebp], eax
  0001d	8b 45 b8	 mov	 eax, DWORD PTR tv76[ebp]
  00020	8b 10		 mov	 edx, DWORD PTR [eax]
  00022	8b 4d b8	 mov	 ecx, DWORD PTR tv76[ebp]
  00025	8b 42 08	 mov	 eax, DWORD PTR [edx+8]
  00028	ff d0		 call	 eax
  0002a	0f b6 c8	 movzx	 ecx, al
  0002d	85 c9		 test	 ecx, ecx
  0002f	75 21		 jne	 SHORT $LN2@StartNetwo

; 468  : 	{
; 469  : 		ASSERT(FALSE);

  00031	33 c0		 xor	 eax, eax
  00033	75 19		 jne	 SHORT $LN4@StartNetwo
  00035	8b 0d 00 00 00
	00		 mov	 ecx, DWORD PTR ?__LINE__Var@?0??StartNetworkService@CServiceUnits@@IAE_NXZ@4JA
  0003b	83 c1 04	 add	 ecx, 4
  0003e	51		 push	 ecx
  0003f	68 00 00 00 00	 push	 OFFSET ??_C@_0EL@IDOGNJLC@g?3?2?M?x?$LK?$PM?2happygamewh?2?$LH?$PO?N?q?$LG?K?2?O?$LF?M?$LD@
  00044	e8 00 00 00 00	 call	 ?AfxAssertFailedLine@@YGHPBDH@Z ; AfxAssertFailedLine
  00049	85 c0		 test	 eax, eax
  0004b	74 01		 je	 SHORT $LN4@StartNetwo
  0004d	cc		 int	 3
$LN4@StartNetwo:

; 470  : 		return false;

  0004e	32 c0		 xor	 al, al
  00050	eb 02		 jmp	 SHORT $LN1@StartNetwo
$LN2@StartNetwo:

; 471  : 	}
; 472  : 	
; 473  : 	return true;

  00052	b0 01		 mov	 al, 1
$LN1@StartNetwo:

; 474  : }

  00054	5f		 pop	 edi
  00055	5e		 pop	 esi
  00056	5b		 pop	 ebx
  00057	8b e5		 mov	 esp, ebp
  00059	5d		 pop	 ebp
  0005a	c3		 ret	 0
?StartNetworkService@CServiceUnits@@IAE_NXZ ENDP	; CServiceUnits::StartNetworkService
_TEXT	ENDS
; Function compile flags: /Odtp /ZI
; File g:\网狐\happygamewh\服务端\系统模块\服务器组件\游戏服务器\serviceunits.cpp
;	COMDAT ?StartKernelService@CServiceUnits@@IAE_NXZ
_TEXT	SEGMENT
tv281 = -72						; size = 4
tv233 = -72						; size = 4
tv208 = -72						; size = 4
tv183 = -72						; size = 4
tv158 = -72						; size = 4
tv133 = -72						; size = 4
tv76 = -72						; size = 4
_this$ = -4						; size = 4
?StartKernelService@CServiceUnits@@IAE_NXZ PROC		; CServiceUnits::StartKernelService, COMDAT
; _this$ = ecx

; 400  : {

  00000	55		 push	 ebp
  00001	8b ec		 mov	 ebp, esp
  00003	83 ec 48	 sub	 esp, 72			; 00000048H
  00006	53		 push	 ebx
  00007	56		 push	 esi
  00008	57		 push	 edi
  00009	89 4d fc	 mov	 DWORD PTR _this$[ebp], ecx

; 401  : 	//时间引擎
; 402  : 	if (m_TimerEngine->StartService()==false)

  0000c	8b 4d fc	 mov	 ecx, DWORD PTR _this$[ebp]
  0000f	81 c1 c8 fb 02
	00		 add	 ecx, 195528		; 0002fbc8H
  00015	e8 00 00 00 00	 call	 ??C?$CTempldateHelper@UITimerEngine@@@@QBEPAUITimerEngine@@XZ ; CTempldateHelper<ITimerEngine>::operator->
  0001a	89 45 b8	 mov	 DWORD PTR tv76[ebp], eax
  0001d	8b 45 b8	 mov	 eax, DWORD PTR tv76[ebp]
  00020	8b 10		 mov	 edx, DWORD PTR [eax]
  00022	8b 4d b8	 mov	 ecx, DWORD PTR tv76[ebp]
  00025	8b 42 08	 mov	 eax, DWORD PTR [edx+8]
  00028	ff d0		 call	 eax
  0002a	0f b6 c8	 movzx	 ecx, al
  0002d	85 c9		 test	 ecx, ecx
  0002f	75 24		 jne	 SHORT $LN2@StartKerne

; 403  : 	{
; 404  : 		ASSERT(FALSE);

  00031	33 c0		 xor	 eax, eax
  00033	75 19		 jne	 SHORT $LN12@StartKerne
  00035	8b 0d 00 00 00
	00		 mov	 ecx, DWORD PTR ?__LINE__Var@?0??StartKernelService@CServiceUnits@@IAE_NXZ@4JA
  0003b	83 c1 04	 add	 ecx, 4
  0003e	51		 push	 ecx
  0003f	68 00 00 00 00	 push	 OFFSET ??_C@_0EL@IDOGNJLC@g?3?2?M?x?$LK?$PM?2happygamewh?2?$LH?$PO?N?q?$LG?K?2?O?$LF?M?$LD@
  00044	e8 00 00 00 00	 call	 ?AfxAssertFailedLine@@YGHPBDH@Z ; AfxAssertFailedLine
  00049	85 c0		 test	 eax, eax
  0004b	74 01		 je	 SHORT $LN12@StartKerne
  0004d	cc		 int	 3
$LN12@StartKerne:

; 405  : 		return false;

  0004e	32 c0		 xor	 al, al
  00050	e9 06 02 00 00	 jmp	 $LN1@StartKerne
$LN2@StartKerne:

; 406  : 	}
; 407  : 
; 408  : 	//调度引擎
; 409  : 	if (m_AttemperEngine->StartService()==false)

  00055	8b 4d fc	 mov	 ecx, DWORD PTR _this$[ebp]
  00058	81 c1 a0 fd 02
	00		 add	 ecx, 196000		; 0002fda0H
  0005e	e8 00 00 00 00	 call	 ??C?$CTempldateHelper@UIAttemperEngine@@@@QBEPAUIAttemperEngine@@XZ ; CTempldateHelper<IAttemperEngine>::operator->
  00063	89 45 b8	 mov	 DWORD PTR tv133[ebp], eax
  00066	8b 45 b8	 mov	 eax, DWORD PTR tv133[ebp]
  00069	8b 10		 mov	 edx, DWORD PTR [eax]
  0006b	8b 4d b8	 mov	 ecx, DWORD PTR tv133[ebp]
  0006e	8b 42 08	 mov	 eax, DWORD PTR [edx+8]
  00071	ff d0		 call	 eax
  00073	0f b6 c8	 movzx	 ecx, al
  00076	85 c9		 test	 ecx, ecx
  00078	75 24		 jne	 SHORT $LN3@StartKerne

; 410  : 	{
; 411  : 		ASSERT(FALSE);

  0007a	33 c0		 xor	 eax, eax
  0007c	75 19		 jne	 SHORT $LN13@StartKerne
  0007e	8b 0d 00 00 00
	00		 mov	 ecx, DWORD PTR ?__LINE__Var@?0??StartKernelService@CServiceUnits@@IAE_NXZ@4JA
  00084	83 c1 0b	 add	 ecx, 11			; 0000000bH
  00087	51		 push	 ecx
  00088	68 00 00 00 00	 push	 OFFSET ??_C@_0EL@IDOGNJLC@g?3?2?M?x?$LK?$PM?2happygamewh?2?$LH?$PO?N?q?$LG?K?2?O?$LF?M?$LD@
  0008d	e8 00 00 00 00	 call	 ?AfxAssertFailedLine@@YGHPBDH@Z ; AfxAssertFailedLine
  00092	85 c0		 test	 eax, eax
  00094	74 01		 je	 SHORT $LN13@StartKerne
  00096	cc		 int	 3
$LN13@StartKerne:

; 412  : 		return false;

  00097	32 c0		 xor	 al, al
  00099	e9 bd 01 00 00	 jmp	 $LN1@StartKerne
$LN3@StartKerne:

; 413  : 	}
; 414  : 
; 415  : 	//协调引擎
; 416  : 	if (m_TCPSocketService->StartService()==false)

  0009e	8b 4d fc	 mov	 ecx, DWORD PTR _this$[ebp]
  000a1	81 c1 50 01 03
	00		 add	 ecx, 196944		; 00030150H
  000a7	e8 00 00 00 00	 call	 ??C?$CTempldateHelper@UITCPSocketService@@@@QBEPAUITCPSocketService@@XZ ; CTempldateHelper<ITCPSocketService>::operator->
  000ac	89 45 b8	 mov	 DWORD PTR tv158[ebp], eax
  000af	8b 45 b8	 mov	 eax, DWORD PTR tv158[ebp]
  000b2	8b 10		 mov	 edx, DWORD PTR [eax]
  000b4	8b 4d b8	 mov	 ecx, DWORD PTR tv158[ebp]
  000b7	8b 42 08	 mov	 eax, DWORD PTR [edx+8]
  000ba	ff d0		 call	 eax
  000bc	0f b6 c8	 movzx	 ecx, al
  000bf	85 c9		 test	 ecx, ecx
  000c1	75 24		 jne	 SHORT $LN4@StartKerne

; 417  : 	{
; 418  : 		ASSERT(FALSE);

  000c3	33 c0		 xor	 eax, eax
  000c5	75 19		 jne	 SHORT $LN14@StartKerne
  000c7	8b 0d 00 00 00
	00		 mov	 ecx, DWORD PTR ?__LINE__Var@?0??StartKernelService@CServiceUnits@@IAE_NXZ@4JA
  000cd	83 c1 12	 add	 ecx, 18			; 00000012H
  000d0	51		 push	 ecx
  000d1	68 00 00 00 00	 push	 OFFSET ??_C@_0EL@IDOGNJLC@g?3?2?M?x?$LK?$PM?2happygamewh?2?$LH?$PO?N?q?$LG?K?2?O?$LF?M?$LD@
  000d6	e8 00 00 00 00	 call	 ?AfxAssertFailedLine@@YGHPBDH@Z ; AfxAssertFailedLine
  000db	85 c0		 test	 eax, eax
  000dd	74 01		 je	 SHORT $LN14@StartKerne
  000df	cc		 int	 3
$LN14@StartKerne:

; 419  : 		return false;

  000e0	32 c0		 xor	 al, al
  000e2	e9 74 01 00 00	 jmp	 $LN1@StartKerne
$LN4@StartKerne:

; 420  : 	}
; 421  : 
; 422  : 	//约战引擎
; 423  : 	if (m_PrsnlRmTCPSocketService->StartService()==false)

  000e7	8b 4d fc	 mov	 ecx, DWORD PTR _this$[ebp]
  000ea	81 c1 28 03 03
	00		 add	 ecx, 197416		; 00030328H
  000f0	e8 00 00 00 00	 call	 ??C?$CTempldateHelper@UITCPSocketService@@@@QBEPAUITCPSocketService@@XZ ; CTempldateHelper<ITCPSocketService>::operator->
  000f5	89 45 b8	 mov	 DWORD PTR tv183[ebp], eax
  000f8	8b 45 b8	 mov	 eax, DWORD PTR tv183[ebp]
  000fb	8b 10		 mov	 edx, DWORD PTR [eax]
  000fd	8b 4d b8	 mov	 ecx, DWORD PTR tv183[ebp]
  00100	8b 42 08	 mov	 eax, DWORD PTR [edx+8]
  00103	ff d0		 call	 eax
  00105	0f b6 c8	 movzx	 ecx, al
  00108	85 c9		 test	 ecx, ecx
  0010a	75 24		 jne	 SHORT $LN5@StartKerne

; 424  : 	{
; 425  : 		ASSERT(FALSE);

  0010c	33 c0		 xor	 eax, eax
  0010e	75 19		 jne	 SHORT $LN15@StartKerne
  00110	8b 0d 00 00 00
	00		 mov	 ecx, DWORD PTR ?__LINE__Var@?0??StartKernelService@CServiceUnits@@IAE_NXZ@4JA
  00116	83 c1 19	 add	 ecx, 25			; 00000019H
  00119	51		 push	 ecx
  0011a	68 00 00 00 00	 push	 OFFSET ??_C@_0EL@IDOGNJLC@g?3?2?M?x?$LK?$PM?2happygamewh?2?$LH?$PO?N?q?$LG?K?2?O?$LF?M?$LD@
  0011f	e8 00 00 00 00	 call	 ?AfxAssertFailedLine@@YGHPBDH@Z ; AfxAssertFailedLine
  00124	85 c0		 test	 eax, eax
  00126	74 01		 je	 SHORT $LN15@StartKerne
  00128	cc		 int	 3
$LN15@StartKerne:

; 426  : 		return false;

  00129	32 c0		 xor	 al, al
  0012b	e9 2b 01 00 00	 jmp	 $LN1@StartKerne
$LN5@StartKerne:

; 427  : 	}
; 428  : 
; 429  : 	//数据引擎
; 430  : 	if (m_RecordDataBaseEngine->StartService()==false)

  00130	8b 4d fc	 mov	 ecx, DWORD PTR _this$[ebp]
  00133	81 c1 18 f8 02
	00		 add	 ecx, 194584		; 0002f818H
  00139	e8 00 00 00 00	 call	 ??C?$CTempldateHelper@UIDataBaseEngine@@@@QBEPAUIDataBaseEngine@@XZ ; CTempldateHelper<IDataBaseEngine>::operator->
  0013e	89 45 b8	 mov	 DWORD PTR tv208[ebp], eax
  00141	8b 45 b8	 mov	 eax, DWORD PTR tv208[ebp]
  00144	8b 10		 mov	 edx, DWORD PTR [eax]
  00146	8b 4d b8	 mov	 ecx, DWORD PTR tv208[ebp]
  00149	8b 42 08	 mov	 eax, DWORD PTR [edx+8]
  0014c	ff d0		 call	 eax
  0014e	0f b6 c8	 movzx	 ecx, al
  00151	85 c9		 test	 ecx, ecx
  00153	75 24		 jne	 SHORT $LN6@StartKerne

; 431  : 	{
; 432  : 		ASSERT(FALSE);

  00155	33 c0		 xor	 eax, eax
  00157	75 19		 jne	 SHORT $LN16@StartKerne
  00159	8b 0d 00 00 00
	00		 mov	 ecx, DWORD PTR ?__LINE__Var@?0??StartKernelService@CServiceUnits@@IAE_NXZ@4JA
  0015f	83 c1 20	 add	 ecx, 32			; 00000020H
  00162	51		 push	 ecx
  00163	68 00 00 00 00	 push	 OFFSET ??_C@_0EL@IDOGNJLC@g?3?2?M?x?$LK?$PM?2happygamewh?2?$LH?$PO?N?q?$LG?K?2?O?$LF?M?$LD@
  00168	e8 00 00 00 00	 call	 ?AfxAssertFailedLine@@YGHPBDH@Z ; AfxAssertFailedLine
  0016d	85 c0		 test	 eax, eax
  0016f	74 01		 je	 SHORT $LN16@StartKerne
  00171	cc		 int	 3
$LN16@StartKerne:

; 433  : 		return false;

  00172	32 c0		 xor	 al, al
  00174	e9 e2 00 00 00	 jmp	 $LN1@StartKerne
$LN6@StartKerne:

; 434  : 	}
; 435  : 
; 436  : 	//数据引擎
; 437  : 	if (m_KernelDataBaseEngine->StartService()==false)

  00179	8b 4d fc	 mov	 ecx, DWORD PTR _this$[ebp]
  0017c	81 c1 f0 f9 02
	00		 add	 ecx, 195056		; 0002f9f0H
  00182	e8 00 00 00 00	 call	 ??C?$CTempldateHelper@UIDataBaseEngine@@@@QBEPAUIDataBaseEngine@@XZ ; CTempldateHelper<IDataBaseEngine>::operator->
  00187	89 45 b8	 mov	 DWORD PTR tv233[ebp], eax
  0018a	8b 45 b8	 mov	 eax, DWORD PTR tv233[ebp]
  0018d	8b 10		 mov	 edx, DWORD PTR [eax]
  0018f	8b 4d b8	 mov	 ecx, DWORD PTR tv233[ebp]
  00192	8b 42 08	 mov	 eax, DWORD PTR [edx+8]
  00195	ff d0		 call	 eax
  00197	0f b6 c8	 movzx	 ecx, al
  0019a	85 c9		 test	 ecx, ecx
  0019c	75 24		 jne	 SHORT $LN7@StartKerne

; 438  : 	{
; 439  : 		ASSERT(FALSE);

  0019e	33 c0		 xor	 eax, eax
  001a0	75 19		 jne	 SHORT $LN17@StartKerne
  001a2	8b 0d 00 00 00
	00		 mov	 ecx, DWORD PTR ?__LINE__Var@?0??StartKernelService@CServiceUnits@@IAE_NXZ@4JA
  001a8	83 c1 27	 add	 ecx, 39			; 00000027H
  001ab	51		 push	 ecx
  001ac	68 00 00 00 00	 push	 OFFSET ??_C@_0EL@IDOGNJLC@g?3?2?M?x?$LK?$PM?2happygamewh?2?$LH?$PO?N?q?$LG?K?2?O?$LF?M?$LD@
  001b1	e8 00 00 00 00	 call	 ?AfxAssertFailedLine@@YGHPBDH@Z ; AfxAssertFailedLine
  001b6	85 c0		 test	 eax, eax
  001b8	74 01		 je	 SHORT $LN17@StartKerne
  001ba	cc		 int	 3
$LN17@StartKerne:

; 440  : 		return false;

  001bb	32 c0		 xor	 al, al
  001bd	e9 99 00 00 00	 jmp	 $LN1@StartKerne
$LN7@StartKerne:

; 441  : 	}
; 442  : 
; 443  : 	//数据协调
; 444  : 	if (m_DBCorrespondManager.StartService()==false)

  001c2	8b 4d fc	 mov	 ecx, DWORD PTR _this$[ebp]
  001c5	81 c1 b8 f7 02
	00		 add	 ecx, 194488		; 0002f7b8H
  001cb	8b 45 fc	 mov	 eax, DWORD PTR _this$[ebp]
  001ce	8b 90 b8 f7 02
	00		 mov	 edx, DWORD PTR [eax+194488]
  001d4	8b 42 08	 mov	 eax, DWORD PTR [edx+8]
  001d7	ff d0		 call	 eax
  001d9	0f b6 c8	 movzx	 ecx, al
  001dc	85 c9		 test	 ecx, ecx
  001de	75 21		 jne	 SHORT $LN8@StartKerne

; 445  : 	{
; 446  : 		ASSERT(FALSE);

  001e0	33 c0		 xor	 eax, eax
  001e2	75 19		 jne	 SHORT $LN18@StartKerne
  001e4	8b 0d 00 00 00
	00		 mov	 ecx, DWORD PTR ?__LINE__Var@?0??StartKernelService@CServiceUnits@@IAE_NXZ@4JA
  001ea	83 c1 2e	 add	 ecx, 46			; 0000002eH
  001ed	51		 push	 ecx
  001ee	68 00 00 00 00	 push	 OFFSET ??_C@_0EL@IDOGNJLC@g?3?2?M?x?$LK?$PM?2happygamewh?2?$LH?$PO?N?q?$LG?K?2?O?$LF?M?$LD@
  001f3	e8 00 00 00 00	 call	 ?AfxAssertFailedLine@@YGHPBDH@Z ; AfxAssertFailedLine
  001f8	85 c0		 test	 eax, eax
  001fa	74 01		 je	 SHORT $LN18@StartKerne
  001fc	cc		 int	 3
$LN18@StartKerne:

; 447  : 		return false;

  001fd	32 c0		 xor	 al, al
  001ff	eb 5a		 jmp	 SHORT $LN1@StartKerne
$LN8@StartKerne:

; 448  : 	}
; 449  : 
; 450  : 	//启动比赛
; 451  : 	if (m_MatchServiceManager.GetInterface()!=NULL) 

  00201	8b 4d fc	 mov	 ecx, DWORD PTR _this$[ebp]
  00204	81 c1 d8 06 03
	00		 add	 ecx, 198360		; 000306d8H
  0020a	e8 00 00 00 00	 call	 ?GetInterface@?$CTempldateHelper@UIMatchServiceManager@@@@QBEPAUIMatchServiceManager@@XZ ; CTempldateHelper<IMatchServiceManager>::GetInterface
  0020f	85 c0		 test	 eax, eax
  00211	74 46		 je	 SHORT $LN9@StartKerne

; 452  : 	{
; 453  : 		 if(m_MatchServiceManager->StartService()==false)

  00213	8b 4d fc	 mov	 ecx, DWORD PTR _this$[ebp]
  00216	81 c1 d8 06 03
	00		 add	 ecx, 198360		; 000306d8H
  0021c	e8 00 00 00 00	 call	 ??C?$CTempldateHelper@UIMatchServiceManager@@@@QBEPAUIMatchServiceManager@@XZ ; CTempldateHelper<IMatchServiceManager>::operator->
  00221	89 45 b8	 mov	 DWORD PTR tv281[ebp], eax
  00224	8b 45 b8	 mov	 eax, DWORD PTR tv281[ebp]
  00227	8b 10		 mov	 edx, DWORD PTR [eax]
  00229	8b 4d b8	 mov	 ecx, DWORD PTR tv281[ebp]
  0022c	8b 42 0c	 mov	 eax, DWORD PTR [edx+12]
  0022f	ff d0		 call	 eax
  00231	0f b6 c8	 movzx	 ecx, al
  00234	85 c9		 test	 ecx, ecx
  00236	75 21		 jne	 SHORT $LN9@StartKerne

; 454  : 		 {
; 455  : 			 ASSERT(FALSE);

  00238	33 c0		 xor	 eax, eax
  0023a	75 19		 jne	 SHORT $LN19@StartKerne
  0023c	8b 0d 00 00 00
	00		 mov	 ecx, DWORD PTR ?__LINE__Var@?0??StartKernelService@CServiceUnits@@IAE_NXZ@4JA
  00242	83 c1 37	 add	 ecx, 55			; 00000037H
  00245	51		 push	 ecx
  00246	68 00 00 00 00	 push	 OFFSET ??_C@_0EL@IDOGNJLC@g?3?2?M?x?$LK?$PM?2happygamewh?2?$LH?$PO?N?q?$LG?K?2?O?$LF?M?$LD@
  0024b	e8 00 00 00 00	 call	 ?AfxAssertFailedLine@@YGHPBDH@Z ; AfxAssertFailedLine
  00250	85 c0		 test	 eax, eax
  00252	74 01		 je	 SHORT $LN19@StartKerne
  00254	cc		 int	 3
$LN19@StartKerne:

; 456  : 			return false;

  00255	32 c0		 xor	 al, al
  00257	eb 02		 jmp	 SHORT $LN1@StartKerne
$LN9@StartKerne:

; 457  : 		 }
; 458  : 	}
; 459  : 
; 460  : 	return true;

  00259	b0 01		 mov	 al, 1
$LN1@StartKerne:

; 461  : }

  0025b	5f		 pop	 edi
  0025c	5e		 pop	 esi
  0025d	5b		 pop	 ebx
  0025e	8b e5		 mov	 esp, ebp
  00260	5d		 pop	 ebp
  00261	c3		 ret	 0
?StartKernelService@CServiceUnits@@IAE_NXZ ENDP		; CServiceUnits::StartKernelService
_TEXT	ENDS
; Function compile flags: /Odtp /ZI
; File g:\网狐\happygamewh\服务端\系统模块\服务器组件\游戏服务器\serviceunits.cpp
;	COMDAT ?InitializeService@CServiceUnits@@IAE_NXZ
_TEXT	SEGMENT
tv271 = -156						; size = 4
tv711 = -152						; size = 4
tv686 = -152						; size = 4
tv636 = -152						; size = 4
tv459 = -152						; size = 4
tv434 = -152						; size = 4
tv394 = -152						; size = 4
tv379 = -152						; size = 4
tv364 = -152						; size = 4
tv349 = -152						; size = 4
tv334 = -152						; size = 4
tv319 = -152						; size = 4
tv304 = -152						; size = 4
tv292 = -152						; size = 4
tv277 = -152						; size = 4
tv243 = -152						; size = 4
tv227 = -152						; size = 4
tv212 = -152						; size = 4
_i$1 = -84						; size = 4
_i$2 = -80						; size = 4
_dwTimeCell$3 = -76					; size = 4
_pIGameServiceSustomTime$ = -72				; size = 4
_i$4 = -68						; size = 2
_i$5 = -64						; size = 2
_pIDataBaseEngineKernelSink$ = -60			; size = 16
_pIDataBaseEngineRecordSink$ = -44			; size = 16
_pIAttemperEngineSink$ = -28				; size = 4
_pITCPNetworkEngine$ = -24				; size = 4
_pIAttemperEngine$ = -20				; size = 4
_pszDataBaseName$ = -16					; size = 4
_pszDataBaseAddr$ = -12					; size = 4
_this$ = -8						; size = 4
__$ArrayPad$ = -4					; size = 4
?InitializeService@CServiceUnits@@IAE_NXZ PROC		; CServiceUnits::InitializeService, COMDAT
; _this$ = ecx

; 269  : {

  00000	55		 push	 ebp
  00001	8b ec		 mov	 ebp, esp
  00003	81 ec 9c 00 00
	00		 sub	 esp, 156		; 0000009cH
  00009	a1 00 00 00 00	 mov	 eax, DWORD PTR ___security_cookie
  0000e	33 c5		 xor	 eax, ebp
  00010	89 45 fc	 mov	 DWORD PTR __$ArrayPad$[ebp], eax
  00013	53		 push	 ebx
  00014	56		 push	 esi
  00015	57		 push	 edi
  00016	89 4d f8	 mov	 DWORD PTR _this$[ebp], ecx

; 270  : 	//设置参数
; 271  : 	m_InitParameter.SetServerParameter(&m_GameServiceAttrib,&m_GameServiceOption);

  00019	8b 45 f8	 mov	 eax, DWORD PTR _this$[ebp]
  0001c	05 60 03 00 00	 add	 eax, 864		; 00000360H
  00021	50		 push	 eax
  00022	8b 4d f8	 mov	 ecx, DWORD PTR _this$[ebp]
  00025	81 c1 cc 02 00
	00		 add	 ecx, 716		; 000002ccH
  0002b	51		 push	 ecx
  0002c	8b 4d f8	 mov	 ecx, DWORD PTR _this$[ebp]
  0002f	81 c1 80 00 00
	00		 add	 ecx, 128		; 00000080H
  00035	e8 00 00 00 00	 call	 ?SetServerParameter@CInitParameter@@QAEXPAUtagGameServiceAttrib@@PAUtagGameServiceOption@@@Z ; CInitParameter::SetServerParameter

; 272  : 
; 273  : 	//加载参数
; 274  : 	m_InitParameter.LoadInitParameter();

  0003a	8b 4d f8	 mov	 ecx, DWORD PTR _this$[ebp]
  0003d	81 c1 80 00 00
	00		 add	 ecx, 128		; 00000080H
  00043	e8 00 00 00 00	 call	 ?LoadInitParameter@CInitParameter@@QAEXXZ ; CInitParameter::LoadInitParameter

; 275  : 
; 276  : 	//配置参数
; 277  : 	m_GameParameter.dwMedalRate=1L;

  00048	8b 45 f8	 mov	 eax, DWORD PTR _this$[ebp]
  0004b	c7 80 20 02 00
	00 01 00 00 00	 mov	 DWORD PTR [eax+544], 1

; 278  : 	m_GameParameter.dwRevenueRate=1L;

  00055	8b 45 f8	 mov	 eax, DWORD PTR _this$[ebp]
  00058	c7 80 24 02 00
	00 01 00 00 00	 mov	 DWORD PTR [eax+548], 1

; 279  : 	m_GameParameter.dwExchangeRate=100L;

  00062	8b 45 f8	 mov	 eax, DWORD PTR _this$[ebp]
  00065	c7 80 28 02 00
	00 64 00 00 00	 mov	 DWORD PTR [eax+552], 100 ; 00000064H

; 280  : 
; 281  : 	//连接信息
; 282  : 	LPCTSTR pszDataBaseAddr=m_GameServiceOption.szDataBaseAddr;

  0006f	8b 45 f8	 mov	 eax, DWORD PTR _this$[ebp]
  00072	05 fc 03 00 00	 add	 eax, 1020		; 000003fcH
  00077	89 45 f4	 mov	 DWORD PTR _pszDataBaseAddr$[ebp], eax

; 283  : 	LPCTSTR pszDataBaseName=m_GameServiceOption.szDataBaseName;

  0007a	8b 45 f8	 mov	 eax, DWORD PTR _this$[ebp]
  0007d	05 0c 04 00 00	 add	 eax, 1036		; 0000040cH
  00082	89 45 f0	 mov	 DWORD PTR _pszDataBaseName$[ebp], eax

; 284  : 	if (LoadDataBaseParameter(pszDataBaseAddr,pszDataBaseName,m_DataBaseParameter)==false) return false;

  00085	8b 45 f8	 mov	 eax, DWORD PTR _this$[ebp]
  00088	05 48 02 00 00	 add	 eax, 584		; 00000248H
  0008d	50		 push	 eax
  0008e	8b 4d f0	 mov	 ecx, DWORD PTR _pszDataBaseName$[ebp]
  00091	51		 push	 ecx
  00092	8b 55 f4	 mov	 edx, DWORD PTR _pszDataBaseAddr$[ebp]
  00095	52		 push	 edx
  00096	8b 4d f8	 mov	 ecx, DWORD PTR _this$[ebp]
  00099	e8 00 00 00 00	 call	 ?LoadDataBaseParameter@CServiceUnits@@QAE_NPBD0AAUtagDataBaseParameter@@@Z ; CServiceUnits::LoadDataBaseParameter
  0009e	0f b6 c0	 movzx	 eax, al
  000a1	85 c0		 test	 eax, eax
  000a3	75 07		 jne	 SHORT $LN14@Initialize
  000a5	32 c0		 xor	 al, al
  000a7	e9 a6 08 00 00	 jmp	 $LN1@Initialize
$LN14@Initialize:

; 285  : 
; 286  : 	//组件接口
; 287  : 	IUnknownEx * pIAttemperEngine=m_AttemperEngine.GetInterface();

  000ac	8b 4d f8	 mov	 ecx, DWORD PTR _this$[ebp]
  000af	81 c1 a0 fd 02
	00		 add	 ecx, 196000		; 0002fda0H
  000b5	e8 00 00 00 00	 call	 ?GetInterface@?$CTempldateHelper@UIAttemperEngine@@@@QBEPAUIAttemperEngine@@XZ ; CTempldateHelper<IAttemperEngine>::GetInterface
  000ba	89 45 ec	 mov	 DWORD PTR _pIAttemperEngine$[ebp], eax

; 288  : 	IUnknownEx * pITCPNetworkEngine=m_TCPNetworkEngine.GetInterface();

  000bd	8b 4d f8	 mov	 ecx, DWORD PTR _this$[ebp]
  000c0	81 c1 78 ff 02
	00		 add	 ecx, 196472		; 0002ff78H
  000c6	e8 00 00 00 00	 call	 ?GetInterface@?$CTempldateHelper@UITCPNetworkEngine@@@@QBEPAUITCPNetworkEngine@@XZ ; CTempldateHelper<ITCPNetworkEngine>::GetInterface
  000cb	89 45 e8	 mov	 DWORD PTR _pITCPNetworkEngine$[ebp], eax

; 289  : 	IUnknownEx * pIAttemperEngineSink=QUERY_OBJECT_INTERFACE(m_AttemperEngineSink,IUnknownEx);

  000ce	68 00 01 01 06	 push	 100729088		; 06010100H
  000d3	68 00 00 00 00	 push	 OFFSET ?IID_IUnknownEx@@3U_GUID@@B
  000d8	8b 4d f8	 mov	 ecx, DWORD PTR _this$[ebp]
  000db	81 c1 60 0f 00
	00		 add	 ecx, 3936		; 00000f60H
  000e1	8b 45 f8	 mov	 eax, DWORD PTR _this$[ebp]
  000e4	8b 90 60 0f 00
	00		 mov	 edx, DWORD PTR [eax+3936]
  000ea	8b 42 04	 mov	 eax, DWORD PTR [edx+4]
  000ed	ff d0		 call	 eax
  000ef	89 45 e4	 mov	 DWORD PTR _pIAttemperEngineSink$[ebp], eax

; 290  : 
; 291  : 	//数据引擎
; 292  : 	IUnknownEx * pIDataBaseEngineRecordSink[CountArray(m_RecordDataBaseSink)];
; 293  : 	IUnknownEx * pIDataBaseEngineKernelSink[CountArray(m_KernelDataBaseSink)];
; 294  : 	for (WORD i=0;i<CountArray(pIDataBaseEngineRecordSink);i++) pIDataBaseEngineRecordSink[i]=QUERY_OBJECT_INTERFACE(m_RecordDataBaseSink[i],IUnknownEx);

  000f2	33 c0		 xor	 eax, eax
  000f4	66 89 45 c0	 mov	 WORD PTR _i$5[ebp], ax
  000f8	eb 0c		 jmp	 SHORT $LN4@Initialize
$LN2@Initialize:
  000fa	66 8b 45 c0	 mov	 ax, WORD PTR _i$5[ebp]
  000fe	66 83 c0 01	 add	 ax, 1
  00102	66 89 45 c0	 mov	 WORD PTR _i$5[ebp], ax
$LN4@Initialize:
  00106	0f b7 45 c0	 movzx	 eax, WORD PTR _i$5[ebp]
  0010a	83 f8 04	 cmp	 eax, 4
  0010d	73 43		 jae	 SHORT $LN3@Initialize
  0010f	68 00 01 01 06	 push	 100729088		; 06010100H
  00114	68 00 00 00 00	 push	 OFFSET ?IID_IUnknownEx@@3U_GUID@@B
  00119	0f b7 45 c0	 movzx	 eax, WORD PTR _i$5[ebp]
  0011d	69 c8 10 15 00
	00		 imul	 ecx, eax, 5392
  00123	0f b7 55 c0	 movzx	 edx, WORD PTR _i$5[ebp]
  00127	69 c2 10 15 00
	00		 imul	 eax, edx, 5392
  0012d	8b 55 f8	 mov	 edx, DWORD PTR _this$[ebp]
  00130	8d 84 02 38 4f
	02 00		 lea	 eax, DWORD PTR [edx+eax+151352]
  00137	8b 55 f8	 mov	 edx, DWORD PTR _this$[ebp]
  0013a	8b 94 0a 38 4f
	02 00		 mov	 edx, DWORD PTR [edx+ecx+151352]
  00141	8b c8		 mov	 ecx, eax
  00143	8b 42 04	 mov	 eax, DWORD PTR [edx+4]
  00146	ff d0		 call	 eax
  00148	0f b7 4d c0	 movzx	 ecx, WORD PTR _i$5[ebp]
  0014c	89 44 8d d4	 mov	 DWORD PTR _pIDataBaseEngineRecordSink$[ebp+ecx*4], eax
  00150	eb a8		 jmp	 SHORT $LN2@Initialize
$LN3@Initialize:

; 295  : 	for (WORD i=0;i<CountArray(pIDataBaseEngineKernelSink);i++) pIDataBaseEngineKernelSink[i]=QUERY_OBJECT_INTERFACE(m_KernelDataBaseSink[i],IUnknownEx);

  00152	33 c0		 xor	 eax, eax
  00154	66 89 45 bc	 mov	 WORD PTR _i$4[ebp], ax
  00158	eb 0c		 jmp	 SHORT $LN7@Initialize
$LN5@Initialize:
  0015a	66 8b 45 bc	 mov	 ax, WORD PTR _i$4[ebp]
  0015e	66 83 c0 01	 add	 ax, 1
  00162	66 89 45 bc	 mov	 WORD PTR _i$4[ebp], ax
$LN7@Initialize:
  00166	0f b7 45 bc	 movzx	 eax, WORD PTR _i$4[ebp]
  0016a	83 f8 04	 cmp	 eax, 4
  0016d	73 43		 jae	 SHORT $LN6@Initialize
  0016f	68 00 01 01 06	 push	 100729088		; 06010100H
  00174	68 00 00 00 00	 push	 OFFSET ?IID_IUnknownEx@@3U_GUID@@B
  00179	0f b7 45 bc	 movzx	 eax, WORD PTR _i$4[ebp]
  0017d	69 c8 10 15 00
	00		 imul	 ecx, eax, 5392
  00183	0f b7 55 bc	 movzx	 edx, WORD PTR _i$4[ebp]
  00187	69 c2 10 15 00
	00		 imul	 eax, edx, 5392
  0018d	8b 55 f8	 mov	 edx, DWORD PTR _this$[ebp]
  00190	8d 84 02 78 a3
	02 00		 lea	 eax, DWORD PTR [edx+eax+172920]
  00197	8b 55 f8	 mov	 edx, DWORD PTR _this$[ebp]
  0019a	8b 94 0a 78 a3
	02 00		 mov	 edx, DWORD PTR [edx+ecx+172920]
  001a1	8b c8		 mov	 ecx, eax
  001a3	8b 42 04	 mov	 eax, DWORD PTR [edx+4]
  001a6	ff d0		 call	 eax
  001a8	0f b7 4d bc	 movzx	 ecx, WORD PTR _i$4[ebp]
  001ac	89 44 8d c4	 mov	 DWORD PTR _pIDataBaseEngineKernelSink$[ebp+ecx*4], eax
  001b0	eb a8		 jmp	 SHORT $LN5@Initialize
$LN6@Initialize:

; 296  : 
; 297  : 	//绑定接口
; 298  : 	if (m_AttemperEngine->SetAttemperEngineSink(pIAttemperEngineSink)==false) return false;

  001b2	8b 4d f8	 mov	 ecx, DWORD PTR _this$[ebp]
  001b5	81 c1 a0 fd 02
	00		 add	 ecx, 196000		; 0002fda0H
  001bb	e8 00 00 00 00	 call	 ??C?$CTempldateHelper@UIAttemperEngine@@@@QBEPAUIAttemperEngine@@XZ ; CTempldateHelper<IAttemperEngine>::operator->
  001c0	89 85 68 ff ff
	ff		 mov	 DWORD PTR tv212[ebp], eax
  001c6	8b 45 e4	 mov	 eax, DWORD PTR _pIAttemperEngineSink$[ebp]
  001c9	50		 push	 eax
  001ca	8b 8d 68 ff ff
	ff		 mov	 ecx, DWORD PTR tv212[ebp]
  001d0	8b 11		 mov	 edx, DWORD PTR [ecx]
  001d2	8b 8d 68 ff ff
	ff		 mov	 ecx, DWORD PTR tv212[ebp]
  001d8	8b 42 14	 mov	 eax, DWORD PTR [edx+20]
  001db	ff d0		 call	 eax
  001dd	0f b6 c8	 movzx	 ecx, al
  001e0	85 c9		 test	 ecx, ecx
  001e2	75 07		 jne	 SHORT $LN15@Initialize
  001e4	32 c0		 xor	 al, al
  001e6	e9 67 07 00 00	 jmp	 $LN1@Initialize
$LN15@Initialize:

; 299  : 	if (m_RecordDataBaseEngine->SetDataBaseEngineSink(pIDataBaseEngineRecordSink,CountArray(pIDataBaseEngineRecordSink))==false) return false;

  001eb	8b 4d f8	 mov	 ecx, DWORD PTR _this$[ebp]
  001ee	81 c1 18 f8 02
	00		 add	 ecx, 194584		; 0002f818H
  001f4	e8 00 00 00 00	 call	 ??C?$CTempldateHelper@UIDataBaseEngine@@@@QBEPAUIDataBaseEngine@@XZ ; CTempldateHelper<IDataBaseEngine>::operator->
  001f9	89 85 68 ff ff
	ff		 mov	 DWORD PTR tv227[ebp], eax
  001ff	6a 04		 push	 4
  00201	8d 45 d4	 lea	 eax, DWORD PTR _pIDataBaseEngineRecordSink$[ebp]
  00204	50		 push	 eax
  00205	8b 8d 68 ff ff
	ff		 mov	 ecx, DWORD PTR tv227[ebp]
  0020b	8b 11		 mov	 edx, DWORD PTR [ecx]
  0020d	8b 8d 68 ff ff
	ff		 mov	 ecx, DWORD PTR tv227[ebp]
  00213	8b 42 14	 mov	 eax, DWORD PTR [edx+20]
  00216	ff d0		 call	 eax
  00218	0f b6 c8	 movzx	 ecx, al
  0021b	85 c9		 test	 ecx, ecx
  0021d	75 07		 jne	 SHORT $LN16@Initialize
  0021f	32 c0		 xor	 al, al
  00221	e9 2c 07 00 00	 jmp	 $LN1@Initialize
$LN16@Initialize:

; 300  : 	if (m_KernelDataBaseEngine->SetDataBaseEngineSink(pIDataBaseEngineKernelSink,CountArray(pIDataBaseEngineKernelSink))==false) return false;

  00226	8b 4d f8	 mov	 ecx, DWORD PTR _this$[ebp]
  00229	81 c1 f0 f9 02
	00		 add	 ecx, 195056		; 0002f9f0H
  0022f	e8 00 00 00 00	 call	 ??C?$CTempldateHelper@UIDataBaseEngine@@@@QBEPAUIDataBaseEngine@@XZ ; CTempldateHelper<IDataBaseEngine>::operator->
  00234	89 85 68 ff ff
	ff		 mov	 DWORD PTR tv243[ebp], eax
  0023a	6a 04		 push	 4
  0023c	8d 45 c4	 lea	 eax, DWORD PTR _pIDataBaseEngineKernelSink$[ebp]
  0023f	50		 push	 eax
  00240	8b 8d 68 ff ff
	ff		 mov	 ecx, DWORD PTR tv243[ebp]
  00246	8b 11		 mov	 edx, DWORD PTR [ecx]
  00248	8b 8d 68 ff ff
	ff		 mov	 ecx, DWORD PTR tv243[ebp]
  0024e	8b 42 14	 mov	 eax, DWORD PTR [edx+20]
  00251	ff d0		 call	 eax
  00253	0f b6 c8	 movzx	 ecx, al
  00256	85 c9		 test	 ecx, ecx
  00258	75 07		 jne	 SHORT $LN17@Initialize
  0025a	32 c0		 xor	 al, al
  0025c	e9 f1 06 00 00	 jmp	 $LN1@Initialize
$LN17@Initialize:

; 301  : 
; 302  : 	//查询接口
; 303  : 	IGameServiceCustomTime * pIGameServiceSustomTime=QUERY_OBJECT_PTR_INTERFACE(m_GameServiceManager.GetInterface(),IGameServiceCustomTime);

  00261	8b 4d f8	 mov	 ecx, DWORD PTR _this$[ebp]
  00264	81 c1 00 05 03
	00		 add	 ecx, 197888		; 00030500H
  0026a	e8 00 00 00 00	 call	 ?GetInterface@?$CTempldateHelper@UIGameServiceManager@@@@QBEPAUIGameServiceManager@@XZ ; CTempldateHelper<IGameServiceManager>::GetInterface
  0026f	85 c0		 test	 eax, eax
  00271	75 0c		 jne	 SHORT $LN32@Initialize
  00273	c7 85 68 ff ff
	ff 00 00 00 00	 mov	 DWORD PTR tv277[ebp], 0
  0027d	eb 37		 jmp	 SHORT $LN33@Initialize
$LN32@Initialize:
  0027f	8b 4d f8	 mov	 ecx, DWORD PTR _this$[ebp]
  00282	81 c1 00 05 03
	00		 add	 ecx, 197888		; 00030500H
  00288	e8 00 00 00 00	 call	 ?GetInterface@?$CTempldateHelper@UIGameServiceManager@@@@QBEPAUIGameServiceManager@@XZ ; CTempldateHelper<IGameServiceManager>::GetInterface
  0028d	89 85 64 ff ff
	ff		 mov	 DWORD PTR tv271[ebp], eax
  00293	68 00 01 01 06	 push	 100729088		; 06010100H
  00298	68 00 00 00 00	 push	 OFFSET ?IID_IGameServiceCustomTime@@3U_GUID@@B
  0029d	8b 85 64 ff ff
	ff		 mov	 eax, DWORD PTR tv271[ebp]
  002a3	8b 10		 mov	 edx, DWORD PTR [eax]
  002a5	8b 8d 64 ff ff
	ff		 mov	 ecx, DWORD PTR tv271[ebp]
  002ab	8b 42 04	 mov	 eax, DWORD PTR [edx+4]
  002ae	ff d0		 call	 eax
  002b0	89 85 68 ff ff
	ff		 mov	 DWORD PTR tv277[ebp], eax
$LN33@Initialize:
  002b6	8b 8d 68 ff ff
	ff		 mov	 ecx, DWORD PTR tv277[ebp]
  002bc	89 4d b8	 mov	 DWORD PTR _pIGameServiceSustomTime$[ebp], ecx

; 304  : 
; 305  : 	//时间引擎
; 306  : 	if (pIGameServiceSustomTime!=NULL)

  002bf	83 7d b8 00	 cmp	 DWORD PTR _pIGameServiceSustomTime$[ebp], 0
  002c3	74 51		 je	 SHORT $LN18@Initialize

; 307  : 	{
; 308  : 		//单元时间
; 309  : 		DWORD dwTimeCell=dwTimeCell=pIGameServiceSustomTime->GetTimerEngineTimeCell();

  002c5	8b 45 b8	 mov	 eax, DWORD PTR _pIGameServiceSustomTime$[ebp]
  002c8	8b 10		 mov	 edx, DWORD PTR [eax]
  002ca	8b 4d b8	 mov	 ecx, DWORD PTR _pIGameServiceSustomTime$[ebp]
  002cd	8b 42 10	 mov	 eax, DWORD PTR [edx+16]
  002d0	ff d0		 call	 eax
  002d2	89 45 b4	 mov	 DWORD PTR _dwTimeCell$3[ebp], eax
  002d5	8b 4d b4	 mov	 ecx, DWORD PTR _dwTimeCell$3[ebp]
  002d8	89 4d b4	 mov	 DWORD PTR _dwTimeCell$3[ebp], ecx

; 310  : 		if (dwTimeCell>TIME_CELL) dwTimeCell=TIME_CELL;

  002db	81 7d b4 c8 00
	00 00		 cmp	 DWORD PTR _dwTimeCell$3[ebp], 200 ; 000000c8H
  002e2	76 07		 jbe	 SHORT $LN19@Initialize
  002e4	c7 45 b4 c8 00
	00 00		 mov	 DWORD PTR _dwTimeCell$3[ebp], 200 ; 000000c8H
$LN19@Initialize:

; 311  : 
; 312  : 		//设置时间
; 313  : 		m_TimerEngine->SetTimeCell(dwTimeCell);

  002eb	8b 4d f8	 mov	 ecx, DWORD PTR _this$[ebp]
  002ee	81 c1 c8 fb 02
	00		 add	 ecx, 195528		; 0002fbc8H
  002f4	e8 00 00 00 00	 call	 ??C?$CTempldateHelper@UITimerEngine@@@@QBEPAUITimerEngine@@XZ ; CTempldateHelper<ITimerEngine>::operator->
  002f9	89 85 68 ff ff
	ff		 mov	 DWORD PTR tv292[ebp], eax
  002ff	8b 45 b4	 mov	 eax, DWORD PTR _dwTimeCell$3[ebp]
  00302	50		 push	 eax
  00303	8b 8d 68 ff ff
	ff		 mov	 ecx, DWORD PTR tv292[ebp]
  00309	8b 11		 mov	 edx, DWORD PTR [ecx]
  0030b	8b 8d 68 ff ff
	ff		 mov	 ecx, DWORD PTR tv292[ebp]
  00311	8b 42 10	 mov	 eax, DWORD PTR [edx+16]
  00314	ff d0		 call	 eax
$LN18@Initialize:

; 314  : 	}
; 315  : 
; 316  : 	//内核组件
; 317  : 	if (m_TimerEngine->SetTimerEngineEvent(pIAttemperEngine)==false) return false;

  00316	8b 4d f8	 mov	 ecx, DWORD PTR _this$[ebp]
  00319	81 c1 c8 fb 02
	00		 add	 ecx, 195528		; 0002fbc8H
  0031f	e8 00 00 00 00	 call	 ??C?$CTempldateHelper@UITimerEngine@@@@QBEPAUITimerEngine@@XZ ; CTempldateHelper<ITimerEngine>::operator->
  00324	89 85 68 ff ff
	ff		 mov	 DWORD PTR tv304[ebp], eax
  0032a	8b 45 ec	 mov	 eax, DWORD PTR _pIAttemperEngine$[ebp]
  0032d	50		 push	 eax
  0032e	8b 8d 68 ff ff
	ff		 mov	 ecx, DWORD PTR tv304[ebp]
  00334	8b 11		 mov	 edx, DWORD PTR [ecx]
  00336	8b 8d 68 ff ff
	ff		 mov	 ecx, DWORD PTR tv304[ebp]
  0033c	8b 42 14	 mov	 eax, DWORD PTR [edx+20]
  0033f	ff d0		 call	 eax
  00341	0f b6 c8	 movzx	 ecx, al
  00344	85 c9		 test	 ecx, ecx
  00346	75 07		 jne	 SHORT $LN20@Initialize
  00348	32 c0		 xor	 al, al
  0034a	e9 03 06 00 00	 jmp	 $LN1@Initialize
$LN20@Initialize:

; 318  : 	if (m_AttemperEngine->SetNetworkEngine(pITCPNetworkEngine)==false) return false;

  0034f	8b 4d f8	 mov	 ecx, DWORD PTR _this$[ebp]
  00352	81 c1 a0 fd 02
	00		 add	 ecx, 196000		; 0002fda0H
  00358	e8 00 00 00 00	 call	 ??C?$CTempldateHelper@UIAttemperEngine@@@@QBEPAUIAttemperEngine@@XZ ; CTempldateHelper<IAttemperEngine>::operator->
  0035d	89 85 68 ff ff
	ff		 mov	 DWORD PTR tv319[ebp], eax
  00363	8b 45 e8	 mov	 eax, DWORD PTR _pITCPNetworkEngine$[ebp]
  00366	50		 push	 eax
  00367	8b 8d 68 ff ff
	ff		 mov	 ecx, DWORD PTR tv319[ebp]
  0036d	8b 11		 mov	 edx, DWORD PTR [ecx]
  0036f	8b 8d 68 ff ff
	ff		 mov	 ecx, DWORD PTR tv319[ebp]
  00375	8b 42 10	 mov	 eax, DWORD PTR [edx+16]
  00378	ff d0		 call	 eax
  0037a	0f b6 c8	 movzx	 ecx, al
  0037d	85 c9		 test	 ecx, ecx
  0037f	75 07		 jne	 SHORT $LN21@Initialize
  00381	32 c0		 xor	 al, al
  00383	e9 ca 05 00 00	 jmp	 $LN1@Initialize
$LN21@Initialize:

; 319  : 	if (m_TCPNetworkEngine->SetTCPNetworkEngineEvent(pIAttemperEngine)==false) return false;

  00388	8b 4d f8	 mov	 ecx, DWORD PTR _this$[ebp]
  0038b	81 c1 78 ff 02
	00		 add	 ecx, 196472		; 0002ff78H
  00391	e8 00 00 00 00	 call	 ??C?$CTempldateHelper@UITCPNetworkEngine@@@@QBEPAUITCPNetworkEngine@@XZ ; CTempldateHelper<ITCPNetworkEngine>::operator->
  00396	89 85 68 ff ff
	ff		 mov	 DWORD PTR tv334[ebp], eax
  0039c	8b 45 ec	 mov	 eax, DWORD PTR _pIAttemperEngine$[ebp]
  0039f	50		 push	 eax
  003a0	8b 8d 68 ff ff
	ff		 mov	 ecx, DWORD PTR tv334[ebp]
  003a6	8b 11		 mov	 edx, DWORD PTR [ecx]
  003a8	8b 8d 68 ff ff
	ff		 mov	 ecx, DWORD PTR tv334[ebp]
  003ae	8b 42 18	 mov	 eax, DWORD PTR [edx+24]
  003b1	ff d0		 call	 eax
  003b3	0f b6 c8	 movzx	 ecx, al
  003b6	85 c9		 test	 ecx, ecx
  003b8	75 07		 jne	 SHORT $LN22@Initialize
  003ba	32 c0		 xor	 al, al
  003bc	e9 91 05 00 00	 jmp	 $LN1@Initialize
$LN22@Initialize:

; 320  : 	
; 321  : 	//协调服务
; 322  : 	if (m_TCPSocketService->SetServiceID(NETWORK_CORRESPOND)==false) return false;

  003c1	8b 4d f8	 mov	 ecx, DWORD PTR _this$[ebp]
  003c4	81 c1 50 01 03
	00		 add	 ecx, 196944		; 00030150H
  003ca	e8 00 00 00 00	 call	 ??C?$CTempldateHelper@UITCPSocketService@@@@QBEPAUITCPSocketService@@XZ ; CTempldateHelper<ITCPSocketService>::operator->
  003cf	89 85 68 ff ff
	ff		 mov	 DWORD PTR tv349[ebp], eax
  003d5	6a 01		 push	 1
  003d7	8b 85 68 ff ff
	ff		 mov	 eax, DWORD PTR tv349[ebp]
  003dd	8b 10		 mov	 edx, DWORD PTR [eax]
  003df	8b 8d 68 ff ff
	ff		 mov	 ecx, DWORD PTR tv349[ebp]
  003e5	8b 42 10	 mov	 eax, DWORD PTR [edx+16]
  003e8	ff d0		 call	 eax
  003ea	0f b6 c8	 movzx	 ecx, al
  003ed	85 c9		 test	 ecx, ecx
  003ef	75 07		 jne	 SHORT $LN23@Initialize
  003f1	32 c0		 xor	 al, al
  003f3	e9 5a 05 00 00	 jmp	 $LN1@Initialize
$LN23@Initialize:

; 323  : 	if (m_TCPSocketService->SetTCPSocketEvent(pIAttemperEngine)==false) return false;

  003f8	8b 4d f8	 mov	 ecx, DWORD PTR _this$[ebp]
  003fb	81 c1 50 01 03
	00		 add	 ecx, 196944		; 00030150H
  00401	e8 00 00 00 00	 call	 ??C?$CTempldateHelper@UITCPSocketService@@@@QBEPAUITCPSocketService@@XZ ; CTempldateHelper<ITCPSocketService>::operator->
  00406	89 85 68 ff ff
	ff		 mov	 DWORD PTR tv364[ebp], eax
  0040c	8b 45 ec	 mov	 eax, DWORD PTR _pIAttemperEngine$[ebp]
  0040f	50		 push	 eax
  00410	8b 8d 68 ff ff
	ff		 mov	 ecx, DWORD PTR tv364[ebp]
  00416	8b 11		 mov	 edx, DWORD PTR [ecx]
  00418	8b 8d 68 ff ff
	ff		 mov	 ecx, DWORD PTR tv364[ebp]
  0041e	8b 42 14	 mov	 eax, DWORD PTR [edx+20]
  00421	ff d0		 call	 eax
  00423	0f b6 c8	 movzx	 ecx, al
  00426	85 c9		 test	 ecx, ecx
  00428	75 07		 jne	 SHORT $LN24@Initialize
  0042a	32 c0		 xor	 al, al
  0042c	e9 21 05 00 00	 jmp	 $LN1@Initialize
$LN24@Initialize:

; 324  : 
; 325  : 
; 326  : 	//约战服务器
; 327  : 	if (m_PrsnlRmTCPSocketService->SetServiceID(NETWORK_PERSONAL_ROOM_CORRESPOND)==false) return false;

  00431	8b 4d f8	 mov	 ecx, DWORD PTR _this$[ebp]
  00434	81 c1 28 03 03
	00		 add	 ecx, 197416		; 00030328H
  0043a	e8 00 00 00 00	 call	 ??C?$CTempldateHelper@UITCPSocketService@@@@QBEPAUITCPSocketService@@XZ ; CTempldateHelper<ITCPSocketService>::operator->
  0043f	89 85 68 ff ff
	ff		 mov	 DWORD PTR tv379[ebp], eax
  00445	6a 02		 push	 2
  00447	8b 85 68 ff ff
	ff		 mov	 eax, DWORD PTR tv379[ebp]
  0044d	8b 10		 mov	 edx, DWORD PTR [eax]
  0044f	8b 8d 68 ff ff
	ff		 mov	 ecx, DWORD PTR tv379[ebp]
  00455	8b 42 10	 mov	 eax, DWORD PTR [edx+16]
  00458	ff d0		 call	 eax
  0045a	0f b6 c8	 movzx	 ecx, al
  0045d	85 c9		 test	 ecx, ecx
  0045f	75 07		 jne	 SHORT $LN25@Initialize
  00461	32 c0		 xor	 al, al
  00463	e9 ea 04 00 00	 jmp	 $LN1@Initialize
$LN25@Initialize:

; 328  : 	if (m_PrsnlRmTCPSocketService->SetTCPSocketEvent(pIAttemperEngine)==false) return false;

  00468	8b 4d f8	 mov	 ecx, DWORD PTR _this$[ebp]
  0046b	81 c1 28 03 03
	00		 add	 ecx, 197416		; 00030328H
  00471	e8 00 00 00 00	 call	 ??C?$CTempldateHelper@UITCPSocketService@@@@QBEPAUITCPSocketService@@XZ ; CTempldateHelper<ITCPSocketService>::operator->
  00476	89 85 68 ff ff
	ff		 mov	 DWORD PTR tv394[ebp], eax
  0047c	8b 45 ec	 mov	 eax, DWORD PTR _pIAttemperEngine$[ebp]
  0047f	50		 push	 eax
  00480	8b 8d 68 ff ff
	ff		 mov	 ecx, DWORD PTR tv394[ebp]
  00486	8b 11		 mov	 edx, DWORD PTR [ecx]
  00488	8b 8d 68 ff ff
	ff		 mov	 ecx, DWORD PTR tv394[ebp]
  0048e	8b 42 14	 mov	 eax, DWORD PTR [edx+20]
  00491	ff d0		 call	 eax
  00493	0f b6 c8	 movzx	 ecx, al
  00496	85 c9		 test	 ecx, ecx
  00498	75 07		 jne	 SHORT $LN26@Initialize
  0049a	32 c0		 xor	 al, al
  0049c	e9 b1 04 00 00	 jmp	 $LN1@Initialize
$LN26@Initialize:

; 329  : 
; 330  : 	//数据协调
; 331  : 	m_DBCorrespondManager.InitDBCorrespondManager(m_KernelDataBaseEngine.GetInterface());

  004a1	8b 4d f8	 mov	 ecx, DWORD PTR _this$[ebp]
  004a4	81 c1 f0 f9 02
	00		 add	 ecx, 195056		; 0002f9f0H
  004aa	e8 00 00 00 00	 call	 ?GetInterface@?$CTempldateHelper@UIDataBaseEngine@@@@QBEPAUIDataBaseEngine@@XZ ; CTempldateHelper<IDataBaseEngine>::GetInterface
  004af	50		 push	 eax
  004b0	8b 45 f8	 mov	 eax, DWORD PTR _this$[ebp]
  004b3	05 b8 f7 02 00	 add	 eax, 194488		; 0002f7b8H
  004b8	8b 4d f8	 mov	 ecx, DWORD PTR _this$[ebp]
  004bb	8b 91 b8 f7 02
	00		 mov	 edx, DWORD PTR [ecx+194488]
  004c1	50		 push	 eax
  004c2	8b 42 10	 mov	 eax, DWORD PTR [edx+16]
  004c5	ff d0		 call	 eax
  004c7	83 c4 08	 add	 esp, 8

; 332  : 
; 333  : 	//创建比赛
; 334  : 	if(m_MatchServiceManager.GetInterface()!=NULL)

  004ca	8b 4d f8	 mov	 ecx, DWORD PTR _this$[ebp]
  004cd	81 c1 d8 06 03
	00		 add	 ecx, 198360		; 000306d8H
  004d3	e8 00 00 00 00	 call	 ?GetInterface@?$CTempldateHelper@UIMatchServiceManager@@@@QBEPAUIMatchServiceManager@@XZ ; CTempldateHelper<IMatchServiceManager>::GetInterface
  004d8	85 c0		 test	 eax, eax
  004da	74 40		 je	 SHORT $LN27@Initialize

; 335  : 	{
; 336  : 		if(m_MatchServiceManager->CreateGameMatch(m_GameMatchOption.cbMatchType)==false) return false;

  004dc	8b 4d f8	 mov	 ecx, DWORD PTR _this$[ebp]
  004df	81 c1 d8 06 03
	00		 add	 ecx, 198360		; 000306d8H
  004e5	e8 00 00 00 00	 call	 ??C?$CTempldateHelper@UIMatchServiceManager@@@@QBEPAUIMatchServiceManager@@XZ ; CTempldateHelper<IMatchServiceManager>::operator->
  004ea	89 85 68 ff ff
	ff		 mov	 DWORD PTR tv434[ebp], eax
  004f0	8b 45 f8	 mov	 eax, DWORD PTR _this$[ebp]
  004f3	0f b6 88 61 0c
	00 00		 movzx	 ecx, BYTE PTR [eax+3169]
  004fa	51		 push	 ecx
  004fb	8b 95 68 ff ff
	ff		 mov	 edx, DWORD PTR tv434[ebp]
  00501	8b 02		 mov	 eax, DWORD PTR [edx]
  00503	8b 8d 68 ff ff
	ff		 mov	 ecx, DWORD PTR tv434[ebp]
  00509	8b 50 10	 mov	 edx, DWORD PTR [eax+16]
  0050c	ff d2		 call	 edx
  0050e	0f b6 c0	 movzx	 eax, al
  00511	85 c0		 test	 eax, eax
  00513	75 07		 jne	 SHORT $LN27@Initialize
  00515	32 c0		 xor	 al, al
  00517	e9 36 04 00 00	 jmp	 $LN1@Initialize
$LN27@Initialize:

; 337  : 	}
; 338  : 
; 339  : 	//创建私人房
; 340  : 	if(m_PersonalRoomServiceManager.GetInterface()!=NULL)

  0051c	8b 4d f8	 mov	 ecx, DWORD PTR _this$[ebp]
  0051f	81 c1 b0 08 03
	00		 add	 ecx, 198832		; 000308b0H
  00525	e8 00 00 00 00	 call	 ?GetInterface@?$CTempldateHelper@UIPersonalRoomServiceManager@@@@QBEPAUIPersonalRoomServiceManager@@XZ ; CTempldateHelper<IPersonalRoomServiceManager>::GetInterface
  0052a	85 c0		 test	 eax, eax
  0052c	74 37		 je	 SHORT $LN29@Initialize

; 341  : 	{
; 342  : 		if(m_PersonalRoomServiceManager->CreatePersonalRoom(0)==false) return false;

  0052e	8b 4d f8	 mov	 ecx, DWORD PTR _this$[ebp]
  00531	81 c1 b0 08 03
	00		 add	 ecx, 198832		; 000308b0H
  00537	e8 00 00 00 00	 call	 ??C?$CTempldateHelper@UIPersonalRoomServiceManager@@@@QBEPAUIPersonalRoomServiceManager@@XZ ; CTempldateHelper<IPersonalRoomServiceManager>::operator->
  0053c	89 85 68 ff ff
	ff		 mov	 DWORD PTR tv459[ebp], eax
  00542	6a 00		 push	 0
  00544	8b 85 68 ff ff
	ff		 mov	 eax, DWORD PTR tv459[ebp]
  0054a	8b 10		 mov	 edx, DWORD PTR [eax]
  0054c	8b 8d 68 ff ff
	ff		 mov	 ecx, DWORD PTR tv459[ebp]
  00552	8b 42 10	 mov	 eax, DWORD PTR [edx+16]
  00555	ff d0		 call	 eax
  00557	0f b6 c8	 movzx	 ecx, al
  0055a	85 c9		 test	 ecx, ecx
  0055c	75 07		 jne	 SHORT $LN29@Initialize
  0055e	32 c0		 xor	 al, al
  00560	e9 ed 03 00 00	 jmp	 $LN1@Initialize
$LN29@Initialize:

; 343  : 	}
; 344  : 
; 345  : 	//调度回调
; 346  : 	m_AttemperEngineSink.m_pInitParameter=&m_InitParameter;

  00565	8b 45 f8	 mov	 eax, DWORD PTR _this$[ebp]
  00568	05 80 00 00 00	 add	 eax, 128		; 00000080H
  0056d	8b 4d f8	 mov	 ecx, DWORD PTR _this$[ebp]
  00570	89 81 80 0f 00
	00		 mov	 DWORD PTR [ecx+3968], eax

; 347  : 	m_AttemperEngineSink.m_pGameParameter=&m_GameParameter;

  00576	8b 45 f8	 mov	 eax, DWORD PTR _this$[ebp]
  00579	05 20 02 00 00	 add	 eax, 544		; 00000220H
  0057e	8b 4d f8	 mov	 ecx, DWORD PTR _this$[ebp]
  00581	89 81 84 0f 00
	00		 mov	 DWORD PTR [ecx+3972], eax

; 348  : 	m_AttemperEngineSink.m_pGameMatchOption=&m_GameMatchOption;

  00587	8b 45 f8	 mov	 eax, DWORD PTR _this$[ebp]
  0058a	05 50 0c 00 00	 add	 eax, 3152		; 00000c50H
  0058f	8b 4d f8	 mov	 ecx, DWORD PTR _this$[ebp]
  00592	89 81 88 0f 00
	00		 mov	 DWORD PTR [ecx+3976], eax

; 349  : 	m_AttemperEngineSink.m_pGameServiceAttrib=&m_GameServiceAttrib;

  00598	8b 45 f8	 mov	 eax, DWORD PTR _this$[ebp]
  0059b	05 cc 02 00 00	 add	 eax, 716		; 000002ccH
  005a0	8b 4d f8	 mov	 ecx, DWORD PTR _this$[ebp]
  005a3	89 81 8c 0f 00
	00		 mov	 DWORD PTR [ecx+3980], eax

; 350  : 	m_AttemperEngineSink.m_pGameServiceOption=&m_GameServiceOption;	

  005a9	8b 45 f8	 mov	 eax, DWORD PTR _this$[ebp]
  005ac	05 60 03 00 00	 add	 eax, 864		; 00000360H
  005b1	8b 4d f8	 mov	 ecx, DWORD PTR _this$[ebp]
  005b4	89 81 90 0f 00
	00		 mov	 DWORD PTR [ecx+3984], eax

; 351  : 
; 352  : 	//调度回调
; 353  : 	m_AttemperEngineSink.m_pITimerEngine=m_TimerEngine.GetInterface();

  005ba	8b 4d f8	 mov	 ecx, DWORD PTR _this$[ebp]
  005bd	81 c1 c8 fb 02
	00		 add	 ecx, 195528		; 0002fbc8H
  005c3	e8 00 00 00 00	 call	 ?GetInterface@?$CTempldateHelper@UITimerEngine@@@@QBEPAUITimerEngine@@XZ ; CTempldateHelper<ITimerEngine>::GetInterface
  005c8	8b 4d f8	 mov	 ecx, DWORD PTR _this$[ebp]
  005cb	89 81 08 4f 02
	00		 mov	 DWORD PTR [ecx+151304], eax

; 354  : 	m_AttemperEngineSink.m_pIAttemperEngine=m_AttemperEngine.GetInterface();

  005d1	8b 4d f8	 mov	 ecx, DWORD PTR _this$[ebp]
  005d4	81 c1 a0 fd 02
	00		 add	 ecx, 196000		; 0002fda0H
  005da	e8 00 00 00 00	 call	 ?GetInterface@?$CTempldateHelper@UIAttemperEngine@@@@QBEPAUIAttemperEngine@@XZ ; CTempldateHelper<IAttemperEngine>::GetInterface
  005df	8b 4d f8	 mov	 ecx, DWORD PTR _this$[ebp]
  005e2	89 81 0c 4f 02
	00		 mov	 DWORD PTR [ecx+151308], eax

; 355  : 	m_AttemperEngineSink.m_pITCPSocketService=m_TCPSocketService.GetInterface();

  005e8	8b 4d f8	 mov	 ecx, DWORD PTR _this$[ebp]
  005eb	81 c1 50 01 03
	00		 add	 ecx, 196944		; 00030150H
  005f1	e8 00 00 00 00	 call	 ?GetInterface@?$CTempldateHelper@UITCPSocketService@@@@QBEPAUITCPSocketService@@XZ ; CTempldateHelper<ITCPSocketService>::GetInterface
  005f6	8b 4d f8	 mov	 ecx, DWORD PTR _this$[ebp]
  005f9	89 81 10 4f 02
	00		 mov	 DWORD PTR [ecx+151312], eax

; 356  : 	m_AttemperEngineSink.m_pPrsnlRmITCPSocketService=m_PrsnlRmTCPSocketService.GetInterface();

  005ff	8b 4d f8	 mov	 ecx, DWORD PTR _this$[ebp]
  00602	81 c1 28 03 03
	00		 add	 ecx, 197416		; 00030328H
  00608	e8 00 00 00 00	 call	 ?GetInterface@?$CTempldateHelper@UITCPSocketService@@@@QBEPAUITCPSocketService@@XZ ; CTempldateHelper<ITCPSocketService>::GetInterface
  0060d	8b 4d f8	 mov	 ecx, DWORD PTR _this$[ebp]
  00610	89 81 20 4f 02
	00		 mov	 DWORD PTR [ecx+151328], eax

; 357  : 	m_AttemperEngineSink.m_pITCPNetworkEngine=m_TCPNetworkEngine.GetInterface();

  00616	8b 4d f8	 mov	 ecx, DWORD PTR _this$[ebp]
  00619	81 c1 78 ff 02
	00		 add	 ecx, 196472		; 0002ff78H
  0061f	e8 00 00 00 00	 call	 ?GetInterface@?$CTempldateHelper@UITCPNetworkEngine@@@@QBEPAUITCPNetworkEngine@@XZ ; CTempldateHelper<ITCPNetworkEngine>::GetInterface
  00624	8b 4d f8	 mov	 ecx, DWORD PTR _this$[ebp]
  00627	89 81 14 4f 02
	00		 mov	 DWORD PTR [ecx+151316], eax

; 358  : 	m_AttemperEngineSink.m_pIGameServiceSustomTime=pIGameServiceSustomTime;

  0062d	8b 45 f8	 mov	 eax, DWORD PTR _this$[ebp]
  00630	8b 4d b8	 mov	 ecx, DWORD PTR _pIGameServiceSustomTime$[ebp]
  00633	89 88 1c 4f 02
	00		 mov	 DWORD PTR [eax+151324], ecx

; 359  : 	m_AttemperEngineSink.m_pIGameServiceManager=m_GameServiceManager.GetInterface();

  00639	8b 4d f8	 mov	 ecx, DWORD PTR _this$[ebp]
  0063c	81 c1 00 05 03
	00		 add	 ecx, 197888		; 00030500H
  00642	e8 00 00 00 00	 call	 ?GetInterface@?$CTempldateHelper@UIGameServiceManager@@@@QBEPAUIGameServiceManager@@XZ ; CTempldateHelper<IGameServiceManager>::GetInterface
  00647	8b 4d f8	 mov	 ecx, DWORD PTR _this$[ebp]
  0064a	89 81 18 4f 02
	00		 mov	 DWORD PTR [ecx+151320], eax

; 360  : 	m_AttemperEngineSink.m_pIRecordDataBaseEngine=m_RecordDataBaseEngine.GetInterface();

  00650	8b 4d f8	 mov	 ecx, DWORD PTR _this$[ebp]
  00653	81 c1 18 f8 02
	00		 add	 ecx, 194584		; 0002f818H
  00659	e8 00 00 00 00	 call	 ?GetInterface@?$CTempldateHelper@UIDataBaseEngine@@@@QBEPAUIDataBaseEngine@@XZ ; CTempldateHelper<IDataBaseEngine>::GetInterface
  0065e	8b 4d f8	 mov	 ecx, DWORD PTR _this$[ebp]
  00661	89 81 2c 4f 02
	00		 mov	 DWORD PTR [ecx+151340], eax

; 361  : 	m_AttemperEngineSink.m_pIKernelDataBaseEngine=m_KernelDataBaseEngine.GetInterface();

  00667	8b 4d f8	 mov	 ecx, DWORD PTR _this$[ebp]
  0066a	81 c1 f0 f9 02
	00		 add	 ecx, 195056		; 0002f9f0H
  00670	e8 00 00 00 00	 call	 ?GetInterface@?$CTempldateHelper@UIDataBaseEngine@@@@QBEPAUIDataBaseEngine@@XZ ; CTempldateHelper<IDataBaseEngine>::GetInterface
  00675	8b 4d f8	 mov	 ecx, DWORD PTR _this$[ebp]
  00678	89 81 30 4f 02
	00		 mov	 DWORD PTR [ecx+151344], eax

; 362  : 	m_AttemperEngineSink.m_pIMatchServiceManager=m_MatchServiceManager.GetInterface();

  0067e	8b 4d f8	 mov	 ecx, DWORD PTR _this$[ebp]
  00681	81 c1 d8 06 03
	00		 add	 ecx, 198360		; 000306d8H
  00687	e8 00 00 00 00	 call	 ?GetInterface@?$CTempldateHelper@UIMatchServiceManager@@@@QBEPAUIMatchServiceManager@@XZ ; CTempldateHelper<IMatchServiceManager>::GetInterface
  0068c	8b 4d f8	 mov	 ecx, DWORD PTR _this$[ebp]
  0068f	89 81 24 4f 02
	00		 mov	 DWORD PTR [ecx+151332], eax

; 363  : 	m_AttemperEngineSink.m_pIPersonalRoomServiceManager=m_PersonalRoomServiceManager.GetInterface();

  00695	8b 4d f8	 mov	 ecx, DWORD PTR _this$[ebp]
  00698	81 c1 b0 08 03
	00		 add	 ecx, 198832		; 000308b0H
  0069e	e8 00 00 00 00	 call	 ?GetInterface@?$CTempldateHelper@UIPersonalRoomServiceManager@@@@QBEPAUIPersonalRoomServiceManager@@XZ ; CTempldateHelper<IPersonalRoomServiceManager>::GetInterface
  006a3	8b 4d f8	 mov	 ecx, DWORD PTR _this$[ebp]
  006a6	89 81 28 4f 02
	00		 mov	 DWORD PTR [ecx+151336], eax

; 364  : 	
; 365  : 	m_AttemperEngineSink.m_pIDBCorrespondManager=(IDBCorrespondManager*)m_DBCorrespondManager.QueryInterface(IID_IDBCorrespondManager,VER_IDBCorrespondManager);

  006ac	68 00 01 01 06	 push	 100729088		; 06010100H
  006b1	68 00 00 00 00	 push	 OFFSET ?IID_IDBCorrespondManager@@3U_GUID@@B
  006b6	8b 4d f8	 mov	 ecx, DWORD PTR _this$[ebp]
  006b9	81 c1 b8 f7 02
	00		 add	 ecx, 194488		; 0002f7b8H
  006bf	8b 45 f8	 mov	 eax, DWORD PTR _this$[ebp]
  006c2	8b 90 b8 f7 02
	00		 mov	 edx, DWORD PTR [eax+194488]
  006c8	8b 42 04	 mov	 eax, DWORD PTR [edx+4]
  006cb	ff d0		 call	 eax
  006cd	8b 4d f8	 mov	 ecx, DWORD PTR _this$[ebp]
  006d0	89 81 34 4f 02
	00		 mov	 DWORD PTR [ecx+151348], eax

; 366  : 
; 367  : 	//数据回调
; 368  : 	for (INT i=0;i<CountArray(m_RecordDataBaseSink);i++)

  006d6	c7 45 b0 00 00
	00 00		 mov	 DWORD PTR _i$2[ebp], 0
  006dd	eb 09		 jmp	 SHORT $LN10@Initialize
$LN8@Initialize:
  006df	8b 45 b0	 mov	 eax, DWORD PTR _i$2[ebp]
  006e2	83 c0 01	 add	 eax, 1
  006e5	89 45 b0	 mov	 DWORD PTR _i$2[ebp], eax
$LN10@Initialize:
  006e8	83 7d b0 04	 cmp	 DWORD PTR _i$2[ebp], 4
  006ec	0f 83 e7 00 00
	00		 jae	 $LN9@Initialize

; 369  : 	{
; 370  : 		m_RecordDataBaseSink[i].m_pInitParameter=&m_InitParameter;

  006f2	8b 45 f8	 mov	 eax, DWORD PTR _this$[ebp]
  006f5	05 80 00 00 00	 add	 eax, 128		; 00000080H
  006fa	69 4d b0 10 15
	00 00		 imul	 ecx, DWORD PTR _i$2[ebp], 5392
  00701	8b 55 f8	 mov	 edx, DWORD PTR _this$[ebp]
  00704	89 84 0a 20 64
	02 00		 mov	 DWORD PTR [edx+ecx+156704], eax

; 371  : 		m_RecordDataBaseSink[i].m_pGameParameter=&m_GameParameter;

  0070b	8b 45 f8	 mov	 eax, DWORD PTR _this$[ebp]
  0070e	05 20 02 00 00	 add	 eax, 544		; 00000220H
  00713	69 4d b0 10 15
	00 00		 imul	 ecx, DWORD PTR _i$2[ebp], 5392
  0071a	8b 55 f8	 mov	 edx, DWORD PTR _this$[ebp]
  0071d	89 84 0a 24 64
	02 00		 mov	 DWORD PTR [edx+ecx+156708], eax

; 372  : 		m_RecordDataBaseSink[i].m_pDataBaseParameter=&m_DataBaseParameter;

  00724	8b 45 f8	 mov	 eax, DWORD PTR _this$[ebp]
  00727	05 48 02 00 00	 add	 eax, 584		; 00000248H
  0072c	69 4d b0 10 15
	00 00		 imul	 ecx, DWORD PTR _i$2[ebp], 5392
  00733	8b 55 f8	 mov	 edx, DWORD PTR _this$[ebp]
  00736	89 84 0a 28 64
	02 00		 mov	 DWORD PTR [edx+ecx+156712], eax

; 373  : 		m_RecordDataBaseSink[i].m_pGameServiceAttrib=&m_GameServiceAttrib;

  0073d	8b 45 f8	 mov	 eax, DWORD PTR _this$[ebp]
  00740	05 cc 02 00 00	 add	 eax, 716		; 000002ccH
  00745	69 4d b0 10 15
	00 00		 imul	 ecx, DWORD PTR _i$2[ebp], 5392
  0074c	8b 55 f8	 mov	 edx, DWORD PTR _this$[ebp]
  0074f	89 84 0a 2c 64
	02 00		 mov	 DWORD PTR [edx+ecx+156716], eax

; 374  : 		m_RecordDataBaseSink[i].m_pGameServiceOption=&m_GameServiceOption;

  00756	8b 45 f8	 mov	 eax, DWORD PTR _this$[ebp]
  00759	05 60 03 00 00	 add	 eax, 864		; 00000360H
  0075e	69 4d b0 10 15
	00 00		 imul	 ecx, DWORD PTR _i$2[ebp], 5392
  00765	8b 55 f8	 mov	 edx, DWORD PTR _this$[ebp]
  00768	89 84 0a 30 64
	02 00		 mov	 DWORD PTR [edx+ecx+156720], eax

; 375  : 		m_RecordDataBaseSink[i].m_pIGameServiceManager=m_GameServiceManager.GetInterface();

  0076f	8b 4d f8	 mov	 ecx, DWORD PTR _this$[ebp]
  00772	81 c1 00 05 03
	00		 add	 ecx, 197888		; 00030500H
  00778	e8 00 00 00 00	 call	 ?GetInterface@?$CTempldateHelper@UIGameServiceManager@@@@QBEPAUIGameServiceManager@@XZ ; CTempldateHelper<IGameServiceManager>::GetInterface
  0077d	69 4d b0 10 15
	00 00		 imul	 ecx, DWORD PTR _i$2[ebp], 5392
  00784	8b 55 f8	 mov	 edx, DWORD PTR _this$[ebp]
  00787	89 84 0a 38 64
	02 00		 mov	 DWORD PTR [edx+ecx+156728], eax

; 376  : 		m_RecordDataBaseSink[i].m_pIDataBaseEngineEvent=QUERY_OBJECT_PTR_INTERFACE(pIAttemperEngine,IDataBaseEngineEvent);

  0078e	83 7d ec 00	 cmp	 DWORD PTR _pIAttemperEngine$[ebp], 0
  00792	75 0c		 jne	 SHORT $LN34@Initialize
  00794	c7 85 68 ff ff
	ff 00 00 00 00	 mov	 DWORD PTR tv636[ebp], 0
  0079e	eb 1d		 jmp	 SHORT $LN35@Initialize
$LN34@Initialize:
  007a0	68 00 01 01 06	 push	 100729088		; 06010100H
  007a5	68 00 00 00 00	 push	 OFFSET ?IID_IDataBaseEngineEvent@@3U_GUID@@B
  007aa	8b 45 ec	 mov	 eax, DWORD PTR _pIAttemperEngine$[ebp]
  007ad	8b 10		 mov	 edx, DWORD PTR [eax]
  007af	8b 4d ec	 mov	 ecx, DWORD PTR _pIAttemperEngine$[ebp]
  007b2	8b 42 04	 mov	 eax, DWORD PTR [edx+4]
  007b5	ff d0		 call	 eax
  007b7	89 85 68 ff ff
	ff		 mov	 DWORD PTR tv636[ebp], eax
$LN35@Initialize:
  007bd	69 4d b0 10 15
	00 00		 imul	 ecx, DWORD PTR _i$2[ebp], 5392
  007c4	8b 55 f8	 mov	 edx, DWORD PTR _this$[ebp]
  007c7	8b 85 68 ff ff
	ff		 mov	 eax, DWORD PTR tv636[ebp]
  007cd	89 84 0a 3c 64
	02 00		 mov	 DWORD PTR [edx+ecx+156732], eax

; 377  : 	}

  007d4	e9 06 ff ff ff	 jmp	 $LN8@Initialize
$LN9@Initialize:

; 378  : 
; 379  : 	//数据回调
; 380  : 	for (INT i=0;i<CountArray(m_KernelDataBaseSink);i++)

  007d9	c7 45 ac 00 00
	00 00		 mov	 DWORD PTR _i$1[ebp], 0
  007e0	eb 09		 jmp	 SHORT $LN13@Initialize
$LN11@Initialize:
  007e2	8b 45 ac	 mov	 eax, DWORD PTR _i$1[ebp]
  007e5	83 c0 01	 add	 eax, 1
  007e8	89 45 ac	 mov	 DWORD PTR _i$1[ebp], eax
$LN13@Initialize:
  007eb	83 7d ac 04	 cmp	 DWORD PTR _i$1[ebp], 4
  007ef	0f 83 19 01 00
	00		 jae	 $LN12@Initialize

; 381  : 	{
; 382  : 		m_KernelDataBaseSink[i].m_pInitParameter=&m_InitParameter;

  007f5	8b 45 f8	 mov	 eax, DWORD PTR _this$[ebp]
  007f8	05 80 00 00 00	 add	 eax, 128		; 00000080H
  007fd	69 4d ac 10 15
	00 00		 imul	 ecx, DWORD PTR _i$1[ebp], 5392
  00804	8b 55 f8	 mov	 edx, DWORD PTR _this$[ebp]
  00807	89 84 0a 60 b8
	02 00		 mov	 DWORD PTR [edx+ecx+178272], eax

; 383  : 		m_KernelDataBaseSink[i].m_pGameParameter=&m_GameParameter;

  0080e	8b 45 f8	 mov	 eax, DWORD PTR _this$[ebp]
  00811	05 20 02 00 00	 add	 eax, 544		; 00000220H
  00816	69 4d ac 10 15
	00 00		 imul	 ecx, DWORD PTR _i$1[ebp], 5392
  0081d	8b 55 f8	 mov	 edx, DWORD PTR _this$[ebp]
  00820	89 84 0a 64 b8
	02 00		 mov	 DWORD PTR [edx+ecx+178276], eax

; 384  : 		m_KernelDataBaseSink[i].m_pDataBaseParameter=&m_DataBaseParameter;

  00827	8b 45 f8	 mov	 eax, DWORD PTR _this$[ebp]
  0082a	05 48 02 00 00	 add	 eax, 584		; 00000248H
  0082f	69 4d ac 10 15
	00 00		 imul	 ecx, DWORD PTR _i$1[ebp], 5392
  00836	8b 55 f8	 mov	 edx, DWORD PTR _this$[ebp]
  00839	89 84 0a 68 b8
	02 00		 mov	 DWORD PTR [edx+ecx+178280], eax

; 385  : 		m_KernelDataBaseSink[i].m_pGameServiceAttrib=&m_GameServiceAttrib;

  00840	8b 45 f8	 mov	 eax, DWORD PTR _this$[ebp]
  00843	05 cc 02 00 00	 add	 eax, 716		; 000002ccH
  00848	69 4d ac 10 15
	00 00		 imul	 ecx, DWORD PTR _i$1[ebp], 5392
  0084f	8b 55 f8	 mov	 edx, DWORD PTR _this$[ebp]
  00852	89 84 0a 6c b8
	02 00		 mov	 DWORD PTR [edx+ecx+178284], eax

; 386  : 		m_KernelDataBaseSink[i].m_pGameServiceOption=&m_GameServiceOption;

  00859	8b 45 f8	 mov	 eax, DWORD PTR _this$[ebp]
  0085c	05 60 03 00 00	 add	 eax, 864		; 00000360H
  00861	69 4d ac 10 15
	00 00		 imul	 ecx, DWORD PTR _i$1[ebp], 5392
  00868	8b 55 f8	 mov	 edx, DWORD PTR _this$[ebp]
  0086b	89 84 0a 70 b8
	02 00		 mov	 DWORD PTR [edx+ecx+178288], eax

; 387  : 		m_KernelDataBaseSink[i].m_pIGameServiceManager=m_GameServiceManager.GetInterface();

  00872	8b 4d f8	 mov	 ecx, DWORD PTR _this$[ebp]
  00875	81 c1 00 05 03
	00		 add	 ecx, 197888		; 00030500H
  0087b	e8 00 00 00 00	 call	 ?GetInterface@?$CTempldateHelper@UIGameServiceManager@@@@QBEPAUIGameServiceManager@@XZ ; CTempldateHelper<IGameServiceManager>::GetInterface
  00880	69 4d ac 10 15
	00 00		 imul	 ecx, DWORD PTR _i$1[ebp], 5392
  00887	8b 55 f8	 mov	 edx, DWORD PTR _this$[ebp]
  0088a	89 84 0a 78 b8
	02 00		 mov	 DWORD PTR [edx+ecx+178296], eax

; 388  : 		m_KernelDataBaseSink[i].m_pIDataBaseEngineEvent=QUERY_OBJECT_PTR_INTERFACE(pIAttemperEngine,IDataBaseEngineEvent);

  00891	83 7d ec 00	 cmp	 DWORD PTR _pIAttemperEngine$[ebp], 0
  00895	75 0c		 jne	 SHORT $LN36@Initialize
  00897	c7 85 68 ff ff
	ff 00 00 00 00	 mov	 DWORD PTR tv686[ebp], 0
  008a1	eb 1d		 jmp	 SHORT $LN37@Initialize
$LN36@Initialize:
  008a3	68 00 01 01 06	 push	 100729088		; 06010100H
  008a8	68 00 00 00 00	 push	 OFFSET ?IID_IDataBaseEngineEvent@@3U_GUID@@B
  008ad	8b 45 ec	 mov	 eax, DWORD PTR _pIAttemperEngine$[ebp]
  008b0	8b 10		 mov	 edx, DWORD PTR [eax]
  008b2	8b 4d ec	 mov	 ecx, DWORD PTR _pIAttemperEngine$[ebp]
  008b5	8b 42 04	 mov	 eax, DWORD PTR [edx+4]
  008b8	ff d0		 call	 eax
  008ba	89 85 68 ff ff
	ff		 mov	 DWORD PTR tv686[ebp], eax
$LN37@Initialize:
  008c0	69 4d ac 10 15
	00 00		 imul	 ecx, DWORD PTR _i$1[ebp], 5392
  008c7	8b 55 f8	 mov	 edx, DWORD PTR _this$[ebp]
  008ca	8b 85 68 ff ff
	ff		 mov	 eax, DWORD PTR tv686[ebp]
  008d0	89 84 0a 7c b8
	02 00		 mov	 DWORD PTR [edx+ecx+178300], eax

; 389  : 		m_KernelDataBaseSink[i].m_pIDBCorrespondManager=(IDBCorrespondManager*)m_DBCorrespondManager.QueryInterface(IID_IDBCorrespondManager,VER_IDBCorrespondManager);

  008d7	68 00 01 01 06	 push	 100729088		; 06010100H
  008dc	68 00 00 00 00	 push	 OFFSET ?IID_IDBCorrespondManager@@3U_GUID@@B
  008e1	8b 4d f8	 mov	 ecx, DWORD PTR _this$[ebp]
  008e4	81 c1 b8 f7 02
	00		 add	 ecx, 194488		; 0002f7b8H
  008ea	8b 45 f8	 mov	 eax, DWORD PTR _this$[ebp]
  008ed	8b 90 b8 f7 02
	00		 mov	 edx, DWORD PTR [eax+194488]
  008f3	8b 42 04	 mov	 eax, DWORD PTR [edx+4]
  008f6	ff d0		 call	 eax
  008f8	69 4d ac 10 15
	00 00		 imul	 ecx, DWORD PTR _i$1[ebp], 5392
  008ff	8b 55 f8	 mov	 edx, DWORD PTR _this$[ebp]
  00902	89 84 0a 84 b8
	02 00		 mov	 DWORD PTR [edx+ecx+178308], eax

; 390  : 	}

  00909	e9 d4 fe ff ff	 jmp	 $LN11@Initialize
$LN12@Initialize:

; 391  : 
; 392  : 	//配置网络
; 393  : 	m_TCPNetworkEngine->SetServiceParameter(m_GameServiceOption.wServerPort,m_GameServiceOption.wMaxPlayer,szCompilation);

  0090e	8b 4d f8	 mov	 ecx, DWORD PTR _this$[ebp]
  00911	81 c1 78 ff 02
	00		 add	 ecx, 196472		; 0002ff78H
  00917	e8 00 00 00 00	 call	 ??C?$CTempldateHelper@UITCPNetworkEngine@@@@QBEPAUITCPNetworkEngine@@XZ ; CTempldateHelper<ITCPNetworkEngine>::operator->
  0091c	89 85 68 ff ff
	ff		 mov	 DWORD PTR tv711[ebp], eax
  00922	68 00 00 00 00	 push	 OFFSET ?szCompilation@@3QBDB
  00927	8b 45 f8	 mov	 eax, DWORD PTR _this$[ebp]
  0092a	0f b7 88 a4 03
	00 00		 movzx	 ecx, WORD PTR [eax+932]
  00931	51		 push	 ecx
  00932	8b 55 f8	 mov	 edx, DWORD PTR _this$[ebp]
  00935	0f b7 82 a8 03
	00 00		 movzx	 eax, WORD PTR [edx+936]
  0093c	50		 push	 eax
  0093d	8b 8d 68 ff ff
	ff		 mov	 ecx, DWORD PTR tv711[ebp]
  00943	8b 11		 mov	 edx, DWORD PTR [ecx]
  00945	8b 8d 68 ff ff
	ff		 mov	 ecx, DWORD PTR tv711[ebp]
  0094b	8b 42 1c	 mov	 eax, DWORD PTR [edx+28]
  0094e	ff d0		 call	 eax

; 394  : 	
; 395  : 	return true;

  00950	b0 01		 mov	 al, 1
$LN1@Initialize:

; 396  : }

  00952	5f		 pop	 edi
  00953	5e		 pop	 esi
  00954	5b		 pop	 ebx
  00955	8b 4d fc	 mov	 ecx, DWORD PTR __$ArrayPad$[ebp]
  00958	33 cd		 xor	 ecx, ebp
  0095a	e8 00 00 00 00	 call	 @__security_check_cookie@4
  0095f	8b e5		 mov	 esp, ebp
  00961	5d		 pop	 ebp
  00962	c3		 ret	 0
?InitializeService@CServiceUnits@@IAE_NXZ ENDP		; CServiceUnits::InitializeService
_TEXT	ENDS
; Function compile flags: /Odtp /ZI
; File g:\网狐\happygamewh\服务端\系统模块\服务器组件\游戏服务器\serviceunits.cpp
;	COMDAT ?CreateServiceDLL@CServiceUnits@@IAE_NXZ
_TEXT	SEGMENT
_this$ = -4						; size = 4
?CreateServiceDLL@CServiceUnits@@IAE_NXZ PROC		; CServiceUnits::CreateServiceDLL, COMDAT
; _this$ = ecx

; 186  : {

  00000	55		 push	 ebp
  00001	8b ec		 mov	 ebp, esp
  00003	83 ec 44	 sub	 esp, 68			; 00000044H
  00006	53		 push	 ebx
  00007	56		 push	 esi
  00008	57		 push	 edi
  00009	89 4d fc	 mov	 DWORD PTR _this$[ebp], ecx

; 187  : 	//时间引擎
; 188  : 	if ((m_TimerEngine.GetInterface()==NULL)&&(m_TimerEngine.CreateInstance()==false))

  0000c	8b 4d fc	 mov	 ecx, DWORD PTR _this$[ebp]
  0000f	81 c1 c8 fb 02
	00		 add	 ecx, 195528		; 0002fbc8H
  00015	e8 00 00 00 00	 call	 ?GetInterface@?$CTempldateHelper@UITimerEngine@@@@QBEPAUITimerEngine@@XZ ; CTempldateHelper<ITimerEngine>::GetInterface
  0001a	85 c0		 test	 eax, eax
  0001c	75 36		 jne	 SHORT $LN2@CreateServ
  0001e	8b 4d fc	 mov	 ecx, DWORD PTR _this$[ebp]
  00021	81 c1 c8 fb 02
	00		 add	 ecx, 195528		; 0002fbc8H
  00027	e8 00 00 00 00	 call	 ?CreateInstance@?$CTempldateHelper@UITimerEngine@@@@QAE_NXZ ; CTempldateHelper<ITimerEngine>::CreateInstance
  0002c	0f b6 c0	 movzx	 eax, al
  0002f	85 c0		 test	 eax, eax
  00031	75 21		 jne	 SHORT $LN2@CreateServ

; 189  : 	{
; 190  : 		CTraceService::TraceString(m_TimerEngine.GetErrorDescribe(),TraceLevel_Exception);

  00033	6a 03		 push	 3
  00035	8b 4d fc	 mov	 ecx, DWORD PTR _this$[ebp]
  00038	81 c1 c8 fb 02
	00		 add	 ecx, 195528		; 0002fbc8H
  0003e	e8 00 00 00 00	 call	 ?GetErrorDescribe@?$CTempldateHelper@UITimerEngine@@@@QBEPBDXZ ; CTempldateHelper<ITimerEngine>::GetErrorDescribe
  00043	50		 push	 eax
  00044	ff 15 00 00 00
	00		 call	 DWORD PTR __imp_?TraceString@CTraceService@@SA_NPBDW4enTraceLevel@@@Z
  0004a	83 c4 08	 add	 esp, 8

; 191  : 		return false;

  0004d	32 c0		 xor	 al, al
  0004f	e9 b2 02 00 00	 jmp	 $LN1@CreateServ
$LN2@CreateServ:

; 192  : 	}
; 193  : 
; 194  : 	//调度引擎
; 195  : 	if ((m_AttemperEngine.GetInterface()==NULL)&&(m_AttemperEngine.CreateInstance()==false))

  00054	8b 4d fc	 mov	 ecx, DWORD PTR _this$[ebp]
  00057	81 c1 a0 fd 02
	00		 add	 ecx, 196000		; 0002fda0H
  0005d	e8 00 00 00 00	 call	 ?GetInterface@?$CTempldateHelper@UIAttemperEngine@@@@QBEPAUIAttemperEngine@@XZ ; CTempldateHelper<IAttemperEngine>::GetInterface
  00062	85 c0		 test	 eax, eax
  00064	75 36		 jne	 SHORT $LN3@CreateServ
  00066	8b 4d fc	 mov	 ecx, DWORD PTR _this$[ebp]
  00069	81 c1 a0 fd 02
	00		 add	 ecx, 196000		; 0002fda0H
  0006f	e8 00 00 00 00	 call	 ?CreateInstance@?$CTempldateHelper@UIAttemperEngine@@@@QAE_NXZ ; CTempldateHelper<IAttemperEngine>::CreateInstance
  00074	0f b6 c0	 movzx	 eax, al
  00077	85 c0		 test	 eax, eax
  00079	75 21		 jne	 SHORT $LN3@CreateServ

; 196  : 	{
; 197  : 		CTraceService::TraceString(m_AttemperEngine.GetErrorDescribe(),TraceLevel_Exception);

  0007b	6a 03		 push	 3
  0007d	8b 4d fc	 mov	 ecx, DWORD PTR _this$[ebp]
  00080	81 c1 a0 fd 02
	00		 add	 ecx, 196000		; 0002fda0H
  00086	e8 00 00 00 00	 call	 ?GetErrorDescribe@?$CTempldateHelper@UIAttemperEngine@@@@QBEPBDXZ ; CTempldateHelper<IAttemperEngine>::GetErrorDescribe
  0008b	50		 push	 eax
  0008c	ff 15 00 00 00
	00		 call	 DWORD PTR __imp_?TraceString@CTraceService@@SA_NPBDW4enTraceLevel@@@Z
  00092	83 c4 08	 add	 esp, 8

; 198  : 		return false;

  00095	32 c0		 xor	 al, al
  00097	e9 6a 02 00 00	 jmp	 $LN1@CreateServ
$LN3@CreateServ:

; 199  : 	}
; 200  : 
; 201  : 	//网络组件
; 202  : 	if ((m_TCPSocketService.GetInterface()==NULL)&&(m_TCPSocketService.CreateInstance()==false))

  0009c	8b 4d fc	 mov	 ecx, DWORD PTR _this$[ebp]
  0009f	81 c1 50 01 03
	00		 add	 ecx, 196944		; 00030150H
  000a5	e8 00 00 00 00	 call	 ?GetInterface@?$CTempldateHelper@UITCPSocketService@@@@QBEPAUITCPSocketService@@XZ ; CTempldateHelper<ITCPSocketService>::GetInterface
  000aa	85 c0		 test	 eax, eax
  000ac	75 36		 jne	 SHORT $LN4@CreateServ
  000ae	8b 4d fc	 mov	 ecx, DWORD PTR _this$[ebp]
  000b1	81 c1 50 01 03
	00		 add	 ecx, 196944		; 00030150H
  000b7	e8 00 00 00 00	 call	 ?CreateInstance@?$CTempldateHelper@UITCPSocketService@@@@QAE_NXZ ; CTempldateHelper<ITCPSocketService>::CreateInstance
  000bc	0f b6 c0	 movzx	 eax, al
  000bf	85 c0		 test	 eax, eax
  000c1	75 21		 jne	 SHORT $LN4@CreateServ

; 203  : 	{
; 204  : 		CTraceService::TraceString(m_TCPSocketService.GetErrorDescribe(),TraceLevel_Exception);

  000c3	6a 03		 push	 3
  000c5	8b 4d fc	 mov	 ecx, DWORD PTR _this$[ebp]
  000c8	81 c1 50 01 03
	00		 add	 ecx, 196944		; 00030150H
  000ce	e8 00 00 00 00	 call	 ?GetErrorDescribe@?$CTempldateHelper@UITCPSocketService@@@@QBEPBDXZ ; CTempldateHelper<ITCPSocketService>::GetErrorDescribe
  000d3	50		 push	 eax
  000d4	ff 15 00 00 00
	00		 call	 DWORD PTR __imp_?TraceString@CTraceService@@SA_NPBDW4enTraceLevel@@@Z
  000da	83 c4 08	 add	 esp, 8

; 205  : 		return false;

  000dd	32 c0		 xor	 al, al
  000df	e9 22 02 00 00	 jmp	 $LN1@CreateServ
$LN4@CreateServ:

; 206  : 	}
; 207  : 
; 208  : 
; 209  : 	//网络组件
; 210  : 	if ((m_PrsnlRmTCPSocketService.GetInterface()==NULL)&&(m_PrsnlRmTCPSocketService.CreateInstance()==false))

  000e4	8b 4d fc	 mov	 ecx, DWORD PTR _this$[ebp]
  000e7	81 c1 28 03 03
	00		 add	 ecx, 197416		; 00030328H
  000ed	e8 00 00 00 00	 call	 ?GetInterface@?$CTempldateHelper@UITCPSocketService@@@@QBEPAUITCPSocketService@@XZ ; CTempldateHelper<ITCPSocketService>::GetInterface
  000f2	85 c0		 test	 eax, eax
  000f4	75 36		 jne	 SHORT $LN5@CreateServ
  000f6	8b 4d fc	 mov	 ecx, DWORD PTR _this$[ebp]
  000f9	81 c1 28 03 03
	00		 add	 ecx, 197416		; 00030328H
  000ff	e8 00 00 00 00	 call	 ?CreateInstance@?$CTempldateHelper@UITCPSocketService@@@@QAE_NXZ ; CTempldateHelper<ITCPSocketService>::CreateInstance
  00104	0f b6 c0	 movzx	 eax, al
  00107	85 c0		 test	 eax, eax
  00109	75 21		 jne	 SHORT $LN5@CreateServ

; 211  : 	{
; 212  : 		CTraceService::TraceString(m_PrsnlRmTCPSocketService.GetErrorDescribe(),TraceLevel_Exception);

  0010b	6a 03		 push	 3
  0010d	8b 4d fc	 mov	 ecx, DWORD PTR _this$[ebp]
  00110	81 c1 28 03 03
	00		 add	 ecx, 197416		; 00030328H
  00116	e8 00 00 00 00	 call	 ?GetErrorDescribe@?$CTempldateHelper@UITCPSocketService@@@@QBEPBDXZ ; CTempldateHelper<ITCPSocketService>::GetErrorDescribe
  0011b	50		 push	 eax
  0011c	ff 15 00 00 00
	00		 call	 DWORD PTR __imp_?TraceString@CTraceService@@SA_NPBDW4enTraceLevel@@@Z
  00122	83 c4 08	 add	 esp, 8

; 213  : 		return false;

  00125	32 c0		 xor	 al, al
  00127	e9 da 01 00 00	 jmp	 $LN1@CreateServ
$LN5@CreateServ:

; 214  : 	}
; 215  : 
; 216  : 	//网络引擎
; 217  : 	if ((m_TCPNetworkEngine.GetInterface()==NULL)&&(m_TCPNetworkEngine.CreateInstance()==false))

  0012c	8b 4d fc	 mov	 ecx, DWORD PTR _this$[ebp]
  0012f	81 c1 78 ff 02
	00		 add	 ecx, 196472		; 0002ff78H
  00135	e8 00 00 00 00	 call	 ?GetInterface@?$CTempldateHelper@UITCPNetworkEngine@@@@QBEPAUITCPNetworkEngine@@XZ ; CTempldateHelper<ITCPNetworkEngine>::GetInterface
  0013a	85 c0		 test	 eax, eax
  0013c	75 36		 jne	 SHORT $LN6@CreateServ
  0013e	8b 4d fc	 mov	 ecx, DWORD PTR _this$[ebp]
  00141	81 c1 78 ff 02
	00		 add	 ecx, 196472		; 0002ff78H
  00147	e8 00 00 00 00	 call	 ?CreateInstance@?$CTempldateHelper@UITCPNetworkEngine@@@@QAE_NXZ ; CTempldateHelper<ITCPNetworkEngine>::CreateInstance
  0014c	0f b6 c0	 movzx	 eax, al
  0014f	85 c0		 test	 eax, eax
  00151	75 21		 jne	 SHORT $LN6@CreateServ

; 218  : 	{
; 219  : 		CTraceService::TraceString(m_TCPNetworkEngine.GetErrorDescribe(),TraceLevel_Exception);

  00153	6a 03		 push	 3
  00155	8b 4d fc	 mov	 ecx, DWORD PTR _this$[ebp]
  00158	81 c1 78 ff 02
	00		 add	 ecx, 196472		; 0002ff78H
  0015e	e8 00 00 00 00	 call	 ?GetErrorDescribe@?$CTempldateHelper@UITCPNetworkEngine@@@@QBEPBDXZ ; CTempldateHelper<ITCPNetworkEngine>::GetErrorDescribe
  00163	50		 push	 eax
  00164	ff 15 00 00 00
	00		 call	 DWORD PTR __imp_?TraceString@CTraceService@@SA_NPBDW4enTraceLevel@@@Z
  0016a	83 c4 08	 add	 esp, 8

; 220  : 		return false;

  0016d	32 c0		 xor	 al, al
  0016f	e9 92 01 00 00	 jmp	 $LN1@CreateServ
$LN6@CreateServ:

; 221  : 	}
; 222  : 	//数据组件
; 223  : 	if ((m_KernelDataBaseEngine.GetInterface()==NULL)&&(m_KernelDataBaseEngine.CreateInstance()==false))

  00174	8b 4d fc	 mov	 ecx, DWORD PTR _this$[ebp]
  00177	81 c1 f0 f9 02
	00		 add	 ecx, 195056		; 0002f9f0H
  0017d	e8 00 00 00 00	 call	 ?GetInterface@?$CTempldateHelper@UIDataBaseEngine@@@@QBEPAUIDataBaseEngine@@XZ ; CTempldateHelper<IDataBaseEngine>::GetInterface
  00182	85 c0		 test	 eax, eax
  00184	75 36		 jne	 SHORT $LN7@CreateServ
  00186	8b 4d fc	 mov	 ecx, DWORD PTR _this$[ebp]
  00189	81 c1 f0 f9 02
	00		 add	 ecx, 195056		; 0002f9f0H
  0018f	e8 00 00 00 00	 call	 ?CreateInstance@?$CTempldateHelper@UIDataBaseEngine@@@@QAE_NXZ ; CTempldateHelper<IDataBaseEngine>::CreateInstance
  00194	0f b6 c0	 movzx	 eax, al
  00197	85 c0		 test	 eax, eax
  00199	75 21		 jne	 SHORT $LN7@CreateServ

; 224  : 	{
; 225  : 		CTraceService::TraceString(m_KernelDataBaseEngine.GetErrorDescribe(),TraceLevel_Exception);

  0019b	6a 03		 push	 3
  0019d	8b 4d fc	 mov	 ecx, DWORD PTR _this$[ebp]
  001a0	81 c1 f0 f9 02
	00		 add	 ecx, 195056		; 0002f9f0H
  001a6	e8 00 00 00 00	 call	 ?GetErrorDescribe@?$CTempldateHelper@UIDataBaseEngine@@@@QBEPBDXZ ; CTempldateHelper<IDataBaseEngine>::GetErrorDescribe
  001ab	50		 push	 eax
  001ac	ff 15 00 00 00
	00		 call	 DWORD PTR __imp_?TraceString@CTraceService@@SA_NPBDW4enTraceLevel@@@Z
  001b2	83 c4 08	 add	 esp, 8

; 226  : 		return false;

  001b5	32 c0		 xor	 al, al
  001b7	e9 4a 01 00 00	 jmp	 $LN1@CreateServ
$LN7@CreateServ:

; 227  : 	}
; 228  : 
; 229  : 	//数据组件
; 230  : 	if ((m_RecordDataBaseEngine.GetInterface()==NULL)&&(m_RecordDataBaseEngine.CreateInstance()==false))

  001bc	8b 4d fc	 mov	 ecx, DWORD PTR _this$[ebp]
  001bf	81 c1 18 f8 02
	00		 add	 ecx, 194584		; 0002f818H
  001c5	e8 00 00 00 00	 call	 ?GetInterface@?$CTempldateHelper@UIDataBaseEngine@@@@QBEPAUIDataBaseEngine@@XZ ; CTempldateHelper<IDataBaseEngine>::GetInterface
  001ca	85 c0		 test	 eax, eax
  001cc	75 36		 jne	 SHORT $LN8@CreateServ
  001ce	8b 4d fc	 mov	 ecx, DWORD PTR _this$[ebp]
  001d1	81 c1 18 f8 02
	00		 add	 ecx, 194584		; 0002f818H
  001d7	e8 00 00 00 00	 call	 ?CreateInstance@?$CTempldateHelper@UIDataBaseEngine@@@@QAE_NXZ ; CTempldateHelper<IDataBaseEngine>::CreateInstance
  001dc	0f b6 c0	 movzx	 eax, al
  001df	85 c0		 test	 eax, eax
  001e1	75 21		 jne	 SHORT $LN8@CreateServ

; 231  : 	{
; 232  : 		CTraceService::TraceString(m_RecordDataBaseEngine.GetErrorDescribe(),TraceLevel_Exception);

  001e3	6a 03		 push	 3
  001e5	8b 4d fc	 mov	 ecx, DWORD PTR _this$[ebp]
  001e8	81 c1 18 f8 02
	00		 add	 ecx, 194584		; 0002f818H
  001ee	e8 00 00 00 00	 call	 ?GetErrorDescribe@?$CTempldateHelper@UIDataBaseEngine@@@@QBEPBDXZ ; CTempldateHelper<IDataBaseEngine>::GetErrorDescribe
  001f3	50		 push	 eax
  001f4	ff 15 00 00 00
	00		 call	 DWORD PTR __imp_?TraceString@CTraceService@@SA_NPBDW4enTraceLevel@@@Z
  001fa	83 c4 08	 add	 esp, 8

; 233  : 		return false;

  001fd	32 c0		 xor	 al, al
  001ff	e9 02 01 00 00	 jmp	 $LN1@CreateServ
$LN8@CreateServ:

; 234  : 	}
; 235  : 
; 236  : 	//游戏模块
; 237  : 	if ((m_GameServiceManager.GetInterface()==NULL)&&(m_GameServiceManager.CreateInstance()==false))

  00204	8b 4d fc	 mov	 ecx, DWORD PTR _this$[ebp]
  00207	81 c1 00 05 03
	00		 add	 ecx, 197888		; 00030500H
  0020d	e8 00 00 00 00	 call	 ?GetInterface@?$CTempldateHelper@UIGameServiceManager@@@@QBEPAUIGameServiceManager@@XZ ; CTempldateHelper<IGameServiceManager>::GetInterface
  00212	85 c0		 test	 eax, eax
  00214	75 36		 jne	 SHORT $LN9@CreateServ
  00216	8b 4d fc	 mov	 ecx, DWORD PTR _this$[ebp]
  00219	81 c1 00 05 03
	00		 add	 ecx, 197888		; 00030500H
  0021f	e8 00 00 00 00	 call	 ?CreateInstance@?$CTempldateHelper@UIGameServiceManager@@@@QAE_NXZ ; CTempldateHelper<IGameServiceManager>::CreateInstance
  00224	0f b6 c0	 movzx	 eax, al
  00227	85 c0		 test	 eax, eax
  00229	75 21		 jne	 SHORT $LN9@CreateServ

; 238  : 	{
; 239  : 		CTraceService::TraceString(m_GameServiceManager.GetErrorDescribe(),TraceLevel_Exception);

  0022b	6a 03		 push	 3
  0022d	8b 4d fc	 mov	 ecx, DWORD PTR _this$[ebp]
  00230	81 c1 00 05 03
	00		 add	 ecx, 197888		; 00030500H
  00236	e8 00 00 00 00	 call	 ?GetErrorDescribe@?$CTempldateHelper@UIGameServiceManager@@@@QBEPBDXZ ; CTempldateHelper<IGameServiceManager>::GetErrorDescribe
  0023b	50		 push	 eax
  0023c	ff 15 00 00 00
	00		 call	 DWORD PTR __imp_?TraceString@CTraceService@@SA_NPBDW4enTraceLevel@@@Z
  00242	83 c4 08	 add	 esp, 8

; 240  : 		return false;

  00245	32 c0		 xor	 al, al
  00247	e9 ba 00 00 00	 jmp	 $LN1@CreateServ
$LN9@CreateServ:

; 241  : 	}
; 242  : 
; 243  : 	//比赛模块
; 244  : 	if ((m_GameServiceOption.wServerType&GAME_GENRE_MATCH)!=0)

  0024c	8b 45 fc	 mov	 eax, DWORD PTR _this$[ebp]
  0024f	0f b7 88 ac 03
	00 00		 movzx	 ecx, WORD PTR [eax+940]
  00256	83 e1 04	 and	 ecx, 4
  00259	74 45		 je	 SHORT $LN10@CreateServ

; 245  : 	{
; 246  : 		if ((m_MatchServiceManager.GetInterface()==NULL)&&(m_MatchServiceManager.CreateInstance()==false))

  0025b	8b 4d fc	 mov	 ecx, DWORD PTR _this$[ebp]
  0025e	81 c1 d8 06 03
	00		 add	 ecx, 198360		; 000306d8H
  00264	e8 00 00 00 00	 call	 ?GetInterface@?$CTempldateHelper@UIMatchServiceManager@@@@QBEPAUIMatchServiceManager@@XZ ; CTempldateHelper<IMatchServiceManager>::GetInterface
  00269	85 c0		 test	 eax, eax
  0026b	75 33		 jne	 SHORT $LN10@CreateServ
  0026d	8b 4d fc	 mov	 ecx, DWORD PTR _this$[ebp]
  00270	81 c1 d8 06 03
	00		 add	 ecx, 198360		; 000306d8H
  00276	e8 00 00 00 00	 call	 ?CreateInstance@?$CTempldateHelper@UIMatchServiceManager@@@@QAE_NXZ ; CTempldateHelper<IMatchServiceManager>::CreateInstance
  0027b	0f b6 c0	 movzx	 eax, al
  0027e	85 c0		 test	 eax, eax
  00280	75 1e		 jne	 SHORT $LN10@CreateServ

; 247  : 		{
; 248  : 			CTraceService::TraceString(m_MatchServiceManager.GetErrorDescribe(),TraceLevel_Exception);

  00282	6a 03		 push	 3
  00284	8b 4d fc	 mov	 ecx, DWORD PTR _this$[ebp]
  00287	81 c1 d8 06 03
	00		 add	 ecx, 198360		; 000306d8H
  0028d	e8 00 00 00 00	 call	 ?GetErrorDescribe@?$CTempldateHelper@UIMatchServiceManager@@@@QBEPBDXZ ; CTempldateHelper<IMatchServiceManager>::GetErrorDescribe
  00292	50		 push	 eax
  00293	ff 15 00 00 00
	00		 call	 DWORD PTR __imp_?TraceString@CTraceService@@SA_NPBDW4enTraceLevel@@@Z
  00299	83 c4 08	 add	 esp, 8

; 249  : 			return false;

  0029c	32 c0		 xor	 al, al
  0029e	eb 66		 jmp	 SHORT $LN1@CreateServ
$LN10@CreateServ:

; 250  : 		}
; 251  : 	}
; 252  : 
; 253  : 	//约战模块
; 254  : 	if ((m_GameServiceOption.wServerType&GAME_GENRE_PERSONAL)!=0)

  002a0	8b 45 fc	 mov	 eax, DWORD PTR _this$[ebp]
  002a3	0f b7 88 ac 03
	00 00		 movzx	 ecx, WORD PTR [eax+940]
  002aa	83 e1 10	 and	 ecx, 16			; 00000010H
  002ad	74 55		 je	 SHORT $LN12@CreateServ

; 255  : 	{
; 256  : 		if ((m_PersonalRoomServiceManager.GetInterface()==NULL)&&(m_PersonalRoomServiceManager.CreateInstance()==false))

  002af	8b 4d fc	 mov	 ecx, DWORD PTR _this$[ebp]
  002b2	81 c1 b0 08 03
	00		 add	 ecx, 198832		; 000308b0H
  002b8	e8 00 00 00 00	 call	 ?GetInterface@?$CTempldateHelper@UIPersonalRoomServiceManager@@@@QBEPAUIPersonalRoomServiceManager@@XZ ; CTempldateHelper<IPersonalRoomServiceManager>::GetInterface
  002bd	85 c0		 test	 eax, eax
  002bf	75 43		 jne	 SHORT $LN12@CreateServ
  002c1	8b 4d fc	 mov	 ecx, DWORD PTR _this$[ebp]
  002c4	81 c1 b0 08 03
	00		 add	 ecx, 198832		; 000308b0H
  002ca	e8 00 00 00 00	 call	 ?CreateInstance@?$CTempldateHelper@UIPersonalRoomServiceManager@@@@QAE_NXZ ; CTempldateHelper<IPersonalRoomServiceManager>::CreateInstance
  002cf	0f b6 c0	 movzx	 eax, al
  002d2	85 c0		 test	 eax, eax
  002d4	75 2e		 jne	 SHORT $LN12@CreateServ

; 257  : 		{
; 258  : 			CTraceService::TraceString(TEXT("约战服务启动失败"),TraceLevel_Exception);

  002d6	6a 03		 push	 3
  002d8	68 00 00 00 00	 push	 OFFSET ??_C@_0BB@CINGBLJB@?T?$LM?U?$LN?$LH?$PO?N?q?F?t?$LG?$KP?J?$KH?$LA?$NM@
  002dd	ff 15 00 00 00
	00		 call	 DWORD PTR __imp_?TraceString@CTraceService@@SA_NPBDW4enTraceLevel@@@Z
  002e3	83 c4 08	 add	 esp, 8

; 259  : 			CTraceService::TraceString(m_PersonalRoomServiceManager.GetErrorDescribe(),TraceLevel_Exception);

  002e6	6a 03		 push	 3
  002e8	8b 4d fc	 mov	 ecx, DWORD PTR _this$[ebp]
  002eb	81 c1 b0 08 03
	00		 add	 ecx, 198832		; 000308b0H
  002f1	e8 00 00 00 00	 call	 ?GetErrorDescribe@?$CTempldateHelper@UIPersonalRoomServiceManager@@@@QBEPBDXZ ; CTempldateHelper<IPersonalRoomServiceManager>::GetErrorDescribe
  002f6	50		 push	 eax
  002f7	ff 15 00 00 00
	00		 call	 DWORD PTR __imp_?TraceString@CTraceService@@SA_NPBDW4enTraceLevel@@@Z
  002fd	83 c4 08	 add	 esp, 8

; 260  : 			return false;

  00300	32 c0		 xor	 al, al
  00302	eb 02		 jmp	 SHORT $LN1@CreateServ
$LN12@CreateServ:

; 261  : 		}
; 262  : 	}
; 263  : 
; 264  : 	return true;

  00304	b0 01		 mov	 al, 1
$LN1@CreateServ:

; 265  : }

  00306	5f		 pop	 edi
  00307	5e		 pop	 esi
  00308	5b		 pop	 ebx
  00309	8b e5		 mov	 esp, ebp
  0030b	5d		 pop	 ebp
  0030c	c3		 ret	 0
?CreateServiceDLL@CServiceUnits@@IAE_NXZ ENDP		; CServiceUnits::CreateServiceDLL
_TEXT	ENDS
; Function compile flags: /Odtp /ZI
; File g:\网狐\happygamewh\服务端\系统模块\服务器组件\游戏服务器\serviceunits.cpp
;	COMDAT ?LoadDataBaseParameter@CServiceUnits@@QAE_NPBD0AAUtagDataBaseParameter@@@Z
_TEXT	SEGMENT
tv154 = -2000						; size = 4
tv270 = -1996						; size = 4
tv134 = -1996						; size = 4
tv69 = -1996						; size = 4
tv65 = -1996						; size = 4
tv271 = -1994						; size = 2
$T2 = -1992						; size = 1
$T3 = -1991						; size = 1
$T4 = -1990						; size = 1
$T5 = -1989						; size = 1
_pszDescribe$6 = -1732					; size = 4
_pIException$7 = -1728					; size = 4
_szDataBasePass$8 = -1724				; size = 32
_szDataBaseUser$9 = -1692				; size = 32
_szDBPassRead$10 = -1660				; size = 512
_szDBUserRead$11 = -1148				; size = 512
_szErrorDescribe$12 = -636				; size = 128
_pPlatformDBParameter$ = -508				; size = 4
_PlatformDBModule$ = -504				; size = 472
_PlatformDBAide$ = -32					; size = 8
_this$ = -24						; size = 4
__$ArrayPad$ = -20					; size = 4
__$EHRec$ = -16						; size = 16
_pszDataBaseAddr$ = 8					; size = 4
_pszDataBaseName$ = 12					; size = 4
_DataBaseParameter$ = 16				; size = 4
?LoadDataBaseParameter@CServiceUnits@@QAE_NPBD0AAUtagDataBaseParameter@@@Z PROC ; CServiceUnits::LoadDataBaseParameter, COMDAT
; _this$ = ecx

; 639  : {

  00000	55		 push	 ebp
  00001	8b ec		 mov	 ebp, esp
  00003	6a ff		 push	 -1
  00005	68 00 00 00 00	 push	 __ehhandler$?LoadDataBaseParameter@CServiceUnits@@QAE_NPBD0AAUtagDataBaseParameter@@@Z
  0000a	64 a1 00 00 00
	00		 mov	 eax, DWORD PTR fs:0
  00010	50		 push	 eax
  00011	51		 push	 ecx
  00012	81 ec c0 07 00
	00		 sub	 esp, 1984		; 000007c0H
  00018	a1 00 00 00 00	 mov	 eax, DWORD PTR ___security_cookie
  0001d	33 c5		 xor	 eax, ebp
  0001f	89 45 ec	 mov	 DWORD PTR __$ArrayPad$[ebp], eax
  00022	53		 push	 ebx
  00023	56		 push	 esi
  00024	57		 push	 edi
  00025	50		 push	 eax
  00026	8d 45 f4	 lea	 eax, DWORD PTR __$EHRec$[ebp+4]
  00029	64 a3 00 00 00
	00		 mov	 DWORD PTR fs:0, eax
  0002f	89 65 f0	 mov	 DWORD PTR __$EHRec$[ebp], esp
  00032	89 4d e8	 mov	 DWORD PTR _this$[ebp], ecx

; 640  : 	//变量定义
; 641  : 	CDataBaseAide PlatformDBAide;

  00035	6a 00		 push	 0
  00037	8d 4d e0	 lea	 ecx, DWORD PTR _PlatformDBAide$[ebp]
  0003a	ff 15 00 00 00
	00		 call	 DWORD PTR __imp_??0CDataBaseAide@@QAE@PAUIUnknownEx@@@Z
  00040	c7 45 fc 00 00
	00 00		 mov	 DWORD PTR __$EHRec$[ebp+12], 0

; 642  : 	CDataBaseHelper PlatformDBModule;

  00047	8d 8d 08 fe ff
	ff		 lea	 ecx, DWORD PTR _PlatformDBModule$[ebp]
  0004d	e8 00 00 00 00	 call	 ??0CDataBaseHelper@@QAE@XZ ; CDataBaseHelper::CDataBaseHelper
  00052	c6 45 fc 01	 mov	 BYTE PTR __$EHRec$[ebp+12], 1

; 643  : 
; 644  : 	//创建对象
; 645  : 	if ((PlatformDBModule.GetInterface()==NULL)&&(PlatformDBModule.CreateInstance()==false))

  00056	8d 8d 08 fe ff
	ff		 lea	 ecx, DWORD PTR _PlatformDBModule$[ebp]
  0005c	e8 00 00 00 00	 call	 ?GetInterface@?$CTempldateHelper@UIDataBase@@@@QBEPAUIDataBase@@XZ ; CTempldateHelper<IDataBase>::GetInterface
  00061	85 c0		 test	 eax, eax
  00063	75 60		 jne	 SHORT $LN2@LoadDataBa
  00065	8d 8d 08 fe ff
	ff		 lea	 ecx, DWORD PTR _PlatformDBModule$[ebp]
  0006b	e8 00 00 00 00	 call	 ?CreateInstance@?$CTempldateHelper@UIDataBase@@@@QAE_NXZ ; CTempldateHelper<IDataBase>::CreateInstance
  00070	0f b6 c0	 movzx	 eax, al
  00073	85 c0		 test	 eax, eax
  00075	75 4e		 jne	 SHORT $LN2@LoadDataBa

; 646  : 	{
; 647  : 		ASSERT(FALSE);

  00077	33 c0		 xor	 eax, eax
  00079	75 19		 jne	 SHORT $LN6@LoadDataBa
  0007b	8b 0d 00 00 00
	00		 mov	 ecx, DWORD PTR ?__LINE__Var@?0??LoadDataBaseParameter@CServiceUnits@@QAE_NPBD0AAUtagDataBaseParameter@@@Z@4JA
  00081	83 c1 08	 add	 ecx, 8
  00084	51		 push	 ecx
  00085	68 00 00 00 00	 push	 OFFSET ??_C@_0EL@IDOGNJLC@g?3?2?M?x?$LK?$PM?2happygamewh?2?$LH?$PO?N?q?$LG?K?2?O?$LF?M?$LD@
  0008a	e8 00 00 00 00	 call	 ?AfxAssertFailedLine@@YGHPBDH@Z ; AfxAssertFailedLine
  0008f	85 c0		 test	 eax, eax
  00091	74 01		 je	 SHORT $LN6@LoadDataBa
  00093	cc		 int	 3
$LN6@LoadDataBa:

; 648  : 		return false;

  00094	c6 85 3b f8 ff
	ff 00		 mov	 BYTE PTR $T5[ebp], 0
  0009b	c6 45 fc 00	 mov	 BYTE PTR __$EHRec$[ebp+12], 0
  0009f	8d 8d 08 fe ff
	ff		 lea	 ecx, DWORD PTR _PlatformDBModule$[ebp]
  000a5	e8 00 00 00 00	 call	 ??1CDataBaseHelper@@UAE@XZ
  000aa	c7 45 fc ff ff
	ff ff		 mov	 DWORD PTR __$EHRec$[ebp+12], -1
  000b1	8d 4d e0	 lea	 ecx, DWORD PTR _PlatformDBAide$[ebp]
  000b4	ff 15 00 00 00
	00		 call	 DWORD PTR __imp_??1CDataBaseAide@@UAE@XZ
  000ba	8a 85 3b f8 ff
	ff		 mov	 al, BYTE PTR $T5[ebp]
  000c0	e9 87 03 00 00	 jmp	 $LN1@LoadDataBa
$LN2@LoadDataBa:

; 649  : 	}
; 650  : 
; 651  : 	//变量定义
; 652  : 	tagDataBaseParameter * pPlatformDBParameter=&m_InitParameter.m_PlatformDBParameter;

  000c5	8b 45 e8	 mov	 eax, DWORD PTR _this$[ebp]
  000c8	05 92 01 00 00	 add	 eax, 402		; 00000192H
  000cd	89 85 04 fe ff
	ff		 mov	 DWORD PTR _pPlatformDBParameter$[ebp], eax

; 653  : 
; 654  : 	//设置连接
; 655  : 	PlatformDBModule->SetConnectionInfo(pPlatformDBParameter->szDataBaseAddr,pPlatformDBParameter->wDataBasePort,

  000d3	8d 8d 08 fe ff
	ff		 lea	 ecx, DWORD PTR _PlatformDBModule$[ebp]
  000d9	e8 00 00 00 00	 call	 ??C?$CTempldateHelper@UIDataBase@@@@QBEPAUIDataBase@@XZ ; CTempldateHelper<IDataBase>::operator->
  000de	89 85 34 f8 ff
	ff		 mov	 DWORD PTR tv134[ebp], eax
  000e4	8b 85 04 fe ff
	ff		 mov	 eax, DWORD PTR _pPlatformDBParameter$[ebp]
  000ea	83 c0 42	 add	 eax, 66			; 00000042H
  000ed	50		 push	 eax
  000ee	8b 8d 04 fe ff
	ff		 mov	 ecx, DWORD PTR _pPlatformDBParameter$[ebp]
  000f4	83 c1 22	 add	 ecx, 34			; 00000022H
  000f7	51		 push	 ecx
  000f8	8b 95 04 fe ff
	ff		 mov	 edx, DWORD PTR _pPlatformDBParameter$[ebp]
  000fe	83 c2 62	 add	 edx, 98			; 00000062H
  00101	52		 push	 edx
  00102	8b 85 04 fe ff
	ff		 mov	 eax, DWORD PTR _pPlatformDBParameter$[ebp]
  00108	0f b7 08	 movzx	 ecx, WORD PTR [eax]
  0010b	51		 push	 ecx
  0010c	8b 95 04 fe ff
	ff		 mov	 edx, DWORD PTR _pPlatformDBParameter$[ebp]
  00112	83 c2 02	 add	 edx, 2
  00115	52		 push	 edx
  00116	8b 85 34 f8 ff
	ff		 mov	 eax, DWORD PTR tv134[ebp]
  0011c	8b 10		 mov	 edx, DWORD PTR [eax]
  0011e	8b 8d 34 f8 ff
	ff		 mov	 ecx, DWORD PTR tv134[ebp]
  00124	8b 42 10	 mov	 eax, DWORD PTR [edx+16]
  00127	ff d0		 call	 eax

; 656  : 		pPlatformDBParameter->szDataBaseName,pPlatformDBParameter->szDataBaseUser,pPlatformDBParameter->szDataBasePass);
; 657  : 
; 658  : 	//获取信息
; 659  : 	try

  00129	c6 45 fc 02	 mov	 BYTE PTR __$EHRec$[ebp+12], 2

; 660  : 	{
; 661  : 		//发起连接
; 662  : 		PlatformDBModule->OpenConnection();

  0012d	8d 8d 08 fe ff
	ff		 lea	 ecx, DWORD PTR _PlatformDBModule$[ebp]
  00133	e8 00 00 00 00	 call	 ??C?$CTempldateHelper@UIDataBase@@@@QBEPAUIDataBase@@XZ ; CTempldateHelper<IDataBase>::operator->
  00138	89 85 34 f8 ff
	ff		 mov	 DWORD PTR tv69[ebp], eax
  0013e	8b 85 34 f8 ff
	ff		 mov	 eax, DWORD PTR tv69[ebp]
  00144	89 85 30 f8 ff
	ff		 mov	 DWORD PTR tv154[ebp], eax
  0014a	8b 8d 30 f8 ff
	ff		 mov	 ecx, DWORD PTR tv154[ebp]
  00150	8b 11		 mov	 edx, DWORD PTR [ecx]
  00152	8b 8d 30 f8 ff
	ff		 mov	 ecx, DWORD PTR tv154[ebp]
  00158	8b 42 08	 mov	 eax, DWORD PTR [edx+8]
  0015b	ff d0		 call	 eax

; 663  : 		PlatformDBAide.SetDataBase(PlatformDBModule.GetInterface());

  0015d	8d 8d 08 fe ff
	ff		 lea	 ecx, DWORD PTR _PlatformDBModule$[ebp]
  00163	e8 00 00 00 00	 call	 ?GetInterface@?$CTempldateHelper@UIDataBase@@@@QBEPAUIDataBase@@XZ ; CTempldateHelper<IDataBase>::GetInterface
  00168	89 85 34 f8 ff
	ff		 mov	 DWORD PTR tv65[ebp], eax
  0016e	8b 85 34 f8 ff
	ff		 mov	 eax, DWORD PTR tv65[ebp]
  00174	50		 push	 eax
  00175	8d 4d e0	 lea	 ecx, DWORD PTR _PlatformDBAide$[ebp]
  00178	ff 15 00 00 00
	00		 call	 DWORD PTR __imp_?SetDataBase@CDataBaseAide@@QAE_NPAUIUnknownEx@@@Z

; 664  : 
; 665  : 		//连接信息
; 666  : 		PlatformDBAide.ResetParameter();

  0017e	8d 4d e0	 lea	 ecx, DWORD PTR _PlatformDBAide$[ebp]
  00181	ff 15 00 00 00
	00		 call	 DWORD PTR __imp_?ResetParameter@CDataBaseAide@@QAEXXZ

; 667  : 		PlatformDBAide.AddParameter(TEXT("@strDataBaseAddr"),pszDataBaseAddr);

  00187	6a 01		 push	 1
  00189	8b 45 08	 mov	 eax, DWORD PTR _pszDataBaseAddr$[ebp]
  0018c	50		 push	 eax
  0018d	68 00 00 00 00	 push	 OFFSET ??_C@_0BB@EOFIIHMB@?$EAstrDataBaseAddr@
  00192	8d 4d e0	 lea	 ecx, DWORD PTR _PlatformDBAide$[ebp]
  00195	ff 15 00 00 00
	00		 call	 DWORD PTR __imp_?AddParameter@CDataBaseAide@@QAEXPBD0W4ParameterDirectionEnum@ADOCG@@@Z

; 668  : 
; 669  : 		//执行查询
; 670  : 		if (PlatformDBAide.ExecuteProcess(TEXT("GSP_GS_LoadDataBaseInfo"),true)!=DB_SUCCESS)

  0019b	6a 01		 push	 1
  0019d	68 00 00 00 00	 push	 OFFSET ??_C@_0BI@EBKHBLK@GSP_GS_LoadDataBaseInfo@
  001a2	8d 4d e0	 lea	 ecx, DWORD PTR _PlatformDBAide$[ebp]
  001a5	ff 15 00 00 00
	00		 call	 DWORD PTR __imp_?ExecuteProcess@CDataBaseAide@@QAEJPBD_N@Z
  001ab	89 85 34 f8 ff
	ff		 mov	 DWORD PTR tv270[ebp], eax
  001b1	83 bd 34 f8 ff
	ff 00		 cmp	 DWORD PTR tv270[ebp], 0
  001b8	74 7b		 je	 SHORT $LN4@LoadDataBa

; 671  : 		{
; 672  : 			//构造信息
; 673  : 			TCHAR szErrorDescribe[128]=TEXT("");

  001ba	a0 00 00 00 00	 mov	 al, BYTE PTR ??_C@_00CNPNBAHC@@
  001bf	88 85 84 fd ff
	ff		 mov	 BYTE PTR _szErrorDescribe$12[ebp], al
  001c5	6a 7f		 push	 127			; 0000007fH
  001c7	6a 00		 push	 0
  001c9	8d 85 85 fd ff
	ff		 lea	 eax, DWORD PTR _szErrorDescribe$12[ebp+1]
  001cf	50		 push	 eax
  001d0	e8 00 00 00 00	 call	 _memset
  001d5	83 c4 0c	 add	 esp, 12			; 0000000cH

; 674  : 			PlatformDBAide.GetValue_String(TEXT("ErrorDescribe"),szErrorDescribe,CountArray(szErrorDescribe));

  001d8	68 80 00 00 00	 push	 128			; 00000080H
  001dd	8d 85 84 fd ff
	ff		 lea	 eax, DWORD PTR _szErrorDescribe$12[ebp]
  001e3	50		 push	 eax
  001e4	68 00 00 00 00	 push	 OFFSET ??_C@_0O@BGGHDOEH@ErrorDescribe@
  001e9	8d 4d e0	 lea	 ecx, DWORD PTR _PlatformDBAide$[ebp]
  001ec	ff 15 00 00 00
	00		 call	 DWORD PTR __imp_?GetValue_String@CDataBaseAide@@QAEXPBDPADI@Z

; 675  : 
; 676  : 			//提示消息
; 677  : 			CTraceService::TraceString(szErrorDescribe,TraceLevel_Exception);

  001f2	6a 03		 push	 3
  001f4	8d 85 84 fd ff
	ff		 lea	 eax, DWORD PTR _szErrorDescribe$12[ebp]
  001fa	50		 push	 eax
  001fb	ff 15 00 00 00
	00		 call	 DWORD PTR __imp_?TraceString@CTraceService@@SA_NPBDW4enTraceLevel@@@Z
  00201	83 c4 08	 add	 esp, 8

; 678  : 
; 679  : 			return false;

  00204	c6 85 3a f8 ff
	ff 00		 mov	 BYTE PTR $T4[ebp], 0
  0020b	c6 45 fc 00	 mov	 BYTE PTR __$EHRec$[ebp+12], 0
  0020f	8d 8d 08 fe ff
	ff		 lea	 ecx, DWORD PTR _PlatformDBModule$[ebp]
  00215	e8 00 00 00 00	 call	 ??1CDataBaseHelper@@UAE@XZ
  0021a	c7 45 fc ff ff
	ff ff		 mov	 DWORD PTR __$EHRec$[ebp+12], -1
  00221	8d 4d e0	 lea	 ecx, DWORD PTR _PlatformDBAide$[ebp]
  00224	ff 15 00 00 00
	00		 call	 DWORD PTR __imp_??1CDataBaseAide@@UAE@XZ
  0022a	8a 85 3a f8 ff
	ff		 mov	 al, BYTE PTR $T4[ebp]
  00230	e9 17 02 00 00	 jmp	 $LN1@LoadDataBa
$LN4@LoadDataBa:

; 680  : 		}
; 681  : 
; 682  : 		//读取密文
; 683  : 		TCHAR szDBUserRead[512]=TEXT(""),szDBPassRead[512]=TEXT("");

  00235	a0 00 00 00 00	 mov	 al, BYTE PTR ??_C@_00CNPNBAHC@@
  0023a	88 85 84 fb ff
	ff		 mov	 BYTE PTR _szDBUserRead$11[ebp], al
  00240	68 ff 01 00 00	 push	 511			; 000001ffH
  00245	6a 00		 push	 0
  00247	8d 85 85 fb ff
	ff		 lea	 eax, DWORD PTR _szDBUserRead$11[ebp+1]
  0024d	50		 push	 eax
  0024e	e8 00 00 00 00	 call	 _memset
  00253	83 c4 0c	 add	 esp, 12			; 0000000cH
  00256	a0 00 00 00 00	 mov	 al, BYTE PTR ??_C@_00CNPNBAHC@@
  0025b	88 85 84 f9 ff
	ff		 mov	 BYTE PTR _szDBPassRead$10[ebp], al
  00261	68 ff 01 00 00	 push	 511			; 000001ffH
  00266	6a 00		 push	 0
  00268	8d 85 85 f9 ff
	ff		 lea	 eax, DWORD PTR _szDBPassRead$10[ebp+1]
  0026e	50		 push	 eax
  0026f	e8 00 00 00 00	 call	 _memset
  00274	83 c4 0c	 add	 esp, 12			; 0000000cH

; 684  : 		PlatformDBAide.GetValue_String(TEXT("DBUser"),szDBUserRead,CountArray(szDBUserRead));

  00277	68 00 02 00 00	 push	 512			; 00000200H
  0027c	8d 85 84 fb ff
	ff		 lea	 eax, DWORD PTR _szDBUserRead$11[ebp]
  00282	50		 push	 eax
  00283	68 00 00 00 00	 push	 OFFSET ??_C@_06EKCLIHPK@DBUser@
  00288	8d 4d e0	 lea	 ecx, DWORD PTR _PlatformDBAide$[ebp]
  0028b	ff 15 00 00 00
	00		 call	 DWORD PTR __imp_?GetValue_String@CDataBaseAide@@QAEXPBDPADI@Z

; 685  : 		PlatformDBAide.GetValue_String(TEXT("DBPassword"),szDBPassRead,CountArray(szDBPassRead));

  00291	68 00 02 00 00	 push	 512			; 00000200H
  00296	8d 85 84 f9 ff
	ff		 lea	 eax, DWORD PTR _szDBPassRead$10[ebp]
  0029c	50		 push	 eax
  0029d	68 00 00 00 00	 push	 OFFSET ??_C@_0L@CINAGOHO@DBPassword@
  002a2	8d 4d e0	 lea	 ecx, DWORD PTR _PlatformDBAide$[ebp]
  002a5	ff 15 00 00 00
	00		 call	 DWORD PTR __imp_?GetValue_String@CDataBaseAide@@QAEXPBDPADI@Z

; 686  : 
; 687  : 		//获取信息
; 688  : 		DataBaseParameter.wDataBasePort=PlatformDBAide.GetValue_WORD(TEXT("DBPort"));

  002ab	68 00 00 00 00	 push	 OFFSET ??_C@_06NHDHPCNO@DBPort@
  002b0	8d 4d e0	 lea	 ecx, DWORD PTR _PlatformDBAide$[ebp]
  002b3	ff 15 00 00 00
	00		 call	 DWORD PTR __imp_?GetValue_WORD@CDataBaseAide@@QAEGPBD@Z
  002b9	66 89 85 36 f8
	ff ff		 mov	 WORD PTR tv271[ebp], ax
  002c0	8b 45 10	 mov	 eax, DWORD PTR _DataBaseParameter$[ebp]
  002c3	66 8b 8d 36 f8
	ff ff		 mov	 cx, WORD PTR tv271[ebp]
  002ca	66 89 08	 mov	 WORD PTR [eax], cx

; 689  : 		lstrcpyn(DataBaseParameter.szDataBaseAddr,pszDataBaseAddr,CountArray(DataBaseParameter.szDataBaseAddr));

  002cd	6a 20		 push	 32			; 00000020H
  002cf	8b 45 08	 mov	 eax, DWORD PTR _pszDataBaseAddr$[ebp]
  002d2	50		 push	 eax
  002d3	8b 4d 10	 mov	 ecx, DWORD PTR _DataBaseParameter$[ebp]
  002d6	83 c1 02	 add	 ecx, 2
  002d9	51		 push	 ecx
  002da	ff 15 00 00 00
	00		 call	 DWORD PTR __imp__lstrcpynA@12

; 690  : 		lstrcpyn(DataBaseParameter.szDataBaseName,pszDataBaseName,CountArray(DataBaseParameter.szDataBaseName));

  002e0	6a 20		 push	 32			; 00000020H
  002e2	8b 45 0c	 mov	 eax, DWORD PTR _pszDataBaseName$[ebp]
  002e5	50		 push	 eax
  002e6	8b 4d 10	 mov	 ecx, DWORD PTR _DataBaseParameter$[ebp]
  002e9	83 c1 62	 add	 ecx, 98			; 00000062H
  002ec	51		 push	 ecx
  002ed	ff 15 00 00 00
	00		 call	 DWORD PTR __imp__lstrcpynA@12

; 691  : 
; 692  : 		//解密密文
; 693  : 		TCHAR szDataBaseUser[32]=TEXT(""),szDataBasePass[32]=TEXT("");

  002f3	a0 00 00 00 00	 mov	 al, BYTE PTR ??_C@_00CNPNBAHC@@
  002f8	88 85 64 f9 ff
	ff		 mov	 BYTE PTR _szDataBaseUser$9[ebp], al
  002fe	33 c0		 xor	 eax, eax
  00300	89 85 65 f9 ff
	ff		 mov	 DWORD PTR _szDataBaseUser$9[ebp+1], eax
  00306	89 85 69 f9 ff
	ff		 mov	 DWORD PTR _szDataBaseUser$9[ebp+5], eax
  0030c	89 85 6d f9 ff
	ff		 mov	 DWORD PTR _szDataBaseUser$9[ebp+9], eax
  00312	89 85 71 f9 ff
	ff		 mov	 DWORD PTR _szDataBaseUser$9[ebp+13], eax
  00318	89 85 75 f9 ff
	ff		 mov	 DWORD PTR _szDataBaseUser$9[ebp+17], eax
  0031e	89 85 79 f9 ff
	ff		 mov	 DWORD PTR _szDataBaseUser$9[ebp+21], eax
  00324	89 85 7d f9 ff
	ff		 mov	 DWORD PTR _szDataBaseUser$9[ebp+25], eax
  0032a	66 89 85 81 f9
	ff ff		 mov	 WORD PTR _szDataBaseUser$9[ebp+29], ax
  00331	88 85 83 f9 ff
	ff		 mov	 BYTE PTR _szDataBaseUser$9[ebp+31], al
  00337	a0 00 00 00 00	 mov	 al, BYTE PTR ??_C@_00CNPNBAHC@@
  0033c	88 85 44 f9 ff
	ff		 mov	 BYTE PTR _szDataBasePass$8[ebp], al
  00342	33 c0		 xor	 eax, eax
  00344	89 85 45 f9 ff
	ff		 mov	 DWORD PTR _szDataBasePass$8[ebp+1], eax
  0034a	89 85 49 f9 ff
	ff		 mov	 DWORD PTR _szDataBasePass$8[ebp+5], eax
  00350	89 85 4d f9 ff
	ff		 mov	 DWORD PTR _szDataBasePass$8[ebp+9], eax
  00356	89 85 51 f9 ff
	ff		 mov	 DWORD PTR _szDataBasePass$8[ebp+13], eax
  0035c	89 85 55 f9 ff
	ff		 mov	 DWORD PTR _szDataBasePass$8[ebp+17], eax
  00362	89 85 59 f9 ff
	ff		 mov	 DWORD PTR _szDataBasePass$8[ebp+21], eax
  00368	89 85 5d f9 ff
	ff		 mov	 DWORD PTR _szDataBasePass$8[ebp+25], eax
  0036e	66 89 85 61 f9
	ff ff		 mov	 WORD PTR _szDataBasePass$8[ebp+29], ax
  00375	88 85 63 f9 ff
	ff		 mov	 BYTE PTR _szDataBasePass$8[ebp+31], al

; 694  : 		CWHEncrypt::XorCrevasse(szDBUserRead,DataBaseParameter.szDataBaseUser,CountArray(DataBaseParameter.szDataBaseUser));

  0037b	6a 20		 push	 32			; 00000020H
  0037d	8b 45 10	 mov	 eax, DWORD PTR _DataBaseParameter$[ebp]
  00380	83 c0 22	 add	 eax, 34			; 00000022H
  00383	50		 push	 eax
  00384	8d 8d 84 fb ff
	ff		 lea	 ecx, DWORD PTR _szDBUserRead$11[ebp]
  0038a	51		 push	 ecx
  0038b	ff 15 00 00 00
	00		 call	 DWORD PTR __imp_?XorCrevasse@CWHEncrypt@@SA_NPBDPADG@Z
  00391	83 c4 0c	 add	 esp, 12			; 0000000cH

; 695  : 		CWHEncrypt::XorCrevasse(szDBPassRead,DataBaseParameter.szDataBasePass,CountArray(DataBaseParameter.szDataBasePass));

  00394	6a 20		 push	 32			; 00000020H
  00396	8b 45 10	 mov	 eax, DWORD PTR _DataBaseParameter$[ebp]
  00399	83 c0 42	 add	 eax, 66			; 00000042H
  0039c	50		 push	 eax
  0039d	8d 8d 84 f9 ff
	ff		 lea	 ecx, DWORD PTR _szDBPassRead$10[ebp]
  003a3	51		 push	 ecx
  003a4	ff 15 00 00 00
	00		 call	 DWORD PTR __imp_?XorCrevasse@CWHEncrypt@@SA_NPBDPADG@Z
  003aa	83 c4 0c	 add	 esp, 12			; 0000000cH

; 696  : 	}

  003ad	eb 3e		 jmp	 SHORT $LN7@LoadDataBa
__catch$?LoadDataBaseParameter@CServiceUnits@@QAE_NPBD0AAUtagDataBaseParameter@@@Z$0:

; 697  : 	catch (IDataBaseException * pIException)
; 698  : 	{
; 699  : 		//错误信息
; 700  : 		LPCTSTR pszDescribe=pIException->GetExceptionDescribe();

  003af	8b 85 40 f9 ff
	ff		 mov	 eax, DWORD PTR _pIException$7[ebp]
  003b5	8b 10		 mov	 edx, DWORD PTR [eax]
  003b7	8b 8d 40 f9 ff
	ff		 mov	 ecx, DWORD PTR _pIException$7[ebp]
  003bd	8b 42 0c	 mov	 eax, DWORD PTR [edx+12]
  003c0	ff d0		 call	 eax
  003c2	89 85 3c f9 ff
	ff		 mov	 DWORD PTR _pszDescribe$6[ebp], eax

; 701  : 		CTraceService::TraceString(pszDescribe,TraceLevel_Exception);

  003c8	6a 03		 push	 3
  003ca	8b 85 3c f9 ff
	ff		 mov	 eax, DWORD PTR _pszDescribe$6[ebp]
  003d0	50		 push	 eax
  003d1	ff 15 00 00 00
	00		 call	 DWORD PTR __imp_?TraceString@CTraceService@@SA_NPBDW4enTraceLevel@@@Z
  003d7	83 c4 08	 add	 esp, 8

; 702  : 
; 703  : 		return false;

  003da	c6 85 39 f8 ff
	ff 00		 mov	 BYTE PTR $T3[ebp], 0
  003e1	b8 00 00 00 00	 mov	 eax, $LN12@LoadDataBa
  003e6	c3		 ret	 0

; 704  : 	}

  003e7	b8 00 00 00 00	 mov	 eax, $LN7@LoadDataBa
  003ec	c3		 ret	 0
$LN7@LoadDataBa:
  003ed	c7 45 fc 01 00
	00 00		 mov	 DWORD PTR __$EHRec$[ebp+12], 1
  003f4	eb 2a		 jmp	 SHORT $LN11@LoadDataBa
$LN12@LoadDataBa:

; 702  : 
; 703  : 		return false;

  003f6	c7 45 fc 00 00
	00 00		 mov	 DWORD PTR __$EHRec$[ebp+12], 0
  003fd	8d 8d 08 fe ff
	ff		 lea	 ecx, DWORD PTR _PlatformDBModule$[ebp]
  00403	e8 00 00 00 00	 call	 ??1CDataBaseHelper@@UAE@XZ
  00408	c7 45 fc ff ff
	ff ff		 mov	 DWORD PTR __$EHRec$[ebp+12], -1
  0040f	8d 4d e0	 lea	 ecx, DWORD PTR _PlatformDBAide$[ebp]
  00412	ff 15 00 00 00
	00		 call	 DWORD PTR __imp_??1CDataBaseAide@@UAE@XZ
  00418	8a 85 39 f8 ff
	ff		 mov	 al, BYTE PTR $T3[ebp]
  0041e	eb 2c		 jmp	 SHORT $LN1@LoadDataBa
$LN11@LoadDataBa:

; 705  : 
; 706  : 	return true;

  00420	c6 85 38 f8 ff
	ff 01		 mov	 BYTE PTR $T2[ebp], 1
  00427	c6 45 fc 00	 mov	 BYTE PTR __$EHRec$[ebp+12], 0
  0042b	8d 8d 08 fe ff
	ff		 lea	 ecx, DWORD PTR _PlatformDBModule$[ebp]
  00431	e8 00 00 00 00	 call	 ??1CDataBaseHelper@@UAE@XZ
  00436	c7 45 fc ff ff
	ff ff		 mov	 DWORD PTR __$EHRec$[ebp+12], -1
  0043d	8d 4d e0	 lea	 ecx, DWORD PTR _PlatformDBAide$[ebp]
  00440	ff 15 00 00 00
	00		 call	 DWORD PTR __imp_??1CDataBaseAide@@UAE@XZ
  00446	8a 85 38 f8 ff
	ff		 mov	 al, BYTE PTR $T2[ebp]
$LN1@LoadDataBa:

; 707  : }

  0044c	8b 4d f4	 mov	 ecx, DWORD PTR __$EHRec$[ebp+4]
  0044f	64 89 0d 00 00
	00 00		 mov	 DWORD PTR fs:0, ecx
  00456	59		 pop	 ecx
  00457	5f		 pop	 edi
  00458	5e		 pop	 esi
  00459	5b		 pop	 ebx
  0045a	8b 4d ec	 mov	 ecx, DWORD PTR __$ArrayPad$[ebp]
  0045d	33 cd		 xor	 ecx, ebp
  0045f	e8 00 00 00 00	 call	 @__security_check_cookie@4
  00464	8b e5		 mov	 esp, ebp
  00466	5d		 pop	 ebp
  00467	c2 0c 00	 ret	 12			; 0000000cH
_TEXT	ENDS
;	COMDAT text$x
text$x	SEGMENT
__unwindfunclet$?LoadDataBaseParameter@CServiceUnits@@QAE_NPBD0AAUtagDataBaseParameter@@@Z$2:
  00000	8d 4d e0	 lea	 ecx, DWORD PTR _PlatformDBAide$[ebp]
  00003	ff 25 00 00 00
	00		 jmp	 DWORD PTR __imp_??1CDataBaseAide@@UAE@XZ
__unwindfunclet$?LoadDataBaseParameter@CServiceUnits@@QAE_NPBD0AAUtagDataBaseParameter@@@Z$3:
  00009	8d 8d 08 fe ff
	ff		 lea	 ecx, DWORD PTR _PlatformDBModule$[ebp]
  0000f	e9 00 00 00 00	 jmp	 ??1CDataBaseHelper@@UAE@XZ
__ehhandler$?LoadDataBaseParameter@CServiceUnits@@QAE_NPBD0AAUtagDataBaseParameter@@@Z:
  00014	8b 54 24 08	 mov	 edx, DWORD PTR [esp+8]
  00018	8d 42 0c	 lea	 eax, DWORD PTR [edx+12]
  0001b	8b 8a 2c f8 ff
	ff		 mov	 ecx, DWORD PTR [edx-2004]
  00021	33 c8		 xor	 ecx, eax
  00023	e8 00 00 00 00	 call	 @__security_check_cookie@4
  00028	8b 4a f8	 mov	 ecx, DWORD PTR [edx-8]
  0002b	33 c8		 xor	 ecx, eax
  0002d	e8 00 00 00 00	 call	 @__security_check_cookie@4
  00032	b8 00 00 00 00	 mov	 eax, OFFSET __ehfuncinfo$?LoadDataBaseParameter@CServiceUnits@@QAE_NPBD0AAUtagDataBaseParameter@@@Z
  00037	e9 00 00 00 00	 jmp	 ___CxxFrameHandler3
text$x	ENDS
?LoadDataBaseParameter@CServiceUnits@@QAE_NPBD0AAUtagDataBaseParameter@@@Z ENDP ; CServiceUnits::LoadDataBaseParameter
; Function compile flags: /Odtp /ZI
; File g:\网狐\happygamewh\服务端\系统模块\服务器组件\游戏服务器\serviceunits.cpp
;	COMDAT ?CollocateService@CServiceUnits@@QAE_NPBDAAUtagGameServiceOption@@@Z
_TEXT	SEGMENT
_this$ = -4						; size = 4
_pszGameModule$ = 8					; size = 4
_GameServiceOption$ = 12				; size = 4
?CollocateService@CServiceUnits@@QAE_NPBDAAUtagGameServiceOption@@@Z PROC ; CServiceUnits::CollocateService, COMDAT
; _this$ = ecx

; 159  : {

  00000	55		 push	 ebp
  00001	8b ec		 mov	 ebp, esp
  00003	83 ec 44	 sub	 esp, 68			; 00000044H
  00006	53		 push	 ebx
  00007	56		 push	 esi
  00008	57		 push	 edi
  00009	89 4d fc	 mov	 DWORD PTR _this$[ebp], ecx

; 160  : 	//效验状态
; 161  : 	ASSERT(m_ServiceStatus==ServiceStatus_Stop);

  0000c	8b 45 fc	 mov	 eax, DWORD PTR _this$[ebp]
  0000f	83 b8 1c 02 00
	00 00		 cmp	 DWORD PTR [eax+540], 0
  00016	74 19		 je	 SHORT $LN4@CollocateS
  00018	8b 0d 00 00 00
	00		 mov	 ecx, DWORD PTR ?__LINE__Var@?0??CollocateService@CServiceUnits@@QAE_NPBDAAUtagGameServiceOption@@@Z@4JA
  0001e	83 c1 02	 add	 ecx, 2
  00021	51		 push	 ecx
  00022	68 00 00 00 00	 push	 OFFSET ??_C@_0EL@IDOGNJLC@g?3?2?M?x?$LK?$PM?2happygamewh?2?$LH?$PO?N?q?$LG?K?2?O?$LF?M?$LD@
  00027	e8 00 00 00 00	 call	 ?AfxAssertFailedLine@@YGHPBDH@Z ; AfxAssertFailedLine
  0002c	85 c0		 test	 eax, eax
  0002e	74 01		 je	 SHORT $LN4@CollocateS
  00030	cc		 int	 3
$LN4@CollocateS:

; 162  : 	if (m_ServiceStatus!=ServiceStatus_Stop) return false;

  00031	8b 45 fc	 mov	 eax, DWORD PTR _this$[ebp]
  00034	83 b8 1c 02 00
	00 00		 cmp	 DWORD PTR [eax+540], 0
  0003b	74 04		 je	 SHORT $LN2@CollocateS
  0003d	32 c0		 xor	 al, al
  0003f	eb 2c		 jmp	 SHORT $LN1@CollocateS
$LN2@CollocateS:

; 163  : 
; 164  : 	//配置模块
; 165  : 	m_GameServiceOption=GameServiceOption;

  00041	8b 7d fc	 mov	 edi, DWORD PTR _this$[ebp]
  00044	81 c7 60 03 00
	00		 add	 edi, 864		; 00000360H
  0004a	b9 3c 02 00 00	 mov	 ecx, 572		; 0000023cH
  0004f	8b 75 0c	 mov	 esi, DWORD PTR _GameServiceOption$[ebp]
  00052	f3 a5		 rep movsd

; 166  : 	m_GameServiceManager.SetModuleCreateInfo(pszGameModule,GAME_SERVICE_CREATE_NAME);

  00054	68 00 00 00 00	 push	 OFFSET ??_C@_0BJ@EBOMCPGB@CreateGameServiceManager@
  00059	8b 45 08	 mov	 eax, DWORD PTR _pszGameModule$[ebp]
  0005c	50		 push	 eax
  0005d	8b 4d fc	 mov	 ecx, DWORD PTR _this$[ebp]
  00060	81 c1 00 05 03
	00		 add	 ecx, 197888		; 00030500H
  00066	e8 00 00 00 00	 call	 ?SetModuleCreateInfo@?$CTempldateHelper@UIGameServiceManager@@@@QAEXPBD0@Z ; CTempldateHelper<IGameServiceManager>::SetModuleCreateInfo

; 167  : 
; 168  : 	return true;

  0006b	b0 01		 mov	 al, 1
$LN1@CollocateS:

; 169  : }

  0006d	5f		 pop	 edi
  0006e	5e		 pop	 esi
  0006f	5b		 pop	 ebx
  00070	8b e5		 mov	 esp, ebp
  00072	5d		 pop	 ebp
  00073	c2 08 00	 ret	 8
?CollocateService@CServiceUnits@@QAE_NPBDAAUtagGameServiceOption@@@Z ENDP ; CServiceUnits::CollocateService
_TEXT	ENDS
; Function compile flags: /Odtp /ZI
; File g:\网狐\happygamewh\服务端\系统模块\服务器组件\游戏服务器\serviceunits.cpp
;	COMDAT ?CollocateService@CServiceUnits@@QAE_NAAUtagGameMatchOption@@@Z
_TEXT	SEGMENT
_this$ = -4						; size = 4
_GameMatchOption$ = 8					; size = 4
?CollocateService@CServiceUnits@@QAE_NAAUtagGameMatchOption@@@Z PROC ; CServiceUnits::CollocateService, COMDAT
; _this$ = ecx

; 173  : {

  00000	55		 push	 ebp
  00001	8b ec		 mov	 ebp, esp
  00003	83 ec 44	 sub	 esp, 68			; 00000044H
  00006	53		 push	 ebx
  00007	56		 push	 esi
  00008	57		 push	 edi
  00009	89 4d fc	 mov	 DWORD PTR _this$[ebp], ecx

; 174  : 	//效验状态
; 175  : 	ASSERT(m_ServiceStatus==ServiceStatus_Stop);

  0000c	8b 45 fc	 mov	 eax, DWORD PTR _this$[ebp]
  0000f	83 b8 1c 02 00
	00 00		 cmp	 DWORD PTR [eax+540], 0
  00016	74 19		 je	 SHORT $LN4@CollocateS
  00018	8b 0d 00 00 00
	00		 mov	 ecx, DWORD PTR ?__LINE__Var@?0??CollocateService@CServiceUnits@@QAE_NAAUtagGameMatchOption@@@Z@4JA
  0001e	83 c1 02	 add	 ecx, 2
  00021	51		 push	 ecx
  00022	68 00 00 00 00	 push	 OFFSET ??_C@_0EL@IDOGNJLC@g?3?2?M?x?$LK?$PM?2happygamewh?2?$LH?$PO?N?q?$LG?K?2?O?$LF?M?$LD@
  00027	e8 00 00 00 00	 call	 ?AfxAssertFailedLine@@YGHPBDH@Z ; AfxAssertFailedLine
  0002c	85 c0		 test	 eax, eax
  0002e	74 01		 je	 SHORT $LN4@CollocateS
  00030	cc		 int	 3
$LN4@CollocateS:

; 176  : 	if (m_ServiceStatus!=ServiceStatus_Stop) return false;

  00031	8b 45 fc	 mov	 eax, DWORD PTR _this$[ebp]
  00034	83 b8 1c 02 00
	00 00		 cmp	 DWORD PTR [eax+540], 0
  0003b	74 04		 je	 SHORT $LN2@CollocateS
  0003d	32 c0		 xor	 al, al
  0003f	eb 15		 jmp	 SHORT $LN1@CollocateS
$LN2@CollocateS:

; 177  : 
; 178  : 	//设置变量
; 179  : 	m_GameMatchOption = GameMatchOption;

  00041	8b 7d fc	 mov	 edi, DWORD PTR _this$[ebp]
  00044	81 c7 50 0c 00
	00		 add	 edi, 3152		; 00000c50H
  0004a	b9 b2 00 00 00	 mov	 ecx, 178		; 000000b2H
  0004f	8b 75 08	 mov	 esi, DWORD PTR _GameMatchOption$[ebp]
  00052	f3 a5		 rep movsd

; 180  : 
; 181  : 	return true;

  00054	b0 01		 mov	 al, 1
$LN1@CollocateS:

; 182  : }

  00056	5f		 pop	 edi
  00057	5e		 pop	 esi
  00058	5b		 pop	 ebx
  00059	8b e5		 mov	 esp, ebp
  0005b	5d		 pop	 ebp
  0005c	c2 04 00	 ret	 4
?CollocateService@CServiceUnits@@QAE_NAAUtagGameMatchOption@@@Z ENDP ; CServiceUnits::CollocateService
_TEXT	ENDS
; Function compile flags: /Odtp /ZI
; File g:\网狐\happygamewh\服务端\系统模块\服务器组件\游戏服务器\serviceunits.cpp
;	COMDAT ?ConcludeService@CServiceUnits@@QAE_NXZ
_TEXT	SEGMENT
tv258 = -72						; size = 4
tv235 = -72						; size = 4
tv212 = -72						; size = 4
tv189 = -72						; size = 4
tv166 = -72						; size = 4
tv143 = -72						; size = 4
tv88 = -72						; size = 4
_this$ = -4						; size = 4
?ConcludeService@CServiceUnits@@QAE_NXZ PROC		; CServiceUnits::ConcludeService, COMDAT
; _this$ = ecx

; 125  : {

  00000	55		 push	 ebp
  00001	8b ec		 mov	 ebp, esp
  00003	83 ec 48	 sub	 esp, 72			; 00000048H
  00006	53		 push	 ebx
  00007	56		 push	 esi
  00008	57		 push	 edi
  00009	89 4d fc	 mov	 DWORD PTR _this$[ebp], ecx

; 126  : 	//开启同类型服务器数量减一
; 127  : 	WriteSeverCount(false);

  0000c	6a 00		 push	 0
  0000e	8b 4d fc	 mov	 ecx, DWORD PTR _this$[ebp]
  00011	e8 00 00 00 00	 call	 ?WriteSeverCount@CServiceUnits@@QAEX_N@Z ; CServiceUnits::WriteSeverCount

; 128  : 
; 129  : 	//设置变量
; 130  : 	SetServiceStatus(ServiceStatus_Stop);

  00016	6a 00		 push	 0
  00018	8b 4d fc	 mov	 ecx, DWORD PTR _this$[ebp]
  0001b	e8 00 00 00 00	 call	 ?SetServiceStatus@CServiceUnits@@AAE_NW4enServiceStatus@@@Z ; CServiceUnits::SetServiceStatus

; 131  : 
; 132  : 	//内核组件
; 133  : 	if (m_TimerEngine.GetInterface()!=NULL) m_TimerEngine->ConcludeService();

  00020	8b 4d fc	 mov	 ecx, DWORD PTR _this$[ebp]
  00023	81 c1 c8 fb 02
	00		 add	 ecx, 195528		; 0002fbc8H
  00029	e8 00 00 00 00	 call	 ?GetInterface@?$CTempldateHelper@UITimerEngine@@@@QBEPAUITimerEngine@@XZ ; CTempldateHelper<ITimerEngine>::GetInterface
  0002e	85 c0		 test	 eax, eax
  00030	74 1e		 je	 SHORT $LN2@ConcludeSe
  00032	8b 4d fc	 mov	 ecx, DWORD PTR _this$[ebp]
  00035	81 c1 c8 fb 02
	00		 add	 ecx, 195528		; 0002fbc8H
  0003b	e8 00 00 00 00	 call	 ??C?$CTempldateHelper@UITimerEngine@@@@QBEPAUITimerEngine@@XZ ; CTempldateHelper<ITimerEngine>::operator->
  00040	89 45 b8	 mov	 DWORD PTR tv88[ebp], eax
  00043	8b 45 b8	 mov	 eax, DWORD PTR tv88[ebp]
  00046	8b 10		 mov	 edx, DWORD PTR [eax]
  00048	8b 4d b8	 mov	 ecx, DWORD PTR tv88[ebp]
  0004b	8b 42 0c	 mov	 eax, DWORD PTR [edx+12]
  0004e	ff d0		 call	 eax
$LN2@ConcludeSe:

; 134  : 	if (m_AttemperEngine.GetInterface()!=NULL) m_AttemperEngine->ConcludeService();

  00050	8b 4d fc	 mov	 ecx, DWORD PTR _this$[ebp]
  00053	81 c1 a0 fd 02
	00		 add	 ecx, 196000		; 0002fda0H
  00059	e8 00 00 00 00	 call	 ?GetInterface@?$CTempldateHelper@UIAttemperEngine@@@@QBEPAUIAttemperEngine@@XZ ; CTempldateHelper<IAttemperEngine>::GetInterface
  0005e	85 c0		 test	 eax, eax
  00060	74 1e		 je	 SHORT $LN3@ConcludeSe
  00062	8b 4d fc	 mov	 ecx, DWORD PTR _this$[ebp]
  00065	81 c1 a0 fd 02
	00		 add	 ecx, 196000		; 0002fda0H
  0006b	e8 00 00 00 00	 call	 ??C?$CTempldateHelper@UIAttemperEngine@@@@QBEPAUIAttemperEngine@@XZ ; CTempldateHelper<IAttemperEngine>::operator->
  00070	89 45 b8	 mov	 DWORD PTR tv143[ebp], eax
  00073	8b 45 b8	 mov	 eax, DWORD PTR tv143[ebp]
  00076	8b 10		 mov	 edx, DWORD PTR [eax]
  00078	8b 4d b8	 mov	 ecx, DWORD PTR tv143[ebp]
  0007b	8b 42 0c	 mov	 eax, DWORD PTR [edx+12]
  0007e	ff d0		 call	 eax
$LN3@ConcludeSe:

; 135  : 	if (m_TCPSocketService.GetInterface()!=NULL) m_TCPSocketService->ConcludeService();

  00080	8b 4d fc	 mov	 ecx, DWORD PTR _this$[ebp]
  00083	81 c1 50 01 03
	00		 add	 ecx, 196944		; 00030150H
  00089	e8 00 00 00 00	 call	 ?GetInterface@?$CTempldateHelper@UITCPSocketService@@@@QBEPAUITCPSocketService@@XZ ; CTempldateHelper<ITCPSocketService>::GetInterface
  0008e	85 c0		 test	 eax, eax
  00090	74 1e		 je	 SHORT $LN4@ConcludeSe
  00092	8b 4d fc	 mov	 ecx, DWORD PTR _this$[ebp]
  00095	81 c1 50 01 03
	00		 add	 ecx, 196944		; 00030150H
  0009b	e8 00 00 00 00	 call	 ??C?$CTempldateHelper@UITCPSocketService@@@@QBEPAUITCPSocketService@@XZ ; CTempldateHelper<ITCPSocketService>::operator->
  000a0	89 45 b8	 mov	 DWORD PTR tv166[ebp], eax
  000a3	8b 45 b8	 mov	 eax, DWORD PTR tv166[ebp]
  000a6	8b 10		 mov	 edx, DWORD PTR [eax]
  000a8	8b 4d b8	 mov	 ecx, DWORD PTR tv166[ebp]
  000ab	8b 42 0c	 mov	 eax, DWORD PTR [edx+12]
  000ae	ff d0		 call	 eax
$LN4@ConcludeSe:

; 136  : 	if (m_TCPNetworkEngine.GetInterface()!=NULL) m_TCPNetworkEngine->ConcludeService();

  000b0	8b 4d fc	 mov	 ecx, DWORD PTR _this$[ebp]
  000b3	81 c1 78 ff 02
	00		 add	 ecx, 196472		; 0002ff78H
  000b9	e8 00 00 00 00	 call	 ?GetInterface@?$CTempldateHelper@UITCPNetworkEngine@@@@QBEPAUITCPNetworkEngine@@XZ ; CTempldateHelper<ITCPNetworkEngine>::GetInterface
  000be	85 c0		 test	 eax, eax
  000c0	74 1e		 je	 SHORT $LN5@ConcludeSe
  000c2	8b 4d fc	 mov	 ecx, DWORD PTR _this$[ebp]
  000c5	81 c1 78 ff 02
	00		 add	 ecx, 196472		; 0002ff78H
  000cb	e8 00 00 00 00	 call	 ??C?$CTempldateHelper@UITCPNetworkEngine@@@@QBEPAUITCPNetworkEngine@@XZ ; CTempldateHelper<ITCPNetworkEngine>::operator->
  000d0	89 45 b8	 mov	 DWORD PTR tv189[ebp], eax
  000d3	8b 45 b8	 mov	 eax, DWORD PTR tv189[ebp]
  000d6	8b 10		 mov	 edx, DWORD PTR [eax]
  000d8	8b 4d b8	 mov	 ecx, DWORD PTR tv189[ebp]
  000db	8b 42 0c	 mov	 eax, DWORD PTR [edx+12]
  000de	ff d0		 call	 eax
$LN5@ConcludeSe:

; 137  : 	if (m_PrsnlRmTCPSocketService.GetInterface()!=NULL) m_PrsnlRmTCPSocketService->ConcludeService();

  000e0	8b 4d fc	 mov	 ecx, DWORD PTR _this$[ebp]
  000e3	81 c1 28 03 03
	00		 add	 ecx, 197416		; 00030328H
  000e9	e8 00 00 00 00	 call	 ?GetInterface@?$CTempldateHelper@UITCPSocketService@@@@QBEPAUITCPSocketService@@XZ ; CTempldateHelper<ITCPSocketService>::GetInterface
  000ee	85 c0		 test	 eax, eax
  000f0	74 1e		 je	 SHORT $LN6@ConcludeSe
  000f2	8b 4d fc	 mov	 ecx, DWORD PTR _this$[ebp]
  000f5	81 c1 28 03 03
	00		 add	 ecx, 197416		; 00030328H
  000fb	e8 00 00 00 00	 call	 ??C?$CTempldateHelper@UITCPSocketService@@@@QBEPAUITCPSocketService@@XZ ; CTempldateHelper<ITCPSocketService>::operator->
  00100	89 45 b8	 mov	 DWORD PTR tv212[ebp], eax
  00103	8b 45 b8	 mov	 eax, DWORD PTR tv212[ebp]
  00106	8b 10		 mov	 edx, DWORD PTR [eax]
  00108	8b 4d b8	 mov	 ecx, DWORD PTR tv212[ebp]
  0010b	8b 42 0c	 mov	 eax, DWORD PTR [edx+12]
  0010e	ff d0		 call	 eax
$LN6@ConcludeSe:

; 138  : 	
; 139  : 	//数据引擎
; 140  : 	if (m_RecordDataBaseEngine.GetInterface()!=NULL) m_RecordDataBaseEngine->ConcludeService();

  00110	8b 4d fc	 mov	 ecx, DWORD PTR _this$[ebp]
  00113	81 c1 18 f8 02
	00		 add	 ecx, 194584		; 0002f818H
  00119	e8 00 00 00 00	 call	 ?GetInterface@?$CTempldateHelper@UIDataBaseEngine@@@@QBEPAUIDataBaseEngine@@XZ ; CTempldateHelper<IDataBaseEngine>::GetInterface
  0011e	85 c0		 test	 eax, eax
  00120	74 1e		 je	 SHORT $LN7@ConcludeSe
  00122	8b 4d fc	 mov	 ecx, DWORD PTR _this$[ebp]
  00125	81 c1 18 f8 02
	00		 add	 ecx, 194584		; 0002f818H
  0012b	e8 00 00 00 00	 call	 ??C?$CTempldateHelper@UIDataBaseEngine@@@@QBEPAUIDataBaseEngine@@XZ ; CTempldateHelper<IDataBaseEngine>::operator->
  00130	89 45 b8	 mov	 DWORD PTR tv235[ebp], eax
  00133	8b 45 b8	 mov	 eax, DWORD PTR tv235[ebp]
  00136	8b 10		 mov	 edx, DWORD PTR [eax]
  00138	8b 4d b8	 mov	 ecx, DWORD PTR tv235[ebp]
  0013b	8b 42 0c	 mov	 eax, DWORD PTR [edx+12]
  0013e	ff d0		 call	 eax
$LN7@ConcludeSe:

; 141  : 	if (m_KernelDataBaseEngine.GetInterface()!=NULL) m_KernelDataBaseEngine->ConcludeService();

  00140	8b 4d fc	 mov	 ecx, DWORD PTR _this$[ebp]
  00143	81 c1 f0 f9 02
	00		 add	 ecx, 195056		; 0002f9f0H
  00149	e8 00 00 00 00	 call	 ?GetInterface@?$CTempldateHelper@UIDataBaseEngine@@@@QBEPAUIDataBaseEngine@@XZ ; CTempldateHelper<IDataBaseEngine>::GetInterface
  0014e	85 c0		 test	 eax, eax
  00150	74 1e		 je	 SHORT $LN8@ConcludeSe
  00152	8b 4d fc	 mov	 ecx, DWORD PTR _this$[ebp]
  00155	81 c1 f0 f9 02
	00		 add	 ecx, 195056		; 0002f9f0H
  0015b	e8 00 00 00 00	 call	 ??C?$CTempldateHelper@UIDataBaseEngine@@@@QBEPAUIDataBaseEngine@@XZ ; CTempldateHelper<IDataBaseEngine>::operator->
  00160	89 45 b8	 mov	 DWORD PTR tv258[ebp], eax
  00163	8b 45 b8	 mov	 eax, DWORD PTR tv258[ebp]
  00166	8b 10		 mov	 edx, DWORD PTR [eax]
  00168	8b 4d b8	 mov	 ecx, DWORD PTR tv258[ebp]
  0016b	8b 42 0c	 mov	 eax, DWORD PTR [edx+12]
  0016e	ff d0		 call	 eax
$LN8@ConcludeSe:

; 142  : 	m_DBCorrespondManager.ConcludeService();

  00170	8b 4d fc	 mov	 ecx, DWORD PTR _this$[ebp]
  00173	81 c1 b8 f7 02
	00		 add	 ecx, 194488		; 0002f7b8H
  00179	8b 45 fc	 mov	 eax, DWORD PTR _this$[ebp]
  0017c	8b 90 b8 f7 02
	00		 mov	 edx, DWORD PTR [eax+194488]
  00182	8b 42 0c	 mov	 eax, DWORD PTR [edx+12]
  00185	ff d0		 call	 eax

; 143  : 
; 144  : 	//注销组件
; 145  : 	if (m_GameServiceManager.GetInterface()!=NULL) m_GameServiceManager.CloseInstance();

  00187	8b 4d fc	 mov	 ecx, DWORD PTR _this$[ebp]
  0018a	81 c1 00 05 03
	00		 add	 ecx, 197888		; 00030500H
  00190	e8 00 00 00 00	 call	 ?GetInterface@?$CTempldateHelper@UIGameServiceManager@@@@QBEPAUIGameServiceManager@@XZ ; CTempldateHelper<IGameServiceManager>::GetInterface
  00195	85 c0		 test	 eax, eax
  00197	74 0e		 je	 SHORT $LN9@ConcludeSe
  00199	8b 4d fc	 mov	 ecx, DWORD PTR _this$[ebp]
  0019c	81 c1 00 05 03
	00		 add	 ecx, 197888		; 00030500H
  001a2	e8 00 00 00 00	 call	 ?CloseInstance@?$CTempldateHelper@UIGameServiceManager@@@@QAE_NXZ ; CTempldateHelper<IGameServiceManager>::CloseInstance
$LN9@ConcludeSe:

; 146  : 	if (m_MatchServiceManager.GetInterface()!=NULL)m_MatchServiceManager.CloseInstance();

  001a7	8b 4d fc	 mov	 ecx, DWORD PTR _this$[ebp]
  001aa	81 c1 d8 06 03
	00		 add	 ecx, 198360		; 000306d8H
  001b0	e8 00 00 00 00	 call	 ?GetInterface@?$CTempldateHelper@UIMatchServiceManager@@@@QBEPAUIMatchServiceManager@@XZ ; CTempldateHelper<IMatchServiceManager>::GetInterface
  001b5	85 c0		 test	 eax, eax
  001b7	74 0e		 je	 SHORT $LN10@ConcludeSe
  001b9	8b 4d fc	 mov	 ecx, DWORD PTR _this$[ebp]
  001bc	81 c1 d8 06 03
	00		 add	 ecx, 198360		; 000306d8H
  001c2	e8 00 00 00 00	 call	 ?CloseInstance@?$CTempldateHelper@UIMatchServiceManager@@@@QAE_NXZ ; CTempldateHelper<IMatchServiceManager>::CloseInstance
$LN10@ConcludeSe:

; 147  : 	if (m_PersonalRoomServiceManager.GetInterface()!=NULL) m_PersonalRoomServiceManager.CloseInstance();

  001c7	8b 4d fc	 mov	 ecx, DWORD PTR _this$[ebp]
  001ca	81 c1 b0 08 03
	00		 add	 ecx, 198832		; 000308b0H
  001d0	e8 00 00 00 00	 call	 ?GetInterface@?$CTempldateHelper@UIPersonalRoomServiceManager@@@@QBEPAUIPersonalRoomServiceManager@@XZ ; CTempldateHelper<IPersonalRoomServiceManager>::GetInterface
  001d5	85 c0		 test	 eax, eax
  001d7	74 0e		 je	 SHORT $LN11@ConcludeSe
  001d9	8b 4d fc	 mov	 ecx, DWORD PTR _this$[ebp]
  001dc	81 c1 b0 08 03
	00		 add	 ecx, 198832		; 000308b0H
  001e2	e8 00 00 00 00	 call	 ?CloseInstance@?$CTempldateHelper@UIPersonalRoomServiceManager@@@@QAE_NXZ ; CTempldateHelper<IPersonalRoomServiceManager>::CloseInstance
$LN11@ConcludeSe:

; 148  : 
; 149  : 	//约战房关闭写约战数据
; 150  : 	if ((m_GameServiceOption.wServerType&GAME_GENRE_PERSONAL) != 0)

  001e7	8b 45 fc	 mov	 eax, DWORD PTR _this$[ebp]
  001ea	0f b7 88 ac 03
	00 00		 movzx	 ecx, WORD PTR [eax+940]
  001f1	83 e1 10	 and	 ecx, 16			; 00000010H
  001f4	74 08		 je	 SHORT $LN12@ConcludeSe

; 151  : 	{
; 152  : 		WritePersonalDissumeInfo();

  001f6	8b 4d fc	 mov	 ecx, DWORD PTR _this$[ebp]
  001f9	e8 00 00 00 00	 call	 ?WritePersonalDissumeInfo@CServiceUnits@@AAE_NXZ ; CServiceUnits::WritePersonalDissumeInfo
$LN12@ConcludeSe:

; 153  : 	}
; 154  : 	return true;

  001fe	b0 01		 mov	 al, 1

; 155  : }

  00200	5f		 pop	 edi
  00201	5e		 pop	 esi
  00202	5b		 pop	 ebx
  00203	8b e5		 mov	 esp, ebp
  00205	5d		 pop	 ebp
  00206	c3		 ret	 0
?ConcludeService@CServiceUnits@@QAE_NXZ ENDP		; CServiceUnits::ConcludeService
_TEXT	ENDS
; Function compile flags: /Odtp /ZI
; File g:\网狐\happygamewh\服务端\系统模块\服务器组件\游戏服务器\serviceunits.cpp
;	COMDAT ?StartService@CServiceUnits@@QAE_NXZ
_TEXT	SEGMENT
_rcCreate$1 = -24					; size = 16
_this$ = -8						; size = 4
__$ArrayPad$ = -4					; size = 4
?StartService@CServiceUnits@@QAE_NXZ PROC		; CServiceUnits::StartService, COMDAT
; _this$ = ecx

; 74   : {

  00000	55		 push	 ebp
  00001	8b ec		 mov	 ebp, esp
  00003	83 ec 58	 sub	 esp, 88			; 00000058H
  00006	a1 00 00 00 00	 mov	 eax, DWORD PTR ___security_cookie
  0000b	33 c5		 xor	 eax, ebp
  0000d	89 45 fc	 mov	 DWORD PTR __$ArrayPad$[ebp], eax
  00010	53		 push	 ebx
  00011	56		 push	 esi
  00012	57		 push	 edi
  00013	89 4d f8	 mov	 DWORD PTR _this$[ebp], ecx

; 75   : 	//效验状态
; 76   : 	ASSERT(m_ServiceStatus==ServiceStatus_Stop);

  00016	8b 45 f8	 mov	 eax, DWORD PTR _this$[ebp]
  00019	83 b8 1c 02 00
	00 00		 cmp	 DWORD PTR [eax+540], 0
  00020	74 19		 je	 SHORT $LN9@StartServi
  00022	8b 0d 00 00 00
	00		 mov	 ecx, DWORD PTR ?__LINE__Var@?0??StartService@CServiceUnits@@QAE_NXZ@4JA
  00028	83 c1 02	 add	 ecx, 2
  0002b	51		 push	 ecx
  0002c	68 00 00 00 00	 push	 OFFSET ??_C@_0EL@IDOGNJLC@g?3?2?M?x?$LK?$PM?2happygamewh?2?$LH?$PO?N?q?$LG?K?2?O?$LF?M?$LD@
  00031	e8 00 00 00 00	 call	 ?AfxAssertFailedLine@@YGHPBDH@Z ; AfxAssertFailedLine
  00036	85 c0		 test	 eax, eax
  00038	74 01		 je	 SHORT $LN9@StartServi
  0003a	cc		 int	 3
$LN9@StartServi:

; 77   : 	if (m_ServiceStatus!=ServiceStatus_Stop) return false;

  0003b	8b 45 f8	 mov	 eax, DWORD PTR _this$[ebp]
  0003e	83 b8 1c 02 00
	00 00		 cmp	 DWORD PTR [eax+540], 0
  00045	74 07		 je	 SHORT $LN2@StartServi
  00047	32 c0		 xor	 al, al
  00049	e9 c3 00 00 00	 jmp	 $LN1@StartServi
$LN2@StartServi:

; 78   : 
; 79   : 	//设置状态
; 80   : 	SetServiceStatus(ServiceStatus_Config);

  0004e	6a 01		 push	 1
  00050	8b 4d f8	 mov	 ecx, DWORD PTR _this$[ebp]
  00053	e8 00 00 00 00	 call	 ?SetServiceStatus@CServiceUnits@@AAE_NW4enServiceStatus@@@Z ; CServiceUnits::SetServiceStatus

; 81   : 
; 82   : 	//创建窗口
; 83   : 	if (m_hWnd==NULL)

  00058	8b 45 f8	 mov	 eax, DWORD PTR _this$[ebp]
  0005b	83 78 20 00	 cmp	 DWORD PTR [eax+32], 0
  0005f	75 34		 jne	 SHORT $LN3@StartServi

; 84   : 	{
; 85   : 		CRect rcCreate(0,0,0,0);

  00061	6a 00		 push	 0
  00063	6a 00		 push	 0
  00065	6a 00		 push	 0
  00067	6a 00		 push	 0
  00069	8d 4d e8	 lea	 ecx, DWORD PTR _rcCreate$1[ebp]
  0006c	e8 00 00 00 00	 call	 ??0CRect@@QAE@HHHH@Z	; CRect::CRect

; 86   : 		Create(NULL,NULL,WS_CHILD,rcCreate,AfxGetMainWnd(),100);

  00071	6a 00		 push	 0
  00073	6a 64		 push	 100			; 00000064H
  00075	e8 00 00 00 00	 call	 ?AfxGetMainWnd@@YGPAVCWnd@@XZ ; AfxGetMainWnd
  0007a	50		 push	 eax
  0007b	8d 45 e8	 lea	 eax, DWORD PTR _rcCreate$1[ebp]
  0007e	50		 push	 eax
  0007f	68 00 00 00 40	 push	 1073741824		; 40000000H
  00084	6a 00		 push	 0
  00086	6a 00		 push	 0
  00088	8b 4d f8	 mov	 ecx, DWORD PTR _this$[ebp]
  0008b	8b 11		 mov	 edx, DWORD PTR [ecx]
  0008d	8b 4d f8	 mov	 ecx, DWORD PTR _this$[ebp]
  00090	8b 42 5c	 mov	 eax, DWORD PTR [edx+92]
  00093	ff d0		 call	 eax
$LN3@StartServi:

; 87   : 	}
; 88   : 
; 89   : 	//创建模块
; 90   : 	if (CreateServiceDLL()==false)

  00095	8b 4d f8	 mov	 ecx, DWORD PTR _this$[ebp]
  00098	e8 00 00 00 00	 call	 ?CreateServiceDLL@CServiceUnits@@IAE_NXZ ; CServiceUnits::CreateServiceDLL
  0009d	0f b6 c0	 movzx	 eax, al
  000a0	85 c0		 test	 eax, eax
  000a2	75 0c		 jne	 SHORT $LN4@StartServi

; 91   : 	{
; 92   : 		ConcludeService();

  000a4	8b 4d f8	 mov	 ecx, DWORD PTR _this$[ebp]
  000a7	e8 00 00 00 00	 call	 ?ConcludeService@CServiceUnits@@QAE_NXZ ; CServiceUnits::ConcludeService

; 93   : 		return false;

  000ac	32 c0		 xor	 al, al
  000ae	eb 61		 jmp	 SHORT $LN1@StartServi
$LN4@StartServi:

; 94   : 	}
; 95   : 
; 96   : 	//调整参数
; 97   : 	if (RectifyServiceParameter()==false)

  000b0	8b 4d f8	 mov	 ecx, DWORD PTR _this$[ebp]
  000b3	e8 00 00 00 00	 call	 ?RectifyServiceParameter@CServiceUnits@@IAE_NXZ ; CServiceUnits::RectifyServiceParameter
  000b8	0f b6 c0	 movzx	 eax, al
  000bb	85 c0		 test	 eax, eax
  000bd	75 0c		 jne	 SHORT $LN5@StartServi

; 98   : 	{
; 99   : 		ConcludeService();

  000bf	8b 4d f8	 mov	 ecx, DWORD PTR _this$[ebp]
  000c2	e8 00 00 00 00	 call	 ?ConcludeService@CServiceUnits@@QAE_NXZ ; CServiceUnits::ConcludeService

; 100  : 		return false;

  000c7	32 c0		 xor	 al, al
  000c9	eb 46		 jmp	 SHORT $LN1@StartServi
$LN5@StartServi:

; 101  : 	}
; 102  : 
; 103  : 	//配置服务
; 104  : 	if (InitializeService()==false)

  000cb	8b 4d f8	 mov	 ecx, DWORD PTR _this$[ebp]
  000ce	e8 00 00 00 00	 call	 ?InitializeService@CServiceUnits@@IAE_NXZ ; CServiceUnits::InitializeService
  000d3	0f b6 c0	 movzx	 eax, al
  000d6	85 c0		 test	 eax, eax
  000d8	75 0c		 jne	 SHORT $LN6@StartServi

; 105  : 	{
; 106  : 		ConcludeService();

  000da	8b 4d f8	 mov	 ecx, DWORD PTR _this$[ebp]
  000dd	e8 00 00 00 00	 call	 ?ConcludeService@CServiceUnits@@QAE_NXZ ; CServiceUnits::ConcludeService

; 107  : 		return false;

  000e2	32 c0		 xor	 al, al
  000e4	eb 2b		 jmp	 SHORT $LN1@StartServi
$LN6@StartServi:

; 108  : 	}
; 109  : 
; 110  : 	//启动内核
; 111  : 	if (StartKernelService()==false)

  000e6	8b 4d f8	 mov	 ecx, DWORD PTR _this$[ebp]
  000e9	e8 00 00 00 00	 call	 ?StartKernelService@CServiceUnits@@IAE_NXZ ; CServiceUnits::StartKernelService
  000ee	0f b6 c0	 movzx	 eax, al
  000f1	85 c0		 test	 eax, eax
  000f3	75 0c		 jne	 SHORT $LN7@StartServi

; 112  : 	{
; 113  : 		ConcludeService();

  000f5	8b 4d f8	 mov	 ecx, DWORD PTR _this$[ebp]
  000f8	e8 00 00 00 00	 call	 ?ConcludeService@CServiceUnits@@QAE_NXZ ; CServiceUnits::ConcludeService

; 114  : 		return false;

  000fd	32 c0		 xor	 al, al
  000ff	eb 10		 jmp	 SHORT $LN1@StartServi
$LN7@StartServi:

; 115  : 	}		
; 116  : 
; 117  : 	//加载配置
; 118  : 	SendControlPacket(CT_LOAD_SERVICE_CONFIG,NULL,0);

  00101	6a 00		 push	 0
  00103	6a 00		 push	 0
  00105	6a 65		 push	 101			; 00000065H
  00107	8b 4d f8	 mov	 ecx, DWORD PTR _this$[ebp]
  0010a	e8 00 00 00 00	 call	 ?SendControlPacket@CServiceUnits@@AAE_NGPAXG@Z ; CServiceUnits::SendControlPacket

; 119  : 
; 120  : 	return true;

  0010f	b0 01		 mov	 al, 1
$LN1@StartServi:

; 121  : }

  00111	5f		 pop	 edi
  00112	5e		 pop	 esi
  00113	5b		 pop	 ebx
  00114	8b 4d fc	 mov	 ecx, DWORD PTR __$ArrayPad$[ebp]
  00117	33 cd		 xor	 ecx, ebp
  00119	e8 00 00 00 00	 call	 @__security_check_cookie@4
  0011e	8b e5		 mov	 esp, ebp
  00120	5d		 pop	 ebp
  00121	c3		 ret	 0
?StartService@CServiceUnits@@QAE_NXZ ENDP		; CServiceUnits::StartService
_TEXT	ENDS
; Function compile flags: /Odtp /ZI
; File g:\网狐\happygamewh\服务端\系统模块\服务器组件\游戏服务器\serviceunits.cpp
;	COMDAT ?PostControlRequest@CServiceUnits@@QAE_NGPAXG@Z
_TEXT	SEGMENT
$T2 = -94						; size = 1
$T3 = -93						; size = 1
_DataLocker$ = -28					; size = 12
_this$ = -16						; size = 4
__$EHRec$ = -12						; size = 12
_wIdentifier$ = 8					; size = 2
_pData$ = 12						; size = 4
_wDataSize$ = 16					; size = 2
?PostControlRequest@CServiceUnits@@QAE_NGPAXG@Z PROC	; CServiceUnits::PostControlRequest, COMDAT
; _this$ = ecx

; 57   : {

  00000	55		 push	 ebp
  00001	8b ec		 mov	 ebp, esp
  00003	6a ff		 push	 -1
  00005	68 00 00 00 00	 push	 __ehhandler$?PostControlRequest@CServiceUnits@@QAE_NGPAXG@Z
  0000a	64 a1 00 00 00
	00		 mov	 eax, DWORD PTR fs:0
  00010	50		 push	 eax
  00011	83 ec 54	 sub	 esp, 84			; 00000054H
  00014	53		 push	 ebx
  00015	56		 push	 esi
  00016	57		 push	 edi
  00017	a1 00 00 00 00	 mov	 eax, DWORD PTR ___security_cookie
  0001c	33 c5		 xor	 eax, ebp
  0001e	50		 push	 eax
  0001f	8d 45 f4	 lea	 eax, DWORD PTR __$EHRec$[ebp]
  00022	64 a3 00 00 00
	00		 mov	 DWORD PTR fs:0, eax
  00028	89 4d f0	 mov	 DWORD PTR _this$[ebp], ecx

; 58   : 	//状态判断
; 59   : 	ASSERT(IsWindow(m_hWnd));

  0002b	8b 45 f0	 mov	 eax, DWORD PTR _this$[ebp]
  0002e	8b 48 20	 mov	 ecx, DWORD PTR [eax+32]
  00031	51		 push	 ecx
  00032	ff 15 00 00 00
	00		 call	 DWORD PTR __imp__IsWindow@4
  00038	85 c0		 test	 eax, eax
  0003a	75 19		 jne	 SHORT $LN5@PostContro
  0003c	8b 15 00 00 00
	00		 mov	 edx, DWORD PTR ?__LINE__Var@?0??PostControlRequest@CServiceUnits@@QAE_NGPAXG@Z@4JA
  00042	83 c2 02	 add	 edx, 2
  00045	52		 push	 edx
  00046	68 00 00 00 00	 push	 OFFSET ??_C@_0EL@IDOGNJLC@g?3?2?M?x?$LK?$PM?2happygamewh?2?$LH?$PO?N?q?$LG?K?2?O?$LF?M?$LD@
  0004b	e8 00 00 00 00	 call	 ?AfxAssertFailedLine@@YGHPBDH@Z ; AfxAssertFailedLine
  00050	85 c0		 test	 eax, eax
  00052	74 01		 je	 SHORT $LN5@PostContro
  00054	cc		 int	 3
$LN5@PostContro:

; 60   : 	if (IsWindow(m_hWnd)==FALSE) return false;

  00055	8b 45 f0	 mov	 eax, DWORD PTR _this$[ebp]
  00058	8b 48 20	 mov	 ecx, DWORD PTR [eax+32]
  0005b	51		 push	 ecx
  0005c	ff 15 00 00 00
	00		 call	 DWORD PTR __imp__IsWindow@4
  00062	85 c0		 test	 eax, eax
  00064	75 07		 jne	 SHORT $LN2@PostContro
  00066	32 c0		 xor	 al, al
  00068	e9 86 00 00 00	 jmp	 $LN1@PostContro
$LN2@PostContro:

; 61   : 
; 62   : 	//插入队列
; 63   : 	CWHDataLocker DataLocker(m_CriticalSection);

  0006d	6a 01		 push	 1
  0006f	8b 45 f0	 mov	 eax, DWORD PTR _this$[ebp]
  00072	05 38 0f 00 00	 add	 eax, 3896		; 00000f38H
  00077	50		 push	 eax
  00078	8d 4d e4	 lea	 ecx, DWORD PTR _DataLocker$[ebp]
  0007b	ff 15 00 00 00
	00		 call	 DWORD PTR __imp_??0CWHDataLocker@@QAE@AAVCCriticalSection@@_N@Z
  00081	c7 45 fc 00 00
	00 00		 mov	 DWORD PTR __$EHRec$[ebp+8], 0

; 64   : 	if (m_DataQueue.InsertData(wIdentifier,pData,wDataSize)==false) return false;

  00088	0f b7 45 10	 movzx	 eax, WORD PTR _wDataSize$[ebp]
  0008c	50		 push	 eax
  0008d	8b 4d 0c	 mov	 ecx, DWORD PTR _pData$[ebp]
  00090	51		 push	 ecx
  00091	0f b7 55 08	 movzx	 edx, WORD PTR _wIdentifier$[ebp]
  00095	52		 push	 edx
  00096	8b 4d f0	 mov	 ecx, DWORD PTR _this$[ebp]
  00099	81 c1 18 0f 00
	00		 add	 ecx, 3864		; 00000f18H
  0009f	ff 15 00 00 00
	00		 call	 DWORD PTR __imp_?InsertData@CWHDataQueue@@QAE_NGPAXG@Z
  000a5	0f b6 c0	 movzx	 eax, al
  000a8	85 c0		 test	 eax, eax
  000aa	75 19		 jne	 SHORT $LN3@PostContro
  000ac	c6 45 a3 00	 mov	 BYTE PTR $T3[ebp], 0
  000b0	c7 45 fc ff ff
	ff ff		 mov	 DWORD PTR __$EHRec$[ebp+8], -1
  000b7	8d 4d e4	 lea	 ecx, DWORD PTR _DataLocker$[ebp]
  000ba	ff 15 00 00 00
	00		 call	 DWORD PTR __imp_??1CWHDataLocker@@UAE@XZ
  000c0	8a 45 a3	 mov	 al, BYTE PTR $T3[ebp]
  000c3	eb 2e		 jmp	 SHORT $LN1@PostContro
$LN3@PostContro:

; 65   : 
; 66   : 	//发送消息
; 67   : 	PostMessage(WM_UICONTROL_REQUEST,wIdentifier,wDataSize);

  000c5	0f b7 45 10	 movzx	 eax, WORD PTR _wDataSize$[ebp]
  000c9	50		 push	 eax
  000ca	0f b7 4d 08	 movzx	 ecx, WORD PTR _wIdentifier$[ebp]
  000ce	51		 push	 ecx
  000cf	68 64 04 00 00	 push	 1124			; 00000464H
  000d4	8b 4d f0	 mov	 ecx, DWORD PTR _this$[ebp]
  000d7	e8 00 00 00 00	 call	 ?PostMessageA@CWnd@@QAEHIIJ@Z ; CWnd::PostMessageA

; 68   : 
; 69   : 	return true;

  000dc	c6 45 a2 01	 mov	 BYTE PTR $T2[ebp], 1
  000e0	c7 45 fc ff ff
	ff ff		 mov	 DWORD PTR __$EHRec$[ebp+8], -1
  000e7	8d 4d e4	 lea	 ecx, DWORD PTR _DataLocker$[ebp]
  000ea	ff 15 00 00 00
	00		 call	 DWORD PTR __imp_??1CWHDataLocker@@UAE@XZ
  000f0	8a 45 a2	 mov	 al, BYTE PTR $T2[ebp]
$LN1@PostContro:

; 70   : }

  000f3	8b 4d f4	 mov	 ecx, DWORD PTR __$EHRec$[ebp]
  000f6	64 89 0d 00 00
	00 00		 mov	 DWORD PTR fs:0, ecx
  000fd	59		 pop	 ecx
  000fe	5f		 pop	 edi
  000ff	5e		 pop	 esi
  00100	5b		 pop	 ebx
  00101	8b e5		 mov	 esp, ebp
  00103	5d		 pop	 ebp
  00104	c2 0c 00	 ret	 12			; 0000000cH
_TEXT	ENDS
;	COMDAT text$x
text$x	SEGMENT
__unwindfunclet$?PostControlRequest@CServiceUnits@@QAE_NGPAXG@Z$0:
  00000	8d 4d e4	 lea	 ecx, DWORD PTR _DataLocker$[ebp]
  00003	ff 25 00 00 00
	00		 jmp	 DWORD PTR __imp_??1CWHDataLocker@@UAE@XZ
__ehhandler$?PostControlRequest@CServiceUnits@@QAE_NGPAXG@Z:
  00009	8b 54 24 08	 mov	 edx, DWORD PTR [esp+8]
  0000d	8d 42 0c	 lea	 eax, DWORD PTR [edx+12]
  00010	8b 4a 9c	 mov	 ecx, DWORD PTR [edx-100]
  00013	33 c8		 xor	 ecx, eax
  00015	e8 00 00 00 00	 call	 @__security_check_cookie@4
  0001a	b8 00 00 00 00	 mov	 eax, OFFSET __ehfuncinfo$?PostControlRequest@CServiceUnits@@QAE_NGPAXG@Z
  0001f	e9 00 00 00 00	 jmp	 ___CxxFrameHandler3
text$x	ENDS
?PostControlRequest@CServiceUnits@@QAE_NGPAXG@Z ENDP	; CServiceUnits::PostControlRequest
; Function compile flags: /Odtp /ZI
; File g:\网狐\happygamewh\服务端\系统模块\服务器组件\游戏服务器\serviceunits.cpp
;	COMDAT ?SetServiceUnitsSink@CServiceUnits@@QAE_NPAUIServiceUnitsSink@@@Z
_TEXT	SEGMENT
_this$ = -4						; size = 4
_pIServiceUnitsSink$ = 8				; size = 4
?SetServiceUnitsSink@CServiceUnits@@QAE_NPAUIServiceUnitsSink@@@Z PROC ; CServiceUnits::SetServiceUnitsSink, COMDAT
; _this$ = ecx

; 48   : {

  00000	55		 push	 ebp
  00001	8b ec		 mov	 ebp, esp
  00003	83 ec 44	 sub	 esp, 68			; 00000044H
  00006	53		 push	 ebx
  00007	56		 push	 esi
  00008	57		 push	 edi
  00009	89 4d fc	 mov	 DWORD PTR _this$[ebp], ecx

; 49   : 	//设置变量
; 50   : 	m_pIServiceUnitsSink=pIServiceUnitsSink;

  0000c	8b 45 fc	 mov	 eax, DWORD PTR _this$[ebp]
  0000f	8b 4d 08	 mov	 ecx, DWORD PTR _pIServiceUnitsSink$[ebp]
  00012	89 88 88 0a 03
	00		 mov	 DWORD PTR [eax+199304], ecx

; 51   : 
; 52   : 	return true;

  00018	b0 01		 mov	 al, 1

; 53   : }

  0001a	5f		 pop	 edi
  0001b	5e		 pop	 esi
  0001c	5b		 pop	 ebx
  0001d	8b e5		 mov	 esp, ebp
  0001f	5d		 pop	 ebp
  00020	c2 04 00	 ret	 4
?SetServiceUnitsSink@CServiceUnits@@QAE_NPAUIServiceUnitsSink@@@Z ENDP ; CServiceUnits::SetServiceUnitsSink
_TEXT	ENDS
; Function compile flags: /Odtp /ZI
; File g:\网狐\happygamewh\服务端\系统模块\服务器组件\游戏服务器\serviceunits.cpp
;	COMDAT ??1CServiceUnits@@UAE@XZ
_TEXT	SEGMENT
_this$ = -16						; size = 4
__$EHRec$ = -12						; size = 12
??1CServiceUnits@@UAE@XZ PROC				; CServiceUnits::~CServiceUnits, COMDAT
; _this$ = ecx

; 43   : {

  00000	55		 push	 ebp
  00001	8b ec		 mov	 ebp, esp
  00003	6a ff		 push	 -1
  00005	68 00 00 00 00	 push	 __ehhandler$??1CServiceUnits@@UAE@XZ
  0000a	64 a1 00 00 00
	00		 mov	 eax, DWORD PTR fs:0
  00010	50		 push	 eax
  00011	83 ec 44	 sub	 esp, 68			; 00000044H
  00014	53		 push	 ebx
  00015	56		 push	 esi
  00016	57		 push	 edi
  00017	a1 00 00 00 00	 mov	 eax, DWORD PTR ___security_cookie
  0001c	33 c5		 xor	 eax, ebp
  0001e	50		 push	 eax
  0001f	8d 45 f4	 lea	 eax, DWORD PTR __$EHRec$[ebp]
  00022	64 a3 00 00 00
	00		 mov	 DWORD PTR fs:0, eax
  00028	89 4d f0	 mov	 DWORD PTR _this$[ebp], ecx
  0002b	8b 45 f0	 mov	 eax, DWORD PTR _this$[ebp]
  0002e	c7 00 00 00 00
	00		 mov	 DWORD PTR [eax], OFFSET ??_7CServiceUnits@@6B@

; 44   : }

  00034	8b 4d f0	 mov	 ecx, DWORD PTR _this$[ebp]
  00037	81 c1 b0 08 03
	00		 add	 ecx, 198832		; 000308b0H
  0003d	e8 00 00 00 00	 call	 ??1CPersonalRoomServiceManagerHelper@@UAE@XZ
  00042	8b 4d f0	 mov	 ecx, DWORD PTR _this$[ebp]
  00045	81 c1 d8 06 03
	00		 add	 ecx, 198360		; 000306d8H
  0004b	e8 00 00 00 00	 call	 ??1CMatchServiceManagerHelper@@UAE@XZ
  00050	8b 4d f0	 mov	 ecx, DWORD PTR _this$[ebp]
  00053	81 c1 00 05 03
	00		 add	 ecx, 197888		; 00030500H
  00059	e8 00 00 00 00	 call	 ??1CGameServiceManagerHelper@@UAE@XZ
  0005e	8b 4d f0	 mov	 ecx, DWORD PTR _this$[ebp]
  00061	81 c1 28 03 03
	00		 add	 ecx, 197416		; 00030328H
  00067	e8 00 00 00 00	 call	 ??1CTCPSocketServiceHelper@@UAE@XZ
  0006c	8b 4d f0	 mov	 ecx, DWORD PTR _this$[ebp]
  0006f	81 c1 50 01 03
	00		 add	 ecx, 196944		; 00030150H
  00075	e8 00 00 00 00	 call	 ??1CTCPSocketServiceHelper@@UAE@XZ
  0007a	8b 4d f0	 mov	 ecx, DWORD PTR _this$[ebp]
  0007d	81 c1 78 ff 02
	00		 add	 ecx, 196472		; 0002ff78H
  00083	e8 00 00 00 00	 call	 ??1CTCPNetworkEngineHelper@@UAE@XZ
  00088	8b 4d f0	 mov	 ecx, DWORD PTR _this$[ebp]
  0008b	81 c1 a0 fd 02
	00		 add	 ecx, 196000		; 0002fda0H
  00091	e8 00 00 00 00	 call	 ??1CAttemperEngineHelper@@UAE@XZ
  00096	8b 4d f0	 mov	 ecx, DWORD PTR _this$[ebp]
  00099	81 c1 c8 fb 02
	00		 add	 ecx, 195528		; 0002fbc8H
  0009f	e8 00 00 00 00	 call	 ??1CTimerEngineHelper@@UAE@XZ
  000a4	8b 4d f0	 mov	 ecx, DWORD PTR _this$[ebp]
  000a7	81 c1 f0 f9 02
	00		 add	 ecx, 195056		; 0002f9f0H
  000ad	e8 00 00 00 00	 call	 ??1CDataBaseEngineHelper@@UAE@XZ
  000b2	8b 4d f0	 mov	 ecx, DWORD PTR _this$[ebp]
  000b5	81 c1 18 f8 02
	00		 add	 ecx, 194584		; 0002f818H
  000bb	e8 00 00 00 00	 call	 ??1CDataBaseEngineHelper@@UAE@XZ
  000c0	8b 4d f0	 mov	 ecx, DWORD PTR _this$[ebp]
  000c3	81 c1 b8 f7 02
	00		 add	 ecx, 194488		; 0002f7b8H
  000c9	e8 00 00 00 00	 call	 ??1CDBCorrespondManager@@QAE@XZ ; CDBCorrespondManager::~CDBCorrespondManager
  000ce	68 00 00 00 00	 push	 OFFSET ??1CDataBaseEngineSink@@UAE@XZ ; CDataBaseEngineSink::~CDataBaseEngineSink
  000d3	6a 04		 push	 4
  000d5	68 10 15 00 00	 push	 5392			; 00001510H
  000da	8b 45 f0	 mov	 eax, DWORD PTR _this$[ebp]
  000dd	05 78 a3 02 00	 add	 eax, 172920		; 0002a378H
  000e2	50		 push	 eax
  000e3	e8 00 00 00 00	 call	 ??_M@YGXPAXIIP6EX0@Z@Z
  000e8	68 00 00 00 00	 push	 OFFSET ??1CDataBaseEngineSink@@UAE@XZ ; CDataBaseEngineSink::~CDataBaseEngineSink
  000ed	6a 04		 push	 4
  000ef	68 10 15 00 00	 push	 5392			; 00001510H
  000f4	8b 4d f0	 mov	 ecx, DWORD PTR _this$[ebp]
  000f7	81 c1 38 4f 02
	00		 add	 ecx, 151352		; 00024f38H
  000fd	51		 push	 ecx
  000fe	e8 00 00 00 00	 call	 ??_M@YGXPAXIIP6EX0@Z@Z
  00103	8b 4d f0	 mov	 ecx, DWORD PTR _this$[ebp]
  00106	81 c1 60 0f 00
	00		 add	 ecx, 3936		; 00000f60H
  0010c	e8 00 00 00 00	 call	 ??1CAttemperEngineSink@@UAE@XZ ; CAttemperEngineSink::~CAttemperEngineSink
  00111	8b 4d f0	 mov	 ecx, DWORD PTR _this$[ebp]
  00114	81 c1 38 0f 00
	00		 add	 ecx, 3896		; 00000f38H
  0011a	e8 00 00 00 00	 call	 ??1CCriticalSection@@UAE@XZ ; CCriticalSection::~CCriticalSection
  0011f	8b 4d f0	 mov	 ecx, DWORD PTR _this$[ebp]
  00122	81 c1 18 0f 00
	00		 add	 ecx, 3864		; 00000f18H
  00128	ff 15 00 00 00
	00		 call	 DWORD PTR __imp_??1CWHDataQueue@@UAE@XZ
  0012e	8b 4d f0	 mov	 ecx, DWORD PTR _this$[ebp]
  00131	81 c1 80 00 00
	00		 add	 ecx, 128		; 00000080H
  00137	e8 00 00 00 00	 call	 ??1CInitParameter@@UAE@XZ ; CInitParameter::~CInitParameter
  0013c	8b 4d f0	 mov	 ecx, DWORD PTR _this$[ebp]
  0013f	e8 00 00 00 00	 call	 ??1CWnd@@UAE@XZ		; CWnd::~CWnd
  00144	8b 4d f4	 mov	 ecx, DWORD PTR __$EHRec$[ebp]
  00147	64 89 0d 00 00
	00 00		 mov	 DWORD PTR fs:0, ecx
  0014e	59		 pop	 ecx
  0014f	5f		 pop	 edi
  00150	5e		 pop	 esi
  00151	5b		 pop	 ebx
  00152	8b e5		 mov	 esp, ebp
  00154	5d		 pop	 ebp
  00155	c3		 ret	 0
_TEXT	ENDS
;	COMDAT text$x
text$x	SEGMENT
__ehhandler$??1CServiceUnits@@UAE@XZ:
  00000	8b 54 24 08	 mov	 edx, DWORD PTR [esp+8]
  00004	8d 42 0c	 lea	 eax, DWORD PTR [edx+12]
  00007	8b 4a ac	 mov	 ecx, DWORD PTR [edx-84]
  0000a	33 c8		 xor	 ecx, eax
  0000c	e8 00 00 00 00	 call	 @__security_check_cookie@4
  00011	b8 00 00 00 00	 mov	 eax, OFFSET __ehfuncinfo$??1CServiceUnits@@UAE@XZ
  00016	e9 00 00 00 00	 jmp	 ___CxxFrameHandler3
text$x	ENDS
??1CServiceUnits@@UAE@XZ ENDP				; CServiceUnits::~CServiceUnits
; Function compile flags: /Odtp /ZI
; File g:\网狐\happygamewh\服务端\系统模块\服务器组件\游戏服务器\serviceunits.cpp
;	COMDAT ??0CServiceUnits@@QAE@XZ
_TEXT	SEGMENT
_this$ = -16						; size = 4
__$EHRec$ = -12						; size = 12
??0CServiceUnits@@QAE@XZ PROC				; CServiceUnits::CServiceUnits, COMDAT
; _this$ = ecx

; 20   : {

  00000	55		 push	 ebp
  00001	8b ec		 mov	 ebp, esp
  00003	6a ff		 push	 -1
  00005	68 00 00 00 00	 push	 __ehhandler$??0CServiceUnits@@QAE@XZ
  0000a	64 a1 00 00 00
	00		 mov	 eax, DWORD PTR fs:0
  00010	50		 push	 eax
  00011	83 ec 44	 sub	 esp, 68			; 00000044H
  00014	53		 push	 ebx
  00015	56		 push	 esi
  00016	57		 push	 edi
  00017	a1 00 00 00 00	 mov	 eax, DWORD PTR ___security_cookie
  0001c	33 c5		 xor	 eax, ebp
  0001e	50		 push	 eax
  0001f	8d 45 f4	 lea	 eax, DWORD PTR __$EHRec$[ebp]
  00022	64 a3 00 00 00
	00		 mov	 DWORD PTR fs:0, eax
  00028	89 4d f0	 mov	 DWORD PTR _this$[ebp], ecx
  0002b	8b 4d f0	 mov	 ecx, DWORD PTR _this$[ebp]
  0002e	e8 00 00 00 00	 call	 ??0CWnd@@QAE@XZ		; CWnd::CWnd
  00033	c7 45 fc 00 00
	00 00		 mov	 DWORD PTR __$EHRec$[ebp+8], 0
  0003a	8b 45 f0	 mov	 eax, DWORD PTR _this$[ebp]
  0003d	c7 00 00 00 00
	00		 mov	 DWORD PTR [eax], OFFSET ??_7CServiceUnits@@6B@
  00043	8b 4d f0	 mov	 ecx, DWORD PTR _this$[ebp]
  00046	81 c1 80 00 00
	00		 add	 ecx, 128		; 00000080H
  0004c	e8 00 00 00 00	 call	 ??0CInitParameter@@QAE@XZ ; CInitParameter::CInitParameter
  00051	c6 45 fc 01	 mov	 BYTE PTR __$EHRec$[ebp+8], 1
  00055	8b 4d f0	 mov	 ecx, DWORD PTR _this$[ebp]
  00058	81 c1 18 0f 00
	00		 add	 ecx, 3864		; 00000f18H
  0005e	ff 15 00 00 00
	00		 call	 DWORD PTR __imp_??0CWHDataQueue@@QAE@XZ
  00064	c6 45 fc 02	 mov	 BYTE PTR __$EHRec$[ebp+8], 2
  00068	8b 4d f0	 mov	 ecx, DWORD PTR _this$[ebp]
  0006b	81 c1 38 0f 00
	00		 add	 ecx, 3896		; 00000f38H
  00071	e8 00 00 00 00	 call	 ??0CCriticalSection@@QAE@XZ ; CCriticalSection::CCriticalSection
  00076	c6 45 fc 03	 mov	 BYTE PTR __$EHRec$[ebp+8], 3
  0007a	8b 4d f0	 mov	 ecx, DWORD PTR _this$[ebp]
  0007d	81 c1 60 0f 00
	00		 add	 ecx, 3936		; 00000f60H
  00083	e8 00 00 00 00	 call	 ??0CAttemperEngineSink@@QAE@XZ ; CAttemperEngineSink::CAttemperEngineSink
  00088	c6 45 fc 04	 mov	 BYTE PTR __$EHRec$[ebp+8], 4
  0008c	68 00 00 00 00	 push	 OFFSET ??1CDataBaseEngineSink@@UAE@XZ ; CDataBaseEngineSink::~CDataBaseEngineSink
  00091	68 00 00 00 00	 push	 OFFSET ??0CDataBaseEngineSink@@QAE@XZ ; CDataBaseEngineSink::CDataBaseEngineSink
  00096	6a 04		 push	 4
  00098	68 10 15 00 00	 push	 5392			; 00001510H
  0009d	8b 45 f0	 mov	 eax, DWORD PTR _this$[ebp]
  000a0	05 38 4f 02 00	 add	 eax, 151352		; 00024f38H
  000a5	50		 push	 eax
  000a6	e8 00 00 00 00	 call	 ??_L@YGXPAXIIP6EX0@Z1@Z
  000ab	c6 45 fc 05	 mov	 BYTE PTR __$EHRec$[ebp+8], 5
  000af	68 00 00 00 00	 push	 OFFSET ??1CDataBaseEngineSink@@UAE@XZ ; CDataBaseEngineSink::~CDataBaseEngineSink
  000b4	68 00 00 00 00	 push	 OFFSET ??0CDataBaseEngineSink@@QAE@XZ ; CDataBaseEngineSink::CDataBaseEngineSink
  000b9	6a 04		 push	 4
  000bb	68 10 15 00 00	 push	 5392			; 00001510H
  000c0	8b 45 f0	 mov	 eax, DWORD PTR _this$[ebp]
  000c3	05 78 a3 02 00	 add	 eax, 172920		; 0002a378H
  000c8	50		 push	 eax
  000c9	e8 00 00 00 00	 call	 ??_L@YGXPAXIIP6EX0@Z1@Z
  000ce	c6 45 fc 06	 mov	 BYTE PTR __$EHRec$[ebp+8], 6
  000d2	8b 4d f0	 mov	 ecx, DWORD PTR _this$[ebp]
  000d5	81 c1 b8 f7 02
	00		 add	 ecx, 194488		; 0002f7b8H
  000db	e8 00 00 00 00	 call	 ??0CDBCorrespondManager@@QAE@XZ ; CDBCorrespondManager::CDBCorrespondManager
  000e0	c6 45 fc 07	 mov	 BYTE PTR __$EHRec$[ebp+8], 7
  000e4	8b 4d f0	 mov	 ecx, DWORD PTR _this$[ebp]
  000e7	81 c1 18 f8 02
	00		 add	 ecx, 194584		; 0002f818H
  000ed	e8 00 00 00 00	 call	 ??0CDataBaseEngineHelper@@QAE@XZ ; CDataBaseEngineHelper::CDataBaseEngineHelper
  000f2	c6 45 fc 08	 mov	 BYTE PTR __$EHRec$[ebp+8], 8
  000f6	8b 4d f0	 mov	 ecx, DWORD PTR _this$[ebp]
  000f9	81 c1 f0 f9 02
	00		 add	 ecx, 195056		; 0002f9f0H
  000ff	e8 00 00 00 00	 call	 ??0CDataBaseEngineHelper@@QAE@XZ ; CDataBaseEngineHelper::CDataBaseEngineHelper
  00104	c6 45 fc 09	 mov	 BYTE PTR __$EHRec$[ebp+8], 9
  00108	8b 4d f0	 mov	 ecx, DWORD PTR _this$[ebp]
  0010b	81 c1 c8 fb 02
	00		 add	 ecx, 195528		; 0002fbc8H
  00111	e8 00 00 00 00	 call	 ??0CTimerEngineHelper@@QAE@XZ ; CTimerEngineHelper::CTimerEngineHelper
  00116	c6 45 fc 0a	 mov	 BYTE PTR __$EHRec$[ebp+8], 10 ; 0000000aH
  0011a	8b 4d f0	 mov	 ecx, DWORD PTR _this$[ebp]
  0011d	81 c1 a0 fd 02
	00		 add	 ecx, 196000		; 0002fda0H
  00123	e8 00 00 00 00	 call	 ??0CAttemperEngineHelper@@QAE@XZ ; CAttemperEngineHelper::CAttemperEngineHelper
  00128	c6 45 fc 0b	 mov	 BYTE PTR __$EHRec$[ebp+8], 11 ; 0000000bH
  0012c	8b 4d f0	 mov	 ecx, DWORD PTR _this$[ebp]
  0012f	81 c1 78 ff 02
	00		 add	 ecx, 196472		; 0002ff78H
  00135	e8 00 00 00 00	 call	 ??0CTCPNetworkEngineHelper@@QAE@XZ ; CTCPNetworkEngineHelper::CTCPNetworkEngineHelper
  0013a	c6 45 fc 0c	 mov	 BYTE PTR __$EHRec$[ebp+8], 12 ; 0000000cH
  0013e	8b 4d f0	 mov	 ecx, DWORD PTR _this$[ebp]
  00141	81 c1 50 01 03
	00		 add	 ecx, 196944		; 00030150H
  00147	e8 00 00 00 00	 call	 ??0CTCPSocketServiceHelper@@QAE@XZ ; CTCPSocketServiceHelper::CTCPSocketServiceHelper
  0014c	c6 45 fc 0d	 mov	 BYTE PTR __$EHRec$[ebp+8], 13 ; 0000000dH
  00150	8b 4d f0	 mov	 ecx, DWORD PTR _this$[ebp]
  00153	81 c1 28 03 03
	00		 add	 ecx, 197416		; 00030328H
  00159	e8 00 00 00 00	 call	 ??0CTCPSocketServiceHelper@@QAE@XZ ; CTCPSocketServiceHelper::CTCPSocketServiceHelper
  0015e	c6 45 fc 0e	 mov	 BYTE PTR __$EHRec$[ebp+8], 14 ; 0000000eH
  00162	8b 4d f0	 mov	 ecx, DWORD PTR _this$[ebp]
  00165	81 c1 00 05 03
	00		 add	 ecx, 197888		; 00030500H
  0016b	e8 00 00 00 00	 call	 ??0CGameServiceManagerHelper@@QAE@XZ ; CGameServiceManagerHelper::CGameServiceManagerHelper
  00170	c6 45 fc 0f	 mov	 BYTE PTR __$EHRec$[ebp+8], 15 ; 0000000fH
  00174	8b 4d f0	 mov	 ecx, DWORD PTR _this$[ebp]
  00177	81 c1 d8 06 03
	00		 add	 ecx, 198360		; 000306d8H
  0017d	e8 00 00 00 00	 call	 ??0CMatchServiceManagerHelper@@QAE@XZ ; CMatchServiceManagerHelper::CMatchServiceManagerHelper
  00182	c6 45 fc 10	 mov	 BYTE PTR __$EHRec$[ebp+8], 16 ; 00000010H
  00186	8b 4d f0	 mov	 ecx, DWORD PTR _this$[ebp]
  00189	81 c1 b0 08 03
	00		 add	 ecx, 198832		; 000308b0H
  0018f	e8 00 00 00 00	 call	 ??0CPersonalRoomServiceManagerHelper@@QAE@XZ ; CPersonalRoomServiceManagerHelper::CPersonalRoomServiceManagerHelper
  00194	c6 45 fc 11	 mov	 BYTE PTR __$EHRec$[ebp+8], 17 ; 00000011H

; 21   : 	//服务参数
; 22   : 	m_ServiceStatus=ServiceStatus_Stop;

  00198	8b 45 f0	 mov	 eax, DWORD PTR _this$[ebp]
  0019b	c7 80 1c 02 00
	00 00 00 00 00	 mov	 DWORD PTR [eax+540], 0

; 23   : 
; 24   : 	//设置接口
; 25   : 	m_pIServiceUnitsSink=NULL;

  001a5	8b 45 f0	 mov	 eax, DWORD PTR _this$[ebp]
  001a8	c7 80 88 0a 03
	00 00 00 00 00	 mov	 DWORD PTR [eax+199304], 0

; 26   : 
; 27   : 	//设置对象
; 28   : 	ASSERT(g_pServiceUnits==NULL);

  001b2	83 3d 00 00 00
	00 00		 cmp	 DWORD PTR ?g_pServiceUnits@CServiceUnits@@2PAV1@A, 0 ; CServiceUnits::g_pServiceUnits
  001b9	74 18		 je	 SHORT $LN4@CServiceUn
  001bb	a1 00 00 00 00	 mov	 eax, DWORD PTR ?__LINE__Var@?0???0CServiceUnits@@QAE@XZ@4JA
  001c0	83 c0 08	 add	 eax, 8
  001c3	50		 push	 eax
  001c4	68 00 00 00 00	 push	 OFFSET ??_C@_0EL@IDOGNJLC@g?3?2?M?x?$LK?$PM?2happygamewh?2?$LH?$PO?N?q?$LG?K?2?O?$LF?M?$LD@
  001c9	e8 00 00 00 00	 call	 ?AfxAssertFailedLine@@YGHPBDH@Z ; AfxAssertFailedLine
  001ce	85 c0		 test	 eax, eax
  001d0	74 01		 je	 SHORT $LN4@CServiceUn
  001d2	cc		 int	 3
$LN4@CServiceUn:

; 29   : 	if (g_pServiceUnits==NULL) g_pServiceUnits=this;

  001d3	83 3d 00 00 00
	00 00		 cmp	 DWORD PTR ?g_pServiceUnits@CServiceUnits@@2PAV1@A, 0 ; CServiceUnits::g_pServiceUnits
  001da	75 08		 jne	 SHORT $LN2@CServiceUn
  001dc	8b 45 f0	 mov	 eax, DWORD PTR _this$[ebp]
  001df	a3 00 00 00 00	 mov	 DWORD PTR ?g_pServiceUnits@CServiceUnits@@2PAV1@A, eax ; CServiceUnits::g_pServiceUnits
$LN2@CServiceUn:

; 30   : 
; 31   : 	//组件配置
; 32   : 	ZeroMemory(&m_GameParameter,sizeof(m_GameParameter));

  001e4	6a 28		 push	 40			; 00000028H
  001e6	6a 00		 push	 0
  001e8	8b 45 f0	 mov	 eax, DWORD PTR _this$[ebp]
  001eb	05 20 02 00 00	 add	 eax, 544		; 00000220H
  001f0	50		 push	 eax
  001f1	e8 00 00 00 00	 call	 _memset
  001f6	83 c4 0c	 add	 esp, 12			; 0000000cH

; 33   : 	ZeroMemory(&m_DataBaseParameter,sizeof(m_DataBaseParameter));

  001f9	68 82 00 00 00	 push	 130			; 00000082H
  001fe	6a 00		 push	 0
  00200	8b 45 f0	 mov	 eax, DWORD PTR _this$[ebp]
  00203	05 48 02 00 00	 add	 eax, 584		; 00000248H
  00208	50		 push	 eax
  00209	e8 00 00 00 00	 call	 _memset
  0020e	83 c4 0c	 add	 esp, 12			; 0000000cH

; 34   : 	ZeroMemory(&m_GameServiceAttrib,sizeof(m_GameServiceAttrib));

  00211	68 94 00 00 00	 push	 148			; 00000094H
  00216	6a 00		 push	 0
  00218	8b 45 f0	 mov	 eax, DWORD PTR _this$[ebp]
  0021b	05 cc 02 00 00	 add	 eax, 716		; 000002ccH
  00220	50		 push	 eax
  00221	e8 00 00 00 00	 call	 _memset
  00226	83 c4 0c	 add	 esp, 12			; 0000000cH

; 35   : 	ZeroMemory(&m_GameServiceOption,sizeof(m_GameServiceOption));

  00229	68 f0 08 00 00	 push	 2288			; 000008f0H
  0022e	6a 00		 push	 0
  00230	8b 45 f0	 mov	 eax, DWORD PTR _this$[ebp]
  00233	05 60 03 00 00	 add	 eax, 864		; 00000360H
  00238	50		 push	 eax
  00239	e8 00 00 00 00	 call	 _memset
  0023e	83 c4 0c	 add	 esp, 12			; 0000000cH

; 36   : 	ZeroMemory(&m_GameMatchOption,sizeof(m_GameMatchOption));

  00241	68 c8 02 00 00	 push	 712			; 000002c8H
  00246	6a 00		 push	 0
  00248	8b 45 f0	 mov	 eax, DWORD PTR _this$[ebp]
  0024b	05 50 0c 00 00	 add	 eax, 3152		; 00000c50H
  00250	50		 push	 eax
  00251	e8 00 00 00 00	 call	 _memset
  00256	83 c4 0c	 add	 esp, 12			; 0000000cH

; 37   : 
; 38   : 	return;
; 39   : }

  00259	c7 45 fc ff ff
	ff ff		 mov	 DWORD PTR __$EHRec$[ebp+8], -1
  00260	8b 45 f0	 mov	 eax, DWORD PTR _this$[ebp]
  00263	8b 4d f4	 mov	 ecx, DWORD PTR __$EHRec$[ebp]
  00266	64 89 0d 00 00
	00 00		 mov	 DWORD PTR fs:0, ecx
  0026d	59		 pop	 ecx
  0026e	5f		 pop	 edi
  0026f	5e		 pop	 esi
  00270	5b		 pop	 ebx
  00271	8b e5		 mov	 esp, ebp
  00273	5d		 pop	 ebp
  00274	c3		 ret	 0
_TEXT	ENDS
;	COMDAT text$x
text$x	SEGMENT
__unwindfunclet$??0CServiceUnits@@QAE@XZ$0:
  00000	8b 4d f0	 mov	 ecx, DWORD PTR _this$[ebp]
  00003	e9 00 00 00 00	 jmp	 ??1CWnd@@UAE@XZ		; CWnd::~CWnd
__unwindfunclet$??0CServiceUnits@@QAE@XZ$1:
  00008	8b 4d f0	 mov	 ecx, DWORD PTR _this$[ebp]
  0000b	81 c1 80 00 00
	00		 add	 ecx, 128		; 00000080H
  00011	e9 00 00 00 00	 jmp	 ??1CInitParameter@@UAE@XZ ; CInitParameter::~CInitParameter
__unwindfunclet$??0CServiceUnits@@QAE@XZ$2:
  00016	8b 4d f0	 mov	 ecx, DWORD PTR _this$[ebp]
  00019	81 c1 18 0f 00
	00		 add	 ecx, 3864		; 00000f18H
  0001f	ff 25 00 00 00
	00		 jmp	 DWORD PTR __imp_??1CWHDataQueue@@UAE@XZ
__unwindfunclet$??0CServiceUnits@@QAE@XZ$3:
  00025	8b 4d f0	 mov	 ecx, DWORD PTR _this$[ebp]
  00028	81 c1 38 0f 00
	00		 add	 ecx, 3896		; 00000f38H
  0002e	e9 00 00 00 00	 jmp	 ??1CCriticalSection@@UAE@XZ ; CCriticalSection::~CCriticalSection
__unwindfunclet$??0CServiceUnits@@QAE@XZ$4:
  00033	8b 4d f0	 mov	 ecx, DWORD PTR _this$[ebp]
  00036	81 c1 60 0f 00
	00		 add	 ecx, 3936		; 00000f60H
  0003c	e9 00 00 00 00	 jmp	 ??1CAttemperEngineSink@@UAE@XZ ; CAttemperEngineSink::~CAttemperEngineSink
__unwindfunclet$??0CServiceUnits@@QAE@XZ$5:
  00041	68 00 00 00 00	 push	 OFFSET ??1CDataBaseEngineSink@@UAE@XZ ; CDataBaseEngineSink::~CDataBaseEngineSink
  00046	6a 04		 push	 4
  00048	68 10 15 00 00	 push	 5392			; 00001510H
  0004d	8b 45 f0	 mov	 eax, DWORD PTR _this$[ebp]
  00050	05 38 4f 02 00	 add	 eax, 151352		; 00024f38H
  00055	50		 push	 eax
  00056	e8 00 00 00 00	 call	 ??_M@YGXPAXIIP6EX0@Z@Z
  0005b	c3		 ret	 0
__unwindfunclet$??0CServiceUnits@@QAE@XZ$6:
  0005c	68 00 00 00 00	 push	 OFFSET ??1CDataBaseEngineSink@@UAE@XZ ; CDataBaseEngineSink::~CDataBaseEngineSink
  00061	6a 04		 push	 4
  00063	68 10 15 00 00	 push	 5392			; 00001510H
  00068	8b 45 f0	 mov	 eax, DWORD PTR _this$[ebp]
  0006b	05 78 a3 02 00	 add	 eax, 172920		; 0002a378H
  00070	50		 push	 eax
  00071	e8 00 00 00 00	 call	 ??_M@YGXPAXIIP6EX0@Z@Z
  00076	c3		 ret	 0
__unwindfunclet$??0CServiceUnits@@QAE@XZ$7:
  00077	8b 4d f0	 mov	 ecx, DWORD PTR _this$[ebp]
  0007a	81 c1 b8 f7 02
	00		 add	 ecx, 194488		; 0002f7b8H
  00080	e9 00 00 00 00	 jmp	 ??1CDBCorrespondManager@@QAE@XZ ; CDBCorrespondManager::~CDBCorrespondManager
__unwindfunclet$??0CServiceUnits@@QAE@XZ$8:
  00085	8b 4d f0	 mov	 ecx, DWORD PTR _this$[ebp]
  00088	81 c1 18 f8 02
	00		 add	 ecx, 194584		; 0002f818H
  0008e	e9 00 00 00 00	 jmp	 ??1CDataBaseEngineHelper@@UAE@XZ
__unwindfunclet$??0CServiceUnits@@QAE@XZ$9:
  00093	8b 4d f0	 mov	 ecx, DWORD PTR _this$[ebp]
  00096	81 c1 f0 f9 02
	00		 add	 ecx, 195056		; 0002f9f0H
  0009c	e9 00 00 00 00	 jmp	 ??1CDataBaseEngineHelper@@UAE@XZ
__unwindfunclet$??0CServiceUnits@@QAE@XZ$10:
  000a1	8b 4d f0	 mov	 ecx, DWORD PTR _this$[ebp]
  000a4	81 c1 c8 fb 02
	00		 add	 ecx, 195528		; 0002fbc8H
  000aa	e9 00 00 00 00	 jmp	 ??1CTimerEngineHelper@@UAE@XZ
__unwindfunclet$??0CServiceUnits@@QAE@XZ$11:
  000af	8b 4d f0	 mov	 ecx, DWORD PTR _this$[ebp]
  000b2	81 c1 a0 fd 02
	00		 add	 ecx, 196000		; 0002fda0H
  000b8	e9 00 00 00 00	 jmp	 ??1CAttemperEngineHelper@@UAE@XZ
__unwindfunclet$??0CServiceUnits@@QAE@XZ$12:
  000bd	8b 4d f0	 mov	 ecx, DWORD PTR _this$[ebp]
  000c0	81 c1 78 ff 02
	00		 add	 ecx, 196472		; 0002ff78H
  000c6	e9 00 00 00 00	 jmp	 ??1CTCPNetworkEngineHelper@@UAE@XZ
__unwindfunclet$??0CServiceUnits@@QAE@XZ$13:
  000cb	8b 4d f0	 mov	 ecx, DWORD PTR _this$[ebp]
  000ce	81 c1 50 01 03
	00		 add	 ecx, 196944		; 00030150H
  000d4	e9 00 00 00 00	 jmp	 ??1CTCPSocketServiceHelper@@UAE@XZ
__unwindfunclet$??0CServiceUnits@@QAE@XZ$14:
  000d9	8b 4d f0	 mov	 ecx, DWORD PTR _this$[ebp]
  000dc	81 c1 28 03 03
	00		 add	 ecx, 197416		; 00030328H
  000e2	e9 00 00 00 00	 jmp	 ??1CTCPSocketServiceHelper@@UAE@XZ
__unwindfunclet$??0CServiceUnits@@QAE@XZ$15:
  000e7	8b 4d f0	 mov	 ecx, DWORD PTR _this$[ebp]
  000ea	81 c1 00 05 03
	00		 add	 ecx, 197888		; 00030500H
  000f0	e9 00 00 00 00	 jmp	 ??1CGameServiceManagerHelper@@UAE@XZ
__unwindfunclet$??0CServiceUnits@@QAE@XZ$16:
  000f5	8b 4d f0	 mov	 ecx, DWORD PTR _this$[ebp]
  000f8	81 c1 d8 06 03
	00		 add	 ecx, 198360		; 000306d8H
  000fe	e9 00 00 00 00	 jmp	 ??1CMatchServiceManagerHelper@@UAE@XZ
__unwindfunclet$??0CServiceUnits@@QAE@XZ$17:
  00103	8b 4d f0	 mov	 ecx, DWORD PTR _this$[ebp]
  00106	81 c1 b0 08 03
	00		 add	 ecx, 198832		; 000308b0H
  0010c	e9 00 00 00 00	 jmp	 ??1CPersonalRoomServiceManagerHelper@@UAE@XZ
__ehhandler$??0CServiceUnits@@QAE@XZ:
  00111	8b 54 24 08	 mov	 edx, DWORD PTR [esp+8]
  00115	8d 42 0c	 lea	 eax, DWORD PTR [edx+12]
  00118	8b 4a ac	 mov	 ecx, DWORD PTR [edx-84]
  0011b	33 c8		 xor	 ecx, eax
  0011d	e8 00 00 00 00	 call	 @__security_check_cookie@4
  00122	b8 00 00 00 00	 mov	 eax, OFFSET __ehfuncinfo$??0CServiceUnits@@QAE@XZ
  00127	e9 00 00 00 00	 jmp	 ___CxxFrameHandler3
text$x	ENDS
??0CServiceUnits@@QAE@XZ ENDP				; CServiceUnits::CServiceUnits
; Function compile flags: /Odtp /ZI
;	COMDAT ??_GCPersonalRoomServiceManagerHelper@@UAEPAXI@Z
_TEXT	SEGMENT
_this$ = -4						; size = 4
___flags$ = 8						; size = 4
??_GCPersonalRoomServiceManagerHelper@@UAEPAXI@Z PROC	; CPersonalRoomServiceManagerHelper::`scalar deleting destructor', COMDAT
; _this$ = ecx
  00000	55		 push	 ebp
  00001	8b ec		 mov	 ebp, esp
  00003	83 ec 44	 sub	 esp, 68			; 00000044H
  00006	53		 push	 ebx
  00007	56		 push	 esi
  00008	57		 push	 edi
  00009	89 4d fc	 mov	 DWORD PTR _this$[ebp], ecx
  0000c	8b 4d fc	 mov	 ecx, DWORD PTR _this$[ebp]
  0000f	e8 00 00 00 00	 call	 ??1CPersonalRoomServiceManagerHelper@@UAE@XZ
  00014	8b 45 08	 mov	 eax, DWORD PTR ___flags$[ebp]
  00017	83 e0 01	 and	 eax, 1
  0001a	74 11		 je	 SHORT $LN2@scalar
  0001c	68 d8 01 00 00	 push	 472			; 000001d8H
  00021	8b 45 fc	 mov	 eax, DWORD PTR _this$[ebp]
  00024	50		 push	 eax
  00025	e8 00 00 00 00	 call	 ??3@YAXPAXI@Z		; operator delete
  0002a	83 c4 08	 add	 esp, 8
$LN2@scalar:
  0002d	8b 45 fc	 mov	 eax, DWORD PTR _this$[ebp]
  00030	5f		 pop	 edi
  00031	5e		 pop	 esi
  00032	5b		 pop	 ebx
  00033	8b e5		 mov	 esp, ebp
  00035	5d		 pop	 ebp
  00036	c2 04 00	 ret	 4
??_GCPersonalRoomServiceManagerHelper@@UAEPAXI@Z ENDP	; CPersonalRoomServiceManagerHelper::`scalar deleting destructor'
_TEXT	ENDS
; Function compile flags: /Odtp /ZI
;	COMDAT ??1CPersonalRoomServiceManagerHelper@@UAE@XZ
_TEXT	SEGMENT
_this$ = -4						; size = 4
??1CPersonalRoomServiceManagerHelper@@UAE@XZ PROC	; CPersonalRoomServiceManagerHelper::~CPersonalRoomServiceManagerHelper, COMDAT
; _this$ = ecx
  00000	55		 push	 ebp
  00001	8b ec		 mov	 ebp, esp
  00003	83 ec 44	 sub	 esp, 68			; 00000044H
  00006	53		 push	 ebx
  00007	56		 push	 esi
  00008	57		 push	 edi
  00009	89 4d fc	 mov	 DWORD PTR _this$[ebp], ecx
  0000c	8b 4d fc	 mov	 ecx, DWORD PTR _this$[ebp]
  0000f	e8 00 00 00 00	 call	 ??1?$CTempldateHelper@UIPersonalRoomServiceManager@@@@UAE@XZ ; CTempldateHelper<IPersonalRoomServiceManager>::~CTempldateHelper<IPersonalRoomServiceManager>
  00014	5f		 pop	 edi
  00015	5e		 pop	 esi
  00016	5b		 pop	 ebx
  00017	8b e5		 mov	 esp, ebp
  00019	5d		 pop	 ebp
  0001a	c3		 ret	 0
??1CPersonalRoomServiceManagerHelper@@UAE@XZ ENDP	; CPersonalRoomServiceManagerHelper::~CPersonalRoomServiceManagerHelper
_TEXT	ENDS
; Function compile flags: /Odtp /ZI
; File g:\网狐\happygamewh\服务端\系统模块\服务器组件\约战服务\personalroomservicehead.h
;	COMDAT ??0CPersonalRoomServiceManagerHelper@@QAE@XZ
_TEXT	SEGMENT
_this$ = -4						; size = 4
??0CPersonalRoomServiceManagerHelper@@QAE@XZ PROC	; CPersonalRoomServiceManagerHelper::CPersonalRoomServiceManagerHelper, COMDAT
; _this$ = ecx

; 292  : DECLARE_MODULE_HELPER(PersonalRoomServiceManager,PERSONAL_ROOM_SERVICE_DLL_NAME,"CreatePersonalRoomServiceManager")

  00000	55		 push	 ebp
  00001	8b ec		 mov	 ebp, esp
  00003	83 ec 44	 sub	 esp, 68			; 00000044H
  00006	53		 push	 ebx
  00007	56		 push	 esi
  00008	57		 push	 edi
  00009	89 4d fc	 mov	 DWORD PTR _this$[ebp], ecx
  0000c	68 00 00 00 00	 push	 OFFSET ??_C@_0CB@MNMPKPAH@CreatePersonalRoomServiceManage@
  00011	68 00 00 00 00	 push	 OFFSET ??_C@_0BI@PDGLEKAG@PersonalRoomService?4dll@
  00016	68 00 01 01 06	 push	 100729088		; 06010100H
  0001b	68 00 00 00 00	 push	 OFFSET ?IID_IPersonalRoomServiceManager@@3U_GUID@@B
  00020	8b 4d fc	 mov	 ecx, DWORD PTR _this$[ebp]
  00023	e8 00 00 00 00	 call	 ??0?$CTempldateHelper@UIPersonalRoomServiceManager@@@@QAE@ABU_GUID@@KPBD1@Z ; CTempldateHelper<IPersonalRoomServiceManager>::CTempldateHelper<IPersonalRoomServiceManager>
  00028	8b 45 fc	 mov	 eax, DWORD PTR _this$[ebp]
  0002b	c7 00 00 00 00
	00		 mov	 DWORD PTR [eax], OFFSET ??_7CPersonalRoomServiceManagerHelper@@6B@
  00031	8b 45 fc	 mov	 eax, DWORD PTR _this$[ebp]
  00034	5f		 pop	 edi
  00035	5e		 pop	 esi
  00036	5b		 pop	 ebx
  00037	8b e5		 mov	 esp, ebp
  00039	5d		 pop	 ebp
  0003a	c3		 ret	 0
??0CPersonalRoomServiceManagerHelper@@QAE@XZ ENDP	; CPersonalRoomServiceManagerHelper::CPersonalRoomServiceManagerHelper
_TEXT	ENDS
; Function compile flags: /Odtp /ZI
;	COMDAT ??_G?$CTempldateHelper@UIPersonalRoomServiceManager@@@@UAEPAXI@Z
_TEXT	SEGMENT
_this$ = -4						; size = 4
___flags$ = 8						; size = 4
??_G?$CTempldateHelper@UIPersonalRoomServiceManager@@@@UAEPAXI@Z PROC ; CTempldateHelper<IPersonalRoomServiceManager>::`scalar deleting destructor', COMDAT
; _this$ = ecx
  00000	55		 push	 ebp
  00001	8b ec		 mov	 ebp, esp
  00003	83 ec 44	 sub	 esp, 68			; 00000044H
  00006	53		 push	 ebx
  00007	56		 push	 esi
  00008	57		 push	 edi
  00009	89 4d fc	 mov	 DWORD PTR _this$[ebp], ecx
  0000c	8b 4d fc	 mov	 ecx, DWORD PTR _this$[ebp]
  0000f	e8 00 00 00 00	 call	 ??1?$CTempldateHelper@UIPersonalRoomServiceManager@@@@UAE@XZ ; CTempldateHelper<IPersonalRoomServiceManager>::~CTempldateHelper<IPersonalRoomServiceManager>
  00014	8b 45 08	 mov	 eax, DWORD PTR ___flags$[ebp]
  00017	83 e0 01	 and	 eax, 1
  0001a	74 11		 je	 SHORT $LN2@scalar
  0001c	68 d8 01 00 00	 push	 472			; 000001d8H
  00021	8b 45 fc	 mov	 eax, DWORD PTR _this$[ebp]
  00024	50		 push	 eax
  00025	e8 00 00 00 00	 call	 ??3@YAXPAXI@Z		; operator delete
  0002a	83 c4 08	 add	 esp, 8
$LN2@scalar:
  0002d	8b 45 fc	 mov	 eax, DWORD PTR _this$[ebp]
  00030	5f		 pop	 edi
  00031	5e		 pop	 esi
  00032	5b		 pop	 ebx
  00033	8b e5		 mov	 esp, ebp
  00035	5d		 pop	 ebp
  00036	c2 04 00	 ret	 4
??_G?$CTempldateHelper@UIPersonalRoomServiceManager@@@@UAEPAXI@Z ENDP ; CTempldateHelper<IPersonalRoomServiceManager>::`scalar deleting destructor'
_TEXT	ENDS
; Function compile flags: /Odtp /ZI
; File g:\网狐\happygamewh\服务端\系统模块\全局定义\module.h
;	COMDAT ?GetInterface@?$CTempldateHelper@UIPersonalRoomServiceManager@@@@QBEPAUIPersonalRoomServiceManager@@XZ
_TEXT	SEGMENT
_this$ = -4						; size = 4
?GetInterface@?$CTempldateHelper@UIPersonalRoomServiceManager@@@@QBEPAUIPersonalRoomServiceManager@@XZ PROC ; CTempldateHelper<IPersonalRoomServiceManager>::GetInterface, COMDAT
; _this$ = ecx

; 316  : { 

  00000	55		 push	 ebp
  00001	8b ec		 mov	 ebp, esp
  00003	83 ec 44	 sub	 esp, 68			; 00000044H
  00006	53		 push	 ebx
  00007	56		 push	 esi
  00008	57		 push	 edi
  00009	89 4d fc	 mov	 DWORD PTR _this$[ebp], ecx

; 317  : 	return m_pIModeluInterface; 

  0000c	8b 45 fc	 mov	 eax, DWORD PTR _this$[ebp]
  0000f	8b 80 54 01 00
	00		 mov	 eax, DWORD PTR [eax+340]

; 318  : }

  00015	5f		 pop	 edi
  00016	5e		 pop	 esi
  00017	5b		 pop	 ebx
  00018	8b e5		 mov	 esp, ebp
  0001a	5d		 pop	 ebp
  0001b	c3		 ret	 0
?GetInterface@?$CTempldateHelper@UIPersonalRoomServiceManager@@@@QBEPAUIPersonalRoomServiceManager@@XZ ENDP ; CTempldateHelper<IPersonalRoomServiceManager>::GetInterface
_TEXT	ENDS
; Function compile flags: /Odtp /ZI
; File g:\网狐\happygamewh\服务端\系统模块\全局定义\module.h
;	COMDAT ??C?$CTempldateHelper@UIPersonalRoomServiceManager@@@@QBEPAUIPersonalRoomServiceManager@@XZ
_TEXT	SEGMENT
_this$ = -4						; size = 4
??C?$CTempldateHelper@UIPersonalRoomServiceManager@@@@QBEPAUIPersonalRoomServiceManager@@XZ PROC ; CTempldateHelper<IPersonalRoomServiceManager>::operator->, COMDAT
; _this$ = ecx

; 309  : { 

  00000	55		 push	 ebp
  00001	8b ec		 mov	 ebp, esp
  00003	83 ec 44	 sub	 esp, 68			; 00000044H
  00006	53		 push	 ebx
  00007	56		 push	 esi
  00008	57		 push	 edi
  00009	89 4d fc	 mov	 DWORD PTR _this$[ebp], ecx

; 310  : 	return GetInterface(); 

  0000c	8b 4d fc	 mov	 ecx, DWORD PTR _this$[ebp]
  0000f	e8 00 00 00 00	 call	 ?GetInterface@?$CTempldateHelper@UIPersonalRoomServiceManager@@@@QBEPAUIPersonalRoomServiceManager@@XZ ; CTempldateHelper<IPersonalRoomServiceManager>::GetInterface

; 311  : }

  00014	5f		 pop	 edi
  00015	5e		 pop	 esi
  00016	5b		 pop	 ebx
  00017	8b e5		 mov	 esp, ebp
  00019	5d		 pop	 ebp
  0001a	c3		 ret	 0
??C?$CTempldateHelper@UIPersonalRoomServiceManager@@@@QBEPAUIPersonalRoomServiceManager@@XZ ENDP ; CTempldateHelper<IPersonalRoomServiceManager>::operator->
_TEXT	ENDS
; Function compile flags: /Odtp /ZI
; File g:\网狐\happygamewh\服务端\系统模块\全局定义\module.h
;	COMDAT ?GetErrorDescribe@?$CTempldateHelper@UIPersonalRoomServiceManager@@@@QBEPBDXZ
_TEXT	SEGMENT
_this$ = -4						; size = 4
?GetErrorDescribe@?$CTempldateHelper@UIPersonalRoomServiceManager@@@@QBEPBDXZ PROC ; CTempldateHelper<IPersonalRoomServiceManager>::GetErrorDescribe, COMDAT
; _this$ = ecx

; 302  : { 

  00000	55		 push	 ebp
  00001	8b ec		 mov	 ebp, esp
  00003	83 ec 44	 sub	 esp, 68			; 00000044H
  00006	53		 push	 ebx
  00007	56		 push	 esi
  00008	57		 push	 edi
  00009	89 4d fc	 mov	 DWORD PTR _this$[ebp], ecx

; 303  : 	return m_szDescribe; 

  0000c	8b 45 fc	 mov	 eax, DWORD PTR _this$[ebp]
  0000f	05 58 01 00 00	 add	 eax, 344		; 00000158H

; 304  : }

  00014	5f		 pop	 edi
  00015	5e		 pop	 esi
  00016	5b		 pop	 ebx
  00017	8b e5		 mov	 esp, ebp
  00019	5d		 pop	 ebp
  0001a	c3		 ret	 0
?GetErrorDescribe@?$CTempldateHelper@UIPersonalRoomServiceManager@@@@QBEPBDXZ ENDP ; CTempldateHelper<IPersonalRoomServiceManager>::GetErrorDescribe
_TEXT	ENDS
; Function compile flags: /Odtp /ZI
; File g:\网狐\happygamewh\服务端\系统模块\全局定义\module.h
;	COMDAT ?CreateInstance@?$CTempldateHelper@UIPersonalRoomServiceManager@@@@QAE_NXZ
_TEXT	SEGMENT
tv173 = -100						; size = 4
tv172 = -100						; size = 4
tv171 = -100						; size = 4
tv170 = -100						; size = 4
$T2 = -94						; size = 1
$T3 = -93						; size = 1
_pszError$4 = -28					; size = 4
_CreateProc$5 = -24					; size = 4
_this$ = -20						; size = 4
__$EHRec$ = -16						; size = 16
?CreateInstance@?$CTempldateHelper@UIPersonalRoomServiceManager@@@@QAE_NXZ PROC ; CTempldateHelper<IPersonalRoomServiceManager>::CreateInstance, COMDAT
; _this$ = ecx

; 212  : {

  00000	55		 push	 ebp
  00001	8b ec		 mov	 ebp, esp
  00003	6a ff		 push	 -1
  00005	68 00 00 00 00	 push	 __ehhandler$?CreateInstance@?$CTempldateHelper@UIPersonalRoomServiceManager@@@@QAE_NXZ
  0000a	64 a1 00 00 00
	00		 mov	 eax, DWORD PTR fs:0
  00010	50		 push	 eax
  00011	51		 push	 ecx
  00012	83 ec 54	 sub	 esp, 84			; 00000054H
  00015	53		 push	 ebx
  00016	56		 push	 esi
  00017	57		 push	 edi
  00018	a1 00 00 00 00	 mov	 eax, DWORD PTR ___security_cookie
  0001d	33 c5		 xor	 eax, ebp
  0001f	50		 push	 eax
  00020	8d 45 f4	 lea	 eax, DWORD PTR __$EHRec$[ebp+4]
  00023	64 a3 00 00 00
	00		 mov	 DWORD PTR fs:0, eax
  00029	89 65 f0	 mov	 DWORD PTR __$EHRec$[ebp], esp
  0002c	89 4d ec	 mov	 DWORD PTR _this$[ebp], ecx

; 213  : 	//释放组件
; 214  : 	CloseInstance();

  0002f	8b 4d ec	 mov	 ecx, DWORD PTR _this$[ebp]
  00032	e8 00 00 00 00	 call	 ?CloseInstance@?$CTempldateHelper@UIPersonalRoomServiceManager@@@@QAE_NXZ ; CTempldateHelper<IPersonalRoomServiceManager>::CloseInstance

; 215  : 
; 216  : 	//创建组件
; 217  : 	try

  00037	c7 45 fc 00 00
	00 00		 mov	 DWORD PTR __$EHRec$[ebp+12], 0

; 218  : 	{
; 219  : 		//效验参数
; 220  : 		ASSERT(m_szCreateProc[0]!=0);

  0003e	b8 01 00 00 00	 mov	 eax, 1
  00043	6b c8 00	 imul	 ecx, eax, 0
  00046	8b 55 ec	 mov	 edx, DWORD PTR _this$[ebp]
  00049	0f be 44 0a 0c	 movsx	 eax, BYTE PTR [edx+ecx+12]
  0004e	85 c0		 test	 eax, eax
  00050	75 19		 jne	 SHORT $LN7@CreateInst
  00052	68 dc 00 00 00	 push	 220			; 000000dcH
  00057	68 00 00 00 00	 push	 OFFSET ??_C@_0DG@CDIFDKED@g?3?2?M?x?$LK?$PM?2happygamewh?2?$LH?$PO?N?q?$LG?K?2?O?$LF?M?$LD@
  0005c	e8 00 00 00 00	 call	 ?AfxAssertFailedLine@@YGHPBDH@Z ; AfxAssertFailedLine
  00061	89 45 9c	 mov	 DWORD PTR tv170[ebp], eax
  00064	83 7d 9c 00	 cmp	 DWORD PTR tv170[ebp], 0
  00068	74 01		 je	 SHORT $LN7@CreateInst
  0006a	cc		 int	 3
$LN7@CreateInst:

; 221  : 		ASSERT(m_szModuleDllName[0]!=0);

  0006b	b8 01 00 00 00	 mov	 eax, 1
  00070	6b c8 00	 imul	 ecx, eax, 0
  00073	8b 55 ec	 mov	 edx, DWORD PTR _this$[ebp]
  00076	0f be 44 0a 4c	 movsx	 eax, BYTE PTR [edx+ecx+76]
  0007b	85 c0		 test	 eax, eax
  0007d	75 19		 jne	 SHORT $LN8@CreateInst
  0007f	68 dd 00 00 00	 push	 221			; 000000ddH
  00084	68 00 00 00 00	 push	 OFFSET ??_C@_0DG@CDIFDKED@g?3?2?M?x?$LK?$PM?2happygamewh?2?$LH?$PO?N?q?$LG?K?2?O?$LF?M?$LD@
  00089	e8 00 00 00 00	 call	 ?AfxAssertFailedLine@@YGHPBDH@Z ; AfxAssertFailedLine
  0008e	89 45 9c	 mov	 DWORD PTR tv171[ebp], eax
  00091	83 7d 9c 00	 cmp	 DWORD PTR tv171[ebp], 0
  00095	74 01		 je	 SHORT $LN8@CreateInst
  00097	cc		 int	 3
$LN8@CreateInst:

; 222  : 
; 223  : 		//加载模块
; 224  : 		m_hDllInstance=AfxLoadLibrary(m_szModuleDllName);

  00098	8b 45 ec	 mov	 eax, DWORD PTR _this$[ebp]
  0009b	83 c0 4c	 add	 eax, 76			; 0000004cH
  0009e	50		 push	 eax
  0009f	e8 00 00 00 00	 call	 ?AfxLoadLibrary@@YGPAUHINSTANCE__@@PBD@Z ; AfxLoadLibrary
  000a4	89 45 9c	 mov	 DWORD PTR tv172[ebp], eax
  000a7	8b 4d ec	 mov	 ecx, DWORD PTR _this$[ebp]
  000aa	8b 55 9c	 mov	 edx, DWORD PTR tv172[ebp]
  000ad	89 91 50 01 00
	00		 mov	 DWORD PTR [ecx+336], edx

; 225  : 		if (m_hDllInstance==NULL) 

  000b3	8b 45 ec	 mov	 eax, DWORD PTR _this$[ebp]
  000b6	83 b8 50 01 00
	00 00		 cmp	 DWORD PTR [eax+336], 0
  000bd	75 2a		 jne	 SHORT $LN3@CreateInst

; 226  : 		{
; 227  : 			_sntprintf_s(m_szDescribe,CountArray(m_szDescribe),TEXT("“%s”模块加载失败"),m_szModuleDllName);

  000bf	8b 45 ec	 mov	 eax, DWORD PTR _this$[ebp]
  000c2	83 c0 4c	 add	 eax, 76			; 0000004cH
  000c5	50		 push	 eax
  000c6	68 00 00 00 00	 push	 OFFSET ??_C@_0BD@LMOFNGMO@?$KB?$LA?$CFs?$KB?$LB?D?$KD?$LP?i?$LM?S?T?X?J?$KH?$LA?$NM@
  000cb	68 80 00 00 00	 push	 128			; 00000080H
  000d0	8b 4d ec	 mov	 ecx, DWORD PTR _this$[ebp]
  000d3	81 c1 58 01 00
	00		 add	 ecx, 344		; 00000158H
  000d9	51		 push	 ecx
  000da	e8 00 00 00 00	 call	 ??$_snprintf_s@$0IA@@@YAHAAY0IA@DIPBDZZ ; _snprintf_s<128>
  000df	83 c4 10	 add	 esp, 16			; 00000010H

; 228  : 			return false;

  000e2	32 c0		 xor	 al, al
  000e4	e9 34 01 00 00	 jmp	 $LN1@CreateInst
$LN3@CreateInst:

; 229  : 		}
; 230  : 
; 231  : 		//寻找函数
; 232  : 		ModuleCreateProc * CreateProc=(ModuleCreateProc *)GetProcAddress(m_hDllInstance,m_szCreateProc);

  000e9	8b 45 ec	 mov	 eax, DWORD PTR _this$[ebp]
  000ec	83 c0 0c	 add	 eax, 12			; 0000000cH
  000ef	50		 push	 eax
  000f0	8b 4d ec	 mov	 ecx, DWORD PTR _this$[ebp]
  000f3	8b 91 50 01 00
	00		 mov	 edx, DWORD PTR [ecx+336]
  000f9	52		 push	 edx
  000fa	ff 15 00 00 00
	00		 call	 DWORD PTR __imp__GetProcAddress@8
  00100	89 45 e8	 mov	 DWORD PTR _CreateProc$5[ebp], eax

; 233  : 		if (CreateProc==NULL) 

  00103	83 7d e8 00	 cmp	 DWORD PTR _CreateProc$5[ebp], 0
  00107	75 31		 jne	 SHORT $LN4@CreateInst

; 234  : 		{		
; 235  : 			_sntprintf_s(m_szDescribe, CountArray(m_szDescribe), TEXT("找不到组件创建函数“%s”:%d"), m_szCreateProc, GetLastError());

  00109	ff 15 00 00 00
	00		 call	 DWORD PTR __imp__GetLastError@0
  0010f	50		 push	 eax
  00110	8b 45 ec	 mov	 eax, DWORD PTR _this$[ebp]
  00113	83 c0 0c	 add	 eax, 12			; 0000000cH
  00116	50		 push	 eax
  00117	68 00 00 00 00	 push	 OFFSET ??_C@_0BM@PEGNCJOH@?U?R?$LC?$LL?$LF?$LN?W?i?$LM?$PO?$LE?$LE?$LN?$KI?$LK?$KP?J?$PN?$KB?$LA?$CFs?$KB?$LB?3?$CFd@
  0011c	68 80 00 00 00	 push	 128			; 00000080H
  00121	8b 4d ec	 mov	 ecx, DWORD PTR _this$[ebp]
  00124	81 c1 58 01 00
	00		 add	 ecx, 344		; 00000158H
  0012a	51		 push	 ecx
  0012b	e8 00 00 00 00	 call	 ??$_snprintf_s@$0IA@@@YAHAAY0IA@DIPBDZZ ; _snprintf_s<128>
  00130	83 c4 14	 add	 esp, 20			; 00000014H

; 236  : 			return false;

  00133	32 c0		 xor	 al, al
  00135	e9 e3 00 00 00	 jmp	 $LN1@CreateInst
$LN4@CreateInst:

; 237  : 		}
; 238  : 
; 239  : 		//创建组件
; 240  : 		m_pIModeluInterface=(IModeluInterface *)CreateProc(m_Guid,m_dwVersion);

  0013a	8b 45 ec	 mov	 eax, DWORD PTR _this$[ebp]
  0013d	8b 48 08	 mov	 ecx, DWORD PTR [eax+8]
  00140	51		 push	 ecx
  00141	8b 55 ec	 mov	 edx, DWORD PTR _this$[ebp]
  00144	8b 42 04	 mov	 eax, DWORD PTR [edx+4]
  00147	50		 push	 eax
  00148	ff 55 e8	 call	 DWORD PTR _CreateProc$5[ebp]
  0014b	83 c4 08	 add	 esp, 8
  0014e	89 45 9c	 mov	 DWORD PTR tv173[ebp], eax
  00151	8b 4d ec	 mov	 ecx, DWORD PTR _this$[ebp]
  00154	8b 55 9c	 mov	 edx, DWORD PTR tv173[ebp]
  00157	89 91 54 01 00
	00		 mov	 DWORD PTR [ecx+340], edx

; 241  : 		if (m_pIModeluInterface==NULL) 

  0015d	8b 45 ec	 mov	 eax, DWORD PTR _this$[ebp]
  00160	83 b8 54 01 00
	00 00		 cmp	 DWORD PTR [eax+340], 0
  00167	75 2a		 jne	 SHORT $LN5@CreateInst

; 242  : 		{
; 243  : 			_sntprintf_s(m_szDescribe,CountArray(m_szDescribe),TEXT("调用函数“%s”生成对象失败"),m_szCreateProc);

  00169	8b 45 ec	 mov	 eax, DWORD PTR _this$[ebp]
  0016c	83 c0 0c	 add	 eax, 12			; 0000000cH
  0016f	50		 push	 eax
  00170	68 00 00 00 00	 push	 OFFSET ??_C@_0BL@PDAODLKM@?$LF?w?S?C?$LK?$KP?J?$PN?$KB?$LA?$CFs?$KB?$LB?I?z?$LD?I?$LG?T?O?s?J?$KH?$LA?$NM@
  00175	68 80 00 00 00	 push	 128			; 00000080H
  0017a	8b 4d ec	 mov	 ecx, DWORD PTR _this$[ebp]
  0017d	81 c1 58 01 00
	00		 add	 ecx, 344		; 00000158H
  00183	51		 push	 ecx
  00184	e8 00 00 00 00	 call	 ??$_snprintf_s@$0IA@@@YAHAAY0IA@DIPBDZZ ; _snprintf_s<128>
  00189	83 c4 10	 add	 esp, 16			; 00000010H

; 244  : 			return false;

  0018c	32 c0		 xor	 al, al
  0018e	e9 8a 00 00 00	 jmp	 $LN1@CreateInst
$LN5@CreateInst:

; 245  : 		}
; 246  : 	}

  00193	eb 63		 jmp	 SHORT $LN9@CreateInst
__catch$?CreateInstance@?$CTempldateHelper@UIPersonalRoomServiceManager@@@@QAE_NXZ$0:

; 247  : 	catch (LPCTSTR pszError)
; 248  : 	{
; 249  : 		_sntprintf_s(m_szDescribe,CountArray(m_szDescribe),TEXT("由于“%s”，组件创建失败"),pszError);

  00195	8b 45 e4	 mov	 eax, DWORD PTR _pszError$4[ebp]
  00198	50		 push	 eax
  00199	68 00 00 00 00	 push	 OFFSET ??_C@_0BJ@JGPFHIJF@?S?I?S?Z?$KB?$LA?$CFs?$KB?$LB?$KD?$KM?W?i?$LM?$PO?$LE?$LE?$LN?$KI?J?$KH?$LA?$NM@
  0019e	68 80 00 00 00	 push	 128			; 00000080H
  001a3	8b 4d ec	 mov	 ecx, DWORD PTR _this$[ebp]
  001a6	81 c1 58 01 00
	00		 add	 ecx, 344		; 00000158H
  001ac	51		 push	 ecx
  001ad	e8 00 00 00 00	 call	 ??$_snprintf_s@$0IA@@@YAHAAY0IA@DIPBDZZ ; _snprintf_s<128>
  001b2	83 c4 10	 add	 esp, 16			; 00000010H

; 250  : 		return false;

  001b5	c6 45 a3 00	 mov	 BYTE PTR $T3[ebp], 0
  001b9	b8 00 00 00 00	 mov	 eax, $LN13@CreateInst
  001be	c3		 ret	 0

; 251  : 	}

  001bf	b8 00 00 00 00	 mov	 eax, $LN9@CreateInst
  001c4	c3		 ret	 0
__catch$?CreateInstance@?$CTempldateHelper@UIPersonalRoomServiceManager@@@@QAE_NXZ$1:

; 252  : 	catch (...)	
; 253  : 	{ 
; 254  : 		_sntprintf_s(m_szDescribe,CountArray(m_szDescribe),TEXT("组件创建函数“%s”产生未知异常错误，组件创建失败"),m_szCreateProc);

  001c5	8b 45 ec	 mov	 eax, DWORD PTR _this$[ebp]
  001c8	83 c0 0c	 add	 eax, 12			; 0000000cH
  001cb	50		 push	 eax
  001cc	68 00 00 00 00	 push	 OFFSET ??_C@_0DB@JBNKENAJ@?W?i?$LM?$PO?$LE?$LE?$LN?$KI?$LK?$KP?J?$PN?$KB?$LA?$CFs?$KB?$LB?$LC?z?I?z?N?$LE?V?$KK?R?l?$LD?$KD?$LE@
  001d1	68 80 00 00 00	 push	 128			; 00000080H
  001d6	8b 4d ec	 mov	 ecx, DWORD PTR _this$[ebp]
  001d9	81 c1 58 01 00
	00		 add	 ecx, 344		; 00000158H
  001df	51		 push	 ecx
  001e0	e8 00 00 00 00	 call	 ??$_snprintf_s@$0IA@@@YAHAAY0IA@DIPBDZZ ; _snprintf_s<128>
  001e5	83 c4 10	 add	 esp, 16			; 00000010H

; 255  : 		return false;

  001e8	c6 45 a2 00	 mov	 BYTE PTR $T2[ebp], 0
  001ec	b8 00 00 00 00	 mov	 eax, $LN15@CreateInst
  001f1	c3		 ret	 0

; 256  : 	}

  001f2	b8 00 00 00 00	 mov	 eax, $LN9@CreateInst
  001f7	c3		 ret	 0
$LN9@CreateInst:
  001f8	c7 45 fc ff ff
	ff ff		 mov	 DWORD PTR __$EHRec$[ebp+12], -1
  001ff	eb 0c		 jmp	 SHORT $LN14@CreateInst
$LN15@CreateInst:
  00201	c7 45 fc ff ff
	ff ff		 mov	 DWORD PTR __$EHRec$[ebp+12], -1

; 255  : 		return false;

  00208	8a 45 a2	 mov	 al, BYTE PTR $T2[ebp]
  0020b	eb 10		 jmp	 SHORT $LN1@CreateInst
$LN14@CreateInst:
  0020d	eb 0c		 jmp	 SHORT $LN12@CreateInst
$LN13@CreateInst:
  0020f	c7 45 fc ff ff
	ff ff		 mov	 DWORD PTR __$EHRec$[ebp+12], -1

; 250  : 		return false;

  00216	8a 45 a3	 mov	 al, BYTE PTR $T3[ebp]
  00219	eb 02		 jmp	 SHORT $LN1@CreateInst
$LN12@CreateInst:

; 257  : 
; 258  : 	return true;

  0021b	b0 01		 mov	 al, 1
$LN1@CreateInst:

; 259  : }

  0021d	8b 4d f4	 mov	 ecx, DWORD PTR __$EHRec$[ebp+4]
  00220	64 89 0d 00 00
	00 00		 mov	 DWORD PTR fs:0, ecx
  00227	59		 pop	 ecx
  00228	5f		 pop	 edi
  00229	5e		 pop	 esi
  0022a	5b		 pop	 ebx
  0022b	8b e5		 mov	 esp, ebp
  0022d	5d		 pop	 ebp
  0022e	c3		 ret	 0
_TEXT	ENDS
;	COMDAT text$x
text$x	SEGMENT
__ehhandler$?CreateInstance@?$CTempldateHelper@UIPersonalRoomServiceManager@@@@QAE_NXZ:
  00000	8b 54 24 08	 mov	 edx, DWORD PTR [esp+8]
  00004	8d 42 0c	 lea	 eax, DWORD PTR [edx+12]
  00007	8b 4a 98	 mov	 ecx, DWORD PTR [edx-104]
  0000a	33 c8		 xor	 ecx, eax
  0000c	e8 00 00 00 00	 call	 @__security_check_cookie@4
  00011	b8 00 00 00 00	 mov	 eax, OFFSET __ehfuncinfo$?CreateInstance@?$CTempldateHelper@UIPersonalRoomServiceManager@@@@QAE_NXZ
  00016	e9 00 00 00 00	 jmp	 ___CxxFrameHandler3
text$x	ENDS
?CreateInstance@?$CTempldateHelper@UIPersonalRoomServiceManager@@@@QAE_NXZ ENDP ; CTempldateHelper<IPersonalRoomServiceManager>::CreateInstance
; Function compile flags: /Odtp /ZI
; File g:\网狐\happygamewh\服务端\系统模块\全局定义\module.h
;	COMDAT ?CloseInstance@?$CTempldateHelper@UIPersonalRoomServiceManager@@@@QAE_NXZ
_TEXT	SEGMENT
_this$ = -4						; size = 4
?CloseInstance@?$CTempldateHelper@UIPersonalRoomServiceManager@@@@QAE_NXZ PROC ; CTempldateHelper<IPersonalRoomServiceManager>::CloseInstance, COMDAT
; _this$ = ecx

; 264  : {

  00000	55		 push	 ebp
  00001	8b ec		 mov	 ebp, esp
  00003	83 ec 44	 sub	 esp, 68			; 00000044H
  00006	53		 push	 ebx
  00007	56		 push	 esi
  00008	57		 push	 edi
  00009	89 4d fc	 mov	 DWORD PTR _this$[ebp], ecx

; 265  : 	//设置变量
; 266  : 	m_szDescribe[0]=0;

  0000c	b8 01 00 00 00	 mov	 eax, 1
  00011	6b c8 00	 imul	 ecx, eax, 0
  00014	8b 55 fc	 mov	 edx, DWORD PTR _this$[ebp]
  00017	c6 84 0a 58 01
	00 00 00	 mov	 BYTE PTR [edx+ecx+344], 0

; 267  : 
; 268  : 	//销毁对象
; 269  : 	if (m_pIModeluInterface!=NULL)

  0001f	8b 45 fc	 mov	 eax, DWORD PTR _this$[ebp]
  00022	83 b8 54 01 00
	00 00		 cmp	 DWORD PTR [eax+340], 0
  00029	74 25		 je	 SHORT $LN2@CloseInsta

; 270  : 	{
; 271  : 		m_pIModeluInterface->Release();

  0002b	8b 45 fc	 mov	 eax, DWORD PTR _this$[ebp]
  0002e	8b 88 54 01 00
	00		 mov	 ecx, DWORD PTR [eax+340]
  00034	8b 55 fc	 mov	 edx, DWORD PTR _this$[ebp]
  00037	8b 01		 mov	 eax, DWORD PTR [ecx]
  00039	8b 8a 54 01 00
	00		 mov	 ecx, DWORD PTR [edx+340]
  0003f	8b 10		 mov	 edx, DWORD PTR [eax]
  00041	ff d2		 call	 edx

; 272  : 		m_pIModeluInterface=NULL;

  00043	8b 45 fc	 mov	 eax, DWORD PTR _this$[ebp]
  00046	c7 80 54 01 00
	00 00 00 00 00	 mov	 DWORD PTR [eax+340], 0
$LN2@CloseInsta:

; 273  : 	}
; 274  : 
; 275  : 	//释放 DLL
; 276  : 	if (m_hDllInstance!=NULL)

  00050	8b 45 fc	 mov	 eax, DWORD PTR _this$[ebp]
  00053	83 b8 50 01 00
	00 00		 cmp	 DWORD PTR [eax+336], 0
  0005a	74 1c		 je	 SHORT $LN3@CloseInsta

; 277  : 	{
; 278  : 		AfxFreeLibrary(m_hDllInstance);

  0005c	8b 45 fc	 mov	 eax, DWORD PTR _this$[ebp]
  0005f	8b 88 50 01 00
	00		 mov	 ecx, DWORD PTR [eax+336]
  00065	51		 push	 ecx
  00066	e8 00 00 00 00	 call	 ?AfxFreeLibrary@@YGHPAUHINSTANCE__@@@Z ; AfxFreeLibrary

; 279  : 		m_hDllInstance=NULL;

  0006b	8b 45 fc	 mov	 eax, DWORD PTR _this$[ebp]
  0006e	c7 80 50 01 00
	00 00 00 00 00	 mov	 DWORD PTR [eax+336], 0
$LN3@CloseInsta:

; 280  : 	}
; 281  : 
; 282  : 	return true;

  00078	b0 01		 mov	 al, 1

; 283  : }

  0007a	5f		 pop	 edi
  0007b	5e		 pop	 esi
  0007c	5b		 pop	 ebx
  0007d	8b e5		 mov	 esp, ebp
  0007f	5d		 pop	 ebp
  00080	c3		 ret	 0
?CloseInstance@?$CTempldateHelper@UIPersonalRoomServiceManager@@@@QAE_NXZ ENDP ; CTempldateHelper<IPersonalRoomServiceManager>::CloseInstance
_TEXT	ENDS
; Function compile flags: /Odtp /ZI
; File g:\网狐\happygamewh\服务端\系统模块\全局定义\module.h
;	COMDAT ??1?$CTempldateHelper@UIPersonalRoomServiceManager@@@@UAE@XZ
_TEXT	SEGMENT
_this$ = -16						; size = 4
__$EHRec$ = -12						; size = 12
??1?$CTempldateHelper@UIPersonalRoomServiceManager@@@@UAE@XZ PROC ; CTempldateHelper<IPersonalRoomServiceManager>::~CTempldateHelper<IPersonalRoomServiceManager>, COMDAT
; _this$ = ecx

; 205  : {

  00000	55		 push	 ebp
  00001	8b ec		 mov	 ebp, esp
  00003	6a ff		 push	 -1
  00005	68 00 00 00 00	 push	 __ehhandler$??1?$CTempldateHelper@UIPersonalRoomServiceManager@@@@UAE@XZ
  0000a	64 a1 00 00 00
	00		 mov	 eax, DWORD PTR fs:0
  00010	50		 push	 eax
  00011	83 ec 44	 sub	 esp, 68			; 00000044H
  00014	53		 push	 ebx
  00015	56		 push	 esi
  00016	57		 push	 edi
  00017	a1 00 00 00 00	 mov	 eax, DWORD PTR ___security_cookie
  0001c	33 c5		 xor	 eax, ebp
  0001e	50		 push	 eax
  0001f	8d 45 f4	 lea	 eax, DWORD PTR __$EHRec$[ebp]
  00022	64 a3 00 00 00
	00		 mov	 DWORD PTR fs:0, eax
  00028	89 4d f0	 mov	 DWORD PTR _this$[ebp], ecx
  0002b	8b 45 f0	 mov	 eax, DWORD PTR _this$[ebp]
  0002e	c7 00 00 00 00
	00		 mov	 DWORD PTR [eax], OFFSET ??_7?$CTempldateHelper@UIPersonalRoomServiceManager@@@@6B@

; 206  : 	CloseInstance();

  00034	8b 4d f0	 mov	 ecx, DWORD PTR _this$[ebp]
  00037	e8 00 00 00 00	 call	 ?CloseInstance@?$CTempldateHelper@UIPersonalRoomServiceManager@@@@QAE_NXZ ; CTempldateHelper<IPersonalRoomServiceManager>::CloseInstance

; 207  : }

  0003c	8b 4d f4	 mov	 ecx, DWORD PTR __$EHRec$[ebp]
  0003f	64 89 0d 00 00
	00 00		 mov	 DWORD PTR fs:0, ecx
  00046	59		 pop	 ecx
  00047	5f		 pop	 edi
  00048	5e		 pop	 esi
  00049	5b		 pop	 ebx
  0004a	8b e5		 mov	 esp, ebp
  0004c	5d		 pop	 ebp
  0004d	c3		 ret	 0
_TEXT	ENDS
;	COMDAT text$x
text$x	SEGMENT
__ehhandler$??1?$CTempldateHelper@UIPersonalRoomServiceManager@@@@UAE@XZ:
  00000	8b 54 24 08	 mov	 edx, DWORD PTR [esp+8]
  00004	8d 42 0c	 lea	 eax, DWORD PTR [edx+12]
  00007	8b 4a ac	 mov	 ecx, DWORD PTR [edx-84]
  0000a	33 c8		 xor	 ecx, eax
  0000c	e8 00 00 00 00	 call	 @__security_check_cookie@4
  00011	b8 00 00 00 00	 mov	 eax, OFFSET __ehfuncinfo$??1?$CTempldateHelper@UIPersonalRoomServiceManager@@@@UAE@XZ
  00016	e9 00 00 00 00	 jmp	 ___CxxFrameHandler3
text$x	ENDS
??1?$CTempldateHelper@UIPersonalRoomServiceManager@@@@UAE@XZ ENDP ; CTempldateHelper<IPersonalRoomServiceManager>::~CTempldateHelper<IPersonalRoomServiceManager>
; Function compile flags: /Odtp /ZI
; File g:\网狐\happygamewh\服务端\系统模块\全局定义\module.h
;	COMDAT ??0?$CTempldateHelper@UIPersonalRoomServiceManager@@@@QAE@ABU_GUID@@KPBD1@Z
_TEXT	SEGMENT
_this$ = -4						; size = 4
_Guid$ = 8						; size = 4
_dwVersion$ = 12					; size = 4
_pszModuleDll$ = 16					; size = 4
_pszCreateProc$ = 20					; size = 4
??0?$CTempldateHelper@UIPersonalRoomServiceManager@@@@QAE@ABU_GUID@@KPBD1@Z PROC ; CTempldateHelper<IPersonalRoomServiceManager>::CTempldateHelper<IPersonalRoomServiceManager>, COMDAT
; _this$ = ecx

; 187  : {

  00000	55		 push	 ebp
  00001	8b ec		 mov	 ebp, esp
  00003	83 ec 44	 sub	 esp, 68			; 00000044H
  00006	53		 push	 ebx
  00007	56		 push	 esi
  00008	57		 push	 edi
  00009	89 4d fc	 mov	 DWORD PTR _this$[ebp], ecx
  0000c	8b 45 fc	 mov	 eax, DWORD PTR _this$[ebp]
  0000f	c7 00 00 00 00
	00		 mov	 DWORD PTR [eax], OFFSET ??_7?$CTempldateHelper@UIPersonalRoomServiceManager@@@@6B@

; 186  : CTempldateHelper<IModeluInterface>::CTempldateHelper(REFGUID Guid, DWORD dwVersion, LPCTSTR pszModuleDll, LPCSTR pszCreateProc) : m_dwVersion(dwVersion), m_Guid(Guid)

  00015	8b 45 fc	 mov	 eax, DWORD PTR _this$[ebp]
  00018	8b 4d 08	 mov	 ecx, DWORD PTR _Guid$[ebp]
  0001b	89 48 04	 mov	 DWORD PTR [eax+4], ecx
  0001e	8b 45 fc	 mov	 eax, DWORD PTR _this$[ebp]
  00021	8b 4d 0c	 mov	 ecx, DWORD PTR _dwVersion$[ebp]
  00024	89 48 08	 mov	 DWORD PTR [eax+8], ecx

; 188  : 	//辅助变量
; 189  : 	m_szDescribe[0]=0;

  00027	b8 01 00 00 00	 mov	 eax, 1
  0002c	6b c8 00	 imul	 ecx, eax, 0
  0002f	8b 55 fc	 mov	 edx, DWORD PTR _this$[ebp]
  00032	c6 84 0a 58 01
	00 00 00	 mov	 BYTE PTR [edx+ecx+344], 0

; 190  : 
; 191  : 	//内核信息
; 192  : 	m_hDllInstance=NULL;

  0003a	8b 45 fc	 mov	 eax, DWORD PTR _this$[ebp]
  0003d	c7 80 50 01 00
	00 00 00 00 00	 mov	 DWORD PTR [eax+336], 0

; 193  : 	m_pIModeluInterface=NULL;

  00047	8b 45 fc	 mov	 eax, DWORD PTR _this$[ebp]
  0004a	c7 80 54 01 00
	00 00 00 00 00	 mov	 DWORD PTR [eax+340], 0

; 194  : 
; 195  : 	//组件属性
; 196  : 	lstrcpynA(m_szCreateProc,pszCreateProc,CountArray(m_szCreateProc));

  00054	6a 40		 push	 64			; 00000040H
  00056	8b 45 14	 mov	 eax, DWORD PTR _pszCreateProc$[ebp]
  00059	50		 push	 eax
  0005a	8b 4d fc	 mov	 ecx, DWORD PTR _this$[ebp]
  0005d	83 c1 0c	 add	 ecx, 12			; 0000000cH
  00060	51		 push	 ecx
  00061	ff 15 00 00 00
	00		 call	 DWORD PTR __imp__lstrcpynA@12

; 197  : 	lstrcpyn(m_szModuleDllName,pszModuleDll,CountArray(m_szModuleDllName));

  00067	68 04 01 00 00	 push	 260			; 00000104H
  0006c	8b 45 10	 mov	 eax, DWORD PTR _pszModuleDll$[ebp]
  0006f	50		 push	 eax
  00070	8b 4d fc	 mov	 ecx, DWORD PTR _this$[ebp]
  00073	83 c1 4c	 add	 ecx, 76			; 0000004cH
  00076	51		 push	 ecx
  00077	ff 15 00 00 00
	00		 call	 DWORD PTR __imp__lstrcpynA@12

; 198  : 
; 199  : 	return;
; 200  : }

  0007d	8b 45 fc	 mov	 eax, DWORD PTR _this$[ebp]
  00080	5f		 pop	 edi
  00081	5e		 pop	 esi
  00082	5b		 pop	 ebx
  00083	8b e5		 mov	 esp, ebp
  00085	5d		 pop	 ebp
  00086	c2 10 00	 ret	 16			; 00000010H
??0?$CTempldateHelper@UIPersonalRoomServiceManager@@@@QAE@ABU_GUID@@KPBD1@Z ENDP ; CTempldateHelper<IPersonalRoomServiceManager>::CTempldateHelper<IPersonalRoomServiceManager>
_TEXT	ENDS
; Function compile flags: /Odtp /ZI
;	COMDAT ??_GCMatchServiceManagerHelper@@UAEPAXI@Z
_TEXT	SEGMENT
_this$ = -4						; size = 4
___flags$ = 8						; size = 4
??_GCMatchServiceManagerHelper@@UAEPAXI@Z PROC		; CMatchServiceManagerHelper::`scalar deleting destructor', COMDAT
; _this$ = ecx
  00000	55		 push	 ebp
  00001	8b ec		 mov	 ebp, esp
  00003	83 ec 44	 sub	 esp, 68			; 00000044H
  00006	53		 push	 ebx
  00007	56		 push	 esi
  00008	57		 push	 edi
  00009	89 4d fc	 mov	 DWORD PTR _this$[ebp], ecx
  0000c	8b 4d fc	 mov	 ecx, DWORD PTR _this$[ebp]
  0000f	e8 00 00 00 00	 call	 ??1CMatchServiceManagerHelper@@UAE@XZ
  00014	8b 45 08	 mov	 eax, DWORD PTR ___flags$[ebp]
  00017	83 e0 01	 and	 eax, 1
  0001a	74 11		 je	 SHORT $LN2@scalar
  0001c	68 d8 01 00 00	 push	 472			; 000001d8H
  00021	8b 45 fc	 mov	 eax, DWORD PTR _this$[ebp]
  00024	50		 push	 eax
  00025	e8 00 00 00 00	 call	 ??3@YAXPAXI@Z		; operator delete
  0002a	83 c4 08	 add	 esp, 8
$LN2@scalar:
  0002d	8b 45 fc	 mov	 eax, DWORD PTR _this$[ebp]
  00030	5f		 pop	 edi
  00031	5e		 pop	 esi
  00032	5b		 pop	 ebx
  00033	8b e5		 mov	 esp, ebp
  00035	5d		 pop	 ebp
  00036	c2 04 00	 ret	 4
??_GCMatchServiceManagerHelper@@UAEPAXI@Z ENDP		; CMatchServiceManagerHelper::`scalar deleting destructor'
_TEXT	ENDS
; Function compile flags: /Odtp /ZI
;	COMDAT ??1CMatchServiceManagerHelper@@UAE@XZ
_TEXT	SEGMENT
_this$ = -4						; size = 4
??1CMatchServiceManagerHelper@@UAE@XZ PROC		; CMatchServiceManagerHelper::~CMatchServiceManagerHelper, COMDAT
; _this$ = ecx
  00000	55		 push	 ebp
  00001	8b ec		 mov	 ebp, esp
  00003	83 ec 44	 sub	 esp, 68			; 00000044H
  00006	53		 push	 ebx
  00007	56		 push	 esi
  00008	57		 push	 edi
  00009	89 4d fc	 mov	 DWORD PTR _this$[ebp], ecx
  0000c	8b 4d fc	 mov	 ecx, DWORD PTR _this$[ebp]
  0000f	e8 00 00 00 00	 call	 ??1?$CTempldateHelper@UIMatchServiceManager@@@@UAE@XZ ; CTempldateHelper<IMatchServiceManager>::~CTempldateHelper<IMatchServiceManager>
  00014	5f		 pop	 edi
  00015	5e		 pop	 esi
  00016	5b		 pop	 ebx
  00017	8b e5		 mov	 esp, ebp
  00019	5d		 pop	 ebp
  0001a	c3		 ret	 0
??1CMatchServiceManagerHelper@@UAE@XZ ENDP		; CMatchServiceManagerHelper::~CMatchServiceManagerHelper
_TEXT	ENDS
; Function compile flags: /Odtp /ZI
; File g:\网狐\happygamewh\服务端\系统模块\服务器组件\比赛服务\matchservicehead.h
;	COMDAT ??0CMatchServiceManagerHelper@@QAE@XZ
_TEXT	SEGMENT
_this$ = -4						; size = 4
??0CMatchServiceManagerHelper@@QAE@XZ PROC		; CMatchServiceManagerHelper::CMatchServiceManagerHelper, COMDAT
; _this$ = ecx

; 266  : DECLARE_MODULE_HELPER(MatchServiceManager,MATCH_SERVICE_DLL_NAME,"CreateMatchServiceManager")

  00000	55		 push	 ebp
  00001	8b ec		 mov	 ebp, esp
  00003	83 ec 44	 sub	 esp, 68			; 00000044H
  00006	53		 push	 ebx
  00007	56		 push	 esi
  00008	57		 push	 edi
  00009	89 4d fc	 mov	 DWORD PTR _this$[ebp], ecx
  0000c	68 00 00 00 00	 push	 OFFSET ??_C@_0BK@LKNHFFBP@CreateMatchServiceManager@
  00011	68 00 00 00 00	 push	 OFFSET ??_C@_0BB@LCDNABBP@MatchService?4dll@
  00016	68 00 01 01 06	 push	 100729088		; 06010100H
  0001b	68 00 00 00 00	 push	 OFFSET ?IID_IMatchServiceManager@@3U_GUID@@B
  00020	8b 4d fc	 mov	 ecx, DWORD PTR _this$[ebp]
  00023	e8 00 00 00 00	 call	 ??0?$CTempldateHelper@UIMatchServiceManager@@@@QAE@ABU_GUID@@KPBD1@Z ; CTempldateHelper<IMatchServiceManager>::CTempldateHelper<IMatchServiceManager>
  00028	8b 45 fc	 mov	 eax, DWORD PTR _this$[ebp]
  0002b	c7 00 00 00 00
	00		 mov	 DWORD PTR [eax], OFFSET ??_7CMatchServiceManagerHelper@@6B@
  00031	8b 45 fc	 mov	 eax, DWORD PTR _this$[ebp]
  00034	5f		 pop	 edi
  00035	5e		 pop	 esi
  00036	5b		 pop	 ebx
  00037	8b e5		 mov	 esp, ebp
  00039	5d		 pop	 ebp
  0003a	c3		 ret	 0
??0CMatchServiceManagerHelper@@QAE@XZ ENDP		; CMatchServiceManagerHelper::CMatchServiceManagerHelper
_TEXT	ENDS
; Function compile flags: /Odtp /ZI
;	COMDAT ??_G?$CTempldateHelper@UIMatchServiceManager@@@@UAEPAXI@Z
_TEXT	SEGMENT
_this$ = -4						; size = 4
___flags$ = 8						; size = 4
??_G?$CTempldateHelper@UIMatchServiceManager@@@@UAEPAXI@Z PROC ; CTempldateHelper<IMatchServiceManager>::`scalar deleting destructor', COMDAT
; _this$ = ecx
  00000	55		 push	 ebp
  00001	8b ec		 mov	 ebp, esp
  00003	83 ec 44	 sub	 esp, 68			; 00000044H
  00006	53		 push	 ebx
  00007	56		 push	 esi
  00008	57		 push	 edi
  00009	89 4d fc	 mov	 DWORD PTR _this$[ebp], ecx
  0000c	8b 4d fc	 mov	 ecx, DWORD PTR _this$[ebp]
  0000f	e8 00 00 00 00	 call	 ??1?$CTempldateHelper@UIMatchServiceManager@@@@UAE@XZ ; CTempldateHelper<IMatchServiceManager>::~CTempldateHelper<IMatchServiceManager>
  00014	8b 45 08	 mov	 eax, DWORD PTR ___flags$[ebp]
  00017	83 e0 01	 and	 eax, 1
  0001a	74 11		 je	 SHORT $LN2@scalar
  0001c	68 d8 01 00 00	 push	 472			; 000001d8H
  00021	8b 45 fc	 mov	 eax, DWORD PTR _this$[ebp]
  00024	50		 push	 eax
  00025	e8 00 00 00 00	 call	 ??3@YAXPAXI@Z		; operator delete
  0002a	83 c4 08	 add	 esp, 8
$LN2@scalar:
  0002d	8b 45 fc	 mov	 eax, DWORD PTR _this$[ebp]
  00030	5f		 pop	 edi
  00031	5e		 pop	 esi
  00032	5b		 pop	 ebx
  00033	8b e5		 mov	 esp, ebp
  00035	5d		 pop	 ebp
  00036	c2 04 00	 ret	 4
??_G?$CTempldateHelper@UIMatchServiceManager@@@@UAEPAXI@Z ENDP ; CTempldateHelper<IMatchServiceManager>::`scalar deleting destructor'
_TEXT	ENDS
; Function compile flags: /Odtp /ZI
; File g:\网狐\happygamewh\服务端\系统模块\全局定义\module.h
;	COMDAT ?GetInterface@?$CTempldateHelper@UIMatchServiceManager@@@@QBEPAUIMatchServiceManager@@XZ
_TEXT	SEGMENT
_this$ = -4						; size = 4
?GetInterface@?$CTempldateHelper@UIMatchServiceManager@@@@QBEPAUIMatchServiceManager@@XZ PROC ; CTempldateHelper<IMatchServiceManager>::GetInterface, COMDAT
; _this$ = ecx

; 316  : { 

  00000	55		 push	 ebp
  00001	8b ec		 mov	 ebp, esp
  00003	83 ec 44	 sub	 esp, 68			; 00000044H
  00006	53		 push	 ebx
  00007	56		 push	 esi
  00008	57		 push	 edi
  00009	89 4d fc	 mov	 DWORD PTR _this$[ebp], ecx

; 317  : 	return m_pIModeluInterface; 

  0000c	8b 45 fc	 mov	 eax, DWORD PTR _this$[ebp]
  0000f	8b 80 54 01 00
	00		 mov	 eax, DWORD PTR [eax+340]

; 318  : }

  00015	5f		 pop	 edi
  00016	5e		 pop	 esi
  00017	5b		 pop	 ebx
  00018	8b e5		 mov	 esp, ebp
  0001a	5d		 pop	 ebp
  0001b	c3		 ret	 0
?GetInterface@?$CTempldateHelper@UIMatchServiceManager@@@@QBEPAUIMatchServiceManager@@XZ ENDP ; CTempldateHelper<IMatchServiceManager>::GetInterface
_TEXT	ENDS
; Function compile flags: /Odtp /ZI
; File g:\网狐\happygamewh\服务端\系统模块\全局定义\module.h
;	COMDAT ??C?$CTempldateHelper@UIMatchServiceManager@@@@QBEPAUIMatchServiceManager@@XZ
_TEXT	SEGMENT
_this$ = -4						; size = 4
??C?$CTempldateHelper@UIMatchServiceManager@@@@QBEPAUIMatchServiceManager@@XZ PROC ; CTempldateHelper<IMatchServiceManager>::operator->, COMDAT
; _this$ = ecx

; 309  : { 

  00000	55		 push	 ebp
  00001	8b ec		 mov	 ebp, esp
  00003	83 ec 44	 sub	 esp, 68			; 00000044H
  00006	53		 push	 ebx
  00007	56		 push	 esi
  00008	57		 push	 edi
  00009	89 4d fc	 mov	 DWORD PTR _this$[ebp], ecx

; 310  : 	return GetInterface(); 

  0000c	8b 4d fc	 mov	 ecx, DWORD PTR _this$[ebp]
  0000f	e8 00 00 00 00	 call	 ?GetInterface@?$CTempldateHelper@UIMatchServiceManager@@@@QBEPAUIMatchServiceManager@@XZ ; CTempldateHelper<IMatchServiceManager>::GetInterface

; 311  : }

  00014	5f		 pop	 edi
  00015	5e		 pop	 esi
  00016	5b		 pop	 ebx
  00017	8b e5		 mov	 esp, ebp
  00019	5d		 pop	 ebp
  0001a	c3		 ret	 0
??C?$CTempldateHelper@UIMatchServiceManager@@@@QBEPAUIMatchServiceManager@@XZ ENDP ; CTempldateHelper<IMatchServiceManager>::operator->
_TEXT	ENDS
; Function compile flags: /Odtp /ZI
; File g:\网狐\happygamewh\服务端\系统模块\全局定义\module.h
;	COMDAT ?GetErrorDescribe@?$CTempldateHelper@UIMatchServiceManager@@@@QBEPBDXZ
_TEXT	SEGMENT
_this$ = -4						; size = 4
?GetErrorDescribe@?$CTempldateHelper@UIMatchServiceManager@@@@QBEPBDXZ PROC ; CTempldateHelper<IMatchServiceManager>::GetErrorDescribe, COMDAT
; _this$ = ecx

; 302  : { 

  00000	55		 push	 ebp
  00001	8b ec		 mov	 ebp, esp
  00003	83 ec 44	 sub	 esp, 68			; 00000044H
  00006	53		 push	 ebx
  00007	56		 push	 esi
  00008	57		 push	 edi
  00009	89 4d fc	 mov	 DWORD PTR _this$[ebp], ecx

; 303  : 	return m_szDescribe; 

  0000c	8b 45 fc	 mov	 eax, DWORD PTR _this$[ebp]
  0000f	05 58 01 00 00	 add	 eax, 344		; 00000158H

; 304  : }

  00014	5f		 pop	 edi
  00015	5e		 pop	 esi
  00016	5b		 pop	 ebx
  00017	8b e5		 mov	 esp, ebp
  00019	5d		 pop	 ebp
  0001a	c3		 ret	 0
?GetErrorDescribe@?$CTempldateHelper@UIMatchServiceManager@@@@QBEPBDXZ ENDP ; CTempldateHelper<IMatchServiceManager>::GetErrorDescribe
_TEXT	ENDS
; Function compile flags: /Odtp /ZI
; File g:\网狐\happygamewh\服务端\系统模块\全局定义\module.h
;	COMDAT ?CreateInstance@?$CTempldateHelper@UIMatchServiceManager@@@@QAE_NXZ
_TEXT	SEGMENT
tv173 = -100						; size = 4
tv172 = -100						; size = 4
tv171 = -100						; size = 4
tv170 = -100						; size = 4
$T2 = -94						; size = 1
$T3 = -93						; size = 1
_pszError$4 = -28					; size = 4
_CreateProc$5 = -24					; size = 4
_this$ = -20						; size = 4
__$EHRec$ = -16						; size = 16
?CreateInstance@?$CTempldateHelper@UIMatchServiceManager@@@@QAE_NXZ PROC ; CTempldateHelper<IMatchServiceManager>::CreateInstance, COMDAT
; _this$ = ecx

; 212  : {

  00000	55		 push	 ebp
  00001	8b ec		 mov	 ebp, esp
  00003	6a ff		 push	 -1
  00005	68 00 00 00 00	 push	 __ehhandler$?CreateInstance@?$CTempldateHelper@UIMatchServiceManager@@@@QAE_NXZ
  0000a	64 a1 00 00 00
	00		 mov	 eax, DWORD PTR fs:0
  00010	50		 push	 eax
  00011	51		 push	 ecx
  00012	83 ec 54	 sub	 esp, 84			; 00000054H
  00015	53		 push	 ebx
  00016	56		 push	 esi
  00017	57		 push	 edi
  00018	a1 00 00 00 00	 mov	 eax, DWORD PTR ___security_cookie
  0001d	33 c5		 xor	 eax, ebp
  0001f	50		 push	 eax
  00020	8d 45 f4	 lea	 eax, DWORD PTR __$EHRec$[ebp+4]
  00023	64 a3 00 00 00
	00		 mov	 DWORD PTR fs:0, eax
  00029	89 65 f0	 mov	 DWORD PTR __$EHRec$[ebp], esp
  0002c	89 4d ec	 mov	 DWORD PTR _this$[ebp], ecx

; 213  : 	//释放组件
; 214  : 	CloseInstance();

  0002f	8b 4d ec	 mov	 ecx, DWORD PTR _this$[ebp]
  00032	e8 00 00 00 00	 call	 ?CloseInstance@?$CTempldateHelper@UIMatchServiceManager@@@@QAE_NXZ ; CTempldateHelper<IMatchServiceManager>::CloseInstance

; 215  : 
; 216  : 	//创建组件
; 217  : 	try

  00037	c7 45 fc 00 00
	00 00		 mov	 DWORD PTR __$EHRec$[ebp+12], 0

; 218  : 	{
; 219  : 		//效验参数
; 220  : 		ASSERT(m_szCreateProc[0]!=0);

  0003e	b8 01 00 00 00	 mov	 eax, 1
  00043	6b c8 00	 imul	 ecx, eax, 0
  00046	8b 55 ec	 mov	 edx, DWORD PTR _this$[ebp]
  00049	0f be 44 0a 0c	 movsx	 eax, BYTE PTR [edx+ecx+12]
  0004e	85 c0		 test	 eax, eax
  00050	75 19		 jne	 SHORT $LN7@CreateInst
  00052	68 dc 00 00 00	 push	 220			; 000000dcH
  00057	68 00 00 00 00	 push	 OFFSET ??_C@_0DG@CDIFDKED@g?3?2?M?x?$LK?$PM?2happygamewh?2?$LH?$PO?N?q?$LG?K?2?O?$LF?M?$LD@
  0005c	e8 00 00 00 00	 call	 ?AfxAssertFailedLine@@YGHPBDH@Z ; AfxAssertFailedLine
  00061	89 45 9c	 mov	 DWORD PTR tv170[ebp], eax
  00064	83 7d 9c 00	 cmp	 DWORD PTR tv170[ebp], 0
  00068	74 01		 je	 SHORT $LN7@CreateInst
  0006a	cc		 int	 3
$LN7@CreateInst:

; 221  : 		ASSERT(m_szModuleDllName[0]!=0);

  0006b	b8 01 00 00 00	 mov	 eax, 1
  00070	6b c8 00	 imul	 ecx, eax, 0
  00073	8b 55 ec	 mov	 edx, DWORD PTR _this$[ebp]
  00076	0f be 44 0a 4c	 movsx	 eax, BYTE PTR [edx+ecx+76]
  0007b	85 c0		 test	 eax, eax
  0007d	75 19		 jne	 SHORT $LN8@CreateInst
  0007f	68 dd 00 00 00	 push	 221			; 000000ddH
  00084	68 00 00 00 00	 push	 OFFSET ??_C@_0DG@CDIFDKED@g?3?2?M?x?$LK?$PM?2happygamewh?2?$LH?$PO?N?q?$LG?K?2?O?$LF?M?$LD@
  00089	e8 00 00 00 00	 call	 ?AfxAssertFailedLine@@YGHPBDH@Z ; AfxAssertFailedLine
  0008e	89 45 9c	 mov	 DWORD PTR tv171[ebp], eax
  00091	83 7d 9c 00	 cmp	 DWORD PTR tv171[ebp], 0
  00095	74 01		 je	 SHORT $LN8@CreateInst
  00097	cc		 int	 3
$LN8@CreateInst:

; 222  : 
; 223  : 		//加载模块
; 224  : 		m_hDllInstance=AfxLoadLibrary(m_szModuleDllName);

  00098	8b 45 ec	 mov	 eax, DWORD PTR _this$[ebp]
  0009b	83 c0 4c	 add	 eax, 76			; 0000004cH
  0009e	50		 push	 eax
  0009f	e8 00 00 00 00	 call	 ?AfxLoadLibrary@@YGPAUHINSTANCE__@@PBD@Z ; AfxLoadLibrary
  000a4	89 45 9c	 mov	 DWORD PTR tv172[ebp], eax
  000a7	8b 4d ec	 mov	 ecx, DWORD PTR _this$[ebp]
  000aa	8b 55 9c	 mov	 edx, DWORD PTR tv172[ebp]
  000ad	89 91 50 01 00
	00		 mov	 DWORD PTR [ecx+336], edx

; 225  : 		if (m_hDllInstance==NULL) 

  000b3	8b 45 ec	 mov	 eax, DWORD PTR _this$[ebp]
  000b6	83 b8 50 01 00
	00 00		 cmp	 DWORD PTR [eax+336], 0
  000bd	75 2a		 jne	 SHORT $LN3@CreateInst

; 226  : 		{
; 227  : 			_sntprintf_s(m_szDescribe,CountArray(m_szDescribe),TEXT("“%s”模块加载失败"),m_szModuleDllName);

  000bf	8b 45 ec	 mov	 eax, DWORD PTR _this$[ebp]
  000c2	83 c0 4c	 add	 eax, 76			; 0000004cH
  000c5	50		 push	 eax
  000c6	68 00 00 00 00	 push	 OFFSET ??_C@_0BD@LMOFNGMO@?$KB?$LA?$CFs?$KB?$LB?D?$KD?$LP?i?$LM?S?T?X?J?$KH?$LA?$NM@
  000cb	68 80 00 00 00	 push	 128			; 00000080H
  000d0	8b 4d ec	 mov	 ecx, DWORD PTR _this$[ebp]
  000d3	81 c1 58 01 00
	00		 add	 ecx, 344		; 00000158H
  000d9	51		 push	 ecx
  000da	e8 00 00 00 00	 call	 ??$_snprintf_s@$0IA@@@YAHAAY0IA@DIPBDZZ ; _snprintf_s<128>
  000df	83 c4 10	 add	 esp, 16			; 00000010H

; 228  : 			return false;

  000e2	32 c0		 xor	 al, al
  000e4	e9 34 01 00 00	 jmp	 $LN1@CreateInst
$LN3@CreateInst:

; 229  : 		}
; 230  : 
; 231  : 		//寻找函数
; 232  : 		ModuleCreateProc * CreateProc=(ModuleCreateProc *)GetProcAddress(m_hDllInstance,m_szCreateProc);

  000e9	8b 45 ec	 mov	 eax, DWORD PTR _this$[ebp]
  000ec	83 c0 0c	 add	 eax, 12			; 0000000cH
  000ef	50		 push	 eax
  000f0	8b 4d ec	 mov	 ecx, DWORD PTR _this$[ebp]
  000f3	8b 91 50 01 00
	00		 mov	 edx, DWORD PTR [ecx+336]
  000f9	52		 push	 edx
  000fa	ff 15 00 00 00
	00		 call	 DWORD PTR __imp__GetProcAddress@8
  00100	89 45 e8	 mov	 DWORD PTR _CreateProc$5[ebp], eax

; 233  : 		if (CreateProc==NULL) 

  00103	83 7d e8 00	 cmp	 DWORD PTR _CreateProc$5[ebp], 0
  00107	75 31		 jne	 SHORT $LN4@CreateInst

; 234  : 		{		
; 235  : 			_sntprintf_s(m_szDescribe, CountArray(m_szDescribe), TEXT("找不到组件创建函数“%s”:%d"), m_szCreateProc, GetLastError());

  00109	ff 15 00 00 00
	00		 call	 DWORD PTR __imp__GetLastError@0
  0010f	50		 push	 eax
  00110	8b 45 ec	 mov	 eax, DWORD PTR _this$[ebp]
  00113	83 c0 0c	 add	 eax, 12			; 0000000cH
  00116	50		 push	 eax
  00117	68 00 00 00 00	 push	 OFFSET ??_C@_0BM@PEGNCJOH@?U?R?$LC?$LL?$LF?$LN?W?i?$LM?$PO?$LE?$LE?$LN?$KI?$LK?$KP?J?$PN?$KB?$LA?$CFs?$KB?$LB?3?$CFd@
  0011c	68 80 00 00 00	 push	 128			; 00000080H
  00121	8b 4d ec	 mov	 ecx, DWORD PTR _this$[ebp]
  00124	81 c1 58 01 00
	00		 add	 ecx, 344		; 00000158H
  0012a	51		 push	 ecx
  0012b	e8 00 00 00 00	 call	 ??$_snprintf_s@$0IA@@@YAHAAY0IA@DIPBDZZ ; _snprintf_s<128>
  00130	83 c4 14	 add	 esp, 20			; 00000014H

; 236  : 			return false;

  00133	32 c0		 xor	 al, al
  00135	e9 e3 00 00 00	 jmp	 $LN1@CreateInst
$LN4@CreateInst:

; 237  : 		}
; 238  : 
; 239  : 		//创建组件
; 240  : 		m_pIModeluInterface=(IModeluInterface *)CreateProc(m_Guid,m_dwVersion);

  0013a	8b 45 ec	 mov	 eax, DWORD PTR _this$[ebp]
  0013d	8b 48 08	 mov	 ecx, DWORD PTR [eax+8]
  00140	51		 push	 ecx
  00141	8b 55 ec	 mov	 edx, DWORD PTR _this$[ebp]
  00144	8b 42 04	 mov	 eax, DWORD PTR [edx+4]
  00147	50		 push	 eax
  00148	ff 55 e8	 call	 DWORD PTR _CreateProc$5[ebp]
  0014b	83 c4 08	 add	 esp, 8
  0014e	89 45 9c	 mov	 DWORD PTR tv173[ebp], eax
  00151	8b 4d ec	 mov	 ecx, DWORD PTR _this$[ebp]
  00154	8b 55 9c	 mov	 edx, DWORD PTR tv173[ebp]
  00157	89 91 54 01 00
	00		 mov	 DWORD PTR [ecx+340], edx

; 241  : 		if (m_pIModeluInterface==NULL) 

  0015d	8b 45 ec	 mov	 eax, DWORD PTR _this$[ebp]
  00160	83 b8 54 01 00
	00 00		 cmp	 DWORD PTR [eax+340], 0
  00167	75 2a		 jne	 SHORT $LN5@CreateInst

; 242  : 		{
; 243  : 			_sntprintf_s(m_szDescribe,CountArray(m_szDescribe),TEXT("调用函数“%s”生成对象失败"),m_szCreateProc);

  00169	8b 45 ec	 mov	 eax, DWORD PTR _this$[ebp]
  0016c	83 c0 0c	 add	 eax, 12			; 0000000cH
  0016f	50		 push	 eax
  00170	68 00 00 00 00	 push	 OFFSET ??_C@_0BL@PDAODLKM@?$LF?w?S?C?$LK?$KP?J?$PN?$KB?$LA?$CFs?$KB?$LB?I?z?$LD?I?$LG?T?O?s?J?$KH?$LA?$NM@
  00175	68 80 00 00 00	 push	 128			; 00000080H
  0017a	8b 4d ec	 mov	 ecx, DWORD PTR _this$[ebp]
  0017d	81 c1 58 01 00
	00		 add	 ecx, 344		; 00000158H
  00183	51		 push	 ecx
  00184	e8 00 00 00 00	 call	 ??$_snprintf_s@$0IA@@@YAHAAY0IA@DIPBDZZ ; _snprintf_s<128>
  00189	83 c4 10	 add	 esp, 16			; 00000010H

; 244  : 			return false;

  0018c	32 c0		 xor	 al, al
  0018e	e9 8a 00 00 00	 jmp	 $LN1@CreateInst
$LN5@CreateInst:

; 245  : 		}
; 246  : 	}

  00193	eb 63		 jmp	 SHORT $LN9@CreateInst
__catch$?CreateInstance@?$CTempldateHelper@UIMatchServiceManager@@@@QAE_NXZ$0:

; 247  : 	catch (LPCTSTR pszError)
; 248  : 	{
; 249  : 		_sntprintf_s(m_szDescribe,CountArray(m_szDescribe),TEXT("由于“%s”，组件创建失败"),pszError);

  00195	8b 45 e4	 mov	 eax, DWORD PTR _pszError$4[ebp]
  00198	50		 push	 eax
  00199	68 00 00 00 00	 push	 OFFSET ??_C@_0BJ@JGPFHIJF@?S?I?S?Z?$KB?$LA?$CFs?$KB?$LB?$KD?$KM?W?i?$LM?$PO?$LE?$LE?$LN?$KI?J?$KH?$LA?$NM@
  0019e	68 80 00 00 00	 push	 128			; 00000080H
  001a3	8b 4d ec	 mov	 ecx, DWORD PTR _this$[ebp]
  001a6	81 c1 58 01 00
	00		 add	 ecx, 344		; 00000158H
  001ac	51		 push	 ecx
  001ad	e8 00 00 00 00	 call	 ??$_snprintf_s@$0IA@@@YAHAAY0IA@DIPBDZZ ; _snprintf_s<128>
  001b2	83 c4 10	 add	 esp, 16			; 00000010H

; 250  : 		return false;

  001b5	c6 45 a3 00	 mov	 BYTE PTR $T3[ebp], 0
  001b9	b8 00 00 00 00	 mov	 eax, $LN13@CreateInst
  001be	c3		 ret	 0

; 251  : 	}

  001bf	b8 00 00 00 00	 mov	 eax, $LN9@CreateInst
  001c4	c3		 ret	 0
__catch$?CreateInstance@?$CTempldateHelper@UIMatchServiceManager@@@@QAE_NXZ$1:

; 252  : 	catch (...)	
; 253  : 	{ 
; 254  : 		_sntprintf_s(m_szDescribe,CountArray(m_szDescribe),TEXT("组件创建函数“%s”产生未知异常错误，组件创建失败"),m_szCreateProc);

  001c5	8b 45 ec	 mov	 eax, DWORD PTR _this$[ebp]
  001c8	83 c0 0c	 add	 eax, 12			; 0000000cH
  001cb	50		 push	 eax
  001cc	68 00 00 00 00	 push	 OFFSET ??_C@_0DB@JBNKENAJ@?W?i?$LM?$PO?$LE?$LE?$LN?$KI?$LK?$KP?J?$PN?$KB?$LA?$CFs?$KB?$LB?$LC?z?I?z?N?$LE?V?$KK?R?l?$LD?$KD?$LE@
  001d1	68 80 00 00 00	 push	 128			; 00000080H
  001d6	8b 4d ec	 mov	 ecx, DWORD PTR _this$[ebp]
  001d9	81 c1 58 01 00
	00		 add	 ecx, 344		; 00000158H
  001df	51		 push	 ecx
  001e0	e8 00 00 00 00	 call	 ??$_snprintf_s@$0IA@@@YAHAAY0IA@DIPBDZZ ; _snprintf_s<128>
  001e5	83 c4 10	 add	 esp, 16			; 00000010H

; 255  : 		return false;

  001e8	c6 45 a2 00	 mov	 BYTE PTR $T2[ebp], 0
  001ec	b8 00 00 00 00	 mov	 eax, $LN15@CreateInst
  001f1	c3		 ret	 0

; 256  : 	}

  001f2	b8 00 00 00 00	 mov	 eax, $LN9@CreateInst
  001f7	c3		 ret	 0
$LN9@CreateInst:
  001f8	c7 45 fc ff ff
	ff ff		 mov	 DWORD PTR __$EHRec$[ebp+12], -1
  001ff	eb 0c		 jmp	 SHORT $LN14@CreateInst
$LN15@CreateInst:
  00201	c7 45 fc ff ff
	ff ff		 mov	 DWORD PTR __$EHRec$[ebp+12], -1

; 255  : 		return false;

  00208	8a 45 a2	 mov	 al, BYTE PTR $T2[ebp]
  0020b	eb 10		 jmp	 SHORT $LN1@CreateInst
$LN14@CreateInst:
  0020d	eb 0c		 jmp	 SHORT $LN12@CreateInst
$LN13@CreateInst:
  0020f	c7 45 fc ff ff
	ff ff		 mov	 DWORD PTR __$EHRec$[ebp+12], -1

; 250  : 		return false;

  00216	8a 45 a3	 mov	 al, BYTE PTR $T3[ebp]
  00219	eb 02		 jmp	 SHORT $LN1@CreateInst
$LN12@CreateInst:

; 257  : 
; 258  : 	return true;

  0021b	b0 01		 mov	 al, 1
$LN1@CreateInst:

; 259  : }

  0021d	8b 4d f4	 mov	 ecx, DWORD PTR __$EHRec$[ebp+4]
  00220	64 89 0d 00 00
	00 00		 mov	 DWORD PTR fs:0, ecx
  00227	59		 pop	 ecx
  00228	5f		 pop	 edi
  00229	5e		 pop	 esi
  0022a	5b		 pop	 ebx
  0022b	8b e5		 mov	 esp, ebp
  0022d	5d		 pop	 ebp
  0022e	c3		 ret	 0
_TEXT	ENDS
;	COMDAT text$x
text$x	SEGMENT
__ehhandler$?CreateInstance@?$CTempldateHelper@UIMatchServiceManager@@@@QAE_NXZ:
  00000	8b 54 24 08	 mov	 edx, DWORD PTR [esp+8]
  00004	8d 42 0c	 lea	 eax, DWORD PTR [edx+12]
  00007	8b 4a 98	 mov	 ecx, DWORD PTR [edx-104]
  0000a	33 c8		 xor	 ecx, eax
  0000c	e8 00 00 00 00	 call	 @__security_check_cookie@4
  00011	b8 00 00 00 00	 mov	 eax, OFFSET __ehfuncinfo$?CreateInstance@?$CTempldateHelper@UIMatchServiceManager@@@@QAE_NXZ
  00016	e9 00 00 00 00	 jmp	 ___CxxFrameHandler3
text$x	ENDS
?CreateInstance@?$CTempldateHelper@UIMatchServiceManager@@@@QAE_NXZ ENDP ; CTempldateHelper<IMatchServiceManager>::CreateInstance
; Function compile flags: /Odtp /ZI
; File g:\网狐\happygamewh\服务端\系统模块\全局定义\module.h
;	COMDAT ?CloseInstance@?$CTempldateHelper@UIMatchServiceManager@@@@QAE_NXZ
_TEXT	SEGMENT
_this$ = -4						; size = 4
?CloseInstance@?$CTempldateHelper@UIMatchServiceManager@@@@QAE_NXZ PROC ; CTempldateHelper<IMatchServiceManager>::CloseInstance, COMDAT
; _this$ = ecx

; 264  : {

  00000	55		 push	 ebp
  00001	8b ec		 mov	 ebp, esp
  00003	83 ec 44	 sub	 esp, 68			; 00000044H
  00006	53		 push	 ebx
  00007	56		 push	 esi
  00008	57		 push	 edi
  00009	89 4d fc	 mov	 DWORD PTR _this$[ebp], ecx

; 265  : 	//设置变量
; 266  : 	m_szDescribe[0]=0;

  0000c	b8 01 00 00 00	 mov	 eax, 1
  00011	6b c8 00	 imul	 ecx, eax, 0
  00014	8b 55 fc	 mov	 edx, DWORD PTR _this$[ebp]
  00017	c6 84 0a 58 01
	00 00 00	 mov	 BYTE PTR [edx+ecx+344], 0

; 267  : 
; 268  : 	//销毁对象
; 269  : 	if (m_pIModeluInterface!=NULL)

  0001f	8b 45 fc	 mov	 eax, DWORD PTR _this$[ebp]
  00022	83 b8 54 01 00
	00 00		 cmp	 DWORD PTR [eax+340], 0
  00029	74 25		 je	 SHORT $LN2@CloseInsta

; 270  : 	{
; 271  : 		m_pIModeluInterface->Release();

  0002b	8b 45 fc	 mov	 eax, DWORD PTR _this$[ebp]
  0002e	8b 88 54 01 00
	00		 mov	 ecx, DWORD PTR [eax+340]
  00034	8b 55 fc	 mov	 edx, DWORD PTR _this$[ebp]
  00037	8b 01		 mov	 eax, DWORD PTR [ecx]
  00039	8b 8a 54 01 00
	00		 mov	 ecx, DWORD PTR [edx+340]
  0003f	8b 10		 mov	 edx, DWORD PTR [eax]
  00041	ff d2		 call	 edx

; 272  : 		m_pIModeluInterface=NULL;

  00043	8b 45 fc	 mov	 eax, DWORD PTR _this$[ebp]
  00046	c7 80 54 01 00
	00 00 00 00 00	 mov	 DWORD PTR [eax+340], 0
$LN2@CloseInsta:

; 273  : 	}
; 274  : 
; 275  : 	//释放 DLL
; 276  : 	if (m_hDllInstance!=NULL)

  00050	8b 45 fc	 mov	 eax, DWORD PTR _this$[ebp]
  00053	83 b8 50 01 00
	00 00		 cmp	 DWORD PTR [eax+336], 0
  0005a	74 1c		 je	 SHORT $LN3@CloseInsta

; 277  : 	{
; 278  : 		AfxFreeLibrary(m_hDllInstance);

  0005c	8b 45 fc	 mov	 eax, DWORD PTR _this$[ebp]
  0005f	8b 88 50 01 00
	00		 mov	 ecx, DWORD PTR [eax+336]
  00065	51		 push	 ecx
  00066	e8 00 00 00 00	 call	 ?AfxFreeLibrary@@YGHPAUHINSTANCE__@@@Z ; AfxFreeLibrary

; 279  : 		m_hDllInstance=NULL;

  0006b	8b 45 fc	 mov	 eax, DWORD PTR _this$[ebp]
  0006e	c7 80 50 01 00
	00 00 00 00 00	 mov	 DWORD PTR [eax+336], 0
$LN3@CloseInsta:

; 280  : 	}
; 281  : 
; 282  : 	return true;

  00078	b0 01		 mov	 al, 1

; 283  : }

  0007a	5f		 pop	 edi
  0007b	5e		 pop	 esi
  0007c	5b		 pop	 ebx
  0007d	8b e5		 mov	 esp, ebp
  0007f	5d		 pop	 ebp
  00080	c3		 ret	 0
?CloseInstance@?$CTempldateHelper@UIMatchServiceManager@@@@QAE_NXZ ENDP ; CTempldateHelper<IMatchServiceManager>::CloseInstance
_TEXT	ENDS
; Function compile flags: /Odtp /ZI
; File g:\网狐\happygamewh\服务端\系统模块\全局定义\module.h
;	COMDAT ??1?$CTempldateHelper@UIMatchServiceManager@@@@UAE@XZ
_TEXT	SEGMENT
_this$ = -16						; size = 4
__$EHRec$ = -12						; size = 12
??1?$CTempldateHelper@UIMatchServiceManager@@@@UAE@XZ PROC ; CTempldateHelper<IMatchServiceManager>::~CTempldateHelper<IMatchServiceManager>, COMDAT
; _this$ = ecx

; 205  : {

  00000	55		 push	 ebp
  00001	8b ec		 mov	 ebp, esp
  00003	6a ff		 push	 -1
  00005	68 00 00 00 00	 push	 __ehhandler$??1?$CTempldateHelper@UIMatchServiceManager@@@@UAE@XZ
  0000a	64 a1 00 00 00
	00		 mov	 eax, DWORD PTR fs:0
  00010	50		 push	 eax
  00011	83 ec 44	 sub	 esp, 68			; 00000044H
  00014	53		 push	 ebx
  00015	56		 push	 esi
  00016	57		 push	 edi
  00017	a1 00 00 00 00	 mov	 eax, DWORD PTR ___security_cookie
  0001c	33 c5		 xor	 eax, ebp
  0001e	50		 push	 eax
  0001f	8d 45 f4	 lea	 eax, DWORD PTR __$EHRec$[ebp]
  00022	64 a3 00 00 00
	00		 mov	 DWORD PTR fs:0, eax
  00028	89 4d f0	 mov	 DWORD PTR _this$[ebp], ecx
  0002b	8b 45 f0	 mov	 eax, DWORD PTR _this$[ebp]
  0002e	c7 00 00 00 00
	00		 mov	 DWORD PTR [eax], OFFSET ??_7?$CTempldateHelper@UIMatchServiceManager@@@@6B@

; 206  : 	CloseInstance();

  00034	8b 4d f0	 mov	 ecx, DWORD PTR _this$[ebp]
  00037	e8 00 00 00 00	 call	 ?CloseInstance@?$CTempldateHelper@UIMatchServiceManager@@@@QAE_NXZ ; CTempldateHelper<IMatchServiceManager>::CloseInstance

; 207  : }

  0003c	8b 4d f4	 mov	 ecx, DWORD PTR __$EHRec$[ebp]
  0003f	64 89 0d 00 00
	00 00		 mov	 DWORD PTR fs:0, ecx
  00046	59		 pop	 ecx
  00047	5f		 pop	 edi
  00048	5e		 pop	 esi
  00049	5b		 pop	 ebx
  0004a	8b e5		 mov	 esp, ebp
  0004c	5d		 pop	 ebp
  0004d	c3		 ret	 0
_TEXT	ENDS
;	COMDAT text$x
text$x	SEGMENT
__ehhandler$??1?$CTempldateHelper@UIMatchServiceManager@@@@UAE@XZ:
  00000	8b 54 24 08	 mov	 edx, DWORD PTR [esp+8]
  00004	8d 42 0c	 lea	 eax, DWORD PTR [edx+12]
  00007	8b 4a ac	 mov	 ecx, DWORD PTR [edx-84]
  0000a	33 c8		 xor	 ecx, eax
  0000c	e8 00 00 00 00	 call	 @__security_check_cookie@4
  00011	b8 00 00 00 00	 mov	 eax, OFFSET __ehfuncinfo$??1?$CTempldateHelper@UIMatchServiceManager@@@@UAE@XZ
  00016	e9 00 00 00 00	 jmp	 ___CxxFrameHandler3
text$x	ENDS
??1?$CTempldateHelper@UIMatchServiceManager@@@@UAE@XZ ENDP ; CTempldateHelper<IMatchServiceManager>::~CTempldateHelper<IMatchServiceManager>
; Function compile flags: /Odtp /ZI
; File g:\网狐\happygamewh\服务端\系统模块\全局定义\module.h
;	COMDAT ??0?$CTempldateHelper@UIMatchServiceManager@@@@QAE@ABU_GUID@@KPBD1@Z
_TEXT	SEGMENT
_this$ = -4						; size = 4
_Guid$ = 8						; size = 4
_dwVersion$ = 12					; size = 4
_pszModuleDll$ = 16					; size = 4
_pszCreateProc$ = 20					; size = 4
??0?$CTempldateHelper@UIMatchServiceManager@@@@QAE@ABU_GUID@@KPBD1@Z PROC ; CTempldateHelper<IMatchServiceManager>::CTempldateHelper<IMatchServiceManager>, COMDAT
; _this$ = ecx

; 187  : {

  00000	55		 push	 ebp
  00001	8b ec		 mov	 ebp, esp
  00003	83 ec 44	 sub	 esp, 68			; 00000044H
  00006	53		 push	 ebx
  00007	56		 push	 esi
  00008	57		 push	 edi
  00009	89 4d fc	 mov	 DWORD PTR _this$[ebp], ecx
  0000c	8b 45 fc	 mov	 eax, DWORD PTR _this$[ebp]
  0000f	c7 00 00 00 00
	00		 mov	 DWORD PTR [eax], OFFSET ??_7?$CTempldateHelper@UIMatchServiceManager@@@@6B@

; 186  : CTempldateHelper<IModeluInterface>::CTempldateHelper(REFGUID Guid, DWORD dwVersion, LPCTSTR pszModuleDll, LPCSTR pszCreateProc) : m_dwVersion(dwVersion), m_Guid(Guid)

  00015	8b 45 fc	 mov	 eax, DWORD PTR _this$[ebp]
  00018	8b 4d 08	 mov	 ecx, DWORD PTR _Guid$[ebp]
  0001b	89 48 04	 mov	 DWORD PTR [eax+4], ecx
  0001e	8b 45 fc	 mov	 eax, DWORD PTR _this$[ebp]
  00021	8b 4d 0c	 mov	 ecx, DWORD PTR _dwVersion$[ebp]
  00024	89 48 08	 mov	 DWORD PTR [eax+8], ecx

; 188  : 	//辅助变量
; 189  : 	m_szDescribe[0]=0;

  00027	b8 01 00 00 00	 mov	 eax, 1
  0002c	6b c8 00	 imul	 ecx, eax, 0
  0002f	8b 55 fc	 mov	 edx, DWORD PTR _this$[ebp]
  00032	c6 84 0a 58 01
	00 00 00	 mov	 BYTE PTR [edx+ecx+344], 0

; 190  : 
; 191  : 	//内核信息
; 192  : 	m_hDllInstance=NULL;

  0003a	8b 45 fc	 mov	 eax, DWORD PTR _this$[ebp]
  0003d	c7 80 50 01 00
	00 00 00 00 00	 mov	 DWORD PTR [eax+336], 0

; 193  : 	m_pIModeluInterface=NULL;

  00047	8b 45 fc	 mov	 eax, DWORD PTR _this$[ebp]
  0004a	c7 80 54 01 00
	00 00 00 00 00	 mov	 DWORD PTR [eax+340], 0

; 194  : 
; 195  : 	//组件属性
; 196  : 	lstrcpynA(m_szCreateProc,pszCreateProc,CountArray(m_szCreateProc));

  00054	6a 40		 push	 64			; 00000040H
  00056	8b 45 14	 mov	 eax, DWORD PTR _pszCreateProc$[ebp]
  00059	50		 push	 eax
  0005a	8b 4d fc	 mov	 ecx, DWORD PTR _this$[ebp]
  0005d	83 c1 0c	 add	 ecx, 12			; 0000000cH
  00060	51		 push	 ecx
  00061	ff 15 00 00 00
	00		 call	 DWORD PTR __imp__lstrcpynA@12

; 197  : 	lstrcpyn(m_szModuleDllName,pszModuleDll,CountArray(m_szModuleDllName));

  00067	68 04 01 00 00	 push	 260			; 00000104H
  0006c	8b 45 10	 mov	 eax, DWORD PTR _pszModuleDll$[ebp]
  0006f	50		 push	 eax
  00070	8b 4d fc	 mov	 ecx, DWORD PTR _this$[ebp]
  00073	83 c1 4c	 add	 ecx, 76			; 0000004cH
  00076	51		 push	 ecx
  00077	ff 15 00 00 00
	00		 call	 DWORD PTR __imp__lstrcpynA@12

; 198  : 
; 199  : 	return;
; 200  : }

  0007d	8b 45 fc	 mov	 eax, DWORD PTR _this$[ebp]
  00080	5f		 pop	 edi
  00081	5e		 pop	 esi
  00082	5b		 pop	 ebx
  00083	8b e5		 mov	 esp, ebp
  00085	5d		 pop	 ebp
  00086	c2 10 00	 ret	 16			; 00000010H
??0?$CTempldateHelper@UIMatchServiceManager@@@@QAE@ABU_GUID@@KPBD1@Z ENDP ; CTempldateHelper<IMatchServiceManager>::CTempldateHelper<IMatchServiceManager>
_TEXT	ENDS
; Function compile flags: /Odtp /ZI
;	COMDAT ??_GCGameServiceManagerHelper@@UAEPAXI@Z
_TEXT	SEGMENT
_this$ = -4						; size = 4
___flags$ = 8						; size = 4
??_GCGameServiceManagerHelper@@UAEPAXI@Z PROC		; CGameServiceManagerHelper::`scalar deleting destructor', COMDAT
; _this$ = ecx
  00000	55		 push	 ebp
  00001	8b ec		 mov	 ebp, esp
  00003	83 ec 44	 sub	 esp, 68			; 00000044H
  00006	53		 push	 ebx
  00007	56		 push	 esi
  00008	57		 push	 edi
  00009	89 4d fc	 mov	 DWORD PTR _this$[ebp], ecx
  0000c	8b 4d fc	 mov	 ecx, DWORD PTR _this$[ebp]
  0000f	e8 00 00 00 00	 call	 ??1CGameServiceManagerHelper@@UAE@XZ
  00014	8b 45 08	 mov	 eax, DWORD PTR ___flags$[ebp]
  00017	83 e0 01	 and	 eax, 1
  0001a	74 11		 je	 SHORT $LN2@scalar
  0001c	68 d8 01 00 00	 push	 472			; 000001d8H
  00021	8b 45 fc	 mov	 eax, DWORD PTR _this$[ebp]
  00024	50		 push	 eax
  00025	e8 00 00 00 00	 call	 ??3@YAXPAXI@Z		; operator delete
  0002a	83 c4 08	 add	 esp, 8
$LN2@scalar:
  0002d	8b 45 fc	 mov	 eax, DWORD PTR _this$[ebp]
  00030	5f		 pop	 edi
  00031	5e		 pop	 esi
  00032	5b		 pop	 ebx
  00033	8b e5		 mov	 esp, ebp
  00035	5d		 pop	 ebp
  00036	c2 04 00	 ret	 4
??_GCGameServiceManagerHelper@@UAEPAXI@Z ENDP		; CGameServiceManagerHelper::`scalar deleting destructor'
_TEXT	ENDS
; Function compile flags: /Odtp /ZI
;	COMDAT ??1CGameServiceManagerHelper@@UAE@XZ
_TEXT	SEGMENT
_this$ = -4						; size = 4
??1CGameServiceManagerHelper@@UAE@XZ PROC		; CGameServiceManagerHelper::~CGameServiceManagerHelper, COMDAT
; _this$ = ecx
  00000	55		 push	 ebp
  00001	8b ec		 mov	 ebp, esp
  00003	83 ec 44	 sub	 esp, 68			; 00000044H
  00006	53		 push	 ebx
  00007	56		 push	 esi
  00008	57		 push	 edi
  00009	89 4d fc	 mov	 DWORD PTR _this$[ebp], ecx
  0000c	8b 4d fc	 mov	 ecx, DWORD PTR _this$[ebp]
  0000f	e8 00 00 00 00	 call	 ??1?$CTempldateHelper@UIGameServiceManager@@@@UAE@XZ ; CTempldateHelper<IGameServiceManager>::~CTempldateHelper<IGameServiceManager>
  00014	5f		 pop	 edi
  00015	5e		 pop	 esi
  00016	5b		 pop	 ebx
  00017	8b e5		 mov	 esp, ebp
  00019	5d		 pop	 ebp
  0001a	c3		 ret	 0
??1CGameServiceManagerHelper@@UAE@XZ ENDP		; CGameServiceManagerHelper::~CGameServiceManagerHelper
_TEXT	ENDS
; Function compile flags: /Odtp /ZI
; File g:\网狐\happygamewh\服务端\系统模块\服务器组件\游戏服务\gameservicehead.h
;	COMDAT ??0CGameServiceManagerHelper@@QAE@XZ
_TEXT	SEGMENT
_this$ = -4						; size = 4
??0CGameServiceManagerHelper@@QAE@XZ PROC		; CGameServiceManagerHelper::CGameServiceManagerHelper, COMDAT
; _this$ = ecx

; 1702 : DECLARE_MODULE_DYNAMIC(GameServiceManager)

  00000	55		 push	 ebp
  00001	8b ec		 mov	 ebp, esp
  00003	83 ec 44	 sub	 esp, 68			; 00000044H
  00006	53		 push	 ebx
  00007	56		 push	 esi
  00008	57		 push	 edi
  00009	89 4d fc	 mov	 DWORD PTR _this$[ebp], ecx
  0000c	68 00 01 01 06	 push	 100729088		; 06010100H
  00011	68 00 00 00 00	 push	 OFFSET ?IID_IGameServiceManager@@3U_GUID@@B
  00016	8b 4d fc	 mov	 ecx, DWORD PTR _this$[ebp]
  00019	e8 00 00 00 00	 call	 ??0?$CTempldateHelper@UIGameServiceManager@@@@QAE@ABU_GUID@@K@Z ; CTempldateHelper<IGameServiceManager>::CTempldateHelper<IGameServiceManager>
  0001e	8b 45 fc	 mov	 eax, DWORD PTR _this$[ebp]
  00021	c7 00 00 00 00
	00		 mov	 DWORD PTR [eax], OFFSET ??_7CGameServiceManagerHelper@@6B@
  00027	8b 45 fc	 mov	 eax, DWORD PTR _this$[ebp]
  0002a	5f		 pop	 edi
  0002b	5e		 pop	 esi
  0002c	5b		 pop	 ebx
  0002d	8b e5		 mov	 esp, ebp
  0002f	5d		 pop	 ebp
  00030	c3		 ret	 0
??0CGameServiceManagerHelper@@QAE@XZ ENDP		; CGameServiceManagerHelper::CGameServiceManagerHelper
_TEXT	ENDS
; Function compile flags: /Odtp /ZI
;	COMDAT ??_G?$CTempldateHelper@UIGameServiceManager@@@@UAEPAXI@Z
_TEXT	SEGMENT
_this$ = -4						; size = 4
___flags$ = 8						; size = 4
??_G?$CTempldateHelper@UIGameServiceManager@@@@UAEPAXI@Z PROC ; CTempldateHelper<IGameServiceManager>::`scalar deleting destructor', COMDAT
; _this$ = ecx
  00000	55		 push	 ebp
  00001	8b ec		 mov	 ebp, esp
  00003	83 ec 44	 sub	 esp, 68			; 00000044H
  00006	53		 push	 ebx
  00007	56		 push	 esi
  00008	57		 push	 edi
  00009	89 4d fc	 mov	 DWORD PTR _this$[ebp], ecx
  0000c	8b 4d fc	 mov	 ecx, DWORD PTR _this$[ebp]
  0000f	e8 00 00 00 00	 call	 ??1?$CTempldateHelper@UIGameServiceManager@@@@UAE@XZ ; CTempldateHelper<IGameServiceManager>::~CTempldateHelper<IGameServiceManager>
  00014	8b 45 08	 mov	 eax, DWORD PTR ___flags$[ebp]
  00017	83 e0 01	 and	 eax, 1
  0001a	74 11		 je	 SHORT $LN2@scalar
  0001c	68 d8 01 00 00	 push	 472			; 000001d8H
  00021	8b 45 fc	 mov	 eax, DWORD PTR _this$[ebp]
  00024	50		 push	 eax
  00025	e8 00 00 00 00	 call	 ??3@YAXPAXI@Z		; operator delete
  0002a	83 c4 08	 add	 esp, 8
$LN2@scalar:
  0002d	8b 45 fc	 mov	 eax, DWORD PTR _this$[ebp]
  00030	5f		 pop	 edi
  00031	5e		 pop	 esi
  00032	5b		 pop	 ebx
  00033	8b e5		 mov	 esp, ebp
  00035	5d		 pop	 ebp
  00036	c2 04 00	 ret	 4
??_G?$CTempldateHelper@UIGameServiceManager@@@@UAEPAXI@Z ENDP ; CTempldateHelper<IGameServiceManager>::`scalar deleting destructor'
_TEXT	ENDS
; Function compile flags: /Odtp /ZI
; File g:\网狐\happygamewh\服务端\系统模块\全局定义\module.h
;	COMDAT ?GetInterface@?$CTempldateHelper@UIGameServiceManager@@@@QBEPAUIGameServiceManager@@XZ
_TEXT	SEGMENT
_this$ = -4						; size = 4
?GetInterface@?$CTempldateHelper@UIGameServiceManager@@@@QBEPAUIGameServiceManager@@XZ PROC ; CTempldateHelper<IGameServiceManager>::GetInterface, COMDAT
; _this$ = ecx

; 316  : { 

  00000	55		 push	 ebp
  00001	8b ec		 mov	 ebp, esp
  00003	83 ec 44	 sub	 esp, 68			; 00000044H
  00006	53		 push	 ebx
  00007	56		 push	 esi
  00008	57		 push	 edi
  00009	89 4d fc	 mov	 DWORD PTR _this$[ebp], ecx

; 317  : 	return m_pIModeluInterface; 

  0000c	8b 45 fc	 mov	 eax, DWORD PTR _this$[ebp]
  0000f	8b 80 54 01 00
	00		 mov	 eax, DWORD PTR [eax+340]

; 318  : }

  00015	5f		 pop	 edi
  00016	5e		 pop	 esi
  00017	5b		 pop	 ebx
  00018	8b e5		 mov	 esp, ebp
  0001a	5d		 pop	 ebp
  0001b	c3		 ret	 0
?GetInterface@?$CTempldateHelper@UIGameServiceManager@@@@QBEPAUIGameServiceManager@@XZ ENDP ; CTempldateHelper<IGameServiceManager>::GetInterface
_TEXT	ENDS
; Function compile flags: /Odtp /ZI
; File g:\网狐\happygamewh\服务端\系统模块\全局定义\module.h
;	COMDAT ??C?$CTempldateHelper@UIGameServiceManager@@@@QBEPAUIGameServiceManager@@XZ
_TEXT	SEGMENT
_this$ = -4						; size = 4
??C?$CTempldateHelper@UIGameServiceManager@@@@QBEPAUIGameServiceManager@@XZ PROC ; CTempldateHelper<IGameServiceManager>::operator->, COMDAT
; _this$ = ecx

; 309  : { 

  00000	55		 push	 ebp
  00001	8b ec		 mov	 ebp, esp
  00003	83 ec 44	 sub	 esp, 68			; 00000044H
  00006	53		 push	 ebx
  00007	56		 push	 esi
  00008	57		 push	 edi
  00009	89 4d fc	 mov	 DWORD PTR _this$[ebp], ecx

; 310  : 	return GetInterface(); 

  0000c	8b 4d fc	 mov	 ecx, DWORD PTR _this$[ebp]
  0000f	e8 00 00 00 00	 call	 ?GetInterface@?$CTempldateHelper@UIGameServiceManager@@@@QBEPAUIGameServiceManager@@XZ ; CTempldateHelper<IGameServiceManager>::GetInterface

; 311  : }

  00014	5f		 pop	 edi
  00015	5e		 pop	 esi
  00016	5b		 pop	 ebx
  00017	8b e5		 mov	 esp, ebp
  00019	5d		 pop	 ebp
  0001a	c3		 ret	 0
??C?$CTempldateHelper@UIGameServiceManager@@@@QBEPAUIGameServiceManager@@XZ ENDP ; CTempldateHelper<IGameServiceManager>::operator->
_TEXT	ENDS
; Function compile flags: /Odtp /ZI
; File g:\网狐\happygamewh\服务端\系统模块\全局定义\module.h
;	COMDAT ?GetErrorDescribe@?$CTempldateHelper@UIGameServiceManager@@@@QBEPBDXZ
_TEXT	SEGMENT
_this$ = -4						; size = 4
?GetErrorDescribe@?$CTempldateHelper@UIGameServiceManager@@@@QBEPBDXZ PROC ; CTempldateHelper<IGameServiceManager>::GetErrorDescribe, COMDAT
; _this$ = ecx

; 302  : { 

  00000	55		 push	 ebp
  00001	8b ec		 mov	 ebp, esp
  00003	83 ec 44	 sub	 esp, 68			; 00000044H
  00006	53		 push	 ebx
  00007	56		 push	 esi
  00008	57		 push	 edi
  00009	89 4d fc	 mov	 DWORD PTR _this$[ebp], ecx

; 303  : 	return m_szDescribe; 

  0000c	8b 45 fc	 mov	 eax, DWORD PTR _this$[ebp]
  0000f	05 58 01 00 00	 add	 eax, 344		; 00000158H

; 304  : }

  00014	5f		 pop	 edi
  00015	5e		 pop	 esi
  00016	5b		 pop	 ebx
  00017	8b e5		 mov	 esp, ebp
  00019	5d		 pop	 ebp
  0001a	c3		 ret	 0
?GetErrorDescribe@?$CTempldateHelper@UIGameServiceManager@@@@QBEPBDXZ ENDP ; CTempldateHelper<IGameServiceManager>::GetErrorDescribe
_TEXT	ENDS
; Function compile flags: /Odtp /ZI
; File g:\网狐\happygamewh\服务端\系统模块\全局定义\module.h
;	COMDAT ?SetModuleCreateInfo@?$CTempldateHelper@UIGameServiceManager@@@@QAEXPBD0@Z
_TEXT	SEGMENT
_this$ = -4						; size = 4
_pszModuleDllName$ = 8					; size = 4
_pszCreateProc$ = 12					; size = 4
?SetModuleCreateInfo@?$CTempldateHelper@UIGameServiceManager@@@@QAEXPBD0@Z PROC ; CTempldateHelper<IGameServiceManager>::SetModuleCreateInfo, COMDAT
; _this$ = ecx

; 288  : {

  00000	55		 push	 ebp
  00001	8b ec		 mov	 ebp, esp
  00003	83 ec 44	 sub	 esp, 68			; 00000044H
  00006	53		 push	 ebx
  00007	56		 push	 esi
  00008	57		 push	 edi
  00009	89 4d fc	 mov	 DWORD PTR _this$[ebp], ecx

; 289  : 	//设置信息
; 290  : 	lstrcpynA(m_szCreateProc,pszCreateProc,CountArray(m_szCreateProc));

  0000c	6a 40		 push	 64			; 00000040H
  0000e	8b 45 0c	 mov	 eax, DWORD PTR _pszCreateProc$[ebp]
  00011	50		 push	 eax
  00012	8b 4d fc	 mov	 ecx, DWORD PTR _this$[ebp]
  00015	83 c1 0c	 add	 ecx, 12			; 0000000cH
  00018	51		 push	 ecx
  00019	ff 15 00 00 00
	00		 call	 DWORD PTR __imp__lstrcpynA@12

; 291  : 	lstrcpyn(m_szModuleDllName,pszModuleDllName,CountArray(m_szModuleDllName));

  0001f	68 04 01 00 00	 push	 260			; 00000104H
  00024	8b 45 08	 mov	 eax, DWORD PTR _pszModuleDllName$[ebp]
  00027	50		 push	 eax
  00028	8b 4d fc	 mov	 ecx, DWORD PTR _this$[ebp]
  0002b	83 c1 4c	 add	 ecx, 76			; 0000004cH
  0002e	51		 push	 ecx
  0002f	ff 15 00 00 00
	00		 call	 DWORD PTR __imp__lstrcpynA@12

; 292  : 
; 293  : 	return;
; 294  : }

  00035	5f		 pop	 edi
  00036	5e		 pop	 esi
  00037	5b		 pop	 ebx
  00038	8b e5		 mov	 esp, ebp
  0003a	5d		 pop	 ebp
  0003b	c2 08 00	 ret	 8
?SetModuleCreateInfo@?$CTempldateHelper@UIGameServiceManager@@@@QAEXPBD0@Z ENDP ; CTempldateHelper<IGameServiceManager>::SetModuleCreateInfo
_TEXT	ENDS
; Function compile flags: /Odtp /ZI
; File g:\网狐\happygamewh\服务端\系统模块\全局定义\module.h
;	COMDAT ?CreateInstance@?$CTempldateHelper@UIGameServiceManager@@@@QAE_NXZ
_TEXT	SEGMENT
tv173 = -100						; size = 4
tv172 = -100						; size = 4
tv171 = -100						; size = 4
tv170 = -100						; size = 4
$T2 = -94						; size = 1
$T3 = -93						; size = 1
_pszError$4 = -28					; size = 4
_CreateProc$5 = -24					; size = 4
_this$ = -20						; size = 4
__$EHRec$ = -16						; size = 16
?CreateInstance@?$CTempldateHelper@UIGameServiceManager@@@@QAE_NXZ PROC ; CTempldateHelper<IGameServiceManager>::CreateInstance, COMDAT
; _this$ = ecx

; 212  : {

  00000	55		 push	 ebp
  00001	8b ec		 mov	 ebp, esp
  00003	6a ff		 push	 -1
  00005	68 00 00 00 00	 push	 __ehhandler$?CreateInstance@?$CTempldateHelper@UIGameServiceManager@@@@QAE_NXZ
  0000a	64 a1 00 00 00
	00		 mov	 eax, DWORD PTR fs:0
  00010	50		 push	 eax
  00011	51		 push	 ecx
  00012	83 ec 54	 sub	 esp, 84			; 00000054H
  00015	53		 push	 ebx
  00016	56		 push	 esi
  00017	57		 push	 edi
  00018	a1 00 00 00 00	 mov	 eax, DWORD PTR ___security_cookie
  0001d	33 c5		 xor	 eax, ebp
  0001f	50		 push	 eax
  00020	8d 45 f4	 lea	 eax, DWORD PTR __$EHRec$[ebp+4]
  00023	64 a3 00 00 00
	00		 mov	 DWORD PTR fs:0, eax
  00029	89 65 f0	 mov	 DWORD PTR __$EHRec$[ebp], esp
  0002c	89 4d ec	 mov	 DWORD PTR _this$[ebp], ecx

; 213  : 	//释放组件
; 214  : 	CloseInstance();

  0002f	8b 4d ec	 mov	 ecx, DWORD PTR _this$[ebp]
  00032	e8 00 00 00 00	 call	 ?CloseInstance@?$CTempldateHelper@UIGameServiceManager@@@@QAE_NXZ ; CTempldateHelper<IGameServiceManager>::CloseInstance

; 215  : 
; 216  : 	//创建组件
; 217  : 	try

  00037	c7 45 fc 00 00
	00 00		 mov	 DWORD PTR __$EHRec$[ebp+12], 0

; 218  : 	{
; 219  : 		//效验参数
; 220  : 		ASSERT(m_szCreateProc[0]!=0);

  0003e	b8 01 00 00 00	 mov	 eax, 1
  00043	6b c8 00	 imul	 ecx, eax, 0
  00046	8b 55 ec	 mov	 edx, DWORD PTR _this$[ebp]
  00049	0f be 44 0a 0c	 movsx	 eax, BYTE PTR [edx+ecx+12]
  0004e	85 c0		 test	 eax, eax
  00050	75 19		 jne	 SHORT $LN7@CreateInst
  00052	68 dc 00 00 00	 push	 220			; 000000dcH
  00057	68 00 00 00 00	 push	 OFFSET ??_C@_0DG@CDIFDKED@g?3?2?M?x?$LK?$PM?2happygamewh?2?$LH?$PO?N?q?$LG?K?2?O?$LF?M?$LD@
  0005c	e8 00 00 00 00	 call	 ?AfxAssertFailedLine@@YGHPBDH@Z ; AfxAssertFailedLine
  00061	89 45 9c	 mov	 DWORD PTR tv170[ebp], eax
  00064	83 7d 9c 00	 cmp	 DWORD PTR tv170[ebp], 0
  00068	74 01		 je	 SHORT $LN7@CreateInst
  0006a	cc		 int	 3
$LN7@CreateInst:

; 221  : 		ASSERT(m_szModuleDllName[0]!=0);

  0006b	b8 01 00 00 00	 mov	 eax, 1
  00070	6b c8 00	 imul	 ecx, eax, 0
  00073	8b 55 ec	 mov	 edx, DWORD PTR _this$[ebp]
  00076	0f be 44 0a 4c	 movsx	 eax, BYTE PTR [edx+ecx+76]
  0007b	85 c0		 test	 eax, eax
  0007d	75 19		 jne	 SHORT $LN8@CreateInst
  0007f	68 dd 00 00 00	 push	 221			; 000000ddH
  00084	68 00 00 00 00	 push	 OFFSET ??_C@_0DG@CDIFDKED@g?3?2?M?x?$LK?$PM?2happygamewh?2?$LH?$PO?N?q?$LG?K?2?O?$LF?M?$LD@
  00089	e8 00 00 00 00	 call	 ?AfxAssertFailedLine@@YGHPBDH@Z ; AfxAssertFailedLine
  0008e	89 45 9c	 mov	 DWORD PTR tv171[ebp], eax
  00091	83 7d 9c 00	 cmp	 DWORD PTR tv171[ebp], 0
  00095	74 01		 je	 SHORT $LN8@CreateInst
  00097	cc		 int	 3
$LN8@CreateInst:

; 222  : 
; 223  : 		//加载模块
; 224  : 		m_hDllInstance=AfxLoadLibrary(m_szModuleDllName);

  00098	8b 45 ec	 mov	 eax, DWORD PTR _this$[ebp]
  0009b	83 c0 4c	 add	 eax, 76			; 0000004cH
  0009e	50		 push	 eax
  0009f	e8 00 00 00 00	 call	 ?AfxLoadLibrary@@YGPAUHINSTANCE__@@PBD@Z ; AfxLoadLibrary
  000a4	89 45 9c	 mov	 DWORD PTR tv172[ebp], eax
  000a7	8b 4d ec	 mov	 ecx, DWORD PTR _this$[ebp]
  000aa	8b 55 9c	 mov	 edx, DWORD PTR tv172[ebp]
  000ad	89 91 50 01 00
	00		 mov	 DWORD PTR [ecx+336], edx

; 225  : 		if (m_hDllInstance==NULL) 

  000b3	8b 45 ec	 mov	 eax, DWORD PTR _this$[ebp]
  000b6	83 b8 50 01 00
	00 00		 cmp	 DWORD PTR [eax+336], 0
  000bd	75 2a		 jne	 SHORT $LN3@CreateInst

; 226  : 		{
; 227  : 			_sntprintf_s(m_szDescribe,CountArray(m_szDescribe),TEXT("“%s”模块加载失败"),m_szModuleDllName);

  000bf	8b 45 ec	 mov	 eax, DWORD PTR _this$[ebp]
  000c2	83 c0 4c	 add	 eax, 76			; 0000004cH
  000c5	50		 push	 eax
  000c6	68 00 00 00 00	 push	 OFFSET ??_C@_0BD@LMOFNGMO@?$KB?$LA?$CFs?$KB?$LB?D?$KD?$LP?i?$LM?S?T?X?J?$KH?$LA?$NM@
  000cb	68 80 00 00 00	 push	 128			; 00000080H
  000d0	8b 4d ec	 mov	 ecx, DWORD PTR _this$[ebp]
  000d3	81 c1 58 01 00
	00		 add	 ecx, 344		; 00000158H
  000d9	51		 push	 ecx
  000da	e8 00 00 00 00	 call	 ??$_snprintf_s@$0IA@@@YAHAAY0IA@DIPBDZZ ; _snprintf_s<128>
  000df	83 c4 10	 add	 esp, 16			; 00000010H

; 228  : 			return false;

  000e2	32 c0		 xor	 al, al
  000e4	e9 34 01 00 00	 jmp	 $LN1@CreateInst
$LN3@CreateInst:

; 229  : 		}
; 230  : 
; 231  : 		//寻找函数
; 232  : 		ModuleCreateProc * CreateProc=(ModuleCreateProc *)GetProcAddress(m_hDllInstance,m_szCreateProc);

  000e9	8b 45 ec	 mov	 eax, DWORD PTR _this$[ebp]
  000ec	83 c0 0c	 add	 eax, 12			; 0000000cH
  000ef	50		 push	 eax
  000f0	8b 4d ec	 mov	 ecx, DWORD PTR _this$[ebp]
  000f3	8b 91 50 01 00
	00		 mov	 edx, DWORD PTR [ecx+336]
  000f9	52		 push	 edx
  000fa	ff 15 00 00 00
	00		 call	 DWORD PTR __imp__GetProcAddress@8
  00100	89 45 e8	 mov	 DWORD PTR _CreateProc$5[ebp], eax

; 233  : 		if (CreateProc==NULL) 

  00103	83 7d e8 00	 cmp	 DWORD PTR _CreateProc$5[ebp], 0
  00107	75 31		 jne	 SHORT $LN4@CreateInst

; 234  : 		{		
; 235  : 			_sntprintf_s(m_szDescribe, CountArray(m_szDescribe), TEXT("找不到组件创建函数“%s”:%d"), m_szCreateProc, GetLastError());

  00109	ff 15 00 00 00
	00		 call	 DWORD PTR __imp__GetLastError@0
  0010f	50		 push	 eax
  00110	8b 45 ec	 mov	 eax, DWORD PTR _this$[ebp]
  00113	83 c0 0c	 add	 eax, 12			; 0000000cH
  00116	50		 push	 eax
  00117	68 00 00 00 00	 push	 OFFSET ??_C@_0BM@PEGNCJOH@?U?R?$LC?$LL?$LF?$LN?W?i?$LM?$PO?$LE?$LE?$LN?$KI?$LK?$KP?J?$PN?$KB?$LA?$CFs?$KB?$LB?3?$CFd@
  0011c	68 80 00 00 00	 push	 128			; 00000080H
  00121	8b 4d ec	 mov	 ecx, DWORD PTR _this$[ebp]
  00124	81 c1 58 01 00
	00		 add	 ecx, 344		; 00000158H
  0012a	51		 push	 ecx
  0012b	e8 00 00 00 00	 call	 ??$_snprintf_s@$0IA@@@YAHAAY0IA@DIPBDZZ ; _snprintf_s<128>
  00130	83 c4 14	 add	 esp, 20			; 00000014H

; 236  : 			return false;

  00133	32 c0		 xor	 al, al
  00135	e9 e3 00 00 00	 jmp	 $LN1@CreateInst
$LN4@CreateInst:

; 237  : 		}
; 238  : 
; 239  : 		//创建组件
; 240  : 		m_pIModeluInterface=(IModeluInterface *)CreateProc(m_Guid,m_dwVersion);

  0013a	8b 45 ec	 mov	 eax, DWORD PTR _this$[ebp]
  0013d	8b 48 08	 mov	 ecx, DWORD PTR [eax+8]
  00140	51		 push	 ecx
  00141	8b 55 ec	 mov	 edx, DWORD PTR _this$[ebp]
  00144	8b 42 04	 mov	 eax, DWORD PTR [edx+4]
  00147	50		 push	 eax
  00148	ff 55 e8	 call	 DWORD PTR _CreateProc$5[ebp]
  0014b	83 c4 08	 add	 esp, 8
  0014e	89 45 9c	 mov	 DWORD PTR tv173[ebp], eax
  00151	8b 4d ec	 mov	 ecx, DWORD PTR _this$[ebp]
  00154	8b 55 9c	 mov	 edx, DWORD PTR tv173[ebp]
  00157	89 91 54 01 00
	00		 mov	 DWORD PTR [ecx+340], edx

; 241  : 		if (m_pIModeluInterface==NULL) 

  0015d	8b 45 ec	 mov	 eax, DWORD PTR _this$[ebp]
  00160	83 b8 54 01 00
	00 00		 cmp	 DWORD PTR [eax+340], 0
  00167	75 2a		 jne	 SHORT $LN5@CreateInst

; 242  : 		{
; 243  : 			_sntprintf_s(m_szDescribe,CountArray(m_szDescribe),TEXT("调用函数“%s”生成对象失败"),m_szCreateProc);

  00169	8b 45 ec	 mov	 eax, DWORD PTR _this$[ebp]
  0016c	83 c0 0c	 add	 eax, 12			; 0000000cH
  0016f	50		 push	 eax
  00170	68 00 00 00 00	 push	 OFFSET ??_C@_0BL@PDAODLKM@?$LF?w?S?C?$LK?$KP?J?$PN?$KB?$LA?$CFs?$KB?$LB?I?z?$LD?I?$LG?T?O?s?J?$KH?$LA?$NM@
  00175	68 80 00 00 00	 push	 128			; 00000080H
  0017a	8b 4d ec	 mov	 ecx, DWORD PTR _this$[ebp]
  0017d	81 c1 58 01 00
	00		 add	 ecx, 344		; 00000158H
  00183	51		 push	 ecx
  00184	e8 00 00 00 00	 call	 ??$_snprintf_s@$0IA@@@YAHAAY0IA@DIPBDZZ ; _snprintf_s<128>
  00189	83 c4 10	 add	 esp, 16			; 00000010H

; 244  : 			return false;

  0018c	32 c0		 xor	 al, al
  0018e	e9 8a 00 00 00	 jmp	 $LN1@CreateInst
$LN5@CreateInst:

; 245  : 		}
; 246  : 	}

  00193	eb 63		 jmp	 SHORT $LN9@CreateInst
__catch$?CreateInstance@?$CTempldateHelper@UIGameServiceManager@@@@QAE_NXZ$0:

; 247  : 	catch (LPCTSTR pszError)
; 248  : 	{
; 249  : 		_sntprintf_s(m_szDescribe,CountArray(m_szDescribe),TEXT("由于“%s”，组件创建失败"),pszError);

  00195	8b 45 e4	 mov	 eax, DWORD PTR _pszError$4[ebp]
  00198	50		 push	 eax
  00199	68 00 00 00 00	 push	 OFFSET ??_C@_0BJ@JGPFHIJF@?S?I?S?Z?$KB?$LA?$CFs?$KB?$LB?$KD?$KM?W?i?$LM?$PO?$LE?$LE?$LN?$KI?J?$KH?$LA?$NM@
  0019e	68 80 00 00 00	 push	 128			; 00000080H
  001a3	8b 4d ec	 mov	 ecx, DWORD PTR _this$[ebp]
  001a6	81 c1 58 01 00
	00		 add	 ecx, 344		; 00000158H
  001ac	51		 push	 ecx
  001ad	e8 00 00 00 00	 call	 ??$_snprintf_s@$0IA@@@YAHAAY0IA@DIPBDZZ ; _snprintf_s<128>
  001b2	83 c4 10	 add	 esp, 16			; 00000010H

; 250  : 		return false;

  001b5	c6 45 a3 00	 mov	 BYTE PTR $T3[ebp], 0
  001b9	b8 00 00 00 00	 mov	 eax, $LN13@CreateInst
  001be	c3		 ret	 0

; 251  : 	}

  001bf	b8 00 00 00 00	 mov	 eax, $LN9@CreateInst
  001c4	c3		 ret	 0
__catch$?CreateInstance@?$CTempldateHelper@UIGameServiceManager@@@@QAE_NXZ$1:

; 252  : 	catch (...)	
; 253  : 	{ 
; 254  : 		_sntprintf_s(m_szDescribe,CountArray(m_szDescribe),TEXT("组件创建函数“%s”产生未知异常错误，组件创建失败"),m_szCreateProc);

  001c5	8b 45 ec	 mov	 eax, DWORD PTR _this$[ebp]
  001c8	83 c0 0c	 add	 eax, 12			; 0000000cH
  001cb	50		 push	 eax
  001cc	68 00 00 00 00	 push	 OFFSET ??_C@_0DB@JBNKENAJ@?W?i?$LM?$PO?$LE?$LE?$LN?$KI?$LK?$KP?J?$PN?$KB?$LA?$CFs?$KB?$LB?$LC?z?I?z?N?$LE?V?$KK?R?l?$LD?$KD?$LE@
  001d1	68 80 00 00 00	 push	 128			; 00000080H
  001d6	8b 4d ec	 mov	 ecx, DWORD PTR _this$[ebp]
  001d9	81 c1 58 01 00
	00		 add	 ecx, 344		; 00000158H
  001df	51		 push	 ecx
  001e0	e8 00 00 00 00	 call	 ??$_snprintf_s@$0IA@@@YAHAAY0IA@DIPBDZZ ; _snprintf_s<128>
  001e5	83 c4 10	 add	 esp, 16			; 00000010H

; 255  : 		return false;

  001e8	c6 45 a2 00	 mov	 BYTE PTR $T2[ebp], 0
  001ec	b8 00 00 00 00	 mov	 eax, $LN15@CreateInst
  001f1	c3		 ret	 0

; 256  : 	}

  001f2	b8 00 00 00 00	 mov	 eax, $LN9@CreateInst
  001f7	c3		 ret	 0
$LN9@CreateInst:
  001f8	c7 45 fc ff ff
	ff ff		 mov	 DWORD PTR __$EHRec$[ebp+12], -1
  001ff	eb 0c		 jmp	 SHORT $LN14@CreateInst
$LN15@CreateInst:
  00201	c7 45 fc ff ff
	ff ff		 mov	 DWORD PTR __$EHRec$[ebp+12], -1

; 255  : 		return false;

  00208	8a 45 a2	 mov	 al, BYTE PTR $T2[ebp]
  0020b	eb 10		 jmp	 SHORT $LN1@CreateInst
$LN14@CreateInst:
  0020d	eb 0c		 jmp	 SHORT $LN12@CreateInst
$LN13@CreateInst:
  0020f	c7 45 fc ff ff
	ff ff		 mov	 DWORD PTR __$EHRec$[ebp+12], -1

; 250  : 		return false;

  00216	8a 45 a3	 mov	 al, BYTE PTR $T3[ebp]
  00219	eb 02		 jmp	 SHORT $LN1@CreateInst
$LN12@CreateInst:

; 257  : 
; 258  : 	return true;

  0021b	b0 01		 mov	 al, 1
$LN1@CreateInst:

; 259  : }

  0021d	8b 4d f4	 mov	 ecx, DWORD PTR __$EHRec$[ebp+4]
  00220	64 89 0d 00 00
	00 00		 mov	 DWORD PTR fs:0, ecx
  00227	59		 pop	 ecx
  00228	5f		 pop	 edi
  00229	5e		 pop	 esi
  0022a	5b		 pop	 ebx
  0022b	8b e5		 mov	 esp, ebp
  0022d	5d		 pop	 ebp
  0022e	c3		 ret	 0
_TEXT	ENDS
;	COMDAT text$x
text$x	SEGMENT
__ehhandler$?CreateInstance@?$CTempldateHelper@UIGameServiceManager@@@@QAE_NXZ:
  00000	8b 54 24 08	 mov	 edx, DWORD PTR [esp+8]
  00004	8d 42 0c	 lea	 eax, DWORD PTR [edx+12]
  00007	8b 4a 98	 mov	 ecx, DWORD PTR [edx-104]
  0000a	33 c8		 xor	 ecx, eax
  0000c	e8 00 00 00 00	 call	 @__security_check_cookie@4
  00011	b8 00 00 00 00	 mov	 eax, OFFSET __ehfuncinfo$?CreateInstance@?$CTempldateHelper@UIGameServiceManager@@@@QAE_NXZ
  00016	e9 00 00 00 00	 jmp	 ___CxxFrameHandler3
text$x	ENDS
?CreateInstance@?$CTempldateHelper@UIGameServiceManager@@@@QAE_NXZ ENDP ; CTempldateHelper<IGameServiceManager>::CreateInstance
; Function compile flags: /Odtp /ZI
; File g:\网狐\happygamewh\服务端\系统模块\全局定义\module.h
;	COMDAT ?CloseInstance@?$CTempldateHelper@UIGameServiceManager@@@@QAE_NXZ
_TEXT	SEGMENT
_this$ = -4						; size = 4
?CloseInstance@?$CTempldateHelper@UIGameServiceManager@@@@QAE_NXZ PROC ; CTempldateHelper<IGameServiceManager>::CloseInstance, COMDAT
; _this$ = ecx

; 264  : {

  00000	55		 push	 ebp
  00001	8b ec		 mov	 ebp, esp
  00003	83 ec 44	 sub	 esp, 68			; 00000044H
  00006	53		 push	 ebx
  00007	56		 push	 esi
  00008	57		 push	 edi
  00009	89 4d fc	 mov	 DWORD PTR _this$[ebp], ecx

; 265  : 	//设置变量
; 266  : 	m_szDescribe[0]=0;

  0000c	b8 01 00 00 00	 mov	 eax, 1
  00011	6b c8 00	 imul	 ecx, eax, 0
  00014	8b 55 fc	 mov	 edx, DWORD PTR _this$[ebp]
  00017	c6 84 0a 58 01
	00 00 00	 mov	 BYTE PTR [edx+ecx+344], 0

; 267  : 
; 268  : 	//销毁对象
; 269  : 	if (m_pIModeluInterface!=NULL)

  0001f	8b 45 fc	 mov	 eax, DWORD PTR _this$[ebp]
  00022	83 b8 54 01 00
	00 00		 cmp	 DWORD PTR [eax+340], 0
  00029	74 25		 je	 SHORT $LN2@CloseInsta

; 270  : 	{
; 271  : 		m_pIModeluInterface->Release();

  0002b	8b 45 fc	 mov	 eax, DWORD PTR _this$[ebp]
  0002e	8b 88 54 01 00
	00		 mov	 ecx, DWORD PTR [eax+340]
  00034	8b 55 fc	 mov	 edx, DWORD PTR _this$[ebp]
  00037	8b 01		 mov	 eax, DWORD PTR [ecx]
  00039	8b 8a 54 01 00
	00		 mov	 ecx, DWORD PTR [edx+340]
  0003f	8b 10		 mov	 edx, DWORD PTR [eax]
  00041	ff d2		 call	 edx

; 272  : 		m_pIModeluInterface=NULL;

  00043	8b 45 fc	 mov	 eax, DWORD PTR _this$[ebp]
  00046	c7 80 54 01 00
	00 00 00 00 00	 mov	 DWORD PTR [eax+340], 0
$LN2@CloseInsta:

; 273  : 	}
; 274  : 
; 275  : 	//释放 DLL
; 276  : 	if (m_hDllInstance!=NULL)

  00050	8b 45 fc	 mov	 eax, DWORD PTR _this$[ebp]
  00053	83 b8 50 01 00
	00 00		 cmp	 DWORD PTR [eax+336], 0
  0005a	74 1c		 je	 SHORT $LN3@CloseInsta

; 277  : 	{
; 278  : 		AfxFreeLibrary(m_hDllInstance);

  0005c	8b 45 fc	 mov	 eax, DWORD PTR _this$[ebp]
  0005f	8b 88 50 01 00
	00		 mov	 ecx, DWORD PTR [eax+336]
  00065	51		 push	 ecx
  00066	e8 00 00 00 00	 call	 ?AfxFreeLibrary@@YGHPAUHINSTANCE__@@@Z ; AfxFreeLibrary

; 279  : 		m_hDllInstance=NULL;

  0006b	8b 45 fc	 mov	 eax, DWORD PTR _this$[ebp]
  0006e	c7 80 50 01 00
	00 00 00 00 00	 mov	 DWORD PTR [eax+336], 0
$LN3@CloseInsta:

; 280  : 	}
; 281  : 
; 282  : 	return true;

  00078	b0 01		 mov	 al, 1

; 283  : }

  0007a	5f		 pop	 edi
  0007b	5e		 pop	 esi
  0007c	5b		 pop	 ebx
  0007d	8b e5		 mov	 esp, ebp
  0007f	5d		 pop	 ebp
  00080	c3		 ret	 0
?CloseInstance@?$CTempldateHelper@UIGameServiceManager@@@@QAE_NXZ ENDP ; CTempldateHelper<IGameServiceManager>::CloseInstance
_TEXT	ENDS
; Function compile flags: /Odtp /ZI
; File g:\网狐\happygamewh\服务端\系统模块\全局定义\module.h
;	COMDAT ??1?$CTempldateHelper@UIGameServiceManager@@@@UAE@XZ
_TEXT	SEGMENT
_this$ = -16						; size = 4
__$EHRec$ = -12						; size = 12
??1?$CTempldateHelper@UIGameServiceManager@@@@UAE@XZ PROC ; CTempldateHelper<IGameServiceManager>::~CTempldateHelper<IGameServiceManager>, COMDAT
; _this$ = ecx

; 205  : {

  00000	55		 push	 ebp
  00001	8b ec		 mov	 ebp, esp
  00003	6a ff		 push	 -1
  00005	68 00 00 00 00	 push	 __ehhandler$??1?$CTempldateHelper@UIGameServiceManager@@@@UAE@XZ
  0000a	64 a1 00 00 00
	00		 mov	 eax, DWORD PTR fs:0
  00010	50		 push	 eax
  00011	83 ec 44	 sub	 esp, 68			; 00000044H
  00014	53		 push	 ebx
  00015	56		 push	 esi
  00016	57		 push	 edi
  00017	a1 00 00 00 00	 mov	 eax, DWORD PTR ___security_cookie
  0001c	33 c5		 xor	 eax, ebp
  0001e	50		 push	 eax
  0001f	8d 45 f4	 lea	 eax, DWORD PTR __$EHRec$[ebp]
  00022	64 a3 00 00 00
	00		 mov	 DWORD PTR fs:0, eax
  00028	89 4d f0	 mov	 DWORD PTR _this$[ebp], ecx
  0002b	8b 45 f0	 mov	 eax, DWORD PTR _this$[ebp]
  0002e	c7 00 00 00 00
	00		 mov	 DWORD PTR [eax], OFFSET ??_7?$CTempldateHelper@UIGameServiceManager@@@@6B@

; 206  : 	CloseInstance();

  00034	8b 4d f0	 mov	 ecx, DWORD PTR _this$[ebp]
  00037	e8 00 00 00 00	 call	 ?CloseInstance@?$CTempldateHelper@UIGameServiceManager@@@@QAE_NXZ ; CTempldateHelper<IGameServiceManager>::CloseInstance

; 207  : }

  0003c	8b 4d f4	 mov	 ecx, DWORD PTR __$EHRec$[ebp]
  0003f	64 89 0d 00 00
	00 00		 mov	 DWORD PTR fs:0, ecx
  00046	59		 pop	 ecx
  00047	5f		 pop	 edi
  00048	5e		 pop	 esi
  00049	5b		 pop	 ebx
  0004a	8b e5		 mov	 esp, ebp
  0004c	5d		 pop	 ebp
  0004d	c3		 ret	 0
_TEXT	ENDS
;	COMDAT text$x
text$x	SEGMENT
__ehhandler$??1?$CTempldateHelper@UIGameServiceManager@@@@UAE@XZ:
  00000	8b 54 24 08	 mov	 edx, DWORD PTR [esp+8]
  00004	8d 42 0c	 lea	 eax, DWORD PTR [edx+12]
  00007	8b 4a ac	 mov	 ecx, DWORD PTR [edx-84]
  0000a	33 c8		 xor	 ecx, eax
  0000c	e8 00 00 00 00	 call	 @__security_check_cookie@4
  00011	b8 00 00 00 00	 mov	 eax, OFFSET __ehfuncinfo$??1?$CTempldateHelper@UIGameServiceManager@@@@UAE@XZ
  00016	e9 00 00 00 00	 jmp	 ___CxxFrameHandler3
text$x	ENDS
??1?$CTempldateHelper@UIGameServiceManager@@@@UAE@XZ ENDP ; CTempldateHelper<IGameServiceManager>::~CTempldateHelper<IGameServiceManager>
; Function compile flags: /Odtp /ZI
; File g:\网狐\happygamewh\服务端\系统模块\全局定义\module.h
;	COMDAT ??0?$CTempldateHelper@UIGameServiceManager@@@@QAE@ABU_GUID@@K@Z
_TEXT	SEGMENT
_this$ = -4						; size = 4
_Guid$ = 8						; size = 4
_dwVersion$ = 12					; size = 4
??0?$CTempldateHelper@UIGameServiceManager@@@@QAE@ABU_GUID@@K@Z PROC ; CTempldateHelper<IGameServiceManager>::CTempldateHelper<IGameServiceManager>, COMDAT
; _this$ = ecx

; 169  : {

  00000	55		 push	 ebp
  00001	8b ec		 mov	 ebp, esp
  00003	83 ec 44	 sub	 esp, 68			; 00000044H
  00006	53		 push	 ebx
  00007	56		 push	 esi
  00008	57		 push	 edi
  00009	89 4d fc	 mov	 DWORD PTR _this$[ebp], ecx
  0000c	8b 45 fc	 mov	 eax, DWORD PTR _this$[ebp]
  0000f	c7 00 00 00 00
	00		 mov	 DWORD PTR [eax], OFFSET ??_7?$CTempldateHelper@UIGameServiceManager@@@@6B@

; 168  : CTempldateHelper<IModeluInterface>::CTempldateHelper(REFGUID Guid, DWORD dwVersion) : m_dwVersion(dwVersion), m_Guid(Guid)

  00015	8b 45 fc	 mov	 eax, DWORD PTR _this$[ebp]
  00018	8b 4d 08	 mov	 ecx, DWORD PTR _Guid$[ebp]
  0001b	89 48 04	 mov	 DWORD PTR [eax+4], ecx
  0001e	8b 45 fc	 mov	 eax, DWORD PTR _this$[ebp]
  00021	8b 4d 0c	 mov	 ecx, DWORD PTR _dwVersion$[ebp]
  00024	89 48 08	 mov	 DWORD PTR [eax+8], ecx

; 170  : 	//辅助变量
; 171  : 	m_szDescribe[0]=0;

  00027	b8 01 00 00 00	 mov	 eax, 1
  0002c	6b c8 00	 imul	 ecx, eax, 0
  0002f	8b 55 fc	 mov	 edx, DWORD PTR _this$[ebp]
  00032	c6 84 0a 58 01
	00 00 00	 mov	 BYTE PTR [edx+ecx+344], 0

; 172  : 
; 173  : 	//内核信息
; 174  : 	m_hDllInstance=NULL;

  0003a	8b 45 fc	 mov	 eax, DWORD PTR _this$[ebp]
  0003d	c7 80 50 01 00
	00 00 00 00 00	 mov	 DWORD PTR [eax+336], 0

; 175  : 	m_pIModeluInterface=NULL;

  00047	8b 45 fc	 mov	 eax, DWORD PTR _this$[ebp]
  0004a	c7 80 54 01 00
	00 00 00 00 00	 mov	 DWORD PTR [eax+340], 0

; 176  : 
; 177  : 	//组件属性
; 178  : 	ZeroMemory(m_szCreateProc,sizeof(m_szCreateProc));

  00054	6a 40		 push	 64			; 00000040H
  00056	6a 00		 push	 0
  00058	8b 45 fc	 mov	 eax, DWORD PTR _this$[ebp]
  0005b	83 c0 0c	 add	 eax, 12			; 0000000cH
  0005e	50		 push	 eax
  0005f	e8 00 00 00 00	 call	 _memset
  00064	83 c4 0c	 add	 esp, 12			; 0000000cH

; 179  : 	ZeroMemory(m_szModuleDllName,sizeof(m_szModuleDllName));

  00067	68 04 01 00 00	 push	 260			; 00000104H
  0006c	6a 00		 push	 0
  0006e	8b 45 fc	 mov	 eax, DWORD PTR _this$[ebp]
  00071	83 c0 4c	 add	 eax, 76			; 0000004cH
  00074	50		 push	 eax
  00075	e8 00 00 00 00	 call	 _memset
  0007a	83 c4 0c	 add	 esp, 12			; 0000000cH

; 180  : 
; 181  : 	return;
; 182  : }

  0007d	8b 45 fc	 mov	 eax, DWORD PTR _this$[ebp]
  00080	5f		 pop	 edi
  00081	5e		 pop	 esi
  00082	5b		 pop	 ebx
  00083	8b e5		 mov	 esp, ebp
  00085	5d		 pop	 ebp
  00086	c2 08 00	 ret	 8
??0?$CTempldateHelper@UIGameServiceManager@@@@QAE@ABU_GUID@@K@Z ENDP ; CTempldateHelper<IGameServiceManager>::CTempldateHelper<IGameServiceManager>
_TEXT	ENDS
; Function compile flags: /Odtp /ZI
;	COMDAT ??_GCTCPNetworkEngineHelper@@UAEPAXI@Z
_TEXT	SEGMENT
_this$ = -4						; size = 4
___flags$ = 8						; size = 4
??_GCTCPNetworkEngineHelper@@UAEPAXI@Z PROC		; CTCPNetworkEngineHelper::`scalar deleting destructor', COMDAT
; _this$ = ecx
  00000	55		 push	 ebp
  00001	8b ec		 mov	 ebp, esp
  00003	83 ec 44	 sub	 esp, 68			; 00000044H
  00006	53		 push	 ebx
  00007	56		 push	 esi
  00008	57		 push	 edi
  00009	89 4d fc	 mov	 DWORD PTR _this$[ebp], ecx
  0000c	8b 4d fc	 mov	 ecx, DWORD PTR _this$[ebp]
  0000f	e8 00 00 00 00	 call	 ??1CTCPNetworkEngineHelper@@UAE@XZ
  00014	8b 45 08	 mov	 eax, DWORD PTR ___flags$[ebp]
  00017	83 e0 01	 and	 eax, 1
  0001a	74 11		 je	 SHORT $LN2@scalar
  0001c	68 d8 01 00 00	 push	 472			; 000001d8H
  00021	8b 45 fc	 mov	 eax, DWORD PTR _this$[ebp]
  00024	50		 push	 eax
  00025	e8 00 00 00 00	 call	 ??3@YAXPAXI@Z		; operator delete
  0002a	83 c4 08	 add	 esp, 8
$LN2@scalar:
  0002d	8b 45 fc	 mov	 eax, DWORD PTR _this$[ebp]
  00030	5f		 pop	 edi
  00031	5e		 pop	 esi
  00032	5b		 pop	 ebx
  00033	8b e5		 mov	 esp, ebp
  00035	5d		 pop	 ebp
  00036	c2 04 00	 ret	 4
??_GCTCPNetworkEngineHelper@@UAEPAXI@Z ENDP		; CTCPNetworkEngineHelper::`scalar deleting destructor'
_TEXT	ENDS
; Function compile flags: /Odtp /ZI
;	COMDAT ??1CTCPNetworkEngineHelper@@UAE@XZ
_TEXT	SEGMENT
_this$ = -4						; size = 4
??1CTCPNetworkEngineHelper@@UAE@XZ PROC			; CTCPNetworkEngineHelper::~CTCPNetworkEngineHelper, COMDAT
; _this$ = ecx
  00000	55		 push	 ebp
  00001	8b ec		 mov	 ebp, esp
  00003	83 ec 44	 sub	 esp, 68			; 00000044H
  00006	53		 push	 ebx
  00007	56		 push	 esi
  00008	57		 push	 edi
  00009	89 4d fc	 mov	 DWORD PTR _this$[ebp], ecx
  0000c	8b 4d fc	 mov	 ecx, DWORD PTR _this$[ebp]
  0000f	e8 00 00 00 00	 call	 ??1?$CTempldateHelper@UITCPNetworkEngine@@@@UAE@XZ ; CTempldateHelper<ITCPNetworkEngine>::~CTempldateHelper<ITCPNetworkEngine>
  00014	5f		 pop	 edi
  00015	5e		 pop	 esi
  00016	5b		 pop	 ebx
  00017	8b e5		 mov	 esp, ebp
  00019	5d		 pop	 ebp
  0001a	c3		 ret	 0
??1CTCPNetworkEngineHelper@@UAE@XZ ENDP			; CTCPNetworkEngineHelper::~CTCPNetworkEngineHelper
_TEXT	ENDS
; Function compile flags: /Odtp /ZI
; File g:\网狐\happygamewh\服务端\系统模块\服务器组件\内核引擎\kernelenginehead.h
;	COMDAT ??0CTCPNetworkEngineHelper@@QAE@XZ
_TEXT	SEGMENT
_this$ = -4						; size = 4
??0CTCPNetworkEngineHelper@@QAE@XZ PROC			; CTCPNetworkEngineHelper::CTCPNetworkEngineHelper, COMDAT
; _this$ = ecx

; 848  : DECLARE_MODULE_HELPER(TCPNetworkEngine, KERNEL_ENGINE_DLL_NAME, "CreateTCPNetworkEngine")

  00000	55		 push	 ebp
  00001	8b ec		 mov	 ebp, esp
  00003	83 ec 44	 sub	 esp, 68			; 00000044H
  00006	53		 push	 ebx
  00007	56		 push	 esi
  00008	57		 push	 edi
  00009	89 4d fc	 mov	 DWORD PTR _this$[ebp], ecx
  0000c	68 00 00 00 00	 push	 OFFSET ??_C@_0BH@LEGJPFFH@CreateTCPNetworkEngine@
  00011	68 00 00 00 00	 push	 OFFSET ??_C@_0BB@BEMLEOHB@KernelEngine?4dll@
  00016	68 00 01 01 06	 push	 100729088		; 06010100H
  0001b	68 00 00 00 00	 push	 OFFSET ?IID_ITCPNetworkEngine@@3U_GUID@@B
  00020	8b 4d fc	 mov	 ecx, DWORD PTR _this$[ebp]
  00023	e8 00 00 00 00	 call	 ??0?$CTempldateHelper@UITCPNetworkEngine@@@@QAE@ABU_GUID@@KPBD1@Z ; CTempldateHelper<ITCPNetworkEngine>::CTempldateHelper<ITCPNetworkEngine>
  00028	8b 45 fc	 mov	 eax, DWORD PTR _this$[ebp]
  0002b	c7 00 00 00 00
	00		 mov	 DWORD PTR [eax], OFFSET ??_7CTCPNetworkEngineHelper@@6B@
  00031	8b 45 fc	 mov	 eax, DWORD PTR _this$[ebp]
  00034	5f		 pop	 edi
  00035	5e		 pop	 esi
  00036	5b		 pop	 ebx
  00037	8b e5		 mov	 esp, ebp
  00039	5d		 pop	 ebp
  0003a	c3		 ret	 0
??0CTCPNetworkEngineHelper@@QAE@XZ ENDP			; CTCPNetworkEngineHelper::CTCPNetworkEngineHelper
_TEXT	ENDS
; Function compile flags: /Odtp /ZI
;	COMDAT ??_G?$CTempldateHelper@UITCPNetworkEngine@@@@UAEPAXI@Z
_TEXT	SEGMENT
_this$ = -4						; size = 4
___flags$ = 8						; size = 4
??_G?$CTempldateHelper@UITCPNetworkEngine@@@@UAEPAXI@Z PROC ; CTempldateHelper<ITCPNetworkEngine>::`scalar deleting destructor', COMDAT
; _this$ = ecx
  00000	55		 push	 ebp
  00001	8b ec		 mov	 ebp, esp
  00003	83 ec 44	 sub	 esp, 68			; 00000044H
  00006	53		 push	 ebx
  00007	56		 push	 esi
  00008	57		 push	 edi
  00009	89 4d fc	 mov	 DWORD PTR _this$[ebp], ecx
  0000c	8b 4d fc	 mov	 ecx, DWORD PTR _this$[ebp]
  0000f	e8 00 00 00 00	 call	 ??1?$CTempldateHelper@UITCPNetworkEngine@@@@UAE@XZ ; CTempldateHelper<ITCPNetworkEngine>::~CTempldateHelper<ITCPNetworkEngine>
  00014	8b 45 08	 mov	 eax, DWORD PTR ___flags$[ebp]
  00017	83 e0 01	 and	 eax, 1
  0001a	74 11		 je	 SHORT $LN2@scalar
  0001c	68 d8 01 00 00	 push	 472			; 000001d8H
  00021	8b 45 fc	 mov	 eax, DWORD PTR _this$[ebp]
  00024	50		 push	 eax
  00025	e8 00 00 00 00	 call	 ??3@YAXPAXI@Z		; operator delete
  0002a	83 c4 08	 add	 esp, 8
$LN2@scalar:
  0002d	8b 45 fc	 mov	 eax, DWORD PTR _this$[ebp]
  00030	5f		 pop	 edi
  00031	5e		 pop	 esi
  00032	5b		 pop	 ebx
  00033	8b e5		 mov	 esp, ebp
  00035	5d		 pop	 ebp
  00036	c2 04 00	 ret	 4
??_G?$CTempldateHelper@UITCPNetworkEngine@@@@UAEPAXI@Z ENDP ; CTempldateHelper<ITCPNetworkEngine>::`scalar deleting destructor'
_TEXT	ENDS
; Function compile flags: /Odtp /ZI
; File g:\网狐\happygamewh\服务端\系统模块\全局定义\module.h
;	COMDAT ?GetInterface@?$CTempldateHelper@UITCPNetworkEngine@@@@QBEPAUITCPNetworkEngine@@XZ
_TEXT	SEGMENT
_this$ = -4						; size = 4
?GetInterface@?$CTempldateHelper@UITCPNetworkEngine@@@@QBEPAUITCPNetworkEngine@@XZ PROC ; CTempldateHelper<ITCPNetworkEngine>::GetInterface, COMDAT
; _this$ = ecx

; 316  : { 

  00000	55		 push	 ebp
  00001	8b ec		 mov	 ebp, esp
  00003	83 ec 44	 sub	 esp, 68			; 00000044H
  00006	53		 push	 ebx
  00007	56		 push	 esi
  00008	57		 push	 edi
  00009	89 4d fc	 mov	 DWORD PTR _this$[ebp], ecx

; 317  : 	return m_pIModeluInterface; 

  0000c	8b 45 fc	 mov	 eax, DWORD PTR _this$[ebp]
  0000f	8b 80 54 01 00
	00		 mov	 eax, DWORD PTR [eax+340]

; 318  : }

  00015	5f		 pop	 edi
  00016	5e		 pop	 esi
  00017	5b		 pop	 ebx
  00018	8b e5		 mov	 esp, ebp
  0001a	5d		 pop	 ebp
  0001b	c3		 ret	 0
?GetInterface@?$CTempldateHelper@UITCPNetworkEngine@@@@QBEPAUITCPNetworkEngine@@XZ ENDP ; CTempldateHelper<ITCPNetworkEngine>::GetInterface
_TEXT	ENDS
; Function compile flags: /Odtp /ZI
; File g:\网狐\happygamewh\服务端\系统模块\全局定义\module.h
;	COMDAT ??C?$CTempldateHelper@UITCPNetworkEngine@@@@QBEPAUITCPNetworkEngine@@XZ
_TEXT	SEGMENT
_this$ = -4						; size = 4
??C?$CTempldateHelper@UITCPNetworkEngine@@@@QBEPAUITCPNetworkEngine@@XZ PROC ; CTempldateHelper<ITCPNetworkEngine>::operator->, COMDAT
; _this$ = ecx

; 309  : { 

  00000	55		 push	 ebp
  00001	8b ec		 mov	 ebp, esp
  00003	83 ec 44	 sub	 esp, 68			; 00000044H
  00006	53		 push	 ebx
  00007	56		 push	 esi
  00008	57		 push	 edi
  00009	89 4d fc	 mov	 DWORD PTR _this$[ebp], ecx

; 310  : 	return GetInterface(); 

  0000c	8b 4d fc	 mov	 ecx, DWORD PTR _this$[ebp]
  0000f	e8 00 00 00 00	 call	 ?GetInterface@?$CTempldateHelper@UITCPNetworkEngine@@@@QBEPAUITCPNetworkEngine@@XZ ; CTempldateHelper<ITCPNetworkEngine>::GetInterface

; 311  : }

  00014	5f		 pop	 edi
  00015	5e		 pop	 esi
  00016	5b		 pop	 ebx
  00017	8b e5		 mov	 esp, ebp
  00019	5d		 pop	 ebp
  0001a	c3		 ret	 0
??C?$CTempldateHelper@UITCPNetworkEngine@@@@QBEPAUITCPNetworkEngine@@XZ ENDP ; CTempldateHelper<ITCPNetworkEngine>::operator->
_TEXT	ENDS
; Function compile flags: /Odtp /ZI
; File g:\网狐\happygamewh\服务端\系统模块\全局定义\module.h
;	COMDAT ?GetErrorDescribe@?$CTempldateHelper@UITCPNetworkEngine@@@@QBEPBDXZ
_TEXT	SEGMENT
_this$ = -4						; size = 4
?GetErrorDescribe@?$CTempldateHelper@UITCPNetworkEngine@@@@QBEPBDXZ PROC ; CTempldateHelper<ITCPNetworkEngine>::GetErrorDescribe, COMDAT
; _this$ = ecx

; 302  : { 

  00000	55		 push	 ebp
  00001	8b ec		 mov	 ebp, esp
  00003	83 ec 44	 sub	 esp, 68			; 00000044H
  00006	53		 push	 ebx
  00007	56		 push	 esi
  00008	57		 push	 edi
  00009	89 4d fc	 mov	 DWORD PTR _this$[ebp], ecx

; 303  : 	return m_szDescribe; 

  0000c	8b 45 fc	 mov	 eax, DWORD PTR _this$[ebp]
  0000f	05 58 01 00 00	 add	 eax, 344		; 00000158H

; 304  : }

  00014	5f		 pop	 edi
  00015	5e		 pop	 esi
  00016	5b		 pop	 ebx
  00017	8b e5		 mov	 esp, ebp
  00019	5d		 pop	 ebp
  0001a	c3		 ret	 0
?GetErrorDescribe@?$CTempldateHelper@UITCPNetworkEngine@@@@QBEPBDXZ ENDP ; CTempldateHelper<ITCPNetworkEngine>::GetErrorDescribe
_TEXT	ENDS
; Function compile flags: /Odtp /ZI
; File g:\网狐\happygamewh\服务端\系统模块\全局定义\module.h
;	COMDAT ?CreateInstance@?$CTempldateHelper@UITCPNetworkEngine@@@@QAE_NXZ
_TEXT	SEGMENT
tv173 = -100						; size = 4
tv172 = -100						; size = 4
tv171 = -100						; size = 4
tv170 = -100						; size = 4
$T2 = -94						; size = 1
$T3 = -93						; size = 1
_pszError$4 = -28					; size = 4
_CreateProc$5 = -24					; size = 4
_this$ = -20						; size = 4
__$EHRec$ = -16						; size = 16
?CreateInstance@?$CTempldateHelper@UITCPNetworkEngine@@@@QAE_NXZ PROC ; CTempldateHelper<ITCPNetworkEngine>::CreateInstance, COMDAT
; _this$ = ecx

; 212  : {

  00000	55		 push	 ebp
  00001	8b ec		 mov	 ebp, esp
  00003	6a ff		 push	 -1
  00005	68 00 00 00 00	 push	 __ehhandler$?CreateInstance@?$CTempldateHelper@UITCPNetworkEngine@@@@QAE_NXZ
  0000a	64 a1 00 00 00
	00		 mov	 eax, DWORD PTR fs:0
  00010	50		 push	 eax
  00011	51		 push	 ecx
  00012	83 ec 54	 sub	 esp, 84			; 00000054H
  00015	53		 push	 ebx
  00016	56		 push	 esi
  00017	57		 push	 edi
  00018	a1 00 00 00 00	 mov	 eax, DWORD PTR ___security_cookie
  0001d	33 c5		 xor	 eax, ebp
  0001f	50		 push	 eax
  00020	8d 45 f4	 lea	 eax, DWORD PTR __$EHRec$[ebp+4]
  00023	64 a3 00 00 00
	00		 mov	 DWORD PTR fs:0, eax
  00029	89 65 f0	 mov	 DWORD PTR __$EHRec$[ebp], esp
  0002c	89 4d ec	 mov	 DWORD PTR _this$[ebp], ecx

; 213  : 	//释放组件
; 214  : 	CloseInstance();

  0002f	8b 4d ec	 mov	 ecx, DWORD PTR _this$[ebp]
  00032	e8 00 00 00 00	 call	 ?CloseInstance@?$CTempldateHelper@UITCPNetworkEngine@@@@QAE_NXZ ; CTempldateHelper<ITCPNetworkEngine>::CloseInstance

; 215  : 
; 216  : 	//创建组件
; 217  : 	try

  00037	c7 45 fc 00 00
	00 00		 mov	 DWORD PTR __$EHRec$[ebp+12], 0

; 218  : 	{
; 219  : 		//效验参数
; 220  : 		ASSERT(m_szCreateProc[0]!=0);

  0003e	b8 01 00 00 00	 mov	 eax, 1
  00043	6b c8 00	 imul	 ecx, eax, 0
  00046	8b 55 ec	 mov	 edx, DWORD PTR _this$[ebp]
  00049	0f be 44 0a 0c	 movsx	 eax, BYTE PTR [edx+ecx+12]
  0004e	85 c0		 test	 eax, eax
  00050	75 19		 jne	 SHORT $LN7@CreateInst
  00052	68 dc 00 00 00	 push	 220			; 000000dcH
  00057	68 00 00 00 00	 push	 OFFSET ??_C@_0DG@CDIFDKED@g?3?2?M?x?$LK?$PM?2happygamewh?2?$LH?$PO?N?q?$LG?K?2?O?$LF?M?$LD@
  0005c	e8 00 00 00 00	 call	 ?AfxAssertFailedLine@@YGHPBDH@Z ; AfxAssertFailedLine
  00061	89 45 9c	 mov	 DWORD PTR tv170[ebp], eax
  00064	83 7d 9c 00	 cmp	 DWORD PTR tv170[ebp], 0
  00068	74 01		 je	 SHORT $LN7@CreateInst
  0006a	cc		 int	 3
$LN7@CreateInst:

; 221  : 		ASSERT(m_szModuleDllName[0]!=0);

  0006b	b8 01 00 00 00	 mov	 eax, 1
  00070	6b c8 00	 imul	 ecx, eax, 0
  00073	8b 55 ec	 mov	 edx, DWORD PTR _this$[ebp]
  00076	0f be 44 0a 4c	 movsx	 eax, BYTE PTR [edx+ecx+76]
  0007b	85 c0		 test	 eax, eax
  0007d	75 19		 jne	 SHORT $LN8@CreateInst
  0007f	68 dd 00 00 00	 push	 221			; 000000ddH
  00084	68 00 00 00 00	 push	 OFFSET ??_C@_0DG@CDIFDKED@g?3?2?M?x?$LK?$PM?2happygamewh?2?$LH?$PO?N?q?$LG?K?2?O?$LF?M?$LD@
  00089	e8 00 00 00 00	 call	 ?AfxAssertFailedLine@@YGHPBDH@Z ; AfxAssertFailedLine
  0008e	89 45 9c	 mov	 DWORD PTR tv171[ebp], eax
  00091	83 7d 9c 00	 cmp	 DWORD PTR tv171[ebp], 0
  00095	74 01		 je	 SHORT $LN8@CreateInst
  00097	cc		 int	 3
$LN8@CreateInst:

; 222  : 
; 223  : 		//加载模块
; 224  : 		m_hDllInstance=AfxLoadLibrary(m_szModuleDllName);

  00098	8b 45 ec	 mov	 eax, DWORD PTR _this$[ebp]
  0009b	83 c0 4c	 add	 eax, 76			; 0000004cH
  0009e	50		 push	 eax
  0009f	e8 00 00 00 00	 call	 ?AfxLoadLibrary@@YGPAUHINSTANCE__@@PBD@Z ; AfxLoadLibrary
  000a4	89 45 9c	 mov	 DWORD PTR tv172[ebp], eax
  000a7	8b 4d ec	 mov	 ecx, DWORD PTR _this$[ebp]
  000aa	8b 55 9c	 mov	 edx, DWORD PTR tv172[ebp]
  000ad	89 91 50 01 00
	00		 mov	 DWORD PTR [ecx+336], edx

; 225  : 		if (m_hDllInstance==NULL) 

  000b3	8b 45 ec	 mov	 eax, DWORD PTR _this$[ebp]
  000b6	83 b8 50 01 00
	00 00		 cmp	 DWORD PTR [eax+336], 0
  000bd	75 2a		 jne	 SHORT $LN3@CreateInst

; 226  : 		{
; 227  : 			_sntprintf_s(m_szDescribe,CountArray(m_szDescribe),TEXT("“%s”模块加载失败"),m_szModuleDllName);

  000bf	8b 45 ec	 mov	 eax, DWORD PTR _this$[ebp]
  000c2	83 c0 4c	 add	 eax, 76			; 0000004cH
  000c5	50		 push	 eax
  000c6	68 00 00 00 00	 push	 OFFSET ??_C@_0BD@LMOFNGMO@?$KB?$LA?$CFs?$KB?$LB?D?$KD?$LP?i?$LM?S?T?X?J?$KH?$LA?$NM@
  000cb	68 80 00 00 00	 push	 128			; 00000080H
  000d0	8b 4d ec	 mov	 ecx, DWORD PTR _this$[ebp]
  000d3	81 c1 58 01 00
	00		 add	 ecx, 344		; 00000158H
  000d9	51		 push	 ecx
  000da	e8 00 00 00 00	 call	 ??$_snprintf_s@$0IA@@@YAHAAY0IA@DIPBDZZ ; _snprintf_s<128>
  000df	83 c4 10	 add	 esp, 16			; 00000010H

; 228  : 			return false;

  000e2	32 c0		 xor	 al, al
  000e4	e9 34 01 00 00	 jmp	 $LN1@CreateInst
$LN3@CreateInst:

; 229  : 		}
; 230  : 
; 231  : 		//寻找函数
; 232  : 		ModuleCreateProc * CreateProc=(ModuleCreateProc *)GetProcAddress(m_hDllInstance,m_szCreateProc);

  000e9	8b 45 ec	 mov	 eax, DWORD PTR _this$[ebp]
  000ec	83 c0 0c	 add	 eax, 12			; 0000000cH
  000ef	50		 push	 eax
  000f0	8b 4d ec	 mov	 ecx, DWORD PTR _this$[ebp]
  000f3	8b 91 50 01 00
	00		 mov	 edx, DWORD PTR [ecx+336]
  000f9	52		 push	 edx
  000fa	ff 15 00 00 00
	00		 call	 DWORD PTR __imp__GetProcAddress@8
  00100	89 45 e8	 mov	 DWORD PTR _CreateProc$5[ebp], eax

; 233  : 		if (CreateProc==NULL) 

  00103	83 7d e8 00	 cmp	 DWORD PTR _CreateProc$5[ebp], 0
  00107	75 31		 jne	 SHORT $LN4@CreateInst

; 234  : 		{		
; 235  : 			_sntprintf_s(m_szDescribe, CountArray(m_szDescribe), TEXT("找不到组件创建函数“%s”:%d"), m_szCreateProc, GetLastError());

  00109	ff 15 00 00 00
	00		 call	 DWORD PTR __imp__GetLastError@0
  0010f	50		 push	 eax
  00110	8b 45 ec	 mov	 eax, DWORD PTR _this$[ebp]
  00113	83 c0 0c	 add	 eax, 12			; 0000000cH
  00116	50		 push	 eax
  00117	68 00 00 00 00	 push	 OFFSET ??_C@_0BM@PEGNCJOH@?U?R?$LC?$LL?$LF?$LN?W?i?$LM?$PO?$LE?$LE?$LN?$KI?$LK?$KP?J?$PN?$KB?$LA?$CFs?$KB?$LB?3?$CFd@
  0011c	68 80 00 00 00	 push	 128			; 00000080H
  00121	8b 4d ec	 mov	 ecx, DWORD PTR _this$[ebp]
  00124	81 c1 58 01 00
	00		 add	 ecx, 344		; 00000158H
  0012a	51		 push	 ecx
  0012b	e8 00 00 00 00	 call	 ??$_snprintf_s@$0IA@@@YAHAAY0IA@DIPBDZZ ; _snprintf_s<128>
  00130	83 c4 14	 add	 esp, 20			; 00000014H

; 236  : 			return false;

  00133	32 c0		 xor	 al, al
  00135	e9 e3 00 00 00	 jmp	 $LN1@CreateInst
$LN4@CreateInst:

; 237  : 		}
; 238  : 
; 239  : 		//创建组件
; 240  : 		m_pIModeluInterface=(IModeluInterface *)CreateProc(m_Guid,m_dwVersion);

  0013a	8b 45 ec	 mov	 eax, DWORD PTR _this$[ebp]
  0013d	8b 48 08	 mov	 ecx, DWORD PTR [eax+8]
  00140	51		 push	 ecx
  00141	8b 55 ec	 mov	 edx, DWORD PTR _this$[ebp]
  00144	8b 42 04	 mov	 eax, DWORD PTR [edx+4]
  00147	50		 push	 eax
  00148	ff 55 e8	 call	 DWORD PTR _CreateProc$5[ebp]
  0014b	83 c4 08	 add	 esp, 8
  0014e	89 45 9c	 mov	 DWORD PTR tv173[ebp], eax
  00151	8b 4d ec	 mov	 ecx, DWORD PTR _this$[ebp]
  00154	8b 55 9c	 mov	 edx, DWORD PTR tv173[ebp]
  00157	89 91 54 01 00
	00		 mov	 DWORD PTR [ecx+340], edx

; 241  : 		if (m_pIModeluInterface==NULL) 

  0015d	8b 45 ec	 mov	 eax, DWORD PTR _this$[ebp]
  00160	83 b8 54 01 00
	00 00		 cmp	 DWORD PTR [eax+340], 0
  00167	75 2a		 jne	 SHORT $LN5@CreateInst

; 242  : 		{
; 243  : 			_sntprintf_s(m_szDescribe,CountArray(m_szDescribe),TEXT("调用函数“%s”生成对象失败"),m_szCreateProc);

  00169	8b 45 ec	 mov	 eax, DWORD PTR _this$[ebp]
  0016c	83 c0 0c	 add	 eax, 12			; 0000000cH
  0016f	50		 push	 eax
  00170	68 00 00 00 00	 push	 OFFSET ??_C@_0BL@PDAODLKM@?$LF?w?S?C?$LK?$KP?J?$PN?$KB?$LA?$CFs?$KB?$LB?I?z?$LD?I?$LG?T?O?s?J?$KH?$LA?$NM@
  00175	68 80 00 00 00	 push	 128			; 00000080H
  0017a	8b 4d ec	 mov	 ecx, DWORD PTR _this$[ebp]
  0017d	81 c1 58 01 00
	00		 add	 ecx, 344		; 00000158H
  00183	51		 push	 ecx
  00184	e8 00 00 00 00	 call	 ??$_snprintf_s@$0IA@@@YAHAAY0IA@DIPBDZZ ; _snprintf_s<128>
  00189	83 c4 10	 add	 esp, 16			; 00000010H

; 244  : 			return false;

  0018c	32 c0		 xor	 al, al
  0018e	e9 8a 00 00 00	 jmp	 $LN1@CreateInst
$LN5@CreateInst:

; 245  : 		}
; 246  : 	}

  00193	eb 63		 jmp	 SHORT $LN9@CreateInst
__catch$?CreateInstance@?$CTempldateHelper@UITCPNetworkEngine@@@@QAE_NXZ$0:

; 247  : 	catch (LPCTSTR pszError)
; 248  : 	{
; 249  : 		_sntprintf_s(m_szDescribe,CountArray(m_szDescribe),TEXT("由于“%s”，组件创建失败"),pszError);

  00195	8b 45 e4	 mov	 eax, DWORD PTR _pszError$4[ebp]
  00198	50		 push	 eax
  00199	68 00 00 00 00	 push	 OFFSET ??_C@_0BJ@JGPFHIJF@?S?I?S?Z?$KB?$LA?$CFs?$KB?$LB?$KD?$KM?W?i?$LM?$PO?$LE?$LE?$LN?$KI?J?$KH?$LA?$NM@
  0019e	68 80 00 00 00	 push	 128			; 00000080H
  001a3	8b 4d ec	 mov	 ecx, DWORD PTR _this$[ebp]
  001a6	81 c1 58 01 00
	00		 add	 ecx, 344		; 00000158H
  001ac	51		 push	 ecx
  001ad	e8 00 00 00 00	 call	 ??$_snprintf_s@$0IA@@@YAHAAY0IA@DIPBDZZ ; _snprintf_s<128>
  001b2	83 c4 10	 add	 esp, 16			; 00000010H

; 250  : 		return false;

  001b5	c6 45 a3 00	 mov	 BYTE PTR $T3[ebp], 0
  001b9	b8 00 00 00 00	 mov	 eax, $LN13@CreateInst
  001be	c3		 ret	 0

; 251  : 	}

  001bf	b8 00 00 00 00	 mov	 eax, $LN9@CreateInst
  001c4	c3		 ret	 0
__catch$?CreateInstance@?$CTempldateHelper@UITCPNetworkEngine@@@@QAE_NXZ$1:

; 252  : 	catch (...)	
; 253  : 	{ 
; 254  : 		_sntprintf_s(m_szDescribe,CountArray(m_szDescribe),TEXT("组件创建函数“%s”产生未知异常错误，组件创建失败"),m_szCreateProc);

  001c5	8b 45 ec	 mov	 eax, DWORD PTR _this$[ebp]
  001c8	83 c0 0c	 add	 eax, 12			; 0000000cH
  001cb	50		 push	 eax
  001cc	68 00 00 00 00	 push	 OFFSET ??_C@_0DB@JBNKENAJ@?W?i?$LM?$PO?$LE?$LE?$LN?$KI?$LK?$KP?J?$PN?$KB?$LA?$CFs?$KB?$LB?$LC?z?I?z?N?$LE?V?$KK?R?l?$LD?$KD?$LE@
  001d1	68 80 00 00 00	 push	 128			; 00000080H
  001d6	8b 4d ec	 mov	 ecx, DWORD PTR _this$[ebp]
  001d9	81 c1 58 01 00
	00		 add	 ecx, 344		; 00000158H
  001df	51		 push	 ecx
  001e0	e8 00 00 00 00	 call	 ??$_snprintf_s@$0IA@@@YAHAAY0IA@DIPBDZZ ; _snprintf_s<128>
  001e5	83 c4 10	 add	 esp, 16			; 00000010H

; 255  : 		return false;

  001e8	c6 45 a2 00	 mov	 BYTE PTR $T2[ebp], 0
  001ec	b8 00 00 00 00	 mov	 eax, $LN15@CreateInst
  001f1	c3		 ret	 0

; 256  : 	}

  001f2	b8 00 00 00 00	 mov	 eax, $LN9@CreateInst
  001f7	c3		 ret	 0
$LN9@CreateInst:
  001f8	c7 45 fc ff ff
	ff ff		 mov	 DWORD PTR __$EHRec$[ebp+12], -1
  001ff	eb 0c		 jmp	 SHORT $LN14@CreateInst
$LN15@CreateInst:
  00201	c7 45 fc ff ff
	ff ff		 mov	 DWORD PTR __$EHRec$[ebp+12], -1

; 255  : 		return false;

  00208	8a 45 a2	 mov	 al, BYTE PTR $T2[ebp]
  0020b	eb 10		 jmp	 SHORT $LN1@CreateInst
$LN14@CreateInst:
  0020d	eb 0c		 jmp	 SHORT $LN12@CreateInst
$LN13@CreateInst:
  0020f	c7 45 fc ff ff
	ff ff		 mov	 DWORD PTR __$EHRec$[ebp+12], -1

; 250  : 		return false;

  00216	8a 45 a3	 mov	 al, BYTE PTR $T3[ebp]
  00219	eb 02		 jmp	 SHORT $LN1@CreateInst
$LN12@CreateInst:

; 257  : 
; 258  : 	return true;

  0021b	b0 01		 mov	 al, 1
$LN1@CreateInst:

; 259  : }

  0021d	8b 4d f4	 mov	 ecx, DWORD PTR __$EHRec$[ebp+4]
  00220	64 89 0d 00 00
	00 00		 mov	 DWORD PTR fs:0, ecx
  00227	59		 pop	 ecx
  00228	5f		 pop	 edi
  00229	5e		 pop	 esi
  0022a	5b		 pop	 ebx
  0022b	8b e5		 mov	 esp, ebp
  0022d	5d		 pop	 ebp
  0022e	c3		 ret	 0
_TEXT	ENDS
;	COMDAT text$x
text$x	SEGMENT
__ehhandler$?CreateInstance@?$CTempldateHelper@UITCPNetworkEngine@@@@QAE_NXZ:
  00000	8b 54 24 08	 mov	 edx, DWORD PTR [esp+8]
  00004	8d 42 0c	 lea	 eax, DWORD PTR [edx+12]
  00007	8b 4a 98	 mov	 ecx, DWORD PTR [edx-104]
  0000a	33 c8		 xor	 ecx, eax
  0000c	e8 00 00 00 00	 call	 @__security_check_cookie@4
  00011	b8 00 00 00 00	 mov	 eax, OFFSET __ehfuncinfo$?CreateInstance@?$CTempldateHelper@UITCPNetworkEngine@@@@QAE_NXZ
  00016	e9 00 00 00 00	 jmp	 ___CxxFrameHandler3
text$x	ENDS
?CreateInstance@?$CTempldateHelper@UITCPNetworkEngine@@@@QAE_NXZ ENDP ; CTempldateHelper<ITCPNetworkEngine>::CreateInstance
; Function compile flags: /Odtp /ZI
; File g:\网狐\happygamewh\服务端\系统模块\全局定义\module.h
;	COMDAT ?CloseInstance@?$CTempldateHelper@UITCPNetworkEngine@@@@QAE_NXZ
_TEXT	SEGMENT
_this$ = -4						; size = 4
?CloseInstance@?$CTempldateHelper@UITCPNetworkEngine@@@@QAE_NXZ PROC ; CTempldateHelper<ITCPNetworkEngine>::CloseInstance, COMDAT
; _this$ = ecx

; 264  : {

  00000	55		 push	 ebp
  00001	8b ec		 mov	 ebp, esp
  00003	83 ec 44	 sub	 esp, 68			; 00000044H
  00006	53		 push	 ebx
  00007	56		 push	 esi
  00008	57		 push	 edi
  00009	89 4d fc	 mov	 DWORD PTR _this$[ebp], ecx

; 265  : 	//设置变量
; 266  : 	m_szDescribe[0]=0;

  0000c	b8 01 00 00 00	 mov	 eax, 1
  00011	6b c8 00	 imul	 ecx, eax, 0
  00014	8b 55 fc	 mov	 edx, DWORD PTR _this$[ebp]
  00017	c6 84 0a 58 01
	00 00 00	 mov	 BYTE PTR [edx+ecx+344], 0

; 267  : 
; 268  : 	//销毁对象
; 269  : 	if (m_pIModeluInterface!=NULL)

  0001f	8b 45 fc	 mov	 eax, DWORD PTR _this$[ebp]
  00022	83 b8 54 01 00
	00 00		 cmp	 DWORD PTR [eax+340], 0
  00029	74 25		 je	 SHORT $LN2@CloseInsta

; 270  : 	{
; 271  : 		m_pIModeluInterface->Release();

  0002b	8b 45 fc	 mov	 eax, DWORD PTR _this$[ebp]
  0002e	8b 88 54 01 00
	00		 mov	 ecx, DWORD PTR [eax+340]
  00034	8b 55 fc	 mov	 edx, DWORD PTR _this$[ebp]
  00037	8b 01		 mov	 eax, DWORD PTR [ecx]
  00039	8b 8a 54 01 00
	00		 mov	 ecx, DWORD PTR [edx+340]
  0003f	8b 10		 mov	 edx, DWORD PTR [eax]
  00041	ff d2		 call	 edx

; 272  : 		m_pIModeluInterface=NULL;

  00043	8b 45 fc	 mov	 eax, DWORD PTR _this$[ebp]
  00046	c7 80 54 01 00
	00 00 00 00 00	 mov	 DWORD PTR [eax+340], 0
$LN2@CloseInsta:

; 273  : 	}
; 274  : 
; 275  : 	//释放 DLL
; 276  : 	if (m_hDllInstance!=NULL)

  00050	8b 45 fc	 mov	 eax, DWORD PTR _this$[ebp]
  00053	83 b8 50 01 00
	00 00		 cmp	 DWORD PTR [eax+336], 0
  0005a	74 1c		 je	 SHORT $LN3@CloseInsta

; 277  : 	{
; 278  : 		AfxFreeLibrary(m_hDllInstance);

  0005c	8b 45 fc	 mov	 eax, DWORD PTR _this$[ebp]
  0005f	8b 88 50 01 00
	00		 mov	 ecx, DWORD PTR [eax+336]
  00065	51		 push	 ecx
  00066	e8 00 00 00 00	 call	 ?AfxFreeLibrary@@YGHPAUHINSTANCE__@@@Z ; AfxFreeLibrary

; 279  : 		m_hDllInstance=NULL;

  0006b	8b 45 fc	 mov	 eax, DWORD PTR _this$[ebp]
  0006e	c7 80 50 01 00
	00 00 00 00 00	 mov	 DWORD PTR [eax+336], 0
$LN3@CloseInsta:

; 280  : 	}
; 281  : 
; 282  : 	return true;

  00078	b0 01		 mov	 al, 1

; 283  : }

  0007a	5f		 pop	 edi
  0007b	5e		 pop	 esi
  0007c	5b		 pop	 ebx
  0007d	8b e5		 mov	 esp, ebp
  0007f	5d		 pop	 ebp
  00080	c3		 ret	 0
?CloseInstance@?$CTempldateHelper@UITCPNetworkEngine@@@@QAE_NXZ ENDP ; CTempldateHelper<ITCPNetworkEngine>::CloseInstance
_TEXT	ENDS
; Function compile flags: /Odtp /ZI
; File g:\网狐\happygamewh\服务端\系统模块\全局定义\module.h
;	COMDAT ??1?$CTempldateHelper@UITCPNetworkEngine@@@@UAE@XZ
_TEXT	SEGMENT
_this$ = -16						; size = 4
__$EHRec$ = -12						; size = 12
??1?$CTempldateHelper@UITCPNetworkEngine@@@@UAE@XZ PROC	; CTempldateHelper<ITCPNetworkEngine>::~CTempldateHelper<ITCPNetworkEngine>, COMDAT
; _this$ = ecx

; 205  : {

  00000	55		 push	 ebp
  00001	8b ec		 mov	 ebp, esp
  00003	6a ff		 push	 -1
  00005	68 00 00 00 00	 push	 __ehhandler$??1?$CTempldateHelper@UITCPNetworkEngine@@@@UAE@XZ
  0000a	64 a1 00 00 00
	00		 mov	 eax, DWORD PTR fs:0
  00010	50		 push	 eax
  00011	83 ec 44	 sub	 esp, 68			; 00000044H
  00014	53		 push	 ebx
  00015	56		 push	 esi
  00016	57		 push	 edi
  00017	a1 00 00 00 00	 mov	 eax, DWORD PTR ___security_cookie
  0001c	33 c5		 xor	 eax, ebp
  0001e	50		 push	 eax
  0001f	8d 45 f4	 lea	 eax, DWORD PTR __$EHRec$[ebp]
  00022	64 a3 00 00 00
	00		 mov	 DWORD PTR fs:0, eax
  00028	89 4d f0	 mov	 DWORD PTR _this$[ebp], ecx
  0002b	8b 45 f0	 mov	 eax, DWORD PTR _this$[ebp]
  0002e	c7 00 00 00 00
	00		 mov	 DWORD PTR [eax], OFFSET ??_7?$CTempldateHelper@UITCPNetworkEngine@@@@6B@

; 206  : 	CloseInstance();

  00034	8b 4d f0	 mov	 ecx, DWORD PTR _this$[ebp]
  00037	e8 00 00 00 00	 call	 ?CloseInstance@?$CTempldateHelper@UITCPNetworkEngine@@@@QAE_NXZ ; CTempldateHelper<ITCPNetworkEngine>::CloseInstance

; 207  : }

  0003c	8b 4d f4	 mov	 ecx, DWORD PTR __$EHRec$[ebp]
  0003f	64 89 0d 00 00
	00 00		 mov	 DWORD PTR fs:0, ecx
  00046	59		 pop	 ecx
  00047	5f		 pop	 edi
  00048	5e		 pop	 esi
  00049	5b		 pop	 ebx
  0004a	8b e5		 mov	 esp, ebp
  0004c	5d		 pop	 ebp
  0004d	c3		 ret	 0
_TEXT	ENDS
;	COMDAT text$x
text$x	SEGMENT
__ehhandler$??1?$CTempldateHelper@UITCPNetworkEngine@@@@UAE@XZ:
  00000	8b 54 24 08	 mov	 edx, DWORD PTR [esp+8]
  00004	8d 42 0c	 lea	 eax, DWORD PTR [edx+12]
  00007	8b 4a ac	 mov	 ecx, DWORD PTR [edx-84]
  0000a	33 c8		 xor	 ecx, eax
  0000c	e8 00 00 00 00	 call	 @__security_check_cookie@4
  00011	b8 00 00 00 00	 mov	 eax, OFFSET __ehfuncinfo$??1?$CTempldateHelper@UITCPNetworkEngine@@@@UAE@XZ
  00016	e9 00 00 00 00	 jmp	 ___CxxFrameHandler3
text$x	ENDS
??1?$CTempldateHelper@UITCPNetworkEngine@@@@UAE@XZ ENDP	; CTempldateHelper<ITCPNetworkEngine>::~CTempldateHelper<ITCPNetworkEngine>
; Function compile flags: /Odtp /ZI
; File g:\网狐\happygamewh\服务端\系统模块\全局定义\module.h
;	COMDAT ??0?$CTempldateHelper@UITCPNetworkEngine@@@@QAE@ABU_GUID@@KPBD1@Z
_TEXT	SEGMENT
_this$ = -4						; size = 4
_Guid$ = 8						; size = 4
_dwVersion$ = 12					; size = 4
_pszModuleDll$ = 16					; size = 4
_pszCreateProc$ = 20					; size = 4
??0?$CTempldateHelper@UITCPNetworkEngine@@@@QAE@ABU_GUID@@KPBD1@Z PROC ; CTempldateHelper<ITCPNetworkEngine>::CTempldateHelper<ITCPNetworkEngine>, COMDAT
; _this$ = ecx

; 187  : {

  00000	55		 push	 ebp
  00001	8b ec		 mov	 ebp, esp
  00003	83 ec 44	 sub	 esp, 68			; 00000044H
  00006	53		 push	 ebx
  00007	56		 push	 esi
  00008	57		 push	 edi
  00009	89 4d fc	 mov	 DWORD PTR _this$[ebp], ecx
  0000c	8b 45 fc	 mov	 eax, DWORD PTR _this$[ebp]
  0000f	c7 00 00 00 00
	00		 mov	 DWORD PTR [eax], OFFSET ??_7?$CTempldateHelper@UITCPNetworkEngine@@@@6B@

; 186  : CTempldateHelper<IModeluInterface>::CTempldateHelper(REFGUID Guid, DWORD dwVersion, LPCTSTR pszModuleDll, LPCSTR pszCreateProc) : m_dwVersion(dwVersion), m_Guid(Guid)

  00015	8b 45 fc	 mov	 eax, DWORD PTR _this$[ebp]
  00018	8b 4d 08	 mov	 ecx, DWORD PTR _Guid$[ebp]
  0001b	89 48 04	 mov	 DWORD PTR [eax+4], ecx
  0001e	8b 45 fc	 mov	 eax, DWORD PTR _this$[ebp]
  00021	8b 4d 0c	 mov	 ecx, DWORD PTR _dwVersion$[ebp]
  00024	89 48 08	 mov	 DWORD PTR [eax+8], ecx

; 188  : 	//辅助变量
; 189  : 	m_szDescribe[0]=0;

  00027	b8 01 00 00 00	 mov	 eax, 1
  0002c	6b c8 00	 imul	 ecx, eax, 0
  0002f	8b 55 fc	 mov	 edx, DWORD PTR _this$[ebp]
  00032	c6 84 0a 58 01
	00 00 00	 mov	 BYTE PTR [edx+ecx+344], 0

; 190  : 
; 191  : 	//内核信息
; 192  : 	m_hDllInstance=NULL;

  0003a	8b 45 fc	 mov	 eax, DWORD PTR _this$[ebp]
  0003d	c7 80 50 01 00
	00 00 00 00 00	 mov	 DWORD PTR [eax+336], 0

; 193  : 	m_pIModeluInterface=NULL;

  00047	8b 45 fc	 mov	 eax, DWORD PTR _this$[ebp]
  0004a	c7 80 54 01 00
	00 00 00 00 00	 mov	 DWORD PTR [eax+340], 0

; 194  : 
; 195  : 	//组件属性
; 196  : 	lstrcpynA(m_szCreateProc,pszCreateProc,CountArray(m_szCreateProc));

  00054	6a 40		 push	 64			; 00000040H
  00056	8b 45 14	 mov	 eax, DWORD PTR _pszCreateProc$[ebp]
  00059	50		 push	 eax
  0005a	8b 4d fc	 mov	 ecx, DWORD PTR _this$[ebp]
  0005d	83 c1 0c	 add	 ecx, 12			; 0000000cH
  00060	51		 push	 ecx
  00061	ff 15 00 00 00
	00		 call	 DWORD PTR __imp__lstrcpynA@12

; 197  : 	lstrcpyn(m_szModuleDllName,pszModuleDll,CountArray(m_szModuleDllName));

  00067	68 04 01 00 00	 push	 260			; 00000104H
  0006c	8b 45 10	 mov	 eax, DWORD PTR _pszModuleDll$[ebp]
  0006f	50		 push	 eax
  00070	8b 4d fc	 mov	 ecx, DWORD PTR _this$[ebp]
  00073	83 c1 4c	 add	 ecx, 76			; 0000004cH
  00076	51		 push	 ecx
  00077	ff 15 00 00 00
	00		 call	 DWORD PTR __imp__lstrcpynA@12

; 198  : 
; 199  : 	return;
; 200  : }

  0007d	8b 45 fc	 mov	 eax, DWORD PTR _this$[ebp]
  00080	5f		 pop	 edi
  00081	5e		 pop	 esi
  00082	5b		 pop	 ebx
  00083	8b e5		 mov	 esp, ebp
  00085	5d		 pop	 ebp
  00086	c2 10 00	 ret	 16			; 00000010H
??0?$CTempldateHelper@UITCPNetworkEngine@@@@QAE@ABU_GUID@@KPBD1@Z ENDP ; CTempldateHelper<ITCPNetworkEngine>::CTempldateHelper<ITCPNetworkEngine>
_TEXT	ENDS
; Function compile flags: /Odtp /ZI
;	COMDAT ??_GCTCPSocketServiceHelper@@UAEPAXI@Z
_TEXT	SEGMENT
_this$ = -4						; size = 4
___flags$ = 8						; size = 4
??_GCTCPSocketServiceHelper@@UAEPAXI@Z PROC		; CTCPSocketServiceHelper::`scalar deleting destructor', COMDAT
; _this$ = ecx
  00000	55		 push	 ebp
  00001	8b ec		 mov	 ebp, esp
  00003	83 ec 44	 sub	 esp, 68			; 00000044H
  00006	53		 push	 ebx
  00007	56		 push	 esi
  00008	57		 push	 edi
  00009	89 4d fc	 mov	 DWORD PTR _this$[ebp], ecx
  0000c	8b 4d fc	 mov	 ecx, DWORD PTR _this$[ebp]
  0000f	e8 00 00 00 00	 call	 ??1CTCPSocketServiceHelper@@UAE@XZ
  00014	8b 45 08	 mov	 eax, DWORD PTR ___flags$[ebp]
  00017	83 e0 01	 and	 eax, 1
  0001a	74 11		 je	 SHORT $LN2@scalar
  0001c	68 d8 01 00 00	 push	 472			; 000001d8H
  00021	8b 45 fc	 mov	 eax, DWORD PTR _this$[ebp]
  00024	50		 push	 eax
  00025	e8 00 00 00 00	 call	 ??3@YAXPAXI@Z		; operator delete
  0002a	83 c4 08	 add	 esp, 8
$LN2@scalar:
  0002d	8b 45 fc	 mov	 eax, DWORD PTR _this$[ebp]
  00030	5f		 pop	 edi
  00031	5e		 pop	 esi
  00032	5b		 pop	 ebx
  00033	8b e5		 mov	 esp, ebp
  00035	5d		 pop	 ebp
  00036	c2 04 00	 ret	 4
??_GCTCPSocketServiceHelper@@UAEPAXI@Z ENDP		; CTCPSocketServiceHelper::`scalar deleting destructor'
_TEXT	ENDS
; Function compile flags: /Odtp /ZI
;	COMDAT ??1CTCPSocketServiceHelper@@UAE@XZ
_TEXT	SEGMENT
_this$ = -4						; size = 4
??1CTCPSocketServiceHelper@@UAE@XZ PROC			; CTCPSocketServiceHelper::~CTCPSocketServiceHelper, COMDAT
; _this$ = ecx
  00000	55		 push	 ebp
  00001	8b ec		 mov	 ebp, esp
  00003	83 ec 44	 sub	 esp, 68			; 00000044H
  00006	53		 push	 ebx
  00007	56		 push	 esi
  00008	57		 push	 edi
  00009	89 4d fc	 mov	 DWORD PTR _this$[ebp], ecx
  0000c	8b 4d fc	 mov	 ecx, DWORD PTR _this$[ebp]
  0000f	e8 00 00 00 00	 call	 ??1?$CTempldateHelper@UITCPSocketService@@@@UAE@XZ ; CTempldateHelper<ITCPSocketService>::~CTempldateHelper<ITCPSocketService>
  00014	5f		 pop	 edi
  00015	5e		 pop	 esi
  00016	5b		 pop	 ebx
  00017	8b e5		 mov	 esp, ebp
  00019	5d		 pop	 ebp
  0001a	c3		 ret	 0
??1CTCPSocketServiceHelper@@UAE@XZ ENDP			; CTCPSocketServiceHelper::~CTCPSocketServiceHelper
_TEXT	ENDS
; Function compile flags: /Odtp /ZI
; File g:\网狐\happygamewh\服务端\系统模块\服务器组件\内核引擎\kernelenginehead.h
;	COMDAT ??0CTCPSocketServiceHelper@@QAE@XZ
_TEXT	SEGMENT
_this$ = -4						; size = 4
??0CTCPSocketServiceHelper@@QAE@XZ PROC			; CTCPSocketServiceHelper::CTCPSocketServiceHelper, COMDAT
; _this$ = ecx

; 846  : DECLARE_MODULE_HELPER(TCPSocketService, KERNEL_ENGINE_DLL_NAME, "CreateTCPSocketService")

  00000	55		 push	 ebp
  00001	8b ec		 mov	 ebp, esp
  00003	83 ec 44	 sub	 esp, 68			; 00000044H
  00006	53		 push	 ebx
  00007	56		 push	 esi
  00008	57		 push	 edi
  00009	89 4d fc	 mov	 DWORD PTR _this$[ebp], ecx
  0000c	68 00 00 00 00	 push	 OFFSET ??_C@_0BH@FPPDPKKP@CreateTCPSocketService@
  00011	68 00 00 00 00	 push	 OFFSET ??_C@_0BB@BEMLEOHB@KernelEngine?4dll@
  00016	68 00 01 01 06	 push	 100729088		; 06010100H
  0001b	68 00 00 00 00	 push	 OFFSET ?IID_ITCPSocketService@@3U_GUID@@B
  00020	8b 4d fc	 mov	 ecx, DWORD PTR _this$[ebp]
  00023	e8 00 00 00 00	 call	 ??0?$CTempldateHelper@UITCPSocketService@@@@QAE@ABU_GUID@@KPBD1@Z ; CTempldateHelper<ITCPSocketService>::CTempldateHelper<ITCPSocketService>
  00028	8b 45 fc	 mov	 eax, DWORD PTR _this$[ebp]
  0002b	c7 00 00 00 00
	00		 mov	 DWORD PTR [eax], OFFSET ??_7CTCPSocketServiceHelper@@6B@
  00031	8b 45 fc	 mov	 eax, DWORD PTR _this$[ebp]
  00034	5f		 pop	 edi
  00035	5e		 pop	 esi
  00036	5b		 pop	 ebx
  00037	8b e5		 mov	 esp, ebp
  00039	5d		 pop	 ebp
  0003a	c3		 ret	 0
??0CTCPSocketServiceHelper@@QAE@XZ ENDP			; CTCPSocketServiceHelper::CTCPSocketServiceHelper
_TEXT	ENDS
; Function compile flags: /Odtp /ZI
;	COMDAT ??_G?$CTempldateHelper@UITCPSocketService@@@@UAEPAXI@Z
_TEXT	SEGMENT
_this$ = -4						; size = 4
___flags$ = 8						; size = 4
??_G?$CTempldateHelper@UITCPSocketService@@@@UAEPAXI@Z PROC ; CTempldateHelper<ITCPSocketService>::`scalar deleting destructor', COMDAT
; _this$ = ecx
  00000	55		 push	 ebp
  00001	8b ec		 mov	 ebp, esp
  00003	83 ec 44	 sub	 esp, 68			; 00000044H
  00006	53		 push	 ebx
  00007	56		 push	 esi
  00008	57		 push	 edi
  00009	89 4d fc	 mov	 DWORD PTR _this$[ebp], ecx
  0000c	8b 4d fc	 mov	 ecx, DWORD PTR _this$[ebp]
  0000f	e8 00 00 00 00	 call	 ??1?$CTempldateHelper@UITCPSocketService@@@@UAE@XZ ; CTempldateHelper<ITCPSocketService>::~CTempldateHelper<ITCPSocketService>
  00014	8b 45 08	 mov	 eax, DWORD PTR ___flags$[ebp]
  00017	83 e0 01	 and	 eax, 1
  0001a	74 11		 je	 SHORT $LN2@scalar
  0001c	68 d8 01 00 00	 push	 472			; 000001d8H
  00021	8b 45 fc	 mov	 eax, DWORD PTR _this$[ebp]
  00024	50		 push	 eax
  00025	e8 00 00 00 00	 call	 ??3@YAXPAXI@Z		; operator delete
  0002a	83 c4 08	 add	 esp, 8
$LN2@scalar:
  0002d	8b 45 fc	 mov	 eax, DWORD PTR _this$[ebp]
  00030	5f		 pop	 edi
  00031	5e		 pop	 esi
  00032	5b		 pop	 ebx
  00033	8b e5		 mov	 esp, ebp
  00035	5d		 pop	 ebp
  00036	c2 04 00	 ret	 4
??_G?$CTempldateHelper@UITCPSocketService@@@@UAEPAXI@Z ENDP ; CTempldateHelper<ITCPSocketService>::`scalar deleting destructor'
_TEXT	ENDS
; Function compile flags: /Odtp /ZI
; File g:\网狐\happygamewh\服务端\系统模块\全局定义\module.h
;	COMDAT ?GetInterface@?$CTempldateHelper@UITCPSocketService@@@@QBEPAUITCPSocketService@@XZ
_TEXT	SEGMENT
_this$ = -4						; size = 4
?GetInterface@?$CTempldateHelper@UITCPSocketService@@@@QBEPAUITCPSocketService@@XZ PROC ; CTempldateHelper<ITCPSocketService>::GetInterface, COMDAT
; _this$ = ecx

; 316  : { 

  00000	55		 push	 ebp
  00001	8b ec		 mov	 ebp, esp
  00003	83 ec 44	 sub	 esp, 68			; 00000044H
  00006	53		 push	 ebx
  00007	56		 push	 esi
  00008	57		 push	 edi
  00009	89 4d fc	 mov	 DWORD PTR _this$[ebp], ecx

; 317  : 	return m_pIModeluInterface; 

  0000c	8b 45 fc	 mov	 eax, DWORD PTR _this$[ebp]
  0000f	8b 80 54 01 00
	00		 mov	 eax, DWORD PTR [eax+340]

; 318  : }

  00015	5f		 pop	 edi
  00016	5e		 pop	 esi
  00017	5b		 pop	 ebx
  00018	8b e5		 mov	 esp, ebp
  0001a	5d		 pop	 ebp
  0001b	c3		 ret	 0
?GetInterface@?$CTempldateHelper@UITCPSocketService@@@@QBEPAUITCPSocketService@@XZ ENDP ; CTempldateHelper<ITCPSocketService>::GetInterface
_TEXT	ENDS
; Function compile flags: /Odtp /ZI
; File g:\网狐\happygamewh\服务端\系统模块\全局定义\module.h
;	COMDAT ??C?$CTempldateHelper@UITCPSocketService@@@@QBEPAUITCPSocketService@@XZ
_TEXT	SEGMENT
_this$ = -4						; size = 4
??C?$CTempldateHelper@UITCPSocketService@@@@QBEPAUITCPSocketService@@XZ PROC ; CTempldateHelper<ITCPSocketService>::operator->, COMDAT
; _this$ = ecx

; 309  : { 

  00000	55		 push	 ebp
  00001	8b ec		 mov	 ebp, esp
  00003	83 ec 44	 sub	 esp, 68			; 00000044H
  00006	53		 push	 ebx
  00007	56		 push	 esi
  00008	57		 push	 edi
  00009	89 4d fc	 mov	 DWORD PTR _this$[ebp], ecx

; 310  : 	return GetInterface(); 

  0000c	8b 4d fc	 mov	 ecx, DWORD PTR _this$[ebp]
  0000f	e8 00 00 00 00	 call	 ?GetInterface@?$CTempldateHelper@UITCPSocketService@@@@QBEPAUITCPSocketService@@XZ ; CTempldateHelper<ITCPSocketService>::GetInterface

; 311  : }

  00014	5f		 pop	 edi
  00015	5e		 pop	 esi
  00016	5b		 pop	 ebx
  00017	8b e5		 mov	 esp, ebp
  00019	5d		 pop	 ebp
  0001a	c3		 ret	 0
??C?$CTempldateHelper@UITCPSocketService@@@@QBEPAUITCPSocketService@@XZ ENDP ; CTempldateHelper<ITCPSocketService>::operator->
_TEXT	ENDS
; Function compile flags: /Odtp /ZI
; File g:\网狐\happygamewh\服务端\系统模块\全局定义\module.h
;	COMDAT ?GetErrorDescribe@?$CTempldateHelper@UITCPSocketService@@@@QBEPBDXZ
_TEXT	SEGMENT
_this$ = -4						; size = 4
?GetErrorDescribe@?$CTempldateHelper@UITCPSocketService@@@@QBEPBDXZ PROC ; CTempldateHelper<ITCPSocketService>::GetErrorDescribe, COMDAT
; _this$ = ecx

; 302  : { 

  00000	55		 push	 ebp
  00001	8b ec		 mov	 ebp, esp
  00003	83 ec 44	 sub	 esp, 68			; 00000044H
  00006	53		 push	 ebx
  00007	56		 push	 esi
  00008	57		 push	 edi
  00009	89 4d fc	 mov	 DWORD PTR _this$[ebp], ecx

; 303  : 	return m_szDescribe; 

  0000c	8b 45 fc	 mov	 eax, DWORD PTR _this$[ebp]
  0000f	05 58 01 00 00	 add	 eax, 344		; 00000158H

; 304  : }

  00014	5f		 pop	 edi
  00015	5e		 pop	 esi
  00016	5b		 pop	 ebx
  00017	8b e5		 mov	 esp, ebp
  00019	5d		 pop	 ebp
  0001a	c3		 ret	 0
?GetErrorDescribe@?$CTempldateHelper@UITCPSocketService@@@@QBEPBDXZ ENDP ; CTempldateHelper<ITCPSocketService>::GetErrorDescribe
_TEXT	ENDS
; Function compile flags: /Odtp /ZI
; File g:\网狐\happygamewh\服务端\系统模块\全局定义\module.h
;	COMDAT ?CreateInstance@?$CTempldateHelper@UITCPSocketService@@@@QAE_NXZ
_TEXT	SEGMENT
tv173 = -100						; size = 4
tv172 = -100						; size = 4
tv171 = -100						; size = 4
tv170 = -100						; size = 4
$T2 = -94						; size = 1
$T3 = -93						; size = 1
_pszError$4 = -28					; size = 4
_CreateProc$5 = -24					; size = 4
_this$ = -20						; size = 4
__$EHRec$ = -16						; size = 16
?CreateInstance@?$CTempldateHelper@UITCPSocketService@@@@QAE_NXZ PROC ; CTempldateHelper<ITCPSocketService>::CreateInstance, COMDAT
; _this$ = ecx

; 212  : {

  00000	55		 push	 ebp
  00001	8b ec		 mov	 ebp, esp
  00003	6a ff		 push	 -1
  00005	68 00 00 00 00	 push	 __ehhandler$?CreateInstance@?$CTempldateHelper@UITCPSocketService@@@@QAE_NXZ
  0000a	64 a1 00 00 00
	00		 mov	 eax, DWORD PTR fs:0
  00010	50		 push	 eax
  00011	51		 push	 ecx
  00012	83 ec 54	 sub	 esp, 84			; 00000054H
  00015	53		 push	 ebx
  00016	56		 push	 esi
  00017	57		 push	 edi
  00018	a1 00 00 00 00	 mov	 eax, DWORD PTR ___security_cookie
  0001d	33 c5		 xor	 eax, ebp
  0001f	50		 push	 eax
  00020	8d 45 f4	 lea	 eax, DWORD PTR __$EHRec$[ebp+4]
  00023	64 a3 00 00 00
	00		 mov	 DWORD PTR fs:0, eax
  00029	89 65 f0	 mov	 DWORD PTR __$EHRec$[ebp], esp
  0002c	89 4d ec	 mov	 DWORD PTR _this$[ebp], ecx

; 213  : 	//释放组件
; 214  : 	CloseInstance();

  0002f	8b 4d ec	 mov	 ecx, DWORD PTR _this$[ebp]
  00032	e8 00 00 00 00	 call	 ?CloseInstance@?$CTempldateHelper@UITCPSocketService@@@@QAE_NXZ ; CTempldateHelper<ITCPSocketService>::CloseInstance

; 215  : 
; 216  : 	//创建组件
; 217  : 	try

  00037	c7 45 fc 00 00
	00 00		 mov	 DWORD PTR __$EHRec$[ebp+12], 0

; 218  : 	{
; 219  : 		//效验参数
; 220  : 		ASSERT(m_szCreateProc[0]!=0);

  0003e	b8 01 00 00 00	 mov	 eax, 1
  00043	6b c8 00	 imul	 ecx, eax, 0
  00046	8b 55 ec	 mov	 edx, DWORD PTR _this$[ebp]
  00049	0f be 44 0a 0c	 movsx	 eax, BYTE PTR [edx+ecx+12]
  0004e	85 c0		 test	 eax, eax
  00050	75 19		 jne	 SHORT $LN7@CreateInst
  00052	68 dc 00 00 00	 push	 220			; 000000dcH
  00057	68 00 00 00 00	 push	 OFFSET ??_C@_0DG@CDIFDKED@g?3?2?M?x?$LK?$PM?2happygamewh?2?$LH?$PO?N?q?$LG?K?2?O?$LF?M?$LD@
  0005c	e8 00 00 00 00	 call	 ?AfxAssertFailedLine@@YGHPBDH@Z ; AfxAssertFailedLine
  00061	89 45 9c	 mov	 DWORD PTR tv170[ebp], eax
  00064	83 7d 9c 00	 cmp	 DWORD PTR tv170[ebp], 0
  00068	74 01		 je	 SHORT $LN7@CreateInst
  0006a	cc		 int	 3
$LN7@CreateInst:

; 221  : 		ASSERT(m_szModuleDllName[0]!=0);

  0006b	b8 01 00 00 00	 mov	 eax, 1
  00070	6b c8 00	 imul	 ecx, eax, 0
  00073	8b 55 ec	 mov	 edx, DWORD PTR _this$[ebp]
  00076	0f be 44 0a 4c	 movsx	 eax, BYTE PTR [edx+ecx+76]
  0007b	85 c0		 test	 eax, eax
  0007d	75 19		 jne	 SHORT $LN8@CreateInst
  0007f	68 dd 00 00 00	 push	 221			; 000000ddH
  00084	68 00 00 00 00	 push	 OFFSET ??_C@_0DG@CDIFDKED@g?3?2?M?x?$LK?$PM?2happygamewh?2?$LH?$PO?N?q?$LG?K?2?O?$LF?M?$LD@
  00089	e8 00 00 00 00	 call	 ?AfxAssertFailedLine@@YGHPBDH@Z ; AfxAssertFailedLine
  0008e	89 45 9c	 mov	 DWORD PTR tv171[ebp], eax
  00091	83 7d 9c 00	 cmp	 DWORD PTR tv171[ebp], 0
  00095	74 01		 je	 SHORT $LN8@CreateInst
  00097	cc		 int	 3
$LN8@CreateInst:

; 222  : 
; 223  : 		//加载模块
; 224  : 		m_hDllInstance=AfxLoadLibrary(m_szModuleDllName);

  00098	8b 45 ec	 mov	 eax, DWORD PTR _this$[ebp]
  0009b	83 c0 4c	 add	 eax, 76			; 0000004cH
  0009e	50		 push	 eax
  0009f	e8 00 00 00 00	 call	 ?AfxLoadLibrary@@YGPAUHINSTANCE__@@PBD@Z ; AfxLoadLibrary
  000a4	89 45 9c	 mov	 DWORD PTR tv172[ebp], eax
  000a7	8b 4d ec	 mov	 ecx, DWORD PTR _this$[ebp]
  000aa	8b 55 9c	 mov	 edx, DWORD PTR tv172[ebp]
  000ad	89 91 50 01 00
	00		 mov	 DWORD PTR [ecx+336], edx

; 225  : 		if (m_hDllInstance==NULL) 

  000b3	8b 45 ec	 mov	 eax, DWORD PTR _this$[ebp]
  000b6	83 b8 50 01 00
	00 00		 cmp	 DWORD PTR [eax+336], 0
  000bd	75 2a		 jne	 SHORT $LN3@CreateInst

; 226  : 		{
; 227  : 			_sntprintf_s(m_szDescribe,CountArray(m_szDescribe),TEXT("“%s”模块加载失败"),m_szModuleDllName);

  000bf	8b 45 ec	 mov	 eax, DWORD PTR _this$[ebp]
  000c2	83 c0 4c	 add	 eax, 76			; 0000004cH
  000c5	50		 push	 eax
  000c6	68 00 00 00 00	 push	 OFFSET ??_C@_0BD@LMOFNGMO@?$KB?$LA?$CFs?$KB?$LB?D?$KD?$LP?i?$LM?S?T?X?J?$KH?$LA?$NM@
  000cb	68 80 00 00 00	 push	 128			; 00000080H
  000d0	8b 4d ec	 mov	 ecx, DWORD PTR _this$[ebp]
  000d3	81 c1 58 01 00
	00		 add	 ecx, 344		; 00000158H
  000d9	51		 push	 ecx
  000da	e8 00 00 00 00	 call	 ??$_snprintf_s@$0IA@@@YAHAAY0IA@DIPBDZZ ; _snprintf_s<128>
  000df	83 c4 10	 add	 esp, 16			; 00000010H

; 228  : 			return false;

  000e2	32 c0		 xor	 al, al
  000e4	e9 34 01 00 00	 jmp	 $LN1@CreateInst
$LN3@CreateInst:

; 229  : 		}
; 230  : 
; 231  : 		//寻找函数
; 232  : 		ModuleCreateProc * CreateProc=(ModuleCreateProc *)GetProcAddress(m_hDllInstance,m_szCreateProc);

  000e9	8b 45 ec	 mov	 eax, DWORD PTR _this$[ebp]
  000ec	83 c0 0c	 add	 eax, 12			; 0000000cH
  000ef	50		 push	 eax
  000f0	8b 4d ec	 mov	 ecx, DWORD PTR _this$[ebp]
  000f3	8b 91 50 01 00
	00		 mov	 edx, DWORD PTR [ecx+336]
  000f9	52		 push	 edx
  000fa	ff 15 00 00 00
	00		 call	 DWORD PTR __imp__GetProcAddress@8
  00100	89 45 e8	 mov	 DWORD PTR _CreateProc$5[ebp], eax

; 233  : 		if (CreateProc==NULL) 

  00103	83 7d e8 00	 cmp	 DWORD PTR _CreateProc$5[ebp], 0
  00107	75 31		 jne	 SHORT $LN4@CreateInst

; 234  : 		{		
; 235  : 			_sntprintf_s(m_szDescribe, CountArray(m_szDescribe), TEXT("找不到组件创建函数“%s”:%d"), m_szCreateProc, GetLastError());

  00109	ff 15 00 00 00
	00		 call	 DWORD PTR __imp__GetLastError@0
  0010f	50		 push	 eax
  00110	8b 45 ec	 mov	 eax, DWORD PTR _this$[ebp]
  00113	83 c0 0c	 add	 eax, 12			; 0000000cH
  00116	50		 push	 eax
  00117	68 00 00 00 00	 push	 OFFSET ??_C@_0BM@PEGNCJOH@?U?R?$LC?$LL?$LF?$LN?W?i?$LM?$PO?$LE?$LE?$LN?$KI?$LK?$KP?J?$PN?$KB?$LA?$CFs?$KB?$LB?3?$CFd@
  0011c	68 80 00 00 00	 push	 128			; 00000080H
  00121	8b 4d ec	 mov	 ecx, DWORD PTR _this$[ebp]
  00124	81 c1 58 01 00
	00		 add	 ecx, 344		; 00000158H
  0012a	51		 push	 ecx
  0012b	e8 00 00 00 00	 call	 ??$_snprintf_s@$0IA@@@YAHAAY0IA@DIPBDZZ ; _snprintf_s<128>
  00130	83 c4 14	 add	 esp, 20			; 00000014H

; 236  : 			return false;

  00133	32 c0		 xor	 al, al
  00135	e9 e3 00 00 00	 jmp	 $LN1@CreateInst
$LN4@CreateInst:

; 237  : 		}
; 238  : 
; 239  : 		//创建组件
; 240  : 		m_pIModeluInterface=(IModeluInterface *)CreateProc(m_Guid,m_dwVersion);

  0013a	8b 45 ec	 mov	 eax, DWORD PTR _this$[ebp]
  0013d	8b 48 08	 mov	 ecx, DWORD PTR [eax+8]
  00140	51		 push	 ecx
  00141	8b 55 ec	 mov	 edx, DWORD PTR _this$[ebp]
  00144	8b 42 04	 mov	 eax, DWORD PTR [edx+4]
  00147	50		 push	 eax
  00148	ff 55 e8	 call	 DWORD PTR _CreateProc$5[ebp]
  0014b	83 c4 08	 add	 esp, 8
  0014e	89 45 9c	 mov	 DWORD PTR tv173[ebp], eax
  00151	8b 4d ec	 mov	 ecx, DWORD PTR _this$[ebp]
  00154	8b 55 9c	 mov	 edx, DWORD PTR tv173[ebp]
  00157	89 91 54 01 00
	00		 mov	 DWORD PTR [ecx+340], edx

; 241  : 		if (m_pIModeluInterface==NULL) 

  0015d	8b 45 ec	 mov	 eax, DWORD PTR _this$[ebp]
  00160	83 b8 54 01 00
	00 00		 cmp	 DWORD PTR [eax+340], 0
  00167	75 2a		 jne	 SHORT $LN5@CreateInst

; 242  : 		{
; 243  : 			_sntprintf_s(m_szDescribe,CountArray(m_szDescribe),TEXT("调用函数“%s”生成对象失败"),m_szCreateProc);

  00169	8b 45 ec	 mov	 eax, DWORD PTR _this$[ebp]
  0016c	83 c0 0c	 add	 eax, 12			; 0000000cH
  0016f	50		 push	 eax
  00170	68 00 00 00 00	 push	 OFFSET ??_C@_0BL@PDAODLKM@?$LF?w?S?C?$LK?$KP?J?$PN?$KB?$LA?$CFs?$KB?$LB?I?z?$LD?I?$LG?T?O?s?J?$KH?$LA?$NM@
  00175	68 80 00 00 00	 push	 128			; 00000080H
  0017a	8b 4d ec	 mov	 ecx, DWORD PTR _this$[ebp]
  0017d	81 c1 58 01 00
	00		 add	 ecx, 344		; 00000158H
  00183	51		 push	 ecx
  00184	e8 00 00 00 00	 call	 ??$_snprintf_s@$0IA@@@YAHAAY0IA@DIPBDZZ ; _snprintf_s<128>
  00189	83 c4 10	 add	 esp, 16			; 00000010H

; 244  : 			return false;

  0018c	32 c0		 xor	 al, al
  0018e	e9 8a 00 00 00	 jmp	 $LN1@CreateInst
$LN5@CreateInst:

; 245  : 		}
; 246  : 	}

  00193	eb 63		 jmp	 SHORT $LN9@CreateInst
__catch$?CreateInstance@?$CTempldateHelper@UITCPSocketService@@@@QAE_NXZ$0:

; 247  : 	catch (LPCTSTR pszError)
; 248  : 	{
; 249  : 		_sntprintf_s(m_szDescribe,CountArray(m_szDescribe),TEXT("由于“%s”，组件创建失败"),pszError);

  00195	8b 45 e4	 mov	 eax, DWORD PTR _pszError$4[ebp]
  00198	50		 push	 eax
  00199	68 00 00 00 00	 push	 OFFSET ??_C@_0BJ@JGPFHIJF@?S?I?S?Z?$KB?$LA?$CFs?$KB?$LB?$KD?$KM?W?i?$LM?$PO?$LE?$LE?$LN?$KI?J?$KH?$LA?$NM@
  0019e	68 80 00 00 00	 push	 128			; 00000080H
  001a3	8b 4d ec	 mov	 ecx, DWORD PTR _this$[ebp]
  001a6	81 c1 58 01 00
	00		 add	 ecx, 344		; 00000158H
  001ac	51		 push	 ecx
  001ad	e8 00 00 00 00	 call	 ??$_snprintf_s@$0IA@@@YAHAAY0IA@DIPBDZZ ; _snprintf_s<128>
  001b2	83 c4 10	 add	 esp, 16			; 00000010H

; 250  : 		return false;

  001b5	c6 45 a3 00	 mov	 BYTE PTR $T3[ebp], 0
  001b9	b8 00 00 00 00	 mov	 eax, $LN13@CreateInst
  001be	c3		 ret	 0

; 251  : 	}

  001bf	b8 00 00 00 00	 mov	 eax, $LN9@CreateInst
  001c4	c3		 ret	 0
__catch$?CreateInstance@?$CTempldateHelper@UITCPSocketService@@@@QAE_NXZ$1:

; 252  : 	catch (...)	
; 253  : 	{ 
; 254  : 		_sntprintf_s(m_szDescribe,CountArray(m_szDescribe),TEXT("组件创建函数“%s”产生未知异常错误，组件创建失败"),m_szCreateProc);

  001c5	8b 45 ec	 mov	 eax, DWORD PTR _this$[ebp]
  001c8	83 c0 0c	 add	 eax, 12			; 0000000cH
  001cb	50		 push	 eax
  001cc	68 00 00 00 00	 push	 OFFSET ??_C@_0DB@JBNKENAJ@?W?i?$LM?$PO?$LE?$LE?$LN?$KI?$LK?$KP?J?$PN?$KB?$LA?$CFs?$KB?$LB?$LC?z?I?z?N?$LE?V?$KK?R?l?$LD?$KD?$LE@
  001d1	68 80 00 00 00	 push	 128			; 00000080H
  001d6	8b 4d ec	 mov	 ecx, DWORD PTR _this$[ebp]
  001d9	81 c1 58 01 00
	00		 add	 ecx, 344		; 00000158H
  001df	51		 push	 ecx
  001e0	e8 00 00 00 00	 call	 ??$_snprintf_s@$0IA@@@YAHAAY0IA@DIPBDZZ ; _snprintf_s<128>
  001e5	83 c4 10	 add	 esp, 16			; 00000010H

; 255  : 		return false;

  001e8	c6 45 a2 00	 mov	 BYTE PTR $T2[ebp], 0
  001ec	b8 00 00 00 00	 mov	 eax, $LN15@CreateInst
  001f1	c3		 ret	 0

; 256  : 	}

  001f2	b8 00 00 00 00	 mov	 eax, $LN9@CreateInst
  001f7	c3		 ret	 0
$LN9@CreateInst:
  001f8	c7 45 fc ff ff
	ff ff		 mov	 DWORD PTR __$EHRec$[ebp+12], -1
  001ff	eb 0c		 jmp	 SHORT $LN14@CreateInst
$LN15@CreateInst:
  00201	c7 45 fc ff ff
	ff ff		 mov	 DWORD PTR __$EHRec$[ebp+12], -1

; 255  : 		return false;

  00208	8a 45 a2	 mov	 al, BYTE PTR $T2[ebp]
  0020b	eb 10		 jmp	 SHORT $LN1@CreateInst
$LN14@CreateInst:
  0020d	eb 0c		 jmp	 SHORT $LN12@CreateInst
$LN13@CreateInst:
  0020f	c7 45 fc ff ff
	ff ff		 mov	 DWORD PTR __$EHRec$[ebp+12], -1

; 250  : 		return false;

  00216	8a 45 a3	 mov	 al, BYTE PTR $T3[ebp]
  00219	eb 02		 jmp	 SHORT $LN1@CreateInst
$LN12@CreateInst:

; 257  : 
; 258  : 	return true;

  0021b	b0 01		 mov	 al, 1
$LN1@CreateInst:

; 259  : }

  0021d	8b 4d f4	 mov	 ecx, DWORD PTR __$EHRec$[ebp+4]
  00220	64 89 0d 00 00
	00 00		 mov	 DWORD PTR fs:0, ecx
  00227	59		 pop	 ecx
  00228	5f		 pop	 edi
  00229	5e		 pop	 esi
  0022a	5b		 pop	 ebx
  0022b	8b e5		 mov	 esp, ebp
  0022d	5d		 pop	 ebp
  0022e	c3		 ret	 0
_TEXT	ENDS
;	COMDAT text$x
text$x	SEGMENT
__ehhandler$?CreateInstance@?$CTempldateHelper@UITCPSocketService@@@@QAE_NXZ:
  00000	8b 54 24 08	 mov	 edx, DWORD PTR [esp+8]
  00004	8d 42 0c	 lea	 eax, DWORD PTR [edx+12]
  00007	8b 4a 98	 mov	 ecx, DWORD PTR [edx-104]
  0000a	33 c8		 xor	 ecx, eax
  0000c	e8 00 00 00 00	 call	 @__security_check_cookie@4
  00011	b8 00 00 00 00	 mov	 eax, OFFSET __ehfuncinfo$?CreateInstance@?$CTempldateHelper@UITCPSocketService@@@@QAE_NXZ
  00016	e9 00 00 00 00	 jmp	 ___CxxFrameHandler3
text$x	ENDS
?CreateInstance@?$CTempldateHelper@UITCPSocketService@@@@QAE_NXZ ENDP ; CTempldateHelper<ITCPSocketService>::CreateInstance
; Function compile flags: /Odtp /ZI
; File g:\网狐\happygamewh\服务端\系统模块\全局定义\module.h
;	COMDAT ?CloseInstance@?$CTempldateHelper@UITCPSocketService@@@@QAE_NXZ
_TEXT	SEGMENT
_this$ = -4						; size = 4
?CloseInstance@?$CTempldateHelper@UITCPSocketService@@@@QAE_NXZ PROC ; CTempldateHelper<ITCPSocketService>::CloseInstance, COMDAT
; _this$ = ecx

; 264  : {

  00000	55		 push	 ebp
  00001	8b ec		 mov	 ebp, esp
  00003	83 ec 44	 sub	 esp, 68			; 00000044H
  00006	53		 push	 ebx
  00007	56		 push	 esi
  00008	57		 push	 edi
  00009	89 4d fc	 mov	 DWORD PTR _this$[ebp], ecx

; 265  : 	//设置变量
; 266  : 	m_szDescribe[0]=0;

  0000c	b8 01 00 00 00	 mov	 eax, 1
  00011	6b c8 00	 imul	 ecx, eax, 0
  00014	8b 55 fc	 mov	 edx, DWORD PTR _this$[ebp]
  00017	c6 84 0a 58 01
	00 00 00	 mov	 BYTE PTR [edx+ecx+344], 0

; 267  : 
; 268  : 	//销毁对象
; 269  : 	if (m_pIModeluInterface!=NULL)

  0001f	8b 45 fc	 mov	 eax, DWORD PTR _this$[ebp]
  00022	83 b8 54 01 00
	00 00		 cmp	 DWORD PTR [eax+340], 0
  00029	74 25		 je	 SHORT $LN2@CloseInsta

; 270  : 	{
; 271  : 		m_pIModeluInterface->Release();

  0002b	8b 45 fc	 mov	 eax, DWORD PTR _this$[ebp]
  0002e	8b 88 54 01 00
	00		 mov	 ecx, DWORD PTR [eax+340]
  00034	8b 55 fc	 mov	 edx, DWORD PTR _this$[ebp]
  00037	8b 01		 mov	 eax, DWORD PTR [ecx]
  00039	8b 8a 54 01 00
	00		 mov	 ecx, DWORD PTR [edx+340]
  0003f	8b 10		 mov	 edx, DWORD PTR [eax]
  00041	ff d2		 call	 edx

; 272  : 		m_pIModeluInterface=NULL;

  00043	8b 45 fc	 mov	 eax, DWORD PTR _this$[ebp]
  00046	c7 80 54 01 00
	00 00 00 00 00	 mov	 DWORD PTR [eax+340], 0
$LN2@CloseInsta:

; 273  : 	}
; 274  : 
; 275  : 	//释放 DLL
; 276  : 	if (m_hDllInstance!=NULL)

  00050	8b 45 fc	 mov	 eax, DWORD PTR _this$[ebp]
  00053	83 b8 50 01 00
	00 00		 cmp	 DWORD PTR [eax+336], 0
  0005a	74 1c		 je	 SHORT $LN3@CloseInsta

; 277  : 	{
; 278  : 		AfxFreeLibrary(m_hDllInstance);

  0005c	8b 45 fc	 mov	 eax, DWORD PTR _this$[ebp]
  0005f	8b 88 50 01 00
	00		 mov	 ecx, DWORD PTR [eax+336]
  00065	51		 push	 ecx
  00066	e8 00 00 00 00	 call	 ?AfxFreeLibrary@@YGHPAUHINSTANCE__@@@Z ; AfxFreeLibrary

; 279  : 		m_hDllInstance=NULL;

  0006b	8b 45 fc	 mov	 eax, DWORD PTR _this$[ebp]
  0006e	c7 80 50 01 00
	00 00 00 00 00	 mov	 DWORD PTR [eax+336], 0
$LN3@CloseInsta:

; 280  : 	}
; 281  : 
; 282  : 	return true;

  00078	b0 01		 mov	 al, 1

; 283  : }

  0007a	5f		 pop	 edi
  0007b	5e		 pop	 esi
  0007c	5b		 pop	 ebx
  0007d	8b e5		 mov	 esp, ebp
  0007f	5d		 pop	 ebp
  00080	c3		 ret	 0
?CloseInstance@?$CTempldateHelper@UITCPSocketService@@@@QAE_NXZ ENDP ; CTempldateHelper<ITCPSocketService>::CloseInstance
_TEXT	ENDS
; Function compile flags: /Odtp /ZI
; File g:\网狐\happygamewh\服务端\系统模块\全局定义\module.h
;	COMDAT ??1?$CTempldateHelper@UITCPSocketService@@@@UAE@XZ
_TEXT	SEGMENT
_this$ = -16						; size = 4
__$EHRec$ = -12						; size = 12
??1?$CTempldateHelper@UITCPSocketService@@@@UAE@XZ PROC	; CTempldateHelper<ITCPSocketService>::~CTempldateHelper<ITCPSocketService>, COMDAT
; _this$ = ecx

; 205  : {

  00000	55		 push	 ebp
  00001	8b ec		 mov	 ebp, esp
  00003	6a ff		 push	 -1
  00005	68 00 00 00 00	 push	 __ehhandler$??1?$CTempldateHelper@UITCPSocketService@@@@UAE@XZ
  0000a	64 a1 00 00 00
	00		 mov	 eax, DWORD PTR fs:0
  00010	50		 push	 eax
  00011	83 ec 44	 sub	 esp, 68			; 00000044H
  00014	53		 push	 ebx
  00015	56		 push	 esi
  00016	57		 push	 edi
  00017	a1 00 00 00 00	 mov	 eax, DWORD PTR ___security_cookie
  0001c	33 c5		 xor	 eax, ebp
  0001e	50		 push	 eax
  0001f	8d 45 f4	 lea	 eax, DWORD PTR __$EHRec$[ebp]
  00022	64 a3 00 00 00
	00		 mov	 DWORD PTR fs:0, eax
  00028	89 4d f0	 mov	 DWORD PTR _this$[ebp], ecx
  0002b	8b 45 f0	 mov	 eax, DWORD PTR _this$[ebp]
  0002e	c7 00 00 00 00
	00		 mov	 DWORD PTR [eax], OFFSET ??_7?$CTempldateHelper@UITCPSocketService@@@@6B@

; 206  : 	CloseInstance();

  00034	8b 4d f0	 mov	 ecx, DWORD PTR _this$[ebp]
  00037	e8 00 00 00 00	 call	 ?CloseInstance@?$CTempldateHelper@UITCPSocketService@@@@QAE_NXZ ; CTempldateHelper<ITCPSocketService>::CloseInstance

; 207  : }

  0003c	8b 4d f4	 mov	 ecx, DWORD PTR __$EHRec$[ebp]
  0003f	64 89 0d 00 00
	00 00		 mov	 DWORD PTR fs:0, ecx
  00046	59		 pop	 ecx
  00047	5f		 pop	 edi
  00048	5e		 pop	 esi
  00049	5b		 pop	 ebx
  0004a	8b e5		 mov	 esp, ebp
  0004c	5d		 pop	 ebp
  0004d	c3		 ret	 0
_TEXT	ENDS
;	COMDAT text$x
text$x	SEGMENT
__ehhandler$??1?$CTempldateHelper@UITCPSocketService@@@@UAE@XZ:
  00000	8b 54 24 08	 mov	 edx, DWORD PTR [esp+8]
  00004	8d 42 0c	 lea	 eax, DWORD PTR [edx+12]
  00007	8b 4a ac	 mov	 ecx, DWORD PTR [edx-84]
  0000a	33 c8		 xor	 ecx, eax
  0000c	e8 00 00 00 00	 call	 @__security_check_cookie@4
  00011	b8 00 00 00 00	 mov	 eax, OFFSET __ehfuncinfo$??1?$CTempldateHelper@UITCPSocketService@@@@UAE@XZ
  00016	e9 00 00 00 00	 jmp	 ___CxxFrameHandler3
text$x	ENDS
??1?$CTempldateHelper@UITCPSocketService@@@@UAE@XZ ENDP	; CTempldateHelper<ITCPSocketService>::~CTempldateHelper<ITCPSocketService>
; Function compile flags: /Odtp /ZI
; File g:\网狐\happygamewh\服务端\系统模块\全局定义\module.h
;	COMDAT ??0?$CTempldateHelper@UITCPSocketService@@@@QAE@ABU_GUID@@KPBD1@Z
_TEXT	SEGMENT
_this$ = -4						; size = 4
_Guid$ = 8						; size = 4
_dwVersion$ = 12					; size = 4
_pszModuleDll$ = 16					; size = 4
_pszCreateProc$ = 20					; size = 4
??0?$CTempldateHelper@UITCPSocketService@@@@QAE@ABU_GUID@@KPBD1@Z PROC ; CTempldateHelper<ITCPSocketService>::CTempldateHelper<ITCPSocketService>, COMDAT
; _this$ = ecx

; 187  : {

  00000	55		 push	 ebp
  00001	8b ec		 mov	 ebp, esp
  00003	83 ec 44	 sub	 esp, 68			; 00000044H
  00006	53		 push	 ebx
  00007	56		 push	 esi
  00008	57		 push	 edi
  00009	89 4d fc	 mov	 DWORD PTR _this$[ebp], ecx
  0000c	8b 45 fc	 mov	 eax, DWORD PTR _this$[ebp]
  0000f	c7 00 00 00 00
	00		 mov	 DWORD PTR [eax], OFFSET ??_7?$CTempldateHelper@UITCPSocketService@@@@6B@

; 186  : CTempldateHelper<IModeluInterface>::CTempldateHelper(REFGUID Guid, DWORD dwVersion, LPCTSTR pszModuleDll, LPCSTR pszCreateProc) : m_dwVersion(dwVersion), m_Guid(Guid)

  00015	8b 45 fc	 mov	 eax, DWORD PTR _this$[ebp]
  00018	8b 4d 08	 mov	 ecx, DWORD PTR _Guid$[ebp]
  0001b	89 48 04	 mov	 DWORD PTR [eax+4], ecx
  0001e	8b 45 fc	 mov	 eax, DWORD PTR _this$[ebp]
  00021	8b 4d 0c	 mov	 ecx, DWORD PTR _dwVersion$[ebp]
  00024	89 48 08	 mov	 DWORD PTR [eax+8], ecx

; 188  : 	//辅助变量
; 189  : 	m_szDescribe[0]=0;

  00027	b8 01 00 00 00	 mov	 eax, 1
  0002c	6b c8 00	 imul	 ecx, eax, 0
  0002f	8b 55 fc	 mov	 edx, DWORD PTR _this$[ebp]
  00032	c6 84 0a 58 01
	00 00 00	 mov	 BYTE PTR [edx+ecx+344], 0

; 190  : 
; 191  : 	//内核信息
; 192  : 	m_hDllInstance=NULL;

  0003a	8b 45 fc	 mov	 eax, DWORD PTR _this$[ebp]
  0003d	c7 80 50 01 00
	00 00 00 00 00	 mov	 DWORD PTR [eax+336], 0

; 193  : 	m_pIModeluInterface=NULL;

  00047	8b 45 fc	 mov	 eax, DWORD PTR _this$[ebp]
  0004a	c7 80 54 01 00
	00 00 00 00 00	 mov	 DWORD PTR [eax+340], 0

; 194  : 
; 195  : 	//组件属性
; 196  : 	lstrcpynA(m_szCreateProc,pszCreateProc,CountArray(m_szCreateProc));

  00054	6a 40		 push	 64			; 00000040H
  00056	8b 45 14	 mov	 eax, DWORD PTR _pszCreateProc$[ebp]
  00059	50		 push	 eax
  0005a	8b 4d fc	 mov	 ecx, DWORD PTR _this$[ebp]
  0005d	83 c1 0c	 add	 ecx, 12			; 0000000cH
  00060	51		 push	 ecx
  00061	ff 15 00 00 00
	00		 call	 DWORD PTR __imp__lstrcpynA@12

; 197  : 	lstrcpyn(m_szModuleDllName,pszModuleDll,CountArray(m_szModuleDllName));

  00067	68 04 01 00 00	 push	 260			; 00000104H
  0006c	8b 45 10	 mov	 eax, DWORD PTR _pszModuleDll$[ebp]
  0006f	50		 push	 eax
  00070	8b 4d fc	 mov	 ecx, DWORD PTR _this$[ebp]
  00073	83 c1 4c	 add	 ecx, 76			; 0000004cH
  00076	51		 push	 ecx
  00077	ff 15 00 00 00
	00		 call	 DWORD PTR __imp__lstrcpynA@12

; 198  : 
; 199  : 	return;
; 200  : }

  0007d	8b 45 fc	 mov	 eax, DWORD PTR _this$[ebp]
  00080	5f		 pop	 edi
  00081	5e		 pop	 esi
  00082	5b		 pop	 ebx
  00083	8b e5		 mov	 esp, ebp
  00085	5d		 pop	 ebp
  00086	c2 10 00	 ret	 16			; 00000010H
??0?$CTempldateHelper@UITCPSocketService@@@@QAE@ABU_GUID@@KPBD1@Z ENDP ; CTempldateHelper<ITCPSocketService>::CTempldateHelper<ITCPSocketService>
_TEXT	ENDS
; Function compile flags: /Odtp /ZI
;	COMDAT ??_GCAttemperEngineHelper@@UAEPAXI@Z
_TEXT	SEGMENT
_this$ = -4						; size = 4
___flags$ = 8						; size = 4
??_GCAttemperEngineHelper@@UAEPAXI@Z PROC		; CAttemperEngineHelper::`scalar deleting destructor', COMDAT
; _this$ = ecx
  00000	55		 push	 ebp
  00001	8b ec		 mov	 ebp, esp
  00003	83 ec 44	 sub	 esp, 68			; 00000044H
  00006	53		 push	 ebx
  00007	56		 push	 esi
  00008	57		 push	 edi
  00009	89 4d fc	 mov	 DWORD PTR _this$[ebp], ecx
  0000c	8b 4d fc	 mov	 ecx, DWORD PTR _this$[ebp]
  0000f	e8 00 00 00 00	 call	 ??1CAttemperEngineHelper@@UAE@XZ
  00014	8b 45 08	 mov	 eax, DWORD PTR ___flags$[ebp]
  00017	83 e0 01	 and	 eax, 1
  0001a	74 11		 je	 SHORT $LN2@scalar
  0001c	68 d8 01 00 00	 push	 472			; 000001d8H
  00021	8b 45 fc	 mov	 eax, DWORD PTR _this$[ebp]
  00024	50		 push	 eax
  00025	e8 00 00 00 00	 call	 ??3@YAXPAXI@Z		; operator delete
  0002a	83 c4 08	 add	 esp, 8
$LN2@scalar:
  0002d	8b 45 fc	 mov	 eax, DWORD PTR _this$[ebp]
  00030	5f		 pop	 edi
  00031	5e		 pop	 esi
  00032	5b		 pop	 ebx
  00033	8b e5		 mov	 esp, ebp
  00035	5d		 pop	 ebp
  00036	c2 04 00	 ret	 4
??_GCAttemperEngineHelper@@UAEPAXI@Z ENDP		; CAttemperEngineHelper::`scalar deleting destructor'
_TEXT	ENDS
; Function compile flags: /Odtp /ZI
;	COMDAT ??1CAttemperEngineHelper@@UAE@XZ
_TEXT	SEGMENT
_this$ = -4						; size = 4
??1CAttemperEngineHelper@@UAE@XZ PROC			; CAttemperEngineHelper::~CAttemperEngineHelper, COMDAT
; _this$ = ecx
  00000	55		 push	 ebp
  00001	8b ec		 mov	 ebp, esp
  00003	83 ec 44	 sub	 esp, 68			; 00000044H
  00006	53		 push	 ebx
  00007	56		 push	 esi
  00008	57		 push	 edi
  00009	89 4d fc	 mov	 DWORD PTR _this$[ebp], ecx
  0000c	8b 4d fc	 mov	 ecx, DWORD PTR _this$[ebp]
  0000f	e8 00 00 00 00	 call	 ??1?$CTempldateHelper@UIAttemperEngine@@@@UAE@XZ ; CTempldateHelper<IAttemperEngine>::~CTempldateHelper<IAttemperEngine>
  00014	5f		 pop	 edi
  00015	5e		 pop	 esi
  00016	5b		 pop	 ebx
  00017	8b e5		 mov	 esp, ebp
  00019	5d		 pop	 ebp
  0001a	c3		 ret	 0
??1CAttemperEngineHelper@@UAE@XZ ENDP			; CAttemperEngineHelper::~CAttemperEngineHelper
_TEXT	ENDS
; Function compile flags: /Odtp /ZI
; File g:\网狐\happygamewh\服务端\系统模块\服务器组件\内核引擎\kernelenginehead.h
;	COMDAT ??0CAttemperEngineHelper@@QAE@XZ
_TEXT	SEGMENT
_this$ = -4						; size = 4
??0CAttemperEngineHelper@@QAE@XZ PROC			; CAttemperEngineHelper::CAttemperEngineHelper, COMDAT
; _this$ = ecx

; 845  : DECLARE_MODULE_HELPER(AttemperEngine, KERNEL_ENGINE_DLL_NAME, "CreateAttemperEngine")

  00000	55		 push	 ebp
  00001	8b ec		 mov	 ebp, esp
  00003	83 ec 44	 sub	 esp, 68			; 00000044H
  00006	53		 push	 ebx
  00007	56		 push	 esi
  00008	57		 push	 edi
  00009	89 4d fc	 mov	 DWORD PTR _this$[ebp], ecx
  0000c	68 00 00 00 00	 push	 OFFSET ??_C@_0BF@PBPGMLEA@CreateAttemperEngine@
  00011	68 00 00 00 00	 push	 OFFSET ??_C@_0BB@BEMLEOHB@KernelEngine?4dll@
  00016	68 00 01 01 06	 push	 100729088		; 06010100H
  0001b	68 00 00 00 00	 push	 OFFSET ?IID_IAttemperEngine@@3U_GUID@@B
  00020	8b 4d fc	 mov	 ecx, DWORD PTR _this$[ebp]
  00023	e8 00 00 00 00	 call	 ??0?$CTempldateHelper@UIAttemperEngine@@@@QAE@ABU_GUID@@KPBD1@Z ; CTempldateHelper<IAttemperEngine>::CTempldateHelper<IAttemperEngine>
  00028	8b 45 fc	 mov	 eax, DWORD PTR _this$[ebp]
  0002b	c7 00 00 00 00
	00		 mov	 DWORD PTR [eax], OFFSET ??_7CAttemperEngineHelper@@6B@
  00031	8b 45 fc	 mov	 eax, DWORD PTR _this$[ebp]
  00034	5f		 pop	 edi
  00035	5e		 pop	 esi
  00036	5b		 pop	 ebx
  00037	8b e5		 mov	 esp, ebp
  00039	5d		 pop	 ebp
  0003a	c3		 ret	 0
??0CAttemperEngineHelper@@QAE@XZ ENDP			; CAttemperEngineHelper::CAttemperEngineHelper
_TEXT	ENDS
; Function compile flags: /Odtp /ZI
;	COMDAT ??_G?$CTempldateHelper@UIAttemperEngine@@@@UAEPAXI@Z
_TEXT	SEGMENT
_this$ = -4						; size = 4
___flags$ = 8						; size = 4
??_G?$CTempldateHelper@UIAttemperEngine@@@@UAEPAXI@Z PROC ; CTempldateHelper<IAttemperEngine>::`scalar deleting destructor', COMDAT
; _this$ = ecx
  00000	55		 push	 ebp
  00001	8b ec		 mov	 ebp, esp
  00003	83 ec 44	 sub	 esp, 68			; 00000044H
  00006	53		 push	 ebx
  00007	56		 push	 esi
  00008	57		 push	 edi
  00009	89 4d fc	 mov	 DWORD PTR _this$[ebp], ecx
  0000c	8b 4d fc	 mov	 ecx, DWORD PTR _this$[ebp]
  0000f	e8 00 00 00 00	 call	 ??1?$CTempldateHelper@UIAttemperEngine@@@@UAE@XZ ; CTempldateHelper<IAttemperEngine>::~CTempldateHelper<IAttemperEngine>
  00014	8b 45 08	 mov	 eax, DWORD PTR ___flags$[ebp]
  00017	83 e0 01	 and	 eax, 1
  0001a	74 11		 je	 SHORT $LN2@scalar
  0001c	68 d8 01 00 00	 push	 472			; 000001d8H
  00021	8b 45 fc	 mov	 eax, DWORD PTR _this$[ebp]
  00024	50		 push	 eax
  00025	e8 00 00 00 00	 call	 ??3@YAXPAXI@Z		; operator delete
  0002a	83 c4 08	 add	 esp, 8
$LN2@scalar:
  0002d	8b 45 fc	 mov	 eax, DWORD PTR _this$[ebp]
  00030	5f		 pop	 edi
  00031	5e		 pop	 esi
  00032	5b		 pop	 ebx
  00033	8b e5		 mov	 esp, ebp
  00035	5d		 pop	 ebp
  00036	c2 04 00	 ret	 4
??_G?$CTempldateHelper@UIAttemperEngine@@@@UAEPAXI@Z ENDP ; CTempldateHelper<IAttemperEngine>::`scalar deleting destructor'
_TEXT	ENDS
; Function compile flags: /Odtp /ZI
; File g:\网狐\happygamewh\服务端\系统模块\全局定义\module.h
;	COMDAT ?GetInterface@?$CTempldateHelper@UIAttemperEngine@@@@QBEPAUIAttemperEngine@@XZ
_TEXT	SEGMENT
_this$ = -4						; size = 4
?GetInterface@?$CTempldateHelper@UIAttemperEngine@@@@QBEPAUIAttemperEngine@@XZ PROC ; CTempldateHelper<IAttemperEngine>::GetInterface, COMDAT
; _this$ = ecx

; 316  : { 

  00000	55		 push	 ebp
  00001	8b ec		 mov	 ebp, esp
  00003	83 ec 44	 sub	 esp, 68			; 00000044H
  00006	53		 push	 ebx
  00007	56		 push	 esi
  00008	57		 push	 edi
  00009	89 4d fc	 mov	 DWORD PTR _this$[ebp], ecx

; 317  : 	return m_pIModeluInterface; 

  0000c	8b 45 fc	 mov	 eax, DWORD PTR _this$[ebp]
  0000f	8b 80 54 01 00
	00		 mov	 eax, DWORD PTR [eax+340]

; 318  : }

  00015	5f		 pop	 edi
  00016	5e		 pop	 esi
  00017	5b		 pop	 ebx
  00018	8b e5		 mov	 esp, ebp
  0001a	5d		 pop	 ebp
  0001b	c3		 ret	 0
?GetInterface@?$CTempldateHelper@UIAttemperEngine@@@@QBEPAUIAttemperEngine@@XZ ENDP ; CTempldateHelper<IAttemperEngine>::GetInterface
_TEXT	ENDS
; Function compile flags: /Odtp /ZI
; File g:\网狐\happygamewh\服务端\系统模块\全局定义\module.h
;	COMDAT ??C?$CTempldateHelper@UIAttemperEngine@@@@QBEPAUIAttemperEngine@@XZ
_TEXT	SEGMENT
_this$ = -4						; size = 4
??C?$CTempldateHelper@UIAttemperEngine@@@@QBEPAUIAttemperEngine@@XZ PROC ; CTempldateHelper<IAttemperEngine>::operator->, COMDAT
; _this$ = ecx

; 309  : { 

  00000	55		 push	 ebp
  00001	8b ec		 mov	 ebp, esp
  00003	83 ec 44	 sub	 esp, 68			; 00000044H
  00006	53		 push	 ebx
  00007	56		 push	 esi
  00008	57		 push	 edi
  00009	89 4d fc	 mov	 DWORD PTR _this$[ebp], ecx

; 310  : 	return GetInterface(); 

  0000c	8b 4d fc	 mov	 ecx, DWORD PTR _this$[ebp]
  0000f	e8 00 00 00 00	 call	 ?GetInterface@?$CTempldateHelper@UIAttemperEngine@@@@QBEPAUIAttemperEngine@@XZ ; CTempldateHelper<IAttemperEngine>::GetInterface

; 311  : }

  00014	5f		 pop	 edi
  00015	5e		 pop	 esi
  00016	5b		 pop	 ebx
  00017	8b e5		 mov	 esp, ebp
  00019	5d		 pop	 ebp
  0001a	c3		 ret	 0
??C?$CTempldateHelper@UIAttemperEngine@@@@QBEPAUIAttemperEngine@@XZ ENDP ; CTempldateHelper<IAttemperEngine>::operator->
_TEXT	ENDS
; Function compile flags: /Odtp /ZI
; File g:\网狐\happygamewh\服务端\系统模块\全局定义\module.h
;	COMDAT ?GetErrorDescribe@?$CTempldateHelper@UIAttemperEngine@@@@QBEPBDXZ
_TEXT	SEGMENT
_this$ = -4						; size = 4
?GetErrorDescribe@?$CTempldateHelper@UIAttemperEngine@@@@QBEPBDXZ PROC ; CTempldateHelper<IAttemperEngine>::GetErrorDescribe, COMDAT
; _this$ = ecx

; 302  : { 

  00000	55		 push	 ebp
  00001	8b ec		 mov	 ebp, esp
  00003	83 ec 44	 sub	 esp, 68			; 00000044H
  00006	53		 push	 ebx
  00007	56		 push	 esi
  00008	57		 push	 edi
  00009	89 4d fc	 mov	 DWORD PTR _this$[ebp], ecx

; 303  : 	return m_szDescribe; 

  0000c	8b 45 fc	 mov	 eax, DWORD PTR _this$[ebp]
  0000f	05 58 01 00 00	 add	 eax, 344		; 00000158H

; 304  : }

  00014	5f		 pop	 edi
  00015	5e		 pop	 esi
  00016	5b		 pop	 ebx
  00017	8b e5		 mov	 esp, ebp
  00019	5d		 pop	 ebp
  0001a	c3		 ret	 0
?GetErrorDescribe@?$CTempldateHelper@UIAttemperEngine@@@@QBEPBDXZ ENDP ; CTempldateHelper<IAttemperEngine>::GetErrorDescribe
_TEXT	ENDS
; Function compile flags: /Odtp /ZI
; File g:\网狐\happygamewh\服务端\系统模块\全局定义\module.h
;	COMDAT ?CreateInstance@?$CTempldateHelper@UIAttemperEngine@@@@QAE_NXZ
_TEXT	SEGMENT
tv173 = -100						; size = 4
tv172 = -100						; size = 4
tv171 = -100						; size = 4
tv170 = -100						; size = 4
$T2 = -94						; size = 1
$T3 = -93						; size = 1
_pszError$4 = -28					; size = 4
_CreateProc$5 = -24					; size = 4
_this$ = -20						; size = 4
__$EHRec$ = -16						; size = 16
?CreateInstance@?$CTempldateHelper@UIAttemperEngine@@@@QAE_NXZ PROC ; CTempldateHelper<IAttemperEngine>::CreateInstance, COMDAT
; _this$ = ecx

; 212  : {

  00000	55		 push	 ebp
  00001	8b ec		 mov	 ebp, esp
  00003	6a ff		 push	 -1
  00005	68 00 00 00 00	 push	 __ehhandler$?CreateInstance@?$CTempldateHelper@UIAttemperEngine@@@@QAE_NXZ
  0000a	64 a1 00 00 00
	00		 mov	 eax, DWORD PTR fs:0
  00010	50		 push	 eax
  00011	51		 push	 ecx
  00012	83 ec 54	 sub	 esp, 84			; 00000054H
  00015	53		 push	 ebx
  00016	56		 push	 esi
  00017	57		 push	 edi
  00018	a1 00 00 00 00	 mov	 eax, DWORD PTR ___security_cookie
  0001d	33 c5		 xor	 eax, ebp
  0001f	50		 push	 eax
  00020	8d 45 f4	 lea	 eax, DWORD PTR __$EHRec$[ebp+4]
  00023	64 a3 00 00 00
	00		 mov	 DWORD PTR fs:0, eax
  00029	89 65 f0	 mov	 DWORD PTR __$EHRec$[ebp], esp
  0002c	89 4d ec	 mov	 DWORD PTR _this$[ebp], ecx

; 213  : 	//释放组件
; 214  : 	CloseInstance();

  0002f	8b 4d ec	 mov	 ecx, DWORD PTR _this$[ebp]
  00032	e8 00 00 00 00	 call	 ?CloseInstance@?$CTempldateHelper@UIAttemperEngine@@@@QAE_NXZ ; CTempldateHelper<IAttemperEngine>::CloseInstance

; 215  : 
; 216  : 	//创建组件
; 217  : 	try

  00037	c7 45 fc 00 00
	00 00		 mov	 DWORD PTR __$EHRec$[ebp+12], 0

; 218  : 	{
; 219  : 		//效验参数
; 220  : 		ASSERT(m_szCreateProc[0]!=0);

  0003e	b8 01 00 00 00	 mov	 eax, 1
  00043	6b c8 00	 imul	 ecx, eax, 0
  00046	8b 55 ec	 mov	 edx, DWORD PTR _this$[ebp]
  00049	0f be 44 0a 0c	 movsx	 eax, BYTE PTR [edx+ecx+12]
  0004e	85 c0		 test	 eax, eax
  00050	75 19		 jne	 SHORT $LN7@CreateInst
  00052	68 dc 00 00 00	 push	 220			; 000000dcH
  00057	68 00 00 00 00	 push	 OFFSET ??_C@_0DG@CDIFDKED@g?3?2?M?x?$LK?$PM?2happygamewh?2?$LH?$PO?N?q?$LG?K?2?O?$LF?M?$LD@
  0005c	e8 00 00 00 00	 call	 ?AfxAssertFailedLine@@YGHPBDH@Z ; AfxAssertFailedLine
  00061	89 45 9c	 mov	 DWORD PTR tv170[ebp], eax
  00064	83 7d 9c 00	 cmp	 DWORD PTR tv170[ebp], 0
  00068	74 01		 je	 SHORT $LN7@CreateInst
  0006a	cc		 int	 3
$LN7@CreateInst:

; 221  : 		ASSERT(m_szModuleDllName[0]!=0);

  0006b	b8 01 00 00 00	 mov	 eax, 1
  00070	6b c8 00	 imul	 ecx, eax, 0
  00073	8b 55 ec	 mov	 edx, DWORD PTR _this$[ebp]
  00076	0f be 44 0a 4c	 movsx	 eax, BYTE PTR [edx+ecx+76]
  0007b	85 c0		 test	 eax, eax
  0007d	75 19		 jne	 SHORT $LN8@CreateInst
  0007f	68 dd 00 00 00	 push	 221			; 000000ddH
  00084	68 00 00 00 00	 push	 OFFSET ??_C@_0DG@CDIFDKED@g?3?2?M?x?$LK?$PM?2happygamewh?2?$LH?$PO?N?q?$LG?K?2?O?$LF?M?$LD@
  00089	e8 00 00 00 00	 call	 ?AfxAssertFailedLine@@YGHPBDH@Z ; AfxAssertFailedLine
  0008e	89 45 9c	 mov	 DWORD PTR tv171[ebp], eax
  00091	83 7d 9c 00	 cmp	 DWORD PTR tv171[ebp], 0
  00095	74 01		 je	 SHORT $LN8@CreateInst
  00097	cc		 int	 3
$LN8@CreateInst:

; 222  : 
; 223  : 		//加载模块
; 224  : 		m_hDllInstance=AfxLoadLibrary(m_szModuleDllName);

  00098	8b 45 ec	 mov	 eax, DWORD PTR _this$[ebp]
  0009b	83 c0 4c	 add	 eax, 76			; 0000004cH
  0009e	50		 push	 eax
  0009f	e8 00 00 00 00	 call	 ?AfxLoadLibrary@@YGPAUHINSTANCE__@@PBD@Z ; AfxLoadLibrary
  000a4	89 45 9c	 mov	 DWORD PTR tv172[ebp], eax
  000a7	8b 4d ec	 mov	 ecx, DWORD PTR _this$[ebp]
  000aa	8b 55 9c	 mov	 edx, DWORD PTR tv172[ebp]
  000ad	89 91 50 01 00
	00		 mov	 DWORD PTR [ecx+336], edx

; 225  : 		if (m_hDllInstance==NULL) 

  000b3	8b 45 ec	 mov	 eax, DWORD PTR _this$[ebp]
  000b6	83 b8 50 01 00
	00 00		 cmp	 DWORD PTR [eax+336], 0
  000bd	75 2a		 jne	 SHORT $LN3@CreateInst

; 226  : 		{
; 227  : 			_sntprintf_s(m_szDescribe,CountArray(m_szDescribe),TEXT("“%s”模块加载失败"),m_szModuleDllName);

  000bf	8b 45 ec	 mov	 eax, DWORD PTR _this$[ebp]
  000c2	83 c0 4c	 add	 eax, 76			; 0000004cH
  000c5	50		 push	 eax
  000c6	68 00 00 00 00	 push	 OFFSET ??_C@_0BD@LMOFNGMO@?$KB?$LA?$CFs?$KB?$LB?D?$KD?$LP?i?$LM?S?T?X?J?$KH?$LA?$NM@
  000cb	68 80 00 00 00	 push	 128			; 00000080H
  000d0	8b 4d ec	 mov	 ecx, DWORD PTR _this$[ebp]
  000d3	81 c1 58 01 00
	00		 add	 ecx, 344		; 00000158H
  000d9	51		 push	 ecx
  000da	e8 00 00 00 00	 call	 ??$_snprintf_s@$0IA@@@YAHAAY0IA@DIPBDZZ ; _snprintf_s<128>
  000df	83 c4 10	 add	 esp, 16			; 00000010H

; 228  : 			return false;

  000e2	32 c0		 xor	 al, al
  000e4	e9 34 01 00 00	 jmp	 $LN1@CreateInst
$LN3@CreateInst:

; 229  : 		}
; 230  : 
; 231  : 		//寻找函数
; 232  : 		ModuleCreateProc * CreateProc=(ModuleCreateProc *)GetProcAddress(m_hDllInstance,m_szCreateProc);

  000e9	8b 45 ec	 mov	 eax, DWORD PTR _this$[ebp]
  000ec	83 c0 0c	 add	 eax, 12			; 0000000cH
  000ef	50		 push	 eax
  000f0	8b 4d ec	 mov	 ecx, DWORD PTR _this$[ebp]
  000f3	8b 91 50 01 00
	00		 mov	 edx, DWORD PTR [ecx+336]
  000f9	52		 push	 edx
  000fa	ff 15 00 00 00
	00		 call	 DWORD PTR __imp__GetProcAddress@8
  00100	89 45 e8	 mov	 DWORD PTR _CreateProc$5[ebp], eax

; 233  : 		if (CreateProc==NULL) 

  00103	83 7d e8 00	 cmp	 DWORD PTR _CreateProc$5[ebp], 0
  00107	75 31		 jne	 SHORT $LN4@CreateInst

; 234  : 		{		
; 235  : 			_sntprintf_s(m_szDescribe, CountArray(m_szDescribe), TEXT("找不到组件创建函数“%s”:%d"), m_szCreateProc, GetLastError());

  00109	ff 15 00 00 00
	00		 call	 DWORD PTR __imp__GetLastError@0
  0010f	50		 push	 eax
  00110	8b 45 ec	 mov	 eax, DWORD PTR _this$[ebp]
  00113	83 c0 0c	 add	 eax, 12			; 0000000cH
  00116	50		 push	 eax
  00117	68 00 00 00 00	 push	 OFFSET ??_C@_0BM@PEGNCJOH@?U?R?$LC?$LL?$LF?$LN?W?i?$LM?$PO?$LE?$LE?$LN?$KI?$LK?$KP?J?$PN?$KB?$LA?$CFs?$KB?$LB?3?$CFd@
  0011c	68 80 00 00 00	 push	 128			; 00000080H
  00121	8b 4d ec	 mov	 ecx, DWORD PTR _this$[ebp]
  00124	81 c1 58 01 00
	00		 add	 ecx, 344		; 00000158H
  0012a	51		 push	 ecx
  0012b	e8 00 00 00 00	 call	 ??$_snprintf_s@$0IA@@@YAHAAY0IA@DIPBDZZ ; _snprintf_s<128>
  00130	83 c4 14	 add	 esp, 20			; 00000014H

; 236  : 			return false;

  00133	32 c0		 xor	 al, al
  00135	e9 e3 00 00 00	 jmp	 $LN1@CreateInst
$LN4@CreateInst:

; 237  : 		}
; 238  : 
; 239  : 		//创建组件
; 240  : 		m_pIModeluInterface=(IModeluInterface *)CreateProc(m_Guid,m_dwVersion);

  0013a	8b 45 ec	 mov	 eax, DWORD PTR _this$[ebp]
  0013d	8b 48 08	 mov	 ecx, DWORD PTR [eax+8]
  00140	51		 push	 ecx
  00141	8b 55 ec	 mov	 edx, DWORD PTR _this$[ebp]
  00144	8b 42 04	 mov	 eax, DWORD PTR [edx+4]
  00147	50		 push	 eax
  00148	ff 55 e8	 call	 DWORD PTR _CreateProc$5[ebp]
  0014b	83 c4 08	 add	 esp, 8
  0014e	89 45 9c	 mov	 DWORD PTR tv173[ebp], eax
  00151	8b 4d ec	 mov	 ecx, DWORD PTR _this$[ebp]
  00154	8b 55 9c	 mov	 edx, DWORD PTR tv173[ebp]
  00157	89 91 54 01 00
	00		 mov	 DWORD PTR [ecx+340], edx

; 241  : 		if (m_pIModeluInterface==NULL) 

  0015d	8b 45 ec	 mov	 eax, DWORD PTR _this$[ebp]
  00160	83 b8 54 01 00
	00 00		 cmp	 DWORD PTR [eax+340], 0
  00167	75 2a		 jne	 SHORT $LN5@CreateInst

; 242  : 		{
; 243  : 			_sntprintf_s(m_szDescribe,CountArray(m_szDescribe),TEXT("调用函数“%s”生成对象失败"),m_szCreateProc);

  00169	8b 45 ec	 mov	 eax, DWORD PTR _this$[ebp]
  0016c	83 c0 0c	 add	 eax, 12			; 0000000cH
  0016f	50		 push	 eax
  00170	68 00 00 00 00	 push	 OFFSET ??_C@_0BL@PDAODLKM@?$LF?w?S?C?$LK?$KP?J?$PN?$KB?$LA?$CFs?$KB?$LB?I?z?$LD?I?$LG?T?O?s?J?$KH?$LA?$NM@
  00175	68 80 00 00 00	 push	 128			; 00000080H
  0017a	8b 4d ec	 mov	 ecx, DWORD PTR _this$[ebp]
  0017d	81 c1 58 01 00
	00		 add	 ecx, 344		; 00000158H
  00183	51		 push	 ecx
  00184	e8 00 00 00 00	 call	 ??$_snprintf_s@$0IA@@@YAHAAY0IA@DIPBDZZ ; _snprintf_s<128>
  00189	83 c4 10	 add	 esp, 16			; 00000010H

; 244  : 			return false;

  0018c	32 c0		 xor	 al, al
  0018e	e9 8a 00 00 00	 jmp	 $LN1@CreateInst
$LN5@CreateInst:

; 245  : 		}
; 246  : 	}

  00193	eb 63		 jmp	 SHORT $LN9@CreateInst
__catch$?CreateInstance@?$CTempldateHelper@UIAttemperEngine@@@@QAE_NXZ$0:

; 247  : 	catch (LPCTSTR pszError)
; 248  : 	{
; 249  : 		_sntprintf_s(m_szDescribe,CountArray(m_szDescribe),TEXT("由于“%s”，组件创建失败"),pszError);

  00195	8b 45 e4	 mov	 eax, DWORD PTR _pszError$4[ebp]
  00198	50		 push	 eax
  00199	68 00 00 00 00	 push	 OFFSET ??_C@_0BJ@JGPFHIJF@?S?I?S?Z?$KB?$LA?$CFs?$KB?$LB?$KD?$KM?W?i?$LM?$PO?$LE?$LE?$LN?$KI?J?$KH?$LA?$NM@
  0019e	68 80 00 00 00	 push	 128			; 00000080H
  001a3	8b 4d ec	 mov	 ecx, DWORD PTR _this$[ebp]
  001a6	81 c1 58 01 00
	00		 add	 ecx, 344		; 00000158H
  001ac	51		 push	 ecx
  001ad	e8 00 00 00 00	 call	 ??$_snprintf_s@$0IA@@@YAHAAY0IA@DIPBDZZ ; _snprintf_s<128>
  001b2	83 c4 10	 add	 esp, 16			; 00000010H

; 250  : 		return false;

  001b5	c6 45 a3 00	 mov	 BYTE PTR $T3[ebp], 0
  001b9	b8 00 00 00 00	 mov	 eax, $LN13@CreateInst
  001be	c3		 ret	 0

; 251  : 	}

  001bf	b8 00 00 00 00	 mov	 eax, $LN9@CreateInst
  001c4	c3		 ret	 0
__catch$?CreateInstance@?$CTempldateHelper@UIAttemperEngine@@@@QAE_NXZ$1:

; 252  : 	catch (...)	
; 253  : 	{ 
; 254  : 		_sntprintf_s(m_szDescribe,CountArray(m_szDescribe),TEXT("组件创建函数“%s”产生未知异常错误，组件创建失败"),m_szCreateProc);

  001c5	8b 45 ec	 mov	 eax, DWORD PTR _this$[ebp]
  001c8	83 c0 0c	 add	 eax, 12			; 0000000cH
  001cb	50		 push	 eax
  001cc	68 00 00 00 00	 push	 OFFSET ??_C@_0DB@JBNKENAJ@?W?i?$LM?$PO?$LE?$LE?$LN?$KI?$LK?$KP?J?$PN?$KB?$LA?$CFs?$KB?$LB?$LC?z?I?z?N?$LE?V?$KK?R?l?$LD?$KD?$LE@
  001d1	68 80 00 00 00	 push	 128			; 00000080H
  001d6	8b 4d ec	 mov	 ecx, DWORD PTR _this$[ebp]
  001d9	81 c1 58 01 00
	00		 add	 ecx, 344		; 00000158H
  001df	51		 push	 ecx
  001e0	e8 00 00 00 00	 call	 ??$_snprintf_s@$0IA@@@YAHAAY0IA@DIPBDZZ ; _snprintf_s<128>
  001e5	83 c4 10	 add	 esp, 16			; 00000010H

; 255  : 		return false;

  001e8	c6 45 a2 00	 mov	 BYTE PTR $T2[ebp], 0
  001ec	b8 00 00 00 00	 mov	 eax, $LN15@CreateInst
  001f1	c3		 ret	 0

; 256  : 	}

  001f2	b8 00 00 00 00	 mov	 eax, $LN9@CreateInst
  001f7	c3		 ret	 0
$LN9@CreateInst:
  001f8	c7 45 fc ff ff
	ff ff		 mov	 DWORD PTR __$EHRec$[ebp+12], -1
  001ff	eb 0c		 jmp	 SHORT $LN14@CreateInst
$LN15@CreateInst:
  00201	c7 45 fc ff ff
	ff ff		 mov	 DWORD PTR __$EHRec$[ebp+12], -1

; 255  : 		return false;

  00208	8a 45 a2	 mov	 al, BYTE PTR $T2[ebp]
  0020b	eb 10		 jmp	 SHORT $LN1@CreateInst
$LN14@CreateInst:
  0020d	eb 0c		 jmp	 SHORT $LN12@CreateInst
$LN13@CreateInst:
  0020f	c7 45 fc ff ff
	ff ff		 mov	 DWORD PTR __$EHRec$[ebp+12], -1

; 250  : 		return false;

  00216	8a 45 a3	 mov	 al, BYTE PTR $T3[ebp]
  00219	eb 02		 jmp	 SHORT $LN1@CreateInst
$LN12@CreateInst:

; 257  : 
; 258  : 	return true;

  0021b	b0 01		 mov	 al, 1
$LN1@CreateInst:

; 259  : }

  0021d	8b 4d f4	 mov	 ecx, DWORD PTR __$EHRec$[ebp+4]
  00220	64 89 0d 00 00
	00 00		 mov	 DWORD PTR fs:0, ecx
  00227	59		 pop	 ecx
  00228	5f		 pop	 edi
  00229	5e		 pop	 esi
  0022a	5b		 pop	 ebx
  0022b	8b e5		 mov	 esp, ebp
  0022d	5d		 pop	 ebp
  0022e	c3		 ret	 0
_TEXT	ENDS
;	COMDAT text$x
text$x	SEGMENT
__ehhandler$?CreateInstance@?$CTempldateHelper@UIAttemperEngine@@@@QAE_NXZ:
  00000	8b 54 24 08	 mov	 edx, DWORD PTR [esp+8]
  00004	8d 42 0c	 lea	 eax, DWORD PTR [edx+12]
  00007	8b 4a 98	 mov	 ecx, DWORD PTR [edx-104]
  0000a	33 c8		 xor	 ecx, eax
  0000c	e8 00 00 00 00	 call	 @__security_check_cookie@4
  00011	b8 00 00 00 00	 mov	 eax, OFFSET __ehfuncinfo$?CreateInstance@?$CTempldateHelper@UIAttemperEngine@@@@QAE_NXZ
  00016	e9 00 00 00 00	 jmp	 ___CxxFrameHandler3
text$x	ENDS
?CreateInstance@?$CTempldateHelper@UIAttemperEngine@@@@QAE_NXZ ENDP ; CTempldateHelper<IAttemperEngine>::CreateInstance
; Function compile flags: /Odtp /ZI
; File g:\网狐\happygamewh\服务端\系统模块\全局定义\module.h
;	COMDAT ?CloseInstance@?$CTempldateHelper@UIAttemperEngine@@@@QAE_NXZ
_TEXT	SEGMENT
_this$ = -4						; size = 4
?CloseInstance@?$CTempldateHelper@UIAttemperEngine@@@@QAE_NXZ PROC ; CTempldateHelper<IAttemperEngine>::CloseInstance, COMDAT
; _this$ = ecx

; 264  : {

  00000	55		 push	 ebp
  00001	8b ec		 mov	 ebp, esp
  00003	83 ec 44	 sub	 esp, 68			; 00000044H
  00006	53		 push	 ebx
  00007	56		 push	 esi
  00008	57		 push	 edi
  00009	89 4d fc	 mov	 DWORD PTR _this$[ebp], ecx

; 265  : 	//设置变量
; 266  : 	m_szDescribe[0]=0;

  0000c	b8 01 00 00 00	 mov	 eax, 1
  00011	6b c8 00	 imul	 ecx, eax, 0
  00014	8b 55 fc	 mov	 edx, DWORD PTR _this$[ebp]
  00017	c6 84 0a 58 01
	00 00 00	 mov	 BYTE PTR [edx+ecx+344], 0

; 267  : 
; 268  : 	//销毁对象
; 269  : 	if (m_pIModeluInterface!=NULL)

  0001f	8b 45 fc	 mov	 eax, DWORD PTR _this$[ebp]
  00022	83 b8 54 01 00
	00 00		 cmp	 DWORD PTR [eax+340], 0
  00029	74 25		 je	 SHORT $LN2@CloseInsta

; 270  : 	{
; 271  : 		m_pIModeluInterface->Release();

  0002b	8b 45 fc	 mov	 eax, DWORD PTR _this$[ebp]
  0002e	8b 88 54 01 00
	00		 mov	 ecx, DWORD PTR [eax+340]
  00034	8b 55 fc	 mov	 edx, DWORD PTR _this$[ebp]
  00037	8b 01		 mov	 eax, DWORD PTR [ecx]
  00039	8b 8a 54 01 00
	00		 mov	 ecx, DWORD PTR [edx+340]
  0003f	8b 10		 mov	 edx, DWORD PTR [eax]
  00041	ff d2		 call	 edx

; 272  : 		m_pIModeluInterface=NULL;

  00043	8b 45 fc	 mov	 eax, DWORD PTR _this$[ebp]
  00046	c7 80 54 01 00
	00 00 00 00 00	 mov	 DWORD PTR [eax+340], 0
$LN2@CloseInsta:

; 273  : 	}
; 274  : 
; 275  : 	//释放 DLL
; 276  : 	if (m_hDllInstance!=NULL)

  00050	8b 45 fc	 mov	 eax, DWORD PTR _this$[ebp]
  00053	83 b8 50 01 00
	00 00		 cmp	 DWORD PTR [eax+336], 0
  0005a	74 1c		 je	 SHORT $LN3@CloseInsta

; 277  : 	{
; 278  : 		AfxFreeLibrary(m_hDllInstance);

  0005c	8b 45 fc	 mov	 eax, DWORD PTR _this$[ebp]
  0005f	8b 88 50 01 00
	00		 mov	 ecx, DWORD PTR [eax+336]
  00065	51		 push	 ecx
  00066	e8 00 00 00 00	 call	 ?AfxFreeLibrary@@YGHPAUHINSTANCE__@@@Z ; AfxFreeLibrary

; 279  : 		m_hDllInstance=NULL;

  0006b	8b 45 fc	 mov	 eax, DWORD PTR _this$[ebp]
  0006e	c7 80 50 01 00
	00 00 00 00 00	 mov	 DWORD PTR [eax+336], 0
$LN3@CloseInsta:

; 280  : 	}
; 281  : 
; 282  : 	return true;

  00078	b0 01		 mov	 al, 1

; 283  : }

  0007a	5f		 pop	 edi
  0007b	5e		 pop	 esi
  0007c	5b		 pop	 ebx
  0007d	8b e5		 mov	 esp, ebp
  0007f	5d		 pop	 ebp
  00080	c3		 ret	 0
?CloseInstance@?$CTempldateHelper@UIAttemperEngine@@@@QAE_NXZ ENDP ; CTempldateHelper<IAttemperEngine>::CloseInstance
_TEXT	ENDS
; Function compile flags: /Odtp /ZI
; File g:\网狐\happygamewh\服务端\系统模块\全局定义\module.h
;	COMDAT ??1?$CTempldateHelper@UIAttemperEngine@@@@UAE@XZ
_TEXT	SEGMENT
_this$ = -16						; size = 4
__$EHRec$ = -12						; size = 12
??1?$CTempldateHelper@UIAttemperEngine@@@@UAE@XZ PROC	; CTempldateHelper<IAttemperEngine>::~CTempldateHelper<IAttemperEngine>, COMDAT
; _this$ = ecx

; 205  : {

  00000	55		 push	 ebp
  00001	8b ec		 mov	 ebp, esp
  00003	6a ff		 push	 -1
  00005	68 00 00 00 00	 push	 __ehhandler$??1?$CTempldateHelper@UIAttemperEngine@@@@UAE@XZ
  0000a	64 a1 00 00 00
	00		 mov	 eax, DWORD PTR fs:0
  00010	50		 push	 eax
  00011	83 ec 44	 sub	 esp, 68			; 00000044H
  00014	53		 push	 ebx
  00015	56		 push	 esi
  00016	57		 push	 edi
  00017	a1 00 00 00 00	 mov	 eax, DWORD PTR ___security_cookie
  0001c	33 c5		 xor	 eax, ebp
  0001e	50		 push	 eax
  0001f	8d 45 f4	 lea	 eax, DWORD PTR __$EHRec$[ebp]
  00022	64 a3 00 00 00
	00		 mov	 DWORD PTR fs:0, eax
  00028	89 4d f0	 mov	 DWORD PTR _this$[ebp], ecx
  0002b	8b 45 f0	 mov	 eax, DWORD PTR _this$[ebp]
  0002e	c7 00 00 00 00
	00		 mov	 DWORD PTR [eax], OFFSET ??_7?$CTempldateHelper@UIAttemperEngine@@@@6B@

; 206  : 	CloseInstance();

  00034	8b 4d f0	 mov	 ecx, DWORD PTR _this$[ebp]
  00037	e8 00 00 00 00	 call	 ?CloseInstance@?$CTempldateHelper@UIAttemperEngine@@@@QAE_NXZ ; CTempldateHelper<IAttemperEngine>::CloseInstance

; 207  : }

  0003c	8b 4d f4	 mov	 ecx, DWORD PTR __$EHRec$[ebp]
  0003f	64 89 0d 00 00
	00 00		 mov	 DWORD PTR fs:0, ecx
  00046	59		 pop	 ecx
  00047	5f		 pop	 edi
  00048	5e		 pop	 esi
  00049	5b		 pop	 ebx
  0004a	8b e5		 mov	 esp, ebp
  0004c	5d		 pop	 ebp
  0004d	c3		 ret	 0
_TEXT	ENDS
;	COMDAT text$x
text$x	SEGMENT
__ehhandler$??1?$CTempldateHelper@UIAttemperEngine@@@@UAE@XZ:
  00000	8b 54 24 08	 mov	 edx, DWORD PTR [esp+8]
  00004	8d 42 0c	 lea	 eax, DWORD PTR [edx+12]
  00007	8b 4a ac	 mov	 ecx, DWORD PTR [edx-84]
  0000a	33 c8		 xor	 ecx, eax
  0000c	e8 00 00 00 00	 call	 @__security_check_cookie@4
  00011	b8 00 00 00 00	 mov	 eax, OFFSET __ehfuncinfo$??1?$CTempldateHelper@UIAttemperEngine@@@@UAE@XZ
  00016	e9 00 00 00 00	 jmp	 ___CxxFrameHandler3
text$x	ENDS
??1?$CTempldateHelper@UIAttemperEngine@@@@UAE@XZ ENDP	; CTempldateHelper<IAttemperEngine>::~CTempldateHelper<IAttemperEngine>
; Function compile flags: /Odtp /ZI
; File g:\网狐\happygamewh\服务端\系统模块\全局定义\module.h
;	COMDAT ??0?$CTempldateHelper@UIAttemperEngine@@@@QAE@ABU_GUID@@KPBD1@Z
_TEXT	SEGMENT
_this$ = -4						; size = 4
_Guid$ = 8						; size = 4
_dwVersion$ = 12					; size = 4
_pszModuleDll$ = 16					; size = 4
_pszCreateProc$ = 20					; size = 4
??0?$CTempldateHelper@UIAttemperEngine@@@@QAE@ABU_GUID@@KPBD1@Z PROC ; CTempldateHelper<IAttemperEngine>::CTempldateHelper<IAttemperEngine>, COMDAT
; _this$ = ecx

; 187  : {

  00000	55		 push	 ebp
  00001	8b ec		 mov	 ebp, esp
  00003	83 ec 44	 sub	 esp, 68			; 00000044H
  00006	53		 push	 ebx
  00007	56		 push	 esi
  00008	57		 push	 edi
  00009	89 4d fc	 mov	 DWORD PTR _this$[ebp], ecx
  0000c	8b 45 fc	 mov	 eax, DWORD PTR _this$[ebp]
  0000f	c7 00 00 00 00
	00		 mov	 DWORD PTR [eax], OFFSET ??_7?$CTempldateHelper@UIAttemperEngine@@@@6B@

; 186  : CTempldateHelper<IModeluInterface>::CTempldateHelper(REFGUID Guid, DWORD dwVersion, LPCTSTR pszModuleDll, LPCSTR pszCreateProc) : m_dwVersion(dwVersion), m_Guid(Guid)

  00015	8b 45 fc	 mov	 eax, DWORD PTR _this$[ebp]
  00018	8b 4d 08	 mov	 ecx, DWORD PTR _Guid$[ebp]
  0001b	89 48 04	 mov	 DWORD PTR [eax+4], ecx
  0001e	8b 45 fc	 mov	 eax, DWORD PTR _this$[ebp]
  00021	8b 4d 0c	 mov	 ecx, DWORD PTR _dwVersion$[ebp]
  00024	89 48 08	 mov	 DWORD PTR [eax+8], ecx

; 188  : 	//辅助变量
; 189  : 	m_szDescribe[0]=0;

  00027	b8 01 00 00 00	 mov	 eax, 1
  0002c	6b c8 00	 imul	 ecx, eax, 0
  0002f	8b 55 fc	 mov	 edx, DWORD PTR _this$[ebp]
  00032	c6 84 0a 58 01
	00 00 00	 mov	 BYTE PTR [edx+ecx+344], 0

; 190  : 
; 191  : 	//内核信息
; 192  : 	m_hDllInstance=NULL;

  0003a	8b 45 fc	 mov	 eax, DWORD PTR _this$[ebp]
  0003d	c7 80 50 01 00
	00 00 00 00 00	 mov	 DWORD PTR [eax+336], 0

; 193  : 	m_pIModeluInterface=NULL;

  00047	8b 45 fc	 mov	 eax, DWORD PTR _this$[ebp]
  0004a	c7 80 54 01 00
	00 00 00 00 00	 mov	 DWORD PTR [eax+340], 0

; 194  : 
; 195  : 	//组件属性
; 196  : 	lstrcpynA(m_szCreateProc,pszCreateProc,CountArray(m_szCreateProc));

  00054	6a 40		 push	 64			; 00000040H
  00056	8b 45 14	 mov	 eax, DWORD PTR _pszCreateProc$[ebp]
  00059	50		 push	 eax
  0005a	8b 4d fc	 mov	 ecx, DWORD PTR _this$[ebp]
  0005d	83 c1 0c	 add	 ecx, 12			; 0000000cH
  00060	51		 push	 ecx
  00061	ff 15 00 00 00
	00		 call	 DWORD PTR __imp__lstrcpynA@12

; 197  : 	lstrcpyn(m_szModuleDllName,pszModuleDll,CountArray(m_szModuleDllName));

  00067	68 04 01 00 00	 push	 260			; 00000104H
  0006c	8b 45 10	 mov	 eax, DWORD PTR _pszModuleDll$[ebp]
  0006f	50		 push	 eax
  00070	8b 4d fc	 mov	 ecx, DWORD PTR _this$[ebp]
  00073	83 c1 4c	 add	 ecx, 76			; 0000004cH
  00076	51		 push	 ecx
  00077	ff 15 00 00 00
	00		 call	 DWORD PTR __imp__lstrcpynA@12

; 198  : 
; 199  : 	return;
; 200  : }

  0007d	8b 45 fc	 mov	 eax, DWORD PTR _this$[ebp]
  00080	5f		 pop	 edi
  00081	5e		 pop	 esi
  00082	5b		 pop	 ebx
  00083	8b e5		 mov	 esp, ebp
  00085	5d		 pop	 ebp
  00086	c2 10 00	 ret	 16			; 00000010H
??0?$CTempldateHelper@UIAttemperEngine@@@@QAE@ABU_GUID@@KPBD1@Z ENDP ; CTempldateHelper<IAttemperEngine>::CTempldateHelper<IAttemperEngine>
_TEXT	ENDS
; Function compile flags: /Odtp /ZI
;	COMDAT ??_GCDataBaseEngineHelper@@UAEPAXI@Z
_TEXT	SEGMENT
_this$ = -4						; size = 4
___flags$ = 8						; size = 4
??_GCDataBaseEngineHelper@@UAEPAXI@Z PROC		; CDataBaseEngineHelper::`scalar deleting destructor', COMDAT
; _this$ = ecx
  00000	55		 push	 ebp
  00001	8b ec		 mov	 ebp, esp
  00003	83 ec 44	 sub	 esp, 68			; 00000044H
  00006	53		 push	 ebx
  00007	56		 push	 esi
  00008	57		 push	 edi
  00009	89 4d fc	 mov	 DWORD PTR _this$[ebp], ecx
  0000c	8b 4d fc	 mov	 ecx, DWORD PTR _this$[ebp]
  0000f	e8 00 00 00 00	 call	 ??1CDataBaseEngineHelper@@UAE@XZ
  00014	8b 45 08	 mov	 eax, DWORD PTR ___flags$[ebp]
  00017	83 e0 01	 and	 eax, 1
  0001a	74 11		 je	 SHORT $LN2@scalar
  0001c	68 d8 01 00 00	 push	 472			; 000001d8H
  00021	8b 45 fc	 mov	 eax, DWORD PTR _this$[ebp]
  00024	50		 push	 eax
  00025	e8 00 00 00 00	 call	 ??3@YAXPAXI@Z		; operator delete
  0002a	83 c4 08	 add	 esp, 8
$LN2@scalar:
  0002d	8b 45 fc	 mov	 eax, DWORD PTR _this$[ebp]
  00030	5f		 pop	 edi
  00031	5e		 pop	 esi
  00032	5b		 pop	 ebx
  00033	8b e5		 mov	 esp, ebp
  00035	5d		 pop	 ebp
  00036	c2 04 00	 ret	 4
??_GCDataBaseEngineHelper@@UAEPAXI@Z ENDP		; CDataBaseEngineHelper::`scalar deleting destructor'
_TEXT	ENDS
; Function compile flags: /Odtp /ZI
;	COMDAT ??1CDataBaseEngineHelper@@UAE@XZ
_TEXT	SEGMENT
_this$ = -4						; size = 4
??1CDataBaseEngineHelper@@UAE@XZ PROC			; CDataBaseEngineHelper::~CDataBaseEngineHelper, COMDAT
; _this$ = ecx
  00000	55		 push	 ebp
  00001	8b ec		 mov	 ebp, esp
  00003	83 ec 44	 sub	 esp, 68			; 00000044H
  00006	53		 push	 ebx
  00007	56		 push	 esi
  00008	57		 push	 edi
  00009	89 4d fc	 mov	 DWORD PTR _this$[ebp], ecx
  0000c	8b 4d fc	 mov	 ecx, DWORD PTR _this$[ebp]
  0000f	e8 00 00 00 00	 call	 ??1?$CTempldateHelper@UIDataBaseEngine@@@@UAE@XZ ; CTempldateHelper<IDataBaseEngine>::~CTempldateHelper<IDataBaseEngine>
  00014	5f		 pop	 edi
  00015	5e		 pop	 esi
  00016	5b		 pop	 ebx
  00017	8b e5		 mov	 esp, ebp
  00019	5d		 pop	 ebp
  0001a	c3		 ret	 0
??1CDataBaseEngineHelper@@UAE@XZ ENDP			; CDataBaseEngineHelper::~CDataBaseEngineHelper
_TEXT	ENDS
; Function compile flags: /Odtp /ZI
; File g:\网狐\happygamewh\服务端\系统模块\服务器组件\内核引擎\kernelenginehead.h
;	COMDAT ??0CDataBaseEngineHelper@@QAE@XZ
_TEXT	SEGMENT
_this$ = -4						; size = 4
??0CDataBaseEngineHelper@@QAE@XZ PROC			; CDataBaseEngineHelper::CDataBaseEngineHelper, COMDAT
; _this$ = ecx

; 844  : DECLARE_MODULE_HELPER(DataBaseEngine, KERNEL_ENGINE_DLL_NAME, "CreateDataBaseEngine")

  00000	55		 push	 ebp
  00001	8b ec		 mov	 ebp, esp
  00003	83 ec 44	 sub	 esp, 68			; 00000044H
  00006	53		 push	 ebx
  00007	56		 push	 esi
  00008	57		 push	 edi
  00009	89 4d fc	 mov	 DWORD PTR _this$[ebp], ecx
  0000c	68 00 00 00 00	 push	 OFFSET ??_C@_0BF@FHMKIOLL@CreateDataBaseEngine@
  00011	68 00 00 00 00	 push	 OFFSET ??_C@_0BB@BEMLEOHB@KernelEngine?4dll@
  00016	68 00 01 01 06	 push	 100729088		; 06010100H
  0001b	68 00 00 00 00	 push	 OFFSET ?IID_IDataBaseEngine@@3U_GUID@@B
  00020	8b 4d fc	 mov	 ecx, DWORD PTR _this$[ebp]
  00023	e8 00 00 00 00	 call	 ??0?$CTempldateHelper@UIDataBaseEngine@@@@QAE@ABU_GUID@@KPBD1@Z ; CTempldateHelper<IDataBaseEngine>::CTempldateHelper<IDataBaseEngine>
  00028	8b 45 fc	 mov	 eax, DWORD PTR _this$[ebp]
  0002b	c7 00 00 00 00
	00		 mov	 DWORD PTR [eax], OFFSET ??_7CDataBaseEngineHelper@@6B@
  00031	8b 45 fc	 mov	 eax, DWORD PTR _this$[ebp]
  00034	5f		 pop	 edi
  00035	5e		 pop	 esi
  00036	5b		 pop	 ebx
  00037	8b e5		 mov	 esp, ebp
  00039	5d		 pop	 ebp
  0003a	c3		 ret	 0
??0CDataBaseEngineHelper@@QAE@XZ ENDP			; CDataBaseEngineHelper::CDataBaseEngineHelper
_TEXT	ENDS
; Function compile flags: /Odtp /ZI
;	COMDAT ??_G?$CTempldateHelper@UIDataBaseEngine@@@@UAEPAXI@Z
_TEXT	SEGMENT
_this$ = -4						; size = 4
___flags$ = 8						; size = 4
??_G?$CTempldateHelper@UIDataBaseEngine@@@@UAEPAXI@Z PROC ; CTempldateHelper<IDataBaseEngine>::`scalar deleting destructor', COMDAT
; _this$ = ecx
  00000	55		 push	 ebp
  00001	8b ec		 mov	 ebp, esp
  00003	83 ec 44	 sub	 esp, 68			; 00000044H
  00006	53		 push	 ebx
  00007	56		 push	 esi
  00008	57		 push	 edi
  00009	89 4d fc	 mov	 DWORD PTR _this$[ebp], ecx
  0000c	8b 4d fc	 mov	 ecx, DWORD PTR _this$[ebp]
  0000f	e8 00 00 00 00	 call	 ??1?$CTempldateHelper@UIDataBaseEngine@@@@UAE@XZ ; CTempldateHelper<IDataBaseEngine>::~CTempldateHelper<IDataBaseEngine>
  00014	8b 45 08	 mov	 eax, DWORD PTR ___flags$[ebp]
  00017	83 e0 01	 and	 eax, 1
  0001a	74 11		 je	 SHORT $LN2@scalar
  0001c	68 d8 01 00 00	 push	 472			; 000001d8H
  00021	8b 45 fc	 mov	 eax, DWORD PTR _this$[ebp]
  00024	50		 push	 eax
  00025	e8 00 00 00 00	 call	 ??3@YAXPAXI@Z		; operator delete
  0002a	83 c4 08	 add	 esp, 8
$LN2@scalar:
  0002d	8b 45 fc	 mov	 eax, DWORD PTR _this$[ebp]
  00030	5f		 pop	 edi
  00031	5e		 pop	 esi
  00032	5b		 pop	 ebx
  00033	8b e5		 mov	 esp, ebp
  00035	5d		 pop	 ebp
  00036	c2 04 00	 ret	 4
??_G?$CTempldateHelper@UIDataBaseEngine@@@@UAEPAXI@Z ENDP ; CTempldateHelper<IDataBaseEngine>::`scalar deleting destructor'
_TEXT	ENDS
; Function compile flags: /Odtp /ZI
; File g:\网狐\happygamewh\服务端\系统模块\全局定义\module.h
;	COMDAT ?GetInterface@?$CTempldateHelper@UIDataBaseEngine@@@@QBEPAUIDataBaseEngine@@XZ
_TEXT	SEGMENT
_this$ = -4						; size = 4
?GetInterface@?$CTempldateHelper@UIDataBaseEngine@@@@QBEPAUIDataBaseEngine@@XZ PROC ; CTempldateHelper<IDataBaseEngine>::GetInterface, COMDAT
; _this$ = ecx

; 316  : { 

  00000	55		 push	 ebp
  00001	8b ec		 mov	 ebp, esp
  00003	83 ec 44	 sub	 esp, 68			; 00000044H
  00006	53		 push	 ebx
  00007	56		 push	 esi
  00008	57		 push	 edi
  00009	89 4d fc	 mov	 DWORD PTR _this$[ebp], ecx

; 317  : 	return m_pIModeluInterface; 

  0000c	8b 45 fc	 mov	 eax, DWORD PTR _this$[ebp]
  0000f	8b 80 54 01 00
	00		 mov	 eax, DWORD PTR [eax+340]

; 318  : }

  00015	5f		 pop	 edi
  00016	5e		 pop	 esi
  00017	5b		 pop	 ebx
  00018	8b e5		 mov	 esp, ebp
  0001a	5d		 pop	 ebp
  0001b	c3		 ret	 0
?GetInterface@?$CTempldateHelper@UIDataBaseEngine@@@@QBEPAUIDataBaseEngine@@XZ ENDP ; CTempldateHelper<IDataBaseEngine>::GetInterface
_TEXT	ENDS
; Function compile flags: /Odtp /ZI
; File g:\网狐\happygamewh\服务端\系统模块\全局定义\module.h
;	COMDAT ??C?$CTempldateHelper@UIDataBaseEngine@@@@QBEPAUIDataBaseEngine@@XZ
_TEXT	SEGMENT
_this$ = -4						; size = 4
??C?$CTempldateHelper@UIDataBaseEngine@@@@QBEPAUIDataBaseEngine@@XZ PROC ; CTempldateHelper<IDataBaseEngine>::operator->, COMDAT
; _this$ = ecx

; 309  : { 

  00000	55		 push	 ebp
  00001	8b ec		 mov	 ebp, esp
  00003	83 ec 44	 sub	 esp, 68			; 00000044H
  00006	53		 push	 ebx
  00007	56		 push	 esi
  00008	57		 push	 edi
  00009	89 4d fc	 mov	 DWORD PTR _this$[ebp], ecx

; 310  : 	return GetInterface(); 

  0000c	8b 4d fc	 mov	 ecx, DWORD PTR _this$[ebp]
  0000f	e8 00 00 00 00	 call	 ?GetInterface@?$CTempldateHelper@UIDataBaseEngine@@@@QBEPAUIDataBaseEngine@@XZ ; CTempldateHelper<IDataBaseEngine>::GetInterface

; 311  : }

  00014	5f		 pop	 edi
  00015	5e		 pop	 esi
  00016	5b		 pop	 ebx
  00017	8b e5		 mov	 esp, ebp
  00019	5d		 pop	 ebp
  0001a	c3		 ret	 0
??C?$CTempldateHelper@UIDataBaseEngine@@@@QBEPAUIDataBaseEngine@@XZ ENDP ; CTempldateHelper<IDataBaseEngine>::operator->
_TEXT	ENDS
; Function compile flags: /Odtp /ZI
; File g:\网狐\happygamewh\服务端\系统模块\全局定义\module.h
;	COMDAT ?GetErrorDescribe@?$CTempldateHelper@UIDataBaseEngine@@@@QBEPBDXZ
_TEXT	SEGMENT
_this$ = -4						; size = 4
?GetErrorDescribe@?$CTempldateHelper@UIDataBaseEngine@@@@QBEPBDXZ PROC ; CTempldateHelper<IDataBaseEngine>::GetErrorDescribe, COMDAT
; _this$ = ecx

; 302  : { 

  00000	55		 push	 ebp
  00001	8b ec		 mov	 ebp, esp
  00003	83 ec 44	 sub	 esp, 68			; 00000044H
  00006	53		 push	 ebx
  00007	56		 push	 esi
  00008	57		 push	 edi
  00009	89 4d fc	 mov	 DWORD PTR _this$[ebp], ecx

; 303  : 	return m_szDescribe; 

  0000c	8b 45 fc	 mov	 eax, DWORD PTR _this$[ebp]
  0000f	05 58 01 00 00	 add	 eax, 344		; 00000158H

; 304  : }

  00014	5f		 pop	 edi
  00015	5e		 pop	 esi
  00016	5b		 pop	 ebx
  00017	8b e5		 mov	 esp, ebp
  00019	5d		 pop	 ebp
  0001a	c3		 ret	 0
?GetErrorDescribe@?$CTempldateHelper@UIDataBaseEngine@@@@QBEPBDXZ ENDP ; CTempldateHelper<IDataBaseEngine>::GetErrorDescribe
_TEXT	ENDS
; Function compile flags: /Odtp /ZI
; File g:\网狐\happygamewh\服务端\系统模块\全局定义\module.h
;	COMDAT ?CreateInstance@?$CTempldateHelper@UIDataBaseEngine@@@@QAE_NXZ
_TEXT	SEGMENT
tv173 = -100						; size = 4
tv172 = -100						; size = 4
tv171 = -100						; size = 4
tv170 = -100						; size = 4
$T2 = -94						; size = 1
$T3 = -93						; size = 1
_pszError$4 = -28					; size = 4
_CreateProc$5 = -24					; size = 4
_this$ = -20						; size = 4
__$EHRec$ = -16						; size = 16
?CreateInstance@?$CTempldateHelper@UIDataBaseEngine@@@@QAE_NXZ PROC ; CTempldateHelper<IDataBaseEngine>::CreateInstance, COMDAT
; _this$ = ecx

; 212  : {

  00000	55		 push	 ebp
  00001	8b ec		 mov	 ebp, esp
  00003	6a ff		 push	 -1
  00005	68 00 00 00 00	 push	 __ehhandler$?CreateInstance@?$CTempldateHelper@UIDataBaseEngine@@@@QAE_NXZ
  0000a	64 a1 00 00 00
	00		 mov	 eax, DWORD PTR fs:0
  00010	50		 push	 eax
  00011	51		 push	 ecx
  00012	83 ec 54	 sub	 esp, 84			; 00000054H
  00015	53		 push	 ebx
  00016	56		 push	 esi
  00017	57		 push	 edi
  00018	a1 00 00 00 00	 mov	 eax, DWORD PTR ___security_cookie
  0001d	33 c5		 xor	 eax, ebp
  0001f	50		 push	 eax
  00020	8d 45 f4	 lea	 eax, DWORD PTR __$EHRec$[ebp+4]
  00023	64 a3 00 00 00
	00		 mov	 DWORD PTR fs:0, eax
  00029	89 65 f0	 mov	 DWORD PTR __$EHRec$[ebp], esp
  0002c	89 4d ec	 mov	 DWORD PTR _this$[ebp], ecx

; 213  : 	//释放组件
; 214  : 	CloseInstance();

  0002f	8b 4d ec	 mov	 ecx, DWORD PTR _this$[ebp]
  00032	e8 00 00 00 00	 call	 ?CloseInstance@?$CTempldateHelper@UIDataBaseEngine@@@@QAE_NXZ ; CTempldateHelper<IDataBaseEngine>::CloseInstance

; 215  : 
; 216  : 	//创建组件
; 217  : 	try

  00037	c7 45 fc 00 00
	00 00		 mov	 DWORD PTR __$EHRec$[ebp+12], 0

; 218  : 	{
; 219  : 		//效验参数
; 220  : 		ASSERT(m_szCreateProc[0]!=0);

  0003e	b8 01 00 00 00	 mov	 eax, 1
  00043	6b c8 00	 imul	 ecx, eax, 0
  00046	8b 55 ec	 mov	 edx, DWORD PTR _this$[ebp]
  00049	0f be 44 0a 0c	 movsx	 eax, BYTE PTR [edx+ecx+12]
  0004e	85 c0		 test	 eax, eax
  00050	75 19		 jne	 SHORT $LN7@CreateInst
  00052	68 dc 00 00 00	 push	 220			; 000000dcH
  00057	68 00 00 00 00	 push	 OFFSET ??_C@_0DG@CDIFDKED@g?3?2?M?x?$LK?$PM?2happygamewh?2?$LH?$PO?N?q?$LG?K?2?O?$LF?M?$LD@
  0005c	e8 00 00 00 00	 call	 ?AfxAssertFailedLine@@YGHPBDH@Z ; AfxAssertFailedLine
  00061	89 45 9c	 mov	 DWORD PTR tv170[ebp], eax
  00064	83 7d 9c 00	 cmp	 DWORD PTR tv170[ebp], 0
  00068	74 01		 je	 SHORT $LN7@CreateInst
  0006a	cc		 int	 3
$LN7@CreateInst:

; 221  : 		ASSERT(m_szModuleDllName[0]!=0);

  0006b	b8 01 00 00 00	 mov	 eax, 1
  00070	6b c8 00	 imul	 ecx, eax, 0
  00073	8b 55 ec	 mov	 edx, DWORD PTR _this$[ebp]
  00076	0f be 44 0a 4c	 movsx	 eax, BYTE PTR [edx+ecx+76]
  0007b	85 c0		 test	 eax, eax
  0007d	75 19		 jne	 SHORT $LN8@CreateInst
  0007f	68 dd 00 00 00	 push	 221			; 000000ddH
  00084	68 00 00 00 00	 push	 OFFSET ??_C@_0DG@CDIFDKED@g?3?2?M?x?$LK?$PM?2happygamewh?2?$LH?$PO?N?q?$LG?K?2?O?$LF?M?$LD@
  00089	e8 00 00 00 00	 call	 ?AfxAssertFailedLine@@YGHPBDH@Z ; AfxAssertFailedLine
  0008e	89 45 9c	 mov	 DWORD PTR tv171[ebp], eax
  00091	83 7d 9c 00	 cmp	 DWORD PTR tv171[ebp], 0
  00095	74 01		 je	 SHORT $LN8@CreateInst
  00097	cc		 int	 3
$LN8@CreateInst:

; 222  : 
; 223  : 		//加载模块
; 224  : 		m_hDllInstance=AfxLoadLibrary(m_szModuleDllName);

  00098	8b 45 ec	 mov	 eax, DWORD PTR _this$[ebp]
  0009b	83 c0 4c	 add	 eax, 76			; 0000004cH
  0009e	50		 push	 eax
  0009f	e8 00 00 00 00	 call	 ?AfxLoadLibrary@@YGPAUHINSTANCE__@@PBD@Z ; AfxLoadLibrary
  000a4	89 45 9c	 mov	 DWORD PTR tv172[ebp], eax
  000a7	8b 4d ec	 mov	 ecx, DWORD PTR _this$[ebp]
  000aa	8b 55 9c	 mov	 edx, DWORD PTR tv172[ebp]
  000ad	89 91 50 01 00
	00		 mov	 DWORD PTR [ecx+336], edx

; 225  : 		if (m_hDllInstance==NULL) 

  000b3	8b 45 ec	 mov	 eax, DWORD PTR _this$[ebp]
  000b6	83 b8 50 01 00
	00 00		 cmp	 DWORD PTR [eax+336], 0
  000bd	75 2a		 jne	 SHORT $LN3@CreateInst

; 226  : 		{
; 227  : 			_sntprintf_s(m_szDescribe,CountArray(m_szDescribe),TEXT("“%s”模块加载失败"),m_szModuleDllName);

  000bf	8b 45 ec	 mov	 eax, DWORD PTR _this$[ebp]
  000c2	83 c0 4c	 add	 eax, 76			; 0000004cH
  000c5	50		 push	 eax
  000c6	68 00 00 00 00	 push	 OFFSET ??_C@_0BD@LMOFNGMO@?$KB?$LA?$CFs?$KB?$LB?D?$KD?$LP?i?$LM?S?T?X?J?$KH?$LA?$NM@
  000cb	68 80 00 00 00	 push	 128			; 00000080H
  000d0	8b 4d ec	 mov	 ecx, DWORD PTR _this$[ebp]
  000d3	81 c1 58 01 00
	00		 add	 ecx, 344		; 00000158H
  000d9	51		 push	 ecx
  000da	e8 00 00 00 00	 call	 ??$_snprintf_s@$0IA@@@YAHAAY0IA@DIPBDZZ ; _snprintf_s<128>
  000df	83 c4 10	 add	 esp, 16			; 00000010H

; 228  : 			return false;

  000e2	32 c0		 xor	 al, al
  000e4	e9 34 01 00 00	 jmp	 $LN1@CreateInst
$LN3@CreateInst:

; 229  : 		}
; 230  : 
; 231  : 		//寻找函数
; 232  : 		ModuleCreateProc * CreateProc=(ModuleCreateProc *)GetProcAddress(m_hDllInstance,m_szCreateProc);

  000e9	8b 45 ec	 mov	 eax, DWORD PTR _this$[ebp]
  000ec	83 c0 0c	 add	 eax, 12			; 0000000cH
  000ef	50		 push	 eax
  000f0	8b 4d ec	 mov	 ecx, DWORD PTR _this$[ebp]
  000f3	8b 91 50 01 00
	00		 mov	 edx, DWORD PTR [ecx+336]
  000f9	52		 push	 edx
  000fa	ff 15 00 00 00
	00		 call	 DWORD PTR __imp__GetProcAddress@8
  00100	89 45 e8	 mov	 DWORD PTR _CreateProc$5[ebp], eax

; 233  : 		if (CreateProc==NULL) 

  00103	83 7d e8 00	 cmp	 DWORD PTR _CreateProc$5[ebp], 0
  00107	75 31		 jne	 SHORT $LN4@CreateInst

; 234  : 		{		
; 235  : 			_sntprintf_s(m_szDescribe, CountArray(m_szDescribe), TEXT("找不到组件创建函数“%s”:%d"), m_szCreateProc, GetLastError());

  00109	ff 15 00 00 00
	00		 call	 DWORD PTR __imp__GetLastError@0
  0010f	50		 push	 eax
  00110	8b 45 ec	 mov	 eax, DWORD PTR _this$[ebp]
  00113	83 c0 0c	 add	 eax, 12			; 0000000cH
  00116	50		 push	 eax
  00117	68 00 00 00 00	 push	 OFFSET ??_C@_0BM@PEGNCJOH@?U?R?$LC?$LL?$LF?$LN?W?i?$LM?$PO?$LE?$LE?$LN?$KI?$LK?$KP?J?$PN?$KB?$LA?$CFs?$KB?$LB?3?$CFd@
  0011c	68 80 00 00 00	 push	 128			; 00000080H
  00121	8b 4d ec	 mov	 ecx, DWORD PTR _this$[ebp]
  00124	81 c1 58 01 00
	00		 add	 ecx, 344		; 00000158H
  0012a	51		 push	 ecx
  0012b	e8 00 00 00 00	 call	 ??$_snprintf_s@$0IA@@@YAHAAY0IA@DIPBDZZ ; _snprintf_s<128>
  00130	83 c4 14	 add	 esp, 20			; 00000014H

; 236  : 			return false;

  00133	32 c0		 xor	 al, al
  00135	e9 e3 00 00 00	 jmp	 $LN1@CreateInst
$LN4@CreateInst:

; 237  : 		}
; 238  : 
; 239  : 		//创建组件
; 240  : 		m_pIModeluInterface=(IModeluInterface *)CreateProc(m_Guid,m_dwVersion);

  0013a	8b 45 ec	 mov	 eax, DWORD PTR _this$[ebp]
  0013d	8b 48 08	 mov	 ecx, DWORD PTR [eax+8]
  00140	51		 push	 ecx
  00141	8b 55 ec	 mov	 edx, DWORD PTR _this$[ebp]
  00144	8b 42 04	 mov	 eax, DWORD PTR [edx+4]
  00147	50		 push	 eax
  00148	ff 55 e8	 call	 DWORD PTR _CreateProc$5[ebp]
  0014b	83 c4 08	 add	 esp, 8
  0014e	89 45 9c	 mov	 DWORD PTR tv173[ebp], eax
  00151	8b 4d ec	 mov	 ecx, DWORD PTR _this$[ebp]
  00154	8b 55 9c	 mov	 edx, DWORD PTR tv173[ebp]
  00157	89 91 54 01 00
	00		 mov	 DWORD PTR [ecx+340], edx

; 241  : 		if (m_pIModeluInterface==NULL) 

  0015d	8b 45 ec	 mov	 eax, DWORD PTR _this$[ebp]
  00160	83 b8 54 01 00
	00 00		 cmp	 DWORD PTR [eax+340], 0
  00167	75 2a		 jne	 SHORT $LN5@CreateInst

; 242  : 		{
; 243  : 			_sntprintf_s(m_szDescribe,CountArray(m_szDescribe),TEXT("调用函数“%s”生成对象失败"),m_szCreateProc);

  00169	8b 45 ec	 mov	 eax, DWORD PTR _this$[ebp]
  0016c	83 c0 0c	 add	 eax, 12			; 0000000cH
  0016f	50		 push	 eax
  00170	68 00 00 00 00	 push	 OFFSET ??_C@_0BL@PDAODLKM@?$LF?w?S?C?$LK?$KP?J?$PN?$KB?$LA?$CFs?$KB?$LB?I?z?$LD?I?$LG?T?O?s?J?$KH?$LA?$NM@
  00175	68 80 00 00 00	 push	 128			; 00000080H
  0017a	8b 4d ec	 mov	 ecx, DWORD PTR _this$[ebp]
  0017d	81 c1 58 01 00
	00		 add	 ecx, 344		; 00000158H
  00183	51		 push	 ecx
  00184	e8 00 00 00 00	 call	 ??$_snprintf_s@$0IA@@@YAHAAY0IA@DIPBDZZ ; _snprintf_s<128>
  00189	83 c4 10	 add	 esp, 16			; 00000010H

; 244  : 			return false;

  0018c	32 c0		 xor	 al, al
  0018e	e9 8a 00 00 00	 jmp	 $LN1@CreateInst
$LN5@CreateInst:

; 245  : 		}
; 246  : 	}

  00193	eb 63		 jmp	 SHORT $LN9@CreateInst
__catch$?CreateInstance@?$CTempldateHelper@UIDataBaseEngine@@@@QAE_NXZ$0:

; 247  : 	catch (LPCTSTR pszError)
; 248  : 	{
; 249  : 		_sntprintf_s(m_szDescribe,CountArray(m_szDescribe),TEXT("由于“%s”，组件创建失败"),pszError);

  00195	8b 45 e4	 mov	 eax, DWORD PTR _pszError$4[ebp]
  00198	50		 push	 eax
  00199	68 00 00 00 00	 push	 OFFSET ??_C@_0BJ@JGPFHIJF@?S?I?S?Z?$KB?$LA?$CFs?$KB?$LB?$KD?$KM?W?i?$LM?$PO?$LE?$LE?$LN?$KI?J?$KH?$LA?$NM@
  0019e	68 80 00 00 00	 push	 128			; 00000080H
  001a3	8b 4d ec	 mov	 ecx, DWORD PTR _this$[ebp]
  001a6	81 c1 58 01 00
	00		 add	 ecx, 344		; 00000158H
  001ac	51		 push	 ecx
  001ad	e8 00 00 00 00	 call	 ??$_snprintf_s@$0IA@@@YAHAAY0IA@DIPBDZZ ; _snprintf_s<128>
  001b2	83 c4 10	 add	 esp, 16			; 00000010H

; 250  : 		return false;

  001b5	c6 45 a3 00	 mov	 BYTE PTR $T3[ebp], 0
  001b9	b8 00 00 00 00	 mov	 eax, $LN13@CreateInst
  001be	c3		 ret	 0

; 251  : 	}

  001bf	b8 00 00 00 00	 mov	 eax, $LN9@CreateInst
  001c4	c3		 ret	 0
__catch$?CreateInstance@?$CTempldateHelper@UIDataBaseEngine@@@@QAE_NXZ$1:

; 252  : 	catch (...)	
; 253  : 	{ 
; 254  : 		_sntprintf_s(m_szDescribe,CountArray(m_szDescribe),TEXT("组件创建函数“%s”产生未知异常错误，组件创建失败"),m_szCreateProc);

  001c5	8b 45 ec	 mov	 eax, DWORD PTR _this$[ebp]
  001c8	83 c0 0c	 add	 eax, 12			; 0000000cH
  001cb	50		 push	 eax
  001cc	68 00 00 00 00	 push	 OFFSET ??_C@_0DB@JBNKENAJ@?W?i?$LM?$PO?$LE?$LE?$LN?$KI?$LK?$KP?J?$PN?$KB?$LA?$CFs?$KB?$LB?$LC?z?I?z?N?$LE?V?$KK?R?l?$LD?$KD?$LE@
  001d1	68 80 00 00 00	 push	 128			; 00000080H
  001d6	8b 4d ec	 mov	 ecx, DWORD PTR _this$[ebp]
  001d9	81 c1 58 01 00
	00		 add	 ecx, 344		; 00000158H
  001df	51		 push	 ecx
  001e0	e8 00 00 00 00	 call	 ??$_snprintf_s@$0IA@@@YAHAAY0IA@DIPBDZZ ; _snprintf_s<128>
  001e5	83 c4 10	 add	 esp, 16			; 00000010H

; 255  : 		return false;

  001e8	c6 45 a2 00	 mov	 BYTE PTR $T2[ebp], 0
  001ec	b8 00 00 00 00	 mov	 eax, $LN15@CreateInst
  001f1	c3		 ret	 0

; 256  : 	}

  001f2	b8 00 00 00 00	 mov	 eax, $LN9@CreateInst
  001f7	c3		 ret	 0
$LN9@CreateInst:
  001f8	c7 45 fc ff ff
	ff ff		 mov	 DWORD PTR __$EHRec$[ebp+12], -1
  001ff	eb 0c		 jmp	 SHORT $LN14@CreateInst
$LN15@CreateInst:
  00201	c7 45 fc ff ff
	ff ff		 mov	 DWORD PTR __$EHRec$[ebp+12], -1

; 255  : 		return false;

  00208	8a 45 a2	 mov	 al, BYTE PTR $T2[ebp]
  0020b	eb 10		 jmp	 SHORT $LN1@CreateInst
$LN14@CreateInst:
  0020d	eb 0c		 jmp	 SHORT $LN12@CreateInst
$LN13@CreateInst:
  0020f	c7 45 fc ff ff
	ff ff		 mov	 DWORD PTR __$EHRec$[ebp+12], -1

; 250  : 		return false;

  00216	8a 45 a3	 mov	 al, BYTE PTR $T3[ebp]
  00219	eb 02		 jmp	 SHORT $LN1@CreateInst
$LN12@CreateInst:

; 257  : 
; 258  : 	return true;

  0021b	b0 01		 mov	 al, 1
$LN1@CreateInst:

; 259  : }

  0021d	8b 4d f4	 mov	 ecx, DWORD PTR __$EHRec$[ebp+4]
  00220	64 89 0d 00 00
	00 00		 mov	 DWORD PTR fs:0, ecx
  00227	59		 pop	 ecx
  00228	5f		 pop	 edi
  00229	5e		 pop	 esi
  0022a	5b		 pop	 ebx
  0022b	8b e5		 mov	 esp, ebp
  0022d	5d		 pop	 ebp
  0022e	c3		 ret	 0
_TEXT	ENDS
;	COMDAT text$x
text$x	SEGMENT
__ehhandler$?CreateInstance@?$CTempldateHelper@UIDataBaseEngine@@@@QAE_NXZ:
  00000	8b 54 24 08	 mov	 edx, DWORD PTR [esp+8]
  00004	8d 42 0c	 lea	 eax, DWORD PTR [edx+12]
  00007	8b 4a 98	 mov	 ecx, DWORD PTR [edx-104]
  0000a	33 c8		 xor	 ecx, eax
  0000c	e8 00 00 00 00	 call	 @__security_check_cookie@4
  00011	b8 00 00 00 00	 mov	 eax, OFFSET __ehfuncinfo$?CreateInstance@?$CTempldateHelper@UIDataBaseEngine@@@@QAE_NXZ
  00016	e9 00 00 00 00	 jmp	 ___CxxFrameHandler3
text$x	ENDS
?CreateInstance@?$CTempldateHelper@UIDataBaseEngine@@@@QAE_NXZ ENDP ; CTempldateHelper<IDataBaseEngine>::CreateInstance
; Function compile flags: /Odtp /ZI
; File g:\网狐\happygamewh\服务端\系统模块\全局定义\module.h
;	COMDAT ?CloseInstance@?$CTempldateHelper@UIDataBaseEngine@@@@QAE_NXZ
_TEXT	SEGMENT
_this$ = -4						; size = 4
?CloseInstance@?$CTempldateHelper@UIDataBaseEngine@@@@QAE_NXZ PROC ; CTempldateHelper<IDataBaseEngine>::CloseInstance, COMDAT
; _this$ = ecx

; 264  : {

  00000	55		 push	 ebp
  00001	8b ec		 mov	 ebp, esp
  00003	83 ec 44	 sub	 esp, 68			; 00000044H
  00006	53		 push	 ebx
  00007	56		 push	 esi
  00008	57		 push	 edi
  00009	89 4d fc	 mov	 DWORD PTR _this$[ebp], ecx

; 265  : 	//设置变量
; 266  : 	m_szDescribe[0]=0;

  0000c	b8 01 00 00 00	 mov	 eax, 1
  00011	6b c8 00	 imul	 ecx, eax, 0
  00014	8b 55 fc	 mov	 edx, DWORD PTR _this$[ebp]
  00017	c6 84 0a 58 01
	00 00 00	 mov	 BYTE PTR [edx+ecx+344], 0

; 267  : 
; 268  : 	//销毁对象
; 269  : 	if (m_pIModeluInterface!=NULL)

  0001f	8b 45 fc	 mov	 eax, DWORD PTR _this$[ebp]
  00022	83 b8 54 01 00
	00 00		 cmp	 DWORD PTR [eax+340], 0
  00029	74 25		 je	 SHORT $LN2@CloseInsta

; 270  : 	{
; 271  : 		m_pIModeluInterface->Release();

  0002b	8b 45 fc	 mov	 eax, DWORD PTR _this$[ebp]
  0002e	8b 88 54 01 00
	00		 mov	 ecx, DWORD PTR [eax+340]
  00034	8b 55 fc	 mov	 edx, DWORD PTR _this$[ebp]
  00037	8b 01		 mov	 eax, DWORD PTR [ecx]
  00039	8b 8a 54 01 00
	00		 mov	 ecx, DWORD PTR [edx+340]
  0003f	8b 10		 mov	 edx, DWORD PTR [eax]
  00041	ff d2		 call	 edx

; 272  : 		m_pIModeluInterface=NULL;

  00043	8b 45 fc	 mov	 eax, DWORD PTR _this$[ebp]
  00046	c7 80 54 01 00
	00 00 00 00 00	 mov	 DWORD PTR [eax+340], 0
$LN2@CloseInsta:

; 273  : 	}
; 274  : 
; 275  : 	//释放 DLL
; 276  : 	if (m_hDllInstance!=NULL)

  00050	8b 45 fc	 mov	 eax, DWORD PTR _this$[ebp]
  00053	83 b8 50 01 00
	00 00		 cmp	 DWORD PTR [eax+336], 0
  0005a	74 1c		 je	 SHORT $LN3@CloseInsta

; 277  : 	{
; 278  : 		AfxFreeLibrary(m_hDllInstance);

  0005c	8b 45 fc	 mov	 eax, DWORD PTR _this$[ebp]
  0005f	8b 88 50 01 00
	00		 mov	 ecx, DWORD PTR [eax+336]
  00065	51		 push	 ecx
  00066	e8 00 00 00 00	 call	 ?AfxFreeLibrary@@YGHPAUHINSTANCE__@@@Z ; AfxFreeLibrary

; 279  : 		m_hDllInstance=NULL;

  0006b	8b 45 fc	 mov	 eax, DWORD PTR _this$[ebp]
  0006e	c7 80 50 01 00
	00 00 00 00 00	 mov	 DWORD PTR [eax+336], 0
$LN3@CloseInsta:

; 280  : 	}
; 281  : 
; 282  : 	return true;

  00078	b0 01		 mov	 al, 1

; 283  : }

  0007a	5f		 pop	 edi
  0007b	5e		 pop	 esi
  0007c	5b		 pop	 ebx
  0007d	8b e5		 mov	 esp, ebp
  0007f	5d		 pop	 ebp
  00080	c3		 ret	 0
?CloseInstance@?$CTempldateHelper@UIDataBaseEngine@@@@QAE_NXZ ENDP ; CTempldateHelper<IDataBaseEngine>::CloseInstance
_TEXT	ENDS
; Function compile flags: /Odtp /ZI
; File g:\网狐\happygamewh\服务端\系统模块\全局定义\module.h
;	COMDAT ??1?$CTempldateHelper@UIDataBaseEngine@@@@UAE@XZ
_TEXT	SEGMENT
_this$ = -16						; size = 4
__$EHRec$ = -12						; size = 12
??1?$CTempldateHelper@UIDataBaseEngine@@@@UAE@XZ PROC	; CTempldateHelper<IDataBaseEngine>::~CTempldateHelper<IDataBaseEngine>, COMDAT
; _this$ = ecx

; 205  : {

  00000	55		 push	 ebp
  00001	8b ec		 mov	 ebp, esp
  00003	6a ff		 push	 -1
  00005	68 00 00 00 00	 push	 __ehhandler$??1?$CTempldateHelper@UIDataBaseEngine@@@@UAE@XZ
  0000a	64 a1 00 00 00
	00		 mov	 eax, DWORD PTR fs:0
  00010	50		 push	 eax
  00011	83 ec 44	 sub	 esp, 68			; 00000044H
  00014	53		 push	 ebx
  00015	56		 push	 esi
  00016	57		 push	 edi
  00017	a1 00 00 00 00	 mov	 eax, DWORD PTR ___security_cookie
  0001c	33 c5		 xor	 eax, ebp
  0001e	50		 push	 eax
  0001f	8d 45 f4	 lea	 eax, DWORD PTR __$EHRec$[ebp]
  00022	64 a3 00 00 00
	00		 mov	 DWORD PTR fs:0, eax
  00028	89 4d f0	 mov	 DWORD PTR _this$[ebp], ecx
  0002b	8b 45 f0	 mov	 eax, DWORD PTR _this$[ebp]
  0002e	c7 00 00 00 00
	00		 mov	 DWORD PTR [eax], OFFSET ??_7?$CTempldateHelper@UIDataBaseEngine@@@@6B@

; 206  : 	CloseInstance();

  00034	8b 4d f0	 mov	 ecx, DWORD PTR _this$[ebp]
  00037	e8 00 00 00 00	 call	 ?CloseInstance@?$CTempldateHelper@UIDataBaseEngine@@@@QAE_NXZ ; CTempldateHelper<IDataBaseEngine>::CloseInstance

; 207  : }

  0003c	8b 4d f4	 mov	 ecx, DWORD PTR __$EHRec$[ebp]
  0003f	64 89 0d 00 00
	00 00		 mov	 DWORD PTR fs:0, ecx
  00046	59		 pop	 ecx
  00047	5f		 pop	 edi
  00048	5e		 pop	 esi
  00049	5b		 pop	 ebx
  0004a	8b e5		 mov	 esp, ebp
  0004c	5d		 pop	 ebp
  0004d	c3		 ret	 0
_TEXT	ENDS
;	COMDAT text$x
text$x	SEGMENT
__ehhandler$??1?$CTempldateHelper@UIDataBaseEngine@@@@UAE@XZ:
  00000	8b 54 24 08	 mov	 edx, DWORD PTR [esp+8]
  00004	8d 42 0c	 lea	 eax, DWORD PTR [edx+12]
  00007	8b 4a ac	 mov	 ecx, DWORD PTR [edx-84]
  0000a	33 c8		 xor	 ecx, eax
  0000c	e8 00 00 00 00	 call	 @__security_check_cookie@4
  00011	b8 00 00 00 00	 mov	 eax, OFFSET __ehfuncinfo$??1?$CTempldateHelper@UIDataBaseEngine@@@@UAE@XZ
  00016	e9 00 00 00 00	 jmp	 ___CxxFrameHandler3
text$x	ENDS
??1?$CTempldateHelper@UIDataBaseEngine@@@@UAE@XZ ENDP	; CTempldateHelper<IDataBaseEngine>::~CTempldateHelper<IDataBaseEngine>
; Function compile flags: /Odtp /ZI
; File g:\网狐\happygamewh\服务端\系统模块\全局定义\module.h
;	COMDAT ??0?$CTempldateHelper@UIDataBaseEngine@@@@QAE@ABU_GUID@@KPBD1@Z
_TEXT	SEGMENT
_this$ = -4						; size = 4
_Guid$ = 8						; size = 4
_dwVersion$ = 12					; size = 4
_pszModuleDll$ = 16					; size = 4
_pszCreateProc$ = 20					; size = 4
??0?$CTempldateHelper@UIDataBaseEngine@@@@QAE@ABU_GUID@@KPBD1@Z PROC ; CTempldateHelper<IDataBaseEngine>::CTempldateHelper<IDataBaseEngine>, COMDAT
; _this$ = ecx

; 187  : {

  00000	55		 push	 ebp
  00001	8b ec		 mov	 ebp, esp
  00003	83 ec 44	 sub	 esp, 68			; 00000044H
  00006	53		 push	 ebx
  00007	56		 push	 esi
  00008	57		 push	 edi
  00009	89 4d fc	 mov	 DWORD PTR _this$[ebp], ecx
  0000c	8b 45 fc	 mov	 eax, DWORD PTR _this$[ebp]
  0000f	c7 00 00 00 00
	00		 mov	 DWORD PTR [eax], OFFSET ??_7?$CTempldateHelper@UIDataBaseEngine@@@@6B@

; 186  : CTempldateHelper<IModeluInterface>::CTempldateHelper(REFGUID Guid, DWORD dwVersion, LPCTSTR pszModuleDll, LPCSTR pszCreateProc) : m_dwVersion(dwVersion), m_Guid(Guid)

  00015	8b 45 fc	 mov	 eax, DWORD PTR _this$[ebp]
  00018	8b 4d 08	 mov	 ecx, DWORD PTR _Guid$[ebp]
  0001b	89 48 04	 mov	 DWORD PTR [eax+4], ecx
  0001e	8b 45 fc	 mov	 eax, DWORD PTR _this$[ebp]
  00021	8b 4d 0c	 mov	 ecx, DWORD PTR _dwVersion$[ebp]
  00024	89 48 08	 mov	 DWORD PTR [eax+8], ecx

; 188  : 	//辅助变量
; 189  : 	m_szDescribe[0]=0;

  00027	b8 01 00 00 00	 mov	 eax, 1
  0002c	6b c8 00	 imul	 ecx, eax, 0
  0002f	8b 55 fc	 mov	 edx, DWORD PTR _this$[ebp]
  00032	c6 84 0a 58 01
	00 00 00	 mov	 BYTE PTR [edx+ecx+344], 0

; 190  : 
; 191  : 	//内核信息
; 192  : 	m_hDllInstance=NULL;

  0003a	8b 45 fc	 mov	 eax, DWORD PTR _this$[ebp]
  0003d	c7 80 50 01 00
	00 00 00 00 00	 mov	 DWORD PTR [eax+336], 0

; 193  : 	m_pIModeluInterface=NULL;

  00047	8b 45 fc	 mov	 eax, DWORD PTR _this$[ebp]
  0004a	c7 80 54 01 00
	00 00 00 00 00	 mov	 DWORD PTR [eax+340], 0

; 194  : 
; 195  : 	//组件属性
; 196  : 	lstrcpynA(m_szCreateProc,pszCreateProc,CountArray(m_szCreateProc));

  00054	6a 40		 push	 64			; 00000040H
  00056	8b 45 14	 mov	 eax, DWORD PTR _pszCreateProc$[ebp]
  00059	50		 push	 eax
  0005a	8b 4d fc	 mov	 ecx, DWORD PTR _this$[ebp]
  0005d	83 c1 0c	 add	 ecx, 12			; 0000000cH
  00060	51		 push	 ecx
  00061	ff 15 00 00 00
	00		 call	 DWORD PTR __imp__lstrcpynA@12

; 197  : 	lstrcpyn(m_szModuleDllName,pszModuleDll,CountArray(m_szModuleDllName));

  00067	68 04 01 00 00	 push	 260			; 00000104H
  0006c	8b 45 10	 mov	 eax, DWORD PTR _pszModuleDll$[ebp]
  0006f	50		 push	 eax
  00070	8b 4d fc	 mov	 ecx, DWORD PTR _this$[ebp]
  00073	83 c1 4c	 add	 ecx, 76			; 0000004cH
  00076	51		 push	 ecx
  00077	ff 15 00 00 00
	00		 call	 DWORD PTR __imp__lstrcpynA@12

; 198  : 
; 199  : 	return;
; 200  : }

  0007d	8b 45 fc	 mov	 eax, DWORD PTR _this$[ebp]
  00080	5f		 pop	 edi
  00081	5e		 pop	 esi
  00082	5b		 pop	 ebx
  00083	8b e5		 mov	 esp, ebp
  00085	5d		 pop	 ebp
  00086	c2 10 00	 ret	 16			; 00000010H
??0?$CTempldateHelper@UIDataBaseEngine@@@@QAE@ABU_GUID@@KPBD1@Z ENDP ; CTempldateHelper<IDataBaseEngine>::CTempldateHelper<IDataBaseEngine>
_TEXT	ENDS
; Function compile flags: /Odtp /ZI
;	COMDAT ??_GCTimerEngineHelper@@UAEPAXI@Z
_TEXT	SEGMENT
_this$ = -4						; size = 4
___flags$ = 8						; size = 4
??_GCTimerEngineHelper@@UAEPAXI@Z PROC			; CTimerEngineHelper::`scalar deleting destructor', COMDAT
; _this$ = ecx
  00000	55		 push	 ebp
  00001	8b ec		 mov	 ebp, esp
  00003	83 ec 44	 sub	 esp, 68			; 00000044H
  00006	53		 push	 ebx
  00007	56		 push	 esi
  00008	57		 push	 edi
  00009	89 4d fc	 mov	 DWORD PTR _this$[ebp], ecx
  0000c	8b 4d fc	 mov	 ecx, DWORD PTR _this$[ebp]
  0000f	e8 00 00 00 00	 call	 ??1CTimerEngineHelper@@UAE@XZ
  00014	8b 45 08	 mov	 eax, DWORD PTR ___flags$[ebp]
  00017	83 e0 01	 and	 eax, 1
  0001a	74 11		 je	 SHORT $LN2@scalar
  0001c	68 d8 01 00 00	 push	 472			; 000001d8H
  00021	8b 45 fc	 mov	 eax, DWORD PTR _this$[ebp]
  00024	50		 push	 eax
  00025	e8 00 00 00 00	 call	 ??3@YAXPAXI@Z		; operator delete
  0002a	83 c4 08	 add	 esp, 8
$LN2@scalar:
  0002d	8b 45 fc	 mov	 eax, DWORD PTR _this$[ebp]
  00030	5f		 pop	 edi
  00031	5e		 pop	 esi
  00032	5b		 pop	 ebx
  00033	8b e5		 mov	 esp, ebp
  00035	5d		 pop	 ebp
  00036	c2 04 00	 ret	 4
??_GCTimerEngineHelper@@UAEPAXI@Z ENDP			; CTimerEngineHelper::`scalar deleting destructor'
_TEXT	ENDS
; Function compile flags: /Odtp /ZI
;	COMDAT ??1CTimerEngineHelper@@UAE@XZ
_TEXT	SEGMENT
_this$ = -4						; size = 4
??1CTimerEngineHelper@@UAE@XZ PROC			; CTimerEngineHelper::~CTimerEngineHelper, COMDAT
; _this$ = ecx
  00000	55		 push	 ebp
  00001	8b ec		 mov	 ebp, esp
  00003	83 ec 44	 sub	 esp, 68			; 00000044H
  00006	53		 push	 ebx
  00007	56		 push	 esi
  00008	57		 push	 edi
  00009	89 4d fc	 mov	 DWORD PTR _this$[ebp], ecx
  0000c	8b 4d fc	 mov	 ecx, DWORD PTR _this$[ebp]
  0000f	e8 00 00 00 00	 call	 ??1?$CTempldateHelper@UITimerEngine@@@@UAE@XZ ; CTempldateHelper<ITimerEngine>::~CTempldateHelper<ITimerEngine>
  00014	5f		 pop	 edi
  00015	5e		 pop	 esi
  00016	5b		 pop	 ebx
  00017	8b e5		 mov	 esp, ebp
  00019	5d		 pop	 ebp
  0001a	c3		 ret	 0
??1CTimerEngineHelper@@UAE@XZ ENDP			; CTimerEngineHelper::~CTimerEngineHelper
_TEXT	ENDS
; Function compile flags: /Odtp /ZI
; File g:\网狐\happygamewh\服务端\系统模块\服务器组件\内核引擎\kernelenginehead.h
;	COMDAT ??0CTimerEngineHelper@@QAE@XZ
_TEXT	SEGMENT
_this$ = -4						; size = 4
??0CTimerEngineHelper@@QAE@XZ PROC			; CTimerEngineHelper::CTimerEngineHelper, COMDAT
; _this$ = ecx

; 843  : DECLARE_MODULE_HELPER(TimerEngine, KERNEL_ENGINE_DLL_NAME, "CreateTimerEngine")

  00000	55		 push	 ebp
  00001	8b ec		 mov	 ebp, esp
  00003	83 ec 44	 sub	 esp, 68			; 00000044H
  00006	53		 push	 ebx
  00007	56		 push	 esi
  00008	57		 push	 edi
  00009	89 4d fc	 mov	 DWORD PTR _this$[ebp], ecx
  0000c	68 00 00 00 00	 push	 OFFSET ??_C@_0BC@PLOLBCGN@CreateTimerEngine@
  00011	68 00 00 00 00	 push	 OFFSET ??_C@_0BB@BEMLEOHB@KernelEngine?4dll@
  00016	68 00 01 01 06	 push	 100729088		; 06010100H
  0001b	68 00 00 00 00	 push	 OFFSET ?IID_ITimerEngine@@3U_GUID@@B
  00020	8b 4d fc	 mov	 ecx, DWORD PTR _this$[ebp]
  00023	e8 00 00 00 00	 call	 ??0?$CTempldateHelper@UITimerEngine@@@@QAE@ABU_GUID@@KPBD1@Z ; CTempldateHelper<ITimerEngine>::CTempldateHelper<ITimerEngine>
  00028	8b 45 fc	 mov	 eax, DWORD PTR _this$[ebp]
  0002b	c7 00 00 00 00
	00		 mov	 DWORD PTR [eax], OFFSET ??_7CTimerEngineHelper@@6B@
  00031	8b 45 fc	 mov	 eax, DWORD PTR _this$[ebp]
  00034	5f		 pop	 edi
  00035	5e		 pop	 esi
  00036	5b		 pop	 ebx
  00037	8b e5		 mov	 esp, ebp
  00039	5d		 pop	 ebp
  0003a	c3		 ret	 0
??0CTimerEngineHelper@@QAE@XZ ENDP			; CTimerEngineHelper::CTimerEngineHelper
_TEXT	ENDS
; Function compile flags: /Odtp /ZI
;	COMDAT ??_G?$CTempldateHelper@UITimerEngine@@@@UAEPAXI@Z
_TEXT	SEGMENT
_this$ = -4						; size = 4
___flags$ = 8						; size = 4
??_G?$CTempldateHelper@UITimerEngine@@@@UAEPAXI@Z PROC	; CTempldateHelper<ITimerEngine>::`scalar deleting destructor', COMDAT
; _this$ = ecx
  00000	55		 push	 ebp
  00001	8b ec		 mov	 ebp, esp
  00003	83 ec 44	 sub	 esp, 68			; 00000044H
  00006	53		 push	 ebx
  00007	56		 push	 esi
  00008	57		 push	 edi
  00009	89 4d fc	 mov	 DWORD PTR _this$[ebp], ecx
  0000c	8b 4d fc	 mov	 ecx, DWORD PTR _this$[ebp]
  0000f	e8 00 00 00 00	 call	 ??1?$CTempldateHelper@UITimerEngine@@@@UAE@XZ ; CTempldateHelper<ITimerEngine>::~CTempldateHelper<ITimerEngine>
  00014	8b 45 08	 mov	 eax, DWORD PTR ___flags$[ebp]
  00017	83 e0 01	 and	 eax, 1
  0001a	74 11		 je	 SHORT $LN2@scalar
  0001c	68 d8 01 00 00	 push	 472			; 000001d8H
  00021	8b 45 fc	 mov	 eax, DWORD PTR _this$[ebp]
  00024	50		 push	 eax
  00025	e8 00 00 00 00	 call	 ??3@YAXPAXI@Z		; operator delete
  0002a	83 c4 08	 add	 esp, 8
$LN2@scalar:
  0002d	8b 45 fc	 mov	 eax, DWORD PTR _this$[ebp]
  00030	5f		 pop	 edi
  00031	5e		 pop	 esi
  00032	5b		 pop	 ebx
  00033	8b e5		 mov	 esp, ebp
  00035	5d		 pop	 ebp
  00036	c2 04 00	 ret	 4
??_G?$CTempldateHelper@UITimerEngine@@@@UAEPAXI@Z ENDP	; CTempldateHelper<ITimerEngine>::`scalar deleting destructor'
_TEXT	ENDS
; Function compile flags: /Odtp /ZI
; File g:\网狐\happygamewh\服务端\系统模块\全局定义\module.h
;	COMDAT ?GetInterface@?$CTempldateHelper@UITimerEngine@@@@QBEPAUITimerEngine@@XZ
_TEXT	SEGMENT
_this$ = -4						; size = 4
?GetInterface@?$CTempldateHelper@UITimerEngine@@@@QBEPAUITimerEngine@@XZ PROC ; CTempldateHelper<ITimerEngine>::GetInterface, COMDAT
; _this$ = ecx

; 316  : { 

  00000	55		 push	 ebp
  00001	8b ec		 mov	 ebp, esp
  00003	83 ec 44	 sub	 esp, 68			; 00000044H
  00006	53		 push	 ebx
  00007	56		 push	 esi
  00008	57		 push	 edi
  00009	89 4d fc	 mov	 DWORD PTR _this$[ebp], ecx

; 317  : 	return m_pIModeluInterface; 

  0000c	8b 45 fc	 mov	 eax, DWORD PTR _this$[ebp]
  0000f	8b 80 54 01 00
	00		 mov	 eax, DWORD PTR [eax+340]

; 318  : }

  00015	5f		 pop	 edi
  00016	5e		 pop	 esi
  00017	5b		 pop	 ebx
  00018	8b e5		 mov	 esp, ebp
  0001a	5d		 pop	 ebp
  0001b	c3		 ret	 0
?GetInterface@?$CTempldateHelper@UITimerEngine@@@@QBEPAUITimerEngine@@XZ ENDP ; CTempldateHelper<ITimerEngine>::GetInterface
_TEXT	ENDS
; Function compile flags: /Odtp /ZI
; File g:\网狐\happygamewh\服务端\系统模块\全局定义\module.h
;	COMDAT ??C?$CTempldateHelper@UITimerEngine@@@@QBEPAUITimerEngine@@XZ
_TEXT	SEGMENT
_this$ = -4						; size = 4
??C?$CTempldateHelper@UITimerEngine@@@@QBEPAUITimerEngine@@XZ PROC ; CTempldateHelper<ITimerEngine>::operator->, COMDAT
; _this$ = ecx

; 309  : { 

  00000	55		 push	 ebp
  00001	8b ec		 mov	 ebp, esp
  00003	83 ec 44	 sub	 esp, 68			; 00000044H
  00006	53		 push	 ebx
  00007	56		 push	 esi
  00008	57		 push	 edi
  00009	89 4d fc	 mov	 DWORD PTR _this$[ebp], ecx

; 310  : 	return GetInterface(); 

  0000c	8b 4d fc	 mov	 ecx, DWORD PTR _this$[ebp]
  0000f	e8 00 00 00 00	 call	 ?GetInterface@?$CTempldateHelper@UITimerEngine@@@@QBEPAUITimerEngine@@XZ ; CTempldateHelper<ITimerEngine>::GetInterface

; 311  : }

  00014	5f		 pop	 edi
  00015	5e		 pop	 esi
  00016	5b		 pop	 ebx
  00017	8b e5		 mov	 esp, ebp
  00019	5d		 pop	 ebp
  0001a	c3		 ret	 0
??C?$CTempldateHelper@UITimerEngine@@@@QBEPAUITimerEngine@@XZ ENDP ; CTempldateHelper<ITimerEngine>::operator->
_TEXT	ENDS
; Function compile flags: /Odtp /ZI
; File g:\网狐\happygamewh\服务端\系统模块\全局定义\module.h
;	COMDAT ?GetErrorDescribe@?$CTempldateHelper@UITimerEngine@@@@QBEPBDXZ
_TEXT	SEGMENT
_this$ = -4						; size = 4
?GetErrorDescribe@?$CTempldateHelper@UITimerEngine@@@@QBEPBDXZ PROC ; CTempldateHelper<ITimerEngine>::GetErrorDescribe, COMDAT
; _this$ = ecx

; 302  : { 

  00000	55		 push	 ebp
  00001	8b ec		 mov	 ebp, esp
  00003	83 ec 44	 sub	 esp, 68			; 00000044H
  00006	53		 push	 ebx
  00007	56		 push	 esi
  00008	57		 push	 edi
  00009	89 4d fc	 mov	 DWORD PTR _this$[ebp], ecx

; 303  : 	return m_szDescribe; 

  0000c	8b 45 fc	 mov	 eax, DWORD PTR _this$[ebp]
  0000f	05 58 01 00 00	 add	 eax, 344		; 00000158H

; 304  : }

  00014	5f		 pop	 edi
  00015	5e		 pop	 esi
  00016	5b		 pop	 ebx
  00017	8b e5		 mov	 esp, ebp
  00019	5d		 pop	 ebp
  0001a	c3		 ret	 0
?GetErrorDescribe@?$CTempldateHelper@UITimerEngine@@@@QBEPBDXZ ENDP ; CTempldateHelper<ITimerEngine>::GetErrorDescribe
_TEXT	ENDS
; Function compile flags: /Odtp /ZI
; File g:\网狐\happygamewh\服务端\系统模块\全局定义\module.h
;	COMDAT ?CreateInstance@?$CTempldateHelper@UITimerEngine@@@@QAE_NXZ
_TEXT	SEGMENT
tv173 = -100						; size = 4
tv172 = -100						; size = 4
tv171 = -100						; size = 4
tv170 = -100						; size = 4
$T2 = -94						; size = 1
$T3 = -93						; size = 1
_pszError$4 = -28					; size = 4
_CreateProc$5 = -24					; size = 4
_this$ = -20						; size = 4
__$EHRec$ = -16						; size = 16
?CreateInstance@?$CTempldateHelper@UITimerEngine@@@@QAE_NXZ PROC ; CTempldateHelper<ITimerEngine>::CreateInstance, COMDAT
; _this$ = ecx

; 212  : {

  00000	55		 push	 ebp
  00001	8b ec		 mov	 ebp, esp
  00003	6a ff		 push	 -1
  00005	68 00 00 00 00	 push	 __ehhandler$?CreateInstance@?$CTempldateHelper@UITimerEngine@@@@QAE_NXZ
  0000a	64 a1 00 00 00
	00		 mov	 eax, DWORD PTR fs:0
  00010	50		 push	 eax
  00011	51		 push	 ecx
  00012	83 ec 54	 sub	 esp, 84			; 00000054H
  00015	53		 push	 ebx
  00016	56		 push	 esi
  00017	57		 push	 edi
  00018	a1 00 00 00 00	 mov	 eax, DWORD PTR ___security_cookie
  0001d	33 c5		 xor	 eax, ebp
  0001f	50		 push	 eax
  00020	8d 45 f4	 lea	 eax, DWORD PTR __$EHRec$[ebp+4]
  00023	64 a3 00 00 00
	00		 mov	 DWORD PTR fs:0, eax
  00029	89 65 f0	 mov	 DWORD PTR __$EHRec$[ebp], esp
  0002c	89 4d ec	 mov	 DWORD PTR _this$[ebp], ecx

; 213  : 	//释放组件
; 214  : 	CloseInstance();

  0002f	8b 4d ec	 mov	 ecx, DWORD PTR _this$[ebp]
  00032	e8 00 00 00 00	 call	 ?CloseInstance@?$CTempldateHelper@UITimerEngine@@@@QAE_NXZ ; CTempldateHelper<ITimerEngine>::CloseInstance

; 215  : 
; 216  : 	//创建组件
; 217  : 	try

  00037	c7 45 fc 00 00
	00 00		 mov	 DWORD PTR __$EHRec$[ebp+12], 0

; 218  : 	{
; 219  : 		//效验参数
; 220  : 		ASSERT(m_szCreateProc[0]!=0);

  0003e	b8 01 00 00 00	 mov	 eax, 1
  00043	6b c8 00	 imul	 ecx, eax, 0
  00046	8b 55 ec	 mov	 edx, DWORD PTR _this$[ebp]
  00049	0f be 44 0a 0c	 movsx	 eax, BYTE PTR [edx+ecx+12]
  0004e	85 c0		 test	 eax, eax
  00050	75 19		 jne	 SHORT $LN7@CreateInst
  00052	68 dc 00 00 00	 push	 220			; 000000dcH
  00057	68 00 00 00 00	 push	 OFFSET ??_C@_0DG@CDIFDKED@g?3?2?M?x?$LK?$PM?2happygamewh?2?$LH?$PO?N?q?$LG?K?2?O?$LF?M?$LD@
  0005c	e8 00 00 00 00	 call	 ?AfxAssertFailedLine@@YGHPBDH@Z ; AfxAssertFailedLine
  00061	89 45 9c	 mov	 DWORD PTR tv170[ebp], eax
  00064	83 7d 9c 00	 cmp	 DWORD PTR tv170[ebp], 0
  00068	74 01		 je	 SHORT $LN7@CreateInst
  0006a	cc		 int	 3
$LN7@CreateInst:

; 221  : 		ASSERT(m_szModuleDllName[0]!=0);

  0006b	b8 01 00 00 00	 mov	 eax, 1
  00070	6b c8 00	 imul	 ecx, eax, 0
  00073	8b 55 ec	 mov	 edx, DWORD PTR _this$[ebp]
  00076	0f be 44 0a 4c	 movsx	 eax, BYTE PTR [edx+ecx+76]
  0007b	85 c0		 test	 eax, eax
  0007d	75 19		 jne	 SHORT $LN8@CreateInst
  0007f	68 dd 00 00 00	 push	 221			; 000000ddH
  00084	68 00 00 00 00	 push	 OFFSET ??_C@_0DG@CDIFDKED@g?3?2?M?x?$LK?$PM?2happygamewh?2?$LH?$PO?N?q?$LG?K?2?O?$LF?M?$LD@
  00089	e8 00 00 00 00	 call	 ?AfxAssertFailedLine@@YGHPBDH@Z ; AfxAssertFailedLine
  0008e	89 45 9c	 mov	 DWORD PTR tv171[ebp], eax
  00091	83 7d 9c 00	 cmp	 DWORD PTR tv171[ebp], 0
  00095	74 01		 je	 SHORT $LN8@CreateInst
  00097	cc		 int	 3
$LN8@CreateInst:

; 222  : 
; 223  : 		//加载模块
; 224  : 		m_hDllInstance=AfxLoadLibrary(m_szModuleDllName);

  00098	8b 45 ec	 mov	 eax, DWORD PTR _this$[ebp]
  0009b	83 c0 4c	 add	 eax, 76			; 0000004cH
  0009e	50		 push	 eax
  0009f	e8 00 00 00 00	 call	 ?AfxLoadLibrary@@YGPAUHINSTANCE__@@PBD@Z ; AfxLoadLibrary
  000a4	89 45 9c	 mov	 DWORD PTR tv172[ebp], eax
  000a7	8b 4d ec	 mov	 ecx, DWORD PTR _this$[ebp]
  000aa	8b 55 9c	 mov	 edx, DWORD PTR tv172[ebp]
  000ad	89 91 50 01 00
	00		 mov	 DWORD PTR [ecx+336], edx

; 225  : 		if (m_hDllInstance==NULL) 

  000b3	8b 45 ec	 mov	 eax, DWORD PTR _this$[ebp]
  000b6	83 b8 50 01 00
	00 00		 cmp	 DWORD PTR [eax+336], 0
  000bd	75 2a		 jne	 SHORT $LN3@CreateInst

; 226  : 		{
; 227  : 			_sntprintf_s(m_szDescribe,CountArray(m_szDescribe),TEXT("“%s”模块加载失败"),m_szModuleDllName);

  000bf	8b 45 ec	 mov	 eax, DWORD PTR _this$[ebp]
  000c2	83 c0 4c	 add	 eax, 76			; 0000004cH
  000c5	50		 push	 eax
  000c6	68 00 00 00 00	 push	 OFFSET ??_C@_0BD@LMOFNGMO@?$KB?$LA?$CFs?$KB?$LB?D?$KD?$LP?i?$LM?S?T?X?J?$KH?$LA?$NM@
  000cb	68 80 00 00 00	 push	 128			; 00000080H
  000d0	8b 4d ec	 mov	 ecx, DWORD PTR _this$[ebp]
  000d3	81 c1 58 01 00
	00		 add	 ecx, 344		; 00000158H
  000d9	51		 push	 ecx
  000da	e8 00 00 00 00	 call	 ??$_snprintf_s@$0IA@@@YAHAAY0IA@DIPBDZZ ; _snprintf_s<128>
  000df	83 c4 10	 add	 esp, 16			; 00000010H

; 228  : 			return false;

  000e2	32 c0		 xor	 al, al
  000e4	e9 34 01 00 00	 jmp	 $LN1@CreateInst
$LN3@CreateInst:

; 229  : 		}
; 230  : 
; 231  : 		//寻找函数
; 232  : 		ModuleCreateProc * CreateProc=(ModuleCreateProc *)GetProcAddress(m_hDllInstance,m_szCreateProc);

  000e9	8b 45 ec	 mov	 eax, DWORD PTR _this$[ebp]
  000ec	83 c0 0c	 add	 eax, 12			; 0000000cH
  000ef	50		 push	 eax
  000f0	8b 4d ec	 mov	 ecx, DWORD PTR _this$[ebp]
  000f3	8b 91 50 01 00
	00		 mov	 edx, DWORD PTR [ecx+336]
  000f9	52		 push	 edx
  000fa	ff 15 00 00 00
	00		 call	 DWORD PTR __imp__GetProcAddress@8
  00100	89 45 e8	 mov	 DWORD PTR _CreateProc$5[ebp], eax

; 233  : 		if (CreateProc==NULL) 

  00103	83 7d e8 00	 cmp	 DWORD PTR _CreateProc$5[ebp], 0
  00107	75 31		 jne	 SHORT $LN4@CreateInst

; 234  : 		{		
; 235  : 			_sntprintf_s(m_szDescribe, CountArray(m_szDescribe), TEXT("找不到组件创建函数“%s”:%d"), m_szCreateProc, GetLastError());

  00109	ff 15 00 00 00
	00		 call	 DWORD PTR __imp__GetLastError@0
  0010f	50		 push	 eax
  00110	8b 45 ec	 mov	 eax, DWORD PTR _this$[ebp]
  00113	83 c0 0c	 add	 eax, 12			; 0000000cH
  00116	50		 push	 eax
  00117	68 00 00 00 00	 push	 OFFSET ??_C@_0BM@PEGNCJOH@?U?R?$LC?$LL?$LF?$LN?W?i?$LM?$PO?$LE?$LE?$LN?$KI?$LK?$KP?J?$PN?$KB?$LA?$CFs?$KB?$LB?3?$CFd@
  0011c	68 80 00 00 00	 push	 128			; 00000080H
  00121	8b 4d ec	 mov	 ecx, DWORD PTR _this$[ebp]
  00124	81 c1 58 01 00
	00		 add	 ecx, 344		; 00000158H
  0012a	51		 push	 ecx
  0012b	e8 00 00 00 00	 call	 ??$_snprintf_s@$0IA@@@YAHAAY0IA@DIPBDZZ ; _snprintf_s<128>
  00130	83 c4 14	 add	 esp, 20			; 00000014H

; 236  : 			return false;

  00133	32 c0		 xor	 al, al
  00135	e9 e3 00 00 00	 jmp	 $LN1@CreateInst
$LN4@CreateInst:

; 237  : 		}
; 238  : 
; 239  : 		//创建组件
; 240  : 		m_pIModeluInterface=(IModeluInterface *)CreateProc(m_Guid,m_dwVersion);

  0013a	8b 45 ec	 mov	 eax, DWORD PTR _this$[ebp]
  0013d	8b 48 08	 mov	 ecx, DWORD PTR [eax+8]
  00140	51		 push	 ecx
  00141	8b 55 ec	 mov	 edx, DWORD PTR _this$[ebp]
  00144	8b 42 04	 mov	 eax, DWORD PTR [edx+4]
  00147	50		 push	 eax
  00148	ff 55 e8	 call	 DWORD PTR _CreateProc$5[ebp]
  0014b	83 c4 08	 add	 esp, 8
  0014e	89 45 9c	 mov	 DWORD PTR tv173[ebp], eax
  00151	8b 4d ec	 mov	 ecx, DWORD PTR _this$[ebp]
  00154	8b 55 9c	 mov	 edx, DWORD PTR tv173[ebp]
  00157	89 91 54 01 00
	00		 mov	 DWORD PTR [ecx+340], edx

; 241  : 		if (m_pIModeluInterface==NULL) 

  0015d	8b 45 ec	 mov	 eax, DWORD PTR _this$[ebp]
  00160	83 b8 54 01 00
	00 00		 cmp	 DWORD PTR [eax+340], 0
  00167	75 2a		 jne	 SHORT $LN5@CreateInst

; 242  : 		{
; 243  : 			_sntprintf_s(m_szDescribe,CountArray(m_szDescribe),TEXT("调用函数“%s”生成对象失败"),m_szCreateProc);

  00169	8b 45 ec	 mov	 eax, DWORD PTR _this$[ebp]
  0016c	83 c0 0c	 add	 eax, 12			; 0000000cH
  0016f	50		 push	 eax
  00170	68 00 00 00 00	 push	 OFFSET ??_C@_0BL@PDAODLKM@?$LF?w?S?C?$LK?$KP?J?$PN?$KB?$LA?$CFs?$KB?$LB?I?z?$LD?I?$LG?T?O?s?J?$KH?$LA?$NM@
  00175	68 80 00 00 00	 push	 128			; 00000080H
  0017a	8b 4d ec	 mov	 ecx, DWORD PTR _this$[ebp]
  0017d	81 c1 58 01 00
	00		 add	 ecx, 344		; 00000158H
  00183	51		 push	 ecx
  00184	e8 00 00 00 00	 call	 ??$_snprintf_s@$0IA@@@YAHAAY0IA@DIPBDZZ ; _snprintf_s<128>
  00189	83 c4 10	 add	 esp, 16			; 00000010H

; 244  : 			return false;

  0018c	32 c0		 xor	 al, al
  0018e	e9 8a 00 00 00	 jmp	 $LN1@CreateInst
$LN5@CreateInst:

; 245  : 		}
; 246  : 	}

  00193	eb 63		 jmp	 SHORT $LN9@CreateInst
__catch$?CreateInstance@?$CTempldateHelper@UITimerEngine@@@@QAE_NXZ$0:

; 247  : 	catch (LPCTSTR pszError)
; 248  : 	{
; 249  : 		_sntprintf_s(m_szDescribe,CountArray(m_szDescribe),TEXT("由于“%s”，组件创建失败"),pszError);

  00195	8b 45 e4	 mov	 eax, DWORD PTR _pszError$4[ebp]
  00198	50		 push	 eax
  00199	68 00 00 00 00	 push	 OFFSET ??_C@_0BJ@JGPFHIJF@?S?I?S?Z?$KB?$LA?$CFs?$KB?$LB?$KD?$KM?W?i?$LM?$PO?$LE?$LE?$LN?$KI?J?$KH?$LA?$NM@
  0019e	68 80 00 00 00	 push	 128			; 00000080H
  001a3	8b 4d ec	 mov	 ecx, DWORD PTR _this$[ebp]
  001a6	81 c1 58 01 00
	00		 add	 ecx, 344		; 00000158H
  001ac	51		 push	 ecx
  001ad	e8 00 00 00 00	 call	 ??$_snprintf_s@$0IA@@@YAHAAY0IA@DIPBDZZ ; _snprintf_s<128>
  001b2	83 c4 10	 add	 esp, 16			; 00000010H

; 250  : 		return false;

  001b5	c6 45 a3 00	 mov	 BYTE PTR $T3[ebp], 0
  001b9	b8 00 00 00 00	 mov	 eax, $LN13@CreateInst
  001be	c3		 ret	 0

; 251  : 	}

  001bf	b8 00 00 00 00	 mov	 eax, $LN9@CreateInst
  001c4	c3		 ret	 0
__catch$?CreateInstance@?$CTempldateHelper@UITimerEngine@@@@QAE_NXZ$1:

; 252  : 	catch (...)	
; 253  : 	{ 
; 254  : 		_sntprintf_s(m_szDescribe,CountArray(m_szDescribe),TEXT("组件创建函数“%s”产生未知异常错误，组件创建失败"),m_szCreateProc);

  001c5	8b 45 ec	 mov	 eax, DWORD PTR _this$[ebp]
  001c8	83 c0 0c	 add	 eax, 12			; 0000000cH
  001cb	50		 push	 eax
  001cc	68 00 00 00 00	 push	 OFFSET ??_C@_0DB@JBNKENAJ@?W?i?$LM?$PO?$LE?$LE?$LN?$KI?$LK?$KP?J?$PN?$KB?$LA?$CFs?$KB?$LB?$LC?z?I?z?N?$LE?V?$KK?R?l?$LD?$KD?$LE@
  001d1	68 80 00 00 00	 push	 128			; 00000080H
  001d6	8b 4d ec	 mov	 ecx, DWORD PTR _this$[ebp]
  001d9	81 c1 58 01 00
	00		 add	 ecx, 344		; 00000158H
  001df	51		 push	 ecx
  001e0	e8 00 00 00 00	 call	 ??$_snprintf_s@$0IA@@@YAHAAY0IA@DIPBDZZ ; _snprintf_s<128>
  001e5	83 c4 10	 add	 esp, 16			; 00000010H

; 255  : 		return false;

  001e8	c6 45 a2 00	 mov	 BYTE PTR $T2[ebp], 0
  001ec	b8 00 00 00 00	 mov	 eax, $LN15@CreateInst
  001f1	c3		 ret	 0

; 256  : 	}

  001f2	b8 00 00 00 00	 mov	 eax, $LN9@CreateInst
  001f7	c3		 ret	 0
$LN9@CreateInst:
  001f8	c7 45 fc ff ff
	ff ff		 mov	 DWORD PTR __$EHRec$[ebp+12], -1
  001ff	eb 0c		 jmp	 SHORT $LN14@CreateInst
$LN15@CreateInst:
  00201	c7 45 fc ff ff
	ff ff		 mov	 DWORD PTR __$EHRec$[ebp+12], -1

; 255  : 		return false;

  00208	8a 45 a2	 mov	 al, BYTE PTR $T2[ebp]
  0020b	eb 10		 jmp	 SHORT $LN1@CreateInst
$LN14@CreateInst:
  0020d	eb 0c		 jmp	 SHORT $LN12@CreateInst
$LN13@CreateInst:
  0020f	c7 45 fc ff ff
	ff ff		 mov	 DWORD PTR __$EHRec$[ebp+12], -1

; 250  : 		return false;

  00216	8a 45 a3	 mov	 al, BYTE PTR $T3[ebp]
  00219	eb 02		 jmp	 SHORT $LN1@CreateInst
$LN12@CreateInst:

; 257  : 
; 258  : 	return true;

  0021b	b0 01		 mov	 al, 1
$LN1@CreateInst:

; 259  : }

  0021d	8b 4d f4	 mov	 ecx, DWORD PTR __$EHRec$[ebp+4]
  00220	64 89 0d 00 00
	00 00		 mov	 DWORD PTR fs:0, ecx
  00227	59		 pop	 ecx
  00228	5f		 pop	 edi
  00229	5e		 pop	 esi
  0022a	5b		 pop	 ebx
  0022b	8b e5		 mov	 esp, ebp
  0022d	5d		 pop	 ebp
  0022e	c3		 ret	 0
_TEXT	ENDS
;	COMDAT text$x
text$x	SEGMENT
__ehhandler$?CreateInstance@?$CTempldateHelper@UITimerEngine@@@@QAE_NXZ:
  00000	8b 54 24 08	 mov	 edx, DWORD PTR [esp+8]
  00004	8d 42 0c	 lea	 eax, DWORD PTR [edx+12]
  00007	8b 4a 98	 mov	 ecx, DWORD PTR [edx-104]
  0000a	33 c8		 xor	 ecx, eax
  0000c	e8 00 00 00 00	 call	 @__security_check_cookie@4
  00011	b8 00 00 00 00	 mov	 eax, OFFSET __ehfuncinfo$?CreateInstance@?$CTempldateHelper@UITimerEngine@@@@QAE_NXZ
  00016	e9 00 00 00 00	 jmp	 ___CxxFrameHandler3
text$x	ENDS
?CreateInstance@?$CTempldateHelper@UITimerEngine@@@@QAE_NXZ ENDP ; CTempldateHelper<ITimerEngine>::CreateInstance
; Function compile flags: /Odtp /ZI
; File g:\网狐\happygamewh\服务端\系统模块\全局定义\module.h
;	COMDAT ?CloseInstance@?$CTempldateHelper@UITimerEngine@@@@QAE_NXZ
_TEXT	SEGMENT
_this$ = -4						; size = 4
?CloseInstance@?$CTempldateHelper@UITimerEngine@@@@QAE_NXZ PROC ; CTempldateHelper<ITimerEngine>::CloseInstance, COMDAT
; _this$ = ecx

; 264  : {

  00000	55		 push	 ebp
  00001	8b ec		 mov	 ebp, esp
  00003	83 ec 44	 sub	 esp, 68			; 00000044H
  00006	53		 push	 ebx
  00007	56		 push	 esi
  00008	57		 push	 edi
  00009	89 4d fc	 mov	 DWORD PTR _this$[ebp], ecx

; 265  : 	//设置变量
; 266  : 	m_szDescribe[0]=0;

  0000c	b8 01 00 00 00	 mov	 eax, 1
  00011	6b c8 00	 imul	 ecx, eax, 0
  00014	8b 55 fc	 mov	 edx, DWORD PTR _this$[ebp]
  00017	c6 84 0a 58 01
	00 00 00	 mov	 BYTE PTR [edx+ecx+344], 0

; 267  : 
; 268  : 	//销毁对象
; 269  : 	if (m_pIModeluInterface!=NULL)

  0001f	8b 45 fc	 mov	 eax, DWORD PTR _this$[ebp]
  00022	83 b8 54 01 00
	00 00		 cmp	 DWORD PTR [eax+340], 0
  00029	74 25		 je	 SHORT $LN2@CloseInsta

; 270  : 	{
; 271  : 		m_pIModeluInterface->Release();

  0002b	8b 45 fc	 mov	 eax, DWORD PTR _this$[ebp]
  0002e	8b 88 54 01 00
	00		 mov	 ecx, DWORD PTR [eax+340]
  00034	8b 55 fc	 mov	 edx, DWORD PTR _this$[ebp]
  00037	8b 01		 mov	 eax, DWORD PTR [ecx]
  00039	8b 8a 54 01 00
	00		 mov	 ecx, DWORD PTR [edx+340]
  0003f	8b 10		 mov	 edx, DWORD PTR [eax]
  00041	ff d2		 call	 edx

; 272  : 		m_pIModeluInterface=NULL;

  00043	8b 45 fc	 mov	 eax, DWORD PTR _this$[ebp]
  00046	c7 80 54 01 00
	00 00 00 00 00	 mov	 DWORD PTR [eax+340], 0
$LN2@CloseInsta:

; 273  : 	}
; 274  : 
; 275  : 	//释放 DLL
; 276  : 	if (m_hDllInstance!=NULL)

  00050	8b 45 fc	 mov	 eax, DWORD PTR _this$[ebp]
  00053	83 b8 50 01 00
	00 00		 cmp	 DWORD PTR [eax+336], 0
  0005a	74 1c		 je	 SHORT $LN3@CloseInsta

; 277  : 	{
; 278  : 		AfxFreeLibrary(m_hDllInstance);

  0005c	8b 45 fc	 mov	 eax, DWORD PTR _this$[ebp]
  0005f	8b 88 50 01 00
	00		 mov	 ecx, DWORD PTR [eax+336]
  00065	51		 push	 ecx
  00066	e8 00 00 00 00	 call	 ?AfxFreeLibrary@@YGHPAUHINSTANCE__@@@Z ; AfxFreeLibrary

; 279  : 		m_hDllInstance=NULL;

  0006b	8b 45 fc	 mov	 eax, DWORD PTR _this$[ebp]
  0006e	c7 80 50 01 00
	00 00 00 00 00	 mov	 DWORD PTR [eax+336], 0
$LN3@CloseInsta:

; 280  : 	}
; 281  : 
; 282  : 	return true;

  00078	b0 01		 mov	 al, 1

; 283  : }

  0007a	5f		 pop	 edi
  0007b	5e		 pop	 esi
  0007c	5b		 pop	 ebx
  0007d	8b e5		 mov	 esp, ebp
  0007f	5d		 pop	 ebp
  00080	c3		 ret	 0
?CloseInstance@?$CTempldateHelper@UITimerEngine@@@@QAE_NXZ ENDP ; CTempldateHelper<ITimerEngine>::CloseInstance
_TEXT	ENDS
; Function compile flags: /Odtp /ZI
; File g:\网狐\happygamewh\服务端\系统模块\全局定义\module.h
;	COMDAT ??1?$CTempldateHelper@UITimerEngine@@@@UAE@XZ
_TEXT	SEGMENT
_this$ = -16						; size = 4
__$EHRec$ = -12						; size = 12
??1?$CTempldateHelper@UITimerEngine@@@@UAE@XZ PROC	; CTempldateHelper<ITimerEngine>::~CTempldateHelper<ITimerEngine>, COMDAT
; _this$ = ecx

; 205  : {

  00000	55		 push	 ebp
  00001	8b ec		 mov	 ebp, esp
  00003	6a ff		 push	 -1
  00005	68 00 00 00 00	 push	 __ehhandler$??1?$CTempldateHelper@UITimerEngine@@@@UAE@XZ
  0000a	64 a1 00 00 00
	00		 mov	 eax, DWORD PTR fs:0
  00010	50		 push	 eax
  00011	83 ec 44	 sub	 esp, 68			; 00000044H
  00014	53		 push	 ebx
  00015	56		 push	 esi
  00016	57		 push	 edi
  00017	a1 00 00 00 00	 mov	 eax, DWORD PTR ___security_cookie
  0001c	33 c5		 xor	 eax, ebp
  0001e	50		 push	 eax
  0001f	8d 45 f4	 lea	 eax, DWORD PTR __$EHRec$[ebp]
  00022	64 a3 00 00 00
	00		 mov	 DWORD PTR fs:0, eax
  00028	89 4d f0	 mov	 DWORD PTR _this$[ebp], ecx
  0002b	8b 45 f0	 mov	 eax, DWORD PTR _this$[ebp]
  0002e	c7 00 00 00 00
	00		 mov	 DWORD PTR [eax], OFFSET ??_7?$CTempldateHelper@UITimerEngine@@@@6B@

; 206  : 	CloseInstance();

  00034	8b 4d f0	 mov	 ecx, DWORD PTR _this$[ebp]
  00037	e8 00 00 00 00	 call	 ?CloseInstance@?$CTempldateHelper@UITimerEngine@@@@QAE_NXZ ; CTempldateHelper<ITimerEngine>::CloseInstance

; 207  : }

  0003c	8b 4d f4	 mov	 ecx, DWORD PTR __$EHRec$[ebp]
  0003f	64 89 0d 00 00
	00 00		 mov	 DWORD PTR fs:0, ecx
  00046	59		 pop	 ecx
  00047	5f		 pop	 edi
  00048	5e		 pop	 esi
  00049	5b		 pop	 ebx
  0004a	8b e5		 mov	 esp, ebp
  0004c	5d		 pop	 ebp
  0004d	c3		 ret	 0
_TEXT	ENDS
;	COMDAT text$x
text$x	SEGMENT
__ehhandler$??1?$CTempldateHelper@UITimerEngine@@@@UAE@XZ:
  00000	8b 54 24 08	 mov	 edx, DWORD PTR [esp+8]
  00004	8d 42 0c	 lea	 eax, DWORD PTR [edx+12]
  00007	8b 4a ac	 mov	 ecx, DWORD PTR [edx-84]
  0000a	33 c8		 xor	 ecx, eax
  0000c	e8 00 00 00 00	 call	 @__security_check_cookie@4
  00011	b8 00 00 00 00	 mov	 eax, OFFSET __ehfuncinfo$??1?$CTempldateHelper@UITimerEngine@@@@UAE@XZ
  00016	e9 00 00 00 00	 jmp	 ___CxxFrameHandler3
text$x	ENDS
??1?$CTempldateHelper@UITimerEngine@@@@UAE@XZ ENDP	; CTempldateHelper<ITimerEngine>::~CTempldateHelper<ITimerEngine>
; Function compile flags: /Odtp /ZI
; File g:\网狐\happygamewh\服务端\系统模块\全局定义\module.h
;	COMDAT ??0?$CTempldateHelper@UITimerEngine@@@@QAE@ABU_GUID@@KPBD1@Z
_TEXT	SEGMENT
_this$ = -4						; size = 4
_Guid$ = 8						; size = 4
_dwVersion$ = 12					; size = 4
_pszModuleDll$ = 16					; size = 4
_pszCreateProc$ = 20					; size = 4
??0?$CTempldateHelper@UITimerEngine@@@@QAE@ABU_GUID@@KPBD1@Z PROC ; CTempldateHelper<ITimerEngine>::CTempldateHelper<ITimerEngine>, COMDAT
; _this$ = ecx

; 187  : {

  00000	55		 push	 ebp
  00001	8b ec		 mov	 ebp, esp
  00003	83 ec 44	 sub	 esp, 68			; 00000044H
  00006	53		 push	 ebx
  00007	56		 push	 esi
  00008	57		 push	 edi
  00009	89 4d fc	 mov	 DWORD PTR _this$[ebp], ecx
  0000c	8b 45 fc	 mov	 eax, DWORD PTR _this$[ebp]
  0000f	c7 00 00 00 00
	00		 mov	 DWORD PTR [eax], OFFSET ??_7?$CTempldateHelper@UITimerEngine@@@@6B@

; 186  : CTempldateHelper<IModeluInterface>::CTempldateHelper(REFGUID Guid, DWORD dwVersion, LPCTSTR pszModuleDll, LPCSTR pszCreateProc) : m_dwVersion(dwVersion), m_Guid(Guid)

  00015	8b 45 fc	 mov	 eax, DWORD PTR _this$[ebp]
  00018	8b 4d 08	 mov	 ecx, DWORD PTR _Guid$[ebp]
  0001b	89 48 04	 mov	 DWORD PTR [eax+4], ecx
  0001e	8b 45 fc	 mov	 eax, DWORD PTR _this$[ebp]
  00021	8b 4d 0c	 mov	 ecx, DWORD PTR _dwVersion$[ebp]
  00024	89 48 08	 mov	 DWORD PTR [eax+8], ecx

; 188  : 	//辅助变量
; 189  : 	m_szDescribe[0]=0;

  00027	b8 01 00 00 00	 mov	 eax, 1
  0002c	6b c8 00	 imul	 ecx, eax, 0
  0002f	8b 55 fc	 mov	 edx, DWORD PTR _this$[ebp]
  00032	c6 84 0a 58 01
	00 00 00	 mov	 BYTE PTR [edx+ecx+344], 0

; 190  : 
; 191  : 	//内核信息
; 192  : 	m_hDllInstance=NULL;

  0003a	8b 45 fc	 mov	 eax, DWORD PTR _this$[ebp]
  0003d	c7 80 50 01 00
	00 00 00 00 00	 mov	 DWORD PTR [eax+336], 0

; 193  : 	m_pIModeluInterface=NULL;

  00047	8b 45 fc	 mov	 eax, DWORD PTR _this$[ebp]
  0004a	c7 80 54 01 00
	00 00 00 00 00	 mov	 DWORD PTR [eax+340], 0

; 194  : 
; 195  : 	//组件属性
; 196  : 	lstrcpynA(m_szCreateProc,pszCreateProc,CountArray(m_szCreateProc));

  00054	6a 40		 push	 64			; 00000040H
  00056	8b 45 14	 mov	 eax, DWORD PTR _pszCreateProc$[ebp]
  00059	50		 push	 eax
  0005a	8b 4d fc	 mov	 ecx, DWORD PTR _this$[ebp]
  0005d	83 c1 0c	 add	 ecx, 12			; 0000000cH
  00060	51		 push	 ecx
  00061	ff 15 00 00 00
	00		 call	 DWORD PTR __imp__lstrcpynA@12

; 197  : 	lstrcpyn(m_szModuleDllName,pszModuleDll,CountArray(m_szModuleDllName));

  00067	68 04 01 00 00	 push	 260			; 00000104H
  0006c	8b 45 10	 mov	 eax, DWORD PTR _pszModuleDll$[ebp]
  0006f	50		 push	 eax
  00070	8b 4d fc	 mov	 ecx, DWORD PTR _this$[ebp]
  00073	83 c1 4c	 add	 ecx, 76			; 0000004cH
  00076	51		 push	 ecx
  00077	ff 15 00 00 00
	00		 call	 DWORD PTR __imp__lstrcpynA@12

; 198  : 
; 199  : 	return;
; 200  : }

  0007d	8b 45 fc	 mov	 eax, DWORD PTR _this$[ebp]
  00080	5f		 pop	 edi
  00081	5e		 pop	 esi
  00082	5b		 pop	 ebx
  00083	8b e5		 mov	 esp, ebp
  00085	5d		 pop	 ebp
  00086	c2 10 00	 ret	 16			; 00000010H
??0?$CTempldateHelper@UITimerEngine@@@@QAE@ABU_GUID@@KPBD1@Z ENDP ; CTempldateHelper<ITimerEngine>::CTempldateHelper<ITimerEngine>
_TEXT	ENDS
; Function compile flags: /Odtp /ZI
;	COMDAT ??_GCDataBaseHelper@@UAEPAXI@Z
_TEXT	SEGMENT
_this$ = -4						; size = 4
___flags$ = 8						; size = 4
??_GCDataBaseHelper@@UAEPAXI@Z PROC			; CDataBaseHelper::`scalar deleting destructor', COMDAT
; _this$ = ecx
  00000	55		 push	 ebp
  00001	8b ec		 mov	 ebp, esp
  00003	83 ec 44	 sub	 esp, 68			; 00000044H
  00006	53		 push	 ebx
  00007	56		 push	 esi
  00008	57		 push	 edi
  00009	89 4d fc	 mov	 DWORD PTR _this$[ebp], ecx
  0000c	8b 4d fc	 mov	 ecx, DWORD PTR _this$[ebp]
  0000f	e8 00 00 00 00	 call	 ??1CDataBaseHelper@@UAE@XZ
  00014	8b 45 08	 mov	 eax, DWORD PTR ___flags$[ebp]
  00017	83 e0 01	 and	 eax, 1
  0001a	74 11		 je	 SHORT $LN2@scalar
  0001c	68 d8 01 00 00	 push	 472			; 000001d8H
  00021	8b 45 fc	 mov	 eax, DWORD PTR _this$[ebp]
  00024	50		 push	 eax
  00025	e8 00 00 00 00	 call	 ??3@YAXPAXI@Z		; operator delete
  0002a	83 c4 08	 add	 esp, 8
$LN2@scalar:
  0002d	8b 45 fc	 mov	 eax, DWORD PTR _this$[ebp]
  00030	5f		 pop	 edi
  00031	5e		 pop	 esi
  00032	5b		 pop	 ebx
  00033	8b e5		 mov	 esp, ebp
  00035	5d		 pop	 ebp
  00036	c2 04 00	 ret	 4
??_GCDataBaseHelper@@UAEPAXI@Z ENDP			; CDataBaseHelper::`scalar deleting destructor'
_TEXT	ENDS
; Function compile flags: /Odtp /ZI
;	COMDAT ??1CDataBaseHelper@@UAE@XZ
_TEXT	SEGMENT
_this$ = -4						; size = 4
??1CDataBaseHelper@@UAE@XZ PROC				; CDataBaseHelper::~CDataBaseHelper, COMDAT
; _this$ = ecx
  00000	55		 push	 ebp
  00001	8b ec		 mov	 ebp, esp
  00003	83 ec 44	 sub	 esp, 68			; 00000044H
  00006	53		 push	 ebx
  00007	56		 push	 esi
  00008	57		 push	 edi
  00009	89 4d fc	 mov	 DWORD PTR _this$[ebp], ecx
  0000c	8b 4d fc	 mov	 ecx, DWORD PTR _this$[ebp]
  0000f	e8 00 00 00 00	 call	 ??1?$CTempldateHelper@UIDataBase@@@@UAE@XZ ; CTempldateHelper<IDataBase>::~CTempldateHelper<IDataBase>
  00014	5f		 pop	 edi
  00015	5e		 pop	 esi
  00016	5b		 pop	 ebx
  00017	8b e5		 mov	 esp, ebp
  00019	5d		 pop	 ebp
  0001a	c3		 ret	 0
??1CDataBaseHelper@@UAE@XZ ENDP				; CDataBaseHelper::~CDataBaseHelper
_TEXT	ENDS
; Function compile flags: /Odtp /ZI
; File g:\网狐\happygamewh\服务端\系统模块\服务器组件\内核引擎\kernelenginehead.h
;	COMDAT ??0CDataBaseHelper@@QAE@XZ
_TEXT	SEGMENT
_this$ = -4						; size = 4
??0CDataBaseHelper@@QAE@XZ PROC				; CDataBaseHelper::CDataBaseHelper, COMDAT
; _this$ = ecx

; 842  : DECLARE_MODULE_HELPER(DataBase, KERNEL_ENGINE_DLL_NAME, "CreateDataBase")

  00000	55		 push	 ebp
  00001	8b ec		 mov	 ebp, esp
  00003	83 ec 44	 sub	 esp, 68			; 00000044H
  00006	53		 push	 ebx
  00007	56		 push	 esi
  00008	57		 push	 edi
  00009	89 4d fc	 mov	 DWORD PTR _this$[ebp], ecx
  0000c	68 00 00 00 00	 push	 OFFSET ??_C@_0P@IKJBDFNG@CreateDataBase@
  00011	68 00 00 00 00	 push	 OFFSET ??_C@_0BB@BEMLEOHB@KernelEngine?4dll@
  00016	68 00 01 01 06	 push	 100729088		; 06010100H
  0001b	68 00 00 00 00	 push	 OFFSET ?IID_IDataBase@@3U_GUID@@B
  00020	8b 4d fc	 mov	 ecx, DWORD PTR _this$[ebp]
  00023	e8 00 00 00 00	 call	 ??0?$CTempldateHelper@UIDataBase@@@@QAE@ABU_GUID@@KPBD1@Z ; CTempldateHelper<IDataBase>::CTempldateHelper<IDataBase>
  00028	8b 45 fc	 mov	 eax, DWORD PTR _this$[ebp]
  0002b	c7 00 00 00 00
	00		 mov	 DWORD PTR [eax], OFFSET ??_7CDataBaseHelper@@6B@
  00031	8b 45 fc	 mov	 eax, DWORD PTR _this$[ebp]
  00034	5f		 pop	 edi
  00035	5e		 pop	 esi
  00036	5b		 pop	 ebx
  00037	8b e5		 mov	 esp, ebp
  00039	5d		 pop	 ebp
  0003a	c3		 ret	 0
??0CDataBaseHelper@@QAE@XZ ENDP				; CDataBaseHelper::CDataBaseHelper
_TEXT	ENDS
; Function compile flags: /Odtp /ZI
;	COMDAT ??_G?$CTempldateHelper@UIDataBase@@@@UAEPAXI@Z
_TEXT	SEGMENT
_this$ = -4						; size = 4
___flags$ = 8						; size = 4
??_G?$CTempldateHelper@UIDataBase@@@@UAEPAXI@Z PROC	; CTempldateHelper<IDataBase>::`scalar deleting destructor', COMDAT
; _this$ = ecx
  00000	55		 push	 ebp
  00001	8b ec		 mov	 ebp, esp
  00003	83 ec 44	 sub	 esp, 68			; 00000044H
  00006	53		 push	 ebx
  00007	56		 push	 esi
  00008	57		 push	 edi
  00009	89 4d fc	 mov	 DWORD PTR _this$[ebp], ecx
  0000c	8b 4d fc	 mov	 ecx, DWORD PTR _this$[ebp]
  0000f	e8 00 00 00 00	 call	 ??1?$CTempldateHelper@UIDataBase@@@@UAE@XZ ; CTempldateHelper<IDataBase>::~CTempldateHelper<IDataBase>
  00014	8b 45 08	 mov	 eax, DWORD PTR ___flags$[ebp]
  00017	83 e0 01	 and	 eax, 1
  0001a	74 11		 je	 SHORT $LN2@scalar
  0001c	68 d8 01 00 00	 push	 472			; 000001d8H
  00021	8b 45 fc	 mov	 eax, DWORD PTR _this$[ebp]
  00024	50		 push	 eax
  00025	e8 00 00 00 00	 call	 ??3@YAXPAXI@Z		; operator delete
  0002a	83 c4 08	 add	 esp, 8
$LN2@scalar:
  0002d	8b 45 fc	 mov	 eax, DWORD PTR _this$[ebp]
  00030	5f		 pop	 edi
  00031	5e		 pop	 esi
  00032	5b		 pop	 ebx
  00033	8b e5		 mov	 esp, ebp
  00035	5d		 pop	 ebp
  00036	c2 04 00	 ret	 4
??_G?$CTempldateHelper@UIDataBase@@@@UAEPAXI@Z ENDP	; CTempldateHelper<IDataBase>::`scalar deleting destructor'
_TEXT	ENDS
; Function compile flags: /Odtp /ZI
; File g:\网狐\happygamewh\服务端\系统模块\全局定义\module.h
;	COMDAT ?GetInterface@?$CTempldateHelper@UIDataBase@@@@QBEPAUIDataBase@@XZ
_TEXT	SEGMENT
_this$ = -4						; size = 4
?GetInterface@?$CTempldateHelper@UIDataBase@@@@QBEPAUIDataBase@@XZ PROC ; CTempldateHelper<IDataBase>::GetInterface, COMDAT
; _this$ = ecx

; 316  : { 

  00000	55		 push	 ebp
  00001	8b ec		 mov	 ebp, esp
  00003	83 ec 44	 sub	 esp, 68			; 00000044H
  00006	53		 push	 ebx
  00007	56		 push	 esi
  00008	57		 push	 edi
  00009	89 4d fc	 mov	 DWORD PTR _this$[ebp], ecx

; 317  : 	return m_pIModeluInterface; 

  0000c	8b 45 fc	 mov	 eax, DWORD PTR _this$[ebp]
  0000f	8b 80 54 01 00
	00		 mov	 eax, DWORD PTR [eax+340]

; 318  : }

  00015	5f		 pop	 edi
  00016	5e		 pop	 esi
  00017	5b		 pop	 ebx
  00018	8b e5		 mov	 esp, ebp
  0001a	5d		 pop	 ebp
  0001b	c3		 ret	 0
?GetInterface@?$CTempldateHelper@UIDataBase@@@@QBEPAUIDataBase@@XZ ENDP ; CTempldateHelper<IDataBase>::GetInterface
_TEXT	ENDS
; Function compile flags: /Odtp /ZI
; File g:\网狐\happygamewh\服务端\系统模块\全局定义\module.h
;	COMDAT ??C?$CTempldateHelper@UIDataBase@@@@QBEPAUIDataBase@@XZ
_TEXT	SEGMENT
_this$ = -4						; size = 4
??C?$CTempldateHelper@UIDataBase@@@@QBEPAUIDataBase@@XZ PROC ; CTempldateHelper<IDataBase>::operator->, COMDAT
; _this$ = ecx

; 309  : { 

  00000	55		 push	 ebp
  00001	8b ec		 mov	 ebp, esp
  00003	83 ec 44	 sub	 esp, 68			; 00000044H
  00006	53		 push	 ebx
  00007	56		 push	 esi
  00008	57		 push	 edi
  00009	89 4d fc	 mov	 DWORD PTR _this$[ebp], ecx

; 310  : 	return GetInterface(); 

  0000c	8b 4d fc	 mov	 ecx, DWORD PTR _this$[ebp]
  0000f	e8 00 00 00 00	 call	 ?GetInterface@?$CTempldateHelper@UIDataBase@@@@QBEPAUIDataBase@@XZ ; CTempldateHelper<IDataBase>::GetInterface

; 311  : }

  00014	5f		 pop	 edi
  00015	5e		 pop	 esi
  00016	5b		 pop	 ebx
  00017	8b e5		 mov	 esp, ebp
  00019	5d		 pop	 ebp
  0001a	c3		 ret	 0
??C?$CTempldateHelper@UIDataBase@@@@QBEPAUIDataBase@@XZ ENDP ; CTempldateHelper<IDataBase>::operator->
_TEXT	ENDS
; Function compile flags: /Odtp /ZI
; File g:\网狐\happygamewh\服务端\系统模块\全局定义\module.h
;	COMDAT ?CreateInstance@?$CTempldateHelper@UIDataBase@@@@QAE_NXZ
_TEXT	SEGMENT
tv173 = -100						; size = 4
tv172 = -100						; size = 4
tv171 = -100						; size = 4
tv170 = -100						; size = 4
$T2 = -94						; size = 1
$T3 = -93						; size = 1
_pszError$4 = -28					; size = 4
_CreateProc$5 = -24					; size = 4
_this$ = -20						; size = 4
__$EHRec$ = -16						; size = 16
?CreateInstance@?$CTempldateHelper@UIDataBase@@@@QAE_NXZ PROC ; CTempldateHelper<IDataBase>::CreateInstance, COMDAT
; _this$ = ecx

; 212  : {

  00000	55		 push	 ebp
  00001	8b ec		 mov	 ebp, esp
  00003	6a ff		 push	 -1
  00005	68 00 00 00 00	 push	 __ehhandler$?CreateInstance@?$CTempldateHelper@UIDataBase@@@@QAE_NXZ
  0000a	64 a1 00 00 00
	00		 mov	 eax, DWORD PTR fs:0
  00010	50		 push	 eax
  00011	51		 push	 ecx
  00012	83 ec 54	 sub	 esp, 84			; 00000054H
  00015	53		 push	 ebx
  00016	56		 push	 esi
  00017	57		 push	 edi
  00018	a1 00 00 00 00	 mov	 eax, DWORD PTR ___security_cookie
  0001d	33 c5		 xor	 eax, ebp
  0001f	50		 push	 eax
  00020	8d 45 f4	 lea	 eax, DWORD PTR __$EHRec$[ebp+4]
  00023	64 a3 00 00 00
	00		 mov	 DWORD PTR fs:0, eax
  00029	89 65 f0	 mov	 DWORD PTR __$EHRec$[ebp], esp
  0002c	89 4d ec	 mov	 DWORD PTR _this$[ebp], ecx

; 213  : 	//释放组件
; 214  : 	CloseInstance();

  0002f	8b 4d ec	 mov	 ecx, DWORD PTR _this$[ebp]
  00032	e8 00 00 00 00	 call	 ?CloseInstance@?$CTempldateHelper@UIDataBase@@@@QAE_NXZ ; CTempldateHelper<IDataBase>::CloseInstance

; 215  : 
; 216  : 	//创建组件
; 217  : 	try

  00037	c7 45 fc 00 00
	00 00		 mov	 DWORD PTR __$EHRec$[ebp+12], 0

; 218  : 	{
; 219  : 		//效验参数
; 220  : 		ASSERT(m_szCreateProc[0]!=0);

  0003e	b8 01 00 00 00	 mov	 eax, 1
  00043	6b c8 00	 imul	 ecx, eax, 0
  00046	8b 55 ec	 mov	 edx, DWORD PTR _this$[ebp]
  00049	0f be 44 0a 0c	 movsx	 eax, BYTE PTR [edx+ecx+12]
  0004e	85 c0		 test	 eax, eax
  00050	75 19		 jne	 SHORT $LN7@CreateInst
  00052	68 dc 00 00 00	 push	 220			; 000000dcH
  00057	68 00 00 00 00	 push	 OFFSET ??_C@_0DG@CDIFDKED@g?3?2?M?x?$LK?$PM?2happygamewh?2?$LH?$PO?N?q?$LG?K?2?O?$LF?M?$LD@
  0005c	e8 00 00 00 00	 call	 ?AfxAssertFailedLine@@YGHPBDH@Z ; AfxAssertFailedLine
  00061	89 45 9c	 mov	 DWORD PTR tv170[ebp], eax
  00064	83 7d 9c 00	 cmp	 DWORD PTR tv170[ebp], 0
  00068	74 01		 je	 SHORT $LN7@CreateInst
  0006a	cc		 int	 3
$LN7@CreateInst:

; 221  : 		ASSERT(m_szModuleDllName[0]!=0);

  0006b	b8 01 00 00 00	 mov	 eax, 1
  00070	6b c8 00	 imul	 ecx, eax, 0
  00073	8b 55 ec	 mov	 edx, DWORD PTR _this$[ebp]
  00076	0f be 44 0a 4c	 movsx	 eax, BYTE PTR [edx+ecx+76]
  0007b	85 c0		 test	 eax, eax
  0007d	75 19		 jne	 SHORT $LN8@CreateInst
  0007f	68 dd 00 00 00	 push	 221			; 000000ddH
  00084	68 00 00 00 00	 push	 OFFSET ??_C@_0DG@CDIFDKED@g?3?2?M?x?$LK?$PM?2happygamewh?2?$LH?$PO?N?q?$LG?K?2?O?$LF?M?$LD@
  00089	e8 00 00 00 00	 call	 ?AfxAssertFailedLine@@YGHPBDH@Z ; AfxAssertFailedLine
  0008e	89 45 9c	 mov	 DWORD PTR tv171[ebp], eax
  00091	83 7d 9c 00	 cmp	 DWORD PTR tv171[ebp], 0
  00095	74 01		 je	 SHORT $LN8@CreateInst
  00097	cc		 int	 3
$LN8@CreateInst:

; 222  : 
; 223  : 		//加载模块
; 224  : 		m_hDllInstance=AfxLoadLibrary(m_szModuleDllName);

  00098	8b 45 ec	 mov	 eax, DWORD PTR _this$[ebp]
  0009b	83 c0 4c	 add	 eax, 76			; 0000004cH
  0009e	50		 push	 eax
  0009f	e8 00 00 00 00	 call	 ?AfxLoadLibrary@@YGPAUHINSTANCE__@@PBD@Z ; AfxLoadLibrary
  000a4	89 45 9c	 mov	 DWORD PTR tv172[ebp], eax
  000a7	8b 4d ec	 mov	 ecx, DWORD PTR _this$[ebp]
  000aa	8b 55 9c	 mov	 edx, DWORD PTR tv172[ebp]
  000ad	89 91 50 01 00
	00		 mov	 DWORD PTR [ecx+336], edx

; 225  : 		if (m_hDllInstance==NULL) 

  000b3	8b 45 ec	 mov	 eax, DWORD PTR _this$[ebp]
  000b6	83 b8 50 01 00
	00 00		 cmp	 DWORD PTR [eax+336], 0
  000bd	75 2a		 jne	 SHORT $LN3@CreateInst

; 226  : 		{
; 227  : 			_sntprintf_s(m_szDescribe,CountArray(m_szDescribe),TEXT("“%s”模块加载失败"),m_szModuleDllName);

  000bf	8b 45 ec	 mov	 eax, DWORD PTR _this$[ebp]
  000c2	83 c0 4c	 add	 eax, 76			; 0000004cH
  000c5	50		 push	 eax
  000c6	68 00 00 00 00	 push	 OFFSET ??_C@_0BD@LMOFNGMO@?$KB?$LA?$CFs?$KB?$LB?D?$KD?$LP?i?$LM?S?T?X?J?$KH?$LA?$NM@
  000cb	68 80 00 00 00	 push	 128			; 00000080H
  000d0	8b 4d ec	 mov	 ecx, DWORD PTR _this$[ebp]
  000d3	81 c1 58 01 00
	00		 add	 ecx, 344		; 00000158H
  000d9	51		 push	 ecx
  000da	e8 00 00 00 00	 call	 ??$_snprintf_s@$0IA@@@YAHAAY0IA@DIPBDZZ ; _snprintf_s<128>
  000df	83 c4 10	 add	 esp, 16			; 00000010H

; 228  : 			return false;

  000e2	32 c0		 xor	 al, al
  000e4	e9 34 01 00 00	 jmp	 $LN1@CreateInst
$LN3@CreateInst:

; 229  : 		}
; 230  : 
; 231  : 		//寻找函数
; 232  : 		ModuleCreateProc * CreateProc=(ModuleCreateProc *)GetProcAddress(m_hDllInstance,m_szCreateProc);

  000e9	8b 45 ec	 mov	 eax, DWORD PTR _this$[ebp]
  000ec	83 c0 0c	 add	 eax, 12			; 0000000cH
  000ef	50		 push	 eax
  000f0	8b 4d ec	 mov	 ecx, DWORD PTR _this$[ebp]
  000f3	8b 91 50 01 00
	00		 mov	 edx, DWORD PTR [ecx+336]
  000f9	52		 push	 edx
  000fa	ff 15 00 00 00
	00		 call	 DWORD PTR __imp__GetProcAddress@8
  00100	89 45 e8	 mov	 DWORD PTR _CreateProc$5[ebp], eax

; 233  : 		if (CreateProc==NULL) 

  00103	83 7d e8 00	 cmp	 DWORD PTR _CreateProc$5[ebp], 0
  00107	75 31		 jne	 SHORT $LN4@CreateInst

; 234  : 		{		
; 235  : 			_sntprintf_s(m_szDescribe, CountArray(m_szDescribe), TEXT("找不到组件创建函数“%s”:%d"), m_szCreateProc, GetLastError());

  00109	ff 15 00 00 00
	00		 call	 DWORD PTR __imp__GetLastError@0
  0010f	50		 push	 eax
  00110	8b 45 ec	 mov	 eax, DWORD PTR _this$[ebp]
  00113	83 c0 0c	 add	 eax, 12			; 0000000cH
  00116	50		 push	 eax
  00117	68 00 00 00 00	 push	 OFFSET ??_C@_0BM@PEGNCJOH@?U?R?$LC?$LL?$LF?$LN?W?i?$LM?$PO?$LE?$LE?$LN?$KI?$LK?$KP?J?$PN?$KB?$LA?$CFs?$KB?$LB?3?$CFd@
  0011c	68 80 00 00 00	 push	 128			; 00000080H
  00121	8b 4d ec	 mov	 ecx, DWORD PTR _this$[ebp]
  00124	81 c1 58 01 00
	00		 add	 ecx, 344		; 00000158H
  0012a	51		 push	 ecx
  0012b	e8 00 00 00 00	 call	 ??$_snprintf_s@$0IA@@@YAHAAY0IA@DIPBDZZ ; _snprintf_s<128>
  00130	83 c4 14	 add	 esp, 20			; 00000014H

; 236  : 			return false;

  00133	32 c0		 xor	 al, al
  00135	e9 e3 00 00 00	 jmp	 $LN1@CreateInst
$LN4@CreateInst:

; 237  : 		}
; 238  : 
; 239  : 		//创建组件
; 240  : 		m_pIModeluInterface=(IModeluInterface *)CreateProc(m_Guid,m_dwVersion);

  0013a	8b 45 ec	 mov	 eax, DWORD PTR _this$[ebp]
  0013d	8b 48 08	 mov	 ecx, DWORD PTR [eax+8]
  00140	51		 push	 ecx
  00141	8b 55 ec	 mov	 edx, DWORD PTR _this$[ebp]
  00144	8b 42 04	 mov	 eax, DWORD PTR [edx+4]
  00147	50		 push	 eax
  00148	ff 55 e8	 call	 DWORD PTR _CreateProc$5[ebp]
  0014b	83 c4 08	 add	 esp, 8
  0014e	89 45 9c	 mov	 DWORD PTR tv173[ebp], eax
  00151	8b 4d ec	 mov	 ecx, DWORD PTR _this$[ebp]
  00154	8b 55 9c	 mov	 edx, DWORD PTR tv173[ebp]
  00157	89 91 54 01 00
	00		 mov	 DWORD PTR [ecx+340], edx

; 241  : 		if (m_pIModeluInterface==NULL) 

  0015d	8b 45 ec	 mov	 eax, DWORD PTR _this$[ebp]
  00160	83 b8 54 01 00
	00 00		 cmp	 DWORD PTR [eax+340], 0
  00167	75 2a		 jne	 SHORT $LN5@CreateInst

; 242  : 		{
; 243  : 			_sntprintf_s(m_szDescribe,CountArray(m_szDescribe),TEXT("调用函数“%s”生成对象失败"),m_szCreateProc);

  00169	8b 45 ec	 mov	 eax, DWORD PTR _this$[ebp]
  0016c	83 c0 0c	 add	 eax, 12			; 0000000cH
  0016f	50		 push	 eax
  00170	68 00 00 00 00	 push	 OFFSET ??_C@_0BL@PDAODLKM@?$LF?w?S?C?$LK?$KP?J?$PN?$KB?$LA?$CFs?$KB?$LB?I?z?$LD?I?$LG?T?O?s?J?$KH?$LA?$NM@
  00175	68 80 00 00 00	 push	 128			; 00000080H
  0017a	8b 4d ec	 mov	 ecx, DWORD PTR _this$[ebp]
  0017d	81 c1 58 01 00
	00		 add	 ecx, 344		; 00000158H
  00183	51		 push	 ecx
  00184	e8 00 00 00 00	 call	 ??$_snprintf_s@$0IA@@@YAHAAY0IA@DIPBDZZ ; _snprintf_s<128>
  00189	83 c4 10	 add	 esp, 16			; 00000010H

; 244  : 			return false;

  0018c	32 c0		 xor	 al, al
  0018e	e9 8a 00 00 00	 jmp	 $LN1@CreateInst
$LN5@CreateInst:

; 245  : 		}
; 246  : 	}

  00193	eb 63		 jmp	 SHORT $LN9@CreateInst
__catch$?CreateInstance@?$CTempldateHelper@UIDataBase@@@@QAE_NXZ$0:

; 247  : 	catch (LPCTSTR pszError)
; 248  : 	{
; 249  : 		_sntprintf_s(m_szDescribe,CountArray(m_szDescribe),TEXT("由于“%s”，组件创建失败"),pszError);

  00195	8b 45 e4	 mov	 eax, DWORD PTR _pszError$4[ebp]
  00198	50		 push	 eax
  00199	68 00 00 00 00	 push	 OFFSET ??_C@_0BJ@JGPFHIJF@?S?I?S?Z?$KB?$LA?$CFs?$KB?$LB?$KD?$KM?W?i?$LM?$PO?$LE?$LE?$LN?$KI?J?$KH?$LA?$NM@
  0019e	68 80 00 00 00	 push	 128			; 00000080H
  001a3	8b 4d ec	 mov	 ecx, DWORD PTR _this$[ebp]
  001a6	81 c1 58 01 00
	00		 add	 ecx, 344		; 00000158H
  001ac	51		 push	 ecx
  001ad	e8 00 00 00 00	 call	 ??$_snprintf_s@$0IA@@@YAHAAY0IA@DIPBDZZ ; _snprintf_s<128>
  001b2	83 c4 10	 add	 esp, 16			; 00000010H

; 250  : 		return false;

  001b5	c6 45 a3 00	 mov	 BYTE PTR $T3[ebp], 0
  001b9	b8 00 00 00 00	 mov	 eax, $LN13@CreateInst
  001be	c3		 ret	 0

; 251  : 	}

  001bf	b8 00 00 00 00	 mov	 eax, $LN9@CreateInst
  001c4	c3		 ret	 0
__catch$?CreateInstance@?$CTempldateHelper@UIDataBase@@@@QAE_NXZ$1:

; 252  : 	catch (...)	
; 253  : 	{ 
; 254  : 		_sntprintf_s(m_szDescribe,CountArray(m_szDescribe),TEXT("组件创建函数“%s”产生未知异常错误，组件创建失败"),m_szCreateProc);

  001c5	8b 45 ec	 mov	 eax, DWORD PTR _this$[ebp]
  001c8	83 c0 0c	 add	 eax, 12			; 0000000cH
  001cb	50		 push	 eax
  001cc	68 00 00 00 00	 push	 OFFSET ??_C@_0DB@JBNKENAJ@?W?i?$LM?$PO?$LE?$LE?$LN?$KI?$LK?$KP?J?$PN?$KB?$LA?$CFs?$KB?$LB?$LC?z?I?z?N?$LE?V?$KK?R?l?$LD?$KD?$LE@
  001d1	68 80 00 00 00	 push	 128			; 00000080H
  001d6	8b 4d ec	 mov	 ecx, DWORD PTR _this$[ebp]
  001d9	81 c1 58 01 00
	00		 add	 ecx, 344		; 00000158H
  001df	51		 push	 ecx
  001e0	e8 00 00 00 00	 call	 ??$_snprintf_s@$0IA@@@YAHAAY0IA@DIPBDZZ ; _snprintf_s<128>
  001e5	83 c4 10	 add	 esp, 16			; 00000010H

; 255  : 		return false;

  001e8	c6 45 a2 00	 mov	 BYTE PTR $T2[ebp], 0
  001ec	b8 00 00 00 00	 mov	 eax, $LN15@CreateInst
  001f1	c3		 ret	 0

; 256  : 	}

  001f2	b8 00 00 00 00	 mov	 eax, $LN9@CreateInst
  001f7	c3		 ret	 0
$LN9@CreateInst:
  001f8	c7 45 fc ff ff
	ff ff		 mov	 DWORD PTR __$EHRec$[ebp+12], -1
  001ff	eb 0c		 jmp	 SHORT $LN14@CreateInst
$LN15@CreateInst:
  00201	c7 45 fc ff ff
	ff ff		 mov	 DWORD PTR __$EHRec$[ebp+12], -1

; 255  : 		return false;

  00208	8a 45 a2	 mov	 al, BYTE PTR $T2[ebp]
  0020b	eb 10		 jmp	 SHORT $LN1@CreateInst
$LN14@CreateInst:
  0020d	eb 0c		 jmp	 SHORT $LN12@CreateInst
$LN13@CreateInst:
  0020f	c7 45 fc ff ff
	ff ff		 mov	 DWORD PTR __$EHRec$[ebp+12], -1

; 250  : 		return false;

  00216	8a 45 a3	 mov	 al, BYTE PTR $T3[ebp]
  00219	eb 02		 jmp	 SHORT $LN1@CreateInst
$LN12@CreateInst:

; 257  : 
; 258  : 	return true;

  0021b	b0 01		 mov	 al, 1
$LN1@CreateInst:

; 259  : }

  0021d	8b 4d f4	 mov	 ecx, DWORD PTR __$EHRec$[ebp+4]
  00220	64 89 0d 00 00
	00 00		 mov	 DWORD PTR fs:0, ecx
  00227	59		 pop	 ecx
  00228	5f		 pop	 edi
  00229	5e		 pop	 esi
  0022a	5b		 pop	 ebx
  0022b	8b e5		 mov	 esp, ebp
  0022d	5d		 pop	 ebp
  0022e	c3		 ret	 0
_TEXT	ENDS
;	COMDAT text$x
text$x	SEGMENT
__ehhandler$?CreateInstance@?$CTempldateHelper@UIDataBase@@@@QAE_NXZ:
  00000	8b 54 24 08	 mov	 edx, DWORD PTR [esp+8]
  00004	8d 42 0c	 lea	 eax, DWORD PTR [edx+12]
  00007	8b 4a 98	 mov	 ecx, DWORD PTR [edx-104]
  0000a	33 c8		 xor	 ecx, eax
  0000c	e8 00 00 00 00	 call	 @__security_check_cookie@4
  00011	b8 00 00 00 00	 mov	 eax, OFFSET __ehfuncinfo$?CreateInstance@?$CTempldateHelper@UIDataBase@@@@QAE_NXZ
  00016	e9 00 00 00 00	 jmp	 ___CxxFrameHandler3
text$x	ENDS
?CreateInstance@?$CTempldateHelper@UIDataBase@@@@QAE_NXZ ENDP ; CTempldateHelper<IDataBase>::CreateInstance
; Function compile flags: /Odtp /ZI
; File g:\网狐\happygamewh\服务端\系统模块\全局定义\module.h
;	COMDAT ?CloseInstance@?$CTempldateHelper@UIDataBase@@@@QAE_NXZ
_TEXT	SEGMENT
_this$ = -4						; size = 4
?CloseInstance@?$CTempldateHelper@UIDataBase@@@@QAE_NXZ PROC ; CTempldateHelper<IDataBase>::CloseInstance, COMDAT
; _this$ = ecx

; 264  : {

  00000	55		 push	 ebp
  00001	8b ec		 mov	 ebp, esp
  00003	83 ec 44	 sub	 esp, 68			; 00000044H
  00006	53		 push	 ebx
  00007	56		 push	 esi
  00008	57		 push	 edi
  00009	89 4d fc	 mov	 DWORD PTR _this$[ebp], ecx

; 265  : 	//设置变量
; 266  : 	m_szDescribe[0]=0;

  0000c	b8 01 00 00 00	 mov	 eax, 1
  00011	6b c8 00	 imul	 ecx, eax, 0
  00014	8b 55 fc	 mov	 edx, DWORD PTR _this$[ebp]
  00017	c6 84 0a 58 01
	00 00 00	 mov	 BYTE PTR [edx+ecx+344], 0

; 267  : 
; 268  : 	//销毁对象
; 269  : 	if (m_pIModeluInterface!=NULL)

  0001f	8b 45 fc	 mov	 eax, DWORD PTR _this$[ebp]
  00022	83 b8 54 01 00
	00 00		 cmp	 DWORD PTR [eax+340], 0
  00029	74 25		 je	 SHORT $LN2@CloseInsta

; 270  : 	{
; 271  : 		m_pIModeluInterface->Release();

  0002b	8b 45 fc	 mov	 eax, DWORD PTR _this$[ebp]
  0002e	8b 88 54 01 00
	00		 mov	 ecx, DWORD PTR [eax+340]
  00034	8b 55 fc	 mov	 edx, DWORD PTR _this$[ebp]
  00037	8b 01		 mov	 eax, DWORD PTR [ecx]
  00039	8b 8a 54 01 00
	00		 mov	 ecx, DWORD PTR [edx+340]
  0003f	8b 10		 mov	 edx, DWORD PTR [eax]
  00041	ff d2		 call	 edx

; 272  : 		m_pIModeluInterface=NULL;

  00043	8b 45 fc	 mov	 eax, DWORD PTR _this$[ebp]
  00046	c7 80 54 01 00
	00 00 00 00 00	 mov	 DWORD PTR [eax+340], 0
$LN2@CloseInsta:

; 273  : 	}
; 274  : 
; 275  : 	//释放 DLL
; 276  : 	if (m_hDllInstance!=NULL)

  00050	8b 45 fc	 mov	 eax, DWORD PTR _this$[ebp]
  00053	83 b8 50 01 00
	00 00		 cmp	 DWORD PTR [eax+336], 0
  0005a	74 1c		 je	 SHORT $LN3@CloseInsta

; 277  : 	{
; 278  : 		AfxFreeLibrary(m_hDllInstance);

  0005c	8b 45 fc	 mov	 eax, DWORD PTR _this$[ebp]
  0005f	8b 88 50 01 00
	00		 mov	 ecx, DWORD PTR [eax+336]
  00065	51		 push	 ecx
  00066	e8 00 00 00 00	 call	 ?AfxFreeLibrary@@YGHPAUHINSTANCE__@@@Z ; AfxFreeLibrary

; 279  : 		m_hDllInstance=NULL;

  0006b	8b 45 fc	 mov	 eax, DWORD PTR _this$[ebp]
  0006e	c7 80 50 01 00
	00 00 00 00 00	 mov	 DWORD PTR [eax+336], 0
$LN3@CloseInsta:

; 280  : 	}
; 281  : 
; 282  : 	return true;

  00078	b0 01		 mov	 al, 1

; 283  : }

  0007a	5f		 pop	 edi
  0007b	5e		 pop	 esi
  0007c	5b		 pop	 ebx
  0007d	8b e5		 mov	 esp, ebp
  0007f	5d		 pop	 ebp
  00080	c3		 ret	 0
?CloseInstance@?$CTempldateHelper@UIDataBase@@@@QAE_NXZ ENDP ; CTempldateHelper<IDataBase>::CloseInstance
_TEXT	ENDS
; Function compile flags: /Odtp /ZI
; File g:\网狐\happygamewh\服务端\系统模块\全局定义\module.h
;	COMDAT ??1?$CTempldateHelper@UIDataBase@@@@UAE@XZ
_TEXT	SEGMENT
_this$ = -16						; size = 4
__$EHRec$ = -12						; size = 12
??1?$CTempldateHelper@UIDataBase@@@@UAE@XZ PROC		; CTempldateHelper<IDataBase>::~CTempldateHelper<IDataBase>, COMDAT
; _this$ = ecx

; 205  : {

  00000	55		 push	 ebp
  00001	8b ec		 mov	 ebp, esp
  00003	6a ff		 push	 -1
  00005	68 00 00 00 00	 push	 __ehhandler$??1?$CTempldateHelper@UIDataBase@@@@UAE@XZ
  0000a	64 a1 00 00 00
	00		 mov	 eax, DWORD PTR fs:0
  00010	50		 push	 eax
  00011	83 ec 44	 sub	 esp, 68			; 00000044H
  00014	53		 push	 ebx
  00015	56		 push	 esi
  00016	57		 push	 edi
  00017	a1 00 00 00 00	 mov	 eax, DWORD PTR ___security_cookie
  0001c	33 c5		 xor	 eax, ebp
  0001e	50		 push	 eax
  0001f	8d 45 f4	 lea	 eax, DWORD PTR __$EHRec$[ebp]
  00022	64 a3 00 00 00
	00		 mov	 DWORD PTR fs:0, eax
  00028	89 4d f0	 mov	 DWORD PTR _this$[ebp], ecx
  0002b	8b 45 f0	 mov	 eax, DWORD PTR _this$[ebp]
  0002e	c7 00 00 00 00
	00		 mov	 DWORD PTR [eax], OFFSET ??_7?$CTempldateHelper@UIDataBase@@@@6B@

; 206  : 	CloseInstance();

  00034	8b 4d f0	 mov	 ecx, DWORD PTR _this$[ebp]
  00037	e8 00 00 00 00	 call	 ?CloseInstance@?$CTempldateHelper@UIDataBase@@@@QAE_NXZ ; CTempldateHelper<IDataBase>::CloseInstance

; 207  : }

  0003c	8b 4d f4	 mov	 ecx, DWORD PTR __$EHRec$[ebp]
  0003f	64 89 0d 00 00
	00 00		 mov	 DWORD PTR fs:0, ecx
  00046	59		 pop	 ecx
  00047	5f		 pop	 edi
  00048	5e		 pop	 esi
  00049	5b		 pop	 ebx
  0004a	8b e5		 mov	 esp, ebp
  0004c	5d		 pop	 ebp
  0004d	c3		 ret	 0
_TEXT	ENDS
;	COMDAT text$x
text$x	SEGMENT
__ehhandler$??1?$CTempldateHelper@UIDataBase@@@@UAE@XZ:
  00000	8b 54 24 08	 mov	 edx, DWORD PTR [esp+8]
  00004	8d 42 0c	 lea	 eax, DWORD PTR [edx+12]
  00007	8b 4a ac	 mov	 ecx, DWORD PTR [edx-84]
  0000a	33 c8		 xor	 ecx, eax
  0000c	e8 00 00 00 00	 call	 @__security_check_cookie@4
  00011	b8 00 00 00 00	 mov	 eax, OFFSET __ehfuncinfo$??1?$CTempldateHelper@UIDataBase@@@@UAE@XZ
  00016	e9 00 00 00 00	 jmp	 ___CxxFrameHandler3
text$x	ENDS
??1?$CTempldateHelper@UIDataBase@@@@UAE@XZ ENDP		; CTempldateHelper<IDataBase>::~CTempldateHelper<IDataBase>
; Function compile flags: /Odtp /ZI
; File g:\网狐\happygamewh\服务端\系统模块\全局定义\module.h
;	COMDAT ??0?$CTempldateHelper@UIDataBase@@@@QAE@ABU_GUID@@KPBD1@Z
_TEXT	SEGMENT
_this$ = -4						; size = 4
_Guid$ = 8						; size = 4
_dwVersion$ = 12					; size = 4
_pszModuleDll$ = 16					; size = 4
_pszCreateProc$ = 20					; size = 4
??0?$CTempldateHelper@UIDataBase@@@@QAE@ABU_GUID@@KPBD1@Z PROC ; CTempldateHelper<IDataBase>::CTempldateHelper<IDataBase>, COMDAT
; _this$ = ecx

; 187  : {

  00000	55		 push	 ebp
  00001	8b ec		 mov	 ebp, esp
  00003	83 ec 44	 sub	 esp, 68			; 00000044H
  00006	53		 push	 ebx
  00007	56		 push	 esi
  00008	57		 push	 edi
  00009	89 4d fc	 mov	 DWORD PTR _this$[ebp], ecx
  0000c	8b 45 fc	 mov	 eax, DWORD PTR _this$[ebp]
  0000f	c7 00 00 00 00
	00		 mov	 DWORD PTR [eax], OFFSET ??_7?$CTempldateHelper@UIDataBase@@@@6B@

; 186  : CTempldateHelper<IModeluInterface>::CTempldateHelper(REFGUID Guid, DWORD dwVersion, LPCTSTR pszModuleDll, LPCSTR pszCreateProc) : m_dwVersion(dwVersion), m_Guid(Guid)

  00015	8b 45 fc	 mov	 eax, DWORD PTR _this$[ebp]
  00018	8b 4d 08	 mov	 ecx, DWORD PTR _Guid$[ebp]
  0001b	89 48 04	 mov	 DWORD PTR [eax+4], ecx
  0001e	8b 45 fc	 mov	 eax, DWORD PTR _this$[ebp]
  00021	8b 4d 0c	 mov	 ecx, DWORD PTR _dwVersion$[ebp]
  00024	89 48 08	 mov	 DWORD PTR [eax+8], ecx

; 188  : 	//辅助变量
; 189  : 	m_szDescribe[0]=0;

  00027	b8 01 00 00 00	 mov	 eax, 1
  0002c	6b c8 00	 imul	 ecx, eax, 0
  0002f	8b 55 fc	 mov	 edx, DWORD PTR _this$[ebp]
  00032	c6 84 0a 58 01
	00 00 00	 mov	 BYTE PTR [edx+ecx+344], 0

; 190  : 
; 191  : 	//内核信息
; 192  : 	m_hDllInstance=NULL;

  0003a	8b 45 fc	 mov	 eax, DWORD PTR _this$[ebp]
  0003d	c7 80 50 01 00
	00 00 00 00 00	 mov	 DWORD PTR [eax+336], 0

; 193  : 	m_pIModeluInterface=NULL;

  00047	8b 45 fc	 mov	 eax, DWORD PTR _this$[ebp]
  0004a	c7 80 54 01 00
	00 00 00 00 00	 mov	 DWORD PTR [eax+340], 0

; 194  : 
; 195  : 	//组件属性
; 196  : 	lstrcpynA(m_szCreateProc,pszCreateProc,CountArray(m_szCreateProc));

  00054	6a 40		 push	 64			; 00000040H
  00056	8b 45 14	 mov	 eax, DWORD PTR _pszCreateProc$[ebp]
  00059	50		 push	 eax
  0005a	8b 4d fc	 mov	 ecx, DWORD PTR _this$[ebp]
  0005d	83 c1 0c	 add	 ecx, 12			; 0000000cH
  00060	51		 push	 ecx
  00061	ff 15 00 00 00
	00		 call	 DWORD PTR __imp__lstrcpynA@12

; 197  : 	lstrcpyn(m_szModuleDllName,pszModuleDll,CountArray(m_szModuleDllName));

  00067	68 04 01 00 00	 push	 260			; 00000104H
  0006c	8b 45 10	 mov	 eax, DWORD PTR _pszModuleDll$[ebp]
  0006f	50		 push	 eax
  00070	8b 4d fc	 mov	 ecx, DWORD PTR _this$[ebp]
  00073	83 c1 4c	 add	 ecx, 76			; 0000004cH
  00076	51		 push	 ecx
  00077	ff 15 00 00 00
	00		 call	 DWORD PTR __imp__lstrcpynA@12

; 198  : 
; 199  : 	return;
; 200  : }

  0007d	8b 45 fc	 mov	 eax, DWORD PTR _this$[ebp]
  00080	5f		 pop	 edi
  00081	5e		 pop	 esi
  00082	5b		 pop	 ebx
  00083	8b e5		 mov	 esp, ebp
  00085	5d		 pop	 ebp
  00086	c2 10 00	 ret	 16			; 00000010H
??0?$CTempldateHelper@UIDataBase@@@@QAE@ABU_GUID@@KPBD1@Z ENDP ; CTempldateHelper<IDataBase>::CTempldateHelper<IDataBase>
_TEXT	ENDS
; Function compile flags: /Odtp /ZI
; File g:\网狐\happygamewh\服务端\系统模块\全局定义\serverrule.h
;	COMDAT ?SetAllowAndroidSimulate@CServerRule@@SAXAAK_N@Z
_TEXT	SEGMENT
tv68 = -68						; size = 4
_dwServerRule$ = 8					; size = 4
_bEnable$ = 12						; size = 1
?SetAllowAndroidSimulate@CServerRule@@SAXAAK_N@Z PROC	; CServerRule::SetAllowAndroidSimulate, COMDAT

; 172  : 	static VOID SetAllowAndroidSimulate(DWORD & dwServerRule, bool bEnable) { (bEnable==true)?dwServerRule|=SR_ALLOW_ANDROID_SIMULATE:dwServerRule&=~SR_ALLOW_ANDROID_SIMULATE; }

  00000	55		 push	 ebp
  00001	8b ec		 mov	 ebp, esp
  00003	83 ec 44	 sub	 esp, 68			; 00000044H
  00006	53		 push	 ebx
  00007	56		 push	 esi
  00008	57		 push	 edi
  00009	0f b6 45 0c	 movzx	 eax, BYTE PTR _bEnable$[ebp]
  0000d	83 f8 01	 cmp	 eax, 1
  00010	75 1a		 jne	 SHORT $LN3@SetAllowAn
  00012	8b 4d 08	 mov	 ecx, DWORD PTR _dwServerRule$[ebp]
  00015	8b 11		 mov	 edx, DWORD PTR [ecx]
  00017	81 ca 00 00 80
	00		 or	 edx, 8388608		; 00800000H
  0001d	8b 45 08	 mov	 eax, DWORD PTR _dwServerRule$[ebp]
  00020	89 10		 mov	 DWORD PTR [eax], edx
  00022	8b 4d 08	 mov	 ecx, DWORD PTR _dwServerRule$[ebp]
  00025	8b 11		 mov	 edx, DWORD PTR [ecx]
  00027	89 55 bc	 mov	 DWORD PTR tv68[ebp], edx
  0002a	eb 18		 jmp	 SHORT $LN1@SetAllowAn
$LN3@SetAllowAn:
  0002c	8b 45 08	 mov	 eax, DWORD PTR _dwServerRule$[ebp]
  0002f	8b 08		 mov	 ecx, DWORD PTR [eax]
  00031	81 e1 ff ff 7f
	ff		 and	 ecx, -8388609		; ff7fffffH
  00037	8b 55 08	 mov	 edx, DWORD PTR _dwServerRule$[ebp]
  0003a	89 0a		 mov	 DWORD PTR [edx], ecx
  0003c	8b 45 08	 mov	 eax, DWORD PTR _dwServerRule$[ebp]
  0003f	8b 08		 mov	 ecx, DWORD PTR [eax]
  00041	89 4d bc	 mov	 DWORD PTR tv68[ebp], ecx
$LN1@SetAllowAn:
  00044	5f		 pop	 edi
  00045	5e		 pop	 esi
  00046	5b		 pop	 ebx
  00047	8b e5		 mov	 esp, ebp
  00049	5d		 pop	 ebp
  0004a	c3		 ret	 0
?SetAllowAndroidSimulate@CServerRule@@SAXAAK_N@Z ENDP	; CServerRule::SetAllowAndroidSimulate
_TEXT	ENDS
; Function compile flags: /Odtp /ZI
; File g:\网狐\happygamewh\服务端\系统模块\全局定义\serverrule.h
;	COMDAT ?SetForfendGameRule@CServerRule@@SAXAAK_N@Z
_TEXT	SEGMENT
tv68 = -68						; size = 4
_dwServerRule$ = 8					; size = 4
_bEnable$ = 12						; size = 1
?SetForfendGameRule@CServerRule@@SAXAAK_N@Z PROC	; CServerRule::SetForfendGameRule, COMDAT

; 166  : 	static VOID SetForfendGameRule(DWORD & dwServerRule, bool bEnable) { (bEnable==true)?dwServerRule|=SR_FORFEND_GAME_RULE:dwServerRule&=~SR_FORFEND_GAME_RULE; }

  00000	55		 push	 ebp
  00001	8b ec		 mov	 ebp, esp
  00003	83 ec 44	 sub	 esp, 68			; 00000044H
  00006	53		 push	 ebx
  00007	56		 push	 esi
  00008	57		 push	 edi
  00009	0f b6 45 0c	 movzx	 eax, BYTE PTR _bEnable$[ebp]
  0000d	83 f8 01	 cmp	 eax, 1
  00010	75 1a		 jne	 SHORT $LN3@SetForfend
  00012	8b 4d 08	 mov	 ecx, DWORD PTR _dwServerRule$[ebp]
  00015	8b 11		 mov	 edx, DWORD PTR [ecx]
  00017	81 ca 00 00 10
	00		 or	 edx, 1048576		; 00100000H
  0001d	8b 45 08	 mov	 eax, DWORD PTR _dwServerRule$[ebp]
  00020	89 10		 mov	 DWORD PTR [eax], edx
  00022	8b 4d 08	 mov	 ecx, DWORD PTR _dwServerRule$[ebp]
  00025	8b 11		 mov	 edx, DWORD PTR [ecx]
  00027	89 55 bc	 mov	 DWORD PTR tv68[ebp], edx
  0002a	eb 18		 jmp	 SHORT $LN1@SetForfend
$LN3@SetForfend:
  0002c	8b 45 08	 mov	 eax, DWORD PTR _dwServerRule$[ebp]
  0002f	8b 08		 mov	 ecx, DWORD PTR [eax]
  00031	81 e1 ff ff ef
	ff		 and	 ecx, -1048577		; ffefffffH
  00037	8b 55 08	 mov	 edx, DWORD PTR _dwServerRule$[ebp]
  0003a	89 0a		 mov	 DWORD PTR [edx], ecx
  0003c	8b 45 08	 mov	 eax, DWORD PTR _dwServerRule$[ebp]
  0003f	8b 08		 mov	 ecx, DWORD PTR [eax]
  00041	89 4d bc	 mov	 DWORD PTR tv68[ebp], ecx
$LN1@SetForfend:
  00044	5f		 pop	 edi
  00045	5e		 pop	 esi
  00046	5b		 pop	 ebx
  00047	8b e5		 mov	 esp, ebp
  00049	5d		 pop	 ebp
  0004a	c3		 ret	 0
?SetForfendGameRule@CServerRule@@SAXAAK_N@Z ENDP	; CServerRule::SetForfendGameRule
_TEXT	ENDS
; Function compile flags: /Odtp /ZI
; File g:\网狐\happygamewh\服务端\系统模块\全局定义\serverrule.h
;	COMDAT ?SetImmediateWriteScore@CServerRule@@SAXAAK_N@Z
_TEXT	SEGMENT
tv68 = -68						; size = 4
_dwServerRule$ = 8					; size = 4
_bEnable$ = 12						; size = 1
?SetImmediateWriteScore@CServerRule@@SAXAAK_N@Z PROC	; CServerRule::SetImmediateWriteScore, COMDAT

; 141  : 	static VOID SetImmediateWriteScore(DWORD & dwServerRule, bool bEnable) { (bEnable==true)?dwServerRule|=SR_IMMEDIATE_WRITE_SCORE:dwServerRule&=~SR_IMMEDIATE_WRITE_SCORE; }

  00000	55		 push	 ebp
  00001	8b ec		 mov	 ebp, esp
  00003	83 ec 44	 sub	 esp, 68			; 00000044H
  00006	53		 push	 ebx
  00007	56		 push	 esi
  00008	57		 push	 edi
  00009	0f b6 45 0c	 movzx	 eax, BYTE PTR _bEnable$[ebp]
  0000d	83 f8 01	 cmp	 eax, 1
  00010	75 1a		 jne	 SHORT $LN3@SetImmedia
  00012	8b 4d 08	 mov	 ecx, DWORD PTR _dwServerRule$[ebp]
  00015	8b 11		 mov	 edx, DWORD PTR [ecx]
  00017	81 ca 00 08 00
	00		 or	 edx, 2048		; 00000800H
  0001d	8b 45 08	 mov	 eax, DWORD PTR _dwServerRule$[ebp]
  00020	89 10		 mov	 DWORD PTR [eax], edx
  00022	8b 4d 08	 mov	 ecx, DWORD PTR _dwServerRule$[ebp]
  00025	8b 11		 mov	 edx, DWORD PTR [ecx]
  00027	89 55 bc	 mov	 DWORD PTR tv68[ebp], edx
  0002a	eb 18		 jmp	 SHORT $LN1@SetImmedia
$LN3@SetImmedia:
  0002c	8b 45 08	 mov	 eax, DWORD PTR _dwServerRule$[ebp]
  0002f	8b 08		 mov	 ecx, DWORD PTR [eax]
  00031	81 e1 ff f7 ff
	ff		 and	 ecx, -2049		; fffff7ffH
  00037	8b 55 08	 mov	 edx, DWORD PTR _dwServerRule$[ebp]
  0003a	89 0a		 mov	 DWORD PTR [edx], ecx
  0003c	8b 45 08	 mov	 eax, DWORD PTR _dwServerRule$[ebp]
  0003f	8b 08		 mov	 ecx, DWORD PTR [eax]
  00041	89 4d bc	 mov	 DWORD PTR tv68[ebp], ecx
$LN1@SetImmedia:
  00044	5f		 pop	 edi
  00045	5e		 pop	 esi
  00046	5b		 pop	 ebx
  00047	8b e5		 mov	 esp, ebp
  00049	5d		 pop	 ebp
  0004a	c3		 ret	 0
?SetImmediateWriteScore@CServerRule@@SAXAAK_N@Z ENDP	; CServerRule::SetImmediateWriteScore
_TEXT	ENDS
; Function compile flags: /Odtp /ZI
; File g:\网狐\happygamewh\服务端\系统模块\全局定义\serverrule.h
;	COMDAT ?SetRecordGameScore@CServerRule@@SAXAAK_N@Z
_TEXT	SEGMENT
tv68 = -68						; size = 4
_dwServerRule$ = 8					; size = 4
_bEnable$ = 12						; size = 1
?SetRecordGameScore@CServerRule@@SAXAAK_N@Z PROC	; CServerRule::SetRecordGameScore, COMDAT

; 135  : 	static VOID SetRecordGameScore(DWORD & dwServerRule, bool bEnable) { (bEnable==true)?dwServerRule|=SR_RECORD_GAME_SCORE:dwServerRule&=~SR_RECORD_GAME_SCORE; }

  00000	55		 push	 ebp
  00001	8b ec		 mov	 ebp, esp
  00003	83 ec 44	 sub	 esp, 68			; 00000044H
  00006	53		 push	 ebx
  00007	56		 push	 esi
  00008	57		 push	 edi
  00009	0f b6 45 0c	 movzx	 eax, BYTE PTR _bEnable$[ebp]
  0000d	83 f8 01	 cmp	 eax, 1
  00010	75 1a		 jne	 SHORT $LN3@SetRecordG
  00012	8b 4d 08	 mov	 ecx, DWORD PTR _dwServerRule$[ebp]
  00015	8b 11		 mov	 edx, DWORD PTR [ecx]
  00017	81 ca 00 01 00
	00		 or	 edx, 256		; 00000100H
  0001d	8b 45 08	 mov	 eax, DWORD PTR _dwServerRule$[ebp]
  00020	89 10		 mov	 DWORD PTR [eax], edx
  00022	8b 4d 08	 mov	 ecx, DWORD PTR _dwServerRule$[ebp]
  00025	8b 11		 mov	 edx, DWORD PTR [ecx]
  00027	89 55 bc	 mov	 DWORD PTR tv68[ebp], edx
  0002a	eb 18		 jmp	 SHORT $LN1@SetRecordG
$LN3@SetRecordG:
  0002c	8b 45 08	 mov	 eax, DWORD PTR _dwServerRule$[ebp]
  0002f	8b 08		 mov	 ecx, DWORD PTR [eax]
  00031	81 e1 ff fe ff
	ff		 and	 ecx, -257		; fffffeffH
  00037	8b 55 08	 mov	 edx, DWORD PTR _dwServerRule$[ebp]
  0003a	89 0a		 mov	 DWORD PTR [edx], ecx
  0003c	8b 45 08	 mov	 eax, DWORD PTR _dwServerRule$[ebp]
  0003f	8b 08		 mov	 ecx, DWORD PTR [eax]
  00041	89 4d bc	 mov	 DWORD PTR tv68[ebp], ecx
$LN1@SetRecordG:
  00044	5f		 pop	 edi
  00045	5e		 pop	 esi
  00046	5b		 pop	 ebx
  00047	8b e5		 mov	 esp, ebp
  00049	5d		 pop	 ebp
  0004a	c3		 ret	 0
?SetRecordGameScore@CServerRule@@SAXAAK_N@Z ENDP	; CServerRule::SetRecordGameScore
_TEXT	ENDS
; Function compile flags: /Odtp /ZI
; File g:\网狐\happygamewh\服务端\系统模块\全局定义\serverrule.h
;	COMDAT ?SetAllowAvertCheatMode@CServerRule@@SAXAAK_N@Z
_TEXT	SEGMENT
tv68 = -68						; size = 4
_dwServerRule$ = 8					; size = 4
_bEnable$ = 12						; size = 1
?SetAllowAvertCheatMode@CServerRule@@SAXAAK_N@Z PROC	; CServerRule::SetAllowAvertCheatMode, COMDAT

; 130  : 	static VOID SetAllowAvertCheatMode(DWORD & dwServerRule, bool bEnable) { (bEnable==true)?dwServerRule|=SR_ALLOW_AVERT_CHEAT_MODE:dwServerRule&=~SR_ALLOW_AVERT_CHEAT_MODE; }

  00000	55		 push	 ebp
  00001	8b ec		 mov	 ebp, esp
  00003	83 ec 44	 sub	 esp, 68			; 00000044H
  00006	53		 push	 ebx
  00007	56		 push	 esi
  00008	57		 push	 edi
  00009	0f b6 45 0c	 movzx	 eax, BYTE PTR _bEnable$[ebp]
  0000d	83 f8 01	 cmp	 eax, 1
  00010	75 17		 jne	 SHORT $LN3@SetAllowAv
  00012	8b 4d 08	 mov	 ecx, DWORD PTR _dwServerRule$[ebp]
  00015	8b 11		 mov	 edx, DWORD PTR [ecx]
  00017	83 ca 40	 or	 edx, 64			; 00000040H
  0001a	8b 45 08	 mov	 eax, DWORD PTR _dwServerRule$[ebp]
  0001d	89 10		 mov	 DWORD PTR [eax], edx
  0001f	8b 4d 08	 mov	 ecx, DWORD PTR _dwServerRule$[ebp]
  00022	8b 11		 mov	 edx, DWORD PTR [ecx]
  00024	89 55 bc	 mov	 DWORD PTR tv68[ebp], edx
  00027	eb 15		 jmp	 SHORT $LN1@SetAllowAv
$LN3@SetAllowAv:
  00029	8b 45 08	 mov	 eax, DWORD PTR _dwServerRule$[ebp]
  0002c	8b 08		 mov	 ecx, DWORD PTR [eax]
  0002e	83 e1 bf	 and	 ecx, -65		; ffffffbfH
  00031	8b 55 08	 mov	 edx, DWORD PTR _dwServerRule$[ebp]
  00034	89 0a		 mov	 DWORD PTR [edx], ecx
  00036	8b 45 08	 mov	 eax, DWORD PTR _dwServerRule$[ebp]
  00039	8b 08		 mov	 ecx, DWORD PTR [eax]
  0003b	89 4d bc	 mov	 DWORD PTR tv68[ebp], ecx
$LN1@SetAllowAv:
  0003e	5f		 pop	 edi
  0003f	5e		 pop	 esi
  00040	5b		 pop	 ebx
  00041	8b e5		 mov	 esp, ebp
  00043	5d		 pop	 ebp
  00044	c3		 ret	 0
?SetAllowAvertCheatMode@CServerRule@@SAXAAK_N@Z ENDP	; CServerRule::SetAllowAvertCheatMode
_TEXT	ENDS
; Function compile flags: /Odtp /ZI
; File c:\program files (x86)\microsoft visual studio\2017\community\vc\tools\msvc\14.16.27023\atlmfc\include\atltypes.h
;	COMDAT ??0CRect@@QAE@HHHH@Z
_TEXT	SEGMENT
_this$ = -4						; size = 4
_l$ = 8							; size = 4
_t$ = 12						; size = 4
_r$ = 16						; size = 4
_b$ = 20						; size = 4
??0CRect@@QAE@HHHH@Z PROC				; CRect::CRect, COMDAT
; _this$ = ecx

; 539  : {

  00000	55		 push	 ebp
  00001	8b ec		 mov	 ebp, esp
  00003	83 ec 44	 sub	 esp, 68			; 00000044H
  00006	53		 push	 ebx
  00007	56		 push	 esi
  00008	57		 push	 edi
  00009	89 4d fc	 mov	 DWORD PTR _this$[ebp], ecx

; 540  : 	left = l;

  0000c	8b 45 fc	 mov	 eax, DWORD PTR _this$[ebp]
  0000f	8b 4d 08	 mov	 ecx, DWORD PTR _l$[ebp]
  00012	89 08		 mov	 DWORD PTR [eax], ecx

; 541  : 	top = t;

  00014	8b 45 fc	 mov	 eax, DWORD PTR _this$[ebp]
  00017	8b 4d 0c	 mov	 ecx, DWORD PTR _t$[ebp]
  0001a	89 48 04	 mov	 DWORD PTR [eax+4], ecx

; 542  : 	right = r;

  0001d	8b 45 fc	 mov	 eax, DWORD PTR _this$[ebp]
  00020	8b 4d 10	 mov	 ecx, DWORD PTR _r$[ebp]
  00023	89 48 08	 mov	 DWORD PTR [eax+8], ecx

; 543  : 	bottom = b;

  00026	8b 45 fc	 mov	 eax, DWORD PTR _this$[ebp]
  00029	8b 4d 14	 mov	 ecx, DWORD PTR _b$[ebp]
  0002c	89 48 0c	 mov	 DWORD PTR [eax+12], ecx

; 544  : }

  0002f	8b 45 fc	 mov	 eax, DWORD PTR _this$[ebp]
  00032	5f		 pop	 edi
  00033	5e		 pop	 esi
  00034	5b		 pop	 ebx
  00035	8b e5		 mov	 esp, ebp
  00037	5d		 pop	 ebp
  00038	c2 10 00	 ret	 16			; 00000010H
??0CRect@@QAE@HHHH@Z ENDP				; CRect::CRect
_TEXT	ENDS
; Function compile flags: /Odtp /ZI
; File c:\program files (x86)\microsoft visual studio\2017\community\vc\tools\msvc\14.16.27023\atlmfc\include\afx.h
;	COMDAT ?AfxAssertFailedLine@@YGHPBDH@Z
_TEXT	SEGMENT
_bResult$ = -36						; size = 4
_bQuit$ = -32						; size = 4
_msg$ = -28						; size = 28
_lpszFileName$ = 8					; size = 4
_nLine$ = 12						; size = 4
?AfxAssertFailedLine@@YGHPBDH@Z PROC			; AfxAssertFailedLine, COMDAT

; 312  : {

  00000	55		 push	 ebp
  00001	8b ec		 mov	 ebp, esp
  00003	83 ec 64	 sub	 esp, 100		; 00000064H
  00006	53		 push	 ebx
  00007	56		 push	 esi
  00008	57		 push	 edi

; 313  : 	// we remove WM_QUIT because if it is in the queue then the message box
; 314  : 	// won't display
; 315  : 	MSG msg;
; 316  : 	BOOL bQuit = PeekMessage(&msg, NULL, WM_QUIT, WM_QUIT, PM_REMOVE);

  00009	6a 01		 push	 1
  0000b	6a 12		 push	 18			; 00000012H
  0000d	6a 12		 push	 18			; 00000012H
  0000f	6a 00		 push	 0
  00011	8d 45 e4	 lea	 eax, DWORD PTR _msg$[ebp]
  00014	50		 push	 eax
  00015	ff 15 00 00 00
	00		 call	 DWORD PTR __imp__PeekMessageA@20
  0001b	89 45 e0	 mov	 DWORD PTR _bQuit$[ebp], eax

; 317  : 	BOOL bResult = _CrtDbgReport(_CRT_ASSERT, lpszFileName, nLine, NULL, NULL);

  0001e	6a 00		 push	 0
  00020	6a 00		 push	 0
  00022	8b 45 0c	 mov	 eax, DWORD PTR _nLine$[ebp]
  00025	50		 push	 eax
  00026	8b 4d 08	 mov	 ecx, DWORD PTR _lpszFileName$[ebp]
  00029	51		 push	 ecx
  0002a	6a 02		 push	 2
  0002c	ff 15 00 00 00
	00		 call	 DWORD PTR __imp___CrtDbgReport
  00032	83 c4 14	 add	 esp, 20			; 00000014H
  00035	89 45 dc	 mov	 DWORD PTR _bResult$[ebp], eax

; 318  : 	if (bQuit)

  00038	83 7d e0 00	 cmp	 DWORD PTR _bQuit$[ebp], 0
  0003c	74 0a		 je	 SHORT $LN2@AfxAssertF

; 319  : 		PostQuitMessage((int)msg.wParam);

  0003e	8b 45 ec	 mov	 eax, DWORD PTR _msg$[ebp+8]
  00041	50		 push	 eax
  00042	ff 15 00 00 00
	00		 call	 DWORD PTR __imp__PostQuitMessage@4
$LN2@AfxAssertF:

; 320  : 	return bResult;

  00048	8b 45 dc	 mov	 eax, DWORD PTR _bResult$[ebp]

; 321  : }

  0004b	5f		 pop	 edi
  0004c	5e		 pop	 esi
  0004d	5b		 pop	 ebx
  0004e	8b e5		 mov	 esp, ebp
  00050	5d		 pop	 ebp
  00051	c2 08 00	 ret	 8
?AfxAssertFailedLine@@YGHPBDH@Z ENDP			; AfxAssertFailedLine
_TEXT	ENDS
; Function compile flags: /Odtp /ZI
; File c:\program files (x86)\windows kits\10\include\10.0.17763.0\ucrt\stdio.h
;	COMDAT __snprintf
_TEXT	SEGMENT
__ArgList$ = -8						; size = 4
__Result$ = -4						; size = 4
__Buffer$ = 8						; size = 4
__BufferCount$ = 12					; size = 4
__Format$ = 16						; size = 4
__snprintf PROC						; COMDAT

; 1969 :     {

  00000	55		 push	 ebp
  00001	8b ec		 mov	 ebp, esp
  00003	83 ec 4c	 sub	 esp, 76			; 0000004cH
  00006	53		 push	 ebx
  00007	56		 push	 esi
  00008	57		 push	 edi

; 1970 :         int _Result;
; 1971 :         va_list _ArgList;
; 1972 :         __crt_va_start(_ArgList, _Format);

  00009	8d 45 14	 lea	 eax, DWORD PTR __Format$[ebp+4]
  0000c	89 45 f8	 mov	 DWORD PTR __ArgList$[ebp], eax

; 1973 :     #pragma warning(suppress:28719)    // 28719
; 1974 :         _Result = _vsnprintf(_Buffer, _BufferCount, _Format, _ArgList);

  0000f	8b 45 f8	 mov	 eax, DWORD PTR __ArgList$[ebp]
  00012	50		 push	 eax
  00013	8b 4d 10	 mov	 ecx, DWORD PTR __Format$[ebp]
  00016	51		 push	 ecx
  00017	8b 55 0c	 mov	 edx, DWORD PTR __BufferCount$[ebp]
  0001a	52		 push	 edx
  0001b	8b 45 08	 mov	 eax, DWORD PTR __Buffer$[ebp]
  0001e	50		 push	 eax
  0001f	e8 00 00 00 00	 call	 __vsnprintf
  00024	83 c4 10	 add	 esp, 16			; 00000010H
  00027	89 45 fc	 mov	 DWORD PTR __Result$[ebp], eax

; 1975 :         __crt_va_end(_ArgList);

  0002a	c7 45 f8 00 00
	00 00		 mov	 DWORD PTR __ArgList$[ebp], 0

; 1976 :         return _Result;

  00031	8b 45 fc	 mov	 eax, DWORD PTR __Result$[ebp]

; 1977 :     }

  00034	5f		 pop	 edi
  00035	5e		 pop	 esi
  00036	5b		 pop	 ebx
  00037	8b e5		 mov	 esp, ebp
  00039	5d		 pop	 ebp
  0003a	c3		 ret	 0
__snprintf ENDP
_TEXT	ENDS
; Function compile flags: /Odtp /ZI
; File c:\program files (x86)\windows kits\10\include\10.0.17763.0\ucrt\stdio.h
;	COMDAT __vsnprintf_s
_TEXT	SEGMENT
__Buffer$ = 8						; size = 4
__BufferCount$ = 12					; size = 4
__MaxCount$ = 16					; size = 4
__Format$ = 20						; size = 4
__ArgList$ = 24						; size = 4
__vsnprintf_s PROC					; COMDAT

; 1605 :     {

  00000	55		 push	 ebp
  00001	8b ec		 mov	 ebp, esp
  00003	83 ec 40	 sub	 esp, 64			; 00000040H
  00006	53		 push	 ebx
  00007	56		 push	 esi
  00008	57		 push	 edi

; 1606 :         return _vsnprintf_s_l(_Buffer, _BufferCount, _MaxCount, _Format, NULL, _ArgList);

  00009	8b 45 18	 mov	 eax, DWORD PTR __ArgList$[ebp]
  0000c	50		 push	 eax
  0000d	6a 00		 push	 0
  0000f	8b 4d 14	 mov	 ecx, DWORD PTR __Format$[ebp]
  00012	51		 push	 ecx
  00013	8b 55 10	 mov	 edx, DWORD PTR __MaxCount$[ebp]
  00016	52		 push	 edx
  00017	8b 45 0c	 mov	 eax, DWORD PTR __BufferCount$[ebp]
  0001a	50		 push	 eax
  0001b	8b 4d 08	 mov	 ecx, DWORD PTR __Buffer$[ebp]
  0001e	51		 push	 ecx
  0001f	e8 00 00 00 00	 call	 __vsnprintf_s_l
  00024	83 c4 18	 add	 esp, 24			; 00000018H

; 1607 :     }

  00027	5f		 pop	 edi
  00028	5e		 pop	 esi
  00029	5b		 pop	 ebx
  0002a	8b e5		 mov	 esp, ebp
  0002c	5d		 pop	 ebp
  0002d	c3		 ret	 0
__vsnprintf_s ENDP
_TEXT	ENDS
; Function compile flags: /Odtp /ZI
; File c:\program files (x86)\windows kits\10\include\10.0.17763.0\ucrt\stdio.h
;	COMDAT __vsnprintf_s_l
_TEXT	SEGMENT
tv74 = -72						; size = 4
__Result$ = -4						; size = 4
__Buffer$ = 8						; size = 4
__BufferCount$ = 12					; size = 4
__MaxCount$ = 16					; size = 4
__Format$ = 20						; size = 4
__Locale$ = 24						; size = 4
__ArgList$ = 28						; size = 4
__vsnprintf_s_l PROC					; COMDAT

; 1584 :     {

  00000	55		 push	 ebp
  00001	8b ec		 mov	 ebp, esp
  00003	83 ec 48	 sub	 esp, 72			; 00000048H
  00006	53		 push	 ebx
  00007	56		 push	 esi
  00008	57		 push	 edi

; 1585 :         int const _Result = __stdio_common_vsnprintf_s(

  00009	8b 45 1c	 mov	 eax, DWORD PTR __ArgList$[ebp]
  0000c	50		 push	 eax
  0000d	8b 4d 18	 mov	 ecx, DWORD PTR __Locale$[ebp]
  00010	51		 push	 ecx
  00011	8b 55 14	 mov	 edx, DWORD PTR __Format$[ebp]
  00014	52		 push	 edx
  00015	8b 45 10	 mov	 eax, DWORD PTR __MaxCount$[ebp]
  00018	50		 push	 eax
  00019	8b 4d 0c	 mov	 ecx, DWORD PTR __BufferCount$[ebp]
  0001c	51		 push	 ecx
  0001d	8b 55 08	 mov	 edx, DWORD PTR __Buffer$[ebp]
  00020	52		 push	 edx
  00021	e8 00 00 00 00	 call	 ___local_stdio_printf_options
  00026	8b 48 04	 mov	 ecx, DWORD PTR [eax+4]
  00029	51		 push	 ecx
  0002a	8b 10		 mov	 edx, DWORD PTR [eax]
  0002c	52		 push	 edx
  0002d	ff 15 00 00 00
	00		 call	 DWORD PTR __imp____stdio_common_vsnprintf_s
  00033	83 c4 20	 add	 esp, 32			; 00000020H
  00036	89 45 fc	 mov	 DWORD PTR __Result$[ebp], eax

; 1586 :             _CRT_INTERNAL_LOCAL_PRINTF_OPTIONS,
; 1587 :             _Buffer, _BufferCount, _MaxCount, _Format, _Locale, _ArgList);
; 1588 : 
; 1589 :         return _Result < 0 ? -1 : _Result;

  00039	83 7d fc 00	 cmp	 DWORD PTR __Result$[ebp], 0
  0003d	7d 09		 jge	 SHORT $LN3@vsnprintf_
  0003f	c7 45 b8 ff ff
	ff ff		 mov	 DWORD PTR tv74[ebp], -1
  00046	eb 06		 jmp	 SHORT $LN4@vsnprintf_
$LN3@vsnprintf_:
  00048	8b 45 fc	 mov	 eax, DWORD PTR __Result$[ebp]
  0004b	89 45 b8	 mov	 DWORD PTR tv74[ebp], eax
$LN4@vsnprintf_:
  0004e	8b 45 b8	 mov	 eax, DWORD PTR tv74[ebp]

; 1590 :     }

  00051	5f		 pop	 edi
  00052	5e		 pop	 esi
  00053	5b		 pop	 ebx
  00054	8b e5		 mov	 esp, ebp
  00056	5d		 pop	 ebp
  00057	c3		 ret	 0
__vsnprintf_s_l ENDP
_TEXT	ENDS
; Function compile flags: /Odtp /ZI
; File c:\program files (x86)\windows kits\10\include\10.0.17763.0\ucrt\stdio.h
;	COMDAT __vsnprintf
_TEXT	SEGMENT
__Buffer$ = 8						; size = 4
__BufferCount$ = 12					; size = 4
__Format$ = 16						; size = 4
__ArgList$ = 20						; size = 4
__vsnprintf PROC					; COMDAT

; 1409 :     {

  00000	55		 push	 ebp
  00001	8b ec		 mov	 ebp, esp
  00003	83 ec 40	 sub	 esp, 64			; 00000040H
  00006	53		 push	 ebx
  00007	56		 push	 esi
  00008	57		 push	 edi

; 1410 :         #pragma warning(push)
; 1411 :         #pragma warning(disable: 4996) // Deprecation
; 1412 :         return _vsnprintf_l(_Buffer, _BufferCount, _Format, NULL, _ArgList);

  00009	8b 45 14	 mov	 eax, DWORD PTR __ArgList$[ebp]
  0000c	50		 push	 eax
  0000d	6a 00		 push	 0
  0000f	8b 4d 10	 mov	 ecx, DWORD PTR __Format$[ebp]
  00012	51		 push	 ecx
  00013	8b 55 0c	 mov	 edx, DWORD PTR __BufferCount$[ebp]
  00016	52		 push	 edx
  00017	8b 45 08	 mov	 eax, DWORD PTR __Buffer$[ebp]
  0001a	50		 push	 eax
  0001b	e8 00 00 00 00	 call	 __vsnprintf_l
  00020	83 c4 14	 add	 esp, 20			; 00000014H

; 1413 :         #pragma warning(pop)
; 1414 :     }

  00023	5f		 pop	 edi
  00024	5e		 pop	 esi
  00025	5b		 pop	 ebx
  00026	8b e5		 mov	 esp, ebp
  00028	5d		 pop	 ebp
  00029	c3		 ret	 0
__vsnprintf ENDP
_TEXT	ENDS
; Function compile flags: /Odtp /ZI
; File c:\program files (x86)\windows kits\10\include\10.0.17763.0\ucrt\stdio.h
;	COMDAT __vsnprintf_l
_TEXT	SEGMENT
tv74 = -72						; size = 4
__Result$ = -4						; size = 4
__Buffer$ = 8						; size = 4
__BufferCount$ = 12					; size = 4
__Format$ = 16						; size = 4
__Locale$ = 20						; size = 4
__ArgList$ = 24						; size = 4
__vsnprintf_l PROC					; COMDAT

; 1389 :     {

  00000	55		 push	 ebp
  00001	8b ec		 mov	 ebp, esp
  00003	83 ec 48	 sub	 esp, 72			; 00000048H
  00006	53		 push	 ebx
  00007	56		 push	 esi
  00008	57		 push	 edi

; 1390 :         int const _Result = __stdio_common_vsprintf(

  00009	8b 45 18	 mov	 eax, DWORD PTR __ArgList$[ebp]
  0000c	50		 push	 eax
  0000d	8b 4d 14	 mov	 ecx, DWORD PTR __Locale$[ebp]
  00010	51		 push	 ecx
  00011	8b 55 10	 mov	 edx, DWORD PTR __Format$[ebp]
  00014	52		 push	 edx
  00015	8b 45 0c	 mov	 eax, DWORD PTR __BufferCount$[ebp]
  00018	50		 push	 eax
  00019	8b 4d 08	 mov	 ecx, DWORD PTR __Buffer$[ebp]
  0001c	51		 push	 ecx
  0001d	e8 00 00 00 00	 call	 ___local_stdio_printf_options
  00022	8b 10		 mov	 edx, DWORD PTR [eax]
  00024	83 ca 01	 or	 edx, 1
  00027	8b 40 04	 mov	 eax, DWORD PTR [eax+4]
  0002a	50		 push	 eax
  0002b	52		 push	 edx
  0002c	ff 15 00 00 00
	00		 call	 DWORD PTR __imp____stdio_common_vsprintf
  00032	83 c4 1c	 add	 esp, 28			; 0000001cH
  00035	89 45 fc	 mov	 DWORD PTR __Result$[ebp], eax

; 1391 :             _CRT_INTERNAL_LOCAL_PRINTF_OPTIONS | _CRT_INTERNAL_PRINTF_LEGACY_VSPRINTF_NULL_TERMINATION,
; 1392 :             _Buffer, _BufferCount, _Format, _Locale, _ArgList);
; 1393 : 
; 1394 :         return _Result < 0 ? -1 : _Result;

  00038	83 7d fc 00	 cmp	 DWORD PTR __Result$[ebp], 0
  0003c	7d 09		 jge	 SHORT $LN3@vsnprintf_
  0003e	c7 45 b8 ff ff
	ff ff		 mov	 DWORD PTR tv74[ebp], -1
  00045	eb 06		 jmp	 SHORT $LN4@vsnprintf_
$LN3@vsnprintf_:
  00047	8b 45 fc	 mov	 eax, DWORD PTR __Result$[ebp]
  0004a	89 45 b8	 mov	 DWORD PTR tv74[ebp], eax
$LN4@vsnprintf_:
  0004d	8b 45 b8	 mov	 eax, DWORD PTR tv74[ebp]

; 1395 :     }

  00050	5f		 pop	 edi
  00051	5e		 pop	 esi
  00052	5b		 pop	 ebx
  00053	8b e5		 mov	 esp, ebp
  00055	5d		 pop	 ebp
  00056	c3		 ret	 0
__vsnprintf_l ENDP
_TEXT	ENDS
; Function compile flags: /Odtp /ZI
; File c:\program files (x86)\windows kits\10\include\10.0.17763.0\ucrt\corecrt_stdio_config.h
;	COMDAT ___local_stdio_printf_options
_TEXT	SEGMENT
___local_stdio_printf_options PROC			; COMDAT

; 86   :     {

  00000	55		 push	 ebp
  00001	8b ec		 mov	 ebp, esp
  00003	83 ec 40	 sub	 esp, 64			; 00000040H
  00006	53		 push	 ebx
  00007	56		 push	 esi
  00008	57		 push	 edi

; 87   :         static unsigned __int64 _OptionsStorage;
; 88   :         return &_OptionsStorage;

  00009	b8 00 00 00 00	 mov	 eax, OFFSET ?_OptionsStorage@?1??__local_stdio_printf_options@@9@4_KA ; `__local_stdio_printf_options'::`2'::_OptionsStorage

; 89   :     }

  0000e	5f		 pop	 edi
  0000f	5e		 pop	 esi
  00010	5b		 pop	 ebx
  00011	8b e5		 mov	 esp, ebp
  00013	5d		 pop	 ebp
  00014	c3		 ret	 0
___local_stdio_printf_options ENDP
_TEXT	ENDS
; Function compile flags: /Odtp /ZI
; File g:\网狐\happygamewh\服务端\系统模块\服务器组件\游戏服务器\serviceunits.cpp
;	COMDAT ?__empty_global_delete@@YAXPAXI@Z
_TEXT	SEGMENT
___formal$ = 8						; size = 4
___formal$ = 12						; size = 4
?__empty_global_delete@@YAXPAXI@Z PROC			; __empty_global_delete, COMDAT

  00000	55		 push	 ebp
  00001	8b ec		 mov	 ebp, esp
  00003	83 ec 40	 sub	 esp, 64			; 00000040H
  00006	53		 push	 ebx
  00007	56		 push	 esi
  00008	57		 push	 edi
  00009	5f		 pop	 edi
  0000a	5e		 pop	 esi
  0000b	5b		 pop	 ebx
  0000c	8b e5		 mov	 esp, ebp
  0000e	5d		 pop	 ebp
  0000f	c3		 ret	 0
?__empty_global_delete@@YAXPAXI@Z ENDP			; __empty_global_delete
_TEXT	ENDS
; Function compile flags: /Odtp /ZI
; File g:\网狐\happygamewh\服务端\系统模块\服务器组件\游戏服务器\serviceunits.cpp
;	COMDAT ?__empty_global_delete@@YAXPAX@Z
_TEXT	SEGMENT
___formal$ = 8						; size = 4
?__empty_global_delete@@YAXPAX@Z PROC			; __empty_global_delete, COMDAT

  00000	55		 push	 ebp
  00001	8b ec		 mov	 ebp, esp
  00003	83 ec 40	 sub	 esp, 64			; 00000040H
  00006	53		 push	 ebx
  00007	56		 push	 esi
  00008	57		 push	 edi
  00009	5f		 pop	 edi
  0000a	5e		 pop	 esi
  0000b	5b		 pop	 ebx
  0000c	8b e5		 mov	 esp, ebp
  0000e	5d		 pop	 ebp
  0000f	c3		 ret	 0
?__empty_global_delete@@YAXPAX@Z ENDP			; __empty_global_delete
_TEXT	ENDS
END
