; Listing generated by Microsoft (R) Optimizing Compiler Version 19.16.27032.1 

	TITLE	G:\网狐\HappyGameWH\服务端\系统模块\服务器组件\游戏服务器\TableFrame.cpp
	.686P
	.XMM
	include listing.inc
	.model	flat

INCLUDELIB MSVCRTD
INCLUDELIB OLDNAMES

CONST	SEGMENT
?IID_IUnknownEx@@3U_GUID@@B DD 05feec21eH		; IID_IUnknownEx
	DW	0dbf3H
	DW	046f0H
	DB	09fH
	DB	057H
	DB	0d1H
	DB	0cdH
	DB	071H
	DB	01cH
	DB	046H
	DB	0deH
?szTreasureDB@@3QBDB DB 'QPTreasureDB', 00H		; szTreasureDB
	ORG $+3
?szCompilation@@3QBDB DB 'ED56BE63-3026-465B-9DFC-17F595145F3D', 00H ; szCompilation
	ORG $+3
?IID_ITableFrame@@3U_GUID@@B DD 0860cd1cfH		; IID_ITableFrame
	DW	01a4fH
	DW	04e35H
	DB	0b8H
	DB	0cH
	DB	0d2H
	DB	046H
	DB	0a4H
	DB	0efH
	DB	0fdH
	DB	0fbH
?IID_ICompilationSink@@3U_GUID@@B DD 0a37f720fH		; IID_ICompilationSink
	DW	015cdH
	DW	041e4H
	DB	0b8H
	DB	06cH
	DB	0e0H
	DB	0a7H
	DB	0ecH
	DB	0abH
	DB	031H
	DB	089H
?IID_ITableFrameSink@@3U_GUID@@B DD 038a74df5H		; IID_ITableFrameSink
	DW	06245H
	DW	046c7H
	DB	0b6H
	DB	0ceH
	DB	053H
	DB	0f9H
	DB	0d5H
	DB	0bfH
	DB	06dH
	DB	0e6H
?IID_ITableUserAction@@3U_GUID@@B DD 0c97c060bH		; IID_ITableUserAction
	DW	0cf0eH
	DW	040b7H
	DB	093H
	DB	030H
	DB	097H
	DB	0a4H
	DB	0f6H
	DB	08cH
	DB	0caH
	DB	084H
?IID_ITableUserRequest@@3U_GUID@@B DD 07ad17e89H	; IID_ITableUserRequest
	DW	0cb5bH
	DW	0472aH
	DB	0acH
	DB	0ebH
	DB	084H
	DB	04dH
	DB	04fH
	DB	0a1H
	DB	04cH
	DB	038H
?IID_ITableFrameHook@@3U_GUID@@B DD 094a90d45H		; IID_ITableFrameHook
	DW	0570eH
	DW	041d6H
	DB	09fH
	DB	020H
	DB	01H
	DB	08dH
	DB	068H
	DB	016H
	DB	0d5H
	DB	0fH
?IID_IPersonalTableFrameHook@@3U_GUID@@B DD 010ac366eH	; IID_IPersonalTableFrameHook
	DW	09d0cH
	DW	041b6H
	DB	09bH
	DB	02eH
	DB	039H
	DB	09aH
	DB	010H
	DB	013H
	DB	017H
	DB	081H
CONST	ENDS
PUBLIC	??_H@YGXPAXIIP6EPAX0@Z@Z			; `vector constructor iterator'
PUBLIC	?__empty_global_delete@@YAXPAX@Z		; __empty_global_delete
PUBLIC	?__empty_global_delete@@YAXPAXI@Z		; __empty_global_delete
PUBLIC	??2@YAPAXIPAX@Z					; operator new
PUBLIC	_IsEqualGUID
PUBLIC	_==
PUBLIC	_HRESULT_FROM_WIN32
PUBLIC	___local_stdio_printf_options
PUBLIC	__vswprintf_s_l
PUBLIC	_swprintf_s
PUBLIC	__vsnprintf_l
PUBLIC	__vsnprintf
PUBLIC	__vsprintf_l
PUBLIC	__vsnprintf_s_l
PUBLIC	__vsnprintf_s
PUBLIC	__vscprintf_l
PUBLIC	__vscprintf
PUBLIC	_sprintf
PUBLIC	__snprintf
PUBLIC	?AfxAssertFailedLine@@YGHPBDH@Z			; AfxAssertFailedLine
PUBLIC	?AtlThrowImpl@ATL@@YGXJ@Z			; ATL::AtlThrowImpl
PUBLIC	??$AtlMultiply@I@ATL@@YAJPAIII@Z		; ATL::AtlMultiply<unsigned int>
PUBLIC	?Allocate@CCRTAllocator@ATL@@SAPAXI@Z		; ATL::CCRTAllocator::Allocate
PUBLIC	?Free@CCRTAllocator@ATL@@SAXPAX@Z		; ATL::CCRTAllocator::Free
PUBLIC	??0?$CTraceCategoryEx@$0CAAA@$0A@@ATL@@QAE@PBD@Z ; ATL::CTraceCategoryEx<8192,0>::CTraceCategoryEx<8192,0>
PUBLIC	??B?$CTraceCategoryEx@$0CAAA@$0A@@ATL@@QAEIXZ	; ATL::CTraceCategoryEx<8192,0>::operator unsigned int
PUBLIC	?GetCategoryName@CTrace@ATL@@CAPA_WI@Z		; ATL::CTrace::GetCategoryName
PUBLIC	?TraceV@CTrace@ATL@@CAXPBDHIIPB_W@Z		; ATL::CTrace::TraceV
PUBLIC	?TraceV@CTrace@ATL@@SAXPBDHII0PAD@Z		; ATL::CTrace::TraceV
PUBLIC	?RegisterCategory@CTrace@ATL@@SAXPBDI@Z		; ATL::CTrace::RegisterCategory
PUBLIC	??0?$CHeapPtrBase@_WVCCRTAllocator@ATL@@@ATL@@IAE@XZ ; ATL::CHeapPtrBase<wchar_t,ATL::CCRTAllocator>::CHeapPtrBase<wchar_t,ATL::CCRTAllocator>
PUBLIC	??1?$CHeapPtrBase@_WVCCRTAllocator@ATL@@@ATL@@QAE@XZ ; ATL::CHeapPtrBase<wchar_t,ATL::CCRTAllocator>::~CHeapPtrBase<wchar_t,ATL::CCRTAllocator>
PUBLIC	??B?$CHeapPtrBase@_WVCCRTAllocator@ATL@@@ATL@@QBEPA_WXZ ; ATL::CHeapPtrBase<wchar_t,ATL::CCRTAllocator>::operator wchar_t *
PUBLIC	?AllocateBytes@?$CHeapPtrBase@_WVCCRTAllocator@ATL@@@ATL@@QAE_NI@Z ; ATL::CHeapPtrBase<wchar_t,ATL::CCRTAllocator>::AllocateBytes
PUBLIC	?Free@?$CHeapPtrBase@_WVCCRTAllocator@ATL@@@ATL@@QAEXXZ ; ATL::CHeapPtrBase<wchar_t,ATL::CCRTAllocator>::Free
PUBLIC	??0?$CHeapPtr@_WVCCRTAllocator@ATL@@@ATL@@QAE@XZ ; ATL::CHeapPtr<wchar_t,ATL::CCRTAllocator>::CHeapPtr<wchar_t,ATL::CCRTAllocator>
PUBLIC	?Allocate@?$CHeapPtr@_WVCCRTAllocator@ATL@@@ATL@@QAE_NI@Z ; ATL::CHeapPtr<wchar_t,ATL::CCRTAllocator>::Allocate
PUBLIC	??1?$CHeapPtr@_WVCCRTAllocator@ATL@@@ATL@@QAE@XZ ; ATL::CHeapPtr<wchar_t,ATL::CCRTAllocator>::~CHeapPtr<wchar_t,ATL::CCRTAllocator>
PUBLIC	??0?$CHeapPtrBase@DVCCRTAllocator@ATL@@@ATL@@IAE@XZ ; ATL::CHeapPtrBase<char,ATL::CCRTAllocator>::CHeapPtrBase<char,ATL::CCRTAllocator>
PUBLIC	??1?$CHeapPtrBase@DVCCRTAllocator@ATL@@@ATL@@QAE@XZ ; ATL::CHeapPtrBase<char,ATL::CCRTAllocator>::~CHeapPtrBase<char,ATL::CCRTAllocator>
PUBLIC	??B?$CHeapPtrBase@DVCCRTAllocator@ATL@@@ATL@@QBEPADXZ ; ATL::CHeapPtrBase<char,ATL::CCRTAllocator>::operator char *
PUBLIC	?AllocateBytes@?$CHeapPtrBase@DVCCRTAllocator@ATL@@@ATL@@QAE_NI@Z ; ATL::CHeapPtrBase<char,ATL::CCRTAllocator>::AllocateBytes
PUBLIC	?Free@?$CHeapPtrBase@DVCCRTAllocator@ATL@@@ATL@@QAEXXZ ; ATL::CHeapPtrBase<char,ATL::CCRTAllocator>::Free
PUBLIC	??0?$CHeapPtr@DVCCRTAllocator@ATL@@@ATL@@QAE@XZ	; ATL::CHeapPtr<char,ATL::CCRTAllocator>::CHeapPtr<char,ATL::CCRTAllocator>
PUBLIC	?Allocate@?$CHeapPtr@DVCCRTAllocator@ATL@@@ATL@@QAE_NI@Z ; ATL::CHeapPtr<char,ATL::CCRTAllocator>::Allocate
PUBLIC	??1?$CHeapPtr@DVCCRTAllocator@ATL@@@ATL@@QAE@XZ	; ATL::CHeapPtr<char,ATL::CCRTAllocator>::~CHeapPtr<char,ATL::CCRTAllocator>
PUBLIC	??0CPreserveLastError@ATL@@QAE@XZ		; ATL::CPreserveLastError::CPreserveLastError
PUBLIC	??1CPreserveLastError@ATL@@QAE@XZ		; ATL::CPreserveLastError::~CPreserveLastError
PUBLIC	??0CTraceFileAndLineInfo@ATL@@QAE@PBDH@Z	; ATL::CTraceFileAndLineInfo::CTraceFileAndLineInfo
PUBLIC	??RCTraceFileAndLineInfo@ATL@@QBAXHIPBDZZ	; ATL::CTraceFileAndLineInfo::operator()
PUBLIC	??0CTime@ATL@@QAE@_J@Z				; ATL::CTime::CTime
PUBLIC	?GetLocalTm@CTime@ATL@@QBEPAUtm@@PAU3@@Z	; ATL::CTime::GetLocalTm
PUBLIC	?GetAsSystemTime@CTime@ATL@@QBE_NAAU_SYSTEMTIME@@@Z ; ATL::CTime::GetAsSystemTime
PUBLIC	?data@CPlex@@QAEPAXXZ				; CPlex::data
PUBLIC	??$HashKey@K@@YGIK@Z				; HashKey<unsigned long>
PUBLIC	??0tagPersonalUserScoreInfo@@QAE@XZ		; tagPersonalUserScoreInfo::tagPersonalUserScoreInfo
PUBLIC	??0IUnknownEx@@QAE@XZ				; IUnknownEx::IUnknownEx
PUBLIC	?GetProductVer@@YAEK@Z				; GetProductVer
PUBLIC	?GetMainVer@@YAEK@Z				; GetMainVer
PUBLIC	?GetSubVer@@YAEK@Z				; GetSubVer
PUBLIC	?GetBuildVer@@YAEK@Z				; GetBuildVer
PUBLIC	?InterfaceVersionCompare@@YA_NKK@Z		; InterfaceVersionCompare
PUBLIC	?IsForfendGameChat@CServerRule@@SA_NK@Z		; CServerRule::IsForfendGameChat
PUBLIC	?IsAllowDynamicJoin@CServerRule@@SA_NK@Z	; CServerRule::IsAllowDynamicJoin
PUBLIC	?IsAllowAvertCheatMode@CServerRule@@SA_NK@Z	; CServerRule::IsAllowAvertCheatMode
PUBLIC	?IsRecordGameScore@CServerRule@@SA_NK@Z		; CServerRule::IsRecordGameScore
PUBLIC	?IsForfendGameEnter@CServerRule@@SA_NK@Z	; CServerRule::IsForfendGameEnter
PUBLIC	?IsForfendGameLookon@CServerRule@@SA_NK@Z	; CServerRule::IsForfendGameLookon
PUBLIC	?IsForfendGameRule@CServerRule@@SA_NK@Z		; CServerRule::IsForfendGameRule
PUBLIC	?IsAllowAndroidAttend@CServerRule@@SA_NK@Z	; CServerRule::IsAllowAndroidAttend
PUBLIC	?IsAllowAndroidSimulate@CServerRule@@SA_NK@Z	; CServerRule::IsAllowAndroidSimulate
PUBLIC	?IsSuportPlayBack@CServerRule@@SA_NK@Z		; CServerRule::IsSuportPlayBack
PUBLIC	?CanRoomChat@CUserRight@@SA_NK@Z		; CUserRight::CanRoomChat
PUBLIC	??0ITableFrame@@QAE@XZ				; ITableFrame::ITableFrame
PUBLIC	??0ICompilationSink@@QAE@XZ			; ICompilationSink::ICompilationSink
PUBLIC	??$SerializeElements@K@@YGXAAVCArchive@@PAKH@Z	; SerializeElements<unsigned long>
PUBLIC	??$DumpElements@K@@YGXAAVCDumpContext@@PBKH@Z	; DumpElements<unsigned long>
PUBLIC	??$CompareElements@KK@@YGHPBK0@Z		; CompareElements<unsigned long,unsigned long>
PUBLIC	??0?$CWHArray@PAUIServerUserItem@@ABQAU1@@@QAE@XZ ; CWHArray<IServerUserItem *,IServerUserItem * const &>::CWHArray<IServerUserItem *,IServerUserItem * const &>
PUBLIC	??1?$CWHArray@PAUIServerUserItem@@ABQAU1@@@UAE@XZ ; CWHArray<IServerUserItem *,IServerUserItem * const &>::~CWHArray<IServerUserItem *,IServerUserItem * const &>
PUBLIC	?GetCount@?$CWHArray@PAUIServerUserItem@@ABQAU1@@@QBEHXZ ; CWHArray<IServerUserItem *,IServerUserItem * const &>::GetCount
PUBLIC	?Add@?$CWHArray@PAUIServerUserItem@@ABQAU1@@@QAEHABQAUIServerUserItem@@@Z ; CWHArray<IServerUserItem *,IServerUserItem * const &>::Add
PUBLIC	?ElementAt@?$CWHArray@PAUIServerUserItem@@ABQAU1@@@QAEAAPAUIServerUserItem@@H@Z ; CWHArray<IServerUserItem *,IServerUserItem * const &>::ElementAt
PUBLIC	?SetSize@?$CWHArray@PAUIServerUserItem@@ABQAU1@@@QAEXH@Z ; CWHArray<IServerUserItem *,IServerUserItem * const &>::SetSize
PUBLIC	?SetAtGrow@?$CWHArray@PAUIServerUserItem@@ABQAU1@@@QAEXHABQAUIServerUserItem@@@Z ; CWHArray<IServerUserItem *,IServerUserItem * const &>::SetAtGrow
PUBLIC	?RemoveAt@?$CWHArray@PAUIServerUserItem@@ABQAU1@@@QAEXHH@Z ; CWHArray<IServerUserItem *,IServerUserItem * const &>::RemoveAt
PUBLIC	??A?$CWHArray@PAUIServerUserItem@@ABQAU1@@@QAEAAPAUIServerUserItem@@H@Z ; CWHArray<IServerUserItem *,IServerUserItem * const &>::operator[]
PUBLIC	?AllocMemory@?$CWHArray@PAUIServerUserItem@@ABQAU1@@@QAEXH@Z ; CWHArray<IServerUserItem *,IServerUserItem * const &>::AllocMemory
PUBLIC	??_G?$CWHArray@PAUIServerUserItem@@ABQAU1@@@UAEPAXI@Z ; CWHArray<IServerUserItem *,IServerUserItem * const &>::`scalar deleting destructor'
PUBLIC	??0?$CWHArray@PAUtagGameScoreRecord@@ABQAU1@@@QAE@XZ ; CWHArray<tagGameScoreRecord *,tagGameScoreRecord * const &>::CWHArray<tagGameScoreRecord *,tagGameScoreRecord * const &>
PUBLIC	??1?$CWHArray@PAUtagGameScoreRecord@@ABQAU1@@@UAE@XZ ; CWHArray<tagGameScoreRecord *,tagGameScoreRecord * const &>::~CWHArray<tagGameScoreRecord *,tagGameScoreRecord * const &>
PUBLIC	?GetCount@?$CWHArray@PAUtagGameScoreRecord@@ABQAU1@@@QBEHXZ ; CWHArray<tagGameScoreRecord *,tagGameScoreRecord * const &>::GetCount
PUBLIC	?Add@?$CWHArray@PAUtagGameScoreRecord@@ABQAU1@@@QAEHABQAUtagGameScoreRecord@@@Z ; CWHArray<tagGameScoreRecord *,tagGameScoreRecord * const &>::Add
PUBLIC	?Append@?$CWHArray@PAUtagGameScoreRecord@@ABQAU1@@@QAEHABV1@@Z ; CWHArray<tagGameScoreRecord *,tagGameScoreRecord * const &>::Append
PUBLIC	?ElementAt@?$CWHArray@PAUtagGameScoreRecord@@ABQAU1@@@QAEAAPAUtagGameScoreRecord@@H@Z ; CWHArray<tagGameScoreRecord *,tagGameScoreRecord * const &>::ElementAt
PUBLIC	?SetSize@?$CWHArray@PAUtagGameScoreRecord@@ABQAU1@@@QAEXH@Z ; CWHArray<tagGameScoreRecord *,tagGameScoreRecord * const &>::SetSize
PUBLIC	?SetAtGrow@?$CWHArray@PAUtagGameScoreRecord@@ABQAU1@@@QAEXHABQAUtagGameScoreRecord@@@Z ; CWHArray<tagGameScoreRecord *,tagGameScoreRecord * const &>::SetAtGrow
PUBLIC	?RemoveAt@?$CWHArray@PAUtagGameScoreRecord@@ABQAU1@@@QAEXHH@Z ; CWHArray<tagGameScoreRecord *,tagGameScoreRecord * const &>::RemoveAt
PUBLIC	?RemoveAll@?$CWHArray@PAUtagGameScoreRecord@@ABQAU1@@@QAEXXZ ; CWHArray<tagGameScoreRecord *,tagGameScoreRecord * const &>::RemoveAll
PUBLIC	??A?$CWHArray@PAUtagGameScoreRecord@@ABQAU1@@@QAEAAPAUtagGameScoreRecord@@H@Z ; CWHArray<tagGameScoreRecord *,tagGameScoreRecord * const &>::operator[]
PUBLIC	?AllocMemory@?$CWHArray@PAUtagGameScoreRecord@@ABQAU1@@@QAEXH@Z ; CWHArray<tagGameScoreRecord *,tagGameScoreRecord * const &>::AllocMemory
PUBLIC	??_G?$CWHArray@PAUtagGameScoreRecord@@ABQAU1@@@UAEPAXI@Z ; CWHArray<tagGameScoreRecord *,tagGameScoreRecord * const &>::`scalar deleting destructor'
PUBLIC	??0?$CMap@KK_JAA_J@@QAE@H@Z			; CMap<unsigned long,unsigned long,__int64,__int64 &>::CMap<unsigned long,unsigned long,__int64,__int64 &>
PUBLIC	?Lookup@?$CMap@KK_JAA_J@@QBEHKAA_J@Z		; CMap<unsigned long,unsigned long,__int64,__int64 &>::Lookup
PUBLIC	??A?$CMap@KK_JAA_J@@QAEAA_JK@Z			; CMap<unsigned long,unsigned long,__int64,__int64 &>::operator[]
PUBLIC	?SetAt@?$CMap@KK_JAA_J@@QAEXKAA_J@Z		; CMap<unsigned long,unsigned long,__int64,__int64 &>::SetAt
PUBLIC	?RemoveAll@?$CMap@KK_JAA_J@@QAEXXZ		; CMap<unsigned long,unsigned long,__int64,__int64 &>::RemoveAll
PUBLIC	?GetStartPosition@?$CMap@KK_JAA_J@@QBEPAU__POSITION@@XZ ; CMap<unsigned long,unsigned long,__int64,__int64 &>::GetStartPosition
PUBLIC	?GetNextAssoc@?$CMap@KK_JAA_J@@QBEXAAPAU__POSITION@@AAKAA_J@Z ; CMap<unsigned long,unsigned long,__int64,__int64 &>::GetNextAssoc
PUBLIC	?InitHashTable@?$CMap@KK_JAA_J@@QAEXIH@Z	; CMap<unsigned long,unsigned long,__int64,__int64 &>::InitHashTable
PUBLIC	?NewAssoc@?$CMap@KK_JAA_J@@IAEPAVCAssoc@1@K@Z	; CMap<unsigned long,unsigned long,__int64,__int64 &>::NewAssoc
PUBLIC	?GetAssocAt@?$CMap@KK_JAA_J@@IBEPAVCAssoc@1@KAAI0@Z ; CMap<unsigned long,unsigned long,__int64,__int64 &>::GetAssocAt
PUBLIC	??1?$CMap@KK_JAA_J@@UAE@XZ			; CMap<unsigned long,unsigned long,__int64,__int64 &>::~CMap<unsigned long,unsigned long,__int64,__int64 &>
PUBLIC	?Serialize@?$CMap@KK_JAA_J@@UAEXAAVCArchive@@@Z	; CMap<unsigned long,unsigned long,__int64,__int64 &>::Serialize
PUBLIC	?Dump@?$CMap@KK_JAA_J@@UBEXAAVCDumpContext@@@Z	; CMap<unsigned long,unsigned long,__int64,__int64 &>::Dump
PUBLIC	?AssertValid@?$CMap@KK_JAA_J@@UBEXXZ		; CMap<unsigned long,unsigned long,__int64,__int64 &>::AssertValid
PUBLIC	??_G?$CMap@KK_JAA_J@@UAEPAXI@Z			; CMap<unsigned long,unsigned long,__int64,__int64 &>::`scalar deleting destructor'
PUBLIC	??0CTableFrame@@QAE@XZ				; CTableFrame::CTableFrame
PUBLIC	??1CTableFrame@@UAE@XZ				; CTableFrame::~CTableFrame
PUBLIC	?Release@CTableFrame@@UAEXXZ			; CTableFrame::Release
PUBLIC	?QueryInterface@CTableFrame@@UAEPAXABU_GUID@@K@Z ; CTableFrame::QueryInterface
PUBLIC	?GetTableID@CTableFrame@@UAEGXZ			; CTableFrame::GetTableID
PUBLIC	?GetChairCount@CTableFrame@@UAEGXZ		; CTableFrame::GetChairCount
PUBLIC	?GetNullChairCount@CTableFrame@@UAEGXZ		; CTableFrame::GetNullChairCount
PUBLIC	?GetCustomRule@CTableFrame@@UAEPAXXZ		; CTableFrame::GetCustomRule
PUBLIC	?GetGameMatchOption@CTableFrame@@UAEPAUtagGameMatchOption@@XZ ; CTableFrame::GetGameMatchOption
PUBLIC	?GetGameServiceAttrib@CTableFrame@@UAEPAUtagGameServiceAttrib@@XZ ; CTableFrame::GetGameServiceAttrib
PUBLIC	?GetGameServiceOption@CTableFrame@@UAEPAUtagGameServiceOption@@XZ ; CTableFrame::GetGameServiceOption
PUBLIC	?GetStartMode@CTableFrame@@UAEEXZ		; CTableFrame::GetStartMode
PUBLIC	?SetStartMode@CTableFrame@@UAEXE@Z		; CTableFrame::SetStartMode
PUBLIC	?GetCellScore@CTableFrame@@UAEJXZ		; CTableFrame::GetCellScore
PUBLIC	?SetCellScore@CTableFrame@@UAEXJ@Z		; CTableFrame::SetCellScore
PUBLIC	?GetGameStatus@CTableFrame@@UAEEXZ		; CTableFrame::GetGameStatus
PUBLIC	?SetGameStatus@CTableFrame@@UAEXE@Z		; CTableFrame::SetGameStatus
PUBLIC	?IsGameStarted@CTableFrame@@UAE_NXZ		; CTableFrame::IsGameStarted
PUBLIC	?IsDrawStarted@CTableFrame@@UAE_NXZ		; CTableFrame::IsDrawStarted
PUBLIC	?IsTableStarted@CTableFrame@@UAE_NXZ		; CTableFrame::IsTableStarted
PUBLIC	?IsTableLocked@CTableFrame@@UAE_NXZ		; CTableFrame::IsTableLocked
PUBLIC	?SetPersonalTablePassword@CTableFrame@@UAEXPAUtagRoomPassword@@@Z ; CTableFrame::SetPersonalTablePassword
PUBLIC	?StartGame@CTableFrame@@UAE_NXZ			; CTableFrame::StartGame
PUBLIC	?DismissGame@CTableFrame@@UAE_NXZ		; CTableFrame::DismissGame
PUBLIC	?ConcludeGame@CTableFrame@@UAE_NEH@Z		; CTableFrame::ConcludeGame
PUBLIC	?ConcludeTable@CTableFrame@@UAE_NXZ		; CTableFrame::ConcludeTable
PUBLIC	?SearchUserItem@CTableFrame@@UAEPAUIServerUserItem@@K@Z ; CTableFrame::SearchUserItem
PUBLIC	?GetTableUserItem@CTableFrame@@UAEPAUIServerUserItem@@G@Z ; CTableFrame::GetTableUserItem
PUBLIC	?EnumLookonUserItem@CTableFrame@@UAEPAUIServerUserItem@@G@Z ; CTableFrame::EnumLookonUserItem
PUBLIC	?WriteUserScore@CTableFrame@@UAE_NGAAUtagScoreInfo@@KK@Z ; CTableFrame::WriteUserScore
PUBLIC	?WriteTableScore@CTableFrame@@UAE_NQAUtagScoreInfo@@G@Z ; CTableFrame::WriteTableScore
PUBLIC	?WriteTableVideoPlayer@CTableFrame@@UAE_NKPAD@Z	; CTableFrame::WriteTableVideoPlayer
PUBLIC	?WriteTableVideoData@CTableFrame@@UAE_NPADGGPAEG@Z ; CTableFrame::WriteTableVideoData
PUBLIC	?CalculateRevenue@CTableFrame@@UAE_JG_J@Z	; CTableFrame::CalculateRevenue
PUBLIC	?QueryConsumeQuota@CTableFrame@@UAE_JPAUIServerUserItem@@@Z ; CTableFrame::QueryConsumeQuota
PUBLIC	?SetGameTimer@CTableFrame@@UAE_NKKKI@Z		; CTableFrame::SetGameTimer
PUBLIC	?KillGameTimer@CTableFrame@@UAE_NK@Z		; CTableFrame::KillGameTimer
PUBLIC	?SendTableData@CTableFrame@@UAE_NGG@Z		; CTableFrame::SendTableData
PUBLIC	?SendTableData@CTableFrame@@UAE_NGGPAXGG@Z	; CTableFrame::SendTableData
PUBLIC	?SendLookonData@CTableFrame@@UAE_NGG@Z		; CTableFrame::SendLookonData
PUBLIC	?SendLookonData@CTableFrame@@UAE_NGGPAXG@Z	; CTableFrame::SendLookonData
PUBLIC	?SendUserItemData@CTableFrame@@UAE_NPAUIServerUserItem@@G@Z ; CTableFrame::SendUserItemData
PUBLIC	?SendUserItemData@CTableFrame@@UAE_NPAUIServerUserItem@@GPAXG@Z ; CTableFrame::SendUserItemData
PUBLIC	?SendRoomData@CTableFrame@@UAE_NPAUIServerUserItem@@G@Z ; CTableFrame::SendRoomData
PUBLIC	?SendRoomData@CTableFrame@@UAE_NPAUIServerUserItem@@GPAXG@Z ; CTableFrame::SendRoomData
PUBLIC	?SendGameMessage@CTableFrame@@UAE_NPBDG@Z	; CTableFrame::SendGameMessage
PUBLIC	?SendGameMessage@CTableFrame@@UAE_NPAUIServerUserItem@@PBDG@Z ; CTableFrame::SendGameMessage
PUBLIC	?SendRoomMessage@CTableFrame@@UAE_NPAUIServerUserItem@@PBDG@Z ; CTableFrame::SendRoomMessage
PUBLIC	?PerformStandUpAction@CTableFrame@@UAE_NPAUIServerUserItem@@_N@Z ; CTableFrame::PerformStandUpAction
PUBLIC	?PerformLookonAction@CTableFrame@@UAE_NGPAUIServerUserItem@@@Z ; CTableFrame::PerformLookonAction
PUBLIC	?PerformSitDownAction@CTableFrame@@UAE_NGPAUIServerUserItem@@PBDK@Z ; CTableFrame::PerformSitDownAction
PUBLIC	?SendGameScene@CTableFrame@@UAE_NPAUIServerUserItem@@PAXG@Z ; CTableFrame::SendGameScene
PUBLIC	?SetTableFrameHook@CTableFrame@@UAE_NPAUIUnknownEx@@@Z ; CTableFrame::SetTableFrameHook
PUBLIC	?GetTableFrameHook@CTableFrame@@UAEPAUIUnknownEx@@XZ ; CTableFrame::GetTableFrameHook
PUBLIC	?ImitateGameOption@CTableFrame@@UAE_NPAUIServerUserItem@@@Z ; CTableFrame::ImitateGameOption
PUBLIC	?SendChatMessage@CTableFrame@@UAE_NPAUIServerUserItem@@0KPBDPAD@Z ; CTableFrame::SendChatMessage
PUBLIC	?GetCompilation@CTableFrame@@UAEPBDXZ		; CTableFrame::GetCompilation
PUBLIC	?GetDrawCount@CTableFrame@@UAEGXZ		; CTableFrame::GetDrawCount
PUBLIC	?GetNullChairID@CTableFrame@@UAEGXZ		; CTableFrame::GetNullChairID
PUBLIC	?GetRandNullChairID@CTableFrame@@QAEGXZ		; CTableFrame::GetRandNullChairID
PUBLIC	?GetSitUserCount@CTableFrame@@QAEGXZ		; CTableFrame::GetSitUserCount
PUBLIC	?GetLookonUserCount@CTableFrame@@QAEGXZ		; CTableFrame::GetLookonUserCount
PUBLIC	?GetOffLineUserCount@CTableFrame@@QAEGXZ	; CTableFrame::GetOffLineUserCount
PUBLIC	?GetTableUserInfo@CTableFrame@@QAEGAAUtagTableUserInfo@@@Z ; CTableFrame::GetTableUserInfo
PUBLIC	?InitializationFrame@CTableFrame@@QAE_NGAAUtagTableFrameParameter@@@Z ; CTableFrame::InitializationFrame
PUBLIC	?OnEventUserOffLine@CTableFrame@@QAE_NPAUIServerUserItem@@@Z ; CTableFrame::OnEventUserOffLine
PUBLIC	?OnUserScroeNotify@CTableFrame@@UAE_NGPAUIServerUserItem@@E@Z ; CTableFrame::OnUserScroeNotify
PUBLIC	?OnEventTimer@CTableFrame@@QAE_NKI@Z		; CTableFrame::OnEventTimer
PUBLIC	?OnEventSocketGame@CTableFrame@@QAE_NGPAXGPAUIServerUserItem@@@Z ; CTableFrame::OnEventSocketGame
PUBLIC	?OnEventSocketFrame@CTableFrame@@QAE_NGPAXGPAUIServerUserItem@@@Z ; CTableFrame::OnEventSocketFrame
PUBLIC	?SendTableStatus@CTableFrame@@QAE_NXZ		; CTableFrame::SendTableStatus
PUBLIC	?SendRequestFailure@CTableFrame@@QAE_NPAUIServerUserItem@@PBDJ@Z ; CTableFrame::SendRequestFailure
PUBLIC	?EfficacyStartGame@CTableFrame@@QAE_NG@Z	; CTableFrame::EfficacyStartGame
PUBLIC	?EfficacyIPAddress@CTableFrame@@QAE_NPAUIServerUserItem@@@Z ; CTableFrame::EfficacyIPAddress
PUBLIC	?EfficacyScoreRule@CTableFrame@@QAE_NPAUIServerUserItem@@@Z ; CTableFrame::EfficacyScoreRule
PUBLIC	?EfficacyEnterTableScoreRule@CTableFrame@@QAE_NGPAUIServerUserItem@@@Z ; CTableFrame::EfficacyEnterTableScoreRule
PUBLIC	?CheckDistribute@CTableFrame@@QAE_NXZ		; CTableFrame::CheckDistribute
PUBLIC	?RecordGameScore@CTableFrame@@QAEX_NK@Z		; CTableFrame::RecordGameScore
PUBLIC	?IsPersonalTableLocked@CTableFrame@@UAE_NXZ	; CTableFrame::IsPersonalTableLocked
PUBLIC	?SetPersonalTableLocked@CTableFrame@@UAEX_N@Z	; CTableFrame::SetPersonalTableLocked
PUBLIC	?GetPersonalScore@CTableFrame@@UAE_NKAA_J@Z	; CTableFrame::GetPersonalScore
PUBLIC	?GetPersonalTableParameter@CTableFrame@@UAE?AUtagPersonalTableParameter@@XZ ; CTableFrame::GetPersonalTableParameter
PUBLIC	?SetTableOwner@CTableFrame@@UAEXK@Z		; CTableFrame::SetTableOwner
PUBLIC	?GetTableOwner@CTableFrame@@UAEKXZ		; CTableFrame::GetTableOwner
PUBLIC	?GetRecordTableOwner@CTableFrame@@UAEKXZ	; CTableFrame::GetRecordTableOwner
PUBLIC	?SetPersonalTable@CTableFrame@@UAEXKK_J@Z	; CTableFrame::SetPersonalTable
PUBLIC	?SetPersonalTableParameter@CTableFrame@@UAEXUtagPersonalTableParameter@@UtagPersonalRoomOption@@@Z ; CTableFrame::SetPersonalTableParameter
PUBLIC	?SetTimerNotBeginAfterCreate@CTableFrame@@UAEXXZ ; CTableFrame::SetTimerNotBeginAfterCreate
PUBLIC	?CancelTableRequest@CTableFrame@@UAE_NKG@Z	; CTableFrame::CancelTableRequest
PUBLIC	?CancelTableRequestReply@CTableFrame@@UAE_NKE@Z	; CTableFrame::CancelTableRequestReply
PUBLIC	?SetPersonalRoomID@CTableFrame@@UAEXK@Z		; CTableFrame::SetPersonalRoomID
PUBLIC	?HostDissumeGame@CTableFrame@@UAEXH@Z		; CTableFrame::HostDissumeGame
PUBLIC	?GetPersonalRoomID@CTableFrame@@UAEKXZ		; CTableFrame::GetPersonalRoomID
PUBLIC	?SetGameRule@CTableFrame@@UAEXPAEH@Z		; CTableFrame::SetGameRule
PUBLIC	?GetGameRule@CTableFrame@@UAEPAEXZ		; CTableFrame::GetGameRule
PUBLIC	?GetSpeicalInfo@CTableFrame@@UAEXPAEH@Z		; CTableFrame::GetSpeicalInfo
PUBLIC	?SetTableChairCount@CTableFrame@@UAEXG@Z	; CTableFrame::SetTableChairCount
PUBLIC	?IsPersonalRoomDisumme@CTableFrame@@UAE_NXZ	; CTableFrame::IsPersonalRoomDisumme
PUBLIC	?SetDataBaseMode@CTableFrame@@UAEXE@Z		; CTableFrame::SetDataBaseMode
PUBLIC	?GetDataBaseMode@CTableFrame@@UAEEXZ		; CTableFrame::GetDataBaseMode
PUBLIC	?SetPersonalRoomGUID@CTableFrame@@UAEXPADH@Z	; CTableFrame::SetPersonalRoomGUID
PUBLIC	?GetPersonalRoomGUID@CTableFrame@@UAEPADXZ	; CTableFrame::GetPersonalRoomGUID
PUBLIC	?SetPayRoomCardMode@CTableFrame@@UAEXEJE@Z	; CTableFrame::SetPayRoomCardMode
PUBLIC	?GetPayRoomCardMode@CTableFrame@@UAEEXZ		; CTableFrame::GetPayRoomCardMode
PUBLIC	?SetHostAddr@CTableFrame@@UAEXK@Z		; CTableFrame::SetHostAddr
PUBLIC	?GetHostAddr@CTableFrame@@UAEKXZ		; CTableFrame::GetHostAddr
PUBLIC	?GetDrawCountLimit@CTableFrame@@UAEKXZ		; CTableFrame::GetDrawCountLimit
PUBLIC	?SetCreatePersonalTime@CTableFrame@@UAEXU_SYSTEMTIME@@@Z ; CTableFrame::SetCreatePersonalTime
PUBLIC	?SetLoopCount@CTableFrame@@UAEXE@Z		; CTableFrame::SetLoopCount
PUBLIC	?GetLoopCount@CTableFrame@@UAEEXZ		; CTableFrame::GetLoopCount
PUBLIC	?GetGameMode@CTableFrame@@UAEEXZ		; CTableFrame::GetGameMode
PUBLIC	??_GCTableFrame@@UAEPAXI@Z			; CTableFrame::`scalar deleting destructor'
PUBLIC	??$_snprintf_s@$0IA@@@YAHAAY0IA@DIPBDZZ		; _snprintf_s<128>
PUBLIC	??$_snprintf_s@$0BAE@@@YAHAAY0BAE@DIPBDZZ	; _snprintf_s<260>
PUBLIC	??0CPair@?$CMap@KK_JAA_J@@IAE@K@Z		; CMap<unsigned long,unsigned long,__int64,__int64 &>::CPair::CPair
PUBLIC	??0CAssoc@?$CMap@KK_JAA_J@@QAE@K@Z		; CMap<unsigned long,unsigned long,__int64,__int64 &>::CAssoc::CAssoc
PUBLIC	??$SerializeElements@_J@@YGXAAVCArchive@@PA_JH@Z ; SerializeElements<__int64>
PUBLIC	??$DumpElements@_J@@YGXAAVCDumpContext@@PB_JH@Z	; DumpElements<__int64>
PUBLIC	?Release@CTableFrame@@W3AEXXZ			; [thunk]:CTableFrame::Release`adjustor{4}'
PUBLIC	?QueryInterface@CTableFrame@@W3AEPAXABU_GUID@@K@Z ; [thunk]:CTableFrame::QueryInterface`adjustor{4}'
PUBLIC	?_OptionsStorage@?1??__local_stdio_printf_options@@9@4_KA ; `__local_stdio_printf_options'::`2'::_OptionsStorage
PUBLIC	??_C@_17CNPHIMPH@?$AA?$CF?$AAl?$AAs@		; `string'
PUBLIC	??_C@_1OE@IAPLKPHI@?$AAc?$AA?3?$AA?2?$AAp?$AAr?$AAo?$AAg?$AAr?$AAa?$AAm?$AA?5?$AAf?$AAi?$AAl?$AAe@ ; `string'
PUBLIC	?atlTraceException@ATL@@3V?$CTraceCategoryEx@$0CAAA@$0A@@1@A ; ATL::atlTraceException
PUBLIC	??_C@_0BC@PGMFNIFA@atlTraceException@		; `string'
PUBLIC	?m_nLevel@CTrace@ATL@@1IA			; ATL::CTrace::m_nLevel
PUBLIC	?m_nCategory@CTrace@ATL@@1IA			; ATL::CTrace::m_nCategory
PUBLIC	?m_nLastCategory@CTrace@ATL@@1IA		; ATL::CTrace::m_nLastCategory
PUBLIC	?m_nMap@CTrace@ATL@@1PAUCategoryMap@12@A	; ATL::CTrace::m_nMap
PUBLIC	??_C@_1O@LFNDFEBP@?$AA?$CF?$AAl?$AAs?$AA?5?$AA?9?$AA?5@ ; `string'
PUBLIC	??_C@_1M@PGKOAACE@?$AA?$CF?$AAu?$AA?5?$AA?9?$AA?5@ ; `string'
PUBLIC	??_C@_1O@OAIPCDPO@?$AA?$CF?$AAl?$AAs?$AA?$CF?$AAl?$AAs@ ; `string'
PUBLIC	??_C@_17LGGGMOOB@?$AA?$CF?$AAh?$AAs@		; `string'
PUBLIC	??_C@_1EO@EBPPKGOM@?$AAf?$AAa?$AAl?$AAs?$AAe?$AA?5?$AA?$CG?$AA?$CG?$AA?5?$AA?$CC?$AAT?$AAo?$AAo?$AA?5?$AAm@ ; `string'
PUBLIC	??_C@_1OE@PDFAMNPL@?$AAc?$AA?3?$AA?2?$AAp?$AAr?$AAo?$AAg?$AAr?$AAa?$AAm?$AA?5?$AAf?$AAi?$AAl?$AAe@ ; `string'
PUBLIC	?__LINE__Var@?0??AtlThrowImpl@ATL@@YGXJ@Z@4JA	; `ATL::AtlThrowImpl'::`1'::__LINE__Var
PUBLIC	??_C@_0HD@OEBHCJKM@c?3?2program?5files?5?$CIx86?$CJ?2microsof@ ; `string'
PUBLIC	??_C@_0BF@IAAKIJDJ@AtlThrow?3?5hr?5?$DN?50x?$CFx?6@ ; `string'
PUBLIC	??_C@_1BM@GBBOFEAE@?$AA_?$AA_?$AAa?$AAt?$AAl?$AA_?$AAc?$AAo?$AAn?$AAd?$AAV?$AAa?$AAl@ ; `string'
PUBLIC	??_C@_1OC@IALJLBM@?$AAc?$AA?3?$AA?2?$AAp?$AAr?$AAo?$AAg?$AAr?$AAa?$AAm?$AA?5?$AAf?$AAi?$AAl?$AAe@ ; `string'
PUBLIC	?__LINE__Var@?0??GetLocalTm@CTime@ATL@@QBEPAUtm@@PAU4@@Z@4JA ; `ATL::CTime::GetLocalTm'::`1'::__LINE__Var
PUBLIC	??_C@_00CNPNBAHC@@				; `string'
PUBLIC	??_7IUnknownEx@@6B@				; IUnknownEx::`vftable'
PUBLIC	??_C@_0BG@LDDEPHLF@open?5?$CK?$CK?$CK?5?H?U?V?$LO?P?E?O?$KC?5?$CFs?5@ ; `string'
PUBLIC	??_C@_0BD@DCGNBEMB@?$CFd?9?$CFd?9?$CFd?9?$CFd?3?5?$CFs?5?$AN?6@ ; `string'
PUBLIC	??_C@_03GGEOLGBL@Log@				; `string'
PUBLIC	??_C@_0BM@MPGOOIFH@Log?1?1?$CFd?9?$CFd?9?$CFd?9ServerLog?4txt@ ; `string'
PUBLIC	??_C@_0N@LMHKOMJJ@openfile?5?5?$CFs@		; `string'
PUBLIC	??_C@_03HIKJINGA@at?$CL@			; `string'
PUBLIC	??_C@_0BG@FGDEEIKF@openfile?5?$LE?r?$LP?$KK?N?D?$LM?$PO?$LD?I?$LJ?$KG@ ; `string'
PUBLIC	??_C@_0BG@FNDGHLBI@openfile?5?$LE?r?$LP?$KK?N?D?$LM?$PO?$LE?m?N?s@ ; `string'
PUBLIC	??_7ITableFrame@@6B@				; ITableFrame::`vftable'
PUBLIC	??_7ICompilationSink@@6B@			; ICompilationSink::`vftable'
PUBLIC	??_C@_1BK@NHECDDNK@?$AAm?$AA_?$AAp?$AAD?$AAa?$AAt?$AAa?$AA?5?$AA?$DN?$AA?$DN?$AA?5?$AA0@ ; `string'
PUBLIC	??_C@_0HC@HBCNBCLF@c?3?2program?5files?5?$CIx86?$CJ?2microsof@ ; `string'
PUBLIC	??_C@_05PLCFPPOI@with?5@			; `string'
PUBLIC	??_C@_09HCLNAIDE@?5elements@			; `string'
PUBLIC	??_C@_01EEMJAFIK@?6@				; `string'
PUBLIC	??_C@_03OHJIHPJH@?6?7?$FL@			; `string'
PUBLIC	??_C@_04OAFLPOMH@?$FN?5?$DN?5@			; `string'
PUBLIC	??_R1A@?0A@EA@CObject@@8			; CObject::`RTTI Base Class Descriptor at (0,-1,0,64)'
PUBLIC	??_R0?AVCObject@@@8				; CObject `RTTI Type Descriptor'
PUBLIC	??_R3CObject@@8					; CObject::`RTTI Class Hierarchy Descriptor'
PUBLIC	??_R2CObject@@8					; CObject::`RTTI Base Class Array'
PUBLIC	??_7?$CWHArray@PAUIServerUserItem@@ABQAU1@@@6B@	; CWHArray<IServerUserItem *,IServerUserItem * const &>::`vftable'
PUBLIC	??_7?$CWHArray@PAUtagGameScoreRecord@@ABQAU1@@@6B@ ; CWHArray<tagGameScoreRecord *,tagGameScoreRecord * const &>::`vftable'
PUBLIC	?m_GameScoreRecordBuffer@CTableFrame@@1V?$CWHArray@PAUtagGameScoreRecord@@ABQAU1@@@A ; CTableFrame::m_GameScoreRecordBuffer
PUBLIC	??_7?$CMap@KK_JAA_J@@6B@			; CMap<unsigned long,unsigned long,__int64,__int64 &>::`vftable'
PUBLIC	??_7CTableFrame@@6BITableFrame@@@		; CTableFrame::`vftable'
PUBLIC	??_7CTableFrame@@6BICompilationSink@@@		; CTableFrame::`vftable'
PUBLIC	?__LINE__Var@?0??StartGame@CTableFrame@@UAE_NXZ@4JA ; `CTableFrame::StartGame'::`1'::__LINE__Var
PUBLIC	?__LINE__Var@?0??DismissGame@CTableFrame@@UAE_NXZ@4JA ; `CTableFrame::DismissGame'::`1'::__LINE__Var
PUBLIC	?__LINE__Var@?0??ConcludeGame@CTableFrame@@UAE_NEH@Z@4JA ; `CTableFrame::ConcludeGame'::`1'::__LINE__Var
PUBLIC	??_C@_0CF@EPBEDFME@?D?z?$LF?D?S?N?O?$LH?$LB?R?I?Y?S?Z?5?$CFI64d?$KD?$KM?$LC?$LL?D?$NM?$LM?L?P?x?S@ ; `string'
PUBLIC	??_C@_0CH@OPGIFPHK@?D?z?$LF?D?S?N?O?$LH?$LL?$PN?$LH?V?I?Y?S?Z?5?$CFI64d?$KD?$KM?$LC?$LL?D?$NM?$LM?L?P@ ; `string'
PUBLIC	??_C@_0CN@COMBKMFK@?S?I?S?Z?O?$LF?M?$LD?N?$KM?$LL?$KE?$KD?$KM?$LF?$LB?G?$LA?S?N?O?$LH?W?$MA?W?S?$LN?$PL?V?$LJ?S@ ; `string'
PUBLIC	?__LINE__Var@?0??WriteUserScore@CTableFrame@@UAE_NGAAUtagScoreInfo@@KK@Z@4JA ; `CTableFrame::WriteUserScore'::`1'::__LINE__Var
PUBLIC	??_C@_0CL@IKLNOEBJ@?$FL?5?$CFs?5?$FN?5?J?$LJ?S?C?A?K?$FL?5?K?D?$LB?$LG?$LL?$PN?$LH?V?$LP?$KI?5?$FN?$KD?$KM?$LF?C@ ; `string'
PUBLIC	??_C@_0CI@KNPBKMHB@?$FL?5?$CFs?5?$FN?5?J?$LJ?S?C?A?K?$FL?5?K?$KL?$LB?$LG?$LL?$PN?$LH?V?$LP?$KI?5?$FN?$KD?$KM?$LF?C@ ; `string'
PUBLIC	??_C@_0CG@BJIOFAKH@?$FL?5?$CFs?5?$FN?5?J?$LJ?S?C?A?K?$FL?5?$LL?$KE?I?m?$LH?$PL?$LP?$KI?5?$FN?$KD?$KM?$LL?$PN?$LH?V@ ; `string'
PUBLIC	__TI2PAD
PUBLIC	__CTA2PAD
PUBLIC	??_R0PAD@8					; char * `RTTI Type Descriptor'
PUBLIC	__CT??_R0PAD@84
PUBLIC	??_R0PAX@8					; void * `RTTI Type Descriptor'
PUBLIC	__CT??_R0PAX@84
PUBLIC	??_C@_0BF@OJEHDHNG@?S?N?O?$LH?$LM?G?B?$LM?$LG?T?O?s?$LE?$LE?$LN?$KI?J?$KH?$LA?$NM@ ; `string'
PUBLIC	?__LINE__Var@?0??WriteTableScore@CTableFrame@@UAE_NQAUtagScoreInfo@@G@Z@4JA ; `CTableFrame::WriteTableScore'::`1'::__LINE__Var
PUBLIC	?__LINE__Var@?0??CalculateRevenue@CTableFrame@@UAE_JG_J@Z@4JA ; `CTableFrame::CalculateRevenue'::`1'::__LINE__Var
PUBLIC	?__LINE__Var@?0??QueryConsumeQuota@CTableFrame@@UAE_JPAUIServerUserItem@@@Z@4JA ; `CTableFrame::QueryConsumeQuota'::`1'::__LINE__Var
PUBLIC	?__LINE__Var@?0??GetTableUserItem@CTableFrame@@UAEPAUIServerUserItem@@G@Z@4JA ; `CTableFrame::GetTableUserItem'::`1'::__LINE__Var
PUBLIC	?__LINE__Var@?0??SetGameTimer@CTableFrame@@UAE_NKKKI@Z@4JA ; `CTableFrame::SetGameTimer'::`1'::__LINE__Var
PUBLIC	?__LINE__Var@?0??KillGameTimer@CTableFrame@@UAE_NK@Z@4JA ; `CTableFrame::KillGameTimer'::`1'::__LINE__Var
PUBLIC	?__LINE__Var@?0??SendUserItemData@CTableFrame@@UAE_NPAUIServerUserItem@@G@Z@4JA ; `CTableFrame::SendUserItemData'::`1'::__LINE__Var
PUBLIC	?__LINE__Var@?0??SendUserItemData@CTableFrame@@UAE_NPAUIServerUserItem@@GPAXG@Z@4JA ; `CTableFrame::SendUserItemData'::`1'::__LINE__Var
PUBLIC	?__LINE__Var@?0??SendTableData@CTableFrame@@UAE_NGG@Z@4JA ; `CTableFrame::SendTableData'::`1'::__LINE__Var
PUBLIC	?__LINE__Var@?0??SendLookonData@CTableFrame@@UAE_NGG@Z@4JA ; `CTableFrame::SendLookonData'::`1'::__LINE__Var
PUBLIC	?__LINE__Var@?0??SendGameMessage@CTableFrame@@UAE_NPBDG@Z@4JA ; `CTableFrame::SendGameMessage'::`1'::__LINE__Var
PUBLIC	?__LINE__Var@?0??SendGameMessage@CTableFrame@@UAE_NPAUIServerUserItem@@PBDG@Z@4JA ; `CTableFrame::SendGameMessage'::`1'::__LINE__Var
PUBLIC	?__LINE__Var@?0??SendGameScene@CTableFrame@@UAE_NPAUIServerUserItem@@PAXG@Z@4JA ; `CTableFrame::SendGameScene'::`1'::__LINE__Var
PUBLIC	?__LINE__Var@?0??SetTableFrameHook@CTableFrame@@UAE_NPAUIUnknownEx@@@Z@4JA ; `CTableFrame::SetTableFrameHook'::`1'::__LINE__Var
PUBLIC	?__LINE__Var@?0??ImitateGameOption@CTableFrame@@UAE_NPAUIServerUserItem@@@Z@4JA ; `CTableFrame::ImitateGameOption'::`1'::__LINE__Var
PUBLIC	?__LINE__Var@?0??SendChatMessage@CTableFrame@@UAE_NPAUIServerUserItem@@0KPBDPAD@Z@4JA ; `CTableFrame::SendChatMessage'::`1'::__LINE__Var
PUBLIC	??_C@_0CB@FGILIJGK@?$LB?$KH?G?$LI?$KD?$KM?$LF?$LB?G?$LA?S?N?O?$LH?$LH?$LP?$LM?d?$LN?$PL?V?$LJ?S?N?O?$LH?A?D?L?l?$KD@ ; `string'
PUBLIC	??_C@_0DN@HGHCIEG@?$LB?$KH?G?$LI?$KD?$KM?D?z?C?$LL?S?P?S?N?O?$LH?A?D?L?l?$LF?D?H?$KI?O?$NO?$KD?$KM?H?t?P@ ; `string'
PUBLIC	?__LINE__Var@?0??OnEventUserOffLine@CTableFrame@@QAE_NPAUIServerUserItem@@@Z@4JA ; `CTableFrame::OnEventUserOffLine'::`1'::__LINE__Var
PUBLIC	?__LINE__Var@?0??OnEventTimer@CTableFrame@@QAE_NKI@Z@4JA ; `CTableFrame::OnEventTimer'::`1'::__LINE__Var
PUBLIC	?__LINE__Var@?0??OnEventSocketGame@CTableFrame@@QAE_NGPAXGPAUIServerUserItem@@@Z@4JA ; `CTableFrame::OnEventSocketGame'::`1'::__LINE__Var
PUBLIC	?__LINE__Var@?0??OnEventSocketFrame@CTableFrame@@QAE_NGPAXGPAUIServerUserItem@@@Z@4JA ; `CTableFrame::OnEventSocketFrame'::`1'::__LINE__Var
PUBLIC	??_C@_0BJ@BFEPDGOK@?$LH?$LP?$LM?d?$LL?$LJ?N?$LE?$LE?$LE?$LN?$KI?$KD?$KM?N?$NO?$LH?$KI?$LN?x?H?k?$KD?$KB@ ; `string'
PUBLIC	??_C@_0N@PEOJOPIF@?$LH?$LP?$LM?d?R?Q?$LO?$KN?$LN?b?I?$KC@ ; `string'
PUBLIC	??_C@_0CF@IEAHKEDO@?$LL?$LG?S?$KN?D?z?$LN?x?H?k?$KB?$LA?$CFs?$KB?$LB?S?N?O?$LH?$KD?$KM?W?$KD?D?z?S?N?O?$LH?S@ ; `string'
PUBLIC	??_C@_0BL@FDDKLKIA@?O?$LF?M?$LD?V?X?P?B?$LH?V?E?d?W?$MA?W?S?$KD?$KM?G?k?I?T?$LK?s?$KD?$KB@ ; `string'
PUBLIC	?__LINE__Var@?0??InitializationFrame@CTableFrame@@QAE_NGAAUtagTableFrameParameter@@@Z@4JA ; `CTableFrame::InitializationFrame'::`1'::__LINE__Var
PUBLIC	??_C@_0BF@FCLAICIB@?$CFs?2PersonalTable?4ini@	; `string'
PUBLIC	??_C@_0P@OOPDANCH@PlayerWaitTime@		; `string'
PUBLIC	??_C@_0BD@EHGOMFHF@TableOwnerWaitTime@		; `string'
PUBLIC	??_C@_0BC@JKMCHJPE@GameStartOverTime@		; `string'
PUBLIC	?__LINE__Var@?0??PerformStandUpAction@CTableFrame@@UAE_NPAUIServerUserItem@@_N@Z@4JA ; `CTableFrame::PerformStandUpAction'::`1'::__LINE__Var
PUBLIC	??_C@_0DB@BACGKDF@?$LM?$LE?J?$LB?H?$PM?V?P?$LD?v?O?V?M?f?$LM?R?3?5?$CFd?F?p?A?$KC?J?$LB?W?$LE?L?$KM?N@ ; `string'
PUBLIC	??_C@_0BP@LMDGPNLB@?$LE?K?S?N?O?$LH?W?$MA?$LF?D?K?y?S?P?M?f?$LM?R?R?Q?$LO?$KN?$MA?k?$LP?$KK?A?K?$KD?$KB@ ; `string'
PUBLIC	??_C@_0CH@CEHEIJKA@?S?I?M?f?$LM?R?$MA?k?$LP?$KK?$KD?$KM?O?$LF?M?$LD?V?X?P?B?$LH?V?E?d?W?$MA?W?S?$KD?$KM?G@ ; `string'
PUBLIC	?__LINE__Var@?0??PerformLookonAction@CTableFrame@@UAE_NGPAUIServerUserItem@@@Z@4JA ; `CTableFrame::PerformLookonAction'::`1'::__LINE__Var
PUBLIC	??_C@_0BD@IPFJJGIH@?T?$LM?U?$LN?$LH?$LP?$KD?$KM?$LC?$LL?D?$NM?E?T?$LJ?$NL?$KD?$KB@ ; `string'
PUBLIC	??_C@_0CD@MNPNNHIG@?S?N?O?$LH?$LL?$LJ?C?$LL?S?P?$LP?$KK?J?$LM?$KD?$KM?$LC?$LL?D?$NM?E?T?$LJ?$NL?$LE?K?S?N?O?$LH?W@ ; `string'
PUBLIC	??_C@_0CB@EHMDHMJJ@?$LB?$KH?G?$LI?$KD?$KM?$LF?$LB?G?$LA?S?N?O?$LH?W?$MA?W?S?$LN?$PL?V?$LJ?S?C?$LL?$KH?E?T?$LJ?$NL?$KD@ ; `string'
PUBLIC	??_C@_0CB@NJNGCIAH@?$LB?$KH?G?$LI?$KD?$KM?$LF?$LB?G?$LA?S?N?O?$LH?$LH?$LP?$LM?d?$LN?$PL?V?$LJ?S?C?$LL?$KH?E?T?$LJ?$NL?$KD@ ; `string'
PUBLIC	??_C@_0CN@JOFFIFMN@?D?z?K?y?G?k?G?s?$LF?D?N?$LL?V?C?C?$LL?S?P?S?N?O?$LH?M?f?$LM?R?$KD?$KM?N?$NO?$LH@ ; `string'
PUBLIC	??_C@_0CF@GJHCGP@?S?N?O?$LH?W?$MA?$LN?x?H?k?C?$NM?B?k?$LC?$LL?U?$PN?H?$LH?$KD?$KM?$LC?$LL?D?$NM?E?T?$LJ?$NL?S@ ; `string'
PUBLIC	?__LINE__Var@?0??PerformSitDownAction@CTableFrame@@UAE_NGPAUIServerUserItem@@PBDK@Z@4JA ; `CTableFrame::PerformSitDownAction'::`1'::__LINE__Var
PUBLIC	??_C@_0BE@NAFGAAOB@?T?$LM?U?$LN?$LH?$LP?$LM?d?R?Q?$LO?$KN?$LN?b?I?$KC1?$KD?$KB@ ; `string'
PUBLIC	??_C@_0BE@MCODKPAP@?T?$LM?U?$LN?$LH?$LP?$LM?d?R?Q?$LO?$KN?$LN?b?I?$KC2?$KD?$KB@ ; `string'
PUBLIC	??_C@_0DB@MOHGBBK@?R?N?W?S?R?Q?$LO?$KN?$LB?$LL?5?$FL?5?$CFs?5?$FN?5?$LN?$NN?W?c?O?H?$LF?G?A?K?$KD?$KM?O@ ; `string'
PUBLIC	??_C@_0CH@KFMNDNLD@?D?z?$LF?D?W?j?J?$KP?J?$PN?A?$LP?I?Y?S?Z?5?$CFI64d?$KD?$KM?$LC?$LL?D?$NM?$LM?L?P@ ; `string'
PUBLIC	??_C@_0BF@JFHBNNDB@?$LB?$KH?G?$LI?$KD?$KM?T?$LM?U?$LN?R?Q?$LO?$KN?$LP?$KK?J?$LM?$KD?$KB@ ; `string'
PUBLIC	??_C@_0HC@EGIPEGNE@userid?5?$DN?5?$CFd?5?5m_wChairCount?5?$DN?5?$CFd@ ; `string'
PUBLIC	??_C@_0BN@KGKBJPME@?$LB?$KH?G?$LI?$KD?$KM?$LF?$LB?G?$LA?S?N?O?$LH?W?$MA?W?S?H?K?J?$PN?R?Q?B?z?$KD?$KB@ ; `string'
PUBLIC	??_C@_0CB@NMLDBGEG@?$LB?$KH?G?$LI?$KD?$KM?$LF?$LB?G?$LA?S?N?O?$LH?W?$MA?W?S?$LN?$PL?V?$LJ?S?C?$LL?$KH?$LN?x?H?k?$KD@ ; `string'
PUBLIC	??_C@_0CF@NFDLJKEK@?S?N?O?$LH?R?Q?$LO?$KN?$LP?$KK?J?$LM?A?K?$KD?$KM?O?V?T?Z?$LC?$LL?D?$NM?$LN?x?H?k?S?N?O@ ; `string'
PUBLIC	??_C@_0BE@MONKBGOO@?C?$NM?B?k?$LB?$LL?J?$LJ?S?C?0?R?Q?$LJ?$PN?F?Z?$KD?$KB@ ; `string'
PUBLIC	??_C@_0BP@OBBKOCFP@?$LH?$LP?$LM?d?C?$NM?B?k?$LC?$LL?U?$PN?H?$LH?$KD?$KM?$LC?$LL?D?$NM?$LM?S?H?k?S?N?O?$LH?$KD?$KB@ ; `string'
PUBLIC	??_C@_0CF@FMPIBIL@?S?N?O?$LH?W?$MA?$LN?x?H?k?C?$NM?B?k?$LC?$LL?U?$PN?H?$LH?$KD?$KM?$LC?$LL?D?$NM?$LM?S?H?k?S@ ; `string'
PUBLIC	?__LINE__Var@?0??EfficacyStartGame@CTableFrame@@QAE_NG@Z@4JA ; `CTableFrame::EfficacyStartGame'::`1'::__LINE__Var
PUBLIC	??_C@_0FP@HJKNBJDK@?$LE?K?S?N?O?$LH?W?$MA?M?f?$LM?R?I?h?V?C?A?K?$LC?$LL?$LI?z?O?$OA?M?$KM?5IP?5?$LF@ ; `string'
PUBLIC	??_C@_0FH@GMPNLGDP@?D?z?I?h?V?C?A?K?$LC?$LL?$LI?z?O?$OA?M?$KM?5IP?5?$LF?X?V?$LH?$LF?D?M?f?$LM?R?S@ ; `string'
PUBLIC	??_C@_0FD@FJCGPGNB@?D?z?I?h?V?C?A?K?$LC?$LL?$LI?z?O?$OA?M?$KM?5IP?5?$LF?X?V?$LH?$LF?D?M?f?$LM?R?S@ ; `string'
PUBLIC	??_C@_0DF@OLOBDEEC@?D?z?$LF?D?L?S?E?$NM?B?J?L?$KL?$LI?$NP?$KD?$KM?S?k?5?$CFs?5?I?h?V?C?$LF?D?I?h?V@ ; `string'
PUBLIC	??_C@_0DD@KCKDKCBH@?D?z?$LF?D?J?$KE?B?J?L?$KL?$LF?M?$KD?$KM?S?k?5?$CFs?5?I?h?V?C?$LF?D?I?h?V?C?$LC@ ; `string'
PUBLIC	??_C@_0DD@ILLHEC@?D?z?$LF?D?$LL?$PN?$LH?V?L?$KL?$LI?$NP?$KD?$KM?S?k?5?$CFs?5?I?h?V?C?$LF?D?I?h?V?C?$LC@ ; `string'
PUBLIC	??_C@_0DD@KCEHNENI@?D?z?$LF?D?$LL?$PN?$LH?V?L?$KL?$LF?M?$KD?$KM?S?k?5?$CFs?5?I?h?V?C?$LF?D?I?h?V?C?$LC@ ; `string'
PUBLIC	??_C@_0DM@HLIDKABO@?$LM?S?H?k?S?N?O?$LH?V?A?I?Y?P?h?R?$KK?5?$CFI64d?5?$LF?D?S?N?O?$LH?$LB?R@ ; `string'
PUBLIC	??_C@_0DM@LGDJKEOB@?$LM?S?H?k?S?N?O?$LH?V?A?I?Y?P?h?R?$KK?5?$CFI64d?5?$LF?D?$LB?H?H?$PM?$LB?R@ ; `string'
PUBLIC	??_C@_0DM@NJICMNBB@?$LM?S?H?k?S?N?O?$LH?V?A?I?Y?P?h?R?$KK?5?$CFI64d?5?$LF?D?S?N?O?$LH?$LL?$PN@ ; `string'
PUBLIC	?__LINE__Var@?0??RecordGameScore@CTableFrame@@QAEX_NK@Z@4JA ; `CTableFrame::RecordGameScore'::`1'::__LINE__Var
PUBLIC	??_C@_0DD@NAIKEGDD@ptdtjs?5?$CK?$CK?$CK?5?O?r?5UserID?5?$DN?5?$CFd?5?5?5Nic@ ; `string'
PUBLIC	??_C@_0DG@JDEJHMNA@ptdtcs?5?$CK?$CK?$CK?$CK?5?5kill?5?5?5IDI_PERSONA@ ; `string'
PUBLIC	??_C@_0BN@OELOPBKB@?M?f?$LM?R?I?j?G?k?$LN?b?I?$KC?$KD?$KM?S?N?O?$LH?L?a?G?$LA?$LN?a?J?x?$KD?$KB@ ; `string'
PUBLIC	??_C@_0L@INAKIJJF@?T?$LM?U?$LN?$LN?a?J?x?$KB?$KD@ ; `string'
PUBLIC	??_C@_0BD@HIPNDJBM@?$LH?$LP?V?w?G?$LP?V?F?$LN?b?I?$KC?S?N?O?$LH?$KD?$KB@ ; `string'
PUBLIC	??_C@_0P@IHBJCBPJ@?S?N?O?$LH?W?T?$LG?$KP?$LN?b?I?$KC?$KD?$KB@ ; `string'
PUBLIC	??_C@_0DF@LDFGAABH@g?3?2?M?x?$LK?$PM?2happygamewh?2?$LH?$PO?N?q?$LG?K?2?O?$LF?M?$LD@ ; `string'
PUBLIC	??_R4IUnknownEx@@6B@				; IUnknownEx::`RTTI Complete Object Locator'
PUBLIC	??_R0?AUIUnknownEx@@@8				; IUnknownEx `RTTI Type Descriptor'
PUBLIC	??_R3IUnknownEx@@8				; IUnknownEx::`RTTI Class Hierarchy Descriptor'
PUBLIC	??_R2IUnknownEx@@8				; IUnknownEx::`RTTI Base Class Array'
PUBLIC	??_R1A@?0A@EA@IUnknownEx@@8			; IUnknownEx::`RTTI Base Class Descriptor at (0,-1,0,64)'
PUBLIC	??_R4ITableFrame@@6B@				; ITableFrame::`RTTI Complete Object Locator'
PUBLIC	??_R0?AUITableFrame@@@8				; ITableFrame `RTTI Type Descriptor'
PUBLIC	??_R3ITableFrame@@8				; ITableFrame::`RTTI Class Hierarchy Descriptor'
PUBLIC	??_R2ITableFrame@@8				; ITableFrame::`RTTI Base Class Array'
PUBLIC	??_R1A@?0A@EA@ITableFrame@@8			; ITableFrame::`RTTI Base Class Descriptor at (0,-1,0,64)'
PUBLIC	??_R4ICompilationSink@@6B@			; ICompilationSink::`RTTI Complete Object Locator'
PUBLIC	??_R0?AUICompilationSink@@@8			; ICompilationSink `RTTI Type Descriptor'
PUBLIC	??_R3ICompilationSink@@8			; ICompilationSink::`RTTI Class Hierarchy Descriptor'
PUBLIC	??_R2ICompilationSink@@8			; ICompilationSink::`RTTI Base Class Array'
PUBLIC	??_R1A@?0A@EA@ICompilationSink@@8		; ICompilationSink::`RTTI Base Class Descriptor at (0,-1,0,64)'
PUBLIC	??_R4CTableFrame@@6BITableFrame@@@		; CTableFrame::`RTTI Complete Object Locator'
PUBLIC	??_R0?AVCTableFrame@@@8				; CTableFrame `RTTI Type Descriptor'
PUBLIC	??_R3CTableFrame@@8				; CTableFrame::`RTTI Class Hierarchy Descriptor'
PUBLIC	??_R2CTableFrame@@8				; CTableFrame::`RTTI Base Class Array'
PUBLIC	??_R1A@?0A@EA@CTableFrame@@8			; CTableFrame::`RTTI Base Class Descriptor at (0,-1,0,64)'
PUBLIC	??_R1A@?0A@EC@IUnknownEx@@8			; IUnknownEx::`RTTI Base Class Descriptor at (0,-1,0,66)'
PUBLIC	??_R13?0A@EA@ICompilationSink@@8		; ICompilationSink::`RTTI Base Class Descriptor at (4,-1,0,64)'
PUBLIC	??_R13?0A@EC@IUnknownEx@@8			; IUnknownEx::`RTTI Base Class Descriptor at (4,-1,0,66)'
PUBLIC	??_R4CTableFrame@@6BICompilationSink@@@		; CTableFrame::`RTTI Complete Object Locator'
PUBLIC	??_R4?$CWHArray@PAUIServerUserItem@@ABQAU1@@@6B@ ; CWHArray<IServerUserItem *,IServerUserItem * const &>::`RTTI Complete Object Locator'
PUBLIC	??_R0?AV?$CWHArray@PAUIServerUserItem@@ABQAU1@@@@8 ; CWHArray<IServerUserItem *,IServerUserItem * const &> `RTTI Type Descriptor'
PUBLIC	??_R3?$CWHArray@PAUIServerUserItem@@ABQAU1@@@8	; CWHArray<IServerUserItem *,IServerUserItem * const &>::`RTTI Class Hierarchy Descriptor'
PUBLIC	??_R2?$CWHArray@PAUIServerUserItem@@ABQAU1@@@8	; CWHArray<IServerUserItem *,IServerUserItem * const &>::`RTTI Base Class Array'
PUBLIC	??_R1A@?0A@EA@?$CWHArray@PAUIServerUserItem@@ABQAU1@@@8 ; CWHArray<IServerUserItem *,IServerUserItem * const &>::`RTTI Base Class Descriptor at (0,-1,0,64)'
PUBLIC	??_R4?$CWHArray@PAUtagGameScoreRecord@@ABQAU1@@@6B@ ; CWHArray<tagGameScoreRecord *,tagGameScoreRecord * const &>::`RTTI Complete Object Locator'
PUBLIC	??_R0?AV?$CWHArray@PAUtagGameScoreRecord@@ABQAU1@@@@8 ; CWHArray<tagGameScoreRecord *,tagGameScoreRecord * const &> `RTTI Type Descriptor'
PUBLIC	??_R3?$CWHArray@PAUtagGameScoreRecord@@ABQAU1@@@8 ; CWHArray<tagGameScoreRecord *,tagGameScoreRecord * const &>::`RTTI Class Hierarchy Descriptor'
PUBLIC	??_R2?$CWHArray@PAUtagGameScoreRecord@@ABQAU1@@@8 ; CWHArray<tagGameScoreRecord *,tagGameScoreRecord * const &>::`RTTI Base Class Array'
PUBLIC	??_R1A@?0A@EA@?$CWHArray@PAUtagGameScoreRecord@@ABQAU1@@@8 ; CWHArray<tagGameScoreRecord *,tagGameScoreRecord * const &>::`RTTI Base Class Descriptor at (0,-1,0,64)'
PUBLIC	??_R4?$CMap@KK_JAA_J@@6B@			; CMap<unsigned long,unsigned long,__int64,__int64 &>::`RTTI Complete Object Locator'
PUBLIC	??_R0?AV?$CMap@KK_JAA_J@@@8			; CMap<unsigned long,unsigned long,__int64,__int64 &> `RTTI Type Descriptor'
PUBLIC	??_R3?$CMap@KK_JAA_J@@8				; CMap<unsigned long,unsigned long,__int64,__int64 &>::`RTTI Class Hierarchy Descriptor'
PUBLIC	??_R2?$CMap@KK_JAA_J@@8				; CMap<unsigned long,unsigned long,__int64,__int64 &>::`RTTI Base Class Array'
PUBLIC	??_R1A@?0A@EA@?$CMap@KK_JAA_J@@8		; CMap<unsigned long,unsigned long,__int64,__int64 &>::`RTTI Base Class Descriptor at (0,-1,0,64)'
EXTRN	__purecall:PROC
EXTRN	??3@YAXPAXI@Z:PROC				; operator delete
EXTRN	?__global_delete@@YAXPAXI@Z:PROC		; __global_delete
EXTRN	??_U@YAPAXI@Z:PROC				; operator new[]
EXTRN	??_V@YAXPAX@Z:PROC				; operator delete[]
EXTRN	_atexit:PROC
EXTRN	_memcmp:PROC
EXTRN	_memcpy:PROC
EXTRN	_memmove:PROC
EXTRN	_memset:PROC
EXTRN	__imp__wcscpy_s:PROC
EXTRN	__imp__wcslen:PROC
EXTRN	_strlen:PROC
EXTRN	__imp__OutputDebugStringA@4:PROC
EXTRN	__imp__GetLastError@0:PROC
EXTRN	__imp__SetLastError@4:PROC
EXTRN	__imp__GetLocalTime@4:PROC
EXTRN	__imp__GetTickCount@0:PROC
EXTRN	__imp__lstrcmpA@8:PROC
EXTRN	__imp__lstrcpynA@12:PROC
EXTRN	__imp__lstrlenA@4:PROC
EXTRN	__imp__wsprintfA:PROC
EXTRN	__imp__PeekMessageA@20:PROC
EXTRN	__imp__PostQuitMessage@4:PROC
EXTRN	__imp__MultiByteToWideChar@24:PROC
EXTRN	__imp____stdio_common_vswprintf_s:PROC
EXTRN	__imp__fclose:PROC
EXTRN	__imp__fopen:PROC
EXTRN	__imp__fwrite:PROC
EXTRN	__imp____stdio_common_vsprintf:PROC
EXTRN	__imp____stdio_common_vsnprintf_s:PROC
EXTRN	__imp__free:PROC
EXTRN	__imp__malloc:PROC
EXTRN	__imp__ldiv:PROC
EXTRN	__imp__rand:PROC
EXTRN	__imp___localtime64:PROC
EXTRN	__imp___localtime64_s:PROC
EXTRN	__imp___time64:PROC
EXTRN	__imp___CrtDbgReport:PROC
EXTRN	__imp___CrtDbgReportW:PROC
EXTRN	?AfxAssertValidObject@@YGXPBVCObject@@PBDH@Z:PROC ; AfxAssertValidObject
EXTRN	?AfxThrowMemoryException@@YGXXZ:PROC		; AfxThrowMemoryException
EXTRN	?AfxThrowInvalidArgException@@YGXXZ:PROC	; AfxThrowInvalidArgException
EXTRN	?AfxThrowOleException@@YGXJ@Z:PROC		; AfxThrowOleException
EXTRN	?GetRuntimeClass@CObject@@UBEPAUCRuntimeClass@@XZ:PROC ; CObject::GetRuntimeClass
EXTRN	??1CObject@@UAE@XZ:PROC				; CObject::~CObject
EXTRN	??3CObject@@SGXPAX@Z:PROC			; CObject::operator delete
EXTRN	??0CObject@@IAE@XZ:PROC				; CObject::CObject
EXTRN	?Serialize@CObject@@UAEXAAVCArchive@@@Z:PROC	; CObject::Serialize
EXTRN	?AssertValid@CObject@@UBEXXZ:PROC		; CObject::AssertValid
EXTRN	?Dump@CObject@@UBEXAAVCDumpContext@@@Z:PROC	; CObject::Dump
EXTRN	__imp_??B?$CSimpleStringT@D$00@ATL@@QBEPBDXZ:PROC
EXTRN	__imp_??0?$CStringT@DV?$StrTraitMFC_DLL@DV?$ChTraitsCRT@D@ATL@@@@@ATL@@QAE@XZ:PROC
EXTRN	__imp_??1?$CStringT@DV?$StrTraitMFC_DLL@DV?$ChTraitsCRT@D@ATL@@@@@ATL@@QAE@XZ:PROC
EXTRN	__imp_?Format@?$CStringT@DV?$StrTraitMFC_DLL@DV?$ChTraitsCRT@D@ATL@@@@@ATL@@QAAXPBDZZ:PROC
EXTRN	?AfxIsValidAddress@@YGHPBXIH@Z:PROC		; AfxIsValidAddress
EXTRN	??2@YAPAXIPBDH@Z:PROC				; operator new
EXTRN	??_U@YAPAXIPBDH@Z:PROC				; operator new[]
EXTRN	?IsStoring@CArchive@@QBEHXZ:PROC		; CArchive::IsStoring
EXTRN	?EnsureRead@CArchive@@QAEXPAXI@Z:PROC		; CArchive::EnsureRead
EXTRN	?Write@CArchive@@QAEXPBXI@Z:PROC		; CArchive::Write
EXTRN	?ReadCount@CArchive@@QAEKXZ:PROC		; CArchive::ReadCount
EXTRN	?WriteCount@CArchive@@QAEXK@Z:PROC		; CArchive::WriteCount
EXTRN	?GetDepth@CDumpContext@@QBEHXZ:PROC		; CDumpContext::GetDepth
EXTRN	??6CDumpContext@@QAEAAV0@PBD@Z:PROC		; CDumpContext::operator<<
EXTRN	??6CDumpContext@@QAEAAV0@H@Z:PROC		; CDumpContext::operator<<
EXTRN	?Create@CPlex@@SGPAU1@AAPAU1@II@Z:PROC		; CPlex::Create
EXTRN	?FreeDataChain@CPlex@@QAEXXZ:PROC		; CPlex::FreeDataChain
EXTRN	__imp___mkdir:PROC
EXTRN	__imp_?GetWorkDirectory@CWHService@@SA_NQADG@Z:PROC
EXTRN	__imp_??0CWHIniData@@QAE@XZ:PROC
EXTRN	__imp_??1CWHIniData@@UAE@XZ:PROC
EXTRN	__imp_?SetIniFilePath@CWHIniData@@QAEXPBD@Z:PROC
EXTRN	__imp_?ReadInt@CWHIniData@@QAEIPBD0H@Z:PROC
EXTRN	__imp_?TraceString@CTraceService@@SA_NPBDW4enTraceLevel@@@Z:PROC
EXTRN	__imp_?SearchValidPropertyBuff@CGamePropertyManager@@SAPAUtagPropertyBuff@@KW4PROP_KIND@@@Z:PROC
EXTRN	??_E?$CWHArray@PAUIServerUserItem@@ABQAU1@@@UAEPAXI@Z:PROC ; CWHArray<IServerUserItem *,IServerUserItem * const &>::`vector deleting destructor'
EXTRN	??_E?$CWHArray@PAUtagGameScoreRecord@@ABQAU1@@@UAEPAXI@Z:PROC ; CWHArray<tagGameScoreRecord *,tagGameScoreRecord * const &>::`vector deleting destructor'
EXTRN	??_E?$CMap@KK_JAA_J@@UAEPAXI@Z:PROC		; CMap<unsigned long,unsigned long,__int64,__int64 &>::`vector deleting destructor'
EXTRN	??_ECTableFrame@@UAEPAXI@Z:PROC			; CTableFrame::`vector deleting destructor'
EXTRN	?PerformRoomTaskProgress@CAttemperEngineSink@@QAE_NPAUIServerUserItem@@HHH@Z:PROC ; CAttemperEngineSink::PerformRoomTaskProgress
EXTRN	?SaveVideoPlayerInfo@CAttemperEngineSink@@QAE_NKPAD@Z:PROC ; CAttemperEngineSink::SaveVideoPlayerInfo
EXTRN	?SaveVideoDataInfo@CAttemperEngineSink@@QAE_NPADGGPAEG@Z:PROC ; CAttemperEngineSink::SaveVideoDataInfo
EXTRN	@__security_check_cookie@4:PROC
EXTRN	__CxxThrowException@8:PROC
EXTRN	___CxxFrameHandler3:PROC
EXTRN	__alldiv:PROC
EXTRN	__allmul:PROC
EXTRN	__chkstk:PROC
EXTRN	_memset:PROC
EXTRN	??_7type_info@@6B@:QWORD			; type_info::`vftable'
EXTRN	___security_cookie:DWORD
;	COMDAT ?_OptionsStorage@?1??__local_stdio_printf_options@@9@4_KA
_BSS	SEGMENT
?_OptionsStorage@?1??__local_stdio_printf_options@@9@4_KA DQ 01H DUP (?) ; `__local_stdio_printf_options'::`2'::_OptionsStorage
_BSS	ENDS
;	COMDAT ?atlTraceException@ATL@@3V?$CTraceCategoryEx@$0CAAA@$0A@@1@A
_BSS	SEGMENT
?atlTraceException@ATL@@3V?$CTraceCategoryEx@$0CAAA@$0A@@1@A DD 01H DUP (?) ; ATL::atlTraceException
_BSS	ENDS
;	COMDAT ?m_nLevel@CTrace@ATL@@1IA
_BSS	SEGMENT
?m_nLevel@CTrace@ATL@@1IA DD 01H DUP (?)		; ATL::CTrace::m_nLevel
_BSS	ENDS
;	COMDAT ?m_nLastCategory@CTrace@ATL@@1IA
_BSS	SEGMENT
?m_nLastCategory@CTrace@ATL@@1IA DD 01H DUP (?)		; ATL::CTrace::m_nLastCategory
_BSS	ENDS
;	COMDAT ?m_nMap@CTrace@ATL@@1PAUCategoryMap@12@A
_BSS	SEGMENT
?m_nMap@CTrace@ATL@@1PAUCategoryMap@12@A DB 02080H DUP (?) ; ATL::CTrace::m_nMap
_BSS	ENDS
_BSS	SEGMENT
?m_GameScoreRecordBuffer@CTableFrame@@1V?$CWHArray@PAUtagGameScoreRecord@@ABQAU1@@@A DB 014H DUP (?) ; CTableFrame::m_GameScoreRecordBuffer
_BSS	ENDS
;	COMDAT CRT$XCU
CRT$XCU	SEGMENT
?atlTraceException$initializer$@ATL@@3P6AXXZA DD FLAT:??__EatlTraceException@ATL@@YAXXZ ; ATL::atlTraceException$initializer$
CRT$XCU	ENDS
;	COMDAT ??_R1A@?0A@EA@?$CMap@KK_JAA_J@@8
rdata$r	SEGMENT
??_R1A@?0A@EA@?$CMap@KK_JAA_J@@8 DD FLAT:??_R0?AV?$CMap@KK_JAA_J@@@8 ; CMap<unsigned long,unsigned long,__int64,__int64 &>::`RTTI Base Class Descriptor at (0,-1,0,64)'
	DD	01H
	DD	00H
	DD	0ffffffffH
	DD	00H
	DD	040H
	DD	FLAT:??_R3?$CMap@KK_JAA_J@@8
rdata$r	ENDS
;	COMDAT ??_R2?$CMap@KK_JAA_J@@8
rdata$r	SEGMENT
??_R2?$CMap@KK_JAA_J@@8 DD FLAT:??_R1A@?0A@EA@?$CMap@KK_JAA_J@@8 ; CMap<unsigned long,unsigned long,__int64,__int64 &>::`RTTI Base Class Array'
	DD	FLAT:??_R1A@?0A@EA@CObject@@8
rdata$r	ENDS
;	COMDAT ??_R3?$CMap@KK_JAA_J@@8
rdata$r	SEGMENT
??_R3?$CMap@KK_JAA_J@@8 DD 00H				; CMap<unsigned long,unsigned long,__int64,__int64 &>::`RTTI Class Hierarchy Descriptor'
	DD	00H
	DD	02H
	DD	FLAT:??_R2?$CMap@KK_JAA_J@@8
rdata$r	ENDS
;	COMDAT ??_R0?AV?$CMap@KK_JAA_J@@@8
data$r	SEGMENT
??_R0?AV?$CMap@KK_JAA_J@@@8 DD FLAT:??_7type_info@@6B@	; CMap<unsigned long,unsigned long,__int64,__int64 &> `RTTI Type Descriptor'
	DD	00H
	DB	'.?AV?$CMap@KK_JAA_J@@', 00H
data$r	ENDS
;	COMDAT ??_R4?$CMap@KK_JAA_J@@6B@
rdata$r	SEGMENT
??_R4?$CMap@KK_JAA_J@@6B@ DD 00H			; CMap<unsigned long,unsigned long,__int64,__int64 &>::`RTTI Complete Object Locator'
	DD	00H
	DD	00H
	DD	FLAT:??_R0?AV?$CMap@KK_JAA_J@@@8
	DD	FLAT:??_R3?$CMap@KK_JAA_J@@8
rdata$r	ENDS
;	COMDAT ??_R1A@?0A@EA@?$CWHArray@PAUtagGameScoreRecord@@ABQAU1@@@8
rdata$r	SEGMENT
??_R1A@?0A@EA@?$CWHArray@PAUtagGameScoreRecord@@ABQAU1@@@8 DD FLAT:??_R0?AV?$CWHArray@PAUtagGameScoreRecord@@ABQAU1@@@@8 ; CWHArray<tagGameScoreRecord *,tagGameScoreRecord * const &>::`RTTI Base Class Descriptor at (0,-1,0,64)'
	DD	00H
	DD	00H
	DD	0ffffffffH
	DD	00H
	DD	040H
	DD	FLAT:??_R3?$CWHArray@PAUtagGameScoreRecord@@ABQAU1@@@8
rdata$r	ENDS
;	COMDAT ??_R2?$CWHArray@PAUtagGameScoreRecord@@ABQAU1@@@8
rdata$r	SEGMENT
??_R2?$CWHArray@PAUtagGameScoreRecord@@ABQAU1@@@8 DD FLAT:??_R1A@?0A@EA@?$CWHArray@PAUtagGameScoreRecord@@ABQAU1@@@8 ; CWHArray<tagGameScoreRecord *,tagGameScoreRecord * const &>::`RTTI Base Class Array'
rdata$r	ENDS
;	COMDAT ??_R3?$CWHArray@PAUtagGameScoreRecord@@ABQAU1@@@8
rdata$r	SEGMENT
??_R3?$CWHArray@PAUtagGameScoreRecord@@ABQAU1@@@8 DD 00H ; CWHArray<tagGameScoreRecord *,tagGameScoreRecord * const &>::`RTTI Class Hierarchy Descriptor'
	DD	00H
	DD	01H
	DD	FLAT:??_R2?$CWHArray@PAUtagGameScoreRecord@@ABQAU1@@@8
rdata$r	ENDS
;	COMDAT ??_R0?AV?$CWHArray@PAUtagGameScoreRecord@@ABQAU1@@@@8
data$r	SEGMENT
??_R0?AV?$CWHArray@PAUtagGameScoreRecord@@ABQAU1@@@@8 DD FLAT:??_7type_info@@6B@ ; CWHArray<tagGameScoreRecord *,tagGameScoreRecord * const &> `RTTI Type Descriptor'
	DD	00H
	DB	'.?AV?$CWHArray@PAUtagGameScoreRecord@@ABQAU1@@@', 00H
data$r	ENDS
;	COMDAT ??_R4?$CWHArray@PAUtagGameScoreRecord@@ABQAU1@@@6B@
rdata$r	SEGMENT
??_R4?$CWHArray@PAUtagGameScoreRecord@@ABQAU1@@@6B@ DD 00H ; CWHArray<tagGameScoreRecord *,tagGameScoreRecord * const &>::`RTTI Complete Object Locator'
	DD	00H
	DD	00H
	DD	FLAT:??_R0?AV?$CWHArray@PAUtagGameScoreRecord@@ABQAU1@@@@8
	DD	FLAT:??_R3?$CWHArray@PAUtagGameScoreRecord@@ABQAU1@@@8
rdata$r	ENDS
;	COMDAT ??_R1A@?0A@EA@?$CWHArray@PAUIServerUserItem@@ABQAU1@@@8
rdata$r	SEGMENT
??_R1A@?0A@EA@?$CWHArray@PAUIServerUserItem@@ABQAU1@@@8 DD FLAT:??_R0?AV?$CWHArray@PAUIServerUserItem@@ABQAU1@@@@8 ; CWHArray<IServerUserItem *,IServerUserItem * const &>::`RTTI Base Class Descriptor at (0,-1,0,64)'
	DD	00H
	DD	00H
	DD	0ffffffffH
	DD	00H
	DD	040H
	DD	FLAT:??_R3?$CWHArray@PAUIServerUserItem@@ABQAU1@@@8
rdata$r	ENDS
;	COMDAT ??_R2?$CWHArray@PAUIServerUserItem@@ABQAU1@@@8
rdata$r	SEGMENT
??_R2?$CWHArray@PAUIServerUserItem@@ABQAU1@@@8 DD FLAT:??_R1A@?0A@EA@?$CWHArray@PAUIServerUserItem@@ABQAU1@@@8 ; CWHArray<IServerUserItem *,IServerUserItem * const &>::`RTTI Base Class Array'
rdata$r	ENDS
;	COMDAT ??_R3?$CWHArray@PAUIServerUserItem@@ABQAU1@@@8
rdata$r	SEGMENT
??_R3?$CWHArray@PAUIServerUserItem@@ABQAU1@@@8 DD 00H	; CWHArray<IServerUserItem *,IServerUserItem * const &>::`RTTI Class Hierarchy Descriptor'
	DD	00H
	DD	01H
	DD	FLAT:??_R2?$CWHArray@PAUIServerUserItem@@ABQAU1@@@8
rdata$r	ENDS
;	COMDAT ??_R0?AV?$CWHArray@PAUIServerUserItem@@ABQAU1@@@@8
data$r	SEGMENT
??_R0?AV?$CWHArray@PAUIServerUserItem@@ABQAU1@@@@8 DD FLAT:??_7type_info@@6B@ ; CWHArray<IServerUserItem *,IServerUserItem * const &> `RTTI Type Descriptor'
	DD	00H
	DB	'.?AV?$CWHArray@PAUIServerUserItem@@ABQAU1@@@', 00H
data$r	ENDS
;	COMDAT ??_R4?$CWHArray@PAUIServerUserItem@@ABQAU1@@@6B@
rdata$r	SEGMENT
??_R4?$CWHArray@PAUIServerUserItem@@ABQAU1@@@6B@ DD 00H	; CWHArray<IServerUserItem *,IServerUserItem * const &>::`RTTI Complete Object Locator'
	DD	00H
	DD	00H
	DD	FLAT:??_R0?AV?$CWHArray@PAUIServerUserItem@@ABQAU1@@@@8
	DD	FLAT:??_R3?$CWHArray@PAUIServerUserItem@@ABQAU1@@@8
rdata$r	ENDS
;	COMDAT ??_R4CTableFrame@@6BICompilationSink@@@
rdata$r	SEGMENT
??_R4CTableFrame@@6BICompilationSink@@@ DD 00H		; CTableFrame::`RTTI Complete Object Locator'
	DD	04H
	DD	00H
	DD	FLAT:??_R0?AVCTableFrame@@@8
	DD	FLAT:??_R3CTableFrame@@8
rdata$r	ENDS
;	COMDAT ??_R13?0A@EC@IUnknownEx@@8
rdata$r	SEGMENT
??_R13?0A@EC@IUnknownEx@@8 DD FLAT:??_R0?AUIUnknownEx@@@8 ; IUnknownEx::`RTTI Base Class Descriptor at (4,-1,0,66)'
	DD	00H
	DD	04H
	DD	0ffffffffH
	DD	00H
	DD	042H
	DD	FLAT:??_R3IUnknownEx@@8
rdata$r	ENDS
;	COMDAT ??_R13?0A@EA@ICompilationSink@@8
rdata$r	SEGMENT
??_R13?0A@EA@ICompilationSink@@8 DD FLAT:??_R0?AUICompilationSink@@@8 ; ICompilationSink::`RTTI Base Class Descriptor at (4,-1,0,64)'
	DD	01H
	DD	04H
	DD	0ffffffffH
	DD	00H
	DD	040H
	DD	FLAT:??_R3ICompilationSink@@8
rdata$r	ENDS
;	COMDAT ??_R1A@?0A@EC@IUnknownEx@@8
rdata$r	SEGMENT
??_R1A@?0A@EC@IUnknownEx@@8 DD FLAT:??_R0?AUIUnknownEx@@@8 ; IUnknownEx::`RTTI Base Class Descriptor at (0,-1,0,66)'
	DD	00H
	DD	00H
	DD	0ffffffffH
	DD	00H
	DD	042H
	DD	FLAT:??_R3IUnknownEx@@8
rdata$r	ENDS
;	COMDAT ??_R1A@?0A@EA@CTableFrame@@8
rdata$r	SEGMENT
??_R1A@?0A@EA@CTableFrame@@8 DD FLAT:??_R0?AVCTableFrame@@@8 ; CTableFrame::`RTTI Base Class Descriptor at (0,-1,0,64)'
	DD	04H
	DD	00H
	DD	0ffffffffH
	DD	00H
	DD	040H
	DD	FLAT:??_R3CTableFrame@@8
rdata$r	ENDS
;	COMDAT ??_R2CTableFrame@@8
rdata$r	SEGMENT
??_R2CTableFrame@@8 DD FLAT:??_R1A@?0A@EA@CTableFrame@@8 ; CTableFrame::`RTTI Base Class Array'
	DD	FLAT:??_R1A@?0A@EA@ITableFrame@@8
	DD	FLAT:??_R1A@?0A@EC@IUnknownEx@@8
	DD	FLAT:??_R13?0A@EA@ICompilationSink@@8
	DD	FLAT:??_R13?0A@EC@IUnknownEx@@8
rdata$r	ENDS
;	COMDAT ??_R3CTableFrame@@8
rdata$r	SEGMENT
??_R3CTableFrame@@8 DD 00H				; CTableFrame::`RTTI Class Hierarchy Descriptor'
	DD	05H
	DD	05H
	DD	FLAT:??_R2CTableFrame@@8
rdata$r	ENDS
;	COMDAT ??_R0?AVCTableFrame@@@8
data$r	SEGMENT
??_R0?AVCTableFrame@@@8 DD FLAT:??_7type_info@@6B@	; CTableFrame `RTTI Type Descriptor'
	DD	00H
	DB	'.?AVCTableFrame@@', 00H
data$r	ENDS
;	COMDAT ??_R4CTableFrame@@6BITableFrame@@@
rdata$r	SEGMENT
??_R4CTableFrame@@6BITableFrame@@@ DD 00H		; CTableFrame::`RTTI Complete Object Locator'
	DD	00H
	DD	00H
	DD	FLAT:??_R0?AVCTableFrame@@@8
	DD	FLAT:??_R3CTableFrame@@8
rdata$r	ENDS
;	COMDAT ??_R1A@?0A@EA@ICompilationSink@@8
rdata$r	SEGMENT
??_R1A@?0A@EA@ICompilationSink@@8 DD FLAT:??_R0?AUICompilationSink@@@8 ; ICompilationSink::`RTTI Base Class Descriptor at (0,-1,0,64)'
	DD	01H
	DD	00H
	DD	0ffffffffH
	DD	00H
	DD	040H
	DD	FLAT:??_R3ICompilationSink@@8
rdata$r	ENDS
;	COMDAT ??_R2ICompilationSink@@8
rdata$r	SEGMENT
??_R2ICompilationSink@@8 DD FLAT:??_R1A@?0A@EA@ICompilationSink@@8 ; ICompilationSink::`RTTI Base Class Array'
	DD	FLAT:??_R1A@?0A@EA@IUnknownEx@@8
rdata$r	ENDS
;	COMDAT ??_R3ICompilationSink@@8
rdata$r	SEGMENT
??_R3ICompilationSink@@8 DD 00H				; ICompilationSink::`RTTI Class Hierarchy Descriptor'
	DD	00H
	DD	02H
	DD	FLAT:??_R2ICompilationSink@@8
rdata$r	ENDS
;	COMDAT ??_R0?AUICompilationSink@@@8
data$r	SEGMENT
??_R0?AUICompilationSink@@@8 DD FLAT:??_7type_info@@6B@	; ICompilationSink `RTTI Type Descriptor'
	DD	00H
	DB	'.?AUICompilationSink@@', 00H
data$r	ENDS
;	COMDAT ??_R4ICompilationSink@@6B@
rdata$r	SEGMENT
??_R4ICompilationSink@@6B@ DD 00H			; ICompilationSink::`RTTI Complete Object Locator'
	DD	00H
	DD	00H
	DD	FLAT:??_R0?AUICompilationSink@@@8
	DD	FLAT:??_R3ICompilationSink@@8
rdata$r	ENDS
;	COMDAT ??_R1A@?0A@EA@ITableFrame@@8
rdata$r	SEGMENT
??_R1A@?0A@EA@ITableFrame@@8 DD FLAT:??_R0?AUITableFrame@@@8 ; ITableFrame::`RTTI Base Class Descriptor at (0,-1,0,64)'
	DD	01H
	DD	00H
	DD	0ffffffffH
	DD	00H
	DD	040H
	DD	FLAT:??_R3ITableFrame@@8
rdata$r	ENDS
;	COMDAT ??_R2ITableFrame@@8
rdata$r	SEGMENT
??_R2ITableFrame@@8 DD FLAT:??_R1A@?0A@EA@ITableFrame@@8 ; ITableFrame::`RTTI Base Class Array'
	DD	FLAT:??_R1A@?0A@EA@IUnknownEx@@8
rdata$r	ENDS
;	COMDAT ??_R3ITableFrame@@8
rdata$r	SEGMENT
??_R3ITableFrame@@8 DD 00H				; ITableFrame::`RTTI Class Hierarchy Descriptor'
	DD	00H
	DD	02H
	DD	FLAT:??_R2ITableFrame@@8
rdata$r	ENDS
;	COMDAT ??_R0?AUITableFrame@@@8
data$r	SEGMENT
??_R0?AUITableFrame@@@8 DD FLAT:??_7type_info@@6B@	; ITableFrame `RTTI Type Descriptor'
	DD	00H
	DB	'.?AUITableFrame@@', 00H
data$r	ENDS
;	COMDAT ??_R4ITableFrame@@6B@
rdata$r	SEGMENT
??_R4ITableFrame@@6B@ DD 00H				; ITableFrame::`RTTI Complete Object Locator'
	DD	00H
	DD	00H
	DD	FLAT:??_R0?AUITableFrame@@@8
	DD	FLAT:??_R3ITableFrame@@8
rdata$r	ENDS
;	COMDAT ??_R1A@?0A@EA@IUnknownEx@@8
rdata$r	SEGMENT
??_R1A@?0A@EA@IUnknownEx@@8 DD FLAT:??_R0?AUIUnknownEx@@@8 ; IUnknownEx::`RTTI Base Class Descriptor at (0,-1,0,64)'
	DD	00H
	DD	00H
	DD	0ffffffffH
	DD	00H
	DD	040H
	DD	FLAT:??_R3IUnknownEx@@8
rdata$r	ENDS
;	COMDAT ??_R2IUnknownEx@@8
rdata$r	SEGMENT
??_R2IUnknownEx@@8 DD FLAT:??_R1A@?0A@EA@IUnknownEx@@8	; IUnknownEx::`RTTI Base Class Array'
rdata$r	ENDS
;	COMDAT ??_R3IUnknownEx@@8
rdata$r	SEGMENT
??_R3IUnknownEx@@8 DD 00H				; IUnknownEx::`RTTI Class Hierarchy Descriptor'
	DD	00H
	DD	01H
	DD	FLAT:??_R2IUnknownEx@@8
rdata$r	ENDS
;	COMDAT ??_R0?AUIUnknownEx@@@8
data$r	SEGMENT
??_R0?AUIUnknownEx@@@8 DD FLAT:??_7type_info@@6B@	; IUnknownEx `RTTI Type Descriptor'
	DD	00H
	DB	'.?AUIUnknownEx@@', 00H
data$r	ENDS
;	COMDAT ??_R4IUnknownEx@@6B@
rdata$r	SEGMENT
??_R4IUnknownEx@@6B@ DD 00H				; IUnknownEx::`RTTI Complete Object Locator'
	DD	00H
	DD	00H
	DD	FLAT:??_R0?AUIUnknownEx@@@8
	DD	FLAT:??_R3IUnknownEx@@8
rdata$r	ENDS
;	COMDAT ??_C@_0DF@LDFGAABH@g?3?2?M?x?$LK?$PM?2happygamewh?2?$LH?$PO?N?q?$LG?K?2?O?$LF?M?$LD@
CONST	SEGMENT
??_C@_0DF@LDFGAABH@g?3?2?M?x?$LK?$PM?2happygamewh?2?$LH?$PO?N?q?$LG?K?2?O?$LF?M?$LD@ DB 'g'
	DB	':\', 0cdH, 0f8H, 0baH, 0fcH, '\happygamewh\', 0b7H, 0feH, 0ceH
	DB	0f1H, 0b6H, 0cbH, '\', 0cfH, 0b5H, 0cdH, 0b3H, 0c4H, 0a3H, 0bfH
	DB	0e9H, '\', 0c8H, 0abH, 0beH, 0d6H, 0b6H, 0a8H, 0d2H, 0e5H, '\a'
	DB	'rray.h', 00H				; `string'
CONST	ENDS
;	COMDAT ??_C@_0P@IHBJCBPJ@?S?N?O?$LH?W?T?$LG?$KP?$LN?b?I?$KC?$KD?$KB@
CONST	SEGMENT
??_C@_0P@IHBJCBPJ@?S?N?O?$LH?W?T?$LG?$KP?$LN?b?I?$KC?$KD?$KB@ DB 0d3H, 0ceH
	DB	0cfH, 0b7H, 0d7H, 0d4H, 0b6H, 0afH, 0bdH, 0e2H, 0c9H, 0a2H, 0a3H
	DB	0a1H, 00H					; `string'
CONST	ENDS
;	COMDAT ??_C@_0BD@HIPNDJBM@?$LH?$LP?V?w?G?$LP?V?F?$LN?b?I?$KC?S?N?O?$LH?$KD?$KB@
CONST	SEGMENT
??_C@_0BD@HIPNDJBM@?$LH?$LP?V?w?G?$LP?V?F?$LN?b?I?$KC?S?N?O?$LH?$KD?$KB@ DB 0b7H
	DB	0bfH, 0d6H, 0f7H, 0c7H, 0bfH, 0d6H, 0c6H, 0bdH, 0e2H, 0c9H, 0a2H
	DB	0d3H, 0ceH, 0cfH, 0b7H, 0a3H, 0a1H, 00H	; `string'
CONST	ENDS
;	COMDAT ??_C@_0L@INAKIJJF@?T?$LM?U?$LN?$LN?a?J?x?$KB?$KD@
CONST	SEGMENT
??_C@_0L@INAKIJJF@?T?$LM?U?$LN?$LN?a?J?x?$KB?$KD@ DB 0d4H, 0bcH, 0d5H, 0bdH
	DB	0bdH, 0e1H, 0caH, 0f8H, 0a1H, 0a3H, 00H	; `string'
CONST	ENDS
;	COMDAT ??_C@_0BN@OELOPBKB@?M?f?$LM?R?I?j?G?k?$LN?b?I?$KC?$KD?$KM?S?N?O?$LH?L?a?G?$LA?$LN?a?J?x?$KD?$KB@
CONST	SEGMENT
??_C@_0BN@OELOPBKB@?M?f?$LM?R?I?j?G?k?$LN?b?I?$KC?$KD?$KM?S?N?O?$LH?L?a?G?$LA?$LN?a?J?x?$KD?$KB@ DB 0cdH
	DB	0e6H, 0bcH, 0d2H, 0c9H, 0eaH, 0c7H, 0ebH, 0bdH, 0e2H, 0c9H, 0a2H
	DB	0a3H, 0acH, 0d3H, 0ceH, 0cfH, 0b7H, 0ccH, 0e1H, 0c7H, 0b0H, 0bdH
	DB	0e1H, 0caH, 0f8H, 0a3H, 0a1H, 00H		; `string'
CONST	ENDS
;	COMDAT ??_C@_0DG@JDEJHMNA@ptdtcs?5?$CK?$CK?$CK?$CK?5?5kill?5?5?5IDI_PERSONA@
CONST	SEGMENT
??_C@_0DG@JDEJHMNA@ptdtcs?5?$CK?$CK?$CK?$CK?5?5kill?5?5?5IDI_PERSONA@ DB 'p'
	DB	'tdtcs ****  kill   IDI_PERSONAL_BEFORE_BEGAIN_TIME 4', 00H ; `string'
CONST	ENDS
;	COMDAT ??_C@_0DD@NAIKEGDD@ptdtjs?5?$CK?$CK?$CK?5?O?r?5UserID?5?$DN?5?$CFd?5?5?5Nic@
CONST	SEGMENT
??_C@_0DD@NAIKEGDD@ptdtjs?5?$CK?$CK?$CK?5?O?r?5UserID?5?$DN?5?$CFd?5?5?5Nic@ DB 'p'
	DB	'tdtjs *** ', 0cfH, 0f2H, ' UserID = %d   Nicname = %s  ', 0b7H
	DB	0a2H, 0cbH, 0cdH, 0cfH, 0fbH, 0cfH, 0a2H, 00H ; `string'
CONST	ENDS
;	COMDAT ?__LINE__Var@?0??RecordGameScore@CTableFrame@@QAEX_NK@Z@4JA
_DATA	SEGMENT
?__LINE__Var@?0??RecordGameScore@CTableFrame@@QAEX_NK@Z@4JA DD 0e4fH ; `CTableFrame::RecordGameScore'::`1'::__LINE__Var
_DATA	ENDS
;	COMDAT ??_C@_0DM@NJICMNBB@?$LM?S?H?k?S?N?O?$LH?V?A?I?Y?P?h?R?$KK?5?$CFI64d?5?$LF?D?S?N?O?$LH?$LL?$PN@
CONST	SEGMENT
??_C@_0DM@NJICMNBB@?$LM?S?H?k?S?N?O?$LH?V?A?I?Y?P?h?R?$KK?5?$CFI64d?5?$LF?D?S?N?O?$LH?$LL?$PN@ DB 0bcH
	DB	0d3H, 0c8H, 0ebH, 0d3H, 0ceH, 0cfH, 0b7H, 0d6H, 0c1H, 0c9H, 0d9H
	DB	0d0H, 0e8H, 0d2H, 0aaH, ' %I64d ', 0b5H, 0c4H, 0d3H, 0ceH, 0cfH
	DB	0b7H, 0bbH, 0fdH, 0b7H, 0d6H, 0a3H, 0acH, 0c4H, 0faH, 0b5H, 0c4H
	DB	0bbH, 0fdH, 0b7H, 0d6H, 0b2H, 0bbH, 0b9H, 0bbH, 0a3H, 0acH, 0b2H
	DB	0bbH, 0c4H, 0dcH, 0bcH, 0d3H, 0c8H, 0ebH, 0a3H, 0a1H, 00H ; `string'
CONST	ENDS
;	COMDAT ??_C@_0DM@LGDJKEOB@?$LM?S?H?k?S?N?O?$LH?V?A?I?Y?P?h?R?$KK?5?$CFI64d?5?$LF?D?$LB?H?H?$PM?$LB?R@
CONST	SEGMENT
??_C@_0DM@LGDJKEOB@?$LM?S?H?k?S?N?O?$LH?V?A?I?Y?P?h?R?$KK?5?$CFI64d?5?$LF?D?$LB?H?H?$PM?$LB?R@ DB 0bcH
	DB	0d3H, 0c8H, 0ebH, 0d3H, 0ceH, 0cfH, 0b7H, 0d6H, 0c1H, 0c9H, 0d9H
	DB	0d0H, 0e8H, 0d2H, 0aaH, ' %I64d ', 0b5H, 0c4H, 0b1H, 0c8H, 0c8H
	DB	0fcH, 0b1H, 0d2H, 0a3H, 0acH, 0c4H, 0faH, 0b5H, 0c4H, 0b1H, 0c8H
	DB	0c8H, 0fcH, 0b1H, 0d2H, 0b2H, 0bbH, 0b9H, 0bbH, 0a3H, 0acH, 0b2H
	DB	0bbH, 0c4H, 0dcH, 0bcH, 0d3H, 0c8H, 0ebH, 0a3H, 0a1H, 00H ; `string'
CONST	ENDS
;	COMDAT ??_C@_0DM@HLIDKABO@?$LM?S?H?k?S?N?O?$LH?V?A?I?Y?P?h?R?$KK?5?$CFI64d?5?$LF?D?S?N?O?$LH?$LB?R@
CONST	SEGMENT
??_C@_0DM@HLIDKABO@?$LM?S?H?k?S?N?O?$LH?V?A?I?Y?P?h?R?$KK?5?$CFI64d?5?$LF?D?S?N?O?$LH?$LB?R@ DB 0bcH
	DB	0d3H, 0c8H, 0ebH, 0d3H, 0ceH, 0cfH, 0b7H, 0d6H, 0c1H, 0c9H, 0d9H
	DB	0d0H, 0e8H, 0d2H, 0aaH, ' %I64d ', 0b5H, 0c4H, 0d3H, 0ceH, 0cfH
	DB	0b7H, 0b1H, 0d2H, 0a3H, 0acH, 0c4H, 0faH, 0b5H, 0c4H, 0d3H, 0ceH
	DB	0cfH, 0b7H, 0b1H, 0d2H, 0b2H, 0bbH, 0b9H, 0bbH, 0a3H, 0acH, 0b2H
	DB	0bbH, 0c4H, 0dcH, 0bcH, 0d3H, 0c8H, 0ebH, 0a3H, 0a1H, 00H ; `string'
CONST	ENDS
;	COMDAT ??_C@_0DD@KCEHNENI@?D?z?$LF?D?$LL?$PN?$LH?V?L?$KL?$LF?M?$KD?$KM?S?k?5?$CFs?5?I?h?V?C?$LF?D?I?h?V?C?$LC@
CONST	SEGMENT
??_C@_0DD@KCEHNENI@?D?z?$LF?D?$LL?$PN?$LH?V?L?$KL?$LF?M?$KD?$KM?S?k?5?$CFs?5?I?h?V?C?$LF?D?I?h?V?C?$LC@ DB 0c4H
	DB	0faH, 0b5H, 0c4H, 0bbH, 0fdH, 0b7H, 0d6H, 0ccH, 0abH, 0b5H, 0cdH
	DB	0a3H, 0acH, 0d3H, 0ebH, ' %s ', 0c9H, 0e8H, 0d6H, 0c3H, 0b5H, 0c4H
	DB	0c9H, 0e8H, 0d6H, 0c3H, 0b2H, 0bbH, 0b7H, 0fbH, 0a3H, 0acH, 0b2H
	DB	0bbH, 0c4H, 0dcH, 0bcH, 0d3H, 0c8H, 0ebH, 0d3H, 0ceH, 0cfH, 0b7H
	DB	0a3H, 0a1H, 00H				; `string'
CONST	ENDS
;	COMDAT ??_C@_0DD@ILLHEC@?D?z?$LF?D?$LL?$PN?$LH?V?L?$KL?$LI?$NP?$KD?$KM?S?k?5?$CFs?5?I?h?V?C?$LF?D?I?h?V?C?$LC@
CONST	SEGMENT
??_C@_0DD@ILLHEC@?D?z?$LF?D?$LL?$PN?$LH?V?L?$KL?$LI?$NP?$KD?$KM?S?k?5?$CFs?5?I?h?V?C?$LF?D?I?h?V?C?$LC@ DB 0c4H
	DB	0faH, 0b5H, 0c4H, 0bbH, 0fdH, 0b7H, 0d6H, 0ccH, 0abH, 0b8H, 0dfH
	DB	0a3H, 0acH, 0d3H, 0ebH, ' %s ', 0c9H, 0e8H, 0d6H, 0c3H, 0b5H, 0c4H
	DB	0c9H, 0e8H, 0d6H, 0c3H, 0b2H, 0bbH, 0b7H, 0fbH, 0a3H, 0acH, 0b2H
	DB	0bbH, 0c4H, 0dcH, 0bcH, 0d3H, 0c8H, 0ebH, 0d3H, 0ceH, 0cfH, 0b7H
	DB	0a3H, 0a1H, 00H				; `string'
CONST	ENDS
;	COMDAT ??_C@_0DD@KCKDKCBH@?D?z?$LF?D?J?$KE?B?J?L?$KL?$LF?M?$KD?$KM?S?k?5?$CFs?5?I?h?V?C?$LF?D?I?h?V?C?$LC@
CONST	SEGMENT
??_C@_0DD@KCKDKCBH@?D?z?$LF?D?J?$KE?B?J?L?$KL?$LF?M?$KD?$KM?S?k?5?$CFs?5?I?h?V?C?$LF?D?I?h?V?C?$LC@ DB 0c4H
	DB	0faH, 0b5H, 0c4H, 0caH, 0a4H, 0c2H, 0caH, 0ccH, 0abH, 0b5H, 0cdH
	DB	0a3H, 0acH, 0d3H, 0ebH, ' %s ', 0c9H, 0e8H, 0d6H, 0c3H, 0b5H, 0c4H
	DB	0c9H, 0e8H, 0d6H, 0c3H, 0b2H, 0bbH, 0b7H, 0fbH, 0a3H, 0acH, 0b2H
	DB	0bbH, 0c4H, 0dcH, 0bcH, 0d3H, 0c8H, 0ebH, 0d3H, 0ceH, 0cfH, 0b7H
	DB	0a3H, 0a1H, 00H				; `string'
CONST	ENDS
;	COMDAT ??_C@_0DF@OLOBDEEC@?D?z?$LF?D?L?S?E?$NM?B?J?L?$KL?$LI?$NP?$KD?$KM?S?k?5?$CFs?5?I?h?V?C?$LF?D?I?h?V@
CONST	SEGMENT
??_C@_0DF@OLOBDEEC@?D?z?$LF?D?L?S?E?$NM?B?J?L?$KL?$LI?$NP?$KD?$KM?S?k?5?$CFs?5?I?h?V?C?$LF?D?I?h?V@ DB 0c4H
	DB	0faH, 0b5H, 0c4H, 0ccH, 0d3H, 0c5H, 0dcH, 0c2H, 0caH, 0ccH, 0abH
	DB	0b8H, 0dfH, 0a3H, 0acH, 0d3H, 0ebH, ' %s ', 0c9H, 0e8H, 0d6H, 0c3H
	DB	0b5H, 0c4H, 0c9H, 0e8H, 0d6H, 0c3H, 0b2H, 0bbH, 0b7H, 0fbH, 0a3H
	DB	0acH, 0b2H, 0bbH, 0c4H, 0dcH, 0bcH, 0d3H, 0c8H, 0ebH, 0d3H, 0ceH
	DB	0cfH, 0b7H, 0a3H, 0a1H, 00H			; `string'
CONST	ENDS
;	COMDAT ??_C@_0FD@FJCGPGNB@?D?z?I?h?V?C?A?K?$LC?$LL?$LI?z?O?$OA?M?$KM?5IP?5?$LF?X?V?$LH?$LF?D?M?f?$LM?R?S@
CONST	SEGMENT
??_C@_0FD@FJCGPGNB@?D?z?I?h?V?C?A?K?$LC?$LL?$LI?z?O?$OA?M?$KM?5IP?5?$LF?X?V?$LH?$LF?D?M?f?$LM?R?S@ DB 0c4H
	DB	0faH, 0c9H, 0e8H, 0d6H, 0c3H, 0c1H, 0cbH, 0b2H, 0bbH, 0b8H, 0faH
	DB	0cfH, 0e0H, 0cdH, 0acH, ' IP ', 0b5H, 0d8H, 0d6H, 0b7H, 0b5H, 0c4H
	DB	0cdH, 0e6H, 0bcH, 0d2H, 0d3H, 0ceH, 0cfH, 0b7H, 0a3H, 0acH, 0b4H
	DB	0cbH, 0d3H, 0ceH, 0cfH, 0b7H, 0d7H, 0c0H, 0b4H, 0e6H, 0d4H, 0daH
	DB	' IP ', 0b5H, 0d8H, 0d6H, 0b7H, 0cfH, 0e0H, 0cdH, 0acH, 0b5H, 0c4H
	DB	0cdH, 0e6H, 0bcH, 0d2H, 0a3H, 0acH, 0b2H, 0bbH, 0c4H, 0dcH, 0bcH
	DB	0d3H, 0c8H, 0ebH, 0d3H, 0ceH, 0cfH, 0b7H, 0a3H, 0a1H, 00H ; `string'
CONST	ENDS
;	COMDAT ??_C@_0FH@GMPNLGDP@?D?z?I?h?V?C?A?K?$LC?$LL?$LI?z?O?$OA?M?$KM?5IP?5?$LF?X?V?$LH?$LF?D?M?f?$LM?R?S@
CONST	SEGMENT
??_C@_0FH@GMPNLGDP@?D?z?I?h?V?C?A?K?$LC?$LL?$LI?z?O?$OA?M?$KM?5IP?5?$LF?X?V?$LH?$LF?D?M?f?$LM?R?S@ DB 0c4H
	DB	0faH, 0c9H, 0e8H, 0d6H, 0c3H, 0c1H, 0cbH, 0b2H, 0bbH, 0b8H, 0faH
	DB	0cfH, 0e0H, 0cdH, 0acH, ' IP ', 0b5H, 0d8H, 0d6H, 0b7H, 0b5H, 0c4H
	DB	0cdH, 0e6H, 0bcH, 0d2H, 0d3H, 0ceH, 0cfH, 0b7H, 0a3H, 0acH, 0b4H
	DB	0cbH, 0d3H, 0ceH, 0cfH, 0b7H, 0d7H, 0c0H, 0b4H, 0e6H, 0d4H, 0daH
	DB	0d3H, 0ebH, 0c4H, 0faH, ' IP ', 0b5H, 0d8H, 0d6H, 0b7H, 0cfH, 0e0H
	DB	0cdH, 0acH, 0b5H, 0c4H, 0cdH, 0e6H, 0bcH, 0d2H, 0a3H, 0acH, 0b2H
	DB	0bbH, 0c4H, 0dcH, 0bcH, 0d3H, 0c8H, 0ebH, 0d3H, 0ceH, 0cfH, 0b7H
	DB	0a3H, 0a1H, 00H				; `string'
CONST	ENDS
;	COMDAT ??_C@_0FP@HJKNBJDK@?$LE?K?S?N?O?$LH?W?$MA?M?f?$LM?R?I?h?V?C?A?K?$LC?$LL?$LI?z?O?$OA?M?$KM?5IP?5?$LF@
CONST	SEGMENT
??_C@_0FP@HJKNBJDK@?$LE?K?S?N?O?$LH?W?$MA?M?f?$LM?R?I?h?V?C?A?K?$LC?$LL?$LI?z?O?$OA?M?$KM?5IP?5?$LF@ DB 0b4H
	DB	0cbH, 0d3H, 0ceH, 0cfH, 0b7H, 0d7H, 0c0H, 0cdH, 0e6H, 0bcH, 0d2H
	DB	0c9H, 0e8H, 0d6H, 0c3H, 0c1H, 0cbH, 0b2H, 0bbH, 0b8H, 0faH, 0cfH
	DB	0e0H, 0cdH, 0acH, ' IP ', 0b5H, 0d8H, 0d6H, 0b7H, 0b5H, 0c4H, 0cdH
	DB	0e6H, 0bcH, 0d2H, 0d3H, 0ceH, 0cfH, 0b7H, 0a3H, 0acH, 0c4H, 0faH
	DB	' IP ', 0b5H, 0d8H, 0d6H, 0b7H, 0d3H, 0ebH, 0b4H, 0cbH, 0cdH, 0e6H
	DB	0bcH, 0d2H, 0b5H, 0c4H, ' IP ', 0b5H, 0d8H, 0d6H, 0b7H, 0cfH, 0e0H
	DB	0cdH, 0acH, 0a3H, 0acH, 0b2H, 0bbH, 0c4H, 0dcH, 0bcH, 0d3H, 0c8H
	DB	0ebH, 0d3H, 0ceH, 0cfH, 0b7H, 0a3H, 0a1H, 00H ; `string'
CONST	ENDS
;	COMDAT ?__LINE__Var@?0??EfficacyStartGame@CTableFrame@@QAE_NG@Z@4JA
_DATA	SEGMENT
?__LINE__Var@?0??EfficacyStartGame@CTableFrame@@QAE_NG@Z@4JA DD 0d0cH ; `CTableFrame::EfficacyStartGame'::`1'::__LINE__Var
_DATA	ENDS
;	COMDAT ??_C@_0CF@FMPIBIL@?S?N?O?$LH?W?$MA?$LN?x?H?k?C?$NM?B?k?$LC?$LL?U?$PN?H?$LH?$KD?$KM?$LC?$LL?D?$NM?$LM?S?H?k?S@
CONST	SEGMENT
??_C@_0CF@FMPIBIL@?S?N?O?$LH?W?$MA?$LN?x?H?k?C?$NM?B?k?$LC?$LL?U?$PN?H?$LH?$KD?$KM?$LC?$LL?D?$NM?$LM?S?H?k?S@ DB 0d3H
	DB	0ceH, 0cfH, 0b7H, 0d7H, 0c0H, 0bdH, 0f8H, 0c8H, 0ebH, 0c3H, 0dcH
	DB	0c2H, 0ebH, 0b2H, 0bbH, 0d5H, 0fdH, 0c8H, 0b7H, 0a3H, 0acH, 0b2H
	DB	0bbH, 0c4H, 0dcH, 0bcH, 0d3H, 0c8H, 0ebH, 0d3H, 0ceH, 0cfH, 0b7H
	DB	0a3H, 0a1H, 00H				; `string'
CONST	ENDS
;	COMDAT ??_C@_0BP@OBBKOCFP@?$LH?$LP?$LM?d?C?$NM?B?k?$LC?$LL?U?$PN?H?$LH?$KD?$KM?$LC?$LL?D?$NM?$LM?S?H?k?S?N?O?$LH?$KD?$KB@
CONST	SEGMENT
??_C@_0BP@OBBKOCFP@?$LH?$LP?$LM?d?C?$NM?B?k?$LC?$LL?U?$PN?H?$LH?$KD?$KM?$LC?$LL?D?$NM?$LM?S?H?k?S?N?O?$LH?$KD?$KB@ DB 0b7H
	DB	0bfH, 0bcH, 0e4H, 0c3H, 0dcH, 0c2H, 0ebH, 0b2H, 0bbH, 0d5H, 0fdH
	DB	0c8H, 0b7H, 0a3H, 0acH, 0b2H, 0bbH, 0c4H, 0dcH, 0bcH, 0d3H, 0c8H
	DB	0ebH, 0d3H, 0ceH, 0cfH, 0b7H, 0a3H, 0a1H, 00H ; `string'
CONST	ENDS
;	COMDAT ??_C@_0BE@MONKBGOO@?C?$NM?B?k?$LB?$LL?J?$LJ?S?C?0?R?Q?$LJ?$PN?F?Z?$KD?$KB@
CONST	SEGMENT
??_C@_0BE@MONKBGOO@?C?$NM?B?k?$LB?$LL?J?$LJ?S?C?0?R?Q?$LJ?$PN?F?Z?$KD?$KB@ DB 0c3H
	DB	0dcH, 0c2H, 0ebH, 0b1H, 0bbH, 0caH, 0b9H, 0d3H, 0c3H, ',', 0d2H
	DB	0d1H, 0b9H, 0fdH, 0c6H, 0daH, 0a3H, 0a1H, 00H ; `string'
CONST	ENDS
;	COMDAT ??_C@_0CF@NFDLJKEK@?S?N?O?$LH?R?Q?$LO?$KN?$LP?$KK?J?$LM?A?K?$KD?$KM?O?V?T?Z?$LC?$LL?D?$NM?$LN?x?H?k?S?N?O@
CONST	SEGMENT
??_C@_0CF@NFDLJKEK@?S?N?O?$LH?R?Q?$LO?$KN?$LP?$KK?J?$LM?A?K?$KD?$KM?O?V?T?Z?$LC?$LL?D?$NM?$LN?x?H?k?S?N?O@ DB 0d3H
	DB	0ceH, 0cfH, 0b7H, 0d2H, 0d1H, 0beH, 0adH, 0bfH, 0aaH, 0caH, 0bcH
	DB	0c1H, 0cbH, 0a3H, 0acH, 0cfH, 0d6H, 0d4H, 0daH, 0b2H, 0bbH, 0c4H
	DB	0dcH, 0bdH, 0f8H, 0c8H, 0ebH, 0d3H, 0ceH, 0cfH, 0b7H, 0d7H, 0c0H
	DB	0a3H, 0a1H, 00H				; `string'
CONST	ENDS
;	COMDAT ??_C@_0CB@NMLDBGEG@?$LB?$KH?G?$LI?$KD?$KM?$LF?$LB?G?$LA?S?N?O?$LH?W?$MA?W?S?$LN?$PL?V?$LJ?S?C?$LL?$KH?$LN?x?H?k?$KD@
CONST	SEGMENT
??_C@_0CB@NMLDBGEG@?$LB?$KH?G?$LI?$KD?$KM?$LF?$LB?G?$LA?S?N?O?$LH?W?$MA?W?S?$LN?$PL?V?$LJ?S?C?$LL?$KH?$LN?x?H?k?$KD@ DB 0b1H
	DB	0a7H, 0c7H, 0b8H, 0a3H, 0acH, 0b5H, 0b1H, 0c7H, 0b0H, 0d3H, 0ceH
	DB	0cfH, 0b7H, 0d7H, 0c0H, 0d7H, 0d3H, 0bdH, 0fbH, 0d6H, 0b9H, 0d3H
	DB	0c3H, 0bbH, 0a7H, 0bdH, 0f8H, 0c8H, 0ebH, 0a3H, 0a1H, 00H ; `string'
CONST	ENDS
;	COMDAT ??_C@_0BN@KGKBJPME@?$LB?$KH?G?$LI?$KD?$KM?$LF?$LB?G?$LA?S?N?O?$LH?W?$MA?W?S?H?K?J?$PN?R?Q?B?z?$KD?$KB@
CONST	SEGMENT
??_C@_0BN@KGKBJPME@?$LB?$KH?G?$LI?$KD?$KM?$LF?$LB?G?$LA?S?N?O?$LH?W?$MA?W?S?H?K?J?$PN?R?Q?B?z?$KD?$KB@ DB 0b1H
	DB	0a7H, 0c7H, 0b8H, 0a3H, 0acH, 0b5H, 0b1H, 0c7H, 0b0H, 0d3H, 0ceH
	DB	0cfH, 0b7H, 0d7H, 0c0H, 0d7H, 0d3H, 0c8H, 0cbH, 0caH, 0fdH, 0d2H
	DB	0d1H, 0c2H, 0faH, 0a3H, 0a1H, 00H		; `string'
CONST	ENDS
;	COMDAT ??_C@_0HC@EGIPEGNE@userid?5?$DN?5?$CFd?5?5m_wChairCount?5?$DN?5?$CFd@
CONST	SEGMENT
??_C@_0HC@EGIPEGNE@userid?5?$DN?5?$CFd?5?5m_wChairCount?5?$DN?5?$CFd@ DB 'u'
	DB	'serid = %d  m_wChairCount = %d  GetSitUserCount() = %d  m_dwP'
	DB	'ersonalPlayCount = %d  m_wTableID = %d ', 0d4H, 0bcH, 0d5H, 0bdH
	DB	0d2H, 0d1H, 0beH, 0adH, 0bfH, 0aaH, 0caH, 0bcH, 00H ; `string'
CONST	ENDS
;	COMDAT ??_C@_0BF@JFHBNNDB@?$LB?$KH?G?$LI?$KD?$KM?T?$LM?U?$LN?R?Q?$LO?$KN?$LP?$KK?J?$LM?$KD?$KB@
CONST	SEGMENT
??_C@_0BF@JFHBNNDB@?$LB?$KH?G?$LI?$KD?$KM?T?$LM?U?$LN?R?Q?$LO?$KN?$LP?$KK?J?$LM?$KD?$KB@ DB 0b1H
	DB	0a7H, 0c7H, 0b8H, 0a3H, 0acH, 0d4H, 0bcH, 0d5H, 0bdH, 0d2H, 0d1H
	DB	0beH, 0adH, 0bfH, 0aaH, 0caH, 0bcH, 0a3H, 0a1H, 00H ; `string'
CONST	ENDS
;	COMDAT ??_C@_0CH@KFMNDNLD@?D?z?$LF?D?W?j?J?$KP?J?$PN?A?$LP?I?Y?S?Z?5?$CFI64d?$KD?$KM?$LC?$LL?D?$NM?$LM?L?P@
CONST	SEGMENT
??_C@_0CH@KFMNDNLD@?D?z?$LF?D?W?j?J?$KP?J?$PN?A?$LP?I?Y?S?Z?5?$CFI64d?$KD?$KM?$LC?$LL?D?$NM?$LM?L?P@ DB 0c4H
	DB	0faH, 0b5H, 0c4H, 0d7H, 0eaH, 0caH, 0afH, 0caH, 0fdH, 0c1H, 0bfH
	DB	0c9H, 0d9H, 0d3H, 0daH, ' %I64d', 0a3H, 0acH, 0b2H, 0bbH, 0c4H
	DB	0dcH, 0bcH, 0ccH, 0d0H, 0f8H, 0d3H, 0ceH, 0cfH, 0b7H, 0a3H, 0a1H
	DB	00H						; `string'
CONST	ENDS
;	COMDAT ??_C@_0DB@MOHGBBK@?R?N?W?S?R?Q?$LO?$KN?$LB?$LL?5?$FL?5?$CFs?5?$FN?5?$LN?$NN?W?c?O?H?$LF?G?A?K?$KD?$KM?O@
CONST	SEGMENT
??_C@_0DB@MOHGBBK@?R?N?W?S?R?Q?$LO?$KN?$LB?$LL?5?$FL?5?$CFs?5?$FN?5?$LN?$NN?W?c?O?H?$LF?G?A?K?$KD?$KM?O@ DB 0d2H
	DB	0ceH, 0d7H, 0d3H, 0d2H, 0d1H, 0beH, 0adH, 0b1H, 0bbH, ' [ %s ]'
	DB	' ', 0bdH, 0ddH, 0d7H, 0e3H, 0cfH, 0c8H, 0b5H, 0c7H, 0c1H, 0cbH
	DB	0a3H, 0acH, 0cfH, 0c2H, 0b4H, 0ceH, 0b6H, 0afH, 0d7H, 0f7H, 0d2H
	DB	0aaH, 0bfH, 0ecH, 0b5H, 0e3H, 0c1H, 0cbH, 0a3H, 0a1H, 00H ; `string'
CONST	ENDS
;	COMDAT ??_C@_0BE@MCODKPAP@?T?$LM?U?$LN?$LH?$LP?$LM?d?R?Q?$LO?$KN?$LN?b?I?$KC2?$KD?$KB@
CONST	SEGMENT
??_C@_0BE@MCODKPAP@?T?$LM?U?$LN?$LH?$LP?$LM?d?R?Q?$LO?$KN?$LN?b?I?$KC2?$KD?$KB@ DB 0d4H
	DB	0bcH, 0d5H, 0bdH, 0b7H, 0bfH, 0bcH, 0e4H, 0d2H, 0d1H, 0beH, 0adH
	DB	0bdH, 0e2H, 0c9H, 0a2H, '2', 0a3H, 0a1H, 00H	; `string'
CONST	ENDS
;	COMDAT ??_C@_0BE@NAFGAAOB@?T?$LM?U?$LN?$LH?$LP?$LM?d?R?Q?$LO?$KN?$LN?b?I?$KC1?$KD?$KB@
CONST	SEGMENT
??_C@_0BE@NAFGAAOB@?T?$LM?U?$LN?$LH?$LP?$LM?d?R?Q?$LO?$KN?$LN?b?I?$KC1?$KD?$KB@ DB 0d4H
	DB	0bcH, 0d5H, 0bdH, 0b7H, 0bfH, 0bcH, 0e4H, 0d2H, 0d1H, 0beH, 0adH
	DB	0bdH, 0e2H, 0c9H, 0a2H, '1', 0a3H, 0a1H, 00H	; `string'
CONST	ENDS
;	COMDAT ?__LINE__Var@?0??PerformSitDownAction@CTableFrame@@UAE_NGPAUIServerUserItem@@PBDK@Z@4JA
_DATA	SEGMENT
?__LINE__Var@?0??PerformSitDownAction@CTableFrame@@UAE_NGPAUIServerUserItem@@PBDK@Z@4JA DD 0b49H ; `CTableFrame::PerformSitDownAction'::`1'::__LINE__Var
_DATA	ENDS
;	COMDAT ??_C@_0CF@GJHCGP@?S?N?O?$LH?W?$MA?$LN?x?H?k?C?$NM?B?k?$LC?$LL?U?$PN?H?$LH?$KD?$KM?$LC?$LL?D?$NM?E?T?$LJ?$NL?S@
CONST	SEGMENT
??_C@_0CF@GJHCGP@?S?N?O?$LH?W?$MA?$LN?x?H?k?C?$NM?B?k?$LC?$LL?U?$PN?H?$LH?$KD?$KM?$LC?$LL?D?$NM?E?T?$LJ?$NL?S@ DB 0d3H
	DB	0ceH, 0cfH, 0b7H, 0d7H, 0c0H, 0bdH, 0f8H, 0c8H, 0ebH, 0c3H, 0dcH
	DB	0c2H, 0ebH, 0b2H, 0bbH, 0d5H, 0fdH, 0c8H, 0b7H, 0a3H, 0acH, 0b2H
	DB	0bbH, 0c4H, 0dcH, 0c5H, 0d4H, 0b9H, 0dbH, 0d3H, 0ceH, 0cfH, 0b7H
	DB	0a3H, 0a1H, 00H				; `string'
CONST	ENDS
;	COMDAT ??_C@_0CN@JOFFIFMN@?D?z?K?y?G?k?G?s?$LF?D?N?$LL?V?C?C?$LL?S?P?S?N?O?$LH?M?f?$LM?R?$KD?$KM?N?$NO?$LH@
CONST	SEGMENT
??_C@_0CN@JOFFIFMN@?D?z?K?y?G?k?G?s?$LF?D?N?$LL?V?C?C?$LL?S?P?S?N?O?$LH?M?f?$LM?R?$KD?$KM?N?$NO?$LH@ DB 0c4H
	DB	0faH, 0cbH, 0f9H, 0c7H, 0ebH, 0c7H, 0f3H, 0b5H, 0c4H, 0ceH, 0bbH
	DB	0d6H, 0c3H, 0c3H, 0bbH, 0d3H, 0d0H, 0d3H, 0ceH, 0cfH, 0b7H, 0cdH
	DB	0e6H, 0bcH, 0d2H, 0a3H, 0acH, 0ceH, 0deH, 0b7H, 0a8H, 0c5H, 0d4H
	DB	0b9H, 0dbH, 0b4H, 0cbH, 0d3H, 0ceH, 0cfH, 0b7H, 0d7H, 0c0H, 00H ; `string'
CONST	ENDS
;	COMDAT ??_C@_0CB@NJNGCIAH@?$LB?$KH?G?$LI?$KD?$KM?$LF?$LB?G?$LA?S?N?O?$LH?$LH?$LP?$LM?d?$LN?$PL?V?$LJ?S?C?$LL?$KH?E?T?$LJ?$NL?$KD@
CONST	SEGMENT
??_C@_0CB@NJNGCIAH@?$LB?$KH?G?$LI?$KD?$KM?$LF?$LB?G?$LA?S?N?O?$LH?$LH?$LP?$LM?d?$LN?$PL?V?$LJ?S?C?$LL?$KH?E?T?$LJ?$NL?$KD@ DB 0b1H
	DB	0a7H, 0c7H, 0b8H, 0a3H, 0acH, 0b5H, 0b1H, 0c7H, 0b0H, 0d3H, 0ceH
	DB	0cfH, 0b7H, 0b7H, 0bfH, 0bcH, 0e4H, 0bdH, 0fbH, 0d6H, 0b9H, 0d3H
	DB	0c3H, 0bbH, 0a7H, 0c5H, 0d4H, 0b9H, 0dbH, 0a3H, 0a1H, 00H ; `string'
CONST	ENDS
;	COMDAT ??_C@_0CB@EHMDHMJJ@?$LB?$KH?G?$LI?$KD?$KM?$LF?$LB?G?$LA?S?N?O?$LH?W?$MA?W?S?$LN?$PL?V?$LJ?S?C?$LL?$KH?E?T?$LJ?$NL?$KD@
CONST	SEGMENT
??_C@_0CB@EHMDHMJJ@?$LB?$KH?G?$LI?$KD?$KM?$LF?$LB?G?$LA?S?N?O?$LH?W?$MA?W?S?$LN?$PL?V?$LJ?S?C?$LL?$KH?E?T?$LJ?$NL?$KD@ DB 0b1H
	DB	0a7H, 0c7H, 0b8H, 0a3H, 0acH, 0b5H, 0b1H, 0c7H, 0b0H, 0d3H, 0ceH
	DB	0cfH, 0b7H, 0d7H, 0c0H, 0d7H, 0d3H, 0bdH, 0fbH, 0d6H, 0b9H, 0d3H
	DB	0c3H, 0bbH, 0a7H, 0c5H, 0d4H, 0b9H, 0dbH, 0a3H, 0a1H, 00H ; `string'
CONST	ENDS
;	COMDAT ??_C@_0CD@MNPNNHIG@?S?N?O?$LH?$LL?$LJ?C?$LL?S?P?$LP?$KK?J?$LM?$KD?$KM?$LC?$LL?D?$NM?E?T?$LJ?$NL?$LE?K?S?N?O?$LH?W@
CONST	SEGMENT
??_C@_0CD@MNPNNHIG@?S?N?O?$LH?$LL?$LJ?C?$LL?S?P?$LP?$KK?J?$LM?$KD?$KM?$LC?$LL?D?$NM?E?T?$LJ?$NL?$LE?K?S?N?O?$LH?W@ DB 0d3H
	DB	0ceH, 0cfH, 0b7H, 0bbH, 0b9H, 0c3H, 0bbH, 0d3H, 0d0H, 0bfH, 0aaH
	DB	0caH, 0bcH, 0a3H, 0acH, 0b2H, 0bbH, 0c4H, 0dcH, 0c5H, 0d4H, 0b9H
	DB	0dbH, 0b4H, 0cbH, 0d3H, 0ceH, 0cfH, 0b7H, 0d7H, 0c0H, 0a3H, 0a1H
	DB	00H						; `string'
CONST	ENDS
;	COMDAT ??_C@_0BD@IPFJJGIH@?T?$LM?U?$LN?$LH?$LP?$KD?$KM?$LC?$LL?D?$NM?E?T?$LJ?$NL?$KD?$KB@
CONST	SEGMENT
??_C@_0BD@IPFJJGIH@?T?$LM?U?$LN?$LH?$LP?$KD?$KM?$LC?$LL?D?$NM?E?T?$LJ?$NL?$KD?$KB@ DB 0d4H
	DB	0bcH, 0d5H, 0bdH, 0b7H, 0bfH, 0a3H, 0acH, 0b2H, 0bbH, 0c4H, 0dcH
	DB	0c5H, 0d4H, 0b9H, 0dbH, 0a3H, 0a1H, 00H	; `string'
CONST	ENDS
;	COMDAT ?__LINE__Var@?0??PerformLookonAction@CTableFrame@@UAE_NGPAUIServerUserItem@@@Z@4JA
_DATA	SEGMENT
?__LINE__Var@?0??PerformLookonAction@CTableFrame@@UAE_NGPAUIServerUserItem@@@Z@4JA DD 0accH ; `CTableFrame::PerformLookonAction'::`1'::__LINE__Var
_DATA	ENDS
;	COMDAT ??_C@_0CH@CEHEIJKA@?S?I?M?f?$LM?R?$MA?k?$LP?$KK?$KD?$KM?O?$LF?M?$LD?V?X?P?B?$LH?V?E?d?W?$MA?W?S?$KD?$KM?G@
CONST	SEGMENT
??_C@_0CH@CEHEIJKA@?S?I?M?f?$LM?R?$MA?k?$LP?$KK?$KD?$KM?O?$LF?M?$LD?V?X?P?B?$LH?V?E?d?W?$MA?W?S?$KD?$KM?G@ DB 0d3H
	DB	0c9H, 0cdH, 0e6H, 0bcH, 0d2H, 0c0H, 0ebH, 0bfH, 0aaH, 0a3H, 0acH
	DB	0cfH, 0b5H, 0cdH, 0b3H, 0d6H, 0d8H, 0d0H, 0c2H, 0b7H, 0d6H, 0c5H
	DB	0e4H, 0d7H, 0c0H, 0d7H, 0d3H, 0a3H, 0acH, 0c7H, 0ebH, 0c9H, 0d4H
	DB	0baH, 0f3H, 0a3H, 0a1H, 00H			; `string'
CONST	ENDS
;	COMDAT ??_C@_0BP@LMDGPNLB@?$LE?K?S?N?O?$LH?W?$MA?$LF?D?K?y?S?P?M?f?$LM?R?R?Q?$LO?$KN?$MA?k?$LP?$KK?A?K?$KD?$KB@
CONST	SEGMENT
??_C@_0BP@LMDGPNLB@?$LE?K?S?N?O?$LH?W?$MA?$LF?D?K?y?S?P?M?f?$LM?R?R?Q?$LO?$KN?$MA?k?$LP?$KK?A?K?$KD?$KB@ DB 0b4H
	DB	0cbH, 0d3H, 0ceH, 0cfH, 0b7H, 0d7H, 0c0H, 0b5H, 0c4H, 0cbH, 0f9H
	DB	0d3H, 0d0H, 0cdH, 0e6H, 0bcH, 0d2H, 0d2H, 0d1H, 0beH, 0adH, 0c0H
	DB	0ebH, 0bfH, 0aaH, 0c1H, 0cbH, 0a3H, 0a1H, 00H ; `string'
CONST	ENDS
;	COMDAT ??_C@_0DB@BACGKDF@?$LM?$LE?J?$LB?H?$PM?V?P?$LD?v?O?V?M?f?$LM?R?3?5?$CFd?F?p?A?$KC?J?$LB?W?$LE?L?$KM?N@
CONST	SEGMENT
??_C@_0DB@BACGKDF@?$LM?$LE?J?$LB?H?$PM?V?P?$LD?v?O?V?M?f?$LM?R?3?5?$CFd?F?p?A?$KC?J?$LB?W?$LE?L?$KM?N@ DB 0bcH
	DB	0b4H, 0caH, 0b1H, 0c8H, 0fcH, 0d6H, 0d0H, 0b3H, 0f6H, 0cfH, 0d6H
	DB	0cdH, 0e6H, 0bcH, 0d2H, ': %d', 0c6H, 0f0H, 0c1H, 0a2H, 0caH, 0b1H
	DB	0d7H, 0b4H, 0ccH, 0acH, 0ceH, 0aaH, 'US_OFFLINE', 0b5H, 0c4H, 0c7H
	DB	0e9H, 0bfH, 0f6H, 00H			; `string'
CONST	ENDS
;	COMDAT ?__LINE__Var@?0??PerformStandUpAction@CTableFrame@@UAE_NPAUIServerUserItem@@_N@Z@4JA
_DATA	SEGMENT
?__LINE__Var@?0??PerformStandUpAction@CTableFrame@@UAE_NPAUIServerUserItem@@_N@Z@4JA DD 09a7H ; `CTableFrame::PerformStandUpAction'::`1'::__LINE__Var
_DATA	ENDS
;	COMDAT ??_C@_0BC@JKMCHJPE@GameStartOverTime@
CONST	SEGMENT
??_C@_0BC@JKMCHJPE@GameStartOverTime@ DB 'GameStartOverTime', 00H ; `string'
CONST	ENDS
;	COMDAT ??_C@_0BD@EHGOMFHF@TableOwnerWaitTime@
CONST	SEGMENT
??_C@_0BD@EHGOMFHF@TableOwnerWaitTime@ DB 'TableOwnerWaitTime', 00H ; `string'
CONST	ENDS
;	COMDAT ??_C@_0P@OOPDANCH@PlayerWaitTime@
CONST	SEGMENT
??_C@_0P@OOPDANCH@PlayerWaitTime@ DB 'PlayerWaitTime', 00H ; `string'
CONST	ENDS
;	COMDAT ??_C@_0BF@FCLAICIB@?$CFs?2PersonalTable?4ini@
CONST	SEGMENT
??_C@_0BF@FCLAICIB@?$CFs?2PersonalTable?4ini@ DB '%s\PersonalTable.ini', 00H ; `string'
CONST	ENDS
;	COMDAT ?__LINE__Var@?0??InitializationFrame@CTableFrame@@QAE_NGAAUtagTableFrameParameter@@@Z@4JA
_DATA	SEGMENT
?__LINE__Var@?0??InitializationFrame@CTableFrame@@QAE_NGAAUtagTableFrameParameter@@@Z@4JA DD 0967H ; `CTableFrame::InitializationFrame'::`1'::__LINE__Var
_DATA	ENDS
;	COMDAT ??_C@_0BL@FDDKLKIA@?O?$LF?M?$LD?V?X?P?B?$LH?V?E?d?W?$MA?W?S?$KD?$KM?G?k?I?T?$LK?s?$KD?$KB@
CONST	SEGMENT
??_C@_0BL@FDDKLKIA@?O?$LF?M?$LD?V?X?P?B?$LH?V?E?d?W?$MA?W?S?$KD?$KM?G?k?I?T?$LK?s?$KD?$KB@ DB 0cfH
	DB	0b5H, 0cdH, 0b3H, 0d6H, 0d8H, 0d0H, 0c2H, 0b7H, 0d6H, 0c5H, 0e4H
	DB	0d7H, 0c0H, 0d7H, 0d3H, 0a3H, 0acH, 0c7H, 0ebH, 0c9H, 0d4H, 0baH
	DB	0f3H, 0a3H, 0a1H, 00H			; `string'
CONST	ENDS
;	COMDAT ??_C@_0CF@IEAHKEDO@?$LL?$LG?S?$KN?D?z?$LN?x?H?k?$KB?$LA?$CFs?$KB?$LB?S?N?O?$LH?$KD?$KM?W?$KD?D?z?S?N?O?$LH?S@
CONST	SEGMENT
??_C@_0CF@IEAHKEDO@?$LL?$LG?S?$KN?D?z?$LN?x?H?k?$KB?$LA?$CFs?$KB?$LB?S?N?O?$LH?$KD?$KM?W?$KD?D?z?S?N?O?$LH?S@ DB 0bbH
	DB	0b6H, 0d3H, 0adH, 0c4H, 0faH, 0bdH, 0f8H, 0c8H, 0ebH, 0a1H, 0b0H
	DB	'%s', 0a1H, 0b1H, 0d3H, 0ceH, 0cfH, 0b7H, 0a3H, 0acH, 0d7H, 0a3H
	DB	0c4H, 0faH, 0d3H, 0ceH, 0cfH, 0b7H, 0d3H, 0e4H, 0bfH, 0ecH, 0a3H
	DB	0a1H, 00H					; `string'
CONST	ENDS
;	COMDAT ??_C@_0N@PEOJOPIF@?$LH?$LP?$LM?d?R?Q?$LO?$KN?$LN?b?I?$KC@
CONST	SEGMENT
??_C@_0N@PEOJOPIF@?$LH?$LP?$LM?d?R?Q?$LO?$KN?$LN?b?I?$KC@ DB 0b7H, 0bfH, 0bcH
	DB	0e4H, 0d2H, 0d1H, 0beH, 0adH, 0bdH, 0e2H, 0c9H, 0a2H, 00H ; `string'
CONST	ENDS
;	COMDAT ??_C@_0BJ@BFEPDGOK@?$LH?$LP?$LM?d?$LL?$LJ?N?$LE?$LE?$LE?$LN?$KI?$KD?$KM?N?$NO?$LH?$KI?$LN?x?H?k?$KD?$KB@
CONST	SEGMENT
??_C@_0BJ@BFEPDGOK@?$LH?$LP?$LM?d?$LL?$LJ?N?$LE?$LE?$LE?$LN?$KI?$KD?$KM?N?$NO?$LH?$KI?$LN?x?H?k?$KD?$KB@ DB 0b7H
	DB	0bfH, 0bcH, 0e4H, 0bbH, 0b9H, 0ceH, 0b4H, 0b4H, 0b4H, 0bdH, 0a8H
	DB	0a3H, 0acH, 0ceH, 0deH, 0b7H, 0a8H, 0bdH, 0f8H, 0c8H, 0ebH, 0a3H
	DB	0a1H, 00H					; `string'
CONST	ENDS
;	COMDAT ?__LINE__Var@?0??OnEventSocketFrame@CTableFrame@@QAE_NGPAXGPAUIServerUserItem@@@Z@4JA
_DATA	SEGMENT
?__LINE__Var@?0??OnEventSocketFrame@CTableFrame@@QAE_NGPAXGPAUIServerUserItem@@@Z@4JA DD 06b7H ; `CTableFrame::OnEventSocketFrame'::`1'::__LINE__Var
_DATA	ENDS
;	COMDAT ?__LINE__Var@?0??OnEventSocketGame@CTableFrame@@QAE_NGPAXGPAUIServerUserItem@@@Z@4JA
_DATA	SEGMENT
?__LINE__Var@?0??OnEventSocketGame@CTableFrame@@QAE_NGPAXGPAUIServerUserItem@@@Z@4JA DD 06acH ; `CTableFrame::OnEventSocketGame'::`1'::__LINE__Var
_DATA	ENDS
;	COMDAT ?__LINE__Var@?0??OnEventTimer@CTableFrame@@QAE_NKI@Z@4JA
_DATA	SEGMENT
?__LINE__Var@?0??OnEventTimer@CTableFrame@@QAE_NKI@Z@4JA DD 05e9H ; `CTableFrame::OnEventTimer'::`1'::__LINE__Var
_DATA	ENDS
;	COMDAT ?__LINE__Var@?0??OnEventUserOffLine@CTableFrame@@QAE_NPAUIServerUserItem@@@Z@4JA
_DATA	SEGMENT
?__LINE__Var@?0??OnEventUserOffLine@CTableFrame@@QAE_NPAUIServerUserItem@@@Z@4JA DD 057cH ; `CTableFrame::OnEventUserOffLine'::`1'::__LINE__Var
_DATA	ENDS
;	COMDAT ??_C@_0DN@HGHCIEG@?$LB?$KH?G?$LI?$KD?$KM?D?z?C?$LL?S?P?S?N?O?$LH?A?D?L?l?$LF?D?H?$KI?O?$NO?$KD?$KM?H?t?P@
CONST	SEGMENT
??_C@_0DN@HGHCIEG@?$LB?$KH?G?$LI?$KD?$KM?D?z?C?$LL?S?P?S?N?O?$LH?A?D?L?l?$LF?D?H?$KI?O?$NO?$KD?$KM?H?t?P@ DB 0b1H
	DB	0a7H, 0c7H, 0b8H, 0a3H, 0acH, 0c4H, 0faH, 0c3H, 0bbH, 0d3H, 0d0H
	DB	0d3H, 0ceH, 0cfH, 0b7H, 0c1H, 0c4H, 0ccH, 0ecH, 0b5H, 0c4H, 0c8H
	DB	0a8H, 0cfH, 0deH, 0a3H, 0acH, 0c8H, 0f4H, 0d0H, 0e8H, 0d2H, 0aaH
	DB	0b0H, 0efH, 0d6H, 0faH, 0a3H, 0acH, 0c7H, 0ebH, 0c1H, 0aaH, 0cfH
	DB	0b5H, 0d3H, 0ceH, 0cfH, 0b7H, 0bfH, 0cdH, 0b7H, 0feH, 0d7H, 0c9H
	DB	0d1H, 0afH, 0a3H, 0a1H, 00H			; `string'
CONST	ENDS
;	COMDAT ??_C@_0CB@FGILIJGK@?$LB?$KH?G?$LI?$KD?$KM?$LF?$LB?G?$LA?S?N?O?$LH?$LH?$LP?$LM?d?$LN?$PL?V?$LJ?S?N?O?$LH?A?D?L?l?$KD@
CONST	SEGMENT
??_C@_0CB@FGILIJGK@?$LB?$KH?G?$LI?$KD?$KM?$LF?$LB?G?$LA?S?N?O?$LH?$LH?$LP?$LM?d?$LN?$PL?V?$LJ?S?N?O?$LH?A?D?L?l?$KD@ DB 0b1H
	DB	0a7H, 0c7H, 0b8H, 0a3H, 0acH, 0b5H, 0b1H, 0c7H, 0b0H, 0d3H, 0ceH
	DB	0cfH, 0b7H, 0b7H, 0bfH, 0bcH, 0e4H, 0bdH, 0fbH, 0d6H, 0b9H, 0d3H
	DB	0ceH, 0cfH, 0b7H, 0c1H, 0c4H, 0ccH, 0ecH, 0a3H, 0a1H, 00H ; `string'
CONST	ENDS
;	COMDAT ?__LINE__Var@?0??SendChatMessage@CTableFrame@@UAE_NPAUIServerUserItem@@0KPBDPAD@Z@4JA
_DATA	SEGMENT
?__LINE__Var@?0??SendChatMessage@CTableFrame@@UAE_NPAUIServerUserItem@@0KPBDPAD@Z@4JA DD 052bH ; `CTableFrame::SendChatMessage'::`1'::__LINE__Var
_DATA	ENDS
;	COMDAT ?__LINE__Var@?0??ImitateGameOption@CTableFrame@@UAE_NPAUIServerUserItem@@@Z@4JA
_DATA	SEGMENT
?__LINE__Var@?0??ImitateGameOption@CTableFrame@@UAE_NPAUIServerUserItem@@@Z@4JA DD 0512H ; `CTableFrame::ImitateGameOption'::`1'::__LINE__Var
_DATA	ENDS
;	COMDAT ?__LINE__Var@?0??SetTableFrameHook@CTableFrame@@UAE_NPAUIUnknownEx@@@Z@4JA
_DATA	SEGMENT
?__LINE__Var@?0??SetTableFrameHook@CTableFrame@@UAE_NPAUIUnknownEx@@@Z@4JA DD 04faH ; `CTableFrame::SetTableFrameHook'::`1'::__LINE__Var
_DATA	ENDS
;	COMDAT ?__LINE__Var@?0??SendGameScene@CTableFrame@@UAE_NPAUIServerUserItem@@PAXG@Z@4JA
_DATA	SEGMENT
?__LINE__Var@?0??SendGameScene@CTableFrame@@UAE_NPAUIServerUserItem@@PAXG@Z@4JA DD 04ecH ; `CTableFrame::SendGameScene'::`1'::__LINE__Var
_DATA	ENDS
;	COMDAT ?__LINE__Var@?0??SendGameMessage@CTableFrame@@UAE_NPAUIServerUserItem@@PBDG@Z@4JA
_DATA	SEGMENT
?__LINE__Var@?0??SendGameMessage@CTableFrame@@UAE_NPAUIServerUserItem@@PBDG@Z@4JA DD 04e1H ; `CTableFrame::SendGameMessage'::`1'::__LINE__Var
_DATA	ENDS
;	COMDAT ?__LINE__Var@?0??SendGameMessage@CTableFrame@@UAE_NPBDG@Z@4JA
_DATA	SEGMENT
?__LINE__Var@?0??SendGameMessage@CTableFrame@@UAE_NPBDG@Z@4JA DD 04aaH ; `CTableFrame::SendGameMessage'::`1'::__LINE__Var
_DATA	ENDS
;	COMDAT ?__LINE__Var@?0??SendLookonData@CTableFrame@@UAE_NGG@Z@4JA
_DATA	SEGMENT
?__LINE__Var@?0??SendLookonData@CTableFrame@@UAE_NGG@Z@4JA DD 044fH ; `CTableFrame::SendLookonData'::`1'::__LINE__Var
_DATA	ENDS
;	COMDAT ?__LINE__Var@?0??SendTableData@CTableFrame@@UAE_NGG@Z@4JA
_DATA	SEGMENT
?__LINE__Var@?0??SendTableData@CTableFrame@@UAE_NGG@Z@4JA DD 0405H ; `CTableFrame::SendTableData'::`1'::__LINE__Var
_DATA	ENDS
;	COMDAT ?__LINE__Var@?0??SendUserItemData@CTableFrame@@UAE_NPAUIServerUserItem@@GPAXG@Z@4JA
_DATA	SEGMENT
?__LINE__Var@?0??SendUserItemData@CTableFrame@@UAE_NPAUIServerUserItem@@GPAXG@Z@4JA DD 03f2H ; `CTableFrame::SendUserItemData'::`1'::__LINE__Var
_DATA	ENDS
;	COMDAT ?__LINE__Var@?0??SendUserItemData@CTableFrame@@UAE_NPAUIServerUserItem@@G@Z@4JA
_DATA	SEGMENT
?__LINE__Var@?0??SendUserItemData@CTableFrame@@UAE_NPAUIServerUserItem@@G@Z@4JA DD 03dfH ; `CTableFrame::SendUserItemData'::`1'::__LINE__Var
_DATA	ENDS
;	COMDAT ?__LINE__Var@?0??KillGameTimer@CTableFrame@@UAE_NK@Z@4JA
_DATA	SEGMENT
?__LINE__Var@?0??KillGameTimer@CTableFrame@@UAE_NK@Z@4JA DD 03d1H ; `CTableFrame::KillGameTimer'::`1'::__LINE__Var
_DATA	ENDS
;	COMDAT ?__LINE__Var@?0??SetGameTimer@CTableFrame@@UAE_NKKKI@Z@4JA
_DATA	SEGMENT
?__LINE__Var@?0??SetGameTimer@CTableFrame@@UAE_NKKKI@Z@4JA DD 03c3H ; `CTableFrame::SetGameTimer'::`1'::__LINE__Var
_DATA	ENDS
;	COMDAT ?__LINE__Var@?0??GetTableUserItem@CTableFrame@@UAEPAUIServerUserItem@@G@Z@4JA
_DATA	SEGMENT
?__LINE__Var@?0??GetTableUserItem@CTableFrame@@UAEPAUIServerUserItem@@G@Z@4JA DD 03b1H ; `CTableFrame::GetTableUserItem'::`1'::__LINE__Var
_DATA	ENDS
;	COMDAT ?__LINE__Var@?0??QueryConsumeQuota@CTableFrame@@UAE_JPAUIServerUserItem@@@Z@4JA
_DATA	SEGMENT
?__LINE__Var@?0??QueryConsumeQuota@CTableFrame@@UAE_JPAUIServerUserItem@@@Z@4JA DD 0386H ; `CTableFrame::QueryConsumeQuota'::`1'::__LINE__Var
_DATA	ENDS
;	COMDAT ?__LINE__Var@?0??CalculateRevenue@CTableFrame@@UAE_JG_J@Z@4JA
_DATA	SEGMENT
?__LINE__Var@?0??CalculateRevenue@CTableFrame@@UAE_JG_J@Z@4JA DD 036aH ; `CTableFrame::CalculateRevenue'::`1'::__LINE__Var
_DATA	ENDS
;	COMDAT ?__LINE__Var@?0??WriteTableScore@CTableFrame@@UAE_NQAUtagScoreInfo@@G@Z@4JA
_DATA	SEGMENT
?__LINE__Var@?0??WriteTableScore@CTableFrame@@UAE_NQAUtagScoreInfo@@G@Z@4JA DD 0337H ; `CTableFrame::WriteTableScore'::`1'::__LINE__Var
_DATA	ENDS
;	COMDAT ??_C@_0BF@OJEHDHNG@?S?N?O?$LH?$LM?G?B?$LM?$LG?T?O?s?$LE?$LE?$LN?$KI?J?$KH?$LA?$NM@
CONST	SEGMENT
??_C@_0BF@OJEHDHNG@?S?N?O?$LH?$LM?G?B?$LM?$LG?T?O?s?$LE?$LE?$LN?$KI?J?$KH?$LA?$NM@ DB 0d3H
	DB	0ceH, 0cfH, 0b7H, 0bcH, 0c7H, 0c2H, 0bcH, 0b6H, 0d4H, 0cfH, 0f3H
	DB	0b4H, 0b4H, 0bdH, 0a8H, 0caH, 0a7H, 0b0H, 0dcH, 00H ; `string'
CONST	ENDS
;	COMDAT __CT??_R0PAX@84
xdata$x	SEGMENT
__CT??_R0PAX@84 DD 01H
	DD	FLAT:??_R0PAX@8
	DD	00H
	DD	0ffffffffH
	ORG $+4
	DD	04H
	DD	00H
xdata$x	ENDS
;	COMDAT ??_R0PAX@8
data$r	SEGMENT
??_R0PAX@8 DD	FLAT:??_7type_info@@6B@			; void * `RTTI Type Descriptor'
	DD	00H
	DB	'.PAX', 00H
data$r	ENDS
;	COMDAT __CT??_R0PAD@84
xdata$x	SEGMENT
__CT??_R0PAD@84 DD 01H
	DD	FLAT:??_R0PAD@8
	DD	00H
	DD	0ffffffffH
	ORG $+4
	DD	04H
	DD	00H
xdata$x	ENDS
;	COMDAT ??_R0PAD@8
data$r	SEGMENT
??_R0PAD@8 DD	FLAT:??_7type_info@@6B@			; char * `RTTI Type Descriptor'
	DD	00H
	DB	'.PAD', 00H
data$r	ENDS
;	COMDAT __CTA2PAD
xdata$x	SEGMENT
__CTA2PAD DD	02H
	DD	FLAT:__CT??_R0PAD@84
	DD	FLAT:__CT??_R0PAX@84
xdata$x	ENDS
;	COMDAT __TI2PAD
xdata$x	SEGMENT
__TI2PAD DD	00H
	DD	00H
	DD	00H
	DD	FLAT:__CTA2PAD
xdata$x	ENDS
;	COMDAT ??_C@_0CG@BJIOFAKH@?$FL?5?$CFs?5?$FN?5?J?$LJ?S?C?A?K?$FL?5?$LL?$KE?I?m?$LH?$PL?$LP?$KI?5?$FN?$KD?$KM?$LL?$PN?$LH?V@
CONST	SEGMENT
??_C@_0CG@BJIOFAKH@?$FL?5?$CFs?5?$FN?5?J?$LJ?S?C?A?K?$FL?5?$LL?$KE?I?m?$LH?$PL?$LP?$KI?5?$FN?$KD?$KM?$LL?$PN?$LH?V@ DB '['
	DB	' %s ] ', 0caH, 0b9H, 0d3H, 0c3H, 0c1H, 0cbH, '[ ', 0bbH, 0a4H
	DB	0c9H, 0edH, 0b7H, 0fbH, 0bfH, 0a8H, ' ]', 0a3H, 0acH, 0bbH, 0fdH
	DB	0b7H, 0d6H, 0b2H, 0bbH, 0b1H, 0e4H, 0a3H, 0a1H, 00H ; `string'
CONST	ENDS
;	COMDAT ??_C@_0CI@KNPBKMHB@?$FL?5?$CFs?5?$FN?5?J?$LJ?S?C?A?K?$FL?5?K?$KL?$LB?$LG?$LL?$PN?$LH?V?$LP?$KI?5?$FN?$KD?$KM?$LF?C@
CONST	SEGMENT
??_C@_0CI@KNPBKMHB@?$FL?5?$CFs?5?$FN?5?J?$LJ?S?C?A?K?$FL?5?K?$KL?$LB?$LG?$LL?$PN?$LH?V?$LP?$KI?5?$FN?$KD?$KM?$LF?C@ DB '['
	DB	' %s ] ', 0caH, 0b9H, 0d3H, 0c3H, 0c1H, 0cbH, '[ ', 0cbH, 0abH
	DB	0b1H, 0b6H, 0bbH, 0fdH, 0b7H, 0d6H, 0bfH, 0a8H, ' ]', 0a3H, 0acH
	DB	0b5H, 0c3H, 0b7H, 0d6H, 0b7H, 0adH, 0b1H, 0b6H, 0a3H, 0a1H, 00H ; `string'
CONST	ENDS
;	COMDAT ??_C@_0CL@IKLNOEBJ@?$FL?5?$CFs?5?$FN?5?J?$LJ?S?C?A?K?$FL?5?K?D?$LB?$LG?$LL?$PN?$LH?V?$LP?$KI?5?$FN?$KD?$KM?$LF?C@
CONST	SEGMENT
??_C@_0CL@IKLNOEBJ@?$FL?5?$CFs?5?$FN?5?J?$LJ?S?C?A?K?$FL?5?K?D?$LB?$LG?$LL?$PN?$LH?V?$LP?$KI?5?$FN?$KD?$KM?$LF?C@ DB '['
	DB	' %s ] ', 0caH, 0b9H, 0d3H, 0c3H, 0c1H, 0cbH, '[ ', 0cbH, 0c4H
	DB	0b1H, 0b6H, 0bbH, 0fdH, 0b7H, 0d6H, 0bfH, 0a8H, ' ]', 0a3H, 0acH
	DB	0b5H, 0c3H, 0b7H, 0d6H, 0b7H, 0adH, 0cbH, 0c4H, 0b1H, 0b6H, 0a3H
	DB	0a1H, ')', 00H				; `string'
CONST	ENDS
;	COMDAT ?__LINE__Var@?0??WriteUserScore@CTableFrame@@UAE_NGAAUtagScoreInfo@@KK@Z@4JA
_DATA	SEGMENT
?__LINE__Var@?0??WriteUserScore@CTableFrame@@UAE_NGAAUtagScoreInfo@@KK@Z@4JA DD 025dH ; `CTableFrame::WriteUserScore'::`1'::__LINE__Var
_DATA	ENDS
;	COMDAT ??_C@_0CN@COMBKMFK@?S?I?S?Z?O?$LF?M?$LD?N?$KM?$LL?$KE?$KD?$KM?$LF?$LB?G?$LA?S?N?O?$LH?W?$MA?W?S?$LN?$PL?V?$LJ?S@
CONST	SEGMENT
??_C@_0CN@COMBKMFK@?S?I?S?Z?O?$LF?M?$LD?N?$KM?$LL?$KE?$KD?$KM?$LF?$LB?G?$LA?S?N?O?$LH?W?$MA?W?S?$LN?$PL?V?$LJ?S@ DB 0d3H
	DB	0c9H, 0d3H, 0daH, 0cfH, 0b5H, 0cdH, 0b3H, 0ceH, 0acH, 0bbH, 0a4H
	DB	0a3H, 0acH, 0b5H, 0b1H, 0c7H, 0b0H, 0d3H, 0ceH, 0cfH, 0b7H, 0d7H
	DB	0c0H, 0d7H, 0d3H, 0bdH, 0fbH, 0d6H, 0b9H, 0d3H, 0c3H, 0bbH, 0a7H
	DB	0bcH, 0ccH, 0d0H, 0f8H, 0d3H, 0ceH, 0cfH, 0b7H, 0a3H, 0a1H, 00H ; `string'
CONST	ENDS
;	COMDAT ??_C@_0CH@OPGIFPHK@?D?z?$LF?D?S?N?O?$LH?$LL?$PN?$LH?V?I?Y?S?Z?5?$CFI64d?$KD?$KM?$LC?$LL?D?$NM?$LM?L?P@
CONST	SEGMENT
??_C@_0CH@OPGIFPHK@?D?z?$LF?D?S?N?O?$LH?$LL?$PN?$LH?V?I?Y?S?Z?5?$CFI64d?$KD?$KM?$LC?$LL?D?$NM?$LM?L?P@ DB 0c4H
	DB	0faH, 0b5H, 0c4H, 0d3H, 0ceH, 0cfH, 0b7H, 0bbH, 0fdH, 0b7H, 0d6H
	DB	0c9H, 0d9H, 0d3H, 0daH, ' %I64d', 0a3H, 0acH, 0b2H, 0bbH, 0c4H
	DB	0dcH, 0bcH, 0ccH, 0d0H, 0f8H, 0d3H, 0ceH, 0cfH, 0b7H, 0a3H, 0a1H
	DB	00H						; `string'
CONST	ENDS
;	COMDAT ??_C@_0CF@EPBEDFME@?D?z?$LF?D?S?N?O?$LH?$LB?R?I?Y?S?Z?5?$CFI64d?$KD?$KM?$LC?$LL?D?$NM?$LM?L?P?x?S@
CONST	SEGMENT
??_C@_0CF@EPBEDFME@?D?z?$LF?D?S?N?O?$LH?$LB?R?I?Y?S?Z?5?$CFI64d?$KD?$KM?$LC?$LL?D?$NM?$LM?L?P?x?S@ DB 0c4H
	DB	0faH, 0b5H, 0c4H, 0d3H, 0ceH, 0cfH, 0b7H, 0b1H, 0d2H, 0c9H, 0d9H
	DB	0d3H, 0daH, ' %I64d', 0a3H, 0acH, 0b2H, 0bbH, 0c4H, 0dcH, 0bcH
	DB	0ccH, 0d0H, 0f8H, 0d3H, 0ceH, 0cfH, 0b7H, 0a3H, 0a1H, 00H ; `string'
CONST	ENDS
;	COMDAT ?__LINE__Var@?0??ConcludeGame@CTableFrame@@UAE_NEH@Z@4JA
_DATA	SEGMENT
?__LINE__Var@?0??ConcludeGame@CTableFrame@@UAE_NEH@Z@4JA DD 0134H ; `CTableFrame::ConcludeGame'::`1'::__LINE__Var
_DATA	ENDS
;	COMDAT ?__LINE__Var@?0??DismissGame@CTableFrame@@UAE_NXZ@4JA
_DATA	SEGMENT
?__LINE__Var@?0??DismissGame@CTableFrame@@UAE_NXZ@4JA DD 0108H ; `CTableFrame::DismissGame'::`1'::__LINE__Var
_DATA	ENDS
;	COMDAT ?__LINE__Var@?0??StartGame@CTableFrame@@UAE_NXZ@4JA
_DATA	SEGMENT
?__LINE__Var@?0??StartGame@CTableFrame@@UAE_NXZ@4JA DD 08fH ; `CTableFrame::StartGame'::`1'::__LINE__Var
_DATA	ENDS
_DATA	SEGMENT
?THIS_FILE@@3PADA DB 'g:\', 0cdH, 0f8H, 0baH, 0fcH, '\happygamewh\', 0b7H
	DB	0feH, 0ceH, 0f1H, 0b6H, 0cbH, '\', 0cfH, 0b5H, 0cdH, 0b3H, 0c4H
	DB	0a3H, 0bfH, 0e9H, '\', 0b7H, 0feH, 0ceH, 0f1H, 0c6H, 0f7H, 0d7H
	DB	0e9H, 0bcH, 0feH, '\', 0d3H, 0ceH, 0cfH, 0b7H, 0b7H, 0feH, 0ceH
	DB	0f1H, 0c6H, 0f7H, '\tableframe.cpp', 00H	; THIS_FILE
_DATA	ENDS
;	COMDAT ??_7CTableFrame@@6BICompilationSink@@@
CONST	SEGMENT
??_7CTableFrame@@6BICompilationSink@@@ DD FLAT:??_R4CTableFrame@@6BICompilationSink@@@ ; CTableFrame::`vftable'
	DD	FLAT:?Release@CTableFrame@@W3AEXXZ
	DD	FLAT:?QueryInterface@CTableFrame@@W3AEPAXABU_GUID@@K@Z
	DD	FLAT:?GetCompilation@CTableFrame@@UAEPBDXZ
CONST	ENDS
;	COMDAT ??_7CTableFrame@@6BITableFrame@@@
CONST	SEGMENT
??_7CTableFrame@@6BITableFrame@@@ DD FLAT:??_R4CTableFrame@@6BITableFrame@@@ ; CTableFrame::`vftable'
	DD	FLAT:?Release@CTableFrame@@UAEXXZ
	DD	FLAT:?QueryInterface@CTableFrame@@UAEPAXABU_GUID@@K@Z
	DD	FLAT:?GetTableID@CTableFrame@@UAEGXZ
	DD	FLAT:?GetChairCount@CTableFrame@@UAEGXZ
	DD	FLAT:?GetNullChairCount@CTableFrame@@UAEGXZ
	DD	FLAT:?SetPersonalTablePassword@CTableFrame@@UAEXPAUtagRoomPassword@@@Z
	DD	FLAT:?GetCustomRule@CTableFrame@@UAEPAXXZ
	DD	FLAT:?GetGameMatchOption@CTableFrame@@UAEPAUtagGameMatchOption@@XZ
	DD	FLAT:?GetGameServiceAttrib@CTableFrame@@UAEPAUtagGameServiceAttrib@@XZ
	DD	FLAT:?GetGameServiceOption@CTableFrame@@UAEPAUtagGameServiceOption@@XZ
	DD	FLAT:?GetStartMode@CTableFrame@@UAEEXZ
	DD	FLAT:?SetStartMode@CTableFrame@@UAEXE@Z
	DD	FLAT:?GetCellScore@CTableFrame@@UAEJXZ
	DD	FLAT:?SetCellScore@CTableFrame@@UAEXJ@Z
	DD	FLAT:?IsTableLocked@CTableFrame@@UAE_NXZ
	DD	FLAT:?IsGameStarted@CTableFrame@@UAE_NXZ
	DD	FLAT:?IsDrawStarted@CTableFrame@@UAE_NXZ
	DD	FLAT:?IsTableStarted@CTableFrame@@UAE_NXZ
	DD	FLAT:?IsPersonalTableLocked@CTableFrame@@UAE_NXZ
	DD	FLAT:?SetPersonalTableLocked@CTableFrame@@UAEX_N@Z
	DD	FLAT:?SetTableOwner@CTableFrame@@UAEXK@Z
	DD	FLAT:?GetTableOwner@CTableFrame@@UAEKXZ
	DD	FLAT:?SetPersonalTable@CTableFrame@@UAEXKK_J@Z
	DD	FLAT:?SetPersonalTableParameter@CTableFrame@@UAEXUtagPersonalTableParameter@@UtagPersonalRoomOption@@@Z
	DD	FLAT:?GetPersonalScore@CTableFrame@@UAE_NKAA_J@Z
	DD	FLAT:?GetPersonalTableParameter@CTableFrame@@UAE?AUtagPersonalTableParameter@@XZ
	DD	FLAT:?SetTimerNotBeginAfterCreate@CTableFrame@@UAEXXZ
	DD	FLAT:?GetGameStatus@CTableFrame@@UAEEXZ
	DD	FLAT:?SetGameStatus@CTableFrame@@UAEXE@Z
	DD	FLAT:?StartGame@CTableFrame@@UAE_NXZ
	DD	FLAT:?DismissGame@CTableFrame@@UAE_NXZ
	DD	FLAT:?ConcludeGame@CTableFrame@@UAE_NEH@Z
	DD	FLAT:?WriteUserScore@CTableFrame@@UAE_NGAAUtagScoreInfo@@KK@Z
	DD	FLAT:?WriteTableScore@CTableFrame@@UAE_NQAUtagScoreInfo@@G@Z
	DD	FLAT:?WriteTableVideoPlayer@CTableFrame@@UAE_NKPAD@Z
	DD	FLAT:?WriteTableVideoData@CTableFrame@@UAE_NPADGGPAEG@Z
	DD	FLAT:?CalculateRevenue@CTableFrame@@UAE_JG_J@Z
	DD	FLAT:?QueryConsumeQuota@CTableFrame@@UAE_JPAUIServerUserItem@@@Z
	DD	FLAT:?SearchUserItem@CTableFrame@@UAEPAUIServerUserItem@@K@Z
	DD	FLAT:?GetTableUserItem@CTableFrame@@UAEPAUIServerUserItem@@G@Z
	DD	FLAT:?EnumLookonUserItem@CTableFrame@@UAEPAUIServerUserItem@@G@Z
	DD	FLAT:?SetGameTimer@CTableFrame@@UAE_NKKKI@Z
	DD	FLAT:?KillGameTimer@CTableFrame@@UAE_NK@Z
	DD	FLAT:?SendTableData@CTableFrame@@UAE_NGGPAXGG@Z
	DD	FLAT:?SendTableData@CTableFrame@@UAE_NGG@Z
	DD	FLAT:?SendLookonData@CTableFrame@@UAE_NGGPAXG@Z
	DD	FLAT:?SendLookonData@CTableFrame@@UAE_NGG@Z
	DD	FLAT:?SendUserItemData@CTableFrame@@UAE_NPAUIServerUserItem@@GPAXG@Z
	DD	FLAT:?SendUserItemData@CTableFrame@@UAE_NPAUIServerUserItem@@G@Z
	DD	FLAT:?SendRoomData@CTableFrame@@UAE_NPAUIServerUserItem@@GPAXG@Z
	DD	FLAT:?SendRoomData@CTableFrame@@UAE_NPAUIServerUserItem@@G@Z
	DD	FLAT:?SendGameMessage@CTableFrame@@UAE_NPAUIServerUserItem@@PBDG@Z
	DD	FLAT:?SendGameMessage@CTableFrame@@UAE_NPBDG@Z
	DD	FLAT:?SendRoomMessage@CTableFrame@@UAE_NPAUIServerUserItem@@PBDG@Z
	DD	FLAT:?PerformStandUpAction@CTableFrame@@UAE_NPAUIServerUserItem@@_N@Z
	DD	FLAT:?PerformLookonAction@CTableFrame@@UAE_NGPAUIServerUserItem@@@Z
	DD	FLAT:?PerformSitDownAction@CTableFrame@@UAE_NGPAUIServerUserItem@@PBDK@Z
	DD	FLAT:?SendGameScene@CTableFrame@@UAE_NPAUIServerUserItem@@PAXG@Z
	DD	FLAT:?GetTableFrameHook@CTableFrame@@UAEPAUIUnknownEx@@XZ
	DD	FLAT:?SetTableFrameHook@CTableFrame@@UAE_NPAUIUnknownEx@@@Z
	DD	FLAT:?ImitateGameOption@CTableFrame@@UAE_NPAUIServerUserItem@@@Z
	DD	FLAT:?SendChatMessage@CTableFrame@@UAE_NPAUIServerUserItem@@0KPBDPAD@Z
	DD	FLAT:?GetGameRule@CTableFrame@@UAEPAEXZ
	DD	FLAT:?GetSpeicalInfo@CTableFrame@@UAEXPAEH@Z
	DD	FLAT:?SetTableChairCount@CTableFrame@@UAEXG@Z
	DD	FLAT:?IsPersonalRoomDisumme@CTableFrame@@UAE_NXZ
	DD	FLAT:?SetDataBaseMode@CTableFrame@@UAEXE@Z
	DD	FLAT:?GetDataBaseMode@CTableFrame@@UAEEXZ
	DD	FLAT:?GetDrawCountLimit@CTableFrame@@UAEKXZ
	DD	FLAT:?SetLoopCount@CTableFrame@@UAEXE@Z
	DD	FLAT:?GetLoopCount@CTableFrame@@UAEEXZ
	DD	FLAT:?GetGameMode@CTableFrame@@UAEEXZ
	DD	FLAT:??_ECTableFrame@@UAEPAXI@Z
	DD	FLAT:?ConcludeTable@CTableFrame@@UAE_NXZ
	DD	FLAT:?GetDrawCount@CTableFrame@@UAEGXZ
	DD	FLAT:?GetNullChairID@CTableFrame@@UAEGXZ
	DD	FLAT:?OnUserScroeNotify@CTableFrame@@UAE_NGPAUIServerUserItem@@E@Z
	DD	FLAT:?GetRecordTableOwner@CTableFrame@@UAEKXZ
	DD	FLAT:?CancelTableRequest@CTableFrame@@UAE_NKG@Z
	DD	FLAT:?CancelTableRequestReply@CTableFrame@@UAE_NKE@Z
	DD	FLAT:?SetPersonalRoomID@CTableFrame@@UAEXK@Z
	DD	FLAT:?HostDissumeGame@CTableFrame@@UAEXH@Z
	DD	FLAT:?GetPersonalRoomID@CTableFrame@@UAEKXZ
	DD	FLAT:?SetGameRule@CTableFrame@@UAEXPAEH@Z
	DD	FLAT:?SetPersonalRoomGUID@CTableFrame@@UAEXPADH@Z
	DD	FLAT:?GetPersonalRoomGUID@CTableFrame@@UAEPADXZ
	DD	FLAT:?SetPayRoomCardMode@CTableFrame@@UAEXEJE@Z
	DD	FLAT:?GetPayRoomCardMode@CTableFrame@@UAEEXZ
	DD	FLAT:?SetHostAddr@CTableFrame@@UAEXK@Z
	DD	FLAT:?GetHostAddr@CTableFrame@@UAEKXZ
	DD	FLAT:?SetCreatePersonalTime@CTableFrame@@UAEXU_SYSTEMTIME@@@Z
CONST	ENDS
;	COMDAT ??_7?$CMap@KK_JAA_J@@6B@
CONST	SEGMENT
??_7?$CMap@KK_JAA_J@@6B@ DD FLAT:??_R4?$CMap@KK_JAA_J@@6B@ ; CMap<unsigned long,unsigned long,__int64,__int64 &>::`vftable'
	DD	FLAT:?GetRuntimeClass@CObject@@UBEPAUCRuntimeClass@@XZ
	DD	FLAT:??_E?$CMap@KK_JAA_J@@UAEPAXI@Z
	DD	FLAT:?Serialize@?$CMap@KK_JAA_J@@UAEXAAVCArchive@@@Z
	DD	FLAT:?AssertValid@?$CMap@KK_JAA_J@@UBEXXZ
	DD	FLAT:?Dump@?$CMap@KK_JAA_J@@UBEXAAVCDumpContext@@@Z
CONST	ENDS
;	COMDAT ??_7?$CWHArray@PAUtagGameScoreRecord@@ABQAU1@@@6B@
CONST	SEGMENT
??_7?$CWHArray@PAUtagGameScoreRecord@@ABQAU1@@@6B@ DD FLAT:??_R4?$CWHArray@PAUtagGameScoreRecord@@ABQAU1@@@6B@ ; CWHArray<tagGameScoreRecord *,tagGameScoreRecord * const &>::`vftable'
	DD	FLAT:??_E?$CWHArray@PAUtagGameScoreRecord@@ABQAU1@@@UAEPAXI@Z
CONST	ENDS
;	COMDAT ??_7?$CWHArray@PAUIServerUserItem@@ABQAU1@@@6B@
CONST	SEGMENT
??_7?$CWHArray@PAUIServerUserItem@@ABQAU1@@@6B@ DD FLAT:??_R4?$CWHArray@PAUIServerUserItem@@ABQAU1@@@6B@ ; CWHArray<IServerUserItem *,IServerUserItem * const &>::`vftable'
	DD	FLAT:??_E?$CWHArray@PAUIServerUserItem@@ABQAU1@@@UAEPAXI@Z
CONST	ENDS
;	COMDAT ??_R2CObject@@8
rdata$r	SEGMENT
??_R2CObject@@8 DD FLAT:??_R1A@?0A@EA@CObject@@8	; CObject::`RTTI Base Class Array'
rdata$r	ENDS
;	COMDAT ??_R3CObject@@8
rdata$r	SEGMENT
??_R3CObject@@8 DD 00H					; CObject::`RTTI Class Hierarchy Descriptor'
	DD	00H
	DD	01H
	DD	FLAT:??_R2CObject@@8
rdata$r	ENDS
;	COMDAT ??_R0?AVCObject@@@8
data$r	SEGMENT
??_R0?AVCObject@@@8 DD FLAT:??_7type_info@@6B@		; CObject `RTTI Type Descriptor'
	DD	00H
	DB	'.?AVCObject@@', 00H
data$r	ENDS
;	COMDAT ??_R1A@?0A@EA@CObject@@8
rdata$r	SEGMENT
??_R1A@?0A@EA@CObject@@8 DD FLAT:??_R0?AVCObject@@@8	; CObject::`RTTI Base Class Descriptor at (0,-1,0,64)'
	DD	00H
	DD	00H
	DD	0ffffffffH
	DD	00H
	DD	040H
	DD	FLAT:??_R3CObject@@8
rdata$r	ENDS
;	COMDAT ??_C@_04OAFLPOMH@?$FN?5?$DN?5@
CONST	SEGMENT
??_C@_04OAFLPOMH@?$FN?5?$DN?5@ DB '] = ', 00H		; `string'
CONST	ENDS
;	COMDAT ??_C@_03OHJIHPJH@?6?7?$FL@
CONST	SEGMENT
??_C@_03OHJIHPJH@?6?7?$FL@ DB 0aH, 09H, '[', 00H	; `string'
CONST	ENDS
;	COMDAT ??_C@_01EEMJAFIK@?6@
CONST	SEGMENT
??_C@_01EEMJAFIK@?6@ DB 0aH, 00H			; `string'
CONST	ENDS
;	COMDAT ??_C@_09HCLNAIDE@?5elements@
CONST	SEGMENT
??_C@_09HCLNAIDE@?5elements@ DB ' elements', 00H	; `string'
CONST	ENDS
;	COMDAT ??_C@_05PLCFPPOI@with?5@
CONST	SEGMENT
??_C@_05PLCFPPOI@with?5@ DB 'with ', 00H		; `string'
CONST	ENDS
;	COMDAT ??_C@_0HC@HBCNBCLF@c?3?2program?5files?5?$CIx86?$CJ?2microsof@
CONST	SEGMENT
??_C@_0HC@HBCNBCLF@c?3?2program?5files?5?$CIx86?$CJ?2microsof@ DB 'c:\pro'
	DB	'gram files (x86)\microsoft visual studio\2017\community\vc\to'
	DB	'ols\msvc\14.16.27023\atlmfc\include\afxtempl.h', 00H ; `string'
CONST	ENDS
;	COMDAT ??_C@_1BK@NHECDDNK@?$AAm?$AA_?$AAp?$AAD?$AAa?$AAt?$AAa?$AA?5?$AA?$DN?$AA?$DN?$AA?5?$AA0@
CONST	SEGMENT
??_C@_1BK@NHECDDNK@?$AAm?$AA_?$AAp?$AAD?$AAa?$AAt?$AAa?$AA?5?$AA?$DN?$AA?$DN?$AA?5?$AA0@ DB 'm'
	DB	00H, '_', 00H, 'p', 00H, 'D', 00H, 'a', 00H, 't', 00H, 'a', 00H
	DB	' ', 00H, '=', 00H, '=', 00H, ' ', 00H, '0', 00H, 00H, 00H ; `string'
CONST	ENDS
;	COMDAT ??_7ICompilationSink@@6B@
CONST	SEGMENT
??_7ICompilationSink@@6B@ DD FLAT:??_R4ICompilationSink@@6B@ ; ICompilationSink::`vftable'
	DD	FLAT:__purecall
	DD	FLAT:__purecall
	DD	FLAT:__purecall
CONST	ENDS
;	COMDAT ??_7ITableFrame@@6B@
CONST	SEGMENT
??_7ITableFrame@@6B@ DD FLAT:??_R4ITableFrame@@6B@	; ITableFrame::`vftable'
	DD	FLAT:__purecall
	DD	FLAT:__purecall
	DD	FLAT:__purecall
	DD	FLAT:__purecall
	DD	FLAT:__purecall
	DD	FLAT:__purecall
	DD	FLAT:__purecall
	DD	FLAT:__purecall
	DD	FLAT:__purecall
	DD	FLAT:__purecall
	DD	FLAT:__purecall
	DD	FLAT:__purecall
	DD	FLAT:__purecall
	DD	FLAT:__purecall
	DD	FLAT:__purecall
	DD	FLAT:__purecall
	DD	FLAT:__purecall
	DD	FLAT:__purecall
	DD	FLAT:__purecall
	DD	FLAT:__purecall
	DD	FLAT:__purecall
	DD	FLAT:__purecall
	DD	FLAT:__purecall
	DD	FLAT:__purecall
	DD	FLAT:__purecall
	DD	FLAT:__purecall
	DD	FLAT:__purecall
	DD	FLAT:__purecall
	DD	FLAT:__purecall
	DD	FLAT:__purecall
	DD	FLAT:__purecall
	DD	FLAT:__purecall
	DD	FLAT:__purecall
	DD	FLAT:__purecall
	DD	FLAT:__purecall
	DD	FLAT:__purecall
	DD	FLAT:__purecall
	DD	FLAT:__purecall
	DD	FLAT:__purecall
	DD	FLAT:__purecall
	DD	FLAT:__purecall
	DD	FLAT:__purecall
	DD	FLAT:__purecall
	DD	FLAT:__purecall
	DD	FLAT:__purecall
	DD	FLAT:__purecall
	DD	FLAT:__purecall
	DD	FLAT:__purecall
	DD	FLAT:__purecall
	DD	FLAT:__purecall
	DD	FLAT:__purecall
	DD	FLAT:__purecall
	DD	FLAT:__purecall
	DD	FLAT:__purecall
	DD	FLAT:__purecall
	DD	FLAT:__purecall
	DD	FLAT:__purecall
	DD	FLAT:__purecall
	DD	FLAT:__purecall
	DD	FLAT:__purecall
	DD	FLAT:__purecall
	DD	FLAT:__purecall
	DD	FLAT:__purecall
	DD	FLAT:__purecall
	DD	FLAT:__purecall
	DD	FLAT:__purecall
	DD	FLAT:__purecall
	DD	FLAT:__purecall
	DD	FLAT:__purecall
	DD	FLAT:__purecall
	DD	FLAT:__purecall
	DD	FLAT:__purecall
CONST	ENDS
;	COMDAT ??_C@_0BG@FNDGHLBI@openfile?5?$LE?r?$LP?$KK?N?D?$LM?$PO?$LE?m?N?s@
CONST	SEGMENT
??_C@_0BG@FNDGHLBI@openfile?5?$LE?r?$LP?$KK?N?D?$LM?$PO?$LE?m?N?s@ DB 'op'
	DB	'enfile ', 0b4H, 0f2H, 0bfH, 0aaH, 0ceH, 0c4H, 0bcH, 0feH, 0b4H
	DB	0edH, 0ceH, 0f3H, 00H			; `string'
CONST	ENDS
;	COMDAT ??_C@_0BG@FGDEEIKF@openfile?5?$LE?r?$LP?$KK?N?D?$LM?$PO?$LD?I?$LJ?$KG@
CONST	SEGMENT
??_C@_0BG@FGDEEIKF@openfile?5?$LE?r?$LP?$KK?N?D?$LM?$PO?$LD?I?$LJ?$KG@ DB 'o'
	DB	'penfile ', 0b4H, 0f2H, 0bfH, 0aaH, 0ceH, 0c4H, 0bcH, 0feH, 0b3H
	DB	0c9H, 0b9H, 0a6H, 00H			; `string'
CONST	ENDS
;	COMDAT ??_C@_03HIKJINGA@at?$CL@
CONST	SEGMENT
??_C@_03HIKJINGA@at?$CL@ DB 'at+', 00H			; `string'
CONST	ENDS
;	COMDAT ??_C@_0N@LMHKOMJJ@openfile?5?5?$CFs@
CONST	SEGMENT
??_C@_0N@LMHKOMJJ@openfile?5?5?$CFs@ DB 'openfile  %s', 00H ; `string'
CONST	ENDS
;	COMDAT ??_C@_0BM@MPGOOIFH@Log?1?1?$CFd?9?$CFd?9?$CFd?9ServerLog?4txt@
CONST	SEGMENT
??_C@_0BM@MPGOOIFH@Log?1?1?$CFd?9?$CFd?9?$CFd?9ServerLog?4txt@ DB 'Log//%'
	DB	'd-%d-%d-ServerLog.txt', 00H			; `string'
CONST	ENDS
;	COMDAT ??_C@_03GGEOLGBL@Log@
CONST	SEGMENT
??_C@_03GGEOLGBL@Log@ DB 'Log', 00H			; `string'
CONST	ENDS
;	COMDAT ??_C@_0BD@DCGNBEMB@?$CFd?9?$CFd?9?$CFd?9?$CFd?3?5?$CFs?5?$AN?6@
CONST	SEGMENT
??_C@_0BD@DCGNBEMB@?$CFd?9?$CFd?9?$CFd?9?$CFd?3?5?$CFs?5?$AN?6@ DB '%d-%d'
	DB	'-%d-%d: %s ', 0dH, 0aH, 00H			; `string'
CONST	ENDS
;	COMDAT ??_C@_0BG@LDDEPHLF@open?5?$CK?$CK?$CK?5?H?U?V?$LO?P?E?O?$KC?5?$CFs?5@
CONST	SEGMENT
??_C@_0BG@LDDEPHLF@open?5?$CK?$CK?$CK?5?H?U?V?$LO?P?E?O?$KC?5?$CFs?5@ DB 'o'
	DB	'pen *** ', 0c8H, 0d5H, 0d6H, 0beH, 0d0H, 0c5H, 0cfH, 0a2H, ' '
	DB	'%s ', 00H					; `string'
CONST	ENDS
;	COMDAT ??_7IUnknownEx@@6B@
CONST	SEGMENT
??_7IUnknownEx@@6B@ DD FLAT:??_R4IUnknownEx@@6B@	; IUnknownEx::`vftable'
	DD	FLAT:__purecall
	DD	FLAT:__purecall
CONST	ENDS
;	COMDAT ??_C@_00CNPNBAHC@@
CONST	SEGMENT
??_C@_00CNPNBAHC@@ DB 00H				; `string'
CONST	ENDS
;	COMDAT ?__LINE__Var@?0??GetLocalTm@CTime@ATL@@QBEPAUtm@@PAU4@@Z@4JA
_DATA	SEGMENT
?__LINE__Var@?0??GetLocalTm@CTime@ATL@@QBEPAUtm@@PAU4@@Z@4JA DD 025fH ; `ATL::CTime::GetLocalTm'::`1'::__LINE__Var
_DATA	ENDS
;	COMDAT ??_C@_1OC@IALJLBM@?$AAc?$AA?3?$AA?2?$AAp?$AAr?$AAo?$AAg?$AAr?$AAa?$AAm?$AA?5?$AAf?$AAi?$AAl?$AAe@
CONST	SEGMENT
??_C@_1OC@IALJLBM@?$AAc?$AA?3?$AA?2?$AAp?$AAr?$AAo?$AAg?$AAr?$AAa?$AAm?$AA?5?$AAf?$AAi?$AAl?$AAe@ DB 'c'
	DB	00H, ':', 00H, '\', 00H, 'p', 00H, 'r', 00H, 'o', 00H, 'g', 00H
	DB	'r', 00H, 'a', 00H, 'm', 00H, ' ', 00H, 'f', 00H, 'i', 00H, 'l'
	DB	00H, 'e', 00H, 's', 00H, ' ', 00H, '(', 00H, 'x', 00H, '8', 00H
	DB	'6', 00H, ')', 00H, '\', 00H, 'm', 00H, 'i', 00H, 'c', 00H, 'r'
	DB	00H, 'o', 00H, 's', 00H, 'o', 00H, 'f', 00H, 't', 00H, ' ', 00H
	DB	'v', 00H, 'i', 00H, 's', 00H, 'u', 00H, 'a', 00H, 'l', 00H, ' '
	DB	00H, 's', 00H, 't', 00H, 'u', 00H, 'd', 00H, 'i', 00H, 'o', 00H
	DB	'\', 00H, '2', 00H, '0', 00H, '1', 00H, '7', 00H, '\', 00H, 'c'
	DB	00H, 'o', 00H, 'm', 00H, 'm', 00H, 'u', 00H, 'n', 00H, 'i', 00H
	DB	't', 00H, 'y', 00H, '\', 00H, 'v', 00H, 'c', 00H, '\', 00H, 't'
	DB	00H, 'o', 00H, 'o', 00H, 'l', 00H, 's', 00H, '\', 00H, 'm', 00H
	DB	's', 00H, 'v', 00H, 'c', 00H, '\', 00H, '1', 00H, '4', 00H, '.'
	DB	00H, '1', 00H, '6', 00H, '.', 00H, '2', 00H, '7', 00H, '0', 00H
	DB	'2', 00H, '3', 00H, '\', 00H, 'a', 00H, 't', 00H, 'l', 00H, 'm'
	DB	00H, 'f', 00H, 'c', 00H, '\', 00H, 'i', 00H, 'n', 00H, 'c', 00H
	DB	'l', 00H, 'u', 00H, 'd', 00H, 'e', 00H, '\', 00H, 'a', 00H, 't'
	DB	00H, 'l', 00H, 't', 00H, 'i', 00H, 'm', 00H, 'e', 00H, '.', 00H
	DB	'h', 00H, 00H, 00H				; `string'
CONST	ENDS
;	COMDAT ??_C@_1BM@GBBOFEAE@?$AA_?$AA_?$AAa?$AAt?$AAl?$AA_?$AAc?$AAo?$AAn?$AAd?$AAV?$AAa?$AAl@
CONST	SEGMENT
??_C@_1BM@GBBOFEAE@?$AA_?$AA_?$AAa?$AAt?$AAl?$AA_?$AAc?$AAo?$AAn?$AAd?$AAV?$AAa?$AAl@ DB '_'
	DB	00H, '_', 00H, 'a', 00H, 't', 00H, 'l', 00H, '_', 00H, 'c', 00H
	DB	'o', 00H, 'n', 00H, 'd', 00H, 'V', 00H, 'a', 00H, 'l', 00H, 00H
	DB	00H						; `string'
CONST	ENDS
;	COMDAT ??_C@_0BF@IAAKIJDJ@AtlThrow?3?5hr?5?$DN?50x?$CFx?6@
CONST	SEGMENT
??_C@_0BF@IAAKIJDJ@AtlThrow?3?5hr?5?$DN?50x?$CFx?6@ DB 'AtlThrow: hr = 0x'
	DB	'%x', 0aH, 00H				; `string'
CONST	ENDS
;	COMDAT ??_C@_0HD@OEBHCJKM@c?3?2program?5files?5?$CIx86?$CJ?2microsof@
CONST	SEGMENT
??_C@_0HD@OEBHCJKM@c?3?2program?5files?5?$CIx86?$CJ?2microsof@ DB 'c:\pro'
	DB	'gram files (x86)\microsoft visual studio\2017\community\vc\to'
	DB	'ols\msvc\14.16.27023\atlmfc\include\atlexcept.h', 00H ; `string'
CONST	ENDS
;	COMDAT ?__LINE__Var@?0??AtlThrowImpl@ATL@@YGXJ@Z@4JA
_DATA	SEGMENT
?__LINE__Var@?0??AtlThrowImpl@ATL@@YGXJ@Z@4JA DD 041H	; `ATL::AtlThrowImpl'::`1'::__LINE__Var
_DATA	ENDS
;	COMDAT ??_C@_1OE@PDFAMNPL@?$AAc?$AA?3?$AA?2?$AAp?$AAr?$AAo?$AAg?$AAr?$AAa?$AAm?$AA?5?$AAf?$AAi?$AAl?$AAe@
CONST	SEGMENT
??_C@_1OE@PDFAMNPL@?$AAc?$AA?3?$AA?2?$AAp?$AAr?$AAo?$AAg?$AAr?$AAa?$AAm?$AA?5?$AAf?$AAi?$AAl?$AAe@ DB 'c'
	DB	00H, ':', 00H, '\', 00H, 'p', 00H, 'r', 00H, 'o', 00H, 'g', 00H
	DB	'r', 00H, 'a', 00H, 'm', 00H, ' ', 00H, 'f', 00H, 'i', 00H, 'l'
	DB	00H, 'e', 00H, 's', 00H, ' ', 00H, '(', 00H, 'x', 00H, '8', 00H
	DB	'6', 00H, ')', 00H, '\', 00H, 'm', 00H, 'i', 00H, 'c', 00H, 'r'
	DB	00H, 'o', 00H, 's', 00H, 'o', 00H, 'f', 00H, 't', 00H, ' ', 00H
	DB	'v', 00H, 'i', 00H, 's', 00H, 'u', 00H, 'a', 00H, 'l', 00H, ' '
	DB	00H, 's', 00H, 't', 00H, 'u', 00H, 'd', 00H, 'i', 00H, 'o', 00H
	DB	'\', 00H, '2', 00H, '0', 00H, '1', 00H, '7', 00H, '\', 00H, 'c'
	DB	00H, 'o', 00H, 'm', 00H, 'm', 00H, 'u', 00H, 'n', 00H, 'i', 00H
	DB	't', 00H, 'y', 00H, '\', 00H, 'v', 00H, 'c', 00H, '\', 00H, 't'
	DB	00H, 'o', 00H, 'o', 00H, 'l', 00H, 's', 00H, '\', 00H, 'm', 00H
	DB	's', 00H, 'v', 00H, 'c', 00H, '\', 00H, '1', 00H, '4', 00H, '.'
	DB	00H, '1', 00H, '6', 00H, '.', 00H, '2', 00H, '7', 00H, '0', 00H
	DB	'2', 00H, '3', 00H, '\', 00H, 'a', 00H, 't', 00H, 'l', 00H, 'm'
	DB	00H, 'f', 00H, 'c', 00H, '\', 00H, 'i', 00H, 'n', 00H, 'c', 00H
	DB	'l', 00H, 'u', 00H, 'd', 00H, 'e', 00H, '\', 00H, 'a', 00H, 't'
	DB	00H, 'l', 00H, 't', 00H, 'r', 00H, 'a', 00H, 'c', 00H, 'e', 00H
	DB	'.', 00H, 'h', 00H, 00H, 00H			; `string'
CONST	ENDS
;	COMDAT ??_C@_1EO@EBPPKGOM@?$AAf?$AAa?$AAl?$AAs?$AAe?$AA?5?$AA?$CG?$AA?$CG?$AA?5?$AA?$CC?$AAT?$AAo?$AAo?$AA?5?$AAm@
CONST	SEGMENT
??_C@_1EO@EBPPKGOM@?$AAf?$AAa?$AAl?$AAs?$AAe?$AA?5?$AA?$CG?$AA?$CG?$AA?5?$AA?$CC?$AAT?$AAo?$AAo?$AA?5?$AAm@ DB 'f'
	DB	00H, 'a', 00H, 'l', 00H, 's', 00H, 'e', 00H, ' ', 00H, '&', 00H
	DB	'&', 00H, ' ', 00H, '"', 00H, 'T', 00H, 'o', 00H, 'o', 00H, ' '
	DB	00H, 'm', 00H, 'a', 00H, 'n', 00H, 'y', 00H, ' ', 00H, 'c', 00H
	DB	'a', 00H, 't', 00H, 'e', 00H, 'g', 00H, 'o', 00H, 'r', 00H, 'i'
	DB	00H, 'e', 00H, 's', 00H, ' ', 00H, 'd', 00H, 'e', 00H, 'f', 00H
	DB	'i', 00H, 'n', 00H, 'e', 00H, 'd', 00H, '"', 00H, 00H, 00H ; `string'
CONST	ENDS
;	COMDAT ??_C@_17LGGGMOOB@?$AA?$CF?$AAh?$AAs@
CONST	SEGMENT
??_C@_17LGGGMOOB@?$AA?$CF?$AAh?$AAs@ DB '%', 00H, 'h', 00H, 's', 00H, 00H
	DB	00H						; `string'
CONST	ENDS
;	COMDAT ??_C@_1O@OAIPCDPO@?$AA?$CF?$AAl?$AAs?$AA?$CF?$AAl?$AAs@
CONST	SEGMENT
??_C@_1O@OAIPCDPO@?$AA?$CF?$AAl?$AAs?$AA?$CF?$AAl?$AAs@ DB '%', 00H, 'l', 00H
	DB	's', 00H, '%', 00H, 'l', 00H, 's', 00H, 00H, 00H ; `string'
CONST	ENDS
;	COMDAT ??_C@_1M@PGKOAACE@?$AA?$CF?$AAu?$AA?5?$AA?9?$AA?5@
CONST	SEGMENT
??_C@_1M@PGKOAACE@?$AA?$CF?$AAu?$AA?5?$AA?9?$AA?5@ DB '%', 00H, 'u', 00H, ' '
	DB	00H, '-', 00H, ' ', 00H, 00H, 00H		; `string'
CONST	ENDS
;	COMDAT ??_C@_1O@LFNDFEBP@?$AA?$CF?$AAl?$AAs?$AA?5?$AA?9?$AA?5@
CONST	SEGMENT
??_C@_1O@LFNDFEBP@?$AA?$CF?$AAl?$AAs?$AA?5?$AA?9?$AA?5@ DB '%', 00H, 'l', 00H
	DB	's', 00H, ' ', 00H, '-', 00H, ' ', 00H, 00H, 00H ; `string'
CONST	ENDS
;	COMDAT ?m_nCategory@CTrace@ATL@@1IA
_DATA	SEGMENT
?m_nCategory@CTrace@ATL@@1IA DD 0ffffffffH		; ATL::CTrace::m_nCategory
_DATA	ENDS
;	COMDAT ??_C@_0BC@PGMFNIFA@atlTraceException@
CONST	SEGMENT
??_C@_0BC@PGMFNIFA@atlTraceException@ DB 'atlTraceException', 00H ; `string'
CONST	ENDS
;	COMDAT ??_C@_1OE@IAPLKPHI@?$AAc?$AA?3?$AA?2?$AAp?$AAr?$AAo?$AAg?$AAr?$AAa?$AAm?$AA?5?$AAf?$AAi?$AAl?$AAe@
CONST	SEGMENT
??_C@_1OE@IAPLKPHI@?$AAc?$AA?3?$AA?2?$AAp?$AAr?$AAo?$AAg?$AAr?$AAa?$AAm?$AA?5?$AAf?$AAi?$AAl?$AAe@ DB 'c'
	DB	00H, ':', 00H, '\', 00H, 'p', 00H, 'r', 00H, 'o', 00H, 'g', 00H
	DB	'r', 00H, 'a', 00H, 'm', 00H, ' ', 00H, 'f', 00H, 'i', 00H, 'l'
	DB	00H, 'e', 00H, 's', 00H, ' ', 00H, '(', 00H, 'x', 00H, '8', 00H
	DB	'6', 00H, ')', 00H, '\', 00H, 'm', 00H, 'i', 00H, 'c', 00H, 'r'
	DB	00H, 'o', 00H, 's', 00H, 'o', 00H, 'f', 00H, 't', 00H, ' ', 00H
	DB	'v', 00H, 'i', 00H, 's', 00H, 'u', 00H, 'a', 00H, 'l', 00H, ' '
	DB	00H, 's', 00H, 't', 00H, 'u', 00H, 'd', 00H, 'i', 00H, 'o', 00H
	DB	'\', 00H, '2', 00H, '0', 00H, '1', 00H, '7', 00H, '\', 00H, 'c'
	DB	00H, 'o', 00H, 'm', 00H, 'm', 00H, 'u', 00H, 'n', 00H, 'i', 00H
	DB	't', 00H, 'y', 00H, '\', 00H, 'v', 00H, 'c', 00H, '\', 00H, 't'
	DB	00H, 'o', 00H, 'o', 00H, 'l', 00H, 's', 00H, '\', 00H, 'm', 00H
	DB	's', 00H, 'v', 00H, 'c', 00H, '\', 00H, '1', 00H, '4', 00H, '.'
	DB	00H, '1', 00H, '6', 00H, '.', 00H, '2', 00H, '7', 00H, '0', 00H
	DB	'2', 00H, '3', 00H, '\', 00H, 'a', 00H, 't', 00H, 'l', 00H, 'm'
	DB	00H, 'f', 00H, 'c', 00H, '\', 00H, 'i', 00H, 'n', 00H, 'c', 00H
	DB	'l', 00H, 'u', 00H, 'd', 00H, 'e', 00H, '\', 00H, 'a', 00H, 't'
	DB	00H, 'l', 00H, 'a', 00H, 'l', 00H, 'l', 00H, 'o', 00H, 'c', 00H
	DB	'.', 00H, 'h', 00H, 00H, 00H			; `string'
CONST	ENDS
;	COMDAT ??_C@_17CNPHIMPH@?$AA?$CF?$AAl?$AAs@
CONST	SEGMENT
??_C@_17CNPHIMPH@?$AA?$CF?$AAl?$AAs@ DB '%', 00H, 'l', 00H, 's', 00H, 00H
	DB	00H						; `string'
CONST	ENDS
;	COMDAT xdata$x
xdata$x	SEGMENT
__unwindtable$?InitializationFrame@CTableFrame@@QAE_NGAAUtagTableFrameParameter@@@Z DD 0ffffffffH
	DD	FLAT:__unwindfunclet$?InitializationFrame@CTableFrame@@QAE_NGAAUtagTableFrameParameter@@@Z$0
__ehfuncinfo$?InitializationFrame@CTableFrame@@QAE_NGAAUtagTableFrameParameter@@@Z DD 019930522H
	DD	01H
	DD	FLAT:__unwindtable$?InitializationFrame@CTableFrame@@QAE_NGAAUtagTableFrameParameter@@@Z
	DD	2 DUP(00H)
	DD	2 DUP(00H)
	DD	00H
	DD	01H
xdata$x	ENDS
;	COMDAT xdata$x
xdata$x	SEGMENT
__unwindtable$?PerformStandUpAction@CTableFrame@@UAE_NPAUIServerUserItem@@_N@Z DD 0ffffffffH
	DD	FLAT:__unwindfunclet$?PerformStandUpAction@CTableFrame@@UAE_NPAUIServerUserItem@@_N@Z$0
__ehfuncinfo$?PerformStandUpAction@CTableFrame@@UAE_NPAUIServerUserItem@@_N@Z DD 019930522H
	DD	01H
	DD	FLAT:__unwindtable$?PerformStandUpAction@CTableFrame@@UAE_NPAUIServerUserItem@@_N@Z
	DD	2 DUP(00H)
	DD	2 DUP(00H)
	DD	00H
	DD	01H
xdata$x	ENDS
;	COMDAT xdata$x
xdata$x	SEGMENT
__catchsym$?WriteUserScore@CTableFrame@@UAE_NGAAUtagScoreInfo@@KK@Z$2 DD 040H
	DD	00H
	DD	00H
	DD	FLAT:__catch$?WriteUserScore@CTableFrame@@UAE_NGAAUtagScoreInfo@@KK@Z$0
__unwindtable$?WriteUserScore@CTableFrame@@UAE_NGAAUtagScoreInfo@@KK@Z DD 0ffffffffH
	DD	00H
	DD	0ffffffffH
	DD	00H
__tryblocktable$?WriteUserScore@CTableFrame@@UAE_NGAAUtagScoreInfo@@KK@Z DD 00H
	DD	00H
	DD	01H
	DD	01H
	DD	FLAT:__catchsym$?WriteUserScore@CTableFrame@@UAE_NGAAUtagScoreInfo@@KK@Z$2
__ehfuncinfo$?WriteUserScore@CTableFrame@@UAE_NGAAUtagScoreInfo@@KK@Z DD 019930522H
	DD	02H
	DD	FLAT:__unwindtable$?WriteUserScore@CTableFrame@@UAE_NGAAUtagScoreInfo@@KK@Z
	DD	01H
	DD	FLAT:__tryblocktable$?WriteUserScore@CTableFrame@@UAE_NGAAUtagScoreInfo@@KK@Z
	DD	2 DUP(00H)
	DD	00H
	DD	01H
xdata$x	ENDS
;	COMDAT xdata$x
xdata$x	SEGMENT
__ehfuncinfo$??1CTableFrame@@UAE@XZ DD 019930522H
	DD	00H
	DD	00H
	DD	2 DUP(00H)
	DD	2 DUP(00H)
	DD	00H
	DD	05H
xdata$x	ENDS
;	COMDAT xdata$x
xdata$x	SEGMENT
__unwindtable$??0CTableFrame@@QAE@XZ DD 0ffffffffH
	DD	FLAT:__unwindfunclet$??0CTableFrame@@QAE@XZ$0
	DD	00H
	DD	FLAT:__unwindfunclet$??0CTableFrame@@QAE@XZ$1
	DD	01H
	DD	FLAT:__unwindfunclet$??0CTableFrame@@QAE@XZ$2
__ehfuncinfo$??0CTableFrame@@QAE@XZ DD 019930522H
	DD	03H
	DD	FLAT:__unwindtable$??0CTableFrame@@QAE@XZ
	DD	2 DUP(00H)
	DD	2 DUP(00H)
	DD	00H
	DD	01H
xdata$x	ENDS
;	COMDAT xdata$x
xdata$x	SEGMENT
__ehfuncinfo$??1?$CMap@KK_JAA_J@@UAE@XZ DD 019930522H
	DD	00H
	DD	00H
	DD	2 DUP(00H)
	DD	2 DUP(00H)
	DD	00H
	DD	05H
xdata$x	ENDS
;	COMDAT xdata$x
xdata$x	SEGMENT
__unwindtable$??0?$CMap@KK_JAA_J@@QAE@H@Z DD 0ffffffffH
	DD	FLAT:__unwindfunclet$??0?$CMap@KK_JAA_J@@QAE@H@Z$0
__ehfuncinfo$??0?$CMap@KK_JAA_J@@QAE@H@Z DD 019930522H
	DD	01H
	DD	FLAT:__unwindtable$??0?$CMap@KK_JAA_J@@QAE@H@Z
	DD	2 DUP(00H)
	DD	2 DUP(00H)
	DD	00H
	DD	01H
xdata$x	ENDS
;	COMDAT xdata$x
xdata$x	SEGMENT
__unwindtable$??RCTraceFileAndLineInfo@ATL@@QBAXHIPBDZZ DD 0ffffffffH
	DD	FLAT:__unwindfunclet$??RCTraceFileAndLineInfo@ATL@@QBAXHIPBDZZ$0
__ehfuncinfo$??RCTraceFileAndLineInfo@ATL@@QBAXHIPBDZZ DD 019930522H
	DD	01H
	DD	FLAT:__unwindtable$??RCTraceFileAndLineInfo@ATL@@QBAXHIPBDZZ
	DD	2 DUP(00H)
	DD	2 DUP(00H)
	DD	00H
	DD	01H
xdata$x	ENDS
;	COMDAT xdata$x
xdata$x	SEGMENT
__unwindtable$?TraceV@CTrace@ATL@@SAXPBDHII0PAD@Z DD 0ffffffffH
	DD	FLAT:__unwindfunclet$?TraceV@CTrace@ATL@@SAXPBDHII0PAD@Z$0
	DD	00H
	DD	FLAT:__unwindfunclet$?TraceV@CTrace@ATL@@SAXPBDHII0PAD@Z$1
__ehfuncinfo$?TraceV@CTrace@ATL@@SAXPBDHII0PAD@Z DD 019930522H
	DD	02H
	DD	FLAT:__unwindtable$?TraceV@CTrace@ATL@@SAXPBDHII0PAD@Z
	DD	2 DUP(00H)
	DD	2 DUP(00H)
	DD	00H
	DD	01H
xdata$x	ENDS
CRT$XCU	SEGMENT
??m_GameScoreRecordBuffer$initializer$@CTableFrame@@1P6AXXZA@@3P6AXXZA DD FLAT:??__E?m_GameScoreRecordBuffer@CTableFrame@@1V?$CWHArray@PAUtagGameScoreRecord@@ABQAU1@@@A@@YAXXZ ; ??m_GameScoreRecordBuffer$initializer$@CTableFrame@@1P6AXXZA@@3P6AXXZA
CRT$XCU	ENDS
; Function compile flags: /Odsp /ZI
;	COMDAT ?QueryInterface@CTableFrame@@W3AEPAXABU_GUID@@K@Z
_TEXT	SEGMENT
?QueryInterface@CTableFrame@@W3AEPAXABU_GUID@@K@Z PROC	; [thunk]:CTableFrame::QueryInterface`adjustor{4}', COMDAT
  00000	83 e9 04	 sub	 ecx, 4
  00003	e9 00 00 00 00	 jmp	 ?QueryInterface@CTableFrame@@UAEPAXABU_GUID@@K@Z ; CTableFrame::QueryInterface
?QueryInterface@CTableFrame@@W3AEPAXABU_GUID@@K@Z ENDP	; [thunk]:CTableFrame::QueryInterface`adjustor{4}'
_TEXT	ENDS
; Function compile flags: /Odsp /ZI
;	COMDAT ?Release@CTableFrame@@W3AEXXZ
_TEXT	SEGMENT
?Release@CTableFrame@@W3AEXXZ PROC			; [thunk]:CTableFrame::Release`adjustor{4}', COMDAT
  00000	83 e9 04	 sub	 ecx, 4
  00003	e9 00 00 00 00	 jmp	 ?Release@CTableFrame@@UAEXXZ ; CTableFrame::Release
?Release@CTableFrame@@W3AEXXZ ENDP			; [thunk]:CTableFrame::Release`adjustor{4}'
_TEXT	ENDS
; Function compile flags: /Odtp /ZI
; File c:\program files (x86)\microsoft visual studio\2017\community\vc\tools\msvc\14.16.27023\atlmfc\include\afxtempl.h
;	COMDAT ??$DumpElements@_J@@YGXAAVCDumpContext@@PB_JH@Z
_TEXT	SEGMENT
tv66 = -72						; size = 4
___afx_condVal$1 = -4					; size = 4
_dc$ = 8						; size = 4
_pElements$ = 12					; size = 4
_nCount$ = 16						; size = 4
??$DumpElements@_J@@YGXAAVCDumpContext@@PB_JH@Z PROC	; DumpElements<__int64>, COMDAT

; 137  : {

  00000	55		 push	 ebp
  00001	8b ec		 mov	 ebp, esp
  00003	83 ec 48	 sub	 esp, 72			; 00000048H
  00006	53		 push	 ebx
  00007	56		 push	 esi
  00008	57		 push	 edi
$LN4@DumpElemen:

; 138  : 	ENSURE(nCount == 0 || pElements != NULL);

  00009	83 7d 10 00	 cmp	 DWORD PTR _nCount$[ebp], 0
  0000d	74 0f		 je	 SHORT $LN7@DumpElemen
  0000f	83 7d 0c 00	 cmp	 DWORD PTR _pElements$[ebp], 0
  00013	75 09		 jne	 SHORT $LN7@DumpElemen
  00015	c7 45 b8 00 00
	00 00		 mov	 DWORD PTR tv66[ebp], 0
  0001c	eb 07		 jmp	 SHORT $LN8@DumpElemen
$LN7@DumpElemen:
  0001e	c7 45 b8 01 00
	00 00		 mov	 DWORD PTR tv66[ebp], 1
$LN8@DumpElemen:
  00025	8b 45 b8	 mov	 eax, DWORD PTR tv66[ebp]
  00028	89 45 fc	 mov	 DWORD PTR ___afx_condVal$1[ebp], eax
  0002b	83 7d fc 00	 cmp	 DWORD PTR ___afx_condVal$1[ebp], 0
  0002f	75 14		 jne	 SHORT $LN9@DumpElemen
  00031	68 8a 00 00 00	 push	 138			; 0000008aH
  00036	68 00 00 00 00	 push	 OFFSET ??_C@_0HC@HBCNBCLF@c?3?2program?5files?5?$CIx86?$CJ?2microsof@
  0003b	e8 00 00 00 00	 call	 ?AfxAssertFailedLine@@YGHPBDH@Z ; AfxAssertFailedLine
  00040	85 c0		 test	 eax, eax
  00042	74 01		 je	 SHORT $LN9@DumpElemen
  00044	cc		 int	 3
$LN9@DumpElemen:
  00045	83 7d fc 00	 cmp	 DWORD PTR ___afx_condVal$1[ebp], 0
  00049	75 05		 jne	 SHORT $LN2@DumpElemen
  0004b	e8 00 00 00 00	 call	 ?AfxThrowInvalidArgException@@YGXXZ ; AfxThrowInvalidArgException
$LN2@DumpElemen:
  00050	33 c0		 xor	 eax, eax
  00052	75 b5		 jne	 SHORT $LN4@DumpElemen

; 139  : 	ASSERT(nCount == 0 ||

  00054	83 7d 10 00	 cmp	 DWORD PTR _nCount$[ebp], 0
  00058	74 2a		 je	 SHORT $LN6@DumpElemen
  0005a	6a 00		 push	 0
  0005c	8b 45 10	 mov	 eax, DWORD PTR _nCount$[ebp]
  0005f	c1 e0 03	 shl	 eax, 3
  00062	50		 push	 eax
  00063	8b 4d 0c	 mov	 ecx, DWORD PTR _pElements$[ebp]
  00066	51		 push	 ecx
  00067	e8 00 00 00 00	 call	 ?AfxIsValidAddress@@YGHPBXIH@Z ; AfxIsValidAddress
  0006c	85 c0		 test	 eax, eax
  0006e	75 14		 jne	 SHORT $LN6@DumpElemen
  00070	68 8c 00 00 00	 push	 140			; 0000008cH
  00075	68 00 00 00 00	 push	 OFFSET ??_C@_0HC@HBCNBCLF@c?3?2program?5files?5?$CIx86?$CJ?2microsof@
  0007a	e8 00 00 00 00	 call	 ?AfxAssertFailedLine@@YGHPBDH@Z ; AfxAssertFailedLine
  0007f	85 c0		 test	 eax, eax
  00081	74 01		 je	 SHORT $LN6@DumpElemen
  00083	cc		 int	 3
$LN6@DumpElemen:

; 140  : 		AfxIsValidAddress(pElements, (size_t)nCount * sizeof(TYPE), FALSE));
; 141  : 	(dc); // not used
; 142  : 	(pElements);  // not used
; 143  : 	(nCount); // not used
; 144  : 
; 145  : 	// default does nothing
; 146  : }

  00084	5f		 pop	 edi
  00085	5e		 pop	 esi
  00086	5b		 pop	 ebx
  00087	8b e5		 mov	 esp, ebp
  00089	5d		 pop	 ebp
  0008a	c2 0c 00	 ret	 12			; 0000000cH
??$DumpElements@_J@@YGXAAVCDumpContext@@PB_JH@Z ENDP	; DumpElements<__int64>
_TEXT	ENDS
; Function compile flags: /Odtp /ZI
; File c:\program files (x86)\microsoft visual studio\2017\community\vc\tools\msvc\14.16.27023\atlmfc\include\afxtempl.h
;	COMDAT ??$SerializeElements@_J@@YGXAAVCArchive@@PA_JH@Z
_TEXT	SEGMENT
tv134 = -96						; size = 4
tv92 = -96						; size = 4
tv66 = -96						; size = 4
_nElementsToRead$1 = -28				; size = 4
_nElementsLeft$2 = -24					; size = 4
_pData$3 = -20						; size = 4
_nElementsToWrite$4 = -16				; size = 4
_nElementsLeft$5 = -12					; size = 4
_pData$6 = -8						; size = 4
___afx_condVal$7 = -4					; size = 4
_ar$ = 8						; size = 4
_pElements$ = 12					; size = 4
_nCount$ = 16						; size = 4
??$SerializeElements@_J@@YGXAAVCArchive@@PA_JH@Z PROC	; SerializeElements<__int64>, COMDAT

; 67   : {

  00000	55		 push	 ebp
  00001	8b ec		 mov	 ebp, esp
  00003	83 ec 60	 sub	 esp, 96			; 00000060H
  00006	53		 push	 ebx
  00007	56		 push	 esi
  00008	57		 push	 edi
$LN4@SerializeE:

; 68   : 	ENSURE(nCount == 0 || pElements != NULL);

  00009	83 7d 10 00	 cmp	 DWORD PTR _nCount$[ebp], 0
  0000d	74 0f		 je	 SHORT $LN13@SerializeE
  0000f	83 7d 0c 00	 cmp	 DWORD PTR _pElements$[ebp], 0
  00013	75 09		 jne	 SHORT $LN13@SerializeE
  00015	c7 45 a0 00 00
	00 00		 mov	 DWORD PTR tv66[ebp], 0
  0001c	eb 07		 jmp	 SHORT $LN14@SerializeE
$LN13@SerializeE:
  0001e	c7 45 a0 01 00
	00 00		 mov	 DWORD PTR tv66[ebp], 1
$LN14@SerializeE:
  00025	8b 45 a0	 mov	 eax, DWORD PTR tv66[ebp]
  00028	89 45 fc	 mov	 DWORD PTR ___afx_condVal$7[ebp], eax
  0002b	83 7d fc 00	 cmp	 DWORD PTR ___afx_condVal$7[ebp], 0
  0002f	75 11		 jne	 SHORT $LN15@SerializeE
  00031	6a 44		 push	 68			; 00000044H
  00033	68 00 00 00 00	 push	 OFFSET ??_C@_0HC@HBCNBCLF@c?3?2program?5files?5?$CIx86?$CJ?2microsof@
  00038	e8 00 00 00 00	 call	 ?AfxAssertFailedLine@@YGHPBDH@Z ; AfxAssertFailedLine
  0003d	85 c0		 test	 eax, eax
  0003f	74 01		 je	 SHORT $LN15@SerializeE
  00041	cc		 int	 3
$LN15@SerializeE:
  00042	83 7d fc 00	 cmp	 DWORD PTR ___afx_condVal$7[ebp], 0
  00046	75 05		 jne	 SHORT $LN2@SerializeE
  00048	e8 00 00 00 00	 call	 ?AfxThrowInvalidArgException@@YGXXZ ; AfxThrowInvalidArgException
$LN2@SerializeE:
  0004d	33 c0		 xor	 eax, eax
  0004f	75 b8		 jne	 SHORT $LN4@SerializeE

; 69   : 	ASSERT(nCount == 0 ||

  00051	83 7d 10 00	 cmp	 DWORD PTR _nCount$[ebp], 0
  00055	74 27		 je	 SHORT $LN16@SerializeE
  00057	6a 01		 push	 1
  00059	8b 45 10	 mov	 eax, DWORD PTR _nCount$[ebp]
  0005c	c1 e0 03	 shl	 eax, 3
  0005f	50		 push	 eax
  00060	8b 4d 0c	 mov	 ecx, DWORD PTR _pElements$[ebp]
  00063	51		 push	 ecx
  00064	e8 00 00 00 00	 call	 ?AfxIsValidAddress@@YGHPBXIH@Z ; AfxIsValidAddress
  00069	85 c0		 test	 eax, eax
  0006b	75 11		 jne	 SHORT $LN16@SerializeE
  0006d	6a 46		 push	 70			; 00000046H
  0006f	68 00 00 00 00	 push	 OFFSET ??_C@_0HC@HBCNBCLF@c?3?2program?5files?5?$CIx86?$CJ?2microsof@
  00074	e8 00 00 00 00	 call	 ?AfxAssertFailedLine@@YGHPBDH@Z ; AfxAssertFailedLine
  00079	85 c0		 test	 eax, eax
  0007b	74 01		 je	 SHORT $LN16@SerializeE
  0007d	cc		 int	 3
$LN16@SerializeE:

; 70   : 		AfxIsValidAddress(pElements, (size_t)nCount * sizeof(TYPE)));
; 71   : 
; 72   : 	// default is bit-wise read/write
; 73   : 	if (ar.IsStoring())

  0007e	8b 4d 08	 mov	 ecx, DWORD PTR _ar$[ebp]
  00081	e8 00 00 00 00	 call	 ?IsStoring@CArchive@@QBEHXZ ; CArchive::IsStoring
  00086	85 c0		 test	 eax, eax
  00088	74 5c		 je	 SHORT $LN10@SerializeE

; 74   : 	{
; 75   : 		TYPE* pData;
; 76   : 		UINT_PTR nElementsLeft;
; 77   : 
; 78   : 		nElementsLeft = nCount;

  0008a	8b 45 10	 mov	 eax, DWORD PTR _nCount$[ebp]
  0008d	89 45 f4	 mov	 DWORD PTR _nElementsLeft$5[ebp], eax

; 79   : 		pData = pElements;

  00090	8b 45 0c	 mov	 eax, DWORD PTR _pElements$[ebp]
  00093	89 45 f8	 mov	 DWORD PTR _pData$6[ebp], eax
$LN5@SerializeE:

; 80   : 		while( nElementsLeft > 0 )

  00096	83 7d f4 00	 cmp	 DWORD PTR _nElementsLeft$5[ebp], 0
  0009a	76 48		 jbe	 SHORT $LN6@SerializeE

; 81   : 		{
; 82   : 			UINT nElementsToWrite;
; 83   : 
; 84   : 			nElementsToWrite = UINT(__min(nElementsLeft, INT_MAX/sizeof(TYPE)));

  0009c	81 7d f4 ff ff
	ff 0f		 cmp	 DWORD PTR _nElementsLeft$5[ebp], 268435455 ; 0fffffffH
  000a3	73 08		 jae	 SHORT $LN17@SerializeE
  000a5	8b 45 f4	 mov	 eax, DWORD PTR _nElementsLeft$5[ebp]
  000a8	89 45 a0	 mov	 DWORD PTR tv92[ebp], eax
  000ab	eb 07		 jmp	 SHORT $LN18@SerializeE
$LN17@SerializeE:
  000ad	c7 45 a0 ff ff
	ff 0f		 mov	 DWORD PTR tv92[ebp], 268435455 ; 0fffffffH
$LN18@SerializeE:
  000b4	8b 4d a0	 mov	 ecx, DWORD PTR tv92[ebp]
  000b7	89 4d f0	 mov	 DWORD PTR _nElementsToWrite$4[ebp], ecx

; 85   : 			ar.Write(pData, nElementsToWrite*sizeof(TYPE));

  000ba	8b 45 f0	 mov	 eax, DWORD PTR _nElementsToWrite$4[ebp]
  000bd	c1 e0 03	 shl	 eax, 3
  000c0	50		 push	 eax
  000c1	8b 4d f8	 mov	 ecx, DWORD PTR _pData$6[ebp]
  000c4	51		 push	 ecx
  000c5	8b 4d 08	 mov	 ecx, DWORD PTR _ar$[ebp]
  000c8	e8 00 00 00 00	 call	 ?Write@CArchive@@QAEXPBXI@Z ; CArchive::Write

; 86   : 			nElementsLeft -= nElementsToWrite;

  000cd	8b 45 f4	 mov	 eax, DWORD PTR _nElementsLeft$5[ebp]
  000d0	2b 45 f0	 sub	 eax, DWORD PTR _nElementsToWrite$4[ebp]
  000d3	89 45 f4	 mov	 DWORD PTR _nElementsLeft$5[ebp], eax

; 87   : 			pData += nElementsToWrite;

  000d6	8b 45 f0	 mov	 eax, DWORD PTR _nElementsToWrite$4[ebp]
  000d9	8b 4d f8	 mov	 ecx, DWORD PTR _pData$6[ebp]
  000dc	8d 14 c1	 lea	 edx, DWORD PTR [ecx+eax*8]
  000df	89 55 f8	 mov	 DWORD PTR _pData$6[ebp], edx

; 88   : 		}

  000e2	eb b2		 jmp	 SHORT $LN5@SerializeE
$LN6@SerializeE:

; 89   : 	}
; 90   : 	else

  000e4	eb 5a		 jmp	 SHORT $LN12@SerializeE
$LN10@SerializeE:

; 91   : 	{
; 92   : 		TYPE* pData;
; 93   : 		UINT_PTR nElementsLeft;
; 94   : 
; 95   : 		nElementsLeft = nCount;

  000e6	8b 45 10	 mov	 eax, DWORD PTR _nCount$[ebp]
  000e9	89 45 e8	 mov	 DWORD PTR _nElementsLeft$2[ebp], eax

; 96   : 		pData = pElements;

  000ec	8b 45 0c	 mov	 eax, DWORD PTR _pElements$[ebp]
  000ef	89 45 ec	 mov	 DWORD PTR _pData$3[ebp], eax
$LN7@SerializeE:

; 97   : 		while( nElementsLeft > 0 )

  000f2	83 7d e8 00	 cmp	 DWORD PTR _nElementsLeft$2[ebp], 0
  000f6	76 48		 jbe	 SHORT $LN12@SerializeE

; 98   : 		{
; 99   : 			UINT nElementsToRead;
; 100  : 
; 101  : 			nElementsToRead = UINT(__min(nElementsLeft, INT_MAX/sizeof(TYPE)));

  000f8	81 7d e8 ff ff
	ff 0f		 cmp	 DWORD PTR _nElementsLeft$2[ebp], 268435455 ; 0fffffffH
  000ff	73 08		 jae	 SHORT $LN19@SerializeE
  00101	8b 45 e8	 mov	 eax, DWORD PTR _nElementsLeft$2[ebp]
  00104	89 45 a0	 mov	 DWORD PTR tv134[ebp], eax
  00107	eb 07		 jmp	 SHORT $LN20@SerializeE
$LN19@SerializeE:
  00109	c7 45 a0 ff ff
	ff 0f		 mov	 DWORD PTR tv134[ebp], 268435455 ; 0fffffffH
$LN20@SerializeE:
  00110	8b 4d a0	 mov	 ecx, DWORD PTR tv134[ebp]
  00113	89 4d e4	 mov	 DWORD PTR _nElementsToRead$1[ebp], ecx

; 102  : 			ar.EnsureRead(pData, nElementsToRead*sizeof(TYPE));

  00116	8b 45 e4	 mov	 eax, DWORD PTR _nElementsToRead$1[ebp]
  00119	c1 e0 03	 shl	 eax, 3
  0011c	50		 push	 eax
  0011d	8b 4d ec	 mov	 ecx, DWORD PTR _pData$3[ebp]
  00120	51		 push	 ecx
  00121	8b 4d 08	 mov	 ecx, DWORD PTR _ar$[ebp]
  00124	e8 00 00 00 00	 call	 ?EnsureRead@CArchive@@QAEXPAXI@Z ; CArchive::EnsureRead

; 103  : 			nElementsLeft -= nElementsToRead;

  00129	8b 45 e8	 mov	 eax, DWORD PTR _nElementsLeft$2[ebp]
  0012c	2b 45 e4	 sub	 eax, DWORD PTR _nElementsToRead$1[ebp]
  0012f	89 45 e8	 mov	 DWORD PTR _nElementsLeft$2[ebp], eax

; 104  : 			pData += nElementsToRead;

  00132	8b 45 e4	 mov	 eax, DWORD PTR _nElementsToRead$1[ebp]
  00135	8b 4d ec	 mov	 ecx, DWORD PTR _pData$3[ebp]
  00138	8d 14 c1	 lea	 edx, DWORD PTR [ecx+eax*8]
  0013b	89 55 ec	 mov	 DWORD PTR _pData$3[ebp], edx

; 105  : 		}

  0013e	eb b2		 jmp	 SHORT $LN7@SerializeE
$LN12@SerializeE:

; 106  : 	}
; 107  : }

  00140	5f		 pop	 edi
  00141	5e		 pop	 esi
  00142	5b		 pop	 ebx
  00143	8b e5		 mov	 esp, ebp
  00145	5d		 pop	 ebp
  00146	c2 0c 00	 ret	 12			; 0000000cH
??$SerializeElements@_J@@YGXAAVCArchive@@PA_JH@Z ENDP	; SerializeElements<__int64>
_TEXT	ENDS
; Function compile flags: /Odtp /ZI
; File c:\program files (x86)\microsoft visual studio\2017\community\vc\tools\msvc\14.16.27023\atlmfc\include\afxtempl.h
;	COMDAT ??0CAssoc@?$CMap@KK_JAA_J@@QAE@K@Z
_TEXT	SEGMENT
_this$ = -4						; size = 4
_key$ = 8						; size = 4
??0CAssoc@?$CMap@KK_JAA_J@@QAE@K@Z PROC			; CMap<unsigned long,unsigned long,__int64,__int64 &>::CAssoc::CAssoc, COMDAT
; _this$ = ecx

; 1267 : 		CAssoc( ARG_KEY key ) : CPair( key ) {}

  00000	55		 push	 ebp
  00001	8b ec		 mov	 ebp, esp
  00003	83 ec 44	 sub	 esp, 68			; 00000044H
  00006	53		 push	 ebx
  00007	56		 push	 esi
  00008	57		 push	 edi
  00009	89 4d fc	 mov	 DWORD PTR _this$[ebp], ecx
  0000c	8b 45 08	 mov	 eax, DWORD PTR _key$[ebp]
  0000f	50		 push	 eax
  00010	8b 4d fc	 mov	 ecx, DWORD PTR _this$[ebp]
  00013	e8 00 00 00 00	 call	 ??0CPair@?$CMap@KK_JAA_J@@IAE@K@Z ; CMap<unsigned long,unsigned long,__int64,__int64 &>::CPair::CPair
  00018	8b 45 fc	 mov	 eax, DWORD PTR _this$[ebp]
  0001b	5f		 pop	 edi
  0001c	5e		 pop	 esi
  0001d	5b		 pop	 ebx
  0001e	8b e5		 mov	 esp, ebp
  00020	5d		 pop	 ebp
  00021	c2 04 00	 ret	 4
??0CAssoc@?$CMap@KK_JAA_J@@QAE@K@Z ENDP			; CMap<unsigned long,unsigned long,__int64,__int64 &>::CAssoc::CAssoc
_TEXT	ENDS
; Function compile flags: /Odtp /ZI
; File c:\program files (x86)\microsoft visual studio\2017\community\vc\tools\msvc\14.16.27023\atlmfc\include\afxtempl.h
;	COMDAT ??0CPair@?$CMap@KK_JAA_J@@IAE@K@Z
_TEXT	SEGMENT
_this$ = -4						; size = 4
_keyval$ = 8						; size = 4
??0CPair@?$CMap@KK_JAA_J@@IAE@K@Z PROC			; CMap<unsigned long,unsigned long,__int64,__int64 &>::CPair::CPair, COMDAT
; _this$ = ecx

; 1256 : 		CPair( ARG_KEY keyval ) : key( keyval )	{}

  00000	55		 push	 ebp
  00001	8b ec		 mov	 ebp, esp
  00003	83 ec 44	 sub	 esp, 68			; 00000044H
  00006	53		 push	 ebx
  00007	56		 push	 esi
  00008	57		 push	 edi
  00009	89 4d fc	 mov	 DWORD PTR _this$[ebp], ecx
  0000c	8b 45 fc	 mov	 eax, DWORD PTR _this$[ebp]
  0000f	8b 4d 08	 mov	 ecx, DWORD PTR _keyval$[ebp]
  00012	89 08		 mov	 DWORD PTR [eax], ecx
  00014	8b 45 fc	 mov	 eax, DWORD PTR _this$[ebp]
  00017	5f		 pop	 edi
  00018	5e		 pop	 esi
  00019	5b		 pop	 ebx
  0001a	8b e5		 mov	 esp, ebp
  0001c	5d		 pop	 ebp
  0001d	c2 04 00	 ret	 4
??0CPair@?$CMap@KK_JAA_J@@IAE@K@Z ENDP			; CMap<unsigned long,unsigned long,__int64,__int64 &>::CPair::CPair
_TEXT	ENDS
; Function compile flags: /Odtp /ZI
; File c:\program files (x86)\windows kits\10\include\10.0.17763.0\ucrt\stdio.h
;	COMDAT ??$_snprintf_s@$0BAE@@@YAHAAY0BAE@DIPBDZZ
_TEXT	SEGMENT
__ArgList$ = -4						; size = 4
__Buffer$ = 8						; size = 4
__BufferCount$ = 12					; size = 4
__Format$ = 16						; size = 4
??$_snprintf_s@$0BAE@@@YAHAAY0BAE@DIPBDZZ PROC		; _snprintf_s<260>, COMDAT

; 2079 :         )

  00000	55		 push	 ebp
  00001	8b ec		 mov	 ebp, esp
  00003	83 ec 48	 sub	 esp, 72			; 00000048H
  00006	53		 push	 ebx
  00007	56		 push	 esi
  00008	57		 push	 edi

; 2073 :     __DEFINE_CPP_OVERLOAD_SECURE_FUNC_0_2_ARGLIST(

  00009	8d 45 14	 lea	 eax, DWORD PTR __Format$[ebp+4]
  0000c	89 45 fc	 mov	 DWORD PTR __ArgList$[ebp], eax
  0000f	8b 45 fc	 mov	 eax, DWORD PTR __ArgList$[ebp]
  00012	50		 push	 eax
  00013	8b 4d 10	 mov	 ecx, DWORD PTR __Format$[ebp]
  00016	51		 push	 ecx
  00017	8b 55 0c	 mov	 edx, DWORD PTR __BufferCount$[ebp]
  0001a	52		 push	 edx
  0001b	68 04 01 00 00	 push	 260			; 00000104H
  00020	8b 45 08	 mov	 eax, DWORD PTR __Buffer$[ebp]
  00023	50		 push	 eax
  00024	e8 00 00 00 00	 call	 __vsnprintf_s
  00029	83 c4 14	 add	 esp, 20			; 00000014H
  0002c	5f		 pop	 edi
  0002d	5e		 pop	 esi
  0002e	5b		 pop	 ebx
  0002f	8b e5		 mov	 esp, ebp
  00031	5d		 pop	 ebp
  00032	c3		 ret	 0
??$_snprintf_s@$0BAE@@@YAHAAY0BAE@DIPBDZZ ENDP		; _snprintf_s<260>
_TEXT	ENDS
; Function compile flags: /Odtp /ZI
; File c:\program files (x86)\windows kits\10\include\10.0.17763.0\ucrt\stdio.h
;	COMDAT ??$_snprintf_s@$0IA@@@YAHAAY0IA@DIPBDZZ
_TEXT	SEGMENT
__ArgList$ = -4						; size = 4
__Buffer$ = 8						; size = 4
__BufferCount$ = 12					; size = 4
__Format$ = 16						; size = 4
??$_snprintf_s@$0IA@@@YAHAAY0IA@DIPBDZZ PROC		; _snprintf_s<128>, COMDAT

; 2079 :         )

  00000	55		 push	 ebp
  00001	8b ec		 mov	 ebp, esp
  00003	83 ec 48	 sub	 esp, 72			; 00000048H
  00006	53		 push	 ebx
  00007	56		 push	 esi
  00008	57		 push	 edi

; 2073 :     __DEFINE_CPP_OVERLOAD_SECURE_FUNC_0_2_ARGLIST(

  00009	8d 45 14	 lea	 eax, DWORD PTR __Format$[ebp+4]
  0000c	89 45 fc	 mov	 DWORD PTR __ArgList$[ebp], eax
  0000f	8b 45 fc	 mov	 eax, DWORD PTR __ArgList$[ebp]
  00012	50		 push	 eax
  00013	8b 4d 10	 mov	 ecx, DWORD PTR __Format$[ebp]
  00016	51		 push	 ecx
  00017	8b 55 0c	 mov	 edx, DWORD PTR __BufferCount$[ebp]
  0001a	52		 push	 edx
  0001b	68 80 00 00 00	 push	 128			; 00000080H
  00020	8b 45 08	 mov	 eax, DWORD PTR __Buffer$[ebp]
  00023	50		 push	 eax
  00024	e8 00 00 00 00	 call	 __vsnprintf_s
  00029	83 c4 14	 add	 esp, 20			; 00000014H
  0002c	5f		 pop	 edi
  0002d	5e		 pop	 esi
  0002e	5b		 pop	 ebx
  0002f	8b e5		 mov	 esp, ebp
  00031	5d		 pop	 ebp
  00032	c3		 ret	 0
??$_snprintf_s@$0IA@@@YAHAAY0IA@DIPBDZZ ENDP		; _snprintf_s<128>
_TEXT	ENDS
; Function compile flags: /Odtp /ZI
;	COMDAT ??__F?m_GameScoreRecordBuffer@CTableFrame@@1V?$CWHArray@PAUtagGameScoreRecord@@ABQAU1@@@A@@YAXXZ
text$yd	SEGMENT
??__F?m_GameScoreRecordBuffer@CTableFrame@@1V?$CWHArray@PAUtagGameScoreRecord@@ABQAU1@@@A@@YAXXZ PROC ; `dynamic atexit destructor for 'CTableFrame::m_GameScoreRecordBuffer'', COMDAT
  00000	55		 push	 ebp
  00001	8b ec		 mov	 ebp, esp
  00003	83 ec 40	 sub	 esp, 64			; 00000040H
  00006	53		 push	 ebx
  00007	56		 push	 esi
  00008	57		 push	 edi
  00009	b9 00 00 00 00	 mov	 ecx, OFFSET ?m_GameScoreRecordBuffer@CTableFrame@@1V?$CWHArray@PAUtagGameScoreRecord@@ABQAU1@@@A ; CTableFrame::m_GameScoreRecordBuffer
  0000e	e8 00 00 00 00	 call	 ??1?$CWHArray@PAUtagGameScoreRecord@@ABQAU1@@@UAE@XZ ; CWHArray<tagGameScoreRecord *,tagGameScoreRecord * const &>::~CWHArray<tagGameScoreRecord *,tagGameScoreRecord * const &>
  00013	5f		 pop	 edi
  00014	5e		 pop	 esi
  00015	5b		 pop	 ebx
  00016	8b e5		 mov	 esp, ebp
  00018	5d		 pop	 ebp
  00019	c3		 ret	 0
??__F?m_GameScoreRecordBuffer@CTableFrame@@1V?$CWHArray@PAUtagGameScoreRecord@@ABQAU1@@@A@@YAXXZ ENDP ; `dynamic atexit destructor for 'CTableFrame::m_GameScoreRecordBuffer''
text$yd	ENDS
; Function compile flags: /Odtp /ZI
; File g:\网狐\happygamewh\服务端\系统模块\服务器组件\游戏服务器\tableframe.cpp
;	COMDAT ??__E?m_GameScoreRecordBuffer@CTableFrame@@1V?$CWHArray@PAUtagGameScoreRecord@@ABQAU1@@@A@@YAXXZ
text$di	SEGMENT
??__E?m_GameScoreRecordBuffer@CTableFrame@@1V?$CWHArray@PAUtagGameScoreRecord@@ABQAU1@@@A@@YAXXZ PROC ; `dynamic initializer for 'CTableFrame::m_GameScoreRecordBuffer'', COMDAT

; 13   : CGameScoreRecordArray				CTableFrame::m_GameScoreRecordBuffer;

  00000	55		 push	 ebp
  00001	8b ec		 mov	 ebp, esp
  00003	83 ec 40	 sub	 esp, 64			; 00000040H
  00006	53		 push	 ebx
  00007	56		 push	 esi
  00008	57		 push	 edi
  00009	b9 00 00 00 00	 mov	 ecx, OFFSET ?m_GameScoreRecordBuffer@CTableFrame@@1V?$CWHArray@PAUtagGameScoreRecord@@ABQAU1@@@A ; CTableFrame::m_GameScoreRecordBuffer
  0000e	e8 00 00 00 00	 call	 ??0?$CWHArray@PAUtagGameScoreRecord@@ABQAU1@@@QAE@XZ ; CWHArray<tagGameScoreRecord *,tagGameScoreRecord * const &>::CWHArray<tagGameScoreRecord *,tagGameScoreRecord * const &>
  00013	68 00 00 00 00	 push	 OFFSET ??__F?m_GameScoreRecordBuffer@CTableFrame@@1V?$CWHArray@PAUtagGameScoreRecord@@ABQAU1@@@A@@YAXXZ ; `dynamic atexit destructor for 'CTableFrame::m_GameScoreRecordBuffer''
  00018	e8 00 00 00 00	 call	 _atexit
  0001d	83 c4 04	 add	 esp, 4
  00020	5f		 pop	 edi
  00021	5e		 pop	 esi
  00022	5b		 pop	 ebx
  00023	8b e5		 mov	 esp, ebp
  00025	5d		 pop	 ebp
  00026	c3		 ret	 0
??__E?m_GameScoreRecordBuffer@CTableFrame@@1V?$CWHArray@PAUtagGameScoreRecord@@ABQAU1@@@A@@YAXXZ ENDP ; `dynamic initializer for 'CTableFrame::m_GameScoreRecordBuffer''
text$di	ENDS
; Function compile flags: /Odtp /ZI
;	COMDAT ??_GCTableFrame@@UAEPAXI@Z
_TEXT	SEGMENT
_this$ = -4						; size = 4
___flags$ = 8						; size = 4
??_GCTableFrame@@UAEPAXI@Z PROC				; CTableFrame::`scalar deleting destructor', COMDAT
; _this$ = ecx
  00000	55		 push	 ebp
  00001	8b ec		 mov	 ebp, esp
  00003	83 ec 44	 sub	 esp, 68			; 00000044H
  00006	53		 push	 ebx
  00007	56		 push	 esi
  00008	57		 push	 edi
  00009	89 4d fc	 mov	 DWORD PTR _this$[ebp], ecx
  0000c	8b 4d fc	 mov	 ecx, DWORD PTR _this$[ebp]
  0000f	e8 00 00 00 00	 call	 ??1CTableFrame@@UAE@XZ	; CTableFrame::~CTableFrame
  00014	8b 45 08	 mov	 eax, DWORD PTR ___flags$[ebp]
  00017	83 e0 01	 and	 eax, 1
  0001a	74 11		 je	 SHORT $LN2@scalar
  0001c	68 20 4a 00 00	 push	 18976			; 00004a20H
  00021	8b 45 fc	 mov	 eax, DWORD PTR _this$[ebp]
  00024	50		 push	 eax
  00025	e8 00 00 00 00	 call	 ??3@YAXPAXI@Z		; operator delete
  0002a	83 c4 08	 add	 esp, 8
$LN2@scalar:
  0002d	8b 45 fc	 mov	 eax, DWORD PTR _this$[ebp]
  00030	5f		 pop	 edi
  00031	5e		 pop	 esi
  00032	5b		 pop	 ebx
  00033	8b e5		 mov	 esp, ebp
  00035	5d		 pop	 ebp
  00036	c2 04 00	 ret	 4
??_GCTableFrame@@UAEPAXI@Z ENDP				; CTableFrame::`scalar deleting destructor'
_TEXT	ENDS
; Function compile flags: /Odtp /ZI
; File g:\网狐\happygamewh\服务端\系统模块\服务器组件\游戏服务器\tableframe.h
;	COMDAT ?GetGameMode@CTableFrame@@UAEEXZ
_TEXT	SEGMENT
_this$ = -4						; size = 4
?GetGameMode@CTableFrame@@UAEEXZ PROC			; CTableFrame::GetGameMode, COMDAT
; _this$ = ecx

; 482  : 	virtual BYTE	GetGameMode() { return m_cbGameMode; }

  00000	55		 push	 ebp
  00001	8b ec		 mov	 ebp, esp
  00003	83 ec 44	 sub	 esp, 68			; 00000044H
  00006	53		 push	 ebx
  00007	56		 push	 esi
  00008	57		 push	 edi
  00009	89 4d fc	 mov	 DWORD PTR _this$[ebp], ecx
  0000c	8b 45 fc	 mov	 eax, DWORD PTR _this$[ebp]
  0000f	8a 80 d0 46 00
	00		 mov	 al, BYTE PTR [eax+18128]
  00015	5f		 pop	 edi
  00016	5e		 pop	 esi
  00017	5b		 pop	 ebx
  00018	8b e5		 mov	 esp, ebp
  0001a	5d		 pop	 ebp
  0001b	c3		 ret	 0
?GetGameMode@CTableFrame@@UAEEXZ ENDP			; CTableFrame::GetGameMode
_TEXT	ENDS
; Function compile flags: /Odtp /ZI
; File g:\网狐\happygamewh\服务端\系统模块\服务器组件\游戏服务器\tableframe.h
;	COMDAT ?GetLoopCount@CTableFrame@@UAEEXZ
_TEXT	SEGMENT
_this$ = -4						; size = 4
?GetLoopCount@CTableFrame@@UAEEXZ PROC			; CTableFrame::GetLoopCount, COMDAT
; _this$ = ecx

; 480  : 	virtual BYTE GetLoopCount() { return m_cbLoopCount; }

  00000	55		 push	 ebp
  00001	8b ec		 mov	 ebp, esp
  00003	83 ec 44	 sub	 esp, 68			; 00000044H
  00006	53		 push	 ebx
  00007	56		 push	 esi
  00008	57		 push	 edi
  00009	89 4d fc	 mov	 DWORD PTR _this$[ebp], ecx
  0000c	8b 45 fc	 mov	 eax, DWORD PTR _this$[ebp]
  0000f	8a 80 9c 11 00
	00		 mov	 al, BYTE PTR [eax+4508]
  00015	5f		 pop	 edi
  00016	5e		 pop	 esi
  00017	5b		 pop	 ebx
  00018	8b e5		 mov	 esp, ebp
  0001a	5d		 pop	 ebp
  0001b	c3		 ret	 0
?GetLoopCount@CTableFrame@@UAEEXZ ENDP			; CTableFrame::GetLoopCount
_TEXT	ENDS
; Function compile flags: /Odtp /ZI
; File g:\网狐\happygamewh\服务端\系统模块\服务器组件\游戏服务器\tableframe.h
;	COMDAT ?SetLoopCount@CTableFrame@@UAEXE@Z
_TEXT	SEGMENT
_this$ = -4						; size = 4
_val$ = 8						; size = 1
?SetLoopCount@CTableFrame@@UAEXE@Z PROC			; CTableFrame::SetLoopCount, COMDAT
; _this$ = ecx

; 478  : 	virtual void SetLoopCount(BYTE val){ m_cbLoopCount = val; }

  00000	55		 push	 ebp
  00001	8b ec		 mov	 ebp, esp
  00003	83 ec 44	 sub	 esp, 68			; 00000044H
  00006	53		 push	 ebx
  00007	56		 push	 esi
  00008	57		 push	 edi
  00009	89 4d fc	 mov	 DWORD PTR _this$[ebp], ecx
  0000c	8b 45 fc	 mov	 eax, DWORD PTR _this$[ebp]
  0000f	8a 4d 08	 mov	 cl, BYTE PTR _val$[ebp]
  00012	88 88 9c 11 00
	00		 mov	 BYTE PTR [eax+4508], cl
  00018	5f		 pop	 edi
  00019	5e		 pop	 esi
  0001a	5b		 pop	 ebx
  0001b	8b e5		 mov	 esp, ebp
  0001d	5d		 pop	 ebp
  0001e	c2 04 00	 ret	 4
?SetLoopCount@CTableFrame@@UAEXE@Z ENDP			; CTableFrame::SetLoopCount
_TEXT	ENDS
; Function compile flags: /Odtp /ZI
; File g:\网狐\happygamewh\服务端\系统模块\服务器组件\游戏服务器\tableframe.cpp
;	COMDAT ?SetCreatePersonalTime@CTableFrame@@UAEXU_SYSTEMTIME@@@Z
_TEXT	SEGMENT
_this$ = -4						; size = 4
_tm$ = 8						; size = 16
?SetCreatePersonalTime@CTableFrame@@UAEXU_SYSTEMTIME@@@Z PROC ; CTableFrame::SetCreatePersonalTime, COMDAT
; _this$ = ecx

; 4234 : {

  00000	55		 push	 ebp
  00001	8b ec		 mov	 ebp, esp
  00003	83 ec 44	 sub	 esp, 68			; 00000044H
  00006	53		 push	 ebx
  00007	56		 push	 esi
  00008	57		 push	 edi
  00009	89 4d fc	 mov	 DWORD PTR _this$[ebp], ecx

; 4235 : 	m_sysStartTime = tm;

  0000c	8b 45 fc	 mov	 eax, DWORD PTR _this$[ebp]
  0000f	05 dc 46 00 00	 add	 eax, 18140		; 000046dcH
  00014	8b 4d 08	 mov	 ecx, DWORD PTR _tm$[ebp]
  00017	89 08		 mov	 DWORD PTR [eax], ecx
  00019	8b 55 0c	 mov	 edx, DWORD PTR _tm$[ebp+4]
  0001c	89 50 04	 mov	 DWORD PTR [eax+4], edx
  0001f	8b 4d 10	 mov	 ecx, DWORD PTR _tm$[ebp+8]
  00022	89 48 08	 mov	 DWORD PTR [eax+8], ecx
  00025	8b 55 14	 mov	 edx, DWORD PTR _tm$[ebp+12]
  00028	89 50 0c	 mov	 DWORD PTR [eax+12], edx

; 4236 : }

  0002b	5f		 pop	 edi
  0002c	5e		 pop	 esi
  0002d	5b		 pop	 ebx
  0002e	8b e5		 mov	 esp, ebp
  00030	5d		 pop	 ebp
  00031	c2 10 00	 ret	 16			; 00000010H
?SetCreatePersonalTime@CTableFrame@@UAEXU_SYSTEMTIME@@@Z ENDP ; CTableFrame::SetCreatePersonalTime
_TEXT	ENDS
; Function compile flags: /Odtp /ZI
; File g:\网狐\happygamewh\服务端\系统模块\服务器组件\游戏服务器\tableframe.h
;	COMDAT ?GetDrawCountLimit@CTableFrame@@UAEKXZ
_TEXT	SEGMENT
_this$ = -4						; size = 4
?GetDrawCountLimit@CTableFrame@@UAEKXZ PROC		; CTableFrame::GetDrawCountLimit, COMDAT
; _this$ = ecx

; 474  : 	virtual DWORD  GetDrawCountLimit(){ return m_dwDrawCountLimit; }

  00000	55		 push	 ebp
  00001	8b ec		 mov	 ebp, esp
  00003	83 ec 44	 sub	 esp, 68			; 00000044H
  00006	53		 push	 ebx
  00007	56		 push	 esi
  00008	57		 push	 edi
  00009	89 4d fc	 mov	 DWORD PTR _this$[ebp], ecx
  0000c	8b 45 fc	 mov	 eax, DWORD PTR _this$[ebp]
  0000f	8b 80 18 10 00
	00		 mov	 eax, DWORD PTR [eax+4120]
  00015	5f		 pop	 edi
  00016	5e		 pop	 esi
  00017	5b		 pop	 ebx
  00018	8b e5		 mov	 esp, ebp
  0001a	5d		 pop	 ebp
  0001b	c3		 ret	 0
?GetDrawCountLimit@CTableFrame@@UAEKXZ ENDP		; CTableFrame::GetDrawCountLimit
_TEXT	ENDS
; Function compile flags: /Odtp /ZI
; File g:\网狐\happygamewh\服务端\系统模块\服务器组件\游戏服务器\tableframe.cpp
;	COMDAT ?GetHostAddr@CTableFrame@@UAEKXZ
_TEXT	SEGMENT
_this$ = -4						; size = 4
?GetHostAddr@CTableFrame@@UAEKXZ PROC			; CTableFrame::GetHostAddr, COMDAT
; _this$ = ecx

; 4228 : {

  00000	55		 push	 ebp
  00001	8b ec		 mov	 ebp, esp
  00003	83 ec 44	 sub	 esp, 68			; 00000044H
  00006	53		 push	 ebx
  00007	56		 push	 esi
  00008	57		 push	 edi
  00009	89 4d fc	 mov	 DWORD PTR _this$[ebp], ecx

; 4229 : 	return m_dwRoomHostAddr;

  0000c	8b 45 fc	 mov	 eax, DWORD PTR _this$[ebp]
  0000f	8b 80 d4 46 00
	00		 mov	 eax, DWORD PTR [eax+18132]

; 4230 : }

  00015	5f		 pop	 edi
  00016	5e		 pop	 esi
  00017	5b		 pop	 ebx
  00018	8b e5		 mov	 esp, ebp
  0001a	5d		 pop	 ebp
  0001b	c3		 ret	 0
?GetHostAddr@CTableFrame@@UAEKXZ ENDP			; CTableFrame::GetHostAddr
_TEXT	ENDS
; Function compile flags: /Odtp /ZI
; File g:\网狐\happygamewh\服务端\系统模块\服务器组件\游戏服务器\tableframe.cpp
;	COMDAT ?SetHostAddr@CTableFrame@@UAEXK@Z
_TEXT	SEGMENT
_this$ = -4						; size = 4
_dwAddr$ = 8						; size = 4
?SetHostAddr@CTableFrame@@UAEXK@Z PROC			; CTableFrame::SetHostAddr, COMDAT
; _this$ = ecx

; 4222 : {

  00000	55		 push	 ebp
  00001	8b ec		 mov	 ebp, esp
  00003	83 ec 44	 sub	 esp, 68			; 00000044H
  00006	53		 push	 ebx
  00007	56		 push	 esi
  00008	57		 push	 edi
  00009	89 4d fc	 mov	 DWORD PTR _this$[ebp], ecx

; 4223 : 	m_dwRoomHostAddr =  dwAddr;

  0000c	8b 45 fc	 mov	 eax, DWORD PTR _this$[ebp]
  0000f	8b 4d 08	 mov	 ecx, DWORD PTR _dwAddr$[ebp]
  00012	89 88 d4 46 00
	00		 mov	 DWORD PTR [eax+18132], ecx

; 4224 : }

  00018	5f		 pop	 edi
  00019	5e		 pop	 esi
  0001a	5b		 pop	 ebx
  0001b	8b e5		 mov	 esp, ebp
  0001d	5d		 pop	 ebp
  0001e	c2 04 00	 ret	 4
?SetHostAddr@CTableFrame@@UAEXK@Z ENDP			; CTableFrame::SetHostAddr
_TEXT	ENDS
; Function compile flags: /Odtp /ZI
; File g:\网狐\happygamewh\服务端\系统模块\服务器组件\游戏服务器\tableframe.h
;	COMDAT ?GetPayRoomCardMode@CTableFrame@@UAEEXZ
_TEXT	SEGMENT
_this$ = -4						; size = 4
?GetPayRoomCardMode@CTableFrame@@UAEEXZ PROC		; CTableFrame::GetPayRoomCardMode, COMDAT
; _this$ = ecx

; 467  : 	virtual BYTE GetPayRoomCardMode(){ return m_cbPayMode; }

  00000	55		 push	 ebp
  00001	8b ec		 mov	 ebp, esp
  00003	83 ec 44	 sub	 esp, 68			; 00000044H
  00006	53		 push	 ebx
  00007	56		 push	 esi
  00008	57		 push	 edi
  00009	89 4d fc	 mov	 DWORD PTR _this$[ebp], ecx
  0000c	8b 45 fc	 mov	 eax, DWORD PTR _this$[ebp]
  0000f	8a 80 d1 46 00
	00		 mov	 al, BYTE PTR [eax+18129]
  00015	5f		 pop	 edi
  00016	5e		 pop	 esi
  00017	5b		 pop	 ebx
  00018	8b e5		 mov	 esp, ebp
  0001a	5d		 pop	 ebp
  0001b	c3		 ret	 0
?GetPayRoomCardMode@CTableFrame@@UAEEXZ ENDP		; CTableFrame::GetPayRoomCardMode
_TEXT	ENDS
; Function compile flags: /Odtp /ZI
; File g:\网狐\happygamewh\服务端\系统模块\服务器组件\游戏服务器\tableframe.h
;	COMDAT ?SetPayRoomCardMode@CTableFrame@@UAEXEJE@Z
_TEXT	SEGMENT
_this$ = -4						; size = 4
_cbPayMode$ = 8						; size = 1
_lPayRoomCardCount$ = 12				; size = 4
_cbGameMode$ = 16					; size = 1
?SetPayRoomCardMode@CTableFrame@@UAEXEJE@Z PROC		; CTableFrame::SetPayRoomCardMode, COMDAT
; _this$ = ecx

; 465  : 	virtual void SetPayRoomCardMode(byte cbPayMode, LONG lPayRoomCardCount,BYTE cbGameMode){ m_cbPayMode = cbPayMode; m_lPayRoomCardCount = lPayRoomCardCount; m_cbGameMode = cbGameMode; }

  00000	55		 push	 ebp
  00001	8b ec		 mov	 ebp, esp
  00003	83 ec 44	 sub	 esp, 68			; 00000044H
  00006	53		 push	 ebx
  00007	56		 push	 esi
  00008	57		 push	 edi
  00009	89 4d fc	 mov	 DWORD PTR _this$[ebp], ecx
  0000c	8b 45 fc	 mov	 eax, DWORD PTR _this$[ebp]
  0000f	8a 4d 08	 mov	 cl, BYTE PTR _cbPayMode$[ebp]
  00012	88 88 d1 46 00
	00		 mov	 BYTE PTR [eax+18129], cl
  00018	8b 45 fc	 mov	 eax, DWORD PTR _this$[ebp]
  0001b	8b 4d 0c	 mov	 ecx, DWORD PTR _lPayRoomCardCount$[ebp]
  0001e	89 88 d8 46 00
	00		 mov	 DWORD PTR [eax+18136], ecx
  00024	8b 45 fc	 mov	 eax, DWORD PTR _this$[ebp]
  00027	8a 4d 10	 mov	 cl, BYTE PTR _cbGameMode$[ebp]
  0002a	88 88 d0 46 00
	00		 mov	 BYTE PTR [eax+18128], cl
  00030	5f		 pop	 edi
  00031	5e		 pop	 esi
  00032	5b		 pop	 ebx
  00033	8b e5		 mov	 esp, ebp
  00035	5d		 pop	 ebp
  00036	c2 0c 00	 ret	 12			; 0000000cH
?SetPayRoomCardMode@CTableFrame@@UAEXEJE@Z ENDP		; CTableFrame::SetPayRoomCardMode
_TEXT	ENDS
; Function compile flags: /Odtp /ZI
; File g:\网狐\happygamewh\服务端\系统模块\服务器组件\游戏服务器\tableframe.cpp
;	COMDAT ?GetPersonalRoomGUID@CTableFrame@@UAEPADXZ
_TEXT	SEGMENT
_this$ = -4						; size = 4
?GetPersonalRoomGUID@CTableFrame@@UAEPADXZ PROC		; CTableFrame::GetPersonalRoomGUID, COMDAT
; _this$ = ecx

; 4215 : {

  00000	55		 push	 ebp
  00001	8b ec		 mov	 ebp, esp
  00003	83 ec 44	 sub	 esp, 68			; 00000044H
  00006	53		 push	 ebx
  00007	56		 push	 esi
  00008	57		 push	 edi
  00009	89 4d fc	 mov	 DWORD PTR _this$[ebp], ecx

; 4216 : 	return m_szRoomGUID;

  0000c	8b 45 fc	 mov	 eax, DWORD PTR _this$[ebp]
  0000f	05 a8 46 00 00	 add	 eax, 18088		; 000046a8H

; 4217 : }

  00014	5f		 pop	 edi
  00015	5e		 pop	 esi
  00016	5b		 pop	 ebx
  00017	8b e5		 mov	 esp, ebp
  00019	5d		 pop	 ebp
  0001a	c3		 ret	 0
?GetPersonalRoomGUID@CTableFrame@@UAEPADXZ ENDP		; CTableFrame::GetPersonalRoomGUID
_TEXT	ENDS
; Function compile flags: /Odtp /ZI
; File g:\网狐\happygamewh\服务端\系统模块\服务器组件\游戏服务器\tableframe.cpp
;	COMDAT ?SetPersonalRoomGUID@CTableFrame@@UAEXPADH@Z
_TEXT	SEGMENT
_this$ = -4						; size = 4
_szInfo$ = 8						; size = 4
_nLen$ = 12						; size = 4
?SetPersonalRoomGUID@CTableFrame@@UAEXPADH@Z PROC	; CTableFrame::SetPersonalRoomGUID, COMDAT
; _this$ = ecx

; 4209 : {

  00000	55		 push	 ebp
  00001	8b ec		 mov	 ebp, esp
  00003	83 ec 44	 sub	 esp, 68			; 00000044H
  00006	53		 push	 ebx
  00007	56		 push	 esi
  00008	57		 push	 edi
  00009	89 4d fc	 mov	 DWORD PTR _this$[ebp], ecx

; 4210 : 	lstrcpyn(m_szRoomGUID,  szInfo, nLen);

  0000c	8b 45 0c	 mov	 eax, DWORD PTR _nLen$[ebp]
  0000f	50		 push	 eax
  00010	8b 4d 08	 mov	 ecx, DWORD PTR _szInfo$[ebp]
  00013	51		 push	 ecx
  00014	8b 55 fc	 mov	 edx, DWORD PTR _this$[ebp]
  00017	81 c2 a8 46 00
	00		 add	 edx, 18088		; 000046a8H
  0001d	52		 push	 edx
  0001e	ff 15 00 00 00
	00		 call	 DWORD PTR __imp__lstrcpynA@12

; 4211 : }

  00024	5f		 pop	 edi
  00025	5e		 pop	 esi
  00026	5b		 pop	 ebx
  00027	8b e5		 mov	 esp, ebp
  00029	5d		 pop	 ebp
  0002a	c2 08 00	 ret	 8
?SetPersonalRoomGUID@CTableFrame@@UAEXPADH@Z ENDP	; CTableFrame::SetPersonalRoomGUID
_TEXT	ENDS
; Function compile flags: /Odtp /ZI
; File g:\网狐\happygamewh\服务端\系统模块\服务器组件\游戏服务器\tableframe.cpp
;	COMDAT ?GetDataBaseMode@CTableFrame@@UAEEXZ
_TEXT	SEGMENT
_this$ = -4						; size = 4
?GetDataBaseMode@CTableFrame@@UAEEXZ PROC		; CTableFrame::GetDataBaseMode, COMDAT
; _this$ = ecx

; 4180 : {

  00000	55		 push	 ebp
  00001	8b ec		 mov	 ebp, esp
  00003	83 ec 44	 sub	 esp, 68			; 00000044H
  00006	53		 push	 ebx
  00007	56		 push	 esi
  00008	57		 push	 edi
  00009	89 4d fc	 mov	 DWORD PTR _this$[ebp], ecx

; 4181 : 	return m_cbDataBaseMode;

  0000c	8b 45 fc	 mov	 eax, DWORD PTR _this$[ebp]
  0000f	8a 80 1c 4a 00
	00		 mov	 al, BYTE PTR [eax+18972]

; 4182 : }

  00015	5f		 pop	 edi
  00016	5e		 pop	 esi
  00017	5b		 pop	 ebx
  00018	8b e5		 mov	 esp, ebp
  0001a	5d		 pop	 ebp
  0001b	c3		 ret	 0
?GetDataBaseMode@CTableFrame@@UAEEXZ ENDP		; CTableFrame::GetDataBaseMode
_TEXT	ENDS
; Function compile flags: /Odtp /ZI
; File g:\网狐\happygamewh\服务端\系统模块\服务器组件\游戏服务器\tableframe.cpp
;	COMDAT ?SetDataBaseMode@CTableFrame@@UAEXE@Z
_TEXT	SEGMENT
_this$ = -4						; size = 4
_cbDataBaseMode$ = 8					; size = 1
?SetDataBaseMode@CTableFrame@@UAEXE@Z PROC		; CTableFrame::SetDataBaseMode, COMDAT
; _this$ = ecx

; 4174 : {

  00000	55		 push	 ebp
  00001	8b ec		 mov	 ebp, esp
  00003	83 ec 44	 sub	 esp, 68			; 00000044H
  00006	53		 push	 ebx
  00007	56		 push	 esi
  00008	57		 push	 edi
  00009	89 4d fc	 mov	 DWORD PTR _this$[ebp], ecx

; 4175 : 		m_cbDataBaseMode = cbDataBaseMode;

  0000c	8b 45 fc	 mov	 eax, DWORD PTR _this$[ebp]
  0000f	8a 4d 08	 mov	 cl, BYTE PTR _cbDataBaseMode$[ebp]
  00012	88 88 1c 4a 00
	00		 mov	 BYTE PTR [eax+18972], cl

; 4176 : }

  00018	5f		 pop	 edi
  00019	5e		 pop	 esi
  0001a	5b		 pop	 ebx
  0001b	8b e5		 mov	 esp, ebp
  0001d	5d		 pop	 ebp
  0001e	c2 04 00	 ret	 4
?SetDataBaseMode@CTableFrame@@UAEXE@Z ENDP		; CTableFrame::SetDataBaseMode
_TEXT	ENDS
; Function compile flags: /Odtp /ZI
; File g:\网狐\happygamewh\服务端\系统模块\服务器组件\游戏服务器\tableframe.cpp
;	COMDAT ?IsPersonalRoomDisumme@CTableFrame@@UAE_NXZ
_TEXT	SEGMENT
_this$ = -4						; size = 4
?IsPersonalRoomDisumme@CTableFrame@@UAE_NXZ PROC	; CTableFrame::IsPersonalRoomDisumme, COMDAT
; _this$ = ecx

; 4168 : {

  00000	55		 push	 ebp
  00001	8b ec		 mov	 ebp, esp
  00003	83 ec 44	 sub	 esp, 68			; 00000044H
  00006	53		 push	 ebx
  00007	56		 push	 esi
  00008	57		 push	 edi
  00009	89 4d fc	 mov	 DWORD PTR _this$[ebp], ecx

; 4169 : 	return m_bIsDissumGame;

  0000c	8b 45 fc	 mov	 eax, DWORD PTR _this$[ebp]
  0000f	8a 80 34 11 00
	00		 mov	 al, BYTE PTR [eax+4404]

; 4170 : }

  00015	5f		 pop	 edi
  00016	5e		 pop	 esi
  00017	5b		 pop	 ebx
  00018	8b e5		 mov	 esp, ebp
  0001a	5d		 pop	 ebp
  0001b	c3		 ret	 0
?IsPersonalRoomDisumme@CTableFrame@@UAE_NXZ ENDP	; CTableFrame::IsPersonalRoomDisumme
_TEXT	ENDS
; Function compile flags: /Odtp /ZI
; File g:\网狐\happygamewh\服务端\系统模块\服务器组件\游戏服务器\tableframe.cpp
;	COMDAT ?SetTableChairCount@CTableFrame@@UAEXG@Z
_TEXT	SEGMENT
_this$ = -4						; size = 4
_wChairCount$ = 8					; size = 2
?SetTableChairCount@CTableFrame@@UAEXG@Z PROC		; CTableFrame::SetTableChairCount, COMDAT
; _this$ = ecx

; 3971 : {

  00000	55		 push	 ebp
  00001	8b ec		 mov	 ebp, esp
  00003	83 ec 44	 sub	 esp, 68			; 00000044H
  00006	53		 push	 ebx
  00007	56		 push	 esi
  00008	57		 push	 edi
  00009	89 4d fc	 mov	 DWORD PTR _this$[ebp], ecx

; 3972 : 	m_wChairCount = wChairCount;

  0000c	8b 45 fc	 mov	 eax, DWORD PTR _this$[ebp]
  0000f	66 8b 4d 08	 mov	 cx, WORD PTR _wChairCount$[ebp]
  00013	66 89 48 0a	 mov	 WORD PTR [eax+10], cx

; 3973 : 	m_pGameServiceAttrib->wChairCount = wChairCount;

  00017	8b 45 fc	 mov	 eax, DWORD PTR _this$[ebp]
  0001a	8b 88 ec 0f 00
	00		 mov	 ecx, DWORD PTR [eax+4076]
  00020	66 8b 55 08	 mov	 dx, WORD PTR _wChairCount$[ebp]
  00024	66 89 51 02	 mov	 WORD PTR [ecx+2], dx

; 3974 : 	m_PersonalTableParameter.wJoinGamePeopleCount = wChairCount;

  00028	8b 45 fc	 mov	 eax, DWORD PTR _this$[ebp]
  0002b	66 8b 4d 08	 mov	 cx, WORD PTR _wChairCount$[ebp]
  0002f	66 89 88 75 44
	00 00		 mov	 WORD PTR [eax+17525], cx

; 3975 : }

  00036	5f		 pop	 edi
  00037	5e		 pop	 esi
  00038	5b		 pop	 ebx
  00039	8b e5		 mov	 esp, ebp
  0003b	5d		 pop	 ebp
  0003c	c2 04 00	 ret	 4
?SetTableChairCount@CTableFrame@@UAEXG@Z ENDP		; CTableFrame::SetTableChairCount
_TEXT	ENDS
; Function compile flags: /Odtp /ZI
; File g:\网狐\happygamewh\服务端\系统模块\服务器组件\游戏服务器\tableframe.cpp
;	COMDAT ?GetSpeicalInfo@CTableFrame@@UAEXPAEH@Z
_TEXT	SEGMENT
_this$ = -4						; size = 4
_cbSpecialInfo$ = 8					; size = 4
_nSpecialLen$ = 12					; size = 4
?GetSpeicalInfo@CTableFrame@@UAEXPAEH@Z PROC		; CTableFrame::GetSpeicalInfo, COMDAT
; _this$ = ecx

; 4156 : {

  00000	55		 push	 ebp
  00001	8b ec		 mov	 ebp, esp
  00003	83 ec 44	 sub	 esp, 68			; 00000044H
  00006	53		 push	 ebx
  00007	56		 push	 esi
  00008	57		 push	 edi
  00009	89 4d fc	 mov	 DWORD PTR _this$[ebp], ecx

; 4157 : 	memcpy(m_cbSpecialInfo, cbSpecialInfo, nSpecialLen);

  0000c	8b 45 0c	 mov	 eax, DWORD PTR _nSpecialLen$[ebp]
  0000f	50		 push	 eax
  00010	8b 4d 08	 mov	 ecx, DWORD PTR _cbSpecialInfo$[ebp]
  00013	51		 push	 ecx
  00014	8b 55 fc	 mov	 edx, DWORD PTR _this$[ebp]
  00017	81 c2 7d 40 00
	00		 add	 edx, 16509		; 0000407dH
  0001d	52		 push	 edx
  0001e	e8 00 00 00 00	 call	 _memcpy
  00023	83 c4 0c	 add	 esp, 12			; 0000000cH

; 4158 : 	m_nSpecialInfoLen = nSpecialLen;

  00026	8b 45 fc	 mov	 eax, DWORD PTR _this$[ebp]
  00029	8b 4d 0c	 mov	 ecx, DWORD PTR _nSpecialLen$[ebp]
  0002c	89 88 68 44 00
	00		 mov	 DWORD PTR [eax+17512], ecx

; 4159 : }

  00032	5f		 pop	 edi
  00033	5e		 pop	 esi
  00034	5b		 pop	 ebx
  00035	8b e5		 mov	 esp, ebp
  00037	5d		 pop	 ebp
  00038	c2 08 00	 ret	 8
?GetSpeicalInfo@CTableFrame@@UAEXPAEH@Z ENDP		; CTableFrame::GetSpeicalInfo
_TEXT	ENDS
; Function compile flags: /Odtp /ZI
; File g:\网狐\happygamewh\服务端\系统模块\服务器组件\游戏服务器\tableframe.cpp
;	COMDAT ?GetGameRule@CTableFrame@@UAEPAEXZ
_TEXT	SEGMENT
_this$ = -4						; size = 4
?GetGameRule@CTableFrame@@UAEPAEXZ PROC			; CTableFrame::GetGameRule, COMDAT
; _this$ = ecx

; 4150 : {

  00000	55		 push	 ebp
  00001	8b ec		 mov	 ebp, esp
  00003	83 ec 44	 sub	 esp, 68			; 00000044H
  00006	53		 push	 ebx
  00007	56		 push	 esi
  00008	57		 push	 edi
  00009	89 4d fc	 mov	 DWORD PTR _this$[ebp], ecx

; 4151 : 	return m_cbGanmeRule;

  0000c	8b 45 fc	 mov	 eax, DWORD PTR _this$[ebp]
  0000f	05 35 11 00 00	 add	 eax, 4405		; 00001135H

; 4152 : }

  00014	5f		 pop	 edi
  00015	5e		 pop	 esi
  00016	5b		 pop	 ebx
  00017	8b e5		 mov	 esp, ebp
  00019	5d		 pop	 ebp
  0001a	c3		 ret	 0
?GetGameRule@CTableFrame@@UAEPAEXZ ENDP			; CTableFrame::GetGameRule
_TEXT	ENDS
; Function compile flags: /Odtp /ZI
; File g:\网狐\happygamewh\服务端\系统模块\服务器组件\游戏服务器\tableframe.cpp
;	COMDAT ?SetGameRule@CTableFrame@@UAEXPAEH@Z
_TEXT	SEGMENT
_this$ = -4						; size = 4
_cbRule$ = 8						; size = 4
_nLen$ = 12						; size = 4
?SetGameRule@CTableFrame@@UAEXPAEH@Z PROC		; CTableFrame::SetGameRule, COMDAT
; _this$ = ecx

; 4144 : {

  00000	55		 push	 ebp
  00001	8b ec		 mov	 ebp, esp
  00003	83 ec 44	 sub	 esp, 68			; 00000044H
  00006	53		 push	 ebx
  00007	56		 push	 esi
  00008	57		 push	 edi
  00009	89 4d fc	 mov	 DWORD PTR _this$[ebp], ecx

; 4145 : 	memcpy(m_cbGanmeRule,  cbRule, sizeof(m_cbGanmeRule));

  0000c	6a 64		 push	 100			; 00000064H
  0000e	8b 45 08	 mov	 eax, DWORD PTR _cbRule$[ebp]
  00011	50		 push	 eax
  00012	8b 4d fc	 mov	 ecx, DWORD PTR _this$[ebp]
  00015	81 c1 35 11 00
	00		 add	 ecx, 4405		; 00001135H
  0001b	51		 push	 ecx
  0001c	e8 00 00 00 00	 call	 _memcpy
  00021	83 c4 0c	 add	 esp, 12			; 0000000cH

; 4146 : }

  00024	5f		 pop	 edi
  00025	5e		 pop	 esi
  00026	5b		 pop	 ebx
  00027	8b e5		 mov	 esp, ebp
  00029	5d		 pop	 ebp
  0002a	c2 08 00	 ret	 8
?SetGameRule@CTableFrame@@UAEXPAEH@Z ENDP		; CTableFrame::SetGameRule
_TEXT	ENDS
; Function compile flags: /Odtp /ZI
; File g:\网狐\happygamewh\服务端\系统模块\服务器组件\游戏服务器\tableframe.cpp
;	COMDAT ?GetPersonalRoomID@CTableFrame@@UAEKXZ
_TEXT	SEGMENT
_this$ = -4						; size = 4
?GetPersonalRoomID@CTableFrame@@UAEKXZ PROC		; CTableFrame::GetPersonalRoomID, COMDAT
; _this$ = ecx

; 4204 : {

  00000	55		 push	 ebp
  00001	8b ec		 mov	 ebp, esp
  00003	83 ec 44	 sub	 esp, 68			; 00000044H
  00006	53		 push	 ebx
  00007	56		 push	 esi
  00008	57		 push	 edi
  00009	89 4d fc	 mov	 DWORD PTR _this$[ebp], ecx

; 4205 : 	return m_dwPersonalRoomID;

  0000c	8b 45 fc	 mov	 eax, DWORD PTR _this$[ebp]
  0000f	8b 80 30 11 00
	00		 mov	 eax, DWORD PTR [eax+4400]

; 4206 : }

  00015	5f		 pop	 edi
  00016	5e		 pop	 esi
  00017	5b		 pop	 ebx
  00018	8b e5		 mov	 esp, ebp
  0001a	5d		 pop	 ebp
  0001b	c3		 ret	 0
?GetPersonalRoomID@CTableFrame@@UAEKXZ ENDP		; CTableFrame::GetPersonalRoomID
_TEXT	ENDS
; Function compile flags: /Odtp /ZI
; File g:\网狐\happygamewh\服务端\系统模块\服务器组件\游戏服务器\tableframe.cpp
;	COMDAT ?HostDissumeGame@CTableFrame@@UAEXH@Z
_TEXT	SEGMENT
_CancelTable$1 = -3180					; size = 132
_pUserItem$2 = -3048					; size = 4
_i$3 = -3044						; size = 4
_wDataSize$ = -3040					; size = 2
_szInfo$ = -3036					; size = 260
_i$4 = -2776						; size = 4
_PersonalTableEnd$ = -2772				; size = 2764
_this$ = -8						; size = 4
__$ArrayPad$ = -4					; size = 4
_bIsEnforce$ = 8					; size = 4
?HostDissumeGame@CTableFrame@@UAEXH@Z PROC		; CTableFrame::HostDissumeGame, COMDAT
; _this$ = ecx

; 4048 : {

  00000	55		 push	 ebp
  00001	8b ec		 mov	 ebp, esp
  00003	81 ec 2c 0e 00
	00		 sub	 esp, 3628		; 00000e2cH
  00009	a1 00 00 00 00	 mov	 eax, DWORD PTR ___security_cookie
  0000e	33 c5		 xor	 eax, ebp
  00010	89 45 fc	 mov	 DWORD PTR __$ArrayPad$[ebp], eax
  00013	53		 push	 ebx
  00014	56		 push	 esi
  00015	57		 push	 edi
  00016	89 4d f8	 mov	 DWORD PTR _this$[ebp], ecx

; 4049 : 	m_bIsDissumGame = true;

  00019	8b 45 f8	 mov	 eax, DWORD PTR _this$[ebp]
  0001c	c6 80 34 11 00
	00 01		 mov	 BYTE PTR [eax+4404], 1

; 4050 : 	if(m_bGameStarted == true)

  00023	8b 45 f8	 mov	 eax, DWORD PTR _this$[ebp]
  00026	0f b6 48 10	 movzx	 ecx, BYTE PTR [eax+16]
  0002a	83 f9 01	 cmp	 ecx, 1
  0002d	75 0d		 jne	 SHORT $LN8@HostDissum

; 4051 : 	{
; 4052 : 		//解散游戏
; 4053 : 		DismissGame();

  0002f	8b 45 f8	 mov	 eax, DWORD PTR _this$[ebp]
  00032	8b 10		 mov	 edx, DWORD PTR [eax]
  00034	8b 4d f8	 mov	 ecx, DWORD PTR _this$[ebp]
  00037	8b 42 78	 mov	 eax, DWORD PTR [edx+120]
  0003a	ff d0		 call	 eax
$LN8@HostDissum:

; 4054 : 	}
; 4055 : 	GetLocalTime(&m_sysEndTime);

  0003c	8b 45 f8	 mov	 eax, DWORD PTR _this$[ebp]
  0003f	05 ec 46 00 00	 add	 eax, 18156		; 000046ecH
  00044	50		 push	 eax
  00045	ff 15 00 00 00
	00		 call	 DWORD PTR __imp__GetLocalTime@4

; 4056 : 	//结束消息
; 4057 : 	CMD_GR_PersonalTableEnd PersonalTableEnd;
; 4058 : 	ZeroMemory(&PersonalTableEnd, sizeof(CMD_GR_PersonalTableEnd));

  0004b	68 cc 0a 00 00	 push	 2764			; 00000accH
  00050	6a 00		 push	 0
  00052	8d 85 2c f5 ff
	ff		 lea	 eax, DWORD PTR _PersonalTableEnd$[ebp]
  00058	50		 push	 eax
  00059	e8 00 00 00 00	 call	 _memset
  0005e	83 c4 0c	 add	 esp, 12			; 0000000cH

; 4059 : 	lstrcpyn(PersonalTableEnd.szDescribeString, TEXT("约战结束。"), CountArray(PersonalTableEnd.szDescribeString));

  00061	68 80 00 00 00	 push	 128			; 00000080H
  00066	68 00 00 00 00	 push	 OFFSET ??_C@_0L@INAKIJJF@?T?$LM?U?$LN?$LN?a?J?x?$KB?$KD@
  0006b	8d 85 2c f5 ff
	ff		 lea	 eax, DWORD PTR _PersonalTableEnd$[ebp]
  00071	50		 push	 eax
  00072	ff 15 00 00 00
	00		 call	 DWORD PTR __imp__lstrcpynA@12

; 4060 : 	for(int i = 0; i < m_wChairCount; ++i)

  00078	c7 85 28 f5 ff
	ff 00 00 00 00	 mov	 DWORD PTR _i$4[ebp], 0
  00082	eb 0f		 jmp	 SHORT $LN4@HostDissum
$LN2@HostDissum:
  00084	8b 85 28 f5 ff
	ff		 mov	 eax, DWORD PTR _i$4[ebp]
  0008a	83 c0 01	 add	 eax, 1
  0008d	89 85 28 f5 ff
	ff		 mov	 DWORD PTR _i$4[ebp], eax
$LN4@HostDissum:
  00093	8b 45 f8	 mov	 eax, DWORD PTR _this$[ebp]
  00096	0f b7 48 0a	 movzx	 ecx, WORD PTR [eax+10]
  0009a	39 8d 28 f5 ff
	ff		 cmp	 DWORD PTR _i$4[ebp], ecx
  000a0	7d 2e		 jge	 SHORT $LN3@HostDissum

; 4061 : 	{
; 4062 : 		//IServerUserItem* pUserItem = m_TableUserItemArray[i];
; 4063 : 		//if(pUserItem == NULL) continue;
; 4064 : 		//PersonalTableEnd.lScore[i] = pUserItem->GetUserScore();
; 4065 : 		PersonalTableEnd.lScore[i] = m_PersonalUserScoreInfo[i].lScore;

  000a2	6b 85 28 f5 ff
	ff 3c		 imul	 eax, DWORD PTR _i$4[ebp], 60
  000a9	8b 8d 28 f5 ff
	ff		 mov	 ecx, DWORD PTR _i$4[ebp]
  000af	8b 55 f8	 mov	 edx, DWORD PTR _this$[ebp]
  000b2	8b b4 02 c1 11
	00 00		 mov	 esi, DWORD PTR [edx+eax+4545]
  000b9	89 b4 cd ac f5
	ff ff		 mov	 DWORD PTR _PersonalTableEnd$[ebp+ecx*8+128], esi
  000c0	8b 84 02 c5 11
	00 00		 mov	 eax, DWORD PTR [edx+eax+4549]
  000c7	89 84 cd b0 f5
	ff ff		 mov	 DWORD PTR _PersonalTableEnd$[ebp+ecx*8+132], eax

; 4066 : 
; 4067 : 	}

  000ce	eb b4		 jmp	 SHORT $LN2@HostDissum
$LN3@HostDissum:

; 4068 : 	PersonalTableEnd.sysStartTime = m_sysStartTime;

  000d0	8b 45 f8	 mov	 eax, DWORD PTR _this$[ebp]
  000d3	05 dc 46 00 00	 add	 eax, 18140		; 000046dcH
  000d8	8b 08		 mov	 ecx, DWORD PTR [eax]
  000da	89 8d ec fb ff
	ff		 mov	 DWORD PTR _PersonalTableEnd$[ebp+1728], ecx
  000e0	8b 50 04	 mov	 edx, DWORD PTR [eax+4]
  000e3	89 95 f0 fb ff
	ff		 mov	 DWORD PTR _PersonalTableEnd$[ebp+1732], edx
  000e9	8b 48 08	 mov	 ecx, DWORD PTR [eax+8]
  000ec	89 8d f4 fb ff
	ff		 mov	 DWORD PTR _PersonalTableEnd$[ebp+1736], ecx
  000f2	8b 50 0c	 mov	 edx, DWORD PTR [eax+12]
  000f5	89 95 f8 fb ff
	ff		 mov	 DWORD PTR _PersonalTableEnd$[ebp+1740], edx

; 4069 : 	PersonalTableEnd.sysEndTime = m_sysEndTime;

  000fb	8b 45 f8	 mov	 eax, DWORD PTR _this$[ebp]
  000fe	05 ec 46 00 00	 add	 eax, 18156		; 000046ecH
  00103	8b 08		 mov	 ecx, DWORD PTR [eax]
  00105	89 8d fc fb ff
	ff		 mov	 DWORD PTR _PersonalTableEnd$[ebp+1744], ecx
  0010b	8b 50 04	 mov	 edx, DWORD PTR [eax+4]
  0010e	89 95 00 fc ff
	ff		 mov	 DWORD PTR _PersonalTableEnd$[ebp+1748], edx
  00114	8b 48 08	 mov	 ecx, DWORD PTR [eax+8]
  00117	89 8d 04 fc ff
	ff		 mov	 DWORD PTR _PersonalTableEnd$[ebp+1752], ecx
  0011d	8b 50 0c	 mov	 edx, DWORD PTR [eax+12]
  00120	89 95 08 fc ff
	ff		 mov	 DWORD PTR _PersonalTableEnd$[ebp+1756], edx

; 4070 : 
; 4071 : 	//添加特殊信息
; 4072 : 	memcpy( PersonalTableEnd.cbSpecialInfo, m_cbSpecialInfo, m_nSpecialInfoLen);

  00126	8b 45 f8	 mov	 eax, DWORD PTR _this$[ebp]
  00129	8b 88 68 44 00
	00		 mov	 ecx, DWORD PTR [eax+17512]
  0012f	51		 push	 ecx
  00130	8b 55 f8	 mov	 edx, DWORD PTR _this$[ebp]
  00133	81 c2 7d 40 00
	00		 add	 edx, 16509		; 0000407dH
  00139	52		 push	 edx
  0013a	8d 85 10 fc ff
	ff		 lea	 eax, DWORD PTR _PersonalTableEnd$[ebp+1764]
  00140	50		 push	 eax
  00141	e8 00 00 00 00	 call	 _memcpy
  00146	83 c4 0c	 add	 esp, 12			; 0000000cH

; 4073 : 	PersonalTableEnd.nSpecialInfoLen = m_nSpecialInfoLen;

  00149	8b 45 f8	 mov	 eax, DWORD PTR _this$[ebp]
  0014c	8b 88 68 44 00
	00		 mov	 ecx, DWORD PTR [eax+17512]
  00152	89 8d 0c fc ff
	ff		 mov	 DWORD PTR _PersonalTableEnd$[ebp+1760], ecx

; 4074 : 	TCHAR szInfo[260] = {0};

  00158	68 04 01 00 00	 push	 260			; 00000104H
  0015d	6a 00		 push	 0
  0015f	8d 85 24 f4 ff
	ff		 lea	 eax, DWORD PTR _szInfo$[ebp]
  00165	50		 push	 eax
  00166	e8 00 00 00 00	 call	 _memset
  0016b	83 c4 0c	 add	 esp, 12			; 0000000cH

; 4075 : 
; 4076 : 
; 4077 : 	WORD wDataSize = sizeof(CMD_GR_PersonalTableEnd) - sizeof(PersonalTableEnd.lScore) + sizeof(LONGLONG) * m_wChairCount;

  0016e	8b 45 f8	 mov	 eax, DWORD PTR _this$[ebp]
  00171	0f b7 48 0a	 movzx	 ecx, WORD PTR [eax+10]
  00175	8d 14 cd 8c 04
	00 00		 lea	 edx, DWORD PTR [ecx*8+1164]
  0017c	66 89 95 20 f4
	ff ff		 mov	 WORD PTR _wDataSize$[ebp], dx

; 4078 : 	for(int i = 0; i < m_wChairCount; ++i)

  00183	c7 85 1c f4 ff
	ff 00 00 00 00	 mov	 DWORD PTR _i$3[ebp], 0
  0018d	eb 0f		 jmp	 SHORT $LN7@HostDissum
$LN5@HostDissum:
  0018f	8b 85 1c f4 ff
	ff		 mov	 eax, DWORD PTR _i$3[ebp]
  00195	83 c0 01	 add	 eax, 1
  00198	89 85 1c f4 ff
	ff		 mov	 DWORD PTR _i$3[ebp], eax
$LN7@HostDissum:
  0019e	8b 45 f8	 mov	 eax, DWORD PTR _this$[ebp]
  001a1	0f b7 48 0a	 movzx	 ecx, WORD PTR [eax+10]
  001a5	39 8d 1c f4 ff
	ff		 cmp	 DWORD PTR _i$3[ebp], ecx
  001ab	0f 8d 33 01 00
	00		 jge	 $LN6@HostDissum

; 4079 : 	{
; 4080 : 		IServerUserItem* pUserItem = m_TableUserItemArray[i];

  001b1	8b 85 1c f4 ff
	ff		 mov	 eax, DWORD PTR _i$3[ebp]
  001b7	8b 4d f8	 mov	 ecx, DWORD PTR _this$[ebp]
  001ba	8b 94 81 90 0c
	00 00		 mov	 edx, DWORD PTR [ecx+eax*4+3216]
  001c1	89 95 18 f4 ff
	ff		 mov	 DWORD PTR _pUserItem$2[ebp], edx

; 4081 : 		if(pUserItem == NULL ) 

  001c7	83 bd 18 f4 ff
	ff 00		 cmp	 DWORD PTR _pUserItem$2[ebp], 0
  001ce	75 02		 jne	 SHORT $LN9@HostDissum

; 4082 : 		{
; 4083 : 			continue;

  001d0	eb bd		 jmp	 SHORT $LN5@HostDissum
$LN9@HostDissum:

; 4084 : 		}
; 4085 : 		
; 4086 : 		if (m_dwPersonalPlayCount != 0)

  001d2	8b 45 f8	 mov	 eax, DWORD PTR _this$[ebp]
  001d5	83 b8 20 10 00
	00 00		 cmp	 DWORD PTR [eax+4128], 0
  001dc	74 33		 je	 SHORT $LN10@HostDissum

; 4087 : 		{
; 4088 : 			//约战结果
; 4089 : 			m_pIMainServiceFrame->SendData(pUserItem, MDM_GR_PERSONAL_TABLE, SUB_GR_PERSONAL_TABLE_END, &PersonalTableEnd, sizeof(CMD_GR_PersonalTableEnd));

  001de	68 cc 0a 00 00	 push	 2764			; 00000accH
  001e3	8d 85 2c f5 ff
	ff		 lea	 eax, DWORD PTR _PersonalTableEnd$[ebp]
  001e9	50		 push	 eax
  001ea	6a 0a		 push	 10			; 0000000aH
  001ec	68 d2 00 00 00	 push	 210			; 000000d2H
  001f1	8b 8d 18 f4 ff
	ff		 mov	 ecx, DWORD PTR _pUserItem$2[ebp]
  001f7	51		 push	 ecx
  001f8	8b 55 f8	 mov	 edx, DWORD PTR _this$[ebp]
  001fb	8b 82 cc 0f 00
	00		 mov	 eax, DWORD PTR [edx+4044]
  00201	8b 4d f8	 mov	 ecx, DWORD PTR _this$[ebp]
  00204	8b 10		 mov	 edx, DWORD PTR [eax]
  00206	8b 89 cc 0f 00
	00		 mov	 ecx, DWORD PTR [ecx+4044]
  0020c	8b 42 1c	 mov	 eax, DWORD PTR [edx+28]
  0020f	ff d0		 call	 eax
$LN10@HostDissum:

; 4090 : 		}
; 4091 : 
; 4092 : 
; 4093 : 		//构造数据
; 4094 : 		CMD_GR_CancelTable CancelTable;
; 4095 : 		ZeroMemory(&CancelTable, sizeof(CMD_GR_CancelTable));

  00211	68 84 00 00 00	 push	 132			; 00000084H
  00216	6a 00		 push	 0
  00218	8d 85 94 f3 ff
	ff		 lea	 eax, DWORD PTR _CancelTable$1[ebp]
  0021e	50		 push	 eax
  0021f	e8 00 00 00 00	 call	 _memset
  00224	83 c4 0c	 add	 esp, 12			; 0000000cH

; 4096 : 		CancelTable.dwReason = CANCELTABLE_REASON_SYSTEM;

  00227	c7 85 94 f3 ff
	ff 01 00 00 00	 mov	 DWORD PTR _CancelTable$1[ebp], 1

; 4097 : 		if (bIsEnforce)

  00231	83 7d 08 00	 cmp	 DWORD PTR _bIsEnforce$[ebp], 0
  00235	74 23		 je	 SHORT $LN11@HostDissum

; 4098 : 		{
; 4099 : 			CancelTable.dwReason = CANCELTABLE_REASON_ENFOCE;

  00237	c7 85 94 f3 ff
	ff 02 00 00 00	 mov	 DWORD PTR _CancelTable$1[ebp], 2

; 4100 : 			lstrcpyn(CancelTable.szDescribeString, TEXT("房主强制解散游戏！"), CountArray(CancelTable.szDescribeString));

  00241	68 80 00 00 00	 push	 128			; 00000080H
  00246	68 00 00 00 00	 push	 OFFSET ??_C@_0BD@HIPNDJBM@?$LH?$LP?V?w?G?$LP?V?F?$LN?b?I?$KC?S?N?O?$LH?$KD?$KB@
  0024b	8d 85 98 f3 ff
	ff		 lea	 eax, DWORD PTR _CancelTable$1[ebp+4]
  00251	50		 push	 eax
  00252	ff 15 00 00 00
	00		 call	 DWORD PTR __imp__lstrcpynA@12

; 4101 : 		}
; 4102 : 		else

  00258	eb 17		 jmp	 SHORT $LN12@HostDissum
$LN11@HostDissum:

; 4103 : 		{
; 4104 : 			lstrcpyn(CancelTable.szDescribeString, TEXT("游戏自动解散！"), CountArray(CancelTable.szDescribeString));

  0025a	68 80 00 00 00	 push	 128			; 00000080H
  0025f	68 00 00 00 00	 push	 OFFSET ??_C@_0P@IHBJCBPJ@?S?N?O?$LH?W?T?$LG?$KP?$LN?b?I?$KC?$KD?$KB@
  00264	8d 85 98 f3 ff
	ff		 lea	 eax, DWORD PTR _CancelTable$1[ebp+4]
  0026a	50		 push	 eax
  0026b	ff 15 00 00 00
	00		 call	 DWORD PTR __imp__lstrcpynA@12
$LN12@HostDissum:

; 4105 : 		}
; 4106 : 
; 4107 : 
; 4108 : 		//解散消息
; 4109 : 		m_pIMainServiceFrame->SendData(pUserItem, MDM_GR_PERSONAL_TABLE, SUB_GR_CANCEL_TABLE, &CancelTable, sizeof(CMD_GR_CancelTable));

  00271	68 84 00 00 00	 push	 132			; 00000084H
  00276	8d 85 94 f3 ff
	ff		 lea	 eax, DWORD PTR _CancelTable$1[ebp]
  0027c	50		 push	 eax
  0027d	6a 04		 push	 4
  0027f	68 d2 00 00 00	 push	 210			; 000000d2H
  00284	8b 8d 18 f4 ff
	ff		 mov	 ecx, DWORD PTR _pUserItem$2[ebp]
  0028a	51		 push	 ecx
  0028b	8b 55 f8	 mov	 edx, DWORD PTR _this$[ebp]
  0028e	8b 82 cc 0f 00
	00		 mov	 eax, DWORD PTR [edx+4044]
  00294	8b 4d f8	 mov	 ecx, DWORD PTR _this$[ebp]
  00297	8b 10		 mov	 edx, DWORD PTR [eax]
  00299	8b 89 cc 0f 00
	00		 mov	 ecx, DWORD PTR [ecx+4044]
  0029f	8b 42 1c	 mov	 eax, DWORD PTR [edx+28]
  002a2	ff d0		 call	 eax

; 4110 : 
; 4111 : 		//用户状态
; 4112 : 		PerformStandUpAction(pUserItem);

  002a4	6a 00		 push	 0
  002a6	8b 85 18 f4 ff
	ff		 mov	 eax, DWORD PTR _pUserItem$2[ebp]
  002ac	50		 push	 eax
  002ad	8b 4d f8	 mov	 ecx, DWORD PTR _this$[ebp]
  002b0	8b 11		 mov	 edx, DWORD PTR [ecx]
  002b2	8b 4d f8	 mov	 ecx, DWORD PTR _this$[ebp]
  002b5	8b 82 d8 00 00
	00		 mov	 eax, DWORD PTR [edx+216]
  002bb	ff d0		 call	 eax

; 4113 : 		pUserItem->SetUserStatus(US_FREE, INVALID_TABLE, INVALID_CHAIR);

  002bd	68 ff ff 00 00	 push	 65535			; 0000ffffH
  002c2	68 ff ff 00 00	 push	 65535			; 0000ffffH
  002c7	6a 01		 push	 1
  002c9	8b 85 18 f4 ff
	ff		 mov	 eax, DWORD PTR _pUserItem$2[ebp]
  002cf	8b 10		 mov	 edx, DWORD PTR [eax]
  002d1	8b 8d 18 f4 ff
	ff		 mov	 ecx, DWORD PTR _pUserItem$2[ebp]
  002d7	8b 82 fc 00 00
	00		 mov	 eax, DWORD PTR [edx+252]
  002dd	ff d0		 call	 eax

; 4114 : 	}

  002df	e9 ab fe ff ff	 jmp	 $LN5@HostDissum
$LN6@HostDissum:

; 4115 : 
; 4116 : 	if(!bIsEnforce)

  002e4	83 7d 08 00	 cmp	 DWORD PTR _bIsEnforce$[ebp], 0
  002e8	0f 85 a4 00 00
	00		 jne	 $LN13@HostDissum

; 4117 : 	{
; 4118 : 		if (m_dwPersonalPlayCount == 0 )

  002ee	8b 45 f8	 mov	 eax, DWORD PTR _this$[ebp]
  002f1	83 b8 20 10 00
	00 00		 cmp	 DWORD PTR [eax+4128], 0
  002f8	75 4d		 jne	 SHORT $LN14@HostDissum

; 4119 : 		{
; 4120 : 			m_pIMainServiceFrame->CancelCreateTable(m_dwTableOwnerID, m_dwDrawCountLimit, m_dwDrawTimeLimit, CANCELTABLE_REASON_ENFOCE, m_wTableID, m_dwPersonalRoomID);//CANCELTABLE_REASON_ENFOCE

  002fa	8b 45 f8	 mov	 eax, DWORD PTR _this$[ebp]
  002fd	8b 88 30 11 00
	00		 mov	 ecx, DWORD PTR [eax+4400]
  00303	51		 push	 ecx
  00304	8b 55 f8	 mov	 edx, DWORD PTR _this$[ebp]
  00307	0f b7 42 08	 movzx	 eax, WORD PTR [edx+8]
  0030b	50		 push	 eax
  0030c	6a 02		 push	 2
  0030e	8b 4d f8	 mov	 ecx, DWORD PTR _this$[ebp]
  00311	8b 91 1c 10 00
	00		 mov	 edx, DWORD PTR [ecx+4124]
  00317	52		 push	 edx
  00318	8b 45 f8	 mov	 eax, DWORD PTR _this$[ebp]
  0031b	8b 88 18 10 00
	00		 mov	 ecx, DWORD PTR [eax+4120]
  00321	51		 push	 ecx
  00322	8b 55 f8	 mov	 edx, DWORD PTR _this$[ebp]
  00325	8b 82 40 07 00
	00		 mov	 eax, DWORD PTR [edx+1856]
  0032b	50		 push	 eax
  0032c	8b 4d f8	 mov	 ecx, DWORD PTR _this$[ebp]
  0032f	8b 91 cc 0f 00
	00		 mov	 edx, DWORD PTR [ecx+4044]
  00335	8b 45 f8	 mov	 eax, DWORD PTR _this$[ebp]
  00338	8b 12		 mov	 edx, DWORD PTR [edx]
  0033a	8b 88 cc 0f 00
	00		 mov	 ecx, DWORD PTR [eax+4044]
  00340	8b 42 48	 mov	 eax, DWORD PTR [edx+72]
  00343	ff d0		 call	 eax

; 4121 : 		}
; 4122 : 		else

  00345	eb 4b		 jmp	 SHORT $LN13@HostDissum
$LN14@HostDissum:

; 4123 : 		{
; 4124 : 			m_pIMainServiceFrame->CancelCreateTable(m_dwTableOwnerID, m_dwDrawCountLimit, m_dwDrawTimeLimit, CANCELTABLE_REASON_OVER_TIME, m_wTableID, m_dwPersonalRoomID);

  00347	8b 45 f8	 mov	 eax, DWORD PTR _this$[ebp]
  0034a	8b 88 30 11 00
	00		 mov	 ecx, DWORD PTR [eax+4400]
  00350	51		 push	 ecx
  00351	8b 55 f8	 mov	 edx, DWORD PTR _this$[ebp]
  00354	0f b7 42 08	 movzx	 eax, WORD PTR [edx+8]
  00358	50		 push	 eax
  00359	6a 05		 push	 5
  0035b	8b 4d f8	 mov	 ecx, DWORD PTR _this$[ebp]
  0035e	8b 91 1c 10 00
	00		 mov	 edx, DWORD PTR [ecx+4124]
  00364	52		 push	 edx
  00365	8b 45 f8	 mov	 eax, DWORD PTR _this$[ebp]
  00368	8b 88 18 10 00
	00		 mov	 ecx, DWORD PTR [eax+4120]
  0036e	51		 push	 ecx
  0036f	8b 55 f8	 mov	 edx, DWORD PTR _this$[ebp]
  00372	8b 82 40 07 00
	00		 mov	 eax, DWORD PTR [edx+1856]
  00378	50		 push	 eax
  00379	8b 4d f8	 mov	 ecx, DWORD PTR _this$[ebp]
  0037c	8b 91 cc 0f 00
	00		 mov	 edx, DWORD PTR [ecx+4044]
  00382	8b 45 f8	 mov	 eax, DWORD PTR _this$[ebp]
  00385	8b 12		 mov	 edx, DWORD PTR [edx]
  00387	8b 88 cc 0f 00
	00		 mov	 ecx, DWORD PTR [eax+4044]
  0038d	8b 42 48	 mov	 eax, DWORD PTR [edx+72]
  00390	ff d0		 call	 eax
$LN13@HostDissum:

; 4125 : 		}
; 4126 : 	}
; 4127 : 
; 4128 : 	m_pTableOwnerUser = NULL;

  00392	8b 45 f8	 mov	 eax, DWORD PTR _this$[ebp]
  00395	c7 80 14 10 00
	00 00 00 00 00	 mov	 DWORD PTR [eax+4116], 0

; 4129 : 	m_dwTableOwnerID = 0;

  0039f	8b 45 f8	 mov	 eax, DWORD PTR _this$[ebp]
  003a2	c7 80 40 07 00
	00 00 00 00 00	 mov	 DWORD PTR [eax+1856], 0

; 4130 : 	m_dwDrawCountLimit = 0;

  003ac	8b 45 f8	 mov	 eax, DWORD PTR _this$[ebp]
  003af	c7 80 18 10 00
	00 00 00 00 00	 mov	 DWORD PTR [eax+4120], 0

; 4131 : 	m_dwDrawTimeLimit = 0;

  003b9	8b 45 f8	 mov	 eax, DWORD PTR _this$[ebp]
  003bc	c7 80 1c 10 00
	00 00 00 00 00	 mov	 DWORD PTR [eax+4124], 0

; 4132 : 	m_dwTimeBegin = 0;

  003c6	8b 45 f8	 mov	 eax, DWORD PTR _this$[ebp]
  003c9	c7 80 30 10 00
	00 00 00 00 00	 mov	 DWORD PTR [eax+4144], 0

; 4133 : 	m_dwReplyCount = 0;

  003d3	8b 45 f8	 mov	 eax, DWORD PTR _this$[ebp]
  003d6	c7 80 44 10 00
	00 00 00 00 00	 mov	 DWORD PTR [eax+4164], 0

; 4134 : 	ZeroMemory(m_cbRequestReply,sizeof(m_cbRequestReply));

  003e0	68 c8 00 00 00	 push	 200			; 000000c8H
  003e5	6a 00		 push	 0
  003e7	8b 45 f8	 mov	 eax, DWORD PTR _this$[ebp]
  003ea	05 48 10 00 00	 add	 eax, 4168		; 00001048H
  003ef	50		 push	 eax
  003f0	e8 00 00 00 00	 call	 _memset
  003f5	83 c4 0c	 add	 esp, 12			; 0000000cH

; 4135 : 	m_MapPersonalTableScoreInfo.RemoveAll();

  003f8	8b 4d f8	 mov	 ecx, DWORD PTR _this$[ebp]
  003fb	81 c1 14 11 00
	00		 add	 ecx, 4372		; 00001114H
  00401	e8 00 00 00 00	 call	 ?RemoveAll@?$CMap@KK_JAA_J@@QAEXXZ ; CMap<unsigned long,unsigned long,__int64,__int64 &>::RemoveAll

; 4136 : 	m_dwPersonalPlayCount = 0;

  00406	8b 45 f8	 mov	 eax, DWORD PTR _this$[ebp]
  00409	c7 80 20 10 00
	00 00 00 00 00	 mov	 DWORD PTR [eax+4128], 0

; 4137 : 	m_cbLoopCount = 0;

  00413	8b 45 f8	 mov	 eax, DWORD PTR _this$[ebp]
  00416	c6 80 9c 11 00
	00 00		 mov	 BYTE PTR [eax+4508], 0

; 4138 : 	m_bIsEnfoceDissum = true;

  0041d	8b 45 f8	 mov	 eax, DWORD PTR _this$[ebp]
  00420	c6 80 9b 11 00
	00 01		 mov	 BYTE PTR [eax+4507], 1

; 4139 : 	m_cbIsRequestOver = 0;

  00427	8b 45 f8	 mov	 eax, DWORD PTR _this$[ebp]
  0042a	c6 80 11 11 00
	00 00		 mov	 BYTE PTR [eax+4369], 0

; 4140 : }

  00431	5f		 pop	 edi
  00432	5e		 pop	 esi
  00433	5b		 pop	 ebx
  00434	8b 4d fc	 mov	 ecx, DWORD PTR __$ArrayPad$[ebp]
  00437	33 cd		 xor	 ecx, ebp
  00439	e8 00 00 00 00	 call	 @__security_check_cookie@4
  0043e	8b e5		 mov	 esp, ebp
  00440	5d		 pop	 ebp
  00441	c2 04 00	 ret	 4
?HostDissumeGame@CTableFrame@@UAEXH@Z ENDP		; CTableFrame::HostDissumeGame
_TEXT	ENDS
; Function compile flags: /Odtp /ZI
; File g:\网狐\happygamewh\服务端\系统模块\服务器组件\游戏服务器\tableframe.cpp
;	COMDAT ?SetPersonalRoomID@CTableFrame@@UAEXK@Z
_TEXT	SEGMENT
_this$ = -4						; size = 4
_dwRoomID$ = 8						; size = 4
?SetPersonalRoomID@CTableFrame@@UAEXK@Z PROC		; CTableFrame::SetPersonalRoomID, COMDAT
; _this$ = ecx

; 4186 : {

  00000	55		 push	 ebp
  00001	8b ec		 mov	 ebp, esp
  00003	83 ec 44	 sub	 esp, 68			; 00000044H
  00006	53		 push	 ebx
  00007	56		 push	 esi
  00008	57		 push	 edi
  00009	89 4d fc	 mov	 DWORD PTR _this$[ebp], ecx

; 4187 : 	if (dwRoomID == 0)

  0000c	83 7d 08 00	 cmp	 DWORD PTR _dwRoomID$[ebp], 0
  00010	75 0f		 jne	 SHORT $LN2@SetPersona

; 4188 : 	{
; 4189 : 		m_dwPersonalRoomID = 0;

  00012	8b 45 fc	 mov	 eax, DWORD PTR _this$[ebp]
  00015	c7 80 30 11 00
	00 00 00 00 00	 mov	 DWORD PTR [eax+4400], 0

; 4190 : 	}
; 4191 : 	else

  0001f	eb 38		 jmp	 SHORT $LN1@SetPersona
$LN2@SetPersona:

; 4192 : 	{
; 4193 : 		m_dwPersonalRoomID = dwRoomID;

  00021	8b 45 fc	 mov	 eax, DWORD PTR _this$[ebp]
  00024	8b 4d 08	 mov	 ecx, DWORD PTR _dwRoomID$[ebp]
  00027	89 88 30 11 00
	00		 mov	 DWORD PTR [eax+4400], ecx

; 4194 : 		m_bIsAllRequstCancel = false;

  0002d	8b 45 fc	 mov	 eax, DWORD PTR _this$[ebp]
  00030	c6 80 99 11 00
	00 00		 mov	 BYTE PTR [eax+4505], 0

; 4195 : 		memset(m_bBeOut, 0, sizeof(m_bBeOut));

  00037	68 c8 00 00 00	 push	 200			; 000000c8H
  0003c	6a 00		 push	 0
  0003e	8b 45 fc	 mov	 eax, DWORD PTR _this$[ebp]
  00041	05 14 45 00 00	 add	 eax, 17684		; 00004514H
  00046	50		 push	 eax
  00047	e8 00 00 00 00	 call	 _memset
  0004c	83 c4 0c	 add	 esp, 12			; 0000000cH

; 4196 : 		m_bIsDissumGame = false;

  0004f	8b 45 fc	 mov	 eax, DWORD PTR _this$[ebp]
  00052	c6 80 34 11 00
	00 00		 mov	 BYTE PTR [eax+4404], 0
$LN1@SetPersona:

; 4197 : 	}
; 4198 : 
; 4199 : 	return;
; 4200 : }

  00059	5f		 pop	 edi
  0005a	5e		 pop	 esi
  0005b	5b		 pop	 ebx
  0005c	8b e5		 mov	 esp, ebp
  0005e	5d		 pop	 ebp
  0005f	c2 04 00	 ret	 4
?SetPersonalRoomID@CTableFrame@@UAEXK@Z ENDP		; CTableFrame::SetPersonalRoomID
_TEXT	ENDS
; Function compile flags: /Odtp /ZI
; File g:\网狐\happygamewh\服务端\系统模块\服务器组件\游戏服务器\tableframe.cpp
;	COMDAT ?CancelTableRequestReply@CTableFrame@@UAE_NKE@Z
_TEXT	SEGMENT
tv274 = -3840						; size = 4
_pTableUserItem$1 = -3388				; size = 4
_i$2 = -3384						; size = 4
_pTableUserItem$3 = -3380				; size = 4
_i$4 = -3376						; size = 4
_wDataSize$5 = -3372					; size = 2
_i$6 = -3368						; size = 4
_PersonalTableEnd$7 = -3364				; size = 2764
_szInfo$8 = -600					; size = 260
_pTableUserItem$9 = -340				; size = 4
_i$10 = -336						; size = 4
_RequestResult$ = -332					; size = 5
_szInfo$11 = -324					; size = 260
_pTableUserItem$12 = -64				; size = 4
_i$13 = -60						; size = 4
_RequestResult$14 = -56					; size = 5
_i$15 = -48						; size = 4
_nCancelCount$ = -44					; size = 4
_nDealCancelCount$ = -40				; size = 4
_pIServerUserItem$16 = -36				; size = 4
_i$17 = -32						; size = 4
_wAgreeCount$ = -28					; size = 2
_wOnlineCount$ = -24					; size = 2
_bCancel$ = -17						; size = 1
_wChairID$ = -16					; size = 2
_pUserItem$ = -12					; size = 4
_this$ = -8						; size = 4
__$ArrayPad$ = -4					; size = 4
_dwUserID$ = 8						; size = 4
_cbAgree$ = 12						; size = 1
?CancelTableRequestReply@CTableFrame@@UAE_NKE@Z PROC	; CTableFrame::CancelTableRequestReply, COMDAT
; _this$ = ecx

; 3780 : {

  00000	55		 push	 ebp
  00001	8b ec		 mov	 ebp, esp
  00003	81 ec 00 0f 00
	00		 sub	 esp, 3840		; 00000f00H
  00009	a1 00 00 00 00	 mov	 eax, DWORD PTR ___security_cookie
  0000e	33 c5		 xor	 eax, ebp
  00010	89 45 fc	 mov	 DWORD PTR __$ArrayPad$[ebp], eax
  00013	53		 push	 ebx
  00014	56		 push	 esi
  00015	57		 push	 edi
  00016	89 4d f8	 mov	 DWORD PTR _this$[ebp], ecx

; 3781 : 	//查找用户
; 3782 : 	IServerUserItem* pUserItem = SearchUserItem(dwUserID);

  00019	8b 45 08	 mov	 eax, DWORD PTR _dwUserID$[ebp]
  0001c	50		 push	 eax
  0001d	8b 4d f8	 mov	 ecx, DWORD PTR _this$[ebp]
  00020	8b 11		 mov	 edx, DWORD PTR [ecx]
  00022	8b 4d f8	 mov	 ecx, DWORD PTR _this$[ebp]
  00025	8b 82 98 00 00
	00		 mov	 eax, DWORD PTR [edx+152]
  0002b	ff d0		 call	 eax
  0002d	89 45 f4	 mov	 DWORD PTR _pUserItem$[ebp], eax

; 3783 : 	if(pUserItem == NULL) return false;

  00030	83 7d f4 00	 cmp	 DWORD PTR _pUserItem$[ebp], 0
  00034	75 07		 jne	 SHORT $LN23@CancelTabl
  00036	32 c0		 xor	 al, al
  00038	e9 ac 07 00 00	 jmp	 $LN1@CancelTabl
$LN23@CancelTabl:

; 3784 : 
; 3785 : 	//答复设置
; 3786 : 	WORD wChairID = pUserItem->GetChairID();

  0003d	8b 45 f4	 mov	 eax, DWORD PTR _pUserItem$[ebp]
  00040	8b 10		 mov	 edx, DWORD PTR [eax]
  00042	8b 4d f4	 mov	 ecx, DWORD PTR _pUserItem$[ebp]
  00045	8b 42 70	 mov	 eax, DWORD PTR [edx+112]
  00048	ff d0		 call	 eax
  0004a	66 89 45 f0	 mov	 WORD PTR _wChairID$[ebp], ax

; 3787 : 	if(cbAgree == 0)

  0004e	0f b6 45 0c	 movzx	 eax, BYTE PTR _cbAgree$[ebp]
  00052	85 c0		 test	 eax, eax
  00054	75 11		 jne	 SHORT $LN24@CancelTabl

; 3788 : 	{
; 3789 : 		m_cbRequestReply[wChairID] = 2;			//不同意

  00056	0f b7 45 f0	 movzx	 eax, WORD PTR _wChairID$[ebp]
  0005a	8b 4d f8	 mov	 ecx, DWORD PTR _this$[ebp]
  0005d	c6 84 01 48 10
	00 00 02	 mov	 BYTE PTR [ecx+eax+4168], 2

; 3790 : 	}
; 3791 : 	else

  00065	eb 0f		 jmp	 SHORT $LN25@CancelTabl
$LN24@CancelTabl:

; 3792 : 	{
; 3793 : 		m_cbRequestReply[wChairID] = 1;			//同意

  00067	0f b7 45 f0	 movzx	 eax, WORD PTR _wChairID$[ebp]
  0006b	8b 4d f8	 mov	 ecx, DWORD PTR _this$[ebp]
  0006e	c6 84 01 48 10
	00 00 01	 mov	 BYTE PTR [ecx+eax+4168], 1
$LN25@CancelTabl:

; 3794 : 	}
; 3795 : 	m_dwReplyCount++;

  00076	8b 45 f8	 mov	 eax, DWORD PTR _this$[ebp]
  00079	8b 88 44 10 00
	00		 mov	 ecx, DWORD PTR [eax+4164]
  0007f	83 c1 01	 add	 ecx, 1
  00082	8b 55 f8	 mov	 edx, DWORD PTR _this$[ebp]
  00085	89 8a 44 10 00
	00		 mov	 DWORD PTR [edx+4164], ecx

; 3796 : 
; 3797 : 	//结果判断
; 3798 : 	bool bCancel = false;

  0008b	c6 45 ef 00	 mov	 BYTE PTR _bCancel$[ebp], 0

; 3799 : 	WORD wOnlineCount = 0;

  0008f	33 c0		 xor	 eax, eax
  00091	66 89 45 e8	 mov	 WORD PTR _wOnlineCount$[ebp], ax

; 3800 : 	WORD wAgreeCount = 0;

  00095	33 c0		 xor	 eax, eax
  00097	66 89 45 e4	 mov	 WORD PTR _wAgreeCount$[ebp], ax

; 3801 : 	for(int i = 0; i < m_wChairCount; ++i)

  0009b	c7 45 e0 00 00
	00 00		 mov	 DWORD PTR _i$17[ebp], 0
  000a2	eb 09		 jmp	 SHORT $LN4@CancelTabl
$LN2@CancelTabl:
  000a4	8b 45 e0	 mov	 eax, DWORD PTR _i$17[ebp]
  000a7	83 c0 01	 add	 eax, 1
  000aa	89 45 e0	 mov	 DWORD PTR _i$17[ebp], eax
$LN4@CancelTabl:
  000ad	8b 45 f8	 mov	 eax, DWORD PTR _this$[ebp]
  000b0	0f b7 48 0a	 movzx	 ecx, WORD PTR [eax+10]
  000b4	39 4d e0	 cmp	 DWORD PTR _i$17[ebp], ecx
  000b7	7d 43		 jge	 SHORT $LN3@CancelTabl

; 3802 : 	{
; 3803 : 		IServerUserItem* pIServerUserItem = GetTableUserItem(i);

  000b9	0f b7 45 e0	 movzx	 eax, WORD PTR _i$17[ebp]
  000bd	50		 push	 eax
  000be	8b 4d f8	 mov	 ecx, DWORD PTR _this$[ebp]
  000c1	8b 11		 mov	 edx, DWORD PTR [ecx]
  000c3	8b 4d f8	 mov	 ecx, DWORD PTR _this$[ebp]
  000c6	8b 82 9c 00 00
	00		 mov	 eax, DWORD PTR [edx+156]
  000cc	ff d0		 call	 eax
  000ce	89 45 dc	 mov	 DWORD PTR _pIServerUserItem$16[ebp], eax

; 3804 : 		if(pIServerUserItem == NULL) continue;

  000d1	83 7d dc 00	 cmp	 DWORD PTR _pIServerUserItem$16[ebp], 0
  000d5	75 02		 jne	 SHORT $LN26@CancelTabl
  000d7	eb cb		 jmp	 SHORT $LN2@CancelTabl
$LN26@CancelTabl:

; 3805 : 		if(pIServerUserItem->GetUserStatus() != US_OFFLINE) wOnlineCount++;

  000d9	8b 45 dc	 mov	 eax, DWORD PTR _pIServerUserItem$16[ebp]
  000dc	8b 10		 mov	 edx, DWORD PTR [eax]
  000de	8b 4d dc	 mov	 ecx, DWORD PTR _pIServerUserItem$16[ebp]
  000e1	8b 42 74	 mov	 eax, DWORD PTR [edx+116]
  000e4	ff d0		 call	 eax
  000e6	0f b6 c8	 movzx	 ecx, al
  000e9	83 f9 06	 cmp	 ecx, 6
  000ec	74 0c		 je	 SHORT $LN27@CancelTabl
  000ee	66 8b 45 e8	 mov	 ax, WORD PTR _wOnlineCount$[ebp]
  000f2	66 83 c0 01	 add	 ax, 1
  000f6	66 89 45 e8	 mov	 WORD PTR _wOnlineCount$[ebp], ax
$LN27@CancelTabl:

; 3806 : 	}

  000fa	eb a8		 jmp	 SHORT $LN2@CancelTabl
$LN3@CancelTabl:

; 3807 : 	
; 3808 : 	int nDealCancelCount = 0;

  000fc	c7 45 d8 00 00
	00 00		 mov	 DWORD PTR _nDealCancelCount$[ebp], 0

; 3809 : 	int nCancelCount = 0;

  00103	c7 45 d4 00 00
	00 00		 mov	 DWORD PTR _nCancelCount$[ebp], 0

; 3810 : 
; 3811 : 	for(int i = 0; i <m_wChairCount; ++i)

  0010a	c7 45 d0 00 00
	00 00		 mov	 DWORD PTR _i$15[ebp], 0
  00111	eb 09		 jmp	 SHORT $LN7@CancelTabl
$LN5@CancelTabl:
  00113	8b 45 d0	 mov	 eax, DWORD PTR _i$15[ebp]
  00116	83 c0 01	 add	 eax, 1
  00119	89 45 d0	 mov	 DWORD PTR _i$15[ebp], eax
$LN7@CancelTabl:
  0011c	8b 45 f8	 mov	 eax, DWORD PTR _this$[ebp]
  0011f	0f b7 48 0a	 movzx	 ecx, WORD PTR [eax+10]
  00123	39 4d d0	 cmp	 DWORD PTR _i$15[ebp], ecx
  00126	7d 55		 jge	 SHORT $LN6@CancelTabl

; 3812 : 	{
; 3813 : 		if(m_cbRequestReply[i] == 1)

  00128	8b 45 f8	 mov	 eax, DWORD PTR _this$[ebp]
  0012b	03 45 d0	 add	 eax, DWORD PTR _i$15[ebp]
  0012e	0f b6 88 48 10
	00 00		 movzx	 ecx, BYTE PTR [eax+4168]
  00135	83 f9 01	 cmp	 ecx, 1
  00138	75 0c		 jne	 SHORT $LN28@CancelTabl

; 3814 : 		{
; 3815 : 			wAgreeCount++;

  0013a	66 8b 45 e4	 mov	 ax, WORD PTR _wAgreeCount$[ebp]
  0013e	66 83 c0 01	 add	 ax, 1
  00142	66 89 45 e4	 mov	 WORD PTR _wAgreeCount$[ebp], ax
$LN28@CancelTabl:

; 3816 : 		}
; 3817 : 
; 3818 : 		if(m_cbRequestReply[i] == 2)

  00146	8b 45 f8	 mov	 eax, DWORD PTR _this$[ebp]
  00149	03 45 d0	 add	 eax, DWORD PTR _i$15[ebp]
  0014c	0f b6 88 48 10
	00 00		 movzx	 ecx, BYTE PTR [eax+4168]
  00153	83 f9 02	 cmp	 ecx, 2
  00156	75 09		 jne	 SHORT $LN29@CancelTabl

; 3819 : 		{
; 3820 : 			nCancelCount++;

  00158	8b 45 d4	 mov	 eax, DWORD PTR _nCancelCount$[ebp]
  0015b	83 c0 01	 add	 eax, 1
  0015e	89 45 d4	 mov	 DWORD PTR _nCancelCount$[ebp], eax
$LN29@CancelTabl:

; 3821 : 		}
; 3822 : 
; 3823 : 		if(m_cbRequestReply[i] != 0)

  00161	8b 45 f8	 mov	 eax, DWORD PTR _this$[ebp]
  00164	03 45 d0	 add	 eax, DWORD PTR _i$15[ebp]
  00167	0f b6 88 48 10
	00 00		 movzx	 ecx, BYTE PTR [eax+4168]
  0016e	85 c9		 test	 ecx, ecx
  00170	74 09		 je	 SHORT $LN30@CancelTabl

; 3824 : 		{
; 3825 : 			nDealCancelCount++;

  00172	8b 45 d8	 mov	 eax, DWORD PTR _nDealCancelCount$[ebp]
  00175	83 c0 01	 add	 eax, 1
  00178	89 45 d8	 mov	 DWORD PTR _nDealCancelCount$[ebp], eax
$LN30@CancelTabl:

; 3826 : 		}
; 3827 : 	}

  0017b	eb 96		 jmp	 SHORT $LN5@CancelTabl
$LN6@CancelTabl:

; 3828 : 
; 3829 : 	if(m_cbIsRequestOver == 0)

  0017d	8b 45 f8	 mov	 eax, DWORD PTR _this$[ebp]
  00180	0f b6 88 11 11
	00 00		 movzx	 ecx, BYTE PTR [eax+4369]
  00187	85 c9		 test	 ecx, ecx
  00189	75 07		 jne	 SHORT $LN31@CancelTabl

; 3830 : 	{
; 3831 : 		return true;

  0018b	b0 01		 mov	 al, 1
  0018d	e9 57 06 00 00	 jmp	 $LN1@CancelTabl
$LN31@CancelTabl:

; 3832 : 	}
; 3833 : 
; 3834 : 	if(nCancelCount > ((m_wChairCount )/2 ) )

  00192	8b 45 f8	 mov	 eax, DWORD PTR _this$[ebp]
  00195	0f b7 40 0a	 movzx	 eax, WORD PTR [eax+10]
  00199	99		 cdq
  0019a	2b c2		 sub	 eax, edx
  0019c	d1 f8		 sar	 eax, 1
  0019e	39 45 d4	 cmp	 DWORD PTR _nCancelCount$[ebp], eax
  001a1	0f 8e f4 00 00
	00		 jle	 $LN32@CancelTabl

; 3835 : 	{
; 3836 : 		m_cbIsRequestOver = 0;

  001a7	8b 45 f8	 mov	 eax, DWORD PTR _this$[ebp]
  001aa	c6 80 11 11 00
	00 00		 mov	 BYTE PTR [eax+4369], 0

; 3837 : 		CMD_GR_RequestResult RequestResult;
; 3838 : 		ZeroMemory(&RequestResult, sizeof(CMD_GR_RequestResult));

  001b1	6a 05		 push	 5
  001b3	6a 00		 push	 0
  001b5	8d 45 c8	 lea	 eax, DWORD PTR _RequestResult$14[ebp]
  001b8	50		 push	 eax
  001b9	e8 00 00 00 00	 call	 _memset
  001be	83 c4 0c	 add	 esp, 12			; 0000000cH

; 3839 : 		RequestResult.dwTableID = m_wTableID;

  001c1	8b 45 f8	 mov	 eax, DWORD PTR _this$[ebp]
  001c4	0f b7 48 08	 movzx	 ecx, WORD PTR [eax+8]
  001c8	89 4d c8	 mov	 DWORD PTR _RequestResult$14[ebp], ecx

; 3840 : 		RequestResult.cbResult = 0;	//1 ： 解散桌子 0 ： 继续游戏

  001cb	c6 45 cc 00	 mov	 BYTE PTR _RequestResult$14[ebp+4], 0

; 3841 : 		for(int i = 0; i < m_wChairCount; ++i)

  001cf	c7 45 c4 00 00
	00 00		 mov	 DWORD PTR _i$13[ebp], 0
  001d6	eb 09		 jmp	 SHORT $LN10@CancelTabl
$LN8@CancelTabl:
  001d8	8b 45 c4	 mov	 eax, DWORD PTR _i$13[ebp]
  001db	83 c0 01	 add	 eax, 1
  001de	89 45 c4	 mov	 DWORD PTR _i$13[ebp], eax
$LN10@CancelTabl:
  001e1	8b 45 f8	 mov	 eax, DWORD PTR _this$[ebp]
  001e4	0f b7 48 0a	 movzx	 ecx, WORD PTR [eax+10]
  001e8	39 4d c4	 cmp	 DWORD PTR _i$13[ebp], ecx
  001eb	0f 8d a3 00 00
	00		 jge	 $LN9@CancelTabl

; 3842 : 		{
; 3843 : 			IServerUserItem* pTableUserItem = GetTableUserItem(i);

  001f1	0f b7 45 c4	 movzx	 eax, WORD PTR _i$13[ebp]
  001f5	50		 push	 eax
  001f6	8b 4d f8	 mov	 ecx, DWORD PTR _this$[ebp]
  001f9	8b 11		 mov	 edx, DWORD PTR [ecx]
  001fb	8b 4d f8	 mov	 ecx, DWORD PTR _this$[ebp]
  001fe	8b 82 9c 00 00
	00		 mov	 eax, DWORD PTR [edx+156]
  00204	ff d0		 call	 eax
  00206	89 45 c0	 mov	 DWORD PTR _pTableUserItem$12[ebp], eax

; 3844 : 			if(pTableUserItem == NULL) continue;

  00209	83 7d c0 00	 cmp	 DWORD PTR _pTableUserItem$12[ebp], 0
  0020d	75 02		 jne	 SHORT $LN33@CancelTabl
  0020f	eb c7		 jmp	 SHORT $LN8@CancelTabl
$LN33@CancelTabl:

; 3845 : 			TCHAR szInfo[260] = {0};

  00211	68 04 01 00 00	 push	 260			; 00000104H
  00216	6a 00		 push	 0
  00218	8d 85 bc fe ff
	ff		 lea	 eax, DWORD PTR _szInfo$11[ebp]
  0021e	50		 push	 eax
  0021f	e8 00 00 00 00	 call	 _memset
  00224	83 c4 0c	 add	 esp, 12			; 0000000cH

; 3846 : 			wsprintf(szInfo, TEXT("ptdtjs *** 向 UserID = %d   Nicname = %s  发送消息"), pTableUserItem->GetUserID(),  pTableUserItem->GetNickName());

  00227	8b 45 c0	 mov	 eax, DWORD PTR _pTableUserItem$12[ebp]
  0022a	8b 10		 mov	 edx, DWORD PTR [eax]
  0022c	8b 4d c0	 mov	 ecx, DWORD PTR _pTableUserItem$12[ebp]
  0022f	8b 42 64	 mov	 eax, DWORD PTR [edx+100]
  00232	ff d0		 call	 eax
  00234	50		 push	 eax
  00235	8b 4d c0	 mov	 ecx, DWORD PTR _pTableUserItem$12[ebp]
  00238	8b 11		 mov	 edx, DWORD PTR [ecx]
  0023a	8b 4d c0	 mov	 ecx, DWORD PTR _pTableUserItem$12[ebp]
  0023d	8b 42 5c	 mov	 eax, DWORD PTR [edx+92]
  00240	ff d0		 call	 eax
  00242	50		 push	 eax
  00243	68 00 00 00 00	 push	 OFFSET ??_C@_0DD@NAIKEGDD@ptdtjs?5?$CK?$CK?$CK?5?O?r?5UserID?5?$DN?5?$CFd?5?5?5Nic@
  00248	8d 8d bc fe ff
	ff		 lea	 ecx, DWORD PTR _szInfo$11[ebp]
  0024e	51		 push	 ecx
  0024f	ff 15 00 00 00
	00		 call	 DWORD PTR __imp__wsprintfA
  00255	83 c4 10	 add	 esp, 16			; 00000010H

; 3847 : 			OutputDebugString(szInfo);

  00258	8d 85 bc fe ff
	ff		 lea	 eax, DWORD PTR _szInfo$11[ebp]
  0025e	50		 push	 eax
  0025f	ff 15 00 00 00
	00		 call	 DWORD PTR __imp__OutputDebugStringA@4

; 3848 : 			m_pIMainServiceFrame->SendData(pTableUserItem, MDM_GR_PERSONAL_TABLE, SUB_GR_REQUEST_RESULT, &RequestResult, sizeof(CMD_GR_RequestResult));

  00265	6a 05		 push	 5
  00267	8d 45 c8	 lea	 eax, DWORD PTR _RequestResult$14[ebp]
  0026a	50		 push	 eax
  0026b	6a 07		 push	 7
  0026d	68 d2 00 00 00	 push	 210			; 000000d2H
  00272	8b 4d c0	 mov	 ecx, DWORD PTR _pTableUserItem$12[ebp]
  00275	51		 push	 ecx
  00276	8b 55 f8	 mov	 edx, DWORD PTR _this$[ebp]
  00279	8b 82 cc 0f 00
	00		 mov	 eax, DWORD PTR [edx+4044]
  0027f	8b 4d f8	 mov	 ecx, DWORD PTR _this$[ebp]
  00282	8b 10		 mov	 edx, DWORD PTR [eax]
  00284	8b 89 cc 0f 00
	00		 mov	 ecx, DWORD PTR [ecx+4044]
  0028a	8b 42 1c	 mov	 eax, DWORD PTR [edx+28]
  0028d	ff d0		 call	 eax

; 3849 : 		}

  0028f	e9 44 ff ff ff	 jmp	 $LN8@CancelTabl
$LN9@CancelTabl:

; 3850 : 
; 3851 : 		return true;

  00294	b0 01		 mov	 al, 1
  00296	e9 4e 05 00 00	 jmp	 $LN1@CancelTabl
$LN32@CancelTabl:

; 3852 : 	}
; 3853 : 
; 3854 : 	//所有玩家都处理了，关闭解散超时定时器
; 3855 : 	if (nDealCancelCount == m_wChairCount)

  0029b	8b 45 f8	 mov	 eax, DWORD PTR _this$[ebp]
  0029e	0f b7 48 0a	 movzx	 ecx, WORD PTR [eax+10]
  002a2	39 4d d8	 cmp	 DWORD PTR _nDealCancelCount$[ebp], ecx
  002a5	75 12		 jne	 SHORT $LN34@CancelTabl

; 3856 : 	{
; 3857 : 		KillGameTimer(IDI_TIME_CANCEL);

  002a7	6a 2e		 push	 46			; 0000002eH
  002a9	8b 45 f8	 mov	 eax, DWORD PTR _this$[ebp]
  002ac	8b 10		 mov	 edx, DWORD PTR [eax]
  002ae	8b 4d f8	 mov	 ecx, DWORD PTR _this$[ebp]
  002b1	8b 82 a8 00 00
	00		 mov	 eax, DWORD PTR [edx+168]
  002b7	ff d0		 call	 eax
$LN34@CancelTabl:

; 3858 : 	}
; 3859 : 
; 3860 : 	if(m_dwReplyCount < wOnlineCount && m_cbRequestReply[wChairID] == 2 ) return true;

  002b9	0f b7 45 e8	 movzx	 eax, WORD PTR _wOnlineCount$[ebp]
  002bd	8b 4d f8	 mov	 ecx, DWORD PTR _this$[ebp]
  002c0	39 81 44 10 00
	00		 cmp	 DWORD PTR [ecx+4164], eax
  002c6	73 1b		 jae	 SHORT $LN35@CancelTabl
  002c8	0f b7 45 f0	 movzx	 eax, WORD PTR _wChairID$[ebp]
  002cc	8b 4d f8	 mov	 ecx, DWORD PTR _this$[ebp]
  002cf	0f b6 94 01 48
	10 00 00	 movzx	 edx, BYTE PTR [ecx+eax+4168]
  002d7	83 fa 02	 cmp	 edx, 2
  002da	75 07		 jne	 SHORT $LN35@CancelTabl
  002dc	b0 01		 mov	 al, 1
  002de	e9 06 05 00 00	 jmp	 $LN1@CancelTabl
$LN35@CancelTabl:

; 3861 : 	if(m_dwReplyCount < wOnlineCount && wAgreeCount <  ((m_wChairCount )/2  + 1 )&& m_wChairCount != 2)

  002e3	0f b7 45 e8	 movzx	 eax, WORD PTR _wOnlineCount$[ebp]
  002e7	8b 4d f8	 mov	 ecx, DWORD PTR _this$[ebp]
  002ea	39 81 44 10 00
	00		 cmp	 DWORD PTR [ecx+4164], eax
  002f0	73 2a		 jae	 SHORT $LN36@CancelTabl
  002f2	0f b7 4d e4	 movzx	 ecx, WORD PTR _wAgreeCount$[ebp]
  002f6	8b 55 f8	 mov	 edx, DWORD PTR _this$[ebp]
  002f9	0f b7 42 0a	 movzx	 eax, WORD PTR [edx+10]
  002fd	99		 cdq
  002fe	2b c2		 sub	 eax, edx
  00300	d1 f8		 sar	 eax, 1
  00302	83 c0 01	 add	 eax, 1
  00305	3b c8		 cmp	 ecx, eax
  00307	7d 13		 jge	 SHORT $LN36@CancelTabl
  00309	8b 45 f8	 mov	 eax, DWORD PTR _this$[ebp]
  0030c	0f b7 48 0a	 movzx	 ecx, WORD PTR [eax+10]
  00310	83 f9 02	 cmp	 ecx, 2
  00313	74 07		 je	 SHORT $LN36@CancelTabl

; 3862 : 	{
; 3863 : 		return true;

  00315	b0 01		 mov	 al, 1
  00317	e9 cd 04 00 00	 jmp	 $LN1@CancelTabl
$LN36@CancelTabl:

; 3864 : 	}
; 3865 : 
; 3866 : 	if(wAgreeCount >= wOnlineCount || wAgreeCount >= ((m_wChairCount )/2  + 1 )&& m_wChairCount != 2) 

  0031c	0f b7 45 e4	 movzx	 eax, WORD PTR _wAgreeCount$[ebp]
  00320	0f b7 4d e8	 movzx	 ecx, WORD PTR _wOnlineCount$[ebp]
  00324	3b c1		 cmp	 eax, ecx
  00326	7d 23		 jge	 SHORT $LN38@CancelTabl
  00328	0f b7 4d e4	 movzx	 ecx, WORD PTR _wAgreeCount$[ebp]
  0032c	8b 55 f8	 mov	 edx, DWORD PTR _this$[ebp]
  0032f	0f b7 42 0a	 movzx	 eax, WORD PTR [edx+10]
  00333	99		 cdq
  00334	2b c2		 sub	 eax, edx
  00336	d1 f8		 sar	 eax, 1
  00338	83 c0 01	 add	 eax, 1
  0033b	3b c8		 cmp	 ecx, eax
  0033d	7c 10		 jl	 SHORT $LN37@CancelTabl
  0033f	8b 45 f8	 mov	 eax, DWORD PTR _this$[ebp]
  00342	0f b7 48 0a	 movzx	 ecx, WORD PTR [eax+10]
  00346	83 f9 02	 cmp	 ecx, 2
  00349	74 04		 je	 SHORT $LN37@CancelTabl
$LN38@CancelTabl:

; 3867 : 	{
; 3868 : 		bCancel = true;

  0034b	c6 45 ef 01	 mov	 BYTE PTR _bCancel$[ebp], 1
$LN37@CancelTabl:

; 3869 : 	}
; 3870 : 
; 3871 : 	m_cbIsRequestOver = 0;

  0034f	8b 45 f8	 mov	 eax, DWORD PTR _this$[ebp]
  00352	c6 80 11 11 00
	00 00		 mov	 BYTE PTR [eax+4369], 0

; 3872 : 
; 3873 : 
; 3874 : 	//请求结果
; 3875 : 	CMD_GR_RequestResult RequestResult;
; 3876 : 	ZeroMemory(&RequestResult, sizeof(CMD_GR_RequestResult));

  00359	6a 05		 push	 5
  0035b	6a 00		 push	 0
  0035d	8d 85 b4 fe ff
	ff		 lea	 eax, DWORD PTR _RequestResult$[ebp]
  00363	50		 push	 eax
  00364	e8 00 00 00 00	 call	 _memset
  00369	83 c4 0c	 add	 esp, 12			; 0000000cH

; 3877 : 	RequestResult.dwTableID = m_wTableID;

  0036c	8b 45 f8	 mov	 eax, DWORD PTR _this$[ebp]
  0036f	0f b7 48 08	 movzx	 ecx, WORD PTR [eax+8]
  00373	89 8d b4 fe ff
	ff		 mov	 DWORD PTR _RequestResult$[ebp], ecx

; 3878 : 	RequestResult.cbResult = bCancel?1:0;	//1 ： 解散桌子 0 ： 继续游戏

  00379	0f b6 45 ef	 movzx	 eax, BYTE PTR _bCancel$[ebp]
  0037d	85 c0		 test	 eax, eax
  0037f	74 0c		 je	 SHORT $LN48@CancelTabl
  00381	c7 85 00 f1 ff
	ff 01 00 00 00	 mov	 DWORD PTR tv274[ebp], 1
  0038b	eb 0a		 jmp	 SHORT $LN49@CancelTabl
$LN48@CancelTabl:
  0038d	c7 85 00 f1 ff
	ff 00 00 00 00	 mov	 DWORD PTR tv274[ebp], 0
$LN49@CancelTabl:
  00397	8a 8d 00 f1 ff
	ff		 mov	 cl, BYTE PTR tv274[ebp]
  0039d	88 8d b8 fe ff
	ff		 mov	 BYTE PTR _RequestResult$[ebp+4], cl

; 3879 : 	for(int i = 0; i < m_wChairCount; ++i)

  003a3	c7 85 b0 fe ff
	ff 00 00 00 00	 mov	 DWORD PTR _i$10[ebp], 0
  003ad	eb 0f		 jmp	 SHORT $LN13@CancelTabl
$LN11@CancelTabl:
  003af	8b 85 b0 fe ff
	ff		 mov	 eax, DWORD PTR _i$10[ebp]
  003b5	83 c0 01	 add	 eax, 1
  003b8	89 85 b0 fe ff
	ff		 mov	 DWORD PTR _i$10[ebp], eax
$LN13@CancelTabl:
  003be	8b 45 f8	 mov	 eax, DWORD PTR _this$[ebp]
  003c1	0f b7 48 0a	 movzx	 ecx, WORD PTR [eax+10]
  003c5	39 8d b0 fe ff
	ff		 cmp	 DWORD PTR _i$10[ebp], ecx
  003cb	7d 5b		 jge	 SHORT $LN12@CancelTabl

; 3880 : 	{
; 3881 : 		IServerUserItem* pTableUserItem = GetTableUserItem(i);

  003cd	0f b7 85 b0 fe
	ff ff		 movzx	 eax, WORD PTR _i$10[ebp]
  003d4	50		 push	 eax
  003d5	8b 4d f8	 mov	 ecx, DWORD PTR _this$[ebp]
  003d8	8b 11		 mov	 edx, DWORD PTR [ecx]
  003da	8b 4d f8	 mov	 ecx, DWORD PTR _this$[ebp]
  003dd	8b 82 9c 00 00
	00		 mov	 eax, DWORD PTR [edx+156]
  003e3	ff d0		 call	 eax
  003e5	89 85 ac fe ff
	ff		 mov	 DWORD PTR _pTableUserItem$9[ebp], eax

; 3882 : 		if(pTableUserItem == NULL) continue;

  003eb	83 bd ac fe ff
	ff 00		 cmp	 DWORD PTR _pTableUserItem$9[ebp], 0
  003f2	75 02		 jne	 SHORT $LN39@CancelTabl
  003f4	eb b9		 jmp	 SHORT $LN11@CancelTabl
$LN39@CancelTabl:

; 3883 : 		m_pIMainServiceFrame->SendData(pTableUserItem, MDM_GR_PERSONAL_TABLE, SUB_GR_REQUEST_RESULT, &RequestResult, sizeof(CMD_GR_RequestResult));

  003f6	6a 05		 push	 5
  003f8	8d 85 b4 fe ff
	ff		 lea	 eax, DWORD PTR _RequestResult$[ebp]
  003fe	50		 push	 eax
  003ff	6a 07		 push	 7
  00401	68 d2 00 00 00	 push	 210			; 000000d2H
  00406	8b 8d ac fe ff
	ff		 mov	 ecx, DWORD PTR _pTableUserItem$9[ebp]
  0040c	51		 push	 ecx
  0040d	8b 55 f8	 mov	 edx, DWORD PTR _this$[ebp]
  00410	8b 82 cc 0f 00
	00		 mov	 eax, DWORD PTR [edx+4044]
  00416	8b 4d f8	 mov	 ecx, DWORD PTR _this$[ebp]
  00419	8b 10		 mov	 edx, DWORD PTR [eax]
  0041b	8b 89 cc 0f 00
	00		 mov	 ecx, DWORD PTR [ecx+4044]
  00421	8b 42 1c	 mov	 eax, DWORD PTR [edx+28]
  00424	ff d0		 call	 eax

; 3884 : 	}

  00426	eb 87		 jmp	 SHORT $LN11@CancelTabl
$LN12@CancelTabl:

; 3885 : 
; 3886 : 	//解散桌子
; 3887 : 	if(bCancel == true)

  00428	0f b6 45 ef	 movzx	 eax, BYTE PTR _bCancel$[ebp]
  0042c	83 f8 01	 cmp	 eax, 1
  0042f	0f 85 b2 03 00
	00		 jne	 $LN40@CancelTabl

; 3888 : 	{
; 3889 : 		m_bIsAllRequstCancel = true;

  00435	8b 45 f8	 mov	 eax, DWORD PTR _this$[ebp]
  00438	c6 80 99 11 00
	00 01		 mov	 BYTE PTR [eax+4505], 1

; 3890 : 		m_bIsDissumGame = true;

  0043f	8b 45 f8	 mov	 eax, DWORD PTR _this$[ebp]
  00442	c6 80 34 11 00
	00 01		 mov	 BYTE PTR [eax+4404], 1

; 3891 : 
; 3892 : 
; 3893 : 		if(m_bGameStarted == true)

  00449	8b 45 f8	 mov	 eax, DWORD PTR _this$[ebp]
  0044c	0f b6 48 10	 movzx	 ecx, BYTE PTR [eax+16]
  00450	83 f9 01	 cmp	 ecx, 1
  00453	75 23		 jne	 SHORT $LN41@CancelTabl

; 3894 : 		{
; 3895 : 			if(m_dwPersonalPlayCount == 1)

  00455	8b 45 f8	 mov	 eax, DWORD PTR _this$[ebp]
  00458	83 b8 20 10 00
	00 01		 cmp	 DWORD PTR [eax+4128], 1
  0045f	75 0a		 jne	 SHORT $LN42@CancelTabl

; 3896 : 			{
; 3897 : 				m_bIsCancelBeforeOneTurn = true;

  00461	8b 45 f8	 mov	 eax, DWORD PTR _this$[ebp]
  00464	c6 80 c8 46 00
	00 01		 mov	 BYTE PTR [eax+18120], 1
$LN42@CancelTabl:

; 3898 : 			}
; 3899 : 
; 3900 : 			//解散游戏
; 3901 : 			DismissGame();

  0046b	8b 45 f8	 mov	 eax, DWORD PTR _this$[ebp]
  0046e	8b 10		 mov	 edx, DWORD PTR [eax]
  00470	8b 4d f8	 mov	 ecx, DWORD PTR _this$[ebp]
  00473	8b 42 78	 mov	 eax, DWORD PTR [edx+120]
  00476	ff d0		 call	 eax
$LN41@CancelTabl:

; 3902 : 		}
; 3903 : 		KillGameTimer(IDI_TIME_CANCEL);

  00478	6a 2e		 push	 46			; 0000002eH
  0047a	8b 45 f8	 mov	 eax, DWORD PTR _this$[ebp]
  0047d	8b 10		 mov	 edx, DWORD PTR [eax]
  0047f	8b 4d f8	 mov	 ecx, DWORD PTR _this$[ebp]
  00482	8b 82 a8 00 00
	00		 mov	 eax, DWORD PTR [edx+168]
  00488	ff d0		 call	 eax

; 3904 : 		KillGameTimer(IDI_PERSONAL_BEFORE_BEGAIN_TIME);

  0048a	6a 2b		 push	 43			; 0000002bH
  0048c	8b 45 f8	 mov	 eax, DWORD PTR _this$[ebp]
  0048f	8b 10		 mov	 edx, DWORD PTR [eax]
  00491	8b 4d f8	 mov	 ecx, DWORD PTR _this$[ebp]
  00494	8b 82 a8 00 00
	00		 mov	 eax, DWORD PTR [edx+168]
  0049a	ff d0		 call	 eax

; 3905 : 		OutputDebugStringA("ptdtcs ****  kill   IDI_PERSONAL_BEFORE_BEGAIN_TIME 4");

  0049c	68 00 00 00 00	 push	 OFFSET ??_C@_0DG@JDEJHMNA@ptdtcs?5?$CK?$CK?$CK?$CK?5?5kill?5?5?5IDI_PERSONA@
  004a1	ff 15 00 00 00
	00		 call	 DWORD PTR __imp__OutputDebugStringA@4

; 3906 : 		GetLocalTime(&m_sysEndTime);

  004a7	8b 45 f8	 mov	 eax, DWORD PTR _this$[ebp]
  004aa	05 ec 46 00 00	 add	 eax, 18156		; 000046ecH
  004af	50		 push	 eax
  004b0	ff 15 00 00 00
	00		 call	 DWORD PTR __imp__GetLocalTime@4

; 3907 : 		TCHAR szInfo[260] = {0};	

  004b6	68 04 01 00 00	 push	 260			; 00000104H
  004bb	6a 00		 push	 0
  004bd	8d 85 a8 fd ff
	ff		 lea	 eax, DWORD PTR _szInfo$8[ebp]
  004c3	50		 push	 eax
  004c4	e8 00 00 00 00	 call	 _memset
  004c9	83 c4 0c	 add	 esp, 12			; 0000000cH

; 3908 : 		//用户成绩
; 3909 : 		CMD_GR_PersonalTableEnd PersonalTableEnd;
; 3910 : 		ZeroMemory(&PersonalTableEnd, sizeof(CMD_GR_PersonalTableEnd));

  004cc	68 cc 0a 00 00	 push	 2764			; 00000accH
  004d1	6a 00		 push	 0
  004d3	8d 85 dc f2 ff
	ff		 lea	 eax, DWORD PTR _PersonalTableEnd$7[ebp]
  004d9	50		 push	 eax
  004da	e8 00 00 00 00	 call	 _memset
  004df	83 c4 0c	 add	 esp, 12			; 0000000cH

; 3911 : 
; 3912 : 		lstrcpyn(PersonalTableEnd.szDescribeString, TEXT("玩家申请解散，游戏提前结束！"), CountArray(PersonalTableEnd.szDescribeString));

  004e2	68 80 00 00 00	 push	 128			; 00000080H
  004e7	68 00 00 00 00	 push	 OFFSET ??_C@_0BN@OELOPBKB@?M?f?$LM?R?I?j?G?k?$LN?b?I?$KC?$KD?$KM?S?N?O?$LH?L?a?G?$LA?$LN?a?J?x?$KD?$KB@
  004ec	8d 85 dc f2 ff
	ff		 lea	 eax, DWORD PTR _PersonalTableEnd$7[ebp]
  004f2	50		 push	 eax
  004f3	ff 15 00 00 00
	00		 call	 DWORD PTR __imp__lstrcpynA@12

; 3913 : 		for(int i = 0; i < m_wChairCount; ++i)

  004f9	c7 85 d8 f2 ff
	ff 00 00 00 00	 mov	 DWORD PTR _i$6[ebp], 0
  00503	eb 0f		 jmp	 SHORT $LN16@CancelTabl
$LN14@CancelTabl:
  00505	8b 85 d8 f2 ff
	ff		 mov	 eax, DWORD PTR _i$6[ebp]
  0050b	83 c0 01	 add	 eax, 1
  0050e	89 85 d8 f2 ff
	ff		 mov	 DWORD PTR _i$6[ebp], eax
$LN16@CancelTabl:
  00514	8b 45 f8	 mov	 eax, DWORD PTR _this$[ebp]
  00517	0f b7 48 0a	 movzx	 ecx, WORD PTR [eax+10]
  0051b	39 8d d8 f2 ff
	ff		 cmp	 DWORD PTR _i$6[ebp], ecx
  00521	7d 2e		 jge	 SHORT $LN15@CancelTabl

; 3914 : 		{
; 3915 : 			PersonalTableEnd.lScore[i] = m_PersonalUserScoreInfo[i].lScore;

  00523	6b 85 d8 f2 ff
	ff 3c		 imul	 eax, DWORD PTR _i$6[ebp], 60
  0052a	8b 8d d8 f2 ff
	ff		 mov	 ecx, DWORD PTR _i$6[ebp]
  00530	8b 55 f8	 mov	 edx, DWORD PTR _this$[ebp]
  00533	8b b4 02 c1 11
	00 00		 mov	 esi, DWORD PTR [edx+eax+4545]
  0053a	89 b4 cd 5c f3
	ff ff		 mov	 DWORD PTR _PersonalTableEnd$7[ebp+ecx*8+128], esi
  00541	8b 84 02 c5 11
	00 00		 mov	 eax, DWORD PTR [edx+eax+4549]
  00548	89 84 cd 60 f3
	ff ff		 mov	 DWORD PTR _PersonalTableEnd$7[ebp+ecx*8+132], eax

; 3916 : 		}

  0054f	eb b4		 jmp	 SHORT $LN14@CancelTabl
$LN15@CancelTabl:

; 3917 : 		PersonalTableEnd.sysStartTime = m_sysStartTime;

  00551	8b 45 f8	 mov	 eax, DWORD PTR _this$[ebp]
  00554	05 dc 46 00 00	 add	 eax, 18140		; 000046dcH
  00559	8b 08		 mov	 ecx, DWORD PTR [eax]
  0055b	89 8d 9c f9 ff
	ff		 mov	 DWORD PTR _PersonalTableEnd$7[ebp+1728], ecx
  00561	8b 50 04	 mov	 edx, DWORD PTR [eax+4]
  00564	89 95 a0 f9 ff
	ff		 mov	 DWORD PTR _PersonalTableEnd$7[ebp+1732], edx
  0056a	8b 48 08	 mov	 ecx, DWORD PTR [eax+8]
  0056d	89 8d a4 f9 ff
	ff		 mov	 DWORD PTR _PersonalTableEnd$7[ebp+1736], ecx
  00573	8b 50 0c	 mov	 edx, DWORD PTR [eax+12]
  00576	89 95 a8 f9 ff
	ff		 mov	 DWORD PTR _PersonalTableEnd$7[ebp+1740], edx

; 3918 : 		PersonalTableEnd.sysEndTime = m_sysEndTime;

  0057c	8b 45 f8	 mov	 eax, DWORD PTR _this$[ebp]
  0057f	05 ec 46 00 00	 add	 eax, 18156		; 000046ecH
  00584	8b 08		 mov	 ecx, DWORD PTR [eax]
  00586	89 8d ac f9 ff
	ff		 mov	 DWORD PTR _PersonalTableEnd$7[ebp+1744], ecx
  0058c	8b 50 04	 mov	 edx, DWORD PTR [eax+4]
  0058f	89 95 b0 f9 ff
	ff		 mov	 DWORD PTR _PersonalTableEnd$7[ebp+1748], edx
  00595	8b 48 08	 mov	 ecx, DWORD PTR [eax+8]
  00598	89 8d b4 f9 ff
	ff		 mov	 DWORD PTR _PersonalTableEnd$7[ebp+1752], ecx
  0059e	8b 50 0c	 mov	 edx, DWORD PTR [eax+12]
  005a1	89 95 b8 f9 ff
	ff		 mov	 DWORD PTR _PersonalTableEnd$7[ebp+1756], edx

; 3919 : 		//添加特殊信息
; 3920 : 		memcpy( PersonalTableEnd.cbSpecialInfo, m_cbSpecialInfo, m_nSpecialInfoLen);

  005a7	8b 45 f8	 mov	 eax, DWORD PTR _this$[ebp]
  005aa	8b 88 68 44 00
	00		 mov	 ecx, DWORD PTR [eax+17512]
  005b0	51		 push	 ecx
  005b1	8b 55 f8	 mov	 edx, DWORD PTR _this$[ebp]
  005b4	81 c2 7d 40 00
	00		 add	 edx, 16509		; 0000407dH
  005ba	52		 push	 edx
  005bb	8d 85 c0 f9 ff
	ff		 lea	 eax, DWORD PTR _PersonalTableEnd$7[ebp+1764]
  005c1	50		 push	 eax
  005c2	e8 00 00 00 00	 call	 _memcpy
  005c7	83 c4 0c	 add	 esp, 12			; 0000000cH

; 3921 : 		PersonalTableEnd.nSpecialInfoLen = m_nSpecialInfoLen;

  005ca	8b 45 f8	 mov	 eax, DWORD PTR _this$[ebp]
  005cd	8b 88 68 44 00
	00		 mov	 ecx, DWORD PTR [eax+17512]
  005d3	89 8d bc f9 ff
	ff		 mov	 DWORD PTR _PersonalTableEnd$7[ebp+1760], ecx

; 3922 : 
; 3923 : 
; 3924 : 		if(m_dwPersonalPlayCount == 0)		//游戏未开始

  005d9	8b 45 f8	 mov	 eax, DWORD PTR _this$[ebp]
  005dc	83 b8 20 10 00
	00 00		 cmp	 DWORD PTR [eax+4128], 0
  005e3	75 50		 jne	 SHORT $LN43@CancelTabl

; 3925 : 		{
; 3926 : 			m_pIMainServiceFrame->CancelCreateTable(m_dwTableOwnerID, m_dwDrawCountLimit, m_dwDrawTimeLimit, CANCELTABLE_REASON_ENFOCE, m_wTableID, m_dwPersonalRoomID);

  005e5	8b 45 f8	 mov	 eax, DWORD PTR _this$[ebp]
  005e8	8b 88 30 11 00
	00		 mov	 ecx, DWORD PTR [eax+4400]
  005ee	51		 push	 ecx
  005ef	8b 55 f8	 mov	 edx, DWORD PTR _this$[ebp]
  005f2	0f b7 42 08	 movzx	 eax, WORD PTR [edx+8]
  005f6	50		 push	 eax
  005f7	6a 02		 push	 2
  005f9	8b 4d f8	 mov	 ecx, DWORD PTR _this$[ebp]
  005fc	8b 91 1c 10 00
	00		 mov	 edx, DWORD PTR [ecx+4124]
  00602	52		 push	 edx
  00603	8b 45 f8	 mov	 eax, DWORD PTR _this$[ebp]
  00606	8b 88 18 10 00
	00		 mov	 ecx, DWORD PTR [eax+4120]
  0060c	51		 push	 ecx
  0060d	8b 55 f8	 mov	 edx, DWORD PTR _this$[ebp]
  00610	8b 82 40 07 00
	00		 mov	 eax, DWORD PTR [edx+1856]
  00616	50		 push	 eax
  00617	8b 4d f8	 mov	 ecx, DWORD PTR _this$[ebp]
  0061a	8b 91 cc 0f 00
	00		 mov	 edx, DWORD PTR [ecx+4044]
  00620	8b 45 f8	 mov	 eax, DWORD PTR _this$[ebp]
  00623	8b 12		 mov	 edx, DWORD PTR [edx]
  00625	8b 88 cc 0f 00
	00		 mov	 ecx, DWORD PTR [eax+4044]
  0062b	8b 42 48	 mov	 eax, DWORD PTR [edx+72]
  0062e	ff d0		 call	 eax

; 3927 : 		}
; 3928 : 		else	//游戏开始

  00630	e9 51 01 00 00	 jmp	 $LN44@CancelTabl
$LN43@CancelTabl:

; 3929 : 		{
; 3930 : 			m_dwPersonalPlayCount = 0;

  00635	8b 45 f8	 mov	 eax, DWORD PTR _this$[ebp]
  00638	c7 80 20 10 00
	00 00 00 00 00	 mov	 DWORD PTR [eax+4128], 0

; 3931 : 			m_cbLoopCount = 0;

  00642	8b 45 f8	 mov	 eax, DWORD PTR _this$[ebp]
  00645	c6 80 9c 11 00
	00 00		 mov	 BYTE PTR [eax+4508], 0

; 3932 : 			WORD wDataSize = sizeof(CMD_GR_PersonalTableEnd) - sizeof(PersonalTableEnd.lScore) + sizeof(LONGLONG) * m_wChairCount;

  0064c	8b 45 f8	 mov	 eax, DWORD PTR _this$[ebp]
  0064f	0f b7 48 0a	 movzx	 ecx, WORD PTR [eax+10]
  00653	8d 14 cd 8c 04
	00 00		 lea	 edx, DWORD PTR [ecx*8+1164]
  0065a	66 89 95 d4 f2
	ff ff		 mov	 WORD PTR _wDataSize$5[ebp], dx

; 3933 : 			for(int i = 0; i < m_wChairCount; ++i)

  00661	c7 85 d0 f2 ff
	ff 00 00 00 00	 mov	 DWORD PTR _i$4[ebp], 0
  0066b	eb 0f		 jmp	 SHORT $LN19@CancelTabl
$LN17@CancelTabl:
  0066d	8b 85 d0 f2 ff
	ff		 mov	 eax, DWORD PTR _i$4[ebp]
  00673	83 c0 01	 add	 eax, 1
  00676	89 85 d0 f2 ff
	ff		 mov	 DWORD PTR _i$4[ebp], eax
$LN19@CancelTabl:
  0067c	8b 45 f8	 mov	 eax, DWORD PTR _this$[ebp]
  0067f	0f b7 48 0a	 movzx	 ecx, WORD PTR [eax+10]
  00683	39 8d d0 f2 ff
	ff		 cmp	 DWORD PTR _i$4[ebp], ecx
  00689	7d 5e		 jge	 SHORT $LN18@CancelTabl

; 3934 : 			{
; 3935 : 				IServerUserItem* pTableUserItem = GetTableUserItem(i);

  0068b	0f b7 85 d0 f2
	ff ff		 movzx	 eax, WORD PTR _i$4[ebp]
  00692	50		 push	 eax
  00693	8b 4d f8	 mov	 ecx, DWORD PTR _this$[ebp]
  00696	8b 11		 mov	 edx, DWORD PTR [ecx]
  00698	8b 4d f8	 mov	 ecx, DWORD PTR _this$[ebp]
  0069b	8b 82 9c 00 00
	00		 mov	 eax, DWORD PTR [edx+156]
  006a1	ff d0		 call	 eax
  006a3	89 85 cc f2 ff
	ff		 mov	 DWORD PTR _pTableUserItem$3[ebp], eax

; 3936 : 				if(pTableUserItem == NULL) continue;

  006a9	83 bd cc f2 ff
	ff 00		 cmp	 DWORD PTR _pTableUserItem$3[ebp], 0
  006b0	75 02		 jne	 SHORT $LN45@CancelTabl
  006b2	eb b9		 jmp	 SHORT $LN17@CancelTabl
$LN45@CancelTabl:

; 3937 : 
; 3938 : 				m_pIMainServiceFrame->SendData(pTableUserItem, MDM_GR_PERSONAL_TABLE, SUB_GR_PERSONAL_TABLE_END, &PersonalTableEnd, sizeof(CMD_GR_PersonalTableEnd));

  006b4	68 cc 0a 00 00	 push	 2764			; 00000accH
  006b9	8d 85 dc f2 ff
	ff		 lea	 eax, DWORD PTR _PersonalTableEnd$7[ebp]
  006bf	50		 push	 eax
  006c0	6a 0a		 push	 10			; 0000000aH
  006c2	68 d2 00 00 00	 push	 210			; 000000d2H
  006c7	8b 8d cc f2 ff
	ff		 mov	 ecx, DWORD PTR _pTableUserItem$3[ebp]
  006cd	51		 push	 ecx
  006ce	8b 55 f8	 mov	 edx, DWORD PTR _this$[ebp]
  006d1	8b 82 cc 0f 00
	00		 mov	 eax, DWORD PTR [edx+4044]
  006d7	8b 4d f8	 mov	 ecx, DWORD PTR _this$[ebp]
  006da	8b 10		 mov	 edx, DWORD PTR [eax]
  006dc	8b 89 cc 0f 00
	00		 mov	 ecx, DWORD PTR [ecx+4044]
  006e2	8b 42 1c	 mov	 eax, DWORD PTR [edx+28]
  006e5	ff d0		 call	 eax

; 3939 : 
; 3940 : 				//	PerformStandUpAction(pTableUserItem);
; 3941 : 			}

  006e7	eb 84		 jmp	 SHORT $LN17@CancelTabl
$LN18@CancelTabl:

; 3942 : 
; 3943 : 			//防止客户端因为状态为free获取不到用户指针
; 3944 : 			for(int i = 0; i < m_wChairCount; ++i)

  006e9	c7 85 c8 f2 ff
	ff 00 00 00 00	 mov	 DWORD PTR _i$2[ebp], 0
  006f3	eb 0f		 jmp	 SHORT $LN22@CancelTabl
$LN20@CancelTabl:
  006f5	8b 85 c8 f2 ff
	ff		 mov	 eax, DWORD PTR _i$2[ebp]
  006fb	83 c0 01	 add	 eax, 1
  006fe	89 85 c8 f2 ff
	ff		 mov	 DWORD PTR _i$2[ebp], eax
$LN22@CancelTabl:
  00704	8b 45 f8	 mov	 eax, DWORD PTR _this$[ebp]
  00707	0f b7 48 0a	 movzx	 ecx, WORD PTR [eax+10]
  0070b	39 8d c8 f2 ff
	ff		 cmp	 DWORD PTR _i$2[ebp], ecx
  00711	7d 44		 jge	 SHORT $LN21@CancelTabl

; 3945 : 			{
; 3946 : 				IServerUserItem* pTableUserItem = GetTableUserItem(i);

  00713	0f b7 85 c8 f2
	ff ff		 movzx	 eax, WORD PTR _i$2[ebp]
  0071a	50		 push	 eax
  0071b	8b 4d f8	 mov	 ecx, DWORD PTR _this$[ebp]
  0071e	8b 11		 mov	 edx, DWORD PTR [ecx]
  00720	8b 4d f8	 mov	 ecx, DWORD PTR _this$[ebp]
  00723	8b 82 9c 00 00
	00		 mov	 eax, DWORD PTR [edx+156]
  00729	ff d0		 call	 eax
  0072b	89 85 c4 f2 ff
	ff		 mov	 DWORD PTR _pTableUserItem$1[ebp], eax

; 3947 : 				if(pTableUserItem == NULL) continue;

  00731	83 bd c4 f2 ff
	ff 00		 cmp	 DWORD PTR _pTableUserItem$1[ebp], 0
  00738	75 02		 jne	 SHORT $LN46@CancelTabl
  0073a	eb b9		 jmp	 SHORT $LN20@CancelTabl
$LN46@CancelTabl:

; 3948 : 
; 3949 : 				PerformStandUpAction(pTableUserItem);

  0073c	6a 00		 push	 0
  0073e	8b 85 c4 f2 ff
	ff		 mov	 eax, DWORD PTR _pTableUserItem$1[ebp]
  00744	50		 push	 eax
  00745	8b 4d f8	 mov	 ecx, DWORD PTR _this$[ebp]
  00748	8b 11		 mov	 edx, DWORD PTR [ecx]
  0074a	8b 4d f8	 mov	 ecx, DWORD PTR _this$[ebp]
  0074d	8b 82 d8 00 00
	00		 mov	 eax, DWORD PTR [edx+216]
  00753	ff d0		 call	 eax

; 3950 : 			}

  00755	eb 9e		 jmp	 SHORT $LN20@CancelTabl
$LN21@CancelTabl:

; 3951 : 			m_pIMainServiceFrame->DismissPersonalTable(m_pGameServiceOption->wServerID, m_wTableID);

  00757	8b 45 f8	 mov	 eax, DWORD PTR _this$[ebp]
  0075a	0f b7 48 08	 movzx	 ecx, WORD PTR [eax+8]
  0075e	51		 push	 ecx
  0075f	8b 55 f8	 mov	 edx, DWORD PTR _this$[ebp]
  00762	8b 82 f0 0f 00
	00		 mov	 eax, DWORD PTR [edx+4080]
  00768	0f b7 48 06	 movzx	 ecx, WORD PTR [eax+6]
  0076c	51		 push	 ecx
  0076d	8b 55 f8	 mov	 edx, DWORD PTR _this$[ebp]
  00770	8b 82 cc 0f 00
	00		 mov	 eax, DWORD PTR [edx+4044]
  00776	8b 4d f8	 mov	 ecx, DWORD PTR _this$[ebp]
  00779	8b 10		 mov	 edx, DWORD PTR [eax]
  0077b	8b 89 cc 0f 00
	00		 mov	 ecx, DWORD PTR [ecx+4044]
  00781	8b 42 44	 mov	 eax, DWORD PTR [edx+68]
  00784	ff d0		 call	 eax
$LN44@CancelTabl:

; 3952 : 		}
; 3953 : 
; 3954 : 		//桌子设置
; 3955 : 		m_pTableOwnerUser = NULL;

  00786	8b 45 f8	 mov	 eax, DWORD PTR _this$[ebp]
  00789	c7 80 14 10 00
	00 00 00 00 00	 mov	 DWORD PTR [eax+4116], 0

; 3956 : 		//m_bPersonalLock = false;
; 3957 : 		m_dwTimeBegin = 0;

  00793	8b 45 f8	 mov	 eax, DWORD PTR _this$[ebp]
  00796	c7 80 30 10 00
	00 00 00 00 00	 mov	 DWORD PTR [eax+4144], 0

; 3958 : 		m_dwReplyCount = 0;

  007a0	8b 45 f8	 mov	 eax, DWORD PTR _this$[ebp]
  007a3	c7 80 44 10 00
	00 00 00 00 00	 mov	 DWORD PTR [eax+4164], 0

; 3959 : 		m_cbIsRequestOver = 0;

  007ad	8b 45 f8	 mov	 eax, DWORD PTR _this$[ebp]
  007b0	c6 80 11 11 00
	00 00		 mov	 BYTE PTR [eax+4369], 0

; 3960 : 		m_cbRequestUser = 0;

  007b7	8b 45 f8	 mov	 eax, DWORD PTR _this$[ebp]
  007ba	c6 80 10 11 00
	00 00		 mov	 BYTE PTR [eax+4368], 0

; 3961 : 		ZeroMemory(m_cbRequestReply,sizeof(m_cbRequestReply));

  007c1	68 c8 00 00 00	 push	 200			; 000000c8H
  007c6	6a 00		 push	 0
  007c8	8b 45 f8	 mov	 eax, DWORD PTR _this$[ebp]
  007cb	05 48 10 00 00	 add	 eax, 4168		; 00001048H
  007d0	50		 push	 eax
  007d1	e8 00 00 00 00	 call	 _memset
  007d6	83 c4 0c	 add	 esp, 12			; 0000000cH

; 3962 : 		m_MapPersonalTableScoreInfo.RemoveAll();

  007d9	8b 4d f8	 mov	 ecx, DWORD PTR _this$[ebp]
  007dc	81 c1 14 11 00
	00		 add	 ecx, 4372		; 00001114H
  007e2	e8 00 00 00 00	 call	 ?RemoveAll@?$CMap@KK_JAA_J@@QAEXXZ ; CMap<unsigned long,unsigned long,__int64,__int64 &>::RemoveAll
$LN40@CancelTabl:

; 3963 : 
; 3964 : 	}
; 3965 : 
; 3966 : 	return true;

  007e7	b0 01		 mov	 al, 1
$LN1@CancelTabl:

; 3967 : }

  007e9	5f		 pop	 edi
  007ea	5e		 pop	 esi
  007eb	5b		 pop	 ebx
  007ec	8b 4d fc	 mov	 ecx, DWORD PTR __$ArrayPad$[ebp]
  007ef	33 cd		 xor	 ecx, ebp
  007f1	e8 00 00 00 00	 call	 @__security_check_cookie@4
  007f6	8b e5		 mov	 esp, ebp
  007f8	5d		 pop	 ebp
  007f9	c2 08 00	 ret	 8
?CancelTableRequestReply@CTableFrame@@UAE_NKE@Z ENDP	; CTableFrame::CancelTableRequestReply
_TEXT	ENDS
; Function compile flags: /Odtp /ZI
; File g:\网狐\happygamewh\服务端\系统模块\服务器组件\游戏服务器\tableframe.cpp
;	COMDAT ?CancelTableRequest@CTableFrame@@UAE_NKG@Z
_TEXT	SEGMENT
_pUserItem$ = -8					; size = 4
_this$ = -4						; size = 4
_dwUserID$ = 8						; size = 4
_dwChairID$ = 12					; size = 2
?CancelTableRequest@CTableFrame@@UAE_NKG@Z PROC		; CTableFrame::CancelTableRequest, COMDAT
; _this$ = ecx

; 3745 : {

  00000	55		 push	 ebp
  00001	8b ec		 mov	 ebp, esp
  00003	83 ec 48	 sub	 esp, 72			; 00000048H
  00006	53		 push	 ebx
  00007	56		 push	 esi
  00008	57		 push	 edi
  00009	89 4d fc	 mov	 DWORD PTR _this$[ebp], ecx

; 3746 : 	if (m_cbIsRequestOver)

  0000c	8b 45 fc	 mov	 eax, DWORD PTR _this$[ebp]
  0000f	0f b6 88 11 11
	00 00		 movzx	 ecx, BYTE PTR [eax+4369]
  00016	85 c9		 test	 ecx, ecx
  00018	74 07		 je	 SHORT $LN2@CancelTabl

; 3747 : 	{
; 3748 : 		return false;

  0001a	32 c0		 xor	 al, al
  0001c	e9 54 01 00 00	 jmp	 $LN1@CancelTabl
$LN2@CancelTabl:

; 3749 : 	}
; 3750 : 
; 3751 : 	//校验用户
; 3752 : 	IServerUserItem* pUserItem = GetTableUserItem(dwChairID);

  00021	0f b7 45 0c	 movzx	 eax, WORD PTR _dwChairID$[ebp]
  00025	50		 push	 eax
  00026	8b 4d fc	 mov	 ecx, DWORD PTR _this$[ebp]
  00029	8b 11		 mov	 edx, DWORD PTR [ecx]
  0002b	8b 4d fc	 mov	 ecx, DWORD PTR _this$[ebp]
  0002e	8b 82 9c 00 00
	00		 mov	 eax, DWORD PTR [edx+156]
  00034	ff d0		 call	 eax
  00036	89 45 f8	 mov	 DWORD PTR _pUserItem$[ebp], eax

; 3753 : 	if(pUserItem == NULL) return false;

  00039	83 7d f8 00	 cmp	 DWORD PTR _pUserItem$[ebp], 0
  0003d	75 07		 jne	 SHORT $LN3@CancelTabl
  0003f	32 c0		 xor	 al, al
  00041	e9 2f 01 00 00	 jmp	 $LN1@CancelTabl
$LN3@CancelTabl:

; 3754 : 	if(pUserItem->GetUserID() != dwUserID) return false;

  00046	8b 45 f8	 mov	 eax, DWORD PTR _pUserItem$[ebp]
  00049	8b 10		 mov	 edx, DWORD PTR [eax]
  0004b	8b 4d f8	 mov	 ecx, DWORD PTR _pUserItem$[ebp]
  0004e	8b 42 5c	 mov	 eax, DWORD PTR [edx+92]
  00051	ff d0		 call	 eax
  00053	3b 45 08	 cmp	 eax, DWORD PTR _dwUserID$[ebp]
  00056	74 07		 je	 SHORT $LN4@CancelTabl
  00058	32 c0		 xor	 al, al
  0005a	e9 16 01 00 00	 jmp	 $LN1@CancelTabl
$LN4@CancelTabl:

; 3755 : 
; 3756 : 	if(m_wUserCount == 1 && pUserItem->GetUserID() == m_dwTableOwnerID)//m_PersonalTableParameter.cbIsJoinGame)

  0005f	8b 45 fc	 mov	 eax, DWORD PTR _this$[ebp]
  00062	0f b7 48 0e	 movzx	 ecx, WORD PTR [eax+14]
  00066	83 f9 01	 cmp	 ecx, 1
  00069	0f 85 90 00 00
	00		 jne	 $LN5@CancelTabl
  0006f	8b 45 f8	 mov	 eax, DWORD PTR _pUserItem$[ebp]
  00072	8b 10		 mov	 edx, DWORD PTR [eax]
  00074	8b 4d f8	 mov	 ecx, DWORD PTR _pUserItem$[ebp]
  00077	8b 42 5c	 mov	 eax, DWORD PTR [edx+92]
  0007a	ff d0		 call	 eax
  0007c	8b 4d fc	 mov	 ecx, DWORD PTR _this$[ebp]
  0007f	3b 81 40 07 00
	00		 cmp	 eax, DWORD PTR [ecx+1856]
  00085	75 78		 jne	 SHORT $LN5@CancelTabl

; 3757 : 	{
; 3758 : 		//退还费用
; 3759 : 		KillGameTimer(IDI_PERSONAL_BEFORE_BEGAIN_TIME);

  00087	6a 2b		 push	 43			; 0000002bH
  00089	8b 45 fc	 mov	 eax, DWORD PTR _this$[ebp]
  0008c	8b 10		 mov	 edx, DWORD PTR [eax]
  0008e	8b 4d fc	 mov	 ecx, DWORD PTR _this$[ebp]
  00091	8b 82 a8 00 00
	00		 mov	 eax, DWORD PTR [edx+168]
  00097	ff d0		 call	 eax

; 3760 : 
; 3761 : 		m_pIMainServiceFrame->CancelCreateTable(m_dwTableOwnerID, m_dwDrawCountLimit, m_dwDrawTimeLimit, CANCELTABLE_REASON_ENFOCE, m_wTableID, m_dwPersonalRoomID);

  00099	8b 45 fc	 mov	 eax, DWORD PTR _this$[ebp]
  0009c	8b 88 30 11 00
	00		 mov	 ecx, DWORD PTR [eax+4400]
  000a2	51		 push	 ecx
  000a3	8b 55 fc	 mov	 edx, DWORD PTR _this$[ebp]
  000a6	0f b7 42 08	 movzx	 eax, WORD PTR [edx+8]
  000aa	50		 push	 eax
  000ab	6a 02		 push	 2
  000ad	8b 4d fc	 mov	 ecx, DWORD PTR _this$[ebp]
  000b0	8b 91 1c 10 00
	00		 mov	 edx, DWORD PTR [ecx+4124]
  000b6	52		 push	 edx
  000b7	8b 45 fc	 mov	 eax, DWORD PTR _this$[ebp]
  000ba	8b 88 18 10 00
	00		 mov	 ecx, DWORD PTR [eax+4120]
  000c0	51		 push	 ecx
  000c1	8b 55 fc	 mov	 edx, DWORD PTR _this$[ebp]
  000c4	8b 82 40 07 00
	00		 mov	 eax, DWORD PTR [edx+1856]
  000ca	50		 push	 eax
  000cb	8b 4d fc	 mov	 ecx, DWORD PTR _this$[ebp]
  000ce	8b 91 cc 0f 00
	00		 mov	 edx, DWORD PTR [ecx+4044]
  000d4	8b 45 fc	 mov	 eax, DWORD PTR _this$[ebp]
  000d7	8b 12		 mov	 edx, DWORD PTR [edx]
  000d9	8b 88 cc 0f 00
	00		 mov	 ecx, DWORD PTR [eax+4044]
  000df	8b 42 48	 mov	 eax, DWORD PTR [edx+72]
  000e2	ff d0		 call	 eax

; 3762 : 		m_dwPersonalPlayCount = 0;

  000e4	8b 45 fc	 mov	 eax, DWORD PTR _this$[ebp]
  000e7	c7 80 20 10 00
	00 00 00 00 00	 mov	 DWORD PTR [eax+4128], 0

; 3763 : 		m_cbLoopCount = 0;

  000f1	8b 45 fc	 mov	 eax, DWORD PTR _this$[ebp]
  000f4	c6 80 9c 11 00
	00 00		 mov	 BYTE PTR [eax+4508], 0

; 3764 : 		return true;

  000fb	b0 01		 mov	 al, 1
  000fd	eb 76		 jmp	 SHORT $LN1@CancelTabl
$LN5@CancelTabl:

; 3765 : 	}
; 3766 : 	m_dwReplyCount = 1;

  000ff	8b 45 fc	 mov	 eax, DWORD PTR _this$[ebp]
  00102	c7 80 44 10 00
	00 01 00 00 00	 mov	 DWORD PTR [eax+4164], 1

; 3767 : 	m_cbIsRequestOver = 1;

  0010c	8b 45 fc	 mov	 eax, DWORD PTR _this$[ebp]
  0010f	c6 80 11 11 00
	00 01		 mov	 BYTE PTR [eax+4369], 1

; 3768 : 	m_cbRequestUser = (BYTE)dwChairID;

  00116	8b 45 fc	 mov	 eax, DWORD PTR _this$[ebp]
  00119	8a 4d 0c	 mov	 cl, BYTE PTR _dwChairID$[ebp]
  0011c	88 88 10 11 00
	00		 mov	 BYTE PTR [eax+4368], cl

; 3769 : 	ZeroMemory(m_cbRequestReply,sizeof(m_cbRequestReply));

  00122	68 c8 00 00 00	 push	 200			; 000000c8H
  00127	6a 00		 push	 0
  00129	8b 45 fc	 mov	 eax, DWORD PTR _this$[ebp]
  0012c	05 48 10 00 00	 add	 eax, 4168		; 00001048H
  00131	50		 push	 eax
  00132	e8 00 00 00 00	 call	 _memset
  00137	83 c4 0c	 add	 esp, 12			; 0000000cH

; 3770 : 	m_cbRequestReply[dwChairID] = 1;

  0013a	0f b7 45 0c	 movzx	 eax, WORD PTR _dwChairID$[ebp]
  0013e	8b 4d fc	 mov	 ecx, DWORD PTR _this$[ebp]
  00141	c6 84 01 48 10
	00 00 01	 mov	 BYTE PTR [ecx+eax+4168], 1

; 3771 : 	m_dwDealCancel = GetTickCount();

  00149	ff 15 00 00 00
	00		 call	 DWORD PTR __imp__GetTickCount@0
  0014f	8b 4d fc	 mov	 ecx, DWORD PTR _this$[ebp]
  00152	89 81 cc 46 00
	00		 mov	 DWORD PTR [ecx+18124], eax

; 3772 : 
; 3773 : 	SetGameTimer(IDI_TIME_CANCEL, TIME_CANCEL,1,NULL);

  00158	6a 00		 push	 0
  0015a	6a 01		 push	 1
  0015c	68 f0 49 02 00	 push	 150000			; 000249f0H
  00161	6a 2e		 push	 46			; 0000002eH
  00163	8b 45 fc	 mov	 eax, DWORD PTR _this$[ebp]
  00166	8b 10		 mov	 edx, DWORD PTR [eax]
  00168	8b 4d fc	 mov	 ecx, DWORD PTR _this$[ebp]
  0016b	8b 82 a4 00 00
	00		 mov	 eax, DWORD PTR [edx+164]
  00171	ff d0		 call	 eax

; 3774 : 
; 3775 : 	return true;

  00173	b0 01		 mov	 al, 1
$LN1@CancelTabl:

; 3776 : }

  00175	5f		 pop	 edi
  00176	5e		 pop	 esi
  00177	5b		 pop	 ebx
  00178	8b e5		 mov	 esp, ebp
  0017a	5d		 pop	 ebp
  0017b	c2 08 00	 ret	 8
?CancelTableRequest@CTableFrame@@UAE_NKG@Z ENDP		; CTableFrame::CancelTableRequest
_TEXT	ENDS
; Function compile flags: /Odtp /ZI
; File g:\网狐\happygamewh\服务端\系统模块\服务器组件\游戏服务器\tableframe.cpp
;	COMDAT ?SetTimerNotBeginAfterCreate@CTableFrame@@UAEXXZ
_TEXT	SEGMENT
_this$ = -4						; size = 4
?SetTimerNotBeginAfterCreate@CTableFrame@@UAEXXZ PROC	; CTableFrame::SetTimerNotBeginAfterCreate, COMDAT
; _this$ = ecx

; 4037 : {

  00000	55		 push	 ebp
  00001	8b ec		 mov	 ebp, esp
  00003	83 ec 44	 sub	 esp, 68			; 00000044H
  00006	53		 push	 ebx
  00007	56		 push	 esi
  00008	57		 push	 edi
  00009	89 4d fc	 mov	 DWORD PTR _this$[ebp], ecx

; 4038 : 	if (m_PersonalTableParameter.cbIsJoinGame)

  0000c	8b 45 fc	 mov	 eax, DWORD PTR _this$[ebp]
  0000f	0f b6 88 87 44
	00 00		 movzx	 ecx, BYTE PTR [eax+17543]
  00016	85 c9		 test	 ecx, ecx
  00018	74 02		 je	 SHORT $LN2@SetTimerNo

; 4039 : 	{
; 4040 : 		return;

  0001a	eb 27		 jmp	 SHORT $LN1@SetTimerNo
$LN2@SetTimerNo:

; 4041 : 	}
; 4042 : 
; 4043 : 	SetGameTimer(IDI_PERSONAL_AFTER_CREATE_ROOM_TIME, m_PersonalTableParameter.dwTimeAfterCreateRoom * 60 * 1000,1,NULL);

  0001c	6a 00		 push	 0
  0001e	6a 01		 push	 1
  00020	8b 45 fc	 mov	 eax, DWORD PTR _this$[ebp]
  00023	6b 88 94 44 00
	00 3c		 imul	 ecx, DWORD PTR [eax+17556], 60
  0002a	69 d1 e8 03 00
	00		 imul	 edx, ecx, 1000
  00030	52		 push	 edx
  00031	6a 2d		 push	 45			; 0000002dH
  00033	8b 45 fc	 mov	 eax, DWORD PTR _this$[ebp]
  00036	8b 10		 mov	 edx, DWORD PTR [eax]
  00038	8b 4d fc	 mov	 ecx, DWORD PTR _this$[ebp]
  0003b	8b 82 a4 00 00
	00		 mov	 eax, DWORD PTR [edx+164]
  00041	ff d0		 call	 eax
$LN1@SetTimerNo:

; 4044 : }

  00043	5f		 pop	 edi
  00044	5e		 pop	 esi
  00045	5b		 pop	 ebx
  00046	8b e5		 mov	 esp, ebp
  00048	5d		 pop	 ebp
  00049	c3		 ret	 0
?SetTimerNotBeginAfterCreate@CTableFrame@@UAEXXZ ENDP	; CTableFrame::SetTimerNotBeginAfterCreate
_TEXT	ENDS
; Function compile flags: /Odtp /ZI
; File g:\网狐\happygamewh\服务端\系统模块\服务器组件\游戏服务器\tableframe.cpp
;	COMDAT ?SetPersonalTableParameter@CTableFrame@@UAEXUtagPersonalTableParameter@@UtagPersonalRoomOption@@@Z
_TEXT	SEGMENT
_this$ = -4						; size = 4
_PersonalTableParameter$ = 8				; size = 48
_PersonalRoomOption$ = 56				; size = 113
?SetPersonalTableParameter@CTableFrame@@UAEXUtagPersonalTableParameter@@UtagPersonalRoomOption@@@Z PROC ; CTableFrame::SetPersonalTableParameter, COMDAT
; _this$ = ecx

; 3989 : {

  00000	55		 push	 ebp
  00001	8b ec		 mov	 ebp, esp
  00003	83 ec 44	 sub	 esp, 68			; 00000044H
  00006	53		 push	 ebx
  00007	56		 push	 esi
  00008	57		 push	 edi
  00009	89 4d fc	 mov	 DWORD PTR _this$[ebp], ecx

; 3990 : 	m_PersonalTableParameter = PersonalTableParameter;

  0000c	8b 7d fc	 mov	 edi, DWORD PTR _this$[ebp]
  0000f	81 c7 6c 44 00
	00		 add	 edi, 17516		; 0000446cH
  00015	b9 0c 00 00 00	 mov	 ecx, 12			; 0000000cH
  0001a	8d 75 08	 lea	 esi, DWORD PTR _PersonalTableParameter$[ebp]
  0001d	f3 a5		 rep movsd

; 3991 : 	m_dwDrawCountLimit = PersonalTableParameter.dwPlayTurnCount;

  0001f	8b 45 fc	 mov	 eax, DWORD PTR _this$[ebp]
  00022	8b 4d 1b	 mov	 ecx, DWORD PTR _PersonalTableParameter$[ebp+19]
  00025	89 88 18 10 00
	00		 mov	 DWORD PTR [eax+4120], ecx

; 3992 : 	m_dwDrawTimeLimit = PersonalTableParameter.dwPlayTimeLimit;

  0002b	8b 45 fc	 mov	 eax, DWORD PTR _this$[ebp]
  0002e	8b 4d 1f	 mov	 ecx, DWORD PTR _PersonalTableParameter$[ebp+23]
  00031	89 88 1c 10 00
	00		 mov	 DWORD PTR [eax+4124], ecx

; 3993 : 	m_PersonalRoomOption = PersonalRoomOption;

  00037	8b 7d fc	 mov	 edi, DWORD PTR _this$[ebp]
  0003a	81 c7 9c 44 00
	00		 add	 edi, 17564		; 0000449cH
  00040	b9 1c 00 00 00	 mov	 ecx, 28			; 0000001cH
  00045	8d 75 38	 lea	 esi, DWORD PTR _PersonalRoomOption$[ebp]
  00048	f3 a5		 rep movsd
  0004a	a4		 movsb

; 3994 : 
; 3995 : 	m_cbGameMode = PersonalTableParameter.cbGameMode;

  0004b	8b 45 fc	 mov	 eax, DWORD PTR _this$[ebp]
  0004e	8a 4d 08	 mov	 cl, BYTE PTR _PersonalTableParameter$[ebp]
  00051	88 88 d0 46 00
	00		 mov	 BYTE PTR [eax+18128], cl

; 3996 : 	m_dwPersonalPlayCount = 0; 

  00057	8b 45 fc	 mov	 eax, DWORD PTR _this$[ebp]
  0005a	c7 80 20 10 00
	00 00 00 00 00	 mov	 DWORD PTR [eax+4128], 0

; 3997 : 	m_cbLoopCount = 0;

  00064	8b 45 fc	 mov	 eax, DWORD PTR _this$[ebp]
  00067	c6 80 9c 11 00
	00 00		 mov	 BYTE PTR [eax+4508], 0

; 3998 : 	m_bIsEnfoceDissum = false;

  0006e	8b 45 fc	 mov	 eax, DWORD PTR _this$[ebp]
  00071	c6 80 9b 11 00
	00 00		 mov	 BYTE PTR [eax+4507], 0

; 3999 : 	m_bGameStarted = false;

  00078	8b 45 fc	 mov	 eax, DWORD PTR _this$[ebp]
  0007b	c6 40 10 00	 mov	 BYTE PTR [eax+16], 0

; 4000 : 	m_cbGameStatus=GAME_STATUS_FREE;

  0007f	8b 45 fc	 mov	 eax, DWORD PTR _this$[ebp]
  00082	c6 80 24 07 00
	00 00		 mov	 BYTE PTR [eax+1828], 0

; 4001 : 	memset(&m_PersonalUserScoreInfo, 0, sizeof(m_PersonalUserScoreInfo));

  00089	68 e0 2e 00 00	 push	 12000			; 00002ee0H
  0008e	6a 00		 push	 0
  00090	8b 45 fc	 mov	 eax, DWORD PTR _this$[ebp]
  00093	05 9d 11 00 00	 add	 eax, 4509		; 0000119dH
  00098	50		 push	 eax
  00099	e8 00 00 00 00	 call	 _memset
  0009e	83 c4 0c	 add	 esp, 12			; 0000000cH

; 4002 : 	m_bIsCancelBeforeOneTurn = false;

  000a1	8b 45 fc	 mov	 eax, DWORD PTR _this$[ebp]
  000a4	c6 80 c8 46 00
	00 00		 mov	 BYTE PTR [eax+18120], 0

; 4003 : 	ZeroMemory(m_dwPlayingUserID,sizeof(m_dwPlayingUserID));

  000ab	68 20 03 00 00	 push	 800			; 00000320H
  000b0	6a 00		 push	 0
  000b2	8b 45 fc	 mov	 eax, DWORD PTR _this$[ebp]
  000b5	05 fc 46 00 00	 add	 eax, 18172		; 000046fcH
  000ba	50		 push	 eax
  000bb	e8 00 00 00 00	 call	 _memset
  000c0	83 c4 0c	 add	 esp, 12			; 0000000cH

; 4004 : 
; 4005 : 	memset(&m_sysStartTime, 0, sizeof(m_sysStartTime));

  000c3	6a 10		 push	 16			; 00000010H
  000c5	6a 00		 push	 0
  000c7	8b 45 fc	 mov	 eax, DWORD PTR _this$[ebp]
  000ca	05 dc 46 00 00	 add	 eax, 18140		; 000046dcH
  000cf	50		 push	 eax
  000d0	e8 00 00 00 00	 call	 _memset
  000d5	83 c4 0c	 add	 esp, 12			; 0000000cH

; 4006 : 	memset(&m_sysEndTime, 0, sizeof(m_sysEndTime));

  000d8	6a 10		 push	 16			; 00000010H
  000da	6a 00		 push	 0
  000dc	8b 45 fc	 mov	 eax, DWORD PTR _this$[ebp]
  000df	05 ec 46 00 00	 add	 eax, 18156		; 000046ecH
  000e4	50		 push	 eax
  000e5	e8 00 00 00 00	 call	 _memset
  000ea	83 c4 0c	 add	 esp, 12			; 0000000cH

; 4007 : }

  000ed	5f		 pop	 edi
  000ee	5e		 pop	 esi
  000ef	5b		 pop	 ebx
  000f0	8b e5		 mov	 esp, ebp
  000f2	5d		 pop	 ebp
  000f3	c2 a4 00	 ret	 164			; 000000a4H
?SetPersonalTableParameter@CTableFrame@@UAEXUtagPersonalTableParameter@@UtagPersonalRoomOption@@@Z ENDP ; CTableFrame::SetPersonalTableParameter
_TEXT	ENDS
; Function compile flags: /Odtp /ZI
; File g:\网狐\happygamewh\服务端\系统模块\服务器组件\游戏服务器\tableframe.cpp
;	COMDAT ?SetPersonalTable@CTableFrame@@UAEXKK_J@Z
_TEXT	SEGMENT
_this$ = -4						; size = 4
_dwDrawCountLimit$ = 8					; size = 4
_dwDrawTimeLimit$ = 12					; size = 4
_lIniScore$ = 16					; size = 8
?SetPersonalTable@CTableFrame@@UAEXKK_J@Z PROC		; CTableFrame::SetPersonalTable, COMDAT
; _this$ = ecx

; 3979 : {

  00000	55		 push	 ebp
  00001	8b ec		 mov	 ebp, esp
  00003	83 ec 44	 sub	 esp, 68			; 00000044H
  00006	53		 push	 ebx
  00007	56		 push	 esi
  00008	57		 push	 edi
  00009	89 4d fc	 mov	 DWORD PTR _this$[ebp], ecx

; 3980 : 	m_dwDrawCountLimit = dwDrawCountLimit;

  0000c	8b 45 fc	 mov	 eax, DWORD PTR _this$[ebp]
  0000f	8b 4d 08	 mov	 ecx, DWORD PTR _dwDrawCountLimit$[ebp]
  00012	89 88 18 10 00
	00		 mov	 DWORD PTR [eax+4120], ecx

; 3981 : 	m_dwDrawTimeLimit = dwDrawTimeLimit;

  00018	8b 45 fc	 mov	 eax, DWORD PTR _this$[ebp]
  0001b	8b 4d 0c	 mov	 ecx, DWORD PTR _dwDrawTimeLimit$[ebp]
  0001e	89 88 1c 10 00
	00		 mov	 DWORD PTR [eax+4124], ecx

; 3982 : 	m_lIniScore = lIniScore;

  00024	8b 45 fc	 mov	 eax, DWORD PTR _this$[ebp]
  00027	8b 4d 10	 mov	 ecx, DWORD PTR _lIniScore$[ebp]
  0002a	89 88 28 10 00
	00		 mov	 DWORD PTR [eax+4136], ecx
  00030	8b 55 14	 mov	 edx, DWORD PTR _lIniScore$[ebp+4]
  00033	89 90 2c 10 00
	00		 mov	 DWORD PTR [eax+4140], edx

; 3983 : 
; 3984 : 	return;
; 3985 : }

  00039	5f		 pop	 edi
  0003a	5e		 pop	 esi
  0003b	5b		 pop	 ebx
  0003c	8b e5		 mov	 esp, ebp
  0003e	5d		 pop	 ebp
  0003f	c2 10 00	 ret	 16			; 00000010H
?SetPersonalTable@CTableFrame@@UAEXKK_J@Z ENDP		; CTableFrame::SetPersonalTable
_TEXT	ENDS
; Function compile flags: /Odtp /ZI
; File g:\网狐\happygamewh\服务端\系统模块\服务器组件\游戏服务器\tableframe.cpp
;	COMDAT ?GetRecordTableOwner@CTableFrame@@UAEKXZ
_TEXT	SEGMENT
_this$ = -4						; size = 4
?GetRecordTableOwner@CTableFrame@@UAEKXZ PROC		; CTableFrame::GetRecordTableOwner, COMDAT
; _this$ = ecx

; 4162 : {

  00000	55		 push	 ebp
  00001	8b ec		 mov	 ebp, esp
  00003	83 ec 44	 sub	 esp, 68			; 00000044H
  00006	53		 push	 ebx
  00007	56		 push	 esi
  00008	57		 push	 edi
  00009	89 4d fc	 mov	 DWORD PTR _this$[ebp], ecx

; 4163 : 		return  m_dwRecordTableID; 

  0000c	8b 45 fc	 mov	 eax, DWORD PTR _this$[ebp]
  0000f	8b 80 10 45 00
	00		 mov	 eax, DWORD PTR [eax+17680]

; 4164 : }

  00015	5f		 pop	 edi
  00016	5e		 pop	 esi
  00017	5b		 pop	 ebx
  00018	8b e5		 mov	 esp, ebp
  0001a	5d		 pop	 ebp
  0001b	c3		 ret	 0
?GetRecordTableOwner@CTableFrame@@UAEKXZ ENDP		; CTableFrame::GetRecordTableOwner
_TEXT	ENDS
; Function compile flags: /Odtp /ZI
; File g:\网狐\happygamewh\服务端\系统模块\服务器组件\游戏服务器\tableframe.h
;	COMDAT ?GetTableOwner@CTableFrame@@UAEKXZ
_TEXT	SEGMENT
_this$ = -4						; size = 4
?GetTableOwner@CTableFrame@@UAEKXZ PROC			; CTableFrame::GetTableOwner, COMDAT
; _this$ = ecx

; 413  : 	virtual DWORD GetTableOwner() { return m_dwTableOwnerID; };

  00000	55		 push	 ebp
  00001	8b ec		 mov	 ebp, esp
  00003	83 ec 44	 sub	 esp, 68			; 00000044H
  00006	53		 push	 ebx
  00007	56		 push	 esi
  00008	57		 push	 edi
  00009	89 4d fc	 mov	 DWORD PTR _this$[ebp], ecx
  0000c	8b 45 fc	 mov	 eax, DWORD PTR _this$[ebp]
  0000f	8b 80 40 07 00
	00		 mov	 eax, DWORD PTR [eax+1856]
  00015	5f		 pop	 edi
  00016	5e		 pop	 esi
  00017	5b		 pop	 ebx
  00018	8b e5		 mov	 esp, ebp
  0001a	5d		 pop	 ebp
  0001b	c3		 ret	 0
?GetTableOwner@CTableFrame@@UAEKXZ ENDP			; CTableFrame::GetTableOwner
_TEXT	ENDS
; Function compile flags: /Odtp /ZI
; File g:\网狐\happygamewh\服务端\系统模块\服务器组件\游戏服务器\tableframe.h
;	COMDAT ?SetTableOwner@CTableFrame@@UAEXK@Z
_TEXT	SEGMENT
_this$ = -4						; size = 4
_dwUserID$ = 8						; size = 4
?SetTableOwner@CTableFrame@@UAEXK@Z PROC		; CTableFrame::SetTableOwner, COMDAT
; _this$ = ecx

; 411  : 	virtual VOID SetTableOwner(DWORD dwUserID) { m_dwTableOwnerID = dwUserID; };

  00000	55		 push	 ebp
  00001	8b ec		 mov	 ebp, esp
  00003	83 ec 44	 sub	 esp, 68			; 00000044H
  00006	53		 push	 ebx
  00007	56		 push	 esi
  00008	57		 push	 edi
  00009	89 4d fc	 mov	 DWORD PTR _this$[ebp], ecx
  0000c	8b 45 fc	 mov	 eax, DWORD PTR _this$[ebp]
  0000f	8b 4d 08	 mov	 ecx, DWORD PTR _dwUserID$[ebp]
  00012	89 88 40 07 00
	00		 mov	 DWORD PTR [eax+1856], ecx
  00018	5f		 pop	 edi
  00019	5e		 pop	 esi
  0001a	5b		 pop	 ebx
  0001b	8b e5		 mov	 esp, ebp
  0001d	5d		 pop	 ebp
  0001e	c2 04 00	 ret	 4
?SetTableOwner@CTableFrame@@UAEXK@Z ENDP		; CTableFrame::SetTableOwner
_TEXT	ENDS
; Function compile flags: /Odtp /ZI
; File g:\网狐\happygamewh\服务端\系统模块\服务器组件\游戏服务器\tableframe.cpp
;	COMDAT ?GetPersonalTableParameter@CTableFrame@@UAE?AUtagPersonalTableParameter@@XZ
_TEXT	SEGMENT
_PersonalTableParameter$ = -56				; size = 48
_this$ = -8						; size = 4
__$ArrayPad$ = -4					; size = 4
___$ReturnUdt$ = 8					; size = 4
?GetPersonalTableParameter@CTableFrame@@UAE?AUtagPersonalTableParameter@@XZ PROC ; CTableFrame::GetPersonalTableParameter, COMDAT
; _this$ = ecx

; 4024 : {

  00000	55		 push	 ebp
  00001	8b ec		 mov	 ebp, esp
  00003	83 ec 78	 sub	 esp, 120		; 00000078H
  00006	a1 00 00 00 00	 mov	 eax, DWORD PTR ___security_cookie
  0000b	33 c5		 xor	 eax, ebp
  0000d	89 45 fc	 mov	 DWORD PTR __$ArrayPad$[ebp], eax
  00010	53		 push	 ebx
  00011	56		 push	 esi
  00012	57		 push	 edi
  00013	89 4d f8	 mov	 DWORD PTR _this$[ebp], ecx

; 4025 : 	tagPersonalTableParameter PersonalTableParameter;
; 4026 : 	ZeroMemory(&PersonalTableParameter, sizeof(tagPersonalTableParameter));

  00016	6a 30		 push	 48			; 00000030H
  00018	6a 00		 push	 0
  0001a	8d 45 c8	 lea	 eax, DWORD PTR _PersonalTableParameter$[ebp]
  0001d	50		 push	 eax
  0001e	e8 00 00 00 00	 call	 _memset
  00023	83 c4 0c	 add	 esp, 12			; 0000000cH

; 4027 : 
; 4028 : 	PersonalTableParameter.dwPlayTimeLimit = m_dwDrawTimeLimit;

  00026	8b 45 f8	 mov	 eax, DWORD PTR _this$[ebp]
  00029	8b 88 1c 10 00
	00		 mov	 ecx, DWORD PTR [eax+4124]
  0002f	89 4d df	 mov	 DWORD PTR _PersonalTableParameter$[ebp+23], ecx

; 4029 : 	PersonalTableParameter.dwPlayTurnCount = m_dwDrawCountLimit;

  00032	8b 45 f8	 mov	 eax, DWORD PTR _this$[ebp]
  00035	8b 88 18 10 00
	00		 mov	 ecx, DWORD PTR [eax+4120]
  0003b	89 4d db	 mov	 DWORD PTR _PersonalTableParameter$[ebp+19], ecx

; 4030 : 	PersonalTableParameter.lIniScore = m_lIniScore;

  0003e	8b 45 f8	 mov	 eax, DWORD PTR _this$[ebp]
  00041	8b 88 28 10 00
	00		 mov	 ecx, DWORD PTR [eax+4136]
  00047	89 4d c9	 mov	 DWORD PTR _PersonalTableParameter$[ebp+1], ecx
  0004a	8b 90 2c 10 00
	00		 mov	 edx, DWORD PTR [eax+4140]
  00050	89 55 cd	 mov	 DWORD PTR _PersonalTableParameter$[ebp+5], edx

; 4031 : 
; 4032 : 	return PersonalTableParameter;

  00053	b9 0c 00 00 00	 mov	 ecx, 12			; 0000000cH
  00058	8d 75 c8	 lea	 esi, DWORD PTR _PersonalTableParameter$[ebp]
  0005b	8b 7d 08	 mov	 edi, DWORD PTR ___$ReturnUdt$[ebp]
  0005e	f3 a5		 rep movsd
  00060	8b 45 08	 mov	 eax, DWORD PTR ___$ReturnUdt$[ebp]

; 4033 : }

  00063	5f		 pop	 edi
  00064	5e		 pop	 esi
  00065	5b		 pop	 ebx
  00066	8b 4d fc	 mov	 ecx, DWORD PTR __$ArrayPad$[ebp]
  00069	33 cd		 xor	 ecx, ebp
  0006b	e8 00 00 00 00	 call	 @__security_check_cookie@4
  00070	8b e5		 mov	 esp, ebp
  00072	5d		 pop	 ebp
  00073	c2 04 00	 ret	 4
?GetPersonalTableParameter@CTableFrame@@UAE?AUtagPersonalTableParameter@@XZ ENDP ; CTableFrame::GetPersonalTableParameter
_TEXT	ENDS
; Function compile flags: /Odtp /ZI
; File g:\网狐\happygamewh\服务端\系统模块\服务器组件\游戏服务器\tableframe.cpp
;	COMDAT ?GetPersonalScore@CTableFrame@@UAE_NKAA_J@Z
_TEXT	SEGMENT
_lScoretmp$ = -12					; size = 8
_this$ = -4						; size = 4
_dwUserID$ = 8						; size = 4
_lScore$ = 12						; size = 4
?GetPersonalScore@CTableFrame@@UAE_NKAA_J@Z PROC	; CTableFrame::GetPersonalScore, COMDAT
; _this$ = ecx

; 4011 : {

  00000	55		 push	 ebp
  00001	8b ec		 mov	 ebp, esp
  00003	83 ec 4c	 sub	 esp, 76			; 0000004cH
  00006	53		 push	 ebx
  00007	56		 push	 esi
  00008	57		 push	 edi
  00009	89 4d fc	 mov	 DWORD PTR _this$[ebp], ecx

; 4012 : 	LONGLONG lScoretmp = 0;

  0000c	0f 57 c0	 xorps	 xmm0, xmm0
  0000f	66 0f 13 45 f4	 movlpd	 QWORD PTR _lScoretmp$[ebp], xmm0

; 4013 : 	lScore = 0;

  00014	8b 45 0c	 mov	 eax, DWORD PTR _lScore$[ebp]
  00017	c7 00 00 00 00
	00		 mov	 DWORD PTR [eax], 0
  0001d	c7 40 04 00 00
	00 00		 mov	 DWORD PTR [eax+4], 0

; 4014 : 	if(m_MapPersonalTableScoreInfo.Lookup(dwUserID, lScoretmp) == TRUE)

  00024	8d 45 f4	 lea	 eax, DWORD PTR _lScoretmp$[ebp]
  00027	50		 push	 eax
  00028	8b 4d 08	 mov	 ecx, DWORD PTR _dwUserID$[ebp]
  0002b	51		 push	 ecx
  0002c	8b 4d fc	 mov	 ecx, DWORD PTR _this$[ebp]
  0002f	81 c1 14 11 00
	00		 add	 ecx, 4372		; 00001114H
  00035	e8 00 00 00 00	 call	 ?Lookup@?$CMap@KK_JAA_J@@QBEHKAA_J@Z ; CMap<unsigned long,unsigned long,__int64,__int64 &>::Lookup
  0003a	83 f8 01	 cmp	 eax, 1
  0003d	75 12		 jne	 SHORT $LN2@GetPersona

; 4015 : 	{
; 4016 : 		lScore = lScoretmp;

  0003f	8b 45 0c	 mov	 eax, DWORD PTR _lScore$[ebp]
  00042	8b 4d f4	 mov	 ecx, DWORD PTR _lScoretmp$[ebp]
  00045	89 08		 mov	 DWORD PTR [eax], ecx
  00047	8b 55 f8	 mov	 edx, DWORD PTR _lScoretmp$[ebp+4]
  0004a	89 50 04	 mov	 DWORD PTR [eax+4], edx

; 4017 : 		return true;

  0004d	b0 01		 mov	 al, 1
  0004f	eb 02		 jmp	 SHORT $LN1@GetPersona
$LN2@GetPersona:

; 4018 : 	}
; 4019 : 	return false;

  00051	32 c0		 xor	 al, al
$LN1@GetPersona:

; 4020 : }

  00053	5f		 pop	 edi
  00054	5e		 pop	 esi
  00055	5b		 pop	 ebx
  00056	8b e5		 mov	 esp, ebp
  00058	5d		 pop	 ebp
  00059	c2 08 00	 ret	 8
?GetPersonalScore@CTableFrame@@UAE_NKAA_J@Z ENDP	; CTableFrame::GetPersonalScore
_TEXT	ENDS
; Function compile flags: /Odtp /ZI
; File g:\网狐\happygamewh\服务端\系统模块\服务器组件\游戏服务器\tableframe.h
;	COMDAT ?SetPersonalTableLocked@CTableFrame@@UAEX_N@Z
_TEXT	SEGMENT
_this$ = -4						; size = 4
_bLocked$ = 8						; size = 1
?SetPersonalTableLocked@CTableFrame@@UAEX_N@Z PROC	; CTableFrame::SetPersonalTableLocked, COMDAT
; _this$ = ecx

; 402  : 	virtual VOID SetPersonalTableLocked(bool bLocked) { m_bPersonalLock = bLocked; }

  00000	55		 push	 ebp
  00001	8b ec		 mov	 ebp, esp
  00003	83 ec 44	 sub	 esp, 68			; 00000044H
  00006	53		 push	 ebx
  00007	56		 push	 esi
  00008	57		 push	 edi
  00009	89 4d fc	 mov	 DWORD PTR _this$[ebp], ecx
  0000c	8b 45 fc	 mov	 eax, DWORD PTR _this$[ebp]
  0000f	8a 4d 08	 mov	 cl, BYTE PTR _bLocked$[ebp]
  00012	88 88 9a 11 00
	00		 mov	 BYTE PTR [eax+4506], cl
  00018	5f		 pop	 edi
  00019	5e		 pop	 esi
  0001a	5b		 pop	 ebx
  0001b	8b e5		 mov	 esp, ebp
  0001d	5d		 pop	 ebp
  0001e	c2 04 00	 ret	 4
?SetPersonalTableLocked@CTableFrame@@UAEX_N@Z ENDP	; CTableFrame::SetPersonalTableLocked
_TEXT	ENDS
; Function compile flags: /Odtp /ZI
; File g:\网狐\happygamewh\服务端\系统模块\服务器组件\游戏服务器\tableframe.h
;	COMDAT ?IsPersonalTableLocked@CTableFrame@@UAE_NXZ
_TEXT	SEGMENT
_this$ = -4						; size = 4
?IsPersonalTableLocked@CTableFrame@@UAE_NXZ PROC	; CTableFrame::IsPersonalTableLocked, COMDAT
; _this$ = ecx

; 400  : 	virtual bool IsPersonalTableLocked() { return m_bPersonalLock; }

  00000	55		 push	 ebp
  00001	8b ec		 mov	 ebp, esp
  00003	83 ec 44	 sub	 esp, 68			; 00000044H
  00006	53		 push	 ebx
  00007	56		 push	 esi
  00008	57		 push	 edi
  00009	89 4d fc	 mov	 DWORD PTR _this$[ebp], ecx
  0000c	8b 45 fc	 mov	 eax, DWORD PTR _this$[ebp]
  0000f	8a 80 9a 11 00
	00		 mov	 al, BYTE PTR [eax+4506]
  00015	5f		 pop	 edi
  00016	5e		 pop	 esi
  00017	5b		 pop	 ebx
  00018	8b e5		 mov	 esp, ebp
  0001a	5d		 pop	 ebp
  0001b	c3		 ret	 0
?IsPersonalTableLocked@CTableFrame@@UAE_NXZ ENDP	; CTableFrame::IsPersonalTableLocked
_TEXT	ENDS
; Function compile flags: /Odtp /ZI
; File g:\网狐\happygamewh\服务端\系统模块\服务器组件\游戏服务器\tableframe.cpp
;	COMDAT ?RecordGameScore@CTableFrame@@QAEX_NK@Z
_TEXT	SEGMENT
tv83 = -10224						; size = 4
_wDataSize$1 = -9708					; size = 2
_wHeadSize$2 = -9704					; size = 2
_wIndex$3 = -9700					; size = 2
_pGameScoreRecord$4 = -9696				; size = 4
_i$5 = -9692						; size = 4
_startTime$6 = -9688					; size = 8
_GameScoreRecord$7 = -9680				; size = 9672
_this$ = -8						; size = 4
__$ArrayPad$ = -4					; size = 4
_bDrawStarted$ = 8					; size = 1
_dwStartGameTime$ = 12					; size = 4
?RecordGameScore@CTableFrame@@QAEX_NK@Z PROC		; CTableFrame::RecordGameScore, COMDAT
; _this$ = ecx

; 3663 : {

  00000	55		 push	 ebp
  00001	8b ec		 mov	 ebp, esp
  00003	b8 f0 27 00 00	 mov	 eax, 10224		; 000027f0H
  00008	e8 00 00 00 00	 call	 __chkstk
  0000d	a1 00 00 00 00	 mov	 eax, DWORD PTR ___security_cookie
  00012	33 c5		 xor	 eax, ebp
  00014	89 45 fc	 mov	 DWORD PTR __$ArrayPad$[ebp], eax
  00017	53		 push	 ebx
  00018	56		 push	 esi
  00019	57		 push	 edi
  0001a	89 4d f8	 mov	 DWORD PTR _this$[ebp], ecx

; 3664 : 	if (bDrawStarted==true)

  0001d	0f b6 45 08	 movzx	 eax, BYTE PTR _bDrawStarted$[ebp]
  00021	83 f8 01	 cmp	 eax, 1
  00024	0f 85 00 03 00
	00		 jne	 $LN1@RecordGame

; 3665 : 	{
; 3666 : 		//写入记录
; 3667 : 		if (CServerRule::IsRecordGameScore(m_pGameServiceOption->dwServerRule)==true)

  0002a	8b 45 f8	 mov	 eax, DWORD PTR _this$[ebp]
  0002d	8b 88 f0 0f 00
	00		 mov	 ecx, DWORD PTR [eax+4080]
  00033	8b 51 3c	 mov	 edx, DWORD PTR [ecx+60]
  00036	52		 push	 edx
  00037	e8 00 00 00 00	 call	 ?IsRecordGameScore@CServerRule@@SA_NK@Z ; CServerRule::IsRecordGameScore
  0003c	83 c4 04	 add	 esp, 4
  0003f	0f b6 c0	 movzx	 eax, al
  00042	83 f8 01	 cmp	 eax, 1
  00045	0f 85 ac 02 00
	00		 jne	 $LN6@RecordGame

; 3668 : 		{
; 3669 : 			//变量定义
; 3670 : 			DBR_GR_GameScoreRecord GameScoreRecord;
; 3671 : 			ZeroMemory(&GameScoreRecord,sizeof(GameScoreRecord));

  0004b	68 c8 25 00 00	 push	 9672			; 000025c8H
  00050	6a 00		 push	 0
  00052	8d 85 30 da ff
	ff		 lea	 eax, DWORD PTR _GameScoreRecord$7[ebp]
  00058	50		 push	 eax
  00059	e8 00 00 00 00	 call	 _memset
  0005e	83 c4 0c	 add	 esp, 12			; 0000000cH

; 3672 : 
; 3673 : 			//设置变量
; 3674 : 			GameScoreRecord.wTableID=m_wTableID;

  00061	8b 45 f8	 mov	 eax, DWORD PTR _this$[ebp]
  00064	66 8b 48 08	 mov	 cx, WORD PTR [eax+8]
  00068	66 89 8d 30 da
	ff ff		 mov	 WORD PTR _GameScoreRecord$7[ebp], cx

; 3675 : 			GameScoreRecord.dwPlayTimeCount=(bDrawStarted==true)?(DWORD)time(NULL)-m_dwDrawStartTime:0;

  0006f	0f b6 45 08	 movzx	 eax, BYTE PTR _bDrawStarted$[ebp]
  00073	83 f8 01	 cmp	 eax, 1
  00076	75 1b		 jne	 SHORT $LN16@RecordGame
  00078	6a 00		 push	 0
  0007a	e8 00 00 00 00	 call	 _time
  0007f	83 c4 04	 add	 esp, 4
  00082	8b 4d f8	 mov	 ecx, DWORD PTR _this$[ebp]
  00085	2b 81 28 07 00
	00		 sub	 eax, DWORD PTR [ecx+1832]
  0008b	89 85 10 d8 ff
	ff		 mov	 DWORD PTR tv83[ebp], eax
  00091	eb 0a		 jmp	 SHORT $LN17@RecordGame
$LN16@RecordGame:
  00093	c7 85 10 d8 ff
	ff 00 00 00 00	 mov	 DWORD PTR tv83[ebp], 0
$LN17@RecordGame:
  0009d	8b 95 10 d8 ff
	ff		 mov	 edx, DWORD PTR tv83[ebp]
  000a3	89 95 4c da ff
	ff		 mov	 DWORD PTR _GameScoreRecord$7[ebp+28], edx

; 3676 : 
; 3677 : 			//游戏时间
; 3678 : 			if(dwStartGameTime!=INVALID_DWORD)

  000a9	83 7d 0c ff	 cmp	 DWORD PTR _dwStartGameTime$[ebp], -1
  000ad	74 26		 je	 SHORT $LN7@RecordGame

; 3679 : 			{
; 3680 : 				CTime startTime(dwStartGameTime);

  000af	8b 45 0c	 mov	 eax, DWORD PTR _dwStartGameTime$[ebp]
  000b2	33 c9		 xor	 ecx, ecx
  000b4	51		 push	 ecx
  000b5	50		 push	 eax
  000b6	8d 8d 28 da ff
	ff		 lea	 ecx, DWORD PTR _startTime$6[ebp]
  000bc	e8 00 00 00 00	 call	 ??0CTime@ATL@@QAE@_J@Z	; ATL::CTime::CTime

; 3681 : 				startTime.GetAsSystemTime(GameScoreRecord.SystemTimeStart);

  000c1	8d 85 50 da ff
	ff		 lea	 eax, DWORD PTR _GameScoreRecord$7[ebp+32]
  000c7	50		 push	 eax
  000c8	8d 8d 28 da ff
	ff		 lea	 ecx, DWORD PTR _startTime$6[ebp]
  000ce	e8 00 00 00 00	 call	 ?GetAsSystemTime@CTime@ATL@@QBE_NAAU_SYSTEMTIME@@@Z ; ATL::CTime::GetAsSystemTime

; 3682 : 			}
; 3683 : 			else

  000d3	eb 2b		 jmp	 SHORT $LN8@RecordGame
$LN7@RecordGame:

; 3684 : 			{
; 3685 : 				GameScoreRecord.SystemTimeStart=m_SystemTimeStart;

  000d5	8b 45 f8	 mov	 eax, DWORD PTR _this$[ebp]
  000d8	05 2c 07 00 00	 add	 eax, 1836		; 0000072cH
  000dd	8b 08		 mov	 ecx, DWORD PTR [eax]
  000df	89 8d 50 da ff
	ff		 mov	 DWORD PTR _GameScoreRecord$7[ebp+32], ecx
  000e5	8b 50 04	 mov	 edx, DWORD PTR [eax+4]
  000e8	89 95 54 da ff
	ff		 mov	 DWORD PTR _GameScoreRecord$7[ebp+36], edx
  000ee	8b 48 08	 mov	 ecx, DWORD PTR [eax+8]
  000f1	89 8d 58 da ff
	ff		 mov	 DWORD PTR _GameScoreRecord$7[ebp+40], ecx
  000f7	8b 50 0c	 mov	 edx, DWORD PTR [eax+12]
  000fa	89 95 5c da ff
	ff		 mov	 DWORD PTR _GameScoreRecord$7[ebp+44], edx
$LN8@RecordGame:

; 3686 : 			}
; 3687 : 			GetLocalTime(&GameScoreRecord.SystemTimeConclude);

  00100	8d 85 60 da ff
	ff		 lea	 eax, DWORD PTR _GameScoreRecord$7[ebp+48]
  00106	50		 push	 eax
  00107	ff 15 00 00 00
	00		 call	 DWORD PTR __imp__GetLocalTime@4

; 3688 : 
; 3689 : 			//用户积分
; 3690 : 			for (INT_PTR i=0;i<m_GameScoreRecordActive.GetCount();i++)

  0010d	c7 85 24 da ff
	ff 00 00 00 00	 mov	 DWORD PTR _i$5[ebp], 0
  00117	eb 0f		 jmp	 SHORT $LN4@RecordGame
$LN2@RecordGame:
  00119	8b 85 24 da ff
	ff		 mov	 eax, DWORD PTR _i$5[ebp]
  0011f	83 c0 01	 add	 eax, 1
  00122	89 85 24 da ff
	ff		 mov	 DWORD PTR _i$5[ebp], eax
$LN4@RecordGame:
  00128	8b 4d f8	 mov	 ecx, DWORD PTR _this$[ebp]
  0012b	81 c1 f4 0f 00
	00		 add	 ecx, 4084		; 00000ff4H
  00131	e8 00 00 00 00	 call	 ?GetCount@?$CWHArray@PAUtagGameScoreRecord@@ABQAU1@@@QBEHXZ ; CWHArray<tagGameScoreRecord *,tagGameScoreRecord * const &>::GetCount
  00136	39 85 24 da ff
	ff		 cmp	 DWORD PTR _i$5[ebp], eax
  0013c	0f 8d 55 01 00
	00		 jge	 $LN3@RecordGame

; 3691 : 			{
; 3692 : 				//获取对象
; 3693 : 				ASSERT(m_GameScoreRecordActive[i]!=NULL);

  00142	8b 85 24 da ff
	ff		 mov	 eax, DWORD PTR _i$5[ebp]
  00148	50		 push	 eax
  00149	8b 4d f8	 mov	 ecx, DWORD PTR _this$[ebp]
  0014c	81 c1 f4 0f 00
	00		 add	 ecx, 4084		; 00000ff4H
  00152	e8 00 00 00 00	 call	 ??A?$CWHArray@PAUtagGameScoreRecord@@ABQAU1@@@QAEAAPAUtagGameScoreRecord@@H@Z ; CWHArray<tagGameScoreRecord *,tagGameScoreRecord * const &>::operator[]
  00157	83 38 00	 cmp	 DWORD PTR [eax], 0
  0015a	75 19		 jne	 SHORT $LN18@RecordGame
  0015c	8b 0d 00 00 00
	00		 mov	 ecx, DWORD PTR ?__LINE__Var@?0??RecordGameScore@CTableFrame@@QAEX_NK@Z@4JA
  00162	83 c1 1e	 add	 ecx, 30			; 0000001eH
  00165	51		 push	 ecx
  00166	68 00 00 00 00	 push	 OFFSET ?THIS_FILE@@3PADA
  0016b	e8 00 00 00 00	 call	 ?AfxAssertFailedLine@@YGHPBDH@Z ; AfxAssertFailedLine
  00170	85 c0		 test	 eax, eax
  00172	74 01		 je	 SHORT $LN18@RecordGame
  00174	cc		 int	 3
$LN18@RecordGame:

; 3694 : 				tagGameScoreRecord * pGameScoreRecord=m_GameScoreRecordActive[i];

  00175	8b 85 24 da ff
	ff		 mov	 eax, DWORD PTR _i$5[ebp]
  0017b	50		 push	 eax
  0017c	8b 4d f8	 mov	 ecx, DWORD PTR _this$[ebp]
  0017f	81 c1 f4 0f 00
	00		 add	 ecx, 4084		; 00000ff4H
  00185	e8 00 00 00 00	 call	 ??A?$CWHArray@PAUtagGameScoreRecord@@ABQAU1@@@QAEAAPAUtagGameScoreRecord@@H@Z ; CWHArray<tagGameScoreRecord *,tagGameScoreRecord * const &>::operator[]
  0018a	8b 08		 mov	 ecx, DWORD PTR [eax]
  0018c	89 8d 20 da ff
	ff		 mov	 DWORD PTR _pGameScoreRecord$4[ebp], ecx

; 3695 : 
; 3696 : 				//用户数目
; 3697 : 				if (pGameScoreRecord->cbAndroid==FALSE)

  00192	8b 85 20 da ff
	ff		 mov	 eax, DWORD PTR _pGameScoreRecord$4[ebp]
  00198	0f b6 48 06	 movzx	 ecx, BYTE PTR [eax+6]
  0019c	85 c9		 test	 ecx, ecx
  0019e	75 14		 jne	 SHORT $LN9@RecordGame

; 3698 : 				{
; 3699 : 					GameScoreRecord.wUserCount++;

  001a0	66 8b 85 32 da
	ff ff		 mov	 ax, WORD PTR _GameScoreRecord$7[ebp+2]
  001a7	66 83 c0 01	 add	 ax, 1
  001ab	66 89 85 32 da
	ff ff		 mov	 WORD PTR _GameScoreRecord$7[ebp+2], ax

; 3700 : 				}
; 3701 : 				else

  001b2	eb 12		 jmp	 SHORT $LN10@RecordGame
$LN9@RecordGame:

; 3702 : 				{
; 3703 : 					GameScoreRecord.wAndroidCount++;

  001b4	66 8b 85 34 da
	ff ff		 mov	 ax, WORD PTR _GameScoreRecord$7[ebp+4]
  001bb	66 83 c0 01	 add	 ax, 1
  001bf	66 89 85 34 da
	ff ff		 mov	 WORD PTR _GameScoreRecord$7[ebp+4], ax
$LN10@RecordGame:

; 3704 : 				}
; 3705 : 
; 3706 : 				//奖牌统计
; 3707 : 				GameScoreRecord.dwUserMemal+=pGameScoreRecord->dwUserMemal;

  001c6	8b 85 20 da ff
	ff		 mov	 eax, DWORD PTR _pGameScoreRecord$4[ebp]
  001cc	8b 8d 48 da ff
	ff		 mov	 ecx, DWORD PTR _GameScoreRecord$7[ebp+24]
  001d2	03 48 28	 add	 ecx, DWORD PTR [eax+40]
  001d5	89 8d 48 da ff
	ff		 mov	 DWORD PTR _GameScoreRecord$7[ebp+24], ecx

; 3708 : 
; 3709 : 				//统计信息
; 3710 : 				if (pGameScoreRecord->cbAndroid==FALSE)

  001db	8b 85 20 da ff
	ff		 mov	 eax, DWORD PTR _pGameScoreRecord$4[ebp]
  001e1	0f b6 48 06	 movzx	 ecx, BYTE PTR [eax+6]
  001e5	85 c9		 test	 ecx, ecx
  001e7	75 58		 jne	 SHORT $LN11@RecordGame

; 3711 : 				{
; 3712 : 					GameScoreRecord.lWasteCount-=(pGameScoreRecord->lScore+pGameScoreRecord->lRevenue);

  001e9	8b 85 20 da ff
	ff		 mov	 eax, DWORD PTR _pGameScoreRecord$4[ebp]
  001ef	8b 8d 20 da ff
	ff		 mov	 ecx, DWORD PTR _pGameScoreRecord$4[ebp]
  001f5	8b 50 08	 mov	 edx, DWORD PTR [eax+8]
  001f8	03 51 18	 add	 edx, DWORD PTR [ecx+24]
  001fb	8b 40 0c	 mov	 eax, DWORD PTR [eax+12]
  001fe	13 41 1c	 adc	 eax, DWORD PTR [ecx+28]
  00201	8b 8d 38 da ff
	ff		 mov	 ecx, DWORD PTR _GameScoreRecord$7[ebp+8]
  00207	2b ca		 sub	 ecx, edx
  00209	8b 95 3c da ff
	ff		 mov	 edx, DWORD PTR _GameScoreRecord$7[ebp+12]
  0020f	1b d0		 sbb	 edx, eax
  00211	89 8d 38 da ff
	ff		 mov	 DWORD PTR _GameScoreRecord$7[ebp+8], ecx
  00217	89 95 3c da ff
	ff		 mov	 DWORD PTR _GameScoreRecord$7[ebp+12], edx

; 3713 : 					GameScoreRecord.lRevenueCount+=pGameScoreRecord->lRevenue;

  0021d	8b 85 20 da ff
	ff		 mov	 eax, DWORD PTR _pGameScoreRecord$4[ebp]
  00223	8b 8d 40 da ff
	ff		 mov	 ecx, DWORD PTR _GameScoreRecord$7[ebp+16]
  00229	03 48 18	 add	 ecx, DWORD PTR [eax+24]
  0022c	8b 95 44 da ff
	ff		 mov	 edx, DWORD PTR _GameScoreRecord$7[ebp+20]
  00232	13 50 1c	 adc	 edx, DWORD PTR [eax+28]
  00235	89 8d 40 da ff
	ff		 mov	 DWORD PTR _GameScoreRecord$7[ebp+16], ecx
  0023b	89 95 44 da ff
	ff		 mov	 DWORD PTR _GameScoreRecord$7[ebp+20], edx
$LN11@RecordGame:

; 3714 : 				}
; 3715 : 
; 3716 : 				//成绩信息
; 3717 : 				if (GameScoreRecord.wRecordCount<CountArray(GameScoreRecord.GameScoreRecord))

  00241	0f b7 85 70 da
	ff ff		 movzx	 eax, WORD PTR _GameScoreRecord$7[ebp+64]
  00248	3d c8 00 00 00	 cmp	 eax, 200		; 000000c8H
  0024d	73 43		 jae	 SHORT $LN12@RecordGame

; 3718 : 				{
; 3719 : 					WORD wIndex=GameScoreRecord.wRecordCount++;

  0024f	66 8b 85 70 da
	ff ff		 mov	 ax, WORD PTR _GameScoreRecord$7[ebp+64]
  00256	66 89 85 1c da
	ff ff		 mov	 WORD PTR _wIndex$3[ebp], ax
  0025d	66 8b 8d 70 da
	ff ff		 mov	 cx, WORD PTR _GameScoreRecord$7[ebp+64]
  00264	66 83 c1 01	 add	 cx, 1
  00268	66 89 8d 70 da
	ff ff		 mov	 WORD PTR _GameScoreRecord$7[ebp+64], cx

; 3720 : 					CopyMemory(&GameScoreRecord.GameScoreRecord[wIndex],pGameScoreRecord,sizeof(tagGameScoreRecord));

  0026f	6a 30		 push	 48			; 00000030H
  00271	8b 85 20 da ff
	ff		 mov	 eax, DWORD PTR _pGameScoreRecord$4[ebp]
  00277	50		 push	 eax
  00278	0f b7 8d 1c da
	ff ff		 movzx	 ecx, WORD PTR _wIndex$3[ebp]
  0027f	6b d1 30	 imul	 edx, ecx, 48
  00282	8d 84 15 78 da
	ff ff		 lea	 eax, DWORD PTR _GameScoreRecord$7[ebp+edx+72]
  00289	50		 push	 eax
  0028a	e8 00 00 00 00	 call	 _memcpy
  0028f	83 c4 0c	 add	 esp, 12			; 0000000cH
$LN12@RecordGame:

; 3721 : 				}
; 3722 : 			}

  00292	e9 82 fe ff ff	 jmp	 $LN2@RecordGame
$LN3@RecordGame:

; 3723 : 
; 3724 : 			//投递数据
; 3725 : 			if(GameScoreRecord.wUserCount > 0)

  00297	0f b7 85 32 da
	ff ff		 movzx	 eax, WORD PTR _GameScoreRecord$7[ebp+2]
  0029e	85 c0		 test	 eax, eax
  002a0	7e 55		 jle	 SHORT $LN6@RecordGame

; 3726 : 			{
; 3727 : 				WORD wHeadSize=sizeof(GameScoreRecord)-sizeof(GameScoreRecord.GameScoreRecord);

  002a2	b8 48 00 00 00	 mov	 eax, 72			; 00000048H
  002a7	66 89 85 18 da
	ff ff		 mov	 WORD PTR _wHeadSize$2[ebp], ax

; 3728 : 				WORD wDataSize=sizeof(GameScoreRecord.GameScoreRecord[0])*GameScoreRecord.wRecordCount;

  002ae	0f b7 85 70 da
	ff ff		 movzx	 eax, WORD PTR _GameScoreRecord$7[ebp+64]
  002b5	6b c8 30	 imul	 ecx, eax, 48
  002b8	66 89 8d 14 da
	ff ff		 mov	 WORD PTR _wDataSize$1[ebp], cx

