; Listing generated by Microsoft (R) Optimizing Compiler Version 19.16.27032.1 

	TITLE	G:\网狐\HappyGameWH\服务端\系统模块\服务器组件\协调服务器\ServiceUnits.cpp
	.686P
	.XMM
	include listing.inc
	.model	flat

INCLUDELIB MSVCRTD
INCLUDELIB OLDNAMES

CONST	SEGMENT
?IID_IUnknownEx@@3U_GUID@@B DD 05feec21eH		; IID_IUnknownEx
	DW	0dbf3H
	DW	046f0H
	DB	09fH
	DB	057H
	DB	0d1H
	DB	0cdH
	DB	071H
	DB	01cH
	DB	046H
	DB	0deH
?szCompilation@@3QBDB DB 'ED56BE63-3026-465B-9DFC-17F595145F3D', 00H ; szCompilation
	ORG $+3
?IID_ITCPNetworkEngine@@3U_GUID@@B DD 07747f683H	; IID_ITCPNetworkEngine
	DW	0c0daH
	DW	04588H
	DB	089H
	DB	0ccH
	DB	015H
	DB	093H
	DB	0acH
	DB	0c0H
	DB	044H
	DB	0c8H
?IID_ITimerEngine@@3U_GUID@@B DD 0496401aeH		; IID_ITimerEngine
	DW	06fb0H
	DW	04e9fH
	DB	090H
	DB	098H
	DB	044H
	DB	09dH
	DB	09cH
	DB	0b2H
	DB	0bdH
	DB	097H
?IID_IAttemperEngine@@3U_GUID@@B DD 0b070b2cH		; IID_IAttemperEngine
	DW	09d72H
	DW	042d2H
	DB	0a5H
	DB	070H
	DB	0baH
	DB	02cH
	DB	0bfH
	DB	06fH
	DB	0bbH
	DB	01cH
CONST	ENDS
PUBLIC	?__empty_global_delete@@YAXPAX@Z		; __empty_global_delete
PUBLIC	?__empty_global_delete@@YAXPAXI@Z		; __empty_global_delete
PUBLIC	___local_stdio_printf_options
PUBLIC	__vswprintf_s_l
PUBLIC	_swprintf_s
PUBLIC	__vsnprintf_s_l
PUBLIC	__vsnprintf_s
PUBLIC	?AfxAssertFailedLine@@YGHPBDH@Z			; AfxAssertFailedLine
PUBLIC	??0?$CTraceCategoryEx@$0CAAA@$0A@@ATL@@QAE@PBD@Z ; ATL::CTraceCategoryEx<8192,0>::CTraceCategoryEx<8192,0>
PUBLIC	??0?$CTraceCategoryEx@$0CAAAA@$0A@@ATL@@QAE@PBD@Z ; ATL::CTraceCategoryEx<131072,0>::CTraceCategoryEx<131072,0>
PUBLIC	?RegisterCategory@CTrace@ATL@@SAXPBDI@Z		; ATL::CTrace::RegisterCategory
PUBLIC	??0?$CTempldateHelper@UITimerEngine@@@@QAE@ABU_GUID@@KPBD1@Z ; CTempldateHelper<ITimerEngine>::CTempldateHelper<ITimerEngine>
PUBLIC	??1?$CTempldateHelper@UITimerEngine@@@@UAE@XZ	; CTempldateHelper<ITimerEngine>::~CTempldateHelper<ITimerEngine>
PUBLIC	?CloseInstance@?$CTempldateHelper@UITimerEngine@@@@QAE_NXZ ; CTempldateHelper<ITimerEngine>::CloseInstance
PUBLIC	?CreateInstance@?$CTempldateHelper@UITimerEngine@@@@QAE_NXZ ; CTempldateHelper<ITimerEngine>::CreateInstance
PUBLIC	??C?$CTempldateHelper@UITimerEngine@@@@QBEPAUITimerEngine@@XZ ; CTempldateHelper<ITimerEngine>::operator->
PUBLIC	?GetInterface@?$CTempldateHelper@UITimerEngine@@@@QBEPAUITimerEngine@@XZ ; CTempldateHelper<ITimerEngine>::GetInterface
PUBLIC	??_G?$CTempldateHelper@UITimerEngine@@@@UAEPAXI@Z ; CTempldateHelper<ITimerEngine>::`scalar deleting destructor'
PUBLIC	??0CTimerEngineHelper@@QAE@XZ			; CTimerEngineHelper::CTimerEngineHelper
PUBLIC	??1CTimerEngineHelper@@UAE@XZ			; CTimerEngineHelper::~CTimerEngineHelper
PUBLIC	??_GCTimerEngineHelper@@UAEPAXI@Z		; CTimerEngineHelper::`scalar deleting destructor'
PUBLIC	??0?$CTempldateHelper@UIAttemperEngine@@@@QAE@ABU_GUID@@KPBD1@Z ; CTempldateHelper<IAttemperEngine>::CTempldateHelper<IAttemperEngine>
PUBLIC	??1?$CTempldateHelper@UIAttemperEngine@@@@UAE@XZ ; CTempldateHelper<IAttemperEngine>::~CTempldateHelper<IAttemperEngine>
PUBLIC	?CloseInstance@?$CTempldateHelper@UIAttemperEngine@@@@QAE_NXZ ; CTempldateHelper<IAttemperEngine>::CloseInstance
PUBLIC	?CreateInstance@?$CTempldateHelper@UIAttemperEngine@@@@QAE_NXZ ; CTempldateHelper<IAttemperEngine>::CreateInstance
PUBLIC	??C?$CTempldateHelper@UIAttemperEngine@@@@QBEPAUIAttemperEngine@@XZ ; CTempldateHelper<IAttemperEngine>::operator->
PUBLIC	?GetInterface@?$CTempldateHelper@UIAttemperEngine@@@@QBEPAUIAttemperEngine@@XZ ; CTempldateHelper<IAttemperEngine>::GetInterface
PUBLIC	??_G?$CTempldateHelper@UIAttemperEngine@@@@UAEPAXI@Z ; CTempldateHelper<IAttemperEngine>::`scalar deleting destructor'
PUBLIC	??0CAttemperEngineHelper@@QAE@XZ		; CAttemperEngineHelper::CAttemperEngineHelper
PUBLIC	??1CAttemperEngineHelper@@UAE@XZ		; CAttemperEngineHelper::~CAttemperEngineHelper
PUBLIC	??_GCAttemperEngineHelper@@UAEPAXI@Z		; CAttemperEngineHelper::`scalar deleting destructor'
PUBLIC	??0?$CTempldateHelper@UITCPNetworkEngine@@@@QAE@ABU_GUID@@KPBD1@Z ; CTempldateHelper<ITCPNetworkEngine>::CTempldateHelper<ITCPNetworkEngine>
PUBLIC	??1?$CTempldateHelper@UITCPNetworkEngine@@@@UAE@XZ ; CTempldateHelper<ITCPNetworkEngine>::~CTempldateHelper<ITCPNetworkEngine>
PUBLIC	?CloseInstance@?$CTempldateHelper@UITCPNetworkEngine@@@@QAE_NXZ ; CTempldateHelper<ITCPNetworkEngine>::CloseInstance
PUBLIC	?CreateInstance@?$CTempldateHelper@UITCPNetworkEngine@@@@QAE_NXZ ; CTempldateHelper<ITCPNetworkEngine>::CreateInstance
PUBLIC	??C?$CTempldateHelper@UITCPNetworkEngine@@@@QBEPAUITCPNetworkEngine@@XZ ; CTempldateHelper<ITCPNetworkEngine>::operator->
PUBLIC	?GetInterface@?$CTempldateHelper@UITCPNetworkEngine@@@@QBEPAUITCPNetworkEngine@@XZ ; CTempldateHelper<ITCPNetworkEngine>::GetInterface
PUBLIC	??_G?$CTempldateHelper@UITCPNetworkEngine@@@@UAEPAXI@Z ; CTempldateHelper<ITCPNetworkEngine>::`scalar deleting destructor'
PUBLIC	??0CTCPNetworkEngineHelper@@QAE@XZ		; CTCPNetworkEngineHelper::CTCPNetworkEngineHelper
PUBLIC	??1CTCPNetworkEngineHelper@@UAE@XZ		; CTCPNetworkEngineHelper::~CTCPNetworkEngineHelper
PUBLIC	??_GCTCPNetworkEngineHelper@@UAEPAXI@Z		; CTCPNetworkEngineHelper::`scalar deleting destructor'
PUBLIC	??0CServiceUnits@@QAE@XZ			; CServiceUnits::CServiceUnits
PUBLIC	??1CServiceUnits@@UAE@XZ			; CServiceUnits::~CServiceUnits
PUBLIC	?StartService@CServiceUnits@@QAE_NXZ		; CServiceUnits::StartService
PUBLIC	?ConcludeService@CServiceUnits@@QAE_NXZ		; CServiceUnits::ConcludeService
PUBLIC	?SetServiceUnitsSink@CServiceUnits@@QAE_NPAUIServiceUnitsSink@@@Z ; CServiceUnits::SetServiceUnitsSink
PUBLIC	?InitializeService@CServiceUnits@@IAE_NXZ	; CServiceUnits::InitializeService
PUBLIC	?StartKernelService@CServiceUnits@@IAE_NXZ	; CServiceUnits::StartKernelService
PUBLIC	?SetServiceStatus@CServiceUnits@@AAE_NW4enServiceStatus@@@Z ; CServiceUnits::SetServiceStatus
PUBLIC	??_GCServiceUnits@@UAEPAXI@Z			; CServiceUnits::`scalar deleting destructor'
PUBLIC	??$_snprintf_s@$0IA@@@YAHAAY0IA@DIPBDZZ		; _snprintf_s<128>
PUBLIC	?_OptionsStorage@?1??__local_stdio_printf_options@@9@4_KA ; `__local_stdio_printf_options'::`2'::_OptionsStorage
PUBLIC	??_C@_17CNPHIMPH@?$AA?$CF?$AAl?$AAs@		; `string'
PUBLIC	?atlTraceException@ATL@@3V?$CTraceCategoryEx@$0CAAA@$0A@@1@A ; ATL::atlTraceException
PUBLIC	??_C@_0BC@PGMFNIFA@atlTraceException@		; `string'
PUBLIC	?atlTraceString@ATL@@3V?$CTraceCategoryEx@$0CAAAA@$0A@@1@A ; ATL::atlTraceString
PUBLIC	??_C@_0P@MBNHGHMI@atlTraceString@		; `string'
PUBLIC	?m_nLastCategory@CTrace@ATL@@1IA		; ATL::CTrace::m_nLastCategory
PUBLIC	?m_nMap@CTrace@ATL@@1PAUCategoryMap@12@A	; ATL::CTrace::m_nMap
PUBLIC	??_C@_17LGGGMOOB@?$AA?$CF?$AAh?$AAs@		; `string'
PUBLIC	??_C@_1EO@EBPPKGOM@?$AAf?$AAa?$AAl?$AAs?$AAe?$AA?5?$AA?$CG?$AA?$CG?$AA?5?$AA?$CC?$AAT?$AAo?$AAo?$AA?5?$AAm@ ; `string'
PUBLIC	??_C@_1OE@PDFAMNPL@?$AAc?$AA?3?$AA?2?$AAp?$AAr?$AAo?$AAg?$AAr?$AAa?$AAm?$AA?5?$AAf?$AAi?$AAl?$AAe@ ; `string'
PUBLIC	??_C@_0BB@BEMLEOHB@KernelEngine?4dll@		; `string'
PUBLIC	??_7?$CTempldateHelper@UITimerEngine@@@@6B@	; CTempldateHelper<ITimerEngine>::`vftable'
PUBLIC	??_7CTimerEngineHelper@@6B@			; CTimerEngineHelper::`vftable'
PUBLIC	??_C@_0BC@PLOLBCGN@CreateTimerEngine@		; `string'
PUBLIC	??_7?$CTempldateHelper@UIAttemperEngine@@@@6B@	; CTempldateHelper<IAttemperEngine>::`vftable'
PUBLIC	??_7CAttemperEngineHelper@@6B@			; CAttemperEngineHelper::`vftable'
PUBLIC	??_C@_0BF@PBPGMLEA@CreateAttemperEngine@	; `string'
PUBLIC	??_7?$CTempldateHelper@UITCPNetworkEngine@@@@6B@ ; CTempldateHelper<ITCPNetworkEngine>::`vftable'
PUBLIC	??_7CTCPNetworkEngineHelper@@6B@		; CTCPNetworkEngineHelper::`vftable'
PUBLIC	??_C@_0BH@LEGJPFFH@CreateTCPNetworkEngine@	; `string'
PUBLIC	??_R4CTimerEngineHelper@@6B@			; CTimerEngineHelper::`RTTI Complete Object Locator'
PUBLIC	??_R0?AVCTimerEngineHelper@@@8			; CTimerEngineHelper `RTTI Type Descriptor'
PUBLIC	??_R3CTimerEngineHelper@@8			; CTimerEngineHelper::`RTTI Class Hierarchy Descriptor'
PUBLIC	??_R2CTimerEngineHelper@@8			; CTimerEngineHelper::`RTTI Base Class Array'
PUBLIC	??_R1A@?0A@EA@CTimerEngineHelper@@8		; CTimerEngineHelper::`RTTI Base Class Descriptor at (0,-1,0,64)'
PUBLIC	??_R1A@?0A@EA@?$CTempldateHelper@UITimerEngine@@@@8 ; CTempldateHelper<ITimerEngine>::`RTTI Base Class Descriptor at (0,-1,0,64)'
PUBLIC	??_R0?AV?$CTempldateHelper@UITimerEngine@@@@@8	; CTempldateHelper<ITimerEngine> `RTTI Type Descriptor'
PUBLIC	??_R3?$CTempldateHelper@UITimerEngine@@@@8	; CTempldateHelper<ITimerEngine>::`RTTI Class Hierarchy Descriptor'
PUBLIC	??_R2?$CTempldateHelper@UITimerEngine@@@@8	; CTempldateHelper<ITimerEngine>::`RTTI Base Class Array'
PUBLIC	??_R4?$CTempldateHelper@UITimerEngine@@@@6B@	; CTempldateHelper<ITimerEngine>::`RTTI Complete Object Locator'
PUBLIC	??_R4CAttemperEngineHelper@@6B@			; CAttemperEngineHelper::`RTTI Complete Object Locator'
PUBLIC	??_R0?AVCAttemperEngineHelper@@@8		; CAttemperEngineHelper `RTTI Type Descriptor'
PUBLIC	??_R3CAttemperEngineHelper@@8			; CAttemperEngineHelper::`RTTI Class Hierarchy Descriptor'
PUBLIC	??_R2CAttemperEngineHelper@@8			; CAttemperEngineHelper::`RTTI Base Class Array'
PUBLIC	??_R1A@?0A@EA@CAttemperEngineHelper@@8		; CAttemperEngineHelper::`RTTI Base Class Descriptor at (0,-1,0,64)'
PUBLIC	??_R1A@?0A@EA@?$CTempldateHelper@UIAttemperEngine@@@@8 ; CTempldateHelper<IAttemperEngine>::`RTTI Base Class Descriptor at (0,-1,0,64)'
PUBLIC	??_R0?AV?$CTempldateHelper@UIAttemperEngine@@@@@8 ; CTempldateHelper<IAttemperEngine> `RTTI Type Descriptor'
PUBLIC	??_R3?$CTempldateHelper@UIAttemperEngine@@@@8	; CTempldateHelper<IAttemperEngine>::`RTTI Class Hierarchy Descriptor'
PUBLIC	??_R2?$CTempldateHelper@UIAttemperEngine@@@@8	; CTempldateHelper<IAttemperEngine>::`RTTI Base Class Array'
PUBLIC	??_R4?$CTempldateHelper@UIAttemperEngine@@@@6B@	; CTempldateHelper<IAttemperEngine>::`RTTI Complete Object Locator'
PUBLIC	??_R4CTCPNetworkEngineHelper@@6B@		; CTCPNetworkEngineHelper::`RTTI Complete Object Locator'
PUBLIC	??_R0?AVCTCPNetworkEngineHelper@@@8		; CTCPNetworkEngineHelper `RTTI Type Descriptor'
PUBLIC	??_R3CTCPNetworkEngineHelper@@8			; CTCPNetworkEngineHelper::`RTTI Class Hierarchy Descriptor'
PUBLIC	??_R2CTCPNetworkEngineHelper@@8			; CTCPNetworkEngineHelper::`RTTI Base Class Array'
PUBLIC	??_R1A@?0A@EA@CTCPNetworkEngineHelper@@8	; CTCPNetworkEngineHelper::`RTTI Base Class Descriptor at (0,-1,0,64)'
PUBLIC	??_R1A@?0A@EA@?$CTempldateHelper@UITCPNetworkEngine@@@@8 ; CTempldateHelper<ITCPNetworkEngine>::`RTTI Base Class Descriptor at (0,-1,0,64)'
PUBLIC	??_R0?AV?$CTempldateHelper@UITCPNetworkEngine@@@@@8 ; CTempldateHelper<ITCPNetworkEngine> `RTTI Type Descriptor'
PUBLIC	??_R3?$CTempldateHelper@UITCPNetworkEngine@@@@8	; CTempldateHelper<ITCPNetworkEngine>::`RTTI Class Hierarchy Descriptor'
PUBLIC	??_R2?$CTempldateHelper@UITCPNetworkEngine@@@@8	; CTempldateHelper<ITCPNetworkEngine>::`RTTI Base Class Array'
PUBLIC	??_R4?$CTempldateHelper@UITCPNetworkEngine@@@@6B@ ; CTempldateHelper<ITCPNetworkEngine>::`RTTI Complete Object Locator'
PUBLIC	??_7CServiceUnits@@6B@				; CServiceUnits::`vftable'
PUBLIC	?__LINE__Var@?0??StartService@CServiceUnits@@QAE_NXZ@4JA ; `CServiceUnits::StartService'::`1'::__LINE__Var
PUBLIC	??_C@_0EL@DGPFHPCJ@g?3?2?M?x?$LK?$PM?2happygamewh?2?$LH?$PO?N?q?$LG?K?2?O?$LF?M?$LD@ ; `string'
PUBLIC	?__LINE__Var@?0??StartKernelService@CServiceUnits@@IAE_NXZ@4JA ; `CServiceUnits::StartKernelService'::`1'::__LINE__Var
PUBLIC	?__LINE__Var@?0??SetServiceStatus@CServiceUnits@@AAE_NW4enServiceStatus@@@Z@4JA ; `CServiceUnits::SetServiceStatus'::`1'::__LINE__Var
PUBLIC	??_C@_0N@LNPLGNA@?$LH?$PO?N?q?F?t?$LG?$KP?J?$KH?$LA?$NM@ ; `string'
PUBLIC	??_C@_0DG@CDIFDKED@g?3?2?M?x?$LK?$PM?2happygamewh?2?$LH?$PO?N?q?$LG?K?2?O?$LF?M?$LD@ ; `string'
PUBLIC	??_C@_0BD@LMOFNGMO@?$KB?$LA?$CFs?$KB?$LB?D?$KD?$LP?i?$LM?S?T?X?J?$KH?$LA?$NM@ ; `string'
PUBLIC	??_C@_0BM@PEGNCJOH@?U?R?$LC?$LL?$LF?$LN?W?i?$LM?$PO?$LE?$LE?$LN?$KI?$LK?$KP?J?$PN?$KB?$LA?$CFs?$KB?$LB?3?$CFd@ ; `string'
PUBLIC	??_C@_0BL@PDAODLKM@?$LF?w?S?C?$LK?$KP?J?$PN?$KB?$LA?$CFs?$KB?$LB?I?z?$LD?I?$LG?T?O?s?J?$KH?$LA?$NM@ ; `string'
PUBLIC	??_R0PAD@8					; char * `RTTI Type Descriptor'
PUBLIC	??_C@_0BJ@JGPFHIJF@?S?I?S?Z?$KB?$LA?$CFs?$KB?$LB?$KD?$KM?W?i?$LM?$PO?$LE?$LE?$LN?$KI?J?$KH?$LA?$NM@ ; `string'
PUBLIC	??_C@_0DB@JBNKENAJ@?W?i?$LM?$PO?$LE?$LE?$LN?$KI?$LK?$KP?J?$PN?$KB?$LA?$CFs?$KB?$LB?$LC?z?I?z?N?$LE?V?$KK?R?l?$LD?$KD?$LE@ ; `string'
PUBLIC	??_R4CServiceUnits@@6B@				; CServiceUnits::`RTTI Complete Object Locator'
PUBLIC	??_R0?AVCServiceUnits@@@8			; CServiceUnits `RTTI Type Descriptor'
PUBLIC	??_R3CServiceUnits@@8				; CServiceUnits::`RTTI Class Hierarchy Descriptor'
PUBLIC	??_R2CServiceUnits@@8				; CServiceUnits::`RTTI Base Class Array'
PUBLIC	??_R1A@?0A@EA@CServiceUnits@@8			; CServiceUnits::`RTTI Base Class Descriptor at (0,-1,0,64)'
EXTRN	??3@YAXPAXI@Z:PROC				; operator delete
EXTRN	__imp__wcscpy_s:PROC
EXTRN	__imp__GetLastError@0:PROC
EXTRN	__imp__GetProcAddress@8:PROC
EXTRN	__imp__lstrcpynA@12:PROC
EXTRN	__imp__PeekMessageA@20:PROC
EXTRN	__imp__PostQuitMessage@4:PROC
EXTRN	__imp____stdio_common_vswprintf_s:PROC
EXTRN	__imp____stdio_common_vsnprintf_s:PROC
EXTRN	__imp___CrtDbgReport:PROC
EXTRN	__imp___CrtDbgReportW:PROC
EXTRN	?AfxLoadLibrary@@YGPAUHINSTANCE__@@PBD@Z:PROC	; AfxLoadLibrary
EXTRN	?AfxFreeLibrary@@YGHPAUHINSTANCE__@@@Z:PROC	; AfxFreeLibrary
EXTRN	??0CCriticalSection@@QAE@XZ:PROC		; CCriticalSection::CCriticalSection
EXTRN	??1CCriticalSection@@UAE@XZ:PROC		; CCriticalSection::~CCriticalSection
EXTRN	__imp_??0CWHDataQueue@@QAE@XZ:PROC
EXTRN	__imp_??1CWHDataQueue@@UAE@XZ:PROC
EXTRN	??_E?$CTempldateHelper@UITimerEngine@@@@UAEPAXI@Z:PROC ; CTempldateHelper<ITimerEngine>::`vector deleting destructor'
EXTRN	??_ECTimerEngineHelper@@UAEPAXI@Z:PROC		; CTimerEngineHelper::`vector deleting destructor'
EXTRN	??_E?$CTempldateHelper@UIAttemperEngine@@@@UAEPAXI@Z:PROC ; CTempldateHelper<IAttemperEngine>::`vector deleting destructor'
EXTRN	??_ECAttemperEngineHelper@@UAEPAXI@Z:PROC	; CAttemperEngineHelper::`vector deleting destructor'
EXTRN	??_E?$CTempldateHelper@UITCPNetworkEngine@@@@UAEPAXI@Z:PROC ; CTempldateHelper<ITCPNetworkEngine>::`vector deleting destructor'
EXTRN	??_ECTCPNetworkEngineHelper@@UAEPAXI@Z:PROC	; CTCPNetworkEngineHelper::`vector deleting destructor'
EXTRN	__imp_?TraceString@CTraceService@@SA_NPBDW4enTraceLevel@@@Z:PROC
EXTRN	??0CInitParameter@@QAE@XZ:PROC			; CInitParameter::CInitParameter
EXTRN	??1CInitParameter@@UAE@XZ:PROC			; CInitParameter::~CInitParameter
EXTRN	?LoadInitParameter@CInitParameter@@QAEXXZ:PROC	; CInitParameter::LoadInitParameter
EXTRN	??0CAttemperEngineSink@@QAE@XZ:PROC		; CAttemperEngineSink::CAttemperEngineSink
EXTRN	??1CAttemperEngineSink@@UAE@XZ:PROC		; CAttemperEngineSink::~CAttemperEngineSink
EXTRN	??_ECServiceUnits@@UAEPAXI@Z:PROC		; CServiceUnits::`vector deleting destructor'
EXTRN	@__security_check_cookie@4:PROC
EXTRN	___CxxFrameHandler3:PROC
EXTRN	_memset:PROC
EXTRN	??_7type_info@@6B@:QWORD			; type_info::`vftable'
EXTRN	___security_cookie:DWORD
;	COMDAT ?_OptionsStorage@?1??__local_stdio_printf_options@@9@4_KA
_BSS	SEGMENT
?_OptionsStorage@?1??__local_stdio_printf_options@@9@4_KA DQ 01H DUP (?) ; `__local_stdio_printf_options'::`2'::_OptionsStorage
_BSS	ENDS
;	COMDAT ?atlTraceException@ATL@@3V?$CTraceCategoryEx@$0CAAA@$0A@@1@A
_BSS	SEGMENT
?atlTraceException@ATL@@3V?$CTraceCategoryEx@$0CAAA@$0A@@1@A DD 01H DUP (?) ; ATL::atlTraceException
_BSS	ENDS
;	COMDAT ?atlTraceString@ATL@@3V?$CTraceCategoryEx@$0CAAAA@$0A@@1@A
_BSS	SEGMENT
?atlTraceString@ATL@@3V?$CTraceCategoryEx@$0CAAAA@$0A@@1@A DD 01H DUP (?) ; ATL::atlTraceString
_BSS	ENDS
;	COMDAT ?m_nLastCategory@CTrace@ATL@@1IA
_BSS	SEGMENT
?m_nLastCategory@CTrace@ATL@@1IA DD 01H DUP (?)		; ATL::CTrace::m_nLastCategory
_BSS	ENDS
;	COMDAT ?m_nMap@CTrace@ATL@@1PAUCategoryMap@12@A
_BSS	SEGMENT
?m_nMap@CTrace@ATL@@1PAUCategoryMap@12@A DB 02080H DUP (?) ; ATL::CTrace::m_nMap
_BSS	ENDS
;	COMDAT CRT$XCU
CRT$XCU	SEGMENT
?atlTraceException$initializer$@ATL@@3P6AXXZA DD FLAT:??__EatlTraceException@ATL@@YAXXZ ; ATL::atlTraceException$initializer$
CRT$XCU	ENDS
;	COMDAT ??_R1A@?0A@EA@CServiceUnits@@8
rdata$r	SEGMENT
??_R1A@?0A@EA@CServiceUnits@@8 DD FLAT:??_R0?AVCServiceUnits@@@8 ; CServiceUnits::`RTTI Base Class Descriptor at (0,-1,0,64)'
	DD	00H
	DD	00H
	DD	0ffffffffH
	DD	00H
	DD	040H
	DD	FLAT:??_R3CServiceUnits@@8
rdata$r	ENDS
;	COMDAT ??_R2CServiceUnits@@8
rdata$r	SEGMENT
??_R2CServiceUnits@@8 DD FLAT:??_R1A@?0A@EA@CServiceUnits@@8 ; CServiceUnits::`RTTI Base Class Array'
rdata$r	ENDS
;	COMDAT ??_R3CServiceUnits@@8
rdata$r	SEGMENT
??_R3CServiceUnits@@8 DD 00H				; CServiceUnits::`RTTI Class Hierarchy Descriptor'
	DD	00H
	DD	01H
	DD	FLAT:??_R2CServiceUnits@@8
rdata$r	ENDS
;	COMDAT ??_R0?AVCServiceUnits@@@8
data$r	SEGMENT
??_R0?AVCServiceUnits@@@8 DD FLAT:??_7type_info@@6B@	; CServiceUnits `RTTI Type Descriptor'
	DD	00H
	DB	'.?AVCServiceUnits@@', 00H
data$r	ENDS
;	COMDAT ??_R4CServiceUnits@@6B@
rdata$r	SEGMENT
??_R4CServiceUnits@@6B@ DD 00H				; CServiceUnits::`RTTI Complete Object Locator'
	DD	00H
	DD	00H
	DD	FLAT:??_R0?AVCServiceUnits@@@8
	DD	FLAT:??_R3CServiceUnits@@8
rdata$r	ENDS
;	COMDAT ??_C@_0DB@JBNKENAJ@?W?i?$LM?$PO?$LE?$LE?$LN?$KI?$LK?$KP?J?$PN?$KB?$LA?$CFs?$KB?$LB?$LC?z?I?z?N?$LE?V?$KK?R?l?$LD?$KD?$LE@
CONST	SEGMENT
??_C@_0DB@JBNKENAJ@?W?i?$LM?$PO?$LE?$LE?$LN?$KI?$LK?$KP?J?$PN?$KB?$LA?$CFs?$KB?$LB?$LC?z?I?z?N?$LE?V?$KK?R?l?$LD?$KD?$LE@ DB 0d7H
	DB	0e9H, 0bcH, 0feH, 0b4H, 0b4H, 0bdH, 0a8H, 0baH, 0afH, 0caH, 0fdH
	DB	0a1H, 0b0H, '%s', 0a1H, 0b1H, 0b2H, 0faH, 0c9H, 0faH, 0ceH, 0b4H
	DB	0d6H, 0aaH, 0d2H, 0ecH, 0b3H, 0a3H, 0b4H, 0edH, 0ceH, 0f3H, 0a3H
	DB	0acH, 0d7H, 0e9H, 0bcH, 0feH, 0b4H, 0b4H, 0bdH, 0a8H, 0caH, 0a7H
	DB	0b0H, 0dcH, 00H				; `string'
CONST	ENDS
;	COMDAT ??_C@_0BJ@JGPFHIJF@?S?I?S?Z?$KB?$LA?$CFs?$KB?$LB?$KD?$KM?W?i?$LM?$PO?$LE?$LE?$LN?$KI?J?$KH?$LA?$NM@
CONST	SEGMENT
??_C@_0BJ@JGPFHIJF@?S?I?S?Z?$KB?$LA?$CFs?$KB?$LB?$KD?$KM?W?i?$LM?$PO?$LE?$LE?$LN?$KI?J?$KH?$LA?$NM@ DB 0d3H
	DB	0c9H, 0d3H, 0daH, 0a1H, 0b0H, '%s', 0a1H, 0b1H, 0a3H, 0acH, 0d7H
	DB	0e9H, 0bcH, 0feH, 0b4H, 0b4H, 0bdH, 0a8H, 0caH, 0a7H, 0b0H, 0dcH
	DB	00H						; `string'
CONST	ENDS
;	COMDAT ??_R0PAD@8
data$r	SEGMENT
??_R0PAD@8 DD	FLAT:??_7type_info@@6B@			; char * `RTTI Type Descriptor'
	DD	00H
	DB	'.PAD', 00H
data$r	ENDS
;	COMDAT ??_C@_0BL@PDAODLKM@?$LF?w?S?C?$LK?$KP?J?$PN?$KB?$LA?$CFs?$KB?$LB?I?z?$LD?I?$LG?T?O?s?J?$KH?$LA?$NM@
CONST	SEGMENT
??_C@_0BL@PDAODLKM@?$LF?w?S?C?$LK?$KP?J?$PN?$KB?$LA?$CFs?$KB?$LB?I?z?$LD?I?$LG?T?O?s?J?$KH?$LA?$NM@ DB 0b5H
	DB	0f7H, 0d3H, 0c3H, 0baH, 0afH, 0caH, 0fdH, 0a1H, 0b0H, '%s', 0a1H
	DB	0b1H, 0c9H, 0faH, 0b3H, 0c9H, 0b6H, 0d4H, 0cfH, 0f3H, 0caH, 0a7H
	DB	0b0H, 0dcH, 00H				; `string'
CONST	ENDS
;	COMDAT ??_C@_0BM@PEGNCJOH@?U?R?$LC?$LL?$LF?$LN?W?i?$LM?$PO?$LE?$LE?$LN?$KI?$LK?$KP?J?$PN?$KB?$LA?$CFs?$KB?$LB?3?$CFd@
CONST	SEGMENT
??_C@_0BM@PEGNCJOH@?U?R?$LC?$LL?$LF?$LN?W?i?$LM?$PO?$LE?$LE?$LN?$KI?$LK?$KP?J?$PN?$KB?$LA?$CFs?$KB?$LB?3?$CFd@ DB 0d5H
	DB	0d2H, 0b2H, 0bbH, 0b5H, 0bdH, 0d7H, 0e9H, 0bcH, 0feH, 0b4H, 0b4H
	DB	0bdH, 0a8H, 0baH, 0afH, 0caH, 0fdH, 0a1H, 0b0H, '%s', 0a1H, 0b1H
	DB	':%d', 00H					; `string'
CONST	ENDS
;	COMDAT ??_C@_0BD@LMOFNGMO@?$KB?$LA?$CFs?$KB?$LB?D?$KD?$LP?i?$LM?S?T?X?J?$KH?$LA?$NM@
CONST	SEGMENT
??_C@_0BD@LMOFNGMO@?$KB?$LA?$CFs?$KB?$LB?D?$KD?$LP?i?$LM?S?T?X?J?$KH?$LA?$NM@ DB 0a1H
	DB	0b0H, '%s', 0a1H, 0b1H, 0c4H, 0a3H, 0bfH, 0e9H, 0bcH, 0d3H, 0d4H
	DB	0d8H, 0caH, 0a7H, 0b0H, 0dcH, 00H		; `string'
CONST	ENDS
;	COMDAT ??_C@_0DG@CDIFDKED@g?3?2?M?x?$LK?$PM?2happygamewh?2?$LH?$PO?N?q?$LG?K?2?O?$LF?M?$LD@
CONST	SEGMENT
??_C@_0DG@CDIFDKED@g?3?2?M?x?$LK?$PM?2happygamewh?2?$LH?$PO?N?q?$LG?K?2?O?$LF?M?$LD@ DB 'g'
	DB	':\', 0cdH, 0f8H, 0baH, 0fcH, '\happygamewh\', 0b7H, 0feH, 0ceH
	DB	0f1H, 0b6H, 0cbH, '\', 0cfH, 0b5H, 0cdH, 0b3H, 0c4H, 0a3H, 0bfH
	DB	0e9H, '\', 0c8H, 0abH, 0beH, 0d6H, 0b6H, 0a8H, 0d2H, 0e5H, '\m'
	DB	'odule.h', 00H				; `string'
CONST	ENDS
;	COMDAT ??_C@_0N@LNPLGNA@?$LH?$PO?N?q?F?t?$LG?$KP?J?$KH?$LA?$NM@
CONST	SEGMENT
??_C@_0N@LNPLGNA@?$LH?$PO?N?q?F?t?$LG?$KP?J?$KH?$LA?$NM@ DB 0b7H, 0feH, 0ceH
	DB	0f1H, 0c6H, 0f4H, 0b6H, 0afH, 0caH, 0a7H, 0b0H, 0dcH, 00H ; `string'
CONST	ENDS
;	COMDAT ?__LINE__Var@?0??SetServiceStatus@CServiceUnits@@AAE_NW4enServiceStatus@@@Z@4JA
_DATA	SEGMENT
?__LINE__Var@?0??SetServiceStatus@CServiceUnits@@AAE_NW4enServiceStatus@@@Z@4JA DD 092H ; `CServiceUnits::SetServiceStatus'::`1'::__LINE__Var
_DATA	ENDS
;	COMDAT ?__LINE__Var@?0??StartKernelService@CServiceUnits@@IAE_NXZ@4JA
_DATA	SEGMENT
?__LINE__Var@?0??StartKernelService@CServiceUnits@@IAE_NXZ@4JA DD 077H ; `CServiceUnits::StartKernelService'::`1'::__LINE__Var
_DATA	ENDS
;	COMDAT ??_C@_0EL@DGPFHPCJ@g?3?2?M?x?$LK?$PM?2happygamewh?2?$LH?$PO?N?q?$LG?K?2?O?$LF?M?$LD@
CONST	SEGMENT
??_C@_0EL@DGPFHPCJ@g?3?2?M?x?$LK?$PM?2happygamewh?2?$LH?$PO?N?q?$LG?K?2?O?$LF?M?$LD@ DB 'g'
	DB	':\', 0cdH, 0f8H, 0baH, 0fcH, '\happygamewh\', 0b7H, 0feH, 0ceH
	DB	0f1H, 0b6H, 0cbH, '\', 0cfH, 0b5H, 0cdH, 0b3H, 0c4H, 0a3H, 0bfH
	DB	0e9H, '\', 0b7H, 0feH, 0ceH, 0f1H, 0c6H, 0f7H, 0d7H, 0e9H, 0bcH
	DB	0feH, '\', 0d0H, 0adH, 0b5H, 0f7H, 0b7H, 0feH, 0ceH, 0f1H, 0c6H
	DB	0f7H, '\serviceunits.cpp', 00H		; `string'
CONST	ENDS
;	COMDAT ?__LINE__Var@?0??StartService@CServiceUnits@@QAE_NXZ@4JA
_DATA	SEGMENT
?__LINE__Var@?0??StartService@CServiceUnits@@QAE_NXZ@4JA DD 01bH ; `CServiceUnits::StartService'::`1'::__LINE__Var
_DATA	ENDS
;	COMDAT ??_7CServiceUnits@@6B@
CONST	SEGMENT
??_7CServiceUnits@@6B@ DD FLAT:??_R4CServiceUnits@@6B@	; CServiceUnits::`vftable'
	DD	FLAT:??_ECServiceUnits@@UAEPAXI@Z
CONST	ENDS
;	COMDAT ??_R4?$CTempldateHelper@UITCPNetworkEngine@@@@6B@
rdata$r	SEGMENT
??_R4?$CTempldateHelper@UITCPNetworkEngine@@@@6B@ DD 00H ; CTempldateHelper<ITCPNetworkEngine>::`RTTI Complete Object Locator'
	DD	00H
	DD	00H
	DD	FLAT:??_R0?AV?$CTempldateHelper@UITCPNetworkEngine@@@@@8
	DD	FLAT:??_R3?$CTempldateHelper@UITCPNetworkEngine@@@@8
rdata$r	ENDS
;	COMDAT ??_R2?$CTempldateHelper@UITCPNetworkEngine@@@@8
rdata$r	SEGMENT
??_R2?$CTempldateHelper@UITCPNetworkEngine@@@@8 DD FLAT:??_R1A@?0A@EA@?$CTempldateHelper@UITCPNetworkEngine@@@@8 ; CTempldateHelper<ITCPNetworkEngine>::`RTTI Base Class Array'
rdata$r	ENDS
;	COMDAT ??_R3?$CTempldateHelper@UITCPNetworkEngine@@@@8
rdata$r	SEGMENT
??_R3?$CTempldateHelper@UITCPNetworkEngine@@@@8 DD 00H	; CTempldateHelper<ITCPNetworkEngine>::`RTTI Class Hierarchy Descriptor'
	DD	00H
	DD	01H
	DD	FLAT:??_R2?$CTempldateHelper@UITCPNetworkEngine@@@@8
rdata$r	ENDS
;	COMDAT ??_R0?AV?$CTempldateHelper@UITCPNetworkEngine@@@@@8
data$r	SEGMENT
??_R0?AV?$CTempldateHelper@UITCPNetworkEngine@@@@@8 DD FLAT:??_7type_info@@6B@ ; CTempldateHelper<ITCPNetworkEngine> `RTTI Type Descriptor'
	DD	00H
	DB	'.?AV?$CTempldateHelper@UITCPNetworkEngine@@@@', 00H
data$r	ENDS
;	COMDAT ??_R1A@?0A@EA@?$CTempldateHelper@UITCPNetworkEngine@@@@8
rdata$r	SEGMENT
??_R1A@?0A@EA@?$CTempldateHelper@UITCPNetworkEngine@@@@8 DD FLAT:??_R0?AV?$CTempldateHelper@UITCPNetworkEngine@@@@@8 ; CTempldateHelper<ITCPNetworkEngine>::`RTTI Base Class Descriptor at (0,-1,0,64)'
	DD	00H
	DD	00H
	DD	0ffffffffH
	DD	00H
	DD	040H
	DD	FLAT:??_R3?$CTempldateHelper@UITCPNetworkEngine@@@@8
rdata$r	ENDS
;	COMDAT ??_R1A@?0A@EA@CTCPNetworkEngineHelper@@8
rdata$r	SEGMENT
??_R1A@?0A@EA@CTCPNetworkEngineHelper@@8 DD FLAT:??_R0?AVCTCPNetworkEngineHelper@@@8 ; CTCPNetworkEngineHelper::`RTTI Base Class Descriptor at (0,-1,0,64)'
	DD	01H
	DD	00H
	DD	0ffffffffH
	DD	00H
	DD	040H
	DD	FLAT:??_R3CTCPNetworkEngineHelper@@8
rdata$r	ENDS
;	COMDAT ??_R2CTCPNetworkEngineHelper@@8
rdata$r	SEGMENT
??_R2CTCPNetworkEngineHelper@@8 DD FLAT:??_R1A@?0A@EA@CTCPNetworkEngineHelper@@8 ; CTCPNetworkEngineHelper::`RTTI Base Class Array'
	DD	FLAT:??_R1A@?0A@EA@?$CTempldateHelper@UITCPNetworkEngine@@@@8
rdata$r	ENDS
;	COMDAT ??_R3CTCPNetworkEngineHelper@@8
rdata$r	SEGMENT
??_R3CTCPNetworkEngineHelper@@8 DD 00H			; CTCPNetworkEngineHelper::`RTTI Class Hierarchy Descriptor'
	DD	00H
	DD	02H
	DD	FLAT:??_R2CTCPNetworkEngineHelper@@8
rdata$r	ENDS
;	COMDAT ??_R0?AVCTCPNetworkEngineHelper@@@8
data$r	SEGMENT
??_R0?AVCTCPNetworkEngineHelper@@@8 DD FLAT:??_7type_info@@6B@ ; CTCPNetworkEngineHelper `RTTI Type Descriptor'
	DD	00H
	DB	'.?AVCTCPNetworkEngineHelper@@', 00H
data$r	ENDS
;	COMDAT ??_R4CTCPNetworkEngineHelper@@6B@
rdata$r	SEGMENT
??_R4CTCPNetworkEngineHelper@@6B@ DD 00H		; CTCPNetworkEngineHelper::`RTTI Complete Object Locator'
	DD	00H
	DD	00H
	DD	FLAT:??_R0?AVCTCPNetworkEngineHelper@@@8
	DD	FLAT:??_R3CTCPNetworkEngineHelper@@8
rdata$r	ENDS
;	COMDAT ??_R4?$CTempldateHelper@UIAttemperEngine@@@@6B@
rdata$r	SEGMENT
??_R4?$CTempldateHelper@UIAttemperEngine@@@@6B@ DD 00H	; CTempldateHelper<IAttemperEngine>::`RTTI Complete Object Locator'
	DD	00H
	DD	00H
	DD	FLAT:??_R0?AV?$CTempldateHelper@UIAttemperEngine@@@@@8
	DD	FLAT:??_R3?$CTempldateHelper@UIAttemperEngine@@@@8
rdata$r	ENDS
;	COMDAT ??_R2?$CTempldateHelper@UIAttemperEngine@@@@8
rdata$r	SEGMENT
??_R2?$CTempldateHelper@UIAttemperEngine@@@@8 DD FLAT:??_R1A@?0A@EA@?$CTempldateHelper@UIAttemperEngine@@@@8 ; CTempldateHelper<IAttemperEngine>::`RTTI Base Class Array'
rdata$r	ENDS
;	COMDAT ??_R3?$CTempldateHelper@UIAttemperEngine@@@@8
rdata$r	SEGMENT
??_R3?$CTempldateHelper@UIAttemperEngine@@@@8 DD 00H	; CTempldateHelper<IAttemperEngine>::`RTTI Class Hierarchy Descriptor'
	DD	00H
	DD	01H
	DD	FLAT:??_R2?$CTempldateHelper@UIAttemperEngine@@@@8
rdata$r	ENDS
;	COMDAT ??_R0?AV?$CTempldateHelper@UIAttemperEngine@@@@@8
data$r	SEGMENT
??_R0?AV?$CTempldateHelper@UIAttemperEngine@@@@@8 DD FLAT:??_7type_info@@6B@ ; CTempldateHelper<IAttemperEngine> `RTTI Type Descriptor'
	DD	00H
	DB	'.?AV?$CTempldateHelper@UIAttemperEngine@@@@', 00H
data$r	ENDS
;	COMDAT ??_R1A@?0A@EA@?$CTempldateHelper@UIAttemperEngine@@@@8
rdata$r	SEGMENT
??_R1A@?0A@EA@?$CTempldateHelper@UIAttemperEngine@@@@8 DD FLAT:??_R0?AV?$CTempldateHelper@UIAttemperEngine@@@@@8 ; CTempldateHelper<IAttemperEngine>::`RTTI Base Class Descriptor at (0,-1,0,64)'
	DD	00H
	DD	00H
	DD	0ffffffffH
	DD	00H
	DD	040H
	DD	FLAT:??_R3?$CTempldateHelper@UIAttemperEngine@@@@8
rdata$r	ENDS
;	COMDAT ??_R1A@?0A@EA@CAttemperEngineHelper@@8
rdata$r	SEGMENT
??_R1A@?0A@EA@CAttemperEngineHelper@@8 DD FLAT:??_R0?AVCAttemperEngineHelper@@@8 ; CAttemperEngineHelper::`RTTI Base Class Descriptor at (0,-1,0,64)'
	DD	01H
	DD	00H
	DD	0ffffffffH
	DD	00H
	DD	040H
	DD	FLAT:??_R3CAttemperEngineHelper@@8
rdata$r	ENDS
;	COMDAT ??_R2CAttemperEngineHelper@@8
rdata$r	SEGMENT
??_R2CAttemperEngineHelper@@8 DD FLAT:??_R1A@?0A@EA@CAttemperEngineHelper@@8 ; CAttemperEngineHelper::`RTTI Base Class Array'
	DD	FLAT:??_R1A@?0A@EA@?$CTempldateHelper@UIAttemperEngine@@@@8
rdata$r	ENDS
;	COMDAT ??_R3CAttemperEngineHelper@@8
rdata$r	SEGMENT
??_R3CAttemperEngineHelper@@8 DD 00H			; CAttemperEngineHelper::`RTTI Class Hierarchy Descriptor'
	DD	00H
	DD	02H
	DD	FLAT:??_R2CAttemperEngineHelper@@8
rdata$r	ENDS
;	COMDAT ??_R0?AVCAttemperEngineHelper@@@8
data$r	SEGMENT
??_R0?AVCAttemperEngineHelper@@@8 DD FLAT:??_7type_info@@6B@ ; CAttemperEngineHelper `RTTI Type Descriptor'
	DD	00H
	DB	'.?AVCAttemperEngineHelper@@', 00H
data$r	ENDS
;	COMDAT ??_R4CAttemperEngineHelper@@6B@
rdata$r	SEGMENT
??_R4CAttemperEngineHelper@@6B@ DD 00H			; CAttemperEngineHelper::`RTTI Complete Object Locator'
	DD	00H
	DD	00H
	DD	FLAT:??_R0?AVCAttemperEngineHelper@@@8
	DD	FLAT:??_R3CAttemperEngineHelper@@8
rdata$r	ENDS
;	COMDAT ??_R4?$CTempldateHelper@UITimerEngine@@@@6B@
rdata$r	SEGMENT
??_R4?$CTempldateHelper@UITimerEngine@@@@6B@ DD 00H	; CTempldateHelper<ITimerEngine>::`RTTI Complete Object Locator'
	DD	00H
	DD	00H
	DD	FLAT:??_R0?AV?$CTempldateHelper@UITimerEngine@@@@@8
	DD	FLAT:??_R3?$CTempldateHelper@UITimerEngine@@@@8
rdata$r	ENDS
;	COMDAT ??_R2?$CTempldateHelper@UITimerEngine@@@@8
rdata$r	SEGMENT
??_R2?$CTempldateHelper@UITimerEngine@@@@8 DD FLAT:??_R1A@?0A@EA@?$CTempldateHelper@UITimerEngine@@@@8 ; CTempldateHelper<ITimerEngine>::`RTTI Base Class Array'
rdata$r	ENDS
;	COMDAT ??_R3?$CTempldateHelper@UITimerEngine@@@@8
rdata$r	SEGMENT
??_R3?$CTempldateHelper@UITimerEngine@@@@8 DD 00H	; CTempldateHelper<ITimerEngine>::`RTTI Class Hierarchy Descriptor'
	DD	00H
	DD	01H
	DD	FLAT:??_R2?$CTempldateHelper@UITimerEngine@@@@8
rdata$r	ENDS
;	COMDAT ??_R0?AV?$CTempldateHelper@UITimerEngine@@@@@8
data$r	SEGMENT
??_R0?AV?$CTempldateHelper@UITimerEngine@@@@@8 DD FLAT:??_7type_info@@6B@ ; CTempldateHelper<ITimerEngine> `RTTI Type Descriptor'
	DD	00H
	DB	'.?AV?$CTempldateHelper@UITimerEngine@@@@', 00H
data$r	ENDS
;	COMDAT ??_R1A@?0A@EA@?$CTempldateHelper@UITimerEngine@@@@8
rdata$r	SEGMENT
??_R1A@?0A@EA@?$CTempldateHelper@UITimerEngine@@@@8 DD FLAT:??_R0?AV?$CTempldateHelper@UITimerEngine@@@@@8 ; CTempldateHelper<ITimerEngine>::`RTTI Base Class Descriptor at (0,-1,0,64)'
	DD	00H
	DD	00H
	DD	0ffffffffH
	DD	00H
	DD	040H
	DD	FLAT:??_R3?$CTempldateHelper@UITimerEngine@@@@8
rdata$r	ENDS
;	COMDAT ??_R1A@?0A@EA@CTimerEngineHelper@@8
rdata$r	SEGMENT
??_R1A@?0A@EA@CTimerEngineHelper@@8 DD FLAT:??_R0?AVCTimerEngineHelper@@@8 ; CTimerEngineHelper::`RTTI Base Class Descriptor at (0,-1,0,64)'
	DD	01H
	DD	00H
	DD	0ffffffffH
	DD	00H
	DD	040H
	DD	FLAT:??_R3CTimerEngineHelper@@8
rdata$r	ENDS
;	COMDAT ??_R2CTimerEngineHelper@@8
rdata$r	SEGMENT
??_R2CTimerEngineHelper@@8 DD FLAT:??_R1A@?0A@EA@CTimerEngineHelper@@8 ; CTimerEngineHelper::`RTTI Base Class Array'
	DD	FLAT:??_R1A@?0A@EA@?$CTempldateHelper@UITimerEngine@@@@8
rdata$r	ENDS
;	COMDAT ??_R3CTimerEngineHelper@@8
rdata$r	SEGMENT
??_R3CTimerEngineHelper@@8 DD 00H			; CTimerEngineHelper::`RTTI Class Hierarchy Descriptor'
	DD	00H
	DD	02H
	DD	FLAT:??_R2CTimerEngineHelper@@8
rdata$r	ENDS
;	COMDAT ??_R0?AVCTimerEngineHelper@@@8
data$r	SEGMENT
??_R0?AVCTimerEngineHelper@@@8 DD FLAT:??_7type_info@@6B@ ; CTimerEngineHelper `RTTI Type Descriptor'
	DD	00H
	DB	'.?AVCTimerEngineHelper@@', 00H
data$r	ENDS
;	COMDAT ??_R4CTimerEngineHelper@@6B@
rdata$r	SEGMENT
??_R4CTimerEngineHelper@@6B@ DD 00H			; CTimerEngineHelper::`RTTI Complete Object Locator'
	DD	00H
	DD	00H
	DD	FLAT:??_R0?AVCTimerEngineHelper@@@8
	DD	FLAT:??_R3CTimerEngineHelper@@8
rdata$r	ENDS
;	COMDAT ??_C@_0BH@LEGJPFFH@CreateTCPNetworkEngine@
CONST	SEGMENT
??_C@_0BH@LEGJPFFH@CreateTCPNetworkEngine@ DB 'CreateTCPNetworkEngine', 00H ; `string'
CONST	ENDS
;	COMDAT ??_7CTCPNetworkEngineHelper@@6B@
CONST	SEGMENT
??_7CTCPNetworkEngineHelper@@6B@ DD FLAT:??_R4CTCPNetworkEngineHelper@@6B@ ; CTCPNetworkEngineHelper::`vftable'
	DD	FLAT:??_ECTCPNetworkEngineHelper@@UAEPAXI@Z
CONST	ENDS
;	COMDAT ??_7?$CTempldateHelper@UITCPNetworkEngine@@@@6B@
CONST	SEGMENT
??_7?$CTempldateHelper@UITCPNetworkEngine@@@@6B@ DD FLAT:??_R4?$CTempldateHelper@UITCPNetworkEngine@@@@6B@ ; CTempldateHelper<ITCPNetworkEngine>::`vftable'
	DD	FLAT:??_E?$CTempldateHelper@UITCPNetworkEngine@@@@UAEPAXI@Z
CONST	ENDS
;	COMDAT ??_C@_0BF@PBPGMLEA@CreateAttemperEngine@
CONST	SEGMENT
??_C@_0BF@PBPGMLEA@CreateAttemperEngine@ DB 'CreateAttemperEngine', 00H ; `string'
CONST	ENDS
;	COMDAT ??_7CAttemperEngineHelper@@6B@
CONST	SEGMENT
??_7CAttemperEngineHelper@@6B@ DD FLAT:??_R4CAttemperEngineHelper@@6B@ ; CAttemperEngineHelper::`vftable'
	DD	FLAT:??_ECAttemperEngineHelper@@UAEPAXI@Z
CONST	ENDS
;	COMDAT ??_7?$CTempldateHelper@UIAttemperEngine@@@@6B@
CONST	SEGMENT
??_7?$CTempldateHelper@UIAttemperEngine@@@@6B@ DD FLAT:??_R4?$CTempldateHelper@UIAttemperEngine@@@@6B@ ; CTempldateHelper<IAttemperEngine>::`vftable'
	DD	FLAT:??_E?$CTempldateHelper@UIAttemperEngine@@@@UAEPAXI@Z
CONST	ENDS
;	COMDAT ??_C@_0BC@PLOLBCGN@CreateTimerEngine@
CONST	SEGMENT
??_C@_0BC@PLOLBCGN@CreateTimerEngine@ DB 'CreateTimerEngine', 00H ; `string'
CONST	ENDS
;	COMDAT ??_7CTimerEngineHelper@@6B@
CONST	SEGMENT
??_7CTimerEngineHelper@@6B@ DD FLAT:??_R4CTimerEngineHelper@@6B@ ; CTimerEngineHelper::`vftable'
	DD	FLAT:??_ECTimerEngineHelper@@UAEPAXI@Z
CONST	ENDS
;	COMDAT ??_7?$CTempldateHelper@UITimerEngine@@@@6B@
CONST	SEGMENT
??_7?$CTempldateHelper@UITimerEngine@@@@6B@ DD FLAT:??_R4?$CTempldateHelper@UITimerEngine@@@@6B@ ; CTempldateHelper<ITimerEngine>::`vftable'
	DD	FLAT:??_E?$CTempldateHelper@UITimerEngine@@@@UAEPAXI@Z
CONST	ENDS
;	COMDAT ??_C@_0BB@BEMLEOHB@KernelEngine?4dll@
CONST	SEGMENT
??_C@_0BB@BEMLEOHB@KernelEngine?4dll@ DB 'KernelEngine.dll', 00H ; `string'
CONST	ENDS
;	COMDAT ??_C@_1OE@PDFAMNPL@?$AAc?$AA?3?$AA?2?$AAp?$AAr?$AAo?$AAg?$AAr?$AAa?$AAm?$AA?5?$AAf?$AAi?$AAl?$AAe@
CONST	SEGMENT
??_C@_1OE@PDFAMNPL@?$AAc?$AA?3?$AA?2?$AAp?$AAr?$AAo?$AAg?$AAr?$AAa?$AAm?$AA?5?$AAf?$AAi?$AAl?$AAe@ DB 'c'
	DB	00H, ':', 00H, '\', 00H, 'p', 00H, 'r', 00H, 'o', 00H, 'g', 00H
	DB	'r', 00H, 'a', 00H, 'm', 00H, ' ', 00H, 'f', 00H, 'i', 00H, 'l'
	DB	00H, 'e', 00H, 's', 00H, ' ', 00H, '(', 00H, 'x', 00H, '8', 00H
	DB	'6', 00H, ')', 00H, '\', 00H, 'm', 00H, 'i', 00H, 'c', 00H, 'r'
	DB	00H, 'o', 00H, 's', 00H, 'o', 00H, 'f', 00H, 't', 00H, ' ', 00H
	DB	'v', 00H, 'i', 00H, 's', 00H, 'u', 00H, 'a', 00H, 'l', 00H, ' '
	DB	00H, 's', 00H, 't', 00H, 'u', 00H, 'd', 00H, 'i', 00H, 'o', 00H
	DB	'\', 00H, '2', 00H, '0', 00H, '1', 00H, '7', 00H, '\', 00H, 'c'
	DB	00H, 'o', 00H, 'm', 00H, 'm', 00H, 'u', 00H, 'n', 00H, 'i', 00H
	DB	't', 00H, 'y', 00H, '\', 00H, 'v', 00H, 'c', 00H, '\', 00H, 't'
	DB	00H, 'o', 00H, 'o', 00H, 'l', 00H, 's', 00H, '\', 00H, 'm', 00H
	DB	's', 00H, 'v', 00H, 'c', 00H, '\', 00H, '1', 00H, '4', 00H, '.'
	DB	00H, '1', 00H, '6', 00H, '.', 00H, '2', 00H, '7', 00H, '0', 00H
	DB	'2', 00H, '3', 00H, '\', 00H, 'a', 00H, 't', 00H, 'l', 00H, 'm'
	DB	00H, 'f', 00H, 'c', 00H, '\', 00H, 'i', 00H, 'n', 00H, 'c', 00H
	DB	'l', 00H, 'u', 00H, 'd', 00H, 'e', 00H, '\', 00H, 'a', 00H, 't'
	DB	00H, 'l', 00H, 't', 00H, 'r', 00H, 'a', 00H, 'c', 00H, 'e', 00H
	DB	'.', 00H, 'h', 00H, 00H, 00H			; `string'
CONST	ENDS
;	COMDAT ??_C@_1EO@EBPPKGOM@?$AAf?$AAa?$AAl?$AAs?$AAe?$AA?5?$AA?$CG?$AA?$CG?$AA?5?$AA?$CC?$AAT?$AAo?$AAo?$AA?5?$AAm@
CONST	SEGMENT
??_C@_1EO@EBPPKGOM@?$AAf?$AAa?$AAl?$AAs?$AAe?$AA?5?$AA?$CG?$AA?$CG?$AA?5?$AA?$CC?$AAT?$AAo?$AAo?$AA?5?$AAm@ DB 'f'
	DB	00H, 'a', 00H, 'l', 00H, 's', 00H, 'e', 00H, ' ', 00H, '&', 00H
	DB	'&', 00H, ' ', 00H, '"', 00H, 'T', 00H, 'o', 00H, 'o', 00H, ' '
	DB	00H, 'm', 00H, 'a', 00H, 'n', 00H, 'y', 00H, ' ', 00H, 'c', 00H
	DB	'a', 00H, 't', 00H, 'e', 00H, 'g', 00H, 'o', 00H, 'r', 00H, 'i'
	DB	00H, 'e', 00H, 's', 00H, ' ', 00H, 'd', 00H, 'e', 00H, 'f', 00H
	DB	'i', 00H, 'n', 00H, 'e', 00H, 'd', 00H, '"', 00H, 00H, 00H ; `string'
CONST	ENDS
;	COMDAT ??_C@_17LGGGMOOB@?$AA?$CF?$AAh?$AAs@
CONST	SEGMENT
??_C@_17LGGGMOOB@?$AA?$CF?$AAh?$AAs@ DB '%', 00H, 'h', 00H, 's', 00H, 00H
	DB	00H						; `string'
CONST	ENDS
;	COMDAT ??_C@_0P@MBNHGHMI@atlTraceString@
CONST	SEGMENT
??_C@_0P@MBNHGHMI@atlTraceString@ DB 'atlTraceString', 00H ; `string'
CONST	ENDS
;	COMDAT ??_C@_0BC@PGMFNIFA@atlTraceException@
CONST	SEGMENT
??_C@_0BC@PGMFNIFA@atlTraceException@ DB 'atlTraceException', 00H ; `string'
CONST	ENDS
;	COMDAT ??_C@_17CNPHIMPH@?$AA?$CF?$AAl?$AAs@
CONST	SEGMENT
??_C@_17CNPHIMPH@?$AA?$CF?$AAl?$AAs@ DB '%', 00H, 'l', 00H, 's', 00H, 00H
	DB	00H						; `string'
CONST	ENDS
;	COMDAT xdata$x
xdata$x	SEGMENT
__ehfuncinfo$??1CServiceUnits@@UAE@XZ DD 019930522H
	DD	00H
	DD	00H
	DD	2 DUP(00H)
	DD	2 DUP(00H)
	DD	00H
	DD	05H
xdata$x	ENDS
;	COMDAT xdata$x
xdata$x	SEGMENT
__ehfuncinfo$??0CServiceUnits@@QAE@XZ DD 019930522H
	DD	06H
	DD	FLAT:__unwindtable$??0CServiceUnits@@QAE@XZ
	DD	2 DUP(00H)
	DD	2 DUP(00H)
	DD	00H
	DD	01H
__unwindtable$??0CServiceUnits@@QAE@XZ DD 0ffffffffH
	DD	FLAT:__unwindfunclet$??0CServiceUnits@@QAE@XZ$0
	DD	00H
	DD	FLAT:__unwindfunclet$??0CServiceUnits@@QAE@XZ$1
	DD	01H
	DD	FLAT:__unwindfunclet$??0CServiceUnits@@QAE@XZ$2
	DD	02H
	DD	FLAT:__unwindfunclet$??0CServiceUnits@@QAE@XZ$3
	DD	03H
	DD	FLAT:__unwindfunclet$??0CServiceUnits@@QAE@XZ$4
	DD	04H
	DD	FLAT:__unwindfunclet$??0CServiceUnits@@QAE@XZ$5
xdata$x	ENDS
;	COMDAT xdata$x
xdata$x	SEGMENT
__unwindtable$?CreateInstance@?$CTempldateHelper@UITCPNetworkEngine@@@@QAE_NXZ DD 0ffffffffH
	DD	00H
	DD	0ffffffffH
	DD	00H
__tryblocktable$?CreateInstance@?$CTempldateHelper@UITCPNetworkEngine@@@@QAE_NXZ DD 00H
	DD	00H
	DD	01H
	DD	02H
	DD	FLAT:__catchsym$?CreateInstance@?$CTempldateHelper@UITCPNetworkEngine@@@@QAE_NXZ$3
__catchsym$?CreateInstance@?$CTempldateHelper@UITCPNetworkEngine@@@@QAE_NXZ$3 DD 01H
	DD	FLAT:??_R0PAD@8
	DD	0ffffffe4H
	DD	FLAT:__catch$?CreateInstance@?$CTempldateHelper@UITCPNetworkEngine@@@@QAE_NXZ$0
	DD	040H
	DD	00H
	DD	00H
	DD	FLAT:__catch$?CreateInstance@?$CTempldateHelper@UITCPNetworkEngine@@@@QAE_NXZ$1
__ehfuncinfo$?CreateInstance@?$CTempldateHelper@UITCPNetworkEngine@@@@QAE_NXZ DD 019930522H
	DD	02H
	DD	FLAT:__unwindtable$?CreateInstance@?$CTempldateHelper@UITCPNetworkEngine@@@@QAE_NXZ
	DD	01H
	DD	FLAT:__tryblocktable$?CreateInstance@?$CTempldateHelper@UITCPNetworkEngine@@@@QAE_NXZ
	DD	2 DUP(00H)
	DD	00H
	DD	01H
xdata$x	ENDS
;	COMDAT xdata$x
xdata$x	SEGMENT
__ehfuncinfo$??1?$CTempldateHelper@UITCPNetworkEngine@@@@UAE@XZ DD 019930522H
	DD	00H
	DD	00H
	DD	2 DUP(00H)
	DD	2 DUP(00H)
	DD	00H
	DD	05H
xdata$x	ENDS
;	COMDAT xdata$x
xdata$x	SEGMENT
__unwindtable$?CreateInstance@?$CTempldateHelper@UIAttemperEngine@@@@QAE_NXZ DD 0ffffffffH
	DD	00H
	DD	0ffffffffH
	DD	00H
__tryblocktable$?CreateInstance@?$CTempldateHelper@UIAttemperEngine@@@@QAE_NXZ DD 00H
	DD	00H
	DD	01H
	DD	02H
	DD	FLAT:__catchsym$?CreateInstance@?$CTempldateHelper@UIAttemperEngine@@@@QAE_NXZ$3
__catchsym$?CreateInstance@?$CTempldateHelper@UIAttemperEngine@@@@QAE_NXZ$3 DD 01H
	DD	FLAT:??_R0PAD@8
	DD	0ffffffe4H
	DD	FLAT:__catch$?CreateInstance@?$CTempldateHelper@UIAttemperEngine@@@@QAE_NXZ$0
	DD	040H
	DD	00H
	DD	00H
	DD	FLAT:__catch$?CreateInstance@?$CTempldateHelper@UIAttemperEngine@@@@QAE_NXZ$1
__ehfuncinfo$?CreateInstance@?$CTempldateHelper@UIAttemperEngine@@@@QAE_NXZ DD 019930522H
	DD	02H
	DD	FLAT:__unwindtable$?CreateInstance@?$CTempldateHelper@UIAttemperEngine@@@@QAE_NXZ
	DD	01H
	DD	FLAT:__tryblocktable$?CreateInstance@?$CTempldateHelper@UIAttemperEngine@@@@QAE_NXZ
	DD	2 DUP(00H)
	DD	00H
	DD	01H
xdata$x	ENDS
;	COMDAT xdata$x
xdata$x	SEGMENT
__ehfuncinfo$??1?$CTempldateHelper@UIAttemperEngine@@@@UAE@XZ DD 019930522H
	DD	00H
	DD	00H
	DD	2 DUP(00H)
	DD	2 DUP(00H)
	DD	00H
	DD	05H
xdata$x	ENDS
;	COMDAT xdata$x
xdata$x	SEGMENT
__unwindtable$?CreateInstance@?$CTempldateHelper@UITimerEngine@@@@QAE_NXZ DD 0ffffffffH
	DD	00H
	DD	0ffffffffH
	DD	00H
__tryblocktable$?CreateInstance@?$CTempldateHelper@UITimerEngine@@@@QAE_NXZ DD 00H
	DD	00H
	DD	01H
	DD	02H
	DD	FLAT:__catchsym$?CreateInstance@?$CTempldateHelper@UITimerEngine@@@@QAE_NXZ$3
__catchsym$?CreateInstance@?$CTempldateHelper@UITimerEngine@@@@QAE_NXZ$3 DD 01H
	DD	FLAT:??_R0PAD@8
	DD	0ffffffe4H
	DD	FLAT:__catch$?CreateInstance@?$CTempldateHelper@UITimerEngine@@@@QAE_NXZ$0
	DD	040H
	DD	00H
	DD	00H
	DD	FLAT:__catch$?CreateInstance@?$CTempldateHelper@UITimerEngine@@@@QAE_NXZ$1
__ehfuncinfo$?CreateInstance@?$CTempldateHelper@UITimerEngine@@@@QAE_NXZ DD 019930522H
	DD	02H
	DD	FLAT:__unwindtable$?CreateInstance@?$CTempldateHelper@UITimerEngine@@@@QAE_NXZ
	DD	01H
	DD	FLAT:__tryblocktable$?CreateInstance@?$CTempldateHelper@UITimerEngine@@@@QAE_NXZ
	DD	2 DUP(00H)
	DD	00H
	DD	01H
xdata$x	ENDS
;	COMDAT xdata$x
xdata$x	SEGMENT
__ehfuncinfo$??1?$CTempldateHelper@UITimerEngine@@@@UAE@XZ DD 019930522H
	DD	00H
	DD	00H
	DD	2 DUP(00H)
	DD	2 DUP(00H)
	DD	00H
	DD	05H
xdata$x	ENDS
;	COMDAT CRT$XCU
CRT$XCU	SEGMENT
?atlTraceString$initializer$@ATL@@3P6AXXZA DD FLAT:??__EatlTraceString@ATL@@YAXXZ ; ATL::atlTraceString$initializer$
CRT$XCU	ENDS
; Function compile flags: /Odtp /ZI
; File c:\program files (x86)\windows kits\10\include\10.0.17763.0\ucrt\stdio.h
;	COMDAT ??$_snprintf_s@$0IA@@@YAHAAY0IA@DIPBDZZ
_TEXT	SEGMENT
__ArgList$ = -4						; size = 4
__Buffer$ = 8						; size = 4
__BufferCount$ = 12					; size = 4
__Format$ = 16						; size = 4
??$_snprintf_s@$0IA@@@YAHAAY0IA@DIPBDZZ PROC		; _snprintf_s<128>, COMDAT

; 2079 :         )

  00000	55		 push	 ebp
  00001	8b ec		 mov	 ebp, esp
  00003	83 ec 48	 sub	 esp, 72			; 00000048H
  00006	53		 push	 ebx
  00007	56		 push	 esi
  00008	57		 push	 edi

; 2073 :     __DEFINE_CPP_OVERLOAD_SECURE_FUNC_0_2_ARGLIST(

  00009	8d 45 14	 lea	 eax, DWORD PTR __Format$[ebp+4]
  0000c	89 45 fc	 mov	 DWORD PTR __ArgList$[ebp], eax
  0000f	8b 45 fc	 mov	 eax, DWORD PTR __ArgList$[ebp]
  00012	50		 push	 eax
  00013	8b 4d 10	 mov	 ecx, DWORD PTR __Format$[ebp]
  00016	51		 push	 ecx
  00017	8b 55 0c	 mov	 edx, DWORD PTR __BufferCount$[ebp]
  0001a	52		 push	 edx
  0001b	68 80 00 00 00	 push	 128			; 00000080H
  00020	8b 45 08	 mov	 eax, DWORD PTR __Buffer$[ebp]
  00023	50		 push	 eax
  00024	e8 00 00 00 00	 call	 __vsnprintf_s
  00029	83 c4 14	 add	 esp, 20			; 00000014H
  0002c	5f		 pop	 edi
  0002d	5e		 pop	 esi
  0002e	5b		 pop	 ebx
  0002f	8b e5		 mov	 esp, ebp
  00031	5d		 pop	 ebp
  00032	c3		 ret	 0
??$_snprintf_s@$0IA@@@YAHAAY0IA@DIPBDZZ ENDP		; _snprintf_s<128>
_TEXT	ENDS
; Function compile flags: /Odtp /ZI
;	COMDAT ??_GCServiceUnits@@UAEPAXI@Z
_TEXT	SEGMENT
_this$ = -4						; size = 4
___flags$ = 8						; size = 4
??_GCServiceUnits@@UAEPAXI@Z PROC			; CServiceUnits::`scalar deleting destructor', COMDAT
; _this$ = ecx
  00000	55		 push	 ebp
  00001	8b ec		 mov	 ebp, esp
  00003	83 ec 44	 sub	 esp, 68			; 00000044H
  00006	53		 push	 ebx
  00007	56		 push	 esi
  00008	57		 push	 edi
  00009	89 4d fc	 mov	 DWORD PTR _this$[ebp], ecx
  0000c	8b 4d fc	 mov	 ecx, DWORD PTR _this$[ebp]
  0000f	e8 00 00 00 00	 call	 ??1CServiceUnits@@UAE@XZ ; CServiceUnits::~CServiceUnits
  00014	8b 45 08	 mov	 eax, DWORD PTR ___flags$[ebp]
  00017	83 e0 01	 and	 eax, 1
  0001a	74 11		 je	 SHORT $LN2@scalar
  0001c	68 38 07 00 00	 push	 1848			; 00000738H
  00021	8b 45 fc	 mov	 eax, DWORD PTR _this$[ebp]
  00024	50		 push	 eax
  00025	e8 00 00 00 00	 call	 ??3@YAXPAXI@Z		; operator delete
  0002a	83 c4 08	 add	 esp, 8
$LN2@scalar:
  0002d	8b 45 fc	 mov	 eax, DWORD PTR _this$[ebp]
  00030	5f		 pop	 edi
  00031	5e		 pop	 esi
  00032	5b		 pop	 ebx
  00033	8b e5		 mov	 esp, ebp
  00035	5d		 pop	 ebp
  00036	c2 04 00	 ret	 4
??_GCServiceUnits@@UAEPAXI@Z ENDP			; CServiceUnits::`scalar deleting destructor'
_TEXT	ENDS
; Function compile flags: /Odtp /ZI
; File g:\网狐\happygamewh\服务端\系统模块\服务器组件\协调服务器\serviceunits.cpp
;	COMDAT ?SetServiceStatus@CServiceUnits@@AAE_NW4enServiceStatus@@@Z
_TEXT	SEGMENT
_pszString$1 = -8					; size = 4
_this$ = -4						; size = 4
_ServiceStatus$ = 8					; size = 4
?SetServiceStatus@CServiceUnits@@AAE_NW4enServiceStatus@@@Z PROC ; CServiceUnits::SetServiceStatus, COMDAT
; _this$ = ecx

; 146  : {

  00000	55		 push	 ebp
  00001	8b ec		 mov	 ebp, esp
  00003	83 ec 48	 sub	 esp, 72			; 00000048H
  00006	53		 push	 ebx
  00007	56		 push	 esi
  00008	57		 push	 edi
  00009	89 4d fc	 mov	 DWORD PTR _this$[ebp], ecx

; 147  : 	//状态判断
; 148  : 	if (m_ServiceStatus!=ServiceStatus)

  0000c	8b 45 fc	 mov	 eax, DWORD PTR _this$[ebp]
  0000f	8b 48 04	 mov	 ecx, DWORD PTR [eax+4]
  00012	3b 4d 08	 cmp	 ecx, DWORD PTR _ServiceStatus$[ebp]
  00015	74 7e		 je	 SHORT $LN2@SetService

; 149  : 	{
; 150  : 		//错误通知
; 151  : 		if ((m_ServiceStatus!=ServiceStatus_Service)&&(ServiceStatus==ServiceStatus_Stop))

  00017	8b 45 fc	 mov	 eax, DWORD PTR _this$[ebp]
  0001a	83 78 04 02	 cmp	 DWORD PTR [eax+4], 2
  0001e	74 1c		 je	 SHORT $LN3@SetService
  00020	83 7d 08 00	 cmp	 DWORD PTR _ServiceStatus$[ebp], 0
  00024	75 16		 jne	 SHORT $LN3@SetService

; 152  : 		{
; 153  : 			LPCTSTR pszString=TEXT("服务启动失败");

  00026	c7 45 f8 00 00
	00 00		 mov	 DWORD PTR _pszString$1[ebp], OFFSET ??_C@_0N@LNPLGNA@?$LH?$PO?N?q?F?t?$LG?$KP?J?$KH?$LA?$NM@

; 154  : 			CTraceService::TraceString(pszString,TraceLevel_Exception);

  0002d	6a 03		 push	 3
  0002f	8b 45 f8	 mov	 eax, DWORD PTR _pszString$1[ebp]
  00032	50		 push	 eax
  00033	ff 15 00 00 00
	00		 call	 DWORD PTR __imp_?TraceString@CTraceService@@SA_NPBDW4enTraceLevel@@@Z
  00039	83 c4 08	 add	 esp, 8
$LN3@SetService:

; 155  : 		}
; 156  : 
; 157  : 		//设置变量
; 158  : 		m_ServiceStatus=ServiceStatus;

  0003c	8b 45 fc	 mov	 eax, DWORD PTR _this$[ebp]
  0003f	8b 4d 08	 mov	 ecx, DWORD PTR _ServiceStatus$[ebp]
  00042	89 48 04	 mov	 DWORD PTR [eax+4], ecx

; 159  : 
; 160  : 		//状态通知
; 161  : 		ASSERT(m_pIServiceUnitsSink!=NULL);

  00045	8b 45 fc	 mov	 eax, DWORD PTR _this$[ebp]
  00048	83 b8 34 07 00
	00 00		 cmp	 DWORD PTR [eax+1844], 0
  0004f	75 19		 jne	 SHORT $LN6@SetService
  00051	8b 0d 00 00 00
	00		 mov	 ecx, DWORD PTR ?__LINE__Var@?0??SetServiceStatus@CServiceUnits@@AAE_NW4enServiceStatus@@@Z@4JA
  00057	83 c1 0f	 add	 ecx, 15			; 0000000fH
  0005a	51		 push	 ecx
  0005b	68 00 00 00 00	 push	 OFFSET ??_C@_0EL@DGPFHPCJ@g?3?2?M?x?$LK?$PM?2happygamewh?2?$LH?$PO?N?q?$LG?K?2?O?$LF?M?$LD@
  00060	e8 00 00 00 00	 call	 ?AfxAssertFailedLine@@YGHPBDH@Z ; AfxAssertFailedLine
  00065	85 c0		 test	 eax, eax
  00067	74 01		 je	 SHORT $LN6@SetService
  00069	cc		 int	 3
$LN6@SetService:

; 162  : 		if (m_pIServiceUnitsSink!=NULL) m_pIServiceUnitsSink->OnServiceUnitsStatus(m_ServiceStatus);

  0006a	8b 45 fc	 mov	 eax, DWORD PTR _this$[ebp]
  0006d	83 b8 34 07 00
	00 00		 cmp	 DWORD PTR [eax+1844], 0
  00074	74 1f		 je	 SHORT $LN2@SetService
  00076	8b 45 fc	 mov	 eax, DWORD PTR _this$[ebp]
  00079	8b 48 04	 mov	 ecx, DWORD PTR [eax+4]
  0007c	51		 push	 ecx
  0007d	8b 55 fc	 mov	 edx, DWORD PTR _this$[ebp]
  00080	8b 82 34 07 00
	00		 mov	 eax, DWORD PTR [edx+1844]
  00086	8b 4d fc	 mov	 ecx, DWORD PTR _this$[ebp]
  00089	8b 10		 mov	 edx, DWORD PTR [eax]
  0008b	8b 89 34 07 00
	00		 mov	 ecx, DWORD PTR [ecx+1844]
  00091	8b 02		 mov	 eax, DWORD PTR [edx]
  00093	ff d0		 call	 eax
$LN2@SetService:

; 163  : 	}
; 164  : 
; 165  : 	return true;

  00095	b0 01		 mov	 al, 1

; 166  : }

  00097	5f		 pop	 edi
  00098	5e		 pop	 esi
  00099	5b		 pop	 ebx
  0009a	8b e5		 mov	 esp, ebp
  0009c	5d		 pop	 ebp
  0009d	c2 04 00	 ret	 4
?SetServiceStatus@CServiceUnits@@AAE_NW4enServiceStatus@@@Z ENDP ; CServiceUnits::SetServiceStatus
_TEXT	ENDS
; Function compile flags: /Odtp /ZI
; File g:\网狐\happygamewh\服务端\系统模块\服务器组件\协调服务器\serviceunits.cpp
;	COMDAT ?StartKernelService@CServiceUnits@@IAE_NXZ
_TEXT	SEGMENT
tv158 = -72						; size = 4
tv133 = -72						; size = 4
tv76 = -72						; size = 4
_this$ = -4						; size = 4
?StartKernelService@CServiceUnits@@IAE_NXZ PROC		; CServiceUnits::StartKernelService, COMDAT
; _this$ = ecx

; 119  : {

  00000	55		 push	 ebp
  00001	8b ec		 mov	 ebp, esp
  00003	83 ec 48	 sub	 esp, 72			; 00000048H
  00006	53		 push	 ebx
  00007	56		 push	 esi
  00008	57		 push	 edi
  00009	89 4d fc	 mov	 DWORD PTR _this$[ebp], ecx

; 120  : 	//时间引擎
; 121  : 	if (m_TimerEngine->StartService()==false)

  0000c	8b 4d fc	 mov	 ecx, DWORD PTR _this$[ebp]
  0000f	81 c1 ac 01 00
	00		 add	 ecx, 428		; 000001acH
  00015	e8 00 00 00 00	 call	 ??C?$CTempldateHelper@UITimerEngine@@@@QBEPAUITimerEngine@@XZ ; CTempldateHelper<ITimerEngine>::operator->
  0001a	89 45 b8	 mov	 DWORD PTR tv76[ebp], eax
  0001d	8b 45 b8	 mov	 eax, DWORD PTR tv76[ebp]
  00020	8b 10		 mov	 edx, DWORD PTR [eax]
  00022	8b 4d b8	 mov	 ecx, DWORD PTR tv76[ebp]
  00025	8b 42 08	 mov	 eax, DWORD PTR [edx+8]
  00028	ff d0		 call	 eax
  0002a	0f b6 c8	 movzx	 ecx, al
  0002d	85 c9		 test	 ecx, ecx
  0002f	75 24		 jne	 SHORT $LN2@StartKerne

; 122  : 	{
; 123  : 		ASSERT(FALSE);

  00031	33 c0		 xor	 eax, eax
  00033	75 19		 jne	 SHORT $LN6@StartKerne
  00035	8b 0d 00 00 00
	00		 mov	 ecx, DWORD PTR ?__LINE__Var@?0??StartKernelService@CServiceUnits@@IAE_NXZ@4JA
  0003b	83 c1 04	 add	 ecx, 4
  0003e	51		 push	 ecx
  0003f	68 00 00 00 00	 push	 OFFSET ??_C@_0EL@DGPFHPCJ@g?3?2?M?x?$LK?$PM?2happygamewh?2?$LH?$PO?N?q?$LG?K?2?O?$LF?M?$LD@
  00044	e8 00 00 00 00	 call	 ?AfxAssertFailedLine@@YGHPBDH@Z ; AfxAssertFailedLine
  00049	85 c0		 test	 eax, eax
  0004b	74 01		 je	 SHORT $LN6@StartKerne
  0004d	cc		 int	 3
$LN6@StartKerne:

; 124  : 		return false;

  0004e	32 c0		 xor	 al, al
  00050	e9 8e 00 00 00	 jmp	 $LN1@StartKerne
$LN2@StartKerne:

; 125  : 	}
; 126  : 
; 127  : 	//调度引擎
; 128  : 	if (m_AttemperEngine->StartService()==false)

  00055	8b 4d fc	 mov	 ecx, DWORD PTR _this$[ebp]
  00058	81 c1 84 03 00
	00		 add	 ecx, 900		; 00000384H
  0005e	e8 00 00 00 00	 call	 ??C?$CTempldateHelper@UIAttemperEngine@@@@QBEPAUIAttemperEngine@@XZ ; CTempldateHelper<IAttemperEngine>::operator->
  00063	89 45 b8	 mov	 DWORD PTR tv133[ebp], eax
  00066	8b 45 b8	 mov	 eax, DWORD PTR tv133[ebp]
  00069	8b 10		 mov	 edx, DWORD PTR [eax]
  0006b	8b 4d b8	 mov	 ecx, DWORD PTR tv133[ebp]
  0006e	8b 42 08	 mov	 eax, DWORD PTR [edx+8]
  00071	ff d0		 call	 eax
  00073	0f b6 c8	 movzx	 ecx, al
  00076	85 c9		 test	 ecx, ecx
  00078	75 21		 jne	 SHORT $LN3@StartKerne

; 129  : 	{
; 130  : 		ASSERT(FALSE);

  0007a	33 c0		 xor	 eax, eax
  0007c	75 19		 jne	 SHORT $LN7@StartKerne
  0007e	8b 0d 00 00 00
	00		 mov	 ecx, DWORD PTR ?__LINE__Var@?0??StartKernelService@CServiceUnits@@IAE_NXZ@4JA
  00084	83 c1 0b	 add	 ecx, 11			; 0000000bH
  00087	51		 push	 ecx
  00088	68 00 00 00 00	 push	 OFFSET ??_C@_0EL@DGPFHPCJ@g?3?2?M?x?$LK?$PM?2happygamewh?2?$LH?$PO?N?q?$LG?K?2?O?$LF?M?$LD@
  0008d	e8 00 00 00 00	 call	 ?AfxAssertFailedLine@@YGHPBDH@Z ; AfxAssertFailedLine
  00092	85 c0		 test	 eax, eax
  00094	74 01		 je	 SHORT $LN7@StartKerne
  00096	cc		 int	 3
$LN7@StartKerne:

; 131  : 		return false;

  00097	32 c0		 xor	 al, al
  00099	eb 48		 jmp	 SHORT $LN1@StartKerne
$LN3@StartKerne:

; 132  : 	}
; 133  : 
; 134  : 	//网络引擎
; 135  : 	if (m_TCPNetworkEngine->StartService()==false)

  0009b	8b 4d fc	 mov	 ecx, DWORD PTR _this$[ebp]
  0009e	81 c1 5c 05 00
	00		 add	 ecx, 1372		; 0000055cH
  000a4	e8 00 00 00 00	 call	 ??C?$CTempldateHelper@UITCPNetworkEngine@@@@QBEPAUITCPNetworkEngine@@XZ ; CTempldateHelper<ITCPNetworkEngine>::operator->
  000a9	89 45 b8	 mov	 DWORD PTR tv158[ebp], eax
  000ac	8b 45 b8	 mov	 eax, DWORD PTR tv158[ebp]
  000af	8b 10		 mov	 edx, DWORD PTR [eax]
  000b1	8b 4d b8	 mov	 ecx, DWORD PTR tv158[ebp]
  000b4	8b 42 08	 mov	 eax, DWORD PTR [edx+8]
  000b7	ff d0		 call	 eax
  000b9	0f b6 c8	 movzx	 ecx, al
  000bc	85 c9		 test	 ecx, ecx
  000be	75 21		 jne	 SHORT $LN4@StartKerne

; 136  : 	{
; 137  : 		ASSERT(FALSE);

  000c0	33 c0		 xor	 eax, eax
  000c2	75 19		 jne	 SHORT $LN8@StartKerne
  000c4	8b 0d 00 00 00
	00		 mov	 ecx, DWORD PTR ?__LINE__Var@?0??StartKernelService@CServiceUnits@@IAE_NXZ@4JA
  000ca	83 c1 12	 add	 ecx, 18			; 00000012H
  000cd	51		 push	 ecx
  000ce	68 00 00 00 00	 push	 OFFSET ??_C@_0EL@DGPFHPCJ@g?3?2?M?x?$LK?$PM?2happygamewh?2?$LH?$PO?N?q?$LG?K?2?O?$LF?M?$LD@
  000d3	e8 00 00 00 00	 call	 ?AfxAssertFailedLine@@YGHPBDH@Z ; AfxAssertFailedLine
  000d8	85 c0		 test	 eax, eax
  000da	74 01		 je	 SHORT $LN8@StartKerne
  000dc	cc		 int	 3
$LN8@StartKerne:

; 138  : 		return false;

  000dd	32 c0		 xor	 al, al
  000df	eb 02		 jmp	 SHORT $LN1@StartKerne
$LN4@StartKerne:

; 139  : 	}
; 140  : 
; 141  : 	return true;

  000e1	b0 01		 mov	 al, 1
$LN1@StartKerne:

; 142  : }

  000e3	5f		 pop	 edi
  000e4	5e		 pop	 esi
  000e5	5b		 pop	 ebx
  000e6	8b e5		 mov	 esp, ebp
  000e8	5d		 pop	 ebp
  000e9	c3		 ret	 0
?StartKernelService@CServiceUnits@@IAE_NXZ ENDP		; CServiceUnits::StartKernelService
_TEXT	ENDS
; Function compile flags: /Odtp /ZI
; File g:\网狐\happygamewh\服务端\系统模块\服务器组件\协调服务器\serviceunits.cpp
;	COMDAT ?InitializeService@CServiceUnits@@IAE_NXZ
_TEXT	SEGMENT
tv276 = -92						; size = 4
tv236 = -92						; size = 4
tv221 = -92						; size = 4
tv206 = -92						; size = 4
tv191 = -92						; size = 4
_wServicePort$ = -24					; size = 2
_wMaxConnect$ = -20					; size = 2
_pIAttemperEngineSink$ = -16				; size = 4
_pITCPNetworkEngine$ = -12				; size = 4
_pIAttemperEngine$ = -8					; size = 4
_this$ = -4						; size = 4
?InitializeService@CServiceUnits@@IAE_NXZ PROC		; CServiceUnits::InitializeService, COMDAT
; _this$ = ecx

; 80   : {

  00000	55		 push	 ebp
  00001	8b ec		 mov	 ebp, esp
  00003	83 ec 5c	 sub	 esp, 92			; 0000005cH
  00006	53		 push	 ebx
  00007	56		 push	 esi
  00008	57		 push	 edi
  00009	89 4d fc	 mov	 DWORD PTR _this$[ebp], ecx

; 81   : 	//加载参数
; 82   : 	m_InitParameter.LoadInitParameter();

  0000c	8b 4d fc	 mov	 ecx, DWORD PTR _this$[ebp]
  0000f	83 c1 4c	 add	 ecx, 76			; 0000004cH
  00012	e8 00 00 00 00	 call	 ?LoadInitParameter@CInitParameter@@QAEXXZ ; CInitParameter::LoadInitParameter

; 83   : 
; 84   : 	//创建组件
; 85   : 	if ((m_TimerEngine.GetInterface()==NULL)&&(m_TimerEngine.CreateInstance()==false)) return false;

  00017	8b 4d fc	 mov	 ecx, DWORD PTR _this$[ebp]
  0001a	81 c1 ac 01 00
	00		 add	 ecx, 428		; 000001acH
  00020	e8 00 00 00 00	 call	 ?GetInterface@?$CTempldateHelper@UITimerEngine@@@@QBEPAUITimerEngine@@XZ ; CTempldateHelper<ITimerEngine>::GetInterface
  00025	85 c0		 test	 eax, eax
  00027	75 1c		 jne	 SHORT $LN2@Initialize
  00029	8b 4d fc	 mov	 ecx, DWORD PTR _this$[ebp]
  0002c	81 c1 ac 01 00
	00		 add	 ecx, 428		; 000001acH
  00032	e8 00 00 00 00	 call	 ?CreateInstance@?$CTempldateHelper@UITimerEngine@@@@QAE_NXZ ; CTempldateHelper<ITimerEngine>::CreateInstance
  00037	0f b6 c0	 movzx	 eax, al
  0003a	85 c0		 test	 eax, eax
  0003c	75 07		 jne	 SHORT $LN2@Initialize
  0003e	32 c0		 xor	 al, al
  00040	e9 e9 01 00 00	 jmp	 $LN1@Initialize
$LN2@Initialize:

; 86   : 	if ((m_AttemperEngine.GetInterface()==NULL)&&(m_AttemperEngine.CreateInstance()==false)) return false;

  00045	8b 4d fc	 mov	 ecx, DWORD PTR _this$[ebp]
  00048	81 c1 84 03 00
	00		 add	 ecx, 900		; 00000384H
  0004e	e8 00 00 00 00	 call	 ?GetInterface@?$CTempldateHelper@UIAttemperEngine@@@@QBEPAUIAttemperEngine@@XZ ; CTempldateHelper<IAttemperEngine>::GetInterface
  00053	85 c0		 test	 eax, eax
  00055	75 1c		 jne	 SHORT $LN3@Initialize
  00057	8b 4d fc	 mov	 ecx, DWORD PTR _this$[ebp]
  0005a	81 c1 84 03 00
	00		 add	 ecx, 900		; 00000384H
  00060	e8 00 00 00 00	 call	 ?CreateInstance@?$CTempldateHelper@UIAttemperEngine@@@@QAE_NXZ ; CTempldateHelper<IAttemperEngine>::CreateInstance
  00065	0f b6 c0	 movzx	 eax, al
  00068	85 c0		 test	 eax, eax
  0006a	75 07		 jne	 SHORT $LN3@Initialize
  0006c	32 c0		 xor	 al, al
  0006e	e9 bb 01 00 00	 jmp	 $LN1@Initialize
$LN3@Initialize:

; 87   : 	if ((m_TCPNetworkEngine.GetInterface()==NULL)&&(m_TCPNetworkEngine.CreateInstance()==false)) return false;

  00073	8b 4d fc	 mov	 ecx, DWORD PTR _this$[ebp]
  00076	81 c1 5c 05 00
	00		 add	 ecx, 1372		; 0000055cH
  0007c	e8 00 00 00 00	 call	 ?GetInterface@?$CTempldateHelper@UITCPNetworkEngine@@@@QBEPAUITCPNetworkEngine@@XZ ; CTempldateHelper<ITCPNetworkEngine>::GetInterface
  00081	85 c0		 test	 eax, eax
  00083	75 1c		 jne	 SHORT $LN4@Initialize
  00085	8b 4d fc	 mov	 ecx, DWORD PTR _this$[ebp]
  00088	81 c1 5c 05 00
	00		 add	 ecx, 1372		; 0000055cH
  0008e	e8 00 00 00 00	 call	 ?CreateInstance@?$CTempldateHelper@UITCPNetworkEngine@@@@QAE_NXZ ; CTempldateHelper<ITCPNetworkEngine>::CreateInstance
  00093	0f b6 c0	 movzx	 eax, al
  00096	85 c0		 test	 eax, eax
  00098	75 07		 jne	 SHORT $LN4@Initialize
  0009a	32 c0		 xor	 al, al
  0009c	e9 8d 01 00 00	 jmp	 $LN1@Initialize
$LN4@Initialize:

; 88   : 
; 89   : 	//组件接口
; 90   : 	IUnknownEx * pIAttemperEngine=m_AttemperEngine.GetInterface();

  000a1	8b 4d fc	 mov	 ecx, DWORD PTR _this$[ebp]
  000a4	81 c1 84 03 00
	00		 add	 ecx, 900		; 00000384H
  000aa	e8 00 00 00 00	 call	 ?GetInterface@?$CTempldateHelper@UIAttemperEngine@@@@QBEPAUIAttemperEngine@@XZ ; CTempldateHelper<IAttemperEngine>::GetInterface
  000af	89 45 f8	 mov	 DWORD PTR _pIAttemperEngine$[ebp], eax

; 91   : 	IUnknownEx * pITCPNetworkEngine=m_TCPNetworkEngine.GetInterface();

  000b2	8b 4d fc	 mov	 ecx, DWORD PTR _this$[ebp]
  000b5	81 c1 5c 05 00
	00		 add	 ecx, 1372		; 0000055cH
  000bb	e8 00 00 00 00	 call	 ?GetInterface@?$CTempldateHelper@UITCPNetworkEngine@@@@QBEPAUITCPNetworkEngine@@XZ ; CTempldateHelper<ITCPNetworkEngine>::GetInterface
  000c0	89 45 f4	 mov	 DWORD PTR _pITCPNetworkEngine$[ebp], eax

; 92   : 
; 93   : 	//回调接口
; 94   : 	IUnknownEx * pIAttemperEngineSink=QUERY_OBJECT_INTERFACE(m_AttemperEngineSink,IUnknownEx);

  000c3	68 00 01 01 06	 push	 100729088		; 06010100H
  000c8	68 00 00 00 00	 push	 OFFSET ?IID_IUnknownEx@@3U_GUID@@B
  000cd	8b 4d fc	 mov	 ecx, DWORD PTR _this$[ebp]
  000d0	83 c1 74	 add	 ecx, 116		; 00000074H
  000d3	8b 45 fc	 mov	 eax, DWORD PTR _this$[ebp]
  000d6	8b 50 74	 mov	 edx, DWORD PTR [eax+116]
  000d9	8b 42 04	 mov	 eax, DWORD PTR [edx+4]
  000dc	ff d0		 call	 eax
  000de	89 45 f0	 mov	 DWORD PTR _pIAttemperEngineSink$[ebp], eax

; 95   : 
; 96   : 	//绑定接口
; 97   : 	if (m_AttemperEngine->SetAttemperEngineSink(pIAttemperEngineSink)==false) return false;

  000e1	8b 4d fc	 mov	 ecx, DWORD PTR _this$[ebp]
  000e4	81 c1 84 03 00
	00		 add	 ecx, 900		; 00000384H
  000ea	e8 00 00 00 00	 call	 ??C?$CTempldateHelper@UIAttemperEngine@@@@QBEPAUIAttemperEngine@@XZ ; CTempldateHelper<IAttemperEngine>::operator->
  000ef	89 45 a4	 mov	 DWORD PTR tv191[ebp], eax
  000f2	8b 45 f0	 mov	 eax, DWORD PTR _pIAttemperEngineSink$[ebp]
  000f5	50		 push	 eax
  000f6	8b 4d a4	 mov	 ecx, DWORD PTR tv191[ebp]
  000f9	8b 11		 mov	 edx, DWORD PTR [ecx]
  000fb	8b 4d a4	 mov	 ecx, DWORD PTR tv191[ebp]
  000fe	8b 42 14	 mov	 eax, DWORD PTR [edx+20]
  00101	ff d0		 call	 eax
  00103	0f b6 c8	 movzx	 ecx, al
  00106	85 c9		 test	 ecx, ecx
  00108	75 07		 jne	 SHORT $LN5@Initialize
  0010a	32 c0		 xor	 al, al
  0010c	e9 1d 01 00 00	 jmp	 $LN1@Initialize
$LN5@Initialize:

; 98   : 
; 99   : 	//内核组件
; 100  : 	if (m_TimerEngine->SetTimerEngineEvent(pIAttemperEngine)==false) return false;

  00111	8b 4d fc	 mov	 ecx, DWORD PTR _this$[ebp]
  00114	81 c1 ac 01 00
	00		 add	 ecx, 428		; 000001acH
  0011a	e8 00 00 00 00	 call	 ??C?$CTempldateHelper@UITimerEngine@@@@QBEPAUITimerEngine@@XZ ; CTempldateHelper<ITimerEngine>::operator->
  0011f	89 45 a4	 mov	 DWORD PTR tv206[ebp], eax
  00122	8b 45 f8	 mov	 eax, DWORD PTR _pIAttemperEngine$[ebp]
  00125	50		 push	 eax
  00126	8b 4d a4	 mov	 ecx, DWORD PTR tv206[ebp]
  00129	8b 11		 mov	 edx, DWORD PTR [ecx]
  0012b	8b 4d a4	 mov	 ecx, DWORD PTR tv206[ebp]
  0012e	8b 42 14	 mov	 eax, DWORD PTR [edx+20]
  00131	ff d0		 call	 eax
  00133	0f b6 c8	 movzx	 ecx, al
  00136	85 c9		 test	 ecx, ecx
  00138	75 07		 jne	 SHORT $LN6@Initialize
  0013a	32 c0		 xor	 al, al
  0013c	e9 ed 00 00 00	 jmp	 $LN1@Initialize
$LN6@Initialize:

; 101  : 	if (m_AttemperEngine->SetNetworkEngine(pITCPNetworkEngine)==false) return false;

  00141	8b 4d fc	 mov	 ecx, DWORD PTR _this$[ebp]
  00144	81 c1 84 03 00
	00		 add	 ecx, 900		; 00000384H
  0014a	e8 00 00 00 00	 call	 ??C?$CTempldateHelper@UIAttemperEngine@@@@QBEPAUIAttemperEngine@@XZ ; CTempldateHelper<IAttemperEngine>::operator->
  0014f	89 45 a4	 mov	 DWORD PTR tv221[ebp], eax
  00152	8b 45 f4	 mov	 eax, DWORD PTR _pITCPNetworkEngine$[ebp]
  00155	50		 push	 eax
  00156	8b 4d a4	 mov	 ecx, DWORD PTR tv221[ebp]
  00159	8b 11		 mov	 edx, DWORD PTR [ecx]
  0015b	8b 4d a4	 mov	 ecx, DWORD PTR tv221[ebp]
  0015e	8b 42 10	 mov	 eax, DWORD PTR [edx+16]
  00161	ff d0		 call	 eax
  00163	0f b6 c8	 movzx	 ecx, al
  00166	85 c9		 test	 ecx, ecx
  00168	75 07		 jne	 SHORT $LN7@Initialize
  0016a	32 c0		 xor	 al, al
  0016c	e9 bd 00 00 00	 jmp	 $LN1@Initialize
$LN7@Initialize:

; 102  : 	if (m_TCPNetworkEngine->SetTCPNetworkEngineEvent(pIAttemperEngine)==false) return false;

  00171	8b 4d fc	 mov	 ecx, DWORD PTR _this$[ebp]
  00174	81 c1 5c 05 00
	00		 add	 ecx, 1372		; 0000055cH
  0017a	e8 00 00 00 00	 call	 ??C?$CTempldateHelper@UITCPNetworkEngine@@@@QBEPAUITCPNetworkEngine@@XZ ; CTempldateHelper<ITCPNetworkEngine>::operator->
  0017f	89 45 a4	 mov	 DWORD PTR tv236[ebp], eax
  00182	8b 45 f8	 mov	 eax, DWORD PTR _pIAttemperEngine$[ebp]
  00185	50		 push	 eax
  00186	8b 4d a4	 mov	 ecx, DWORD PTR tv236[ebp]
  00189	8b 11		 mov	 edx, DWORD PTR [ecx]
  0018b	8b 4d a4	 mov	 ecx, DWORD PTR tv236[ebp]
  0018e	8b 42 18	 mov	 eax, DWORD PTR [edx+24]
  00191	ff d0		 call	 eax
  00193	0f b6 c8	 movzx	 ecx, al
  00196	85 c9		 test	 ecx, ecx
  00198	75 07		 jne	 SHORT $LN8@Initialize
  0019a	32 c0		 xor	 al, al
  0019c	e9 8d 00 00 00	 jmp	 $LN1@Initialize
$LN8@Initialize:

; 103  : 
; 104  : 	//调度回调
; 105  : 	m_AttemperEngineSink.m_pInitParameter=&m_InitParameter;

  001a1	8b 45 fc	 mov	 eax, DWORD PTR _this$[ebp]
  001a4	83 c0 4c	 add	 eax, 76			; 0000004cH
  001a7	8b 4d fc	 mov	 ecx, DWORD PTR _this$[ebp]
  001aa	89 81 90 00 00
	00		 mov	 DWORD PTR [ecx+144], eax

; 106  : 	m_AttemperEngineSink.m_pITimerEngine=m_TimerEngine.GetInterface();

  001b0	8b 4d fc	 mov	 ecx, DWORD PTR _this$[ebp]
  001b3	81 c1 ac 01 00
	00		 add	 ecx, 428		; 000001acH
  001b9	e8 00 00 00 00	 call	 ?GetInterface@?$CTempldateHelper@UITimerEngine@@@@QBEPAUITimerEngine@@XZ ; CTempldateHelper<ITimerEngine>::GetInterface
  001be	8b 4d fc	 mov	 ecx, DWORD PTR _this$[ebp]
  001c1	89 81 a4 01 00
	00		 mov	 DWORD PTR [ecx+420], eax

; 107  : 	m_AttemperEngineSink.m_pITCPNetworkEngine=m_TCPNetworkEngine.GetInterface();

  001c7	8b 4d fc	 mov	 ecx, DWORD PTR _this$[ebp]
  001ca	81 c1 5c 05 00
	00		 add	 ecx, 1372		; 0000055cH
  001d0	e8 00 00 00 00	 call	 ?GetInterface@?$CTempldateHelper@UITCPNetworkEngine@@@@QBEPAUITCPNetworkEngine@@XZ ; CTempldateHelper<ITCPNetworkEngine>::GetInterface
  001d5	8b 4d fc	 mov	 ecx, DWORD PTR _this$[ebp]
  001d8	89 81 a8 01 00
	00		 mov	 DWORD PTR [ecx+424], eax

; 108  : 
; 109  : 	//配置网络
; 110  : 	WORD wMaxConnect=m_InitParameter.m_wMaxConnect;

  001de	8b 45 fc	 mov	 eax, DWORD PTR _this$[ebp]
  001e1	66 8b 48 50	 mov	 cx, WORD PTR [eax+80]
  001e5	66 89 4d ec	 mov	 WORD PTR _wMaxConnect$[ebp], cx

; 111  : 	WORD wServicePort=m_InitParameter.m_wServicePort;

  001e9	8b 45 fc	 mov	 eax, DWORD PTR _this$[ebp]
  001ec	66 8b 48 52	 mov	 cx, WORD PTR [eax+82]
  001f0	66 89 4d e8	 mov	 WORD PTR _wServicePort$[ebp], cx

; 112  : 	if (m_TCPNetworkEngine->SetServiceParameter(wServicePort,wMaxConnect,szCompilation)==false) return false;

  001f4	8b 4d fc	 mov	 ecx, DWORD PTR _this$[ebp]
  001f7	81 c1 5c 05 00
	00		 add	 ecx, 1372		; 0000055cH
  001fd	e8 00 00 00 00	 call	 ??C?$CTempldateHelper@UITCPNetworkEngine@@@@QBEPAUITCPNetworkEngine@@XZ ; CTempldateHelper<ITCPNetworkEngine>::operator->
  00202	89 45 a4	 mov	 DWORD PTR tv276[ebp], eax
  00205	68 00 00 00 00	 push	 OFFSET ?szCompilation@@3QBDB
  0020a	0f b7 45 ec	 movzx	 eax, WORD PTR _wMaxConnect$[ebp]
  0020e	50		 push	 eax
  0020f	0f b7 4d e8	 movzx	 ecx, WORD PTR _wServicePort$[ebp]
  00213	51		 push	 ecx
  00214	8b 55 a4	 mov	 edx, DWORD PTR tv276[ebp]
  00217	8b 02		 mov	 eax, DWORD PTR [edx]
  00219	8b 4d a4	 mov	 ecx, DWORD PTR tv276[ebp]
  0021c	8b 50 1c	 mov	 edx, DWORD PTR [eax+28]
  0021f	ff d2		 call	 edx
  00221	0f b6 c0	 movzx	 eax, al
  00224	85 c0		 test	 eax, eax
  00226	75 04		 jne	 SHORT $LN9@Initialize
  00228	32 c0		 xor	 al, al
  0022a	eb 02		 jmp	 SHORT $LN1@Initialize
$LN9@Initialize:

; 113  : 
; 114  : 	return true;

  0022c	b0 01		 mov	 al, 1
$LN1@Initialize:

; 115  : }

  0022e	5f		 pop	 edi
  0022f	5e		 pop	 esi
  00230	5b		 pop	 ebx
  00231	8b e5		 mov	 esp, ebp
  00233	5d		 pop	 ebp
  00234	c3		 ret	 0
?InitializeService@CServiceUnits@@IAE_NXZ ENDP		; CServiceUnits::InitializeService
_TEXT	ENDS
; Function compile flags: /Odtp /ZI
; File g:\网狐\happygamewh\服务端\系统模块\服务器组件\协调服务器\serviceunits.cpp
;	COMDAT ?SetServiceUnitsSink@CServiceUnits@@QAE_NPAUIServiceUnitsSink@@@Z
_TEXT	SEGMENT
_this$ = -4						; size = 4
_pIServiceUnitsSink$ = 8				; size = 4
?SetServiceUnitsSink@CServiceUnits@@QAE_NPAUIServiceUnitsSink@@@Z PROC ; CServiceUnits::SetServiceUnitsSink, COMDAT
; _this$ = ecx

; 71   : {

  00000	55		 push	 ebp
  00001	8b ec		 mov	 ebp, esp
  00003	83 ec 44	 sub	 esp, 68			; 00000044H
  00006	53		 push	 ebx
  00007	56		 push	 esi
  00008	57		 push	 edi
  00009	89 4d fc	 mov	 DWORD PTR _this$[ebp], ecx

; 72   : 	//设置变量
; 73   : 	m_pIServiceUnitsSink=pIServiceUnitsSink;

  0000c	8b 45 fc	 mov	 eax, DWORD PTR _this$[ebp]
  0000f	8b 4d 08	 mov	 ecx, DWORD PTR _pIServiceUnitsSink$[ebp]
  00012	89 88 34 07 00
	00		 mov	 DWORD PTR [eax+1844], ecx

; 74   : 
; 75   : 	return true;

  00018	b0 01		 mov	 al, 1

; 76   : }

  0001a	5f		 pop	 edi
  0001b	5e		 pop	 esi
  0001c	5b		 pop	 ebx
  0001d	8b e5		 mov	 esp, ebp
  0001f	5d		 pop	 ebp
  00020	c2 04 00	 ret	 4
?SetServiceUnitsSink@CServiceUnits@@QAE_NPAUIServiceUnitsSink@@@Z ENDP ; CServiceUnits::SetServiceUnitsSink
_TEXT	ENDS
; Function compile flags: /Odtp /ZI
; File g:\网狐\happygamewh\服务端\系统模块\服务器组件\协调服务器\serviceunits.cpp
;	COMDAT ?ConcludeService@CServiceUnits@@QAE_NXZ
_TEXT	SEGMENT
tv164 = -72						; size = 4
tv141 = -72						; size = 4
tv86 = -72						; size = 4
_this$ = -4						; size = 4
?ConcludeService@CServiceUnits@@QAE_NXZ PROC		; CServiceUnits::ConcludeService, COMDAT
; _this$ = ecx

; 57   : {

  00000	55		 push	 ebp
  00001	8b ec		 mov	 ebp, esp
  00003	83 ec 48	 sub	 esp, 72			; 00000048H
  00006	53		 push	 ebx
  00007	56		 push	 esi
  00008	57		 push	 edi
  00009	89 4d fc	 mov	 DWORD PTR _this$[ebp], ecx

; 58   : 	//设置变量
; 59   : 	SetServiceStatus(ServiceStatus_Stop);

  0000c	6a 00		 push	 0
  0000e	8b 4d fc	 mov	 ecx, DWORD PTR _this$[ebp]
  00011	e8 00 00 00 00	 call	 ?SetServiceStatus@CServiceUnits@@AAE_NW4enServiceStatus@@@Z ; CServiceUnits::SetServiceStatus

; 60   : 
; 61   : 	//停止服务
; 62   : 	if (m_TimerEngine.GetInterface()!=NULL) m_TimerEngine->ConcludeService();

  00016	8b 4d fc	 mov	 ecx, DWORD PTR _this$[ebp]
  00019	81 c1 ac 01 00
	00		 add	 ecx, 428		; 000001acH
  0001f	e8 00 00 00 00	 call	 ?GetInterface@?$CTempldateHelper@UITimerEngine@@@@QBEPAUITimerEngine@@XZ ; CTempldateHelper<ITimerEngine>::GetInterface
  00024	85 c0		 test	 eax, eax
  00026	74 1e		 je	 SHORT $LN2@ConcludeSe
  00028	8b 4d fc	 mov	 ecx, DWORD PTR _this$[ebp]
  0002b	81 c1 ac 01 00
	00		 add	 ecx, 428		; 000001acH
  00031	e8 00 00 00 00	 call	 ??C?$CTempldateHelper@UITimerEngine@@@@QBEPAUITimerEngine@@XZ ; CTempldateHelper<ITimerEngine>::operator->
  00036	89 45 b8	 mov	 DWORD PTR tv86[ebp], eax
  00039	8b 45 b8	 mov	 eax, DWORD PTR tv86[ebp]
  0003c	8b 10		 mov	 edx, DWORD PTR [eax]
  0003e	8b 4d b8	 mov	 ecx, DWORD PTR tv86[ebp]
  00041	8b 42 0c	 mov	 eax, DWORD PTR [edx+12]
  00044	ff d0		 call	 eax
$LN2@ConcludeSe:

; 63   : 	if (m_AttemperEngine.GetInterface()!=NULL) m_AttemperEngine->ConcludeService();

  00046	8b 4d fc	 mov	 ecx, DWORD PTR _this$[ebp]
  00049	81 c1 84 03 00
	00		 add	 ecx, 900		; 00000384H
  0004f	e8 00 00 00 00	 call	 ?GetInterface@?$CTempldateHelper@UIAttemperEngine@@@@QBEPAUIAttemperEngine@@XZ ; CTempldateHelper<IAttemperEngine>::GetInterface
  00054	85 c0		 test	 eax, eax
  00056	74 1e		 je	 SHORT $LN3@ConcludeSe
  00058	8b 4d fc	 mov	 ecx, DWORD PTR _this$[ebp]
  0005b	81 c1 84 03 00
	00		 add	 ecx, 900		; 00000384H
  00061	e8 00 00 00 00	 call	 ??C?$CTempldateHelper@UIAttemperEngine@@@@QBEPAUIAttemperEngine@@XZ ; CTempldateHelper<IAttemperEngine>::operator->
  00066	89 45 b8	 mov	 DWORD PTR tv141[ebp], eax
  00069	8b 45 b8	 mov	 eax, DWORD PTR tv141[ebp]
  0006c	8b 10		 mov	 edx, DWORD PTR [eax]
  0006e	8b 4d b8	 mov	 ecx, DWORD PTR tv141[ebp]
  00071	8b 42 0c	 mov	 eax, DWORD PTR [edx+12]
  00074	ff d0		 call	 eax
$LN3@ConcludeSe:

; 64   : 	if (m_TCPNetworkEngine.GetInterface()!=NULL) m_TCPNetworkEngine->ConcludeService();

  00076	8b 4d fc	 mov	 ecx, DWORD PTR _this$[ebp]
  00079	81 c1 5c 05 00
	00		 add	 ecx, 1372		; 0000055cH
  0007f	e8 00 00 00 00	 call	 ?GetInterface@?$CTempldateHelper@UITCPNetworkEngine@@@@QBEPAUITCPNetworkEngine@@XZ ; CTempldateHelper<ITCPNetworkEngine>::GetInterface
  00084	85 c0		 test	 eax, eax
  00086	74 1e		 je	 SHORT $LN4@ConcludeSe
  00088	8b 4d fc	 mov	 ecx, DWORD PTR _this$[ebp]
  0008b	81 c1 5c 05 00
	00		 add	 ecx, 1372		; 0000055cH
  00091	e8 00 00 00 00	 call	 ??C?$CTempldateHelper@UITCPNetworkEngine@@@@QBEPAUITCPNetworkEngine@@XZ ; CTempldateHelper<ITCPNetworkEngine>::operator->
  00096	89 45 b8	 mov	 DWORD PTR tv164[ebp], eax
  00099	8b 45 b8	 mov	 eax, DWORD PTR tv164[ebp]
  0009c	8b 10		 mov	 edx, DWORD PTR [eax]
  0009e	8b 4d b8	 mov	 ecx, DWORD PTR tv164[ebp]
  000a1	8b 42 0c	 mov	 eax, DWORD PTR [edx+12]
  000a4	ff d0		 call	 eax
$LN4@ConcludeSe:

; 65   : 
; 66   : 	return true;

  000a6	b0 01		 mov	 al, 1

; 67   : }

  000a8	5f		 pop	 edi
  000a9	5e		 pop	 esi
  000aa	5b		 pop	 ebx
  000ab	8b e5		 mov	 esp, ebp
  000ad	5d		 pop	 ebp
  000ae	c3		 ret	 0
?ConcludeService@CServiceUnits@@QAE_NXZ ENDP		; CServiceUnits::ConcludeService
_TEXT	ENDS
; Function compile flags: /Odtp /ZI
; File g:\网狐\happygamewh\服务端\系统模块\服务器组件\协调服务器\serviceunits.cpp
;	COMDAT ?StartService@CServiceUnits@@QAE_NXZ
_TEXT	SEGMENT
_this$ = -4						; size = 4
?StartService@CServiceUnits@@QAE_NXZ PROC		; CServiceUnits::StartService, COMDAT
; _this$ = ecx

; 27   : {

  00000	55		 push	 ebp
  00001	8b ec		 mov	 ebp, esp
  00003	83 ec 44	 sub	 esp, 68			; 00000044H
  00006	53		 push	 ebx
  00007	56		 push	 esi
  00008	57		 push	 edi
  00009	89 4d fc	 mov	 DWORD PTR _this$[ebp], ecx

; 28   : 	//效验状态
; 29   : 	ASSERT(m_ServiceStatus==ServiceStatus_Stop);

  0000c	8b 45 fc	 mov	 eax, DWORD PTR _this$[ebp]
  0000f	83 78 04 00	 cmp	 DWORD PTR [eax+4], 0
  00013	74 19		 je	 SHORT $LN6@StartServi
  00015	8b 0d 00 00 00
	00		 mov	 ecx, DWORD PTR ?__LINE__Var@?0??StartService@CServiceUnits@@QAE_NXZ@4JA
  0001b	83 c1 02	 add	 ecx, 2
  0001e	51		 push	 ecx
  0001f	68 00 00 00 00	 push	 OFFSET ??_C@_0EL@DGPFHPCJ@g?3?2?M?x?$LK?$PM?2happygamewh?2?$LH?$PO?N?q?$LG?K?2?O?$LF?M?$LD@
  00024	e8 00 00 00 00	 call	 ?AfxAssertFailedLine@@YGHPBDH@Z ; AfxAssertFailedLine
  00029	85 c0		 test	 eax, eax
  0002b	74 01		 je	 SHORT $LN6@StartServi
  0002d	cc		 int	 3
$LN6@StartServi:

; 30   : 	if (m_ServiceStatus!=ServiceStatus_Stop) return false;

  0002e	8b 45 fc	 mov	 eax, DWORD PTR _this$[ebp]
  00031	83 78 04 00	 cmp	 DWORD PTR [eax+4], 0
  00035	74 04		 je	 SHORT $LN2@StartServi
  00037	32 c0		 xor	 al, al
  00039	eb 4c		 jmp	 SHORT $LN1@StartServi
$LN2@StartServi:

; 31   : 
; 32   : 	//设置状态
; 33   : 	SetServiceStatus(ServiceStatus_Config);

  0003b	6a 01		 push	 1
  0003d	8b 4d fc	 mov	 ecx, DWORD PTR _this$[ebp]
  00040	e8 00 00 00 00	 call	 ?SetServiceStatus@CServiceUnits@@AAE_NW4enServiceStatus@@@Z ; CServiceUnits::SetServiceStatus

; 34   : 
; 35   : 	//配置服务
; 36   : 	if (InitializeService()==false)

  00045	8b 4d fc	 mov	 ecx, DWORD PTR _this$[ebp]
  00048	e8 00 00 00 00	 call	 ?InitializeService@CServiceUnits@@IAE_NXZ ; CServiceUnits::InitializeService
  0004d	0f b6 c0	 movzx	 eax, al
  00050	85 c0		 test	 eax, eax
  00052	75 0c		 jne	 SHORT $LN3@StartServi

; 37   : 	{
; 38   : 		ConcludeService();

  00054	8b 4d fc	 mov	 ecx, DWORD PTR _this$[ebp]
  00057	e8 00 00 00 00	 call	 ?ConcludeService@CServiceUnits@@QAE_NXZ ; CServiceUnits::ConcludeService

; 39   : 		return false;

  0005c	32 c0		 xor	 al, al
  0005e	eb 27		 jmp	 SHORT $LN1@StartServi
$LN3@StartServi:

; 40   : 	}
; 41   : 
; 42   : 	//启动内核
; 43   : 	if (StartKernelService()==false)

  00060	8b 4d fc	 mov	 ecx, DWORD PTR _this$[ebp]
  00063	e8 00 00 00 00	 call	 ?StartKernelService@CServiceUnits@@IAE_NXZ ; CServiceUnits::StartKernelService
  00068	0f b6 c0	 movzx	 eax, al
  0006b	85 c0		 test	 eax, eax
  0006d	75 0c		 jne	 SHORT $LN4@StartServi

; 44   : 	{
; 45   : 		ConcludeService();

  0006f	8b 4d fc	 mov	 ecx, DWORD PTR _this$[ebp]
  00072	e8 00 00 00 00	 call	 ?ConcludeService@CServiceUnits@@QAE_NXZ ; CServiceUnits::ConcludeService

; 46   : 		return false;

  00077	32 c0		 xor	 al, al
  00079	eb 0c		 jmp	 SHORT $LN1@StartServi
$LN4@StartServi:

; 47   : 	}
; 48   : 
; 49   : 	//设置状态
; 50   : 	SetServiceStatus(ServiceStatus_Service);

  0007b	6a 02		 push	 2
  0007d	8b 4d fc	 mov	 ecx, DWORD PTR _this$[ebp]
  00080	e8 00 00 00 00	 call	 ?SetServiceStatus@CServiceUnits@@AAE_NW4enServiceStatus@@@Z ; CServiceUnits::SetServiceStatus

; 51   : 
; 52   : 	return true;

  00085	b0 01		 mov	 al, 1
$LN1@StartServi:

; 53   : }

  00087	5f		 pop	 edi
  00088	5e		 pop	 esi
  00089	5b		 pop	 ebx
  0008a	8b e5		 mov	 esp, ebp
  0008c	5d		 pop	 ebp
  0008d	c3		 ret	 0
?StartService@CServiceUnits@@QAE_NXZ ENDP		; CServiceUnits::StartService
_TEXT	ENDS
; Function compile flags: /Odtp /ZI
; File g:\网狐\happygamewh\服务端\系统模块\服务器组件\协调服务器\serviceunits.cpp
;	COMDAT ??1CServiceUnits@@UAE@XZ
_TEXT	SEGMENT
_this$ = -16						; size = 4
__$EHRec$ = -12						; size = 12
??1CServiceUnits@@UAE@XZ PROC				; CServiceUnits::~CServiceUnits, COMDAT
; _this$ = ecx

; 21   : {

  00000	55		 push	 ebp
  00001	8b ec		 mov	 ebp, esp
  00003	6a ff		 push	 -1
  00005	68 00 00 00 00	 push	 __ehhandler$??1CServiceUnits@@UAE@XZ
  0000a	64 a1 00 00 00
	00		 mov	 eax, DWORD PTR fs:0
  00010	50		 push	 eax
  00011	83 ec 44	 sub	 esp, 68			; 00000044H
  00014	53		 push	 ebx
  00015	56		 push	 esi
  00016	57		 push	 edi
  00017	a1 00 00 00 00	 mov	 eax, DWORD PTR ___security_cookie
  0001c	33 c5		 xor	 eax, ebp
  0001e	50		 push	 eax
  0001f	8d 45 f4	 lea	 eax, DWORD PTR __$EHRec$[ebp]
  00022	64 a3 00 00 00
	00		 mov	 DWORD PTR fs:0, eax
  00028	89 4d f0	 mov	 DWORD PTR _this$[ebp], ecx
  0002b	8b 45 f0	 mov	 eax, DWORD PTR _this$[ebp]
  0002e	c7 00 00 00 00
	00		 mov	 DWORD PTR [eax], OFFSET ??_7CServiceUnits@@6B@

; 22   : 	ConcludeService();

  00034	8b 4d f0	 mov	 ecx, DWORD PTR _this$[ebp]
  00037	e8 00 00 00 00	 call	 ?ConcludeService@CServiceUnits@@QAE_NXZ ; CServiceUnits::ConcludeService

; 23   : }

  0003c	8b 4d f0	 mov	 ecx, DWORD PTR _this$[ebp]
  0003f	81 c1 5c 05 00
	00		 add	 ecx, 1372		; 0000055cH
  00045	e8 00 00 00 00	 call	 ??1CTCPNetworkEngineHelper@@UAE@XZ
  0004a	8b 4d f0	 mov	 ecx, DWORD PTR _this$[ebp]
  0004d	81 c1 84 03 00
	00		 add	 ecx, 900		; 00000384H
  00053	e8 00 00 00 00	 call	 ??1CAttemperEngineHelper@@UAE@XZ
  00058	8b 4d f0	 mov	 ecx, DWORD PTR _this$[ebp]
  0005b	81 c1 ac 01 00
	00		 add	 ecx, 428		; 000001acH
  00061	e8 00 00 00 00	 call	 ??1CTimerEngineHelper@@UAE@XZ
  00066	8b 4d f0	 mov	 ecx, DWORD PTR _this$[ebp]
  00069	83 c1 74	 add	 ecx, 116		; 00000074H
  0006c	e8 00 00 00 00	 call	 ??1CAttemperEngineSink@@UAE@XZ ; CAttemperEngineSink::~CAttemperEngineSink
  00071	8b 4d f0	 mov	 ecx, DWORD PTR _this$[ebp]
  00074	83 c1 4c	 add	 ecx, 76			; 0000004cH
  00077	e8 00 00 00 00	 call	 ??1CInitParameter@@UAE@XZ ; CInitParameter::~CInitParameter
  0007c	8b 4d f0	 mov	 ecx, DWORD PTR _this$[ebp]
  0007f	83 c1 28	 add	 ecx, 40			; 00000028H
  00082	e8 00 00 00 00	 call	 ??1CCriticalSection@@UAE@XZ ; CCriticalSection::~CCriticalSection
  00087	8b 4d f0	 mov	 ecx, DWORD PTR _this$[ebp]
  0008a	83 c1 08	 add	 ecx, 8
  0008d	ff 15 00 00 00
	00		 call	 DWORD PTR __imp_??1CWHDataQueue@@UAE@XZ
  00093	8b 4d f4	 mov	 ecx, DWORD PTR __$EHRec$[ebp]
  00096	64 89 0d 00 00
	00 00		 mov	 DWORD PTR fs:0, ecx
  0009d	59		 pop	 ecx
  0009e	5f		 pop	 edi
  0009f	5e		 pop	 esi
  000a0	5b		 pop	 ebx
  000a1	8b e5		 mov	 esp, ebp
  000a3	5d		 pop	 ebp
  000a4	c3		 ret	 0
_TEXT	ENDS
;	COMDAT text$x
text$x	SEGMENT
__ehhandler$??1CServiceUnits@@UAE@XZ:
  00000	8b 54 24 08	 mov	 edx, DWORD PTR [esp+8]
  00004	8d 42 0c	 lea	 eax, DWORD PTR [edx+12]
  00007	8b 4a ac	 mov	 ecx, DWORD PTR [edx-84]
  0000a	33 c8		 xor	 ecx, eax
  0000c	e8 00 00 00 00	 call	 @__security_check_cookie@4
  00011	b8 00 00 00 00	 mov	 eax, OFFSET __ehfuncinfo$??1CServiceUnits@@UAE@XZ
  00016	e9 00 00 00 00	 jmp	 ___CxxFrameHandler3
text$x	ENDS
??1CServiceUnits@@UAE@XZ ENDP				; CServiceUnits::~CServiceUnits
; Function compile flags: /Odtp /ZI
; File g:\网狐\happygamewh\服务端\系统模块\服务器组件\协调服务器\serviceunits.cpp
;	COMDAT ??0CServiceUnits@@QAE@XZ
_TEXT	SEGMENT
_this$ = -16						; size = 4
__$EHRec$ = -12						; size = 12
??0CServiceUnits@@QAE@XZ PROC				; CServiceUnits::CServiceUnits, COMDAT
; _this$ = ecx

; 9    : {

  00000	55		 push	 ebp
  00001	8b ec		 mov	 ebp, esp
  00003	6a ff		 push	 -1
  00005	68 00 00 00 00	 push	 __ehhandler$??0CServiceUnits@@QAE@XZ
  0000a	64 a1 00 00 00
	00		 mov	 eax, DWORD PTR fs:0
  00010	50		 push	 eax
  00011	83 ec 44	 sub	 esp, 68			; 00000044H
  00014	53		 push	 ebx
  00015	56		 push	 esi
  00016	57		 push	 edi
  00017	a1 00 00 00 00	 mov	 eax, DWORD PTR ___security_cookie
  0001c	33 c5		 xor	 eax, ebp
  0001e	50		 push	 eax
  0001f	8d 45 f4	 lea	 eax, DWORD PTR __$EHRec$[ebp]
  00022	64 a3 00 00 00
	00		 mov	 DWORD PTR fs:0, eax
  00028	89 4d f0	 mov	 DWORD PTR _this$[ebp], ecx
  0002b	8b 45 f0	 mov	 eax, DWORD PTR _this$[ebp]
  0002e	c7 00 00 00 00
	00		 mov	 DWORD PTR [eax], OFFSET ??_7CServiceUnits@@6B@
  00034	8b 4d f0	 mov	 ecx, DWORD PTR _this$[ebp]
  00037	83 c1 08	 add	 ecx, 8
  0003a	ff 15 00 00 00
	00		 call	 DWORD PTR __imp_??0CWHDataQueue@@QAE@XZ
  00040	c7 45 fc 00 00
	00 00		 mov	 DWORD PTR __$EHRec$[ebp+8], 0
  00047	8b 4d f0	 mov	 ecx, DWORD PTR _this$[ebp]
  0004a	83 c1 28	 add	 ecx, 40			; 00000028H
  0004d	e8 00 00 00 00	 call	 ??0CCriticalSection@@QAE@XZ ; CCriticalSection::CCriticalSection
  00052	c6 45 fc 01	 mov	 BYTE PTR __$EHRec$[ebp+8], 1
  00056	8b 4d f0	 mov	 ecx, DWORD PTR _this$[ebp]
  00059	83 c1 4c	 add	 ecx, 76			; 0000004cH
  0005c	e8 00 00 00 00	 call	 ??0CInitParameter@@QAE@XZ ; CInitParameter::CInitParameter
  00061	c6 45 fc 02	 mov	 BYTE PTR __$EHRec$[ebp+8], 2
  00065	8b 4d f0	 mov	 ecx, DWORD PTR _this$[ebp]
  00068	83 c1 74	 add	 ecx, 116		; 00000074H
  0006b	e8 00 00 00 00	 call	 ??0CAttemperEngineSink@@QAE@XZ ; CAttemperEngineSink::CAttemperEngineSink
  00070	c6 45 fc 03	 mov	 BYTE PTR __$EHRec$[ebp+8], 3
  00074	8b 4d f0	 mov	 ecx, DWORD PTR _this$[ebp]
  00077	81 c1 ac 01 00
	00		 add	 ecx, 428		; 000001acH
  0007d	e8 00 00 00 00	 call	 ??0CTimerEngineHelper@@QAE@XZ ; CTimerEngineHelper::CTimerEngineHelper
  00082	c6 45 fc 04	 mov	 BYTE PTR __$EHRec$[ebp+8], 4
  00086	8b 4d f0	 mov	 ecx, DWORD PTR _this$[ebp]
  00089	81 c1 84 03 00
	00		 add	 ecx, 900		; 00000384H
  0008f	e8 00 00 00 00	 call	 ??0CAttemperEngineHelper@@QAE@XZ ; CAttemperEngineHelper::CAttemperEngineHelper
  00094	c6 45 fc 05	 mov	 BYTE PTR __$EHRec$[ebp+8], 5
  00098	8b 4d f0	 mov	 ecx, DWORD PTR _this$[ebp]
  0009b	81 c1 5c 05 00
	00		 add	 ecx, 1372		; 0000055cH
  000a1	e8 00 00 00 00	 call	 ??0CTCPNetworkEngineHelper@@QAE@XZ ; CTCPNetworkEngineHelper::CTCPNetworkEngineHelper

; 10   : 	//设置接口
; 11   : 	m_pIServiceUnitsSink=NULL;

  000a6	8b 45 f0	 mov	 eax, DWORD PTR _this$[ebp]
  000a9	c7 80 34 07 00
	00 00 00 00 00	 mov	 DWORD PTR [eax+1844], 0

; 12   : 
; 13   : 	//设置变量
; 14   : 	m_ServiceStatus=ServiceStatus_Stop;

  000b3	8b 45 f0	 mov	 eax, DWORD PTR _this$[ebp]
  000b6	c7 40 04 00 00
	00 00		 mov	 DWORD PTR [eax+4], 0

; 15   : 
; 16   : 	return;
; 17   : }

  000bd	c7 45 fc ff ff
	ff ff		 mov	 DWORD PTR __$EHRec$[ebp+8], -1
  000c4	8b 45 f0	 mov	 eax, DWORD PTR _this$[ebp]
  000c7	8b 4d f4	 mov	 ecx, DWORD PTR __$EHRec$[ebp]
  000ca	64 89 0d 00 00
	00 00		 mov	 DWORD PTR fs:0, ecx
  000d1	59		 pop	 ecx
  000d2	5f		 pop	 edi
  000d3	5e		 pop	 esi
  000d4	5b		 pop	 ebx
  000d5	8b e5		 mov	 esp, ebp
  000d7	5d		 pop	 ebp
  000d8	c3		 ret	 0
_TEXT	ENDS
;	COMDAT text$x
text$x	SEGMENT
__unwindfunclet$??0CServiceUnits@@QAE@XZ$0:
  00000	8b 4d f0	 mov	 ecx, DWORD PTR _this$[ebp]
  00003	83 c1 08	 add	 ecx, 8
  00006	ff 25 00 00 00
	00		 jmp	 DWORD PTR __imp_??1CWHDataQueue@@UAE@XZ
__unwindfunclet$??0CServiceUnits@@QAE@XZ$1:
  0000c	8b 4d f0	 mov	 ecx, DWORD PTR _this$[ebp]
  0000f	83 c1 28	 add	 ecx, 40			; 00000028H
  00012	e9 00 00 00 00	 jmp	 ??1CCriticalSection@@UAE@XZ ; CCriticalSection::~CCriticalSection
__unwindfunclet$??0CServiceUnits@@QAE@XZ$2:
  00017	8b 4d f0	 mov	 ecx, DWORD PTR _this$[ebp]
  0001a	83 c1 4c	 add	 ecx, 76			; 0000004cH
  0001d	e9 00 00 00 00	 jmp	 ??1CInitParameter@@UAE@XZ ; CInitParameter::~CInitParameter
__unwindfunclet$??0CServiceUnits@@QAE@XZ$3:
  00022	8b 4d f0	 mov	 ecx, DWORD PTR _this$[ebp]
  00025	83 c1 74	 add	 ecx, 116		; 00000074H
  00028	e9 00 00 00 00	 jmp	 ??1CAttemperEngineSink@@UAE@XZ ; CAttemperEngineSink::~CAttemperEngineSink
__unwindfunclet$??0CServiceUnits@@QAE@XZ$4:
  0002d	8b 4d f0	 mov	 ecx, DWORD PTR _this$[ebp]
  00030	81 c1 ac 01 00
	00		 add	 ecx, 428		; 000001acH
  00036	e9 00 00 00 00	 jmp	 ??1CTimerEngineHelper@@UAE@XZ
__unwindfunclet$??0CServiceUnits@@QAE@XZ$5:
  0003b	8b 4d f0	 mov	 ecx, DWORD PTR _this$[ebp]
  0003e	81 c1 84 03 00
	00		 add	 ecx, 900		; 00000384H
  00044	e9 00 00 00 00	 jmp	 ??1CAttemperEngineHelper@@UAE@XZ
__ehhandler$??0CServiceUnits@@QAE@XZ:
  00049	8b 54 24 08	 mov	 edx, DWORD PTR [esp+8]
  0004d	8d 42 0c	 lea	 eax, DWORD PTR [edx+12]
  00050	8b 4a ac	 mov	 ecx, DWORD PTR [edx-84]
  00053	33 c8		 xor	 ecx, eax
  00055	e8 00 00 00 00	 call	 @__security_check_cookie@4
  0005a	b8 00 00 00 00	 mov	 eax, OFFSET __ehfuncinfo$??0CServiceUnits@@QAE@XZ
  0005f	e9 00 00 00 00	 jmp	 ___CxxFrameHandler3
text$x	ENDS
??0CServiceUnits@@QAE@XZ ENDP				; CServiceUnits::CServiceUnits
; Function compile flags: /Odtp /ZI
;	COMDAT ??_GCTCPNetworkEngineHelper@@UAEPAXI@Z
_TEXT	SEGMENT
_this$ = -4						; size = 4
___flags$ = 8						; size = 4
??_GCTCPNetworkEngineHelper@@UAEPAXI@Z PROC		; CTCPNetworkEngineHelper::`scalar deleting destructor', COMDAT
; _this$ = ecx
  00000	55		 push	 ebp
  00001	8b ec		 mov	 ebp, esp
  00003	83 ec 44	 sub	 esp, 68			; 00000044H
  00006	53		 push	 ebx
  00007	56		 push	 esi
  00008	57		 push	 edi
  00009	89 4d fc	 mov	 DWORD PTR _this$[ebp], ecx
  0000c	8b 4d fc	 mov	 ecx, DWORD PTR _this$[ebp]
  0000f	e8 00 00 00 00	 call	 ??1CTCPNetworkEngineHelper@@UAE@XZ
  00014	8b 45 08	 mov	 eax, DWORD PTR ___flags$[ebp]
  00017	83 e0 01	 and	 eax, 1
  0001a	74 11		 je	 SHORT $LN2@scalar
  0001c	68 d8 01 00 00	 push	 472			; 000001d8H
  00021	8b 45 fc	 mov	 eax, DWORD PTR _this$[ebp]
  00024	50		 push	 eax
  00025	e8 00 00 00 00	 call	 ??3@YAXPAXI@Z		; operator delete
  0002a	83 c4 08	 add	 esp, 8
$LN2@scalar:
  0002d	8b 45 fc	 mov	 eax, DWORD PTR _this$[ebp]
  00030	5f		 pop	 edi
  00031	5e		 pop	 esi
  00032	5b		 pop	 ebx
  00033	8b e5		 mov	 esp, ebp
  00035	5d		 pop	 ebp
  00036	c2 04 00	 ret	 4
??_GCTCPNetworkEngineHelper@@UAEPAXI@Z ENDP		; CTCPNetworkEngineHelper::`scalar deleting destructor'
_TEXT	ENDS
; Function compile flags: /Odtp /ZI
;	COMDAT ??1CTCPNetworkEngineHelper@@UAE@XZ
_TEXT	SEGMENT
_this$ = -4						; size = 4
??1CTCPNetworkEngineHelper@@UAE@XZ PROC			; CTCPNetworkEngineHelper::~CTCPNetworkEngineHelper, COMDAT
; _this$ = ecx
  00000	55		 push	 ebp
  00001	8b ec		 mov	 ebp, esp
  00003	83 ec 44	 sub	 esp, 68			; 00000044H
  00006	53		 push	 ebx
  00007	56		 push	 esi
  00008	57		 push	 edi
  00009	89 4d fc	 mov	 DWORD PTR _this$[ebp], ecx
  0000c	8b 4d fc	 mov	 ecx, DWORD PTR _this$[ebp]
  0000f	e8 00 00 00 00	 call	 ??1?$CTempldateHelper@UITCPNetworkEngine@@@@UAE@XZ ; CTempldateHelper<ITCPNetworkEngine>::~CTempldateHelper<ITCPNetworkEngine>
  00014	5f		 pop	 edi
  00015	5e		 pop	 esi
  00016	5b		 pop	 ebx
  00017	8b e5		 mov	 esp, ebp
  00019	5d		 pop	 ebp
  0001a	c3		 ret	 0
??1CTCPNetworkEngineHelper@@UAE@XZ ENDP			; CTCPNetworkEngineHelper::~CTCPNetworkEngineHelper
_TEXT	ENDS
; Function compile flags: /Odtp /ZI
; File g:\网狐\happygamewh\服务端\系统模块\服务器组件\内核引擎\kernelenginehead.h
;	COMDAT ??0CTCPNetworkEngineHelper@@QAE@XZ
_TEXT	SEGMENT
_this$ = -4						; size = 4
??0CTCPNetworkEngineHelper@@QAE@XZ PROC			; CTCPNetworkEngineHelper::CTCPNetworkEngineHelper, COMDAT
; _this$ = ecx

; 848  : DECLARE_MODULE_HELPER(TCPNetworkEngine, KERNEL_ENGINE_DLL_NAME, "CreateTCPNetworkEngine")

  00000	55		 push	 ebp
  00001	8b ec		 mov	 ebp, esp
  00003	83 ec 44	 sub	 esp, 68			; 00000044H
  00006	53		 push	 ebx
  00007	56		 push	 esi
  00008	57		 push	 edi
  00009	89 4d fc	 mov	 DWORD PTR _this$[ebp], ecx
  0000c	68 00 00 00 00	 push	 OFFSET ??_C@_0BH@LEGJPFFH@CreateTCPNetworkEngine@
  00011	68 00 00 00 00	 push	 OFFSET ??_C@_0BB@BEMLEOHB@KernelEngine?4dll@
  00016	68 00 01 01 06	 push	 100729088		; 06010100H
  0001b	68 00 00 00 00	 push	 OFFSET ?IID_ITCPNetworkEngine@@3U_GUID@@B
  00020	8b 4d fc	 mov	 ecx, DWORD PTR _this$[ebp]
  00023	e8 00 00 00 00	 call	 ??0?$CTempldateHelper@UITCPNetworkEngine@@@@QAE@ABU_GUID@@KPBD1@Z ; CTempldateHelper<ITCPNetworkEngine>::CTempldateHelper<ITCPNetworkEngine>
  00028	8b 45 fc	 mov	 eax, DWORD PTR _this$[ebp]
  0002b	c7 00 00 00 00
	00		 mov	 DWORD PTR [eax], OFFSET ??_7CTCPNetworkEngineHelper@@6B@
  00031	8b 45 fc	 mov	 eax, DWORD PTR _this$[ebp]
  00034	5f		 pop	 edi
  00035	5e		 pop	 esi
  00036	5b		 pop	 ebx
  00037	8b e5		 mov	 esp, ebp
  00039	5d		 pop	 ebp
  0003a	c3		 ret	 0
??0CTCPNetworkEngineHelper@@QAE@XZ ENDP			; CTCPNetworkEngineHelper::CTCPNetworkEngineHelper
_TEXT	ENDS
; Function compile flags: /Odtp /ZI
;	COMDAT ??_G?$CTempldateHelper@UITCPNetworkEngine@@@@UAEPAXI@Z
_TEXT	SEGMENT
_this$ = -4						; size = 4
___flags$ = 8						; size = 4
??_G?$CTempldateHelper@UITCPNetworkEngine@@@@UAEPAXI@Z PROC ; CTempldateHelper<ITCPNetworkEngine>::`scalar deleting destructor', COMDAT
; _this$ = ecx
  00000	55		 push	 ebp
  00001	8b ec		 mov	 ebp, esp
  00003	83 ec 44	 sub	 esp, 68			; 00000044H
  00006	53		 push	 ebx
  00007	56		 push	 esi
  00008	57		 push	 edi
  00009	89 4d fc	 mov	 DWORD PTR _this$[ebp], ecx
  0000c	8b 4d fc	 mov	 ecx, DWORD PTR _this$[ebp]
  0000f	e8 00 00 00 00	 call	 ??1?$CTempldateHelper@UITCPNetworkEngine@@@@UAE@XZ ; CTempldateHelper<ITCPNetworkEngine>::~CTempldateHelper<ITCPNetworkEngine>
  00014	8b 45 08	 mov	 eax, DWORD PTR ___flags$[ebp]
  00017	83 e0 01	 and	 eax, 1
  0001a	74 11		 je	 SHORT $LN2@scalar
  0001c	68 d8 01 00 00	 push	 472			; 000001d8H
  00021	8b 45 fc	 mov	 eax, DWORD PTR _this$[ebp]
  00024	50		 push	 eax
  00025	e8 00 00 00 00	 call	 ??3@YAXPAXI@Z		; operator delete
  0002a	83 c4 08	 add	 esp, 8
$LN2@scalar:
  0002d	8b 45 fc	 mov	 eax, DWORD PTR _this$[ebp]
  00030	5f		 pop	 edi
  00031	5e		 pop	 esi
  00032	5b		 pop	 ebx
  00033	8b e5		 mov	 esp, ebp
  00035	5d		 pop	 ebp
  00036	c2 04 00	 ret	 4
??_G?$CTempldateHelper@UITCPNetworkEngine@@@@UAEPAXI@Z ENDP ; CTempldateHelper<ITCPNetworkEngine>::`scalar deleting destructor'
_TEXT	ENDS
; Function compile flags: /Odtp /ZI
; File g:\网狐\happygamewh\服务端\系统模块\全局定义\module.h
;	COMDAT ?GetInterface@?$CTempldateHelper@UITCPNetworkEngine@@@@QBEPAUITCPNetworkEngine@@XZ
_TEXT	SEGMENT
_this$ = -4						; size = 4
?GetInterface@?$CTempldateHelper@UITCPNetworkEngine@@@@QBEPAUITCPNetworkEngine@@XZ PROC ; CTempldateHelper<ITCPNetworkEngine>::GetInterface, COMDAT
; _this$ = ecx

; 316  : { 

  00000	55		 push	 ebp
  00001	8b ec		 mov	 ebp, esp
  00003	83 ec 44	 sub	 esp, 68			; 00000044H
  00006	53		 push	 ebx
  00007	56		 push	 esi
  00008	57		 push	 edi
  00009	89 4d fc	 mov	 DWORD PTR _this$[ebp], ecx

; 317  : 	return m_pIModeluInterface; 

  0000c	8b 45 fc	 mov	 eax, DWORD PTR _this$[ebp]
  0000f	8b 80 54 01 00
	00		 mov	 eax, DWORD PTR [eax+340]

; 318  : }

  00015	5f		 pop	 edi
  00016	5e		 pop	 esi
  00017	5b		 pop	 ebx
  00018	8b e5		 mov	 esp, ebp
  0001a	5d		 pop	 ebp
  0001b	c3		 ret	 0
?GetInterface@?$CTempldateHelper@UITCPNetworkEngine@@@@QBEPAUITCPNetworkEngine@@XZ ENDP ; CTempldateHelper<ITCPNetworkEngine>::GetInterface
_TEXT	ENDS
; Function compile flags: /Odtp /ZI
; File g:\网狐\happygamewh\服务端\系统模块\全局定义\module.h
;	COMDAT ??C?$CTempldateHelper@UITCPNetworkEngine@@@@QBEPAUITCPNetworkEngine@@XZ
_TEXT	SEGMENT
_this$ = -4						; size = 4
??C?$CTempldateHelper@UITCPNetworkEngine@@@@QBEPAUITCPNetworkEngine@@XZ PROC ; CTempldateHelper<ITCPNetworkEngine>::operator->, COMDAT
; _this$ = ecx

; 309  : { 

  00000	55		 push	 ebp
  00001	8b ec		 mov	 ebp, esp
  00003	83 ec 44	 sub	 esp, 68			; 00000044H
  00006	53		 push	 ebx
  00007	56		 push	 esi
  00008	57		 push	 edi
  00009	89 4d fc	 mov	 DWORD PTR _this$[ebp], ecx

; 310  : 	return GetInterface(); 

  0000c	8b 4d fc	 mov	 ecx, DWORD PTR _this$[ebp]
  0000f	e8 00 00 00 00	 call	 ?GetInterface@?$CTempldateHelper@UITCPNetworkEngine@@@@QBEPAUITCPNetworkEngine@@XZ ; CTempldateHelper<ITCPNetworkEngine>::GetInterface

; 311  : }

  00014	5f		 pop	 edi
  00015	5e		 pop	 esi
  00016	5b		 pop	 ebx
  00017	8b e5		 mov	 esp, ebp
  00019	5d		 pop	 ebp
  0001a	c3		 ret	 0
??C?$CTempldateHelper@UITCPNetworkEngine@@@@QBEPAUITCPNetworkEngine@@XZ ENDP ; CTempldateHelper<ITCPNetworkEngine>::operator->
_TEXT	ENDS
; Function compile flags: /Odtp /ZI
; File g:\网狐\happygamewh\服务端\系统模块\全局定义\module.h
;	COMDAT ?CreateInstance@?$CTempldateHelper@UITCPNetworkEngine@@@@QAE_NXZ
_TEXT	SEGMENT
tv173 = -100						; size = 4
tv172 = -100						; size = 4
tv171 = -100						; size = 4
tv170 = -100						; size = 4
$T2 = -94						; size = 1
$T3 = -93						; size = 1
_pszError$4 = -28					; size = 4
_CreateProc$5 = -24					; size = 4
_this$ = -20						; size = 4
__$EHRec$ = -16						; size = 16
?CreateInstance@?$CTempldateHelper@UITCPNetworkEngine@@@@QAE_NXZ PROC ; CTempldateHelper<ITCPNetworkEngine>::CreateInstance, COMDAT
; _this$ = ecx

; 212  : {

  00000	55		 push	 ebp
  00001	8b ec		 mov	 ebp, esp
  00003	6a ff		 push	 -1
  00005	68 00 00 00 00	 push	 __ehhandler$?CreateInstance@?$CTempldateHelper@UITCPNetworkEngine@@@@QAE_NXZ
  0000a	64 a1 00 00 00
	00		 mov	 eax, DWORD PTR fs:0
  00010	50		 push	 eax
  00011	51		 push	 ecx
  00012	83 ec 54	 sub	 esp, 84			; 00000054H
  00015	53		 push	 ebx
  00016	56		 push	 esi
  00017	57		 push	 edi
  00018	a1 00 00 00 00	 mov	 eax, DWORD PTR ___security_cookie
  0001d	33 c5		 xor	 eax, ebp
  0001f	50		 push	 eax
  00020	8d 45 f4	 lea	 eax, DWORD PTR __$EHRec$[ebp+4]
  00023	64 a3 00 00 00
	00		 mov	 DWORD PTR fs:0, eax
  00029	89 65 f0	 mov	 DWORD PTR __$EHRec$[ebp], esp
  0002c	89 4d ec	 mov	 DWORD PTR _this$[ebp], ecx

; 213  : 	//释放组件
; 214  : 	CloseInstance();

  0002f	8b 4d ec	 mov	 ecx, DWORD PTR _this$[ebp]
  00032	e8 00 00 00 00	 call	 ?CloseInstance@?$CTempldateHelper@UITCPNetworkEngine@@@@QAE_NXZ ; CTempldateHelper<ITCPNetworkEngine>::CloseInstance

; 215  : 
; 216  : 	//创建组件
; 217  : 	try

  00037	c7 45 fc 00 00
	00 00		 mov	 DWORD PTR __$EHRec$[ebp+12], 0

; 218  : 	{
; 219  : 		//效验参数
; 220  : 		ASSERT(m_szCreateProc[0]!=0);

  0003e	b8 01 00 00 00	 mov	 eax, 1
  00043	6b c8 00	 imul	 ecx, eax, 0
  00046	8b 55 ec	 mov	 edx, DWORD PTR _this$[ebp]
  00049	0f be 44 0a 0c	 movsx	 eax, BYTE PTR [edx+ecx+12]
  0004e	85 c0		 test	 eax, eax
  00050	75 19		 jne	 SHORT $LN7@CreateInst
  00052	68 dc 00 00 00	 push	 220			; 000000dcH
  00057	68 00 00 00 00	 push	 OFFSET ??_C@_0DG@CDIFDKED@g?3?2?M?x?$LK?$PM?2happygamewh?2?$LH?$PO?N?q?$LG?K?2?O?$LF?M?$LD@
  0005c	e8 00 00 00 00	 call	 ?AfxAssertFailedLine@@YGHPBDH@Z ; AfxAssertFailedLine
  00061	89 45 9c	 mov	 DWORD PTR tv170[ebp], eax
  00064	83 7d 9c 00	 cmp	 DWORD PTR tv170[ebp], 0
  00068	74 01		 je	 SHORT $LN7@CreateInst
  0006a	cc		 int	 3
$LN7@CreateInst:

; 221  : 		ASSERT(m_szModuleDllName[0]!=0);

  0006b	b8 01 00 00 00	 mov	 eax, 1
  00070	6b c8 00	 imul	 ecx, eax, 0
  00073	8b 55 ec	 mov	 edx, DWORD PTR _this$[ebp]
  00076	0f be 44 0a 4c	 movsx	 eax, BYTE PTR [edx+ecx+76]
  0007b	85 c0		 test	 eax, eax
  0007d	75 19		 jne	 SHORT $LN8@CreateInst
  0007f	68 dd 00 00 00	 push	 221			; 000000ddH
  00084	68 00 00 00 00	 push	 OFFSET ??_C@_0DG@CDIFDKED@g?3?2?M?x?$LK?$PM?2happygamewh?2?$LH?$PO?N?q?$LG?K?2?O?$LF?M?$LD@
  00089	e8 00 00 00 00	 call	 ?AfxAssertFailedLine@@YGHPBDH@Z ; AfxAssertFailedLine
  0008e	89 45 9c	 mov	 DWORD PTR tv171[ebp], eax
  00091	83 7d 9c 00	 cmp	 DWORD PTR tv171[ebp], 0
  00095	74 01		 je	 SHORT $LN8@CreateInst
  00097	cc		 int	 3
$LN8@CreateInst:

; 222  : 
; 223  : 		//加载模块
; 224  : 		m_hDllInstance=AfxLoadLibrary(m_szModuleDllName);

  00098	8b 45 ec	 mov	 eax, DWORD PTR _this$[ebp]
  0009b	83 c0 4c	 add	 eax, 76			; 0000004cH
  0009e	50		 push	 eax
  0009f	e8 00 00 00 00	 call	 ?AfxLoadLibrary@@YGPAUHINSTANCE__@@PBD@Z ; AfxLoadLibrary
  000a4	89 45 9c	 mov	 DWORD PTR tv172[ebp], eax
  000a7	8b 4d ec	 mov	 ecx, DWORD PTR _this$[ebp]
  000aa	8b 55 9c	 mov	 edx, DWORD PTR tv172[ebp]
  000ad	89 91 50 01 00
	00		 mov	 DWORD PTR [ecx+336], edx

; 225  : 		if (m_hDllInstance==NULL) 

  000b3	8b 45 ec	 mov	 eax, DWORD PTR _this$[ebp]
  000b6	83 b8 50 01 00
	00 00		 cmp	 DWORD PTR [eax+336], 0
  000bd	75 2a		 jne	 SHORT $LN3@CreateInst

; 226  : 		{
; 227  : 			_sntprintf_s(m_szDescribe,CountArray(m_szDescribe),TEXT("“%s”模块加载失败"),m_szModuleDllName);

  000bf	8b 45 ec	 mov	 eax, DWORD PTR _this$[ebp]
  000c2	83 c0 4c	 add	 eax, 76			; 0000004cH
  000c5	50		 push	 eax
  000c6	68 00 00 00 00	 push	 OFFSET ??_C@_0BD@LMOFNGMO@?$KB?$LA?$CFs?$KB?$LB?D?$KD?$LP?i?$LM?S?T?X?J?$KH?$LA?$NM@
  000cb	68 80 00 00 00	 push	 128			; 00000080H
  000d0	8b 4d ec	 mov	 ecx, DWORD PTR _this$[ebp]
  000d3	81 c1 58 01 00
	00		 add	 ecx, 344		; 00000158H
  000d9	51		 push	 ecx
  000da	e8 00 00 00 00	 call	 ??$_snprintf_s@$0IA@@@YAHAAY0IA@DIPBDZZ ; _snprintf_s<128>
  000df	83 c4 10	 add	 esp, 16			; 00000010H

; 228  : 			return false;

  000e2	32 c0		 xor	 al, al
  000e4	e9 34 01 00 00	 jmp	 $LN1@CreateInst
$LN3@CreateInst:

; 229  : 		}
; 230  : 
; 231  : 		//寻找函数
; 232  : 		ModuleCreateProc * CreateProc=(ModuleCreateProc *)GetProcAddress(m_hDllInstance,m_szCreateProc);

  000e9	8b 45 ec	 mov	 eax, DWORD PTR _this$[ebp]
  000ec	83 c0 0c	 add	 eax, 12			; 0000000cH
  000ef	50		 push	 eax
  000f0	8b 4d ec	 mov	 ecx, DWORD PTR _this$[ebp]
  000f3	8b 91 50 01 00
	00		 mov	 edx, DWORD PTR [ecx+336]
  000f9	52		 push	 edx
  000fa	ff 15 00 00 00
	00		 call	 DWORD PTR __imp__GetProcAddress@8
  00100	89 45 e8	 mov	 DWORD PTR _CreateProc$5[ebp], eax

; 233  : 		if (CreateProc==NULL) 

  00103	83 7d e8 00	 cmp	 DWORD PTR _CreateProc$5[ebp], 0
  00107	75 31		 jne	 SHORT $LN4@CreateInst

; 234  : 		{		
; 235  : 			_sntprintf_s(m_szDescribe, CountArray(m_szDescribe), TEXT("找不到组件创建函数“%s”:%d"), m_szCreateProc, GetLastError());

  00109	ff 15 00 00 00
	00		 call	 DWORD PTR __imp__GetLastError@0
  0010f	50		 push	 eax
  00110	8b 45 ec	 mov	 eax, DWORD PTR _this$[ebp]
  00113	83 c0 0c	 add	 eax, 12			; 0000000cH
  00116	50		 push	 eax
  00117	68 00 00 00 00	 push	 OFFSET ??_C@_0BM@PEGNCJOH@?U?R?$LC?$LL?$LF?$LN?W?i?$LM?$PO?$LE?$LE?$LN?$KI?$LK?$KP?J?$PN?$KB?$LA?$CFs?$KB?$LB?3?$CFd@
  0011c	68 80 00 00 00	 push	 128			; 00000080H
  00121	8b 4d ec	 mov	 ecx, DWORD PTR _this$[ebp]
  00124	81 c1 58 01 00
	00		 add	 ecx, 344		; 00000158H
  0012a	51		 push	 ecx
  0012b	e8 00 00 00 00	 call	 ??$_snprintf_s@$0IA@@@YAHAAY0IA@DIPBDZZ ; _snprintf_s<128>
  00130	83 c4 14	 add	 esp, 20			; 00000014H

; 236  : 			return false;

  00133	32 c0		 xor	 al, al
  00135	e9 e3 00 00 00	 jmp	 $LN1@CreateInst
$LN4@CreateInst:

; 237  : 		}
; 238  : 
; 239  : 		//创建组件
; 240  : 		m_pIModeluInterface=(IModeluInterface *)CreateProc(m_Guid,m_dwVersion);

  0013a	8b 45 ec	 mov	 eax, DWORD PTR _this$[ebp]
  0013d	8b 48 08	 mov	 ecx, DWORD PTR [eax+8]
  00140	51		 push	 ecx
  00141	8b 55 ec	 mov	 edx, DWORD PTR _this$[ebp]
  00144	8b 42 04	 mov	 eax, DWORD PTR [edx+4]
  00147	50		 push	 eax
  00148	ff 55 e8	 call	 DWORD PTR _CreateProc$5[ebp]
  0014b	83 c4 08	 add	 esp, 8
  0014e	89 45 9c	 mov	 DWORD PTR tv173[ebp], eax
  00151	8b 4d ec	 mov	 ecx, DWORD PTR _this$[ebp]
  00154	8b 55 9c	 mov	 edx, DWORD PTR tv173[ebp]
  00157	89 91 54 01 00
	00		 mov	 DWORD PTR [ecx+340], edx

; 241  : 		if (m_pIModeluInterface==NULL) 

  0015d	8b 45 ec	 mov	 eax, DWORD PTR _this$[ebp]
  00160	83 b8 54 01 00
	00 00		 cmp	 DWORD PTR [eax+340], 0
  00167	75 2a		 jne	 SHORT $LN5@CreateInst

; 242  : 		{
; 243  : 			_sntprintf_s(m_szDescribe,CountArray(m_szDescribe),TEXT("调用函数“%s”生成对象失败"),m_szCreateProc);

  00169	8b 45 ec	 mov	 eax, DWORD PTR _this$[ebp]
  0016c	83 c0 0c	 add	 eax, 12			; 0000000cH
  0016f	50		 push	 eax
  00170	68 00 00 00 00	 push	 OFFSET ??_C@_0BL@PDAODLKM@?$LF?w?S?C?$LK?$KP?J?$PN?$KB?$LA?$CFs?$KB?$LB?I?z?$LD?I?$LG?T?O?s?J?$KH?$LA?$NM@
  00175	68 80 00 00 00	 push	 128			; 00000080H
  0017a	8b 4d ec	 mov	 ecx, DWORD PTR _this$[ebp]
  0017d	81 c1 58 01 00
	00		 add	 ecx, 344		; 00000158H
  00183	51		 push	 ecx
  00184	e8 00 00 00 00	 call	 ??$_snprintf_s@$0IA@@@YAHAAY0IA@DIPBDZZ ; _snprintf_s<128>
  00189	83 c4 10	 add	 esp, 16			; 00000010H

; 244  : 			return false;

  0018c	32 c0		 xor	 al, al
  0018e	e9 8a 00 00 00	 jmp	 $LN1@CreateInst
$LN5@CreateInst:

; 245  : 		}
; 246  : 	}

  00193	eb 63		 jmp	 SHORT $LN9@CreateInst
__catch$?CreateInstance@?$CTempldateHelper@UITCPNetworkEngine@@@@QAE_NXZ$0:

; 247  : 	catch (LPCTSTR pszError)
; 248  : 	{
; 249  : 		_sntprintf_s(m_szDescribe,CountArray(m_szDescribe),TEXT("由于“%s”，组件创建失败"),pszError);

  00195	8b 45 e4	 mov	 eax, DWORD PTR _pszError$4[ebp]
  00198	50		 push	 eax
  00199	68 00 00 00 00	 push	 OFFSET ??_C@_0BJ@JGPFHIJF@?S?I?S?Z?$KB?$LA?$CFs?$KB?$LB?$KD?$KM?W?i?$LM?$PO?$LE?$LE?$LN?$KI?J?$KH?$LA?$NM@
  0019e	68 80 00 00 00	 push	 128			; 00000080H
  001a3	8b 4d ec	 mov	 ecx, DWORD PTR _this$[ebp]
  001a6	81 c1 58 01 00
	00		 add	 ecx, 344		; 00000158H
  001ac	51		 push	 ecx
  001ad	e8 00 00 00 00	 call	 ??$_snprintf_s@$0IA@@@YAHAAY0IA@DIPBDZZ ; _snprintf_s<128>
  001b2	83 c4 10	 add	 esp, 16			; 00000010H

; 250  : 		return false;

  001b5	c6 45 a3 00	 mov	 BYTE PTR $T3[ebp], 0
  001b9	b8 00 00 00 00	 mov	 eax, $LN13@CreateInst
  001be	c3		 ret	 0

; 251  : 	}

  001bf	b8 00 00 00 00	 mov	 eax, $LN9@CreateInst
  001c4	c3		 ret	 0
__catch$?CreateInstance@?$CTempldateHelper@UITCPNetworkEngine@@@@QAE_NXZ$1:

; 252  : 	catch (...)	
; 253  : 	{ 
; 254  : 		_sntprintf_s(m_szDescribe,CountArray(m_szDescribe),TEXT("组件创建函数“%s”产生未知异常错误，组件创建失败"),m_szCreateProc);

  001c5	8b 45 ec	 mov	 eax, DWORD PTR _this$[ebp]
  001c8	83 c0 0c	 add	 eax, 12			; 0000000cH
  001cb	50		 push	 eax
  001cc	68 00 00 00 00	 push	 OFFSET ??_C@_0DB@JBNKENAJ@?W?i?$LM?$PO?$LE?$LE?$LN?$KI?$LK?$KP?J?$PN?$KB?$LA?$CFs?$KB?$LB?$LC?z?I?z?N?$LE?V?$KK?R?l?$LD?$KD?$LE@
  001d1	68 80 00 00 00	 push	 128			; 00000080H
  001d6	8b 4d ec	 mov	 ecx, DWORD PTR _this$[ebp]
  001d9	81 c1 58 01 00
	00		 add	 ecx, 344		; 00000158H
  001df	51		 push	 ecx
  001e0	e8 00 00 00 00	 call	 ??$_snprintf_s@$0IA@@@YAHAAY0IA@DIPBDZZ ; _snprintf_s<128>
  001e5	83 c4 10	 add	 esp, 16			; 00000010H

; 255  : 		return false;

  001e8	c6 45 a2 00	 mov	 BYTE PTR $T2[ebp], 0
  001ec	b8 00 00 00 00	 mov	 eax, $LN15@CreateInst
  001f1	c3		 ret	 0

; 256  : 	}

  001f2	b8 00 00 00 00	 mov	 eax, $LN9@CreateInst
  001f7	c3		 ret	 0
$LN9@CreateInst:
  001f8	c7 45 fc ff ff
	ff ff		 mov	 DWORD PTR __$EHRec$[ebp+12], -1
  001ff	eb 0c		 jmp	 SHORT $LN14@CreateInst
$LN15@CreateInst:
  00201	c7 45 fc ff ff
	ff ff		 mov	 DWORD PTR __$EHRec$[ebp+12], -1

; 255  : 		return false;

  00208	8a 45 a2	 mov	 al, BYTE PTR $T2[ebp]
  0020b	eb 10		 jmp	 SHORT $LN1@CreateInst
$LN14@CreateInst:
  0020d	eb 0c		 jmp	 SHORT $LN12@CreateInst
$LN13@CreateInst:
  0020f	c7 45 fc ff ff
	ff ff		 mov	 DWORD PTR __$EHRec$[ebp+12], -1

; 250  : 		return false;

  00216	8a 45 a3	 mov	 al, BYTE PTR $T3[ebp]
  00219	eb 02		 jmp	 SHORT $LN1@CreateInst
$LN12@CreateInst:

; 257  : 
; 258  : 	return true;

  0021b	b0 01		 mov	 al, 1
$LN1@CreateInst:

; 259  : }

  0021d	8b 4d f4	 mov	 ecx, DWORD PTR __$EHRec$[ebp+4]
  00220	64 89 0d 00 00
	00 00		 mov	 DWORD PTR fs:0, ecx
  00227	59		 pop	 ecx
  00228	5f		 pop	 edi
  00229	5e		 pop	 esi
  0022a	5b		 pop	 ebx
  0022b	8b e5		 mov	 esp, ebp
  0022d	5d		 pop	 ebp
  0022e	c3		 ret	 0
_TEXT	ENDS
;	COMDAT text$x
text$x	SEGMENT
__ehhandler$?CreateInstance@?$CTempldateHelper@UITCPNetworkEngine@@@@QAE_NXZ:
  00000	8b 54 24 08	 mov	 edx, DWORD PTR [esp+8]
  00004	8d 42 0c	 lea	 eax, DWORD PTR [edx+12]
  00007	8b 4a 98	 mov	 ecx, DWORD PTR [edx-104]
  0000a	33 c8		 xor	 ecx, eax
  0000c	e8 00 00 00 00	 call	 @__security_check_cookie@4
  00011	b8 00 00 00 00	 mov	 eax, OFFSET __ehfuncinfo$?CreateInstance@?$CTempldateHelper@UITCPNetworkEngine@@@@QAE_NXZ
  00016	e9 00 00 00 00	 jmp	 ___CxxFrameHandler3
text$x	ENDS
?CreateInstance@?$CTempldateHelper@UITCPNetworkEngine@@@@QAE_NXZ ENDP ; CTempldateHelper<ITCPNetworkEngine>::CreateInstance
; Function compile flags: /Odtp /ZI
; File g:\网狐\happygamewh\服务端\系统模块\全局定义\module.h
;	COMDAT ?CloseInstance@?$CTempldateHelper@UITCPNetworkEngine@@@@QAE_NXZ
_TEXT	SEGMENT
_this$ = -4						; size = 4
?CloseInstance@?$CTempldateHelper@UITCPNetworkEngine@@@@QAE_NXZ PROC ; CTempldateHelper<ITCPNetworkEngine>::CloseInstance, COMDAT
; _this$ = ecx

; 264  : {

  00000	55		 push	 ebp
  00001	8b ec		 mov	 ebp, esp
  00003	83 ec 44	 sub	 esp, 68			; 00000044H
  00006	53		 push	 ebx
  00007	56		 push	 esi
  00008	57		 push	 edi
  00009	89 4d fc	 mov	 DWORD PTR _this$[ebp], ecx

; 265  : 	//设置变量
; 266  : 	m_szDescribe[0]=0;

  0000c	b8 01 00 00 00	 mov	 eax, 1
  00011	6b c8 00	 imul	 ecx, eax, 0
  00014	8b 55 fc	 mov	 edx, DWORD PTR _this$[ebp]
  00017	c6 84 0a 58 01
	00 00 00	 mov	 BYTE PTR [edx+ecx+344], 0

; 267  : 
; 268  : 	//销毁对象
; 269  : 	if (m_pIModeluInterface!=NULL)

  0001f	8b 45 fc	 mov	 eax, DWORD PTR _this$[ebp]
  00022	83 b8 54 01 00
	00 00		 cmp	 DWORD PTR [eax+340], 0
  00029	74 25		 je	 SHORT $LN2@CloseInsta

; 270  : 	{
; 271  : 		m_pIModeluInterface->Release();

  0002b	8b 45 fc	 mov	 eax, DWORD PTR _this$[ebp]
  0002e	8b 88 54 01 00
	00		 mov	 ecx, DWORD PTR [eax+340]
  00034	8b 55 fc	 mov	 edx, DWORD PTR _this$[ebp]
  00037	8b 01		 mov	 eax, DWORD PTR [ecx]
  00039	8b 8a 54 01 00
	00		 mov	 ecx, DWORD PTR [edx+340]
  0003f	8b 10		 mov	 edx, DWORD PTR [eax]
  00041	ff d2		 call	 edx

; 272  : 		m_pIModeluInterface=NULL;

  00043	8b 45 fc	 mov	 eax, DWORD PTR _this$[ebp]
  00046	c7 80 54 01 00
	00 00 00 00 00	 mov	 DWORD PTR [eax+340], 0
$LN2@CloseInsta:

; 273  : 	}
; 274  : 
; 275  : 	//释放 DLL
; 276  : 	if (m_hDllInstance!=NULL)

  00050	8b 45 fc	 mov	 eax, DWORD PTR _this$[ebp]
  00053	83 b8 50 01 00
	00 00		 cmp	 DWORD PTR [eax+336], 0
  0005a	74 1c		 je	 SHORT $LN3@CloseInsta

; 277  : 	{
; 278  : 		AfxFreeLibrary(m_hDllInstance);

  0005c	8b 45 fc	 mov	 eax, DWORD PTR _this$[ebp]
  0005f	8b 88 50 01 00
	00		 mov	 ecx, DWORD PTR [eax+336]
  00065	51		 push	 ecx
  00066	e8 00 00 00 00	 call	 ?AfxFreeLibrary@@YGHPAUHINSTANCE__@@@Z ; AfxFreeLibrary

; 279  : 		m_hDllInstance=NULL;

  0006b	8b 45 fc	 mov	 eax, DWORD PTR _this$[ebp]
  0006e	c7 80 50 01 00
	00 00 00 00 00	 mov	 DWORD PTR [eax+336], 0
$LN3@CloseInsta:

; 280  : 	}
; 281  : 
; 282  : 	return true;

  00078	b0 01		 mov	 al, 1

; 283  : }

  0007a	5f		 pop	 edi
  0007b	5e		 pop	 esi
  0007c	5b		 pop	 ebx
  0007d	8b e5		 mov	 esp, ebp
  0007f	5d		 pop	 ebp
  00080	c3		 ret	 0
?CloseInstance@?$CTempldateHelper@UITCPNetworkEngine@@@@QAE_NXZ ENDP ; CTempldateHelper<ITCPNetworkEngine>::CloseInstance
_TEXT	ENDS
; Function compile flags: /Odtp /ZI
; File g:\网狐\happygamewh\服务端\系统模块\全局定义\module.h
;	COMDAT ??1?$CTempldateHelper@UITCPNetworkEngine@@@@UAE@XZ
_TEXT	SEGMENT
_this$ = -16						; size = 4
__$EHRec$ = -12						; size = 12
??1?$CTempldateHelper@UITCPNetworkEngine@@@@UAE@XZ PROC	; CTempldateHelper<ITCPNetworkEngine>::~CTempldateHelper<ITCPNetworkEngine>, COMDAT
; _this$ = ecx

; 205  : {

  00000	55		 push	 ebp
  00001	8b ec		 mov	 ebp, esp
  00003	6a ff		 push	 -1
  00005	68 00 00 00 00	 push	 __ehhandler$??1?$CTempldateHelper@UITCPNetworkEngine@@@@UAE@XZ
  0000a	64 a1 00 00 00
	00		 mov	 eax, DWORD PTR fs:0
  00010	50		 push	 eax
  00011	83 ec 44	 sub	 esp, 68			; 00000044H
  00014	53		 push	 ebx
  00015	56		 push	 esi
  00016	57		 push	 edi
  00017	a1 00 00 00 00	 mov	 eax, DWORD PTR ___security_cookie
  0001c	33 c5		 xor	 eax, ebp
  0001e	50		 push	 eax
  0001f	8d 45 f4	 lea	 eax, DWORD PTR __$EHRec$[ebp]
  00022	64 a3 00 00 00
	00		 mov	 DWORD PTR fs:0, eax
  00028	89 4d f0	 mov	 DWORD PTR _this$[ebp], ecx
  0002b	8b 45 f0	 mov	 eax, DWORD PTR _this$[ebp]
  0002e	c7 00 00 00 00
	00		 mov	 DWORD PTR [eax], OFFSET ??_7?$CTempldateHelper@UITCPNetworkEngine@@@@6B@

; 206  : 	CloseInstance();

  00034	8b 4d f0	 mov	 ecx, DWORD PTR _this$[ebp]
  00037	e8 00 00 00 00	 call	 ?CloseInstance@?$CTempldateHelper@UITCPNetworkEngine@@@@QAE_NXZ ; CTempldateHelper<ITCPNetworkEngine>::CloseInstance

; 207  : }

  0003c	8b 4d f4	 mov	 ecx, DWORD PTR __$EHRec$[ebp]
  0003f	64 89 0d 00 00
	00 00		 mov	 DWORD PTR fs:0, ecx
  00046	59		 pop	 ecx
  00047	5f		 pop	 edi
  00048	5e		 pop	 esi
  00049	5b		 pop	 ebx
  0004a	8b e5		 mov	 esp, ebp
  0004c	5d		 pop	 ebp
  0004d	c3		 ret	 0
_TEXT	ENDS
;	COMDAT text$x
text$x	SEGMENT
__ehhandler$??1?$CTempldateHelper@UITCPNetworkEngine@@@@UAE@XZ:
  00000	8b 54 24 08	 mov	 edx, DWORD PTR [esp+8]
  00004	8d 42 0c	 lea	 eax, DWORD PTR [edx+12]
  00007	8b 4a ac	 mov	 ecx, DWORD PTR [edx-84]
  0000a	33 c8		 xor	 ecx, eax
  0000c	e8 00 00 00 00	 call	 @__security_check_cookie@4
  00011	b8 00 00 00 00	 mov	 eax, OFFSET __ehfuncinfo$??1?$CTempldateHelper@UITCPNetworkEngine@@@@UAE@XZ
  00016	e9 00 00 00 00	 jmp	 ___CxxFrameHandler3
text$x	ENDS
??1?$CTempldateHelper@UITCPNetworkEngine@@@@UAE@XZ ENDP	; CTempldateHelper<ITCPNetworkEngine>::~CTempldateHelper<ITCPNetworkEngine>
; Function compile flags: /Odtp /ZI
; File g:\网狐\happygamewh\服务端\系统模块\全局定义\module.h
;	COMDAT ??0?$CTempldateHelper@UITCPNetworkEngine@@@@QAE@ABU_GUID@@KPBD1@Z
_TEXT	SEGMENT
_this$ = -4						; size = 4
_Guid$ = 8						; size = 4
_dwVersion$ = 12					; size = 4
_pszModuleDll$ = 16					; size = 4
_pszCreateProc$ = 20					; size = 4
??0?$CTempldateHelper@UITCPNetworkEngine@@@@QAE@ABU_GUID@@KPBD1@Z PROC ; CTempldateHelper<ITCPNetworkEngine>::CTempldateHelper<ITCPNetworkEngine>, COMDAT
; _this$ = ecx

; 187  : {

  00000	55		 push	 ebp
  00001	8b ec		 mov	 ebp, esp
  00003	83 ec 44	 sub	 esp, 68			; 00000044H
  00006	53		 push	 ebx
  00007	56		 push	 esi
  00008	57		 push	 edi
  00009	89 4d fc	 mov	 DWORD PTR _this$[ebp], ecx
  0000c	8b 45 fc	 mov	 eax, DWORD PTR _this$[ebp]
  0000f	c7 00 00 00 00
	00		 mov	 DWORD PTR [eax], OFFSET ??_7?$CTempldateHelper@UITCPNetworkEngine@@@@6B@

; 186  : CTempldateHelper<IModeluInterface>::CTempldateHelper(REFGUID Guid, DWORD dwVersion, LPCTSTR pszModuleDll, LPCSTR pszCreateProc) : m_dwVersion(dwVersion), m_Guid(Guid)

  00015	8b 45 fc	 mov	 eax, DWORD PTR _this$[ebp]
  00018	8b 4d 08	 mov	 ecx, DWORD PTR _Guid$[ebp]
  0001b	89 48 04	 mov	 DWORD PTR [eax+4], ecx
  0001e	8b 45 fc	 mov	 eax, DWORD PTR _this$[ebp]
  00021	8b 4d 0c	 mov	 ecx, DWORD PTR _dwVersion$[ebp]
  00024	89 48 08	 mov	 DWORD PTR [eax+8], ecx

; 188  : 	//辅助变量
; 189  : 	m_szDescribe[0]=0;

  00027	b8 01 00 00 00	 mov	 eax, 1
  0002c	6b c8 00	 imul	 ecx, eax, 0
  0002f	8b 55 fc	 mov	 edx, DWORD PTR _this$[ebp]
  00032	c6 84 0a 58 01
	00 00 00	 mov	 BYTE PTR [edx+ecx+344], 0

; 190  : 
; 191  : 	//内核信息
; 192  : 	m_hDllInstance=NULL;

  0003a	8b 45 fc	 mov	 eax, DWORD PTR _this$[ebp]
  0003d	c7 80 50 01 00
	00 00 00 00 00	 mov	 DWORD PTR [eax+336], 0

; 193  : 	m_pIModeluInterface=NULL;

  00047	8b 45 fc	 mov	 eax, DWORD PTR _this$[ebp]
  0004a	c7 80 54 01 00
	00 00 00 00 00	 mov	 DWORD PTR [eax+340], 0

; 194  : 
; 195  : 	//组件属性
; 196  : 	lstrcpynA(m_szCreateProc,pszCreateProc,CountArray(m_szCreateProc));

  00054	6a 40		 push	 64			; 00000040H
  00056	8b 45 14	 mov	 eax, DWORD PTR _pszCreateProc$[ebp]
  00059	50		 push	 eax
  0005a	8b 4d fc	 mov	 ecx, DWORD PTR _this$[ebp]
  0005d	83 c1 0c	 add	 ecx, 12			; 0000000cH
  00060	51		 push	 ecx
  00061	ff 15 00 00 00
	00		 call	 DWORD PTR __imp__lstrcpynA@12

; 197  : 	lstrcpyn(m_szModuleDllName,pszModuleDll,CountArray(m_szModuleDllName));

  00067	68 04 01 00 00	 push	 260			; 00000104H
  0006c	8b 45 10	 mov	 eax, DWORD PTR _pszModuleDll$[ebp]
  0006f	50		 push	 eax
  00070	8b 4d fc	 mov	 ecx, DWORD PTR _this$[ebp]
  00073	83 c1 4c	 add	 ecx, 76			; 0000004cH
  00076	51		 push	 ecx
  00077	ff 15 00 00 00
	00		 call	 DWORD PTR __imp__lstrcpynA@12

; 198  : 
; 199  : 	return;
; 200  : }

  0007d	8b 45 fc	 mov	 eax, DWORD PTR _this$[ebp]
  00080	5f		 pop	 edi
  00081	5e		 pop	 esi
  00082	5b		 pop	 ebx
  00083	8b e5		 mov	 esp, ebp
  00085	5d		 pop	 ebp
  00086	c2 10 00	 ret	 16			; 00000010H
??0?$CTempldateHelper@UITCPNetworkEngine@@@@QAE@ABU_GUID@@KPBD1@Z ENDP ; CTempldateHelper<ITCPNetworkEngine>::CTempldateHelper<ITCPNetworkEngine>
_TEXT	ENDS
; Function compile flags: /Odtp /ZI
;	COMDAT ??_GCAttemperEngineHelper@@UAEPAXI@Z
_TEXT	SEGMENT
_this$ = -4						; size = 4
___flags$ = 8						; size = 4
??_GCAttemperEngineHelper@@UAEPAXI@Z PROC		; CAttemperEngineHelper::`scalar deleting destructor', COMDAT
; _this$ = ecx
  00000	55		 push	 ebp
  00001	8b ec		 mov	 ebp, esp
  00003	83 ec 44	 sub	 esp, 68			; 00000044H
  00006	53		 push	 ebx
  00007	56		 push	 esi
  00008	57		 push	 edi
  00009	89 4d fc	 mov	 DWORD PTR _this$[ebp], ecx
  0000c	8b 4d fc	 mov	 ecx, DWORD PTR _this$[ebp]
  0000f	e8 00 00 00 00	 call	 ??1CAttemperEngineHelper@@UAE@XZ
  00014	8b 45 08	 mov	 eax, DWORD PTR ___flags$[ebp]
  00017	83 e0 01	 and	 eax, 1
  0001a	74 11		 je	 SHORT $LN2@scalar
  0001c	68 d8 01 00 00	 push	 472			; 000001d8H
  00021	8b 45 fc	 mov	 eax, DWORD PTR _this$[ebp]
  00024	50		 push	 eax
  00025	e8 00 00 00 00	 call	 ??3@YAXPAXI@Z		; operator delete
  0002a	83 c4 08	 add	 esp, 8
$LN2@scalar:
  0002d	8b 45 fc	 mov	 eax, DWORD PTR _this$[ebp]
  00030	5f		 pop	 edi
  00031	5e		 pop	 esi
  00032	5b		 pop	 ebx
  00033	8b e5		 mov	 esp, ebp
  00035	5d		 pop	 ebp
  00036	c2 04 00	 ret	 4
??_GCAttemperEngineHelper@@UAEPAXI@Z ENDP		; CAttemperEngineHelper::`scalar deleting destructor'
_TEXT	ENDS
; Function compile flags: /Odtp /ZI
;	COMDAT ??1CAttemperEngineHelper@@UAE@XZ
_TEXT	SEGMENT
_this$ = -4						; size = 4
??1CAttemperEngineHelper@@UAE@XZ PROC			; CAttemperEngineHelper::~CAttemperEngineHelper, COMDAT
; _this$ = ecx
  00000	55		 push	 ebp
  00001	8b ec		 mov	 ebp, esp
  00003	83 ec 44	 sub	 esp, 68			; 00000044H
  00006	53		 push	 ebx
  00007	56		 push	 esi
  00008	57		 push	 edi
  00009	89 4d fc	 mov	 DWORD PTR _this$[ebp], ecx
  0000c	8b 4d fc	 mov	 ecx, DWORD PTR _this$[ebp]
  0000f	e8 00 00 00 00	 call	 ??1?$CTempldateHelper@UIAttemperEngine@@@@UAE@XZ ; CTempldateHelper<IAttemperEngine>::~CTempldateHelper<IAttemperEngine>
  00014	5f		 pop	 edi
  00015	5e		 pop	 esi
  00016	5b		 pop	 ebx
  00017	8b e5		 mov	 esp, ebp
  00019	5d		 pop	 ebp
  0001a	c3		 ret	 0
??1CAttemperEngineHelper@@UAE@XZ ENDP			; CAttemperEngineHelper::~CAttemperEngineHelper
_TEXT	ENDS
; Function compile flags: /Odtp /ZI
; File g:\网狐\happygamewh\服务端\系统模块\服务器组件\内核引擎\kernelenginehead.h
;	COMDAT ??0CAttemperEngineHelper@@QAE@XZ
_TEXT	SEGMENT
_this$ = -4						; size = 4
??0CAttemperEngineHelper@@QAE@XZ PROC			; CAttemperEngineHelper::CAttemperEngineHelper, COMDAT
; _this$ = ecx

; 845  : DECLARE_MODULE_HELPER(AttemperEngine, KERNEL_ENGINE_DLL_NAME, "CreateAttemperEngine")

  00000	55		 push	 ebp
  00001	8b ec		 mov	 ebp, esp
  00003	83 ec 44	 sub	 esp, 68			; 00000044H
  00006	53		 push	 ebx
  00007	56		 push	 esi
  00008	57		 push	 edi
  00009	89 4d fc	 mov	 DWORD PTR _this$[ebp], ecx
  0000c	68 00 00 00 00	 push	 OFFSET ??_C@_0BF@PBPGMLEA@CreateAttemperEngine@
  00011	68 00 00 00 00	 push	 OFFSET ??_C@_0BB@BEMLEOHB@KernelEngine?4dll@
  00016	68 00 01 01 06	 push	 100729088		; 06010100H
  0001b	68 00 00 00 00	 push	 OFFSET ?IID_IAttemperEngine@@3U_GUID@@B
  00020	8b 4d fc	 mov	 ecx, DWORD PTR _this$[ebp]
  00023	e8 00 00 00 00	 call	 ??0?$CTempldateHelper@UIAttemperEngine@@@@QAE@ABU_GUID@@KPBD1@Z ; CTempldateHelper<IAttemperEngine>::CTempldateHelper<IAttemperEngine>
  00028	8b 45 fc	 mov	 eax, DWORD PTR _this$[ebp]
  0002b	c7 00 00 00 00
	00		 mov	 DWORD PTR [eax], OFFSET ??_7CAttemperEngineHelper@@6B@
  00031	8b 45 fc	 mov	 eax, DWORD PTR _this$[ebp]
  00034	5f		 pop	 edi
  00035	5e		 pop	 esi
  00036	5b		 pop	 ebx
  00037	8b e5		 mov	 esp, ebp
  00039	5d		 pop	 ebp
  0003a	c3		 ret	 0
??0CAttemperEngineHelper@@QAE@XZ ENDP			; CAttemperEngineHelper::CAttemperEngineHelper
_TEXT	ENDS
; Function compile flags: /Odtp /ZI
;	COMDAT ??_G?$CTempldateHelper@UIAttemperEngine@@@@UAEPAXI@Z
_TEXT	SEGMENT
_this$ = -4						; size = 4
___flags$ = 8						; size = 4
??_G?$CTempldateHelper@UIAttemperEngine@@@@UAEPAXI@Z PROC ; CTempldateHelper<IAttemperEngine>::`scalar deleting destructor', COMDAT
; _this$ = ecx
  00000	55		 push	 ebp
  00001	8b ec		 mov	 ebp, esp
  00003	83 ec 44	 sub	 esp, 68			; 00000044H
  00006	53		 push	 ebx
  00007	56		 push	 esi
  00008	57		 push	 edi
  00009	89 4d fc	 mov	 DWORD PTR _this$[ebp], ecx
  0000c	8b 4d fc	 mov	 ecx, DWORD PTR _this$[ebp]
  0000f	e8 00 00 00 00	 call	 ??1?$CTempldateHelper@UIAttemperEngine@@@@UAE@XZ ; CTempldateHelper<IAttemperEngine>::~CTempldateHelper<IAttemperEngine>
  00014	8b 45 08	 mov	 eax, DWORD PTR ___flags$[ebp]
  00017	83 e0 01	 and	 eax, 1
  0001a	74 11		 je	 SHORT $LN2@scalar
  0001c	68 d8 01 00 00	 push	 472			; 000001d8H
  00021	8b 45 fc	 mov	 eax, DWORD PTR _this$[ebp]
  00024	50		 push	 eax
  00025	e8 00 00 00 00	 call	 ??3@YAXPAXI@Z		; operator delete
  0002a	83 c4 08	 add	 esp, 8
$LN2@scalar:
  0002d	8b 45 fc	 mov	 eax, DWORD PTR _this$[ebp]
  00030	5f		 pop	 edi
  00031	5e		 pop	 esi
  00032	5b		 pop	 ebx
  00033	8b e5		 mov	 esp, ebp
  00035	5d		 pop	 ebp
  00036	c2 04 00	 ret	 4
??_G?$CTempldateHelper@UIAttemperEngine@@@@UAEPAXI@Z ENDP ; CTempldateHelper<IAttemperEngine>::`scalar deleting destructor'
_TEXT	ENDS
; Function compile flags: /Odtp /ZI
; File g:\网狐\happygamewh\服务端\系统模块\全局定义\module.h
;	COMDAT ?GetInterface@?$CTempldateHelper@UIAttemperEngine@@@@QBEPAUIAttemperEngine@@XZ
_TEXT	SEGMENT
_this$ = -4						; size = 4
?GetInterface@?$CTempldateHelper@UIAttemperEngine@@@@QBEPAUIAttemperEngine@@XZ PROC ; CTempldateHelper<IAttemperEngine>::GetInterface, COMDAT
; _this$ = ecx

; 316  : { 

  00000	55		 push	 ebp
  00001	8b ec		 mov	 ebp, esp
  00003	83 ec 44	 sub	 esp, 68			; 00000044H
  00006	53		 push	 ebx
  00007	56		 push	 esi
  00008	57		 push	 edi
  00009	89 4d fc	 mov	 DWORD PTR _this$[ebp], ecx

; 317  : 	return m_pIModeluInterface; 

  0000c	8b 45 fc	 mov	 eax, DWORD PTR _this$[ebp]
  0000f	8b 80 54 01 00
	00		 mov	 eax, DWORD PTR [eax+340]

; 318  : }

  00015	5f		 pop	 edi
  00016	5e		 pop	 esi
  00017	5b		 pop	 ebx
  00018	8b e5		 mov	 esp, ebp
  0001a	5d		 pop	 ebp
  0001b	c3		 ret	 0
?GetInterface@?$CTempldateHelper@UIAttemperEngine@@@@QBEPAUIAttemperEngine@@XZ ENDP ; CTempldateHelper<IAttemperEngine>::GetInterface
_TEXT	ENDS
; Function compile flags: /Odtp /ZI
; File g:\网狐\happygamewh\服务端\系统模块\全局定义\module.h
;	COMDAT ??C?$CTempldateHelper@UIAttemperEngine@@@@QBEPAUIAttemperEngine@@XZ
_TEXT	SEGMENT
_this$ = -4						; size = 4
??C?$CTempldateHelper@UIAttemperEngine@@@@QBEPAUIAttemperEngine@@XZ PROC ; CTempldateHelper<IAttemperEngine>::operator->, COMDAT
; _this$ = ecx

; 309  : { 

  00000	55		 push	 ebp
  00001	8b ec		 mov	 ebp, esp
  00003	83 ec 44	 sub	 esp, 68			; 00000044H
  00006	53		 push	 ebx
  00007	56		 push	 esi
  00008	57		 push	 edi
  00009	89 4d fc	 mov	 DWORD PTR _this$[ebp], ecx

; 310  : 	return GetInterface(); 

  0000c	8b 4d fc	 mov	 ecx, DWORD PTR _this$[ebp]
  0000f	e8 00 00 00 00	 call	 ?GetInterface@?$CTempldateHelper@UIAttemperEngine@@@@QBEPAUIAttemperEngine@@XZ ; CTempldateHelper<IAttemperEngine>::GetInterface

; 311  : }

  00014	5f		 pop	 edi
  00015	5e		 pop	 esi
  00016	5b		 pop	 ebx
  00017	8b e5		 mov	 esp, ebp
  00019	5d		 pop	 ebp
  0001a	c3		 ret	 0
??C?$CTempldateHelper@UIAttemperEngine@@@@QBEPAUIAttemperEngine@@XZ ENDP ; CTempldateHelper<IAttemperEngine>::operator->
_TEXT	ENDS
; Function compile flags: /Odtp /ZI
; File g:\网狐\happygamewh\服务端\系统模块\全局定义\module.h
;	COMDAT ?CreateInstance@?$CTempldateHelper@UIAttemperEngine@@@@QAE_NXZ
_TEXT	SEGMENT
tv173 = -100						; size = 4
tv172 = -100						; size = 4
tv171 = -100						; size = 4
tv170 = -100						; size = 4
$T2 = -94						; size = 1
$T3 = -93						; size = 1
_pszError$4 = -28					; size = 4
_CreateProc$5 = -24					; size = 4
_this$ = -20						; size = 4
__$EHRec$ = -16						; size = 16
?CreateInstance@?$CTempldateHelper@UIAttemperEngine@@@@QAE_NXZ PROC ; CTempldateHelper<IAttemperEngine>::CreateInstance, COMDAT
; _this$ = ecx

; 212  : {

  00000	55		 push	 ebp
  00001	8b ec		 mov	 ebp, esp
  00003	6a ff		 push	 -1
  00005	68 00 00 00 00	 push	 __ehhandler$?CreateInstance@?$CTempldateHelper@UIAttemperEngine@@@@QAE_NXZ
  0000a	64 a1 00 00 00
	00		 mov	 eax, DWORD PTR fs:0
  00010	50		 push	 eax
  00011	51		 push	 ecx
  00012	83 ec 54	 sub	 esp, 84			; 00000054H
  00015	53		 push	 ebx
  00016	56		 push	 esi
  00017	57		 push	 edi
  00018	a1 00 00 00 00	 mov	 eax, DWORD PTR ___security_cookie
  0001d	33 c5		 xor	 eax, ebp
  0001f	50		 push	 eax
  00020	8d 45 f4	 lea	 eax, DWORD PTR __$EHRec$[ebp+4]
  00023	64 a3 00 00 00
	00		 mov	 DWORD PTR fs:0, eax
  00029	89 65 f0	 mov	 DWORD PTR __$EHRec$[ebp], esp
  0002c	89 4d ec	 mov	 DWORD PTR _this$[ebp], ecx

; 213  : 	//释放组件
; 214  : 	CloseInstance();

  0002f	8b 4d ec	 mov	 ecx, DWORD PTR _this$[ebp]
  00032	e8 00 00 00 00	 call	 ?CloseInstance@?$CTempldateHelper@UIAttemperEngine@@@@QAE_NXZ ; CTempldateHelper<IAttemperEngine>::CloseInstance

; 215  : 
; 216  : 	//创建组件
; 217  : 	try

  00037	c7 45 fc 00 00
	00 00		 mov	 DWORD PTR __$EHRec$[ebp+12], 0

; 218  : 	{
; 219  : 		//效验参数
; 220  : 		ASSERT(m_szCreateProc[0]!=0);

  0003e	b8 01 00 00 00	 mov	 eax, 1
  00043	6b c8 00	 imul	 ecx, eax, 0
  00046	8b 55 ec	 mov	 edx, DWORD PTR _this$[ebp]
  00049	0f be 44 0a 0c	 movsx	 eax, BYTE PTR [edx+ecx+12]
  0004e	85 c0		 test	 eax, eax
  00050	75 19		 jne	 SHORT $LN7@CreateInst
  00052	68 dc 00 00 00	 push	 220			; 000000dcH
  00057	68 00 00 00 00	 push	 OFFSET ??_C@_0DG@CDIFDKED@g?3?2?M?x?$LK?$PM?2happygamewh?2?$LH?$PO?N?q?$LG?K?2?O?$LF?M?$LD@
  0005c	e8 00 00 00 00	 call	 ?AfxAssertFailedLine@@YGHPBDH@Z ; AfxAssertFailedLine
  00061	89 45 9c	 mov	 DWORD PTR tv170[ebp], eax
  00064	83 7d 9c 00	 cmp	 DWORD PTR tv170[ebp], 0
  00068	74 01		 je	 SHORT $LN7@CreateInst
  0006a	cc		 int	 3
$LN7@CreateInst:

; 221  : 		ASSERT(m_szModuleDllName[0]!=0);

  0006b	b8 01 00 00 00	 mov	 eax, 1
  00070	6b c8 00	 imul	 ecx, eax, 0
  00073	8b 55 ec	 mov	 edx, DWORD PTR _this$[ebp]
  00076	0f be 44 0a 4c	 movsx	 eax, BYTE PTR [edx+ecx+76]
  0007b	85 c0		 test	 eax, eax
  0007d	75 19		 jne	 SHORT $LN8@CreateInst
  0007f	68 dd 00 00 00	 push	 221			; 000000ddH
  00084	68 00 00 00 00	 push	 OFFSET ??_C@_0DG@CDIFDKED@g?3?2?M?x?$LK?$PM?2happygamewh?2?$LH?$PO?N?q?$LG?K?2?O?$LF?M?$LD@
  00089	e8 00 00 00 00	 call	 ?AfxAssertFailedLine@@YGHPBDH@Z ; AfxAssertFailedLine
  0008e	89 45 9c	 mov	 DWORD PTR tv171[ebp], eax
  00091	83 7d 9c 00	 cmp	 DWORD PTR tv171[ebp], 0
  00095	74 01		 je	 SHORT $LN8@CreateInst
  00097	cc		 int	 3
$LN8@CreateInst:

; 222  : 
; 223  : 		//加载模块
; 224  : 		m_hDllInstance=AfxLoadLibrary(m_szModuleDllName);

  00098	8b 45 ec	 mov	 eax, DWORD PTR _this$[ebp]
  0009b	83 c0 4c	 add	 eax, 76			; 0000004cH
  0009e	50		 push	 eax
  0009f	e8 00 00 00 00	 call	 ?AfxLoadLibrary@@YGPAUHINSTANCE__@@PBD@Z ; AfxLoadLibrary
  000a4	89 45 9c	 mov	 DWORD PTR tv172[ebp], eax
  000a7	8b 4d ec	 mov	 ecx, DWORD PTR _this$[ebp]
  000aa	8b 55 9c	 mov	 edx, DWORD PTR tv172[ebp]
  000ad	89 91 50 01 00
	00		 mov	 DWORD PTR [ecx+336], edx

; 225  : 		if (m_hDllInstance==NULL) 

  000b3	8b 45 ec	 mov	 eax, DWORD PTR _this$[ebp]
  000b6	83 b8 50 01 00
	00 00		 cmp	 DWORD PTR [eax+336], 0
  000bd	75 2a		 jne	 SHORT $LN3@CreateInst

; 226  : 		{
; 227  : 			_sntprintf_s(m_szDescribe,CountArray(m_szDescribe),TEXT("“%s”模块加载失败"),m_szModuleDllName);

  000bf	8b 45 ec	 mov	 eax, DWORD PTR _this$[ebp]
  000c2	83 c0 4c	 add	 eax, 76			; 0000004cH
  000c5	50		 push	 eax
  000c6	68 00 00 00 00	 push	 OFFSET ??_C@_0BD@LMOFNGMO@?$KB?$LA?$CFs?$KB?$LB?D?$KD?$LP?i?$LM?S?T?X?J?$KH?$LA?$NM@
  000cb	68 80 00 00 00	 push	 128			; 00000080H
  000d0	8b 4d ec	 mov	 ecx, DWORD PTR _this$[ebp]
  000d3	81 c1 58 01 00
	00		 add	 ecx, 344		; 00000158H
  000d9	51		 push	 ecx
  000da	e8 00 00 00 00	 call	 ??$_snprintf_s@$0IA@@@YAHAAY0IA@DIPBDZZ ; _snprintf_s<128>
  000df	83 c4 10	 add	 esp, 16			; 00000010H

; 228  : 			return false;

  000e2	32 c0		 xor	 al, al
  000e4	e9 34 01 00 00	 jmp	 $LN1@CreateInst
$LN3@CreateInst:

; 229  : 		}
; 230  : 
; 231  : 		//寻找函数
; 232  : 		ModuleCreateProc * CreateProc=(ModuleCreateProc *)GetProcAddress(m_hDllInstance,m_szCreateProc);

  000e9	8b 45 ec	 mov	 eax, DWORD PTR _this$[ebp]
  000ec	83 c0 0c	 add	 eax, 12			; 0000000cH
  000ef	50		 push	 eax
  000f0	8b 4d ec	 mov	 ecx, DWORD PTR _this$[ebp]
  000f3	8b 91 50 01 00
	00		 mov	 edx, DWORD PTR [ecx+336]
  000f9	52		 push	 edx
  000fa	ff 15 00 00 00
	00		 call	 DWORD PTR __imp__GetProcAddress@8
  00100	89 45 e8	 mov	 DWORD PTR _CreateProc$5[ebp], eax

; 233  : 		if (CreateProc==NULL) 

  00103	83 7d e8 00	 cmp	 DWORD PTR _CreateProc$5[ebp], 0
  00107	75 31		 jne	 SHORT $LN4@CreateInst

; 234  : 		{		
; 235  : 			_sntprintf_s(m_szDescribe, CountArray(m_szDescribe), TEXT("找不到组件创建函数“%s”:%d"), m_szCreateProc, GetLastError());

  00109	ff 15 00 00 00
	00		 call	 DWORD PTR __imp__GetLastError@0
  0010f	50		 push	 eax
  00110	8b 45 ec	 mov	 eax, DWORD PTR _this$[ebp]
  00113	83 c0 0c	 add	 eax, 12			; 0000000cH
  00116	50		 push	 eax
  00117	68 00 00 00 00	 push	 OFFSET ??_C@_0BM@PEGNCJOH@?U?R?$LC?$LL?$LF?$LN?W?i?$LM?$PO?$LE?$LE?$LN?$KI?$LK?$KP?J?$PN?$KB?$LA?$CFs?$KB?$LB?3?$CFd@
  0011c	68 80 00 00 00	 push	 128			; 00000080H
  00121	8b 4d ec	 mov	 ecx, DWORD PTR _this$[ebp]
  00124	81 c1 58 01 00
	00		 add	 ecx, 344		; 00000158H
  0012a	51		 push	 ecx
  0012b	e8 00 00 00 00	 call	 ??$_snprintf_s@$0IA@@@YAHAAY0IA@DIPBDZZ ; _snprintf_s<128>
  00130	83 c4 14	 add	 esp, 20			; 00000014H

; 236  : 			return false;

  00133	32 c0		 xor	 al, al
  00135	e9 e3 00 00 00	 jmp	 $LN1@CreateInst
$LN4@CreateInst:

; 237  : 		}
; 238  : 
; 239  : 		//创建组件
; 240  : 		m_pIModeluInterface=(IModeluInterface *)CreateProc(m_Guid,m_dwVersion);

  0013a	8b 45 ec	 mov	 eax, DWORD PTR _this$[ebp]
  0013d	8b 48 08	 mov	 ecx, DWORD PTR [eax+8]
  00140	51		 push	 ecx
  00141	8b 55 ec	 mov	 edx, DWORD PTR _this$[ebp]
  00144	8b 42 04	 mov	 eax, DWORD PTR [edx+4]
  00147	50		 push	 eax
  00148	ff 55 e8	 call	 DWORD PTR _CreateProc$5[ebp]
  0014b	83 c4 08	 add	 esp, 8
  0014e	89 45 9c	 mov	 DWORD PTR tv173[ebp], eax
  00151	8b 4d ec	 mov	 ecx, DWORD PTR _this$[ebp]
  00154	8b 55 9c	 mov	 edx, DWORD PTR tv173[ebp]
  00157	89 91 54 01 00
	00		 mov	 DWORD PTR [ecx+340], edx

; 241  : 		if (m_pIModeluInterface==NULL) 

  0015d	8b 45 ec	 mov	 eax, DWORD PTR _this$[ebp]
  00160	83 b8 54 01 00
	00 00		 cmp	 DWORD PTR [eax+340], 0
  00167	75 2a		 jne	 SHORT $LN5@CreateInst

; 242  : 		{
; 243  : 			_sntprintf_s(m_szDescribe,CountArray(m_szDescribe),TEXT("调用函数“%s”生成对象失败"),m_szCreateProc);

  00169	8b 45 ec	 mov	 eax, DWORD PTR _this$[ebp]
  0016c	83 c0 0c	 add	 eax, 12			; 0000000cH
  0016f	50		 push	 eax
  00170	68 00 00 00 00	 push	 OFFSET ??_C@_0BL@PDAODLKM@?$LF?w?S?C?$LK?$KP?J?$PN?$KB?$LA?$CFs?$KB?$LB?I?z?$LD?I?$LG?T?O?s?J?$KH?$LA?$NM@
  00175	68 80 00 00 00	 push	 128			; 00000080H
  0017a	8b 4d ec	 mov	 ecx, DWORD PTR _this$[ebp]
  0017d	81 c1 58 01 00
	00		 add	 ecx, 344		; 00000158H
  00183	51		 push	 ecx
  00184	e8 00 00 00 00	 call	 ??$_snprintf_s@$0IA@@@YAHAAY0IA@DIPBDZZ ; _snprintf_s<128>
  00189	83 c4 10	 add	 esp, 16			; 00000010H

; 244  : 			return false;

  0018c	32 c0		 xor	 al, al
  0018e	e9 8a 00 00 00	 jmp	 $LN1@CreateInst
$LN5@CreateInst:

; 245  : 		}
; 246  : 	}

  00193	eb 63		 jmp	 SHORT $LN9@CreateInst
__catch$?CreateInstance@?$CTempldateHelper@UIAttemperEngine@@@@QAE_NXZ$0:

; 247  : 	catch (LPCTSTR pszError)
; 248  : 	{
; 249  : 		_sntprintf_s(m_szDescribe,CountArray(m_szDescribe),TEXT("由于“%s”，组件创建失败"),pszError);

  00195	8b 45 e4	 mov	 eax, DWORD PTR _pszError$4[ebp]
  00198	50		 push	 eax
  00199	68 00 00 00 00	 push	 OFFSET ??_C@_0BJ@JGPFHIJF@?S?I?S?Z?$KB?$LA?$CFs?$KB?$LB?$KD?$KM?W?i?$LM?$PO?$LE?$LE?$LN?$KI?J?$KH?$LA?$NM@
  0019e	68 80 00 00 00	 push	 128			; 00000080H
  001a3	8b 4d ec	 mov	 ecx, DWORD PTR _this$[ebp]
  001a6	81 c1 58 01 00
	00		 add	 ecx, 344		; 00000158H
  001ac	51		 push	 ecx
  001ad	e8 00 00 00 00	 call	 ??$_snprintf_s@$0IA@@@YAHAAY0IA@DIPBDZZ ; _snprintf_s<128>
  001b2	83 c4 10	 add	 esp, 16			; 00000010H

; 250  : 		return false;

  001b5	c6 45 a3 00	 mov	 BYTE PTR $T3[ebp], 0
  001b9	b8 00 00 00 00	 mov	 eax, $LN13@CreateInst
  001be	c3		 ret	 0

; 251  : 	}

  001bf	b8 00 00 00 00	 mov	 eax, $LN9@CreateInst
  001c4	c3		 ret	 0
__catch$?CreateInstance@?$CTempldateHelper@UIAttemperEngine@@@@QAE_NXZ$1:

; 252  : 	catch (...)	
; 253  : 	{ 
; 254  : 		_sntprintf_s(m_szDescribe,CountArray(m_szDescribe),TEXT("组件创建函数“%s”产生未知异常错误，组件创建失败"),m_szCreateProc);

  001c5	8b 45 ec	 mov	 eax, DWORD PTR _this$[ebp]
  001c8	83 c0 0c	 add	 eax, 12			; 0000000cH
  001cb	50		 push	 eax
  001cc	68 00 00 00 00	 push	 OFFSET ??_C@_0DB@JBNKENAJ@?W?i?$LM?$PO?$LE?$LE?$LN?$KI?$LK?$KP?J?$PN?$KB?$LA?$CFs?$KB?$LB?$LC?z?I?z?N?$LE?V?$KK?R?l?$LD?$KD?$LE@
  001d1	68 80 00 00 00	 push	 128			; 00000080H
  001d6	8b 4d ec	 mov	 ecx, DWORD PTR _this$[ebp]
  001d9	81 c1 58 01 00
	00		 add	 ecx, 344		; 00000158H
  001df	51		 push	 ecx
  001e0	e8 00 00 00 00	 call	 ??$_snprintf_s@$0IA@@@YAHAAY0IA@DIPBDZZ ; _snprintf_s<128>
  001e5	83 c4 10	 add	 esp, 16			; 00000010H

; 255  : 		return false;

  001e8	c6 45 a2 00	 mov	 BYTE PTR $T2[ebp], 0
  001ec	b8 00 00 00 00	 mov	 eax, $LN15@CreateInst
  001f1	c3		 ret	 0

; 256  : 	}

  001f2	b8 00 00 00 00	 mov	 eax, $LN9@CreateInst
  001f7	c3		 ret	 0
$LN9@CreateInst:
  001f8	c7 45 fc ff ff
	ff ff		 mov	 DWORD PTR __$EHRec$[ebp+12], -1
  001ff	eb 0c		 jmp	 SHORT $LN14@CreateInst
$LN15@CreateInst:
  00201	c7 45 fc ff ff
	ff ff		 mov	 DWORD PTR __$EHRec$[ebp+12], -1

; 255  : 		return false;

  00208	8a 45 a2	 mov	 al, BYTE PTR $T2[ebp]
  0020b	eb 10		 jmp	 SHORT $LN1@CreateInst
$LN14@CreateInst:
  0020d	eb 0c		 jmp	 SHORT $LN12@CreateInst
$LN13@CreateInst:
  0020f	c7 45 fc ff ff
	ff ff		 mov	 DWORD PTR __$EHRec$[ebp+12], -1

; 250  : 		return false;

  00216	8a 45 a3	 mov	 al, BYTE PTR $T3[ebp]
  00219	eb 02		 jmp	 SHORT $LN1@CreateInst
$LN12@CreateInst:

; 257  : 
; 258  : 	return true;

  0021b	b0 01		 mov	 al, 1
$LN1@CreateInst:

; 259  : }

  0021d	8b 4d f4	 mov	 ecx, DWORD PTR __$EHRec$[ebp+4]
  00220	64 89 0d 00 00
	00 00		 mov	 DWORD PTR fs:0, ecx
  00227	59		 pop	 ecx
  00228	5f		 pop	 edi
  00229	5e		 pop	 esi
  0022a	5b		 pop	 ebx
  0022b	8b e5		 mov	 esp, ebp
  0022d	5d		 pop	 ebp
  0022e	c3		 ret	 0
_TEXT	ENDS
;	COMDAT text$x
text$x	SEGMENT
__ehhandler$?CreateInstance@?$CTempldateHelper@UIAttemperEngine@@@@QAE_NXZ:
  00000	8b 54 24 08	 mov	 edx, DWORD PTR [esp+8]
  00004	8d 42 0c	 lea	 eax, DWORD PTR [edx+12]
  00007	8b 4a 98	 mov	 ecx, DWORD PTR [edx-104]
  0000a	33 c8		 xor	 ecx, eax
  0000c	e8 00 00 00 00	 call	 @__security_check_cookie@4
  00011	b8 00 00 00 00	 mov	 eax, OFFSET __ehfuncinfo$?CreateInstance@?$CTempldateHelper@UIAttemperEngine@@@@QAE_NXZ
  00016	e9 00 00 00 00	 jmp	 ___CxxFrameHandler3
text$x	ENDS
?CreateInstance@?$CTempldateHelper@UIAttemperEngine@@@@QAE_NXZ ENDP ; CTempldateHelper<IAttemperEngine>::CreateInstance
; Function compile flags: /Odtp /ZI
; File g:\网狐\happygamewh\服务端\系统模块\全局定义\module.h
;	COMDAT ?CloseInstance@?$CTempldateHelper@UIAttemperEngine@@@@QAE_NXZ
_TEXT	SEGMENT
_this$ = -4						; size = 4
?CloseInstance@?$CTempldateHelper@UIAttemperEngine@@@@QAE_NXZ PROC ; CTempldateHelper<IAttemperEngine>::CloseInstance, COMDAT
; _this$ = ecx

; 264  : {

  00000	55		 push	 ebp
  00001	8b ec		 mov	 ebp, esp
  00003	83 ec 44	 sub	 esp, 68			; 00000044H
  00006	53		 push	 ebx
  00007	56		 push	 esi
  00008	57		 push	 edi
  00009	89 4d fc	 mov	 DWORD PTR _this$[ebp], ecx

; 265  : 	//设置变量
; 266  : 	m_szDescribe[0]=0;

  0000c	b8 01 00 00 00	 mov	 eax, 1
  00011	6b c8 00	 imul	 ecx, eax, 0
  00014	8b 55 fc	 mov	 edx, DWORD PTR _this$[ebp]
  00017	c6 84 0a 58 01
	00 00 00	 mov	 BYTE PTR [edx+ecx+344], 0

; 267  : 
; 268  : 	//销毁对象
; 269  : 	if (m_pIModeluInterface!=NULL)

  0001f	8b 45 fc	 mov	 eax, DWORD PTR _this$[ebp]
  00022	83 b8 54 01 00
	00 00		 cmp	 DWORD PTR [eax+340], 0
  00029	74 25		 je	 SHORT $LN2@CloseInsta

; 270  : 	{
; 271  : 		m_pIModeluInterface->Release();

  0002b	8b 45 fc	 mov	 eax, DWORD PTR _this$[ebp]
  0002e	8b 88 54 01 00
	00		 mov	 ecx, DWORD PTR [eax+340]
  00034	8b 55 fc	 mov	 edx, DWORD PTR _this$[ebp]
  00037	8b 01		 mov	 eax, DWORD PTR [ecx]
  00039	8b 8a 54 01 00
	00		 mov	 ecx, DWORD PTR [edx+340]
  0003f	8b 10		 mov	 edx, DWORD PTR [eax]
  00041	ff d2		 call	 edx

; 272  : 		m_pIModeluInterface=NULL;

  00043	8b 45 fc	 mov	 eax, DWORD PTR _this$[ebp]
  00046	c7 80 54 01 00
	00 00 00 00 00	 mov	 DWORD PTR [eax+340], 0
$LN2@CloseInsta:

; 273  : 	}
; 274  : 
; 275  : 	//释放 DLL
; 276  : 	if (m_hDllInstance!=NULL)

  00050	8b 45 fc	 mov	 eax, DWORD PTR _this$[ebp]
  00053	83 b8 50 01 00
	00 00		 cmp	 DWORD PTR [eax+336], 0
  0005a	74 1c		 je	 SHORT $LN3@CloseInsta

; 277  : 	{
; 278  : 		AfxFreeLibrary(m_hDllInstance);

  0005c	8b 45 fc	 mov	 eax, DWORD PTR _this$[ebp]
  0005f	8b 88 50 01 00
	00		 mov	 ecx, DWORD PTR [eax+336]
  00065	51		 push	 ecx
  00066	e8 00 00 00 00	 call	 ?AfxFreeLibrary@@YGHPAUHINSTANCE__@@@Z ; AfxFreeLibrary

; 279  : 		m_hDllInstance=NULL;

  0006b	8b 45 fc	 mov	 eax, DWORD PTR _this$[ebp]
  0006e	c7 80 50 01 00
	00 00 00 00 00	 mov	 DWORD PTR [eax+336], 0
$LN3@CloseInsta:

; 280  : 	}
; 281  : 
; 282  : 	return true;

  00078	b0 01		 mov	 al, 1

; 283  : }

  0007a	5f		 pop	 edi
  0007b	5e		 pop	 esi
  0007c	5b		 pop	 ebx
  0007d	8b e5		 mov	 esp, ebp
  0007f	5d		 pop	 ebp
  00080	c3		 ret	 0
?CloseInstance@?$CTempldateHelper@UIAttemperEngine@@@@QAE_NXZ ENDP ; CTempldateHelper<IAttemperEngine>::CloseInstance
_TEXT	ENDS
; Function compile flags: /Odtp /ZI
; File g:\网狐\happygamewh\服务端\系统模块\全局定义\module.h
;	COMDAT ??1?$CTempldateHelper@UIAttemperEngine@@@@UAE@XZ
_TEXT	SEGMENT
_this$ = -16						; size = 4
__$EHRec$ = -12						; size = 12
??1?$CTempldateHelper@UIAttemperEngine@@@@UAE@XZ PROC	; CTempldateHelper<IAttemperEngine>::~CTempldateHelper<IAttemperEngine>, COMDAT
; _this$ = ecx

; 205  : {

  00000	55		 push	 ebp
  00001	8b ec		 mov	 ebp, esp
  00003	6a ff		 push	 -1
  00005	68 00 00 00 00	 push	 __ehhandler$??1?$CTempldateHelper@UIAttemperEngine@@@@UAE@XZ
  0000a	64 a1 00 00 00
	00		 mov	 eax, DWORD PTR fs:0
  00010	50		 push	 eax
  00011	83 ec 44	 sub	 esp, 68			; 00000044H
  00014	53		 push	 ebx
  00015	56		 push	 esi
  00016	57		 push	 edi
  00017	a1 00 00 00 00	 mov	 eax, DWORD PTR ___security_cookie
  0001c	33 c5		 xor	 eax, ebp
  0001e	50		 push	 eax
  0001f	8d 45 f4	 lea	 eax, DWORD PTR __$EHRec$[ebp]
  00022	64 a3 00 00 00
	00		 mov	 DWORD PTR fs:0, eax
  00028	89 4d f0	 mov	 DWORD PTR _this$[ebp], ecx
  0002b	8b 45 f0	 mov	 eax, DWORD PTR _this$[ebp]
  0002e	c7 00 00 00 00
	00		 mov	 DWORD PTR [eax], OFFSET ??_7?$CTempldateHelper@UIAttemperEngine@@@@6B@

; 206  : 	CloseInstance();

  00034	8b 4d f0	 mov	 ecx, DWORD PTR _this$[ebp]
  00037	e8 00 00 00 00	 call	 ?CloseInstance@?$CTempldateHelper@UIAttemperEngine@@@@QAE_NXZ ; CTempldateHelper<IAttemperEngine>::CloseInstance

; 207  : }

  0003c	8b 4d f4	 mov	 ecx, DWORD PTR __$EHRec$[ebp]
  0003f	64 89 0d 00 00
	00 00		 mov	 DWORD PTR fs:0, ecx
  00046	59		 pop	 ecx
  00047	5f		 pop	 edi
  00048	5e		 pop	 esi
  00049	5b		 pop	 ebx
  0004a	8b e5		 mov	 esp, ebp
  0004c	5d		 pop	 ebp
  0004d	c3		 ret	 0
_TEXT	ENDS
;	COMDAT text$x
text$x	SEGMENT
__ehhandler$??1?$CTempldateHelper@UIAttemperEngine@@@@UAE@XZ:
  00000	8b 54 24 08	 mov	 edx, DWORD PTR [esp+8]
  00004	8d 42 0c	 lea	 eax, DWORD PTR [edx+12]
  00007	8b 4a ac	 mov	 ecx, DWORD PTR [edx-84]
  0000a	33 c8		 xor	 ecx, eax
  0000c	e8 00 00 00 00	 call	 @__security_check_cookie@4
  00011	b8 00 00 00 00	 mov	 eax, OFFSET __ehfuncinfo$??1?$CTempldateHelper@UIAttemperEngine@@@@UAE@XZ
  00016	e9 00 00 00 00	 jmp	 ___CxxFrameHandler3
text$x	ENDS
??1?$CTempldateHelper@UIAttemperEngine@@@@UAE@XZ ENDP	; CTempldateHelper<IAttemperEngine>::~CTempldateHelper<IAttemperEngine>
; Function compile flags: /Odtp /ZI
; File g:\网狐\happygamewh\服务端\系统模块\全局定义\module.h
;	COMDAT ??0?$CTempldateHelper@UIAttemperEngine@@@@QAE@ABU_GUID@@KPBD1@Z
_TEXT	SEGMENT
_this$ = -4						; size = 4
_Guid$ = 8						; size = 4
_dwVersion$ = 12					; size = 4
_pszModuleDll$ = 16					; size = 4
_pszCreateProc$ = 20					; size = 4
??0?$CTempldateHelper@UIAttemperEngine@@@@QAE@ABU_GUID@@KPBD1@Z PROC ; CTempldateHelper<IAttemperEngine>::CTempldateHelper<IAttemperEngine>, COMDAT
; _this$ = ecx

; 187  : {

  00000	55		 push	 ebp
  00001	8b ec		 mov	 ebp, esp
  00003	83 ec 44	 sub	 esp, 68			; 00000044H
  00006	53		 push	 ebx
  00007	56		 push	 esi
  00008	57		 push	 edi
  00009	89 4d fc	 mov	 DWORD PTR _this$[ebp], ecx
  0000c	8b 45 fc	 mov	 eax, DWORD PTR _this$[ebp]
  0000f	c7 00 00 00 00
	00		 mov	 DWORD PTR [eax], OFFSET ??_7?$CTempldateHelper@UIAttemperEngine@@@@6B@

; 186  : CTempldateHelper<IModeluInterface>::CTempldateHelper(REFGUID Guid, DWORD dwVersion, LPCTSTR pszModuleDll, LPCSTR pszCreateProc) : m_dwVersion(dwVersion), m_Guid(Guid)

  00015	8b 45 fc	 mov	 eax, DWORD PTR _this$[ebp]
  00018	8b 4d 08	 mov	 ecx, DWORD PTR _Guid$[ebp]
  0001b	89 48 04	 mov	 DWORD PTR [eax+4], ecx
  0001e	8b 45 fc	 mov	 eax, DWORD PTR _this$[ebp]
  00021	8b 4d 0c	 mov	 ecx, DWORD PTR _dwVersion$[ebp]
  00024	89 48 08	 mov	 DWORD PTR [eax+8], ecx

; 188  : 	//辅助变量
; 189  : 	m_szDescribe[0]=0;

  00027	b8 01 00 00 00	 mov	 eax, 1
  0002c	6b c8 00	 imul	 ecx, eax, 0
  0002f	8b 55 fc	 mov	 edx, DWORD PTR _this$[ebp]
  00032	c6 84 0a 58 01
	00 00 00	 mov	 BYTE PTR [edx+ecx+344], 0

; 190  : 
; 191  : 	//内核信息
; 192  : 	m_hDllInstance=NULL;

  0003a	8b 45 fc	 mov	 eax, DWORD PTR _this$[ebp]
  0003d	c7 80 50 01 00
	00 00 00 00 00	 mov	 DWORD PTR [eax+336], 0

; 193  : 	m_pIModeluInterface=NULL;

  00047	8b 45 fc	 mov	 eax, DWORD PTR _this$[ebp]
  0004a	c7 80 54 01 00
	00 00 00 00 00	 mov	 DWORD PTR [eax+340], 0

; 194  : 
; 195  : 	//组件属性
; 196  : 	lstrcpynA(m_szCreateProc,pszCreateProc,CountArray(m_szCreateProc));

  00054	6a 40		 push	 64			; 00000040H
  00056	8b 45 14	 mov	 eax, DWORD PTR _pszCreateProc$[ebp]
  00059	50		 push	 eax
  0005a	8b 4d fc	 mov	 ecx, DWORD PTR _this$[ebp]
  0005d	83 c1 0c	 add	 ecx, 12			; 0000000cH
  00060	51		 push	 ecx
  00061	ff 15 00 00 00
	00		 call	 DWORD PTR __imp__lstrcpynA@12

; 197  : 	lstrcpyn(m_szModuleDllName,pszModuleDll,CountArray(m_szModuleDllName));

  00067	68 04 01 00 00	 push	 260			; 00000104H
  0006c	8b 45 10	 mov	 eax, DWORD PTR _pszModuleDll$[ebp]
  0006f	50		 push	 eax
  00070	8b 4d fc	 mov	 ecx, DWORD PTR _this$[ebp]
  00073	83 c1 4c	 add	 ecx, 76			; 0000004cH
  00076	51		 push	 ecx
  00077	ff 15 00 00 00
	00		 call	 DWORD PTR __imp__lstrcpynA@12

; 198  : 
; 199  : 	return;
; 200  : }

  0007d	8b 45 fc	 mov	 eax, DWORD PTR _this$[ebp]
  00080	5f		 pop	 edi
  00081	5e		 pop	 esi
  00082	5b		 pop	 ebx
  00083	8b e5		 mov	 esp, ebp
  00085	5d		 pop	 ebp
  00086	c2 10 00	 ret	 16			; 00000010H
??0?$CTempldateHelper@UIAttemperEngine@@@@QAE@ABU_GUID@@KPBD1@Z ENDP ; CTempldateHelper<IAttemperEngine>::CTempldateHelper<IAttemperEngine>
_TEXT	ENDS
; Function compile flags: /Odtp /ZI
;	COMDAT ??_GCTimerEngineHelper@@UAEPAXI@Z
_TEXT	SEGMENT
_this$ = -4						; size = 4
___flags$ = 8						; size = 4
??_GCTimerEngineHelper@@UAEPAXI@Z PROC			; CTimerEngineHelper::`scalar deleting destructor', COMDAT
; _this$ = ecx
  00000	55		 push	 ebp
  00001	8b ec		 mov	 ebp, esp
  00003	83 ec 44	 sub	 esp, 68			; 00000044H
  00006	53		 push	 ebx
  00007	56		 push	 esi
  00008	57		 push	 edi
  00009	89 4d fc	 mov	 DWORD PTR _this$[ebp], ecx
  0000c	8b 4d fc	 mov	 ecx, DWORD PTR _this$[ebp]
  0000f	e8 00 00 00 00	 call	 ??1CTimerEngineHelper@@UAE@XZ
  00014	8b 45 08	 mov	 eax, DWORD PTR ___flags$[ebp]
  00017	83 e0 01	 and	 eax, 1
  0001a	74 11		 je	 SHORT $LN2@scalar
  0001c	68 d8 01 00 00	 push	 472			; 000001d8H
  00021	8b 45 fc	 mov	 eax, DWORD PTR _this$[ebp]
  00024	50		 push	 eax
  00025	e8 00 00 00 00	 call	 ??3@YAXPAXI@Z		; operator delete
  0002a	83 c4 08	 add	 esp, 8
$LN2@scalar:
  0002d	8b 45 fc	 mov	 eax, DWORD PTR _this$[ebp]
  00030	5f		 pop	 edi
  00031	5e		 pop	 esi
  00032	5b		 pop	 ebx
  00033	8b e5		 mov	 esp, ebp
  00035	5d		 pop	 ebp
  00036	c2 04 00	 ret	 4
??_GCTimerEngineHelper@@UAEPAXI@Z ENDP			; CTimerEngineHelper::`scalar deleting destructor'
_TEXT	ENDS
; Function compile flags: /Odtp /ZI
;	COMDAT ??1CTimerEngineHelper@@UAE@XZ
_TEXT	SEGMENT
_this$ = -4						; size = 4
??1CTimerEngineHelper@@UAE@XZ PROC			; CTimerEngineHelper::~CTimerEngineHelper, COMDAT
; _this$ = ecx
  00000	55		 push	 ebp
  00001	8b ec		 mov	 ebp, esp
  00003	83 ec 44	 sub	 esp, 68			; 00000044H
  00006	53		 push	 ebx
  00007	56		 push	 esi
  00008	57		 push	 edi
  00009	89 4d fc	 mov	 DWORD PTR _this$[ebp], ecx
  0000c	8b 4d fc	 mov	 ecx, DWORD PTR _this$[ebp]
  0000f	e8 00 00 00 00	 call	 ??1?$CTempldateHelper@UITimerEngine@@@@UAE@XZ ; CTempldateHelper<ITimerEngine>::~CTempldateHelper<ITimerEngine>
  00014	5f		 pop	 edi
  00015	5e		 pop	 esi
  00016	5b		 pop	 ebx
  00017	8b e5		 mov	 esp, ebp
  00019	5d		 pop	 ebp
  0001a	c3		 ret	 0
??1CTimerEngineHelper@@UAE@XZ ENDP			; CTimerEngineHelper::~CTimerEngineHelper
_TEXT	ENDS
; Function compile flags: /Odtp /ZI
; File g:\网狐\happygamewh\服务端\系统模块\服务器组件\内核引擎\kernelenginehead.h
;	COMDAT ??0CTimerEngineHelper@@QAE@XZ
_TEXT	SEGMENT
_this$ = -4						; size = 4
??0CTimerEngineHelper@@QAE@XZ PROC			; CTimerEngineHelper::CTimerEngineHelper, COMDAT
; _this$ = ecx

; 843  : DECLARE_MODULE_HELPER(TimerEngine, KERNEL_ENGINE_DLL_NAME, "CreateTimerEngine")

  00000	55		 push	 ebp
  00001	8b ec		 mov	 ebp, esp
  00003	83 ec 44	 sub	 esp, 68			; 00000044H
  00006	53		 push	 ebx
  00007	56		 push	 esi
  00008	57		 push	 edi
  00009	89 4d fc	 mov	 DWORD PTR _this$[ebp], ecx
  0000c	68 00 00 00 00	 push	 OFFSET ??_C@_0BC@PLOLBCGN@CreateTimerEngine@
  00011	68 00 00 00 00	 push	 OFFSET ??_C@_0BB@BEMLEOHB@KernelEngine?4dll@
  00016	68 00 01 01 06	 push	 100729088		; 06010100H
  0001b	68 00 00 00 00	 push	 OFFSET ?IID_ITimerEngine@@3U_GUID@@B
  00020	8b 4d fc	 mov	 ecx, DWORD PTR _this$[ebp]
  00023	e8 00 00 00 00	 call	 ??0?$CTempldateHelper@UITimerEngine@@@@QAE@ABU_GUID@@KPBD1@Z ; CTempldateHelper<ITimerEngine>::CTempldateHelper<ITimerEngine>
  00028	8b 45 fc	 mov	 eax, DWORD PTR _this$[ebp]
  0002b	c7 00 00 00 00
	00		 mov	 DWORD PTR [eax], OFFSET ??_7CTimerEngineHelper@@6B@
  00031	8b 45 fc	 mov	 eax, DWORD PTR _this$[ebp]
  00034	5f		 pop	 edi
  00035	5e		 pop	 esi
  00036	5b		 pop	 ebx
  00037	8b e5		 mov	 esp, ebp
  00039	5d		 pop	 ebp
  0003a	c3		 ret	 0
??0CTimerEngineHelper@@QAE@XZ ENDP			; CTimerEngineHelper::CTimerEngineHelper
_TEXT	ENDS
; Function compile flags: /Odtp /ZI
;	COMDAT ??_G?$CTempldateHelper@UITimerEngine@@@@UAEPAXI@Z
_TEXT	SEGMENT
_this$ = -4						; size = 4
___flags$ = 8						; size = 4
??_G?$CTempldateHelper@UITimerEngine@@@@UAEPAXI@Z PROC	; CTempldateHelper<ITimerEngine>::`scalar deleting destructor', COMDAT
; _this$ = ecx
  00000	55		 push	 ebp
  00001	8b ec		 mov	 ebp, esp
  00003	83 ec 44	 sub	 esp, 68			; 00000044H
  00006	53		 push	 ebx
  00007	56		 push	 esi
  00008	57		 push	 edi
  00009	89 4d fc	 mov	 DWORD PTR _this$[ebp], ecx
  0000c	8b 4d fc	 mov	 ecx, DWORD PTR _this$[ebp]
  0000f	e8 00 00 00 00	 call	 ??1?$CTempldateHelper@UITimerEngine@@@@UAE@XZ ; CTempldateHelper<ITimerEngine>::~CTempldateHelper<ITimerEngine>
  00014	8b 45 08	 mov	 eax, DWORD PTR ___flags$[ebp]
  00017	83 e0 01	 and	 eax, 1
  0001a	74 11		 je	 SHORT $LN2@scalar
  0001c	68 d8 01 00 00	 push	 472			; 000001d8H
  00021	8b 45 fc	 mov	 eax, DWORD PTR _this$[ebp]
  00024	50		 push	 eax
  00025	e8 00 00 00 00	 call	 ??3@YAXPAXI@Z		; operator delete
  0002a	83 c4 08	 add	 esp, 8
$LN2@scalar:
  0002d	8b 45 fc	 mov	 eax, DWORD PTR _this$[ebp]
  00030	5f		 pop	 edi
  00031	5e		 pop	 esi
  00032	5b		 pop	 ebx
  00033	8b e5		 mov	 esp, ebp
  00035	5d		 pop	 ebp
  00036	c2 04 00	 ret	 4
??_G?$CTempldateHelper@UITimerEngine@@@@UAEPAXI@Z ENDP	; CTempldateHelper<ITimerEngine>::`scalar deleting destructor'
_TEXT	ENDS
; Function compile flags: /Odtp /ZI
; File g:\网狐\happygamewh\服务端\系统模块\全局定义\module.h
;	COMDAT ?GetInterface@?$CTempldateHelper@UITimerEngine@@@@QBEPAUITimerEngine@@XZ
_TEXT	SEGMENT
_this$ = -4						; size = 4
?GetInterface@?$CTempldateHelper@UITimerEngine@@@@QBEPAUITimerEngine@@XZ PROC ; CTempldateHelper<ITimerEngine>::GetInterface, COMDAT
; _this$ = ecx

; 316  : { 

  00000	55		 push	 ebp
  00001	8b ec		 mov	 ebp, esp
  00003	83 ec 44	 sub	 esp, 68			; 00000044H
  00006	53		 push	 ebx
  00007	56		 push	 esi
  00008	57		 push	 edi
  00009	89 4d fc	 mov	 DWORD PTR _this$[ebp], ecx

; 317  : 	return m_pIModeluInterface; 

  0000c	8b 45 fc	 mov	 eax, DWORD PTR _this$[ebp]
  0000f	8b 80 54 01 00
	00		 mov	 eax, DWORD PTR [eax+340]

; 318  : }

  00015	5f		 pop	 edi
  00016	5e		 pop	 esi
  00017	5b		 pop	 ebx
  00018	8b e5		 mov	 esp, ebp
  0001a	5d		 pop	 ebp
  0001b	c3		 ret	 0
?GetInterface@?$CTempldateHelper@UITimerEngine@@@@QBEPAUITimerEngine@@XZ ENDP ; CTempldateHelper<ITimerEngine>::GetInterface
_TEXT	ENDS
; Function compile flags: /Odtp /ZI
; File g:\网狐\happygamewh\服务端\系统模块\全局定义\module.h
;	COMDAT ??C?$CTempldateHelper@UITimerEngine@@@@QBEPAUITimerEngine@@XZ
_TEXT	SEGMENT
_this$ = -4						; size = 4
??C?$CTempldateHelper@UITimerEngine@@@@QBEPAUITimerEngine@@XZ PROC ; CTempldateHelper<ITimerEngine>::operator->, COMDAT
; _this$ = ecx

; 309  : { 

  00000	55		 push	 ebp
  00001	8b ec		 mov	 ebp, esp
  00003	83 ec 44	 sub	 esp, 68			; 00000044H
  00006	53		 push	 ebx
  00007	56		 push	 esi
  00008	57		 push	 edi
  00009	89 4d fc	 mov	 DWORD PTR _this$[ebp], ecx

; 310  : 	return GetInterface(); 

  0000c	8b 4d fc	 mov	 ecx, DWORD PTR _this$[ebp]
  0000f	e8 00 00 00 00	 call	 ?GetInterface@?$CTempldateHelper@UITimerEngine@@@@QBEPAUITimerEngine@@XZ ; CTempldateHelper<ITimerEngine>::GetInterface

; 311  : }

  00014	5f		 pop	 edi
  00015	5e		 pop	 esi
  00016	5b		 pop	 ebx
  00017	8b e5		 mov	 esp, ebp
  00019	5d		 pop	 ebp
  0001a	c3		 ret	 0
??C?$CTempldateHelper@UITimerEngine@@@@QBEPAUITimerEngine@@XZ ENDP ; CTempldateHelper<ITimerEngine>::operator->
_TEXT	ENDS
; Function compile flags: /Odtp /ZI
; File g:\网狐\happygamewh\服务端\系统模块\全局定义\module.h
;	COMDAT ?CreateInstance@?$CTempldateHelper@UITimerEngine@@@@QAE_NXZ
_TEXT	SEGMENT
tv173 = -100						; size = 4
tv172 = -100						; size = 4
tv171 = -100						; size = 4
tv170 = -100						; size = 4
$T2 = -94						; size = 1
$T3 = -93						; size = 1
_pszError$4 = -28					; size = 4
_CreateProc$5 = -24					; size = 4
_this$ = -20						; size = 4
__$EHRec$ = -16						; size = 16
?CreateInstance@?$CTempldateHelper@UITimerEngine@@@@QAE_NXZ PROC ; CTempldateHelper<ITimerEngine>::CreateInstance, COMDAT
; _this$ = ecx

; 212  : {

  00000	55		 push	 ebp
  00001	8b ec		 mov	 ebp, esp
  00003	6a ff		 push	 -1
  00005	68 00 00 00 00	 push	 __ehhandler$?CreateInstance@?$CTempldateHelper@UITimerEngine@@@@QAE_NXZ
  0000a	64 a1 00 00 00
	00		 mov	 eax, DWORD PTR fs:0
  00010	50		 push	 eax
  00011	51		 push	 ecx
  00012	83 ec 54	 sub	 esp, 84			; 00000054H
  00015	53		 push	 ebx
  00016	56		 push	 esi
  00017	57		 push	 edi
  00018	a1 00 00 00 00	 mov	 eax, DWORD PTR ___security_cookie
  0001d	33 c5		 xor	 eax, ebp
  0001f	50		 push	 eax
  00020	8d 45 f4	 lea	 eax, DWORD PTR __$EHRec$[ebp+4]
  00023	64 a3 00 00 00
	00		 mov	 DWORD PTR fs:0, eax
  00029	89 65 f0	 mov	 DWORD PTR __$EHRec$[ebp], esp
  0002c	89 4d ec	 mov	 DWORD PTR _this$[ebp], ecx

; 213  : 	//释放组件
; 214  : 	CloseInstance();

  0002f	8b 4d ec	 mov	 ecx, DWORD PTR _this$[ebp]
  00032	e8 00 00 00 00	 call	 ?CloseInstance@?$CTempldateHelper@UITimerEngine@@@@QAE_NXZ ; CTempldateHelper<ITimerEngine>::CloseInstance

; 215  : 
; 216  : 	//创建组件
; 217  : 	try

  00037	c7 45 fc 00 00
	00 00		 mov	 DWORD PTR __$EHRec$[ebp+12], 0

; 218  : 	{
; 219  : 		//效验参数
; 220  : 		ASSERT(m_szCreateProc[0]!=0);

  0003e	b8 01 00 00 00	 mov	 eax, 1
  00043	6b c8 00	 imul	 ecx, eax, 0
  00046	8b 55 ec	 mov	 edx, DWORD PTR _this$[ebp]
  00049	0f be 44 0a 0c	 movsx	 eax, BYTE PTR [edx+ecx+12]
  0004e	85 c0		 test	 eax, eax
  00050	75 19		 jne	 SHORT $LN7@CreateInst
  00052	68 dc 00 00 00	 push	 220			; 000000dcH
  00057	68 00 00 00 00	 push	 OFFSET ??_C@_0DG@CDIFDKED@g?3?2?M?x?$LK?$PM?2happygamewh?2?$LH?$PO?N?q?$LG?K?2?O?$LF?M?$LD@
  0005c	e8 00 00 00 00	 call	 ?AfxAssertFailedLine@@YGHPBDH@Z ; AfxAssertFailedLine
  00061	89 45 9c	 mov	 DWORD PTR tv170[ebp], eax
  00064	83 7d 9c 00	 cmp	 DWORD PTR tv170[ebp], 0
  00068	74 01		 je	 SHORT $LN7@CreateInst
  0006a	cc		 int	 3
$LN7@CreateInst:

; 221  : 		ASSERT(m_szModuleDllName[0]!=0);

  0006b	b8 01 00 00 00	 mov	 eax, 1
  00070	6b c8 00	 imul	 ecx, eax, 0
  00073	8b 55 ec	 mov	 edx, DWORD PTR _this$[ebp]
  00076	0f be 44 0a 4c	 movsx	 eax, BYTE PTR [edx+ecx+76]
  0007b	85 c0		 test	 eax, eax
  0007d	75 19		 jne	 SHORT $LN8@CreateInst
  0007f	68 dd 00 00 00	 push	 221			; 000000ddH
  00084	68 00 00 00 00	 push	 OFFSET ??_C@_0DG@CDIFDKED@g?3?2?M?x?$LK?$PM?2happygamewh?2?$LH?$PO?N?q?$LG?K?2?O?$LF?M?$LD@
  00089	e8 00 00 00 00	 call	 ?AfxAssertFailedLine@@YGHPBDH@Z ; AfxAssertFailedLine
  0008e	89 45 9c	 mov	 DWORD PTR tv171[ebp], eax
  00091	83 7d 9c 00	 cmp	 DWORD PTR tv171[ebp], 0
  00095	74 01		 je	 SHORT $LN8@CreateInst
  00097	cc		 int	 3
$LN8@CreateInst:

; 222  : 
; 223  : 		//加载模块
; 224  : 		m_hDllInstance=AfxLoadLibrary(m_szModuleDllName);

  00098	8b 45 ec	 mov	 eax, DWORD PTR _this$[ebp]
  0009b	83 c0 4c	 add	 eax, 76			; 0000004cH
  0009e	50		 push	 eax
  0009f	e8 00 00 00 00	 call	 ?AfxLoadLibrary@@YGPAUHINSTANCE__@@PBD@Z ; AfxLoadLibrary
  000a4	89 45 9c	 mov	 DWORD PTR tv172[ebp], eax
  000a7	8b 4d ec	 mov	 ecx, DWORD PTR _this$[ebp]
  000aa	8b 55 9c	 mov	 edx, DWORD PTR tv172[ebp]
  000ad	89 91 50 01 00
	00		 mov	 DWORD PTR [ecx+336], edx

; 225  : 		if (m_hDllInstance==NULL) 

  000b3	8b 45 ec	 mov	 eax, DWORD PTR _this$[ebp]
  000b6	83 b8 50 01 00
	00 00		 cmp	 DWORD PTR [eax+336], 0
  000bd	75 2a		 jne	 SHORT $LN3@CreateInst

; 226  : 		{
; 227  : 			_sntprintf_s(m_szDescribe,CountArray(m_szDescribe),TEXT("“%s”模块加载失败"),m_szModuleDllName);

  000bf	8b 45 ec	 mov	 eax, DWORD PTR _this$[ebp]
  000c2	83 c0 4c	 add	 eax, 76			; 0000004cH
  000c5	50		 push	 eax
  000c6	68 00 00 00 00	 push	 OFFSET ??_C@_0BD@LMOFNGMO@?$KB?$LA?$CFs?$KB?$LB?D?$KD?$LP?i?$LM?S?T?X?J?$KH?$LA?$NM@
  000cb	68 80 00 00 00	 push	 128			; 00000080H
  000d0	8b 4d ec	 mov	 ecx, DWORD PTR _this$[ebp]
  000d3	81 c1 58 01 00
	00		 add	 ecx, 344		; 00000158H
  000d9	51		 push	 ecx
  000da	e8 00 00 00 00	 call	 ??$_snprintf_s@$0IA@@@YAHAAY0IA@DIPBDZZ ; _snprintf_s<128>
  000df	83 c4 10	 add	 esp, 16			; 00000010H

; 228  : 			return false;

  000e2	32 c0		 xor	 al, al
  000e4	e9 34 01 00 00	 jmp	 $LN1@CreateInst
$LN3@CreateInst:

; 229  : 		}
; 230  : 
; 231  : 		//寻找函数
; 232  : 		ModuleCreateProc * CreateProc=(ModuleCreateProc *)GetProcAddress(m_hDllInstance,m_szCreateProc);

  000e9	8b 45 ec	 mov	 eax, DWORD PTR _this$[ebp]
  000ec	83 c0 0c	 add	 eax, 12			; 0000000cH
  000ef	50		 push	 eax
  000f0	8b 4d ec	 mov	 ecx, DWORD PTR _this$[ebp]
  000f3	8b 91 50 01 00
	00		 mov	 edx, DWORD PTR [ecx+336]
  000f9	52		 push	 edx
  000fa	ff 15 00 00 00
	00		 call	 DWORD PTR __imp__GetProcAddress@8
  00100	89 45 e8	 mov	 DWORD PTR _CreateProc$5[ebp], eax

; 233  : 		if (CreateProc==NULL) 

  00103	83 7d e8 00	 cmp	 DWORD PTR _CreateProc$5[ebp], 0
  00107	75 31		 jne	 SHORT $LN4@CreateInst

; 234  : 		{		
; 235  : 			_sntprintf_s(m_szDescribe, CountArray(m_szDescribe), TEXT("找不到组件创建函数“%s”:%d"), m_szCreateProc, GetLastError());

  00109	ff 15 00 00 00
	00		 call	 DWORD PTR __imp__GetLastError@0
  0010f	50		 push	 eax
  00110	8b 45 ec	 mov	 eax, DWORD PTR _this$[ebp]
  00113	83 c0 0c	 add	 eax, 12			; 0000000cH
  00116	50		 push	 eax
  00117	68 00 00 00 00	 push	 OFFSET ??_C@_0BM@PEGNCJOH@?U?R?$LC?$LL?$LF?$LN?W?i?$LM?$PO?$LE?$LE?$LN?$KI?$LK?$KP?J?$PN?$KB?$LA?$CFs?$KB?$LB?3?$CFd@
  0011c	68 80 00 00 00	 push	 128			; 00000080H
  00121	8b 4d ec	 mov	 ecx, DWORD PTR _this$[ebp]
  00124	81 c1 58 01 00
	00		 add	 ecx, 344		; 00000158H
  0012a	51		 push	 ecx
  0012b	e8 00 00 00 00	 call	 ??$_snprintf_s@$0IA@@@YAHAAY0IA@DIPBDZZ ; _snprintf_s<128>
  00130	83 c4 14	 add	 esp, 20			; 00000014H

; 236  : 			return false;

  00133	32 c0		 xor	 al, al
  00135	e9 e3 00 00 00	 jmp	 $LN1@CreateInst
$LN4@CreateInst:

; 237  : 		}
; 238  : 
; 239  : 		//创建组件
; 240  : 		m_pIModeluInterface=(IModeluInterface *)CreateProc(m_Guid,m_dwVersion);

  0013a	8b 45 ec	 mov	 eax, DWORD PTR _this$[ebp]
  0013d	8b 48 08	 mov	 ecx, DWORD PTR [eax+8]
  00140	51		 push	 ecx
  00141	8b 55 ec	 mov	 edx, DWORD PTR _this$[ebp]
  00144	8b 42 04	 mov	 eax, DWORD PTR [edx+4]
  00147	50		 push	 eax
  00148	ff 55 e8	 call	 DWORD PTR _CreateProc$5[ebp]
  0014b	83 c4 08	 add	 esp, 8
  0014e	89 45 9c	 mov	 DWORD PTR tv173[ebp], eax
  00151	8b 4d ec	 mov	 ecx, DWORD PTR _this$[ebp]
  00154	8b 55 9c	 mov	 edx, DWORD PTR tv173[ebp]
  00157	89 91 54 01 00
	00		 mov	 DWORD PTR [ecx+340], edx

; 241  : 		if (m_pIModeluInterface==NULL) 

  0015d	8b 45 ec	 mov	 eax, DWORD PTR _this$[ebp]
  00160	83 b8 54 01 00
	00 00		 cmp	 DWORD PTR [eax+340], 0
  00167	75 2a		 jne	 SHORT $LN5@CreateInst

; 242  : 		{
; 243  : 			_sntprintf_s(m_szDescribe,CountArray(m_szDescribe),TEXT("调用函数“%s”生成对象失败"),m_szCreateProc);

  00169	8b 45 ec	 mov	 eax, DWORD PTR _this$[ebp]
  0016c	83 c0 0c	 add	 eax, 12			; 0000000cH
  0016f	50		 push	 eax
  00170	68 00 00 00 00	 push	 OFFSET ??_C@_0BL@PDAODLKM@?$LF?w?S?C?$LK?$KP?J?$PN?$KB?$LA?$CFs?$KB?$LB?I?z?$LD?I?$LG?T?O?s?J?$KH?$LA?$NM@
  00175	68 80 00 00 00	 push	 128			; 00000080H
  0017a	8b 4d ec	 mov	 ecx, DWORD PTR _this$[ebp]
  0017d	81 c1 58 01 00
	00		 add	 ecx, 344		; 00000158H
  00183	51		 push	 ecx
  00184	e8 00 00 00 00	 call	 ??$_snprintf_s@$0IA@@@YAHAAY0IA@DIPBDZZ ; _snprintf_s<128>
  00189	83 c4 10	 add	 esp, 16			; 00000010H

; 244  : 			return false;

  0018c	32 c0		 xor	 al, al
  0018e	e9 8a 00 00 00	 jmp	 $LN1@CreateInst
$LN5@CreateInst:

; 245  : 		}
; 246  : 	}

  00193	eb 63		 jmp	 SHORT $LN9@CreateInst
__catch$?CreateInstance@?$CTempldateHelper@UITimerEngine@@@@QAE_NXZ$0:

; 247  : 	catch (LPCTSTR pszError)
; 248  : 	{
; 249  : 		_sntprintf_s(m_szDescribe,CountArray(m_szDescribe),TEXT("由于“%s”，组件创建失败"),pszError);

  00195	8b 45 e4	 mov	 eax, DWORD PTR _pszError$4[ebp]
  00198	50		 push	 eax
  00199	68 00 00 00 00	 push	 OFFSET ??_C@_0BJ@JGPFHIJF@?S?I?S?Z?$KB?$LA?$CFs?$KB?$LB?$KD?$KM?W?i?$LM?$PO?$LE?$LE?$LN?$KI?J?$KH?$LA?$NM@
  0019e	68 80 00 00 00	 push	 128			; 00000080H
  001a3	8b 4d ec	 mov	 ecx, DWORD PTR _this$[ebp]
  001a6	81 c1 58 01 00
	00		 add	 ecx, 344		; 00000158H
  001ac	51		 push	 ecx
  001ad	e8 00 00 00 00	 call	 ??$_snprintf_s@$0IA@@@YAHAAY0IA@DIPBDZZ ; _snprintf_s<128>
  001b2	83 c4 10	 add	 esp, 16			; 00000010H

; 250  : 		return false;

  001b5	c6 45 a3 00	 mov	 BYTE PTR $T3[ebp], 0
  001b9	b8 00 00 00 00	 mov	 eax, $LN13@CreateInst
  001be	c3		 ret	 0

; 251  : 	}

  001bf	b8 00 00 00 00	 mov	 eax, $LN9@CreateInst
  001c4	c3		 ret	 0
__catch$?CreateInstance@?$CTempldateHelper@UITimerEngine@@@@QAE_NXZ$1:

; 252  : 	catch (...)	
; 253  : 	{ 
; 254  : 		_sntprintf_s(m_szDescribe,CountArray(m_szDescribe),TEXT("组件创建函数“%s”产生未知异常错误，组件创建失败"),m_szCreateProc);

  001c5	8b 45 ec	 mov	 eax, DWORD PTR _this$[ebp]
  001c8	83 c0 0c	 add	 eax, 12			; 0000000cH
  001cb	50		 push	 eax
  001cc	68 00 00 00 00	 push	 OFFSET ??_C@_0DB@JBNKENAJ@?W?i?$LM?$PO?$LE?$LE?$LN?$KI?$LK?$KP?J?$PN?$KB?$LA?$CFs?$KB?$LB?$LC?z?I?z?N?$LE?V?$KK?R?l?$LD?$KD?$LE@
  001d1	68 80 00 00 00	 push	 128			; 00000080H
  001d6	8b 4d ec	 mov	 ecx, DWORD PTR _this$[ebp]
  001d9	81 c1 58 01 00
	00		 add	 ecx, 344		; 00000158H
  001df	51		 push	 ecx
  001e0	e8 00 00 00 00	 call	 ??$_snprintf_s@$0IA@@@YAHAAY0IA@DIPBDZZ ; _snprintf_s<128>
  001e5	83 c4 10	 add	 esp, 16			; 00000010H

; 255  : 		return false;

  001e8	c6 45 a2 00	 mov	 BYTE PTR $T2[ebp], 0
  001ec	b8 00 00 00 00	 mov	 eax, $LN15@CreateInst
  001f1	c3		 ret	 0

; 256  : 	}

  001f2	b8 00 00 00 00	 mov	 eax, $LN9@CreateInst
  001f7	c3		 ret	 0
$LN9@CreateInst:
  001f8	c7 45 fc ff ff
	ff ff		 mov	 DWORD PTR __$EHRec$[ebp+12], -1
  001ff	eb 0c		 jmp	 SHORT $LN14@CreateInst
$LN15@CreateInst:
  00201	c7 45 fc ff ff
	ff ff		 mov	 DWORD PTR __$EHRec$[ebp+12], -1

; 255  : 		return false;

  00208	8a 45 a2	 mov	 al, BYTE PTR $T2[ebp]
  0020b	eb 10		 jmp	 SHORT $LN1@CreateInst
$LN14@CreateInst:
  0020d	eb 0c		 jmp	 SHORT $LN12@CreateInst
$LN13@CreateInst:
  0020f	c7 45 fc ff ff
	ff ff		 mov	 DWORD PTR __$EHRec$[ebp+12], -1

; 250  : 		return false;

  00216	8a 45 a3	 mov	 al, BYTE PTR $T3[ebp]
  00219	eb 02		 jmp	 SHORT $LN1@CreateInst
$LN12@CreateInst:

; 257  : 
; 258  : 	return true;

  0021b	b0 01		 mov	 al, 1
$LN1@CreateInst:

; 259  : }

  0021d	8b 4d f4	 mov	 ecx, DWORD PTR __$EHRec$[ebp+4]
  00220	64 89 0d 00 00
	00 00		 mov	 DWORD PTR fs:0, ecx
  00227	59		 pop	 ecx
  00228	5f		 pop	 edi
  00229	5e		 pop	 esi
  0022a	5b		 pop	 ebx
  0022b	8b e5		 mov	 esp, ebp
  0022d	5d		 pop	 ebp
  0022e	c3		 ret	 0
_TEXT	ENDS
;	COMDAT text$x
text$x	SEGMENT
__ehhandler$?CreateInstance@?$CTempldateHelper@UITimerEngine@@@@QAE_NXZ:
  00000	8b 54 24 08	 mov	 edx, DWORD PTR [esp+8]
  00004	8d 42 0c	 lea	 eax, DWORD PTR [edx+12]
  00007	8b 4a 98	 mov	 ecx, DWORD PTR [edx-104]
  0000a	33 c8		 xor	 ecx, eax
  0000c	e8 00 00 00 00	 call	 @__security_check_cookie@4
  00011	b8 00 00 00 00	 mov	 eax, OFFSET __ehfuncinfo$?CreateInstance@?$CTempldateHelper@UITimerEngine@@@@QAE_NXZ
  00016	e9 00 00 00 00	 jmp	 ___CxxFrameHandler3
text$x	ENDS
?CreateInstance@?$CTempldateHelper@UITimerEngine@@@@QAE_NXZ ENDP ; CTempldateHelper<ITimerEngine>::CreateInstance
; Function compile flags: /Odtp /ZI
; File g:\网狐\happygamewh\服务端\系统模块\全局定义\module.h
;	COMDAT ?CloseInstance@?$CTempldateHelper@UITimerEngine@@@@QAE_NXZ
_TEXT	SEGMENT
_this$ = -4						; size = 4
?CloseInstance@?$CTempldateHelper@UITimerEngine@@@@QAE_NXZ PROC ; CTempldateHelper<ITimerEngine>::CloseInstance, COMDAT
; _this$ = ecx

; 264  : {

  00000	55		 push	 ebp
  00001	8b ec		 mov	 ebp, esp
  00003	83 ec 44	 sub	 esp, 68			; 00000044H
  00006	53		 push	 ebx
  00007	56		 push	 esi
  00008	57		 push	 edi
  00009	89 4d fc	 mov	 DWORD PTR _this$[ebp], ecx

; 265  : 	//设置变量
; 266  : 	m_szDescribe[0]=0;

  0000c	b8 01 00 00 00	 mov	 eax, 1
  00011	6b c8 00	 imul	 ecx, eax, 0
  00014	8b 55 fc	 mov	 edx, DWORD PTR _this$[ebp]
  00017	c6 84 0a 58 01
	00 00 00	 mov	 BYTE PTR [edx+ecx+344], 0

; 267  : 
; 268  : 	//销毁对象
; 269  : 	if (m_pIModeluInterface!=NULL)

  0001f	8b 45 fc	 mov	 eax, DWORD PTR _this$[ebp]
  00022	83 b8 54 01 00
	00 00		 cmp	 DWORD PTR [eax+340], 0
  00029	74 25		 je	 SHORT $LN2@CloseInsta

; 270  : 	{
; 271  : 		m_pIModeluInterface->Release();

  0002b	8b 45 fc	 mov	 eax, DWORD PTR _this$[ebp]
  0002e	8b 88 54 01 00
	00		 mov	 ecx, DWORD PTR [eax+340]
  00034	8b 55 fc	 mov	 edx, DWORD PTR _this$[ebp]
  00037	8b 01		 mov	 eax, DWORD PTR [ecx]
  00039	8b 8a 54 01 00
	00		 mov	 ecx, DWORD PTR [edx+340]
  0003f	8b 10		 mov	 edx, DWORD PTR [eax]
  00041	ff d2		 call	 edx

; 272  : 		m_pIModeluInterface=NULL;

  00043	8b 45 fc	 mov	 eax, DWORD PTR _this$[ebp]
  00046	c7 80 54 01 00
	00 00 00 00 00	 mov	 DWORD PTR [eax+340], 0
$LN2@CloseInsta:

; 273  : 	}
; 274  : 
; 275  : 	//释放 DLL
; 276  : 	if (m_hDllInstance!=NULL)

  00050	8b 45 fc	 mov	 eax, DWORD PTR _this$[ebp]
  00053	83 b8 50 01 00
	00 00		 cmp	 DWORD PTR [eax+336], 0
  0005a	74 1c		 je	 SHORT $LN3@CloseInsta

; 277  : 	{
; 278  : 		AfxFreeLibrary(m_hDllInstance);

  0005c	8b 45 fc	 mov	 eax, DWORD PTR _this$[ebp]
  0005f	8b 88 50 01 00
	00		 mov	 ecx, DWORD PTR [eax+336]
  00065	51		 push	 ecx
  00066	e8 00 00 00 00	 call	 ?AfxFreeLibrary@@YGHPAUHINSTANCE__@@@Z ; AfxFreeLibrary

; 279  : 		m_hDllInstance=NULL;

  0006b	8b 45 fc	 mov	 eax, DWORD PTR _this$[ebp]
  0006e	c7 80 50 01 00
	00 00 00 00 00	 mov	 DWORD PTR [eax+336], 0
$LN3@CloseInsta:

; 280  : 	}
; 281  : 
; 282  : 	return true;

  00078	b0 01		 mov	 al, 1

; 283  : }

  0007a	5f		 pop	 edi
  0007b	5e		 pop	 esi
  0007c	5b		 pop	 ebx
  0007d	8b e5		 mov	 esp, ebp
  0007f	5d		 pop	 ebp
  00080	c3		 ret	 0
?CloseInstance@?$CTempldateHelper@UITimerEngine@@@@QAE_NXZ ENDP ; CTempldateHelper<ITimerEngine>::CloseInstance
_TEXT	ENDS
; Function compile flags: /Odtp /ZI
; File g:\网狐\happygamewh\服务端\系统模块\全局定义\module.h
;	COMDAT ??1?$CTempldateHelper@UITimerEngine@@@@UAE@XZ
_TEXT	SEGMENT
_this$ = -16						; size = 4
__$EHRec$ = -12						; size = 12
??1?$CTempldateHelper@UITimerEngine@@@@UAE@XZ PROC	; CTempldateHelper<ITimerEngine>::~CTempldateHelper<ITimerEngine>, COMDAT
; _this$ = ecx

; 205  : {

  00000	55		 push	 ebp
  00001	8b ec		 mov	 ebp, esp
  00003	6a ff		 push	 -1
  00005	68 00 00 00 00	 push	 __ehhandler$??1?$CTempldateHelper@UITimerEngine@@@@UAE@XZ
  0000a	64 a1 00 00 00
	00		 mov	 eax, DWORD PTR fs:0
  00010	50		 push	 eax
  00011	83 ec 44	 sub	 esp, 68			; 00000044H
  00014	53		 push	 ebx
  00015	56		 push	 esi
  00016	57		 push	 edi
  00017	a1 00 00 00 00	 mov	 eax, DWORD PTR ___security_cookie
  0001c	33 c5		 xor	 eax, ebp
  0001e	50		 push	 eax
  0001f	8d 45 f4	 lea	 eax, DWORD PTR __$EHRec$[ebp]
  00022	64 a3 00 00 00
	00		 mov	 DWORD PTR fs:0, eax
  00028	89 4d f0	 mov	 DWORD PTR _this$[ebp], ecx
  0002b	8b 45 f0	 mov	 eax, DWORD PTR _this$[ebp]
  0002e	c7 00 00 00 00
	00		 mov	 DWORD PTR [eax], OFFSET ??_7?$CTempldateHelper@UITimerEngine@@@@6B@

; 206  : 	CloseInstance();

  00034	8b 4d f0	 mov	 ecx, DWORD PTR _this$[ebp]
  00037	e8 00 00 00 00	 call	 ?CloseInstance@?$CTempldateHelper@UITimerEngine@@@@QAE_NXZ ; CTempldateHelper<ITimerEngine>::CloseInstance

; 207  : }

  0003c	8b 4d f4	 mov	 ecx, DWORD PTR __$EHRec$[ebp]
  0003f	64 89 0d 00 00
	00 00		 mov	 DWORD PTR fs:0, ecx
  00046	59		 pop	 ecx
  00047	5f		 pop	 edi
  00048	5e		 pop	 esi
  00049	5b		 pop	 ebx
  0004a	8b e5		 mov	 esp, ebp
  0004c	5d		 pop	 ebp
  0004d	c3		 ret	 0
_TEXT	ENDS
;	COMDAT text$x
text$x	SEGMENT
__ehhandler$??1?$CTempldateHelper@UITimerEngine@@@@UAE@XZ:
  00000	8b 54 24 08	 mov	 edx, DWORD PTR [esp+8]
  00004	8d 42 0c	 lea	 eax, DWORD PTR [edx+12]
  00007	8b 4a ac	 mov	 ecx, DWORD PTR [edx-84]
  0000a	33 c8		 xor	 ecx, eax
  0000c	e8 00 00 00 00	 call	 @__security_check_cookie@4
  00011	b8 00 00 00 00	 mov	 eax, OFFSET __ehfuncinfo$??1?$CTempldateHelper@UITimerEngine@@@@UAE@XZ
  00016	e9 00 00 00 00	 jmp	 ___CxxFrameHandler3
text$x	ENDS
??1?$CTempldateHelper@UITimerEngine@@@@UAE@XZ ENDP	; CTempldateHelper<ITimerEngine>::~CTempldateHelper<ITimerEngine>
; Function compile flags: /Odtp /ZI
; File g:\网狐\happygamewh\服务端\系统模块\全局定义\module.h
;	COMDAT ??0?$CTempldateHelper@UITimerEngine@@@@QAE@ABU_GUID@@KPBD1@Z
_TEXT	SEGMENT
_this$ = -4						; size = 4
_Guid$ = 8						; size = 4
_dwVersion$ = 12					; size = 4
_pszModuleDll$ = 16					; size = 4
_pszCreateProc$ = 20					; size = 4
??0?$CTempldateHelper@UITimerEngine@@@@QAE@ABU_GUID@@KPBD1@Z PROC ; CTempldateHelper<ITimerEngine>::CTempldateHelper<ITimerEngine>, COMDAT
; _this$ = ecx

; 187  : {

  00000	55		 push	 ebp
  00001	8b ec		 mov	 ebp, esp
  00003	83 ec 44	 sub	 esp, 68			; 00000044H
  00006	53		 push	 ebx
  00007	56		 push	 esi
  00008	57		 push	 edi
  00009	89 4d fc	 mov	 DWORD PTR _this$[ebp], ecx
  0000c	8b 45 fc	 mov	 eax, DWORD PTR _this$[ebp]
  0000f	c7 00 00 00 00
	00		 mov	 DWORD PTR [eax], OFFSET ??_7?$CTempldateHelper@UITimerEngine@@@@6B@

; 186  : CTempldateHelper<IModeluInterface>::CTempldateHelper(REFGUID Guid, DWORD dwVersion, LPCTSTR pszModuleDll, LPCSTR pszCreateProc) : m_dwVersion(dwVersion), m_Guid(Guid)

  00015	8b 45 fc	 mov	 eax, DWORD PTR _this$[ebp]
  00018	8b 4d 08	 mov	 ecx, DWORD PTR _Guid$[ebp]
  0001b	89 48 04	 mov	 DWORD PTR [eax+4], ecx
  0001e	8b 45 fc	 mov	 eax, DWORD PTR _this$[ebp]
  00021	8b 4d 0c	 mov	 ecx, DWORD PTR _dwVersion$[ebp]
  00024	89 48 08	 mov	 DWORD PTR [eax+8], ecx

; 188  : 	//辅助变量
; 189  : 	m_szDescribe[0]=0;

  00027	b8 01 00 00 00	 mov	 eax, 1
  0002c	6b c8 00	 imul	 ecx, eax, 0
  0002f	8b 55 fc	 mov	 edx, DWORD PTR _this$[ebp]
  00032	c6 84 0a 58 01
	00 00 00	 mov	 BYTE PTR [edx+ecx+344], 0

; 190  : 
; 191  : 	//内核信息
; 192  : 	m_hDllInstance=NULL;

  0003a	8b 45 fc	 mov	 eax, DWORD PTR _this$[ebp]
  0003d	c7 80 50 01 00
	00 00 00 00 00	 mov	 DWORD PTR [eax+336], 0

; 193  : 	m_pIModeluInterface=NULL;

  00047	8b 45 fc	 mov	 eax, DWORD PTR _this$[ebp]
  0004a	c7 80 54 01 00
	00 00 00 00 00	 mov	 DWORD PTR [eax+340], 0

; 194  : 
; 195  : 	//组件属性
; 196  : 	lstrcpynA(m_szCreateProc,pszCreateProc,CountArray(m_szCreateProc));

  00054	6a 40		 push	 64			; 00000040H
  00056	8b 45 14	 mov	 eax, DWORD PTR _pszCreateProc$[ebp]
  00059	50		 push	 eax
  0005a	8b 4d fc	 mov	 ecx, DWORD PTR _this$[ebp]
  0005d	83 c1 0c	 add	 ecx, 12			; 0000000cH
  00060	51		 push	 ecx
  00061	ff 15 00 00 00
	00		 call	 DWORD PTR __imp__lstrcpynA@12

; 197  : 	lstrcpyn(m_szModuleDllName,pszModuleDll,CountArray(m_szModuleDllName));

  00067	68 04 01 00 00	 push	 260			; 00000104H
  0006c	8b 45 10	 mov	 eax, DWORD PTR _pszModuleDll$[ebp]
  0006f	50		 push	 eax
  00070	8b 4d fc	 mov	 ecx, DWORD PTR _this$[ebp]
  00073	83 c1 4c	 add	 ecx, 76			; 0000004cH
  00076	51		 push	 ecx
  00077	ff 15 00 00 00
	00		 call	 DWORD PTR __imp__lstrcpynA@12

; 198  : 
; 199  : 	return;
; 200  : }

  0007d	8b 45 fc	 mov	 eax, DWORD PTR _this$[ebp]
  00080	5f		 pop	 edi
  00081	5e		 pop	 esi
  00082	5b		 pop	 ebx
  00083	8b e5		 mov	 esp, ebp
  00085	5d		 pop	 ebp
  00086	c2 10 00	 ret	 16			; 00000010H
??0?$CTempldateHelper@UITimerEngine@@@@QAE@ABU_GUID@@KPBD1@Z ENDP ; CTempldateHelper<ITimerEngine>::CTempldateHelper<ITimerEngine>
_TEXT	ENDS
; Function compile flags: /Odtp /ZI
; File c:\program files (x86)\microsoft visual studio\2017\community\vc\tools\msvc\14.16.27023\atlmfc\include\atltrace.h
;	COMDAT ?RegisterCategory@CTrace@ATL@@SAXPBDI@Z
_TEXT	SEGMENT
_buffer$ = -260						; size = 256
__$ArrayPad$ = -4					; size = 4
_pszCategory$ = 8					; size = 4
_nCategory$ = 12					; size = 4
?RegisterCategory@CTrace@ATL@@SAXPBDI@Z PROC		; ATL::CTrace::RegisterCategory, COMDAT

; 329  : 	{

  00000	55		 push	 ebp
  00001	8b ec		 mov	 ebp, esp
  00003	81 ec 44 01 00
	00		 sub	 esp, 324		; 00000144H
  00009	a1 00 00 00 00	 mov	 eax, DWORD PTR ___security_cookie
  0000e	33 c5		 xor	 eax, ebp
  00010	89 45 fc	 mov	 DWORD PTR __$ArrayPad$[ebp], eax
  00013	53		 push	 ebx
  00014	56		 push	 esi
  00015	57		 push	 edi

; 330  : 		if (pszCategory == nullptr)

  00016	83 7d 08 00	 cmp	 DWORD PTR _pszCategory$[ebp], 0
  0001a	75 05		 jne	 SHORT $LN2@RegisterCa

; 331  : 		{
; 332  : 			return;

  0001c	e9 a9 00 00 00	 jmp	 $LN1@RegisterCa
$LN2@RegisterCa:

; 333  : 		}
; 334  : 
; 335  : 		if (m_nLastCategory >= MaxCategoryArray) 

  00021	83 3d 00 00 00
	00 20		 cmp	 DWORD PTR ?m_nLastCategory@CTrace@ATL@@1IA, 32 ; ATL::CTrace::m_nLastCategory, 00000020H
  00028	72 2d		 jb	 SHORT $LN3@RegisterCa

; 336  : 		{
; 337  : 			ATLASSERT(false && "Too many categories defined");

  0002a	33 c0		 xor	 eax, eax
  0002c	75 27		 jne	 SHORT $LN5@RegisterCa
  0002e	68 00 00 00 00	 push	 OFFSET ??_C@_1EO@EBPPKGOM@?$AAf?$AAa?$AAl?$AAs?$AAe?$AA?5?$AA?$CG?$AA?$CG?$AA?5?$AA?$CC?$AAT?$AAo?$AAo?$AA?5?$AAm@
  00033	68 00 00 00 00	 push	 OFFSET ??_C@_17CNPHIMPH@?$AA?$CF?$AAl?$AAs@
  00038	6a 00		 push	 0
  0003a	68 51 01 00 00	 push	 337			; 00000151H
  0003f	68 00 00 00 00	 push	 OFFSET ??_C@_1OE@PDFAMNPL@?$AAc?$AA?3?$AA?2?$AAp?$AAr?$AAo?$AAg?$AAr?$AAa?$AAm?$AA?5?$AAf?$AAi?$AAl?$AAe@
  00044	6a 02		 push	 2
  00046	ff 15 00 00 00
	00		 call	 DWORD PTR __imp___CrtDbgReportW
  0004c	83 c4 18	 add	 esp, 24			; 00000018H
  0004f	83 f8 01	 cmp	 eax, 1
  00052	75 01		 jne	 SHORT $LN5@RegisterCa
  00054	cc		 int	 3
$LN5@RegisterCa:

; 338  : 			return;

  00055	eb 73		 jmp	 SHORT $LN1@RegisterCa
$LN3@RegisterCa:

; 339  : 		}
; 340  : 
; 341  : 		m_nMap[m_nLastCategory].nCategory = nCategory;

  00057	69 05 00 00 00
	00 04 01 00 00	 imul	 eax, DWORD PTR ?m_nLastCategory@CTrace@ATL@@1IA, 260 ; ATL::CTrace::m_nLastCategory
  00061	8b 4d 0c	 mov	 ecx, DWORD PTR _nCategory$[ebp]
  00064	89 88 00 00 00
	00		 mov	 DWORD PTR ?m_nMap@CTrace@ATL@@1PAUCategoryMap@12@A[eax], ecx

; 342  : #ifdef _UNICODE
; 343  : 		wcscpy_s(m_nMap[m_nLastCategory].categryName, MaxLengthOfCategoryName - 1, pszCategory);
; 344  : #else
; 345  : 		wchar_t buffer[MaxLengthOfCategoryName] = { 0 };	

  0006a	68 00 01 00 00	 push	 256			; 00000100H
  0006f	6a 00		 push	 0
  00071	8d 85 fc fe ff
	ff		 lea	 eax, DWORD PTR _buffer$[ebp]
  00077	50		 push	 eax
  00078	e8 00 00 00 00	 call	 _memset
  0007d	83 c4 0c	 add	 esp, 12			; 0000000cH

; 346  : #if _MSC_VER < 1900
; 347  : 		swprintf_s(buffer, MaxLengthOfCategoryName - 1, L"%S", pszCategory);
; 348  : #else
; 349  : 		swprintf_s(buffer, MaxLengthOfCategoryName - 1, L"%hs", pszCategory);

  00080	8b 45 08	 mov	 eax, DWORD PTR _pszCategory$[ebp]
  00083	50		 push	 eax
  00084	68 00 00 00 00	 push	 OFFSET ??_C@_17LGGGMOOB@?$AA?$CF?$AAh?$AAs@
  00089	6a 7f		 push	 127			; 0000007fH
  0008b	8d 8d fc fe ff
	ff		 lea	 ecx, DWORD PTR _buffer$[ebp]
  00091	51		 push	 ecx
  00092	e8 00 00 00 00	 call	 _swprintf_s
  00097	83 c4 10	 add	 esp, 16			; 00000010H

; 350  : #endif
; 351  : 		wcscpy_s(m_nMap[m_nLastCategory].categryName, MaxLengthOfCategoryName - 1, buffer);

  0009a	8d 85 fc fe ff
	ff		 lea	 eax, DWORD PTR _buffer$[ebp]
  000a0	50		 push	 eax
  000a1	6a 7f		 push	 127			; 0000007fH
  000a3	69 0d 00 00 00
	00 04 01 00 00	 imul	 ecx, DWORD PTR ?m_nLastCategory@CTrace@ATL@@1IA, 260 ; ATL::CTrace::m_nLastCategory
  000ad	81 c1 04 00 00
	00		 add	 ecx, OFFSET ?m_nMap@CTrace@ATL@@1PAUCategoryMap@12@A+4
  000b3	51		 push	 ecx
  000b4	ff 15 00 00 00
	00		 call	 DWORD PTR __imp__wcscpy_s
  000ba	83 c4 0c	 add	 esp, 12			; 0000000cH

; 352  : #endif
; 353  : 	
; 354  : 		m_nLastCategory++;

  000bd	a1 00 00 00 00	 mov	 eax, DWORD PTR ?m_nLastCategory@CTrace@ATL@@1IA ; ATL::CTrace::m_nLastCategory
  000c2	83 c0 01	 add	 eax, 1
  000c5	a3 00 00 00 00	 mov	 DWORD PTR ?m_nLastCategory@CTrace@ATL@@1IA, eax ; ATL::CTrace::m_nLastCategory
$LN1@RegisterCa:

; 355  : 	}

  000ca	5f		 pop	 edi
  000cb	5e		 pop	 esi
  000cc	5b		 pop	 ebx
  000cd	8b 4d fc	 mov	 ecx, DWORD PTR __$ArrayPad$[ebp]
  000d0	33 cd		 xor	 ecx, ebp
  000d2	e8 00 00 00 00	 call	 @__security_check_cookie@4
  000d7	8b e5		 mov	 esp, ebp
  000d9	5d		 pop	 ebp
  000da	c3		 ret	 0
?RegisterCategory@CTrace@ATL@@SAXPBDI@Z ENDP		; ATL::CTrace::RegisterCategory
_TEXT	ENDS
; Function compile flags: /Odtp /ZI
; File c:\program files (x86)\microsoft visual studio\2017\community\vc\tools\msvc\14.16.27023\atlmfc\include\atltrace.h
;	COMDAT ??__EatlTraceString@ATL@@YAXXZ
text$di	SEGMENT
??__EatlTraceString@ATL@@YAXXZ PROC			; ATL::`dynamic initializer for 'atlTraceString'', COMDAT

; 114  : __declspec(selectany) CTraceCategoryEx<CTraceCategoryEx<>::TraceString> atlTraceString(_T("atlTraceString"));

  00000	55		 push	 ebp
  00001	8b ec		 mov	 ebp, esp
  00003	83 ec 40	 sub	 esp, 64			; 00000040H
  00006	53		 push	 ebx
  00007	56		 push	 esi
  00008	57		 push	 edi
  00009	68 00 00 00 00	 push	 OFFSET ??_C@_0P@MBNHGHMI@atlTraceString@
  0000e	b9 00 00 00 00	 mov	 ecx, OFFSET ?atlTraceString@ATL@@3V?$CTraceCategoryEx@$0CAAAA@$0A@@1@A ; ATL::atlTraceString
  00013	e8 00 00 00 00	 call	 ??0?$CTraceCategoryEx@$0CAAAA@$0A@@ATL@@QAE@PBD@Z ; ATL::CTraceCategoryEx<131072,0>::CTraceCategoryEx<131072,0>
  00018	5f		 pop	 edi
  00019	5e		 pop	 esi
  0001a	5b		 pop	 ebx
  0001b	8b e5		 mov	 esp, ebp
  0001d	5d		 pop	 ebp
  0001e	c3		 ret	 0
??__EatlTraceString@ATL@@YAXXZ ENDP			; ATL::`dynamic initializer for 'atlTraceString''
text$di	ENDS
; Function compile flags: /Odtp /ZI
; File c:\program files (x86)\microsoft visual studio\2017\community\vc\tools\msvc\14.16.27023\atlmfc\include\atltrace.h
;	COMDAT ??0?$CTraceCategoryEx@$0CAAAA@$0A@@ATL@@QAE@PBD@Z
_TEXT	SEGMENT
_this$ = -4						; size = 4
_pszCategoryName$ = 8					; size = 4
??0?$CTraceCategoryEx@$0CAAAA@$0A@@ATL@@QAE@PBD@Z PROC	; ATL::CTraceCategoryEx<131072,0>::CTraceCategoryEx<131072,0>, COMDAT
; _this$ = ecx

; 480  : {

  00000	55		 push	 ebp
  00001	8b ec		 mov	 ebp, esp
  00003	83 ec 44	 sub	 esp, 68			; 00000044H
  00006	53		 push	 ebx
  00007	56		 push	 esi
  00008	57		 push	 edi
  00009	89 4d fc	 mov	 DWORD PTR _this$[ebp], ecx

; 481  : 	CTrace::RegisterCategory(pszCategoryName, traceCategory);

  0000c	68 00 00 02 00	 push	 131072			; 00020000H
  00011	8b 45 08	 mov	 eax, DWORD PTR _pszCategoryName$[ebp]
  00014	50		 push	 eax
  00015	e8 00 00 00 00	 call	 ?RegisterCategory@CTrace@ATL@@SAXPBDI@Z ; ATL::CTrace::RegisterCategory
  0001a	83 c4 08	 add	 esp, 8

; 482  : }

  0001d	8b 45 fc	 mov	 eax, DWORD PTR _this$[ebp]
  00020	5f		 pop	 edi
  00021	5e		 pop	 esi
  00022	5b		 pop	 ebx
  00023	8b e5		 mov	 esp, ebp
  00025	5d		 pop	 ebp
  00026	c2 04 00	 ret	 4
??0?$CTraceCategoryEx@$0CAAAA@$0A@@ATL@@QAE@PBD@Z ENDP	; ATL::CTraceCategoryEx<131072,0>::CTraceCategoryEx<131072,0>
_TEXT	ENDS
; Function compile flags: /Odtp /ZI
; File c:\program files (x86)\microsoft visual studio\2017\community\vc\tools\msvc\14.16.27023\atlmfc\include\atltrace.h
;	COMDAT ??__EatlTraceException@ATL@@YAXXZ
text$di	SEGMENT
??__EatlTraceException@ATL@@YAXXZ PROC			; ATL::`dynamic initializer for 'atlTraceException'', COMDAT

; 110  : __declspec(selectany) CTraceCategoryEx<CTraceCategoryEx<>::TraceException> atlTraceException(_T("atlTraceException"));

  00000	55		 push	 ebp
  00001	8b ec		 mov	 ebp, esp
  00003	83 ec 40	 sub	 esp, 64			; 00000040H
  00006	53		 push	 ebx
  00007	56		 push	 esi
  00008	57		 push	 edi
  00009	68 00 00 00 00	 push	 OFFSET ??_C@_0BC@PGMFNIFA@atlTraceException@
  0000e	b9 00 00 00 00	 mov	 ecx, OFFSET ?atlTraceException@ATL@@3V?$CTraceCategoryEx@$0CAAA@$0A@@1@A ; ATL::atlTraceException
  00013	e8 00 00 00 00	 call	 ??0?$CTraceCategoryEx@$0CAAA@$0A@@ATL@@QAE@PBD@Z ; ATL::CTraceCategoryEx<8192,0>::CTraceCategoryEx<8192,0>
  00018	5f		 pop	 edi
  00019	5e		 pop	 esi
  0001a	5b		 pop	 ebx
  0001b	8b e5		 mov	 esp, ebp
  0001d	5d		 pop	 ebp
  0001e	c3		 ret	 0
??__EatlTraceException@ATL@@YAXXZ ENDP			; ATL::`dynamic initializer for 'atlTraceException''
text$di	ENDS
; Function compile flags: /Odtp /ZI
; File c:\program files (x86)\microsoft visual studio\2017\community\vc\tools\msvc\14.16.27023\atlmfc\include\atltrace.h
;	COMDAT ??0?$CTraceCategoryEx@$0CAAA@$0A@@ATL@@QAE@PBD@Z
_TEXT	SEGMENT
_this$ = -4						; size = 4
_pszCategoryName$ = 8					; size = 4
??0?$CTraceCategoryEx@$0CAAA@$0A@@ATL@@QAE@PBD@Z PROC	; ATL::CTraceCategoryEx<8192,0>::CTraceCategoryEx<8192,0>, COMDAT
; _this$ = ecx

; 480  : {

  00000	55		 push	 ebp
  00001	8b ec		 mov	 ebp, esp
  00003	83 ec 44	 sub	 esp, 68			; 00000044H
  00006	53		 push	 ebx
  00007	56		 push	 esi
  00008	57		 push	 edi
  00009	89 4d fc	 mov	 DWORD PTR _this$[ebp], ecx

; 481  : 	CTrace::RegisterCategory(pszCategoryName, traceCategory);

  0000c	68 00 20 00 00	 push	 8192			; 00002000H
  00011	8b 45 08	 mov	 eax, DWORD PTR _pszCategoryName$[ebp]
  00014	50		 push	 eax
  00015	e8 00 00 00 00	 call	 ?RegisterCategory@CTrace@ATL@@SAXPBDI@Z ; ATL::CTrace::RegisterCategory
  0001a	83 c4 08	 add	 esp, 8

; 482  : }

  0001d	8b 45 fc	 mov	 eax, DWORD PTR _this$[ebp]
  00020	5f		 pop	 edi
  00021	5e		 pop	 esi
  00022	5b		 pop	 ebx
  00023	8b e5		 mov	 esp, ebp
  00025	5d		 pop	 ebp
  00026	c2 04 00	 ret	 4
??0?$CTraceCategoryEx@$0CAAA@$0A@@ATL@@QAE@PBD@Z ENDP	; ATL::CTraceCategoryEx<8192,0>::CTraceCategoryEx<8192,0>
_TEXT	ENDS
; Function compile flags: /Odtp /ZI
; File c:\program files (x86)\microsoft visual studio\2017\community\vc\tools\msvc\14.16.27023\atlmfc\include\afx.h
;	COMDAT ?AfxAssertFailedLine@@YGHPBDH@Z
_TEXT	SEGMENT
_bResult$ = -36						; size = 4
_bQuit$ = -32						; size = 4
_msg$ = -28						; size = 28
_lpszFileName$ = 8					; size = 4
_nLine$ = 12						; size = 4
?AfxAssertFailedLine@@YGHPBDH@Z PROC			; AfxAssertFailedLine, COMDAT

; 312  : {

  00000	55		 push	 ebp
  00001	8b ec		 mov	 ebp, esp
  00003	83 ec 64	 sub	 esp, 100		; 00000064H
  00006	53		 push	 ebx
  00007	56		 push	 esi
  00008	57		 push	 edi

; 313  : 	// we remove WM_QUIT because if it is in the queue then the message box
; 314  : 	// won't display
; 315  : 	MSG msg;
; 316  : 	BOOL bQuit = PeekMessage(&msg, NULL, WM_QUIT, WM_QUIT, PM_REMOVE);

  00009	6a 01		 push	 1
  0000b	6a 12		 push	 18			; 00000012H
  0000d	6a 12		 push	 18			; 00000012H
  0000f	6a 00		 push	 0
  00011	8d 45 e4	 lea	 eax, DWORD PTR _msg$[ebp]
  00014	50		 push	 eax
  00015	ff 15 00 00 00
	00		 call	 DWORD PTR __imp__PeekMessageA@20
  0001b	89 45 e0	 mov	 DWORD PTR _bQuit$[ebp], eax

; 317  : 	BOOL bResult = _CrtDbgReport(_CRT_ASSERT, lpszFileName, nLine, NULL, NULL);

  0001e	6a 00		 push	 0
  00020	6a 00		 push	 0
  00022	8b 45 0c	 mov	 eax, DWORD PTR _nLine$[ebp]
  00025	50		 push	 eax
  00026	8b 4d 08	 mov	 ecx, DWORD PTR _lpszFileName$[ebp]
  00029	51		 push	 ecx
  0002a	6a 02		 push	 2
  0002c	ff 15 00 00 00
	00		 call	 DWORD PTR __imp___CrtDbgReport
  00032	83 c4 14	 add	 esp, 20			; 00000014H
  00035	89 45 dc	 mov	 DWORD PTR _bResult$[ebp], eax

; 318  : 	if (bQuit)

  00038	83 7d e0 00	 cmp	 DWORD PTR _bQuit$[ebp], 0
  0003c	74 0a		 je	 SHORT $LN2@AfxAssertF

; 319  : 		PostQuitMessage((int)msg.wParam);

  0003e	8b 45 ec	 mov	 eax, DWORD PTR _msg$[ebp+8]
  00041	50		 push	 eax
  00042	ff 15 00 00 00
	00		 call	 DWORD PTR __imp__PostQuitMessage@4
$LN2@AfxAssertF:

; 320  : 	return bResult;

  00048	8b 45 dc	 mov	 eax, DWORD PTR _bResult$[ebp]

; 321  : }

  0004b	5f		 pop	 edi
  0004c	5e		 pop	 esi
  0004d	5b		 pop	 ebx
  0004e	8b e5		 mov	 esp, ebp
  00050	5d		 pop	 ebp
  00051	c2 08 00	 ret	 8
?AfxAssertFailedLine@@YGHPBDH@Z ENDP			; AfxAssertFailedLine
_TEXT	ENDS
; Function compile flags: /Odtp /ZI
; File c:\program files (x86)\windows kits\10\include\10.0.17763.0\ucrt\stdio.h
;	COMDAT __vsnprintf_s
_TEXT	SEGMENT
__Buffer$ = 8						; size = 4
__BufferCount$ = 12					; size = 4
__MaxCount$ = 16					; size = 4
__Format$ = 20						; size = 4
__ArgList$ = 24						; size = 4
__vsnprintf_s PROC					; COMDAT

; 1605 :     {

  00000	55		 push	 ebp
  00001	8b ec		 mov	 ebp, esp
  00003	83 ec 40	 sub	 esp, 64			; 00000040H
  00006	53		 push	 ebx
  00007	56		 push	 esi
  00008	57		 push	 edi

; 1606 :         return _vsnprintf_s_l(_Buffer, _BufferCount, _MaxCount, _Format, NULL, _ArgList);

  00009	8b 45 18	 mov	 eax, DWORD PTR __ArgList$[ebp]
  0000c	50		 push	 eax
  0000d	6a 00		 push	 0
  0000f	8b 4d 14	 mov	 ecx, DWORD PTR __Format$[ebp]
  00012	51		 push	 ecx
  00013	8b 55 10	 mov	 edx, DWORD PTR __MaxCount$[ebp]
  00016	52		 push	 edx
  00017	8b 45 0c	 mov	 eax, DWORD PTR __BufferCount$[ebp]
  0001a	50		 push	 eax
  0001b	8b 4d 08	 mov	 ecx, DWORD PTR __Buffer$[ebp]
  0001e	51		 push	 ecx
  0001f	e8 00 00 00 00	 call	 __vsnprintf_s_l
  00024	83 c4 18	 add	 esp, 24			; 00000018H

; 1607 :     }

  00027	5f		 pop	 edi
  00028	5e		 pop	 esi
  00029	5b		 pop	 ebx
  0002a	8b e5		 mov	 esp, ebp
  0002c	5d		 pop	 ebp
  0002d	c3		 ret	 0
__vsnprintf_s ENDP
_TEXT	ENDS
; Function compile flags: /Odtp /ZI
; File c:\program files (x86)\windows kits\10\include\10.0.17763.0\ucrt\stdio.h
;	COMDAT __vsnprintf_s_l
_TEXT	SEGMENT
tv74 = -72						; size = 4
__Result$ = -4						; size = 4
__Buffer$ = 8						; size = 4
__BufferCount$ = 12					; size = 4
__MaxCount$ = 16					; size = 4
__Format$ = 20						; size = 4
__Locale$ = 24						; size = 4
__ArgList$ = 28						; size = 4
__vsnprintf_s_l PROC					; COMDAT

; 1584 :     {

  00000	55		 push	 ebp
  00001	8b ec		 mov	 ebp, esp
  00003	83 ec 48	 sub	 esp, 72			; 00000048H
  00006	53		 push	 ebx
  00007	56		 push	 esi
  00008	57		 push	 edi

; 1585 :         int const _Result = __stdio_common_vsnprintf_s(

  00009	8b 45 1c	 mov	 eax, DWORD PTR __ArgList$[ebp]
  0000c	50		 push	 eax
  0000d	8b 4d 18	 mov	 ecx, DWORD PTR __Locale$[ebp]
  00010	51		 push	 ecx
  00011	8b 55 14	 mov	 edx, DWORD PTR __Format$[ebp]
  00014	52		 push	 edx
  00015	8b 45 10	 mov	 eax, DWORD PTR __MaxCount$[ebp]
  00018	50		 push	 eax
  00019	8b 4d 0c	 mov	 ecx, DWORD PTR __BufferCount$[ebp]
  0001c	51		 push	 ecx
  0001d	8b 55 08	 mov	 edx, DWORD PTR __Buffer$[ebp]
  00020	52		 push	 edx
  00021	e8 00 00 00 00	 call	 ___local_stdio_printf_options
  00026	8b 48 04	 mov	 ecx, DWORD PTR [eax+4]
  00029	51		 push	 ecx
  0002a	8b 10		 mov	 edx, DWORD PTR [eax]
  0002c	52		 push	 edx
  0002d	ff 15 00 00 00
	00		 call	 DWORD PTR __imp____stdio_common_vsnprintf_s
  00033	83 c4 20	 add	 esp, 32			; 00000020H
  00036	89 45 fc	 mov	 DWORD PTR __Result$[ebp], eax

; 1586 :             _CRT_INTERNAL_LOCAL_PRINTF_OPTIONS,
; 1587 :             _Buffer, _BufferCount, _MaxCount, _Format, _Locale, _ArgList);
; 1588 : 
; 1589 :         return _Result < 0 ? -1 : _Result;

  00039	83 7d fc 00	 cmp	 DWORD PTR __Result$[ebp], 0
  0003d	7d 09		 jge	 SHORT $LN3@vsnprintf_
  0003f	c7 45 b8 ff ff
	ff ff		 mov	 DWORD PTR tv74[ebp], -1
  00046	eb 06		 jmp	 SHORT $LN4@vsnprintf_
$LN3@vsnprintf_:
  00048	8b 45 fc	 mov	 eax, DWORD PTR __Result$[ebp]
  0004b	89 45 b8	 mov	 DWORD PTR tv74[ebp], eax
$LN4@vsnprintf_:
  0004e	8b 45 b8	 mov	 eax, DWORD PTR tv74[ebp]

; 1590 :     }

  00051	5f		 pop	 edi
  00052	5e		 pop	 esi
  00053	5b		 pop	 ebx
  00054	8b e5		 mov	 esp, ebp
  00056	5d		 pop	 ebp
  00057	c3		 ret	 0
__vsnprintf_s_l ENDP
_TEXT	ENDS
; Function compile flags: /Odtp /ZI
; File c:\program files (x86)\windows kits\10\include\10.0.17763.0\ucrt\corecrt_wstdio.h
;	COMDAT _swprintf_s
_TEXT	SEGMENT
__ArgList$ = -8						; size = 4
__Result$ = -4						; size = 4
__Buffer$ = 8						; size = 4
__BufferCount$ = 12					; size = 4
__Format$ = 16						; size = 4
_swprintf_s PROC					; COMDAT

; 1538 :         {

  00000	55		 push	 ebp
  00001	8b ec		 mov	 ebp, esp
  00003	83 ec 4c	 sub	 esp, 76			; 0000004cH
  00006	53		 push	 ebx
  00007	56		 push	 esi
  00008	57		 push	 edi

; 1539 :             int _Result;
; 1540 :             va_list _ArgList;
; 1541 :             __crt_va_start(_ArgList, _Format);

  00009	8d 45 14	 lea	 eax, DWORD PTR __Format$[ebp+4]
  0000c	89 45 f8	 mov	 DWORD PTR __ArgList$[ebp], eax

; 1542 :             _Result = _vswprintf_s_l(_Buffer, _BufferCount, _Format, NULL, _ArgList);

  0000f	8b 45 f8	 mov	 eax, DWORD PTR __ArgList$[ebp]
  00012	50		 push	 eax
  00013	6a 00		 push	 0
  00015	8b 4d 10	 mov	 ecx, DWORD PTR __Format$[ebp]
  00018	51		 push	 ecx
  00019	8b 55 0c	 mov	 edx, DWORD PTR __BufferCount$[ebp]
  0001c	52		 push	 edx
  0001d	8b 45 08	 mov	 eax, DWORD PTR __Buffer$[ebp]
  00020	50		 push	 eax
  00021	e8 00 00 00 00	 call	 __vswprintf_s_l
  00026	83 c4 14	 add	 esp, 20			; 00000014H
  00029	89 45 fc	 mov	 DWORD PTR __Result$[ebp], eax

; 1543 :             __crt_va_end(_ArgList);

  0002c	c7 45 f8 00 00
	00 00		 mov	 DWORD PTR __ArgList$[ebp], 0

; 1544 :             return _Result;

  00033	8b 45 fc	 mov	 eax, DWORD PTR __Result$[ebp]

; 1545 :         }

  00036	5f		 pop	 edi
  00037	5e		 pop	 esi
  00038	5b		 pop	 ebx
  00039	8b e5		 mov	 esp, ebp
  0003b	5d		 pop	 ebp
  0003c	c3		 ret	 0
_swprintf_s ENDP
_TEXT	ENDS
; Function compile flags: /Odtp /ZI
; File c:\program files (x86)\windows kits\10\include\10.0.17763.0\ucrt\corecrt_wstdio.h
;	COMDAT __vswprintf_s_l
_TEXT	SEGMENT
tv73 = -72						; size = 4
__Result$ = -4						; size = 4
__Buffer$ = 8						; size = 4
__BufferCount$ = 12					; size = 4
__Format$ = 16						; size = 4
__Locale$ = 20						; size = 4
__ArgList$ = 24						; size = 4
__vswprintf_s_l PROC					; COMDAT

; 1264 :     {

  00000	55		 push	 ebp
  00001	8b ec		 mov	 ebp, esp
  00003	83 ec 48	 sub	 esp, 72			; 00000048H
  00006	53		 push	 ebx
  00007	56		 push	 esi
  00008	57		 push	 edi

; 1265 :         int const _Result = __stdio_common_vswprintf_s(

  00009	8b 45 18	 mov	 eax, DWORD PTR __ArgList$[ebp]
  0000c	50		 push	 eax
  0000d	8b 4d 14	 mov	 ecx, DWORD PTR __Locale$[ebp]
  00010	51		 push	 ecx
  00011	8b 55 10	 mov	 edx, DWORD PTR __Format$[ebp]
  00014	52		 push	 edx
  00015	8b 45 0c	 mov	 eax, DWORD PTR __BufferCount$[ebp]
  00018	50		 push	 eax
  00019	8b 4d 08	 mov	 ecx, DWORD PTR __Buffer$[ebp]
  0001c	51		 push	 ecx
  0001d	e8 00 00 00 00	 call	 ___local_stdio_printf_options
  00022	8b 50 04	 mov	 edx, DWORD PTR [eax+4]
  00025	52		 push	 edx
  00026	8b 00		 mov	 eax, DWORD PTR [eax]
  00028	50		 push	 eax
  00029	ff 15 00 00 00
	00		 call	 DWORD PTR __imp____stdio_common_vswprintf_s
  0002f	83 c4 1c	 add	 esp, 28			; 0000001cH
  00032	89 45 fc	 mov	 DWORD PTR __Result$[ebp], eax

; 1266 :             _CRT_INTERNAL_LOCAL_PRINTF_OPTIONS,
; 1267 :             _Buffer, _BufferCount, _Format, _Locale, _ArgList);
; 1268 : 
; 1269 :         return _Result < 0 ? -1 : _Result;

  00035	83 7d fc 00	 cmp	 DWORD PTR __Result$[ebp], 0
  00039	7d 09		 jge	 SHORT $LN3@vswprintf_
  0003b	c7 45 b8 ff ff
	ff ff		 mov	 DWORD PTR tv73[ebp], -1
  00042	eb 06		 jmp	 SHORT $LN4@vswprintf_
$LN3@vswprintf_:
  00044	8b 45 fc	 mov	 eax, DWORD PTR __Result$[ebp]
  00047	89 45 b8	 mov	 DWORD PTR tv73[ebp], eax
$LN4@vswprintf_:
  0004a	8b 45 b8	 mov	 eax, DWORD PTR tv73[ebp]

; 1270 :     }

  0004d	5f		 pop	 edi
  0004e	5e		 pop	 esi
  0004f	5b		 pop	 ebx
  00050	8b e5		 mov	 esp, ebp
  00052	5d		 pop	 ebp
  00053	c3		 ret	 0
__vswprintf_s_l ENDP
_TEXT	ENDS
; Function compile flags: /Odtp /ZI
; File c:\program files (x86)\windows kits\10\include\10.0.17763.0\ucrt\corecrt_stdio_config.h
;	COMDAT ___local_stdio_printf_options
_TEXT	SEGMENT
___local_stdio_printf_options PROC			; COMDAT

; 86   :     {

  00000	55		 push	 ebp
  00001	8b ec		 mov	 ebp, esp
  00003	83 ec 40	 sub	 esp, 64			; 00000040H
  00006	53		 push	 ebx
  00007	56		 push	 esi
  00008	57		 push	 edi

; 87   :         static unsigned __int64 _OptionsStorage;
; 88   :         return &_OptionsStorage;

  00009	b8 00 00 00 00	 mov	 eax, OFFSET ?_OptionsStorage@?1??__local_stdio_printf_options@@9@4_KA ; `__local_stdio_printf_options'::`2'::_OptionsStorage

; 89   :     }

  0000e	5f		 pop	 edi
  0000f	5e		 pop	 esi
  00010	5b		 pop	 ebx
  00011	8b e5		 mov	 esp, ebp
  00013	5d		 pop	 ebp
  00014	c3		 ret	 0
___local_stdio_printf_options ENDP
_TEXT	ENDS
; Function compile flags: /Odtp /ZI
; File g:\网狐\happygamewh\服务端\系统模块\服务器组件\协调服务器\serviceunits.cpp
;	COMDAT ?__empty_global_delete@@YAXPAXI@Z
_TEXT	SEGMENT
___formal$ = 8						; size = 4
___formal$ = 12						; size = 4
?__empty_global_delete@@YAXPAXI@Z PROC			; __empty_global_delete, COMDAT

  00000	55		 push	 ebp
  00001	8b ec		 mov	 ebp, esp
  00003	83 ec 40	 sub	 esp, 64			; 00000040H
  00006	53		 push	 ebx
  00007	56		 push	 esi
  00008	57		 push	 edi
  00009	5f		 pop	 edi
  0000a	5e		 pop	 esi
  0000b	5b		 pop	 ebx
  0000c	8b e5		 mov	 esp, ebp
  0000e	5d		 pop	 ebp
  0000f	c3		 ret	 0
?__empty_global_delete@@YAXPAXI@Z ENDP			; __empty_global_delete
_TEXT	ENDS
; Function compile flags: /Odtp /ZI
; File g:\网狐\happygamewh\服务端\系统模块\服务器组件\协调服务器\serviceunits.cpp
;	COMDAT ?__empty_global_delete@@YAXPAX@Z
_TEXT	SEGMENT
___formal$ = 8						; size = 4
?__empty_global_delete@@YAXPAX@Z PROC			; __empty_global_delete, COMDAT

  00000	55		 push	 ebp
  00001	8b ec		 mov	 ebp, esp
  00003	83 ec 40	 sub	 esp, 64			; 00000040H
  00006	53		 push	 ebx
  00007	56		 push	 esi
  00008	57		 push	 edi
  00009	5f		 pop	 edi
  0000a	5e		 pop	 esi
  0000b	5b		 pop	 ebx
  0000c	8b e5		 mov	 esp, ebp
  0000e	5d		 pop	 ebp
  0000f	c3		 ret	 0
?__empty_global_delete@@YAXPAX@Z ENDP			; __empty_global_delete
_TEXT	ENDS
END
