; Listing generated by Microsoft (R) Optimizing Compiler Version 19.16.27032.1 

	TITLE	G:\网狐\HappyGameWH\服务端\系统模块\服务器组件\登录服务器\DataBaseEngineSink.cpp
	.686P
	.XMM
	include listing.inc
	.model	flat

INCLUDELIB MSVCRTD
INCLUDELIB OLDNAMES

CONST	SEGMENT
?IID_IUnknownEx@@3U_GUID@@B DD 05feec21eH		; IID_IUnknownEx
	DW	0dbf3H
	DW	046f0H
	DB	09fH
	DB	057H
	DB	0d1H
	DB	0cdH
	DB	071H
	DB	01cH
	DB	046H
	DB	0deH
?IID_IDataBase@@3U_GUID@@B DD 0a2e38a78H		; IID_IDataBase
	DW	01e4fH
	DW	04de4H
	DB	0a5H
	DB	0d1H
	DB	0b9H
	DB	019H
	DB	09bH
	DB	0ceH
	DB	041H
	DB	0aeH
?IID_IDataBaseEngineSink@@3U_GUID@@B DD 0ed26ed6H	; IID_IDataBaseEngineSink
	DW	069d7H
	DW	04f5bH
	DB	0b0H
	DB	0caH
	DB	017H
	DB	0aeH
	DB	0abH
	DB	0baH
	DB	06H
	DB	0dfH
CONST	ENDS
PUBLIC	??_H@YGXPAXIIP6EPAX0@Z@Z			; `vector constructor iterator'
PUBLIC	?__empty_global_delete@@YAXPAX@Z		; __empty_global_delete
PUBLIC	?__empty_global_delete@@YAXPAXI@Z		; __empty_global_delete
PUBLIC	_IsEqualGUID
PUBLIC	_==
PUBLIC	_HRESULT_FROM_WIN32
PUBLIC	___local_stdio_printf_options
PUBLIC	__vswprintf_s_l
PUBLIC	_swprintf_s
PUBLIC	__vsnprintf_s_l
PUBLIC	__vsnprintf_s
PUBLIC	__vscprintf_l
PUBLIC	__vscprintf
PUBLIC	__snprintf_s
PUBLIC	?AfxAssertFailedLine@@YGHPBDH@Z			; AfxAssertFailedLine
PUBLIC	?AtlThrowImpl@ATL@@YGXJ@Z			; ATL::AtlThrowImpl
PUBLIC	?AtlThrowLastWin32@ATL@@YGXXZ			; ATL::AtlThrowLastWin32
PUBLIC	??$AtlMultiply@I@ATL@@YAJPAIII@Z		; ATL::AtlMultiply<unsigned int>
PUBLIC	?Allocate@CCRTAllocator@ATL@@SAPAXI@Z		; ATL::CCRTAllocator::Allocate
PUBLIC	?Free@CCRTAllocator@ATL@@SAXPAX@Z		; ATL::CCRTAllocator::Free
PUBLIC	?_AtlGetConversionACP@ATL@@YGIXZ		; ATL::_AtlGetConversionACP
PUBLIC	??0?$CTraceCategoryEx@$0CAAA@$0A@@ATL@@QAE@PBD@Z ; ATL::CTraceCategoryEx<8192,0>::CTraceCategoryEx<8192,0>
PUBLIC	??B?$CTraceCategoryEx@$0CAAA@$0A@@ATL@@QAEIXZ	; ATL::CTraceCategoryEx<8192,0>::operator unsigned int
PUBLIC	?GetCategoryName@CTrace@ATL@@CAPA_WI@Z		; ATL::CTrace::GetCategoryName
PUBLIC	?TraceV@CTrace@ATL@@CAXPBDHIIPB_W@Z		; ATL::CTrace::TraceV
PUBLIC	?TraceV@CTrace@ATL@@SAXPBDHII0PAD@Z		; ATL::CTrace::TraceV
PUBLIC	?RegisterCategory@CTrace@ATL@@SAXPBDI@Z		; ATL::CTrace::RegisterCategory
PUBLIC	??0?$CHeapPtrBase@_WVCCRTAllocator@ATL@@@ATL@@IAE@XZ ; ATL::CHeapPtrBase<wchar_t,ATL::CCRTAllocator>::CHeapPtrBase<wchar_t,ATL::CCRTAllocator>
PUBLIC	??1?$CHeapPtrBase@_WVCCRTAllocator@ATL@@@ATL@@QAE@XZ ; ATL::CHeapPtrBase<wchar_t,ATL::CCRTAllocator>::~CHeapPtrBase<wchar_t,ATL::CCRTAllocator>
PUBLIC	??B?$CHeapPtrBase@_WVCCRTAllocator@ATL@@@ATL@@QBEPA_WXZ ; ATL::CHeapPtrBase<wchar_t,ATL::CCRTAllocator>::operator wchar_t *
PUBLIC	?AllocateBytes@?$CHeapPtrBase@_WVCCRTAllocator@ATL@@@ATL@@QAE_NI@Z ; ATL::CHeapPtrBase<wchar_t,ATL::CCRTAllocator>::AllocateBytes
PUBLIC	?Free@?$CHeapPtrBase@_WVCCRTAllocator@ATL@@@ATL@@QAEXXZ ; ATL::CHeapPtrBase<wchar_t,ATL::CCRTAllocator>::Free
PUBLIC	??0?$CHeapPtr@_WVCCRTAllocator@ATL@@@ATL@@QAE@XZ ; ATL::CHeapPtr<wchar_t,ATL::CCRTAllocator>::CHeapPtr<wchar_t,ATL::CCRTAllocator>
PUBLIC	?Allocate@?$CHeapPtr@_WVCCRTAllocator@ATL@@@ATL@@QAE_NI@Z ; ATL::CHeapPtr<wchar_t,ATL::CCRTAllocator>::Allocate
PUBLIC	??1?$CHeapPtr@_WVCCRTAllocator@ATL@@@ATL@@QAE@XZ ; ATL::CHeapPtr<wchar_t,ATL::CCRTAllocator>::~CHeapPtr<wchar_t,ATL::CCRTAllocator>
PUBLIC	??0?$CHeapPtrBase@DVCCRTAllocator@ATL@@@ATL@@IAE@XZ ; ATL::CHeapPtrBase<char,ATL::CCRTAllocator>::CHeapPtrBase<char,ATL::CCRTAllocator>
PUBLIC	??1?$CHeapPtrBase@DVCCRTAllocator@ATL@@@ATL@@QAE@XZ ; ATL::CHeapPtrBase<char,ATL::CCRTAllocator>::~CHeapPtrBase<char,ATL::CCRTAllocator>
PUBLIC	??B?$CHeapPtrBase@DVCCRTAllocator@ATL@@@ATL@@QBEPADXZ ; ATL::CHeapPtrBase<char,ATL::CCRTAllocator>::operator char *
PUBLIC	?AllocateBytes@?$CHeapPtrBase@DVCCRTAllocator@ATL@@@ATL@@QAE_NI@Z ; ATL::CHeapPtrBase<char,ATL::CCRTAllocator>::AllocateBytes
PUBLIC	?Free@?$CHeapPtrBase@DVCCRTAllocator@ATL@@@ATL@@QAEXXZ ; ATL::CHeapPtrBase<char,ATL::CCRTAllocator>::Free
PUBLIC	??0?$CHeapPtr@DVCCRTAllocator@ATL@@@ATL@@QAE@XZ	; ATL::CHeapPtr<char,ATL::CCRTAllocator>::CHeapPtr<char,ATL::CCRTAllocator>
PUBLIC	?Allocate@?$CHeapPtr@DVCCRTAllocator@ATL@@@ATL@@QAE_NI@Z ; ATL::CHeapPtr<char,ATL::CCRTAllocator>::Allocate
PUBLIC	??1?$CHeapPtr@DVCCRTAllocator@ATL@@@ATL@@QAE@XZ	; ATL::CHeapPtr<char,ATL::CCRTAllocator>::~CHeapPtr<char,ATL::CCRTAllocator>
PUBLIC	??0CPreserveLastError@ATL@@QAE@XZ		; ATL::CPreserveLastError::CPreserveLastError
PUBLIC	??1CPreserveLastError@ATL@@QAE@XZ		; ATL::CPreserveLastError::~CPreserveLastError
PUBLIC	??0CTraceFileAndLineInfo@ATL@@QAE@PBDH@Z	; ATL::CTraceFileAndLineInfo::CTraceFileAndLineInfo
PUBLIC	??RCTraceFileAndLineInfo@ATL@@QBAXHIPBDZZ	; ATL::CTraceFileAndLineInfo::operator()
PUBLIC	??0CTimeSpan@ATL@@QAE@_J@Z			; ATL::CTimeSpan::CTimeSpan
PUBLIC	?GetDays@CTimeSpan@ATL@@QBE_JXZ			; ATL::CTimeSpan::GetDays
PUBLIC	??0CTime@ATL@@QAE@HHHHHHH@Z			; ATL::CTime::CTime
PUBLIC	??GCTime@ATL@@QBE?AVCTimeSpan@1@V01@@Z		; ATL::CTime::operator-
PUBLIC	??0tagPersonalUserScoreInfo@@QAE@XZ		; tagPersonalUserScoreInfo::tagPersonalUserScoreInfo
PUBLIC	??0tagPersonalRoomInfo@@QAE@XZ			; tagPersonalRoomInfo::tagPersonalRoomInfo
PUBLIC	??0IUnknownEx@@QAE@XZ				; IUnknownEx::IUnknownEx
PUBLIC	?GetProductVer@@YAEK@Z				; GetProductVer
PUBLIC	?GetMainVer@@YAEK@Z				; GetMainVer
PUBLIC	?GetSubVer@@YAEK@Z				; GetSubVer
PUBLIC	?GetBuildVer@@YAEK@Z				; GetBuildVer
PUBLIC	?InterfaceVersionCompare@@YA_NKK@Z		; InterfaceVersionCompare
PUBLIC	??0CMD_CS_C_DismissTableResult@@QAE@XZ		; CMD_CS_C_DismissTableResult::CMD_CS_C_DismissTableResult
PUBLIC	?CheckError@_com_util@@YAXJ@Z			; _com_util::CheckError
PUBLIC	??0_variant_t@@QAE@XZ				; _variant_t::_variant_t
PUBLIC	??0_variant_t@@QAE@ABUtagVARIANT@@@Z		; _variant_t::_variant_t
PUBLIC	??1_variant_t@@QAE@XZ				; _variant_t::~_variant_t
PUBLIC	??0IDataBaseEngineSink@@QAE@XZ			; IDataBaseEngineSink::IDataBaseEngineSink
PUBLIC	??0?$CTempldateHelper@UIDataBase@@@@QAE@ABU_GUID@@KPBD1@Z ; CTempldateHelper<IDataBase>::CTempldateHelper<IDataBase>
PUBLIC	??1?$CTempldateHelper@UIDataBase@@@@UAE@XZ	; CTempldateHelper<IDataBase>::~CTempldateHelper<IDataBase>
PUBLIC	?CloseInstance@?$CTempldateHelper@UIDataBase@@@@QAE_NXZ ; CTempldateHelper<IDataBase>::CloseInstance
PUBLIC	?CreateInstance@?$CTempldateHelper@UIDataBase@@@@QAE_NXZ ; CTempldateHelper<IDataBase>::CreateInstance
PUBLIC	??C?$CTempldateHelper@UIDataBase@@@@QBEPAUIDataBase@@XZ ; CTempldateHelper<IDataBase>::operator->
PUBLIC	?GetInterface@?$CTempldateHelper@UIDataBase@@@@QBEPAUIDataBase@@XZ ; CTempldateHelper<IDataBase>::GetInterface
PUBLIC	??_G?$CTempldateHelper@UIDataBase@@@@UAEPAXI@Z	; CTempldateHelper<IDataBase>::`scalar deleting destructor'
PUBLIC	??0CDataBaseHelper@@QAE@XZ			; CDataBaseHelper::CDataBaseHelper
PUBLIC	??1CDataBaseHelper@@UAE@XZ			; CDataBaseHelper::~CDataBaseHelper
PUBLIC	??_GCDataBaseHelper@@UAEPAXI@Z			; CDataBaseHelper::`scalar deleting destructor'
PUBLIC	??0DBO_MB_PersonalRoomInfoList@@QAE@XZ		; DBO_MB_PersonalRoomInfoList::DBO_MB_PersonalRoomInfoList
PUBLIC	??0CDataBaseEngineSink@@QAE@XZ			; CDataBaseEngineSink::CDataBaseEngineSink
PUBLIC	??1CDataBaseEngineSink@@UAE@XZ			; CDataBaseEngineSink::~CDataBaseEngineSink
PUBLIC	?Release@CDataBaseEngineSink@@UAEXXZ		; CDataBaseEngineSink::Release
PUBLIC	?QueryInterface@CDataBaseEngineSink@@UAEPAXABU_GUID@@K@Z ; CDataBaseEngineSink::QueryInterface
PUBLIC	?OnDataBaseEngineStart@CDataBaseEngineSink@@UAE_NPAUIUnknownEx@@@Z ; CDataBaseEngineSink::OnDataBaseEngineStart
PUBLIC	?OnDataBaseEngineConclude@CDataBaseEngineSink@@UAE_NPAUIUnknownEx@@@Z ; CDataBaseEngineSink::OnDataBaseEngineConclude
PUBLIC	?OnDataBaseEngineTimer@CDataBaseEngineSink@@UAE_NKI@Z ; CDataBaseEngineSink::OnDataBaseEngineTimer
PUBLIC	?OnDataBaseEngineControl@CDataBaseEngineSink@@UAE_NGPAXG@Z ; CDataBaseEngineSink::OnDataBaseEngineControl
PUBLIC	?OnDataBaseEngineRequest@CDataBaseEngineSink@@UAE_NGKPAXG@Z ; CDataBaseEngineSink::OnDataBaseEngineRequest
PUBLIC	?OnRequestLogonGameID@CDataBaseEngineSink@@IAE_NKPAXG@Z ; CDataBaseEngineSink::OnRequestLogonGameID
PUBLIC	?OnRequestLogonAccounts@CDataBaseEngineSink@@IAE_NKPAXG@Z ; CDataBaseEngineSink::OnRequestLogonAccounts
PUBLIC	?OnRequestRegisterAccounts@CDataBaseEngineSink@@IAE_NKPAXG@Z ; CDataBaseEngineSink::OnRequestRegisterAccounts
PUBLIC	?OnRequestVerifyIndividual@CDataBaseEngineSink@@IAE_NKPAXG@Z ; CDataBaseEngineSink::OnRequestVerifyIndividual
PUBLIC	?OnRequestLogonVisitor@CDataBaseEngineSink@@IAE_NKPAXG@Z ; CDataBaseEngineSink::OnRequestLogonVisitor
PUBLIC	?OnMobileLogonGameID@CDataBaseEngineSink@@IAE_NKPAXG@Z ; CDataBaseEngineSink::OnMobileLogonGameID
PUBLIC	?OnMobileLogonAccounts@CDataBaseEngineSink@@IAE_NKPAXG@Z ; CDataBaseEngineSink::OnMobileLogonAccounts
PUBLIC	?OnMobileRegisterAccounts@CDataBaseEngineSink@@IAE_NKPAXG@Z ; CDataBaseEngineSink::OnMobileRegisterAccounts
PUBLIC	?OnMobileLogonOtherPlatform@CDataBaseEngineSink@@IAE_NKPAXG@Z ; CDataBaseEngineSink::OnMobileLogonOtherPlatform
PUBLIC	?OnMobileLogonVisitor@CDataBaseEngineSink@@IAE_NKPAXG@Z ; CDataBaseEngineSink::OnMobileLogonVisitor
PUBLIC	?OnRequestModifyMachine@CDataBaseEngineSink@@IAE_NKPAXG@Z ; CDataBaseEngineSink::OnRequestModifyMachine
PUBLIC	?OnRequestModifyLogonPass@CDataBaseEngineSink@@IAE_NKPAXG@Z ; CDataBaseEngineSink::OnRequestModifyLogonPass
PUBLIC	?OnRequestModifyInsurePass@CDataBaseEngineSink@@IAE_NKPAXG@Z ; CDataBaseEngineSink::OnRequestModifyInsurePass
PUBLIC	?OnRequestModifyUnderWrite@CDataBaseEngineSink@@IAE_NKPAXG@Z ; CDataBaseEngineSink::OnRequestModifyUnderWrite
PUBLIC	?OnRequestModifyRealAuth@CDataBaseEngineSink@@IAE_NKPAXG@Z ; CDataBaseEngineSink::OnRequestModifyRealAuth
PUBLIC	?OnRequestModifySystemFace@CDataBaseEngineSink@@IAE_NKPAXG@Z ; CDataBaseEngineSink::OnRequestModifySystemFace
PUBLIC	?OnRequestModifyCustomFace@CDataBaseEngineSink@@IAE_NKPAXG@Z ; CDataBaseEngineSink::OnRequestModifyCustomFace
PUBLIC	?OnRequestModifyIndividual@CDataBaseEngineSink@@IAE_NKPAXG@Z ; CDataBaseEngineSink::OnRequestModifyIndividual
PUBLIC	?OnRequestBindSpreader@CDataBaseEngineSink@@IAE_NKPAXG@Z ; CDataBaseEngineSink::OnRequestBindSpreader
PUBLIC	?OnRequestUserEnableInsure@CDataBaseEngineSink@@IAE_NKPAXG@Z ; CDataBaseEngineSink::OnRequestUserEnableInsure
PUBLIC	?OnRequestUserSaveScore@CDataBaseEngineSink@@IAE_NKPAXG@Z ; CDataBaseEngineSink::OnRequestUserSaveScore
PUBLIC	?OnRequestUserTakeScore@CDataBaseEngineSink@@IAE_NKPAXG@Z ; CDataBaseEngineSink::OnRequestUserTakeScore
PUBLIC	?OnRequestUserTransferScore@CDataBaseEngineSink@@IAE_NKPAXG@Z ; CDataBaseEngineSink::OnRequestUserTransferScore
PUBLIC	?OnRequestGetParameter@CDataBaseEngineSink@@IAE_NKPAXG@Z ; CDataBaseEngineSink::OnRequestGetParameter
PUBLIC	?OnRequestAddParameter@CDataBaseEngineSink@@IAE_NKPAXG@Z ; CDataBaseEngineSink::OnRequestAddParameter
PUBLIC	?OnRequestModifyParameter@CDataBaseEngineSink@@IAE_NKPAXG@Z ; CDataBaseEngineSink::OnRequestModifyParameter
PUBLIC	?OnRequestDeleteParameter@CDataBaseEngineSink@@IAE_NKPAXG@Z ; CDataBaseEngineSink::OnRequestDeleteParameter
PUBLIC	?OnRequestQueryIndividual@CDataBaseEngineSink@@IAE_NKPAXG@Z ; CDataBaseEngineSink::OnRequestQueryIndividual
PUBLIC	?OnRequestQueryInsureInfo@CDataBaseEngineSink@@IAE_NKPAXG@Z ; CDataBaseEngineSink::OnRequestQueryInsureInfo
PUBLIC	?OnRequestQueryTransferUserInfo@CDataBaseEngineSink@@IAE_NKPAXG@Z ; CDataBaseEngineSink::OnRequestQueryTransferUserInfo
PUBLIC	?OnRequestQueryTransferRebate@CDataBaseEngineSink@@IAE_NKPAXG@Z ; CDataBaseEngineSink::OnRequestQueryTransferRebate
PUBLIC	?OnRequestCheckInReward@CDataBaseEngineSink@@IAE_NKPAXG@Z ; CDataBaseEngineSink::OnRequestCheckInReward
PUBLIC	?OnRequestCheckInQueryInfo@CDataBaseEngineSink@@IAE_NKPAXG@Z ; CDataBaseEngineSink::OnRequestCheckInQueryInfo
PUBLIC	?OnRequestCheckInDone@CDataBaseEngineSink@@IAE_NKPAXG@Z ; CDataBaseEngineSink::OnRequestCheckInDone
PUBLIC	?OnRequestLoadTaskList@CDataBaseEngineSink@@IAE_NKPAXG@Z ; CDataBaseEngineSink::OnRequestLoadTaskList
PUBLIC	?OnRequestTaskGiveUp@CDataBaseEngineSink@@IAE_NKPAXG@Z ; CDataBaseEngineSink::OnRequestTaskGiveUp
PUBLIC	?OnRequestTaskTake@CDataBaseEngineSink@@IAE_NKPAXG@Z ; CDataBaseEngineSink::OnRequestTaskTake
PUBLIC	?OnRequestTaskReward@CDataBaseEngineSink@@IAE_NKPAXG@Z ; CDataBaseEngineSink::OnRequestTaskReward
PUBLIC	?OnRequestTaskQueryInfo@CDataBaseEngineSink@@IAE_NKPAXG@Z ; CDataBaseEngineSink::OnRequestTaskQueryInfo
PUBLIC	?OnRequestLoadBaseEnsure@CDataBaseEngineSink@@IAE_NKPAXG@Z ; CDataBaseEngineSink::OnRequestLoadBaseEnsure
PUBLIC	?OnRequestTakeBaseEnsure@CDataBaseEngineSink@@IAE_NKPAXG@Z ; CDataBaseEngineSink::OnRequestTakeBaseEnsure
PUBLIC	?OnRequestQuerySpreadInfo@CDataBaseEngineSink@@IAE_NKPAXG@Z ; CDataBaseEngineSink::OnRequestQuerySpreadInfo
PUBLIC	?OnRequestLoadRealAuth@CDataBaseEngineSink@@IAE_NKPAXG@Z ; CDataBaseEngineSink::OnRequestLoadRealAuth
PUBLIC	?OnRequestLoadGrowLevelConfig@CDataBaseEngineSink@@IAE_NKPAXG@Z ; CDataBaseEngineSink::OnRequestLoadGrowLevelConfig
PUBLIC	?OnRequestQueryGrowLevelParameter@CDataBaseEngineSink@@IAE_NKPAXG@Z ; CDataBaseEngineSink::OnRequestQueryGrowLevelParameter
PUBLIC	?OnRequestLoadGamePropertyList@CDataBaseEngineSink@@IAE_NKPAXG@Z ; CDataBaseEngineSink::OnRequestLoadGamePropertyList
PUBLIC	?OnRequestBuyGameProperty@CDataBaseEngineSink@@IAE_NKPAXG@Z ; CDataBaseEngineSink::OnRequestBuyGameProperty
PUBLIC	?OnRequestUseProperty@CDataBaseEngineSink@@IAE_NKPAXG@Z ; CDataBaseEngineSink::OnRequestUseProperty
PUBLIC	?OnRequestPropertyQuerySingle@CDataBaseEngineSink@@IAE_NKPAXG@Z ; CDataBaseEngineSink::OnRequestPropertyQuerySingle
PUBLIC	?OnRequestUserBackpackProperty@CDataBaseEngineSink@@IAE_NKPAXG@Z ; CDataBaseEngineSink::OnRequestUserBackpackProperty
PUBLIC	?OnRequestPropertyBuff@CDataBaseEngineSink@@IAE_NKPAXG@Z ; CDataBaseEngineSink::OnRequestPropertyBuff
PUBLIC	?OnRequestPropertyPresent@CDataBaseEngineSink@@IAE_NKPAXG@Z ; CDataBaseEngineSink::OnRequestPropertyPresent
PUBLIC	?OnRequestQuerySendPresent@CDataBaseEngineSink@@IAE_NKPAXG@Z ; CDataBaseEngineSink::OnRequestQuerySendPresent
PUBLIC	?OnRequestGetSendPresent@CDataBaseEngineSink@@IAE_NKPAXG@Z ; CDataBaseEngineSink::OnRequestGetSendPresent
PUBLIC	?OnRequestMemberLoadParameter@CDataBaseEngineSink@@IAE_NKPAXG@Z ; CDataBaseEngineSink::OnRequestMemberLoadParameter
PUBLIC	?OnRequestMemberQueryInfo@CDataBaseEngineSink@@IAE_NKPAXG@Z ; CDataBaseEngineSink::OnRequestMemberQueryInfo
PUBLIC	?OnRequestMemberDayPresent@CDataBaseEngineSink@@IAE_NKPAXG@Z ; CDataBaseEngineSink::OnRequestMemberDayPresent
PUBLIC	?OnRequestMemberDayGift@CDataBaseEngineSink@@IAE_NKPAXG@Z ; CDataBaseEngineSink::OnRequestMemberDayGift
PUBLIC	?OnRequestPurchaseMember@CDataBaseEngineSink@@IAE_NKPAXG@Z ; CDataBaseEngineSink::OnRequestPurchaseMember
PUBLIC	?OnRequestExchangeScoreByIngot@CDataBaseEngineSink@@IAE_NKPAXG@Z ; CDataBaseEngineSink::OnRequestExchangeScoreByIngot
PUBLIC	?OnRequestExchangeScoreByBeans@CDataBaseEngineSink@@IAE_NKPAXG@Z ; CDataBaseEngineSink::OnRequestExchangeScoreByBeans
PUBLIC	?OnRequestLotteryConfigReq@CDataBaseEngineSink@@IAE_NKPAXG@Z ; CDataBaseEngineSink::OnRequestLotteryConfigReq
PUBLIC	?OnRequestLotteryStart@CDataBaseEngineSink@@IAE_NKPAXG@Z ; CDataBaseEngineSink::OnRequestLotteryStart
PUBLIC	?OnRequestQueryUserGameData@CDataBaseEngineSink@@IAE_NKPAXG@Z ; CDataBaseEngineSink::OnRequestQueryUserGameData
PUBLIC	?OnRequestGetPersonalParameter@CDataBaseEngineSink@@IAE_NKPAXG@Z ; CDataBaseEngineSink::OnRequestGetPersonalParameter
PUBLIC	?OnRequestqueryPersonalRoomInfo@CDataBaseEngineSink@@IAE_NKPAXG@Z ; CDataBaseEngineSink::OnRequestqueryPersonalRoomInfo
PUBLIC	?OnRequsetDissumeRoomTest@CDataBaseEngineSink@@IAE_NKPAXGAAK@Z ; CDataBaseEngineSink::OnRequsetDissumeRoomTest
PUBLIC	?OnRequestQueryUserRoomScore@CDataBaseEngineSink@@IAE_NKPAXG@Z ; CDataBaseEngineSink::OnRequestQueryUserRoomScore
PUBLIC	?OnRequestCloseRoomWriteDissumeTime@CDataBaseEngineSink@@IAE_NKPAXG@Z ; CDataBaseEngineSink::OnRequestCloseRoomWriteDissumeTime
PUBLIC	?OnRequestPersonalRoomUserInfo@CDataBaseEngineSink@@IAE_NKPAXG@Z ; CDataBaseEngineSink::OnRequestPersonalRoomUserInfo
PUBLIC	?OnRequestRoomCardExchangeToScore@CDataBaseEngineSink@@IAE_NKPAXG@Z ; CDataBaseEngineSink::OnRequestRoomCardExchangeToScore
PUBLIC	?OnRequestQueryPersonalRule@CDataBaseEngineSink@@IAE_NKPAXG@Z ; CDataBaseEngineSink::OnRequestQueryPersonalRule
PUBLIC	?OnRequestAccountBind@CDataBaseEngineSink@@IAE_NKPAXG@Z ; CDataBaseEngineSink::OnRequestAccountBind
PUBLIC	?OnRequestAccountBindExists@CDataBaseEngineSink@@IAE_NKPAXG@Z ; CDataBaseEngineSink::OnRequestAccountBindExists
PUBLIC	?OnRequestLoadGameList@CDataBaseEngineSink@@IAE_NKPAXG@Z ; CDataBaseEngineSink::OnRequestLoadGameList
PUBLIC	?OnRequestOnLineCountInfo@CDataBaseEngineSink@@IAE_NKPAXG@Z ; CDataBaseEngineSink::OnRequestOnLineCountInfo
PUBLIC	?OnRequestPlatformParameter@CDataBaseEngineSink@@IAE_NKPAXG@Z ; CDataBaseEngineSink::OnRequestPlatformParameter
PUBLIC	?OnRequestVideoInfo@CDataBaseEngineSink@@IAE_NKPAXG@Z ; CDataBaseEngineSink::OnRequestVideoInfo
PUBLIC	?OnRequestVideoDetails@CDataBaseEngineSink@@IAE_NKPAXG@Z ; CDataBaseEngineSink::OnRequestVideoDetails
PUBLIC	?OnRequestVideoDetailsByRoomID@CDataBaseEngineSink@@IAE_NKPAXG@Z ; CDataBaseEngineSink::OnRequestVideoDetailsByRoomID
PUBLIC	?OnRequestPlayBackCodeYZ@CDataBaseEngineSink@@IAE_NKPAXG@Z ; CDataBaseEngineSink::OnRequestPlayBackCodeYZ
PUBLIC	?OnRequestPlayBackCode@CDataBaseEngineSink@@IAE_NKPAXG@Z ; CDataBaseEngineSink::OnRequestPlayBackCode
PUBLIC	?OnLogonDisposeResult@CDataBaseEngineSink@@IAEXKKPBDK_N@Z ; CDataBaseEngineSink::OnLogonDisposeResult
PUBLIC	?OnInsureDisposeResult@CDataBaseEngineSink@@IAEXKKPBD_N@Z ; CDataBaseEngineSink::OnInsureDisposeResult
PUBLIC	?OnOperateDisposeResult@CDataBaseEngineSink@@IAEXKKPBD_N1@Z ; CDataBaseEngineSink::OnOperateDisposeResult
PUBLIC	?OnAndroidDisposeResult@CDataBaseEngineSink@@IAEXKKGG@Z ; CDataBaseEngineSink::OnAndroidDisposeResult
PUBLIC	?OnIndividualDisposeResult@CDataBaseEngineSink@@IAEXKKPBD@Z ; CDataBaseEngineSink::OnIndividualDisposeResult
PUBLIC	??_GCDataBaseEngineSink@@UAEPAXI@Z		; CDataBaseEngineSink::`scalar deleting destructor'
PUBLIC	??$_snprintf_s@$0BA@@@YAHAAY0BA@DIPBDZZ		; _snprintf_s<16>
PUBLIC	??0?$CW2AEX@$0IA@@ATL@@QAE@PB_W@Z		; ATL::CW2AEX<128>::CW2AEX<128>
PUBLIC	??1?$CW2AEX@$0IA@@ATL@@QAE@XZ			; ATL::CW2AEX<128>::~CW2AEX<128>
PUBLIC	??B?$CW2AEX@$0IA@@ATL@@QBEPADXZ			; ATL::CW2AEX<128>::operator char *
PUBLIC	?Init@?$CW2AEX@$0IA@@ATL@@AAEXPB_WI@Z		; ATL::CW2AEX<128>::Init
PUBLIC	?TimeDiff@@YA_JU_SYSTEMTIME@@0@Z		; TimeDiff
PUBLIC	?Hex2Char@@YAXPADAAE@Z				; Hex2Char
PUBLIC	?HexStr2CharStr@@YAXPADHPAE@Z			; HexStr2CharStr
PUBLIC	??$_snprintf_s@$0IA@@@YAHAAY0IA@DIPBDZZ		; _snprintf_s<128>
PUBLIC	??$AtlConvFreeMemory@D@ATL@@YAXPAD0H@Z		; ATL::AtlConvFreeMemory<char>
PUBLIC	??$AtlConvAllocMemory@D@ATL@@YAXPAPADHPADH@Z	; ATL::AtlConvAllocMemory<char>
PUBLIC	?_OptionsStorage@?1??__local_stdio_printf_options@@9@4_KA ; `__local_stdio_printf_options'::`2'::_OptionsStorage
PUBLIC	??_C@_17CNPHIMPH@?$AA?$CF?$AAl?$AAs@		; `string'
PUBLIC	??_C@_1OE@IAPLKPHI@?$AAc?$AA?3?$AA?2?$AAp?$AAr?$AAo?$AAg?$AAr?$AAa?$AAm?$AA?5?$AAf?$AAi?$AAl?$AAe@ ; `string'
PUBLIC	??_C@_1OC@PNEKCFJL@?$AAc?$AA?3?$AA?2?$AAp?$AAr?$AAo?$AAg?$AAr?$AAa?$AAm?$AA?5?$AAf?$AAi?$AAl?$AAe@ ; `string'
PUBLIC	?atlTraceException@ATL@@3V?$CTraceCategoryEx@$0CAAA@$0A@@1@A ; ATL::atlTraceException
PUBLIC	??_C@_0BC@PGMFNIFA@atlTraceException@		; `string'
PUBLIC	?m_nLevel@CTrace@ATL@@1IA			; ATL::CTrace::m_nLevel
PUBLIC	?m_nCategory@CTrace@ATL@@1IA			; ATL::CTrace::m_nCategory
PUBLIC	?m_nLastCategory@CTrace@ATL@@1IA		; ATL::CTrace::m_nLastCategory
PUBLIC	?m_nMap@CTrace@ATL@@1PAUCategoryMap@12@A	; ATL::CTrace::m_nMap
PUBLIC	??_C@_1O@LFNDFEBP@?$AA?$CF?$AAl?$AAs?$AA?5?$AA?9?$AA?5@ ; `string'
PUBLIC	??_C@_1M@PGKOAACE@?$AA?$CF?$AAu?$AA?5?$AA?9?$AA?5@ ; `string'
PUBLIC	??_C@_1O@OAIPCDPO@?$AA?$CF?$AAl?$AAs?$AA?$CF?$AAl?$AAs@ ; `string'
PUBLIC	??_C@_17LGGGMOOB@?$AA?$CF?$AAh?$AAs@		; `string'
PUBLIC	??_C@_1EO@EBPPKGOM@?$AAf?$AAa?$AAl?$AAs?$AAe?$AA?5?$AA?$CG?$AA?$CG?$AA?5?$AA?$CC?$AAT?$AAo?$AAo?$AA?5?$AAm@ ; `string'
PUBLIC	??_C@_1OE@PDFAMNPL@?$AAc?$AA?3?$AA?2?$AAp?$AAr?$AAo?$AAg?$AAr?$AAa?$AAm?$AA?5?$AAf?$AAi?$AAl?$AAe@ ; `string'
PUBLIC	?__LINE__Var@?0??AtlThrowImpl@ATL@@YGXJ@Z@4JA	; `ATL::AtlThrowImpl'::`1'::__LINE__Var
PUBLIC	??_C@_0HD@OEBHCJKM@c?3?2program?5files?5?$CIx86?$CJ?2microsof@ ; `string'
PUBLIC	??_C@_0BF@IAAKIJDJ@AtlThrow?3?5hr?5?$DN?50x?$CFx?6@ ; `string'
PUBLIC	??_C@_11LOCGONAA@@				; `string'
PUBLIC	??_C@_1BM@GBBOFEAE@?$AA_?$AA_?$AAa?$AAt?$AAl?$AA_?$AAc?$AAo?$AAn?$AAd?$AAV?$AAa?$AAl@ ; `string'
PUBLIC	?__LINE__Var@?0???0CTime@ATL@@QAE@HHHHHHH@Z@4JA	; `ATL::CTime::CTime'::`1'::__LINE__Var
PUBLIC	??_C@_1OC@IALJLBM@?$AAc?$AA?3?$AA?2?$AAp?$AAr?$AAo?$AAg?$AAr?$AAa?$AAm?$AA?5?$AAf?$AAi?$AAl?$AAe@ ; `string'
PUBLIC	??_C@_1BK@NHHHCKNA@?$AAm?$AA_?$AAt?$AAi?$AAm?$AAe?$AA?5?$AA?$CB?$AA?$DN?$AA?5?$AA?9?$AA1@ ; `string'
PUBLIC	??_C@_00CNPNBAHC@@				; `string'
PUBLIC	??_7IUnknownEx@@6B@				; IUnknownEx::`vftable'
PUBLIC	??_7IDataBaseEngineSink@@6B@			; IDataBaseEngineSink::`vftable'
PUBLIC	??_7?$CTempldateHelper@UIDataBase@@@@6B@	; CTempldateHelper<IDataBase>::`vftable'
PUBLIC	??_7CDataBaseHelper@@6B@			; CDataBaseHelper::`vftable'
PUBLIC	??_C@_0P@IKJBDFNG@CreateDataBase@		; `string'
PUBLIC	??_C@_0BB@BEMLEOHB@KernelEngine?4dll@		; `string'
PUBLIC	??_C@_1BK@NHECDDNK@?$AAm?$AA_?$AAp?$AAD?$AAa?$AAt?$AAa?$AA?5?$AA?$DN?$AA?$DN?$AA?5?$AA0@ ; `string'
PUBLIC	??_R4CDataBaseHelper@@6B@			; CDataBaseHelper::`RTTI Complete Object Locator'
PUBLIC	??_R0?AVCDataBaseHelper@@@8			; CDataBaseHelper `RTTI Type Descriptor'
PUBLIC	??_R3CDataBaseHelper@@8				; CDataBaseHelper::`RTTI Class Hierarchy Descriptor'
PUBLIC	??_R2CDataBaseHelper@@8				; CDataBaseHelper::`RTTI Base Class Array'
PUBLIC	??_R1A@?0A@EA@CDataBaseHelper@@8		; CDataBaseHelper::`RTTI Base Class Descriptor at (0,-1,0,64)'
PUBLIC	??_R1A@?0A@EA@?$CTempldateHelper@UIDataBase@@@@8 ; CTempldateHelper<IDataBase>::`RTTI Base Class Descriptor at (0,-1,0,64)'
PUBLIC	??_R0?AV?$CTempldateHelper@UIDataBase@@@@@8	; CTempldateHelper<IDataBase> `RTTI Type Descriptor'
PUBLIC	??_R3?$CTempldateHelper@UIDataBase@@@@8		; CTempldateHelper<IDataBase>::`RTTI Class Hierarchy Descriptor'
PUBLIC	??_R2?$CTempldateHelper@UIDataBase@@@@8		; CTempldateHelper<IDataBase>::`RTTI Base Class Array'
PUBLIC	??_R4?$CTempldateHelper@UIDataBase@@@@6B@	; CTempldateHelper<IDataBase>::`RTTI Complete Object Locator'
PUBLIC	??_7CDataBaseEngineSink@@6B@			; CDataBaseEngineSink::`vftable'
PUBLIC	?__LINE__Var@?0??OnDataBaseEngineStart@CDataBaseEngineSink@@UAE_NPAUIUnknownEx@@@Z@4JA ; `CDataBaseEngineSink::OnDataBaseEngineStart'::`1'::__LINE__Var
PUBLIC	??_C@_0FB@PNCLCLBD@g?3?2?M?x?$LK?$PM?2happygamewh?2?$LH?$PO?N?q?$LG?K?2?O?$LF?M?$LD@ ; `string'
PUBLIC	??_R0PAUIDataBaseException@@@8			; IDataBaseException * `RTTI Type Descriptor'
PUBLIC	??_C@_0CL@EMJCKBGA@CDataBaseEngineSink?3?3OnDataBase@ ; `string'
PUBLIC	??_C@_07KKAAKNCA@?$CFs?5?5?5?$CFs@		; `string'
PUBLIC	?__LINE__Var@?0??OnRequestLogonGameID@CDataBaseEngineSink@@IAE_NKPAXG@Z@4JA ; `CDataBaseEngineSink::OnRequestLogonGameID'::`1'::__LINE__Var
PUBLIC	??_C@_0M@PCENNPGA@?$CFd?4?$CFd?4?$CFd?4?$CFd@	; `string'
PUBLIC	??_C@_09OBNFMHID@?$EAdwGameID@			; `string'
PUBLIC	??_C@_0N@OCODJCJL@?$EAstrPassword@		; `string'
PUBLIC	??_C@_0N@IDHGAHBD@?$EAstrClientIP@		; `string'
PUBLIC	??_C@_0O@MBPPCANG@?$EAstrMachineID@		; `string'
PUBLIC	??_C@_0BE@IHNOADNJ@?$EAnNeeValidateMBCard@	; `string'
PUBLIC	??_C@_0BC@IIOJPJPJ@?$EAstrErrorDescribe@	; `string'
PUBLIC	??_C@_0BG@NANKAIDP@GSP_GP_EfficacyGameID@	; `string'
PUBLIC	??_C@_0CK@CCNNAFAL@CDataBaseEngineSink?3?3OnRequestL@ ; `string'
PUBLIC	??_C@_0DH@NMJACNII@?S?I?S?Z?J?$PN?$LO?$NN?$LP?b?$LC?Y?W?w?R?l?$LD?$KD?$KD?$KM?G?k?D?z?I?T?$LK?s?V?X?J@ ; `string'
PUBLIC	?__LINE__Var@?0??OnRequestLogonAccounts@CDataBaseEngineSink@@IAE_NKPAXG@Z@4JA ; `CDataBaseEngineSink::OnRequestLogonAccounts'::`1'::__LINE__Var
PUBLIC	??_C@_0N@MLMFFBNL@?$EAstrAccounts@		; `string'
PUBLIC	??_C@_0O@EFEADDHL@?$EAdwcheckRight@		; `string'
PUBLIC	??_C@_0BG@PDLMCDGJ@GSP_GP_CheckUserRight@	; `string'
PUBLIC	??_C@_0P@DNOJCPJJ@?$EAstrPassPortID@		; `string'
PUBLIC	??_C@_0BI@GKCKKEHM@GSP_GP_EfficacyAccounts@	; `string'
PUBLIC	??_C@_0CM@KPLBNJDB@CDataBaseEngineSink?3?3OnRequestL@ ; `string'
PUBLIC	?__LINE__Var@?0??OnRequestRegisterAccounts@CDataBaseEngineSink@@IAE_NKPAXG@Z@4JA ; `CDataBaseEngineSink::OnRequestRegisterAccounts'::`1'::__LINE__Var
PUBLIC	??_C@_0N@JPNAHEDN@?$EAstrNickName@		; `string'
PUBLIC	??_C@_0BC@GKBODENJ@?$EAdwSpreaderGameID@	; `string'
PUBLIC	??_C@_0O@JCJPMBHE@?$EAstrLogonPass@		; `string'
PUBLIC	??_C@_08LMLGNKIB@?$EAwFaceID@			; `string'
PUBLIC	??_C@_09GNCJOEFH@?$EAcbGender@			; `string'
PUBLIC	??_C@_0BB@MBNGELAC@?$EAstrCompellation@		; `string'
PUBLIC	??_C@_0L@NEOALBLC@?$EAdwAgentID@		; `string'
PUBLIC	??_C@_0BI@PNDDCDNC@GSP_GP_RegisterAccounts@	; `string'
PUBLIC	??_C@_0CP@DHDLCIDM@CDataBaseEngineSink?3?3OnRequestR@ ; `string'
PUBLIC	?__LINE__Var@?0??OnRequestVerifyIndividual@CDataBaseEngineSink@@IAE_NKPAXG@Z@4JA ; `CDataBaseEngineSink::OnRequestVerifyIndividual'::`1'::__LINE__Var
PUBLIC	??_C@_0N@JMOMIFBA@?$EAwVerifyMask@		; `string'
PUBLIC	??_C@_0BC@POGMJCEB@?$EAstrVerifyContent@	; `string'
PUBLIC	??_C@_0BI@MIHLMHHB@GSP_GP_VerifyIndividual@	; `string'
PUBLIC	??_C@_0CP@CHDMMJP@CDataBaseEngineSink?3?3OnRequestV@ ; `string'
PUBLIC	??_C@_0BJ@CKJDKBFK@?J?$PN?$LO?$NN?$LP?b?$LC?Y?W?w?R?l?$LD?$KD?0?Q?i?V?$KE?J?$KH?$LA?$NM?$CB@ ; `string'
PUBLIC	?__LINE__Var@?0??OnRequestLogonVisitor@CDataBaseEngineSink@@IAE_NKPAXG@Z@4JA ; `CDataBaseEngineSink::OnRequestLogonVisitor'::`1'::__LINE__Var
PUBLIC	??_C@_0N@BMHCGMLL@?$EAcbLogonMode@		; `string'
PUBLIC	??_C@_0BM@JPCCCMHP@GSP_GP_EfficacyLogonVisitor@	; `string'
PUBLIC	??_C@_0CL@MDHCGHLM@CDataBaseEngineSink?3?3OnRequestL@ ; `string'
PUBLIC	?__LINE__Var@?0??OnMobileLogonGameID@CDataBaseEngineSink@@IAE_NKPAXG@Z@4JA ; `CDataBaseEngineSink::OnMobileLogonGameID'::`1'::__LINE__Var
PUBLIC	??_C@_0BA@IJMCEMBG@?$EAstrMobilePhone@		; `string'
PUBLIC	??_C@_0BG@BDCMEAK@GSP_MB_EfficacyGameID@	; `string'
PUBLIC	??_C@_0CJ@FGANPPIL@CDataBaseEngineSink?3?3OnMobileLo@ ; `string'
PUBLIC	?__LINE__Var@?0??OnMobileLogonAccounts@CDataBaseEngineSink@@IAE_NKPAXG@Z@4JA ; `CDataBaseEngineSink::OnMobileLogonAccounts'::`1'::__LINE__Var
PUBLIC	??_C@_0BI@FKMJDJLJ@GSP_MB_EfficacyAccounts@	; `string'
PUBLIC	??_C@_0CL@MJFKCOKI@CDataBaseEngineSink?3?3OnMobileLo@ ; `string'
PUBLIC	?__LINE__Var@?0??OnMobileLogonOtherPlatform@CDataBaseEngineSink@@IAE_NKPAXG@Z@4JA ; `CDataBaseEngineSink::OnMobileLogonOtherPlatform'::`1'::__LINE__Var
PUBLIC	??_C@_0O@HIAOGCPG@?$EAcbPlatformID@		; `string'
PUBLIC	??_C@_0M@KJLICHGH@?$EAstrUserUin@		; `string'
PUBLIC	??_C@_0O@HAFHCIGG@?$EAcbDeviceType@		; `string'
PUBLIC	??_C@_0N@GKFANIE@?$EADeviceToken@		; `string'
PUBLIC	??_C@_0M@INBBBKNE@?$EAstrFaceUrl@		; `string'
PUBLIC	??_C@_0BN@OGJOOICM@GSP_MB_EfficacyOtherPlatform@ ; `string'
PUBLIC	??_C@_0DA@NDOJOGEI@CDataBaseEngineSink?3?3OnMobileLo@ ; `string'
PUBLIC	?__LINE__Var@?0??OnMobileLogonVisitor@CDataBaseEngineSink@@IAE_NKPAXG@Z@4JA ; `CDataBaseEngineSink::OnMobileLogonVisitor'::`1'::__LINE__Var
PUBLIC	??_C@_0BM@HIPAIJGL@GSP_MB_EfficacyLogonVisitor@	; `string'
PUBLIC	??_C@_0CK@COLODEGG@CDataBaseEngineSink?3?3OnMobileLo@ ; `string'
PUBLIC	?__LINE__Var@?0??OnMobileRegisterAccounts@CDataBaseEngineSink@@IAE_NKPAXG@Z@4JA ; `CDataBaseEngineSink::OnMobileRegisterAccounts'::`1'::__LINE__Var
PUBLIC	??_C@_0BI@MNNALOBH@GSP_MB_RegisterAccounts@	; `string'
PUBLIC	??_C@_0CO@KJNMOHKP@CDataBaseEngineSink?3?3OnMobileRe@ ; `string'
PUBLIC	?__LINE__Var@?0??OnRequestModifyMachine@CDataBaseEngineSink@@IAE_NKPAXG@Z@4JA ; `CDataBaseEngineSink::OnRequestModifyMachine'::`1'::__LINE__Var
PUBLIC	??_C@_09KCDEMNBD@?$EAdwUserID@			; `string'
PUBLIC	??_C@_0BD@DPAJNOJK@GSP_GP_MoorMachine@		; `string'
PUBLIC	??_C@_0BF@GKJPBNGG@GSP_GP_UnMoorMachine@	; `string'
PUBLIC	??_C@_0CM@CPIEFLAH@CDataBaseEngineSink?3?3OnRequestM@ ; `string'
PUBLIC	??_C@_0CD@MJBPILMG@?S?I?S?Z?J?$PN?$LO?$NN?$LP?b?$LC?Y?W?w?R?l?$LD?$KD?$KD?$KM?G?k?D?z?I?T?$LK?s?V?X?J@ ; `string'
PUBLIC	?__LINE__Var@?0??OnRequestModifySystemFace@CDataBaseEngineSink@@IAE_NKPAXG@Z@4JA ; `CDataBaseEngineSink::OnRequestModifySystemFace'::`1'::__LINE__Var
PUBLIC	??_C@_0BI@KLAGEAIK@GSP_GP_SystemFaceInsert@	; `string'
PUBLIC	??_C@_06LPNEIKNP@FaceID@			; `string'
PUBLIC	??_C@_0CP@OPCMKKDL@CDataBaseEngineSink?3?3OnRequestM@ ; `string'
PUBLIC	?__LINE__Var@?0??OnRequestModifyCustomFace@CDataBaseEngineSink@@IAE_NKPAXG@Z@4JA ; `CDataBaseEngineSink::OnRequestModifyCustomFace'::`1'::__LINE__Var
PUBLIC	??_C@_0O@IADNAPKO@?$EAdwCustomFace@		; `string'
PUBLIC	??_C@_0BI@CBCKGMBJ@GSP_GP_CustomFaceInsert@	; `string'
PUBLIC	??_C@_08GOBKDNAK@CustomID@			; `string'
PUBLIC	??_C@_0CP@PPJGNBDA@CDataBaseEngineSink?3?3OnRequestM@ ; `string'
PUBLIC	?__LINE__Var@?0??OnRequestModifyLogonPass@CDataBaseEngineSink@@IAE_NKPAXG@Z@4JA ; `CDataBaseEngineSink::OnRequestModifyLogonPass'::`1'::__LINE__Var
PUBLIC	??_C@_0BA@DDGJLHOJ@?$EAstrScrPassword@		; `string'
PUBLIC	??_C@_0BA@EMJOBCOH@?$EAstrDesPassword@		; `string'
PUBLIC	??_C@_0BL@KOGLPDHN@GSP_GP_ModifyLogonPassword@	; `string'
PUBLIC	??_C@_0CO@LMGOMND@CDataBaseEngineSink?3?3OnRequestM@ ; `string'
PUBLIC	?__LINE__Var@?0??OnRequestModifyInsurePass@CDataBaseEngineSink@@IAE_NKPAXG@Z@4JA ; `CDataBaseEngineSink::OnRequestModifyInsurePass'::`1'::__LINE__Var
PUBLIC	??_C@_0BM@EPKJGNJP@GSP_GP_ModifyInsurePassword@	; `string'
PUBLIC	??_C@_0CP@LJJPIND@CDataBaseEngineSink?3?3OnRequestM@ ; `string'
PUBLIC	?__LINE__Var@?0??OnRequestModifyUnderWrite@CDataBaseEngineSink@@IAE_NKPAXG@Z@4JA ; `CDataBaseEngineSink::OnRequestModifyUnderWrite'::`1'::__LINE__Var
PUBLIC	??_C@_0P@HNJEIOFF@?$EAstrUnderWrite@		; `string'
PUBLIC	??_C@_0BI@PPLHOKNN@GSP_GP_ModifyUnderWrite@	; `string'
PUBLIC	??_C@_0CP@DFLPOBDD@CDataBaseEngineSink?3?3OnRequestM@ ; `string'
PUBLIC	?__LINE__Var@?0??OnRequestModifyRealAuth@CDataBaseEngineSink@@IAE_NKPAXG@Z@4JA ; `CDataBaseEngineSink::OnRequestModifyRealAuth'::`1'::__LINE__Var
PUBLIC	??_C@_0BA@HDHKAMAC@GSP_GP_RealAuth@		; `string'
PUBLIC	??_C@_0CN@KDBPFNCO@CDataBaseEngineSink?3?3OnRequestM@ ; `string'
PUBLIC	?__LINE__Var@?0??OnRequestModifyIndividual@CDataBaseEngineSink@@IAE_NKPAXG@Z@4JA ; `CDataBaseEngineSink::OnRequestModifyIndividual'::`1'::__LINE__Var
PUBLIC	??_C@_06KIJECMBN@?$EAstrQQ@			; `string'
PUBLIC	??_C@_09OKCOHCBE@?$EAstrEMail@			; `string'
PUBLIC	??_C@_0O@DFDKDHGB@?$EAstrSeatPhone@		; `string'
PUBLIC	??_C@_0BC@PEMBKHPC@?$EAstrDwellingPlace@	; `string'
PUBLIC	??_C@_0N@OIBPAMNH@?$EAstrUserNote@		; `string'
PUBLIC	??_C@_0N@CFNHJANI@?$EAstrSpreader@		; `string'
PUBLIC	??_C@_0BM@JCLHPJJN@GSP_GP_ModifyUserIndividual@	; `string'
PUBLIC	??_C@_0CP@DCIDLAGJ@CDataBaseEngineSink?3?3OnRequestM@ ; `string'
PUBLIC	?__LINE__Var@?0??OnRequestUserEnableInsure@CDataBaseEngineSink@@IAE_NKPAXG@Z@4JA ; `CDataBaseEngineSink::OnRequestUserEnableInsure'::`1'::__LINE__Var
PUBLIC	??_C@_0P@EDLCJHLF@?$EAstrInsurePass@		; `string'
PUBLIC	??_C@_0BI@EOGGEIFI@GSP_GR_UserEnableInsure@	; `string'
PUBLIC	??_C@_0CP@PANKEFEH@CDataBaseEngineSink?3?3OnRequestU@ ; `string'
PUBLIC	?__LINE__Var@?0??OnRequestUserSaveScore@CDataBaseEngineSink@@IAE_NKPAXG@Z@4JA ; `CDataBaseEngineSink::OnRequestUserSaveScore'::`1'::__LINE__Var
PUBLIC	??_C@_0M@DMDPGKCL@?$EAlSaveScore@		; `string'
PUBLIC	??_C@_08HBBOJKPI@?$EAwKindID@			; `string'
PUBLIC	??_C@_0L@FIEHJJML@?$EAwServerID@		; `string'
PUBLIC	??_C@_0BF@ONNMJOCF@GSP_GR_UserSaveScore@	; `string'
PUBLIC	??_C@_0CM@LEHHJIMF@CDataBaseEngineSink?3?3OnRequestU@ ; `string'
PUBLIC	?__LINE__Var@?0??OnRequestUserTakeScore@CDataBaseEngineSink@@IAE_NKPAXG@Z@4JA ; `CDataBaseEngineSink::OnRequestUserTakeScore'::`1'::__LINE__Var
PUBLIC	??_C@_0M@DJFNFFKI@?$EAlTakeScore@		; `string'
PUBLIC	??_C@_0BF@OILOKBKG@GSP_GR_UserTakeScore@	; `string'
PUBLIC	??_C@_0CM@LBBFKHEG@CDataBaseEngineSink?3?3OnRequestU@ ; `string'
PUBLIC	?__LINE__Var@?0??OnRequestUserTransferScore@CDataBaseEngineSink@@IAE_NKPAXG@Z@4JA ; `CDataBaseEngineSink::OnRequestUserTransferScore'::`1'::__LINE__Var
PUBLIC	??_C@_0BA@MGGCKEGC@?$EAlTransferScore@		; `string'
PUBLIC	??_C@_0BA@MNCPGFOB@?$EAstrTransRemark@		; `string'
PUBLIC	??_C@_0BJ@BAPHEKDA@GSP_GR_UserTransferScore@	; `string'
PUBLIC	??_C@_0DA@JNEBPLMI@CDataBaseEngineSink?3?3OnRequestU@ ; `string'
PUBLIC	?__LINE__Var@?0??OnRequestLotteryConfigReq@CDataBaseEngineSink@@IAE_NKPAXG@Z@4JA ; `CDataBaseEngineSink::OnRequestLotteryConfigReq'::`1'::__LINE__Var
PUBLIC	??_C@_0BJ@GIKCGGKM@GSP_GP_LoadLotteryConfig@	; `string'
PUBLIC	??_C@_09LCBEKCCJ@ItemIndex@			; `string'
PUBLIC	??_C@_08LJOGMPAO@ItemType@			; `string'
PUBLIC	??_C@_09BLEEGDBC@ItemQuota@			; `string'
PUBLIC	??_C@_0BD@IEOJNAND@?$LD?i?$LN?$LB?E?d?V?C?$LM?S?T?X?J?$KH?$LA?$NM?$KD?$KB@ ; `string'
PUBLIC	??_C@_0BH@CBIMOOD@GSP_GP_LotteryUserInfo@	; `string'
PUBLIC	??_C@_09NHFEFEII@FreeCount@			; `string'
PUBLIC	??_C@_0N@INFEMIKK@AlreadyCount@			; `string'
PUBLIC	??_C@_09EFDPDPKG@ChargeFee@			; `string'
PUBLIC	??_C@_0CP@BDPAIBHD@CDataBaseEngineSink?3?3OnRequestL@ ; `string'
PUBLIC	?__LINE__Var@?0??OnRequestLotteryStart@CDataBaseEngineSink@@IAE_NKPAXG@Z@4JA ; `CDataBaseEngineSink::OnRequestLotteryStart'::`1'::__LINE__Var
PUBLIC	??_C@_0BE@LJJNPBDG@GSP_GP_LotteryStart@		; `string'
PUBLIC	??_C@_05FPOAFEHH@Wined@				; `string'
PUBLIC	??_C@_09BBKIPJAF@UserScore@			; `string'
PUBLIC	??_C@_09LPBJEFGL@UserBeans@			; `string'
PUBLIC	??_C@_0CL@JCALHNL@CDataBaseEngineSink?3?3OnRequestL@ ; `string'
PUBLIC	?__LINE__Var@?0??OnRequestQueryUserGameData@CDataBaseEngineSink@@IAE_NKPAXG@Z@4JA ; `CDataBaseEngineSink::OnRequestQueryUserGameData'::`1'::__LINE__Var
PUBLIC	??_C@_0BA@DMACEPA@?$EAstrDynamicPass@		; `string'
PUBLIC	??_C@_0BJ@IFJCFNBF@GSP_GR_QueryUserGameData@	; `string'
PUBLIC	??_C@_0N@HBNIIIGG@UserGameData@			; `string'
PUBLIC	??_C@_0DA@ICEOMON@CDataBaseEngineSink?3?3OnRequestQ@ ; `string'
PUBLIC	?__LINE__Var@?0??OnRequestGetPersonalParameter@CDataBaseEngineSink@@IAE_NKPAXG@Z@4JA ; `CDataBaseEngineSink::OnRequestGetPersonalParameter'::`1'::__LINE__Var
PUBLIC	??_C@_09DFDKDCCP@?$EAdwKindID@			; `string'
PUBLIC	??_C@_0CB@MMPODBFJ@GSP_GS_LoadPersonalRoomParamete@ ; `string'
PUBLIC	??_C@_0BA@GCOMLPGF@PersonalRoomTax@		; `string'
PUBLIC	??_C@_0L@HLGININO@IsJoinGame@			; `string'
PUBLIC	??_C@_09BAGGAEBH@MinPeople@			; `string'
PUBLIC	??_C@_09BBGKJOKD@MaxPeople@			; `string'
PUBLIC	??_C@_0N@CNCFIDBJ@MaxCellScore@			; `string'
PUBLIC	??_C@_0P@LNMJOPEM@CanCreateCount@		; `string'
PUBLIC	??_C@_0O@FAGABJFM@PlayTimeLimit@		; `string'
PUBLIC	??_C@_0O@FDPMPBME@PlayTurnCount@		; `string'
PUBLIC	??_C@_0BE@NHDBBOLF@TimeAfterBeginCount@		; `string'
PUBLIC	??_C@_0BB@BHHEMCMJ@TimeOffLineCount@		; `string'
PUBLIC	??_C@_0BB@EFKEMBID@TimeNotBeginGame@		; `string'
PUBLIC	??_C@_0O@DEEAMCAI@BeginFreeTime@		; `string'
PUBLIC	??_C@_0M@OHDGOHJM@EndFreeTime@			; `string'
PUBLIC	??_C@_0BK@BAMIBGIO@?J?$PN?$LO?$NN?$LP?b?R?l?$LD?$KD?0?G?k?I?T?$LK?s?T?Y?J?T?$KD?$KB?5?5@ ; `string'
PUBLIC	??_C@_0BI@OAFDOKLB@?J?$PN?$LO?$NN?$LP?b?R?l?$LD?$KD?0?G?k?I?T?$LK?s?T?Y?J?T?$KD?$KB@ ; `string'
PUBLIC	??_C@_0BM@DOAOBPNK@GSP_MB_GetPersonalCellScore@	; `string'
PUBLIC	??_C@_09MMGMMPOJ@CellScore@			; `string'
PUBLIC	??_C@_0CH@NJDIPHGM@GSP_MB_GetPersonalCellScore?5?V?$LE?P@ ; `string'
PUBLIC	??_C@_0BP@BLHAELOH@GSP_MB_GetPersonalFeeParameter@ ; `string'
PUBLIC	??_C@_0P@MBIIKCNO@DrawCountLimit@		; `string'
PUBLIC	??_C@_0O@DDOJCLEH@DrawTimeLimit@		; `string'
PUBLIC	??_C@_08PACNKABG@TableFee@			; `string'
PUBLIC	??_C@_08MJHOBIFI@AAPayFee@			; `string'
PUBLIC	??_C@_08MILKFGPP@IniScore@			; `string'
PUBLIC	??_C@_08JJGOBBMF@GameMode@			; `string'
PUBLIC	??_C@_0BJ@ODFHMALM@?$LL?q?H?$KB?K?$LN?H?K?$LH?$LP?$LH?Q?S?C?A?P?$LB?m?$LD?v?$LE?m?$KD?$KB@ ; `string'
PUBLIC	??_C@_0BH@PLCJDHBC@GSP_MB_GetPersonalRule@	; `string'
PUBLIC	??_C@_0N@KBPJFFJC@PersonalRule@			; `string'
PUBLIC	??_C@_0DD@ODBAJJDM@CDataBaseEngineSink?3?3OnRequestG@ ; `string'
PUBLIC	?__LINE__Var@?0??OnRequsetDissumeRoomTest@CDataBaseEngineSink@@IAE_NKPAXGAAK@Z@4JA ; `CDataBaseEngineSink::OnRequsetDissumeRoomTest'::`1'::__LINE__Var
PUBLIC	??_C@_07BFCPEDCE@4568987@			; `string'
PUBLIC	??_C@_05LGDJAMLD@11111@				; `string'
PUBLIC	??_C@_07MHNIFEGG@?$EARoomID@			; `string'
PUBLIC	??_C@_0L@KCMGAPDJ@?$EAlTaxCount@		; `string'
PUBLIC	??_C@_0BE@NAHDLGHP@?$EAcbPersonalRoomInfo@	; `string'
PUBLIC	??_C@_0BL@PABMBFJD@GSP_GR_DissumePersonalRoom@	; `string'
PUBLIC	?__LINE__Var@?0??OnRequestqueryPersonalRoomInfo@CDataBaseEngineSink@@IAE_NKPAXG@Z@4JA ; `CDataBaseEngineSink::OnRequestqueryPersonalRoomInfo'::`1'::__LINE__Var
PUBLIC	??_C@_0BC@LLEGCEPB@?$EAdwPersonalRoomID@	; `string'
PUBLIC	??_C@_0O@GFIHOHG@?$EAdwRoomHostID@		; `string'
PUBLIC	??_C@_0BN@MKNPMPBL@GSP_GS_QueryPersonalRoomInfo@ ; `string'
PUBLIC	??_C@_07CMKHFCDI@wKindID@			; `string'
PUBLIC	??_C@_0BA@BNENDPHI@dwPlayTimeLimit@		; `string'
PUBLIC	??_C@_0BA@BONBNHOA@dwPlayTurnCount@		; `string'
PUBLIC	??_C@_0L@MINLNLFB@RoomStatus@			; `string'
PUBLIC	??_C@_0O@PCHKAHIJ@sysCreateTime@		; `string'
PUBLIC	??_C@_0P@DFHGMPBA@sysDissumeTime@		; `string'
PUBLIC	??_C@_07FKGFEPLL@PayMode@			; `string'
PUBLIC	??_C@_0N@KIEIPKAD@NeedRoomCard@			; `string'
PUBLIC	??_C@_0BE@MDEMKJPG@JoinGamePeopleCount@		; `string'
PUBLIC	??_C@_0BB@LHDODACP@strRoomScoreInfo@		; `string'
PUBLIC	??_C@_0DE@GFLNGEDD@CDataBaseEngineSink?3?3OnRequestq@ ; `string'
PUBLIC	?__LINE__Var@?0??OnRequestQueryPersonalRule@CDataBaseEngineSink@@IAE_NKPAXG@Z@4JA ; `CDataBaseEngineSink::OnRequestQueryPersonalRule'::`1'::__LINE__Var
PUBLIC	??_C@_0M@EODDKFON@?$EAdwServerID@		; `string'
PUBLIC	??_C@_0BJ@JOCGFOJL@?$LL?q?H?$KB?K?$LN?H?K?$LH?$LP?$LG?$KI?V?F?E?d?V?C?$LD?v?$LE?m?$KD?$KB@ ; `string'
PUBLIC	??_C@_0DA@NIAFDBBJ@CDataBaseEngineSink?3?3OnRequestQ@ ; `string'
PUBLIC	?__LINE__Var@?0??OnRequestCloseRoomWriteDissumeTime@CDataBaseEngineSink@@IAE_NKPAXG@Z@4JA ; `CDataBaseEngineSink::OnRequestCloseRoomWriteDissumeTime'::`1'::__LINE__Var
PUBLIC	??_C@_0CB@FOIHGICL@GSP_GS_CloseRoomWriteDissumeTim@ ; `string'
PUBLIC	??_C@_0DI@HAFLFKJG@CDataBaseEngineSink?3?3OnRequestC@ ; `string'
PUBLIC	??_C@_0CA@FIKKJKAF@GSP_GS_GetPersonalRoomUserScore@ ; `string'
PUBLIC	??_C@_06BGALJGJM@RoomID@			; `string'
PUBLIC	??_C@_0M@PPONDONP@UserNicname@			; `string'
PUBLIC	??_C@_0BA@FHKDBDJN@cbIsDisssumRoom@		; `string'
PUBLIC	??_C@_0DB@EDNNFBBL@CDataBaseEngineSink?3?3OnRequestQ@ ; `string'
PUBLIC	?__LINE__Var@?0??OnRequestAccountBind@CDataBaseEngineSink@@IAE_NKPAXG@Z@4JA ; `CDataBaseEngineSink::OnRequestAccountBind'::`1'::__LINE__Var
PUBLIC	??_C@_0BB@MBANJBOK@?$EAstrBindAccounts@		; `string'
PUBLIC	??_C@_0BB@OICLFCKK@?$EAstrBindPassword@		; `string'
PUBLIC	??_C@_0BB@CPBPFAOJ@?$EAstrBindSpreader@		; `string'
PUBLIC	??_C@_0BD@FLHDEIJC@GSP_GP_AccountBind@		; `string'
PUBLIC	??_C@_0CK@DGKNIHOI@CDataBaseEngineSink?3?3OnRequestA@ ; `string'
PUBLIC	?__LINE__Var@?0??OnRequestAccountBindExists@CDataBaseEngineSink@@IAE_NKPAXG@Z@4JA ; `CDataBaseEngineSink::OnRequestAccountBindExists'::`1'::__LINE__Var
PUBLIC	??_C@_0BJ@GKEOEPGG@GSP_GP_AccountBindExists@	; `string'
PUBLIC	??_C@_0DA@CNDGIIBC@CDataBaseEngineSink?3?3OnRequestA@ ; `string'
PUBLIC	?__LINE__Var@?0??OnRequestGetParameter@CDataBaseEngineSink@@IAE_NKPAXG@Z@4JA ; `CDataBaseEngineSink::OnRequestGetParameter'::`1'::__LINE__Var
PUBLIC	??_C@_0BL@LMBNLNO@GSP_GP_AndroidGetParameter@	; `string'
PUBLIC	??_C@_0CL@LBKNCH@CDataBaseEngineSink?3?3OnRequestG@ ; `string'
PUBLIC	?__LINE__Var@?0??OnRequestAddParameter@CDataBaseEngineSink@@IAE_NKPAXG@Z@4JA ; `CDataBaseEngineSink::OnRequestAddParameter'::`1'::__LINE__Var
PUBLIC	??_C@_0P@BCPDFEEF@?$EAdwServiceMode@		; `string'
PUBLIC	??_C@_0BA@DNMBDDEJ@?$EAdwAndroidCount@		; `string'
PUBLIC	??_C@_0N@DJDPOIPC@?$EAdwEnterTime@		; `string'
PUBLIC	??_C@_0N@DLMBNGNK@?$EAdwLeaveTime@		; `string'
PUBLIC	??_C@_0BE@HBIDCGLB@?$EAdwEnterMinInterval@	; `string'
PUBLIC	??_C@_0BE@OBPADGFL@?$EAdwEnterMaxInterval@	; `string'
PUBLIC	??_C@_0BE@OOKMBBCA@?$EAdwLeaveMinInterval@	; `string'
PUBLIC	??_C@_0BE@HONPABMK@?$EAdwLeaveMaxInterval@	; `string'
PUBLIC	??_C@_0P@DJMCOBJM@?$EAlTakeMinScore@		; `string'
PUBLIC	??_C@_0P@OOCJFDNN@?$EAlTakeMaxScore@		; `string'
PUBLIC	??_C@_0BE@HDPBCAOP@?$EAdwSwitchMinInnings@	; `string'
PUBLIC	??_C@_0BE@LPPMFLOA@?$EAdwSwitchMaxInnings@	; `string'
PUBLIC	??_C@_0BH@DNAMKFJF@?$EAdwAndroidCountMember0@	; `string'
PUBLIC	??_C@_0BH@CEBHJENE@?$EAdwAndroidCountMember1@	; `string'
PUBLIC	??_C@_0BH@PDKMHBH@?$EAdwAndroidCountMember2@	; `string'
PUBLIC	??_C@_0BH@BGCBPGFG@?$EAdwAndroidCountMember3@	; `string'
PUBLIC	??_C@_0BH@FJGAGAJB@?$EAdwAndroidCountMember4@	; `string'
PUBLIC	??_C@_0BH@EAHLFBNA@?$EAdwAndroidCountMember5@	; `string'
PUBLIC	??_C@_0BL@JOHHIMKH@GSP_GP_AndroidAddParameter@	; `string'
PUBLIC	??_C@_0CL@JFAHPKFO@CDataBaseEngineSink?3?3OnRequestA@ ; `string'
PUBLIC	?__LINE__Var@?0??OnRequestModifyParameter@CDataBaseEngineSink@@IAE_NKPAXG@Z@4JA ; `CDataBaseEngineSink::OnRequestModifyParameter'::`1'::__LINE__Var
PUBLIC	??_C@_0L@NFAFHHEE@?$EAdwDatchID@		; `string'
PUBLIC	??_C@_0BO@IAKFPJFL@GSP_GP_AndroidModifyParameter@ ; `string'
PUBLIC	??_C@_0CO@BDNABOED@CDataBaseEngineSink?3?3OnRequestM@ ; `string'
PUBLIC	?__LINE__Var@?0??OnRequestDeleteParameter@CDataBaseEngineSink@@IAE_NKPAXG@Z@4JA ; `CDataBaseEngineSink::OnRequestDeleteParameter'::`1'::__LINE__Var
PUBLIC	??_C@_0L@BDGKHOMD@?$EAdwBatchID@		; `string'
PUBLIC	??_C@_0BO@NHPNAIDB@GSP_GP_AndroidDeleteParameter@ ; `string'
PUBLIC	??_C@_0CO@EEIIOPCJ@CDataBaseEngineSink?3?3OnRequestD@ ; `string'
PUBLIC	?__LINE__Var@?0??OnRequestBindSpreader@CDataBaseEngineSink@@IAE_NKPAXG@Z@4JA ; `CDataBaseEngineSink::OnRequestBindSpreader'::`1'::__LINE__Var
PUBLIC	??_C@_0O@GFDAHEDC@?$EAdwSpreaderID@		; `string'
PUBLIC	??_C@_0BE@NIHGLBBN@GSP_GP_BindSpreader@		; `string'
PUBLIC	??_C@_09GBNFJIGB@dwDiamond@			; `string'
PUBLIC	??_C@_0BA@LFAFGHBB@dwRewardDiamond@		; `string'
PUBLIC	??_C@_0CL@GIMLPHPA@CDataBaseEngineSink?3?3OnRequestB@ ; `string'
PUBLIC	?__LINE__Var@?0??OnRequestQueryIndividual@CDataBaseEngineSink@@IAE_NKPAXG@Z@4JA ; `CDataBaseEngineSink::OnRequestQueryIndividual'::`1'::__LINE__Var
PUBLIC	??_C@_0BL@LICHLADA@GSP_GP_QueryUserIndividual@	; `string'
PUBLIC	??_C@_06OFHCDFJK@UserID@			; `string'
PUBLIC	??_C@_08FDHMOIIA@UserNote@			; `string'
PUBLIC	??_C@_0N@CLIEFGAF@Compellation@			; `string'
PUBLIC	??_C@_0L@GPHEHJAI@PassPortID@			; `string'
PUBLIC	??_C@_09MAIOJANC@SeatPhone@			; `string'
PUBLIC	??_C@_0M@OJIHCJC@MobilePhone@			; `string'
PUBLIC	??_C@_02MOGAAOHP@QQ@				; `string'
PUBLIC	??_C@_05LMBPBNBJ@EMail@				; `string'
PUBLIC	??_C@_0O@GKEPGAEM@DwellingPlace@		; `string'
PUBLIC	??_C@_08JOLEHEIP@Spreader@			; `string'
PUBLIC	??_C@_0CO@JLJPDDOL@CDataBaseEngineSink?3?3OnRequestQ@ ; `string'
PUBLIC	?__LINE__Var@?0??OnRequestQueryInsureInfo@CDataBaseEngineSink@@IAE_NKPAXG@Z@4JA ; `CDataBaseEngineSink::OnRequestQueryInsureInfo'::`1'::__LINE__Var
PUBLIC	??_C@_0BL@GGGEOIGJ@GSP_GR_QueryUserInsureInfo@	; `string'
PUBLIC	??_C@_0P@DBBFLPKL@EnjoinTransfer@		; `string'
PUBLIC	??_C@_0M@KJEDGHOP@RevenueTake@			; `string'
PUBLIC	??_C@_0BA@HIHDDCHL@RevenueTransfer@		; `string'
PUBLIC	??_C@_0BG@EHBBDEOF@RevenueTransferMember@	; `string'
PUBLIC	??_C@_08BHBELLIH@ServerID@			; `string'
PUBLIC	??_C@_05DGAPONBB@Score@				; `string'
PUBLIC	??_C@_06CMJCJHGM@Insure@			; `string'
PUBLIC	??_C@_0BF@DFIKLPAJ@TransferPrerequisite@	; `string'
PUBLIC	??_C@_09BHJIBPFI@UserRight@			; `string'
PUBLIC	??_C@_0CO@GLIMKCDC@CDataBaseEngineSink?3?3OnRequestQ@ ; `string'
PUBLIC	?__LINE__Var@?0??OnRequestQueryTransferUserInfo@CDataBaseEngineSink@@IAE_NKPAXG@Z@4JA ; `CDataBaseEngineSink::OnRequestQueryTransferUserInfo'::`1'::__LINE__Var
PUBLIC	??_C@_0O@KBJAEAIJ@?$EAcbByNickName@		; `string'
PUBLIC	??_C@_0BN@BPPBPPLC@GSP_GR_QueryTransferUserInfo@ ; `string'
PUBLIC	??_C@_06KGJDDPAK@GameID@			; `string'
PUBLIC	??_C@_08HAKGLFIM@Accounts@			; `string'
PUBLIC	??_C@_0DE@LJCJKDHO@CDataBaseEngineSink?3?3OnRequestQ@ ; `string'
PUBLIC	?__LINE__Var@?0??OnRequestQueryTransferRebate@CDataBaseEngineSink@@IAE_NKPAXG@Z@4JA ; `CDataBaseEngineSink::OnRequestQueryTransferRebate'::`1'::__LINE__Var
PUBLIC	??_C@_0BL@EDLENBNJ@GSP_GR_QueryTransferRebate@	; `string'
PUBLIC	??_C@_0O@ODELFGBD@RebateEnabled@		; `string'
PUBLIC	??_C@_05OOEBDDIB@Ingot@				; `string'
PUBLIC	??_C@_0L@KHHLPNPI@LoveLiness@			; `string'
PUBLIC	??_C@_0DC@CDLHLEMA@CDataBaseEngineSink?3?3OnRequestQ@ ; `string'
PUBLIC	??_C@_0BJ@DMKNJEFD@GSP_GP_LoadCheckInReward@	; `string'
PUBLIC	??_C@_05IDMPJLID@DayID@				; `string'
PUBLIC	??_C@_0L@CKLPJIFO@RewardGold@			; `string'
PUBLIC	??_C@_0CM@CIKBCNNI@CDataBaseEngineSink?3?3OnRequestC@ ; `string'
PUBLIC	?__LINE__Var@?0??OnRequestCheckInQueryInfo@CDataBaseEngineSink@@IAE_NKPAXG@Z@4JA ; `CDataBaseEngineSink::OnRequestCheckInQueryInfo'::`1'::__LINE__Var
PUBLIC	??_C@_0BI@LFNCLCOF@GSP_GR_CheckInQueryInfo@	; `string'
PUBLIC	??_C@_0L@GCLIEHGN@SeriesDate@			; `string'
PUBLIC	??_C@_0P@BNJFDPAO@TodayCheckIned@		; `string'
PUBLIC	??_C@_0CP@LGOLPPK@CDataBaseEngineSink?3?3OnRequestC@ ; `string'
PUBLIC	?__LINE__Var@?0??OnRequestCheckInDone@CDataBaseEngineSink@@IAE_NKPAXG@Z@4JA ; `CDataBaseEngineSink::OnRequestCheckInDone'::`1'::__LINE__Var
PUBLIC	??_C@_0BD@OMHLIIHM@GSP_GR_CheckInDone@		; `string'
PUBLIC	??_C@_0CK@GAMLIDKL@CDataBaseEngineSink?3?3OnRequestC@ ; `string'
PUBLIC	?__LINE__Var@?0??OnRequestTaskGiveUp@CDataBaseEngineSink@@IAE_NKPAXG@Z@4JA ; `CDataBaseEngineSink::OnRequestTaskGiveUp'::`1'::__LINE__Var
PUBLIC	??_C@_08MMMILHNH@?$EAwTaskID@			; `string'
PUBLIC	??_C@_0BC@OIFHAIIF@GSP_GR_TaskGiveUp@		; `string'
PUBLIC	??_C@_0CJ@ILCACMNL@CDataBaseEngineSink?3?3OnRequestT@ ; `string'
PUBLIC	?__LINE__Var@?0??OnRequestTaskTake@CDataBaseEngineSink@@IAE_NKPAXG@Z@4JA ; `CDataBaseEngineSink::OnRequestTaskTake'::`1'::__LINE__Var
PUBLIC	??_C@_0BA@OEKNDNNG@GSP_GR_TaskTake@		; `string'
PUBLIC	??_C@_0CH@BNKPKJJC@CDataBaseEngineSink?3?3OnRequestT@ ; `string'
PUBLIC	?__LINE__Var@?0??OnRequestTaskReward@CDataBaseEngineSink@@IAE_NKPAXG@Z@4JA ; `CDataBaseEngineSink::OnRequestTaskReward'::`1'::__LINE__Var
PUBLIC	??_C@_0BC@LNNECEA@GSP_GR_TaskReward@		; `string'
PUBLIC	??_C@_0CJ@GIKKGGBO@CDataBaseEngineSink?3?3OnRequestT@ ; `string'
PUBLIC	?__LINE__Var@?0??OnRequestTaskQueryInfo@CDataBaseEngineSink@@IAE_NKPAXG@Z@4JA ; `CDataBaseEngineSink::OnRequestTaskQueryInfo'::`1'::__LINE__Var
PUBLIC	??_C@_0BF@CABIHPIH@GSP_GR_QueryTaskInfo@	; `string'
PUBLIC	??_C@_06MPKKOHIJ@TaskID@			; `string'
PUBLIC	??_C@_0L@LCDMJJED@TaskStatus@			; `string'
PUBLIC	??_C@_08DAJBHHIG@Progress@			; `string'
PUBLIC	??_C@_0CM@BKBDBKAO@CDataBaseEngineSink?3?3OnRequestT@ ; `string'
PUBLIC	??_C@_0BG@GGEFBDLG@GSP_GP_LoadBaseEnsure@	; `string'
PUBLIC	??_C@_09DDOCKIAO@TakeTimes@			; `string'
PUBLIC	??_C@_0M@HIMENDIH@ScoreAmount@			; `string'
PUBLIC	??_C@_0P@BGLILAFC@ScoreCondition@		; `string'
PUBLIC	??_C@_0CN@BCCKMKAP@CDataBaseEngineSink?3?3OnRequestL@ ; `string'
PUBLIC	?__LINE__Var@?0??OnRequestTakeBaseEnsure@CDataBaseEngineSink@@IAE_NKPAXG@Z@4JA ; `CDataBaseEngineSink::OnRequestTakeBaseEnsure'::`1'::__LINE__Var
PUBLIC	??_C@_0BC@HOOFHDNN@?$EAstrNotifyContent@	; `string'
PUBLIC	??_C@_0BG@IHMPDPLH@GSP_GP_TakeBaseEnsure@	; `string'
PUBLIC	??_C@_0CN@PDKAOGAO@CDataBaseEngineSink?3?3OnRequestT@ ; `string'
PUBLIC	??_C@_0BG@BFDGMLJJ@GSP_GR_LoadSpreadInfo@	; `string'
PUBLIC	??_C@_0M@HBEICICK@SpreadCount@			; `string'
PUBLIC	??_C@_0N@JMEHKEMF@SpreadReward@			; `string'
PUBLIC	??_C@_0CO@OIBIPPLI@CDataBaseEngineSink?3?3OnRequestQ@ ; `string'
PUBLIC	??_C@_0BE@IIOBDMHO@GSP_GP_LoadRealAuth@		; `string'
PUBLIC	??_C@_0O@DJLIOBBJ@AuthRealAward@		; `string'
PUBLIC	??_C@_0P@HAGEGHLM@AuthentDisable@		; `string'
PUBLIC	??_C@_0CL@DIFMHKJD@CDataBaseEngineSink?3?3OnRequestL@ ; `string'
PUBLIC	??_C@_0BL@JMLNBDFD@GSP_GR_LoadGrowLevelConfig@	; `string'
PUBLIC	??_C@_07CLGGPGGC@LevelID@			; `string'
PUBLIC	??_C@_0L@DCGNFONO@Experience@			; `string'
PUBLIC	??_C@_0DC@PMLOHGEK@CDataBaseEngineSink?3?3OnRequestL@ ; `string'
PUBLIC	?__LINE__Var@?0??OnRequestQueryGrowLevelParameter@CDataBaseEngineSink@@IAE_NKPAXG@Z@4JA ; `CDataBaseEngineSink::OnRequestQueryGrowLevelParameter'::`1'::__LINE__Var
PUBLIC	??_C@_0BE@FBKCBHAM@?$EAstrUpgradeDescribe@	; `string'
PUBLIC	??_C@_0BG@MGKFFOPK@GSP_GP_QueryGrowLevel@	; `string'
PUBLIC	??_C@_0M@NBPAMKCD@CurrLevelID@			; `string'
PUBLIC	??_C@_0BC@CPJKHIND@UpgradeExperience@		; `string'
PUBLIC	??_C@_0M@GNOFDGAD@RewardMedal@			; `string'
PUBLIC	??_C@_0BE@JMMGGPNE@?$EAstrUpGradeDescribe@	; `string'
PUBLIC	??_C@_0DG@OCMGMCGE@CDataBaseEngineSink?3?3OnRequestQ@ ; `string'
PUBLIC	??_C@_0CA@EADOLEEH@GSP_GP_LoadGamePropertyTypeItem@ ; `string'
PUBLIC	??_C@_06FBNNGAO@SortID@				; `string'
PUBLIC	??_C@_06IHFAGKJM@TypeID@			; `string'
PUBLIC	??_C@_08NNKIOIN@TypeName@			; `string'
PUBLIC	??_C@_0CB@KHPJDHDO@GSP_GP_LoadGamePropertyRelatIte@ ; `string'
PUBLIC	??_C@_0L@FPKPEDKI@PropertyID@			; `string'
PUBLIC	??_C@_0BM@BBCHOPIE@GSP_GP_LoadGamePropertyItem@	; `string'
PUBLIC	??_C@_02OLOABKKD@ID@				; `string'
PUBLIC	??_C@_04BDAIJBLK@Kind@				; `string'
PUBLIC	??_C@_0O@LDHMMBFN@ExchangeRatio@		; `string'
PUBLIC	??_C@_04FOIHINLL@Cash@				; `string'
PUBLIC	??_C@_04PABHPHAJ@Gold@				; `string'
PUBLIC	??_C@_09LPJHEOCP@UserMedal@			; `string'
PUBLIC	??_C@_07JEPNMDKI@UseArea@			; `string'
PUBLIC	??_C@_0M@CENFFNCO@ServiceArea@			; `string'
PUBLIC	??_C@_0P@FDPEKBGF@SendLoveLiness@		; `string'
PUBLIC	??_C@_0P@ENAAGJJA@RecvLoveLiness@		; `string'
PUBLIC	??_C@_0P@JNHGNONC@UseResultsGold@		; `string'
PUBLIC	??_C@_0BE@IAAJAJPN@UseResultsValidTime@		; `string'
PUBLIC	??_C@_0CB@MPNELBLF@UseResultsValidTimeScoreMultipl@ ; `string'
PUBLIC	??_C@_0BG@LAGKAGMA@UseResultsGiftPackage@	; `string'
PUBLIC	??_C@_09OBCHOID@Recommend@			; `string'
PUBLIC	??_C@_04FABLJDN@Name@				; `string'
PUBLIC	??_C@_0BA@KPHOLCOF@RegulationsInfo@		; `string'
PUBLIC	??_C@_0BP@ICIKFNME@GSP_GP_LoadGamePropertySubItem@ ; `string'
PUBLIC	??_C@_07KOLNMDM@OwnerID@			; `string'
PUBLIC	??_C@_05IJGIMMHE@Count@				; `string'
PUBLIC	??_C@_0DD@HBICOBCA@CDataBaseEngineSink?3?3OnRequestL@ ; `string'
PUBLIC	?__LINE__Var@?0??OnRequestBuyGameProperty@CDataBaseEngineSink@@IAE_NKPAXG@Z@4JA ; `CDataBaseEngineSink::OnRequestBuyGameProperty'::`1'::__LINE__Var
PUBLIC	??_C@_0O@DKLCKEMB@?$EAdwPropertyID@		; `string'
PUBLIC	??_C@_0P@EDMHJKLC@?$EAiDiamondCount@		; `string'
PUBLIC	??_C@_0BD@IGKNKDED@GSP_GP_BuyProperty@		; `string'
PUBLIC	??_C@_09GGKKDIOI@ItemCount@			; `string'
PUBLIC	??_C@_07KLLDCFGI@Diamond@			; `string'
PUBLIC	??_C@_0M@CEFIIFDG@MemberOrder@			; `string'
PUBLIC	??_C@_0CO@MPKMHGDB@CDataBaseEngineSink?3?3OnRequestB@ ; `string'
PUBLIC	?__LINE__Var@?0??OnRequestUseProperty@CDataBaseEngineSink@@IAE_NKPAXG@Z@4JA ; `CDataBaseEngineSink::OnRequestUseProperty'::`1'::__LINE__Var
PUBLIC	??_C@_0O@GOEJDCMG@?$EAdwRecvUserID@		; `string'
PUBLIC	??_C@_09NLOJOBDL@?$EAdwPropID@			; `string'
PUBLIC	??_C@_0N@PEPMKFNO@?$EAdwPropCount@		; `string'
PUBLIC	??_C@_0P@IDLLGLHM@GSP_GP_UseProp@		; `string'
PUBLIC	??_C@_0P@DNPEGDJL@RemainderCount@		; `string'
PUBLIC	??_C@_07NBJKJPHI@UseTime@			; `string'
PUBLIC	??_C@_0CK@EGNEMDGP@CDataBaseEngineSink?3?3OnRequestU@ ; `string'
PUBLIC	?__LINE__Var@?0??OnRequestPropertyQuerySingle@CDataBaseEngineSink@@IAE_NKPAXG@Z@4JA ; `CDataBaseEngineSink::OnRequestPropertyQuerySingle'::`1'::__LINE__Var
PUBLIC	??_C@_0BK@GGLOIKMH@GSP_GP_PropertQuerySingle@	; `string'
PUBLIC	??_C@_0DC@OEEEAILP@CDataBaseEngineSink?3?3OnRequestP@ ; `string'
PUBLIC	?__LINE__Var@?0??OnRequestUserBackpackProperty@CDataBaseEngineSink@@IAE_NKPAXG@Z@4JA ; `CDataBaseEngineSink::OnRequestUserBackpackProperty'::`1'::__LINE__Var
PUBLIC	??_C@_07PAELCOKM@?$EAdwKind@			; `string'
PUBLIC	??_C@_0BJ@NINJDHMC@GSP_GP_QueryUserBackpack@	; `string'
PUBLIC	??_C@_0L@IGEJKFCI@GoodsCount@			; `string'
PUBLIC	??_C@_07MDLPIIFA@GoodsID@			; `string'
PUBLIC	??_C@_0BA@OKKNDLPJ@?$LH?$KC?K?M?$LF?$MA?$LO?$NP?J?$PN?A?$LP?3?$CFd@ ; `string'
PUBLIC	??_C@_0DD@GILLNGIP@CDataBaseEngineSink?3?3OnRequestU@ ; `string'
PUBLIC	?__LINE__Var@?0??OnRequestPropertyBuff@CDataBaseEngineSink@@IAE_NKPAXG@Z@4JA ; `CDataBaseEngineSink::OnRequestPropertyBuff'::`1'::__LINE__Var
PUBLIC	??_C@_0BI@NBGDCCNF@GSP_GP_LoadUserGameBuff@	; `string'
PUBLIC	??_C@_06HCHMMKKG@KindID@			; `string'
PUBLIC	??_C@_0CL@GEDHBGBM@CDataBaseEngineSink?3?3OnRequestP@ ; `string'
PUBLIC	?__LINE__Var@?0??OnRequestPropertyPresent@CDataBaseEngineSink@@IAE_NKPAXG@Z@4JA ; `CDataBaseEngineSink::OnRequestPropertyPresent'::`1'::__LINE__Var
PUBLIC	??_C@_0BF@FNAOCACP@?$EAstrReceiverNickName@	; `string'
PUBLIC	??_C@_0BC@MBPNHCPP@?$EAdwReceiverGameID@	; `string'
PUBLIC	??_C@_0CB@GDJHILDF@GSP_GP_UserSendPresentByNickNam@ ; `string'
PUBLIC	??_C@_0BL@FEGBPCHF@GSP_GP_UserSendPresentByID@	; `string'
PUBLIC	??_C@_0CO@GBFGHFMF@CDataBaseEngineSink?3?3OnRequestP@ ; `string'
PUBLIC	??_C@_0BK@NFGNJPHM@?T?y?K?M?$LF?$MA?$LO?$NP?J?$LB?5?J?$PN?$LO?$NN?$LP?b?$LC?Y?W?w?R?l?$LD?$KD@ ; `string'
PUBLIC	?__LINE__Var@?0??OnRequestQuerySendPresent@CDataBaseEngineSink@@IAE_NKPAXG@Z@4JA ; `CDataBaseEngineSink::OnRequestQuerySendPresent'::`1'::__LINE__Var
PUBLIC	??_C@_0BI@HEBCAEB@GSP_GP_QuerySendPresent@	; `string'
PUBLIC	??_C@_0P@KKCLPPAI@ReceiverUserID@		; `string'
PUBLIC	??_C@_06JMKPBJLC@PropID@			; `string'
PUBLIC	??_C@_09FJMCAKIG@PropCount@			; `string'
PUBLIC	??_C@_08FBPGFENK@SendTime@			; `string'
PUBLIC	??_C@_0CP@MNEJCLKP@CDataBaseEngineSink?3?3OnRequestQ@ ; `string'
PUBLIC	?__LINE__Var@?0??OnRequestGetSendPresent@CDataBaseEngineSink@@IAE_NKPAXG@Z@4JA ; `CDataBaseEngineSink::OnRequestGetSendPresent'::`1'::__LINE__Var
PUBLIC	??_C@_0M@HCJEDCFO@?$EAszPassword@		; `string'
PUBLIC	??_C@_0BG@OJMAFDGN@GSP_GP_GetSendPresent@	; `string'
PUBLIC	??_C@_0CN@JNKPIKNE@CDataBaseEngineSink?3?3OnRequestG@ ; `string'
PUBLIC	??_C@_0BL@DDFCIKG@GSP_GP_LoadMemberParameter@	; `string'
PUBLIC	??_C@_0L@CCDAGKKN@MemberName@			; `string'
PUBLIC	??_C@_08BPIBDNIC@TaskRate@			; `string'
PUBLIC	??_C@_08KNMAEPIC@ShopRate@			; `string'
PUBLIC	??_C@_0L@HCDIDBBG@InsureRate@			; `string'
PUBLIC	??_C@_0L@FNLEFFGF@DayPresent@			; `string'
PUBLIC	??_C@_09MEAFLDAC@DayGiftID@			; `string'
PUBLIC	??_C@_0DC@HJENCEP@CDataBaseEngineSink?3?3OnRequestM@ ; `string'
PUBLIC	?__LINE__Var@?0??OnRequestMemberQueryInfo@CDataBaseEngineSink@@IAE_NKPAXG@Z@4JA ; `CDataBaseEngineSink::OnRequestMemberQueryInfo'::`1'::__LINE__Var
PUBLIC	??_C@_0BH@LLGIDDOH@GSP_GP_MemberQueryInfo@	; `string'
PUBLIC	??_C@_07FHKFELEN@Present@			; `string'
PUBLIC	??_C@_04JCCJDPFC@Gift@				; `string'
PUBLIC	??_C@_0BH@GJOLKKFC@GSP_GP_MemberGiftQuery@	; `string'
PUBLIC	??_C@_0CO@JKBFHBG@CDataBaseEngineSink?3?3OnRequestM@ ; `string'
PUBLIC	?__LINE__Var@?0??OnRequestMemberDayPresent@CDataBaseEngineSink@@IAE_NKPAXG@Z@4JA ; `CDataBaseEngineSink::OnRequestMemberDayPresent'::`1'::__LINE__Var
PUBLIC	??_C@_0BI@IMKLDJBC@GSP_GP_MemberDayPresent@	; `string'
PUBLIC	??_C@_0CP@EGKDDCPM@CDataBaseEngineSink?3?3OnRequestM@ ; `string'
PUBLIC	?__LINE__Var@?0??OnRequestMemberDayGift@CDataBaseEngineSink@@IAE_NKPAXG@Z@4JA ; `CDataBaseEngineSink::OnRequestMemberDayGift'::`1'::__LINE__Var
PUBLIC	??_C@_0BF@LPGDHGAC@GSP_GP_MemberDayGift@	; `string'
PUBLIC	??_C@_0CM@GBGIFFIB@CDataBaseEngineSink?3?3OnRequestM@ ; `string'
PUBLIC	?__LINE__Var@?0??OnRequestPurchaseMember@CDataBaseEngineSink@@IAE_NKPAXG@Z@4JA ; `CDataBaseEngineSink::OnRequestPurchaseMember'::`1'::__LINE__Var
PUBLIC	??_C@_0P@NMLGPOCE@?$EAcbMemberOrder@		; `string'
PUBLIC	??_C@_0O@OLHLCFMI@?$EAPurchaseTime@		; `string'
PUBLIC	??_C@_0BG@EJNBGOOH@GSP_GR_PurchaseMember@	; `string'
PUBLIC	??_C@_09DOHMEJBC@CurrScore@			; `string'
PUBLIC	??_C@_09JAMNPFHM@CurrBeans@			; `string'
PUBLIC	??_C@_0CN@OJICCHJJ@CDataBaseEngineSink?3?3OnRequestP@ ; `string'
PUBLIC	??_C@_0BJ@OKFJHKJC@?J?$PN?$LO?$NN?$LP?b?R?l?$LD?$KD?$KD?$KM?G?k?I?T?$LK?s?T?Y?J?T?$KD?$KB@ ; `string'
PUBLIC	?__LINE__Var@?0??OnRequestExchangeScoreByIngot@CDataBaseEngineSink@@IAE_NKPAXG@Z@4JA ; `CDataBaseEngineSink::OnRequestExchangeScoreByIngot'::`1'::__LINE__Var
PUBLIC	??_C@_0P@HLLJOKNA@?$EAExchangeIngot@		; `string'
PUBLIC	??_C@_0BM@CGBMFEMN@GSP_GR_ExchangeScoreByIngot@	; `string'
PUBLIC	??_C@_09OGDCJHIC@CurrIngot@			; `string'
PUBLIC	??_C@_0DD@ECBHPPGI@CDataBaseEngineSink?3?3OnRequestE@ ; `string'
PUBLIC	?__LINE__Var@?0??OnRequestExchangeScoreByBeans@CDataBaseEngineSink@@IAE_NKPAXG@Z@4JA ; `CDataBaseEngineSink::OnRequestExchangeScoreByBeans'::`1'::__LINE__Var
PUBLIC	??_C@_0P@NEGIICO@?$EAExchangeBeans@		; `string'
PUBLIC	??_C@_0BM@FAODDGDD@GSP_GR_ExchangeScoreByBeans@	; `string'
PUBLIC	??_C@_0DD@DEOIJNJG@CDataBaseEngineSink?3?3OnRequestE@ ; `string'
PUBLIC	?__LINE__Var@?0??OnRequestRoomCardExchangeToScore@CDataBaseEngineSink@@IAE_NKPAXG@Z@4JA ; `CDataBaseEngineSink::OnRequestRoomCardExchangeToScore'::`1'::__LINE__Var
PUBLIC	??_C@_0BC@MBMCPADG@?$EAExchangeRoomCard@	; `string'
PUBLIC	??_C@_0BP@FMJNFLDK@GSP_GR_ExchangeRoomCardByScore@ ; `string'
PUBLIC	??_C@_0DG@CKJHFAJB@CDataBaseEngineSink?3?3OnRequestR@ ; `string'
PUBLIC	?__LINE__Var@?0??OnRequestVideoInfo@CDataBaseEngineSink@@IAE_NKPAXG@Z@4JA ; `CDataBaseEngineSink::OnRequestVideoInfo'::`1'::__LINE__Var
PUBLIC	??_C@_0N@KOJOJAEA@?$EAcbQueryType@		; `string'
PUBLIC	??_C@_0M@NJBKEGLL@?$EAdwPlayBack@		; `string'
PUBLIC	??_C@_0N@DADHJJFJ@?$EAwIndexBegin@		; `string'
PUBLIC	??_C@_0L@OAIFHDFP@?$EAwIndexEnd@		; `string'
PUBLIC	??_C@_0BG@GFFABCHD@GSP_MB_QueryVideoInfo@	; `string'
PUBLIC	??_C@_09KIJJLOBO@QueryType@			; `string'
PUBLIC	??_C@_08CELDJAGK@NickName@			; `string'
PUBLIC	??_C@_0L@PJNJBIGI@TotalScore@			; `string'
PUBLIC	??_C@_0L@LAPNHMFE@CreateTime@			; `string'
PUBLIC	??_C@_07PIHEHKIA@ChairID@			; `string'
PUBLIC	??_C@_06HKFFEOFI@Gender@			; `string'
PUBLIC	??_C@_0N@BLNCHDLG@PersonalGUID@			; `string'
PUBLIC	??_C@_0L@NBILIIEO@CreateRoom@			; `string'
PUBLIC	??_C@_0M@FHIFLAKK@VideoNumber@			; `string'
PUBLIC	??_C@_0L@FIPLHNIO@PlayUserID@			; `string'
PUBLIC	??_C@_0CI@MPIBMGCD@CDataBaseEngineSink?3?3OnRequestV@ ; `string'
PUBLIC	?__LINE__Var@?0??OnRequestVideoDetails@CDataBaseEngineSink@@IAE_NKPAXG@Z@4JA ; `CDataBaseEngineSink::OnRequestVideoDetails'::`1'::__LINE__Var
PUBLIC	??_C@_0BA@PJBKFBJA@?$EAszPersonalGUID@		; `string'
PUBLIC	??_C@_0BJ@COPFALGJ@GSP_MB_QueryVideoDetails@	; `string'
PUBLIC	??_C@_07IIFONINF@GameNum@			; `string'
PUBLIC	??_C@_09DJNPMOMG@LoopCount@			; `string'
PUBLIC	??_C@_0CL@FGMJMHCK@CDataBaseEngineSink?3?3OnRequestV@ ; `string'
PUBLIC	?__LINE__Var@?0??OnRequestVideoDetailsByRoomID@CDataBaseEngineSink@@IAE_NKPAXG@Z@4JA ; `CDataBaseEngineSink::OnRequestVideoDetailsByRoomID'::`1'::__LINE__Var
PUBLIC	??_C@_0CB@MBOOOBIC@GSP_MB_QueryVideoDetailsByRoomI@ ; `string'
PUBLIC	??_C@_0DD@NHFLLNKL@CDataBaseEngineSink?3?3OnRequestV@ ; `string'
PUBLIC	?__LINE__Var@?0??OnRequestPlayBackCodeYZ@CDataBaseEngineSink@@IAE_NKPAXG@Z@4JA ; `CDataBaseEngineSink::OnRequestPlayBackCodeYZ'::`1'::__LINE__Var
PUBLIC	??_C@_09PBJAPHHK@?$EAszUserID@			; `string'
PUBLIC	??_C@_0BL@ELDEPGOA@GSP_MB_QueryPlayBackCodeYZ@	; `string'
PUBLIC	??_C@_04BCJPDBDA@Code@				; `string'
PUBLIC	??_C@_0CN@CLCBMIB@CDataBaseEngineSink?3?3OnRequestP@ ; `string'
PUBLIC	?__LINE__Var@?0??OnRequestPlayBackCode@CDataBaseEngineSink@@IAE_NKPAXG@Z@4JA ; `CDataBaseEngineSink::OnRequestPlayBackCode'::`1'::__LINE__Var
PUBLIC	??_C@_0P@CHNNICGD@?$EAszVideoNumber@		; `string'
PUBLIC	??_C@_0BJ@IFOPCFOF@GSP_MB_QueryPlayBackCode@	; `string'
PUBLIC	??_C@_0CL@PNNDOJKG@CDataBaseEngineSink?3?3OnRequestP@ ; `string'
PUBLIC	??_C@_0BI@IIGOKBDB@GSP_GP_LoadGameTypeItem@	; `string'
PUBLIC	??_C@_06NPMPBOHL@JoinID@			; `string'
PUBLIC	??_C@_0BI@HLBBCJIM@GSP_GP_LoadGameKindItem@	; `string'
PUBLIC	??_C@_08POKFAGDA@KindName@			; `string'
PUBLIC	??_C@_0M@KPPMMAOL@ProcessName@			; `string'
PUBLIC	??_C@_08MIPGCPFD@GameFlag@			; `string'
PUBLIC	??_C@_0BI@JIMFOJKP@GSP_GP_LoadGameNodeItem@	; `string'
PUBLIC	??_C@_06EBBHJNI@NodeID@				; `string'
PUBLIC	??_C@_08BNHBMGBD@NodeName@			; `string'
PUBLIC	??_C@_0BI@NIKFHIOD@GSP_GP_LoadGamePageItem@	; `string'
PUBLIC	??_C@_06EOFKIFOL@PageID@			; `string'
PUBLIC	??_C@_0M@BKOENMNO@OperateType@			; `string'
PUBLIC	??_C@_0M@MLHPPPJP@DisplayName@			; `string'
PUBLIC	??_C@_0CL@LLIJCPKF@CDataBaseEngineSink?3?3OnRequestL@ ; `string'
PUBLIC	?__LINE__Var@?0??OnRequestOnLineCountInfo@CDataBaseEngineSink@@IAE_NKPAXG@Z@4JA ; `CDataBaseEngineSink::OnRequestOnLineCountInfo'::`1'::__LINE__Var
PUBLIC	??_C@_07PKOOGEJC@?$CFd?3?$CFld?$DL@		; `string'
PUBLIC	??_C@_0BC@NFDIOELC@?$EAstrMachineServer@	; `string'
PUBLIC	??_C@_0BC@ELHHFAJE@?$EAdwOnLineCountSum@	; `string'
PUBLIC	??_C@_0BD@DMJCDOHJ@?$EAdwAndroidCountSum@	; `string'
PUBLIC	??_C@_0BE@BCBJINEE@?$EAstrOnLineCountKind@	; `string'
PUBLIC	??_C@_0BF@HIHGIAMG@?$EAstrAndroidCountKind@	; `string'
PUBLIC	??_C@_0BH@NJCPKOEE@GSP_GP_OnLineCountInfo@	; `string'
PUBLIC	??_C@_0CO@GLOGMKLF@CDataBaseEngineSink?3?3OnRequestO@ ; `string'
PUBLIC	??_C@_0BN@FAFGANGC@GSP_GR_LoadPlatformParameter@ ; `string'
PUBLIC	??_C@_0N@GLADEADN@ExchangeRate@			; `string'
PUBLIC	??_C@_0BE@JJGPDMNP@PresentExchangeRate@		; `string'
PUBLIC	??_C@_08NAMHLHLO@RateGold@			; `string'
PUBLIC	??_C@_0DA@MPNFKOLJ@CDataBaseEngineSink?3?3OnRequestP@ ; `string'
PUBLIC	??_C@_0BE@DLBECAIO@GSP_GR_LoadTaskList@		; `string'
PUBLIC	??_C@_08CGFBPIO@TaskType@			; `string'
PUBLIC	??_C@_08LFHMHDM@UserType@			; `string'
PUBLIC	??_C@_07EDCJMCFO@Innings@			; `string'
PUBLIC	??_C@_09OHILOMME@TimeLimit@			; `string'
PUBLIC	??_C@_0BC@HPFPIBKO@StandardAwardGold@		; `string'
PUBLIC	??_C@_0BD@NAANCEAG@StandardAwardMedal@		; `string'
PUBLIC	??_C@_0BA@NOFNIKCO@MemberAwardGold@		; `string'
PUBLIC	??_C@_0BB@DNBEKFCN@MemberAwardMedal@		; `string'
PUBLIC	??_C@_08KJGGNPPO@TaskName@			; `string'
PUBLIC	??_C@_0BA@OIFLMOIG@TaskDescription@		; `string'
PUBLIC	??_C@_0CL@CDCPNHPC@CDataBaseEngineSink?3?3OnRequestL@ ; `string'
PUBLIC	??_C@_0M@IEJKBKHE@DynamicPass@			; `string'
PUBLIC	??_C@_05JILOFBHP@Beans@				; `string'
PUBLIC	??_C@_0M@LDOFEJIK@MoorMachine@			; `string'
PUBLIC	??_C@_0L@CPAJNIME@UnderWrite@			; `string'
PUBLIC	??_C@_0P@NJMFJJIN@MemberOverDate@		; `string'
PUBLIC	??_C@_0O@KJIEIIKM@InsureEnabled@		; `string'
PUBLIC	??_C@_07JLHLBMJL@IsAgent@			; `string'
PUBLIC	??_C@_0M@MCNDIEIO@?$EAdwDeviceID@		; `string'
PUBLIC	??_C@_0BN@LPJFEPID@GSP_GP_LoadAgentGameKindItem@ ; `string'
PUBLIC	??_C@_0CK@GJNGIALF@CDataBaseEngineSink?3?3OnLogonDis@ ; `string'
PUBLIC	??_C@_0BB@NPBCMNLJ@?$CFs?5?5?5?$CFs?5?$LD?v?O?V?R?l?$LD?$KD@ ; `string'
PUBLIC	??_C@_0L@DFHHCJIF@PasswordID@			; `string'
PUBLIC	??_C@_08EPCALAFM@RoomCard@			; `string'
PUBLIC	??_C@_0N@GDKJDNDM@LockServerID@			; `string'
PUBLIC	??_C@_0BC@OLNNOKFD@?$CFs?5?5?5?$CFs?5?5?$LD?v?O?V?R?l?$LD?$KD@ ; `string'
PUBLIC	??_C@_0M@DNAOABEK@SourceScore@			; `string'
PUBLIC	??_C@_0N@NACABOPM@SourceInsure@			; `string'
PUBLIC	??_C@_0O@NODKFAON@InsureRevenue@		; `string'
PUBLIC	??_C@_0P@MOIGFANG@VariationScore@		; `string'
PUBLIC	??_C@_0BA@CJGKEJMC@VariationInsure@		; `string'
PUBLIC	??_C@_07IHEJADLP@BatchID@			; `string'
PUBLIC	??_C@_0N@LHJAPBGB@AndroidCount@			; `string'
PUBLIC	??_C@_0M@CGPIJAFO@ServiceMode@			; `string'
PUBLIC	??_C@_09JEABEHKK@EnterTime@			; `string'
PUBLIC	??_C@_09JGPPHJIC@LeaveTime@			; `string'
PUBLIC	??_C@_0BB@CIODOFGF@EnterMinInterval@		; `string'
PUBLIC	??_C@_0BB@LIJAPFIP@EnterMaxInterval@		; `string'
PUBLIC	??_C@_0BB@LHMMNCPE@LeaveMinInterval@		; `string'
PUBLIC	??_C@_0BB@CHLPMCBO@LeaveMaxInterval@		; `string'
PUBLIC	??_C@_0BB@CKJBODDL@SwitchMinInnings@		; `string'
PUBLIC	??_C@_0BB@OGJMJIDE@SwitchMaxInnings@		; `string'
PUBLIC	??_C@_0N@INLGMBIA@TakeMinScore@			; `string'
PUBLIC	??_C@_0N@FKFNHDMB@TakeMaxScore@			; `string'
PUBLIC	??_C@_0BE@BKOJNNPF@AndroidCountMember0@		; `string'
PUBLIC	??_C@_0BE@DPCOMLE@AndroidCountMember1@		; `string'
PUBLIC	??_C@_0BE@CINPLPHH@AndroidCountMember2@		; `string'
PUBLIC	??_C@_0BE@DBMEIODG@AndroidCountMember3@		; `string'
PUBLIC	??_C@_0BE@HOIFBIPB@AndroidCountMember4@		; `string'
PUBLIC	??_C@_0BE@GHJOCJLA@AndroidCountMember5@		; `string'
PUBLIC	?__LINE__Var@?0??OnRequestPersonalRoomUserInfo@CDataBaseEngineSink@@IAE_NKPAXG@Z@4JA ; `CDataBaseEngineSink::OnRequestPersonalRoomUserInfo'::`1'::__LINE__Var
PUBLIC	??_C@_0CB@GDDFBHCI@GSP_GS_QueryPersonalRoomUserInf@ ; `string'
PUBLIC	??_C@_0DD@HLJBACG@CDataBaseEngineSink?3?3OnRequestP@ ; `string'
PUBLIC	??_C@_0DG@CDIFDKED@g?3?2?M?x?$LK?$PM?2happygamewh?2?$LH?$PO?N?q?$LG?K?2?O?$LF?M?$LD@ ; `string'
PUBLIC	??_C@_0BD@LMOFNGMO@?$KB?$LA?$CFs?$KB?$LB?D?$KD?$LP?i?$LM?S?T?X?J?$KH?$LA?$NM@ ; `string'
PUBLIC	??_C@_0BM@PEGNCJOH@?U?R?$LC?$LL?$LF?$LN?W?i?$LM?$PO?$LE?$LE?$LN?$KI?$LK?$KP?J?$PN?$KB?$LA?$CFs?$KB?$LB?3?$CFd@ ; `string'
PUBLIC	??_C@_0BL@PDAODLKM@?$LF?w?S?C?$LK?$KP?J?$PN?$KB?$LA?$CFs?$KB?$LB?I?z?$LD?I?$LG?T?O?s?J?$KH?$LA?$NM@ ; `string'
PUBLIC	??_R0PAD@8					; char * `RTTI Type Descriptor'
PUBLIC	??_C@_0BJ@JGPFHIJF@?S?I?S?Z?$KB?$LA?$CFs?$KB?$LB?$KD?$KM?W?i?$LM?$PO?$LE?$LE?$LN?$KI?J?$KH?$LA?$NM@ ; `string'
PUBLIC	??_C@_0DB@JBNKENAJ@?W?i?$LM?$PO?$LE?$LE?$LN?$KI?$LK?$KP?J?$PN?$KB?$LA?$CFs?$KB?$LB?$LC?z?I?z?N?$LE?V?$KK?R?l?$LD?$KD?$LE@ ; `string'
PUBLIC	??_R4IUnknownEx@@6B@				; IUnknownEx::`RTTI Complete Object Locator'
PUBLIC	??_R0?AUIUnknownEx@@@8				; IUnknownEx `RTTI Type Descriptor'
PUBLIC	??_R3IUnknownEx@@8				; IUnknownEx::`RTTI Class Hierarchy Descriptor'
PUBLIC	??_R2IUnknownEx@@8				; IUnknownEx::`RTTI Base Class Array'
PUBLIC	??_R1A@?0A@EA@IUnknownEx@@8			; IUnknownEx::`RTTI Base Class Descriptor at (0,-1,0,64)'
PUBLIC	??_R4IDataBaseEngineSink@@6B@			; IDataBaseEngineSink::`RTTI Complete Object Locator'
PUBLIC	??_R0?AUIDataBaseEngineSink@@@8			; IDataBaseEngineSink `RTTI Type Descriptor'
PUBLIC	??_R3IDataBaseEngineSink@@8			; IDataBaseEngineSink::`RTTI Class Hierarchy Descriptor'
PUBLIC	??_R2IDataBaseEngineSink@@8			; IDataBaseEngineSink::`RTTI Base Class Array'
PUBLIC	??_R1A@?0A@EA@IDataBaseEngineSink@@8		; IDataBaseEngineSink::`RTTI Base Class Descriptor at (0,-1,0,64)'
PUBLIC	??_R4CDataBaseEngineSink@@6B@			; CDataBaseEngineSink::`RTTI Complete Object Locator'
PUBLIC	??_R0?AVCDataBaseEngineSink@@@8			; CDataBaseEngineSink `RTTI Type Descriptor'
PUBLIC	??_R3CDataBaseEngineSink@@8			; CDataBaseEngineSink::`RTTI Class Hierarchy Descriptor'
PUBLIC	??_R2CDataBaseEngineSink@@8			; CDataBaseEngineSink::`RTTI Base Class Array'
PUBLIC	??_R1A@?0A@EA@CDataBaseEngineSink@@8		; CDataBaseEngineSink::`RTTI Base Class Descriptor at (0,-1,0,64)'
EXTRN	__purecall:PROC
EXTRN	??3@YAXPAXI@Z:PROC				; operator delete
EXTRN	_memcmp:PROC
EXTRN	_memcpy:PROC
EXTRN	_memset:PROC
EXTRN	__imp__wcscpy_s:PROC
EXTRN	__imp__wcslen:PROC
EXTRN	_strlen:PROC
EXTRN	__imp__GetLastError@0:PROC
EXTRN	__imp__SetLastError@4:PROC
EXTRN	__imp__GetProcAddress@8:PROC
EXTRN	__imp__lstrcpynA@12:PROC
EXTRN	__imp__lstrlenA@4:PROC
EXTRN	__imp__wsprintfA:PROC
EXTRN	__imp__PeekMessageA@20:PROC
EXTRN	__imp__PostQuitMessage@4:PROC
EXTRN	__imp__MultiByteToWideChar@24:PROC
EXTRN	__imp__WideCharToMultiByte@32:PROC
EXTRN	__imp____stdio_common_vswprintf_s:PROC
EXTRN	__imp____stdio_common_vsprintf:PROC
EXTRN	__imp____stdio_common_vsnprintf_s:PROC
EXTRN	__imp__calloc:PROC
EXTRN	__imp__free:PROC
EXTRN	__imp__malloc:PROC
EXTRN	__imp___recalloc:PROC
EXTRN	__imp___mktime64:PROC
EXTRN	__imp___CrtDbgReport:PROC
EXTRN	__imp___CrtDbgReportW:PROC
EXTRN	__imp__SafeArrayCreate@12:PROC
EXTRN	__imp__SafeArrayDestroy@4:PROC
EXTRN	__imp__SafeArrayPutElement@12:PROC
EXTRN	__imp__VariantInit@4:PROC
EXTRN	__imp__VariantClear@4:PROC
EXTRN	__imp__VariantCopy@8:PROC
EXTRN	?AfxThrowMemoryException@@YGXXZ:PROC		; AfxThrowMemoryException
EXTRN	?AfxThrowOleException@@YGXJ@Z:PROC		; AfxThrowOleException
EXTRN	?AfxLoadLibrary@@YGPAUHINSTANCE__@@PBD@Z:PROC	; AfxLoadLibrary
EXTRN	?AfxFreeLibrary@@YGHPAUHINSTANCE__@@@Z:PROC	; AfxFreeLibrary
EXTRN	__imp_?GetMachineID@CWHService@@SA_NQAD@Z:PROC
EXTRN	?_com_issue_error@@YGXJ@Z:PROC			; _com_issue_error
EXTRN	??_E?$CTempldateHelper@UIDataBase@@@@UAEPAXI@Z:PROC ; CTempldateHelper<IDataBase>::`vector deleting destructor'
EXTRN	??_ECDataBaseHelper@@UAEPAXI@Z:PROC		; CDataBaseHelper::`vector deleting destructor'
EXTRN	__imp_??0CDataBaseAide@@QAE@PAUIUnknownEx@@@Z:PROC
EXTRN	__imp_??1CDataBaseAide@@UAE@XZ:PROC
EXTRN	__imp_?SetDataBase@CDataBaseAide@@QAE_NPAUIUnknownEx@@@Z:PROC
EXTRN	__imp_?GetValue_INT@CDataBaseAide@@QAEHPBD@Z:PROC
EXTRN	__imp_?GetValue_UINT@CDataBaseAide@@QAEIPBD@Z:PROC
EXTRN	__imp_?GetValue_BYTE@CDataBaseAide@@QAEEPBD@Z:PROC
EXTRN	__imp_?GetValue_WORD@CDataBaseAide@@QAEGPBD@Z:PROC
EXTRN	__imp_?GetValue_DWORD@CDataBaseAide@@QAEKPBD@Z:PROC
EXTRN	__imp_?GetValue_DOUBLE@CDataBaseAide@@QAENPBD@Z:PROC
EXTRN	__imp_?GetValue_LONGLONG@CDataBaseAide@@QAE_JPBD@Z:PROC
EXTRN	__imp_?GetValue_SystemTime@CDataBaseAide@@QAEXPBDAAU_SYSTEMTIME@@@Z:PROC
EXTRN	__imp_?GetValue_String@CDataBaseAide@@QAEXPBDPADI@Z:PROC
EXTRN	__imp_?ResetParameter@CDataBaseAide@@QAEXXZ:PROC
EXTRN	__imp_?GetParameter@CDataBaseAide@@QAEXPBDAAV_variant_t@@@Z:PROC
EXTRN	__imp_?AddParameter@CDataBaseAide@@QAEXPBDHW4ParameterDirectionEnum@ADOCG@@@Z:PROC
EXTRN	__imp_?AddParameter@CDataBaseAide@@QAEXPBDJW4ParameterDirectionEnum@ADOCG@@@Z:PROC
EXTRN	__imp_?AddParameter@CDataBaseAide@@QAEXPBD_JW4ParameterDirectionEnum@ADOCG@@@Z:PROC
EXTRN	__imp_?AddParameter@CDataBaseAide@@QAEXPBDEW4ParameterDirectionEnum@ADOCG@@@Z:PROC
EXTRN	__imp_?AddParameter@CDataBaseAide@@QAEXPBDGW4ParameterDirectionEnum@ADOCG@@@Z:PROC
EXTRN	__imp_?AddParameter@CDataBaseAide@@QAEXPBDKW4ParameterDirectionEnum@ADOCG@@@Z:PROC
EXTRN	__imp_?AddParameter@CDataBaseAide@@QAEXPBDNW4ParameterDirectionEnum@ADOCG@@@Z:PROC
EXTRN	__imp_?AddParameter@CDataBaseAide@@QAEXPBD0W4ParameterDirectionEnum@ADOCG@@@Z:PROC
EXTRN	__imp_?AddParameterOutput@CDataBaseAide@@QAEXPBDPADIW4ParameterDirectionEnum@ADOCG@@@Z:PROC
EXTRN	__imp_?AddParameterOutput@CDataBaseAide@@QAEXPBDPA_WIW4ParameterDirectionEnum@ADOCG@@@Z:PROC
EXTRN	__imp_?GetReturnValue@CDataBaseAide@@QAEJXZ:PROC
EXTRN	__imp_?ExecuteProcess@CDataBaseAide@@QAEJPBD_N@Z:PROC
EXTRN	__imp_?TraceString@CTraceService@@SA_NPBDW4enTraceLevel@@@Z:PROC
EXTRN	??_ECDataBaseEngineSink@@UAEPAXI@Z:PROC		; CDataBaseEngineSink::`vector deleting destructor'
EXTRN	@__security_check_cookie@4:PROC
EXTRN	___CxxFrameHandler3:PROC
EXTRN	__alldiv:PROC
EXTRN	__allmul:PROC
EXTRN	__chkstk:PROC
EXTRN	__dtol3:PROC
EXTRN	__ftol2:PROC
EXTRN	_memset:PROC
EXTRN	??_7type_info@@6B@:QWORD			; type_info::`vftable'
EXTRN	___security_cookie:DWORD
EXTRN	__fltused:DWORD
;	COMDAT ?_OptionsStorage@?1??__local_stdio_printf_options@@9@4_KA
_BSS	SEGMENT
?_OptionsStorage@?1??__local_stdio_printf_options@@9@4_KA DQ 01H DUP (?) ; `__local_stdio_printf_options'::`2'::_OptionsStorage
_BSS	ENDS
;	COMDAT ?atlTraceException@ATL@@3V?$CTraceCategoryEx@$0CAAA@$0A@@1@A
_BSS	SEGMENT
?atlTraceException@ATL@@3V?$CTraceCategoryEx@$0CAAA@$0A@@1@A DD 01H DUP (?) ; ATL::atlTraceException
_BSS	ENDS
;	COMDAT ?m_nLevel@CTrace@ATL@@1IA
_BSS	SEGMENT
?m_nLevel@CTrace@ATL@@1IA DD 01H DUP (?)		; ATL::CTrace::m_nLevel
_BSS	ENDS
;	COMDAT ?m_nLastCategory@CTrace@ATL@@1IA
_BSS	SEGMENT
?m_nLastCategory@CTrace@ATL@@1IA DD 01H DUP (?)		; ATL::CTrace::m_nLastCategory
_BSS	ENDS
;	COMDAT ?m_nMap@CTrace@ATL@@1PAUCategoryMap@12@A
_BSS	SEGMENT
?m_nMap@CTrace@ATL@@1PAUCategoryMap@12@A DB 02080H DUP (?) ; ATL::CTrace::m_nMap
_BSS	ENDS
;	COMDAT CRT$XCU
CRT$XCU	SEGMENT
?atlTraceException$initializer$@ATL@@3P6AXXZA DD FLAT:??__EatlTraceException@ATL@@YAXXZ ; ATL::atlTraceException$initializer$
CRT$XCU	ENDS
;	COMDAT ??_R1A@?0A@EA@CDataBaseEngineSink@@8
rdata$r	SEGMENT
??_R1A@?0A@EA@CDataBaseEngineSink@@8 DD FLAT:??_R0?AVCDataBaseEngineSink@@@8 ; CDataBaseEngineSink::`RTTI Base Class Descriptor at (0,-1,0,64)'
	DD	02H
	DD	00H
	DD	0ffffffffH
	DD	00H
	DD	040H
	DD	FLAT:??_R3CDataBaseEngineSink@@8
rdata$r	ENDS
;	COMDAT ??_R2CDataBaseEngineSink@@8
rdata$r	SEGMENT
??_R2CDataBaseEngineSink@@8 DD FLAT:??_R1A@?0A@EA@CDataBaseEngineSink@@8 ; CDataBaseEngineSink::`RTTI Base Class Array'
	DD	FLAT:??_R1A@?0A@EA@IDataBaseEngineSink@@8
	DD	FLAT:??_R1A@?0A@EA@IUnknownEx@@8
rdata$r	ENDS
;	COMDAT ??_R3CDataBaseEngineSink@@8
rdata$r	SEGMENT
??_R3CDataBaseEngineSink@@8 DD 00H			; CDataBaseEngineSink::`RTTI Class Hierarchy Descriptor'
	DD	00H
	DD	03H
	DD	FLAT:??_R2CDataBaseEngineSink@@8
rdata$r	ENDS
;	COMDAT ??_R0?AVCDataBaseEngineSink@@@8
data$r	SEGMENT
??_R0?AVCDataBaseEngineSink@@@8 DD FLAT:??_7type_info@@6B@ ; CDataBaseEngineSink `RTTI Type Descriptor'
	DD	00H
	DB	'.?AVCDataBaseEngineSink@@', 00H
data$r	ENDS
;	COMDAT ??_R4CDataBaseEngineSink@@6B@
rdata$r	SEGMENT
??_R4CDataBaseEngineSink@@6B@ DD 00H			; CDataBaseEngineSink::`RTTI Complete Object Locator'
	DD	00H
	DD	00H
	DD	FLAT:??_R0?AVCDataBaseEngineSink@@@8
	DD	FLAT:??_R3CDataBaseEngineSink@@8
rdata$r	ENDS
;	COMDAT ??_R1A@?0A@EA@IDataBaseEngineSink@@8
rdata$r	SEGMENT
??_R1A@?0A@EA@IDataBaseEngineSink@@8 DD FLAT:??_R0?AUIDataBaseEngineSink@@@8 ; IDataBaseEngineSink::`RTTI Base Class Descriptor at (0,-1,0,64)'
	DD	01H
	DD	00H
	DD	0ffffffffH
	DD	00H
	DD	040H
	DD	FLAT:??_R3IDataBaseEngineSink@@8
rdata$r	ENDS
;	COMDAT ??_R2IDataBaseEngineSink@@8
rdata$r	SEGMENT
??_R2IDataBaseEngineSink@@8 DD FLAT:??_R1A@?0A@EA@IDataBaseEngineSink@@8 ; IDataBaseEngineSink::`RTTI Base Class Array'
	DD	FLAT:??_R1A@?0A@EA@IUnknownEx@@8
rdata$r	ENDS
;	COMDAT ??_R3IDataBaseEngineSink@@8
rdata$r	SEGMENT
??_R3IDataBaseEngineSink@@8 DD 00H			; IDataBaseEngineSink::`RTTI Class Hierarchy Descriptor'
	DD	00H
	DD	02H
	DD	FLAT:??_R2IDataBaseEngineSink@@8
rdata$r	ENDS
;	COMDAT ??_R0?AUIDataBaseEngineSink@@@8
data$r	SEGMENT
??_R0?AUIDataBaseEngineSink@@@8 DD FLAT:??_7type_info@@6B@ ; IDataBaseEngineSink `RTTI Type Descriptor'
	DD	00H
	DB	'.?AUIDataBaseEngineSink@@', 00H
data$r	ENDS
;	COMDAT ??_R4IDataBaseEngineSink@@6B@
rdata$r	SEGMENT
??_R4IDataBaseEngineSink@@6B@ DD 00H			; IDataBaseEngineSink::`RTTI Complete Object Locator'
	DD	00H
	DD	00H
	DD	FLAT:??_R0?AUIDataBaseEngineSink@@@8
	DD	FLAT:??_R3IDataBaseEngineSink@@8
rdata$r	ENDS
;	COMDAT ??_R1A@?0A@EA@IUnknownEx@@8
rdata$r	SEGMENT
??_R1A@?0A@EA@IUnknownEx@@8 DD FLAT:??_R0?AUIUnknownEx@@@8 ; IUnknownEx::`RTTI Base Class Descriptor at (0,-1,0,64)'
	DD	00H
	DD	00H
	DD	0ffffffffH
	DD	00H
	DD	040H
	DD	FLAT:??_R3IUnknownEx@@8
rdata$r	ENDS
;	COMDAT ??_R2IUnknownEx@@8
rdata$r	SEGMENT
??_R2IUnknownEx@@8 DD FLAT:??_R1A@?0A@EA@IUnknownEx@@8	; IUnknownEx::`RTTI Base Class Array'
rdata$r	ENDS
;	COMDAT ??_R3IUnknownEx@@8
rdata$r	SEGMENT
??_R3IUnknownEx@@8 DD 00H				; IUnknownEx::`RTTI Class Hierarchy Descriptor'
	DD	00H
	DD	01H
	DD	FLAT:??_R2IUnknownEx@@8
rdata$r	ENDS
;	COMDAT ??_R0?AUIUnknownEx@@@8
data$r	SEGMENT
??_R0?AUIUnknownEx@@@8 DD FLAT:??_7type_info@@6B@	; IUnknownEx `RTTI Type Descriptor'
	DD	00H
	DB	'.?AUIUnknownEx@@', 00H
data$r	ENDS
;	COMDAT ??_R4IUnknownEx@@6B@
rdata$r	SEGMENT
??_R4IUnknownEx@@6B@ DD 00H				; IUnknownEx::`RTTI Complete Object Locator'
	DD	00H
	DD	00H
	DD	FLAT:??_R0?AUIUnknownEx@@@8
	DD	FLAT:??_R3IUnknownEx@@8
rdata$r	ENDS
;	COMDAT ??_C@_0DB@JBNKENAJ@?W?i?$LM?$PO?$LE?$LE?$LN?$KI?$LK?$KP?J?$PN?$KB?$LA?$CFs?$KB?$LB?$LC?z?I?z?N?$LE?V?$KK?R?l?$LD?$KD?$LE@
CONST	SEGMENT
??_C@_0DB@JBNKENAJ@?W?i?$LM?$PO?$LE?$LE?$LN?$KI?$LK?$KP?J?$PN?$KB?$LA?$CFs?$KB?$LB?$LC?z?I?z?N?$LE?V?$KK?R?l?$LD?$KD?$LE@ DB 0d7H
	DB	0e9H, 0bcH, 0feH, 0b4H, 0b4H, 0bdH, 0a8H, 0baH, 0afH, 0caH, 0fdH
	DB	0a1H, 0b0H, '%s', 0a1H, 0b1H, 0b2H, 0faH, 0c9H, 0faH, 0ceH, 0b4H
	DB	0d6H, 0aaH, 0d2H, 0ecH, 0b3H, 0a3H, 0b4H, 0edH, 0ceH, 0f3H, 0a3H
	DB	0acH, 0d7H, 0e9H, 0bcH, 0feH, 0b4H, 0b4H, 0bdH, 0a8H, 0caH, 0a7H
	DB	0b0H, 0dcH, 00H				; `string'
CONST	ENDS
;	COMDAT ??_C@_0BJ@JGPFHIJF@?S?I?S?Z?$KB?$LA?$CFs?$KB?$LB?$KD?$KM?W?i?$LM?$PO?$LE?$LE?$LN?$KI?J?$KH?$LA?$NM@
CONST	SEGMENT
??_C@_0BJ@JGPFHIJF@?S?I?S?Z?$KB?$LA?$CFs?$KB?$LB?$KD?$KM?W?i?$LM?$PO?$LE?$LE?$LN?$KI?J?$KH?$LA?$NM@ DB 0d3H
	DB	0c9H, 0d3H, 0daH, 0a1H, 0b0H, '%s', 0a1H, 0b1H, 0a3H, 0acH, 0d7H
	DB	0e9H, 0bcH, 0feH, 0b4H, 0b4H, 0bdH, 0a8H, 0caH, 0a7H, 0b0H, 0dcH
	DB	00H						; `string'
CONST	ENDS
;	COMDAT ??_R0PAD@8
data$r	SEGMENT
??_R0PAD@8 DD	FLAT:??_7type_info@@6B@			; char * `RTTI Type Descriptor'
	DD	00H
	DB	'.PAD', 00H
data$r	ENDS
;	COMDAT ??_C@_0BL@PDAODLKM@?$LF?w?S?C?$LK?$KP?J?$PN?$KB?$LA?$CFs?$KB?$LB?I?z?$LD?I?$LG?T?O?s?J?$KH?$LA?$NM@
CONST	SEGMENT
??_C@_0BL@PDAODLKM@?$LF?w?S?C?$LK?$KP?J?$PN?$KB?$LA?$CFs?$KB?$LB?I?z?$LD?I?$LG?T?O?s?J?$KH?$LA?$NM@ DB 0b5H
	DB	0f7H, 0d3H, 0c3H, 0baH, 0afH, 0caH, 0fdH, 0a1H, 0b0H, '%s', 0a1H
	DB	0b1H, 0c9H, 0faH, 0b3H, 0c9H, 0b6H, 0d4H, 0cfH, 0f3H, 0caH, 0a7H
	DB	0b0H, 0dcH, 00H				; `string'
CONST	ENDS
;	COMDAT ??_C@_0BM@PEGNCJOH@?U?R?$LC?$LL?$LF?$LN?W?i?$LM?$PO?$LE?$LE?$LN?$KI?$LK?$KP?J?$PN?$KB?$LA?$CFs?$KB?$LB?3?$CFd@
CONST	SEGMENT
??_C@_0BM@PEGNCJOH@?U?R?$LC?$LL?$LF?$LN?W?i?$LM?$PO?$LE?$LE?$LN?$KI?$LK?$KP?J?$PN?$KB?$LA?$CFs?$KB?$LB?3?$CFd@ DB 0d5H
	DB	0d2H, 0b2H, 0bbH, 0b5H, 0bdH, 0d7H, 0e9H, 0bcH, 0feH, 0b4H, 0b4H
	DB	0bdH, 0a8H, 0baH, 0afH, 0caH, 0fdH, 0a1H, 0b0H, '%s', 0a1H, 0b1H
	DB	':%d', 00H					; `string'
CONST	ENDS
;	COMDAT ??_C@_0BD@LMOFNGMO@?$KB?$LA?$CFs?$KB?$LB?D?$KD?$LP?i?$LM?S?T?X?J?$KH?$LA?$NM@
CONST	SEGMENT
??_C@_0BD@LMOFNGMO@?$KB?$LA?$CFs?$KB?$LB?D?$KD?$LP?i?$LM?S?T?X?J?$KH?$LA?$NM@ DB 0a1H
	DB	0b0H, '%s', 0a1H, 0b1H, 0c4H, 0a3H, 0bfH, 0e9H, 0bcH, 0d3H, 0d4H
	DB	0d8H, 0caH, 0a7H, 0b0H, 0dcH, 00H		; `string'
CONST	ENDS
;	COMDAT ??_C@_0DG@CDIFDKED@g?3?2?M?x?$LK?$PM?2happygamewh?2?$LH?$PO?N?q?$LG?K?2?O?$LF?M?$LD@
CONST	SEGMENT
??_C@_0DG@CDIFDKED@g?3?2?M?x?$LK?$PM?2happygamewh?2?$LH?$PO?N?q?$LG?K?2?O?$LF?M?$LD@ DB 'g'
	DB	':\', 0cdH, 0f8H, 0baH, 0fcH, '\happygamewh\', 0b7H, 0feH, 0ceH
	DB	0f1H, 0b6H, 0cbH, '\', 0cfH, 0b5H, 0cdH, 0b3H, 0c4H, 0a3H, 0bfH
	DB	0e9H, '\', 0c8H, 0abH, 0beH, 0d6H, 0b6H, 0a8H, 0d2H, 0e5H, '\m'
	DB	'odule.h', 00H				; `string'
CONST	ENDS
;	COMDAT ??_C@_0DD@HLJBACG@CDataBaseEngineSink?3?3OnRequestP@
CONST	SEGMENT
??_C@_0DD@HLJBACG@CDataBaseEngineSink?3?3OnRequestP@ DB 'CDataBaseEngineS'
	DB	'ink::OnRequestPersonalRoomUserInfo', 00H	; `string'
CONST	ENDS
;	COMDAT ??_C@_0CB@GDDFBHCI@GSP_GS_QueryPersonalRoomUserInf@
CONST	SEGMENT
??_C@_0CB@GDDFBHCI@GSP_GS_QueryPersonalRoomUserInf@ DB 'GSP_GS_QueryPerso'
	DB	'nalRoomUserInfo', 00H			; `string'
CONST	ENDS
;	COMDAT ?__LINE__Var@?0??OnRequestPersonalRoomUserInfo@CDataBaseEngineSink@@IAE_NKPAXG@Z@4JA
_DATA	SEGMENT
?__LINE__Var@?0??OnRequestPersonalRoomUserInfo@CDataBaseEngineSink@@IAE_NKPAXG@Z@4JA DD 01c6aH ; `CDataBaseEngineSink::OnRequestPersonalRoomUserInfo'::`1'::__LINE__Var
_DATA	ENDS
;	COMDAT ??_C@_0BE@GHJOCJLA@AndroidCountMember5@
CONST	SEGMENT
??_C@_0BE@GHJOCJLA@AndroidCountMember5@ DB 'AndroidCountMember5', 00H ; `string'
CONST	ENDS
;	COMDAT ??_C@_0BE@HOIFBIPB@AndroidCountMember4@
CONST	SEGMENT
??_C@_0BE@HOIFBIPB@AndroidCountMember4@ DB 'AndroidCountMember4', 00H ; `string'
CONST	ENDS
;	COMDAT ??_C@_0BE@DBMEIODG@AndroidCountMember3@
CONST	SEGMENT
??_C@_0BE@DBMEIODG@AndroidCountMember3@ DB 'AndroidCountMember3', 00H ; `string'
CONST	ENDS
;	COMDAT ??_C@_0BE@CINPLPHH@AndroidCountMember2@
CONST	SEGMENT
??_C@_0BE@CINPLPHH@AndroidCountMember2@ DB 'AndroidCountMember2', 00H ; `string'
CONST	ENDS
;	COMDAT ??_C@_0BE@DPCOMLE@AndroidCountMember1@
CONST	SEGMENT
??_C@_0BE@DPCOMLE@AndroidCountMember1@ DB 'AndroidCountMember1', 00H ; `string'
CONST	ENDS
;	COMDAT ??_C@_0BE@BKOJNNPF@AndroidCountMember0@
CONST	SEGMENT
??_C@_0BE@BKOJNNPF@AndroidCountMember0@ DB 'AndroidCountMember0', 00H ; `string'
CONST	ENDS
;	COMDAT ??_C@_0N@FKFNHDMB@TakeMaxScore@
CONST	SEGMENT
??_C@_0N@FKFNHDMB@TakeMaxScore@ DB 'TakeMaxScore', 00H	; `string'
CONST	ENDS
;	COMDAT ??_C@_0N@INLGMBIA@TakeMinScore@
CONST	SEGMENT
??_C@_0N@INLGMBIA@TakeMinScore@ DB 'TakeMinScore', 00H	; `string'
CONST	ENDS
;	COMDAT ??_C@_0BB@OGJMJIDE@SwitchMaxInnings@
CONST	SEGMENT
??_C@_0BB@OGJMJIDE@SwitchMaxInnings@ DB 'SwitchMaxInnings', 00H ; `string'
CONST	ENDS
;	COMDAT ??_C@_0BB@CKJBODDL@SwitchMinInnings@
CONST	SEGMENT
??_C@_0BB@CKJBODDL@SwitchMinInnings@ DB 'SwitchMinInnings', 00H ; `string'
CONST	ENDS
;	COMDAT ??_C@_0BB@CHLPMCBO@LeaveMaxInterval@
CONST	SEGMENT
??_C@_0BB@CHLPMCBO@LeaveMaxInterval@ DB 'LeaveMaxInterval', 00H ; `string'
CONST	ENDS
;	COMDAT ??_C@_0BB@LHMMNCPE@LeaveMinInterval@
CONST	SEGMENT
??_C@_0BB@LHMMNCPE@LeaveMinInterval@ DB 'LeaveMinInterval', 00H ; `string'
CONST	ENDS
;	COMDAT ??_C@_0BB@LIJAPFIP@EnterMaxInterval@
CONST	SEGMENT
??_C@_0BB@LIJAPFIP@EnterMaxInterval@ DB 'EnterMaxInterval', 00H ; `string'
CONST	ENDS
;	COMDAT ??_C@_0BB@CIODOFGF@EnterMinInterval@
CONST	SEGMENT
??_C@_0BB@CIODOFGF@EnterMinInterval@ DB 'EnterMinInterval', 00H ; `string'
CONST	ENDS
;	COMDAT ??_C@_09JGPPHJIC@LeaveTime@
CONST	SEGMENT
??_C@_09JGPPHJIC@LeaveTime@ DB 'LeaveTime', 00H		; `string'
CONST	ENDS
;	COMDAT ??_C@_09JEABEHKK@EnterTime@
CONST	SEGMENT
??_C@_09JEABEHKK@EnterTime@ DB 'EnterTime', 00H		; `string'
CONST	ENDS
;	COMDAT ??_C@_0M@CGPIJAFO@ServiceMode@
CONST	SEGMENT
??_C@_0M@CGPIJAFO@ServiceMode@ DB 'ServiceMode', 00H	; `string'
CONST	ENDS
;	COMDAT ??_C@_0N@LHJAPBGB@AndroidCount@
CONST	SEGMENT
??_C@_0N@LHJAPBGB@AndroidCount@ DB 'AndroidCount', 00H	; `string'
CONST	ENDS
;	COMDAT ??_C@_07IHEJADLP@BatchID@
CONST	SEGMENT
??_C@_07IHEJADLP@BatchID@ DB 'BatchID', 00H		; `string'
CONST	ENDS
;	COMDAT ??_C@_0BA@CJGKEJMC@VariationInsure@
CONST	SEGMENT
??_C@_0BA@CJGKEJMC@VariationInsure@ DB 'VariationInsure', 00H ; `string'
CONST	ENDS
;	COMDAT ??_C@_0P@MOIGFANG@VariationScore@
CONST	SEGMENT
??_C@_0P@MOIGFANG@VariationScore@ DB 'VariationScore', 00H ; `string'
CONST	ENDS
;	COMDAT ??_C@_0O@NODKFAON@InsureRevenue@
CONST	SEGMENT
??_C@_0O@NODKFAON@InsureRevenue@ DB 'InsureRevenue', 00H ; `string'
CONST	ENDS
;	COMDAT ??_C@_0N@NACABOPM@SourceInsure@
CONST	SEGMENT
??_C@_0N@NACABOPM@SourceInsure@ DB 'SourceInsure', 00H	; `string'
CONST	ENDS
;	COMDAT ??_C@_0M@DNAOABEK@SourceScore@
CONST	SEGMENT
??_C@_0M@DNAOABEK@SourceScore@ DB 'SourceScore', 00H	; `string'
CONST	ENDS
;	COMDAT ??_C@_0BC@OLNNOKFD@?$CFs?5?5?5?$CFs?5?5?$LD?v?O?V?R?l?$LD?$KD@
CONST	SEGMENT
??_C@_0BC@OLNNOKFD@?$CFs?5?5?5?$CFs?5?5?$LD?v?O?V?R?l?$LD?$KD@ DB '%s   %'
	DB	's  ', 0b3H, 0f6H, 0cfH, 0d6H, 0d2H, 0ecH, 0b3H, 0a3H, 00H ; `string'
CONST	ENDS
;	COMDAT ??_C@_0N@GDKJDNDM@LockServerID@
CONST	SEGMENT
??_C@_0N@GDKJDNDM@LockServerID@ DB 'LockServerID', 00H	; `string'
CONST	ENDS
;	COMDAT ??_C@_08EPCALAFM@RoomCard@
CONST	SEGMENT
??_C@_08EPCALAFM@RoomCard@ DB 'RoomCard', 00H		; `string'
CONST	ENDS
;	COMDAT ??_C@_0L@DFHHCJIF@PasswordID@
CONST	SEGMENT
??_C@_0L@DFHHCJIF@PasswordID@ DB 'PasswordID', 00H	; `string'
CONST	ENDS
;	COMDAT ??_C@_0BB@NPBCMNLJ@?$CFs?5?5?5?$CFs?5?$LD?v?O?V?R?l?$LD?$KD@
CONST	SEGMENT
??_C@_0BB@NPBCMNLJ@?$CFs?5?5?5?$CFs?5?$LD?v?O?V?R?l?$LD?$KD@ DB '%s   %s '
	DB	0b3H, 0f6H, 0cfH, 0d6H, 0d2H, 0ecH, 0b3H, 0a3H, 00H ; `string'
CONST	ENDS
;	COMDAT ??_C@_0CK@GJNGIALF@CDataBaseEngineSink?3?3OnLogonDis@
CONST	SEGMENT
??_C@_0CK@GJNGIALF@CDataBaseEngineSink?3?3OnLogonDis@ DB 'CDataBaseEngine'
	DB	'Sink::OnLogonDisposeResult', 00H		; `string'
CONST	ENDS
;	COMDAT ??_C@_0BN@LPJFEPID@GSP_GP_LoadAgentGameKindItem@
CONST	SEGMENT
??_C@_0BN@LPJFEPID@GSP_GP_LoadAgentGameKindItem@ DB 'GSP_GP_LoadAgentGame'
	DB	'KindItem', 00H				; `string'
CONST	ENDS
;	COMDAT ??_C@_0M@MCNDIEIO@?$EAdwDeviceID@
CONST	SEGMENT
??_C@_0M@MCNDIEIO@?$EAdwDeviceID@ DB '@dwDeviceID', 00H	; `string'
CONST	ENDS
;	COMDAT ??_C@_07JLHLBMJL@IsAgent@
CONST	SEGMENT
??_C@_07JLHLBMJL@IsAgent@ DB 'IsAgent', 00H		; `string'
CONST	ENDS
;	COMDAT ??_C@_0O@KJIEIIKM@InsureEnabled@
CONST	SEGMENT
??_C@_0O@KJIEIIKM@InsureEnabled@ DB 'InsureEnabled', 00H ; `string'
CONST	ENDS
;	COMDAT ??_C@_0P@NJMFJJIN@MemberOverDate@
CONST	SEGMENT
??_C@_0P@NJMFJJIN@MemberOverDate@ DB 'MemberOverDate', 00H ; `string'
CONST	ENDS
;	COMDAT ??_C@_0L@CPAJNIME@UnderWrite@
CONST	SEGMENT
??_C@_0L@CPAJNIME@UnderWrite@ DB 'UnderWrite', 00H	; `string'
CONST	ENDS
;	COMDAT ??_C@_0M@LDOFEJIK@MoorMachine@
CONST	SEGMENT
??_C@_0M@LDOFEJIK@MoorMachine@ DB 'MoorMachine', 00H	; `string'
CONST	ENDS
;	COMDAT ??_C@_05JILOFBHP@Beans@
CONST	SEGMENT
??_C@_05JILOFBHP@Beans@ DB 'Beans', 00H			; `string'
CONST	ENDS
;	COMDAT ??_C@_0M@IEJKBKHE@DynamicPass@
CONST	SEGMENT
??_C@_0M@IEJKBKHE@DynamicPass@ DB 'DynamicPass', 00H	; `string'
CONST	ENDS
;	COMDAT ??_C@_0CL@CDCPNHPC@CDataBaseEngineSink?3?3OnRequestL@
CONST	SEGMENT
??_C@_0CL@CDCPNHPC@CDataBaseEngineSink?3?3OnRequestL@ DB 'CDataBaseEngine'
	DB	'Sink::OnRequestLoadTaskList', 00H		; `string'
CONST	ENDS
;	COMDAT ??_C@_0BA@OIFLMOIG@TaskDescription@
CONST	SEGMENT
??_C@_0BA@OIFLMOIG@TaskDescription@ DB 'TaskDescription', 00H ; `string'
CONST	ENDS
;	COMDAT ??_C@_08KJGGNPPO@TaskName@
CONST	SEGMENT
??_C@_08KJGGNPPO@TaskName@ DB 'TaskName', 00H		; `string'
CONST	ENDS
;	COMDAT ??_C@_0BB@DNBEKFCN@MemberAwardMedal@
CONST	SEGMENT
??_C@_0BB@DNBEKFCN@MemberAwardMedal@ DB 'MemberAwardMedal', 00H ; `string'
CONST	ENDS
;	COMDAT ??_C@_0BA@NOFNIKCO@MemberAwardGold@
CONST	SEGMENT
??_C@_0BA@NOFNIKCO@MemberAwardGold@ DB 'MemberAwardGold', 00H ; `string'
CONST	ENDS
;	COMDAT ??_C@_0BD@NAANCEAG@StandardAwardMedal@
CONST	SEGMENT
??_C@_0BD@NAANCEAG@StandardAwardMedal@ DB 'StandardAwardMedal', 00H ; `string'
CONST	ENDS
;	COMDAT ??_C@_0BC@HPFPIBKO@StandardAwardGold@
CONST	SEGMENT
??_C@_0BC@HPFPIBKO@StandardAwardGold@ DB 'StandardAwardGold', 00H ; `string'
CONST	ENDS
;	COMDAT ??_C@_09OHILOMME@TimeLimit@
CONST	SEGMENT
??_C@_09OHILOMME@TimeLimit@ DB 'TimeLimit', 00H		; `string'
CONST	ENDS
;	COMDAT ??_C@_07EDCJMCFO@Innings@
CONST	SEGMENT
??_C@_07EDCJMCFO@Innings@ DB 'Innings', 00H		; `string'
CONST	ENDS
;	COMDAT ??_C@_08LFHMHDM@UserType@
CONST	SEGMENT
??_C@_08LFHMHDM@UserType@ DB 'UserType', 00H		; `string'
CONST	ENDS
;	COMDAT ??_C@_08CGFBPIO@TaskType@
CONST	SEGMENT
??_C@_08CGFBPIO@TaskType@ DB 'TaskType', 00H		; `string'
CONST	ENDS
;	COMDAT ??_C@_0BE@DLBECAIO@GSP_GR_LoadTaskList@
CONST	SEGMENT
??_C@_0BE@DLBECAIO@GSP_GR_LoadTaskList@ DB 'GSP_GR_LoadTaskList', 00H ; `string'
CONST	ENDS
;	COMDAT ??_C@_0DA@MPNFKOLJ@CDataBaseEngineSink?3?3OnRequestP@
CONST	SEGMENT
??_C@_0DA@MPNFKOLJ@CDataBaseEngineSink?3?3OnRequestP@ DB 'CDataBaseEngine'
	DB	'Sink::OnRequestPlatformParameter', 00H	; `string'
CONST	ENDS
;	COMDAT ??_C@_08NAMHLHLO@RateGold@
CONST	SEGMENT
??_C@_08NAMHLHLO@RateGold@ DB 'RateGold', 00H		; `string'
CONST	ENDS
;	COMDAT ??_C@_0BE@JJGPDMNP@PresentExchangeRate@
CONST	SEGMENT
??_C@_0BE@JJGPDMNP@PresentExchangeRate@ DB 'PresentExchangeRate', 00H ; `string'
CONST	ENDS
;	COMDAT ??_C@_0N@GLADEADN@ExchangeRate@
CONST	SEGMENT
??_C@_0N@GLADEADN@ExchangeRate@ DB 'ExchangeRate', 00H	; `string'
CONST	ENDS
;	COMDAT ??_C@_0BN@FAFGANGC@GSP_GR_LoadPlatformParameter@
CONST	SEGMENT
??_C@_0BN@FAFGANGC@GSP_GR_LoadPlatformParameter@ DB 'GSP_GR_LoadPlatformP'
	DB	'arameter', 00H				; `string'
CONST	ENDS
;	COMDAT ??_C@_0CO@GLOGMKLF@CDataBaseEngineSink?3?3OnRequestO@
CONST	SEGMENT
??_C@_0CO@GLOGMKLF@CDataBaseEngineSink?3?3OnRequestO@ DB 'CDataBaseEngine'
	DB	'Sink::OnRequestOnLineCountInfo', 00H	; `string'
CONST	ENDS
;	COMDAT ??_C@_0BH@NJCPKOEE@GSP_GP_OnLineCountInfo@
CONST	SEGMENT
??_C@_0BH@NJCPKOEE@GSP_GP_OnLineCountInfo@ DB 'GSP_GP_OnLineCountInfo', 00H ; `string'
CONST	ENDS
;	COMDAT ??_C@_0BF@HIHGIAMG@?$EAstrAndroidCountKind@
CONST	SEGMENT
??_C@_0BF@HIHGIAMG@?$EAstrAndroidCountKind@ DB '@strAndroidCountKind', 00H ; `string'
CONST	ENDS
;	COMDAT ??_C@_0BE@BCBJINEE@?$EAstrOnLineCountKind@
CONST	SEGMENT
??_C@_0BE@BCBJINEE@?$EAstrOnLineCountKind@ DB '@strOnLineCountKind', 00H ; `string'
CONST	ENDS
;	COMDAT ??_C@_0BD@DMJCDOHJ@?$EAdwAndroidCountSum@
CONST	SEGMENT
??_C@_0BD@DMJCDOHJ@?$EAdwAndroidCountSum@ DB '@dwAndroidCountSum', 00H ; `string'
CONST	ENDS
;	COMDAT ??_C@_0BC@ELHHFAJE@?$EAdwOnLineCountSum@
CONST	SEGMENT
??_C@_0BC@ELHHFAJE@?$EAdwOnLineCountSum@ DB '@dwOnLineCountSum', 00H ; `string'
CONST	ENDS
;	COMDAT ??_C@_0BC@NFDIOELC@?$EAstrMachineServer@
CONST	SEGMENT
??_C@_0BC@NFDIOELC@?$EAstrMachineServer@ DB '@strMachineServer', 00H ; `string'
CONST	ENDS
;	COMDAT ??_C@_07PKOOGEJC@?$CFd?3?$CFld?$DL@
CONST	SEGMENT
??_C@_07PKOOGEJC@?$CFd?3?$CFld?$DL@ DB '%d:%ld;', 00H	; `string'
CONST	ENDS
;	COMDAT ?__LINE__Var@?0??OnRequestOnLineCountInfo@CDataBaseEngineSink@@IAE_NKPAXG@Z@4JA
_DATA	SEGMENT
?__LINE__Var@?0??OnRequestOnLineCountInfo@CDataBaseEngineSink@@IAE_NKPAXG@Z@4JA DD 01a09H ; `CDataBaseEngineSink::OnRequestOnLineCountInfo'::`1'::__LINE__Var
_DATA	ENDS
;	COMDAT ??_C@_0CL@LLIJCPKF@CDataBaseEngineSink?3?3OnRequestL@
CONST	SEGMENT
??_C@_0CL@LLIJCPKF@CDataBaseEngineSink?3?3OnRequestL@ DB 'CDataBaseEngine'
	DB	'Sink::OnRequestLoadGameList', 00H		; `string'
CONST	ENDS
;	COMDAT ??_C@_0M@MLHPPPJP@DisplayName@
CONST	SEGMENT
??_C@_0M@MLHPPPJP@DisplayName@ DB 'DisplayName', 00H	; `string'
CONST	ENDS
;	COMDAT ??_C@_0M@BKOENMNO@OperateType@
CONST	SEGMENT
??_C@_0M@BKOENMNO@OperateType@ DB 'OperateType', 00H	; `string'
CONST	ENDS
;	COMDAT ??_C@_06EOFKIFOL@PageID@
CONST	SEGMENT
??_C@_06EOFKIFOL@PageID@ DB 'PageID', 00H		; `string'
CONST	ENDS
;	COMDAT ??_C@_0BI@NIKFHIOD@GSP_GP_LoadGamePageItem@
CONST	SEGMENT
??_C@_0BI@NIKFHIOD@GSP_GP_LoadGamePageItem@ DB 'GSP_GP_LoadGamePageItem', 00H ; `string'
CONST	ENDS
;	COMDAT ??_C@_08BNHBMGBD@NodeName@
CONST	SEGMENT
??_C@_08BNHBMGBD@NodeName@ DB 'NodeName', 00H		; `string'
CONST	ENDS
;	COMDAT ??_C@_06EBBHJNI@NodeID@
CONST	SEGMENT
??_C@_06EBBHJNI@NodeID@ DB 'NodeID', 00H		; `string'
CONST	ENDS
;	COMDAT ??_C@_0BI@JIMFOJKP@GSP_GP_LoadGameNodeItem@
CONST	SEGMENT
??_C@_0BI@JIMFOJKP@GSP_GP_LoadGameNodeItem@ DB 'GSP_GP_LoadGameNodeItem', 00H ; `string'
CONST	ENDS
;	COMDAT ??_C@_08MIPGCPFD@GameFlag@
CONST	SEGMENT
??_C@_08MIPGCPFD@GameFlag@ DB 'GameFlag', 00H		; `string'
CONST	ENDS
;	COMDAT ??_C@_0M@KPPMMAOL@ProcessName@
CONST	SEGMENT
??_C@_0M@KPPMMAOL@ProcessName@ DB 'ProcessName', 00H	; `string'
CONST	ENDS
;	COMDAT ??_C@_08POKFAGDA@KindName@
CONST	SEGMENT
??_C@_08POKFAGDA@KindName@ DB 'KindName', 00H		; `string'
CONST	ENDS
;	COMDAT ??_C@_0BI@HLBBCJIM@GSP_GP_LoadGameKindItem@
CONST	SEGMENT
??_C@_0BI@HLBBCJIM@GSP_GP_LoadGameKindItem@ DB 'GSP_GP_LoadGameKindItem', 00H ; `string'
CONST	ENDS
;	COMDAT ??_C@_06NPMPBOHL@JoinID@
CONST	SEGMENT
??_C@_06NPMPBOHL@JoinID@ DB 'JoinID', 00H		; `string'
CONST	ENDS
;	COMDAT ??_C@_0BI@IIGOKBDB@GSP_GP_LoadGameTypeItem@
CONST	SEGMENT
??_C@_0BI@IIGOKBDB@GSP_GP_LoadGameTypeItem@ DB 'GSP_GP_LoadGameTypeItem', 00H ; `string'
CONST	ENDS
;	COMDAT ??_C@_0CL@PNNDOJKG@CDataBaseEngineSink?3?3OnRequestP@
CONST	SEGMENT
??_C@_0CL@PNNDOJKG@CDataBaseEngineSink?3?3OnRequestP@ DB 'CDataBaseEngine'
	DB	'Sink::OnRequestPlayBackCode', 00H		; `string'
CONST	ENDS
;	COMDAT ??_C@_0BJ@IFOPCFOF@GSP_MB_QueryPlayBackCode@
CONST	SEGMENT
??_C@_0BJ@IFOPCFOF@GSP_MB_QueryPlayBackCode@ DB 'GSP_MB_QueryPlayBackCode'
	DB	00H						; `string'
CONST	ENDS
;	COMDAT ??_C@_0P@CHNNICGD@?$EAszVideoNumber@
CONST	SEGMENT
??_C@_0P@CHNNICGD@?$EAszVideoNumber@ DB '@szVideoNumber', 00H ; `string'
CONST	ENDS
;	COMDAT ?__LINE__Var@?0??OnRequestPlayBackCode@CDataBaseEngineSink@@IAE_NKPAXG@Z@4JA
_DATA	SEGMENT
?__LINE__Var@?0??OnRequestPlayBackCode@CDataBaseEngineSink@@IAE_NKPAXG@Z@4JA DD 0191fH ; `CDataBaseEngineSink::OnRequestPlayBackCode'::`1'::__LINE__Var
_DATA	ENDS
;	COMDAT ??_C@_0CN@CLCBMIB@CDataBaseEngineSink?3?3OnRequestP@
CONST	SEGMENT
??_C@_0CN@CLCBMIB@CDataBaseEngineSink?3?3OnRequestP@ DB 'CDataBaseEngineS'
	DB	'ink::OnRequestPlayBackCodeYZ', 00H		; `string'
CONST	ENDS
;	COMDAT ??_C@_04BCJPDBDA@Code@
CONST	SEGMENT
??_C@_04BCJPDBDA@Code@ DB 'Code', 00H			; `string'
CONST	ENDS
;	COMDAT ??_C@_0BL@ELDEPGOA@GSP_MB_QueryPlayBackCodeYZ@
CONST	SEGMENT
??_C@_0BL@ELDEPGOA@GSP_MB_QueryPlayBackCodeYZ@ DB 'GSP_MB_QueryPlayBackCo'
	DB	'deYZ', 00H					; `string'
CONST	ENDS
;	COMDAT ??_C@_09PBJAPHHK@?$EAszUserID@
CONST	SEGMENT
??_C@_09PBJAPHHK@?$EAszUserID@ DB '@szUserID', 00H	; `string'
CONST	ENDS
;	COMDAT ?__LINE__Var@?0??OnRequestPlayBackCodeYZ@CDataBaseEngineSink@@IAE_NKPAXG@Z@4JA
_DATA	SEGMENT
?__LINE__Var@?0??OnRequestPlayBackCodeYZ@CDataBaseEngineSink@@IAE_NKPAXG@Z@4JA DD 018e8H ; `CDataBaseEngineSink::OnRequestPlayBackCodeYZ'::`1'::__LINE__Var
_DATA	ENDS
;	COMDAT ??_C@_0DD@NHFLLNKL@CDataBaseEngineSink?3?3OnRequestV@
CONST	SEGMENT
??_C@_0DD@NHFLLNKL@CDataBaseEngineSink?3?3OnRequestV@ DB 'CDataBaseEngine'
	DB	'Sink::OnRequestVideoDetailsByRoomID', 00H	; `string'
CONST	ENDS
;	COMDAT ??_C@_0CB@MBOOOBIC@GSP_MB_QueryVideoDetailsByRoomI@
CONST	SEGMENT
??_C@_0CB@MBOOOBIC@GSP_MB_QueryVideoDetailsByRoomI@ DB 'GSP_MB_QueryVideo'
	DB	'DetailsByRoomID', 00H			; `string'
CONST	ENDS
;	COMDAT ?__LINE__Var@?0??OnRequestVideoDetailsByRoomID@CDataBaseEngineSink@@IAE_NKPAXG@Z@4JA
_DATA	SEGMENT
?__LINE__Var@?0??OnRequestVideoDetailsByRoomID@CDataBaseEngineSink@@IAE_NKPAXG@Z@4JA DD 0187dH ; `CDataBaseEngineSink::OnRequestVideoDetailsByRoomID'::`1'::__LINE__Var
_DATA	ENDS
;	COMDAT ??_C@_0CL@FGMJMHCK@CDataBaseEngineSink?3?3OnRequestV@
CONST	SEGMENT
??_C@_0CL@FGMJMHCK@CDataBaseEngineSink?3?3OnRequestV@ DB 'CDataBaseEngine'
	DB	'Sink::OnRequestVideoDetails', 00H		; `string'
CONST	ENDS
;	COMDAT ??_C@_09DJNPMOMG@LoopCount@
CONST	SEGMENT
??_C@_09DJNPMOMG@LoopCount@ DB 'LoopCount', 00H		; `string'
CONST	ENDS
;	COMDAT ??_C@_07IIFONINF@GameNum@
CONST	SEGMENT
??_C@_07IIFONINF@GameNum@ DB 'GameNum', 00H		; `string'
CONST	ENDS
;	COMDAT ??_C@_0BJ@COPFALGJ@GSP_MB_QueryVideoDetails@
CONST	SEGMENT
??_C@_0BJ@COPFALGJ@GSP_MB_QueryVideoDetails@ DB 'GSP_MB_QueryVideoDetails'
	DB	00H						; `string'
CONST	ENDS
;	COMDAT ??_C@_0BA@PJBKFBJA@?$EAszPersonalGUID@
CONST	SEGMENT
??_C@_0BA@PJBKFBJA@?$EAszPersonalGUID@ DB '@szPersonalGUID', 00H ; `string'
CONST	ENDS
;	COMDAT ?__LINE__Var@?0??OnRequestVideoDetails@CDataBaseEngineSink@@IAE_NKPAXG@Z@4JA
_DATA	SEGMENT
?__LINE__Var@?0??OnRequestVideoDetails@CDataBaseEngineSink@@IAE_NKPAXG@Z@4JA DD 01810H ; `CDataBaseEngineSink::OnRequestVideoDetails'::`1'::__LINE__Var
_DATA	ENDS
;	COMDAT ??_C@_0CI@MPIBMGCD@CDataBaseEngineSink?3?3OnRequestV@
CONST	SEGMENT
??_C@_0CI@MPIBMGCD@CDataBaseEngineSink?3?3OnRequestV@ DB 'CDataBaseEngine'
	DB	'Sink::OnRequestVideoInfo', 00H		; `string'
CONST	ENDS
;	COMDAT ??_C@_0L@FIPLHNIO@PlayUserID@
CONST	SEGMENT
??_C@_0L@FIPLHNIO@PlayUserID@ DB 'PlayUserID', 00H	; `string'
CONST	ENDS
;	COMDAT ??_C@_0M@FHIFLAKK@VideoNumber@
CONST	SEGMENT
??_C@_0M@FHIFLAKK@VideoNumber@ DB 'VideoNumber', 00H	; `string'
CONST	ENDS
;	COMDAT ??_C@_0L@NBILIIEO@CreateRoom@
CONST	SEGMENT
??_C@_0L@NBILIIEO@CreateRoom@ DB 'CreateRoom', 00H	; `string'
CONST	ENDS
;	COMDAT ??_C@_0N@BLNCHDLG@PersonalGUID@
CONST	SEGMENT
??_C@_0N@BLNCHDLG@PersonalGUID@ DB 'PersonalGUID', 00H	; `string'
CONST	ENDS
;	COMDAT ??_C@_06HKFFEOFI@Gender@
CONST	SEGMENT
??_C@_06HKFFEOFI@Gender@ DB 'Gender', 00H		; `string'
CONST	ENDS
;	COMDAT ??_C@_07PIHEHKIA@ChairID@
CONST	SEGMENT
??_C@_07PIHEHKIA@ChairID@ DB 'ChairID', 00H		; `string'
CONST	ENDS
;	COMDAT ??_C@_0L@LAPNHMFE@CreateTime@
CONST	SEGMENT
??_C@_0L@LAPNHMFE@CreateTime@ DB 'CreateTime', 00H	; `string'
CONST	ENDS
;	COMDAT ??_C@_0L@PJNJBIGI@TotalScore@
CONST	SEGMENT
??_C@_0L@PJNJBIGI@TotalScore@ DB 'TotalScore', 00H	; `string'
CONST	ENDS
;	COMDAT ??_C@_08CELDJAGK@NickName@
CONST	SEGMENT
??_C@_08CELDJAGK@NickName@ DB 'NickName', 00H		; `string'
CONST	ENDS
;	COMDAT ??_C@_09KIJJLOBO@QueryType@
CONST	SEGMENT
??_C@_09KIJJLOBO@QueryType@ DB 'QueryType', 00H		; `string'
CONST	ENDS
;	COMDAT ??_C@_0BG@GFFABCHD@GSP_MB_QueryVideoInfo@
CONST	SEGMENT
??_C@_0BG@GFFABCHD@GSP_MB_QueryVideoInfo@ DB 'GSP_MB_QueryVideoInfo', 00H ; `string'
CONST	ENDS
;	COMDAT ??_C@_0L@OAIFHDFP@?$EAwIndexEnd@
CONST	SEGMENT
??_C@_0L@OAIFHDFP@?$EAwIndexEnd@ DB '@wIndexEnd', 00H	; `string'
CONST	ENDS
;	COMDAT ??_C@_0N@DADHJJFJ@?$EAwIndexBegin@
CONST	SEGMENT
??_C@_0N@DADHJJFJ@?$EAwIndexBegin@ DB '@wIndexBegin', 00H ; `string'
CONST	ENDS
;	COMDAT ??_C@_0M@NJBKEGLL@?$EAdwPlayBack@
CONST	SEGMENT
??_C@_0M@NJBKEGLL@?$EAdwPlayBack@ DB '@dwPlayBack', 00H	; `string'
CONST	ENDS
;	COMDAT ??_C@_0N@KOJOJAEA@?$EAcbQueryType@
CONST	SEGMENT
??_C@_0N@KOJOJAEA@?$EAcbQueryType@ DB '@cbQueryType', 00H ; `string'
CONST	ENDS
;	COMDAT ?__LINE__Var@?0??OnRequestVideoInfo@CDataBaseEngineSink@@IAE_NKPAXG@Z@4JA
_DATA	SEGMENT
?__LINE__Var@?0??OnRequestVideoInfo@CDataBaseEngineSink@@IAE_NKPAXG@Z@4JA DD 0178dH ; `CDataBaseEngineSink::OnRequestVideoInfo'::`1'::__LINE__Var
_DATA	ENDS
;	COMDAT ??_C@_0DG@CKJHFAJB@CDataBaseEngineSink?3?3OnRequestR@
CONST	SEGMENT
??_C@_0DG@CKJHFAJB@CDataBaseEngineSink?3?3OnRequestR@ DB 'CDataBaseEngine'
	DB	'Sink::OnRequestRoomCardExchangeToScore', 00H ; `string'
CONST	ENDS
;	COMDAT ??_C@_0BP@FMJNFLDK@GSP_GR_ExchangeRoomCardByScore@
CONST	SEGMENT
??_C@_0BP@FMJNFLDK@GSP_GR_ExchangeRoomCardByScore@ DB 'GSP_GR_ExchangeRoo'
	DB	'mCardByScore', 00H				; `string'
CONST	ENDS
;	COMDAT ??_C@_0BC@MBMCPADG@?$EAExchangeRoomCard@
CONST	SEGMENT
??_C@_0BC@MBMCPADG@?$EAExchangeRoomCard@ DB '@ExchangeRoomCard', 00H ; `string'
CONST	ENDS
;	COMDAT ?__LINE__Var@?0??OnRequestRoomCardExchangeToScore@CDataBaseEngineSink@@IAE_NKPAXG@Z@4JA
_DATA	SEGMENT
?__LINE__Var@?0??OnRequestRoomCardExchangeToScore@CDataBaseEngineSink@@IAE_NKPAXG@Z@4JA DD 01734H ; `CDataBaseEngineSink::OnRequestRoomCardExchangeToScore'::`1'::__LINE__Var
_DATA	ENDS
;	COMDAT ??_C@_0DD@DEOIJNJG@CDataBaseEngineSink?3?3OnRequestE@
CONST	SEGMENT
??_C@_0DD@DEOIJNJG@CDataBaseEngineSink?3?3OnRequestE@ DB 'CDataBaseEngine'
	DB	'Sink::OnRequestExchangeScoreByBeans', 00H	; `string'
CONST	ENDS
;	COMDAT ??_C@_0BM@FAODDGDD@GSP_GR_ExchangeScoreByBeans@
CONST	SEGMENT
??_C@_0BM@FAODDGDD@GSP_GR_ExchangeScoreByBeans@ DB 'GSP_GR_ExchangeScoreB'
	DB	'yBeans', 00H				; `string'
CONST	ENDS
;	COMDAT ??_C@_0P@NEGIICO@?$EAExchangeBeans@
CONST	SEGMENT
??_C@_0P@NEGIICO@?$EAExchangeBeans@ DB '@ExchangeBeans', 00H ; `string'
CONST	ENDS
;	COMDAT ?__LINE__Var@?0??OnRequestExchangeScoreByBeans@CDataBaseEngineSink@@IAE_NKPAXG@Z@4JA
_DATA	SEGMENT
?__LINE__Var@?0??OnRequestExchangeScoreByBeans@CDataBaseEngineSink@@IAE_NKPAXG@Z@4JA DD 016daH ; `CDataBaseEngineSink::OnRequestExchangeScoreByBeans'::`1'::__LINE__Var
_DATA	ENDS
;	COMDAT ??_C@_0DD@ECBHPPGI@CDataBaseEngineSink?3?3OnRequestE@
CONST	SEGMENT
??_C@_0DD@ECBHPPGI@CDataBaseEngineSink?3?3OnRequestE@ DB 'CDataBaseEngine'
	DB	'Sink::OnRequestExchangeScoreByIngot', 00H	; `string'
CONST	ENDS
;	COMDAT ??_C@_09OGDCJHIC@CurrIngot@
CONST	SEGMENT
??_C@_09OGDCJHIC@CurrIngot@ DB 'CurrIngot', 00H		; `string'
CONST	ENDS
;	COMDAT ??_C@_0BM@CGBMFEMN@GSP_GR_ExchangeScoreByIngot@
CONST	SEGMENT
??_C@_0BM@CGBMFEMN@GSP_GR_ExchangeScoreByIngot@ DB 'GSP_GR_ExchangeScoreB'
	DB	'yIngot', 00H				; `string'
CONST	ENDS
;	COMDAT ??_C@_0P@HLLJOKNA@?$EAExchangeIngot@
CONST	SEGMENT
??_C@_0P@HLLJOKNA@?$EAExchangeIngot@ DB '@ExchangeIngot', 00H ; `string'
CONST	ENDS
;	COMDAT ?__LINE__Var@?0??OnRequestExchangeScoreByIngot@CDataBaseEngineSink@@IAE_NKPAXG@Z@4JA
_DATA	SEGMENT
?__LINE__Var@?0??OnRequestExchangeScoreByIngot@CDataBaseEngineSink@@IAE_NKPAXG@Z@4JA DD 01680H ; `CDataBaseEngineSink::OnRequestExchangeScoreByIngot'::`1'::__LINE__Var
_DATA	ENDS
;	COMDAT ??_C@_0BJ@OKFJHKJC@?J?$PN?$LO?$NN?$LP?b?R?l?$LD?$KD?$KD?$KM?G?k?I?T?$LK?s?T?Y?J?T?$KD?$KB@
CONST	SEGMENT
??_C@_0BJ@OKFJHKJC@?J?$PN?$LO?$NN?$LP?b?R?l?$LD?$KD?$KD?$KM?G?k?I?T?$LK?s?T?Y?J?T?$KD?$KB@ DB 0caH
	DB	0fdH, 0beH, 0ddH, 0bfH, 0e2H, 0d2H, 0ecH, 0b3H, 0a3H, 0a3H, 0acH
	DB	0c7H, 0ebH, 0c9H, 0d4H, 0baH, 0f3H, 0d4H, 0d9H, 0caH, 0d4H, 0a3H
	DB	0a1H, 00H					; `string'
CONST	ENDS
;	COMDAT ??_C@_0CN@OJICCHJJ@CDataBaseEngineSink?3?3OnRequestP@
CONST	SEGMENT
??_C@_0CN@OJICCHJJ@CDataBaseEngineSink?3?3OnRequestP@ DB 'CDataBaseEngine'
	DB	'Sink::OnRequestPurchaseMember', 00H		; `string'
CONST	ENDS
;	COMDAT ??_C@_09JAMNPFHM@CurrBeans@
CONST	SEGMENT
??_C@_09JAMNPFHM@CurrBeans@ DB 'CurrBeans', 00H		; `string'
CONST	ENDS
;	COMDAT ??_C@_09DOHMEJBC@CurrScore@
CONST	SEGMENT
??_C@_09DOHMEJBC@CurrScore@ DB 'CurrScore', 00H		; `string'
CONST	ENDS
;	COMDAT ??_C@_0BG@EJNBGOOH@GSP_GR_PurchaseMember@
CONST	SEGMENT
??_C@_0BG@EJNBGOOH@GSP_GR_PurchaseMember@ DB 'GSP_GR_PurchaseMember', 00H ; `string'
CONST	ENDS
;	COMDAT ??_C@_0O@OLHLCFMI@?$EAPurchaseTime@
CONST	SEGMENT
??_C@_0O@OLHLCFMI@?$EAPurchaseTime@ DB '@PurchaseTime', 00H ; `string'
CONST	ENDS
;	COMDAT ??_C@_0P@NMLGPOCE@?$EAcbMemberOrder@
CONST	SEGMENT
??_C@_0P@NMLGPOCE@?$EAcbMemberOrder@ DB '@cbMemberOrder', 00H ; `string'
CONST	ENDS
;	COMDAT ?__LINE__Var@?0??OnRequestPurchaseMember@CDataBaseEngineSink@@IAE_NKPAXG@Z@4JA
_DATA	SEGMENT
?__LINE__Var@?0??OnRequestPurchaseMember@CDataBaseEngineSink@@IAE_NKPAXG@Z@4JA DD 01625H ; `CDataBaseEngineSink::OnRequestPurchaseMember'::`1'::__LINE__Var
_DATA	ENDS
;	COMDAT ??_C@_0CM@GBGIFFIB@CDataBaseEngineSink?3?3OnRequestM@
CONST	SEGMENT
??_C@_0CM@GBGIFFIB@CDataBaseEngineSink?3?3OnRequestM@ DB 'CDataBaseEngine'
	DB	'Sink::OnRequestMemberDayGift', 00H		; `string'
CONST	ENDS
;	COMDAT ??_C@_0BF@LPGDHGAC@GSP_GP_MemberDayGift@
CONST	SEGMENT
??_C@_0BF@LPGDHGAC@GSP_GP_MemberDayGift@ DB 'GSP_GP_MemberDayGift', 00H ; `string'
CONST	ENDS
;	COMDAT ?__LINE__Var@?0??OnRequestMemberDayGift@CDataBaseEngineSink@@IAE_NKPAXG@Z@4JA
_DATA	SEGMENT
?__LINE__Var@?0??OnRequestMemberDayGift@CDataBaseEngineSink@@IAE_NKPAXG@Z@4JA DD 015e8H ; `CDataBaseEngineSink::OnRequestMemberDayGift'::`1'::__LINE__Var
_DATA	ENDS
;	COMDAT ??_C@_0CP@EGKDDCPM@CDataBaseEngineSink?3?3OnRequestM@
CONST	SEGMENT
??_C@_0CP@EGKDDCPM@CDataBaseEngineSink?3?3OnRequestM@ DB 'CDataBaseEngine'
	DB	'Sink::OnRequestMemberDayPresent', 00H	; `string'
CONST	ENDS
;	COMDAT ??_C@_0BI@IMKLDJBC@GSP_GP_MemberDayPresent@
CONST	SEGMENT
??_C@_0BI@IMKLDJBC@GSP_GP_MemberDayPresent@ DB 'GSP_GP_MemberDayPresent', 00H ; `string'
CONST	ENDS
;	COMDAT ?__LINE__Var@?0??OnRequestMemberDayPresent@CDataBaseEngineSink@@IAE_NKPAXG@Z@4JA
_DATA	SEGMENT
?__LINE__Var@?0??OnRequestMemberDayPresent@CDataBaseEngineSink@@IAE_NKPAXG@Z@4JA DD 015a4H ; `CDataBaseEngineSink::OnRequestMemberDayPresent'::`1'::__LINE__Var
_DATA	ENDS
;	COMDAT ??_C@_0CO@JKBFHBG@CDataBaseEngineSink?3?3OnRequestM@
CONST	SEGMENT
??_C@_0CO@JKBFHBG@CDataBaseEngineSink?3?3OnRequestM@ DB 'CDataBaseEngineS'
	DB	'ink::OnRequestMemberQueryInfo', 00H		; `string'
CONST	ENDS
;	COMDAT ??_C@_0BH@GJOLKKFC@GSP_GP_MemberGiftQuery@
CONST	SEGMENT
??_C@_0BH@GJOLKKFC@GSP_GP_MemberGiftQuery@ DB 'GSP_GP_MemberGiftQuery', 00H ; `string'
CONST	ENDS
;	COMDAT ??_C@_04JCCJDPFC@Gift@
CONST	SEGMENT
??_C@_04JCCJDPFC@Gift@ DB 'Gift', 00H			; `string'
CONST	ENDS
;	COMDAT ??_C@_07FHKFELEN@Present@
CONST	SEGMENT
??_C@_07FHKFELEN@Present@ DB 'Present', 00H		; `string'
CONST	ENDS
;	COMDAT ??_C@_0BH@LLGIDDOH@GSP_GP_MemberQueryInfo@
CONST	SEGMENT
??_C@_0BH@LLGIDDOH@GSP_GP_MemberQueryInfo@ DB 'GSP_GP_MemberQueryInfo', 00H ; `string'
CONST	ENDS
;	COMDAT ?__LINE__Var@?0??OnRequestMemberQueryInfo@CDataBaseEngineSink@@IAE_NKPAXG@Z@4JA
_DATA	SEGMENT
?__LINE__Var@?0??OnRequestMemberQueryInfo@CDataBaseEngineSink@@IAE_NKPAXG@Z@4JA DD 01548H ; `CDataBaseEngineSink::OnRequestMemberQueryInfo'::`1'::__LINE__Var
_DATA	ENDS
;	COMDAT ??_C@_0DC@HJENCEP@CDataBaseEngineSink?3?3OnRequestM@
CONST	SEGMENT
??_C@_0DC@HJENCEP@CDataBaseEngineSink?3?3OnRequestM@ DB 'CDataBaseEngineS'
	DB	'ink::OnRequestMemberLoadParameter', 00H	; `string'
CONST	ENDS
;	COMDAT ??_C@_09MEAFLDAC@DayGiftID@
CONST	SEGMENT
??_C@_09MEAFLDAC@DayGiftID@ DB 'DayGiftID', 00H		; `string'
CONST	ENDS
;	COMDAT ??_C@_0L@FNLEFFGF@DayPresent@
CONST	SEGMENT
??_C@_0L@FNLEFFGF@DayPresent@ DB 'DayPresent', 00H	; `string'
CONST	ENDS
;	COMDAT ??_C@_0L@HCDIDBBG@InsureRate@
CONST	SEGMENT
??_C@_0L@HCDIDBBG@InsureRate@ DB 'InsureRate', 00H	; `string'
CONST	ENDS
;	COMDAT ??_C@_08KNMAEPIC@ShopRate@
CONST	SEGMENT
??_C@_08KNMAEPIC@ShopRate@ DB 'ShopRate', 00H		; `string'
CONST	ENDS
;	COMDAT ??_C@_08BPIBDNIC@TaskRate@
CONST	SEGMENT
??_C@_08BPIBDNIC@TaskRate@ DB 'TaskRate', 00H		; `string'
CONST	ENDS
;	COMDAT ??_C@_0L@CCDAGKKN@MemberName@
CONST	SEGMENT
??_C@_0L@CCDAGKKN@MemberName@ DB 'MemberName', 00H	; `string'
CONST	ENDS
;	COMDAT ??_C@_0BL@DDFCIKG@GSP_GP_LoadMemberParameter@
CONST	SEGMENT
??_C@_0BL@DDFCIKG@GSP_GP_LoadMemberParameter@ DB 'GSP_GP_LoadMemberParame'
	DB	'ter', 00H					; `string'
CONST	ENDS
;	COMDAT ??_C@_0CN@JNKPIKNE@CDataBaseEngineSink?3?3OnRequestG@
CONST	SEGMENT
??_C@_0CN@JNKPIKNE@CDataBaseEngineSink?3?3OnRequestG@ DB 'CDataBaseEngine'
	DB	'Sink::OnRequestGetSendPresent', 00H		; `string'
CONST	ENDS
;	COMDAT ??_C@_0BG@OJMAFDGN@GSP_GP_GetSendPresent@
CONST	SEGMENT
??_C@_0BG@OJMAFDGN@GSP_GP_GetSendPresent@ DB 'GSP_GP_GetSendPresent', 00H ; `string'
CONST	ENDS
;	COMDAT ??_C@_0M@HCJEDCFO@?$EAszPassword@
CONST	SEGMENT
??_C@_0M@HCJEDCFO@?$EAszPassword@ DB '@szPassword', 00H	; `string'
CONST	ENDS
;	COMDAT ?__LINE__Var@?0??OnRequestGetSendPresent@CDataBaseEngineSink@@IAE_NKPAXG@Z@4JA
_DATA	SEGMENT
?__LINE__Var@?0??OnRequestGetSendPresent@CDataBaseEngineSink@@IAE_NKPAXG@Z@4JA DD 014afH ; `CDataBaseEngineSink::OnRequestGetSendPresent'::`1'::__LINE__Var
_DATA	ENDS
;	COMDAT ??_C@_0CP@MNEJCLKP@CDataBaseEngineSink?3?3OnRequestQ@
CONST	SEGMENT
??_C@_0CP@MNEJCLKP@CDataBaseEngineSink?3?3OnRequestQ@ DB 'CDataBaseEngine'
	DB	'Sink::OnRequestQuerySendPresent', 00H	; `string'
CONST	ENDS
;	COMDAT ??_C@_08FBPGFENK@SendTime@
CONST	SEGMENT
??_C@_08FBPGFENK@SendTime@ DB 'SendTime', 00H		; `string'
CONST	ENDS
;	COMDAT ??_C@_09FJMCAKIG@PropCount@
CONST	SEGMENT
??_C@_09FJMCAKIG@PropCount@ DB 'PropCount', 00H		; `string'
CONST	ENDS
;	COMDAT ??_C@_06JMKPBJLC@PropID@
CONST	SEGMENT
??_C@_06JMKPBJLC@PropID@ DB 'PropID', 00H		; `string'
CONST	ENDS
;	COMDAT ??_C@_0P@KKCLPPAI@ReceiverUserID@
CONST	SEGMENT
??_C@_0P@KKCLPPAI@ReceiverUserID@ DB 'ReceiverUserID', 00H ; `string'
CONST	ENDS
;	COMDAT ??_C@_0BI@HEBCAEB@GSP_GP_QuerySendPresent@
CONST	SEGMENT
??_C@_0BI@HEBCAEB@GSP_GP_QuerySendPresent@ DB 'GSP_GP_QuerySendPresent', 00H ; `string'
CONST	ENDS
;	COMDAT ?__LINE__Var@?0??OnRequestQuerySendPresent@CDataBaseEngineSink@@IAE_NKPAXG@Z@4JA
_DATA	SEGMENT
?__LINE__Var@?0??OnRequestQuerySendPresent@CDataBaseEngineSink@@IAE_NKPAXG@Z@4JA DD 01458H ; `CDataBaseEngineSink::OnRequestQuerySendPresent'::`1'::__LINE__Var
_DATA	ENDS
;	COMDAT ??_C@_0BK@NFGNJPHM@?T?y?K?M?$LF?$MA?$LO?$NP?J?$LB?5?J?$PN?$LO?$NN?$LP?b?$LC?Y?W?w?R?l?$LD?$KD@
CONST	SEGMENT
??_C@_0BK@NFGNJPHM@?T?y?K?M?$LF?$MA?$LO?$NP?J?$LB?5?J?$PN?$LO?$NN?$LP?b?$LC?Y?W?w?R?l?$LD?$KD@ DB 0d4H
	DB	0f9H, 0cbH, 0cdH, 0b5H, 0c0H, 0beH, 0dfH, 0caH, 0b1H, ' ', 0caH
	DB	0fdH, 0beH, 0ddH, 0bfH, 0e2H, 0b2H, 0d9H, 0d7H, 0f7H, 0d2H, 0ecH
	DB	0b3H, 0a3H, 00H				; `string'
CONST	ENDS
;	COMDAT ??_C@_0CO@GBFGHFMF@CDataBaseEngineSink?3?3OnRequestP@
CONST	SEGMENT
??_C@_0CO@GBFGHFMF@CDataBaseEngineSink?3?3OnRequestP@ DB 'CDataBaseEngine'
	DB	'Sink::OnRequestPropertyPresent', 00H	; `string'
CONST	ENDS
;	COMDAT ??_C@_0BL@FEGBPCHF@GSP_GP_UserSendPresentByID@
CONST	SEGMENT
??_C@_0BL@FEGBPCHF@GSP_GP_UserSendPresentByID@ DB 'GSP_GP_UserSendPresent'
	DB	'ByID', 00H					; `string'
CONST	ENDS
;	COMDAT ??_C@_0CB@GDJHILDF@GSP_GP_UserSendPresentByNickNam@
CONST	SEGMENT
??_C@_0CB@GDJHILDF@GSP_GP_UserSendPresentByNickNam@ DB 'GSP_GP_UserSendPr'
	DB	'esentByNickName', 00H			; `string'
CONST	ENDS
;	COMDAT ??_C@_0BC@MBPNHCPP@?$EAdwReceiverGameID@
CONST	SEGMENT
??_C@_0BC@MBPNHCPP@?$EAdwReceiverGameID@ DB '@dwReceiverGameID', 00H ; `string'
CONST	ENDS
;	COMDAT ??_C@_0BF@FNAOCACP@?$EAstrReceiverNickName@
CONST	SEGMENT
??_C@_0BF@FNAOCACP@?$EAstrReceiverNickName@ DB '@strReceiverNickName', 00H ; `string'
CONST	ENDS
;	COMDAT ?__LINE__Var@?0??OnRequestPropertyPresent@CDataBaseEngineSink@@IAE_NKPAXG@Z@4JA
_DATA	SEGMENT
?__LINE__Var@?0??OnRequestPropertyPresent@CDataBaseEngineSink@@IAE_NKPAXG@Z@4JA DD 013fdH ; `CDataBaseEngineSink::OnRequestPropertyPresent'::`1'::__LINE__Var
_DATA	ENDS
;	COMDAT ??_C@_0CL@GEDHBGBM@CDataBaseEngineSink?3?3OnRequestP@
CONST	SEGMENT
??_C@_0CL@GEDHBGBM@CDataBaseEngineSink?3?3OnRequestP@ DB 'CDataBaseEngine'
	DB	'Sink::OnRequestPropertyBuff', 00H		; `string'
CONST	ENDS
;	COMDAT ??_C@_06HCHMMKKG@KindID@
CONST	SEGMENT
??_C@_06HCHMMKKG@KindID@ DB 'KindID', 00H		; `string'
CONST	ENDS
;	COMDAT ??_C@_0BI@NBGDCCNF@GSP_GP_LoadUserGameBuff@
CONST	SEGMENT
??_C@_0BI@NBGDCCNF@GSP_GP_LoadUserGameBuff@ DB 'GSP_GP_LoadUserGameBuff', 00H ; `string'
CONST	ENDS
;	COMDAT ?__LINE__Var@?0??OnRequestPropertyBuff@CDataBaseEngineSink@@IAE_NKPAXG@Z@4JA
_DATA	SEGMENT
?__LINE__Var@?0??OnRequestPropertyBuff@CDataBaseEngineSink@@IAE_NKPAXG@Z@4JA DD 013b4H ; `CDataBaseEngineSink::OnRequestPropertyBuff'::`1'::__LINE__Var
_DATA	ENDS
;	COMDAT ??_C@_0DD@GILLNGIP@CDataBaseEngineSink?3?3OnRequestU@
CONST	SEGMENT
??_C@_0DD@GILLNGIP@CDataBaseEngineSink?3?3OnRequestU@ DB 'CDataBaseEngine'
	DB	'Sink::OnRequestUserBackpackProperty', 00H	; `string'
CONST	ENDS
;	COMDAT ??_C@_0BA@OKKNDLPJ@?$LH?$KC?K?M?$LF?$MA?$LO?$NP?J?$PN?A?$LP?3?$CFd@
CONST	SEGMENT
??_C@_0BA@OKKNDLPJ@?$LH?$KC?K?M?$LF?$MA?$LO?$NP?J?$PN?A?$LP?3?$CFd@ DB 0b7H
	DB	0a2H, 0cbH, 0cdH, 0b5H, 0c0H, 0beH, 0dfH, 0caH, 0fdH, 0c1H, 0bfH
	DB	':%d', 00H					; `string'
CONST	ENDS
;	COMDAT ??_C@_07MDLPIIFA@GoodsID@
CONST	SEGMENT
??_C@_07MDLPIIFA@GoodsID@ DB 'GoodsID', 00H		; `string'
CONST	ENDS
;	COMDAT ??_C@_0L@IGEJKFCI@GoodsCount@
CONST	SEGMENT
??_C@_0L@IGEJKFCI@GoodsCount@ DB 'GoodsCount', 00H	; `string'
CONST	ENDS
;	COMDAT ??_C@_0BJ@NINJDHMC@GSP_GP_QueryUserBackpack@
CONST	SEGMENT
??_C@_0BJ@NINJDHMC@GSP_GP_QueryUserBackpack@ DB 'GSP_GP_QueryUserBackpack'
	DB	00H						; `string'
CONST	ENDS
;	COMDAT ??_C@_07PAELCOKM@?$EAdwKind@
CONST	SEGMENT
??_C@_07PAELCOKM@?$EAdwKind@ DB '@dwKind', 00H		; `string'
CONST	ENDS
;	COMDAT ?__LINE__Var@?0??OnRequestUserBackpackProperty@CDataBaseEngineSink@@IAE_NKPAXG@Z@4JA
_DATA	SEGMENT
?__LINE__Var@?0??OnRequestUserBackpackProperty@CDataBaseEngineSink@@IAE_NKPAXG@Z@4JA DD 01342H ; `CDataBaseEngineSink::OnRequestUserBackpackProperty'::`1'::__LINE__Var
_DATA	ENDS
;	COMDAT ??_C@_0DC@OEEEAILP@CDataBaseEngineSink?3?3OnRequestP@
CONST	SEGMENT
??_C@_0DC@OEEEAILP@CDataBaseEngineSink?3?3OnRequestP@ DB 'CDataBaseEngine'
	DB	'Sink::OnRequestPropertyQuerySingle', 00H	; `string'
CONST	ENDS
;	COMDAT ??_C@_0BK@GGLOIKMH@GSP_GP_PropertQuerySingle@
CONST	SEGMENT
??_C@_0BK@GGLOIKMH@GSP_GP_PropertQuerySingle@ DB 'GSP_GP_PropertQuerySing'
	DB	'le', 00H					; `string'
CONST	ENDS
;	COMDAT ?__LINE__Var@?0??OnRequestPropertyQuerySingle@CDataBaseEngineSink@@IAE_NKPAXG@Z@4JA
_DATA	SEGMENT
?__LINE__Var@?0??OnRequestPropertyQuerySingle@CDataBaseEngineSink@@IAE_NKPAXG@Z@4JA DD 01308H ; `CDataBaseEngineSink::OnRequestPropertyQuerySingle'::`1'::__LINE__Var
_DATA	ENDS
;	COMDAT ??_C@_0CK@EGNEMDGP@CDataBaseEngineSink?3?3OnRequestU@
CONST	SEGMENT
??_C@_0CK@EGNEMDGP@CDataBaseEngineSink?3?3OnRequestU@ DB 'CDataBaseEngine'
	DB	'Sink::OnRequestUseProperty', 00H		; `string'
CONST	ENDS
;	COMDAT ??_C@_07NBJKJPHI@UseTime@
CONST	SEGMENT
??_C@_07NBJKJPHI@UseTime@ DB 'UseTime', 00H		; `string'
CONST	ENDS
;	COMDAT ??_C@_0P@DNPEGDJL@RemainderCount@
CONST	SEGMENT
??_C@_0P@DNPEGDJL@RemainderCount@ DB 'RemainderCount', 00H ; `string'
CONST	ENDS
;	COMDAT ??_C@_0P@IDLLGLHM@GSP_GP_UseProp@
CONST	SEGMENT
??_C@_0P@IDLLGLHM@GSP_GP_UseProp@ DB 'GSP_GP_UseProp', 00H ; `string'
CONST	ENDS
;	COMDAT ??_C@_0N@PEPMKFNO@?$EAdwPropCount@
CONST	SEGMENT
??_C@_0N@PEPMKFNO@?$EAdwPropCount@ DB '@dwPropCount', 00H ; `string'
CONST	ENDS
;	COMDAT ??_C@_09NLOJOBDL@?$EAdwPropID@
CONST	SEGMENT
??_C@_09NLOJOBDL@?$EAdwPropID@ DB '@dwPropID', 00H	; `string'
CONST	ENDS
;	COMDAT ??_C@_0O@GOEJDCMG@?$EAdwRecvUserID@
CONST	SEGMENT
??_C@_0O@GOEJDCMG@?$EAdwRecvUserID@ DB '@dwRecvUserID', 00H ; `string'
CONST	ENDS
;	COMDAT ?__LINE__Var@?0??OnRequestUseProperty@CDataBaseEngineSink@@IAE_NKPAXG@Z@4JA
_DATA	SEGMENT
?__LINE__Var@?0??OnRequestUseProperty@CDataBaseEngineSink@@IAE_NKPAXG@Z@4JA DD 012beH ; `CDataBaseEngineSink::OnRequestUseProperty'::`1'::__LINE__Var
_DATA	ENDS
;	COMDAT ??_C@_0CO@MPKMHGDB@CDataBaseEngineSink?3?3OnRequestB@
CONST	SEGMENT
??_C@_0CO@MPKMHGDB@CDataBaseEngineSink?3?3OnRequestB@ DB 'CDataBaseEngine'
	DB	'Sink::OnRequestBuyGameProperty', 00H	; `string'
CONST	ENDS
;	COMDAT ??_C@_0M@CEFIIFDG@MemberOrder@
CONST	SEGMENT
??_C@_0M@CEFIIFDG@MemberOrder@ DB 'MemberOrder', 00H	; `string'
CONST	ENDS
;	COMDAT ??_C@_07KLLDCFGI@Diamond@
CONST	SEGMENT
??_C@_07KLLDCFGI@Diamond@ DB 'Diamond', 00H		; `string'
CONST	ENDS
;	COMDAT ??_C@_09GGKKDIOI@ItemCount@
CONST	SEGMENT
??_C@_09GGKKDIOI@ItemCount@ DB 'ItemCount', 00H		; `string'
CONST	ENDS
;	COMDAT ??_C@_0BD@IGKNKDED@GSP_GP_BuyProperty@
CONST	SEGMENT
??_C@_0BD@IGKNKDED@GSP_GP_BuyProperty@ DB 'GSP_GP_BuyProperty', 00H ; `string'
CONST	ENDS
;	COMDAT ??_C@_0P@EDMHJKLC@?$EAiDiamondCount@
CONST	SEGMENT
??_C@_0P@EDMHJKLC@?$EAiDiamondCount@ DB '@iDiamondCount', 00H ; `string'
CONST	ENDS
;	COMDAT ??_C@_0O@DKLCKEMB@?$EAdwPropertyID@
CONST	SEGMENT
??_C@_0O@DKLCKEMB@?$EAdwPropertyID@ DB '@dwPropertyID', 00H ; `string'
CONST	ENDS
;	COMDAT ?__LINE__Var@?0??OnRequestBuyGameProperty@CDataBaseEngineSink@@IAE_NKPAXG@Z@4JA
_DATA	SEGMENT
?__LINE__Var@?0??OnRequestBuyGameProperty@CDataBaseEngineSink@@IAE_NKPAXG@Z@4JA DD 01263H ; `CDataBaseEngineSink::OnRequestBuyGameProperty'::`1'::__LINE__Var
_DATA	ENDS
;	COMDAT ??_C@_0DD@HBICOBCA@CDataBaseEngineSink?3?3OnRequestL@
CONST	SEGMENT
??_C@_0DD@HBICOBCA@CDataBaseEngineSink?3?3OnRequestL@ DB 'CDataBaseEngine'
	DB	'Sink::OnRequestLoadGamePropertyList', 00H	; `string'
CONST	ENDS
;	COMDAT ??_C@_05IJGIMMHE@Count@
CONST	SEGMENT
??_C@_05IJGIMMHE@Count@ DB 'Count', 00H			; `string'
CONST	ENDS
;	COMDAT ??_C@_07KOLNMDM@OwnerID@
CONST	SEGMENT
??_C@_07KOLNMDM@OwnerID@ DB 'OwnerID', 00H		; `string'
CONST	ENDS
;	COMDAT ??_C@_0BP@ICIKFNME@GSP_GP_LoadGamePropertySubItem@
CONST	SEGMENT
??_C@_0BP@ICIKFNME@GSP_GP_LoadGamePropertySubItem@ DB 'GSP_GP_LoadGamePro'
	DB	'pertySubItem', 00H				; `string'
CONST	ENDS
;	COMDAT ??_C@_0BA@KPHOLCOF@RegulationsInfo@
CONST	SEGMENT
??_C@_0BA@KPHOLCOF@RegulationsInfo@ DB 'RegulationsInfo', 00H ; `string'
CONST	ENDS
;	COMDAT ??_C@_04FABLJDN@Name@
CONST	SEGMENT
??_C@_04FABLJDN@Name@ DB 'Name', 00H			; `string'
CONST	ENDS
;	COMDAT ??_C@_09OBCHOID@Recommend@
CONST	SEGMENT
??_C@_09OBCHOID@Recommend@ DB 'Recommend', 00H		; `string'
CONST	ENDS
;	COMDAT ??_C@_0BG@LAGKAGMA@UseResultsGiftPackage@
CONST	SEGMENT
??_C@_0BG@LAGKAGMA@UseResultsGiftPackage@ DB 'UseResultsGiftPackage', 00H ; `string'
CONST	ENDS
;	COMDAT ??_C@_0CB@MPNELBLF@UseResultsValidTimeScoreMultipl@
CONST	SEGMENT
??_C@_0CB@MPNELBLF@UseResultsValidTimeScoreMultipl@ DB 'UseResultsValidTi'
	DB	'meScoreMultiple', 00H			; `string'
CONST	ENDS
;	COMDAT ??_C@_0BE@IAAJAJPN@UseResultsValidTime@
CONST	SEGMENT
??_C@_0BE@IAAJAJPN@UseResultsValidTime@ DB 'UseResultsValidTime', 00H ; `string'
CONST	ENDS
;	COMDAT ??_C@_0P@JNHGNONC@UseResultsGold@
CONST	SEGMENT
??_C@_0P@JNHGNONC@UseResultsGold@ DB 'UseResultsGold', 00H ; `string'
CONST	ENDS
;	COMDAT ??_C@_0P@ENAAGJJA@RecvLoveLiness@
CONST	SEGMENT
??_C@_0P@ENAAGJJA@RecvLoveLiness@ DB 'RecvLoveLiness', 00H ; `string'
CONST	ENDS
;	COMDAT ??_C@_0P@FDPEKBGF@SendLoveLiness@
CONST	SEGMENT
??_C@_0P@FDPEKBGF@SendLoveLiness@ DB 'SendLoveLiness', 00H ; `string'
CONST	ENDS
;	COMDAT ??_C@_0M@CENFFNCO@ServiceArea@
CONST	SEGMENT
??_C@_0M@CENFFNCO@ServiceArea@ DB 'ServiceArea', 00H	; `string'
CONST	ENDS
;	COMDAT ??_C@_07JEPNMDKI@UseArea@
CONST	SEGMENT
??_C@_07JEPNMDKI@UseArea@ DB 'UseArea', 00H		; `string'
CONST	ENDS
;	COMDAT ??_C@_09LPJHEOCP@UserMedal@
CONST	SEGMENT
??_C@_09LPJHEOCP@UserMedal@ DB 'UserMedal', 00H		; `string'
CONST	ENDS
;	COMDAT ??_C@_04PABHPHAJ@Gold@
CONST	SEGMENT
??_C@_04PABHPHAJ@Gold@ DB 'Gold', 00H			; `string'
CONST	ENDS
;	COMDAT ??_C@_04FOIHINLL@Cash@
CONST	SEGMENT
??_C@_04FOIHINLL@Cash@ DB 'Cash', 00H			; `string'
CONST	ENDS
;	COMDAT ??_C@_0O@LDHMMBFN@ExchangeRatio@
CONST	SEGMENT
??_C@_0O@LDHMMBFN@ExchangeRatio@ DB 'ExchangeRatio', 00H ; `string'
CONST	ENDS
;	COMDAT ??_C@_04BDAIJBLK@Kind@
CONST	SEGMENT
??_C@_04BDAIJBLK@Kind@ DB 'Kind', 00H			; `string'
CONST	ENDS
;	COMDAT ??_C@_02OLOABKKD@ID@
CONST	SEGMENT
??_C@_02OLOABKKD@ID@ DB 'ID', 00H			; `string'
CONST	ENDS
;	COMDAT ??_C@_0BM@BBCHOPIE@GSP_GP_LoadGamePropertyItem@
CONST	SEGMENT
??_C@_0BM@BBCHOPIE@GSP_GP_LoadGamePropertyItem@ DB 'GSP_GP_LoadGameProper'
	DB	'tyItem', 00H				; `string'
CONST	ENDS
;	COMDAT ??_C@_0L@FPKPEDKI@PropertyID@
CONST	SEGMENT
??_C@_0L@FPKPEDKI@PropertyID@ DB 'PropertyID', 00H	; `string'
CONST	ENDS
;	COMDAT ??_C@_0CB@KHPJDHDO@GSP_GP_LoadGamePropertyRelatIte@
CONST	SEGMENT
??_C@_0CB@KHPJDHDO@GSP_GP_LoadGamePropertyRelatIte@ DB 'GSP_GP_LoadGamePr'
	DB	'opertyRelatItem', 00H			; `string'
CONST	ENDS
;	COMDAT ??_C@_08NNKIOIN@TypeName@
CONST	SEGMENT
??_C@_08NNKIOIN@TypeName@ DB 'TypeName', 00H		; `string'
CONST	ENDS
;	COMDAT ??_C@_06IHFAGKJM@TypeID@
CONST	SEGMENT
??_C@_06IHFAGKJM@TypeID@ DB 'TypeID', 00H		; `string'
CONST	ENDS
;	COMDAT ??_C@_06FBNNGAO@SortID@
CONST	SEGMENT
??_C@_06FBNNGAO@SortID@ DB 'SortID', 00H		; `string'
CONST	ENDS
;	COMDAT ??_C@_0CA@EADOLEEH@GSP_GP_LoadGamePropertyTypeItem@
CONST	SEGMENT
??_C@_0CA@EADOLEEH@GSP_GP_LoadGamePropertyTypeItem@ DB 'GSP_GP_LoadGamePr'
	DB	'opertyTypeItem', 00H			; `string'
CONST	ENDS
;	COMDAT ??_C@_0DG@OCMGMCGE@CDataBaseEngineSink?3?3OnRequestQ@
CONST	SEGMENT
??_C@_0DG@OCMGMCGE@CDataBaseEngineSink?3?3OnRequestQ@ DB 'CDataBaseEngine'
	DB	'Sink::OnRequestQueryGrowLevelParameter', 00H ; `string'
CONST	ENDS
;	COMDAT ??_C@_0BE@JMMGGPNE@?$EAstrUpGradeDescribe@
CONST	SEGMENT
??_C@_0BE@JMMGGPNE@?$EAstrUpGradeDescribe@ DB '@strUpGradeDescribe', 00H ; `string'
CONST	ENDS
;	COMDAT ??_C@_0M@GNOFDGAD@RewardMedal@
CONST	SEGMENT
??_C@_0M@GNOFDGAD@RewardMedal@ DB 'RewardMedal', 00H	; `string'
CONST	ENDS
;	COMDAT ??_C@_0BC@CPJKHIND@UpgradeExperience@
CONST	SEGMENT
??_C@_0BC@CPJKHIND@UpgradeExperience@ DB 'UpgradeExperience', 00H ; `string'
CONST	ENDS
;	COMDAT ??_C@_0M@NBPAMKCD@CurrLevelID@
CONST	SEGMENT
??_C@_0M@NBPAMKCD@CurrLevelID@ DB 'CurrLevelID', 00H	; `string'
CONST	ENDS
;	COMDAT ??_C@_0BG@MGKFFOPK@GSP_GP_QueryGrowLevel@
CONST	SEGMENT
??_C@_0BG@MGKFFOPK@GSP_GP_QueryGrowLevel@ DB 'GSP_GP_QueryGrowLevel', 00H ; `string'
CONST	ENDS
;	COMDAT ??_C@_0BE@FBKCBHAM@?$EAstrUpgradeDescribe@
CONST	SEGMENT
??_C@_0BE@FBKCBHAM@?$EAstrUpgradeDescribe@ DB '@strUpgradeDescribe', 00H ; `string'
CONST	ENDS
;	COMDAT ?__LINE__Var@?0??OnRequestQueryGrowLevelParameter@CDataBaseEngineSink@@IAE_NKPAXG@Z@4JA
_DATA	SEGMENT
?__LINE__Var@?0??OnRequestQueryGrowLevelParameter@CDataBaseEngineSink@@IAE_NKPAXG@Z@4JA DD 0115dH ; `CDataBaseEngineSink::OnRequestQueryGrowLevelParameter'::`1'::__LINE__Var
_DATA	ENDS
;	COMDAT ??_C@_0DC@PMLOHGEK@CDataBaseEngineSink?3?3OnRequestL@
CONST	SEGMENT
??_C@_0DC@PMLOHGEK@CDataBaseEngineSink?3?3OnRequestL@ DB 'CDataBaseEngine'
	DB	'Sink::OnRequestLoadGrowLevelConfig', 00H	; `string'
CONST	ENDS
;	COMDAT ??_C@_0L@DCGNFONO@Experience@
CONST	SEGMENT
??_C@_0L@DCGNFONO@Experience@ DB 'Experience', 00H	; `string'
CONST	ENDS
;	COMDAT ??_C@_07CLGGPGGC@LevelID@
CONST	SEGMENT
??_C@_07CLGGPGGC@LevelID@ DB 'LevelID', 00H		; `string'
CONST	ENDS
;	COMDAT ??_C@_0BL@JMLNBDFD@GSP_GR_LoadGrowLevelConfig@
CONST	SEGMENT
??_C@_0BL@JMLNBDFD@GSP_GR_LoadGrowLevelConfig@ DB 'GSP_GR_LoadGrowLevelCo'
	DB	'nfig', 00H					; `string'
CONST	ENDS
;	COMDAT ??_C@_0CL@DIFMHKJD@CDataBaseEngineSink?3?3OnRequestL@
CONST	SEGMENT
??_C@_0CL@DIFMHKJD@CDataBaseEngineSink?3?3OnRequestL@ DB 'CDataBaseEngine'
	DB	'Sink::OnRequestLoadRealAuth', 00H		; `string'
CONST	ENDS
;	COMDAT ??_C@_0P@HAGEGHLM@AuthentDisable@
CONST	SEGMENT
??_C@_0P@HAGEGHLM@AuthentDisable@ DB 'AuthentDisable', 00H ; `string'
CONST	ENDS
;	COMDAT ??_C@_0O@DJLIOBBJ@AuthRealAward@
CONST	SEGMENT
??_C@_0O@DJLIOBBJ@AuthRealAward@ DB 'AuthRealAward', 00H ; `string'
CONST	ENDS
;	COMDAT ??_C@_0BE@IIOBDMHO@GSP_GP_LoadRealAuth@
CONST	SEGMENT
??_C@_0BE@IIOBDMHO@GSP_GP_LoadRealAuth@ DB 'GSP_GP_LoadRealAuth', 00H ; `string'
CONST	ENDS
;	COMDAT ??_C@_0CO@OIBIPPLI@CDataBaseEngineSink?3?3OnRequestQ@
CONST	SEGMENT
??_C@_0CO@OIBIPPLI@CDataBaseEngineSink?3?3OnRequestQ@ DB 'CDataBaseEngine'
	DB	'Sink::OnRequestQuerySpreadInfo', 00H	; `string'
CONST	ENDS
;	COMDAT ??_C@_0N@JMEHKEMF@SpreadReward@
CONST	SEGMENT
??_C@_0N@JMEHKEMF@SpreadReward@ DB 'SpreadReward', 00H	; `string'
CONST	ENDS
;	COMDAT ??_C@_0M@HBEICICK@SpreadCount@
CONST	SEGMENT
??_C@_0M@HBEICICK@SpreadCount@ DB 'SpreadCount', 00H	; `string'
CONST	ENDS
;	COMDAT ??_C@_0BG@BFDGMLJJ@GSP_GR_LoadSpreadInfo@
CONST	SEGMENT
??_C@_0BG@BFDGMLJJ@GSP_GR_LoadSpreadInfo@ DB 'GSP_GR_LoadSpreadInfo', 00H ; `string'
CONST	ENDS
;	COMDAT ??_C@_0CN@PDKAOGAO@CDataBaseEngineSink?3?3OnRequestT@
CONST	SEGMENT
??_C@_0CN@PDKAOGAO@CDataBaseEngineSink?3?3OnRequestT@ DB 'CDataBaseEngine'
	DB	'Sink::OnRequestTakeBaseEnsure', 00H		; `string'
CONST	ENDS
;	COMDAT ??_C@_0BG@IHMPDPLH@GSP_GP_TakeBaseEnsure@
CONST	SEGMENT
??_C@_0BG@IHMPDPLH@GSP_GP_TakeBaseEnsure@ DB 'GSP_GP_TakeBaseEnsure', 00H ; `string'
CONST	ENDS
;	COMDAT ??_C@_0BC@HOOFHDNN@?$EAstrNotifyContent@
CONST	SEGMENT
??_C@_0BC@HOOFHDNN@?$EAstrNotifyContent@ DB '@strNotifyContent', 00H ; `string'
CONST	ENDS
;	COMDAT ?__LINE__Var@?0??OnRequestTakeBaseEnsure@CDataBaseEngineSink@@IAE_NKPAXG@Z@4JA
_DATA	SEGMENT
?__LINE__Var@?0??OnRequestTakeBaseEnsure@CDataBaseEngineSink@@IAE_NKPAXG@Z@4JA DD 01077H ; `CDataBaseEngineSink::OnRequestTakeBaseEnsure'::`1'::__LINE__Var
_DATA	ENDS
;	COMDAT ??_C@_0CN@BCCKMKAP@CDataBaseEngineSink?3?3OnRequestL@
CONST	SEGMENT
??_C@_0CN@BCCKMKAP@CDataBaseEngineSink?3?3OnRequestL@ DB 'CDataBaseEngine'
	DB	'Sink::OnRequestLoadBaseEnsure', 00H		; `string'
CONST	ENDS
;	COMDAT ??_C@_0P@BGLILAFC@ScoreCondition@
CONST	SEGMENT
??_C@_0P@BGLILAFC@ScoreCondition@ DB 'ScoreCondition', 00H ; `string'
CONST	ENDS
;	COMDAT ??_C@_0M@HIMENDIH@ScoreAmount@
CONST	SEGMENT
??_C@_0M@HIMENDIH@ScoreAmount@ DB 'ScoreAmount', 00H	; `string'
CONST	ENDS
;	COMDAT ??_C@_09DDOCKIAO@TakeTimes@
CONST	SEGMENT
??_C@_09DDOCKIAO@TakeTimes@ DB 'TakeTimes', 00H		; `string'
CONST	ENDS
;	COMDAT ??_C@_0BG@GGEFBDLG@GSP_GP_LoadBaseEnsure@
CONST	SEGMENT
??_C@_0BG@GGEFBDLG@GSP_GP_LoadBaseEnsure@ DB 'GSP_GP_LoadBaseEnsure', 00H ; `string'
CONST	ENDS
;	COMDAT ??_C@_0CM@BKBDBKAO@CDataBaseEngineSink?3?3OnRequestT@
CONST	SEGMENT
??_C@_0CM@BKBDBKAO@CDataBaseEngineSink?3?3OnRequestT@ DB 'CDataBaseEngine'
	DB	'Sink::OnRequestTaskQueryInfo', 00H		; `string'
CONST	ENDS
;	COMDAT ??_C@_08DAJBHHIG@Progress@
CONST	SEGMENT
??_C@_08DAJBHHIG@Progress@ DB 'Progress', 00H		; `string'
CONST	ENDS
;	COMDAT ??_C@_0L@LCDMJJED@TaskStatus@
CONST	SEGMENT
??_C@_0L@LCDMJJED@TaskStatus@ DB 'TaskStatus', 00H	; `string'
CONST	ENDS
;	COMDAT ??_C@_06MPKKOHIJ@TaskID@
CONST	SEGMENT
??_C@_06MPKKOHIJ@TaskID@ DB 'TaskID', 00H		; `string'
CONST	ENDS
;	COMDAT ??_C@_0BF@CABIHPIH@GSP_GR_QueryTaskInfo@
CONST	SEGMENT
??_C@_0BF@CABIHPIH@GSP_GR_QueryTaskInfo@ DB 'GSP_GR_QueryTaskInfo', 00H ; `string'
CONST	ENDS
;	COMDAT ?__LINE__Var@?0??OnRequestTaskQueryInfo@CDataBaseEngineSink@@IAE_NKPAXG@Z@4JA
_DATA	SEGMENT
?__LINE__Var@?0??OnRequestTaskQueryInfo@CDataBaseEngineSink@@IAE_NKPAXG@Z@4JA DD 0fe9H ; `CDataBaseEngineSink::OnRequestTaskQueryInfo'::`1'::__LINE__Var
_DATA	ENDS
;	COMDAT ??_C@_0CJ@GIKKGGBO@CDataBaseEngineSink?3?3OnRequestT@
CONST	SEGMENT
??_C@_0CJ@GIKKGGBO@CDataBaseEngineSink?3?3OnRequestT@ DB 'CDataBaseEngine'
	DB	'Sink::OnRequestTaskReward', 00H		; `string'
CONST	ENDS
;	COMDAT ??_C@_0BC@LNNECEA@GSP_GR_TaskReward@
CONST	SEGMENT
??_C@_0BC@LNNECEA@GSP_GR_TaskReward@ DB 'GSP_GR_TaskReward', 00H ; `string'
CONST	ENDS
;	COMDAT ?__LINE__Var@?0??OnRequestTaskReward@CDataBaseEngineSink@@IAE_NKPAXG@Z@4JA
_DATA	SEGMENT
?__LINE__Var@?0??OnRequestTaskReward@CDataBaseEngineSink@@IAE_NKPAXG@Z@4JA DD 0f9aH ; `CDataBaseEngineSink::OnRequestTaskReward'::`1'::__LINE__Var
_DATA	ENDS
;	COMDAT ??_C@_0CH@BNKPKJJC@CDataBaseEngineSink?3?3OnRequestT@
CONST	SEGMENT
??_C@_0CH@BNKPKJJC@CDataBaseEngineSink?3?3OnRequestT@ DB 'CDataBaseEngine'
	DB	'Sink::OnRequestTaskTake', 00H		; `string'
CONST	ENDS
;	COMDAT ??_C@_0BA@OEKNDNNG@GSP_GR_TaskTake@
CONST	SEGMENT
??_C@_0BA@OEKNDNNG@GSP_GR_TaskTake@ DB 'GSP_GR_TaskTake', 00H ; `string'
CONST	ENDS
;	COMDAT ?__LINE__Var@?0??OnRequestTaskTake@CDataBaseEngineSink@@IAE_NKPAXG@Z@4JA
_DATA	SEGMENT
?__LINE__Var@?0??OnRequestTaskTake@CDataBaseEngineSink@@IAE_NKPAXG@Z@4JA DD 0f52H ; `CDataBaseEngineSink::OnRequestTaskTake'::`1'::__LINE__Var
_DATA	ENDS
;	COMDAT ??_C@_0CJ@ILCACMNL@CDataBaseEngineSink?3?3OnRequestT@
CONST	SEGMENT
??_C@_0CJ@ILCACMNL@CDataBaseEngineSink?3?3OnRequestT@ DB 'CDataBaseEngine'
	DB	'Sink::OnRequestTaskGiveUp', 00H		; `string'
CONST	ENDS
;	COMDAT ??_C@_0BC@OIFHAIIF@GSP_GR_TaskGiveUp@
CONST	SEGMENT
??_C@_0BC@OIFHAIIF@GSP_GR_TaskGiveUp@ DB 'GSP_GR_TaskGiveUp', 00H ; `string'
CONST	ENDS
;	COMDAT ??_C@_08MMMILHNH@?$EAwTaskID@
CONST	SEGMENT
??_C@_08MMMILHNH@?$EAwTaskID@ DB '@wTaskID', 00H	; `string'
CONST	ENDS
;	COMDAT ?__LINE__Var@?0??OnRequestTaskGiveUp@CDataBaseEngineSink@@IAE_NKPAXG@Z@4JA
_DATA	SEGMENT
?__LINE__Var@?0??OnRequestTaskGiveUp@CDataBaseEngineSink@@IAE_NKPAXG@Z@4JA DD 0f0aH ; `CDataBaseEngineSink::OnRequestTaskGiveUp'::`1'::__LINE__Var
_DATA	ENDS
;	COMDAT ??_C@_0CK@GAMLIDKL@CDataBaseEngineSink?3?3OnRequestC@
CONST	SEGMENT
??_C@_0CK@GAMLIDKL@CDataBaseEngineSink?3?3OnRequestC@ DB 'CDataBaseEngine'
	DB	'Sink::OnRequestCheckInDone', 00H		; `string'
CONST	ENDS
;	COMDAT ??_C@_0BD@OMHLIIHM@GSP_GR_CheckInDone@
CONST	SEGMENT
??_C@_0BD@OMHLIIHM@GSP_GR_CheckInDone@ DB 'GSP_GR_CheckInDone', 00H ; `string'
CONST	ENDS
;	COMDAT ?__LINE__Var@?0??OnRequestCheckInDone@CDataBaseEngineSink@@IAE_NKPAXG@Z@4JA
_DATA	SEGMENT
?__LINE__Var@?0??OnRequestCheckInDone@CDataBaseEngineSink@@IAE_NKPAXG@Z@4JA DD 0ebfH ; `CDataBaseEngineSink::OnRequestCheckInDone'::`1'::__LINE__Var
_DATA	ENDS
;	COMDAT ??_C@_0CP@LGOLPPK@CDataBaseEngineSink?3?3OnRequestC@
CONST	SEGMENT
??_C@_0CP@LGOLPPK@CDataBaseEngineSink?3?3OnRequestC@ DB 'CDataBaseEngineS'
	DB	'ink::OnRequestCheckInQueryInfo', 00H	; `string'
CONST	ENDS
;	COMDAT ??_C@_0P@BNJFDPAO@TodayCheckIned@
CONST	SEGMENT
??_C@_0P@BNJFDPAO@TodayCheckIned@ DB 'TodayCheckIned', 00H ; `string'
CONST	ENDS
;	COMDAT ??_C@_0L@GCLIEHGN@SeriesDate@
CONST	SEGMENT
??_C@_0L@GCLIEHGN@SeriesDate@ DB 'SeriesDate', 00H	; `string'
CONST	ENDS
;	COMDAT ??_C@_0BI@LFNCLCOF@GSP_GR_CheckInQueryInfo@
CONST	SEGMENT
??_C@_0BI@LFNCLCOF@GSP_GR_CheckInQueryInfo@ DB 'GSP_GR_CheckInQueryInfo', 00H ; `string'
CONST	ENDS
;	COMDAT ?__LINE__Var@?0??OnRequestCheckInQueryInfo@CDataBaseEngineSink@@IAE_NKPAXG@Z@4JA
_DATA	SEGMENT
?__LINE__Var@?0??OnRequestCheckInQueryInfo@CDataBaseEngineSink@@IAE_NKPAXG@Z@4JA DD 0e76H ; `CDataBaseEngineSink::OnRequestCheckInQueryInfo'::`1'::__LINE__Var
_DATA	ENDS
;	COMDAT ??_C@_0CM@CIKBCNNI@CDataBaseEngineSink?3?3OnRequestC@
CONST	SEGMENT
??_C@_0CM@CIKBCNNI@CDataBaseEngineSink?3?3OnRequestC@ DB 'CDataBaseEngine'
	DB	'Sink::OnRequestCheckInReward', 00H		; `string'
CONST	ENDS
;	COMDAT ??_C@_0L@CKLPJIFO@RewardGold@
CONST	SEGMENT
??_C@_0L@CKLPJIFO@RewardGold@ DB 'RewardGold', 00H	; `string'
CONST	ENDS
;	COMDAT ??_C@_05IDMPJLID@DayID@
CONST	SEGMENT
??_C@_05IDMPJLID@DayID@ DB 'DayID', 00H			; `string'
CONST	ENDS
;	COMDAT ??_C@_0BJ@DMKNJEFD@GSP_GP_LoadCheckInReward@
CONST	SEGMENT
??_C@_0BJ@DMKNJEFD@GSP_GP_LoadCheckInReward@ DB 'GSP_GP_LoadCheckInReward'
	DB	00H						; `string'
CONST	ENDS
;	COMDAT ??_C@_0DC@CDLHLEMA@CDataBaseEngineSink?3?3OnRequestQ@
CONST	SEGMENT
??_C@_0DC@CDLHLEMA@CDataBaseEngineSink?3?3OnRequestQ@ DB 'CDataBaseEngine'
	DB	'Sink::OnRequestQueryTransferRebate', 00H	; `string'
CONST	ENDS
;	COMDAT ??_C@_0L@KHHLPNPI@LoveLiness@
CONST	SEGMENT
??_C@_0L@KHHLPNPI@LoveLiness@ DB 'LoveLiness', 00H	; `string'
CONST	ENDS
;	COMDAT ??_C@_05OOEBDDIB@Ingot@
CONST	SEGMENT
??_C@_05OOEBDDIB@Ingot@ DB 'Ingot', 00H			; `string'
CONST	ENDS
;	COMDAT ??_C@_0O@ODELFGBD@RebateEnabled@
CONST	SEGMENT
??_C@_0O@ODELFGBD@RebateEnabled@ DB 'RebateEnabled', 00H ; `string'
CONST	ENDS
;	COMDAT ??_C@_0BL@EDLENBNJ@GSP_GR_QueryTransferRebate@
CONST	SEGMENT
??_C@_0BL@EDLENBNJ@GSP_GR_QueryTransferRebate@ DB 'GSP_GR_QueryTransferRe'
	DB	'bate', 00H					; `string'
CONST	ENDS
;	COMDAT ?__LINE__Var@?0??OnRequestQueryTransferRebate@CDataBaseEngineSink@@IAE_NKPAXG@Z@4JA
_DATA	SEGMENT
?__LINE__Var@?0??OnRequestQueryTransferRebate@CDataBaseEngineSink@@IAE_NKPAXG@Z@4JA DD 0e14H ; `CDataBaseEngineSink::OnRequestQueryTransferRebate'::`1'::__LINE__Var
_DATA	ENDS
;	COMDAT ??_C@_0DE@LJCJKDHO@CDataBaseEngineSink?3?3OnRequestQ@
CONST	SEGMENT
??_C@_0DE@LJCJKDHO@CDataBaseEngineSink?3?3OnRequestQ@ DB 'CDataBaseEngine'
	DB	'Sink::OnRequestQueryTransferUserInfo', 00H	; `string'
CONST	ENDS
;	COMDAT ??_C@_08HAKGLFIM@Accounts@
CONST	SEGMENT
??_C@_08HAKGLFIM@Accounts@ DB 'Accounts', 00H		; `string'
CONST	ENDS
;	COMDAT ??_C@_06KGJDDPAK@GameID@
CONST	SEGMENT
??_C@_06KGJDDPAK@GameID@ DB 'GameID', 00H		; `string'
CONST	ENDS
;	COMDAT ??_C@_0BN@BPPBPPLC@GSP_GR_QueryTransferUserInfo@
CONST	SEGMENT
??_C@_0BN@BPPBPPLC@GSP_GR_QueryTransferUserInfo@ DB 'GSP_GR_QueryTransfer'
	DB	'UserInfo', 00H				; `string'
CONST	ENDS
;	COMDAT ??_C@_0O@KBJAEAIJ@?$EAcbByNickName@
CONST	SEGMENT
??_C@_0O@KBJAEAIJ@?$EAcbByNickName@ DB '@cbByNickName', 00H ; `string'
CONST	ENDS
;	COMDAT ?__LINE__Var@?0??OnRequestQueryTransferUserInfo@CDataBaseEngineSink@@IAE_NKPAXG@Z@4JA
_DATA	SEGMENT
?__LINE__Var@?0??OnRequestQueryTransferUserInfo@CDataBaseEngineSink@@IAE_NKPAXG@Z@4JA DD 0dd8H ; `CDataBaseEngineSink::OnRequestQueryTransferUserInfo'::`1'::__LINE__Var
_DATA	ENDS
;	COMDAT ??_C@_0CO@GLIMKCDC@CDataBaseEngineSink?3?3OnRequestQ@
CONST	SEGMENT
??_C@_0CO@GLIMKCDC@CDataBaseEngineSink?3?3OnRequestQ@ DB 'CDataBaseEngine'
	DB	'Sink::OnRequestQueryInsureInfo', 00H	; `string'
CONST	ENDS
;	COMDAT ??_C@_09BHJIBPFI@UserRight@
CONST	SEGMENT
??_C@_09BHJIBPFI@UserRight@ DB 'UserRight', 00H		; `string'
CONST	ENDS
;	COMDAT ??_C@_0BF@DFIKLPAJ@TransferPrerequisite@
CONST	SEGMENT
??_C@_0BF@DFIKLPAJ@TransferPrerequisite@ DB 'TransferPrerequisite', 00H ; `string'
CONST	ENDS
;	COMDAT ??_C@_06CMJCJHGM@Insure@
CONST	SEGMENT
??_C@_06CMJCJHGM@Insure@ DB 'Insure', 00H		; `string'
CONST	ENDS
;	COMDAT ??_C@_05DGAPONBB@Score@
CONST	SEGMENT
??_C@_05DGAPONBB@Score@ DB 'Score', 00H			; `string'
CONST	ENDS
;	COMDAT ??_C@_08BHBELLIH@ServerID@
CONST	SEGMENT
??_C@_08BHBELLIH@ServerID@ DB 'ServerID', 00H		; `string'
CONST	ENDS
;	COMDAT ??_C@_0BG@EHBBDEOF@RevenueTransferMember@
CONST	SEGMENT
??_C@_0BG@EHBBDEOF@RevenueTransferMember@ DB 'RevenueTransferMember', 00H ; `string'
CONST	ENDS
;	COMDAT ??_C@_0BA@HIHDDCHL@RevenueTransfer@
CONST	SEGMENT
??_C@_0BA@HIHDDCHL@RevenueTransfer@ DB 'RevenueTransfer', 00H ; `string'
CONST	ENDS
;	COMDAT ??_C@_0M@KJEDGHOP@RevenueTake@
CONST	SEGMENT
??_C@_0M@KJEDGHOP@RevenueTake@ DB 'RevenueTake', 00H	; `string'
CONST	ENDS
;	COMDAT ??_C@_0P@DBBFLPKL@EnjoinTransfer@
CONST	SEGMENT
??_C@_0P@DBBFLPKL@EnjoinTransfer@ DB 'EnjoinTransfer', 00H ; `string'
CONST	ENDS
;	COMDAT ??_C@_0BL@GGGEOIGJ@GSP_GR_QueryUserInsureInfo@
CONST	SEGMENT
??_C@_0BL@GGGEOIGJ@GSP_GR_QueryUserInsureInfo@ DB 'GSP_GR_QueryUserInsure'
	DB	'Info', 00H					; `string'
CONST	ENDS
;	COMDAT ?__LINE__Var@?0??OnRequestQueryInsureInfo@CDataBaseEngineSink@@IAE_NKPAXG@Z@4JA
_DATA	SEGMENT
?__LINE__Var@?0??OnRequestQueryInsureInfo@CDataBaseEngineSink@@IAE_NKPAXG@Z@4JA DD 0d8bH ; `CDataBaseEngineSink::OnRequestQueryInsureInfo'::`1'::__LINE__Var
_DATA	ENDS
;	COMDAT ??_C@_0CO@JLJPDDOL@CDataBaseEngineSink?3?3OnRequestQ@
CONST	SEGMENT
??_C@_0CO@JLJPDDOL@CDataBaseEngineSink?3?3OnRequestQ@ DB 'CDataBaseEngine'
	DB	'Sink::OnRequestQueryIndividual', 00H	; `string'
CONST	ENDS
;	COMDAT ??_C@_08JOLEHEIP@Spreader@
CONST	SEGMENT
??_C@_08JOLEHEIP@Spreader@ DB 'Spreader', 00H		; `string'
CONST	ENDS
;	COMDAT ??_C@_0O@GKEPGAEM@DwellingPlace@
CONST	SEGMENT
??_C@_0O@GKEPGAEM@DwellingPlace@ DB 'DwellingPlace', 00H ; `string'
CONST	ENDS
;	COMDAT ??_C@_05LMBPBNBJ@EMail@
CONST	SEGMENT
??_C@_05LMBPBNBJ@EMail@ DB 'EMail', 00H			; `string'
CONST	ENDS
;	COMDAT ??_C@_02MOGAAOHP@QQ@
CONST	SEGMENT
??_C@_02MOGAAOHP@QQ@ DB 'QQ', 00H			; `string'
CONST	ENDS
;	COMDAT ??_C@_0M@OJIHCJC@MobilePhone@
CONST	SEGMENT
??_C@_0M@OJIHCJC@MobilePhone@ DB 'MobilePhone', 00H	; `string'
CONST	ENDS
;	COMDAT ??_C@_09MAIOJANC@SeatPhone@
CONST	SEGMENT
??_C@_09MAIOJANC@SeatPhone@ DB 'SeatPhone', 00H		; `string'
CONST	ENDS
;	COMDAT ??_C@_0L@GPHEHJAI@PassPortID@
CONST	SEGMENT
??_C@_0L@GPHEHJAI@PassPortID@ DB 'PassPortID', 00H	; `string'
CONST	ENDS
;	COMDAT ??_C@_0N@CLIEFGAF@Compellation@
CONST	SEGMENT
??_C@_0N@CLIEFGAF@Compellation@ DB 'Compellation', 00H	; `string'
CONST	ENDS
;	COMDAT ??_C@_08FDHMOIIA@UserNote@
CONST	SEGMENT
??_C@_08FDHMOIIA@UserNote@ DB 'UserNote', 00H		; `string'
CONST	ENDS
;	COMDAT ??_C@_06OFHCDFJK@UserID@
CONST	SEGMENT
??_C@_06OFHCDFJK@UserID@ DB 'UserID', 00H		; `string'
CONST	ENDS
;	COMDAT ??_C@_0BL@LICHLADA@GSP_GP_QueryUserIndividual@
CONST	SEGMENT
??_C@_0BL@LICHLADA@GSP_GP_QueryUserIndividual@ DB 'GSP_GP_QueryUserIndivi'
	DB	'dual', 00H					; `string'
CONST	ENDS
;	COMDAT ?__LINE__Var@?0??OnRequestQueryIndividual@CDataBaseEngineSink@@IAE_NKPAXG@Z@4JA
_DATA	SEGMENT
?__LINE__Var@?0??OnRequestQueryIndividual@CDataBaseEngineSink@@IAE_NKPAXG@Z@4JA DD 0d38H ; `CDataBaseEngineSink::OnRequestQueryIndividual'::`1'::__LINE__Var
_DATA	ENDS
;	COMDAT ??_C@_0CL@GIMLPHPA@CDataBaseEngineSink?3?3OnRequestB@
CONST	SEGMENT
??_C@_0CL@GIMLPHPA@CDataBaseEngineSink?3?3OnRequestB@ DB 'CDataBaseEngine'
	DB	'Sink::OnRequestBindSpreader', 00H		; `string'
CONST	ENDS
;	COMDAT ??_C@_0BA@LFAFGHBB@dwRewardDiamond@
CONST	SEGMENT
??_C@_0BA@LFAFGHBB@dwRewardDiamond@ DB 'dwRewardDiamond', 00H ; `string'
CONST	ENDS
;	COMDAT ??_C@_09GBNFJIGB@dwDiamond@
CONST	SEGMENT
??_C@_09GBNFJIGB@dwDiamond@ DB 'dwDiamond', 00H		; `string'
CONST	ENDS
;	COMDAT ??_C@_0BE@NIHGLBBN@GSP_GP_BindSpreader@
CONST	SEGMENT
??_C@_0BE@NIHGLBBN@GSP_GP_BindSpreader@ DB 'GSP_GP_BindSpreader', 00H ; `string'
CONST	ENDS
;	COMDAT ??_C@_0O@GFDAHEDC@?$EAdwSpreaderID@
CONST	SEGMENT
??_C@_0O@GFDAHEDC@?$EAdwSpreaderID@ DB '@dwSpreaderID', 00H ; `string'
CONST	ENDS
;	COMDAT ?__LINE__Var@?0??OnRequestBindSpreader@CDataBaseEngineSink@@IAE_NKPAXG@Z@4JA
_DATA	SEGMENT
?__LINE__Var@?0??OnRequestBindSpreader@CDataBaseEngineSink@@IAE_NKPAXG@Z@4JA DD 0cf0H ; `CDataBaseEngineSink::OnRequestBindSpreader'::`1'::__LINE__Var
_DATA	ENDS
;	COMDAT ??_C@_0CO@EEIIOPCJ@CDataBaseEngineSink?3?3OnRequestD@
CONST	SEGMENT
??_C@_0CO@EEIIOPCJ@CDataBaseEngineSink?3?3OnRequestD@ DB 'CDataBaseEngine'
	DB	'Sink::OnRequestDeleteParameter', 00H	; `string'
CONST	ENDS
;	COMDAT ??_C@_0BO@NHPNAIDB@GSP_GP_AndroidDeleteParameter@
CONST	SEGMENT
??_C@_0BO@NHPNAIDB@GSP_GP_AndroidDeleteParameter@ DB 'GSP_GP_AndroidDelet'
	DB	'eParameter', 00H				; `string'
CONST	ENDS
;	COMDAT ??_C@_0L@BDGKHOMD@?$EAdwBatchID@
CONST	SEGMENT
??_C@_0L@BDGKHOMD@?$EAdwBatchID@ DB '@dwBatchID', 00H	; `string'
CONST	ENDS
;	COMDAT ?__LINE__Var@?0??OnRequestDeleteParameter@CDataBaseEngineSink@@IAE_NKPAXG@Z@4JA
_DATA	SEGMENT
?__LINE__Var@?0??OnRequestDeleteParameter@CDataBaseEngineSink@@IAE_NKPAXG@Z@4JA DD 0cc8H ; `CDataBaseEngineSink::OnRequestDeleteParameter'::`1'::__LINE__Var
_DATA	ENDS
;	COMDAT ??_C@_0CO@BDNABOED@CDataBaseEngineSink?3?3OnRequestM@
CONST	SEGMENT
??_C@_0CO@BDNABOED@CDataBaseEngineSink?3?3OnRequestM@ DB 'CDataBaseEngine'
	DB	'Sink::OnRequestModifyParameter', 00H	; `string'
CONST	ENDS
;	COMDAT ??_C@_0BO@IAKFPJFL@GSP_GP_AndroidModifyParameter@
CONST	SEGMENT
??_C@_0BO@IAKFPJFL@GSP_GP_AndroidModifyParameter@ DB 'GSP_GP_AndroidModif'
	DB	'yParameter', 00H				; `string'
CONST	ENDS
;	COMDAT ??_C@_0L@NFAFHHEE@?$EAdwDatchID@
CONST	SEGMENT
??_C@_0L@NFAFHHEE@?$EAdwDatchID@ DB '@dwDatchID', 00H	; `string'
CONST	ENDS
;	COMDAT ?__LINE__Var@?0??OnRequestModifyParameter@CDataBaseEngineSink@@IAE_NKPAXG@Z@4JA
_DATA	SEGMENT
?__LINE__Var@?0??OnRequestModifyParameter@CDataBaseEngineSink@@IAE_NKPAXG@Z@4JA DD 0c8fH ; `CDataBaseEngineSink::OnRequestModifyParameter'::`1'::__LINE__Var
_DATA	ENDS
;	COMDAT ??_C@_0CL@JFAHPKFO@CDataBaseEngineSink?3?3OnRequestA@
CONST	SEGMENT
??_C@_0CL@JFAHPKFO@CDataBaseEngineSink?3?3OnRequestA@ DB 'CDataBaseEngine'
	DB	'Sink::OnRequestAddParameter', 00H		; `string'
CONST	ENDS
;	COMDAT ??_C@_0BL@JOHHIMKH@GSP_GP_AndroidAddParameter@
CONST	SEGMENT
??_C@_0BL@JOHHIMKH@GSP_GP_AndroidAddParameter@ DB 'GSP_GP_AndroidAddParam'
	DB	'eter', 00H					; `string'
CONST	ENDS
;	COMDAT ??_C@_0BH@EAHLFBNA@?$EAdwAndroidCountMember5@
CONST	SEGMENT
??_C@_0BH@EAHLFBNA@?$EAdwAndroidCountMember5@ DB '@dwAndroidCountMember5', 00H ; `string'
CONST	ENDS
;	COMDAT ??_C@_0BH@FJGAGAJB@?$EAdwAndroidCountMember4@
CONST	SEGMENT
??_C@_0BH@FJGAGAJB@?$EAdwAndroidCountMember4@ DB '@dwAndroidCountMember4', 00H ; `string'
CONST	ENDS
;	COMDAT ??_C@_0BH@BGCBPGFG@?$EAdwAndroidCountMember3@
CONST	SEGMENT
??_C@_0BH@BGCBPGFG@?$EAdwAndroidCountMember3@ DB '@dwAndroidCountMember3', 00H ; `string'
CONST	ENDS
;	COMDAT ??_C@_0BH@PDKMHBH@?$EAdwAndroidCountMember2@
CONST	SEGMENT
??_C@_0BH@PDKMHBH@?$EAdwAndroidCountMember2@ DB '@dwAndroidCountMember2', 00H ; `string'
CONST	ENDS
;	COMDAT ??_C@_0BH@CEBHJENE@?$EAdwAndroidCountMember1@
CONST	SEGMENT
??_C@_0BH@CEBHJENE@?$EAdwAndroidCountMember1@ DB '@dwAndroidCountMember1', 00H ; `string'
CONST	ENDS
;	COMDAT ??_C@_0BH@DNAMKFJF@?$EAdwAndroidCountMember0@
CONST	SEGMENT
??_C@_0BH@DNAMKFJF@?$EAdwAndroidCountMember0@ DB '@dwAndroidCountMember0', 00H ; `string'
CONST	ENDS
;	COMDAT ??_C@_0BE@LPPMFLOA@?$EAdwSwitchMaxInnings@
CONST	SEGMENT
??_C@_0BE@LPPMFLOA@?$EAdwSwitchMaxInnings@ DB '@dwSwitchMaxInnings', 00H ; `string'
CONST	ENDS
;	COMDAT ??_C@_0BE@HDPBCAOP@?$EAdwSwitchMinInnings@
CONST	SEGMENT
??_C@_0BE@HDPBCAOP@?$EAdwSwitchMinInnings@ DB '@dwSwitchMinInnings', 00H ; `string'
CONST	ENDS
;	COMDAT ??_C@_0P@OOCJFDNN@?$EAlTakeMaxScore@
CONST	SEGMENT
??_C@_0P@OOCJFDNN@?$EAlTakeMaxScore@ DB '@lTakeMaxScore', 00H ; `string'
CONST	ENDS
;	COMDAT ??_C@_0P@DJMCOBJM@?$EAlTakeMinScore@
CONST	SEGMENT
??_C@_0P@DJMCOBJM@?$EAlTakeMinScore@ DB '@lTakeMinScore', 00H ; `string'
CONST	ENDS
;	COMDAT ??_C@_0BE@HONPABMK@?$EAdwLeaveMaxInterval@
CONST	SEGMENT
??_C@_0BE@HONPABMK@?$EAdwLeaveMaxInterval@ DB '@dwLeaveMaxInterval', 00H ; `string'
CONST	ENDS
;	COMDAT ??_C@_0BE@OOKMBBCA@?$EAdwLeaveMinInterval@
CONST	SEGMENT
??_C@_0BE@OOKMBBCA@?$EAdwLeaveMinInterval@ DB '@dwLeaveMinInterval', 00H ; `string'
CONST	ENDS
;	COMDAT ??_C@_0BE@OBPADGFL@?$EAdwEnterMaxInterval@
CONST	SEGMENT
??_C@_0BE@OBPADGFL@?$EAdwEnterMaxInterval@ DB '@dwEnterMaxInterval', 00H ; `string'
CONST	ENDS
;	COMDAT ??_C@_0BE@HBIDCGLB@?$EAdwEnterMinInterval@
CONST	SEGMENT
??_C@_0BE@HBIDCGLB@?$EAdwEnterMinInterval@ DB '@dwEnterMinInterval', 00H ; `string'
CONST	ENDS
;	COMDAT ??_C@_0N@DLMBNGNK@?$EAdwLeaveTime@
CONST	SEGMENT
??_C@_0N@DLMBNGNK@?$EAdwLeaveTime@ DB '@dwLeaveTime', 00H ; `string'
CONST	ENDS
;	COMDAT ??_C@_0N@DJDPOIPC@?$EAdwEnterTime@
CONST	SEGMENT
??_C@_0N@DJDPOIPC@?$EAdwEnterTime@ DB '@dwEnterTime', 00H ; `string'
CONST	ENDS
;	COMDAT ??_C@_0BA@DNMBDDEJ@?$EAdwAndroidCount@
CONST	SEGMENT
??_C@_0BA@DNMBDDEJ@?$EAdwAndroidCount@ DB '@dwAndroidCount', 00H ; `string'
CONST	ENDS
;	COMDAT ??_C@_0P@BCPDFEEF@?$EAdwServiceMode@
CONST	SEGMENT
??_C@_0P@BCPDFEEF@?$EAdwServiceMode@ DB '@dwServiceMode', 00H ; `string'
CONST	ENDS
;	COMDAT ?__LINE__Var@?0??OnRequestAddParameter@CDataBaseEngineSink@@IAE_NKPAXG@Z@4JA
_DATA	SEGMENT
?__LINE__Var@?0??OnRequestAddParameter@CDataBaseEngineSink@@IAE_NKPAXG@Z@4JA DD 0c56H ; `CDataBaseEngineSink::OnRequestAddParameter'::`1'::__LINE__Var
_DATA	ENDS
;	COMDAT ??_C@_0CL@LBKNCH@CDataBaseEngineSink?3?3OnRequestG@
CONST	SEGMENT
??_C@_0CL@LBKNCH@CDataBaseEngineSink?3?3OnRequestG@ DB 'CDataBaseEngineSi'
	DB	'nk::OnRequestGetParameter', 00H		; `string'
CONST	ENDS
;	COMDAT ??_C@_0BL@LMBNLNO@GSP_GP_AndroidGetParameter@
CONST	SEGMENT
??_C@_0BL@LMBNLNO@GSP_GP_AndroidGetParameter@ DB 'GSP_GP_AndroidGetParame'
	DB	'ter', 00H					; `string'
CONST	ENDS
;	COMDAT ?__LINE__Var@?0??OnRequestGetParameter@CDataBaseEngineSink@@IAE_NKPAXG@Z@4JA
_DATA	SEGMENT
?__LINE__Var@?0??OnRequestGetParameter@CDataBaseEngineSink@@IAE_NKPAXG@Z@4JA DD 0c2eH ; `CDataBaseEngineSink::OnRequestGetParameter'::`1'::__LINE__Var
_DATA	ENDS
;	COMDAT ??_C@_0DA@CNDGIIBC@CDataBaseEngineSink?3?3OnRequestA@
CONST	SEGMENT
??_C@_0DA@CNDGIIBC@CDataBaseEngineSink?3?3OnRequestA@ DB 'CDataBaseEngine'
	DB	'Sink::OnRequestAccountBindExists', 00H	; `string'
CONST	ENDS
;	COMDAT ??_C@_0BJ@GKEOEPGG@GSP_GP_AccountBindExists@
CONST	SEGMENT
??_C@_0BJ@GKEOEPGG@GSP_GP_AccountBindExists@ DB 'GSP_GP_AccountBindExists'
	DB	00H						; `string'
CONST	ENDS
;	COMDAT ?__LINE__Var@?0??OnRequestAccountBindExists@CDataBaseEngineSink@@IAE_NKPAXG@Z@4JA
_DATA	SEGMENT
?__LINE__Var@?0??OnRequestAccountBindExists@CDataBaseEngineSink@@IAE_NKPAXG@Z@4JA DD 0bd3H ; `CDataBaseEngineSink::OnRequestAccountBindExists'::`1'::__LINE__Var
_DATA	ENDS
;	COMDAT ??_C@_0CK@DGKNIHOI@CDataBaseEngineSink?3?3OnRequestA@
CONST	SEGMENT
??_C@_0CK@DGKNIHOI@CDataBaseEngineSink?3?3OnRequestA@ DB 'CDataBaseEngine'
	DB	'Sink::OnRequestAccountBind', 00H		; `string'
CONST	ENDS
;	COMDAT ??_C@_0BD@FLHDEIJC@GSP_GP_AccountBind@
CONST	SEGMENT
??_C@_0BD@FLHDEIJC@GSP_GP_AccountBind@ DB 'GSP_GP_AccountBind', 00H ; `string'
CONST	ENDS
;	COMDAT ??_C@_0BB@CPBPFAOJ@?$EAstrBindSpreader@
CONST	SEGMENT
??_C@_0BB@CPBPFAOJ@?$EAstrBindSpreader@ DB '@strBindSpreader', 00H ; `string'
CONST	ENDS
;	COMDAT ??_C@_0BB@OICLFCKK@?$EAstrBindPassword@
CONST	SEGMENT
??_C@_0BB@OICLFCKK@?$EAstrBindPassword@ DB '@strBindPassword', 00H ; `string'
CONST	ENDS
;	COMDAT ??_C@_0BB@MBANJBOK@?$EAstrBindAccounts@
CONST	SEGMENT
??_C@_0BB@MBANJBOK@?$EAstrBindAccounts@ DB '@strBindAccounts', 00H ; `string'
CONST	ENDS
;	COMDAT ?__LINE__Var@?0??OnRequestAccountBind@CDataBaseEngineSink@@IAE_NKPAXG@Z@4JA
_DATA	SEGMENT
?__LINE__Var@?0??OnRequestAccountBind@CDataBaseEngineSink@@IAE_NKPAXG@Z@4JA DD 0b75H ; `CDataBaseEngineSink::OnRequestAccountBind'::`1'::__LINE__Var
_DATA	ENDS
;	COMDAT ??_C@_0DB@EDNNFBBL@CDataBaseEngineSink?3?3OnRequestQ@
CONST	SEGMENT
??_C@_0DB@EDNNFBBL@CDataBaseEngineSink?3?3OnRequestQ@ DB 'CDataBaseEngine'
	DB	'Sink::OnRequestQueryUserRoomScore', 00H	; `string'
CONST	ENDS
;	COMDAT ??_C@_0BA@FHKDBDJN@cbIsDisssumRoom@
CONST	SEGMENT
??_C@_0BA@FHKDBDJN@cbIsDisssumRoom@ DB 'cbIsDisssumRoom', 00H ; `string'
CONST	ENDS
;	COMDAT ??_C@_0M@PPONDONP@UserNicname@
CONST	SEGMENT
??_C@_0M@PPONDONP@UserNicname@ DB 'UserNicname', 00H	; `string'
CONST	ENDS
;	COMDAT ??_C@_06BGALJGJM@RoomID@
CONST	SEGMENT
??_C@_06BGALJGJM@RoomID@ DB 'RoomID', 00H		; `string'
CONST	ENDS
;	COMDAT ??_C@_0CA@FIKKJKAF@GSP_GS_GetPersonalRoomUserScore@
CONST	SEGMENT
??_C@_0CA@FIKKJKAF@GSP_GS_GetPersonalRoomUserScore@ DB 'GSP_GS_GetPersona'
	DB	'lRoomUserScore', 00H			; `string'
CONST	ENDS
;	COMDAT ??_C@_0DI@HAFLFKJG@CDataBaseEngineSink?3?3OnRequestC@
CONST	SEGMENT
??_C@_0DI@HAFLFKJG@CDataBaseEngineSink?3?3OnRequestC@ DB 'CDataBaseEngine'
	DB	'Sink::OnRequestCloseRoomWriteDissumeTime', 00H ; `string'
CONST	ENDS
;	COMDAT ??_C@_0CB@FOIHGICL@GSP_GS_CloseRoomWriteDissumeTim@
CONST	SEGMENT
??_C@_0CB@FOIHGICL@GSP_GS_CloseRoomWriteDissumeTim@ DB 'GSP_GS_CloseRoomW'
	DB	'riteDissumeTime', 00H			; `string'
CONST	ENDS
;	COMDAT ?__LINE__Var@?0??OnRequestCloseRoomWriteDissumeTime@CDataBaseEngineSink@@IAE_NKPAXG@Z@4JA
_DATA	SEGMENT
?__LINE__Var@?0??OnRequestCloseRoomWriteDissumeTime@CDataBaseEngineSink@@IAE_NKPAXG@Z@4JA DD 0ae2H ; `CDataBaseEngineSink::OnRequestCloseRoomWriteDissumeTime'::`1'::__LINE__Var
_DATA	ENDS
;	COMDAT ??_C@_0DA@NIAFDBBJ@CDataBaseEngineSink?3?3OnRequestQ@
CONST	SEGMENT
??_C@_0DA@NIAFDBBJ@CDataBaseEngineSink?3?3OnRequestQ@ DB 'CDataBaseEngine'
	DB	'Sink::OnRequestQueryPersonalRule', 00H	; `string'
CONST	ENDS
;	COMDAT ??_C@_0BJ@JOCGFOJL@?$LL?q?H?$KB?K?$LN?H?K?$LH?$LP?$LG?$KI?V?F?E?d?V?C?$LD?v?$LE?m?$KD?$KB@
CONST	SEGMENT
??_C@_0BJ@JOCGFOJL@?$LL?q?H?$KB?K?$LN?H?K?$LH?$LP?$LG?$KI?V?F?E?d?V?C?$LD?v?$LE?m?$KD?$KB@ DB 0bbH
	DB	0f1H, 0c8H, 0a1H, 0cbH, 0bdH, 0c8H, 0cbH, 0b7H, 0bfH, 0b6H, 0a8H
	DB	0d6H, 0c6H, 0c5H, 0e4H, 0d6H, 0c3H, 0b3H, 0f6H, 0b4H, 0edH, 0a3H
	DB	0a1H, 00H					; `string'
CONST	ENDS
;	COMDAT ??_C@_0M@EODDKFON@?$EAdwServerID@
CONST	SEGMENT
??_C@_0M@EODDKFON@?$EAdwServerID@ DB '@dwServerID', 00H	; `string'
CONST	ENDS
;	COMDAT ?__LINE__Var@?0??OnRequestQueryPersonalRule@CDataBaseEngineSink@@IAE_NKPAXG@Z@4JA
_DATA	SEGMENT
?__LINE__Var@?0??OnRequestQueryPersonalRule@CDataBaseEngineSink@@IAE_NKPAXG@Z@4JA DD 0a8dH ; `CDataBaseEngineSink::OnRequestQueryPersonalRule'::`1'::__LINE__Var
_DATA	ENDS
;	COMDAT ??_C@_0DE@GFLNGEDD@CDataBaseEngineSink?3?3OnRequestq@
CONST	SEGMENT
??_C@_0DE@GFLNGEDD@CDataBaseEngineSink?3?3OnRequestq@ DB 'CDataBaseEngine'
	DB	'Sink::OnRequestqueryPersonalRoomInfo', 00H	; `string'
CONST	ENDS
;	COMDAT ??_C@_0BB@LHDODACP@strRoomScoreInfo@
CONST	SEGMENT
??_C@_0BB@LHDODACP@strRoomScoreInfo@ DB 'strRoomScoreInfo', 00H ; `string'
CONST	ENDS
;	COMDAT ??_C@_0BE@MDEMKJPG@JoinGamePeopleCount@
CONST	SEGMENT
??_C@_0BE@MDEMKJPG@JoinGamePeopleCount@ DB 'JoinGamePeopleCount', 00H ; `string'
CONST	ENDS
;	COMDAT ??_C@_0N@KIEIPKAD@NeedRoomCard@
CONST	SEGMENT
??_C@_0N@KIEIPKAD@NeedRoomCard@ DB 'NeedRoomCard', 00H	; `string'
CONST	ENDS
;	COMDAT ??_C@_07FKGFEPLL@PayMode@
CONST	SEGMENT
??_C@_07FKGFEPLL@PayMode@ DB 'PayMode', 00H		; `string'
CONST	ENDS
;	COMDAT ??_C@_0P@DFHGMPBA@sysDissumeTime@
CONST	SEGMENT
??_C@_0P@DFHGMPBA@sysDissumeTime@ DB 'sysDissumeTime', 00H ; `string'
CONST	ENDS
;	COMDAT ??_C@_0O@PCHKAHIJ@sysCreateTime@
CONST	SEGMENT
??_C@_0O@PCHKAHIJ@sysCreateTime@ DB 'sysCreateTime', 00H ; `string'
CONST	ENDS
;	COMDAT ??_C@_0L@MINLNLFB@RoomStatus@
CONST	SEGMENT
??_C@_0L@MINLNLFB@RoomStatus@ DB 'RoomStatus', 00H	; `string'
CONST	ENDS
;	COMDAT ??_C@_0BA@BONBNHOA@dwPlayTurnCount@
CONST	SEGMENT
??_C@_0BA@BONBNHOA@dwPlayTurnCount@ DB 'dwPlayTurnCount', 00H ; `string'
CONST	ENDS
;	COMDAT ??_C@_0BA@BNENDPHI@dwPlayTimeLimit@
CONST	SEGMENT
??_C@_0BA@BNENDPHI@dwPlayTimeLimit@ DB 'dwPlayTimeLimit', 00H ; `string'
CONST	ENDS
;	COMDAT ??_C@_07CMKHFCDI@wKindID@
CONST	SEGMENT
??_C@_07CMKHFCDI@wKindID@ DB 'wKindID', 00H		; `string'
CONST	ENDS
;	COMDAT ??_C@_0BN@MKNPMPBL@GSP_GS_QueryPersonalRoomInfo@
CONST	SEGMENT
??_C@_0BN@MKNPMPBL@GSP_GS_QueryPersonalRoomInfo@ DB 'GSP_GS_QueryPersonal'
	DB	'RoomInfo', 00H				; `string'
CONST	ENDS
;	COMDAT ??_C@_0O@GFIHOHG@?$EAdwRoomHostID@
CONST	SEGMENT
??_C@_0O@GFIHOHG@?$EAdwRoomHostID@ DB '@dwRoomHostID', 00H ; `string'
CONST	ENDS
;	COMDAT ??_C@_0BC@LLEGCEPB@?$EAdwPersonalRoomID@
CONST	SEGMENT
??_C@_0BC@LLEGCEPB@?$EAdwPersonalRoomID@ DB '@dwPersonalRoomID', 00H ; `string'
CONST	ENDS
;	COMDAT ?__LINE__Var@?0??OnRequestqueryPersonalRoomInfo@CDataBaseEngineSink@@IAE_NKPAXG@Z@4JA
_DATA	SEGMENT
?__LINE__Var@?0??OnRequestqueryPersonalRoomInfo@CDataBaseEngineSink@@IAE_NKPAXG@Z@4JA DD 0a1dH ; `CDataBaseEngineSink::OnRequestqueryPersonalRoomInfo'::`1'::__LINE__Var
_DATA	ENDS
;	COMDAT ??_C@_0BL@PABMBFJD@GSP_GR_DissumePersonalRoom@
CONST	SEGMENT
??_C@_0BL@PABMBFJD@GSP_GR_DissumePersonalRoom@ DB 'GSP_GR_DissumePersonal'
	DB	'Room', 00H					; `string'
CONST	ENDS
;	COMDAT ??_C@_0BE@NAHDLGHP@?$EAcbPersonalRoomInfo@
CONST	SEGMENT
??_C@_0BE@NAHDLGHP@?$EAcbPersonalRoomInfo@ DB '@cbPersonalRoomInfo', 00H ; `string'
CONST	ENDS
;	COMDAT ??_C@_0L@KCMGAPDJ@?$EAlTaxCount@
CONST	SEGMENT
??_C@_0L@KCMGAPDJ@?$EAlTaxCount@ DB '@lTaxCount', 00H	; `string'
CONST	ENDS
;	COMDAT ??_C@_07MHNIFEGG@?$EARoomID@
CONST	SEGMENT
??_C@_07MHNIFEGG@?$EARoomID@ DB '@RoomID', 00H		; `string'
CONST	ENDS
;	COMDAT ??_C@_05LGDJAMLD@11111@
CONST	SEGMENT
??_C@_05LGDJAMLD@11111@ DB '11111', 00H			; `string'
CONST	ENDS
;	COMDAT ??_C@_07BFCPEDCE@4568987@
CONST	SEGMENT
??_C@_07BFCPEDCE@4568987@ DB '4568987', 00H		; `string'
CONST	ENDS
;	COMDAT ?__LINE__Var@?0??OnRequsetDissumeRoomTest@CDataBaseEngineSink@@IAE_NKPAXGAAK@Z@4JA
_DATA	SEGMENT
?__LINE__Var@?0??OnRequsetDissumeRoomTest@CDataBaseEngineSink@@IAE_NKPAXGAAK@Z@4JA DD 098dH ; `CDataBaseEngineSink::OnRequsetDissumeRoomTest'::`1'::__LINE__Var
_DATA	ENDS
;	COMDAT ??_C@_0DD@ODBAJJDM@CDataBaseEngineSink?3?3OnRequestG@
CONST	SEGMENT
??_C@_0DD@ODBAJJDM@CDataBaseEngineSink?3?3OnRequestG@ DB 'CDataBaseEngine'
	DB	'Sink::OnRequestGetPersonalParameter', 00H	; `string'
CONST	ENDS
;	COMDAT ??_C@_0N@KBPJFFJC@PersonalRule@
CONST	SEGMENT
??_C@_0N@KBPJFFJC@PersonalRule@ DB 'PersonalRule', 00H	; `string'
CONST	ENDS
;	COMDAT ??_C@_0BH@PLCJDHBC@GSP_MB_GetPersonalRule@
CONST	SEGMENT
??_C@_0BH@PLCJDHBC@GSP_MB_GetPersonalRule@ DB 'GSP_MB_GetPersonalRule', 00H ; `string'
CONST	ENDS
;	COMDAT ??_C@_0BJ@ODFHMALM@?$LL?q?H?$KB?K?$LN?H?K?$LH?$LP?$LH?Q?S?C?A?P?$LB?m?$LD?v?$LE?m?$KD?$KB@
CONST	SEGMENT
??_C@_0BJ@ODFHMALM@?$LL?q?H?$KB?K?$LN?H?K?$LH?$LP?$LH?Q?S?C?A?P?$LB?m?$LD?v?$LE?m?$KD?$KB@ DB 0bbH
	DB	0f1H, 0c8H, 0a1H, 0cbH, 0bdH, 0c8H, 0cbH, 0b7H, 0bfH, 0b7H, 0d1H
	DB	0d3H, 0c3H, 0c1H, 0d0H, 0b1H, 0edH, 0b3H, 0f6H, 0b4H, 0edH, 0a3H
	DB	0a1H, 00H					; `string'
CONST	ENDS
;	COMDAT ??_C@_08JJGOBBMF@GameMode@
CONST	SEGMENT
??_C@_08JJGOBBMF@GameMode@ DB 'GameMode', 00H		; `string'
CONST	ENDS
;	COMDAT ??_C@_08MILKFGPP@IniScore@
CONST	SEGMENT
??_C@_08MILKFGPP@IniScore@ DB 'IniScore', 00H		; `string'
CONST	ENDS
;	COMDAT ??_C@_08MJHOBIFI@AAPayFee@
CONST	SEGMENT
??_C@_08MJHOBIFI@AAPayFee@ DB 'AAPayFee', 00H		; `string'
CONST	ENDS
;	COMDAT ??_C@_08PACNKABG@TableFee@
CONST	SEGMENT
??_C@_08PACNKABG@TableFee@ DB 'TableFee', 00H		; `string'
CONST	ENDS
;	COMDAT ??_C@_0O@DDOJCLEH@DrawTimeLimit@
CONST	SEGMENT
??_C@_0O@DDOJCLEH@DrawTimeLimit@ DB 'DrawTimeLimit', 00H ; `string'
CONST	ENDS
;	COMDAT ??_C@_0P@MBIIKCNO@DrawCountLimit@
CONST	SEGMENT
??_C@_0P@MBIIKCNO@DrawCountLimit@ DB 'DrawCountLimit', 00H ; `string'
CONST	ENDS
;	COMDAT ??_C@_0BP@BLHAELOH@GSP_MB_GetPersonalFeeParameter@
CONST	SEGMENT
??_C@_0BP@BLHAELOH@GSP_MB_GetPersonalFeeParameter@ DB 'GSP_MB_GetPersonal'
	DB	'FeeParameter', 00H				; `string'
CONST	ENDS
;	COMDAT ??_C@_0CH@NJDIPHGM@GSP_MB_GetPersonalCellScore?5?V?$LE?P@
CONST	SEGMENT
??_C@_0CH@NJDIPHGM@GSP_MB_GetPersonalCellScore?5?V?$LE?P@ DB 'GSP_MB_GetP'
	DB	'ersonalCellScore ', 0d6H, 0b4H, 0d0H, 0d0H, 0b4H, 0edH, 0ceH, 0f3H
	DB	0a3H, 0a1H, 00H				; `string'
CONST	ENDS
;	COMDAT ??_C@_09MMGMMPOJ@CellScore@
CONST	SEGMENT
??_C@_09MMGMMPOJ@CellScore@ DB 'CellScore', 00H		; `string'
CONST	ENDS
;	COMDAT ??_C@_0BM@DOAOBPNK@GSP_MB_GetPersonalCellScore@
CONST	SEGMENT
??_C@_0BM@DOAOBPNK@GSP_MB_GetPersonalCellScore@ DB 'GSP_MB_GetPersonalCel'
	DB	'lScore', 00H				; `string'
CONST	ENDS
;	COMDAT ??_C@_0BI@OAFDOKLB@?J?$PN?$LO?$NN?$LP?b?R?l?$LD?$KD?0?G?k?I?T?$LK?s?T?Y?J?T?$KD?$KB@
CONST	SEGMENT
??_C@_0BI@OAFDOKLB@?J?$PN?$LO?$NN?$LP?b?R?l?$LD?$KD?0?G?k?I?T?$LK?s?T?Y?J?T?$KD?$KB@ DB 0caH
	DB	0fdH, 0beH, 0ddH, 0bfH, 0e2H, 0d2H, 0ecH, 0b3H, 0a3H, ',', 0c7H
	DB	0ebH, 0c9H, 0d4H, 0baH, 0f3H, 0d4H, 0d9H, 0caH, 0d4H, 0a3H, 0a1H
	DB	00H						; `string'
CONST	ENDS
;	COMDAT ??_C@_0BK@BAMIBGIO@?J?$PN?$LO?$NN?$LP?b?R?l?$LD?$KD?0?G?k?I?T?$LK?s?T?Y?J?T?$KD?$KB?5?5@
CONST	SEGMENT
??_C@_0BK@BAMIBGIO@?J?$PN?$LO?$NN?$LP?b?R?l?$LD?$KD?0?G?k?I?T?$LK?s?T?Y?J?T?$KD?$KB?5?5@ DB 0caH
	DB	0fdH, 0beH, 0ddH, 0bfH, 0e2H, 0d2H, 0ecH, 0b3H, 0a3H, ',', 0c7H
	DB	0ebH, 0c9H, 0d4H, 0baH, 0f3H, 0d4H, 0d9H, 0caH, 0d4H, 0a3H, 0a1H
	DB	'  ', 00H					; `string'
CONST	ENDS
;	COMDAT ??_C@_0M@OHDGOHJM@EndFreeTime@
CONST	SEGMENT
??_C@_0M@OHDGOHJM@EndFreeTime@ DB 'EndFreeTime', 00H	; `string'
CONST	ENDS
;	COMDAT ??_C@_0O@DEEAMCAI@BeginFreeTime@
CONST	SEGMENT
??_C@_0O@DEEAMCAI@BeginFreeTime@ DB 'BeginFreeTime', 00H ; `string'
CONST	ENDS
;	COMDAT ??_C@_0BB@EFKEMBID@TimeNotBeginGame@
CONST	SEGMENT
??_C@_0BB@EFKEMBID@TimeNotBeginGame@ DB 'TimeNotBeginGame', 00H ; `string'
CONST	ENDS
;	COMDAT ??_C@_0BB@BHHEMCMJ@TimeOffLineCount@
CONST	SEGMENT
??_C@_0BB@BHHEMCMJ@TimeOffLineCount@ DB 'TimeOffLineCount', 00H ; `string'
CONST	ENDS
;	COMDAT ??_C@_0BE@NHDBBOLF@TimeAfterBeginCount@
CONST	SEGMENT
??_C@_0BE@NHDBBOLF@TimeAfterBeginCount@ DB 'TimeAfterBeginCount', 00H ; `string'
CONST	ENDS
;	COMDAT ??_C@_0O@FDPMPBME@PlayTurnCount@
CONST	SEGMENT
??_C@_0O@FDPMPBME@PlayTurnCount@ DB 'PlayTurnCount', 00H ; `string'
CONST	ENDS
;	COMDAT ??_C@_0O@FAGABJFM@PlayTimeLimit@
CONST	SEGMENT
??_C@_0O@FAGABJFM@PlayTimeLimit@ DB 'PlayTimeLimit', 00H ; `string'
CONST	ENDS
;	COMDAT ??_C@_0P@LNMJOPEM@CanCreateCount@
CONST	SEGMENT
??_C@_0P@LNMJOPEM@CanCreateCount@ DB 'CanCreateCount', 00H ; `string'
CONST	ENDS
;	COMDAT ??_C@_0N@CNCFIDBJ@MaxCellScore@
CONST	SEGMENT
??_C@_0N@CNCFIDBJ@MaxCellScore@ DB 'MaxCellScore', 00H	; `string'
CONST	ENDS
;	COMDAT ??_C@_09BBGKJOKD@MaxPeople@
CONST	SEGMENT
??_C@_09BBGKJOKD@MaxPeople@ DB 'MaxPeople', 00H		; `string'
CONST	ENDS
;	COMDAT ??_C@_09BAGGAEBH@MinPeople@
CONST	SEGMENT
??_C@_09BAGGAEBH@MinPeople@ DB 'MinPeople', 00H		; `string'
CONST	ENDS
;	COMDAT ??_C@_0L@HLGININO@IsJoinGame@
CONST	SEGMENT
??_C@_0L@HLGININO@IsJoinGame@ DB 'IsJoinGame', 00H	; `string'
CONST	ENDS
;	COMDAT ??_C@_0BA@GCOMLPGF@PersonalRoomTax@
CONST	SEGMENT
??_C@_0BA@GCOMLPGF@PersonalRoomTax@ DB 'PersonalRoomTax', 00H ; `string'
CONST	ENDS
;	COMDAT ??_C@_0CB@MMPODBFJ@GSP_GS_LoadPersonalRoomParamete@
CONST	SEGMENT
??_C@_0CB@MMPODBFJ@GSP_GS_LoadPersonalRoomParamete@ DB 'GSP_GS_LoadPerson'
	DB	'alRoomParameter', 00H			; `string'
CONST	ENDS
;	COMDAT ??_C@_09DFDKDCCP@?$EAdwKindID@
CONST	SEGMENT
??_C@_09DFDKDCCP@?$EAdwKindID@ DB '@dwKindID', 00H	; `string'
CONST	ENDS
;	COMDAT ?__LINE__Var@?0??OnRequestGetPersonalParameter@CDataBaseEngineSink@@IAE_NKPAXG@Z@4JA
_DATA	SEGMENT
?__LINE__Var@?0??OnRequestGetPersonalParameter@CDataBaseEngineSink@@IAE_NKPAXG@Z@4JA DD 089fH ; `CDataBaseEngineSink::OnRequestGetPersonalParameter'::`1'::__LINE__Var
_DATA	ENDS
;	COMDAT ??_C@_0DA@ICEOMON@CDataBaseEngineSink?3?3OnRequestQ@
CONST	SEGMENT
??_C@_0DA@ICEOMON@CDataBaseEngineSink?3?3OnRequestQ@ DB 'CDataBaseEngineS'
	DB	'ink::OnRequestQueryUserGameData', 00H	; `string'
CONST	ENDS
;	COMDAT ??_C@_0N@HBNIIIGG@UserGameData@
CONST	SEGMENT
??_C@_0N@HBNIIIGG@UserGameData@ DB 'UserGameData', 00H	; `string'
CONST	ENDS
;	COMDAT ??_C@_0BJ@IFJCFNBF@GSP_GR_QueryUserGameData@
CONST	SEGMENT
??_C@_0BJ@IFJCFNBF@GSP_GR_QueryUserGameData@ DB 'GSP_GR_QueryUserGameData'
	DB	00H						; `string'
CONST	ENDS
;	COMDAT ??_C@_0BA@DMACEPA@?$EAstrDynamicPass@
CONST	SEGMENT
??_C@_0BA@DMACEPA@?$EAstrDynamicPass@ DB '@strDynamicPass', 00H ; `string'
CONST	ENDS
;	COMDAT ?__LINE__Var@?0??OnRequestQueryUserGameData@CDataBaseEngineSink@@IAE_NKPAXG@Z@4JA
_DATA	SEGMENT
?__LINE__Var@?0??OnRequestQueryUserGameData@CDataBaseEngineSink@@IAE_NKPAXG@Z@4JA DD 0853H ; `CDataBaseEngineSink::OnRequestQueryUserGameData'::`1'::__LINE__Var
_DATA	ENDS
;	COMDAT ??_C@_0CL@JCALHNL@CDataBaseEngineSink?3?3OnRequestL@
CONST	SEGMENT
??_C@_0CL@JCALHNL@CDataBaseEngineSink?3?3OnRequestL@ DB 'CDataBaseEngineS'
	DB	'ink::OnRequestLotteryStart', 00H		; `string'
CONST	ENDS
;	COMDAT ??_C@_09LPBJEFGL@UserBeans@
CONST	SEGMENT
??_C@_09LPBJEFGL@UserBeans@ DB 'UserBeans', 00H		; `string'
CONST	ENDS
;	COMDAT ??_C@_09BBKIPJAF@UserScore@
CONST	SEGMENT
??_C@_09BBKIPJAF@UserScore@ DB 'UserScore', 00H		; `string'
CONST	ENDS
;	COMDAT ??_C@_05FPOAFEHH@Wined@
CONST	SEGMENT
??_C@_05FPOAFEHH@Wined@ DB 'Wined', 00H			; `string'
CONST	ENDS
;	COMDAT ??_C@_0BE@LJJNPBDG@GSP_GP_LotteryStart@
CONST	SEGMENT
??_C@_0BE@LJJNPBDG@GSP_GP_LotteryStart@ DB 'GSP_GP_LotteryStart', 00H ; `string'
CONST	ENDS
;	COMDAT ?__LINE__Var@?0??OnRequestLotteryStart@CDataBaseEngineSink@@IAE_NKPAXG@Z@4JA
_DATA	SEGMENT
?__LINE__Var@?0??OnRequestLotteryStart@CDataBaseEngineSink@@IAE_NKPAXG@Z@4JA DD 07fbH ; `CDataBaseEngineSink::OnRequestLotteryStart'::`1'::__LINE__Var
_DATA	ENDS
;	COMDAT ??_C@_0CP@BDPAIBHD@CDataBaseEngineSink?3?3OnRequestL@
CONST	SEGMENT
??_C@_0CP@BDPAIBHD@CDataBaseEngineSink?3?3OnRequestL@ DB 'CDataBaseEngine'
	DB	'Sink::OnRequestLotteryConfigReq', 00H	; `string'
CONST	ENDS
;	COMDAT ??_C@_09EFDPDPKG@ChargeFee@
CONST	SEGMENT
??_C@_09EFDPDPKG@ChargeFee@ DB 'ChargeFee', 00H		; `string'
CONST	ENDS
;	COMDAT ??_C@_0N@INFEMIKK@AlreadyCount@
CONST	SEGMENT
??_C@_0N@INFEMIKK@AlreadyCount@ DB 'AlreadyCount', 00H	; `string'
CONST	ENDS
;	COMDAT ??_C@_09NHFEFEII@FreeCount@
CONST	SEGMENT
??_C@_09NHFEFEII@FreeCount@ DB 'FreeCount', 00H		; `string'
CONST	ENDS
;	COMDAT ??_C@_0BH@CBIMOOD@GSP_GP_LotteryUserInfo@
CONST	SEGMENT
??_C@_0BH@CBIMOOD@GSP_GP_LotteryUserInfo@ DB 'GSP_GP_LotteryUserInfo', 00H ; `string'
CONST	ENDS
;	COMDAT ??_C@_0BD@IEOJNAND@?$LD?i?$LN?$LB?E?d?V?C?$LM?S?T?X?J?$KH?$LA?$NM?$KD?$KB@
CONST	SEGMENT
??_C@_0BD@IEOJNAND@?$LD?i?$LN?$LB?E?d?V?C?$LM?S?T?X?J?$KH?$LA?$NM?$KD?$KB@ DB 0b3H
	DB	0e9H, 0bdH, 0b1H, 0c5H, 0e4H, 0d6H, 0c3H, 0bcH, 0d3H, 0d4H, 0d8H
	DB	0caH, 0a7H, 0b0H, 0dcH, 0a3H, 0a1H, 00H	; `string'
CONST	ENDS
;	COMDAT ??_C@_09BLEEGDBC@ItemQuota@
CONST	SEGMENT
??_C@_09BLEEGDBC@ItemQuota@ DB 'ItemQuota', 00H		; `string'
CONST	ENDS
;	COMDAT ??_C@_08LJOGMPAO@ItemType@
CONST	SEGMENT
??_C@_08LJOGMPAO@ItemType@ DB 'ItemType', 00H		; `string'
CONST	ENDS
;	COMDAT ??_C@_09LCBEKCCJ@ItemIndex@
CONST	SEGMENT
??_C@_09LCBEKCCJ@ItemIndex@ DB 'ItemIndex', 00H		; `string'
CONST	ENDS
;	COMDAT ??_C@_0BJ@GIKCGGKM@GSP_GP_LoadLotteryConfig@
CONST	SEGMENT
??_C@_0BJ@GIKCGGKM@GSP_GP_LoadLotteryConfig@ DB 'GSP_GP_LoadLotteryConfig'
	DB	00H						; `string'
CONST	ENDS
;	COMDAT ?__LINE__Var@?0??OnRequestLotteryConfigReq@CDataBaseEngineSink@@IAE_NKPAXG@Z@4JA
_DATA	SEGMENT
?__LINE__Var@?0??OnRequestLotteryConfigReq@CDataBaseEngineSink@@IAE_NKPAXG@Z@4JA DD 0783H ; `CDataBaseEngineSink::OnRequestLotteryConfigReq'::`1'::__LINE__Var
_DATA	ENDS
;	COMDAT ??_C@_0DA@JNEBPLMI@CDataBaseEngineSink?3?3OnRequestU@
CONST	SEGMENT
??_C@_0DA@JNEBPLMI@CDataBaseEngineSink?3?3OnRequestU@ DB 'CDataBaseEngine'
	DB	'Sink::OnRequestUserTransferScore', 00H	; `string'
CONST	ENDS
;	COMDAT ??_C@_0BJ@BAPHEKDA@GSP_GR_UserTransferScore@
CONST	SEGMENT
??_C@_0BJ@BAPHEKDA@GSP_GR_UserTransferScore@ DB 'GSP_GR_UserTransferScore'
	DB	00H						; `string'
CONST	ENDS
;	COMDAT ??_C@_0BA@MNCPGFOB@?$EAstrTransRemark@
CONST	SEGMENT
??_C@_0BA@MNCPGFOB@?$EAstrTransRemark@ DB '@strTransRemark', 00H ; `string'
CONST	ENDS
;	COMDAT ??_C@_0BA@MGGCKEGC@?$EAlTransferScore@
CONST	SEGMENT
??_C@_0BA@MGGCKEGC@?$EAlTransferScore@ DB '@lTransferScore', 00H ; `string'
CONST	ENDS
;	COMDAT ?__LINE__Var@?0??OnRequestUserTransferScore@CDataBaseEngineSink@@IAE_NKPAXG@Z@4JA
_DATA	SEGMENT
?__LINE__Var@?0??OnRequestUserTransferScore@CDataBaseEngineSink@@IAE_NKPAXG@Z@4JA DD 0748H ; `CDataBaseEngineSink::OnRequestUserTransferScore'::`1'::__LINE__Var
_DATA	ENDS
;	COMDAT ??_C@_0CM@LBBFKHEG@CDataBaseEngineSink?3?3OnRequestU@
CONST	SEGMENT
??_C@_0CM@LBBFKHEG@CDataBaseEngineSink?3?3OnRequestU@ DB 'CDataBaseEngine'
	DB	'Sink::OnRequestUserTakeScore', 00H		; `string'
CONST	ENDS
;	COMDAT ??_C@_0BF@OILOKBKG@GSP_GR_UserTakeScore@
CONST	SEGMENT
??_C@_0BF@OILOKBKG@GSP_GR_UserTakeScore@ DB 'GSP_GR_UserTakeScore', 00H ; `string'
CONST	ENDS
;	COMDAT ??_C@_0M@DJFNFFKI@?$EAlTakeScore@
CONST	SEGMENT
??_C@_0M@DJFNFFKI@?$EAlTakeScore@ DB '@lTakeScore', 00H	; `string'
CONST	ENDS
;	COMDAT ?__LINE__Var@?0??OnRequestUserTakeScore@CDataBaseEngineSink@@IAE_NKPAXG@Z@4JA
_DATA	SEGMENT
?__LINE__Var@?0??OnRequestUserTakeScore@CDataBaseEngineSink@@IAE_NKPAXG@Z@4JA DD 070fH ; `CDataBaseEngineSink::OnRequestUserTakeScore'::`1'::__LINE__Var
_DATA	ENDS
;	COMDAT ??_C@_0CM@LEHHJIMF@CDataBaseEngineSink?3?3OnRequestU@
CONST	SEGMENT
??_C@_0CM@LEHHJIMF@CDataBaseEngineSink?3?3OnRequestU@ DB 'CDataBaseEngine'
	DB	'Sink::OnRequestUserSaveScore', 00H		; `string'
CONST	ENDS
;	COMDAT ??_C@_0BF@ONNMJOCF@GSP_GR_UserSaveScore@
CONST	SEGMENT
??_C@_0BF@ONNMJOCF@GSP_GR_UserSaveScore@ DB 'GSP_GR_UserSaveScore', 00H ; `string'
CONST	ENDS
;	COMDAT ??_C@_0L@FIEHJJML@?$EAwServerID@
CONST	SEGMENT
??_C@_0L@FIEHJJML@?$EAwServerID@ DB '@wServerID', 00H	; `string'
CONST	ENDS
;	COMDAT ??_C@_08HBBOJKPI@?$EAwKindID@
CONST	SEGMENT
??_C@_08HBBOJKPI@?$EAwKindID@ DB '@wKindID', 00H	; `string'
CONST	ENDS
;	COMDAT ??_C@_0M@DMDPGKCL@?$EAlSaveScore@
CONST	SEGMENT
??_C@_0M@DMDPGKCL@?$EAlSaveScore@ DB '@lSaveScore', 00H	; `string'
CONST	ENDS
;	COMDAT ?__LINE__Var@?0??OnRequestUserSaveScore@CDataBaseEngineSink@@IAE_NKPAXG@Z@4JA
_DATA	SEGMENT
?__LINE__Var@?0??OnRequestUserSaveScore@CDataBaseEngineSink@@IAE_NKPAXG@Z@4JA DD 06d7H ; `CDataBaseEngineSink::OnRequestUserSaveScore'::`1'::__LINE__Var
_DATA	ENDS
;	COMDAT ??_C@_0CP@PANKEFEH@CDataBaseEngineSink?3?3OnRequestU@
CONST	SEGMENT
??_C@_0CP@PANKEFEH@CDataBaseEngineSink?3?3OnRequestU@ DB 'CDataBaseEngine'
	DB	'Sink::OnRequestUserEnableInsure', 00H	; `string'
CONST	ENDS
;	COMDAT ??_C@_0BI@EOGGEIFI@GSP_GR_UserEnableInsure@
CONST	SEGMENT
??_C@_0BI@EOGGEIFI@GSP_GR_UserEnableInsure@ DB 'GSP_GR_UserEnableInsure', 00H ; `string'
CONST	ENDS
;	COMDAT ??_C@_0P@EDLCJHLF@?$EAstrInsurePass@
CONST	SEGMENT
??_C@_0P@EDLCJHLF@?$EAstrInsurePass@ DB '@strInsurePass', 00H ; `string'
CONST	ENDS
;	COMDAT ?__LINE__Var@?0??OnRequestUserEnableInsure@CDataBaseEngineSink@@IAE_NKPAXG@Z@4JA
_DATA	SEGMENT
?__LINE__Var@?0??OnRequestUserEnableInsure@CDataBaseEngineSink@@IAE_NKPAXG@Z@4JA DD 068cH ; `CDataBaseEngineSink::OnRequestUserEnableInsure'::`1'::__LINE__Var
_DATA	ENDS
;	COMDAT ??_C@_0CP@DCIDLAGJ@CDataBaseEngineSink?3?3OnRequestM@
CONST	SEGMENT
??_C@_0CP@DCIDLAGJ@CDataBaseEngineSink?3?3OnRequestM@ DB 'CDataBaseEngine'
	DB	'Sink::OnRequestModifyIndividual', 00H	; `string'
CONST	ENDS
;	COMDAT ??_C@_0BM@JCLHPJJN@GSP_GP_ModifyUserIndividual@
CONST	SEGMENT
??_C@_0BM@JCLHPJJN@GSP_GP_ModifyUserIndividual@ DB 'GSP_GP_ModifyUserIndi'
	DB	'vidual', 00H				; `string'
CONST	ENDS
;	COMDAT ??_C@_0N@CFNHJANI@?$EAstrSpreader@
CONST	SEGMENT
??_C@_0N@CFNHJANI@?$EAstrSpreader@ DB '@strSpreader', 00H ; `string'
CONST	ENDS
;	COMDAT ??_C@_0N@OIBPAMNH@?$EAstrUserNote@
CONST	SEGMENT
??_C@_0N@OIBPAMNH@?$EAstrUserNote@ DB '@strUserNote', 00H ; `string'
CONST	ENDS
;	COMDAT ??_C@_0BC@PEMBKHPC@?$EAstrDwellingPlace@
CONST	SEGMENT
??_C@_0BC@PEMBKHPC@?$EAstrDwellingPlace@ DB '@strDwellingPlace', 00H ; `string'
CONST	ENDS
;	COMDAT ??_C@_0O@DFDKDHGB@?$EAstrSeatPhone@
CONST	SEGMENT
??_C@_0O@DFDKDHGB@?$EAstrSeatPhone@ DB '@strSeatPhone', 00H ; `string'
CONST	ENDS
;	COMDAT ??_C@_09OKCOHCBE@?$EAstrEMail@
CONST	SEGMENT
??_C@_09OKCOHCBE@?$EAstrEMail@ DB '@strEMail', 00H	; `string'
CONST	ENDS
;	COMDAT ??_C@_06KIJECMBN@?$EAstrQQ@
CONST	SEGMENT
??_C@_06KIJECMBN@?$EAstrQQ@ DB '@strQQ', 00H		; `string'
CONST	ENDS
;	COMDAT ?__LINE__Var@?0??OnRequestModifyIndividual@CDataBaseEngineSink@@IAE_NKPAXG@Z@4JA
_DATA	SEGMENT
?__LINE__Var@?0??OnRequestModifyIndividual@CDataBaseEngineSink@@IAE_NKPAXG@Z@4JA DD 064bH ; `CDataBaseEngineSink::OnRequestModifyIndividual'::`1'::__LINE__Var
_DATA	ENDS
;	COMDAT ??_C@_0CN@KDBPFNCO@CDataBaseEngineSink?3?3OnRequestM@
CONST	SEGMENT
??_C@_0CN@KDBPFNCO@CDataBaseEngineSink?3?3OnRequestM@ DB 'CDataBaseEngine'
	DB	'Sink::OnRequestModifyRealAuth', 00H		; `string'
CONST	ENDS
;	COMDAT ??_C@_0BA@HDHKAMAC@GSP_GP_RealAuth@
CONST	SEGMENT
??_C@_0BA@HDHKAMAC@GSP_GP_RealAuth@ DB 'GSP_GP_RealAuth', 00H ; `string'
CONST	ENDS
;	COMDAT ?__LINE__Var@?0??OnRequestModifyRealAuth@CDataBaseEngineSink@@IAE_NKPAXG@Z@4JA
_DATA	SEGMENT
?__LINE__Var@?0??OnRequestModifyRealAuth@CDataBaseEngineSink@@IAE_NKPAXG@Z@4JA DD 060aH ; `CDataBaseEngineSink::OnRequestModifyRealAuth'::`1'::__LINE__Var
_DATA	ENDS
;	COMDAT ??_C@_0CP@DFLPOBDD@CDataBaseEngineSink?3?3OnRequestM@
CONST	SEGMENT
??_C@_0CP@DFLPOBDD@CDataBaseEngineSink?3?3OnRequestM@ DB 'CDataBaseEngine'
	DB	'Sink::OnRequestModifyUnderWrite', 00H	; `string'
CONST	ENDS
;	COMDAT ??_C@_0BI@PPLHOKNN@GSP_GP_ModifyUnderWrite@
CONST	SEGMENT
??_C@_0BI@PPLHOKNN@GSP_GP_ModifyUnderWrite@ DB 'GSP_GP_ModifyUnderWrite', 00H ; `string'
CONST	ENDS
;	COMDAT ??_C@_0P@HNJEIOFF@?$EAstrUnderWrite@
CONST	SEGMENT
??_C@_0P@HNJEIOFF@?$EAstrUnderWrite@ DB '@strUnderWrite', 00H ; `string'
CONST	ENDS
;	COMDAT ?__LINE__Var@?0??OnRequestModifyUnderWrite@CDataBaseEngineSink@@IAE_NKPAXG@Z@4JA
_DATA	SEGMENT
?__LINE__Var@?0??OnRequestModifyUnderWrite@CDataBaseEngineSink@@IAE_NKPAXG@Z@4JA DD 05d5H ; `CDataBaseEngineSink::OnRequestModifyUnderWrite'::`1'::__LINE__Var
_DATA	ENDS
;	COMDAT ??_C@_0CP@LJJPIND@CDataBaseEngineSink?3?3OnRequestM@
CONST	SEGMENT
??_C@_0CP@LJJPIND@CDataBaseEngineSink?3?3OnRequestM@ DB 'CDataBaseEngineS'
	DB	'ink::OnRequestModifyInsurePass', 00H	; `string'
CONST	ENDS
;	COMDAT ??_C@_0BM@EPKJGNJP@GSP_GP_ModifyInsurePassword@
CONST	SEGMENT
??_C@_0BM@EPKJGNJP@GSP_GP_ModifyInsurePassword@ DB 'GSP_GP_ModifyInsurePa'
	DB	'ssword', 00H				; `string'
CONST	ENDS
;	COMDAT ?__LINE__Var@?0??OnRequestModifyInsurePass@CDataBaseEngineSink@@IAE_NKPAXG@Z@4JA
_DATA	SEGMENT
?__LINE__Var@?0??OnRequestModifyInsurePass@CDataBaseEngineSink@@IAE_NKPAXG@Z@4JA DD 059fH ; `CDataBaseEngineSink::OnRequestModifyInsurePass'::`1'::__LINE__Var
_DATA	ENDS
;	COMDAT ??_C@_0CO@LMGOMND@CDataBaseEngineSink?3?3OnRequestM@
CONST	SEGMENT
??_C@_0CO@LMGOMND@CDataBaseEngineSink?3?3OnRequestM@ DB 'CDataBaseEngineS'
	DB	'ink::OnRequestModifyLogonPass', 00H		; `string'
CONST	ENDS
;	COMDAT ??_C@_0BL@KOGLPDHN@GSP_GP_ModifyLogonPassword@
CONST	SEGMENT
??_C@_0BL@KOGLPDHN@GSP_GP_ModifyLogonPassword@ DB 'GSP_GP_ModifyLogonPass'
	DB	'word', 00H					; `string'
CONST	ENDS
;	COMDAT ??_C@_0BA@EMJOBCOH@?$EAstrDesPassword@
CONST	SEGMENT
??_C@_0BA@EMJOBCOH@?$EAstrDesPassword@ DB '@strDesPassword', 00H ; `string'
CONST	ENDS
;	COMDAT ??_C@_0BA@DDGJLHOJ@?$EAstrScrPassword@
CONST	SEGMENT
??_C@_0BA@DDGJLHOJ@?$EAstrScrPassword@ DB '@strScrPassword', 00H ; `string'
CONST	ENDS
;	COMDAT ?__LINE__Var@?0??OnRequestModifyLogonPass@CDataBaseEngineSink@@IAE_NKPAXG@Z@4JA
_DATA	SEGMENT
?__LINE__Var@?0??OnRequestModifyLogonPass@CDataBaseEngineSink@@IAE_NKPAXG@Z@4JA DD 0569H ; `CDataBaseEngineSink::OnRequestModifyLogonPass'::`1'::__LINE__Var
_DATA	ENDS
;	COMDAT ??_C@_0CP@PPJGNBDA@CDataBaseEngineSink?3?3OnRequestM@
CONST	SEGMENT
??_C@_0CP@PPJGNBDA@CDataBaseEngineSink?3?3OnRequestM@ DB 'CDataBaseEngine'
	DB	'Sink::OnRequestModifyCustomFace', 00H	; `string'
CONST	ENDS
;	COMDAT ??_C@_08GOBKDNAK@CustomID@
CONST	SEGMENT
??_C@_08GOBKDNAK@CustomID@ DB 'CustomID', 00H		; `string'
CONST	ENDS
;	COMDAT ??_C@_0BI@CBCKGMBJ@GSP_GP_CustomFaceInsert@
CONST	SEGMENT
??_C@_0BI@CBCKGMBJ@GSP_GP_CustomFaceInsert@ DB 'GSP_GP_CustomFaceInsert', 00H ; `string'
CONST	ENDS
;	COMDAT ??_C@_0O@IADNAPKO@?$EAdwCustomFace@
CONST	SEGMENT
??_C@_0O@IADNAPKO@?$EAdwCustomFace@ DB '@dwCustomFace', 00H ; `string'
CONST	ENDS
;	COMDAT ?__LINE__Var@?0??OnRequestModifyCustomFace@CDataBaseEngineSink@@IAE_NKPAXG@Z@4JA
_DATA	SEGMENT
?__LINE__Var@?0??OnRequestModifyCustomFace@CDataBaseEngineSink@@IAE_NKPAXG@Z@4JA DD 0502H ; `CDataBaseEngineSink::OnRequestModifyCustomFace'::`1'::__LINE__Var
_DATA	ENDS
;	COMDAT ??_C@_0CP@OPCMKKDL@CDataBaseEngineSink?3?3OnRequestM@
CONST	SEGMENT
??_C@_0CP@OPCMKKDL@CDataBaseEngineSink?3?3OnRequestM@ DB 'CDataBaseEngine'
	DB	'Sink::OnRequestModifySystemFace', 00H	; `string'
CONST	ENDS
;	COMDAT ??_C@_06LPNEIKNP@FaceID@
CONST	SEGMENT
??_C@_06LPNEIKNP@FaceID@ DB 'FaceID', 00H		; `string'
CONST	ENDS
;	COMDAT ??_C@_0BI@KLAGEAIK@GSP_GP_SystemFaceInsert@
CONST	SEGMENT
??_C@_0BI@KLAGEAIK@GSP_GP_SystemFaceInsert@ DB 'GSP_GP_SystemFaceInsert', 00H ; `string'
CONST	ENDS
;	COMDAT ?__LINE__Var@?0??OnRequestModifySystemFace@CDataBaseEngineSink@@IAE_NKPAXG@Z@4JA
_DATA	SEGMENT
?__LINE__Var@?0??OnRequestModifySystemFace@CDataBaseEngineSink@@IAE_NKPAXG@Z@4JA DD 04bcH ; `CDataBaseEngineSink::OnRequestModifySystemFace'::`1'::__LINE__Var
_DATA	ENDS
;	COMDAT ??_C@_0CD@MJBPILMG@?S?I?S?Z?J?$PN?$LO?$NN?$LP?b?$LC?Y?W?w?R?l?$LD?$KD?$KD?$KM?G?k?D?z?I?T?$LK?s?V?X?J@
CONST	SEGMENT
??_C@_0CD@MJBPILMG@?S?I?S?Z?J?$PN?$LO?$NN?$LP?b?$LC?Y?W?w?R?l?$LD?$KD?$KD?$KM?G?k?D?z?I?T?$LK?s?V?X?J@ DB 0d3H
	DB	0c9H, 0d3H, 0daH, 0caH, 0fdH, 0beH, 0ddH, 0bfH, 0e2H, 0b2H, 0d9H
	DB	0d7H, 0f7H, 0d2H, 0ecH, 0b3H, 0a3H, 0a3H, 0acH, 0c7H, 0ebH, 0c4H
	DB	0faH, 0c9H, 0d4H, 0baH, 0f3H, 0d6H, 0d8H, 0caH, 0d4H, 0a3H, 0a1H
	DB	00H						; `string'
CONST	ENDS
;	COMDAT ??_C@_0CM@CPIEFLAH@CDataBaseEngineSink?3?3OnRequestM@
CONST	SEGMENT
??_C@_0CM@CPIEFLAH@CDataBaseEngineSink?3?3OnRequestM@ DB 'CDataBaseEngine'
	DB	'Sink::OnRequestModifyMachine', 00H		; `string'
CONST	ENDS
;	COMDAT ??_C@_0BF@GKJPBNGG@GSP_GP_UnMoorMachine@
CONST	SEGMENT
??_C@_0BF@GKJPBNGG@GSP_GP_UnMoorMachine@ DB 'GSP_GP_UnMoorMachine', 00H ; `string'
CONST	ENDS
;	COMDAT ??_C@_0BD@DPAJNOJK@GSP_GP_MoorMachine@
CONST	SEGMENT
??_C@_0BD@DPAJNOJK@GSP_GP_MoorMachine@ DB 'GSP_GP_MoorMachine', 00H ; `string'
CONST	ENDS
;	COMDAT ??_C@_09KCDEMNBD@?$EAdwUserID@
CONST	SEGMENT
??_C@_09KCDEMNBD@?$EAdwUserID@ DB '@dwUserID', 00H	; `string'
CONST	ENDS
;	COMDAT ?__LINE__Var@?0??OnRequestModifyMachine@CDataBaseEngineSink@@IAE_NKPAXG@Z@4JA
_DATA	SEGMENT
?__LINE__Var@?0??OnRequestModifyMachine@CDataBaseEngineSink@@IAE_NKPAXG@Z@4JA DD 045cH ; `CDataBaseEngineSink::OnRequestModifyMachine'::`1'::__LINE__Var
_DATA	ENDS
;	COMDAT ??_C@_0CO@KJNMOHKP@CDataBaseEngineSink?3?3OnMobileRe@
CONST	SEGMENT
??_C@_0CO@KJNMOHKP@CDataBaseEngineSink?3?3OnMobileRe@ DB 'CDataBaseEngine'
	DB	'Sink::OnMobileRegisterAccounts', 00H	; `string'
CONST	ENDS
;	COMDAT ??_C@_0BI@MNNALOBH@GSP_MB_RegisterAccounts@
CONST	SEGMENT
??_C@_0BI@MNNALOBH@GSP_MB_RegisterAccounts@ DB 'GSP_MB_RegisterAccounts', 00H ; `string'
CONST	ENDS
;	COMDAT ?__LINE__Var@?0??OnMobileRegisterAccounts@CDataBaseEngineSink@@IAE_NKPAXG@Z@4JA
_DATA	SEGMENT
?__LINE__Var@?0??OnMobileRegisterAccounts@CDataBaseEngineSink@@IAE_NKPAXG@Z@4JA DD 041cH ; `CDataBaseEngineSink::OnMobileRegisterAccounts'::`1'::__LINE__Var
_DATA	ENDS
;	COMDAT ??_C@_0CK@COLODEGG@CDataBaseEngineSink?3?3OnMobileLo@
CONST	SEGMENT
??_C@_0CK@COLODEGG@CDataBaseEngineSink?3?3OnMobileLo@ DB 'CDataBaseEngine'
	DB	'Sink::OnMobileLogonVisitor', 00H		; `string'
CONST	ENDS
;	COMDAT ??_C@_0BM@HIPAIJGL@GSP_MB_EfficacyLogonVisitor@
CONST	SEGMENT
??_C@_0BM@HIPAIJGL@GSP_MB_EfficacyLogonVisitor@ DB 'GSP_MB_EfficacyLogonV'
	DB	'isitor', 00H				; `string'
CONST	ENDS
;	COMDAT ?__LINE__Var@?0??OnMobileLogonVisitor@CDataBaseEngineSink@@IAE_NKPAXG@Z@4JA
_DATA	SEGMENT
?__LINE__Var@?0??OnMobileLogonVisitor@CDataBaseEngineSink@@IAE_NKPAXG@Z@4JA DD 03e1H ; `CDataBaseEngineSink::OnMobileLogonVisitor'::`1'::__LINE__Var
_DATA	ENDS
;	COMDAT ??_C@_0DA@NDOJOGEI@CDataBaseEngineSink?3?3OnMobileLo@
CONST	SEGMENT
??_C@_0DA@NDOJOGEI@CDataBaseEngineSink?3?3OnMobileLo@ DB 'CDataBaseEngine'
	DB	'Sink::OnMobileLogonOtherPlatform', 00H	; `string'
CONST	ENDS
;	COMDAT ??_C@_0BN@OGJOOICM@GSP_MB_EfficacyOtherPlatform@
CONST	SEGMENT
??_C@_0BN@OGJOOICM@GSP_MB_EfficacyOtherPlatform@ DB 'GSP_MB_EfficacyOther'
	DB	'Platform', 00H				; `string'
CONST	ENDS
;	COMDAT ??_C@_0M@INBBBKNE@?$EAstrFaceUrl@
CONST	SEGMENT
??_C@_0M@INBBBKNE@?$EAstrFaceUrl@ DB '@strFaceUrl', 00H	; `string'
CONST	ENDS
;	COMDAT ??_C@_0N@GKFANIE@?$EADeviceToken@
CONST	SEGMENT
??_C@_0N@GKFANIE@?$EADeviceToken@ DB '@DeviceToken', 00H ; `string'
CONST	ENDS
;	COMDAT ??_C@_0O@HAFHCIGG@?$EAcbDeviceType@
CONST	SEGMENT
??_C@_0O@HAFHCIGG@?$EAcbDeviceType@ DB '@cbDeviceType', 00H ; `string'
CONST	ENDS
;	COMDAT ??_C@_0M@KJLICHGH@?$EAstrUserUin@
CONST	SEGMENT
??_C@_0M@KJLICHGH@?$EAstrUserUin@ DB '@strUserUin', 00H	; `string'
CONST	ENDS
;	COMDAT ??_C@_0O@HIAOGCPG@?$EAcbPlatformID@
CONST	SEGMENT
??_C@_0O@HIAOGCPG@?$EAcbPlatformID@ DB '@cbPlatformID', 00H ; `string'
CONST	ENDS
;	COMDAT ?__LINE__Var@?0??OnMobileLogonOtherPlatform@CDataBaseEngineSink@@IAE_NKPAXG@Z@4JA
_DATA	SEGMENT
?__LINE__Var@?0??OnMobileLogonOtherPlatform@CDataBaseEngineSink@@IAE_NKPAXG@Z@4JA DD 03a1H ; `CDataBaseEngineSink::OnMobileLogonOtherPlatform'::`1'::__LINE__Var
_DATA	ENDS
;	COMDAT ??_C@_0CL@MJFKCOKI@CDataBaseEngineSink?3?3OnMobileLo@
CONST	SEGMENT
??_C@_0CL@MJFKCOKI@CDataBaseEngineSink?3?3OnMobileLo@ DB 'CDataBaseEngine'
	DB	'Sink::OnMobileLogonAccounts', 00H		; `string'
CONST	ENDS
;	COMDAT ??_C@_0BI@FKMJDJLJ@GSP_MB_EfficacyAccounts@
CONST	SEGMENT
??_C@_0BI@FKMJDJLJ@GSP_MB_EfficacyAccounts@ DB 'GSP_MB_EfficacyAccounts', 00H ; `string'
CONST	ENDS
;	COMDAT ?__LINE__Var@?0??OnMobileLogonAccounts@CDataBaseEngineSink@@IAE_NKPAXG@Z@4JA
_DATA	SEGMENT
?__LINE__Var@?0??OnMobileLogonAccounts@CDataBaseEngineSink@@IAE_NKPAXG@Z@4JA DD 0366H ; `CDataBaseEngineSink::OnMobileLogonAccounts'::`1'::__LINE__Var
_DATA	ENDS
;	COMDAT ??_C@_0CJ@FGANPPIL@CDataBaseEngineSink?3?3OnMobileLo@
CONST	SEGMENT
??_C@_0CJ@FGANPPIL@CDataBaseEngineSink?3?3OnMobileLo@ DB 'CDataBaseEngine'
	DB	'Sink::OnMobileLogonGameID', 00H		; `string'
CONST	ENDS
;	COMDAT ??_C@_0BG@BDCMEAK@GSP_MB_EfficacyGameID@
CONST	SEGMENT
??_C@_0BG@BDCMEAK@GSP_MB_EfficacyGameID@ DB 'GSP_MB_EfficacyGameID', 00H ; `string'
CONST	ENDS
;	COMDAT ??_C@_0BA@IJMCEMBG@?$EAstrMobilePhone@
CONST	SEGMENT
??_C@_0BA@IJMCEMBG@?$EAstrMobilePhone@ DB '@strMobilePhone', 00H ; `string'
CONST	ENDS
;	COMDAT ?__LINE__Var@?0??OnMobileLogonGameID@CDataBaseEngineSink@@IAE_NKPAXG@Z@4JA
_DATA	SEGMENT
?__LINE__Var@?0??OnMobileLogonGameID@CDataBaseEngineSink@@IAE_NKPAXG@Z@4JA DD 032bH ; `CDataBaseEngineSink::OnMobileLogonGameID'::`1'::__LINE__Var
_DATA	ENDS
;	COMDAT ??_C@_0CL@MDHCGHLM@CDataBaseEngineSink?3?3OnRequestL@
CONST	SEGMENT
??_C@_0CL@MDHCGHLM@CDataBaseEngineSink?3?3OnRequestL@ DB 'CDataBaseEngine'
	DB	'Sink::OnRequestLogonVisitor', 00H		; `string'
CONST	ENDS
;	COMDAT ??_C@_0BM@JPCCCMHP@GSP_GP_EfficacyLogonVisitor@
CONST	SEGMENT
??_C@_0BM@JPCCCMHP@GSP_GP_EfficacyLogonVisitor@ DB 'GSP_GP_EfficacyLogonV'
	DB	'isitor', 00H				; `string'
CONST	ENDS
;	COMDAT ??_C@_0N@BMHCGMLL@?$EAcbLogonMode@
CONST	SEGMENT
??_C@_0N@BMHCGMLL@?$EAcbLogonMode@ DB '@cbLogonMode', 00H ; `string'
CONST	ENDS
;	COMDAT ?__LINE__Var@?0??OnRequestLogonVisitor@CDataBaseEngineSink@@IAE_NKPAXG@Z@4JA
_DATA	SEGMENT
?__LINE__Var@?0??OnRequestLogonVisitor@CDataBaseEngineSink@@IAE_NKPAXG@Z@4JA DD 02f2H ; `CDataBaseEngineSink::OnRequestLogonVisitor'::`1'::__LINE__Var
_DATA	ENDS
;	COMDAT ??_C@_0BJ@CKJDKBFK@?J?$PN?$LO?$NN?$LP?b?$LC?Y?W?w?R?l?$LD?$KD?0?Q?i?V?$KE?J?$KH?$LA?$NM?$CB@
CONST	SEGMENT
??_C@_0BJ@CKJDKBFK@?J?$PN?$LO?$NN?$LP?b?$LC?Y?W?w?R?l?$LD?$KD?0?Q?i?V?$KE?J?$KH?$LA?$NM?$CB@ DB 0caH
	DB	0fdH, 0beH, 0ddH, 0bfH, 0e2H, 0b2H, 0d9H, 0d7H, 0f7H, 0d2H, 0ecH
	DB	0b3H, 0a3H, ',', 0d1H, 0e9H, 0d6H, 0a4H, 0caH, 0a7H, 0b0H, 0dcH
	DB	'!', 00H					; `string'
CONST	ENDS
;	COMDAT ??_C@_0CP@CHDMMJP@CDataBaseEngineSink?3?3OnRequestV@
CONST	SEGMENT
??_C@_0CP@CHDMMJP@CDataBaseEngineSink?3?3OnRequestV@ DB 'CDataBaseEngineS'
	DB	'ink::OnRequestVerifyIndividual', 00H	; `string'
CONST	ENDS
;	COMDAT ??_C@_0BI@MIHLMHHB@GSP_GP_VerifyIndividual@
CONST	SEGMENT
??_C@_0BI@MIHLMHHB@GSP_GP_VerifyIndividual@ DB 'GSP_GP_VerifyIndividual', 00H ; `string'
CONST	ENDS
;	COMDAT ??_C@_0BC@POGMJCEB@?$EAstrVerifyContent@
CONST	SEGMENT
??_C@_0BC@POGMJCEB@?$EAstrVerifyContent@ DB '@strVerifyContent', 00H ; `string'
CONST	ENDS
;	COMDAT ??_C@_0N@JMOMIFBA@?$EAwVerifyMask@
CONST	SEGMENT
??_C@_0N@JMOMIFBA@?$EAwVerifyMask@ DB '@wVerifyMask', 00H ; `string'
CONST	ENDS
;	COMDAT ?__LINE__Var@?0??OnRequestVerifyIndividual@CDataBaseEngineSink@@IAE_NKPAXG@Z@4JA
_DATA	SEGMENT
?__LINE__Var@?0??OnRequestVerifyIndividual@CDataBaseEngineSink@@IAE_NKPAXG@Z@4JA DD 02a9H ; `CDataBaseEngineSink::OnRequestVerifyIndividual'::`1'::__LINE__Var
_DATA	ENDS
;	COMDAT ??_C@_0CP@DHDLCIDM@CDataBaseEngineSink?3?3OnRequestR@
CONST	SEGMENT
??_C@_0CP@DHDLCIDM@CDataBaseEngineSink?3?3OnRequestR@ DB 'CDataBaseEngine'
	DB	'Sink::OnRequestRegisterAccounts', 00H	; `string'
CONST	ENDS
;	COMDAT ??_C@_0BI@PNDDCDNC@GSP_GP_RegisterAccounts@
CONST	SEGMENT
??_C@_0BI@PNDDCDNC@GSP_GP_RegisterAccounts@ DB 'GSP_GP_RegisterAccounts', 00H ; `string'
CONST	ENDS
;	COMDAT ??_C@_0L@NEOALBLC@?$EAdwAgentID@
CONST	SEGMENT
??_C@_0L@NEOALBLC@?$EAdwAgentID@ DB '@dwAgentID', 00H	; `string'
CONST	ENDS
;	COMDAT ??_C@_0BB@MBNGELAC@?$EAstrCompellation@
CONST	SEGMENT
??_C@_0BB@MBNGELAC@?$EAstrCompellation@ DB '@strCompellation', 00H ; `string'
CONST	ENDS
;	COMDAT ??_C@_09GNCJOEFH@?$EAcbGender@
CONST	SEGMENT
??_C@_09GNCJOEFH@?$EAcbGender@ DB '@cbGender', 00H	; `string'
CONST	ENDS
;	COMDAT ??_C@_08LMLGNKIB@?$EAwFaceID@
CONST	SEGMENT
??_C@_08LMLGNKIB@?$EAwFaceID@ DB '@wFaceID', 00H	; `string'
CONST	ENDS
;	COMDAT ??_C@_0O@JCJPMBHE@?$EAstrLogonPass@
CONST	SEGMENT
??_C@_0O@JCJPMBHE@?$EAstrLogonPass@ DB '@strLogonPass', 00H ; `string'
CONST	ENDS
;	COMDAT ??_C@_0BC@GKBODENJ@?$EAdwSpreaderGameID@
CONST	SEGMENT
??_C@_0BC@GKBODENJ@?$EAdwSpreaderGameID@ DB '@dwSpreaderGameID', 00H ; `string'
CONST	ENDS
;	COMDAT ??_C@_0N@JPNAHEDN@?$EAstrNickName@
CONST	SEGMENT
??_C@_0N@JPNAHEDN@?$EAstrNickName@ DB '@strNickName', 00H ; `string'
CONST	ENDS
;	COMDAT ?__LINE__Var@?0??OnRequestRegisterAccounts@CDataBaseEngineSink@@IAE_NKPAXG@Z@4JA
_DATA	SEGMENT
?__LINE__Var@?0??OnRequestRegisterAccounts@CDataBaseEngineSink@@IAE_NKPAXG@Z@4JA DD 0269H ; `CDataBaseEngineSink::OnRequestRegisterAccounts'::`1'::__LINE__Var
_DATA	ENDS
;	COMDAT ??_C@_0CM@KPLBNJDB@CDataBaseEngineSink?3?3OnRequestL@
CONST	SEGMENT
??_C@_0CM@KPLBNJDB@CDataBaseEngineSink?3?3OnRequestL@ DB 'CDataBaseEngine'
	DB	'Sink::OnRequestLogonAccounts', 00H		; `string'
CONST	ENDS
;	COMDAT ??_C@_0BI@GKCKKEHM@GSP_GP_EfficacyAccounts@
CONST	SEGMENT
??_C@_0BI@GKCKKEHM@GSP_GP_EfficacyAccounts@ DB 'GSP_GP_EfficacyAccounts', 00H ; `string'
CONST	ENDS
;	COMDAT ??_C@_0P@DNOJCPJJ@?$EAstrPassPortID@
CONST	SEGMENT
??_C@_0P@DNOJCPJJ@?$EAstrPassPortID@ DB '@strPassPortID', 00H ; `string'
CONST	ENDS
;	COMDAT ??_C@_0BG@PDLMCDGJ@GSP_GP_CheckUserRight@
CONST	SEGMENT
??_C@_0BG@PDLMCDGJ@GSP_GP_CheckUserRight@ DB 'GSP_GP_CheckUserRight', 00H ; `string'
CONST	ENDS
;	COMDAT ??_C@_0O@EFEADDHL@?$EAdwcheckRight@
CONST	SEGMENT
??_C@_0O@EFEADDHL@?$EAdwcheckRight@ DB '@dwcheckRight', 00H ; `string'
CONST	ENDS
;	COMDAT ??_C@_0N@MLMFFBNL@?$EAstrAccounts@
CONST	SEGMENT
??_C@_0N@MLMFFBNL@?$EAstrAccounts@ DB '@strAccounts', 00H ; `string'
CONST	ENDS
;	COMDAT ?__LINE__Var@?0??OnRequestLogonAccounts@CDataBaseEngineSink@@IAE_NKPAXG@Z@4JA
_DATA	SEGMENT
?__LINE__Var@?0??OnRequestLogonAccounts@CDataBaseEngineSink@@IAE_NKPAXG@Z@4JA DD 0219H ; `CDataBaseEngineSink::OnRequestLogonAccounts'::`1'::__LINE__Var
_DATA	ENDS
;	COMDAT ??_C@_0DH@NMJACNII@?S?I?S?Z?J?$PN?$LO?$NN?$LP?b?$LC?Y?W?w?R?l?$LD?$KD?$KD?$KM?G?k?D?z?I?T?$LK?s?V?X?J@
CONST	SEGMENT
??_C@_0DH@NMJACNII@?S?I?S?Z?J?$PN?$LO?$NN?$LP?b?$LC?Y?W?w?R?l?$LD?$KD?$KD?$KM?G?k?D?z?I?T?$LK?s?V?X?J@ DB 0d3H
	DB	0c9H, 0d3H, 0daH, 0caH, 0fdH, 0beH, 0ddH, 0bfH, 0e2H, 0b2H, 0d9H
	DB	0d7H, 0f7H, 0d2H, 0ecH, 0b3H, 0a3H, 0a3H, 0acH, 0c7H, 0ebH, 0c4H
	DB	0faH, 0c9H, 0d4H, 0baH, 0f3H, 0d6H, 0d8H, 0caH, 0d4H, 0bbH, 0f2H
	DB	0d1H, 0a1H, 0d4H, 0f1H, 0c1H, 0edH, 0d2H, 0bbH, 0b7H, 0feH, 0ceH
	DB	0f1H, 0c6H, 0f7H, 0b5H, 0c7H, 0c2H, 0bcH, 0a3H, 0a1H, 00H ; `string'
CONST	ENDS
;	COMDAT ??_C@_0CK@CCNNAFAL@CDataBaseEngineSink?3?3OnRequestL@
CONST	SEGMENT
??_C@_0CK@CCNNAFAL@CDataBaseEngineSink?3?3OnRequestL@ DB 'CDataBaseEngine'
	DB	'Sink::OnRequestLogonGameID', 00H		; `string'
CONST	ENDS
;	COMDAT ??_C@_0BG@NANKAIDP@GSP_GP_EfficacyGameID@
CONST	SEGMENT
??_C@_0BG@NANKAIDP@GSP_GP_EfficacyGameID@ DB 'GSP_GP_EfficacyGameID', 00H ; `string'
CONST	ENDS
;	COMDAT ??_C@_0BC@IIOJPJPJ@?$EAstrErrorDescribe@
CONST	SEGMENT
??_C@_0BC@IIOJPJPJ@?$EAstrErrorDescribe@ DB '@strErrorDescribe', 00H ; `string'
CONST	ENDS
;	COMDAT ??_C@_0BE@IHNOADNJ@?$EAnNeeValidateMBCard@
CONST	SEGMENT
??_C@_0BE@IHNOADNJ@?$EAnNeeValidateMBCard@ DB '@nNeeValidateMBCard', 00H ; `string'
CONST	ENDS
;	COMDAT ??_C@_0O@MBPPCANG@?$EAstrMachineID@
CONST	SEGMENT
??_C@_0O@MBPPCANG@?$EAstrMachineID@ DB '@strMachineID', 00H ; `string'
CONST	ENDS
;	COMDAT ??_C@_0N@IDHGAHBD@?$EAstrClientIP@
CONST	SEGMENT
??_C@_0N@IDHGAHBD@?$EAstrClientIP@ DB '@strClientIP', 00H ; `string'
CONST	ENDS
;	COMDAT ??_C@_0N@OCODJCJL@?$EAstrPassword@
CONST	SEGMENT
??_C@_0N@OCODJCJL@?$EAstrPassword@ DB '@strPassword', 00H ; `string'
CONST	ENDS
;	COMDAT ??_C@_09OBNFMHID@?$EAdwGameID@
CONST	SEGMENT
??_C@_09OBNFMHID@?$EAdwGameID@ DB '@dwGameID', 00H	; `string'
CONST	ENDS
;	COMDAT ??_C@_0M@PCENNPGA@?$CFd?4?$CFd?4?$CFd?4?$CFd@
CONST	SEGMENT
??_C@_0M@PCENNPGA@?$CFd?4?$CFd?4?$CFd?4?$CFd@ DB '%d.%d.%d.%d', 00H ; `string'
CONST	ENDS
;	COMDAT ?__LINE__Var@?0??OnRequestLogonGameID@CDataBaseEngineSink@@IAE_NKPAXG@Z@4JA
_DATA	SEGMENT
?__LINE__Var@?0??OnRequestLogonGameID@CDataBaseEngineSink@@IAE_NKPAXG@Z@4JA DD 01dfH ; `CDataBaseEngineSink::OnRequestLogonGameID'::`1'::__LINE__Var
_DATA	ENDS
;	COMDAT ??_C@_07KKAAKNCA@?$CFs?5?5?5?$CFs@
CONST	SEGMENT
??_C@_07KKAAKNCA@?$CFs?5?5?5?$CFs@ DB '%s   %s', 00H	; `string'
CONST	ENDS
;	COMDAT ??_C@_0CL@EMJCKBGA@CDataBaseEngineSink?3?3OnDataBase@
CONST	SEGMENT
??_C@_0CL@EMJCKBGA@CDataBaseEngineSink?3?3OnDataBase@ DB 'CDataBaseEngine'
	DB	'Sink::OnDataBaseEngineStart', 00H		; `string'
CONST	ENDS
;	COMDAT ??_R0PAUIDataBaseException@@@8
data$r	SEGMENT
??_R0PAUIDataBaseException@@@8 DD FLAT:??_7type_info@@6B@ ; IDataBaseException * `RTTI Type Descriptor'
	DD	00H
	DB	'.PAUIDataBaseException@@', 00H
data$r	ENDS
;	COMDAT ??_C@_0FB@PNCLCLBD@g?3?2?M?x?$LK?$PM?2happygamewh?2?$LH?$PO?N?q?$LG?K?2?O?$LF?M?$LD@
CONST	SEGMENT
??_C@_0FB@PNCLCLBD@g?3?2?M?x?$LK?$PM?2happygamewh?2?$LH?$PO?N?q?$LG?K?2?O?$LF?M?$LD@ DB 'g'
	DB	':\', 0cdH, 0f8H, 0baH, 0fcH, '\happygamewh\', 0b7H, 0feH, 0ceH
	DB	0f1H, 0b6H, 0cbH, '\', 0cfH, 0b5H, 0cdH, 0b3H, 0c4H, 0a3H, 0bfH
	DB	0e9H, '\', 0b7H, 0feH, 0ceH, 0f1H, 0c6H, 0f7H, 0d7H, 0e9H, 0bcH
	DB	0feH, '\', 0b5H, 0c7H, 0c2H, 0bcH, 0b7H, 0feH, 0ceH, 0f1H, 0c6H
	DB	0f7H, '\databaseenginesink.cpp', 00H		; `string'
CONST	ENDS
;	COMDAT ?__LINE__Var@?0??OnDataBaseEngineStart@CDataBaseEngineSink@@UAE_NPAUIUnknownEx@@@Z@4JA
_DATA	SEGMENT
?__LINE__Var@?0??OnDataBaseEngineStart@CDataBaseEngineSink@@UAE_NPAUIUnknownEx@@@Z@4JA DD 020H ; `CDataBaseEngineSink::OnDataBaseEngineStart'::`1'::__LINE__Var
_DATA	ENDS
;	COMDAT ??_7CDataBaseEngineSink@@6B@
CONST	SEGMENT
??_7CDataBaseEngineSink@@6B@ DD FLAT:??_R4CDataBaseEngineSink@@6B@ ; CDataBaseEngineSink::`vftable'
	DD	FLAT:?Release@CDataBaseEngineSink@@UAEXXZ
	DD	FLAT:?QueryInterface@CDataBaseEngineSink@@UAEPAXABU_GUID@@K@Z
	DD	FLAT:?OnDataBaseEngineStart@CDataBaseEngineSink@@UAE_NPAUIUnknownEx@@@Z
	DD	FLAT:?OnDataBaseEngineConclude@CDataBaseEngineSink@@UAE_NPAUIUnknownEx@@@Z
	DD	FLAT:?OnDataBaseEngineTimer@CDataBaseEngineSink@@UAE_NKI@Z
	DD	FLAT:?OnDataBaseEngineControl@CDataBaseEngineSink@@UAE_NGPAXG@Z
	DD	FLAT:?OnDataBaseEngineRequest@CDataBaseEngineSink@@UAE_NGKPAXG@Z
	DD	FLAT:??_ECDataBaseEngineSink@@UAEPAXI@Z
CONST	ENDS
;	COMDAT ??_R4?$CTempldateHelper@UIDataBase@@@@6B@
rdata$r	SEGMENT
??_R4?$CTempldateHelper@UIDataBase@@@@6B@ DD 00H	; CTempldateHelper<IDataBase>::`RTTI Complete Object Locator'
	DD	00H
	DD	00H
	DD	FLAT:??_R0?AV?$CTempldateHelper@UIDataBase@@@@@8
	DD	FLAT:??_R3?$CTempldateHelper@UIDataBase@@@@8
rdata$r	ENDS
;	COMDAT ??_R2?$CTempldateHelper@UIDataBase@@@@8
rdata$r	SEGMENT
??_R2?$CTempldateHelper@UIDataBase@@@@8 DD FLAT:??_R1A@?0A@EA@?$CTempldateHelper@UIDataBase@@@@8 ; CTempldateHelper<IDataBase>::`RTTI Base Class Array'
rdata$r	ENDS
;	COMDAT ??_R3?$CTempldateHelper@UIDataBase@@@@8
rdata$r	SEGMENT
??_R3?$CTempldateHelper@UIDataBase@@@@8 DD 00H		; CTempldateHelper<IDataBase>::`RTTI Class Hierarchy Descriptor'
	DD	00H
	DD	01H
	DD	FLAT:??_R2?$CTempldateHelper@UIDataBase@@@@8
rdata$r	ENDS
;	COMDAT ??_R0?AV?$CTempldateHelper@UIDataBase@@@@@8
data$r	SEGMENT
??_R0?AV?$CTempldateHelper@UIDataBase@@@@@8 DD FLAT:??_7type_info@@6B@ ; CTempldateHelper<IDataBase> `RTTI Type Descriptor'
	DD	00H
	DB	'.?AV?$CTempldateHelper@UIDataBase@@@@', 00H
data$r	ENDS
;	COMDAT ??_R1A@?0A@EA@?$CTempldateHelper@UIDataBase@@@@8
rdata$r	SEGMENT
??_R1A@?0A@EA@?$CTempldateHelper@UIDataBase@@@@8 DD FLAT:??_R0?AV?$CTempldateHelper@UIDataBase@@@@@8 ; CTempldateHelper<IDataBase>::`RTTI Base Class Descriptor at (0,-1,0,64)'
	DD	00H
	DD	00H
	DD	0ffffffffH
	DD	00H
	DD	040H
	DD	FLAT:??_R3?$CTempldateHelper@UIDataBase@@@@8
rdata$r	ENDS
;	COMDAT ??_R1A@?0A@EA@CDataBaseHelper@@8
rdata$r	SEGMENT
??_R1A@?0A@EA@CDataBaseHelper@@8 DD FLAT:??_R0?AVCDataBaseHelper@@@8 ; CDataBaseHelper::`RTTI Base Class Descriptor at (0,-1,0,64)'
	DD	01H
	DD	00H
	DD	0ffffffffH
	DD	00H
	DD	040H
	DD	FLAT:??_R3CDataBaseHelper@@8
rdata$r	ENDS
;	COMDAT ??_R2CDataBaseHelper@@8
rdata$r	SEGMENT
??_R2CDataBaseHelper@@8 DD FLAT:??_R1A@?0A@EA@CDataBaseHelper@@8 ; CDataBaseHelper::`RTTI Base Class Array'
	DD	FLAT:??_R1A@?0A@EA@?$CTempldateHelper@UIDataBase@@@@8
rdata$r	ENDS
;	COMDAT ??_R3CDataBaseHelper@@8
rdata$r	SEGMENT
??_R3CDataBaseHelper@@8 DD 00H				; CDataBaseHelper::`RTTI Class Hierarchy Descriptor'
	DD	00H
	DD	02H
	DD	FLAT:??_R2CDataBaseHelper@@8
rdata$r	ENDS
;	COMDAT ??_R0?AVCDataBaseHelper@@@8
data$r	SEGMENT
??_R0?AVCDataBaseHelper@@@8 DD FLAT:??_7type_info@@6B@	; CDataBaseHelper `RTTI Type Descriptor'
	DD	00H
	DB	'.?AVCDataBaseHelper@@', 00H
data$r	ENDS
;	COMDAT ??_R4CDataBaseHelper@@6B@
rdata$r	SEGMENT
??_R4CDataBaseHelper@@6B@ DD 00H			; CDataBaseHelper::`RTTI Complete Object Locator'
	DD	00H
	DD	00H
	DD	FLAT:??_R0?AVCDataBaseHelper@@@8
	DD	FLAT:??_R3CDataBaseHelper@@8
rdata$r	ENDS
;	COMDAT ??_C@_1BK@NHECDDNK@?$AAm?$AA_?$AAp?$AAD?$AAa?$AAt?$AAa?$AA?5?$AA?$DN?$AA?$DN?$AA?5?$AA0@
CONST	SEGMENT
??_C@_1BK@NHECDDNK@?$AAm?$AA_?$AAp?$AAD?$AAa?$AAt?$AAa?$AA?5?$AA?$DN?$AA?$DN?$AA?5?$AA0@ DB 'm'
	DB	00H, '_', 00H, 'p', 00H, 'D', 00H, 'a', 00H, 't', 00H, 'a', 00H
	DB	' ', 00H, '=', 00H, '=', 00H, ' ', 00H, '0', 00H, 00H, 00H ; `string'
CONST	ENDS
;	COMDAT ??_C@_0BB@BEMLEOHB@KernelEngine?4dll@
CONST	SEGMENT
??_C@_0BB@BEMLEOHB@KernelEngine?4dll@ DB 'KernelEngine.dll', 00H ; `string'
CONST	ENDS
;	COMDAT ??_C@_0P@IKJBDFNG@CreateDataBase@
CONST	SEGMENT
??_C@_0P@IKJBDFNG@CreateDataBase@ DB 'CreateDataBase', 00H ; `string'
CONST	ENDS
;	COMDAT ??_7CDataBaseHelper@@6B@
CONST	SEGMENT
??_7CDataBaseHelper@@6B@ DD FLAT:??_R4CDataBaseHelper@@6B@ ; CDataBaseHelper::`vftable'
	DD	FLAT:??_ECDataBaseHelper@@UAEPAXI@Z
CONST	ENDS
;	COMDAT ??_7?$CTempldateHelper@UIDataBase@@@@6B@
CONST	SEGMENT
??_7?$CTempldateHelper@UIDataBase@@@@6B@ DD FLAT:??_R4?$CTempldateHelper@UIDataBase@@@@6B@ ; CTempldateHelper<IDataBase>::`vftable'
	DD	FLAT:??_E?$CTempldateHelper@UIDataBase@@@@UAEPAXI@Z
CONST	ENDS
;	COMDAT ??_7IDataBaseEngineSink@@6B@
CONST	SEGMENT
??_7IDataBaseEngineSink@@6B@ DD FLAT:??_R4IDataBaseEngineSink@@6B@ ; IDataBaseEngineSink::`vftable'
	DD	FLAT:__purecall
	DD	FLAT:__purecall
	DD	FLAT:__purecall
	DD	FLAT:__purecall
	DD	FLAT:__purecall
	DD	FLAT:__purecall
	DD	FLAT:__purecall
CONST	ENDS
;	COMDAT ??_7IUnknownEx@@6B@
CONST	SEGMENT
??_7IUnknownEx@@6B@ DD FLAT:??_R4IUnknownEx@@6B@	; IUnknownEx::`vftable'
	DD	FLAT:__purecall
	DD	FLAT:__purecall
CONST	ENDS
;	COMDAT ??_C@_00CNPNBAHC@@
CONST	SEGMENT
??_C@_00CNPNBAHC@@ DB 00H				; `string'
CONST	ENDS
;	COMDAT ??_C@_1BK@NHHHCKNA@?$AAm?$AA_?$AAt?$AAi?$AAm?$AAe?$AA?5?$AA?$CB?$AA?$DN?$AA?5?$AA?9?$AA1@
CONST	SEGMENT
??_C@_1BK@NHHHCKNA@?$AAm?$AA_?$AAt?$AAi?$AAm?$AAe?$AA?5?$AA?$CB?$AA?$DN?$AA?5?$AA?9?$AA1@ DB 'm'
	DB	00H, '_', 00H, 't', 00H, 'i', 00H, 'm', 00H, 'e', 00H, ' ', 00H
	DB	'!', 00H, '=', 00H, ' ', 00H, '-', 00H, '1', 00H, 00H, 00H ; `string'
CONST	ENDS
;	COMDAT ??_C@_1OC@IALJLBM@?$AAc?$AA?3?$AA?2?$AAp?$AAr?$AAo?$AAg?$AAr?$AAa?$AAm?$AA?5?$AAf?$AAi?$AAl?$AAe@
CONST	SEGMENT
??_C@_1OC@IALJLBM@?$AAc?$AA?3?$AA?2?$AAp?$AAr?$AAo?$AAg?$AAr?$AAa?$AAm?$AA?5?$AAf?$AAi?$AAl?$AAe@ DB 'c'
	DB	00H, ':', 00H, '\', 00H, 'p', 00H, 'r', 00H, 'o', 00H, 'g', 00H
	DB	'r', 00H, 'a', 00H, 'm', 00H, ' ', 00H, 'f', 00H, 'i', 00H, 'l'
	DB	00H, 'e', 00H, 's', 00H, ' ', 00H, '(', 00H, 'x', 00H, '8', 00H
	DB	'6', 00H, ')', 00H, '\', 00H, 'm', 00H, 'i', 00H, 'c', 00H, 'r'
	DB	00H, 'o', 00H, 's', 00H, 'o', 00H, 'f', 00H, 't', 00H, ' ', 00H
	DB	'v', 00H, 'i', 00H, 's', 00H, 'u', 00H, 'a', 00H, 'l', 00H, ' '
	DB	00H, 's', 00H, 't', 00H, 'u', 00H, 'd', 00H, 'i', 00H, 'o', 00H
	DB	'\', 00H, '2', 00H, '0', 00H, '1', 00H, '7', 00H, '\', 00H, 'c'
	DB	00H, 'o', 00H, 'm', 00H, 'm', 00H, 'u', 00H, 'n', 00H, 'i', 00H
	DB	't', 00H, 'y', 00H, '\', 00H, 'v', 00H, 'c', 00H, '\', 00H, 't'
	DB	00H, 'o', 00H, 'o', 00H, 'l', 00H, 's', 00H, '\', 00H, 'm', 00H
	DB	's', 00H, 'v', 00H, 'c', 00H, '\', 00H, '1', 00H, '4', 00H, '.'
	DB	00H, '1', 00H, '6', 00H, '.', 00H, '2', 00H, '7', 00H, '0', 00H
	DB	'2', 00H, '3', 00H, '\', 00H, 'a', 00H, 't', 00H, 'l', 00H, 'm'
	DB	00H, 'f', 00H, 'c', 00H, '\', 00H, 'i', 00H, 'n', 00H, 'c', 00H
	DB	'l', 00H, 'u', 00H, 'd', 00H, 'e', 00H, '\', 00H, 'a', 00H, 't'
	DB	00H, 'l', 00H, 't', 00H, 'i', 00H, 'm', 00H, 'e', 00H, '.', 00H
	DB	'h', 00H, 00H, 00H				; `string'
CONST	ENDS
;	COMDAT ?__LINE__Var@?0???0CTime@ATL@@QAE@HHHHHHH@Z@4JA
_DATA	SEGMENT
?__LINE__Var@?0???0CTime@ATL@@QAE@HHHHHHH@Z@4JA DD 01adH ; `ATL::CTime::CTime'::`1'::__LINE__Var
_DATA	ENDS
;	COMDAT ??_C@_1BM@GBBOFEAE@?$AA_?$AA_?$AAa?$AAt?$AAl?$AA_?$AAc?$AAo?$AAn?$AAd?$AAV?$AAa?$AAl@
CONST	SEGMENT
??_C@_1BM@GBBOFEAE@?$AA_?$AA_?$AAa?$AAt?$AAl?$AA_?$AAc?$AAo?$AAn?$AAd?$AAV?$AAa?$AAl@ DB '_'
	DB	00H, '_', 00H, 'a', 00H, 't', 00H, 'l', 00H, '_', 00H, 'c', 00H
	DB	'o', 00H, 'n', 00H, 'd', 00H, 'V', 00H, 'a', 00H, 'l', 00H, 00H
	DB	00H						; `string'
CONST	ENDS
;	COMDAT ??_C@_11LOCGONAA@@
CONST	SEGMENT
??_C@_11LOCGONAA@@ DB 00H, 00H				; `string'
CONST	ENDS
;	COMDAT ??_C@_0BF@IAAKIJDJ@AtlThrow?3?5hr?5?$DN?50x?$CFx?6@
CONST	SEGMENT
??_C@_0BF@IAAKIJDJ@AtlThrow?3?5hr?5?$DN?50x?$CFx?6@ DB 'AtlThrow: hr = 0x'
	DB	'%x', 0aH, 00H				; `string'
CONST	ENDS
;	COMDAT ??_C@_0HD@OEBHCJKM@c?3?2program?5files?5?$CIx86?$CJ?2microsof@
CONST	SEGMENT
??_C@_0HD@OEBHCJKM@c?3?2program?5files?5?$CIx86?$CJ?2microsof@ DB 'c:\pro'
	DB	'gram files (x86)\microsoft visual studio\2017\community\vc\to'
	DB	'ols\msvc\14.16.27023\atlmfc\include\atlexcept.h', 00H ; `string'
CONST	ENDS
;	COMDAT ?__LINE__Var@?0??AtlThrowImpl@ATL@@YGXJ@Z@4JA
_DATA	SEGMENT
?__LINE__Var@?0??AtlThrowImpl@ATL@@YGXJ@Z@4JA DD 041H	; `ATL::AtlThrowImpl'::`1'::__LINE__Var
_DATA	ENDS
;	COMDAT ??_C@_1OE@PDFAMNPL@?$AAc?$AA?3?$AA?2?$AAp?$AAr?$AAo?$AAg?$AAr?$AAa?$AAm?$AA?5?$AAf?$AAi?$AAl?$AAe@
CONST	SEGMENT
??_C@_1OE@PDFAMNPL@?$AAc?$AA?3?$AA?2?$AAp?$AAr?$AAo?$AAg?$AAr?$AAa?$AAm?$AA?5?$AAf?$AAi?$AAl?$AAe@ DB 'c'
	DB	00H, ':', 00H, '\', 00H, 'p', 00H, 'r', 00H, 'o', 00H, 'g', 00H
	DB	'r', 00H, 'a', 00H, 'm', 00H, ' ', 00H, 'f', 00H, 'i', 00H, 'l'
	DB	00H, 'e', 00H, 's', 00H, ' ', 00H, '(', 00H, 'x', 00H, '8', 00H
	DB	'6', 00H, ')', 00H, '\', 00H, 'm', 00H, 'i', 00H, 'c', 00H, 'r'
	DB	00H, 'o', 00H, 's', 00H, 'o', 00H, 'f', 00H, 't', 00H, ' ', 00H
	DB	'v', 00H, 'i', 00H, 's', 00H, 'u', 00H, 'a', 00H, 'l', 00H, ' '
	DB	00H, 's', 00H, 't', 00H, 'u', 00H, 'd', 00H, 'i', 00H, 'o', 00H
	DB	'\', 00H, '2', 00H, '0', 00H, '1', 00H, '7', 00H, '\', 00H, 'c'
	DB	00H, 'o', 00H, 'm', 00H, 'm', 00H, 'u', 00H, 'n', 00H, 'i', 00H
	DB	't', 00H, 'y', 00H, '\', 00H, 'v', 00H, 'c', 00H, '\', 00H, 't'
	DB	00H, 'o', 00H, 'o', 00H, 'l', 00H, 's', 00H, '\', 00H, 'm', 00H
	DB	's', 00H, 'v', 00H, 'c', 00H, '\', 00H, '1', 00H, '4', 00H, '.'
	DB	00H, '1', 00H, '6', 00H, '.', 00H, '2', 00H, '7', 00H, '0', 00H
	DB	'2', 00H, '3', 00H, '\', 00H, 'a', 00H, 't', 00H, 'l', 00H, 'm'
	DB	00H, 'f', 00H, 'c', 00H, '\', 00H, 'i', 00H, 'n', 00H, 'c', 00H
	DB	'l', 00H, 'u', 00H, 'd', 00H, 'e', 00H, '\', 00H, 'a', 00H, 't'
	DB	00H, 'l', 00H, 't', 00H, 'r', 00H, 'a', 00H, 'c', 00H, 'e', 00H
	DB	'.', 00H, 'h', 00H, 00H, 00H			; `string'
CONST	ENDS
;	COMDAT ??_C@_1EO@EBPPKGOM@?$AAf?$AAa?$AAl?$AAs?$AAe?$AA?5?$AA?$CG?$AA?$CG?$AA?5?$AA?$CC?$AAT?$AAo?$AAo?$AA?5?$AAm@
CONST	SEGMENT
??_C@_1EO@EBPPKGOM@?$AAf?$AAa?$AAl?$AAs?$AAe?$AA?5?$AA?$CG?$AA?$CG?$AA?5?$AA?$CC?$AAT?$AAo?$AAo?$AA?5?$AAm@ DB 'f'
	DB	00H, 'a', 00H, 'l', 00H, 's', 00H, 'e', 00H, ' ', 00H, '&', 00H
	DB	'&', 00H, ' ', 00H, '"', 00H, 'T', 00H, 'o', 00H, 'o', 00H, ' '
	DB	00H, 'm', 00H, 'a', 00H, 'n', 00H, 'y', 00H, ' ', 00H, 'c', 00H
	DB	'a', 00H, 't', 00H, 'e', 00H, 'g', 00H, 'o', 00H, 'r', 00H, 'i'
	DB	00H, 'e', 00H, 's', 00H, ' ', 00H, 'd', 00H, 'e', 00H, 'f', 00H
	DB	'i', 00H, 'n', 00H, 'e', 00H, 'd', 00H, '"', 00H, 00H, 00H ; `string'
CONST	ENDS
;	COMDAT ??_C@_17LGGGMOOB@?$AA?$CF?$AAh?$AAs@
CONST	SEGMENT
??_C@_17LGGGMOOB@?$AA?$CF?$AAh?$AAs@ DB '%', 00H, 'h', 00H, 's', 00H, 00H
	DB	00H						; `string'
CONST	ENDS
;	COMDAT ??_C@_1O@OAIPCDPO@?$AA?$CF?$AAl?$AAs?$AA?$CF?$AAl?$AAs@
CONST	SEGMENT
??_C@_1O@OAIPCDPO@?$AA?$CF?$AAl?$AAs?$AA?$CF?$AAl?$AAs@ DB '%', 00H, 'l', 00H
	DB	's', 00H, '%', 00H, 'l', 00H, 's', 00H, 00H, 00H ; `string'
CONST	ENDS
;	COMDAT ??_C@_1M@PGKOAACE@?$AA?$CF?$AAu?$AA?5?$AA?9?$AA?5@
CONST	SEGMENT
??_C@_1M@PGKOAACE@?$AA?$CF?$AAu?$AA?5?$AA?9?$AA?5@ DB '%', 00H, 'u', 00H, ' '
	DB	00H, '-', 00H, ' ', 00H, 00H, 00H		; `string'
CONST	ENDS
;	COMDAT ??_C@_1O@LFNDFEBP@?$AA?$CF?$AAl?$AAs?$AA?5?$AA?9?$AA?5@
CONST	SEGMENT
??_C@_1O@LFNDFEBP@?$AA?$CF?$AAl?$AAs?$AA?5?$AA?9?$AA?5@ DB '%', 00H, 'l', 00H
	DB	's', 00H, ' ', 00H, '-', 00H, ' ', 00H, 00H, 00H ; `string'
CONST	ENDS
;	COMDAT ?m_nCategory@CTrace@ATL@@1IA
_DATA	SEGMENT
?m_nCategory@CTrace@ATL@@1IA DD 0ffffffffH		; ATL::CTrace::m_nCategory
_DATA	ENDS
;	COMDAT ??_C@_0BC@PGMFNIFA@atlTraceException@
CONST	SEGMENT
??_C@_0BC@PGMFNIFA@atlTraceException@ DB 'atlTraceException', 00H ; `string'
CONST	ENDS
;	COMDAT ??_C@_1OC@PNEKCFJL@?$AAc?$AA?3?$AA?2?$AAp?$AAr?$AAo?$AAg?$AAr?$AAa?$AAm?$AA?5?$AAf?$AAi?$AAl?$AAe@
CONST	SEGMENT
??_C@_1OC@PNEKCFJL@?$AAc?$AA?3?$AA?2?$AAp?$AAr?$AAo?$AAg?$AAr?$AAa?$AAm?$AA?5?$AAf?$AAi?$AAl?$AAe@ DB 'c'
	DB	00H, ':', 00H, '\', 00H, 'p', 00H, 'r', 00H, 'o', 00H, 'g', 00H
	DB	'r', 00H, 'a', 00H, 'm', 00H, ' ', 00H, 'f', 00H, 'i', 00H, 'l'
	DB	00H, 'e', 00H, 's', 00H, ' ', 00H, '(', 00H, 'x', 00H, '8', 00H
	DB	'6', 00H, ')', 00H, '\', 00H, 'm', 00H, 'i', 00H, 'c', 00H, 'r'
	DB	00H, 'o', 00H, 's', 00H, 'o', 00H, 'f', 00H, 't', 00H, ' ', 00H
	DB	'v', 00H, 'i', 00H, 's', 00H, 'u', 00H, 'a', 00H, 'l', 00H, ' '
	DB	00H, 's', 00H, 't', 00H, 'u', 00H, 'd', 00H, 'i', 00H, 'o', 00H
	DB	'\', 00H, '2', 00H, '0', 00H, '1', 00H, '7', 00H, '\', 00H, 'c'
	DB	00H, 'o', 00H, 'm', 00H, 'm', 00H, 'u', 00H, 'n', 00H, 'i', 00H
	DB	't', 00H, 'y', 00H, '\', 00H, 'v', 00H, 'c', 00H, '\', 00H, 't'
	DB	00H, 'o', 00H, 'o', 00H, 'l', 00H, 's', 00H, '\', 00H, 'm', 00H
	DB	's', 00H, 'v', 00H, 'c', 00H, '\', 00H, '1', 00H, '4', 00H, '.'
	DB	00H, '1', 00H, '6', 00H, '.', 00H, '2', 00H, '7', 00H, '0', 00H
	DB	'2', 00H, '3', 00H, '\', 00H, 'a', 00H, 't', 00H, 'l', 00H, 'm'
	DB	00H, 'f', 00H, 'c', 00H, '\', 00H, 'i', 00H, 'n', 00H, 'c', 00H
	DB	'l', 00H, 'u', 00H, 'd', 00H, 'e', 00H, '\', 00H, 'a', 00H, 't'
	DB	00H, 'l', 00H, 'c', 00H, 'o', 00H, 'n', 00H, 'v', 00H, '.', 00H
	DB	'h', 00H, 00H, 00H				; `string'
CONST	ENDS
;	COMDAT ??_C@_1OE@IAPLKPHI@?$AAc?$AA?3?$AA?2?$AAp?$AAr?$AAo?$AAg?$AAr?$AAa?$AAm?$AA?5?$AAf?$AAi?$AAl?$AAe@
CONST	SEGMENT
??_C@_1OE@IAPLKPHI@?$AAc?$AA?3?$AA?2?$AAp?$AAr?$AAo?$AAg?$AAr?$AAa?$AAm?$AA?5?$AAf?$AAi?$AAl?$AAe@ DB 'c'
	DB	00H, ':', 00H, '\', 00H, 'p', 00H, 'r', 00H, 'o', 00H, 'g', 00H
	DB	'r', 00H, 'a', 00H, 'm', 00H, ' ', 00H, 'f', 00H, 'i', 00H, 'l'
	DB	00H, 'e', 00H, 's', 00H, ' ', 00H, '(', 00H, 'x', 00H, '8', 00H
	DB	'6', 00H, ')', 00H, '\', 00H, 'm', 00H, 'i', 00H, 'c', 00H, 'r'
	DB	00H, 'o', 00H, 's', 00H, 'o', 00H, 'f', 00H, 't', 00H, ' ', 00H
	DB	'v', 00H, 'i', 00H, 's', 00H, 'u', 00H, 'a', 00H, 'l', 00H, ' '
	DB	00H, 's', 00H, 't', 00H, 'u', 00H, 'd', 00H, 'i', 00H, 'o', 00H
	DB	'\', 00H, '2', 00H, '0', 00H, '1', 00H, '7', 00H, '\', 00H, 'c'
	DB	00H, 'o', 00H, 'm', 00H, 'm', 00H, 'u', 00H, 'n', 00H, 'i', 00H
	DB	't', 00H, 'y', 00H, '\', 00H, 'v', 00H, 'c', 00H, '\', 00H, 't'
	DB	00H, 'o', 00H, 'o', 00H, 'l', 00H, 's', 00H, '\', 00H, 'm', 00H
	DB	's', 00H, 'v', 00H, 'c', 00H, '\', 00H, '1', 00H, '4', 00H, '.'
	DB	00H, '1', 00H, '6', 00H, '.', 00H, '2', 00H, '7', 00H, '0', 00H
	DB	'2', 00H, '3', 00H, '\', 00H, 'a', 00H, 't', 00H, 'l', 00H, 'm'
	DB	00H, 'f', 00H, 'c', 00H, '\', 00H, 'i', 00H, 'n', 00H, 'c', 00H
	DB	'l', 00H, 'u', 00H, 'd', 00H, 'e', 00H, '\', 00H, 'a', 00H, 't'
	DB	00H, 'l', 00H, 'a', 00H, 'l', 00H, 'l', 00H, 'o', 00H, 'c', 00H
	DB	'.', 00H, 'h', 00H, 00H, 00H			; `string'
CONST	ENDS
;	COMDAT ??_C@_17CNPHIMPH@?$AA?$CF?$AAl?$AAs@
CONST	SEGMENT
??_C@_17CNPHIMPH@?$AA?$CF?$AAl?$AAs@ DB '%', 00H, 'l', 00H, 's', 00H, 00H
	DB	00H						; `string'
CONST	ENDS
;	COMDAT xdata$x
xdata$x	SEGMENT
__catchsym$?OnLogonDisposeResult@CDataBaseEngineSink@@IAEXKKPBDK_N@Z$5 DD 040H
	DD	00H
	DD	00H
	DD	FLAT:__catch$?OnLogonDisposeResult@CDataBaseEngineSink@@IAEXKKPBDK_N@Z$2
__catchsym$?OnLogonDisposeResult@CDataBaseEngineSink@@IAEXKKPBDK_N@Z$4 DD 040H
	DD	00H
	DD	00H
	DD	FLAT:__catch$?OnLogonDisposeResult@CDataBaseEngineSink@@IAEXKKPBDK_N@Z$0
__unwindtable$?OnLogonDisposeResult@CDataBaseEngineSink@@IAEXKKPBDK_N@Z DD 0ffffffffH
	DD	00H
	DD	0ffffffffH
	DD	00H
	DD	0ffffffffH
	DD	00H
	DD	0ffffffffH
	DD	00H
__ehfuncinfo$?OnLogonDisposeResult@CDataBaseEngineSink@@IAEXKKPBDK_N@Z DD 019930522H
	DD	04H
	DD	FLAT:__unwindtable$?OnLogonDisposeResult@CDataBaseEngineSink@@IAEXKKPBDK_N@Z
	DD	02H
	DD	FLAT:__tryblocktable$?OnLogonDisposeResult@CDataBaseEngineSink@@IAEXKKPBDK_N@Z
	DD	2 DUP(00H)
	DD	00H
	DD	01H
__tryblocktable$?OnLogonDisposeResult@CDataBaseEngineSink@@IAEXKKPBDK_N@Z DD 00H
	DD	00H
	DD	01H
	DD	01H
	DD	FLAT:__catchsym$?OnLogonDisposeResult@CDataBaseEngineSink@@IAEXKKPBDK_N@Z$4
	DD	02H
	DD	02H
	DD	03H
	DD	01H
	DD	FLAT:__catchsym$?OnLogonDisposeResult@CDataBaseEngineSink@@IAEXKKPBDK_N@Z$5
xdata$x	ENDS
;	COMDAT xdata$x
xdata$x	SEGMENT
__catchsym$?OnRequestPlayBackCode@CDataBaseEngineSink@@IAE_NKPAXG@Z$2 DD 00H
	DD	FLAT:??_R0PAUIDataBaseException@@@8
	DD	0ffffff3cH
	DD	FLAT:__catch$?OnRequestPlayBackCode@CDataBaseEngineSink@@IAE_NKPAXG@Z$0
__unwindtable$?OnRequestPlayBackCode@CDataBaseEngineSink@@IAE_NKPAXG@Z DD 0ffffffffH
	DD	00H
	DD	0ffffffffH
	DD	00H
__tryblocktable$?OnRequestPlayBackCode@CDataBaseEngineSink@@IAE_NKPAXG@Z DD 00H
	DD	00H
	DD	01H
	DD	01H
	DD	FLAT:__catchsym$?OnRequestPlayBackCode@CDataBaseEngineSink@@IAE_NKPAXG@Z$2
__ehfuncinfo$?OnRequestPlayBackCode@CDataBaseEngineSink@@IAE_NKPAXG@Z DD 019930522H
	DD	02H
	DD	FLAT:__unwindtable$?OnRequestPlayBackCode@CDataBaseEngineSink@@IAE_NKPAXG@Z
	DD	01H
	DD	FLAT:__tryblocktable$?OnRequestPlayBackCode@CDataBaseEngineSink@@IAE_NKPAXG@Z
	DD	2 DUP(00H)
	DD	00H
	DD	01H
xdata$x	ENDS
;	COMDAT xdata$x
xdata$x	SEGMENT
__catchsym$?OnRequestPlayBackCodeYZ@CDataBaseEngineSink@@IAE_NKPAXG@Z$2 DD 00H
	DD	FLAT:??_R0PAUIDataBaseException@@@8
	DD	0ffffff34H
	DD	FLAT:__catch$?OnRequestPlayBackCodeYZ@CDataBaseEngineSink@@IAE_NKPAXG@Z$0
__unwindtable$?OnRequestPlayBackCodeYZ@CDataBaseEngineSink@@IAE_NKPAXG@Z DD 0ffffffffH
	DD	00H
	DD	0ffffffffH
	DD	00H
__tryblocktable$?OnRequestPlayBackCodeYZ@CDataBaseEngineSink@@IAE_NKPAXG@Z DD 00H
	DD	00H
	DD	01H
	DD	01H
	DD	FLAT:__catchsym$?OnRequestPlayBackCodeYZ@CDataBaseEngineSink@@IAE_NKPAXG@Z$2
__ehfuncinfo$?OnRequestPlayBackCodeYZ@CDataBaseEngineSink@@IAE_NKPAXG@Z DD 019930522H
	DD	02H
	DD	FLAT:__unwindtable$?OnRequestPlayBackCodeYZ@CDataBaseEngineSink@@IAE_NKPAXG@Z
	DD	01H
	DD	FLAT:__tryblocktable$?OnRequestPlayBackCodeYZ@CDataBaseEngineSink@@IAE_NKPAXG@Z
	DD	2 DUP(00H)
	DD	00H
	DD	01H
xdata$x	ENDS
;	COMDAT xdata$x
xdata$x	SEGMENT
__catchsym$?OnRequestVideoDetailsByRoomID@CDataBaseEngineSink@@IAE_NKPAXG@Z$2 DD 00H
	DD	FLAT:??_R0PAUIDataBaseException@@@8
	DD	0ffffc2bcH
	DD	FLAT:__catch$?OnRequestVideoDetailsByRoomID@CDataBaseEngineSink@@IAE_NKPAXG@Z$0
__unwindtable$?OnRequestVideoDetailsByRoomID@CDataBaseEngineSink@@IAE_NKPAXG@Z DD 0ffffffffH
	DD	00H
	DD	0ffffffffH
	DD	00H
__tryblocktable$?OnRequestVideoDetailsByRoomID@CDataBaseEngineSink@@IAE_NKPAXG@Z DD 00H
	DD	00H
	DD	01H
	DD	01H
	DD	FLAT:__catchsym$?OnRequestVideoDetailsByRoomID@CDataBaseEngineSink@@IAE_NKPAXG@Z$2
__ehfuncinfo$?OnRequestVideoDetailsByRoomID@CDataBaseEngineSink@@IAE_NKPAXG@Z DD 019930522H
	DD	02H
	DD	FLAT:__unwindtable$?OnRequestVideoDetailsByRoomID@CDataBaseEngineSink@@IAE_NKPAXG@Z
	DD	01H
	DD	FLAT:__tryblocktable$?OnRequestVideoDetailsByRoomID@CDataBaseEngineSink@@IAE_NKPAXG@Z
	DD	2 DUP(00H)
	DD	00H
	DD	01H
xdata$x	ENDS
;	COMDAT xdata$x
xdata$x	SEGMENT
__catchsym$?OnRequestVideoDetails@CDataBaseEngineSink@@IAE_NKPAXG@Z$2 DD 00H
	DD	FLAT:??_R0PAUIDataBaseException@@@8
	DD	0ffffc2bcH
	DD	FLAT:__catch$?OnRequestVideoDetails@CDataBaseEngineSink@@IAE_NKPAXG@Z$0
__unwindtable$?OnRequestVideoDetails@CDataBaseEngineSink@@IAE_NKPAXG@Z DD 0ffffffffH
	DD	00H
	DD	0ffffffffH
	DD	00H
__tryblocktable$?OnRequestVideoDetails@CDataBaseEngineSink@@IAE_NKPAXG@Z DD 00H
	DD	00H
	DD	01H
	DD	01H
	DD	FLAT:__catchsym$?OnRequestVideoDetails@CDataBaseEngineSink@@IAE_NKPAXG@Z$2
__ehfuncinfo$?OnRequestVideoDetails@CDataBaseEngineSink@@IAE_NKPAXG@Z DD 019930522H
	DD	02H
	DD	FLAT:__unwindtable$?OnRequestVideoDetails@CDataBaseEngineSink@@IAE_NKPAXG@Z
	DD	01H
	DD	FLAT:__tryblocktable$?OnRequestVideoDetails@CDataBaseEngineSink@@IAE_NKPAXG@Z
	DD	2 DUP(00H)
	DD	00H
	DD	01H
xdata$x	ENDS
;	COMDAT xdata$x
xdata$x	SEGMENT
__catchsym$?OnRequestVideoInfo@CDataBaseEngineSink@@IAE_NKPAXG@Z$2 DD 00H
	DD	FLAT:??_R0PAUIDataBaseException@@@8
	DD	0ffffc294H
	DD	FLAT:__catch$?OnRequestVideoInfo@CDataBaseEngineSink@@IAE_NKPAXG@Z$0
__unwindtable$?OnRequestVideoInfo@CDataBaseEngineSink@@IAE_NKPAXG@Z DD 0ffffffffH
	DD	00H
	DD	0ffffffffH
	DD	00H
__tryblocktable$?OnRequestVideoInfo@CDataBaseEngineSink@@IAE_NKPAXG@Z DD 00H
	DD	00H
	DD	01H
	DD	01H
	DD	FLAT:__catchsym$?OnRequestVideoInfo@CDataBaseEngineSink@@IAE_NKPAXG@Z$2
__ehfuncinfo$?OnRequestVideoInfo@CDataBaseEngineSink@@IAE_NKPAXG@Z DD 019930522H
	DD	02H
	DD	FLAT:__unwindtable$?OnRequestVideoInfo@CDataBaseEngineSink@@IAE_NKPAXG@Z
	DD	01H
	DD	FLAT:__tryblocktable$?OnRequestVideoInfo@CDataBaseEngineSink@@IAE_NKPAXG@Z
	DD	2 DUP(00H)
	DD	00H
	DD	01H
xdata$x	ENDS
;	COMDAT xdata$x
xdata$x	SEGMENT
__catchsym$?OnRequestPlatformParameter@CDataBaseEngineSink@@IAE_NKPAXG@Z$2 DD 00H
	DD	FLAT:??_R0PAUIDataBaseException@@@8
	DD	0ffffffd4H
	DD	FLAT:__catch$?OnRequestPlatformParameter@CDataBaseEngineSink@@IAE_NKPAXG@Z$0
__unwindtable$?OnRequestPlatformParameter@CDataBaseEngineSink@@IAE_NKPAXG@Z DD 0ffffffffH
	DD	00H
	DD	0ffffffffH
	DD	00H
__tryblocktable$?OnRequestPlatformParameter@CDataBaseEngineSink@@IAE_NKPAXG@Z DD 00H
	DD	00H
	DD	01H
	DD	01H
	DD	FLAT:__catchsym$?OnRequestPlatformParameter@CDataBaseEngineSink@@IAE_NKPAXG@Z$2
__ehfuncinfo$?OnRequestPlatformParameter@CDataBaseEngineSink@@IAE_NKPAXG@Z DD 019930522H
	DD	02H
	DD	FLAT:__unwindtable$?OnRequestPlatformParameter@CDataBaseEngineSink@@IAE_NKPAXG@Z
	DD	01H
	DD	FLAT:__tryblocktable$?OnRequestPlatformParameter@CDataBaseEngineSink@@IAE_NKPAXG@Z
	DD	2 DUP(00H)
	DD	00H
	DD	01H
xdata$x	ENDS
;	COMDAT xdata$x
xdata$x	SEGMENT
__catchsym$?OnRequestOnLineCountInfo@CDataBaseEngineSink@@IAE_NKPAXG@Z$2 DD 00H
	DD	FLAT:??_R0PAUIDataBaseException@@@8
	DD	0ffffefa8H
	DD	FLAT:__catch$?OnRequestOnLineCountInfo@CDataBaseEngineSink@@IAE_NKPAXG@Z$0
__unwindtable$?OnRequestOnLineCountInfo@CDataBaseEngineSink@@IAE_NKPAXG@Z DD 0ffffffffH
	DD	00H
	DD	0ffffffffH
	DD	00H
__tryblocktable$?OnRequestOnLineCountInfo@CDataBaseEngineSink@@IAE_NKPAXG@Z DD 00H
	DD	00H
	DD	01H
	DD	01H
	DD	FLAT:__catchsym$?OnRequestOnLineCountInfo@CDataBaseEngineSink@@IAE_NKPAXG@Z$2
__ehfuncinfo$?OnRequestOnLineCountInfo@CDataBaseEngineSink@@IAE_NKPAXG@Z DD 019930522H
	DD	02H
	DD	FLAT:__unwindtable$?OnRequestOnLineCountInfo@CDataBaseEngineSink@@IAE_NKPAXG@Z
	DD	01H
	DD	FLAT:__tryblocktable$?OnRequestOnLineCountInfo@CDataBaseEngineSink@@IAE_NKPAXG@Z
	DD	2 DUP(00H)
	DD	00H
	DD	01H
xdata$x	ENDS
;	COMDAT xdata$x
xdata$x	SEGMENT
__catchsym$?OnRequestLoadGameList@CDataBaseEngineSink@@IAE_NKPAXG@Z$2 DD 00H
	DD	FLAT:??_R0PAUIDataBaseException@@@8
	DD	0ffffbfccH
	DD	FLAT:__catch$?OnRequestLoadGameList@CDataBaseEngineSink@@IAE_NKPAXG@Z$0
__unwindtable$?OnRequestLoadGameList@CDataBaseEngineSink@@IAE_NKPAXG@Z DD 0ffffffffH
	DD	00H
	DD	0ffffffffH
	DD	00H
__tryblocktable$?OnRequestLoadGameList@CDataBaseEngineSink@@IAE_NKPAXG@Z DD 00H
	DD	00H
	DD	01H
	DD	01H
	DD	FLAT:__catchsym$?OnRequestLoadGameList@CDataBaseEngineSink@@IAE_NKPAXG@Z$2
__ehfuncinfo$?OnRequestLoadGameList@CDataBaseEngineSink@@IAE_NKPAXG@Z DD 019930522H
	DD	02H
	DD	FLAT:__unwindtable$?OnRequestLoadGameList@CDataBaseEngineSink@@IAE_NKPAXG@Z
	DD	01H
	DD	FLAT:__tryblocktable$?OnRequestLoadGameList@CDataBaseEngineSink@@IAE_NKPAXG@Z
	DD	2 DUP(00H)
	DD	00H
	DD	01H
xdata$x	ENDS
;	COMDAT xdata$x
xdata$x	SEGMENT
__catchsym$?OnRequestAccountBindExists@CDataBaseEngineSink@@IAE_NKPAXG@Z$6 DD 00H
	DD	FLAT:??_R0PAUIDataBaseException@@@8
	DD	0fffffd8cH
	DD	FLAT:__catch$?OnRequestAccountBindExists@CDataBaseEngineSink@@IAE_NKPAXG@Z$0
__tryblocktable$?OnRequestAccountBindExists@CDataBaseEngineSink@@IAE_NKPAXG@Z DD 00H
	DD	02H
	DD	03H
	DD	01H
	DD	FLAT:__catchsym$?OnRequestAccountBindExists@CDataBaseEngineSink@@IAE_NKPAXG@Z$6
__unwindtable$?OnRequestAccountBindExists@CDataBaseEngineSink@@IAE_NKPAXG@Z DD 0ffffffffH
	DD	00H
	DD	00H
	DD	FLAT:__unwindfunclet$?OnRequestAccountBindExists@CDataBaseEngineSink@@IAE_NKPAXG@Z$2
	DD	00H
	DD	FLAT:__unwindfunclet$?OnRequestAccountBindExists@CDataBaseEngineSink@@IAE_NKPAXG@Z$4
	DD	0ffffffffH
	DD	00H
__ehfuncinfo$?OnRequestAccountBindExists@CDataBaseEngineSink@@IAE_NKPAXG@Z DD 019930522H
	DD	04H
	DD	FLAT:__unwindtable$?OnRequestAccountBindExists@CDataBaseEngineSink@@IAE_NKPAXG@Z
	DD	01H
	DD	FLAT:__tryblocktable$?OnRequestAccountBindExists@CDataBaseEngineSink@@IAE_NKPAXG@Z
	DD	2 DUP(00H)
	DD	00H
	DD	01H
xdata$x	ENDS
;	COMDAT xdata$x
xdata$x	SEGMENT
__catchsym$?OnRequestAccountBind@CDataBaseEngineSink@@IAE_NKPAXG@Z$6 DD 00H
	DD	FLAT:??_R0PAUIDataBaseException@@@8
	DD	0fffffd8cH
	DD	FLAT:__catch$?OnRequestAccountBind@CDataBaseEngineSink@@IAE_NKPAXG@Z$0
__tryblocktable$?OnRequestAccountBind@CDataBaseEngineSink@@IAE_NKPAXG@Z DD 00H
	DD	02H
	DD	03H
	DD	01H
	DD	FLAT:__catchsym$?OnRequestAccountBind@CDataBaseEngineSink@@IAE_NKPAXG@Z$6
__unwindtable$?OnRequestAccountBind@CDataBaseEngineSink@@IAE_NKPAXG@Z DD 0ffffffffH
	DD	00H
	DD	00H
	DD	FLAT:__unwindfunclet$?OnRequestAccountBind@CDataBaseEngineSink@@IAE_NKPAXG@Z$2
	DD	00H
	DD	FLAT:__unwindfunclet$?OnRequestAccountBind@CDataBaseEngineSink@@IAE_NKPAXG@Z$4
	DD	0ffffffffH
	DD	00H
__ehfuncinfo$?OnRequestAccountBind@CDataBaseEngineSink@@IAE_NKPAXG@Z DD 019930522H
	DD	04H
	DD	FLAT:__unwindtable$?OnRequestAccountBind@CDataBaseEngineSink@@IAE_NKPAXG@Z
	DD	01H
	DD	FLAT:__tryblocktable$?OnRequestAccountBind@CDataBaseEngineSink@@IAE_NKPAXG@Z
	DD	2 DUP(00H)
	DD	00H
	DD	01H
xdata$x	ENDS
;	COMDAT xdata$x
xdata$x	SEGMENT
__catchsym$?OnRequestQueryPersonalRule@CDataBaseEngineSink@@IAE_NKPAXG@Z$2 DD 00H
	DD	FLAT:??_R0PAUIDataBaseException@@@8
	DD	0fffff34cH
	DD	FLAT:__catch$?OnRequestQueryPersonalRule@CDataBaseEngineSink@@IAE_NKPAXG@Z$0
__unwindtable$?OnRequestQueryPersonalRule@CDataBaseEngineSink@@IAE_NKPAXG@Z DD 0ffffffffH
	DD	00H
	DD	0ffffffffH
	DD	00H
__tryblocktable$?OnRequestQueryPersonalRule@CDataBaseEngineSink@@IAE_NKPAXG@Z DD 00H
	DD	00H
	DD	01H
	DD	01H
	DD	FLAT:__catchsym$?OnRequestQueryPersonalRule@CDataBaseEngineSink@@IAE_NKPAXG@Z$2
__ehfuncinfo$?OnRequestQueryPersonalRule@CDataBaseEngineSink@@IAE_NKPAXG@Z DD 019930522H
	DD	02H
	DD	FLAT:__unwindtable$?OnRequestQueryPersonalRule@CDataBaseEngineSink@@IAE_NKPAXG@Z
	DD	01H
	DD	FLAT:__tryblocktable$?OnRequestQueryPersonalRule@CDataBaseEngineSink@@IAE_NKPAXG@Z
	DD	2 DUP(00H)
	DD	00H
	DD	01H
xdata$x	ENDS
;	COMDAT xdata$x
xdata$x	SEGMENT
__catchsym$?OnRequestRoomCardExchangeToScore@CDataBaseEngineSink@@IAE_NKPAXG@Z$4 DD 00H
	DD	FLAT:??_R0PAUIDataBaseException@@@8
	DD	0fffffe9cH
	DD	FLAT:__catch$?OnRequestRoomCardExchangeToScore@CDataBaseEngineSink@@IAE_NKPAXG@Z$0
__tryblocktable$?OnRequestRoomCardExchangeToScore@CDataBaseEngineSink@@IAE_NKPAXG@Z DD 00H
	DD	01H
	DD	02H
	DD	01H
	DD	FLAT:__catchsym$?OnRequestRoomCardExchangeToScore@CDataBaseEngineSink@@IAE_NKPAXG@Z$4
__unwindtable$?OnRequestRoomCardExchangeToScore@CDataBaseEngineSink@@IAE_NKPAXG@Z DD 0ffffffffH
	DD	00H
	DD	00H
	DD	FLAT:__unwindfunclet$?OnRequestRoomCardExchangeToScore@CDataBaseEngineSink@@IAE_NKPAXG@Z$2
	DD	0ffffffffH
	DD	00H
__ehfuncinfo$?OnRequestRoomCardExchangeToScore@CDataBaseEngineSink@@IAE_NKPAXG@Z DD 019930522H
	DD	03H
	DD	FLAT:__unwindtable$?OnRequestRoomCardExchangeToScore@CDataBaseEngineSink@@IAE_NKPAXG@Z
	DD	01H
	DD	FLAT:__tryblocktable$?OnRequestRoomCardExchangeToScore@CDataBaseEngineSink@@IAE_NKPAXG@Z
	DD	2 DUP(00H)
	DD	00H
	DD	01H
xdata$x	ENDS
;	COMDAT xdata$x
xdata$x	SEGMENT
__catchsym$?OnRequestPersonalRoomUserInfo@CDataBaseEngineSink@@IAE_NKPAXG@Z$2 DD 00H
	DD	FLAT:??_R0PAUIDataBaseException@@@8
	DD	0ffffff1cH
	DD	FLAT:__catch$?OnRequestPersonalRoomUserInfo@CDataBaseEngineSink@@IAE_NKPAXG@Z$0
__unwindtable$?OnRequestPersonalRoomUserInfo@CDataBaseEngineSink@@IAE_NKPAXG@Z DD 0ffffffffH
	DD	00H
	DD	0ffffffffH
	DD	00H
__tryblocktable$?OnRequestPersonalRoomUserInfo@CDataBaseEngineSink@@IAE_NKPAXG@Z DD 00H
	DD	00H
	DD	01H
	DD	01H
	DD	FLAT:__catchsym$?OnRequestPersonalRoomUserInfo@CDataBaseEngineSink@@IAE_NKPAXG@Z$2
__ehfuncinfo$?OnRequestPersonalRoomUserInfo@CDataBaseEngineSink@@IAE_NKPAXG@Z DD 019930522H
	DD	02H
	DD	FLAT:__unwindtable$?OnRequestPersonalRoomUserInfo@CDataBaseEngineSink@@IAE_NKPAXG@Z
	DD	01H
	DD	FLAT:__tryblocktable$?OnRequestPersonalRoomUserInfo@CDataBaseEngineSink@@IAE_NKPAXG@Z
	DD	2 DUP(00H)
	DD	00H
	DD	01H
xdata$x	ENDS
;	COMDAT xdata$x
xdata$x	SEGMENT
__catchsym$?OnRequestCloseRoomWriteDissumeTime@CDataBaseEngineSink@@IAE_NKPAXG@Z$2 DD 00H
	DD	FLAT:??_R0PAUIDataBaseException@@@8
	DD	0ffffff5cH
	DD	FLAT:__catch$?OnRequestCloseRoomWriteDissumeTime@CDataBaseEngineSink@@IAE_NKPAXG@Z$0
__unwindtable$?OnRequestCloseRoomWriteDissumeTime@CDataBaseEngineSink@@IAE_NKPAXG@Z DD 0ffffffffH
	DD	00H
	DD	0ffffffffH
	DD	00H
__tryblocktable$?OnRequestCloseRoomWriteDissumeTime@CDataBaseEngineSink@@IAE_NKPAXG@Z DD 00H
	DD	00H
	DD	01H
	DD	01H
	DD	FLAT:__catchsym$?OnRequestCloseRoomWriteDissumeTime@CDataBaseEngineSink@@IAE_NKPAXG@Z$2
__ehfuncinfo$?OnRequestCloseRoomWriteDissumeTime@CDataBaseEngineSink@@IAE_NKPAXG@Z DD 019930522H
	DD	02H
	DD	FLAT:__unwindtable$?OnRequestCloseRoomWriteDissumeTime@CDataBaseEngineSink@@IAE_NKPAXG@Z
	DD	01H
	DD	FLAT:__tryblocktable$?OnRequestCloseRoomWriteDissumeTime@CDataBaseEngineSink@@IAE_NKPAXG@Z
	DD	2 DUP(00H)
	DD	00H
	DD	01H
xdata$x	ENDS
;	COMDAT xdata$x
xdata$x	SEGMENT
__catchsym$?OnRequestQueryUserRoomScore@CDataBaseEngineSink@@IAE_NKPAXG@Z$2 DD 00H
	DD	FLAT:??_R0PAUIDataBaseException@@@8
	DD	0ffffa5f0H
	DD	FLAT:__catch$?OnRequestQueryUserRoomScore@CDataBaseEngineSink@@IAE_NKPAXG@Z$0
__unwindtable$?OnRequestQueryUserRoomScore@CDataBaseEngineSink@@IAE_NKPAXG@Z DD 0ffffffffH
	DD	00H
	DD	0ffffffffH
	DD	00H
__tryblocktable$?OnRequestQueryUserRoomScore@CDataBaseEngineSink@@IAE_NKPAXG@Z DD 00H
	DD	00H
	DD	01H
	DD	01H
	DD	FLAT:__catchsym$?OnRequestQueryUserRoomScore@CDataBaseEngineSink@@IAE_NKPAXG@Z$2
__ehfuncinfo$?OnRequestQueryUserRoomScore@CDataBaseEngineSink@@IAE_NKPAXG@Z DD 019930522H
	DD	02H
	DD	FLAT:__unwindtable$?OnRequestQueryUserRoomScore@CDataBaseEngineSink@@IAE_NKPAXG@Z
	DD	01H
	DD	FLAT:__tryblocktable$?OnRequestQueryUserRoomScore@CDataBaseEngineSink@@IAE_NKPAXG@Z
	DD	2 DUP(00H)
	DD	00H
	DD	01H
xdata$x	ENDS
;	COMDAT xdata$x
xdata$x	SEGMENT
__unwindtable$?OnRequsetDissumeRoomTest@CDataBaseEngineSink@@IAE_NKPAXGAAK@Z DD 0ffffffffH
	DD	FLAT:__unwindfunclet$?OnRequsetDissumeRoomTest@CDataBaseEngineSink@@IAE_NKPAXGAAK@Z$0
__ehfuncinfo$?OnRequsetDissumeRoomTest@CDataBaseEngineSink@@IAE_NKPAXGAAK@Z DD 019930522H
	DD	01H
	DD	FLAT:__unwindtable$?OnRequsetDissumeRoomTest@CDataBaseEngineSink@@IAE_NKPAXGAAK@Z
	DD	2 DUP(00H)
	DD	2 DUP(00H)
	DD	00H
	DD	01H
xdata$x	ENDS
;	COMDAT xdata$x
xdata$x	SEGMENT
__catchsym$?OnRequestqueryPersonalRoomInfo@CDataBaseEngineSink@@IAE_NKPAXG@Z$2 DD 00H
	DD	FLAT:??_R0PAUIDataBaseException@@@8
	DD	0ffffbb7cH
	DD	FLAT:__catch$?OnRequestqueryPersonalRoomInfo@CDataBaseEngineSink@@IAE_NKPAXG@Z$0
__unwindtable$?OnRequestqueryPersonalRoomInfo@CDataBaseEngineSink@@IAE_NKPAXG@Z DD 0ffffffffH
	DD	00H
	DD	0ffffffffH
	DD	00H
__tryblocktable$?OnRequestqueryPersonalRoomInfo@CDataBaseEngineSink@@IAE_NKPAXG@Z DD 00H
	DD	00H
	DD	01H
	DD	01H
	DD	FLAT:__catchsym$?OnRequestqueryPersonalRoomInfo@CDataBaseEngineSink@@IAE_NKPAXG@Z$2
__ehfuncinfo$?OnRequestqueryPersonalRoomInfo@CDataBaseEngineSink@@IAE_NKPAXG@Z DD 019930522H
	DD	02H
	DD	FLAT:__unwindtable$?OnRequestqueryPersonalRoomInfo@CDataBaseEngineSink@@IAE_NKPAXG@Z
	DD	01H
	DD	FLAT:__tryblocktable$?OnRequestqueryPersonalRoomInfo@CDataBaseEngineSink@@IAE_NKPAXG@Z
	DD	2 DUP(00H)
	DD	00H
	DD	01H
xdata$x	ENDS
;	COMDAT xdata$x
xdata$x	SEGMENT
__catchsym$?OnRequestGetPersonalParameter@CDataBaseEngineSink@@IAE_NKPAXG@Z$2 DD 00H
	DD	FLAT:??_R0PAUIDataBaseException@@@8
	DD	0ffffb2b8H
	DD	FLAT:__catch$?OnRequestGetPersonalParameter@CDataBaseEngineSink@@IAE_NKPAXG@Z$0
__unwindtable$?OnRequestGetPersonalParameter@CDataBaseEngineSink@@IAE_NKPAXG@Z DD 0ffffffffH
	DD	00H
	DD	0ffffffffH
	DD	00H
__tryblocktable$?OnRequestGetPersonalParameter@CDataBaseEngineSink@@IAE_NKPAXG@Z DD 00H
	DD	00H
	DD	01H
	DD	01H
	DD	FLAT:__catchsym$?OnRequestGetPersonalParameter@CDataBaseEngineSink@@IAE_NKPAXG@Z$2
__ehfuncinfo$?OnRequestGetPersonalParameter@CDataBaseEngineSink@@IAE_NKPAXG@Z DD 019930522H
	DD	02H
	DD	FLAT:__unwindtable$?OnRequestGetPersonalParameter@CDataBaseEngineSink@@IAE_NKPAXG@Z
	DD	01H
	DD	FLAT:__tryblocktable$?OnRequestGetPersonalParameter@CDataBaseEngineSink@@IAE_NKPAXG@Z
	DD	2 DUP(00H)
	DD	00H
	DD	01H
xdata$x	ENDS
;	COMDAT xdata$x
xdata$x	SEGMENT
__catchsym$?OnRequestQueryUserGameData@CDataBaseEngineSink@@IAE_NKPAXG@Z$4 DD 00H
	DD	FLAT:??_R0PAUIDataBaseException@@@8
	DD	0fffffab4H
	DD	FLAT:__catch$?OnRequestQueryUserGameData@CDataBaseEngineSink@@IAE_NKPAXG@Z$0
__tryblocktable$?OnRequestQueryUserGameData@CDataBaseEngineSink@@IAE_NKPAXG@Z DD 00H
	DD	01H
	DD	02H
	DD	01H
	DD	FLAT:__catchsym$?OnRequestQueryUserGameData@CDataBaseEngineSink@@IAE_NKPAXG@Z$4
__unwindtable$?OnRequestQueryUserGameData@CDataBaseEngineSink@@IAE_NKPAXG@Z DD 0ffffffffH
	DD	00H
	DD	00H
	DD	FLAT:__unwindfunclet$?OnRequestQueryUserGameData@CDataBaseEngineSink@@IAE_NKPAXG@Z$2
	DD	0ffffffffH
	DD	00H
__ehfuncinfo$?OnRequestQueryUserGameData@CDataBaseEngineSink@@IAE_NKPAXG@Z DD 019930522H
	DD	03H
	DD	FLAT:__unwindtable$?OnRequestQueryUserGameData@CDataBaseEngineSink@@IAE_NKPAXG@Z
	DD	01H
	DD	FLAT:__tryblocktable$?OnRequestQueryUserGameData@CDataBaseEngineSink@@IAE_NKPAXG@Z
	DD	2 DUP(00H)
	DD	00H
	DD	01H
xdata$x	ENDS
;	COMDAT xdata$x
xdata$x	SEGMENT
__catchsym$?OnRequestLotteryStart@CDataBaseEngineSink@@IAE_NKPAXG@Z$4 DD 00H
	DD	FLAT:??_R0PAUIDataBaseException@@@8
	DD	0fffffe80H
	DD	FLAT:__catch$?OnRequestLotteryStart@CDataBaseEngineSink@@IAE_NKPAXG@Z$0
__tryblocktable$?OnRequestLotteryStart@CDataBaseEngineSink@@IAE_NKPAXG@Z DD 00H
	DD	01H
	DD	02H
	DD	01H
	DD	FLAT:__catchsym$?OnRequestLotteryStart@CDataBaseEngineSink@@IAE_NKPAXG@Z$4
__unwindtable$?OnRequestLotteryStart@CDataBaseEngineSink@@IAE_NKPAXG@Z DD 0ffffffffH
	DD	00H
	DD	00H
	DD	FLAT:__unwindfunclet$?OnRequestLotteryStart@CDataBaseEngineSink@@IAE_NKPAXG@Z$2
	DD	0ffffffffH
	DD	00H
__ehfuncinfo$?OnRequestLotteryStart@CDataBaseEngineSink@@IAE_NKPAXG@Z DD 019930522H
	DD	03H
	DD	FLAT:__unwindtable$?OnRequestLotteryStart@CDataBaseEngineSink@@IAE_NKPAXG@Z
	DD	01H
	DD	FLAT:__tryblocktable$?OnRequestLotteryStart@CDataBaseEngineSink@@IAE_NKPAXG@Z
	DD	2 DUP(00H)
	DD	00H
	DD	01H
xdata$x	ENDS
;	COMDAT xdata$x
xdata$x	SEGMENT
__catchsym$?OnRequestLotteryConfigReq@CDataBaseEngineSink@@IAE_NKPAXG@Z$4 DD 00H
	DD	FLAT:??_R0PAUIDataBaseException@@@8
	DD	0fffffdf0H
	DD	FLAT:__catch$?OnRequestLotteryConfigReq@CDataBaseEngineSink@@IAE_NKPAXG@Z$0
__tryblocktable$?OnRequestLotteryConfigReq@CDataBaseEngineSink@@IAE_NKPAXG@Z DD 00H
	DD	01H
	DD	02H
	DD	01H
	DD	FLAT:__catchsym$?OnRequestLotteryConfigReq@CDataBaseEngineSink@@IAE_NKPAXG@Z$4
__unwindtable$?OnRequestLotteryConfigReq@CDataBaseEngineSink@@IAE_NKPAXG@Z DD 0ffffffffH
	DD	00H
	DD	00H
	DD	FLAT:__unwindfunclet$?OnRequestLotteryConfigReq@CDataBaseEngineSink@@IAE_NKPAXG@Z$2
	DD	0ffffffffH
	DD	00H
__ehfuncinfo$?OnRequestLotteryConfigReq@CDataBaseEngineSink@@IAE_NKPAXG@Z DD 019930522H
	DD	03H
	DD	FLAT:__unwindtable$?OnRequestLotteryConfigReq@CDataBaseEngineSink@@IAE_NKPAXG@Z
	DD	01H
	DD	FLAT:__tryblocktable$?OnRequestLotteryConfigReq@CDataBaseEngineSink@@IAE_NKPAXG@Z
	DD	2 DUP(00H)
	DD	00H
	DD	01H
xdata$x	ENDS
;	COMDAT xdata$x
xdata$x	SEGMENT
__catchsym$?OnRequestExchangeScoreByBeans@CDataBaseEngineSink@@IAE_NKPAXG@Z$4 DD 00H
	DD	FLAT:??_R0PAUIDataBaseException@@@8
	DD	0fffffe94H
	DD	FLAT:__catch$?OnRequestExchangeScoreByBeans@CDataBaseEngineSink@@IAE_NKPAXG@Z$0
__tryblocktable$?OnRequestExchangeScoreByBeans@CDataBaseEngineSink@@IAE_NKPAXG@Z DD 00H
	DD	01H
	DD	02H
	DD	01H
	DD	FLAT:__catchsym$?OnRequestExchangeScoreByBeans@CDataBaseEngineSink@@IAE_NKPAXG@Z$4
__unwindtable$?OnRequestExchangeScoreByBeans@CDataBaseEngineSink@@IAE_NKPAXG@Z DD 0ffffffffH
	DD	00H
	DD	00H
	DD	FLAT:__unwindfunclet$?OnRequestExchangeScoreByBeans@CDataBaseEngineSink@@IAE_NKPAXG@Z$2
	DD	0ffffffffH
	DD	00H
__ehfuncinfo$?OnRequestExchangeScoreByBeans@CDataBaseEngineSink@@IAE_NKPAXG@Z DD 019930522H
	DD	03H
	DD	FLAT:__unwindtable$?OnRequestExchangeScoreByBeans@CDataBaseEngineSink@@IAE_NKPAXG@Z
	DD	01H
	DD	FLAT:__tryblocktable$?OnRequestExchangeScoreByBeans@CDataBaseEngineSink@@IAE_NKPAXG@Z
	DD	2 DUP(00H)
	DD	00H
	DD	01H
xdata$x	ENDS
;	COMDAT xdata$x
xdata$x	SEGMENT
__catchsym$?OnRequestExchangeScoreByIngot@CDataBaseEngineSink@@IAE_NKPAXG@Z$4 DD 00H
	DD	FLAT:??_R0PAUIDataBaseException@@@8
	DD	0fffffe94H
	DD	FLAT:__catch$?OnRequestExchangeScoreByIngot@CDataBaseEngineSink@@IAE_NKPAXG@Z$0
__tryblocktable$?OnRequestExchangeScoreByIngot@CDataBaseEngineSink@@IAE_NKPAXG@Z DD 00H
	DD	01H
	DD	02H
	DD	01H
	DD	FLAT:__catchsym$?OnRequestExchangeScoreByIngot@CDataBaseEngineSink@@IAE_NKPAXG@Z$4
__unwindtable$?OnRequestExchangeScoreByIngot@CDataBaseEngineSink@@IAE_NKPAXG@Z DD 0ffffffffH
	DD	00H
	DD	00H
	DD	FLAT:__unwindfunclet$?OnRequestExchangeScoreByIngot@CDataBaseEngineSink@@IAE_NKPAXG@Z$2
	DD	0ffffffffH
	DD	00H
__ehfuncinfo$?OnRequestExchangeScoreByIngot@CDataBaseEngineSink@@IAE_NKPAXG@Z DD 019930522H
	DD	03H
	DD	FLAT:__unwindtable$?OnRequestExchangeScoreByIngot@CDataBaseEngineSink@@IAE_NKPAXG@Z
	DD	01H
	DD	FLAT:__tryblocktable$?OnRequestExchangeScoreByIngot@CDataBaseEngineSink@@IAE_NKPAXG@Z
	DD	2 DUP(00H)
	DD	00H
	DD	01H
xdata$x	ENDS
;	COMDAT xdata$x
xdata$x	SEGMENT
__catchsym$?OnRequestPurchaseMember@CDataBaseEngineSink@@IAE_NKPAXG@Z$4 DD 00H
	DD	FLAT:??_R0PAUIDataBaseException@@@8
	DD	0fffffe9cH
	DD	FLAT:__catch$?OnRequestPurchaseMember@CDataBaseEngineSink@@IAE_NKPAXG@Z$0
__tryblocktable$?OnRequestPurchaseMember@CDataBaseEngineSink@@IAE_NKPAXG@Z DD 00H
	DD	01H
	DD	02H
	DD	01H
	DD	FLAT:__catchsym$?OnRequestPurchaseMember@CDataBaseEngineSink@@IAE_NKPAXG@Z$4
__unwindtable$?OnRequestPurchaseMember@CDataBaseEngineSink@@IAE_NKPAXG@Z DD 0ffffffffH
	DD	00H
	DD	00H
	DD	FLAT:__unwindfunclet$?OnRequestPurchaseMember@CDataBaseEngineSink@@IAE_NKPAXG@Z$2
	DD	0ffffffffH
	DD	00H
__ehfuncinfo$?OnRequestPurchaseMember@CDataBaseEngineSink@@IAE_NKPAXG@Z DD 019930522H
	DD	03H
	DD	FLAT:__unwindtable$?OnRequestPurchaseMember@CDataBaseEngineSink@@IAE_NKPAXG@Z
	DD	01H
	DD	FLAT:__tryblocktable$?OnRequestPurchaseMember@CDataBaseEngineSink@@IAE_NKPAXG@Z
	DD	2 DUP(00H)
	DD	00H
	DD	01H
xdata$x	ENDS
;	COMDAT xdata$x
xdata$x	SEGMENT
__catchsym$?OnRequestMemberDayGift@CDataBaseEngineSink@@IAE_NKPAXG@Z$4 DD 00H
	DD	FLAT:??_R0PAUIDataBaseException@@@8
	DD	0fffffeb0H
	DD	FLAT:__catch$?OnRequestMemberDayGift@CDataBaseEngineSink@@IAE_NKPAXG@Z$0
__tryblocktable$?OnRequestMemberDayGift@CDataBaseEngineSink@@IAE_NKPAXG@Z DD 00H
	DD	01H
	DD	02H
	DD	01H
	DD	FLAT:__catchsym$?OnRequestMemberDayGift@CDataBaseEngineSink@@IAE_NKPAXG@Z$4
__unwindtable$?OnRequestMemberDayGift@CDataBaseEngineSink@@IAE_NKPAXG@Z DD 0ffffffffH
	DD	00H
	DD	00H
	DD	FLAT:__unwindfunclet$?OnRequestMemberDayGift@CDataBaseEngineSink@@IAE_NKPAXG@Z$2
	DD	0ffffffffH
	DD	00H
__ehfuncinfo$?OnRequestMemberDayGift@CDataBaseEngineSink@@IAE_NKPAXG@Z DD 019930522H
	DD	03H
	DD	FLAT:__unwindtable$?OnRequestMemberDayGift@CDataBaseEngineSink@@IAE_NKPAXG@Z
	DD	01H
	DD	FLAT:__tryblocktable$?OnRequestMemberDayGift@CDataBaseEngineSink@@IAE_NKPAXG@Z
	DD	2 DUP(00H)
	DD	00H
	DD	01H
xdata$x	ENDS
;	COMDAT xdata$x
xdata$x	SEGMENT
__catchsym$?OnRequestMemberDayPresent@CDataBaseEngineSink@@IAE_NKPAXG@Z$4 DD 00H
	DD	FLAT:??_R0PAUIDataBaseException@@@8
	DD	0fffffea4H
	DD	FLAT:__catch$?OnRequestMemberDayPresent@CDataBaseEngineSink@@IAE_NKPAXG@Z$0
__tryblocktable$?OnRequestMemberDayPresent@CDataBaseEngineSink@@IAE_NKPAXG@Z DD 00H
	DD	01H
	DD	02H
	DD	01H
	DD	FLAT:__catchsym$?OnRequestMemberDayPresent@CDataBaseEngineSink@@IAE_NKPAXG@Z$4
__unwindtable$?OnRequestMemberDayPresent@CDataBaseEngineSink@@IAE_NKPAXG@Z DD 0ffffffffH
	DD	00H
	DD	00H
	DD	FLAT:__unwindfunclet$?OnRequestMemberDayPresent@CDataBaseEngineSink@@IAE_NKPAXG@Z$2
	DD	0ffffffffH
	DD	00H
__ehfuncinfo$?OnRequestMemberDayPresent@CDataBaseEngineSink@@IAE_NKPAXG@Z DD 019930522H
	DD	03H
	DD	FLAT:__unwindtable$?OnRequestMemberDayPresent@CDataBaseEngineSink@@IAE_NKPAXG@Z
	DD	01H
	DD	FLAT:__tryblocktable$?OnRequestMemberDayPresent@CDataBaseEngineSink@@IAE_NKPAXG@Z
	DD	2 DUP(00H)
	DD	00H
	DD	01H
xdata$x	ENDS
;	COMDAT xdata$x
xdata$x	SEGMENT
__catchsym$?OnRequestMemberQueryInfo@CDataBaseEngineSink@@IAE_NKPAXG@Z$2 DD 00H
	DD	FLAT:??_R0PAUIDataBaseException@@@8
	DD	0fffffeecH
	DD	FLAT:__catch$?OnRequestMemberQueryInfo@CDataBaseEngineSink@@IAE_NKPAXG@Z$0
__unwindtable$?OnRequestMemberQueryInfo@CDataBaseEngineSink@@IAE_NKPAXG@Z DD 0ffffffffH
	DD	00H
	DD	0ffffffffH
	DD	00H
__tryblocktable$?OnRequestMemberQueryInfo@CDataBaseEngineSink@@IAE_NKPAXG@Z DD 00H
	DD	00H
	DD	01H
	DD	01H
	DD	FLAT:__catchsym$?OnRequestMemberQueryInfo@CDataBaseEngineSink@@IAE_NKPAXG@Z$2
__ehfuncinfo$?OnRequestMemberQueryInfo@CDataBaseEngineSink@@IAE_NKPAXG@Z DD 019930522H
	DD	02H
	DD	FLAT:__unwindtable$?OnRequestMemberQueryInfo@CDataBaseEngineSink@@IAE_NKPAXG@Z
	DD	01H
	DD	FLAT:__tryblocktable$?OnRequestMemberQueryInfo@CDataBaseEngineSink@@IAE_NKPAXG@Z
	DD	2 DUP(00H)
	DD	00H
	DD	01H
xdata$x	ENDS
;	COMDAT xdata$x
xdata$x	SEGMENT
__catchsym$?OnRequestMemberLoadParameter@CDataBaseEngineSink@@IAE_NKPAXG@Z$2 DD 00H
	DD	FLAT:??_R0PAUIDataBaseException@@@8
	DD	0fffff590H
	DD	FLAT:__catch$?OnRequestMemberLoadParameter@CDataBaseEngineSink@@IAE_NKPAXG@Z$0
__unwindtable$?OnRequestMemberLoadParameter@CDataBaseEngineSink@@IAE_NKPAXG@Z DD 0ffffffffH
	DD	00H
	DD	0ffffffffH
	DD	00H
__tryblocktable$?OnRequestMemberLoadParameter@CDataBaseEngineSink@@IAE_NKPAXG@Z DD 00H
	DD	00H
	DD	01H
	DD	01H
	DD	FLAT:__catchsym$?OnRequestMemberLoadParameter@CDataBaseEngineSink@@IAE_NKPAXG@Z$2
__ehfuncinfo$?OnRequestMemberLoadParameter@CDataBaseEngineSink@@IAE_NKPAXG@Z DD 019930522H
	DD	02H
	DD	FLAT:__unwindtable$?OnRequestMemberLoadParameter@CDataBaseEngineSink@@IAE_NKPAXG@Z
	DD	01H
	DD	FLAT:__tryblocktable$?OnRequestMemberLoadParameter@CDataBaseEngineSink@@IAE_NKPAXG@Z
	DD	2 DUP(00H)
	DD	00H
	DD	01H
xdata$x	ENDS
;	COMDAT xdata$x
xdata$x	SEGMENT
__catchsym$?OnRequestGetSendPresent@CDataBaseEngineSink@@IAE_NKPAXG@Z$2 DD 00H
	DD	FLAT:??_R0PAUIDataBaseException@@@8
	DD	0ffffec84H
	DD	FLAT:__catch$?OnRequestGetSendPresent@CDataBaseEngineSink@@IAE_NKPAXG@Z$0
__unwindtable$?OnRequestGetSendPresent@CDataBaseEngineSink@@IAE_NKPAXG@Z DD 0ffffffffH
	DD	00H
	DD	0ffffffffH
	DD	00H
__tryblocktable$?OnRequestGetSendPresent@CDataBaseEngineSink@@IAE_NKPAXG@Z DD 00H
	DD	00H
	DD	01H
	DD	01H
	DD	FLAT:__catchsym$?OnRequestGetSendPresent@CDataBaseEngineSink@@IAE_NKPAXG@Z$2
__ehfuncinfo$?OnRequestGetSendPresent@CDataBaseEngineSink@@IAE_NKPAXG@Z DD 019930522H
	DD	02H
	DD	FLAT:__unwindtable$?OnRequestGetSendPresent@CDataBaseEngineSink@@IAE_NKPAXG@Z
	DD	01H
	DD	FLAT:__tryblocktable$?OnRequestGetSendPresent@CDataBaseEngineSink@@IAE_NKPAXG@Z
	DD	2 DUP(00H)
	DD	00H
	DD	01H
xdata$x	ENDS
;	COMDAT xdata$x
xdata$x	SEGMENT
__catchsym$?OnRequestQuerySendPresent@CDataBaseEngineSink@@IAE_NKPAXG@Z$2 DD 00H
	DD	FLAT:??_R0PAUIDataBaseException@@@8
	DD	0ffffec84H
	DD	FLAT:__catch$?OnRequestQuerySendPresent@CDataBaseEngineSink@@IAE_NKPAXG@Z$0
__unwindtable$?OnRequestQuerySendPresent@CDataBaseEngineSink@@IAE_NKPAXG@Z DD 0ffffffffH
	DD	00H
	DD	0ffffffffH
	DD	00H
__tryblocktable$?OnRequestQuerySendPresent@CDataBaseEngineSink@@IAE_NKPAXG@Z DD 00H
	DD	00H
	DD	01H
	DD	01H
	DD	FLAT:__catchsym$?OnRequestQuerySendPresent@CDataBaseEngineSink@@IAE_NKPAXG@Z$2
__ehfuncinfo$?OnRequestQuerySendPresent@CDataBaseEngineSink@@IAE_NKPAXG@Z DD 019930522H
	DD	02H
	DD	FLAT:__unwindtable$?OnRequestQuerySendPresent@CDataBaseEngineSink@@IAE_NKPAXG@Z
	DD	01H
	DD	FLAT:__tryblocktable$?OnRequestQuerySendPresent@CDataBaseEngineSink@@IAE_NKPAXG@Z
	DD	2 DUP(00H)
	DD	00H
	DD	01H
xdata$x	ENDS
;	COMDAT xdata$x
xdata$x	SEGMENT
__catchsym$?OnRequestPropertyPresent@CDataBaseEngineSink@@IAE_NKPAXG@Z$4 DD 00H
	DD	FLAT:??_R0PAUIDataBaseException@@@8
	DD	0ffffff14H
	DD	FLAT:__catch$?OnRequestPropertyPresent@CDataBaseEngineSink@@IAE_NKPAXG@Z$0
__tryblocktable$?OnRequestPropertyPresent@CDataBaseEngineSink@@IAE_NKPAXG@Z DD 00H
	DD	01H
	DD	02H
	DD	01H
	DD	FLAT:__catchsym$?OnRequestPropertyPresent@CDataBaseEngineSink@@IAE_NKPAXG@Z$4
__unwindtable$?OnRequestPropertyPresent@CDataBaseEngineSink@@IAE_NKPAXG@Z DD 0ffffffffH
	DD	00H
	DD	00H
	DD	FLAT:__unwindfunclet$?OnRequestPropertyPresent@CDataBaseEngineSink@@IAE_NKPAXG@Z$2
	DD	0ffffffffH
	DD	00H
__ehfuncinfo$?OnRequestPropertyPresent@CDataBaseEngineSink@@IAE_NKPAXG@Z DD 019930522H
	DD	03H
	DD	FLAT:__unwindtable$?OnRequestPropertyPresent@CDataBaseEngineSink@@IAE_NKPAXG@Z
	DD	01H
	DD	FLAT:__tryblocktable$?OnRequestPropertyPresent@CDataBaseEngineSink@@IAE_NKPAXG@Z
	DD	2 DUP(00H)
	DD	00H
	DD	01H
xdata$x	ENDS
;	COMDAT xdata$x
xdata$x	SEGMENT
__catchsym$?OnRequestPropertyBuff@CDataBaseEngineSink@@IAE_NKPAXG@Z$2 DD 00H
	DD	FLAT:??_R0PAUIDataBaseException@@@8
	DD	0fffffe2cH
	DD	FLAT:__catch$?OnRequestPropertyBuff@CDataBaseEngineSink@@IAE_NKPAXG@Z$0
__unwindtable$?OnRequestPropertyBuff@CDataBaseEngineSink@@IAE_NKPAXG@Z DD 0ffffffffH
	DD	00H
	DD	0ffffffffH
	DD	00H
__tryblocktable$?OnRequestPropertyBuff@CDataBaseEngineSink@@IAE_NKPAXG@Z DD 00H
	DD	00H
	DD	01H
	DD	01H
	DD	FLAT:__catchsym$?OnRequestPropertyBuff@CDataBaseEngineSink@@IAE_NKPAXG@Z$2
__ehfuncinfo$?OnRequestPropertyBuff@CDataBaseEngineSink@@IAE_NKPAXG@Z DD 019930522H
	DD	02H
	DD	FLAT:__unwindtable$?OnRequestPropertyBuff@CDataBaseEngineSink@@IAE_NKPAXG@Z
	DD	01H
	DD	FLAT:__tryblocktable$?OnRequestPropertyBuff@CDataBaseEngineSink@@IAE_NKPAXG@Z
	DD	2 DUP(00H)
	DD	00H
	DD	01H
xdata$x	ENDS
;	COMDAT xdata$x
xdata$x	SEGMENT
__catchsym$?OnRequestUserBackpackProperty@CDataBaseEngineSink@@IAE_NKPAXG@Z$2 DD 00H
	DD	FLAT:??_R0PAUIDataBaseException@@@8
	DD	0ffffbe54H
	DD	FLAT:__catch$?OnRequestUserBackpackProperty@CDataBaseEngineSink@@IAE_NKPAXG@Z$0
__unwindtable$?OnRequestUserBackpackProperty@CDataBaseEngineSink@@IAE_NKPAXG@Z DD 0ffffffffH
	DD	00H
	DD	0ffffffffH
	DD	00H
__tryblocktable$?OnRequestUserBackpackProperty@CDataBaseEngineSink@@IAE_NKPAXG@Z DD 00H
	DD	00H
	DD	01H
	DD	01H
	DD	FLAT:__catchsym$?OnRequestUserBackpackProperty@CDataBaseEngineSink@@IAE_NKPAXG@Z$2
__ehfuncinfo$?OnRequestUserBackpackProperty@CDataBaseEngineSink@@IAE_NKPAXG@Z DD 019930522H
	DD	02H
	DD	FLAT:__unwindtable$?OnRequestUserBackpackProperty@CDataBaseEngineSink@@IAE_NKPAXG@Z
	DD	01H
	DD	FLAT:__tryblocktable$?OnRequestUserBackpackProperty@CDataBaseEngineSink@@IAE_NKPAXG@Z
	DD	2 DUP(00H)
	DD	00H
	DD	01H
xdata$x	ENDS
;	COMDAT xdata$x
xdata$x	SEGMENT
__catchsym$?OnRequestPropertyQuerySingle@CDataBaseEngineSink@@IAE_NKPAXG@Z$2 DD 00H
	DD	FLAT:??_R0PAUIDataBaseException@@@8
	DD	0ffffffc4H
	DD	FLAT:__catch$?OnRequestPropertyQuerySingle@CDataBaseEngineSink@@IAE_NKPAXG@Z$0
__unwindtable$?OnRequestPropertyQuerySingle@CDataBaseEngineSink@@IAE_NKPAXG@Z DD 0ffffffffH
	DD	00H
	DD	0ffffffffH
	DD	00H
__tryblocktable$?OnRequestPropertyQuerySingle@CDataBaseEngineSink@@IAE_NKPAXG@Z DD 00H
	DD	00H
	DD	01H
	DD	01H
	DD	FLAT:__catchsym$?OnRequestPropertyQuerySingle@CDataBaseEngineSink@@IAE_NKPAXG@Z$2
__ehfuncinfo$?OnRequestPropertyQuerySingle@CDataBaseEngineSink@@IAE_NKPAXG@Z DD 019930522H
	DD	02H
	DD	FLAT:__unwindtable$?OnRequestPropertyQuerySingle@CDataBaseEngineSink@@IAE_NKPAXG@Z
	DD	01H
	DD	FLAT:__tryblocktable$?OnRequestPropertyQuerySingle@CDataBaseEngineSink@@IAE_NKPAXG@Z
	DD	2 DUP(00H)
	DD	00H
	DD	01H
xdata$x	ENDS
;	COMDAT xdata$x
xdata$x	SEGMENT
__catchsym$?OnRequestUseProperty@CDataBaseEngineSink@@IAE_NKPAXG@Z$4 DD 00H
	DD	FLAT:??_R0PAUIDataBaseException@@@8
	DD	0fffffe1cH
	DD	FLAT:__catch$?OnRequestUseProperty@CDataBaseEngineSink@@IAE_NKPAXG@Z$0
__tryblocktable$?OnRequestUseProperty@CDataBaseEngineSink@@IAE_NKPAXG@Z DD 00H
	DD	01H
	DD	02H
	DD	01H
	DD	FLAT:__catchsym$?OnRequestUseProperty@CDataBaseEngineSink@@IAE_NKPAXG@Z$4
__unwindtable$?OnRequestUseProperty@CDataBaseEngineSink@@IAE_NKPAXG@Z DD 0ffffffffH
	DD	00H
	DD	00H
	DD	FLAT:__unwindfunclet$?OnRequestUseProperty@CDataBaseEngineSink@@IAE_NKPAXG@Z$2
	DD	0ffffffffH
	DD	00H
__ehfuncinfo$?OnRequestUseProperty@CDataBaseEngineSink@@IAE_NKPAXG@Z DD 019930522H
	DD	03H
	DD	FLAT:__unwindtable$?OnRequestUseProperty@CDataBaseEngineSink@@IAE_NKPAXG@Z
	DD	01H
	DD	FLAT:__tryblocktable$?OnRequestUseProperty@CDataBaseEngineSink@@IAE_NKPAXG@Z
	DD	2 DUP(00H)
	DD	00H
	DD	01H
xdata$x	ENDS
;	COMDAT xdata$x
xdata$x	SEGMENT
__catchsym$?OnRequestBuyGameProperty@CDataBaseEngineSink@@IAE_NKPAXG@Z$6 DD 00H
	DD	FLAT:??_R0PAUIDataBaseException@@@8
	DD	0fffffdc4H
	DD	FLAT:__catch$?OnRequestBuyGameProperty@CDataBaseEngineSink@@IAE_NKPAXG@Z$0
__tryblocktable$?OnRequestBuyGameProperty@CDataBaseEngineSink@@IAE_NKPAXG@Z DD 00H
	DD	02H
	DD	03H
	DD	01H
	DD	FLAT:__catchsym$?OnRequestBuyGameProperty@CDataBaseEngineSink@@IAE_NKPAXG@Z$6
__unwindtable$?OnRequestBuyGameProperty@CDataBaseEngineSink@@IAE_NKPAXG@Z DD 0ffffffffH
	DD	00H
	DD	00H
	DD	FLAT:__unwindfunclet$?OnRequestBuyGameProperty@CDataBaseEngineSink@@IAE_NKPAXG@Z$2
	DD	00H
	DD	FLAT:__unwindfunclet$?OnRequestBuyGameProperty@CDataBaseEngineSink@@IAE_NKPAXG@Z$4
	DD	0ffffffffH
	DD	00H
__ehfuncinfo$?OnRequestBuyGameProperty@CDataBaseEngineSink@@IAE_NKPAXG@Z DD 019930522H
	DD	04H
	DD	FLAT:__unwindtable$?OnRequestBuyGameProperty@CDataBaseEngineSink@@IAE_NKPAXG@Z
	DD	01H
	DD	FLAT:__tryblocktable$?OnRequestBuyGameProperty@CDataBaseEngineSink@@IAE_NKPAXG@Z
	DD	2 DUP(00H)
	DD	00H
	DD	01H
xdata$x	ENDS
;	COMDAT xdata$x
xdata$x	SEGMENT
__catchsym$?OnRequestLoadGamePropertyList@CDataBaseEngineSink@@IAE_NKPAXG@Z$2 DD 00H
	DD	FLAT:??_R0PAUIDataBaseException@@@8
	DD	0ffffbfccH
	DD	FLAT:__catch$?OnRequestLoadGamePropertyList@CDataBaseEngineSink@@IAE_NKPAXG@Z$0
__unwindtable$?OnRequestLoadGamePropertyList@CDataBaseEngineSink@@IAE_NKPAXG@Z DD 0ffffffffH
	DD	00H
	DD	0ffffffffH
	DD	00H
__tryblocktable$?OnRequestLoadGamePropertyList@CDataBaseEngineSink@@IAE_NKPAXG@Z DD 00H
	DD	00H
	DD	01H
	DD	01H
	DD	FLAT:__catchsym$?OnRequestLoadGamePropertyList@CDataBaseEngineSink@@IAE_NKPAXG@Z$2
__ehfuncinfo$?OnRequestLoadGamePropertyList@CDataBaseEngineSink@@IAE_NKPAXG@Z DD 019930522H
	DD	02H
	DD	FLAT:__unwindtable$?OnRequestLoadGamePropertyList@CDataBaseEngineSink@@IAE_NKPAXG@Z
	DD	01H
	DD	FLAT:__tryblocktable$?OnRequestLoadGamePropertyList@CDataBaseEngineSink@@IAE_NKPAXG@Z
	DD	2 DUP(00H)
	DD	00H
	DD	01H
xdata$x	ENDS
;	COMDAT xdata$x
xdata$x	SEGMENT
__catchsym$?OnRequestQueryGrowLevelParameter@CDataBaseEngineSink@@IAE_NKPAXG@Z$4 DD 00H
	DD	FLAT:??_R0PAUIDataBaseException@@@8
	DD	0fffffe84H
	DD	FLAT:__catch$?OnRequestQueryGrowLevelParameter@CDataBaseEngineSink@@IAE_NKPAXG@Z$0
__tryblocktable$?OnRequestQueryGrowLevelParameter@CDataBaseEngineSink@@IAE_NKPAXG@Z DD 00H
	DD	01H
	DD	02H
	DD	01H
	DD	FLAT:__catchsym$?OnRequestQueryGrowLevelParameter@CDataBaseEngineSink@@IAE_NKPAXG@Z$4
__unwindtable$?OnRequestQueryGrowLevelParameter@CDataBaseEngineSink@@IAE_NKPAXG@Z DD 0ffffffffH
	DD	00H
	DD	00H
	DD	FLAT:__unwindfunclet$?OnRequestQueryGrowLevelParameter@CDataBaseEngineSink@@IAE_NKPAXG@Z$2
	DD	0ffffffffH
	DD	00H
__ehfuncinfo$?OnRequestQueryGrowLevelParameter@CDataBaseEngineSink@@IAE_NKPAXG@Z DD 019930522H
	DD	03H
	DD	FLAT:__unwindtable$?OnRequestQueryGrowLevelParameter@CDataBaseEngineSink@@IAE_NKPAXG@Z
	DD	01H
	DD	FLAT:__tryblocktable$?OnRequestQueryGrowLevelParameter@CDataBaseEngineSink@@IAE_NKPAXG@Z
	DD	2 DUP(00H)
	DD	00H
	DD	01H
xdata$x	ENDS
;	COMDAT xdata$x
xdata$x	SEGMENT
__catchsym$?OnRequestLoadGrowLevelConfig@CDataBaseEngineSink@@IAE_NKPAXG@Z$2 DD 00H
	DD	FLAT:??_R0PAUIDataBaseException@@@8
	DD	0fffffe68H
	DD	FLAT:__catch$?OnRequestLoadGrowLevelConfig@CDataBaseEngineSink@@IAE_NKPAXG@Z$0
__unwindtable$?OnRequestLoadGrowLevelConfig@CDataBaseEngineSink@@IAE_NKPAXG@Z DD 0ffffffffH
	DD	00H
	DD	0ffffffffH
	DD	00H
__tryblocktable$?OnRequestLoadGrowLevelConfig@CDataBaseEngineSink@@IAE_NKPAXG@Z DD 00H
	DD	00H
	DD	01H
	DD	01H
	DD	FLAT:__catchsym$?OnRequestLoadGrowLevelConfig@CDataBaseEngineSink@@IAE_NKPAXG@Z$2
__ehfuncinfo$?OnRequestLoadGrowLevelConfig@CDataBaseEngineSink@@IAE_NKPAXG@Z DD 019930522H
	DD	02H
	DD	FLAT:__unwindtable$?OnRequestLoadGrowLevelConfig@CDataBaseEngineSink@@IAE_NKPAXG@Z
	DD	01H
	DD	FLAT:__tryblocktable$?OnRequestLoadGrowLevelConfig@CDataBaseEngineSink@@IAE_NKPAXG@Z
	DD	2 DUP(00H)
	DD	00H
	DD	01H
xdata$x	ENDS
;	COMDAT xdata$x
xdata$x	SEGMENT
__catchsym$?OnRequestLoadRealAuth@CDataBaseEngineSink@@IAE_NKPAXG@Z$2 DD 00H
	DD	FLAT:??_R0PAUIDataBaseException@@@8
	DD	0ffffffd0H
	DD	FLAT:__catch$?OnRequestLoadRealAuth@CDataBaseEngineSink@@IAE_NKPAXG@Z$0
__unwindtable$?OnRequestLoadRealAuth@CDataBaseEngineSink@@IAE_NKPAXG@Z DD 0ffffffffH
	DD	00H
	DD	0ffffffffH
	DD	00H
__tryblocktable$?OnRequestLoadRealAuth@CDataBaseEngineSink@@IAE_NKPAXG@Z DD 00H
	DD	00H
	DD	01H
	DD	01H
	DD	FLAT:__catchsym$?OnRequestLoadRealAuth@CDataBaseEngineSink@@IAE_NKPAXG@Z$2
__ehfuncinfo$?OnRequestLoadRealAuth@CDataBaseEngineSink@@IAE_NKPAXG@Z DD 019930522H
	DD	02H
	DD	FLAT:__unwindtable$?OnRequestLoadRealAuth@CDataBaseEngineSink@@IAE_NKPAXG@Z
	DD	01H
	DD	FLAT:__tryblocktable$?OnRequestLoadRealAuth@CDataBaseEngineSink@@IAE_NKPAXG@Z
	DD	2 DUP(00H)
	DD	00H
	DD	01H
xdata$x	ENDS
;	COMDAT xdata$x
xdata$x	SEGMENT
__catchsym$?OnRequestQuerySpreadInfo@CDataBaseEngineSink@@IAE_NKPAXG@Z$2 DD 00H
	DD	FLAT:??_R0PAUIDataBaseException@@@8
	DD	0ffffffccH
	DD	FLAT:__catch$?OnRequestQuerySpreadInfo@CDataBaseEngineSink@@IAE_NKPAXG@Z$0
__unwindtable$?OnRequestQuerySpreadInfo@CDataBaseEngineSink@@IAE_NKPAXG@Z DD 0ffffffffH
	DD	00H
	DD	0ffffffffH
	DD	00H
__tryblocktable$?OnRequestQuerySpreadInfo@CDataBaseEngineSink@@IAE_NKPAXG@Z DD 00H
	DD	00H
	DD	01H
	DD	01H
	DD	FLAT:__catchsym$?OnRequestQuerySpreadInfo@CDataBaseEngineSink@@IAE_NKPAXG@Z$2
__ehfuncinfo$?OnRequestQuerySpreadInfo@CDataBaseEngineSink@@IAE_NKPAXG@Z DD 019930522H
	DD	02H
	DD	FLAT:__unwindtable$?OnRequestQuerySpreadInfo@CDataBaseEngineSink@@IAE_NKPAXG@Z
	DD	01H
	DD	FLAT:__tryblocktable$?OnRequestQuerySpreadInfo@CDataBaseEngineSink@@IAE_NKPAXG@Z
	DD	2 DUP(00H)
	DD	00H
	DD	01H
xdata$x	ENDS
;	COMDAT xdata$x
xdata$x	SEGMENT
__catchsym$?OnRequestTakeBaseEnsure@CDataBaseEngineSink@@IAE_NKPAXG@Z$4 DD 00H
	DD	FLAT:??_R0PAUIDataBaseException@@@8
	DD	0fffffea4H
	DD	FLAT:__catch$?OnRequestTakeBaseEnsure@CDataBaseEngineSink@@IAE_NKPAXG@Z$0
__tryblocktable$?OnRequestTakeBaseEnsure@CDataBaseEngineSink@@IAE_NKPAXG@Z DD 00H
	DD	01H
	DD	02H
	DD	01H
	DD	FLAT:__catchsym$?OnRequestTakeBaseEnsure@CDataBaseEngineSink@@IAE_NKPAXG@Z$4
__unwindtable$?OnRequestTakeBaseEnsure@CDataBaseEngineSink@@IAE_NKPAXG@Z DD 0ffffffffH
	DD	00H
	DD	00H
	DD	FLAT:__unwindfunclet$?OnRequestTakeBaseEnsure@CDataBaseEngineSink@@IAE_NKPAXG@Z$2
	DD	0ffffffffH
	DD	00H
__ehfuncinfo$?OnRequestTakeBaseEnsure@CDataBaseEngineSink@@IAE_NKPAXG@Z DD 019930522H
	DD	03H
	DD	FLAT:__unwindtable$?OnRequestTakeBaseEnsure@CDataBaseEngineSink@@IAE_NKPAXG@Z
	DD	01H
	DD	FLAT:__tryblocktable$?OnRequestTakeBaseEnsure@CDataBaseEngineSink@@IAE_NKPAXG@Z
	DD	2 DUP(00H)
	DD	00H
	DD	01H
xdata$x	ENDS
;	COMDAT xdata$x
xdata$x	SEGMENT
__catchsym$?OnRequestLoadBaseEnsure@CDataBaseEngineSink@@IAE_NKPAXG@Z$2 DD 00H
	DD	FLAT:??_R0PAUIDataBaseException@@@8
	DD	0ffffffc8H
	DD	FLAT:__catch$?OnRequestLoadBaseEnsure@CDataBaseEngineSink@@IAE_NKPAXG@Z$0
__unwindtable$?OnRequestLoadBaseEnsure@CDataBaseEngineSink@@IAE_NKPAXG@Z DD 0ffffffffH
	DD	00H
	DD	0ffffffffH
	DD	00H
__tryblocktable$?OnRequestLoadBaseEnsure@CDataBaseEngineSink@@IAE_NKPAXG@Z DD 00H
	DD	00H
	DD	01H
	DD	01H
	DD	FLAT:__catchsym$?OnRequestLoadBaseEnsure@CDataBaseEngineSink@@IAE_NKPAXG@Z$2
__ehfuncinfo$?OnRequestLoadBaseEnsure@CDataBaseEngineSink@@IAE_NKPAXG@Z DD 019930522H
	DD	02H
	DD	FLAT:__unwindtable$?OnRequestLoadBaseEnsure@CDataBaseEngineSink@@IAE_NKPAXG@Z
	DD	01H
	DD	FLAT:__tryblocktable$?OnRequestLoadBaseEnsure@CDataBaseEngineSink@@IAE_NKPAXG@Z
	DD	2 DUP(00H)
	DD	00H
	DD	01H
xdata$x	ENDS
;	COMDAT xdata$x
xdata$x	SEGMENT
__catchsym$?OnRequestTaskQueryInfo@CDataBaseEngineSink@@IAE_NKPAXG@Z$4 DD 00H
	DD	FLAT:??_R0PAUIDataBaseException@@@8
	DD	0fffffc24H
	DD	FLAT:__catch$?OnRequestTaskQueryInfo@CDataBaseEngineSink@@IAE_NKPAXG@Z$0
__tryblocktable$?OnRequestTaskQueryInfo@CDataBaseEngineSink@@IAE_NKPAXG@Z DD 00H
	DD	01H
	DD	02H
	DD	01H
	DD	FLAT:__catchsym$?OnRequestTaskQueryInfo@CDataBaseEngineSink@@IAE_NKPAXG@Z$4
__unwindtable$?OnRequestTaskQueryInfo@CDataBaseEngineSink@@IAE_NKPAXG@Z DD 0ffffffffH
	DD	00H
	DD	00H
	DD	FLAT:__unwindfunclet$?OnRequestTaskQueryInfo@CDataBaseEngineSink@@IAE_NKPAXG@Z$2
	DD	0ffffffffH
	DD	00H
__ehfuncinfo$?OnRequestTaskQueryInfo@CDataBaseEngineSink@@IAE_NKPAXG@Z DD 019930522H
	DD	03H
	DD	FLAT:__unwindtable$?OnRequestTaskQueryInfo@CDataBaseEngineSink@@IAE_NKPAXG@Z
	DD	01H
	DD	FLAT:__tryblocktable$?OnRequestTaskQueryInfo@CDataBaseEngineSink@@IAE_NKPAXG@Z
	DD	2 DUP(00H)
	DD	00H
	DD	01H
xdata$x	ENDS
;	COMDAT xdata$x
xdata$x	SEGMENT
__catchsym$?OnRequestTaskReward@CDataBaseEngineSink@@IAE_NKPAXG@Z$4 DD 00H
	DD	FLAT:??_R0PAUIDataBaseException@@@8
	DD	0fffffe9cH
	DD	FLAT:__catch$?OnRequestTaskReward@CDataBaseEngineSink@@IAE_NKPAXG@Z$0
__tryblocktable$?OnRequestTaskReward@CDataBaseEngineSink@@IAE_NKPAXG@Z DD 00H
	DD	01H
	DD	02H
	DD	01H
	DD	FLAT:__catchsym$?OnRequestTaskReward@CDataBaseEngineSink@@IAE_NKPAXG@Z$4
__unwindtable$?OnRequestTaskReward@CDataBaseEngineSink@@IAE_NKPAXG@Z DD 0ffffffffH
	DD	00H
	DD	00H
	DD	FLAT:__unwindfunclet$?OnRequestTaskReward@CDataBaseEngineSink@@IAE_NKPAXG@Z$2
	DD	0ffffffffH
	DD	00H
__ehfuncinfo$?OnRequestTaskReward@CDataBaseEngineSink@@IAE_NKPAXG@Z DD 019930522H
	DD	03H
	DD	FLAT:__unwindtable$?OnRequestTaskReward@CDataBaseEngineSink@@IAE_NKPAXG@Z
	DD	01H
	DD	FLAT:__tryblocktable$?OnRequestTaskReward@CDataBaseEngineSink@@IAE_NKPAXG@Z
	DD	2 DUP(00H)
	DD	00H
	DD	01H
xdata$x	ENDS
;	COMDAT xdata$x
xdata$x	SEGMENT
__catchsym$?OnRequestTaskTake@CDataBaseEngineSink@@IAE_NKPAXG@Z$4 DD 00H
	DD	FLAT:??_R0PAUIDataBaseException@@@8
	DD	0fffffe9cH
	DD	FLAT:__catch$?OnRequestTaskTake@CDataBaseEngineSink@@IAE_NKPAXG@Z$0
__tryblocktable$?OnRequestTaskTake@CDataBaseEngineSink@@IAE_NKPAXG@Z DD 00H
	DD	01H
	DD	02H
	DD	01H
	DD	FLAT:__catchsym$?OnRequestTaskTake@CDataBaseEngineSink@@IAE_NKPAXG@Z$4
__unwindtable$?OnRequestTaskTake@CDataBaseEngineSink@@IAE_NKPAXG@Z DD 0ffffffffH
	DD	00H
	DD	00H
	DD	FLAT:__unwindfunclet$?OnRequestTaskTake@CDataBaseEngineSink@@IAE_NKPAXG@Z$2
	DD	0ffffffffH
	DD	00H
__ehfuncinfo$?OnRequestTaskTake@CDataBaseEngineSink@@IAE_NKPAXG@Z DD 019930522H
	DD	03H
	DD	FLAT:__unwindtable$?OnRequestTaskTake@CDataBaseEngineSink@@IAE_NKPAXG@Z
	DD	01H
	DD	FLAT:__tryblocktable$?OnRequestTaskTake@CDataBaseEngineSink@@IAE_NKPAXG@Z
	DD	2 DUP(00H)
	DD	00H
	DD	01H
xdata$x	ENDS
;	COMDAT xdata$x
xdata$x	SEGMENT
__catchsym$?OnRequestTaskGiveUp@CDataBaseEngineSink@@IAE_NKPAXG@Z$4 DD 00H
	DD	FLAT:??_R0PAUIDataBaseException@@@8
	DD	0fffffe9cH
	DD	FLAT:__catch$?OnRequestTaskGiveUp@CDataBaseEngineSink@@IAE_NKPAXG@Z$0
__tryblocktable$?OnRequestTaskGiveUp@CDataBaseEngineSink@@IAE_NKPAXG@Z DD 00H
	DD	01H
	DD	02H
	DD	01H
	DD	FLAT:__catchsym$?OnRequestTaskGiveUp@CDataBaseEngineSink@@IAE_NKPAXG@Z$4
__unwindtable$?OnRequestTaskGiveUp@CDataBaseEngineSink@@IAE_NKPAXG@Z DD 0ffffffffH
	DD	00H
	DD	00H
	DD	FLAT:__unwindfunclet$?OnRequestTaskGiveUp@CDataBaseEngineSink@@IAE_NKPAXG@Z$2
	DD	0ffffffffH
	DD	00H
__ehfuncinfo$?OnRequestTaskGiveUp@CDataBaseEngineSink@@IAE_NKPAXG@Z DD 019930522H
	DD	03H
	DD	FLAT:__unwindtable$?OnRequestTaskGiveUp@CDataBaseEngineSink@@IAE_NKPAXG@Z
	DD	01H
	DD	FLAT:__tryblocktable$?OnRequestTaskGiveUp@CDataBaseEngineSink@@IAE_NKPAXG@Z
	DD	2 DUP(00H)
	DD	00H
	DD	01H
xdata$x	ENDS
;	COMDAT xdata$x
xdata$x	SEGMENT
__catchsym$?OnRequestLoadTaskList@CDataBaseEngineSink@@IAE_NKPAXG@Z$2 DD 00H
	DD	FLAT:??_R0PAUIDataBaseException@@@8
	DD	0ffffc228H
	DD	FLAT:__catch$?OnRequestLoadTaskList@CDataBaseEngineSink@@IAE_NKPAXG@Z$0
__unwindtable$?OnRequestLoadTaskList@CDataBaseEngineSink@@IAE_NKPAXG@Z DD 0ffffffffH
	DD	00H
	DD	0ffffffffH
	DD	00H
__tryblocktable$?OnRequestLoadTaskList@CDataBaseEngineSink@@IAE_NKPAXG@Z DD 00H
	DD	00H
	DD	01H
	DD	01H
	DD	FLAT:__catchsym$?OnRequestLoadTaskList@CDataBaseEngineSink@@IAE_NKPAXG@Z$2
__ehfuncinfo$?OnRequestLoadTaskList@CDataBaseEngineSink@@IAE_NKPAXG@Z DD 019930522H
	DD	02H
	DD	FLAT:__unwindtable$?OnRequestLoadTaskList@CDataBaseEngineSink@@IAE_NKPAXG@Z
	DD	01H
	DD	FLAT:__tryblocktable$?OnRequestLoadTaskList@CDataBaseEngineSink@@IAE_NKPAXG@Z
	DD	2 DUP(00H)
	DD	00H
	DD	01H
xdata$x	ENDS
;	COMDAT xdata$x
xdata$x	SEGMENT
__catchsym$?OnRequestCheckInDone@CDataBaseEngineSink@@IAE_NKPAXG@Z$4 DD 00H
	DD	FLAT:??_R0PAUIDataBaseException@@@8
	DD	0fffffea4H
	DD	FLAT:__catch$?OnRequestCheckInDone@CDataBaseEngineSink@@IAE_NKPAXG@Z$0
__tryblocktable$?OnRequestCheckInDone@CDataBaseEngineSink@@IAE_NKPAXG@Z DD 00H
	DD	01H
	DD	02H
	DD	01H
	DD	FLAT:__catchsym$?OnRequestCheckInDone@CDataBaseEngineSink@@IAE_NKPAXG@Z$4
__unwindtable$?OnRequestCheckInDone@CDataBaseEngineSink@@IAE_NKPAXG@Z DD 0ffffffffH
	DD	00H
	DD	00H
	DD	FLAT:__unwindfunclet$?OnRequestCheckInDone@CDataBaseEngineSink@@IAE_NKPAXG@Z$2
	DD	0ffffffffH
	DD	00H
__ehfuncinfo$?OnRequestCheckInDone@CDataBaseEngineSink@@IAE_NKPAXG@Z DD 019930522H
	DD	03H
	DD	FLAT:__unwindtable$?OnRequestCheckInDone@CDataBaseEngineSink@@IAE_NKPAXG@Z
	DD	01H
	DD	FLAT:__tryblocktable$?OnRequestCheckInDone@CDataBaseEngineSink@@IAE_NKPAXG@Z
	DD	2 DUP(00H)
	DD	00H
	DD	01H
xdata$x	ENDS
;	COMDAT xdata$x
xdata$x	SEGMENT
__catchsym$?OnRequestCheckInQueryInfo@CDataBaseEngineSink@@IAE_NKPAXG@Z$4 DD 00H
	DD	FLAT:??_R0PAUIDataBaseException@@@8
	DD	0fffffeb8H
	DD	FLAT:__catch$?OnRequestCheckInQueryInfo@CDataBaseEngineSink@@IAE_NKPAXG@Z$0
__tryblocktable$?OnRequestCheckInQueryInfo@CDataBaseEngineSink@@IAE_NKPAXG@Z DD 00H
	DD	01H
	DD	02H
	DD	01H
	DD	FLAT:__catchsym$?OnRequestCheckInQueryInfo@CDataBaseEngineSink@@IAE_NKPAXG@Z$4
__unwindtable$?OnRequestCheckInQueryInfo@CDataBaseEngineSink@@IAE_NKPAXG@Z DD 0ffffffffH
	DD	00H
	DD	00H
	DD	FLAT:__unwindfunclet$?OnRequestCheckInQueryInfo@CDataBaseEngineSink@@IAE_NKPAXG@Z$2
	DD	0ffffffffH
	DD	00H
__ehfuncinfo$?OnRequestCheckInQueryInfo@CDataBaseEngineSink@@IAE_NKPAXG@Z DD 019930522H
	DD	03H
	DD	FLAT:__unwindtable$?OnRequestCheckInQueryInfo@CDataBaseEngineSink@@IAE_NKPAXG@Z
	DD	01H
	DD	FLAT:__tryblocktable$?OnRequestCheckInQueryInfo@CDataBaseEngineSink@@IAE_NKPAXG@Z
	DD	2 DUP(00H)
	DD	00H
	DD	01H
xdata$x	ENDS
;	COMDAT xdata$x
xdata$x	SEGMENT
__catchsym$?OnRequestCheckInReward@CDataBaseEngineSink@@IAE_NKPAXG@Z$2 DD 00H
	DD	FLAT:??_R0PAUIDataBaseException@@@8
	DD	0ffffffa4H
	DD	FLAT:__catch$?OnRequestCheckInReward@CDataBaseEngineSink@@IAE_NKPAXG@Z$0
__unwindtable$?OnRequestCheckInReward@CDataBaseEngineSink@@IAE_NKPAXG@Z DD 0ffffffffH
	DD	00H
	DD	0ffffffffH
	DD	00H
__tryblocktable$?OnRequestCheckInReward@CDataBaseEngineSink@@IAE_NKPAXG@Z DD 00H
	DD	00H
	DD	01H
	DD	01H
	DD	FLAT:__catchsym$?OnRequestCheckInReward@CDataBaseEngineSink@@IAE_NKPAXG@Z$2
__ehfuncinfo$?OnRequestCheckInReward@CDataBaseEngineSink@@IAE_NKPAXG@Z DD 019930522H
	DD	02H
	DD	FLAT:__unwindtable$?OnRequestCheckInReward@CDataBaseEngineSink@@IAE_NKPAXG@Z
	DD	01H
	DD	FLAT:__tryblocktable$?OnRequestCheckInReward@CDataBaseEngineSink@@IAE_NKPAXG@Z
	DD	2 DUP(00H)
	DD	00H
	DD	01H
xdata$x	ENDS
;	COMDAT xdata$x
xdata$x	SEGMENT
__catchsym$?OnRequestQueryTransferRebate@CDataBaseEngineSink@@IAE_NKPAXG@Z$2 DD 00H
	DD	FLAT:??_R0PAUIDataBaseException@@@8
	DD	0ffffffc8H
	DD	FLAT:__catch$?OnRequestQueryTransferRebate@CDataBaseEngineSink@@IAE_NKPAXG@Z$0
__unwindtable$?OnRequestQueryTransferRebate@CDataBaseEngineSink@@IAE_NKPAXG@Z DD 0ffffffffH
	DD	00H
	DD	0ffffffffH
	DD	00H
__tryblocktable$?OnRequestQueryTransferRebate@CDataBaseEngineSink@@IAE_NKPAXG@Z DD 00H
	DD	00H
	DD	01H
	DD	01H
	DD	FLAT:__catchsym$?OnRequestQueryTransferRebate@CDataBaseEngineSink@@IAE_NKPAXG@Z$2
__ehfuncinfo$?OnRequestQueryTransferRebate@CDataBaseEngineSink@@IAE_NKPAXG@Z DD 019930522H
	DD	02H
	DD	FLAT:__unwindtable$?OnRequestQueryTransferRebate@CDataBaseEngineSink@@IAE_NKPAXG@Z
	DD	01H
	DD	FLAT:__tryblocktable$?OnRequestQueryTransferRebate@CDataBaseEngineSink@@IAE_NKPAXG@Z
	DD	2 DUP(00H)
	DD	00H
	DD	01H
xdata$x	ENDS
;	COMDAT xdata$x
xdata$x	SEGMENT
__catchsym$?OnRequestQueryTransferUserInfo@CDataBaseEngineSink@@IAE_NKPAXG@Z$4 DD 00H
	DD	FLAT:??_R0PAUIDataBaseException@@@8
	DD	0ffffff2cH
	DD	FLAT:__catch$?OnRequestQueryTransferUserInfo@CDataBaseEngineSink@@IAE_NKPAXG@Z$0
__tryblocktable$?OnRequestQueryTransferUserInfo@CDataBaseEngineSink@@IAE_NKPAXG@Z DD 00H
	DD	02H
	DD	03H
	DD	01H
	DD	FLAT:__catchsym$?OnRequestQueryTransferUserInfo@CDataBaseEngineSink@@IAE_NKPAXG@Z$4
__unwindtable$?OnRequestQueryTransferUserInfo@CDataBaseEngineSink@@IAE_NKPAXG@Z DD 0ffffffffH
	DD	00H
	DD	00H
	DD	FLAT:__unwindfunclet$?OnRequestQueryTransferUserInfo@CDataBaseEngineSink@@IAE_NKPAXG@Z$2
	DD	01H
	DD	FLAT:__unwindfunclet$?OnRequestQueryTransferUserInfo@CDataBaseEngineSink@@IAE_NKPAXG@Z$3
	DD	0ffffffffH
	DD	00H
__ehfuncinfo$?OnRequestQueryTransferUserInfo@CDataBaseEngineSink@@IAE_NKPAXG@Z DD 019930522H
	DD	04H
	DD	FLAT:__unwindtable$?OnRequestQueryTransferUserInfo@CDataBaseEngineSink@@IAE_NKPAXG@Z
	DD	01H
	DD	FLAT:__tryblocktable$?OnRequestQueryTransferUserInfo@CDataBaseEngineSink@@IAE_NKPAXG@Z
	DD	2 DUP(00H)
	DD	00H
	DD	01H
xdata$x	ENDS
;	COMDAT xdata$x
xdata$x	SEGMENT
__catchsym$?OnRequestQueryInsureInfo@CDataBaseEngineSink@@IAE_NKPAXG@Z$4 DD 00H
	DD	FLAT:??_R0PAUIDataBaseException@@@8
	DD	0ffffff0cH
	DD	FLAT:__catch$?OnRequestQueryInsureInfo@CDataBaseEngineSink@@IAE_NKPAXG@Z$0
__tryblocktable$?OnRequestQueryInsureInfo@CDataBaseEngineSink@@IAE_NKPAXG@Z DD 00H
	DD	02H
	DD	03H
	DD	01H
	DD	FLAT:__catchsym$?OnRequestQueryInsureInfo@CDataBaseEngineSink@@IAE_NKPAXG@Z$4
__unwindtable$?OnRequestQueryInsureInfo@CDataBaseEngineSink@@IAE_NKPAXG@Z DD 0ffffffffH
	DD	00H
	DD	00H
	DD	FLAT:__unwindfunclet$?OnRequestQueryInsureInfo@CDataBaseEngineSink@@IAE_NKPAXG@Z$2
	DD	01H
	DD	FLAT:__unwindfunclet$?OnRequestQueryInsureInfo@CDataBaseEngineSink@@IAE_NKPAXG@Z$3
	DD	0ffffffffH
	DD	00H
__ehfuncinfo$?OnRequestQueryInsureInfo@CDataBaseEngineSink@@IAE_NKPAXG@Z DD 019930522H
	DD	04H
	DD	FLAT:__unwindtable$?OnRequestQueryInsureInfo@CDataBaseEngineSink@@IAE_NKPAXG@Z
	DD	01H
	DD	FLAT:__tryblocktable$?OnRequestQueryInsureInfo@CDataBaseEngineSink@@IAE_NKPAXG@Z
	DD	2 DUP(00H)
	DD	00H
	DD	01H
xdata$x	ENDS
;	COMDAT xdata$x
xdata$x	SEGMENT
__catchsym$?OnRequestQueryIndividual@CDataBaseEngineSink@@IAE_NKPAXG@Z$4 DD 00H
	DD	FLAT:??_R0PAUIDataBaseException@@@8
	DD	0fffffd14H
	DD	FLAT:__catch$?OnRequestQueryIndividual@CDataBaseEngineSink@@IAE_NKPAXG@Z$0
__tryblocktable$?OnRequestQueryIndividual@CDataBaseEngineSink@@IAE_NKPAXG@Z DD 00H
	DD	02H
	DD	03H
	DD	01H
	DD	FLAT:__catchsym$?OnRequestQueryIndividual@CDataBaseEngineSink@@IAE_NKPAXG@Z$4
__unwindtable$?OnRequestQueryIndividual@CDataBaseEngineSink@@IAE_NKPAXG@Z DD 0ffffffffH
	DD	00H
	DD	00H
	DD	FLAT:__unwindfunclet$?OnRequestQueryIndividual@CDataBaseEngineSink@@IAE_NKPAXG@Z$2
	DD	01H
	DD	FLAT:__unwindfunclet$?OnRequestQueryIndividual@CDataBaseEngineSink@@IAE_NKPAXG@Z$3
	DD	0ffffffffH
	DD	00H
__ehfuncinfo$?OnRequestQueryIndividual@CDataBaseEngineSink@@IAE_NKPAXG@Z DD 019930522H
	DD	04H
	DD	FLAT:__unwindtable$?OnRequestQueryIndividual@CDataBaseEngineSink@@IAE_NKPAXG@Z
	DD	01H
	DD	FLAT:__tryblocktable$?OnRequestQueryIndividual@CDataBaseEngineSink@@IAE_NKPAXG@Z
	DD	2 DUP(00H)
	DD	00H
	DD	01H
xdata$x	ENDS
;	COMDAT xdata$x
xdata$x	SEGMENT
__catchsym$?OnRequestDeleteParameter@CDataBaseEngineSink@@IAE_NKPAXG@Z$2 DD 00H
	DD	FLAT:??_R0PAUIDataBaseException@@@8
	DD	0ffffffdcH
	DD	FLAT:__catch$?OnRequestDeleteParameter@CDataBaseEngineSink@@IAE_NKPAXG@Z$0
__unwindtable$?OnRequestDeleteParameter@CDataBaseEngineSink@@IAE_NKPAXG@Z DD 0ffffffffH
	DD	00H
	DD	0ffffffffH
	DD	00H
__tryblocktable$?OnRequestDeleteParameter@CDataBaseEngineSink@@IAE_NKPAXG@Z DD 00H
	DD	00H
	DD	01H
	DD	01H
	DD	FLAT:__catchsym$?OnRequestDeleteParameter@CDataBaseEngineSink@@IAE_NKPAXG@Z$2
__ehfuncinfo$?OnRequestDeleteParameter@CDataBaseEngineSink@@IAE_NKPAXG@Z DD 019930522H
	DD	02H
	DD	FLAT:__unwindtable$?OnRequestDeleteParameter@CDataBaseEngineSink@@IAE_NKPAXG@Z
	DD	01H
	DD	FLAT:__tryblocktable$?OnRequestDeleteParameter@CDataBaseEngineSink@@IAE_NKPAXG@Z
	DD	2 DUP(00H)
	DD	00H
	DD	01H
xdata$x	ENDS
;	COMDAT xdata$x
xdata$x	SEGMENT
__catchsym$?OnRequestModifyParameter@CDataBaseEngineSink@@IAE_NKPAXG@Z$2 DD 00H
	DD	FLAT:??_R0PAUIDataBaseException@@@8
	DD	0ffffffdcH
	DD	FLAT:__catch$?OnRequestModifyParameter@CDataBaseEngineSink@@IAE_NKPAXG@Z$0
__unwindtable$?OnRequestModifyParameter@CDataBaseEngineSink@@IAE_NKPAXG@Z DD 0ffffffffH
	DD	00H
	DD	0ffffffffH
	DD	00H
__tryblocktable$?OnRequestModifyParameter@CDataBaseEngineSink@@IAE_NKPAXG@Z DD 00H
	DD	00H
	DD	01H
	DD	01H
	DD	FLAT:__catchsym$?OnRequestModifyParameter@CDataBaseEngineSink@@IAE_NKPAXG@Z$2
__ehfuncinfo$?OnRequestModifyParameter@CDataBaseEngineSink@@IAE_NKPAXG@Z DD 019930522H
	DD	02H
	DD	FLAT:__unwindtable$?OnRequestModifyParameter@CDataBaseEngineSink@@IAE_NKPAXG@Z
	DD	01H
	DD	FLAT:__tryblocktable$?OnRequestModifyParameter@CDataBaseEngineSink@@IAE_NKPAXG@Z
	DD	2 DUP(00H)
	DD	00H
	DD	01H
xdata$x	ENDS
;	COMDAT xdata$x
xdata$x	SEGMENT
__catchsym$?OnRequestAddParameter@CDataBaseEngineSink@@IAE_NKPAXG@Z$2 DD 00H
	DD	FLAT:??_R0PAUIDataBaseException@@@8
	DD	0ffffffdcH
	DD	FLAT:__catch$?OnRequestAddParameter@CDataBaseEngineSink@@IAE_NKPAXG@Z$0
__unwindtable$?OnRequestAddParameter@CDataBaseEngineSink@@IAE_NKPAXG@Z DD 0ffffffffH
	DD	00H
	DD	0ffffffffH
	DD	00H
__tryblocktable$?OnRequestAddParameter@CDataBaseEngineSink@@IAE_NKPAXG@Z DD 00H
	DD	00H
	DD	01H
	DD	01H
	DD	FLAT:__catchsym$?OnRequestAddParameter@CDataBaseEngineSink@@IAE_NKPAXG@Z$2
__ehfuncinfo$?OnRequestAddParameter@CDataBaseEngineSink@@IAE_NKPAXG@Z DD 019930522H
	DD	02H
	DD	FLAT:__unwindtable$?OnRequestAddParameter@CDataBaseEngineSink@@IAE_NKPAXG@Z
	DD	01H
	DD	FLAT:__tryblocktable$?OnRequestAddParameter@CDataBaseEngineSink@@IAE_NKPAXG@Z
	DD	2 DUP(00H)
	DD	00H
	DD	01H
xdata$x	ENDS
;	COMDAT xdata$x
xdata$x	SEGMENT
__catchsym$?OnRequestGetParameter@CDataBaseEngineSink@@IAE_NKPAXG@Z$2 DD 00H
	DD	FLAT:??_R0PAUIDataBaseException@@@8
	DD	0ffffffdcH
	DD	FLAT:__catch$?OnRequestGetParameter@CDataBaseEngineSink@@IAE_NKPAXG@Z$0
__unwindtable$?OnRequestGetParameter@CDataBaseEngineSink@@IAE_NKPAXG@Z DD 0ffffffffH
	DD	00H
	DD	0ffffffffH
	DD	00H
__tryblocktable$?OnRequestGetParameter@CDataBaseEngineSink@@IAE_NKPAXG@Z DD 00H
	DD	00H
	DD	01H
	DD	01H
	DD	FLAT:__catchsym$?OnRequestGetParameter@CDataBaseEngineSink@@IAE_NKPAXG@Z$2
__ehfuncinfo$?OnRequestGetParameter@CDataBaseEngineSink@@IAE_NKPAXG@Z DD 019930522H
	DD	02H
	DD	FLAT:__unwindtable$?OnRequestGetParameter@CDataBaseEngineSink@@IAE_NKPAXG@Z
	DD	01H
	DD	FLAT:__tryblocktable$?OnRequestGetParameter@CDataBaseEngineSink@@IAE_NKPAXG@Z
	DD	2 DUP(00H)
	DD	00H
	DD	01H
xdata$x	ENDS
;	COMDAT xdata$x
xdata$x	SEGMENT
__catchsym$?OnRequestUserTransferScore@CDataBaseEngineSink@@IAE_NKPAXG@Z$4 DD 00H
	DD	FLAT:??_R0PAUIDataBaseException@@@8
	DD	0ffffff38H
	DD	FLAT:__catch$?OnRequestUserTransferScore@CDataBaseEngineSink@@IAE_NKPAXG@Z$0
__tryblocktable$?OnRequestUserTransferScore@CDataBaseEngineSink@@IAE_NKPAXG@Z DD 00H
	DD	02H
	DD	03H
	DD	01H
	DD	FLAT:__catchsym$?OnRequestUserTransferScore@CDataBaseEngineSink@@IAE_NKPAXG@Z$4
__unwindtable$?OnRequestUserTransferScore@CDataBaseEngineSink@@IAE_NKPAXG@Z DD 0ffffffffH
	DD	00H
	DD	00H
	DD	FLAT:__unwindfunclet$?OnRequestUserTransferScore@CDataBaseEngineSink@@IAE_NKPAXG@Z$2
	DD	01H
	DD	FLAT:__unwindfunclet$?OnRequestUserTransferScore@CDataBaseEngineSink@@IAE_NKPAXG@Z$3
