; Listing generated by Microsoft (R) Optimizing Compiler Version 19.16.27032.1 

	TITLE	G:\网狐\HappyGameWH\服务端\系统模块\服务器组件\登录服务器\GamePropertyListManager.cpp
	.686P
	.XMM
	include listing.inc
	.model	flat

INCLUDELIB MSVCRTD
INCLUDELIB OLDNAMES

PUBLIC	?__empty_global_delete@@YAXPAX@Z		; __empty_global_delete
PUBLIC	?__empty_global_delete@@YAXPAXI@Z		; __empty_global_delete
PUBLIC	??2@YAPAXIPAX@Z					; operator new
PUBLIC	?AfxAssertFailedLine@@YGHPBDH@Z			; AfxAssertFailedLine
PUBLIC	?data@CPlex@@QAEPAXXZ				; CPlex::data
PUBLIC	??$HashKey@K@@YGIK@Z				; HashKey<unsigned long>
PUBLIC	??0CGamePropertyListItem@NGamePropertyListManager@@IAE@XZ ; NGamePropertyListManager::CGamePropertyListItem::CGamePropertyListItem
PUBLIC	??0CGamePropertyTypeItem@NGamePropertyListManager@@QAE@XZ ; NGamePropertyListManager::CGamePropertyTypeItem::CGamePropertyTypeItem
PUBLIC	??0CGamePropertyRelatItem@NGamePropertyListManager@@QAE@XZ ; NGamePropertyListManager::CGamePropertyRelatItem::CGamePropertyRelatItem
PUBLIC	??0CGamePropertyItem@NGamePropertyListManager@@QAE@XZ ; NGamePropertyListManager::CGamePropertyItem::CGamePropertyItem
PUBLIC	??0CGamePropertySubItem@NGamePropertyListManager@@QAE@XZ ; NGamePropertyListManager::CGamePropertySubItem::CGamePropertySubItem
PUBLIC	??0?$CMap@KKPAVCGamePropertyTypeItem@NGamePropertyListManager@@AAPAV12@@@QAE@H@Z ; CMap<unsigned long,unsigned long,NGamePropertyListManager::CGamePropertyTypeItem *,NGamePropertyListManager::CGamePropertyTypeItem * &>::CMap<unsigned long,unsigned long,NGamePropertyListManager::CGamePropertyTypeItem *,NGamePropertyListManager::CGamePropertyTypeItem * &>
PUBLIC	?Lookup@?$CMap@KKPAVCGamePropertyTypeItem@NGamePropertyListManager@@AAPAV12@@@QBEHKAAPAVCGamePropertyTypeItem@NGamePropertyListManager@@@Z ; CMap<unsigned long,unsigned long,NGamePropertyListManager::CGamePropertyTypeItem *,NGamePropertyListManager::CGamePropertyTypeItem * &>::Lookup
PUBLIC	??A?$CMap@KKPAVCGamePropertyTypeItem@NGamePropertyListManager@@AAPAV12@@@QAEAAPAVCGamePropertyTypeItem@NGamePropertyListManager@@K@Z ; CMap<unsigned long,unsigned long,NGamePropertyListManager::CGamePropertyTypeItem *,NGamePropertyListManager::CGamePropertyTypeItem * &>::operator[]
PUBLIC	?SetAt@?$CMap@KKPAVCGamePropertyTypeItem@NGamePropertyListManager@@AAPAV12@@@QAEXKAAPAVCGamePropertyTypeItem@NGamePropertyListManager@@@Z ; CMap<unsigned long,unsigned long,NGamePropertyListManager::CGamePropertyTypeItem *,NGamePropertyListManager::CGamePropertyTypeItem * &>::SetAt
PUBLIC	?RemoveKey@?$CMap@KKPAVCGamePropertyTypeItem@NGamePropertyListManager@@AAPAV12@@@QAEHK@Z ; CMap<unsigned long,unsigned long,NGamePropertyListManager::CGamePropertyTypeItem *,NGamePropertyListManager::CGamePropertyTypeItem * &>::RemoveKey
PUBLIC	?RemoveAll@?$CMap@KKPAVCGamePropertyTypeItem@NGamePropertyListManager@@AAPAV12@@@QAEXXZ ; CMap<unsigned long,unsigned long,NGamePropertyListManager::CGamePropertyTypeItem *,NGamePropertyListManager::CGamePropertyTypeItem * &>::RemoveAll
PUBLIC	?GetStartPosition@?$CMap@KKPAVCGamePropertyTypeItem@NGamePropertyListManager@@AAPAV12@@@QBEPAU__POSITION@@XZ ; CMap<unsigned long,unsigned long,NGamePropertyListManager::CGamePropertyTypeItem *,NGamePropertyListManager::CGamePropertyTypeItem * &>::GetStartPosition
PUBLIC	?GetNextAssoc@?$CMap@KKPAVCGamePropertyTypeItem@NGamePropertyListManager@@AAPAV12@@@QBEXAAPAU__POSITION@@AAKAAPAVCGamePropertyTypeItem@NGamePropertyListManager@@@Z ; CMap<unsigned long,unsigned long,NGamePropertyListManager::CGamePropertyTypeItem *,NGamePropertyListManager::CGamePropertyTypeItem * &>::GetNextAssoc
PUBLIC	?InitHashTable@?$CMap@KKPAVCGamePropertyTypeItem@NGamePropertyListManager@@AAPAV12@@@QAEXIH@Z ; CMap<unsigned long,unsigned long,NGamePropertyListManager::CGamePropertyTypeItem *,NGamePropertyListManager::CGamePropertyTypeItem * &>::InitHashTable
PUBLIC	?NewAssoc@?$CMap@KKPAVCGamePropertyTypeItem@NGamePropertyListManager@@AAPAV12@@@IAEPAVCAssoc@1@K@Z ; CMap<unsigned long,unsigned long,NGamePropertyListManager::CGamePropertyTypeItem *,NGamePropertyListManager::CGamePropertyTypeItem * &>::NewAssoc
PUBLIC	?FreeAssoc@?$CMap@KKPAVCGamePropertyTypeItem@NGamePropertyListManager@@AAPAV12@@@IAEXPAVCAssoc@1@@Z ; CMap<unsigned long,unsigned long,NGamePropertyListManager::CGamePropertyTypeItem *,NGamePropertyListManager::CGamePropertyTypeItem * &>::FreeAssoc
PUBLIC	?GetAssocAt@?$CMap@KKPAVCGamePropertyTypeItem@NGamePropertyListManager@@AAPAV12@@@IBEPAVCAssoc@1@KAAI0@Z ; CMap<unsigned long,unsigned long,NGamePropertyListManager::CGamePropertyTypeItem *,NGamePropertyListManager::CGamePropertyTypeItem * &>::GetAssocAt
PUBLIC	??1?$CMap@KKPAVCGamePropertyTypeItem@NGamePropertyListManager@@AAPAV12@@@UAE@XZ ; CMap<unsigned long,unsigned long,NGamePropertyListManager::CGamePropertyTypeItem *,NGamePropertyListManager::CGamePropertyTypeItem * &>::~CMap<unsigned long,unsigned long,NGamePropertyListManager::CGamePropertyTypeItem *,NGamePropertyListManager::CGamePropertyTypeItem * &>
PUBLIC	?Serialize@?$CMap@KKPAVCGamePropertyTypeItem@NGamePropertyListManager@@AAPAV12@@@UAEXAAVCArchive@@@Z ; CMap<unsigned long,unsigned long,NGamePropertyListManager::CGamePropertyTypeItem *,NGamePropertyListManager::CGamePropertyTypeItem * &>::Serialize
PUBLIC	?Dump@?$CMap@KKPAVCGamePropertyTypeItem@NGamePropertyListManager@@AAPAV12@@@UBEXAAVCDumpContext@@@Z ; CMap<unsigned long,unsigned long,NGamePropertyListManager::CGamePropertyTypeItem *,NGamePropertyListManager::CGamePropertyTypeItem * &>::Dump
PUBLIC	?AssertValid@?$CMap@KKPAVCGamePropertyTypeItem@NGamePropertyListManager@@AAPAV12@@@UBEXXZ ; CMap<unsigned long,unsigned long,NGamePropertyListManager::CGamePropertyTypeItem *,NGamePropertyListManager::CGamePropertyTypeItem * &>::AssertValid
PUBLIC	??_G?$CMap@KKPAVCGamePropertyTypeItem@NGamePropertyListManager@@AAPAV12@@@UAEPAXI@Z ; CMap<unsigned long,unsigned long,NGamePropertyListManager::CGamePropertyTypeItem *,NGamePropertyListManager::CGamePropertyTypeItem * &>::`scalar deleting destructor'
PUBLIC	??0?$CMap@KKPAVCGamePropertyRelatItem@NGamePropertyListManager@@AAPAV12@@@QAE@H@Z ; CMap<unsigned long,unsigned long,NGamePropertyListManager::CGamePropertyRelatItem *,NGamePropertyListManager::CGamePropertyRelatItem * &>::CMap<unsigned long,unsigned long,NGamePropertyListManager::CGamePropertyRelatItem *,NGamePropertyListManager::CGamePropertyRelatItem * &>
PUBLIC	??A?$CMap@KKPAVCGamePropertyRelatItem@NGamePropertyListManager@@AAPAV12@@@QAEAAPAVCGamePropertyRelatItem@NGamePropertyListManager@@K@Z ; CMap<unsigned long,unsigned long,NGamePropertyListManager::CGamePropertyRelatItem *,NGamePropertyListManager::CGamePropertyRelatItem * &>::operator[]
PUBLIC	?SetAt@?$CMap@KKPAVCGamePropertyRelatItem@NGamePropertyListManager@@AAPAV12@@@QAEXKAAPAVCGamePropertyRelatItem@NGamePropertyListManager@@@Z ; CMap<unsigned long,unsigned long,NGamePropertyListManager::CGamePropertyRelatItem *,NGamePropertyListManager::CGamePropertyRelatItem * &>::SetAt
PUBLIC	?RemoveKey@?$CMap@KKPAVCGamePropertyRelatItem@NGamePropertyListManager@@AAPAV12@@@QAEHK@Z ; CMap<unsigned long,unsigned long,NGamePropertyListManager::CGamePropertyRelatItem *,NGamePropertyListManager::CGamePropertyRelatItem * &>::RemoveKey
PUBLIC	?RemoveAll@?$CMap@KKPAVCGamePropertyRelatItem@NGamePropertyListManager@@AAPAV12@@@QAEXXZ ; CMap<unsigned long,unsigned long,NGamePropertyListManager::CGamePropertyRelatItem *,NGamePropertyListManager::CGamePropertyRelatItem * &>::RemoveAll
PUBLIC	?GetStartPosition@?$CMap@KKPAVCGamePropertyRelatItem@NGamePropertyListManager@@AAPAV12@@@QBEPAU__POSITION@@XZ ; CMap<unsigned long,unsigned long,NGamePropertyListManager::CGamePropertyRelatItem *,NGamePropertyListManager::CGamePropertyRelatItem * &>::GetStartPosition
PUBLIC	?GetNextAssoc@?$CMap@KKPAVCGamePropertyRelatItem@NGamePropertyListManager@@AAPAV12@@@QBEXAAPAU__POSITION@@AAKAAPAVCGamePropertyRelatItem@NGamePropertyListManager@@@Z ; CMap<unsigned long,unsigned long,NGamePropertyListManager::CGamePropertyRelatItem *,NGamePropertyListManager::CGamePropertyRelatItem * &>::GetNextAssoc
PUBLIC	?InitHashTable@?$CMap@KKPAVCGamePropertyRelatItem@NGamePropertyListManager@@AAPAV12@@@QAEXIH@Z ; CMap<unsigned long,unsigned long,NGamePropertyListManager::CGamePropertyRelatItem *,NGamePropertyListManager::CGamePropertyRelatItem * &>::InitHashTable
PUBLIC	?NewAssoc@?$CMap@KKPAVCGamePropertyRelatItem@NGamePropertyListManager@@AAPAV12@@@IAEPAVCAssoc@1@K@Z ; CMap<unsigned long,unsigned long,NGamePropertyListManager::CGamePropertyRelatItem *,NGamePropertyListManager::CGamePropertyRelatItem * &>::NewAssoc
PUBLIC	?FreeAssoc@?$CMap@KKPAVCGamePropertyRelatItem@NGamePropertyListManager@@AAPAV12@@@IAEXPAVCAssoc@1@@Z ; CMap<unsigned long,unsigned long,NGamePropertyListManager::CGamePropertyRelatItem *,NGamePropertyListManager::CGamePropertyRelatItem * &>::FreeAssoc
PUBLIC	?GetAssocAt@?$CMap@KKPAVCGamePropertyRelatItem@NGamePropertyListManager@@AAPAV12@@@IBEPAVCAssoc@1@KAAI0@Z ; CMap<unsigned long,unsigned long,NGamePropertyListManager::CGamePropertyRelatItem *,NGamePropertyListManager::CGamePropertyRelatItem * &>::GetAssocAt
PUBLIC	??1?$CMap@KKPAVCGamePropertyRelatItem@NGamePropertyListManager@@AAPAV12@@@UAE@XZ ; CMap<unsigned long,unsigned long,NGamePropertyListManager::CGamePropertyRelatItem *,NGamePropertyListManager::CGamePropertyRelatItem * &>::~CMap<unsigned long,unsigned long,NGamePropertyListManager::CGamePropertyRelatItem *,NGamePropertyListManager::CGamePropertyRelatItem * &>
PUBLIC	?Serialize@?$CMap@KKPAVCGamePropertyRelatItem@NGamePropertyListManager@@AAPAV12@@@UAEXAAVCArchive@@@Z ; CMap<unsigned long,unsigned long,NGamePropertyListManager::CGamePropertyRelatItem *,NGamePropertyListManager::CGamePropertyRelatItem * &>::Serialize
PUBLIC	?Dump@?$CMap@KKPAVCGamePropertyRelatItem@NGamePropertyListManager@@AAPAV12@@@UBEXAAVCDumpContext@@@Z ; CMap<unsigned long,unsigned long,NGamePropertyListManager::CGamePropertyRelatItem *,NGamePropertyListManager::CGamePropertyRelatItem * &>::Dump
PUBLIC	?AssertValid@?$CMap@KKPAVCGamePropertyRelatItem@NGamePropertyListManager@@AAPAV12@@@UBEXXZ ; CMap<unsigned long,unsigned long,NGamePropertyListManager::CGamePropertyRelatItem *,NGamePropertyListManager::CGamePropertyRelatItem * &>::AssertValid
PUBLIC	??_G?$CMap@KKPAVCGamePropertyRelatItem@NGamePropertyListManager@@AAPAV12@@@UAEPAXI@Z ; CMap<unsigned long,unsigned long,NGamePropertyListManager::CGamePropertyRelatItem *,NGamePropertyListManager::CGamePropertyRelatItem * &>::`scalar deleting destructor'
PUBLIC	??0?$CMap@KKPAVCGamePropertyItem@NGamePropertyListManager@@AAPAV12@@@QAE@H@Z ; CMap<unsigned long,unsigned long,NGamePropertyListManager::CGamePropertyItem *,NGamePropertyListManager::CGamePropertyItem * &>::CMap<unsigned long,unsigned long,NGamePropertyListManager::CGamePropertyItem *,NGamePropertyListManager::CGamePropertyItem * &>
PUBLIC	?Lookup@?$CMap@KKPAVCGamePropertyItem@NGamePropertyListManager@@AAPAV12@@@QBEHKAAPAVCGamePropertyItem@NGamePropertyListManager@@@Z ; CMap<unsigned long,unsigned long,NGamePropertyListManager::CGamePropertyItem *,NGamePropertyListManager::CGamePropertyItem * &>::Lookup
PUBLIC	??A?$CMap@KKPAVCGamePropertyItem@NGamePropertyListManager@@AAPAV12@@@QAEAAPAVCGamePropertyItem@NGamePropertyListManager@@K@Z ; CMap<unsigned long,unsigned long,NGamePropertyListManager::CGamePropertyItem *,NGamePropertyListManager::CGamePropertyItem * &>::operator[]
PUBLIC	?SetAt@?$CMap@KKPAVCGamePropertyItem@NGamePropertyListManager@@AAPAV12@@@QAEXKAAPAVCGamePropertyItem@NGamePropertyListManager@@@Z ; CMap<unsigned long,unsigned long,NGamePropertyListManager::CGamePropertyItem *,NGamePropertyListManager::CGamePropertyItem * &>::SetAt
PUBLIC	?RemoveKey@?$CMap@KKPAVCGamePropertyItem@NGamePropertyListManager@@AAPAV12@@@QAEHK@Z ; CMap<unsigned long,unsigned long,NGamePropertyListManager::CGamePropertyItem *,NGamePropertyListManager::CGamePropertyItem * &>::RemoveKey
PUBLIC	?RemoveAll@?$CMap@KKPAVCGamePropertyItem@NGamePropertyListManager@@AAPAV12@@@QAEXXZ ; CMap<unsigned long,unsigned long,NGamePropertyListManager::CGamePropertyItem *,NGamePropertyListManager::CGamePropertyItem * &>::RemoveAll
PUBLIC	?GetStartPosition@?$CMap@KKPAVCGamePropertyItem@NGamePropertyListManager@@AAPAV12@@@QBEPAU__POSITION@@XZ ; CMap<unsigned long,unsigned long,NGamePropertyListManager::CGamePropertyItem *,NGamePropertyListManager::CGamePropertyItem * &>::GetStartPosition
PUBLIC	?GetNextAssoc@?$CMap@KKPAVCGamePropertyItem@NGamePropertyListManager@@AAPAV12@@@QBEXAAPAU__POSITION@@AAKAAPAVCGamePropertyItem@NGamePropertyListManager@@@Z ; CMap<unsigned long,unsigned long,NGamePropertyListManager::CGamePropertyItem *,NGamePropertyListManager::CGamePropertyItem * &>::GetNextAssoc
PUBLIC	?InitHashTable@?$CMap@KKPAVCGamePropertyItem@NGamePropertyListManager@@AAPAV12@@@QAEXIH@Z ; CMap<unsigned long,unsigned long,NGamePropertyListManager::CGamePropertyItem *,NGamePropertyListManager::CGamePropertyItem * &>::InitHashTable
PUBLIC	?NewAssoc@?$CMap@KKPAVCGamePropertyItem@NGamePropertyListManager@@AAPAV12@@@IAEPAVCAssoc@1@K@Z ; CMap<unsigned long,unsigned long,NGamePropertyListManager::CGamePropertyItem *,NGamePropertyListManager::CGamePropertyItem * &>::NewAssoc
PUBLIC	?FreeAssoc@?$CMap@KKPAVCGamePropertyItem@NGamePropertyListManager@@AAPAV12@@@IAEXPAVCAssoc@1@@Z ; CMap<unsigned long,unsigned long,NGamePropertyListManager::CGamePropertyItem *,NGamePropertyListManager::CGamePropertyItem * &>::FreeAssoc
PUBLIC	?GetAssocAt@?$CMap@KKPAVCGamePropertyItem@NGamePropertyListManager@@AAPAV12@@@IBEPAVCAssoc@1@KAAI0@Z ; CMap<unsigned long,unsigned long,NGamePropertyListManager::CGamePropertyItem *,NGamePropertyListManager::CGamePropertyItem * &>::GetAssocAt
PUBLIC	??1?$CMap@KKPAVCGamePropertyItem@NGamePropertyListManager@@AAPAV12@@@UAE@XZ ; CMap<unsigned long,unsigned long,NGamePropertyListManager::CGamePropertyItem *,NGamePropertyListManager::CGamePropertyItem * &>::~CMap<unsigned long,unsigned long,NGamePropertyListManager::CGamePropertyItem *,NGamePropertyListManager::CGamePropertyItem * &>
PUBLIC	?Serialize@?$CMap@KKPAVCGamePropertyItem@NGamePropertyListManager@@AAPAV12@@@UAEXAAVCArchive@@@Z ; CMap<unsigned long,unsigned long,NGamePropertyListManager::CGamePropertyItem *,NGamePropertyListManager::CGamePropertyItem * &>::Serialize
PUBLIC	?Dump@?$CMap@KKPAVCGamePropertyItem@NGamePropertyListManager@@AAPAV12@@@UBEXAAVCDumpContext@@@Z ; CMap<unsigned long,unsigned long,NGamePropertyListManager::CGamePropertyItem *,NGamePropertyListManager::CGamePropertyItem * &>::Dump
PUBLIC	?AssertValid@?$CMap@KKPAVCGamePropertyItem@NGamePropertyListManager@@AAPAV12@@@UBEXXZ ; CMap<unsigned long,unsigned long,NGamePropertyListManager::CGamePropertyItem *,NGamePropertyListManager::CGamePropertyItem * &>::AssertValid
PUBLIC	??_G?$CMap@KKPAVCGamePropertyItem@NGamePropertyListManager@@AAPAV12@@@UAEPAXI@Z ; CMap<unsigned long,unsigned long,NGamePropertyListManager::CGamePropertyItem *,NGamePropertyListManager::CGamePropertyItem * &>::`scalar deleting destructor'
PUBLIC	??0?$CMap@KKPAVCGamePropertySubItem@NGamePropertyListManager@@AAPAV12@@@QAE@H@Z ; CMap<unsigned long,unsigned long,NGamePropertyListManager::CGamePropertySubItem *,NGamePropertyListManager::CGamePropertySubItem * &>::CMap<unsigned long,unsigned long,NGamePropertyListManager::CGamePropertySubItem *,NGamePropertyListManager::CGamePropertySubItem * &>
PUBLIC	??A?$CMap@KKPAVCGamePropertySubItem@NGamePropertyListManager@@AAPAV12@@@QAEAAPAVCGamePropertySubItem@NGamePropertyListManager@@K@Z ; CMap<unsigned long,unsigned long,NGamePropertyListManager::CGamePropertySubItem *,NGamePropertyListManager::CGamePropertySubItem * &>::operator[]
PUBLIC	?SetAt@?$CMap@KKPAVCGamePropertySubItem@NGamePropertyListManager@@AAPAV12@@@QAEXKAAPAVCGamePropertySubItem@NGamePropertyListManager@@@Z ; CMap<unsigned long,unsigned long,NGamePropertyListManager::CGamePropertySubItem *,NGamePropertyListManager::CGamePropertySubItem * &>::SetAt
PUBLIC	?RemoveKey@?$CMap@KKPAVCGamePropertySubItem@NGamePropertyListManager@@AAPAV12@@@QAEHK@Z ; CMap<unsigned long,unsigned long,NGamePropertyListManager::CGamePropertySubItem *,NGamePropertyListManager::CGamePropertySubItem * &>::RemoveKey
PUBLIC	?RemoveAll@?$CMap@KKPAVCGamePropertySubItem@NGamePropertyListManager@@AAPAV12@@@QAEXXZ ; CMap<unsigned long,unsigned long,NGamePropertyListManager::CGamePropertySubItem *,NGamePropertyListManager::CGamePropertySubItem * &>::RemoveAll
PUBLIC	?GetStartPosition@?$CMap@KKPAVCGamePropertySubItem@NGamePropertyListManager@@AAPAV12@@@QBEPAU__POSITION@@XZ ; CMap<unsigned long,unsigned long,NGamePropertyListManager::CGamePropertySubItem *,NGamePropertyListManager::CGamePropertySubItem * &>::GetStartPosition
PUBLIC	?GetNextAssoc@?$CMap@KKPAVCGamePropertySubItem@NGamePropertyListManager@@AAPAV12@@@QBEXAAPAU__POSITION@@AAKAAPAVCGamePropertySubItem@NGamePropertyListManager@@@Z ; CMap<unsigned long,unsigned long,NGamePropertyListManager::CGamePropertySubItem *,NGamePropertyListManager::CGamePropertySubItem * &>::GetNextAssoc
PUBLIC	?InitHashTable@?$CMap@KKPAVCGamePropertySubItem@NGamePropertyListManager@@AAPAV12@@@QAEXIH@Z ; CMap<unsigned long,unsigned long,NGamePropertyListManager::CGamePropertySubItem *,NGamePropertyListManager::CGamePropertySubItem * &>::InitHashTable
PUBLIC	?NewAssoc@?$CMap@KKPAVCGamePropertySubItem@NGamePropertyListManager@@AAPAV12@@@IAEPAVCAssoc@1@K@Z ; CMap<unsigned long,unsigned long,NGamePropertyListManager::CGamePropertySubItem *,NGamePropertyListManager::CGamePropertySubItem * &>::NewAssoc
PUBLIC	?FreeAssoc@?$CMap@KKPAVCGamePropertySubItem@NGamePropertyListManager@@AAPAV12@@@IAEXPAVCAssoc@1@@Z ; CMap<unsigned long,unsigned long,NGamePropertyListManager::CGamePropertySubItem *,NGamePropertyListManager::CGamePropertySubItem * &>::FreeAssoc
PUBLIC	?GetAssocAt@?$CMap@KKPAVCGamePropertySubItem@NGamePropertyListManager@@AAPAV12@@@IBEPAVCAssoc@1@KAAI0@Z ; CMap<unsigned long,unsigned long,NGamePropertyListManager::CGamePropertySubItem *,NGamePropertyListManager::CGamePropertySubItem * &>::GetAssocAt
PUBLIC	??1?$CMap@KKPAVCGamePropertySubItem@NGamePropertyListManager@@AAPAV12@@@UAE@XZ ; CMap<unsigned long,unsigned long,NGamePropertyListManager::CGamePropertySubItem *,NGamePropertyListManager::CGamePropertySubItem * &>::~CMap<unsigned long,unsigned long,NGamePropertyListManager::CGamePropertySubItem *,NGamePropertyListManager::CGamePropertySubItem * &>
PUBLIC	?Serialize@?$CMap@KKPAVCGamePropertySubItem@NGamePropertyListManager@@AAPAV12@@@UAEXAAVCArchive@@@Z ; CMap<unsigned long,unsigned long,NGamePropertyListManager::CGamePropertySubItem *,NGamePropertyListManager::CGamePropertySubItem * &>::Serialize
PUBLIC	?Dump@?$CMap@KKPAVCGamePropertySubItem@NGamePropertyListManager@@AAPAV12@@@UBEXAAVCDumpContext@@@Z ; CMap<unsigned long,unsigned long,NGamePropertyListManager::CGamePropertySubItem *,NGamePropertyListManager::CGamePropertySubItem * &>::Dump
PUBLIC	?AssertValid@?$CMap@KKPAVCGamePropertySubItem@NGamePropertyListManager@@AAPAV12@@@UBEXXZ ; CMap<unsigned long,unsigned long,NGamePropertyListManager::CGamePropertySubItem *,NGamePropertyListManager::CGamePropertySubItem * &>::AssertValid
PUBLIC	??_G?$CMap@KKPAVCGamePropertySubItem@NGamePropertyListManager@@AAPAV12@@@UAEPAXI@Z ; CMap<unsigned long,unsigned long,NGamePropertyListManager::CGamePropertySubItem *,NGamePropertyListManager::CGamePropertySubItem * &>::`scalar deleting destructor'
PUBLIC	??0?$CWHArray@PAVCGamePropertyTypeItem@NGamePropertyListManager@@ABQAV12@@@QAE@XZ ; CWHArray<NGamePropertyListManager::CGamePropertyTypeItem *,NGamePropertyListManager::CGamePropertyTypeItem * const &>::CWHArray<NGamePropertyListManager::CGamePropertyTypeItem *,NGamePropertyListManager::CGamePropertyTypeItem * const &>
PUBLIC	??1?$CWHArray@PAVCGamePropertyTypeItem@NGamePropertyListManager@@ABQAV12@@@UAE@XZ ; CWHArray<NGamePropertyListManager::CGamePropertyTypeItem *,NGamePropertyListManager::CGamePropertyTypeItem * const &>::~CWHArray<NGamePropertyListManager::CGamePropertyTypeItem *,NGamePropertyListManager::CGamePropertyTypeItem * const &>
PUBLIC	?GetCount@?$CWHArray@PAVCGamePropertyTypeItem@NGamePropertyListManager@@ABQAV12@@@QBEHXZ ; CWHArray<NGamePropertyListManager::CGamePropertyTypeItem *,NGamePropertyListManager::CGamePropertyTypeItem * const &>::GetCount
PUBLIC	?Add@?$CWHArray@PAVCGamePropertyTypeItem@NGamePropertyListManager@@ABQAV12@@@QAEHABQAVCGamePropertyTypeItem@NGamePropertyListManager@@@Z ; CWHArray<NGamePropertyListManager::CGamePropertyTypeItem *,NGamePropertyListManager::CGamePropertyTypeItem * const &>::Add
PUBLIC	?ElementAt@?$CWHArray@PAVCGamePropertyTypeItem@NGamePropertyListManager@@ABQAV12@@@QAEAAPAVCGamePropertyTypeItem@NGamePropertyListManager@@H@Z ; CWHArray<NGamePropertyListManager::CGamePropertyTypeItem *,NGamePropertyListManager::CGamePropertyTypeItem * const &>::ElementAt
PUBLIC	?SetSize@?$CWHArray@PAVCGamePropertyTypeItem@NGamePropertyListManager@@ABQAV12@@@QAEXH@Z ; CWHArray<NGamePropertyListManager::CGamePropertyTypeItem *,NGamePropertyListManager::CGamePropertyTypeItem * const &>::SetSize
PUBLIC	?SetAtGrow@?$CWHArray@PAVCGamePropertyTypeItem@NGamePropertyListManager@@ABQAV12@@@QAEXHABQAVCGamePropertyTypeItem@NGamePropertyListManager@@@Z ; CWHArray<NGamePropertyListManager::CGamePropertyTypeItem *,NGamePropertyListManager::CGamePropertyTypeItem * const &>::SetAtGrow
PUBLIC	?RemoveAt@?$CWHArray@PAVCGamePropertyTypeItem@NGamePropertyListManager@@ABQAV12@@@QAEXHH@Z ; CWHArray<NGamePropertyListManager::CGamePropertyTypeItem *,NGamePropertyListManager::CGamePropertyTypeItem * const &>::RemoveAt
PUBLIC	?RemoveAll@?$CWHArray@PAVCGamePropertyTypeItem@NGamePropertyListManager@@ABQAV12@@@QAEXXZ ; CWHArray<NGamePropertyListManager::CGamePropertyTypeItem *,NGamePropertyListManager::CGamePropertyTypeItem * const &>::RemoveAll
PUBLIC	??A?$CWHArray@PAVCGamePropertyTypeItem@NGamePropertyListManager@@ABQAV12@@@QAEAAPAVCGamePropertyTypeItem@NGamePropertyListManager@@H@Z ; CWHArray<NGamePropertyListManager::CGamePropertyTypeItem *,NGamePropertyListManager::CGamePropertyTypeItem * const &>::operator[]
PUBLIC	?AllocMemory@?$CWHArray@PAVCGamePropertyTypeItem@NGamePropertyListManager@@ABQAV12@@@QAEXH@Z ; CWHArray<NGamePropertyListManager::CGamePropertyTypeItem *,NGamePropertyListManager::CGamePropertyTypeItem * const &>::AllocMemory
PUBLIC	??_G?$CWHArray@PAVCGamePropertyTypeItem@NGamePropertyListManager@@ABQAV12@@@UAEPAXI@Z ; CWHArray<NGamePropertyListManager::CGamePropertyTypeItem *,NGamePropertyListManager::CGamePropertyTypeItem * const &>::`scalar deleting destructor'
PUBLIC	??0?$CWHArray@PAVCGamePropertyRelatItem@NGamePropertyListManager@@ABQAV12@@@QAE@XZ ; CWHArray<NGamePropertyListManager::CGamePropertyRelatItem *,NGamePropertyListManager::CGamePropertyRelatItem * const &>::CWHArray<NGamePropertyListManager::CGamePropertyRelatItem *,NGamePropertyListManager::CGamePropertyRelatItem * const &>
PUBLIC	??1?$CWHArray@PAVCGamePropertyRelatItem@NGamePropertyListManager@@ABQAV12@@@UAE@XZ ; CWHArray<NGamePropertyListManager::CGamePropertyRelatItem *,NGamePropertyListManager::CGamePropertyRelatItem * const &>::~CWHArray<NGamePropertyListManager::CGamePropertyRelatItem *,NGamePropertyListManager::CGamePropertyRelatItem * const &>
PUBLIC	?GetCount@?$CWHArray@PAVCGamePropertyRelatItem@NGamePropertyListManager@@ABQAV12@@@QBEHXZ ; CWHArray<NGamePropertyListManager::CGamePropertyRelatItem *,NGamePropertyListManager::CGamePropertyRelatItem * const &>::GetCount
PUBLIC	?Add@?$CWHArray@PAVCGamePropertyRelatItem@NGamePropertyListManager@@ABQAV12@@@QAEHABQAVCGamePropertyRelatItem@NGamePropertyListManager@@@Z ; CWHArray<NGamePropertyListManager::CGamePropertyRelatItem *,NGamePropertyListManager::CGamePropertyRelatItem * const &>::Add
PUBLIC	?ElementAt@?$CWHArray@PAVCGamePropertyRelatItem@NGamePropertyListManager@@ABQAV12@@@QAEAAPAVCGamePropertyRelatItem@NGamePropertyListManager@@H@Z ; CWHArray<NGamePropertyListManager::CGamePropertyRelatItem *,NGamePropertyListManager::CGamePropertyRelatItem * const &>::ElementAt
PUBLIC	?SetSize@?$CWHArray@PAVCGamePropertyRelatItem@NGamePropertyListManager@@ABQAV12@@@QAEXH@Z ; CWHArray<NGamePropertyListManager::CGamePropertyRelatItem *,NGamePropertyListManager::CGamePropertyRelatItem * const &>::SetSize
PUBLIC	?SetAtGrow@?$CWHArray@PAVCGamePropertyRelatItem@NGamePropertyListManager@@ABQAV12@@@QAEXHABQAVCGamePropertyRelatItem@NGamePropertyListManager@@@Z ; CWHArray<NGamePropertyListManager::CGamePropertyRelatItem *,NGamePropertyListManager::CGamePropertyRelatItem * const &>::SetAtGrow
PUBLIC	?RemoveAll@?$CWHArray@PAVCGamePropertyRelatItem@NGamePropertyListManager@@ABQAV12@@@QAEXXZ ; CWHArray<NGamePropertyListManager::CGamePropertyRelatItem *,NGamePropertyListManager::CGamePropertyRelatItem * const &>::RemoveAll
PUBLIC	??A?$CWHArray@PAVCGamePropertyRelatItem@NGamePropertyListManager@@ABQAV12@@@QAEAAPAVCGamePropertyRelatItem@NGamePropertyListManager@@H@Z ; CWHArray<NGamePropertyListManager::CGamePropertyRelatItem *,NGamePropertyListManager::CGamePropertyRelatItem * const &>::operator[]
PUBLIC	?AllocMemory@?$CWHArray@PAVCGamePropertyRelatItem@NGamePropertyListManager@@ABQAV12@@@QAEXH@Z ; CWHArray<NGamePropertyListManager::CGamePropertyRelatItem *,NGamePropertyListManager::CGamePropertyRelatItem * const &>::AllocMemory
PUBLIC	??_G?$CWHArray@PAVCGamePropertyRelatItem@NGamePropertyListManager@@ABQAV12@@@UAEPAXI@Z ; CWHArray<NGamePropertyListManager::CGamePropertyRelatItem *,NGamePropertyListManager::CGamePropertyRelatItem * const &>::`scalar deleting destructor'
PUBLIC	??0?$CWHArray@PAVCGamePropertyItem@NGamePropertyListManager@@ABQAV12@@@QAE@XZ ; CWHArray<NGamePropertyListManager::CGamePropertyItem *,NGamePropertyListManager::CGamePropertyItem * const &>::CWHArray<NGamePropertyListManager::CGamePropertyItem *,NGamePropertyListManager::CGamePropertyItem * const &>
PUBLIC	??1?$CWHArray@PAVCGamePropertyItem@NGamePropertyListManager@@ABQAV12@@@UAE@XZ ; CWHArray<NGamePropertyListManager::CGamePropertyItem *,NGamePropertyListManager::CGamePropertyItem * const &>::~CWHArray<NGamePropertyListManager::CGamePropertyItem *,NGamePropertyListManager::CGamePropertyItem * const &>
PUBLIC	?GetCount@?$CWHArray@PAVCGamePropertyItem@NGamePropertyListManager@@ABQAV12@@@QBEHXZ ; CWHArray<NGamePropertyListManager::CGamePropertyItem *,NGamePropertyListManager::CGamePropertyItem * const &>::GetCount
PUBLIC	?Add@?$CWHArray@PAVCGamePropertyItem@NGamePropertyListManager@@ABQAV12@@@QAEHABQAVCGamePropertyItem@NGamePropertyListManager@@@Z ; CWHArray<NGamePropertyListManager::CGamePropertyItem *,NGamePropertyListManager::CGamePropertyItem * const &>::Add
PUBLIC	?ElementAt@?$CWHArray@PAVCGamePropertyItem@NGamePropertyListManager@@ABQAV12@@@QAEAAPAVCGamePropertyItem@NGamePropertyListManager@@H@Z ; CWHArray<NGamePropertyListManager::CGamePropertyItem *,NGamePropertyListManager::CGamePropertyItem * const &>::ElementAt
PUBLIC	?SetSize@?$CWHArray@PAVCGamePropertyItem@NGamePropertyListManager@@ABQAV12@@@QAEXH@Z ; CWHArray<NGamePropertyListManager::CGamePropertyItem *,NGamePropertyListManager::CGamePropertyItem * const &>::SetSize
PUBLIC	?SetAtGrow@?$CWHArray@PAVCGamePropertyItem@NGamePropertyListManager@@ABQAV12@@@QAEXHABQAVCGamePropertyItem@NGamePropertyListManager@@@Z ; CWHArray<NGamePropertyListManager::CGamePropertyItem *,NGamePropertyListManager::CGamePropertyItem * const &>::SetAtGrow
PUBLIC	?RemoveAt@?$CWHArray@PAVCGamePropertyItem@NGamePropertyListManager@@ABQAV12@@@QAEXHH@Z ; CWHArray<NGamePropertyListManager::CGamePropertyItem *,NGamePropertyListManager::CGamePropertyItem * const &>::RemoveAt
PUBLIC	?RemoveAll@?$CWHArray@PAVCGamePropertyItem@NGamePropertyListManager@@ABQAV12@@@QAEXXZ ; CWHArray<NGamePropertyListManager::CGamePropertyItem *,NGamePropertyListManager::CGamePropertyItem * const &>::RemoveAll
PUBLIC	??A?$CWHArray@PAVCGamePropertyItem@NGamePropertyListManager@@ABQAV12@@@QAEAAPAVCGamePropertyItem@NGamePropertyListManager@@H@Z ; CWHArray<NGamePropertyListManager::CGamePropertyItem *,NGamePropertyListManager::CGamePropertyItem * const &>::operator[]
PUBLIC	?AllocMemory@?$CWHArray@PAVCGamePropertyItem@NGamePropertyListManager@@ABQAV12@@@QAEXH@Z ; CWHArray<NGamePropertyListManager::CGamePropertyItem *,NGamePropertyListManager::CGamePropertyItem * const &>::AllocMemory
PUBLIC	??_G?$CWHArray@PAVCGamePropertyItem@NGamePropertyListManager@@ABQAV12@@@UAEPAXI@Z ; CWHArray<NGamePropertyListManager::CGamePropertyItem *,NGamePropertyListManager::CGamePropertyItem * const &>::`scalar deleting destructor'
PUBLIC	??0?$CWHArray@PAVCGamePropertySubItem@NGamePropertyListManager@@ABQAV12@@@QAE@XZ ; CWHArray<NGamePropertyListManager::CGamePropertySubItem *,NGamePropertyListManager::CGamePropertySubItem * const &>::CWHArray<NGamePropertyListManager::CGamePropertySubItem *,NGamePropertyListManager::CGamePropertySubItem * const &>
PUBLIC	??1?$CWHArray@PAVCGamePropertySubItem@NGamePropertyListManager@@ABQAV12@@@UAE@XZ ; CWHArray<NGamePropertyListManager::CGamePropertySubItem *,NGamePropertyListManager::CGamePropertySubItem * const &>::~CWHArray<NGamePropertyListManager::CGamePropertySubItem *,NGamePropertyListManager::CGamePropertySubItem * const &>
PUBLIC	?GetCount@?$CWHArray@PAVCGamePropertySubItem@NGamePropertyListManager@@ABQAV12@@@QBEHXZ ; CWHArray<NGamePropertyListManager::CGamePropertySubItem *,NGamePropertyListManager::CGamePropertySubItem * const &>::GetCount
PUBLIC	?Add@?$CWHArray@PAVCGamePropertySubItem@NGamePropertyListManager@@ABQAV12@@@QAEHABQAVCGamePropertySubItem@NGamePropertyListManager@@@Z ; CWHArray<NGamePropertyListManager::CGamePropertySubItem *,NGamePropertyListManager::CGamePropertySubItem * const &>::Add
PUBLIC	?ElementAt@?$CWHArray@PAVCGamePropertySubItem@NGamePropertyListManager@@ABQAV12@@@QAEAAPAVCGamePropertySubItem@NGamePropertyListManager@@H@Z ; CWHArray<NGamePropertyListManager::CGamePropertySubItem *,NGamePropertyListManager::CGamePropertySubItem * const &>::ElementAt
PUBLIC	?SetSize@?$CWHArray@PAVCGamePropertySubItem@NGamePropertyListManager@@ABQAV12@@@QAEXH@Z ; CWHArray<NGamePropertyListManager::CGamePropertySubItem *,NGamePropertyListManager::CGamePropertySubItem * const &>::SetSize
PUBLIC	?SetAtGrow@?$CWHArray@PAVCGamePropertySubItem@NGamePropertyListManager@@ABQAV12@@@QAEXHABQAVCGamePropertySubItem@NGamePropertyListManager@@@Z ; CWHArray<NGamePropertyListManager::CGamePropertySubItem *,NGamePropertyListManager::CGamePropertySubItem * const &>::SetAtGrow
PUBLIC	?RemoveAll@?$CWHArray@PAVCGamePropertySubItem@NGamePropertyListManager@@ABQAV12@@@QAEXXZ ; CWHArray<NGamePropertyListManager::CGamePropertySubItem *,NGamePropertyListManager::CGamePropertySubItem * const &>::RemoveAll
PUBLIC	??A?$CWHArray@PAVCGamePropertySubItem@NGamePropertyListManager@@ABQAV12@@@QAEAAPAVCGamePropertySubItem@NGamePropertyListManager@@H@Z ; CWHArray<NGamePropertyListManager::CGamePropertySubItem *,NGamePropertyListManager::CGamePropertySubItem * const &>::operator[]
PUBLIC	?AllocMemory@?$CWHArray@PAVCGamePropertySubItem@NGamePropertyListManager@@ABQAV12@@@QAEXH@Z ; CWHArray<NGamePropertyListManager::CGamePropertySubItem *,NGamePropertyListManager::CGamePropertySubItem * const &>::AllocMemory
PUBLIC	??_G?$CWHArray@PAVCGamePropertySubItem@NGamePropertyListManager@@ABQAV12@@@UAEPAXI@Z ; CWHArray<NGamePropertyListManager::CGamePropertySubItem *,NGamePropertyListManager::CGamePropertySubItem * const &>::`scalar deleting destructor'
PUBLIC	??0CGamePropertyListManager@NGamePropertyListManager@@QAE@XZ ; NGamePropertyListManager::CGamePropertyListManager::CGamePropertyListManager
PUBLIC	??1CGamePropertyListManager@NGamePropertyListManager@@UAE@XZ ; NGamePropertyListManager::CGamePropertyListManager::~CGamePropertyListManager
PUBLIC	?ResetPropertyListManager@CGamePropertyListManager@NGamePropertyListManager@@QAEXXZ ; NGamePropertyListManager::CGamePropertyListManager::ResetPropertyListManager
PUBLIC	?CleanPropertyTypeItem@CGamePropertyListManager@NGamePropertyListManager@@QAEXXZ ; NGamePropertyListManager::CGamePropertyListManager::CleanPropertyTypeItem
PUBLIC	?CleanPropertyRelatItem@CGamePropertyListManager@NGamePropertyListManager@@QAEXXZ ; NGamePropertyListManager::CGamePropertyListManager::CleanPropertyRelatItem
PUBLIC	?CleanPropertyItem@CGamePropertyListManager@NGamePropertyListManager@@QAEXXZ ; NGamePropertyListManager::CGamePropertyListManager::CleanPropertyItem
PUBLIC	?CleanPropertySubItem@CGamePropertyListManager@NGamePropertyListManager@@QAEXXZ ; NGamePropertyListManager::CGamePropertyListManager::CleanPropertySubItem
PUBLIC	?DisusePropertyTypeItem@CGamePropertyListManager@NGamePropertyListManager@@QAEXXZ ; NGamePropertyListManager::CGamePropertyListManager::DisusePropertyTypeItem
PUBLIC	?DisusePropertyRelatItem@CGamePropertyListManager@NGamePropertyListManager@@QAEXXZ ; NGamePropertyListManager::CGamePropertyListManager::DisusePropertyRelatItem
PUBLIC	?DisusePropertyItem@CGamePropertyListManager@NGamePropertyListManager@@QAEXXZ ; NGamePropertyListManager::CGamePropertyListManager::DisusePropertyItem
PUBLIC	?DisusePropertySubItem@CGamePropertyListManager@NGamePropertyListManager@@QAEXXZ ; NGamePropertyListManager::CGamePropertyListManager::DisusePropertySubItem
PUBLIC	?InsertGamePropertyTypeItem@CGamePropertyListManager@NGamePropertyListManager@@QAE_NPAUtagPropertyTypeItem@@@Z ; NGamePropertyListManager::CGamePropertyListManager::InsertGamePropertyTypeItem
PUBLIC	?InsertGamePropertyRelatItem@CGamePropertyListManager@NGamePropertyListManager@@QAE_NPAUtagPropertyRelatItem@@@Z ; NGamePropertyListManager::CGamePropertyListManager::InsertGamePropertyRelatItem
PUBLIC	?InsertGamePropertyItem@CGamePropertyListManager@NGamePropertyListManager@@QAE_NPAUtagPropertyItem@@@Z ; NGamePropertyListManager::CGamePropertyListManager::InsertGamePropertyItem
PUBLIC	?InsertGamePropertySubItem@CGamePropertyListManager@NGamePropertyListManager@@QAE_NPAUtagPropertySubItem@@@Z ; NGamePropertyListManager::CGamePropertyListManager::InsertGamePropertySubItem
PUBLIC	?DeleteGamePropertyTypeItem@CGamePropertyListManager@NGamePropertyListManager@@QAE_NK@Z ; NGamePropertyListManager::CGamePropertyListManager::DeleteGamePropertyTypeItem
PUBLIC	?DeleteGamePropertyItem@CGamePropertyListManager@NGamePropertyListManager@@QAE_NK@Z ; NGamePropertyListManager::CGamePropertyListManager::DeleteGamePropertyItem
PUBLIC	?EmunGamePropertyTypeItem@CGamePropertyListManager@NGamePropertyListManager@@QAEPAVCGamePropertyTypeItem@2@AAPAU__POSITION@@@Z ; NGamePropertyListManager::CGamePropertyListManager::EmunGamePropertyTypeItem
PUBLIC	?EmunGamePropertyRelatItem@CGamePropertyListManager@NGamePropertyListManager@@QAEPAVCGamePropertyRelatItem@2@AAPAU__POSITION@@@Z ; NGamePropertyListManager::CGamePropertyListManager::EmunGamePropertyRelatItem
PUBLIC	?EmunGamePropertyItem@CGamePropertyListManager@NGamePropertyListManager@@QAEPAVCGamePropertyItem@2@AAPAU__POSITION@@@Z ; NGamePropertyListManager::CGamePropertyListManager::EmunGamePropertyItem
PUBLIC	?EmunGamePropertySubItem@CGamePropertyListManager@NGamePropertyListManager@@QAEPAVCGamePropertySubItem@2@AAPAU__POSITION@@@Z ; NGamePropertyListManager::CGamePropertyListManager::EmunGamePropertySubItem
PUBLIC	?SearchGamePropertyItem@CGamePropertyListManager@NGamePropertyListManager@@QAEPAVCGamePropertyItem@2@K@Z ; NGamePropertyListManager::CGamePropertyListManager::SearchGamePropertyItem
PUBLIC	??_GCGamePropertyListManager@NGamePropertyListManager@@UAEPAXI@Z ; NGamePropertyListManager::CGamePropertyListManager::`scalar deleting destructor'
PUBLIC	??0CPair@?$CMap@KKPAVCGamePropertyTypeItem@NGamePropertyListManager@@AAPAV12@@@IAE@K@Z ; CMap<unsigned long,unsigned long,NGamePropertyListManager::CGamePropertyTypeItem *,NGamePropertyListManager::CGamePropertyTypeItem * &>::CPair::CPair
PUBLIC	??0CAssoc@?$CMap@KKPAVCGamePropertyTypeItem@NGamePropertyListManager@@AAPAV12@@@QAE@K@Z ; CMap<unsigned long,unsigned long,NGamePropertyListManager::CGamePropertyTypeItem *,NGamePropertyListManager::CGamePropertyTypeItem * &>::CAssoc::CAssoc
PUBLIC	??$CompareElements@KK@@YGHPBK0@Z		; CompareElements<unsigned long,unsigned long>
PUBLIC	??$SerializeElements@K@@YGXAAVCArchive@@PAKH@Z	; SerializeElements<unsigned long>
PUBLIC	??$SerializeElements@PAVCGamePropertyTypeItem@NGamePropertyListManager@@@@YGXAAVCArchive@@PAPAVCGamePropertyTypeItem@NGamePropertyListManager@@H@Z ; SerializeElements<NGamePropertyListManager::CGamePropertyTypeItem *>
PUBLIC	??$DumpElements@K@@YGXAAVCDumpContext@@PBKH@Z	; DumpElements<unsigned long>
PUBLIC	??$DumpElements@PAVCGamePropertyTypeItem@NGamePropertyListManager@@@@YGXAAVCDumpContext@@PBQAVCGamePropertyTypeItem@NGamePropertyListManager@@H@Z ; DumpElements<NGamePropertyListManager::CGamePropertyTypeItem *>
PUBLIC	??0CPair@?$CMap@KKPAVCGamePropertyRelatItem@NGamePropertyListManager@@AAPAV12@@@IAE@K@Z ; CMap<unsigned long,unsigned long,NGamePropertyListManager::CGamePropertyRelatItem *,NGamePropertyListManager::CGamePropertyRelatItem * &>::CPair::CPair
PUBLIC	??0CAssoc@?$CMap@KKPAVCGamePropertyRelatItem@NGamePropertyListManager@@AAPAV12@@@QAE@K@Z ; CMap<unsigned long,unsigned long,NGamePropertyListManager::CGamePropertyRelatItem *,NGamePropertyListManager::CGamePropertyRelatItem * &>::CAssoc::CAssoc
PUBLIC	??$SerializeElements@PAVCGamePropertyRelatItem@NGamePropertyListManager@@@@YGXAAVCArchive@@PAPAVCGamePropertyRelatItem@NGamePropertyListManager@@H@Z ; SerializeElements<NGamePropertyListManager::CGamePropertyRelatItem *>
PUBLIC	??$DumpElements@PAVCGamePropertyRelatItem@NGamePropertyListManager@@@@YGXAAVCDumpContext@@PBQAVCGamePropertyRelatItem@NGamePropertyListManager@@H@Z ; DumpElements<NGamePropertyListManager::CGamePropertyRelatItem *>
PUBLIC	??0CPair@?$CMap@KKPAVCGamePropertyItem@NGamePropertyListManager@@AAPAV12@@@IAE@K@Z ; CMap<unsigned long,unsigned long,NGamePropertyListManager::CGamePropertyItem *,NGamePropertyListManager::CGamePropertyItem * &>::CPair::CPair
PUBLIC	??0CAssoc@?$CMap@KKPAVCGamePropertyItem@NGamePropertyListManager@@AAPAV12@@@QAE@K@Z ; CMap<unsigned long,unsigned long,NGamePropertyListManager::CGamePropertyItem *,NGamePropertyListManager::CGamePropertyItem * &>::CAssoc::CAssoc
PUBLIC	??$SerializeElements@PAVCGamePropertyItem@NGamePropertyListManager@@@@YGXAAVCArchive@@PAPAVCGamePropertyItem@NGamePropertyListManager@@H@Z ; SerializeElements<NGamePropertyListManager::CGamePropertyItem *>
PUBLIC	??$DumpElements@PAVCGamePropertyItem@NGamePropertyListManager@@@@YGXAAVCDumpContext@@PBQAVCGamePropertyItem@NGamePropertyListManager@@H@Z ; DumpElements<NGamePropertyListManager::CGamePropertyItem *>
PUBLIC	??0CPair@?$CMap@KKPAVCGamePropertySubItem@NGamePropertyListManager@@AAPAV12@@@IAE@K@Z ; CMap<unsigned long,unsigned long,NGamePropertyListManager::CGamePropertySubItem *,NGamePropertyListManager::CGamePropertySubItem * &>::CPair::CPair
PUBLIC	??0CAssoc@?$CMap@KKPAVCGamePropertySubItem@NGamePropertyListManager@@AAPAV12@@@QAE@K@Z ; CMap<unsigned long,unsigned long,NGamePropertyListManager::CGamePropertySubItem *,NGamePropertyListManager::CGamePropertySubItem * &>::CAssoc::CAssoc
PUBLIC	??$SerializeElements@PAVCGamePropertySubItem@NGamePropertyListManager@@@@YGXAAVCArchive@@PAPAVCGamePropertySubItem@NGamePropertyListManager@@H@Z ; SerializeElements<NGamePropertyListManager::CGamePropertySubItem *>
PUBLIC	??$DumpElements@PAVCGamePropertySubItem@NGamePropertyListManager@@@@YGXAAVCDumpContext@@PBQAVCGamePropertySubItem@NGamePropertyListManager@@H@Z ; DumpElements<NGamePropertyListManager::CGamePropertySubItem *>
PUBLIC	??_C@_0HC@HBCNBCLF@c?3?2program?5files?5?$CIx86?$CJ?2microsof@ ; `string'
PUBLIC	??_C@_05PLCFPPOI@with?5@			; `string'
PUBLIC	??_C@_09HCLNAIDE@?5elements@			; `string'
PUBLIC	??_C@_01EEMJAFIK@?6@				; `string'
PUBLIC	??_R1A@?0A@EA@CObject@@8			; CObject::`RTTI Base Class Descriptor at (0,-1,0,64)'
PUBLIC	??_R0?AVCObject@@@8				; CObject `RTTI Type Descriptor'
PUBLIC	??_R3CObject@@8					; CObject::`RTTI Class Hierarchy Descriptor'
PUBLIC	??_R2CObject@@8					; CObject::`RTTI Base Class Array'
PUBLIC	??_7?$CMap@KKPAVCGamePropertyTypeItem@NGamePropertyListManager@@AAPAV12@@@6B@ ; CMap<unsigned long,unsigned long,NGamePropertyListManager::CGamePropertyTypeItem *,NGamePropertyListManager::CGamePropertyTypeItem * &>::`vftable'
PUBLIC	??_7?$CMap@KKPAVCGamePropertyRelatItem@NGamePropertyListManager@@AAPAV12@@@6B@ ; CMap<unsigned long,unsigned long,NGamePropertyListManager::CGamePropertyRelatItem *,NGamePropertyListManager::CGamePropertyRelatItem * &>::`vftable'
PUBLIC	??_7?$CMap@KKPAVCGamePropertyItem@NGamePropertyListManager@@AAPAV12@@@6B@ ; CMap<unsigned long,unsigned long,NGamePropertyListManager::CGamePropertyItem *,NGamePropertyListManager::CGamePropertyItem * &>::`vftable'
PUBLIC	??_7?$CMap@KKPAVCGamePropertySubItem@NGamePropertyListManager@@AAPAV12@@@6B@ ; CMap<unsigned long,unsigned long,NGamePropertyListManager::CGamePropertySubItem *,NGamePropertyListManager::CGamePropertySubItem * &>::`vftable'
PUBLIC	??_7?$CWHArray@PAVCGamePropertyTypeItem@NGamePropertyListManager@@ABQAV12@@@6B@ ; CWHArray<NGamePropertyListManager::CGamePropertyTypeItem *,NGamePropertyListManager::CGamePropertyTypeItem * const &>::`vftable'
PUBLIC	??_7?$CWHArray@PAVCGamePropertyRelatItem@NGamePropertyListManager@@ABQAV12@@@6B@ ; CWHArray<NGamePropertyListManager::CGamePropertyRelatItem *,NGamePropertyListManager::CGamePropertyRelatItem * const &>::`vftable'
PUBLIC	??_7?$CWHArray@PAVCGamePropertyItem@NGamePropertyListManager@@ABQAV12@@@6B@ ; CWHArray<NGamePropertyListManager::CGamePropertyItem *,NGamePropertyListManager::CGamePropertyItem * const &>::`vftable'
PUBLIC	??_7?$CWHArray@PAVCGamePropertySubItem@NGamePropertyListManager@@ABQAV12@@@6B@ ; CWHArray<NGamePropertyListManager::CGamePropertySubItem *,NGamePropertyListManager::CGamePropertySubItem * const &>::`vftable'
PUBLIC	??_7CGamePropertyListManager@NGamePropertyListManager@@6B@ ; NGamePropertyListManager::CGamePropertyListManager::`vftable'
PUBLIC	?__LINE__Var@?0???1CGamePropertyListManager@NGamePropertyListManager@@UAE@XZ@4JA ; `NGamePropertyListManager::CGamePropertyListManager::~CGamePropertyListManager'::`1'::__LINE__Var
PUBLIC	??_C@_0FG@GCELCLHM@g?3?2?M?x?$LK?$PM?2happygamewh?2?$LH?$PO?N?q?$LG?K?2?O?$LF?M?$LD@ ; `string'
PUBLIC	?__LINE__Var@?0??InsertGamePropertyTypeItem@CGamePropertyListManager@NGamePropertyListManager@@QAE_NPAUtagPropertyTypeItem@@@Z@4JA ; `NGamePropertyListManager::CGamePropertyListManager::InsertGamePropertyTypeItem'::`1'::__LINE__Var
PUBLIC	?__LINE__Var@?0??InsertGamePropertyRelatItem@CGamePropertyListManager@NGamePropertyListManager@@QAE_NPAUtagPropertyRelatItem@@@Z@4JA ; `NGamePropertyListManager::CGamePropertyListManager::InsertGamePropertyRelatItem'::`1'::__LINE__Var
PUBLIC	?__LINE__Var@?0??InsertGamePropertyItem@CGamePropertyListManager@NGamePropertyListManager@@QAE_NPAUtagPropertyItem@@@Z@4JA ; `NGamePropertyListManager::CGamePropertyListManager::InsertGamePropertyItem'::`1'::__LINE__Var
PUBLIC	?__LINE__Var@?0??InsertGamePropertySubItem@CGamePropertyListManager@NGamePropertyListManager@@QAE_NPAUtagPropertySubItem@@@Z@4JA ; `NGamePropertyListManager::CGamePropertyListManager::InsertGamePropertySubItem'::`1'::__LINE__Var
PUBLIC	??_C@_0DF@LDFGAABH@g?3?2?M?x?$LK?$PM?2happygamewh?2?$LH?$PO?N?q?$LG?K?2?O?$LF?M?$LD@ ; `string'
PUBLIC	??_C@_03OHJIHPJH@?6?7?$FL@			; `string'
PUBLIC	??_C@_04OAFLPOMH@?$FN?5?$DN?5@			; `string'
PUBLIC	??_R4?$CWHArray@PAVCGamePropertyTypeItem@NGamePropertyListManager@@ABQAV12@@@6B@ ; CWHArray<NGamePropertyListManager::CGamePropertyTypeItem *,NGamePropertyListManager::CGamePropertyTypeItem * const &>::`RTTI Complete Object Locator'
PUBLIC	??_R0?AV?$CWHArray@PAVCGamePropertyTypeItem@NGamePropertyListManager@@ABQAV12@@@@8 ; CWHArray<NGamePropertyListManager::CGamePropertyTypeItem *,NGamePropertyListManager::CGamePropertyTypeItem * const &> `RTTI Type Descriptor'
PUBLIC	??_R3?$CWHArray@PAVCGamePropertyTypeItem@NGamePropertyListManager@@ABQAV12@@@8 ; CWHArray<NGamePropertyListManager::CGamePropertyTypeItem *,NGamePropertyListManager::CGamePropertyTypeItem * const &>::`RTTI Class Hierarchy Descriptor'
PUBLIC	??_R2?$CWHArray@PAVCGamePropertyTypeItem@NGamePropertyListManager@@ABQAV12@@@8 ; CWHArray<NGamePropertyListManager::CGamePropertyTypeItem *,NGamePropertyListManager::CGamePropertyTypeItem * const &>::`RTTI Base Class Array'
PUBLIC	??_R1A@?0A@EA@?$CWHArray@PAVCGamePropertyTypeItem@NGamePropertyListManager@@ABQAV12@@@8 ; CWHArray<NGamePropertyListManager::CGamePropertyTypeItem *,NGamePropertyListManager::CGamePropertyTypeItem * const &>::`RTTI Base Class Descriptor at (0,-1,0,64)'
PUBLIC	??_R4?$CWHArray@PAVCGamePropertyRelatItem@NGamePropertyListManager@@ABQAV12@@@6B@ ; CWHArray<NGamePropertyListManager::CGamePropertyRelatItem *,NGamePropertyListManager::CGamePropertyRelatItem * const &>::`RTTI Complete Object Locator'
PUBLIC	??_R0?AV?$CWHArray@PAVCGamePropertyRelatItem@NGamePropertyListManager@@ABQAV12@@@@8 ; CWHArray<NGamePropertyListManager::CGamePropertyRelatItem *,NGamePropertyListManager::CGamePropertyRelatItem * const &> `RTTI Type Descriptor'
PUBLIC	??_R3?$CWHArray@PAVCGamePropertyRelatItem@NGamePropertyListManager@@ABQAV12@@@8 ; CWHArray<NGamePropertyListManager::CGamePropertyRelatItem *,NGamePropertyListManager::CGamePropertyRelatItem * const &>::`RTTI Class Hierarchy Descriptor'
PUBLIC	??_R2?$CWHArray@PAVCGamePropertyRelatItem@NGamePropertyListManager@@ABQAV12@@@8 ; CWHArray<NGamePropertyListManager::CGamePropertyRelatItem *,NGamePropertyListManager::CGamePropertyRelatItem * const &>::`RTTI Base Class Array'
PUBLIC	??_R1A@?0A@EA@?$CWHArray@PAVCGamePropertyRelatItem@NGamePropertyListManager@@ABQAV12@@@8 ; CWHArray<NGamePropertyListManager::CGamePropertyRelatItem *,NGamePropertyListManager::CGamePropertyRelatItem * const &>::`RTTI Base Class Descriptor at (0,-1,0,64)'
PUBLIC	??_R4?$CWHArray@PAVCGamePropertyItem@NGamePropertyListManager@@ABQAV12@@@6B@ ; CWHArray<NGamePropertyListManager::CGamePropertyItem *,NGamePropertyListManager::CGamePropertyItem * const &>::`RTTI Complete Object Locator'
PUBLIC	??_R0?AV?$CWHArray@PAVCGamePropertyItem@NGamePropertyListManager@@ABQAV12@@@@8 ; CWHArray<NGamePropertyListManager::CGamePropertyItem *,NGamePropertyListManager::CGamePropertyItem * const &> `RTTI Type Descriptor'
PUBLIC	??_R3?$CWHArray@PAVCGamePropertyItem@NGamePropertyListManager@@ABQAV12@@@8 ; CWHArray<NGamePropertyListManager::CGamePropertyItem *,NGamePropertyListManager::CGamePropertyItem * const &>::`RTTI Class Hierarchy Descriptor'
PUBLIC	??_R2?$CWHArray@PAVCGamePropertyItem@NGamePropertyListManager@@ABQAV12@@@8 ; CWHArray<NGamePropertyListManager::CGamePropertyItem *,NGamePropertyListManager::CGamePropertyItem * const &>::`RTTI Base Class Array'
PUBLIC	??_R1A@?0A@EA@?$CWHArray@PAVCGamePropertyItem@NGamePropertyListManager@@ABQAV12@@@8 ; CWHArray<NGamePropertyListManager::CGamePropertyItem *,NGamePropertyListManager::CGamePropertyItem * const &>::`RTTI Base Class Descriptor at (0,-1,0,64)'
PUBLIC	??_R4?$CWHArray@PAVCGamePropertySubItem@NGamePropertyListManager@@ABQAV12@@@6B@ ; CWHArray<NGamePropertyListManager::CGamePropertySubItem *,NGamePropertyListManager::CGamePropertySubItem * const &>::`RTTI Complete Object Locator'
PUBLIC	??_R0?AV?$CWHArray@PAVCGamePropertySubItem@NGamePropertyListManager@@ABQAV12@@@@8 ; CWHArray<NGamePropertyListManager::CGamePropertySubItem *,NGamePropertyListManager::CGamePropertySubItem * const &> `RTTI Type Descriptor'
PUBLIC	??_R3?$CWHArray@PAVCGamePropertySubItem@NGamePropertyListManager@@ABQAV12@@@8 ; CWHArray<NGamePropertyListManager::CGamePropertySubItem *,NGamePropertyListManager::CGamePropertySubItem * const &>::`RTTI Class Hierarchy Descriptor'
PUBLIC	??_R2?$CWHArray@PAVCGamePropertySubItem@NGamePropertyListManager@@ABQAV12@@@8 ; CWHArray<NGamePropertyListManager::CGamePropertySubItem *,NGamePropertyListManager::CGamePropertySubItem * const &>::`RTTI Base Class Array'
PUBLIC	??_R1A@?0A@EA@?$CWHArray@PAVCGamePropertySubItem@NGamePropertyListManager@@ABQAV12@@@8 ; CWHArray<NGamePropertyListManager::CGamePropertySubItem *,NGamePropertyListManager::CGamePropertySubItem * const &>::`RTTI Base Class Descriptor at (0,-1,0,64)'
PUBLIC	??_R4?$CMap@KKPAVCGamePropertyTypeItem@NGamePropertyListManager@@AAPAV12@@@6B@ ; CMap<unsigned long,unsigned long,NGamePropertyListManager::CGamePropertyTypeItem *,NGamePropertyListManager::CGamePropertyTypeItem * &>::`RTTI Complete Object Locator'
PUBLIC	??_R0?AV?$CMap@KKPAVCGamePropertyTypeItem@NGamePropertyListManager@@AAPAV12@@@@8 ; CMap<unsigned long,unsigned long,NGamePropertyListManager::CGamePropertyTypeItem *,NGamePropertyListManager::CGamePropertyTypeItem * &> `RTTI Type Descriptor'
PUBLIC	??_R3?$CMap@KKPAVCGamePropertyTypeItem@NGamePropertyListManager@@AAPAV12@@@8 ; CMap<unsigned long,unsigned long,NGamePropertyListManager::CGamePropertyTypeItem *,NGamePropertyListManager::CGamePropertyTypeItem * &>::`RTTI Class Hierarchy Descriptor'
PUBLIC	??_R2?$CMap@KKPAVCGamePropertyTypeItem@NGamePropertyListManager@@AAPAV12@@@8 ; CMap<unsigned long,unsigned long,NGamePropertyListManager::CGamePropertyTypeItem *,NGamePropertyListManager::CGamePropertyTypeItem * &>::`RTTI Base Class Array'
PUBLIC	??_R1A@?0A@EA@?$CMap@KKPAVCGamePropertyTypeItem@NGamePropertyListManager@@AAPAV12@@@8 ; CMap<unsigned long,unsigned long,NGamePropertyListManager::CGamePropertyTypeItem *,NGamePropertyListManager::CGamePropertyTypeItem * &>::`RTTI Base Class Descriptor at (0,-1,0,64)'
PUBLIC	??_R4?$CMap@KKPAVCGamePropertyRelatItem@NGamePropertyListManager@@AAPAV12@@@6B@ ; CMap<unsigned long,unsigned long,NGamePropertyListManager::CGamePropertyRelatItem *,NGamePropertyListManager::CGamePropertyRelatItem * &>::`RTTI Complete Object Locator'
PUBLIC	??_R0?AV?$CMap@KKPAVCGamePropertyRelatItem@NGamePropertyListManager@@AAPAV12@@@@8 ; CMap<unsigned long,unsigned long,NGamePropertyListManager::CGamePropertyRelatItem *,NGamePropertyListManager::CGamePropertyRelatItem * &> `RTTI Type Descriptor'
PUBLIC	??_R3?$CMap@KKPAVCGamePropertyRelatItem@NGamePropertyListManager@@AAPAV12@@@8 ; CMap<unsigned long,unsigned long,NGamePropertyListManager::CGamePropertyRelatItem *,NGamePropertyListManager::CGamePropertyRelatItem * &>::`RTTI Class Hierarchy Descriptor'
PUBLIC	??_R2?$CMap@KKPAVCGamePropertyRelatItem@NGamePropertyListManager@@AAPAV12@@@8 ; CMap<unsigned long,unsigned long,NGamePropertyListManager::CGamePropertyRelatItem *,NGamePropertyListManager::CGamePropertyRelatItem * &>::`RTTI Base Class Array'
PUBLIC	??_R1A@?0A@EA@?$CMap@KKPAVCGamePropertyRelatItem@NGamePropertyListManager@@AAPAV12@@@8 ; CMap<unsigned long,unsigned long,NGamePropertyListManager::CGamePropertyRelatItem *,NGamePropertyListManager::CGamePropertyRelatItem * &>::`RTTI Base Class Descriptor at (0,-1,0,64)'
PUBLIC	??_R4?$CMap@KKPAVCGamePropertyItem@NGamePropertyListManager@@AAPAV12@@@6B@ ; CMap<unsigned long,unsigned long,NGamePropertyListManager::CGamePropertyItem *,NGamePropertyListManager::CGamePropertyItem * &>::`RTTI Complete Object Locator'
PUBLIC	??_R0?AV?$CMap@KKPAVCGamePropertyItem@NGamePropertyListManager@@AAPAV12@@@@8 ; CMap<unsigned long,unsigned long,NGamePropertyListManager::CGamePropertyItem *,NGamePropertyListManager::CGamePropertyItem * &> `RTTI Type Descriptor'
PUBLIC	??_R3?$CMap@KKPAVCGamePropertyItem@NGamePropertyListManager@@AAPAV12@@@8 ; CMap<unsigned long,unsigned long,NGamePropertyListManager::CGamePropertyItem *,NGamePropertyListManager::CGamePropertyItem * &>::`RTTI Class Hierarchy Descriptor'
PUBLIC	??_R2?$CMap@KKPAVCGamePropertyItem@NGamePropertyListManager@@AAPAV12@@@8 ; CMap<unsigned long,unsigned long,NGamePropertyListManager::CGamePropertyItem *,NGamePropertyListManager::CGamePropertyItem * &>::`RTTI Base Class Array'
PUBLIC	??_R1A@?0A@EA@?$CMap@KKPAVCGamePropertyItem@NGamePropertyListManager@@AAPAV12@@@8 ; CMap<unsigned long,unsigned long,NGamePropertyListManager::CGamePropertyItem *,NGamePropertyListManager::CGamePropertyItem * &>::`RTTI Base Class Descriptor at (0,-1,0,64)'
PUBLIC	??_R4?$CMap@KKPAVCGamePropertySubItem@NGamePropertyListManager@@AAPAV12@@@6B@ ; CMap<unsigned long,unsigned long,NGamePropertyListManager::CGamePropertySubItem *,NGamePropertyListManager::CGamePropertySubItem * &>::`RTTI Complete Object Locator'
PUBLIC	??_R0?AV?$CMap@KKPAVCGamePropertySubItem@NGamePropertyListManager@@AAPAV12@@@@8 ; CMap<unsigned long,unsigned long,NGamePropertyListManager::CGamePropertySubItem *,NGamePropertyListManager::CGamePropertySubItem * &> `RTTI Type Descriptor'
PUBLIC	??_R3?$CMap@KKPAVCGamePropertySubItem@NGamePropertyListManager@@AAPAV12@@@8 ; CMap<unsigned long,unsigned long,NGamePropertyListManager::CGamePropertySubItem *,NGamePropertyListManager::CGamePropertySubItem * &>::`RTTI Class Hierarchy Descriptor'
PUBLIC	??_R2?$CMap@KKPAVCGamePropertySubItem@NGamePropertyListManager@@AAPAV12@@@8 ; CMap<unsigned long,unsigned long,NGamePropertyListManager::CGamePropertySubItem *,NGamePropertyListManager::CGamePropertySubItem * &>::`RTTI Base Class Array'
PUBLIC	??_R1A@?0A@EA@?$CMap@KKPAVCGamePropertySubItem@NGamePropertyListManager@@AAPAV12@@@8 ; CMap<unsigned long,unsigned long,NGamePropertyListManager::CGamePropertySubItem *,NGamePropertyListManager::CGamePropertySubItem * &>::`RTTI Base Class Descriptor at (0,-1,0,64)'
PUBLIC	??_R4CGamePropertyListManager@NGamePropertyListManager@@6B@ ; NGamePropertyListManager::CGamePropertyListManager::`RTTI Complete Object Locator'
PUBLIC	??_R0?AVCGamePropertyListManager@NGamePropertyListManager@@@8 ; NGamePropertyListManager::CGamePropertyListManager `RTTI Type Descriptor'
PUBLIC	??_R3CGamePropertyListManager@NGamePropertyListManager@@8 ; NGamePropertyListManager::CGamePropertyListManager::`RTTI Class Hierarchy Descriptor'
PUBLIC	??_R2CGamePropertyListManager@NGamePropertyListManager@@8 ; NGamePropertyListManager::CGamePropertyListManager::`RTTI Base Class Array'
PUBLIC	??_R1A@?0A@EA@CGamePropertyListManager@NGamePropertyListManager@@8 ; NGamePropertyListManager::CGamePropertyListManager::`RTTI Base Class Descriptor at (0,-1,0,64)'
EXTRN	??2@YAPAXI@Z:PROC				; operator new
EXTRN	??3@YAXPAXI@Z:PROC				; operator delete
EXTRN	?__global_delete@@YAXPAXI@Z:PROC		; __global_delete
EXTRN	??_U@YAPAXI@Z:PROC				; operator new[]
EXTRN	??_V@YAXPAX@Z:PROC				; operator delete[]
EXTRN	_memcpy:PROC
EXTRN	_memmove:PROC
EXTRN	_memset:PROC
EXTRN	__imp__PeekMessageA@20:PROC
EXTRN	__imp__PostQuitMessage@4:PROC
EXTRN	__imp__ldiv:PROC
EXTRN	__imp___CrtDbgReport:PROC
EXTRN	?AfxAssertValidObject@@YGXPBVCObject@@PBDH@Z:PROC ; AfxAssertValidObject
EXTRN	?AfxThrowInvalidArgException@@YGXXZ:PROC	; AfxThrowInvalidArgException
EXTRN	?GetRuntimeClass@CObject@@UBEPAUCRuntimeClass@@XZ:PROC ; CObject::GetRuntimeClass
EXTRN	??1CObject@@UAE@XZ:PROC				; CObject::~CObject
EXTRN	??3CObject@@SGXPAX@Z:PROC			; CObject::operator delete
EXTRN	??0CObject@@IAE@XZ:PROC				; CObject::CObject
EXTRN	?Serialize@CObject@@UAEXAAVCArchive@@@Z:PROC	; CObject::Serialize
EXTRN	?AssertValid@CObject@@UBEXXZ:PROC		; CObject::AssertValid
EXTRN	?Dump@CObject@@UBEXAAVCDumpContext@@@Z:PROC	; CObject::Dump
EXTRN	?AfxIsValidAddress@@YGHPBXIH@Z:PROC		; AfxIsValidAddress
EXTRN	??_U@YAPAXIPBDH@Z:PROC				; operator new[]
EXTRN	?IsStoring@CArchive@@QBEHXZ:PROC		; CArchive::IsStoring
EXTRN	?EnsureRead@CArchive@@QAEXPAXI@Z:PROC		; CArchive::EnsureRead
EXTRN	?Write@CArchive@@QAEXPBXI@Z:PROC		; CArchive::Write
EXTRN	?ReadCount@CArchive@@QAEKXZ:PROC		; CArchive::ReadCount
EXTRN	?WriteCount@CArchive@@QAEXK@Z:PROC		; CArchive::WriteCount
EXTRN	?GetDepth@CDumpContext@@QBEHXZ:PROC		; CDumpContext::GetDepth
EXTRN	??6CDumpContext@@QAEAAV0@PBD@Z:PROC		; CDumpContext::operator<<
EXTRN	??6CDumpContext@@QAEAAV0@H@Z:PROC		; CDumpContext::operator<<
EXTRN	?Create@CPlex@@SGPAU1@AAPAU1@II@Z:PROC		; CPlex::Create
EXTRN	?FreeDataChain@CPlex@@QAEXXZ:PROC		; CPlex::FreeDataChain
EXTRN	??_E?$CMap@KKPAVCGamePropertyTypeItem@NGamePropertyListManager@@AAPAV12@@@UAEPAXI@Z:PROC ; CMap<unsigned long,unsigned long,NGamePropertyListManager::CGamePropertyTypeItem *,NGamePropertyListManager::CGamePropertyTypeItem * &>::`vector deleting destructor'
EXTRN	??_E?$CMap@KKPAVCGamePropertyRelatItem@NGamePropertyListManager@@AAPAV12@@@UAEPAXI@Z:PROC ; CMap<unsigned long,unsigned long,NGamePropertyListManager::CGamePropertyRelatItem *,NGamePropertyListManager::CGamePropertyRelatItem * &>::`vector deleting destructor'
EXTRN	??_E?$CMap@KKPAVCGamePropertyItem@NGamePropertyListManager@@AAPAV12@@@UAEPAXI@Z:PROC ; CMap<unsigned long,unsigned long,NGamePropertyListManager::CGamePropertyItem *,NGamePropertyListManager::CGamePropertyItem * &>::`vector deleting destructor'
EXTRN	??_E?$CMap@KKPAVCGamePropertySubItem@NGamePropertyListManager@@AAPAV12@@@UAEPAXI@Z:PROC ; CMap<unsigned long,unsigned long,NGamePropertyListManager::CGamePropertySubItem *,NGamePropertyListManager::CGamePropertySubItem * &>::`vector deleting destructor'
EXTRN	??_E?$CWHArray@PAVCGamePropertyTypeItem@NGamePropertyListManager@@ABQAV12@@@UAEPAXI@Z:PROC ; CWHArray<NGamePropertyListManager::CGamePropertyTypeItem *,NGamePropertyListManager::CGamePropertyTypeItem * const &>::`vector deleting destructor'
EXTRN	??_E?$CWHArray@PAVCGamePropertyRelatItem@NGamePropertyListManager@@ABQAV12@@@UAEPAXI@Z:PROC ; CWHArray<NGamePropertyListManager::CGamePropertyRelatItem *,NGamePropertyListManager::CGamePropertyRelatItem * const &>::`vector deleting destructor'
EXTRN	??_E?$CWHArray@PAVCGamePropertyItem@NGamePropertyListManager@@ABQAV12@@@UAEPAXI@Z:PROC ; CWHArray<NGamePropertyListManager::CGamePropertyItem *,NGamePropertyListManager::CGamePropertyItem * const &>::`vector deleting destructor'
EXTRN	??_E?$CWHArray@PAVCGamePropertySubItem@NGamePropertyListManager@@ABQAV12@@@UAEPAXI@Z:PROC ; CWHArray<NGamePropertyListManager::CGamePropertySubItem *,NGamePropertyListManager::CGamePropertySubItem * const &>::`vector deleting destructor'
EXTRN	??_ECGamePropertyListManager@NGamePropertyListManager@@UAEPAXI@Z:PROC ; NGamePropertyListManager::CGamePropertyListManager::`vector deleting destructor'
EXTRN	@__security_check_cookie@4:PROC
EXTRN	___CxxFrameHandler3:PROC
EXTRN	??_7type_info@@6B@:QWORD			; type_info::`vftable'
EXTRN	___security_cookie:DWORD
;	COMDAT ??_R1A@?0A@EA@CGamePropertyListManager@NGamePropertyListManager@@8
rdata$r	SEGMENT
??_R1A@?0A@EA@CGamePropertyListManager@NGamePropertyListManager@@8 DD FLAT:??_R0?AVCGamePropertyListManager@NGamePropertyListManager@@@8 ; NGamePropertyListManager::CGamePropertyListManager::`RTTI Base Class Descriptor at (0,-1,0,64)'
	DD	00H
	DD	00H
	DD	0ffffffffH
	DD	00H
	DD	040H
	DD	FLAT:??_R3CGamePropertyListManager@NGamePropertyListManager@@8
rdata$r	ENDS
;	COMDAT ??_R2CGamePropertyListManager@NGamePropertyListManager@@8
rdata$r	SEGMENT
??_R2CGamePropertyListManager@NGamePropertyListManager@@8 DD FLAT:??_R1A@?0A@EA@CGamePropertyListManager@NGamePropertyListManager@@8 ; NGamePropertyListManager::CGamePropertyListManager::`RTTI Base Class Array'
rdata$r	ENDS
;	COMDAT ??_R3CGamePropertyListManager@NGamePropertyListManager@@8
rdata$r	SEGMENT
??_R3CGamePropertyListManager@NGamePropertyListManager@@8 DD 00H ; NGamePropertyListManager::CGamePropertyListManager::`RTTI Class Hierarchy Descriptor'
	DD	00H
	DD	01H
	DD	FLAT:??_R2CGamePropertyListManager@NGamePropertyListManager@@8
rdata$r	ENDS
;	COMDAT ??_R0?AVCGamePropertyListManager@NGamePropertyListManager@@@8
data$r	SEGMENT
??_R0?AVCGamePropertyListManager@NGamePropertyListManager@@@8 DD FLAT:??_7type_info@@6B@ ; NGamePropertyListManager::CGamePropertyListManager `RTTI Type Descriptor'
	DD	00H
	DB	'.?AVCGamePropertyListManager@NGamePropertyListManager@@', 00H
data$r	ENDS
;	COMDAT ??_R4CGamePropertyListManager@NGamePropertyListManager@@6B@
rdata$r	SEGMENT
??_R4CGamePropertyListManager@NGamePropertyListManager@@6B@ DD 00H ; NGamePropertyListManager::CGamePropertyListManager::`RTTI Complete Object Locator'
	DD	00H
	DD	00H
	DD	FLAT:??_R0?AVCGamePropertyListManager@NGamePropertyListManager@@@8
	DD	FLAT:??_R3CGamePropertyListManager@NGamePropertyListManager@@8
rdata$r	ENDS
;	COMDAT ??_R1A@?0A@EA@?$CMap@KKPAVCGamePropertySubItem@NGamePropertyListManager@@AAPAV12@@@8
rdata$r	SEGMENT
??_R1A@?0A@EA@?$CMap@KKPAVCGamePropertySubItem@NGamePropertyListManager@@AAPAV12@@@8 DD FLAT:??_R0?AV?$CMap@KKPAVCGamePropertySubItem@NGamePropertyListManager@@AAPAV12@@@@8 ; CMap<unsigned long,unsigned long,NGamePropertyListManager::CGamePropertySubItem *,NGamePropertyListManager::CGamePropertySubItem * &>::`RTTI Base Class Descriptor at (0,-1,0,64)'
	DD	01H
	DD	00H
	DD	0ffffffffH
	DD	00H
	DD	040H
	DD	FLAT:??_R3?$CMap@KKPAVCGamePropertySubItem@NGamePropertyListManager@@AAPAV12@@@8
rdata$r	ENDS
;	COMDAT ??_R2?$CMap@KKPAVCGamePropertySubItem@NGamePropertyListManager@@AAPAV12@@@8
rdata$r	SEGMENT
??_R2?$CMap@KKPAVCGamePropertySubItem@NGamePropertyListManager@@AAPAV12@@@8 DD FLAT:??_R1A@?0A@EA@?$CMap@KKPAVCGamePropertySubItem@NGamePropertyListManager@@AAPAV12@@@8 ; CMap<unsigned long,unsigned long,NGamePropertyListManager::CGamePropertySubItem *,NGamePropertyListManager::CGamePropertySubItem * &>::`RTTI Base Class Array'
	DD	FLAT:??_R1A@?0A@EA@CObject@@8
rdata$r	ENDS
;	COMDAT ??_R3?$CMap@KKPAVCGamePropertySubItem@NGamePropertyListManager@@AAPAV12@@@8
rdata$r	SEGMENT
??_R3?$CMap@KKPAVCGamePropertySubItem@NGamePropertyListManager@@AAPAV12@@@8 DD 00H ; CMap<unsigned long,unsigned long,NGamePropertyListManager::CGamePropertySubItem *,NGamePropertyListManager::CGamePropertySubItem * &>::`RTTI Class Hierarchy Descriptor'
	DD	00H
	DD	02H
	DD	FLAT:??_R2?$CMap@KKPAVCGamePropertySubItem@NGamePropertyListManager@@AAPAV12@@@8
rdata$r	ENDS
;	COMDAT ??_R0?AV?$CMap@KKPAVCGamePropertySubItem@NGamePropertyListManager@@AAPAV12@@@@8
data$r	SEGMENT
??_R0?AV?$CMap@KKPAVCGamePropertySubItem@NGamePropertyListManager@@AAPAV12@@@@8 DD FLAT:??_7type_info@@6B@ ; CMap<unsigned long,unsigned long,NGamePropertyListManager::CGamePropertySubItem *,NGamePropertyListManager::CGamePropertySubItem * &> `RTTI Type Descriptor'
	DD	00H
	DB	'.?AV?$CMap@KKPAVCGamePropertySubItem@NGamePropertyListMa'
	DB	'nager@@AAPAV12@@@', 00H
data$r	ENDS
;	COMDAT ??_R4?$CMap@KKPAVCGamePropertySubItem@NGamePropertyListManager@@AAPAV12@@@6B@
rdata$r	SEGMENT
??_R4?$CMap@KKPAVCGamePropertySubItem@NGamePropertyListManager@@AAPAV12@@@6B@ DD 00H ; CMap<unsigned long,unsigned long,NGamePropertyListManager::CGamePropertySubItem *,NGamePropertyListManager::CGamePropertySubItem * &>::`RTTI Complete Object Locator'
	DD	00H
	DD	00H
	DD	FLAT:??_R0?AV?$CMap@KKPAVCGamePropertySubItem@NGamePropertyListManager@@AAPAV12@@@@8
	DD	FLAT:??_R3?$CMap@KKPAVCGamePropertySubItem@NGamePropertyListManager@@AAPAV12@@@8
rdata$r	ENDS
;	COMDAT ??_R1A@?0A@EA@?$CMap@KKPAVCGamePropertyItem@NGamePropertyListManager@@AAPAV12@@@8
rdata$r	SEGMENT
??_R1A@?0A@EA@?$CMap@KKPAVCGamePropertyItem@NGamePropertyListManager@@AAPAV12@@@8 DD FLAT:??_R0?AV?$CMap@KKPAVCGamePropertyItem@NGamePropertyListManager@@AAPAV12@@@@8 ; CMap<unsigned long,unsigned long,NGamePropertyListManager::CGamePropertyItem *,NGamePropertyListManager::CGamePropertyItem * &>::`RTTI Base Class Descriptor at (0,-1,0,64)'
	DD	01H
	DD	00H
	DD	0ffffffffH
	DD	00H
	DD	040H
	DD	FLAT:??_R3?$CMap@KKPAVCGamePropertyItem@NGamePropertyListManager@@AAPAV12@@@8
rdata$r	ENDS
;	COMDAT ??_R2?$CMap@KKPAVCGamePropertyItem@NGamePropertyListManager@@AAPAV12@@@8
rdata$r	SEGMENT
??_R2?$CMap@KKPAVCGamePropertyItem@NGamePropertyListManager@@AAPAV12@@@8 DD FLAT:??_R1A@?0A@EA@?$CMap@KKPAVCGamePropertyItem@NGamePropertyListManager@@AAPAV12@@@8 ; CMap<unsigned long,unsigned long,NGamePropertyListManager::CGamePropertyItem *,NGamePropertyListManager::CGamePropertyItem * &>::`RTTI Base Class Array'
	DD	FLAT:??_R1A@?0A@EA@CObject@@8
rdata$r	ENDS
;	COMDAT ??_R3?$CMap@KKPAVCGamePropertyItem@NGamePropertyListManager@@AAPAV12@@@8
rdata$r	SEGMENT
??_R3?$CMap@KKPAVCGamePropertyItem@NGamePropertyListManager@@AAPAV12@@@8 DD 00H ; CMap<unsigned long,unsigned long,NGamePropertyListManager::CGamePropertyItem *,NGamePropertyListManager::CGamePropertyItem * &>::`RTTI Class Hierarchy Descriptor'
	DD	00H
	DD	02H
	DD	FLAT:??_R2?$CMap@KKPAVCGamePropertyItem@NGamePropertyListManager@@AAPAV12@@@8
rdata$r	ENDS
;	COMDAT ??_R0?AV?$CMap@KKPAVCGamePropertyItem@NGamePropertyListManager@@AAPAV12@@@@8
data$r	SEGMENT
??_R0?AV?$CMap@KKPAVCGamePropertyItem@NGamePropertyListManager@@AAPAV12@@@@8 DD FLAT:??_7type_info@@6B@ ; CMap<unsigned long,unsigned long,NGamePropertyListManager::CGamePropertyItem *,NGamePropertyListManager::CGamePropertyItem * &> `RTTI Type Descriptor'
	DD	00H
	DB	'.?AV?$CMap@KKPAVCGamePropertyItem@NGamePropertyListManag'
	DB	'er@@AAPAV12@@@', 00H
data$r	ENDS
;	COMDAT ??_R4?$CMap@KKPAVCGamePropertyItem@NGamePropertyListManager@@AAPAV12@@@6B@
rdata$r	SEGMENT
??_R4?$CMap@KKPAVCGamePropertyItem@NGamePropertyListManager@@AAPAV12@@@6B@ DD 00H ; CMap<unsigned long,unsigned long,NGamePropertyListManager::CGamePropertyItem *,NGamePropertyListManager::CGamePropertyItem * &>::`RTTI Complete Object Locator'
	DD	00H
	DD	00H
	DD	FLAT:??_R0?AV?$CMap@KKPAVCGamePropertyItem@NGamePropertyListManager@@AAPAV12@@@@8
	DD	FLAT:??_R3?$CMap@KKPAVCGamePropertyItem@NGamePropertyListManager@@AAPAV12@@@8
rdata$r	ENDS
;	COMDAT ??_R1A@?0A@EA@?$CMap@KKPAVCGamePropertyRelatItem@NGamePropertyListManager@@AAPAV12@@@8
rdata$r	SEGMENT
??_R1A@?0A@EA@?$CMap@KKPAVCGamePropertyRelatItem@NGamePropertyListManager@@AAPAV12@@@8 DD FLAT:??_R0?AV?$CMap@KKPAVCGamePropertyRelatItem@NGamePropertyListManager@@AAPAV12@@@@8 ; CMap<unsigned long,unsigned long,NGamePropertyListManager::CGamePropertyRelatItem *,NGamePropertyListManager::CGamePropertyRelatItem * &>::`RTTI Base Class Descriptor at (0,-1,0,64)'
	DD	01H
	DD	00H
	DD	0ffffffffH
	DD	00H
	DD	040H
	DD	FLAT:??_R3?$CMap@KKPAVCGamePropertyRelatItem@NGamePropertyListManager@@AAPAV12@@@8
rdata$r	ENDS
;	COMDAT ??_R2?$CMap@KKPAVCGamePropertyRelatItem@NGamePropertyListManager@@AAPAV12@@@8
rdata$r	SEGMENT
??_R2?$CMap@KKPAVCGamePropertyRelatItem@NGamePropertyListManager@@AAPAV12@@@8 DD FLAT:??_R1A@?0A@EA@?$CMap@KKPAVCGamePropertyRelatItem@NGamePropertyListManager@@AAPAV12@@@8 ; CMap<unsigned long,unsigned long,NGamePropertyListManager::CGamePropertyRelatItem *,NGamePropertyListManager::CGamePropertyRelatItem * &>::`RTTI Base Class Array'
	DD	FLAT:??_R1A@?0A@EA@CObject@@8
rdata$r	ENDS
;	COMDAT ??_R3?$CMap@KKPAVCGamePropertyRelatItem@NGamePropertyListManager@@AAPAV12@@@8
rdata$r	SEGMENT
??_R3?$CMap@KKPAVCGamePropertyRelatItem@NGamePropertyListManager@@AAPAV12@@@8 DD 00H ; CMap<unsigned long,unsigned long,NGamePropertyListManager::CGamePropertyRelatItem *,NGamePropertyListManager::CGamePropertyRelatItem * &>::`RTTI Class Hierarchy Descriptor'
	DD	00H
	DD	02H
	DD	FLAT:??_R2?$CMap@KKPAVCGamePropertyRelatItem@NGamePropertyListManager@@AAPAV12@@@8
rdata$r	ENDS
;	COMDAT ??_R0?AV?$CMap@KKPAVCGamePropertyRelatItem@NGamePropertyListManager@@AAPAV12@@@@8
data$r	SEGMENT
??_R0?AV?$CMap@KKPAVCGamePropertyRelatItem@NGamePropertyListManager@@AAPAV12@@@@8 DD FLAT:??_7type_info@@6B@ ; CMap<unsigned long,unsigned long,NGamePropertyListManager::CGamePropertyRelatItem *,NGamePropertyListManager::CGamePropertyRelatItem * &> `RTTI Type Descriptor'
	DD	00H
	DB	'.?AV?$CMap@KKPAVCGamePropertyRelatItem@NGamePropertyList'
	DB	'Manager@@AAPAV12@@@', 00H
data$r	ENDS
;	COMDAT ??_R4?$CMap@KKPAVCGamePropertyRelatItem@NGamePropertyListManager@@AAPAV12@@@6B@
rdata$r	SEGMENT
??_R4?$CMap@KKPAVCGamePropertyRelatItem@NGamePropertyListManager@@AAPAV12@@@6B@ DD 00H ; CMap<unsigned long,unsigned long,NGamePropertyListManager::CGamePropertyRelatItem *,NGamePropertyListManager::CGamePropertyRelatItem * &>::`RTTI Complete Object Locator'
	DD	00H
	DD	00H
	DD	FLAT:??_R0?AV?$CMap@KKPAVCGamePropertyRelatItem@NGamePropertyListManager@@AAPAV12@@@@8
	DD	FLAT:??_R3?$CMap@KKPAVCGamePropertyRelatItem@NGamePropertyListManager@@AAPAV12@@@8
rdata$r	ENDS
;	COMDAT ??_R1A@?0A@EA@?$CMap@KKPAVCGamePropertyTypeItem@NGamePropertyListManager@@AAPAV12@@@8
rdata$r	SEGMENT
??_R1A@?0A@EA@?$CMap@KKPAVCGamePropertyTypeItem@NGamePropertyListManager@@AAPAV12@@@8 DD FLAT:??_R0?AV?$CMap@KKPAVCGamePropertyTypeItem@NGamePropertyListManager@@AAPAV12@@@@8 ; CMap<unsigned long,unsigned long,NGamePropertyListManager::CGamePropertyTypeItem *,NGamePropertyListManager::CGamePropertyTypeItem * &>::`RTTI Base Class Descriptor at (0,-1,0,64)'
	DD	01H
	DD	00H
	DD	0ffffffffH
	DD	00H
	DD	040H
	DD	FLAT:??_R3?$CMap@KKPAVCGamePropertyTypeItem@NGamePropertyListManager@@AAPAV12@@@8
rdata$r	ENDS
;	COMDAT ??_R2?$CMap@KKPAVCGamePropertyTypeItem@NGamePropertyListManager@@AAPAV12@@@8
rdata$r	SEGMENT
??_R2?$CMap@KKPAVCGamePropertyTypeItem@NGamePropertyListManager@@AAPAV12@@@8 DD FLAT:??_R1A@?0A@EA@?$CMap@KKPAVCGamePropertyTypeItem@NGamePropertyListManager@@AAPAV12@@@8 ; CMap<unsigned long,unsigned long,NGamePropertyListManager::CGamePropertyTypeItem *,NGamePropertyListManager::CGamePropertyTypeItem * &>::`RTTI Base Class Array'
	DD	FLAT:??_R1A@?0A@EA@CObject@@8
rdata$r	ENDS
;	COMDAT ??_R3?$CMap@KKPAVCGamePropertyTypeItem@NGamePropertyListManager@@AAPAV12@@@8
rdata$r	SEGMENT
??_R3?$CMap@KKPAVCGamePropertyTypeItem@NGamePropertyListManager@@AAPAV12@@@8 DD 00H ; CMap<unsigned long,unsigned long,NGamePropertyListManager::CGamePropertyTypeItem *,NGamePropertyListManager::CGamePropertyTypeItem * &>::`RTTI Class Hierarchy Descriptor'
	DD	00H
	DD	02H
	DD	FLAT:??_R2?$CMap@KKPAVCGamePropertyTypeItem@NGamePropertyListManager@@AAPAV12@@@8
rdata$r	ENDS
;	COMDAT ??_R0?AV?$CMap@KKPAVCGamePropertyTypeItem@NGamePropertyListManager@@AAPAV12@@@@8
data$r	SEGMENT
??_R0?AV?$CMap@KKPAVCGamePropertyTypeItem@NGamePropertyListManager@@AAPAV12@@@@8 DD FLAT:??_7type_info@@6B@ ; CMap<unsigned long,unsigned long,NGamePropertyListManager::CGamePropertyTypeItem *,NGamePropertyListManager::CGamePropertyTypeItem * &> `RTTI Type Descriptor'
	DD	00H
	DB	'.?AV?$CMap@KKPAVCGamePropertyTypeItem@NGamePropertyListM'
	DB	'anager@@AAPAV12@@@', 00H
data$r	ENDS
;	COMDAT ??_R4?$CMap@KKPAVCGamePropertyTypeItem@NGamePropertyListManager@@AAPAV12@@@6B@
rdata$r	SEGMENT
??_R4?$CMap@KKPAVCGamePropertyTypeItem@NGamePropertyListManager@@AAPAV12@@@6B@ DD 00H ; CMap<unsigned long,unsigned long,NGamePropertyListManager::CGamePropertyTypeItem *,NGamePropertyListManager::CGamePropertyTypeItem * &>::`RTTI Complete Object Locator'
	DD	00H
	DD	00H
	DD	FLAT:??_R0?AV?$CMap@KKPAVCGamePropertyTypeItem@NGamePropertyListManager@@AAPAV12@@@@8
	DD	FLAT:??_R3?$CMap@KKPAVCGamePropertyTypeItem@NGamePropertyListManager@@AAPAV12@@@8
rdata$r	ENDS
;	COMDAT ??_R1A@?0A@EA@?$CWHArray@PAVCGamePropertySubItem@NGamePropertyListManager@@ABQAV12@@@8
rdata$r	SEGMENT
??_R1A@?0A@EA@?$CWHArray@PAVCGamePropertySubItem@NGamePropertyListManager@@ABQAV12@@@8 DD FLAT:??_R0?AV?$CWHArray@PAVCGamePropertySubItem@NGamePropertyListManager@@ABQAV12@@@@8 ; CWHArray<NGamePropertyListManager::CGamePropertySubItem *,NGamePropertyListManager::CGamePropertySubItem * const &>::`RTTI Base Class Descriptor at (0,-1,0,64)'
	DD	00H
	DD	00H
	DD	0ffffffffH
	DD	00H
	DD	040H
	DD	FLAT:??_R3?$CWHArray@PAVCGamePropertySubItem@NGamePropertyListManager@@ABQAV12@@@8
rdata$r	ENDS
;	COMDAT ??_R2?$CWHArray@PAVCGamePropertySubItem@NGamePropertyListManager@@ABQAV12@@@8
rdata$r	SEGMENT
??_R2?$CWHArray@PAVCGamePropertySubItem@NGamePropertyListManager@@ABQAV12@@@8 DD FLAT:??_R1A@?0A@EA@?$CWHArray@PAVCGamePropertySubItem@NGamePropertyListManager@@ABQAV12@@@8 ; CWHArray<NGamePropertyListManager::CGamePropertySubItem *,NGamePropertyListManager::CGamePropertySubItem * const &>::`RTTI Base Class Array'
rdata$r	ENDS
;	COMDAT ??_R3?$CWHArray@PAVCGamePropertySubItem@NGamePropertyListManager@@ABQAV12@@@8
rdata$r	SEGMENT
??_R3?$CWHArray@PAVCGamePropertySubItem@NGamePropertyListManager@@ABQAV12@@@8 DD 00H ; CWHArray<NGamePropertyListManager::CGamePropertySubItem *,NGamePropertyListManager::CGamePropertySubItem * const &>::`RTTI Class Hierarchy Descriptor'
	DD	00H
	DD	01H
	DD	FLAT:??_R2?$CWHArray@PAVCGamePropertySubItem@NGamePropertyListManager@@ABQAV12@@@8
rdata$r	ENDS
;	COMDAT ??_R0?AV?$CWHArray@PAVCGamePropertySubItem@NGamePropertyListManager@@ABQAV12@@@@8
data$r	SEGMENT
??_R0?AV?$CWHArray@PAVCGamePropertySubItem@NGamePropertyListManager@@ABQAV12@@@@8 DD FLAT:??_7type_info@@6B@ ; CWHArray<NGamePropertyListManager::CGamePropertySubItem *,NGamePropertyListManager::CGamePropertySubItem * const &> `RTTI Type Descriptor'
	DD	00H
	DB	'.?AV?$CWHArray@PAVCGamePropertySubItem@NGamePropertyList'
	DB	'Manager@@ABQAV12@@@', 00H
data$r	ENDS
;	COMDAT ??_R4?$CWHArray@PAVCGamePropertySubItem@NGamePropertyListManager@@ABQAV12@@@6B@
rdata$r	SEGMENT
??_R4?$CWHArray@PAVCGamePropertySubItem@NGamePropertyListManager@@ABQAV12@@@6B@ DD 00H ; CWHArray<NGamePropertyListManager::CGamePropertySubItem *,NGamePropertyListManager::CGamePropertySubItem * const &>::`RTTI Complete Object Locator'
	DD	00H
	DD	00H
	DD	FLAT:??_R0?AV?$CWHArray@PAVCGamePropertySubItem@NGamePropertyListManager@@ABQAV12@@@@8
	DD	FLAT:??_R3?$CWHArray@PAVCGamePropertySubItem@NGamePropertyListManager@@ABQAV12@@@8
rdata$r	ENDS
;	COMDAT ??_R1A@?0A@EA@?$CWHArray@PAVCGamePropertyItem@NGamePropertyListManager@@ABQAV12@@@8
rdata$r	SEGMENT
??_R1A@?0A@EA@?$CWHArray@PAVCGamePropertyItem@NGamePropertyListManager@@ABQAV12@@@8 DD FLAT:??_R0?AV?$CWHArray@PAVCGamePropertyItem@NGamePropertyListManager@@ABQAV12@@@@8 ; CWHArray<NGamePropertyListManager::CGamePropertyItem *,NGamePropertyListManager::CGamePropertyItem * const &>::`RTTI Base Class Descriptor at (0,-1,0,64)'
	DD	00H
	DD	00H
	DD	0ffffffffH
	DD	00H
	DD	040H
	DD	FLAT:??_R3?$CWHArray@PAVCGamePropertyItem@NGamePropertyListManager@@ABQAV12@@@8
rdata$r	ENDS
;	COMDAT ??_R2?$CWHArray@PAVCGamePropertyItem@NGamePropertyListManager@@ABQAV12@@@8
rdata$r	SEGMENT
??_R2?$CWHArray@PAVCGamePropertyItem@NGamePropertyListManager@@ABQAV12@@@8 DD FLAT:??_R1A@?0A@EA@?$CWHArray@PAVCGamePropertyItem@NGamePropertyListManager@@ABQAV12@@@8 ; CWHArray<NGamePropertyListManager::CGamePropertyItem *,NGamePropertyListManager::CGamePropertyItem * const &>::`RTTI Base Class Array'
rdata$r	ENDS
;	COMDAT ??_R3?$CWHArray@PAVCGamePropertyItem@NGamePropertyListManager@@ABQAV12@@@8
rdata$r	SEGMENT
??_R3?$CWHArray@PAVCGamePropertyItem@NGamePropertyListManager@@ABQAV12@@@8 DD 00H ; CWHArray<NGamePropertyListManager::CGamePropertyItem *,NGamePropertyListManager::CGamePropertyItem * const &>::`RTTI Class Hierarchy Descriptor'
	DD	00H
	DD	01H
	DD	FLAT:??_R2?$CWHArray@PAVCGamePropertyItem@NGamePropertyListManager@@ABQAV12@@@8
rdata$r	ENDS
;	COMDAT ??_R0?AV?$CWHArray@PAVCGamePropertyItem@NGamePropertyListManager@@ABQAV12@@@@8
data$r	SEGMENT
??_R0?AV?$CWHArray@PAVCGamePropertyItem@NGamePropertyListManager@@ABQAV12@@@@8 DD FLAT:??_7type_info@@6B@ ; CWHArray<NGamePropertyListManager::CGamePropertyItem *,NGamePropertyListManager::CGamePropertyItem * const &> `RTTI Type Descriptor'
	DD	00H
	DB	'.?AV?$CWHArray@PAVCGamePropertyItem@NGamePropertyListMan'
	DB	'ager@@ABQAV12@@@', 00H
data$r	ENDS
;	COMDAT ??_R4?$CWHArray@PAVCGamePropertyItem@NGamePropertyListManager@@ABQAV12@@@6B@
rdata$r	SEGMENT
??_R4?$CWHArray@PAVCGamePropertyItem@NGamePropertyListManager@@ABQAV12@@@6B@ DD 00H ; CWHArray<NGamePropertyListManager::CGamePropertyItem *,NGamePropertyListManager::CGamePropertyItem * const &>::`RTTI Complete Object Locator'
	DD	00H
	DD	00H
	DD	FLAT:??_R0?AV?$CWHArray@PAVCGamePropertyItem@NGamePropertyListManager@@ABQAV12@@@@8
	DD	FLAT:??_R3?$CWHArray@PAVCGamePropertyItem@NGamePropertyListManager@@ABQAV12@@@8
rdata$r	ENDS
;	COMDAT ??_R1A@?0A@EA@?$CWHArray@PAVCGamePropertyRelatItem@NGamePropertyListManager@@ABQAV12@@@8
rdata$r	SEGMENT
??_R1A@?0A@EA@?$CWHArray@PAVCGamePropertyRelatItem@NGamePropertyListManager@@ABQAV12@@@8 DD FLAT:??_R0?AV?$CWHArray@PAVCGamePropertyRelatItem@NGamePropertyListManager@@ABQAV12@@@@8 ; CWHArray<NGamePropertyListManager::CGamePropertyRelatItem *,NGamePropertyListManager::CGamePropertyRelatItem * const &>::`RTTI Base Class Descriptor at (0,-1,0,64)'
	DD	00H
	DD	00H
	DD	0ffffffffH
	DD	00H
	DD	040H
	DD	FLAT:??_R3?$CWHArray@PAVCGamePropertyRelatItem@NGamePropertyListManager@@ABQAV12@@@8
rdata$r	ENDS
;	COMDAT ??_R2?$CWHArray@PAVCGamePropertyRelatItem@NGamePropertyListManager@@ABQAV12@@@8
rdata$r	SEGMENT
??_R2?$CWHArray@PAVCGamePropertyRelatItem@NGamePropertyListManager@@ABQAV12@@@8 DD FLAT:??_R1A@?0A@EA@?$CWHArray@PAVCGamePropertyRelatItem@NGamePropertyListManager@@ABQAV12@@@8 ; CWHArray<NGamePropertyListManager::CGamePropertyRelatItem *,NGamePropertyListManager::CGamePropertyRelatItem * const &>::`RTTI Base Class Array'
rdata$r	ENDS
;	COMDAT ??_R3?$CWHArray@PAVCGamePropertyRelatItem@NGamePropertyListManager@@ABQAV12@@@8
rdata$r	SEGMENT
??_R3?$CWHArray@PAVCGamePropertyRelatItem@NGamePropertyListManager@@ABQAV12@@@8 DD 00H ; CWHArray<NGamePropertyListManager::CGamePropertyRelatItem *,NGamePropertyListManager::CGamePropertyRelatItem * const &>::`RTTI Class Hierarchy Descriptor'
	DD	00H
	DD	01H
	DD	FLAT:??_R2?$CWHArray@PAVCGamePropertyRelatItem@NGamePropertyListManager@@ABQAV12@@@8
rdata$r	ENDS
;	COMDAT ??_R0?AV?$CWHArray@PAVCGamePropertyRelatItem@NGamePropertyListManager@@ABQAV12@@@@8
data$r	SEGMENT
??_R0?AV?$CWHArray@PAVCGamePropertyRelatItem@NGamePropertyListManager@@ABQAV12@@@@8 DD FLAT:??_7type_info@@6B@ ; CWHArray<NGamePropertyListManager::CGamePropertyRelatItem *,NGamePropertyListManager::CGamePropertyRelatItem * const &> `RTTI Type Descriptor'
	DD	00H
	DB	'.?AV?$CWHArray@PAVCGamePropertyRelatItem@NGamePropertyLi'
	DB	'stManager@@ABQAV12@@@', 00H
data$r	ENDS
;	COMDAT ??_R4?$CWHArray@PAVCGamePropertyRelatItem@NGamePropertyListManager@@ABQAV12@@@6B@
rdata$r	SEGMENT
??_R4?$CWHArray@PAVCGamePropertyRelatItem@NGamePropertyListManager@@ABQAV12@@@6B@ DD 00H ; CWHArray<NGamePropertyListManager::CGamePropertyRelatItem *,NGamePropertyListManager::CGamePropertyRelatItem * const &>::`RTTI Complete Object Locator'
	DD	00H
	DD	00H
	DD	FLAT:??_R0?AV?$CWHArray@PAVCGamePropertyRelatItem@NGamePropertyListManager@@ABQAV12@@@@8
	DD	FLAT:??_R3?$CWHArray@PAVCGamePropertyRelatItem@NGamePropertyListManager@@ABQAV12@@@8
rdata$r	ENDS
;	COMDAT ??_R1A@?0A@EA@?$CWHArray@PAVCGamePropertyTypeItem@NGamePropertyListManager@@ABQAV12@@@8
rdata$r	SEGMENT
??_R1A@?0A@EA@?$CWHArray@PAVCGamePropertyTypeItem@NGamePropertyListManager@@ABQAV12@@@8 DD FLAT:??_R0?AV?$CWHArray@PAVCGamePropertyTypeItem@NGamePropertyListManager@@ABQAV12@@@@8 ; CWHArray<NGamePropertyListManager::CGamePropertyTypeItem *,NGamePropertyListManager::CGamePropertyTypeItem * const &>::`RTTI Base Class Descriptor at (0,-1,0,64)'
	DD	00H
	DD	00H
	DD	0ffffffffH
	DD	00H
	DD	040H
	DD	FLAT:??_R3?$CWHArray@PAVCGamePropertyTypeItem@NGamePropertyListManager@@ABQAV12@@@8
rdata$r	ENDS
;	COMDAT ??_R2?$CWHArray@PAVCGamePropertyTypeItem@NGamePropertyListManager@@ABQAV12@@@8
rdata$r	SEGMENT
??_R2?$CWHArray@PAVCGamePropertyTypeItem@NGamePropertyListManager@@ABQAV12@@@8 DD FLAT:??_R1A@?0A@EA@?$CWHArray@PAVCGamePropertyTypeItem@NGamePropertyListManager@@ABQAV12@@@8 ; CWHArray<NGamePropertyListManager::CGamePropertyTypeItem *,NGamePropertyListManager::CGamePropertyTypeItem * const &>::`RTTI Base Class Array'
rdata$r	ENDS
;	COMDAT ??_R3?$CWHArray@PAVCGamePropertyTypeItem@NGamePropertyListManager@@ABQAV12@@@8
rdata$r	SEGMENT
??_R3?$CWHArray@PAVCGamePropertyTypeItem@NGamePropertyListManager@@ABQAV12@@@8 DD 00H ; CWHArray<NGamePropertyListManager::CGamePropertyTypeItem *,NGamePropertyListManager::CGamePropertyTypeItem * const &>::`RTTI Class Hierarchy Descriptor'
	DD	00H
	DD	01H
	DD	FLAT:??_R2?$CWHArray@PAVCGamePropertyTypeItem@NGamePropertyListManager@@ABQAV12@@@8
rdata$r	ENDS
;	COMDAT ??_R0?AV?$CWHArray@PAVCGamePropertyTypeItem@NGamePropertyListManager@@ABQAV12@@@@8
data$r	SEGMENT
??_R0?AV?$CWHArray@PAVCGamePropertyTypeItem@NGamePropertyListManager@@ABQAV12@@@@8 DD FLAT:??_7type_info@@6B@ ; CWHArray<NGamePropertyListManager::CGamePropertyTypeItem *,NGamePropertyListManager::CGamePropertyTypeItem * const &> `RTTI Type Descriptor'
	DD	00H
	DB	'.?AV?$CWHArray@PAVCGamePropertyTypeItem@NGamePropertyLis'
	DB	'tManager@@ABQAV12@@@', 00H
data$r	ENDS
;	COMDAT ??_R4?$CWHArray@PAVCGamePropertyTypeItem@NGamePropertyListManager@@ABQAV12@@@6B@
rdata$r	SEGMENT
??_R4?$CWHArray@PAVCGamePropertyTypeItem@NGamePropertyListManager@@ABQAV12@@@6B@ DD 00H ; CWHArray<NGamePropertyListManager::CGamePropertyTypeItem *,NGamePropertyListManager::CGamePropertyTypeItem * const &>::`RTTI Complete Object Locator'
	DD	00H
	DD	00H
	DD	FLAT:??_R0?AV?$CWHArray@PAVCGamePropertyTypeItem@NGamePropertyListManager@@ABQAV12@@@@8
	DD	FLAT:??_R3?$CWHArray@PAVCGamePropertyTypeItem@NGamePropertyListManager@@ABQAV12@@@8
rdata$r	ENDS
;	COMDAT ??_C@_04OAFLPOMH@?$FN?5?$DN?5@
CONST	SEGMENT
??_C@_04OAFLPOMH@?$FN?5?$DN?5@ DB '] = ', 00H		; `string'
CONST	ENDS
;	COMDAT ??_C@_03OHJIHPJH@?6?7?$FL@
CONST	SEGMENT
??_C@_03OHJIHPJH@?6?7?$FL@ DB 0aH, 09H, '[', 00H	; `string'
CONST	ENDS
;	COMDAT ??_C@_0DF@LDFGAABH@g?3?2?M?x?$LK?$PM?2happygamewh?2?$LH?$PO?N?q?$LG?K?2?O?$LF?M?$LD@
CONST	SEGMENT
??_C@_0DF@LDFGAABH@g?3?2?M?x?$LK?$PM?2happygamewh?2?$LH?$PO?N?q?$LG?K?2?O?$LF?M?$LD@ DB 'g'
	DB	':\', 0cdH, 0f8H, 0baH, 0fcH, '\happygamewh\', 0b7H, 0feH, 0ceH
	DB	0f1H, 0b6H, 0cbH, '\', 0cfH, 0b5H, 0cdH, 0b3H, 0c4H, 0a3H, 0bfH
	DB	0e9H, '\', 0c8H, 0abH, 0beH, 0d6H, 0b6H, 0a8H, 0d2H, 0e5H, '\a'
	DB	'rray.h', 00H				; `string'
CONST	ENDS
;	COMDAT ?__LINE__Var@?0??InsertGamePropertySubItem@CGamePropertyListManager@NGamePropertyListManager@@QAE_NPAUtagPropertySubItem@@@Z@4JA
_DATA	SEGMENT
?__LINE__Var@?0??InsertGamePropertySubItem@CGamePropertyListManager@NGamePropertyListManager@@QAE_NPAUtagPropertySubItem@@@Z@4JA DD 01caH ; `NGamePropertyListManager::CGamePropertyListManager::InsertGamePropertySubItem'::`1'::__LINE__Var
_DATA	ENDS
;	COMDAT ?__LINE__Var@?0??InsertGamePropertyItem@CGamePropertyListManager@NGamePropertyListManager@@QAE_NPAUtagPropertyItem@@@Z@4JA
_DATA	SEGMENT
?__LINE__Var@?0??InsertGamePropertyItem@CGamePropertyListManager@NGamePropertyListManager@@QAE_NPAUtagPropertyItem@@@Z@4JA DD 019eH ; `NGamePropertyListManager::CGamePropertyListManager::InsertGamePropertyItem'::`1'::__LINE__Var
_DATA	ENDS
;	COMDAT ?__LINE__Var@?0??InsertGamePropertyRelatItem@CGamePropertyListManager@NGamePropertyListManager@@QAE_NPAUtagPropertyRelatItem@@@Z@4JA
_DATA	SEGMENT
?__LINE__Var@?0??InsertGamePropertyRelatItem@CGamePropertyListManager@NGamePropertyListManager@@QAE_NPAUtagPropertyRelatItem@@@Z@4JA DD 0160H ; `NGamePropertyListManager::CGamePropertyListManager::InsertGamePropertyRelatItem'::`1'::__LINE__Var
_DATA	ENDS
;	COMDAT ?__LINE__Var@?0??InsertGamePropertyTypeItem@CGamePropertyListManager@NGamePropertyListManager@@QAE_NPAUtagPropertyTypeItem@@@Z@4JA
_DATA	SEGMENT
?__LINE__Var@?0??InsertGamePropertyTypeItem@CGamePropertyListManager@NGamePropertyListManager@@QAE_NPAUtagPropertyTypeItem@@@Z@4JA DD 0137H ; `NGamePropertyListManager::CGamePropertyListManager::InsertGamePropertyTypeItem'::`1'::__LINE__Var
_DATA	ENDS
;	COMDAT ??_C@_0FG@GCELCLHM@g?3?2?M?x?$LK?$PM?2happygamewh?2?$LH?$PO?N?q?$LG?K?2?O?$LF?M?$LD@
CONST	SEGMENT
??_C@_0FG@GCELCLHM@g?3?2?M?x?$LK?$PM?2happygamewh?2?$LH?$PO?N?q?$LG?K?2?O?$LF?M?$LD@ DB 'g'
	DB	':\', 0cdH, 0f8H, 0baH, 0fcH, '\happygamewh\', 0b7H, 0feH, 0ceH
	DB	0f1H, 0b6H, 0cbH, '\', 0cfH, 0b5H, 0cdH, 0b3H, 0c4H, 0a3H, 0bfH
	DB	0e9H, '\', 0b7H, 0feH, 0ceH, 0f1H, 0c6H, 0f7H, 0d7H, 0e9H, 0bcH
	DB	0feH, '\', 0b5H, 0c7H, 0c2H, 0bcH, 0b7H, 0feH, 0ceH, 0f1H, 0c6H
	DB	0f7H, '\gamepropertylistmanager.cpp', 00H	; `string'
CONST	ENDS
;	COMDAT ?__LINE__Var@?0???1CGamePropertyListManager@NGamePropertyListManager@@UAE@XZ@4JA
_DATA	SEGMENT
?__LINE__Var@?0???1CGamePropertyListManager@NGamePropertyListManager@@UAE@XZ@4JA DD 048H ; `NGamePropertyListManager::CGamePropertyListManager::~CGamePropertyListManager'::`1'::__LINE__Var
_DATA	ENDS
;	COMDAT ??_7CGamePropertyListManager@NGamePropertyListManager@@6B@
CONST	SEGMENT
??_7CGamePropertyListManager@NGamePropertyListManager@@6B@ DD FLAT:??_R4CGamePropertyListManager@NGamePropertyListManager@@6B@ ; NGamePropertyListManager::CGamePropertyListManager::`vftable'
	DD	FLAT:??_ECGamePropertyListManager@NGamePropertyListManager@@UAEPAXI@Z
CONST	ENDS
;	COMDAT ??_7?$CWHArray@PAVCGamePropertySubItem@NGamePropertyListManager@@ABQAV12@@@6B@
CONST	SEGMENT
??_7?$CWHArray@PAVCGamePropertySubItem@NGamePropertyListManager@@ABQAV12@@@6B@ DD FLAT:??_R4?$CWHArray@PAVCGamePropertySubItem@NGamePropertyListManager@@ABQAV12@@@6B@ ; CWHArray<NGamePropertyListManager::CGamePropertySubItem *,NGamePropertyListManager::CGamePropertySubItem * const &>::`vftable'
	DD	FLAT:??_E?$CWHArray@PAVCGamePropertySubItem@NGamePropertyListManager@@ABQAV12@@@UAEPAXI@Z
CONST	ENDS
;	COMDAT ??_7?$CWHArray@PAVCGamePropertyItem@NGamePropertyListManager@@ABQAV12@@@6B@
CONST	SEGMENT
??_7?$CWHArray@PAVCGamePropertyItem@NGamePropertyListManager@@ABQAV12@@@6B@ DD FLAT:??_R4?$CWHArray@PAVCGamePropertyItem@NGamePropertyListManager@@ABQAV12@@@6B@ ; CWHArray<NGamePropertyListManager::CGamePropertyItem *,NGamePropertyListManager::CGamePropertyItem * const &>::`vftable'
	DD	FLAT:??_E?$CWHArray@PAVCGamePropertyItem@NGamePropertyListManager@@ABQAV12@@@UAEPAXI@Z
CONST	ENDS
;	COMDAT ??_7?$CWHArray@PAVCGamePropertyRelatItem@NGamePropertyListManager@@ABQAV12@@@6B@
CONST	SEGMENT
??_7?$CWHArray@PAVCGamePropertyRelatItem@NGamePropertyListManager@@ABQAV12@@@6B@ DD FLAT:??_R4?$CWHArray@PAVCGamePropertyRelatItem@NGamePropertyListManager@@ABQAV12@@@6B@ ; CWHArray<NGamePropertyListManager::CGamePropertyRelatItem *,NGamePropertyListManager::CGamePropertyRelatItem * const &>::`vftable'
	DD	FLAT:??_E?$CWHArray@PAVCGamePropertyRelatItem@NGamePropertyListManager@@ABQAV12@@@UAEPAXI@Z
CONST	ENDS
;	COMDAT ??_7?$CWHArray@PAVCGamePropertyTypeItem@NGamePropertyListManager@@ABQAV12@@@6B@
CONST	SEGMENT
??_7?$CWHArray@PAVCGamePropertyTypeItem@NGamePropertyListManager@@ABQAV12@@@6B@ DD FLAT:??_R4?$CWHArray@PAVCGamePropertyTypeItem@NGamePropertyListManager@@ABQAV12@@@6B@ ; CWHArray<NGamePropertyListManager::CGamePropertyTypeItem *,NGamePropertyListManager::CGamePropertyTypeItem * const &>::`vftable'
	DD	FLAT:??_E?$CWHArray@PAVCGamePropertyTypeItem@NGamePropertyListManager@@ABQAV12@@@UAEPAXI@Z
CONST	ENDS
;	COMDAT ??_7?$CMap@KKPAVCGamePropertySubItem@NGamePropertyListManager@@AAPAV12@@@6B@
CONST	SEGMENT
??_7?$CMap@KKPAVCGamePropertySubItem@NGamePropertyListManager@@AAPAV12@@@6B@ DD FLAT:??_R4?$CMap@KKPAVCGamePropertySubItem@NGamePropertyListManager@@AAPAV12@@@6B@ ; CMap<unsigned long,unsigned long,NGamePropertyListManager::CGamePropertySubItem *,NGamePropertyListManager::CGamePropertySubItem * &>::`vftable'
	DD	FLAT:?GetRuntimeClass@CObject@@UBEPAUCRuntimeClass@@XZ
	DD	FLAT:??_E?$CMap@KKPAVCGamePropertySubItem@NGamePropertyListManager@@AAPAV12@@@UAEPAXI@Z
	DD	FLAT:?Serialize@?$CMap@KKPAVCGamePropertySubItem@NGamePropertyListManager@@AAPAV12@@@UAEXAAVCArchive@@@Z
	DD	FLAT:?AssertValid@?$CMap@KKPAVCGamePropertySubItem@NGamePropertyListManager@@AAPAV12@@@UBEXXZ
	DD	FLAT:?Dump@?$CMap@KKPAVCGamePropertySubItem@NGamePropertyListManager@@AAPAV12@@@UBEXAAVCDumpContext@@@Z
CONST	ENDS
;	COMDAT ??_7?$CMap@KKPAVCGamePropertyItem@NGamePropertyListManager@@AAPAV12@@@6B@
CONST	SEGMENT
??_7?$CMap@KKPAVCGamePropertyItem@NGamePropertyListManager@@AAPAV12@@@6B@ DD FLAT:??_R4?$CMap@KKPAVCGamePropertyItem@NGamePropertyListManager@@AAPAV12@@@6B@ ; CMap<unsigned long,unsigned long,NGamePropertyListManager::CGamePropertyItem *,NGamePropertyListManager::CGamePropertyItem * &>::`vftable'
	DD	FLAT:?GetRuntimeClass@CObject@@UBEPAUCRuntimeClass@@XZ
	DD	FLAT:??_E?$CMap@KKPAVCGamePropertyItem@NGamePropertyListManager@@AAPAV12@@@UAEPAXI@Z
	DD	FLAT:?Serialize@?$CMap@KKPAVCGamePropertyItem@NGamePropertyListManager@@AAPAV12@@@UAEXAAVCArchive@@@Z
	DD	FLAT:?AssertValid@?$CMap@KKPAVCGamePropertyItem@NGamePropertyListManager@@AAPAV12@@@UBEXXZ
	DD	FLAT:?Dump@?$CMap@KKPAVCGamePropertyItem@NGamePropertyListManager@@AAPAV12@@@UBEXAAVCDumpContext@@@Z
CONST	ENDS
;	COMDAT ??_7?$CMap@KKPAVCGamePropertyRelatItem@NGamePropertyListManager@@AAPAV12@@@6B@
CONST	SEGMENT
??_7?$CMap@KKPAVCGamePropertyRelatItem@NGamePropertyListManager@@AAPAV12@@@6B@ DD FLAT:??_R4?$CMap@KKPAVCGamePropertyRelatItem@NGamePropertyListManager@@AAPAV12@@@6B@ ; CMap<unsigned long,unsigned long,NGamePropertyListManager::CGamePropertyRelatItem *,NGamePropertyListManager::CGamePropertyRelatItem * &>::`vftable'
	DD	FLAT:?GetRuntimeClass@CObject@@UBEPAUCRuntimeClass@@XZ
	DD	FLAT:??_E?$CMap@KKPAVCGamePropertyRelatItem@NGamePropertyListManager@@AAPAV12@@@UAEPAXI@Z
	DD	FLAT:?Serialize@?$CMap@KKPAVCGamePropertyRelatItem@NGamePropertyListManager@@AAPAV12@@@UAEXAAVCArchive@@@Z
	DD	FLAT:?AssertValid@?$CMap@KKPAVCGamePropertyRelatItem@NGamePropertyListManager@@AAPAV12@@@UBEXXZ
	DD	FLAT:?Dump@?$CMap@KKPAVCGamePropertyRelatItem@NGamePropertyListManager@@AAPAV12@@@UBEXAAVCDumpContext@@@Z
CONST	ENDS
;	COMDAT ??_7?$CMap@KKPAVCGamePropertyTypeItem@NGamePropertyListManager@@AAPAV12@@@6B@
CONST	SEGMENT
??_7?$CMap@KKPAVCGamePropertyTypeItem@NGamePropertyListManager@@AAPAV12@@@6B@ DD FLAT:??_R4?$CMap@KKPAVCGamePropertyTypeItem@NGamePropertyListManager@@AAPAV12@@@6B@ ; CMap<unsigned long,unsigned long,NGamePropertyListManager::CGamePropertyTypeItem *,NGamePropertyListManager::CGamePropertyTypeItem * &>::`vftable'
	DD	FLAT:?GetRuntimeClass@CObject@@UBEPAUCRuntimeClass@@XZ
	DD	FLAT:??_E?$CMap@KKPAVCGamePropertyTypeItem@NGamePropertyListManager@@AAPAV12@@@UAEPAXI@Z
	DD	FLAT:?Serialize@?$CMap@KKPAVCGamePropertyTypeItem@NGamePropertyListManager@@AAPAV12@@@UAEXAAVCArchive@@@Z
	DD	FLAT:?AssertValid@?$CMap@KKPAVCGamePropertyTypeItem@NGamePropertyListManager@@AAPAV12@@@UBEXXZ
	DD	FLAT:?Dump@?$CMap@KKPAVCGamePropertyTypeItem@NGamePropertyListManager@@AAPAV12@@@UBEXAAVCDumpContext@@@Z
CONST	ENDS
;	COMDAT ??_R2CObject@@8
rdata$r	SEGMENT
??_R2CObject@@8 DD FLAT:??_R1A@?0A@EA@CObject@@8	; CObject::`RTTI Base Class Array'
rdata$r	ENDS
;	COMDAT ??_R3CObject@@8
rdata$r	SEGMENT
??_R3CObject@@8 DD 00H					; CObject::`RTTI Class Hierarchy Descriptor'
	DD	00H
	DD	01H
	DD	FLAT:??_R2CObject@@8
rdata$r	ENDS
;	COMDAT ??_R0?AVCObject@@@8
data$r	SEGMENT
??_R0?AVCObject@@@8 DD FLAT:??_7type_info@@6B@		; CObject `RTTI Type Descriptor'
	DD	00H
	DB	'.?AVCObject@@', 00H
data$r	ENDS
;	COMDAT ??_R1A@?0A@EA@CObject@@8
rdata$r	SEGMENT
??_R1A@?0A@EA@CObject@@8 DD FLAT:??_R0?AVCObject@@@8	; CObject::`RTTI Base Class Descriptor at (0,-1,0,64)'
	DD	00H
	DD	00H
	DD	0ffffffffH
	DD	00H
	DD	040H
	DD	FLAT:??_R3CObject@@8
rdata$r	ENDS
;	COMDAT ??_C@_01EEMJAFIK@?6@
CONST	SEGMENT
??_C@_01EEMJAFIK@?6@ DB 0aH, 00H			; `string'
CONST	ENDS
;	COMDAT ??_C@_09HCLNAIDE@?5elements@
CONST	SEGMENT
??_C@_09HCLNAIDE@?5elements@ DB ' elements', 00H	; `string'
CONST	ENDS
;	COMDAT ??_C@_05PLCFPPOI@with?5@
CONST	SEGMENT
??_C@_05PLCFPPOI@with?5@ DB 'with ', 00H		; `string'
CONST	ENDS
;	COMDAT ??_C@_0HC@HBCNBCLF@c?3?2program?5files?5?$CIx86?$CJ?2microsof@
CONST	SEGMENT
??_C@_0HC@HBCNBCLF@c?3?2program?5files?5?$CIx86?$CJ?2microsof@ DB 'c:\pro'
	DB	'gram files (x86)\microsoft visual studio\2017\community\vc\to'
	DB	'ols\msvc\14.16.27023\atlmfc\include\afxtempl.h', 00H ; `string'
CONST	ENDS
;	COMDAT xdata$x
xdata$x	SEGMENT
__catchsym$?InsertGamePropertySubItem@CGamePropertyListManager@NGamePropertyListManager@@QAE_NPAUtagPropertySubItem@@@Z$3 DD 040H
	DD	00H
	DD	00H
	DD	FLAT:__catch$?InsertGamePropertySubItem@CGamePropertyListManager@NGamePropertyListManager@@QAE_NPAUtagPropertySubItem@@@Z$0
__tryblocktable$?InsertGamePropertySubItem@CGamePropertyListManager@NGamePropertyListManager@@QAE_NPAUtagPropertySubItem@@@Z DD 00H
	DD	01H
	DD	02H
	DD	01H
	DD	FLAT:__catchsym$?InsertGamePropertySubItem@CGamePropertyListManager@NGamePropertyListManager@@QAE_NPAUtagPropertySubItem@@@Z$3
__unwindtable$?InsertGamePropertySubItem@CGamePropertyListManager@NGamePropertyListManager@@QAE_NPAUtagPropertySubItem@@@Z DD 0ffffffffH
	DD	00H
	DD	00H
	DD	FLAT:__unwindfunclet$?InsertGamePropertySubItem@CGamePropertyListManager@NGamePropertyListManager@@QAE_NPAUtagPropertySubItem@@@Z$2
	DD	0ffffffffH
	DD	00H
__ehfuncinfo$?InsertGamePropertySubItem@CGamePropertyListManager@NGamePropertyListManager@@QAE_NPAUtagPropertySubItem@@@Z DD 019930522H
	DD	03H
	DD	FLAT:__unwindtable$?InsertGamePropertySubItem@CGamePropertyListManager@NGamePropertyListManager@@QAE_NPAUtagPropertySubItem@@@Z
	DD	01H
	DD	FLAT:__tryblocktable$?InsertGamePropertySubItem@CGamePropertyListManager@NGamePropertyListManager@@QAE_NPAUtagPropertySubItem@@@Z
	DD	2 DUP(00H)
	DD	00H
	DD	01H
xdata$x	ENDS
;	COMDAT xdata$x
xdata$x	SEGMENT
__catchsym$?InsertGamePropertyItem@CGamePropertyListManager@NGamePropertyListManager@@QAE_NPAUtagPropertyItem@@@Z$3 DD 040H
	DD	00H
	DD	00H
	DD	FLAT:__catch$?InsertGamePropertyItem@CGamePropertyListManager@NGamePropertyListManager@@QAE_NPAUtagPropertyItem@@@Z$0
__tryblocktable$?InsertGamePropertyItem@CGamePropertyListManager@NGamePropertyListManager@@QAE_NPAUtagPropertyItem@@@Z DD 00H
	DD	01H
	DD	02H
	DD	01H
	DD	FLAT:__catchsym$?InsertGamePropertyItem@CGamePropertyListManager@NGamePropertyListManager@@QAE_NPAUtagPropertyItem@@@Z$3
__unwindtable$?InsertGamePropertyItem@CGamePropertyListManager@NGamePropertyListManager@@QAE_NPAUtagPropertyItem@@@Z DD 0ffffffffH
	DD	00H
	DD	00H
	DD	FLAT:__unwindfunclet$?InsertGamePropertyItem@CGamePropertyListManager@NGamePropertyListManager@@QAE_NPAUtagPropertyItem@@@Z$2
	DD	0ffffffffH
	DD	00H
__ehfuncinfo$?InsertGamePropertyItem@CGamePropertyListManager@NGamePropertyListManager@@QAE_NPAUtagPropertyItem@@@Z DD 019930522H
	DD	03H
	DD	FLAT:__unwindtable$?InsertGamePropertyItem@CGamePropertyListManager@NGamePropertyListManager@@QAE_NPAUtagPropertyItem@@@Z
	DD	01H
	DD	FLAT:__tryblocktable$?InsertGamePropertyItem@CGamePropertyListManager@NGamePropertyListManager@@QAE_NPAUtagPropertyItem@@@Z
	DD	2 DUP(00H)
	DD	00H
	DD	01H
xdata$x	ENDS
;	COMDAT xdata$x
xdata$x	SEGMENT
__catchsym$?InsertGamePropertyRelatItem@CGamePropertyListManager@NGamePropertyListManager@@QAE_NPAUtagPropertyRelatItem@@@Z$3 DD 040H
	DD	00H
	DD	00H
	DD	FLAT:__catch$?InsertGamePropertyRelatItem@CGamePropertyListManager@NGamePropertyListManager@@QAE_NPAUtagPropertyRelatItem@@@Z$0
__tryblocktable$?InsertGamePropertyRelatItem@CGamePropertyListManager@NGamePropertyListManager@@QAE_NPAUtagPropertyRelatItem@@@Z DD 00H
	DD	01H
	DD	02H
	DD	01H
	DD	FLAT:__catchsym$?InsertGamePropertyRelatItem@CGamePropertyListManager@NGamePropertyListManager@@QAE_NPAUtagPropertyRelatItem@@@Z$3
__unwindtable$?InsertGamePropertyRelatItem@CGamePropertyListManager@NGamePropertyListManager@@QAE_NPAUtagPropertyRelatItem@@@Z DD 0ffffffffH
	DD	00H
	DD	00H
	DD	FLAT:__unwindfunclet$?InsertGamePropertyRelatItem@CGamePropertyListManager@NGamePropertyListManager@@QAE_NPAUtagPropertyRelatItem@@@Z$2
	DD	0ffffffffH
	DD	00H
__ehfuncinfo$?InsertGamePropertyRelatItem@CGamePropertyListManager@NGamePropertyListManager@@QAE_NPAUtagPropertyRelatItem@@@Z DD 019930522H
	DD	03H
	DD	FLAT:__unwindtable$?InsertGamePropertyRelatItem@CGamePropertyListManager@NGamePropertyListManager@@QAE_NPAUtagPropertyRelatItem@@@Z
	DD	01H
	DD	FLAT:__tryblocktable$?InsertGamePropertyRelatItem@CGamePropertyListManager@NGamePropertyListManager@@QAE_NPAUtagPropertyRelatItem@@@Z
	DD	2 DUP(00H)
	DD	00H
	DD	01H
xdata$x	ENDS
;	COMDAT xdata$x
xdata$x	SEGMENT
__catchsym$?InsertGamePropertyTypeItem@CGamePropertyListManager@NGamePropertyListManager@@QAE_NPAUtagPropertyTypeItem@@@Z$3 DD 040H
	DD	00H
	DD	00H
	DD	FLAT:__catch$?InsertGamePropertyTypeItem@CGamePropertyListManager@NGamePropertyListManager@@QAE_NPAUtagPropertyTypeItem@@@Z$0
__tryblocktable$?InsertGamePropertyTypeItem@CGamePropertyListManager@NGamePropertyListManager@@QAE_NPAUtagPropertyTypeItem@@@Z DD 00H
	DD	01H
	DD	02H
	DD	01H
	DD	FLAT:__catchsym$?InsertGamePropertyTypeItem@CGamePropertyListManager@NGamePropertyListManager@@QAE_NPAUtagPropertyTypeItem@@@Z$3
__unwindtable$?InsertGamePropertyTypeItem@CGamePropertyListManager@NGamePropertyListManager@@QAE_NPAUtagPropertyTypeItem@@@Z DD 0ffffffffH
	DD	00H
	DD	00H
	DD	FLAT:__unwindfunclet$?InsertGamePropertyTypeItem@CGamePropertyListManager@NGamePropertyListManager@@QAE_NPAUtagPropertyTypeItem@@@Z$2
	DD	0ffffffffH
	DD	00H
__ehfuncinfo$?InsertGamePropertyTypeItem@CGamePropertyListManager@NGamePropertyListManager@@QAE_NPAUtagPropertyTypeItem@@@Z DD 019930522H
	DD	03H
	DD	FLAT:__unwindtable$?InsertGamePropertyTypeItem@CGamePropertyListManager@NGamePropertyListManager@@QAE_NPAUtagPropertyTypeItem@@@Z
	DD	01H
	DD	FLAT:__tryblocktable$?InsertGamePropertyTypeItem@CGamePropertyListManager@NGamePropertyListManager@@QAE_NPAUtagPropertyTypeItem@@@Z
	DD	2 DUP(00H)
	DD	00H
	DD	01H
xdata$x	ENDS
;	COMDAT xdata$x
xdata$x	SEGMENT
__catchsym$??1CGamePropertyListManager@NGamePropertyListManager@@UAE@XZ$31 DD 040H
	DD	00H
	DD	00H
	DD	FLAT:__catch$??1CGamePropertyListManager@NGamePropertyListManager@@UAE@XZ$14
__catchsym$??1CGamePropertyListManager@NGamePropertyListManager@@UAE@XZ$30 DD 040H
	DD	00H
	DD	00H
	DD	FLAT:__catch$??1CGamePropertyListManager@NGamePropertyListManager@@UAE@XZ$12
__catchsym$??1CGamePropertyListManager@NGamePropertyListManager@@UAE@XZ$29 DD 040H
	DD	00H
	DD	00H
	DD	FLAT:__catch$??1CGamePropertyListManager@NGamePropertyListManager@@UAE@XZ$10
__catchsym$??1CGamePropertyListManager@NGamePropertyListManager@@UAE@XZ$28 DD 040H
	DD	00H
	DD	00H
	DD	FLAT:__catch$??1CGamePropertyListManager@NGamePropertyListManager@@UAE@XZ$8
__catchsym$??1CGamePropertyListManager@NGamePropertyListManager@@UAE@XZ$27 DD 040H
	DD	00H
	DD	00H
	DD	FLAT:__catch$??1CGamePropertyListManager@NGamePropertyListManager@@UAE@XZ$6
__catchsym$??1CGamePropertyListManager@NGamePropertyListManager@@UAE@XZ$26 DD 040H
	DD	00H
	DD	00H
	DD	FLAT:__catch$??1CGamePropertyListManager@NGamePropertyListManager@@UAE@XZ$4
__catchsym$??1CGamePropertyListManager@NGamePropertyListManager@@UAE@XZ$25 DD 040H
	DD	00H
	DD	00H
	DD	FLAT:__catch$??1CGamePropertyListManager@NGamePropertyListManager@@UAE@XZ$2
__catchsym$??1CGamePropertyListManager@NGamePropertyListManager@@UAE@XZ$24 DD 040H
	DD	00H
	DD	00H
	DD	FLAT:__catch$??1CGamePropertyListManager@NGamePropertyListManager@@UAE@XZ$0
__ehfuncinfo$??1CGamePropertyListManager@NGamePropertyListManager@@UAE@XZ DD 019930522H
	DD	018H
	DD	FLAT:__unwindtable$??1CGamePropertyListManager@NGamePropertyListManager@@UAE@XZ
	DD	08H
	DD	FLAT:__tryblocktable$??1CGamePropertyListManager@NGamePropertyListManager@@UAE@XZ
	DD	2 DUP(00H)
	DD	00H
	DD	05H
__tryblocktable$??1CGamePropertyListManager@NGamePropertyListManager@@UAE@XZ DD 08H
	DD	08H
	DD	09H
	DD	01H
	DD	FLAT:__catchsym$??1CGamePropertyListManager@NGamePropertyListManager@@UAE@XZ$24
	DD	0aH
	DD	0aH
	DD	0bH
	DD	01H
	DD	FLAT:__catchsym$??1CGamePropertyListManager@NGamePropertyListManager@@UAE@XZ$25
	DD	0cH
	DD	0cH
	DD	0dH
	DD	01H
	DD	FLAT:__catchsym$??1CGamePropertyListManager@NGamePropertyListManager@@UAE@XZ$26
	DD	0eH
	DD	0eH
	DD	0fH
	DD	01H
	DD	FLAT:__catchsym$??1CGamePropertyListManager@NGamePropertyListManager@@UAE@XZ$27
	DD	010H
	DD	010H
	DD	011H
	DD	01H
	DD	FLAT:__catchsym$??1CGamePropertyListManager@NGamePropertyListManager@@UAE@XZ$28
	DD	012H
	DD	012H
	DD	013H
	DD	01H
	DD	FLAT:__catchsym$??1CGamePropertyListManager@NGamePropertyListManager@@UAE@XZ$29
	DD	014H
	DD	014H
	DD	015H
	DD	01H
	DD	FLAT:__catchsym$??1CGamePropertyListManager@NGamePropertyListManager@@UAE@XZ$30
	DD	016H
	DD	016H
	DD	017H
	DD	01H
	DD	FLAT:__catchsym$??1CGamePropertyListManager@NGamePropertyListManager@@UAE@XZ$31
__unwindtable$??1CGamePropertyListManager@NGamePropertyListManager@@UAE@XZ DD 0ffffffffH
	DD	FLAT:__unwindfunclet$??1CGamePropertyListManager@NGamePropertyListManager@@UAE@XZ$16
	DD	00H
	DD	FLAT:__unwindfunclet$??1CGamePropertyListManager@NGamePropertyListManager@@UAE@XZ$17
	DD	01H
	DD	FLAT:__unwindfunclet$??1CGamePropertyListManager@NGamePropertyListManager@@UAE@XZ$18
	DD	02H
	DD	FLAT:__unwindfunclet$??1CGamePropertyListManager@NGamePropertyListManager@@UAE@XZ$19
	DD	03H
	DD	FLAT:__unwindfunclet$??1CGamePropertyListManager@NGamePropertyListManager@@UAE@XZ$20
	DD	04H
	DD	FLAT:__unwindfunclet$??1CGamePropertyListManager@NGamePropertyListManager@@UAE@XZ$21
	DD	05H
	DD	FLAT:__unwindfunclet$??1CGamePropertyListManager@NGamePropertyListManager@@UAE@XZ$22
	DD	06H
	DD	FLAT:__unwindfunclet$??1CGamePropertyListManager@NGamePropertyListManager@@UAE@XZ$23
	DD	07H
	DD	00H
	DD	07H
	DD	00H
	DD	07H
	DD	00H
	DD	07H
	DD	00H
	DD	07H
	DD	00H
	DD	07H
	DD	00H
	DD	07H
	DD	00H
	DD	07H
	DD	00H
	DD	07H
	DD	00H
	DD	07H
	DD	00H
	DD	07H
	DD	00H
	DD	07H
	DD	00H
	DD	07H
	DD	00H
	DD	07H
	DD	00H
	DD	07H
	DD	00H
	DD	07H
	DD	00H
xdata$x	ENDS
;	COMDAT xdata$x
xdata$x	SEGMENT
__ehfuncinfo$??0CGamePropertyListManager@NGamePropertyListManager@@QAE@XZ DD 019930522H
	DD	08H
	DD	FLAT:__unwindtable$??0CGamePropertyListManager@NGamePropertyListManager@@QAE@XZ
	DD	2 DUP(00H)
	DD	2 DUP(00H)
	DD	00H
	DD	01H
__unwindtable$??0CGamePropertyListManager@NGamePropertyListManager@@QAE@XZ DD 0ffffffffH
	DD	FLAT:__unwindfunclet$??0CGamePropertyListManager@NGamePropertyListManager@@QAE@XZ$0
	DD	00H
	DD	FLAT:__unwindfunclet$??0CGamePropertyListManager@NGamePropertyListManager@@QAE@XZ$1
	DD	01H
	DD	FLAT:__unwindfunclet$??0CGamePropertyListManager@NGamePropertyListManager@@QAE@XZ$2
	DD	02H
	DD	FLAT:__unwindfunclet$??0CGamePropertyListManager@NGamePropertyListManager@@QAE@XZ$3
	DD	03H
	DD	FLAT:__unwindfunclet$??0CGamePropertyListManager@NGamePropertyListManager@@QAE@XZ$4
	DD	04H
	DD	FLAT:__unwindfunclet$??0CGamePropertyListManager@NGamePropertyListManager@@QAE@XZ$5
	DD	05H
	DD	FLAT:__unwindfunclet$??0CGamePropertyListManager@NGamePropertyListManager@@QAE@XZ$6
	DD	06H
	DD	FLAT:__unwindfunclet$??0CGamePropertyListManager@NGamePropertyListManager@@QAE@XZ$7
xdata$x	ENDS
;	COMDAT xdata$x
xdata$x	SEGMENT
__ehfuncinfo$??1?$CMap@KKPAVCGamePropertySubItem@NGamePropertyListManager@@AAPAV12@@@UAE@XZ DD 019930522H
	DD	00H
	DD	00H
	DD	2 DUP(00H)
	DD	2 DUP(00H)
	DD	00H
	DD	05H
xdata$x	ENDS
;	COMDAT xdata$x
xdata$x	SEGMENT
__unwindtable$??0?$CMap@KKPAVCGamePropertySubItem@NGamePropertyListManager@@AAPAV12@@@QAE@H@Z DD 0ffffffffH
	DD	FLAT:__unwindfunclet$??0?$CMap@KKPAVCGamePropertySubItem@NGamePropertyListManager@@AAPAV12@@@QAE@H@Z$0
__ehfuncinfo$??0?$CMap@KKPAVCGamePropertySubItem@NGamePropertyListManager@@AAPAV12@@@QAE@H@Z DD 019930522H
	DD	01H
	DD	FLAT:__unwindtable$??0?$CMap@KKPAVCGamePropertySubItem@NGamePropertyListManager@@AAPAV12@@@QAE@H@Z
	DD	2 DUP(00H)
	DD	2 DUP(00H)
	DD	00H
	DD	01H
xdata$x	ENDS
;	COMDAT xdata$x
xdata$x	SEGMENT
__ehfuncinfo$??1?$CMap@KKPAVCGamePropertyItem@NGamePropertyListManager@@AAPAV12@@@UAE@XZ DD 019930522H
	DD	00H
	DD	00H
	DD	2 DUP(00H)
	DD	2 DUP(00H)
	DD	00H
	DD	05H
xdata$x	ENDS
;	COMDAT xdata$x
xdata$x	SEGMENT
__unwindtable$??0?$CMap@KKPAVCGamePropertyItem@NGamePropertyListManager@@AAPAV12@@@QAE@H@Z DD 0ffffffffH
	DD	FLAT:__unwindfunclet$??0?$CMap@KKPAVCGamePropertyItem@NGamePropertyListManager@@AAPAV12@@@QAE@H@Z$0
__ehfuncinfo$??0?$CMap@KKPAVCGamePropertyItem@NGamePropertyListManager@@AAPAV12@@@QAE@H@Z DD 019930522H
	DD	01H
	DD	FLAT:__unwindtable$??0?$CMap@KKPAVCGamePropertyItem@NGamePropertyListManager@@AAPAV12@@@QAE@H@Z
	DD	2 DUP(00H)
	DD	2 DUP(00H)
	DD	00H
	DD	01H
xdata$x	ENDS
;	COMDAT xdata$x
xdata$x	SEGMENT
__ehfuncinfo$??1?$CMap@KKPAVCGamePropertyRelatItem@NGamePropertyListManager@@AAPAV12@@@UAE@XZ DD 019930522H
	DD	00H
	DD	00H
	DD	2 DUP(00H)
	DD	2 DUP(00H)
	DD	00H
	DD	05H
xdata$x	ENDS
;	COMDAT xdata$x
xdata$x	SEGMENT
__unwindtable$??0?$CMap@KKPAVCGamePropertyRelatItem@NGamePropertyListManager@@AAPAV12@@@QAE@H@Z DD 0ffffffffH
	DD	FLAT:__unwindfunclet$??0?$CMap@KKPAVCGamePropertyRelatItem@NGamePropertyListManager@@AAPAV12@@@QAE@H@Z$0
__ehfuncinfo$??0?$CMap@KKPAVCGamePropertyRelatItem@NGamePropertyListManager@@AAPAV12@@@QAE@H@Z DD 019930522H
	DD	01H
	DD	FLAT:__unwindtable$??0?$CMap@KKPAVCGamePropertyRelatItem@NGamePropertyListManager@@AAPAV12@@@QAE@H@Z
	DD	2 DUP(00H)
	DD	2 DUP(00H)
	DD	00H
	DD	01H
xdata$x	ENDS
;	COMDAT xdata$x
xdata$x	SEGMENT
__ehfuncinfo$??1?$CMap@KKPAVCGamePropertyTypeItem@NGamePropertyListManager@@AAPAV12@@@UAE@XZ DD 019930522H
	DD	00H
	DD	00H
	DD	2 DUP(00H)
	DD	2 DUP(00H)
	DD	00H
	DD	05H
xdata$x	ENDS
;	COMDAT xdata$x
xdata$x	SEGMENT
__unwindtable$??0?$CMap@KKPAVCGamePropertyTypeItem@NGamePropertyListManager@@AAPAV12@@@QAE@H@Z DD 0ffffffffH
	DD	FLAT:__unwindfunclet$??0?$CMap@KKPAVCGamePropertyTypeItem@NGamePropertyListManager@@AAPAV12@@@QAE@H@Z$0
__ehfuncinfo$??0?$CMap@KKPAVCGamePropertyTypeItem@NGamePropertyListManager@@AAPAV12@@@QAE@H@Z DD 019930522H
	DD	01H
	DD	FLAT:__unwindtable$??0?$CMap@KKPAVCGamePropertyTypeItem@NGamePropertyListManager@@AAPAV12@@@QAE@H@Z
	DD	2 DUP(00H)
	DD	2 DUP(00H)
	DD	00H
	DD	01H
xdata$x	ENDS
; Function compile flags: /Odtp /ZI
; File c:\program files (x86)\microsoft visual studio\2017\community\vc\tools\msvc\14.16.27023\atlmfc\include\afxtempl.h
;	COMDAT ??$DumpElements@PAVCGamePropertySubItem@NGamePropertyListManager@@@@YGXAAVCDumpContext@@PBQAVCGamePropertySubItem@NGamePropertyListManager@@H@Z
_TEXT	SEGMENT
tv66 = -72						; size = 4
___afx_condVal$1 = -4					; size = 4
_dc$ = 8						; size = 4
_pElements$ = 12					; size = 4
_nCount$ = 16						; size = 4
??$DumpElements@PAVCGamePropertySubItem@NGamePropertyListManager@@@@YGXAAVCDumpContext@@PBQAVCGamePropertySubItem@NGamePropertyListManager@@H@Z PROC ; DumpElements<NGamePropertyListManager::CGamePropertySubItem *>, COMDAT

; 137  : {

  00000	55		 push	 ebp
  00001	8b ec		 mov	 ebp, esp
  00003	83 ec 48	 sub	 esp, 72			; 00000048H
  00006	53		 push	 ebx
  00007	56		 push	 esi
  00008	57		 push	 edi
$LN4@DumpElemen:

; 138  : 	ENSURE(nCount == 0 || pElements != NULL);

  00009	83 7d 10 00	 cmp	 DWORD PTR _nCount$[ebp], 0
  0000d	74 0f		 je	 SHORT $LN7@DumpElemen
  0000f	83 7d 0c 00	 cmp	 DWORD PTR _pElements$[ebp], 0
  00013	75 09		 jne	 SHORT $LN7@DumpElemen
  00015	c7 45 b8 00 00
	00 00		 mov	 DWORD PTR tv66[ebp], 0
  0001c	eb 07		 jmp	 SHORT $LN8@DumpElemen
$LN7@DumpElemen:
  0001e	c7 45 b8 01 00
	00 00		 mov	 DWORD PTR tv66[ebp], 1
$LN8@DumpElemen:
  00025	8b 45 b8	 mov	 eax, DWORD PTR tv66[ebp]
  00028	89 45 fc	 mov	 DWORD PTR ___afx_condVal$1[ebp], eax
  0002b	83 7d fc 00	 cmp	 DWORD PTR ___afx_condVal$1[ebp], 0
  0002f	75 14		 jne	 SHORT $LN9@DumpElemen
  00031	68 8a 00 00 00	 push	 138			; 0000008aH
  00036	68 00 00 00 00	 push	 OFFSET ??_C@_0HC@HBCNBCLF@c?3?2program?5files?5?$CIx86?$CJ?2microsof@
  0003b	e8 00 00 00 00	 call	 ?AfxAssertFailedLine@@YGHPBDH@Z ; AfxAssertFailedLine
  00040	85 c0		 test	 eax, eax
  00042	74 01		 je	 SHORT $LN9@DumpElemen
  00044	cc		 int	 3
$LN9@DumpElemen:
  00045	83 7d fc 00	 cmp	 DWORD PTR ___afx_condVal$1[ebp], 0
  00049	75 05		 jne	 SHORT $LN2@DumpElemen
  0004b	e8 00 00 00 00	 call	 ?AfxThrowInvalidArgException@@YGXXZ ; AfxThrowInvalidArgException
$LN2@DumpElemen:
  00050	33 c0		 xor	 eax, eax
  00052	75 b5		 jne	 SHORT $LN4@DumpElemen

; 139  : 	ASSERT(nCount == 0 ||

  00054	83 7d 10 00	 cmp	 DWORD PTR _nCount$[ebp], 0
  00058	74 2a		 je	 SHORT $LN6@DumpElemen
  0005a	6a 00		 push	 0
  0005c	8b 45 10	 mov	 eax, DWORD PTR _nCount$[ebp]
  0005f	c1 e0 02	 shl	 eax, 2
  00062	50		 push	 eax
  00063	8b 4d 0c	 mov	 ecx, DWORD PTR _pElements$[ebp]
  00066	51		 push	 ecx
  00067	e8 00 00 00 00	 call	 ?AfxIsValidAddress@@YGHPBXIH@Z ; AfxIsValidAddress
  0006c	85 c0		 test	 eax, eax
  0006e	75 14		 jne	 SHORT $LN6@DumpElemen
  00070	68 8c 00 00 00	 push	 140			; 0000008cH
  00075	68 00 00 00 00	 push	 OFFSET ??_C@_0HC@HBCNBCLF@c?3?2program?5files?5?$CIx86?$CJ?2microsof@
  0007a	e8 00 00 00 00	 call	 ?AfxAssertFailedLine@@YGHPBDH@Z ; AfxAssertFailedLine
  0007f	85 c0		 test	 eax, eax
  00081	74 01		 je	 SHORT $LN6@DumpElemen
  00083	cc		 int	 3
$LN6@DumpElemen:

; 140  : 		AfxIsValidAddress(pElements, (size_t)nCount * sizeof(TYPE), FALSE));
; 141  : 	(dc); // not used
; 142  : 	(pElements);  // not used
; 143  : 	(nCount); // not used
; 144  : 
; 145  : 	// default does nothing
; 146  : }

  00084	5f		 pop	 edi
  00085	5e		 pop	 esi
  00086	5b		 pop	 ebx
  00087	8b e5		 mov	 esp, ebp
  00089	5d		 pop	 ebp
  0008a	c2 0c 00	 ret	 12			; 0000000cH
??$DumpElements@PAVCGamePropertySubItem@NGamePropertyListManager@@@@YGXAAVCDumpContext@@PBQAVCGamePropertySubItem@NGamePropertyListManager@@H@Z ENDP ; DumpElements<NGamePropertyListManager::CGamePropertySubItem *>
_TEXT	ENDS
; Function compile flags: /Odtp /ZI
; File c:\program files (x86)\microsoft visual studio\2017\community\vc\tools\msvc\14.16.27023\atlmfc\include\afxtempl.h
;	COMDAT ??$SerializeElements@PAVCGamePropertySubItem@NGamePropertyListManager@@@@YGXAAVCArchive@@PAPAVCGamePropertySubItem@NGamePropertyListManager@@H@Z
_TEXT	SEGMENT
tv134 = -96						; size = 4
tv92 = -96						; size = 4
tv66 = -96						; size = 4
_nElementsToRead$1 = -28				; size = 4
_nElementsLeft$2 = -24					; size = 4
_pData$3 = -20						; size = 4
_nElementsToWrite$4 = -16				; size = 4
_nElementsLeft$5 = -12					; size = 4
_pData$6 = -8						; size = 4
___afx_condVal$7 = -4					; size = 4
_ar$ = 8						; size = 4
_pElements$ = 12					; size = 4
_nCount$ = 16						; size = 4
??$SerializeElements@PAVCGamePropertySubItem@NGamePropertyListManager@@@@YGXAAVCArchive@@PAPAVCGamePropertySubItem@NGamePropertyListManager@@H@Z PROC ; SerializeElements<NGamePropertyListManager::CGamePropertySubItem *>, COMDAT

; 67   : {

  00000	55		 push	 ebp
  00001	8b ec		 mov	 ebp, esp
  00003	83 ec 60	 sub	 esp, 96			; 00000060H
  00006	53		 push	 ebx
  00007	56		 push	 esi
  00008	57		 push	 edi
$LN4@SerializeE:

; 68   : 	ENSURE(nCount == 0 || pElements != NULL);

  00009	83 7d 10 00	 cmp	 DWORD PTR _nCount$[ebp], 0
  0000d	74 0f		 je	 SHORT $LN13@SerializeE
  0000f	83 7d 0c 00	 cmp	 DWORD PTR _pElements$[ebp], 0
  00013	75 09		 jne	 SHORT $LN13@SerializeE
  00015	c7 45 a0 00 00
	00 00		 mov	 DWORD PTR tv66[ebp], 0
  0001c	eb 07		 jmp	 SHORT $LN14@SerializeE
$LN13@SerializeE:
  0001e	c7 45 a0 01 00
	00 00		 mov	 DWORD PTR tv66[ebp], 1
$LN14@SerializeE:
  00025	8b 45 a0	 mov	 eax, DWORD PTR tv66[ebp]
  00028	89 45 fc	 mov	 DWORD PTR ___afx_condVal$7[ebp], eax
  0002b	83 7d fc 00	 cmp	 DWORD PTR ___afx_condVal$7[ebp], 0
  0002f	75 11		 jne	 SHORT $LN15@SerializeE
  00031	6a 44		 push	 68			; 00000044H
  00033	68 00 00 00 00	 push	 OFFSET ??_C@_0HC@HBCNBCLF@c?3?2program?5files?5?$CIx86?$CJ?2microsof@
  00038	e8 00 00 00 00	 call	 ?AfxAssertFailedLine@@YGHPBDH@Z ; AfxAssertFailedLine
  0003d	85 c0		 test	 eax, eax
  0003f	74 01		 je	 SHORT $LN15@SerializeE
  00041	cc		 int	 3
$LN15@SerializeE:
  00042	83 7d fc 00	 cmp	 DWORD PTR ___afx_condVal$7[ebp], 0
  00046	75 05		 jne	 SHORT $LN2@SerializeE
  00048	e8 00 00 00 00	 call	 ?AfxThrowInvalidArgException@@YGXXZ ; AfxThrowInvalidArgException
$LN2@SerializeE:
  0004d	33 c0		 xor	 eax, eax
  0004f	75 b8		 jne	 SHORT $LN4@SerializeE

; 69   : 	ASSERT(nCount == 0 ||

  00051	83 7d 10 00	 cmp	 DWORD PTR _nCount$[ebp], 0
  00055	74 27		 je	 SHORT $LN16@SerializeE
  00057	6a 01		 push	 1
  00059	8b 45 10	 mov	 eax, DWORD PTR _nCount$[ebp]
  0005c	c1 e0 02	 shl	 eax, 2
  0005f	50		 push	 eax
  00060	8b 4d 0c	 mov	 ecx, DWORD PTR _pElements$[ebp]
  00063	51		 push	 ecx
  00064	e8 00 00 00 00	 call	 ?AfxIsValidAddress@@YGHPBXIH@Z ; AfxIsValidAddress
  00069	85 c0		 test	 eax, eax
  0006b	75 11		 jne	 SHORT $LN16@SerializeE
  0006d	6a 46		 push	 70			; 00000046H
  0006f	68 00 00 00 00	 push	 OFFSET ??_C@_0HC@HBCNBCLF@c?3?2program?5files?5?$CIx86?$CJ?2microsof@
  00074	e8 00 00 00 00	 call	 ?AfxAssertFailedLine@@YGHPBDH@Z ; AfxAssertFailedLine
  00079	85 c0		 test	 eax, eax
  0007b	74 01		 je	 SHORT $LN16@SerializeE
  0007d	cc		 int	 3
$LN16@SerializeE:

; 70   : 		AfxIsValidAddress(pElements, (size_t)nCount * sizeof(TYPE)));
; 71   : 
; 72   : 	// default is bit-wise read/write
; 73   : 	if (ar.IsStoring())

  0007e	8b 4d 08	 mov	 ecx, DWORD PTR _ar$[ebp]
  00081	e8 00 00 00 00	 call	 ?IsStoring@CArchive@@QBEHXZ ; CArchive::IsStoring
  00086	85 c0		 test	 eax, eax
  00088	74 5c		 je	 SHORT $LN10@SerializeE

; 74   : 	{
; 75   : 		TYPE* pData;
; 76   : 		UINT_PTR nElementsLeft;
; 77   : 
; 78   : 		nElementsLeft = nCount;

  0008a	8b 45 10	 mov	 eax, DWORD PTR _nCount$[ebp]
  0008d	89 45 f4	 mov	 DWORD PTR _nElementsLeft$5[ebp], eax

; 79   : 		pData = pElements;

  00090	8b 45 0c	 mov	 eax, DWORD PTR _pElements$[ebp]
  00093	89 45 f8	 mov	 DWORD PTR _pData$6[ebp], eax
$LN5@SerializeE:

; 80   : 		while( nElementsLeft > 0 )

  00096	83 7d f4 00	 cmp	 DWORD PTR _nElementsLeft$5[ebp], 0
  0009a	76 48		 jbe	 SHORT $LN6@SerializeE

; 81   : 		{
; 82   : 			UINT nElementsToWrite;
; 83   : 
; 84   : 			nElementsToWrite = UINT(__min(nElementsLeft, INT_MAX/sizeof(TYPE)));

  0009c	81 7d f4 ff ff
	ff 1f		 cmp	 DWORD PTR _nElementsLeft$5[ebp], 536870911 ; 1fffffffH
  000a3	73 08		 jae	 SHORT $LN17@SerializeE
  000a5	8b 45 f4	 mov	 eax, DWORD PTR _nElementsLeft$5[ebp]
  000a8	89 45 a0	 mov	 DWORD PTR tv92[ebp], eax
  000ab	eb 07		 jmp	 SHORT $LN18@SerializeE
$LN17@SerializeE:
  000ad	c7 45 a0 ff ff
	ff 1f		 mov	 DWORD PTR tv92[ebp], 536870911 ; 1fffffffH
$LN18@SerializeE:
  000b4	8b 4d a0	 mov	 ecx, DWORD PTR tv92[ebp]
  000b7	89 4d f0	 mov	 DWORD PTR _nElementsToWrite$4[ebp], ecx

; 85   : 			ar.Write(pData, nElementsToWrite*sizeof(TYPE));

  000ba	8b 45 f0	 mov	 eax, DWORD PTR _nElementsToWrite$4[ebp]
  000bd	c1 e0 02	 shl	 eax, 2
  000c0	50		 push	 eax
  000c1	8b 4d f8	 mov	 ecx, DWORD PTR _pData$6[ebp]
  000c4	51		 push	 ecx
  000c5	8b 4d 08	 mov	 ecx, DWORD PTR _ar$[ebp]
  000c8	e8 00 00 00 00	 call	 ?Write@CArchive@@QAEXPBXI@Z ; CArchive::Write

; 86   : 			nElementsLeft -= nElementsToWrite;

  000cd	8b 45 f4	 mov	 eax, DWORD PTR _nElementsLeft$5[ebp]
  000d0	2b 45 f0	 sub	 eax, DWORD PTR _nElementsToWrite$4[ebp]
  000d3	89 45 f4	 mov	 DWORD PTR _nElementsLeft$5[ebp], eax

; 87   : 			pData += nElementsToWrite;

  000d6	8b 45 f0	 mov	 eax, DWORD PTR _nElementsToWrite$4[ebp]
  000d9	8b 4d f8	 mov	 ecx, DWORD PTR _pData$6[ebp]
  000dc	8d 14 81	 lea	 edx, DWORD PTR [ecx+eax*4]
  000df	89 55 f8	 mov	 DWORD PTR _pData$6[ebp], edx

; 88   : 		}

  000e2	eb b2		 jmp	 SHORT $LN5@SerializeE
$LN6@SerializeE:

; 89   : 	}
; 90   : 	else

  000e4	eb 5a		 jmp	 SHORT $LN12@SerializeE
$LN10@SerializeE:

; 91   : 	{
; 92   : 		TYPE* pData;
; 93   : 		UINT_PTR nElementsLeft;
; 94   : 
; 95   : 		nElementsLeft = nCount;

  000e6	8b 45 10	 mov	 eax, DWORD PTR _nCount$[ebp]
  000e9	89 45 e8	 mov	 DWORD PTR _nElementsLeft$2[ebp], eax

; 96   : 		pData = pElements;

  000ec	8b 45 0c	 mov	 eax, DWORD PTR _pElements$[ebp]
  000ef	89 45 ec	 mov	 DWORD PTR _pData$3[ebp], eax
$LN7@SerializeE:

; 97   : 		while( nElementsLeft > 0 )

  000f2	83 7d e8 00	 cmp	 DWORD PTR _nElementsLeft$2[ebp], 0
  000f6	76 48		 jbe	 SHORT $LN12@SerializeE

; 98   : 		{
; 99   : 			UINT nElementsToRead;
; 100  : 
; 101  : 			nElementsToRead = UINT(__min(nElementsLeft, INT_MAX/sizeof(TYPE)));

  000f8	81 7d e8 ff ff
	ff 1f		 cmp	 DWORD PTR _nElementsLeft$2[ebp], 536870911 ; 1fffffffH
  000ff	73 08		 jae	 SHORT $LN19@SerializeE
  00101	8b 45 e8	 mov	 eax, DWORD PTR _nElementsLeft$2[ebp]
  00104	89 45 a0	 mov	 DWORD PTR tv134[ebp], eax
  00107	eb 07		 jmp	 SHORT $LN20@SerializeE
$LN19@SerializeE:
  00109	c7 45 a0 ff ff
	ff 1f		 mov	 DWORD PTR tv134[ebp], 536870911 ; 1fffffffH
$LN20@SerializeE:
  00110	8b 4d a0	 mov	 ecx, DWORD PTR tv134[ebp]
  00113	89 4d e4	 mov	 DWORD PTR _nElementsToRead$1[ebp], ecx

; 102  : 			ar.EnsureRead(pData, nElementsToRead*sizeof(TYPE));

  00116	8b 45 e4	 mov	 eax, DWORD PTR _nElementsToRead$1[ebp]
  00119	c1 e0 02	 shl	 eax, 2
  0011c	50		 push	 eax
  0011d	8b 4d ec	 mov	 ecx, DWORD PTR _pData$3[ebp]
  00120	51		 push	 ecx
  00121	8b 4d 08	 mov	 ecx, DWORD PTR _ar$[ebp]
  00124	e8 00 00 00 00	 call	 ?EnsureRead@CArchive@@QAEXPAXI@Z ; CArchive::EnsureRead

; 103  : 			nElementsLeft -= nElementsToRead;

  00129	8b 45 e8	 mov	 eax, DWORD PTR _nElementsLeft$2[ebp]
  0012c	2b 45 e4	 sub	 eax, DWORD PTR _nElementsToRead$1[ebp]
  0012f	89 45 e8	 mov	 DWORD PTR _nElementsLeft$2[ebp], eax

; 104  : 			pData += nElementsToRead;

  00132	8b 45 e4	 mov	 eax, DWORD PTR _nElementsToRead$1[ebp]
  00135	8b 4d ec	 mov	 ecx, DWORD PTR _pData$3[ebp]
  00138	8d 14 81	 lea	 edx, DWORD PTR [ecx+eax*4]
  0013b	89 55 ec	 mov	 DWORD PTR _pData$3[ebp], edx

; 105  : 		}

  0013e	eb b2		 jmp	 SHORT $LN7@SerializeE
$LN12@SerializeE:

; 106  : 	}
; 107  : }

  00140	5f		 pop	 edi
  00141	5e		 pop	 esi
  00142	5b		 pop	 ebx
  00143	8b e5		 mov	 esp, ebp
  00145	5d		 pop	 ebp
  00146	c2 0c 00	 ret	 12			; 0000000cH
??$SerializeElements@PAVCGamePropertySubItem@NGamePropertyListManager@@@@YGXAAVCArchive@@PAPAVCGamePropertySubItem@NGamePropertyListManager@@H@Z ENDP ; SerializeElements<NGamePropertyListManager::CGamePropertySubItem *>
_TEXT	ENDS
; Function compile flags: /Odtp /ZI
; File c:\program files (x86)\microsoft visual studio\2017\community\vc\tools\msvc\14.16.27023\atlmfc\include\afxtempl.h
;	COMDAT ??0CAssoc@?$CMap@KKPAVCGamePropertySubItem@NGamePropertyListManager@@AAPAV12@@@QAE@K@Z
_TEXT	SEGMENT
_this$ = -4						; size = 4
_key$ = 8						; size = 4
??0CAssoc@?$CMap@KKPAVCGamePropertySubItem@NGamePropertyListManager@@AAPAV12@@@QAE@K@Z PROC ; CMap<unsigned long,unsigned long,NGamePropertyListManager::CGamePropertySubItem *,NGamePropertyListManager::CGamePropertySubItem * &>::CAssoc::CAssoc, COMDAT
; _this$ = ecx

; 1267 : 		CAssoc( ARG_KEY key ) : CPair( key ) {}

  00000	55		 push	 ebp
  00001	8b ec		 mov	 ebp, esp
  00003	83 ec 44	 sub	 esp, 68			; 00000044H
  00006	53		 push	 ebx
  00007	56		 push	 esi
  00008	57		 push	 edi
  00009	89 4d fc	 mov	 DWORD PTR _this$[ebp], ecx
  0000c	8b 45 08	 mov	 eax, DWORD PTR _key$[ebp]
  0000f	50		 push	 eax
  00010	8b 4d fc	 mov	 ecx, DWORD PTR _this$[ebp]
  00013	e8 00 00 00 00	 call	 ??0CPair@?$CMap@KKPAVCGamePropertySubItem@NGamePropertyListManager@@AAPAV12@@@IAE@K@Z ; CMap<unsigned long,unsigned long,NGamePropertyListManager::CGamePropertySubItem *,NGamePropertyListManager::CGamePropertySubItem * &>::CPair::CPair
  00018	8b 45 fc	 mov	 eax, DWORD PTR _this$[ebp]
  0001b	5f		 pop	 edi
  0001c	5e		 pop	 esi
  0001d	5b		 pop	 ebx
  0001e	8b e5		 mov	 esp, ebp
  00020	5d		 pop	 ebp
  00021	c2 04 00	 ret	 4
??0CAssoc@?$CMap@KKPAVCGamePropertySubItem@NGamePropertyListManager@@AAPAV12@@@QAE@K@Z ENDP ; CMap<unsigned long,unsigned long,NGamePropertyListManager::CGamePropertySubItem *,NGamePropertyListManager::CGamePropertySubItem * &>::CAssoc::CAssoc
_TEXT	ENDS
; Function compile flags: /Odtp /ZI
; File c:\program files (x86)\microsoft visual studio\2017\community\vc\tools\msvc\14.16.27023\atlmfc\include\afxtempl.h
;	COMDAT ??0CPair@?$CMap@KKPAVCGamePropertySubItem@NGamePropertyListManager@@AAPAV12@@@IAE@K@Z
_TEXT	SEGMENT
_this$ = -4						; size = 4
_keyval$ = 8						; size = 4
??0CPair@?$CMap@KKPAVCGamePropertySubItem@NGamePropertyListManager@@AAPAV12@@@IAE@K@Z PROC ; CMap<unsigned long,unsigned long,NGamePropertyListManager::CGamePropertySubItem *,NGamePropertyListManager::CGamePropertySubItem * &>::CPair::CPair, COMDAT
; _this$ = ecx

; 1256 : 		CPair( ARG_KEY keyval ) : key( keyval )	{}

  00000	55		 push	 ebp
  00001	8b ec		 mov	 ebp, esp
  00003	83 ec 44	 sub	 esp, 68			; 00000044H
  00006	53		 push	 ebx
  00007	56		 push	 esi
  00008	57		 push	 edi
  00009	89 4d fc	 mov	 DWORD PTR _this$[ebp], ecx
  0000c	8b 45 fc	 mov	 eax, DWORD PTR _this$[ebp]
  0000f	8b 4d 08	 mov	 ecx, DWORD PTR _keyval$[ebp]
  00012	89 08		 mov	 DWORD PTR [eax], ecx
  00014	8b 45 fc	 mov	 eax, DWORD PTR _this$[ebp]
  00017	5f		 pop	 edi
  00018	5e		 pop	 esi
  00019	5b		 pop	 ebx
  0001a	8b e5		 mov	 esp, ebp
  0001c	5d		 pop	 ebp
  0001d	c2 04 00	 ret	 4
??0CPair@?$CMap@KKPAVCGamePropertySubItem@NGamePropertyListManager@@AAPAV12@@@IAE@K@Z ENDP ; CMap<unsigned long,unsigned long,NGamePropertyListManager::CGamePropertySubItem *,NGamePropertyListManager::CGamePropertySubItem * &>::CPair::CPair
_TEXT	ENDS
; Function compile flags: /Odtp /ZI
; File c:\program files (x86)\microsoft visual studio\2017\community\vc\tools\msvc\14.16.27023\atlmfc\include\afxtempl.h
;	COMDAT ??$DumpElements@PAVCGamePropertyItem@NGamePropertyListManager@@@@YGXAAVCDumpContext@@PBQAVCGamePropertyItem@NGamePropertyListManager@@H@Z
_TEXT	SEGMENT
tv66 = -72						; size = 4
___afx_condVal$1 = -4					; size = 4
_dc$ = 8						; size = 4
_pElements$ = 12					; size = 4
_nCount$ = 16						; size = 4
??$DumpElements@PAVCGamePropertyItem@NGamePropertyListManager@@@@YGXAAVCDumpContext@@PBQAVCGamePropertyItem@NGamePropertyListManager@@H@Z PROC ; DumpElements<NGamePropertyListManager::CGamePropertyItem *>, COMDAT

; 137  : {

  00000	55		 push	 ebp
  00001	8b ec		 mov	 ebp, esp
  00003	83 ec 48	 sub	 esp, 72			; 00000048H
  00006	53		 push	 ebx
  00007	56		 push	 esi
  00008	57		 push	 edi
$LN4@DumpElemen:

; 138  : 	ENSURE(nCount == 0 || pElements != NULL);

  00009	83 7d 10 00	 cmp	 DWORD PTR _nCount$[ebp], 0
  0000d	74 0f		 je	 SHORT $LN7@DumpElemen
  0000f	83 7d 0c 00	 cmp	 DWORD PTR _pElements$[ebp], 0
  00013	75 09		 jne	 SHORT $LN7@DumpElemen
  00015	c7 45 b8 00 00
	00 00		 mov	 DWORD PTR tv66[ebp], 0
  0001c	eb 07		 jmp	 SHORT $LN8@DumpElemen
$LN7@DumpElemen:
  0001e	c7 45 b8 01 00
	00 00		 mov	 DWORD PTR tv66[ebp], 1
$LN8@DumpElemen:
  00025	8b 45 b8	 mov	 eax, DWORD PTR tv66[ebp]
  00028	89 45 fc	 mov	 DWORD PTR ___afx_condVal$1[ebp], eax
  0002b	83 7d fc 00	 cmp	 DWORD PTR ___afx_condVal$1[ebp], 0
  0002f	75 14		 jne	 SHORT $LN9@DumpElemen
  00031	68 8a 00 00 00	 push	 138			; 0000008aH
  00036	68 00 00 00 00	 push	 OFFSET ??_C@_0HC@HBCNBCLF@c?3?2program?5files?5?$CIx86?$CJ?2microsof@
  0003b	e8 00 00 00 00	 call	 ?AfxAssertFailedLine@@YGHPBDH@Z ; AfxAssertFailedLine
  00040	85 c0		 test	 eax, eax
  00042	74 01		 je	 SHORT $LN9@DumpElemen
  00044	cc		 int	 3
$LN9@DumpElemen:
  00045	83 7d fc 00	 cmp	 DWORD PTR ___afx_condVal$1[ebp], 0
  00049	75 05		 jne	 SHORT $LN2@DumpElemen
  0004b	e8 00 00 00 00	 call	 ?AfxThrowInvalidArgException@@YGXXZ ; AfxThrowInvalidArgException
$LN2@DumpElemen:
  00050	33 c0		 xor	 eax, eax
  00052	75 b5		 jne	 SHORT $LN4@DumpElemen

; 139  : 	ASSERT(nCount == 0 ||

  00054	83 7d 10 00	 cmp	 DWORD PTR _nCount$[ebp], 0
  00058	74 2a		 je	 SHORT $LN6@DumpElemen
  0005a	6a 00		 push	 0
  0005c	8b 45 10	 mov	 eax, DWORD PTR _nCount$[ebp]
  0005f	c1 e0 02	 shl	 eax, 2
  00062	50		 push	 eax
  00063	8b 4d 0c	 mov	 ecx, DWORD PTR _pElements$[ebp]
  00066	51		 push	 ecx
  00067	e8 00 00 00 00	 call	 ?AfxIsValidAddress@@YGHPBXIH@Z ; AfxIsValidAddress
  0006c	85 c0		 test	 eax, eax
  0006e	75 14		 jne	 SHORT $LN6@DumpElemen
  00070	68 8c 00 00 00	 push	 140			; 0000008cH
  00075	68 00 00 00 00	 push	 OFFSET ??_C@_0HC@HBCNBCLF@c?3?2program?5files?5?$CIx86?$CJ?2microsof@
  0007a	e8 00 00 00 00	 call	 ?AfxAssertFailedLine@@YGHPBDH@Z ; AfxAssertFailedLine
  0007f	85 c0		 test	 eax, eax
  00081	74 01		 je	 SHORT $LN6@DumpElemen
  00083	cc		 int	 3
$LN6@DumpElemen:

; 140  : 		AfxIsValidAddress(pElements, (size_t)nCount * sizeof(TYPE), FALSE));
; 141  : 	(dc); // not used
; 142  : 	(pElements);  // not used
; 143  : 	(nCount); // not used
; 144  : 
; 145  : 	// default does nothing
; 146  : }

  00084	5f		 pop	 edi
  00085	5e		 pop	 esi
  00086	5b		 pop	 ebx
  00087	8b e5		 mov	 esp, ebp
  00089	5d		 pop	 ebp
  0008a	c2 0c 00	 ret	 12			; 0000000cH
??$DumpElements@PAVCGamePropertyItem@NGamePropertyListManager@@@@YGXAAVCDumpContext@@PBQAVCGamePropertyItem@NGamePropertyListManager@@H@Z ENDP ; DumpElements<NGamePropertyListManager::CGamePropertyItem *>
_TEXT	ENDS
; Function compile flags: /Odtp /ZI
; File c:\program files (x86)\microsoft visual studio\2017\community\vc\tools\msvc\14.16.27023\atlmfc\include\afxtempl.h
;	COMDAT ??$SerializeElements@PAVCGamePropertyItem@NGamePropertyListManager@@@@YGXAAVCArchive@@PAPAVCGamePropertyItem@NGamePropertyListManager@@H@Z
_TEXT	SEGMENT
tv134 = -96						; size = 4
tv92 = -96						; size = 4
tv66 = -96						; size = 4
_nElementsToRead$1 = -28				; size = 4
_nElementsLeft$2 = -24					; size = 4
_pData$3 = -20						; size = 4
_nElementsToWrite$4 = -16				; size = 4
_nElementsLeft$5 = -12					; size = 4
_pData$6 = -8						; size = 4
___afx_condVal$7 = -4					; size = 4
_ar$ = 8						; size = 4
_pElements$ = 12					; size = 4
_nCount$ = 16						; size = 4
??$SerializeElements@PAVCGamePropertyItem@NGamePropertyListManager@@@@YGXAAVCArchive@@PAPAVCGamePropertyItem@NGamePropertyListManager@@H@Z PROC ; SerializeElements<NGamePropertyListManager::CGamePropertyItem *>, COMDAT

; 67   : {

  00000	55		 push	 ebp
  00001	8b ec		 mov	 ebp, esp
  00003	83 ec 60	 sub	 esp, 96			; 00000060H
  00006	53		 push	 ebx
  00007	56		 push	 esi
  00008	57		 push	 edi
$LN4@SerializeE:

; 68   : 	ENSURE(nCount == 0 || pElements != NULL);

  00009	83 7d 10 00	 cmp	 DWORD PTR _nCount$[ebp], 0
  0000d	74 0f		 je	 SHORT $LN13@SerializeE
  0000f	83 7d 0c 00	 cmp	 DWORD PTR _pElements$[ebp], 0
  00013	75 09		 jne	 SHORT $LN13@SerializeE
  00015	c7 45 a0 00 00
	00 00		 mov	 DWORD PTR tv66[ebp], 0
  0001c	eb 07		 jmp	 SHORT $LN14@SerializeE
$LN13@SerializeE:
  0001e	c7 45 a0 01 00
	00 00		 mov	 DWORD PTR tv66[ebp], 1
$LN14@SerializeE:
  00025	8b 45 a0	 mov	 eax, DWORD PTR tv66[ebp]
  00028	89 45 fc	 mov	 DWORD PTR ___afx_condVal$7[ebp], eax
  0002b	83 7d fc 00	 cmp	 DWORD PTR ___afx_condVal$7[ebp], 0
  0002f	75 11		 jne	 SHORT $LN15@SerializeE
  00031	6a 44		 push	 68			; 00000044H
  00033	68 00 00 00 00	 push	 OFFSET ??_C@_0HC@HBCNBCLF@c?3?2program?5files?5?$CIx86?$CJ?2microsof@
  00038	e8 00 00 00 00	 call	 ?AfxAssertFailedLine@@YGHPBDH@Z ; AfxAssertFailedLine
  0003d	85 c0		 test	 eax, eax
  0003f	74 01		 je	 SHORT $LN15@SerializeE
  00041	cc		 int	 3
$LN15@SerializeE:
  00042	83 7d fc 00	 cmp	 DWORD PTR ___afx_condVal$7[ebp], 0
  00046	75 05		 jne	 SHORT $LN2@SerializeE
  00048	e8 00 00 00 00	 call	 ?AfxThrowInvalidArgException@@YGXXZ ; AfxThrowInvalidArgException
$LN2@SerializeE:
  0004d	33 c0		 xor	 eax, eax
  0004f	75 b8		 jne	 SHORT $LN4@SerializeE

; 69   : 	ASSERT(nCount == 0 ||

  00051	83 7d 10 00	 cmp	 DWORD PTR _nCount$[ebp], 0
  00055	74 27		 je	 SHORT $LN16@SerializeE
  00057	6a 01		 push	 1
  00059	8b 45 10	 mov	 eax, DWORD PTR _nCount$[ebp]
  0005c	c1 e0 02	 shl	 eax, 2
  0005f	50		 push	 eax
  00060	8b 4d 0c	 mov	 ecx, DWORD PTR _pElements$[ebp]
  00063	51		 push	 ecx
  00064	e8 00 00 00 00	 call	 ?AfxIsValidAddress@@YGHPBXIH@Z ; AfxIsValidAddress
  00069	85 c0		 test	 eax, eax
  0006b	75 11		 jne	 SHORT $LN16@SerializeE
  0006d	6a 46		 push	 70			; 00000046H
  0006f	68 00 00 00 00	 push	 OFFSET ??_C@_0HC@HBCNBCLF@c?3?2program?5files?5?$CIx86?$CJ?2microsof@
  00074	e8 00 00 00 00	 call	 ?AfxAssertFailedLine@@YGHPBDH@Z ; AfxAssertFailedLine
  00079	85 c0		 test	 eax, eax
  0007b	74 01		 je	 SHORT $LN16@SerializeE
  0007d	cc		 int	 3
$LN16@SerializeE:

; 70   : 		AfxIsValidAddress(pElements, (size_t)nCount * sizeof(TYPE)));
; 71   : 
; 72   : 	// default is bit-wise read/write
; 73   : 	if (ar.IsStoring())

  0007e	8b 4d 08	 mov	 ecx, DWORD PTR _ar$[ebp]
  00081	e8 00 00 00 00	 call	 ?IsStoring@CArchive@@QBEHXZ ; CArchive::IsStoring
  00086	85 c0		 test	 eax, eax
  00088	74 5c		 je	 SHORT $LN10@SerializeE

; 74   : 	{
; 75   : 		TYPE* pData;
; 76   : 		UINT_PTR nElementsLeft;
; 77   : 
; 78   : 		nElementsLeft = nCount;

  0008a	8b 45 10	 mov	 eax, DWORD PTR _nCount$[ebp]
  0008d	89 45 f4	 mov	 DWORD PTR _nElementsLeft$5[ebp], eax

; 79   : 		pData = pElements;

  00090	8b 45 0c	 mov	 eax, DWORD PTR _pElements$[ebp]
  00093	89 45 f8	 mov	 DWORD PTR _pData$6[ebp], eax
$LN5@SerializeE:

; 80   : 		while( nElementsLeft > 0 )

  00096	83 7d f4 00	 cmp	 DWORD PTR _nElementsLeft$5[ebp], 0
  0009a	76 48		 jbe	 SHORT $LN6@SerializeE

; 81   : 		{
; 82   : 			UINT nElementsToWrite;
; 83   : 
; 84   : 			nElementsToWrite = UINT(__min(nElementsLeft, INT_MAX/sizeof(TYPE)));

  0009c	81 7d f4 ff ff
	ff 1f		 cmp	 DWORD PTR _nElementsLeft$5[ebp], 536870911 ; 1fffffffH
  000a3	73 08		 jae	 SHORT $LN17@SerializeE
  000a5	8b 45 f4	 mov	 eax, DWORD PTR _nElementsLeft$5[ebp]
  000a8	89 45 a0	 mov	 DWORD PTR tv92[ebp], eax
  000ab	eb 07		 jmp	 SHORT $LN18@SerializeE
$LN17@SerializeE:
  000ad	c7 45 a0 ff ff
	ff 1f		 mov	 DWORD PTR tv92[ebp], 536870911 ; 1fffffffH
$LN18@SerializeE:
  000b4	8b 4d a0	 mov	 ecx, DWORD PTR tv92[ebp]
  000b7	89 4d f0	 mov	 DWORD PTR _nElementsToWrite$4[ebp], ecx

; 85   : 			ar.Write(pData, nElementsToWrite*sizeof(TYPE));

  000ba	8b 45 f0	 mov	 eax, DWORD PTR _nElementsToWrite$4[ebp]
  000bd	c1 e0 02	 shl	 eax, 2
  000c0	50		 push	 eax
  000c1	8b 4d f8	 mov	 ecx, DWORD PTR _pData$6[ebp]
  000c4	51		 push	 ecx
  000c5	8b 4d 08	 mov	 ecx, DWORD PTR _ar$[ebp]
  000c8	e8 00 00 00 00	 call	 ?Write@CArchive@@QAEXPBXI@Z ; CArchive::Write

; 86   : 			nElementsLeft -= nElementsToWrite;

  000cd	8b 45 f4	 mov	 eax, DWORD PTR _nElementsLeft$5[ebp]
  000d0	2b 45 f0	 sub	 eax, DWORD PTR _nElementsToWrite$4[ebp]
  000d3	89 45 f4	 mov	 DWORD PTR _nElementsLeft$5[ebp], eax

; 87   : 			pData += nElementsToWrite;

  000d6	8b 45 f0	 mov	 eax, DWORD PTR _nElementsToWrite$4[ebp]
  000d9	8b 4d f8	 mov	 ecx, DWORD PTR _pData$6[ebp]
  000dc	8d 14 81	 lea	 edx, DWORD PTR [ecx+eax*4]
  000df	89 55 f8	 mov	 DWORD PTR _pData$6[ebp], edx

; 88   : 		}

  000e2	eb b2		 jmp	 SHORT $LN5@SerializeE
$LN6@SerializeE:

; 89   : 	}
; 90   : 	else

  000e4	eb 5a		 jmp	 SHORT $LN12@SerializeE
$LN10@SerializeE:

; 91   : 	{
; 92   : 		TYPE* pData;
; 93   : 		UINT_PTR nElementsLeft;
; 94   : 
; 95   : 		nElementsLeft = nCount;

  000e6	8b 45 10	 mov	 eax, DWORD PTR _nCount$[ebp]
  000e9	89 45 e8	 mov	 DWORD PTR _nElementsLeft$2[ebp], eax

; 96   : 		pData = pElements;

  000ec	8b 45 0c	 mov	 eax, DWORD PTR _pElements$[ebp]
  000ef	89 45 ec	 mov	 DWORD PTR _pData$3[ebp], eax
$LN7@SerializeE:

; 97   : 		while( nElementsLeft > 0 )

  000f2	83 7d e8 00	 cmp	 DWORD PTR _nElementsLeft$2[ebp], 0
  000f6	76 48		 jbe	 SHORT $LN12@SerializeE

; 98   : 		{
; 99   : 			UINT nElementsToRead;
; 100  : 
; 101  : 			nElementsToRead = UINT(__min(nElementsLeft, INT_MAX/sizeof(TYPE)));

  000f8	81 7d e8 ff ff
	ff 1f		 cmp	 DWORD PTR _nElementsLeft$2[ebp], 536870911 ; 1fffffffH
  000ff	73 08		 jae	 SHORT $LN19@SerializeE
  00101	8b 45 e8	 mov	 eax, DWORD PTR _nElementsLeft$2[ebp]
  00104	89 45 a0	 mov	 DWORD PTR tv134[ebp], eax
  00107	eb 07		 jmp	 SHORT $LN20@SerializeE
$LN19@SerializeE:
  00109	c7 45 a0 ff ff
	ff 1f		 mov	 DWORD PTR tv134[ebp], 536870911 ; 1fffffffH
$LN20@SerializeE:
  00110	8b 4d a0	 mov	 ecx, DWORD PTR tv134[ebp]
  00113	89 4d e4	 mov	 DWORD PTR _nElementsToRead$1[ebp], ecx

; 102  : 			ar.EnsureRead(pData, nElementsToRead*sizeof(TYPE));

  00116	8b 45 e4	 mov	 eax, DWORD PTR _nElementsToRead$1[ebp]
  00119	c1 e0 02	 shl	 eax, 2
  0011c	50		 push	 eax
  0011d	8b 4d ec	 mov	 ecx, DWORD PTR _pData$3[ebp]
  00120	51		 push	 ecx
  00121	8b 4d 08	 mov	 ecx, DWORD PTR _ar$[ebp]
  00124	e8 00 00 00 00	 call	 ?EnsureRead@CArchive@@QAEXPAXI@Z ; CArchive::EnsureRead

; 103  : 			nElementsLeft -= nElementsToRead;

  00129	8b 45 e8	 mov	 eax, DWORD PTR _nElementsLeft$2[ebp]
  0012c	2b 45 e4	 sub	 eax, DWORD PTR _nElementsToRead$1[ebp]
  0012f	89 45 e8	 mov	 DWORD PTR _nElementsLeft$2[ebp], eax

; 104  : 			pData += nElementsToRead;

  00132	8b 45 e4	 mov	 eax, DWORD PTR _nElementsToRead$1[ebp]
  00135	8b 4d ec	 mov	 ecx, DWORD PTR _pData$3[ebp]
  00138	8d 14 81	 lea	 edx, DWORD PTR [ecx+eax*4]
  0013b	89 55 ec	 mov	 DWORD PTR _pData$3[ebp], edx

; 105  : 		}

  0013e	eb b2		 jmp	 SHORT $LN7@SerializeE
$LN12@SerializeE:

; 106  : 	}
; 107  : }

  00140	5f		 pop	 edi
  00141	5e		 pop	 esi
  00142	5b		 pop	 ebx
  00143	8b e5		 mov	 esp, ebp
  00145	5d		 pop	 ebp
  00146	c2 0c 00	 ret	 12			; 0000000cH
??$SerializeElements@PAVCGamePropertyItem@NGamePropertyListManager@@@@YGXAAVCArchive@@PAPAVCGamePropertyItem@NGamePropertyListManager@@H@Z ENDP ; SerializeElements<NGamePropertyListManager::CGamePropertyItem *>
_TEXT	ENDS
; Function compile flags: /Odtp /ZI
; File c:\program files (x86)\microsoft visual studio\2017\community\vc\tools\msvc\14.16.27023\atlmfc\include\afxtempl.h
;	COMDAT ??0CAssoc@?$CMap@KKPAVCGamePropertyItem@NGamePropertyListManager@@AAPAV12@@@QAE@K@Z
_TEXT	SEGMENT
_this$ = -4						; size = 4
_key$ = 8						; size = 4
??0CAssoc@?$CMap@KKPAVCGamePropertyItem@NGamePropertyListManager@@AAPAV12@@@QAE@K@Z PROC ; CMap<unsigned long,unsigned long,NGamePropertyListManager::CGamePropertyItem *,NGamePropertyListManager::CGamePropertyItem * &>::CAssoc::CAssoc, COMDAT
; _this$ = ecx

; 1267 : 		CAssoc( ARG_KEY key ) : CPair( key ) {}

  00000	55		 push	 ebp
  00001	8b ec		 mov	 ebp, esp
  00003	83 ec 44	 sub	 esp, 68			; 00000044H
  00006	53		 push	 ebx
  00007	56		 push	 esi
  00008	57		 push	 edi
  00009	89 4d fc	 mov	 DWORD PTR _this$[ebp], ecx
  0000c	8b 45 08	 mov	 eax, DWORD PTR _key$[ebp]
  0000f	50		 push	 eax
  00010	8b 4d fc	 mov	 ecx, DWORD PTR _this$[ebp]
  00013	e8 00 00 00 00	 call	 ??0CPair@?$CMap@KKPAVCGamePropertyItem@NGamePropertyListManager@@AAPAV12@@@IAE@K@Z ; CMap<unsigned long,unsigned long,NGamePropertyListManager::CGamePropertyItem *,NGamePropertyListManager::CGamePropertyItem * &>::CPair::CPair
  00018	8b 45 fc	 mov	 eax, DWORD PTR _this$[ebp]
  0001b	5f		 pop	 edi
  0001c	5e		 pop	 esi
  0001d	5b		 pop	 ebx
  0001e	8b e5		 mov	 esp, ebp
  00020	5d		 pop	 ebp
  00021	c2 04 00	 ret	 4
??0CAssoc@?$CMap@KKPAVCGamePropertyItem@NGamePropertyListManager@@AAPAV12@@@QAE@K@Z ENDP ; CMap<unsigned long,unsigned long,NGamePropertyListManager::CGamePropertyItem *,NGamePropertyListManager::CGamePropertyItem * &>::CAssoc::CAssoc
_TEXT	ENDS
; Function compile flags: /Odtp /ZI
; File c:\program files (x86)\microsoft visual studio\2017\community\vc\tools\msvc\14.16.27023\atlmfc\include\afxtempl.h
;	COMDAT ??0CPair@?$CMap@KKPAVCGamePropertyItem@NGamePropertyListManager@@AAPAV12@@@IAE@K@Z
_TEXT	SEGMENT
_this$ = -4						; size = 4
_keyval$ = 8						; size = 4
??0CPair@?$CMap@KKPAVCGamePropertyItem@NGamePropertyListManager@@AAPAV12@@@IAE@K@Z PROC ; CMap<unsigned long,unsigned long,NGamePropertyListManager::CGamePropertyItem *,NGamePropertyListManager::CGamePropertyItem * &>::CPair::CPair, COMDAT
; _this$ = ecx

; 1256 : 		CPair( ARG_KEY keyval ) : key( keyval )	{}

  00000	55		 push	 ebp
  00001	8b ec		 mov	 ebp, esp
  00003	83 ec 44	 sub	 esp, 68			; 00000044H
  00006	53		 push	 ebx
  00007	56		 push	 esi
  00008	57		 push	 edi
  00009	89 4d fc	 mov	 DWORD PTR _this$[ebp], ecx
  0000c	8b 45 fc	 mov	 eax, DWORD PTR _this$[ebp]
  0000f	8b 4d 08	 mov	 ecx, DWORD PTR _keyval$[ebp]
  00012	89 08		 mov	 DWORD PTR [eax], ecx
  00014	8b 45 fc	 mov	 eax, DWORD PTR _this$[ebp]
  00017	5f		 pop	 edi
  00018	5e		 pop	 esi
  00019	5b		 pop	 ebx
  0001a	8b e5		 mov	 esp, ebp
  0001c	5d		 pop	 ebp
  0001d	c2 04 00	 ret	 4
??0CPair@?$CMap@KKPAVCGamePropertyItem@NGamePropertyListManager@@AAPAV12@@@IAE@K@Z ENDP ; CMap<unsigned long,unsigned long,NGamePropertyListManager::CGamePropertyItem *,NGamePropertyListManager::CGamePropertyItem * &>::CPair::CPair
_TEXT	ENDS
; Function compile flags: /Odtp /ZI
; File c:\program files (x86)\microsoft visual studio\2017\community\vc\tools\msvc\14.16.27023\atlmfc\include\afxtempl.h
;	COMDAT ??$DumpElements@PAVCGamePropertyRelatItem@NGamePropertyListManager@@@@YGXAAVCDumpContext@@PBQAVCGamePropertyRelatItem@NGamePropertyListManager@@H@Z
_TEXT	SEGMENT
tv66 = -72						; size = 4
___afx_condVal$1 = -4					; size = 4
_dc$ = 8						; size = 4
_pElements$ = 12					; size = 4
_nCount$ = 16						; size = 4
??$DumpElements@PAVCGamePropertyRelatItem@NGamePropertyListManager@@@@YGXAAVCDumpContext@@PBQAVCGamePropertyRelatItem@NGamePropertyListManager@@H@Z PROC ; DumpElements<NGamePropertyListManager::CGamePropertyRelatItem *>, COMDAT

; 137  : {

  00000	55		 push	 ebp
  00001	8b ec		 mov	 ebp, esp
  00003	83 ec 48	 sub	 esp, 72			; 00000048H
  00006	53		 push	 ebx
  00007	56		 push	 esi
  00008	57		 push	 edi
$LN4@DumpElemen:

; 138  : 	ENSURE(nCount == 0 || pElements != NULL);

  00009	83 7d 10 00	 cmp	 DWORD PTR _nCount$[ebp], 0
  0000d	74 0f		 je	 SHORT $LN7@DumpElemen
  0000f	83 7d 0c 00	 cmp	 DWORD PTR _pElements$[ebp], 0
  00013	75 09		 jne	 SHORT $LN7@DumpElemen
  00015	c7 45 b8 00 00
	00 00		 mov	 DWORD PTR tv66[ebp], 0
  0001c	eb 07		 jmp	 SHORT $LN8@DumpElemen
$LN7@DumpElemen:
  0001e	c7 45 b8 01 00
	00 00		 mov	 DWORD PTR tv66[ebp], 1
$LN8@DumpElemen:
  00025	8b 45 b8	 mov	 eax, DWORD PTR tv66[ebp]
  00028	89 45 fc	 mov	 DWORD PTR ___afx_condVal$1[ebp], eax
  0002b	83 7d fc 00	 cmp	 DWORD PTR ___afx_condVal$1[ebp], 0
  0002f	75 14		 jne	 SHORT $LN9@DumpElemen
  00031	68 8a 00 00 00	 push	 138			; 0000008aH
  00036	68 00 00 00 00	 push	 OFFSET ??_C@_0HC@HBCNBCLF@c?3?2program?5files?5?$CIx86?$CJ?2microsof@
  0003b	e8 00 00 00 00	 call	 ?AfxAssertFailedLine@@YGHPBDH@Z ; AfxAssertFailedLine
  00040	85 c0		 test	 eax, eax
  00042	74 01		 je	 SHORT $LN9@DumpElemen
  00044	cc		 int	 3
$LN9@DumpElemen:
  00045	83 7d fc 00	 cmp	 DWORD PTR ___afx_condVal$1[ebp], 0
  00049	75 05		 jne	 SHORT $LN2@DumpElemen
  0004b	e8 00 00 00 00	 call	 ?AfxThrowInvalidArgException@@YGXXZ ; AfxThrowInvalidArgException
$LN2@DumpElemen:
  00050	33 c0		 xor	 eax, eax
  00052	75 b5		 jne	 SHORT $LN4@DumpElemen

; 139  : 	ASSERT(nCount == 0 ||

  00054	83 7d 10 00	 cmp	 DWORD PTR _nCount$[ebp], 0
  00058	74 2a		 je	 SHORT $LN6@DumpElemen
  0005a	6a 00		 push	 0
  0005c	8b 45 10	 mov	 eax, DWORD PTR _nCount$[ebp]
  0005f	c1 e0 02	 shl	 eax, 2
  00062	50		 push	 eax
  00063	8b 4d 0c	 mov	 ecx, DWORD PTR _pElements$[ebp]
  00066	51		 push	 ecx
  00067	e8 00 00 00 00	 call	 ?AfxIsValidAddress@@YGHPBXIH@Z ; AfxIsValidAddress
  0006c	85 c0		 test	 eax, eax
  0006e	75 14		 jne	 SHORT $LN6@DumpElemen
  00070	68 8c 00 00 00	 push	 140			; 0000008cH
  00075	68 00 00 00 00	 push	 OFFSET ??_C@_0HC@HBCNBCLF@c?3?2program?5files?5?$CIx86?$CJ?2microsof@
  0007a	e8 00 00 00 00	 call	 ?AfxAssertFailedLine@@YGHPBDH@Z ; AfxAssertFailedLine
  0007f	85 c0		 test	 eax, eax
  00081	74 01		 je	 SHORT $LN6@DumpElemen
  00083	cc		 int	 3
$LN6@DumpElemen:

; 140  : 		AfxIsValidAddress(pElements, (size_t)nCount * sizeof(TYPE), FALSE));
; 141  : 	(dc); // not used
; 142  : 	(pElements);  // not used
; 143  : 	(nCount); // not used
; 144  : 
; 145  : 	// default does nothing
; 146  : }

  00084	5f		 pop	 edi
  00085	5e		 pop	 esi
  00086	5b		 pop	 ebx
  00087	8b e5		 mov	 esp, ebp
  00089	5d		 pop	 ebp
  0008a	c2 0c 00	 ret	 12			; 0000000cH
??$DumpElements@PAVCGamePropertyRelatItem@NGamePropertyListManager@@@@YGXAAVCDumpContext@@PBQAVCGamePropertyRelatItem@NGamePropertyListManager@@H@Z ENDP ; DumpElements<NGamePropertyListManager::CGamePropertyRelatItem *>
_TEXT	ENDS
; Function compile flags: /Odtp /ZI
; File c:\program files (x86)\microsoft visual studio\2017\community\vc\tools\msvc\14.16.27023\atlmfc\include\afxtempl.h
;	COMDAT ??$SerializeElements@PAVCGamePropertyRelatItem@NGamePropertyListManager@@@@YGXAAVCArchive@@PAPAVCGamePropertyRelatItem@NGamePropertyListManager@@H@Z
_TEXT	SEGMENT
tv134 = -96						; size = 4
tv92 = -96						; size = 4
tv66 = -96						; size = 4
_nElementsToRead$1 = -28				; size = 4
_nElementsLeft$2 = -24					; size = 4
_pData$3 = -20						; size = 4
_nElementsToWrite$4 = -16				; size = 4
_nElementsLeft$5 = -12					; size = 4
_pData$6 = -8						; size = 4
___afx_condVal$7 = -4					; size = 4
_ar$ = 8						; size = 4
_pElements$ = 12					; size = 4
_nCount$ = 16						; size = 4
??$SerializeElements@PAVCGamePropertyRelatItem@NGamePropertyListManager@@@@YGXAAVCArchive@@PAPAVCGamePropertyRelatItem@NGamePropertyListManager@@H@Z PROC ; SerializeElements<NGamePropertyListManager::CGamePropertyRelatItem *>, COMDAT

; 67   : {

  00000	55		 push	 ebp
  00001	8b ec		 mov	 ebp, esp
  00003	83 ec 60	 sub	 esp, 96			; 00000060H
  00006	53		 push	 ebx
  00007	56		 push	 esi
  00008	57		 push	 edi
$LN4@SerializeE:

; 68   : 	ENSURE(nCount == 0 || pElements != NULL);

  00009	83 7d 10 00	 cmp	 DWORD PTR _nCount$[ebp], 0
  0000d	74 0f		 je	 SHORT $LN13@SerializeE
  0000f	83 7d 0c 00	 cmp	 DWORD PTR _pElements$[ebp], 0
  00013	75 09		 jne	 SHORT $LN13@SerializeE
  00015	c7 45 a0 00 00
	00 00		 mov	 DWORD PTR tv66[ebp], 0
  0001c	eb 07		 jmp	 SHORT $LN14@SerializeE
$LN13@SerializeE:
  0001e	c7 45 a0 01 00
	00 00		 mov	 DWORD PTR tv66[ebp], 1
$LN14@SerializeE:
  00025	8b 45 a0	 mov	 eax, DWORD PTR tv66[ebp]
  00028	89 45 fc	 mov	 DWORD PTR ___afx_condVal$7[ebp], eax
  0002b	83 7d fc 00	 cmp	 DWORD PTR ___afx_condVal$7[ebp], 0
  0002f	75 11		 jne	 SHORT $LN15@SerializeE
  00031	6a 44		 push	 68			; 00000044H
  00033	68 00 00 00 00	 push	 OFFSET ??_C@_0HC@HBCNBCLF@c?3?2program?5files?5?$CIx86?$CJ?2microsof@
  00038	e8 00 00 00 00	 call	 ?AfxAssertFailedLine@@YGHPBDH@Z ; AfxAssertFailedLine
  0003d	85 c0		 test	 eax, eax
  0003f	74 01		 je	 SHORT $LN15@SerializeE
  00041	cc		 int	 3
$LN15@SerializeE:
  00042	83 7d fc 00	 cmp	 DWORD PTR ___afx_condVal$7[ebp], 0
  00046	75 05		 jne	 SHORT $LN2@SerializeE
  00048	e8 00 00 00 00	 call	 ?AfxThrowInvalidArgException@@YGXXZ ; AfxThrowInvalidArgException
$LN2@SerializeE:
  0004d	33 c0		 xor	 eax, eax
  0004f	75 b8		 jne	 SHORT $LN4@SerializeE

; 69   : 	ASSERT(nCount == 0 ||

  00051	83 7d 10 00	 cmp	 DWORD PTR _nCount$[ebp], 0
  00055	74 27		 je	 SHORT $LN16@SerializeE
  00057	6a 01		 push	 1
  00059	8b 45 10	 mov	 eax, DWORD PTR _nCount$[ebp]
  0005c	c1 e0 02	 shl	 eax, 2
  0005f	50		 push	 eax
  00060	8b 4d 0c	 mov	 ecx, DWORD PTR _pElements$[ebp]
  00063	51		 push	 ecx
  00064	e8 00 00 00 00	 call	 ?AfxIsValidAddress@@YGHPBXIH@Z ; AfxIsValidAddress
  00069	85 c0		 test	 eax, eax
  0006b	75 11		 jne	 SHORT $LN16@SerializeE
  0006d	6a 46		 push	 70			; 00000046H
  0006f	68 00 00 00 00	 push	 OFFSET ??_C@_0HC@HBCNBCLF@c?3?2program?5files?5?$CIx86?$CJ?2microsof@
  00074	e8 00 00 00 00	 call	 ?AfxAssertFailedLine@@YGHPBDH@Z ; AfxAssertFailedLine
  00079	85 c0		 test	 eax, eax
  0007b	74 01		 je	 SHORT $LN16@SerializeE
  0007d	cc		 int	 3
$LN16@SerializeE:

; 70   : 		AfxIsValidAddress(pElements, (size_t)nCount * sizeof(TYPE)));
; 71   : 
; 72   : 	// default is bit-wise read/write
; 73   : 	if (ar.IsStoring())

  0007e	8b 4d 08	 mov	 ecx, DWORD PTR _ar$[ebp]
  00081	e8 00 00 00 00	 call	 ?IsStoring@CArchive@@QBEHXZ ; CArchive::IsStoring
  00086	85 c0		 test	 eax, eax
  00088	74 5c		 je	 SHORT $LN10@SerializeE

; 74   : 	{
; 75   : 		TYPE* pData;
; 76   : 		UINT_PTR nElementsLeft;
; 77   : 
; 78   : 		nElementsLeft = nCount;

  0008a	8b 45 10	 mov	 eax, DWORD PTR _nCount$[ebp]
  0008d	89 45 f4	 mov	 DWORD PTR _nElementsLeft$5[ebp], eax

; 79   : 		pData = pElements;

  00090	8b 45 0c	 mov	 eax, DWORD PTR _pElements$[ebp]
  00093	89 45 f8	 mov	 DWORD PTR _pData$6[ebp], eax
$LN5@SerializeE:

; 80   : 		while( nElementsLeft > 0 )

  00096	83 7d f4 00	 cmp	 DWORD PTR _nElementsLeft$5[ebp], 0
  0009a	76 48		 jbe	 SHORT $LN6@SerializeE

; 81   : 		{
; 82   : 			UINT nElementsToWrite;
; 83   : 
; 84   : 			nElementsToWrite = UINT(__min(nElementsLeft, INT_MAX/sizeof(TYPE)));

  0009c	81 7d f4 ff ff
	ff 1f		 cmp	 DWORD PTR _nElementsLeft$5[ebp], 536870911 ; 1fffffffH
  000a3	73 08		 jae	 SHORT $LN17@SerializeE
  000a5	8b 45 f4	 mov	 eax, DWORD PTR _nElementsLeft$5[ebp]
  000a8	89 45 a0	 mov	 DWORD PTR tv92[ebp], eax
  000ab	eb 07		 jmp	 SHORT $LN18@SerializeE
$LN17@SerializeE:
  000ad	c7 45 a0 ff ff
	ff 1f		 mov	 DWORD PTR tv92[ebp], 536870911 ; 1fffffffH
$LN18@SerializeE:
  000b4	8b 4d a0	 mov	 ecx, DWORD PTR tv92[ebp]
  000b7	89 4d f0	 mov	 DWORD PTR _nElementsToWrite$4[ebp], ecx

; 85   : 			ar.Write(pData, nElementsToWrite*sizeof(TYPE));

  000ba	8b 45 f0	 mov	 eax, DWORD PTR _nElementsToWrite$4[ebp]
  000bd	c1 e0 02	 shl	 eax, 2
  000c0	50		 push	 eax
  000c1	8b 4d f8	 mov	 ecx, DWORD PTR _pData$6[ebp]
  000c4	51		 push	 ecx
  000c5	8b 4d 08	 mov	 ecx, DWORD PTR _ar$[ebp]
  000c8	e8 00 00 00 00	 call	 ?Write@CArchive@@QAEXPBXI@Z ; CArchive::Write

; 86   : 			nElementsLeft -= nElementsToWrite;

  000cd	8b 45 f4	 mov	 eax, DWORD PTR _nElementsLeft$5[ebp]
  000d0	2b 45 f0	 sub	 eax, DWORD PTR _nElementsToWrite$4[ebp]
  000d3	89 45 f4	 mov	 DWORD PTR _nElementsLeft$5[ebp], eax

; 87   : 			pData += nElementsToWrite;

  000d6	8b 45 f0	 mov	 eax, DWORD PTR _nElementsToWrite$4[ebp]
  000d9	8b 4d f8	 mov	 ecx, DWORD PTR _pData$6[ebp]
  000dc	8d 14 81	 lea	 edx, DWORD PTR [ecx+eax*4]
  000df	89 55 f8	 mov	 DWORD PTR _pData$6[ebp], edx

; 88   : 		}

  000e2	eb b2		 jmp	 SHORT $LN5@SerializeE
$LN6@SerializeE:

; 89   : 	}
; 90   : 	else

  000e4	eb 5a		 jmp	 SHORT $LN12@SerializeE
$LN10@SerializeE:

; 91   : 	{
; 92   : 		TYPE* pData;
; 93   : 		UINT_PTR nElementsLeft;
; 94   : 
; 95   : 		nElementsLeft = nCount;

  000e6	8b 45 10	 mov	 eax, DWORD PTR _nCount$[ebp]
  000e9	89 45 e8	 mov	 DWORD PTR _nElementsLeft$2[ebp], eax

; 96   : 		pData = pElements;

  000ec	8b 45 0c	 mov	 eax, DWORD PTR _pElements$[ebp]
  000ef	89 45 ec	 mov	 DWORD PTR _pData$3[ebp], eax
$LN7@SerializeE:

; 97   : 		while( nElementsLeft > 0 )

  000f2	83 7d e8 00	 cmp	 DWORD PTR _nElementsLeft$2[ebp], 0
  000f6	76 48		 jbe	 SHORT $LN12@SerializeE

; 98   : 		{
; 99   : 			UINT nElementsToRead;
; 100  : 
; 101  : 			nElementsToRead = UINT(__min(nElementsLeft, INT_MAX/sizeof(TYPE)));

  000f8	81 7d e8 ff ff
	ff 1f		 cmp	 DWORD PTR _nElementsLeft$2[ebp], 536870911 ; 1fffffffH
  000ff	73 08		 jae	 SHORT $LN19@SerializeE
  00101	8b 45 e8	 mov	 eax, DWORD PTR _nElementsLeft$2[ebp]
  00104	89 45 a0	 mov	 DWORD PTR tv134[ebp], eax
  00107	eb 07		 jmp	 SHORT $LN20@SerializeE
$LN19@SerializeE:
  00109	c7 45 a0 ff ff
	ff 1f		 mov	 DWORD PTR tv134[ebp], 536870911 ; 1fffffffH
$LN20@SerializeE:
  00110	8b 4d a0	 mov	 ecx, DWORD PTR tv134[ebp]
  00113	89 4d e4	 mov	 DWORD PTR _nElementsToRead$1[ebp], ecx

; 102  : 			ar.EnsureRead(pData, nElementsToRead*sizeof(TYPE));

  00116	8b 45 e4	 mov	 eax, DWORD PTR _nElementsToRead$1[ebp]
  00119	c1 e0 02	 shl	 eax, 2
  0011c	50		 push	 eax
  0011d	8b 4d ec	 mov	 ecx, DWORD PTR _pData$3[ebp]
  00120	51		 push	 ecx
  00121	8b 4d 08	 mov	 ecx, DWORD PTR _ar$[ebp]
  00124	e8 00 00 00 00	 call	 ?EnsureRead@CArchive@@QAEXPAXI@Z ; CArchive::EnsureRead

; 103  : 			nElementsLeft -= nElementsToRead;

  00129	8b 45 e8	 mov	 eax, DWORD PTR _nElementsLeft$2[ebp]
  0012c	2b 45 e4	 sub	 eax, DWORD PTR _nElementsToRead$1[ebp]
  0012f	89 45 e8	 mov	 DWORD PTR _nElementsLeft$2[ebp], eax

; 104  : 			pData += nElementsToRead;

  00132	8b 45 e4	 mov	 eax, DWORD PTR _nElementsToRead$1[ebp]
  00135	8b 4d ec	 mov	 ecx, DWORD PTR _pData$3[ebp]
  00138	8d 14 81	 lea	 edx, DWORD PTR [ecx+eax*4]
  0013b	89 55 ec	 mov	 DWORD PTR _pData$3[ebp], edx

; 105  : 		}

  0013e	eb b2		 jmp	 SHORT $LN7@SerializeE
$LN12@SerializeE:

; 106  : 	}
; 107  : }

  00140	5f		 pop	 edi
  00141	5e		 pop	 esi
  00142	5b		 pop	 ebx
  00143	8b e5		 mov	 esp, ebp
  00145	5d		 pop	 ebp
  00146	c2 0c 00	 ret	 12			; 0000000cH
??$SerializeElements@PAVCGamePropertyRelatItem@NGamePropertyListManager@@@@YGXAAVCArchive@@PAPAVCGamePropertyRelatItem@NGamePropertyListManager@@H@Z ENDP ; SerializeElements<NGamePropertyListManager::CGamePropertyRelatItem *>
_TEXT	ENDS
; Function compile flags: /Odtp /ZI
; File c:\program files (x86)\microsoft visual studio\2017\community\vc\tools\msvc\14.16.27023\atlmfc\include\afxtempl.h
;	COMDAT ??0CAssoc@?$CMap@KKPAVCGamePropertyRelatItem@NGamePropertyListManager@@AAPAV12@@@QAE@K@Z
_TEXT	SEGMENT
_this$ = -4						; size = 4
_key$ = 8						; size = 4
??0CAssoc@?$CMap@KKPAVCGamePropertyRelatItem@NGamePropertyListManager@@AAPAV12@@@QAE@K@Z PROC ; CMap<unsigned long,unsigned long,NGamePropertyListManager::CGamePropertyRelatItem *,NGamePropertyListManager::CGamePropertyRelatItem * &>::CAssoc::CAssoc, COMDAT
; _this$ = ecx

; 1267 : 		CAssoc( ARG_KEY key ) : CPair( key ) {}

  00000	55		 push	 ebp
  00001	8b ec		 mov	 ebp, esp
  00003	83 ec 44	 sub	 esp, 68			; 00000044H
  00006	53		 push	 ebx
  00007	56		 push	 esi
  00008	57		 push	 edi
  00009	89 4d fc	 mov	 DWORD PTR _this$[ebp], ecx
  0000c	8b 45 08	 mov	 eax, DWORD PTR _key$[ebp]
  0000f	50		 push	 eax
  00010	8b 4d fc	 mov	 ecx, DWORD PTR _this$[ebp]
  00013	e8 00 00 00 00	 call	 ??0CPair@?$CMap@KKPAVCGamePropertyRelatItem@NGamePropertyListManager@@AAPAV12@@@IAE@K@Z ; CMap<unsigned long,unsigned long,NGamePropertyListManager::CGamePropertyRelatItem *,NGamePropertyListManager::CGamePropertyRelatItem * &>::CPair::CPair
  00018	8b 45 fc	 mov	 eax, DWORD PTR _this$[ebp]
  0001b	5f		 pop	 edi
  0001c	5e		 pop	 esi
  0001d	5b		 pop	 ebx
  0001e	8b e5		 mov	 esp, ebp
  00020	5d		 pop	 ebp
  00021	c2 04 00	 ret	 4
??0CAssoc@?$CMap@KKPAVCGamePropertyRelatItem@NGamePropertyListManager@@AAPAV12@@@QAE@K@Z ENDP ; CMap<unsigned long,unsigned long,NGamePropertyListManager::CGamePropertyRelatItem *,NGamePropertyListManager::CGamePropertyRelatItem * &>::CAssoc::CAssoc
_TEXT	ENDS
; Function compile flags: /Odtp /ZI
; File c:\program files (x86)\microsoft visual studio\2017\community\vc\tools\msvc\14.16.27023\atlmfc\include\afxtempl.h
;	COMDAT ??0CPair@?$CMap@KKPAVCGamePropertyRelatItem@NGamePropertyListManager@@AAPAV12@@@IAE@K@Z
_TEXT	SEGMENT
_this$ = -4						; size = 4
_keyval$ = 8						; size = 4
??0CPair@?$CMap@KKPAVCGamePropertyRelatItem@NGamePropertyListManager@@AAPAV12@@@IAE@K@Z PROC ; CMap<unsigned long,unsigned long,NGamePropertyListManager::CGamePropertyRelatItem *,NGamePropertyListManager::CGamePropertyRelatItem * &>::CPair::CPair, COMDAT
; _this$ = ecx

; 1256 : 		CPair( ARG_KEY keyval ) : key( keyval )	{}

  00000	55		 push	 ebp
  00001	8b ec		 mov	 ebp, esp
  00003	83 ec 44	 sub	 esp, 68			; 00000044H
  00006	53		 push	 ebx
  00007	56		 push	 esi
  00008	57		 push	 edi
  00009	89 4d fc	 mov	 DWORD PTR _this$[ebp], ecx
  0000c	8b 45 fc	 mov	 eax, DWORD PTR _this$[ebp]
  0000f	8b 4d 08	 mov	 ecx, DWORD PTR _keyval$[ebp]
  00012	89 08		 mov	 DWORD PTR [eax], ecx
  00014	8b 45 fc	 mov	 eax, DWORD PTR _this$[ebp]
  00017	5f		 pop	 edi
  00018	5e		 pop	 esi
  00019	5b		 pop	 ebx
  0001a	8b e5		 mov	 esp, ebp
  0001c	5d		 pop	 ebp
  0001d	c2 04 00	 ret	 4
??0CPair@?$CMap@KKPAVCGamePropertyRelatItem@NGamePropertyListManager@@AAPAV12@@@IAE@K@Z ENDP ; CMap<unsigned long,unsigned long,NGamePropertyListManager::CGamePropertyRelatItem *,NGamePropertyListManager::CGamePropertyRelatItem * &>::CPair::CPair
_TEXT	ENDS
; Function compile flags: /Odtp /ZI
; File c:\program files (x86)\microsoft visual studio\2017\community\vc\tools\msvc\14.16.27023\atlmfc\include\afxtempl.h
;	COMDAT ??$DumpElements@PAVCGamePropertyTypeItem@NGamePropertyListManager@@@@YGXAAVCDumpContext@@PBQAVCGamePropertyTypeItem@NGamePropertyListManager@@H@Z
_TEXT	SEGMENT
tv66 = -72						; size = 4
___afx_condVal$1 = -4					; size = 4
_dc$ = 8						; size = 4
_pElements$ = 12					; size = 4
_nCount$ = 16						; size = 4
??$DumpElements@PAVCGamePropertyTypeItem@NGamePropertyListManager@@@@YGXAAVCDumpContext@@PBQAVCGamePropertyTypeItem@NGamePropertyListManager@@H@Z PROC ; DumpElements<NGamePropertyListManager::CGamePropertyTypeItem *>, COMDAT

; 137  : {

  00000	55		 push	 ebp
  00001	8b ec		 mov	 ebp, esp
  00003	83 ec 48	 sub	 esp, 72			; 00000048H
  00006	53		 push	 ebx
  00007	56		 push	 esi
  00008	57		 push	 edi
$LN4@DumpElemen:

; 138  : 	ENSURE(nCount == 0 || pElements != NULL);

  00009	83 7d 10 00	 cmp	 DWORD PTR _nCount$[ebp], 0
  0000d	74 0f		 je	 SHORT $LN7@DumpElemen
  0000f	83 7d 0c 00	 cmp	 DWORD PTR _pElements$[ebp], 0
  00013	75 09		 jne	 SHORT $LN7@DumpElemen
  00015	c7 45 b8 00 00
	00 00		 mov	 DWORD PTR tv66[ebp], 0
  0001c	eb 07		 jmp	 SHORT $LN8@DumpElemen
$LN7@DumpElemen:
  0001e	c7 45 b8 01 00
	00 00		 mov	 DWORD PTR tv66[ebp], 1
$LN8@DumpElemen:
  00025	8b 45 b8	 mov	 eax, DWORD PTR tv66[ebp]
  00028	89 45 fc	 mov	 DWORD PTR ___afx_condVal$1[ebp], eax
  0002b	83 7d fc 00	 cmp	 DWORD PTR ___afx_condVal$1[ebp], 0
  0002f	75 14		 jne	 SHORT $LN9@DumpElemen
  00031	68 8a 00 00 00	 push	 138			; 0000008aH
  00036	68 00 00 00 00	 push	 OFFSET ??_C@_0HC@HBCNBCLF@c?3?2program?5files?5?$CIx86?$CJ?2microsof@
  0003b	e8 00 00 00 00	 call	 ?AfxAssertFailedLine@@YGHPBDH@Z ; AfxAssertFailedLine
  00040	85 c0		 test	 eax, eax
  00042	74 01		 je	 SHORT $LN9@DumpElemen
  00044	cc		 int	 3
$LN9@DumpElemen:
  00045	83 7d fc 00	 cmp	 DWORD PTR ___afx_condVal$1[ebp], 0
  00049	75 05		 jne	 SHORT $LN2@DumpElemen
  0004b	e8 00 00 00 00	 call	 ?AfxThrowInvalidArgException@@YGXXZ ; AfxThrowInvalidArgException
$LN2@DumpElemen:
  00050	33 c0		 xor	 eax, eax
  00052	75 b5		 jne	 SHORT $LN4@DumpElemen

; 139  : 	ASSERT(nCount == 0 ||

  00054	83 7d 10 00	 cmp	 DWORD PTR _nCount$[ebp], 0
  00058	74 2a		 je	 SHORT $LN6@DumpElemen
  0005a	6a 00		 push	 0
  0005c	8b 45 10	 mov	 eax, DWORD PTR _nCount$[ebp]
  0005f	c1 e0 02	 shl	 eax, 2
  00062	50		 push	 eax
  00063	8b 4d 0c	 mov	 ecx, DWORD PTR _pElements$[ebp]
  00066	51		 push	 ecx
  00067	e8 00 00 00 00	 call	 ?AfxIsValidAddress@@YGHPBXIH@Z ; AfxIsValidAddress
  0006c	85 c0		 test	 eax, eax
  0006e	75 14		 jne	 SHORT $LN6@DumpElemen
  00070	68 8c 00 00 00	 push	 140			; 0000008cH
  00075	68 00 00 00 00	 push	 OFFSET ??_C@_0HC@HBCNBCLF@c?3?2program?5files?5?$CIx86?$CJ?2microsof@
  0007a	e8 00 00 00 00	 call	 ?AfxAssertFailedLine@@YGHPBDH@Z ; AfxAssertFailedLine
  0007f	85 c0		 test	 eax, eax
  00081	74 01		 je	 SHORT $LN6@DumpElemen
  00083	cc		 int	 3
$LN6@DumpElemen:

; 140  : 		AfxIsValidAddress(pElements, (size_t)nCount * sizeof(TYPE), FALSE));
; 141  : 	(dc); // not used
; 142  : 	(pElements);  // not used
; 143  : 	(nCount); // not used
; 144  : 
; 145  : 	// default does nothing
; 146  : }

  00084	5f		 pop	 edi
  00085	5e		 pop	 esi
  00086	5b		 pop	 ebx
  00087	8b e5		 mov	 esp, ebp
  00089	5d		 pop	 ebp
  0008a	c2 0c 00	 ret	 12			; 0000000cH
??$DumpElements@PAVCGamePropertyTypeItem@NGamePropertyListManager@@@@YGXAAVCDumpContext@@PBQAVCGamePropertyTypeItem@NGamePropertyListManager@@H@Z ENDP ; DumpElements<NGamePropertyListManager::CGamePropertyTypeItem *>
_TEXT	ENDS
; Function compile flags: /Odtp /ZI
; File c:\program files (x86)\microsoft visual studio\2017\community\vc\tools\msvc\14.16.27023\atlmfc\include\afxtempl.h
;	COMDAT ??$DumpElements@K@@YGXAAVCDumpContext@@PBKH@Z
_TEXT	SEGMENT
tv66 = -72						; size = 4
___afx_condVal$1 = -4					; size = 4
_dc$ = 8						; size = 4
_pElements$ = 12					; size = 4
_nCount$ = 16						; size = 4
??$DumpElements@K@@YGXAAVCDumpContext@@PBKH@Z PROC	; DumpElements<unsigned long>, COMDAT

; 137  : {

  00000	55		 push	 ebp
  00001	8b ec		 mov	 ebp, esp
  00003	83 ec 48	 sub	 esp, 72			; 00000048H
  00006	53		 push	 ebx
  00007	56		 push	 esi
  00008	57		 push	 edi
$LN4@DumpElemen:

; 138  : 	ENSURE(nCount == 0 || pElements != NULL);

  00009	83 7d 10 00	 cmp	 DWORD PTR _nCount$[ebp], 0
  0000d	74 0f		 je	 SHORT $LN7@DumpElemen
  0000f	83 7d 0c 00	 cmp	 DWORD PTR _pElements$[ebp], 0
  00013	75 09		 jne	 SHORT $LN7@DumpElemen
  00015	c7 45 b8 00 00
	00 00		 mov	 DWORD PTR tv66[ebp], 0
  0001c	eb 07		 jmp	 SHORT $LN8@DumpElemen
$LN7@DumpElemen:
  0001e	c7 45 b8 01 00
	00 00		 mov	 DWORD PTR tv66[ebp], 1
$LN8@DumpElemen:
  00025	8b 45 b8	 mov	 eax, DWORD PTR tv66[ebp]
  00028	89 45 fc	 mov	 DWORD PTR ___afx_condVal$1[ebp], eax
  0002b	83 7d fc 00	 cmp	 DWORD PTR ___afx_condVal$1[ebp], 0
  0002f	75 14		 jne	 SHORT $LN9@DumpElemen
  00031	68 8a 00 00 00	 push	 138			; 0000008aH
  00036	68 00 00 00 00	 push	 OFFSET ??_C@_0HC@HBCNBCLF@c?3?2program?5files?5?$CIx86?$CJ?2microsof@
  0003b	e8 00 00 00 00	 call	 ?AfxAssertFailedLine@@YGHPBDH@Z ; AfxAssertFailedLine
  00040	85 c0		 test	 eax, eax
  00042	74 01		 je	 SHORT $LN9@DumpElemen
  00044	cc		 int	 3
$LN9@DumpElemen:
  00045	83 7d fc 00	 cmp	 DWORD PTR ___afx_condVal$1[ebp], 0
  00049	75 05		 jne	 SHORT $LN2@DumpElemen
  0004b	e8 00 00 00 00	 call	 ?AfxThrowInvalidArgException@@YGXXZ ; AfxThrowInvalidArgException
$LN2@DumpElemen:
  00050	33 c0		 xor	 eax, eax
  00052	75 b5		 jne	 SHORT $LN4@DumpElemen

; 139  : 	ASSERT(nCount == 0 ||

  00054	83 7d 10 00	 cmp	 DWORD PTR _nCount$[ebp], 0
  00058	74 2a		 je	 SHORT $LN6@DumpElemen
  0005a	6a 00		 push	 0
  0005c	8b 45 10	 mov	 eax, DWORD PTR _nCount$[ebp]
  0005f	c1 e0 02	 shl	 eax, 2
  00062	50		 push	 eax
  00063	8b 4d 0c	 mov	 ecx, DWORD PTR _pElements$[ebp]
  00066	51		 push	 ecx
  00067	e8 00 00 00 00	 call	 ?AfxIsValidAddress@@YGHPBXIH@Z ; AfxIsValidAddress
  0006c	85 c0		 test	 eax, eax
  0006e	75 14		 jne	 SHORT $LN6@DumpElemen
  00070	68 8c 00 00 00	 push	 140			; 0000008cH
  00075	68 00 00 00 00	 push	 OFFSET ??_C@_0HC@HBCNBCLF@c?3?2program?5files?5?$CIx86?$CJ?2microsof@
  0007a	e8 00 00 00 00	 call	 ?AfxAssertFailedLine@@YGHPBDH@Z ; AfxAssertFailedLine
  0007f	85 c0		 test	 eax, eax
  00081	74 01		 je	 SHORT $LN6@DumpElemen
  00083	cc		 int	 3
$LN6@DumpElemen:

; 140  : 		AfxIsValidAddress(pElements, (size_t)nCount * sizeof(TYPE), FALSE));
; 141  : 	(dc); // not used
; 142  : 	(pElements);  // not used
; 143  : 	(nCount); // not used
; 144  : 
; 145  : 	// default does nothing
; 146  : }

  00084	5f		 pop	 edi
  00085	5e		 pop	 esi
  00086	5b		 pop	 ebx
  00087	8b e5		 mov	 esp, ebp
  00089	5d		 pop	 ebp
  0008a	c2 0c 00	 ret	 12			; 0000000cH
??$DumpElements@K@@YGXAAVCDumpContext@@PBKH@Z ENDP	; DumpElements<unsigned long>
_TEXT	ENDS
; Function compile flags: /Odtp /ZI
; File c:\program files (x86)\microsoft visual studio\2017\community\vc\tools\msvc\14.16.27023\atlmfc\include\afxtempl.h
;	COMDAT ??$SerializeElements@PAVCGamePropertyTypeItem@NGamePropertyListManager@@@@YGXAAVCArchive@@PAPAVCGamePropertyTypeItem@NGamePropertyListManager@@H@Z
_TEXT	SEGMENT
tv134 = -96						; size = 4
tv92 = -96						; size = 4
tv66 = -96						; size = 4
_nElementsToRead$1 = -28				; size = 4
_nElementsLeft$2 = -24					; size = 4
_pData$3 = -20						; size = 4
_nElementsToWrite$4 = -16				; size = 4
_nElementsLeft$5 = -12					; size = 4
_pData$6 = -8						; size = 4
___afx_condVal$7 = -4					; size = 4
_ar$ = 8						; size = 4
_pElements$ = 12					; size = 4
_nCount$ = 16						; size = 4
??$SerializeElements@PAVCGamePropertyTypeItem@NGamePropertyListManager@@@@YGXAAVCArchive@@PAPAVCGamePropertyTypeItem@NGamePropertyListManager@@H@Z PROC ; SerializeElements<NGamePropertyListManager::CGamePropertyTypeItem *>, COMDAT

; 67   : {

  00000	55		 push	 ebp
  00001	8b ec		 mov	 ebp, esp
  00003	83 ec 60	 sub	 esp, 96			; 00000060H
  00006	53		 push	 ebx
  00007	56		 push	 esi
  00008	57		 push	 edi
$LN4@SerializeE:

; 68   : 	ENSURE(nCount == 0 || pElements != NULL);

  00009	83 7d 10 00	 cmp	 DWORD PTR _nCount$[ebp], 0
  0000d	74 0f		 je	 SHORT $LN13@SerializeE
  0000f	83 7d 0c 00	 cmp	 DWORD PTR _pElements$[ebp], 0
  00013	75 09		 jne	 SHORT $LN13@SerializeE
  00015	c7 45 a0 00 00
	00 00		 mov	 DWORD PTR tv66[ebp], 0
  0001c	eb 07		 jmp	 SHORT $LN14@SerializeE
$LN13@SerializeE:
  0001e	c7 45 a0 01 00
	00 00		 mov	 DWORD PTR tv66[ebp], 1
$LN14@SerializeE:
  00025	8b 45 a0	 mov	 eax, DWORD PTR tv66[ebp]
  00028	89 45 fc	 mov	 DWORD PTR ___afx_condVal$7[ebp], eax
  0002b	83 7d fc 00	 cmp	 DWORD PTR ___afx_condVal$7[ebp], 0
  0002f	75 11		 jne	 SHORT $LN15@SerializeE
  00031	6a 44		 push	 68			; 00000044H
  00033	68 00 00 00 00	 push	 OFFSET ??_C@_0HC@HBCNBCLF@c?3?2program?5files?5?$CIx86?$CJ?2microsof@
  00038	e8 00 00 00 00	 call	 ?AfxAssertFailedLine@@YGHPBDH@Z ; AfxAssertFailedLine
  0003d	85 c0		 test	 eax, eax
  0003f	74 01		 je	 SHORT $LN15@SerializeE
  00041	cc		 int	 3
$LN15@SerializeE:
  00042	83 7d fc 00	 cmp	 DWORD PTR ___afx_condVal$7[ebp], 0
  00046	75 05		 jne	 SHORT $LN2@SerializeE
  00048	e8 00 00 00 00	 call	 ?AfxThrowInvalidArgException@@YGXXZ ; AfxThrowInvalidArgException
$LN2@SerializeE:
  0004d	33 c0		 xor	 eax, eax
  0004f	75 b8		 jne	 SHORT $LN4@SerializeE

; 69   : 	ASSERT(nCount == 0 ||

  00051	83 7d 10 00	 cmp	 DWORD PTR _nCount$[ebp], 0
  00055	74 27		 je	 SHORT $LN16@SerializeE
  00057	6a 01		 push	 1
  00059	8b 45 10	 mov	 eax, DWORD PTR _nCount$[ebp]
  0005c	c1 e0 02	 shl	 eax, 2
  0005f	50		 push	 eax
  00060	8b 4d 0c	 mov	 ecx, DWORD PTR _pElements$[ebp]
  00063	51		 push	 ecx
  00064	e8 00 00 00 00	 call	 ?AfxIsValidAddress@@YGHPBXIH@Z ; AfxIsValidAddress
  00069	85 c0		 test	 eax, eax
  0006b	75 11		 jne	 SHORT $LN16@SerializeE
  0006d	6a 46		 push	 70			; 00000046H
  0006f	68 00 00 00 00	 push	 OFFSET ??_C@_0HC@HBCNBCLF@c?3?2program?5files?5?$CIx86?$CJ?2microsof@
  00074	e8 00 00 00 00	 call	 ?AfxAssertFailedLine@@YGHPBDH@Z ; AfxAssertFailedLine
  00079	85 c0		 test	 eax, eax
  0007b	74 01		 je	 SHORT $LN16@SerializeE
  0007d	cc		 int	 3
$LN16@SerializeE:

; 70   : 		AfxIsValidAddress(pElements, (size_t)nCount * sizeof(TYPE)));
; 71   : 
; 72   : 	// default is bit-wise read/write
; 73   : 	if (ar.IsStoring())

  0007e	8b 4d 08	 mov	 ecx, DWORD PTR _ar$[ebp]
  00081	e8 00 00 00 00	 call	 ?IsStoring@CArchive@@QBEHXZ ; CArchive::IsStoring
  00086	85 c0		 test	 eax, eax
  00088	74 5c		 je	 SHORT $LN10@SerializeE

; 74   : 	{
; 75   : 		TYPE* pData;
; 76   : 		UINT_PTR nElementsLeft;
; 77   : 
; 78   : 		nElementsLeft = nCount;

  0008a	8b 45 10	 mov	 eax, DWORD PTR _nCount$[ebp]
  0008d	89 45 f4	 mov	 DWORD PTR _nElementsLeft$5[ebp], eax

; 79   : 		pData = pElements;

  00090	8b 45 0c	 mov	 eax, DWORD PTR _pElements$[ebp]
  00093	89 45 f8	 mov	 DWORD PTR _pData$6[ebp], eax
$LN5@SerializeE:

; 80   : 		while( nElementsLeft > 0 )

  00096	83 7d f4 00	 cmp	 DWORD PTR _nElementsLeft$5[ebp], 0
  0009a	76 48		 jbe	 SHORT $LN6@SerializeE

; 81   : 		{
; 82   : 			UINT nElementsToWrite;
; 83   : 
; 84   : 			nElementsToWrite = UINT(__min(nElementsLeft, INT_MAX/sizeof(TYPE)));

  0009c	81 7d f4 ff ff
	ff 1f		 cmp	 DWORD PTR _nElementsLeft$5[ebp], 536870911 ; 1fffffffH
  000a3	73 08		 jae	 SHORT $LN17@SerializeE
  000a5	8b 45 f4	 mov	 eax, DWORD PTR _nElementsLeft$5[ebp]
  000a8	89 45 a0	 mov	 DWORD PTR tv92[ebp], eax
  000ab	eb 07		 jmp	 SHORT $LN18@SerializeE
$LN17@SerializeE:
  000ad	c7 45 a0 ff ff
	ff 1f		 mov	 DWORD PTR tv92[ebp], 536870911 ; 1fffffffH
$LN18@SerializeE:
  000b4	8b 4d a0	 mov	 ecx, DWORD PTR tv92[ebp]
  000b7	89 4d f0	 mov	 DWORD PTR _nElementsToWrite$4[ebp], ecx

; 85   : 			ar.Write(pData, nElementsToWrite*sizeof(TYPE));

  000ba	8b 45 f0	 mov	 eax, DWORD PTR _nElementsToWrite$4[ebp]
  000bd	c1 e0 02	 shl	 eax, 2
  000c0	50		 push	 eax
  000c1	8b 4d f8	 mov	 ecx, DWORD PTR _pData$6[ebp]
  000c4	51		 push	 ecx
  000c5	8b 4d 08	 mov	 ecx, DWORD PTR _ar$[ebp]
  000c8	e8 00 00 00 00	 call	 ?Write@CArchive@@QAEXPBXI@Z ; CArchive::Write

; 86   : 			nElementsLeft -= nElementsToWrite;

  000cd	8b 45 f4	 mov	 eax, DWORD PTR _nElementsLeft$5[ebp]
  000d0	2b 45 f0	 sub	 eax, DWORD PTR _nElementsToWrite$4[ebp]
  000d3	89 45 f4	 mov	 DWORD PTR _nElementsLeft$5[ebp], eax

; 87   : 			pData += nElementsToWrite;

  000d6	8b 45 f0	 mov	 eax, DWORD PTR _nElementsToWrite$4[ebp]
  000d9	8b 4d f8	 mov	 ecx, DWORD PTR _pData$6[ebp]
  000dc	8d 14 81	 lea	 edx, DWORD PTR [ecx+eax*4]
  000df	89 55 f8	 mov	 DWORD PTR _pData$6[ebp], edx

; 88   : 		}

  000e2	eb b2		 jmp	 SHORT $LN5@SerializeE
$LN6@SerializeE:

; 89   : 	}
; 90   : 	else

  000e4	eb 5a		 jmp	 SHORT $LN12@SerializeE
$LN10@SerializeE:

; 91   : 	{
; 92   : 		TYPE* pData;
; 93   : 		UINT_PTR nElementsLeft;
; 94   : 
; 95   : 		nElementsLeft = nCount;

  000e6	8b 45 10	 mov	 eax, DWORD PTR _nCount$[ebp]
  000e9	89 45 e8	 mov	 DWORD PTR _nElementsLeft$2[ebp], eax

; 96   : 		pData = pElements;

  000ec	8b 45 0c	 mov	 eax, DWORD PTR _pElements$[ebp]
  000ef	89 45 ec	 mov	 DWORD PTR _pData$3[ebp], eax
$LN7@SerializeE:

; 97   : 		while( nElementsLeft > 0 )

  000f2	83 7d e8 00	 cmp	 DWORD PTR _nElementsLeft$2[ebp], 0
  000f6	76 48		 jbe	 SHORT $LN12@SerializeE

; 98   : 		{
; 99   : 			UINT nElementsToRead;
; 100  : 
; 101  : 			nElementsToRead = UINT(__min(nElementsLeft, INT_MAX/sizeof(TYPE)));

  000f8	81 7d e8 ff ff
	ff 1f		 cmp	 DWORD PTR _nElementsLeft$2[ebp], 536870911 ; 1fffffffH
  000ff	73 08		 jae	 SHORT $LN19@SerializeE
  00101	8b 45 e8	 mov	 eax, DWORD PTR _nElementsLeft$2[ebp]
  00104	89 45 a0	 mov	 DWORD PTR tv134[ebp], eax
  00107	eb 07		 jmp	 SHORT $LN20@SerializeE
$LN19@SerializeE:
  00109	c7 45 a0 ff ff
	ff 1f		 mov	 DWORD PTR tv134[ebp], 536870911 ; 1fffffffH
$LN20@SerializeE:
  00110	8b 4d a0	 mov	 ecx, DWORD PTR tv134[ebp]
  00113	89 4d e4	 mov	 DWORD PTR _nElementsToRead$1[ebp], ecx

; 102  : 			ar.EnsureRead(pData, nElementsToRead*sizeof(TYPE));

  00116	8b 45 e4	 mov	 eax, DWORD PTR _nElementsToRead$1[ebp]
  00119	c1 e0 02	 shl	 eax, 2
  0011c	50		 push	 eax
  0011d	8b 4d ec	 mov	 ecx, DWORD PTR _pData$3[ebp]
  00120	51		 push	 ecx
  00121	8b 4d 08	 mov	 ecx, DWORD PTR _ar$[ebp]
  00124	e8 00 00 00 00	 call	 ?EnsureRead@CArchive@@QAEXPAXI@Z ; CArchive::EnsureRead

; 103  : 			nElementsLeft -= nElementsToRead;

  00129	8b 45 e8	 mov	 eax, DWORD PTR _nElementsLeft$2[ebp]
  0012c	2b 45 e4	 sub	 eax, DWORD PTR _nElementsToRead$1[ebp]
  0012f	89 45 e8	 mov	 DWORD PTR _nElementsLeft$2[ebp], eax

; 104  : 			pData += nElementsToRead;

  00132	8b 45 e4	 mov	 eax, DWORD PTR _nElementsToRead$1[ebp]
  00135	8b 4d ec	 mov	 ecx, DWORD PTR _pData$3[ebp]
  00138	8d 14 81	 lea	 edx, DWORD PTR [ecx+eax*4]
  0013b	89 55 ec	 mov	 DWORD PTR _pData$3[ebp], edx

; 105  : 		}

  0013e	eb b2		 jmp	 SHORT $LN7@SerializeE
$LN12@SerializeE:

; 106  : 	}
; 107  : }

  00140	5f		 pop	 edi
  00141	5e		 pop	 esi
  00142	5b		 pop	 ebx
  00143	8b e5		 mov	 esp, ebp
  00145	5d		 pop	 ebp
  00146	c2 0c 00	 ret	 12			; 0000000cH
??$SerializeElements@PAVCGamePropertyTypeItem@NGamePropertyListManager@@@@YGXAAVCArchive@@PAPAVCGamePropertyTypeItem@NGamePropertyListManager@@H@Z ENDP ; SerializeElements<NGamePropertyListManager::CGamePropertyTypeItem *>
_TEXT	ENDS
; Function compile flags: /Odtp /ZI
; File c:\program files (x86)\microsoft visual studio\2017\community\vc\tools\msvc\14.16.27023\atlmfc\include\afxtempl.h
;	COMDAT ??$SerializeElements@K@@YGXAAVCArchive@@PAKH@Z
_TEXT	SEGMENT
tv134 = -96						; size = 4
tv92 = -96						; size = 4
tv66 = -96						; size = 4
_nElementsToRead$1 = -28				; size = 4
_nElementsLeft$2 = -24					; size = 4
_pData$3 = -20						; size = 4
_nElementsToWrite$4 = -16				; size = 4
_nElementsLeft$5 = -12					; size = 4
_pData$6 = -8						; size = 4
___afx_condVal$7 = -4					; size = 4
_ar$ = 8						; size = 4
_pElements$ = 12					; size = 4
_nCount$ = 16						; size = 4
??$SerializeElements@K@@YGXAAVCArchive@@PAKH@Z PROC	; SerializeElements<unsigned long>, COMDAT

; 67   : {

  00000	55		 push	 ebp
  00001	8b ec		 mov	 ebp, esp
  00003	83 ec 60	 sub	 esp, 96			; 00000060H
  00006	53		 push	 ebx
  00007	56		 push	 esi
  00008	57		 push	 edi
$LN4@SerializeE:

; 68   : 	ENSURE(nCount == 0 || pElements != NULL);

  00009	83 7d 10 00	 cmp	 DWORD PTR _nCount$[ebp], 0
  0000d	74 0f		 je	 SHORT $LN13@SerializeE
  0000f	83 7d 0c 00	 cmp	 DWORD PTR _pElements$[ebp], 0
  00013	75 09		 jne	 SHORT $LN13@SerializeE
  00015	c7 45 a0 00 00
	00 00		 mov	 DWORD PTR tv66[ebp], 0
  0001c	eb 07		 jmp	 SHORT $LN14@SerializeE
$LN13@SerializeE:
  0001e	c7 45 a0 01 00
	00 00		 mov	 DWORD PTR tv66[ebp], 1
$LN14@SerializeE:
  00025	8b 45 a0	 mov	 eax, DWORD PTR tv66[ebp]
  00028	89 45 fc	 mov	 DWORD PTR ___afx_condVal$7[ebp], eax
  0002b	83 7d fc 00	 cmp	 DWORD PTR ___afx_condVal$7[ebp], 0
  0002f	75 11		 jne	 SHORT $LN15@SerializeE
  00031	6a 44		 push	 68			; 00000044H
  00033	68 00 00 00 00	 push	 OFFSET ??_C@_0HC@HBCNBCLF@c?3?2program?5files?5?$CIx86?$CJ?2microsof@
  00038	e8 00 00 00 00	 call	 ?AfxAssertFailedLine@@YGHPBDH@Z ; AfxAssertFailedLine
  0003d	85 c0		 test	 eax, eax
  0003f	74 01		 je	 SHORT $LN15@SerializeE
  00041	cc		 int	 3
$LN15@SerializeE:
  00042	83 7d fc 00	 cmp	 DWORD PTR ___afx_condVal$7[ebp], 0
  00046	75 05		 jne	 SHORT $LN2@SerializeE
  00048	e8 00 00 00 00	 call	 ?AfxThrowInvalidArgException@@YGXXZ ; AfxThrowInvalidArgException
$LN2@SerializeE:
  0004d	33 c0		 xor	 eax, eax
  0004f	75 b8		 jne	 SHORT $LN4@SerializeE

; 69   : 	ASSERT(nCount == 0 ||

  00051	83 7d 10 00	 cmp	 DWORD PTR _nCount$[ebp], 0
  00055	74 27		 je	 SHORT $LN16@SerializeE
  00057	6a 01		 push	 1
  00059	8b 45 10	 mov	 eax, DWORD PTR _nCount$[ebp]
  0005c	c1 e0 02	 shl	 eax, 2
  0005f	50		 push	 eax
  00060	8b 4d 0c	 mov	 ecx, DWORD PTR _pElements$[ebp]
  00063	51		 push	 ecx
  00064	e8 00 00 00 00	 call	 ?AfxIsValidAddress@@YGHPBXIH@Z ; AfxIsValidAddress
  00069	85 c0		 test	 eax, eax
  0006b	75 11		 jne	 SHORT $LN16@SerializeE
  0006d	6a 46		 push	 70			; 00000046H
  0006f	68 00 00 00 00	 push	 OFFSET ??_C@_0HC@HBCNBCLF@c?3?2program?5files?5?$CIx86?$CJ?2microsof@
  00074	e8 00 00 00 00	 call	 ?AfxAssertFailedLine@@YGHPBDH@Z ; AfxAssertFailedLine
  00079	85 c0		 test	 eax, eax
  0007b	74 01		 je	 SHORT $LN16@SerializeE
  0007d	cc		 int	 3
$LN16@SerializeE:

; 70   : 		AfxIsValidAddress(pElements, (size_t)nCount * sizeof(TYPE)));
; 71   : 
; 72   : 	// default is bit-wise read/write
; 73   : 	if (ar.IsStoring())

  0007e	8b 4d 08	 mov	 ecx, DWORD PTR _ar$[ebp]
  00081	e8 00 00 00 00	 call	 ?IsStoring@CArchive@@QBEHXZ ; CArchive::IsStoring
  00086	85 c0		 test	 eax, eax
  00088	74 5c		 je	 SHORT $LN10@SerializeE

; 74   : 	{
; 75   : 		TYPE* pData;
; 76   : 		UINT_PTR nElementsLeft;
; 77   : 
; 78   : 		nElementsLeft = nCount;

  0008a	8b 45 10	 mov	 eax, DWORD PTR _nCount$[ebp]
  0008d	89 45 f4	 mov	 DWORD PTR _nElementsLeft$5[ebp], eax

; 79   : 		pData = pElements;

  00090	8b 45 0c	 mov	 eax, DWORD PTR _pElements$[ebp]
  00093	89 45 f8	 mov	 DWORD PTR _pData$6[ebp], eax
$LN5@SerializeE:

; 80   : 		while( nElementsLeft > 0 )

  00096	83 7d f4 00	 cmp	 DWORD PTR _nElementsLeft$5[ebp], 0
  0009a	76 48		 jbe	 SHORT $LN6@SerializeE

; 81   : 		{
; 82   : 			UINT nElementsToWrite;
; 83   : 
; 84   : 			nElementsToWrite = UINT(__min(nElementsLeft, INT_MAX/sizeof(TYPE)));

  0009c	81 7d f4 ff ff
	ff 1f		 cmp	 DWORD PTR _nElementsLeft$5[ebp], 536870911 ; 1fffffffH
  000a3	73 08		 jae	 SHORT $LN17@SerializeE
  000a5	8b 45 f4	 mov	 eax, DWORD PTR _nElementsLeft$5[ebp]
  000a8	89 45 a0	 mov	 DWORD PTR tv92[ebp], eax
  000ab	eb 07		 jmp	 SHORT $LN18@SerializeE
$LN17@SerializeE:
  000ad	c7 45 a0 ff ff
	ff 1f		 mov	 DWORD PTR tv92[ebp], 536870911 ; 1fffffffH
$LN18@SerializeE:
  000b4	8b 4d a0	 mov	 ecx, DWORD PTR tv92[ebp]
  000b7	89 4d f0	 mov	 DWORD PTR _nElementsToWrite$4[ebp], ecx

; 85   : 			ar.Write(pData, nElementsToWrite*sizeof(TYPE));

  000ba	8b 45 f0	 mov	 eax, DWORD PTR _nElementsToWrite$4[ebp]
  000bd	c1 e0 02	 shl	 eax, 2
  000c0	50		 push	 eax
  000c1	8b 4d f8	 mov	 ecx, DWORD PTR _pData$6[ebp]
  000c4	51		 push	 ecx
  000c5	8b 4d 08	 mov	 ecx, DWORD PTR _ar$[ebp]
  000c8	e8 00 00 00 00	 call	 ?Write@CArchive@@QAEXPBXI@Z ; CArchive::Write

; 86   : 			nElementsLeft -= nElementsToWrite;

  000cd	8b 45 f4	 mov	 eax, DWORD PTR _nElementsLeft$5[ebp]
  000d0	2b 45 f0	 sub	 eax, DWORD PTR _nElementsToWrite$4[ebp]
  000d3	89 45 f4	 mov	 DWORD PTR _nElementsLeft$5[ebp], eax

; 87   : 			pData += nElementsToWrite;

  000d6	8b 45 f0	 mov	 eax, DWORD PTR _nElementsToWrite$4[ebp]
  000d9	8b 4d f8	 mov	 ecx, DWORD PTR _pData$6[ebp]
  000dc	8d 14 81	 lea	 edx, DWORD PTR [ecx+eax*4]
  000df	89 55 f8	 mov	 DWORD PTR _pData$6[ebp], edx

; 88   : 		}

  000e2	eb b2		 jmp	 SHORT $LN5@SerializeE
$LN6@SerializeE:

; 89   : 	}
; 90   : 	else

  000e4	eb 5a		 jmp	 SHORT $LN12@SerializeE
$LN10@SerializeE:

; 91   : 	{
; 92   : 		TYPE* pData;
; 93   : 		UINT_PTR nElementsLeft;
; 94   : 
; 95   : 		nElementsLeft = nCount;

  000e6	8b 45 10	 mov	 eax, DWORD PTR _nCount$[ebp]
  000e9	89 45 e8	 mov	 DWORD PTR _nElementsLeft$2[ebp], eax

; 96   : 		pData = pElements;

  000ec	8b 45 0c	 mov	 eax, DWORD PTR _pElements$[ebp]
  000ef	89 45 ec	 mov	 DWORD PTR _pData$3[ebp], eax
$LN7@SerializeE:

; 97   : 		while( nElementsLeft > 0 )

  000f2	83 7d e8 00	 cmp	 DWORD PTR _nElementsLeft$2[ebp], 0
  000f6	76 48		 jbe	 SHORT $LN12@SerializeE

; 98   : 		{
; 99   : 			UINT nElementsToRead;
; 100  : 
; 101  : 			nElementsToRead = UINT(__min(nElementsLeft, INT_MAX/sizeof(TYPE)));

  000f8	81 7d e8 ff ff
	ff 1f		 cmp	 DWORD PTR _nElementsLeft$2[ebp], 536870911 ; 1fffffffH
  000ff	73 08		 jae	 SHORT $LN19@SerializeE
  00101	8b 45 e8	 mov	 eax, DWORD PTR _nElementsLeft$2[ebp]
  00104	89 45 a0	 mov	 DWORD PTR tv134[ebp], eax
  00107	eb 07		 jmp	 SHORT $LN20@SerializeE
$LN19@SerializeE:
  00109	c7 45 a0 ff ff
	ff 1f		 mov	 DWORD PTR tv134[ebp], 536870911 ; 1fffffffH
$LN20@SerializeE:
  00110	8b 4d a0	 mov	 ecx, DWORD PTR tv134[ebp]
  00113	89 4d e4	 mov	 DWORD PTR _nElementsToRead$1[ebp], ecx

; 102  : 			ar.EnsureRead(pData, nElementsToRead*sizeof(TYPE));

  00116	8b 45 e4	 mov	 eax, DWORD PTR _nElementsToRead$1[ebp]
  00119	c1 e0 02	 shl	 eax, 2
  0011c	50		 push	 eax
  0011d	8b 4d ec	 mov	 ecx, DWORD PTR _pData$3[ebp]
  00120	51		 push	 ecx
  00121	8b 4d 08	 mov	 ecx, DWORD PTR _ar$[ebp]
  00124	e8 00 00 00 00	 call	 ?EnsureRead@CArchive@@QAEXPAXI@Z ; CArchive::EnsureRead

; 103  : 			nElementsLeft -= nElementsToRead;

  00129	8b 45 e8	 mov	 eax, DWORD PTR _nElementsLeft$2[ebp]
  0012c	2b 45 e4	 sub	 eax, DWORD PTR _nElementsToRead$1[ebp]
  0012f	89 45 e8	 mov	 DWORD PTR _nElementsLeft$2[ebp], eax

; 104  : 			pData += nElementsToRead;

  00132	8b 45 e4	 mov	 eax, DWORD PTR _nElementsToRead$1[ebp]
  00135	8b 4d ec	 mov	 ecx, DWORD PTR _pData$3[ebp]
  00138	8d 14 81	 lea	 edx, DWORD PTR [ecx+eax*4]
  0013b	89 55 ec	 mov	 DWORD PTR _pData$3[ebp], edx

; 105  : 		}

  0013e	eb b2		 jmp	 SHORT $LN7@SerializeE
$LN12@SerializeE:

; 106  : 	}
; 107  : }

  00140	5f		 pop	 edi
  00141	5e		 pop	 esi
  00142	5b		 pop	 ebx
  00143	8b e5		 mov	 esp, ebp
  00145	5d		 pop	 ebp
  00146	c2 0c 00	 ret	 12			; 0000000cH
??$SerializeElements@K@@YGXAAVCArchive@@PAKH@Z ENDP	; SerializeElements<unsigned long>
_TEXT	ENDS
; Function compile flags: /Odtp /ZI
; File c:\program files (x86)\microsoft visual studio\2017\community\vc\tools\msvc\14.16.27023\atlmfc\include\afxtempl.h
;	COMDAT ??$CompareElements@KK@@YGHPBK0@Z
_TEXT	SEGMENT
tv128 = -72						; size = 4
tv66 = -72						; size = 4
___afx_condVal$1 = -4					; size = 4
_pElement1$ = 8						; size = 4
_pElement2$ = 12					; size = 4
??$CompareElements@KK@@YGHPBK0@Z PROC			; CompareElements<unsigned long,unsigned long>, COMDAT

; 151  : {

  00000	55		 push	 ebp
  00001	8b ec		 mov	 ebp, esp
  00003	83 ec 48	 sub	 esp, 72			; 00000048H
  00006	53		 push	 ebx
  00007	56		 push	 esi
  00008	57		 push	 edi
$LN4@CompareEle:

; 152  : 	ENSURE(pElement1 != NULL && pElement2 != NULL);

  00009	83 7d 08 00	 cmp	 DWORD PTR _pElement1$[ebp], 0
  0000d	74 0f		 je	 SHORT $LN7@CompareEle
  0000f	83 7d 0c 00	 cmp	 DWORD PTR _pElement2$[ebp], 0
  00013	74 09		 je	 SHORT $LN7@CompareEle
  00015	c7 45 b8 01 00
	00 00		 mov	 DWORD PTR tv66[ebp], 1
  0001c	eb 07		 jmp	 SHORT $LN8@CompareEle
$LN7@CompareEle:
  0001e	c7 45 b8 00 00
	00 00		 mov	 DWORD PTR tv66[ebp], 0
$LN8@CompareEle:
  00025	8b 45 b8	 mov	 eax, DWORD PTR tv66[ebp]
  00028	89 45 fc	 mov	 DWORD PTR ___afx_condVal$1[ebp], eax
  0002b	83 7d fc 00	 cmp	 DWORD PTR ___afx_condVal$1[ebp], 0
  0002f	75 14		 jne	 SHORT $LN9@CompareEle
  00031	68 98 00 00 00	 push	 152			; 00000098H
  00036	68 00 00 00 00	 push	 OFFSET ??_C@_0HC@HBCNBCLF@c?3?2program?5files?5?$CIx86?$CJ?2microsof@
  0003b	e8 00 00 00 00	 call	 ?AfxAssertFailedLine@@YGHPBDH@Z ; AfxAssertFailedLine
  00040	85 c0		 test	 eax, eax
  00042	74 01		 je	 SHORT $LN9@CompareEle
  00044	cc		 int	 3
$LN9@CompareEle:
  00045	83 7d fc 00	 cmp	 DWORD PTR ___afx_condVal$1[ebp], 0
  00049	75 05		 jne	 SHORT $LN2@CompareEle
  0004b	e8 00 00 00 00	 call	 ?AfxThrowInvalidArgException@@YGXXZ ; AfxThrowInvalidArgException
$LN2@CompareEle:
  00050	33 c0		 xor	 eax, eax
  00052	75 b5		 jne	 SHORT $LN4@CompareEle

; 153  : 	ASSERT(AfxIsValidAddress(pElement1, sizeof(TYPE), FALSE));

  00054	6a 00		 push	 0
  00056	6a 04		 push	 4
  00058	8b 45 08	 mov	 eax, DWORD PTR _pElement1$[ebp]
  0005b	50		 push	 eax
  0005c	e8 00 00 00 00	 call	 ?AfxIsValidAddress@@YGHPBXIH@Z ; AfxIsValidAddress
  00061	85 c0		 test	 eax, eax
  00063	75 14		 jne	 SHORT $LN10@CompareEle
  00065	68 99 00 00 00	 push	 153			; 00000099H
  0006a	68 00 00 00 00	 push	 OFFSET ??_C@_0HC@HBCNBCLF@c?3?2program?5files?5?$CIx86?$CJ?2microsof@
  0006f	e8 00 00 00 00	 call	 ?AfxAssertFailedLine@@YGHPBDH@Z ; AfxAssertFailedLine
  00074	85 c0		 test	 eax, eax
  00076	74 01		 je	 SHORT $LN10@CompareEle
  00078	cc		 int	 3
$LN10@CompareEle:

; 154  : 	ASSERT(AfxIsValidAddress(pElement2, sizeof(ARG_TYPE), FALSE));

  00079	6a 00		 push	 0
  0007b	6a 04		 push	 4
  0007d	8b 45 0c	 mov	 eax, DWORD PTR _pElement2$[ebp]
  00080	50		 push	 eax
  00081	e8 00 00 00 00	 call	 ?AfxIsValidAddress@@YGHPBXIH@Z ; AfxIsValidAddress
  00086	85 c0		 test	 eax, eax
  00088	75 14		 jne	 SHORT $LN11@CompareEle
  0008a	68 9a 00 00 00	 push	 154			; 0000009aH
  0008f	68 00 00 00 00	 push	 OFFSET ??_C@_0HC@HBCNBCLF@c?3?2program?5files?5?$CIx86?$CJ?2microsof@
  00094	e8 00 00 00 00	 call	 ?AfxAssertFailedLine@@YGHPBDH@Z ; AfxAssertFailedLine
  00099	85 c0		 test	 eax, eax
  0009b	74 01		 je	 SHORT $LN11@CompareEle
  0009d	cc		 int	 3
$LN11@CompareEle:

; 155  : 
; 156  : 	return *pElement1 == *pElement2;

  0009e	8b 45 08	 mov	 eax, DWORD PTR _pElement1$[ebp]
  000a1	8b 4d 0c	 mov	 ecx, DWORD PTR _pElement2$[ebp]
  000a4	8b 10		 mov	 edx, DWORD PTR [eax]
  000a6	3b 11		 cmp	 edx, DWORD PTR [ecx]
  000a8	75 09		 jne	 SHORT $LN12@CompareEle
  000aa	c7 45 b8 01 00
	00 00		 mov	 DWORD PTR tv128[ebp], 1
  000b1	eb 07		 jmp	 SHORT $LN13@CompareEle
$LN12@CompareEle:
  000b3	c7 45 b8 00 00
	00 00		 mov	 DWORD PTR tv128[ebp], 0
$LN13@CompareEle:
  000ba	8b 45 b8	 mov	 eax, DWORD PTR tv128[ebp]
$LN6@CompareEle:

; 157  : }

  000bd	5f		 pop	 edi
  000be	5e		 pop	 esi
  000bf	5b		 pop	 ebx
  000c0	8b e5		 mov	 esp, ebp
  000c2	5d		 pop	 ebp
  000c3	c2 08 00	 ret	 8
??$CompareElements@KK@@YGHPBK0@Z ENDP			; CompareElements<unsigned long,unsigned long>
_TEXT	ENDS
; Function compile flags: /Odtp /ZI
; File c:\program files (x86)\microsoft visual studio\2017\community\vc\tools\msvc\14.16.27023\atlmfc\include\afxtempl.h
;	COMDAT ??0CAssoc@?$CMap@KKPAVCGamePropertyTypeItem@NGamePropertyListManager@@AAPAV12@@@QAE@K@Z
_TEXT	SEGMENT
_this$ = -4						; size = 4
_key$ = 8						; size = 4
??0CAssoc@?$CMap@KKPAVCGamePropertyTypeItem@NGamePropertyListManager@@AAPAV12@@@QAE@K@Z PROC ; CMap<unsigned long,unsigned long,NGamePropertyListManager::CGamePropertyTypeItem *,NGamePropertyListManager::CGamePropertyTypeItem * &>::CAssoc::CAssoc, COMDAT
; _this$ = ecx

; 1267 : 		CAssoc( ARG_KEY key ) : CPair( key ) {}

  00000	55		 push	 ebp
  00001	8b ec		 mov	 ebp, esp
  00003	83 ec 44	 sub	 esp, 68			; 00000044H
  00006	53		 push	 ebx
  00007	56		 push	 esi
  00008	57		 push	 edi
  00009	89 4d fc	 mov	 DWORD PTR _this$[ebp], ecx
  0000c	8b 45 08	 mov	 eax, DWORD PTR _key$[ebp]
  0000f	50		 push	 eax
  00010	8b 4d fc	 mov	 ecx, DWORD PTR _this$[ebp]
  00013	e8 00 00 00 00	 call	 ??0CPair@?$CMap@KKPAVCGamePropertyTypeItem@NGamePropertyListManager@@AAPAV12@@@IAE@K@Z ; CMap<unsigned long,unsigned long,NGamePropertyListManager::CGamePropertyTypeItem *,NGamePropertyListManager::CGamePropertyTypeItem * &>::CPair::CPair
  00018	8b 45 fc	 mov	 eax, DWORD PTR _this$[ebp]
  0001b	5f		 pop	 edi
  0001c	5e		 pop	 esi
  0001d	5b		 pop	 ebx
  0001e	8b e5		 mov	 esp, ebp
  00020	5d		 pop	 ebp
  00021	c2 04 00	 ret	 4
??0CAssoc@?$CMap@KKPAVCGamePropertyTypeItem@NGamePropertyListManager@@AAPAV12@@@QAE@K@Z ENDP ; CMap<unsigned long,unsigned long,NGamePropertyListManager::CGamePropertyTypeItem *,NGamePropertyListManager::CGamePropertyTypeItem * &>::CAssoc::CAssoc
_TEXT	ENDS
; Function compile flags: /Odtp /ZI
; File c:\program files (x86)\microsoft visual studio\2017\community\vc\tools\msvc\14.16.27023\atlmfc\include\afxtempl.h
;	COMDAT ??0CPair@?$CMap@KKPAVCGamePropertyTypeItem@NGamePropertyListManager@@AAPAV12@@@IAE@K@Z
_TEXT	SEGMENT
_this$ = -4						; size = 4
_keyval$ = 8						; size = 4
??0CPair@?$CMap@KKPAVCGamePropertyTypeItem@NGamePropertyListManager@@AAPAV12@@@IAE@K@Z PROC ; CMap<unsigned long,unsigned long,NGamePropertyListManager::CGamePropertyTypeItem *,NGamePropertyListManager::CGamePropertyTypeItem * &>::CPair::CPair, COMDAT
; _this$ = ecx

; 1256 : 		CPair( ARG_KEY keyval ) : key( keyval )	{}

  00000	55		 push	 ebp
  00001	8b ec		 mov	 ebp, esp
  00003	83 ec 44	 sub	 esp, 68			; 00000044H
  00006	53		 push	 ebx
  00007	56		 push	 esi
  00008	57		 push	 edi
  00009	89 4d fc	 mov	 DWORD PTR _this$[ebp], ecx
  0000c	8b 45 fc	 mov	 eax, DWORD PTR _this$[ebp]
  0000f	8b 4d 08	 mov	 ecx, DWORD PTR _keyval$[ebp]
  00012	89 08		 mov	 DWORD PTR [eax], ecx
  00014	8b 45 fc	 mov	 eax, DWORD PTR _this$[ebp]
  00017	5f		 pop	 edi
  00018	5e		 pop	 esi
  00019	5b		 pop	 ebx
  0001a	8b e5		 mov	 esp, ebp
  0001c	5d		 pop	 ebp
  0001d	c2 04 00	 ret	 4
??0CPair@?$CMap@KKPAVCGamePropertyTypeItem@NGamePropertyListManager@@AAPAV12@@@IAE@K@Z ENDP ; CMap<unsigned long,unsigned long,NGamePropertyListManager::CGamePropertyTypeItem *,NGamePropertyListManager::CGamePropertyTypeItem * &>::CPair::CPair
_TEXT	ENDS
; Function compile flags: /Odtp /ZI
;	COMDAT ??_GCGamePropertyListManager@NGamePropertyListManager@@UAEPAXI@Z
_TEXT	SEGMENT
_this$ = -4						; size = 4
___flags$ = 8						; size = 4
??_GCGamePropertyListManager@NGamePropertyListManager@@UAEPAXI@Z PROC ; NGamePropertyListManager::CGamePropertyListManager::`scalar deleting destructor', COMDAT
; _this$ = ecx
  00000	55		 push	 ebp
  00001	8b ec		 mov	 ebp, esp
  00003	83 ec 44	 sub	 esp, 68			; 00000044H
  00006	53		 push	 ebx
  00007	56		 push	 esi
  00008	57		 push	 edi
  00009	89 4d fc	 mov	 DWORD PTR _this$[ebp], ecx
  0000c	8b 4d fc	 mov	 ecx, DWORD PTR _this$[ebp]
  0000f	e8 00 00 00 00	 call	 ??1CGamePropertyListManager@NGamePropertyListManager@@UAE@XZ ; NGamePropertyListManager::CGamePropertyListManager::~CGamePropertyListManager
  00014	8b 45 08	 mov	 eax, DWORD PTR ___flags$[ebp]
  00017	83 e0 01	 and	 eax, 1
  0001a	74 11		 je	 SHORT $LN2@scalar
  0001c	68 c4 00 00 00	 push	 196			; 000000c4H
  00021	8b 45 fc	 mov	 eax, DWORD PTR _this$[ebp]
  00024	50		 push	 eax
  00025	e8 00 00 00 00	 call	 ??3@YAXPAXI@Z		; operator delete
  0002a	83 c4 08	 add	 esp, 8
$LN2@scalar:
  0002d	8b 45 fc	 mov	 eax, DWORD PTR _this$[ebp]
  00030	5f		 pop	 edi
  00031	5e		 pop	 esi
  00032	5b		 pop	 ebx
  00033	8b e5		 mov	 esp, ebp
  00035	5d		 pop	 ebp
  00036	c2 04 00	 ret	 4
??_GCGamePropertyListManager@NGamePropertyListManager@@UAEPAXI@Z ENDP ; NGamePropertyListManager::CGamePropertyListManager::`scalar deleting destructor'
_TEXT	ENDS
; Function compile flags: /Odtp /ZI
; File g:\网狐\happygamewh\服务端\系统模块\服务器组件\登录服务器\gamepropertylistmanager.cpp
;	COMDAT ?SearchGamePropertyItem@CGamePropertyListManager@NGamePropertyListManager@@QAEPAVCGamePropertyItem@2@K@Z
_TEXT	SEGMENT
_pGamePropertyItem$ = -8				; size = 4
_this$ = -4						; size = 4
_dwPropertyID$ = 8					; size = 4
?SearchGamePropertyItem@CGamePropertyListManager@NGamePropertyListManager@@QAEPAVCGamePropertyItem@2@K@Z PROC ; NGamePropertyListManager::CGamePropertyListManager::SearchGamePropertyItem, COMDAT
; _this$ = ecx

; 602  : {

  00000	55		 push	 ebp
  00001	8b ec		 mov	 ebp, esp
  00003	83 ec 48	 sub	 esp, 72			; 00000048H
  00006	53		 push	 ebx
  00007	56		 push	 esi
  00008	57		 push	 edi
  00009	89 4d fc	 mov	 DWORD PTR _this$[ebp], ecx

; 603  : 	CGamePropertyItem * pGamePropertyItem=NULL;

  0000c	c7 45 f8 00 00
	00 00		 mov	 DWORD PTR _pGamePropertyItem$[ebp], 0

; 604  : 	m_GamePropertyItemMap.Lookup(dwPropertyID,pGamePropertyItem);

  00013	8d 45 f8	 lea	 eax, DWORD PTR _pGamePropertyItem$[ebp]
  00016	50		 push	 eax
  00017	8b 4d 08	 mov	 ecx, DWORD PTR _dwPropertyID$[ebp]
  0001a	51		 push	 ecx
  0001b	8b 4d fc	 mov	 ecx, DWORD PTR _this$[ebp]
  0001e	83 c1 3c	 add	 ecx, 60			; 0000003cH
  00021	e8 00 00 00 00	 call	 ?Lookup@?$CMap@KKPAVCGamePropertyItem@NGamePropertyListManager@@AAPAV12@@@QBEHKAAPAVCGamePropertyItem@NGamePropertyListManager@@@Z ; CMap<unsigned long,unsigned long,NGamePropertyListManager::CGamePropertyItem *,NGamePropertyListManager::CGamePropertyItem * &>::Lookup

; 605  : 	return pGamePropertyItem;

  00026	8b 45 f8	 mov	 eax, DWORD PTR _pGamePropertyItem$[ebp]

; 606  : }

  00029	5f		 pop	 edi
  0002a	5e		 pop	 esi
  0002b	5b		 pop	 ebx
  0002c	8b e5		 mov	 esp, ebp
  0002e	5d		 pop	 ebp
  0002f	c2 04 00	 ret	 4
?SearchGamePropertyItem@CGamePropertyListManager@NGamePropertyListManager@@QAEPAVCGamePropertyItem@2@K@Z ENDP ; NGamePropertyListManager::CGamePropertyListManager::SearchGamePropertyItem
_TEXT	ENDS
; Function compile flags: /Odtp /ZI
; File g:\网狐\happygamewh\服务端\系统模块\服务器组件\登录服务器\gamepropertylistmanager.cpp
;	COMDAT ?EmunGamePropertySubItem@CGamePropertyListManager@NGamePropertyListManager@@QAEPAVCGamePropertySubItem@2@AAPAU__POSITION@@@Z
_TEXT	SEGMENT
_pGamePropertySubItem$ = -12				; size = 4
_wKey$ = -8						; size = 4
_this$ = -4						; size = 4
_Position$ = 8						; size = 4
?EmunGamePropertySubItem@CGamePropertyListManager@NGamePropertyListManager@@QAEPAVCGamePropertySubItem@2@AAPAU__POSITION@@@Z PROC ; NGamePropertyListManager::CGamePropertyListManager::EmunGamePropertySubItem, COMDAT
; _this$ = ecx

; 588  : {

  00000	55		 push	 ebp
  00001	8b ec		 mov	 ebp, esp
  00003	83 ec 4c	 sub	 esp, 76			; 0000004cH
  00006	53		 push	 ebx
  00007	56		 push	 esi
  00008	57		 push	 edi
  00009	89 4d fc	 mov	 DWORD PTR _this$[ebp], ecx

; 589  : 	//变量定义
; 590  : 	DWORD wKey=0;

  0000c	c7 45 f8 00 00
	00 00		 mov	 DWORD PTR _wKey$[ebp], 0

; 591  : 	CGamePropertySubItem * pGamePropertySubItem=NULL;

  00013	c7 45 f4 00 00
	00 00		 mov	 DWORD PTR _pGamePropertySubItem$[ebp], 0

; 592  : 
; 593  : 	//获取对象
; 594  : 	if (Position==NULL) Position=m_GamePropertySubItemMap.GetStartPosition();

  0001a	8b 45 08	 mov	 eax, DWORD PTR _Position$[ebp]
  0001d	83 38 00	 cmp	 DWORD PTR [eax], 0
  00020	75 10		 jne	 SHORT $LN2@EmunGamePr
  00022	8b 4d fc	 mov	 ecx, DWORD PTR _this$[ebp]
  00025	83 c1 58	 add	 ecx, 88			; 00000058H
  00028	e8 00 00 00 00	 call	 ?GetStartPosition@?$CMap@KKPAVCGamePropertySubItem@NGamePropertyListManager@@AAPAV12@@@QBEPAU__POSITION@@XZ ; CMap<unsigned long,unsigned long,NGamePropertyListManager::CGamePropertySubItem *,NGamePropertyListManager::CGamePropertySubItem * &>::GetStartPosition
  0002d	8b 4d 08	 mov	 ecx, DWORD PTR _Position$[ebp]
  00030	89 01		 mov	 DWORD PTR [ecx], eax
$LN2@EmunGamePr:

; 595  : 	if (Position!=NULL) m_GamePropertySubItemMap.GetNextAssoc(Position,wKey,pGamePropertySubItem);

  00032	8b 45 08	 mov	 eax, DWORD PTR _Position$[ebp]
  00035	83 38 00	 cmp	 DWORD PTR [eax], 0
  00038	74 17		 je	 SHORT $LN3@EmunGamePr
  0003a	8d 45 f4	 lea	 eax, DWORD PTR _pGamePropertySubItem$[ebp]
  0003d	50		 push	 eax
  0003e	8d 4d f8	 lea	 ecx, DWORD PTR _wKey$[ebp]
  00041	51		 push	 ecx
  00042	8b 55 08	 mov	 edx, DWORD PTR _Position$[ebp]
  00045	52		 push	 edx
  00046	8b 4d fc	 mov	 ecx, DWORD PTR _this$[ebp]
  00049	83 c1 58	 add	 ecx, 88			; 00000058H
  0004c	e8 00 00 00 00	 call	 ?GetNextAssoc@?$CMap@KKPAVCGamePropertySubItem@NGamePropertyListManager@@AAPAV12@@@QBEXAAPAU__POSITION@@AAKAAPAVCGamePropertySubItem@NGamePropertyListManager@@@Z ; CMap<unsigned long,unsigned long,NGamePropertyListManager::CGamePropertySubItem *,NGamePropertyListManager::CGamePropertySubItem * &>::GetNextAssoc
$LN3@EmunGamePr:

; 596  : 
; 597  : 	return pGamePropertySubItem;

  00051	8b 45 f4	 mov	 eax, DWORD PTR _pGamePropertySubItem$[ebp]

; 598  : }

  00054	5f		 pop	 edi
  00055	5e		 pop	 esi
  00056	5b		 pop	 ebx
  00057	8b e5		 mov	 esp, ebp
  00059	5d		 pop	 ebp
  0005a	c2 04 00	 ret	 4
?EmunGamePropertySubItem@CGamePropertyListManager@NGamePropertyListManager@@QAEPAVCGamePropertySubItem@2@AAPAU__POSITION@@@Z ENDP ; NGamePropertyListManager::CGamePropertyListManager::EmunGamePropertySubItem
_TEXT	ENDS
; Function compile flags: /Odtp /ZI
; File g:\网狐\happygamewh\服务端\系统模块\服务器组件\登录服务器\gamepropertylistmanager.cpp
;	COMDAT ?EmunGamePropertyItem@CGamePropertyListManager@NGamePropertyListManager@@QAEPAVCGamePropertyItem@2@AAPAU__POSITION@@@Z
_TEXT	SEGMENT
_pGamePropertyItem$ = -12				; size = 4
_wKey$ = -8						; size = 4
_this$ = -4						; size = 4
_Position$ = 8						; size = 4
?EmunGamePropertyItem@CGamePropertyListManager@NGamePropertyListManager@@QAEPAVCGamePropertyItem@2@AAPAU__POSITION@@@Z PROC ; NGamePropertyListManager::CGamePropertyListManager::EmunGamePropertyItem, COMDAT
; _this$ = ecx

; 574  : {

  00000	55		 push	 ebp
  00001	8b ec		 mov	 ebp, esp
  00003	83 ec 4c	 sub	 esp, 76			; 0000004cH
  00006	53		 push	 ebx
  00007	56		 push	 esi
  00008	57		 push	 edi
  00009	89 4d fc	 mov	 DWORD PTR _this$[ebp], ecx

; 575  : 	//变量定义
; 576  : 	DWORD wKey=0;

  0000c	c7 45 f8 00 00
	00 00		 mov	 DWORD PTR _wKey$[ebp], 0

; 577  : 	CGamePropertyItem * pGamePropertyItem=NULL;

  00013	c7 45 f4 00 00
	00 00		 mov	 DWORD PTR _pGamePropertyItem$[ebp], 0

; 578  : 
; 579  : 	//获取对象
; 580  : 	if (Position==NULL) Position=m_GamePropertyItemMap.GetStartPosition();

  0001a	8b 45 08	 mov	 eax, DWORD PTR _Position$[ebp]
  0001d	83 38 00	 cmp	 DWORD PTR [eax], 0
  00020	75 10		 jne	 SHORT $LN2@EmunGamePr
  00022	8b 4d fc	 mov	 ecx, DWORD PTR _this$[ebp]
  00025	83 c1 3c	 add	 ecx, 60			; 0000003cH
  00028	e8 00 00 00 00	 call	 ?GetStartPosition@?$CMap@KKPAVCGamePropertyItem@NGamePropertyListManager@@AAPAV12@@@QBEPAU__POSITION@@XZ ; CMap<unsigned long,unsigned long,NGamePropertyListManager::CGamePropertyItem *,NGamePropertyListManager::CGamePropertyItem * &>::GetStartPosition
  0002d	8b 4d 08	 mov	 ecx, DWORD PTR _Position$[ebp]
  00030	89 01		 mov	 DWORD PTR [ecx], eax
$LN2@EmunGamePr:

; 581  : 	if (Position!=NULL) m_GamePropertyItemMap.GetNextAssoc(Position,wKey,pGamePropertyItem);

  00032	8b 45 08	 mov	 eax, DWORD PTR _Position$[ebp]
  00035	83 38 00	 cmp	 DWORD PTR [eax], 0
  00038	74 17		 je	 SHORT $LN3@EmunGamePr
  0003a	8d 45 f4	 lea	 eax, DWORD PTR _pGamePropertyItem$[ebp]
  0003d	50		 push	 eax
  0003e	8d 4d f8	 lea	 ecx, DWORD PTR _wKey$[ebp]
  00041	51		 push	 ecx
  00042	8b 55 08	 mov	 edx, DWORD PTR _Position$[ebp]
  00045	52		 push	 edx
  00046	8b 4d fc	 mov	 ecx, DWORD PTR _this$[ebp]
  00049	83 c1 3c	 add	 ecx, 60			; 0000003cH
  0004c	e8 00 00 00 00	 call	 ?GetNextAssoc@?$CMap@KKPAVCGamePropertyItem@NGamePropertyListManager@@AAPAV12@@@QBEXAAPAU__POSITION@@AAKAAPAVCGamePropertyItem@NGamePropertyListManager@@@Z ; CMap<unsigned long,unsigned long,NGamePropertyListManager::CGamePropertyItem *,NGamePropertyListManager::CGamePropertyItem * &>::GetNextAssoc
$LN3@EmunGamePr:

; 582  : 
; 583  : 	return pGamePropertyItem;

  00051	8b 45 f4	 mov	 eax, DWORD PTR _pGamePropertyItem$[ebp]

; 584  : }

  00054	5f		 pop	 edi
  00055	5e		 pop	 esi
  00056	5b		 pop	 ebx
  00057	8b e5		 mov	 esp, ebp
  00059	5d		 pop	 ebp
  0005a	c2 04 00	 ret	 4
?EmunGamePropertyItem@CGamePropertyListManager@NGamePropertyListManager@@QAEPAVCGamePropertyItem@2@AAPAU__POSITION@@@Z ENDP ; NGamePropertyListManager::CGamePropertyListManager::EmunGamePropertyItem
_TEXT	ENDS
; Function compile flags: /Odtp /ZI
; File g:\网狐\happygamewh\服务端\系统模块\服务器组件\登录服务器\gamepropertylistmanager.cpp
;	COMDAT ?EmunGamePropertyRelatItem@CGamePropertyListManager@NGamePropertyListManager@@QAEPAVCGamePropertyRelatItem@2@AAPAU__POSITION@@@Z
_TEXT	SEGMENT
_pGamePropertyRelatItem$ = -12				; size = 4
_wKey$ = -8						; size = 4
_this$ = -4						; size = 4
_Position$ = 8						; size = 4
?EmunGamePropertyRelatItem@CGamePropertyListManager@NGamePropertyListManager@@QAEPAVCGamePropertyRelatItem@2@AAPAU__POSITION@@@Z PROC ; NGamePropertyListManager::CGamePropertyListManager::EmunGamePropertyRelatItem, COMDAT
; _this$ = ecx

; 560  : {

  00000	55		 push	 ebp
  00001	8b ec		 mov	 ebp, esp
  00003	83 ec 4c	 sub	 esp, 76			; 0000004cH
  00006	53		 push	 ebx
  00007	56		 push	 esi
  00008	57		 push	 edi
  00009	89 4d fc	 mov	 DWORD PTR _this$[ebp], ecx

; 561  : 	//变量定义
; 562  : 	DWORD wKey=0;

  0000c	c7 45 f8 00 00
	00 00		 mov	 DWORD PTR _wKey$[ebp], 0

; 563  : 	CGamePropertyRelatItem * pGamePropertyRelatItem=NULL;

  00013	c7 45 f4 00 00
	00 00		 mov	 DWORD PTR _pGamePropertyRelatItem$[ebp], 0

; 564  : 
; 565  : 	//获取对象
; 566  : 	if (Position==NULL) Position=m_GamePropertyRelatItemMap.GetStartPosition();

  0001a	8b 45 08	 mov	 eax, DWORD PTR _Position$[ebp]
  0001d	83 38 00	 cmp	 DWORD PTR [eax], 0
  00020	75 10		 jne	 SHORT $LN2@EmunGamePr
  00022	8b 4d fc	 mov	 ecx, DWORD PTR _this$[ebp]
  00025	83 c1 20	 add	 ecx, 32			; 00000020H
  00028	e8 00 00 00 00	 call	 ?GetStartPosition@?$CMap@KKPAVCGamePropertyRelatItem@NGamePropertyListManager@@AAPAV12@@@QBEPAU__POSITION@@XZ ; CMap<unsigned long,unsigned long,NGamePropertyListManager::CGamePropertyRelatItem *,NGamePropertyListManager::CGamePropertyRelatItem * &>::GetStartPosition
  0002d	8b 4d 08	 mov	 ecx, DWORD PTR _Position$[ebp]
  00030	89 01		 mov	 DWORD PTR [ecx], eax
$LN2@EmunGamePr:

; 567  : 	if (Position!=NULL) m_GamePropertyRelatItemMap.GetNextAssoc(Position,wKey,pGamePropertyRelatItem);

  00032	8b 45 08	 mov	 eax, DWORD PTR _Position$[ebp]
  00035	83 38 00	 cmp	 DWORD PTR [eax], 0
  00038	74 17		 je	 SHORT $LN3@EmunGamePr
  0003a	8d 45 f4	 lea	 eax, DWORD PTR _pGamePropertyRelatItem$[ebp]
  0003d	50		 push	 eax
  0003e	8d 4d f8	 lea	 ecx, DWORD PTR _wKey$[ebp]
  00041	51		 push	 ecx
  00042	8b 55 08	 mov	 edx, DWORD PTR _Position$[ebp]
  00045	52		 push	 edx
  00046	8b 4d fc	 mov	 ecx, DWORD PTR _this$[ebp]
  00049	83 c1 20	 add	 ecx, 32			; 00000020H
  0004c	e8 00 00 00 00	 call	 ?GetNextAssoc@?$CMap@KKPAVCGamePropertyRelatItem@NGamePropertyListManager@@AAPAV12@@@QBEXAAPAU__POSITION@@AAKAAPAVCGamePropertyRelatItem@NGamePropertyListManager@@@Z ; CMap<unsigned long,unsigned long,NGamePropertyListManager::CGamePropertyRelatItem *,NGamePropertyListManager::CGamePropertyRelatItem * &>::GetNextAssoc
$LN3@EmunGamePr:

; 568  : 
; 569  : 	return pGamePropertyRelatItem;

  00051	8b 45 f4	 mov	 eax, DWORD PTR _pGamePropertyRelatItem$[ebp]

; 570  : }

  00054	5f		 pop	 edi
  00055	5e		 pop	 esi
  00056	5b		 pop	 ebx
  00057	8b e5		 mov	 esp, ebp
  00059	5d		 pop	 ebp
  0005a	c2 04 00	 ret	 4
?EmunGamePropertyRelatItem@CGamePropertyListManager@NGamePropertyListManager@@QAEPAVCGamePropertyRelatItem@2@AAPAU__POSITION@@@Z ENDP ; NGamePropertyListManager::CGamePropertyListManager::EmunGamePropertyRelatItem
_TEXT	ENDS
; Function compile flags: /Odtp /ZI
; File g:\网狐\happygamewh\服务端\系统模块\服务器组件\登录服务器\gamepropertylistmanager.cpp
;	COMDAT ?EmunGamePropertyTypeItem@CGamePropertyListManager@NGamePropertyListManager@@QAEPAVCGamePropertyTypeItem@2@AAPAU__POSITION@@@Z
_TEXT	SEGMENT
_pGamePropertyTypeItem$ = -12				; size = 4
_wKey$ = -8						; size = 4
_this$ = -4						; size = 4
_Position$ = 8						; size = 4
?EmunGamePropertyTypeItem@CGamePropertyListManager@NGamePropertyListManager@@QAEPAVCGamePropertyTypeItem@2@AAPAU__POSITION@@@Z PROC ; NGamePropertyListManager::CGamePropertyListManager::EmunGamePropertyTypeItem, COMDAT
; _this$ = ecx

; 546  : {

  00000	55		 push	 ebp
  00001	8b ec		 mov	 ebp, esp
  00003	83 ec 4c	 sub	 esp, 76			; 0000004cH
  00006	53		 push	 ebx
  00007	56		 push	 esi
  00008	57		 push	 edi
  00009	89 4d fc	 mov	 DWORD PTR _this$[ebp], ecx

; 547  : 	//变量定义
; 548  : 	DWORD wKey=0;

  0000c	c7 45 f8 00 00
	00 00		 mov	 DWORD PTR _wKey$[ebp], 0

; 549  : 	CGamePropertyTypeItem * pGamePropertyTypeItem=NULL;

  00013	c7 45 f4 00 00
	00 00		 mov	 DWORD PTR _pGamePropertyTypeItem$[ebp], 0

; 550  : 
; 551  : 	//获取对象
; 552  : 	if (Position==NULL) Position=m_GamePropertyTypeItemMap.GetStartPosition();

  0001a	8b 45 08	 mov	 eax, DWORD PTR _Position$[ebp]
  0001d	83 38 00	 cmp	 DWORD PTR [eax], 0
  00020	75 10		 jne	 SHORT $LN2@EmunGamePr
  00022	8b 4d fc	 mov	 ecx, DWORD PTR _this$[ebp]
  00025	83 c1 04	 add	 ecx, 4
  00028	e8 00 00 00 00	 call	 ?GetStartPosition@?$CMap@KKPAVCGamePropertyTypeItem@NGamePropertyListManager@@AAPAV12@@@QBEPAU__POSITION@@XZ ; CMap<unsigned long,unsigned long,NGamePropertyListManager::CGamePropertyTypeItem *,NGamePropertyListManager::CGamePropertyTypeItem * &>::GetStartPosition
  0002d	8b 4d 08	 mov	 ecx, DWORD PTR _Position$[ebp]
  00030	89 01		 mov	 DWORD PTR [ecx], eax
$LN2@EmunGamePr:

; 553  : 	if (Position!=NULL) m_GamePropertyTypeItemMap.GetNextAssoc(Position,wKey,pGamePropertyTypeItem);

  00032	8b 45 08	 mov	 eax, DWORD PTR _Position$[ebp]
  00035	83 38 00	 cmp	 DWORD PTR [eax], 0
  00038	74 17		 je	 SHORT $LN3@EmunGamePr
  0003a	8d 45 f4	 lea	 eax, DWORD PTR _pGamePropertyTypeItem$[ebp]
  0003d	50		 push	 eax
  0003e	8d 4d f8	 lea	 ecx, DWORD PTR _wKey$[ebp]
  00041	51		 push	 ecx
  00042	8b 55 08	 mov	 edx, DWORD PTR _Position$[ebp]
  00045	52		 push	 edx
  00046	8b 4d fc	 mov	 ecx, DWORD PTR _this$[ebp]
  00049	83 c1 04	 add	 ecx, 4
  0004c	e8 00 00 00 00	 call	 ?GetNextAssoc@?$CMap@KKPAVCGamePropertyTypeItem@NGamePropertyListManager@@AAPAV12@@@QBEXAAPAU__POSITION@@AAKAAPAVCGamePropertyTypeItem@NGamePropertyListManager@@@Z ; CMap<unsigned long,unsigned long,NGamePropertyListManager::CGamePropertyTypeItem *,NGamePropertyListManager::CGamePropertyTypeItem * &>::GetNextAssoc
$LN3@EmunGamePr:

; 554  : 
; 555  : 	return pGamePropertyTypeItem;

  00051	8b 45 f4	 mov	 eax, DWORD PTR _pGamePropertyTypeItem$[ebp]

; 556  : }

  00054	5f		 pop	 edi
  00055	5e		 pop	 esi
  00056	5b		 pop	 ebx
  00057	8b e5		 mov	 esp, ebp
  00059	5d		 pop	 ebp
  0005a	c2 04 00	 ret	 4
?EmunGamePropertyTypeItem@CGamePropertyListManager@NGamePropertyListManager@@QAEPAVCGamePropertyTypeItem@2@AAPAU__POSITION@@@Z ENDP ; NGamePropertyListManager::CGamePropertyListManager::EmunGamePropertyTypeItem
_TEXT	ENDS
; Function compile flags: /Odtp /ZI
; File g:\网狐\happygamewh\服务端\系统模块\服务器组件\登录服务器\gamepropertylistmanager.cpp
;	COMDAT ?DeleteGamePropertyItem@CGamePropertyListManager@NGamePropertyListManager@@QAE_NK@Z
_TEXT	SEGMENT
_pGamePropertyItem$ = -8				; size = 4
_this$ = -4						; size = 4
_dwPropertyID$ = 8					; size = 4
?DeleteGamePropertyItem@CGamePropertyListManager@NGamePropertyListManager@@QAE_NK@Z PROC ; NGamePropertyListManager::CGamePropertyListManager::DeleteGamePropertyItem, COMDAT
; _this$ = ecx

; 532  : {

  00000	55		 push	 ebp
  00001	8b ec		 mov	 ebp, esp
  00003	83 ec 48	 sub	 esp, 72			; 00000048H
  00006	53		 push	 ebx
  00007	56		 push	 esi
  00008	57		 push	 edi
  00009	89 4d fc	 mov	 DWORD PTR _this$[ebp], ecx

; 533  : 	//查找道具
; 534  : 	CGamePropertyItem * pGamePropertyItem=NULL;

  0000c	c7 45 f8 00 00
	00 00		 mov	 DWORD PTR _pGamePropertyItem$[ebp], 0

; 535  : 	if (m_GamePropertyItemMap.Lookup(dwPropertyID,pGamePropertyItem)==FALSE) return false;

  00013	8d 45 f8	 lea	 eax, DWORD PTR _pGamePropertyItem$[ebp]
  00016	50		 push	 eax
  00017	8b 4d 08	 mov	 ecx, DWORD PTR _dwPropertyID$[ebp]
  0001a	51		 push	 ecx
  0001b	8b 4d fc	 mov	 ecx, DWORD PTR _this$[ebp]
  0001e	83 c1 3c	 add	 ecx, 60			; 0000003cH
  00021	e8 00 00 00 00	 call	 ?Lookup@?$CMap@KKPAVCGamePropertyItem@NGamePropertyListManager@@AAPAV12@@@QBEHKAAPAVCGamePropertyItem@NGamePropertyListManager@@@Z ; CMap<unsigned long,unsigned long,NGamePropertyListManager::CGamePropertyItem *,NGamePropertyListManager::CGamePropertyItem * &>::Lookup
  00026	85 c0		 test	 eax, eax
  00028	75 04		 jne	 SHORT $LN2@DeleteGame
  0002a	32 c0		 xor	 al, al
  0002c	eb 23		 jmp	 SHORT $LN1@DeleteGame
$LN2@DeleteGame:

; 536  : 
; 537  : 	//删除数据
; 538  : 	m_GamePropertyItemMap.RemoveKey(dwPropertyID);

  0002e	8b 45 08	 mov	 eax, DWORD PTR _dwPropertyID$[ebp]
  00031	50		 push	 eax
  00032	8b 4d fc	 mov	 ecx, DWORD PTR _this$[ebp]
  00035	83 c1 3c	 add	 ecx, 60			; 0000003cH
  00038	e8 00 00 00 00	 call	 ?RemoveKey@?$CMap@KKPAVCGamePropertyItem@NGamePropertyListManager@@AAPAV12@@@QAEHK@Z ; CMap<unsigned long,unsigned long,NGamePropertyListManager::CGamePropertyItem *,NGamePropertyListManager::CGamePropertyItem * &>::RemoveKey

; 539  : 	m_GamePropertyItemArray.Add(pGamePropertyItem);

  0003d	8d 45 f8	 lea	 eax, DWORD PTR _pGamePropertyItem$[ebp]
  00040	50		 push	 eax
  00041	8b 4d fc	 mov	 ecx, DWORD PTR _this$[ebp]
  00044	81 c1 9c 00 00
	00		 add	 ecx, 156		; 0000009cH
  0004a	e8 00 00 00 00	 call	 ?Add@?$CWHArray@PAVCGamePropertyItem@NGamePropertyListManager@@ABQAV12@@@QAEHABQAVCGamePropertyItem@NGamePropertyListManager@@@Z ; CWHArray<NGamePropertyListManager::CGamePropertyItem *,NGamePropertyListManager::CGamePropertyItem * const &>::Add

; 540  : 
; 541  : 	return true;

  0004f	b0 01		 mov	 al, 1
$LN1@DeleteGame:

; 542  : }

  00051	5f		 pop	 edi
  00052	5e		 pop	 esi
  00053	5b		 pop	 ebx
  00054	8b e5		 mov	 esp, ebp
  00056	5d		 pop	 ebp
  00057	c2 04 00	 ret	 4
?DeleteGamePropertyItem@CGamePropertyListManager@NGamePropertyListManager@@QAE_NK@Z ENDP ; NGamePropertyListManager::CGamePropertyListManager::DeleteGamePropertyItem
_TEXT	ENDS
; Function compile flags: /Odtp /ZI
; File g:\网狐\happygamewh\服务端\系统模块\服务器组件\登录服务器\gamepropertylistmanager.cpp
;	COMDAT ?DeleteGamePropertyTypeItem@CGamePropertyListManager@NGamePropertyListManager@@QAE_NK@Z
_TEXT	SEGMENT
_pGamePropertyTypeItem$ = -8				; size = 4
_this$ = -4						; size = 4
_dwTypeID$ = 8						; size = 4
?DeleteGamePropertyTypeItem@CGamePropertyListManager@NGamePropertyListManager@@QAE_NK@Z PROC ; NGamePropertyListManager::CGamePropertyListManager::DeleteGamePropertyTypeItem, COMDAT
; _this$ = ecx

; 519  : {

  00000	55		 push	 ebp
  00001	8b ec		 mov	 ebp, esp
  00003	83 ec 48	 sub	 esp, 72			; 00000048H
  00006	53		 push	 ebx
  00007	56		 push	 esi
  00008	57		 push	 edi
  00009	89 4d fc	 mov	 DWORD PTR _this$[ebp], ecx

; 520  : 	//查找种类
; 521  : 	CGamePropertyTypeItem * pGamePropertyTypeItem=NULL;

  0000c	c7 45 f8 00 00
	00 00		 mov	 DWORD PTR _pGamePropertyTypeItem$[ebp], 0

; 522  : 	if (m_GamePropertyTypeItemMap.Lookup(dwTypeID,pGamePropertyTypeItem)==FALSE) return false;

  00013	8d 45 f8	 lea	 eax, DWORD PTR _pGamePropertyTypeItem$[ebp]
  00016	50		 push	 eax
  00017	8b 4d 08	 mov	 ecx, DWORD PTR _dwTypeID$[ebp]
  0001a	51		 push	 ecx
  0001b	8b 4d fc	 mov	 ecx, DWORD PTR _this$[ebp]
  0001e	83 c1 04	 add	 ecx, 4
  00021	e8 00 00 00 00	 call	 ?Lookup@?$CMap@KKPAVCGamePropertyTypeItem@NGamePropertyListManager@@AAPAV12@@@QBEHKAAPAVCGamePropertyTypeItem@NGamePropertyListManager@@@Z ; CMap<unsigned long,unsigned long,NGamePropertyListManager::CGamePropertyTypeItem *,NGamePropertyListManager::CGamePropertyTypeItem * &>::Lookup
  00026	85 c0		 test	 eax, eax
  00028	75 04		 jne	 SHORT $LN2@DeleteGame
  0002a	32 c0		 xor	 al, al
  0002c	eb 11		 jmp	 SHORT $LN1@DeleteGame
$LN2@DeleteGame:

; 523  : 
; 524  : 	//删除数据
; 525  : 	m_GamePropertyTypeItemMap.RemoveKey(dwTypeID);

  0002e	8b 45 08	 mov	 eax, DWORD PTR _dwTypeID$[ebp]
  00031	50		 push	 eax
  00032	8b 4d fc	 mov	 ecx, DWORD PTR _this$[ebp]
  00035	83 c1 04	 add	 ecx, 4
  00038	e8 00 00 00 00	 call	 ?RemoveKey@?$CMap@KKPAVCGamePropertyTypeItem@NGamePropertyListManager@@AAPAV12@@@QAEHK@Z ; CMap<unsigned long,unsigned long,NGamePropertyListManager::CGamePropertyTypeItem *,NGamePropertyListManager::CGamePropertyTypeItem * &>::RemoveKey

; 526  : 
; 527  : 	return true;

  0003d	b0 01		 mov	 al, 1
$LN1@DeleteGame:

; 528  : }

  0003f	5f		 pop	 edi
  00040	5e		 pop	 esi
  00041	5b		 pop	 ebx
  00042	8b e5		 mov	 esp, ebp
  00044	5d		 pop	 ebp
  00045	c2 04 00	 ret	 4
?DeleteGamePropertyTypeItem@CGamePropertyListManager@NGamePropertyListManager@@QAE_NK@Z ENDP ; NGamePropertyListManager::CGamePropertyListManager::DeleteGamePropertyTypeItem
_TEXT	ENDS
; Function compile flags: /Odtp /ZI
; File g:\网狐\happygamewh\服务端\系统模块\服务器组件\登录服务器\gamepropertylistmanager.cpp
;	COMDAT ?InsertGamePropertySubItem@CGamePropertyListManager@NGamePropertyListManager@@QAE_NPAUtagPropertySubItem@@@Z
_TEXT	SEGMENT
tv139 = -128						; size = 4
tv158 = -124						; size = 4
tv155 = -120						; size = 4
$T2 = -113						; size = 1
$T3 = -112						; size = 4
$T4 = -108						; size = 4
_Position$ = -40					; size = 4
_dwCurrKey$ = -36					; size = 4
_dwkey$ = -32						; size = 4
_bFinder$ = -25						; size = 1
_pGamePropertySubItem$ = -24				; size = 4
_this$ = -20						; size = 4
__$EHRec$ = -16						; size = 16
_ptagPropertySubItem$ = 8				; size = 4
?InsertGamePropertySubItem@CGamePropertyListManager@NGamePropertyListManager@@QAE_NPAUtagPropertySubItem@@@Z PROC ; NGamePropertyListManager::CGamePropertyListManager::InsertGamePropertySubItem, COMDAT
; _this$ = ecx

; 458  : {

  00000	55		 push	 ebp
  00001	8b ec		 mov	 ebp, esp
  00003	6a ff		 push	 -1
  00005	68 00 00 00 00	 push	 __ehhandler$?InsertGamePropertySubItem@CGamePropertyListManager@NGamePropertyListManager@@QAE_NPAUtagPropertySubItem@@@Z
  0000a	64 a1 00 00 00
	00		 mov	 eax, DWORD PTR fs:0
  00010	50		 push	 eax
  00011	51		 push	 ecx
  00012	83 ec 70	 sub	 esp, 112		; 00000070H
  00015	53		 push	 ebx
  00016	56		 push	 esi
  00017	57		 push	 edi
  00018	a1 00 00 00 00	 mov	 eax, DWORD PTR ___security_cookie
  0001d	33 c5		 xor	 eax, ebp
  0001f	50		 push	 eax
  00020	8d 45 f4	 lea	 eax, DWORD PTR __$EHRec$[ebp+4]
  00023	64 a3 00 00 00
	00		 mov	 DWORD PTR fs:0, eax
  00029	89 65 f0	 mov	 DWORD PTR __$EHRec$[ebp], esp
  0002c	89 4d ec	 mov	 DWORD PTR _this$[ebp], ecx

; 459  : 	//效验参数
; 460  : 	ASSERT(ptagPropertySubItem!=NULL);

  0002f	83 7d 08 00	 cmp	 DWORD PTR _ptagPropertySubItem$[ebp], 0
  00033	75 18		 jne	 SHORT $LN15@InsertGame
  00035	a1 00 00 00 00	 mov	 eax, DWORD PTR ?__LINE__Var@?0??InsertGamePropertySubItem@CGamePropertyListManager@NGamePropertyListManager@@QAE_NPAUtagPropertySubItem@@@Z@4JA
  0003a	83 c0 02	 add	 eax, 2
  0003d	50		 push	 eax
  0003e	68 00 00 00 00	 push	 OFFSET ??_C@_0FG@GCELCLHM@g?3?2?M?x?$LK?$PM?2happygamewh?2?$LH?$PO?N?q?$LG?K?2?O?$LF?M?$LD@
  00043	e8 00 00 00 00	 call	 ?AfxAssertFailedLine@@YGHPBDH@Z ; AfxAssertFailedLine
  00048	85 c0		 test	 eax, eax
  0004a	74 01		 je	 SHORT $LN15@InsertGame
  0004c	cc		 int	 3
$LN15@InsertGame:

; 461  : 	if (ptagPropertySubItem==NULL) return false;

  0004d	83 7d 08 00	 cmp	 DWORD PTR _ptagPropertySubItem$[ebp], 0
  00051	75 07		 jne	 SHORT $LN4@InsertGame
  00053	32 c0		 xor	 al, al
  00055	e9 6d 01 00 00	 jmp	 $LN1@InsertGame
$LN4@InsertGame:

; 462  : 
; 463  : 	//查找现存
; 464  : 	CGamePropertySubItem * pGamePropertySubItem=NULL;

  0005a	c7 45 e8 00 00
	00 00		 mov	 DWORD PTR _pGamePropertySubItem$[ebp], 0

; 465  : 
; 466  : 	bool bFinder = false;

  00061	c6 45 e7 00	 mov	 BYTE PTR _bFinder$[ebp], 0

; 467  : 	DWORD  dwkey= 0;

  00065	c7 45 e0 00 00
	00 00		 mov	 DWORD PTR _dwkey$[ebp], 0

; 468  : 	DWORD  dwCurrKey =0;

  0006c	c7 45 dc 00 00
	00 00		 mov	 DWORD PTR _dwCurrKey$[ebp], 0

; 469  : 	POSITION Position=NULL;

  00073	c7 45 d8 00 00
	00 00		 mov	 DWORD PTR _Position$[ebp], 0
$LN2@InsertGame:

; 470  : 	while (true)

  0007a	b8 01 00 00 00	 mov	 eax, 1
  0007f	85 c0		 test	 eax, eax
  00081	74 6d		 je	 SHORT $LN3@InsertGame

; 471  : 	{
; 472  : 		if (Position==NULL) Position=m_GamePropertySubItemMap.GetStartPosition();

  00083	83 7d d8 00	 cmp	 DWORD PTR _Position$[ebp], 0
  00087	75 0e		 jne	 SHORT $LN5@InsertGame
  00089	8b 4d ec	 mov	 ecx, DWORD PTR _this$[ebp]
  0008c	83 c1 58	 add	 ecx, 88			; 00000058H
  0008f	e8 00 00 00 00	 call	 ?GetStartPosition@?$CMap@KKPAVCGamePropertySubItem@NGamePropertyListManager@@AAPAV12@@@QBEPAU__POSITION@@XZ ; CMap<unsigned long,unsigned long,NGamePropertyListManager::CGamePropertySubItem *,NGamePropertyListManager::CGamePropertySubItem * &>::GetStartPosition
  00094	89 45 d8	 mov	 DWORD PTR _Position$[ebp], eax
$LN5@InsertGame:

; 473  : 		if (Position!=NULL) m_GamePropertySubItemMap.GetNextAssoc(Position,dwkey,pGamePropertySubItem);

  00097	83 7d d8 00	 cmp	 DWORD PTR _Position$[ebp], 0
  0009b	74 17		 je	 SHORT $LN6@InsertGame
  0009d	8d 45 e8	 lea	 eax, DWORD PTR _pGamePropertySubItem$[ebp]
  000a0	50		 push	 eax
  000a1	8d 4d e0	 lea	 ecx, DWORD PTR _dwkey$[ebp]
  000a4	51		 push	 ecx
  000a5	8d 55 d8	 lea	 edx, DWORD PTR _Position$[ebp]
  000a8	52		 push	 edx
  000a9	8b 4d ec	 mov	 ecx, DWORD PTR _this$[ebp]
  000ac	83 c1 58	 add	 ecx, 88			; 00000058H
  000af	e8 00 00 00 00	 call	 ?GetNextAssoc@?$CMap@KKPAVCGamePropertySubItem@NGamePropertyListManager@@AAPAV12@@@QBEXAAPAU__POSITION@@AAKAAPAVCGamePropertySubItem@NGamePropertyListManager@@@Z ; CMap<unsigned long,unsigned long,NGamePropertyListManager::CGamePropertySubItem *,NGamePropertyListManager::CGamePropertySubItem * &>::GetNextAssoc
$LN6@InsertGame:

; 474  : 
; 475  : 		if (pGamePropertySubItem==NULL) break;

  000b4	83 7d e8 00	 cmp	 DWORD PTR _pGamePropertySubItem$[ebp], 0
  000b8	75 02		 jne	 SHORT $LN7@InsertGame
  000ba	eb 34		 jmp	 SHORT $LN3@InsertGame
$LN7@InsertGame:

; 476  : 
; 477  : 		if (pGamePropertySubItem->m_PropertySubItem.dwPropertyID == ptagPropertySubItem->dwPropertyID
; 478  : 			&& pGamePropertySubItem->m_PropertySubItem.dwOwnerPropertyID == ptagPropertySubItem->dwOwnerPropertyID)

  000bc	8b 45 e8	 mov	 eax, DWORD PTR _pGamePropertySubItem$[ebp]
  000bf	8b 4d 08	 mov	 ecx, DWORD PTR _ptagPropertySubItem$[ebp]
  000c2	8b 50 01	 mov	 edx, DWORD PTR [eax+1]
  000c5	3b 11		 cmp	 edx, DWORD PTR [ecx]
  000c7	75 14		 jne	 SHORT $LN8@InsertGame
  000c9	8b 45 e8	 mov	 eax, DWORD PTR _pGamePropertySubItem$[ebp]
  000cc	8b 4d 08	 mov	 ecx, DWORD PTR _ptagPropertySubItem$[ebp]
  000cf	8b 50 05	 mov	 edx, DWORD PTR [eax+5]
  000d2	3b 51 04	 cmp	 edx, DWORD PTR [ecx+4]
  000d5	75 06		 jne	 SHORT $LN8@InsertGame

; 479  : 		{
; 480  : 			bFinder = true;

  000d7	c6 45 e7 01	 mov	 BYTE PTR _bFinder$[ebp], 1

; 481  : 			break;

  000db	eb 13		 jmp	 SHORT $LN3@InsertGame
$LN8@InsertGame:

; 482  : 		}
; 483  : 		dwCurrKey++;

  000dd	8b 45 dc	 mov	 eax, DWORD PTR _dwCurrKey$[ebp]
  000e0	83 c0 01	 add	 eax, 1
  000e3	89 45 dc	 mov	 DWORD PTR _dwCurrKey$[ebp], eax

; 484  : 
; 485  : 		if (Position==NULL) break;

  000e6	83 7d d8 00	 cmp	 DWORD PTR _Position$[ebp], 0
  000ea	75 02		 jne	 SHORT $LN9@InsertGame
  000ec	eb 02		 jmp	 SHORT $LN3@InsertGame
$LN9@InsertGame:

; 486  : 	}

  000ee	eb 8a		 jmp	 SHORT $LN2@InsertGame
$LN3@InsertGame:

; 487  : 
; 488  : 	//获取子项
; 489  : 	if (bFinder == false)

  000f0	0f b6 45 e7	 movzx	 eax, BYTE PTR _bFinder$[ebp]
  000f4	85 c0		 test	 eax, eax
  000f6	0f 85 9a 00 00
	00		 jne	 $LN10@InsertGame

; 490  : 	{
; 491  : 		//创建对象
; 492  : 		try

  000fc	c7 45 fc 00 00
	00 00		 mov	 DWORD PTR __$EHRec$[ebp+12], 0

; 493  : 		{
; 494  : 			pGamePropertySubItem=new CGamePropertySubItem;

  00103	6a 11		 push	 17			; 00000011H
  00105	e8 00 00 00 00	 call	 ??2@YAPAXI@Z		; operator new
  0010a	83 c4 04	 add	 esp, 4
  0010d	89 45 88	 mov	 DWORD PTR tv155[ebp], eax
  00110	8b 45 88	 mov	 eax, DWORD PTR tv155[ebp]
  00113	89 45 90	 mov	 DWORD PTR $T3[ebp], eax
  00116	c6 45 fc 01	 mov	 BYTE PTR __$EHRec$[ebp+12], 1
  0011a	83 7d 90 00	 cmp	 DWORD PTR $T3[ebp], 0
  0011e	74 13		 je	 SHORT $LN16@InsertGame
  00120	8b 4d 90	 mov	 ecx, DWORD PTR $T3[ebp]
  00123	e8 00 00 00 00	 call	 ??0CGamePropertySubItem@NGamePropertyListManager@@QAE@XZ ; NGamePropertyListManager::CGamePropertySubItem::CGamePropertySubItem
  00128	89 45 84	 mov	 DWORD PTR tv158[ebp], eax
  0012b	8b 4d 84	 mov	 ecx, DWORD PTR tv158[ebp]
  0012e	89 4d 80	 mov	 DWORD PTR tv139[ebp], ecx
  00131	eb 07		 jmp	 SHORT $LN17@InsertGame
$LN16@InsertGame:
  00133	c7 45 80 00 00
	00 00		 mov	 DWORD PTR tv139[ebp], 0
$LN17@InsertGame:
  0013a	8b 55 80	 mov	 edx, DWORD PTR tv139[ebp]
  0013d	89 55 94	 mov	 DWORD PTR $T4[ebp], edx
  00140	c6 45 fc 00	 mov	 BYTE PTR __$EHRec$[ebp+12], 0
  00144	8b 45 94	 mov	 eax, DWORD PTR $T4[ebp]
  00147	89 45 e8	 mov	 DWORD PTR _pGamePropertySubItem$[ebp], eax

; 495  : 			if (pGamePropertySubItem==NULL) return false;

  0014a	83 7d e8 00	 cmp	 DWORD PTR _pGamePropertySubItem$[ebp], 0
  0014e	75 04		 jne	 SHORT $LN13@InsertGame
  00150	32 c0		 xor	 al, al
  00152	eb 73		 jmp	 SHORT $LN1@InsertGame
$LN13@InsertGame:

; 496  : 		}

  00154	eb 10		 jmp	 SHORT $LN18@InsertGame
__catch$?InsertGamePropertySubItem@CGamePropertyListManager@NGamePropertyListManager@@QAE_NPAUtagPropertySubItem@@@Z$0:

; 497  : 		catch (...) { return false; }

  00156	c6 45 8f 00	 mov	 BYTE PTR $T2[ebp], 0
  0015a	b8 00 00 00 00	 mov	 eax, $LN22@InsertGame
  0015f	c3		 ret	 0
  00160	b8 00 00 00 00	 mov	 eax, $LN18@InsertGame
  00165	c3		 ret	 0
$LN18@InsertGame:
  00166	c7 45 fc ff ff
	ff ff		 mov	 DWORD PTR __$EHRec$[ebp+12], -1
  0016d	eb 0c		 jmp	 SHORT $LN21@InsertGame
$LN22@InsertGame:
  0016f	c7 45 fc ff ff
	ff ff		 mov	 DWORD PTR __$EHRec$[ebp+12], -1
  00176	8a 45 8f	 mov	 al, BYTE PTR $T2[ebp]
  00179	eb 4c		 jmp	 SHORT $LN1@InsertGame
$LN21@InsertGame:

; 498  : 
; 499  : 		//设置变量
; 500  : 		ZeroMemory(pGamePropertySubItem,sizeof(CGamePropertySubItem));

  0017b	6a 11		 push	 17			; 00000011H
  0017d	6a 00		 push	 0
  0017f	8b 45 e8	 mov	 eax, DWORD PTR _pGamePropertySubItem$[ebp]
  00182	50		 push	 eax
  00183	e8 00 00 00 00	 call	 _memset
  00188	83 c4 0c	 add	 esp, 12			; 0000000cH

; 501  : 		dwCurrKey++;

  0018b	8b 45 dc	 mov	 eax, DWORD PTR _dwCurrKey$[ebp]
  0018e	83 c0 01	 add	 eax, 1
  00191	89 45 dc	 mov	 DWORD PTR _dwCurrKey$[ebp], eax

; 502  : 	}
; 503  : 	else

  00194	eb 06		 jmp	 SHORT $LN11@InsertGame
$LN10@InsertGame:

; 504  : 	{
; 505  : 		dwCurrKey = dwkey;

  00196	8b 45 e0	 mov	 eax, DWORD PTR _dwkey$[ebp]
  00199	89 45 dc	 mov	 DWORD PTR _dwCurrKey$[ebp], eax
$LN11@InsertGame:

; 506  : 	}
; 507  : 
; 508  : 	//设置数据
; 509  : 	CopyMemory(&pGamePropertySubItem->m_PropertySubItem,ptagPropertySubItem,sizeof(tagPropertySubItem));

  0019c	6a 10		 push	 16			; 00000010H
  0019e	8b 45 08	 mov	 eax, DWORD PTR _ptagPropertySubItem$[ebp]
  001a1	50		 push	 eax
  001a2	8b 4d e8	 mov	 ecx, DWORD PTR _pGamePropertySubItem$[ebp]
  001a5	83 c1 01	 add	 ecx, 1
  001a8	51		 push	 ecx
  001a9	e8 00 00 00 00	 call	 _memcpy
  001ae	83 c4 0c	 add	 esp, 12			; 0000000cH

; 510  : 
; 511  : 	//设置索引
; 512  : 	m_GamePropertySubItemMap[dwCurrKey]=pGamePropertySubItem;

  001b1	8b 45 dc	 mov	 eax, DWORD PTR _dwCurrKey$[ebp]
  001b4	50		 push	 eax
  001b5	8b 4d ec	 mov	 ecx, DWORD PTR _this$[ebp]
  001b8	83 c1 58	 add	 ecx, 88			; 00000058H
  001bb	e8 00 00 00 00	 call	 ??A?$CMap@KKPAVCGamePropertySubItem@NGamePropertyListManager@@AAPAV12@@@QAEAAPAVCGamePropertySubItem@NGamePropertyListManager@@K@Z ; CMap<unsigned long,unsigned long,NGamePropertyListManager::CGamePropertySubItem *,NGamePropertyListManager::CGamePropertySubItem * &>::operator[]
  001c0	8b 4d e8	 mov	 ecx, DWORD PTR _pGamePropertySubItem$[ebp]
  001c3	89 08		 mov	 DWORD PTR [eax], ecx

; 513  : 
; 514  : 	return true;

  001c5	b0 01		 mov	 al, 1
$LN1@InsertGame:

; 515  : }

  001c7	8b 4d f4	 mov	 ecx, DWORD PTR __$EHRec$[ebp+4]
  001ca	64 89 0d 00 00
	00 00		 mov	 DWORD PTR fs:0, ecx
  001d1	59		 pop	 ecx
  001d2	5f		 pop	 edi
  001d3	5e		 pop	 esi
  001d4	5b		 pop	 ebx
  001d5	8b e5		 mov	 esp, ebp
  001d7	5d		 pop	 ebp
  001d8	c2 04 00	 ret	 4
_TEXT	ENDS
;	COMDAT text$x
text$x	SEGMENT
__unwindfunclet$?InsertGamePropertySubItem@CGamePropertyListManager@NGamePropertyListManager@@QAE_NPAUtagPropertySubItem@@@Z$2:
  00000	6a 11		 push	 17			; 00000011H
  00002	8b 45 90	 mov	 eax, DWORD PTR $T3[ebp]
  00005	50		 push	 eax
  00006	e8 00 00 00 00	 call	 ??3@YAXPAXI@Z		; operator delete
  0000b	83 c4 08	 add	 esp, 8
  0000e	c3		 ret	 0
__ehhandler$?InsertGamePropertySubItem@CGamePropertyListManager@NGamePropertyListManager@@QAE_NPAUtagPropertySubItem@@@Z:
  0000f	8b 54 24 08	 mov	 edx, DWORD PTR [esp+8]
  00013	8d 42 0c	 lea	 eax, DWORD PTR [edx+12]
  00016	8b 8a 7c ff ff
	ff		 mov	 ecx, DWORD PTR [edx-132]
  0001c	33 c8		 xor	 ecx, eax
  0001e	e8 00 00 00 00	 call	 @__security_check_cookie@4
  00023	b8 00 00 00 00	 mov	 eax, OFFSET __ehfuncinfo$?InsertGamePropertySubItem@CGamePropertyListManager@NGamePropertyListManager@@QAE_NPAUtagPropertySubItem@@@Z
  00028	e9 00 00 00 00	 jmp	 ___CxxFrameHandler3
text$x	ENDS
?InsertGamePropertySubItem@CGamePropertyListManager@NGamePropertyListManager@@QAE_NPAUtagPropertySubItem@@@Z ENDP ; NGamePropertyListManager::CGamePropertyListManager::InsertGamePropertySubItem
; Function compile flags: /Odtp /ZI
; File g:\网狐\happygamewh\服务端\系统模块\服务器组件\登录服务器\gamepropertylistmanager.cpp
;	COMDAT ?InsertGamePropertyItem@CGamePropertyListManager@NGamePropertyListManager@@QAE_NPAUtagPropertyItem@@@Z
_TEXT	SEGMENT
tv136 = -116						; size = 4
tv157 = -112						; size = 4
tv154 = -108						; size = 4
tv153 = -108						; size = 4
tv152 = -108						; size = 4
$T2 = -101						; size = 1
$T3 = -100						; size = 4
$T4 = -96						; size = 4
_nStroeCount$5 = -28					; size = 4
_pGamePropertyItem$ = -24				; size = 4
_this$ = -20						; size = 4
__$EHRec$ = -16						; size = 16
_ptagPropertyItem$ = 8					; size = 4
?InsertGamePropertyItem@CGamePropertyListManager@NGamePropertyListManager@@QAE_NPAUtagPropertyItem@@@Z PROC ; NGamePropertyListManager::CGamePropertyListManager::InsertGamePropertyItem, COMDAT
; _this$ = ecx

; 414  : {

  00000	55		 push	 ebp
  00001	8b ec		 mov	 ebp, esp
  00003	6a ff		 push	 -1
  00005	68 00 00 00 00	 push	 __ehhandler$?InsertGamePropertyItem@CGamePropertyListManager@NGamePropertyListManager@@QAE_NPAUtagPropertyItem@@@Z
  0000a	64 a1 00 00 00
	00		 mov	 eax, DWORD PTR fs:0
  00010	50		 push	 eax
  00011	51		 push	 ecx
  00012	83 ec 64	 sub	 esp, 100		; 00000064H
  00015	53		 push	 ebx
  00016	56		 push	 esi
  00017	57		 push	 edi
  00018	a1 00 00 00 00	 mov	 eax, DWORD PTR ___security_cookie
  0001d	33 c5		 xor	 eax, ebp
  0001f	50		 push	 eax
  00020	8d 45 f4	 lea	 eax, DWORD PTR __$EHRec$[ebp+4]
  00023	64 a3 00 00 00
	00		 mov	 DWORD PTR fs:0, eax
  00029	89 65 f0	 mov	 DWORD PTR __$EHRec$[ebp], esp
  0002c	89 4d ec	 mov	 DWORD PTR _this$[ebp], ecx

; 415  : 	//效验参数
; 416  : 	ASSERT(ptagPropertyItem!=NULL);

  0002f	83 7d 08 00	 cmp	 DWORD PTR _ptagPropertyItem$[ebp], 0
  00033	75 18		 jne	 SHORT $LN9@InsertGame
  00035	a1 00 00 00 00	 mov	 eax, DWORD PTR ?__LINE__Var@?0??InsertGamePropertyItem@CGamePropertyListManager@NGamePropertyListManager@@QAE_NPAUtagPropertyItem@@@Z@4JA
  0003a	83 c0 02	 add	 eax, 2
  0003d	50		 push	 eax
  0003e	68 00 00 00 00	 push	 OFFSET ??_C@_0FG@GCELCLHM@g?3?2?M?x?$LK?$PM?2happygamewh?2?$LH?$PO?N?q?$LG?K?2?O?$LF?M?$LD@
  00043	e8 00 00 00 00	 call	 ?AfxAssertFailedLine@@YGHPBDH@Z ; AfxAssertFailedLine
  00048	85 c0		 test	 eax, eax
  0004a	74 01		 je	 SHORT $LN9@InsertGame
  0004c	cc		 int	 3
$LN9@InsertGame:

; 417  : 	if (ptagPropertyItem==NULL) return false;

  0004d	83 7d 08 00	 cmp	 DWORD PTR _ptagPropertyItem$[ebp], 0
  00051	75 07		 jne	 SHORT $LN2@InsertGame
  00053	32 c0		 xor	 al, al
  00055	e9 3f 01 00 00	 jmp	 $LN1@InsertGame
$LN2@InsertGame:

; 418  : 
; 419  : 	//查找现存
; 420  : 	CGamePropertyItem * pGamePropertyItem=NULL;

  0005a	c7 45 e8 00 00
	00 00		 mov	 DWORD PTR _pGamePropertyItem$[ebp], 0

; 421  : 
; 422  : 	//获取子项
; 423  : 	if (m_GamePropertyItemMap.Lookup(ptagPropertyItem->dwPropertyID,pGamePropertyItem)==FALSE)

  00061	8d 45 e8	 lea	 eax, DWORD PTR _pGamePropertyItem$[ebp]
  00064	50		 push	 eax
  00065	8b 4d 08	 mov	 ecx, DWORD PTR _ptagPropertyItem$[ebp]
  00068	8b 11		 mov	 edx, DWORD PTR [ecx]
  0006a	52		 push	 edx
  0006b	8b 4d ec	 mov	 ecx, DWORD PTR _this$[ebp]
  0006e	83 c1 3c	 add	 ecx, 60			; 0000003cH
  00071	e8 00 00 00 00	 call	 ?Lookup@?$CMap@KKPAVCGamePropertyItem@NGamePropertyListManager@@AAPAV12@@@QBEHKAAPAVCGamePropertyItem@NGamePropertyListManager@@@Z ; CMap<unsigned long,unsigned long,NGamePropertyListManager::CGamePropertyItem *,NGamePropertyListManager::CGamePropertyItem * &>::Lookup
  00076	85 c0		 test	 eax, eax
  00078	0f 85 eb 00 00
	00		 jne	 $LN3@InsertGame

; 424  : 	{
; 425  : 		//创建对象
; 426  : 		try

  0007e	c7 45 fc 00 00
	00 00		 mov	 DWORD PTR __$EHRec$[ebp+12], 0

; 427  : 		{
; 428  : 			INT_PTR nStroeCount=m_GamePropertyItemArray.GetCount();

  00085	8b 4d ec	 mov	 ecx, DWORD PTR _this$[ebp]
  00088	81 c1 9c 00 00
	00		 add	 ecx, 156		; 0000009cH
  0008e	e8 00 00 00 00	 call	 ?GetCount@?$CWHArray@PAVCGamePropertyItem@NGamePropertyListManager@@ABQAV12@@@QBEHXZ ; CWHArray<NGamePropertyListManager::CGamePropertyItem *,NGamePropertyListManager::CGamePropertyItem * const &>::GetCount
  00093	89 45 94	 mov	 DWORD PTR tv152[ebp], eax
  00096	8b 45 94	 mov	 eax, DWORD PTR tv152[ebp]
  00099	89 45 e4	 mov	 DWORD PTR _nStroeCount$5[ebp], eax

; 429  : 			if (nStroeCount>0)

  0009c	83 7d e4 00	 cmp	 DWORD PTR _nStroeCount$5[ebp], 0
  000a0	7e 39		 jle	 SHORT $LN5@InsertGame

; 430  : 			{
; 431  : 				pGamePropertyItem=m_GamePropertyItemArray[nStroeCount-1];

  000a2	8b 45 e4	 mov	 eax, DWORD PTR _nStroeCount$5[ebp]
  000a5	83 e8 01	 sub	 eax, 1
  000a8	50		 push	 eax
  000a9	8b 4d ec	 mov	 ecx, DWORD PTR _this$[ebp]
  000ac	81 c1 9c 00 00
	00		 add	 ecx, 156		; 0000009cH
  000b2	e8 00 00 00 00	 call	 ??A?$CWHArray@PAVCGamePropertyItem@NGamePropertyListManager@@ABQAV12@@@QAEAAPAVCGamePropertyItem@NGamePropertyListManager@@H@Z ; CWHArray<NGamePropertyListManager::CGamePropertyItem *,NGamePropertyListManager::CGamePropertyItem * const &>::operator[]
  000b7	89 45 94	 mov	 DWORD PTR tv153[ebp], eax
  000ba	8b 4d 94	 mov	 ecx, DWORD PTR tv153[ebp]
  000bd	8b 11		 mov	 edx, DWORD PTR [ecx]
  000bf	89 55 e8	 mov	 DWORD PTR _pGamePropertyItem$[ebp], edx

; 432  : 				m_GamePropertyItemArray.RemoveAt(nStroeCount-1);

  000c2	6a 01		 push	 1
  000c4	8b 45 e4	 mov	 eax, DWORD PTR _nStroeCount$5[ebp]
  000c7	83 e8 01	 sub	 eax, 1
  000ca	50		 push	 eax
  000cb	8b 4d ec	 mov	 ecx, DWORD PTR _this$[ebp]
  000ce	81 c1 9c 00 00
	00		 add	 ecx, 156		; 0000009cH
  000d4	e8 00 00 00 00	 call	 ?RemoveAt@?$CWHArray@PAVCGamePropertyItem@NGamePropertyListManager@@ABQAV12@@@QAEXHH@Z ; CWHArray<NGamePropertyListManager::CGamePropertyItem *,NGamePropertyListManager::CGamePropertyItem * const &>::RemoveAt

; 433  : 			}
; 434  : 			else

  000d9	eb 54		 jmp	 SHORT $LN6@InsertGame
$LN5@InsertGame:

; 435  : 			{
; 436  : 				pGamePropertyItem=new CGamePropertyItem;

  000db	68 00 01 00 00	 push	 256			; 00000100H
  000e0	e8 00 00 00 00	 call	 ??2@YAPAXI@Z		; operator new
  000e5	83 c4 04	 add	 esp, 4
  000e8	89 45 94	 mov	 DWORD PTR tv154[ebp], eax
  000eb	8b 45 94	 mov	 eax, DWORD PTR tv154[ebp]
  000ee	89 45 9c	 mov	 DWORD PTR $T3[ebp], eax
  000f1	c6 45 fc 01	 mov	 BYTE PTR __$EHRec$[ebp+12], 1
  000f5	83 7d 9c 00	 cmp	 DWORD PTR $T3[ebp], 0
  000f9	74 13		 je	 SHORT $LN10@InsertGame
  000fb	8b 4d 9c	 mov	 ecx, DWORD PTR $T3[ebp]
  000fe	e8 00 00 00 00	 call	 ??0CGamePropertyItem@NGamePropertyListManager@@QAE@XZ ; NGamePropertyListManager::CGamePropertyItem::CGamePropertyItem
  00103	89 45 90	 mov	 DWORD PTR tv157[ebp], eax
  00106	8b 4d 90	 mov	 ecx, DWORD PTR tv157[ebp]
  00109	89 4d 8c	 mov	 DWORD PTR tv136[ebp], ecx
  0010c	eb 07		 jmp	 SHORT $LN11@InsertGame
$LN10@InsertGame:
  0010e	c7 45 8c 00 00
	00 00		 mov	 DWORD PTR tv136[ebp], 0
$LN11@InsertGame:
  00115	8b 55 8c	 mov	 edx, DWORD PTR tv136[ebp]
  00118	89 55 a0	 mov	 DWORD PTR $T4[ebp], edx
  0011b	c6 45 fc 00	 mov	 BYTE PTR __$EHRec$[ebp+12], 0
  0011f	8b 45 a0	 mov	 eax, DWORD PTR $T4[ebp]
  00122	89 45 e8	 mov	 DWORD PTR _pGamePropertyItem$[ebp], eax

; 437  : 				if (pGamePropertyItem==NULL) return false;

  00125	83 7d e8 00	 cmp	 DWORD PTR _pGamePropertyItem$[ebp], 0
  00129	75 04		 jne	 SHORT $LN6@InsertGame
  0012b	32 c0		 xor	 al, al
  0012d	eb 6a		 jmp	 SHORT $LN1@InsertGame
$LN6@InsertGame:

; 438  : 			}
; 439  : 		}

  0012f	eb 10		 jmp	 SHORT $LN12@InsertGame
__catch$?InsertGamePropertyItem@CGamePropertyListManager@NGamePropertyListManager@@QAE_NPAUtagPropertyItem@@@Z$0:

; 440  : 		catch (...) { return false; }

  00131	c6 45 9b 00	 mov	 BYTE PTR $T2[ebp], 0
  00135	b8 00 00 00 00	 mov	 eax, $LN16@InsertGame
  0013a	c3		 ret	 0
  0013b	b8 00 00 00 00	 mov	 eax, $LN12@InsertGame
  00140	c3		 ret	 0
$LN12@InsertGame:
  00141	c7 45 fc ff ff
	ff ff		 mov	 DWORD PTR __$EHRec$[ebp+12], -1
  00148	eb 0c		 jmp	 SHORT $LN15@InsertGame
$LN16@InsertGame:
  0014a	c7 45 fc ff ff
	ff ff		 mov	 DWORD PTR __$EHRec$[ebp+12], -1
  00151	8a 45 9b	 mov	 al, BYTE PTR $T2[ebp]
  00154	eb 43		 jmp	 SHORT $LN1@InsertGame
$LN15@InsertGame:

; 441  : 
; 442  : 		//设置变量
; 443  : 		ZeroMemory(pGamePropertyItem,sizeof(CGamePropertyItem));

  00156	68 00 01 00 00	 push	 256			; 00000100H
  0015b	6a 00		 push	 0
  0015d	8b 45 e8	 mov	 eax, DWORD PTR _pGamePropertyItem$[ebp]
  00160	50		 push	 eax
  00161	e8 00 00 00 00	 call	 _memset
  00166	83 c4 0c	 add	 esp, 12			; 0000000cH
$LN3@InsertGame:

; 444  : 	}
; 445  : 
; 446  : 
; 447  : 	//设置数据
; 448  : 	CopyMemory(&pGamePropertyItem->m_PropertyItem,ptagPropertyItem,sizeof(tagPropertyItem));

  00169	68 ff 00 00 00	 push	 255			; 000000ffH
  0016e	8b 45 08	 mov	 eax, DWORD PTR _ptagPropertyItem$[ebp]
  00171	50		 push	 eax
  00172	8b 4d e8	 mov	 ecx, DWORD PTR _pGamePropertyItem$[ebp]
  00175	83 c1 01	 add	 ecx, 1
  00178	51		 push	 ecx
  00179	e8 00 00 00 00	 call	 _memcpy
  0017e	83 c4 0c	 add	 esp, 12			; 0000000cH

; 449  : 
; 450  : 	//设置索引
; 451  : 	m_GamePropertyItemMap[ptagPropertyItem->dwPropertyID]=pGamePropertyItem;

  00181	8b 45 08	 mov	 eax, DWORD PTR _ptagPropertyItem$[ebp]
  00184	8b 08		 mov	 ecx, DWORD PTR [eax]
  00186	51		 push	 ecx
  00187	8b 4d ec	 mov	 ecx, DWORD PTR _this$[ebp]
  0018a	83 c1 3c	 add	 ecx, 60			; 0000003cH
  0018d	e8 00 00 00 00	 call	 ??A?$CMap@KKPAVCGamePropertyItem@NGamePropertyListManager@@AAPAV12@@@QAEAAPAVCGamePropertyItem@NGamePropertyListManager@@K@Z ; CMap<unsigned long,unsigned long,NGamePropertyListManager::CGamePropertyItem *,NGamePropertyListManager::CGamePropertyItem * &>::operator[]
  00192	8b 55 e8	 mov	 edx, DWORD PTR _pGamePropertyItem$[ebp]
  00195	89 10		 mov	 DWORD PTR [eax], edx

; 452  : 
; 453  : 	return true;

  00197	b0 01		 mov	 al, 1
$LN1@InsertGame:

; 454  : }

  00199	8b 4d f4	 mov	 ecx, DWORD PTR __$EHRec$[ebp+4]
  0019c	64 89 0d 00 00
	00 00		 mov	 DWORD PTR fs:0, ecx
  001a3	59		 pop	 ecx
  001a4	5f		 pop	 edi
  001a5	5e		 pop	 esi
  001a6	5b		 pop	 ebx
  001a7	8b e5		 mov	 esp, ebp
  001a9	5d		 pop	 ebp
  001aa	c2 04 00	 ret	 4
_TEXT	ENDS
;	COMDAT text$x
text$x	SEGMENT
__unwindfunclet$?InsertGamePropertyItem@CGamePropertyListManager@NGamePropertyListManager@@QAE_NPAUtagPropertyItem@@@Z$2:
  00000	68 00 01 00 00	 push	 256			; 00000100H
  00005	8b 45 9c	 mov	 eax, DWORD PTR $T3[ebp]
  00008	50		 push	 eax
  00009	e8 00 00 00 00	 call	 ??3@YAXPAXI@Z		; operator delete
  0000e	83 c4 08	 add	 esp, 8
  00011	c3		 ret	 0
__ehhandler$?InsertGamePropertyItem@CGamePropertyListManager@NGamePropertyListManager@@QAE_NPAUtagPropertyItem@@@Z:
  00012	8b 54 24 08	 mov	 edx, DWORD PTR [esp+8]
  00016	8d 42 0c	 lea	 eax, DWORD PTR [edx+12]
  00019	8b 4a 88	 mov	 ecx, DWORD PTR [edx-120]
  0001c	33 c8		 xor	 ecx, eax
  0001e	e8 00 00 00 00	 call	 @__security_check_cookie@4
  00023	b8 00 00 00 00	 mov	 eax, OFFSET __ehfuncinfo$?InsertGamePropertyItem@CGamePropertyListManager@NGamePropertyListManager@@QAE_NPAUtagPropertyItem@@@Z
  00028	e9 00 00 00 00	 jmp	 ___CxxFrameHandler3
text$x	ENDS
?InsertGamePropertyItem@CGamePropertyListManager@NGamePropertyListManager@@QAE_NPAUtagPropertyItem@@@Z ENDP ; NGamePropertyListManager::CGamePropertyListManager::InsertGamePropertyItem
; Function compile flags: /Odtp /ZI
; File g:\网狐\happygamewh\服务端\系统模块\服务器组件\登录服务器\gamepropertylistmanager.cpp
;	COMDAT ?InsertGamePropertyRelatItem@CGamePropertyListManager@NGamePropertyListManager@@QAE_NPAUtagPropertyRelatItem@@@Z
_TEXT	SEGMENT
tv139 = -128						; size = 4
tv158 = -124						; size = 4
tv155 = -120						; size = 4
$T2 = -113						; size = 1
$T3 = -112						; size = 4
$T4 = -108						; size = 4
_Position$ = -40					; size = 4
_dwCurrKey$ = -36					; size = 4
_dwkey$ = -32						; size = 4
_bFinder$ = -25						; size = 1
_pPropertyRelatItem$ = -24				; size = 4
_this$ = -20						; size = 4
__$EHRec$ = -16						; size = 16
_ptagPropertyRelatItem$ = 8				; size = 4
?InsertGamePropertyRelatItem@CGamePropertyListManager@NGamePropertyListManager@@QAE_NPAUtagPropertyRelatItem@@@Z PROC ; NGamePropertyListManager::CGamePropertyListManager::InsertGamePropertyRelatItem, COMDAT
; _this$ = ecx

; 352  : {

  00000	55		 push	 ebp
  00001	8b ec		 mov	 ebp, esp
  00003	6a ff		 push	 -1
  00005	68 00 00 00 00	 push	 __ehhandler$?InsertGamePropertyRelatItem@CGamePropertyListManager@NGamePropertyListManager@@QAE_NPAUtagPropertyRelatItem@@@Z
  0000a	64 a1 00 00 00
	00		 mov	 eax, DWORD PTR fs:0
  00010	50		 push	 eax
  00011	51		 push	 ecx
  00012	83 ec 70	 sub	 esp, 112		; 00000070H
  00015	53		 push	 ebx
  00016	56		 push	 esi
  00017	57		 push	 edi
  00018	a1 00 00 00 00	 mov	 eax, DWORD PTR ___security_cookie
  0001d	33 c5		 xor	 eax, ebp
  0001f	50		 push	 eax
  00020	8d 45 f4	 lea	 eax, DWORD PTR __$EHRec$[ebp+4]
  00023	64 a3 00 00 00
	00		 mov	 DWORD PTR fs:0, eax
  00029	89 65 f0	 mov	 DWORD PTR __$EHRec$[ebp], esp
  0002c	89 4d ec	 mov	 DWORD PTR _this$[ebp], ecx

; 353  : 	//效验参数
; 354  : 	ASSERT(ptagPropertyRelatItem!=NULL);

  0002f	83 7d 08 00	 cmp	 DWORD PTR _ptagPropertyRelatItem$[ebp], 0
  00033	75 18		 jne	 SHORT $LN15@InsertGame
  00035	a1 00 00 00 00	 mov	 eax, DWORD PTR ?__LINE__Var@?0??InsertGamePropertyRelatItem@CGamePropertyListManager@NGamePropertyListManager@@QAE_NPAUtagPropertyRelatItem@@@Z@4JA
  0003a	83 c0 02	 add	 eax, 2
  0003d	50		 push	 eax
  0003e	68 00 00 00 00	 push	 OFFSET ??_C@_0FG@GCELCLHM@g?3?2?M?x?$LK?$PM?2happygamewh?2?$LH?$PO?N?q?$LG?K?2?O?$LF?M?$LD@
  00043	e8 00 00 00 00	 call	 ?AfxAssertFailedLine@@YGHPBDH@Z ; AfxAssertFailedLine
  00048	85 c0		 test	 eax, eax
  0004a	74 01		 je	 SHORT $LN15@InsertGame
  0004c	cc		 int	 3
$LN15@InsertGame:

; 355  : 	if (ptagPropertyRelatItem==NULL) return false;

  0004d	83 7d 08 00	 cmp	 DWORD PTR _ptagPropertyRelatItem$[ebp], 0
  00051	75 07		 jne	 SHORT $LN4@InsertGame
  00053	32 c0		 xor	 al, al
  00055	e9 6d 01 00 00	 jmp	 $LN1@InsertGame
$LN4@InsertGame:

; 356  : 
; 357  : 	//查找现存
; 358  : 	CGamePropertyRelatItem * pPropertyRelatItem=NULL;

  0005a	c7 45 e8 00 00
	00 00		 mov	 DWORD PTR _pPropertyRelatItem$[ebp], 0

; 359  : 
; 360  : 	bool bFinder = false;

  00061	c6 45 e7 00	 mov	 BYTE PTR _bFinder$[ebp], 0

; 361  : 	DWORD  dwkey= 0;

  00065	c7 45 e0 00 00
	00 00		 mov	 DWORD PTR _dwkey$[ebp], 0

; 362  : 	DWORD  dwCurrKey =0;

  0006c	c7 45 dc 00 00
	00 00		 mov	 DWORD PTR _dwCurrKey$[ebp], 0

; 363  : 	POSITION Position=NULL;

  00073	c7 45 d8 00 00
	00 00		 mov	 DWORD PTR _Position$[ebp], 0
$LN2@InsertGame:

; 364  : 	while (true)

  0007a	b8 01 00 00 00	 mov	 eax, 1
  0007f	85 c0		 test	 eax, eax
  00081	74 6d		 je	 SHORT $LN3@InsertGame

; 365  : 	{
; 366  : 		if (Position==NULL) Position=m_GamePropertyRelatItemMap.GetStartPosition();

  00083	83 7d d8 00	 cmp	 DWORD PTR _Position$[ebp], 0
  00087	75 0e		 jne	 SHORT $LN5@InsertGame
  00089	8b 4d ec	 mov	 ecx, DWORD PTR _this$[ebp]
  0008c	83 c1 20	 add	 ecx, 32			; 00000020H
  0008f	e8 00 00 00 00	 call	 ?GetStartPosition@?$CMap@KKPAVCGamePropertyRelatItem@NGamePropertyListManager@@AAPAV12@@@QBEPAU__POSITION@@XZ ; CMap<unsigned long,unsigned long,NGamePropertyListManager::CGamePropertyRelatItem *,NGamePropertyListManager::CGamePropertyRelatItem * &>::GetStartPosition
  00094	89 45 d8	 mov	 DWORD PTR _Position$[ebp], eax
$LN5@InsertGame:

; 367  : 		if (Position!=NULL) m_GamePropertyRelatItemMap.GetNextAssoc(Position,dwkey,pPropertyRelatItem);

  00097	83 7d d8 00	 cmp	 DWORD PTR _Position$[ebp], 0
  0009b	74 17		 je	 SHORT $LN6@InsertGame
  0009d	8d 45 e8	 lea	 eax, DWORD PTR _pPropertyRelatItem$[ebp]
  000a0	50		 push	 eax
  000a1	8d 4d e0	 lea	 ecx, DWORD PTR _dwkey$[ebp]
  000a4	51		 push	 ecx
  000a5	8d 55 d8	 lea	 edx, DWORD PTR _Position$[ebp]
  000a8	52		 push	 edx
  000a9	8b 4d ec	 mov	 ecx, DWORD PTR _this$[ebp]
  000ac	83 c1 20	 add	 ecx, 32			; 00000020H
  000af	e8 00 00 00 00	 call	 ?GetNextAssoc@?$CMap@KKPAVCGamePropertyRelatItem@NGamePropertyListManager@@AAPAV12@@@QBEXAAPAU__POSITION@@AAKAAPAVCGamePropertyRelatItem@NGamePropertyListManager@@@Z ; CMap<unsigned long,unsigned long,NGamePropertyListManager::CGamePropertyRelatItem *,NGamePropertyListManager::CGamePropertyRelatItem * &>::GetNextAssoc
$LN6@InsertGame:

; 368  : 
; 369  : 		if (pPropertyRelatItem==NULL) break;

  000b4	83 7d e8 00	 cmp	 DWORD PTR _pPropertyRelatItem$[ebp], 0
  000b8	75 02		 jne	 SHORT $LN7@InsertGame
  000ba	eb 34		 jmp	 SHORT $LN3@InsertGame
$LN7@InsertGame:

; 370  : 
; 371  : 		if (pPropertyRelatItem->m_PropertyRelatItem.dwPropertyID == ptagPropertyRelatItem->dwPropertyID
; 372  : 			&& pPropertyRelatItem->m_PropertyRelatItem.dwTypeID == ptagPropertyRelatItem->dwTypeID)

  000bc	8b 45 e8	 mov	 eax, DWORD PTR _pPropertyRelatItem$[ebp]
  000bf	8b 4d 08	 mov	 ecx, DWORD PTR _ptagPropertyRelatItem$[ebp]
  000c2	8b 50 01	 mov	 edx, DWORD PTR [eax+1]
  000c5	3b 11		 cmp	 edx, DWORD PTR [ecx]
  000c7	75 14		 jne	 SHORT $LN8@InsertGame
  000c9	8b 45 e8	 mov	 eax, DWORD PTR _pPropertyRelatItem$[ebp]
  000cc	8b 4d 08	 mov	 ecx, DWORD PTR _ptagPropertyRelatItem$[ebp]
  000cf	8b 50 05	 mov	 edx, DWORD PTR [eax+5]
  000d2	3b 51 04	 cmp	 edx, DWORD PTR [ecx+4]
  000d5	75 06		 jne	 SHORT $LN8@InsertGame

; 373  : 		{
; 374  : 			bFinder = true;

  000d7	c6 45 e7 01	 mov	 BYTE PTR _bFinder$[ebp], 1

; 375  : 			break;

  000db	eb 13		 jmp	 SHORT $LN3@InsertGame
$LN8@InsertGame:

; 376  : 		}
; 377  : 		dwCurrKey++;

  000dd	8b 45 dc	 mov	 eax, DWORD PTR _dwCurrKey$[ebp]
  000e0	83 c0 01	 add	 eax, 1
  000e3	89 45 dc	 mov	 DWORD PTR _dwCurrKey$[ebp], eax

; 378  : 
; 379  : 		if (Position==NULL) break;

  000e6	83 7d d8 00	 cmp	 DWORD PTR _Position$[ebp], 0
  000ea	75 02		 jne	 SHORT $LN9@InsertGame
  000ec	eb 02		 jmp	 SHORT $LN3@InsertGame
$LN9@InsertGame:

; 380  : 	}

  000ee	eb 8a		 jmp	 SHORT $LN2@InsertGame
$LN3@InsertGame:

; 381  : 
; 382  : 	//获取子项
; 383  : 	if (bFinder == false)

  000f0	0f b6 45 e7	 movzx	 eax, BYTE PTR _bFinder$[ebp]
  000f4	85 c0		 test	 eax, eax
  000f6	0f 85 9a 00 00
	00		 jne	 $LN10@InsertGame

; 384  : 	{
; 385  : 		//创建对象
; 386  : 		try

  000fc	c7 45 fc 00 00
	00 00		 mov	 DWORD PTR __$EHRec$[ebp+12], 0

; 387  : 		{
; 388  : 			pPropertyRelatItem=new CGamePropertyRelatItem;

  00103	6a 09		 push	 9
  00105	e8 00 00 00 00	 call	 ??2@YAPAXI@Z		; operator new
  0010a	83 c4 04	 add	 esp, 4
  0010d	89 45 88	 mov	 DWORD PTR tv155[ebp], eax
  00110	8b 45 88	 mov	 eax, DWORD PTR tv155[ebp]
  00113	89 45 90	 mov	 DWORD PTR $T3[ebp], eax
  00116	c6 45 fc 01	 mov	 BYTE PTR __$EHRec$[ebp+12], 1
  0011a	83 7d 90 00	 cmp	 DWORD PTR $T3[ebp], 0
  0011e	74 13		 je	 SHORT $LN16@InsertGame
  00120	8b 4d 90	 mov	 ecx, DWORD PTR $T3[ebp]
  00123	e8 00 00 00 00	 call	 ??0CGamePropertyRelatItem@NGamePropertyListManager@@QAE@XZ ; NGamePropertyListManager::CGamePropertyRelatItem::CGamePropertyRelatItem
  00128	89 45 84	 mov	 DWORD PTR tv158[ebp], eax
  0012b	8b 4d 84	 mov	 ecx, DWORD PTR tv158[ebp]
  0012e	89 4d 80	 mov	 DWORD PTR tv139[ebp], ecx
  00131	eb 07		 jmp	 SHORT $LN17@InsertGame
$LN16@InsertGame:
  00133	c7 45 80 00 00
	00 00		 mov	 DWORD PTR tv139[ebp], 0
$LN17@InsertGame:
  0013a	8b 55 80	 mov	 edx, DWORD PTR tv139[ebp]
  0013d	89 55 94	 mov	 DWORD PTR $T4[ebp], edx
  00140	c6 45 fc 00	 mov	 BYTE PTR __$EHRec$[ebp+12], 0
  00144	8b 45 94	 mov	 eax, DWORD PTR $T4[ebp]
  00147	89 45 e8	 mov	 DWORD PTR _pPropertyRelatItem$[ebp], eax

; 389  : 			if (pPropertyRelatItem==NULL) return false;

  0014a	83 7d e8 00	 cmp	 DWORD PTR _pPropertyRelatItem$[ebp], 0
  0014e	75 04		 jne	 SHORT $LN13@InsertGame
  00150	32 c0		 xor	 al, al
  00152	eb 73		 jmp	 SHORT $LN1@InsertGame
$LN13@InsertGame:

; 390  : 		}

  00154	eb 10		 jmp	 SHORT $LN18@InsertGame
__catch$?InsertGamePropertyRelatItem@CGamePropertyListManager@NGamePropertyListManager@@QAE_NPAUtagPropertyRelatItem@@@Z$0:

; 391  : 		catch (...) { return false; }

  00156	c6 45 8f 00	 mov	 BYTE PTR $T2[ebp], 0
  0015a	b8 00 00 00 00	 mov	 eax, $LN22@InsertGame
  0015f	c3		 ret	 0
  00160	b8 00 00 00 00	 mov	 eax, $LN18@InsertGame
  00165	c3		 ret	 0
$LN18@InsertGame:
  00166	c7 45 fc ff ff
	ff ff		 mov	 DWORD PTR __$EHRec$[ebp+12], -1
  0016d	eb 0c		 jmp	 SHORT $LN21@InsertGame
$LN22@InsertGame:
  0016f	c7 45 fc ff ff
	ff ff		 mov	 DWORD PTR __$EHRec$[ebp+12], -1
  00176	8a 45 8f	 mov	 al, BYTE PTR $T2[ebp]
  00179	eb 4c		 jmp	 SHORT $LN1@InsertGame
$LN21@InsertGame:

; 392  : 
; 393  : 		//设置变量
; 394  : 		ZeroMemory(pPropertyRelatItem,sizeof(CGamePropertyRelatItem));

  0017b	6a 09		 push	 9
  0017d	6a 00		 push	 0
  0017f	8b 45 e8	 mov	 eax, DWORD PTR _pPropertyRelatItem$[ebp]
  00182	50		 push	 eax
  00183	e8 00 00 00 00	 call	 _memset
  00188	83 c4 0c	 add	 esp, 12			; 0000000cH

; 395  : 		dwCurrKey++;

  0018b	8b 45 dc	 mov	 eax, DWORD PTR _dwCurrKey$[ebp]
  0018e	83 c0 01	 add	 eax, 1
  00191	89 45 dc	 mov	 DWORD PTR _dwCurrKey$[ebp], eax

; 396  : 	}
; 397  : 	else

  00194	eb 06		 jmp	 SHORT $LN11@InsertGame
$LN10@InsertGame:

; 398  : 	{
; 399  : 		dwCurrKey = dwkey;

  00196	8b 45 e0	 mov	 eax, DWORD PTR _dwkey$[ebp]
  00199	89 45 dc	 mov	 DWORD PTR _dwCurrKey$[ebp], eax
$LN11@InsertGame:

; 400  : 	}
; 401  : 
; 402  : 	//设置数据
; 403  : 	CopyMemory(&pPropertyRelatItem->m_PropertyRelatItem,ptagPropertyRelatItem,sizeof(tagPropertyRelatItem));

  0019c	6a 08		 push	 8
  0019e	8b 45 08	 mov	 eax, DWORD PTR _ptagPropertyRelatItem$[ebp]
  001a1	50		 push	 eax
  001a2	8b 4d e8	 mov	 ecx, DWORD PTR _pPropertyRelatItem$[ebp]
  001a5	83 c1 01	 add	 ecx, 1
  001a8	51		 push	 ecx
  001a9	e8 00 00 00 00	 call	 _memcpy
  001ae	83 c4 0c	 add	 esp, 12			; 0000000cH

; 404  : 
; 405  : 	//设置索引
; 406  : 	m_GamePropertyRelatItemMap[dwCurrKey]=pPropertyRelatItem;

  001b1	8b 45 dc	 mov	 eax, DWORD PTR _dwCurrKey$[ebp]
  001b4	50		 push	 eax
  001b5	8b 4d ec	 mov	 ecx, DWORD PTR _this$[ebp]
  001b8	83 c1 20	 add	 ecx, 32			; 00000020H
  001bb	e8 00 00 00 00	 call	 ??A?$CMap@KKPAVCGamePropertyRelatItem@NGamePropertyListManager@@AAPAV12@@@QAEAAPAVCGamePropertyRelatItem@NGamePropertyListManager@@K@Z ; CMap<unsigned long,unsigned long,NGamePropertyListManager::CGamePropertyRelatItem *,NGamePropertyListManager::CGamePropertyRelatItem * &>::operator[]
  001c0	8b 4d e8	 mov	 ecx, DWORD PTR _pPropertyRelatItem$[ebp]
  001c3	89 08		 mov	 DWORD PTR [eax], ecx

; 407  : 
; 408  : 	return true;

  001c5	b0 01		 mov	 al, 1
$LN1@InsertGame:

; 409  : }

  001c7	8b 4d f4	 mov	 ecx, DWORD PTR __$EHRec$[ebp+4]
  001ca	64 89 0d 00 00
	00 00		 mov	 DWORD PTR fs:0, ecx
  001d1	59		 pop	 ecx
  001d2	5f		 pop	 edi
  001d3	5e		 pop	 esi
  001d4	5b		 pop	 ebx
  001d5	8b e5		 mov	 esp, ebp
  001d7	5d		 pop	 ebp
  001d8	c2 04 00	 ret	 4
_TEXT	ENDS
;	COMDAT text$x
text$x	SEGMENT
__unwindfunclet$?InsertGamePropertyRelatItem@CGamePropertyListManager@NGamePropertyListManager@@QAE_NPAUtagPropertyRelatItem@@@Z$2:
  00000	6a 09		 push	 9
  00002	8b 45 90	 mov	 eax, DWORD PTR $T3[ebp]
  00005	50		 push	 eax
  00006	e8 00 00 00 00	 call	 ??3@YAXPAXI@Z		; operator delete
  0000b	83 c4 08	 add	 esp, 8
  0000e	c3		 ret	 0
__ehhandler$?InsertGamePropertyRelatItem@CGamePropertyListManager@NGamePropertyListManager@@QAE_NPAUtagPropertyRelatItem@@@Z:
  0000f	8b 54 24 08	 mov	 edx, DWORD PTR [esp+8]
  00013	8d 42 0c	 lea	 eax, DWORD PTR [edx+12]
  00016	8b 8a 7c ff ff
	ff		 mov	 ecx, DWORD PTR [edx-132]
  0001c	33 c8		 xor	 ecx, eax
  0001e	e8 00 00 00 00	 call	 @__security_check_cookie@4
  00023	b8 00 00 00 00	 mov	 eax, OFFSET __ehfuncinfo$?InsertGamePropertyRelatItem@CGamePropertyListManager@NGamePropertyListManager@@QAE_NPAUtagPropertyRelatItem@@@Z
  00028	e9 00 00 00 00	 jmp	 ___CxxFrameHandler3
text$x	ENDS
?InsertGamePropertyRelatItem@CGamePropertyListManager@NGamePropertyListManager@@QAE_NPAUtagPropertyRelatItem@@@Z ENDP ; NGamePropertyListManager::CGamePropertyListManager::InsertGamePropertyRelatItem
; Function compile flags: /Odtp /ZI
; File g:\网狐\happygamewh\服务端\系统模块\服务器组件\登录服务器\gamepropertylistmanager.cpp
;	COMDAT ?InsertGamePropertyTypeItem@CGamePropertyListManager@NGamePropertyListManager@@QAE_NPAUtagPropertyTypeItem@@@Z
_TEXT	SEGMENT
tv136 = -116						; size = 4
tv157 = -112						; size = 4
tv154 = -108						; size = 4
tv153 = -108						; size = 4
tv152 = -108						; size = 4
$T2 = -101						; size = 1
$T3 = -100						; size = 4
$T4 = -96						; size = 4
_nStroeCount$5 = -28					; size = 4
_pGamePropertyTypeItem$ = -24				; size = 4
_this$ = -20						; size = 4
__$EHRec$ = -16						; size = 16
_ptagPropertyTypeItem$ = 8				; size = 4
?InsertGamePropertyTypeItem@CGamePropertyListManager@NGamePropertyListManager@@QAE_NPAUtagPropertyTypeItem@@@Z PROC ; NGamePropertyListManager::CGamePropertyListManager::InsertGamePropertyTypeItem, COMDAT
; _this$ = ecx

; 311  : {

  00000	55		 push	 ebp
  00001	8b ec		 mov	 ebp, esp
  00003	6a ff		 push	 -1
  00005	68 00 00 00 00	 push	 __ehhandler$?InsertGamePropertyTypeItem@CGamePropertyListManager@NGamePropertyListManager@@QAE_NPAUtagPropertyTypeItem@@@Z
  0000a	64 a1 00 00 00
	00		 mov	 eax, DWORD PTR fs:0
  00010	50		 push	 eax
  00011	51		 push	 ecx
  00012	83 ec 64	 sub	 esp, 100		; 00000064H
  00015	53		 push	 ebx
  00016	56		 push	 esi
  00017	57		 push	 edi
  00018	a1 00 00 00 00	 mov	 eax, DWORD PTR ___security_cookie
  0001d	33 c5		 xor	 eax, ebp
  0001f	50		 push	 eax
  00020	8d 45 f4	 lea	 eax, DWORD PTR __$EHRec$[ebp+4]
  00023	64 a3 00 00 00
	00		 mov	 DWORD PTR fs:0, eax
  00029	89 65 f0	 mov	 DWORD PTR __$EHRec$[ebp], esp
  0002c	89 4d ec	 mov	 DWORD PTR _this$[ebp], ecx

; 312  : 	//效验参数
; 313  : 	ASSERT(ptagPropertyTypeItem!=NULL);

  0002f	83 7d 08 00	 cmp	 DWORD PTR _ptagPropertyTypeItem$[ebp], 0
  00033	75 18		 jne	 SHORT $LN9@InsertGame
  00035	a1 00 00 00 00	 mov	 eax, DWORD PTR ?__LINE__Var@?0??InsertGamePropertyTypeItem@CGamePropertyListManager@NGamePropertyListManager@@QAE_NPAUtagPropertyTypeItem@@@Z@4JA
  0003a	83 c0 02	 add	 eax, 2
  0003d	50		 push	 eax
  0003e	68 00 00 00 00	 push	 OFFSET ??_C@_0FG@GCELCLHM@g?3?2?M?x?$LK?$PM?2happygamewh?2?$LH?$PO?N?q?$LG?K?2?O?$LF?M?$LD@
  00043	e8 00 00 00 00	 call	 ?AfxAssertFailedLine@@YGHPBDH@Z ; AfxAssertFailedLine
  00048	85 c0		 test	 eax, eax
  0004a	74 01		 je	 SHORT $LN9@InsertGame
  0004c	cc		 int	 3
$LN9@InsertGame:

; 314  : 	if (ptagPropertyTypeItem==NULL) return false;

  0004d	83 7d 08 00	 cmp	 DWORD PTR _ptagPropertyTypeItem$[ebp], 0
  00051	75 07		 jne	 SHORT $LN2@InsertGame
  00053	32 c0		 xor	 al, al
  00055	e9 2d 01 00 00	 jmp	 $LN1@InsertGame
$LN2@InsertGame:

; 315  : 
; 316  : 	//查找现存
; 317  : 	CGamePropertyTypeItem * pGamePropertyTypeItem=NULL;

  0005a	c7 45 e8 00 00
	00 00		 mov	 DWORD PTR _pGamePropertyTypeItem$[ebp], 0

; 318  : 	if (m_GamePropertyTypeItemMap.Lookup(ptagPropertyTypeItem->dwTypeID,pGamePropertyTypeItem)==FALSE)

  00061	8d 45 e8	 lea	 eax, DWORD PTR _pGamePropertyTypeItem$[ebp]
  00064	50		 push	 eax
  00065	8b 4d 08	 mov	 ecx, DWORD PTR _ptagPropertyTypeItem$[ebp]
  00068	8b 11		 mov	 edx, DWORD PTR [ecx]
  0006a	52		 push	 edx
  0006b	8b 4d ec	 mov	 ecx, DWORD PTR _this$[ebp]
  0006e	83 c1 04	 add	 ecx, 4
  00071	e8 00 00 00 00	 call	 ?Lookup@?$CMap@KKPAVCGamePropertyTypeItem@NGamePropertyListManager@@AAPAV12@@@QBEHKAAPAVCGamePropertyTypeItem@NGamePropertyListManager@@@Z ; CMap<unsigned long,unsigned long,NGamePropertyListManager::CGamePropertyTypeItem *,NGamePropertyListManager::CGamePropertyTypeItem * &>::Lookup
  00076	85 c0		 test	 eax, eax
  00078	0f 85 dc 00 00
	00		 jne	 $LN3@InsertGame

; 319  : 	{
; 320  : 		//创建对象
; 321  : 		try

  0007e	c7 45 fc 00 00
	00 00		 mov	 DWORD PTR __$EHRec$[ebp+12], 0

; 322  : 		{
; 323  : 			INT_PTR nStroeCount=m_GamePropertyTypeItemArray.GetCount();

  00085	8b 4d ec	 mov	 ecx, DWORD PTR _this$[ebp]
  00088	83 c1 74	 add	 ecx, 116		; 00000074H
  0008b	e8 00 00 00 00	 call	 ?GetCount@?$CWHArray@PAVCGamePropertyTypeItem@NGamePropertyListManager@@ABQAV12@@@QBEHXZ ; CWHArray<NGamePropertyListManager::CGamePropertyTypeItem *,NGamePropertyListManager::CGamePropertyTypeItem * const &>::GetCount
  00090	89 45 94	 mov	 DWORD PTR tv152[ebp], eax
  00093	8b 45 94	 mov	 eax, DWORD PTR tv152[ebp]
  00096	89 45 e4	 mov	 DWORD PTR _nStroeCount$5[ebp], eax

; 324  : 			if (nStroeCount>0)

  00099	83 7d e4 00	 cmp	 DWORD PTR _nStroeCount$5[ebp], 0
  0009d	7e 33		 jle	 SHORT $LN5@InsertGame

; 325  : 			{
; 326  : 				pGamePropertyTypeItem=m_GamePropertyTypeItemArray[nStroeCount-1];

  0009f	8b 45 e4	 mov	 eax, DWORD PTR _nStroeCount$5[ebp]
  000a2	83 e8 01	 sub	 eax, 1
  000a5	50		 push	 eax
  000a6	8b 4d ec	 mov	 ecx, DWORD PTR _this$[ebp]
  000a9	83 c1 74	 add	 ecx, 116		; 00000074H
  000ac	e8 00 00 00 00	 call	 ??A?$CWHArray@PAVCGamePropertyTypeItem@NGamePropertyListManager@@ABQAV12@@@QAEAAPAVCGamePropertyTypeItem@NGamePropertyListManager@@H@Z ; CWHArray<NGamePropertyListManager::CGamePropertyTypeItem *,NGamePropertyListManager::CGamePropertyTypeItem * const &>::operator[]
  000b1	89 45 94	 mov	 DWORD PTR tv153[ebp], eax
  000b4	8b 4d 94	 mov	 ecx, DWORD PTR tv153[ebp]
  000b7	8b 11		 mov	 edx, DWORD PTR [ecx]
  000b9	89 55 e8	 mov	 DWORD PTR _pGamePropertyTypeItem$[ebp], edx

; 327  : 				m_GamePropertyTypeItemArray.RemoveAt(nStroeCount-1);

  000bc	6a 01		 push	 1
  000be	8b 45 e4	 mov	 eax, DWORD PTR _nStroeCount$5[ebp]
  000c1	83 e8 01	 sub	 eax, 1
  000c4	50		 push	 eax
  000c5	8b 4d ec	 mov	 ecx, DWORD PTR _this$[ebp]
  000c8	83 c1 74	 add	 ecx, 116		; 00000074H
  000cb	e8 00 00 00 00	 call	 ?RemoveAt@?$CWHArray@PAVCGamePropertyTypeItem@NGamePropertyListManager@@ABQAV12@@@QAEXHH@Z ; CWHArray<NGamePropertyListManager::CGamePropertyTypeItem *,NGamePropertyListManager::CGamePropertyTypeItem * const &>::RemoveAt

; 328  : 			}
; 329  : 			else

  000d0	eb 51		 jmp	 SHORT $LN6@InsertGame
$LN5@InsertGame:

; 330  : 			{
; 331  : 				pGamePropertyTypeItem=new CGamePropertyTypeItem;

  000d2	6a 29		 push	 41			; 00000029H
  000d4	e8 00 00 00 00	 call	 ??2@YAPAXI@Z		; operator new
  000d9	83 c4 04	 add	 esp, 4
  000dc	89 45 94	 mov	 DWORD PTR tv154[ebp], eax
  000df	8b 45 94	 mov	 eax, DWORD PTR tv154[ebp]
  000e2	89 45 9c	 mov	 DWORD PTR $T3[ebp], eax
  000e5	c6 45 fc 01	 mov	 BYTE PTR __$EHRec$[ebp+12], 1
  000e9	83 7d 9c 00	 cmp	 DWORD PTR $T3[ebp], 0
  000ed	74 13		 je	 SHORT $LN10@InsertGame
  000ef	8b 4d 9c	 mov	 ecx, DWORD PTR $T3[ebp]
  000f2	e8 00 00 00 00	 call	 ??0CGamePropertyTypeItem@NGamePropertyListManager@@QAE@XZ ; NGamePropertyListManager::CGamePropertyTypeItem::CGamePropertyTypeItem
  000f7	89 45 90	 mov	 DWORD PTR tv157[ebp], eax
  000fa	8b 4d 90	 mov	 ecx, DWORD PTR tv157[ebp]
  000fd	89 4d 8c	 mov	 DWORD PTR tv136[ebp], ecx
  00100	eb 07		 jmp	 SHORT $LN11@InsertGame
$LN10@InsertGame:
  00102	c7 45 8c 00 00
	00 00		 mov	 DWORD PTR tv136[ebp], 0
$LN11@InsertGame:
  00109	8b 55 8c	 mov	 edx, DWORD PTR tv136[ebp]
  0010c	89 55 a0	 mov	 DWORD PTR $T4[ebp], edx
  0010f	c6 45 fc 00	 mov	 BYTE PTR __$EHRec$[ebp+12], 0
  00113	8b 45 a0	 mov	 eax, DWORD PTR $T4[ebp]
  00116	89 45 e8	 mov	 DWORD PTR _pGamePropertyTypeItem$[ebp], eax

; 332  : 				if (pGamePropertyTypeItem==NULL) return false;

  00119	83 7d e8 00	 cmp	 DWORD PTR _pGamePropertyTypeItem$[ebp], 0
  0011d	75 04		 jne	 SHORT $LN6@InsertGame
  0011f	32 c0		 xor	 al, al
  00121	eb 64		 jmp	 SHORT $LN1@InsertGame
$LN6@InsertGame:

; 333  : 			}
; 334  : 		}

  00123	eb 10		 jmp	 SHORT $LN12@InsertGame
__catch$?InsertGamePropertyTypeItem@CGamePropertyListManager@NGamePropertyListManager@@QAE_NPAUtagPropertyTypeItem@@@Z$0:

; 335  : 		catch (...) { return false; }

  00125	c6 45 9b 00	 mov	 BYTE PTR $T2[ebp], 0
  00129	b8 00 00 00 00	 mov	 eax, $LN16@InsertGame
  0012e	c3		 ret	 0
  0012f	b8 00 00 00 00	 mov	 eax, $LN12@InsertGame
  00134	c3		 ret	 0
$LN12@InsertGame:
  00135	c7 45 fc ff ff
	ff ff		 mov	 DWORD PTR __$EHRec$[ebp+12], -1
  0013c	eb 0c		 jmp	 SHORT $LN15@InsertGame
$LN16@InsertGame:
  0013e	c7 45 fc ff ff
	ff ff		 mov	 DWORD PTR __$EHRec$[ebp+12], -1
  00145	8a 45 9b	 mov	 al, BYTE PTR $T2[ebp]
  00148	eb 3d		 jmp	 SHORT $LN1@InsertGame
$LN15@InsertGame:

; 336  : 
; 337  : 		//设置变量
; 338  : 		ZeroMemory(pGamePropertyTypeItem,sizeof(CGamePropertyTypeItem));

  0014a	6a 29		 push	 41			; 00000029H
  0014c	6a 00		 push	 0
  0014e	8b 45 e8	 mov	 eax, DWORD PTR _pGamePropertyTypeItem$[ebp]
  00151	50		 push	 eax
  00152	e8 00 00 00 00	 call	 _memset
  00157	83 c4 0c	 add	 esp, 12			; 0000000cH
$LN3@InsertGame:

; 339  : 	}
; 340  : 
; 341  : 	//设置数据
; 342  : 	CopyMemory(&pGamePropertyTypeItem->m_PropertyTypeItem,ptagPropertyTypeItem,sizeof(tagPropertyTypeItem));

  0015a	6a 28		 push	 40			; 00000028H
  0015c	8b 45 08	 mov	 eax, DWORD PTR _ptagPropertyTypeItem$[ebp]
  0015f	50		 push	 eax
  00160	8b 4d e8	 mov	 ecx, DWORD PTR _pGamePropertyTypeItem$[ebp]
  00163	83 c1 01	 add	 ecx, 1
  00166	51		 push	 ecx
  00167	e8 00 00 00 00	 call	 _memcpy
  0016c	83 c4 0c	 add	 esp, 12			; 0000000cH

; 343  : 
; 344  : 	//设置索引
; 345  : 	m_GamePropertyTypeItemMap[ptagPropertyTypeItem->dwTypeID]=pGamePropertyTypeItem;

  0016f	8b 45 08	 mov	 eax, DWORD PTR _ptagPropertyTypeItem$[ebp]
  00172	8b 08		 mov	 ecx, DWORD PTR [eax]
  00174	51		 push	 ecx
  00175	8b 4d ec	 mov	 ecx, DWORD PTR _this$[ebp]
  00178	83 c1 04	 add	 ecx, 4
  0017b	e8 00 00 00 00	 call	 ??A?$CMap@KKPAVCGamePropertyTypeItem@NGamePropertyListManager@@AAPAV12@@@QAEAAPAVCGamePropertyTypeItem@NGamePropertyListManager@@K@Z ; CMap<unsigned long,unsigned long,NGamePropertyListManager::CGamePropertyTypeItem *,NGamePropertyListManager::CGamePropertyTypeItem * &>::operator[]
  00180	8b 55 e8	 mov	 edx, DWORD PTR _pGamePropertyTypeItem$[ebp]
  00183	89 10		 mov	 DWORD PTR [eax], edx

; 346  : 
; 347  : 	return true;

  00185	b0 01		 mov	 al, 1
$LN1@InsertGame:

; 348  : }

  00187	8b 4d f4	 mov	 ecx, DWORD PTR __$EHRec$[ebp+4]
  0018a	64 89 0d 00 00
	00 00		 mov	 DWORD PTR fs:0, ecx
  00191	59		 pop	 ecx
  00192	5f		 pop	 edi
  00193	5e		 pop	 esi
  00194	5b		 pop	 ebx
  00195	8b e5		 mov	 esp, ebp
  00197	5d		 pop	 ebp
  00198	c2 04 00	 ret	 4
_TEXT	ENDS
;	COMDAT text$x
text$x	SEGMENT
__unwindfunclet$?InsertGamePropertyTypeItem@CGamePropertyListManager@NGamePropertyListManager@@QAE_NPAUtagPropertyTypeItem@@@Z$2:
  00000	6a 29		 push	 41			; 00000029H
  00002	8b 45 9c	 mov	 eax, DWORD PTR $T3[ebp]
  00005	50		 push	 eax
  00006	e8 00 00 00 00	 call	 ??3@YAXPAXI@Z		; operator delete
  0000b	83 c4 08	 add	 esp, 8
  0000e	c3		 ret	 0
__ehhandler$?InsertGamePropertyTypeItem@CGamePropertyListManager@NGamePropertyListManager@@QAE_NPAUtagPropertyTypeItem@@@Z:
  0000f	8b 54 24 08	 mov	 edx, DWORD PTR [esp+8]
  00013	8d 42 0c	 lea	 eax, DWORD PTR [edx+12]
  00016	8b 4a 88	 mov	 ecx, DWORD PTR [edx-120]
  00019	33 c8		 xor	 ecx, eax
  0001b	e8 00 00 00 00	 call	 @__security_check_cookie@4
  00020	b8 00 00 00 00	 mov	 eax, OFFSET __ehfuncinfo$?InsertGamePropertyTypeItem@CGamePropertyListManager@NGamePropertyListManager@@QAE_NPAUtagPropertyTypeItem@@@Z
  00025	e9 00 00 00 00	 jmp	 ___CxxFrameHandler3
text$x	ENDS
?InsertGamePropertyTypeItem@CGamePropertyListManager@NGamePropertyListManager@@QAE_NPAUtagPropertyTypeItem@@@Z ENDP ; NGamePropertyListManager::CGamePropertyListManager::InsertGamePropertyTypeItem
; Function compile flags: /Odtp /ZI
; File g:\网狐\happygamewh\服务端\系统模块\服务器组件\登录服务器\gamepropertylistmanager.cpp
;	COMDAT ?DisusePropertySubItem@CGamePropertyListManager@NGamePropertyListManager@@QAEXXZ
_TEXT	SEGMENT
_pGamePropertySubItem$1 = -16				; size = 4
_dwPropertyID$2 = -12					; size = 4
_PositionPropertySub$ = -8				; size = 4
_this$ = -4						; size = 4
?DisusePropertySubItem@CGamePropertyListManager@NGamePropertyListManager@@QAEXXZ PROC ; NGamePropertyListManager::CGamePropertyListManager::DisusePropertySubItem, COMDAT
; _this$ = ecx

; 296  : {

  00000	55		 push	 ebp
  00001	8b ec		 mov	 ebp, esp
  00003	83 ec 50	 sub	 esp, 80			; 00000050H
  00006	53		 push	 ebx
  00007	56		 push	 esi
  00008	57		 push	 edi
  00009	89 4d fc	 mov	 DWORD PTR _this$[ebp], ecx

; 297  : 	POSITION PositionPropertySub=m_GamePropertySubItemMap.GetStartPosition();

  0000c	8b 4d fc	 mov	 ecx, DWORD PTR _this$[ebp]
  0000f	83 c1 58	 add	 ecx, 88			; 00000058H
  00012	e8 00 00 00 00	 call	 ?GetStartPosition@?$CMap@KKPAVCGamePropertySubItem@NGamePropertyListManager@@AAPAV12@@@QBEPAU__POSITION@@XZ ; CMap<unsigned long,unsigned long,NGamePropertyListManager::CGamePropertySubItem *,NGamePropertyListManager::CGamePropertySubItem * &>::GetStartPosition
  00017	89 45 f8	 mov	 DWORD PTR _PositionPropertySub$[ebp], eax
$LN2@DisuseProp:

; 298  : 	while (PositionPropertySub!=NULL)

  0001a	83 7d f8 00	 cmp	 DWORD PTR _PositionPropertySub$[ebp], 0
  0001e	74 2d		 je	 SHORT $LN1@DisuseProp

; 299  : 	{
; 300  : 
; 301  : 		DWORD dwPropertyID=0;

  00020	c7 45 f4 00 00
	00 00		 mov	 DWORD PTR _dwPropertyID$2[ebp], 0

; 302  : 		CGamePropertySubItem * pGamePropertySubItem=NULL;

  00027	c7 45 f0 00 00
	00 00		 mov	 DWORD PTR _pGamePropertySubItem$1[ebp], 0

; 303  : 		m_GamePropertySubItemMap.GetNextAssoc(PositionPropertySub,dwPropertyID,pGamePropertySubItem);

  0002e	8d 45 f0	 lea	 eax, DWORD PTR _pGamePropertySubItem$1[ebp]
  00031	50		 push	 eax
  00032	8d 4d f4	 lea	 ecx, DWORD PTR _dwPropertyID$2[ebp]
  00035	51		 push	 ecx
  00036	8d 55 f8	 lea	 edx, DWORD PTR _PositionPropertySub$[ebp]
  00039	52		 push	 edx
  0003a	8b 4d fc	 mov	 ecx, DWORD PTR _this$[ebp]
  0003d	83 c1 58	 add	 ecx, 88			; 00000058H
  00040	e8 00 00 00 00	 call	 ?GetNextAssoc@?$CMap@KKPAVCGamePropertySubItem@NGamePropertyListManager@@AAPAV12@@@QBEXAAPAU__POSITION@@AAKAAPAVCGamePropertySubItem@NGamePropertyListManager@@@Z ; CMap<unsigned long,unsigned long,NGamePropertyListManager::CGamePropertySubItem *,NGamePropertyListManager::CGamePropertySubItem * &>::GetNextAssoc

; 304  : 		pGamePropertySubItem->m_bDisuse=true;

  00045	8b 45 f0	 mov	 eax, DWORD PTR _pGamePropertySubItem$1[ebp]
  00048	c6 00 01	 mov	 BYTE PTR [eax], 1

; 305  : 	}

  0004b	eb cd		 jmp	 SHORT $LN2@DisuseProp
$LN1@DisuseProp:

; 306  : 	return;
; 307  : }

  0004d	5f		 pop	 edi
  0004e	5e		 pop	 esi
  0004f	5b		 pop	 ebx
  00050	8b e5		 mov	 esp, ebp
  00052	5d		 pop	 ebp
  00053	c3		 ret	 0
?DisusePropertySubItem@CGamePropertyListManager@NGamePropertyListManager@@QAEXXZ ENDP ; NGamePropertyListManager::CGamePropertyListManager::DisusePropertySubItem
_TEXT	ENDS
; Function compile flags: /Odtp /ZI
; File g:\网狐\happygamewh\服务端\系统模块\服务器组件\登录服务器\gamepropertylistmanager.cpp
;	COMDAT ?DisusePropertyItem@CGamePropertyListManager@NGamePropertyListManager@@QAEXXZ
_TEXT	SEGMENT
_pGamePropertyItem$1 = -16				; size = 4
_dwPropertyID$2 = -12					; size = 4
_PositionProperty$ = -8					; size = 4
_this$ = -4						; size = 4
?DisusePropertyItem@CGamePropertyListManager@NGamePropertyListManager@@QAEXXZ PROC ; NGamePropertyListManager::CGamePropertyListManager::DisusePropertyItem, COMDAT
; _this$ = ecx

; 281  : {

  00000	55		 push	 ebp
  00001	8b ec		 mov	 ebp, esp
  00003	83 ec 50	 sub	 esp, 80			; 00000050H
  00006	53		 push	 ebx
  00007	56		 push	 esi
  00008	57		 push	 edi
  00009	89 4d fc	 mov	 DWORD PTR _this$[ebp], ecx

; 282  : 	POSITION PositionProperty=m_GamePropertyItemMap.GetStartPosition();

  0000c	8b 4d fc	 mov	 ecx, DWORD PTR _this$[ebp]
  0000f	83 c1 3c	 add	 ecx, 60			; 0000003cH
  00012	e8 00 00 00 00	 call	 ?GetStartPosition@?$CMap@KKPAVCGamePropertyItem@NGamePropertyListManager@@AAPAV12@@@QBEPAU__POSITION@@XZ ; CMap<unsigned long,unsigned long,NGamePropertyListManager::CGamePropertyItem *,NGamePropertyListManager::CGamePropertyItem * &>::GetStartPosition
  00017	89 45 f8	 mov	 DWORD PTR _PositionProperty$[ebp], eax
$LN2@DisuseProp:

; 283  : 	while (PositionProperty!=NULL)

  0001a	83 7d f8 00	 cmp	 DWORD PTR _PositionProperty$[ebp], 0
  0001e	74 2d		 je	 SHORT $LN1@DisuseProp

; 284  : 	{
; 285  : 
; 286  : 		DWORD dwPropertyID=0;

  00020	c7 45 f4 00 00
	00 00		 mov	 DWORD PTR _dwPropertyID$2[ebp], 0

; 287  : 		CGamePropertyItem * pGamePropertyItem=NULL;

  00027	c7 45 f0 00 00
	00 00		 mov	 DWORD PTR _pGamePropertyItem$1[ebp], 0

; 288  : 		m_GamePropertyItemMap.GetNextAssoc(PositionProperty,dwPropertyID,pGamePropertyItem);

  0002e	8d 45 f0	 lea	 eax, DWORD PTR _pGamePropertyItem$1[ebp]
  00031	50		 push	 eax
  00032	8d 4d f4	 lea	 ecx, DWORD PTR _dwPropertyID$2[ebp]
  00035	51		 push	 ecx
  00036	8d 55 f8	 lea	 edx, DWORD PTR _PositionProperty$[ebp]
  00039	52		 push	 edx
  0003a	8b 4d fc	 mov	 ecx, DWORD PTR _this$[ebp]
  0003d	83 c1 3c	 add	 ecx, 60			; 0000003cH
  00040	e8 00 00 00 00	 call	 ?GetNextAssoc@?$CMap@KKPAVCGamePropertyItem@NGamePropertyListManager@@AAPAV12@@@QBEXAAPAU__POSITION@@AAKAAPAVCGamePropertyItem@NGamePropertyListManager@@@Z ; CMap<unsigned long,unsigned long,NGamePropertyListManager::CGamePropertyItem *,NGamePropertyListManager::CGamePropertyItem * &>::GetNextAssoc

; 289  : 		pGamePropertyItem->m_bDisuse=true;

  00045	8b 45 f0	 mov	 eax, DWORD PTR _pGamePropertyItem$1[ebp]
  00048	c6 00 01	 mov	 BYTE PTR [eax], 1

; 290  : 	}

  0004b	eb cd		 jmp	 SHORT $LN2@DisuseProp
$LN1@DisuseProp:

; 291  : 	return;
; 292  : }

  0004d	5f		 pop	 edi
  0004e	5e		 pop	 esi
  0004f	5b		 pop	 ebx
  00050	8b e5		 mov	 esp, ebp
  00052	5d		 pop	 ebp
  00053	c3		 ret	 0
?DisusePropertyItem@CGamePropertyListManager@NGamePropertyListManager@@QAEXXZ ENDP ; NGamePropertyListManager::CGamePropertyListManager::DisusePropertyItem
_TEXT	ENDS
; Function compile flags: /Odtp /ZI
; File g:\网狐\happygamewh\服务端\系统模块\服务器组件\登录服务器\gamepropertylistmanager.cpp
;	COMDAT ?DisusePropertyRelatItem@CGamePropertyListManager@NGamePropertyListManager@@QAEXXZ
_TEXT	SEGMENT
_pGamePropertyRelatItem$1 = -16				; size = 4
_dwTypeID$2 = -12					; size = 4
_PositionPropertyRelat$ = -8				; size = 4
_this$ = -4						; size = 4
?DisusePropertyRelatItem@CGamePropertyListManager@NGamePropertyListManager@@QAEXXZ PROC ; NGamePropertyListManager::CGamePropertyListManager::DisusePropertyRelatItem, COMDAT
; _this$ = ecx

; 266  : {

  00000	55		 push	 ebp
  00001	8b ec		 mov	 ebp, esp
  00003	83 ec 50	 sub	 esp, 80			; 00000050H
  00006	53		 push	 ebx
  00007	56		 push	 esi
  00008	57		 push	 edi
  00009	89 4d fc	 mov	 DWORD PTR _this$[ebp], ecx

; 267  : 	POSITION PositionPropertyRelat=m_GamePropertyRelatItemMap.GetStartPosition();

  0000c	8b 4d fc	 mov	 ecx, DWORD PTR _this$[ebp]
  0000f	83 c1 20	 add	 ecx, 32			; 00000020H
  00012	e8 00 00 00 00	 call	 ?GetStartPosition@?$CMap@KKPAVCGamePropertyRelatItem@NGamePropertyListManager@@AAPAV12@@@QBEPAU__POSITION@@XZ ; CMap<unsigned long,unsigned long,NGamePropertyListManager::CGamePropertyRelatItem *,NGamePropertyListManager::CGamePropertyRelatItem * &>::GetStartPosition
  00017	89 45 f8	 mov	 DWORD PTR _PositionPropertyRelat$[ebp], eax
$LN2@DisuseProp:

; 268  : 	while (PositionPropertyRelat!=NULL)

  0001a	83 7d f8 00	 cmp	 DWORD PTR _PositionPropertyRelat$[ebp], 0
  0001e	74 2d		 je	 SHORT $LN1@DisuseProp

; 269  : 	{
; 270  : 
; 271  : 		DWORD dwTypeID=0;

  00020	c7 45 f4 00 00
	00 00		 mov	 DWORD PTR _dwTypeID$2[ebp], 0

; 272  : 		CGamePropertyRelatItem * pGamePropertyRelatItem=NULL;

  00027	c7 45 f0 00 00
	00 00		 mov	 DWORD PTR _pGamePropertyRelatItem$1[ebp], 0

; 273  : 		m_GamePropertyRelatItemMap.GetNextAssoc(PositionPropertyRelat,dwTypeID,pGamePropertyRelatItem);

  0002e	8d 45 f0	 lea	 eax, DWORD PTR _pGamePropertyRelatItem$1[ebp]
  00031	50		 push	 eax
  00032	8d 4d f4	 lea	 ecx, DWORD PTR _dwTypeID$2[ebp]
  00035	51		 push	 ecx
  00036	8d 55 f8	 lea	 edx, DWORD PTR _PositionPropertyRelat$[ebp]
  00039	52		 push	 edx
  0003a	8b 4d fc	 mov	 ecx, DWORD PTR _this$[ebp]
  0003d	83 c1 20	 add	 ecx, 32			; 00000020H
  00040	e8 00 00 00 00	 call	 ?GetNextAssoc@?$CMap@KKPAVCGamePropertyRelatItem@NGamePropertyListManager@@AAPAV12@@@QBEXAAPAU__POSITION@@AAKAAPAVCGamePropertyRelatItem@NGamePropertyListManager@@@Z ; CMap<unsigned long,unsigned long,NGamePropertyListManager::CGamePropertyRelatItem *,NGamePropertyListManager::CGamePropertyRelatItem * &>::GetNextAssoc

; 274  : 		pGamePropertyRelatItem->m_bDisuse=true;

  00045	8b 45 f0	 mov	 eax, DWORD PTR _pGamePropertyRelatItem$1[ebp]
  00048	c6 00 01	 mov	 BYTE PTR [eax], 1

; 275  : 	}

  0004b	eb cd		 jmp	 SHORT $LN2@DisuseProp
$LN1@DisuseProp:

; 276  : 	return;
; 277  : }

  0004d	5f		 pop	 edi
  0004e	5e		 pop	 esi
  0004f	5b		 pop	 ebx
  00050	8b e5		 mov	 esp, ebp
  00052	5d		 pop	 ebp
  00053	c3		 ret	 0
?DisusePropertyRelatItem@CGamePropertyListManager@NGamePropertyListManager@@QAEXXZ ENDP ; NGamePropertyListManager::CGamePropertyListManager::DisusePropertyRelatItem
_TEXT	ENDS
; Function compile flags: /Odtp /ZI
; File g:\网狐\happygamewh\服务端\系统模块\服务器组件\登录服务器\gamepropertylistmanager.cpp
;	COMDAT ?DisusePropertyTypeItem@CGamePropertyListManager@NGamePropertyListManager@@QAEXXZ
_TEXT	SEGMENT
_pGamePropertyTypeItem$1 = -16				; size = 4
_dwTypeID$2 = -12					; size = 4
_PositionPropertyType$ = -8				; size = 4
_this$ = -4						; size = 4
?DisusePropertyTypeItem@CGamePropertyListManager@NGamePropertyListManager@@QAEXXZ PROC ; NGamePropertyListManager::CGamePropertyListManager::DisusePropertyTypeItem, COMDAT
; _this$ = ecx

; 252  : {

  00000	55		 push	 ebp
  00001	8b ec		 mov	 ebp, esp
  00003	83 ec 50	 sub	 esp, 80			; 00000050H
  00006	53		 push	 ebx
  00007	56		 push	 esi
  00008	57		 push	 edi
  00009	89 4d fc	 mov	 DWORD PTR _this$[ebp], ecx

; 253  : 	POSITION PositionPropertyType=m_GamePropertyTypeItemMap.GetStartPosition();

  0000c	8b 4d fc	 mov	 ecx, DWORD PTR _this$[ebp]
  0000f	83 c1 04	 add	 ecx, 4
  00012	e8 00 00 00 00	 call	 ?GetStartPosition@?$CMap@KKPAVCGamePropertyTypeItem@NGamePropertyListManager@@AAPAV12@@@QBEPAU__POSITION@@XZ ; CMap<unsigned long,unsigned long,NGamePropertyListManager::CGamePropertyTypeItem *,NGamePropertyListManager::CGamePropertyTypeItem * &>::GetStartPosition
  00017	89 45 f8	 mov	 DWORD PTR _PositionPropertyType$[ebp], eax
$LN2@DisuseProp:

; 254  : 	while (PositionPropertyType!=NULL)

  0001a	83 7d f8 00	 cmp	 DWORD PTR _PositionPropertyType$[ebp], 0
  0001e	74 2d		 je	 SHORT $LN1@DisuseProp

; 255  : 	{
; 256  : 		DWORD dwTypeID=0;

  00020	c7 45 f4 00 00
	00 00		 mov	 DWORD PTR _dwTypeID$2[ebp], 0

; 257  : 		CGamePropertyTypeItem * pGamePropertyTypeItem=NULL;

  00027	c7 45 f0 00 00
	00 00		 mov	 DWORD PTR _pGamePropertyTypeItem$1[ebp], 0

; 258  : 		m_GamePropertyTypeItemMap.GetNextAssoc(PositionPropertyType,dwTypeID,pGamePropertyTypeItem);

  0002e	8d 45 f0	 lea	 eax, DWORD PTR _pGamePropertyTypeItem$1[ebp]
  00031	50		 push	 eax
  00032	8d 4d f4	 lea	 ecx, DWORD PTR _dwTypeID$2[ebp]
  00035	51		 push	 ecx
  00036	8d 55 f8	 lea	 edx, DWORD PTR _PositionPropertyType$[ebp]
  00039	52		 push	 edx
  0003a	8b 4d fc	 mov	 ecx, DWORD PTR _this$[ebp]
  0003d	83 c1 04	 add	 ecx, 4
  00040	e8 00 00 00 00	 call	 ?GetNextAssoc@?$CMap@KKPAVCGamePropertyTypeItem@NGamePropertyListManager@@AAPAV12@@@QBEXAAPAU__POSITION@@AAKAAPAVCGamePropertyTypeItem@NGamePropertyListManager@@@Z ; CMap<unsigned long,unsigned long,NGamePropertyListManager::CGamePropertyTypeItem *,NGamePropertyListManager::CGamePropertyTypeItem * &>::GetNextAssoc

; 259  : 		pGamePropertyTypeItem->m_bDisuse=true;

  00045	8b 45 f0	 mov	 eax, DWORD PTR _pGamePropertyTypeItem$1[ebp]
  00048	c6 00 01	 mov	 BYTE PTR [eax], 1

; 260  : 	}

  0004b	eb cd		 jmp	 SHORT $LN2@DisuseProp
$LN1@DisuseProp:

; 261  : 	return;
; 262  : }

  0004d	5f		 pop	 edi
  0004e	5e		 pop	 esi
  0004f	5b		 pop	 ebx
  00050	8b e5		 mov	 esp, ebp
  00052	5d		 pop	 ebp
  00053	c3		 ret	 0
?DisusePropertyTypeItem@CGamePropertyListManager@NGamePropertyListManager@@QAEXXZ ENDP ; NGamePropertyListManager::CGamePropertyListManager::DisusePropertyTypeItem
_TEXT	ENDS
; Function compile flags: /Odtp /ZI
; File g:\网狐\happygamewh\服务端\系统模块\服务器组件\登录服务器\gamepropertylistmanager.cpp
;	COMDAT ?CleanPropertySubItem@CGamePropertyListManager@NGamePropertyListManager@@QAEXXZ
_TEXT	SEGMENT
_pGamePropertySubItem$1 = -16				; size = 4
_dwPropertyID$2 = -12					; size = 4
_PositionPropertySub$ = -8				; size = 4
_this$ = -4						; size = 4
?CleanPropertySubItem@CGamePropertyListManager@NGamePropertyListManager@@QAEXXZ PROC ; NGamePropertyListManager::CGamePropertyListManager::CleanPropertySubItem, COMDAT
; _this$ = ecx

; 233  : {

  00000	55		 push	 ebp
  00001	8b ec		 mov	 ebp, esp
  00003	83 ec 50	 sub	 esp, 80			; 00000050H
  00006	53		 push	 ebx
  00007	56		 push	 esi
  00008	57		 push	 edi
  00009	89 4d fc	 mov	 DWORD PTR _this$[ebp], ecx

; 234  : 	POSITION PositionPropertySub=m_GamePropertySubItemMap.GetStartPosition();

  0000c	8b 4d fc	 mov	 ecx, DWORD PTR _this$[ebp]
  0000f	83 c1 58	 add	 ecx, 88			; 00000058H
  00012	e8 00 00 00 00	 call	 ?GetStartPosition@?$CMap@KKPAVCGamePropertySubItem@NGamePropertyListManager@@AAPAV12@@@QBEPAU__POSITION@@XZ ; CMap<unsigned long,unsigned long,NGamePropertyListManager::CGamePropertySubItem *,NGamePropertyListManager::CGamePropertySubItem * &>::GetStartPosition
  00017	89 45 f8	 mov	 DWORD PTR _PositionPropertySub$[ebp], eax
$LN2@CleanPrope:

; 235  : 	while (PositionPropertySub!=NULL)

  0001a	83 7d f8 00	 cmp	 DWORD PTR _PositionPropertySub$[ebp], 0
  0001e	74 53		 je	 SHORT $LN1@CleanPrope

; 236  : 	{
; 237  : 		DWORD dwPropertyID=0;

  00020	c7 45 f4 00 00
	00 00		 mov	 DWORD PTR _dwPropertyID$2[ebp], 0

; 238  : 		CGamePropertySubItem * pGamePropertySubItem=NULL;

  00027	c7 45 f0 00 00
	00 00		 mov	 DWORD PTR _pGamePropertySubItem$1[ebp], 0

; 239  : 		m_GamePropertySubItemMap.GetNextAssoc(PositionPropertySub,dwPropertyID,pGamePropertySubItem);

  0002e	8d 45 f0	 lea	 eax, DWORD PTR _pGamePropertySubItem$1[ebp]
  00031	50		 push	 eax
  00032	8d 4d f4	 lea	 ecx, DWORD PTR _dwPropertyID$2[ebp]
  00035	51		 push	 ecx
  00036	8d 55 f8	 lea	 edx, DWORD PTR _PositionPropertySub$[ebp]
  00039	52		 push	 edx
  0003a	8b 4d fc	 mov	 ecx, DWORD PTR _this$[ebp]
  0003d	83 c1 58	 add	 ecx, 88			; 00000058H
  00040	e8 00 00 00 00	 call	 ?GetNextAssoc@?$CMap@KKPAVCGamePropertySubItem@NGamePropertyListManager@@AAPAV12@@@QBEXAAPAU__POSITION@@AAKAAPAVCGamePropertySubItem@NGamePropertyListManager@@@Z ; CMap<unsigned long,unsigned long,NGamePropertyListManager::CGamePropertySubItem *,NGamePropertyListManager::CGamePropertySubItem * &>::GetNextAssoc

; 240  : 		if (pGamePropertySubItem->m_bDisuse==true)

  00045	8b 45 f0	 mov	 eax, DWORD PTR _pGamePropertySubItem$1[ebp]
  00048	0f b6 08	 movzx	 ecx, BYTE PTR [eax]
  0004b	83 f9 01	 cmp	 ecx, 1
  0004e	75 21		 jne	 SHORT $LN4@CleanPrope

; 241  : 		{
; 242  : 			m_GamePropertySubItemMap.RemoveKey(dwPropertyID);

  00050	8b 45 f4	 mov	 eax, DWORD PTR _dwPropertyID$2[ebp]
  00053	50		 push	 eax
  00054	8b 4d fc	 mov	 ecx, DWORD PTR _this$[ebp]
  00057	83 c1 58	 add	 ecx, 88			; 00000058H
  0005a	e8 00 00 00 00	 call	 ?RemoveKey@?$CMap@KKPAVCGamePropertySubItem@NGamePropertyListManager@@AAPAV12@@@QAEHK@Z ; CMap<unsigned long,unsigned long,NGamePropertyListManager::CGamePropertySubItem *,NGamePropertyListManager::CGamePropertySubItem * &>::RemoveKey

; 243  : 			m_GamePropertySubItemArray.Add(pGamePropertySubItem);

  0005f	8d 45 f0	 lea	 eax, DWORD PTR _pGamePropertySubItem$1[ebp]
  00062	50		 push	 eax
  00063	8b 4d fc	 mov	 ecx, DWORD PTR _this$[ebp]
  00066	81 c1 b0 00 00
	00		 add	 ecx, 176		; 000000b0H
  0006c	e8 00 00 00 00	 call	 ?Add@?$CWHArray@PAVCGamePropertySubItem@NGamePropertyListManager@@ABQAV12@@@QAEHABQAVCGamePropertySubItem@NGamePropertyListManager@@@Z ; CWHArray<NGamePropertyListManager::CGamePropertySubItem *,NGamePropertyListManager::CGamePropertySubItem * const &>::Add
$LN4@CleanPrope:

; 244  : 		}
; 245  : 	}

  00071	eb a7		 jmp	 SHORT $LN2@CleanPrope
$LN1@CleanPrope:

; 246  : 
; 247  : 	return;
; 248  : }

  00073	5f		 pop	 edi
  00074	5e		 pop	 esi
  00075	5b		 pop	 ebx
  00076	8b e5		 mov	 esp, ebp
  00078	5d		 pop	 ebp
  00079	c3		 ret	 0
?CleanPropertySubItem@CGamePropertyListManager@NGamePropertyListManager@@QAEXXZ ENDP ; NGamePropertyListManager::CGamePropertyListManager::CleanPropertySubItem
_TEXT	ENDS
; Function compile flags: /Odtp /ZI
; File g:\网狐\happygamewh\服务端\系统模块\服务器组件\登录服务器\gamepropertylistmanager.cpp
;	COMDAT ?CleanPropertyItem@CGamePropertyListManager@NGamePropertyListManager@@QAEXXZ
_TEXT	SEGMENT
_pGamePropertyItem$1 = -16				; size = 4
_dwPropertyID$2 = -12					; size = 4
_PositionProperty$ = -8					; size = 4
_this$ = -4						; size = 4
?CleanPropertyItem@CGamePropertyListManager@NGamePropertyListManager@@QAEXXZ PROC ; NGamePropertyListManager::CGamePropertyListManager::CleanPropertyItem, COMDAT
; _this$ = ecx

; 214  : {

  00000	55		 push	 ebp
  00001	8b ec		 mov	 ebp, esp
  00003	83 ec 50	 sub	 esp, 80			; 00000050H
  00006	53		 push	 ebx
  00007	56		 push	 esi
  00008	57		 push	 edi
  00009	89 4d fc	 mov	 DWORD PTR _this$[ebp], ecx

; 215  : 	POSITION PositionProperty=m_GamePropertyItemMap.GetStartPosition();

  0000c	8b 4d fc	 mov	 ecx, DWORD PTR _this$[ebp]
  0000f	83 c1 3c	 add	 ecx, 60			; 0000003cH
  00012	e8 00 00 00 00	 call	 ?GetStartPosition@?$CMap@KKPAVCGamePropertyItem@NGamePropertyListManager@@AAPAV12@@@QBEPAU__POSITION@@XZ ; CMap<unsigned long,unsigned long,NGamePropertyListManager::CGamePropertyItem *,NGamePropertyListManager::CGamePropertyItem * &>::GetStartPosition
  00017	89 45 f8	 mov	 DWORD PTR _PositionProperty$[ebp], eax
$LN2@CleanPrope:

; 216  : 	while (PositionProperty!=NULL)

  0001a	83 7d f8 00	 cmp	 DWORD PTR _PositionProperty$[ebp], 0
  0001e	74 53		 je	 SHORT $LN1@CleanPrope

; 217  : 	{
; 218  : 		DWORD dwPropertyID=0;

  00020	c7 45 f4 00 00
	00 00		 mov	 DWORD PTR _dwPropertyID$2[ebp], 0

; 219  : 		CGamePropertyItem * pGamePropertyItem=NULL;

  00027	c7 45 f0 00 00
	00 00		 mov	 DWORD PTR _pGamePropertyItem$1[ebp], 0

; 220  : 		m_GamePropertyItemMap.GetNextAssoc(PositionProperty,dwPropertyID,pGamePropertyItem);

  0002e	8d 45 f0	 lea	 eax, DWORD PTR _pGamePropertyItem$1[ebp]
  00031	50		 push	 eax
  00032	8d 4d f4	 lea	 ecx, DWORD PTR _dwPropertyID$2[ebp]
  00035	51		 push	 ecx
  00036	8d 55 f8	 lea	 edx, DWORD PTR _PositionProperty$[ebp]
  00039	52		 push	 edx
  0003a	8b 4d fc	 mov	 ecx, DWORD PTR _this$[ebp]
  0003d	83 c1 3c	 add	 ecx, 60			; 0000003cH
  00040	e8 00 00 00 00	 call	 ?GetNextAssoc@?$CMap@KKPAVCGamePropertyItem@NGamePropertyListManager@@AAPAV12@@@QBEXAAPAU__POSITION@@AAKAAPAVCGamePropertyItem@NGamePropertyListManager@@@Z ; CMap<unsigned long,unsigned long,NGamePropertyListManager::CGamePropertyItem *,NGamePropertyListManager::CGamePropertyItem * &>::GetNextAssoc

; 221  : 		if (pGamePropertyItem->m_bDisuse==true)

  00045	8b 45 f0	 mov	 eax, DWORD PTR _pGamePropertyItem$1[ebp]
  00048	0f b6 08	 movzx	 ecx, BYTE PTR [eax]
  0004b	83 f9 01	 cmp	 ecx, 1
  0004e	75 21		 jne	 SHORT $LN4@CleanPrope

; 222  : 		{
; 223  : 			m_GamePropertyItemMap.RemoveKey(dwPropertyID);

  00050	8b 45 f4	 mov	 eax, DWORD PTR _dwPropertyID$2[ebp]
  00053	50		 push	 eax
  00054	8b 4d fc	 mov	 ecx, DWORD PTR _this$[ebp]
  00057	83 c1 3c	 add	 ecx, 60			; 0000003cH
  0005a	e8 00 00 00 00	 call	 ?RemoveKey@?$CMap@KKPAVCGamePropertyItem@NGamePropertyListManager@@AAPAV12@@@QAEHK@Z ; CMap<unsigned long,unsigned long,NGamePropertyListManager::CGamePropertyItem *,NGamePropertyListManager::CGamePropertyItem * &>::RemoveKey

; 224  : 			m_GamePropertyItemArray.Add(pGamePropertyItem);

  0005f	8d 45 f0	 lea	 eax, DWORD PTR _pGamePropertyItem$1[ebp]
  00062	50		 push	 eax
  00063	8b 4d fc	 mov	 ecx, DWORD PTR _this$[ebp]
  00066	81 c1 9c 00 00
	00		 add	 ecx, 156		; 0000009cH
  0006c	e8 00 00 00 00	 call	 ?Add@?$CWHArray@PAVCGamePropertyItem@NGamePropertyListManager@@ABQAV12@@@QAEHABQAVCGamePropertyItem@NGamePropertyListManager@@@Z ; CWHArray<NGamePropertyListManager::CGamePropertyItem *,NGamePropertyListManager::CGamePropertyItem * const &>::Add
$LN4@CleanPrope:

; 225  : 		}
; 226  : 	}

  00071	eb a7		 jmp	 SHORT $LN2@CleanPrope
$LN1@CleanPrope:

; 227  : 
; 228  : 	return;
; 229  : }

  00073	5f		 pop	 edi
  00074	5e		 pop	 esi
  00075	5b		 pop	 ebx
  00076	8b e5		 mov	 esp, ebp
  00078	5d		 pop	 ebp
  00079	c3		 ret	 0
?CleanPropertyItem@CGamePropertyListManager@NGamePropertyListManager@@QAEXXZ ENDP ; NGamePropertyListManager::CGamePropertyListManager::CleanPropertyItem
_TEXT	ENDS
; Function compile flags: /Odtp /ZI
; File g:\网狐\happygamewh\服务端\系统模块\服务器组件\登录服务器\gamepropertylistmanager.cpp
;	COMDAT ?CleanPropertyRelatItem@CGamePropertyListManager@NGamePropertyListManager@@QAEXXZ
_TEXT	SEGMENT
_pGamePropertyRelatItem$1 = -16				; size = 4
_dwTypeID$2 = -12					; size = 4
_PositionPropertyRelat$ = -8				; size = 4
_this$ = -4						; size = 4
?CleanPropertyRelatItem@CGamePropertyListManager@NGamePropertyListManager@@QAEXXZ PROC ; NGamePropertyListManager::CGamePropertyListManager::CleanPropertyRelatItem, COMDAT
; _this$ = ecx

; 193  : {

  00000	55		 push	 ebp
  00001	8b ec		 mov	 ebp, esp
  00003	83 ec 50	 sub	 esp, 80			; 00000050H
  00006	53		 push	 ebx
  00007	56		 push	 esi
  00008	57		 push	 edi
  00009	89 4d fc	 mov	 DWORD PTR _this$[ebp], ecx

; 194  : 	POSITION PositionPropertyRelat=m_GamePropertyRelatItemMap.GetStartPosition();

  0000c	8b 4d fc	 mov	 ecx, DWORD PTR _this$[ebp]
  0000f	83 c1 20	 add	 ecx, 32			; 00000020H
  00012	e8 00 00 00 00	 call	 ?GetStartPosition@?$CMap@KKPAVCGamePropertyRelatItem@NGamePropertyListManager@@AAPAV12@@@QBEPAU__POSITION@@XZ ; CMap<unsigned long,unsigned long,NGamePropertyListManager::CGamePropertyRelatItem *,NGamePropertyListManager::CGamePropertyRelatItem * &>::GetStartPosition
  00017	89 45 f8	 mov	 DWORD PTR _PositionPropertyRelat$[ebp], eax
$LN2@CleanPrope:

; 195  : 	while (PositionPropertyRelat!=NULL)

  0001a	83 7d f8 00	 cmp	 DWORD PTR _PositionPropertyRelat$[ebp], 0
  0001e	74 53		 je	 SHORT $LN1@CleanPrope

; 196  : 	{
; 197  : 
; 198  : 		DWORD dwTypeID=0;

  00020	c7 45 f4 00 00
	00 00		 mov	 DWORD PTR _dwTypeID$2[ebp], 0

; 199  : 		CGamePropertyRelatItem * pGamePropertyRelatItem=NULL;

  00027	c7 45 f0 00 00
	00 00		 mov	 DWORD PTR _pGamePropertyRelatItem$1[ebp], 0

; 200  : 		m_GamePropertyRelatItemMap.GetNextAssoc(PositionPropertyRelat,dwTypeID,pGamePropertyRelatItem);

  0002e	8d 45 f0	 lea	 eax, DWORD PTR _pGamePropertyRelatItem$1[ebp]
  00031	50		 push	 eax
  00032	8d 4d f4	 lea	 ecx, DWORD PTR _dwTypeID$2[ebp]
  00035	51		 push	 ecx
  00036	8d 55 f8	 lea	 edx, DWORD PTR _PositionPropertyRelat$[ebp]
  00039	52		 push	 edx
  0003a	8b 4d fc	 mov	 ecx, DWORD PTR _this$[ebp]
  0003d	83 c1 20	 add	 ecx, 32			; 00000020H
  00040	e8 00 00 00 00	 call	 ?GetNextAssoc@?$CMap@KKPAVCGamePropertyRelatItem@NGamePropertyListManager@@AAPAV12@@@QBEXAAPAU__POSITION@@AAKAAPAVCGamePropertyRelatItem@NGamePropertyListManager@@@Z ; CMap<unsigned long,unsigned long,NGamePropertyListManager::CGamePropertyRelatItem *,NGamePropertyListManager::CGamePropertyRelatItem * &>::GetNextAssoc

; 201  : 
; 202  : 		if (pGamePropertyRelatItem->m_bDisuse==true)

  00045	8b 45 f0	 mov	 eax, DWORD PTR _pGamePropertyRelatItem$1[ebp]
  00048	0f b6 08	 movzx	 ecx, BYTE PTR [eax]
  0004b	83 f9 01	 cmp	 ecx, 1
  0004e	75 21		 jne	 SHORT $LN4@CleanPrope

; 203  : 		{
; 204  : 			m_GamePropertyRelatItemMap.RemoveKey(dwTypeID);

  00050	8b 45 f4	 mov	 eax, DWORD PTR _dwTypeID$2[ebp]
  00053	50		 push	 eax
  00054	8b 4d fc	 mov	 ecx, DWORD PTR _this$[ebp]
  00057	83 c1 20	 add	 ecx, 32			; 00000020H
  0005a	e8 00 00 00 00	 call	 ?RemoveKey@?$CMap@KKPAVCGamePropertyRelatItem@NGamePropertyListManager@@AAPAV12@@@QAEHK@Z ; CMap<unsigned long,unsigned long,NGamePropertyListManager::CGamePropertyRelatItem *,NGamePropertyListManager::CGamePropertyRelatItem * &>::RemoveKey

; 205  : 			m_GamePropertyRelatItemArray.Add(pGamePropertyRelatItem);

  0005f	8d 45 f0	 lea	 eax, DWORD PTR _pGamePropertyRelatItem$1[ebp]
  00062	50		 push	 eax
  00063	8b 4d fc	 mov	 ecx, DWORD PTR _this$[ebp]
  00066	81 c1 88 00 00
	00		 add	 ecx, 136		; 00000088H
  0006c	e8 00 00 00 00	 call	 ?Add@?$CWHArray@PAVCGamePropertyRelatItem@NGamePropertyListManager@@ABQAV12@@@QAEHABQAVCGamePropertyRelatItem@NGamePropertyListManager@@@Z ; CWHArray<NGamePropertyListManager::CGamePropertyRelatItem *,NGamePropertyListManager::CGamePropertyRelatItem * const &>::Add
$LN4@CleanPrope:

; 206  : 		}
; 207  : 	}

  00071	eb a7		 jmp	 SHORT $LN2@CleanPrope
$LN1@CleanPrope:

; 208  : 
; 209  : 	return;
; 210  : }

  00073	5f		 pop	 edi
  00074	5e		 pop	 esi
  00075	5b		 pop	 ebx
  00076	8b e5		 mov	 esp, ebp
  00078	5d		 pop	 ebp
  00079	c3		 ret	 0
?CleanPropertyRelatItem@CGamePropertyListManager@NGamePropertyListManager@@QAEXXZ ENDP ; NGamePropertyListManager::CGamePropertyListManager::CleanPropertyRelatItem
_TEXT	ENDS
; Function compile flags: /Odtp /ZI
; File g:\网狐\happygamewh\服务端\系统模块\服务器组件\登录服务器\gamepropertylistmanager.cpp
;	COMDAT ?CleanPropertyTypeItem@CGamePropertyListManager@NGamePropertyListManager@@QAEXXZ
_TEXT	SEGMENT
_pGamePropertyTypeItem$1 = -16				; size = 4
_dwTypeID$2 = -12					; size = 4
_PositionPropertyType$ = -8				; size = 4
_this$ = -4						; size = 4
?CleanPropertyTypeItem@CGamePropertyListManager@NGamePropertyListManager@@QAEXXZ PROC ; NGamePropertyListManager::CGamePropertyListManager::CleanPropertyTypeItem, COMDAT
; _this$ = ecx

; 175  : {

  00000	55		 push	 ebp
  00001	8b ec		 mov	 ebp, esp
  00003	83 ec 50	 sub	 esp, 80			; 00000050H
  00006	53		 push	 ebx
  00007	56		 push	 esi
  00008	57		 push	 edi
  00009	89 4d fc	 mov	 DWORD PTR _this$[ebp], ecx

; 176  : 	POSITION PositionPropertyType=m_GamePropertyTypeItemMap.GetStartPosition();

  0000c	8b 4d fc	 mov	 ecx, DWORD PTR _this$[ebp]
  0000f	83 c1 04	 add	 ecx, 4
  00012	e8 00 00 00 00	 call	 ?GetStartPosition@?$CMap@KKPAVCGamePropertyTypeItem@NGamePropertyListManager@@AAPAV12@@@QBEPAU__POSITION@@XZ ; CMap<unsigned long,unsigned long,NGamePropertyListManager::CGamePropertyTypeItem *,NGamePropertyListManager::CGamePropertyTypeItem * &>::GetStartPosition
  00017	89 45 f8	 mov	 DWORD PTR _PositionPropertyType$[ebp], eax
$LN2@CleanPrope:

; 177  : 	while (PositionPropertyType!=NULL)

  0001a	83 7d f8 00	 cmp	 DWORD PTR _PositionPropertyType$[ebp], 0
  0001e	74 50		 je	 SHORT $LN1@CleanPrope

; 178  : 	{
; 179  : 		DWORD dwTypeID=0;

  00020	c7 45 f4 00 00
	00 00		 mov	 DWORD PTR _dwTypeID$2[ebp], 0

; 180  : 		CGamePropertyTypeItem * pGamePropertyTypeItem=NULL;

  00027	c7 45 f0 00 00
	00 00		 mov	 DWORD PTR _pGamePropertyTypeItem$1[ebp], 0

; 181  : 		m_GamePropertyTypeItemMap.GetNextAssoc(PositionPropertyType,dwTypeID,pGamePropertyTypeItem);

  0002e	8d 45 f0	 lea	 eax, DWORD PTR _pGamePropertyTypeItem$1[ebp]
  00031	50		 push	 eax
  00032	8d 4d f4	 lea	 ecx, DWORD PTR _dwTypeID$2[ebp]
  00035	51		 push	 ecx
  00036	8d 55 f8	 lea	 edx, DWORD PTR _PositionPropertyType$[ebp]
  00039	52		 push	 edx
  0003a	8b 4d fc	 mov	 ecx, DWORD PTR _this$[ebp]
  0003d	83 c1 04	 add	 ecx, 4
  00040	e8 00 00 00 00	 call	 ?GetNextAssoc@?$CMap@KKPAVCGamePropertyTypeItem@NGamePropertyListManager@@AAPAV12@@@QBEXAAPAU__POSITION@@AAKAAPAVCGamePropertyTypeItem@NGamePropertyListManager@@@Z ; CMap<unsigned long,unsigned long,NGamePropertyListManager::CGamePropertyTypeItem *,NGamePropertyListManager::CGamePropertyTypeItem * &>::GetNextAssoc

; 182  : 		if (pGamePropertyTypeItem->m_bDisuse==true)

  00045	8b 45 f0	 mov	 eax, DWORD PTR _pGamePropertyTypeItem$1[ebp]
  00048	0f b6 08	 movzx	 ecx, BYTE PTR [eax]
  0004b	83 f9 01	 cmp	 ecx, 1
  0004e	75 1e		 jne	 SHORT $LN4@CleanPrope

; 183  : 		{
; 184  : 			m_GamePropertyTypeItemMap.RemoveKey(dwTypeID);

  00050	8b 45 f4	 mov	 eax, DWORD PTR _dwTypeID$2[ebp]
  00053	50		 push	 eax
  00054	8b 4d fc	 mov	 ecx, DWORD PTR _this$[ebp]
  00057	83 c1 04	 add	 ecx, 4
  0005a	e8 00 00 00 00	 call	 ?RemoveKey@?$CMap@KKPAVCGamePropertyTypeItem@NGamePropertyListManager@@AAPAV12@@@QAEHK@Z ; CMap<unsigned long,unsigned long,NGamePropertyListManager::CGamePropertyTypeItem *,NGamePropertyListManager::CGamePropertyTypeItem * &>::RemoveKey

; 185  : 			m_GamePropertyTypeItemArray.Add(pGamePropertyTypeItem);

  0005f	8d 45 f0	 lea	 eax, DWORD PTR _pGamePropertyTypeItem$1[ebp]
  00062	50		 push	 eax
  00063	8b 4d fc	 mov	 ecx, DWORD PTR _this$[ebp]
  00066	83 c1 74	 add	 ecx, 116		; 00000074H
  00069	e8 00 00 00 00	 call	 ?Add@?$CWHArray@PAVCGamePropertyTypeItem@NGamePropertyListManager@@ABQAV12@@@QAEHABQAVCGamePropertyTypeItem@NGamePropertyListManager@@@Z ; CWHArray<NGamePropertyListManager::CGamePropertyTypeItem *,NGamePropertyListManager::CGamePropertyTypeItem * const &>::Add
$LN4@CleanPrope:

; 186  : 		}
; 187  : 	}

  0006e	eb aa		 jmp	 SHORT $LN2@CleanPrope
$LN1@CleanPrope:

; 188  : 	return;
; 189  : }

  00070	5f		 pop	 edi
  00071	5e		 pop	 esi
  00072	5b		 pop	 ebx
  00073	8b e5		 mov	 esp, ebp
  00075	5d		 pop	 ebp
  00076	c3		 ret	 0
?CleanPropertyTypeItem@CGamePropertyListManager@NGamePropertyListManager@@QAEXXZ ENDP ; NGamePropertyListManager::CGamePropertyListManager::CleanPropertyTypeItem
_TEXT	ENDS
; Function compile flags: /Odtp /ZI
; File g:\网狐\happygamewh\服务端\系统模块\服务器组件\登录服务器\gamepropertylistmanager.cpp
;	COMDAT ?ResetPropertyListManager@CGamePropertyListManager@NGamePropertyListManager@@QAEXXZ
_TEXT	SEGMENT
_this$ = -4						; size = 4
?ResetPropertyListManager@CGamePropertyListManager@NGamePropertyListManager@@QAEXXZ PROC ; NGamePropertyListManager::CGamePropertyListManager::ResetPropertyListManager, COMDAT
; _this$ = ecx

; 145  : {

  00000	55		 push	 ebp
  00001	8b ec		 mov	 ebp, esp
  00003	83 ec 44	 sub	 esp, 68			; 00000044H
  00006	53		 push	 ebx
  00007	56		 push	 esi
  00008	57		 push	 edi
  00009	89 4d fc	 mov	 DWORD PTR _this$[ebp], ecx

; 146  : 	//废弃种类
; 147  : 	DisusePropertyTypeItem();

  0000c	8b 4d fc	 mov	 ecx, DWORD PTR _this$[ebp]
  0000f	e8 00 00 00 00	 call	 ?DisusePropertyTypeItem@CGamePropertyListManager@NGamePropertyListManager@@QAEXXZ ; NGamePropertyListManager::CGamePropertyListManager::DisusePropertyTypeItem

; 148  : 
; 149  : 	//废弃关系
; 150  : 	DisusePropertyRelatItem();

  00014	8b 4d fc	 mov	 ecx, DWORD PTR _this$[ebp]
  00017	e8 00 00 00 00	 call	 ?DisusePropertyRelatItem@CGamePropertyListManager@NGamePropertyListManager@@QAEXXZ ; NGamePropertyListManager::CGamePropertyListManager::DisusePropertyRelatItem

; 151  : 
; 152  : 	//废弃道具
; 153  : 	DisusePropertySubItem();

  0001c	8b 4d fc	 mov	 ecx, DWORD PTR _this$[ebp]
  0001f	e8 00 00 00 00	 call	 ?DisusePropertySubItem@CGamePropertyListManager@NGamePropertyListManager@@QAEXXZ ; NGamePropertyListManager::CGamePropertyListManager::DisusePropertySubItem

; 154  : 
; 155  : 	//废弃道具
; 156  : 	DisusePropertyItem();

  00024	8b 4d fc	 mov	 ecx, DWORD PTR _this$[ebp]
  00027	e8 00 00 00 00	 call	 ?DisusePropertyItem@CGamePropertyListManager@NGamePropertyListManager@@QAEXXZ ; NGamePropertyListManager::CGamePropertyListManager::DisusePropertyItem

; 157  : 
; 158  : 	//清理种类
; 159  : 	CleanPropertyTypeItem();

  0002c	8b 4d fc	 mov	 ecx, DWORD PTR _this$[ebp]
  0002f	e8 00 00 00 00	 call	 ?CleanPropertyTypeItem@CGamePropertyListManager@NGamePropertyListManager@@QAEXXZ ; NGamePropertyListManager::CGamePropertyListManager::CleanPropertyTypeItem

; 160  : 
; 161  : 	//清理关系
; 162  : 	CleanPropertyRelatItem();

  00034	8b 4d fc	 mov	 ecx, DWORD PTR _this$[ebp]
  00037	e8 00 00 00 00	 call	 ?CleanPropertyRelatItem@CGamePropertyListManager@NGamePropertyListManager@@QAEXXZ ; NGamePropertyListManager::CGamePropertyListManager::CleanPropertyRelatItem

; 163  : 
; 164  : 	//清理道具
; 165  : 	CleanPropertyItem();

  0003c	8b 4d fc	 mov	 ecx, DWORD PTR _this$[ebp]
  0003f	e8 00 00 00 00	 call	 ?CleanPropertyItem@CGamePropertyListManager@NGamePropertyListManager@@QAEXXZ ; NGamePropertyListManager::CGamePropertyListManager::CleanPropertyItem

; 166  : 
; 167  : 	//清理道具
; 168  : 	CleanPropertySubItem();

  00044	8b 4d fc	 mov	 ecx, DWORD PTR _this$[ebp]
  00047	e8 00 00 00 00	 call	 ?CleanPropertySubItem@CGamePropertyListManager@NGamePropertyListManager@@QAEXXZ ; NGamePropertyListManager::CGamePropertyListManager::CleanPropertySubItem

; 169  : 
; 170  : 	return;
; 171  : }

  0004c	5f		 pop	 edi
  0004d	5e		 pop	 esi
  0004e	5b		 pop	 ebx
  0004f	8b e5		 mov	 esp, ebp
  00051	5d		 pop	 ebp
  00052	c3		 ret	 0
?ResetPropertyListManager@CGamePropertyListManager@NGamePropertyListManager@@QAEXXZ ENDP ; NGamePropertyListManager::CGamePropertyListManager::ResetPropertyListManager
_TEXT	ENDS
; Function compile flags: /Odtp /ZI
; File g:\网狐\happygamewh\服务端\系统模块\服务器组件\登录服务器\gamepropertylistmanager.cpp
;	COMDAT ??1CGamePropertyListManager@NGamePropertyListManager@@UAE@XZ
_TEXT	SEGMENT
$T2 = -156						; size = 4
$T3 = -152						; size = 4
$T4 = -148						; size = 4
$T5 = -144						; size = 4
$T6 = -140						; size = 4
$T7 = -136						; size = 4
$T8 = -132						; size = 4
$T9 = -128						; size = 4
_i$10 = -60						; size = 4
_pGamePropertySubItem$ = -56				; size = 4
_i$11 = -52						; size = 4
_pGamePropertyItem$ = -48				; size = 4
_i$12 = -44						; size = 4
_pGamePropertyRelatItem$ = -40				; size = 4
_i$13 = -36						; size = 4
_Position$ = -32					; size = 4
_pGamePropertyTypeItem$ = -28				; size = 4
_wKey$ = -24						; size = 4
_this$ = -20						; size = 4
__$EHRec$ = -16						; size = 16
??1CGamePropertyListManager@NGamePropertyListManager@@UAE@XZ PROC ; NGamePropertyListManager::CGamePropertyListManager::~CGamePropertyListManager, COMDAT
; _this$ = ecx

; 72   : {

  00000	55		 push	 ebp
  00001	8b ec		 mov	 ebp, esp
  00003	6a ff		 push	 -1
  00005	68 00 00 00 00	 push	 __ehhandler$??1CGamePropertyListManager@NGamePropertyListManager@@UAE@XZ
  0000a	64 a1 00 00 00
	00		 mov	 eax, DWORD PTR fs:0
  00010	50		 push	 eax
  00011	51		 push	 ecx
  00012	81 ec 8c 00 00
	00		 sub	 esp, 140		; 0000008cH
  00018	53		 push	 ebx
  00019	56		 push	 esi
  0001a	57		 push	 edi
  0001b	a1 00 00 00 00	 mov	 eax, DWORD PTR ___security_cookie
  00020	33 c5		 xor	 eax, ebp
  00022	50		 push	 eax
  00023	8d 45 f4	 lea	 eax, DWORD PTR __$EHRec$[ebp+4]
  00026	64 a3 00 00 00
	00		 mov	 DWORD PTR fs:0, eax
  0002c	89 65 f0	 mov	 DWORD PTR __$EHRec$[ebp], esp
  0002f	89 4d ec	 mov	 DWORD PTR _this$[ebp], ecx
  00032	8b 45 ec	 mov	 eax, DWORD PTR _this$[ebp]
  00035	c7 00 00 00 00
	00		 mov	 DWORD PTR [eax], OFFSET ??_7CGamePropertyListManager@NGamePropertyListManager@@6B@
  0003b	c7 45 fc 07 00
	00 00		 mov	 DWORD PTR __$EHRec$[ebp+12], 7

; 73   : 	//变量定义
; 74   : 	DWORD wKey=0;

  00042	c7 45 e8 00 00
	00 00		 mov	 DWORD PTR _wKey$[ebp], 0

; 75   : 
; 76   : 	//删除种类
; 77   : 	CGamePropertyTypeItem * pGamePropertyTypeItem=NULL;

  00049	c7 45 e4 00 00
	00 00		 mov	 DWORD PTR _pGamePropertyTypeItem$[ebp], 0

; 78   : 	POSITION Position=m_GamePropertyTypeItemMap.GetStartPosition();

  00050	8b 4d ec	 mov	 ecx, DWORD PTR _this$[ebp]
  00053	83 c1 04	 add	 ecx, 4
  00056	e8 00 00 00 00	 call	 ?GetStartPosition@?$CMap@KKPAVCGamePropertyTypeItem@NGamePropertyListManager@@AAPAV12@@@QBEPAU__POSITION@@XZ ; CMap<unsigned long,unsigned long,NGamePropertyListManager::CGamePropertyTypeItem *,NGamePropertyListManager::CGamePropertyTypeItem * &>::GetStartPosition
  0005b	89 45 e0	 mov	 DWORD PTR _Position$[ebp], eax
$LN2@CGamePrope:

; 79   : 	while (Position!=NULL)

  0005e	83 7d e0 00	 cmp	 DWORD PTR _Position$[ebp], 0
  00062	74 6d		 je	 SHORT $LN3@CGamePrope

; 80   : 	{
; 81   : 		m_GamePropertyTypeItemMap.GetNextAssoc(Position,wKey,pGamePropertyTypeItem);

  00064	8d 45 e4	 lea	 eax, DWORD PTR _pGamePropertyTypeItem$[ebp]
  00067	50		 push	 eax
  00068	8d 4d e8	 lea	 ecx, DWORD PTR _wKey$[ebp]
  0006b	51		 push	 ecx
  0006c	8d 55 e0	 lea	 edx, DWORD PTR _Position$[ebp]
  0006f	52		 push	 edx
  00070	8b 4d ec	 mov	 ecx, DWORD PTR _this$[ebp]
  00073	83 c1 04	 add	 ecx, 4
  00076	e8 00 00 00 00	 call	 ?GetNextAssoc@?$CMap@KKPAVCGamePropertyTypeItem@NGamePropertyListManager@@AAPAV12@@@QBEXAAPAU__POSITION@@AAKAAPAVCGamePropertyTypeItem@NGamePropertyListManager@@@Z ; CMap<unsigned long,unsigned long,NGamePropertyListManager::CGamePropertyTypeItem *,NGamePropertyListManager::CGamePropertyTypeItem * &>::GetNextAssoc

; 82   : 		SafeDelete(pGamePropertyTypeItem);

  0007b	c6 45 fc 08	 mov	 BYTE PTR __$EHRec$[ebp+12], 8
  0007f	8b 45 e4	 mov	 eax, DWORD PTR _pGamePropertyTypeItem$[ebp]
  00082	89 45 80	 mov	 DWORD PTR $T9[ebp], eax
  00085	6a 29		 push	 41			; 00000029H
  00087	8b 4d 80	 mov	 ecx, DWORD PTR $T9[ebp]
  0008a	51		 push	 ecx
  0008b	e8 00 00 00 00	 call	 ??3@YAXPAXI@Z		; operator delete
  00090	83 c4 08	 add	 esp, 8
  00093	eb 23		 jmp	 SHORT $LN39@CGamePrope
__catch$??1CGamePropertyListManager@NGamePropertyListManager@@UAE@XZ$0:
  00095	33 c0		 xor	 eax, eax
  00097	75 19		 jne	 SHORT $LN31@CGamePrope
  00099	8b 0d 00 00 00
	00		 mov	 ecx, DWORD PTR ?__LINE__Var@?0???1CGamePropertyListManager@NGamePropertyListManager@@UAE@XZ@4JA
  0009f	83 c1 0a	 add	 ecx, 10			; 0000000aH
  000a2	51		 push	 ecx
  000a3	68 00 00 00 00	 push	 OFFSET ??_C@_0FG@GCELCLHM@g?3?2?M?x?$LK?$PM?2happygamewh?2?$LH?$PO?N?q?$LG?K?2?O?$LF?M?$LD@
  000a8	e8 00 00 00 00	 call	 ?AfxAssertFailedLine@@YGHPBDH@Z ; AfxAssertFailedLine
  000ad	85 c0		 test	 eax, eax
  000af	74 01		 je	 SHORT $LN31@CGamePrope
  000b1	cc		 int	 3
$LN31@CGamePrope:
  000b2	b8 00 00 00 00	 mov	 eax, $LN64@CGamePrope
  000b7	c3		 ret	 0
$LN39@CGamePrope:
  000b8	c7 45 fc 07 00
	00 00		 mov	 DWORD PTR __$EHRec$[ebp+12], 7
  000bf	eb 07		 jmp	 SHORT __tryend$??1CGamePropertyListManager@NGamePropertyListManager@@UAE@XZ$1
$LN64@CGamePrope:
  000c1	c7 45 fc 07 00
	00 00		 mov	 DWORD PTR __$EHRec$[ebp+12], 7
__tryend$??1CGamePropertyListManager@NGamePropertyListManager@@UAE@XZ$1:
  000c8	c7 45 e4 00 00
	00 00		 mov	 DWORD PTR _pGamePropertyTypeItem$[ebp], 0

; 83   : 	}

  000cf	eb 8d		 jmp	 SHORT $LN2@CGamePrope
$LN3@CGamePrope:

; 84   : 	for (INT_PTR i=0;i<m_GamePropertyTypeItemArray.GetCount();i++)

  000d1	c7 45 dc 00 00
	00 00		 mov	 DWORD PTR _i$13[ebp], 0
  000d8	eb 09		 jmp	 SHORT $LN6@CGamePrope
$LN4@CGamePrope:
  000da	8b 45 dc	 mov	 eax, DWORD PTR _i$13[ebp]
  000dd	83 c0 01	 add	 eax, 1
  000e0	89 45 dc	 mov	 DWORD PTR _i$13[ebp], eax
$LN6@CGamePrope:
  000e3	8b 4d ec	 mov	 ecx, DWORD PTR _this$[ebp]
  000e6	83 c1 74	 add	 ecx, 116		; 00000074H
  000e9	e8 00 00 00 00	 call	 ?GetCount@?$CWHArray@PAVCGamePropertyTypeItem@NGamePropertyListManager@@ABQAV12@@@QBEHXZ ; CWHArray<NGamePropertyListManager::CGamePropertyTypeItem *,NGamePropertyListManager::CGamePropertyTypeItem * const &>::GetCount
  000ee	39 45 dc	 cmp	 DWORD PTR _i$13[ebp], eax
  000f1	7d 73		 jge	 SHORT $LN5@CGamePrope

; 85   : 	{
; 86   : 		pGamePropertyTypeItem=m_GamePropertyTypeItemArray[i];

  000f3	8b 45 dc	 mov	 eax, DWORD PTR _i$13[ebp]
  000f6	50		 push	 eax
  000f7	8b 4d ec	 mov	 ecx, DWORD PTR _this$[ebp]
  000fa	83 c1 74	 add	 ecx, 116		; 00000074H
  000fd	e8 00 00 00 00	 call	 ??A?$CWHArray@PAVCGamePropertyTypeItem@NGamePropertyListManager@@ABQAV12@@@QAEAAPAVCGamePropertyTypeItem@NGamePropertyListManager@@H@Z ; CWHArray<NGamePropertyListManager::CGamePropertyTypeItem *,NGamePropertyListManager::CGamePropertyTypeItem * const &>::operator[]
  00102	8b 08		 mov	 ecx, DWORD PTR [eax]
  00104	89 4d e4	 mov	 DWORD PTR _pGamePropertyTypeItem$[ebp], ecx

; 87   : 		SafeDelete(pGamePropertyTypeItem);

  00107	c6 45 fc 0a	 mov	 BYTE PTR __$EHRec$[ebp+12], 10 ; 0000000aH
  0010b	8b 45 e4	 mov	 eax, DWORD PTR _pGamePropertyTypeItem$[ebp]
  0010e	89 85 7c ff ff
	ff		 mov	 DWORD PTR $T8[ebp], eax
  00114	6a 29		 push	 41			; 00000029H
  00116	8b 8d 7c ff ff
	ff		 mov	 ecx, DWORD PTR $T8[ebp]
  0011c	51		 push	 ecx
  0011d	e8 00 00 00 00	 call	 ??3@YAXPAXI@Z		; operator delete
  00122	83 c4 08	 add	 esp, 8
  00125	eb 23		 jmp	 SHORT $LN41@CGamePrope
__catch$??1CGamePropertyListManager@NGamePropertyListManager@@UAE@XZ$2:
  00127	33 c0		 xor	 eax, eax
  00129	75 19		 jne	 SHORT $LN32@CGamePrope
  0012b	8b 0d 00 00 00
	00		 mov	 ecx, DWORD PTR ?__LINE__Var@?0???1CGamePropertyListManager@NGamePropertyListManager@@UAE@XZ@4JA
  00131	83 c1 0f	 add	 ecx, 15			; 0000000fH
  00134	51		 push	 ecx
  00135	68 00 00 00 00	 push	 OFFSET ??_C@_0FG@GCELCLHM@g?3?2?M?x?$LK?$PM?2happygamewh?2?$LH?$PO?N?q?$LG?K?2?O?$LF?M?$LD@
  0013a	e8 00 00 00 00	 call	 ?AfxAssertFailedLine@@YGHPBDH@Z ; AfxAssertFailedLine
  0013f	85 c0		 test	 eax, eax
  00141	74 01		 je	 SHORT $LN32@CGamePrope
  00143	cc		 int	 3
$LN32@CGamePrope:
  00144	b8 00 00 00 00	 mov	 eax, $LN66@CGamePrope
  00149	c3		 ret	 0
$LN41@CGamePrope:
  0014a	c7 45 fc 07 00
	00 00		 mov	 DWORD PTR __$EHRec$[ebp+12], 7
  00151	eb 07		 jmp	 SHORT __tryend$??1CGamePropertyListManager@NGamePropertyListManager@@UAE@XZ$3
$LN66@CGamePrope:
  00153	c7 45 fc 07 00
	00 00		 mov	 DWORD PTR __$EHRec$[ebp+12], 7
__tryend$??1CGamePropertyListManager@NGamePropertyListManager@@UAE@XZ$3:
  0015a	c7 45 e4 00 00
	00 00		 mov	 DWORD PTR _pGamePropertyTypeItem$[ebp], 0

; 88   : 	}

  00161	e9 74 ff ff ff	 jmp	 $LN4@CGamePrope
$LN5@CGamePrope:

; 89   : 	m_GamePropertyTypeItemMap.RemoveAll();

  00166	8b 4d ec	 mov	 ecx, DWORD PTR _this$[ebp]
  00169	83 c1 04	 add	 ecx, 4
  0016c	e8 00 00 00 00	 call	 ?RemoveAll@?$CMap@KKPAVCGamePropertyTypeItem@NGamePropertyListManager@@AAPAV12@@@QAEXXZ ; CMap<unsigned long,unsigned long,NGamePropertyListManager::CGamePropertyTypeItem *,NGamePropertyListManager::CGamePropertyTypeItem * &>::RemoveAll

; 90   : 	m_GamePropertyTypeItemArray.RemoveAll();

  00171	8b 4d ec	 mov	 ecx, DWORD PTR _this$[ebp]
  00174	83 c1 74	 add	 ecx, 116		; 00000074H
  00177	e8 00 00 00 00	 call	 ?RemoveAll@?$CWHArray@PAVCGamePropertyTypeItem@NGamePropertyListManager@@ABQAV12@@@QAEXXZ ; CWHArray<NGamePropertyListManager::CGamePropertyTypeItem *,NGamePropertyListManager::CGamePropertyTypeItem * const &>::RemoveAll

; 91   : 
; 92   : 	//删除关系
; 93   : 	CGamePropertyRelatItem * pGamePropertyRelatItem=NULL;

  0017c	c7 45 d8 00 00
	00 00		 mov	 DWORD PTR _pGamePropertyRelatItem$[ebp], 0

; 94   : 	Position=m_GamePropertyRelatItemMap.GetStartPosition();

  00183	8b 4d ec	 mov	 ecx, DWORD PTR _this$[ebp]
  00186	83 c1 20	 add	 ecx, 32			; 00000020H
  00189	e8 00 00 00 00	 call	 ?GetStartPosition@?$CMap@KKPAVCGamePropertyRelatItem@NGamePropertyListManager@@AAPAV12@@@QBEPAU__POSITION@@XZ ; CMap<unsigned long,unsigned long,NGamePropertyListManager::CGamePropertyRelatItem *,NGamePropertyListManager::CGamePropertyRelatItem * &>::GetStartPosition
  0018e	89 45 e0	 mov	 DWORD PTR _Position$[ebp], eax
$LN7@CGamePrope:

; 95   : 	while (Position!=NULL)

  00191	83 7d e0 00	 cmp	 DWORD PTR _Position$[ebp], 0
  00195	74 73		 je	 SHORT $LN8@CGamePrope

; 96   : 	{
; 97   : 		m_GamePropertyRelatItemMap.GetNextAssoc(Position,wKey,pGamePropertyRelatItem);

  00197	8d 45 d8	 lea	 eax, DWORD PTR _pGamePropertyRelatItem$[ebp]
  0019a	50		 push	 eax
  0019b	8d 4d e8	 lea	 ecx, DWORD PTR _wKey$[ebp]
  0019e	51		 push	 ecx
  0019f	8d 55 e0	 lea	 edx, DWORD PTR _Position$[ebp]
  001a2	52		 push	 edx
  001a3	8b 4d ec	 mov	 ecx, DWORD PTR _this$[ebp]
  001a6	83 c1 20	 add	 ecx, 32			; 00000020H
  001a9	e8 00 00 00 00	 call	 ?GetNextAssoc@?$CMap@KKPAVCGamePropertyRelatItem@NGamePropertyListManager@@AAPAV12@@@QBEXAAPAU__POSITION@@AAKAAPAVCGamePropertyRelatItem@NGamePropertyListManager@@@Z ; CMap<unsigned long,unsigned long,NGamePropertyListManager::CGamePropertyRelatItem *,NGamePropertyListManager::CGamePropertyRelatItem * &>::GetNextAssoc

; 98   : 		SafeDelete(pGamePropertyRelatItem);

  001ae	c6 45 fc 0c	 mov	 BYTE PTR __$EHRec$[ebp+12], 12 ; 0000000cH
  001b2	8b 45 d8	 mov	 eax, DWORD PTR _pGamePropertyRelatItem$[ebp]
  001b5	89 85 78 ff ff
	ff		 mov	 DWORD PTR $T7[ebp], eax
  001bb	6a 09		 push	 9
  001bd	8b 8d 78 ff ff
	ff		 mov	 ecx, DWORD PTR $T7[ebp]
  001c3	51		 push	 ecx
  001c4	e8 00 00 00 00	 call	 ??3@YAXPAXI@Z		; operator delete
  001c9	83 c4 08	 add	 esp, 8
  001cc	eb 23		 jmp	 SHORT $LN43@CGamePrope
__catch$??1CGamePropertyListManager@NGamePropertyListManager@@UAE@XZ$4:
  001ce	33 c0		 xor	 eax, eax
  001d0	75 19		 jne	 SHORT $LN33@CGamePrope
  001d2	8b 0d 00 00 00
	00		 mov	 ecx, DWORD PTR ?__LINE__Var@?0???1CGamePropertyListManager@NGamePropertyListManager@@UAE@XZ@4JA
  001d8	83 c1 1a	 add	 ecx, 26			; 0000001aH
  001db	51		 push	 ecx
  001dc	68 00 00 00 00	 push	 OFFSET ??_C@_0FG@GCELCLHM@g?3?2?M?x?$LK?$PM?2happygamewh?2?$LH?$PO?N?q?$LG?K?2?O?$LF?M?$LD@
  001e1	e8 00 00 00 00	 call	 ?AfxAssertFailedLine@@YGHPBDH@Z ; AfxAssertFailedLine
  001e6	85 c0		 test	 eax, eax
  001e8	74 01		 je	 SHORT $LN33@CGamePrope
  001ea	cc		 int	 3
$LN33@CGamePrope:
  001eb	b8 00 00 00 00	 mov	 eax, $LN68@CGamePrope
  001f0	c3		 ret	 0
$LN43@CGamePrope:
  001f1	c7 45 fc 07 00
	00 00		 mov	 DWORD PTR __$EHRec$[ebp+12], 7
  001f8	eb 07		 jmp	 SHORT __tryend$??1CGamePropertyListManager@NGamePropertyListManager@@UAE@XZ$5
$LN68@CGamePrope:
  001fa	c7 45 fc 07 00
	00 00		 mov	 DWORD PTR __$EHRec$[ebp+12], 7
__tryend$??1CGamePropertyListManager@NGamePropertyListManager@@UAE@XZ$5:
  00201	c7 45 d8 00 00
	00 00		 mov	 DWORD PTR _pGamePropertyRelatItem$[ebp], 0

; 99   : 	}

  00208	eb 87		 jmp	 SHORT $LN7@CGamePrope
$LN8@CGamePrope:

; 100  : 	for (INT_PTR i=0;i<m_GamePropertyRelatItemArray.GetCount();i++)

  0020a	c7 45 d4 00 00
	00 00		 mov	 DWORD PTR _i$12[ebp], 0
  00211	eb 09		 jmp	 SHORT $LN11@CGamePrope
$LN9@CGamePrope:
  00213	8b 45 d4	 mov	 eax, DWORD PTR _i$12[ebp]
  00216	83 c0 01	 add	 eax, 1
  00219	89 45 d4	 mov	 DWORD PTR _i$12[ebp], eax
$LN11@CGamePrope:
  0021c	8b 4d ec	 mov	 ecx, DWORD PTR _this$[ebp]
  0021f	81 c1 88 00 00
	00		 add	 ecx, 136		; 00000088H
  00225	e8 00 00 00 00	 call	 ?GetCount@?$CWHArray@PAVCGamePropertyRelatItem@NGamePropertyListManager@@ABQAV12@@@QBEHXZ ; CWHArray<NGamePropertyListManager::CGamePropertyRelatItem *,NGamePropertyListManager::CGamePropertyRelatItem * const &>::GetCount
  0022a	39 45 d4	 cmp	 DWORD PTR _i$12[ebp], eax
  0022d	7d 76		 jge	 SHORT $LN10@CGamePrope

; 101  : 	{
; 102  : 		pGamePropertyRelatItem=m_GamePropertyRelatItemArray[i];

  0022f	8b 45 d4	 mov	 eax, DWORD PTR _i$12[ebp]
  00232	50		 push	 eax
  00233	8b 4d ec	 mov	 ecx, DWORD PTR _this$[ebp]
  00236	81 c1 88 00 00
	00		 add	 ecx, 136		; 00000088H
  0023c	e8 00 00 00 00	 call	 ??A?$CWHArray@PAVCGamePropertyRelatItem@NGamePropertyListManager@@ABQAV12@@@QAEAAPAVCGamePropertyRelatItem@NGamePropertyListManager@@H@Z ; CWHArray<NGamePropertyListManager::CGamePropertyRelatItem *,NGamePropertyListManager::CGamePropertyRelatItem * const &>::operator[]
  00241	8b 08		 mov	 ecx, DWORD PTR [eax]
  00243	89 4d d8	 mov	 DWORD PTR _pGamePropertyRelatItem$[ebp], ecx

; 103  : 		SafeDelete(pGamePropertyRelatItem);

  00246	c6 45 fc 0e	 mov	 BYTE PTR __$EHRec$[ebp+12], 14 ; 0000000eH
  0024a	8b 45 d8	 mov	 eax, DWORD PTR _pGamePropertyRelatItem$[ebp]
  0024d	89 85 74 ff ff
	ff		 mov	 DWORD PTR $T6[ebp], eax
  00253	6a 09		 push	 9
  00255	8b 8d 74 ff ff
	ff		 mov	 ecx, DWORD PTR $T6[ebp]
  0025b	51		 push	 ecx
  0025c	e8 00 00 00 00	 call	 ??3@YAXPAXI@Z		; operator delete
  00261	83 c4 08	 add	 esp, 8
  00264	eb 23		 jmp	 SHORT $LN45@CGamePrope
__catch$??1CGamePropertyListManager@NGamePropertyListManager@@UAE@XZ$6:
  00266	33 c0		 xor	 eax, eax
  00268	75 19		 jne	 SHORT $LN34@CGamePrope
  0026a	8b 0d 00 00 00
	00		 mov	 ecx, DWORD PTR ?__LINE__Var@?0???1CGamePropertyListManager@NGamePropertyListManager@@UAE@XZ@4JA
  00270	83 c1 1f	 add	 ecx, 31			; 0000001fH
  00273	51		 push	 ecx
  00274	68 00 00 00 00	 push	 OFFSET ??_C@_0FG@GCELCLHM@g?3?2?M?x?$LK?$PM?2happygamewh?2?$LH?$PO?N?q?$LG?K?2?O?$LF?M?$LD@
  00279	e8 00 00 00 00	 call	 ?AfxAssertFailedLine@@YGHPBDH@Z ; AfxAssertFailedLine
  0027e	85 c0		 test	 eax, eax
  00280	74 01		 je	 SHORT $LN34@CGamePrope
  00282	cc		 int	 3
$LN34@CGamePrope:
  00283	b8 00 00 00 00	 mov	 eax, $LN70@CGamePrope
  00288	c3		 ret	 0
$LN45@CGamePrope:
  00289	c7 45 fc 07 00
	00 00		 mov	 DWORD PTR __$EHRec$[ebp+12], 7
  00290	eb 07		 jmp	 SHORT __tryend$??1CGamePropertyListManager@NGamePropertyListManager@@UAE@XZ$7
$LN70@CGamePrope:
  00292	c7 45 fc 07 00
	00 00		 mov	 DWORD PTR __$EHRec$[ebp+12], 7
__tryend$??1CGamePropertyListManager@NGamePropertyListManager@@UAE@XZ$7:
  00299	c7 45 d8 00 00
	00 00		 mov	 DWORD PTR _pGamePropertyRelatItem$[ebp], 0

; 104  : 	}

  002a0	e9 6e ff ff ff	 jmp	 $LN9@CGamePrope
$LN10@CGamePrope:

; 105  : 	m_GamePropertyRelatItemMap.RemoveAll();

  002a5	8b 4d ec	 mov	 ecx, DWORD PTR _this$[ebp]
  002a8	83 c1 20	 add	 ecx, 32			; 00000020H
  002ab	e8 00 00 00 00	 call	 ?RemoveAll@?$CMap@KKPAVCGamePropertyRelatItem@NGamePropertyListManager@@AAPAV12@@@QAEXXZ ; CMap<unsigned long,unsigned long,NGamePropertyListManager::CGamePropertyRelatItem *,NGamePropertyListManager::CGamePropertyRelatItem * &>::RemoveAll

; 106  : 	m_GamePropertyRelatItemArray.RemoveAll();

  002b0	8b 4d ec	 mov	 ecx, DWORD PTR _this$[ebp]
  002b3	81 c1 88 00 00
	00		 add	 ecx, 136		; 00000088H
  002b9	e8 00 00 00 00	 call	 ?RemoveAll@?$CWHArray@PAVCGamePropertyRelatItem@NGamePropertyListManager@@ABQAV12@@@QAEXXZ ; CWHArray<NGamePropertyListManager::CGamePropertyRelatItem *,NGamePropertyListManager::CGamePropertyRelatItem * const &>::RemoveAll

; 107  : 
; 108  : 	//删除道具
; 109  : 	CGamePropertyItem * pGamePropertyItem=NULL;

  002be	c7 45 d0 00 00
	00 00		 mov	 DWORD PTR _pGamePropertyItem$[ebp], 0

; 110  : 	Position=m_GamePropertyItemMap.GetStartPosition();

  002c5	8b 4d ec	 mov	 ecx, DWORD PTR _this$[ebp]
  002c8	83 c1 3c	 add	 ecx, 60			; 0000003cH
  002cb	e8 00 00 00 00	 call	 ?GetStartPosition@?$CMap@KKPAVCGamePropertyItem@NGamePropertyListManager@@AAPAV12@@@QBEPAU__POSITION@@XZ ; CMap<unsigned long,unsigned long,NGamePropertyListManager::CGamePropertyItem *,NGamePropertyListManager::CGamePropertyItem * &>::GetStartPosition
  002d0	89 45 e0	 mov	 DWORD PTR _Position$[ebp], eax
$LN12@CGamePrope:

; 111  : 	while (Position!=NULL)

  002d3	83 7d e0 00	 cmp	 DWORD PTR _Position$[ebp], 0
  002d7	74 76		 je	 SHORT $LN13@CGamePrope

; 112  : 	{
; 113  : 		m_GamePropertyItemMap.GetNextAssoc(Position,wKey,pGamePropertyItem);

  002d9	8d 45 d0	 lea	 eax, DWORD PTR _pGamePropertyItem$[ebp]
  002dc	50		 push	 eax
  002dd	8d 4d e8	 lea	 ecx, DWORD PTR _wKey$[ebp]
  002e0	51		 push	 ecx
  002e1	8d 55 e0	 lea	 edx, DWORD PTR _Position$[ebp]
  002e4	52		 push	 edx
  002e5	8b 4d ec	 mov	 ecx, DWORD PTR _this$[ebp]
  002e8	83 c1 3c	 add	 ecx, 60			; 0000003cH
  002eb	e8 00 00 00 00	 call	 ?GetNextAssoc@?$CMap@KKPAVCGamePropertyItem@NGamePropertyListManager@@AAPAV12@@@QBEXAAPAU__POSITION@@AAKAAPAVCGamePropertyItem@NGamePropertyListManager@@@Z ; CMap<unsigned long,unsigned long,NGamePropertyListManager::CGamePropertyItem *,NGamePropertyListManager::CGamePropertyItem * &>::GetNextAssoc

; 114  : 		SafeDelete(pGamePropertyItem);

  002f0	c6 45 fc 10	 mov	 BYTE PTR __$EHRec$[ebp+12], 16 ; 00000010H
  002f4	8b 45 d0	 mov	 eax, DWORD PTR _pGamePropertyItem$[ebp]
  002f7	89 85 70 ff ff
	ff		 mov	 DWORD PTR $T5[ebp], eax
  002fd	68 00 01 00 00	 push	 256			; 00000100H
  00302	8b 8d 70 ff ff
	ff		 mov	 ecx, DWORD PTR $T5[ebp]
  00308	51		 push	 ecx
  00309	e8 00 00 00 00	 call	 ??3@YAXPAXI@Z		; operator delete
  0030e	83 c4 08	 add	 esp, 8
  00311	eb 23		 jmp	 SHORT $LN47@CGamePrope
__catch$??1CGamePropertyListManager@NGamePropertyListManager@@UAE@XZ$8:
  00313	33 c0		 xor	 eax, eax
  00315	75 19		 jne	 SHORT $LN35@CGamePrope
  00317	8b 0d 00 00 00
	00		 mov	 ecx, DWORD PTR ?__LINE__Var@?0???1CGamePropertyListManager@NGamePropertyListManager@@UAE@XZ@4JA
  0031d	83 c1 2a	 add	 ecx, 42			; 0000002aH
  00320	51		 push	 ecx
  00321	68 00 00 00 00	 push	 OFFSET ??_C@_0FG@GCELCLHM@g?3?2?M?x?$LK?$PM?2happygamewh?2?$LH?$PO?N?q?$LG?K?2?O?$LF?M?$LD@
  00326	e8 00 00 00 00	 call	 ?AfxAssertFailedLine@@YGHPBDH@Z ; AfxAssertFailedLine
  0032b	85 c0		 test	 eax, eax
  0032d	74 01		 je	 SHORT $LN35@CGamePrope
  0032f	cc		 int	 3
$LN35@CGamePrope:
  00330	b8 00 00 00 00	 mov	 eax, $LN72@CGamePrope
  00335	c3		 ret	 0
$LN47@CGamePrope:
  00336	c7 45 fc 07 00
	00 00		 mov	 DWORD PTR __$EHRec$[ebp+12], 7
  0033d	eb 07		 jmp	 SHORT __tryend$??1CGamePropertyListManager@NGamePropertyListManager@@UAE@XZ$9
$LN72@CGamePrope:
  0033f	c7 45 fc 07 00
	00 00		 mov	 DWORD PTR __$EHRec$[ebp+12], 7
__tryend$??1CGamePropertyListManager@NGamePropertyListManager@@UAE@XZ$9:
  00346	c7 45 d0 00 00
	00 00		 mov	 DWORD PTR _pGamePropertyItem$[ebp], 0

; 115  : 	}

  0034d	eb 84		 jmp	 SHORT $LN12@CGamePrope
$LN13@CGamePrope:

; 116  : 	for (INT_PTR i=0;i<m_GamePropertyItemArray.GetCount();i++)

  0034f	c7 45 cc 00 00
	00 00		 mov	 DWORD PTR _i$11[ebp], 0
  00356	eb 09		 jmp	 SHORT $LN16@CGamePrope
$LN14@CGamePrope:
  00358	8b 45 cc	 mov	 eax, DWORD PTR _i$11[ebp]
  0035b	83 c0 01	 add	 eax, 1
  0035e	89 45 cc	 mov	 DWORD PTR _i$11[ebp], eax
$LN16@CGamePrope:
  00361	8b 4d ec	 mov	 ecx, DWORD PTR _this$[ebp]
  00364	81 c1 9c 00 00
	00		 add	 ecx, 156		; 0000009cH
  0036a	e8 00 00 00 00	 call	 ?GetCount@?$CWHArray@PAVCGamePropertyItem@NGamePropertyListManager@@ABQAV12@@@QBEHXZ ; CWHArray<NGamePropertyListManager::CGamePropertyItem *,NGamePropertyListManager::CGamePropertyItem * const &>::GetCount
  0036f	39 45 cc	 cmp	 DWORD PTR _i$11[ebp], eax
  00372	7d 79		 jge	 SHORT $LN15@CGamePrope

; 117  : 	{
; 118  : 		pGamePropertyItem=m_GamePropertyItemArray[i];

  00374	8b 45 cc	 mov	 eax, DWORD PTR _i$11[ebp]
  00377	50		 push	 eax
  00378	8b 4d ec	 mov	 ecx, DWORD PTR _this$[ebp]
  0037b	81 c1 9c 00 00
	00		 add	 ecx, 156		; 0000009cH
  00381	e8 00 00 00 00	 call	 ??A?$CWHArray@PAVCGamePropertyItem@NGamePropertyListManager@@ABQAV12@@@QAEAAPAVCGamePropertyItem@NGamePropertyListManager@@H@Z ; CWHArray<NGamePropertyListManager::CGamePropertyItem *,NGamePropertyListManager::CGamePropertyItem * const &>::operator[]
  00386	8b 08		 mov	 ecx, DWORD PTR [eax]
  00388	89 4d d0	 mov	 DWORD PTR _pGamePropertyItem$[ebp], ecx

; 119  : 		SafeDelete(pGamePropertyItem);

  0038b	c6 45 fc 12	 mov	 BYTE PTR __$EHRec$[ebp+12], 18 ; 00000012H
  0038f	8b 45 d0	 mov	 eax, DWORD PTR _pGamePropertyItem$[ebp]
  00392	89 85 6c ff ff
	ff		 mov	 DWORD PTR $T4[ebp], eax
  00398	68 00 01 00 00	 push	 256			; 00000100H
  0039d	8b 8d 6c ff ff
	ff		 mov	 ecx, DWORD PTR $T4[ebp]
  003a3	51		 push	 ecx
  003a4	e8 00 00 00 00	 call	 ??3@YAXPAXI@Z		; operator delete
  003a9	83 c4 08	 add	 esp, 8
  003ac	eb 23		 jmp	 SHORT $LN49@CGamePrope
__catch$??1CGamePropertyListManager@NGamePropertyListManager@@UAE@XZ$10:
  003ae	33 c0		 xor	 eax, eax
  003b0	75 19		 jne	 SHORT $LN36@CGamePrope
  003b2	8b 0d 00 00 00
	00		 mov	 ecx, DWORD PTR ?__LINE__Var@?0???1CGamePropertyListManager@NGamePropertyListManager@@UAE@XZ@4JA
  003b8	83 c1 2f	 add	 ecx, 47			; 0000002fH
  003bb	51		 push	 ecx
  003bc	68 00 00 00 00	 push	 OFFSET ??_C@_0FG@GCELCLHM@g?3?2?M?x?$LK?$PM?2happygamewh?2?$LH?$PO?N?q?$LG?K?2?O?$LF?M?$LD@
  003c1	e8 00 00 00 00	 call	 ?AfxAssertFailedLine@@YGHPBDH@Z ; AfxAssertFailedLine
  003c6	85 c0		 test	 eax, eax
  003c8	74 01		 je	 SHORT $LN36@CGamePrope
  003ca	cc		 int	 3
$LN36@CGamePrope:
  003cb	b8 00 00 00 00	 mov	 eax, $LN74@CGamePrope
  003d0	c3		 ret	 0
$LN49@CGamePrope:
  003d1	c7 45 fc 07 00
	00 00		 mov	 DWORD PTR __$EHRec$[ebp+12], 7
  003d8	eb 07		 jmp	 SHORT __tryend$??1CGamePropertyListManager@NGamePropertyListManager@@UAE@XZ$11
$LN74@CGamePrope:
  003da	c7 45 fc 07 00
	00 00		 mov	 DWORD PTR __$EHRec$[ebp+12], 7
__tryend$??1CGamePropertyListManager@NGamePropertyListManager@@UAE@XZ$11:
  003e1	c7 45 d0 00 00
	00 00		 mov	 DWORD PTR _pGamePropertyItem$[ebp], 0

; 120  : 	}

  003e8	e9 6b ff ff ff	 jmp	 $LN14@CGamePrope
$LN15@CGamePrope:

; 121  : 	m_GamePropertyItemMap.RemoveAll();

  003ed	8b 4d ec	 mov	 ecx, DWORD PTR _this$[ebp]
  003f0	83 c1 3c	 add	 ecx, 60			; 0000003cH
  003f3	e8 00 00 00 00	 call	 ?RemoveAll@?$CMap@KKPAVCGamePropertyItem@NGamePropertyListManager@@AAPAV12@@@QAEXXZ ; CMap<unsigned long,unsigned long,NGamePropertyListManager::CGamePropertyItem *,NGamePropertyListManager::CGamePropertyItem * &>::RemoveAll

; 122  : 	m_GamePropertyItemArray.RemoveAll();

  003f8	8b 4d ec	 mov	 ecx, DWORD PTR _this$[ebp]
  003fb	81 c1 9c 00 00
	00		 add	 ecx, 156		; 0000009cH
  00401	e8 00 00 00 00	 call	 ?RemoveAll@?$CWHArray@PAVCGamePropertyItem@NGamePropertyListManager@@ABQAV12@@@QAEXXZ ; CWHArray<NGamePropertyListManager::CGamePropertyItem *,NGamePropertyListManager::CGamePropertyItem * const &>::RemoveAll

; 123  : 
; 124  : 	//删除子道具
; 125  : 	CGamePropertySubItem * pGamePropertySubItem=NULL;

  00406	c7 45 c8 00 00
	00 00		 mov	 DWORD PTR _pGamePropertySubItem$[ebp], 0

; 126  : 	Position=m_GamePropertySubItemMap.GetStartPosition();

  0040d	8b 4d ec	 mov	 ecx, DWORD PTR _this$[ebp]
  00410	83 c1 58	 add	 ecx, 88			; 00000058H
  00413	e8 00 00 00 00	 call	 ?GetStartPosition@?$CMap@KKPAVCGamePropertySubItem@NGamePropertyListManager@@AAPAV12@@@QBEPAU__POSITION@@XZ ; CMap<unsigned long,unsigned long,NGamePropertyListManager::CGamePropertySubItem *,NGamePropertyListManager::CGamePropertySubItem * &>::GetStartPosition
  00418	89 45 e0	 mov	 DWORD PTR _Position$[ebp], eax
$LN17@CGamePrope:

; 127  : 	while (Position!=NULL)

  0041b	83 7d e0 00	 cmp	 DWORD PTR _Position$[ebp], 0
  0041f	74 73		 je	 SHORT $LN18@CGamePrope

; 128  : 	{
; 129  : 		m_GamePropertySubItemMap.GetNextAssoc(Position,wKey,pGamePropertySubItem);

  00421	8d 45 c8	 lea	 eax, DWORD PTR _pGamePropertySubItem$[ebp]
  00424	50		 push	 eax
  00425	8d 4d e8	 lea	 ecx, DWORD PTR _wKey$[ebp]
  00428	51		 push	 ecx
  00429	8d 55 e0	 lea	 edx, DWORD PTR _Position$[ebp]
  0042c	52		 push	 edx
  0042d	8b 4d ec	 mov	 ecx, DWORD PTR _this$[ebp]
  00430	83 c1 58	 add	 ecx, 88			; 00000058H
  00433	e8 00 00 00 00	 call	 ?GetNextAssoc@?$CMap@KKPAVCGamePropertySubItem@NGamePropertyListManager@@AAPAV12@@@QBEXAAPAU__POSITION@@AAKAAPAVCGamePropertySubItem@NGamePropertyListManager@@@Z ; CMap<unsigned long,unsigned long,NGamePropertyListManager::CGamePropertySubItem *,NGamePropertyListManager::CGamePropertySubItem * &>::GetNextAssoc

; 130  : 		SafeDelete(pGamePropertySubItem);

  00438	c6 45 fc 14	 mov	 BYTE PTR __$EHRec$[ebp+12], 20 ; 00000014H
  0043c	8b 45 c8	 mov	 eax, DWORD PTR _pGamePropertySubItem$[ebp]
  0043f	89 85 68 ff ff
	ff		 mov	 DWORD PTR $T3[ebp], eax
  00445	6a 11		 push	 17			; 00000011H
  00447	8b 8d 68 ff ff
	ff		 mov	 ecx, DWORD PTR $T3[ebp]
  0044d	51		 push	 ecx
  0044e	e8 00 00 00 00	 call	 ??3@YAXPAXI@Z		; operator delete
  00453	83 c4 08	 add	 esp, 8
  00456	eb 23		 jmp	 SHORT $LN51@CGamePrope
__catch$??1CGamePropertyListManager@NGamePropertyListManager@@UAE@XZ$12:
  00458	33 c0		 xor	 eax, eax
  0045a	75 19		 jne	 SHORT $LN37@CGamePrope
  0045c	8b 0d 00 00 00
	00		 mov	 ecx, DWORD PTR ?__LINE__Var@?0???1CGamePropertyListManager@NGamePropertyListManager@@UAE@XZ@4JA
  00462	83 c1 3a	 add	 ecx, 58			; 0000003aH
  00465	51		 push	 ecx
  00466	68 00 00 00 00	 push	 OFFSET ??_C@_0FG@GCELCLHM@g?3?2?M?x?$LK?$PM?2happygamewh?2?$LH?$PO?N?q?$LG?K?2?O?$LF?M?$LD@
  0046b	e8 00 00 00 00	 call	 ?AfxAssertFailedLine@@YGHPBDH@Z ; AfxAssertFailedLine
  00470	85 c0		 test	 eax, eax
  00472	74 01		 je	 SHORT $LN37@CGamePrope
  00474	cc		 int	 3
$LN37@CGamePrope:
  00475	b8 00 00 00 00	 mov	 eax, $LN76@CGamePrope
  0047a	c3		 ret	 0
$LN51@CGamePrope:
  0047b	c7 45 fc 07 00
	00 00		 mov	 DWORD PTR __$EHRec$[ebp+12], 7
  00482	eb 07		 jmp	 SHORT __tryend$??1CGamePropertyListManager@NGamePropertyListManager@@UAE@XZ$13
$LN76@CGamePrope:
  00484	c7 45 fc 07 00
	00 00		 mov	 DWORD PTR __$EHRec$[ebp+12], 7
__tryend$??1CGamePropertyListManager@NGamePropertyListManager@@UAE@XZ$13:
  0048b	c7 45 c8 00 00
	00 00		 mov	 DWORD PTR _pGamePropertySubItem$[ebp], 0

; 131  : 	}

  00492	eb 87		 jmp	 SHORT $LN17@CGamePrope
$LN18@CGamePrope:

; 132  : 	for (INT_PTR i=0;i<m_GamePropertySubItemArray.GetCount();i++)

  00494	c7 45 c4 00 00
	00 00		 mov	 DWORD PTR _i$10[ebp], 0
  0049b	eb 09		 jmp	 SHORT $LN21@CGamePrope
$LN19@CGamePrope:
  0049d	8b 45 c4	 mov	 eax, DWORD PTR _i$10[ebp]
  004a0	83 c0 01	 add	 eax, 1
  004a3	89 45 c4	 mov	 DWORD PTR _i$10[ebp], eax
$LN21@CGamePrope:
  004a6	8b 4d ec	 mov	 ecx, DWORD PTR _this$[ebp]
  004a9	81 c1 b0 00 00
	00		 add	 ecx, 176		; 000000b0H
  004af	e8 00 00 00 00	 call	 ?GetCount@?$CWHArray@PAVCGamePropertySubItem@NGamePropertyListManager@@ABQAV12@@@QBEHXZ ; CWHArray<NGamePropertyListManager::CGamePropertySubItem *,NGamePropertyListManager::CGamePropertySubItem * const &>::GetCount
  004b4	39 45 c4	 cmp	 DWORD PTR _i$10[ebp], eax
  004b7	7d 76		 jge	 SHORT $LN20@CGamePrope

; 133  : 	{
; 134  : 		pGamePropertySubItem=m_GamePropertySubItemArray[i];

  004b9	8b 45 c4	 mov	 eax, DWORD PTR _i$10[ebp]
  004bc	50		 push	 eax
  004bd	8b 4d ec	 mov	 ecx, DWORD PTR _this$[ebp]
  004c0	81 c1 b0 00 00
	00		 add	 ecx, 176		; 000000b0H
  004c6	e8 00 00 00 00	 call	 ??A?$CWHArray@PAVCGamePropertySubItem@NGamePropertyListManager@@ABQAV12@@@QAEAAPAVCGamePropertySubItem@NGamePropertyListManager@@H@Z ; CWHArray<NGamePropertyListManager::CGamePropertySubItem *,NGamePropertyListManager::CGamePropertySubItem * const &>::operator[]
  004cb	8b 08		 mov	 ecx, DWORD PTR [eax]
  004cd	89 4d c8	 mov	 DWORD PTR _pGamePropertySubItem$[ebp], ecx

; 135  : 		SafeDelete(pGamePropertySubItem);

  004d0	c6 45 fc 16	 mov	 BYTE PTR __$EHRec$[ebp+12], 22 ; 00000016H
  004d4	8b 45 c8	 mov	 eax, DWORD PTR _pGamePropertySubItem$[ebp]
  004d7	89 85 64 ff ff
	ff		 mov	 DWORD PTR $T2[ebp], eax
  004dd	6a 11		 push	 17			; 00000011H
  004df	8b 8d 64 ff ff
	ff		 mov	 ecx, DWORD PTR $T2[ebp]
  004e5	51		 push	 ecx
  004e6	e8 00 00 00 00	 call	 ??3@YAXPAXI@Z		; operator delete
  004eb	83 c4 08	 add	 esp, 8
  004ee	eb 23		 jmp	 SHORT $LN53@CGamePrope
__catch$??1CGamePropertyListManager@NGamePropertyListManager@@UAE@XZ$14:
  004f0	33 c0		 xor	 eax, eax
  004f2	75 19		 jne	 SHORT $LN38@CGamePrope
  004f4	8b 0d 00 00 00
	00		 mov	 ecx, DWORD PTR ?__LINE__Var@?0???1CGamePropertyListManager@NGamePropertyListManager@@UAE@XZ@4JA
  004fa	83 c1 3f	 add	 ecx, 63			; 0000003fH
  004fd	51		 push	 ecx
  004fe	68 00 00 00 00	 push	 OFFSET ??_C@_0FG@GCELCLHM@g?3?2?M?x?$LK?$PM?2happygamewh?2?$LH?$PO?N?q?$LG?K?2?O?$LF?M?$LD@
  00503	e8 00 00 00 00	 call	 ?AfxAssertFailedLine@@YGHPBDH@Z ; AfxAssertFailedLine
  00508	85 c0		 test	 eax, eax
  0050a	74 01		 je	 SHORT $LN38@CGamePrope
  0050c	cc		 int	 3
$LN38@CGamePrope:
  0050d	b8 00 00 00 00	 mov	 eax, $LN78@CGamePrope
  00512	c3		 ret	 0
$LN53@CGamePrope:
  00513	c7 45 fc 07 00
	00 00		 mov	 DWORD PTR __$EHRec$[ebp+12], 7
  0051a	eb 07		 jmp	 SHORT __tryend$??1CGamePropertyListManager@NGamePropertyListManager@@UAE@XZ$15
$LN78@CGamePrope:
  0051c	c7 45 fc 07 00
	00 00		 mov	 DWORD PTR __$EHRec$[ebp+12], 7
__tryend$??1CGamePropertyListManager@NGamePropertyListManager@@UAE@XZ$15:
  00523	c7 45 c8 00 00
	00 00		 mov	 DWORD PTR _pGamePropertySubItem$[ebp], 0

; 136  : 	}

  0052a	e9 6e ff ff ff	 jmp	 $LN19@CGamePrope
$LN20@CGamePrope:

; 137  : 	m_GamePropertySubItemMap.RemoveAll();

  0052f	8b 4d ec	 mov	 ecx, DWORD PTR _this$[ebp]
  00532	83 c1 58	 add	 ecx, 88			; 00000058H
  00535	e8 00 00 00 00	 call	 ?RemoveAll@?$CMap@KKPAVCGamePropertySubItem@NGamePropertyListManager@@AAPAV12@@@QAEXXZ ; CMap<unsigned long,unsigned long,NGamePropertyListManager::CGamePropertySubItem *,NGamePropertyListManager::CGamePropertySubItem * &>::RemoveAll

; 138  : 	m_GamePropertySubItemArray.RemoveAll();

  0053a	8b 4d ec	 mov	 ecx, DWORD PTR _this$[ebp]
  0053d	81 c1 b0 00 00
	00		 add	 ecx, 176		; 000000b0H
  00543	e8 00 00 00 00	 call	 ?RemoveAll@?$CWHArray@PAVCGamePropertySubItem@NGamePropertyListManager@@ABQAV12@@@QAEXXZ ; CWHArray<NGamePropertyListManager::CGamePropertySubItem *,NGamePropertyListManager::CGamePropertySubItem * const &>::RemoveAll

; 139  : 
; 140  : 	return;
; 141  : }

  00548	c6 45 fc 06	 mov	 BYTE PTR __$EHRec$[ebp+12], 6
  0054c	8b 4d ec	 mov	 ecx, DWORD PTR _this$[ebp]
  0054f	81 c1 b0 00 00
	00		 add	 ecx, 176		; 000000b0H
  00555	e8 00 00 00 00	 call	 ??1?$CWHArray@PAVCGamePropertySubItem@NGamePropertyListManager@@ABQAV12@@@UAE@XZ ; CWHArray<NGamePropertyListManager::CGamePropertySubItem *,NGamePropertyListManager::CGamePropertySubItem * const &>::~CWHArray<NGamePropertyListManager::CGamePropertySubItem *,NGamePropertyListManager::CGamePropertySubItem * const &>
  0055a	c6 45 fc 05	 mov	 BYTE PTR __$EHRec$[ebp+12], 5
  0055e	8b 4d ec	 mov	 ecx, DWORD PTR _this$[ebp]
  00561	81 c1 9c 00 00
	00		 add	 ecx, 156		; 0000009cH
  00567	e8 00 00 00 00	 call	 ??1?$CWHArray@PAVCGamePropertyItem@NGamePropertyListManager@@ABQAV12@@@UAE@XZ ; CWHArray<NGamePropertyListManager::CGamePropertyItem *,NGamePropertyListManager::CGamePropertyItem * const &>::~CWHArray<NGamePropertyListManager::CGamePropertyItem *,NGamePropertyListManager::CGamePropertyItem * const &>
  0056c	c6 45 fc 04	 mov	 BYTE PTR __$EHRec$[ebp+12], 4
  00570	8b 4d ec	 mov	 ecx, DWORD PTR _this$[ebp]
  00573	81 c1 88 00 00
	00		 add	 ecx, 136		; 00000088H
  00579	e8 00 00 00 00	 call	 ??1?$CWHArray@PAVCGamePropertyRelatItem@NGamePropertyListManager@@ABQAV12@@@UAE@XZ ; CWHArray<NGamePropertyListManager::CGamePropertyRelatItem *,NGamePropertyListManager::CGamePropertyRelatItem * const &>::~CWHArray<NGamePropertyListManager::CGamePropertyRelatItem *,NGamePropertyListManager::CGamePropertyRelatItem * const &>
  0057e	c6 45 fc 03	 mov	 BYTE PTR __$EHRec$[ebp+12], 3
  00582	8b 4d ec	 mov	 ecx, DWORD PTR _this$[ebp]
  00585	83 c1 74	 add	 ecx, 116		; 00000074H
  00588	e8 00 00 00 00	 call	 ??1?$CWHArray@PAVCGamePropertyTypeItem@NGamePropertyListManager@@ABQAV12@@@UAE@XZ ; CWHArray<NGamePropertyListManager::CGamePropertyTypeItem *,NGamePropertyListManager::CGamePropertyTypeItem * const &>::~CWHArray<NGamePropertyListManager::CGamePropertyTypeItem *,NGamePropertyListManager::CGamePropertyTypeItem * const &>
  0058d	c6 45 fc 02	 mov	 BYTE PTR __$EHRec$[ebp+12], 2
  00591	8b 4d ec	 mov	 ecx, DWORD PTR _this$[ebp]
  00594	83 c1 58	 add	 ecx, 88			; 00000058H
  00597	e8 00 00 00 00	 call	 ??1?$CMap@KKPAVCGamePropertySubItem@NGamePropertyListManager@@AAPAV12@@@UAE@XZ ; CMap<unsigned long,unsigned long,NGamePropertyListManager::CGamePropertySubItem *,NGamePropertyListManager::CGamePropertySubItem * &>::~CMap<unsigned long,unsigned long,NGamePropertyListManager::CGamePropertySubItem *,NGamePropertyListManager::CGamePropertySubItem * &>
  0059c	c6 45 fc 01	 mov	 BYTE PTR __$EHRec$[ebp+12], 1
  005a0	8b 4d ec	 mov	 ecx, DWORD PTR _this$[ebp]
  005a3	83 c1 3c	 add	 ecx, 60			; 0000003cH
  005a6	e8 00 00 00 00	 call	 ??1?$CMap@KKPAVCGamePropertyItem@NGamePropertyListManager@@AAPAV12@@@UAE@XZ ; CMap<unsigned long,unsigned long,NGamePropertyListManager::CGamePropertyItem *,NGamePropertyListManager::CGamePropertyItem * &>::~CMap<unsigned long,unsigned long,NGamePropertyListManager::CGamePropertyItem *,NGamePropertyListManager::CGamePropertyItem * &>
  005ab	c6 45 fc 00	 mov	 BYTE PTR __$EHRec$[ebp+12], 0
  005af	8b 4d ec	 mov	 ecx, DWORD PTR _this$[ebp]
  005b2	83 c1 20	 add	 ecx, 32			; 00000020H
  005b5	e8 00 00 00 00	 call	 ??1?$CMap@KKPAVCGamePropertyRelatItem@NGamePropertyListManager@@AAPAV12@@@UAE@XZ ; CMap<unsigned long,unsigned long,NGamePropertyListManager::CGamePropertyRelatItem *,NGamePropertyListManager::CGamePropertyRelatItem * &>::~CMap<unsigned long,unsigned long,NGamePropertyListManager::CGamePropertyRelatItem *,NGamePropertyListManager::CGamePropertyRelatItem * &>
  005ba	c7 45 fc ff ff
	ff ff		 mov	 DWORD PTR __$EHRec$[ebp+12], -1
  005c1	8b 4d ec	 mov	 ecx, DWORD PTR _this$[ebp]
  005c4	83 c1 04	 add	 ecx, 4
  005c7	e8 00 00 00 00	 call	 ??1?$CMap@KKPAVCGamePropertyTypeItem@NGamePropertyListManager@@AAPAV12@@@UAE@XZ ; CMap<unsigned long,unsigned long,NGamePropertyListManager::CGamePropertyTypeItem *,NGamePropertyListManager::CGamePropertyTypeItem * &>::~CMap<unsigned long,unsigned long,NGamePropertyListManager::CGamePropertyTypeItem *,NGamePropertyListManager::CGamePropertyTypeItem * &>
  005cc	8b 4d f4	 mov	 ecx, DWORD PTR __$EHRec$[ebp+4]
  005cf	64 89 0d 00 00
	00 00		 mov	 DWORD PTR fs:0, ecx
  005d6	59		 pop	 ecx
  005d7	5f		 pop	 edi
  005d8	5e		 pop	 esi
  005d9	5b		 pop	 ebx
  005da	8b e5		 mov	 esp, ebp
  005dc	5d		 pop	 ebp
  005dd	c3		 ret	 0
_TEXT	ENDS
;	COMDAT text$x
text$x	SEGMENT
__unwindfunclet$??1CGamePropertyListManager@NGamePropertyListManager@@UAE@XZ$16:
  00000	8b 4d ec	 mov	 ecx, DWORD PTR _this$[ebp]
  00003	83 c1 04	 add	 ecx, 4
  00006	e9 00 00 00 00	 jmp	 ??1?$CMap@KKPAVCGamePropertyTypeItem@NGamePropertyListManager@@AAPAV12@@@UAE@XZ ; CMap<unsigned long,unsigned long,NGamePropertyListManager::CGamePropertyTypeItem *,NGamePropertyListManager::CGamePropertyTypeItem * &>::~CMap<unsigned long,unsigned long,NGamePropertyListManager::CGamePropertyTypeItem *,NGamePropertyListManager::CGamePropertyTypeItem * &>
__unwindfunclet$??1CGamePropertyListManager@NGamePropertyListManager@@UAE@XZ$17:
  0000b	8b 4d ec	 mov	 ecx, DWORD PTR _this$[ebp]
  0000e	83 c1 20	 add	 ecx, 32			; 00000020H
  00011	e9 00 00 00 00	 jmp	 ??1?$CMap@KKPAVCGamePropertyRelatItem@NGamePropertyListManager@@AAPAV12@@@UAE@XZ ; CMap<unsigned long,unsigned long,NGamePropertyListManager::CGamePropertyRelatItem *,NGamePropertyListManager::CGamePropertyRelatItem * &>::~CMap<unsigned long,unsigned long,NGamePropertyListManager::CGamePropertyRelatItem *,NGamePropertyListManager::CGamePropertyRelatItem * &>
__unwindfunclet$??1CGamePropertyListManager@NGamePropertyListManager@@UAE@XZ$18:
  00016	8b 4d ec	 mov	 ecx, DWORD PTR _this$[ebp]
  00019	83 c1 3c	 add	 ecx, 60			; 0000003cH
  0001c	e9 00 00 00 00	 jmp	 ??1?$CMap@KKPAVCGamePropertyItem@NGamePropertyListManager@@AAPAV12@@@UAE@XZ ; CMap<unsigned long,unsigned long,NGamePropertyListManager::CGamePropertyItem *,NGamePropertyListManager::CGamePropertyItem * &>::~CMap<unsigned long,unsigned long,NGamePropertyListManager::CGamePropertyItem *,NGamePropertyListManager::CGamePropertyItem * &>
__unwindfunclet$??1CGamePropertyListManager@NGamePropertyListManager@@UAE@XZ$19:
  00021	8b 4d ec	 mov	 ecx, DWORD PTR _this$[ebp]
  00024	83 c1 58	 add	 ecx, 88			; 00000058H
  00027	e9 00 00 00 00	 jmp	 ??1?$CMap@KKPAVCGamePropertySubItem@NGamePropertyListManager@@AAPAV12@@@UAE@XZ ; CMap<unsigned long,unsigned long,NGamePropertyListManager::CGamePropertySubItem *,NGamePropertyListManager::CGamePropertySubItem * &>::~CMap<unsigned long,unsigned long,NGamePropertyListManager::CGamePropertySubItem *,NGamePropertyListManager::CGamePropertySubItem * &>
__unwindfunclet$??1CGamePropertyListManager@NGamePropertyListManager@@UAE@XZ$20:
  0002c	8b 4d ec	 mov	 ecx, DWORD PTR _this$[ebp]
  0002f	83 c1 74	 add	 ecx, 116		; 00000074H
  00032	e9 00 00 00 00	 jmp	 ??1?$CWHArray@PAVCGamePropertyTypeItem@NGamePropertyListManager@@ABQAV12@@@UAE@XZ ; CWHArray<NGamePropertyListManager::CGamePropertyTypeItem *,NGamePropertyListManager::CGamePropertyTypeItem * const &>::~CWHArray<NGamePropertyListManager::CGamePropertyTypeItem *,NGamePropertyListManager::CGamePropertyTypeItem * const &>
__unwindfunclet$??1CGamePropertyListManager@NGamePropertyListManager@@UAE@XZ$21:
  00037	8b 4d ec	 mov	 ecx, DWORD PTR _this$[ebp]
  0003a	81 c1 88 00 00
	00		 add	 ecx, 136		; 00000088H
  00040	e9 00 00 00 00	 jmp	 ??1?$CWHArray@PAVCGamePropertyRelatItem@NGamePropertyListManager@@ABQAV12@@@UAE@XZ ; CWHArray<NGamePropertyListManager::CGamePropertyRelatItem *,NGamePropertyListManager::CGamePropertyRelatItem * const &>::~CWHArray<NGamePropertyListManager::CGamePropertyRelatItem *,NGamePropertyListManager::CGamePropertyRelatItem * const &>
__unwindfunclet$??1CGamePropertyListManager@NGamePropertyListManager@@UAE@XZ$22:
  00045	8b 4d ec	 mov	 ecx, DWORD PTR _this$[ebp]
  00048	81 c1 9c 00 00
	00		 add	 ecx, 156		; 0000009cH
  0004e	e9 00 00 00 00	 jmp	 ??1?$CWHArray@PAVCGamePropertyItem@NGamePropertyListManager@@ABQAV12@@@UAE@XZ ; CWHArray<NGamePropertyListManager::CGamePropertyItem *,NGamePropertyListManager::CGamePropertyItem * const &>::~CWHArray<NGamePropertyListManager::CGamePropertyItem *,NGamePropertyListManager::CGamePropertyItem * const &>
__unwindfunclet$??1CGamePropertyListManager@NGamePropertyListManager@@UAE@XZ$23:
  00053	8b 4d ec	 mov	 ecx, DWORD PTR _this$[ebp]
  00056	81 c1 b0 00 00
	00		 add	 ecx, 176		; 000000b0H
  0005c	e9 00 00 00 00	 jmp	 ??1?$CWHArray@PAVCGamePropertySubItem@NGamePropertyListManager@@ABQAV12@@@UAE@XZ ; CWHArray<NGamePropertyListManager::CGamePropertySubItem *,NGamePropertyListManager::CGamePropertySubItem * const &>::~CWHArray<NGamePropertyListManager::CGamePropertySubItem *,NGamePropertyListManager::CGamePropertySubItem * const &>
__ehhandler$??1CGamePropertyListManager@NGamePropertyListManager@@UAE@XZ:
  00061	8b 54 24 08	 mov	 edx, DWORD PTR [esp+8]
  00065	8d 42 0c	 lea	 eax, DWORD PTR [edx+12]
  00068	8b 8a 60 ff ff
	ff		 mov	 ecx, DWORD PTR [edx-160]
  0006e	33 c8		 xor	 ecx, eax
  00070	e8 00 00 00 00	 call	 @__security_check_cookie@4
  00075	b8 00 00 00 00	 mov	 eax, OFFSET __ehfuncinfo$??1CGamePropertyListManager@NGamePropertyListManager@@UAE@XZ
  0007a	e9 00 00 00 00	 jmp	 ___CxxFrameHandler3
text$x	ENDS
??1CGamePropertyListManager@NGamePropertyListManager@@UAE@XZ ENDP ; NGamePropertyListManager::CGamePropertyListManager::~CGamePropertyListManager
; Function compile flags: /Odtp /ZI
; File g:\网狐\happygamewh\服务端\系统模块\服务器组件\登录服务器\gamepropertylistmanager.cpp
;	COMDAT ??0CGamePropertyListManager@NGamePropertyListManager@@QAE@XZ
_TEXT	SEGMENT
_this$ = -16						; size = 4
__$EHRec$ = -12						; size = 12
??0CGamePropertyListManager@NGamePropertyListManager@@QAE@XZ PROC ; NGamePropertyListManager::CGamePropertyListManager::CGamePropertyListManager, COMDAT
; _this$ = ecx

; 60   : {

  00000	55		 push	 ebp
  00001	8b ec		 mov	 ebp, esp
  00003	6a ff		 push	 -1
  00005	68 00 00 00 00	 push	 __ehhandler$??0CGamePropertyListManager@NGamePropertyListManager@@QAE@XZ
  0000a	64 a1 00 00 00
	00		 mov	 eax, DWORD PTR fs:0
  00010	50		 push	 eax
  00011	83 ec 44	 sub	 esp, 68			; 00000044H
  00014	53		 push	 ebx
  00015	56		 push	 esi
  00016	57		 push	 edi
  00017	a1 00 00 00 00	 mov	 eax, DWORD PTR ___security_cookie
  0001c	33 c5		 xor	 eax, ebp
  0001e	50		 push	 eax
  0001f	8d 45 f4	 lea	 eax, DWORD PTR __$EHRec$[ebp]
  00022	64 a3 00 00 00
	00		 mov	 DWORD PTR fs:0, eax
  00028	89 4d f0	 mov	 DWORD PTR _this$[ebp], ecx
  0002b	8b 45 f0	 mov	 eax, DWORD PTR _this$[ebp]
  0002e	c7 00 00 00 00
	00		 mov	 DWORD PTR [eax], OFFSET ??_7CGamePropertyListManager@NGamePropertyListManager@@6B@
  00034	6a 0a		 push	 10			; 0000000aH
  00036	8b 4d f0	 mov	 ecx, DWORD PTR _this$[ebp]
  00039	83 c1 04	 add	 ecx, 4
  0003c	e8 00 00 00 00	 call	 ??0?$CMap@KKPAVCGamePropertyTypeItem@NGamePropertyListManager@@AAPAV12@@@QAE@H@Z ; CMap<unsigned long,unsigned long,NGamePropertyListManager::CGamePropertyTypeItem *,NGamePropertyListManager::CGamePropertyTypeItem * &>::CMap<unsigned long,unsigned long,NGamePropertyListManager::CGamePropertyTypeItem *,NGamePropertyListManager::CGamePropertyTypeItem * &>
  00041	c7 45 fc 00 00
	00 00		 mov	 DWORD PTR __$EHRec$[ebp+8], 0
  00048	6a 0a		 push	 10			; 0000000aH
  0004a	8b 4d f0	 mov	 ecx, DWORD PTR _this$[ebp]
  0004d	83 c1 20	 add	 ecx, 32			; 00000020H
  00050	e8 00 00 00 00	 call	 ??0?$CMap@KKPAVCGamePropertyRelatItem@NGamePropertyListManager@@AAPAV12@@@QAE@H@Z ; CMap<unsigned long,unsigned long,NGamePropertyListManager::CGamePropertyRelatItem *,NGamePropertyListManager::CGamePropertyRelatItem * &>::CMap<unsigned long,unsigned long,NGamePropertyListManager::CGamePropertyRelatItem *,NGamePropertyListManager::CGamePropertyRelatItem * &>
  00055	c6 45 fc 01	 mov	 BYTE PTR __$EHRec$[ebp+8], 1
  00059	6a 0a		 push	 10			; 0000000aH
  0005b	8b 4d f0	 mov	 ecx, DWORD PTR _this$[ebp]
  0005e	83 c1 3c	 add	 ecx, 60			; 0000003cH
  00061	e8 00 00 00 00	 call	 ??0?$CMap@KKPAVCGamePropertyItem@NGamePropertyListManager@@AAPAV12@@@QAE@H@Z ; CMap<unsigned long,unsigned long,NGamePropertyListManager::CGamePropertyItem *,NGamePropertyListManager::CGamePropertyItem * &>::CMap<unsigned long,unsigned long,NGamePropertyListManager::CGamePropertyItem *,NGamePropertyListManager::CGamePropertyItem * &>
  00066	c6 45 fc 02	 mov	 BYTE PTR __$EHRec$[ebp+8], 2
  0006a	6a 0a		 push	 10			; 0000000aH
  0006c	8b 4d f0	 mov	 ecx, DWORD PTR _this$[ebp]
  0006f	83 c1 58	 add	 ecx, 88			; 00000058H
  00072	e8 00 00 00 00	 call	 ??0?$CMap@KKPAVCGamePropertySubItem@NGamePropertyListManager@@AAPAV12@@@QAE@H@Z ; CMap<unsigned long,unsigned long,NGamePropertyListManager::CGamePropertySubItem *,NGamePropertyListManager::CGamePropertySubItem * &>::CMap<unsigned long,unsigned long,NGamePropertyListManager::CGamePropertySubItem *,NGamePropertyListManager::CGamePropertySubItem * &>
  00077	c6 45 fc 03	 mov	 BYTE PTR __$EHRec$[ebp+8], 3
  0007b	8b 4d f0	 mov	 ecx, DWORD PTR _this$[ebp]
  0007e	83 c1 74	 add	 ecx, 116		; 00000074H
  00081	e8 00 00 00 00	 call	 ??0?$CWHArray@PAVCGamePropertyTypeItem@NGamePropertyListManager@@ABQAV12@@@QAE@XZ ; CWHArray<NGamePropertyListManager::CGamePropertyTypeItem *,NGamePropertyListManager::CGamePropertyTypeItem * const &>::CWHArray<NGamePropertyListManager::CGamePropertyTypeItem *,NGamePropertyListManager::CGamePropertyTypeItem * const &>
  00086	c6 45 fc 04	 mov	 BYTE PTR __$EHRec$[ebp+8], 4
  0008a	8b 4d f0	 mov	 ecx, DWORD PTR _this$[ebp]
  0008d	81 c1 88 00 00
	00		 add	 ecx, 136		; 00000088H
  00093	e8 00 00 00 00	 call	 ??0?$CWHArray@PAVCGamePropertyRelatItem@NGamePropertyListManager@@ABQAV12@@@QAE@XZ ; CWHArray<NGamePropertyListManager::CGamePropertyRelatItem *,NGamePropertyListManager::CGamePropertyRelatItem * const &>::CWHArray<NGamePropertyListManager::CGamePropertyRelatItem *,NGamePropertyListManager::CGamePropertyRelatItem * const &>
  00098	c6 45 fc 05	 mov	 BYTE PTR __$EHRec$[ebp+8], 5
  0009c	8b 4d f0	 mov	 ecx, DWORD PTR _this$[ebp]
  0009f	81 c1 9c 00 00
	00		 add	 ecx, 156		; 0000009cH
  000a5	e8 00 00 00 00	 call	 ??0?$CWHArray@PAVCGamePropertyItem@NGamePropertyListManager@@ABQAV12@@@QAE@XZ ; CWHArray<NGamePropertyListManager::CGamePropertyItem *,NGamePropertyListManager::CGamePropertyItem * const &>::CWHArray<NGamePropertyListManager::CGamePropertyItem *,NGamePropertyListManager::CGamePropertyItem * const &>
  000aa	c6 45 fc 06	 mov	 BYTE PTR __$EHRec$[ebp+8], 6
  000ae	8b 4d f0	 mov	 ecx, DWORD PTR _this$[ebp]
  000b1	81 c1 b0 00 00
	00		 add	 ecx, 176		; 000000b0H
  000b7	e8 00 00 00 00	 call	 ??0?$CWHArray@PAVCGamePropertySubItem@NGamePropertyListManager@@ABQAV12@@@QAE@XZ ; CWHArray<NGamePropertyListManager::CGamePropertySubItem *,NGamePropertyListManager::CGamePropertySubItem * const &>::CWHArray<NGamePropertyListManager::CGamePropertySubItem *,NGamePropertyListManager::CGamePropertySubItem * const &>
  000bc	c6 45 fc 07	 mov	 BYTE PTR __$EHRec$[ebp+8], 7

; 61   : 	//设置质数
; 62   : 	m_GamePropertyTypeItemMap.InitHashTable(PRIME_TYPE);

  000c0	6a 01		 push	 1
  000c2	6a 0b		 push	 11			; 0000000bH
  000c4	8b 4d f0	 mov	 ecx, DWORD PTR _this$[ebp]
  000c7	83 c1 04	 add	 ecx, 4
  000ca	e8 00 00 00 00	 call	 ?InitHashTable@?$CMap@KKPAVCGamePropertyTypeItem@NGamePropertyListManager@@AAPAV12@@@QAEXIH@Z ; CMap<unsigned long,unsigned long,NGamePropertyListManager::CGamePropertyTypeItem *,NGamePropertyListManager::CGamePropertyTypeItem * &>::InitHashTable

; 63   : 	m_GamePropertyRelatItemMap.InitHashTable(PRIME_KIND);

  000cf	6a 01		 push	 1
  000d1	6a 35		 push	 53			; 00000035H
  000d3	8b 4d f0	 mov	 ecx, DWORD PTR _this$[ebp]
  000d6	83 c1 20	 add	 ecx, 32			; 00000020H
  000d9	e8 00 00 00 00	 call	 ?InitHashTable@?$CMap@KKPAVCGamePropertyRelatItem@NGamePropertyListManager@@AAPAV12@@@QAEXIH@Z ; CMap<unsigned long,unsigned long,NGamePropertyListManager::CGamePropertyRelatItem *,NGamePropertyListManager::CGamePropertyRelatItem * &>::InitHashTable

; 64   : 	m_GamePropertyItemMap.InitHashTable(PRIME_SERVER);

  000de	6a 01		 push	 1
  000e0	68 f1 03 00 00	 push	 1009			; 000003f1H
  000e5	8b 4d f0	 mov	 ecx, DWORD PTR _this$[ebp]
  000e8	83 c1 3c	 add	 ecx, 60			; 0000003cH
  000eb	e8 00 00 00 00	 call	 ?InitHashTable@?$CMap@KKPAVCGamePropertyItem@NGamePropertyListManager@@AAPAV12@@@QAEXIH@Z ; CMap<unsigned long,unsigned long,NGamePropertyListManager::CGamePropertyItem *,NGamePropertyListManager::CGamePropertyItem * &>::InitHashTable

; 65   : 	m_GamePropertySubItemMap.InitHashTable(PRIME_KIND);

  000f0	6a 01		 push	 1
  000f2	6a 35		 push	 53			; 00000035H
  000f4	8b 4d f0	 mov	 ecx, DWORD PTR _this$[ebp]
  000f7	83 c1 58	 add	 ecx, 88			; 00000058H
  000fa	e8 00 00 00 00	 call	 ?InitHashTable@?$CMap@KKPAVCGamePropertySubItem@NGamePropertyListManager@@AAPAV12@@@QAEXIH@Z ; CMap<unsigned long,unsigned long,NGamePropertyListManager::CGamePropertySubItem *,NGamePropertyListManager::CGamePropertySubItem * &>::InitHashTable

; 66   : 
; 67   : 	return;
; 68   : }

  000ff	c7 45 fc ff ff
	ff ff		 mov	 DWORD PTR __$EHRec$[ebp+8], -1
  00106	8b 45 f0	 mov	 eax, DWORD PTR _this$[ebp]
  00109	8b 4d f4	 mov	 ecx, DWORD PTR __$EHRec$[ebp]
  0010c	64 89 0d 00 00
	00 00		 mov	 DWORD PTR fs:0, ecx
  00113	59		 pop	 ecx
  00114	5f		 pop	 edi
  00115	5e		 pop	 esi
  00116	5b		 pop	 ebx
  00117	8b e5		 mov	 esp, ebp
  00119	5d		 pop	 ebp
  0011a	c3		 ret	 0
_TEXT	ENDS
;	COMDAT text$x
text$x	SEGMENT
__unwindfunclet$??0CGamePropertyListManager@NGamePropertyListManager@@QAE@XZ$0:
  00000	8b 4d f0	 mov	 ecx, DWORD PTR _this$[ebp]
  00003	83 c1 04	 add	 ecx, 4
  00006	e9 00 00 00 00	 jmp	 ??1?$CMap@KKPAVCGamePropertyTypeItem@NGamePropertyListManager@@AAPAV12@@@UAE@XZ ; CMap<unsigned long,unsigned long,NGamePropertyListManager::CGamePropertyTypeItem *,NGamePropertyListManager::CGamePropertyTypeItem * &>::~CMap<unsigned long,unsigned long,NGamePropertyListManager::CGamePropertyTypeItem *,NGamePropertyListManager::CGamePropertyTypeItem * &>
__unwindfunclet$??0CGamePropertyListManager@NGamePropertyListManager@@QAE@XZ$1:
  0000b	8b 4d f0	 mov	 ecx, DWORD PTR _this$[ebp]
  0000e	83 c1 20	 add	 ecx, 32			; 00000020H
  00011	e9 00 00 00 00	 jmp	 ??1?$CMap@KKPAVCGamePropertyRelatItem@NGamePropertyListManager@@AAPAV12@@@UAE@XZ ; CMap<unsigned long,unsigned long,NGamePropertyListManager::CGamePropertyRelatItem *,NGamePropertyListManager::CGamePropertyRelatItem * &>::~CMap<unsigned long,unsigned long,NGamePropertyListManager::CGamePropertyRelatItem *,NGamePropertyListManager::CGamePropertyRelatItem * &>
__unwindfunclet$??0CGamePropertyListManager@NGamePropertyListManager@@QAE@XZ$2:
  00016	8b 4d f0	 mov	 ecx, DWORD PTR _this$[ebp]
  00019	83 c1 3c	 add	 ecx, 60			; 0000003cH
  0001c	e9 00 00 00 00	 jmp	 ??1?$CMap@KKPAVCGamePropertyItem@NGamePropertyListManager@@AAPAV12@@@UAE@XZ ; CMap<unsigned long,unsigned long,NGamePropertyListManager::CGamePropertyItem *,NGamePropertyListManager::CGamePropertyItem * &>::~CMap<unsigned long,unsigned long,NGamePropertyListManager::CGamePropertyItem *,NGamePropertyListManager::CGamePropertyItem * &>
__unwindfunclet$??0CGamePropertyListManager@NGamePropertyListManager@@QAE@XZ$3:
  00021	8b 4d f0	 mov	 ecx, DWORD PTR _this$[ebp]
  00024	83 c1 58	 add	 ecx, 88			; 00000058H
  00027	e9 00 00 00 00	 jmp	 ??1?$CMap@KKPAVCGamePropertySubItem@NGamePropertyListManager@@AAPAV12@@@UAE@XZ ; CMap<unsigned long,unsigned long,NGamePropertyListManager::CGamePropertySubItem *,NGamePropertyListManager::CGamePropertySubItem * &>::~CMap<unsigned long,unsigned long,NGamePropertyListManager::CGamePropertySubItem *,NGamePropertyListManager::CGamePropertySubItem * &>
__unwindfunclet$??0CGamePropertyListManager@NGamePropertyListManager@@QAE@XZ$4:
  0002c	8b 4d f0	 mov	 ecx, DWORD PTR _this$[ebp]
  0002f	83 c1 74	 add	 ecx, 116		; 00000074H
  00032	e9 00 00 00 00	 jmp	 ??1?$CWHArray@PAVCGamePropertyTypeItem@NGamePropertyListManager@@ABQAV12@@@UAE@XZ ; CWHArray<NGamePropertyListManager::CGamePropertyTypeItem *,NGamePropertyListManager::CGamePropertyTypeItem * const &>::~CWHArray<NGamePropertyListManager::CGamePropertyTypeItem *,NGamePropertyListManager::CGamePropertyTypeItem * const &>
__unwindfunclet$??0CGamePropertyListManager@NGamePropertyListManager@@QAE@XZ$5:
  00037	8b 4d f0	 mov	 ecx, DWORD PTR _this$[ebp]
  0003a	81 c1 88 00 00
	00		 add	 ecx, 136		; 00000088H
  00040	e9 00 00 00 00	 jmp	 ??1?$CWHArray@PAVCGamePropertyRelatItem@NGamePropertyListManager@@ABQAV12@@@UAE@XZ ; CWHArray<NGamePropertyListManager::CGamePropertyRelatItem *,NGamePropertyListManager::CGamePropertyRelatItem * const &>::~CWHArray<NGamePropertyListManager::CGamePropertyRelatItem *,NGamePropertyListManager::CGamePropertyRelatItem * const &>
__unwindfunclet$??0CGamePropertyListManager@NGamePropertyListManager@@QAE@XZ$6:
  00045	8b 4d f0	 mov	 ecx, DWORD PTR _this$[ebp]
  00048	81 c1 9c 00 00
	00		 add	 ecx, 156		; 0000009cH
  0004e	e9 00 00 00 00	 jmp	 ??1?$CWHArray@PAVCGamePropertyItem@NGamePropertyListManager@@ABQAV12@@@UAE@XZ ; CWHArray<NGamePropertyListManager::CGamePropertyItem *,NGamePropertyListManager::CGamePropertyItem * const &>::~CWHArray<NGamePropertyListManager::CGamePropertyItem *,NGamePropertyListManager::CGamePropertyItem * const &>
__unwindfunclet$??0CGamePropertyListManager@NGamePropertyListManager@@QAE@XZ$7:
  00053	8b 4d f0	 mov	 ecx, DWORD PTR _this$[ebp]
  00056	81 c1 b0 00 00
	00		 add	 ecx, 176		; 000000b0H
  0005c	e9 00 00 00 00	 jmp	 ??1?$CWHArray@PAVCGamePropertySubItem@NGamePropertyListManager@@ABQAV12@@@UAE@XZ ; CWHArray<NGamePropertyListManager::CGamePropertySubItem *,NGamePropertyListManager::CGamePropertySubItem * const &>::~CWHArray<NGamePropertyListManager::CGamePropertySubItem *,NGamePropertyListManager::CGamePropertySubItem * const &>
__ehhandler$??0CGamePropertyListManager@NGamePropertyListManager@@QAE@XZ:
  00061	8b 54 24 08	 mov	 edx, DWORD PTR [esp+8]
  00065	8d 42 0c	 lea	 eax, DWORD PTR [edx+12]
  00068	8b 4a ac	 mov	 ecx, DWORD PTR [edx-84]
  0006b	33 c8		 xor	 ecx, eax
  0006d	e8 00 00 00 00	 call	 @__security_check_cookie@4
  00072	b8 00 00 00 00	 mov	 eax, OFFSET __ehfuncinfo$??0CGamePropertyListManager@NGamePropertyListManager@@QAE@XZ
  00077	e9 00 00 00 00	 jmp	 ___CxxFrameHandler3
text$x	ENDS
??0CGamePropertyListManager@NGamePropertyListManager@@QAE@XZ ENDP ; NGamePropertyListManager::CGamePropertyListManager::CGamePropertyListManager
; Function compile flags: /Odtp /ZI
;	COMDAT ??_G?$CWHArray@PAVCGamePropertySubItem@NGamePropertyListManager@@ABQAV12@@@UAEPAXI@Z
_TEXT	SEGMENT
_this$ = -4						; size = 4
___flags$ = 8						; size = 4
??_G?$CWHArray@PAVCGamePropertySubItem@NGamePropertyListManager@@ABQAV12@@@UAEPAXI@Z PROC ; CWHArray<NGamePropertyListManager::CGamePropertySubItem *,NGamePropertyListManager::CGamePropertySubItem * const &>::`scalar deleting destructor', COMDAT
; _this$ = ecx
  00000	55		 push	 ebp
  00001	8b ec		 mov	 ebp, esp
  00003	83 ec 44	 sub	 esp, 68			; 00000044H
  00006	53		 push	 ebx
  00007	56		 push	 esi
  00008	57		 push	 edi
  00009	89 4d fc	 mov	 DWORD PTR _this$[ebp], ecx
  0000c	8b 4d fc	 mov	 ecx, DWORD PTR _this$[ebp]
  0000f	e8 00 00 00 00	 call	 ??1?$CWHArray@PAVCGamePropertySubItem@NGamePropertyListManager@@ABQAV12@@@UAE@XZ ; CWHArray<NGamePropertyListManager::CGamePropertySubItem *,NGamePropertyListManager::CGamePropertySubItem * const &>::~CWHArray<NGamePropertyListManager::CGamePropertySubItem *,NGamePropertyListManager::CGamePropertySubItem * const &>
  00014	8b 45 08	 mov	 eax, DWORD PTR ___flags$[ebp]
  00017	83 e0 01	 and	 eax, 1
  0001a	74 0e		 je	 SHORT $LN2@scalar
  0001c	6a 14		 push	 20			; 00000014H
  0001e	8b 45 fc	 mov	 eax, DWORD PTR _this$[ebp]
  00021	50		 push	 eax
  00022	e8 00 00 00 00	 call	 ??3@YAXPAXI@Z		; operator delete
  00027	83 c4 08	 add	 esp, 8
$LN2@scalar:
  0002a	8b 45 fc	 mov	 eax, DWORD PTR _this$[ebp]
  0002d	5f		 pop	 edi
  0002e	5e		 pop	 esi
  0002f	5b		 pop	 ebx
  00030	8b e5		 mov	 esp, ebp
  00032	5d		 pop	 ebp
  00033	c2 04 00	 ret	 4
??_G?$CWHArray@PAVCGamePropertySubItem@NGamePropertyListManager@@ABQAV12@@@UAEPAXI@Z ENDP ; CWHArray<NGamePropertyListManager::CGamePropertySubItem *,NGamePropertyListManager::CGamePropertySubItem * const &>::`scalar deleting destructor'
_TEXT	ENDS
; Function compile flags: /Odtp /ZI
; File g:\网狐\happygamewh\服务端\系统模块\全局定义\array.h
;	COMDAT ?AllocMemory@?$CWHArray@PAVCGamePropertySubItem@NGamePropertyListManager@@ABQAV12@@@QAEXH@Z
_TEXT	SEGMENT
tv78 = -92						; size = 4
tv79 = -88						; size = 4
$T1 = -84						; size = 4
$T2 = -80						; size = 4
_pNewData$3 = -12					; size = 4
_nGrowCount$4 = -8					; size = 4
_this$ = -4						; size = 4
_nNewCount$ = 8						; size = 4
?AllocMemory@?$CWHArray@PAVCGamePropertySubItem@NGamePropertyListManager@@ABQAV12@@@QAEXH@Z PROC ; CWHArray<NGamePropertyListManager::CGamePropertySubItem *,NGamePropertyListManager::CGamePropertySubItem * const &>::AllocMemory, COMDAT
; _this$ = ecx

; 413  : {

  00000	55		 push	 ebp
  00001	8b ec		 mov	 ebp, esp
  00003	83 ec 5c	 sub	 esp, 92			; 0000005cH
  00006	53		 push	 ebx
  00007	56		 push	 esi
  00008	57		 push	 edi
  00009	89 4d fc	 mov	 DWORD PTR _this$[ebp], ecx

; 414  : 	//效验参数
; 415  : 	ASSERT(nNewCount>=0);

  0000c	83 7d 08 00	 cmp	 DWORD PTR _nNewCount$[ebp], 0
  00010	7d 14		 jge	 SHORT $LN5@AllocMemor
  00012	68 9f 01 00 00	 push	 415			; 0000019fH
  00017	68 00 00 00 00	 push	 OFFSET ??_C@_0DF@LDFGAABH@g?3?2?M?x?$LK?$PM?2happygamewh?2?$LH?$PO?N?q?$LG?K?2?O?$LF?M?$LD@
  0001c	e8 00 00 00 00	 call	 ?AfxAssertFailedLine@@YGHPBDH@Z ; AfxAssertFailedLine
  00021	85 c0		 test	 eax, eax
  00023	74 01		 je	 SHORT $LN5@AllocMemor
  00025	cc		 int	 3
$LN5@AllocMemor:

; 416  : 
; 417  : 	if (nNewCount>m_nMaxCount)

  00026	8b 45 fc	 mov	 eax, DWORD PTR _this$[ebp]
  00029	8b 4d 08	 mov	 ecx, DWORD PTR _nNewCount$[ebp]
  0002c	3b 48 08	 cmp	 ecx, DWORD PTR [eax+8]
  0002f	0f 8e dd 00 00
	00		 jle	 $LN1@AllocMemor

; 418  : 	{
; 419  : 		//计算数目
; 420  : 		INT_PTR nGrowCount=m_nGrowCount;

  00035	8b 45 fc	 mov	 eax, DWORD PTR _this$[ebp]
  00038	8b 48 0c	 mov	 ecx, DWORD PTR [eax+12]
  0003b	89 4d f8	 mov	 DWORD PTR _nGrowCount$4[ebp], ecx

; 421  : 		if (nGrowCount==0)

  0003e	83 7d f8 00	 cmp	 DWORD PTR _nGrowCount$4[ebp], 0
  00042	75 45		 jne	 SHORT $LN3@AllocMemor

; 422  : 		{
; 423  : 			nGrowCount=m_nElementCount/8;

  00044	8b 45 fc	 mov	 eax, DWORD PTR _this$[ebp]
  00047	8b 40 10	 mov	 eax, DWORD PTR [eax+16]
  0004a	99		 cdq
  0004b	83 e2 07	 and	 edx, 7
  0004e	03 c2		 add	 eax, edx
  00050	c1 f8 03	 sar	 eax, 3
  00053	89 45 f8	 mov	 DWORD PTR _nGrowCount$4[ebp], eax

; 424  : 			nGrowCount=(nGrowCount<4)?4:((nGrowCount>1024)?1024:nGrowCount);

  00056	83 7d f8 04	 cmp	 DWORD PTR _nGrowCount$4[ebp], 4
  0005a	7d 09		 jge	 SHORT $LN8@AllocMemor
  0005c	c7 45 a8 04 00
	00 00		 mov	 DWORD PTR tv79[ebp], 4
  00063	eb 1e		 jmp	 SHORT $LN9@AllocMemor
$LN8@AllocMemor:
  00065	81 7d f8 00 04
	00 00		 cmp	 DWORD PTR _nGrowCount$4[ebp], 1024 ; 00000400H
  0006c	7e 09		 jle	 SHORT $LN6@AllocMemor
  0006e	c7 45 a4 00 04
	00 00		 mov	 DWORD PTR tv78[ebp], 1024 ; 00000400H
  00075	eb 06		 jmp	 SHORT $LN7@AllocMemor
$LN6@AllocMemor:
  00077	8b 45 f8	 mov	 eax, DWORD PTR _nGrowCount$4[ebp]
  0007a	89 45 a4	 mov	 DWORD PTR tv78[ebp], eax
$LN7@AllocMemor:
  0007d	8b 4d a4	 mov	 ecx, DWORD PTR tv78[ebp]
  00080	89 4d a8	 mov	 DWORD PTR tv79[ebp], ecx
$LN9@AllocMemor:
  00083	8b 55 a8	 mov	 edx, DWORD PTR tv79[ebp]
  00086	89 55 f8	 mov	 DWORD PTR _nGrowCount$4[ebp], edx
$LN3@AllocMemor:

; 425  : 		}
; 426  : 		nNewCount+=nGrowCount;

  00089	8b 45 08	 mov	 eax, DWORD PTR _nNewCount$[ebp]
  0008c	03 45 f8	 add	 eax, DWORD PTR _nGrowCount$4[ebp]
  0008f	89 45 08	 mov	 DWORD PTR _nNewCount$[ebp], eax

; 427  : 
; 428  : 		//申请内存
; 429  : 		TYPE * pNewData=(TYPE *) new BYTE[nNewCount*sizeof(TYPE)];

  00092	8b 45 08	 mov	 eax, DWORD PTR _nNewCount$[ebp]
  00095	c1 e0 02	 shl	 eax, 2
  00098	50		 push	 eax
  00099	e8 00 00 00 00	 call	 ??_U@YAPAXI@Z		; operator new[]
  0009e	83 c4 04	 add	 esp, 4
  000a1	89 45 b0	 mov	 DWORD PTR $T2[ebp], eax
  000a4	8b 4d b0	 mov	 ecx, DWORD PTR $T2[ebp]
  000a7	89 4d f4	 mov	 DWORD PTR _pNewData$3[ebp], ecx

; 430  : 		memcpy(pNewData,m_pData,m_nElementCount*sizeof(TYPE));

  000aa	8b 45 fc	 mov	 eax, DWORD PTR _this$[ebp]
  000ad	8b 48 10	 mov	 ecx, DWORD PTR [eax+16]
  000b0	c1 e1 02	 shl	 ecx, 2
  000b3	51		 push	 ecx
  000b4	8b 55 fc	 mov	 edx, DWORD PTR _this$[ebp]
  000b7	8b 42 04	 mov	 eax, DWORD PTR [edx+4]
  000ba	50		 push	 eax
  000bb	8b 4d f4	 mov	 ecx, DWORD PTR _pNewData$3[ebp]
  000be	51		 push	 ecx
  000bf	e8 00 00 00 00	 call	 _memcpy
  000c4	83 c4 0c	 add	 esp, 12			; 0000000cH

; 431  : 		memset(pNewData+m_nElementCount,0,(nNewCount-m_nElementCount)*sizeof(TYPE));

  000c7	8b 45 fc	 mov	 eax, DWORD PTR _this$[ebp]
  000ca	8b 4d 08	 mov	 ecx, DWORD PTR _nNewCount$[ebp]
  000cd	2b 48 10	 sub	 ecx, DWORD PTR [eax+16]
  000d0	c1 e1 02	 shl	 ecx, 2
  000d3	51		 push	 ecx
  000d4	6a 00		 push	 0
  000d6	8b 55 fc	 mov	 edx, DWORD PTR _this$[ebp]
  000d9	8b 42 10	 mov	 eax, DWORD PTR [edx+16]
  000dc	8b 4d f4	 mov	 ecx, DWORD PTR _pNewData$3[ebp]
  000df	8d 14 81	 lea	 edx, DWORD PTR [ecx+eax*4]
  000e2	52		 push	 edx
  000e3	e8 00 00 00 00	 call	 _memset
  000e8	83 c4 0c	 add	 esp, 12			; 0000000cH

; 432  : 		delete [] (BYTE *)m_pData;

  000eb	8b 45 fc	 mov	 eax, DWORD PTR _this$[ebp]
  000ee	8b 48 04	 mov	 ecx, DWORD PTR [eax+4]
  000f1	89 4d ac	 mov	 DWORD PTR $T1[ebp], ecx
  000f4	8b 55 ac	 mov	 edx, DWORD PTR $T1[ebp]
  000f7	52		 push	 edx
  000f8	e8 00 00 00 00	 call	 ??_V@YAXPAX@Z		; operator delete[]
  000fd	83 c4 04	 add	 esp, 4

; 433  : 
; 434  : 		//设置变量
; 435  : 		m_pData=pNewData;

  00100	8b 45 fc	 mov	 eax, DWORD PTR _this$[ebp]
  00103	8b 4d f4	 mov	 ecx, DWORD PTR _pNewData$3[ebp]
  00106	89 48 04	 mov	 DWORD PTR [eax+4], ecx

; 436  : 		m_nMaxCount=nNewCount;

  00109	8b 45 fc	 mov	 eax, DWORD PTR _this$[ebp]
  0010c	8b 4d 08	 mov	 ecx, DWORD PTR _nNewCount$[ebp]
  0010f	89 48 08	 mov	 DWORD PTR [eax+8], ecx
$LN1@AllocMemor:

; 437  : 	}
; 438  : 
; 439  : 	return;
; 440  : }

  00112	5f		 pop	 edi
  00113	5e		 pop	 esi
  00114	5b		 pop	 ebx
  00115	8b e5		 mov	 esp, ebp
  00117	5d		 pop	 ebp
  00118	c2 04 00	 ret	 4
?AllocMemory@?$CWHArray@PAVCGamePropertySubItem@NGamePropertyListManager@@ABQAV12@@@QAEXH@Z ENDP ; CWHArray<NGamePropertyListManager::CGamePropertySubItem *,NGamePropertyListManager::CGamePropertySubItem * const &>::AllocMemory
_TEXT	ENDS
; Function compile flags: /Odtp /ZI
; File g:\网狐\happygamewh\服务端\系统模块\全局定义\array.h
;	COMDAT ??A?$CWHArray@PAVCGamePropertySubItem@NGamePropertyListManager@@ABQAV12@@@QAEAAPAVCGamePropertySubItem@NGamePropertyListManager@@H@Z
_TEXT	SEGMENT
_this$ = -4						; size = 4
_nIndex$ = 8						; size = 4
??A?$CWHArray@PAVCGamePropertySubItem@NGamePropertyListManager@@ABQAV12@@@QAEAAPAVCGamePropertySubItem@NGamePropertyListManager@@H@Z PROC ; CWHArray<NGamePropertyListManager::CGamePropertySubItem *,NGamePropertyListManager::CGamePropertySubItem * const &>::operator[], COMDAT
; _this$ = ecx

; 114  : { 

  00000	55		 push	 ebp
  00001	8b ec		 mov	 ebp, esp
  00003	83 ec 44	 sub	 esp, 68			; 00000044H
  00006	53		 push	 ebx
  00007	56		 push	 esi
  00008	57		 push	 edi
  00009	89 4d fc	 mov	 DWORD PTR _this$[ebp], ecx

; 115  : 	return ElementAt(nIndex);

  0000c	8b 45 08	 mov	 eax, DWORD PTR _nIndex$[ebp]
  0000f	50		 push	 eax
  00010	8b 4d fc	 mov	 ecx, DWORD PTR _this$[ebp]
  00013	e8 00 00 00 00	 call	 ?ElementAt@?$CWHArray@PAVCGamePropertySubItem@NGamePropertyListManager@@ABQAV12@@@QAEAAPAVCGamePropertySubItem@NGamePropertyListManager@@H@Z ; CWHArray<NGamePropertyListManager::CGamePropertySubItem *,NGamePropertyListManager::CGamePropertySubItem * const &>::ElementAt

; 116  : }

  00018	5f		 pop	 edi
  00019	5e		 pop	 esi
  0001a	5b		 pop	 ebx
  0001b	8b e5		 mov	 esp, ebp
  0001d	5d		 pop	 ebp
  0001e	c2 04 00	 ret	 4
??A?$CWHArray@PAVCGamePropertySubItem@NGamePropertyListManager@@ABQAV12@@@QAEAAPAVCGamePropertySubItem@NGamePropertyListManager@@H@Z ENDP ; CWHArray<NGamePropertyListManager::CGamePropertySubItem *,NGamePropertyListManager::CGamePropertySubItem * const &>::operator[]
_TEXT	ENDS
; Function compile flags: /Odtp /ZI
; File g:\网狐\happygamewh\服务端\系统模块\全局定义\array.h
;	COMDAT ?RemoveAll@?$CWHArray@PAVCGamePropertySubItem@NGamePropertyListManager@@ABQAV12@@@QAEXXZ
_TEXT	SEGMENT
_i$1 = -8						; size = 4
_this$ = -4						; size = 4
?RemoveAll@?$CWHArray@PAVCGamePropertySubItem@NGamePropertyListManager@@ABQAV12@@@QAEXXZ PROC ; CWHArray<NGamePropertyListManager::CGamePropertySubItem *,NGamePropertyListManager::CGamePropertySubItem * const &>::RemoveAll, COMDAT
; _this$ = ecx

; 379  : {

  00000	55		 push	 ebp
  00001	8b ec		 mov	 ebp, esp
  00003	83 ec 48	 sub	 esp, 72			; 00000048H
  00006	53		 push	 ebx
  00007	56		 push	 esi
  00008	57		 push	 edi
  00009	89 4d fc	 mov	 DWORD PTR _this$[ebp], ecx

; 380  : 	if (m_nElementCount>0)

  0000c	8b 45 fc	 mov	 eax, DWORD PTR _this$[ebp]
  0000f	83 78 10 00	 cmp	 DWORD PTR [eax+16], 0
  00013	7e 44		 jle	 SHORT $LN1@RemoveAll

; 381  : 	{
; 382  : 		for (INT_PTR i=0;i<m_nElementCount;i++) (m_pData+i)->~TYPE();

  00015	c7 45 f8 00 00
	00 00		 mov	 DWORD PTR _i$1[ebp], 0
  0001c	eb 09		 jmp	 SHORT $LN4@RemoveAll
$LN2@RemoveAll:
  0001e	8b 45 f8	 mov	 eax, DWORD PTR _i$1[ebp]
  00021	83 c0 01	 add	 eax, 1
  00024	89 45 f8	 mov	 DWORD PTR _i$1[ebp], eax
$LN4@RemoveAll:
  00027	8b 45 fc	 mov	 eax, DWORD PTR _this$[ebp]
  0002a	8b 4d f8	 mov	 ecx, DWORD PTR _i$1[ebp]
  0002d	3b 48 10	 cmp	 ecx, DWORD PTR [eax+16]
  00030	7d 02		 jge	 SHORT $LN3@RemoveAll
  00032	eb ea		 jmp	 SHORT $LN2@RemoveAll
$LN3@RemoveAll:

; 383  : 		memset(m_pData,0,m_nElementCount*sizeof(TYPE));

  00034	8b 45 fc	 mov	 eax, DWORD PTR _this$[ebp]
  00037	8b 48 10	 mov	 ecx, DWORD PTR [eax+16]
  0003a	c1 e1 02	 shl	 ecx, 2
  0003d	51		 push	 ecx
  0003e	6a 00		 push	 0
  00040	8b 55 fc	 mov	 edx, DWORD PTR _this$[ebp]
  00043	8b 42 04	 mov	 eax, DWORD PTR [edx+4]
  00046	50		 push	 eax
  00047	e8 00 00 00 00	 call	 _memset
  0004c	83 c4 0c	 add	 esp, 12			; 0000000cH

; 384  : 		m_nElementCount=0;

  0004f	8b 45 fc	 mov	 eax, DWORD PTR _this$[ebp]
  00052	c7 40 10 00 00
	00 00		 mov	 DWORD PTR [eax+16], 0
$LN1@RemoveAll:

; 385  : 	}
; 386  : 
; 387  : 	return;
; 388  : }

  00059	5f		 pop	 edi
  0005a	5e		 pop	 esi
  0005b	5b		 pop	 ebx
  0005c	8b e5		 mov	 esp, ebp
  0005e	5d		 pop	 ebp
  0005f	c3		 ret	 0
?RemoveAll@?$CWHArray@PAVCGamePropertySubItem@NGamePropertyListManager@@ABQAV12@@@QAEXXZ ENDP ; CWHArray<NGamePropertyListManager::CGamePropertySubItem *,NGamePropertyListManager::CGamePropertySubItem * const &>::RemoveAll
_TEXT	ENDS
; Function compile flags: /Odtp /ZI
; File g:\网狐\happygamewh\服务端\系统模块\全局定义\array.h
;	COMDAT ?SetAtGrow@?$CWHArray@PAVCGamePropertySubItem@NGamePropertyListManager@@ABQAV12@@@QAEXHABQAVCGamePropertySubItem@NGamePropertyListManager@@@Z
_TEXT	SEGMENT
_this$ = -4						; size = 4
_nIndex$ = 8						; size = 4
_newElement$ = 12					; size = 4
?SetAtGrow@?$CWHArray@PAVCGamePropertySubItem@NGamePropertyListManager@@ABQAV12@@@QAEXHABQAVCGamePropertySubItem@NGamePropertyListManager@@@Z PROC ; CWHArray<NGamePropertyListManager::CGamePropertySubItem *,NGamePropertyListManager::CGamePropertySubItem * const &>::SetAtGrow, COMDAT
; _this$ = ecx

; 287  : {

  00000	55		 push	 ebp
  00001	8b ec		 mov	 ebp, esp
  00003	83 ec 44	 sub	 esp, 68			; 00000044H
  00006	53		 push	 ebx
  00007	56		 push	 esi
  00008	57		 push	 edi
  00009	89 4d fc	 mov	 DWORD PTR _this$[ebp], ecx

; 288  : 	//效验参数
; 289  : 	ASSERT(nIndex>=0);

  0000c	83 7d 08 00	 cmp	 DWORD PTR _nIndex$[ebp], 0
  00010	7d 14		 jge	 SHORT $LN5@SetAtGrow
  00012	68 21 01 00 00	 push	 289			; 00000121H
  00017	68 00 00 00 00	 push	 OFFSET ??_C@_0DF@LDFGAABH@g?3?2?M?x?$LK?$PM?2happygamewh?2?$LH?$PO?N?q?$LG?K?2?O?$LF?M?$LD@
  0001c	e8 00 00 00 00	 call	 ?AfxAssertFailedLine@@YGHPBDH@Z ; AfxAssertFailedLine
  00021	85 c0		 test	 eax, eax
  00023	74 01		 je	 SHORT $LN5@SetAtGrow
  00025	cc		 int	 3
$LN5@SetAtGrow:

; 290  : 	if (nIndex<0) AfxThrowInvalidArgException();

  00026	83 7d 08 00	 cmp	 DWORD PTR _nIndex$[ebp], 0
  0002a	7d 05		 jge	 SHORT $LN2@SetAtGrow
  0002c	e8 00 00 00 00	 call	 ?AfxThrowInvalidArgException@@YGXXZ ; AfxThrowInvalidArgException
$LN2@SetAtGrow:

; 291  : 
; 292  : 	//设置元素
; 293  : 	if (nIndex>=m_nElementCount) SetSize(m_nElementCount+1);

  00031	8b 45 fc	 mov	 eax, DWORD PTR _this$[ebp]
  00034	8b 4d 08	 mov	 ecx, DWORD PTR _nIndex$[ebp]
  00037	3b 48 10	 cmp	 ecx, DWORD PTR [eax+16]
  0003a	7c 12		 jl	 SHORT $LN3@SetAtGrow
  0003c	8b 45 fc	 mov	 eax, DWORD PTR _this$[ebp]
  0003f	8b 48 10	 mov	 ecx, DWORD PTR [eax+16]
  00042	83 c1 01	 add	 ecx, 1
  00045	51		 push	 ecx
  00046	8b 4d fc	 mov	 ecx, DWORD PTR _this$[ebp]
  00049	e8 00 00 00 00	 call	 ?SetSize@?$CWHArray@PAVCGamePropertySubItem@NGamePropertyListManager@@ABQAV12@@@QAEXH@Z ; CWHArray<NGamePropertyListManager::CGamePropertySubItem *,NGamePropertyListManager::CGamePropertySubItem * const &>::SetSize
$LN3@SetAtGrow:

; 294  : 	m_pData[nIndex]=newElement;

  0004e	8b 45 fc	 mov	 eax, DWORD PTR _this$[ebp]
  00051	8b 48 04	 mov	 ecx, DWORD PTR [eax+4]
  00054	8b 55 08	 mov	 edx, DWORD PTR _nIndex$[ebp]
  00057	8b 45 0c	 mov	 eax, DWORD PTR _newElement$[ebp]
  0005a	8b 00		 mov	 eax, DWORD PTR [eax]
  0005c	89 04 91	 mov	 DWORD PTR [ecx+edx*4], eax
$LN4@SetAtGrow:

; 295  : 
; 296  : 	return;
; 297  : }

  0005f	5f		 pop	 edi
  00060	5e		 pop	 esi
  00061	5b		 pop	 ebx
  00062	8b e5		 mov	 esp, ebp
  00064	5d		 pop	 ebp
  00065	c2 08 00	 ret	 8
?SetAtGrow@?$CWHArray@PAVCGamePropertySubItem@NGamePropertyListManager@@ABQAV12@@@QAEXHABQAVCGamePropertySubItem@NGamePropertyListManager@@@Z ENDP ; CWHArray<NGamePropertyListManager::CGamePropertySubItem *,NGamePropertyListManager::CGamePropertySubItem * const &>::SetAtGrow
_TEXT	ENDS
; Function compile flags: /Odtp /ZI
; File g:\网狐\happygamewh\服务端\系统模块\全局定义\array.h
;	COMDAT ?SetSize@?$CWHArray@PAVCGamePropertySubItem@NGamePropertyListManager@@ABQAV12@@@QAEXH@Z
_TEXT	SEGMENT
$T1 = -80						; size = 4
_i$2 = -12						; size = 4
_i$3 = -8						; size = 4
_this$ = -4						; size = 4
_nNewSize$ = 8						; size = 4
?SetSize@?$CWHArray@PAVCGamePropertySubItem@NGamePropertyListManager@@ABQAV12@@@QAEXH@Z PROC ; CWHArray<NGamePropertyListManager::CGamePropertySubItem *,NGamePropertyListManager::CGamePropertySubItem * const &>::SetSize, COMDAT
; _this$ = ecx

; 252  : {

  00000	55		 push	 ebp
  00001	8b ec		 mov	 ebp, esp
  00003	83 ec 50	 sub	 esp, 80			; 00000050H
  00006	53		 push	 ebx
  00007	56		 push	 esi
  00008	57		 push	 edi
  00009	89 4d fc	 mov	 DWORD PTR _this$[ebp], ecx

; 253  : 	//效验参数
; 254  : 	ASSERT(nNewSize>=0);

  0000c	83 7d 08 00	 cmp	 DWORD PTR _nNewSize$[ebp], 0
  00010	7d 14		 jge	 SHORT $LN13@SetSize
  00012	68 fe 00 00 00	 push	 254			; 000000feH
  00017	68 00 00 00 00	 push	 OFFSET ??_C@_0DF@LDFGAABH@g?3?2?M?x?$LK?$PM?2happygamewh?2?$LH?$PO?N?q?$LG?K?2?O?$LF?M?$LD@
  0001c	e8 00 00 00 00	 call	 ?AfxAssertFailedLine@@YGHPBDH@Z ; AfxAssertFailedLine
  00021	85 c0		 test	 eax, eax
  00023	74 01		 je	 SHORT $LN13@SetSize
  00025	cc		 int	 3
$LN13@SetSize:

; 255  : 	if (nNewSize<0)	AfxThrowInvalidArgException();

  00026	83 7d 08 00	 cmp	 DWORD PTR _nNewSize$[ebp], 0
  0002a	7d 05		 jge	 SHORT $LN8@SetSize
  0002c	e8 00 00 00 00	 call	 ?AfxThrowInvalidArgException@@YGXXZ ; AfxThrowInvalidArgException
$LN8@SetSize:

; 256  : 	
; 257  : 	//设置大小
; 258  : 	AllocMemory(nNewSize);

  00031	8b 45 08	 mov	 eax, DWORD PTR _nNewSize$[ebp]
  00034	50		 push	 eax
  00035	8b 4d fc	 mov	 ecx, DWORD PTR _this$[ebp]
  00038	e8 00 00 00 00	 call	 ?AllocMemory@?$CWHArray@PAVCGamePropertySubItem@NGamePropertyListManager@@ABQAV12@@@QAEXH@Z ; CWHArray<NGamePropertyListManager::CGamePropertySubItem *,NGamePropertyListManager::CGamePropertySubItem * const &>::AllocMemory

; 259  : 	if (nNewSize>m_nElementCount)

  0003d	8b 45 fc	 mov	 eax, DWORD PTR _this$[ebp]
  00040	8b 4d 08	 mov	 ecx, DWORD PTR _nNewSize$[ebp]
  00043	3b 48 10	 cmp	 ecx, DWORD PTR [eax+16]
  00046	7e 3a		 jle	 SHORT $LN9@SetSize

; 260  : 	{
; 261  : 		for (INT_PTR i=m_nElementCount;i<nNewSize;i++) new ((VOID *)(m_pData+i)) TYPE;

  00048	8b 45 fc	 mov	 eax, DWORD PTR _this$[ebp]
  0004b	8b 48 10	 mov	 ecx, DWORD PTR [eax+16]
  0004e	89 4d f8	 mov	 DWORD PTR _i$3[ebp], ecx
  00051	eb 09		 jmp	 SHORT $LN4@SetSize
$LN2@SetSize:
  00053	8b 45 f8	 mov	 eax, DWORD PTR _i$3[ebp]
  00056	83 c0 01	 add	 eax, 1
  00059	89 45 f8	 mov	 DWORD PTR _i$3[ebp], eax
$LN4@SetSize:
  0005c	8b 45 f8	 mov	 eax, DWORD PTR _i$3[ebp]
  0005f	3b 45 08	 cmp	 eax, DWORD PTR _nNewSize$[ebp]
  00062	7d 1c		 jge	 SHORT $LN3@SetSize
  00064	8b 45 fc	 mov	 eax, DWORD PTR _this$[ebp]
  00067	8b 48 04	 mov	 ecx, DWORD PTR [eax+4]
  0006a	8b 55 f8	 mov	 edx, DWORD PTR _i$3[ebp]
  0006d	8d 04 91	 lea	 eax, DWORD PTR [ecx+edx*4]
  00070	50		 push	 eax
  00071	6a 04		 push	 4
  00073	e8 00 00 00 00	 call	 ??2@YAPAXIPAX@Z		; operator new
  00078	83 c4 08	 add	 esp, 8
  0007b	89 45 b0	 mov	 DWORD PTR $T1[ebp], eax
  0007e	eb d3		 jmp	 SHORT $LN2@SetSize
$LN3@SetSize:

; 262  : 	}
; 263  : 	else if (nNewSize<m_nElementCount)

  00080	eb 4d		 jmp	 SHORT $LN10@SetSize
$LN9@SetSize:
  00082	8b 45 fc	 mov	 eax, DWORD PTR _this$[ebp]
  00085	8b 4d 08	 mov	 ecx, DWORD PTR _nNewSize$[ebp]
  00088	3b 48 10	 cmp	 ecx, DWORD PTR [eax+16]
  0008b	7d 42		 jge	 SHORT $LN10@SetSize

; 264  : 	{
; 265  : 		for (INT_PTR i=nNewSize;i<m_nElementCount;i++) (m_pData+i)->~TYPE();

  0008d	8b 45 08	 mov	 eax, DWORD PTR _nNewSize$[ebp]
  00090	89 45 f4	 mov	 DWORD PTR _i$2[ebp], eax
  00093	eb 09		 jmp	 SHORT $LN7@SetSize
$LN5@SetSize:
  00095	8b 45 f4	 mov	 eax, DWORD PTR _i$2[ebp]
  00098	83 c0 01	 add	 eax, 1
  0009b	89 45 f4	 mov	 DWORD PTR _i$2[ebp], eax
$LN7@SetSize:
  0009e	8b 45 fc	 mov	 eax, DWORD PTR _this$[ebp]
  000a1	8b 4d f4	 mov	 ecx, DWORD PTR _i$2[ebp]
  000a4	3b 48 10	 cmp	 ecx, DWORD PTR [eax+16]
  000a7	7d 02		 jge	 SHORT $LN6@SetSize
  000a9	eb ea		 jmp	 SHORT $LN5@SetSize
$LN6@SetSize:

; 266  : 		memset(m_pData+nNewSize,0,(m_nElementCount-nNewSize)*sizeof(TYPE));

  000ab	8b 45 fc	 mov	 eax, DWORD PTR _this$[ebp]
  000ae	8b 48 10	 mov	 ecx, DWORD PTR [eax+16]
  000b1	2b 4d 08	 sub	 ecx, DWORD PTR _nNewSize$[ebp]
  000b4	c1 e1 02	 shl	 ecx, 2
  000b7	51		 push	 ecx
  000b8	6a 00		 push	 0
  000ba	8b 55 fc	 mov	 edx, DWORD PTR _this$[ebp]
  000bd	8b 42 04	 mov	 eax, DWORD PTR [edx+4]
  000c0	8b 4d 08	 mov	 ecx, DWORD PTR _nNewSize$[ebp]
  000c3	8d 14 88	 lea	 edx, DWORD PTR [eax+ecx*4]
  000c6	52		 push	 edx
  000c7	e8 00 00 00 00	 call	 _memset
  000cc	83 c4 0c	 add	 esp, 12			; 0000000cH
$LN10@SetSize:

; 267  : 	}
; 268  : 	m_nElementCount=nNewSize;

  000cf	8b 45 fc	 mov	 eax, DWORD PTR _this$[ebp]
  000d2	8b 4d 08	 mov	 ecx, DWORD PTR _nNewSize$[ebp]
  000d5	89 48 10	 mov	 DWORD PTR [eax+16], ecx
$LN12@SetSize:

; 269  : 
; 270  : 	return;
; 271  : }

  000d8	5f		 pop	 edi
  000d9	5e		 pop	 esi
  000da	5b		 pop	 ebx
  000db	8b e5		 mov	 esp, ebp
  000dd	5d		 pop	 ebp
  000de	c2 04 00	 ret	 4
?SetSize@?$CWHArray@PAVCGamePropertySubItem@NGamePropertyListManager@@ABQAV12@@@QAEXH@Z ENDP ; CWHArray<NGamePropertyListManager::CGamePropertySubItem *,NGamePropertyListManager::CGamePropertySubItem * const &>::SetSize
_TEXT	ENDS
; Function compile flags: /Odtp /ZI
; File g:\网狐\happygamewh\服务端\系统模块\全局定义\array.h
;	COMDAT ?ElementAt@?$CWHArray@PAVCGamePropertySubItem@NGamePropertyListManager@@ABQAV12@@@QAEAAPAVCGamePropertySubItem@NGamePropertyListManager@@H@Z
_TEXT	SEGMENT
_this$ = -4						; size = 4
_nIndex$ = 8						; size = 4
?ElementAt@?$CWHArray@PAVCGamePropertySubItem@NGamePropertyListManager@@ABQAV12@@@QAEAAPAVCGamePropertySubItem@NGamePropertyListManager@@H@Z PROC ; CWHArray<NGamePropertyListManager::CGamePropertySubItem *,NGamePropertyListManager::CGamePropertySubItem * const &>::ElementAt, COMDAT
; _this$ = ecx

; 232  : {

  00000	55		 push	 ebp
  00001	8b ec		 mov	 ebp, esp
  00003	83 ec 44	 sub	 esp, 68			; 00000044H
  00006	53		 push	 ebx
  00007	56		 push	 esi
  00008	57		 push	 edi
  00009	89 4d fc	 mov	 DWORD PTR _this$[ebp], ecx

; 233  : 	ASSERT((nIndex>=0)&&(nIndex<m_nElementCount));

  0000c	83 7d 08 00	 cmp	 DWORD PTR _nIndex$[ebp], 0
  00010	7c 0b		 jl	 SHORT $LN4@ElementAt
  00012	8b 45 fc	 mov	 eax, DWORD PTR _this$[ebp]
  00015	8b 4d 08	 mov	 ecx, DWORD PTR _nIndex$[ebp]
  00018	3b 48 10	 cmp	 ecx, DWORD PTR [eax+16]
  0001b	7c 14		 jl	 SHORT $LN5@ElementAt
$LN4@ElementAt:
  0001d	68 e9 00 00 00	 push	 233			; 000000e9H
  00022	68 00 00 00 00	 push	 OFFSET ??_C@_0DF@LDFGAABH@g?3?2?M?x?$LK?$PM?2happygamewh?2?$LH?$PO?N?q?$LG?K?2?O?$LF?M?$LD@
  00027	e8 00 00 00 00	 call	 ?AfxAssertFailedLine@@YGHPBDH@Z ; AfxAssertFailedLine
  0002c	85 c0		 test	 eax, eax
  0002e	74 01		 je	 SHORT $LN5@ElementAt
  00030	cc		 int	 3
$LN5@ElementAt:

; 234  : 	if ((nIndex<0)&&(nIndex>=m_nElementCount)) AfxThrowInvalidArgException();

  00031	83 7d 08 00	 cmp	 DWORD PTR _nIndex$[ebp], 0
  00035	7d 10		 jge	 SHORT $LN2@ElementAt
  00037	8b 45 fc	 mov	 eax, DWORD PTR _this$[ebp]
  0003a	8b 4d 08	 mov	 ecx, DWORD PTR _nIndex$[ebp]
  0003d	3b 48 10	 cmp	 ecx, DWORD PTR [eax+16]
  00040	7c 05		 jl	 SHORT $LN2@ElementAt
  00042	e8 00 00 00 00	 call	 ?AfxThrowInvalidArgException@@YGXXZ ; AfxThrowInvalidArgException
$LN2@ElementAt:

; 235  : 	
; 236  : 	return m_pData[nIndex];

  00047	8b 45 fc	 mov	 eax, DWORD PTR _this$[ebp]
  0004a	8b 48 04	 mov	 ecx, DWORD PTR [eax+4]
  0004d	8b 55 08	 mov	 edx, DWORD PTR _nIndex$[ebp]
  00050	8d 04 91	 lea	 eax, DWORD PTR [ecx+edx*4]
$LN3@ElementAt:

; 237  : }

  00053	5f		 pop	 edi
  00054	5e		 pop	 esi
  00055	5b		 pop	 ebx
  00056	8b e5		 mov	 esp, ebp
  00058	5d		 pop	 ebp
  00059	c2 04 00	 ret	 4
?ElementAt@?$CWHArray@PAVCGamePropertySubItem@NGamePropertyListManager@@ABQAV12@@@QAEAAPAVCGamePropertySubItem@NGamePropertyListManager@@H@Z ENDP ; CWHArray<NGamePropertyListManager::CGamePropertySubItem *,NGamePropertyListManager::CGamePropertySubItem * const &>::ElementAt
_TEXT	ENDS
; Function compile flags: /Odtp /ZI
; File g:\网狐\happygamewh\服务端\系统模块\全局定义\array.h
;	COMDAT ?Add@?$CWHArray@PAVCGamePropertySubItem@NGamePropertyListManager@@ABQAV12@@@QAEHABQAVCGamePropertySubItem@NGamePropertyListManager@@@Z
_TEXT	SEGMENT
_nIndex$ = -8						; size = 4
_this$ = -4						; size = 4
_newElement$ = 8					; size = 4
?Add@?$CWHArray@PAVCGamePropertySubItem@NGamePropertyListManager@@ABQAV12@@@QAEHABQAVCGamePropertySubItem@NGamePropertyListManager@@@Z PROC ; CWHArray<NGamePropertyListManager::CGamePropertySubItem *,NGamePropertyListManager::CGamePropertySubItem * const &>::Add, COMDAT
; _this$ = ecx

; 105  : {

  00000	55		 push	 ebp
  00001	8b ec		 mov	 ebp, esp
  00003	83 ec 48	 sub	 esp, 72			; 00000048H
  00006	53		 push	 ebx
  00007	56		 push	 esi
  00008	57		 push	 edi
  00009	89 4d fc	 mov	 DWORD PTR _this$[ebp], ecx

; 106  : 	INT_PTR nIndex=m_nElementCount;

  0000c	8b 45 fc	 mov	 eax, DWORD PTR _this$[ebp]
  0000f	8b 48 10	 mov	 ecx, DWORD PTR [eax+16]
  00012	89 4d f8	 mov	 DWORD PTR _nIndex$[ebp], ecx

; 107  : 	SetAtGrow(nIndex,newElement);

  00015	8b 45 08	 mov	 eax, DWORD PTR _newElement$[ebp]
  00018	50		 push	 eax
  00019	8b 4d f8	 mov	 ecx, DWORD PTR _nIndex$[ebp]
  0001c	51		 push	 ecx
  0001d	8b 4d fc	 mov	 ecx, DWORD PTR _this$[ebp]
  00020	e8 00 00 00 00	 call	 ?SetAtGrow@?$CWHArray@PAVCGamePropertySubItem@NGamePropertyListManager@@ABQAV12@@@QAEXHABQAVCGamePropertySubItem@NGamePropertyListManager@@@Z ; CWHArray<NGamePropertyListManager::CGamePropertySubItem *,NGamePropertyListManager::CGamePropertySubItem * const &>::SetAtGrow

; 108  : 	return nIndex;

  00025	8b 45 f8	 mov	 eax, DWORD PTR _nIndex$[ebp]

; 109  : }

  00028	5f		 pop	 edi
  00029	5e		 pop	 esi
  0002a	5b		 pop	 ebx
  0002b	8b e5		 mov	 esp, ebp
  0002d	5d		 pop	 ebp
  0002e	c2 04 00	 ret	 4
?Add@?$CWHArray@PAVCGamePropertySubItem@NGamePropertyListManager@@ABQAV12@@@QAEHABQAVCGamePropertySubItem@NGamePropertyListManager@@@Z ENDP ; CWHArray<NGamePropertyListManager::CGamePropertySubItem *,NGamePropertyListManager::CGamePropertySubItem * const &>::Add
_TEXT	ENDS
; Function compile flags: /Odtp /ZI
; File g:\网狐\happygamewh\服务端\系统模块\全局定义\array.h
;	COMDAT ?GetCount@?$CWHArray@PAVCGamePropertySubItem@NGamePropertyListManager@@ABQAV12@@@QBEHXZ
_TEXT	SEGMENT
_this$ = -4						; size = 4
?GetCount@?$CWHArray@PAVCGamePropertySubItem@NGamePropertyListManager@@ABQAV12@@@QBEHXZ PROC ; CWHArray<NGamePropertyListManager::CGamePropertySubItem *,NGamePropertyListManager::CGamePropertySubItem * const &>::GetCount, COMDAT
; _this$ = ecx

; 98   : {

  00000	55		 push	 ebp
  00001	8b ec		 mov	 ebp, esp
  00003	83 ec 44	 sub	 esp, 68			; 00000044H
  00006	53		 push	 ebx
  00007	56		 push	 esi
  00008	57		 push	 edi
  00009	89 4d fc	 mov	 DWORD PTR _this$[ebp], ecx

; 99   : 	return m_nElementCount;

  0000c	8b 45 fc	 mov	 eax, DWORD PTR _this$[ebp]
  0000f	8b 40 10	 mov	 eax, DWORD PTR [eax+16]

; 100  : }

  00012	5f		 pop	 edi
  00013	5e		 pop	 esi
  00014	5b		 pop	 ebx
  00015	8b e5		 mov	 esp, ebp
  00017	5d		 pop	 ebp
  00018	c3		 ret	 0
?GetCount@?$CWHArray@PAVCGamePropertySubItem@NGamePropertyListManager@@ABQAV12@@@QBEHXZ ENDP ; CWHArray<NGamePropertyListManager::CGamePropertySubItem *,NGamePropertyListManager::CGamePropertySubItem * const &>::GetCount
_TEXT	ENDS
; Function compile flags: /Odtp /ZI
; File g:\网狐\happygamewh\服务端\系统模块\全局定义\array.h
;	COMDAT ??1?$CWHArray@PAVCGamePropertySubItem@NGamePropertyListManager@@ABQAV12@@@UAE@XZ
_TEXT	SEGMENT
$T1 = -76						; size = 4
_i$2 = -8						; size = 4
_this$ = -4						; size = 4
??1?$CWHArray@PAVCGamePropertySubItem@NGamePropertyListManager@@ABQAV12@@@UAE@XZ PROC ; CWHArray<NGamePropertyListManager::CGamePropertySubItem *,NGamePropertyListManager::CGamePropertySubItem * const &>::~CWHArray<NGamePropertyListManager::CGamePropertySubItem *,NGamePropertyListManager::CGamePropertySubItem * const &>, COMDAT
; _this$ = ecx

; 143  : {

  00000	55		 push	 ebp
  00001	8b ec		 mov	 ebp, esp
  00003	83 ec 4c	 sub	 esp, 76			; 0000004cH
  00006	53		 push	 ebx
  00007	56		 push	 esi
  00008	57		 push	 edi
  00009	89 4d fc	 mov	 DWORD PTR _this$[ebp], ecx
  0000c	8b 45 fc	 mov	 eax, DWORD PTR _this$[ebp]
  0000f	c7 00 00 00 00
	00		 mov	 DWORD PTR [eax], OFFSET ??_7?$CWHArray@PAVCGamePropertySubItem@NGamePropertyListManager@@ABQAV12@@@6B@

; 144  : 	if (m_pData!=NULL)

  00015	8b 45 fc	 mov	 eax, DWORD PTR _this$[ebp]
  00018	83 78 04 00	 cmp	 DWORD PTR [eax+4], 0
  0001c	74 3e		 je	 SHORT $LN6@CWHArray

; 145  : 	{
; 146  : 		for (INT_PTR i=0;i<m_nElementCount;i++)	(m_pData+i)->~TYPE();

  0001e	c7 45 f8 00 00
	00 00		 mov	 DWORD PTR _i$2[ebp], 0
  00025	eb 09		 jmp	 SHORT $LN4@CWHArray
$LN2@CWHArray:
  00027	8b 45 f8	 mov	 eax, DWORD PTR _i$2[ebp]
  0002a	83 c0 01	 add	 eax, 1
  0002d	89 45 f8	 mov	 DWORD PTR _i$2[ebp], eax
$LN4@CWHArray:
  00030	8b 45 fc	 mov	 eax, DWORD PTR _this$[ebp]
  00033	8b 4d f8	 mov	 ecx, DWORD PTR _i$2[ebp]
  00036	3b 48 10	 cmp	 ecx, DWORD PTR [eax+16]
  00039	7d 02		 jge	 SHORT $LN3@CWHArray
  0003b	eb ea		 jmp	 SHORT $LN2@CWHArray
$LN3@CWHArray:

; 147  : 		delete [] (BYTE *)m_pData;

  0003d	8b 45 fc	 mov	 eax, DWORD PTR _this$[ebp]
  00040	8b 48 04	 mov	 ecx, DWORD PTR [eax+4]
  00043	89 4d b4	 mov	 DWORD PTR $T1[ebp], ecx
  00046	8b 55 b4	 mov	 edx, DWORD PTR $T1[ebp]
  00049	52		 push	 edx
  0004a	e8 00 00 00 00	 call	 ??_V@YAXPAX@Z		; operator delete[]
  0004f	83 c4 04	 add	 esp, 4

; 148  : 		m_pData=NULL;

  00052	8b 45 fc	 mov	 eax, DWORD PTR _this$[ebp]
  00055	c7 40 04 00 00
	00 00		 mov	 DWORD PTR [eax+4], 0
$LN6@CWHArray:

; 149  : 	}
; 150  : 
; 151  : 	return;
; 152  : }

  0005c	5f		 pop	 edi
  0005d	5e		 pop	 esi
  0005e	5b		 pop	 ebx
  0005f	8b e5		 mov	 esp, ebp
  00061	5d		 pop	 ebp
  00062	c3		 ret	 0
??1?$CWHArray@PAVCGamePropertySubItem@NGamePropertyListManager@@ABQAV12@@@UAE@XZ ENDP ; CWHArray<NGamePropertyListManager::CGamePropertySubItem *,NGamePropertyListManager::CGamePropertySubItem * const &>::~CWHArray<NGamePropertyListManager::CGamePropertySubItem *,NGamePropertyListManager::CGamePropertySubItem * const &>
_TEXT	ENDS
; Function compile flags: /Odtp /ZI
; File g:\网狐\happygamewh\服务端\系统模块\全局定义\array.h
;	COMDAT ??0?$CWHArray@PAVCGamePropertySubItem@NGamePropertyListManager@@ABQAV12@@@QAE@XZ
_TEXT	SEGMENT
_this$ = -4						; size = 4
??0?$CWHArray@PAVCGamePropertySubItem@NGamePropertyListManager@@ABQAV12@@@QAE@XZ PROC ; CWHArray<NGamePropertyListManager::CGamePropertySubItem *,NGamePropertyListManager::CGamePropertySubItem * const &>::CWHArray<NGamePropertyListManager::CGamePropertySubItem *,NGamePropertyListManager::CGamePropertySubItem * const &>, COMDAT
; _this$ = ecx

; 131  : {

  00000	55		 push	 ebp
  00001	8b ec		 mov	 ebp, esp
  00003	83 ec 44	 sub	 esp, 68			; 00000044H
  00006	53		 push	 ebx
  00007	56		 push	 esi
  00008	57		 push	 edi
  00009	89 4d fc	 mov	 DWORD PTR _this$[ebp], ecx
  0000c	8b 45 fc	 mov	 eax, DWORD PTR _this$[ebp]
  0000f	c7 00 00 00 00
	00		 mov	 DWORD PTR [eax], OFFSET ??_7?$CWHArray@PAVCGamePropertySubItem@NGamePropertyListManager@@ABQAV12@@@6B@

; 132  : 	m_pData=NULL;

  00015	8b 45 fc	 mov	 eax, DWORD PTR _this$[ebp]
  00018	c7 40 04 00 00
	00 00		 mov	 DWORD PTR [eax+4], 0

; 133  : 	m_nMaxCount=0;

  0001f	8b 45 fc	 mov	 eax, DWORD PTR _this$[ebp]
  00022	c7 40 08 00 00
	00 00		 mov	 DWORD PTR [eax+8], 0

; 134  : 	m_nGrowCount=0;

  00029	8b 45 fc	 mov	 eax, DWORD PTR _this$[ebp]
  0002c	c7 40 0c 00 00
	00 00		 mov	 DWORD PTR [eax+12], 0

; 135  : 	m_nElementCount=0;

  00033	8b 45 fc	 mov	 eax, DWORD PTR _this$[ebp]
  00036	c7 40 10 00 00
	00 00		 mov	 DWORD PTR [eax+16], 0

; 136  : 
; 137  : 	return;
; 138  : }

  0003d	8b 45 fc	 mov	 eax, DWORD PTR _this$[ebp]
  00040	5f		 pop	 edi
  00041	5e		 pop	 esi
  00042	5b		 pop	 ebx
  00043	8b e5		 mov	 esp, ebp
  00045	5d		 pop	 ebp
  00046	c3		 ret	 0
??0?$CWHArray@PAVCGamePropertySubItem@NGamePropertyListManager@@ABQAV12@@@QAE@XZ ENDP ; CWHArray<NGamePropertyListManager::CGamePropertySubItem *,NGamePropertyListManager::CGamePropertySubItem * const &>::CWHArray<NGamePropertyListManager::CGamePropertySubItem *,NGamePropertyListManager::CGamePropertySubItem * const &>
_TEXT	ENDS
; Function compile flags: /Odtp /ZI
;	COMDAT ??_G?$CWHArray@PAVCGamePropertyItem@NGamePropertyListManager@@ABQAV12@@@UAEPAXI@Z
_TEXT	SEGMENT
_this$ = -4						; size = 4
___flags$ = 8						; size = 4
??_G?$CWHArray@PAVCGamePropertyItem@NGamePropertyListManager@@ABQAV12@@@UAEPAXI@Z PROC ; CWHArray<NGamePropertyListManager::CGamePropertyItem *,NGamePropertyListManager::CGamePropertyItem * const &>::`scalar deleting destructor', COMDAT
; _this$ = ecx
  00000	55		 push	 ebp
  00001	8b ec		 mov	 ebp, esp
  00003	83 ec 44	 sub	 esp, 68			; 00000044H
  00006	53		 push	 ebx
  00007	56		 push	 esi
  00008	57		 push	 edi
  00009	89 4d fc	 mov	 DWORD PTR _this$[ebp], ecx
  0000c	8b 4d fc	 mov	 ecx, DWORD PTR _this$[ebp]
  0000f	e8 00 00 00 00	 call	 ??1?$CWHArray@PAVCGamePropertyItem@NGamePropertyListManager@@ABQAV12@@@UAE@XZ ; CWHArray<NGamePropertyListManager::CGamePropertyItem *,NGamePropertyListManager::CGamePropertyItem * const &>::~CWHArray<NGamePropertyListManager::CGamePropertyItem *,NGamePropertyListManager::CGamePropertyItem * const &>
  00014	8b 45 08	 mov	 eax, DWORD PTR ___flags$[ebp]
  00017	83 e0 01	 and	 eax, 1
  0001a	74 0e		 je	 SHORT $LN2@scalar
  0001c	6a 14		 push	 20			; 00000014H
  0001e	8b 45 fc	 mov	 eax, DWORD PTR _this$[ebp]
  00021	50		 push	 eax
  00022	e8 00 00 00 00	 call	 ??3@YAXPAXI@Z		; operator delete
  00027	83 c4 08	 add	 esp, 8
$LN2@scalar:
  0002a	8b 45 fc	 mov	 eax, DWORD PTR _this$[ebp]
  0002d	5f		 pop	 edi
  0002e	5e		 pop	 esi
  0002f	5b		 pop	 ebx
  00030	8b e5		 mov	 esp, ebp
  00032	5d		 pop	 ebp
  00033	c2 04 00	 ret	 4
??_G?$CWHArray@PAVCGamePropertyItem@NGamePropertyListManager@@ABQAV12@@@UAEPAXI@Z ENDP ; CWHArray<NGamePropertyListManager::CGamePropertyItem *,NGamePropertyListManager::CGamePropertyItem * const &>::`scalar deleting destructor'
_TEXT	ENDS
; Function compile flags: /Odtp /ZI
; File g:\网狐\happygamewh\服务端\系统模块\全局定义\array.h
;	COMDAT ?AllocMemory@?$CWHArray@PAVCGamePropertyItem@NGamePropertyListManager@@ABQAV12@@@QAEXH@Z
_TEXT	SEGMENT
tv78 = -92						; size = 4
tv79 = -88						; size = 4
$T1 = -84						; size = 4
$T2 = -80						; size = 4
_pNewData$3 = -12					; size = 4
_nGrowCount$4 = -8					; size = 4
_this$ = -4						; size = 4
_nNewCount$ = 8						; size = 4
?AllocMemory@?$CWHArray@PAVCGamePropertyItem@NGamePropertyListManager@@ABQAV12@@@QAEXH@Z PROC ; CWHArray<NGamePropertyListManager::CGamePropertyItem *,NGamePropertyListManager::CGamePropertyItem * const &>::AllocMemory, COMDAT
; _this$ = ecx

; 413  : {

  00000	55		 push	 ebp
  00001	8b ec		 mov	 ebp, esp
  00003	83 ec 5c	 sub	 esp, 92			; 0000005cH
  00006	53		 push	 ebx
  00007	56		 push	 esi
  00008	57		 push	 edi
  00009	89 4d fc	 mov	 DWORD PTR _this$[ebp], ecx

; 414  : 	//效验参数
; 415  : 	ASSERT(nNewCount>=0);

  0000c	83 7d 08 00	 cmp	 DWORD PTR _nNewCount$[ebp], 0
  00010	7d 14		 jge	 SHORT $LN5@AllocMemor
  00012	68 9f 01 00 00	 push	 415			; 0000019fH
  00017	68 00 00 00 00	 push	 OFFSET ??_C@_0DF@LDFGAABH@g?3?2?M?x?$LK?$PM?2happygamewh?2?$LH?$PO?N?q?$LG?K?2?O?$LF?M?$LD@
  0001c	e8 00 00 00 00	 call	 ?AfxAssertFailedLine@@YGHPBDH@Z ; AfxAssertFailedLine
  00021	85 c0		 test	 eax, eax
  00023	74 01		 je	 SHORT $LN5@AllocMemor
  00025	cc		 int	 3
$LN5@AllocMemor:

; 416  : 
; 417  : 	if (nNewCount>m_nMaxCount)

  00026	8b 45 fc	 mov	 eax, DWORD PTR _this$[ebp]
  00029	8b 4d 08	 mov	 ecx, DWORD PTR _nNewCount$[ebp]
  0002c	3b 48 08	 cmp	 ecx, DWORD PTR [eax+8]
  0002f	0f 8e dd 00 00
	00		 jle	 $LN1@AllocMemor

; 418  : 	{
; 419  : 		//计算数目
; 420  : 		INT_PTR nGrowCount=m_nGrowCount;

  00035	8b 45 fc	 mov	 eax, DWORD PTR _this$[ebp]
  00038	8b 48 0c	 mov	 ecx, DWORD PTR [eax+12]
  0003b	89 4d f8	 mov	 DWORD PTR _nGrowCount$4[ebp], ecx

; 421  : 		if (nGrowCount==0)

  0003e	83 7d f8 00	 cmp	 DWORD PTR _nGrowCount$4[ebp], 0
  00042	75 45		 jne	 SHORT $LN3@AllocMemor

; 422  : 		{
; 423  : 			nGrowCount=m_nElementCount/8;

  00044	8b 45 fc	 mov	 eax, DWORD PTR _this$[ebp]
  00047	8b 40 10	 mov	 eax, DWORD PTR [eax+16]
  0004a	99		 cdq
  0004b	83 e2 07	 and	 edx, 7
  0004e	03 c2		 add	 eax, edx
  00050	c1 f8 03	 sar	 eax, 3
  00053	89 45 f8	 mov	 DWORD PTR _nGrowCount$4[ebp], eax

; 424  : 			nGrowCount=(nGrowCount<4)?4:((nGrowCount>1024)?1024:nGrowCount);

  00056	83 7d f8 04	 cmp	 DWORD PTR _nGrowCount$4[ebp], 4
  0005a	7d 09		 jge	 SHORT $LN8@AllocMemor
  0005c	c7 45 a8 04 00
	00 00		 mov	 DWORD PTR tv79[ebp], 4
  00063	eb 1e		 jmp	 SHORT $LN9@AllocMemor
$LN8@AllocMemor:
  00065	81 7d f8 00 04
	00 00		 cmp	 DWORD PTR _nGrowCount$4[ebp], 1024 ; 00000400H
  0006c	7e 09		 jle	 SHORT $LN6@AllocMemor
  0006e	c7 45 a4 00 04
	00 00		 mov	 DWORD PTR tv78[ebp], 1024 ; 00000400H
  00075	eb 06		 jmp	 SHORT $LN7@AllocMemor
$LN6@AllocMemor:
  00077	8b 45 f8	 mov	 eax, DWORD PTR _nGrowCount$4[ebp]
  0007a	89 45 a4	 mov	 DWORD PTR tv78[ebp], eax
$LN7@AllocMemor:
  0007d	8b 4d a4	 mov	 ecx, DWORD PTR tv78[ebp]
  00080	89 4d a8	 mov	 DWORD PTR tv79[ebp], ecx
$LN9@AllocMemor:
  00083	8b 55 a8	 mov	 edx, DWORD PTR tv79[ebp]
  00086	89 55 f8	 mov	 DWORD PTR _nGrowCount$4[ebp], edx
$LN3@AllocMemor:

; 425  : 		}
; 426  : 		nNewCount+=nGrowCount;

  00089	8b 45 08	 mov	 eax, DWORD PTR _nNewCount$[ebp]
  0008c	03 45 f8	 add	 eax, DWORD PTR _nGrowCount$4[ebp]
  0008f	89 45 08	 mov	 DWORD PTR _nNewCount$[ebp], eax

; 427  : 
; 428  : 		//申请内存
; 429  : 		TYPE * pNewData=(TYPE *) new BYTE[nNewCount*sizeof(TYPE)];

  00092	8b 45 08	 mov	 eax, DWORD PTR _nNewCount$[ebp]
  00095	c1 e0 02	 shl	 eax, 2
  00098	50		 push	 eax
  00099	e8 00 00 00 00	 call	 ??_U@YAPAXI@Z		; operator new[]
  0009e	83 c4 04	 add	 esp, 4
  000a1	89 45 b0	 mov	 DWORD PTR $T2[ebp], eax
  000a4	8b 4d b0	 mov	 ecx, DWORD PTR $T2[ebp]
  000a7	89 4d f4	 mov	 DWORD PTR _pNewData$3[ebp], ecx

; 430  : 		memcpy(pNewData,m_pData,m_nElementCount*sizeof(TYPE));

  000aa	8b 45 fc	 mov	 eax, DWORD PTR _this$[ebp]
  000ad	8b 48 10	 mov	 ecx, DWORD PTR [eax+16]
  000b0	c1 e1 02	 shl	 ecx, 2
  000b3	51		 push	 ecx
  000b4	8b 55 fc	 mov	 edx, DWORD PTR _this$[ebp]
  000b7	8b 42 04	 mov	 eax, DWORD PTR [edx+4]
  000ba	50		 push	 eax
  000bb	8b 4d f4	 mov	 ecx, DWORD PTR _pNewData$3[ebp]
  000be	51		 push	 ecx
  000bf	e8 00 00 00 00	 call	 _memcpy
  000c4	83 c4 0c	 add	 esp, 12			; 0000000cH

; 431  : 		memset(pNewData+m_nElementCount,0,(nNewCount-m_nElementCount)*sizeof(TYPE));

  000c7	8b 45 fc	 mov	 eax, DWORD PTR _this$[ebp]
  000ca	8b 4d 08	 mov	 ecx, DWORD PTR _nNewCount$[ebp]
  000cd	2b 48 10	 sub	 ecx, DWORD PTR [eax+16]
  000d0	c1 e1 02	 shl	 ecx, 2
  000d3	51		 push	 ecx
  000d4	6a 00		 push	 0
  000d6	8b 55 fc	 mov	 edx, DWORD PTR _this$[ebp]
  000d9	8b 42 10	 mov	 eax, DWORD PTR [edx+16]
  000dc	8b 4d f4	 mov	 ecx, DWORD PTR _pNewData$3[ebp]
  000df	8d 14 81	 lea	 edx, DWORD PTR [ecx+eax*4]
  000e2	52		 push	 edx
  000e3	e8 00 00 00 00	 call	 _memset
  000e8	83 c4 0c	 add	 esp, 12			; 0000000cH

; 432  : 		delete [] (BYTE *)m_pData;

  000eb	8b 45 fc	 mov	 eax, DWORD PTR _this$[ebp]
  000ee	8b 48 04	 mov	 ecx, DWORD PTR [eax+4]
  000f1	89 4d ac	 mov	 DWORD PTR $T1[ebp], ecx
  000f4	8b 55 ac	 mov	 edx, DWORD PTR $T1[ebp]
  000f7	52		 push	 edx
  000f8	e8 00 00 00 00	 call	 ??_V@YAXPAX@Z		; operator delete[]
  000fd	83 c4 04	 add	 esp, 4

; 433  : 
; 434  : 		//设置变量
; 435  : 		m_pData=pNewData;

  00100	8b 45 fc	 mov	 eax, DWORD PTR _this$[ebp]
  00103	8b 4d f4	 mov	 ecx, DWORD PTR _pNewData$3[ebp]
  00106	89 48 04	 mov	 DWORD PTR [eax+4], ecx

; 436  : 		m_nMaxCount=nNewCount;

  00109	8b 45 fc	 mov	 eax, DWORD PTR _this$[ebp]
  0010c	8b 4d 08	 mov	 ecx, DWORD PTR _nNewCount$[ebp]
  0010f	89 48 08	 mov	 DWORD PTR [eax+8], ecx
$LN1@AllocMemor:

; 437  : 	}
; 438  : 
; 439  : 	return;
; 440  : }

  00112	5f		 pop	 edi
  00113	5e		 pop	 esi
  00114	5b		 pop	 ebx
  00115	8b e5		 mov	 esp, ebp
  00117	5d		 pop	 ebp
  00118	c2 04 00	 ret	 4
?AllocMemory@?$CWHArray@PAVCGamePropertyItem@NGamePropertyListManager@@ABQAV12@@@QAEXH@Z ENDP ; CWHArray<NGamePropertyListManager::CGamePropertyItem *,NGamePropertyListManager::CGamePropertyItem * const &>::AllocMemory
_TEXT	ENDS
; Function compile flags: /Odtp /ZI
; File g:\网狐\happygamewh\服务端\系统模块\全局定义\array.h
;	COMDAT ??A?$CWHArray@PAVCGamePropertyItem@NGamePropertyListManager@@ABQAV12@@@QAEAAPAVCGamePropertyItem@NGamePropertyListManager@@H@Z
_TEXT	SEGMENT
_this$ = -4						; size = 4
_nIndex$ = 8						; size = 4
??A?$CWHArray@PAVCGamePropertyItem@NGamePropertyListManager@@ABQAV12@@@QAEAAPAVCGamePropertyItem@NGamePropertyListManager@@H@Z PROC ; CWHArray<NGamePropertyListManager::CGamePropertyItem *,NGamePropertyListManager::CGamePropertyItem * const &>::operator[], COMDAT
; _this$ = ecx

; 114  : { 

  00000	55		 push	 ebp
  00001	8b ec		 mov	 ebp, esp
  00003	83 ec 44	 sub	 esp, 68			; 00000044H
  00006	53		 push	 ebx
  00007	56		 push	 esi
  00008	57		 push	 edi
  00009	89 4d fc	 mov	 DWORD PTR _this$[ebp], ecx

; 115  : 	return ElementAt(nIndex);

  0000c	8b 45 08	 mov	 eax, DWORD PTR _nIndex$[ebp]
  0000f	50		 push	 eax
  00010	8b 4d fc	 mov	 ecx, DWORD PTR _this$[ebp]
  00013	e8 00 00 00 00	 call	 ?ElementAt@?$CWHArray@PAVCGamePropertyItem@NGamePropertyListManager@@ABQAV12@@@QAEAAPAVCGamePropertyItem@NGamePropertyListManager@@H@Z ; CWHArray<NGamePropertyListManager::CGamePropertyItem *,NGamePropertyListManager::CGamePropertyItem * const &>::ElementAt

; 116  : }

  00018	5f		 pop	 edi
  00019	5e		 pop	 esi
  0001a	5b		 pop	 ebx
  0001b	8b e5		 mov	 esp, ebp
  0001d	5d		 pop	 ebp
  0001e	c2 04 00	 ret	 4
??A?$CWHArray@PAVCGamePropertyItem@NGamePropertyListManager@@ABQAV12@@@QAEAAPAVCGamePropertyItem@NGamePropertyListManager@@H@Z ENDP ; CWHArray<NGamePropertyListManager::CGamePropertyItem *,NGamePropertyListManager::CGamePropertyItem * const &>::operator[]
_TEXT	ENDS
; Function compile flags: /Odtp /ZI
; File g:\网狐\happygamewh\服务端\系统模块\全局定义\array.h
;	COMDAT ?RemoveAll@?$CWHArray@PAVCGamePropertyItem@NGamePropertyListManager@@ABQAV12@@@QAEXXZ
_TEXT	SEGMENT
_i$1 = -8						; size = 4
_this$ = -4						; size = 4
?RemoveAll@?$CWHArray@PAVCGamePropertyItem@NGamePropertyListManager@@ABQAV12@@@QAEXXZ PROC ; CWHArray<NGamePropertyListManager::CGamePropertyItem *,NGamePropertyListManager::CGamePropertyItem * const &>::RemoveAll, COMDAT
; _this$ = ecx

; 379  : {

  00000	55		 push	 ebp
  00001	8b ec		 mov	 ebp, esp
  00003	83 ec 48	 sub	 esp, 72			; 00000048H
  00006	53		 push	 ebx
  00007	56		 push	 esi
  00008	57		 push	 edi
  00009	89 4d fc	 mov	 DWORD PTR _this$[ebp], ecx

; 380  : 	if (m_nElementCount>0)

  0000c	8b 45 fc	 mov	 eax, DWORD PTR _this$[ebp]
  0000f	83 78 10 00	 cmp	 DWORD PTR [eax+16], 0
  00013	7e 44		 jle	 SHORT $LN1@RemoveAll

; 381  : 	{
; 382  : 		for (INT_PTR i=0;i<m_nElementCount;i++) (m_pData+i)->~TYPE();

  00015	c7 45 f8 00 00
	00 00		 mov	 DWORD PTR _i$1[ebp], 0
  0001c	eb 09		 jmp	 SHORT $LN4@RemoveAll
$LN2@RemoveAll:
  0001e	8b 45 f8	 mov	 eax, DWORD PTR _i$1[ebp]
  00021	83 c0 01	 add	 eax, 1
  00024	89 45 f8	 mov	 DWORD PTR _i$1[ebp], eax
$LN4@RemoveAll:
  00027	8b 45 fc	 mov	 eax, DWORD PTR _this$[ebp]
  0002a	8b 4d f8	 mov	 ecx, DWORD PTR _i$1[ebp]
  0002d	3b 48 10	 cmp	 ecx, DWORD PTR [eax+16]
  00030	7d 02		 jge	 SHORT $LN3@RemoveAll
  00032	eb ea		 jmp	 SHORT $LN2@RemoveAll
$LN3@RemoveAll:

; 383  : 		memset(m_pData,0,m_nElementCount*sizeof(TYPE));

  00034	8b 45 fc	 mov	 eax, DWORD PTR _this$[ebp]
  00037	8b 48 10	 mov	 ecx, DWORD PTR [eax+16]
  0003a	c1 e1 02	 shl	 ecx, 2
  0003d	51		 push	 ecx
  0003e	6a 00		 push	 0
  00040	8b 55 fc	 mov	 edx, DWORD PTR _this$[ebp]
  00043	8b 42 04	 mov	 eax, DWORD PTR [edx+4]
  00046	50		 push	 eax
  00047	e8 00 00 00 00	 call	 _memset
  0004c	83 c4 0c	 add	 esp, 12			; 0000000cH

; 384  : 		m_nElementCount=0;

  0004f	8b 45 fc	 mov	 eax, DWORD PTR _this$[ebp]
  00052	c7 40 10 00 00
	00 00		 mov	 DWORD PTR [eax+16], 0
$LN1@RemoveAll:

; 385  : 	}
; 386  : 
; 387  : 	return;
; 388  : }

  00059	5f		 pop	 edi
  0005a	5e		 pop	 esi
  0005b	5b		 pop	 ebx
  0005c	8b e5		 mov	 esp, ebp
  0005e	5d		 pop	 ebp
  0005f	c3		 ret	 0
?RemoveAll@?$CWHArray@PAVCGamePropertyItem@NGamePropertyListManager@@ABQAV12@@@QAEXXZ ENDP ; CWHArray<NGamePropertyListManager::CGamePropertyItem *,NGamePropertyListManager::CGamePropertyItem * const &>::RemoveAll
_TEXT	ENDS
; Function compile flags: /Odtp /ZI
; File g:\网狐\happygamewh\服务端\系统模块\全局定义\array.h
;	COMDAT ?RemoveAt@?$CWHArray@PAVCGamePropertyItem@NGamePropertyListManager@@ABQAV12@@@QAEXHH@Z
_TEXT	SEGMENT
_i$1 = -12						; size = 4
_nMoveCount$ = -8					; size = 4
_this$ = -4						; size = 4
_nIndex$ = 8						; size = 4
_nCount$ = 12						; size = 4
?RemoveAt@?$CWHArray@PAVCGamePropertyItem@NGamePropertyListManager@@ABQAV12@@@QAEXHH@Z PROC ; CWHArray<NGamePropertyListManager::CGamePropertyItem *,NGamePropertyListManager::CGamePropertyItem * const &>::RemoveAt, COMDAT
; _this$ = ecx

; 360  : {

  00000	55		 push	 ebp
  00001	8b ec		 mov	 ebp, esp
  00003	83 ec 4c	 sub	 esp, 76			; 0000004cH
  00006	53		 push	 ebx
  00007	56		 push	 esi
  00008	57		 push	 edi
  00009	89 4d fc	 mov	 DWORD PTR _this$[ebp], ecx

; 361  : 	//效验参数
; 362  : 	ASSERT(nIndex>=0);

  0000c	83 7d 08 00	 cmp	 DWORD PTR _nIndex$[ebp], 0
  00010	7d 14		 jge	 SHORT $LN9@RemoveAt
  00012	68 6a 01 00 00	 push	 362			; 0000016aH
  00017	68 00 00 00 00	 push	 OFFSET ??_C@_0DF@LDFGAABH@g?3?2?M?x?$LK?$PM?2happygamewh?2?$LH?$PO?N?q?$LG?K?2?O?$LF?M?$LD@
  0001c	e8 00 00 00 00	 call	 ?AfxAssertFailedLine@@YGHPBDH@Z ; AfxAssertFailedLine
  00021	85 c0		 test	 eax, eax
  00023	74 01		 je	 SHORT $LN9@RemoveAt
  00025	cc		 int	 3
$LN9@RemoveAt:

; 363  : 	ASSERT(nCount>=0);

  00026	83 7d 0c 00	 cmp	 DWORD PTR _nCount$[ebp], 0
  0002a	7d 14		 jge	 SHORT $LN10@RemoveAt
  0002c	68 6b 01 00 00	 push	 363			; 0000016bH
  00031	68 00 00 00 00	 push	 OFFSET ??_C@_0DF@LDFGAABH@g?3?2?M?x?$LK?$PM?2happygamewh?2?$LH?$PO?N?q?$LG?K?2?O?$LF?M?$LD@
  00036	e8 00 00 00 00	 call	 ?AfxAssertFailedLine@@YGHPBDH@Z ; AfxAssertFailedLine
  0003b	85 c0		 test	 eax, eax
  0003d	74 01		 je	 SHORT $LN10@RemoveAt
  0003f	cc		 int	 3
$LN10@RemoveAt:

; 364  : 	ASSERT(nIndex+nCount<=m_nElementCount);

  00040	8b 45 08	 mov	 eax, DWORD PTR _nIndex$[ebp]
  00043	03 45 0c	 add	 eax, DWORD PTR _nCount$[ebp]
  00046	8b 4d fc	 mov	 ecx, DWORD PTR _this$[ebp]
  00049	3b 41 10	 cmp	 eax, DWORD PTR [ecx+16]
  0004c	7e 14		 jle	 SHORT $LN11@RemoveAt
  0004e	68 6c 01 00 00	 push	 364			; 0000016cH
  00053	68 00 00 00 00	 push	 OFFSET ??_C@_0DF@LDFGAABH@g?3?2?M?x?$LK?$PM?2happygamewh?2?$LH?$PO?N?q?$LG?K?2?O?$LF?M?$LD@
  00058	e8 00 00 00 00	 call	 ?AfxAssertFailedLine@@YGHPBDH@Z ; AfxAssertFailedLine
  0005d	85 c0		 test	 eax, eax
  0005f	74 01		 je	 SHORT $LN11@RemoveAt
  00061	cc		 int	 3
$LN11@RemoveAt:

; 365  : 	if ((nIndex<0)||(nCount<0)||((nIndex+nCount>m_nElementCount))) AfxThrowInvalidArgException();

  00062	83 7d 08 00	 cmp	 DWORD PTR _nIndex$[ebp], 0
  00066	7c 14		 jl	 SHORT $LN6@RemoveAt
  00068	83 7d 0c 00	 cmp	 DWORD PTR _nCount$[ebp], 0
  0006c	7c 0e		 jl	 SHORT $LN6@RemoveAt
  0006e	8b 45 08	 mov	 eax, DWORD PTR _nIndex$[ebp]
  00071	03 45 0c	 add	 eax, DWORD PTR _nCount$[ebp]
  00074	8b 4d fc	 mov	 ecx, DWORD PTR _this$[ebp]
  00077	3b 41 10	 cmp	 eax, DWORD PTR [ecx+16]
  0007a	7e 05		 jle	 SHORT $LN5@RemoveAt
$LN6@RemoveAt:
  0007c	e8 00 00 00 00	 call	 ?AfxThrowInvalidArgException@@YGXXZ ; AfxThrowInvalidArgException
$LN5@RemoveAt:

; 366  : 
; 367  : 	//删除数据
; 368  : 	INT_PTR nMoveCount=m_nElementCount-(nIndex+nCount);

  00081	8b 45 08	 mov	 eax, DWORD PTR _nIndex$[ebp]
  00084	03 45 0c	 add	 eax, DWORD PTR _nCount$[ebp]
  00087	8b 4d fc	 mov	 ecx, DWORD PTR _this$[ebp]
  0008a	8b 51 10	 mov	 edx, DWORD PTR [ecx+16]
  0008d	2b d0		 sub	 edx, eax
  0008f	89 55 f8	 mov	 DWORD PTR _nMoveCount$[ebp], edx

; 369  : 	for (INT_PTR i=0;i<nCount;i++) (m_pData+nIndex+i)->~TYPE();

  00092	c7 45 f4 00 00
	00 00		 mov	 DWORD PTR _i$1[ebp], 0
  00099	eb 09		 jmp	 SHORT $LN4@RemoveAt
$LN2@RemoveAt:
  0009b	8b 45 f4	 mov	 eax, DWORD PTR _i$1[ebp]
  0009e	83 c0 01	 add	 eax, 1
  000a1	89 45 f4	 mov	 DWORD PTR _i$1[ebp], eax
$LN4@RemoveAt:
  000a4	8b 45 f4	 mov	 eax, DWORD PTR _i$1[ebp]
  000a7	3b 45 0c	 cmp	 eax, DWORD PTR _nCount$[ebp]
  000aa	7d 02		 jge	 SHORT $LN3@RemoveAt
  000ac	eb ed		 jmp	 SHORT $LN2@RemoveAt
$LN3@RemoveAt:

; 370  : 	if (nMoveCount>0) memmove(m_pData+nIndex,m_pData+nIndex+nCount,nMoveCount*sizeof(TYPE));

  000ae	83 7d f8 00	 cmp	 DWORD PTR _nMoveCount$[ebp], 0
  000b2	7e 2f		 jle	 SHORT $LN7@RemoveAt
  000b4	8b 45 f8	 mov	 eax, DWORD PTR _nMoveCount$[ebp]
  000b7	c1 e0 02	 shl	 eax, 2
  000ba	50		 push	 eax
  000bb	8b 4d fc	 mov	 ecx, DWORD PTR _this$[ebp]
  000be	8b 51 04	 mov	 edx, DWORD PTR [ecx+4]
  000c1	8b 45 08	 mov	 eax, DWORD PTR _nIndex$[ebp]
  000c4	8d 0c 82	 lea	 ecx, DWORD PTR [edx+eax*4]
  000c7	8b 55 0c	 mov	 edx, DWORD PTR _nCount$[ebp]
  000ca	8d 04 91	 lea	 eax, DWORD PTR [ecx+edx*4]
  000cd	50		 push	 eax
  000ce	8b 4d fc	 mov	 ecx, DWORD PTR _this$[ebp]
  000d1	8b 51 04	 mov	 edx, DWORD PTR [ecx+4]
  000d4	8b 45 08	 mov	 eax, DWORD PTR _nIndex$[ebp]
  000d7	8d 0c 82	 lea	 ecx, DWORD PTR [edx+eax*4]
  000da	51		 push	 ecx
  000db	e8 00 00 00 00	 call	 _memmove
  000e0	83 c4 0c	 add	 esp, 12			; 0000000cH
$LN7@RemoveAt:

; 371  : 	m_nElementCount-=nCount;

  000e3	8b 45 fc	 mov	 eax, DWORD PTR _this$[ebp]
  000e6	8b 48 10	 mov	 ecx, DWORD PTR [eax+16]
  000e9	2b 4d 0c	 sub	 ecx, DWORD PTR _nCount$[ebp]
  000ec	8b 55 fc	 mov	 edx, DWORD PTR _this$[ebp]
  000ef	89 4a 10	 mov	 DWORD PTR [edx+16], ecx
$LN8@RemoveAt:

; 372  : 
; 373  : 	return;
; 374  : }

  000f2	5f		 pop	 edi
  000f3	5e		 pop	 esi
  000f4	5b		 pop	 ebx
  000f5	8b e5		 mov	 esp, ebp
  000f7	5d		 pop	 ebp
  000f8	c2 08 00	 ret	 8
?RemoveAt@?$CWHArray@PAVCGamePropertyItem@NGamePropertyListManager@@ABQAV12@@@QAEXHH@Z ENDP ; CWHArray<NGamePropertyListManager::CGamePropertyItem *,NGamePropertyListManager::CGamePropertyItem * const &>::RemoveAt
_TEXT	ENDS
; Function compile flags: /Odtp /ZI
; File g:\网狐\happygamewh\服务端\系统模块\全局定义\array.h
;	COMDAT ?SetAtGrow@?$CWHArray@PAVCGamePropertyItem@NGamePropertyListManager@@ABQAV12@@@QAEXHABQAVCGamePropertyItem@NGamePropertyListManager@@@Z
_TEXT	SEGMENT
_this$ = -4						; size = 4
_nIndex$ = 8						; size = 4
_newElement$ = 12					; size = 4
?SetAtGrow@?$CWHArray@PAVCGamePropertyItem@NGamePropertyListManager@@ABQAV12@@@QAEXHABQAVCGamePropertyItem@NGamePropertyListManager@@@Z PROC ; CWHArray<NGamePropertyListManager::CGamePropertyItem *,NGamePropertyListManager::CGamePropertyItem * const &>::SetAtGrow, COMDAT
; _this$ = ecx

; 287  : {

  00000	55		 push	 ebp
  00001	8b ec		 mov	 ebp, esp
  00003	83 ec 44	 sub	 esp, 68			; 00000044H
  00006	53		 push	 ebx
  00007	56		 push	 esi
  00008	57		 push	 edi
  00009	89 4d fc	 mov	 DWORD PTR _this$[ebp], ecx

; 288  : 	//效验参数
; 289  : 	ASSERT(nIndex>=0);

  0000c	83 7d 08 00	 cmp	 DWORD PTR _nIndex$[ebp], 0
  00010	7d 14		 jge	 SHORT $LN5@SetAtGrow
  00012	68 21 01 00 00	 push	 289			; 00000121H
  00017	68 00 00 00 00	 push	 OFFSET ??_C@_0DF@LDFGAABH@g?3?2?M?x?$LK?$PM?2happygamewh?2?$LH?$PO?N?q?$LG?K?2?O?$LF?M?$LD@
  0001c	e8 00 00 00 00	 call	 ?AfxAssertFailedLine@@YGHPBDH@Z ; AfxAssertFailedLine
  00021	85 c0		 test	 eax, eax
  00023	74 01		 je	 SHORT $LN5@SetAtGrow
  00025	cc		 int	 3
$LN5@SetAtGrow:

; 290  : 	if (nIndex<0) AfxThrowInvalidArgException();

  00026	83 7d 08 00	 cmp	 DWORD PTR _nIndex$[ebp], 0
  0002a	7d 05		 jge	 SHORT $LN2@SetAtGrow
  0002c	e8 00 00 00 00	 call	 ?AfxThrowInvalidArgException@@YGXXZ ; AfxThrowInvalidArgException
$LN2@SetAtGrow:

; 291  : 
; 292  : 	//设置元素
; 293  : 	if (nIndex>=m_nElementCount) SetSize(m_nElementCount+1);

  00031	8b 45 fc	 mov	 eax, DWORD PTR _this$[ebp]
  00034	8b 4d 08	 mov	 ecx, DWORD PTR _nIndex$[ebp]
  00037	3b 48 10	 cmp	 ecx, DWORD PTR [eax+16]
  0003a	7c 12		 jl	 SHORT $LN3@SetAtGrow
  0003c	8b 45 fc	 mov	 eax, DWORD PTR _this$[ebp]
  0003f	8b 48 10	 mov	 ecx, DWORD PTR [eax+16]
  00042	83 c1 01	 add	 ecx, 1
  00045	51		 push	 ecx
  00046	8b 4d fc	 mov	 ecx, DWORD PTR _this$[ebp]
  00049	e8 00 00 00 00	 call	 ?SetSize@?$CWHArray@PAVCGamePropertyItem@NGamePropertyListManager@@ABQAV12@@@QAEXH@Z ; CWHArray<NGamePropertyListManager::CGamePropertyItem *,NGamePropertyListManager::CGamePropertyItem * const &>::SetSize
$LN3@SetAtGrow:

; 294  : 	m_pData[nIndex]=newElement;

  0004e	8b 45 fc	 mov	 eax, DWORD PTR _this$[ebp]
  00051	8b 48 04	 mov	 ecx, DWORD PTR [eax+4]
  00054	8b 55 08	 mov	 edx, DWORD PTR _nIndex$[ebp]
  00057	8b 45 0c	 mov	 eax, DWORD PTR _newElement$[ebp]
  0005a	8b 00		 mov	 eax, DWORD PTR [eax]
  0005c	89 04 91	 mov	 DWORD PTR [ecx+edx*4], eax
$LN4@SetAtGrow:

; 295  : 
; 296  : 	return;
; 297  : }

  0005f	5f		 pop	 edi
  00060	5e		 pop	 esi
  00061	5b		 pop	 ebx
  00062	8b e5		 mov	 esp, ebp
  00064	5d		 pop	 ebp
  00065	c2 08 00	 ret	 8
?SetAtGrow@?$CWHArray@PAVCGamePropertyItem@NGamePropertyListManager@@ABQAV12@@@QAEXHABQAVCGamePropertyItem@NGamePropertyListManager@@@Z ENDP ; CWHArray<NGamePropertyListManager::CGamePropertyItem *,NGamePropertyListManager::CGamePropertyItem * const &>::SetAtGrow
_TEXT	ENDS
; Function compile flags: /Odtp /ZI
; File g:\网狐\happygamewh\服务端\系统模块\全局定义\array.h
;	COMDAT ?SetSize@?$CWHArray@PAVCGamePropertyItem@NGamePropertyListManager@@ABQAV12@@@QAEXH@Z
_TEXT	SEGMENT
$T1 = -80						; size = 4
_i$2 = -12						; size = 4
_i$3 = -8						; size = 4
_this$ = -4						; size = 4
_nNewSize$ = 8						; size = 4
?SetSize@?$CWHArray@PAVCGamePropertyItem@NGamePropertyListManager@@ABQAV12@@@QAEXH@Z PROC ; CWHArray<NGamePropertyListManager::CGamePropertyItem *,NGamePropertyListManager::CGamePropertyItem * const &>::SetSize, COMDAT
; _this$ = ecx

; 252  : {

  00000	55		 push	 ebp
  00001	8b ec		 mov	 ebp, esp
  00003	83 ec 50	 sub	 esp, 80			; 00000050H
  00006	53		 push	 ebx
  00007	56		 push	 esi
  00008	57		 push	 edi
  00009	89 4d fc	 mov	 DWORD PTR _this$[ebp], ecx

; 253  : 	//效验参数
; 254  : 	ASSERT(nNewSize>=0);

  0000c	83 7d 08 00	 cmp	 DWORD PTR _nNewSize$[ebp], 0
  00010	7d 14		 jge	 SHORT $LN13@SetSize
  00012	68 fe 00 00 00	 push	 254			; 000000feH
  00017	68 00 00 00 00	 push	 OFFSET ??_C@_0DF@LDFGAABH@g?3?2?M?x?$LK?$PM?2happygamewh?2?$LH?$PO?N?q?$LG?K?2?O?$LF?M?$LD@
  0001c	e8 00 00 00 00	 call	 ?AfxAssertFailedLine@@YGHPBDH@Z ; AfxAssertFailedLine
  00021	85 c0		 test	 eax, eax
  00023	74 01		 je	 SHORT $LN13@SetSize
  00025	cc		 int	 3
$LN13@SetSize:

; 255  : 	if (nNewSize<0)	AfxThrowInvalidArgException();

  00026	83 7d 08 00	 cmp	 DWORD PTR _nNewSize$[ebp], 0
  0002a	7d 05		 jge	 SHORT $LN8@SetSize
  0002c	e8 00 00 00 00	 call	 ?AfxThrowInvalidArgException@@YGXXZ ; AfxThrowInvalidArgException
$LN8@SetSize:

; 256  : 	
; 257  : 	//设置大小
; 258  : 	AllocMemory(nNewSize);

  00031	8b 45 08	 mov	 eax, DWORD PTR _nNewSize$[ebp]
  00034	50		 push	 eax
  00035	8b 4d fc	 mov	 ecx, DWORD PTR _this$[ebp]
  00038	e8 00 00 00 00	 call	 ?AllocMemory@?$CWHArray@PAVCGamePropertyItem@NGamePropertyListManager@@ABQAV12@@@QAEXH@Z ; CWHArray<NGamePropertyListManager::CGamePropertyItem *,NGamePropertyListManager::CGamePropertyItem * const &>::AllocMemory

; 259  : 	if (nNewSize>m_nElementCount)

  0003d	8b 45 fc	 mov	 eax, DWORD PTR _this$[ebp]
  00040	8b 4d 08	 mov	 ecx, DWORD PTR _nNewSize$[ebp]
  00043	3b 48 10	 cmp	 ecx, DWORD PTR [eax+16]
  00046	7e 3a		 jle	 SHORT $LN9@SetSize

; 260  : 	{
; 261  : 		for (INT_PTR i=m_nElementCount;i<nNewSize;i++) new ((VOID *)(m_pData+i)) TYPE;

  00048	8b 45 fc	 mov	 eax, DWORD PTR _this$[ebp]
  0004b	8b 48 10	 mov	 ecx, DWORD PTR [eax+16]
  0004e	89 4d f8	 mov	 DWORD PTR _i$3[ebp], ecx
  00051	eb 09		 jmp	 SHORT $LN4@SetSize
$LN2@SetSize:
  00053	8b 45 f8	 mov	 eax, DWORD PTR _i$3[ebp]
  00056	83 c0 01	 add	 eax, 1
  00059	89 45 f8	 mov	 DWORD PTR _i$3[ebp], eax
$LN4@SetSize:
  0005c	8b 45 f8	 mov	 eax, DWORD PTR _i$3[ebp]
  0005f	3b 45 08	 cmp	 eax, DWORD PTR _nNewSize$[ebp]
  00062	7d 1c		 jge	 SHORT $LN3@SetSize
  00064	8b 45 fc	 mov	 eax, DWORD PTR _this$[ebp]
  00067	8b 48 04	 mov	 ecx, DWORD PTR [eax+4]
  0006a	8b 55 f8	 mov	 edx, DWORD PTR _i$3[ebp]
  0006d	8d 04 91	 lea	 eax, DWORD PTR [ecx+edx*4]
  00070	50		 push	 eax
  00071	6a 04		 push	 4
  00073	e8 00 00 00 00	 call	 ??2@YAPAXIPAX@Z		; operator new
  00078	83 c4 08	 add	 esp, 8
  0007b	89 45 b0	 mov	 DWORD PTR $T1[ebp], eax
  0007e	eb d3		 jmp	 SHORT $LN2@SetSize
$LN3@SetSize:

; 262  : 	}
; 263  : 	else if (nNewSize<m_nElementCount)

  00080	eb 4d		 jmp	 SHORT $LN10@SetSize
$LN9@SetSize:
  00082	8b 45 fc	 mov	 eax, DWORD PTR _this$[ebp]
  00085	8b 4d 08	 mov	 ecx, DWORD PTR _nNewSize$[ebp]
  00088	3b 48 10	 cmp	 ecx, DWORD PTR [eax+16]
  0008b	7d 42		 jge	 SHORT $LN10@SetSize

; 264  : 	{
; 265  : 		for (INT_PTR i=nNewSize;i<m_nElementCount;i++) (m_pData+i)->~TYPE();

  0008d	8b 45 08	 mov	 eax, DWORD PTR _nNewSize$[ebp]
  00090	89 45 f4	 mov	 DWORD PTR _i$2[ebp], eax
  00093	eb 09		 jmp	 SHORT $LN7@SetSize
$LN5@SetSize:
  00095	8b 45 f4	 mov	 eax, DWORD PTR _i$2[ebp]
  00098	83 c0 01	 add	 eax, 1
  0009b	89 45 f4	 mov	 DWORD PTR _i$2[ebp], eax
$LN7@SetSize:
  0009e	8b 45 fc	 mov	 eax, DWORD PTR _this$[ebp]
  000a1	8b 4d f4	 mov	 ecx, DWORD PTR _i$2[ebp]
  000a4	3b 48 10	 cmp	 ecx, DWORD PTR [eax+16]
  000a7	7d 02		 jge	 SHORT $LN6@SetSize
  000a9	eb ea		 jmp	 SHORT $LN5@SetSize
$LN6@SetSize:

; 266  : 		memset(m_pData+nNewSize,0,(m_nElementCount-nNewSize)*sizeof(TYPE));

  000ab	8b 45 fc	 mov	 eax, DWORD PTR _this$[ebp]
  000ae	8b 48 10	 mov	 ecx, DWORD PTR [eax+16]
  000b1	2b 4d 08	 sub	 ecx, DWORD PTR _nNewSize$[ebp]
  000b4	c1 e1 02	 shl	 ecx, 2
  000b7	51		 push	 ecx
  000b8	6a 00		 push	 0
  000ba	8b 55 fc	 mov	 edx, DWORD PTR _this$[ebp]
  000bd	8b 42 04	 mov	 eax, DWORD PTR [edx+4]
  000c0	8b 4d 08	 mov	 ecx, DWORD PTR _nNewSize$[ebp]
  000c3	8d 14 88	 lea	 edx, DWORD PTR [eax+ecx*4]
  000c6	52		 push	 edx
  000c7	e8 00 00 00 00	 call	 _memset
  000cc	83 c4 0c	 add	 esp, 12			; 0000000cH
$LN10@SetSize:

; 267  : 	}
; 268  : 	m_nElementCount=nNewSize;

  000cf	8b 45 fc	 mov	 eax, DWORD PTR _this$[ebp]
  000d2	8b 4d 08	 mov	 ecx, DWORD PTR _nNewSize$[ebp]
  000d5	89 48 10	 mov	 DWORD PTR [eax+16], ecx
$LN12@SetSize:

; 269  : 
; 270  : 	return;
; 271  : }

  000d8	5f		 pop	 edi
  000d9	5e		 pop	 esi
  000da	5b		 pop	 ebx
  000db	8b e5		 mov	 esp, ebp
  000dd	5d		 pop	 ebp
  000de	c2 04 00	 ret	 4
?SetSize@?$CWHArray@PAVCGamePropertyItem@NGamePropertyListManager@@ABQAV12@@@QAEXH@Z ENDP ; CWHArray<NGamePropertyListManager::CGamePropertyItem *,NGamePropertyListManager::CGamePropertyItem * const &>::SetSize
_TEXT	ENDS
; Function compile flags: /Odtp /ZI
; File g:\网狐\happygamewh\服务端\系统模块\全局定义\array.h
;	COMDAT ?ElementAt@?$CWHArray@PAVCGamePropertyItem@NGamePropertyListManager@@ABQAV12@@@QAEAAPAVCGamePropertyItem@NGamePropertyListManager@@H@Z
_TEXT	SEGMENT
_this$ = -4						; size = 4
_nIndex$ = 8						; size = 4
?ElementAt@?$CWHArray@PAVCGamePropertyItem@NGamePropertyListManager@@ABQAV12@@@QAEAAPAVCGamePropertyItem@NGamePropertyListManager@@H@Z PROC ; CWHArray<NGamePropertyListManager::CGamePropertyItem *,NGamePropertyListManager::CGamePropertyItem * const &>::ElementAt, COMDAT
; _this$ = ecx

; 232  : {

  00000	55		 push	 ebp
  00001	8b ec		 mov	 ebp, esp
  00003	83 ec 44	 sub	 esp, 68			; 00000044H
  00006	53		 push	 ebx
  00007	56		 push	 esi
  00008	57		 push	 edi
  00009	89 4d fc	 mov	 DWORD PTR _this$[ebp], ecx

; 233  : 	ASSERT((nIndex>=0)&&(nIndex<m_nElementCount));

  0000c	83 7d 08 00	 cmp	 DWORD PTR _nIndex$[ebp], 0
  00010	7c 0b		 jl	 SHORT $LN4@ElementAt
  00012	8b 45 fc	 mov	 eax, DWORD PTR _this$[ebp]
  00015	8b 4d 08	 mov	 ecx, DWORD PTR _nIndex$[ebp]
  00018	3b 48 10	 cmp	 ecx, DWORD PTR [eax+16]
  0001b	7c 14		 jl	 SHORT $LN5@ElementAt
$LN4@ElementAt:
  0001d	68 e9 00 00 00	 push	 233			; 000000e9H
  00022	68 00 00 00 00	 push	 OFFSET ??_C@_0DF@LDFGAABH@g?3?2?M?x?$LK?$PM?2happygamewh?2?$LH?$PO?N?q?$LG?K?2?O?$LF?M?$LD@
  00027	e8 00 00 00 00	 call	 ?AfxAssertFailedLine@@YGHPBDH@Z ; AfxAssertFailedLine
  0002c	85 c0		 test	 eax, eax
  0002e	74 01		 je	 SHORT $LN5@ElementAt
  00030	cc		 int	 3
$LN5@ElementAt:

; 234  : 	if ((nIndex<0)&&(nIndex>=m_nElementCount)) AfxThrowInvalidArgException();

  00031	83 7d 08 00	 cmp	 DWORD PTR _nIndex$[ebp], 0
  00035	7d 10		 jge	 SHORT $LN2@ElementAt
  00037	8b 45 fc	 mov	 eax, DWORD PTR _this$[ebp]
  0003a	8b 4d 08	 mov	 ecx, DWORD PTR _nIndex$[ebp]
  0003d	3b 48 10	 cmp	 ecx, DWORD PTR [eax+16]
  00040	7c 05		 jl	 SHORT $LN2@ElementAt
  00042	e8 00 00 00 00	 call	 ?AfxThrowInvalidArgException@@YGXXZ ; AfxThrowInvalidArgException
$LN2@ElementAt:

; 235  : 	
; 236  : 	return m_pData[nIndex];

  00047	8b 45 fc	 mov	 eax, DWORD PTR _this$[ebp]
  0004a	8b 48 04	 mov	 ecx, DWORD PTR [eax+4]
  0004d	8b 55 08	 mov	 edx, DWORD PTR _nIndex$[ebp]
  00050	8d 04 91	 lea	 eax, DWORD PTR [ecx+edx*4]
$LN3@ElementAt:

; 237  : }

  00053	5f		 pop	 edi
  00054	5e		 pop	 esi
  00055	5b		 pop	 ebx
  00056	8b e5		 mov	 esp, ebp
  00058	5d		 pop	 ebp
  00059	c2 04 00	 ret	 4
?ElementAt@?$CWHArray@PAVCGamePropertyItem@NGamePropertyListManager@@ABQAV12@@@QAEAAPAVCGamePropertyItem@NGamePropertyListManager@@H@Z ENDP ; CWHArray<NGamePropertyListManager::CGamePropertyItem *,NGamePropertyListManager::CGamePropertyItem * const &>::ElementAt
_TEXT	ENDS
; Function compile flags: /Odtp /ZI
; File g:\网狐\happygamewh\服务端\系统模块\全局定义\array.h
;	COMDAT ?Add@?$CWHArray@PAVCGamePropertyItem@NGamePropertyListManager@@ABQAV12@@@QAEHABQAVCGamePropertyItem@NGamePropertyListManager@@@Z
_TEXT	SEGMENT
_nIndex$ = -8						; size = 4
_this$ = -4						; size = 4
_newElement$ = 8					; size = 4
?Add@?$CWHArray@PAVCGamePropertyItem@NGamePropertyListManager@@ABQAV12@@@QAEHABQAVCGamePropertyItem@NGamePropertyListManager@@@Z PROC ; CWHArray<NGamePropertyListManager::CGamePropertyItem *,NGamePropertyListManager::CGamePropertyItem * const &>::Add, COMDAT
; _this$ = ecx

; 105  : {

  00000	55		 push	 ebp
  00001	8b ec		 mov	 ebp, esp
  00003	83 ec 48	 sub	 esp, 72			; 00000048H
  00006	53		 push	 ebx
  00007	56		 push	 esi
  00008	57		 push	 edi
  00009	89 4d fc	 mov	 DWORD PTR _this$[ebp], ecx

; 106  : 	INT_PTR nIndex=m_nElementCount;

  0000c	8b 45 fc	 mov	 eax, DWORD PTR _this$[ebp]
  0000f	8b 48 10	 mov	 ecx, DWORD PTR [eax+16]
  00012	89 4d f8	 mov	 DWORD PTR _nIndex$[ebp], ecx

; 107  : 	SetAtGrow(nIndex,newElement);

  00015	8b 45 08	 mov	 eax, DWORD PTR _newElement$[ebp]
  00018	50		 push	 eax
  00019	8b 4d f8	 mov	 ecx, DWORD PTR _nIndex$[ebp]
  0001c	51		 push	 ecx
  0001d	8b 4d fc	 mov	 ecx, DWORD PTR _this$[ebp]
  00020	e8 00 00 00 00	 call	 ?SetAtGrow@?$CWHArray@PAVCGamePropertyItem@NGamePropertyListManager@@ABQAV12@@@QAEXHABQAVCGamePropertyItem@NGamePropertyListManager@@@Z ; CWHArray<NGamePropertyListManager::CGamePropertyItem *,NGamePropertyListManager::CGamePropertyItem * const &>::SetAtGrow

; 108  : 	return nIndex;

  00025	8b 45 f8	 mov	 eax, DWORD PTR _nIndex$[ebp]

; 109  : }

  00028	5f		 pop	 edi
  00029	5e		 pop	 esi
  0002a	5b		 pop	 ebx
  0002b	8b e5		 mov	 esp, ebp
  0002d	5d		 pop	 ebp
  0002e	c2 04 00	 ret	 4
?Add@?$CWHArray@PAVCGamePropertyItem@NGamePropertyListManager@@ABQAV12@@@QAEHABQAVCGamePropertyItem@NGamePropertyListManager@@@Z ENDP ; CWHArray<NGamePropertyListManager::CGamePropertyItem *,NGamePropertyListManager::CGamePropertyItem * const &>::Add
_TEXT	ENDS
; Function compile flags: /Odtp /ZI
; File g:\网狐\happygamewh\服务端\系统模块\全局定义\array.h
;	COMDAT ?GetCount@?$CWHArray@PAVCGamePropertyItem@NGamePropertyListManager@@ABQAV12@@@QBEHXZ
_TEXT	SEGMENT
_this$ = -4						; size = 4
?GetCount@?$CWHArray@PAVCGamePropertyItem@NGamePropertyListManager@@ABQAV12@@@QBEHXZ PROC ; CWHArray<NGamePropertyListManager::CGamePropertyItem *,NGamePropertyListManager::CGamePropertyItem * const &>::GetCount, COMDAT
; _this$ = ecx

; 98   : {

  00000	55		 push	 ebp
  00001	8b ec		 mov	 ebp, esp
  00003	83 ec 44	 sub	 esp, 68			; 00000044H
  00006	53		 push	 ebx
  00007	56		 push	 esi
  00008	57		 push	 edi
  00009	89 4d fc	 mov	 DWORD PTR _this$[ebp], ecx

; 99   : 	return m_nElementCount;

  0000c	8b 45 fc	 mov	 eax, DWORD PTR _this$[ebp]
  0000f	8b 40 10	 mov	 eax, DWORD PTR [eax+16]

; 100  : }

  00012	5f		 pop	 edi
  00013	5e		 pop	 esi
  00014	5b		 pop	 ebx
  00015	8b e5		 mov	 esp, ebp
  00017	5d		 pop	 ebp
  00018	c3		 ret	 0
?GetCount@?$CWHArray@PAVCGamePropertyItem@NGamePropertyListManager@@ABQAV12@@@QBEHXZ ENDP ; CWHArray<NGamePropertyListManager::CGamePropertyItem *,NGamePropertyListManager::CGamePropertyItem * const &>::GetCount
_TEXT	ENDS
; Function compile flags: /Odtp /ZI
; File g:\网狐\happygamewh\服务端\系统模块\全局定义\array.h
;	COMDAT ??1?$CWHArray@PAVCGamePropertyItem@NGamePropertyListManager@@ABQAV12@@@UAE@XZ
_TEXT	SEGMENT
$T1 = -76						; size = 4
_i$2 = -8						; size = 4
_this$ = -4						; size = 4
??1?$CWHArray@PAVCGamePropertyItem@NGamePropertyListManager@@ABQAV12@@@UAE@XZ PROC ; CWHArray<NGamePropertyListManager::CGamePropertyItem *,NGamePropertyListManager::CGamePropertyItem * const &>::~CWHArray<NGamePropertyListManager::CGamePropertyItem *,NGamePropertyListManager::CGamePropertyItem * const &>, COMDAT
; _this$ = ecx

; 143  : {

  00000	55		 push	 ebp
  00001	8b ec		 mov	 ebp, esp
  00003	83 ec 4c	 sub	 esp, 76			; 0000004cH
  00006	53		 push	 ebx
  00007	56		 push	 esi
  00008	57		 push	 edi
  00009	89 4d fc	 mov	 DWORD PTR _this$[ebp], ecx
  0000c	8b 45 fc	 mov	 eax, DWORD PTR _this$[ebp]
  0000f	c7 00 00 00 00
	00		 mov	 DWORD PTR [eax], OFFSET ??_7?$CWHArray@PAVCGamePropertyItem@NGamePropertyListManager@@ABQAV12@@@6B@

; 144  : 	if (m_pData!=NULL)

  00015	8b 45 fc	 mov	 eax, DWORD PTR _this$[ebp]
  00018	83 78 04 00	 cmp	 DWORD PTR [eax+4], 0
  0001c	74 3e		 je	 SHORT $LN6@CWHArray

; 145  : 	{
; 146  : 		for (INT_PTR i=0;i<m_nElementCount;i++)	(m_pData+i)->~TYPE();

  0001e	c7 45 f8 00 00
	00 00		 mov	 DWORD PTR _i$2[ebp], 0
  00025	eb 09		 jmp	 SHORT $LN4@CWHArray
$LN2@CWHArray:
  00027	8b 45 f8	 mov	 eax, DWORD PTR _i$2[ebp]
  0002a	83 c0 01	 add	 eax, 1
  0002d	89 45 f8	 mov	 DWORD PTR _i$2[ebp], eax
$LN4@CWHArray:
  00030	8b 45 fc	 mov	 eax, DWORD PTR _this$[ebp]
  00033	8b 4d f8	 mov	 ecx, DWORD PTR _i$2[ebp]
  00036	3b 48 10	 cmp	 ecx, DWORD PTR [eax+16]
  00039	7d 02		 jge	 SHORT $LN3@CWHArray
  0003b	eb ea		 jmp	 SHORT $LN2@CWHArray
$LN3@CWHArray:

; 147  : 		delete [] (BYTE *)m_pData;

  0003d	8b 45 fc	 mov	 eax, DWORD PTR _this$[ebp]
  00040	8b 48 04	 mov	 ecx, DWORD PTR [eax+4]
  00043	89 4d b4	 mov	 DWORD PTR $T1[ebp], ecx
  00046	8b 55 b4	 mov	 edx, DWORD PTR $T1[ebp]
  00049	52		 push	 edx
  0004a	e8 00 00 00 00	 call	 ??_V@YAXPAX@Z		; operator delete[]
  0004f	83 c4 04	 add	 esp, 4

; 148  : 		m_pData=NULL;

  00052	8b 45 fc	 mov	 eax, DWORD PTR _this$[ebp]
  00055	c7 40 04 00 00
	00 00		 mov	 DWORD PTR [eax+4], 0
$LN6@CWHArray:

; 149  : 	}
; 150  : 
; 151  : 	return;
; 152  : }

  0005c	5f		 pop	 edi
  0005d	5e		 pop	 esi
  0005e	5b		 pop	 ebx
  0005f	8b e5		 mov	 esp, ebp
  00061	5d		 pop	 ebp
  00062	c3		 ret	 0
??1?$CWHArray@PAVCGamePropertyItem@NGamePropertyListManager@@ABQAV12@@@UAE@XZ ENDP ; CWHArray<NGamePropertyListManager::CGamePropertyItem *,NGamePropertyListManager::CGamePropertyItem * const &>::~CWHArray<NGamePropertyListManager::CGamePropertyItem *,NGamePropertyListManager::CGamePropertyItem * const &>
_TEXT	ENDS
; Function compile flags: /Odtp /ZI
; File g:\网狐\happygamewh\服务端\系统模块\全局定义\array.h
;	COMDAT ??0?$CWHArray@PAVCGamePropertyItem@NGamePropertyListManager@@ABQAV12@@@QAE@XZ
_TEXT	SEGMENT
_this$ = -4						; size = 4
??0?$CWHArray@PAVCGamePropertyItem@NGamePropertyListManager@@ABQAV12@@@QAE@XZ PROC ; CWHArray<NGamePropertyListManager::CGamePropertyItem *,NGamePropertyListManager::CGamePropertyItem * const &>::CWHArray<NGamePropertyListManager::CGamePropertyItem *,NGamePropertyListManager::CGamePropertyItem * const &>, COMDAT
; _this$ = ecx

; 131  : {

  00000	55		 push	 ebp
  00001	8b ec		 mov	 ebp, esp
  00003	83 ec 44	 sub	 esp, 68			; 00000044H
  00006	53		 push	 ebx
  00007	56		 push	 esi
  00008	57		 push	 edi
  00009	89 4d fc	 mov	 DWORD PTR _this$[ebp], ecx
  0000c	8b 45 fc	 mov	 eax, DWORD PTR _this$[ebp]
  0000f	c7 00 00 00 00
	00		 mov	 DWORD PTR [eax], OFFSET ??_7?$CWHArray@PAVCGamePropertyItem@NGamePropertyListManager@@ABQAV12@@@6B@

; 132  : 	m_pData=NULL;

  00015	8b 45 fc	 mov	 eax, DWORD PTR _this$[ebp]
  00018	c7 40 04 00 00
	00 00		 mov	 DWORD PTR [eax+4], 0

; 133  : 	m_nMaxCount=0;

  0001f	8b 45 fc	 mov	 eax, DWORD PTR _this$[ebp]
  00022	c7 40 08 00 00
	00 00		 mov	 DWORD PTR [eax+8], 0

; 134  : 	m_nGrowCount=0;

  00029	8b 45 fc	 mov	 eax, DWORD PTR _this$[ebp]
  0002c	c7 40 0c 00 00
	00 00		 mov	 DWORD PTR [eax+12], 0

; 135  : 	m_nElementCount=0;

  00033	8b 45 fc	 mov	 eax, DWORD PTR _this$[ebp]
  00036	c7 40 10 00 00
	00 00		 mov	 DWORD PTR [eax+16], 0

; 136  : 
; 137  : 	return;
; 138  : }

  0003d	8b 45 fc	 mov	 eax, DWORD PTR _this$[ebp]
  00040	5f		 pop	 edi
  00041	5e		 pop	 esi
  00042	5b		 pop	 ebx
  00043	8b e5		 mov	 esp, ebp
  00045	5d		 pop	 ebp
  00046	c3		 ret	 0
??0?$CWHArray@PAVCGamePropertyItem@NGamePropertyListManager@@ABQAV12@@@QAE@XZ ENDP ; CWHArray<NGamePropertyListManager::CGamePropertyItem *,NGamePropertyListManager::CGamePropertyItem * const &>::CWHArray<NGamePropertyListManager::CGamePropertyItem *,NGamePropertyListManager::CGamePropertyItem * const &>
_TEXT	ENDS
; Function compile flags: /Odtp /ZI
;	COMDAT ??_G?$CWHArray@PAVCGamePropertyRelatItem@NGamePropertyListManager@@ABQAV12@@@UAEPAXI@Z
_TEXT	SEGMENT
_this$ = -4						; size = 4
___flags$ = 8						; size = 4
??_G?$CWHArray@PAVCGamePropertyRelatItem@NGamePropertyListManager@@ABQAV12@@@UAEPAXI@Z PROC ; CWHArray<NGamePropertyListManager::CGamePropertyRelatItem *,NGamePropertyListManager::CGamePropertyRelatItem * const &>::`scalar deleting destructor', COMDAT
; _this$ = ecx
  00000	55		 push	 ebp
  00001	8b ec		 mov	 ebp, esp
  00003	83 ec 44	 sub	 esp, 68			; 00000044H
  00006	53		 push	 ebx
  00007	56		 push	 esi
  00008	57		 push	 edi
  00009	89 4d fc	 mov	 DWORD PTR _this$[ebp], ecx
  0000c	8b 4d fc	 mov	 ecx, DWORD PTR _this$[ebp]
  0000f	e8 00 00 00 00	 call	 ??1?$CWHArray@PAVCGamePropertyRelatItem@NGamePropertyListManager@@ABQAV12@@@UAE@XZ ; CWHArray<NGamePropertyListManager::CGamePropertyRelatItem *,NGamePropertyListManager::CGamePropertyRelatItem * const &>::~CWHArray<NGamePropertyListManager::CGamePropertyRelatItem *,NGamePropertyListManager::CGamePropertyRelatItem * const &>
  00014	8b 45 08	 mov	 eax, DWORD PTR ___flags$[ebp]
  00017	83 e0 01	 and	 eax, 1
  0001a	74 0e		 je	 SHORT $LN2@scalar
  0001c	6a 14		 push	 20			; 00000014H
  0001e	8b 45 fc	 mov	 eax, DWORD PTR _this$[ebp]
  00021	50		 push	 eax
  00022	e8 00 00 00 00	 call	 ??3@YAXPAXI@Z		; operator delete
  00027	83 c4 08	 add	 esp, 8
$LN2@scalar:
  0002a	8b 45 fc	 mov	 eax, DWORD PTR _this$[ebp]
  0002d	5f		 pop	 edi
  0002e	5e		 pop	 esi
  0002f	5b		 pop	 ebx
  00030	8b e5		 mov	 esp, ebp
  00032	5d		 pop	 ebp
  00033	c2 04 00	 ret	 4
??_G?$CWHArray@PAVCGamePropertyRelatItem@NGamePropertyListManager@@ABQAV12@@@UAEPAXI@Z ENDP ; CWHArray<NGamePropertyListManager::CGamePropertyRelatItem *,NGamePropertyListManager::CGamePropertyRelatItem * const &>::`scalar deleting destructor'
_TEXT	ENDS
; Function compile flags: /Odtp /ZI
; File g:\网狐\happygamewh\服务端\系统模块\全局定义\array.h
;	COMDAT ?AllocMemory@?$CWHArray@PAVCGamePropertyRelatItem@NGamePropertyListManager@@ABQAV12@@@QAEXH@Z
_TEXT	SEGMENT
tv78 = -92						; size = 4
tv79 = -88						; size = 4
$T1 = -84						; size = 4
$T2 = -80						; size = 4
_pNewData$3 = -12					; size = 4
_nGrowCount$4 = -8					; size = 4
_this$ = -4						; size = 4
_nNewCount$ = 8						; size = 4
?AllocMemory@?$CWHArray@PAVCGamePropertyRelatItem@NGamePropertyListManager@@ABQAV12@@@QAEXH@Z PROC ; CWHArray<NGamePropertyListManager::CGamePropertyRelatItem *,NGamePropertyListManager::CGamePropertyRelatItem * const &>::AllocMemory, COMDAT
; _this$ = ecx

; 413  : {

  00000	55		 push	 ebp
  00001	8b ec		 mov	 ebp, esp
  00003	83 ec 5c	 sub	 esp, 92			; 0000005cH
  00006	53		 push	 ebx
  00007	56		 push	 esi
  00008	57		 push	 edi
  00009	89 4d fc	 mov	 DWORD PTR _this$[ebp], ecx

; 414  : 	//效验参数
; 415  : 	ASSERT(nNewCount>=0);

  0000c	83 7d 08 00	 cmp	 DWORD PTR _nNewCount$[ebp], 0
  00010	7d 14		 jge	 SHORT $LN5@AllocMemor
  00012	68 9f 01 00 00	 push	 415			; 0000019fH
  00017	68 00 00 00 00	 push	 OFFSET ??_C@_0DF@LDFGAABH@g?3?2?M?x?$LK?$PM?2happygamewh?2?$LH?$PO?N?q?$LG?K?2?O?$LF?M?$LD@
  0001c	e8 00 00 00 00	 call	 ?AfxAssertFailedLine@@YGHPBDH@Z ; AfxAssertFailedLine
  00021	85 c0		 test	 eax, eax
  00023	74 01		 je	 SHORT $LN5@AllocMemor
  00025	cc		 int	 3
$LN5@AllocMemor:

; 416  : 
; 417  : 	if (nNewCount>m_nMaxCount)

  00026	8b 45 fc	 mov	 eax, DWORD PTR _this$[ebp]
  00029	8b 4d 08	 mov	 ecx, DWORD PTR _nNewCount$[ebp]
  0002c	3b 48 08	 cmp	 ecx, DWORD PTR [eax+8]
  0002f	0f 8e dd 00 00
	00		 jle	 $LN1@AllocMemor

; 418  : 	{
; 419  : 		//计算数目
; 420  : 		INT_PTR nGrowCount=m_nGrowCount;

  00035	8b 45 fc	 mov	 eax, DWORD PTR _this$[ebp]
  00038	8b 48 0c	 mov	 ecx, DWORD PTR [eax+12]
  0003b	89 4d f8	 mov	 DWORD PTR _nGrowCount$4[ebp], ecx

; 421  : 		if (nGrowCount==0)

  0003e	83 7d f8 00	 cmp	 DWORD PTR _nGrowCount$4[ebp], 0
  00042	75 45		 jne	 SHORT $LN3@AllocMemor

; 422  : 		{
; 423  : 			nGrowCount=m_nElementCount/8;

  00044	8b 45 fc	 mov	 eax, DWORD PTR _this$[ebp]
  00047	8b 40 10	 mov	 eax, DWORD PTR [eax+16]
  0004a	99		 cdq
  0004b	83 e2 07	 and	 edx, 7
  0004e	03 c2		 add	 eax, edx
  00050	c1 f8 03	 sar	 eax, 3
  00053	89 45 f8	 mov	 DWORD PTR _nGrowCount$4[ebp], eax

; 424  : 			nGrowCount=(nGrowCount<4)?4:((nGrowCount>1024)?1024:nGrowCount);

  00056	83 7d f8 04	 cmp	 DWORD PTR _nGrowCount$4[ebp], 4
  0005a	7d 09		 jge	 SHORT $LN8@AllocMemor
  0005c	c7 45 a8 04 00
	00 00		 mov	 DWORD PTR tv79[ebp], 4
  00063	eb 1e		 jmp	 SHORT $LN9@AllocMemor
$LN8@AllocMemor:
  00065	81 7d f8 00 04
	00 00		 cmp	 DWORD PTR _nGrowCount$4[ebp], 1024 ; 00000400H
  0006c	7e 09		 jle	 SHORT $LN6@AllocMemor
  0006e	c7 45 a4 00 04
	00 00		 mov	 DWORD PTR tv78[ebp], 1024 ; 00000400H
  00075	eb 06		 jmp	 SHORT $LN7@AllocMemor
$LN6@AllocMemor:
  00077	8b 45 f8	 mov	 eax, DWORD PTR _nGrowCount$4[ebp]
  0007a	89 45 a4	 mov	 DWORD PTR tv78[ebp], eax
$LN7@AllocMemor:
  0007d	8b 4d a4	 mov	 ecx, DWORD PTR tv78[ebp]
  00080	89 4d a8	 mov	 DWORD PTR tv79[ebp], ecx
$LN9@AllocMemor:
  00083	8b 55 a8	 mov	 edx, DWORD PTR tv79[ebp]
  00086	89 55 f8	 mov	 DWORD PTR _nGrowCount$4[ebp], edx
$LN3@AllocMemor:

; 425  : 		}
; 426  : 		nNewCount+=nGrowCount;

  00089	8b 45 08	 mov	 eax, DWORD PTR _nNewCount$[ebp]
  0008c	03 45 f8	 add	 eax, DWORD PTR _nGrowCount$4[ebp]
  0008f	89 45 08	 mov	 DWORD PTR _nNewCount$[ebp], eax

; 427  : 
; 428  : 		//申请内存
; 429  : 		TYPE * pNewData=(TYPE *) new BYTE[nNewCount*sizeof(TYPE)];

  00092	8b 45 08	 mov	 eax, DWORD PTR _nNewCount$[ebp]
  00095	c1 e0 02	 shl	 eax, 2
  00098	50		 push	 eax
  00099	e8 00 00 00 00	 call	 ??_U@YAPAXI@Z		; operator new[]
  0009e	83 c4 04	 add	 esp, 4
  000a1	89 45 b0	 mov	 DWORD PTR $T2[ebp], eax
  000a4	8b 4d b0	 mov	 ecx, DWORD PTR $T2[ebp]
  000a7	89 4d f4	 mov	 DWORD PTR _pNewData$3[ebp], ecx

; 430  : 		memcpy(pNewData,m_pData,m_nElementCount*sizeof(TYPE));

  000aa	8b 45 fc	 mov	 eax, DWORD PTR _this$[ebp]
  000ad	8b 48 10	 mov	 ecx, DWORD PTR [eax+16]
  000b0	c1 e1 02	 shl	 ecx, 2
  000b3	51		 push	 ecx
  000b4	8b 55 fc	 mov	 edx, DWORD PTR _this$[ebp]
  000b7	8b 42 04	 mov	 eax, DWORD PTR [edx+4]
  000ba	50		 push	 eax
  000bb	8b 4d f4	 mov	 ecx, DWORD PTR _pNewData$3[ebp]
  000be	51		 push	 ecx
  000bf	e8 00 00 00 00	 call	 _memcpy
  000c4	83 c4 0c	 add	 esp, 12			; 0000000cH

; 431  : 		memset(pNewData+m_nElementCount,0,(nNewCount-m_nElementCount)*sizeof(TYPE));

  000c7	8b 45 fc	 mov	 eax, DWORD PTR _this$[ebp]
  000ca	8b 4d 08	 mov	 ecx, DWORD PTR _nNewCount$[ebp]
  000cd	2b 48 10	 sub	 ecx, DWORD PTR [eax+16]
  000d0	c1 e1 02	 shl	 ecx, 2
  000d3	51		 push	 ecx
  000d4	6a 00		 push	 0
  000d6	8b 55 fc	 mov	 edx, DWORD PTR _this$[ebp]
  000d9	8b 42 10	 mov	 eax, DWORD PTR [edx+16]
  000dc	8b 4d f4	 mov	 ecx, DWORD PTR _pNewData$3[ebp]
  000df	8d 14 81	 lea	 edx, DWORD PTR [ecx+eax*4]
  000e2	52		 push	 edx
  000e3	e8 00 00 00 00	 call	 _memset
  000e8	83 c4 0c	 add	 esp, 12			; 0000000cH

; 432  : 		delete [] (BYTE *)m_pData;

  000eb	8b 45 fc	 mov	 eax, DWORD PTR _this$[ebp]
  000ee	8b 48 04	 mov	 ecx, DWORD PTR [eax+4]
  000f1	89 4d ac	 mov	 DWORD PTR $T1[ebp], ecx
  000f4	8b 55 ac	 mov	 edx, DWORD PTR $T1[ebp]
  000f7	52		 push	 edx
  000f8	e8 00 00 00 00	 call	 ??_V@YAXPAX@Z		; operator delete[]
  000fd	83 c4 04	 add	 esp, 4

; 433  : 
; 434  : 		//设置变量
; 435  : 		m_pData=pNewData;

  00100	8b 45 fc	 mov	 eax, DWORD PTR _this$[ebp]
  00103	8b 4d f4	 mov	 ecx, DWORD PTR _pNewData$3[ebp]
  00106	89 48 04	 mov	 DWORD PTR [eax+4], ecx

; 436  : 		m_nMaxCount=nNewCount;

  00109	8b 45 fc	 mov	 eax, DWORD PTR _this$[ebp]
  0010c	8b 4d 08	 mov	 ecx, DWORD PTR _nNewCount$[ebp]
  0010f	89 48 08	 mov	 DWORD PTR [eax+8], ecx
$LN1@AllocMemor:

; 437  : 	}
; 438  : 
; 439  : 	return;
; 440  : }

  00112	5f		 pop	 edi
  00113	5e		 pop	 esi
  00114	5b		 pop	 ebx
  00115	8b e5		 mov	 esp, ebp
  00117	5d		 pop	 ebp
  00118	c2 04 00	 ret	 4
?AllocMemory@?$CWHArray@PAVCGamePropertyRelatItem@NGamePropertyListManager@@ABQAV12@@@QAEXH@Z ENDP ; CWHArray<NGamePropertyListManager::CGamePropertyRelatItem *,NGamePropertyListManager::CGamePropertyRelatItem * const &>::AllocMemory
_TEXT	ENDS
; Function compile flags: /Odtp /ZI
; File g:\网狐\happygamewh\服务端\系统模块\全局定义\array.h
;	COMDAT ??A?$CWHArray@PAVCGamePropertyRelatItem@NGamePropertyListManager@@ABQAV12@@@QAEAAPAVCGamePropertyRelatItem@NGamePropertyListManager@@H@Z
_TEXT	SEGMENT
_this$ = -4						; size = 4
_nIndex$ = 8						; size = 4
??A?$CWHArray@PAVCGamePropertyRelatItem@NGamePropertyListManager@@ABQAV12@@@QAEAAPAVCGamePropertyRelatItem@NGamePropertyListManager@@H@Z PROC ; CWHArray<NGamePropertyListManager::CGamePropertyRelatItem *,NGamePropertyListManager::CGamePropertyRelatItem * const &>::operator[], COMDAT
; _this$ = ecx

; 114  : { 

  00000	55		 push	 ebp
  00001	8b ec		 mov	 ebp, esp
  00003	83 ec 44	 sub	 esp, 68			; 00000044H
  00006	53		 push	 ebx
  00007	56		 push	 esi
  00008	57		 push	 edi
  00009	89 4d fc	 mov	 DWORD PTR _this$[ebp], ecx

; 115  : 	return ElementAt(nIndex);

  0000c	8b 45 08	 mov	 eax, DWORD PTR _nIndex$[ebp]
  0000f	50		 push	 eax
  00010	8b 4d fc	 mov	 ecx, DWORD PTR _this$[ebp]
  00013	e8 00 00 00 00	 call	 ?ElementAt@?$CWHArray@PAVCGamePropertyRelatItem@NGamePropertyListManager@@ABQAV12@@@QAEAAPAVCGamePropertyRelatItem@NGamePropertyListManager@@H@Z ; CWHArray<NGamePropertyListManager::CGamePropertyRelatItem *,NGamePropertyListManager::CGamePropertyRelatItem * const &>::ElementAt

; 116  : }

  00018	5f		 pop	 edi
  00019	5e		 pop	 esi
  0001a	5b		 pop	 ebx
  0001b	8b e5		 mov	 esp, ebp
  0001d	5d		 pop	 ebp
  0001e	c2 04 00	 ret	 4
??A?$CWHArray@PAVCGamePropertyRelatItem@NGamePropertyListManager@@ABQAV12@@@QAEAAPAVCGamePropertyRelatItem@NGamePropertyListManager@@H@Z ENDP ; CWHArray<NGamePropertyListManager::CGamePropertyRelatItem *,NGamePropertyListManager::CGamePropertyRelatItem * const &>::operator[]
_TEXT	ENDS
; Function compile flags: /Odtp /ZI
; File g:\网狐\happygamewh\服务端\系统模块\全局定义\array.h
;	COMDAT ?RemoveAll@?$CWHArray@PAVCGamePropertyRelatItem@NGamePropertyListManager@@ABQAV12@@@QAEXXZ
_TEXT	SEGMENT
_i$1 = -8						; size = 4
_this$ = -4						; size = 4
?RemoveAll@?$CWHArray@PAVCGamePropertyRelatItem@NGamePropertyListManager@@ABQAV12@@@QAEXXZ PROC ; CWHArray<NGamePropertyListManager::CGamePropertyRelatItem *,NGamePropertyListManager::CGamePropertyRelatItem * const &>::RemoveAll, COMDAT
; _this$ = ecx

; 379  : {

  00000	55		 push	 ebp
  00001	8b ec		 mov	 ebp, esp
  00003	83 ec 48	 sub	 esp, 72			; 00000048H
  00006	53		 push	 ebx
  00007	56		 push	 esi
  00008	57		 push	 edi
  00009	89 4d fc	 mov	 DWORD PTR _this$[ebp], ecx

; 380  : 	if (m_nElementCount>0)

  0000c	8b 45 fc	 mov	 eax, DWORD PTR _this$[ebp]
  0000f	83 78 10 00	 cmp	 DWORD PTR [eax+16], 0
  00013	7e 44		 jle	 SHORT $LN1@RemoveAll

; 381  : 	{
; 382  : 		for (INT_PTR i=0;i<m_nElementCount;i++) (m_pData+i)->~TYPE();

  00015	c7 45 f8 00 00
	00 00		 mov	 DWORD PTR _i$1[ebp], 0
  0001c	eb 09		 jmp	 SHORT $LN4@RemoveAll
$LN2@RemoveAll:
  0001e	8b 45 f8	 mov	 eax, DWORD PTR _i$1[ebp]
  00021	83 c0 01	 add	 eax, 1
  00024	89 45 f8	 mov	 DWORD PTR _i$1[ebp], eax
$LN4@RemoveAll:
  00027	8b 45 fc	 mov	 eax, DWORD PTR _this$[ebp]
  0002a	8b 4d f8	 mov	 ecx, DWORD PTR _i$1[ebp]
  0002d	3b 48 10	 cmp	 ecx, DWORD PTR [eax+16]
  00030	7d 02		 jge	 SHORT $LN3@RemoveAll
  00032	eb ea		 jmp	 SHORT $LN2@RemoveAll
$LN3@RemoveAll:

; 383  : 		memset(m_pData,0,m_nElementCount*sizeof(TYPE));

  00034	8b 45 fc	 mov	 eax, DWORD PTR _this$[ebp]
  00037	8b 48 10	 mov	 ecx, DWORD PTR [eax+16]
  0003a	c1 e1 02	 shl	 ecx, 2
  0003d	51		 push	 ecx
  0003e	6a 00		 push	 0
  00040	8b 55 fc	 mov	 edx, DWORD PTR _this$[ebp]
  00043	8b 42 04	 mov	 eax, DWORD PTR [edx+4]
  00046	50		 push	 eax
  00047	e8 00 00 00 00	 call	 _memset
  0004c	83 c4 0c	 add	 esp, 12			; 0000000cH

; 384  : 		m_nElementCount=0;

  0004f	8b 45 fc	 mov	 eax, DWORD PTR _this$[ebp]
  00052	c7 40 10 00 00
	00 00		 mov	 DWORD PTR [eax+16], 0
$LN1@RemoveAll:

; 385  : 	}
; 386  : 
; 387  : 	return;
; 388  : }

  00059	5f		 pop	 edi
  0005a	5e		 pop	 esi
  0005b	5b		 pop	 ebx
  0005c	8b e5		 mov	 esp, ebp
  0005e	5d		 pop	 ebp
  0005f	c3		 ret	 0
?RemoveAll@?$CWHArray@PAVCGamePropertyRelatItem@NGamePropertyListManager@@ABQAV12@@@QAEXXZ ENDP ; CWHArray<NGamePropertyListManager::CGamePropertyRelatItem *,NGamePropertyListManager::CGamePropertyRelatItem * const &>::RemoveAll
_TEXT	ENDS
; Function compile flags: /Odtp /ZI
; File g:\网狐\happygamewh\服务端\系统模块\全局定义\array.h
;	COMDAT ?SetAtGrow@?$CWHArray@PAVCGamePropertyRelatItem@NGamePropertyListManager@@ABQAV12@@@QAEXHABQAVCGamePropertyRelatItem@NGamePropertyListManager@@@Z
_TEXT	SEGMENT
_this$ = -4						; size = 4
_nIndex$ = 8						; size = 4
_newElement$ = 12					; size = 4
?SetAtGrow@?$CWHArray@PAVCGamePropertyRelatItem@NGamePropertyListManager@@ABQAV12@@@QAEXHABQAVCGamePropertyRelatItem@NGamePropertyListManager@@@Z PROC ; CWHArray<NGamePropertyListManager::CGamePropertyRelatItem *,NGamePropertyListManager::CGamePropertyRelatItem * const &>::SetAtGrow, COMDAT
; _this$ = ecx

; 287  : {

  00000	55		 push	 ebp
  00001	8b ec		 mov	 ebp, esp
  00003	83 ec 44	 sub	 esp, 68			; 00000044H
  00006	53		 push	 ebx
  00007	56		 push	 esi
  00008	57		 push	 edi
  00009	89 4d fc	 mov	 DWORD PTR _this$[ebp], ecx

; 288  : 	//效验参数
; 289  : 	ASSERT(nIndex>=0);

  0000c	83 7d 08 00	 cmp	 DWORD PTR _nIndex$[ebp], 0
  00010	7d 14		 jge	 SHORT $LN5@SetAtGrow
  00012	68 21 01 00 00	 push	 289			; 00000121H
  00017	68 00 00 00 00	 push	 OFFSET ??_C@_0DF@LDFGAABH@g?3?2?M?x?$LK?$PM?2happygamewh?2?$LH?$PO?N?q?$LG?K?2?O?$LF?M?$LD@
  0001c	e8 00 00 00 00	 call	 ?AfxAssertFailedLine@@YGHPBDH@Z ; AfxAssertFailedLine
  00021	85 c0		 test	 eax, eax
  00023	74 01		 je	 SHORT $LN5@SetAtGrow
  00025	cc		 int	 3
$LN5@SetAtGrow:

; 290  : 	if (nIndex<0) AfxThrowInvalidArgException();

  00026	83 7d 08 00	 cmp	 DWORD PTR _nIndex$[ebp], 0
  0002a	7d 05		 jge	 SHORT $LN2@SetAtGrow
  0002c	e8 00 00 00 00	 call	 ?AfxThrowInvalidArgException@@YGXXZ ; AfxThrowInvalidArgException
$LN2@SetAtGrow:

; 291  : 
; 292  : 	//设置元素
; 293  : 	if (nIndex>=m_nElementCount) SetSize(m_nElementCount+1);

  00031	8b 45 fc	 mov	 eax, DWORD PTR _this$[ebp]
  00034	8b 4d 08	 mov	 ecx, DWORD PTR _nIndex$[ebp]
  00037	3b 48 10	 cmp	 ecx, DWORD PTR [eax+16]
  0003a	7c 12		 jl	 SHORT $LN3@SetAtGrow
  0003c	8b 45 fc	 mov	 eax, DWORD PTR _this$[ebp]
  0003f	8b 48 10	 mov	 ecx, DWORD PTR [eax+16]
  00042	83 c1 01	 add	 ecx, 1
  00045	51		 push	 ecx
  00046	8b 4d fc	 mov	 ecx, DWORD PTR _this$[ebp]
  00049	e8 00 00 00 00	 call	 ?SetSize@?$CWHArray@PAVCGamePropertyRelatItem@NGamePropertyListManager@@ABQAV12@@@QAEXH@Z ; CWHArray<NGamePropertyListManager::CGamePropertyRelatItem *,NGamePropertyListManager::CGamePropertyRelatItem * const &>::SetSize
$LN3@SetAtGrow:

; 294  : 	m_pData[nIndex]=newElement;

  0004e	8b 45 fc	 mov	 eax, DWORD PTR _this$[ebp]
  00051	8b 48 04	 mov	 ecx, DWORD PTR [eax+4]
  00054	8b 55 08	 mov	 edx, DWORD PTR _nIndex$[ebp]
  00057	8b 45 0c	 mov	 eax, DWORD PTR _newElement$[ebp]
  0005a	8b 00		 mov	 eax, DWORD PTR [eax]
  0005c	89 04 91	 mov	 DWORD PTR [ecx+edx*4], eax
$LN4@SetAtGrow:

; 295  : 
; 296  : 	return;
; 297  : }

  0005f	5f		 pop	 edi
  00060	5e		 pop	 esi
  00061	5b		 pop	 ebx
  00062	8b e5		 mov	 esp, ebp
  00064	5d		 pop	 ebp
  00065	c2 08 00	 ret	 8
?SetAtGrow@?$CWHArray@PAVCGamePropertyRelatItem@NGamePropertyListManager@@ABQAV12@@@QAEXHABQAVCGamePropertyRelatItem@NGamePropertyListManager@@@Z ENDP ; CWHArray<NGamePropertyListManager::CGamePropertyRelatItem *,NGamePropertyListManager::CGamePropertyRelatItem * const &>::SetAtGrow
_TEXT	ENDS
; Function compile flags: /Odtp /ZI
; File g:\网狐\happygamewh\服务端\系统模块\全局定义\array.h
;	COMDAT ?SetSize@?$CWHArray@PAVCGamePropertyRelatItem@NGamePropertyListManager@@ABQAV12@@@QAEXH@Z
_TEXT	SEGMENT
$T1 = -80						; size = 4
_i$2 = -12						; size = 4
_i$3 = -8						; size = 4
_this$ = -4						; size = 4
_nNewSize$ = 8						; size = 4
?SetSize@?$CWHArray@PAVCGamePropertyRelatItem@NGamePropertyListManager@@ABQAV12@@@QAEXH@Z PROC ; CWHArray<NGamePropertyListManager::CGamePropertyRelatItem *,NGamePropertyListManager::CGamePropertyRelatItem * const &>::SetSize, COMDAT
; _this$ = ecx

; 252  : {

  00000	55		 push	 ebp
  00001	8b ec		 mov	 ebp, esp
  00003	83 ec 50	 sub	 esp, 80			; 00000050H
  00006	53		 push	 ebx
  00007	56		 push	 esi
  00008	57		 push	 edi
  00009	89 4d fc	 mov	 DWORD PTR _this$[ebp], ecx

; 253  : 	//效验参数
; 254  : 	ASSERT(nNewSize>=0);

  0000c	83 7d 08 00	 cmp	 DWORD PTR _nNewSize$[ebp], 0
  00010	7d 14		 jge	 SHORT $LN13@SetSize
  00012	68 fe 00 00 00	 push	 254			; 000000feH
  00017	68 00 00 00 00	 push	 OFFSET ??_C@_0DF@LDFGAABH@g?3?2?M?x?$LK?$PM?2happygamewh?2?$LH?$PO?N?q?$LG?K?2?O?$LF?M?$LD@
  0001c	e8 00 00 00 00	 call	 ?AfxAssertFailedLine@@YGHPBDH@Z ; AfxAssertFailedLine
  00021	85 c0		 test	 eax, eax
  00023	74 01		 je	 SHORT $LN13@SetSize
  00025	cc		 int	 3
$LN13@SetSize:

; 255  : 	if (nNewSize<0)	AfxThrowInvalidArgException();

  00026	83 7d 08 00	 cmp	 DWORD PTR _nNewSize$[ebp], 0
  0002a	7d 05		 jge	 SHORT $LN8@SetSize
  0002c	e8 00 00 00 00	 call	 ?AfxThrowInvalidArgException@@YGXXZ ; AfxThrowInvalidArgException
$LN8@SetSize:

; 256  : 	
; 257  : 	//设置大小
; 258  : 	AllocMemory(nNewSize);

  00031	8b 45 08	 mov	 eax, DWORD PTR _nNewSize$[ebp]
  00034	50		 push	 eax
  00035	8b 4d fc	 mov	 ecx, DWORD PTR _this$[ebp]
  00038	e8 00 00 00 00	 call	 ?AllocMemory@?$CWHArray@PAVCGamePropertyRelatItem@NGamePropertyListManager@@ABQAV12@@@QAEXH@Z ; CWHArray<NGamePropertyListManager::CGamePropertyRelatItem *,NGamePropertyListManager::CGamePropertyRelatItem * const &>::AllocMemory

; 259  : 	if (nNewSize>m_nElementCount)

  0003d	8b 45 fc	 mov	 eax, DWORD PTR _this$[ebp]
  00040	8b 4d 08	 mov	 ecx, DWORD PTR _nNewSize$[ebp]
  00043	3b 48 10	 cmp	 ecx, DWORD PTR [eax+16]
  00046	7e 3a		 jle	 SHORT $LN9@SetSize

; 260  : 	{
; 261  : 		for (INT_PTR i=m_nElementCount;i<nNewSize;i++) new ((VOID *)(m_pData+i)) TYPE;

  00048	8b 45 fc	 mov	 eax, DWORD PTR _this$[ebp]
  0004b	8b 48 10	 mov	 ecx, DWORD PTR [eax+16]
  0004e	89 4d f8	 mov	 DWORD PTR _i$3[ebp], ecx
  00051	eb 09		 jmp	 SHORT $LN4@SetSize
$LN2@SetSize:
  00053	8b 45 f8	 mov	 eax, DWORD PTR _i$3[ebp]
  00056	83 c0 01	 add	 eax, 1
  00059	89 45 f8	 mov	 DWORD PTR _i$3[ebp], eax
$LN4@SetSize:
  0005c	8b 45 f8	 mov	 eax, DWORD PTR _i$3[ebp]
  0005f	3b 45 08	 cmp	 eax, DWORD PTR _nNewSize$[ebp]
  00062	7d 1c		 jge	 SHORT $LN3@SetSize
  00064	8b 45 fc	 mov	 eax, DWORD PTR _this$[ebp]
  00067	8b 48 04	 mov	 ecx, DWORD PTR [eax+4]
  0006a	8b 55 f8	 mov	 edx, DWORD PTR _i$3[ebp]
  0006d	8d 04 91	 lea	 eax, DWORD PTR [ecx+edx*4]
  00070	50		 push	 eax
  00071	6a 04		 push	 4
  00073	e8 00 00 00 00	 call	 ??2@YAPAXIPAX@Z		; operator new
  00078	83 c4 08	 add	 esp, 8
  0007b	89 45 b0	 mov	 DWORD PTR $T1[ebp], eax
  0007e	eb d3		 jmp	 SHORT $LN2@SetSize
$LN3@SetSize:

; 262  : 	}
; 263  : 	else if (nNewSize<m_nElementCount)

  00080	eb 4d		 jmp	 SHORT $LN10@SetSize
$LN9@SetSize:
  00082	8b 45 fc	 mov	 eax, DWORD PTR _this$[ebp]
  00085	8b 4d 08	 mov	 ecx, DWORD PTR _nNewSize$[ebp]
  00088	3b 48 10	 cmp	 ecx, DWORD PTR [eax+16]
  0008b	7d 42		 jge	 SHORT $LN10@SetSize

; 264  : 	{
; 265  : 		for (INT_PTR i=nNewSize;i<m_nElementCount;i++) (m_pData+i)->~TYPE();

  0008d	8b 45 08	 mov	 eax, DWORD PTR _nNewSize$[ebp]
  00090	89 45 f4	 mov	 DWORD PTR _i$2[ebp], eax
  00093	eb 09		 jmp	 SHORT $LN7@SetSize
$LN5@SetSize:
  00095	8b 45 f4	 mov	 eax, DWORD PTR _i$2[ebp]
  00098	83 c0 01	 add	 eax, 1
  0009b	89 45 f4	 mov	 DWORD PTR _i$2[ebp], eax
$LN7@SetSize:
  0009e	8b 45 fc	 mov	 eax, DWORD PTR _this$[ebp]
  000a1	8b 4d f4	 mov	 ecx, DWORD PTR _i$2[ebp]
  000a4	3b 48 10	 cmp	 ecx, DWORD PTR [eax+16]
  000a7	7d 02		 jge	 SHORT $LN6@SetSize
  000a9	eb ea		 jmp	 SHORT $LN5@SetSize
$LN6@SetSize:

; 266  : 		memset(m_pData+nNewSize,0,(m_nElementCount-nNewSize)*sizeof(TYPE));

  000ab	8b 45 fc	 mov	 eax, DWORD PTR _this$[ebp]
  000ae	8b 48 10	 mov	 ecx, DWORD PTR [eax+16]
  000b1	2b 4d 08	 sub	 ecx, DWORD PTR _nNewSize$[ebp]
  000b4	c1 e1 02	 shl	 ecx, 2
  000b7	51		 push	 ecx
  000b8	6a 00		 push	 0
  000ba	8b 55 fc	 mov	 edx, DWORD PTR _this$[ebp]
  000bd	8b 42 04	 mov	 eax, DWORD PTR [edx+4]
  000c0	8b 4d 08	 mov	 ecx, DWORD PTR _nNewSize$[ebp]
  000c3	8d 14 88	 lea	 edx, DWORD PTR [eax+ecx*4]
  000c6	52		 push	 edx
  000c7	e8 00 00 00 00	 call	 _memset
  000cc	83 c4 0c	 add	 esp, 12			; 0000000cH
$LN10@SetSize:

; 267  : 	}
; 268  : 	m_nElementCount=nNewSize;

  000cf	8b 45 fc	 mov	 eax, DWORD PTR _this$[ebp]
  000d2	8b 4d 08	 mov	 ecx, DWORD PTR _nNewSize$[ebp]
  000d5	89 48 10	 mov	 DWORD PTR [eax+16], ecx
$LN12@SetSize:

; 269  : 
; 270  : 	return;
; 271  : }

  000d8	5f		 pop	 edi
  000d9	5e		 pop	 esi
  000da	5b		 pop	 ebx
  000db	8b e5		 mov	 esp, ebp
  000dd	5d		 pop	 ebp
  000de	c2 04 00	 ret	 4
?SetSize@?$CWHArray@PAVCGamePropertyRelatItem@NGamePropertyListManager@@ABQAV12@@@QAEXH@Z ENDP ; CWHArray<NGamePropertyListManager::CGamePropertyRelatItem *,NGamePropertyListManager::CGamePropertyRelatItem * const &>::SetSize
_TEXT	ENDS
; Function compile flags: /Odtp /ZI
; File g:\网狐\happygamewh\服务端\系统模块\全局定义\array.h
;	COMDAT ?ElementAt@?$CWHArray@PAVCGamePropertyRelatItem@NGamePropertyListManager@@ABQAV12@@@QAEAAPAVCGamePropertyRelatItem@NGamePropertyListManager@@H@Z
_TEXT	SEGMENT
_this$ = -4						; size = 4
_nIndex$ = 8						; size = 4
?ElementAt@?$CWHArray@PAVCGamePropertyRelatItem@NGamePropertyListManager@@ABQAV12@@@QAEAAPAVCGamePropertyRelatItem@NGamePropertyListManager@@H@Z PROC ; CWHArray<NGamePropertyListManager::CGamePropertyRelatItem *,NGamePropertyListManager::CGamePropertyRelatItem * const &>::ElementAt, COMDAT
; _this$ = ecx

; 232  : {

  00000	55		 push	 ebp
  00001	8b ec		 mov	 ebp, esp
  00003	83 ec 44	 sub	 esp, 68			; 00000044H
  00006	53		 push	 ebx
  00007	56		 push	 esi
  00008	57		 push	 edi
  00009	89 4d fc	 mov	 DWORD PTR _this$[ebp], ecx

; 233  : 	ASSERT((nIndex>=0)&&(nIndex<m_nElementCount));

  0000c	83 7d 08 00	 cmp	 DWORD PTR _nIndex$[ebp], 0
  00010	7c 0b		 jl	 SHORT $LN4@ElementAt
  00012	8b 45 fc	 mov	 eax, DWORD PTR _this$[ebp]
  00015	8b 4d 08	 mov	 ecx, DWORD PTR _nIndex$[ebp]
  00018	3b 48 10	 cmp	 ecx, DWORD PTR [eax+16]
  0001b	7c 14		 jl	 SHORT $LN5@ElementAt
$LN4@ElementAt:
  0001d	68 e9 00 00 00	 push	 233			; 000000e9H
  00022	68 00 00 00 00	 push	 OFFSET ??_C@_0DF@LDFGAABH@g?3?2?M?x?$LK?$PM?2happygamewh?2?$LH?$PO?N?q?$LG?K?2?O?$LF?M?$LD@
  00027	e8 00 00 00 00	 call	 ?AfxAssertFailedLine@@YGHPBDH@Z ; AfxAssertFailedLine
  0002c	85 c0		 test	 eax, eax
  0002e	74 01		 je	 SHORT $LN5@ElementAt
  00030	cc		 int	 3
$LN5@ElementAt:

; 234  : 	if ((nIndex<0)&&(nIndex>=m_nElementCount)) AfxThrowInvalidArgException();

  00031	83 7d 08 00	 cmp	 DWORD PTR _nIndex$[ebp], 0
  00035	7d 10		 jge	 SHORT $LN2@ElementAt
  00037	8b 45 fc	 mov	 eax, DWORD PTR _this$[ebp]
  0003a	8b 4d 08	 mov	 ecx, DWORD PTR _nIndex$[ebp]
  0003d	3b 48 10	 cmp	 ecx, DWORD PTR [eax+16]
  00040	7c 05		 jl	 SHORT $LN2@ElementAt
  00042	e8 00 00 00 00	 call	 ?AfxThrowInvalidArgException@@YGXXZ ; AfxThrowInvalidArgException
$LN2@ElementAt:

; 235  : 	
; 236  : 	return m_pData[nIndex];

  00047	8b 45 fc	 mov	 eax, DWORD PTR _this$[ebp]
  0004a	8b 48 04	 mov	 ecx, DWORD PTR [eax+4]
  0004d	8b 55 08	 mov	 edx, DWORD PTR _nIndex$[ebp]
  00050	8d 04 91	 lea	 eax, DWORD PTR [ecx+edx*4]
$LN3@ElementAt:

; 237  : }

  00053	5f		 pop	 edi
  00054	5e		 pop	 esi
  00055	5b		 pop	 ebx
  00056	8b e5		 mov	 esp, ebp
  00058	5d		 pop	 ebp
  00059	c2 04 00	 ret	 4
?ElementAt@?$CWHArray@PAVCGamePropertyRelatItem@NGamePropertyListManager@@ABQAV12@@@QAEAAPAVCGamePropertyRelatItem@NGamePropertyListManager@@H@Z ENDP ; CWHArray<NGamePropertyListManager::CGamePropertyRelatItem *,NGamePropertyListManager::CGamePropertyRelatItem * const &>::ElementAt
_TEXT	ENDS
; Function compile flags: /Odtp /ZI
; File g:\网狐\happygamewh\服务端\系统模块\全局定义\array.h
;	COMDAT ?Add@?$CWHArray@PAVCGamePropertyRelatItem@NGamePropertyListManager@@ABQAV12@@@QAEHABQAVCGamePropertyRelatItem@NGamePropertyListManager@@@Z
_TEXT	SEGMENT
_nIndex$ = -8						; size = 4
_this$ = -4						; size = 4
_newElement$ = 8					; size = 4
?Add@?$CWHArray@PAVCGamePropertyRelatItem@NGamePropertyListManager@@ABQAV12@@@QAEHABQAVCGamePropertyRelatItem@NGamePropertyListManager@@@Z PROC ; CWHArray<NGamePropertyListManager::CGamePropertyRelatItem *,NGamePropertyListManager::CGamePropertyRelatItem * const &>::Add, COMDAT
; _this$ = ecx

; 105  : {

  00000	55		 push	 ebp
  00001	8b ec		 mov	 ebp, esp
  00003	83 ec 48	 sub	 esp, 72			; 00000048H
  00006	53		 push	 ebx
  00007	56		 push	 esi
  00008	57		 push	 edi
  00009	89 4d fc	 mov	 DWORD PTR _this$[ebp], ecx

; 106  : 	INT_PTR nIndex=m_nElementCount;

  0000c	8b 45 fc	 mov	 eax, DWORD PTR _this$[ebp]
  0000f	8b 48 10	 mov	 ecx, DWORD PTR [eax+16]
  00012	89 4d f8	 mov	 DWORD PTR _nIndex$[ebp], ecx

; 107  : 	SetAtGrow(nIndex,newElement);

  00015	8b 45 08	 mov	 eax, DWORD PTR _newElement$[ebp]
  00018	50		 push	 eax
  00019	8b 4d f8	 mov	 ecx, DWORD PTR _nIndex$[ebp]
  0001c	51		 push	 ecx
  0001d	8b 4d fc	 mov	 ecx, DWORD PTR _this$[ebp]
  00020	e8 00 00 00 00	 call	 ?SetAtGrow@?$CWHArray@PAVCGamePropertyRelatItem@NGamePropertyListManager@@ABQAV12@@@QAEXHABQAVCGamePropertyRelatItem@NGamePropertyListManager@@@Z ; CWHArray<NGamePropertyListManager::CGamePropertyRelatItem *,NGamePropertyListManager::CGamePropertyRelatItem * const &>::SetAtGrow

; 108  : 	return nIndex;

  00025	8b 45 f8	 mov	 eax, DWORD PTR _nIndex$[ebp]

; 109  : }

  00028	5f		 pop	 edi
  00029	5e		 pop	 esi
  0002a	5b		 pop	 ebx
  0002b	8b e5		 mov	 esp, ebp
  0002d	5d		 pop	 ebp
  0002e	c2 04 00	 ret	 4
?Add@?$CWHArray@PAVCGamePropertyRelatItem@NGamePropertyListManager@@ABQAV12@@@QAEHABQAVCGamePropertyRelatItem@NGamePropertyListManager@@@Z ENDP ; CWHArray<NGamePropertyListManager::CGamePropertyRelatItem *,NGamePropertyListManager::CGamePropertyRelatItem * const &>::Add
_TEXT	ENDS
; Function compile flags: /Odtp /ZI
; File g:\网狐\happygamewh\服务端\系统模块\全局定义\array.h
;	COMDAT ?GetCount@?$CWHArray@PAVCGamePropertyRelatItem@NGamePropertyListManager@@ABQAV12@@@QBEHXZ
_TEXT	SEGMENT
_this$ = -4						; size = 4
?GetCount@?$CWHArray@PAVCGamePropertyRelatItem@NGamePropertyListManager@@ABQAV12@@@QBEHXZ PROC ; CWHArray<NGamePropertyListManager::CGamePropertyRelatItem *,NGamePropertyListManager::CGamePropertyRelatItem * const &>::GetCount, COMDAT
; _this$ = ecx

; 98   : {

  00000	55		 push	 ebp
  00001	8b ec		 mov	 ebp, esp
  00003	83 ec 44	 sub	 esp, 68			; 00000044H
  00006	53		 push	 ebx
  00007	56		 push	 esi
  00008	57		 push	 edi
  00009	89 4d fc	 mov	 DWORD PTR _this$[ebp], ecx

; 99   : 	return m_nElementCount;

  0000c	8b 45 fc	 mov	 eax, DWORD PTR _this$[ebp]
  0000f	8b 40 10	 mov	 eax, DWORD PTR [eax+16]

; 100  : }

  00012	5f		 pop	 edi
  00013	5e		 pop	 esi
  00014	5b		 pop	 ebx
  00015	8b e5		 mov	 esp, ebp
  00017	5d		 pop	 ebp
  00018	c3		 ret	 0
?GetCount@?$CWHArray@PAVCGamePropertyRelatItem@NGamePropertyListManager@@ABQAV12@@@QBEHXZ ENDP ; CWHArray<NGamePropertyListManager::CGamePropertyRelatItem *,NGamePropertyListManager::CGamePropertyRelatItem * const &>::GetCount
_TEXT	ENDS
; Function compile flags: /Odtp /ZI
; File g:\网狐\happygamewh\服务端\系统模块\全局定义\array.h
;	COMDAT ??1?$CWHArray@PAVCGamePropertyRelatItem@NGamePropertyListManager@@ABQAV12@@@UAE@XZ
_TEXT	SEGMENT
$T1 = -76						; size = 4
_i$2 = -8						; size = 4
_this$ = -4						; size = 4
??1?$CWHArray@PAVCGamePropertyRelatItem@NGamePropertyListManager@@ABQAV12@@@UAE@XZ PROC ; CWHArray<NGamePropertyListManager::CGamePropertyRelatItem *,NGamePropertyListManager::CGamePropertyRelatItem * const &>::~CWHArray<NGamePropertyListManager::CGamePropertyRelatItem *,NGamePropertyListManager::CGamePropertyRelatItem * const &>, COMDAT
; _this$ = ecx

; 143  : {

  00000	55		 push	 ebp
  00001	8b ec		 mov	 ebp, esp
  00003	83 ec 4c	 sub	 esp, 76			; 0000004cH
  00006	53		 push	 ebx
  00007	56		 push	 esi
  00008	57		 push	 edi
  00009	89 4d fc	 mov	 DWORD PTR _this$[ebp], ecx
  0000c	8b 45 fc	 mov	 eax, DWORD PTR _this$[ebp]
  0000f	c7 00 00 00 00
	00		 mov	 DWORD PTR [eax], OFFSET ??_7?$CWHArray@PAVCGamePropertyRelatItem@NGamePropertyListManager@@ABQAV12@@@6B@

; 144  : 	if (m_pData!=NULL)

  00015	8b 45 fc	 mov	 eax, DWORD PTR _this$[ebp]
  00018	83 78 04 00	 cmp	 DWORD PTR [eax+4], 0
  0001c	74 3e		 je	 SHORT $LN6@CWHArray

; 145  : 	{
; 146  : 		for (INT_PTR i=0;i<m_nElementCount;i++)	(m_pData+i)->~TYPE();

  0001e	c7 45 f8 00 00
	00 00		 mov	 DWORD PTR _i$2[ebp], 0
  00025	eb 09		 jmp	 SHORT $LN4@CWHArray
$LN2@CWHArray:
  00027	8b 45 f8	 mov	 eax, DWORD PTR _i$2[ebp]
  0002a	83 c0 01	 add	 eax, 1
  0002d	89 45 f8	 mov	 DWORD PTR _i$2[ebp], eax
$LN4@CWHArray:
  00030	8b 45 fc	 mov	 eax, DWORD PTR _this$[ebp]
  00033	8b 4d f8	 mov	 ecx, DWORD PTR _i$2[ebp]
  00036	3b 48 10	 cmp	 ecx, DWORD PTR [eax+16]
  00039	7d 02		 jge	 SHORT $LN3@CWHArray
  0003b	eb ea		 jmp	 SHORT $LN2@CWHArray
$LN3@CWHArray:

; 147  : 		delete [] (BYTE *)m_pData;

  0003d	8b 45 fc	 mov	 eax, DWORD PTR _this$[ebp]
  00040	8b 48 04	 mov	 ecx, DWORD PTR [eax+4]
  00043	89 4d b4	 mov	 DWORD PTR $T1[ebp], ecx
  00046	8b 55 b4	 mov	 edx, DWORD PTR $T1[ebp]
  00049	52		 push	 edx
  0004a	e8 00 00 00 00	 call	 ??_V@YAXPAX@Z		; operator delete[]
  0004f	83 c4 04	 add	 esp, 4

; 148  : 		m_pData=NULL;

  00052	8b 45 fc	 mov	 eax, DWORD PTR _this$[ebp]
  00055	c7 40 04 00 00
	00 00		 mov	 DWORD PTR [eax+4], 0
$LN6@CWHArray:

; 149  : 	}
; 150  : 
; 151  : 	return;
; 152  : }

  0005c	5f		 pop	 edi
  0005d	5e		 pop	 esi
  0005e	5b		 pop	 ebx
  0005f	8b e5		 mov	 esp, ebp
  00061	5d		 pop	 ebp
  00062	c3		 ret	 0
??1?$CWHArray@PAVCGamePropertyRelatItem@NGamePropertyListManager@@ABQAV12@@@UAE@XZ ENDP ; CWHArray<NGamePropertyListManager::CGamePropertyRelatItem *,NGamePropertyListManager::CGamePropertyRelatItem * const &>::~CWHArray<NGamePropertyListManager::CGamePropertyRelatItem *,NGamePropertyListManager::CGamePropertyRelatItem * const &>
_TEXT	ENDS
; Function compile flags: /Odtp /ZI
; File g:\网狐\happygamewh\服务端\系统模块\全局定义\array.h
;	COMDAT ??0?$CWHArray@PAVCGamePropertyRelatItem@NGamePropertyListManager@@ABQAV12@@@QAE@XZ
_TEXT	SEGMENT
_this$ = -4						; size = 4
??0?$CWHArray@PAVCGamePropertyRelatItem@NGamePropertyListManager@@ABQAV12@@@QAE@XZ PROC ; CWHArray<NGamePropertyListManager::CGamePropertyRelatItem *,NGamePropertyListManager::CGamePropertyRelatItem * const &>::CWHArray<NGamePropertyListManager::CGamePropertyRelatItem *,NGamePropertyListManager::CGamePropertyRelatItem * const &>, COMDAT
; _this$ = ecx

; 131  : {

  00000	55		 push	 ebp
  00001	8b ec		 mov	 ebp, esp
  00003	83 ec 44	 sub	 esp, 68			; 00000044H
  00006	53		 push	 ebx
  00007	56		 push	 esi
  00008	57		 push	 edi
  00009	89 4d fc	 mov	 DWORD PTR _this$[ebp], ecx
  0000c	8b 45 fc	 mov	 eax, DWORD PTR _this$[ebp]
  0000f	c7 00 00 00 00
	00		 mov	 DWORD PTR [eax], OFFSET ??_7?$CWHArray@PAVCGamePropertyRelatItem@NGamePropertyListManager@@ABQAV12@@@6B@

; 132  : 	m_pData=NULL;

  00015	8b 45 fc	 mov	 eax, DWORD PTR _this$[ebp]
  00018	c7 40 04 00 00
	00 00		 mov	 DWORD PTR [eax+4], 0

; 133  : 	m_nMaxCount=0;

  0001f	8b 45 fc	 mov	 eax, DWORD PTR _this$[ebp]
  00022	c7 40 08 00 00
	00 00		 mov	 DWORD PTR [eax+8], 0

; 134  : 	m_nGrowCount=0;

  00029	8b 45 fc	 mov	 eax, DWORD PTR _this$[ebp]
  0002c	c7 40 0c 00 00
	00 00		 mov	 DWORD PTR [eax+12], 0

; 135  : 	m_nElementCount=0;

  00033	8b 45 fc	 mov	 eax, DWORD PTR _this$[ebp]
  00036	c7 40 10 00 00
	00 00		 mov	 DWORD PTR [eax+16], 0

; 136  : 
; 137  : 	return;
; 138  : }

  0003d	8b 45 fc	 mov	 eax, DWORD PTR _this$[ebp]
  00040	5f		 pop	 edi
  00041	5e		 pop	 esi
  00042	5b		 pop	 ebx
  00043	8b e5		 mov	 esp, ebp
  00045	5d		 pop	 ebp
  00046	c3		 ret	 0
??0?$CWHArray@PAVCGamePropertyRelatItem@NGamePropertyListManager@@ABQAV12@@@QAE@XZ ENDP ; CWHArray<NGamePropertyListManager::CGamePropertyRelatItem *,NGamePropertyListManager::CGamePropertyRelatItem * const &>::CWHArray<NGamePropertyListManager::CGamePropertyRelatItem *,NGamePropertyListManager::CGamePropertyRelatItem * const &>
_TEXT	ENDS
; Function compile flags: /Odtp /ZI
;	COMDAT ??_G?$CWHArray@PAVCGamePropertyTypeItem@NGamePropertyListManager@@ABQAV12@@@UAEPAXI@Z
_TEXT	SEGMENT
_this$ = -4						; size = 4
___flags$ = 8						; size = 4
??_G?$CWHArray@PAVCGamePropertyTypeItem@NGamePropertyListManager@@ABQAV12@@@UAEPAXI@Z PROC ; CWHArray<NGamePropertyListManager::CGamePropertyTypeItem *,NGamePropertyListManager::CGamePropertyTypeItem * const &>::`scalar deleting destructor', COMDAT
; _this$ = ecx
  00000	55		 push	 ebp
  00001	8b ec		 mov	 ebp, esp
  00003	83 ec 44	 sub	 esp, 68			; 00000044H
  00006	53		 push	 ebx
  00007	56		 push	 esi
  00008	57		 push	 edi
  00009	89 4d fc	 mov	 DWORD PTR _this$[ebp], ecx
  0000c	8b 4d fc	 mov	 ecx, DWORD PTR _this$[ebp]
  0000f	e8 00 00 00 00	 call	 ??1?$CWHArray@PAVCGamePropertyTypeItem@NGamePropertyListManager@@ABQAV12@@@UAE@XZ ; CWHArray<NGamePropertyListManager::CGamePropertyTypeItem *,NGamePropertyListManager::CGamePropertyTypeItem * const &>::~CWHArray<NGamePropertyListManager::CGamePropertyTypeItem *,NGamePropertyListManager::CGamePropertyTypeItem * const &>
  00014	8b 45 08	 mov	 eax, DWORD PTR ___flags$[ebp]
  00017	83 e0 01	 and	 eax, 1
  0001a	74 0e		 je	 SHORT $LN2@scalar
  0001c	6a 14		 push	 20			; 00000014H
  0001e	8b 45 fc	 mov	 eax, DWORD PTR _this$[ebp]
  00021	50		 push	 eax
  00022	e8 00 00 00 00	 call	 ??3@YAXPAXI@Z		; operator delete
  00027	83 c4 08	 add	 esp, 8
$LN2@scalar:
  0002a	8b 45 fc	 mov	 eax, DWORD PTR _this$[ebp]
  0002d	5f		 pop	 edi
  0002e	5e		 pop	 esi
  0002f	5b		 pop	 ebx
  00030	8b e5		 mov	 esp, ebp
  00032	5d		 pop	 ebp
  00033	c2 04 00	 ret	 4
??_G?$CWHArray@PAVCGamePropertyTypeItem@NGamePropertyListManager@@ABQAV12@@@UAEPAXI@Z ENDP ; CWHArray<NGamePropertyListManager::CGamePropertyTypeItem *,NGamePropertyListManager::CGamePropertyTypeItem * const &>::`scalar deleting destructor'
_TEXT	ENDS
; Function compile flags: /Odtp /ZI
; File g:\网狐\happygamewh\服务端\系统模块\全局定义\array.h
;	COMDAT ?AllocMemory@?$CWHArray@PAVCGamePropertyTypeItem@NGamePropertyListManager@@ABQAV12@@@QAEXH@Z
_TEXT	SEGMENT
tv78 = -92						; size = 4
tv79 = -88						; size = 4
$T1 = -84						; size = 4
$T2 = -80						; size = 4
_pNewData$3 = -12					; size = 4
_nGrowCount$4 = -8					; size = 4
_this$ = -4						; size = 4
_nNewCount$ = 8						; size = 4
?AllocMemory@?$CWHArray@PAVCGamePropertyTypeItem@NGamePropertyListManager@@ABQAV12@@@QAEXH@Z PROC ; CWHArray<NGamePropertyListManager::CGamePropertyTypeItem *,NGamePropertyListManager::CGamePropertyTypeItem * const &>::AllocMemory, COMDAT
; _this$ = ecx

; 413  : {

  00000	55		 push	 ebp
  00001	8b ec		 mov	 ebp, esp
  00003	83 ec 5c	 sub	 esp, 92			; 0000005cH
  00006	53		 push	 ebx
  00007	56		 push	 esi
  00008	57		 push	 edi
  00009	89 4d fc	 mov	 DWORD PTR _this$[ebp], ecx

; 414  : 	//效验参数
; 415  : 	ASSERT(nNewCount>=0);

  0000c	83 7d 08 00	 cmp	 DWORD PTR _nNewCount$[ebp], 0
  00010	7d 14		 jge	 SHORT $LN5@AllocMemor
  00012	68 9f 01 00 00	 push	 415			; 0000019fH
  00017	68 00 00 00 00	 push	 OFFSET ??_C@_0DF@LDFGAABH@g?3?2?M?x?$LK?$PM?2happygamewh?2?$LH?$PO?N?q?$LG?K?2?O?$LF?M?$LD@
  0001c	e8 00 00 00 00	 call	 ?AfxAssertFailedLine@@YGHPBDH@Z ; AfxAssertFailedLine
  00021	85 c0		 test	 eax, eax
  00023	74 01		 je	 SHORT $LN5@AllocMemor
  00025	cc		 int	 3
$LN5@AllocMemor:

; 416  : 
; 417  : 	if (nNewCount>m_nMaxCount)

  00026	8b 45 fc	 mov	 eax, DWORD PTR _this$[ebp]
  00029	8b 4d 08	 mov	 ecx, DWORD PTR _nNewCount$[ebp]
  0002c	3b 48 08	 cmp	 ecx, DWORD PTR [eax+8]
  0002f	0f 8e dd 00 00
	00		 jle	 $LN1@AllocMemor

; 418  : 	{
; 419  : 		//计算数目
; 420  : 		INT_PTR nGrowCount=m_nGrowCount;

  00035	8b 45 fc	 mov	 eax, DWORD PTR _this$[ebp]
  00038	8b 48 0c	 mov	 ecx, DWORD PTR [eax+12]
  0003b	89 4d f8	 mov	 DWORD PTR _nGrowCount$4[ebp], ecx

; 421  : 		if (nGrowCount==0)

  0003e	83 7d f8 00	 cmp	 DWORD PTR _nGrowCount$4[ebp], 0
  00042	75 45		 jne	 SHORT $LN3@AllocMemor

; 422  : 		{
; 423  : 			nGrowCount=m_nElementCount/8;

  00044	8b 45 fc	 mov	 eax, DWORD PTR _this$[ebp]
  00047	8b 40 10	 mov	 eax, DWORD PTR [eax+16]
  0004a	99		 cdq
  0004b	83 e2 07	 and	 edx, 7
  0004e	03 c2		 add	 eax, edx
  00050	c1 f8 03	 sar	 eax, 3
  00053	89 45 f8	 mov	 DWORD PTR _nGrowCount$4[ebp], eax

; 424  : 			nGrowCount=(nGrowCount<4)?4:((nGrowCount>1024)?1024:nGrowCount);

  00056	83 7d f8 04	 cmp	 DWORD PTR _nGrowCount$4[ebp], 4
  0005a	7d 09		 jge	 SHORT $LN8@AllocMemor
  0005c	c7 45 a8 04 00
	00 00		 mov	 DWORD PTR tv79[ebp], 4
  00063	eb 1e		 jmp	 SHORT $LN9@AllocMemor
$LN8@AllocMemor:
  00065	81 7d f8 00 04
	00 00		 cmp	 DWORD PTR _nGrowCount$4[ebp], 1024 ; 00000400H
  0006c	7e 09		 jle	 SHORT $LN6@AllocMemor
  0006e	c7 45 a4 00 04
	00 00		 mov	 DWORD PTR tv78[ebp], 1024 ; 00000400H
  00075	eb 06		 jmp	 SHORT $LN7@AllocMemor
$LN6@AllocMemor:
  00077	8b 45 f8	 mov	 eax, DWORD PTR _nGrowCount$4[ebp]
  0007a	89 45 a4	 mov	 DWORD PTR tv78[ebp], eax
$LN7@AllocMemor:
  0007d	8b 4d a4	 mov	 ecx, DWORD PTR tv78[ebp]
  00080	89 4d a8	 mov	 DWORD PTR tv79[ebp], ecx
$LN9@AllocMemor:
  00083	8b 55 a8	 mov	 edx, DWORD PTR tv79[ebp]
  00086	89 55 f8	 mov	 DWORD PTR _nGrowCount$4[ebp], edx
$LN3@AllocMemor:

; 425  : 		}
; 426  : 		nNewCount+=nGrowCount;

  00089	8b 45 08	 mov	 eax, DWORD PTR _nNewCount$[ebp]
  0008c	03 45 f8	 add	 eax, DWORD PTR _nGrowCount$4[ebp]
  0008f	89 45 08	 mov	 DWORD PTR _nNewCount$[ebp], eax

; 427  : 
; 428  : 		//申请内存
; 429  : 		TYPE * pNewData=(TYPE *) new BYTE[nNewCount*sizeof(TYPE)];

  00092	8b 45 08	 mov	 eax, DWORD PTR _nNewCount$[ebp]
  00095	c1 e0 02	 shl	 eax, 2
  00098	50		 push	 eax
  00099	e8 00 00 00 00	 call	 ??_U@YAPAXI@Z		; operator new[]
  0009e	83 c4 04	 add	 esp, 4
  000a1	89 45 b0	 mov	 DWORD PTR $T2[ebp], eax
  000a4	8b 4d b0	 mov	 ecx, DWORD PTR $T2[ebp]
  000a7	89 4d f4	 mov	 DWORD PTR _pNewData$3[ebp], ecx

; 430  : 		memcpy(pNewData,m_pData,m_nElementCount*sizeof(TYPE));

  000aa	8b 45 fc	 mov	 eax, DWORD PTR _this$[ebp]
  000ad	8b 48 10	 mov	 ecx, DWORD PTR [eax+16]
  000b0	c1 e1 02	 shl	 ecx, 2
  000b3	51		 push	 ecx
  000b4	8b 55 fc	 mov	 edx, DWORD PTR _this$[ebp]
  000b7	8b 42 04	 mov	 eax, DWORD PTR [edx+4]
  000ba	50		 push	 eax
  000bb	8b 4d f4	 mov	 ecx, DWORD PTR _pNewData$3[ebp]
  000be	51		 push	 ecx
  000bf	e8 00 00 00 00	 call	 _memcpy
  000c4	83 c4 0c	 add	 esp, 12			; 0000000cH

; 431  : 		memset(pNewData+m_nElementCount,0,(nNewCount-m_nElementCount)*sizeof(TYPE));

  000c7	8b 45 fc	 mov	 eax, DWORD PTR _this$[ebp]
  000ca	8b 4d 08	 mov	 ecx, DWORD PTR _nNewCount$[ebp]
  000cd	2b 48 10	 sub	 ecx, DWORD PTR [eax+16]
  000d0	c1 e1 02	 shl	 ecx, 2
  000d3	51		 push	 ecx
  000d4	6a 00		 push	 0
  000d6	8b 55 fc	 mov	 edx, DWORD PTR _this$[ebp]
  000d9	8b 42 10	 mov	 eax, DWORD PTR [edx+16]
  000dc	8b 4d f4	 mov	 ecx, DWORD PTR _pNewData$3[ebp]
  000df	8d 14 81	 lea	 edx, DWORD PTR [ecx+eax*4]
  000e2	52		 push	 edx
  000e3	e8 00 00 00 00	 call	 _memset
  000e8	83 c4 0c	 add	 esp, 12			; 0000000cH

; 432  : 		delete [] (BYTE *)m_pData;

  000eb	8b 45 fc	 mov	 eax, DWORD PTR _this$[ebp]
  000ee	8b 48 04	 mov	 ecx, DWORD PTR [eax+4]
  000f1	89 4d ac	 mov	 DWORD PTR $T1[ebp], ecx
  000f4	8b 55 ac	 mov	 edx, DWORD PTR $T1[ebp]
  000f7	52		 push	 edx
  000f8	e8 00 00 00 00	 call	 ??_V@YAXPAX@Z		; operator delete[]
  000fd	83 c4 04	 add	 esp, 4

; 433  : 
; 434  : 		//设置变量
; 435  : 		m_pData=pNewData;

  00100	8b 45 fc	 mov	 eax, DWORD PTR _this$[ebp]
  00103	8b 4d f4	 mov	 ecx, DWORD PTR _pNewData$3[ebp]
  00106	89 48 04	 mov	 DWORD PTR [eax+4], ecx

; 436  : 		m_nMaxCount=nNewCount;

  00109	8b 45 fc	 mov	 eax, DWORD PTR _this$[ebp]
  0010c	8b 4d 08	 mov	 ecx, DWORD PTR _nNewCount$[ebp]
  0010f	89 48 08	 mov	 DWORD PTR [eax+8], ecx
$LN1@AllocMemor:

; 437  : 	}
; 438  : 
; 439  : 	return;
; 440  : }

  00112	5f		 pop	 edi
  00113	5e		 pop	 esi
  00114	5b		 pop	 ebx
  00115	8b e5		 mov	 esp, ebp
  00117	5d		 pop	 ebp
  00118	c2 04 00	 ret	 4
?AllocMemory@?$CWHArray@PAVCGamePropertyTypeItem@NGamePropertyListManager@@ABQAV12@@@QAEXH@Z ENDP ; CWHArray<NGamePropertyListManager::CGamePropertyTypeItem *,NGamePropertyListManager::CGamePropertyTypeItem * const &>::AllocMemory
_TEXT	ENDS
; Function compile flags: /Odtp /ZI
; File g:\网狐\happygamewh\服务端\系统模块\全局定义\array.h
;	COMDAT ??A?$CWHArray@PAVCGamePropertyTypeItem@NGamePropertyListManager@@ABQAV12@@@QAEAAPAVCGamePropertyTypeItem@NGamePropertyListManager@@H@Z
_TEXT	SEGMENT
_this$ = -4						; size = 4
_nIndex$ = 8						; size = 4
??A?$CWHArray@PAVCGamePropertyTypeItem@NGamePropertyListManager@@ABQAV12@@@QAEAAPAVCGamePropertyTypeItem@NGamePropertyListManager@@H@Z PROC ; CWHArray<NGamePropertyListManager::CGamePropertyTypeItem *,NGamePropertyListManager::CGamePropertyTypeItem * const &>::operator[], COMDAT
; _this$ = ecx

; 114  : { 

  00000	55		 push	 ebp
  00001	8b ec		 mov	 ebp, esp
  00003	83 ec 44	 sub	 esp, 68			; 00000044H
  00006	53		 push	 ebx
  00007	56		 push	 esi
  00008	57		 push	 edi
  00009	89 4d fc	 mov	 DWORD PTR _this$[ebp], ecx

; 115  : 	return ElementAt(nIndex);

  0000c	8b 45 08	 mov	 eax, DWORD PTR _nIndex$[ebp]
  0000f	50		 push	 eax
  00010	8b 4d fc	 mov	 ecx, DWORD PTR _this$[ebp]
  00013	e8 00 00 00 00	 call	 ?ElementAt@?$CWHArray@PAVCGamePropertyTypeItem@NGamePropertyListManager@@ABQAV12@@@QAEAAPAVCGamePropertyTypeItem@NGamePropertyListManager@@H@Z ; CWHArray<NGamePropertyListManager::CGamePropertyTypeItem *,NGamePropertyListManager::CGamePropertyTypeItem * const &>::ElementAt

; 116  : }

  00018	5f		 pop	 edi
  00019	5e		 pop	 esi
  0001a	5b		 pop	 ebx
  0001b	8b e5		 mov	 esp, ebp
  0001d	5d		 pop	 ebp
  0001e	c2 04 00	 ret	 4
??A?$CWHArray@PAVCGamePropertyTypeItem@NGamePropertyListManager@@ABQAV12@@@QAEAAPAVCGamePropertyTypeItem@NGamePropertyListManager@@H@Z ENDP ; CWHArray<NGamePropertyListManager::CGamePropertyTypeItem *,NGamePropertyListManager::CGamePropertyTypeItem * const &>::operator[]
_TEXT	ENDS
; Function compile flags: /Odtp /ZI
; File g:\网狐\happygamewh\服务端\系统模块\全局定义\array.h
;	COMDAT ?RemoveAll@?$CWHArray@PAVCGamePropertyTypeItem@NGamePropertyListManager@@ABQAV12@@@QAEXXZ
_TEXT	SEGMENT
_i$1 = -8						; size = 4
_this$ = -4						; size = 4
?RemoveAll@?$CWHArray@PAVCGamePropertyTypeItem@NGamePropertyListManager@@ABQAV12@@@QAEXXZ PROC ; CWHArray<NGamePropertyListManager::CGamePropertyTypeItem *,NGamePropertyListManager::CGamePropertyTypeItem * const &>::RemoveAll, COMDAT
; _this$ = ecx

; 379  : {

  00000	55		 push	 ebp
  00001	8b ec		 mov	 ebp, esp
  00003	83 ec 48	 sub	 esp, 72			; 00000048H
  00006	53		 push	 ebx
  00007	56		 push	 esi
  00008	57		 push	 edi
  00009	89 4d fc	 mov	 DWORD PTR _this$[ebp], ecx

; 380  : 	if (m_nElementCount>0)

  0000c	8b 45 fc	 mov	 eax, DWORD PTR _this$[ebp]
  0000f	83 78 10 00	 cmp	 DWORD PTR [eax+16], 0
  00013	7e 44		 jle	 SHORT $LN1@RemoveAll

; 381  : 	{
; 382  : 		for (INT_PTR i=0;i<m_nElementCount;i++) (m_pData+i)->~TYPE();

  00015	c7 45 f8 00 00
	00 00		 mov	 DWORD PTR _i$1[ebp], 0
  0001c	eb 09		 jmp	 SHORT $LN4@RemoveAll
$LN2@RemoveAll:
  0001e	8b 45 f8	 mov	 eax, DWORD PTR _i$1[ebp]
  00021	83 c0 01	 add	 eax, 1
  00024	89 45 f8	 mov	 DWORD PTR _i$1[ebp], eax
$LN4@RemoveAll:
  00027	8b 45 fc	 mov	 eax, DWORD PTR _this$[ebp]
  0002a	8b 4d f8	 mov	 ecx, DWORD PTR _i$1[ebp]
  0002d	3b 48 10	 cmp	 ecx, DWORD PTR [eax+16]
  00030	7d 02		 jge	 SHORT $LN3@RemoveAll
  00032	eb ea		 jmp	 SHORT $LN2@RemoveAll
$LN3@RemoveAll:

; 383  : 		memset(m_pData,0,m_nElementCount*sizeof(TYPE));

  00034	8b 45 fc	 mov	 eax, DWORD PTR _this$[ebp]
  00037	8b 48 10	 mov	 ecx, DWORD PTR [eax+16]
  0003a	c1 e1 02	 shl	 ecx, 2
  0003d	51		 push	 ecx
  0003e	6a 00		 push	 0
  00040	8b 55 fc	 mov	 edx, DWORD PTR _this$[ebp]
  00043	8b 42 04	 mov	 eax, DWORD PTR [edx+4]
  00046	50		 push	 eax
  00047	e8 00 00 00 00	 call	 _memset
  0004c	83 c4 0c	 add	 esp, 12			; 0000000cH

; 384  : 		m_nElementCount=0;

  0004f	8b 45 fc	 mov	 eax, DWORD PTR _this$[ebp]
  00052	c7 40 10 00 00
	00 00		 mov	 DWORD PTR [eax+16], 0
$LN1@RemoveAll:

; 385  : 	}
; 386  : 
; 387  : 	return;
; 388  : }

  00059	5f		 pop	 edi
  0005a	5e		 pop	 esi
  0005b	5b		 pop	 ebx
  0005c	8b e5		 mov	 esp, ebp
  0005e	5d		 pop	 ebp
  0005f	c3		 ret	 0
?RemoveAll@?$CWHArray@PAVCGamePropertyTypeItem@NGamePropertyListManager@@ABQAV12@@@QAEXXZ ENDP ; CWHArray<NGamePropertyListManager::CGamePropertyTypeItem *,NGamePropertyListManager::CGamePropertyTypeItem * const &>::RemoveAll
_TEXT	ENDS
; Function compile flags: /Odtp /ZI
; File g:\网狐\happygamewh\服务端\系统模块\全局定义\array.h
;	COMDAT ?RemoveAt@?$CWHArray@PAVCGamePropertyTypeItem@NGamePropertyListManager@@ABQAV12@@@QAEXHH@Z
_TEXT	SEGMENT
_i$1 = -12						; size = 4
_nMoveCount$ = -8					; size = 4
_this$ = -4						; size = 4
_nIndex$ = 8						; size = 4
_nCount$ = 12						; size = 4
?RemoveAt@?$CWHArray@PAVCGamePropertyTypeItem@NGamePropertyListManager@@ABQAV12@@@QAEXHH@Z PROC ; CWHArray<NGamePropertyListManager::CGamePropertyTypeItem *,NGamePropertyListManager::CGamePropertyTypeItem * const &>::RemoveAt, COMDAT
; _this$ = ecx

; 360  : {

  00000	55		 push	 ebp
  00001	8b ec		 mov	 ebp, esp
  00003	83 ec 4c	 sub	 esp, 76			; 0000004cH
  00006	53		 push	 ebx
  00007	56		 push	 esi
  00008	57		 push	 edi
  00009	89 4d fc	 mov	 DWORD PTR _this$[ebp], ecx

; 361  : 	//效验参数
; 362  : 	ASSERT(nIndex>=0);

  0000c	83 7d 08 00	 cmp	 DWORD PTR _nIndex$[ebp], 0
  00010	7d 14		 jge	 SHORT $LN9@RemoveAt
  00012	68 6a 01 00 00	 push	 362			; 0000016aH
  00017	68 00 00 00 00	 push	 OFFSET ??_C@_0DF@LDFGAABH@g?3?2?M?x?$LK?$PM?2happygamewh?2?$LH?$PO?N?q?$LG?K?2?O?$LF?M?$LD@
  0001c	e8 00 00 00 00	 call	 ?AfxAssertFailedLine@@YGHPBDH@Z ; AfxAssertFailedLine
  00021	85 c0		 test	 eax, eax
  00023	74 01		 je	 SHORT $LN9@RemoveAt
  00025	cc		 int	 3
$LN9@RemoveAt:

; 363  : 	ASSERT(nCount>=0);

  00026	83 7d 0c 00	 cmp	 DWORD PTR _nCount$[ebp], 0
  0002a	7d 14		 jge	 SHORT $LN10@RemoveAt
  0002c	68 6b 01 00 00	 push	 363			; 0000016bH
  00031	68 00 00 00 00	 push	 OFFSET ??_C@_0DF@LDFGAABH@g?3?2?M?x?$LK?$PM?2happygamewh?2?$LH?$PO?N?q?$LG?K?2?O?$LF?M?$LD@
  00036	e8 00 00 00 00	 call	 ?AfxAssertFailedLine@@YGHPBDH@Z ; AfxAssertFailedLine
  0003b	85 c0		 test	 eax, eax
  0003d	74 01		 je	 SHORT $LN10@RemoveAt
  0003f	cc		 int	 3
$LN10@RemoveAt:

; 364  : 	ASSERT(nIndex+nCount<=m_nElementCount);

  00040	8b 45 08	 mov	 eax, DWORD PTR _nIndex$[ebp]
  00043	03 45 0c	 add	 eax, DWORD PTR _nCount$[ebp]
  00046	8b 4d fc	 mov	 ecx, DWORD PTR _this$[ebp]
  00049	3b 41 10	 cmp	 eax, DWORD PTR [ecx+16]
  0004c	7e 14		 jle	 SHORT $LN11@RemoveAt
  0004e	68 6c 01 00 00	 push	 364			; 0000016cH
  00053	68 00 00 00 00	 push	 OFFSET ??_C@_0DF@LDFGAABH@g?3?2?M?x?$LK?$PM?2happygamewh?2?$LH?$PO?N?q?$LG?K?2?O?$LF?M?$LD@
  00058	e8 00 00 00 00	 call	 ?AfxAssertFailedLine@@YGHPBDH@Z ; AfxAssertFailedLine
  0005d	85 c0		 test	 eax, eax
  0005f	74 01		 je	 SHORT $LN11@RemoveAt
  00061	cc		 int	 3
$LN11@RemoveAt:

; 365  : 	if ((nIndex<0)||(nCount<0)||((nIndex+nCount>m_nElementCount))) AfxThrowInvalidArgException();

  00062	83 7d 08 00	 cmp	 DWORD PTR _nIndex$[ebp], 0
  00066	7c 14		 jl	 SHORT $LN6@RemoveAt
  00068	83 7d 0c 00	 cmp	 DWORD PTR _nCount$[ebp], 0
  0006c	7c 0e		 jl	 SHORT $LN6@RemoveAt
  0006e	8b 45 08	 mov	 eax, DWORD PTR _nIndex$[ebp]
  00071	03 45 0c	 add	 eax, DWORD PTR _nCount$[ebp]
  00074	8b 4d fc	 mov	 ecx, DWORD PTR _this$[ebp]
  00077	3b 41 10	 cmp	 eax, DWORD PTR [ecx+16]
  0007a	7e 05		 jle	 SHORT $LN5@RemoveAt
$LN6@RemoveAt:
  0007c	e8 00 00 00 00	 call	 ?AfxThrowInvalidArgException@@YGXXZ ; AfxThrowInvalidArgException
$LN5@RemoveAt:

; 366  : 
; 367  : 	//删除数据
; 368  : 	INT_PTR nMoveCount=m_nElementCount-(nIndex+nCount);

  00081	8b 45 08	 mov	 eax, DWORD PTR _nIndex$[ebp]
  00084	03 45 0c	 add	 eax, DWORD PTR _nCount$[ebp]
  00087	8b 4d fc	 mov	 ecx, DWORD PTR _this$[ebp]
  0008a	8b 51 10	 mov	 edx, DWORD PTR [ecx+16]
  0008d	2b d0		 sub	 edx, eax
  0008f	89 55 f8	 mov	 DWORD PTR _nMoveCount$[ebp], edx

; 369  : 	for (INT_PTR i=0;i<nCount;i++) (m_pData+nIndex+i)->~TYPE();

  00092	c7 45 f4 00 00
	00 00		 mov	 DWORD PTR _i$1[ebp], 0
  00099	eb 09		 jmp	 SHORT $LN4@RemoveAt
$LN2@RemoveAt:
  0009b	8b 45 f4	 mov	 eax, DWORD PTR _i$1[ebp]
  0009e	83 c0 01	 add	 eax, 1
  000a1	89 45 f4	 mov	 DWORD PTR _i$1[ebp], eax
$LN4@RemoveAt:
  000a4	8b 45 f4	 mov	 eax, DWORD PTR _i$1[ebp]
  000a7	3b 45 0c	 cmp	 eax, DWORD PTR _nCount$[ebp]
  000aa	7d 02		 jge	 SHORT $LN3@RemoveAt
  000ac	eb ed		 jmp	 SHORT $LN2@RemoveAt
$LN3@RemoveAt:

; 370  : 	if (nMoveCount>0) memmove(m_pData+nIndex,m_pData+nIndex+nCount,nMoveCount*sizeof(TYPE));

  000ae	83 7d f8 00	 cmp	 DWORD PTR _nMoveCount$[ebp], 0
  000b2	7e 2f		 jle	 SHORT $LN7@RemoveAt
  000b4	8b 45 f8	 mov	 eax, DWORD PTR _nMoveCount$[ebp]
  000b7	c1 e0 02	 shl	 eax, 2
  000ba	50		 push	 eax
  000bb	8b 4d fc	 mov	 ecx, DWORD PTR _this$[ebp]
  000be	8b 51 04	 mov	 edx, DWORD PTR [ecx+4]
  000c1	8b 45 08	 mov	 eax, DWORD PTR _nIndex$[ebp]
  000c4	8d 0c 82	 lea	 ecx, DWORD PTR [edx+eax*4]
  000c7	8b 55 0c	 mov	 edx, DWORD PTR _nCount$[ebp]
  000ca	8d 04 91	 lea	 eax, DWORD PTR [ecx+edx*4]
  000cd	50		 push	 eax
  000ce	8b 4d fc	 mov	 ecx, DWORD PTR _this$[ebp]
  000d1	8b 51 04	 mov	 edx, DWORD PTR [ecx+4]
  000d4	8b 45 08	 mov	 eax, DWORD PTR _nIndex$[ebp]
  000d7	8d 0c 82	 lea	 ecx, DWORD PTR [edx+eax*4]
  000da	51		 push	 ecx
  000db	e8 00 00 00 00	 call	 _memmove
  000e0	83 c4 0c	 add	 esp, 12			; 0000000cH
$LN7@RemoveAt:

; 371  : 	m_nElementCount-=nCount;

  000e3	8b 45 fc	 mov	 eax, DWORD PTR _this$[ebp]
  000e6	8b 48 10	 mov	 ecx, DWORD PTR [eax+16]
  000e9	2b 4d 0c	 sub	 ecx, DWORD PTR _nCount$[ebp]
  000ec	8b 55 fc	 mov	 edx, DWORD PTR _this$[ebp]
  000ef	89 4a 10	 mov	 DWORD PTR [edx+16], ecx
$LN8@RemoveAt:

; 372  : 
; 373  : 	return;
; 374  : }

  000f2	5f		 pop	 edi
  000f3	5e		 pop	 esi
  000f4	5b		 pop	 ebx
  000f5	8b e5		 mov	 esp, ebp
  000f7	5d		 pop	 ebp
  000f8	c2 08 00	 ret	 8
?RemoveAt@?$CWHArray@PAVCGamePropertyTypeItem@NGamePropertyListManager@@ABQAV12@@@QAEXHH@Z ENDP ; CWHArray<NGamePropertyListManager::CGamePropertyTypeItem *,NGamePropertyListManager::CGamePropertyTypeItem * const &>::RemoveAt
_TEXT	ENDS
; Function compile flags: /Odtp /ZI
; File g:\网狐\happygamewh\服务端\系统模块\全局定义\array.h
;	COMDAT ?SetAtGrow@?$CWHArray@PAVCGamePropertyTypeItem@NGamePropertyListManager@@ABQAV12@@@QAEXHABQAVCGamePropertyTypeItem@NGamePropertyListManager@@@Z
_TEXT	SEGMENT
_this$ = -4						; size = 4
_nIndex$ = 8						; size = 4
_newElement$ = 12					; size = 4
?SetAtGrow@?$CWHArray@PAVCGamePropertyTypeItem@NGamePropertyListManager@@ABQAV12@@@QAEXHABQAVCGamePropertyTypeItem@NGamePropertyListManager@@@Z PROC ; CWHArray<NGamePropertyListManager::CGamePropertyTypeItem *,NGamePropertyListManager::CGamePropertyTypeItem * const &>::SetAtGrow, COMDAT
; _this$ = ecx

; 287  : {

  00000	55		 push	 ebp
  00001	8b ec		 mov	 ebp, esp
  00003	83 ec 44	 sub	 esp, 68			; 00000044H
  00006	53		 push	 ebx
  00007	56		 push	 esi
  00008	57		 push	 edi
  00009	89 4d fc	 mov	 DWORD PTR _this$[ebp], ecx

; 288  : 	//效验参数
; 289  : 	ASSERT(nIndex>=0);

  0000c	83 7d 08 00	 cmp	 DWORD PTR _nIndex$[ebp], 0
  00010	7d 14		 jge	 SHORT $LN5@SetAtGrow
  00012	68 21 01 00 00	 push	 289			; 00000121H
  00017	68 00 00 00 00	 push	 OFFSET ??_C@_0DF@LDFGAABH@g?3?2?M?x?$LK?$PM?2happygamewh?2?$LH?$PO?N?q?$LG?K?2?O?$LF?M?$LD@
  0001c	e8 00 00 00 00	 call	 ?AfxAssertFailedLine@@YGHPBDH@Z ; AfxAssertFailedLine
  00021	85 c0		 test	 eax, eax
  00023	74 01		 je	 SHORT $LN5@SetAtGrow
  00025	cc		 int	 3
$LN5@SetAtGrow:

; 290  : 	if (nIndex<0) AfxThrowInvalidArgException();

  00026	83 7d 08 00	 cmp	 DWORD PTR _nIndex$[ebp], 0
  0002a	7d 05		 jge	 SHORT $LN2@SetAtGrow
  0002c	e8 00 00 00 00	 call	 ?AfxThrowInvalidArgException@@YGXXZ ; AfxThrowInvalidArgException
$LN2@SetAtGrow:

; 291  : 
; 292  : 	//设置元素
; 293  : 	if (nIndex>=m_nElementCount) SetSize(m_nElementCount+1);

  00031	8b 45 fc	 mov	 eax, DWORD PTR _this$[ebp]
  00034	8b 4d 08	 mov	 ecx, DWORD PTR _nIndex$[ebp]
  00037	3b 48 10	 cmp	 ecx, DWORD PTR [eax+16]
  0003a	7c 12		 jl	 SHORT $LN3@SetAtGrow
  0003c	8b 45 fc	 mov	 eax, DWORD PTR _this$[ebp]
  0003f	8b 48 10	 mov	 ecx, DWORD PTR [eax+16]
  00042	83 c1 01	 add	 ecx, 1
  00045	51		 push	 ecx
  00046	8b 4d fc	 mov	 ecx, DWORD PTR _this$[ebp]
  00049	e8 00 00 00 00	 call	 ?SetSize@?$CWHArray@PAVCGamePropertyTypeItem@NGamePropertyListManager@@ABQAV12@@@QAEXH@Z ; CWHArray<NGamePropertyListManager::CGamePropertyTypeItem *,NGamePropertyListManager::CGamePropertyTypeItem * const &>::SetSize
$LN3@SetAtGrow:

; 294  : 	m_pData[nIndex]=newElement;

  0004e	8b 45 fc	 mov	 eax, DWORD PTR _this$[ebp]
  00051	8b 48 04	 mov	 ecx, DWORD PTR [eax+4]
  00054	8b 55 08	 mov	 edx, DWORD PTR _nIndex$[ebp]
  00057	8b 45 0c	 mov	 eax, DWORD PTR _newElement$[ebp]
  0005a	8b 00		 mov	 eax, DWORD PTR [eax]
  0005c	89 04 91	 mov	 DWORD PTR [ecx+edx*4], eax
$LN4@SetAtGrow:

; 295  : 
; 296  : 	return;
; 297  : }

  0005f	5f		 pop	 edi
  00060	5e		 pop	 esi
  00061	5b		 pop	 ebx
  00062	8b e5		 mov	 esp, ebp
  00064	5d		 pop	 ebp
  00065	c2 08 00	 ret	 8
?SetAtGrow@?$CWHArray@PAVCGamePropertyTypeItem@NGamePropertyListManager@@ABQAV12@@@QAEXHABQAVCGamePropertyTypeItem@NGamePropertyListManager@@@Z ENDP ; CWHArray<NGamePropertyListManager::CGamePropertyTypeItem *,NGamePropertyListManager::CGamePropertyTypeItem * const &>::SetAtGrow
_TEXT	ENDS
; Function compile flags: /Odtp /ZI
; File g:\网狐\happygamewh\服务端\系统模块\全局定义\array.h
;	COMDAT ?SetSize@?$CWHArray@PAVCGamePropertyTypeItem@NGamePropertyListManager@@ABQAV12@@@QAEXH@Z
_TEXT	SEGMENT
$T1 = -80						; size = 4
_i$2 = -12						; size = 4
_i$3 = -8						; size = 4
_this$ = -4						; size = 4
_nNewSize$ = 8						; size = 4
?SetSize@?$CWHArray@PAVCGamePropertyTypeItem@NGamePropertyListManager@@ABQAV12@@@QAEXH@Z PROC ; CWHArray<NGamePropertyListManager::CGamePropertyTypeItem *,NGamePropertyListManager::CGamePropertyTypeItem * const &>::SetSize, COMDAT
; _this$ = ecx

; 252  : {

  00000	55		 push	 ebp
  00001	8b ec		 mov	 ebp, esp
  00003	83 ec 50	 sub	 esp, 80			; 00000050H
  00006	53		 push	 ebx
  00007	56		 push	 esi
  00008	57		 push	 edi
  00009	89 4d fc	 mov	 DWORD PTR _this$[ebp], ecx

; 253  : 	//效验参数
; 254  : 	ASSERT(nNewSize>=0);

  0000c	83 7d 08 00	 cmp	 DWORD PTR _nNewSize$[ebp], 0
  00010	7d 14		 jge	 SHORT $LN13@SetSize
  00012	68 fe 00 00 00	 push	 254			; 000000feH
  00017	68 00 00 00 00	 push	 OFFSET ??_C@_0DF@LDFGAABH@g?3?2?M?x?$LK?$PM?2happygamewh?2?$LH?$PO?N?q?$LG?K?2?O?$LF?M?$LD@
  0001c	e8 00 00 00 00	 call	 ?AfxAssertFailedLine@@YGHPBDH@Z ; AfxAssertFailedLine
  00021	85 c0		 test	 eax, eax
  00023	74 01		 je	 SHORT $LN13@SetSize
  00025	cc		 int	 3
$LN13@SetSize:

; 255  : 	if (nNewSize<0)	AfxThrowInvalidArgException();

  00026	83 7d 08 00	 cmp	 DWORD PTR _nNewSize$[ebp], 0
  0002a	7d 05		 jge	 SHORT $LN8@SetSize
  0002c	e8 00 00 00 00	 call	 ?AfxThrowInvalidArgException@@YGXXZ ; AfxThrowInvalidArgException
$LN8@SetSize:

; 256  : 	
; 257  : 	//设置大小
; 258  : 	AllocMemory(nNewSize);

  00031	8b 45 08	 mov	 eax, DWORD PTR _nNewSize$[ebp]
  00034	50		 push	 eax
  00035	8b 4d fc	 mov	 ecx, DWORD PTR _this$[ebp]
  00038	e8 00 00 00 00	 call	 ?AllocMemory@?$CWHArray@PAVCGamePropertyTypeItem@NGamePropertyListManager@@ABQAV12@@@QAEXH@Z ; CWHArray<NGamePropertyListManager::CGamePropertyTypeItem *,NGamePropertyListManager::CGamePropertyTypeItem * const &>::AllocMemory

; 259  : 	if (nNewSize>m_nElementCount)

  0003d	8b 45 fc	 mov	 eax, DWORD PTR _this$[ebp]
  00040	8b 4d 08	 mov	 ecx, DWORD PTR _nNewSize$[ebp]
  00043	3b 48 10	 cmp	 ecx, DWORD PTR [eax+16]
  00046	7e 3a		 jle	 SHORT $LN9@SetSize

; 260  : 	{
; 261  : 		for (INT_PTR i=m_nElementCount;i<nNewSize;i++) new ((VOID *)(m_pData+i)) TYPE;

  00048	8b 45 fc	 mov	 eax, DWORD PTR _this$[ebp]
  0004b	8b 48 10	 mov	 ecx, DWORD PTR [eax+16]
  0004e	89 4d f8	 mov	 DWORD PTR _i$3[ebp], ecx
  00051	eb 09		 jmp	 SHORT $LN4@SetSize
$LN2@SetSize:
  00053	8b 45 f8	 mov	 eax, DWORD PTR _i$3[ebp]
  00056	83 c0 01	 add	 eax, 1
  00059	89 45 f8	 mov	 DWORD PTR _i$3[ebp], eax
$LN4@SetSize:
  0005c	8b 45 f8	 mov	 eax, DWORD PTR _i$3[ebp]
  0005f	3b 45 08	 cmp	 eax, DWORD PTR _nNewSize$[ebp]
  00062	7d 1c		 jge	 SHORT $LN3@SetSize
  00064	8b 45 fc	 mov	 eax, DWORD PTR _this$[ebp]
  00067	8b 48 04	 mov	 ecx, DWORD PTR [eax+4]
  0006a	8b 55 f8	 mov	 edx, DWORD PTR _i$3[ebp]
  0006d	8d 04 91	 lea	 eax, DWORD PTR [ecx+edx*4]
  00070	50		 push	 eax
  00071	6a 04		 push	 4
  00073	e8 00 00 00 00	 call	 ??2@YAPAXIPAX@Z		; operator new
  00078	83 c4 08	 add	 esp, 8
  0007b	89 45 b0	 mov	 DWORD PTR $T1[ebp], eax
  0007e	eb d3		 jmp	 SHORT $LN2@SetSize
$LN3@SetSize:

; 262  : 	}
; 263  : 	else if (nNewSize<m_nElementCount)

  00080	eb 4d		 jmp	 SHORT $LN10@SetSize
$LN9@SetSize:
  00082	8b 45 fc	 mov	 eax, DWORD PTR _this$[ebp]
  00085	8b 4d 08	 mov	 ecx, DWORD PTR _nNewSize$[ebp]
  00088	3b 48 10	 cmp	 ecx, DWORD PTR [eax+16]
  0008b	7d 42		 jge	 SHORT $LN10@SetSize

; 264  : 	{
; 265  : 		for (INT_PTR i=nNewSize;i<m_nElementCount;i++) (m_pData+i)->~TYPE();

  0008d	8b 45 08	 mov	 eax, DWORD PTR _nNewSize$[ebp]
  00090	89 45 f4	 mov	 DWORD PTR _i$2[ebp], eax
  00093	eb 09		 jmp	 SHORT $LN7@SetSize
$LN5@SetSize:
  00095	8b 45 f4	 mov	 eax, DWORD PTR _i$2[ebp]
  00098	83 c0 01	 add	 eax, 1
  0009b	89 45 f4	 mov	 DWORD PTR _i$2[ebp], eax
$LN7@SetSize:
  0009e	8b 45 fc	 mov	 eax, DWORD PTR _this$[ebp]
  000a1	8b 4d f4	 mov	 ecx, DWORD PTR _i$2[ebp]
  000a4	3b 48 10	 cmp	 ecx, DWORD PTR [eax+16]
  000a7	7d 02		 jge	 SHORT $LN6@SetSize
  000a9	eb ea		 jmp	 SHORT $LN5@SetSize
$LN6@SetSize:

; 266  : 		memset(m_pData+nNewSize,0,(m_nElementCount-nNewSize)*sizeof(TYPE));

  000ab	8b 45 fc	 mov	 eax, DWORD PTR _this$[ebp]
  000ae	8b 48 10	 mov	 ecx, DWORD PTR [eax+16]
  000b1	2b 4d 08	 sub	 ecx, DWORD PTR _nNewSize$[ebp]
  000b4	c1 e1 02	 shl	 ecx, 2
  000b7	51		 push	 ecx
  000b8	6a 00		 push	 0
  000ba	8b 55 fc	 mov	 edx, DWORD PTR _this$[ebp]
  000bd	8b 42 04	 mov	 eax, DWORD PTR [edx+4]
  000c0	8b 4d 08	 mov	 ecx, DWORD PTR _nNewSize$[ebp]
  000c3	8d 14 88	 lea	 edx, DWORD PTR [eax+ecx*4]
  000c6	52		 push	 edx
  000c7	e8 00 00 00 00	 call	 _memset
  000cc	83 c4 0c	 add	 esp, 12			; 0000000cH
$LN10@SetSize:

; 267  : 	}
; 268  : 	m_nElementCount=nNewSize;

  000cf	8b 45 fc	 mov	 eax, DWORD PTR _this$[ebp]
  000d2	8b 4d 08	 mov	 ecx, DWORD PTR _nNewSize$[ebp]
  000d5	89 48 10	 mov	 DWORD PTR [eax+16], ecx
$LN12@SetSize:

; 269  : 
; 270  : 	return;
; 271  : }

  000d8	5f		 pop	 edi
  000d9	5e		 pop	 esi
  000da	5b		 pop	 ebx
  000db	8b e5		 mov	 esp, ebp
  000dd	5d		 pop	 ebp
  000de	c2 04 00	 ret	 4
?SetSize@?$CWHArray@PAVCGamePropertyTypeItem@NGamePropertyListManager@@ABQAV12@@@QAEXH@Z ENDP ; CWHArray<NGamePropertyListManager::CGamePropertyTypeItem *,NGamePropertyListManager::CGamePropertyTypeItem * const &>::SetSize
_TEXT	ENDS
; Function compile flags: /Odtp /ZI
; File g:\网狐\happygamewh\服务端\系统模块\全局定义\array.h
;	COMDAT ?ElementAt@?$CWHArray@PAVCGamePropertyTypeItem@NGamePropertyListManager@@ABQAV12@@@QAEAAPAVCGamePropertyTypeItem@NGamePropertyListManager@@H@Z
_TEXT	SEGMENT
_this$ = -4						; size = 4
_nIndex$ = 8						; size = 4
?ElementAt@?$CWHArray@PAVCGamePropertyTypeItem@NGamePropertyListManager@@ABQAV12@@@QAEAAPAVCGamePropertyTypeItem@NGamePropertyListManager@@H@Z PROC ; CWHArray<NGamePropertyListManager::CGamePropertyTypeItem *,NGamePropertyListManager::CGamePropertyTypeItem * const &>::ElementAt, COMDAT
; _this$ = ecx

; 232  : {

  00000	55		 push	 ebp
  00001	8b ec		 mov	 ebp, esp
  00003	83 ec 44	 sub	 esp, 68			; 00000044H
  00006	53		 push	 ebx
  00007	56		 push	 esi
  00008	57		 push	 edi
  00009	89 4d fc	 mov	 DWORD PTR _this$[ebp], ecx

; 233  : 	ASSERT((nIndex>=0)&&(nIndex<m_nElementCount));

  0000c	83 7d 08 00	 cmp	 DWORD PTR _nIndex$[ebp], 0
  00010	7c 0b		 jl	 SHORT $LN4@ElementAt
  00012	8b 45 fc	 mov	 eax, DWORD PTR _this$[ebp]
  00015	8b 4d 08	 mov	 ecx, DWORD PTR _nIndex$[ebp]
  00018	3b 48 10	 cmp	 ecx, DWORD PTR [eax+16]
  0001b	7c 14		 jl	 SHORT $LN5@ElementAt
$LN4@ElementAt:
  0001d	68 e9 00 00 00	 push	 233			; 000000e9H
  00022	68 00 00 00 00	 push	 OFFSET ??_C@_0DF@LDFGAABH@g?3?2?M?x?$LK?$PM?2happygamewh?2?$LH?$PO?N?q?$LG?K?2?O?$LF?M?$LD@
  00027	e8 00 00 00 00	 call	 ?AfxAssertFailedLine@@YGHPBDH@Z ; AfxAssertFailedLine
  0002c	85 c0		 test	 eax, eax
  0002e	74 01		 je	 SHORT $LN5@ElementAt
  00030	cc		 int	 3
$LN5@ElementAt:

; 234  : 	if ((nIndex<0)&&(nIndex>=m_nElementCount)) AfxThrowInvalidArgException();

  00031	83 7d 08 00	 cmp	 DWORD PTR _nIndex$[ebp], 0
  00035	7d 10		 jge	 SHORT $LN2@ElementAt
  00037	8b 45 fc	 mov	 eax, DWORD PTR _this$[ebp]
  0003a	8b 4d 08	 mov	 ecx, DWORD PTR _nIndex$[ebp]
  0003d	3b 48 10	 cmp	 ecx, DWORD PTR [eax+16]
  00040	7c 05		 jl	 SHORT $LN2@ElementAt
  00042	e8 00 00 00 00	 call	 ?AfxThrowInvalidArgException@@YGXXZ ; AfxThrowInvalidArgException
$LN2@ElementAt:

; 235  : 	
; 236  : 	return m_pData[nIndex];

  00047	8b 45 fc	 mov	 eax, DWORD PTR _this$[ebp]
  0004a	8b 48 04	 mov	 ecx, DWORD PTR [eax+4]
  0004d	8b 55 08	 mov	 edx, DWORD PTR _nIndex$[ebp]
  00050	8d 04 91	 lea	 eax, DWORD PTR [ecx+edx*4]
$LN3@ElementAt:

; 237  : }

  00053	5f		 pop	 edi
  00054	5e		 pop	 esi
  00055	5b		 pop	 ebx
  00056	8b e5		 mov	 esp, ebp
  00058	5d		 pop	 ebp
  00059	c2 04 00	 ret	 4
?ElementAt@?$CWHArray@PAVCGamePropertyTypeItem@NGamePropertyListManager@@ABQAV12@@@QAEAAPAVCGamePropertyTypeItem@NGamePropertyListManager@@H@Z ENDP ; CWHArray<NGamePropertyListManager::CGamePropertyTypeItem *,NGamePropertyListManager::CGamePropertyTypeItem * const &>::ElementAt
_TEXT	ENDS
; Function compile flags: /Odtp /ZI
; File g:\网狐\happygamewh\服务端\系统模块\全局定义\array.h
;	COMDAT ?Add@?$CWHArray@PAVCGamePropertyTypeItem@NGamePropertyListManager@@ABQAV12@@@QAEHABQAVCGamePropertyTypeItem@NGamePropertyListManager@@@Z
_TEXT	SEGMENT
_nIndex$ = -8						; size = 4
_this$ = -4						; size = 4
_newElement$ = 8					; size = 4
?Add@?$CWHArray@PAVCGamePropertyTypeItem@NGamePropertyListManager@@ABQAV12@@@QAEHABQAVCGamePropertyTypeItem@NGamePropertyListManager@@@Z PROC ; CWHArray<NGamePropertyListManager::CGamePropertyTypeItem *,NGamePropertyListManager::CGamePropertyTypeItem * const &>::Add, COMDAT
; _this$ = ecx

; 105  : {

  00000	55		 push	 ebp
  00001	8b ec		 mov	 ebp, esp
  00003	83 ec 48	 sub	 esp, 72			; 00000048H
  00006	53		 push	 ebx
  00007	56		 push	 esi
  00008	57		 push	 edi
  00009	89 4d fc	 mov	 DWORD PTR _this$[ebp], ecx

; 106  : 	INT_PTR nIndex=m_nElementCount;

  0000c	8b 45 fc	 mov	 eax, DWORD PTR _this$[ebp]
  0000f	8b 48 10	 mov	 ecx, DWORD PTR [eax+16]
  00012	89 4d f8	 mov	 DWORD PTR _nIndex$[ebp], ecx

; 107  : 	SetAtGrow(nIndex,newElement);

  00015	8b 45 08	 mov	 eax, DWORD PTR _newElement$[ebp]
  00018	50		 push	 eax
  00019	8b 4d f8	 mov	 ecx, DWORD PTR _nIndex$[ebp]
  0001c	51		 push	 ecx
  0001d	8b 4d fc	 mov	 ecx, DWORD PTR _this$[ebp]
  00020	e8 00 00 00 00	 call	 ?SetAtGrow@?$CWHArray@PAVCGamePropertyTypeItem@NGamePropertyListManager@@ABQAV12@@@QAEXHABQAVCGamePropertyTypeItem@NGamePropertyListManager@@@Z ; CWHArray<NGamePropertyListManager::CGamePropertyTypeItem *,NGamePropertyListManager::CGamePropertyTypeItem * const &>::SetAtGrow

; 108  : 	return nIndex;

  00025	8b 45 f8	 mov	 eax, DWORD PTR _nIndex$[ebp]

; 109  : }

  00028	5f		 pop	 edi
  00029	5e		 pop	 esi
  0002a	5b		 pop	 ebx
  0002b	8b e5		 mov	 esp, ebp
  0002d	5d		 pop	 ebp
  0002e	c2 04 00	 ret	 4
?Add@?$CWHArray@PAVCGamePropertyTypeItem@NGamePropertyListManager@@ABQAV12@@@QAEHABQAVCGamePropertyTypeItem@NGamePropertyListManager@@@Z ENDP ; CWHArray<NGamePropertyListManager::CGamePropertyTypeItem *,NGamePropertyListManager::CGamePropertyTypeItem * const &>::Add
_TEXT	ENDS
; Function compile flags: /Odtp /ZI
; File g:\网狐\happygamewh\服务端\系统模块\全局定义\array.h
;	COMDAT ?GetCount@?$CWHArray@PAVCGamePropertyTypeItem@NGamePropertyListManager@@ABQAV12@@@QBEHXZ
_TEXT	SEGMENT
_this$ = -4						; size = 4
?GetCount@?$CWHArray@PAVCGamePropertyTypeItem@NGamePropertyListManager@@ABQAV12@@@QBEHXZ PROC ; CWHArray<NGamePropertyListManager::CGamePropertyTypeItem *,NGamePropertyListManager::CGamePropertyTypeItem * const &>::GetCount, COMDAT
; _this$ = ecx

; 98   : {

  00000	55		 push	 ebp
  00001	8b ec		 mov	 ebp, esp
  00003	83 ec 44	 sub	 esp, 68			; 00000044H
  00006	53		 push	 ebx
  00007	56		 push	 esi
  00008	57		 push	 edi
  00009	89 4d fc	 mov	 DWORD PTR _this$[ebp], ecx

; 99   : 	return m_nElementCount;

  0000c	8b 45 fc	 mov	 eax, DWORD PTR _this$[ebp]
  0000f	8b 40 10	 mov	 eax, DWORD PTR [eax+16]

; 100  : }

  00012	5f		 pop	 edi
  00013	5e		 pop	 esi
  00014	5b		 pop	 ebx
  00015	8b e5		 mov	 esp, ebp
  00017	5d		 pop	 ebp
  00018	c3		 ret	 0
?GetCount@?$CWHArray@PAVCGamePropertyTypeItem@NGamePropertyListManager@@ABQAV12@@@QBEHXZ ENDP ; CWHArray<NGamePropertyListManager::CGamePropertyTypeItem *,NGamePropertyListManager::CGamePropertyTypeItem * const &>::GetCount
_TEXT	ENDS
; Function compile flags: /Odtp /ZI
; File g:\网狐\happygamewh\服务端\系统模块\全局定义\array.h
;	COMDAT ??1?$CWHArray@PAVCGamePropertyTypeItem@NGamePropertyListManager@@ABQAV12@@@UAE@XZ
_TEXT	SEGMENT
$T1 = -76						; size = 4
_i$2 = -8						; size = 4
_this$ = -4						; size = 4
??1?$CWHArray@PAVCGamePropertyTypeItem@NGamePropertyListManager@@ABQAV12@@@UAE@XZ PROC ; CWHArray<NGamePropertyListManager::CGamePropertyTypeItem *,NGamePropertyListManager::CGamePropertyTypeItem * const &>::~CWHArray<NGamePropertyListManager::CGamePropertyTypeItem *,NGamePropertyListManager::CGamePropertyTypeItem * const &>, COMDAT
; _this$ = ecx

; 143  : {

  00000	55		 push	 ebp
  00001	8b ec		 mov	 ebp, esp
  00003	83 ec 4c	 sub	 esp, 76			; 0000004cH
  00006	53		 push	 ebx
  00007	56		 push	 esi
  00008	57		 push	 edi
  00009	89 4d fc	 mov	 DWORD PTR _this$[ebp], ecx
  0000c	8b 45 fc	 mov	 eax, DWORD PTR _this$[ebp]
  0000f	c7 00 00 00 00
	00		 mov	 DWORD PTR [eax], OFFSET ??_7?$CWHArray@PAVCGamePropertyTypeItem@NGamePropertyListManager@@ABQAV12@@@6B@

; 144  : 	if (m_pData!=NULL)

  00015	8b 45 fc	 mov	 eax, DWORD PTR _this$[ebp]
  00018	83 78 04 00	 cmp	 DWORD PTR [eax+4], 0
  0001c	74 3e		 je	 SHORT $LN6@CWHArray

; 145  : 	{
; 146  : 		for (INT_PTR i=0;i<m_nElementCount;i++)	(m_pData+i)->~TYPE();

  0001e	c7 45 f8 00 00
	00 00		 mov	 DWORD PTR _i$2[ebp], 0
  00025	eb 09		 jmp	 SHORT $LN4@CWHArray
$LN2@CWHArray:
  00027	8b 45 f8	 mov	 eax, DWORD PTR _i$2[ebp]
  0002a	83 c0 01	 add	 eax, 1
  0002d	89 45 f8	 mov	 DWORD PTR _i$2[ebp], eax
$LN4@CWHArray:
  00030	8b 45 fc	 mov	 eax, DWORD PTR _this$[ebp]
  00033	8b 4d f8	 mov	 ecx, DWORD PTR _i$2[ebp]
  00036	3b 48 10	 cmp	 ecx, DWORD PTR [eax+16]
  00039	7d 02		 jge	 SHORT $LN3@CWHArray
  0003b	eb ea		 jmp	 SHORT $LN2@CWHArray
$LN3@CWHArray:

; 147  : 		delete [] (BYTE *)m_pData;

  0003d	8b 45 fc	 mov	 eax, DWORD PTR _this$[ebp]
  00040	8b 48 04	 mov	 ecx, DWORD PTR [eax+4]
  00043	89 4d b4	 mov	 DWORD PTR $T1[ebp], ecx
  00046	8b 55 b4	 mov	 edx, DWORD PTR $T1[ebp]
  00049	52		 push	 edx
  0004a	e8 00 00 00 00	 call	 ??_V@YAXPAX@Z		; operator delete[]
  0004f	83 c4 04	 add	 esp, 4

; 148  : 		m_pData=NULL;

  00052	8b 45 fc	 mov	 eax, DWORD PTR _this$[ebp]
  00055	c7 40 04 00 00
	00 00		 mov	 DWORD PTR [eax+4], 0
$LN6@CWHArray:

; 149  : 	}
; 150  : 
; 151  : 	return;
; 152  : }

  0005c	5f		 pop	 edi
  0005d	5e		 pop	 esi
  0005e	5b		 pop	 ebx
  0005f	8b e5		 mov	 esp, ebp
  00061	5d		 pop	 ebp
  00062	c3		 ret	 0
??1?$CWHArray@PAVCGamePropertyTypeItem@NGamePropertyListManager@@ABQAV12@@@UAE@XZ ENDP ; CWHArray<NGamePropertyListManager::CGamePropertyTypeItem *,NGamePropertyListManager::CGamePropertyTypeItem * const &>::~CWHArray<NGamePropertyListManager::CGamePropertyTypeItem *,NGamePropertyListManager::CGamePropertyTypeItem * const &>
_TEXT	ENDS
; Function compile flags: /Odtp /ZI
; File g:\网狐\happygamewh\服务端\系统模块\全局定义\array.h
;	COMDAT ??0?$CWHArray@PAVCGamePropertyTypeItem@NGamePropertyListManager@@ABQAV12@@@QAE@XZ
_TEXT	SEGMENT
_this$ = -4						; size = 4
??0?$CWHArray@PAVCGamePropertyTypeItem@NGamePropertyListManager@@ABQAV12@@@QAE@XZ PROC ; CWHArray<NGamePropertyListManager::CGamePropertyTypeItem *,NGamePropertyListManager::CGamePropertyTypeItem * const &>::CWHArray<NGamePropertyListManager::CGamePropertyTypeItem *,NGamePropertyListManager::CGamePropertyTypeItem * const &>, COMDAT
; _this$ = ecx

; 131  : {

  00000	55		 push	 ebp
  00001	8b ec		 mov	 ebp, esp
  00003	83 ec 44	 sub	 esp, 68			; 00000044H
  00006	53		 push	 ebx
  00007	56		 push	 esi
  00008	57		 push	 edi
  00009	89 4d fc	 mov	 DWORD PTR _this$[ebp], ecx
  0000c	8b 45 fc	 mov	 eax, DWORD PTR _this$[ebp]
  0000f	c7 00 00 00 00
	00		 mov	 DWORD PTR [eax], OFFSET ??_7?$CWHArray@PAVCGamePropertyTypeItem@NGamePropertyListManager@@ABQAV12@@@6B@

; 132  : 	m_pData=NULL;

  00015	8b 45 fc	 mov	 eax, DWORD PTR _this$[ebp]
  00018	c7 40 04 00 00
	00 00		 mov	 DWORD PTR [eax+4], 0

; 133  : 	m_nMaxCount=0;

  0001f	8b 45 fc	 mov	 eax, DWORD PTR _this$[ebp]
  00022	c7 40 08 00 00
	00 00		 mov	 DWORD PTR [eax+8], 0

; 134  : 	m_nGrowCount=0;

  00029	8b 45 fc	 mov	 eax, DWORD PTR _this$[ebp]
  0002c	c7 40 0c 00 00
	00 00		 mov	 DWORD PTR [eax+12], 0

; 135  : 	m_nElementCount=0;

  00033	8b 45 fc	 mov	 eax, DWORD PTR _this$[ebp]
  00036	c7 40 10 00 00
	00 00		 mov	 DWORD PTR [eax+16], 0

; 136  : 
; 137  : 	return;
; 138  : }

  0003d	8b 45 fc	 mov	 eax, DWORD PTR _this$[ebp]
  00040	5f		 pop	 edi
  00041	5e		 pop	 esi
  00042	5b		 pop	 ebx
  00043	8b e5		 mov	 esp, ebp
  00045	5d		 pop	 ebp
  00046	c3		 ret	 0
??0?$CWHArray@PAVCGamePropertyTypeItem@NGamePropertyListManager@@ABQAV12@@@QAE@XZ ENDP ; CWHArray<NGamePropertyListManager::CGamePropertyTypeItem *,NGamePropertyListManager::CGamePropertyTypeItem * const &>::CWHArray<NGamePropertyListManager::CGamePropertyTypeItem *,NGamePropertyListManager::CGamePropertyTypeItem * const &>
_TEXT	ENDS
; Function compile flags: /Odtp /ZI
;	COMDAT ??_G?$CMap@KKPAVCGamePropertySubItem@NGamePropertyListManager@@AAPAV12@@@UAEPAXI@Z
_TEXT	SEGMENT
_this$ = -4						; size = 4
___flags$ = 8						; size = 4
??_G?$CMap@KKPAVCGamePropertySubItem@NGamePropertyListManager@@AAPAV12@@@UAEPAXI@Z PROC ; CMap<unsigned long,unsigned long,NGamePropertyListManager::CGamePropertySubItem *,NGamePropertyListManager::CGamePropertySubItem * &>::`scalar deleting destructor', COMDAT
; _this$ = ecx
  00000	55		 push	 ebp
  00001	8b ec		 mov	 ebp, esp
  00003	83 ec 44	 sub	 esp, 68			; 00000044H
  00006	53		 push	 ebx
  00007	56		 push	 esi
  00008	57		 push	 edi
  00009	89 4d fc	 mov	 DWORD PTR _this$[ebp], ecx
  0000c	8b 4d fc	 mov	 ecx, DWORD PTR _this$[ebp]
  0000f	e8 00 00 00 00	 call	 ??1?$CMap@KKPAVCGamePropertySubItem@NGamePropertyListManager@@AAPAV12@@@UAE@XZ ; CMap<unsigned long,unsigned long,NGamePropertyListManager::CGamePropertySubItem *,NGamePropertyListManager::CGamePropertySubItem * &>::~CMap<unsigned long,unsigned long,NGamePropertyListManager::CGamePropertySubItem *,NGamePropertyListManager::CGamePropertySubItem * &>
  00014	8b 45 08	 mov	 eax, DWORD PTR ___flags$[ebp]
  00017	83 e0 01	 and	 eax, 1
  0001a	74 21		 je	 SHORT $LN2@scalar
  0001c	8b 45 08	 mov	 eax, DWORD PTR ___flags$[ebp]
  0001f	83 e0 04	 and	 eax, 4
  00022	75 0b		 jne	 SHORT $LN3@scalar
  00024	8b 45 fc	 mov	 eax, DWORD PTR _this$[ebp]
  00027	50		 push	 eax
  00028	e8 00 00 00 00	 call	 ??3CObject@@SGXPAX@Z	; CObject::operator delete
  0002d	eb 0e		 jmp	 SHORT $LN2@scalar
$LN3@scalar:
  0002f	6a 1c		 push	 28			; 0000001cH
  00031	8b 45 fc	 mov	 eax, DWORD PTR _this$[ebp]
  00034	50		 push	 eax
  00035	e8 00 00 00 00	 call	 ?__global_delete@@YAXPAXI@Z ; __global_delete
  0003a	83 c4 08	 add	 esp, 8
$LN2@scalar:
  0003d	8b 45 fc	 mov	 eax, DWORD PTR _this$[ebp]
  00040	5f		 pop	 edi
  00041	5e		 pop	 esi
  00042	5b		 pop	 ebx
  00043	8b e5		 mov	 esp, ebp
  00045	5d		 pop	 ebp
  00046	c2 04 00	 ret	 4
??_G?$CMap@KKPAVCGamePropertySubItem@NGamePropertyListManager@@AAPAV12@@@UAEPAXI@Z ENDP ; CMap<unsigned long,unsigned long,NGamePropertyListManager::CGamePropertySubItem *,NGamePropertyListManager::CGamePropertySubItem * &>::`scalar deleting destructor'
_TEXT	ENDS
; Function compile flags: /Odtp /ZI
; File c:\program files (x86)\microsoft visual studio\2017\community\vc\tools\msvc\14.16.27023\atlmfc\include\afxtempl.h
;	COMDAT ?AssertValid@?$CMap@KKPAVCGamePropertySubItem@NGamePropertyListManager@@AAPAV12@@@UBEXXZ
_TEXT	SEGMENT
_this$ = -4						; size = 4
?AssertValid@?$CMap@KKPAVCGamePropertySubItem@NGamePropertyListManager@@AAPAV12@@@UBEXXZ PROC ; CMap<unsigned long,unsigned long,NGamePropertyListManager::CGamePropertySubItem *,NGamePropertyListManager::CGamePropertySubItem * &>::AssertValid, COMDAT
; _this$ = ecx

; 1820 : {

  00000	55		 push	 ebp
  00001	8b ec		 mov	 ebp, esp
  00003	83 ec 44	 sub	 esp, 68			; 00000044H
  00006	53		 push	 ebx
  00007	56		 push	 esi
  00008	57		 push	 edi
  00009	89 4d fc	 mov	 DWORD PTR _this$[ebp], ecx

; 1821 : 	CObject::AssertValid();

  0000c	8b 4d fc	 mov	 ecx, DWORD PTR _this$[ebp]
  0000f	e8 00 00 00 00	 call	 ?AssertValid@CObject@@UBEXXZ ; CObject::AssertValid

; 1822 : 
; 1823 : 	ASSERT(m_nHashTableSize > 0);

  00014	8b 45 fc	 mov	 eax, DWORD PTR _this$[ebp]
  00017	83 78 08 00	 cmp	 DWORD PTR [eax+8], 0
  0001b	77 14		 ja	 SHORT $LN3@AssertVali
  0001d	68 1f 07 00 00	 push	 1823			; 0000071fH
  00022	68 00 00 00 00	 push	 OFFSET ??_C@_0HC@HBCNBCLF@c?3?2program?5files?5?$CIx86?$CJ?2microsof@
  00027	e8 00 00 00 00	 call	 ?AfxAssertFailedLine@@YGHPBDH@Z ; AfxAssertFailedLine
  0002c	85 c0		 test	 eax, eax
  0002e	74 01		 je	 SHORT $LN3@AssertVali
  00030	cc		 int	 3
$LN3@AssertVali:

; 1824 : 	ASSERT(m_nCount == 0 || m_pHashTable != NULL);

  00031	8b 45 fc	 mov	 eax, DWORD PTR _this$[ebp]
  00034	83 78 0c 00	 cmp	 DWORD PTR [eax+12], 0
  00038	74 1d		 je	 SHORT $LN1@AssertVali
  0003a	8b 4d fc	 mov	 ecx, DWORD PTR _this$[ebp]
  0003d	83 79 04 00	 cmp	 DWORD PTR [ecx+4], 0
  00041	75 14		 jne	 SHORT $LN1@AssertVali
  00043	68 20 07 00 00	 push	 1824			; 00000720H
  00048	68 00 00 00 00	 push	 OFFSET ??_C@_0HC@HBCNBCLF@c?3?2program?5files?5?$CIx86?$CJ?2microsof@
  0004d	e8 00 00 00 00	 call	 ?AfxAssertFailedLine@@YGHPBDH@Z ; AfxAssertFailedLine
  00052	85 c0		 test	 eax, eax
  00054	74 01		 je	 SHORT $LN1@AssertVali
  00056	cc		 int	 3
$LN1@AssertVali:

; 1825 : 		// non-empty map should have hash table
; 1826 : }

  00057	5f		 pop	 edi
  00058	5e		 pop	 esi
  00059	5b		 pop	 ebx
  0005a	8b e5		 mov	 esp, ebp
  0005c	5d		 pop	 ebp
  0005d	c3		 ret	 0
?AssertValid@?$CMap@KKPAVCGamePropertySubItem@NGamePropertyListManager@@AAPAV12@@@UBEXXZ ENDP ; CMap<unsigned long,unsigned long,NGamePropertyListManager::CGamePropertySubItem *,NGamePropertyListManager::CGamePropertySubItem * &>::AssertValid
_TEXT	ENDS
; Function compile flags: /Odtp /ZI
; File c:\program files (x86)\microsoft visual studio\2017\community\vc\tools\msvc\14.16.27023\atlmfc\include\afxtempl.h
;	COMDAT ?Dump@?$CMap@KKPAVCGamePropertySubItem@NGamePropertyListManager@@AAPAV12@@@UBEXAAVCDumpContext@@@Z
_TEXT	SEGMENT
_pos$1 = -16						; size = 4
_val$2 = -12						; size = 4
_key$3 = -8						; size = 4
_this$ = -4						; size = 4
_dc$ = 8						; size = 4
?Dump@?$CMap@KKPAVCGamePropertySubItem@NGamePropertyListManager@@AAPAV12@@@UBEXAAVCDumpContext@@@Z PROC ; CMap<unsigned long,unsigned long,NGamePropertyListManager::CGamePropertySubItem *,NGamePropertyListManager::CGamePropertySubItem * &>::Dump, COMDAT
; _this$ = ecx

; 1794 : {

  00000	55		 push	 ebp
  00001	8b ec		 mov	 ebp, esp
  00003	83 ec 50	 sub	 esp, 80			; 00000050H
  00006	53		 push	 ebx
  00007	56		 push	 esi
  00008	57		 push	 edi
  00009	89 4d fc	 mov	 DWORD PTR _this$[ebp], ecx

; 1795 : 	CObject::Dump(dc);

  0000c	8b 45 08	 mov	 eax, DWORD PTR _dc$[ebp]
  0000f	50		 push	 eax
  00010	8b 4d fc	 mov	 ecx, DWORD PTR _this$[ebp]
  00013	e8 00 00 00 00	 call	 ?Dump@CObject@@UBEXAAVCDumpContext@@@Z ; CObject::Dump

; 1796 : 
; 1797 : 	dc << "with " << m_nCount << " elements";

  00018	68 00 00 00 00	 push	 OFFSET ??_C@_09HCLNAIDE@?5elements@
  0001d	8b 45 fc	 mov	 eax, DWORD PTR _this$[ebp]
  00020	8b 48 0c	 mov	 ecx, DWORD PTR [eax+12]
  00023	51		 push	 ecx
  00024	68 00 00 00 00	 push	 OFFSET ??_C@_05PLCFPPOI@with?5@
  00029	8b 4d 08	 mov	 ecx, DWORD PTR _dc$[ebp]
  0002c	e8 00 00 00 00	 call	 ??6CDumpContext@@QAEAAV0@PBD@Z ; CDumpContext::operator<<
  00031	8b c8		 mov	 ecx, eax
  00033	e8 00 00 00 00	 call	 ??6CDumpContext@@QAEAAV0@H@Z ; CDumpContext::operator<<
  00038	8b c8		 mov	 ecx, eax
  0003a	e8 00 00 00 00	 call	 ??6CDumpContext@@QAEAAV0@PBD@Z ; CDumpContext::operator<<

; 1798 : 	if (dc.GetDepth() > 0)

  0003f	8b 4d 08	 mov	 ecx, DWORD PTR _dc$[ebp]
  00042	e8 00 00 00 00	 call	 ?GetDepth@CDumpContext@@QBEHXZ ; CDumpContext::GetDepth
  00047	85 c0		 test	 eax, eax
  00049	7e 71		 jle	 SHORT $LN4@Dump

; 1799 : 	{
; 1800 : 		// Dump in format "[key] -> value"
; 1801 : 		KEY key[1];
; 1802 : 		VALUE val[1];
; 1803 : 
; 1804 : 		POSITION pos = GetStartPosition();

  0004b	8b 4d fc	 mov	 ecx, DWORD PTR _this$[ebp]
  0004e	e8 00 00 00 00	 call	 ?GetStartPosition@?$CMap@KKPAVCGamePropertySubItem@NGamePropertyListManager@@AAPAV12@@@QBEPAU__POSITION@@XZ ; CMap<unsigned long,unsigned long,NGamePropertyListManager::CGamePropertySubItem *,NGamePropertyListManager::CGamePropertySubItem * &>::GetStartPosition
  00053	89 45 f0	 mov	 DWORD PTR _pos$1[ebp], eax
$LN2@Dump:

; 1805 : 		while (pos != NULL)

  00056	83 7d f0 00	 cmp	 DWORD PTR _pos$1[ebp], 0
  0005a	74 60		 je	 SHORT $LN4@Dump

; 1806 : 		{
; 1807 : 			GetNextAssoc(pos, key[0], val[0]);

  0005c	b8 04 00 00 00	 mov	 eax, 4
  00061	6b c8 00	 imul	 ecx, eax, 0
  00064	8d 54 0d f4	 lea	 edx, DWORD PTR _val$2[ebp+ecx]
  00068	52		 push	 edx
  00069	b8 04 00 00 00	 mov	 eax, 4
  0006e	6b c8 00	 imul	 ecx, eax, 0
  00071	8d 54 0d f8	 lea	 edx, DWORD PTR _key$3[ebp+ecx]
  00075	52		 push	 edx
  00076	8d 45 f0	 lea	 eax, DWORD PTR _pos$1[ebp]
  00079	50		 push	 eax
  0007a	8b 4d fc	 mov	 ecx, DWORD PTR _this$[ebp]
  0007d	e8 00 00 00 00	 call	 ?GetNextAssoc@?$CMap@KKPAVCGamePropertySubItem@NGamePropertyListManager@@AAPAV12@@@QBEXAAPAU__POSITION@@AAKAAPAVCGamePropertySubItem@NGamePropertyListManager@@@Z ; CMap<unsigned long,unsigned long,NGamePropertyListManager::CGamePropertySubItem *,NGamePropertyListManager::CGamePropertySubItem * &>::GetNextAssoc

; 1808 : 			dc << "\n\t[";

  00082	68 00 00 00 00	 push	 OFFSET ??_C@_03OHJIHPJH@?6?7?$FL@
  00087	8b 4d 08	 mov	 ecx, DWORD PTR _dc$[ebp]
  0008a	e8 00 00 00 00	 call	 ??6CDumpContext@@QAEAAV0@PBD@Z ; CDumpContext::operator<<

; 1809 : 			DumpElements<KEY>(dc, key, 1);

  0008f	6a 01		 push	 1
  00091	8d 45 f8	 lea	 eax, DWORD PTR _key$3[ebp]
  00094	50		 push	 eax
  00095	8b 4d 08	 mov	 ecx, DWORD PTR _dc$[ebp]
  00098	51		 push	 ecx
  00099	e8 00 00 00 00	 call	 ??$DumpElements@K@@YGXAAVCDumpContext@@PBKH@Z ; DumpElements<unsigned long>

; 1810 : 			dc << "] = ";

  0009e	68 00 00 00 00	 push	 OFFSET ??_C@_04OAFLPOMH@?$FN?5?$DN?5@
  000a3	8b 4d 08	 mov	 ecx, DWORD PTR _dc$[ebp]
  000a6	e8 00 00 00 00	 call	 ??6CDumpContext@@QAEAAV0@PBD@Z ; CDumpContext::operator<<

; 1811 : 			DumpElements<VALUE>(dc, val, 1);

  000ab	6a 01		 push	 1
  000ad	8d 45 f4	 lea	 eax, DWORD PTR _val$2[ebp]
  000b0	50		 push	 eax
  000b1	8b 4d 08	 mov	 ecx, DWORD PTR _dc$[ebp]
  000b4	51		 push	 ecx
  000b5	e8 00 00 00 00	 call	 ??$DumpElements@PAVCGamePropertySubItem@NGamePropertyListManager@@@@YGXAAVCDumpContext@@PBQAVCGamePropertySubItem@NGamePropertyListManager@@H@Z ; DumpElements<NGamePropertyListManager::CGamePropertySubItem *>

; 1812 : 		}

  000ba	eb 9a		 jmp	 SHORT $LN2@Dump
$LN4@Dump:

; 1813 : 	}
; 1814 : 
; 1815 : 	dc << "\n";

  000bc	68 00 00 00 00	 push	 OFFSET ??_C@_01EEMJAFIK@?6@
  000c1	8b 4d 08	 mov	 ecx, DWORD PTR _dc$[ebp]
  000c4	e8 00 00 00 00	 call	 ??6CDumpContext@@QAEAAV0@PBD@Z ; CDumpContext::operator<<

; 1816 : }

  000c9	5f		 pop	 edi
  000ca	5e		 pop	 esi
  000cb	5b		 pop	 ebx
  000cc	8b e5		 mov	 esp, ebp
  000ce	5d		 pop	 ebp
  000cf	c2 04 00	 ret	 4
?Dump@?$CMap@KKPAVCGamePropertySubItem@NGamePropertyListManager@@AAPAV12@@@UBEXAAVCDumpContext@@@Z ENDP ; CMap<unsigned long,unsigned long,NGamePropertyListManager::CGamePropertySubItem *,NGamePropertyListManager::CGamePropertySubItem * &>::Dump
_TEXT	ENDS
; Function compile flags: /Odtp /ZI
; File c:\program files (x86)\microsoft visual studio\2017\community\vc\tools\msvc\14.16.27023\atlmfc\include\afxtempl.h
;	COMDAT ?Serialize@?$CMap@KKPAVCGamePropertySubItem@NGamePropertyListManager@@AAPAV12@@@UAEXAAVCArchive@@@Z
_TEXT	SEGMENT
tv154 = -100						; size = 4
_newValue$1 = -32					; size = 4
_newKey$2 = -28						; size = 4
_nNewCount$3 = -24					; size = 4
_pValue$4 = -20						; size = 4
_pKey$5 = -16						; size = 4
_pAssoc$6 = -12						; size = 4
_nHash$7 = -8						; size = 4
_this$ = -4						; size = 4
_ar$ = 8						; size = 4
?Serialize@?$CMap@KKPAVCGamePropertySubItem@NGamePropertyListManager@@AAPAV12@@@UAEXAAVCArchive@@@Z PROC ; CMap<unsigned long,unsigned long,NGamePropertyListManager::CGamePropertySubItem *,NGamePropertyListManager::CGamePropertySubItem * &>::Serialize, COMDAT
; _this$ = ecx

; 1743 : {

  00000	55		 push	 ebp
  00001	8b ec		 mov	 ebp, esp
  00003	83 ec 64	 sub	 esp, 100		; 00000064H
  00006	53		 push	 ebx
  00007	56		 push	 esi
  00008	57		 push	 edi
  00009	89 4d fc	 mov	 DWORD PTR _this$[ebp], ecx

; 1744 : 	ASSERT_VALID(this);

  0000c	68 d0 06 00 00	 push	 1744			; 000006d0H
  00011	68 00 00 00 00	 push	 OFFSET ??_C@_0HC@HBCNBCLF@c?3?2program?5files?5?$CIx86?$CJ?2microsof@
  00016	8b 45 fc	 mov	 eax, DWORD PTR _this$[ebp]
  00019	50		 push	 eax
  0001a	e8 00 00 00 00	 call	 ?AfxAssertValidObject@@YGXPBVCObject@@PBDH@Z ; AfxAssertValidObject

; 1745 : 
; 1746 : 	CObject::Serialize(ar);

  0001f	8b 45 08	 mov	 eax, DWORD PTR _ar$[ebp]
  00022	50		 push	 eax
  00023	8b 4d fc	 mov	 ecx, DWORD PTR _this$[ebp]
  00026	e8 00 00 00 00	 call	 ?Serialize@CObject@@UAEXAAVCArchive@@@Z ; CObject::Serialize

; 1747 : 
; 1748 : 	if (ar.IsStoring())

  0002b	8b 4d 08	 mov	 ecx, DWORD PTR _ar$[ebp]
  0002e	e8 00 00 00 00	 call	 ?IsStoring@CArchive@@QBEHXZ ; CArchive::IsStoring
  00033	85 c0		 test	 eax, eax
  00035	0f 84 b3 00 00
	00		 je	 $LN10@Serialize

; 1749 : 	{
; 1750 : 		ar.WriteCount(m_nCount);

  0003b	8b 45 fc	 mov	 eax, DWORD PTR _this$[ebp]
  0003e	8b 48 0c	 mov	 ecx, DWORD PTR [eax+12]
  00041	51		 push	 ecx
  00042	8b 4d 08	 mov	 ecx, DWORD PTR _ar$[ebp]
  00045	e8 00 00 00 00	 call	 ?WriteCount@CArchive@@QAEXK@Z ; CArchive::WriteCount

; 1751 : 		if (m_nCount == 0)

  0004a	8b 45 fc	 mov	 eax, DWORD PTR _this$[ebp]
  0004d	83 78 0c 00	 cmp	 DWORD PTR [eax+12], 0
  00051	75 05		 jne	 SHORT $LN12@Serialize

; 1752 : 			return;  // nothing more to do

  00053	e9 f8 00 00 00	 jmp	 $LN1@Serialize
$LN12@Serialize:

; 1753 : 
; 1754 : 		ASSERT(m_pHashTable != NULL);

  00058	8b 45 fc	 mov	 eax, DWORD PTR _this$[ebp]
  0005b	83 78 04 00	 cmp	 DWORD PTR [eax+4], 0
  0005f	75 14		 jne	 SHORT $LN15@Serialize
  00061	68 da 06 00 00	 push	 1754			; 000006daH
  00066	68 00 00 00 00	 push	 OFFSET ??_C@_0HC@HBCNBCLF@c?3?2program?5files?5?$CIx86?$CJ?2microsof@
  0006b	e8 00 00 00 00	 call	 ?AfxAssertFailedLine@@YGHPBDH@Z ; AfxAssertFailedLine
  00070	85 c0		 test	 eax, eax
  00072	74 01		 je	 SHORT $LN15@Serialize
  00074	cc		 int	 3
$LN15@Serialize:

; 1755 : 		if (m_pHashTable != NULL)

  00075	8b 45 fc	 mov	 eax, DWORD PTR _this$[ebp]
  00078	83 78 04 00	 cmp	 DWORD PTR [eax+4], 0
  0007c	74 6e		 je	 SHORT $LN13@Serialize

; 1756 : 		{
; 1757 : 			for (UINT nHash = 0; nHash < m_nHashTableSize; nHash++)

  0007e	c7 45 f8 00 00
	00 00		 mov	 DWORD PTR _nHash$7[ebp], 0
  00085	eb 09		 jmp	 SHORT $LN4@Serialize
$LN2@Serialize:
  00087	8b 45 f8	 mov	 eax, DWORD PTR _nHash$7[ebp]
  0008a	83 c0 01	 add	 eax, 1
  0008d	89 45 f8	 mov	 DWORD PTR _nHash$7[ebp], eax
$LN4@Serialize:
  00090	8b 45 fc	 mov	 eax, DWORD PTR _this$[ebp]
  00093	8b 4d f8	 mov	 ecx, DWORD PTR _nHash$7[ebp]
  00096	3b 48 08	 cmp	 ecx, DWORD PTR [eax+8]
  00099	73 51		 jae	 SHORT $LN13@Serialize

; 1758 : 			{
; 1759 : 				CAssoc* pAssoc;
; 1760 : 				for (pAssoc = m_pHashTable[nHash]; pAssoc != NULL; pAssoc = pAssoc->pNext)

  0009b	8b 45 fc	 mov	 eax, DWORD PTR _this$[ebp]
  0009e	8b 48 04	 mov	 ecx, DWORD PTR [eax+4]
  000a1	8b 55 f8	 mov	 edx, DWORD PTR _nHash$7[ebp]
  000a4	8b 04 91	 mov	 eax, DWORD PTR [ecx+edx*4]
  000a7	89 45 f4	 mov	 DWORD PTR _pAssoc$6[ebp], eax
  000aa	eb 09		 jmp	 SHORT $LN7@Serialize
$LN5@Serialize:
  000ac	8b 45 f4	 mov	 eax, DWORD PTR _pAssoc$6[ebp]
  000af	8b 48 08	 mov	 ecx, DWORD PTR [eax+8]
  000b2	89 4d f4	 mov	 DWORD PTR _pAssoc$6[ebp], ecx
$LN7@Serialize:
  000b5	83 7d f4 00	 cmp	 DWORD PTR _pAssoc$6[ebp], 0
  000b9	74 2f		 je	 SHORT $LN6@Serialize

; 1761 : 				{
; 1762 : 					KEY* pKey;
; 1763 : 					VALUE* pValue;
; 1764 : 					/*
; 1765 : 					* in some cases the & operator might be overloaded, and we cannot use it to
; 1766 : 					* obtain the address of a given object.  We then use the following trick to
; 1767 : 					* get the address
; 1768 : 					*/
; 1769 : 					pKey = reinterpret_cast< KEY* >( &reinterpret_cast< int& >( const_cast< KEY& > ( static_cast< const KEY& >( pAssoc->key ) ) ) );

  000bb	8b 45 f4	 mov	 eax, DWORD PTR _pAssoc$6[ebp]
  000be	89 45 f0	 mov	 DWORD PTR _pKey$5[ebp], eax

; 1770 : 					pValue = reinterpret_cast< VALUE* >( &reinterpret_cast< int& >( static_cast< VALUE& >( pAssoc->value ) ) );

  000c1	8b 45 f4	 mov	 eax, DWORD PTR _pAssoc$6[ebp]
  000c4	83 c0 04	 add	 eax, 4
  000c7	89 45 ec	 mov	 DWORD PTR _pValue$4[ebp], eax

; 1771 : 					SerializeElements<KEY>(ar, pKey, 1);

  000ca	6a 01		 push	 1
  000cc	8b 45 f0	 mov	 eax, DWORD PTR _pKey$5[ebp]
  000cf	50		 push	 eax
  000d0	8b 4d 08	 mov	 ecx, DWORD PTR _ar$[ebp]
  000d3	51		 push	 ecx
  000d4	e8 00 00 00 00	 call	 ??$SerializeElements@K@@YGXAAVCArchive@@PAKH@Z ; SerializeElements<unsigned long>

; 1772 : 					SerializeElements<VALUE>(ar, pValue, 1);

  000d9	6a 01		 push	 1
  000db	8b 45 ec	 mov	 eax, DWORD PTR _pValue$4[ebp]
  000de	50		 push	 eax
  000df	8b 4d 08	 mov	 ecx, DWORD PTR _ar$[ebp]
  000e2	51		 push	 ecx
  000e3	e8 00 00 00 00	 call	 ??$SerializeElements@PAVCGamePropertySubItem@NGamePropertyListManager@@@@YGXAAVCArchive@@PAPAVCGamePropertySubItem@NGamePropertyListManager@@H@Z ; SerializeElements<NGamePropertyListManager::CGamePropertySubItem *>

; 1773 : 				}

  000e8	eb c2		 jmp	 SHORT $LN5@Serialize
$LN6@Serialize:

; 1774 : 			}

  000ea	eb 9b		 jmp	 SHORT $LN2@Serialize
$LN13@Serialize:

; 1775 : 		}
; 1776 : 	}
; 1777 : 	else

  000ec	eb 62		 jmp	 SHORT $LN1@Serialize
$LN10@Serialize:

; 1778 : 	{
; 1779 : 		DWORD_PTR nNewCount = ar.ReadCount();

  000ee	8b 4d 08	 mov	 ecx, DWORD PTR _ar$[ebp]
  000f1	e8 00 00 00 00	 call	 ?ReadCount@CArchive@@QAEKXZ ; CArchive::ReadCount
  000f6	89 45 e8	 mov	 DWORD PTR _nNewCount$3[ebp], eax
$LN8@Serialize:

; 1780 : 		while (nNewCount--)

  000f9	8b 45 e8	 mov	 eax, DWORD PTR _nNewCount$3[ebp]
  000fc	89 45 9c	 mov	 DWORD PTR tv154[ebp], eax
  000ff	8b 4d e8	 mov	 ecx, DWORD PTR _nNewCount$3[ebp]
  00102	83 e9 01	 sub	 ecx, 1
  00105	89 4d e8	 mov	 DWORD PTR _nNewCount$3[ebp], ecx
  00108	83 7d 9c 00	 cmp	 DWORD PTR tv154[ebp], 0
  0010c	74 42		 je	 SHORT $LN1@Serialize

; 1781 : 		{
; 1782 : 			KEY newKey[1];
; 1783 : 			VALUE newValue[1];
; 1784 : 			SerializeElements<KEY>(ar, newKey, 1);

  0010e	6a 01		 push	 1
  00110	8d 45 e4	 lea	 eax, DWORD PTR _newKey$2[ebp]
  00113	50		 push	 eax
  00114	8b 4d 08	 mov	 ecx, DWORD PTR _ar$[ebp]
  00117	51		 push	 ecx
  00118	e8 00 00 00 00	 call	 ??$SerializeElements@K@@YGXAAVCArchive@@PAKH@Z ; SerializeElements<unsigned long>

; 1785 : 			SerializeElements<VALUE>(ar, newValue, 1);

  0011d	6a 01		 push	 1
  0011f	8d 45 e0	 lea	 eax, DWORD PTR _newValue$1[ebp]
  00122	50		 push	 eax
  00123	8b 4d 08	 mov	 ecx, DWORD PTR _ar$[ebp]
  00126	51		 push	 ecx
  00127	e8 00 00 00 00	 call	 ??$SerializeElements@PAVCGamePropertySubItem@NGamePropertyListManager@@@@YGXAAVCArchive@@PAPAVCGamePropertySubItem@NGamePropertyListManager@@H@Z ; SerializeElements<NGamePropertyListManager::CGamePropertySubItem *>

; 1786 : 			SetAt(newKey[0], newValue[0]);

  0012c	b8 04 00 00 00	 mov	 eax, 4
  00131	6b c8 00	 imul	 ecx, eax, 0
  00134	8d 54 0d e0	 lea	 edx, DWORD PTR _newValue$1[ebp+ecx]
  00138	52		 push	 edx
  00139	b8 04 00 00 00	 mov	 eax, 4
  0013e	6b c8 00	 imul	 ecx, eax, 0
  00141	8b 54 0d e4	 mov	 edx, DWORD PTR _newKey$2[ebp+ecx]
  00145	52		 push	 edx
  00146	8b 4d fc	 mov	 ecx, DWORD PTR _this$[ebp]
  00149	e8 00 00 00 00	 call	 ?SetAt@?$CMap@KKPAVCGamePropertySubItem@NGamePropertyListManager@@AAPAV12@@@QAEXKAAPAVCGamePropertySubItem@NGamePropertyListManager@@@Z ; CMap<unsigned long,unsigned long,NGamePropertyListManager::CGamePropertySubItem *,NGamePropertyListManager::CGamePropertySubItem * &>::SetAt

; 1787 : 		}

  0014e	eb a9		 jmp	 SHORT $LN8@Serialize
$LN1@Serialize:

; 1788 : 	}
; 1789 : }

  00150	5f		 pop	 edi
  00151	5e		 pop	 esi
  00152	5b		 pop	 ebx
  00153	8b e5		 mov	 esp, ebp
  00155	5d		 pop	 ebp
  00156	c2 04 00	 ret	 4
?Serialize@?$CMap@KKPAVCGamePropertySubItem@NGamePropertyListManager@@AAPAV12@@@UAEXAAVCArchive@@@Z ENDP ; CMap<unsigned long,unsigned long,NGamePropertyListManager::CGamePropertySubItem *,NGamePropertyListManager::CGamePropertySubItem * &>::Serialize
_TEXT	ENDS
; Function compile flags: /Odtp /ZI
; File c:\program files (x86)\microsoft visual studio\2017\community\vc\tools\msvc\14.16.27023\atlmfc\include\afxtempl.h
;	COMDAT ??1?$CMap@KKPAVCGamePropertySubItem@NGamePropertyListManager@@AAPAV12@@@UAE@XZ
_TEXT	SEGMENT
_this$ = -16						; size = 4
__$EHRec$ = -12						; size = 12
??1?$CMap@KKPAVCGamePropertySubItem@NGamePropertyListManager@@AAPAV12@@@UAE@XZ PROC ; CMap<unsigned long,unsigned long,NGamePropertyListManager::CGamePropertySubItem *,NGamePropertyListManager::CGamePropertySubItem * &>::~CMap<unsigned long,unsigned long,NGamePropertyListManager::CGamePropertySubItem *,NGamePropertyListManager::CGamePropertySubItem * &>, COMDAT
; _this$ = ecx

; 1472 : {

  00000	55		 push	 ebp
  00001	8b ec		 mov	 ebp, esp
  00003	6a ff		 push	 -1
  00005	68 00 00 00 00	 push	 __ehhandler$??1?$CMap@KKPAVCGamePropertySubItem@NGamePropertyListManager@@AAPAV12@@@UAE@XZ
  0000a	64 a1 00 00 00
	00		 mov	 eax, DWORD PTR fs:0
  00010	50		 push	 eax
  00011	83 ec 44	 sub	 esp, 68			; 00000044H
  00014	53		 push	 ebx
  00015	56		 push	 esi
  00016	57		 push	 edi
  00017	a1 00 00 00 00	 mov	 eax, DWORD PTR ___security_cookie
  0001c	33 c5		 xor	 eax, ebp
  0001e	50		 push	 eax
  0001f	8d 45 f4	 lea	 eax, DWORD PTR __$EHRec$[ebp]
  00022	64 a3 00 00 00
	00		 mov	 DWORD PTR fs:0, eax
  00028	89 4d f0	 mov	 DWORD PTR _this$[ebp], ecx
  0002b	8b 45 f0	 mov	 eax, DWORD PTR _this$[ebp]
  0002e	c7 00 00 00 00
	00		 mov	 DWORD PTR [eax], OFFSET ??_7?$CMap@KKPAVCGamePropertySubItem@NGamePropertyListManager@@AAPAV12@@@6B@

; 1473 : 	RemoveAll();

  00034	8b 4d f0	 mov	 ecx, DWORD PTR _this$[ebp]
  00037	e8 00 00 00 00	 call	 ?RemoveAll@?$CMap@KKPAVCGamePropertySubItem@NGamePropertyListManager@@AAPAV12@@@QAEXXZ ; CMap<unsigned long,unsigned long,NGamePropertyListManager::CGamePropertySubItem *,NGamePropertyListManager::CGamePropertySubItem * &>::RemoveAll

; 1474 : 	ASSERT(m_nCount == 0);

  0003c	8b 45 f0	 mov	 eax, DWORD PTR _this$[ebp]
  0003f	83 78 0c 00	 cmp	 DWORD PTR [eax+12], 0
  00043	74 14		 je	 SHORT $LN1@CMap
  00045	68 c2 05 00 00	 push	 1474			; 000005c2H
  0004a	68 00 00 00 00	 push	 OFFSET ??_C@_0HC@HBCNBCLF@c?3?2program?5files?5?$CIx86?$CJ?2microsof@
  0004f	e8 00 00 00 00	 call	 ?AfxAssertFailedLine@@YGHPBDH@Z ; AfxAssertFailedLine
  00054	85 c0		 test	 eax, eax
  00056	74 01		 je	 SHORT $LN1@CMap
  00058	cc		 int	 3
$LN1@CMap:

; 1475 : }

  00059	8b 4d f0	 mov	 ecx, DWORD PTR _this$[ebp]
  0005c	e8 00 00 00 00	 call	 ??1CObject@@UAE@XZ	; CObject::~CObject
  00061	8b 4d f4	 mov	 ecx, DWORD PTR __$EHRec$[ebp]
  00064	64 89 0d 00 00
	00 00		 mov	 DWORD PTR fs:0, ecx
  0006b	59		 pop	 ecx
  0006c	5f		 pop	 edi
  0006d	5e		 pop	 esi
  0006e	5b		 pop	 ebx
  0006f	8b e5		 mov	 esp, ebp
  00071	5d		 pop	 ebp
  00072	c3		 ret	 0
_TEXT	ENDS
;	COMDAT text$x
text$x	SEGMENT
__ehhandler$??1?$CMap@KKPAVCGamePropertySubItem@NGamePropertyListManager@@AAPAV12@@@UAE@XZ:
  00000	8b 54 24 08	 mov	 edx, DWORD PTR [esp+8]
  00004	8d 42 0c	 lea	 eax, DWORD PTR [edx+12]
  00007	8b 4a ac	 mov	 ecx, DWORD PTR [edx-84]
  0000a	33 c8		 xor	 ecx, eax
  0000c	e8 00 00 00 00	 call	 @__security_check_cookie@4
  00011	b8 00 00 00 00	 mov	 eax, OFFSET __ehfuncinfo$??1?$CMap@KKPAVCGamePropertySubItem@NGamePropertyListManager@@AAPAV12@@@UAE@XZ
  00016	e9 00 00 00 00	 jmp	 ___CxxFrameHandler3
text$x	ENDS
??1?$CMap@KKPAVCGamePropertySubItem@NGamePropertyListManager@@AAPAV12@@@UAE@XZ ENDP ; CMap<unsigned long,unsigned long,NGamePropertyListManager::CGamePropertySubItem *,NGamePropertyListManager::CGamePropertySubItem * &>::~CMap<unsigned long,unsigned long,NGamePropertyListManager::CGamePropertySubItem *,NGamePropertyListManager::CGamePropertySubItem * &>
; Function compile flags: /Odtp /ZI
; File c:\program files (x86)\microsoft visual studio\2017\community\vc\tools\msvc\14.16.27023\atlmfc\include\afxtempl.h
;	COMDAT ?GetAssocAt@?$CMap@KKPAVCGamePropertySubItem@NGamePropertyListManager@@AAPAV12@@@IBEPAVCAssoc@1@KAAI0@Z
_TEXT	SEGMENT
_pAssoc$ = -8						; size = 4
_this$ = -4						; size = 4
_key$ = 8						; size = 4
_nHashBucket$ = 12					; size = 4
_nHashValue$ = 16					; size = 4
?GetAssocAt@?$CMap@KKPAVCGamePropertySubItem@NGamePropertyListManager@@AAPAV12@@@IBEPAVCAssoc@1@KAAI0@Z PROC ; CMap<unsigned long,unsigned long,NGamePropertyListManager::CGamePropertySubItem *,NGamePropertyListManager::CGamePropertySubItem * &>::GetAssocAt, COMDAT
; _this$ = ecx

; 1532 : {

  00000	55		 push	 ebp
  00001	8b ec		 mov	 ebp, esp
  00003	83 ec 48	 sub	 esp, 72			; 00000048H
  00006	53		 push	 ebx
  00007	56		 push	 esi
  00008	57		 push	 edi
  00009	89 4d fc	 mov	 DWORD PTR _this$[ebp], ecx

; 1533 : 	nHashValue = HashKey<ARG_KEY>(key);

  0000c	8b 45 08	 mov	 eax, DWORD PTR _key$[ebp]
  0000f	50		 push	 eax
  00010	e8 00 00 00 00	 call	 ??$HashKey@K@@YGIK@Z	; HashKey<unsigned long>
  00015	8b 4d 10	 mov	 ecx, DWORD PTR _nHashValue$[ebp]
  00018	89 01		 mov	 DWORD PTR [ecx], eax

; 1534 : 	nHashBucket = nHashValue % m_nHashTableSize;

  0001a	8b 45 10	 mov	 eax, DWORD PTR _nHashValue$[ebp]
  0001d	8b 4d fc	 mov	 ecx, DWORD PTR _this$[ebp]
  00020	8b 00		 mov	 eax, DWORD PTR [eax]
  00022	33 d2		 xor	 edx, edx
  00024	f7 71 08	 div	 DWORD PTR [ecx+8]
  00027	8b 45 0c	 mov	 eax, DWORD PTR _nHashBucket$[ebp]
  0002a	89 10		 mov	 DWORD PTR [eax], edx

; 1535 : 
; 1536 : 	if (m_pHashTable == NULL)

  0002c	8b 45 fc	 mov	 eax, DWORD PTR _this$[ebp]
  0002f	83 78 04 00	 cmp	 DWORD PTR [eax+4], 0
  00033	75 04		 jne	 SHORT $LN5@GetAssocAt

; 1537 : 		return NULL;

  00035	33 c0		 xor	 eax, eax
  00037	eb 49		 jmp	 SHORT $LN1@GetAssocAt
$LN5@GetAssocAt:

; 1538 : 
; 1539 : 	// see if it exists
; 1540 : 	CAssoc* pAssoc;
; 1541 : 	for (pAssoc = m_pHashTable[nHashBucket]; pAssoc != NULL; pAssoc = pAssoc->pNext)

  00039	8b 45 0c	 mov	 eax, DWORD PTR _nHashBucket$[ebp]
  0003c	8b 08		 mov	 ecx, DWORD PTR [eax]
  0003e	8b 55 fc	 mov	 edx, DWORD PTR _this$[ebp]
  00041	8b 42 04	 mov	 eax, DWORD PTR [edx+4]
  00044	8b 0c 88	 mov	 ecx, DWORD PTR [eax+ecx*4]
  00047	89 4d f8	 mov	 DWORD PTR _pAssoc$[ebp], ecx
  0004a	eb 09		 jmp	 SHORT $LN4@GetAssocAt
$LN2@GetAssocAt:
  0004c	8b 45 f8	 mov	 eax, DWORD PTR _pAssoc$[ebp]
  0004f	8b 48 08	 mov	 ecx, DWORD PTR [eax+8]
  00052	89 4d f8	 mov	 DWORD PTR _pAssoc$[ebp], ecx
$LN4@GetAssocAt:
  00055	83 7d f8 00	 cmp	 DWORD PTR _pAssoc$[ebp], 0
  00059	74 25		 je	 SHORT $LN3@GetAssocAt

; 1542 : 	{
; 1543 : 		if (pAssoc->nHashValue == nHashValue && CompareElements(&pAssoc->key, &key))

  0005b	8b 45 f8	 mov	 eax, DWORD PTR _pAssoc$[ebp]
  0005e	8b 4d 10	 mov	 ecx, DWORD PTR _nHashValue$[ebp]
  00061	8b 50 0c	 mov	 edx, DWORD PTR [eax+12]
  00064	3b 11		 cmp	 edx, DWORD PTR [ecx]
  00066	75 16		 jne	 SHORT $LN6@GetAssocAt
  00068	8d 45 08	 lea	 eax, DWORD PTR _key$[ebp]
  0006b	50		 push	 eax
  0006c	8b 4d f8	 mov	 ecx, DWORD PTR _pAssoc$[ebp]
  0006f	51		 push	 ecx
  00070	e8 00 00 00 00	 call	 ??$CompareElements@KK@@YGHPBK0@Z ; CompareElements<unsigned long,unsigned long>
  00075	85 c0		 test	 eax, eax
  00077	74 05		 je	 SHORT $LN6@GetAssocAt

; 1544 : 			return pAssoc;

  00079	8b 45 f8	 mov	 eax, DWORD PTR _pAssoc$[ebp]
  0007c	eb 04		 jmp	 SHORT $LN1@GetAssocAt
$LN6@GetAssocAt:

; 1545 : 	}

  0007e	eb cc		 jmp	 SHORT $LN2@GetAssocAt
$LN3@GetAssocAt:

; 1546 : 	return NULL;

  00080	33 c0		 xor	 eax, eax
$LN1@GetAssocAt:

; 1547 : }

  00082	5f		 pop	 edi
  00083	5e		 pop	 esi
  00084	5b		 pop	 ebx
  00085	8b e5		 mov	 esp, ebp
  00087	5d		 pop	 ebp
  00088	c2 0c 00	 ret	 12			; 0000000cH
?GetAssocAt@?$CMap@KKPAVCGamePropertySubItem@NGamePropertyListManager@@AAPAV12@@@IBEPAVCAssoc@1@KAAI0@Z ENDP ; CMap<unsigned long,unsigned long,NGamePropertyListManager::CGamePropertySubItem *,NGamePropertyListManager::CGamePropertySubItem * &>::GetAssocAt
_TEXT	ENDS
; Function compile flags: /Odtp /ZI
; File c:\program files (x86)\microsoft visual studio\2017\community\vc\tools\msvc\14.16.27023\atlmfc\include\afxtempl.h
;	COMDAT ?FreeAssoc@?$CMap@KKPAVCGamePropertySubItem@NGamePropertyListManager@@AAPAV12@@@IAEXPAVCAssoc@1@@Z
_TEXT	SEGMENT
_this$ = -4						; size = 4
_pAssoc$ = 8						; size = 4
?FreeAssoc@?$CMap@KKPAVCGamePropertySubItem@NGamePropertyListManager@@AAPAV12@@@IAEXPAVCAssoc@1@@Z PROC ; CMap<unsigned long,unsigned long,NGamePropertyListManager::CGamePropertySubItem *,NGamePropertyListManager::CGamePropertySubItem * &>::FreeAssoc, COMDAT
; _this$ = ecx

; 1516 : {

  00000	55		 push	 ebp
  00001	8b ec		 mov	 ebp, esp
  00003	83 ec 44	 sub	 esp, 68			; 00000044H
  00006	53		 push	 ebx
  00007	56		 push	 esi
  00008	57		 push	 edi
  00009	89 4d fc	 mov	 DWORD PTR _this$[ebp], ecx

; 1517 : 	pAssoc->CAssoc::~CAssoc();
; 1518 : 	pAssoc->pNext = m_pFreeList;

  0000c	8b 45 08	 mov	 eax, DWORD PTR _pAssoc$[ebp]
  0000f	8b 4d fc	 mov	 ecx, DWORD PTR _this$[ebp]
  00012	8b 51 10	 mov	 edx, DWORD PTR [ecx+16]
  00015	89 50 08	 mov	 DWORD PTR [eax+8], edx

; 1519 : 	m_pFreeList = pAssoc;

  00018	8b 45 fc	 mov	 eax, DWORD PTR _this$[ebp]
  0001b	8b 4d 08	 mov	 ecx, DWORD PTR _pAssoc$[ebp]
  0001e	89 48 10	 mov	 DWORD PTR [eax+16], ecx

; 1520 : 	m_nCount--;

  00021	8b 45 fc	 mov	 eax, DWORD PTR _this$[ebp]
  00024	8b 48 0c	 mov	 ecx, DWORD PTR [eax+12]
  00027	83 e9 01	 sub	 ecx, 1
  0002a	8b 55 fc	 mov	 edx, DWORD PTR _this$[ebp]
  0002d	89 4a 0c	 mov	 DWORD PTR [edx+12], ecx

; 1521 : 	ASSERT(m_nCount >= 0);  // make sure we don't underflow

  00030	8b 45 fc	 mov	 eax, DWORD PTR _this$[ebp]
  00033	83 78 0c 00	 cmp	 DWORD PTR [eax+12], 0
  00037	7d 14		 jge	 SHORT $LN4@FreeAssoc
  00039	68 f1 05 00 00	 push	 1521			; 000005f1H
  0003e	68 00 00 00 00	 push	 OFFSET ??_C@_0HC@HBCNBCLF@c?3?2program?5files?5?$CIx86?$CJ?2microsof@
  00043	e8 00 00 00 00	 call	 ?AfxAssertFailedLine@@YGHPBDH@Z ; AfxAssertFailedLine
  00048	85 c0		 test	 eax, eax
  0004a	74 01		 je	 SHORT $LN4@FreeAssoc
  0004c	cc		 int	 3
$LN4@FreeAssoc:

; 1522 : 
; 1523 : 	// if no more elements, cleanup completely
; 1524 : 	if (m_nCount == 0)

  0004d	8b 45 fc	 mov	 eax, DWORD PTR _this$[ebp]
  00050	83 78 0c 00	 cmp	 DWORD PTR [eax+12], 0
  00054	75 08		 jne	 SHORT $LN1@FreeAssoc

; 1525 : 		RemoveAll();

  00056	8b 4d fc	 mov	 ecx, DWORD PTR _this$[ebp]
  00059	e8 00 00 00 00	 call	 ?RemoveAll@?$CMap@KKPAVCGamePropertySubItem@NGamePropertyListManager@@AAPAV12@@@QAEXXZ ; CMap<unsigned long,unsigned long,NGamePropertyListManager::CGamePropertySubItem *,NGamePropertyListManager::CGamePropertySubItem * &>::RemoveAll
$LN1@FreeAssoc:

; 1526 : }

  0005e	5f		 pop	 edi
  0005f	5e		 pop	 esi
  00060	5b		 pop	 ebx
  00061	8b e5		 mov	 esp, ebp
  00063	5d		 pop	 ebp
  00064	c2 04 00	 ret	 4
?FreeAssoc@?$CMap@KKPAVCGamePropertySubItem@NGamePropertyListManager@@AAPAV12@@@IAEXPAVCAssoc@1@@Z ENDP ; CMap<unsigned long,unsigned long,NGamePropertyListManager::CGamePropertySubItem *,NGamePropertyListManager::CGamePropertySubItem * &>::FreeAssoc
_TEXT	ENDS
; Function compile flags: /Odtp /ZI
; File c:\program files (x86)\microsoft visual studio\2017\community\vc\tools\msvc\14.16.27023\atlmfc\include\afxtempl.h
;	COMDAT ?NewAssoc@?$CMap@KKPAVCGamePropertySubItem@NGamePropertyListManager@@AAPAV12@@@IAEPAVCAssoc@1@K@Z
_TEXT	SEGMENT
tv88 = -100						; size = 4
$T1 = -96						; size = 4
_pTemp$ = -28						; size = 4
_pAssoc$ = -24						; size = 4
___afx_condVal$2 = -20					; size = 4
_i$3 = -16						; size = 4
_pAssoc$4 = -12						; size = 4
_newBlock$5 = -8					; size = 4
_this$ = -4						; size = 4
_key$ = 8						; size = 4
?NewAssoc@?$CMap@KKPAVCGamePropertySubItem@NGamePropertyListManager@@AAPAV12@@@IAEPAVCAssoc@1@K@Z PROC ; CMap<unsigned long,unsigned long,NGamePropertyListManager::CGamePropertySubItem *,NGamePropertyListManager::CGamePropertySubItem * &>::NewAssoc, COMDAT
; _this$ = ecx

; 1480 : {

  00000	55		 push	 ebp
  00001	8b ec		 mov	 ebp, esp
  00003	83 ec 64	 sub	 esp, 100		; 00000064H
  00006	53		 push	 ebx
  00007	56		 push	 esi
  00008	57		 push	 edi
  00009	89 4d fc	 mov	 DWORD PTR _this$[ebp], ecx

; 1481 : 	if (m_pFreeList == NULL)

  0000c	8b 45 fc	 mov	 eax, DWORD PTR _this$[ebp]
  0000f	83 78 10 00	 cmp	 DWORD PTR [eax+16], 0
  00013	75 72		 jne	 SHORT $LN7@NewAssoc

; 1482 : 	{
; 1483 : 		// add another block
; 1484 : 		CPlex* newBlock = CPlex::Create(m_pBlocks, m_nBlockSize, sizeof(CMap::CAssoc));

  00015	6a 10		 push	 16			; 00000010H
  00017	8b 45 fc	 mov	 eax, DWORD PTR _this$[ebp]
  0001a	8b 48 18	 mov	 ecx, DWORD PTR [eax+24]
  0001d	51		 push	 ecx
  0001e	8b 55 fc	 mov	 edx, DWORD PTR _this$[ebp]
  00021	83 c2 14	 add	 edx, 20			; 00000014H
  00024	52		 push	 edx
  00025	e8 00 00 00 00	 call	 ?Create@CPlex@@SGPAU1@AAPAU1@II@Z ; CPlex::Create
  0002a	89 45 f8	 mov	 DWORD PTR _newBlock$5[ebp], eax

; 1485 : 		// chain them into free list
; 1486 : 		CMap::CAssoc* pAssoc = (CMap::CAssoc*) newBlock->data();

  0002d	8b 4d f8	 mov	 ecx, DWORD PTR _newBlock$5[ebp]
  00030	e8 00 00 00 00	 call	 ?data@CPlex@@QAEPAXXZ	; CPlex::data
  00035	89 45 f4	 mov	 DWORD PTR _pAssoc$4[ebp], eax

; 1487 : 		// free in reverse order to make it easier to debug
; 1488 : 		pAssoc += m_nBlockSize - 1;

  00038	8b 45 fc	 mov	 eax, DWORD PTR _this$[ebp]
  0003b	8b 48 18	 mov	 ecx, DWORD PTR [eax+24]
  0003e	83 e9 01	 sub	 ecx, 1
  00041	c1 e1 04	 shl	 ecx, 4
  00044	03 4d f4	 add	 ecx, DWORD PTR _pAssoc$4[ebp]
  00047	89 4d f4	 mov	 DWORD PTR _pAssoc$4[ebp], ecx

; 1489 : 		for (INT_PTR i = m_nBlockSize-1; i >= 0; i--, pAssoc--)

  0004a	8b 45 fc	 mov	 eax, DWORD PTR _this$[ebp]
  0004d	8b 48 18	 mov	 ecx, DWORD PTR [eax+24]
  00050	83 e9 01	 sub	 ecx, 1
  00053	89 4d f0	 mov	 DWORD PTR _i$3[ebp], ecx
  00056	eb 12		 jmp	 SHORT $LN4@NewAssoc
$LN2@NewAssoc:
  00058	8b 45 f0	 mov	 eax, DWORD PTR _i$3[ebp]
  0005b	83 e8 01	 sub	 eax, 1
  0005e	89 45 f0	 mov	 DWORD PTR _i$3[ebp], eax
  00061	8b 4d f4	 mov	 ecx, DWORD PTR _pAssoc$4[ebp]
  00064	83 e9 10	 sub	 ecx, 16			; 00000010H
  00067	89 4d f4	 mov	 DWORD PTR _pAssoc$4[ebp], ecx
$LN4@NewAssoc:
  0006a	83 7d f0 00	 cmp	 DWORD PTR _i$3[ebp], 0
  0006e	7c 17		 jl	 SHORT $LN7@NewAssoc

; 1490 : 		{
; 1491 : 			pAssoc->pNext = m_pFreeList;

  00070	8b 45 f4	 mov	 eax, DWORD PTR _pAssoc$4[ebp]
  00073	8b 4d fc	 mov	 ecx, DWORD PTR _this$[ebp]
  00076	8b 51 10	 mov	 edx, DWORD PTR [ecx+16]
  00079	89 50 08	 mov	 DWORD PTR [eax+8], edx

; 1492 : 			m_pFreeList = pAssoc;

  0007c	8b 45 fc	 mov	 eax, DWORD PTR _this$[ebp]
  0007f	8b 4d f4	 mov	 ecx, DWORD PTR _pAssoc$4[ebp]
  00082	89 48 10	 mov	 DWORD PTR [eax+16], ecx

; 1493 : 		}

  00085	eb d1		 jmp	 SHORT $LN2@NewAssoc
$LN7@NewAssoc:

; 1494 : 	}
; 1495 : 	ENSURE(m_pFreeList != NULL);  // we must have something

  00087	8b 45 fc	 mov	 eax, DWORD PTR _this$[ebp]
  0008a	83 78 10 00	 cmp	 DWORD PTR [eax+16], 0
  0008e	74 09		 je	 SHORT $LN11@NewAssoc
  00090	c7 45 9c 01 00
	00 00		 mov	 DWORD PTR tv88[ebp], 1
  00097	eb 07		 jmp	 SHORT $LN12@NewAssoc
$LN11@NewAssoc:
  00099	c7 45 9c 00 00
	00 00		 mov	 DWORD PTR tv88[ebp], 0
$LN12@NewAssoc:
  000a0	8b 4d 9c	 mov	 ecx, DWORD PTR tv88[ebp]
  000a3	89 4d ec	 mov	 DWORD PTR ___afx_condVal$2[ebp], ecx
  000a6	83 7d ec 00	 cmp	 DWORD PTR ___afx_condVal$2[ebp], 0
  000aa	75 14		 jne	 SHORT $LN13@NewAssoc
  000ac	68 d7 05 00 00	 push	 1495			; 000005d7H
  000b1	68 00 00 00 00	 push	 OFFSET ??_C@_0HC@HBCNBCLF@c?3?2program?5files?5?$CIx86?$CJ?2microsof@
  000b6	e8 00 00 00 00	 call	 ?AfxAssertFailedLine@@YGHPBDH@Z ; AfxAssertFailedLine
  000bb	85 c0		 test	 eax, eax
  000bd	74 01		 je	 SHORT $LN13@NewAssoc
  000bf	cc		 int	 3
$LN13@NewAssoc:
  000c0	83 7d ec 00	 cmp	 DWORD PTR ___afx_condVal$2[ebp], 0
  000c4	75 05		 jne	 SHORT $LN5@NewAssoc
  000c6	e8 00 00 00 00	 call	 ?AfxThrowInvalidArgException@@YGXXZ ; AfxThrowInvalidArgException
$LN5@NewAssoc:
  000cb	33 c0		 xor	 eax, eax
  000cd	75 b8		 jne	 SHORT $LN7@NewAssoc

; 1496 : 
; 1497 : 	CMap::CAssoc* pAssoc = m_pFreeList;

  000cf	8b 45 fc	 mov	 eax, DWORD PTR _this$[ebp]
  000d2	8b 48 10	 mov	 ecx, DWORD PTR [eax+16]
  000d5	89 4d e8	 mov	 DWORD PTR _pAssoc$[ebp], ecx

; 1498 : 
; 1499 : 	// zero the memory
; 1500 : 	CMap::CAssoc* pTemp = pAssoc->pNext;

  000d8	8b 45 e8	 mov	 eax, DWORD PTR _pAssoc$[ebp]
  000db	8b 48 08	 mov	 ecx, DWORD PTR [eax+8]
  000de	89 4d e4	 mov	 DWORD PTR _pTemp$[ebp], ecx

; 1501 : 	memset( pAssoc, 0, sizeof(CMap::CAssoc) );

  000e1	6a 10		 push	 16			; 00000010H
  000e3	6a 00		 push	 0
  000e5	8b 45 e8	 mov	 eax, DWORD PTR _pAssoc$[ebp]
  000e8	50		 push	 eax
  000e9	e8 00 00 00 00	 call	 _memset
  000ee	83 c4 0c	 add	 esp, 12			; 0000000cH

; 1502 : 	pAssoc->pNext = pTemp;

  000f1	8b 45 e8	 mov	 eax, DWORD PTR _pAssoc$[ebp]
  000f4	8b 4d e4	 mov	 ecx, DWORD PTR _pTemp$[ebp]
  000f7	89 48 08	 mov	 DWORD PTR [eax+8], ecx

; 1503 : 
; 1504 : 	m_pFreeList = m_pFreeList->pNext;

  000fa	8b 45 fc	 mov	 eax, DWORD PTR _this$[ebp]
  000fd	8b 48 10	 mov	 ecx, DWORD PTR [eax+16]
  00100	8b 55 fc	 mov	 edx, DWORD PTR _this$[ebp]
  00103	8b 41 08	 mov	 eax, DWORD PTR [ecx+8]
  00106	89 42 10	 mov	 DWORD PTR [edx+16], eax

; 1505 : 	m_nCount++;

  00109	8b 45 fc	 mov	 eax, DWORD PTR _this$[ebp]
  0010c	8b 48 0c	 mov	 ecx, DWORD PTR [eax+12]
  0010f	83 c1 01	 add	 ecx, 1
  00112	8b 55 fc	 mov	 edx, DWORD PTR _this$[ebp]
  00115	89 4a 0c	 mov	 DWORD PTR [edx+12], ecx

; 1506 : 	ASSERT(m_nCount > 0);  // make sure we don't overflow

  00118	8b 45 fc	 mov	 eax, DWORD PTR _this$[ebp]
  0011b	83 78 0c 00	 cmp	 DWORD PTR [eax+12], 0
  0011f	7f 14		 jg	 SHORT $LN14@NewAssoc
  00121	68 e2 05 00 00	 push	 1506			; 000005e2H
  00126	68 00 00 00 00	 push	 OFFSET ??_C@_0HC@HBCNBCLF@c?3?2program?5files?5?$CIx86?$CJ?2microsof@
  0012b	e8 00 00 00 00	 call	 ?AfxAssertFailedLine@@YGHPBDH@Z ; AfxAssertFailedLine
  00130	85 c0		 test	 eax, eax
  00132	74 01		 je	 SHORT $LN14@NewAssoc
  00134	cc		 int	 3
$LN14@NewAssoc:

; 1507 : #pragma push_macro("new")
; 1508 : #undef new
; 1509 : 	::new(pAssoc) CMap::CAssoc(key);

  00135	8b 45 e8	 mov	 eax, DWORD PTR _pAssoc$[ebp]
  00138	50		 push	 eax
  00139	6a 10		 push	 16			; 00000010H
  0013b	e8 00 00 00 00	 call	 ??2@YAPAXIPAX@Z		; operator new
  00140	83 c4 08	 add	 esp, 8
  00143	89 45 a0	 mov	 DWORD PTR $T1[ebp], eax
  00146	8b 4d 08	 mov	 ecx, DWORD PTR _key$[ebp]
  00149	51		 push	 ecx
  0014a	8b 4d a0	 mov	 ecx, DWORD PTR $T1[ebp]
  0014d	e8 00 00 00 00	 call	 ??0CAssoc@?$CMap@KKPAVCGamePropertySubItem@NGamePropertyListManager@@AAPAV12@@@QAE@K@Z ; CMap<unsigned long,unsigned long,NGamePropertyListManager::CGamePropertySubItem *,NGamePropertyListManager::CGamePropertySubItem * &>::CAssoc::CAssoc

; 1510 : #pragma pop_macro("new")
; 1511 : 	return pAssoc;

  00152	8b 45 e8	 mov	 eax, DWORD PTR _pAssoc$[ebp]
$LN10@NewAssoc:

; 1512 : }

  00155	5f		 pop	 edi
  00156	5e		 pop	 esi
  00157	5b		 pop	 ebx
  00158	8b e5		 mov	 esp, ebp
  0015a	5d		 pop	 ebp
  0015b	c2 04 00	 ret	 4
?NewAssoc@?$CMap@KKPAVCGamePropertySubItem@NGamePropertyListManager@@AAPAV12@@@IAEPAVCAssoc@1@K@Z ENDP ; CMap<unsigned long,unsigned long,NGamePropertyListManager::CGamePropertySubItem *,NGamePropertyListManager::CGamePropertySubItem * &>::NewAssoc
_TEXT	ENDS
; Function compile flags: /Odtp /ZI
; File c:\program files (x86)\microsoft visual studio\2017\community\vc\tools\msvc\14.16.27023\atlmfc\include\afxtempl.h
;	COMDAT ?InitHashTable@?$CMap@KKPAVCGamePropertySubItem@NGamePropertyListManager@@AAPAV12@@@QAEXIH@Z
_TEXT	SEGMENT
tv137 = -84						; size = 4
$T1 = -80						; size = 4
$T2 = -76						; size = 4
___afx_condVal$3 = -8					; size = 4
_this$ = -4						; size = 4
_nHashSize$ = 8						; size = 4
_bAllocNow$ = 12					; size = 4
?InitHashTable@?$CMap@KKPAVCGamePropertySubItem@NGamePropertyListManager@@AAPAV12@@@QAEXIH@Z PROC ; CMap<unsigned long,unsigned long,NGamePropertyListManager::CGamePropertySubItem *,NGamePropertyListManager::CGamePropertySubItem * &>::InitHashTable, COMDAT
; _this$ = ecx

; 1420 : {

  00000	55		 push	 ebp
  00001	8b ec		 mov	 ebp, esp
  00003	83 ec 54	 sub	 esp, 84			; 00000054H
  00006	53		 push	 ebx
  00007	56		 push	 esi
  00008	57		 push	 edi
  00009	89 4d fc	 mov	 DWORD PTR _this$[ebp], ecx

; 1421 : 	ASSERT_VALID(this);

  0000c	68 8d 05 00 00	 push	 1421			; 0000058dH
  00011	68 00 00 00 00	 push	 OFFSET ??_C@_0HC@HBCNBCLF@c?3?2program?5files?5?$CIx86?$CJ?2microsof@
  00016	8b 45 fc	 mov	 eax, DWORD PTR _this$[ebp]
  00019	50		 push	 eax
  0001a	e8 00 00 00 00	 call	 ?AfxAssertValidObject@@YGXPBVCObject@@PBDH@Z ; AfxAssertValidObject

; 1422 : 	ASSERT(m_nCount == 0);

  0001f	8b 45 fc	 mov	 eax, DWORD PTR _this$[ebp]
  00022	83 78 0c 00	 cmp	 DWORD PTR [eax+12], 0
  00026	74 14		 je	 SHORT $LN9@InitHashTa
  00028	68 8e 05 00 00	 push	 1422			; 0000058eH
  0002d	68 00 00 00 00	 push	 OFFSET ??_C@_0HC@HBCNBCLF@c?3?2program?5files?5?$CIx86?$CJ?2microsof@
  00032	e8 00 00 00 00	 call	 ?AfxAssertFailedLine@@YGHPBDH@Z ; AfxAssertFailedLine
  00037	85 c0		 test	 eax, eax
  00039	74 01		 je	 SHORT $LN9@InitHashTa
  0003b	cc		 int	 3
$LN9@InitHashTa:

; 1423 : 	ASSERT(nHashSize > 0);

  0003c	83 7d 08 00	 cmp	 DWORD PTR _nHashSize$[ebp], 0
  00040	77 14		 ja	 SHORT $LN10@InitHashTa
  00042	68 8f 05 00 00	 push	 1423			; 0000058fH
  00047	68 00 00 00 00	 push	 OFFSET ??_C@_0HC@HBCNBCLF@c?3?2program?5files?5?$CIx86?$CJ?2microsof@
  0004c	e8 00 00 00 00	 call	 ?AfxAssertFailedLine@@YGHPBDH@Z ; AfxAssertFailedLine
  00051	85 c0		 test	 eax, eax
  00053	74 01		 je	 SHORT $LN10@InitHashTa
  00055	cc		 int	 3
$LN10@InitHashTa:

; 1424 : 
; 1425 : 	if (m_pHashTable != NULL)

  00056	8b 45 fc	 mov	 eax, DWORD PTR _this$[ebp]
  00059	83 78 04 00	 cmp	 DWORD PTR [eax+4], 0
  0005d	74 1f		 je	 SHORT $LN5@InitHashTa

; 1426 : 	{
; 1427 : 		// free hash table
; 1428 : 		delete[] m_pHashTable;

  0005f	8b 45 fc	 mov	 eax, DWORD PTR _this$[ebp]
  00062	8b 48 04	 mov	 ecx, DWORD PTR [eax+4]
  00065	89 4d b4	 mov	 DWORD PTR $T2[ebp], ecx
  00068	8b 55 b4	 mov	 edx, DWORD PTR $T2[ebp]
  0006b	52		 push	 edx
  0006c	e8 00 00 00 00	 call	 ??_V@YAXPAX@Z		; operator delete[]
  00071	83 c4 04	 add	 esp, 4

; 1429 : 		m_pHashTable = NULL;

  00074	8b 45 fc	 mov	 eax, DWORD PTR _this$[ebp]
  00077	c7 40 04 00 00
	00 00		 mov	 DWORD PTR [eax+4], 0
$LN5@InitHashTa:

; 1430 : 	}
; 1431 : 
; 1432 : 	if (bAllocNow)

  0007e	83 7d 0c 00	 cmp	 DWORD PTR _bAllocNow$[ebp], 0
  00082	0f 84 92 00 00
	00		 je	 $LN6@InitHashTa

; 1433 : 	{
; 1434 : 		m_pHashTable = new CAssoc* [nHashSize];

  00088	68 9a 05 00 00	 push	 1434			; 0000059aH
  0008d	68 00 00 00 00	 push	 OFFSET ??_C@_0HC@HBCNBCLF@c?3?2program?5files?5?$CIx86?$CJ?2microsof@
  00092	33 c9		 xor	 ecx, ecx
  00094	8b 45 08	 mov	 eax, DWORD PTR _nHashSize$[ebp]
  00097	ba 04 00 00 00	 mov	 edx, 4
  0009c	f7 e2		 mul	 edx
  0009e	0f 90 c1	 seto	 cl
  000a1	f7 d9		 neg	 ecx
  000a3	0b c8		 or	 ecx, eax
  000a5	51		 push	 ecx
  000a6	e8 00 00 00 00	 call	 ??_U@YAPAXIPBDH@Z	; operator new[]
  000ab	83 c4 0c	 add	 esp, 12			; 0000000cH
  000ae	89 45 b0	 mov	 DWORD PTR $T1[ebp], eax
  000b1	8b 45 fc	 mov	 eax, DWORD PTR _this$[ebp]
  000b4	8b 4d b0	 mov	 ecx, DWORD PTR $T1[ebp]
  000b7	89 48 04	 mov	 DWORD PTR [eax+4], ecx
$LN4@InitHashTa:

; 1435 : 		ENSURE(m_pHashTable != NULL);

  000ba	8b 45 fc	 mov	 eax, DWORD PTR _this$[ebp]
  000bd	83 78 04 00	 cmp	 DWORD PTR [eax+4], 0
  000c1	74 09		 je	 SHORT $LN11@InitHashTa
  000c3	c7 45 ac 01 00
	00 00		 mov	 DWORD PTR tv137[ebp], 1
  000ca	eb 07		 jmp	 SHORT $LN12@InitHashTa
$LN11@InitHashTa:
  000cc	c7 45 ac 00 00
	00 00		 mov	 DWORD PTR tv137[ebp], 0
$LN12@InitHashTa:
  000d3	8b 4d ac	 mov	 ecx, DWORD PTR tv137[ebp]
  000d6	89 4d f8	 mov	 DWORD PTR ___afx_condVal$3[ebp], ecx
  000d9	83 7d f8 00	 cmp	 DWORD PTR ___afx_condVal$3[ebp], 0
  000dd	75 14		 jne	 SHORT $LN13@InitHashTa
  000df	68 9b 05 00 00	 push	 1435			; 0000059bH
  000e4	68 00 00 00 00	 push	 OFFSET ??_C@_0HC@HBCNBCLF@c?3?2program?5files?5?$CIx86?$CJ?2microsof@
  000e9	e8 00 00 00 00	 call	 ?AfxAssertFailedLine@@YGHPBDH@Z ; AfxAssertFailedLine
  000ee	85 c0		 test	 eax, eax
  000f0	74 01		 je	 SHORT $LN13@InitHashTa
  000f2	cc		 int	 3
$LN13@InitHashTa:
  000f3	83 7d f8 00	 cmp	 DWORD PTR ___afx_condVal$3[ebp], 0
  000f7	75 05		 jne	 SHORT $LN2@InitHashTa
  000f9	e8 00 00 00 00	 call	 ?AfxThrowInvalidArgException@@YGXXZ ; AfxThrowInvalidArgException
$LN2@InitHashTa:
  000fe	33 c0		 xor	 eax, eax
  00100	75 b8		 jne	 SHORT $LN4@InitHashTa

; 1436 : 		memset(m_pHashTable, 0, sizeof(CAssoc*) * nHashSize);

  00102	8b 45 08	 mov	 eax, DWORD PTR _nHashSize$[ebp]
  00105	c1 e0 02	 shl	 eax, 2
  00108	50		 push	 eax
  00109	6a 00		 push	 0
  0010b	8b 4d fc	 mov	 ecx, DWORD PTR _this$[ebp]
  0010e	8b 51 04	 mov	 edx, DWORD PTR [ecx+4]
  00111	52		 push	 edx
  00112	e8 00 00 00 00	 call	 _memset
  00117	83 c4 0c	 add	 esp, 12			; 0000000cH
$LN6@InitHashTa:

; 1437 : 	}
; 1438 : 	m_nHashTableSize = nHashSize;

  0011a	8b 45 fc	 mov	 eax, DWORD PTR _this$[ebp]
  0011d	8b 4d 08	 mov	 ecx, DWORD PTR _nHashSize$[ebp]
  00120	89 48 08	 mov	 DWORD PTR [eax+8], ecx
$LN8@InitHashTa:

; 1439 : }

  00123	5f		 pop	 edi
  00124	5e		 pop	 esi
  00125	5b		 pop	 ebx
  00126	8b e5		 mov	 esp, ebp
  00128	5d		 pop	 ebp
  00129	c2 08 00	 ret	 8
?InitHashTable@?$CMap@KKPAVCGamePropertySubItem@NGamePropertyListManager@@AAPAV12@@@QAEXIH@Z ENDP ; CMap<unsigned long,unsigned long,NGamePropertyListManager::CGamePropertySubItem *,NGamePropertyListManager::CGamePropertySubItem * &>::InitHashTable
_TEXT	ENDS
; Function compile flags: /Odtp /ZI
; File c:\program files (x86)\microsoft visual studio\2017\community\vc\tools\msvc\14.16.27023\atlmfc\include\afxtempl.h
;	COMDAT ?GetNextAssoc@?$CMap@KKPAVCGamePropertySubItem@NGamePropertyListManager@@AAPAV12@@@QBEXAAPAU__POSITION@@AAKAAPAVCGamePropertySubItem@NGamePropertyListManager@@@Z
_TEXT	SEGMENT
tv133 = -100						; size = 4
tv83 = -100						; size = 4
tv73 = -100						; size = 4
_nBucket$1 = -32					; size = 4
_pAssocNext$ = -28					; size = 4
___afx_condVal$2 = -24					; size = 4
_nBucket$3 = -20					; size = 4
___afx_condVal$4 = -16					; size = 4
_pAssocRet$ = -12					; size = 4
___afx_condVal$5 = -8					; size = 4
_this$ = -4						; size = 4
_rNextPosition$ = 8					; size = 4
_rKey$ = 12						; size = 4
_rValue$ = 16						; size = 4
?GetNextAssoc@?$CMap@KKPAVCGamePropertySubItem@NGamePropertyListManager@@AAPAV12@@@QBEXAAPAU__POSITION@@AAKAAPAVCGamePropertySubItem@NGamePropertyListManager@@@Z PROC ; CMap<unsigned long,unsigned long,NGamePropertyListManager::CGamePropertySubItem *,NGamePropertyListManager::CGamePropertySubItem * &>::GetNextAssoc, COMDAT
; _this$ = ecx

; 1640 : {

  00000	55		 push	 ebp
  00001	8b ec		 mov	 ebp, esp
  00003	83 ec 64	 sub	 esp, 100		; 00000064H
  00006	53		 push	 ebx
  00007	56		 push	 esi
  00008	57		 push	 edi
  00009	89 4d fc	 mov	 DWORD PTR _this$[ebp], ecx

; 1641 : 	ASSERT_VALID(this);

  0000c	68 69 06 00 00	 push	 1641			; 00000669H
  00011	68 00 00 00 00	 push	 OFFSET ??_C@_0HC@HBCNBCLF@c?3?2program?5files?5?$CIx86?$CJ?2microsof@
  00016	8b 45 fc	 mov	 eax, DWORD PTR _this$[ebp]
  00019	50		 push	 eax
  0001a	e8 00 00 00 00	 call	 ?AfxAssertValidObject@@YGXPBVCObject@@PBDH@Z ; AfxAssertValidObject
$LN4@GetNextAss:

; 1642 : 	ENSURE(m_pHashTable != NULL);  // never call on empty map

  0001f	8b 45 fc	 mov	 eax, DWORD PTR _this$[ebp]
  00022	83 78 04 00	 cmp	 DWORD PTR [eax+4], 0
  00026	74 09		 je	 SHORT $LN25@GetNextAss
  00028	c7 45 9c 01 00
	00 00		 mov	 DWORD PTR tv73[ebp], 1
  0002f	eb 07		 jmp	 SHORT $LN26@GetNextAss
$LN25@GetNextAss:
  00031	c7 45 9c 00 00
	00 00		 mov	 DWORD PTR tv73[ebp], 0
$LN26@GetNextAss:
  00038	8b 4d 9c	 mov	 ecx, DWORD PTR tv73[ebp]
  0003b	89 4d f8	 mov	 DWORD PTR ___afx_condVal$5[ebp], ecx
  0003e	83 7d f8 00	 cmp	 DWORD PTR ___afx_condVal$5[ebp], 0
  00042	75 14		 jne	 SHORT $LN27@GetNextAss
  00044	68 6a 06 00 00	 push	 1642			; 0000066aH
  00049	68 00 00 00 00	 push	 OFFSET ??_C@_0HC@HBCNBCLF@c?3?2program?5files?5?$CIx86?$CJ?2microsof@
  0004e	e8 00 00 00 00	 call	 ?AfxAssertFailedLine@@YGHPBDH@Z ; AfxAssertFailedLine
  00053	85 c0		 test	 eax, eax
  00055	74 01		 je	 SHORT $LN27@GetNextAss
  00057	cc		 int	 3
$LN27@GetNextAss:
  00058	83 7d f8 00	 cmp	 DWORD PTR ___afx_condVal$5[ebp], 0
  0005c	75 05		 jne	 SHORT $LN2@GetNextAss
  0005e	e8 00 00 00 00	 call	 ?AfxThrowInvalidArgException@@YGXXZ ; AfxThrowInvalidArgException
$LN2@GetNextAss:
  00063	33 c0		 xor	 eax, eax
  00065	75 b8		 jne	 SHORT $LN4@GetNextAss

; 1643 : 
; 1644 : 	CAssoc* pAssocRet = (CAssoc*)rNextPosition;

  00067	8b 45 08	 mov	 eax, DWORD PTR _rNextPosition$[ebp]
  0006a	8b 08		 mov	 ecx, DWORD PTR [eax]
  0006c	89 4d f4	 mov	 DWORD PTR _pAssocRet$[ebp], ecx
$LN7@GetNextAss:

; 1645 : 	ENSURE(pAssocRet != NULL);

  0006f	83 7d f4 00	 cmp	 DWORD PTR _pAssocRet$[ebp], 0
  00073	74 09		 je	 SHORT $LN28@GetNextAss
  00075	c7 45 9c 01 00
	00 00		 mov	 DWORD PTR tv83[ebp], 1
  0007c	eb 07		 jmp	 SHORT $LN29@GetNextAss
$LN28@GetNextAss:
  0007e	c7 45 9c 00 00
	00 00		 mov	 DWORD PTR tv83[ebp], 0
$LN29@GetNextAss:
  00085	8b 45 9c	 mov	 eax, DWORD PTR tv83[ebp]
  00088	89 45 f0	 mov	 DWORD PTR ___afx_condVal$4[ebp], eax
  0008b	83 7d f0 00	 cmp	 DWORD PTR ___afx_condVal$4[ebp], 0
  0008f	75 14		 jne	 SHORT $LN30@GetNextAss
  00091	68 6d 06 00 00	 push	 1645			; 0000066dH
  00096	68 00 00 00 00	 push	 OFFSET ??_C@_0HC@HBCNBCLF@c?3?2program?5files?5?$CIx86?$CJ?2microsof@
  0009b	e8 00 00 00 00	 call	 ?AfxAssertFailedLine@@YGHPBDH@Z ; AfxAssertFailedLine
  000a0	85 c0		 test	 eax, eax
  000a2	74 01		 je	 SHORT $LN30@GetNextAss
  000a4	cc		 int	 3
$LN30@GetNextAss:
  000a5	83 7d f0 00	 cmp	 DWORD PTR ___afx_condVal$4[ebp], 0
  000a9	75 05		 jne	 SHORT $LN5@GetNextAss
  000ab	e8 00 00 00 00	 call	 ?AfxThrowInvalidArgException@@YGXXZ ; AfxThrowInvalidArgException
$LN5@GetNextAss:
  000b0	33 c0		 xor	 eax, eax
  000b2	75 bb		 jne	 SHORT $LN7@GetNextAss

; 1646 : 
; 1647 : 	if (pAssocRet == (CAssoc*) BEFORE_START_POSITION)

  000b4	83 7d f4 ff	 cmp	 DWORD PTR _pAssocRet$[ebp], -1
  000b8	75 7b		 jne	 SHORT $LN19@GetNextAss

; 1648 : 	{
; 1649 : 		// find the first association
; 1650 : 		for (UINT nBucket = 0; nBucket < m_nHashTableSize; nBucket++)

  000ba	c7 45 ec 00 00
	00 00		 mov	 DWORD PTR _nBucket$3[ebp], 0
  000c1	eb 09		 jmp	 SHORT $LN10@GetNextAss
$LN8@GetNextAss:
  000c3	8b 45 ec	 mov	 eax, DWORD PTR _nBucket$3[ebp]
  000c6	83 c0 01	 add	 eax, 1
  000c9	89 45 ec	 mov	 DWORD PTR _nBucket$3[ebp], eax
$LN10@GetNextAss:
  000cc	8b 45 fc	 mov	 eax, DWORD PTR _this$[ebp]
  000cf	8b 4d ec	 mov	 ecx, DWORD PTR _nBucket$3[ebp]
  000d2	3b 48 08	 cmp	 ecx, DWORD PTR [eax+8]
  000d5	73 19		 jae	 SHORT $LN13@GetNextAss

; 1651 : 		{
; 1652 : 			if ((pAssocRet = m_pHashTable[nBucket]) != NULL)

  000d7	8b 45 fc	 mov	 eax, DWORD PTR _this$[ebp]
  000da	8b 48 04	 mov	 ecx, DWORD PTR [eax+4]
  000dd	8b 55 ec	 mov	 edx, DWORD PTR _nBucket$3[ebp]
  000e0	8b 04 91	 mov	 eax, DWORD PTR [ecx+edx*4]
  000e3	89 45 f4	 mov	 DWORD PTR _pAssocRet$[ebp], eax
  000e6	83 7d f4 00	 cmp	 DWORD PTR _pAssocRet$[ebp], 0
  000ea	74 02		 je	 SHORT $LN20@GetNextAss

; 1653 : 			{
; 1654 : 				break;

  000ec	eb 02		 jmp	 SHORT $LN13@GetNextAss
$LN20@GetNextAss:

; 1655 : 			}
; 1656 : 		}

  000ee	eb d3		 jmp	 SHORT $LN8@GetNextAss
$LN13@GetNextAss:

; 1657 : 		ENSURE(pAssocRet != NULL);  // must find something

  000f0	83 7d f4 00	 cmp	 DWORD PTR _pAssocRet$[ebp], 0
  000f4	74 09		 je	 SHORT $LN31@GetNextAss
  000f6	c7 45 9c 01 00
	00 00		 mov	 DWORD PTR tv133[ebp], 1
  000fd	eb 07		 jmp	 SHORT $LN32@GetNextAss
$LN31@GetNextAss:
  000ff	c7 45 9c 00 00
	00 00		 mov	 DWORD PTR tv133[ebp], 0
$LN32@GetNextAss:
  00106	8b 45 9c	 mov	 eax, DWORD PTR tv133[ebp]
  00109	89 45 e8	 mov	 DWORD PTR ___afx_condVal$2[ebp], eax
  0010c	83 7d e8 00	 cmp	 DWORD PTR ___afx_condVal$2[ebp], 0
  00110	75 14		 jne	 SHORT $LN33@GetNextAss
  00112	68 79 06 00 00	 push	 1657			; 00000679H
  00117	68 00 00 00 00	 push	 OFFSET ??_C@_0HC@HBCNBCLF@c?3?2program?5files?5?$CIx86?$CJ?2microsof@
  0011c	e8 00 00 00 00	 call	 ?AfxAssertFailedLine@@YGHPBDH@Z ; AfxAssertFailedLine
  00121	85 c0		 test	 eax, eax
  00123	74 01		 je	 SHORT $LN33@GetNextAss
  00125	cc		 int	 3
$LN33@GetNextAss:
  00126	83 7d e8 00	 cmp	 DWORD PTR ___afx_condVal$2[ebp], 0
  0012a	75 05		 jne	 SHORT $LN11@GetNextAss
  0012c	e8 00 00 00 00	 call	 ?AfxThrowInvalidArgException@@YGXXZ ; AfxThrowInvalidArgException
$LN11@GetNextAss:
  00131	33 c0		 xor	 eax, eax
  00133	75 bb		 jne	 SHORT $LN13@GetNextAss
$LN19@GetNextAss:

; 1658 : 	}
; 1659 : 
; 1660 : 	// find next association
; 1661 : 	ASSERT(AfxIsValidAddress(pAssocRet, sizeof(CAssoc)));

  00135	6a 01		 push	 1
  00137	6a 10		 push	 16			; 00000010H
  00139	8b 45 f4	 mov	 eax, DWORD PTR _pAssocRet$[ebp]
  0013c	50		 push	 eax
  0013d	e8 00 00 00 00	 call	 ?AfxIsValidAddress@@YGHPBXIH@Z ; AfxIsValidAddress
  00142	85 c0		 test	 eax, eax
  00144	75 14		 jne	 SHORT $LN34@GetNextAss
  00146	68 7d 06 00 00	 push	 1661			; 0000067dH
  0014b	68 00 00 00 00	 push	 OFFSET ??_C@_0HC@HBCNBCLF@c?3?2program?5files?5?$CIx86?$CJ?2microsof@
  00150	e8 00 00 00 00	 call	 ?AfxAssertFailedLine@@YGHPBDH@Z ; AfxAssertFailedLine
  00155	85 c0		 test	 eax, eax
  00157	74 01		 je	 SHORT $LN34@GetNextAss
  00159	cc		 int	 3
$LN34@GetNextAss:

; 1662 : 	CAssoc* pAssocNext;
; 1663 : 	if ((pAssocNext = pAssocRet->pNext) == NULL)

  0015a	8b 45 f4	 mov	 eax, DWORD PTR _pAssocRet$[ebp]
  0015d	8b 48 08	 mov	 ecx, DWORD PTR [eax+8]
  00160	89 4d e4	 mov	 DWORD PTR _pAssocNext$[ebp], ecx
  00163	83 7d e4 00	 cmp	 DWORD PTR _pAssocNext$[ebp], 0
  00167	75 43		 jne	 SHORT $LN22@GetNextAss

; 1664 : 	{
; 1665 : 		// go to next bucket
; 1666 : 		for (UINT nBucket = (pAssocRet->nHashValue % m_nHashTableSize) + 1;

  00169	8b 45 f4	 mov	 eax, DWORD PTR _pAssocRet$[ebp]
  0016c	8b 4d fc	 mov	 ecx, DWORD PTR _this$[ebp]
  0016f	8b 40 0c	 mov	 eax, DWORD PTR [eax+12]
  00172	33 d2		 xor	 edx, edx
  00174	f7 71 08	 div	 DWORD PTR [ecx+8]
  00177	83 c2 01	 add	 edx, 1
  0017a	89 55 e0	 mov	 DWORD PTR _nBucket$1[ebp], edx
  0017d	eb 09		 jmp	 SHORT $LN16@GetNextAss
$LN14@GetNextAss:

; 1667 : 		  nBucket < m_nHashTableSize; nBucket++)

  0017f	8b 45 e0	 mov	 eax, DWORD PTR _nBucket$1[ebp]
  00182	83 c0 01	 add	 eax, 1
  00185	89 45 e0	 mov	 DWORD PTR _nBucket$1[ebp], eax
$LN16@GetNextAss:
  00188	8b 45 fc	 mov	 eax, DWORD PTR _this$[ebp]
  0018b	8b 4d e0	 mov	 ecx, DWORD PTR _nBucket$1[ebp]
  0018e	3b 48 08	 cmp	 ecx, DWORD PTR [eax+8]
  00191	73 19		 jae	 SHORT $LN22@GetNextAss

; 1668 : 			if ((pAssocNext = m_pHashTable[nBucket]) != NULL)

  00193	8b 45 fc	 mov	 eax, DWORD PTR _this$[ebp]
  00196	8b 48 04	 mov	 ecx, DWORD PTR [eax+4]
  00199	8b 55 e0	 mov	 edx, DWORD PTR _nBucket$1[ebp]
  0019c	8b 04 91	 mov	 eax, DWORD PTR [ecx+edx*4]
  0019f	89 45 e4	 mov	 DWORD PTR _pAssocNext$[ebp], eax
  001a2	83 7d e4 00	 cmp	 DWORD PTR _pAssocNext$[ebp], 0
  001a6	74 02		 je	 SHORT $LN23@GetNextAss

; 1669 : 				break;

  001a8	eb 02		 jmp	 SHORT $LN22@GetNextAss
$LN23@GetNextAss:

; 1670 : 	}

  001aa	eb d3		 jmp	 SHORT $LN14@GetNextAss
$LN22@GetNextAss:

; 1671 : 
; 1672 : 	rNextPosition = (POSITION) pAssocNext;

  001ac	8b 45 08	 mov	 eax, DWORD PTR _rNextPosition$[ebp]
  001af	8b 4d e4	 mov	 ecx, DWORD PTR _pAssocNext$[ebp]
  001b2	89 08		 mov	 DWORD PTR [eax], ecx

; 1673 : 
; 1674 : 	// fill in return data
; 1675 : 	rKey = pAssocRet->key;

  001b4	8b 45 0c	 mov	 eax, DWORD PTR _rKey$[ebp]
  001b7	8b 4d f4	 mov	 ecx, DWORD PTR _pAssocRet$[ebp]
  001ba	8b 11		 mov	 edx, DWORD PTR [ecx]
  001bc	89 10		 mov	 DWORD PTR [eax], edx

; 1676 : 	rValue = pAssocRet->value;

  001be	8b 45 10	 mov	 eax, DWORD PTR _rValue$[ebp]
  001c1	8b 4d f4	 mov	 ecx, DWORD PTR _pAssocRet$[ebp]
  001c4	8b 51 04	 mov	 edx, DWORD PTR [ecx+4]
  001c7	89 10		 mov	 DWORD PTR [eax], edx
$LN24@GetNextAss:

; 1677 : }

  001c9	5f		 pop	 edi
  001ca	5e		 pop	 esi
  001cb	5b		 pop	 ebx
  001cc	8b e5		 mov	 esp, ebp
  001ce	5d		 pop	 ebp
  001cf	c2 0c 00	 ret	 12			; 0000000cH
?GetNextAssoc@?$CMap@KKPAVCGamePropertySubItem@NGamePropertyListManager@@AAPAV12@@@QBEXAAPAU__POSITION@@AAKAAPAVCGamePropertySubItem@NGamePropertyListManager@@@Z ENDP ; CMap<unsigned long,unsigned long,NGamePropertyListManager::CGamePropertySubItem *,NGamePropertyListManager::CGamePropertySubItem * &>::GetNextAssoc
_TEXT	ENDS
; Function compile flags: /Odtp /ZI
; File c:\program files (x86)\microsoft visual studio\2017\community\vc\tools\msvc\14.16.27023\atlmfc\include\afxtempl.h
;	COMDAT ?GetStartPosition@?$CMap@KKPAVCGamePropertySubItem@NGamePropertyListManager@@AAPAV12@@@QBEPAU__POSITION@@XZ
_TEXT	SEGMENT
tv66 = -72						; size = 4
_this$ = -4						; size = 4
?GetStartPosition@?$CMap@KKPAVCGamePropertySubItem@NGamePropertyListManager@@AAPAV12@@@QBEPAU__POSITION@@XZ PROC ; CMap<unsigned long,unsigned long,NGamePropertyListManager::CGamePropertySubItem *,NGamePropertyListManager::CGamePropertySubItem * &>::GetStartPosition, COMDAT
; _this$ = ecx

; 1354 : 	{ return (m_nCount == 0) ? NULL : BEFORE_START_POSITION; }

  00000	55		 push	 ebp
  00001	8b ec		 mov	 ebp, esp
  00003	83 ec 48	 sub	 esp, 72			; 00000048H
  00006	53		 push	 ebx
  00007	56		 push	 esi
  00008	57		 push	 edi
  00009	89 4d fc	 mov	 DWORD PTR _this$[ebp], ecx
  0000c	8b 45 fc	 mov	 eax, DWORD PTR _this$[ebp]
  0000f	83 78 0c 00	 cmp	 DWORD PTR [eax+12], 0
  00013	75 09		 jne	 SHORT $LN3@GetStartPo
  00015	c7 45 b8 00 00
	00 00		 mov	 DWORD PTR tv66[ebp], 0
  0001c	eb 07		 jmp	 SHORT $LN4@GetStartPo
$LN3@GetStartPo:
  0001e	c7 45 b8 ff ff
	ff ff		 mov	 DWORD PTR tv66[ebp], -1
$LN4@GetStartPo:
  00025	8b 45 b8	 mov	 eax, DWORD PTR tv66[ebp]
  00028	5f		 pop	 edi
  00029	5e		 pop	 esi
  0002a	5b		 pop	 ebx
  0002b	8b e5		 mov	 esp, ebp
  0002d	5d		 pop	 ebp
  0002e	c3		 ret	 0
?GetStartPosition@?$CMap@KKPAVCGamePropertySubItem@NGamePropertyListManager@@AAPAV12@@@QBEPAU__POSITION@@XZ ENDP ; CMap<unsigned long,unsigned long,NGamePropertyListManager::CGamePropertySubItem *,NGamePropertyListManager::CGamePropertySubItem * &>::GetStartPosition
_TEXT	ENDS
; Function compile flags: /Odtp /ZI
; File c:\program files (x86)\microsoft visual studio\2017\community\vc\tools\msvc\14.16.27023\atlmfc\include\afxtempl.h
;	COMDAT ?RemoveAll@?$CMap@KKPAVCGamePropertySubItem@NGamePropertyListManager@@AAPAV12@@@QAEXXZ
_TEXT	SEGMENT
$T1 = -80						; size = 4
_pAssoc$2 = -12						; size = 4
_nHash$3 = -8						; size = 4
_this$ = -4						; size = 4
?RemoveAll@?$CMap@KKPAVCGamePropertySubItem@NGamePropertyListManager@@AAPAV12@@@QAEXXZ PROC ; CMap<unsigned long,unsigned long,NGamePropertyListManager::CGamePropertySubItem *,NGamePropertyListManager::CGamePropertySubItem * &>::RemoveAll, COMDAT
; _this$ = ecx

; 1443 : {

  00000	55		 push	 ebp
  00001	8b ec		 mov	 ebp, esp
  00003	83 ec 50	 sub	 esp, 80			; 00000050H
  00006	53		 push	 ebx
  00007	56		 push	 esi
  00008	57		 push	 edi
  00009	89 4d fc	 mov	 DWORD PTR _this$[ebp], ecx

; 1444 : 	ASSERT_VALID(this);

  0000c	68 a4 05 00 00	 push	 1444			; 000005a4H
  00011	68 00 00 00 00	 push	 OFFSET ??_C@_0HC@HBCNBCLF@c?3?2program?5files?5?$CIx86?$CJ?2microsof@
  00016	8b 45 fc	 mov	 eax, DWORD PTR _this$[ebp]
  00019	50		 push	 eax
  0001a	e8 00 00 00 00	 call	 ?AfxAssertValidObject@@YGXPBVCObject@@PBDH@Z ; AfxAssertValidObject

; 1445 : 
; 1446 : 	if (m_pHashTable != NULL)

  0001f	8b 45 fc	 mov	 eax, DWORD PTR _this$[ebp]
  00022	83 78 04 00	 cmp	 DWORD PTR [eax+4], 0
  00026	74 60		 je	 SHORT $LN8@RemoveAll

; 1447 : 	{
; 1448 : 		// destroy elements (values and keys)
; 1449 : 		for (UINT nHash = 0; nHash < m_nHashTableSize; nHash++)

  00028	c7 45 f8 00 00
	00 00		 mov	 DWORD PTR _nHash$3[ebp], 0
  0002f	eb 09		 jmp	 SHORT $LN4@RemoveAll
$LN2@RemoveAll:
  00031	8b 45 f8	 mov	 eax, DWORD PTR _nHash$3[ebp]
  00034	83 c0 01	 add	 eax, 1
  00037	89 45 f8	 mov	 DWORD PTR _nHash$3[ebp], eax
$LN4@RemoveAll:
  0003a	8b 45 fc	 mov	 eax, DWORD PTR _this$[ebp]
  0003d	8b 4d f8	 mov	 ecx, DWORD PTR _nHash$3[ebp]
  00040	3b 48 08	 cmp	 ecx, DWORD PTR [eax+8]
  00043	73 24		 jae	 SHORT $LN3@RemoveAll

; 1450 : 		{
; 1451 : 			CAssoc* pAssoc;
; 1452 : 			for (pAssoc = m_pHashTable[nHash]; pAssoc != NULL;

  00045	8b 45 fc	 mov	 eax, DWORD PTR _this$[ebp]
  00048	8b 48 04	 mov	 ecx, DWORD PTR [eax+4]
  0004b	8b 55 f8	 mov	 edx, DWORD PTR _nHash$3[ebp]
  0004e	8b 04 91	 mov	 eax, DWORD PTR [ecx+edx*4]
  00051	89 45 f4	 mov	 DWORD PTR _pAssoc$2[ebp], eax
  00054	eb 09		 jmp	 SHORT $LN7@RemoveAll
$LN5@RemoveAll:

; 1453 : 			  pAssoc = pAssoc->pNext)

  00056	8b 45 f4	 mov	 eax, DWORD PTR _pAssoc$2[ebp]
  00059	8b 48 08	 mov	 ecx, DWORD PTR [eax+8]
  0005c	89 4d f4	 mov	 DWORD PTR _pAssoc$2[ebp], ecx
$LN7@RemoveAll:

; 1450 : 		{
; 1451 : 			CAssoc* pAssoc;
; 1452 : 			for (pAssoc = m_pHashTable[nHash]; pAssoc != NULL;

  0005f	83 7d f4 00	 cmp	 DWORD PTR _pAssoc$2[ebp], 0
  00063	74 02		 je	 SHORT $LN6@RemoveAll

; 1454 : 			{
; 1455 : 				pAssoc->CAssoc::~CAssoc();
; 1456 : 			}

  00065	eb ef		 jmp	 SHORT $LN5@RemoveAll
$LN6@RemoveAll:

; 1457 : 		}

  00067	eb c8		 jmp	 SHORT $LN2@RemoveAll
$LN3@RemoveAll:

; 1458 : 
; 1459 : 		// free hash table
; 1460 : 		delete[] m_pHashTable;

  00069	8b 45 fc	 mov	 eax, DWORD PTR _this$[ebp]
  0006c	8b 48 04	 mov	 ecx, DWORD PTR [eax+4]
  0006f	89 4d b0	 mov	 DWORD PTR $T1[ebp], ecx
  00072	8b 55 b0	 mov	 edx, DWORD PTR $T1[ebp]
  00075	52		 push	 edx
  00076	e8 00 00 00 00	 call	 ??_V@YAXPAX@Z		; operator delete[]
  0007b	83 c4 04	 add	 esp, 4

; 1461 : 		m_pHashTable = NULL;

  0007e	8b 45 fc	 mov	 eax, DWORD PTR _this$[ebp]
  00081	c7 40 04 00 00
	00 00		 mov	 DWORD PTR [eax+4], 0
$LN8@RemoveAll:

; 1462 : 	}
; 1463 : 
; 1464 : 	m_nCount = 0;

  00088	8b 45 fc	 mov	 eax, DWORD PTR _this$[ebp]
  0008b	c7 40 0c 00 00
	00 00		 mov	 DWORD PTR [eax+12], 0

; 1465 : 	m_pFreeList = NULL;

  00092	8b 45 fc	 mov	 eax, DWORD PTR _this$[ebp]
  00095	c7 40 10 00 00
	00 00		 mov	 DWORD PTR [eax+16], 0

; 1466 : 	m_pBlocks->FreeDataChain();

  0009c	8b 45 fc	 mov	 eax, DWORD PTR _this$[ebp]
  0009f	8b 48 14	 mov	 ecx, DWORD PTR [eax+20]
  000a2	e8 00 00 00 00	 call	 ?FreeDataChain@CPlex@@QAEXXZ ; CPlex::FreeDataChain

; 1467 : 	m_pBlocks = NULL;

  000a7	8b 45 fc	 mov	 eax, DWORD PTR _this$[ebp]
  000aa	c7 40 14 00 00
	00 00		 mov	 DWORD PTR [eax+20], 0

; 1468 : }

  000b1	5f		 pop	 edi
  000b2	5e		 pop	 esi
  000b3	5b		 pop	 ebx
  000b4	8b e5		 mov	 esp, ebp
  000b6	5d		 pop	 ebp
  000b7	c3		 ret	 0
?RemoveAll@?$CMap@KKPAVCGamePropertySubItem@NGamePropertyListManager@@AAPAV12@@@QAEXXZ ENDP ; CMap<unsigned long,unsigned long,NGamePropertyListManager::CGamePropertySubItem *,NGamePropertyListManager::CGamePropertySubItem * &>::RemoveAll
_TEXT	ENDS
; Function compile flags: /Odtp /ZI
; File c:\program files (x86)\microsoft visual studio\2017\community\vc\tools\msvc\14.16.27023\atlmfc\include\afxtempl.h
;	COMDAT ?RemoveKey@?$CMap@KKPAVCGamePropertySubItem@NGamePropertyListManager@@AAPAV12@@@QAEHK@Z
_TEXT	SEGMENT
_pAssoc$ = -16						; size = 4
_ppAssocPrev$ = -12					; size = 4
_nHashValue$ = -8					; size = 4
_this$ = -4						; size = 4
_key$ = 8						; size = 4
?RemoveKey@?$CMap@KKPAVCGamePropertySubItem@NGamePropertyListManager@@AAPAV12@@@QAEHK@Z PROC ; CMap<unsigned long,unsigned long,NGamePropertyListManager::CGamePropertySubItem *,NGamePropertyListManager::CGamePropertySubItem * &>::RemoveKey, COMDAT
; _this$ = ecx

; 1611 : {

  00000	55		 push	 ebp
  00001	8b ec		 mov	 ebp, esp
  00003	83 ec 50	 sub	 esp, 80			; 00000050H
  00006	53		 push	 ebx
  00007	56		 push	 esi
  00008	57		 push	 edi
  00009	89 4d fc	 mov	 DWORD PTR _this$[ebp], ecx

; 1612 : 	ASSERT_VALID(this);

  0000c	68 4c 06 00 00	 push	 1612			; 0000064cH
  00011	68 00 00 00 00	 push	 OFFSET ??_C@_0HC@HBCNBCLF@c?3?2program?5files?5?$CIx86?$CJ?2microsof@
  00016	8b 45 fc	 mov	 eax, DWORD PTR _this$[ebp]
  00019	50		 push	 eax
  0001a	e8 00 00 00 00	 call	 ?AfxAssertValidObject@@YGXPBVCObject@@PBDH@Z ; AfxAssertValidObject

; 1613 : 
; 1614 : 	if (m_pHashTable == NULL)

  0001f	8b 45 fc	 mov	 eax, DWORD PTR _this$[ebp]
  00022	83 78 04 00	 cmp	 DWORD PTR [eax+4], 0
  00026	75 07		 jne	 SHORT $LN5@RemoveKey

; 1615 : 		return FALSE;  // nothing in the table

  00028	33 c0		 xor	 eax, eax
  0002a	e9 83 00 00 00	 jmp	 $LN1@RemoveKey
$LN5@RemoveKey:

; 1616 : 
; 1617 : 	UINT nHashValue;
; 1618 : 	CAssoc** ppAssocPrev;
; 1619 : 	nHashValue = HashKey<ARG_KEY>(key);

  0002f	8b 45 08	 mov	 eax, DWORD PTR _key$[ebp]
  00032	50		 push	 eax
  00033	e8 00 00 00 00	 call	 ??$HashKey@K@@YGIK@Z	; HashKey<unsigned long>
  00038	89 45 f8	 mov	 DWORD PTR _nHashValue$[ebp], eax

; 1620 : 	ppAssocPrev = &m_pHashTable[nHashValue%m_nHashTableSize];

  0003b	8b 4d fc	 mov	 ecx, DWORD PTR _this$[ebp]
  0003e	8b 45 f8	 mov	 eax, DWORD PTR _nHashValue$[ebp]
  00041	33 d2		 xor	 edx, edx
  00043	f7 71 08	 div	 DWORD PTR [ecx+8]
  00046	8b 45 fc	 mov	 eax, DWORD PTR _this$[ebp]
  00049	8b 48 04	 mov	 ecx, DWORD PTR [eax+4]
  0004c	8d 14 91	 lea	 edx, DWORD PTR [ecx+edx*4]
  0004f	89 55 f4	 mov	 DWORD PTR _ppAssocPrev$[ebp], edx

; 1621 : 
; 1622 : 	CAssoc* pAssoc;
; 1623 : 	for (pAssoc = *ppAssocPrev; pAssoc != NULL; pAssoc = pAssoc->pNext)

  00052	8b 45 f4	 mov	 eax, DWORD PTR _ppAssocPrev$[ebp]
  00055	8b 08		 mov	 ecx, DWORD PTR [eax]
  00057	89 4d f0	 mov	 DWORD PTR _pAssoc$[ebp], ecx
  0005a	eb 09		 jmp	 SHORT $LN4@RemoveKey
$LN2@RemoveKey:
  0005c	8b 45 f0	 mov	 eax, DWORD PTR _pAssoc$[ebp]
  0005f	8b 48 08	 mov	 ecx, DWORD PTR [eax+8]
  00062	89 4d f0	 mov	 DWORD PTR _pAssoc$[ebp], ecx
$LN4@RemoveKey:
  00065	83 7d f0 00	 cmp	 DWORD PTR _pAssoc$[ebp], 0
  00069	74 45		 je	 SHORT $LN3@RemoveKey

; 1624 : 	{
; 1625 : 		if ((pAssoc->nHashValue == nHashValue) && CompareElements(&pAssoc->key, &key))

  0006b	8b 45 f0	 mov	 eax, DWORD PTR _pAssoc$[ebp]
  0006e	8b 48 0c	 mov	 ecx, DWORD PTR [eax+12]
  00071	3b 4d f8	 cmp	 ecx, DWORD PTR _nHashValue$[ebp]
  00074	75 2f		 jne	 SHORT $LN6@RemoveKey
  00076	8d 45 08	 lea	 eax, DWORD PTR _key$[ebp]
  00079	50		 push	 eax
  0007a	8b 4d f0	 mov	 ecx, DWORD PTR _pAssoc$[ebp]
  0007d	51		 push	 ecx
  0007e	e8 00 00 00 00	 call	 ??$CompareElements@KK@@YGHPBK0@Z ; CompareElements<unsigned long,unsigned long>
  00083	85 c0		 test	 eax, eax
  00085	74 1e		 je	 SHORT $LN6@RemoveKey

; 1626 : 		{
; 1627 : 			// remove it
; 1628 : 			*ppAssocPrev = pAssoc->pNext;  // remove from list

  00087	8b 45 f4	 mov	 eax, DWORD PTR _ppAssocPrev$[ebp]
  0008a	8b 4d f0	 mov	 ecx, DWORD PTR _pAssoc$[ebp]
  0008d	8b 51 08	 mov	 edx, DWORD PTR [ecx+8]
  00090	89 10		 mov	 DWORD PTR [eax], edx

; 1629 : 			FreeAssoc(pAssoc);

  00092	8b 45 f0	 mov	 eax, DWORD PTR _pAssoc$[ebp]
  00095	50		 push	 eax
  00096	8b 4d fc	 mov	 ecx, DWORD PTR _this$[ebp]
  00099	e8 00 00 00 00	 call	 ?FreeAssoc@?$CMap@KKPAVCGamePropertySubItem@NGamePropertyListManager@@AAPAV12@@@IAEXPAVCAssoc@1@@Z ; CMap<unsigned long,unsigned long,NGamePropertyListManager::CGamePropertySubItem *,NGamePropertyListManager::CGamePropertySubItem * &>::FreeAssoc

; 1630 : 			return TRUE;

  0009e	b8 01 00 00 00	 mov	 eax, 1
  000a3	eb 0d		 jmp	 SHORT $LN1@RemoveKey
$LN6@RemoveKey:

; 1631 : 		}
; 1632 : 		ppAssocPrev = &pAssoc->pNext;

  000a5	8b 45 f0	 mov	 eax, DWORD PTR _pAssoc$[ebp]
  000a8	83 c0 08	 add	 eax, 8
  000ab	89 45 f4	 mov	 DWORD PTR _ppAssocPrev$[ebp], eax

; 1633 : 	}

  000ae	eb ac		 jmp	 SHORT $LN2@RemoveKey
$LN3@RemoveKey:

; 1634 : 	return FALSE;  // not found

  000b0	33 c0		 xor	 eax, eax
$LN1@RemoveKey:

; 1635 : }

  000b2	5f		 pop	 edi
  000b3	5e		 pop	 esi
  000b4	5b		 pop	 ebx
  000b5	8b e5		 mov	 esp, ebp
  000b7	5d		 pop	 ebp
  000b8	c2 04 00	 ret	 4
?RemoveKey@?$CMap@KKPAVCGamePropertySubItem@NGamePropertyListManager@@AAPAV12@@@QAEHK@Z ENDP ; CMap<unsigned long,unsigned long,NGamePropertyListManager::CGamePropertySubItem *,NGamePropertyListManager::CGamePropertySubItem * &>::RemoveKey
_TEXT	ENDS
; Function compile flags: /Odtp /ZI
; File c:\program files (x86)\microsoft visual studio\2017\community\vc\tools\msvc\14.16.27023\atlmfc\include\afxtempl.h
;	COMDAT ?SetAt@?$CMap@KKPAVCGamePropertySubItem@NGamePropertyListManager@@AAPAV12@@@QAEXKAAPAVCGamePropertySubItem@NGamePropertyListManager@@@Z
_TEXT	SEGMENT
_this$ = -4						; size = 4
_key$ = 8						; size = 4
_newValue$ = 12						; size = 4
?SetAt@?$CMap@KKPAVCGamePropertySubItem@NGamePropertyListManager@@AAPAV12@@@QAEXKAAPAVCGamePropertySubItem@NGamePropertyListManager@@@Z PROC ; CMap<unsigned long,unsigned long,NGamePropertyListManager::CGamePropertySubItem *,NGamePropertyListManager::CGamePropertySubItem * &>::SetAt, COMDAT
; _this$ = ecx

; 1350 : 	{ (*this)[key] = newValue; }

  00000	55		 push	 ebp
  00001	8b ec		 mov	 ebp, esp
  00003	83 ec 44	 sub	 esp, 68			; 00000044H
  00006	53		 push	 ebx
  00007	56		 push	 esi
  00008	57		 push	 edi
  00009	89 4d fc	 mov	 DWORD PTR _this$[ebp], ecx
  0000c	8b 45 08	 mov	 eax, DWORD PTR _key$[ebp]
  0000f	50		 push	 eax
  00010	8b 4d fc	 mov	 ecx, DWORD PTR _this$[ebp]
  00013	e8 00 00 00 00	 call	 ??A?$CMap@KKPAVCGamePropertySubItem@NGamePropertyListManager@@AAPAV12@@@QAEAAPAVCGamePropertySubItem@NGamePropertyListManager@@K@Z ; CMap<unsigned long,unsigned long,NGamePropertyListManager::CGamePropertySubItem *,NGamePropertyListManager::CGamePropertySubItem * &>::operator[]
  00018	8b 4d 0c	 mov	 ecx, DWORD PTR _newValue$[ebp]
  0001b	8b 11		 mov	 edx, DWORD PTR [ecx]
  0001d	89 10		 mov	 DWORD PTR [eax], edx
  0001f	5f		 pop	 edi
  00020	5e		 pop	 esi
  00021	5b		 pop	 ebx
  00022	8b e5		 mov	 esp, ebp
  00024	5d		 pop	 ebp
  00025	c2 08 00	 ret	 8
?SetAt@?$CMap@KKPAVCGamePropertySubItem@NGamePropertyListManager@@AAPAV12@@@QAEXKAAPAVCGamePropertySubItem@NGamePropertyListManager@@@Z ENDP ; CMap<unsigned long,unsigned long,NGamePropertyListManager::CGamePropertySubItem *,NGamePropertyListManager::CGamePropertySubItem * &>::SetAt
_TEXT	ENDS
; Function compile flags: /Odtp /ZI
; File c:\program files (x86)\microsoft visual studio\2017\community\vc\tools\msvc\14.16.27023\atlmfc\include\afxtempl.h
;	COMDAT ??A?$CMap@KKPAVCGamePropertySubItem@NGamePropertyListManager@@AAPAV12@@@QAEAAPAVCGamePropertySubItem@NGamePropertyListManager@@K@Z
_TEXT	SEGMENT
tv85 = -88						; size = 4
___afx_condVal$1 = -20					; size = 4
_pAssoc$ = -16						; size = 4
_nHashValue$ = -12					; size = 4
_nHashBucket$ = -8					; size = 4
_this$ = -4						; size = 4
_key$ = 8						; size = 4
??A?$CMap@KKPAVCGamePropertySubItem@NGamePropertyListManager@@AAPAV12@@@QAEAAPAVCGamePropertySubItem@NGamePropertyListManager@@K@Z PROC ; CMap<unsigned long,unsigned long,NGamePropertyListManager::CGamePropertySubItem *,NGamePropertyListManager::CGamePropertySubItem * &>::operator[], COMDAT
; _this$ = ecx

; 1585 : {

  00000	55		 push	 ebp
  00001	8b ec		 mov	 ebp, esp
  00003	83 ec 58	 sub	 esp, 88			; 00000058H
  00006	53		 push	 ebx
  00007	56		 push	 esi
  00008	57		 push	 edi
  00009	89 4d fc	 mov	 DWORD PTR _this$[ebp], ecx

; 1586 : 	ASSERT_VALID(this);

  0000c	68 32 06 00 00	 push	 1586			; 00000632H
  00011	68 00 00 00 00	 push	 OFFSET ??_C@_0HC@HBCNBCLF@c?3?2program?5files?5?$CIx86?$CJ?2microsof@
  00016	8b 45 fc	 mov	 eax, DWORD PTR _this$[ebp]
  00019	50		 push	 eax
  0001a	e8 00 00 00 00	 call	 ?AfxAssertValidObject@@YGXPBVCObject@@PBDH@Z ; AfxAssertValidObject

; 1587 : 
; 1588 : 	UINT nHashBucket, nHashValue;
; 1589 : 	CAssoc* pAssoc;
; 1590 : 	if ((pAssoc = GetAssocAt(key, nHashBucket, nHashValue)) == NULL)

  0001f	8d 45 f4	 lea	 eax, DWORD PTR _nHashValue$[ebp]
  00022	50		 push	 eax
  00023	8d 4d f8	 lea	 ecx, DWORD PTR _nHashBucket$[ebp]
  00026	51		 push	 ecx
  00027	8b 55 08	 mov	 edx, DWORD PTR _key$[ebp]
  0002a	52		 push	 edx
  0002b	8b 4d fc	 mov	 ecx, DWORD PTR _this$[ebp]
  0002e	e8 00 00 00 00	 call	 ?GetAssocAt@?$CMap@KKPAVCGamePropertySubItem@NGamePropertyListManager@@AAPAV12@@@IBEPAVCAssoc@1@KAAI0@Z ; CMap<unsigned long,unsigned long,NGamePropertyListManager::CGamePropertySubItem *,NGamePropertyListManager::CGamePropertySubItem * &>::GetAssocAt
  00033	89 45 f0	 mov	 DWORD PTR _pAssoc$[ebp], eax
  00036	83 7d f0 00	 cmp	 DWORD PTR _pAssoc$[ebp], 0
  0003a	0f 85 9b 00 00
	00		 jne	 $LN5@operator

; 1591 : 	{
; 1592 : 		if (m_pHashTable == NULL)

  00040	8b 45 fc	 mov	 eax, DWORD PTR _this$[ebp]
  00043	83 78 04 00	 cmp	 DWORD PTR [eax+4], 0
  00047	75 11		 jne	 SHORT $LN4@operator

; 1593 : 			InitHashTable(m_nHashTableSize);

  00049	6a 01		 push	 1
  0004b	8b 45 fc	 mov	 eax, DWORD PTR _this$[ebp]
  0004e	8b 48 08	 mov	 ecx, DWORD PTR [eax+8]
  00051	51		 push	 ecx
  00052	8b 4d fc	 mov	 ecx, DWORD PTR _this$[ebp]
  00055	e8 00 00 00 00	 call	 ?InitHashTable@?$CMap@KKPAVCGamePropertySubItem@NGamePropertyListManager@@AAPAV12@@@QAEXIH@Z ; CMap<unsigned long,unsigned long,NGamePropertyListManager::CGamePropertySubItem *,NGamePropertyListManager::CGamePropertySubItem * &>::InitHashTable
$LN4@operator:

; 1594 : 
; 1595 : 		ENSURE(m_pHashTable);

  0005a	8b 45 fc	 mov	 eax, DWORD PTR _this$[ebp]
  0005d	83 78 04 00	 cmp	 DWORD PTR [eax+4], 0
  00061	74 09		 je	 SHORT $LN9@operator
  00063	c7 45 a8 01 00
	00 00		 mov	 DWORD PTR tv85[ebp], 1
  0006a	eb 07		 jmp	 SHORT $LN10@operator
$LN9@operator:
  0006c	c7 45 a8 00 00
	00 00		 mov	 DWORD PTR tv85[ebp], 0
$LN10@operator:
  00073	8b 4d a8	 mov	 ecx, DWORD PTR tv85[ebp]
  00076	89 4d ec	 mov	 DWORD PTR ___afx_condVal$1[ebp], ecx
  00079	83 7d ec 00	 cmp	 DWORD PTR ___afx_condVal$1[ebp], 0
  0007d	75 14		 jne	 SHORT $LN11@operator
  0007f	68 3b 06 00 00	 push	 1595			; 0000063bH
  00084	68 00 00 00 00	 push	 OFFSET ??_C@_0HC@HBCNBCLF@c?3?2program?5files?5?$CIx86?$CJ?2microsof@
  00089	e8 00 00 00 00	 call	 ?AfxAssertFailedLine@@YGHPBDH@Z ; AfxAssertFailedLine
  0008e	85 c0		 test	 eax, eax
  00090	74 01		 je	 SHORT $LN11@operator
  00092	cc		 int	 3
$LN11@operator:
  00093	83 7d ec 00	 cmp	 DWORD PTR ___afx_condVal$1[ebp], 0
  00097	75 05		 jne	 SHORT $LN2@operator
  00099	e8 00 00 00 00	 call	 ?AfxThrowInvalidArgException@@YGXXZ ; AfxThrowInvalidArgException
$LN2@operator:
  0009e	33 c0		 xor	 eax, eax
  000a0	75 b8		 jne	 SHORT $LN4@operator

; 1596 : 		// it doesn't exist, add a new Association
; 1597 : 		pAssoc = NewAssoc(key);

  000a2	8b 45 08	 mov	 eax, DWORD PTR _key$[ebp]
  000a5	50		 push	 eax
  000a6	8b 4d fc	 mov	 ecx, DWORD PTR _this$[ebp]
  000a9	e8 00 00 00 00	 call	 ?NewAssoc@?$CMap@KKPAVCGamePropertySubItem@NGamePropertyListManager@@AAPAV12@@@IAEPAVCAssoc@1@K@Z ; CMap<unsigned long,unsigned long,NGamePropertyListManager::CGamePropertySubItem *,NGamePropertyListManager::CGamePropertySubItem * &>::NewAssoc
  000ae	89 45 f0	 mov	 DWORD PTR _pAssoc$[ebp], eax

; 1598 : 		pAssoc->nHashValue = nHashValue;

  000b1	8b 45 f0	 mov	 eax, DWORD PTR _pAssoc$[ebp]
  000b4	8b 4d f4	 mov	 ecx, DWORD PTR _nHashValue$[ebp]
  000b7	89 48 0c	 mov	 DWORD PTR [eax+12], ecx

; 1599 : 		//'pAssoc->value' is a constructed object, nothing more
; 1600 : 
; 1601 : 		// put into hash table
; 1602 : 		pAssoc->pNext = m_pHashTable[nHashBucket];

  000ba	8b 45 fc	 mov	 eax, DWORD PTR _this$[ebp]
  000bd	8b 48 04	 mov	 ecx, DWORD PTR [eax+4]
  000c0	8b 55 f0	 mov	 edx, DWORD PTR _pAssoc$[ebp]
  000c3	8b 45 f8	 mov	 eax, DWORD PTR _nHashBucket$[ebp]
  000c6	8b 0c 81	 mov	 ecx, DWORD PTR [ecx+eax*4]
  000c9	89 4a 08	 mov	 DWORD PTR [edx+8], ecx

; 1603 : 		m_pHashTable[nHashBucket] = pAssoc;

  000cc	8b 45 fc	 mov	 eax, DWORD PTR _this$[ebp]
  000cf	8b 48 04	 mov	 ecx, DWORD PTR [eax+4]
  000d2	8b 55 f8	 mov	 edx, DWORD PTR _nHashBucket$[ebp]
  000d5	8b 45 f0	 mov	 eax, DWORD PTR _pAssoc$[ebp]
  000d8	89 04 91	 mov	 DWORD PTR [ecx+edx*4], eax
$LN5@operator:

; 1604 : 	}
; 1605 : 	return pAssoc->value;  // return new reference

  000db	8b 45 f0	 mov	 eax, DWORD PTR _pAssoc$[ebp]
  000de	83 c0 04	 add	 eax, 4
$LN8@operator:

; 1606 : }

  000e1	5f		 pop	 edi
  000e2	5e		 pop	 esi
  000e3	5b		 pop	 ebx
  000e4	8b e5		 mov	 esp, ebp
  000e6	5d		 pop	 ebp
  000e7	c2 04 00	 ret	 4
??A?$CMap@KKPAVCGamePropertySubItem@NGamePropertyListManager@@AAPAV12@@@QAEAAPAVCGamePropertySubItem@NGamePropertyListManager@@K@Z ENDP ; CMap<unsigned long,unsigned long,NGamePropertyListManager::CGamePropertySubItem *,NGamePropertyListManager::CGamePropertySubItem * &>::operator[]
_TEXT	ENDS
; Function compile flags: /Odtp /ZI
; File c:\program files (x86)\microsoft visual studio\2017\community\vc\tools\msvc\14.16.27023\atlmfc\include\afxtempl.h
;	COMDAT ??0?$CMap@KKPAVCGamePropertySubItem@NGamePropertyListManager@@AAPAV12@@@QAE@H@Z
_TEXT	SEGMENT
_this$ = -16						; size = 4
__$EHRec$ = -12						; size = 12
_nBlockSize$ = 8					; size = 4
??0?$CMap@KKPAVCGamePropertySubItem@NGamePropertyListManager@@AAPAV12@@@QAE@H@Z PROC ; CMap<unsigned long,unsigned long,NGamePropertyListManager::CGamePropertySubItem *,NGamePropertyListManager::CGamePropertySubItem * &>::CMap<unsigned long,unsigned long,NGamePropertyListManager::CGamePropertySubItem *,NGamePropertyListManager::CGamePropertySubItem * &>, COMDAT
; _this$ = ecx

; 1403 : {

  00000	55		 push	 ebp
  00001	8b ec		 mov	 ebp, esp
  00003	6a ff		 push	 -1
  00005	68 00 00 00 00	 push	 __ehhandler$??0?$CMap@KKPAVCGamePropertySubItem@NGamePropertyListManager@@AAPAV12@@@QAE@H@Z
  0000a	64 a1 00 00 00
	00		 mov	 eax, DWORD PTR fs:0
  00010	50		 push	 eax
  00011	83 ec 44	 sub	 esp, 68			; 00000044H
  00014	53		 push	 ebx
  00015	56		 push	 esi
  00016	57		 push	 edi
  00017	a1 00 00 00 00	 mov	 eax, DWORD PTR ___security_cookie
  0001c	33 c5		 xor	 eax, ebp
  0001e	50		 push	 eax
  0001f	8d 45 f4	 lea	 eax, DWORD PTR __$EHRec$[ebp]
  00022	64 a3 00 00 00
	00		 mov	 DWORD PTR fs:0, eax
  00028	89 4d f0	 mov	 DWORD PTR _this$[ebp], ecx
  0002b	8b 4d f0	 mov	 ecx, DWORD PTR _this$[ebp]
  0002e	e8 00 00 00 00	 call	 ??0CObject@@IAE@XZ	; CObject::CObject
  00033	c7 45 fc 00 00
	00 00		 mov	 DWORD PTR __$EHRec$[ebp+8], 0
  0003a	8b 45 f0	 mov	 eax, DWORD PTR _this$[ebp]
  0003d	c7 00 00 00 00
	00		 mov	 DWORD PTR [eax], OFFSET ??_7?$CMap@KKPAVCGamePropertySubItem@NGamePropertyListManager@@AAPAV12@@@6B@

; 1404 : 	ASSERT(nBlockSize > 0);

  00043	83 7d 08 00	 cmp	 DWORD PTR _nBlockSize$[ebp], 0
  00047	7f 14		 jg	 SHORT $LN3@CMap
  00049	68 7c 05 00 00	 push	 1404			; 0000057cH
  0004e	68 00 00 00 00	 push	 OFFSET ??_C@_0HC@HBCNBCLF@c?3?2program?5files?5?$CIx86?$CJ?2microsof@
  00053	e8 00 00 00 00	 call	 ?AfxAssertFailedLine@@YGHPBDH@Z ; AfxAssertFailedLine
  00058	85 c0		 test	 eax, eax
  0005a	74 01		 je	 SHORT $LN3@CMap
  0005c	cc		 int	 3
$LN3@CMap:

; 1405 : 
; 1406 : 	m_pHashTable = NULL;

  0005d	8b 45 f0	 mov	 eax, DWORD PTR _this$[ebp]
  00060	c7 40 04 00 00
	00 00		 mov	 DWORD PTR [eax+4], 0

; 1407 : 	m_nHashTableSize = 17;  // default size

  00067	8b 45 f0	 mov	 eax, DWORD PTR _this$[ebp]
  0006a	c7 40 08 11 00
	00 00		 mov	 DWORD PTR [eax+8], 17	; 00000011H

; 1408 : 	m_nCount = 0;

  00071	8b 45 f0	 mov	 eax, DWORD PTR _this$[ebp]
  00074	c7 40 0c 00 00
	00 00		 mov	 DWORD PTR [eax+12], 0

; 1409 : 	m_pFreeList = NULL;

  0007b	8b 45 f0	 mov	 eax, DWORD PTR _this$[ebp]
  0007e	c7 40 10 00 00
	00 00		 mov	 DWORD PTR [eax+16], 0

; 1410 : 	m_pBlocks = NULL;

  00085	8b 45 f0	 mov	 eax, DWORD PTR _this$[ebp]
  00088	c7 40 14 00 00
	00 00		 mov	 DWORD PTR [eax+20], 0

; 1411 : 	m_nBlockSize = nBlockSize;

  0008f	8b 45 f0	 mov	 eax, DWORD PTR _this$[ebp]
  00092	8b 4d 08	 mov	 ecx, DWORD PTR _nBlockSize$[ebp]
  00095	89 48 18	 mov	 DWORD PTR [eax+24], ecx

; 1412 : }

  00098	c7 45 fc ff ff
	ff ff		 mov	 DWORD PTR __$EHRec$[ebp+8], -1
  0009f	8b 45 f0	 mov	 eax, DWORD PTR _this$[ebp]
  000a2	8b 4d f4	 mov	 ecx, DWORD PTR __$EHRec$[ebp]
  000a5	64 89 0d 00 00
	00 00		 mov	 DWORD PTR fs:0, ecx
  000ac	59		 pop	 ecx
  000ad	5f		 pop	 edi
  000ae	5e		 pop	 esi
  000af	5b		 pop	 ebx
  000b0	8b e5		 mov	 esp, ebp
  000b2	5d		 pop	 ebp
  000b3	c2 04 00	 ret	 4
_TEXT	ENDS
;	COMDAT text$x
text$x	SEGMENT
__unwindfunclet$??0?$CMap@KKPAVCGamePropertySubItem@NGamePropertyListManager@@AAPAV12@@@QAE@H@Z$0:
  00000	8b 4d f0	 mov	 ecx, DWORD PTR _this$[ebp]
  00003	e9 00 00 00 00	 jmp	 ??1CObject@@UAE@XZ	; CObject::~CObject
__ehhandler$??0?$CMap@KKPAVCGamePropertySubItem@NGamePropertyListManager@@AAPAV12@@@QAE@H@Z:
  00008	8b 54 24 08	 mov	 edx, DWORD PTR [esp+8]
  0000c	8d 42 0c	 lea	 eax, DWORD PTR [edx+12]
  0000f	8b 4a ac	 mov	 ecx, DWORD PTR [edx-84]
  00012	33 c8		 xor	 ecx, eax
  00014	e8 00 00 00 00	 call	 @__security_check_cookie@4
  00019	b8 00 00 00 00	 mov	 eax, OFFSET __ehfuncinfo$??0?$CMap@KKPAVCGamePropertySubItem@NGamePropertyListManager@@AAPAV12@@@QAE@H@Z
  0001e	e9 00 00 00 00	 jmp	 ___CxxFrameHandler3
text$x	ENDS
??0?$CMap@KKPAVCGamePropertySubItem@NGamePropertyListManager@@AAPAV12@@@QAE@H@Z ENDP ; CMap<unsigned long,unsigned long,NGamePropertyListManager::CGamePropertySubItem *,NGamePropertyListManager::CGamePropertySubItem * &>::CMap<unsigned long,unsigned long,NGamePropertyListManager::CGamePropertySubItem *,NGamePropertyListManager::CGamePropertySubItem * &>
; Function compile flags: /Odtp /ZI
;	COMDAT ??_G?$CMap@KKPAVCGamePropertyItem@NGamePropertyListManager@@AAPAV12@@@UAEPAXI@Z
_TEXT	SEGMENT
_this$ = -4						; size = 4
___flags$ = 8						; size = 4
??_G?$CMap@KKPAVCGamePropertyItem@NGamePropertyListManager@@AAPAV12@@@UAEPAXI@Z PROC ; CMap<unsigned long,unsigned long,NGamePropertyListManager::CGamePropertyItem *,NGamePropertyListManager::CGamePropertyItem * &>::`scalar deleting destructor', COMDAT
; _this$ = ecx
  00000	55		 push	 ebp
  00001	8b ec		 mov	 ebp, esp
  00003	83 ec 44	 sub	 esp, 68			; 00000044H
  00006	53		 push	 ebx
  00007	56		 push	 esi
  00008	57		 push	 edi
  00009	89 4d fc	 mov	 DWORD PTR _this$[ebp], ecx
  0000c	8b 4d fc	 mov	 ecx, DWORD PTR _this$[ebp]
  0000f	e8 00 00 00 00	 call	 ??1?$CMap@KKPAVCGamePropertyItem@NGamePropertyListManager@@AAPAV12@@@UAE@XZ ; CMap<unsigned long,unsigned long,NGamePropertyListManager::CGamePropertyItem *,NGamePropertyListManager::CGamePropertyItem * &>::~CMap<unsigned long,unsigned long,NGamePropertyListManager::CGamePropertyItem *,NGamePropertyListManager::CGamePropertyItem * &>
  00014	8b 45 08	 mov	 eax, DWORD PTR ___flags$[ebp]
  00017	83 e0 01	 and	 eax, 1
  0001a	74 21		 je	 SHORT $LN2@scalar
  0001c	8b 45 08	 mov	 eax, DWORD PTR ___flags$[ebp]
  0001f	83 e0 04	 and	 eax, 4
  00022	75 0b		 jne	 SHORT $LN3@scalar
  00024	8b 45 fc	 mov	 eax, DWORD PTR _this$[ebp]
  00027	50		 push	 eax
  00028	e8 00 00 00 00	 call	 ??3CObject@@SGXPAX@Z	; CObject::operator delete
  0002d	eb 0e		 jmp	 SHORT $LN2@scalar
$LN3@scalar:
  0002f	6a 1c		 push	 28			; 0000001cH
  00031	8b 45 fc	 mov	 eax, DWORD PTR _this$[ebp]
  00034	50		 push	 eax
  00035	e8 00 00 00 00	 call	 ?__global_delete@@YAXPAXI@Z ; __global_delete
  0003a	83 c4 08	 add	 esp, 8
$LN2@scalar:
  0003d	8b 45 fc	 mov	 eax, DWORD PTR _this$[ebp]
  00040	5f		 pop	 edi
  00041	5e		 pop	 esi
  00042	5b		 pop	 ebx
  00043	8b e5		 mov	 esp, ebp
  00045	5d		 pop	 ebp
  00046	c2 04 00	 ret	 4
??_G?$CMap@KKPAVCGamePropertyItem@NGamePropertyListManager@@AAPAV12@@@UAEPAXI@Z ENDP ; CMap<unsigned long,unsigned long,NGamePropertyListManager::CGamePropertyItem *,NGamePropertyListManager::CGamePropertyItem * &>::`scalar deleting destructor'
_TEXT	ENDS
; Function compile flags: /Odtp /ZI
; File c:\program files (x86)\microsoft visual studio\2017\community\vc\tools\msvc\14.16.27023\atlmfc\include\afxtempl.h
;	COMDAT ?AssertValid@?$CMap@KKPAVCGamePropertyItem@NGamePropertyListManager@@AAPAV12@@@UBEXXZ
_TEXT	SEGMENT
_this$ = -4						; size = 4
?AssertValid@?$CMap@KKPAVCGamePropertyItem@NGamePropertyListManager@@AAPAV12@@@UBEXXZ PROC ; CMap<unsigned long,unsigned long,NGamePropertyListManager::CGamePropertyItem *,NGamePropertyListManager::CGamePropertyItem * &>::AssertValid, COMDAT
; _this$ = ecx

; 1820 : {

  00000	55		 push	 ebp
  00001	8b ec		 mov	 ebp, esp
  00003	83 ec 44	 sub	 esp, 68			; 00000044H
  00006	53		 push	 ebx
  00007	56		 push	 esi
  00008	57		 push	 edi
  00009	89 4d fc	 mov	 DWORD PTR _this$[ebp], ecx

; 1821 : 	CObject::AssertValid();

  0000c	8b 4d fc	 mov	 ecx, DWORD PTR _this$[ebp]
  0000f	e8 00 00 00 00	 call	 ?AssertValid@CObject@@UBEXXZ ; CObject::AssertValid

; 1822 : 
; 1823 : 	ASSERT(m_nHashTableSize > 0);

  00014	8b 45 fc	 mov	 eax, DWORD PTR _this$[ebp]
  00017	83 78 08 00	 cmp	 DWORD PTR [eax+8], 0
  0001b	77 14		 ja	 SHORT $LN3@AssertVali
  0001d	68 1f 07 00 00	 push	 1823			; 0000071fH
  00022	68 00 00 00 00	 push	 OFFSET ??_C@_0HC@HBCNBCLF@c?3?2program?5files?5?$CIx86?$CJ?2microsof@
  00027	e8 00 00 00 00	 call	 ?AfxAssertFailedLine@@YGHPBDH@Z ; AfxAssertFailedLine
  0002c	85 c0		 test	 eax, eax
  0002e	74 01		 je	 SHORT $LN3@AssertVali
  00030	cc		 int	 3
$LN3@AssertVali:

; 1824 : 	ASSERT(m_nCount == 0 || m_pHashTable != NULL);

  00031	8b 45 fc	 mov	 eax, DWORD PTR _this$[ebp]
  00034	83 78 0c 00	 cmp	 DWORD PTR [eax+12], 0
  00038	74 1d		 je	 SHORT $LN1@AssertVali
  0003a	8b 4d fc	 mov	 ecx, DWORD PTR _this$[ebp]
  0003d	83 79 04 00	 cmp	 DWORD PTR [ecx+4], 0
  00041	75 14		 jne	 SHORT $LN1@AssertVali
  00043	68 20 07 00 00	 push	 1824			; 00000720H
  00048	68 00 00 00 00	 push	 OFFSET ??_C@_0HC@HBCNBCLF@c?3?2program?5files?5?$CIx86?$CJ?2microsof@
  0004d	e8 00 00 00 00	 call	 ?AfxAssertFailedLine@@YGHPBDH@Z ; AfxAssertFailedLine
  00052	85 c0		 test	 eax, eax
  00054	74 01		 je	 SHORT $LN1@AssertVali
  00056	cc		 int	 3
$LN1@AssertVali:

; 1825 : 		// non-empty map should have hash table
; 1826 : }

  00057	5f		 pop	 edi
  00058	5e		 pop	 esi
  00059	5b		 pop	 ebx
  0005a	8b e5		 mov	 esp, ebp
  0005c	5d		 pop	 ebp
  0005d	c3		 ret	 0
?AssertValid@?$CMap@KKPAVCGamePropertyItem@NGamePropertyListManager@@AAPAV12@@@UBEXXZ ENDP ; CMap<unsigned long,unsigned long,NGamePropertyListManager::CGamePropertyItem *,NGamePropertyListManager::CGamePropertyItem * &>::AssertValid
_TEXT	ENDS
; Function compile flags: /Odtp /ZI
; File c:\program files (x86)\microsoft visual studio\2017\community\vc\tools\msvc\14.16.27023\atlmfc\include\afxtempl.h
;	COMDAT ?Dump@?$CMap@KKPAVCGamePropertyItem@NGamePropertyListManager@@AAPAV12@@@UBEXAAVCDumpContext@@@Z
_TEXT	SEGMENT
_pos$1 = -16						; size = 4
_val$2 = -12						; size = 4
_key$3 = -8						; size = 4
_this$ = -4						; size = 4
_dc$ = 8						; size = 4
?Dump@?$CMap@KKPAVCGamePropertyItem@NGamePropertyListManager@@AAPAV12@@@UBEXAAVCDumpContext@@@Z PROC ; CMap<unsigned long,unsigned long,NGamePropertyListManager::CGamePropertyItem *,NGamePropertyListManager::CGamePropertyItem * &>::Dump, COMDAT
; _this$ = ecx

; 1794 : {

  00000	55		 push	 ebp
  00001	8b ec		 mov	 ebp, esp
  00003	83 ec 50	 sub	 esp, 80			; 00000050H
  00006	53		 push	 ebx
  00007	56		 push	 esi
  00008	57		 push	 edi
  00009	89 4d fc	 mov	 DWORD PTR _this$[ebp], ecx

; 1795 : 	CObject::Dump(dc);

  0000c	8b 45 08	 mov	 eax, DWORD PTR _dc$[ebp]
  0000f	50		 push	 eax
  00010	8b 4d fc	 mov	 ecx, DWORD PTR _this$[ebp]
  00013	e8 00 00 00 00	 call	 ?Dump@CObject@@UBEXAAVCDumpContext@@@Z ; CObject::Dump

; 1796 : 
; 1797 : 	dc << "with " << m_nCount << " elements";

  00018	68 00 00 00 00	 push	 OFFSET ??_C@_09HCLNAIDE@?5elements@
  0001d	8b 45 fc	 mov	 eax, DWORD PTR _this$[ebp]
  00020	8b 48 0c	 mov	 ecx, DWORD PTR [eax+12]
  00023	51		 push	 ecx
  00024	68 00 00 00 00	 push	 OFFSET ??_C@_05PLCFPPOI@with?5@
  00029	8b 4d 08	 mov	 ecx, DWORD PTR _dc$[ebp]
  0002c	e8 00 00 00 00	 call	 ??6CDumpContext@@QAEAAV0@PBD@Z ; CDumpContext::operator<<
  00031	8b c8		 mov	 ecx, eax
  00033	e8 00 00 00 00	 call	 ??6CDumpContext@@QAEAAV0@H@Z ; CDumpContext::operator<<
  00038	8b c8		 mov	 ecx, eax
  0003a	e8 00 00 00 00	 call	 ??6CDumpContext@@QAEAAV0@PBD@Z ; CDumpContext::operator<<

; 1798 : 	if (dc.GetDepth() > 0)

  0003f	8b 4d 08	 mov	 ecx, DWORD PTR _dc$[ebp]
  00042	e8 00 00 00 00	 call	 ?GetDepth@CDumpContext@@QBEHXZ ; CDumpContext::GetDepth
  00047	85 c0		 test	 eax, eax
  00049	7e 71		 jle	 SHORT $LN4@Dump

; 1799 : 	{
; 1800 : 		// Dump in format "[key] -> value"
; 1801 : 		KEY key[1];
; 1802 : 		VALUE val[1];
; 1803 : 
; 1804 : 		POSITION pos = GetStartPosition();

  0004b	8b 4d fc	 mov	 ecx, DWORD PTR _this$[ebp]
  0004e	e8 00 00 00 00	 call	 ?GetStartPosition@?$CMap@KKPAVCGamePropertyItem@NGamePropertyListManager@@AAPAV12@@@QBEPAU__POSITION@@XZ ; CMap<unsigned long,unsigned long,NGamePropertyListManager::CGamePropertyItem *,NGamePropertyListManager::CGamePropertyItem * &>::GetStartPosition
  00053	89 45 f0	 mov	 DWORD PTR _pos$1[ebp], eax
$LN2@Dump:

; 1805 : 		while (pos != NULL)

  00056	83 7d f0 00	 cmp	 DWORD PTR _pos$1[ebp], 0
  0005a	74 60		 je	 SHORT $LN4@Dump

; 1806 : 		{
; 1807 : 			GetNextAssoc(pos, key[0], val[0]);

  0005c	b8 04 00 00 00	 mov	 eax, 4
  00061	6b c8 00	 imul	 ecx, eax, 0
  00064	8d 54 0d f4	 lea	 edx, DWORD PTR _val$2[ebp+ecx]
  00068	52		 push	 edx
  00069	b8 04 00 00 00	 mov	 eax, 4
  0006e	6b c8 00	 imul	 ecx, eax, 0
  00071	8d 54 0d f8	 lea	 edx, DWORD PTR _key$3[ebp+ecx]
  00075	52		 push	 edx
  00076	8d 45 f0	 lea	 eax, DWORD PTR _pos$1[ebp]
  00079	50		 push	 eax
  0007a	8b 4d fc	 mov	 ecx, DWORD PTR _this$[ebp]
  0007d	e8 00 00 00 00	 call	 ?GetNextAssoc@?$CMap@KKPAVCGamePropertyItem@NGamePropertyListManager@@AAPAV12@@@QBEXAAPAU__POSITION@@AAKAAPAVCGamePropertyItem@NGamePropertyListManager@@@Z ; CMap<unsigned long,unsigned long,NGamePropertyListManager::CGamePropertyItem *,NGamePropertyListManager::CGamePropertyItem * &>::GetNextAssoc

; 1808 : 			dc << "\n\t[";

  00082	68 00 00 00 00	 push	 OFFSET ??_C@_03OHJIHPJH@?6?7?$FL@
  00087	8b 4d 08	 mov	 ecx, DWORD PTR _dc$[ebp]
  0008a	e8 00 00 00 00	 call	 ??6CDumpContext@@QAEAAV0@PBD@Z ; CDumpContext::operator<<

; 1809 : 			DumpElements<KEY>(dc, key, 1);

  0008f	6a 01		 push	 1
  00091	8d 45 f8	 lea	 eax, DWORD PTR _key$3[ebp]
  00094	50		 push	 eax
  00095	8b 4d 08	 mov	 ecx, DWORD PTR _dc$[ebp]
  00098	51		 push	 ecx
  00099	e8 00 00 00 00	 call	 ??$DumpElements@K@@YGXAAVCDumpContext@@PBKH@Z ; DumpElements<unsigned long>

; 1810 : 			dc << "] = ";

  0009e	68 00 00 00 00	 push	 OFFSET ??_C@_04OAFLPOMH@?$FN?5?$DN?5@
  000a3	8b 4d 08	 mov	 ecx, DWORD PTR _dc$[ebp]
  000a6	e8 00 00 00 00	 call	 ??6CDumpContext@@QAEAAV0@PBD@Z ; CDumpContext::operator<<

; 1811 : 			DumpElements<VALUE>(dc, val, 1);

  000ab	6a 01		 push	 1
  000ad	8d 45 f4	 lea	 eax, DWORD PTR _val$2[ebp]
  000b0	50		 push	 eax
  000b1	8b 4d 08	 mov	 ecx, DWORD PTR _dc$[ebp]
  000b4	51		 push	 ecx
  000b5	e8 00 00 00 00	 call	 ??$DumpElements@PAVCGamePropertyItem@NGamePropertyListManager@@@@YGXAAVCDumpContext@@PBQAVCGamePropertyItem@NGamePropertyListManager@@H@Z ; DumpElements<NGamePropertyListManager::CGamePropertyItem *>

; 1812 : 		}

  000ba	eb 9a		 jmp	 SHORT $LN2@Dump
$LN4@Dump:

; 1813 : 	}
; 1814 : 
; 1815 : 	dc << "\n";

  000bc	68 00 00 00 00	 push	 OFFSET ??_C@_01EEMJAFIK@?6@
  000c1	8b 4d 08	 mov	 ecx, DWORD PTR _dc$[ebp]
  000c4	e8 00 00 00 00	 call	 ??6CDumpContext@@QAEAAV0@PBD@Z ; CDumpContext::operator<<

; 1816 : }

  000c9	5f		 pop	 edi
  000ca	5e		 pop	 esi
  000cb	5b		 pop	 ebx
  000cc	8b e5		 mov	 esp, ebp
  000ce	5d		 pop	 ebp
  000cf	c2 04 00	 ret	 4
?Dump@?$CMap@KKPAVCGamePropertyItem@NGamePropertyListManager@@AAPAV12@@@UBEXAAVCDumpContext@@@Z ENDP ; CMap<unsigned long,unsigned long,NGamePropertyListManager::CGamePropertyItem *,NGamePropertyListManager::CGamePropertyItem * &>::Dump
_TEXT	ENDS
; Function compile flags: /Odtp /ZI
; File c:\program files (x86)\microsoft visual studio\2017\community\vc\tools\msvc\14.16.27023\atlmfc\include\afxtempl.h
;	COMDAT ?Serialize@?$CMap@KKPAVCGamePropertyItem@NGamePropertyListManager@@AAPAV12@@@UAEXAAVCArchive@@@Z
_TEXT	SEGMENT
tv154 = -100						; size = 4
_newValue$1 = -32					; size = 4
_newKey$2 = -28						; size = 4
_nNewCount$3 = -24					; size = 4
_pValue$4 = -20						; size = 4
_pKey$5 = -16						; size = 4
_pAssoc$6 = -12						; size = 4
_nHash$7 = -8						; size = 4
_this$ = -4						; size = 4
_ar$ = 8						; size = 4
?Serialize@?$CMap@KKPAVCGamePropertyItem@NGamePropertyListManager@@AAPAV12@@@UAEXAAVCArchive@@@Z PROC ; CMap<unsigned long,unsigned long,NGamePropertyListManager::CGamePropertyItem *,NGamePropertyListManager::CGamePropertyItem * &>::Serialize, COMDAT
; _this$ = ecx

; 1743 : {

  00000	55		 push	 ebp
  00001	8b ec		 mov	 ebp, esp
  00003	83 ec 64	 sub	 esp, 100		; 00000064H
  00006	53		 push	 ebx
  00007	56		 push	 esi
  00008	57		 push	 edi
  00009	89 4d fc	 mov	 DWORD PTR _this$[ebp], ecx

; 1744 : 	ASSERT_VALID(this);

  0000c	68 d0 06 00 00	 push	 1744			; 000006d0H
  00011	68 00 00 00 00	 push	 OFFSET ??_C@_0HC@HBCNBCLF@c?3?2program?5files?5?$CIx86?$CJ?2microsof@
  00016	8b 45 fc	 mov	 eax, DWORD PTR _this$[ebp]
  00019	50		 push	 eax
  0001a	e8 00 00 00 00	 call	 ?AfxAssertValidObject@@YGXPBVCObject@@PBDH@Z ; AfxAssertValidObject

; 1745 : 
; 1746 : 	CObject::Serialize(ar);

  0001f	8b 45 08	 mov	 eax, DWORD PTR _ar$[ebp]
  00022	50		 push	 eax
  00023	8b 4d fc	 mov	 ecx, DWORD PTR _this$[ebp]
  00026	e8 00 00 00 00	 call	 ?Serialize@CObject@@UAEXAAVCArchive@@@Z ; CObject::Serialize

; 1747 : 
; 1748 : 	if (ar.IsStoring())

  0002b	8b 4d 08	 mov	 ecx, DWORD PTR _ar$[ebp]
  0002e	e8 00 00 00 00	 call	 ?IsStoring@CArchive@@QBEHXZ ; CArchive::IsStoring
  00033	85 c0		 test	 eax, eax
  00035	0f 84 b3 00 00
	00		 je	 $LN10@Serialize

; 1749 : 	{
; 1750 : 		ar.WriteCount(m_nCount);

  0003b	8b 45 fc	 mov	 eax, DWORD PTR _this$[ebp]
  0003e	8b 48 0c	 mov	 ecx, DWORD PTR [eax+12]
  00041	51		 push	 ecx
  00042	8b 4d 08	 mov	 ecx, DWORD PTR _ar$[ebp]
  00045	e8 00 00 00 00	 call	 ?WriteCount@CArchive@@QAEXK@Z ; CArchive::WriteCount

; 1751 : 		if (m_nCount == 0)

  0004a	8b 45 fc	 mov	 eax, DWORD PTR _this$[ebp]
  0004d	83 78 0c 00	 cmp	 DWORD PTR [eax+12], 0
  00051	75 05		 jne	 SHORT $LN12@Serialize

; 1752 : 			return;  // nothing more to do

  00053	e9 f8 00 00 00	 jmp	 $LN1@Serialize
$LN12@Serialize:

; 1753 : 
; 1754 : 		ASSERT(m_pHashTable != NULL);

  00058	8b 45 fc	 mov	 eax, DWORD PTR _this$[ebp]
  0005b	83 78 04 00	 cmp	 DWORD PTR [eax+4], 0
  0005f	75 14		 jne	 SHORT $LN15@Serialize
  00061	68 da 06 00 00	 push	 1754			; 000006daH
  00066	68 00 00 00 00	 push	 OFFSET ??_C@_0HC@HBCNBCLF@c?3?2program?5files?5?$CIx86?$CJ?2microsof@
  0006b	e8 00 00 00 00	 call	 ?AfxAssertFailedLine@@YGHPBDH@Z ; AfxAssertFailedLine
  00070	85 c0		 test	 eax, eax
  00072	74 01		 je	 SHORT $LN15@Serialize
  00074	cc		 int	 3
$LN15@Serialize:

; 1755 : 		if (m_pHashTable != NULL)

  00075	8b 45 fc	 mov	 eax, DWORD PTR _this$[ebp]
  00078	83 78 04 00	 cmp	 DWORD PTR [eax+4], 0
  0007c	74 6e		 je	 SHORT $LN13@Serialize

; 1756 : 		{
; 1757 : 			for (UINT nHash = 0; nHash < m_nHashTableSize; nHash++)

  0007e	c7 45 f8 00 00
	00 00		 mov	 DWORD PTR _nHash$7[ebp], 0
  00085	eb 09		 jmp	 SHORT $LN4@Serialize
$LN2@Serialize:
  00087	8b 45 f8	 mov	 eax, DWORD PTR _nHash$7[ebp]
  0008a	83 c0 01	 add	 eax, 1
  0008d	89 45 f8	 mov	 DWORD PTR _nHash$7[ebp], eax
$LN4@Serialize:
  00090	8b 45 fc	 mov	 eax, DWORD PTR _this$[ebp]
  00093	8b 4d f8	 mov	 ecx, DWORD PTR _nHash$7[ebp]
  00096	3b 48 08	 cmp	 ecx, DWORD PTR [eax+8]
  00099	73 51		 jae	 SHORT $LN13@Serialize

; 1758 : 			{
; 1759 : 				CAssoc* pAssoc;
; 1760 : 				for (pAssoc = m_pHashTable[nHash]; pAssoc != NULL; pAssoc = pAssoc->pNext)

  0009b	8b 45 fc	 mov	 eax, DWORD PTR _this$[ebp]
  0009e	8b 48 04	 mov	 ecx, DWORD PTR [eax+4]
  000a1	8b 55 f8	 mov	 edx, DWORD PTR _nHash$7[ebp]
  000a4	8b 04 91	 mov	 eax, DWORD PTR [ecx+edx*4]
  000a7	89 45 f4	 mov	 DWORD PTR _pAssoc$6[ebp], eax
  000aa	eb 09		 jmp	 SHORT $LN7@Serialize
$LN5@Serialize:
  000ac	8b 45 f4	 mov	 eax, DWORD PTR _pAssoc$6[ebp]
  000af	8b 48 08	 mov	 ecx, DWORD PTR [eax+8]
  000b2	89 4d f4	 mov	 DWORD PTR _pAssoc$6[ebp], ecx
$LN7@Serialize:
  000b5	83 7d f4 00	 cmp	 DWORD PTR _pAssoc$6[ebp], 0
  000b9	74 2f		 je	 SHORT $LN6@Serialize

; 1761 : 				{
; 1762 : 					KEY* pKey;
; 1763 : 					VALUE* pValue;
; 1764 : 					/*
; 1765 : 					* in some cases the & operator might be overloaded, and we cannot use it to
; 1766 : 					* obtain the address of a given object.  We then use the following trick to
; 1767 : 					* get the address
; 1768 : 					*/
; 1769 : 					pKey = reinterpret_cast< KEY* >( &reinterpret_cast< int& >( const_cast< KEY& > ( static_cast< const KEY& >( pAssoc->key ) ) ) );

  000bb	8b 45 f4	 mov	 eax, DWORD PTR _pAssoc$6[ebp]
  000be	89 45 f0	 mov	 DWORD PTR _pKey$5[ebp], eax

; 1770 : 					pValue = reinterpret_cast< VALUE* >( &reinterpret_cast< int& >( static_cast< VALUE& >( pAssoc->value ) ) );

  000c1	8b 45 f4	 mov	 eax, DWORD PTR _pAssoc$6[ebp]
  000c4	83 c0 04	 add	 eax, 4
  000c7	89 45 ec	 mov	 DWORD PTR _pValue$4[ebp], eax

; 1771 : 					SerializeElements<KEY>(ar, pKey, 1);

  000ca	6a 01		 push	 1
  000cc	8b 45 f0	 mov	 eax, DWORD PTR _pKey$5[ebp]
  000cf	50		 push	 eax
  000d0	8b 4d 08	 mov	 ecx, DWORD PTR _ar$[ebp]
  000d3	51		 push	 ecx
  000d4	e8 00 00 00 00	 call	 ??$SerializeElements@K@@YGXAAVCArchive@@PAKH@Z ; SerializeElements<unsigned long>

; 1772 : 					SerializeElements<VALUE>(ar, pValue, 1);

  000d9	6a 01		 push	 1
  000db	8b 45 ec	 mov	 eax, DWORD PTR _pValue$4[ebp]
  000de	50		 push	 eax
  000df	8b 4d 08	 mov	 ecx, DWORD PTR _ar$[ebp]
  000e2	51		 push	 ecx
  000e3	e8 00 00 00 00	 call	 ??$SerializeElements@PAVCGamePropertyItem@NGamePropertyListManager@@@@YGXAAVCArchive@@PAPAVCGamePropertyItem@NGamePropertyListManager@@H@Z ; SerializeElements<NGamePropertyListManager::CGamePropertyItem *>

; 1773 : 				}

  000e8	eb c2		 jmp	 SHORT $LN5@Serialize
$LN6@Serialize:

; 1774 : 			}

  000ea	eb 9b		 jmp	 SHORT $LN2@Serialize
$LN13@Serialize:

; 1775 : 		}
; 1776 : 	}
; 1777 : 	else

  000ec	eb 62		 jmp	 SHORT $LN1@Serialize
$LN10@Serialize:

; 1778 : 	{
; 1779 : 		DWORD_PTR nNewCount = ar.ReadCount();

  000ee	8b 4d 08	 mov	 ecx, DWORD PTR _ar$[ebp]
  000f1	e8 00 00 00 00	 call	 ?ReadCount@CArchive@@QAEKXZ ; CArchive::ReadCount
  000f6	89 45 e8	 mov	 DWORD PTR _nNewCount$3[ebp], eax
$LN8@Serialize:

; 1780 : 		while (nNewCount--)

  000f9	8b 45 e8	 mov	 eax, DWORD PTR _nNewCount$3[ebp]
  000fc	89 45 9c	 mov	 DWORD PTR tv154[ebp], eax
  000ff	8b 4d e8	 mov	 ecx, DWORD PTR _nNewCount$3[ebp]
  00102	83 e9 01	 sub	 ecx, 1
  00105	89 4d e8	 mov	 DWORD PTR _nNewCount$3[ebp], ecx
  00108	83 7d 9c 00	 cmp	 DWORD PTR tv154[ebp], 0
  0010c	74 42		 je	 SHORT $LN1@Serialize

; 1781 : 		{
; 1782 : 			KEY newKey[1];
; 1783 : 			VALUE newValue[1];
; 1784 : 			SerializeElements<KEY>(ar, newKey, 1);

  0010e	6a 01		 push	 1
  00110	8d 45 e4	 lea	 eax, DWORD PTR _newKey$2[ebp]
  00113	50		 push	 eax
  00114	8b 4d 08	 mov	 ecx, DWORD PTR _ar$[ebp]
  00117	51		 push	 ecx
  00118	e8 00 00 00 00	 call	 ??$SerializeElements@K@@YGXAAVCArchive@@PAKH@Z ; SerializeElements<unsigned long>

; 1785 : 			SerializeElements<VALUE>(ar, newValue, 1);

  0011d	6a 01		 push	 1
  0011f	8d 45 e0	 lea	 eax, DWORD PTR _newValue$1[ebp]
  00122	50		 push	 eax
  00123	8b 4d 08	 mov	 ecx, DWORD PTR _ar$[ebp]
  00126	51		 push	 ecx
  00127	e8 00 00 00 00	 call	 ??$SerializeElements@PAVCGamePropertyItem@NGamePropertyListManager@@@@YGXAAVCArchive@@PAPAVCGamePropertyItem@NGamePropertyListManager@@H@Z ; SerializeElements<NGamePropertyListManager::CGamePropertyItem *>

; 1786 : 			SetAt(newKey[0], newValue[0]);

  0012c	b8 04 00 00 00	 mov	 eax, 4
  00131	6b c8 00	 imul	 ecx, eax, 0
  00134	8d 54 0d e0	 lea	 edx, DWORD PTR _newValue$1[ebp+ecx]
  00138	52		 push	 edx
  00139	b8 04 00 00 00	 mov	 eax, 4
  0013e	6b c8 00	 imul	 ecx, eax, 0
  00141	8b 54 0d e4	 mov	 edx, DWORD PTR _newKey$2[ebp+ecx]
  00145	52		 push	 edx
  00146	8b 4d fc	 mov	 ecx, DWORD PTR _this$[ebp]
  00149	e8 00 00 00 00	 call	 ?SetAt@?$CMap@KKPAVCGamePropertyItem@NGamePropertyListManager@@AAPAV12@@@QAEXKAAPAVCGamePropertyItem@NGamePropertyListManager@@@Z ; CMap<unsigned long,unsigned long,NGamePropertyListManager::CGamePropertyItem *,NGamePropertyListManager::CGamePropertyItem * &>::SetAt

; 1787 : 		}

  0014e	eb a9		 jmp	 SHORT $LN8@Serialize
$LN1@Serialize:

; 1788 : 	}
; 1789 : }

  00150	5f		 pop	 edi
  00151	5e		 pop	 esi
  00152	5b		 pop	 ebx
  00153	8b e5		 mov	 esp, ebp
  00155	5d		 pop	 ebp
  00156	c2 04 00	 ret	 4
?Serialize@?$CMap@KKPAVCGamePropertyItem@NGamePropertyListManager@@AAPAV12@@@UAEXAAVCArchive@@@Z ENDP ; CMap<unsigned long,unsigned long,NGamePropertyListManager::CGamePropertyItem *,NGamePropertyListManager::CGamePropertyItem * &>::Serialize
_TEXT	ENDS
; Function compile flags: /Odtp /ZI
; File c:\program files (x86)\microsoft visual studio\2017\community\vc\tools\msvc\14.16.27023\atlmfc\include\afxtempl.h
;	COMDAT ??1?$CMap@KKPAVCGamePropertyItem@NGamePropertyListManager@@AAPAV12@@@UAE@XZ
_TEXT	SEGMENT
_this$ = -16						; size = 4
__$EHRec$ = -12						; size = 12
??1?$CMap@KKPAVCGamePropertyItem@NGamePropertyListManager@@AAPAV12@@@UAE@XZ PROC ; CMap<unsigned long,unsigned long,NGamePropertyListManager::CGamePropertyItem *,NGamePropertyListManager::CGamePropertyItem * &>::~CMap<unsigned long,unsigned long,NGamePropertyListManager::CGamePropertyItem *,NGamePropertyListManager::CGamePropertyItem * &>, COMDAT
; _this$ = ecx

; 1472 : {

  00000	55		 push	 ebp
  00001	8b ec		 mov	 ebp, esp
  00003	6a ff		 push	 -1
  00005	68 00 00 00 00	 push	 __ehhandler$??1?$CMap@KKPAVCGamePropertyItem@NGamePropertyListManager@@AAPAV12@@@UAE@XZ
  0000a	64 a1 00 00 00
	00		 mov	 eax, DWORD PTR fs:0
  00010	50		 push	 eax
  00011	83 ec 44	 sub	 esp, 68			; 00000044H
  00014	53		 push	 ebx
  00015	56		 push	 esi
  00016	57		 push	 edi
  00017	a1 00 00 00 00	 mov	 eax, DWORD PTR ___security_cookie
  0001c	33 c5		 xor	 eax, ebp
  0001e	50		 push	 eax
  0001f	8d 45 f4	 lea	 eax, DWORD PTR __$EHRec$[ebp]
  00022	64 a3 00 00 00
	00		 mov	 DWORD PTR fs:0, eax
  00028	89 4d f0	 mov	 DWORD PTR _this$[ebp], ecx
  0002b	8b 45 f0	 mov	 eax, DWORD PTR _this$[ebp]
  0002e	c7 00 00 00 00
	00		 mov	 DWORD PTR [eax], OFFSET ??_7?$CMap@KKPAVCGamePropertyItem@NGamePropertyListManager@@AAPAV12@@@6B@

; 1473 : 	RemoveAll();

  00034	8b 4d f0	 mov	 ecx, DWORD PTR _this$[ebp]
  00037	e8 00 00 00 00	 call	 ?RemoveAll@?$CMap@KKPAVCGamePropertyItem@NGamePropertyListManager@@AAPAV12@@@QAEXXZ ; CMap<unsigned long,unsigned long,NGamePropertyListManager::CGamePropertyItem *,NGamePropertyListManager::CGamePropertyItem * &>::RemoveAll

; 1474 : 	ASSERT(m_nCount == 0);

  0003c	8b 45 f0	 mov	 eax, DWORD PTR _this$[ebp]
  0003f	83 78 0c 00	 cmp	 DWORD PTR [eax+12], 0
  00043	74 14		 je	 SHORT $LN1@CMap
  00045	68 c2 05 00 00	 push	 1474			; 000005c2H
  0004a	68 00 00 00 00	 push	 OFFSET ??_C@_0HC@HBCNBCLF@c?3?2program?5files?5?$CIx86?$CJ?2microsof@
  0004f	e8 00 00 00 00	 call	 ?AfxAssertFailedLine@@YGHPBDH@Z ; AfxAssertFailedLine
  00054	85 c0		 test	 eax, eax
  00056	74 01		 je	 SHORT $LN1@CMap
  00058	cc		 int	 3
$LN1@CMap:

; 1475 : }

  00059	8b 4d f0	 mov	 ecx, DWORD PTR _this$[ebp]
  0005c	e8 00 00 00 00	 call	 ??1CObject@@UAE@XZ	; CObject::~CObject
  00061	8b 4d f4	 mov	 ecx, DWORD PTR __$EHRec$[ebp]
  00064	64 89 0d 00 00
	00 00		 mov	 DWORD PTR fs:0, ecx
  0006b	59		 pop	 ecx
  0006c	5f		 pop	 edi
  0006d	5e		 pop	 esi
  0006e	5b		 pop	 ebx
  0006f	8b e5		 mov	 esp, ebp
  00071	5d		 pop	 ebp
  00072	c3		 ret	 0
_TEXT	ENDS
;	COMDAT text$x
text$x	SEGMENT
__ehhandler$??1?$CMap@KKPAVCGamePropertyItem@NGamePropertyListManager@@AAPAV12@@@UAE@XZ:
  00000	8b 54 24 08	 mov	 edx, DWORD PTR [esp+8]
  00004	8d 42 0c	 lea	 eax, DWORD PTR [edx+12]
  00007	8b 4a ac	 mov	 ecx, DWORD PTR [edx-84]
  0000a	33 c8		 xor	 ecx, eax
  0000c	e8 00 00 00 00	 call	 @__security_check_cookie@4
  00011	b8 00 00 00 00	 mov	 eax, OFFSET __ehfuncinfo$??1?$CMap@KKPAVCGamePropertyItem@NGamePropertyListManager@@AAPAV12@@@UAE@XZ
  00016	e9 00 00 00 00	 jmp	 ___CxxFrameHandler3
text$x	ENDS
??1?$CMap@KKPAVCGamePropertyItem@NGamePropertyListManager@@AAPAV12@@@UAE@XZ ENDP ; CMap<unsigned long,unsigned long,NGamePropertyListManager::CGamePropertyItem *,NGamePropertyListManager::CGamePropertyItem * &>::~CMap<unsigned long,unsigned long,NGamePropertyListManager::CGamePropertyItem *,NGamePropertyListManager::CGamePropertyItem * &>
; Function compile flags: /Odtp /ZI
; File c:\program files (x86)\microsoft visual studio\2017\community\vc\tools\msvc\14.16.27023\atlmfc\include\afxtempl.h
;	COMDAT ?GetAssocAt@?$CMap@KKPAVCGamePropertyItem@NGamePropertyListManager@@AAPAV12@@@IBEPAVCAssoc@1@KAAI0@Z
_TEXT	SEGMENT
_pAssoc$ = -8						; size = 4
_this$ = -4						; size = 4
_key$ = 8						; size = 4
_nHashBucket$ = 12					; size = 4
_nHashValue$ = 16					; size = 4
?GetAssocAt@?$CMap@KKPAVCGamePropertyItem@NGamePropertyListManager@@AAPAV12@@@IBEPAVCAssoc@1@KAAI0@Z PROC ; CMap<unsigned long,unsigned long,NGamePropertyListManager::CGamePropertyItem *,NGamePropertyListManager::CGamePropertyItem * &>::GetAssocAt, COMDAT
; _this$ = ecx

; 1532 : {

  00000	55		 push	 ebp
  00001	8b ec		 mov	 ebp, esp
  00003	83 ec 48	 sub	 esp, 72			; 00000048H
  00006	53		 push	 ebx
  00007	56		 push	 esi
  00008	57		 push	 edi
  00009	89 4d fc	 mov	 DWORD PTR _this$[ebp], ecx

; 1533 : 	nHashValue = HashKey<ARG_KEY>(key);

  0000c	8b 45 08	 mov	 eax, DWORD PTR _key$[ebp]
  0000f	50		 push	 eax
  00010	e8 00 00 00 00	 call	 ??$HashKey@K@@YGIK@Z	; HashKey<unsigned long>
  00015	8b 4d 10	 mov	 ecx, DWORD PTR _nHashValue$[ebp]
  00018	89 01		 mov	 DWORD PTR [ecx], eax

; 1534 : 	nHashBucket = nHashValue % m_nHashTableSize;

  0001a	8b 45 10	 mov	 eax, DWORD PTR _nHashValue$[ebp]
  0001d	8b 4d fc	 mov	 ecx, DWORD PTR _this$[ebp]
  00020	8b 00		 mov	 eax, DWORD PTR [eax]
  00022	33 d2		 xor	 edx, edx
  00024	f7 71 08	 div	 DWORD PTR [ecx+8]
  00027	8b 45 0c	 mov	 eax, DWORD PTR _nHashBucket$[ebp]
  0002a	89 10		 mov	 DWORD PTR [eax], edx

; 1535 : 
; 1536 : 	if (m_pHashTable == NULL)

  0002c	8b 45 fc	 mov	 eax, DWORD PTR _this$[ebp]
  0002f	83 78 04 00	 cmp	 DWORD PTR [eax+4], 0
  00033	75 04		 jne	 SHORT $LN5@GetAssocAt

; 1537 : 		return NULL;

  00035	33 c0		 xor	 eax, eax
  00037	eb 49		 jmp	 SHORT $LN1@GetAssocAt
$LN5@GetAssocAt:

; 1538 : 
; 1539 : 	// see if it exists
; 1540 : 	CAssoc* pAssoc;
; 1541 : 	for (pAssoc = m_pHashTable[nHashBucket]; pAssoc != NULL; pAssoc = pAssoc->pNext)

  00039	8b 45 0c	 mov	 eax, DWORD PTR _nHashBucket$[ebp]
  0003c	8b 08		 mov	 ecx, DWORD PTR [eax]
  0003e	8b 55 fc	 mov	 edx, DWORD PTR _this$[ebp]
  00041	8b 42 04	 mov	 eax, DWORD PTR [edx+4]
  00044	8b 0c 88	 mov	 ecx, DWORD PTR [eax+ecx*4]
  00047	89 4d f8	 mov	 DWORD PTR _pAssoc$[ebp], ecx
  0004a	eb 09		 jmp	 SHORT $LN4@GetAssocAt
$LN2@GetAssocAt:
  0004c	8b 45 f8	 mov	 eax, DWORD PTR _pAssoc$[ebp]
  0004f	8b 48 08	 mov	 ecx, DWORD PTR [eax+8]
  00052	89 4d f8	 mov	 DWORD PTR _pAssoc$[ebp], ecx
$LN4@GetAssocAt:
  00055	83 7d f8 00	 cmp	 DWORD PTR _pAssoc$[ebp], 0
  00059	74 25		 je	 SHORT $LN3@GetAssocAt

; 1542 : 	{
; 1543 : 		if (pAssoc->nHashValue == nHashValue && CompareElements(&pAssoc->key, &key))

  0005b	8b 45 f8	 mov	 eax, DWORD PTR _pAssoc$[ebp]
  0005e	8b 4d 10	 mov	 ecx, DWORD PTR _nHashValue$[ebp]
  00061	8b 50 0c	 mov	 edx, DWORD PTR [eax+12]
  00064	3b 11		 cmp	 edx, DWORD PTR [ecx]
  00066	75 16		 jne	 SHORT $LN6@GetAssocAt
  00068	8d 45 08	 lea	 eax, DWORD PTR _key$[ebp]
  0006b	50		 push	 eax
  0006c	8b 4d f8	 mov	 ecx, DWORD PTR _pAssoc$[ebp]
  0006f	51		 push	 ecx
  00070	e8 00 00 00 00	 call	 ??$CompareElements@KK@@YGHPBK0@Z ; CompareElements<unsigned long,unsigned long>
  00075	85 c0		 test	 eax, eax
  00077	74 05		 je	 SHORT $LN6@GetAssocAt

; 1544 : 			return pAssoc;

  00079	8b 45 f8	 mov	 eax, DWORD PTR _pAssoc$[ebp]
  0007c	eb 04		 jmp	 SHORT $LN1@GetAssocAt
$LN6@GetAssocAt:

; 1545 : 	}

  0007e	eb cc		 jmp	 SHORT $LN2@GetAssocAt
$LN3@GetAssocAt:

; 1546 : 	return NULL;

  00080	33 c0		 xor	 eax, eax
$LN1@GetAssocAt:

; 1547 : }

  00082	5f		 pop	 edi
  00083	5e		 pop	 esi
  00084	5b		 pop	 ebx
  00085	8b e5		 mov	 esp, ebp
  00087	5d		 pop	 ebp
  00088	c2 0c 00	 ret	 12			; 0000000cH
?GetAssocAt@?$CMap@KKPAVCGamePropertyItem@NGamePropertyListManager@@AAPAV12@@@IBEPAVCAssoc@1@KAAI0@Z ENDP ; CMap<unsigned long,unsigned long,NGamePropertyListManager::CGamePropertyItem *,NGamePropertyListManager::CGamePropertyItem * &>::GetAssocAt
_TEXT	ENDS
; Function compile flags: /Odtp /ZI
; File c:\program files (x86)\microsoft visual studio\2017\community\vc\tools\msvc\14.16.27023\atlmfc\include\afxtempl.h
;	COMDAT ?FreeAssoc@?$CMap@KKPAVCGamePropertyItem@NGamePropertyListManager@@AAPAV12@@@IAEXPAVCAssoc@1@@Z
_TEXT	SEGMENT
_this$ = -4						; size = 4
_pAssoc$ = 8						; size = 4
?FreeAssoc@?$CMap@KKPAVCGamePropertyItem@NGamePropertyListManager@@AAPAV12@@@IAEXPAVCAssoc@1@@Z PROC ; CMap<unsigned long,unsigned long,NGamePropertyListManager::CGamePropertyItem *,NGamePropertyListManager::CGamePropertyItem * &>::FreeAssoc, COMDAT
; _this$ = ecx

; 1516 : {

  00000	55		 push	 ebp
  00001	8b ec		 mov	 ebp, esp
  00003	83 ec 44	 sub	 esp, 68			; 00000044H
  00006	53		 push	 ebx
  00007	56		 push	 esi
  00008	57		 push	 edi
  00009	89 4d fc	 mov	 DWORD PTR _this$[ebp], ecx

; 1517 : 	pAssoc->CAssoc::~CAssoc();
; 1518 : 	pAssoc->pNext = m_pFreeList;

  0000c	8b 45 08	 mov	 eax, DWORD PTR _pAssoc$[ebp]
  0000f	8b 4d fc	 mov	 ecx, DWORD PTR _this$[ebp]
  00012	8b 51 10	 mov	 edx, DWORD PTR [ecx+16]
  00015	89 50 08	 mov	 DWORD PTR [eax+8], edx

; 1519 : 	m_pFreeList = pAssoc;

  00018	8b 45 fc	 mov	 eax, DWORD PTR _this$[ebp]
  0001b	8b 4d 08	 mov	 ecx, DWORD PTR _pAssoc$[ebp]
  0001e	89 48 10	 mov	 DWORD PTR [eax+16], ecx

; 1520 : 	m_nCount--;

  00021	8b 45 fc	 mov	 eax, DWORD PTR _this$[ebp]
  00024	8b 48 0c	 mov	 ecx, DWORD PTR [eax+12]
  00027	83 e9 01	 sub	 ecx, 1
  0002a	8b 55 fc	 mov	 edx, DWORD PTR _this$[ebp]
  0002d	89 4a 0c	 mov	 DWORD PTR [edx+12], ecx

; 1521 : 	ASSERT(m_nCount >= 0);  // make sure we don't underflow

  00030	8b 45 fc	 mov	 eax, DWORD PTR _this$[ebp]
  00033	83 78 0c 00	 cmp	 DWORD PTR [eax+12], 0
  00037	7d 14		 jge	 SHORT $LN4@FreeAssoc
  00039	68 f1 05 00 00	 push	 1521			; 000005f1H
  0003e	68 00 00 00 00	 push	 OFFSET ??_C@_0HC@HBCNBCLF@c?3?2program?5files?5?$CIx86?$CJ?2microsof@
  00043	e8 00 00 00 00	 call	 ?AfxAssertFailedLine@@YGHPBDH@Z ; AfxAssertFailedLine
  00048	85 c0		 test	 eax, eax
  0004a	74 01		 je	 SHORT $LN4@FreeAssoc
  0004c	cc		 int	 3
$LN4@FreeAssoc:

; 1522 : 
; 1523 : 	// if no more elements, cleanup completely
; 1524 : 	if (m_nCount == 0)

  0004d	8b 45 fc	 mov	 eax, DWORD PTR _this$[ebp]
  00050	83 78 0c 00	 cmp	 DWORD PTR [eax+12], 0
  00054	75 08		 jne	 SHORT $LN1@FreeAssoc

; 1525 : 		RemoveAll();

  00056	8b 4d fc	 mov	 ecx, DWORD PTR _this$[ebp]
  00059	e8 00 00 00 00	 call	 ?RemoveAll@?$CMap@KKPAVCGamePropertyItem@NGamePropertyListManager@@AAPAV12@@@QAEXXZ ; CMap<unsigned long,unsigned long,NGamePropertyListManager::CGamePropertyItem *,NGamePropertyListManager::CGamePropertyItem * &>::RemoveAll
$LN1@FreeAssoc:

; 1526 : }

  0005e	5f		 pop	 edi
  0005f	5e		 pop	 esi
  00060	5b		 pop	 ebx
  00061	8b e5		 mov	 esp, ebp
  00063	5d		 pop	 ebp
  00064	c2 04 00	 ret	 4
?FreeAssoc@?$CMap@KKPAVCGamePropertyItem@NGamePropertyListManager@@AAPAV12@@@IAEXPAVCAssoc@1@@Z ENDP ; CMap<unsigned long,unsigned long,NGamePropertyListManager::CGamePropertyItem *,NGamePropertyListManager::CGamePropertyItem * &>::FreeAssoc
_TEXT	ENDS
; Function compile flags: /Odtp /ZI
; File c:\program files (x86)\microsoft visual studio\2017\community\vc\tools\msvc\14.16.27023\atlmfc\include\afxtempl.h
;	COMDAT ?NewAssoc@?$CMap@KKPAVCGamePropertyItem@NGamePropertyListManager@@AAPAV12@@@IAEPAVCAssoc@1@K@Z
_TEXT	SEGMENT
tv88 = -100						; size = 4
$T1 = -96						; size = 4
_pTemp$ = -28						; size = 4
_pAssoc$ = -24						; size = 4
___afx_condVal$2 = -20					; size = 4
_i$3 = -16						; size = 4
_pAssoc$4 = -12						; size = 4
_newBlock$5 = -8					; size = 4
_this$ = -4						; size = 4
_key$ = 8						; size = 4
?NewAssoc@?$CMap@KKPAVCGamePropertyItem@NGamePropertyListManager@@AAPAV12@@@IAEPAVCAssoc@1@K@Z PROC ; CMap<unsigned long,unsigned long,NGamePropertyListManager::CGamePropertyItem *,NGamePropertyListManager::CGamePropertyItem * &>::NewAssoc, COMDAT
; _this$ = ecx

; 1480 : {

  00000	55		 push	 ebp
  00001	8b ec		 mov	 ebp, esp
  00003	83 ec 64	 sub	 esp, 100		; 00000064H
  00006	53		 push	 ebx
  00007	56		 push	 esi
  00008	57		 push	 edi
  00009	89 4d fc	 mov	 DWORD PTR _this$[ebp], ecx

; 1481 : 	if (m_pFreeList == NULL)

  0000c	8b 45 fc	 mov	 eax, DWORD PTR _this$[ebp]
  0000f	83 78 10 00	 cmp	 DWORD PTR [eax+16], 0
  00013	75 72		 jne	 SHORT $LN7@NewAssoc

; 1482 : 	{
; 1483 : 		// add another block
; 1484 : 		CPlex* newBlock = CPlex::Create(m_pBlocks, m_nBlockSize, sizeof(CMap::CAssoc));

  00015	6a 10		 push	 16			; 00000010H
  00017	8b 45 fc	 mov	 eax, DWORD PTR _this$[ebp]
  0001a	8b 48 18	 mov	 ecx, DWORD PTR [eax+24]
  0001d	51		 push	 ecx
  0001e	8b 55 fc	 mov	 edx, DWORD PTR _this$[ebp]
  00021	83 c2 14	 add	 edx, 20			; 00000014H
  00024	52		 push	 edx
  00025	e8 00 00 00 00	 call	 ?Create@CPlex@@SGPAU1@AAPAU1@II@Z ; CPlex::Create
  0002a	89 45 f8	 mov	 DWORD PTR _newBlock$5[ebp], eax

; 1485 : 		// chain them into free list
; 1486 : 		CMap::CAssoc* pAssoc = (CMap::CAssoc*) newBlock->data();

  0002d	8b 4d f8	 mov	 ecx, DWORD PTR _newBlock$5[ebp]
  00030	e8 00 00 00 00	 call	 ?data@CPlex@@QAEPAXXZ	; CPlex::data
  00035	89 45 f4	 mov	 DWORD PTR _pAssoc$4[ebp], eax

; 1487 : 		// free in reverse order to make it easier to debug
; 1488 : 		pAssoc += m_nBlockSize - 1;

  00038	8b 45 fc	 mov	 eax, DWORD PTR _this$[ebp]
  0003b	8b 48 18	 mov	 ecx, DWORD PTR [eax+24]
  0003e	83 e9 01	 sub	 ecx, 1
  00041	c1 e1 04	 shl	 ecx, 4
  00044	03 4d f4	 add	 ecx, DWORD PTR _pAssoc$4[ebp]
  00047	89 4d f4	 mov	 DWORD PTR _pAssoc$4[ebp], ecx

; 1489 : 		for (INT_PTR i = m_nBlockSize-1; i >= 0; i--, pAssoc--)

  0004a	8b 45 fc	 mov	 eax, DWORD PTR _this$[ebp]
  0004d	8b 48 18	 mov	 ecx, DWORD PTR [eax+24]
  00050	83 e9 01	 sub	 ecx, 1
  00053	89 4d f0	 mov	 DWORD PTR _i$3[ebp], ecx
  00056	eb 12		 jmp	 SHORT $LN4@NewAssoc
$LN2@NewAssoc:
  00058	8b 45 f0	 mov	 eax, DWORD PTR _i$3[ebp]
  0005b	83 e8 01	 sub	 eax, 1
  0005e	89 45 f0	 mov	 DWORD PTR _i$3[ebp], eax
  00061	8b 4d f4	 mov	 ecx, DWORD PTR _pAssoc$4[ebp]
  00064	83 e9 10	 sub	 ecx, 16			; 00000010H
  00067	89 4d f4	 mov	 DWORD PTR _pAssoc$4[ebp], ecx
$LN4@NewAssoc:
  0006a	83 7d f0 00	 cmp	 DWORD PTR _i$3[ebp], 0
  0006e	7c 17		 jl	 SHORT $LN7@NewAssoc

; 1490 : 		{
; 1491 : 			pAssoc->pNext = m_pFreeList;

  00070	8b 45 f4	 mov	 eax, DWORD PTR _pAssoc$4[ebp]
  00073	8b 4d fc	 mov	 ecx, DWORD PTR _this$[ebp]
  00076	8b 51 10	 mov	 edx, DWORD PTR [ecx+16]
  00079	89 50 08	 mov	 DWORD PTR [eax+8], edx

; 1492 : 			m_pFreeList = pAssoc;

  0007c	8b 45 fc	 mov	 eax, DWORD PTR _this$[ebp]
  0007f	8b 4d f4	 mov	 ecx, DWORD PTR _pAssoc$4[ebp]
  00082	89 48 10	 mov	 DWORD PTR [eax+16], ecx

; 1493 : 		}

  00085	eb d1		 jmp	 SHORT $LN2@NewAssoc
$LN7@NewAssoc:

; 1494 : 	}
; 1495 : 	ENSURE(m_pFreeList != NULL);  // we must have something

  00087	8b 45 fc	 mov	 eax, DWORD PTR _this$[ebp]
  0008a	83 78 10 00	 cmp	 DWORD PTR [eax+16], 0
  0008e	74 09		 je	 SHORT $LN11@NewAssoc
  00090	c7 45 9c 01 00
	00 00		 mov	 DWORD PTR tv88[ebp], 1
  00097	eb 07		 jmp	 SHORT $LN12@NewAssoc
$LN11@NewAssoc:
  00099	c7 45 9c 00 00
	00 00		 mov	 DWORD PTR tv88[ebp], 0
$LN12@NewAssoc:
  000a0	8b 4d 9c	 mov	 ecx, DWORD PTR tv88[ebp]
  000a3	89 4d ec	 mov	 DWORD PTR ___afx_condVal$2[ebp], ecx
  000a6	83 7d ec 00	 cmp	 DWORD PTR ___afx_condVal$2[ebp], 0
  000aa	75 14		 jne	 SHORT $LN13@NewAssoc
  000ac	68 d7 05 00 00	 push	 1495			; 000005d7H
  000b1	68 00 00 00 00	 push	 OFFSET ??_C@_0HC@HBCNBCLF@c?3?2program?5files?5?$CIx86?$CJ?2microsof@
  000b6	e8 00 00 00 00	 call	 ?AfxAssertFailedLine@@YGHPBDH@Z ; AfxAssertFailedLine
  000bb	85 c0		 test	 eax, eax
  000bd	74 01		 je	 SHORT $LN13@NewAssoc
  000bf	cc		 int	 3
$LN13@NewAssoc:
  000c0	83 7d ec 00	 cmp	 DWORD PTR ___afx_condVal$2[ebp], 0
  000c4	75 05		 jne	 SHORT $LN5@NewAssoc
  000c6	e8 00 00 00 00	 call	 ?AfxThrowInvalidArgException@@YGXXZ ; AfxThrowInvalidArgException
$LN5@NewAssoc:
  000cb	33 c0		 xor	 eax, eax
  000cd	75 b8		 jne	 SHORT $LN7@NewAssoc

; 1496 : 
; 1497 : 	CMap::CAssoc* pAssoc = m_pFreeList;

  000cf	8b 45 fc	 mov	 eax, DWORD PTR _this$[ebp]
  000d2	8b 48 10	 mov	 ecx, DWORD PTR [eax+16]
  000d5	89 4d e8	 mov	 DWORD PTR _pAssoc$[ebp], ecx

; 1498 : 
; 1499 : 	// zero the memory
; 1500 : 	CMap::CAssoc* pTemp = pAssoc->pNext;

  000d8	8b 45 e8	 mov	 eax, DWORD PTR _pAssoc$[ebp]
  000db	8b 48 08	 mov	 ecx, DWORD PTR [eax+8]
  000de	89 4d e4	 mov	 DWORD PTR _pTemp$[ebp], ecx

; 1501 : 	memset( pAssoc, 0, sizeof(CMap::CAssoc) );

  000e1	6a 10		 push	 16			; 00000010H
  000e3	6a 00		 push	 0
  000e5	8b 45 e8	 mov	 eax, DWORD PTR _pAssoc$[ebp]
  000e8	50		 push	 eax
  000e9	e8 00 00 00 00	 call	 _memset
  000ee	83 c4 0c	 add	 esp, 12			; 0000000cH

; 1502 : 	pAssoc->pNext = pTemp;

  000f1	8b 45 e8	 mov	 eax, DWORD PTR _pAssoc$[ebp]
  000f4	8b 4d e4	 mov	 ecx, DWORD PTR _pTemp$[ebp]
  000f7	89 48 08	 mov	 DWORD PTR [eax+8], ecx

; 1503 : 
; 1504 : 	m_pFreeList = m_pFreeList->pNext;

  000fa	8b 45 fc	 mov	 eax, DWORD PTR _this$[ebp]
  000fd	8b 48 10	 mov	 ecx, DWORD PTR [eax+16]
  00100	8b 55 fc	 mov	 edx, DWORD PTR _this$[ebp]
  00103	8b 41 08	 mov	 eax, DWORD PTR [ecx+8]
  00106	89 42 10	 mov	 DWORD PTR [edx+16], eax

; 1505 : 	m_nCount++;

  00109	8b 45 fc	 mov	 eax, DWORD PTR _this$[ebp]
  0010c	8b 48 0c	 mov	 ecx, DWORD PTR [eax+12]
  0010f	83 c1 01	 add	 ecx, 1
  00112	8b 55 fc	 mov	 edx, DWORD PTR _this$[ebp]
  00115	89 4a 0c	 mov	 DWORD PTR [edx+12], ecx

; 1506 : 	ASSERT(m_nCount > 0);  // make sure we don't overflow

  00118	8b 45 fc	 mov	 eax, DWORD PTR _this$[ebp]
  0011b	83 78 0c 00	 cmp	 DWORD PTR [eax+12], 0
  0011f	7f 14		 jg	 SHORT $LN14@NewAssoc
  00121	68 e2 05 00 00	 push	 1506			; 000005e2H
  00126	68 00 00 00 00	 push	 OFFSET ??_C@_0HC@HBCNBCLF@c?3?2program?5files?5?$CIx86?$CJ?2microsof@
  0012b	e8 00 00 00 00	 call	 ?AfxAssertFailedLine@@YGHPBDH@Z ; AfxAssertFailedLine
  00130	85 c0		 test	 eax, eax
  00132	74 01		 je	 SHORT $LN14@NewAssoc
  00134	cc		 int	 3
$LN14@NewAssoc:

; 1507 : #pragma push_macro("new")
; 1508 : #undef new
; 1509 : 	::new(pAssoc) CMap::CAssoc(key);

  00135	8b 45 e8	 mov	 eax, DWORD PTR _pAssoc$[ebp]
  00138	50		 push	 eax
  00139	6a 10		 push	 16			; 00000010H
  0013b	e8 00 00 00 00	 call	 ??2@YAPAXIPAX@Z		; operator new
  00140	83 c4 08	 add	 esp, 8
  00143	89 45 a0	 mov	 DWORD PTR $T1[ebp], eax
  00146	8b 4d 08	 mov	 ecx, DWORD PTR _key$[ebp]
  00149	51		 push	 ecx
  0014a	8b 4d a0	 mov	 ecx, DWORD PTR $T1[ebp]
  0014d	e8 00 00 00 00	 call	 ??0CAssoc@?$CMap@KKPAVCGamePropertyItem@NGamePropertyListManager@@AAPAV12@@@QAE@K@Z ; CMap<unsigned long,unsigned long,NGamePropertyListManager::CGamePropertyItem *,NGamePropertyListManager::CGamePropertyItem * &>::CAssoc::CAssoc

; 1510 : #pragma pop_macro("new")
; 1511 : 	return pAssoc;

  00152	8b 45 e8	 mov	 eax, DWORD PTR _pAssoc$[ebp]
$LN10@NewAssoc:

; 1512 : }

  00155	5f		 pop	 edi
  00156	5e		 pop	 esi
  00157	5b		 pop	 ebx
  00158	8b e5		 mov	 esp, ebp
  0015a	5d		 pop	 ebp
  0015b	c2 04 00	 ret	 4
?NewAssoc@?$CMap@KKPAVCGamePropertyItem@NGamePropertyListManager@@AAPAV12@@@IAEPAVCAssoc@1@K@Z ENDP ; CMap<unsigned long,unsigned long,NGamePropertyListManager::CGamePropertyItem *,NGamePropertyListManager::CGamePropertyItem * &>::NewAssoc
_TEXT	ENDS
; Function compile flags: /Odtp /ZI
; File c:\program files (x86)\microsoft visual studio\2017\community\vc\tools\msvc\14.16.27023\atlmfc\include\afxtempl.h
;	COMDAT ?InitHashTable@?$CMap@KKPAVCGamePropertyItem@NGamePropertyListManager@@AAPAV12@@@QAEXIH@Z
_TEXT	SEGMENT
tv137 = -84						; size = 4
$T1 = -80						; size = 4
$T2 = -76						; size = 4
___afx_condVal$3 = -8					; size = 4
_this$ = -4						; size = 4
_nHashSize$ = 8						; size = 4
_bAllocNow$ = 12					; size = 4
?InitHashTable@?$CMap@KKPAVCGamePropertyItem@NGamePropertyListManager@@AAPAV12@@@QAEXIH@Z PROC ; CMap<unsigned long,unsigned long,NGamePropertyListManager::CGamePropertyItem *,NGamePropertyListManager::CGamePropertyItem * &>::InitHashTable, COMDAT
; _this$ = ecx

; 1420 : {

  00000	55		 push	 ebp
  00001	8b ec		 mov	 ebp, esp
  00003	83 ec 54	 sub	 esp, 84			; 00000054H
  00006	53		 push	 ebx
  00007	56		 push	 esi
  00008	57		 push	 edi
  00009	89 4d fc	 mov	 DWORD PTR _this$[ebp], ecx

; 1421 : 	ASSERT_VALID(this);

  0000c	68 8d 05 00 00	 push	 1421			; 0000058dH
  00011	68 00 00 00 00	 push	 OFFSET ??_C@_0HC@HBCNBCLF@c?3?2program?5files?5?$CIx86?$CJ?2microsof@
  00016	8b 45 fc	 mov	 eax, DWORD PTR _this$[ebp]
  00019	50		 push	 eax
  0001a	e8 00 00 00 00	 call	 ?AfxAssertValidObject@@YGXPBVCObject@@PBDH@Z ; AfxAssertValidObject

; 1422 : 	ASSERT(m_nCount == 0);

  0001f	8b 45 fc	 mov	 eax, DWORD PTR _this$[ebp]
  00022	83 78 0c 00	 cmp	 DWORD PTR [eax+12], 0
  00026	74 14		 je	 SHORT $LN9@InitHashTa
  00028	68 8e 05 00 00	 push	 1422			; 0000058eH
  0002d	68 00 00 00 00	 push	 OFFSET ??_C@_0HC@HBCNBCLF@c?3?2program?5files?5?$CIx86?$CJ?2microsof@
  00032	e8 00 00 00 00	 call	 ?AfxAssertFailedLine@@YGHPBDH@Z ; AfxAssertFailedLine
  00037	85 c0		 test	 eax, eax
  00039	74 01		 je	 SHORT $LN9@InitHashTa
  0003b	cc		 int	 3
$LN9@InitHashTa:

; 1423 : 	ASSERT(nHashSize > 0);

  0003c	83 7d 08 00	 cmp	 DWORD PTR _nHashSize$[ebp], 0
  00040	77 14		 ja	 SHORT $LN10@InitHashTa
  00042	68 8f 05 00 00	 push	 1423			; 0000058fH
  00047	68 00 00 00 00	 push	 OFFSET ??_C@_0HC@HBCNBCLF@c?3?2program?5files?5?$CIx86?$CJ?2microsof@
  0004c	e8 00 00 00 00	 call	 ?AfxAssertFailedLine@@YGHPBDH@Z ; AfxAssertFailedLine
  00051	85 c0		 test	 eax, eax
  00053	74 01		 je	 SHORT $LN10@InitHashTa
  00055	cc		 int	 3
$LN10@InitHashTa:

; 1424 : 
; 1425 : 	if (m_pHashTable != NULL)

  00056	8b 45 fc	 mov	 eax, DWORD PTR _this$[ebp]
  00059	83 78 04 00	 cmp	 DWORD PTR [eax+4], 0
  0005d	74 1f		 je	 SHORT $LN5@InitHashTa

; 1426 : 	{
; 1427 : 		// free hash table
; 1428 : 		delete[] m_pHashTable;

  0005f	8b 45 fc	 mov	 eax, DWORD PTR _this$[ebp]
  00062	8b 48 04	 mov	 ecx, DWORD PTR [eax+4]
  00065	89 4d b4	 mov	 DWORD PTR $T2[ebp], ecx
  00068	8b 55 b4	 mov	 edx, DWORD PTR $T2[ebp]
  0006b	52		 push	 edx
  0006c	e8 00 00 00 00	 call	 ??_V@YAXPAX@Z		; operator delete[]
  00071	83 c4 04	 add	 esp, 4

; 1429 : 		m_pHashTable = NULL;

  00074	8b 45 fc	 mov	 eax, DWORD PTR _this$[ebp]
  00077	c7 40 04 00 00
	00 00		 mov	 DWORD PTR [eax+4], 0
$LN5@InitHashTa:

; 1430 : 	}
; 1431 : 
; 1432 : 	if (bAllocNow)

  0007e	83 7d 0c 00	 cmp	 DWORD PTR _bAllocNow$[ebp], 0
  00082	0f 84 92 00 00
	00		 je	 $LN6@InitHashTa

; 1433 : 	{
; 1434 : 		m_pHashTable = new CAssoc* [nHashSize];

  00088	68 9a 05 00 00	 push	 1434			; 0000059aH
  0008d	68 00 00 00 00	 push	 OFFSET ??_C@_0HC@HBCNBCLF@c?3?2program?5files?5?$CIx86?$CJ?2microsof@
  00092	33 c9		 xor	 ecx, ecx
  00094	8b 45 08	 mov	 eax, DWORD PTR _nHashSize$[ebp]
  00097	ba 04 00 00 00	 mov	 edx, 4
  0009c	f7 e2		 mul	 edx
  0009e	0f 90 c1	 seto	 cl
  000a1	f7 d9		 neg	 ecx
  000a3	0b c8		 or	 ecx, eax
  000a5	51		 push	 ecx
  000a6	e8 00 00 00 00	 call	 ??_U@YAPAXIPBDH@Z	; operator new[]
  000ab	83 c4 0c	 add	 esp, 12			; 0000000cH
  000ae	89 45 b0	 mov	 DWORD PTR $T1[ebp], eax
  000b1	8b 45 fc	 mov	 eax, DWORD PTR _this$[ebp]
  000b4	8b 4d b0	 mov	 ecx, DWORD PTR $T1[ebp]
  000b7	89 48 04	 mov	 DWORD PTR [eax+4], ecx
$LN4@InitHashTa:

; 1435 : 		ENSURE(m_pHashTable != NULL);

  000ba	8b 45 fc	 mov	 eax, DWORD PTR _this$[ebp]
  000bd	83 78 04 00	 cmp	 DWORD PTR [eax+4], 0
  000c1	74 09		 je	 SHORT $LN11@InitHashTa
  000c3	c7 45 ac 01 00
	00 00		 mov	 DWORD PTR tv137[ebp], 1
  000ca	eb 07		 jmp	 SHORT $LN12@InitHashTa
$LN11@InitHashTa:
  000cc	c7 45 ac 00 00
	00 00		 mov	 DWORD PTR tv137[ebp], 0
$LN12@InitHashTa:
  000d3	8b 4d ac	 mov	 ecx, DWORD PTR tv137[ebp]
  000d6	89 4d f8	 mov	 DWORD PTR ___afx_condVal$3[ebp], ecx
  000d9	83 7d f8 00	 cmp	 DWORD PTR ___afx_condVal$3[ebp], 0
  000dd	75 14		 jne	 SHORT $LN13@InitHashTa
  000df	68 9b 05 00 00	 push	 1435			; 0000059bH
  000e4	68 00 00 00 00	 push	 OFFSET ??_C@_0HC@HBCNBCLF@c?3?2program?5files?5?$CIx86?$CJ?2microsof@
  000e9	e8 00 00 00 00	 call	 ?AfxAssertFailedLine@@YGHPBDH@Z ; AfxAssertFailedLine
  000ee	85 c0		 test	 eax, eax
  000f0	74 01		 je	 SHORT $LN13@InitHashTa
  000f2	cc		 int	 3
$LN13@InitHashTa:
  000f3	83 7d f8 00	 cmp	 DWORD PTR ___afx_condVal$3[ebp], 0
  000f7	75 05		 jne	 SHORT $LN2@InitHashTa
  000f9	e8 00 00 00 00	 call	 ?AfxThrowInvalidArgException@@YGXXZ ; AfxThrowInvalidArgException
$LN2@InitHashTa:
  000fe	33 c0		 xor	 eax, eax
  00100	75 b8		 jne	 SHORT $LN4@InitHashTa

; 1436 : 		memset(m_pHashTable, 0, sizeof(CAssoc*) * nHashSize);

  00102	8b 45 08	 mov	 eax, DWORD PTR _nHashSize$[ebp]
  00105	c1 e0 02	 shl	 eax, 2
  00108	50		 push	 eax
  00109	6a 00		 push	 0
  0010b	8b 4d fc	 mov	 ecx, DWORD PTR _this$[ebp]
  0010e	8b 51 04	 mov	 edx, DWORD PTR [ecx+4]
  00111	52		 push	 edx
  00112	e8 00 00 00 00	 call	 _memset
  00117	83 c4 0c	 add	 esp, 12			; 0000000cH
$LN6@InitHashTa:

; 1437 : 	}
; 1438 : 	m_nHashTableSize = nHashSize;

  0011a	8b 45 fc	 mov	 eax, DWORD PTR _this$[ebp]
  0011d	8b 4d 08	 mov	 ecx, DWORD PTR _nHashSize$[ebp]
  00120	89 48 08	 mov	 DWORD PTR [eax+8], ecx
$LN8@InitHashTa:

; 1439 : }

  00123	5f		 pop	 edi
  00124	5e		 pop	 esi
  00125	5b		 pop	 ebx
  00126	8b e5		 mov	 esp, ebp
  00128	5d		 pop	 ebp
  00129	c2 08 00	 ret	 8
?InitHashTable@?$CMap@KKPAVCGamePropertyItem@NGamePropertyListManager@@AAPAV12@@@QAEXIH@Z ENDP ; CMap<unsigned long,unsigned long,NGamePropertyListManager::CGamePropertyItem *,NGamePropertyListManager::CGamePropertyItem * &>::InitHashTable
_TEXT	ENDS
; Function compile flags: /Odtp /ZI
; File c:\program files (x86)\microsoft visual studio\2017\community\vc\tools\msvc\14.16.27023\atlmfc\include\afxtempl.h
;	COMDAT ?GetNextAssoc@?$CMap@KKPAVCGamePropertyItem@NGamePropertyListManager@@AAPAV12@@@QBEXAAPAU__POSITION@@AAKAAPAVCGamePropertyItem@NGamePropertyListManager@@@Z
_TEXT	SEGMENT
tv133 = -100						; size = 4
tv83 = -100						; size = 4
tv73 = -100						; size = 4
_nBucket$1 = -32					; size = 4
_pAssocNext$ = -28					; size = 4
___afx_condVal$2 = -24					; size = 4
_nBucket$3 = -20					; size = 4
___afx_condVal$4 = -16					; size = 4
_pAssocRet$ = -12					; size = 4
___afx_condVal$5 = -8					; size = 4
_this$ = -4						; size = 4
_rNextPosition$ = 8					; size = 4
_rKey$ = 12						; size = 4
_rValue$ = 16						; size = 4
?GetNextAssoc@?$CMap@KKPAVCGamePropertyItem@NGamePropertyListManager@@AAPAV12@@@QBEXAAPAU__POSITION@@AAKAAPAVCGamePropertyItem@NGamePropertyListManager@@@Z PROC ; CMap<unsigned long,unsigned long,NGamePropertyListManager::CGamePropertyItem *,NGamePropertyListManager::CGamePropertyItem * &>::GetNextAssoc, COMDAT
; _this$ = ecx

; 1640 : {

  00000	55		 push	 ebp
  00001	8b ec		 mov	 ebp, esp
  00003	83 ec 64	 sub	 esp, 100		; 00000064H
  00006	53		 push	 ebx
  00007	56		 push	 esi
  00008	57		 push	 edi
  00009	89 4d fc	 mov	 DWORD PTR _this$[ebp], ecx

; 1641 : 	ASSERT_VALID(this);

  0000c	68 69 06 00 00	 push	 1641			; 00000669H
  00011	68 00 00 00 00	 push	 OFFSET ??_C@_0HC@HBCNBCLF@c?3?2program?5files?5?$CIx86?$CJ?2microsof@
  00016	8b 45 fc	 mov	 eax, DWORD PTR _this$[ebp]
  00019	50		 push	 eax
  0001a	e8 00 00 00 00	 call	 ?AfxAssertValidObject@@YGXPBVCObject@@PBDH@Z ; AfxAssertValidObject
$LN4@GetNextAss:

; 1642 : 	ENSURE(m_pHashTable != NULL);  // never call on empty map

  0001f	8b 45 fc	 mov	 eax, DWORD PTR _this$[ebp]
  00022	83 78 04 00	 cmp	 DWORD PTR [eax+4], 0
  00026	74 09		 je	 SHORT $LN25@GetNextAss
  00028	c7 45 9c 01 00
	00 00		 mov	 DWORD PTR tv73[ebp], 1
  0002f	eb 07		 jmp	 SHORT $LN26@GetNextAss
$LN25@GetNextAss:
  00031	c7 45 9c 00 00
	00 00		 mov	 DWORD PTR tv73[ebp], 0
$LN26@GetNextAss:
  00038	8b 4d 9c	 mov	 ecx, DWORD PTR tv73[ebp]
  0003b	89 4d f8	 mov	 DWORD PTR ___afx_condVal$5[ebp], ecx
  0003e	83 7d f8 00	 cmp	 DWORD PTR ___afx_condVal$5[ebp], 0
  00042	75 14		 jne	 SHORT $LN27@GetNextAss
  00044	68 6a 06 00 00	 push	 1642			; 0000066aH
  00049	68 00 00 00 00	 push	 OFFSET ??_C@_0HC@HBCNBCLF@c?3?2program?5files?5?$CIx86?$CJ?2microsof@
  0004e	e8 00 00 00 00	 call	 ?AfxAssertFailedLine@@YGHPBDH@Z ; AfxAssertFailedLine
  00053	85 c0		 test	 eax, eax
  00055	74 01		 je	 SHORT $LN27@GetNextAss
  00057	cc		 int	 3
$LN27@GetNextAss:
  00058	83 7d f8 00	 cmp	 DWORD PTR ___afx_condVal$5[ebp], 0
  0005c	75 05		 jne	 SHORT $LN2@GetNextAss
  0005e	e8 00 00 00 00	 call	 ?AfxThrowInvalidArgException@@YGXXZ ; AfxThrowInvalidArgException
$LN2@GetNextAss:
  00063	33 c0		 xor	 eax, eax
  00065	75 b8		 jne	 SHORT $LN4@GetNextAss

; 1643 : 
; 1644 : 	CAssoc* pAssocRet = (CAssoc*)rNextPosition;

  00067	8b 45 08	 mov	 eax, DWORD PTR _rNextPosition$[ebp]
  0006a	8b 08		 mov	 ecx, DWORD PTR [eax]
  0006c	89 4d f4	 mov	 DWORD PTR _pAssocRet$[ebp], ecx
$LN7@GetNextAss:

; 1645 : 	ENSURE(pAssocRet != NULL);

  0006f	83 7d f4 00	 cmp	 DWORD PTR _pAssocRet$[ebp], 0
  00073	74 09		 je	 SHORT $LN28@GetNextAss
  00075	c7 45 9c 01 00
	00 00		 mov	 DWORD PTR tv83[ebp], 1
  0007c	eb 07		 jmp	 SHORT $LN29@GetNextAss
$LN28@GetNextAss:
  0007e	c7 45 9c 00 00
	00 00		 mov	 DWORD PTR tv83[ebp], 0
$LN29@GetNextAss:
  00085	8b 45 9c	 mov	 eax, DWORD PTR tv83[ebp]
  00088	89 45 f0	 mov	 DWORD PTR ___afx_condVal$4[ebp], eax
  0008b	83 7d f0 00	 cmp	 DWORD PTR ___afx_condVal$4[ebp], 0
  0008f	75 14		 jne	 SHORT $LN30@GetNextAss
  00091	68 6d 06 00 00	 push	 1645			; 0000066dH
  00096	68 00 00 00 00	 push	 OFFSET ??_C@_0HC@HBCNBCLF@c?3?2program?5files?5?$CIx86?$CJ?2microsof@
  0009b	e8 00 00 00 00	 call	 ?AfxAssertFailedLine@@YGHPBDH@Z ; AfxAssertFailedLine
  000a0	85 c0		 test	 eax, eax
  000a2	74 01		 je	 SHORT $LN30@GetNextAss
  000a4	cc		 int	 3
$LN30@GetNextAss:
  000a5	83 7d f0 00	 cmp	 DWORD PTR ___afx_condVal$4[ebp], 0
  000a9	75 05		 jne	 SHORT $LN5@GetNextAss
  000ab	e8 00 00 00 00	 call	 ?AfxThrowInvalidArgException@@YGXXZ ; AfxThrowInvalidArgException
$LN5@GetNextAss:
  000b0	33 c0		 xor	 eax, eax
  000b2	75 bb		 jne	 SHORT $LN7@GetNextAss

; 1646 : 
; 1647 : 	if (pAssocRet == (CAssoc*) BEFORE_START_POSITION)

  000b4	83 7d f4 ff	 cmp	 DWORD PTR _pAssocRet$[ebp], -1
  000b8	75 7b		 jne	 SHORT $LN19@GetNextAss

; 1648 : 	{
; 1649 : 		// find the first association
; 1650 : 		for (UINT nBucket = 0; nBucket < m_nHashTableSize; nBucket++)

  000ba	c7 45 ec 00 00
	00 00		 mov	 DWORD PTR _nBucket$3[ebp], 0
  000c1	eb 09		 jmp	 SHORT $LN10@GetNextAss
$LN8@GetNextAss:
  000c3	8b 45 ec	 mov	 eax, DWORD PTR _nBucket$3[ebp]
  000c6	83 c0 01	 add	 eax, 1
  000c9	89 45 ec	 mov	 DWORD PTR _nBucket$3[ebp], eax
$LN10@GetNextAss:
  000cc	8b 45 fc	 mov	 eax, DWORD PTR _this$[ebp]
  000cf	8b 4d ec	 mov	 ecx, DWORD PTR _nBucket$3[ebp]
  000d2	3b 48 08	 cmp	 ecx, DWORD PTR [eax+8]
  000d5	73 19		 jae	 SHORT $LN13@GetNextAss

; 1651 : 		{
; 1652 : 			if ((pAssocRet = m_pHashTable[nBucket]) != NULL)

  000d7	8b 45 fc	 mov	 eax, DWORD PTR _this$[ebp]
  000da	8b 48 04	 mov	 ecx, DWORD PTR [eax+4]
  000dd	8b 55 ec	 mov	 edx, DWORD PTR _nBucket$3[ebp]
  000e0	8b 04 91	 mov	 eax, DWORD PTR [ecx+edx*4]
  000e3	89 45 f4	 mov	 DWORD PTR _pAssocRet$[ebp], eax
  000e6	83 7d f4 00	 cmp	 DWORD PTR _pAssocRet$[ebp], 0
  000ea	74 02		 je	 SHORT $LN20@GetNextAss

; 1653 : 			{
; 1654 : 				break;

  000ec	eb 02		 jmp	 SHORT $LN13@GetNextAss
$LN20@GetNextAss:

; 1655 : 			}
; 1656 : 		}

  000ee	eb d3		 jmp	 SHORT $LN8@GetNextAss
$LN13@GetNextAss:

; 1657 : 		ENSURE(pAssocRet != NULL);  // must find something

  000f0	83 7d f4 00	 cmp	 DWORD PTR _pAssocRet$[ebp], 0
  000f4	74 09		 je	 SHORT $LN31@GetNextAss
  000f6	c7 45 9c 01 00
	00 00		 mov	 DWORD PTR tv133[ebp], 1
  000fd	eb 07		 jmp	 SHORT $LN32@GetNextAss
$LN31@GetNextAss:
  000ff	c7 45 9c 00 00
	00 00		 mov	 DWORD PTR tv133[ebp], 0
$LN32@GetNextAss:
  00106	8b 45 9c	 mov	 eax, DWORD PTR tv133[ebp]
  00109	89 45 e8	 mov	 DWORD PTR ___afx_condVal$2[ebp], eax
  0010c	83 7d e8 00	 cmp	 DWORD PTR ___afx_condVal$2[ebp], 0
  00110	75 14		 jne	 SHORT $LN33@GetNextAss
  00112	68 79 06 00 00	 push	 1657			; 00000679H
  00117	68 00 00 00 00	 push	 OFFSET ??_C@_0HC@HBCNBCLF@c?3?2program?5files?5?$CIx86?$CJ?2microsof@
  0011c	e8 00 00 00 00	 call	 ?AfxAssertFailedLine@@YGHPBDH@Z ; AfxAssertFailedLine
  00121	85 c0		 test	 eax, eax
  00123	74 01		 je	 SHORT $LN33@GetNextAss
  00125	cc		 int	 3
$LN33@GetNextAss:
  00126	83 7d e8 00	 cmp	 DWORD PTR ___afx_condVal$2[ebp], 0
  0012a	75 05		 jne	 SHORT $LN11@GetNextAss
  0012c	e8 00 00 00 00	 call	 ?AfxThrowInvalidArgException@@YGXXZ ; AfxThrowInvalidArgException
$LN11@GetNextAss:
  00131	33 c0		 xor	 eax, eax
  00133	75 bb		 jne	 SHORT $LN13@GetNextAss
$LN19@GetNextAss:

; 1658 : 	}
; 1659 : 
; 1660 : 	// find next association
; 1661 : 	ASSERT(AfxIsValidAddress(pAssocRet, sizeof(CAssoc)));

  00135	6a 01		 push	 1
  00137	6a 10		 push	 16			; 00000010H
  00139	8b 45 f4	 mov	 eax, DWORD PTR _pAssocRet$[ebp]
  0013c	50		 push	 eax
  0013d	e8 00 00 00 00	 call	 ?AfxIsValidAddress@@YGHPBXIH@Z ; AfxIsValidAddress
  00142	85 c0		 test	 eax, eax
  00144	75 14		 jne	 SHORT $LN34@GetNextAss
  00146	68 7d 06 00 00	 push	 1661			; 0000067dH
  0014b	68 00 00 00 00	 push	 OFFSET ??_C@_0HC@HBCNBCLF@c?3?2program?5files?5?$CIx86?$CJ?2microsof@
  00150	e8 00 00 00 00	 call	 ?AfxAssertFailedLine@@YGHPBDH@Z ; AfxAssertFailedLine
  00155	85 c0		 test	 eax, eax
  00157	74 01		 je	 SHORT $LN34@GetNextAss
  00159	cc		 int	 3
$LN34@GetNextAss:

; 1662 : 	CAssoc* pAssocNext;
; 1663 : 	if ((pAssocNext = pAssocRet->pNext) == NULL)

  0015a	8b 45 f4	 mov	 eax, DWORD PTR _pAssocRet$[ebp]
  0015d	8b 48 08	 mov	 ecx, DWORD PTR [eax+8]
  00160	89 4d e4	 mov	 DWORD PTR _pAssocNext$[ebp], ecx
  00163	83 7d e4 00	 cmp	 DWORD PTR _pAssocNext$[ebp], 0
  00167	75 43		 jne	 SHORT $LN22@GetNextAss

; 1664 : 	{
; 1665 : 		// go to next bucket
; 1666 : 		for (UINT nBucket = (pAssocRet->nHashValue % m_nHashTableSize) + 1;

  00169	8b 45 f4	 mov	 eax, DWORD PTR _pAssocRet$[ebp]
  0016c	8b 4d fc	 mov	 ecx, DWORD PTR _this$[ebp]
  0016f	8b 40 0c	 mov	 eax, DWORD PTR [eax+12]
  00172	33 d2		 xor	 edx, edx
  00174	f7 71 08	 div	 DWORD PTR [ecx+8]
  00177	83 c2 01	 add	 edx, 1
  0017a	89 55 e0	 mov	 DWORD PTR _nBucket$1[ebp], edx
  0017d	eb 09		 jmp	 SHORT $LN16@GetNextAss
$LN14@GetNextAss:

; 1667 : 		  nBucket < m_nHashTableSize; nBucket++)

  0017f	8b 45 e0	 mov	 eax, DWORD PTR _nBucket$1[ebp]
  00182	83 c0 01	 add	 eax, 1
  00185	89 45 e0	 mov	 DWORD PTR _nBucket$1[ebp], eax
$LN16@GetNextAss:
  00188	8b 45 fc	 mov	 eax, DWORD PTR _this$[ebp]
  0018b	8b 4d e0	 mov	 ecx, DWORD PTR _nBucket$1[ebp]
  0018e	3b 48 08	 cmp	 ecx, DWORD PTR [eax+8]
  00191	73 19		 jae	 SHORT $LN22@GetNextAss

; 1668 : 			if ((pAssocNext = m_pHashTable[nBucket]) != NULL)

  00193	8b 45 fc	 mov	 eax, DWORD PTR _this$[ebp]
  00196	8b 48 04	 mov	 ecx, DWORD PTR [eax+4]
  00199	8b 55 e0	 mov	 edx, DWORD PTR _nBucket$1[ebp]
  0019c	8b 04 91	 mov	 eax, DWORD PTR [ecx+edx*4]
  0019f	89 45 e4	 mov	 DWORD PTR _pAssocNext$[ebp], eax
  001a2	83 7d e4 00	 cmp	 DWORD PTR _pAssocNext$[ebp], 0
  001a6	74 02		 je	 SHORT $LN23@GetNextAss

; 1669 : 				break;

  001a8	eb 02		 jmp	 SHORT $LN22@GetNextAss
$LN23@GetNextAss:

; 1670 : 	}

  001aa	eb d3		 jmp	 SHORT $LN14@GetNextAss
$LN22@GetNextAss:

; 1671 : 
; 1672 : 	rNextPosition = (POSITION) pAssocNext;

  001ac	8b 45 08	 mov	 eax, DWORD PTR _rNextPosition$[ebp]
  001af	8b 4d e4	 mov	 ecx, DWORD PTR _pAssocNext$[ebp]
  001b2	89 08		 mov	 DWORD PTR [eax], ecx

; 1673 : 
; 1674 : 	// fill in return data
; 1675 : 	rKey = pAssocRet->key;

  001b4	8b 45 0c	 mov	 eax, DWORD PTR _rKey$[ebp]
  001b7	8b 4d f4	 mov	 ecx, DWORD PTR _pAssocRet$[ebp]
  001ba	8b 11		 mov	 edx, DWORD PTR [ecx]
  001bc	89 10		 mov	 DWORD PTR [eax], edx

; 1676 : 	rValue = pAssocRet->value;

  001be	8b 45 10	 mov	 eax, DWORD PTR _rValue$[ebp]
  001c1	8b 4d f4	 mov	 ecx, DWORD PTR _pAssocRet$[ebp]
  001c4	8b 51 04	 mov	 edx, DWORD PTR [ecx+4]
  001c7	89 10		 mov	 DWORD PTR [eax], edx
$LN24@GetNextAss:

; 1677 : }

  001c9	5f		 pop	 edi
  001ca	5e		 pop	 esi
  001cb	5b		 pop	 ebx
  001cc	8b e5		 mov	 esp, ebp
  001ce	5d		 pop	 ebp
  001cf	c2 0c 00	 ret	 12			; 0000000cH
?GetNextAssoc@?$CMap@KKPAVCGamePropertyItem@NGamePropertyListManager@@AAPAV12@@@QBEXAAPAU__POSITION@@AAKAAPAVCGamePropertyItem@NGamePropertyListManager@@@Z ENDP ; CMap<unsigned long,unsigned long,NGamePropertyListManager::CGamePropertyItem *,NGamePropertyListManager::CGamePropertyItem * &>::GetNextAssoc
_TEXT	ENDS
; Function compile flags: /Odtp /ZI
; File c:\program files (x86)\microsoft visual studio\2017\community\vc\tools\msvc\14.16.27023\atlmfc\include\afxtempl.h
;	COMDAT ?GetStartPosition@?$CMap@KKPAVCGamePropertyItem@NGamePropertyListManager@@AAPAV12@@@QBEPAU__POSITION@@XZ
_TEXT	SEGMENT
tv66 = -72						; size = 4
_this$ = -4						; size = 4
?GetStartPosition@?$CMap@KKPAVCGamePropertyItem@NGamePropertyListManager@@AAPAV12@@@QBEPAU__POSITION@@XZ PROC ; CMap<unsigned long,unsigned long,NGamePropertyListManager::CGamePropertyItem *,NGamePropertyListManager::CGamePropertyItem * &>::GetStartPosition, COMDAT
; _this$ = ecx

; 1354 : 	{ return (m_nCount == 0) ? NULL : BEFORE_START_POSITION; }

  00000	55		 push	 ebp
  00001	8b ec		 mov	 ebp, esp
  00003	83 ec 48	 sub	 esp, 72			; 00000048H
  00006	53		 push	 ebx
  00007	56		 push	 esi
  00008	57		 push	 edi
  00009	89 4d fc	 mov	 DWORD PTR _this$[ebp], ecx
  0000c	8b 45 fc	 mov	 eax, DWORD PTR _this$[ebp]
  0000f	83 78 0c 00	 cmp	 DWORD PTR [eax+12], 0
  00013	75 09		 jne	 SHORT $LN3@GetStartPo
  00015	c7 45 b8 00 00
	00 00		 mov	 DWORD PTR tv66[ebp], 0
  0001c	eb 07		 jmp	 SHORT $LN4@GetStartPo
$LN3@GetStartPo:
  0001e	c7 45 b8 ff ff
	ff ff		 mov	 DWORD PTR tv66[ebp], -1
$LN4@GetStartPo:
  00025	8b 45 b8	 mov	 eax, DWORD PTR tv66[ebp]
  00028	5f		 pop	 edi
  00029	5e		 pop	 esi
  0002a	5b		 pop	 ebx
  0002b	8b e5		 mov	 esp, ebp
  0002d	5d		 pop	 ebp
  0002e	c3		 ret	 0
?GetStartPosition@?$CMap@KKPAVCGamePropertyItem@NGamePropertyListManager@@AAPAV12@@@QBEPAU__POSITION@@XZ ENDP ; CMap<unsigned long,unsigned long,NGamePropertyListManager::CGamePropertyItem *,NGamePropertyListManager::CGamePropertyItem * &>::GetStartPosition
_TEXT	ENDS
; Function compile flags: /Odtp /ZI
; File c:\program files (x86)\microsoft visual studio\2017\community\vc\tools\msvc\14.16.27023\atlmfc\include\afxtempl.h
;	COMDAT ?RemoveAll@?$CMap@KKPAVCGamePropertyItem@NGamePropertyListManager@@AAPAV12@@@QAEXXZ
_TEXT	SEGMENT
$T1 = -80						; size = 4
_pAssoc$2 = -12						; size = 4
_nHash$3 = -8						; size = 4
_this$ = -4						; size = 4
?RemoveAll@?$CMap@KKPAVCGamePropertyItem@NGamePropertyListManager@@AAPAV12@@@QAEXXZ PROC ; CMap<unsigned long,unsigned long,NGamePropertyListManager::CGamePropertyItem *,NGamePropertyListManager::CGamePropertyItem * &>::RemoveAll, COMDAT
; _this$ = ecx

; 1443 : {

  00000	55		 push	 ebp
  00001	8b ec		 mov	 ebp, esp
  00003	83 ec 50	 sub	 esp, 80			; 00000050H
  00006	53		 push	 ebx
  00007	56		 push	 esi
  00008	57		 push	 edi
  00009	89 4d fc	 mov	 DWORD PTR _this$[ebp], ecx

; 1444 : 	ASSERT_VALID(this);

  0000c	68 a4 05 00 00	 push	 1444			; 000005a4H
  00011	68 00 00 00 00	 push	 OFFSET ??_C@_0HC@HBCNBCLF@c?3?2program?5files?5?$CIx86?$CJ?2microsof@
  00016	8b 45 fc	 mov	 eax, DWORD PTR _this$[ebp]
  00019	50		 push	 eax
  0001a	e8 00 00 00 00	 call	 ?AfxAssertValidObject@@YGXPBVCObject@@PBDH@Z ; AfxAssertValidObject

; 1445 : 
; 1446 : 	if (m_pHashTable != NULL)

  0001f	8b 45 fc	 mov	 eax, DWORD PTR _this$[ebp]
  00022	83 78 04 00	 cmp	 DWORD PTR [eax+4], 0
  00026	74 60		 je	 SHORT $LN8@RemoveAll

; 1447 : 	{
; 1448 : 		// destroy elements (values and keys)
; 1449 : 		for (UINT nHash = 0; nHash < m_nHashTableSize; nHash++)

  00028	c7 45 f8 00 00
	00 00		 mov	 DWORD PTR _nHash$3[ebp], 0
  0002f	eb 09		 jmp	 SHORT $LN4@RemoveAll
$LN2@RemoveAll:
  00031	8b 45 f8	 mov	 eax, DWORD PTR _nHash$3[ebp]
  00034	83 c0 01	 add	 eax, 1
  00037	89 45 f8	 mov	 DWORD PTR _nHash$3[ebp], eax
$LN4@RemoveAll:
  0003a	8b 45 fc	 mov	 eax, DWORD PTR _this$[ebp]
  0003d	8b 4d f8	 mov	 ecx, DWORD PTR _nHash$3[ebp]
  00040	3b 48 08	 cmp	 ecx, DWORD PTR [eax+8]
  00043	73 24		 jae	 SHORT $LN3@RemoveAll

; 1450 : 		{
; 1451 : 			CAssoc* pAssoc;
; 1452 : 			for (pAssoc = m_pHashTable[nHash]; pAssoc != NULL;

  00045	8b 45 fc	 mov	 eax, DWORD PTR _this$[ebp]
  00048	8b 48 04	 mov	 ecx, DWORD PTR [eax+4]
  0004b	8b 55 f8	 mov	 edx, DWORD PTR _nHash$3[ebp]
  0004e	8b 04 91	 mov	 eax, DWORD PTR [ecx+edx*4]
  00051	89 45 f4	 mov	 DWORD PTR _pAssoc$2[ebp], eax
  00054	eb 09		 jmp	 SHORT $LN7@RemoveAll
$LN5@RemoveAll:

; 1453 : 			  pAssoc = pAssoc->pNext)

  00056	8b 45 f4	 mov	 eax, DWORD PTR _pAssoc$2[ebp]
  00059	8b 48 08	 mov	 ecx, DWORD PTR [eax+8]
  0005c	89 4d f4	 mov	 DWORD PTR _pAssoc$2[ebp], ecx
$LN7@RemoveAll:

; 1450 : 		{
; 1451 : 			CAssoc* pAssoc;
; 1452 : 			for (pAssoc = m_pHashTable[nHash]; pAssoc != NULL;

  0005f	83 7d f4 00	 cmp	 DWORD PTR _pAssoc$2[ebp], 0
  00063	74 02		 je	 SHORT $LN6@RemoveAll

; 1454 : 			{
; 1455 : 				pAssoc->CAssoc::~CAssoc();
; 1456 : 			}

  00065	eb ef		 jmp	 SHORT $LN5@RemoveAll
$LN6@RemoveAll:

; 1457 : 		}

  00067	eb c8		 jmp	 SHORT $LN2@RemoveAll
$LN3@RemoveAll:

; 1458 : 
; 1459 : 		// free hash table
; 1460 : 		delete[] m_pHashTable;

  00069	8b 45 fc	 mov	 eax, DWORD PTR _this$[ebp]
  0006c	8b 48 04	 mov	 ecx, DWORD PTR [eax+4]
  0006f	89 4d b0	 mov	 DWORD PTR $T1[ebp], ecx
  00072	8b 55 b0	 mov	 edx, DWORD PTR $T1[ebp]
  00075	52		 push	 edx
  00076	e8 00 00 00 00	 call	 ??_V@YAXPAX@Z		; operator delete[]
  0007b	83 c4 04	 add	 esp, 4

; 1461 : 		m_pHashTable = NULL;

  0007e	8b 45 fc	 mov	 eax, DWORD PTR _this$[ebp]
  00081	c7 40 04 00 00
	00 00		 mov	 DWORD PTR [eax+4], 0
$LN8@RemoveAll:

; 1462 : 	}
; 1463 : 
; 1464 : 	m_nCount = 0;

  00088	8b 45 fc	 mov	 eax, DWORD PTR _this$[ebp]
  0008b	c7 40 0c 00 00
	00 00		 mov	 DWORD PTR [eax+12], 0

; 1465 : 	m_pFreeList = NULL;

  00092	8b 45 fc	 mov	 eax, DWORD PTR _this$[ebp]
  00095	c7 40 10 00 00
	00 00		 mov	 DWORD PTR [eax+16], 0

; 1466 : 	m_pBlocks->FreeDataChain();

  0009c	8b 45 fc	 mov	 eax, DWORD PTR _this$[ebp]
  0009f	8b 48 14	 mov	 ecx, DWORD PTR [eax+20]
  000a2	e8 00 00 00 00	 call	 ?FreeDataChain@CPlex@@QAEXXZ ; CPlex::FreeDataChain

; 1467 : 	m_pBlocks = NULL;

  000a7	8b 45 fc	 mov	 eax, DWORD PTR _this$[ebp]
  000aa	c7 40 14 00 00
	00 00		 mov	 DWORD PTR [eax+20], 0

; 1468 : }

  000b1	5f		 pop	 edi
  000b2	5e		 pop	 esi
  000b3	5b		 pop	 ebx
  000b4	8b e5		 mov	 esp, ebp
  000b6	5d		 pop	 ebp
  000b7	c3		 ret	 0
?RemoveAll@?$CMap@KKPAVCGamePropertyItem@NGamePropertyListManager@@AAPAV12@@@QAEXXZ ENDP ; CMap<unsigned long,unsigned long,NGamePropertyListManager::CGamePropertyItem *,NGamePropertyListManager::CGamePropertyItem * &>::RemoveAll
_TEXT	ENDS
; Function compile flags: /Odtp /ZI
; File c:\program files (x86)\microsoft visual studio\2017\community\vc\tools\msvc\14.16.27023\atlmfc\include\afxtempl.h
;	COMDAT ?RemoveKey@?$CMap@KKPAVCGamePropertyItem@NGamePropertyListManager@@AAPAV12@@@QAEHK@Z
_TEXT	SEGMENT
_pAssoc$ = -16						; size = 4
_ppAssocPrev$ = -12					; size = 4
_nHashValue$ = -8					; size = 4
_this$ = -4						; size = 4
_key$ = 8						; size = 4
?RemoveKey@?$CMap@KKPAVCGamePropertyItem@NGamePropertyListManager@@AAPAV12@@@QAEHK@Z PROC ; CMap<unsigned long,unsigned long,NGamePropertyListManager::CGamePropertyItem *,NGamePropertyListManager::CGamePropertyItem * &>::RemoveKey, COMDAT
; _this$ = ecx

; 1611 : {

  00000	55		 push	 ebp
  00001	8b ec		 mov	 ebp, esp
  00003	83 ec 50	 sub	 esp, 80			; 00000050H
  00006	53		 push	 ebx
  00007	56		 push	 esi
  00008	57		 push	 edi
  00009	89 4d fc	 mov	 DWORD PTR _this$[ebp], ecx

; 1612 : 	ASSERT_VALID(this);

  0000c	68 4c 06 00 00	 push	 1612			; 0000064cH
  00011	68 00 00 00 00	 push	 OFFSET ??_C@_0HC@HBCNBCLF@c?3?2program?5files?5?$CIx86?$CJ?2microsof@
  00016	8b 45 fc	 mov	 eax, DWORD PTR _this$[ebp]
  00019	50		 push	 eax
  0001a	e8 00 00 00 00	 call	 ?AfxAssertValidObject@@YGXPBVCObject@@PBDH@Z ; AfxAssertValidObject

; 1613 : 
; 1614 : 	if (m_pHashTable == NULL)

  0001f	8b 45 fc	 mov	 eax, DWORD PTR _this$[ebp]
  00022	83 78 04 00	 cmp	 DWORD PTR [eax+4], 0
  00026	75 07		 jne	 SHORT $LN5@RemoveKey

; 1615 : 		return FALSE;  // nothing in the table

  00028	33 c0		 xor	 eax, eax
  0002a	e9 83 00 00 00	 jmp	 $LN1@RemoveKey
$LN5@RemoveKey:

; 1616 : 
; 1617 : 	UINT nHashValue;
; 1618 : 	CAssoc** ppAssocPrev;
; 1619 : 	nHashValue = HashKey<ARG_KEY>(key);

  0002f	8b 45 08	 mov	 eax, DWORD PTR _key$[ebp]
  00032	50		 push	 eax
  00033	e8 00 00 00 00	 call	 ??$HashKey@K@@YGIK@Z	; HashKey<unsigned long>
  00038	89 45 f8	 mov	 DWORD PTR _nHashValue$[ebp], eax

; 1620 : 	ppAssocPrev = &m_pHashTable[nHashValue%m_nHashTableSize];

  0003b	8b 4d fc	 mov	 ecx, DWORD PTR _this$[ebp]
  0003e	8b 45 f8	 mov	 eax, DWORD PTR _nHashValue$[ebp]
  00041	33 d2		 xor	 edx, edx
  00043	f7 71 08	 div	 DWORD PTR [ecx+8]
  00046	8b 45 fc	 mov	 eax, DWORD PTR _this$[ebp]
  00049	8b 48 04	 mov	 ecx, DWORD PTR [eax+4]
  0004c	8d 14 91	 lea	 edx, DWORD PTR [ecx+edx*4]
  0004f	89 55 f4	 mov	 DWORD PTR _ppAssocPrev$[ebp], edx

; 1621 : 
; 1622 : 	CAssoc* pAssoc;
; 1623 : 	for (pAssoc = *ppAssocPrev; pAssoc != NULL; pAssoc = pAssoc->pNext)

  00052	8b 45 f4	 mov	 eax, DWORD PTR _ppAssocPrev$[ebp]
  00055	8b 08		 mov	 ecx, DWORD PTR [eax]
  00057	89 4d f0	 mov	 DWORD PTR _pAssoc$[ebp], ecx
  0005a	eb 09		 jmp	 SHORT $LN4@RemoveKey
$LN2@RemoveKey:
  0005c	8b 45 f0	 mov	 eax, DWORD PTR _pAssoc$[ebp]
  0005f	8b 48 08	 mov	 ecx, DWORD PTR [eax+8]
  00062	89 4d f0	 mov	 DWORD PTR _pAssoc$[ebp], ecx
$LN4@RemoveKey:
  00065	83 7d f0 00	 cmp	 DWORD PTR _pAssoc$[ebp], 0
  00069	74 45		 je	 SHORT $LN3@RemoveKey

; 1624 : 	{
; 1625 : 		if ((pAssoc->nHashValue == nHashValue) && CompareElements(&pAssoc->key, &key))

  0006b	8b 45 f0	 mov	 eax, DWORD PTR _pAssoc$[ebp]
  0006e	8b 48 0c	 mov	 ecx, DWORD PTR [eax+12]
  00071	3b 4d f8	 cmp	 ecx, DWORD PTR _nHashValue$[ebp]
  00074	75 2f		 jne	 SHORT $LN6@RemoveKey
  00076	8d 45 08	 lea	 eax, DWORD PTR _key$[ebp]
  00079	50		 push	 eax
  0007a	8b 4d f0	 mov	 ecx, DWORD PTR _pAssoc$[ebp]
  0007d	51		 push	 ecx
  0007e	e8 00 00 00 00	 call	 ??$CompareElements@KK@@YGHPBK0@Z ; CompareElements<unsigned long,unsigned long>
  00083	85 c0		 test	 eax, eax
  00085	74 1e		 je	 SHORT $LN6@RemoveKey

; 1626 : 		{
; 1627 : 			// remove it
; 1628 : 			*ppAssocPrev = pAssoc->pNext;  // remove from list

  00087	8b 45 f4	 mov	 eax, DWORD PTR _ppAssocPrev$[ebp]
  0008a	8b 4d f0	 mov	 ecx, DWORD PTR _pAssoc$[ebp]
  0008d	8b 51 08	 mov	 edx, DWORD PTR [ecx+8]
  00090	89 10		 mov	 DWORD PTR [eax], edx

; 1629 : 			FreeAssoc(pAssoc);

  00092	8b 45 f0	 mov	 eax, DWORD PTR _pAssoc$[ebp]
  00095	50		 push	 eax
  00096	8b 4d fc	 mov	 ecx, DWORD PTR _this$[ebp]
  00099	e8 00 00 00 00	 call	 ?FreeAssoc@?$CMap@KKPAVCGamePropertyItem@NGamePropertyListManager@@AAPAV12@@@IAEXPAVCAssoc@1@@Z ; CMap<unsigned long,unsigned long,NGamePropertyListManager::CGamePropertyItem *,NGamePropertyListManager::CGamePropertyItem * &>::FreeAssoc

; 1630 : 			return TRUE;

  0009e	b8 01 00 00 00	 mov	 eax, 1
  000a3	eb 0d		 jmp	 SHORT $LN1@RemoveKey
$LN6@RemoveKey:

; 1631 : 		}
; 1632 : 		ppAssocPrev = &pAssoc->pNext;

  000a5	8b 45 f0	 mov	 eax, DWORD PTR _pAssoc$[ebp]
  000a8	83 c0 08	 add	 eax, 8
  000ab	89 45 f4	 mov	 DWORD PTR _ppAssocPrev$[ebp], eax

; 1633 : 	}

  000ae	eb ac		 jmp	 SHORT $LN2@RemoveKey
$LN3@RemoveKey:

; 1634 : 	return FALSE;  // not found

  000b0	33 c0		 xor	 eax, eax
$LN1@RemoveKey:

; 1635 : }

  000b2	5f		 pop	 edi
  000b3	5e		 pop	 esi
  000b4	5b		 pop	 ebx
  000b5	8b e5		 mov	 esp, ebp
  000b7	5d		 pop	 ebp
  000b8	c2 04 00	 ret	 4
?RemoveKey@?$CMap@KKPAVCGamePropertyItem@NGamePropertyListManager@@AAPAV12@@@QAEHK@Z ENDP ; CMap<unsigned long,unsigned long,NGamePropertyListManager::CGamePropertyItem *,NGamePropertyListManager::CGamePropertyItem * &>::RemoveKey
_TEXT	ENDS
; Function compile flags: /Odtp /ZI
; File c:\program files (x86)\microsoft visual studio\2017\community\vc\tools\msvc\14.16.27023\atlmfc\include\afxtempl.h
;	COMDAT ?SetAt@?$CMap@KKPAVCGamePropertyItem@NGamePropertyListManager@@AAPAV12@@@QAEXKAAPAVCGamePropertyItem@NGamePropertyListManager@@@Z
_TEXT	SEGMENT
_this$ = -4						; size = 4
_key$ = 8						; size = 4
_newValue$ = 12						; size = 4
?SetAt@?$CMap@KKPAVCGamePropertyItem@NGamePropertyListManager@@AAPAV12@@@QAEXKAAPAVCGamePropertyItem@NGamePropertyListManager@@@Z PROC ; CMap<unsigned long,unsigned long,NGamePropertyListManager::CGamePropertyItem *,NGamePropertyListManager::CGamePropertyItem * &>::SetAt, COMDAT
; _this$ = ecx

; 1350 : 	{ (*this)[key] = newValue; }

  00000	55		 push	 ebp
  00001	8b ec		 mov	 ebp, esp
  00003	83 ec 44	 sub	 esp, 68			; 00000044H
  00006	53		 push	 ebx
  00007	56		 push	 esi
  00008	57		 push	 edi
  00009	89 4d fc	 mov	 DWORD PTR _this$[ebp], ecx
  0000c	8b 45 08	 mov	 eax, DWORD PTR _key$[ebp]
  0000f	50		 push	 eax
  00010	8b 4d fc	 mov	 ecx, DWORD PTR _this$[ebp]
  00013	e8 00 00 00 00	 call	 ??A?$CMap@KKPAVCGamePropertyItem@NGamePropertyListManager@@AAPAV12@@@QAEAAPAVCGamePropertyItem@NGamePropertyListManager@@K@Z ; CMap<unsigned long,unsigned long,NGamePropertyListManager::CGamePropertyItem *,NGamePropertyListManager::CGamePropertyItem * &>::operator[]
  00018	8b 4d 0c	 mov	 ecx, DWORD PTR _newValue$[ebp]
  0001b	8b 11		 mov	 edx, DWORD PTR [ecx]
  0001d	89 10		 mov	 DWORD PTR [eax], edx
  0001f	5f		 pop	 edi
  00020	5e		 pop	 esi
  00021	5b		 pop	 ebx
  00022	8b e5		 mov	 esp, ebp
  00024	5d		 pop	 ebp
  00025	c2 08 00	 ret	 8
?SetAt@?$CMap@KKPAVCGamePropertyItem@NGamePropertyListManager@@AAPAV12@@@QAEXKAAPAVCGamePropertyItem@NGamePropertyListManager@@@Z ENDP ; CMap<unsigned long,unsigned long,NGamePropertyListManager::CGamePropertyItem *,NGamePropertyListManager::CGamePropertyItem * &>::SetAt
_TEXT	ENDS
; Function compile flags: /Odtp /ZI
; File c:\program files (x86)\microsoft visual studio\2017\community\vc\tools\msvc\14.16.27023\atlmfc\include\afxtempl.h
;	COMDAT ??A?$CMap@KKPAVCGamePropertyItem@NGamePropertyListManager@@AAPAV12@@@QAEAAPAVCGamePropertyItem@NGamePropertyListManager@@K@Z
_TEXT	SEGMENT
tv85 = -88						; size = 4
___afx_condVal$1 = -20					; size = 4
_pAssoc$ = -16						; size = 4
_nHashValue$ = -12					; size = 4
_nHashBucket$ = -8					; size = 4
_this$ = -4						; size = 4
_key$ = 8						; size = 4
??A?$CMap@KKPAVCGamePropertyItem@NGamePropertyListManager@@AAPAV12@@@QAEAAPAVCGamePropertyItem@NGamePropertyListManager@@K@Z PROC ; CMap<unsigned long,unsigned long,NGamePropertyListManager::CGamePropertyItem *,NGamePropertyListManager::CGamePropertyItem * &>::operator[], COMDAT
; _this$ = ecx

; 1585 : {

  00000	55		 push	 ebp
  00001	8b ec		 mov	 ebp, esp
  00003	83 ec 58	 sub	 esp, 88			; 00000058H
  00006	53		 push	 ebx
  00007	56		 push	 esi
  00008	57		 push	 edi
  00009	89 4d fc	 mov	 DWORD PTR _this$[ebp], ecx

; 1586 : 	ASSERT_VALID(this);

  0000c	68 32 06 00 00	 push	 1586			; 00000632H
  00011	68 00 00 00 00	 push	 OFFSET ??_C@_0HC@HBCNBCLF@c?3?2program?5files?5?$CIx86?$CJ?2microsof@
  00016	8b 45 fc	 mov	 eax, DWORD PTR _this$[ebp]
  00019	50		 push	 eax
  0001a	e8 00 00 00 00	 call	 ?AfxAssertValidObject@@YGXPBVCObject@@PBDH@Z ; AfxAssertValidObject

; 1587 : 
; 1588 : 	UINT nHashBucket, nHashValue;
; 1589 : 	CAssoc* pAssoc;
; 1590 : 	if ((pAssoc = GetAssocAt(key, nHashBucket, nHashValue)) == NULL)

  0001f	8d 45 f4	 lea	 eax, DWORD PTR _nHashValue$[ebp]
  00022	50		 push	 eax
  00023	8d 4d f8	 lea	 ecx, DWORD PTR _nHashBucket$[ebp]
  00026	51		 push	 ecx
  00027	8b 55 08	 mov	 edx, DWORD PTR _key$[ebp]
  0002a	52		 push	 edx
  0002b	8b 4d fc	 mov	 ecx, DWORD PTR _this$[ebp]
  0002e	e8 00 00 00 00	 call	 ?GetAssocAt@?$CMap@KKPAVCGamePropertyItem@NGamePropertyListManager@@AAPAV12@@@IBEPAVCAssoc@1@KAAI0@Z ; CMap<unsigned long,unsigned long,NGamePropertyListManager::CGamePropertyItem *,NGamePropertyListManager::CGamePropertyItem * &>::GetAssocAt
  00033	89 45 f0	 mov	 DWORD PTR _pAssoc$[ebp], eax
  00036	83 7d f0 00	 cmp	 DWORD PTR _pAssoc$[ebp], 0
  0003a	0f 85 9b 00 00
	00		 jne	 $LN5@operator

; 1591 : 	{
; 1592 : 		if (m_pHashTable == NULL)

  00040	8b 45 fc	 mov	 eax, DWORD PTR _this$[ebp]
  00043	83 78 04 00	 cmp	 DWORD PTR [eax+4], 0
  00047	75 11		 jne	 SHORT $LN4@operator

; 1593 : 			InitHashTable(m_nHashTableSize);

  00049	6a 01		 push	 1
  0004b	8b 45 fc	 mov	 eax, DWORD PTR _this$[ebp]
  0004e	8b 48 08	 mov	 ecx, DWORD PTR [eax+8]
  00051	51		 push	 ecx
  00052	8b 4d fc	 mov	 ecx, DWORD PTR _this$[ebp]
  00055	e8 00 00 00 00	 call	 ?InitHashTable@?$CMap@KKPAVCGamePropertyItem@NGamePropertyListManager@@AAPAV12@@@QAEXIH@Z ; CMap<unsigned long,unsigned long,NGamePropertyListManager::CGamePropertyItem *,NGamePropertyListManager::CGamePropertyItem * &>::InitHashTable
$LN4@operator:

; 1594 : 
; 1595 : 		ENSURE(m_pHashTable);

  0005a	8b 45 fc	 mov	 eax, DWORD PTR _this$[ebp]
  0005d	83 78 04 00	 cmp	 DWORD PTR [eax+4], 0
  00061	74 09		 je	 SHORT $LN9@operator
  00063	c7 45 a8 01 00
	00 00		 mov	 DWORD PTR tv85[ebp], 1
  0006a	eb 07		 jmp	 SHORT $LN10@operator
$LN9@operator:
  0006c	c7 45 a8 00 00
	00 00		 mov	 DWORD PTR tv85[ebp], 0
$LN10@operator:
  00073	8b 4d a8	 mov	 ecx, DWORD PTR tv85[ebp]
  00076	89 4d ec	 mov	 DWORD PTR ___afx_condVal$1[ebp], ecx
  00079	83 7d ec 00	 cmp	 DWORD PTR ___afx_condVal$1[ebp], 0
  0007d	75 14		 jne	 SHORT $LN11@operator
  0007f	68 3b 06 00 00	 push	 1595			; 0000063bH
  00084	68 00 00 00 00	 push	 OFFSET ??_C@_0HC@HBCNBCLF@c?3?2program?5files?5?$CIx86?$CJ?2microsof@
  00089	e8 00 00 00 00	 call	 ?AfxAssertFailedLine@@YGHPBDH@Z ; AfxAssertFailedLine
  0008e	85 c0		 test	 eax, eax
  00090	74 01		 je	 SHORT $LN11@operator
  00092	cc		 int	 3
$LN11@operator:
  00093	83 7d ec 00	 cmp	 DWORD PTR ___afx_condVal$1[ebp], 0
  00097	75 05		 jne	 SHORT $LN2@operator
  00099	e8 00 00 00 00	 call	 ?AfxThrowInvalidArgException@@YGXXZ ; AfxThrowInvalidArgException
$LN2@operator:
  0009e	33 c0		 xor	 eax, eax
  000a0	75 b8		 jne	 SHORT $LN4@operator

; 1596 : 		// it doesn't exist, add a new Association
; 1597 : 		pAssoc = NewAssoc(key);

  000a2	8b 45 08	 mov	 eax, DWORD PTR _key$[ebp]
  000a5	50		 push	 eax
  000a6	8b 4d fc	 mov	 ecx, DWORD PTR _this$[ebp]
  000a9	e8 00 00 00 00	 call	 ?NewAssoc@?$CMap@KKPAVCGamePropertyItem@NGamePropertyListManager@@AAPAV12@@@IAEPAVCAssoc@1@K@Z ; CMap<unsigned long,unsigned long,NGamePropertyListManager::CGamePropertyItem *,NGamePropertyListManager::CGamePropertyItem * &>::NewAssoc
  000ae	89 45 f0	 mov	 DWORD PTR _pAssoc$[ebp], eax

; 1598 : 		pAssoc->nHashValue = nHashValue;

  000b1	8b 45 f0	 mov	 eax, DWORD PTR _pAssoc$[ebp]
  000b4	8b 4d f4	 mov	 ecx, DWORD PTR _nHashValue$[ebp]
  000b7	89 48 0c	 mov	 DWORD PTR [eax+12], ecx

; 1599 : 		//'pAssoc->value' is a constructed object, nothing more
; 1600 : 
; 1601 : 		// put into hash table
; 1602 : 		pAssoc->pNext = m_pHashTable[nHashBucket];

  000ba	8b 45 fc	 mov	 eax, DWORD PTR _this$[ebp]
  000bd	8b 48 04	 mov	 ecx, DWORD PTR [eax+4]
  000c0	8b 55 f0	 mov	 edx, DWORD PTR _pAssoc$[ebp]
  000c3	8b 45 f8	 mov	 eax, DWORD PTR _nHashBucket$[ebp]
  000c6	8b 0c 81	 mov	 ecx, DWORD PTR [ecx+eax*4]
  000c9	89 4a 08	 mov	 DWORD PTR [edx+8], ecx

; 1603 : 		m_pHashTable[nHashBucket] = pAssoc;

  000cc	8b 45 fc	 mov	 eax, DWORD PTR _this$[ebp]
  000cf	8b 48 04	 mov	 ecx, DWORD PTR [eax+4]
  000d2	8b 55 f8	 mov	 edx, DWORD PTR _nHashBucket$[ebp]
  000d5	8b 45 f0	 mov	 eax, DWORD PTR _pAssoc$[ebp]
  000d8	89 04 91	 mov	 DWORD PTR [ecx+edx*4], eax
$LN5@operator:

; 1604 : 	}
; 1605 : 	return pAssoc->value;  // return new reference

  000db	8b 45 f0	 mov	 eax, DWORD PTR _pAssoc$[ebp]
  000de	83 c0 04	 add	 eax, 4
$LN8@operator:

; 1606 : }

  000e1	5f		 pop	 edi
  000e2	5e		 pop	 esi
  000e3	5b		 pop	 ebx
  000e4	8b e5		 mov	 esp, ebp
  000e6	5d		 pop	 ebp
  000e7	c2 04 00	 ret	 4
??A?$CMap@KKPAVCGamePropertyItem@NGamePropertyListManager@@AAPAV12@@@QAEAAPAVCGamePropertyItem@NGamePropertyListManager@@K@Z ENDP ; CMap<unsigned long,unsigned long,NGamePropertyListManager::CGamePropertyItem *,NGamePropertyListManager::CGamePropertyItem * &>::operator[]
_TEXT	ENDS
; Function compile flags: /Odtp /ZI
; File c:\program files (x86)\microsoft visual studio\2017\community\vc\tools\msvc\14.16.27023\atlmfc\include\afxtempl.h
;	COMDAT ?Lookup@?$CMap@KKPAVCGamePropertyItem@NGamePropertyListManager@@AAPAV12@@@QBEHKAAPAVCGamePropertyItem@NGamePropertyListManager@@@Z
_TEXT	SEGMENT
_pAssoc$ = -16						; size = 4
_nHashValue$ = -12					; size = 4
_nHashBucket$ = -8					; size = 4
_this$ = -4						; size = 4
_key$ = 8						; size = 4
_rValue$ = 12						; size = 4
?Lookup@?$CMap@KKPAVCGamePropertyItem@NGamePropertyListManager@@AAPAV12@@@QBEHKAAPAVCGamePropertyItem@NGamePropertyListManager@@@Z PROC ; CMap<unsigned long,unsigned long,NGamePropertyListManager::CGamePropertyItem *,NGamePropertyListManager::CGamePropertyItem * &>::Lookup, COMDAT
; _this$ = ecx

; 1551 : {

  00000	55		 push	 ebp
  00001	8b ec		 mov	 ebp, esp
  00003	83 ec 50	 sub	 esp, 80			; 00000050H
  00006	53		 push	 ebx
  00007	56		 push	 esi
  00008	57		 push	 edi
  00009	89 4d fc	 mov	 DWORD PTR _this$[ebp], ecx

; 1552 : 	ASSERT_VALID(this);

  0000c	68 10 06 00 00	 push	 1552			; 00000610H
  00011	68 00 00 00 00	 push	 OFFSET ??_C@_0HC@HBCNBCLF@c?3?2program?5files?5?$CIx86?$CJ?2microsof@
  00016	8b 45 fc	 mov	 eax, DWORD PTR _this$[ebp]
  00019	50		 push	 eax
  0001a	e8 00 00 00 00	 call	 ?AfxAssertValidObject@@YGXPBVCObject@@PBDH@Z ; AfxAssertValidObject

; 1553 : 
; 1554 : 	UINT nHashBucket, nHashValue;
; 1555 : 	CAssoc* pAssoc = GetAssocAt(key, nHashBucket, nHashValue);

  0001f	8d 45 f4	 lea	 eax, DWORD PTR _nHashValue$[ebp]
  00022	50		 push	 eax
  00023	8d 4d f8	 lea	 ecx, DWORD PTR _nHashBucket$[ebp]
  00026	51		 push	 ecx
  00027	8b 55 08	 mov	 edx, DWORD PTR _key$[ebp]
  0002a	52		 push	 edx
  0002b	8b 4d fc	 mov	 ecx, DWORD PTR _this$[ebp]
  0002e	e8 00 00 00 00	 call	 ?GetAssocAt@?$CMap@KKPAVCGamePropertyItem@NGamePropertyListManager@@AAPAV12@@@IBEPAVCAssoc@1@KAAI0@Z ; CMap<unsigned long,unsigned long,NGamePropertyListManager::CGamePropertyItem *,NGamePropertyListManager::CGamePropertyItem * &>::GetAssocAt
  00033	89 45 f0	 mov	 DWORD PTR _pAssoc$[ebp], eax

; 1556 : 	if (pAssoc == NULL)

  00036	83 7d f0 00	 cmp	 DWORD PTR _pAssoc$[ebp], 0
  0003a	75 04		 jne	 SHORT $LN2@Lookup

; 1557 : 		return FALSE;  // not in map

  0003c	33 c0		 xor	 eax, eax
  0003e	eb 10		 jmp	 SHORT $LN1@Lookup
$LN2@Lookup:

; 1558 : 
; 1559 : 	rValue = pAssoc->value;

  00040	8b 45 0c	 mov	 eax, DWORD PTR _rValue$[ebp]
  00043	8b 4d f0	 mov	 ecx, DWORD PTR _pAssoc$[ebp]
  00046	8b 51 04	 mov	 edx, DWORD PTR [ecx+4]
  00049	89 10		 mov	 DWORD PTR [eax], edx

; 1560 : 	return TRUE;

  0004b	b8 01 00 00 00	 mov	 eax, 1
$LN1@Lookup:

; 1561 : }

  00050	5f		 pop	 edi
  00051	5e		 pop	 esi
  00052	5b		 pop	 ebx
  00053	8b e5		 mov	 esp, ebp
  00055	5d		 pop	 ebp
  00056	c2 08 00	 ret	 8
?Lookup@?$CMap@KKPAVCGamePropertyItem@NGamePropertyListManager@@AAPAV12@@@QBEHKAAPAVCGamePropertyItem@NGamePropertyListManager@@@Z ENDP ; CMap<unsigned long,unsigned long,NGamePropertyListManager::CGamePropertyItem *,NGamePropertyListManager::CGamePropertyItem * &>::Lookup
_TEXT	ENDS
; Function compile flags: /Odtp /ZI
; File c:\program files (x86)\microsoft visual studio\2017\community\vc\tools\msvc\14.16.27023\atlmfc\include\afxtempl.h
;	COMDAT ??0?$CMap@KKPAVCGamePropertyItem@NGamePropertyListManager@@AAPAV12@@@QAE@H@Z
_TEXT	SEGMENT
_this$ = -16						; size = 4
__$EHRec$ = -12						; size = 12
_nBlockSize$ = 8					; size = 4
??0?$CMap@KKPAVCGamePropertyItem@NGamePropertyListManager@@AAPAV12@@@QAE@H@Z PROC ; CMap<unsigned long,unsigned long,NGamePropertyListManager::CGamePropertyItem *,NGamePropertyListManager::CGamePropertyItem * &>::CMap<unsigned long,unsigned long,NGamePropertyListManager::CGamePropertyItem *,NGamePropertyListManager::CGamePropertyItem * &>, COMDAT
; _this$ = ecx

; 1403 : {

  00000	55		 push	 ebp
  00001	8b ec		 mov	 ebp, esp
  00003	6a ff		 push	 -1
  00005	68 00 00 00 00	 push	 __ehhandler$??0?$CMap@KKPAVCGamePropertyItem@NGamePropertyListManager@@AAPAV12@@@QAE@H@Z
  0000a	64 a1 00 00 00
	00		 mov	 eax, DWORD PTR fs:0
  00010	50		 push	 eax
  00011	83 ec 44	 sub	 esp, 68			; 00000044H
  00014	53		 push	 ebx
  00015	56		 push	 esi
  00016	57		 push	 edi
  00017	a1 00 00 00 00	 mov	 eax, DWORD PTR ___security_cookie
  0001c	33 c5		 xor	 eax, ebp
  0001e	50		 push	 eax
  0001f	8d 45 f4	 lea	 eax, DWORD PTR __$EHRec$[ebp]
  00022	64 a3 00 00 00
	00		 mov	 DWORD PTR fs:0, eax
  00028	89 4d f0	 mov	 DWORD PTR _this$[ebp], ecx
  0002b	8b 4d f0	 mov	 ecx, DWORD PTR _this$[ebp]
  0002e	e8 00 00 00 00	 call	 ??0CObject@@IAE@XZ	; CObject::CObject
  00033	c7 45 fc 00 00
	00 00		 mov	 DWORD PTR __$EHRec$[ebp+8], 0
  0003a	8b 45 f0	 mov	 eax, DWORD PTR _this$[ebp]
  0003d	c7 00 00 00 00
	00		 mov	 DWORD PTR [eax], OFFSET ??_7?$CMap@KKPAVCGamePropertyItem@NGamePropertyListManager@@AAPAV12@@@6B@

; 1404 : 	ASSERT(nBlockSize > 0);

  00043	83 7d 08 00	 cmp	 DWORD PTR _nBlockSize$[ebp], 0
  00047	7f 14		 jg	 SHORT $LN3@CMap
  00049	68 7c 05 00 00	 push	 1404			; 0000057cH
  0004e	68 00 00 00 00	 push	 OFFSET ??_C@_0HC@HBCNBCLF@c?3?2program?5files?5?$CIx86?$CJ?2microsof@
  00053	e8 00 00 00 00	 call	 ?AfxAssertFailedLine@@YGHPBDH@Z ; AfxAssertFailedLine
  00058	85 c0		 test	 eax, eax
  0005a	74 01		 je	 SHORT $LN3@CMap
  0005c	cc		 int	 3
$LN3@CMap:

; 1405 : 
; 1406 : 	m_pHashTable = NULL;

  0005d	8b 45 f0	 mov	 eax, DWORD PTR _this$[ebp]
  00060	c7 40 04 00 00
	00 00		 mov	 DWORD PTR [eax+4], 0

; 1407 : 	m_nHashTableSize = 17;  // default size

  00067	8b 45 f0	 mov	 eax, DWORD PTR _this$[ebp]
  0006a	c7 40 08 11 00
	00 00		 mov	 DWORD PTR [eax+8], 17	; 00000011H

; 1408 : 	m_nCount = 0;

  00071	8b 45 f0	 mov	 eax, DWORD PTR _this$[ebp]
  00074	c7 40 0c 00 00
	00 00		 mov	 DWORD PTR [eax+12], 0

; 1409 : 	m_pFreeList = NULL;

  0007b	8b 45 f0	 mov	 eax, DWORD PTR _this$[ebp]
  0007e	c7 40 10 00 00
	00 00		 mov	 DWORD PTR [eax+16], 0

; 1410 : 	m_pBlocks = NULL;

  00085	8b 45 f0	 mov	 eax, DWORD PTR _this$[ebp]
  00088	c7 40 14 00 00
	00 00		 mov	 DWORD PTR [eax+20], 0

; 1411 : 	m_nBlockSize = nBlockSize;

  0008f	8b 45 f0	 mov	 eax, DWORD PTR _this$[ebp]
  00092	8b 4d 08	 mov	 ecx, DWORD PTR _nBlockSize$[ebp]
  00095	89 48 18	 mov	 DWORD PTR [eax+24], ecx

; 1412 : }

  00098	c7 45 fc ff ff
	ff ff		 mov	 DWORD PTR __$EHRec$[ebp+8], -1
  0009f	8b 45 f0	 mov	 eax, DWORD PTR _this$[ebp]
  000a2	8b 4d f4	 mov	 ecx, DWORD PTR __$EHRec$[ebp]
  000a5	64 89 0d 00 00
	00 00		 mov	 DWORD PTR fs:0, ecx
  000ac	59		 pop	 ecx
  000ad	5f		 pop	 edi
  000ae	5e		 pop	 esi
  000af	5b		 pop	 ebx
  000b0	8b e5		 mov	 esp, ebp
  000b2	5d		 pop	 ebp
  000b3	c2 04 00	 ret	 4
_TEXT	ENDS
;	COMDAT text$x
text$x	SEGMENT
__unwindfunclet$??0?$CMap@KKPAVCGamePropertyItem@NGamePropertyListManager@@AAPAV12@@@QAE@H@Z$0:
  00000	8b 4d f0	 mov	 ecx, DWORD PTR _this$[ebp]
  00003	e9 00 00 00 00	 jmp	 ??1CObject@@UAE@XZ	; CObject::~CObject
__ehhandler$??0?$CMap@KKPAVCGamePropertyItem@NGamePropertyListManager@@AAPAV12@@@QAE@H@Z:
  00008	8b 54 24 08	 mov	 edx, DWORD PTR [esp+8]
  0000c	8d 42 0c	 lea	 eax, DWORD PTR [edx+12]
  0000f	8b 4a ac	 mov	 ecx, DWORD PTR [edx-84]
  00012	33 c8		 xor	 ecx, eax
  00014	e8 00 00 00 00	 call	 @__security_check_cookie@4
  00019	b8 00 00 00 00	 mov	 eax, OFFSET __ehfuncinfo$??0?$CMap@KKPAVCGamePropertyItem@NGamePropertyListManager@@AAPAV12@@@QAE@H@Z
  0001e	e9 00 00 00 00	 jmp	 ___CxxFrameHandler3
text$x	ENDS
??0?$CMap@KKPAVCGamePropertyItem@NGamePropertyListManager@@AAPAV12@@@QAE@H@Z ENDP ; CMap<unsigned long,unsigned long,NGamePropertyListManager::CGamePropertyItem *,NGamePropertyListManager::CGamePropertyItem * &>::CMap<unsigned long,unsigned long,NGamePropertyListManager::CGamePropertyItem *,NGamePropertyListManager::CGamePropertyItem * &>
; Function compile flags: /Odtp /ZI
;	COMDAT ??_G?$CMap@KKPAVCGamePropertyRelatItem@NGamePropertyListManager@@AAPAV12@@@UAEPAXI@Z
_TEXT	SEGMENT
_this$ = -4						; size = 4
___flags$ = 8						; size = 4
??_G?$CMap@KKPAVCGamePropertyRelatItem@NGamePropertyListManager@@AAPAV12@@@UAEPAXI@Z PROC ; CMap<unsigned long,unsigned long,NGamePropertyListManager::CGamePropertyRelatItem *,NGamePropertyListManager::CGamePropertyRelatItem * &>::`scalar deleting destructor', COMDAT
; _this$ = ecx
  00000	55		 push	 ebp
  00001	8b ec		 mov	 ebp, esp
  00003	83 ec 44	 sub	 esp, 68			; 00000044H
  00006	53		 push	 ebx
  00007	56		 push	 esi
  00008	57		 push	 edi
  00009	89 4d fc	 mov	 DWORD PTR _this$[ebp], ecx
  0000c	8b 4d fc	 mov	 ecx, DWORD PTR _this$[ebp]
  0000f	e8 00 00 00 00	 call	 ??1?$CMap@KKPAVCGamePropertyRelatItem@NGamePropertyListManager@@AAPAV12@@@UAE@XZ ; CMap<unsigned long,unsigned long,NGamePropertyListManager::CGamePropertyRelatItem *,NGamePropertyListManager::CGamePropertyRelatItem * &>::~CMap<unsigned long,unsigned long,NGamePropertyListManager::CGamePropertyRelatItem *,NGamePropertyListManager::CGamePropertyRelatItem * &>
  00014	8b 45 08	 mov	 eax, DWORD PTR ___flags$[ebp]
  00017	83 e0 01	 and	 eax, 1
  0001a	74 21		 je	 SHORT $LN2@scalar
  0001c	8b 45 08	 mov	 eax, DWORD PTR ___flags$[ebp]
  0001f	83 e0 04	 and	 eax, 4
  00022	75 0b		 jne	 SHORT $LN3@scalar
  00024	8b 45 fc	 mov	 eax, DWORD PTR _this$[ebp]
  00027	50		 push	 eax
  00028	e8 00 00 00 00	 call	 ??3CObject@@SGXPAX@Z	; CObject::operator delete
  0002d	eb 0e		 jmp	 SHORT $LN2@scalar
$LN3@scalar:
  0002f	6a 1c		 push	 28			; 0000001cH
  00031	8b 45 fc	 mov	 eax, DWORD PTR _this$[ebp]
  00034	50		 push	 eax
  00035	e8 00 00 00 00	 call	 ?__global_delete@@YAXPAXI@Z ; __global_delete
  0003a	83 c4 08	 add	 esp, 8
$LN2@scalar:
  0003d	8b 45 fc	 mov	 eax, DWORD PTR _this$[ebp]
  00040	5f		 pop	 edi
  00041	5e		 pop	 esi
  00042	5b		 pop	 ebx
  00043	8b e5		 mov	 esp, ebp
  00045	5d		 pop	 ebp
  00046	c2 04 00	 ret	 4
??_G?$CMap@KKPAVCGamePropertyRelatItem@NGamePropertyListManager@@AAPAV12@@@UAEPAXI@Z ENDP ; CMap<unsigned long,unsigned long,NGamePropertyListManager::CGamePropertyRelatItem *,NGamePropertyListManager::CGamePropertyRelatItem * &>::`scalar deleting destructor'
_TEXT	ENDS
; Function compile flags: /Odtp /ZI
; File c:\program files (x86)\microsoft visual studio\2017\community\vc\tools\msvc\14.16.27023\atlmfc\include\afxtempl.h
;	COMDAT ?AssertValid@?$CMap@KKPAVCGamePropertyRelatItem@NGamePropertyListManager@@AAPAV12@@@UBEXXZ
_TEXT	SEGMENT
_this$ = -4						; size = 4
?AssertValid@?$CMap@KKPAVCGamePropertyRelatItem@NGamePropertyListManager@@AAPAV12@@@UBEXXZ PROC ; CMap<unsigned long,unsigned long,NGamePropertyListManager::CGamePropertyRelatItem *,NGamePropertyListManager::CGamePropertyRelatItem * &>::AssertValid, COMDAT
; _this$ = ecx

; 1820 : {

  00000	55		 push	 ebp
  00001	8b ec		 mov	 ebp, esp
  00003	83 ec 44	 sub	 esp, 68			; 00000044H
  00006	53		 push	 ebx
  00007	56		 push	 esi
  00008	57		 push	 edi
  00009	89 4d fc	 mov	 DWORD PTR _this$[ebp], ecx

; 1821 : 	CObject::AssertValid();

  0000c	8b 4d fc	 mov	 ecx, DWORD PTR _this$[ebp]
  0000f	e8 00 00 00 00	 call	 ?AssertValid@CObject@@UBEXXZ ; CObject::AssertValid

; 1822 : 
; 1823 : 	ASSERT(m_nHashTableSize > 0);

  00014	8b 45 fc	 mov	 eax, DWORD PTR _this$[ebp]
  00017	83 78 08 00	 cmp	 DWORD PTR [eax+8], 0
  0001b	77 14		 ja	 SHORT $LN3@AssertVali
  0001d	68 1f 07 00 00	 push	 1823			; 0000071fH
  00022	68 00 00 00 00	 push	 OFFSET ??_C@_0HC@HBCNBCLF@c?3?2program?5files?5?$CIx86?$CJ?2microsof@
  00027	e8 00 00 00 00	 call	 ?AfxAssertFailedLine@@YGHPBDH@Z ; AfxAssertFailedLine
  0002c	85 c0		 test	 eax, eax
  0002e	74 01		 je	 SHORT $LN3@AssertVali
  00030	cc		 int	 3
$LN3@AssertVali:

; 1824 : 	ASSERT(m_nCount == 0 || m_pHashTable != NULL);

  00031	8b 45 fc	 mov	 eax, DWORD PTR _this$[ebp]
  00034	83 78 0c 00	 cmp	 DWORD PTR [eax+12], 0
  00038	74 1d		 je	 SHORT $LN1@AssertVali
  0003a	8b 4d fc	 mov	 ecx, DWORD PTR _this$[ebp]
  0003d	83 79 04 00	 cmp	 DWORD PTR [ecx+4], 0
  00041	75 14		 jne	 SHORT $LN1@AssertVali
  00043	68 20 07 00 00	 push	 1824			; 00000720H
  00048	68 00 00 00 00	 push	 OFFSET ??_C@_0HC@HBCNBCLF@c?3?2program?5files?5?$CIx86?$CJ?2microsof@
  0004d	e8 00 00 00 00	 call	 ?AfxAssertFailedLine@@YGHPBDH@Z ; AfxAssertFailedLine
  00052	85 c0		 test	 eax, eax
  00054	74 01		 je	 SHORT $LN1@AssertVali
  00056	cc		 int	 3
$LN1@AssertVali:

; 1825 : 		// non-empty map should have hash table
; 1826 : }

  00057	5f		 pop	 edi
  00058	5e		 pop	 esi
  00059	5b		 pop	 ebx
  0005a	8b e5		 mov	 esp, ebp
  0005c	5d		 pop	 ebp
  0005d	c3		 ret	 0
?AssertValid@?$CMap@KKPAVCGamePropertyRelatItem@NGamePropertyListManager@@AAPAV12@@@UBEXXZ ENDP ; CMap<unsigned long,unsigned long,NGamePropertyListManager::CGamePropertyRelatItem *,NGamePropertyListManager::CGamePropertyRelatItem * &>::AssertValid
_TEXT	ENDS
; Function compile flags: /Odtp /ZI
; File c:\program files (x86)\microsoft visual studio\2017\community\vc\tools\msvc\14.16.27023\atlmfc\include\afxtempl.h
;	COMDAT ?Dump@?$CMap@KKPAVCGamePropertyRelatItem@NGamePropertyListManager@@AAPAV12@@@UBEXAAVCDumpContext@@@Z
_TEXT	SEGMENT
_pos$1 = -16						; size = 4
_val$2 = -12						; size = 4
_key$3 = -8						; size = 4
_this$ = -4						; size = 4
_dc$ = 8						; size = 4
?Dump@?$CMap@KKPAVCGamePropertyRelatItem@NGamePropertyListManager@@AAPAV12@@@UBEXAAVCDumpContext@@@Z PROC ; CMap<unsigned long,unsigned long,NGamePropertyListManager::CGamePropertyRelatItem *,NGamePropertyListManager::CGamePropertyRelatItem * &>::Dump, COMDAT
; _this$ = ecx

; 1794 : {

  00000	55		 push	 ebp
  00001	8b ec		 mov	 ebp, esp
  00003	83 ec 50	 sub	 esp, 80			; 00000050H
  00006	53		 push	 ebx
  00007	56		 push	 esi
  00008	57		 push	 edi
  00009	89 4d fc	 mov	 DWORD PTR _this$[ebp], ecx

; 1795 : 	CObject::Dump(dc);

  0000c	8b 45 08	 mov	 eax, DWORD PTR _dc$[ebp]
  0000f	50		 push	 eax
  00010	8b 4d fc	 mov	 ecx, DWORD PTR _this$[ebp]
  00013	e8 00 00 00 00	 call	 ?Dump@CObject@@UBEXAAVCDumpContext@@@Z ; CObject::Dump

; 1796 : 
; 1797 : 	dc << "with " << m_nCount << " elements";

  00018	68 00 00 00 00	 push	 OFFSET ??_C@_09HCLNAIDE@?5elements@
  0001d	8b 45 fc	 mov	 eax, DWORD PTR _this$[ebp]
  00020	8b 48 0c	 mov	 ecx, DWORD PTR [eax+12]
  00023	51		 push	 ecx
  00024	68 00 00 00 00	 push	 OFFSET ??_C@_05PLCFPPOI@with?5@
  00029	8b 4d 08	 mov	 ecx, DWORD PTR _dc$[ebp]
  0002c	e8 00 00 00 00	 call	 ??6CDumpContext@@QAEAAV0@PBD@Z ; CDumpContext::operator<<
  00031	8b c8		 mov	 ecx, eax
  00033	e8 00 00 00 00	 call	 ??6CDumpContext@@QAEAAV0@H@Z ; CDumpContext::operator<<
  00038	8b c8		 mov	 ecx, eax
  0003a	e8 00 00 00 00	 call	 ??6CDumpContext@@QAEAAV0@PBD@Z ; CDumpContext::operator<<

; 1798 : 	if (dc.GetDepth() > 0)

  0003f	8b 4d 08	 mov	 ecx, DWORD PTR _dc$[ebp]
  00042	e8 00 00 00 00	 call	 ?GetDepth@CDumpContext@@QBEHXZ ; CDumpContext::GetDepth
  00047	85 c0		 test	 eax, eax
  00049	7e 71		 jle	 SHORT $LN4@Dump

; 1799 : 	{
; 1800 : 		// Dump in format "[key] -> value"
; 1801 : 		KEY key[1];
; 1802 : 		VALUE val[1];
; 1803 : 
; 1804 : 		POSITION pos = GetStartPosition();

  0004b	8b 4d fc	 mov	 ecx, DWORD PTR _this$[ebp]
  0004e	e8 00 00 00 00	 call	 ?GetStartPosition@?$CMap@KKPAVCGamePropertyRelatItem@NGamePropertyListManager@@AAPAV12@@@QBEPAU__POSITION@@XZ ; CMap<unsigned long,unsigned long,NGamePropertyListManager::CGamePropertyRelatItem *,NGamePropertyListManager::CGamePropertyRelatItem * &>::GetStartPosition
  00053	89 45 f0	 mov	 DWORD PTR _pos$1[ebp], eax
$LN2@Dump:

; 1805 : 		while (pos != NULL)

  00056	83 7d f0 00	 cmp	 DWORD PTR _pos$1[ebp], 0
  0005a	74 60		 je	 SHORT $LN4@Dump

; 1806 : 		{
; 1807 : 			GetNextAssoc(pos, key[0], val[0]);

  0005c	b8 04 00 00 00	 mov	 eax, 4
  00061	6b c8 00	 imul	 ecx, eax, 0
  00064	8d 54 0d f4	 lea	 edx, DWORD PTR _val$2[ebp+ecx]
  00068	52		 push	 edx
  00069	b8 04 00 00 00	 mov	 eax, 4
  0006e	6b c8 00	 imul	 ecx, eax, 0
  00071	8d 54 0d f8	 lea	 edx, DWORD PTR _key$3[ebp+ecx]
  00075	52		 push	 edx
  00076	8d 45 f0	 lea	 eax, DWORD PTR _pos$1[ebp]
  00079	50		 push	 eax
  0007a	8b 4d fc	 mov	 ecx, DWORD PTR _this$[ebp]
  0007d	e8 00 00 00 00	 call	 ?GetNextAssoc@?$CMap@KKPAVCGamePropertyRelatItem@NGamePropertyListManager@@AAPAV12@@@QBEXAAPAU__POSITION@@AAKAAPAVCGamePropertyRelatItem@NGamePropertyListManager@@@Z ; CMap<unsigned long,unsigned long,NGamePropertyListManager::CGamePropertyRelatItem *,NGamePropertyListManager::CGamePropertyRelatItem * &>::GetNextAssoc

; 1808 : 			dc << "\n\t[";

  00082	68 00 00 00 00	 push	 OFFSET ??_C@_03OHJIHPJH@?6?7?$FL@
  00087	8b 4d 08	 mov	 ecx, DWORD PTR _dc$[ebp]
  0008a	e8 00 00 00 00	 call	 ??6CDumpContext@@QAEAAV0@PBD@Z ; CDumpContext::operator<<

; 1809 : 			DumpElements<KEY>(dc, key, 1);

  0008f	6a 01		 push	 1
  00091	8d 45 f8	 lea	 eax, DWORD PTR _key$3[ebp]
  00094	50		 push	 eax
  00095	8b 4d 08	 mov	 ecx, DWORD PTR _dc$[ebp]
  00098	51		 push	 ecx
  00099	e8 00 00 00 00	 call	 ??$DumpElements@K@@YGXAAVCDumpContext@@PBKH@Z ; DumpElements<unsigned long>

; 1810 : 			dc << "] = ";

  0009e	68 00 00 00 00	 push	 OFFSET ??_C@_04OAFLPOMH@?$FN?5?$DN?5@
  000a3	8b 4d 08	 mov	 ecx, DWORD PTR _dc$[ebp]
  000a6	e8 00 00 00 00	 call	 ??6CDumpContext@@QAEAAV0@PBD@Z ; CDumpContext::operator<<

; 1811 : 			DumpElements<VALUE>(dc, val, 1);

  000ab	6a 01		 push	 1
  000ad	8d 45 f4	 lea	 eax, DWORD PTR _val$2[ebp]
  000b0	50		 push	 eax
  000b1	8b 4d 08	 mov	 ecx, DWORD PTR _dc$[ebp]
  000b4	51		 push	 ecx
  000b5	e8 00 00 00 00	 call	 ??$DumpElements@PAVCGamePropertyRelatItem@NGamePropertyListManager@@@@YGXAAVCDumpContext@@PBQAVCGamePropertyRelatItem@NGamePropertyListManager@@H@Z ; DumpElements<NGamePropertyListManager::CGamePropertyRelatItem *>

; 1812 : 		}

  000ba	eb 9a		 jmp	 SHORT $LN2@Dump
$LN4@Dump:

; 1813 : 	}
; 1814 : 
; 1815 : 	dc << "\n";

  000bc	68 00 00 00 00	 push	 OFFSET ??_C@_01EEMJAFIK@?6@
  000c1	8b 4d 08	 mov	 ecx, DWORD PTR _dc$[ebp]
  000c4	e8 00 00 00 00	 call	 ??6CDumpContext@@QAEAAV0@PBD@Z ; CDumpContext::operator<<

; 1816 : }

  000c9	5f		 pop	 edi
  000ca	5e		 pop	 esi
  000cb	5b		 pop	 ebx
  000cc	8b e5		 mov	 esp, ebp
  000ce	5d		 pop	 ebp
  000cf	c2 04 00	 ret	 4
?Dump@?$CMap@KKPAVCGamePropertyRelatItem@NGamePropertyListManager@@AAPAV12@@@UBEXAAVCDumpContext@@@Z ENDP ; CMap<unsigned long,unsigned long,NGamePropertyListManager::CGamePropertyRelatItem *,NGamePropertyListManager::CGamePropertyRelatItem * &>::Dump
_TEXT	ENDS
; Function compile flags: /Odtp /ZI
; File c:\program files (x86)\microsoft visual studio\2017\community\vc\tools\msvc\14.16.27023\atlmfc\include\afxtempl.h
;	COMDAT ?Serialize@?$CMap@KKPAVCGamePropertyRelatItem@NGamePropertyListManager@@AAPAV12@@@UAEXAAVCArchive@@@Z
_TEXT	SEGMENT
tv154 = -100						; size = 4
_newValue$1 = -32					; size = 4
_newKey$2 = -28						; size = 4
_nNewCount$3 = -24					; size = 4
_pValue$4 = -20						; size = 4
_pKey$5 = -16						; size = 4
_pAssoc$6 = -12						; size = 4
_nHash$7 = -8						; size = 4
_this$ = -4						; size = 4
_ar$ = 8						; size = 4
?Serialize@?$CMap@KKPAVCGamePropertyRelatItem@NGamePropertyListManager@@AAPAV12@@@UAEXAAVCArchive@@@Z PROC ; CMap<unsigned long,unsigned long,NGamePropertyListManager::CGamePropertyRelatItem *,NGamePropertyListManager::CGamePropertyRelatItem * &>::Serialize, COMDAT
; _this$ = ecx

; 1743 : {

  00000	55		 push	 ebp
  00001	8b ec		 mov	 ebp, esp
  00003	83 ec 64	 sub	 esp, 100		; 00000064H
  00006	53		 push	 ebx
  00007	56		 push	 esi
  00008	57		 push	 edi
  00009	89 4d fc	 mov	 DWORD PTR _this$[ebp], ecx

; 1744 : 	ASSERT_VALID(this);

  0000c	68 d0 06 00 00	 push	 1744			; 000006d0H
  00011	68 00 00 00 00	 push	 OFFSET ??_C@_0HC@HBCNBCLF@c?3?2program?5files?5?$CIx86?$CJ?2microsof@
  00016	8b 45 fc	 mov	 eax, DWORD PTR _this$[ebp]
  00019	50		 push	 eax
  0001a	e8 00 00 00 00	 call	 ?AfxAssertValidObject@@YGXPBVCObject@@PBDH@Z ; AfxAssertValidObject

; 1745 : 
; 1746 : 	CObject::Serialize(ar);

  0001f	8b 45 08	 mov	 eax, DWORD PTR _ar$[ebp]
  00022	50		 push	 eax
  00023	8b 4d fc	 mov	 ecx, DWORD PTR _this$[ebp]
  00026	e8 00 00 00 00	 call	 ?Serialize@CObject@@UAEXAAVCArchive@@@Z ; CObject::Serialize

; 1747 : 
; 1748 : 	if (ar.IsStoring())

  0002b	8b 4d 08	 mov	 ecx, DWORD PTR _ar$[ebp]
  0002e	e8 00 00 00 00	 call	 ?IsStoring@CArchive@@QBEHXZ ; CArchive::IsStoring
  00033	85 c0		 test	 eax, eax
  00035	0f 84 b3 00 00
	00		 je	 $LN10@Serialize

; 1749 : 	{
; 1750 : 		ar.WriteCount(m_nCount);

  0003b	8b 45 fc	 mov	 eax, DWORD PTR _this$[ebp]
  0003e	8b 48 0c	 mov	 ecx, DWORD PTR [eax+12]
  00041	51		 push	 ecx
  00042	8b 4d 08	 mov	 ecx, DWORD PTR _ar$[ebp]
  00045	e8 00 00 00 00	 call	 ?WriteCount@CArchive@@QAEXK@Z ; CArchive::WriteCount

; 1751 : 		if (m_nCount == 0)

  0004a	8b 45 fc	 mov	 eax, DWORD PTR _this$[ebp]
  0004d	83 78 0c 00	 cmp	 DWORD PTR [eax+12], 0
  00051	75 05		 jne	 SHORT $LN12@Serialize

; 1752 : 			return;  // nothing more to do

  00053	e9 f8 00 00 00	 jmp	 $LN1@Serialize
$LN12@Serialize:

; 1753 : 
; 1754 : 		ASSERT(m_pHashTable != NULL);

  00058	8b 45 fc	 mov	 eax, DWORD PTR _this$[ebp]
  0005b	83 78 04 00	 cmp	 DWORD PTR [eax+4], 0
  0005f	75 14		 jne	 SHORT $LN15@Serialize
  00061	68 da 06 00 00	 push	 1754			; 000006daH
  00066	68 00 00 00 00	 push	 OFFSET ??_C@_0HC@HBCNBCLF@c?3?2program?5files?5?$CIx86?$CJ?2microsof@
  0006b	e8 00 00 00 00	 call	 ?AfxAssertFailedLine@@YGHPBDH@Z ; AfxAssertFailedLine
  00070	85 c0		 test	 eax, eax
  00072	74 01		 je	 SHORT $LN15@Serialize
  00074	cc		 int	 3
$LN15@Serialize:

; 1755 : 		if (m_pHashTable != NULL)

  00075	8b 45 fc	 mov	 eax, DWORD PTR _this$[ebp]
  00078	83 78 04 00	 cmp	 DWORD PTR [eax+4], 0
  0007c	74 6e		 je	 SHORT $LN13@Serialize

; 1756 : 		{
; 1757 : 			for (UINT nHash = 0; nHash < m_nHashTableSize; nHash++)

  0007e	c7 45 f8 00 00
	00 00		 mov	 DWORD PTR _nHash$7[ebp], 0
  00085	eb 09		 jmp	 SHORT $LN4@Serialize
$LN2@Serialize:
  00087	8b 45 f8	 mov	 eax, DWORD PTR _nHash$7[ebp]
  0008a	83 c0 01	 add	 eax, 1
  0008d	89 45 f8	 mov	 DWORD PTR _nHash$7[ebp], eax
$LN4@Serialize:
  00090	8b 45 fc	 mov	 eax, DWORD PTR _this$[ebp]
  00093	8b 4d f8	 mov	 ecx, DWORD PTR _nHash$7[ebp]
  00096	3b 48 08	 cmp	 ecx, DWORD PTR [eax+8]
  00099	73 51		 jae	 SHORT $LN13@Serialize

; 1758 : 			{
; 1759 : 				CAssoc* pAssoc;
; 1760 : 				for (pAssoc = m_pHashTable[nHash]; pAssoc != NULL; pAssoc = pAssoc->pNext)

  0009b	8b 45 fc	 mov	 eax, DWORD PTR _this$[ebp]
  0009e	8b 48 04	 mov	 ecx, DWORD PTR [eax+4]
  000a1	8b 55 f8	 mov	 edx, DWORD PTR _nHash$7[ebp]
  000a4	8b 04 91	 mov	 eax, DWORD PTR [ecx+edx*4]
  000a7	89 45 f4	 mov	 DWORD PTR _pAssoc$6[ebp], eax
  000aa	eb 09		 jmp	 SHORT $LN7@Serialize
$LN5@Serialize:
  000ac	8b 45 f4	 mov	 eax, DWORD PTR _pAssoc$6[ebp]
  000af	8b 48 08	 mov	 ecx, DWORD PTR [eax+8]
  000b2	89 4d f4	 mov	 DWORD PTR _pAssoc$6[ebp], ecx
$LN7@Serialize:
  000b5	83 7d f4 00	 cmp	 DWORD PTR _pAssoc$6[ebp], 0
  000b9	74 2f		 je	 SHORT $LN6@Serialize

; 1761 : 				{
; 1762 : 					KEY* pKey;
; 1763 : 					VALUE* pValue;
; 1764 : 					/*
; 1765 : 					* in some cases the & operator might be overloaded, and we cannot use it to
; 1766 : 					* obtain the address of a given object.  We then use the following trick to
; 1767 : 					* get the address
; 1768 : 					*/
; 1769 : 					pKey = reinterpret_cast< KEY* >( &reinterpret_cast< int& >( const_cast< KEY& > ( static_cast< const KEY& >( pAssoc->key ) ) ) );

  000bb	8b 45 f4	 mov	 eax, DWORD PTR _pAssoc$6[ebp]
  000be	89 45 f0	 mov	 DWORD PTR _pKey$5[ebp], eax

; 1770 : 					pValue = reinterpret_cast< VALUE* >( &reinterpret_cast< int& >( static_cast< VALUE& >( pAssoc->value ) ) );

  000c1	8b 45 f4	 mov	 eax, DWORD PTR _pAssoc$6[ebp]
  000c4	83 c0 04	 add	 eax, 4
  000c7	89 45 ec	 mov	 DWORD PTR _pValue$4[ebp], eax

; 1771 : 					SerializeElements<KEY>(ar, pKey, 1);

  000ca	6a 01		 push	 1
  000cc	8b 45 f0	 mov	 eax, DWORD PTR _pKey$5[ebp]
  000cf	50		 push	 eax
  000d0	8b 4d 08	 mov	 ecx, DWORD PTR _ar$[ebp]
  000d3	51		 push	 ecx
  000d4	e8 00 00 00 00	 call	 ??$SerializeElements@K@@YGXAAVCArchive@@PAKH@Z ; SerializeElements<unsigned long>

; 1772 : 					SerializeElements<VALUE>(ar, pValue, 1);

  000d9	6a 01		 push	 1
  000db	8b 45 ec	 mov	 eax, DWORD PTR _pValue$4[ebp]
  000de	50		 push	 eax
  000df	8b 4d 08	 mov	 ecx, DWORD PTR _ar$[ebp]
  000e2	51		 push	 ecx
  000e3	e8 00 00 00 00	 call	 ??$SerializeElements@PAVCGamePropertyRelatItem@NGamePropertyListManager@@@@YGXAAVCArchive@@PAPAVCGamePropertyRelatItem@NGamePropertyListManager@@H@Z ; SerializeElements<NGamePropertyListManager::CGamePropertyRelatItem *>

; 1773 : 				}

  000e8	eb c2		 jmp	 SHORT $LN5@Serialize
$LN6@Serialize:

; 1774 : 			}

  000ea	eb 9b		 jmp	 SHORT $LN2@Serialize
$LN13@Serialize:

; 1775 : 		}
; 1776 : 	}
; 1777 : 	else

  000ec	eb 62		 jmp	 SHORT $LN1@Serialize
$LN10@Serialize:

; 1778 : 	{
; 1779 : 		DWORD_PTR nNewCount = ar.ReadCount();

  000ee	8b 4d 08	 mov	 ecx, DWORD PTR _ar$[ebp]
  000f1	e8 00 00 00 00	 call	 ?ReadCount@CArchive@@QAEKXZ ; CArchive::ReadCount
  000f6	89 45 e8	 mov	 DWORD PTR _nNewCount$3[ebp], eax
$LN8@Serialize:

; 1780 : 		while (nNewCount--)

  000f9	8b 45 e8	 mov	 eax, DWORD PTR _nNewCount$3[ebp]
  000fc	89 45 9c	 mov	 DWORD PTR tv154[ebp], eax
  000ff	8b 4d e8	 mov	 ecx, DWORD PTR _nNewCount$3[ebp]
  00102	83 e9 01	 sub	 ecx, 1
  00105	89 4d e8	 mov	 DWORD PTR _nNewCount$3[ebp], ecx
  00108	83 7d 9c 00	 cmp	 DWORD PTR tv154[ebp], 0
  0010c	74 42		 je	 SHORT $LN1@Serialize

; 1781 : 		{
; 1782 : 			KEY newKey[1];
; 1783 : 			VALUE newValue[1];
; 1784 : 			SerializeElements<KEY>(ar, newKey, 1);

  0010e	6a 01		 push	 1
  00110	8d 45 e4	 lea	 eax, DWORD PTR _newKey$2[ebp]
  00113	50		 push	 eax
  00114	8b 4d 08	 mov	 ecx, DWORD PTR _ar$[ebp]
  00117	51		 push	 ecx
  00118	e8 00 00 00 00	 call	 ??$SerializeElements@K@@YGXAAVCArchive@@PAKH@Z ; SerializeElements<unsigned long>

; 1785 : 			SerializeElements<VALUE>(ar, newValue, 1);

  0011d	6a 01		 push	 1
  0011f	8d 45 e0	 lea	 eax, DWORD PTR _newValue$1[ebp]
  00122	50		 push	 eax
  00123	8b 4d 08	 mov	 ecx, DWORD PTR _ar$[ebp]
  00126	51		 push	 ecx
  00127	e8 00 00 00 00	 call	 ??$SerializeElements@PAVCGamePropertyRelatItem@NGamePropertyListManager@@@@YGXAAVCArchive@@PAPAVCGamePropertyRelatItem@NGamePropertyListManager@@H@Z ; SerializeElements<NGamePropertyListManager::CGamePropertyRelatItem *>

; 1786 : 			SetAt(newKey[0], newValue[0]);

  0012c	b8 04 00 00 00	 mov	 eax, 4
  00131	6b c8 00	 imul	 ecx, eax, 0
  00134	8d 54 0d e0	 lea	 edx, DWORD PTR _newValue$1[ebp+ecx]
  00138	52		 push	 edx
  00139	b8 04 00 00 00	 mov	 eax, 4
  0013e	6b c8 00	 imul	 ecx, eax, 0
  00141	8b 54 0d e4	 mov	 edx, DWORD PTR _newKey$2[ebp+ecx]
  00145	52		 push	 edx
  00146	8b 4d fc	 mov	 ecx, DWORD PTR _this$[ebp]
  00149	e8 00 00 00 00	 call	 ?SetAt@?$CMap@KKPAVCGamePropertyRelatItem@NGamePropertyListManager@@AAPAV12@@@QAEXKAAPAVCGamePropertyRelatItem@NGamePropertyListManager@@@Z ; CMap<unsigned long,unsigned long,NGamePropertyListManager::CGamePropertyRelatItem *,NGamePropertyListManager::CGamePropertyRelatItem * &>::SetAt

; 1787 : 		}

  0014e	eb a9		 jmp	 SHORT $LN8@Serialize
$LN1@Serialize:

; 1788 : 	}
; 1789 : }

  00150	5f		 pop	 edi
  00151	5e		 pop	 esi
  00152	5b		 pop	 ebx
  00153	8b e5		 mov	 esp, ebp
  00155	5d		 pop	 ebp
  00156	c2 04 00	 ret	 4
?Serialize@?$CMap@KKPAVCGamePropertyRelatItem@NGamePropertyListManager@@AAPAV12@@@UAEXAAVCArchive@@@Z ENDP ; CMap<unsigned long,unsigned long,NGamePropertyListManager::CGamePropertyRelatItem *,NGamePropertyListManager::CGamePropertyRelatItem * &>::Serialize
_TEXT	ENDS
; Function compile flags: /Odtp /ZI
; File c:\program files (x86)\microsoft visual studio\2017\community\vc\tools\msvc\14.16.27023\atlmfc\include\afxtempl.h
;	COMDAT ??1?$CMap@KKPAVCGamePropertyRelatItem@NGamePropertyListManager@@AAPAV12@@@UAE@XZ
_TEXT	SEGMENT
_this$ = -16						; size = 4
__$EHRec$ = -12						; size = 12
??1?$CMap@KKPAVCGamePropertyRelatItem@NGamePropertyListManager@@AAPAV12@@@UAE@XZ PROC ; CMap<unsigned long,unsigned long,NGamePropertyListManager::CGamePropertyRelatItem *,NGamePropertyListManager::CGamePropertyRelatItem * &>::~CMap<unsigned long,unsigned long,NGamePropertyListManager::CGamePropertyRelatItem *,NGamePropertyListManager::CGamePropertyRelatItem * &>, COMDAT
; _this$ = ecx

; 1472 : {

  00000	55		 push	 ebp
  00001	8b ec		 mov	 ebp, esp
  00003	6a ff		 push	 -1
  00005	68 00 00 00 00	 push	 __ehhandler$??1?$CMap@KKPAVCGamePropertyRelatItem@NGamePropertyListManager@@AAPAV12@@@UAE@XZ
  0000a	64 a1 00 00 00
	00		 mov	 eax, DWORD PTR fs:0
  00010	50		 push	 eax
  00011	83 ec 44	 sub	 esp, 68			; 00000044H
  00014	53		 push	 ebx
  00015	56		 push	 esi
  00016	57		 push	 edi
  00017	a1 00 00 00 00	 mov	 eax, DWORD PTR ___security_cookie
  0001c	33 c5		 xor	 eax, ebp
  0001e	50		 push	 eax
  0001f	8d 45 f4	 lea	 eax, DWORD PTR __$EHRec$[ebp]
  00022	64 a3 00 00 00
	00		 mov	 DWORD PTR fs:0, eax
  00028	89 4d f0	 mov	 DWORD PTR _this$[ebp], ecx
  0002b	8b 45 f0	 mov	 eax, DWORD PTR _this$[ebp]
  0002e	c7 00 00 00 00
	00		 mov	 DWORD PTR [eax], OFFSET ??_7?$CMap@KKPAVCGamePropertyRelatItem@NGamePropertyListManager@@AAPAV12@@@6B@

; 1473 : 	RemoveAll();

  00034	8b 4d f0	 mov	 ecx, DWORD PTR _this$[ebp]
  00037	e8 00 00 00 00	 call	 ?RemoveAll@?$CMap@KKPAVCGamePropertyRelatItem@NGamePropertyListManager@@AAPAV12@@@QAEXXZ ; CMap<unsigned long,unsigned long,NGamePropertyListManager::CGamePropertyRelatItem *,NGamePropertyListManager::CGamePropertyRelatItem * &>::RemoveAll

; 1474 : 	ASSERT(m_nCount == 0);

  0003c	8b 45 f0	 mov	 eax, DWORD PTR _this$[ebp]
  0003f	83 78 0c 00	 cmp	 DWORD PTR [eax+12], 0
  00043	74 14		 je	 SHORT $LN1@CMap
  00045	68 c2 05 00 00	 push	 1474			; 000005c2H
  0004a	68 00 00 00 00	 push	 OFFSET ??_C@_0HC@HBCNBCLF@c?3?2program?5files?5?$CIx86?$CJ?2microsof@
  0004f	e8 00 00 00 00	 call	 ?AfxAssertFailedLine@@YGHPBDH@Z ; AfxAssertFailedLine
  00054	85 c0		 test	 eax, eax
  00056	74 01		 je	 SHORT $LN1@CMap
  00058	cc		 int	 3
$LN1@CMap:

; 1475 : }

  00059	8b 4d f0	 mov	 ecx, DWORD PTR _this$[ebp]
  0005c	e8 00 00 00 00	 call	 ??1CObject@@UAE@XZ	; CObject::~CObject
  00061	8b 4d f4	 mov	 ecx, DWORD PTR __$EHRec$[ebp]
  00064	64 89 0d 00 00
	00 00		 mov	 DWORD PTR fs:0, ecx
  0006b	59		 pop	 ecx
  0006c	5f		 pop	 edi
  0006d	5e		 pop	 esi
  0006e	5b		 pop	 ebx
  0006f	8b e5		 mov	 esp, ebp
  00071	5d		 pop	 ebp
  00072	c3		 ret	 0
_TEXT	ENDS
;	COMDAT text$x
text$x	SEGMENT
__ehhandler$??1?$CMap@KKPAVCGamePropertyRelatItem@NGamePropertyListManager@@AAPAV12@@@UAE@XZ:
  00000	8b 54 24 08	 mov	 edx, DWORD PTR [esp+8]
  00004	8d 42 0c	 lea	 eax, DWORD PTR [edx+12]
  00007	8b 4a ac	 mov	 ecx, DWORD PTR [edx-84]
  0000a	33 c8		 xor	 ecx, eax
  0000c	e8 00 00 00 00	 call	 @__security_check_cookie@4
  00011	b8 00 00 00 00	 mov	 eax, OFFSET __ehfuncinfo$??1?$CMap@KKPAVCGamePropertyRelatItem@NGamePropertyListManager@@AAPAV12@@@UAE@XZ
  00016	e9 00 00 00 00	 jmp	 ___CxxFrameHandler3
text$x	ENDS
??1?$CMap@KKPAVCGamePropertyRelatItem@NGamePropertyListManager@@AAPAV12@@@UAE@XZ ENDP ; CMap<unsigned long,unsigned long,NGamePropertyListManager::CGamePropertyRelatItem *,NGamePropertyListManager::CGamePropertyRelatItem * &>::~CMap<unsigned long,unsigned long,NGamePropertyListManager::CGamePropertyRelatItem *,NGamePropertyListManager::CGamePropertyRelatItem * &>
; Function compile flags: /Odtp /ZI
; File c:\program files (x86)\microsoft visual studio\2017\community\vc\tools\msvc\14.16.27023\atlmfc\include\afxtempl.h
;	COMDAT ?GetAssocAt@?$CMap@KKPAVCGamePropertyRelatItem@NGamePropertyListManager@@AAPAV12@@@IBEPAVCAssoc@1@KAAI0@Z
_TEXT	SEGMENT
_pAssoc$ = -8						; size = 4
_this$ = -4						; size = 4
_key$ = 8						; size = 4
_nHashBucket$ = 12					; size = 4
_nHashValue$ = 16					; size = 4
?GetAssocAt@?$CMap@KKPAVCGamePropertyRelatItem@NGamePropertyListManager@@AAPAV12@@@IBEPAVCAssoc@1@KAAI0@Z PROC ; CMap<unsigned long,unsigned long,NGamePropertyListManager::CGamePropertyRelatItem *,NGamePropertyListManager::CGamePropertyRelatItem * &>::GetAssocAt, COMDAT
; _this$ = ecx

; 1532 : {

  00000	55		 push	 ebp
  00001	8b ec		 mov	 ebp, esp
  00003	83 ec 48	 sub	 esp, 72			; 00000048H
  00006	53		 push	 ebx
  00007	56		 push	 esi
  00008	57		 push	 edi
  00009	89 4d fc	 mov	 DWORD PTR _this$[ebp], ecx

; 1533 : 	nHashValue = HashKey<ARG_KEY>(key);

  0000c	8b 45 08	 mov	 eax, DWORD PTR _key$[ebp]
  0000f	50		 push	 eax
  00010	e8 00 00 00 00	 call	 ??$HashKey@K@@YGIK@Z	; HashKey<unsigned long>
  00015	8b 4d 10	 mov	 ecx, DWORD PTR _nHashValue$[ebp]
  00018	89 01		 mov	 DWORD PTR [ecx], eax

; 1534 : 	nHashBucket = nHashValue % m_nHashTableSize;

  0001a	8b 45 10	 mov	 eax, DWORD PTR _nHashValue$[ebp]
  0001d	8b 4d fc	 mov	 ecx, DWORD PTR _this$[ebp]
  00020	8b 00		 mov	 eax, DWORD PTR [eax]
  00022	33 d2		 xor	 edx, edx
  00024	f7 71 08	 div	 DWORD PTR [ecx+8]
  00027	8b 45 0c	 mov	 eax, DWORD PTR _nHashBucket$[ebp]
  0002a	89 10		 mov	 DWORD PTR [eax], edx

; 1535 : 
; 1536 : 	if (m_pHashTable == NULL)

  0002c	8b 45 fc	 mov	 eax, DWORD PTR _this$[ebp]
  0002f	83 78 04 00	 cmp	 DWORD PTR [eax+4], 0
  00033	75 04		 jne	 SHORT $LN5@GetAssocAt

; 1537 : 		return NULL;

  00035	33 c0		 xor	 eax, eax
  00037	eb 49		 jmp	 SHORT $LN1@GetAssocAt
$LN5@GetAssocAt:

; 1538 : 
; 1539 : 	// see if it exists
; 1540 : 	CAssoc* pAssoc;
; 1541 : 	for (pAssoc = m_pHashTable[nHashBucket]; pAssoc != NULL; pAssoc = pAssoc->pNext)

  00039	8b 45 0c	 mov	 eax, DWORD PTR _nHashBucket$[ebp]
  0003c	8b 08		 mov	 ecx, DWORD PTR [eax]
  0003e	8b 55 fc	 mov	 edx, DWORD PTR _this$[ebp]
  00041	8b 42 04	 mov	 eax, DWORD PTR [edx+4]
  00044	8b 0c 88	 mov	 ecx, DWORD PTR [eax+ecx*4]
  00047	89 4d f8	 mov	 DWORD PTR _pAssoc$[ebp], ecx
  0004a	eb 09		 jmp	 SHORT $LN4@GetAssocAt
$LN2@GetAssocAt:
  0004c	8b 45 f8	 mov	 eax, DWORD PTR _pAssoc$[ebp]
  0004f	8b 48 08	 mov	 ecx, DWORD PTR [eax+8]
  00052	89 4d f8	 mov	 DWORD PTR _pAssoc$[ebp], ecx
$LN4@GetAssocAt:
  00055	83 7d f8 00	 cmp	 DWORD PTR _pAssoc$[ebp], 0
  00059	74 25		 je	 SHORT $LN3@GetAssocAt

; 1542 : 	{
; 1543 : 		if (pAssoc->nHashValue == nHashValue && CompareElements(&pAssoc->key, &key))

  0005b	8b 45 f8	 mov	 eax, DWORD PTR _pAssoc$[ebp]
  0005e	8b 4d 10	 mov	 ecx, DWORD PTR _nHashValue$[ebp]
  00061	8b 50 0c	 mov	 edx, DWORD PTR [eax+12]
  00064	3b 11		 cmp	 edx, DWORD PTR [ecx]
  00066	75 16		 jne	 SHORT $LN6@GetAssocAt
  00068	8d 45 08	 lea	 eax, DWORD PTR _key$[ebp]
  0006b	50		 push	 eax
  0006c	8b 4d f8	 mov	 ecx, DWORD PTR _pAssoc$[ebp]
  0006f	51		 push	 ecx
  00070	e8 00 00 00 00	 call	 ??$CompareElements@KK@@YGHPBK0@Z ; CompareElements<unsigned long,unsigned long>
  00075	85 c0		 test	 eax, eax
  00077	74 05		 je	 SHORT $LN6@GetAssocAt

; 1544 : 			return pAssoc;

  00079	8b 45 f8	 mov	 eax, DWORD PTR _pAssoc$[ebp]
  0007c	eb 04		 jmp	 SHORT $LN1@GetAssocAt
$LN6@GetAssocAt:

; 1545 : 	}

  0007e	eb cc		 jmp	 SHORT $LN2@GetAssocAt
$LN3@GetAssocAt:

; 1546 : 	return NULL;

  00080	33 c0		 xor	 eax, eax
$LN1@GetAssocAt:

; 1547 : }

  00082	5f		 pop	 edi
  00083	5e		 pop	 esi
  00084	5b		 pop	 ebx
  00085	8b e5		 mov	 esp, ebp
  00087	5d		 pop	 ebp
  00088	c2 0c 00	 ret	 12			; 0000000cH
?GetAssocAt@?$CMap@KKPAVCGamePropertyRelatItem@NGamePropertyListManager@@AAPAV12@@@IBEPAVCAssoc@1@KAAI0@Z ENDP ; CMap<unsigned long,unsigned long,NGamePropertyListManager::CGamePropertyRelatItem *,NGamePropertyListManager::CGamePropertyRelatItem * &>::GetAssocAt
_TEXT	ENDS
; Function compile flags: /Odtp /ZI
; File c:\program files (x86)\microsoft visual studio\2017\community\vc\tools\msvc\14.16.27023\atlmfc\include\afxtempl.h
;	COMDAT ?FreeAssoc@?$CMap@KKPAVCGamePropertyRelatItem@NGamePropertyListManager@@AAPAV12@@@IAEXPAVCAssoc@1@@Z
_TEXT	SEGMENT
_this$ = -4						; size = 4
_pAssoc$ = 8						; size = 4
?FreeAssoc@?$CMap@KKPAVCGamePropertyRelatItem@NGamePropertyListManager@@AAPAV12@@@IAEXPAVCAssoc@1@@Z PROC ; CMap<unsigned long,unsigned long,NGamePropertyListManager::CGamePropertyRelatItem *,NGamePropertyListManager::CGamePropertyRelatItem * &>::FreeAssoc, COMDAT
; _this$ = ecx

; 1516 : {

  00000	55		 push	 ebp
  00001	8b ec		 mov	 ebp, esp
  00003	83 ec 44	 sub	 esp, 68			; 00000044H
  00006	53		 push	 ebx
  00007	56		 push	 esi
  00008	57		 push	 edi
  00009	89 4d fc	 mov	 DWORD PTR _this$[ebp], ecx

; 1517 : 	pAssoc->CAssoc::~CAssoc();
; 1518 : 	pAssoc->pNext = m_pFreeList;

  0000c	8b 45 08	 mov	 eax, DWORD PTR _pAssoc$[ebp]
  0000f	8b 4d fc	 mov	 ecx, DWORD PTR _this$[ebp]
  00012	8b 51 10	 mov	 edx, DWORD PTR [ecx+16]
  00015	89 50 08	 mov	 DWORD PTR [eax+8], edx

; 1519 : 	m_pFreeList = pAssoc;

  00018	8b 45 fc	 mov	 eax, DWORD PTR _this$[ebp]
  0001b	8b 4d 08	 mov	 ecx, DWORD PTR _pAssoc$[ebp]
  0001e	89 48 10	 mov	 DWORD PTR [eax+16], ecx

; 1520 : 	m_nCount--;

  00021	8b 45 fc	 mov	 eax, DWORD PTR _this$[ebp]
  00024	8b 48 0c	 mov	 ecx, DWORD PTR [eax+12]
  00027	83 e9 01	 sub	 ecx, 1
  0002a	8b 55 fc	 mov	 edx, DWORD PTR _this$[ebp]
  0002d	89 4a 0c	 mov	 DWORD PTR [edx+12], ecx

; 1521 : 	ASSERT(m_nCount >= 0);  // make sure we don't underflow

  00030	8b 45 fc	 mov	 eax, DWORD PTR _this$[ebp]
  00033	83 78 0c 00	 cmp	 DWORD PTR [eax+12], 0
  00037	7d 14		 jge	 SHORT $LN4@FreeAssoc
  00039	68 f1 05 00 00	 push	 1521			; 000005f1H
  0003e	68 00 00 00 00	 push	 OFFSET ??_C@_0HC@HBCNBCLF@c?3?2program?5files?5?$CIx86?$CJ?2microsof@
  00043	e8 00 00 00 00	 call	 ?AfxAssertFailedLine@@YGHPBDH@Z ; AfxAssertFailedLine
  00048	85 c0		 test	 eax, eax
  0004a	74 01		 je	 SHORT $LN4@FreeAssoc
  0004c	cc		 int	 3
$LN4@FreeAssoc:

; 1522 : 
; 1523 : 	// if no more elements, cleanup completely
; 1524 : 	if (m_nCount == 0)

  0004d	8b 45 fc	 mov	 eax, DWORD PTR _this$[ebp]
  00050	83 78 0c 00	 cmp	 DWORD PTR [eax+12], 0
  00054	75 08		 jne	 SHORT $LN1@FreeAssoc

; 1525 : 		RemoveAll();

  00056	8b 4d fc	 mov	 ecx, DWORD PTR _this$[ebp]
  00059	e8 00 00 00 00	 call	 ?RemoveAll@?$CMap@KKPAVCGamePropertyRelatItem@NGamePropertyListManager@@AAPAV12@@@QAEXXZ ; CMap<unsigned long,unsigned long,NGamePropertyListManager::CGamePropertyRelatItem *,NGamePropertyListManager::CGamePropertyRelatItem * &>::RemoveAll
$LN1@FreeAssoc:

; 1526 : }

  0005e	5f		 pop	 edi
  0005f	5e		 pop	 esi
  00060	5b		 pop	 ebx
  00061	8b e5		 mov	 esp, ebp
  00063	5d		 pop	 ebp
  00064	c2 04 00	 ret	 4
?FreeAssoc@?$CMap@KKPAVCGamePropertyRelatItem@NGamePropertyListManager@@AAPAV12@@@IAEXPAVCAssoc@1@@Z ENDP ; CMap<unsigned long,unsigned long,NGamePropertyListManager::CGamePropertyRelatItem *,NGamePropertyListManager::CGamePropertyRelatItem * &>::FreeAssoc
_TEXT	ENDS
; Function compile flags: /Odtp /ZI
; File c:\program files (x86)\microsoft visual studio\2017\community\vc\tools\msvc\14.16.27023\atlmfc\include\afxtempl.h
;	COMDAT ?NewAssoc@?$CMap@KKPAVCGamePropertyRelatItem@NGamePropertyListManager@@AAPAV12@@@IAEPAVCAssoc@1@K@Z
_TEXT	SEGMENT
tv88 = -100						; size = 4
$T1 = -96						; size = 4
_pTemp$ = -28						; size = 4
_pAssoc$ = -24						; size = 4
___afx_condVal$2 = -20					; size = 4
_i$3 = -16						; size = 4
_pAssoc$4 = -12						; size = 4
_newBlock$5 = -8					; size = 4
_this$ = -4						; size = 4
_key$ = 8						; size = 4
?NewAssoc@?$CMap@KKPAVCGamePropertyRelatItem@NGamePropertyListManager@@AAPAV12@@@IAEPAVCAssoc@1@K@Z PROC ; CMap<unsigned long,unsigned long,NGamePropertyListManager::CGamePropertyRelatItem *,NGamePropertyListManager::CGamePropertyRelatItem * &>::NewAssoc, COMDAT
; _this$ = ecx

; 1480 : {

  00000	55		 push	 ebp
  00001	8b ec		 mov	 ebp, esp
  00003	83 ec 64	 sub	 esp, 100		; 00000064H
  00006	53		 push	 ebx
  00007	56		 push	 esi
  00008	57		 push	 edi
  00009	89 4d fc	 mov	 DWORD PTR _this$[ebp], ecx

; 1481 : 	if (m_pFreeList == NULL)

  0000c	8b 45 fc	 mov	 eax, DWORD PTR _this$[ebp]
  0000f	83 78 10 00	 cmp	 DWORD PTR [eax+16], 0
  00013	75 72		 jne	 SHORT $LN7@NewAssoc

; 1482 : 	{
; 1483 : 		// add another block
; 1484 : 		CPlex* newBlock = CPlex::Create(m_pBlocks, m_nBlockSize, sizeof(CMap::CAssoc));

  00015	6a 10		 push	 16			; 00000010H
  00017	8b 45 fc	 mov	 eax, DWORD PTR _this$[ebp]
  0001a	8b 48 18	 mov	 ecx, DWORD PTR [eax+24]
  0001d	51		 push	 ecx
  0001e	8b 55 fc	 mov	 edx, DWORD PTR _this$[ebp]
  00021	83 c2 14	 add	 edx, 20			; 00000014H
  00024	52		 push	 edx
  00025	e8 00 00 00 00	 call	 ?Create@CPlex@@SGPAU1@AAPAU1@II@Z ; CPlex::Create
  0002a	89 45 f8	 mov	 DWORD PTR _newBlock$5[ebp], eax

; 1485 : 		// chain them into free list
; 1486 : 		CMap::CAssoc* pAssoc = (CMap::CAssoc*) newBlock->data();

  0002d	8b 4d f8	 mov	 ecx, DWORD PTR _newBlock$5[ebp]
  00030	e8 00 00 00 00	 call	 ?data@CPlex@@QAEPAXXZ	; CPlex::data
  00035	89 45 f4	 mov	 DWORD PTR _pAssoc$4[ebp], eax

; 1487 : 		// free in reverse order to make it easier to debug
; 1488 : 		pAssoc += m_nBlockSize - 1;

  00038	8b 45 fc	 mov	 eax, DWORD PTR _this$[ebp]
  0003b	8b 48 18	 mov	 ecx, DWORD PTR [eax+24]
  0003e	83 e9 01	 sub	 ecx, 1
  00041	c1 e1 04	 shl	 ecx, 4
  00044	03 4d f4	 add	 ecx, DWORD PTR _pAssoc$4[ebp]
  00047	89 4d f4	 mov	 DWORD PTR _pAssoc$4[ebp], ecx

; 1489 : 		for (INT_PTR i = m_nBlockSize-1; i >= 0; i--, pAssoc--)

  0004a	8b 45 fc	 mov	 eax, DWORD PTR _this$[ebp]
  0004d	8b 48 18	 mov	 ecx, DWORD PTR [eax+24]
  00050	83 e9 01	 sub	 ecx, 1
  00053	89 4d f0	 mov	 DWORD PTR _i$3[ebp], ecx
  00056	eb 12		 jmp	 SHORT $LN4@NewAssoc
$LN2@NewAssoc:
  00058	8b 45 f0	 mov	 eax, DWORD PTR _i$3[ebp]
  0005b	83 e8 01	 sub	 eax, 1
  0005e	89 45 f0	 mov	 DWORD PTR _i$3[ebp], eax
  00061	8b 4d f4	 mov	 ecx, DWORD PTR _pAssoc$4[ebp]
  00064	83 e9 10	 sub	 ecx, 16			; 00000010H
  00067	89 4d f4	 mov	 DWORD PTR _pAssoc$4[ebp], ecx
$LN4@NewAssoc:
  0006a	83 7d f0 00	 cmp	 DWORD PTR _i$3[ebp], 0
  0006e	7c 17		 jl	 SHORT $LN7@NewAssoc

; 1490 : 		{
; 1491 : 			pAssoc->pNext = m_pFreeList;

  00070	8b 45 f4	 mov	 eax, DWORD PTR _pAssoc$4[ebp]
  00073	8b 4d fc	 mov	 ecx, DWORD PTR _this$[ebp]
  00076	8b 51 10	 mov	 edx, DWORD PTR [ecx+16]
  00079	89 50 08	 mov	 DWORD PTR [eax+8], edx

; 1492 : 			m_pFreeList = pAssoc;

  0007c	8b 45 fc	 mov	 eax, DWORD PTR _this$[ebp]
  0007f	8b 4d f4	 mov	 ecx, DWORD PTR _pAssoc$4[ebp]
  00082	89 48 10	 mov	 DWORD PTR [eax+16], ecx

; 1493 : 		}

  00085	eb d1		 jmp	 SHORT $LN2@NewAssoc
$LN7@NewAssoc:

; 1494 : 	}
; 1495 : 	ENSURE(m_pFreeList != NULL);  // we must have something

  00087	8b 45 fc	 mov	 eax, DWORD PTR _this$[ebp]
  0008a	83 78 10 00	 cmp	 DWORD PTR [eax+16], 0
  0008e	74 09		 je	 SHORT $LN11@NewAssoc
  00090	c7 45 9c 01 00
	00 00		 mov	 DWORD PTR tv88[ebp], 1
  00097	eb 07		 jmp	 SHORT $LN12@NewAssoc
$LN11@NewAssoc:
  00099	c7 45 9c 00 00
	00 00		 mov	 DWORD PTR tv88[ebp], 0
$LN12@NewAssoc:
  000a0	8b 4d 9c	 mov	 ecx, DWORD PTR tv88[ebp]
  000a3	89 4d ec	 mov	 DWORD PTR ___afx_condVal$2[ebp], ecx
  000a6	83 7d ec 00	 cmp	 DWORD PTR ___afx_condVal$2[ebp], 0
  000aa	75 14		 jne	 SHORT $LN13@NewAssoc
  000ac	68 d7 05 00 00	 push	 1495			; 000005d7H
  000b1	68 00 00 00 00	 push	 OFFSET ??_C@_0HC@HBCNBCLF@c?3?2program?5files?5?$CIx86?$CJ?2microsof@
  000b6	e8 00 00 00 00	 call	 ?AfxAssertFailedLine@@YGHPBDH@Z ; AfxAssertFailedLine
  000bb	85 c0		 test	 eax, eax
  000bd	74 01		 je	 SHORT $LN13@NewAssoc
  000bf	cc		 int	 3
$LN13@NewAssoc:
  000c0	83 7d ec 00	 cmp	 DWORD PTR ___afx_condVal$2[ebp], 0
  000c4	75 05		 jne	 SHORT $LN5@NewAssoc
  000c6	e8 00 00 00 00	 call	 ?AfxThrowInvalidArgException@@YGXXZ ; AfxThrowInvalidArgException
$LN5@NewAssoc:
  000cb	33 c0		 xor	 eax, eax
  000cd	75 b8		 jne	 SHORT $LN7@NewAssoc

; 1496 : 
; 1497 : 	CMap::CAssoc* pAssoc = m_pFreeList;

  000cf	8b 45 fc	 mov	 eax, DWORD PTR _this$[ebp]
  000d2	8b 48 10	 mov	 ecx, DWORD PTR [eax+16]
  000d5	89 4d e8	 mov	 DWORD PTR _pAssoc$[ebp], ecx

; 1498 : 
; 1499 : 	// zero the memory
; 1500 : 	CMap::CAssoc* pTemp = pAssoc->pNext;

  000d8	8b 45 e8	 mov	 eax, DWORD PTR _pAssoc$[ebp]
  000db	8b 48 08	 mov	 ecx, DWORD PTR [eax+8]
  000de	89 4d e4	 mov	 DWORD PTR _pTemp$[ebp], ecx

; 1501 : 	memset( pAssoc, 0, sizeof(CMap::CAssoc) );

  000e1	6a 10		 push	 16			; 00000010H
  000e3	6a 00		 push	 0
  000e5	8b 45 e8	 mov	 eax, DWORD PTR _pAssoc$[ebp]
  000e8	50		 push	 eax
  000e9	e8 00 00 00 00	 call	 _memset
  000ee	83 c4 0c	 add	 esp, 12			; 0000000cH

; 1502 : 	pAssoc->pNext = pTemp;

  000f1	8b 45 e8	 mov	 eax, DWORD PTR _pAssoc$[ebp]
  000f4	8b 4d e4	 mov	 ecx, DWORD PTR _pTemp$[ebp]
  000f7	89 48 08	 mov	 DWORD PTR [eax+8], ecx

; 1503 : 
; 1504 : 	m_pFreeList = m_pFreeList->pNext;

  000fa	8b 45 fc	 mov	 eax, DWORD PTR _this$[ebp]
  000fd	8b 48 10	 mov	 ecx, DWORD PTR [eax+16]
  00100	8b 55 fc	 mov	 edx, DWORD PTR _this$[ebp]
  00103	8b 41 08	 mov	 eax, DWORD PTR [ecx+8]
  00106	89 42 10	 mov	 DWORD PTR [edx+16], eax

; 1505 : 	m_nCount++;

  00109	8b 45 fc	 mov	 eax, DWORD PTR _this$[ebp]
  0010c	8b 48 0c	 mov	 ecx, DWORD PTR [eax+12]
  0010f	83 c1 01	 add	 ecx, 1
  00112	8b 55 fc	 mov	 edx, DWORD PTR _this$[ebp]
  00115	89 4a 0c	 mov	 DWORD PTR [edx+12], ecx

; 1506 : 	ASSERT(m_nCount > 0);  // make sure we don't overflow

  00118	8b 45 fc	 mov	 eax, DWORD PTR _this$[ebp]
  0011b	83 78 0c 00	 cmp	 DWORD PTR [eax+12], 0
  0011f	7f 14		 jg	 SHORT $LN14@NewAssoc
  00121	68 e2 05 00 00	 push	 1506			; 000005e2H
  00126	68 00 00 00 00	 push	 OFFSET ??_C@_0HC@HBCNBCLF@c?3?2program?5files?5?$CIx86?$CJ?2microsof@
  0012b	e8 00 00 00 00	 call	 ?AfxAssertFailedLine@@YGHPBDH@Z ; AfxAssertFailedLine
  00130	85 c0		 test	 eax, eax
  00132	74 01		 je	 SHORT $LN14@NewAssoc
  00134	cc		 int	 3
$LN14@NewAssoc:

; 1507 : #pragma push_macro("new")
; 1508 : #undef new
; 1509 : 	::new(pAssoc) CMap::CAssoc(key);

  00135	8b 45 e8	 mov	 eax, DWORD PTR _pAssoc$[ebp]
  00138	50		 push	 eax
  00139	6a 10		 push	 16			; 00000010H
  0013b	e8 00 00 00 00	 call	 ??2@YAPAXIPAX@Z		; operator new
  00140	83 c4 08	 add	 esp, 8
  00143	89 45 a0	 mov	 DWORD PTR $T1[ebp], eax
  00146	8b 4d 08	 mov	 ecx, DWORD PTR _key$[ebp]
  00149	51		 push	 ecx
  0014a	8b 4d a0	 mov	 ecx, DWORD PTR $T1[ebp]
  0014d	e8 00 00 00 00	 call	 ??0CAssoc@?$CMap@KKPAVCGamePropertyRelatItem@NGamePropertyListManager@@AAPAV12@@@QAE@K@Z ; CMap<unsigned long,unsigned long,NGamePropertyListManager::CGamePropertyRelatItem *,NGamePropertyListManager::CGamePropertyRelatItem * &>::CAssoc::CAssoc

; 1510 : #pragma pop_macro("new")
; 1511 : 	return pAssoc;

  00152	8b 45 e8	 mov	 eax, DWORD PTR _pAssoc$[ebp]
$LN10@NewAssoc:

; 1512 : }

  00155	5f		 pop	 edi
  00156	5e		 pop	 esi
  00157	5b		 pop	 ebx
  00158	8b e5		 mov	 esp, ebp
  0015a	5d		 pop	 ebp
  0015b	c2 04 00	 ret	 4
?NewAssoc@?$CMap@KKPAVCGamePropertyRelatItem@NGamePropertyListManager@@AAPAV12@@@IAEPAVCAssoc@1@K@Z ENDP ; CMap<unsigned long,unsigned long,NGamePropertyListManager::CGamePropertyRelatItem *,NGamePropertyListManager::CGamePropertyRelatItem * &>::NewAssoc
_TEXT	ENDS
; Function compile flags: /Odtp /ZI
; File c:\program files (x86)\microsoft visual studio\2017\community\vc\tools\msvc\14.16.27023\atlmfc\include\afxtempl.h
;	COMDAT ?InitHashTable@?$CMap@KKPAVCGamePropertyRelatItem@NGamePropertyListManager@@AAPAV12@@@QAEXIH@Z
_TEXT	SEGMENT
tv137 = -84						; size = 4
$T1 = -80						; size = 4
$T2 = -76						; size = 4
___afx_condVal$3 = -8					; size = 4
_this$ = -4						; size = 4
_nHashSize$ = 8						; size = 4
_bAllocNow$ = 12					; size = 4
?InitHashTable@?$CMap@KKPAVCGamePropertyRelatItem@NGamePropertyListManager@@AAPAV12@@@QAEXIH@Z PROC ; CMap<unsigned long,unsigned long,NGamePropertyListManager::CGamePropertyRelatItem *,NGamePropertyListManager::CGamePropertyRelatItem * &>::InitHashTable, COMDAT
; _this$ = ecx

; 1420 : {

  00000	55		 push	 ebp
  00001	8b ec		 mov	 ebp, esp
  00003	83 ec 54	 sub	 esp, 84			; 00000054H
  00006	53		 push	 ebx
  00007	56		 push	 esi
  00008	57		 push	 edi
  00009	89 4d fc	 mov	 DWORD PTR _this$[ebp], ecx

; 1421 : 	ASSERT_VALID(this);

  0000c	68 8d 05 00 00	 push	 1421			; 0000058dH
  00011	68 00 00 00 00	 push	 OFFSET ??_C@_0HC@HBCNBCLF@c?3?2program?5files?5?$CIx86?$CJ?2microsof@
  00016	8b 45 fc	 mov	 eax, DWORD PTR _this$[ebp]
  00019	50		 push	 eax
  0001a	e8 00 00 00 00	 call	 ?AfxAssertValidObject@@YGXPBVCObject@@PBDH@Z ; AfxAssertValidObject

; 1422 : 	ASSERT(m_nCount == 0);

  0001f	8b 45 fc	 mov	 eax, DWORD PTR _this$[ebp]
  00022	83 78 0c 00	 cmp	 DWORD PTR [eax+12], 0
  00026	74 14		 je	 SHORT $LN9@InitHashTa
  00028	68 8e 05 00 00	 push	 1422			; 0000058eH
  0002d	68 00 00 00 00	 push	 OFFSET ??_C@_0HC@HBCNBCLF@c?3?2program?5files?5?$CIx86?$CJ?2microsof@
  00032	e8 00 00 00 00	 call	 ?AfxAssertFailedLine@@YGHPBDH@Z ; AfxAssertFailedLine
  00037	85 c0		 test	 eax, eax
  00039	74 01		 je	 SHORT $LN9@InitHashTa
  0003b	cc		 int	 3
$LN9@InitHashTa:

; 1423 : 	ASSERT(nHashSize > 0);

  0003c	83 7d 08 00	 cmp	 DWORD PTR _nHashSize$[ebp], 0
  00040	77 14		 ja	 SHORT $LN10@InitHashTa
  00042	68 8f 05 00 00	 push	 1423			; 0000058fH
  00047	68 00 00 00 00	 push	 OFFSET ??_C@_0HC@HBCNBCLF@c?3?2program?5files?5?$CIx86?$CJ?2microsof@
  0004c	e8 00 00 00 00	 call	 ?AfxAssertFailedLine@@YGHPBDH@Z ; AfxAssertFailedLine
  00051	85 c0		 test	 eax, eax
  00053	74 01		 je	 SHORT $LN10@InitHashTa
  00055	cc		 int	 3
$LN10@InitHashTa:

; 1424 : 
; 1425 : 	if (m_pHashTable != NULL)

  00056	8b 45 fc	 mov	 eax, DWORD PTR _this$[ebp]
  00059	83 78 04 00	 cmp	 DWORD PTR [eax+4], 0
  0005d	74 1f		 je	 SHORT $LN5@InitHashTa

; 1426 : 	{
; 1427 : 		// free hash table
; 1428 : 		delete[] m_pHashTable;

  0005f	8b 45 fc	 mov	 eax, DWORD PTR _this$[ebp]
  00062	8b 48 04	 mov	 ecx, DWORD PTR [eax+4]
  00065	89 4d b4	 mov	 DWORD PTR $T2[ebp], ecx
  00068	8b 55 b4	 mov	 edx, DWORD PTR $T2[ebp]
  0006b	52		 push	 edx
  0006c	e8 00 00 00 00	 call	 ??_V@YAXPAX@Z		; operator delete[]
  00071	83 c4 04	 add	 esp, 4

; 1429 : 		m_pHashTable = NULL;

  00074	8b 45 fc	 mov	 eax, DWORD PTR _this$[ebp]
  00077	c7 40 04 00 00
	00 00		 mov	 DWORD PTR [eax+4], 0
$LN5@InitHashTa:

; 1430 : 	}
; 1431 : 
; 1432 : 	if (bAllocNow)

  0007e	83 7d 0c 00	 cmp	 DWORD PTR _bAllocNow$[ebp], 0
  00082	0f 84 92 00 00
	00		 je	 $LN6@InitHashTa

; 1433 : 	{
; 1434 : 		m_pHashTable = new CAssoc* [nHashSize];

  00088	68 9a 05 00 00	 push	 1434			; 0000059aH
  0008d	68 00 00 00 00	 push	 OFFSET ??_C@_0HC@HBCNBCLF@c?3?2program?5files?5?$CIx86?$CJ?2microsof@
  00092	33 c9		 xor	 ecx, ecx
  00094	8b 45 08	 mov	 eax, DWORD PTR _nHashSize$[ebp]
  00097	ba 04 00 00 00	 mov	 edx, 4
  0009c	f7 e2		 mul	 edx
  0009e	0f 90 c1	 seto	 cl
  000a1	f7 d9		 neg	 ecx
  000a3	0b c8		 or	 ecx, eax
  000a5	51		 push	 ecx
  000a6	e8 00 00 00 00	 call	 ??_U@YAPAXIPBDH@Z	; operator new[]
  000ab	83 c4 0c	 add	 esp, 12			; 0000000cH
  000ae	89 45 b0	 mov	 DWORD PTR $T1[ebp], eax
  000b1	8b 45 fc	 mov	 eax, DWORD PTR _this$[ebp]
  000b4	8b 4d b0	 mov	 ecx, DWORD PTR $T1[ebp]
  000b7	89 48 04	 mov	 DWORD PTR [eax+4], ecx
$LN4@InitHashTa:

; 1435 : 		ENSURE(m_pHashTable != NULL);

  000ba	8b 45 fc	 mov	 eax, DWORD PTR _this$[ebp]
  000bd	83 78 04 00	 cmp	 DWORD PTR [eax+4], 0
  000c1	74 09		 je	 SHORT $LN11@InitHashTa
  000c3	c7 45 ac 01 00
	00 00		 mov	 DWORD PTR tv137[ebp], 1
  000ca	eb 07		 jmp	 SHORT $LN12@InitHashTa
$LN11@InitHashTa:
  000cc	c7 45 ac 00 00
	00 00		 mov	 DWORD PTR tv137[ebp], 0
$LN12@InitHashTa:
  000d3	8b 4d ac	 mov	 ecx, DWORD PTR tv137[ebp]
  000d6	89 4d f8	 mov	 DWORD PTR ___afx_condVal$3[ebp], ecx
  000d9	83 7d f8 00	 cmp	 DWORD PTR ___afx_condVal$3[ebp], 0
  000dd	75 14		 jne	 SHORT $LN13@InitHashTa
  000df	68 9b 05 00 00	 push	 1435			; 0000059bH
  000e4	68 00 00 00 00	 push	 OFFSET ??_C@_0HC@HBCNBCLF@c?3?2program?5files?5?$CIx86?$CJ?2microsof@
  000e9	e8 00 00 00 00	 call	 ?AfxAssertFailedLine@@YGHPBDH@Z ; AfxAssertFailedLine
  000ee	85 c0		 test	 eax, eax
  000f0	74 01		 je	 SHORT $LN13@InitHashTa
  000f2	cc		 int	 3
$LN13@InitHashTa:
  000f3	83 7d f8 00	 cmp	 DWORD PTR ___afx_condVal$3[ebp], 0
  000f7	75 05		 jne	 SHORT $LN2@InitHashTa
  000f9	e8 00 00 00 00	 call	 ?AfxThrowInvalidArgException@@YGXXZ ; AfxThrowInvalidArgException
$LN2@InitHashTa:
  000fe	33 c0		 xor	 eax, eax
  00100	75 b8		 jne	 SHORT $LN4@InitHashTa

; 1436 : 		memset(m_pHashTable, 0, sizeof(CAssoc*) * nHashSize);

  00102	8b 45 08	 mov	 eax, DWORD PTR _nHashSize$[ebp]
  00105	c1 e0 02	 shl	 eax, 2
  00108	50		 push	 eax
  00109	6a 00		 push	 0
  0010b	8b 4d fc	 mov	 ecx, DWORD PTR _this$[ebp]
  0010e	8b 51 04	 mov	 edx, DWORD PTR [ecx+4]
  00111	52		 push	 edx
  00112	e8 00 00 00 00	 call	 _memset
  00117	83 c4 0c	 add	 esp, 12			; 0000000cH
$LN6@InitHashTa:

; 1437 : 	}
; 1438 : 	m_nHashTableSize = nHashSize;

  0011a	8b 45 fc	 mov	 eax, DWORD PTR _this$[ebp]
  0011d	8b 4d 08	 mov	 ecx, DWORD PTR _nHashSize$[ebp]
  00120	89 48 08	 mov	 DWORD PTR [eax+8], ecx
$LN8@InitHashTa:

; 1439 : }

  00123	5f		 pop	 edi
  00124	5e		 pop	 esi
  00125	5b		 pop	 ebx
  00126	8b e5		 mov	 esp, ebp
  00128	5d		 pop	 ebp
  00129	c2 08 00	 ret	 8
?InitHashTable@?$CMap@KKPAVCGamePropertyRelatItem@NGamePropertyListManager@@AAPAV12@@@QAEXIH@Z ENDP ; CMap<unsigned long,unsigned long,NGamePropertyListManager::CGamePropertyRelatItem *,NGamePropertyListManager::CGamePropertyRelatItem * &>::InitHashTable
_TEXT	ENDS
; Function compile flags: /Odtp /ZI
; File c:\program files (x86)\microsoft visual studio\2017\community\vc\tools\msvc\14.16.27023\atlmfc\include\afxtempl.h
;	COMDAT ?GetNextAssoc@?$CMap@KKPAVCGamePropertyRelatItem@NGamePropertyListManager@@AAPAV12@@@QBEXAAPAU__POSITION@@AAKAAPAVCGamePropertyRelatItem@NGamePropertyListManager@@@Z
_TEXT	SEGMENT
tv133 = -100						; size = 4
tv83 = -100						; size = 4
tv73 = -100						; size = 4
_nBucket$1 = -32					; size = 4
_pAssocNext$ = -28					; size = 4
___afx_condVal$2 = -24					; size = 4
_nBucket$3 = -20					; size = 4
___afx_condVal$4 = -16					; size = 4
_pAssocRet$ = -12					; size = 4
___afx_condVal$5 = -8					; size = 4
_this$ = -4						; size = 4
_rNextPosition$ = 8					; size = 4
_rKey$ = 12						; size = 4
_rValue$ = 16						; size = 4
?GetNextAssoc@?$CMap@KKPAVCGamePropertyRelatItem@NGamePropertyListManager@@AAPAV12@@@QBEXAAPAU__POSITION@@AAKAAPAVCGamePropertyRelatItem@NGamePropertyListManager@@@Z PROC ; CMap<unsigned long,unsigned long,NGamePropertyListManager::CGamePropertyRelatItem *,NGamePropertyListManager::CGamePropertyRelatItem * &>::GetNextAssoc, COMDAT
; _this$ = ecx

; 1640 : {

  00000	55		 push	 ebp
  00001	8b ec		 mov	 ebp, esp
  00003	83 ec 64	 sub	 esp, 100		; 00000064H
  00006	53		 push	 ebx
  00007	56		 push	 esi
  00008	57		 push	 edi
  00009	89 4d fc	 mov	 DWORD PTR _this$[ebp], ecx

; 1641 : 	ASSERT_VALID(this);

  0000c	68 69 06 00 00	 push	 1641			; 00000669H
  00011	68 00 00 00 00	 push	 OFFSET ??_C@_0HC@HBCNBCLF@c?3?2program?5files?5?$CIx86?$CJ?2microsof@
  00016	8b 45 fc	 mov	 eax, DWORD PTR _this$[ebp]
  00019	50		 push	 eax
  0001a	e8 00 00 00 00	 call	 ?AfxAssertValidObject@@YGXPBVCObject@@PBDH@Z ; AfxAssertValidObject
$LN4@GetNextAss:

; 1642 : 	ENSURE(m_pHashTable != NULL);  // never call on empty map

  0001f	8b 45 fc	 mov	 eax, DWORD PTR _this$[ebp]
  00022	83 78 04 00	 cmp	 DWORD PTR [eax+4], 0
  00026	74 09		 je	 SHORT $LN25@GetNextAss
  00028	c7 45 9c 01 00
	00 00		 mov	 DWORD PTR tv73[ebp], 1
  0002f	eb 07		 jmp	 SHORT $LN26@GetNextAss
$LN25@GetNextAss:
  00031	c7 45 9c 00 00
	00 00		 mov	 DWORD PTR tv73[ebp], 0
$LN26@GetNextAss:
  00038	8b 4d 9c	 mov	 ecx, DWORD PTR tv73[ebp]
  0003b	89 4d f8	 mov	 DWORD PTR ___afx_condVal$5[ebp], ecx
  0003e	83 7d f8 00	 cmp	 DWORD PTR ___afx_condVal$5[ebp], 0
  00042	75 14		 jne	 SHORT $LN27@GetNextAss
  00044	68 6a 06 00 00	 push	 1642			; 0000066aH
  00049	68 00 00 00 00	 push	 OFFSET ??_C@_0HC@HBCNBCLF@c?3?2program?5files?5?$CIx86?$CJ?2microsof@
  0004e	e8 00 00 00 00	 call	 ?AfxAssertFailedLine@@YGHPBDH@Z ; AfxAssertFailedLine
  00053	85 c0		 test	 eax, eax
  00055	74 01		 je	 SHORT $LN27@GetNextAss
  00057	cc		 int	 3
$LN27@GetNextAss:
  00058	83 7d f8 00	 cmp	 DWORD PTR ___afx_condVal$5[ebp], 0
  0005c	75 05		 jne	 SHORT $LN2@GetNextAss
  0005e	e8 00 00 00 00	 call	 ?AfxThrowInvalidArgException@@YGXXZ ; AfxThrowInvalidArgException
$LN2@GetNextAss:
  00063	33 c0		 xor	 eax, eax
  00065	75 b8		 jne	 SHORT $LN4@GetNextAss

; 1643 : 
; 1644 : 	CAssoc* pAssocRet = (CAssoc*)rNextPosition;

  00067	8b 45 08	 mov	 eax, DWORD PTR _rNextPosition$[ebp]
  0006a	8b 08		 mov	 ecx, DWORD PTR [eax]
  0006c	89 4d f4	 mov	 DWORD PTR _pAssocRet$[ebp], ecx
$LN7@GetNextAss:

; 1645 : 	ENSURE(pAssocRet != NULL);

  0006f	83 7d f4 00	 cmp	 DWORD PTR _pAssocRet$[ebp], 0
  00073	74 09		 je	 SHORT $LN28@GetNextAss
  00075	c7 45 9c 01 00
	00 00		 mov	 DWORD PTR tv83[ebp], 1
  0007c	eb 07		 jmp	 SHORT $LN29@GetNextAss
$LN28@GetNextAss:
  0007e	c7 45 9c 00 00
	00 00		 mov	 DWORD PTR tv83[ebp], 0
$LN29@GetNextAss:
  00085	8b 45 9c	 mov	 eax, DWORD PTR tv83[ebp]
  00088	89 45 f0	 mov	 DWORD PTR ___afx_condVal$4[ebp], eax
  0008b	83 7d f0 00	 cmp	 DWORD PTR ___afx_condVal$4[ebp], 0
  0008f	75 14		 jne	 SHORT $LN30@GetNextAss
  00091	68 6d 06 00 00	 push	 1645			; 0000066dH
  00096	68 00 00 00 00	 push	 OFFSET ??_C@_0HC@HBCNBCLF@c?3?2program?5files?5?$CIx86?$CJ?2microsof@
  0009b	e8 00 00 00 00	 call	 ?AfxAssertFailedLine@@YGHPBDH@Z ; AfxAssertFailedLine
  000a0	85 c0		 test	 eax, eax
  000a2	74 01		 je	 SHORT $LN30@GetNextAss
  000a4	cc		 int	 3
$LN30@GetNextAss:
  000a5	83 7d f0 00	 cmp	 DWORD PTR ___afx_condVal$4[ebp], 0
  000a9	75 05		 jne	 SHORT $LN5@GetNextAss
  000ab	e8 00 00 00 00	 call	 ?AfxThrowInvalidArgException@@YGXXZ ; AfxThrowInvalidArgException
$LN5@GetNextAss:
  000b0	33 c0		 xor	 eax, eax
  000b2	75 bb		 jne	 SHORT $LN7@GetNextAss

; 1646 : 
; 1647 : 	if (pAssocRet == (CAssoc*) BEFORE_START_POSITION)

  000b4	83 7d f4 ff	 cmp	 DWORD PTR _pAssocRet$[ebp], -1
  000b8	75 7b		 jne	 SHORT $LN19@GetNextAss

; 1648 : 	{
; 1649 : 		// find the first association
; 1650 : 		for (UINT nBucket = 0; nBucket < m_nHashTableSize; nBucket++)

  000ba	c7 45 ec 00 00
	00 00		 mov	 DWORD PTR _nBucket$3[ebp], 0
  000c1	eb 09		 jmp	 SHORT $LN10@GetNextAss
$LN8@GetNextAss:
  000c3	8b 45 ec	 mov	 eax, DWORD PTR _nBucket$3[ebp]
  000c6	83 c0 01	 add	 eax, 1
  000c9	89 45 ec	 mov	 DWORD PTR _nBucket$3[ebp], eax
$LN10@GetNextAss:
  000cc	8b 45 fc	 mov	 eax, DWORD PTR _this$[ebp]
  000cf	8b 4d ec	 mov	 ecx, DWORD PTR _nBucket$3[ebp]
  000d2	3b 48 08	 cmp	 ecx, DWORD PTR [eax+8]
  000d5	73 19		 jae	 SHORT $LN13@GetNextAss

; 1651 : 		{
; 1652 : 			if ((pAssocRet = m_pHashTable[nBucket]) != NULL)

  000d7	8b 45 fc	 mov	 eax, DWORD PTR _this$[ebp]
  000da	8b 48 04	 mov	 ecx, DWORD PTR [eax+4]
  000dd	8b 55 ec	 mov	 edx, DWORD PTR _nBucket$3[ebp]
  000e0	8b 04 91	 mov	 eax, DWORD PTR [ecx+edx*4]
  000e3	89 45 f4	 mov	 DWORD PTR _pAssocRet$[ebp], eax
  000e6	83 7d f4 00	 cmp	 DWORD PTR _pAssocRet$[ebp], 0
  000ea	74 02		 je	 SHORT $LN20@GetNextAss

; 1653 : 			{
; 1654 : 				break;

  000ec	eb 02		 jmp	 SHORT $LN13@GetNextAss
$LN20@GetNextAss:

; 1655 : 			}
; 1656 : 		}

  000ee	eb d3		 jmp	 SHORT $LN8@GetNextAss
$LN13@GetNextAss:

; 1657 : 		ENSURE(pAssocRet != NULL);  // must find something

  000f0	83 7d f4 00	 cmp	 DWORD PTR _pAssocRet$[ebp], 0
  000f4	74 09		 je	 SHORT $LN31@GetNextAss
  000f6	c7 45 9c 01 00
	00 00		 mov	 DWORD PTR tv133[ebp], 1
  000fd	eb 07		 jmp	 SHORT $LN32@GetNextAss
$LN31@GetNextAss:
  000ff	c7 45 9c 00 00
	00 00		 mov	 DWORD PTR tv133[ebp], 0
$LN32@GetNextAss:
  00106	8b 45 9c	 mov	 eax, DWORD PTR tv133[ebp]
  00109	89 45 e8	 mov	 DWORD PTR ___afx_condVal$2[ebp], eax
  0010c	83 7d e8 00	 cmp	 DWORD PTR ___afx_condVal$2[ebp], 0
  00110	75 14		 jne	 SHORT $LN33@GetNextAss
  00112	68 79 06 00 00	 push	 1657			; 00000679H
  00117	68 00 00 00 00	 push	 OFFSET ??_C@_0HC@HBCNBCLF@c?3?2program?5files?5?$CIx86?$CJ?2microsof@
  0011c	e8 00 00 00 00	 call	 ?AfxAssertFailedLine@@YGHPBDH@Z ; AfxAssertFailedLine
  00121	85 c0		 test	 eax, eax
  00123	74 01		 je	 SHORT $LN33@GetNextAss
  00125	cc		 int	 3
$LN33@GetNextAss:
  00126	83 7d e8 00	 cmp	 DWORD PTR ___afx_condVal$2[ebp], 0
  0012a	75 05		 jne	 SHORT $LN11@GetNextAss
  0012c	e8 00 00 00 00	 call	 ?AfxThrowInvalidArgException@@YGXXZ ; AfxThrowInvalidArgException
$LN11@GetNextAss:
  00131	33 c0		 xor	 eax, eax
  00133	75 bb		 jne	 SHORT $LN13@GetNextAss
$LN19@GetNextAss:

; 1658 : 	}
; 1659 : 
; 1660 : 	// find next association
; 1661 : 	ASSERT(AfxIsValidAddress(pAssocRet, sizeof(CAssoc)));

  00135	6a 01		 push	 1
  00137	6a 10		 push	 16			; 00000010H
  00139	8b 45 f4	 mov	 eax, DWORD PTR _pAssocRet$[ebp]
  0013c	50		 push	 eax
  0013d	e8 00 00 00 00	 call	 ?AfxIsValidAddress@@YGHPBXIH@Z ; AfxIsValidAddress
  00142	85 c0		 test	 eax, eax
  00144	75 14		 jne	 SHORT $LN34@GetNextAss
  00146	68 7d 06 00 00	 push	 1661			; 0000067dH
  0014b	68 00 00 00 00	 push	 OFFSET ??_C@_0HC@HBCNBCLF@c?3?2program?5files?5?$CIx86?$CJ?2microsof@
  00150	e8 00 00 00 00	 call	 ?AfxAssertFailedLine@@YGHPBDH@Z ; AfxAssertFailedLine
  00155	85 c0		 test	 eax, eax
  00157	74 01		 je	 SHORT $LN34@GetNextAss
  00159	cc		 int	 3
$LN34@GetNextAss:

; 1662 : 	CAssoc* pAssocNext;
; 1663 : 	if ((pAssocNext = pAssocRet->pNext) == NULL)

  0015a	8b 45 f4	 mov	 eax, DWORD PTR _pAssocRet$[ebp]
  0015d	8b 48 08	 mov	 ecx, DWORD PTR [eax+8]
  00160	89 4d e4	 mov	 DWORD PTR _pAssocNext$[ebp], ecx
  00163	83 7d e4 00	 cmp	 DWORD PTR _pAssocNext$[ebp], 0
  00167	75 43		 jne	 SHORT $LN22@GetNextAss

; 1664 : 	{
; 1665 : 		// go to next bucket
; 1666 : 		for (UINT nBucket = (pAssocRet->nHashValue % m_nHashTableSize) + 1;

  00169	8b 45 f4	 mov	 eax, DWORD PTR _pAssocRet$[ebp]
  0016c	8b 4d fc	 mov	 ecx, DWORD PTR _this$[ebp]
  0016f	8b 40 0c	 mov	 eax, DWORD PTR [eax+12]
  00172	33 d2		 xor	 edx, edx
  00174	f7 71 08	 div	 DWORD PTR [ecx+8]
  00177	83 c2 01	 add	 edx, 1
  0017a	89 55 e0	 mov	 DWORD PTR _nBucket$1[ebp], edx
  0017d	eb 09		 jmp	 SHORT $LN16@GetNextAss
$LN14@GetNextAss:

; 1667 : 		  nBucket < m_nHashTableSize; nBucket++)

  0017f	8b 45 e0	 mov	 eax, DWORD PTR _nBucket$1[ebp]
  00182	83 c0 01	 add	 eax, 1
  00185	89 45 e0	 mov	 DWORD PTR _nBucket$1[ebp], eax
$LN16@GetNextAss:
  00188	8b 45 fc	 mov	 eax, DWORD PTR _this$[ebp]
  0018b	8b 4d e0	 mov	 ecx, DWORD PTR _nBucket$1[ebp]
  0018e	3b 48 08	 cmp	 ecx, DWORD PTR [eax+8]
  00191	73 19		 jae	 SHORT $LN22@GetNextAss

; 1668 : 			if ((pAssocNext = m_pHashTable[nBucket]) != NULL)

  00193	8b 45 fc	 mov	 eax, DWORD PTR _this$[ebp]
  00196	8b 48 04	 mov	 ecx, DWORD PTR [eax+4]
  00199	8b 55 e0	 mov	 edx, DWORD PTR _nBucket$1[ebp]
  0019c	8b 04 91	 mov	 eax, DWORD PTR [ecx+edx*4]
  0019f	89 45 e4	 mov	 DWORD PTR _pAssocNext$[ebp], eax
  001a2	83 7d e4 00	 cmp	 DWORD PTR _pAssocNext$[ebp], 0
  001a6	74 02		 je	 SHORT $LN23@GetNextAss

; 1669 : 				break;

  001a8	eb 02		 jmp	 SHORT $LN22@GetNextAss
$LN23@GetNextAss:

; 1670 : 	}

  001aa	eb d3		 jmp	 SHORT $LN14@GetNextAss
$LN22@GetNextAss:

; 1671 : 
; 1672 : 	rNextPosition = (POSITION) pAssocNext;

  001ac	8b 45 08	 mov	 eax, DWORD PTR _rNextPosition$[ebp]
  001af	8b 4d e4	 mov	 ecx, DWORD PTR _pAssocNext$[ebp]
  001b2	89 08		 mov	 DWORD PTR [eax], ecx

; 1673 : 
; 1674 : 	// fill in return data
; 1675 : 	rKey = pAssocRet->key;

  001b4	8b 45 0c	 mov	 eax, DWORD PTR _rKey$[ebp]
  001b7	8b 4d f4	 mov	 ecx, DWORD PTR _pAssocRet$[ebp]
  001ba	8b 11		 mov	 edx, DWORD PTR [ecx]
  001bc	89 10		 mov	 DWORD PTR [eax], edx

; 1676 : 	rValue = pAssocRet->value;

  001be	8b 45 10	 mov	 eax, DWORD PTR _rValue$[ebp]
  001c1	8b 4d f4	 mov	 ecx, DWORD PTR _pAssocRet$[ebp]
  001c4	8b 51 04	 mov	 edx, DWORD PTR [ecx+4]
  001c7	89 10		 mov	 DWORD PTR [eax], edx
$LN24@GetNextAss:

; 1677 : }

  001c9	5f		 pop	 edi
  001ca	5e		 pop	 esi
  001cb	5b		 pop	 ebx
  001cc	8b e5		 mov	 esp, ebp
  001ce	5d		 pop	 ebp
  001cf	c2 0c 00	 ret	 12			; 0000000cH
?GetNextAssoc@?$CMap@KKPAVCGamePropertyRelatItem@NGamePropertyListManager@@AAPAV12@@@QBEXAAPAU__POSITION@@AAKAAPAVCGamePropertyRelatItem@NGamePropertyListManager@@@Z ENDP ; CMap<unsigned long,unsigned long,NGamePropertyListManager::CGamePropertyRelatItem *,NGamePropertyListManager::CGamePropertyRelatItem * &>::GetNextAssoc
_TEXT	ENDS
; Function compile flags: /Odtp /ZI
; File c:\program files (x86)\microsoft visual studio\2017\community\vc\tools\msvc\14.16.27023\atlmfc\include\afxtempl.h
;	COMDAT ?GetStartPosition@?$CMap@KKPAVCGamePropertyRelatItem@NGamePropertyListManager@@AAPAV12@@@QBEPAU__POSITION@@XZ
_TEXT	SEGMENT
tv66 = -72						; size = 4
_this$ = -4						; size = 4
?GetStartPosition@?$CMap@KKPAVCGamePropertyRelatItem@NGamePropertyListManager@@AAPAV12@@@QBEPAU__POSITION@@XZ PROC ; CMap<unsigned long,unsigned long,NGamePropertyListManager::CGamePropertyRelatItem *,NGamePropertyListManager::CGamePropertyRelatItem * &>::GetStartPosition, COMDAT
; _this$ = ecx

; 1354 : 	{ return (m_nCount == 0) ? NULL : BEFORE_START_POSITION; }

  00000	55		 push	 ebp
  00001	8b ec		 mov	 ebp, esp
  00003	83 ec 48	 sub	 esp, 72			; 00000048H
  00006	53		 push	 ebx
  00007	56		 push	 esi
  00008	57		 push	 edi
  00009	89 4d fc	 mov	 DWORD PTR _this$[ebp], ecx
  0000c	8b 45 fc	 mov	 eax, DWORD PTR _this$[ebp]
  0000f	83 78 0c 00	 cmp	 DWORD PTR [eax+12], 0
  00013	75 09		 jne	 SHORT $LN3@GetStartPo
  00015	c7 45 b8 00 00
	00 00		 mov	 DWORD PTR tv66[ebp], 0
  0001c	eb 07		 jmp	 SHORT $LN4@GetStartPo
$LN3@GetStartPo:
  0001e	c7 45 b8 ff ff
	ff ff		 mov	 DWORD PTR tv66[ebp], -1
$LN4@GetStartPo:
  00025	8b 45 b8	 mov	 eax, DWORD PTR tv66[ebp]
  00028	5f		 pop	 edi
  00029	5e		 pop	 esi
  0002a	5b		 pop	 ebx
  0002b	8b e5		 mov	 esp, ebp
  0002d	5d		 pop	 ebp
  0002e	c3		 ret	 0
?GetStartPosition@?$CMap@KKPAVCGamePropertyRelatItem@NGamePropertyListManager@@AAPAV12@@@QBEPAU__POSITION@@XZ ENDP ; CMap<unsigned long,unsigned long,NGamePropertyListManager::CGamePropertyRelatItem *,NGamePropertyListManager::CGamePropertyRelatItem * &>::GetStartPosition
_TEXT	ENDS
; Function compile flags: /Odtp /ZI
; File c:\program files (x86)\microsoft visual studio\2017\community\vc\tools\msvc\14.16.27023\atlmfc\include\afxtempl.h
;	COMDAT ?RemoveAll@?$CMap@KKPAVCGamePropertyRelatItem@NGamePropertyListManager@@AAPAV12@@@QAEXXZ
_TEXT	SEGMENT
$T1 = -80						; size = 4
_pAssoc$2 = -12						; size = 4
_nHash$3 = -8						; size = 4
_this$ = -4						; size = 4
?RemoveAll@?$CMap@KKPAVCGamePropertyRelatItem@NGamePropertyListManager@@AAPAV12@@@QAEXXZ PROC ; CMap<unsigned long,unsigned long,NGamePropertyListManager::CGamePropertyRelatItem *,NGamePropertyListManager::CGamePropertyRelatItem * &>::RemoveAll, COMDAT
; _this$ = ecx

; 1443 : {

  00000	55		 push	 ebp
  00001	8b ec		 mov	 ebp, esp
  00003	83 ec 50	 sub	 esp, 80			; 00000050H
  00006	53		 push	 ebx
  00007	56		 push	 esi
  00008	57		 push	 edi
  00009	89 4d fc	 mov	 DWORD PTR _this$[ebp], ecx

; 1444 : 	ASSERT_VALID(this);

  0000c	68 a4 05 00 00	 push	 1444			; 000005a4H
  00011	68 00 00 00 00	 push	 OFFSET ??_C@_0HC@HBCNBCLF@c?3?2program?5files?5?$CIx86?$CJ?2microsof@
  00016	8b 45 fc	 mov	 eax, DWORD PTR _this$[ebp]
  00019	50		 push	 eax
  0001a	e8 00 00 00 00	 call	 ?AfxAssertValidObject@@YGXPBVCObject@@PBDH@Z ; AfxAssertValidObject

; 1445 : 
; 1446 : 	if (m_pHashTable != NULL)

  0001f	8b 45 fc	 mov	 eax, DWORD PTR _this$[ebp]
  00022	83 78 04 00	 cmp	 DWORD PTR [eax+4], 0
  00026	74 60		 je	 SHORT $LN8@RemoveAll

; 1447 : 	{
; 1448 : 		// destroy elements (values and keys)
; 1449 : 		for (UINT nHash = 0; nHash < m_nHashTableSize; nHash++)

  00028	c7 45 f8 00 00
	00 00		 mov	 DWORD PTR _nHash$3[ebp], 0
  0002f	eb 09		 jmp	 SHORT $LN4@RemoveAll
$LN2@RemoveAll:
  00031	8b 45 f8	 mov	 eax, DWORD PTR _nHash$3[ebp]
  00034	83 c0 01	 add	 eax, 1
  00037	89 45 f8	 mov	 DWORD PTR _nHash$3[ebp], eax
$LN4@RemoveAll:
  0003a	8b 45 fc	 mov	 eax, DWORD PTR _this$[ebp]
  0003d	8b 4d f8	 mov	 ecx, DWORD PTR _nHash$3[ebp]
  00040	3b 48 08	 cmp	 ecx, DWORD PTR [eax+8]
  00043	73 24		 jae	 SHORT $LN3@RemoveAll

; 1450 : 		{
; 1451 : 			CAssoc* pAssoc;
; 1452 : 			for (pAssoc = m_pHashTable[nHash]; pAssoc != NULL;

  00045	8b 45 fc	 mov	 eax, DWORD PTR _this$[ebp]
  00048	8b 48 04	 mov	 ecx, DWORD PTR [eax+4]
  0004b	8b 55 f8	 mov	 edx, DWORD PTR _nHash$3[ebp]
  0004e	8b 04 91	 mov	 eax, DWORD PTR [ecx+edx*4]
  00051	89 45 f4	 mov	 DWORD PTR _pAssoc$2[ebp], eax
  00054	eb 09		 jmp	 SHORT $LN7@RemoveAll
$LN5@RemoveAll:

; 1453 : 			  pAssoc = pAssoc->pNext)

  00056	8b 45 f4	 mov	 eax, DWORD PTR _pAssoc$2[ebp]
  00059	8b 48 08	 mov	 ecx, DWORD PTR [eax+8]
  0005c	89 4d f4	 mov	 DWORD PTR _pAssoc$2[ebp], ecx
$LN7@RemoveAll:

; 1450 : 		{
; 1451 : 			CAssoc* pAssoc;
; 1452 : 			for (pAssoc = m_pHashTable[nHash]; pAssoc != NULL;

  0005f	83 7d f4 00	 cmp	 DWORD PTR _pAssoc$2[ebp], 0
  00063	74 02		 je	 SHORT $LN6@RemoveAll

; 1454 : 			{
; 1455 : 				pAssoc->CAssoc::~CAssoc();
; 1456 : 			}

  00065	eb ef		 jmp	 SHORT $LN5@RemoveAll
$LN6@RemoveAll:

; 1457 : 		}

  00067	eb c8		 jmp	 SHORT $LN2@RemoveAll
$LN3@RemoveAll:

; 1458 : 
; 1459 : 		// free hash table
; 1460 : 		delete[] m_pHashTable;

  00069	8b 45 fc	 mov	 eax, DWORD PTR _this$[ebp]
  0006c	8b 48 04	 mov	 ecx, DWORD PTR [eax+4]
  0006f	89 4d b0	 mov	 DWORD PTR $T1[ebp], ecx
  00072	8b 55 b0	 mov	 edx, DWORD PTR $T1[ebp]
  00075	52		 push	 edx
  00076	e8 00 00 00 00	 call	 ??_V@YAXPAX@Z		; operator delete[]
  0007b	83 c4 04	 add	 esp, 4

; 1461 : 		m_pHashTable = NULL;

  0007e	8b 45 fc	 mov	 eax, DWORD PTR _this$[ebp]
  00081	c7 40 04 00 00
	00 00		 mov	 DWORD PTR [eax+4], 0
$LN8@RemoveAll:

; 1462 : 	}
; 1463 : 
; 1464 : 	m_nCount = 0;

  00088	8b 45 fc	 mov	 eax, DWORD PTR _this$[ebp]
  0008b	c7 40 0c 00 00
	00 00		 mov	 DWORD PTR [eax+12], 0

; 1465 : 	m_pFreeList = NULL;

  00092	8b 45 fc	 mov	 eax, DWORD PTR _this$[ebp]
  00095	c7 40 10 00 00
	00 00		 mov	 DWORD PTR [eax+16], 0

; 1466 : 	m_pBlocks->FreeDataChain();

  0009c	8b 45 fc	 mov	 eax, DWORD PTR _this$[ebp]
  0009f	8b 48 14	 mov	 ecx, DWORD PTR [eax+20]
  000a2	e8 00 00 00 00	 call	 ?FreeDataChain@CPlex@@QAEXXZ ; CPlex::FreeDataChain

; 1467 : 	m_pBlocks = NULL;

  000a7	8b 45 fc	 mov	 eax, DWORD PTR _this$[ebp]
  000aa	c7 40 14 00 00
	00 00		 mov	 DWORD PTR [eax+20], 0

; 1468 : }

  000b1	5f		 pop	 edi
  000b2	5e		 pop	 esi
  000b3	5b		 pop	 ebx
  000b4	8b e5		 mov	 esp, ebp
  000b6	5d		 pop	 ebp
  000b7	c3		 ret	 0
?RemoveAll@?$CMap@KKPAVCGamePropertyRelatItem@NGamePropertyListManager@@AAPAV12@@@QAEXXZ ENDP ; CMap<unsigned long,unsigned long,NGamePropertyListManager::CGamePropertyRelatItem *,NGamePropertyListManager::CGamePropertyRelatItem * &>::RemoveAll
_TEXT	ENDS
; Function compile flags: /Odtp /ZI
; File c:\program files (x86)\microsoft visual studio\2017\community\vc\tools\msvc\14.16.27023\atlmfc\include\afxtempl.h
;	COMDAT ?RemoveKey@?$CMap@KKPAVCGamePropertyRelatItem@NGamePropertyListManager@@AAPAV12@@@QAEHK@Z
_TEXT	SEGMENT
_pAssoc$ = -16						; size = 4
_ppAssocPrev$ = -12					; size = 4
_nHashValue$ = -8					; size = 4
_this$ = -4						; size = 4
_key$ = 8						; size = 4
?RemoveKey@?$CMap@KKPAVCGamePropertyRelatItem@NGamePropertyListManager@@AAPAV12@@@QAEHK@Z PROC ; CMap<unsigned long,unsigned long,NGamePropertyListManager::CGamePropertyRelatItem *,NGamePropertyListManager::CGamePropertyRelatItem * &>::RemoveKey, COMDAT
; _this$ = ecx

; 1611 : {

  00000	55		 push	 ebp
  00001	8b ec		 mov	 ebp, esp
  00003	83 ec 50	 sub	 esp, 80			; 00000050H
  00006	53		 push	 ebx
  00007	56		 push	 esi
  00008	57		 push	 edi
  00009	89 4d fc	 mov	 DWORD PTR _this$[ebp], ecx

; 1612 : 	ASSERT_VALID(this);

  0000c	68 4c 06 00 00	 push	 1612			; 0000064cH
  00011	68 00 00 00 00	 push	 OFFSET ??_C@_0HC@HBCNBCLF@c?3?2program?5files?5?$CIx86?$CJ?2microsof@
  00016	8b 45 fc	 mov	 eax, DWORD PTR _this$[ebp]
  00019	50		 push	 eax
  0001a	e8 00 00 00 00	 call	 ?AfxAssertValidObject@@YGXPBVCObject@@PBDH@Z ; AfxAssertValidObject

; 1613 : 
; 1614 : 	if (m_pHashTable == NULL)

  0001f	8b 45 fc	 mov	 eax, DWORD PTR _this$[ebp]
  00022	83 78 04 00	 cmp	 DWORD PTR [eax+4], 0
  00026	75 07		 jne	 SHORT $LN5@RemoveKey

; 1615 : 		return FALSE;  // nothing in the table

  00028	33 c0		 xor	 eax, eax
  0002a	e9 83 00 00 00	 jmp	 $LN1@RemoveKey
$LN5@RemoveKey:

; 1616 : 
; 1617 : 	UINT nHashValue;
; 1618 : 	CAssoc** ppAssocPrev;
; 1619 : 	nHashValue = HashKey<ARG_KEY>(key);

  0002f	8b 45 08	 mov	 eax, DWORD PTR _key$[ebp]
  00032	50		 push	 eax
  00033	e8 00 00 00 00	 call	 ??$HashKey@K@@YGIK@Z	; HashKey<unsigned long>
  00038	89 45 f8	 mov	 DWORD PTR _nHashValue$[ebp], eax

; 1620 : 	ppAssocPrev = &m_pHashTable[nHashValue%m_nHashTableSize];

  0003b	8b 4d fc	 mov	 ecx, DWORD PTR _this$[ebp]
  0003e	8b 45 f8	 mov	 eax, DWORD PTR _nHashValue$[ebp]
  00041	33 d2		 xor	 edx, edx
  00043	f7 71 08	 div	 DWORD PTR [ecx+8]
  00046	8b 45 fc	 mov	 eax, DWORD PTR _this$[ebp]
  00049	8b 48 04	 mov	 ecx, DWORD PTR [eax+4]
  0004c	8d 14 91	 lea	 edx, DWORD PTR [ecx+edx*4]
  0004f	89 55 f4	 mov	 DWORD PTR _ppAssocPrev$[ebp], edx

; 1621 : 
; 1622 : 	CAssoc* pAssoc;
; 1623 : 	for (pAssoc = *ppAssocPrev; pAssoc != NULL; pAssoc = pAssoc->pNext)

  00052	8b 45 f4	 mov	 eax, DWORD PTR _ppAssocPrev$[ebp]
  00055	8b 08		 mov	 ecx, DWORD PTR [eax]
  00057	89 4d f0	 mov	 DWORD PTR _pAssoc$[ebp], ecx
  0005a	eb 09		 jmp	 SHORT $LN4@RemoveKey
$LN2@RemoveKey:
  0005c	8b 45 f0	 mov	 eax, DWORD PTR _pAssoc$[ebp]
  0005f	8b 48 08	 mov	 ecx, DWORD PTR [eax+8]
  00062	89 4d f0	 mov	 DWORD PTR _pAssoc$[ebp], ecx
$LN4@RemoveKey:
  00065	83 7d f0 00	 cmp	 DWORD PTR _pAssoc$[ebp], 0
  00069	74 45		 je	 SHORT $LN3@RemoveKey

; 1624 : 	{
; 1625 : 		if ((pAssoc->nHashValue == nHashValue) && CompareElements(&pAssoc->key, &key))

  0006b	8b 45 f0	 mov	 eax, DWORD PTR _pAssoc$[ebp]
  0006e	8b 48 0c	 mov	 ecx, DWORD PTR [eax+12]
  00071	3b 4d f8	 cmp	 ecx, DWORD PTR _nHashValue$[ebp]
  00074	75 2f		 jne	 SHORT $LN6@RemoveKey
  00076	8d 45 08	 lea	 eax, DWORD PTR _key$[ebp]
  00079	50		 push	 eax
  0007a	8b 4d f0	 mov	 ecx, DWORD PTR _pAssoc$[ebp]
  0007d	51		 push	 ecx
  0007e	e8 00 00 00 00	 call	 ??$CompareElements@KK@@YGHPBK0@Z ; CompareElements<unsigned long,unsigned long>
  00083	85 c0		 test	 eax, eax
  00085	74 1e		 je	 SHORT $LN6@RemoveKey

; 1626 : 		{
; 1627 : 			// remove it
; 1628 : 			*ppAssocPrev = pAssoc->pNext;  // remove from list

  00087	8b 45 f4	 mov	 eax, DWORD PTR _ppAssocPrev$[ebp]
  0008a	8b 4d f0	 mov	 ecx, DWORD PTR _pAssoc$[ebp]
  0008d	8b 51 08	 mov	 edx, DWORD PTR [ecx+8]
  00090	89 10		 mov	 DWORD PTR [eax], edx

; 1629 : 			FreeAssoc(pAssoc);

  00092	8b 45 f0	 mov	 eax, DWORD PTR _pAssoc$[ebp]
  00095	50		 push	 eax
  00096	8b 4d fc	 mov	 ecx, DWORD PTR _this$[ebp]
  00099	e8 00 00 00 00	 call	 ?FreeAssoc@?$CMap@KKPAVCGamePropertyRelatItem@NGamePropertyListManager@@AAPAV12@@@IAEXPAVCAssoc@1@@Z ; CMap<unsigned long,unsigned long,NGamePropertyListManager::CGamePropertyRelatItem *,NGamePropertyListManager::CGamePropertyRelatItem * &>::FreeAssoc

; 1630 : 			return TRUE;

  0009e	b8 01 00 00 00	 mov	 eax, 1
  000a3	eb 0d		 jmp	 SHORT $LN1@RemoveKey
$LN6@RemoveKey:

; 1631 : 		}
; 1632 : 		ppAssocPrev = &pAssoc->pNext;

  000a5	8b 45 f0	 mov	 eax, DWORD PTR _pAssoc$[ebp]
  000a8	83 c0 08	 add	 eax, 8
  000ab	89 45 f4	 mov	 DWORD PTR _ppAssocPrev$[ebp], eax

; 1633 : 	}

  000ae	eb ac		 jmp	 SHORT $LN2@RemoveKey
$LN3@RemoveKey:

; 1634 : 	return FALSE;  // not found

  000b0	33 c0		 xor	 eax, eax
$LN1@RemoveKey:

; 1635 : }

  000b2	5f		 pop	 edi
  000b3	5e		 pop	 esi
  000b4	5b		 pop	 ebx
  000b5	8b e5		 mov	 esp, ebp
  000b7	5d		 pop	 ebp
  000b8	c2 04 00	 ret	 4
?RemoveKey@?$CMap@KKPAVCGamePropertyRelatItem@NGamePropertyListManager@@AAPAV12@@@QAEHK@Z ENDP ; CMap<unsigned long,unsigned long,NGamePropertyListManager::CGamePropertyRelatItem *,NGamePropertyListManager::CGamePropertyRelatItem * &>::RemoveKey
_TEXT	ENDS
; Function compile flags: /Odtp /ZI
; File c:\program files (x86)\microsoft visual studio\2017\community\vc\tools\msvc\14.16.27023\atlmfc\include\afxtempl.h
;	COMDAT ?SetAt@?$CMap@KKPAVCGamePropertyRelatItem@NGamePropertyListManager@@AAPAV12@@@QAEXKAAPAVCGamePropertyRelatItem@NGamePropertyListManager@@@Z
_TEXT	SEGMENT
_this$ = -4						; size = 4
_key$ = 8						; size = 4
_newValue$ = 12						; size = 4
?SetAt@?$CMap@KKPAVCGamePropertyRelatItem@NGamePropertyListManager@@AAPAV12@@@QAEXKAAPAVCGamePropertyRelatItem@NGamePropertyListManager@@@Z PROC ; CMap<unsigned long,unsigned long,NGamePropertyListManager::CGamePropertyRelatItem *,NGamePropertyListManager::CGamePropertyRelatItem * &>::SetAt, COMDAT
; _this$ = ecx

; 1350 : 	{ (*this)[key] = newValue; }

  00000	55		 push	 ebp
  00001	8b ec		 mov	 ebp, esp
  00003	83 ec 44	 sub	 esp, 68			; 00000044H
  00006	53		 push	 ebx
  00007	56		 push	 esi
  00008	57		 push	 edi
  00009	89 4d fc	 mov	 DWORD PTR _this$[ebp], ecx
  0000c	8b 45 08	 mov	 eax, DWORD PTR _key$[ebp]
  0000f	50		 push	 eax
  00010	8b 4d fc	 mov	 ecx, DWORD PTR _this$[ebp]
  00013	e8 00 00 00 00	 call	 ??A?$CMap@KKPAVCGamePropertyRelatItem@NGamePropertyListManager@@AAPAV12@@@QAEAAPAVCGamePropertyRelatItem@NGamePropertyListManager@@K@Z ; CMap<unsigned long,unsigned long,NGamePropertyListManager::CGamePropertyRelatItem *,NGamePropertyListManager::CGamePropertyRelatItem * &>::operator[]
  00018	8b 4d 0c	 mov	 ecx, DWORD PTR _newValue$[ebp]
  0001b	8b 11		 mov	 edx, DWORD PTR [ecx]
  0001d	89 10		 mov	 DWORD PTR [eax], edx
  0001f	5f		 pop	 edi
  00020	5e		 pop	 esi
  00021	5b		 pop	 ebx
  00022	8b e5		 mov	 esp, ebp
  00024	5d		 pop	 ebp
  00025	c2 08 00	 ret	 8
?SetAt@?$CMap@KKPAVCGamePropertyRelatItem@NGamePropertyListManager@@AAPAV12@@@QAEXKAAPAVCGamePropertyRelatItem@NGamePropertyListManager@@@Z ENDP ; CMap<unsigned long,unsigned long,NGamePropertyListManager::CGamePropertyRelatItem *,NGamePropertyListManager::CGamePropertyRelatItem * &>::SetAt
_TEXT	ENDS
; Function compile flags: /Odtp /ZI
; File c:\program files (x86)\microsoft visual studio\2017\community\vc\tools\msvc\14.16.27023\atlmfc\include\afxtempl.h
;	COMDAT ??A?$CMap@KKPAVCGamePropertyRelatItem@NGamePropertyListManager@@AAPAV12@@@QAEAAPAVCGamePropertyRelatItem@NGamePropertyListManager@@K@Z
_TEXT	SEGMENT
tv85 = -88						; size = 4
___afx_condVal$1 = -20					; size = 4
_pAssoc$ = -16						; size = 4
_nHashValue$ = -12					; size = 4
_nHashBucket$ = -8					; size = 4
_this$ = -4						; size = 4
_key$ = 8						; size = 4
??A?$CMap@KKPAVCGamePropertyRelatItem@NGamePropertyListManager@@AAPAV12@@@QAEAAPAVCGamePropertyRelatItem@NGamePropertyListManager@@K@Z PROC ; CMap<unsigned long,unsigned long,NGamePropertyListManager::CGamePropertyRelatItem *,NGamePropertyListManager::CGamePropertyRelatItem * &>::operator[], COMDAT
; _this$ = ecx

; 1585 : {

  00000	55		 push	 ebp
  00001	8b ec		 mov	 ebp, esp
  00003	83 ec 58	 sub	 esp, 88			; 00000058H
  00006	53		 push	 ebx
  00007	56		 push	 esi
  00008	57		 push	 edi
  00009	89 4d fc	 mov	 DWORD PTR _this$[ebp], ecx

; 1586 : 	ASSERT_VALID(this);

  0000c	68 32 06 00 00	 push	 1586			; 00000632H
  00011	68 00 00 00 00	 push	 OFFSET ??_C@_0HC@HBCNBCLF@c?3?2program?5files?5?$CIx86?$CJ?2microsof@
  00016	8b 45 fc	 mov	 eax, DWORD PTR _this$[ebp]
  00019	50		 push	 eax
  0001a	e8 00 00 00 00	 call	 ?AfxAssertValidObject@@YGXPBVCObject@@PBDH@Z ; AfxAssertValidObject

; 1587 : 
; 1588 : 	UINT nHashBucket, nHashValue;
; 1589 : 	CAssoc* pAssoc;
; 1590 : 	if ((pAssoc = GetAssocAt(key, nHashBucket, nHashValue)) == NULL)

  0001f	8d 45 f4	 lea	 eax, DWORD PTR _nHashValue$[ebp]
  00022	50		 push	 eax
  00023	8d 4d f8	 lea	 ecx, DWORD PTR _nHashBucket$[ebp]
  00026	51		 push	 ecx
  00027	8b 55 08	 mov	 edx, DWORD PTR _key$[ebp]
  0002a	52		 push	 edx
  0002b	8b 4d fc	 mov	 ecx, DWORD PTR _this$[ebp]
  0002e	e8 00 00 00 00	 call	 ?GetAssocAt@?$CMap@KKPAVCGamePropertyRelatItem@NGamePropertyListManager@@AAPAV12@@@IBEPAVCAssoc@1@KAAI0@Z ; CMap<unsigned long,unsigned long,NGamePropertyListManager::CGamePropertyRelatItem *,NGamePropertyListManager::CGamePropertyRelatItem * &>::GetAssocAt
  00033	89 45 f0	 mov	 DWORD PTR _pAssoc$[ebp], eax
  00036	83 7d f0 00	 cmp	 DWORD PTR _pAssoc$[ebp], 0
  0003a	0f 85 9b 00 00
	00		 jne	 $LN5@operator

; 1591 : 	{
; 1592 : 		if (m_pHashTable == NULL)

  00040	8b 45 fc	 mov	 eax, DWORD PTR _this$[ebp]
  00043	83 78 04 00	 cmp	 DWORD PTR [eax+4], 0
  00047	75 11		 jne	 SHORT $LN4@operator

; 1593 : 			InitHashTable(m_nHashTableSize);

  00049	6a 01		 push	 1
  0004b	8b 45 fc	 mov	 eax, DWORD PTR _this$[ebp]
  0004e	8b 48 08	 mov	 ecx, DWORD PTR [eax+8]
  00051	51		 push	 ecx
  00052	8b 4d fc	 mov	 ecx, DWORD PTR _this$[ebp]
  00055	e8 00 00 00 00	 call	 ?InitHashTable@?$CMap@KKPAVCGamePropertyRelatItem@NGamePropertyListManager@@AAPAV12@@@QAEXIH@Z ; CMap<unsigned long,unsigned long,NGamePropertyListManager::CGamePropertyRelatItem *,NGamePropertyListManager::CGamePropertyRelatItem * &>::InitHashTable
$LN4@operator:

; 1594 : 
; 1595 : 		ENSURE(m_pHashTable);

  0005a	8b 45 fc	 mov	 eax, DWORD PTR _this$[ebp]
  0005d	83 78 04 00	 cmp	 DWORD PTR [eax+4], 0
  00061	74 09		 je	 SHORT $LN9@operator
  00063	c7 45 a8 01 00
	00 00		 mov	 DWORD PTR tv85[ebp], 1
  0006a	eb 07		 jmp	 SHORT $LN10@operator
$LN9@operator:
  0006c	c7 45 a8 00 00
	00 00		 mov	 DWORD PTR tv85[ebp], 0
$LN10@operator:
  00073	8b 4d a8	 mov	 ecx, DWORD PTR tv85[ebp]
  00076	89 4d ec	 mov	 DWORD PTR ___afx_condVal$1[ebp], ecx
  00079	83 7d ec 00	 cmp	 DWORD PTR ___afx_condVal$1[ebp], 0
  0007d	75 14		 jne	 SHORT $LN11@operator
  0007f	68 3b 06 00 00	 push	 1595			; 0000063bH
  00084	68 00 00 00 00	 push	 OFFSET ??_C@_0HC@HBCNBCLF@c?3?2program?5files?5?$CIx86?$CJ?2microsof@
  00089	e8 00 00 00 00	 call	 ?AfxAssertFailedLine@@YGHPBDH@Z ; AfxAssertFailedLine
  0008e	85 c0		 test	 eax, eax
  00090	74 01		 je	 SHORT $LN11@operator
  00092	cc		 int	 3
$LN11@operator:
  00093	83 7d ec 00	 cmp	 DWORD PTR ___afx_condVal$1[ebp], 0
  00097	75 05		 jne	 SHORT $LN2@operator
  00099	e8 00 00 00 00	 call	 ?AfxThrowInvalidArgException@@YGXXZ ; AfxThrowInvalidArgException
$LN2@operator:
  0009e	33 c0		 xor	 eax, eax
  000a0	75 b8		 jne	 SHORT $LN4@operator

; 1596 : 		// it doesn't exist, add a new Association
; 1597 : 		pAssoc = NewAssoc(key);

  000a2	8b 45 08	 mov	 eax, DWORD PTR _key$[ebp]
  000a5	50		 push	 eax
  000a6	8b 4d fc	 mov	 ecx, DWORD PTR _this$[ebp]
  000a9	e8 00 00 00 00	 call	 ?NewAssoc@?$CMap@KKPAVCGamePropertyRelatItem@NGamePropertyListManager@@AAPAV12@@@IAEPAVCAssoc@1@K@Z ; CMap<unsigned long,unsigned long,NGamePropertyListManager::CGamePropertyRelatItem *,NGamePropertyListManager::CGamePropertyRelatItem * &>::NewAssoc
  000ae	89 45 f0	 mov	 DWORD PTR _pAssoc$[ebp], eax

; 1598 : 		pAssoc->nHashValue = nHashValue;

  000b1	8b 45 f0	 mov	 eax, DWORD PTR _pAssoc$[ebp]
  000b4	8b 4d f4	 mov	 ecx, DWORD PTR _nHashValue$[ebp]
  000b7	89 48 0c	 mov	 DWORD PTR [eax+12], ecx

; 1599 : 		//'pAssoc->value' is a constructed object, nothing more
; 1600 : 
; 1601 : 		// put into hash table
; 1602 : 		pAssoc->pNext = m_pHashTable[nHashBucket];

  000ba	8b 45 fc	 mov	 eax, DWORD PTR _this$[ebp]
  000bd	8b 48 04	 mov	 ecx, DWORD PTR [eax+4]
  000c0	8b 55 f0	 mov	 edx, DWORD PTR _pAssoc$[ebp]
  000c3	8b 45 f8	 mov	 eax, DWORD PTR _nHashBucket$[ebp]
  000c6	8b 0c 81	 mov	 ecx, DWORD PTR [ecx+eax*4]
  000c9	89 4a 08	 mov	 DWORD PTR [edx+8], ecx

; 1603 : 		m_pHashTable[nHashBucket] = pAssoc;

  000cc	8b 45 fc	 mov	 eax, DWORD PTR _this$[ebp]
  000cf	8b 48 04	 mov	 ecx, DWORD PTR [eax+4]
  000d2	8b 55 f8	 mov	 edx, DWORD PTR _nHashBucket$[ebp]
  000d5	8b 45 f0	 mov	 eax, DWORD PTR _pAssoc$[ebp]
  000d8	89 04 91	 mov	 DWORD PTR [ecx+edx*4], eax
$LN5@operator:

; 1604 : 	}
; 1605 : 	return pAssoc->value;  // return new reference

  000db	8b 45 f0	 mov	 eax, DWORD PTR _pAssoc$[ebp]
  000de	83 c0 04	 add	 eax, 4
$LN8@operator:

; 1606 : }

  000e1	5f		 pop	 edi
  000e2	5e		 pop	 esi
  000e3	5b		 pop	 ebx
  000e4	8b e5		 mov	 esp, ebp
  000e6	5d		 pop	 ebp
  000e7	c2 04 00	 ret	 4
??A?$CMap@KKPAVCGamePropertyRelatItem@NGamePropertyListManager@@AAPAV12@@@QAEAAPAVCGamePropertyRelatItem@NGamePropertyListManager@@K@Z ENDP ; CMap<unsigned long,unsigned long,NGamePropertyListManager::CGamePropertyRelatItem *,NGamePropertyListManager::CGamePropertyRelatItem * &>::operator[]
_TEXT	ENDS
; Function compile flags: /Odtp /ZI
; File c:\program files (x86)\microsoft visual studio\2017\community\vc\tools\msvc\14.16.27023\atlmfc\include\afxtempl.h
;	COMDAT ??0?$CMap@KKPAVCGamePropertyRelatItem@NGamePropertyListManager@@AAPAV12@@@QAE@H@Z
_TEXT	SEGMENT
_this$ = -16						; size = 4
__$EHRec$ = -12						; size = 12
_nBlockSize$ = 8					; size = 4
??0?$CMap@KKPAVCGamePropertyRelatItem@NGamePropertyListManager@@AAPAV12@@@QAE@H@Z PROC ; CMap<unsigned long,unsigned long,NGamePropertyListManager::CGamePropertyRelatItem *,NGamePropertyListManager::CGamePropertyRelatItem * &>::CMap<unsigned long,unsigned long,NGamePropertyListManager::CGamePropertyRelatItem *,NGamePropertyListManager::CGamePropertyRelatItem * &>, COMDAT
; _this$ = ecx

; 1403 : {

  00000	55		 push	 ebp
  00001	8b ec		 mov	 ebp, esp
  00003	6a ff		 push	 -1
  00005	68 00 00 00 00	 push	 __ehhandler$??0?$CMap@KKPAVCGamePropertyRelatItem@NGamePropertyListManager@@AAPAV12@@@QAE@H@Z
  0000a	64 a1 00 00 00
	00		 mov	 eax, DWORD PTR fs:0
  00010	50		 push	 eax
  00011	83 ec 44	 sub	 esp, 68			; 00000044H
  00014	53		 push	 ebx
  00015	56		 push	 esi
  00016	57		 push	 edi
  00017	a1 00 00 00 00	 mov	 eax, DWORD PTR ___security_cookie
  0001c	33 c5		 xor	 eax, ebp
  0001e	50		 push	 eax
  0001f	8d 45 f4	 lea	 eax, DWORD PTR __$EHRec$[ebp]
  00022	64 a3 00 00 00
	00		 mov	 DWORD PTR fs:0, eax
  00028	89 4d f0	 mov	 DWORD PTR _this$[ebp], ecx
  0002b	8b 4d f0	 mov	 ecx, DWORD PTR _this$[ebp]
  0002e	e8 00 00 00 00	 call	 ??0CObject@@IAE@XZ	; CObject::CObject
  00033	c7 45 fc 00 00
	00 00		 mov	 DWORD PTR __$EHRec$[ebp+8], 0
  0003a	8b 45 f0	 mov	 eax, DWORD PTR _this$[ebp]
  0003d	c7 00 00 00 00
	00		 mov	 DWORD PTR [eax], OFFSET ??_7?$CMap@KKPAVCGamePropertyRelatItem@NGamePropertyListManager@@AAPAV12@@@6B@

; 1404 : 	ASSERT(nBlockSize > 0);

  00043	83 7d 08 00	 cmp	 DWORD PTR _nBlockSize$[ebp], 0
  00047	7f 14		 jg	 SHORT $LN3@CMap
  00049	68 7c 05 00 00	 push	 1404			; 0000057cH
  0004e	68 00 00 00 00	 push	 OFFSET ??_C@_0HC@HBCNBCLF@c?3?2program?5files?5?$CIx86?$CJ?2microsof@
  00053	e8 00 00 00 00	 call	 ?AfxAssertFailedLine@@YGHPBDH@Z ; AfxAssertFailedLine
  00058	85 c0		 test	 eax, eax
  0005a	74 01		 je	 SHORT $LN3@CMap
  0005c	cc		 int	 3
$LN3@CMap:

; 1405 : 
; 1406 : 	m_pHashTable = NULL;

  0005d	8b 45 f0	 mov	 eax, DWORD PTR _this$[ebp]
  00060	c7 40 04 00 00
	00 00		 mov	 DWORD PTR [eax+4], 0

; 1407 : 	m_nHashTableSize = 17;  // default size

  00067	8b 45 f0	 mov	 eax, DWORD PTR _this$[ebp]
  0006a	c7 40 08 11 00
	00 00		 mov	 DWORD PTR [eax+8], 17	; 00000011H

; 1408 : 	m_nCount = 0;

  00071	8b 45 f0	 mov	 eax, DWORD PTR _this$[ebp]
  00074	c7 40 0c 00 00
	00 00		 mov	 DWORD PTR [eax+12], 0

; 1409 : 	m_pFreeList = NULL;

  0007b	8b 45 f0	 mov	 eax, DWORD PTR _this$[ebp]
  0007e	c7 40 10 00 00
	00 00		 mov	 DWORD PTR [eax+16], 0

; 1410 : 	m_pBlocks = NULL;

  00085	8b 45 f0	 mov	 eax, DWORD PTR _this$[ebp]
  00088	c7 40 14 00 00
	00 00		 mov	 DWORD PTR [eax+20], 0

; 1411 : 	m_nBlockSize = nBlockSize;

  0008f	8b 45 f0	 mov	 eax, DWORD PTR _this$[ebp]
  00092	8b 4d 08	 mov	 ecx, DWORD PTR _nBlockSize$[ebp]
  00095	89 48 18	 mov	 DWORD PTR [eax+24], ecx

; 1412 : }

  00098	c7 45 fc ff ff
	ff ff		 mov	 DWORD PTR __$EHRec$[ebp+8], -1
  0009f	8b 45 f0	 mov	 eax, DWORD PTR _this$[ebp]
  000a2	8b 4d f4	 mov	 ecx, DWORD PTR __$EHRec$[ebp]
  000a5	64 89 0d 00 00
	00 00		 mov	 DWORD PTR fs:0, ecx
  000ac	59		 pop	 ecx
  000ad	5f		 pop	 edi
  000ae	5e		 pop	 esi
  000af	5b		 pop	 ebx
  000b0	8b e5		 mov	 esp, ebp
  000b2	5d		 pop	 ebp
  000b3	c2 04 00	 ret	 4
_TEXT	ENDS
;	COMDAT text$x
text$x	SEGMENT
__unwindfunclet$??0?$CMap@KKPAVCGamePropertyRelatItem@NGamePropertyListManager@@AAPAV12@@@QAE@H@Z$0:
  00000	8b 4d f0	 mov	 ecx, DWORD PTR _this$[ebp]
  00003	e9 00 00 00 00	 jmp	 ??1CObject@@UAE@XZ	; CObject::~CObject
__ehhandler$??0?$CMap@KKPAVCGamePropertyRelatItem@NGamePropertyListManager@@AAPAV12@@@QAE@H@Z:
  00008	8b 54 24 08	 mov	 edx, DWORD PTR [esp+8]
  0000c	8d 42 0c	 lea	 eax, DWORD PTR [edx+12]
  0000f	8b 4a ac	 mov	 ecx, DWORD PTR [edx-84]
  00012	33 c8		 xor	 ecx, eax
  00014	e8 00 00 00 00	 call	 @__security_check_cookie@4
  00019	b8 00 00 00 00	 mov	 eax, OFFSET __ehfuncinfo$??0?$CMap@KKPAVCGamePropertyRelatItem@NGamePropertyListManager@@AAPAV12@@@QAE@H@Z
  0001e	e9 00 00 00 00	 jmp	 ___CxxFrameHandler3
text$x	ENDS
??0?$CMap@KKPAVCGamePropertyRelatItem@NGamePropertyListManager@@AAPAV12@@@QAE@H@Z ENDP ; CMap<unsigned long,unsigned long,NGamePropertyListManager::CGamePropertyRelatItem *,NGamePropertyListManager::CGamePropertyRelatItem * &>::CMap<unsigned long,unsigned long,NGamePropertyListManager::CGamePropertyRelatItem *,NGamePropertyListManager::CGamePropertyRelatItem * &>
; Function compile flags: /Odtp /ZI
;	COMDAT ??_G?$CMap@KKPAVCGamePropertyTypeItem@NGamePropertyListManager@@AAPAV12@@@UAEPAXI@Z
_TEXT	SEGMENT
_this$ = -4						; size = 4
___flags$ = 8						; size = 4
??_G?$CMap@KKPAVCGamePropertyTypeItem@NGamePropertyListManager@@AAPAV12@@@UAEPAXI@Z PROC ; CMap<unsigned long,unsigned long,NGamePropertyListManager::CGamePropertyTypeItem *,NGamePropertyListManager::CGamePropertyTypeItem * &>::`scalar deleting destructor', COMDAT
; _this$ = ecx
  00000	55		 push	 ebp
  00001	8b ec		 mov	 ebp, esp
  00003	83 ec 44	 sub	 esp, 68			; 00000044H
  00006	53		 push	 ebx
  00007	56		 push	 esi
  00008	57		 push	 edi
  00009	89 4d fc	 mov	 DWORD PTR _this$[ebp], ecx
  0000c	8b 4d fc	 mov	 ecx, DWORD PTR _this$[ebp]
  0000f	e8 00 00 00 00	 call	 ??1?$CMap@KKPAVCGamePropertyTypeItem@NGamePropertyListManager@@AAPAV12@@@UAE@XZ ; CMap<unsigned long,unsigned long,NGamePropertyListManager::CGamePropertyTypeItem *,NGamePropertyListManager::CGamePropertyTypeItem * &>::~CMap<unsigned long,unsigned long,NGamePropertyListManager::CGamePropertyTypeItem *,NGamePropertyListManager::CGamePropertyTypeItem * &>
  00014	8b 45 08	 mov	 eax, DWORD PTR ___flags$[ebp]
  00017	83 e0 01	 and	 eax, 1
  0001a	74 21		 je	 SHORT $LN2@scalar
  0001c	8b 45 08	 mov	 eax, DWORD PTR ___flags$[ebp]
  0001f	83 e0 04	 and	 eax, 4
  00022	75 0b		 jne	 SHORT $LN3@scalar
  00024	8b 45 fc	 mov	 eax, DWORD PTR _this$[ebp]
  00027	50		 push	 eax
  00028	e8 00 00 00 00	 call	 ??3CObject@@SGXPAX@Z	; CObject::operator delete
  0002d	eb 0e		 jmp	 SHORT $LN2@scalar
$LN3@scalar:
  0002f	6a 1c		 push	 28			; 0000001cH
  00031	8b 45 fc	 mov	 eax, DWORD PTR _this$[ebp]
  00034	50		 push	 eax
  00035	e8 00 00 00 00	 call	 ?__global_delete@@YAXPAXI@Z ; __global_delete
  0003a	83 c4 08	 add	 esp, 8
$LN2@scalar:
  0003d	8b 45 fc	 mov	 eax, DWORD PTR _this$[ebp]
  00040	5f		 pop	 edi
  00041	5e		 pop	 esi
  00042	5b		 pop	 ebx
  00043	8b e5		 mov	 esp, ebp
  00045	5d		 pop	 ebp
  00046	c2 04 00	 ret	 4
??_G?$CMap@KKPAVCGamePropertyTypeItem@NGamePropertyListManager@@AAPAV12@@@UAEPAXI@Z ENDP ; CMap<unsigned long,unsigned long,NGamePropertyListManager::CGamePropertyTypeItem *,NGamePropertyListManager::CGamePropertyTypeItem * &>::`scalar deleting destructor'
_TEXT	ENDS
; Function compile flags: /Odtp /ZI
; File c:\program files (x86)\microsoft visual studio\2017\community\vc\tools\msvc\14.16.27023\atlmfc\include\afxtempl.h
;	COMDAT ?AssertValid@?$CMap@KKPAVCGamePropertyTypeItem@NGamePropertyListManager@@AAPAV12@@@UBEXXZ
_TEXT	SEGMENT
_this$ = -4						; size = 4
?AssertValid@?$CMap@KKPAVCGamePropertyTypeItem@NGamePropertyListManager@@AAPAV12@@@UBEXXZ PROC ; CMap<unsigned long,unsigned long,NGamePropertyListManager::CGamePropertyTypeItem *,NGamePropertyListManager::CGamePropertyTypeItem * &>::AssertValid, COMDAT
; _this$ = ecx

; 1820 : {

  00000	55		 push	 ebp
  00001	8b ec		 mov	 ebp, esp
  00003	83 ec 44	 sub	 esp, 68			; 00000044H
  00006	53		 push	 ebx
  00007	56		 push	 esi
  00008	57		 push	 edi
  00009	89 4d fc	 mov	 DWORD PTR _this$[ebp], ecx

; 1821 : 	CObject::AssertValid();

  0000c	8b 4d fc	 mov	 ecx, DWORD PTR _this$[ebp]
  0000f	e8 00 00 00 00	 call	 ?AssertValid@CObject@@UBEXXZ ; CObject::AssertValid

; 1822 : 
; 1823 : 	ASSERT(m_nHashTableSize > 0);

  00014	8b 45 fc	 mov	 eax, DWORD PTR _this$[ebp]
  00017	83 78 08 00	 cmp	 DWORD PTR [eax+8], 0
  0001b	77 14		 ja	 SHORT $LN3@AssertVali
  0001d	68 1f 07 00 00	 push	 1823			; 0000071fH
  00022	68 00 00 00 00	 push	 OFFSET ??_C@_0HC@HBCNBCLF@c?3?2program?5files?5?$CIx86?$CJ?2microsof@
  00027	e8 00 00 00 00	 call	 ?AfxAssertFailedLine@@YGHPBDH@Z ; AfxAssertFailedLine
  0002c	85 c0		 test	 eax, eax
  0002e	74 01		 je	 SHORT $LN3@AssertVali
  00030	cc		 int	 3
$LN3@AssertVali:

; 1824 : 	ASSERT(m_nCount == 0 || m_pHashTable != NULL);

  00031	8b 45 fc	 mov	 eax, DWORD PTR _this$[ebp]
  00034	83 78 0c 00	 cmp	 DWORD PTR [eax+12], 0
  00038	74 1d		 je	 SHORT $LN1@AssertVali
  0003a	8b 4d fc	 mov	 ecx, DWORD PTR _this$[ebp]
  0003d	83 79 04 00	 cmp	 DWORD PTR [ecx+4], 0
  00041	75 14		 jne	 SHORT $LN1@AssertVali
  00043	68 20 07 00 00	 push	 1824			; 00000720H
  00048	68 00 00 00 00	 push	 OFFSET ??_C@_0HC@HBCNBCLF@c?3?2program?5files?5?$CIx86?$CJ?2microsof@
  0004d	e8 00 00 00 00	 call	 ?AfxAssertFailedLine@@YGHPBDH@Z ; AfxAssertFailedLine
  00052	85 c0		 test	 eax, eax
  00054	74 01		 je	 SHORT $LN1@AssertVali
  00056	cc		 int	 3
$LN1@AssertVali:

; 1825 : 		// non-empty map should have hash table
; 1826 : }

  00057	5f		 pop	 edi
  00058	5e		 pop	 esi
  00059	5b		 pop	 ebx
  0005a	8b e5		 mov	 esp, ebp
  0005c	5d		 pop	 ebp
  0005d	c3		 ret	 0
?AssertValid@?$CMap@KKPAVCGamePropertyTypeItem@NGamePropertyListManager@@AAPAV12@@@UBEXXZ ENDP ; CMap<unsigned long,unsigned long,NGamePropertyListManager::CGamePropertyTypeItem *,NGamePropertyListManager::CGamePropertyTypeItem * &>::AssertValid
_TEXT	ENDS
; Function compile flags: /Odtp /ZI
; File c:\program files (x86)\microsoft visual studio\2017\community\vc\tools\msvc\14.16.27023\atlmfc\include\afxtempl.h
;	COMDAT ?Dump@?$CMap@KKPAVCGamePropertyTypeItem@NGamePropertyListManager@@AAPAV12@@@UBEXAAVCDumpContext@@@Z
_TEXT	SEGMENT
_pos$1 = -16						; size = 4
_val$2 = -12						; size = 4
_key$3 = -8						; size = 4
_this$ = -4						; size = 4
_dc$ = 8						; size = 4
?Dump@?$CMap@KKPAVCGamePropertyTypeItem@NGamePropertyListManager@@AAPAV12@@@UBEXAAVCDumpContext@@@Z PROC ; CMap<unsigned long,unsigned long,NGamePropertyListManager::CGamePropertyTypeItem *,NGamePropertyListManager::CGamePropertyTypeItem * &>::Dump, COMDAT
; _this$ = ecx

; 1794 : {

  00000	55		 push	 ebp
  00001	8b ec		 mov	 ebp, esp
  00003	83 ec 50	 sub	 esp, 80			; 00000050H
  00006	53		 push	 ebx
  00007	56		 push	 esi
  00008	57		 push	 edi
  00009	89 4d fc	 mov	 DWORD PTR _this$[ebp], ecx

; 1795 : 	CObject::Dump(dc);

  0000c	8b 45 08	 mov	 eax, DWORD PTR _dc$[ebp]
  0000f	50		 push	 eax
  00010	8b 4d fc	 mov	 ecx, DWORD PTR _this$[ebp]
  00013	e8 00 00 00 00	 call	 ?Dump@CObject@@UBEXAAVCDumpContext@@@Z ; CObject::Dump

; 1796 : 
; 1797 : 	dc << "with " << m_nCount << " elements";

  00018	68 00 00 00 00	 push	 OFFSET ??_C@_09HCLNAIDE@?5elements@
  0001d	8b 45 fc	 mov	 eax, DWORD PTR _this$[ebp]
  00020	8b 48 0c	 mov	 ecx, DWORD PTR [eax+12]
  00023	51		 push	 ecx
  00024	68 00 00 00 00	 push	 OFFSET ??_C@_05PLCFPPOI@with?5@
  00029	8b 4d 08	 mov	 ecx, DWORD PTR _dc$[ebp]
  0002c	e8 00 00 00 00	 call	 ??6CDumpContext@@QAEAAV0@PBD@Z ; CDumpContext::operator<<
  00031	8b c8		 mov	 ecx, eax
  00033	e8 00 00 00 00	 call	 ??6CDumpContext@@QAEAAV0@H@Z ; CDumpContext::operator<<
  00038	8b c8		 mov	 ecx, eax
  0003a	e8 00 00 00 00	 call	 ??6CDumpContext@@QAEAAV0@PBD@Z ; CDumpContext::operator<<

; 1798 : 	if (dc.GetDepth() > 0)

  0003f	8b 4d 08	 mov	 ecx, DWORD PTR _dc$[ebp]
  00042	e8 00 00 00 00	 call	 ?GetDepth@CDumpContext@@QBEHXZ ; CDumpContext::GetDepth
  00047	85 c0		 test	 eax, eax
  00049	7e 71		 jle	 SHORT $LN4@Dump

; 1799 : 	{
; 1800 : 		// Dump in format "[key] -> value"
; 1801 : 		KEY key[1];
; 1802 : 		VALUE val[1];
; 1803 : 
; 1804 : 		POSITION pos = GetStartPosition();

  0004b	8b 4d fc	 mov	 ecx, DWORD PTR _this$[ebp]
  0004e	e8 00 00 00 00	 call	 ?GetStartPosition@?$CMap@KKPAVCGamePropertyTypeItem@NGamePropertyListManager@@AAPAV12@@@QBEPAU__POSITION@@XZ ; CMap<unsigned long,unsigned long,NGamePropertyListManager::CGamePropertyTypeItem *,NGamePropertyListManager::CGamePropertyTypeItem * &>::GetStartPosition
  00053	89 45 f0	 mov	 DWORD PTR _pos$1[ebp], eax
$LN2@Dump:

; 1805 : 		while (pos != NULL)

  00056	83 7d f0 00	 cmp	 DWORD PTR _pos$1[ebp], 0
  0005a	74 60		 je	 SHORT $LN4@Dump

; 1806 : 		{
; 1807 : 			GetNextAssoc(pos, key[0], val[0]);

  0005c	b8 04 00 00 00	 mov	 eax, 4
  00061	6b c8 00	 imul	 ecx, eax, 0
  00064	8d 54 0d f4	 lea	 edx, DWORD PTR _val$2[ebp+ecx]
  00068	52		 push	 edx
  00069	b8 04 00 00 00	 mov	 eax, 4
  0006e	6b c8 00	 imul	 ecx, eax, 0
  00071	8d 54 0d f8	 lea	 edx, DWORD PTR _key$3[ebp+ecx]
  00075	52		 push	 edx
  00076	8d 45 f0	 lea	 eax, DWORD PTR _pos$1[ebp]
  00079	50		 push	 eax
  0007a	8b 4d fc	 mov	 ecx, DWORD PTR _this$[ebp]
  0007d	e8 00 00 00 00	 call	 ?GetNextAssoc@?$CMap@KKPAVCGamePropertyTypeItem@NGamePropertyListManager@@AAPAV12@@@QBEXAAPAU__POSITION@@AAKAAPAVCGamePropertyTypeItem@NGamePropertyListManager@@@Z ; CMap<unsigned long,unsigned long,NGamePropertyListManager::CGamePropertyTypeItem *,NGamePropertyListManager::CGamePropertyTypeItem * &>::GetNextAssoc

; 1808 : 			dc << "\n\t[";

  00082	68 00 00 00 00	 push	 OFFSET ??_C@_03OHJIHPJH@?6?7?$FL@
  00087	8b 4d 08	 mov	 ecx, DWORD PTR _dc$[ebp]
  0008a	e8 00 00 00 00	 call	 ??6CDumpContext@@QAEAAV0@PBD@Z ; CDumpContext::operator<<

; 1809 : 			DumpElements<KEY>(dc, key, 1);

  0008f	6a 01		 push	 1
  00091	8d 45 f8	 lea	 eax, DWORD PTR _key$3[ebp]
  00094	50		 push	 eax
  00095	8b 4d 08	 mov	 ecx, DWORD PTR _dc$[ebp]
  00098	51		 push	 ecx
  00099	e8 00 00 00 00	 call	 ??$DumpElements@K@@YGXAAVCDumpContext@@PBKH@Z ; DumpElements<unsigned long>

; 1810 : 			dc << "] = ";

  0009e	68 00 00 00 00	 push	 OFFSET ??_C@_04OAFLPOMH@?$FN?5?$DN?5@
  000a3	8b 4d 08	 mov	 ecx, DWORD PTR _dc$[ebp]
  000a6	e8 00 00 00 00	 call	 ??6CDumpContext@@QAEAAV0@PBD@Z ; CDumpContext::operator<<

; 1811 : 			DumpElements<VALUE>(dc, val, 1);

  000ab	6a 01		 push	 1
  000ad	8d 45 f4	 lea	 eax, DWORD PTR _val$2[ebp]
  000b0	50		 push	 eax
  000b1	8b 4d 08	 mov	 ecx, DWORD PTR _dc$[ebp]
  000b4	51		 push	 ecx
  000b5	e8 00 00 00 00	 call	 ??$DumpElements@PAVCGamePropertyTypeItem@NGamePropertyListManager@@@@YGXAAVCDumpContext@@PBQAVCGamePropertyTypeItem@NGamePropertyListManager@@H@Z ; DumpElements<NGamePropertyListManager::CGamePropertyTypeItem *>

; 1812 : 		}

  000ba	eb 9a		 jmp	 SHORT $LN2@Dump
$LN4@Dump:

; 1813 : 	}
; 1814 : 
; 1815 : 	dc << "\n";

  000bc	68 00 00 00 00	 push	 OFFSET ??_C@_01EEMJAFIK@?6@
  000c1	8b 4d 08	 mov	 ecx, DWORD PTR _dc$[ebp]
  000c4	e8 00 00 00 00	 call	 ??6CDumpContext@@QAEAAV0@PBD@Z ; CDumpContext::operator<<

; 1816 : }

  000c9	5f		 pop	 edi
  000ca	5e		 pop	 esi
  000cb	5b		 pop	 ebx
  000cc	8b e5		 mov	 esp, ebp
  000ce	5d		 pop	 ebp
  000cf	c2 04 00	 ret	 4
?Dump@?$CMap@KKPAVCGamePropertyTypeItem@NGamePropertyListManager@@AAPAV12@@@UBEXAAVCDumpContext@@@Z ENDP ; CMap<unsigned long,unsigned long,NGamePropertyListManager::CGamePropertyTypeItem *,NGamePropertyListManager::CGamePropertyTypeItem * &>::Dump
_TEXT	ENDS
; Function compile flags: /Odtp /ZI
; File c:\program files (x86)\microsoft visual studio\2017\community\vc\tools\msvc\14.16.27023\atlmfc\include\afxtempl.h
;	COMDAT ?Serialize@?$CMap@KKPAVCGamePropertyTypeItem@NGamePropertyListManager@@AAPAV12@@@UAEXAAVCArchive@@@Z
_TEXT	SEGMENT
tv154 = -100						; size = 4
_newValue$1 = -32					; size = 4
_newKey$2 = -28						; size = 4
_nNewCount$3 = -24					; size = 4
_pValue$4 = -20						; size = 4
_pKey$5 = -16						; size = 4
_pAssoc$6 = -12						; size = 4
_nHash$7 = -8						; size = 4
_this$ = -4						; size = 4
_ar$ = 8						; size = 4
?Serialize@?$CMap@KKPAVCGamePropertyTypeItem@NGamePropertyListManager@@AAPAV12@@@UAEXAAVCArchive@@@Z PROC ; CMap<unsigned long,unsigned long,NGamePropertyListManager::CGamePropertyTypeItem *,NGamePropertyListManager::CGamePropertyTypeItem * &>::Serialize, COMDAT
; _this$ = ecx

; 1743 : {

  00000	55		 push	 ebp
  00001	8b ec		 mov	 ebp, esp
  00003	83 ec 64	 sub	 esp, 100		; 00000064H
  00006	53		 push	 ebx
  00007	56		 push	 esi
  00008	57		 push	 edi
  00009	89 4d fc	 mov	 DWORD PTR _this$[ebp], ecx

; 1744 : 	ASSERT_VALID(this);

  0000c	68 d0 06 00 00	 push	 1744			; 000006d0H
  00011	68 00 00 00 00	 push	 OFFSET ??_C@_0HC@HBCNBCLF@c?3?2program?5files?5?$CIx86?$CJ?2microsof@
  00016	8b 45 fc	 mov	 eax, DWORD PTR _this$[ebp]
  00019	50		 push	 eax
  0001a	e8 00 00 00 00	 call	 ?AfxAssertValidObject@@YGXPBVCObject@@PBDH@Z ; AfxAssertValidObject

; 1745 : 
; 1746 : 	CObject::Serialize(ar);

  0001f	8b 45 08	 mov	 eax, DWORD PTR _ar$[ebp]
  00022	50		 push	 eax
  00023	8b 4d fc	 mov	 ecx, DWORD PTR _this$[ebp]
  00026	e8 00 00 00 00	 call	 ?Serialize@CObject@@UAEXAAVCArchive@@@Z ; CObject::Serialize

; 1747 : 
; 1748 : 	if (ar.IsStoring())

  0002b	8b 4d 08	 mov	 ecx, DWORD PTR _ar$[ebp]
  0002e	e8 00 00 00 00	 call	 ?IsStoring@CArchive@@QBEHXZ ; CArchive::IsStoring
  00033	85 c0		 test	 eax, eax
  00035	0f 84 b3 00 00
	00		 je	 $LN10@Serialize

; 1749 : 	{
; 1750 : 		ar.WriteCount(m_nCount);

  0003b	8b 45 fc	 mov	 eax, DWORD PTR _this$[ebp]
  0003e	8b 48 0c	 mov	 ecx, DWORD PTR [eax+12]
  00041	51		 push	 ecx
  00042	8b 4d 08	 mov	 ecx, DWORD PTR _ar$[ebp]
  00045	e8 00 00 00 00	 call	 ?WriteCount@CArchive@@QAEXK@Z ; CArchive::WriteCount

; 1751 : 		if (m_nCount == 0)

  0004a	8b 45 fc	 mov	 eax, DWORD PTR _this$[ebp]
  0004d	83 78 0c 00	 cmp	 DWORD PTR [eax+12], 0
  00051	75 05		 jne	 SHORT $LN12@Serialize

; 1752 : 			return;  // nothing more to do

  00053	e9 f8 00 00 00	 jmp	 $LN1@Serialize
$LN12@Serialize:

; 1753 : 
; 1754 : 		ASSERT(m_pHashTable != NULL);

  00058	8b 45 fc	 mov	 eax, DWORD PTR _this$[ebp]
  0005b	83 78 04 00	 cmp	 DWORD PTR [eax+4], 0
  0005f	75 14		 jne	 SHORT $LN15@Serialize
  00061	68 da 06 00 00	 push	 1754			; 000006daH
  00066	68 00 00 00 00	 push	 OFFSET ??_C@_0HC@HBCNBCLF@c?3?2program?5files?5?$CIx86?$CJ?2microsof@
  0006b	e8 00 00 00 00	 call	 ?AfxAssertFailedLine@@YGHPBDH@Z ; AfxAssertFailedLine
  00070	85 c0		 test	 eax, eax
  00072	74 01		 je	 SHORT $LN15@Serialize
  00074	cc		 int	 3
$LN15@Serialize:

; 1755 : 		if (m_pHashTable != NULL)

  00075	8b 45 fc	 mov	 eax, DWORD PTR _this$[ebp]
  00078	83 78 04 00	 cmp	 DWORD PTR [eax+4], 0
  0007c	74 6e		 je	 SHORT $LN13@Serialize

; 1756 : 		{
; 1757 : 			for (UINT nHash = 0; nHash < m_nHashTableSize; nHash++)

  0007e	c7 45 f8 00 00
	00 00		 mov	 DWORD PTR _nHash$7[ebp], 0
  00085	eb 09		 jmp	 SHORT $LN4@Serialize
$LN2@Serialize:
  00087	8b 45 f8	 mov	 eax, DWORD PTR _nHash$7[ebp]
  0008a	83 c0 01	 add	 eax, 1
  0008d	89 45 f8	 mov	 DWORD PTR _nHash$7[ebp], eax
$LN4@Serialize:
  00090	8b 45 fc	 mov	 eax, DWORD PTR _this$[ebp]
  00093	8b 4d f8	 mov	 ecx, DWORD PTR _nHash$7[ebp]
  00096	3b 48 08	 cmp	 ecx, DWORD PTR [eax+8]
  00099	73 51		 jae	 SHORT $LN13@Serialize

; 1758 : 			{
; 1759 : 				CAssoc* pAssoc;
; 1760 : 				for (pAssoc = m_pHashTable[nHash]; pAssoc != NULL; pAssoc = pAssoc->pNext)

  0009b	8b 45 fc	 mov	 eax, DWORD PTR _this$[ebp]
  0009e	8b 48 04	 mov	 ecx, DWORD PTR [eax+4]
  000a1	8b 55 f8	 mov	 edx, DWORD PTR _nHash$7[ebp]
  000a4	8b 04 91	 mov	 eax, DWORD PTR [ecx+edx*4]
  000a7	89 45 f4	 mov	 DWORD PTR _pAssoc$6[ebp], eax
  000aa	eb 09		 jmp	 SHORT $LN7@Serialize
$LN5@Serialize:
  000ac	8b 45 f4	 mov	 eax, DWORD PTR _pAssoc$6[ebp]
  000af	8b 48 08	 mov	 ecx, DWORD PTR [eax+8]
  000b2	89 4d f4	 mov	 DWORD PTR _pAssoc$6[ebp], ecx
$LN7@Serialize:
  000b5	83 7d f4 00	 cmp	 DWORD PTR _pAssoc$6[ebp], 0
  000b9	74 2f		 je	 SHORT $LN6@Serialize

; 1761 : 				{
; 1762 : 					KEY* pKey;
; 1763 : 					VALUE* pValue;
; 1764 : 					/*
; 1765 : 					* in some cases the & operator might be overloaded, and we cannot use it to
; 1766 : 					* obtain the address of a given object.  We then use the following trick to
; 1767 : 					* get the address
; 1768 : 					*/
; 1769 : 					pKey = reinterpret_cast< KEY* >( &reinterpret_cast< int& >( const_cast< KEY& > ( static_cast< const KEY& >( pAssoc->key ) ) ) );

  000bb	8b 45 f4	 mov	 eax, DWORD PTR _pAssoc$6[ebp]
  000be	89 45 f0	 mov	 DWORD PTR _pKey$5[ebp], eax

; 1770 : 					pValue = reinterpret_cast< VALUE* >( &reinterpret_cast< int& >( static_cast< VALUE& >( pAssoc->value ) ) );

  000c1	8b 45 f4	 mov	 eax, DWORD PTR _pAssoc$6[ebp]
  000c4	83 c0 04	 add	 eax, 4
  000c7	89 45 ec	 mov	 DWORD PTR _pValue$4[ebp], eax

; 1771 : 					SerializeElements<KEY>(ar, pKey, 1);

  000ca	6a 01		 push	 1
  000cc	8b 45 f0	 mov	 eax, DWORD PTR _pKey$5[ebp]
  000cf	50		 push	 eax
  000d0	8b 4d 08	 mov	 ecx, DWORD PTR _ar$[ebp]
  000d3	51		 push	 ecx
  000d4	e8 00 00 00 00	 call	 ??$SerializeElements@K@@YGXAAVCArchive@@PAKH@Z ; SerializeElements<unsigned long>

; 1772 : 					SerializeElements<VALUE>(ar, pValue, 1);

  000d9	6a 01		 push	 1
  000db	8b 45 ec	 mov	 eax, DWORD PTR _pValue$4[ebp]
  000de	50		 push	 eax
  000df	8b 4d 08	 mov	 ecx, DWORD PTR _ar$[ebp]
  000e2	51		 push	 ecx
  000e3	e8 00 00 00 00	 call	 ??$SerializeElements@PAVCGamePropertyTypeItem@NGamePropertyListManager@@@@YGXAAVCArchive@@PAPAVCGamePropertyTypeItem@NGamePropertyListManager@@H@Z ; SerializeElements<NGamePropertyListManager::CGamePropertyTypeItem *>

; 1773 : 				}

  000e8	eb c2		 jmp	 SHORT $LN5@Serialize
$LN6@Serialize:

; 1774 : 			}

  000ea	eb 9b		 jmp	 SHORT $LN2@Serialize
$LN13@Serialize:

; 1775 : 		}
; 1776 : 	}
; 1777 : 	else

  000ec	eb 62		 jmp	 SHORT $LN1@Serialize
$LN10@Serialize:

; 1778 : 	{
; 1779 : 		DWORD_PTR nNewCount = ar.ReadCount();

  000ee	8b 4d 08	 mov	 ecx, DWORD PTR _ar$[ebp]
  000f1	e8 00 00 00 00	 call	 ?ReadCount@CArchive@@QAEKXZ ; CArchive::ReadCount
  000f6	89 45 e8	 mov	 DWORD PTR _nNewCount$3[ebp], eax
$LN8@Serialize:

; 1780 : 		while (nNewCount--)

  000f9	8b 45 e8	 mov	 eax, DWORD PTR _nNewCount$3[ebp]
  000fc	89 45 9c	 mov	 DWORD PTR tv154[ebp], eax
  000ff	8b 4d e8	 mov	 ecx, DWORD PTR _nNewCount$3[ebp]
  00102	83 e9 01	 sub	 ecx, 1
  00105	89 4d e8	 mov	 DWORD PTR _nNewCount$3[ebp], ecx
  00108	83 7d 9c 00	 cmp	 DWORD PTR tv154[ebp], 0
  0010c	74 42		 je	 SHORT $LN1@Serialize

; 1781 : 		{
; 1782 : 			KEY newKey[1];
; 1783 : 			VALUE newValue[1];
; 1784 : 			SerializeElements<KEY>(ar, newKey, 1);

  0010e	6a 01		 push	 1
  00110	8d 45 e4	 lea	 eax, DWORD PTR _newKey$2[ebp]
  00113	50		 push	 eax
  00114	8b 4d 08	 mov	 ecx, DWORD PTR _ar$[ebp]
  00117	51		 push	 ecx
  00118	e8 00 00 00 00	 call	 ??$SerializeElements@K@@YGXAAVCArchive@@PAKH@Z ; SerializeElements<unsigned long>

; 1785 : 			SerializeElements<VALUE>(ar, newValue, 1);

  0011d	6a 01		 push	 1
  0011f	8d 45 e0	 lea	 eax, DWORD PTR _newValue$1[ebp]
  00122	50		 push	 eax
  00123	8b 4d 08	 mov	 ecx, DWORD PTR _ar$[ebp]
  00126	51		 push	 ecx
  00127	e8 00 00 00 00	 call	 ??$SerializeElements@PAVCGamePropertyTypeItem@NGamePropertyListManager@@@@YGXAAVCArchive@@PAPAVCGamePropertyTypeItem@NGamePropertyListManager@@H@Z ; SerializeElements<NGamePropertyListManager::CGamePropertyTypeItem *>

; 1786 : 			SetAt(newKey[0], newValue[0]);

  0012c	b8 04 00 00 00	 mov	 eax, 4
  00131	6b c8 00	 imul	 ecx, eax, 0
  00134	8d 54 0d e0	 lea	 edx, DWORD PTR _newValue$1[ebp+ecx]
  00138	52		 push	 edx
  00139	b8 04 00 00 00	 mov	 eax, 4
  0013e	6b c8 00	 imul	 ecx, eax, 0
  00141	8b 54 0d e4	 mov	 edx, DWORD PTR _newKey$2[ebp+ecx]
  00145	52		 push	 edx
  00146	8b 4d fc	 mov	 ecx, DWORD PTR _this$[ebp]
  00149	e8 00 00 00 00	 call	 ?SetAt@?$CMap@KKPAVCGamePropertyTypeItem@NGamePropertyListManager@@AAPAV12@@@QAEXKAAPAVCGamePropertyTypeItem@NGamePropertyListManager@@@Z ; CMap<unsigned long,unsigned long,NGamePropertyListManager::CGamePropertyTypeItem *,NGamePropertyListManager::CGamePropertyTypeItem * &>::SetAt

; 1787 : 		}

  0014e	eb a9		 jmp	 SHORT $LN8@Serialize
$LN1@Serialize:

; 1788 : 	}
; 1789 : }

  00150	5f		 pop	 edi
  00151	5e		 pop	 esi
  00152	5b		 pop	 ebx
  00153	8b e5		 mov	 esp, ebp
  00155	5d		 pop	 ebp
  00156	c2 04 00	 ret	 4
?Serialize@?$CMap@KKPAVCGamePropertyTypeItem@NGamePropertyListManager@@AAPAV12@@@UAEXAAVCArchive@@@Z ENDP ; CMap<unsigned long,unsigned long,NGamePropertyListManager::CGamePropertyTypeItem *,NGamePropertyListManager::CGamePropertyTypeItem * &>::Serialize
_TEXT	ENDS
; Function compile flags: /Odtp /ZI
; File c:\program files (x86)\microsoft visual studio\2017\community\vc\tools\msvc\14.16.27023\atlmfc\include\afxtempl.h
;	COMDAT ??1?$CMap@KKPAVCGamePropertyTypeItem@NGamePropertyListManager@@AAPAV12@@@UAE@XZ
_TEXT	SEGMENT
_this$ = -16						; size = 4
__$EHRec$ = -12						; size = 12
??1?$CMap@KKPAVCGamePropertyTypeItem@NGamePropertyListManager@@AAPAV12@@@UAE@XZ PROC ; CMap<unsigned long,unsigned long,NGamePropertyListManager::CGamePropertyTypeItem *,NGamePropertyListManager::CGamePropertyTypeItem * &>::~CMap<unsigned long,unsigned long,NGamePropertyListManager::CGamePropertyTypeItem *,NGamePropertyListManager::CGamePropertyTypeItem * &>, COMDAT
; _this$ = ecx

; 1472 : {

  00000	55		 push	 ebp
  00001	8b ec		 mov	 ebp, esp
  00003	6a ff		 push	 -1
  00005	68 00 00 00 00	 push	 __ehhandler$??1?$CMap@KKPAVCGamePropertyTypeItem@NGamePropertyListManager@@AAPAV12@@@UAE@XZ
  0000a	64 a1 00 00 00
	00		 mov	 eax, DWORD PTR fs:0
  00010	50		 push	 eax
  00011	83 ec 44	 sub	 esp, 68			; 00000044H
  00014	53		 push	 ebx
  00015	56		 push	 esi
  00016	57		 push	 edi
  00017	a1 00 00 00 00	 mov	 eax, DWORD PTR ___security_cookie
  0001c	33 c5		 xor	 eax, ebp
  0001e	50		 push	 eax
  0001f	8d 45 f4	 lea	 eax, DWORD PTR __$EHRec$[ebp]
  00022	64 a3 00 00 00
	00		 mov	 DWORD PTR fs:0, eax
  00028	89 4d f0	 mov	 DWORD PTR _this$[ebp], ecx
  0002b	8b 45 f0	 mov	 eax, DWORD PTR _this$[ebp]
  0002e	c7 00 00 00 00
	00		 mov	 DWORD PTR [eax], OFFSET ??_7?$CMap@KKPAVCGamePropertyTypeItem@NGamePropertyListManager@@AAPAV12@@@6B@

; 1473 : 	RemoveAll();

  00034	8b 4d f0	 mov	 ecx, DWORD PTR _this$[ebp]
  00037	e8 00 00 00 00	 call	 ?RemoveAll@?$CMap@KKPAVCGamePropertyTypeItem@NGamePropertyListManager@@AAPAV12@@@QAEXXZ ; CMap<unsigned long,unsigned long,NGamePropertyListManager::CGamePropertyTypeItem *,NGamePropertyListManager::CGamePropertyTypeItem * &>::RemoveAll

; 1474 : 	ASSERT(m_nCount == 0);

  0003c	8b 45 f0	 mov	 eax, DWORD PTR _this$[ebp]
  0003f	83 78 0c 00	 cmp	 DWORD PTR [eax+12], 0
  00043	74 14		 je	 SHORT $LN1@CMap
  00045	68 c2 05 00 00	 push	 1474			; 000005c2H
  0004a	68 00 00 00 00	 push	 OFFSET ??_C@_0HC@HBCNBCLF@c?3?2program?5files?5?$CIx86?$CJ?2microsof@
  0004f	e8 00 00 00 00	 call	 ?AfxAssertFailedLine@@YGHPBDH@Z ; AfxAssertFailedLine
  00054	85 c0		 test	 eax, eax
  00056	74 01		 je	 SHORT $LN1@CMap
  00058	cc		 int	 3
$LN1@CMap:

; 1475 : }

  00059	8b 4d f0	 mov	 ecx, DWORD PTR _this$[ebp]
  0005c	e8 00 00 00 00	 call	 ??1CObject@@UAE@XZ	; CObject::~CObject
  00061	8b 4d f4	 mov	 ecx, DWORD PTR __$EHRec$[ebp]
  00064	64 89 0d 00 00
	00 00		 mov	 DWORD PTR fs:0, ecx
  0006b	59		 pop	 ecx
  0006c	5f		 pop	 edi
  0006d	5e		 pop	 esi
  0006e	5b		 pop	 ebx
  0006f	8b e5		 mov	 esp, ebp
  00071	5d		 pop	 ebp
  00072	c3		 ret	 0
_TEXT	ENDS
;	COMDAT text$x
text$x	SEGMENT
__ehhandler$??1?$CMap@KKPAVCGamePropertyTypeItem@NGamePropertyListManager@@AAPAV12@@@UAE@XZ:
  00000	8b 54 24 08	 mov	 edx, DWORD PTR [esp+8]
  00004	8d 42 0c	 lea	 eax, DWORD PTR [edx+12]
  00007	8b 4a ac	 mov	 ecx, DWORD PTR [edx-84]
  0000a	33 c8		 xor	 ecx, eax
  0000c	e8 00 00 00 00	 call	 @__security_check_cookie@4
  00011	b8 00 00 00 00	 mov	 eax, OFFSET __ehfuncinfo$??1?$CMap@KKPAVCGamePropertyTypeItem@NGamePropertyListManager@@AAPAV12@@@UAE@XZ
  00016	e9 00 00 00 00	 jmp	 ___CxxFrameHandler3
text$x	ENDS
??1?$CMap@KKPAVCGamePropertyTypeItem@NGamePropertyListManager@@AAPAV12@@@UAE@XZ ENDP ; CMap<unsigned long,unsigned long,NGamePropertyListManager::CGamePropertyTypeItem *,NGamePropertyListManager::CGamePropertyTypeItem * &>::~CMap<unsigned long,unsigned long,NGamePropertyListManager::CGamePropertyTypeItem *,NGamePropertyListManager::CGamePropertyTypeItem * &>
; Function compile flags: /Odtp /ZI
; File c:\program files (x86)\microsoft visual studio\2017\community\vc\tools\msvc\14.16.27023\atlmfc\include\afxtempl.h
;	COMDAT ?GetAssocAt@?$CMap@KKPAVCGamePropertyTypeItem@NGamePropertyListManager@@AAPAV12@@@IBEPAVCAssoc@1@KAAI0@Z
_TEXT	SEGMENT
_pAssoc$ = -8						; size = 4
_this$ = -4						; size = 4
_key$ = 8						; size = 4
_nHashBucket$ = 12					; size = 4
_nHashValue$ = 16					; size = 4
?GetAssocAt@?$CMap@KKPAVCGamePropertyTypeItem@NGamePropertyListManager@@AAPAV12@@@IBEPAVCAssoc@1@KAAI0@Z PROC ; CMap<unsigned long,unsigned long,NGamePropertyListManager::CGamePropertyTypeItem *,NGamePropertyListManager::CGamePropertyTypeItem * &>::GetAssocAt, COMDAT
; _this$ = ecx

; 1532 : {

  00000	55		 push	 ebp
  00001	8b ec		 mov	 ebp, esp
  00003	83 ec 48	 sub	 esp, 72			; 00000048H
  00006	53		 push	 ebx
  00007	56		 push	 esi
  00008	57		 push	 edi
  00009	89 4d fc	 mov	 DWORD PTR _this$[ebp], ecx

; 1533 : 	nHashValue = HashKey<ARG_KEY>(key);

  0000c	8b 45 08	 mov	 eax, DWORD PTR _key$[ebp]
  0000f	50		 push	 eax
  00010	e8 00 00 00 00	 call	 ??$HashKey@K@@YGIK@Z	; HashKey<unsigned long>
  00015	8b 4d 10	 mov	 ecx, DWORD PTR _nHashValue$[ebp]
  00018	89 01		 mov	 DWORD PTR [ecx], eax

; 1534 : 	nHashBucket = nHashValue % m_nHashTableSize;

  0001a	8b 45 10	 mov	 eax, DWORD PTR _nHashValue$[ebp]
  0001d	8b 4d fc	 mov	 ecx, DWORD PTR _this$[ebp]
  00020	8b 00		 mov	 eax, DWORD PTR [eax]
  00022	33 d2		 xor	 edx, edx
  00024	f7 71 08	 div	 DWORD PTR [ecx+8]
  00027	8b 45 0c	 mov	 eax, DWORD PTR _nHashBucket$[ebp]
  0002a	89 10		 mov	 DWORD PTR [eax], edx

; 1535 : 
; 1536 : 	if (m_pHashTable == NULL)

  0002c	8b 45 fc	 mov	 eax, DWORD PTR _this$[ebp]
  0002f	83 78 04 00	 cmp	 DWORD PTR [eax+4], 0
  00033	75 04		 jne	 SHORT $LN5@GetAssocAt

; 1537 : 		return NULL;

  00035	33 c0		 xor	 eax, eax
  00037	eb 49		 jmp	 SHORT $LN1@GetAssocAt
$LN5@GetAssocAt:

; 1538 : 
; 1539 : 	// see if it exists
; 1540 : 	CAssoc* pAssoc;
; 1541 : 	for (pAssoc = m_pHashTable[nHashBucket]; pAssoc != NULL; pAssoc = pAssoc->pNext)

  00039	8b 45 0c	 mov	 eax, DWORD PTR _nHashBucket$[ebp]
  0003c	8b 08		 mov	 ecx, DWORD PTR [eax]
  0003e	8b 55 fc	 mov	 edx, DWORD PTR _this$[ebp]
  00041	8b 42 04	 mov	 eax, DWORD PTR [edx+4]
  00044	8b 0c 88	 mov	 ecx, DWORD PTR [eax+ecx*4]
  00047	89 4d f8	 mov	 DWORD PTR _pAssoc$[ebp], ecx
  0004a	eb 09		 jmp	 SHORT $LN4@GetAssocAt
$LN2@GetAssocAt:
  0004c	8b 45 f8	 mov	 eax, DWORD PTR _pAssoc$[ebp]
  0004f	8b 48 08	 mov	 ecx, DWORD PTR [eax+8]
  00052	89 4d f8	 mov	 DWORD PTR _pAssoc$[ebp], ecx
$LN4@GetAssocAt:
  00055	83 7d f8 00	 cmp	 DWORD PTR _pAssoc$[ebp], 0
  00059	74 25		 je	 SHORT $LN3@GetAssocAt

; 1542 : 	{
; 1543 : 		if (pAssoc->nHashValue == nHashValue && CompareElements(&pAssoc->key, &key))

  0005b	8b 45 f8	 mov	 eax, DWORD PTR _pAssoc$[ebp]
  0005e	8b 4d 10	 mov	 ecx, DWORD PTR _nHashValue$[ebp]
  00061	8b 50 0c	 mov	 edx, DWORD PTR [eax+12]
  00064	3b 11		 cmp	 edx, DWORD PTR [ecx]
  00066	75 16		 jne	 SHORT $LN6@GetAssocAt
  00068	8d 45 08	 lea	 eax, DWORD PTR _key$[ebp]
  0006b	50		 push	 eax
  0006c	8b 4d f8	 mov	 ecx, DWORD PTR _pAssoc$[ebp]
  0006f	51		 push	 ecx
  00070	e8 00 00 00 00	 call	 ??$CompareElements@KK@@YGHPBK0@Z ; CompareElements<unsigned long,unsigned long>
  00075	85 c0		 test	 eax, eax
  00077	74 05		 je	 SHORT $LN6@GetAssocAt

; 1544 : 			return pAssoc;

  00079	8b 45 f8	 mov	 eax, DWORD PTR _pAssoc$[ebp]
  0007c	eb 04		 jmp	 SHORT $LN1@GetAssocAt
$LN6@GetAssocAt:

; 1545 : 	}

  0007e	eb cc		 jmp	 SHORT $LN2@GetAssocAt
$LN3@GetAssocAt:

; 1546 : 	return NULL;

  00080	33 c0		 xor	 eax, eax
$LN1@GetAssocAt:

; 1547 : }

  00082	5f		 pop	 edi
  00083	5e		 pop	 esi
  00084	5b		 pop	 ebx
  00085	8b e5		 mov	 esp, ebp
  00087	5d		 pop	 ebp
  00088	c2 0c 00	 ret	 12			; 0000000cH
?GetAssocAt@?$CMap@KKPAVCGamePropertyTypeItem@NGamePropertyListManager@@AAPAV12@@@IBEPAVCAssoc@1@KAAI0@Z ENDP ; CMap<unsigned long,unsigned long,NGamePropertyListManager::CGamePropertyTypeItem *,NGamePropertyListManager::CGamePropertyTypeItem * &>::GetAssocAt
_TEXT	ENDS
; Function compile flags: /Odtp /ZI
; File c:\program files (x86)\microsoft visual studio\2017\community\vc\tools\msvc\14.16.27023\atlmfc\include\afxtempl.h
;	COMDAT ?FreeAssoc@?$CMap@KKPAVCGamePropertyTypeItem@NGamePropertyListManager@@AAPAV12@@@IAEXPAVCAssoc@1@@Z
_TEXT	SEGMENT
_this$ = -4						; size = 4
_pAssoc$ = 8						; size = 4
?FreeAssoc@?$CMap@KKPAVCGamePropertyTypeItem@NGamePropertyListManager@@AAPAV12@@@IAEXPAVCAssoc@1@@Z PROC ; CMap<unsigned long,unsigned long,NGamePropertyListManager::CGamePropertyTypeItem *,NGamePropertyListManager::CGamePropertyTypeItem * &>::FreeAssoc, COMDAT
; _this$ = ecx

; 1516 : {

  00000	55		 push	 ebp
  00001	8b ec		 mov	 ebp, esp
  00003	83 ec 44	 sub	 esp, 68			; 00000044H
  00006	53		 push	 ebx
  00007	56		 push	 esi
  00008	57		 push	 edi
  00009	89 4d fc	 mov	 DWORD PTR _this$[ebp], ecx

; 1517 : 	pAssoc->CAssoc::~CAssoc();
; 1518 : 	pAssoc->pNext = m_pFreeList;

  0000c	8b 45 08	 mov	 eax, DWORD PTR _pAssoc$[ebp]
  0000f	8b 4d fc	 mov	 ecx, DWORD PTR _this$[ebp]
  00012	8b 51 10	 mov	 edx, DWORD PTR [ecx+16]
  00015	89 50 08	 mov	 DWORD PTR [eax+8], edx

; 1519 : 	m_pFreeList = pAssoc;

  00018	8b 45 fc	 mov	 eax, DWORD PTR _this$[ebp]
  0001b	8b 4d 08	 mov	 ecx, DWORD PTR _pAssoc$[ebp]
  0001e	89 48 10	 mov	 DWORD PTR [eax+16], ecx

; 1520 : 	m_nCount--;

  00021	8b 45 fc	 mov	 eax, DWORD PTR _this$[ebp]
  00024	8b 48 0c	 mov	 ecx, DWORD PTR [eax+12]
  00027	83 e9 01	 sub	 ecx, 1
  0002a	8b 55 fc	 mov	 edx, DWORD PTR _this$[ebp]
  0002d	89 4a 0c	 mov	 DWORD PTR [edx+12], ecx

; 1521 : 	ASSERT(m_nCount >= 0);  // make sure we don't underflow

  00030	8b 45 fc	 mov	 eax, DWORD PTR _this$[ebp]
  00033	83 78 0c 00	 cmp	 DWORD PTR [eax+12], 0
  00037	7d 14		 jge	 SHORT $LN4@FreeAssoc
  00039	68 f1 05 00 00	 push	 1521			; 000005f1H
  0003e	68 00 00 00 00	 push	 OFFSET ??_C@_0HC@HBCNBCLF@c?3?2program?5files?5?$CIx86?$CJ?2microsof@
  00043	e8 00 00 00 00	 call	 ?AfxAssertFailedLine@@YGHPBDH@Z ; AfxAssertFailedLine
  00048	85 c0		 test	 eax, eax
  0004a	74 01		 je	 SHORT $LN4@FreeAssoc
  0004c	cc		 int	 3
$LN4@FreeAssoc:

; 1522 : 
; 1523 : 	// if no more elements, cleanup completely
; 1524 : 	if (m_nCount == 0)

  0004d	8b 45 fc	 mov	 eax, DWORD PTR _this$[ebp]
  00050	83 78 0c 00	 cmp	 DWORD PTR [eax+12], 0
  00054	75 08		 jne	 SHORT $LN1@FreeAssoc

; 1525 : 		RemoveAll();

  00056	8b 4d fc	 mov	 ecx, DWORD PTR _this$[ebp]
  00059	e8 00 00 00 00	 call	 ?RemoveAll@?$CMap@KKPAVCGamePropertyTypeItem@NGamePropertyListManager@@AAPAV12@@@QAEXXZ ; CMap<unsigned long,unsigned long,NGamePropertyListManager::CGamePropertyTypeItem *,NGamePropertyListManager::CGamePropertyTypeItem * &>::RemoveAll
$LN1@FreeAssoc:

; 1526 : }

  0005e	5f		 pop	 edi
  0005f	5e		 pop	 esi
  00060	5b		 pop	 ebx
  00061	8b e5		 mov	 esp, ebp
  00063	5d		 pop	 ebp
  00064	c2 04 00	 ret	 4
?FreeAssoc@?$CMap@KKPAVCGamePropertyTypeItem@NGamePropertyListManager@@AAPAV12@@@IAEXPAVCAssoc@1@@Z ENDP ; CMap<unsigned long,unsigned long,NGamePropertyListManager::CGamePropertyTypeItem *,NGamePropertyListManager::CGamePropertyTypeItem * &>::FreeAssoc
_TEXT	ENDS
; Function compile flags: /Odtp /ZI
; File c:\program files (x86)\microsoft visual studio\2017\community\vc\tools\msvc\14.16.27023\atlmfc\include\afxtempl.h
;	COMDAT ?NewAssoc@?$CMap@KKPAVCGamePropertyTypeItem@NGamePropertyListManager@@AAPAV12@@@IAEPAVCAssoc@1@K@Z
_TEXT	SEGMENT
tv88 = -100						; size = 4
$T1 = -96						; size = 4
_pTemp$ = -28						; size = 4
_pAssoc$ = -24						; size = 4
___afx_condVal$2 = -20					; size = 4
_i$3 = -16						; size = 4
_pAssoc$4 = -12						; size = 4
_newBlock$5 = -8					; size = 4
_this$ = -4						; size = 4
_key$ = 8						; size = 4
?NewAssoc@?$CMap@KKPAVCGamePropertyTypeItem@NGamePropertyListManager@@AAPAV12@@@IAEPAVCAssoc@1@K@Z PROC ; CMap<unsigned long,unsigned long,NGamePropertyListManager::CGamePropertyTypeItem *,NGamePropertyListManager::CGamePropertyTypeItem * &>::NewAssoc, COMDAT
; _this$ = ecx

; 1480 : {

  00000	55		 push	 ebp
  00001	8b ec		 mov	 ebp, esp
  00003	83 ec 64	 sub	 esp, 100		; 00000064H
  00006	53		 push	 ebx
  00007	56		 push	 esi
  00008	57		 push	 edi
  00009	89 4d fc	 mov	 DWORD PTR _this$[ebp], ecx

; 1481 : 	if (m_pFreeList == NULL)

  0000c	8b 45 fc	 mov	 eax, DWORD PTR _this$[ebp]
  0000f	83 78 10 00	 cmp	 DWORD PTR [eax+16], 0
  00013	75 72		 jne	 SHORT $LN7@NewAssoc

; 1482 : 	{
; 1483 : 		// add another block
; 1484 : 		CPlex* newBlock = CPlex::Create(m_pBlocks, m_nBlockSize, sizeof(CMap::CAssoc));

  00015	6a 10		 push	 16			; 00000010H
  00017	8b 45 fc	 mov	 eax, DWORD PTR _this$[ebp]
  0001a	8b 48 18	 mov	 ecx, DWORD PTR [eax+24]
  0001d	51		 push	 ecx
  0001e	8b 55 fc	 mov	 edx, DWORD PTR _this$[ebp]
  00021	83 c2 14	 add	 edx, 20			; 00000014H
  00024	52		 push	 edx
  00025	e8 00 00 00 00	 call	 ?Create@CPlex@@SGPAU1@AAPAU1@II@Z ; CPlex::Create
  0002a	89 45 f8	 mov	 DWORD PTR _newBlock$5[ebp], eax

; 1485 : 		// chain them into free list
; 1486 : 		CMap::CAssoc* pAssoc = (CMap::CAssoc*) newBlock->data();

  0002d	8b 4d f8	 mov	 ecx, DWORD PTR _newBlock$5[ebp]
  00030	e8 00 00 00 00	 call	 ?data@CPlex@@QAEPAXXZ	; CPlex::data
  00035	89 45 f4	 mov	 DWORD PTR _pAssoc$4[ebp], eax

; 1487 : 		// free in reverse order to make it easier to debug
; 1488 : 		pAssoc += m_nBlockSize - 1;

  00038	8b 45 fc	 mov	 eax, DWORD PTR _this$[ebp]
  0003b	8b 48 18	 mov	 ecx, DWORD PTR [eax+24]
  0003e	83 e9 01	 sub	 ecx, 1
  00041	c1 e1 04	 shl	 ecx, 4
  00044	03 4d f4	 add	 ecx, DWORD PTR _pAssoc$4[ebp]
  00047	89 4d f4	 mov	 DWORD PTR _pAssoc$4[ebp], ecx

; 1489 : 		for (INT_PTR i = m_nBlockSize-1; i >= 0; i--, pAssoc--)

  0004a	8b 45 fc	 mov	 eax, DWORD PTR _this$[ebp]
  0004d	8b 48 18	 mov	 ecx, DWORD PTR [eax+24]
  00050	83 e9 01	 sub	 ecx, 1
  00053	89 4d f0	 mov	 DWORD PTR _i$3[ebp], ecx
  00056	eb 12		 jmp	 SHORT $LN4@NewAssoc
$LN2@NewAssoc:
  00058	8b 45 f0	 mov	 eax, DWORD PTR _i$3[ebp]
  0005b	83 e8 01	 sub	 eax, 1
  0005e	89 45 f0	 mov	 DWORD PTR _i$3[ebp], eax
  00061	8b 4d f4	 mov	 ecx, DWORD PTR _pAssoc$4[ebp]
  00064	83 e9 10	 sub	 ecx, 16			; 00000010H
  00067	89 4d f4	 mov	 DWORD PTR _pAssoc$4[ebp], ecx
$LN4@NewAssoc:
  0006a	83 7d f0 00	 cmp	 DWORD PTR _i$3[ebp], 0
  0006e	7c 17		 jl	 SHORT $LN7@NewAssoc

; 1490 : 		{
; 1491 : 			pAssoc->pNext = m_pFreeList;

  00070	8b 45 f4	 mov	 eax, DWORD PTR _pAssoc$4[ebp]
  00073	8b 4d fc	 mov	 ecx, DWORD PTR _this$[ebp]
  00076	8b 51 10	 mov	 edx, DWORD PTR [ecx+16]
  00079	89 50 08	 mov	 DWORD PTR [eax+8], edx

; 1492 : 			m_pFreeList = pAssoc;

  0007c	8b 45 fc	 mov	 eax, DWORD PTR _this$[ebp]
  0007f	8b 4d f4	 mov	 ecx, DWORD PTR _pAssoc$4[ebp]
  00082	89 48 10	 mov	 DWORD PTR [eax+16], ecx

; 1493 : 		}

  00085	eb d1		 jmp	 SHORT $LN2@NewAssoc
$LN7@NewAssoc:

; 1494 : 	}
; 1495 : 	ENSURE(m_pFreeList != NULL);  // we must have something

  00087	8b 45 fc	 mov	 eax, DWORD PTR _this$[ebp]
  0008a	83 78 10 00	 cmp	 DWORD PTR [eax+16], 0
  0008e	74 09		 je	 SHORT $LN11@NewAssoc
  00090	c7 45 9c 01 00
	00 00		 mov	 DWORD PTR tv88[ebp], 1
  00097	eb 07		 jmp	 SHORT $LN12@NewAssoc
$LN11@NewAssoc:
  00099	c7 45 9c 00 00
	00 00		 mov	 DWORD PTR tv88[ebp], 0
$LN12@NewAssoc:
  000a0	8b 4d 9c	 mov	 ecx, DWORD PTR tv88[ebp]
  000a3	89 4d ec	 mov	 DWORD PTR ___afx_condVal$2[ebp], ecx
  000a6	83 7d ec 00	 cmp	 DWORD PTR ___afx_condVal$2[ebp], 0
  000aa	75 14		 jne	 SHORT $LN13@NewAssoc
  000ac	68 d7 05 00 00	 push	 1495			; 000005d7H
  000b1	68 00 00 00 00	 push	 OFFSET ??_C@_0HC@HBCNBCLF@c?3?2program?5files?5?$CIx86?$CJ?2microsof@
  000b6	e8 00 00 00 00	 call	 ?AfxAssertFailedLine@@YGHPBDH@Z ; AfxAssertFailedLine
  000bb	85 c0		 test	 eax, eax
  000bd	74 01		 je	 SHORT $LN13@NewAssoc
  000bf	cc		 int	 3
$LN13@NewAssoc:
  000c0	83 7d ec 00	 cmp	 DWORD PTR ___afx_condVal$2[ebp], 0
  000c4	75 05		 jne	 SHORT $LN5@NewAssoc
  000c6	e8 00 00 00 00	 call	 ?AfxThrowInvalidArgException@@YGXXZ ; AfxThrowInvalidArgException
$LN5@NewAssoc:
  000cb	33 c0		 xor	 eax, eax
  000cd	75 b8		 jne	 SHORT $LN7@NewAssoc

; 1496 : 
; 1497 : 	CMap::CAssoc* pAssoc = m_pFreeList;

  000cf	8b 45 fc	 mov	 eax, DWORD PTR _this$[ebp]
  000d2	8b 48 10	 mov	 ecx, DWORD PTR [eax+16]
  000d5	89 4d e8	 mov	 DWORD PTR _pAssoc$[ebp], ecx

; 1498 : 
; 1499 : 	// zero the memory
; 1500 : 	CMap::CAssoc* pTemp = pAssoc->pNext;

  000d8	8b 45 e8	 mov	 eax, DWORD PTR _pAssoc$[ebp]
  000db	8b 48 08	 mov	 ecx, DWORD PTR [eax+8]
  000de	89 4d e4	 mov	 DWORD PTR _pTemp$[ebp], ecx

; 1501 : 	memset( pAssoc, 0, sizeof(CMap::CAssoc) );

  000e1	6a 10		 push	 16			; 00000010H
  000e3	6a 00		 push	 0
  000e5	8b 45 e8	 mov	 eax, DWORD PTR _pAssoc$[ebp]
  000e8	50		 push	 eax
  000e9	e8 00 00 00 00	 call	 _memset
  000ee	83 c4 0c	 add	 esp, 12			; 0000000cH

; 1502 : 	pAssoc->pNext = pTemp;

  000f1	8b 45 e8	 mov	 eax, DWORD PTR _pAssoc$[ebp]
  000f4	8b 4d e4	 mov	 ecx, DWORD PTR _pTemp$[ebp]
  000f7	89 48 08	 mov	 DWORD PTR [eax+8], ecx

; 1503 : 
; 1504 : 	m_pFreeList = m_pFreeList->pNext;

  000fa	8b 45 fc	 mov	 eax, DWORD PTR _this$[ebp]
  000fd	8b 48 10	 mov	 ecx, DWORD PTR [eax+16]
  00100	8b 55 fc	 mov	 edx, DWORD PTR _this$[ebp]
  00103	8b 41 08	 mov	 eax, DWORD PTR [ecx+8]
  00106	89 42 10	 mov	 DWORD PTR [edx+16], eax

; 1505 : 	m_nCount++;

  00109	8b 45 fc	 mov	 eax, DWORD PTR _this$[ebp]
  0010c	8b 48 0c	 mov	 ecx, DWORD PTR [eax+12]
  0010f	83 c1 01	 add	 ecx, 1
  00112	8b 55 fc	 mov	 edx, DWORD PTR _this$[ebp]
  00115	89 4a 0c	 mov	 DWORD PTR [edx+12], ecx

; 1506 : 	ASSERT(m_nCount > 0);  // make sure we don't overflow

  00118	8b 45 fc	 mov	 eax, DWORD PTR _this$[ebp]
  0011b	83 78 0c 00	 cmp	 DWORD PTR [eax+12], 0
  0011f	7f 14		 jg	 SHORT $LN14@NewAssoc
  00121	68 e2 05 00 00	 push	 1506			; 000005e2H
  00126	68 00 00 00 00	 push	 OFFSET ??_C@_0HC@HBCNBCLF@c?3?2program?5files?5?$CIx86?$CJ?2microsof@
  0012b	e8 00 00 00 00	 call	 ?AfxAssertFailedLine@@YGHPBDH@Z ; AfxAssertFailedLine
  00130	85 c0		 test	 eax, eax
  00132	74 01		 je	 SHORT $LN14@NewAssoc
  00134	cc		 int	 3
$LN14@NewAssoc:

; 1507 : #pragma push_macro("new")
; 1508 : #undef new
; 1509 : 	::new(pAssoc) CMap::CAssoc(key);

  00135	8b 45 e8	 mov	 eax, DWORD PTR _pAssoc$[ebp]
  00138	50		 push	 eax
  00139	6a 10		 push	 16			; 00000010H
  0013b	e8 00 00 00 00	 call	 ??2@YAPAXIPAX@Z		; operator new
  00140	83 c4 08	 add	 esp, 8
  00143	89 45 a0	 mov	 DWORD PTR $T1[ebp], eax
  00146	8b 4d 08	 mov	 ecx, DWORD PTR _key$[ebp]
  00149	51		 push	 ecx
  0014a	8b 4d a0	 mov	 ecx, DWORD PTR $T1[ebp]
  0014d	e8 00 00 00 00	 call	 ??0CAssoc@?$CMap@KKPAVCGamePropertyTypeItem@NGamePropertyListManager@@AAPAV12@@@QAE@K@Z ; CMap<unsigned long,unsigned long,NGamePropertyListManager::CGamePropertyTypeItem *,NGamePropertyListManager::CGamePropertyTypeItem * &>::CAssoc::CAssoc

; 1510 : #pragma pop_macro("new")
; 1511 : 	return pAssoc;

  00152	8b 45 e8	 mov	 eax, DWORD PTR _pAssoc$[ebp]
$LN10@NewAssoc:

; 1512 : }

  00155	5f		 pop	 edi
  00156	5e		 pop	 esi
  00157	5b		 pop	 ebx
  00158	8b e5		 mov	 esp, ebp
  0015a	5d		 pop	 ebp
  0015b	c2 04 00	 ret	 4
?NewAssoc@?$CMap@KKPAVCGamePropertyTypeItem@NGamePropertyListManager@@AAPAV12@@@IAEPAVCAssoc@1@K@Z ENDP ; CMap<unsigned long,unsigned long,NGamePropertyListManager::CGamePropertyTypeItem *,NGamePropertyListManager::CGamePropertyTypeItem * &>::NewAssoc
_TEXT	ENDS
; Function compile flags: /Odtp /ZI
; File c:\program files (x86)\microsoft visual studio\2017\community\vc\tools\msvc\14.16.27023\atlmfc\include\afxtempl.h
;	COMDAT ?InitHashTable@?$CMap@KKPAVCGamePropertyTypeItem@NGamePropertyListManager@@AAPAV12@@@QAEXIH@Z
_TEXT	SEGMENT
tv137 = -84						; size = 4
$T1 = -80						; size = 4
$T2 = -76						; size = 4
___afx_condVal$3 = -8					; size = 4
_this$ = -4						; size = 4
_nHashSize$ = 8						; size = 4
_bAllocNow$ = 12					; size = 4
?InitHashTable@?$CMap@KKPAVCGamePropertyTypeItem@NGamePropertyListManager@@AAPAV12@@@QAEXIH@Z PROC ; CMap<unsigned long,unsigned long,NGamePropertyListManager::CGamePropertyTypeItem *,NGamePropertyListManager::CGamePropertyTypeItem * &>::InitHashTable, COMDAT
; _this$ = ecx

; 1420 : {

  00000	55		 push	 ebp
  00001	8b ec		 mov	 ebp, esp
  00003	83 ec 54	 sub	 esp, 84			; 00000054H
  00006	53		 push	 ebx
  00007	56		 push	 esi
  00008	57		 push	 edi
  00009	89 4d fc	 mov	 DWORD PTR _this$[ebp], ecx

; 1421 : 	ASSERT_VALID(this);

  0000c	68 8d 05 00 00	 push	 1421			; 0000058dH
  00011	68 00 00 00 00	 push	 OFFSET ??_C@_0HC@HBCNBCLF@c?3?2program?5files?5?$CIx86?$CJ?2microsof@
  00016	8b 45 fc	 mov	 eax, DWORD PTR _this$[ebp]
  00019	50		 push	 eax
  0001a	e8 00 00 00 00	 call	 ?AfxAssertValidObject@@YGXPBVCObject@@PBDH@Z ; AfxAssertValidObject

; 1422 : 	ASSERT(m_nCount == 0);

  0001f	8b 45 fc	 mov	 eax, DWORD PTR _this$[ebp]
  00022	83 78 0c 00	 cmp	 DWORD PTR [eax+12], 0
  00026	74 14		 je	 SHORT $LN9@InitHashTa
  00028	68 8e 05 00 00	 push	 1422			; 0000058eH
  0002d	68 00 00 00 00	 push	 OFFSET ??_C@_0HC@HBCNBCLF@c?3?2program?5files?5?$CIx86?$CJ?2microsof@
  00032	e8 00 00 00 00	 call	 ?AfxAssertFailedLine@@YGHPBDH@Z ; AfxAssertFailedLine
  00037	85 c0		 test	 eax, eax
  00039	74 01		 je	 SHORT $LN9@InitHashTa
  0003b	cc		 int	 3
$LN9@InitHashTa:

; 1423 : 	ASSERT(nHashSize > 0);

  0003c	83 7d 08 00	 cmp	 DWORD PTR _nHashSize$[ebp], 0
  00040	77 14		 ja	 SHORT $LN10@InitHashTa
  00042	68 8f 05 00 00	 push	 1423			; 0000058fH
  00047	68 00 00 00 00	 push	 OFFSET ??_C@_0HC@HBCNBCLF@c?3?2program?5files?5?$CIx86?$CJ?2microsof@
  0004c	e8 00 00 00 00	 call	 ?AfxAssertFailedLine@@YGHPBDH@Z ; AfxAssertFailedLine
  00051	85 c0		 test	 eax, eax
  00053	74 01		 je	 SHORT $LN10@InitHashTa
  00055	cc		 int	 3
$LN10@InitHashTa:

; 1424 : 
; 1425 : 	if (m_pHashTable != NULL)

  00056	8b 45 fc	 mov	 eax, DWORD PTR _this$[ebp]
  00059	83 78 04 00	 cmp	 DWORD PTR [eax+4], 0
  0005d	74 1f		 je	 SHORT $LN5@InitHashTa

; 1426 : 	{
; 1427 : 		// free hash table
; 1428 : 		delete[] m_pHashTable;

  0005f	8b 45 fc	 mov	 eax, DWORD PTR _this$[ebp]
  00062	8b 48 04	 mov	 ecx, DWORD PTR [eax+4]
  00065	89 4d b4	 mov	 DWORD PTR $T2[ebp], ecx
  00068	8b 55 b4	 mov	 edx, DWORD PTR $T2[ebp]
  0006b	52		 push	 edx
  0006c	e8 00 00 00 00	 call	 ??_V@YAXPAX@Z		; operator delete[]
  00071	83 c4 04	 add	 esp, 4

; 1429 : 		m_pHashTable = NULL;

  00074	8b 45 fc	 mov	 eax, DWORD PTR _this$[ebp]
  00077	c7 40 04 00 00
	00 00		 mov	 DWORD PTR [eax+4], 0
$LN5@InitHashTa:

; 1430 : 	}
; 1431 : 
; 1432 : 	if (bAllocNow)

  0007e	83 7d 0c 00	 cmp	 DWORD PTR _bAllocNow$[ebp], 0
  00082	0f 84 92 00 00
	00		 je	 $LN6@InitHashTa

; 1433 : 	{
; 1434 : 		m_pHashTable = new CAssoc* [nHashSize];

  00088	68 9a 05 00 00	 push	 1434			; 0000059aH
  0008d	68 00 00 00 00	 push	 OFFSET ??_C@_0HC@HBCNBCLF@c?3?2program?5files?5?$CIx86?$CJ?2microsof@
  00092	33 c9		 xor	 ecx, ecx
  00094	8b 45 08	 mov	 eax, DWORD PTR _nHashSize$[ebp]
  00097	ba 04 00 00 00	 mov	 edx, 4
  0009c	f7 e2		 mul	 edx
  0009e	0f 90 c1	 seto	 cl
  000a1	f7 d9		 neg	 ecx
  000a3	0b c8		 or	 ecx, eax
  000a5	51		 push	 ecx
  000a6	e8 00 00 00 00	 call	 ??_U@YAPAXIPBDH@Z	; operator new[]
  000ab	83 c4 0c	 add	 esp, 12			; 0000000cH
  000ae	89 45 b0	 mov	 DWORD PTR $T1[ebp], eax
  000b1	8b 45 fc	 mov	 eax, DWORD PTR _this$[ebp]
  000b4	8b 4d b0	 mov	 ecx, DWORD PTR $T1[ebp]
  000b7	89 48 04	 mov	 DWORD PTR [eax+4], ecx
$LN4@InitHashTa:

; 1435 : 		ENSURE(m_pHashTable != NULL);

  000ba	8b 45 fc	 mov	 eax, DWORD PTR _this$[ebp]
  000bd	83 78 04 00	 cmp	 DWORD PTR [eax+4], 0
  000c1	74 09		 je	 SHORT $LN11@InitHashTa
  000c3	c7 45 ac 01 00
	00 00		 mov	 DWORD PTR tv137[ebp], 1
  000ca	eb 07		 jmp	 SHORT $LN12@InitHashTa
$LN11@InitHashTa:
  000cc	c7 45 ac 00 00
	00 00		 mov	 DWORD PTR tv137[ebp], 0
$LN12@InitHashTa:
  000d3	8b 4d ac	 mov	 ecx, DWORD PTR tv137[ebp]
  000d6	89 4d f8	 mov	 DWORD PTR ___afx_condVal$3[ebp], ecx
  000d9	83 7d f8 00	 cmp	 DWORD PTR ___afx_condVal$3[ebp], 0
  000dd	75 14		 jne	 SHORT $LN13@InitHashTa
  000df	68 9b 05 00 00	 push	 1435			; 0000059bH
  000e4	68 00 00 00 00	 push	 OFFSET ??_C@_0HC@HBCNBCLF@c?3?2program?5files?5?$CIx86?$CJ?2microsof@
  000e9	e8 00 00 00 00	 call	 ?AfxAssertFailedLine@@YGHPBDH@Z ; AfxAssertFailedLine
  000ee	85 c0		 test	 eax, eax
  000f0	74 01		 je	 SHORT $LN13@InitHashTa
  000f2	cc		 int	 3
$LN13@InitHashTa:
  000f3	83 7d f8 00	 cmp	 DWORD PTR ___afx_condVal$3[ebp], 0
  000f7	75 05		 jne	 SHORT $LN2@InitHashTa
  000f9	e8 00 00 00 00	 call	 ?AfxThrowInvalidArgException@@YGXXZ ; AfxThrowInvalidArgException
$LN2@InitHashTa:
  000fe	33 c0		 xor	 eax, eax
  00100	75 b8		 jne	 SHORT $LN4@InitHashTa

; 1436 : 		memset(m_pHashTable, 0, sizeof(CAssoc*) * nHashSize);

  00102	8b 45 08	 mov	 eax, DWORD PTR _nHashSize$[ebp]
  00105	c1 e0 02	 shl	 eax, 2
  00108	50		 push	 eax
  00109	6a 00		 push	 0
  0010b	8b 4d fc	 mov	 ecx, DWORD PTR _this$[ebp]
  0010e	8b 51 04	 mov	 edx, DWORD PTR [ecx+4]
  00111	52		 push	 edx
  00112	e8 00 00 00 00	 call	 _memset
  00117	83 c4 0c	 add	 esp, 12			; 0000000cH
$LN6@InitHashTa:

; 1437 : 	}
; 1438 : 	m_nHashTableSize = nHashSize;

  0011a	8b 45 fc	 mov	 eax, DWORD PTR _this$[ebp]
  0011d	8b 4d 08	 mov	 ecx, DWORD PTR _nHashSize$[ebp]
  00120	89 48 08	 mov	 DWORD PTR [eax+8], ecx
$LN8@InitHashTa:

; 1439 : }

  00123	5f		 pop	 edi
  00124	5e		 pop	 esi
  00125	5b		 pop	 ebx
  00126	8b e5		 mov	 esp, ebp
  00128	5d		 pop	 ebp
  00129	c2 08 00	 ret	 8
?InitHashTable@?$CMap@KKPAVCGamePropertyTypeItem@NGamePropertyListManager@@AAPAV12@@@QAEXIH@Z ENDP ; CMap<unsigned long,unsigned long,NGamePropertyListManager::CGamePropertyTypeItem *,NGamePropertyListManager::CGamePropertyTypeItem * &>::InitHashTable
_TEXT	ENDS
; Function compile flags: /Odtp /ZI
; File c:\program files (x86)\microsoft visual studio\2017\community\vc\tools\msvc\14.16.27023\atlmfc\include\afxtempl.h
;	COMDAT ?GetNextAssoc@?$CMap@KKPAVCGamePropertyTypeItem@NGamePropertyListManager@@AAPAV12@@@QBEXAAPAU__POSITION@@AAKAAPAVCGamePropertyTypeItem@NGamePropertyListManager@@@Z
_TEXT	SEGMENT
tv133 = -100						; size = 4
tv83 = -100						; size = 4
tv73 = -100						; size = 4
_nBucket$1 = -32					; size = 4
_pAssocNext$ = -28					; size = 4
___afx_condVal$2 = -24					; size = 4
_nBucket$3 = -20					; size = 4
___afx_condVal$4 = -16					; size = 4
_pAssocRet$ = -12					; size = 4
___afx_condVal$5 = -8					; size = 4
_this$ = -4						; size = 4
_rNextPosition$ = 8					; size = 4
_rKey$ = 12						; size = 4
_rValue$ = 16						; size = 4
?GetNextAssoc@?$CMap@KKPAVCGamePropertyTypeItem@NGamePropertyListManager@@AAPAV12@@@QBEXAAPAU__POSITION@@AAKAAPAVCGamePropertyTypeItem@NGamePropertyListManager@@@Z PROC ; CMap<unsigned long,unsigned long,NGamePropertyListManager::CGamePropertyTypeItem *,NGamePropertyListManager::CGamePropertyTypeItem * &>::GetNextAssoc, COMDAT
; _this$ = ecx

; 1640 : {

  00000	55		 push	 ebp
  00001	8b ec		 mov	 ebp, esp
  00003	83 ec 64	 sub	 esp, 100		; 00000064H
  00006	53		 push	 ebx
  00007	56		 push	 esi
  00008	57		 push	 edi
  00009	89 4d fc	 mov	 DWORD PTR _this$[ebp], ecx

; 1641 : 	ASSERT_VALID(this);

  0000c	68 69 06 00 00	 push	 1641			; 00000669H
  00011	68 00 00 00 00	 push	 OFFSET ??_C@_0HC@HBCNBCLF@c?3?2program?5files?5?$CIx86?$CJ?2microsof@
  00016	8b 45 fc	 mov	 eax, DWORD PTR _this$[ebp]
  00019	50		 push	 eax
  0001a	e8 00 00 00 00	 call	 ?AfxAssertValidObject@@YGXPBVCObject@@PBDH@Z ; AfxAssertValidObject
$LN4@GetNextAss:

; 1642 : 	ENSURE(m_pHashTable != NULL);  // never call on empty map

  0001f	8b 45 fc	 mov	 eax, DWORD PTR _this$[ebp]
  00022	83 78 04 00	 cmp	 DWORD PTR [eax+4], 0
  00026	74 09		 je	 SHORT $LN25@GetNextAss
  00028	c7 45 9c 01 00
	00 00		 mov	 DWORD PTR tv73[ebp], 1
  0002f	eb 07		 jmp	 SHORT $LN26@GetNextAss
$LN25@GetNextAss:
  00031	c7 45 9c 00 00
	00 00		 mov	 DWORD PTR tv73[ebp], 0
$LN26@GetNextAss:
  00038	8b 4d 9c	 mov	 ecx, DWORD PTR tv73[ebp]
  0003b	89 4d f8	 mov	 DWORD PTR ___afx_condVal$5[ebp], ecx
  0003e	83 7d f8 00	 cmp	 DWORD PTR ___afx_condVal$5[ebp], 0
  00042	75 14		 jne	 SHORT $LN27@GetNextAss
  00044	68 6a 06 00 00	 push	 1642			; 0000066aH
  00049	68 00 00 00 00	 push	 OFFSET ??_C@_0HC@HBCNBCLF@c?3?2program?5files?5?$CIx86?$CJ?2microsof@
  0004e	e8 00 00 00 00	 call	 ?AfxAssertFailedLine@@YGHPBDH@Z ; AfxAssertFailedLine
  00053	85 c0		 test	 eax, eax
  00055	74 01		 je	 SHORT $LN27@GetNextAss
  00057	cc		 int	 3
$LN27@GetNextAss:
  00058	83 7d f8 00	 cmp	 DWORD PTR ___afx_condVal$5[ebp], 0
  0005c	75 05		 jne	 SHORT $LN2@GetNextAss
  0005e	e8 00 00 00 00	 call	 ?AfxThrowInvalidArgException@@YGXXZ ; AfxThrowInvalidArgException
$LN2@GetNextAss:
  00063	33 c0		 xor	 eax, eax
  00065	75 b8		 jne	 SHORT $LN4@GetNextAss

; 1643 : 
; 1644 : 	CAssoc* pAssocRet = (CAssoc*)rNextPosition;

  00067	8b 45 08	 mov	 eax, DWORD PTR _rNextPosition$[ebp]
  0006a	8b 08		 mov	 ecx, DWORD PTR [eax]
  0006c	89 4d f4	 mov	 DWORD PTR _pAssocRet$[ebp], ecx
$LN7@GetNextAss:

; 1645 : 	ENSURE(pAssocRet != NULL);

  0006f	83 7d f4 00	 cmp	 DWORD PTR _pAssocRet$[ebp], 0
  00073	74 09		 je	 SHORT $LN28@GetNextAss
  00075	c7 45 9c 01 00
	00 00		 mov	 DWORD PTR tv83[ebp], 1
  0007c	eb 07		 jmp	 SHORT $LN29@GetNextAss
$LN28@GetNextAss:
  0007e	c7 45 9c 00 00
	00 00		 mov	 DWORD PTR tv83[ebp], 0
$LN29@GetNextAss:
  00085	8b 45 9c	 mov	 eax, DWORD PTR tv83[ebp]
  00088	89 45 f0	 mov	 DWORD PTR ___afx_condVal$4[ebp], eax
  0008b	83 7d f0 00	 cmp	 DWORD PTR ___afx_condVal$4[ebp], 0
  0008f	75 14		 jne	 SHORT $LN30@GetNextAss
  00091	68 6d 06 00 00	 push	 1645			; 0000066dH
  00096	68 00 00 00 00	 push	 OFFSET ??_C@_0HC@HBCNBCLF@c?3?2program?5files?5?$CIx86?$CJ?2microsof@
  0009b	e8 00 00 00 00	 call	 ?AfxAssertFailedLine@@YGHPBDH@Z ; AfxAssertFailedLine
  000a0	85 c0		 test	 eax, eax
  000a2	74 01		 je	 SHORT $LN30@GetNextAss
  000a4	cc		 int	 3
$LN30@GetNextAss:
  000a5	83 7d f0 00	 cmp	 DWORD PTR ___afx_condVal$4[ebp], 0
  000a9	75 05		 jne	 SHORT $LN5@GetNextAss
  000ab	e8 00 00 00 00	 call	 ?AfxThrowInvalidArgException@@YGXXZ ; AfxThrowInvalidArgException
$LN5@GetNextAss:
  000b0	33 c0		 xor	 eax, eax
  000b2	75 bb		 jne	 SHORT $LN7@GetNextAss

; 1646 : 
; 1647 : 	if (pAssocRet == (CAssoc*) BEFORE_START_POSITION)

  000b4	83 7d f4 ff	 cmp	 DWORD PTR _pAssocRet$[ebp], -1
  000b8	75 7b		 jne	 SHORT $LN19@GetNextAss

; 1648 : 	{
; 1649 : 		// find the first association
; 1650 : 		for (UINT nBucket = 0; nBucket < m_nHashTableSize; nBucket++)

  000ba	c7 45 ec 00 00
	00 00		 mov	 DWORD PTR _nBucket$3[ebp], 0
  000c1	eb 09		 jmp	 SHORT $LN10@GetNextAss
$LN8@GetNextAss:
  000c3	8b 45 ec	 mov	 eax, DWORD PTR _nBucket$3[ebp]
  000c6	83 c0 01	 add	 eax, 1
  000c9	89 45 ec	 mov	 DWORD PTR _nBucket$3[ebp], eax
$LN10@GetNextAss:
  000cc	8b 45 fc	 mov	 eax, DWORD PTR _this$[ebp]
  000cf	8b 4d ec	 mov	 ecx, DWORD PTR _nBucket$3[ebp]
  000d2	3b 48 08	 cmp	 ecx, DWORD PTR [eax+8]
  000d5	73 19		 jae	 SHORT $LN13@GetNextAss

; 1651 : 		{
; 1652 : 			if ((pAssocRet = m_pHashTable[nBucket]) != NULL)

  000d7	8b 45 fc	 mov	 eax, DWORD PTR _this$[ebp]
  000da	8b 48 04	 mov	 ecx, DWORD PTR [eax+4]
  000dd	8b 55 ec	 mov	 edx, DWORD PTR _nBucket$3[ebp]
  000e0	8b 04 91	 mov	 eax, DWORD PTR [ecx+edx*4]
  000e3	89 45 f4	 mov	 DWORD PTR _pAssocRet$[ebp], eax
  000e6	83 7d f4 00	 cmp	 DWORD PTR _pAssocRet$[ebp], 0
  000ea	74 02		 je	 SHORT $LN20@GetNextAss

; 1653 : 			{
; 1654 : 				break;

  000ec	eb 02		 jmp	 SHORT $LN13@GetNextAss
$LN20@GetNextAss:

; 1655 : 			}
; 1656 : 		}

  000ee	eb d3		 jmp	 SHORT $LN8@GetNextAss
$LN13@GetNextAss:

; 1657 : 		ENSURE(pAssocRet != NULL);  // must find something

  000f0	83 7d f4 00	 cmp	 DWORD PTR _pAssocRet$[ebp], 0
  000f4	74 09		 je	 SHORT $LN31@GetNextAss
  000f6	c7 45 9c 01 00
	00 00		 mov	 DWORD PTR tv133[ebp], 1
  000fd	eb 07		 jmp	 SHORT $LN32@GetNextAss
$LN31@GetNextAss:
  000ff	c7 45 9c 00 00
	00 00		 mov	 DWORD PTR tv133[ebp], 0
$LN32@GetNextAss:
  00106	8b 45 9c	 mov	 eax, DWORD PTR tv133[ebp]
  00109	89 45 e8	 mov	 DWORD PTR ___afx_condVal$2[ebp], eax
  0010c	83 7d e8 00	 cmp	 DWORD PTR ___afx_condVal$2[ebp], 0
  00110	75 14		 jne	 SHORT $LN33@GetNextAss
  00112	68 79 06 00 00	 push	 1657			; 00000679H
  00117	68 00 00 00 00	 push	 OFFSET ??_C@_0HC@HBCNBCLF@c?3?2program?5files?5?$CIx86?$CJ?2microsof@
  0011c	e8 00 00 00 00	 call	 ?AfxAssertFailedLine@@YGHPBDH@Z ; AfxAssertFailedLine
  00121	85 c0		 test	 eax, eax
  00123	74 01		 je	 SHORT $LN33@GetNextAss
  00125	cc		 int	 3
$LN33@GetNextAss:
  00126	83 7d e8 00	 cmp	 DWORD PTR ___afx_condVal$2[ebp], 0
  0012a	75 05		 jne	 SHORT $LN11@GetNextAss
  0012c	e8 00 00 00 00	 call	 ?AfxThrowInvalidArgException@@YGXXZ ; AfxThrowInvalidArgException
$LN11@GetNextAss:
  00131	33 c0		 xor	 eax, eax
  00133	75 bb		 jne	 SHORT $LN13@GetNextAss
$LN19@GetNextAss:

; 1658 : 	}
; 1659 : 
; 1660 : 	// find next association
; 1661 : 	ASSERT(AfxIsValidAddress(pAssocRet, sizeof(CAssoc)));

  00135	6a 01		 push	 1
  00137	6a 10		 push	 16			; 00000010H
  00139	8b 45 f4	 mov	 eax, DWORD PTR _pAssocRet$[ebp]
  0013c	50		 push	 eax
  0013d	e8 00 00 00 00	 call	 ?AfxIsValidAddress@@YGHPBXIH@Z ; AfxIsValidAddress
  00142	85 c0		 test	 eax, eax
  00144	75 14		 jne	 SHORT $LN34@GetNextAss
  00146	68 7d 06 00 00	 push	 1661			; 0000067dH
  0014b	68 00 00 00 00	 push	 OFFSET ??_C@_0HC@HBCNBCLF@c?3?2program?5files?5?$CIx86?$CJ?2microsof@
  00150	e8 00 00 00 00	 call	 ?AfxAssertFailedLine@@YGHPBDH@Z ; AfxAssertFailedLine
  00155	85 c0		 test	 eax, eax
  00157	74 01		 je	 SHORT $LN34@GetNextAss
  00159	cc		 int	 3
$LN34@GetNextAss:

; 1662 : 	CAssoc* pAssocNext;
; 1663 : 	if ((pAssocNext = pAssocRet->pNext) == NULL)

  0015a	8b 45 f4	 mov	 eax, DWORD PTR _pAssocRet$[ebp]
  0015d	8b 48 08	 mov	 ecx, DWORD PTR [eax+8]
  00160	89 4d e4	 mov	 DWORD PTR _pAssocNext$[ebp], ecx
  00163	83 7d e4 00	 cmp	 DWORD PTR _pAssocNext$[ebp], 0
  00167	75 43		 jne	 SHORT $LN22@GetNextAss

; 1664 : 	{
; 1665 : 		// go to next bucket
; 1666 : 		for (UINT nBucket = (pAssocRet->nHashValue % m_nHashTableSize) + 1;

  00169	8b 45 f4	 mov	 eax, DWORD PTR _pAssocRet$[ebp]
  0016c	8b 4d fc	 mov	 ecx, DWORD PTR _this$[ebp]
  0016f	8b 40 0c	 mov	 eax, DWORD PTR [eax+12]
  00172	33 d2		 xor	 edx, edx
  00174	f7 71 08	 div	 DWORD PTR [ecx+8]
  00177	83 c2 01	 add	 edx, 1
  0017a	89 55 e0	 mov	 DWORD PTR _nBucket$1[ebp], edx
  0017d	eb 09		 jmp	 SHORT $LN16@GetNextAss
$LN14@GetNextAss:

; 1667 : 		  nBucket < m_nHashTableSize; nBucket++)

  0017f	8b 45 e0	 mov	 eax, DWORD PTR _nBucket$1[ebp]
  00182	83 c0 01	 add	 eax, 1
  00185	89 45 e0	 mov	 DWORD PTR _nBucket$1[ebp], eax
$LN16@GetNextAss:
  00188	8b 45 fc	 mov	 eax, DWORD PTR _this$[ebp]
  0018b	8b 4d e0	 mov	 ecx, DWORD PTR _nBucket$1[ebp]
  0018e	3b 48 08	 cmp	 ecx, DWORD PTR [eax+8]
  00191	73 19		 jae	 SHORT $LN22@GetNextAss

; 1668 : 			if ((pAssocNext = m_pHashTable[nBucket]) != NULL)

  00193	8b 45 fc	 mov	 eax, DWORD PTR _this$[ebp]
  00196	8b 48 04	 mov	 ecx, DWORD PTR [eax+4]
  00199	8b 55 e0	 mov	 edx, DWORD PTR _nBucket$1[ebp]
  0019c	8b 04 91	 mov	 eax, DWORD PTR [ecx+edx*4]
  0019f	89 45 e4	 mov	 DWORD PTR _pAssocNext$[ebp], eax
  001a2	83 7d e4 00	 cmp	 DWORD PTR _pAssocNext$[ebp], 0
  001a6	74 02		 je	 SHORT $LN23@GetNextAss

; 1669 : 				break;

  001a8	eb 02		 jmp	 SHORT $LN22@GetNextAss
$LN23@GetNextAss:

; 1670 : 	}

  001aa	eb d3		 jmp	 SHORT $LN14@GetNextAss
$LN22@GetNextAss:

; 1671 : 
; 1672 : 	rNextPosition = (POSITION) pAssocNext;

  001ac	8b 45 08	 mov	 eax, DWORD PTR _rNextPosition$[ebp]
  001af	8b 4d e4	 mov	 ecx, DWORD PTR _pAssocNext$[ebp]
  001b2	89 08		 mov	 DWORD PTR [eax], ecx

; 1673 : 
; 1674 : 	// fill in return data
; 1675 : 	rKey = pAssocRet->key;

  001b4	8b 45 0c	 mov	 eax, DWORD PTR _rKey$[ebp]
  001b7	8b 4d f4	 mov	 ecx, DWORD PTR _pAssocRet$[ebp]
  001ba	8b 11		 mov	 edx, DWORD PTR [ecx]
  001bc	89 10		 mov	 DWORD PTR [eax], edx

; 1676 : 	rValue = pAssocRet->value;

  001be	8b 45 10	 mov	 eax, DWORD PTR _rValue$[ebp]
  001c1	8b 4d f4	 mov	 ecx, DWORD PTR _pAssocRet$[ebp]
  001c4	8b 51 04	 mov	 edx, DWORD PTR [ecx+4]
  001c7	89 10		 mov	 DWORD PTR [eax], edx
$LN24@GetNextAss:

; 1677 : }

  001c9	5f		 pop	 edi
  001ca	5e		 pop	 esi
  001cb	5b		 pop	 ebx
  001cc	8b e5		 mov	 esp, ebp
  001ce	5d		 pop	 ebp
  001cf	c2 0c 00	 ret	 12			; 0000000cH
?GetNextAssoc@?$CMap@KKPAVCGamePropertyTypeItem@NGamePropertyListManager@@AAPAV12@@@QBEXAAPAU__POSITION@@AAKAAPAVCGamePropertyTypeItem@NGamePropertyListManager@@@Z ENDP ; CMap<unsigned long,unsigned long,NGamePropertyListManager::CGamePropertyTypeItem *,NGamePropertyListManager::CGamePropertyTypeItem * &>::GetNextAssoc
_TEXT	ENDS
; Function compile flags: /Odtp /ZI
; File c:\program files (x86)\microsoft visual studio\2017\community\vc\tools\msvc\14.16.27023\atlmfc\include\afxtempl.h
;	COMDAT ?GetStartPosition@?$CMap@KKPAVCGamePropertyTypeItem@NGamePropertyListManager@@AAPAV12@@@QBEPAU__POSITION@@XZ
_TEXT	SEGMENT
tv66 = -72						; size = 4
_this$ = -4						; size = 4
?GetStartPosition@?$CMap@KKPAVCGamePropertyTypeItem@NGamePropertyListManager@@AAPAV12@@@QBEPAU__POSITION@@XZ PROC ; CMap<unsigned long,unsigned long,NGamePropertyListManager::CGamePropertyTypeItem *,NGamePropertyListManager::CGamePropertyTypeItem * &>::GetStartPosition, COMDAT
; _this$ = ecx

; 1354 : 	{ return (m_nCount == 0) ? NULL : BEFORE_START_POSITION; }

  00000	55		 push	 ebp
  00001	8b ec		 mov	 ebp, esp
  00003	83 ec 48	 sub	 esp, 72			; 00000048H
  00006	53		 push	 ebx
  00007	56		 push	 esi
  00008	57		 push	 edi
  00009	89 4d fc	 mov	 DWORD PTR _this$[ebp], ecx
  0000c	8b 45 fc	 mov	 eax, DWORD PTR _this$[ebp]
  0000f	83 78 0c 00	 cmp	 DWORD PTR [eax+12], 0
  00013	75 09		 jne	 SHORT $LN3@GetStartPo
  00015	c7 45 b8 00 00
	00 00		 mov	 DWORD PTR tv66[ebp], 0
  0001c	eb 07		 jmp	 SHORT $LN4@GetStartPo
$LN3@GetStartPo:
  0001e	c7 45 b8 ff ff
	ff ff		 mov	 DWORD PTR tv66[ebp], -1
$LN4@GetStartPo:
  00025	8b 45 b8	 mov	 eax, DWORD PTR tv66[ebp]
  00028	5f		 pop	 edi
  00029	5e		 pop	 esi
  0002a	5b		 pop	 ebx
  0002b	8b e5		 mov	 esp, ebp
  0002d	5d		 pop	 ebp
  0002e	c3		 ret	 0
?GetStartPosition@?$CMap@KKPAVCGamePropertyTypeItem@NGamePropertyListManager@@AAPAV12@@@QBEPAU__POSITION@@XZ ENDP ; CMap<unsigned long,unsigned long,NGamePropertyListManager::CGamePropertyTypeItem *,NGamePropertyListManager::CGamePropertyTypeItem * &>::GetStartPosition
_TEXT	ENDS
; Function compile flags: /Odtp /ZI
; File c:\program files (x86)\microsoft visual studio\2017\community\vc\tools\msvc\14.16.27023\atlmfc\include\afxtempl.h
;	COMDAT ?RemoveAll@?$CMap@KKPAVCGamePropertyTypeItem@NGamePropertyListManager@@AAPAV12@@@QAEXXZ
_TEXT	SEGMENT
$T1 = -80						; size = 4
_pAssoc$2 = -12						; size = 4
_nHash$3 = -8						; size = 4
_this$ = -4						; size = 4
?RemoveAll@?$CMap@KKPAVCGamePropertyTypeItem@NGamePropertyListManager@@AAPAV12@@@QAEXXZ PROC ; CMap<unsigned long,unsigned long,NGamePropertyListManager::CGamePropertyTypeItem *,NGamePropertyListManager::CGamePropertyTypeItem * &>::RemoveAll, COMDAT
; _this$ = ecx

; 1443 : {

  00000	55		 push	 ebp
  00001	8b ec		 mov	 ebp, esp
  00003	83 ec 50	 sub	 esp, 80			; 00000050H
  00006	53		 push	 ebx
  00007	56		 push	 esi
  00008	57		 push	 edi
  00009	89 4d fc	 mov	 DWORD PTR _this$[ebp], ecx

; 1444 : 	ASSERT_VALID(this);

  0000c	68 a4 05 00 00	 push	 1444			; 000005a4H
  00011	68 00 00 00 00	 push	 OFFSET ??_C@_0HC@HBCNBCLF@c?3?2program?5files?5?$CIx86?$CJ?2microsof@
  00016	8b 45 fc	 mov	 eax, DWORD PTR _this$[ebp]
  00019	50		 push	 eax
  0001a	e8 00 00 00 00	 call	 ?AfxAssertValidObject@@YGXPBVCObject@@PBDH@Z ; AfxAssertValidObject

; 1445 : 
; 1446 : 	if (m_pHashTable != NULL)

  0001f	8b 45 fc	 mov	 eax, DWORD PTR _this$[ebp]
  00022	83 78 04 00	 cmp	 DWORD PTR [eax+4], 0
  00026	74 60		 je	 SHORT $LN8@RemoveAll

; 1447 : 	{
; 1448 : 		// destroy elements (values and keys)
; 1449 : 		for (UINT nHash = 0; nHash < m_nHashTableSize; nHash++)

  00028	c7 45 f8 00 00
	00 00		 mov	 DWORD PTR _nHash$3[ebp], 0
  0002f	eb 09		 jmp	 SHORT $LN4@RemoveAll
$LN2@RemoveAll:
  00031	8b 45 f8	 mov	 eax, DWORD PTR _nHash$3[ebp]
  00034	83 c0 01	 add	 eax, 1
  00037	89 45 f8	 mov	 DWORD PTR _nHash$3[ebp], eax
$LN4@RemoveAll:
  0003a	8b 45 fc	 mov	 eax, DWORD PTR _this$[ebp]
  0003d	8b 4d f8	 mov	 ecx, DWORD PTR _nHash$3[ebp]
  00040	3b 48 08	 cmp	 ecx, DWORD PTR [eax+8]
  00043	73 24		 jae	 SHORT $LN3@RemoveAll

; 1450 : 		{
; 1451 : 			CAssoc* pAssoc;
; 1452 : 			for (pAssoc = m_pHashTable[nHash]; pAssoc != NULL;

  00045	8b 45 fc	 mov	 eax, DWORD PTR _this$[ebp]
  00048	8b 48 04	 mov	 ecx, DWORD PTR [eax+4]
  0004b	8b 55 f8	 mov	 edx, DWORD PTR _nHash$3[ebp]
  0004e	8b 04 91	 mov	 eax, DWORD PTR [ecx+edx*4]
  00051	89 45 f4	 mov	 DWORD PTR _pAssoc$2[ebp], eax
  00054	eb 09		 jmp	 SHORT $LN7@RemoveAll
$LN5@RemoveAll:

; 1453 : 			  pAssoc = pAssoc->pNext)

  00056	8b 45 f4	 mov	 eax, DWORD PTR _pAssoc$2[ebp]
  00059	8b 48 08	 mov	 ecx, DWORD PTR [eax+8]
  0005c	89 4d f4	 mov	 DWORD PTR _pAssoc$2[ebp], ecx
$LN7@RemoveAll:

; 1450 : 		{
; 1451 : 			CAssoc* pAssoc;
; 1452 : 			for (pAssoc = m_pHashTable[nHash]; pAssoc != NULL;

  0005f	83 7d f4 00	 cmp	 DWORD PTR _pAssoc$2[ebp], 0
  00063	74 02		 je	 SHORT $LN6@RemoveAll

; 1454 : 			{
; 1455 : 				pAssoc->CAssoc::~CAssoc();
; 1456 : 			}

  00065	eb ef		 jmp	 SHORT $LN5@RemoveAll
$LN6@RemoveAll:

; 1457 : 		}

  00067	eb c8		 jmp	 SHORT $LN2@RemoveAll
$LN3@RemoveAll:

; 1458 : 
; 1459 : 		// free hash table
; 1460 : 		delete[] m_pHashTable;

  00069	8b 45 fc	 mov	 eax, DWORD PTR _this$[ebp]
  0006c	8b 48 04	 mov	 ecx, DWORD PTR [eax+4]
  0006f	89 4d b0	 mov	 DWORD PTR $T1[ebp], ecx
  00072	8b 55 b0	 mov	 edx, DWORD PTR $T1[ebp]
  00075	52		 push	 edx
  00076	e8 00 00 00 00	 call	 ??_V@YAXPAX@Z		; operator delete[]
  0007b	83 c4 04	 add	 esp, 4

; 1461 : 		m_pHashTable = NULL;

  0007e	8b 45 fc	 mov	 eax, DWORD PTR _this$[ebp]
  00081	c7 40 04 00 00
	00 00		 mov	 DWORD PTR [eax+4], 0
$LN8@RemoveAll:

; 1462 : 	}
; 1463 : 
; 1464 : 	m_nCount = 0;

  00088	8b 45 fc	 mov	 eax, DWORD PTR _this$[ebp]
  0008b	c7 40 0c 00 00
	00 00		 mov	 DWORD PTR [eax+12], 0

; 1465 : 	m_pFreeList = NULL;

  00092	8b 45 fc	 mov	 eax, DWORD PTR _this$[ebp]
  00095	c7 40 10 00 00
	00 00		 mov	 DWORD PTR [eax+16], 0

; 1466 : 	m_pBlocks->FreeDataChain();

  0009c	8b 45 fc	 mov	 eax, DWORD PTR _this$[ebp]
  0009f	8b 48 14	 mov	 ecx, DWORD PTR [eax+20]
  000a2	e8 00 00 00 00	 call	 ?FreeDataChain@CPlex@@QAEXXZ ; CPlex::FreeDataChain

; 1467 : 	m_pBlocks = NULL;

  000a7	8b 45 fc	 mov	 eax, DWORD PTR _this$[ebp]
  000aa	c7 40 14 00 00
	00 00		 mov	 DWORD PTR [eax+20], 0

; 1468 : }

  000b1	5f		 pop	 edi
  000b2	5e		 pop	 esi
  000b3	5b		 pop	 ebx
  000b4	8b e5		 mov	 esp, ebp
  000b6	5d		 pop	 ebp
  000b7	c3		 ret	 0
?RemoveAll@?$CMap@KKPAVCGamePropertyTypeItem@NGamePropertyListManager@@AAPAV12@@@QAEXXZ ENDP ; CMap<unsigned long,unsigned long,NGamePropertyListManager::CGamePropertyTypeItem *,NGamePropertyListManager::CGamePropertyTypeItem * &>::RemoveAll
_TEXT	ENDS
; Function compile flags: /Odtp /ZI
; File c:\program files (x86)\microsoft visual studio\2017\community\vc\tools\msvc\14.16.27023\atlmfc\include\afxtempl.h
;	COMDAT ?RemoveKey@?$CMap@KKPAVCGamePropertyTypeItem@NGamePropertyListManager@@AAPAV12@@@QAEHK@Z
_TEXT	SEGMENT
_pAssoc$ = -16						; size = 4
_ppAssocPrev$ = -12					; size = 4
_nHashValue$ = -8					; size = 4
_this$ = -4						; size = 4
_key$ = 8						; size = 4
?RemoveKey@?$CMap@KKPAVCGamePropertyTypeItem@NGamePropertyListManager@@AAPAV12@@@QAEHK@Z PROC ; CMap<unsigned long,unsigned long,NGamePropertyListManager::CGamePropertyTypeItem *,NGamePropertyListManager::CGamePropertyTypeItem * &>::RemoveKey, COMDAT
; _this$ = ecx

; 1611 : {

  00000	55		 push	 ebp
  00001	8b ec		 mov	 ebp, esp
  00003	83 ec 50	 sub	 esp, 80			; 00000050H
  00006	53		 push	 ebx
  00007	56		 push	 esi
  00008	57		 push	 edi
  00009	89 4d fc	 mov	 DWORD PTR _this$[ebp], ecx

; 1612 : 	ASSERT_VALID(this);

  0000c	68 4c 06 00 00	 push	 1612			; 0000064cH
  00011	68 00 00 00 00	 push	 OFFSET ??_C@_0HC@HBCNBCLF@c?3?2program?5files?5?$CIx86?$CJ?2microsof@
  00016	8b 45 fc	 mov	 eax, DWORD PTR _this$[ebp]
  00019	50		 push	 eax
  0001a	e8 00 00 00 00	 call	 ?AfxAssertValidObject@@YGXPBVCObject@@PBDH@Z ; AfxAssertValidObject

; 1613 : 
; 1614 : 	if (m_pHashTable == NULL)

  0001f	8b 45 fc	 mov	 eax, DWORD PTR _this$[ebp]
  00022	83 78 04 00	 cmp	 DWORD PTR [eax+4], 0
  00026	75 07		 jne	 SHORT $LN5@RemoveKey

; 1615 : 		return FALSE;  // nothing in the table

  00028	33 c0		 xor	 eax, eax
  0002a	e9 83 00 00 00	 jmp	 $LN1@RemoveKey
$LN5@RemoveKey:

; 1616 : 
; 1617 : 	UINT nHashValue;
; 1618 : 	CAssoc** ppAssocPrev;
; 1619 : 	nHashValue = HashKey<ARG_KEY>(key);

  0002f	8b 45 08	 mov	 eax, DWORD PTR _key$[ebp]
  00032	50		 push	 eax
  00033	e8 00 00 00 00	 call	 ??$HashKey@K@@YGIK@Z	; HashKey<unsigned long>
  00038	89 45 f8	 mov	 DWORD PTR _nHashValue$[ebp], eax

; 1620 : 	ppAssocPrev = &m_pHashTable[nHashValue%m_nHashTableSize];

  0003b	8b 4d fc	 mov	 ecx, DWORD PTR _this$[ebp]
  0003e	8b 45 f8	 mov	 eax, DWORD PTR _nHashValue$[ebp]
  00041	33 d2		 xor	 edx, edx
  00043	f7 71 08	 div	 DWORD PTR [ecx+8]
  00046	8b 45 fc	 mov	 eax, DWORD PTR _this$[ebp]
  00049	8b 48 04	 mov	 ecx, DWORD PTR [eax+4]
  0004c	8d 14 91	 lea	 edx, DWORD PTR [ecx+edx*4]
  0004f	89 55 f4	 mov	 DWORD PTR _ppAssocPrev$[ebp], edx

; 1621 : 
; 1622 : 	CAssoc* pAssoc;
; 1623 : 	for (pAssoc = *ppAssocPrev; pAssoc != NULL; pAssoc = pAssoc->pNext)

  00052	8b 45 f4	 mov	 eax, DWORD PTR _ppAssocPrev$[ebp]
  00055	8b 08		 mov	 ecx, DWORD PTR [eax]
  00057	89 4d f0	 mov	 DWORD PTR _pAssoc$[ebp], ecx
  0005a	eb 09		 jmp	 SHORT $LN4@RemoveKey
$LN2@RemoveKey:
  0005c	8b 45 f0	 mov	 eax, DWORD PTR _pAssoc$[ebp]
  0005f	8b 48 08	 mov	 ecx, DWORD PTR [eax+8]
  00062	89 4d f0	 mov	 DWORD PTR _pAssoc$[ebp], ecx
$LN4@RemoveKey:
  00065	83 7d f0 00	 cmp	 DWORD PTR _pAssoc$[ebp], 0
  00069	74 45		 je	 SHORT $LN3@RemoveKey

; 1624 : 	{
; 1625 : 		if ((pAssoc->nHashValue == nHashValue) && CompareElements(&pAssoc->key, &key))

  0006b	8b 45 f0	 mov	 eax, DWORD PTR _pAssoc$[ebp]
  0006e	8b 48 0c	 mov	 ecx, DWORD PTR [eax+12]
  00071	3b 4d f8	 cmp	 ecx, DWORD PTR _nHashValue$[ebp]
  00074	75 2f		 jne	 SHORT $LN6@RemoveKey
  00076	8d 45 08	 lea	 eax, DWORD PTR _key$[ebp]
  00079	50		 push	 eax
  0007a	8b 4d f0	 mov	 ecx, DWORD PTR _pAssoc$[ebp]
  0007d	51		 push	 ecx
  0007e	e8 00 00 00 00	 call	 ??$CompareElements@KK@@YGHPBK0@Z ; CompareElements<unsigned long,unsigned long>
  00083	85 c0		 test	 eax, eax
  00085	74 1e		 je	 SHORT $LN6@RemoveKey

; 1626 : 		{
; 1627 : 			// remove it
; 1628 : 			*ppAssocPrev = pAssoc->pNext;  // remove from list

  00087	8b 45 f4	 mov	 eax, DWORD PTR _ppAssocPrev$[ebp]
  0008a	8b 4d f0	 mov	 ecx, DWORD PTR _pAssoc$[ebp]
  0008d	8b 51 08	 mov	 edx, DWORD PTR [ecx+8]
  00090	89 10		 mov	 DWORD PTR [eax], edx

; 1629 : 			FreeAssoc(pAssoc);

  00092	8b 45 f0	 mov	 eax, DWORD PTR _pAssoc$[ebp]
  00095	50		 push	 eax
  00096	8b 4d fc	 mov	 ecx, DWORD PTR _this$[ebp]
  00099	e8 00 00 00 00	 call	 ?FreeAssoc@?$CMap@KKPAVCGamePropertyTypeItem@NGamePropertyListManager@@AAPAV12@@@IAEXPAVCAssoc@1@@Z ; CMap<unsigned long,unsigned long,NGamePropertyListManager::CGamePropertyTypeItem *,NGamePropertyListManager::CGamePropertyTypeItem * &>::FreeAssoc

; 1630 : 			return TRUE;

  0009e	b8 01 00 00 00	 mov	 eax, 1
  000a3	eb 0d		 jmp	 SHORT $LN1@RemoveKey
$LN6@RemoveKey:

; 1631 : 		}
; 1632 : 		ppAssocPrev = &pAssoc->pNext;

  000a5	8b 45 f0	 mov	 eax, DWORD PTR _pAssoc$[ebp]
  000a8	83 c0 08	 add	 eax, 8
  000ab	89 45 f4	 mov	 DWORD PTR _ppAssocPrev$[ebp], eax

; 1633 : 	}

  000ae	eb ac		 jmp	 SHORT $LN2@RemoveKey
$LN3@RemoveKey:

; 1634 : 	return FALSE;  // not found

  000b0	33 c0		 xor	 eax, eax
$LN1@RemoveKey:

; 1635 : }

  000b2	5f		 pop	 edi
  000b3	5e		 pop	 esi
  000b4	5b		 pop	 ebx
  000b5	8b e5		 mov	 esp, ebp
  000b7	5d		 pop	 ebp
  000b8	c2 04 00	 ret	 4
?RemoveKey@?$CMap@KKPAVCGamePropertyTypeItem@NGamePropertyListManager@@AAPAV12@@@QAEHK@Z ENDP ; CMap<unsigned long,unsigned long,NGamePropertyListManager::CGamePropertyTypeItem *,NGamePropertyListManager::CGamePropertyTypeItem * &>::RemoveKey
_TEXT	ENDS
; Function compile flags: /Odtp /ZI
; File c:\program files (x86)\microsoft visual studio\2017\community\vc\tools\msvc\14.16.27023\atlmfc\include\afxtempl.h
;	COMDAT ?SetAt@?$CMap@KKPAVCGamePropertyTypeItem@NGamePropertyListManager@@AAPAV12@@@QAEXKAAPAVCGamePropertyTypeItem@NGamePropertyListManager@@@Z
_TEXT	SEGMENT
_this$ = -4						; size = 4
_key$ = 8						; size = 4
_newValue$ = 12						; size = 4
?SetAt@?$CMap@KKPAVCGamePropertyTypeItem@NGamePropertyListManager@@AAPAV12@@@QAEXKAAPAVCGamePropertyTypeItem@NGamePropertyListManager@@@Z PROC ; CMap<unsigned long,unsigned long,NGamePropertyListManager::CGamePropertyTypeItem *,NGamePropertyListManager::CGamePropertyTypeItem * &>::SetAt, COMDAT
; _this$ = ecx

; 1350 : 	{ (*this)[key] = newValue; }

  00000	55		 push	 ebp
  00001	8b ec		 mov	 ebp, esp
  00003	83 ec 44	 sub	 esp, 68			; 00000044H
  00006	53		 push	 ebx
  00007	56		 push	 esi
  00008	57		 push	 edi
  00009	89 4d fc	 mov	 DWORD PTR _this$[ebp], ecx
  0000c	8b 45 08	 mov	 eax, DWORD PTR _key$[ebp]
  0000f	50		 push	 eax
  00010	8b 4d fc	 mov	 ecx, DWORD PTR _this$[ebp]
  00013	e8 00 00 00 00	 call	 ??A?$CMap@KKPAVCGamePropertyTypeItem@NGamePropertyListManager@@AAPAV12@@@QAEAAPAVCGamePropertyTypeItem@NGamePropertyListManager@@K@Z ; CMap<unsigned long,unsigned long,NGamePropertyListManager::CGamePropertyTypeItem *,NGamePropertyListManager::CGamePropertyTypeItem * &>::operator[]
  00018	8b 4d 0c	 mov	 ecx, DWORD PTR _newValue$[ebp]
  0001b	8b 11		 mov	 edx, DWORD PTR [ecx]
  0001d	89 10		 mov	 DWORD PTR [eax], edx
  0001f	5f		 pop	 edi
  00020	5e		 pop	 esi
  00021	5b		 pop	 ebx
  00022	8b e5		 mov	 esp, ebp
  00024	5d		 pop	 ebp
  00025	c2 08 00	 ret	 8
?SetAt@?$CMap@KKPAVCGamePropertyTypeItem@NGamePropertyListManager@@AAPAV12@@@QAEXKAAPAVCGamePropertyTypeItem@NGamePropertyListManager@@@Z ENDP ; CMap<unsigned long,unsigned long,NGamePropertyListManager::CGamePropertyTypeItem *,NGamePropertyListManager::CGamePropertyTypeItem * &>::SetAt
_TEXT	ENDS
; Function compile flags: /Odtp /ZI
; File c:\program files (x86)\microsoft visual studio\2017\community\vc\tools\msvc\14.16.27023\atlmfc\include\afxtempl.h
;	COMDAT ??A?$CMap@KKPAVCGamePropertyTypeItem@NGamePropertyListManager@@AAPAV12@@@QAEAAPAVCGamePropertyTypeItem@NGamePropertyListManager@@K@Z
_TEXT	SEGMENT
tv85 = -88						; size = 4
___afx_condVal$1 = -20					; size = 4
_pAssoc$ = -16						; size = 4
_nHashValue$ = -12					; size = 4
_nHashBucket$ = -8					; size = 4
_this$ = -4						; size = 4
_key$ = 8						; size = 4
??A?$CMap@KKPAVCGamePropertyTypeItem@NGamePropertyListManager@@AAPAV12@@@QAEAAPAVCGamePropertyTypeItem@NGamePropertyListManager@@K@Z PROC ; CMap<unsigned long,unsigned long,NGamePropertyListManager::CGamePropertyTypeItem *,NGamePropertyListManager::CGamePropertyTypeItem * &>::operator[], COMDAT
; _this$ = ecx

; 1585 : {

  00000	55		 push	 ebp
  00001	8b ec		 mov	 ebp, esp
  00003	83 ec 58	 sub	 esp, 88			; 00000058H
  00006	53		 push	 ebx
  00007	56		 push	 esi
  00008	57		 push	 edi
  00009	89 4d fc	 mov	 DWORD PTR _this$[ebp], ecx

; 1586 : 	ASSERT_VALID(this);

  0000c	68 32 06 00 00	 push	 1586			; 00000632H
  00011	68 00 00 00 00	 push	 OFFSET ??_C@_0HC@HBCNBCLF@c?3?2program?5files?5?$CIx86?$CJ?2microsof@
  00016	8b 45 fc	 mov	 eax, DWORD PTR _this$[ebp]
  00019	50		 push	 eax
  0001a	e8 00 00 00 00	 call	 ?AfxAssertValidObject@@YGXPBVCObject@@PBDH@Z ; AfxAssertValidObject

; 1587 : 
; 1588 : 	UINT nHashBucket, nHashValue;
; 1589 : 	CAssoc* pAssoc;
; 1590 : 	if ((pAssoc = GetAssocAt(key, nHashBucket, nHashValue)) == NULL)

  0001f	8d 45 f4	 lea	 eax, DWORD PTR _nHashValue$[ebp]
  00022	50		 push	 eax
  00023	8d 4d f8	 lea	 ecx, DWORD PTR _nHashBucket$[ebp]
  00026	51		 push	 ecx
  00027	8b 55 08	 mov	 edx, DWORD PTR _key$[ebp]
  0002a	52		 push	 edx
  0002b	8b 4d fc	 mov	 ecx, DWORD PTR _this$[ebp]
  0002e	e8 00 00 00 00	 call	 ?GetAssocAt@?$CMap@KKPAVCGamePropertyTypeItem@NGamePropertyListManager@@AAPAV12@@@IBEPAVCAssoc@1@KAAI0@Z ; CMap<unsigned long,unsigned long,NGamePropertyListManager::CGamePropertyTypeItem *,NGamePropertyListManager::CGamePropertyTypeItem * &>::GetAssocAt
  00033	89 45 f0	 mov	 DWORD PTR _pAssoc$[ebp], eax
  00036	83 7d f0 00	 cmp	 DWORD PTR _pAssoc$[ebp], 0
  0003a	0f 85 9b 00 00
	00		 jne	 $LN5@operator

; 1591 : 	{
; 1592 : 		if (m_pHashTable == NULL)

  00040	8b 45 fc	 mov	 eax, DWORD PTR _this$[ebp]
  00043	83 78 04 00	 cmp	 DWORD PTR [eax+4], 0
  00047	75 11		 jne	 SHORT $LN4@operator

; 1593 : 			InitHashTable(m_nHashTableSize);

  00049	6a 01		 push	 1
  0004b	8b 45 fc	 mov	 eax, DWORD PTR _this$[ebp]
  0004e	8b 48 08	 mov	 ecx, DWORD PTR [eax+8]
  00051	51		 push	 ecx
  00052	8b 4d fc	 mov	 ecx, DWORD PTR _this$[ebp]
  00055	e8 00 00 00 00	 call	 ?InitHashTable@?$CMap@KKPAVCGamePropertyTypeItem@NGamePropertyListManager@@AAPAV12@@@QAEXIH@Z ; CMap<unsigned long,unsigned long,NGamePropertyListManager::CGamePropertyTypeItem *,NGamePropertyListManager::CGamePropertyTypeItem * &>::InitHashTable
$LN4@operator:

; 1594 : 
; 1595 : 		ENSURE(m_pHashTable);

  0005a	8b 45 fc	 mov	 eax, DWORD PTR _this$[ebp]
  0005d	83 78 04 00	 cmp	 DWORD PTR [eax+4], 0
  00061	74 09		 je	 SHORT $LN9@operator
  00063	c7 45 a8 01 00
	00 00		 mov	 DWORD PTR tv85[ebp], 1
  0006a	eb 07		 jmp	 SHORT $LN10@operator
$LN9@operator:
  0006c	c7 45 a8 00 00
	00 00		 mov	 DWORD PTR tv85[ebp], 0
$LN10@operator:
  00073	8b 4d a8	 mov	 ecx, DWORD PTR tv85[ebp]
  00076	89 4d ec	 mov	 DWORD PTR ___afx_condVal$1[ebp], ecx
  00079	83 7d ec 00	 cmp	 DWORD PTR ___afx_condVal$1[ebp], 0
  0007d	75 14		 jne	 SHORT $LN11@operator
  0007f	68 3b 06 00 00	 push	 1595			; 0000063bH
  00084	68 00 00 00 00	 push	 OFFSET ??_C@_0HC@HBCNBCLF@c?3?2program?5files?5?$CIx86?$CJ?2microsof@
  00089	e8 00 00 00 00	 call	 ?AfxAssertFailedLine@@YGHPBDH@Z ; AfxAssertFailedLine
  0008e	85 c0		 test	 eax, eax
  00090	74 01		 je	 SHORT $LN11@operator
  00092	cc		 int	 3
$LN11@operator:
  00093	83 7d ec 00	 cmp	 DWORD PTR ___afx_condVal$1[ebp], 0
  00097	75 05		 jne	 SHORT $LN2@operator
  00099	e8 00 00 00 00	 call	 ?AfxThrowInvalidArgException@@YGXXZ ; AfxThrowInvalidArgException
$LN2@operator:
  0009e	33 c0		 xor	 eax, eax
  000a0	75 b8		 jne	 SHORT $LN4@operator

; 1596 : 		// it doesn't exist, add a new Association
; 1597 : 		pAssoc = NewAssoc(key);

  000a2	8b 45 08	 mov	 eax, DWORD PTR _key$[ebp]
  000a5	50		 push	 eax
  000a6	8b 4d fc	 mov	 ecx, DWORD PTR _this$[ebp]
  000a9	e8 00 00 00 00	 call	 ?NewAssoc@?$CMap@KKPAVCGamePropertyTypeItem@NGamePropertyListManager@@AAPAV12@@@IAEPAVCAssoc@1@K@Z ; CMap<unsigned long,unsigned long,NGamePropertyListManager::CGamePropertyTypeItem *,NGamePropertyListManager::CGamePropertyTypeItem * &>::NewAssoc
  000ae	89 45 f0	 mov	 DWORD PTR _pAssoc$[ebp], eax

; 1598 : 		pAssoc->nHashValue = nHashValue;

  000b1	8b 45 f0	 mov	 eax, DWORD PTR _pAssoc$[ebp]
  000b4	8b 4d f4	 mov	 ecx, DWORD PTR _nHashValue$[ebp]
  000b7	89 48 0c	 mov	 DWORD PTR [eax+12], ecx

; 1599 : 		//'pAssoc->value' is a constructed object, nothing more
; 1600 : 
; 1601 : 		// put into hash table
; 1602 : 		pAssoc->pNext = m_pHashTable[nHashBucket];

  000ba	8b 45 fc	 mov	 eax, DWORD PTR _this$[ebp]
  000bd	8b 48 04	 mov	 ecx, DWORD PTR [eax+4]
  000c0	8b 55 f0	 mov	 edx, DWORD PTR _pAssoc$[ebp]
  000c3	8b 45 f8	 mov	 eax, DWORD PTR _nHashBucket$[ebp]
  000c6	8b 0c 81	 mov	 ecx, DWORD PTR [ecx+eax*4]
  000c9	89 4a 08	 mov	 DWORD PTR [edx+8], ecx

; 1603 : 		m_pHashTable[nHashBucket] = pAssoc;

  000cc	8b 45 fc	 mov	 eax, DWORD PTR _this$[ebp]
  000cf	8b 48 04	 mov	 ecx, DWORD PTR [eax+4]
  000d2	8b 55 f8	 mov	 edx, DWORD PTR _nHashBucket$[ebp]
  000d5	8b 45 f0	 mov	 eax, DWORD PTR _pAssoc$[ebp]
  000d8	89 04 91	 mov	 DWORD PTR [ecx+edx*4], eax
$LN5@operator:

; 1604 : 	}
; 1605 : 	return pAssoc->value;  // return new reference

  000db	8b 45 f0	 mov	 eax, DWORD PTR _pAssoc$[ebp]
  000de	83 c0 04	 add	 eax, 4
$LN8@operator:

; 1606 : }

  000e1	5f		 pop	 edi
  000e2	5e		 pop	 esi
  000e3	5b		 pop	 ebx
  000e4	8b e5		 mov	 esp, ebp
  000e6	5d		 pop	 ebp
  000e7	c2 04 00	 ret	 4
??A?$CMap@KKPAVCGamePropertyTypeItem@NGamePropertyListManager@@AAPAV12@@@QAEAAPAVCGamePropertyTypeItem@NGamePropertyListManager@@K@Z ENDP ; CMap<unsigned long,unsigned long,NGamePropertyListManager::CGamePropertyTypeItem *,NGamePropertyListManager::CGamePropertyTypeItem * &>::operator[]
_TEXT	ENDS
; Function compile flags: /Odtp /ZI
; File c:\program files (x86)\microsoft visual studio\2017\community\vc\tools\msvc\14.16.27023\atlmfc\include\afxtempl.h
;	COMDAT ?Lookup@?$CMap@KKPAVCGamePropertyTypeItem@NGamePropertyListManager@@AAPAV12@@@QBEHKAAPAVCGamePropertyTypeItem@NGamePropertyListManager@@@Z
_TEXT	SEGMENT
_pAssoc$ = -16						; size = 4
_nHashValue$ = -12					; size = 4
_nHashBucket$ = -8					; size = 4
_this$ = -4						; size = 4
_key$ = 8						; size = 4
_rValue$ = 12						; size = 4
?Lookup@?$CMap@KKPAVCGamePropertyTypeItem@NGamePropertyListManager@@AAPAV12@@@QBEHKAAPAVCGamePropertyTypeItem@NGamePropertyListManager@@@Z PROC ; CMap<unsigned long,unsigned long,NGamePropertyListManager::CGamePropertyTypeItem *,NGamePropertyListManager::CGamePropertyTypeItem * &>::Lookup, COMDAT
; _this$ = ecx

; 1551 : {

  00000	55		 push	 ebp
  00001	8b ec		 mov	 ebp, esp
  00003	83 ec 50	 sub	 esp, 80			; 00000050H
  00006	53		 push	 ebx
  00007	56		 push	 esi
  00008	57		 push	 edi
  00009	89 4d fc	 mov	 DWORD PTR _this$[ebp], ecx

; 1552 : 	ASSERT_VALID(this);

  0000c	68 10 06 00 00	 push	 1552			; 00000610H
  00011	68 00 00 00 00	 push	 OFFSET ??_C@_0HC@HBCNBCLF@c?3?2program?5files?5?$CIx86?$CJ?2microsof@
  00016	8b 45 fc	 mov	 eax, DWORD PTR _this$[ebp]
  00019	50		 push	 eax
  0001a	e8 00 00 00 00	 call	 ?AfxAssertValidObject@@YGXPBVCObject@@PBDH@Z ; AfxAssertValidObject

; 1553 : 
; 1554 : 	UINT nHashBucket, nHashValue;
; 1555 : 	CAssoc* pAssoc = GetAssocAt(key, nHashBucket, nHashValue);

  0001f	8d 45 f4	 lea	 eax, DWORD PTR _nHashValue$[ebp]
  00022	50		 push	 eax
  00023	8d 4d f8	 lea	 ecx, DWORD PTR _nHashBucket$[ebp]
  00026	51		 push	 ecx
  00027	8b 55 08	 mov	 edx, DWORD PTR _key$[ebp]
  0002a	52		 push	 edx
  0002b	8b 4d fc	 mov	 ecx, DWORD PTR _this$[ebp]
  0002e	e8 00 00 00 00	 call	 ?GetAssocAt@?$CMap@KKPAVCGamePropertyTypeItem@NGamePropertyListManager@@AAPAV12@@@IBEPAVCAssoc@1@KAAI0@Z ; CMap<unsigned long,unsigned long,NGamePropertyListManager::CGamePropertyTypeItem *,NGamePropertyListManager::CGamePropertyTypeItem * &>::GetAssocAt
  00033	89 45 f0	 mov	 DWORD PTR _pAssoc$[ebp], eax

; 1556 : 	if (pAssoc == NULL)

  00036	83 7d f0 00	 cmp	 DWORD PTR _pAssoc$[ebp], 0
  0003a	75 04		 jne	 SHORT $LN2@Lookup

; 1557 : 		return FALSE;  // not in map

  0003c	33 c0		 xor	 eax, eax
  0003e	eb 10		 jmp	 SHORT $LN1@Lookup
$LN2@Lookup:

; 1558 : 
; 1559 : 	rValue = pAssoc->value;

  00040	8b 45 0c	 mov	 eax, DWORD PTR _rValue$[ebp]
  00043	8b 4d f0	 mov	 ecx, DWORD PTR _pAssoc$[ebp]
  00046	8b 51 04	 mov	 edx, DWORD PTR [ecx+4]
  00049	89 10		 mov	 DWORD PTR [eax], edx

; 1560 : 	return TRUE;

  0004b	b8 01 00 00 00	 mov	 eax, 1
$LN1@Lookup:

; 1561 : }

  00050	5f		 pop	 edi
  00051	5e		 pop	 esi
  00052	5b		 pop	 ebx
  00053	8b e5		 mov	 esp, ebp
  00055	5d		 pop	 ebp
  00056	c2 08 00	 ret	 8
?Lookup@?$CMap@KKPAVCGamePropertyTypeItem@NGamePropertyListManager@@AAPAV12@@@QBEHKAAPAVCGamePropertyTypeItem@NGamePropertyListManager@@@Z ENDP ; CMap<unsigned long,unsigned long,NGamePropertyListManager::CGamePropertyTypeItem *,NGamePropertyListManager::CGamePropertyTypeItem * &>::Lookup
_TEXT	ENDS
; Function compile flags: /Odtp /ZI
; File c:\program files (x86)\microsoft visual studio\2017\community\vc\tools\msvc\14.16.27023\atlmfc\include\afxtempl.h
;	COMDAT ??0?$CMap@KKPAVCGamePropertyTypeItem@NGamePropertyListManager@@AAPAV12@@@QAE@H@Z
_TEXT	SEGMENT
_this$ = -16						; size = 4
__$EHRec$ = -12						; size = 12
_nBlockSize$ = 8					; size = 4
??0?$CMap@KKPAVCGamePropertyTypeItem@NGamePropertyListManager@@AAPAV12@@@QAE@H@Z PROC ; CMap<unsigned long,unsigned long,NGamePropertyListManager::CGamePropertyTypeItem *,NGamePropertyListManager::CGamePropertyTypeItem * &>::CMap<unsigned long,unsigned long,NGamePropertyListManager::CGamePropertyTypeItem *,NGamePropertyListManager::CGamePropertyTypeItem * &>, COMDAT
; _this$ = ecx

; 1403 : {

  00000	55		 push	 ebp
  00001	8b ec		 mov	 ebp, esp
  00003	6a ff		 push	 -1
  00005	68 00 00 00 00	 push	 __ehhandler$??0?$CMap@KKPAVCGamePropertyTypeItem@NGamePropertyListManager@@AAPAV12@@@QAE@H@Z
  0000a	64 a1 00 00 00
	00		 mov	 eax, DWORD PTR fs:0
  00010	50		 push	 eax
  00011	83 ec 44	 sub	 esp, 68			; 00000044H
  00014	53		 push	 ebx
  00015	56		 push	 esi
  00016	57		 push	 edi
  00017	a1 00 00 00 00	 mov	 eax, DWORD PTR ___security_cookie
  0001c	33 c5		 xor	 eax, ebp
  0001e	50		 push	 eax
  0001f	8d 45 f4	 lea	 eax, DWORD PTR __$EHRec$[ebp]
  00022	64 a3 00 00 00
	00		 mov	 DWORD PTR fs:0, eax
  00028	89 4d f0	 mov	 DWORD PTR _this$[ebp], ecx
  0002b	8b 4d f0	 mov	 ecx, DWORD PTR _this$[ebp]
  0002e	e8 00 00 00 00	 call	 ??0CObject@@IAE@XZ	; CObject::CObject
  00033	c7 45 fc 00 00
	00 00		 mov	 DWORD PTR __$EHRec$[ebp+8], 0
  0003a	8b 45 f0	 mov	 eax, DWORD PTR _this$[ebp]
  0003d	c7 00 00 00 00
	00		 mov	 DWORD PTR [eax], OFFSET ??_7?$CMap@KKPAVCGamePropertyTypeItem@NGamePropertyListManager@@AAPAV12@@@6B@

; 1404 : 	ASSERT(nBlockSize > 0);

  00043	83 7d 08 00	 cmp	 DWORD PTR _nBlockSize$[ebp], 0
  00047	7f 14		 jg	 SHORT $LN3@CMap
  00049	68 7c 05 00 00	 push	 1404			; 0000057cH
  0004e	68 00 00 00 00	 push	 OFFSET ??_C@_0HC@HBCNBCLF@c?3?2program?5files?5?$CIx86?$CJ?2microsof@
  00053	e8 00 00 00 00	 call	 ?AfxAssertFailedLine@@YGHPBDH@Z ; AfxAssertFailedLine
  00058	85 c0		 test	 eax, eax
  0005a	74 01		 je	 SHORT $LN3@CMap
  0005c	cc		 int	 3
$LN3@CMap:

; 1405 : 
; 1406 : 	m_pHashTable = NULL;

  0005d	8b 45 f0	 mov	 eax, DWORD PTR _this$[ebp]
  00060	c7 40 04 00 00
	00 00		 mov	 DWORD PTR [eax+4], 0

; 1407 : 	m_nHashTableSize = 17;  // default size

  00067	8b 45 f0	 mov	 eax, DWORD PTR _this$[ebp]
  0006a	c7 40 08 11 00
	00 00		 mov	 DWORD PTR [eax+8], 17	; 00000011H

; 1408 : 	m_nCount = 0;

  00071	8b 45 f0	 mov	 eax, DWORD PTR _this$[ebp]
  00074	c7 40 0c 00 00
	00 00		 mov	 DWORD PTR [eax+12], 0

; 1409 : 	m_pFreeList = NULL;

  0007b	8b 45 f0	 mov	 eax, DWORD PTR _this$[ebp]
  0007e	c7 40 10 00 00
	00 00		 mov	 DWORD PTR [eax+16], 0

; 1410 : 	m_pBlocks = NULL;

  00085	8b 45 f0	 mov	 eax, DWORD PTR _this$[ebp]
  00088	c7 40 14 00 00
	00 00		 mov	 DWORD PTR [eax+20], 0

; 1411 : 	m_nBlockSize = nBlockSize;

  0008f	8b 45 f0	 mov	 eax, DWORD PTR _this$[ebp]
  00092	8b 4d 08	 mov	 ecx, DWORD PTR _nBlockSize$[ebp]
  00095	89 48 18	 mov	 DWORD PTR [eax+24], ecx

; 1412 : }

  00098	c7 45 fc ff ff
	ff ff		 mov	 DWORD PTR __$EHRec$[ebp+8], -1
  0009f	8b 45 f0	 mov	 eax, DWORD PTR _this$[ebp]
  000a2	8b 4d f4	 mov	 ecx, DWORD PTR __$EHRec$[ebp]
  000a5	64 89 0d 00 00
	00 00		 mov	 DWORD PTR fs:0, ecx
  000ac	59		 pop	 ecx
  000ad	5f		 pop	 edi
  000ae	5e		 pop	 esi
  000af	5b		 pop	 ebx
  000b0	8b e5		 mov	 esp, ebp
  000b2	5d		 pop	 ebp
  000b3	c2 04 00	 ret	 4
_TEXT	ENDS
;	COMDAT text$x
text$x	SEGMENT
__unwindfunclet$??0?$CMap@KKPAVCGamePropertyTypeItem@NGamePropertyListManager@@AAPAV12@@@QAE@H@Z$0:
  00000	8b 4d f0	 mov	 ecx, DWORD PTR _this$[ebp]
  00003	e9 00 00 00 00	 jmp	 ??1CObject@@UAE@XZ	; CObject::~CObject
__ehhandler$??0?$CMap@KKPAVCGamePropertyTypeItem@NGamePropertyListManager@@AAPAV12@@@QAE@H@Z:
  00008	8b 54 24 08	 mov	 edx, DWORD PTR [esp+8]
  0000c	8d 42 0c	 lea	 eax, DWORD PTR [edx+12]
  0000f	8b 4a ac	 mov	 ecx, DWORD PTR [edx-84]
  00012	33 c8		 xor	 ecx, eax
  00014	e8 00 00 00 00	 call	 @__security_check_cookie@4
  00019	b8 00 00 00 00	 mov	 eax, OFFSET __ehfuncinfo$??0?$CMap@KKPAVCGamePropertyTypeItem@NGamePropertyListManager@@AAPAV12@@@QAE@H@Z
  0001e	e9 00 00 00 00	 jmp	 ___CxxFrameHandler3
text$x	ENDS
??0?$CMap@KKPAVCGamePropertyTypeItem@NGamePropertyListManager@@AAPAV12@@@QAE@H@Z ENDP ; CMap<unsigned long,unsigned long,NGamePropertyListManager::CGamePropertyTypeItem *,NGamePropertyListManager::CGamePropertyTypeItem * &>::CMap<unsigned long,unsigned long,NGamePropertyListManager::CGamePropertyTypeItem *,NGamePropertyListManager::CGamePropertyTypeItem * &>
; Function compile flags: /Odtp /ZI
; File g:\网狐\happygamewh\服务端\系统模块\服务器组件\登录服务器\gamepropertylistmanager.cpp
;	COMDAT ??0CGamePropertySubItem@NGamePropertyListManager@@QAE@XZ
_TEXT	SEGMENT
_this$ = -4						; size = 4
??0CGamePropertySubItem@NGamePropertyListManager@@QAE@XZ PROC ; NGamePropertyListManager::CGamePropertySubItem::CGamePropertySubItem, COMDAT
; _this$ = ecx

; 49   : {

  00000	55		 push	 ebp
  00001	8b ec		 mov	 ebp, esp
  00003	83 ec 44	 sub	 esp, 68			; 00000044H
  00006	53		 push	 ebx
  00007	56		 push	 esi
  00008	57		 push	 edi
  00009	89 4d fc	 mov	 DWORD PTR _this$[ebp], ecx
  0000c	8b 4d fc	 mov	 ecx, DWORD PTR _this$[ebp]
  0000f	e8 00 00 00 00	 call	 ??0CGamePropertyListItem@NGamePropertyListManager@@IAE@XZ ; NGamePropertyListManager::CGamePropertyListItem::CGamePropertyListItem

; 50   : 	//设置变量
; 51   : 	ZeroMemory(&m_PropertySubItem,sizeof(m_PropertySubItem));

  00014	6a 10		 push	 16			; 00000010H
  00016	6a 00		 push	 0
  00018	8b 45 fc	 mov	 eax, DWORD PTR _this$[ebp]
  0001b	83 c0 01	 add	 eax, 1
  0001e	50		 push	 eax
  0001f	e8 00 00 00 00	 call	 _memset
  00024	83 c4 0c	 add	 esp, 12			; 0000000cH

; 52   : 
; 53   : 	return;
; 54   : }

  00027	8b 45 fc	 mov	 eax, DWORD PTR _this$[ebp]
  0002a	5f		 pop	 edi
  0002b	5e		 pop	 esi
  0002c	5b		 pop	 ebx
  0002d	8b e5		 mov	 esp, ebp
  0002f	5d		 pop	 ebp
  00030	c3		 ret	 0
??0CGamePropertySubItem@NGamePropertyListManager@@QAE@XZ ENDP ; NGamePropertyListManager::CGamePropertySubItem::CGamePropertySubItem
_TEXT	ENDS
; Function compile flags: /Odtp /ZI
; File g:\网狐\happygamewh\服务端\系统模块\服务器组件\登录服务器\gamepropertylistmanager.cpp
;	COMDAT ??0CGamePropertyItem@NGamePropertyListManager@@QAE@XZ
_TEXT	SEGMENT
_this$ = -4						; size = 4
??0CGamePropertyItem@NGamePropertyListManager@@QAE@XZ PROC ; NGamePropertyListManager::CGamePropertyItem::CGamePropertyItem, COMDAT
; _this$ = ecx

; 38   : {

  00000	55		 push	 ebp
  00001	8b ec		 mov	 ebp, esp
  00003	83 ec 44	 sub	 esp, 68			; 00000044H
  00006	53		 push	 ebx
  00007	56		 push	 esi
  00008	57		 push	 edi
  00009	89 4d fc	 mov	 DWORD PTR _this$[ebp], ecx
  0000c	8b 4d fc	 mov	 ecx, DWORD PTR _this$[ebp]
  0000f	e8 00 00 00 00	 call	 ??0CGamePropertyListItem@NGamePropertyListManager@@IAE@XZ ; NGamePropertyListManager::CGamePropertyListItem::CGamePropertyListItem

; 39   : 	//设置变量
; 40   : 	ZeroMemory(&m_PropertyItem,sizeof(m_PropertyItem));

  00014	68 ff 00 00 00	 push	 255			; 000000ffH
  00019	6a 00		 push	 0
  0001b	8b 45 fc	 mov	 eax, DWORD PTR _this$[ebp]
  0001e	83 c0 01	 add	 eax, 1
  00021	50		 push	 eax
  00022	e8 00 00 00 00	 call	 _memset
  00027	83 c4 0c	 add	 esp, 12			; 0000000cH

; 41   : 
; 42   : 	return;
; 43   : }

  0002a	8b 45 fc	 mov	 eax, DWORD PTR _this$[ebp]
  0002d	5f		 pop	 edi
  0002e	5e		 pop	 esi
  0002f	5b		 pop	 ebx
  00030	8b e5		 mov	 esp, ebp
  00032	5d		 pop	 ebp
  00033	c3		 ret	 0
??0CGamePropertyItem@NGamePropertyListManager@@QAE@XZ ENDP ; NGamePropertyListManager::CGamePropertyItem::CGamePropertyItem
_TEXT	ENDS
; Function compile flags: /Odtp /ZI
; File g:\网狐\happygamewh\服务端\系统模块\服务器组件\登录服务器\gamepropertylistmanager.cpp
;	COMDAT ??0CGamePropertyRelatItem@NGamePropertyListManager@@QAE@XZ
_TEXT	SEGMENT
_this$ = -4						; size = 4
??0CGamePropertyRelatItem@NGamePropertyListManager@@QAE@XZ PROC ; NGamePropertyListManager::CGamePropertyRelatItem::CGamePropertyRelatItem, COMDAT
; _this$ = ecx

; 27   : {

  00000	55		 push	 ebp
  00001	8b ec		 mov	 ebp, esp
  00003	83 ec 44	 sub	 esp, 68			; 00000044H
  00006	53		 push	 ebx
  00007	56		 push	 esi
  00008	57		 push	 edi
  00009	89 4d fc	 mov	 DWORD PTR _this$[ebp], ecx
  0000c	8b 4d fc	 mov	 ecx, DWORD PTR _this$[ebp]
  0000f	e8 00 00 00 00	 call	 ??0CGamePropertyListItem@NGamePropertyListManager@@IAE@XZ ; NGamePropertyListManager::CGamePropertyListItem::CGamePropertyListItem

; 28   : 	//设置变量
; 29   : 	ZeroMemory(&m_PropertyRelatItem,sizeof(m_PropertyRelatItem));

  00014	6a 08		 push	 8
  00016	6a 00		 push	 0
  00018	8b 45 fc	 mov	 eax, DWORD PTR _this$[ebp]
  0001b	83 c0 01	 add	 eax, 1
  0001e	50		 push	 eax
  0001f	e8 00 00 00 00	 call	 _memset
  00024	83 c4 0c	 add	 esp, 12			; 0000000cH

; 30   : 
; 31   : 	return;
; 32   : }

  00027	8b 45 fc	 mov	 eax, DWORD PTR _this$[ebp]
  0002a	5f		 pop	 edi
  0002b	5e		 pop	 esi
  0002c	5b		 pop	 ebx
  0002d	8b e5		 mov	 esp, ebp
  0002f	5d		 pop	 ebp
  00030	c3		 ret	 0
??0CGamePropertyRelatItem@NGamePropertyListManager@@QAE@XZ ENDP ; NGamePropertyListManager::CGamePropertyRelatItem::CGamePropertyRelatItem
_TEXT	ENDS
; Function compile flags: /Odtp /ZI
; File g:\网狐\happygamewh\服务端\系统模块\服务器组件\登录服务器\gamepropertylistmanager.cpp
;	COMDAT ??0CGamePropertyTypeItem@NGamePropertyListManager@@QAE@XZ
_TEXT	SEGMENT
_this$ = -4						; size = 4
??0CGamePropertyTypeItem@NGamePropertyListManager@@QAE@XZ PROC ; NGamePropertyListManager::CGamePropertyTypeItem::CGamePropertyTypeItem, COMDAT
; _this$ = ecx

; 16   : {

  00000	55		 push	 ebp
  00001	8b ec		 mov	 ebp, esp
  00003	83 ec 44	 sub	 esp, 68			; 00000044H
  00006	53		 push	 ebx
  00007	56		 push	 esi
  00008	57		 push	 edi
  00009	89 4d fc	 mov	 DWORD PTR _this$[ebp], ecx
  0000c	8b 4d fc	 mov	 ecx, DWORD PTR _this$[ebp]
  0000f	e8 00 00 00 00	 call	 ??0CGamePropertyListItem@NGamePropertyListManager@@IAE@XZ ; NGamePropertyListManager::CGamePropertyListItem::CGamePropertyListItem

; 17   : 	//设置变量
; 18   : 	ZeroMemory(&m_PropertyTypeItem,sizeof(m_PropertyTypeItem));

  00014	6a 28		 push	 40			; 00000028H
  00016	6a 00		 push	 0
  00018	8b 45 fc	 mov	 eax, DWORD PTR _this$[ebp]
  0001b	83 c0 01	 add	 eax, 1
  0001e	50		 push	 eax
  0001f	e8 00 00 00 00	 call	 _memset
  00024	83 c4 0c	 add	 esp, 12			; 0000000cH

; 19   : 
; 20   : 	return;
; 21   : }

  00027	8b 45 fc	 mov	 eax, DWORD PTR _this$[ebp]
  0002a	5f		 pop	 edi
  0002b	5e		 pop	 esi
  0002c	5b		 pop	 ebx
  0002d	8b e5		 mov	 esp, ebp
  0002f	5d		 pop	 ebp
  00030	c3		 ret	 0
??0CGamePropertyTypeItem@NGamePropertyListManager@@QAE@XZ ENDP ; NGamePropertyListManager::CGamePropertyTypeItem::CGamePropertyTypeItem
_TEXT	ENDS
; Function compile flags: /Odtp /ZI
; File g:\网狐\happygamewh\服务端\系统模块\服务器组件\登录服务器\gamepropertylistmanager.cpp
;	COMDAT ??0CGamePropertyListItem@NGamePropertyListManager@@IAE@XZ
_TEXT	SEGMENT
_this$ = -4						; size = 4
??0CGamePropertyListItem@NGamePropertyListManager@@IAE@XZ PROC ; NGamePropertyListManager::CGamePropertyListItem::CGamePropertyListItem, COMDAT
; _this$ = ecx

; 8    : {

  00000	55		 push	 ebp
  00001	8b ec		 mov	 ebp, esp
  00003	83 ec 44	 sub	 esp, 68			; 00000044H
  00006	53		 push	 ebx
  00007	56		 push	 esi
  00008	57		 push	 edi
  00009	89 4d fc	 mov	 DWORD PTR _this$[ebp], ecx

; 9    : 	m_bDisuse=false;

  0000c	8b 45 fc	 mov	 eax, DWORD PTR _this$[ebp]
  0000f	c6 00 00	 mov	 BYTE PTR [eax], 0

; 10   : }

  00012	8b 45 fc	 mov	 eax, DWORD PTR _this$[ebp]
  00015	5f		 pop	 edi
  00016	5e		 pop	 esi
  00017	5b		 pop	 ebx
  00018	8b e5		 mov	 esp, ebp
  0001a	5d		 pop	 ebp
  0001b	c3		 ret	 0
??0CGamePropertyListItem@NGamePropertyListManager@@IAE@XZ ENDP ; NGamePropertyListManager::CGamePropertyListItem::CGamePropertyListItem
_TEXT	ENDS
; Function compile flags: /Odtp /ZI
; File c:\program files (x86)\microsoft visual studio\2017\community\vc\tools\msvc\14.16.27023\atlmfc\include\afxtempl.h
;	COMDAT ??$HashKey@K@@YGIK@Z
_TEXT	SEGMENT
$T1 = -80						; size = 8
_HashVal$ = -8						; size = 8
_key$ = 8						; size = 4
??$HashKey@K@@YGIK@Z PROC				; HashKey<unsigned long>, COMDAT

; 161  : {

  00000	55		 push	 ebp
  00001	8b ec		 mov	 ebp, esp
  00003	83 ec 50	 sub	 esp, 80			; 00000050H
  00006	53		 push	 ebx
  00007	56		 push	 esi
  00008	57		 push	 edi

; 162  : 	// (algorithm copied from STL hash in xfunctional)
; 163  : #pragma warning(suppress: 4302) // 'type cast' : truncation
; 164  : #pragma warning(suppress: 4311) // pointer truncation
; 165  : 	ldiv_t HashVal = ldiv((long)(ARG_KEY)key, 127773);

  00009	68 1d f3 01 00	 push	 127773			; 0001f31dH
  0000e	8b 45 08	 mov	 eax, DWORD PTR _key$[ebp]
  00011	50		 push	 eax
  00012	ff 15 00 00 00
	00		 call	 DWORD PTR __imp__ldiv
  00018	83 c4 08	 add	 esp, 8
  0001b	89 45 b0	 mov	 DWORD PTR $T1[ebp], eax
  0001e	89 55 b4	 mov	 DWORD PTR $T1[ebp+4], edx
  00021	8b 4d b0	 mov	 ecx, DWORD PTR $T1[ebp]
  00024	89 4d f8	 mov	 DWORD PTR _HashVal$[ebp], ecx
  00027	8b 55 b4	 mov	 edx, DWORD PTR $T1[ebp+4]
  0002a	89 55 fc	 mov	 DWORD PTR _HashVal$[ebp+4], edx

; 166  : 	HashVal.rem = 16807 * HashVal.rem - 2836 * HashVal.quot;

  0002d	69 45 fc a7 41
	00 00		 imul	 eax, DWORD PTR _HashVal$[ebp+4], 16807
  00034	69 4d f8 14 0b
	00 00		 imul	 ecx, DWORD PTR _HashVal$[ebp], 2836
  0003b	2b c1		 sub	 eax, ecx
  0003d	89 45 fc	 mov	 DWORD PTR _HashVal$[ebp+4], eax

; 167  : 	if (HashVal.rem < 0)

  00040	79 0b		 jns	 SHORT $LN2@HashKey

; 168  : 		HashVal.rem += 2147483647;

  00042	8b 45 fc	 mov	 eax, DWORD PTR _HashVal$[ebp+4]
  00045	05 ff ff ff 7f	 add	 eax, 2147483647		; 7fffffffH
  0004a	89 45 fc	 mov	 DWORD PTR _HashVal$[ebp+4], eax
$LN2@HashKey:

; 169  : 	return ((UINT)HashVal.rem);

  0004d	8b 45 fc	 mov	 eax, DWORD PTR _HashVal$[ebp+4]

; 170  : }

  00050	5f		 pop	 edi
  00051	5e		 pop	 esi
  00052	5b		 pop	 ebx
  00053	8b e5		 mov	 esp, ebp
  00055	5d		 pop	 ebp
  00056	c2 04 00	 ret	 4
??$HashKey@K@@YGIK@Z ENDP				; HashKey<unsigned long>
_TEXT	ENDS
; Function compile flags: /Odtp /ZI
; File c:\program files (x86)\microsoft visual studio\2017\community\vc\tools\msvc\14.16.27023\atlmfc\include\afxplex_.h
;	COMDAT ?data@CPlex@@QAEPAXXZ
_TEXT	SEGMENT
_this$ = -4						; size = 4
?data@CPlex@@QAEPAXXZ PROC				; CPlex::data, COMDAT
; _this$ = ecx

; 35   : 	void* data() { return this+1; }

  00000	55		 push	 ebp
  00001	8b ec		 mov	 ebp, esp
  00003	83 ec 44	 sub	 esp, 68			; 00000044H
  00006	53		 push	 ebx
  00007	56		 push	 esi
  00008	57		 push	 edi
  00009	89 4d fc	 mov	 DWORD PTR _this$[ebp], ecx
  0000c	8b 45 fc	 mov	 eax, DWORD PTR _this$[ebp]
  0000f	83 c0 08	 add	 eax, 8
  00012	5f		 pop	 edi
  00013	5e		 pop	 esi
  00014	5b		 pop	 ebx
  00015	8b e5		 mov	 esp, ebp
  00017	5d		 pop	 ebp
  00018	c3		 ret	 0
?data@CPlex@@QAEPAXXZ ENDP				; CPlex::data
_TEXT	ENDS
; Function compile flags: /Odtp /ZI
; File c:\program files (x86)\microsoft visual studio\2017\community\vc\tools\msvc\14.16.27023\atlmfc\include\afx.h
;	COMDAT ?AfxAssertFailedLine@@YGHPBDH@Z
_TEXT	SEGMENT
_bResult$ = -36						; size = 4
_bQuit$ = -32						; size = 4
_msg$ = -28						; size = 28
_lpszFileName$ = 8					; size = 4
_nLine$ = 12						; size = 4
?AfxAssertFailedLine@@YGHPBDH@Z PROC			; AfxAssertFailedLine, COMDAT

; 312  : {

  00000	55		 push	 ebp
  00001	8b ec		 mov	 ebp, esp
  00003	83 ec 64	 sub	 esp, 100		; 00000064H
  00006	53		 push	 ebx
  00007	56		 push	 esi
  00008	57		 push	 edi

; 313  : 	// we remove WM_QUIT because if it is in the queue then the message box
; 314  : 	// won't display
; 315  : 	MSG msg;
; 316  : 	BOOL bQuit = PeekMessage(&msg, NULL, WM_QUIT, WM_QUIT, PM_REMOVE);

  00009	6a 01		 push	 1
  0000b	6a 12		 push	 18			; 00000012H
  0000d	6a 12		 push	 18			; 00000012H
  0000f	6a 00		 push	 0
  00011	8d 45 e4	 lea	 eax, DWORD PTR _msg$[ebp]
  00014	50		 push	 eax
  00015	ff 15 00 00 00
	00		 call	 DWORD PTR __imp__PeekMessageA@20
  0001b	89 45 e0	 mov	 DWORD PTR _bQuit$[ebp], eax

; 317  : 	BOOL bResult = _CrtDbgReport(_CRT_ASSERT, lpszFileName, nLine, NULL, NULL);

  0001e	6a 00		 push	 0
  00020	6a 00		 push	 0
  00022	8b 45 0c	 mov	 eax, DWORD PTR _nLine$[ebp]
  00025	50		 push	 eax
  00026	8b 4d 08	 mov	 ecx, DWORD PTR _lpszFileName$[ebp]
  00029	51		 push	 ecx
  0002a	6a 02		 push	 2
  0002c	ff 15 00 00 00
	00		 call	 DWORD PTR __imp___CrtDbgReport
  00032	83 c4 14	 add	 esp, 20			; 00000014H
  00035	89 45 dc	 mov	 DWORD PTR _bResult$[ebp], eax

; 318  : 	if (bQuit)

  00038	83 7d e0 00	 cmp	 DWORD PTR _bQuit$[ebp], 0
  0003c	74 0a		 je	 SHORT $LN2@AfxAssertF

; 319  : 		PostQuitMessage((int)msg.wParam);

  0003e	8b 45 ec	 mov	 eax, DWORD PTR _msg$[ebp+8]
  00041	50		 push	 eax
  00042	ff 15 00 00 00
	00		 call	 DWORD PTR __imp__PostQuitMessage@4
$LN2@AfxAssertF:

; 320  : 	return bResult;

  00048	8b 45 dc	 mov	 eax, DWORD PTR _bResult$[ebp]

; 321  : }

  0004b	5f		 pop	 edi
  0004c	5e		 pop	 esi
  0004d	5b		 pop	 ebx
  0004e	8b e5		 mov	 esp, ebp
  00050	5d		 pop	 ebp
  00051	c2 08 00	 ret	 8
?AfxAssertFailedLine@@YGHPBDH@Z ENDP			; AfxAssertFailedLine
_TEXT	ENDS
; Function compile flags: /Odtp /ZI
; File c:\program files (x86)\microsoft visual studio\2017\community\vc\tools\msvc\14.16.27023\include\vcruntime_new.h
;	COMDAT ??2@YAPAXIPAX@Z
_TEXT	SEGMENT
__Size$ = 8						; size = 4
__Where$ = 12						; size = 4
??2@YAPAXIPAX@Z PROC					; operator new, COMDAT

; 185  :     {

  00000	55		 push	 ebp
  00001	8b ec		 mov	 ebp, esp
  00003	83 ec 40	 sub	 esp, 64			; 00000040H
  00006	53		 push	 ebx
  00007	56		 push	 esi
  00008	57		 push	 edi

; 186  :         (void)_Size;
; 187  :         return _Where;

  00009	8b 45 0c	 mov	 eax, DWORD PTR __Where$[ebp]

; 188  :     }

  0000c	5f		 pop	 edi
  0000d	5e		 pop	 esi
  0000e	5b		 pop	 ebx
  0000f	8b e5		 mov	 esp, ebp
  00011	5d		 pop	 ebp
  00012	c3		 ret	 0
??2@YAPAXIPAX@Z ENDP					; operator new
_TEXT	ENDS
; Function compile flags: /Odtp /ZI
; File g:\网狐\happygamewh\服务端\系统模块\服务器组件\登录服务器\gamepropertylistmanager.cpp
;	COMDAT ?__empty_global_delete@@YAXPAXI@Z
_TEXT	SEGMENT
___formal$ = 8						; size = 4
___formal$ = 12						; size = 4
?__empty_global_delete@@YAXPAXI@Z PROC			; __empty_global_delete, COMDAT

  00000	55		 push	 ebp
  00001	8b ec		 mov	 ebp, esp
  00003	83 ec 40	 sub	 esp, 64			; 00000040H
  00006	53		 push	 ebx
  00007	56		 push	 esi
  00008	57		 push	 edi
  00009	5f		 pop	 edi
  0000a	5e		 pop	 esi
  0000b	5b		 pop	 ebx
  0000c	8b e5		 mov	 esp, ebp
  0000e	5d		 pop	 ebp
  0000f	c3		 ret	 0
?__empty_global_delete@@YAXPAXI@Z ENDP			; __empty_global_delete
_TEXT	ENDS
; Function compile flags: /Odtp /ZI
; File g:\网狐\happygamewh\服务端\系统模块\服务器组件\登录服务器\gamepropertylistmanager.cpp
;	COMDAT ?__empty_global_delete@@YAXPAX@Z
_TEXT	SEGMENT
___formal$ = 8						; size = 4
?__empty_global_delete@@YAXPAX@Z PROC			; __empty_global_delete, COMDAT

  00000	55		 push	 ebp
  00001	8b ec		 mov	 ebp, esp
  00003	83 ec 40	 sub	 esp, 64			; 00000040H
  00006	53		 push	 ebx
  00007	56		 push	 esi
  00008	57		 push	 edi
  00009	5f		 pop	 edi
  0000a	5e		 pop	 esi
  0000b	5b		 pop	 ebx
  0000c	8b e5		 mov	 esp, ebp
  0000e	5d		 pop	 ebp
  0000f	c3		 ret	 0
?__empty_global_delete@@YAXPAX@Z ENDP			; __empty_global_delete
_TEXT	ENDS
END
