; Listing generated by Microsoft (R) Optimizing Compiler Version 19.16.27032.1 

	TITLE	G:\网狐\HappyGameWH\服务端\系统模块\服务器组件\登录服务器\GamePropertyListManager.cpp
	.686P
	.XMM
	include listing.inc
	.model	flat

INCLUDELIB MSVCRTD
INCLUDELIB OLDNAMES

PUBLIC	?__empty_global_delete@@YAXPAX@Z		; __empty_global_delete
PUBLIC	?__empty_global_delete@@YAXPAXI@Z		; __empty_global_delete
PUBLIC	??2@YAPAXIPAX@Z					; operator new
PUBLIC	?AfxAssertFailedLine@@YGHPBDH@Z			; AfxAssertFailedLine
PUBLIC	?data@CPlex@@QAEPAXXZ				; CPlex::data
PUBLIC	??$HashKey@K@@YGIK@Z				; HashKey<unsigned long>
PUBLIC	??0CGamePropertyListItem@NGamePropertyListManager@@IAE@XZ ; NGamePropertyListManager::CGamePropertyListItem::CGamePropertyListItem
PUBLIC	??0CGamePropertyTypeItem@NGamePropertyListManager@@QAE@XZ ; NGamePropertyListManager::CGamePropertyTypeItem::CGamePropertyTypeItem
PUBLIC	??0CGamePropertyRelatItem@NGamePropertyListManager@@QAE@XZ ; NGamePropertyListManager::CGamePropertyRelatItem::CGamePropertyRelatItem
PUBLIC	??0CGamePropertyItem@NGamePropertyListManager@@QAE@XZ ; NGamePropertyListManager::CGamePropertyItem::CGamePropertyItem
PUBLIC	??0CGamePropertySubItem@NGamePropertyListManager@@QAE@XZ ; NGamePropertyListManager::CGamePropertySubItem::CGamePropertySubItem
PUBLIC	??0?$CMap@KKPAVCGamePropertyTypeItem@NGamePropertyListManager@@AAPAV12@@@QAE@H@Z ; CMap<unsigned long,unsigned long,NGamePropertyListManager::CGamePropertyTypeItem *,NGamePropertyListManager::CGamePropertyTypeItem * &>::CMap<unsigned long,unsigned long,NGamePropertyListManager::CGamePropertyTypeItem *,NGamePropertyListManager::CGamePropertyTypeItem * &>
PUBLIC	?Lookup@?$CMap@KKPAVCGamePropertyTypeItem@NGamePropertyListManager@@AAPAV12@@@QBEHKAAPAVCGamePropertyTypeItem@NGamePropertyListManager@@@Z ; CMap<unsigned long,unsigned long,NGamePropertyListManager::CGamePropertyTypeItem *,NGamePropertyListManager::CGamePropertyTypeItem * &>::Lookup
PUBLIC	??A?$CMap@KKPAVCGamePropertyTypeItem@NGamePropertyListManager@@AAPAV12@@@QAEAAPAVCGamePropertyTypeItem@NGamePropertyListManager@@K@Z ; CMap<unsigned long,unsigned long,NGamePropertyListManager::CGamePropertyTypeItem *,NGamePropertyListManager::CGamePropertyTypeItem * &>::operator[]
PUBLIC	?SetAt@?$CMap@KKPAVCGamePropertyTypeItem@NGamePropertyListManager@@AAPAV12@@@QAEXKAAPAVCGamePropertyTypeItem@NGamePropertyListManager@@@Z ; CMap<unsigned long,unsigned long,NGamePropertyListManager::CGamePropertyTypeItem *,NGamePropertyListManager::CGamePropertyTypeItem * &>::SetAt
PUBLIC	?RemoveKey@?$CMap@KKPAVCGamePropertyTypeItem@NGamePropertyListManager@@AAPAV12@@@QAEHK@Z ; CMap<unsigned long,unsigned long,NGamePropertyListManager::CGamePropertyTypeItem *,NGamePropertyListManager::CGamePropertyTypeItem * &>::RemoveKey
PUBLIC	?RemoveAll@?$CMap@KKPAVCGamePropertyTypeItem@NGamePropertyListManager@@AAPAV12@@@QAEXXZ ; CMap<unsigned long,unsigned long,NGamePropertyListManager::CGamePropertyTypeItem *,NGamePropertyListManager::CGamePropertyTypeItem * &>::RemoveAll
PUBLIC	?GetStartPosition@?$CMap@KKPAVCGamePropertyTypeItem@NGamePropertyListManager@@AAPAV12@@@QBEPAU__POSITION@@XZ ; CMap<unsigned long,unsigned long,NGamePropertyListManager::CGamePropertyTypeItem *,NGamePropertyListManager::CGamePropertyTypeItem * &>::GetStartPosition
PUBLIC	?GetNextAssoc@?$CMap@KKPAVCGamePropertyTypeItem@NGamePropertyListManager@@AAPAV12@@@QBEXAAPAU__POSITION@@AAKAAPAVCGamePropertyTypeItem@NGamePropertyListManager@@@Z ; CMap<unsigned long,unsigned long,NGamePropertyListManager::CGamePropertyTypeItem *,NGamePropertyListManager::CGamePropertyTypeItem * &>::GetNextAssoc
PUBLIC	?InitHashTable@?$CMap@KKPAVCGamePropertyTypeItem@NGamePropertyListManager@@AAPAV12@@@QAEXIH@Z ; CMap<unsigned long,unsigned long,NGamePropertyListManager::CGamePropertyTypeItem *,NGamePropertyListManager::CGamePropertyTypeItem * &>::InitHashTable
PUBLIC	?NewAssoc@?$CMap@KKPAVCGamePropertyTypeItem@NGamePropertyListManager@@AAPAV12@@@IAEPAVCAssoc@1@K@Z ; CMap<unsigned long,unsigned long,NGamePropertyListManager::CGamePropertyTypeItem *,NGamePropertyListManager::CGamePropertyTypeItem * &>::NewAssoc
PUBLIC	?FreeAssoc@?$CMap@KKPAVCGamePropertyTypeItem@NGamePropertyListManager@@AAPAV12@@@IAEXPAVCAssoc@1@@Z ; CMap<unsigned long,unsigned long,NGamePropertyListManager::CGamePropertyTypeItem *,NGamePropertyListManager::CGamePropertyTypeItem * &>::FreeAssoc
PUBLIC	?GetAssocAt@?$CMap@KKPAVCGamePropertyTypeItem@NGamePropertyListManager@@AAPAV12@@@IBEPAVCAssoc@1@KAAI0@Z ; CMap<unsigned long,unsigned long,NGamePropertyListManager::CGamePropertyTypeItem *,NGamePropertyListManager::CGamePropertyTypeItem * &>::GetAssocAt
PUBLIC	??1?$CMap@KKPAVCGamePropertyTypeItem@NGamePropertyListManager@@AAPAV12@@@UAE@XZ ; CMap<unsigned long,unsigned long,NGamePropertyListManager::CGamePropertyTypeItem *,NGamePropertyListManager::CGamePropertyTypeItem * &>::~CMap<unsigned long,unsigned long,NGamePropertyListManager::CGamePropertyTypeItem *,NGamePropertyListManager::CGamePropertyTypeItem * &>
PUBLIC	?Serialize@?$CMap@KKPAVCGamePropertyTypeItem@NGamePropertyListManager@@AAPAV12@@@UAEXAAVCArchive@@@Z ; CMap<unsigned long,unsigned long,NGamePropertyListManager::CGamePropertyTypeItem *,NGamePropertyListManager::CGamePropertyTypeItem * &>::Serialize
PUBLIC	?Dump@?$CMap@KKPAVCGamePropertyTypeItem@NGamePropertyListManager@@AAPAV12@@@UBEXAAVCDumpContext@@@Z ; CMap<unsigned long,unsigned long,NGamePropertyListManager::CGamePropertyTypeItem *,NGamePropertyListManager::CGamePropertyTypeItem * &>::Dump
PUBLIC	?AssertValid@?$CMap@KKPAVCGamePropertyTypeItem@NGamePropertyListManager@@AAPAV12@@@UBEXXZ ; CMap<unsigned long,unsigned long,NGamePropertyListManager::CGamePropertyTypeItem *,NGamePropertyListManager::CGamePropertyTypeItem * &>::AssertValid
PUBLIC	??_G?$CMap@KKPAVCGamePropertyTypeItem@NGamePropertyListManager@@AAPAV12@@@UAEPAXI@Z ; CMap<unsigned long,unsigned long,NGamePropertyListManager::CGamePropertyTypeItem *,NGamePropertyListManager::CGamePropertyTypeItem * &>::`scalar deleting destructor'
PUBLIC	??0?$CMap@KKPAVCGamePropertyRelatItem@NGamePropertyListManager@@AAPAV12@@@QAE@H@Z ; CMap<unsigned long,unsigned long,NGamePropertyListManager::CGamePropertyRelatItem *,NGamePropertyListManager::CGamePropertyRelatItem * &>::CMap<unsigned long,unsigned long,NGamePropertyListManager::CGamePropertyRelatItem *,NGamePropertyListManager::CGamePropertyRelatItem * &>
PUBLIC	??A?$CMap@KKPAVCGamePropertyRelatItem@NGamePropertyListManager@@AAPAV12@@@QAEAAPAVCGamePropertyRelatItem@NGamePropertyListManager@@K@Z ; CMap<unsigned long,unsigned long,NGamePropertyListManager::CGamePropertyRelatItem *,NGamePropertyListManager::CGamePropertyRelatItem * &>::operator[]
PUBLIC	?SetAt@?$CMap@KKPAVCGamePropertyRelatItem@NGamePropertyListManager@@AAPAV12@@@QAEXKAAPAVCGamePropertyRelatItem@NGamePropertyListManager@@@Z ; CMap<unsigned long,unsigned long,NGamePropertyListManager::CGamePropertyRelatItem *,NGamePropertyListManager::CGamePropertyRelatItem * &>::SetAt
PUBLIC	?RemoveKey@?$CMap@KKPAVCGamePropertyRelatItem@NGamePropertyListManager@@AAPAV12@@@QAEHK@Z ; CMap<unsigned long,unsigned long,NGamePropertyListManager::CGamePropertyRelatItem *,NGamePropertyListManager::CGamePropertyRelatItem * &>::RemoveKey
PUBLIC	?RemoveAll@?$CMap@KKPAVCGamePropertyRelatItem@NGamePropertyListManager@@AAPAV12@@@QAEXXZ ; CMap<unsigned long,unsigned long,NGamePropertyListManager::CGamePropertyRelatItem *,NGamePropertyListManager::CGamePropertyRelatItem * &>::RemoveAll
PUBLIC	?GetStartPosition@?$CMap@KKPAVCGamePropertyRelatItem@NGamePropertyListManager@@AAPAV12@@@QBEPAU__POSITION@@XZ ; CMap<unsigned long,unsigned long,NGamePropertyListManager::CGamePropertyRelatItem *,NGamePropertyListManager::CGamePropertyRelatItem * &>::GetStartPosition
PUBLIC	?GetNextAssoc@?$CMap@KKPAVCGamePropertyRelatItem@NGamePropertyListManager@@AAPAV12@@@QBEXAAPAU__POSITION@@AAKAAPAVCGamePropertyRelatItem@NGamePropertyListManager@@@Z ; CMap<unsigned long,unsigned long,NGamePropertyListManager::CGamePropertyRelatItem *,NGamePropertyListManager::CGamePropertyRelatItem * &>::GetNextAssoc
PUBLIC	?InitHashTable@?$CMap@KKPAVCGamePropertyRelatItem@NGamePropertyListManager@@AAPAV12@@@QAEXIH@Z ; CMap<unsigned long,unsigned long,NGamePropertyListManager::CGamePropertyRelatItem *,NGamePropertyListManager::CGamePropertyRelatItem * &>::InitHashTable
PUBLIC	?NewAssoc@?$CMap@KKPAVCGamePropertyRelatItem@NGamePropertyListManager@@AAPAV12@@@IAEPAVCAssoc@1@K@Z ; CMap<unsigned long,unsigned long,NGamePropertyListManager::CGamePropertyRelatItem *,NGamePropertyListManager::CGamePropertyRelatItem * &>::NewAssoc
PUBLIC	?FreeAssoc@?$CMap@KKPAVCGamePropertyRelatItem@NGamePropertyListManager@@AAPAV12@@@IAEXPAVCAssoc@1@@Z ; CMap<unsigned long,unsigned long,NGamePropertyListManager::CGamePropertyRelatItem *,NGamePropertyListManager::CGamePropertyRelatItem * &>::FreeAssoc
PUBLIC	?GetAssocAt@?$CMap@KKPAVCGamePropertyRelatItem@NGamePropertyListManager@@AAPAV12@@@IBEPAVCAssoc@1@KAAI0@Z ; CMap<unsigned long,unsigned long,NGamePropertyListManager::CGamePropertyRelatItem *,NGamePropertyListManager::CGamePropertyRelatItem * &>::GetAssocAt
PUBLIC	??1?$CMap@KKPAVCGamePropertyRelatItem@NGamePropertyListManager@@AAPAV12@@@UAE@XZ ; CMap<unsigned long,unsigned long,NGamePropertyListManager::CGamePropertyRelatItem *,NGamePropertyListManager::CGamePropertyRelatItem * &>::~CMap<unsigned long,unsigned long,NGamePropertyListManager::CGamePropertyRelatItem *,NGamePropertyListManager::CGamePropertyRelatItem * &>
PUBLIC	?Serialize@?$CMap@KKPAVCGamePropertyRelatItem@NGamePropertyListManager@@AAPAV12@@@UAEXAAVCArchive@@@Z ; CMap<unsigned long,unsigned long,NGamePropertyListManager::CGamePropertyRelatItem *,NGamePropertyListManager::CGamePropertyRelatItem * &>::Serialize
PUBLIC	?Dump@?$CMap@KKPAVCGamePropertyRelatItem@NGamePropertyListManager@@AAPAV12@@@UBEXAAVCDumpContext@@@Z ; CMap<unsigned long,unsigned long,NGamePropertyListManager::CGamePropertyRelatItem *,NGamePropertyListManager::CGamePropertyRelatItem * &>::Dump
PUBLIC	?AssertValid@?$CMap@KKPAVCGamePropertyRelatItem@NGamePropertyListManager@@AAPAV12@@@UBEXXZ ; CMap<unsigned long,unsigned long,NGamePropertyListManager::CGamePropertyRelatItem *,NGamePropertyListManager::CGamePropertyRelatItem * &>::AssertValid
PUBLIC	??_G?$CMap@KKPAVCGamePropertyRelatItem@NGamePropertyListManager@@AAPAV12@@@UAEPAXI@Z ; CMap<unsigned long,unsigned long,NGamePropertyListManager::CGamePropertyRelatItem *,NGamePropertyListManager::CGamePropertyRelatItem * &>::`scalar deleting destructor'
PUBLIC	??0?$CMap@KKPAVCGamePropertyItem@NGamePropertyListManager@@AAPAV12@@@QAE@H@Z ; CMap<unsigned long,unsigned long,NGamePropertyListManager::CGamePropertyItem *,NGamePropertyListManager::CGamePropertyItem * &>::CMap<unsigned long,unsigned long,NGamePropertyListManager::CGamePropertyItem *,NGamePropertyListManager::CGamePropertyItem * &>
PUBLIC	?Lookup@?$CMap@KKPAVCGamePropertyItem@NGamePropertyListManager@@AAPAV12@@@QBEHKAAPAVCGamePropertyItem@NGamePropertyListManager@@@Z ; CMap<unsigned long,unsigned long,NGamePropertyListManager::CGamePropertyItem *,NGamePropertyListManager::CGamePropertyItem * &>::Lookup
PUBLIC	??A?$CMap@KKPAVCGamePropertyItem@NGamePropertyListManager@@AAPAV12@@@QAEAAPAVCGamePropertyItem@NGamePropertyListManager@@K@Z ; CMap<unsigned long,unsigned long,NGamePropertyListManager::CGamePropertyItem *,NGamePropertyListManager::CGamePropertyItem * &>::operator[]
PUBLIC	?SetAt@?$CMap@KKPAVCGamePropertyItem@NGamePropertyListManager@@AAPAV12@@@QAEXKAAPAVCGamePropertyItem@NGamePropertyListManager@@@Z ; CMap<unsigned long,unsigned long,NGamePropertyListManager::CGamePropertyItem *,NGamePropertyListManager::CGamePropertyItem * &>::SetAt
PUBLIC	?RemoveKey@?$CMap@KKPAVCGamePropertyItem@NGamePropertyListManager@@AAPAV12@@@QAEHK@Z ; CMap<unsigned long,unsigned long,NGamePropertyListManager::CGamePropertyItem *,NGamePropertyListManager::CGamePropertyItem * &>::RemoveKey
PUBLIC	?RemoveAll@?$CMap@KKPAVCGamePropertyItem@NGamePropertyListManager@@AAPAV12@@@QAEXXZ ; CMap<unsigned long,unsigned long,NGamePropertyListManager::CGamePropertyItem *,NGamePropertyListManager::CGamePropertyItem * &>::RemoveAll
PUBLIC	?GetStartPosition@?$CMap@KKPAVCGamePropertyItem@NGamePropertyListManager@@AAPAV12@@@QBEPAU__POSITION@@XZ ; CMap<unsigned long,unsigned long,NGamePropertyListManager::CGamePropertyItem *,NGamePropertyListManager::CGamePropertyItem * &>::GetStartPosition
PUBLIC	?GetNextAssoc@?$CMap@KKPAVCGamePropertyItem@NGamePropertyListManager@@AAPAV12@@@QBEXAAPAU__POSITION@@AAKAAPAVCGamePropertyItem@NGamePropertyListManager@@@Z ; CMap<unsigned long,unsigned long,NGamePropertyListManager::CGamePropertyItem *,NGamePropertyListManager::CGamePropertyItem * &>::GetNextAssoc
PUBLIC	?InitHashTable@?$CMap@KKPAVCGamePropertyItem@NGamePropertyListManager@@AAPAV12@@@QAEXIH@Z ; CMap<unsigned long,unsigned long,NGamePropertyListManager::CGamePropertyItem *,NGamePropertyListManager::CGamePropertyItem * &>::InitHashTable
PUBLIC	?NewAssoc@?$CMap@KKPAVCGamePropertyItem@NGamePropertyListManager@@AAPAV12@@@IAEPAVCAssoc@1@K@Z ; CMap<unsigned long,unsigned long,NGamePropertyListManager::CGamePropertyItem *,NGamePropertyListManager::CGamePropertyItem * &>::NewAssoc
PUBLIC	?FreeAssoc@?$CMap@KKPAVCGamePropertyItem@NGamePropertyListManager@@AAPAV12@@@IAEXPAVCAssoc@1@@Z ; CMap<unsigned long,unsigned long,NGamePropertyListManager::CGamePropertyItem *,NGamePropertyListManager::CGamePropertyItem * &>::FreeAssoc
PUBLIC	?GetAssocAt@?$CMap@KKPAVCGamePropertyItem@NGamePropertyListManager@@AAPAV12@@@IBEPAVCAssoc@1@KAAI0@Z ; CMap<unsigned long,unsigned long,NGamePropertyListManager::CGamePropertyItem *,NGamePropertyListManager::CGamePropertyItem * &>::GetAssocAt
PUBLIC	??1?$CMap@KKPAVCGamePropertyItem@NGamePropertyListManager@@AAPAV12@@@UAE@XZ ; CMap<unsigned long,unsigned long,NGamePropertyListManager::CGamePropertyItem *,NGamePropertyListManager::CGamePropertyItem * &>::~CMap<unsigned long,unsigned long,NGamePropertyListManager::CGamePropertyItem *,NGamePropertyListManager::CGamePropertyItem * &>
PUBLIC	?Serialize@?$CMap@KKPAVCGamePropertyItem@NGamePropertyListManager@@AAPAV12@@@UAEXAAVCArchive@@@Z ; CMap<unsigned long,unsigned long,NGamePropertyListManager::CGamePropertyItem *,NGamePropertyListManager::CGamePropertyItem * &>::Serialize
PUBLIC	?Dump@?$CMap@KKPAVCGamePropertyItem@NGamePropertyListManager@@AAPAV12@@@UBEXAAVCDumpContext@@@Z ; CMap<unsigned long,unsigned long,NGamePropertyListManager::CGamePropertyItem *,NGamePropertyListManager::CGamePropertyItem * &>::Dump
PUBLIC	?AssertValid@?$CMap@KKPAVCGamePropertyItem@NGamePropertyListManager@@AAPAV12@@@UBEXXZ ; CMap<unsigned long,unsigned long,NGamePropertyListManager::CGamePropertyItem *,NGamePropertyListManager::CGamePropertyItem * &>::AssertValid
PUBLIC	??_G?$CMap@KKPAVCGamePropertyItem@NGamePropertyListManager@@AAPAV12@@@UAEPAXI@Z ; CMap<unsigned long,unsigned long,NGamePropertyListManager::CGamePropertyItem *,NGamePropertyListManager::CGamePropertyItem * &>::`scalar deleting destructor'
PUBLIC	??0?$CMap@KKPAVCGamePropertySubItem@NGamePropertyListManager@@AAPAV12@@@QAE@H@Z ; CMap<unsigned long,unsigned long,NGamePropertyListManager::CGamePropertySubItem *,NGamePropertyListManager::CGamePropertySubItem * &>::CMap<unsigned long,unsigned long,NGamePropertyListManager::CGamePropertySubItem *,NGamePropertyListManager::CGamePropertySubItem * &>
PUBLIC	??A?$CMap@KKPAVCGamePropertySubItem@NGamePropertyListManager@@AAPAV12@@@QAEAAPAVCGamePropertySubItem@NGamePropertyListManager@@K@Z ; CMap<unsigned long,unsigned long,NGamePropertyListManager::CGamePropertySubItem *,NGamePropertyListManager::CGamePropertySubItem * &>::operator[]
PUBLIC	?SetAt@?$CMap@KKPAVCGamePropertySubItem@NGamePropertyListManager@@AAPAV12@@@QAEXKAAPAVCGamePropertySubItem@NGamePropertyListManager@@@Z ; CMap<unsigned long,unsigned long,NGamePropertyListManager::CGamePropertySubItem *,NGamePropertyListManager::CGamePropertySubItem * &>::SetAt
PUBLIC	?RemoveKey@?$CMap@KKPAVCGamePropertySubItem@NGamePropertyListManager@@AAPAV12@@@QAEHK@Z ; CMap<unsigned long,unsigned long,NGamePropertyListManager::CGamePropertySubItem *,NGamePropertyListManager::CGamePropertySubItem * &>::RemoveKey
PUBLIC	?RemoveAll@?$CMap@KKPAVCGamePropertySubItem@NGamePropertyListManager@@AAPAV12@@@QAEXXZ ; CMap<unsigned long,unsigned long,NGamePropertyListManager::CGamePropertySubItem *,NGamePropertyListManager::CGamePropertySubItem * &>::RemoveAll
PUBLIC	?GetStartPosition@?$CMap@KKPAVCGamePropertySubItem@NGamePropertyListManager@@AAPAV12@@@QBEPAU__POSITION@@XZ ; CMap<unsigned long,unsigned long,NGamePropertyListManager::CGamePropertySubItem *,NGamePropertyListManager::CGamePropertySubItem * &>::GetStartPosition
PUBLIC	?GetNextAssoc@?$CMap@KKPAVCGamePropertySubItem@NGamePropertyListManager@@AAPAV12@@@QBEXAAPAU__POSITION@@AAKAAPAVCGamePropertySubItem@NGamePropertyListManager@@@Z ; CMap<unsigned long,unsigned long,NGamePropertyListManager::CGamePropertySubItem *,NGamePropertyListManager::CGamePropertySubItem * &>::GetNextAssoc
PUBLIC	?InitHashTable@?$CMap@KKPAVCGamePropertySubItem@NGamePropertyListManager@@AAPAV12@@@QAEXIH@Z ; CMap<unsigned long,unsigned long,NGamePropertyListManager::CGamePropertySubItem *,NGamePropertyListManager::CGamePropertySubItem * &>::InitHashTable
PUBLIC	?NewAssoc@?$CMap@KKPAVCGamePropertySubItem@NGamePropertyListManager@@AAPAV12@@@IAEPAVCAssoc@1@K@Z ; CMap<unsigned long,unsigned long,NGamePropertyListManager::CGamePropertySubItem *,NGamePropertyListManager::CGamePropertySubItem * &>::NewAssoc
PUBLIC	?FreeAssoc@?$CMap@KKPAVCGamePropertySubItem@NGamePropertyListManager@@AAPAV12@@@IAEXPAVCAssoc@1@@Z ; CMap<unsigned long,unsigned long,NGamePropertyListManager::CGamePropertySubItem *,NGamePropertyListManager::CGamePropertySubItem * &>::FreeAssoc
PUBLIC	?GetAssocAt@?$CMap@KKPAVCGamePropertySubItem@NGamePropertyListManager@@AAPAV12@@@IBEPAVCAssoc@1@KAAI0@Z ; CMap<unsigned long,unsigned long,NGamePropertyListManager::CGamePropertySubItem *,NGamePropertyListManager::CGamePropertySubItem * &>::GetAssocAt
PUBLIC	??1?$CMap@KKPAVCGamePropertySubItem@NGamePropertyListManager@@AAPAV12@@@UAE@XZ ; CMap<unsigned long,unsigned long,NGamePropertyListManager::CGamePropertySubItem *,NGamePropertyListManager::CGamePropertySubItem * &>::~CMap<unsigned long,unsigned long,NGamePropertyListManager::CGamePropertySubItem *,NGamePropertyListManager::CGamePropertySubItem * &>
PUBLIC	?Serialize@?$CMap@KKPAVCGamePropertySubItem@NGamePropertyListManager@@AAPAV12@@@UAEXAAVCArchive@@@Z ; CMap<unsigned long,unsigned long,NGamePropertyListManager::CGamePropertySubItem *,NGamePropertyListManager::CGamePropertySubItem * &>::Serialize
PUBLIC	?Dump@?$CMap@KKPAVCGamePropertySubItem@NGamePropertyListManager@@AAPAV12@@@UBEXAAVCDumpContext@@@Z ; CMap<unsigned long,unsigned long,NGamePropertyListManager::CGamePropertySubItem *,NGamePropertyListManager::CGamePropertySubItem * &>::Dump
PUBLIC	?AssertValid@?$CMap@KKPAVCGamePropertySubItem@NGamePropertyListManager@@AAPAV12@@@UBEXXZ ; CMap<unsigned long,unsigned long,NGamePropertyListManager::CGamePropertySubItem *,NGamePropertyListManager::CGamePropertySubItem * &>::AssertValid
PUBLIC	??_G?$CMap@KKPAVCGamePropertySubItem@NGamePropertyListManager@@AAPAV12@@@UAEPAXI@Z ; CMap<unsigned long,unsigned long,NGamePropertyListManager::CGamePropertySubItem *,NGamePropertyListManager::CGamePropertySubItem * &>::`scalar deleting destructor'
PUBLIC	??0?$CWHArray@PAVCGamePropertyTypeItem@NGamePropertyListManager@@ABQAV12@@@QAE@XZ ; CWHArray<NGamePropertyListManager::CGamePropertyTypeItem *,NGamePropertyListManager::CGamePropertyTypeItem * const &>::CWHArray<NGamePropertyListManager::CGamePropertyTypeItem *,NGamePropertyListManager::CGamePropertyTypeItem * const &>
PUBLIC	??1?$CWHArray@PAVCGamePropertyTypeItem@NGamePropertyListManager@@ABQAV12@@@UAE@XZ ; CWHArray<NGamePropertyListManager::CGamePropertyTypeItem *,NGamePropertyListManager::CGamePropertyTypeItem * const &>::~CWHArray<NGamePropertyListManager::CGamePropertyTypeItem *,NGamePropertyListManager::CGamePropertyTypeItem * const &>
PUBLIC	?GetCount@?$CWHArray@PAVCGamePropertyTypeItem@NGamePropertyListManager@@ABQAV12@@@QBEHXZ ; CWHArray<NGamePropertyListManager::CGamePropertyTypeItem *,NGamePropertyListManager::CGamePropertyTypeItem * const &>::GetCount
PUBLIC	?Add@?$CWHArray@PAVCGamePropertyTypeItem@NGamePropertyListManager@@ABQAV12@@@QAEHABQAVCGamePropertyTypeItem@NGamePropertyListManager@@@Z ; CWHArray<NGamePropertyListManager::CGamePropertyTypeItem *,NGamePropertyListManager::CGamePropertyTypeItem * const &>::Add
PUBLIC	?ElementAt@?$CWHArray@PAVCGamePropertyTypeItem@NGamePropertyListManager@@ABQAV12@@@QAEAAPAVCGamePropertyTypeItem@NGamePropertyListManager@@H@Z ; CWHArray<NGamePropertyListManager::CGamePropertyTypeItem *,NGamePropertyListManager::CGamePropertyTypeItem * const &>::ElementAt
PUBLIC	?SetSize@?$CWHArray@PAVCGamePropertyTypeItem@NGamePropertyListManager@@ABQAV12@@@QAEXH@Z ; CWHArray<NGamePropertyListManager::CGamePropertyTypeItem *,NGamePropertyListManager::CGamePropertyTypeItem * const &>::SetSize
PUBLIC	?SetAtGrow@?$CWHArray@PAVCGamePropertyTypeItem@NGamePropertyListManager@@ABQAV12@@@QAEXHABQAVCGamePropertyTypeItem@NGamePropertyListManager@@@Z ; CWHArray<NGamePropertyListManager::CGamePropertyTypeItem *,NGamePropertyListManager::CGamePropertyTypeItem * const &>::SetAtGrow
PUBLIC	?RemoveAt@?$CWHArray@PAVCGamePropertyTypeItem@NGamePropertyListManager@@ABQAV12@@@QAEXHH@Z ; CWHArray<NGamePropertyListManager::CGamePropertyTypeItem *,NGamePropertyListManager::CGamePropertyTypeItem * const &>::RemoveAt
PUBLIC	?RemoveAll@?$CWHArray@PAVCGamePropertyTypeItem@NGamePropertyListManager@@ABQAV12@@@QAEXXZ ; CWHArray<NGamePropertyListManager::CGamePropertyTypeItem *,NGamePropertyListManager::CGamePropertyTypeItem * const &>::RemoveAll
PUBLIC	??A?$CWHArray@PAVCGamePropertyTypeItem@NGamePropertyListManager@@ABQAV12@@@QAEAAPAVCGamePropertyTypeItem@NGamePropertyListManager@@H@Z ; CWHArray<NGamePropertyListManager::CGamePropertyTypeItem *,NGamePropertyListManager::CGamePropertyTypeItem * const &>::operator[]
PUBLIC	?AllocMemory@?$CWHArray@PAVCGamePropertyTypeItem@NGamePropertyListManager@@ABQAV12@@@QAEXH@Z ; CWHArray<NGamePropertyListManager::CGamePropertyTypeItem *,NGamePropertyListManager::CGamePropertyTypeItem * const &>::AllocMemory
PUBLIC	??_G?$CWHArray@PAVCGamePropertyTypeItem@NGamePropertyListManager@@ABQAV12@@@UAEPAXI@Z ; CWHArray<NGamePropertyListManager::CGamePropertyTypeItem *,NGamePropertyListManager::CGamePropertyTypeItem * const &>::`scalar deleting destructor'
PUBLIC	??0?$CWHArray@PAVCGamePropertyRelatItem@NGamePropertyListManager@@ABQAV12@@@QAE@XZ ; CWHArray<NGamePropertyListManager::CGamePropertyRelatItem *,NGamePropertyListManager::CGamePropertyRelatItem * const &>::CWHArray<NGamePropertyListManager::CGamePropertyRelatItem *,NGamePropertyListManager::CGamePropertyRelatItem * const &>
PUBLIC	??1?$CWHArray@PAVCGamePropertyRelatItem@NGamePropertyListManager@@ABQAV12@@@UAE@XZ ; CWHArray<NGamePropertyListManager::CGamePropertyRelatItem *,NGamePropertyListManager::CGamePropertyRelatItem * const &>::~CWHArray<NGamePropertyListManager::CGamePropertyRelatItem *,NGamePropertyListManager::CGamePropertyRelatItem * const &>
PUBLIC	?GetCount@?$CWHArray@PAVCGamePropertyRelatItem@NGamePropertyListManager@@ABQAV12@@@QBEHXZ ; CWHArray<NGamePropertyListManager::CGamePropertyRelatItem *,NGamePropertyListManager::CGamePropertyRelatItem * const &>::GetCount
PUBLIC	?Add@?$CWHArray@PAVCGamePropertyRelatItem@NGamePropertyListManager@@ABQAV12@@@QAEHABQAVCGamePropertyRelatItem@NGamePropertyListManager@@@Z ; CWHArray<NGamePropertyListManager::CGamePropertyRelatItem *,NGamePropertyListManager::CGamePropertyRelatItem * const &>::Add
PUBLIC	?ElementAt@?$CWHArray@PAVCGamePropertyRelatItem@NGamePropertyListManager@@ABQAV12@@@QAEAAPAVCGamePropertyRelatItem@NGamePropertyListManager@@H@Z ; CWHArray<NGamePropertyListManager::CGamePropertyRelatItem *,NGamePropertyListManager::CGamePropertyRelatItem * const &>::ElementAt
PUBLIC	?SetSize@?$CWHArray@PAVCGamePropertyRelatItem@NGamePropertyListManager@@ABQAV12@@@QAEXH@Z ; CWHArray<NGamePropertyListManager::CGamePropertyRelatItem *,NGamePropertyListManager::CGamePropertyRelatItem * const &>::SetSize
PUBLIC	?SetAtGrow@?$CWHArray@PAVCGamePropertyRelatItem@NGamePropertyListManager@@ABQAV12@@@QAEXHABQAVCGamePropertyRelatItem@NGamePropertyListManager@@@Z ; CWHArray<NGamePropertyListManager::CGamePropertyRelatItem *,NGamePropertyListManager::CGamePropertyRelatItem * const &>::SetAtGrow
PUBLIC	?RemoveAll@?$CWHArray@PAVCGamePropertyRelatItem@NGamePropertyListManager@@ABQAV12@@@QAEXXZ ; CWHArray<NGamePropertyListManager::CGamePropertyRelatItem *,NGamePropertyListManager::CGamePropertyRelatItem * const &>::RemoveAll
PUBLIC	??A?$CWHArray@PAVCGamePropertyRelatItem@NGamePropertyListManager@@ABQAV12@@@QAEAAPAVCGamePropertyRelatItem@NGamePropertyListManager@@H@Z ; CWHArray<NGamePropertyListManager::CGamePropertyRelatItem *,NGamePropertyListManager::CGamePropertyRelatItem * const &>::operator[]
PUBLIC	?AllocMemory@?$CWHArray@PAVCGamePropertyRelatItem@NGamePropertyListManager@@ABQAV12@@@QAEXH@Z ; CWHArray<NGamePropertyListManager::CGamePropertyRelatItem *,NGamePropertyListManager::CGamePropertyRelatItem * const &>::AllocMemory
PUBLIC	??_G?$CWHArray@PAVCGamePropertyRelatItem@NGamePropertyListManager@@ABQAV12@@@UAEPAXI@Z ; CWHArray<NGamePropertyListManager::CGamePropertyRelatItem *,NGamePropertyListManager::CGamePropertyRelatItem * const &>::`scalar deleting destructor'
PUBLIC	??0?$CWHArray@PAVCGamePropertyItem@NGamePropertyListManager@@ABQAV12@@@QAE@XZ ; CWHArray<NGamePropertyListManager::CGamePropertyItem *,NGamePropertyListManager::CGamePropertyItem * const &>::CWHArray<NGamePropertyListManager::CGamePropertyItem *,NGamePropertyListManager::CGamePropertyItem * const &>
PUBLIC	??1?$CWHArray@PAVCGamePropertyItem@NGamePropertyListManager@@ABQAV12@@@UAE@XZ ; CWHArray<NGamePropertyListManager::CGamePropertyItem *,NGamePropertyListManager::CGamePropertyItem * const &>::~CWHArray<NGamePropertyListManager::CGamePropertyItem *,NGamePropertyListManager::CGamePropertyItem * const &>
PUBLIC	?GetCount@?$CWHArray@PAVCGamePropertyItem@NGamePropertyListManager@@ABQAV12@@@QBEHXZ ; CWHArray<NGamePropertyListManager::CGamePropertyItem *,NGamePropertyListManager::CGamePropertyItem * const &>::GetCount
PUBLIC	?Add@?$CWHArray@PAVCGamePropertyItem@NGamePropertyListManager@@ABQAV12@@@QAEHABQAVCGamePropertyItem@NGamePropertyListManager@@@Z ; CWHArray<NGamePropertyListManager::CGamePropertyItem *,NGamePropertyListManager::CGamePropertyItem * const &>::Add
PUBLIC	?ElementAt@?$CWHArray@PAVCGamePropertyItem@NGamePropertyListManager@@ABQAV12@@@QAEAAPAVCGamePropertyItem@NGamePropertyListManager@@H@Z ; CWHArray<NGamePropertyListManager::CGamePropertyItem *,NGamePropertyListManager::CGamePropertyItem * const &>::ElementAt
PUBLIC	?SetSize@?$CWHArray@PAVCGamePropertyItem@NGamePropertyListManager@@ABQAV12@@@QAEXH@Z ; CWHArray<NGamePropertyListManager::CGamePropertyItem *,NGamePropertyListManager::CGamePropertyItem * const &>::SetSize
PUBLIC	?SetAtGrow@?$CWHArray@PAVCGamePropertyItem@NGamePropertyListManager@@ABQAV12@@@QAEXHABQAVCGamePropertyItem@NGamePropertyListManager@@@Z ; CWHArray<NGamePropertyListManager::CGamePropertyItem *,NGamePropertyListManager::CGamePropertyItem * const &>::SetAtGrow
PUBLIC	?RemoveAt@?$CWHArray@PAVCGamePropertyItem@NGamePropertyListManager@@ABQAV12@@@QAEXHH@Z ; CWHArray<NGamePropertyListManager::CGamePropertyItem *,NGamePropertyListManager::CGamePropertyItem * const &>::RemoveAt
PUBLIC	?RemoveAll@?$CWHArray@PAVCGamePropertyItem@NGamePropertyListManager@@ABQAV12@@@QAEXXZ ; CWHArray<NGamePropertyListManager::CGamePropertyItem *,NGamePropertyListManager::CGamePropertyItem * const &>::RemoveAll
PUBLIC	??A?$CWHArray@PAVCGamePropertyItem@NGamePropertyListManager@@ABQAV12@@@QAEAAPAVCGamePropertyItem@NGamePropertyListManager@@H@Z ; CWHArray<NGamePropertyListManager::CGamePropertyItem *,NGamePropertyListManager::CGamePropertyItem * const &>::operator[]
PUBLIC	?AllocMemory@?$CWHArray@PAVCGamePropertyItem@NGamePropertyListManager@@ABQAV12@@@QAEXH@Z ; CWHArray<NGamePropertyListManager::CGamePropertyItem *,NGamePropertyListManager::CGamePropertyItem * const &>::AllocMemory
PUBLIC	??_G?$CWHArray@PAVCGamePropertyItem@NGamePropertyListManager@@ABQAV12@@@UAEPAXI@Z ; CWHArray<NGamePropertyListManager::CGamePropertyItem *,NGamePropertyListManager::CGamePropertyItem * const &>::`scalar deleting destructor'
PUBLIC	??0?$CWHArray@PAVCGamePropertySubItem@NGamePropertyListManager@@ABQAV12@@@QAE@XZ ; CWHArray<NGamePropertyListManager::CGamePropertySubItem *,NGamePropertyListManager::CGamePropertySubItem * const &>::CWHArray<NGamePropertyListManager::CGamePropertySubItem *,NGamePropertyListManager::CGamePropertySubItem * const &>
PUBLIC	??1?$CWHArray@PAVCGamePropertySubItem@NGamePropertyListManager@@ABQAV12@@@UAE@XZ ; CWHArray<NGamePropertyListManager::CGamePropertySubItem *,NGamePropertyListManager::CGamePropertySubItem * const &>::~CWHArray<NGamePropertyListManager::CGamePropertySubItem *,NGamePropertyListManager::CGamePropertySubItem * const &>
PUBLIC	?GetCount@?$CWHArray@PAVCGamePropertySubItem@NGamePropertyListManager@@ABQAV12@@@QBEHXZ ; CWHArray<NGamePropertyListManager::CGamePropertySubItem *,NGamePropertyListManager::CGamePropertySubItem * const &>::GetCount
PUBLIC	?Add@?$CWHArray@PAVCGamePropertySubItem@NGamePropertyListManager@@ABQAV12@@@QAEHABQAVCGamePropertySubItem@NGamePropertyListManager@@@Z ; CWHArray<NGamePropertyListManager::CGamePropertySubItem *,NGamePropertyListManager::CGamePropertySubItem * const &>::Add
PUBLIC	?ElementAt@?$CWHArray@PAVCGamePropertySubItem@NGamePropertyListManager@@ABQAV12@@@QAEAAPAVCGamePropertySubItem@NGamePropertyListManager@@H@Z ; CWHArray<NGamePropertyListManager::CGamePropertySubItem *,NGamePropertyListManager::CGamePropertySubItem * const &>::ElementAt
PUBLIC	?SetSize@?$CWHArray@PAVCGamePropertySubItem@NGamePropertyListManager@@ABQAV12@@@QAEXH@Z ; CWHArray<NGamePropertyListManager::CGamePropertySubItem *,NGamePropertyListManager::CGamePropertySubItem * const &>::SetSize
PUBLIC	?SetAtGrow@?$CWHArray@PAVCGamePropertySubItem@NGamePropertyListManager@@ABQAV12@@@QAEXHABQAVCGamePropertySubItem@NGamePropertyListManager@@@Z ; CWHArray<NGamePropertyListManager::CGamePropertySubItem *,NGamePropertyListManager::CGamePropertySubItem * const &>::SetAtGrow
PUBLIC	?RemoveAll@?$CWHArray@PAVCGamePropertySubItem@NGamePropertyListManager@@ABQAV12@@@QAEXXZ ; CWHArray<NGamePropertyListManager::CGamePropertySubItem *,NGamePropertyListManager::CGamePropertySubItem * const &>::RemoveAll
PUBLIC	??A?$CWHArray@PAVCGamePropertySubItem@NGamePropertyListManager@@ABQAV12@@@QAEAAPAVCGamePropertySubItem@NGamePropertyListManager@@H@Z ; CWHArray<NGamePropertyListManager::CGamePropertySubItem *,NGamePropertyListManager::CGamePropertySubItem * const &>::operator[]
PUBLIC	?AllocMemory@?$CWHArray@PAVCGamePropertySubItem@NGamePropertyListManager@@ABQAV12@@@QAEXH@Z ; CWHArray<NGamePropertyListManager::CGamePropertySubItem *,NGamePropertyListManager::CGamePropertySubItem * const &>::AllocMemory
PUBLIC	??_G?$CWHArray@PAVCGamePropertySubItem@NGamePropertyListManager@@ABQAV12@@@UAEPAXI@Z ; CWHArray<NGamePropertyListManager::CGamePropertySubItem *,NGamePropertyListManager::CGamePropertySubItem * const &>::`scalar deleting destructor'
PUBLIC	??0CGamePropertyListManager@NGamePropertyListManager@@QAE@XZ ; NGamePropertyListManager::CGamePropertyListManager::CGamePropertyListManager
PUBLIC	??1CGamePropertyListManager@NGamePropertyListManager@@UAE@XZ ; NGamePropertyListManager::CGamePropertyListManager::~CGamePropertyListManager
PUBLIC	?ResetPropertyListManager@CGamePropertyListManager@NGamePropertyListManager@@QAEXXZ ; NGamePropertyListManager::CGamePropertyListManager::ResetPropertyListManager
PUBLIC	?CleanPropertyTypeItem@CGamePropertyListManager@NGamePropertyListManager@@QAEXXZ ; NGamePropertyListManager::CGamePropertyListManager::CleanPropertyTypeItem
PUBLIC	?CleanPropertyRelatItem@CGamePropertyListManager@NGamePropertyListManager@@QAEXXZ ; NGamePropertyListManager::CGamePropertyListManager::CleanPropertyRelatItem
PUBLIC	?CleanPropertyItem@CGamePropertyListManager@NGamePropertyListManager@@QAEXXZ ; NGamePropertyListManager::CGamePropertyListManager::CleanPropertyItem
PUBLIC	?CleanPropertySubItem@CGamePropertyListManager@NGamePropertyListManager@@QAEXXZ ; NGamePropertyListManager::CGamePropertyListManager::CleanPropertySubItem
PUBLIC	?DisusePropertyTypeItem@CGamePropertyListManager@NGamePropertyListManager@@QAEXXZ ; NGamePropertyListManager::CGamePropertyListManager::DisusePropertyTypeItem
PUBLIC	?DisusePropertyRelatItem@CGamePropertyListManager@NGamePropertyListManager@@QAEXXZ ; NGamePropertyListManager::CGamePropertyListManager::DisusePropertyRelatItem
PUBLIC	?DisusePropertyItem@CGamePropertyListManager@NGamePropertyListManager@@QAEXXZ ; NGamePropertyListManager::CGamePropertyListManager::DisusePropertyItem
PUBLIC	?DisusePropertySubItem@CGamePropertyListManager@NGamePropertyListManager@@QAEXXZ ; NGamePropertyListManager::CGamePropertyListManager::DisusePropertySubItem
PUBLIC	?InsertGamePropertyTypeItem@CGamePropertyListManager@NGamePropertyListManager@@QAE_NPAUtagPropertyTypeItem@@@Z ; NGamePropertyListManager::CGamePropertyListManager::InsertGamePropertyTypeItem
PUBLIC	?InsertGamePropertyRelatItem@CGamePropertyListManager@NGamePropertyListManager@@QAE_NPAUtagPropertyRelatItem@@@Z ; NGamePropertyListManager::CGamePropertyListManager::InsertGamePropertyRelatItem
PUBLIC	?InsertGamePropertyItem@CGamePropertyListManager@NGamePropertyListManager@@QAE_NPAUtagPropertyItem@@@Z ; NGamePropertyListManager::CGamePropertyListManager::InsertGamePropertyItem
PUBLIC	?InsertGamePropertySubItem@CGamePropertyListManager@NGamePropertyListManager@@QAE_NPAUtagPropertySubItem@@@Z ; NGamePropertyListManager::CGamePropertyListManager::InsertGamePropertySubItem
PUBLIC	?DeleteGamePropertyTypeItem@CGamePropertyListManager@NGamePropertyListManager@@QAE_NK@Z ; NGamePropertyListManager::CGamePropertyListManager::DeleteGamePropertyTypeItem
PUBLIC	?DeleteGamePropertyItem@CGamePropertyListManager@NGamePropertyListManager@@QAE_NK@Z ; NGamePropertyListManager::CGamePropertyListManager::DeleteGamePropertyItem
PUBLIC	?EmunGamePropertyTypeItem@CGamePropertyListManager@NGamePropertyListManager@@QAEPAVCGamePropertyTypeItem@2@AAPAU__POSITION@@@Z ; NGamePropertyListManager::CGamePropertyListManager::EmunGamePropertyTypeItem
PUBLIC	?EmunGamePropertyRelatItem@CGamePropertyListManager@NGamePropertyListManager@@QAEPAVCGamePropertyRelatItem@2@AAPAU__POSITION@@@Z ; NGamePropertyListManager::CGamePropertyListManager::EmunGamePropertyRelatItem
PUBLIC	?EmunGamePropertyItem@CGamePropertyListManager@NGamePropertyListManager@@QAEPAVCGamePropertyItem@2@AAPAU__POSITION@@@Z ; NGamePropertyListManager::CGamePropertyListManager::EmunGamePropertyItem
PUBLIC	?EmunGamePropertySubItem@CGamePropertyListManager@NGamePropertyListManager@@QAEPAVCGamePropertySubItem@2@AAPAU__POSITION@@@Z ; NGamePropertyListManager::CGamePropertyListManager::EmunGamePropertySubItem
PUBLIC	?SearchGamePropertyItem@CGamePropertyListManager@NGamePropertyListManager@@QAEPAVCGamePropertyItem@2@K@Z ; NGamePropertyListManager::CGamePropertyListManager::SearchGamePropertyItem
PUBLIC	??_GCGamePropertyListManager@NGamePropertyListManager@@UAEPAXI@Z ; NGamePropertyListManager::CGamePropertyListManager::`scalar deleting destructor'
PUBLIC	??0CPair@?$CMap@KKPAVCGamePropertyTypeItem@NGamePropertyListManager@@AAPAV12@@@IAE@K@Z ; CMap<unsigned long,unsigned long,NGamePropertyListManager::CGamePropertyTypeItem *,NGamePropertyListManager::CGamePropertyTypeItem * &>::CPair::CPair
PUBLIC	??0CAssoc@?$CMap@KKPAVCGamePropertyTypeItem@NGamePropertyListManager@@AAPAV12@@@QAE@K@Z ; CMap<unsigned long,unsigned long,NGamePropertyListManager::CGamePropertyTypeItem *,NGamePropertyListManager::CGamePropertyTypeItem * &>::CAssoc::CAssoc
PUBLIC	??$CompareElements@KK@@YGHPBK0@Z		; CompareElements<unsigned long,unsigned long>
PUBLIC	??$SerializeElements@K@@YGXAAVCArchive@@PAKH@Z	; SerializeElements<unsigned long>
PUBLIC	??$SerializeElements@PAVCGamePropertyTypeItem@NGamePropertyListManager@@@@YGXAAVCArchive@@PAPAVCGamePropertyTypeItem@NGamePropertyListManager@@H@Z ; SerializeElements<NGamePropertyListManager::CGamePropertyTypeItem *>
PUBLIC	??$DumpElements@K@@YGXAAVCDumpContext@@PBKH@Z	; DumpElements<unsigned long>
PUBLIC	??$DumpElements@PAVCGamePropertyTypeItem@NGamePropertyListManager@@@@YGXAAVCDumpContext@@PBQAVCGamePropertyTypeItem@NGamePropertyListManager@@H@Z ; DumpElements<NGamePropertyListManager::CGamePropertyTypeItem *>
PUBLIC	??0CPair@?$CMap@KKPAVCGamePropertyRelatItem@NGamePropertyListManager@@AAPAV12@@@IAE@K@Z ; CMap<unsigned long,unsigned long,NGamePropertyListManager::CGamePropertyRelatItem *,NGamePropertyListManager::CGamePropertyRelatItem * &>::CPair::CPair
PUBLIC	??0CAssoc@?$CMap@KKPAVCGamePropertyRelatItem@NGamePropertyListManager@@AAPAV12@@@QAE@K@Z ; CMap<unsigned long,unsigned long,NGamePropertyListManager::CGamePropertyRelatItem *,NGamePropertyListManager::CGamePropertyRelatItem * &>::CAssoc::CAssoc
PUBLIC	??$SerializeElements@PAVCGamePropertyRelatItem@NGamePropertyListManager@@@@YGXAAVCArchive@@PAPAVCGamePropertyRelatItem@NGamePropertyListManager@@H@Z ; SerializeElements<NGamePropertyListManager::CGamePropertyRelatItem *>
PUBLIC	??$DumpElements@PAVCGamePropertyRelatItem@NGamePropertyListManager@@@@YGXAAVCDumpContext@@PBQAVCGamePropertyRelatItem@NGamePropertyListManager@@H@Z ; DumpElements<NGamePropertyListManager::CGamePropertyRelatItem *>
PUBLIC	??0CPair@?$CMap@KKPAVCGamePropertyItem@NGamePropertyListManager@@AAPAV12@@@IAE@K@Z ; CMap<unsigned long,unsigned long,NGamePropertyListManager::CGamePropertyItem *,NGamePropertyListManager::CGamePropertyItem * &>::CPair::CPair
PUBLIC	??0CAssoc@?$CMap@KKPAVCGamePropertyItem@NGamePropertyListManager@@AAPAV12@@@QAE@K@Z ; CMap<unsigned long,unsigned long,NGamePropertyListManager::CGamePropertyItem *,NGamePropertyListManager::CGamePropertyItem * &>::CAssoc::CAssoc
PUBLIC	??$SerializeElements@PAVCGamePropertyItem@NGamePropertyListManager@@@@YGXAAVCArchive@@PAPAVCGamePropertyItem@NGamePropertyListManager@@H@Z ; SerializeElements<NGamePropertyListManager::CGamePropertyItem *>
PUBLIC	??$DumpElements@PAVCGamePropertyItem@NGamePropertyListManager@@@@YGXAAVCDumpContext@@PBQAVCGamePropertyItem@NGamePropertyListManager@@H@Z ; DumpElements<NGamePropertyListManager::CGamePropertyItem *>
PUBLIC	??0CPair@?$CMap@KKPAVCGamePropertySubItem@NGamePropertyListManager@@AAPAV12@@@IAE@K@Z ; CMap<unsigned long,unsigned long,NGamePropertyListManager::CGamePropertySubItem *,NGamePropertyListManager::CGamePropertySubItem * &>::CPair::CPair
PUBLIC	??0CAssoc@?$CMap@KKPAVCGamePropertySubItem@NGamePropertyListManager@@AAPAV12@@@QAE@K@Z ; CMap<unsigned long,unsigned long,NGamePropertyListManager::CGamePropertySubItem *,NGamePropertyListManager::CGamePropertySubItem * &>::CAssoc::CAssoc
PUBLIC	??$SerializeElements@PAVCGamePropertySubItem@NGamePropertyListManager@@@@YGXAAVCArchive@@PAPAVCGamePropertySubItem@NGamePropertyListManager@@H@Z ; SerializeElements<NGamePropertyListManager::CGamePropertySubItem *>
PUBLIC	??$DumpElements@PAVCGamePropertySubItem@NGamePropertyListManager@@@@YGXAAVCDumpContext@@PBQAVCGamePropertySubItem@NGamePropertyListManager@@H@Z ; DumpElements<NGamePropertyListManager::CGamePropertySubItem *>
PUBLIC	??_C@_0HC@HBCNBCLF@c?3?2program?5files?5?$CIx86?$CJ?2microsof@ ; `string'
PUBLIC	??_C@_05PLCFPPOI@with?5@			; `string'
PUBLIC	??_C@_09HCLNAIDE@?5elements@			; `string'
PUBLIC	??_C@_01EEMJAFIK@?6@				; `string'
PUBLIC	??_R1A@?0A@EA@CObject@@8			; CObject::`RTTI Base Class Descriptor at (0,-1,0,64)'
PUBLIC	??_R0?AVCObject@@@8				; CObject `RTTI Type Descriptor'
PUBLIC	??_R3CObject@@8					; CObject::`RTTI Class Hierarchy Descriptor'
PUBLIC	??_R2CObject@@8					; CObject::`RTTI Base Class Array'
PUBLIC	??_7?$CMap@KKPAVCGamePropertyTypeItem@NGamePropertyListManager@@AAPAV12@@@6B@ ; CMap<unsigned long,unsigned long,NGamePropertyListManager::CGamePropertyTypeItem *,NGamePropertyListManager::CGamePropertyTypeItem * &>::`vftable'
PUBLIC	??_7?$CMap@KKPAVCGamePropertyRelatItem@NGamePropertyListManager@@AAPAV12@@@6B@ ; CMap<unsigned long,unsigned long,NGamePropertyListManager::CGamePropertyRelatItem *,NGamePropertyListManager::CGamePropertyRelatItem * &>::`vftable'
PUBLIC	??_7?$CMap@KKPAVCGamePropertyItem@NGamePropertyListManager@@AAPAV12@@@6B@ ; CMap<unsigned long,unsigned long,NGamePropertyListManager::CGamePropertyItem *,NGamePropertyListManager::CGamePropertyItem * &>::`vftable'
PUBLIC	??_7?$CMap@KKPAVCGamePropertySubItem@NGamePropertyListManager@@AAPAV12@@@6B@ ; CMap<unsigned long,unsigned long,NGamePropertyListManager::CGamePropertySubItem *,NGamePropertyListManager::CGamePropertySubItem * &>::`vftable'
PUBLIC	??_7?$CWHArray@PAVCGamePropertyTypeItem@NGamePropertyListManager@@ABQAV12@@@6B@ ; CWHArray<NGamePropertyListManager::CGamePropertyTypeItem *,NGamePropertyListManager::CGamePropertyTypeItem * const &>::`vftable'
PUBLIC	??_7?$CWHArray@PAVCGamePropertyRelatItem@NGamePropertyListManager@@ABQAV12@@@6B@ ; CWHArray<NGamePropertyListManager::CGamePropertyRelatItem *,NGamePropertyListManager::CGamePropertyRelatItem * const &>::`vftable'
PUBLIC	??_7?$CWHArray@PAVCGamePropertyItem@NGamePropertyListManager@@ABQAV12@@@6B@ ; CWHArray<NGamePropertyListManager::CGamePropertyItem *,NGamePropertyListManager::CGamePropertyItem * const &>::`vftable'
PUBLIC	??_7?$CWHArray@PAVCGamePropertySubItem@NGamePropertyListManager@@ABQAV12@@@6B@ ; CWHArray<NGamePropertyListManager::CGamePropertySubItem *,NGamePropertyListManager::CGamePropertySubItem * const &>::`vftable'
PUBLIC	??_7CGamePropertyListManager@NGamePropertyListManager@@6B@ ; NGamePropertyListManager::CGamePropertyListManager::`vftable'
PUBLIC	?__LINE__Var@?0???1CGamePropertyListManager@NGamePropertyListManager@@UAE@XZ@4JA ; `NGamePropertyListManager::CGamePropertyListManager::~CGamePropertyListManager'::`1'::__LINE__Var
PUBLIC	??_C@_0FG@GCELCLHM@g?3?2?M?x?$LK?$PM?2happygamewh?2?$LH?$PO?N?q?$LG?K?2?O?$LF?M?$LD@ ; `string'
PUBLIC	?__LINE__Var@?0??InsertGamePropertyTypeItem@CGamePropertyListManager@NGamePropertyListManager@@QAE_NPAUtagPropertyTypeItem@@@Z@4JA ; `NGamePropertyListManager::CGamePropertyListManager::InsertGamePropertyTypeItem'::`1'::__LINE__Var
PUBLIC	?__LINE__Var@?0??InsertGamePropertyRelatItem@CGamePropertyListManager@NGamePropertyListManager@@QAE_NPAUtagPropertyRelatItem@@@Z@4JA ; `NGamePropertyListManager::CGamePropertyListManager::InsertGamePropertyRelatItem'::`1'::__LINE__Var
PUBLIC	?__LINE__Var@?0??InsertGamePropertyItem@CGamePropertyListManager@NGamePropertyListManager@@QAE_NPAUtagPropertyItem@@@Z@4JA ; `NGamePropertyListManager::CGamePropertyListManager::InsertGamePropertyItem'::`1'::__LINE__Var
PUBLIC	?__LINE__Var@?0??InsertGamePropertySubItem@CGamePropertyListManager@NGamePropertyListManager@@QAE_NPAUtagPropertySubItem@@@Z@4JA ; `NGamePropertyListManager::CGamePropertyListManager::InsertGamePropertySubItem'::`1'::__LINE__Var
PUBLIC	??_C@_0DF@LDFGAABH@g?3?2?M?x?$LK?$PM?2happygamewh?2?$LH?$PO?N?q?$LG?K?2?O?$LF?M?$LD@ ; `string'
PUBLIC	??_C@_03OHJIHPJH@?6?7?$FL@			; `string'
PUBLIC	??_C@_04OAFLPOMH@?$FN?5?$DN?5@			; `string'
PUBLIC	??_R4?$CWHArray@PAVCGamePropertyTypeItem@NGamePropertyListManager@@ABQAV12@@@6B@ ; CWHArray<NGamePropertyListManager::CGamePropertyTypeItem *,NGamePropertyListManager::CGamePropertyTypeItem * const &>::`RTTI Complete Object Locator'
PUBLIC	??_R0?AV?$CWHArray@PAVCGamePropertyTypeItem@NGamePropertyListManager@@ABQAV12@@@@8 ; CWHArray<NGamePropertyListManager::CGamePropertyTypeItem *,NGamePropertyListManager::CGamePropertyTypeItem * const &> `RTTI Type Descriptor'
PUBLIC	??_R3?$CWHArray@PAVCGamePropertyTypeItem@NGamePropertyListManager@@ABQAV12@@@8 ; CWHArray<NGamePropertyListManager::CGamePropertyTypeItem *,NGamePropertyListManager::CGamePropertyTypeItem * const &>::`RTTI Class Hierarchy Descriptor'
PUBLIC	??_R2?$CWHArray@PAVCGamePropertyTypeItem@NGamePropertyListManager@@ABQAV12@@@8 ; CWHArray<NGamePropertyListManager::CGamePropertyTypeItem *,NGamePropertyListManager::CGamePropertyTypeItem * const &>::`RTTI Base Class Array'
PUBLIC	??_R1A@?0A@EA@?$CWHArray@PAVCGamePropertyTypeItem@NGamePropertyListManager@@ABQAV12@@@8 ; CWHArray<NGamePropertyListManager::CGamePropertyTypeItem *,NGamePropertyListManager::CGamePropertyTypeItem * const &>::`RTTI Base Class Descriptor at (0,-1,0,64)'
PUBLIC	??_R4?$CWHArray@PAVCGamePropertyRelatItem@NGamePropertyListManager@@ABQAV12@@@6B@ ; CWHArray<NGamePropertyListManager::CGamePropertyRelatItem *,NGamePropertyListManager::CGamePropertyRelatItem * const &>::`RTTI Complete Object Locator'
PUBLIC	??_R0?AV?$CWHArray@PAVCGamePropertyRelatItem@NGamePropertyListManager@@ABQAV12@@@@8 ; CWHArray<NGamePropertyListManager::CGamePropertyRelatItem *,NGamePropertyListManager::CGamePropertyRelatItem * const &> `RTTI Type Descriptor'
PUBLIC	??_R3?$CWHArray@PAVCGamePropertyRelatItem@NGamePropertyListManager@@ABQAV12@@@8 ; CWHArray<NGamePropertyListManager::CGamePropertyRelatItem *,NGamePropertyListManager::CGamePropertyRelatItem * const &>::`RTTI Class Hierarchy Descriptor'
PUBLIC	??_R2?$CWHArray@PAVCGamePropertyRelatItem@NGamePropertyListManager@@ABQAV12@@@8 ; CWHArray<NGamePropertyListManager::CGamePropertyRelatItem *,NGamePropertyListManager::CGamePropertyRelatItem * const &>::`RTTI Base Class Array'
PUBLIC	??_R1A@?0A@EA@?$CWHArray@PAVCGamePropertyRelatItem@NGamePropertyListManager@@ABQAV12@@@8 ; CWHArray<NGamePropertyListManager::CGamePropertyRelatItem *,NGamePropertyListManager::CGamePropertyRelatItem * const &>::`RTTI Base Class Descriptor at (0,-1,0,64)'
PUBLIC	??_R4?$CWHArray@PAVCGamePropertyItem@NGamePropertyListManager@@ABQAV12@@@6B@ ; CWHArray<NGamePropertyListManager::CGamePropertyItem *,NGamePropertyListManager::CGamePropertyItem * const &>::`RTTI Complete Object Locator'
PUBLIC	??_R0?AV?$CWHArray@PAVCGamePropertyItem@NGamePropertyListManager@@ABQAV12@@@@8 ; CWHArray<NGamePropertyListManager::CGamePropertyItem *,NGamePropertyListManager::CGamePropertyItem * const &> `RTTI Type Descriptor'
PUBLIC	??_R3?$CWHArray@PAVCGamePropertyItem@NGamePropertyListManager@@ABQAV12@@@8 ; CWHArray<NGamePropertyListManager::CGamePropertyItem *,NGamePropertyListManager::CGamePropertyItem * const &>::`RTTI Class Hierarchy Descriptor'
PUBLIC	??_R2?$CWHArray@PAVCGamePropertyItem@NGamePropertyListManager@@ABQAV12@@@8 ; CWHArray<NGamePropertyListManager::CGamePropertyItem *,NGamePropertyListManager::CGamePropertyItem * const &>::`RTTI Base Class Array'
PUBLIC	??_R1A@?0A@EA@?$CWHArray@PAVCGamePropertyItem@NGamePropertyListManager@@ABQAV12@@@8 ; CWHArray<NGamePropertyListManager::CGamePropertyItem *,NGamePropertyListManager::CGamePropertyItem * const &>::`RTTI Base Class Descriptor at (0,-1,0,64)'
PUBLIC	??_R4?$CWHArray@PAVCGamePropertySubItem@NGamePropertyListManager@@ABQAV12@@@6B@ ; CWHArray<NGamePropertyListManager::CGamePropertySubItem *,NGamePropertyListManager::CGamePropertySubItem * const &>::`RTTI Complete Object Locator'
PUBLIC	??_R0?AV?$CWHArray@PAVCGamePropertySubItem@NGamePropertyListManager@@ABQAV12@@@@8 ; CWHArray<NGamePropertyListManager::CGamePropertySubItem *,NGamePropertyListManager::CGamePropertySubItem * const &> `RTTI Type Descriptor'
PUBLIC	??_R3?$CWHArray@PAVCGamePropertySubItem@NGamePropertyListManager@@ABQAV12@@@8 ; CWHArray<NGamePropertyListManager::CGamePropertySubItem *,NGamePropertyListManager::CGamePropertySubItem * const &>::`RTTI Class Hierarchy Descriptor'
PUBLIC	??_R2?$CWHArray@PAVCGamePropertySubItem@NGamePropertyListManager@@ABQAV12@@@8 ; CWHArray<NGamePropertyListManager::CGamePropertySubItem *,NGamePropertyListManager::CGamePropertySubItem * const &>::`RTTI Base Class Array'
PUBLIC	??_R1A@?0A@EA@?$CWHArray@PAVCGamePropertySubItem@NGamePropertyListManager@@ABQAV12@@@8 ; CWHArray<NGamePropertyListManager::CGamePropertySubItem *,NGamePropertyListManager::CGamePropertySubItem * const &>::`RTTI Base Class Descriptor at (0,-1,0,64)'
PUBLIC	??_R4?$CMap@KKPAVCGamePropertyTypeItem@NGamePropertyListManager@@AAPAV12@@@6B@ ; CMap<unsigned long,unsigned long,NGamePropertyListManager::CGamePropertyTypeItem *,NGamePropertyListManager::CGamePropertyTypeItem * &>::`RTTI Complete Object Locator'
PUBLIC	??_R0?AV?$CMap@KKPAVCGamePropertyTypeItem@NGamePropertyListManager@@AAPAV12@@@@8 ; CMap<unsigned long,unsigned long,NGamePropertyListManager::CGamePropertyTypeItem *,NGamePropertyListManager::CGamePropertyTypeItem * &> `RTTI Type Descriptor'
PUBLIC	??_R3?$CMap@KKPAVCGamePropertyTypeItem@NGamePropertyListManager@@AAPAV12@@@8 ; CMap<unsigned long,unsigned long,NGamePropertyListManager::CGamePropertyTypeItem *,NGamePropertyListManager::CGamePropertyTypeItem * &>::`RTTI Class Hierarchy Descriptor'
PUBLIC	??_R2?$CMap@KKPAVCGamePropertyTypeItem@NGamePropertyListManager@@AAPAV12@@@8 ; CMap<unsigned long,unsigned long,NGamePropertyListManager::CGamePropertyTypeItem *,NGamePropertyListManager::CGamePropertyTypeItem * &>::`RTTI Base Class Array'
PUBLIC	??_R1A@?0A@EA@?$CMap@KKPAVCGamePropertyTypeItem@NGamePropertyListManager@@AAPAV12@@@8 ; CMap<unsigned long,unsigned long,NGamePropertyListManager::CGamePropertyTypeItem *,NGamePropertyListManager::CGamePropertyTypeItem * &>::`RTTI Base Class Descriptor at (0,-1,0,64)'
PUBLIC	??_R4?$CMap@KKPAVCGamePropertyRelatItem@NGamePropertyListManager@@AAPAV12@@@6B@ ; CMap<unsigned long,unsigned long,NGamePropertyListManager::CGamePropertyRelatItem *,NGamePropertyListManager::CGamePropertyRelatItem * &>::`RTTI Complete Object Locator'
PUBLIC	??_R0?AV?$CMap@KKPAVCGamePropertyRelatItem@NGamePropertyListManager@@AAPAV12@@@@8 ; CMap<unsigned long,unsigned long,NGamePropertyListManager::CGamePropertyRelatItem *,NGamePropertyListManager::CGamePropertyRelatItem * &> `RTTI Type Descriptor'
PUBLIC	??_R3?$CMap@KKPAVCGamePropertyRelatItem@NGamePropertyListManager@@AAPAV12@@@8 ; CMap<unsigned long,unsigned long,NGamePropertyListManager::CGamePropertyRelatItem *,NGamePropertyListManager::CGamePropertyRelatItem * &>::`RTTI Class Hierarchy Descriptor'
PUBLIC	??_R2?$CMap@KKPAVCGamePropertyRelatItem@NGamePropertyListManager@@AAPAV12@@@8 ; CMap<unsigned long,unsigned long,NGamePropertyListManager::CGamePropertyRelatItem *,NGamePropertyListManager::CGamePropertyRelatItem * &>::`RTTI Base Class Array'
PUBLIC	??_R1A@?0A@EA@?$CMap@KKPAVCGamePropertyRelatItem@NGamePropertyListManager@@AAPAV12@@@8 ; CMap<unsigned long,unsigned long,NGamePropertyListManager::CGamePropertyRelatItem *,NGamePropertyListManager::CGamePropertyRelatItem * &>::`RTTI Base Class Descriptor at (0,-1,0,64)'
PUBLIC	??_R4?$CMap@KKPAVCGamePropertyItem@NGamePropertyListManager@@AAPAV12@@@6B@ ; CMap<unsigned long,unsigned long,NGamePropertyListManager::CGamePropertyItem *,NGamePropertyListManager::CGamePropertyItem * &>::`RTTI Complete Object Locator'
PUBLIC	??_R0?AV?$CMap@KKPAVCGamePropertyItem@NGamePropertyListManager@@AAPAV12@@@@8 ; CMap<unsigned long,unsigned long,NGamePropertyListManager::CGamePropertyItem *,NGamePropertyListManager::CGamePropertyItem * &> `RTTI Type Descriptor'
PUBLIC	??_R3?$CMap@KKPAVCGamePropertyItem@NGamePropertyListManager@@AAPAV12@@@8 ; CMap<unsigned long,unsigned long,NGamePropertyListManager::CGamePropertyItem *,NGamePropertyListManager::CGamePropertyItem * &>::`RTTI Class Hierarchy Descriptor'
PUBLIC	??_R2?$CMap@KKPAVCGamePropertyItem@NGamePropertyListManager@@AAPAV12@@@8 ; CMap<unsigned long,unsigned long,NGamePropertyListManager::CGamePropertyItem *,NGamePropertyListManager::CGamePropertyItem * &>::`RTTI Base Class Array'
PUBLIC	??_R1A@?0A@EA@?$CMap@KKPAVCGamePropertyItem@NGamePropertyListManager@@AAPAV12@@@8 ; CMap<unsigned long,unsigned long,NGamePropertyListManager::CGamePropertyItem *,NGamePropertyListManager::CGamePropertyItem * &>::`RTTI Base Class Descriptor at (0,-1,0,64)'
PUBLIC	??_R4?$CMap@KKPAVCGamePropertySubItem@NGamePropertyListManager@@AAPAV12@@@6B@ ; CMap<unsigned long,unsigned long,NGamePropertyListManager::CGamePropertySubItem *,NGamePropertyListManager::CGamePropertySubItem * &>::`RTTI Complete Object Locator'
PUBLIC	??_R0?AV?$CMap@KKPAVCGamePropertySubItem@NGamePropertyListManager@@AAPAV12@@@@8 ; CMap<unsigned long,unsigned long,NGamePropertyListManager::CGamePropertySubItem *,NGamePropertyListManager::CGamePropertySubItem * &> `RTTI Type Descriptor'
PUBLIC	??_R3?$CMap@KKPAVCGamePropertySubItem@NGamePropertyListManager@@AAPAV12@@@8 ; CMap<unsigned long,unsigned long,NGamePropertyListManager::CGamePropertySubItem *,NGamePropertyListManager::CGamePropertySubItem * &>::`RTTI Class Hierarchy Descriptor'
PUBLIC	??_R2?$CMap@KKPAVCGamePropertySubItem@NGamePropertyListManager@@AAPAV12@@@8 ; CMap<unsigned long,unsigned long,NGamePropertyListManager::CGamePropertySubItem *,NGamePropertyListManager::CGamePropertySubItem * &>::`RTTI Base Class Array'
PUBLIC	??_R1A@?0A@EA@?$CMap@KKPAVCGamePropertySubItem@NGamePropertyListManager@@AAPAV12@@@8 ; CMap<unsigned long,unsigned long,NGamePropertyListManager::CGamePropertySubItem *,NGamePropertyListManager::CGamePropertySubItem * &>::`RTTI Base Class Descriptor at (0,-1,0,64)'
PUBLIC	??_R4CGamePropertyListManager@NGamePropertyListManager@@6B@ ; NGamePropertyListManager::CGamePropertyListManager::`RTTI Complete Object Locator'
PUBLIC	??_R0?AVCGamePropertyListManager@NGamePropertyListManager@@@8 ; NGamePropertyListManager::CGamePropertyListManager `RTTI Type Descriptor'
PUBLIC	??_R3CGamePropertyListManager@NGamePropertyListManager@@8 ; NGamePropertyListManager::CGamePropertyListManager::`RTTI Class Hierarchy Descriptor'
PUBLIC	??_R2CGamePropertyListManager@NGamePropertyListManager@@8 ; NGamePropertyListManager::CGamePropertyListManager::`RTTI Base Class Array'
PUBLIC	??_R1A@?0A@EA@CGamePropertyListManager@NGamePropertyListManager@@8 ; NGamePropertyListManager::CGamePropertyListManager::`RTTI Base Class Descriptor at (0,-1,0,64)'
EXTRN	??2@YAPAXI@Z:PROC				; operator new
EXTRN	??3@YAXPAXI@Z:PROC				; operator delete
EXTRN	?__global_delete@@YAXPAXI@Z:PROC		; __global_delete
EXTRN	??_U@YAPAXI@Z:PROC				; operator new[]
EXTRN	??_V@YAXPAX@Z:PROC				; operator delete[]
EXTRN	_memcpy:PROC
EXTRN	_memmove:PROC
EXTRN	_memset:PROC
EXTRN	__imp__PeekMessageA@20:PROC
EXTRN	__imp__PostQuitMessage@4:PROC
EXTRN	__imp__ldiv:PROC
EXTRN	__imp___CrtDbgReport:PROC
EXTRN	?AfxAssertValidObject@@YGXPBVCObject@@PBDH@Z:PROC ; AfxAssertValidObject
EXTRN	?AfxThrowInvalidArgException@@YGXXZ:PROC	; AfxThrowInvalidArgException
EXTRN	?GetRuntimeClass@CObject@@UBEPAUCRuntimeClass@@XZ:PROC ; CObject::GetRuntimeClass
EXTRN	??1CObject@@UAE@XZ:PROC				; CObject::~CObject
EXTRN	??3CObject@@SGXPAX@Z:PROC			; CObject::operator delete
EXTRN	??0CObject@@IAE@XZ:PROC				; CObject::CObject
EXTRN	?Serialize@CObject@@UAEXAAVCArchive@@@Z:PROC	; CObject::Serialize
EXTRN	?AssertValid@CObject@@UBEXXZ:PROC		; CObject::AssertValid
EXTRN	?Dump@CObject@@UBEXAAVCDumpContext@@@Z:PROC	; CObject::Dump
EXTRN	?AfxIsValidAddress@@YGHPBXIH@Z:PROC		; AfxIsValidAddress
EXTRN	??_U@YAPAXIPBDH@Z:PROC				; operator new[]
EXTRN	?IsStoring@CArchive@@QBEHXZ:PROC		; CArchive::IsStoring
EXTRN	?EnsureRead@CArchive@@QAEXPAXI@Z:PROC		; CArchive::EnsureRead
EXTRN	?Write@CArchive@@QAEXPBXI@Z:PROC		; CArchive::Write
EXTRN	?ReadCount@CArchive@@QAEKXZ:PROC		; CArchive::ReadCount
EXTRN	?WriteCount@CArchive@@QAEXK@Z:PROC		; CArchive::WriteCount
EXTRN	?GetDepth@CDumpContext@@QBEHXZ:PROC		; CDumpContext::GetDepth
EXTRN	??6CDumpContext@@QAEAAV0@PBD@Z:PROC		; CDumpContext::operator<<
EXTRN	??6CDumpContext@@QAEAAV0@H@Z:PROC		; CDumpContext::operator<<
EXTRN	?Create@CPlex@@SGPAU1@AAPAU1@II@Z:PROC		; CPlex::Create
EXTRN	?FreeDataChain@CPlex@@QAEXXZ:PROC		; CPlex::FreeDataChain
EXTRN	??_E?$CMap@KKPAVCGamePropertyTypeItem@NGamePropertyListManager@@AAPAV12@@@UAEPAXI@Z:PROC ; CMap<unsigned long,unsigned long,NGamePropertyListManager::CGamePropertyTypeItem *,NGamePropertyListManager::CGamePropertyTypeItem * &>::`vector deleting destructor'
EXTRN	??_E?$CMap@KKPAVCGamePropertyRelatItem@NGamePropertyListManager@@AAPAV12@@@UAEPAXI@Z:PROC ; CMap<unsigned long,unsigned long,NGamePropertyListManager::CGamePropertyRelatItem *,NGamePropertyListManager::CGamePropertyRelatItem * &>::`vector deleting destructor'
EXTRN	??_E?$CMap@KKPAVCGamePropertyItem@NGamePropertyListManager@@AAPAV12@@@UAEPAXI@Z:PROC ; CMap<unsigned long,unsigned long,NGamePropertyListManager::CGamePropertyItem *,NGamePropertyListManager::CGamePropertyItem * &>::`vector deleting destructor'
EXTRN	??_E?$CMap@KKPAVCGamePropertySubItem@NGamePropertyListManager@@AAPAV12@@@UAEPAXI@Z:PROC ; CMap<unsigned long,unsigned long,NGamePropertyListManager::CGamePropertySubItem *,NGamePropertyListManager::CGamePropertySubItem * &>::`vector deleting destructor'
EXTRN	??_E?$CWHArray@PAVCGamePropertyTypeItem@NGamePropertyListManager@@ABQAV12@@@UAEPAXI@Z:PROC ; CWHArray<NGamePropertyListManager::CGamePropertyTypeItem *,NGamePropertyListManager::CGamePropertyTypeItem * const &>::`vector deleting destructor'
EXTRN	??_E?$CWHArray@PAVCGamePropertyRelatItem@NGamePropertyListManager@@ABQAV12@@@UAEPAXI@Z:PROC ; CWHArray<NGamePropertyListManager::CGamePropertyRelatItem *,NGamePropertyListManager::CGamePropertyRelatItem * const &>::`vector deleting destructor'
EXTRN	??_E?$CWHArray@PAVCGamePropertyItem@NGamePropertyListManager@@ABQAV12@@@UAEPAXI@Z:PROC ; CWHArray<NGamePropertyListManager::CGamePropertyItem *,NGamePropertyListManager::CGamePropertyItem * const &>::`vector deleting destructor'
EXTRN	??_E?$CWHArray@PAVCGamePropertySubItem@NGamePropertyListManager@@ABQAV12@@@UAEPAXI@Z:PROC ; CWHArray<NGamePropertyListManager::CGamePropertySubItem *,NGamePropertyListManager::CGamePropertySubItem * const &>::`vector deleting destructor'
EXTRN	??_ECGamePropertyListManager@NGamePropertyListManager@@UAEPAXI@Z:PROC ; NGamePropertyListManager::CGamePropertyListManager::`vector deleting destructor'
EXTRN	@__security_check_cookie@4:PROC
EXTRN	___CxxFrameHandler3:PROC
EXTRN	??_7type_info@@6B@:QWORD			; type_info::`vftable'
EXTRN	___security_cookie:DWORD
;	COMDAT ??_R1A@?0A@EA@CGamePropertyListManager@NGamePropertyListManager@@8
rdata$r	SEGMENT
??_R1A@?0A@EA@CGamePropertyListManager@NGamePropertyListManager@@8 DD FLAT:??_R0?AVCGamePropertyListManager@NGamePropertyListManager@@@8 ; NGamePropertyListManager::CGamePropertyListManager::`RTTI Base Class Descriptor at (0,-1,0,64)'
	DD	00H
	DD	00H
	DD	0ffffffffH
	DD	00H
	DD	040H
	DD	FLAT:??_R3CGamePropertyListManager@NGamePropertyListManager@@8
rdata$r	ENDS
;	COMDAT ??_R2CGamePropertyListManager@NGamePropertyListManager@@8
rdata$r	SEGMENT
??_R2CGamePropertyListManager@NGamePropertyListManager@@8 DD FLAT:??_R1A@?0A@EA@CGamePropertyListManager@NGamePropertyListManager@@8 ; NGamePropertyListManager::CGamePropertyListManager::`RTTI Base Class Array'
rdata$r	ENDS
;	COMDAT ??_R3CGamePropertyListManager@NGamePropertyListManager@@8
rdata$r	SEGMENT
??_R3CGamePropertyListManager@NGamePropertyListManager@@8 DD 00H ; NGamePropertyListManager::CGamePropertyListManager::`RTTI Class Hierarchy Descriptor'
	DD	00H
	DD	01H
	DD	FLAT:??_R2CGamePropertyListManager@NGamePropertyListManager@@8
rdata$r	ENDS
;	COMDAT ??_R0?AVCGamePropertyListManager@NGamePropertyListManager@@@8
data$r	SEGMENT
??_R0?AVCGamePropertyListManager@NGamePropertyListManager@@@8 DD FLAT:??_7type_info@@6B@ ; NGamePropertyListManager::CGamePropertyListManager `RTTI Type Descriptor'
	DD	00H
	DB	'.?AVCGamePropertyListManager@NGamePropertyListManager@@', 00H
data$r	ENDS
;	COMDAT ??_R4CGamePropertyListManager@NGamePropertyListManager@@6B@
rdata$r	SEGMENT
??_R4CGamePropertyListManager@NGamePropertyListManager@@6B@ DD 00H ; NGamePropertyListManager::CGamePropertyListManager::`RTTI Complete Object Locator'
	DD	00H
	DD	00H
	DD	FLAT:??_R0?AVCGamePropertyListManager@NGamePropertyListManager@@@8
	DD	FLAT:??_R3CGamePropertyListManager@NGamePropertyListManager@@8
rdata$r	ENDS
;	COMDAT ??_R1A@?0A@EA@?$CMap@KKPAVCGamePropertySubItem@NGamePropertyListManager@@AAPAV12@@@8
rdata$r	SEGMENT
??_R1A@?0A@EA@?$CMap@KKPAVCGamePropertySubItem@NGamePropertyListManager@@AAPAV12@@@8 DD FLAT:??_R0?AV?$CMap@KKPAVCGamePropertySubItem@NGamePropertyListManager@@AAPAV12@@@@8 ; CMap<unsigned long,unsigned long,NGamePropertyListManager::CGamePropertySubItem *,NGamePropertyListManager::CGamePropertySubItem * &>::`RTTI Base Class Descriptor at (0,-1,0,64)'
	DD	01H
	DD	00H
	DD	0ffffffffH
	DD	00H
	DD	040H
	DD	FLAT:??_R3?$CMap@KKPAVCGamePropertySubItem@NGamePropertyListManager@@AAPAV12@@@8
rdata$r	ENDS
;	COMDAT ??_R2?$CMap@KKPAVCGamePropertySubItem@NGamePropertyListManager@@AAPAV12@@@8
rdata$r	SEGMENT
??_R2?$CMap@KKPAVCGamePropertySubItem@NGamePropertyListManager@@AAPAV12@@@8 DD FLAT:??_R1A@?0A@EA@?$CMap@KKPAVCGamePropertySubItem@NGamePropertyListManager@@AAPAV12@@@8 ; CMap<unsigned long,unsigned long,NGamePropertyListManager::CGamePropertySubItem *,NGamePropertyListManager::CGamePropertySubItem * &>::`RTTI Base Class Array'
	DD	FLAT:??_R1A@?0A@EA@CObject@@8
rdata$r	ENDS
;	COMDAT ??_R3?$CMap@KKPAVCGamePropertySubItem@NGamePropertyListManager@@AAPAV12@@@8
rdata$r	SEGMENT
??_R3?$CMap@KKPAVCGamePropertySubItem@NGamePropertyListManager@@AAPAV12@@@8 DD 00H ; CMap<unsigned long,unsigned long,NGamePropertyListManager::CGamePropertySubItem *,NGamePropertyListManager::CGamePropertySubItem * &>::`RTTI Class Hierarchy Descriptor'
	DD	00H
	DD	02H
	DD	FLAT:??_R2?$CMap@KKPAVCGamePropertySubItem@NGamePropertyListManager@@AAPAV12@@@8
rdata$r	ENDS
;	COMDAT ??_R0?AV?$CMap@KKPAVCGamePropertySubItem@NGamePropertyListManager@@AAPAV12@@@@8
data$r	SEGMENT
??_R0?AV?$CMap@KKPAVCGamePropertySubItem@NGamePropertyListManager@@AAPAV12@@@@8 DD FLAT:??_7type_info@@6B@ ; CMap<unsigned long,unsigned long,NGamePropertyListManager::CGamePropertySubItem *,NGamePropertyListManager::CGamePropertySubItem * &> `RTTI Type Descriptor'
	DD	00H
	DB	'.?AV?$CMap@KKPAVCGamePropertySubItem@NGamePropertyListMa'
	DB	'nager@@AAPAV12@@@', 00H
data$r	ENDS
;	COMDAT ??_R4?$CMap@KKPAVCGamePropertySubItem@NGamePropertyListManager@@AAPAV12@@@6B@
rdata$r	SEGMENT
??_R4?$CMap@KKPAVCGamePropertySubItem@NGamePropertyListManager@@AAPAV12@@@6B@ DD 00H ; CMap<unsigned long,unsigned long,NGamePropertyListManager::CGamePropertySubItem *,NGamePropertyListManager::CGamePropertySubItem * &>::`RTTI Complete Object Locator'
	DD	00H
	DD	00H
	DD	FLAT:??_R0?AV?$CMap@KKPAVCGamePropertySubItem@NGamePropertyListManager@@AAPAV12@@@@8
	DD	FLAT:??_R3?$CMap@KKPAVCGamePropertySubItem@NGamePropertyListManager@@AAPAV12@@@8
rdata$r	ENDS
;	COMDAT ??_R1A@?0A@EA@?$CMap@KKPAVCGamePropertyItem@NGamePropertyListManager@@AAPAV12@@@8
rdata$r	SEGMENT
??_R1A@?0A@EA@?$CMap@KKPAVCGamePropertyItem@NGamePropertyListManager@@AAPAV12@@@8 DD FLAT:??_R0?AV?$CMap@KKPAVCGamePropertyItem@NGamePropertyListManager@@AAPAV12@@@@8 ; CMap<unsigned long,unsigned long,NGamePropertyListManager::CGamePropertyItem *,NGamePropertyListManager::CGamePropertyItem * &>::`RTTI Base Class Descriptor at (0,-1,0,64)'
	DD	01H
	DD	00H
	DD	0ffffffffH
	DD	00H
	DD	040H
	DD	FLAT:??_R3?$CMap@KKPAVCGamePropertyItem@NGamePropertyListManager@@AAPAV12@@@8
rdata$r	ENDS
;	COMDAT ??_R2?$CMap@KKPAVCGamePropertyItem@NGamePropertyListManager@@AAPAV12@@@8
rdata$r	SEGMENT
??_R2?$CMap@KKPAVCGamePropertyItem@NGamePropertyListManager@@AAPAV12@@@8 DD FLAT:??_R1A@?0A@EA@?$CMap@KKPAVCGamePropertyItem@NGamePropertyListManager@@AAPAV12@@@8 ; CMap<unsigned long,unsigned long,NGamePropertyListManager::CGamePropertyItem *,NGamePropertyListManager::CGamePropertyItem * &>::`RTTI Base Class Array'
	DD	FLAT:??_R1A@?0A@EA@CObject@@8
rdata$r	ENDS
;	COMDAT ??_R3?$CMap@KKPAVCGamePropertyItem@NGamePropertyListManager@@AAPAV12@@@8
rdata$r	SEGMENT
??_R3?$CMap@KKPAVCGamePropertyItem@NGamePropertyListManager@@AAPAV12@@@8 DD 00H ; CMap<unsigned long,unsigned long,NGamePropertyListManager::CGamePropertyItem *,NGamePropertyListManager::CGamePropertyItem * &>::`RTTI Class Hierarchy Descriptor'
	DD	00H
	DD	02H
	DD	FLAT:??_R2?$CMap@KKPAVCGamePropertyItem@NGamePropertyListManager@@AAPAV12@@@8
rdata$r	ENDS
;	COMDAT ??_R0?AV?$CMap@KKPAVCGamePropertyItem@NGamePropertyListManager@@AAPAV12@@@@8
data$r	SEGMENT
??_R0?AV?$CMap@KKPAVCGamePropertyItem@NGamePropertyListManager@@AAPAV12@@@@8 DD FLAT:??_7type_info@@6B@ ; CMap<unsigned long,unsigned long,NGamePropertyListManager::CGamePropertyItem *,NGamePropertyListManager::CGamePropertyItem * &> `RTTI Type Descriptor'
	DD	00H
	DB	'.?AV?$CMap@KKPAVCGamePropertyItem@NGamePropertyListManag'
	DB	'er@@AAPAV12@@@', 00H
data$r	ENDS
;	COMDAT ??_R4?$CMap@KKPAVCGamePropertyItem@NGamePropertyListManager@@AAPAV12@@@6B@
rdata$r	SEGMENT
??_R4?$CMap@KKPAVCGamePropertyItem@NGamePropertyListManager@@AAPAV12@@@6B@ DD 00H ; CMap<unsigned long,unsigned long,NGamePropertyListManager::CGamePropertyItem *,NGamePropertyListManager::CGamePropertyItem * &>::`RTTI Complete Object Locator'
	DD	00H
	DD	00H
	DD	FLAT:??_R0?AV?$CMap@KKPAVCGamePropertyItem@NGamePropertyListManager@@AAPAV12@@@@8
	DD	FLAT:??_R3?$CMap@KKPAVCGamePropertyItem@NGamePropertyListManager@@AAPAV12@@@8
rdata$r	ENDS
;	COMDAT ??_R1A@?0A@EA@?$CMap@KKPAVCGamePropertyRelatItem@NGamePropertyListManager@@AAPAV12@@@8
rdata$r	SEGMENT
??_R1A@?0A@EA@?$CMap@KKPAVCGamePropertyRelatItem@NGamePropertyListManager@@AAPAV12@@@8 DD FLAT:??_R0?AV?$CMap@KKPAVCGamePropertyRelatItem@NGamePropertyListManager@@AAPAV12@@@@8 ; CMap<unsigned long,unsigned long,NGamePropertyListManager::CGamePropertyRelatItem *,NGamePropertyListManager::CGamePropertyRelatItem * &>::`RTTI Base Class Descriptor at (0,-1,0,64)'
	DD	01H
	DD	00H
	DD	0ffffffffH
	DD	00H
	DD	040H
	DD	FLAT:??_R3?$CMap@KKPAVCGamePropertyRelatItem@NGamePropertyListManager@@AAPAV12@@@8
rdata$r	ENDS
;	COMDAT ??_R2?$CMap@KKPAVCGamePropertyRelatItem@NGamePropertyListManager@@AAPAV12@@@8
rdata$r	SEGMENT
??_R2?$CMap@KKPAVCGamePropertyRelatItem@NGamePropertyListManager@@AAPAV12@@@8 DD FLAT:??_R1A@?0A@EA@?$CMap@KKPAVCGamePropertyRelatItem@NGamePropertyListManager@@AAPAV12@@@8 ; CMap<unsigned long,unsigned long,NGamePropertyListManager::CGamePropertyRelatItem *,NGamePropertyListManager::CGamePropertyRelatItem * &>::`RTTI Base Class Array'
	DD	FLAT:??_R1A@?0A@EA@CObject@@8
rdata$r	ENDS
;	COMDAT ??_R3?$CMap@KKPAVCGamePropertyRelatItem@NGamePropertyListManager@@AAPAV12@@@8
rdata$r	SEGMENT
??_R3?$CMap@KKPAVCGamePropertyRelatItem@NGamePropertyListManager@@AAPAV12@@@8 DD 00H ; CMap<unsigned long,unsigned long,NGamePropertyListManager::CGamePropertyRelatItem *,NGamePropertyListManager::CGamePropertyRelatItem * &>::`RTTI Class Hierarchy Descriptor'
	DD	00H
	DD	02H
	DD	FLAT:??_R2?$CMap@KKPAVCGamePropertyRelatItem@NGamePropertyListManager@@AAPAV12@@@8
rdata$r	ENDS
;	COMDAT ??_R0?AV?$CMap@KKPAVCGamePropertyRelatItem@NGamePropertyListManager@@AAPAV12@@@@8
data$r	SEGMENT
??_R0?AV?$CMap@KKPAVCGamePropertyRelatItem@NGamePropertyListManager@@AAPAV12@@@@8 DD FLAT:??_7type_info@@6B@ ; CMap<unsigned long,unsigned long,NGamePropertyListManager::CGamePropertyRelatItem *,NGamePropertyListManager::CGamePropertyRelatItem * &> `RTTI Type Descriptor'
	DD	00H
	DB	'.?AV?$CMap@KKPAVCGamePropertyRelatItem@NGamePropertyList'
	DB	'Manager@@AAPAV12@@@', 00H
data$r	ENDS
;	COMDAT ??_R4?$CMap@KKPAVCGamePropertyRelatItem@NGamePropertyListManager@@AAPAV12@@@6B@
rdata$r	SEGMENT
??_R4?$CMap@KKPAVCGamePropertyRelatItem@NGamePropertyListManager@@AAPAV12@@@6B@ DD 00H ; CMap<unsigned long,unsigned long,NGamePropertyListManager::CGamePropertyRelatItem *,NGamePropertyListManager::CGamePropertyRelatItem * &>::`RTTI Complete Object Locator'
	DD	00H
	DD	00H
	DD	FLAT:??_R0?AV?$CMap@KKPAVCGamePropertyRelatItem@NGamePropertyListManager@@AAPAV12@@@@8
	DD	FLAT:??_R3?$CMap@KKPAVCGamePropertyRelatItem@NGamePropertyListManager@@AAPAV12@@@8
rdata$r	ENDS
;	COMDAT ??_R1A@?0A@EA@?$CMap@KKPAVCGamePropertyTypeItem@NGamePropertyListManager@@AAPAV12@@@8
rdata$r	SEGMENT
??_R1A@?0A@EA@?$CMap@KKPAVCGamePropertyTypeItem@NGamePropertyListManager@@AAPAV12@@@8 DD FLAT:??_R0?AV?$CMap@KKPAVCGamePropertyTypeItem@NGamePropertyListManager@@AAPAV12@@@@8 ; CMap<unsigned long,unsigned long,NGamePropertyListManager::CGamePropertyTypeItem *,NGamePropertyListManager::CGamePropertyTypeItem * &>::`RTTI Base Class Descriptor at (0,-1,0,64)'
	DD	01H
	DD	00H
	DD	0ffffffffH
	DD	00H
	DD	040H
	DD	FLAT:??_R3?$CMap@KKPAVCGamePropertyTypeItem@NGamePropertyListManager@@AAPAV12@@@8
rdata$r	ENDS
;	COMDAT ??_R2?$CMap@KKPAVCGamePropertyTypeItem@NGamePropertyListManager@@AAPAV12@@@8
rdata$r	SEGMENT
??_R2?$CMap@KKPAVCGamePropertyTypeItem@NGamePropertyListManager@@AAPAV12@@@8 DD FLAT:??_R1A@?0A@EA@?$CMap@KKPAVCGamePropertyTypeItem@NGamePropertyListManager@@AAPAV12@@@8 ; CMap<unsigned long,unsigned long,NGamePropertyListManager::CGamePropertyTypeItem *,NGamePropertyListManager::CGamePropertyTypeItem * &>::`RTTI Base Class Array'
	DD	FLAT:??_R1A@?0A@EA@CObject@@8
rdata$r	ENDS
;	COMDAT ??_R3?$CMap@KKPAVCGamePropertyTypeItem@NGamePropertyListManager@@AAPAV12@@@8
rdata$r	SEGMENT
??_R3?$CMap@KKPAVCGamePropertyTypeItem@NGamePropertyListManager@@AAPAV12@@@8 DD 00H ; CMap<unsigned long,unsigned long,NGamePropertyListManager::CGamePropertyTypeItem *,NGamePropertyListManager::CGamePropertyTypeItem * &>::`RTTI Class Hierarchy Descriptor'
	DD	00H
	DD	02H
	DD	FLAT:??_R2?$CMap@KKPAVCGamePropertyTypeItem@NGamePropertyListManager@@AAPAV12@@@8
rdata$r	ENDS
;	COMDAT ??_R0?AV?$CMap@KKPAVCGamePropertyTypeItem@NGamePropertyListManager@@AAPAV12@@@@8
data$r	SEGMENT
??_R0?AV?$CMap@KKPAVCGamePropertyTypeItem@NGamePropertyListManager@@AAPAV12@@@@8 DD FLAT:??_7type_info@@6B@ ; CMap<unsigned long,unsigned long,NGamePropertyListManager::CGamePropertyTypeItem *,NGamePropertyListManager::CGamePropertyTypeItem * &> `RTTI Type Descriptor'
	DD	00H
	DB	'.?AV?$CMap@KKPAVCGamePropertyTypeItem@NGamePropertyListM'
	DB	'anager@@AAPAV12@@@', 00H
data$r	ENDS
;	COMDAT ??_R4?$CMap@KKPAVCGamePropertyTypeItem@NGamePropertyListManager@@AAPAV12@@@6B@
rdata$r	SEGMENT
??_R4?$CMap@KKPAVCGamePropertyTypeItem@NGamePropertyListManager@@AAPAV12@@@6B@ DD 00H ; CMap<unsigned long,unsigned long,NGamePropertyListManager::CGamePropertyTypeItem *,NGamePropertyListManager::CGamePropertyTypeItem * &>::`RTTI Complete Object Locator'
	DD	00H
	DD	00H
	DD	FLAT:??_R0?AV?$CMap@KKPAVCGamePropertyTypeItem@NGamePropertyListManager@@AAPAV12@@@@8
	DD	FLAT:??_R3?$CMap@KKPAVCGamePropertyTypeItem@NGamePropertyListManager@@AAPAV12@@@8
rdata$r	ENDS
;	COMDAT ??_R1A@?0A@EA@?$CWHArray@PAVCGamePropertySubItem@NGamePropertyListManager@@ABQAV12@@@8
rdata$r	SEGMENT
??_R1A@?0A@EA@?$CWHArray@PAVCGamePropertySubItem@NGamePropertyListManager@@ABQAV12@@@8 DD FLAT:??_R0?AV?$CWHArray@PAVCGamePropertySubItem@NGamePropertyListManager@@ABQAV12@@@@8 ; CWHArray<NGamePropertyListManager::CGamePropertySubItem *,NGamePropertyListManager::CGamePropertySubItem * const &>::`RTTI Base Class Descriptor at (0,-1,0,64)'
	DD	00H
	DD	00H
	DD	0ffffffffH
	DD	00H
	DD	040H
	DD	FLAT:??_R3?$CWHArray@PAVCGamePropertySubItem@NGamePropertyListManager@@ABQAV12@@@8
rdata$r	ENDS
;	COMDAT ??_R2?$CWHArray@PAVCGamePropertySubItem@NGamePropertyListManager@@ABQAV12@@@8
rdata$r	SEGMENT
??_R2?$CWHArray@PAVCGamePropertySubItem@NGamePropertyListManager@@ABQAV12@@@8 DD FLAT:??_R1A@?0A@EA@?$CWHArray@PAVCGamePropertySubItem@NGamePropertyListManager@@ABQAV12@@@8 ; CWHArray<NGamePropertyListManager::CGamePropertySubItem *,NGamePropertyListManager::CGamePropertySubItem * const &>::`RTTI Base Class Array'
rdata$r	ENDS
;	COMDAT ??_R3?$CWHArray@PAVCGamePropertySubItem@NGamePropertyListManager@@ABQAV12@@@8
rdata$r	SEGMENT
??_R3?$CWHArray@PAVCGamePropertySubItem@NGamePropertyListManager@@ABQAV12@@@8 DD 00H ; CWHArray<NGamePropertyListManager::CGamePropertySubItem *,NGamePropertyListManager::CGamePropertySubItem * const &>::`RTTI Class Hierarchy Descriptor'
	DD	00H
	DD	01H
	DD	FLAT:??_R2?$CWHArray@PAVCGamePropertySubItem@NGamePropertyListManager@@ABQAV12@@@8
rdata$r	ENDS
;	COMDAT ??_R0?AV?$CWHArray@PAVCGamePropertySubItem@NGamePropertyListManager@@ABQAV12@@@@8
data$r	SEGMENT
??_R0?AV?$CWHArray@PAVCGamePropertySubItem@NGamePropertyListManager@@ABQAV12@@@@8 DD FLAT:??_7type_info@@6B@ ; CWHArray<NGamePropertyListManager::CGamePropertySubItem *,NGamePropertyListManager::CGamePropertySubItem * const &> `RTTI Type Descriptor'
	DD	00H
	DB	'.?AV?$CWHArray@PAVCGamePropertySubItem@NGamePropertyList'
	DB	'Manager@@ABQAV12@@@', 00H
data$r	ENDS
;	COMDAT ??_R4?$CWHArray@PAVCGamePropertySubItem@NGamePropertyListManager@@ABQAV12@@@6B@
rdata$r	SEGMENT
??_R4?$CWHArray@PAVCGamePropertySubItem@NGamePropertyListManager@@ABQAV12@@@6B@ DD 00H ; CWHArray<NGamePropertyListManager::CGamePropertySubItem *,NGamePropertyListManager::CGamePropertySubItem * const &>::`RTTI Complete Object Locator'
	DD	00H
	DD	00H
	DD	FLAT:??_R0?AV?$CWHArray@PAVCGamePropertySubItem@NGamePropertyListManager@@ABQAV12@@@@8
	DD	FLAT:??_R3?$CWHArray@PAVCGamePropertySubItem@NGamePropertyListManager@@ABQAV12@@@8
rdata$r	ENDS
;	COMDAT ??_R1A@?0A@EA@?$CWHArray@PAVCGamePropertyItem@NGamePropertyListManager@@ABQAV12@@@8
rdata$r	SEGMENT
??_R1A@?0A@EA@?$CWHArray@PAVCGamePropertyItem@NGamePropertyListManager@@ABQAV12@@@8 DD FLAT:??_R0?AV?$CWHArray@PAVCGamePropertyItem@NGamePropertyListManager@@ABQAV12@@@@8 ; CWHArray<NGamePropertyListManager::CGamePropertyItem *,NGamePropertyListManager::CGamePropertyItem * const &>::`RTTI Base Class Descriptor at (0,-1,0,64)'
	DD	00H
	DD	00H
	DD	0ffffffffH
	DD	00H
	DD	040H
	DD	FLAT:??_R3?$CWHArray@PAVCGamePropertyItem@NGamePropertyListManager@@ABQAV12@@@8
rdata$r	ENDS
;	COMDAT ??_R2?$CWHArray@PAVCGamePropertyItem@NGamePropertyListManager@@ABQAV12@@@8
rdata$r	SEGMENT
??_R2?$CWHArray@PAVCGamePropertyItem@NGamePropertyListManager@@ABQAV12@@@8 DD FLAT:??_R1A@?0A@EA@?$CWHArray@PAVCGamePropertyItem@NGamePropertyListManager@@ABQAV12@@@8 ; CWHArray<NGamePropertyListManager::CGamePropertyItem *,NGamePropertyListManager::CGamePropertyItem * const &>::`RTTI Base Class Array'
rdata$r	ENDS
;	COMDAT ??_R3?$CWHArray@PAVCGamePropertyItem@NGamePropertyListManager@@ABQAV12@@@8
rdata$r	SEGMENT
??_R3?$CWHArray@PAVCGamePropertyItem@NGamePropertyListManager@@ABQAV12@@@8 DD 00H ; CWHArray<NGamePropertyListManager::CGamePropertyItem *,NGamePropertyListManager::CGamePropertyItem * const &>::`RTTI Class Hierarchy Descriptor'
	DD	00H
	DD	01H
	DD	FLAT:??_R2?$CWHArray@PAVCGamePropertyItem@NGamePropertyListManager@@ABQAV12@@@8
rdata$r	ENDS
;	COMDAT ??_R0?AV?$CWHArray@PAVCGamePropertyItem@NGamePropertyListManager@@ABQAV12@@@@8
data$r	SEGMENT
??_R0?AV?$CWHArray@PAVCGamePropertyItem@NGamePropertyListManager@@ABQAV12@@@@8 DD FLAT:??_7type_info@@6B@ ; CWHArray<NGamePropertyListManager::CGamePropertyItem *,NGamePropertyListManager::CGamePropertyItem * const &> `RTTI Type Descriptor'
	DD	00H
	DB	'.?AV?$CWHArray@PAVCGamePropertyItem@NGamePropertyListMan'
	DB	'ager@@ABQAV12@@@', 00H
data$r	ENDS
;	COMDAT ??_R4?$CWHArray@PAVCGamePropertyItem@NGamePropertyListManager@@ABQAV12@@@6B@
rdata$r	SEGMENT
??_R4?$CWHArray@PAVCGamePropertyItem@NGamePropertyListManager@@ABQAV12@@@6B@ DD 00H ; CWHArray<NGamePropertyListManager::CGamePropertyItem *,NGamePropertyListManager::CGamePropertyItem * const &>::`RTTI Complete Object Locator'
	DD	00H
	DD	00H
	DD	FLAT:??_R0?AV?$CWHArray@PAVCGamePropertyItem@NGamePropertyListManager@@ABQAV12@@@@8
	DD	FLAT:??_R3?$CWHArray@PAVCGamePropertyItem@NGamePropertyListManager@@ABQAV12@@@8
rdata$r	ENDS
;	COMDAT ??_R1A@?0A@EA@?$CWHArray@PAVCGamePropertyRelatItem@NGamePropertyListManager@@ABQAV12@@@8
rdata$r	SEGMENT
??_R1A@?0A@EA@?$CWHArray@PAVCGamePropertyRelatItem@NGamePropertyListManager@@ABQAV12@@@8 DD FLAT:??_R0?AV?$CWHArray@PAVCGamePropertyRelatItem@NGamePropertyListManager@@ABQAV12@@@@8 ; CWHArray<NGamePropertyListManager::CGamePropertyRelatItem *,NGamePropertyListManager::CGamePropertyRelatItem * const &>::`RTTI Base Class Descriptor at (0,-1,0,64)'
	DD	00H
	DD	00H
	DD	0ffffffffH
	DD	00H
	DD	040H
	DD	FLAT:??_R3?$CWHArray@PAVCGamePropertyRelatItem@NGamePropertyListManager@@ABQAV12@@@8
rdata$r	ENDS
;	COMDAT ??_R2?$CWHArray@PAVCGamePropertyRelatItem@NGamePropertyListManager@@ABQAV12@@@8
rdata$r	SEGMENT
??_R2?$CWHArray@PAVCGamePropertyRelatItem@NGamePropertyListManager@@ABQAV12@@@8 DD FLAT:??_R1A@?0A@EA@?$CWHArray@PAVCGamePropertyRelatItem@NGamePropertyListManager@@ABQAV12@@@8 ; CWHArray<NGamePropertyListManager::CGamePropertyRelatItem *,NGamePropertyListManager::CGamePropertyRelatItem * const &>::`RTTI Base Class Array'
rdata$r	ENDS
;	COMDAT ??_R3?$CWHArray@PAVCGamePropertyRelatItem@NGamePropertyListManager@@ABQAV12@@@8
rdata$r	SEGMENT
??_R3?$CWHArray@PAVCGamePropertyRelatItem@NGamePropertyListManager@@ABQAV12@@@8 DD 00H ; CWHArray<NGamePropertyListManager::CGamePropertyRelatItem *,NGamePropertyListManager::CGamePropertyRelatItem * const &>::`RTTI Class Hierarchy Descriptor'
	DD	00H
	DD	01H
	DD	FLAT:??_R2?$CWHArray@PAVCGamePropertyRelatItem@NGamePropertyListManager@@ABQAV12@@@8
rdata$r	ENDS
;	COMDAT ??_R0?AV?$CWHArray@PAVCGamePropertyRelatItem@NGamePropertyListManager@@ABQAV12@@@@8
data$r	SEGMENT
??_R0?AV?$CWHArray@PAVCGamePropertyRelatItem@NGamePropertyListManager@@ABQAV12@@@@8 DD FLAT:??_7type_info@@6B@ ; CWHArray<NGamePropertyListManager::CGamePropertyRelatItem *,NGamePropertyListManager::CGamePropertyRelatItem * const &> `RTTI Type Descriptor'
	DD	00H
	DB	'.?AV?$CWHArray@PAVCGamePropertyRelatItem@NGamePropertyLi'
	DB	'stManager@@ABQAV12@@@', 00H
data$r	ENDS
;	COMDAT ??_R4?$CWHArray@PAVCGamePropertyRelatItem@NGamePropertyListManager@@ABQAV12@@@6B@
rdata$r	SEGMENT
??_R4?$CWHArray@PAVCGamePropertyRelatItem@NGamePropertyListManager@@ABQAV12@@@6B@ DD 00H ; CWHArray<NGamePropertyListManager::CGamePropertyRelatItem *,NGamePropertyListManager::CGamePropertyRelatItem * const &>::`RTTI Complete Object Locator'
	DD	00H
	DD	00H
	DD	FLAT:??_R0?AV?$CWHArray@PAVCGamePropertyRelatItem@NGamePropertyListManager@@ABQAV12@@@@8
	DD	FLAT:??_R3?$CWHArray@PAVCGamePropertyRelatItem@NGamePropertyListManager@@ABQAV12@@@8
rdata$r	ENDS
;	COMDAT ??_R1A@?0A@EA@?$CWHArray@PAVCGamePropertyTypeItem@NGamePropertyListManager@@ABQAV12@@@8
rdata$r	SEGMENT
??_R1A@?0A@EA@?$CWHArray@PAVCGamePropertyTypeItem@NGamePropertyListManager@@ABQAV12@@@8 DD FLAT:??_R0?AV?$CWHArray@PAVCGamePropertyTypeItem@NGamePropertyListManager@@ABQAV12@@@@8 ; CWHArray<NGamePropertyListManager::CGamePropertyTypeItem *,NGamePropertyListManager::CGamePropertyTypeItem * const &>::`RTTI Base Class Descriptor at (0,-1,0,64)'
	DD	00H
	DD	00H
	DD	0ffffffffH
	DD	00H
	DD	040H
	DD	FLAT:??_R3?$CWHArray@PAVCGamePropertyTypeItem@NGamePropertyListManager@@ABQAV12@@@8
rdata$r	ENDS
;	COMDAT ??_R2?$CWHArray@PAVCGamePropertyTypeItem@NGamePropertyListManager@@ABQAV12@@@8
rdata$r	SEGMENT
??_R2?$CWHArray@PAVCGamePropertyTypeItem@NGamePropertyListManager@@ABQAV12@@@8 DD FLAT:??_R1A@?0A@EA@?$CWHArray@PAVCGamePropertyTypeItem@NGamePropertyListManager@@ABQAV12@@@8 ; CWHArray<NGamePropertyListManager::CGamePropertyTypeItem *,NGamePropertyListManager::CGamePropertyTypeItem * const &>::`RTTI Base Class Array'
rdata$r	ENDS
;	COMDAT ??_R3?$CWHArray@PAVCGamePropertyTypeItem@NGamePropertyListManager@@ABQAV12@@@8
rdata$r	SEGMENT
??_R3?$CWHArray@PAVCGamePropertyTypeItem@NGamePropertyListManager@@ABQAV12@@@8 DD 00H ; CWHArray<NGamePropertyListManager::CGamePropertyTypeItem *,NGamePropertyListManager::CGamePropertyTypeItem * const &>::`RTTI Class Hierarchy Descriptor'
	DD	00H
	DD	01H
	DD	FLAT:??_R2?$CWHArray@PAVCGamePropertyTypeItem@NGamePropertyListManager@@ABQAV12@@@8
rdata$r	ENDS
;	COMDAT ??_R0?AV?$CWHArray@PAVCGamePropertyTypeItem@NGamePropertyListManager@@ABQAV12@@@@8
data$r	SEGMENT
??_R0?AV?$CWHArray@PAVCGamePropertyTypeItem@NGamePropertyListManager@@ABQAV12@@@@8 DD FLAT:??_7type_info@@6B@ ; CWHArray<NGamePropertyListManager::CGamePropertyTypeItem *,NGamePropertyListManager::CGamePropertyTypeItem * const &> `RTTI Type Descriptor'
	DD	00H
	DB	'.?AV?$CWHArray@PAVCGamePropertyTypeItem@NGamePropertyLis'
	DB	'tManager@@ABQAV12@@@', 00H
data$r	ENDS
;	COMDAT ??_R4?$CWHArray@PAVCGamePropertyTypeItem@NGamePropertyListManager@@ABQAV12@@@6B@
rdata$r	SEGMENT
??_R4?$CWHArray@PAVCGamePropertyTypeItem@NGamePropertyListManager@@ABQAV12@@@6B@ DD 00H ; CWHArray<NGamePropertyListManager::CGamePropertyTypeItem *,NGamePropertyListManager::CGamePropertyTypeItem * const &>::`RTTI Complete Object Locator'
	DD	00H
	DD	00H
	DD	FLAT:??_R0?AV?$CWHArray@PAVCGamePropertyTypeItem@NGamePropertyListManager@@ABQAV12@@@@8
	DD	FLAT:??_R3?$CWHArray@PAVCGamePropertyTypeItem@NGamePropertyListManager@@ABQAV12@@@8
rdata$r	ENDS
;	COMDAT ??_C@_04OAFLPOMH@?$FN?5?$DN?5@
CONST	SEGMENT
??_C@_04OAFLPOMH@?$FN?5?$DN?5@ DB '] = ', 00H		; `string'
CONST	ENDS
;	COMDAT ??_C@_03OHJIHPJH@?6?7?$FL@
CONST	SEGMENT
??_C@_03OHJIHPJH@?6?7?$FL@ DB 0aH, 09H, '[', 00H	; `string'
CONST	ENDS
;	COMDAT ??_C@_0DF@LDFGAABH@g?3?2?M?x?$LK?$PM?2happygamewh?2?$LH?$PO?N?q?$LG?K?2?O?$LF?M?$LD@
CONST	SEGMENT
??_C@_0DF@LDFGAABH@g?3?2?M?x?$LK?$PM?2happygamewh?2?$LH?$PO?N?q?$LG?K?2?O?$LF?M?$LD@ DB 'g'
	DB	':\', 0cdH, 0f8H, 0baH, 0fcH, '\happygamewh\', 0b7H, 0feH, 0ceH
	DB	0f1H, 0b6H, 0cbH, '\', 0cfH, 0b5H, 0cdH, 0b3H, 0c4H, 0a3H, 0bfH
	DB	0e9H, '\', 0c8H, 0abH, 0beH, 0d6H, 0b6H, 0a8H, 0d2H, 0e5H, '\a'
	DB	'rray.h', 00H				; `string'
CONST	ENDS
;	COMDAT ?__LINE__Var@?0??InsertGamePropertySubItem@CGamePropertyListManager@NGamePropertyListManager@@QAE_NPAUtagPropertySubItem@@@Z@4JA
_DATA	SEGMENT
?__LINE__Var@?0??InsertGamePropertySubItem@CGamePropertyListManager@NGamePropertyListManager@@QAE_NPAUtagPropertySubItem@@@Z@4JA DD 01caH ; `NGamePropertyListManager::CGamePropertyListManager::InsertGamePropertySubItem'::`1'::__LINE__Var
_DATA	ENDS
;	COMDAT ?__LINE__Var@?0??InsertGamePropertyItem@CGamePropertyListManager@NGamePropertyListManager@@QAE_NPAUtagPropertyItem@@@Z@4JA
_DATA	SEGMENT
?__LINE__Var@?0??InsertGamePropertyItem@CGamePropertyListManager@NGamePropertyListManager@@QAE_NPAUtagPropertyItem@@@Z@4JA DD 019eH ; `NGamePropertyListManager::CGamePropertyListManager::InsertGamePropertyItem'::`1'::__LINE__Var
_DATA	ENDS
;	COMDAT ?__LINE__Var@?0??InsertGamePropertyRelatItem@CGamePropertyListManager@NGamePropertyListManager@@QAE_NPAUtagPropertyRelatItem@@@Z@4JA
_DATA	SEGMENT
?__LINE__Var@?0??InsertGamePropertyRelatItem@CGamePropertyListManager@NGamePropertyListManager@@QAE_NPAUtagPropertyRelatItem@@@Z@4JA DD 0160H ; `NGamePropertyListManager::CGamePropertyListManager::InsertGamePropertyRelatItem'::`1'::__LINE__Var
_DATA	ENDS
;	COMDAT ?__LINE__Var@?0??InsertGamePropertyTypeItem@CGamePropertyListManager@NGamePropertyListManager@@QAE_NPAUtagPropertyTypeItem@@@Z@4JA
_DATA	SEGMENT
?__LINE__Var@?0??InsertGamePropertyTypeItem@CGamePropertyListManager@NGamePropertyListManager@@QAE_NPAUtagPropertyTypeItem@@@Z@4JA DD 0137H ; `NGamePropertyListManager::CGamePropertyListManager::InsertGamePropertyTypeItem'::`1'::__LINE__Var
_DATA	ENDS
;	COMDAT ??_C@_0FG@GCELCLHM@g?3?2?M?x?$LK?$PM?2happygamewh?2?$LH?$PO?N?q?$LG?K?2?O?$LF?M?$LD@
CONST	SEGMENT
??_C@_0FG@GCELCLHM@g?3?2?M?x?$LK?$PM?2happygamewh?2?$LH?$PO?N?q?$LG?K?2?O?$LF?M?$LD@ DB 'g'
	DB	':\', 0cdH, 0f8H, 0baH, 0fcH, '\happygamewh\', 0b7H, 0feH, 0ceH
	DB	0f1H, 0b6H, 0cbH, '\', 0cfH, 0b5H, 0cdH, 0b3H, 0c4H, 0a3H, 0bfH
	DB	0e9H, '\', 0b7H, 0feH, 0ceH, 0f1H, 0c6H, 0f7H, 0d7H, 0e9H, 0bcH
	DB	0feH, '\', 0b5H, 0c7H, 0c2H, 0bcH, 0b7H, 0feH, 0ceH, 0f1H, 0c6H
	DB	0f7H, '\gamepropertylistmanager.cpp', 00H	; `string'
CONST	ENDS
;	COMDAT ?__LINE__Var@?0???1CGamePropertyListManager@NGamePropertyListManager@@UAE@XZ@4JA
_DATA	SEGMENT
?__LINE__Var@?0???1CGamePropertyListManager@NGamePropertyListManager@@UAE@XZ@4JA DD 048H ; `NGamePropertyListManager::CGamePropertyListManager::~CGamePropertyListManager'::`1'::__LINE__Var
_DATA	ENDS
;	COMDAT ??_7CGamePropertyListManager@NGamePropertyListManager@@6B@
CONST	SEGMENT
??_7CGamePropertyListManager@NGamePropertyListManager@@6B@ DD FLAT:??_R4CGamePropertyListManager@NGamePropertyListManager@@6B@ ; NGamePropertyListManager::CGamePropertyListManager::`vftable'
	DD	FLAT:??_ECGamePropertyListManager@NGamePropertyListManager@@UAEPAXI@Z
CONST	ENDS
;	COMDAT ??_7?$CWHArray@PAVCGamePropertySubItem@NGamePropertyListManager@@ABQAV12@@@6B@
CONST	SEGMENT
??_7?$CWHArray@PAVCGamePropertySubItem@NGamePropertyListManager@@ABQAV12@@@6B@ DD FLAT:??_R4?$CWHArray@PAVCGamePropertySubItem@NGamePropertyListManager@@ABQAV12@@@6B@ ; CWHArray<NGamePropertyListManager::CGamePropertySubItem *,NGamePropertyListManager::CGamePropertySubItem * const &>::`vftable'
	DD	FLAT:??_E?$CWHArray@PAVCGamePropertySubItem@NGamePropertyListManager@@ABQAV12@@@UAEPAXI@Z
CONST	ENDS
;	COMDAT ??_7?$CWHArray@PAVCGamePropertyItem@NGamePropertyListManager@@ABQAV12@@@6B@
CONST	SEGMENT
??_7?$CWHArray@PAVCGamePropertyItem@NGamePropertyListManager@@ABQAV12@@@6B@ DD FLAT:??_R4?$CWHArray@PAVCGamePropertyItem@NGamePropertyListManager@@ABQAV12@@@6B@ ; CWHArray<NGamePropertyListManager::CGamePropertyItem *,NGamePropertyListManager::CGamePropertyItem * const &>::`vftable'
	DD	FLAT:??_E?$CWHArray@PAVCGamePropertyItem@NGamePropertyListManager@@ABQAV12@@@UAEPAXI@Z
CONST	ENDS
;	COMDAT ??_7?$CWHArray@PAVCGamePropertyRelatItem@NGamePropertyListManager@@ABQAV12@@@6B@
CONST	SEGMENT
??_7?$CWHArray@PAVCGamePropertyRelatItem@NGamePropertyListManager@@ABQAV12@@@6B@ DD FLAT:??_R4?$CWHArray@PAVCGamePropertyRelatItem@NGamePropertyListManager@@ABQAV12@@@6B@ ; CWHArray<NGamePropertyListManager::CGamePropertyRelatItem *,NGamePropertyListManager::CGamePropertyRelatItem * const &>::`vftable'
	DD	FLAT:??_E?$CWHArray@PAVCGamePropertyRelatItem@NGamePropertyListManager@@ABQAV12@@@UAEPAXI@Z
CONST	ENDS
;	COMDAT ??_7?$CWHArray@PAVCGamePropertyTypeItem@NGamePropertyListManager@@ABQAV12@@@6B@
CONST	SEGMENT
??_7?$CWHArray@PAVCGamePropertyTypeItem@NGamePropertyListManager@@ABQAV12@@@6B@ DD FLAT:??_R4?$CWHArray@PAVCGamePropertyTypeItem@NGamePropertyListManager@@ABQAV12@@@6B@ ; CWHArray<NGamePropertyListManager::CGamePropertyTypeItem *,NGamePropertyListManager::CGamePropertyTypeItem * const &>::`vftable'
	DD	FLAT:??_E?$CWHArray@PAVCGamePropertyTypeItem@NGamePropertyListManager@@ABQAV12@@@UAEPAXI@Z
CONST	ENDS
;	COMDAT ??_7?$CMap@KKPAVCGamePropertySubItem@NGamePropertyListManager@@AAPAV12@@@6B@
CONST	SEGMENT
??_7?$CMap@KKPAVCGamePropertySubItem@NGamePropertyListManager@@AAPAV12@@@6B@ DD FLAT:??_R4?$CMap@KKPAVCGamePropertySubItem@NGamePropertyListManager@@AAPAV12@@@6B@ ; CMap<unsigned long,unsigned long,NGamePropertyListManager::CGamePropertySubItem *,NGamePropertyListManager::CGamePropertySubItem * &>::`vftable'
	DD	FLAT:?GetRuntimeClass@CObject@@UBEPAUCRuntimeClass@@XZ
	DD	FLAT:??_E?$CMap@KKPAVCGamePropertySubItem@NGamePropertyListManager@@AAPAV12@@@UAEPAXI@Z
	DD	FLAT:?Serialize@?$CMap@KKPAVCGamePropertySubItem@NGamePropertyListManager@@AAPAV12@@@UAEXAAVCArchive@@@Z
	DD	FLAT:?AssertValid@?$CMap@KKPAVCGamePropertySubItem@NGamePropertyListManager@@AAPAV12@@@UBEXXZ
	DD	FLAT:?Dump@?$CMap@KKPAVCGamePropertySubItem@NGamePropertyListManager@@AAPAV12@@@UBEXAAVCDumpContext@@@Z
CONST	ENDS
;	COMDAT ??_7?$CMap@KKPAVCGamePropertyItem@NGamePropertyListManager@@AAPAV12@@@6B@
CONST	SEGMENT
??_7?$CMap@KKPAVCGamePropertyItem@NGamePropertyListManager@@AAPAV12@@@6B@ DD FLAT:??_R4?$CMap@KKPAVCGamePropertyItem@NGamePropertyListManager@@AAPAV12@@@6B@ ; CMap<unsigned long,unsigned long,NGamePropertyListManager::CGamePropertyItem *,NGamePropertyListManager::CGamePropertyItem * &>::`vftable'
	DD	FLAT:?GetRuntimeClass@CObject@@UBEPAUCRuntimeClass@@XZ
	DD	FLAT:??_E?$CMap@KKPAVCGamePropertyItem@NGamePropertyListManager@@AAPAV12@@@UAEPAXI@Z
	DD	FLAT:?Serialize@?$CMap@KKPAVCGamePropertyItem@NGamePropertyListManager@@AAPAV12@@@UAEXAAVCArchive@@@Z
	DD	FLAT:?AssertValid@?$CMap@KKPAVCGamePropertyItem@NGamePropertyListManager@@AAPAV12@@@UBEXXZ
	DD	FLAT:?Dump@?$CMap@KKPAVCGamePropertyItem@NGamePropertyListManager@@AAPAV12@@@UBEXAAVCDumpContext@@@Z
CONST	ENDS
;	COMDAT ??_7?$CMap@KKPAVCGamePropertyRelatItem@NGamePropertyListManager@@AAPAV12@@@6B@
CONST	SEGMENT
??_7?$CMap@KKPAVCGamePropertyRelatItem@NGamePropertyListManager@@AAPAV12@@@6B@ DD FLAT:??_R4?$CMap@KKPAVCGamePropertyRelatItem@NGamePropertyListManager@@AAPAV12@@@6B@ ; CMap<unsigned long,unsigned long,NGamePropertyListManager::CGamePropertyRelatItem *,NGamePropertyListManager::CGamePropertyRelatItem * &>::`vftable'
	DD	FLAT:?GetRuntimeClass@CObject@@UBEPAUCRuntimeClass@@XZ
	DD	FLAT:??_E?$CMap@KKPAVCGamePropertyRelatItem@NGamePropertyListManager@@AAPAV12@@@UAEPAXI@Z
	DD	FLAT:?Serialize@?$CMap@KKPAVCGamePropertyRelatItem@NGamePropertyListManager@@AAPAV12@@@UAEXAAVCArchive@@@Z
	DD	FLAT:?AssertValid@?$CMap@KKPAVCGamePropertyRelatItem@NGamePropertyListManager@@AAPAV12@@@UBEXXZ
	DD	FLAT:?Dump@?$CMap@KKPAVCGamePropertyRelatItem@NGamePropertyListManager@@AAPAV12@@@UBEXAAVCDumpContext@@@Z
CONST	ENDS
;	COMDAT ??_7?$CMap@KKPAVCGamePropertyTypeItem@NGamePropertyListManager@@AAPAV12@@@6B@
CONST	SEGMENT
??_7?$CMap@KKPAVCGamePropertyTypeItem@NGamePropertyListManager@@AAPAV12@@@6B@ DD FLAT:??_R4?$CMap@KKPAVCGamePropertyTypeItem@NGamePropertyListManager@@AAPAV12@@@6B@ ; CMap<unsigned long,unsigned long,NGamePropertyListManager::CGamePropertyTypeItem *,NGamePropertyListManager::CGamePropertyTypeItem * &>::`vftable'
	DD	FLAT:?GetRuntimeClass@CObject@@UBEPAUCRuntimeClass@@XZ
	DD	FLAT:??_E?$CMap@KKPAVCGamePropertyTypeItem@NGamePropertyListManager@@AAPAV12@@@UAEPAXI@Z
	DD	FLAT:?Serialize@?$CMap@KKPAVCGamePropertyTypeItem@NGamePropertyListManager@@AAPAV12@@@UAEXAAVCArchive@@@Z
	DD	FLAT:?AssertValid@?$CMap@KKPAVCGamePropertyTypeItem@NGamePropertyListManager@@AAPAV12@@@UBEXXZ
	DD	FLAT:?Dump@?$CMap@KKPAVCGamePropertyTypeItem@NGamePropertyListManager@@AAPAV12@@@UBEXAAVCDumpContext@@@Z
CONST	ENDS
;	COMDAT ??_R2CObject@@8
rdata$r	SEGMENT
??_R2CObject@@8 DD FLAT:??_R1A@?0A@EA@CObject@@8	; CObject::`RTTI Base Class Array'
rdata$r	ENDS
;	COMDAT ??_R3CObject@@8
rdata$r	SEGMENT
??_R3CObject@@8 DD 00H					; CObject::`RTTI Class Hierarchy Descriptor'
	DD	00H
	DD	01H
	DD	FLAT:??_R2CObject@@8
rdata$r	ENDS
;	COMDAT ??_R0?AVCObject@@@8
data$r	SEGMENT
??_R0?AVCObject@@@8 DD FLAT:??_7type_info@@6B@		; CObject `RTTI Type Descriptor'
	DD	00H
	DB	'.?AVCObject@@', 00H
data$r	ENDS
;	COMDAT ??_R1A@?0A@EA@CObject@@8
rdata$r	SEGMENT
??_R1A@?0A@EA@CObject@@8 DD FLAT:??_R0?AVCObject@@@8	; CObject::`RTTI Base Class Descriptor at (0,-1,0,64)'
	DD	00H
	DD	00H
	DD	0ffffffffH
	DD	00H
	DD	040H
	DD	FLAT:??_R3CObject@@8
rdata$r	ENDS
;	COMDAT ??_C@_01EEMJAFIK@?6@
CONST	SEGMENT
??_C@_01EEMJAFIK@?6@ DB 0aH, 00H			; `string'
CONST	ENDS
;	COMDAT ??_C@_09HCLNAIDE@?5elements@
CONST	SEGMENT
??_C@_09HCLNAIDE@?5elements@ DB ' elements', 00H	; `string'
CONST	ENDS
;	COMDAT ??_C@_05PLCFPPOI@with?5@
CONST	SEGMENT
??_C@_05PLCFPPOI@with?5@ DB 'with ', 00H		; `string'
CONST	ENDS
;	COMDAT ??_C@_0HC@HBCNBCLF@c?3?2program?5files?5?$CIx86?$CJ?2microsof@
CONST	SEGMENT
??_C@_0HC@HBCNBCLF@c?3?2program?5files?5?$CIx86?$CJ?2microsof@ DB 'c:\pro'
	DB	'gram files (x86)\microsoft visual studio\2017\community\vc\to'
	DB	'ols\msvc\14.16.27023\atlmfc\include\afxtempl.h', 00H ; `string'
CONST	ENDS
;	COMDAT xdata$x
xdata$x	SEGMENT
__catchsym$?InsertGamePropertySubItem@CGamePropertyListManager@NGamePropertyListManager@@QAE_NPAUtagPropertySubItem@@@Z$3 DD 040H
	DD	00H
	DD	00H
	DD	FLAT:__catch$?InsertGamePropertySubItem@CGamePropertyListManager@NGamePropertyListManager@@QAE_NPAUtagPropertySubItem@@@Z$0
__tryblocktable$?InsertGamePropertySubItem@CGamePropertyListManager@NGamePropertyListManager@@QAE_NPAUtagPropertySubItem@@@Z DD 00H
	DD	01H
	DD	02H
	DD	01H
	DD	FLAT:__catchsym$?InsertGamePropertySubItem@CGamePropertyListManager@NGamePropertyListManager@@QAE_NPAUtagPropertySubItem@@@Z$3
__unwindtable$?InsertGamePropertySubItem@CGamePropertyListManager@NGamePropertyListManager@@QAE_NPAUtagPropertySubItem@@@Z DD 0ffffffffH
	DD	00H
	DD	00H
	DD	FLAT:__unwindfunclet$?InsertGamePropertySubItem@CGamePropertyListManager@NGamePropertyListManager@@QAE_NPAUtagPropertySubItem@@@Z$2
	DD	0ffffffffH
	DD	00H
__ehfuncinfo$?InsertGamePropertySubItem@CGamePropertyListManager@NGamePropertyListManager@@QAE_NPAUtagPropertySubItem@@@Z DD 019930522H
	DD	03H
	DD	FLAT:__unwindtable$?InsertGamePropertySubItem@CGamePropertyListManager@NGamePropertyListManager@@QAE_NPAUtagPropertySubItem@@@Z
	DD	01H
	DD	FLAT:__tryblocktable$?InsertGamePropertySubItem@CGamePropertyListManager@NGamePropertyListManager@@QAE_NPAUtagPropertySubItem@@@Z
	DD	2 DUP(00H)
	DD	00H
	DD	01H
xdata$x	ENDS
;	COMDAT xdata$x
xdata$x	SEGMENT
__catchsym$?InsertGamePropertyItem@CGamePropertyListManager@NGamePropertyListManager@@QAE_NPAUtagPropertyItem@@@Z$3 DD 040H
	DD	00H
	DD	00H
	DD	FLAT:__catch$?InsertGamePropertyItem@CGamePropertyListManager@NGamePropertyListManager@@QAE_NPAUtagPropertyItem@@@Z$0
__tryblocktable$?InsertGamePropertyItem@CGamePropertyListManager@NGamePropertyListManager@@QAE_NPAUtagPropertyItem@@@Z DD 00H
	DD	01H
	DD	02H
	DD	01H
	DD	FLAT:__catchsym$?InsertGamePropertyItem@CGamePropertyListManager@NGamePropertyListManager@@QAE_NPAUtagPropertyItem@@@Z$3
__unwindtable$?InsertGamePropertyItem@CGamePropertyListManager@NGamePropertyListManager@@QAE_NPAUtagPropertyItem@@@Z DD 0ffffffffH
	DD	00H
	DD	00H
	DD	FLAT:__unwindfunclet$?InsertGamePropertyItem@CGamePropertyListManager@NGamePropertyListManager@@QAE_NPAUtagPropertyItem@@@Z$2
	DD	0ffffffffH
	DD	00H
__ehfuncinfo$?InsertGamePropertyItem@CGamePropertyListManager@NGamePropertyListManager@@QAE_NPAUtagPropertyItem@@@Z DD 019930522H
	DD	03H
	DD	FLAT:__unwindtable$?InsertGamePropertyItem@CGamePropertyListManager@NGamePropertyListManager@@QAE_NPAUtagPropertyItem@@@Z
	DD	01H
	DD	FLAT:__tryblocktable$?InsertGamePropertyItem@CGamePropertyListManager@NGamePropertyListManager@@QAE_NPAUtagPropertyItem@@@Z
	DD	2 DUP(00H)
	DD	00H
	DD	01H
xdata$x	ENDS
;	COMDAT xdata$x
xdata$x	SEGMENT
__catchsym$?InsertGamePropertyRelatItem@CGamePropertyListManager@NGamePropertyListManager@@QAE_NPAUtagPropertyRelatItem@@@Z$3 DD 040H
	DD	00H
	DD	00H
	DD	FLAT:__catch$?InsertGamePropertyRelatItem@CGamePropertyListManager@NGamePropertyListManager@@QAE_NPAUtagPropertyRelatItem@@@Z$0
__tryblocktable$?InsertGamePropertyRelatItem@CGamePropertyListManager@NGamePropertyListManager@@QAE_NPAUtagPropertyRelatItem@@@Z DD 00H
	DD	01H
	DD	02H
	DD	01H
	DD	FLAT:__catchsym$?InsertGamePropertyRelatItem@CGamePropertyListManager@NGamePropertyListManager@@QAE_NPAUtagPropertyRelatItem@@@Z$3
__unwindtable$?InsertGamePropertyRelatItem@CGamePropertyListManager@NGamePropertyListManager@@QAE_NPAUtagPropertyRelatItem@@@Z DD 0ffffffffH
	DD	00H
	DD	00H
	DD	FLAT:__unwindfunclet$?InsertGamePropertyRelatItem@CGamePropertyListManager@NGamePropertyListManager@@QAE_NPAUtagPropertyRelatItem@@@Z$2
	DD	0ffffffffH
	DD	00H
__ehfuncinfo$?InsertGamePropertyRelatItem@CGamePropertyListManager@NGamePropertyListManager@@QAE_NPAUtagPropertyRelatItem@@@Z DD 019930522H
	DD	03H
	DD	FLAT:__unwindtable$?InsertGamePropertyRelatItem@CGamePropertyListManager@NGamePropertyListManager@@QAE_NPAUtagPropertyRelatItem@@@Z
	DD	01H
	DD	FLAT:__tryblocktable$?InsertGamePropertyRelatItem@CGamePropertyListManager@NGamePropertyListManager@@QAE_NPAUtagPropertyRelatItem@@@Z
	DD	2 DUP(00H)
	DD	00H
	DD	01H
xdata$x	ENDS
;	COMDAT xdata$x
xdata$x	SEGMENT
__catchsym$?InsertGamePropertyTypeItem@CGamePropertyListManager@NGamePropertyListManager@@QAE_NPAUtagPropertyTypeItem@@@Z$3 DD 040H
	DD	00H
	DD	00H
	DD	FLAT:__catch$?InsertGamePropertyTypeItem@CGamePropertyListManager@NGamePropertyListManager@@QAE_NPAUtagPropertyTypeItem@@@Z$0
__tryblocktable$?InsertGamePropertyTypeItem@CGamePropertyListManager@NGamePropertyListManager@@QAE_NPAUtagPropertyTypeItem@@@Z DD 00H
	DD	01H
	DD	02H
	DD	01H
	DD	FLAT:__catchsym$?InsertGamePropertyTypeItem@CGamePropertyListManager@NGamePropertyListManager@@QAE_NPAUtagPropertyTypeItem@@@Z$3
__unwindtable$?InsertGamePropertyTypeItem@CGamePropertyListManager@NGamePropertyListManager@@QAE_NPAUtagPropertyTypeItem@@@Z DD 0ffffffffH
	DD	00H
	DD	00H
	DD	FLAT:__unwindfunclet$?InsertGamePropertyTypeItem@CGamePropertyListManager@NGamePropertyListManager@@QAE_NPAUtagPropertyTypeItem@@@Z$2
	DD	0ffffffffH
	DD	00H
__ehfuncinfo$?InsertGamePropertyTypeItem@CGamePropertyListManager@NGamePropertyListManager@@QAE_NPAUtagPropertyTypeItem@@@Z DD 019930522H
	DD	03H
	DD	FLAT:__unwindtable$?InsertGamePropertyTypeItem@CGamePropertyListManager@NGamePropertyListManager@@QAE_NPAUtagPropertyTypeItem@@@Z
	DD	01H
	DD	FLAT:__tryblocktable$?InsertGamePropertyTypeItem@CGamePropertyListManager@NGamePropertyListManager@@QAE_NPAUtagPropertyTypeItem@@@Z
	DD	2 DUP(00H)
	DD	00H
	DD	01H
xdata$x	ENDS
;	COMDAT xdata$x
xdata$x	SEGMENT
__catchsym$??1CGamePropertyListManager@NGamePropertyListManager@@UAE@XZ$31 DD 040H
	DD	00H
	DD	00H
	DD	FLAT:__catch$??1CGamePropertyListManager@NGamePropertyListManager@@UAE@XZ$14
__catchsym$??1CGamePropertyListManager@NGamePropertyListManager@@UAE@XZ$30 DD 040H
	DD	00H
	DD	00H
	DD	FLAT:__catch$??1CGamePropertyListManager@NGamePropertyListManager@@UAE@XZ$12
__catchsym$??1CGamePropertyListManager@NGamePropertyListManager@@UAE@XZ$29 DD 040H
	DD	00H
	DD	00H
	DD	FLAT:__catch$??1CGamePropertyListManager@NGamePropertyListManager@@UAE@XZ$10
__catchsym$??1CGamePropertyListManager@NGamePropertyListManager@@UAE@XZ$28 DD 040H
	DD	00H
	DD	00H
	DD	FLAT:__catch$??1CGamePropertyListManager@NGamePropertyListManager@@UAE@XZ$8
__catchsym$??1CGamePropertyListManager@NGamePropertyListManager@@UAE@XZ$27 DD 040H
	DD	00H
	DD	00H
	DD	FLAT:__catch$??1CGamePropertyListManager@NGamePropertyListManager@@UAE@XZ$6
__catchsym$??1CGamePropertyListManager@NGamePropertyListManager@@UAE@XZ$26 DD 040H
	DD	00H
	DD	00H
	DD	FLAT:__catch$??1CGamePropertyListManager@NGamePropertyListManager@@UAE@XZ$4
__catchsym$??1CGamePropertyListManager@NGamePropertyListManager@@UAE@XZ$25 DD 040H
	DD	00H
	DD	00H
	DD	FLAT:__catch$??1CGamePropertyListManager@NGamePropertyListManager@@UAE@XZ$2
__catchsym$??1CGamePropertyListManager@NGamePropertyListManager@@UAE@XZ$24 DD 040H
	DD	00H
	DD	00H
	DD	FLAT:__catch$??1CGamePropertyListManager@NGamePropertyListManager@@UAE@XZ$0
__ehfuncinfo$??1CGamePropertyListManager@NGamePropertyListManager@@UAE@XZ DD 019930522H
	DD	018H
	DD	FLAT:__unwindtable$??1CGamePropertyListManager@NGamePropertyListManager@@UAE@XZ
	DD	08H
	DD	FLAT:__tryblocktable$??1CGamePropertyListManager@NGamePropertyListManager@@UAE@XZ
	DD	2 DUP(00H)
	DD	00H
	DD	05H
__tryblocktable$??1CGamePropertyListManager@NGamePropertyListManager@@UAE@XZ DD 08H
	DD	08H
	DD	09H
	DD	01H
	DD	FLAT:__catchsym$??1CGamePropertyListManager@NGamePropertyListManager@@UAE@XZ$24
	DD	0aH
	DD	0aH
	DD	0bH
	DD	01H
	DD	FLAT:__catchsym$??1CGamePropertyListManager@NGamePropertyListManager@@UAE@XZ$25
	DD	0cH
	DD	0cH
	DD	0dH
	DD	01H
	DD	FLAT:__catchsym$??1CGamePropertyListManager@NGamePropertyListManager@@UAE@XZ$26
	DD	0eH
	DD	0eH
	DD	0fH
	DD	01H
	DD	FLAT:__catchsym$??1CGamePropertyListManager@NGamePropertyListManager@@UAE@XZ$27
	DD	010H
	DD	010H
	DD	011H
	DD	01H
	DD	FLAT:__catchsym$??1CGamePropertyListManager@NGamePropertyListManager@@UAE@XZ$28
	DD	012H
	DD	012H
	DD	013H
	DD	01H
	DD	FLAT:__catchsym$??1CGamePropertyListManager@NGamePropertyListManager@@UAE@XZ$29
	DD	014H
	DD	014H
	DD	015H
	DD	01H
	DD	FLAT:__catchsym$??1CGamePropertyListManager@NGamePropertyListManager@@UAE@XZ$30
	DD	016H
	DD	016H
	DD	017H
	DD	01H
	DD	FLAT:__catchsym$??1CGamePropertyListManager@NGamePropertyListManager@@UAE@XZ$31
__unwindtable$??1CGamePropertyListManager@NGamePropertyListManager@@UAE@XZ DD 0ffffffffH
	DD	FLAT:__unwindfunclet$??1CGamePropertyListManager@NGamePropertyListManager@@UAE@XZ$16
	DD	00H
	DD	FLAT:__unwindfunclet$??1CGamePropertyListManager@NGamePropertyListManager@@UAE@XZ$17
	DD	01H
	DD	FLAT:__unwindfunclet$??1CGamePropertyListManager@NGamePropertyListManager@@UAE@XZ$18
	DD	02H
	DD	FLAT:__unwindfunclet$??1CGamePropertyListManager@NGamePropertyListManager@@UAE@XZ$19
	DD	03H
	DD	FLAT:__unwindfunclet$??1CGamePropertyListManager@NGamePropertyListManager@@UAE@XZ$20
	DD	04H
	DD	FLAT:__unwindfunclet$??1CGamePropertyListManager@NGamePropertyListManager@@UAE@XZ$21
	DD	05H
	DD	FLAT:__unwindfunclet$??1CGamePropertyListManager@NGamePropertyListManager@@UAE@XZ$22
	DD	06H
	DD	FLAT:__unwindfunclet$??1CGamePropertyListManager@NGamePropertyListManager@@UAE@XZ$23
	DD	07H
	DD	00H
	DD	07H
	DD	00H
	DD	07H
	DD	00H
	DD	07H
	DD	00H
	DD	07H
	DD	00H
	DD	07H
	DD	00H
	DD	07H
	DD	00H
	DD	07H
	DD	00H
	DD	07H
	DD	00H
	DD	07H
	DD	00H
	DD	07H
	DD	00H
	DD	07H
	DD	00H
	DD	07H
	DD	00H
	DD	07H
	DD	00H
	DD	07H
	DD	00H
	DD	07H
	DD	00H
xdata$x	ENDS
;	COMDAT xdata$x
xdata$x	SEGMENT
__ehfuncinfo$??0CGamePropertyListManager@NGamePropertyListManager@@QAE@XZ DD 019930522H
	DD	08H
	DD	FLAT:__unwindtable$??0CGamePropertyListManager@NGamePropertyListManager@@QAE@XZ
	DD	2 DUP(00H)
	DD	2 DUP(00H)
	DD	00H
	DD	01H
__unwindtable$??0CGamePropertyListManager@NGamePropertyListManager@@QAE@XZ DD 0ffffffffH
	DD	FLAT:__unwindfunclet$??0CGamePropertyListManager@NGamePropertyListManager@@QAE@XZ$0
	DD	00H
	DD	FLAT:__unwindfunclet$??0CGamePropertyListManager@NGamePropertyListManager@@QAE@XZ$1
	DD	01H
	DD	FLAT:__unwindfunclet$??0CGamePropertyListManager@NGamePropertyListManager@@QAE@XZ$2
	DD	02H
	DD	FLAT:__unwindfunclet$??0CGamePropertyListManager@NGamePropertyListManager@@QAE@XZ$3
	DD	03H
	DD	FLAT:__unwindfunclet$??0CGamePropertyListManager@NGamePropertyListManager@@QAE@XZ$4
	DD	04H
	DD	FLAT:__unwindfunclet$??0CGamePropertyListManager@NGamePropertyListManager@@QAE@XZ$5
	DD	05H
	DD	FLAT:__unwindfunclet$??0CGamePropertyListManager@NGamePropertyListManager@@QAE@XZ$6
	DD	06H
	DD	FLAT:__unwindfunclet$??0CGamePropertyListManager@NGamePropertyListManager@@QAE@XZ$7
xdata$x	ENDS
;	COMDAT xdata$x
xdata$x	SEGMENT
__ehfuncinfo$??1?$CMap@KKPAVCGamePropertySubItem@NGamePropertyListManager@@AAPAV12@@@UAE@XZ DD 019930522H
	DD	00H
	DD	00H
	DD	2 DUP(00H)
	DD	2 DUP(00H)
	DD	00H
	DD	05H
xdata$x	ENDS
;	COMDAT xdata$x
xdata$x	SEGMENT
__unwindtable$??0?$CMap@KKPAVCGamePropertySubItem@NGamePropertyListManager@@AAPAV12@@@QAE@H@Z DD 0ffffffffH
	DD	FLAT:__unwindfunclet$??0?$CMap@KKPAVCGamePropertySubItem@NGamePropertyListManager@@AAPAV12@@@QAE@H@Z$0
__ehfuncinfo$??0?$CMap@KKPAVCGamePropertySubItem@NGamePropertyListManager@@AAPAV12@@@QAE@H@Z DD 019930522H
	DD	01H
	DD	FLAT:__unwindtable$??0?$CMap@KKPAVCGamePropertySubItem@NGamePropertyListManager@@AAPAV12@@@QAE@H@Z
	DD	2 DUP(00H)
	DD	2 DUP(00H)
	DD	00H
	DD	01H
xdata$x	ENDS
;	COMDAT xdata$x
xdata$x	SEGMENT
__ehfuncinfo$??1?$CMap@KKPAVCGamePropertyItem@NGamePropertyListManager@@AAPAV12@@@UAE@XZ DD 019930522H
	DD	00H
	DD	00H
	DD	2 DUP(00H)
	DD	2 DUP(00H)
	DD	00H
	DD	05H
xdata$x	ENDS
;	COMDAT xdata$x
xdata$x	SEGMENT
__unwindtable$??0?$CMap@KKPAVCGamePropertyItem@NGamePropertyListManager@@AAPAV12@@@QAE@H@Z DD 0ffffffffH
	DD	FLAT:__unwindfunclet$??0?$CMap@KKPAVCGamePropertyItem@NGamePropertyListManager@@AAPAV12@@@QAE@H@Z$0
__ehfuncinfo$??0?$CMap@KKPAVCGamePropertyItem@NGamePropertyListManager@@AAPAV12@@@QAE@H@Z DD 019930522H
	DD	01H
	DD	FLAT:__unwindtable$??0?$CMap@KKPAVCGamePropertyItem@NGamePropertyListManager@@AAPAV12@@@QAE@H@Z
	DD	2 DUP(00H)
	DD	2 DUP(00H)
	DD	00H
	DD	01H
xdata$x	ENDS
;	COMDAT xdata$x
xdata$x	SEGMENT
__ehfuncinfo$??1?$CMap@KKPAVCGamePropertyRelatItem@NGamePropertyListManager@@AAPAV12@@@UAE@XZ DD 019930522H
	DD	00H
	DD	00H
	DD	2 DUP(00H)
	DD	2 DUP(00H)
	DD	00H
	DD	05H
xdata$x	ENDS
;	COMDAT xdata$x
xdata$x	SEGMENT
__unwindtable$??0?$CMap@KKPAVCGamePropertyRelatItem@NGamePropertyListManager@@AAPAV12@@@QAE@H@Z DD 0ffffffffH
	DD	FLAT:__unwindfunclet$??0?$CMap@KKPAVCGamePropertyRelatItem@NGamePropertyListManager@@AAPAV12@@@QAE@H@Z$0
__ehfuncinfo$??0?$CMap@KKPAVCGamePropertyRelatItem@NGamePropertyListManager@@AAPAV12@@@QAE@H@Z DD 019930522H
	DD	01H
	DD	FLAT:__unwindtable$??0?$CMap@KKPAVCGamePropertyRelatItem@NGamePropertyListManager@@AAPAV12@@@QAE@H@Z
	DD	2 DUP(00H)
	DD	2 DUP(00H)
	DD	00H
	DD	01H
xdata$x	ENDS
;	COMDAT xdata$x
xdata$x	SEGMENT
__ehfuncinfo$??1?$CMap@KKPAVCGamePropertyTypeItem@NGamePropertyListManager@@AAPAV12@@@UAE@XZ DD 019930522H
	DD	00H
	DD	00H
	DD	2 DUP(00H)
	DD	2 DUP(00H)
	DD	00H
	DD	05H
xdata$x	ENDS
;	COMDAT xdata$x
xdata$x	SEGMENT
__unwindtable$??0?$CMap@KKPAVCGamePropertyTypeItem@NGamePropertyListManager@@AAPAV12@@@QAE@H@Z DD 0ffffffffH
	DD	FLAT:__unwindfunclet$??0?$CMap@KKPAVCGamePropertyTypeItem@NGamePropertyListManager@@AAPAV12@@@QAE@H@Z$0
__ehfuncinfo$??0?$CMap@KKPAVCGamePropertyTypeItem@NGamePropertyListManager@@AAPAV12@@@QAE@H@Z DD 019930522H
	DD	01H
	DD	FLAT:__unwindtable$??0?$CMap@KKPAVCGamePropertyTypeItem@NGamePropertyListManager@@AAPAV12@@@QAE@H@Z
	DD	2 DUP(00H)
	DD	2 DUP(00H)
	DD	00H
	DD	01H
xdata$x	ENDS
; Function compile flags: /Odtp /ZI
; File c:\program files (x86)\microsoft visual studio\2017\community\vc\tools\msvc\14.16.27023\atlmfc\include\afxtempl.h
;	COMDAT ??$DumpElements@PAVCGamePropertySubItem@NGamePropertyListManager@@@@YGXAAVCDumpContext@@PBQAVCGamePropertySubItem@NGamePropertyListManager@@H@Z
_TEXT	SEGMENT
tv66 = -72						; size = 4
___afx_condVal$1 = -4					; size = 4
_dc$ = 8						; size = 4
_pElements$ = 12					; size = 4
_nCount$ = 16						; size = 4
??$DumpElements@PAVCGamePropertySubItem@NGamePropertyListManager@@@@YGXAAVCDumpContext@@PBQAVCGamePropertySubItem@NGamePropertyListManager@@H@Z PROC ; DumpElements<NGamePropertyListManager::CGamePropertySubItem *>, COMDAT

; 137  : {

  00000	55		 push	 ebp
  00001	8b ec		 mov	 ebp, esp
  00003	83 ec 48	 sub	 esp, 72			; 00000048H
  00006	53		 push	 ebx
  00007	56		 push	 esi
  00008	57		 push	 edi
$LN4@DumpElemen:

; 138  : 	ENSURE(nCount == 0 || pElements != NULL);

  00009	83 7d 10 00	 cmp	 DWORD PTR _nCount$[ebp], 0
  0000d	74 0f		 je	 SHORT $LN7@DumpElemen
  0000f	83 7d 0c 00	 cmp	 DWORD PTR _pElements$[ebp], 0
  00013	75 09		 jne	 SHORT $LN7@DumpElemen
  00015	c7 45 b8 00 00
	00 00		 mov	 DWORD PTR tv66[ebp], 0
  0001c	eb 07		 jmp	 SHORT $LN8@DumpElemen
$LN7@DumpElemen:
  0001e	c7 45 b8 01 00
	00 00		 mov	 DWORD PTR tv66[ebp], 1
$LN8@DumpElemen:
  00025	8b 45 b8	 mov	 eax, DWORD PTR tv66[ebp]
  00028	89 45 fc	 mov	 DWORD PTR ___afx_condVal$1[ebp], eax
  0002b	83 7d fc 00	 cmp	 DWORD PTR ___afx_condVal$1[ebp], 0
  0002f	75 14		 jne	 SHORT $LN9@DumpElemen
  00031	68 8a 00 00 00	 push	 138			; 0000008aH
  00036	68 00 00 00 00	 push	 OFFSET ??_C@_0HC@HBCNBCLF@c?3?2program?5files?5?$CIx86?$CJ?2microsof@
  0003b	e8 00 00 00 00	 call	 ?AfxAssertFailedLine@@YGHPBDH@Z ; AfxAssertFailedLine
  00040	85 c0		 test	 eax, eax
  00042	74 01		 je	 SHORT $LN9@DumpElemen
  00044	cc		 int	 3
$LN9@DumpElemen:
  00045	83 7d fc 00	 cmp	 DWORD PTR ___afx_condVal$1[ebp], 0
  00049	75 05		 jne	 SHORT $LN2@DumpElemen
  0004b	e8 00 00 00 00	 call	 ?AfxThrowInvalidArgException@@YGXXZ ; AfxThrowInvalidArgException
$LN2@DumpElemen:
  00050	33 c0		 xor	 eax, eax
  00052	75 b5		 jne	 SHORT $LN4@DumpElemen

; 139  : 	ASSERT(nCount == 0 ||

  00054	83 7d 10 00	 cmp	 DWORD PTR _nCount$[ebp], 0
  00058	74 2a		 je	 SHORT $LN6@DumpElemen
  0005a	6a 00		 push	 0
  0005c	8b 45 10	 mov	 eax, DWORD PTR _nCount$[ebp]
  0005f	c1 e0 02	 shl	 eax, 2
  00062	50		 push	 eax
  00063	8b 4d 0c	 mov	 ecx, DWORD PTR _pElements$[ebp]
  00066	51		 push	 ecx
  00067	e8 00 00 00 00	 call	 ?AfxIsValidAddress@@YGHPBXIH@Z ; AfxIsValidAddress
  0006c	85 c0		 test	 eax, eax
  0006e	75 14		 jne	 SHORT $LN6@DumpElemen
  00070	68 8c 00 00 00	 push	 140			; 0000008cH
  00075	68 00 00 00 00	 push	 OFFSET ??_C@_0HC@HBCNBCLF@c?3?2program?5files?5?$CIx86?$CJ?2microsof@
  0007a	e8 00 00 00 00	 call	 ?AfxAssertFailedLine@@YGHPBDH@Z ; AfxAssertFailedLine
  0007f	85 c0		 test	 eax, eax
  00081	74 01		 je	 SHORT $LN6@DumpElemen
  00083	cc		 int	 3
$LN6@DumpElemen:

; 140  : 		AfxIsValidAddress(pElements, (size_t)nCount * sizeof(TYPE), FALSE));
; 141  : 	(dc); // not used
; 142  : 	(pElements);  // not used
; 143  : 	(nCount); // not used
; 144  : 
; 145  : 	// default does nothing
; 146  : }

  00084	5f		 pop	 edi
  00085	5e		 pop	 esi
  00086	5b		 pop	 ebx
  00087	8b e5		 mov	 esp, ebp
  00089	5d		 pop	 ebp
  0008a	c2 0c 00	 ret	 12			; 0000000cH
??$DumpElements@PAVCGamePropertySubItem@NGamePropertyListManager@@@@YGXAAVCDumpContext@@PBQAVCGamePropertySubItem@NGamePropertyListManager@@H@Z ENDP ; DumpElements<NGamePropertyListManager::CGamePropertySubItem *>
_TEXT	ENDS
; Function compile flags: /Odtp /ZI
; File c:\program files (x86)\microsoft visual studio\2017\community\vc\tools\msvc\14.16.27023\atlmfc\include\afxtempl.h
;	COMDAT ??$SerializeElements@PAVCGamePropertySubItem@NGamePropertyListManager@@@@YGXAAVCArchive@@PAPAVCGamePropertySubItem@NGamePropertyListManager@@H@Z
_TEXT	SEGMENT
tv134 = -96						; size = 4
tv92 = -96						; size = 4
tv66 = -96						; size = 4
_nElementsToRead$1 = -28				; size = 4
_nElementsLeft$2 = -24					; size = 4
_pData$3 = -20						; size = 4
_nElementsToWrite$4 = -16				; size = 4
_nElementsLeft$5 = -12					; size = 4
_pData$6 = -8						; size = 4
___afx_condVal$7 = -4					; size = 4
_ar$ = 8						; size = 4
_pElements$ = 12					; size = 4
_nCount$ = 16						; size = 4
??$SerializeElements@PAVCGamePropertySubItem@NGamePropertyListManager@@@@YGXAAVCArchive@@PAPAVCGamePropertySubItem@NGamePropertyListManager@@H@Z PROC ; SerializeElements<NGamePropertyListManager::CGamePropertySubItem *>, COMDAT

; 67   : {

  00000	55		 push	 ebp
  00001	8b ec		 mov	 ebp, esp
  00003	83 ec 60	 sub	 esp, 96			; 00000060H
  00006	53		 push	 ebx
  00007	56		 push	 esi
  00008	57		 push	 edi
$LN4@SerializeE:

; 68   : 	ENSURE(nCount == 0 || pElements != NULL);

  00009	83 7d 10 00	 cmp	 DWORD PTR _nCount$[ebp], 0
  0000d	74 0f		 je	 SHORT $LN13@SerializeE
  0000f	83 7d 0c 00	 cmp	 DWORD PTR _pElements$[ebp], 0
  00013	75 09		 jne	 SHORT $LN13@SerializeE
  00015	c7 45 a0 00 00
	00 00		 mov	 DWORD PTR tv66[ebp], 0
  0001c	eb 07		 jmp	 SHORT $LN14@SerializeE
$LN13@SerializeE:
  0001e	c7 45 a0 01 00
	00 00		 mov	 DWORD PTR tv66[ebp], 1
$LN14@SerializeE:
  00025	8b 45 a0	 mov	 eax, DWORD PTR tv66[ebp]
  00028	89 45 fc	 mov	 DWORD PTR ___afx_condVal$7[ebp], eax
  0002b	83 7d fc 00	 cmp	 DWORD PTR ___afx_condVal$7[ebp], 0
  0002f	75 11		 jne	 SHORT $LN15@SerializeE
  00031	6a 44		 push	 68			; 00000044H
  00033	68 00 00 00 00	 push	 OFFSET ??_C@_0HC@HBCNBCLF@c?3?2program?5files?5?$CIx86?$CJ?2microsof@
  00038	e8 00 00 00 00	 call	 ?AfxAssertFailedLine@@YGHPBDH@Z ; AfxAssertFailedLine
  0003d	85 c0		 test	 eax, eax
  0003f	74 01		 je	 SHORT $LN15@SerializeE
  00041	cc		 int	 3
$LN15@SerializeE:
  00042	83 7d fc 00	 cmp	 DWORD PTR ___afx_condVal$7[ebp], 0
  00046	75 05		 jne	 SHORT $LN2@SerializeE
  00048	e8 00 00 00 00	 call	 ?AfxThrowInvalidArgException@@YGXXZ ; AfxThrowInvalidArgException
$LN2@SerializeE:
  0004d	33 c0		 xor	 eax, eax
  0004f	75 b8		 jne	 SHORT $LN4@SerializeE

; 69   : 	ASSERT(nCount == 0 ||

  00051	83 7d 10 00	 cmp	 DWORD PTR _nCount$[ebp], 0
  00055	74 27		 je	 SHORT $LN16@SerializeE
  00057	6a 01		 push	 1
  00059	8b 45 10	 mov	 eax, DWORD PTR _nCount$[ebp]
  0005c	c1 e0 02	 shl	 eax, 2
  0005f	50		 push	 eax
  00060	8b 4d 0c	 mov	 ecx, DWORD PTR _pElements$[ebp]
  00063	51		 push	 ecx
  00064	e8 00 00 00 00	 call	 ?AfxIsValidAddress@@YGHPBXIH@Z ; AfxIsValidAddress
  00069	85 c0		 test	 eax, eax
  0006b	75 11		 jne	 SHORT $LN16@SerializeE
  0006d	6a 46		 push	 70			; 00000046H
  0006f	68 00 00 00 00	 push	 OFFSET ??_C@_0HC@HBCNBCLF@c?3?2program?5files?5?$CIx86?$CJ?2microsof@
  00074	e8 00 00 00 00	 call	 ?AfxAssertFailedLine@@YGHPBDH@Z ; AfxAssertFailedLine
  00079	85 c0		 test	 eax, eax
  0007b	74 01		 je	 SHORT $LN16@SerializeE
  0007d	cc		 int	 3
$LN16@SerializeE:

; 70   : 		AfxIsValidAddress(pElements, (size_t)nCount * sizeof(TYPE)));
; 71   : 
; 72   : 	// default is bit-wise read/write
; 73   : 	if (ar.IsStoring())

  0007e	8b 4d 08	 mov	 ecx, DWORD PTR _ar$[ebp]
  00081	e8 00 00 00 00	 call	 ?IsStoring@CArchive@@QBEHXZ ; CArchive::IsStoring
  00086	85 c0		 test	 eax, eax
  00088	74 5c		 je	 SHORT $LN10@SerializeE

; 74   : 	{
; 75   : 		TYPE* pData;
; 76   : 		UINT_PTR nElementsLeft;
; 77   : 
; 78   : 		nElementsLeft = nCount;

  0008a	8b 45 10	 mov	 eax, DWORD PTR _nCount$[ebp]
  0008d	89 45 f4	 mov	 DWORD PTR _nElementsLeft$5[ebp], eax

; 79   : 		pData = pElements;

  00090	8b 45 0c	 mov	 eax, DWORD PTR _pElements$[ebp]
  00093	89 45 f8	 mov	 DWORD PTR _pData$6[ebp], eax
$LN5@SerializeE:

; 80   : 		while( nElementsLeft > 0 )

  00096	83 7d f4 00	 cmp	 DWORD PTR _nElementsLeft$5[ebp], 0
  0009a	76 48		 jbe	 SHORT $LN6@SerializeE

; 81   : 		{
; 82   : 			UINT nElementsToWrite;
; 83   : 
; 84   : 			nElementsToWrite = UINT(__min(nElementsLeft, INT_MAX/sizeof(TYPE)));

  0009c	81 7d f4 ff ff
	ff 1f		 cmp	 DWORD PTR _nElementsLeft$5[ebp], 536870911 ; 1fffffffH
  000a3	73 08		 jae	 SHORT $LN17@SerializeE
  000a5	8b 45 f4	 mov	 eax, DWORD PTR _nElementsLeft$5[ebp]
  000a8	89 45 a0	 mov	 DWORD PTR tv92[ebp], eax
  000ab	eb 07		 jmp	 SHORT $LN18@SerializeE
$LN17@SerializeE:
  000ad	c7 45 a0 ff ff
	ff 1f		 mov	 DWORD PTR tv92[ebp], 536870911 ; 1fffffffH
$LN18@SerializeE:
  000b4	8b 4d a0	 mov	 ecx, DWORD PTR tv92[ebp]
  000b7	89 4d f0	 mov	 DWORD PTR _nElementsToWrite$4[ebp], ecx

; 85   : 			ar.Write(pData, nElementsToWrite*sizeof(TYPE));

  000ba	8b 45 f0	 mov	 eax, DWORD PTR _nElementsToWrite$4[ebp]
  000bd	c1 e0 02	 shl	 eax, 2
  000c0	50		 push	 eax
  000c1	8b 4d f8	 mov	 ecx, DWORD PTR _pData$6[ebp]
  000c4	51		 push	 ecx
  000c5	8b 4d 08	 mov	 ecx, DWORD PTR _ar$[ebp]
  000c8	e8 00 00 00 00	 call	 ?Write@CArchive@@QAEXPBXI@Z ; CArchive::Write

; 86   : 			nElementsLeft -= nElementsToWrite;

  000cd	8b 45 f4	 mov	 eax, DWORD PTR _nElementsLeft$5[ebp]
  000d0	2b 45 f0	 sub	 eax, DWORD PTR _nElementsToWrite$4[ebp]
  000d3	89 45 f4	 mov	 DWORD PTR _nElementsLeft$5[ebp], eax

; 87   : 			pData += nElementsToWrite;

  000d6	8b 45 f0	 mov	 eax, DWORD PTR _nElementsToWrite$4[ebp]
  000d9	8b 4d f8	 mov	 ecx, DWORD PTR _pData$6[ebp]
  000dc	8d 14 81	 lea	 edx, DWORD PTR [ecx+eax*4]
  000df	89 55 f8	 mov	 DWORD PTR _pData$6[ebp], edx

; 88   : 		}

  000e2	eb b2		 jmp	 SHORT $LN5@SerializeE
$LN6@SerializeE:

; 89   : 	}
; 90   : 	else

  000e4	eb 5a		 jmp	 SHORT $LN12@SerializeE
$LN10@SerializeE:

; 91   : 	{
; 92   : 		TYPE* pData;
; 93   : 		UINT_PTR nElementsLeft;
; 94   : 
; 95   : 		nElementsLeft = nCount;

  000e6	8b 45 10	 mov	 eax, DWORD PTR _nCount$[ebp]
  000e9	89 45 e8	 mov	 DWORD PTR _nElementsLeft$2[ebp], eax

; 96   : 		pData = pElements;

  000ec	8b 45 0c	 mov	 eax, DWORD PTR _pElements$[ebp]
  000ef	89 45 ec	 mov	 DWORD PTR _pData$3[ebp], eax
$LN7@SerializeE:

; 97   : 		while( nElementsLeft > 0 )

  000f2	83 7d e8 00	 cmp	 DWORD PTR _nElementsLeft$2[ebp], 0
  000f6	76 48		 jbe	 SHORT $LN12@SerializeE

; 98   : 		{
; 99   : 			UINT nElementsToRead;
; 100  : 
; 101  : 			nElementsToRead = UINT(__min(nElementsLeft, INT_MAX/sizeof(TYPE)));

  000f8	81 7d e8 ff ff
	ff 1f		 cmp	 DWORD PTR _nElementsLeft$2[ebp], 536870911 ; 1fffffffH
  000ff	73 08		 jae	 SHORT $LN19@SerializeE
  00101	8b 45 e8	 mov	 eax, DWORD PTR _nElementsLeft$2[ebp]
  00104	89 45 a0	 mov	 DWORD PTR tv134[ebp], eax
  00107	eb 07		 jmp	 SHORT $LN20@SerializeE
$LN19@SerializeE:
  00109	c7 45 a0 ff ff
	ff 1f		 mov	 DWORD PTR tv134[ebp], 536870911 ; 1fffffffH
$LN20@SerializeE:
  00110	8b 4d a0	 mov	 ecx, DWORD PTR tv134[ebp]
  00113	89 4d e4	 mov	 DWORD PTR _nElementsToRead$1[ebp], ecx

; 102  : 			ar.EnsureRead(pData, nElementsToRead*sizeof(TYPE));

  00116	8b 45 e4	 mov	 eax, DWORD PTR _nElementsToRead$1[ebp]
  00119	c1 e0 02	 shl	 eax, 2
  0011c	50		 push	 eax
  0011d	8b 4d ec	 mov	 ecx, DWORD PTR _pData$3[ebp]
  00120	51		 push	 ecx
  00121	8b 4d 08	 mov	 ecx, DWORD PTR _ar$[ebp]
  00124	e8 00 00 00 00	 call	 ?EnsureRead@CArchive@@QAEXPAXI@Z ; CArchive::EnsureRead

; 103  : 			nElementsLeft -= nElementsToRead;

  00129	8b 45 e8	 mov	 eax, DWORD PTR _nElementsLeft$2[ebp]
  0012c	2b 45 e4	 sub	 eax, DWORD PTR _nElementsToRead$1[ebp]
  0012f	89 45 e8	 mov	 DWORD PTR _nElementsLeft$2[ebp], eax

; 104  : 			pData += nElementsToRead;

  00132	8b 45 e4	 mov	 eax, DWORD PTR _nElementsToRead$1[ebp]
  00135	8b 4d ec	 mov	 ecx, DWORD PTR _pData$3[ebp]
  00138	8d 14 81	 lea	 edx, DWORD PTR [ecx+eax*4]
  0013b	89 55 ec	 mov	 DWORD PTR _pData$3[ebp], edx

; 105  : 		}

  0013e	eb b2		 jmp	 SHORT $LN7@SerializeE
$LN12@SerializeE:

; 106  : 	}
; 107  : }

  00140	5f		 pop	 edi
  00141	5e		 pop	 esi
  00142	5b		 pop	 ebx
  00143	8b e5		 mov	 esp, ebp
  00145	5d		 pop	 ebp
  00146	c2 0c 00	 ret	 12			; 0000000cH
??$SerializeElements@PAVCGamePropertySubItem@NGamePropertyListManager@@@@YGXAAVCArchive@@PAPAVCGamePropertySubItem@NGamePropertyListManager@@H@Z ENDP ; SerializeElements<NGamePropertyListManager::CGamePropertySubItem *>
_TEXT	ENDS
; Function compile flags: /Odtp /ZI
; File c:\program files (x86)\microsoft visual studio\2017\community\vc\tools\msvc\14.16.27023\atlmfc\include\afxtempl.h
;	COMDAT ??0CAssoc@?$CMap@KKPAVCGamePropertySubItem@NGamePropertyListManager@@AAPAV12@@@QAE@K@Z
_TEXT	SEGMENT
_this$ = -4						; size = 4
_key$ = 8						; size = 4
??0CAssoc@?$CMap@KKPAVCGamePropertySubItem@NGamePropertyListManager@@AAPAV12@@@QAE@K@Z PROC ; CMap<unsigned long,unsigned long,NGamePropertyListManager::CGamePropertySubItem *,NGamePropertyListManager::CGamePropertySubItem * &>::CAssoc::CAssoc, COMDAT
; _this$ = ecx

; 1267 : 		CAssoc( ARG_KEY key ) : CPair( key ) {}

  00000	55		 push	 ebp
  00001	8b ec		 mov	 ebp, esp
  00003	83 ec 44	 sub	 esp, 68			; 00000044H
  00006	53		 push	 ebx
  00007	56		 push	 esi
  00008	57		 push	 edi
  00009	89 4d fc	 mov	 DWORD PTR _this$[ebp], ecx
  0000c	8b 45 08	 mov	 eax, DWORD PTR _key$[ebp]
  0000f	50		 push	 eax
  00010	8b 4d fc	 mov	 ecx, DWORD PTR _this$[ebp]
  00013	e8 00 00 00 00	 call	 ??0CPair@?$CMap@KKPAVCGamePropertySubItem@NGamePropertyListManager@@AAPAV12@@@IAE@K@Z ; CMap<unsigned long,unsigned long,NGamePropertyListManager::CGamePropertySubItem *,NGamePropertyListManager::CGamePropertySubItem * &>::CPair::CPair
  00018	8b 45 fc	 mov	 eax, DWORD PTR _this$[ebp]
  0001b	5f		 pop	 edi
  0001c	5e		 pop	 esi
  0001d	5b		 pop	 ebx
  0001e	8b e5		 mov	 esp, ebp
  00020	5d		 pop	 ebp
  00021	c2 04 00	 ret	 4
??0CAssoc@?$CMap@KKPAVCGamePropertySubItem@NGamePropertyListManager@@AAPAV12@@@QAE@K@Z ENDP ; CMap<unsigned long,unsigned long,NGamePropertyListManager::CGamePropertySubItem *,NGamePropertyListManager::CGamePropertySubItem * &>::CAssoc::CAssoc
_TEXT	ENDS
; Function compile flags: /Odtp /ZI
; File c:\program files (x86)\microsoft visual studio\2017\community\vc\tools\msvc\14.16.27023\atlmfc\include\afxtempl.h
;	COMDAT ??0CPair@?$CMap@KKPAVCGamePropertySubItem@NGamePropertyListManager@@AAPAV12@@@IAE@K@Z
_TEXT	SEGMENT
_this$ = -4						; size = 4
_keyval$ = 8						; size = 4
??0CPair@?$CMap@KKPAVCGamePropertySubItem@NGamePropertyListManager@@AAPAV12@@@IAE@K@Z PROC ; CMap<unsigned long,unsigned long,NGamePropertyListManager::CGamePropertySubItem *,NGamePropertyListManager::CGamePropertySubItem * &>::CPair::CPair, COMDAT
; _this$ = ecx

; 1256 : 		CPair( ARG_KEY keyval ) : key( keyval )	{}

  00000	55		 push	 ebp
  00001	8b ec		 mov	 ebp, esp
  00003	83 ec 44	 sub	 esp, 68			; 00000044H
  00006	53		 push	 ebx
  00007	56		 push	 esi
  00008	57		 push	 edi
  00009	89 4d fc	 mov	 DWORD PTR _this$[ebp], ecx
  0000c	8b 45 fc	 mov	 eax, DWORD PTR _this$[ebp]
  0000f	8b 4d 08	 mov	 ecx, DWORD PTR _keyval$[ebp]
  00012	89 08		 mov	 DWORD PTR [eax], ecx
  00014	8b 45 fc	 mov	 eax, DWORD PTR _this$[ebp]
  00017	5f		 pop	 edi
  00018	5e		 pop	 esi
  00019	5b		 pop	 ebx
  0001a	8b e5		 mov	 esp, ebp
  0001c	5d		 pop	 ebp
  0001d	c2 04 00	 ret	 4
??0CPair@?$CMap@KKPAVCGamePropertySubItem@NGamePropertyListManager@@AAPAV12@@@IAE@K@Z ENDP ; CMap<unsigned long,unsigned long,NGamePropertyListManager::CGamePropertySubItem *,NGamePropertyListManager::CGamePropertySubItem * &>::CPair::CPair
_TEXT	ENDS
; Function compile flags: /Odtp /ZI
; File c:\program files (x86)\microsoft visual studio\2017\community\vc\tools\msvc\14.16.27023\atlmfc\include\afxtempl.h
;	COMDAT ??$DumpElements@PAVCGamePropertyItem@NGamePropertyListManager@@@@YGXAAVCDumpContext@@PBQAVCGamePropertyItem@NGamePropertyListManager@@H@Z
_TEXT	SEGMENT
tv66 = -72						; size = 4
___afx_condVal$1 = -4					; size = 4
_dc$ = 8						; size = 4
_pElements$ = 12					; size = 4
_nCount$ = 16						; size = 4
??$DumpElements@PAVCGamePropertyItem@NGamePropertyListManager@@@@YGXAAVCDumpContext@@PBQAVCGamePropertyItem@NGamePropertyListManager@@H@Z PROC ; DumpElements<NGamePropertyListManager::CGamePropertyItem *>, COMDAT

; 137  : {

  00000	55		 push	 ebp
  00001	8b ec		 mov	 ebp, esp
  00003	83 ec 48	 sub	 esp, 72			; 00000048H
  00006	53		 push	 ebx
  00007	56		 push	 esi
  00008	57		 push	 edi
$LN4@DumpElemen:

; 138  : 	ENSURE(nCount == 0 || pElements != NULL);

  00009	83 7d 10 00	 cmp	 DWORD PTR _nCount$[ebp], 0
  0000d	74 0f		 je	 SHORT $LN7@DumpElemen
  0000f	83 7d 0c 00	 cmp	 DWORD PTR _pElements$[ebp], 0
  00013	75 09		 jne	 SHORT $LN7@DumpElemen
  00015	c7 45 b8 00 00
	00 00		 mov	 DWORD PTR tv66[ebp], 0
  0001c	eb 07		 jmp	 SHORT $LN8@DumpElemen
$LN7@DumpElemen:
  0001e	c7 45 b8 01 00
	00 00		 mov	 DWORD PTR tv66[ebp], 1
$LN8@DumpElemen:
  00025	8b 45 b8	 mov	 eax, DWORD PTR tv66[ebp]
  00028	89 45 fc	 mov	 DWORD PTR ___afx_condVal$1[ebp], eax
  0002b	83 7d fc 00	 cmp	 DWORD PTR ___afx_condVal$1[ebp], 0
  0002f	75 14		 jne	 SHORT $LN9@DumpElemen
  00031	68 8a 00 00 00	 push	 138			; 0000008aH
  00036	68 00 00 00 00	 push	 OFFSET ??_C@_0HC@HBCNBCLF@c?3?2program?5files?5?$CIx86?$CJ?2microsof@
  0003b	e8 00 00 00 00	 call	 ?AfxAssertFailedLine@@YGHPBDH@Z ; AfxAssertFailedLine
  00040	85 c0		 test	 eax, eax
  00042	74 01		 je	 SHORT $LN9@DumpElemen
  00044	cc		 int	 3
$LN9@DumpElemen:
  00045	83 7d fc 00	 cmp	 DWORD PTR ___afx_condVal$1[ebp], 0
  00049	75 05		 jne	 SHORT $LN2@DumpElemen
  0004b	e8 00 00 00 00	 call	 ?AfxThrowInvalidArgException@@YGXXZ ; AfxThrowInvalidArgException
$LN2@DumpElemen:
  00050	33 c0		 xor	 eax, eax
  00052	75 b5		 jne	 SHORT $LN4@DumpElemen

; 139  : 	ASSERT(nCount == 0 ||

  00054	83 7d 10 00	 cmp	 DWORD PTR _nCount$[ebp], 0
  00058	74 2a		 je	 SHORT $LN6@DumpElemen
  0005a	6a 00		 push	 0
  0005c	8b 45 10	 mov	 eax, DWORD PTR _nCount$[ebp]
  0005f	c1 e0 02	 shl	 eax, 2
  00062	50		 push	 eax
  00063	8b 4d 0c	 mov	 ecx, DWORD PTR _pElements$[ebp]
  00066	51		 push	 ecx
  00067	e8 00 00 00 00	 call	 ?AfxIsValidAddress@@YGHPBXIH@Z ; AfxIsValidAddress
  0006c	85 c0		 test	 eax, eax
  0006e	75 14		 jne	 SHORT $LN6@DumpElemen
  00070	68 8c 00 00 00	 push	 140			; 0000008cH
  00075	68 00 00 00 00	 push	 OFFSET ??_C@_0HC@HBCNBCLF@c?3?2program?5files?5?$CIx86?$CJ?2microsof@
  0007a	e8 00 00 00 00	 call	 ?AfxAssertFailedLine@@YGHPBDH@Z ; AfxAssertFailedLine
  0007f	85 c0		 test	 eax, eax
  00081	74 01		 je	 SHORT $LN6@DumpElemen
  00083	cc		 int	 3
$LN6@DumpElemen:

; 140  : 		AfxIsValidAddress(pElements, (size_t)nCount * sizeof(TYPE), FALSE));
; 141  : 	(dc); // not used
; 142  : 	(pElements);  // not used
; 143  : 	(nCount); // not used
; 144  : 
; 145  : 	// default does nothing
; 146  : }

  00084	5f		 pop	 edi
  00085	5e		 pop	 esi
  00086	5b		 pop	 ebx
  00087	8b e5		 mov	 esp, ebp
  00089	5d		 pop	 ebp
  0008a	c2 0c 00	 ret	 12			; 0000000cH
??$DumpElements@PAVCGamePropertyItem@NGamePropertyListManager@@@@YGXAAVCDumpContext@@PBQAVCGamePropertyItem@NGamePropertyListManager@@H@Z ENDP ; DumpElements<NGamePropertyListManager::CGamePropertyItem *>
_TEXT	ENDS
; Function compile flags: /Odtp /ZI
; File c:\program files (x86)\microsoft visual studio\2017\community\vc\tools\msvc\14.16.27023\atlmfc\include\afxtempl.h
;	COMDAT ??$SerializeElements@PAVCGamePropertyItem@NGamePropertyListManager@@@@YGXAAVCArchive@@PAPAVCGamePropertyItem@NGamePropertyListManager@@H@Z
_TEXT	SEGMENT
tv134 = -96						; size = 4
tv92 = -96						; size = 4
tv66 = -96						; size = 4
_nElementsToRead$1 = -28				; size = 4
_nElementsLeft$2 = -24					; size = 4
_pData$3 = -20						; size = 4
_nElementsToWrite$4 = -16				; size = 4
_nElementsLeft$5 = -12					; size = 4
_pData$6 = -8						; size = 4
___afx_condVal$7 = -4					; size = 4
_ar$ = 8						; size = 4
_pElements$ = 12					; size = 4
_nCount$ = 16						; size = 4
??$SerializeElements@PAVCGamePropertyItem@NGamePropertyListManager@@@@YGXAAVCArchive@@PAPAVCGamePropertyItem@NGamePropertyListManager@@H@Z PROC ; SerializeElements<NGamePropertyListManager::CGamePropertyItem *>, COMDAT

; 67   : {

  00000	55		 push	 ebp
  00001	8b ec		 mov	 ebp, esp
  00003	83 ec 60	 sub	 esp, 96			; 00000060H
  00006	53		 push	 ebx
  00007	56		 push	 esi
  00008	57		 push	 edi
$LN4@SerializeE:

; 68   : 	ENSURE(nCount == 0 || pElements != NULL);

  00009	83 7d 10 00	 cmp	 DWORD PTR _nCount$[ebp], 0
  0000d	74 0f		 je	 SHORT $LN13@SerializeE
  0000f	83 7d 0c 00	 cmp	 DWORD PTR _pElements$[ebp], 0
  00013	75 09		 jne	 SHORT $LN13@SerializeE
  00015	c7 45 a0 00 00
	00 00		 mov	 DWORD PTR tv66[ebp], 0
  0001c	eb 07		 jmp	 SHORT $LN14@SerializeE
$LN13@SerializeE:
  0001e	c7 45 a0 01 00
	00 00		 mov	 DWORD PTR tv66[ebp], 1
$LN14@SerializeE:
  00025	8b 45 a0	 mov	 eax, DWORD PTR tv66[ebp]
  00028	89 45 fc	 mov	 DWORD PTR ___afx_condVal$7[ebp], eax
  0002b	83 7d fc 00	 cmp	 DWORD PTR ___afx_condVal$7[ebp], 0
  0002f	75 11		 jne	 SHORT $LN15@SerializeE
  00031	6a 44		 push	 68			; 00000044H
  00033	68 00 00 00 00	 push	 OFFSET ??_C@_0HC@HBCNBCLF@c?3?2program?5files?5?$CIx86?$CJ?2microsof@
  00038	e8 00 00 00 00	 call	 ?AfxAssertFailedLine@@YGHPBDH@Z ; AfxAssertFailedLine
  0003d	85 c0		 test	 eax, eax
  0003f	74 01		 je	 SHORT $LN15@SerializeE
  00041	cc		 int	 3
$LN15@SerializeE:
  00042	83 7d fc 00	 cmp	 DWORD PTR ___afx_condVal$7[ebp], 0
  00046	75 05		 jne	 SHORT $LN2@SerializeE
  00048	e8 00 00 00 00	 call	 ?AfxThrowInvalidArgException@@YGXXZ ; AfxThrowInvalidArgException
$LN2@SerializeE:
  0004d	33 c0		 xor	 eax, eax
  0004f	75 b8		 jne	 SHORT $LN4@SerializeE

; 69   : 	ASSERT(nCount == 0 ||

  00051	83 7d 10 00	 cmp	 DWORD PTR _nCount$[ebp], 0
  00055	74 27		 je	 SHORT $LN16@SerializeE
  00057	6a 01		 push	 1
  00059	8b 45 10	 mov	 eax, DWORD PTR _nCount$[ebp]
  0005c	c1 e0 02	 shl	 eax, 2
  0005f	50		 push	 eax
  00060	8b 4d 0c	 mov	 ecx, DWORD PTR _pElements$[ebp]
  00063	51		 push	 ecx
  00064	e8 00 00 00 00	 call	 ?AfxIsValidAddress@@YGHPBXIH@Z ; AfxIsValidAddress
  00069	85 c0		 test	 eax, eax
  0006b	75 11		 jne	 SHORT $LN16@SerializeE
  0006d	6a 46		 push	 70			; 00000046H
  0006f	68 00 00 00 00	 push	 OFFSET ??_C@_0HC@HBCNBCLF@c?3?2program?5files?5?$CIx86?$CJ?2microsof@
  00074	e8 00 00 00 00	 call	 ?AfxAssertFailedLine@@YGHPBDH@Z ; AfxAssertFailedLine
  00079	85 c0		 test	 eax, eax
  0007b	74 01		 je	 SHORT $LN16@SerializeE
  0007d	cc		 int	 3
$LN16@SerializeE:

; 70   : 		AfxIsValidAddress(pElements, (size_t)nCount * sizeof(TYPE)));
; 71   : 
; 72   : 	// default is bit-wise read/write
; 73   : 	if (ar.IsStoring())

  0007e	8b 4d 08	 mov	 ecx, DWORD PTR _ar$[ebp]
  00081	e8 00 00 00 00	 call	 ?IsStoring@CArchive@@QBEHXZ ; CArchive::IsStoring
  00086	85 c0		 test	 eax, eax
  00088	74 5c		 je	 SHORT $LN10@SerializeE

; 74   : 	{
; 75   : 		TYPE* pData;
; 76   : 		UINT_PTR nElementsLeft;
; 77   : 
; 78   : 		nElementsLeft = nCount;

  0008a	8b 45 10	 mov	 eax, DWORD PTR _nCount$[ebp]
  0008d	89 45 f4	 mov	 DWORD PTR _nElementsLeft$5[ebp], eax

; 79   : 		pData = pElements;

  00090	8b 45 0c	 mov	 eax, DWORD PTR _pElements$[ebp]
  00093	89 45 f8	 mov	 DWORD PTR _pData$6[ebp], eax
$LN5@SerializeE:

; 80   : 		while( nElementsLeft > 0 )

  00096	83 7d f4 00	 cmp	 DWORD PTR _nElementsLeft$5[ebp], 0
  0009a	76 48		 jbe	 SHORT $LN6@SerializeE

; 81   : 		{
; 82   : 			UINT nElementsToWrite;
; 83   : 
; 84   : 			nElementsToWrite = UINT(__min(nElementsLeft, INT_MAX/sizeof(TYPE)));

  0009c	81 7d f4 ff ff
	ff 1f		 cmp	 DWORD PTR _nElementsLeft$5[ebp], 536870911 ; 1fffffffH
  000a3	73 08		 jae	 SHORT $LN17@SerializeE
  000a5	8b 45 f4	 mov	 eax, DWORD PTR _nElementsLeft$5[ebp]
  000a8	89 45 a0	 mov	 DWORD PTR tv92[ebp], eax
  000ab	eb 07		 jmp	 SHORT $LN18@SerializeE
$LN17@SerializeE:
  000ad	c7 45 a0 ff ff
	ff 1f		 mov	 DWORD PTR tv92[ebp], 536870911 ; 1fffffffH
$LN18@SerializeE:
  000b4	8b 4d a0	 mov	 ecx, DWORD PTR tv92[ebp]
  000b7	89 4d f0	 mov	 DWORD PTR _nElementsToWrite$4[ebp], ecx

; 85   : 			ar.Write(pData, nElementsToWrite*sizeof(TYPE));

  000ba	8b 45 f0	 mov	 eax, DWORD PTR _nElementsToWrite$4[ebp]
  000bd	c1 e0 02	 shl	 eax, 2
  000c0	50		 push	 eax
  000c1	8b 4d f8	 mov	 ecx, DWORD PTR _pData$6[ebp]
  000c4	51		 push	 ecx
  000c5	8b 4d 08	 mov	 ecx, DWORD PTR _ar$[ebp]
  000c8	e8 00 00 00 00	 call	 ?Write@CArchive@@QAEXPBXI@Z ; CArchive::Write

; 86   : 			nElementsLeft -= nElementsToWrite;

  000cd	8b 45 f4	 mov	 eax, DWORD PTR _nElementsLeft$5[ebp]
  000d0	2b 45 f0	 sub	 eax, DWORD PTR _nElementsToWrite$4[ebp]
  000d3	89 45 f4	 mov	 DWORD PTR _nElementsLeft$5[ebp], eax

; 87   : 			pData += nElementsToWrite;

  000d6	8b 45 f0	 mov	 eax, DWORD PTR _nElementsToWrite$4[ebp]
  000d9	8b 4d f8	 mov	 ecx, DWORD PTR _pData$6[ebp]
  000dc	8d 14 81	 lea	 edx, DWORD PTR [ecx+eax*4]
  000df	89 55 f8	 mov	 DWORD PTR _pData$6[ebp], edx

; 88   : 		}

  000e2	eb b2		 jmp	 SHORT $LN5@SerializeE
$LN6@SerializeE:

; 89   : 	}
; 90   : 	else

  000e4	eb 5a		 jmp	 SHORT $LN12@SerializeE
$LN10@SerializeE:

; 91   : 	{
; 92   : 		TYPE* pData;
; 93   : 		UINT_PTR nElementsLeft;
; 94   : 
; 95   : 		nElementsLeft = nCount;

  000e6	8b 45 10	 mov	 eax, DWORD PTR _nCount$[ebp]
  000e9	89 45 e8	 mov	 DWORD PTR _nElementsLeft$2[ebp], eax

; 96   : 		pData = pElements;

  000ec	8b 45 0c	 mov	 eax, DWORD PTR _pElements$[ebp]
  000ef	89 45 ec	 mov	 DWORD PTR _pData$3[ebp], eax
$LN7@SerializeE:

; 97   : 		while( nElementsLeft > 0 )

  000f2	83 7d e8 00	 cmp	 DWORD PTR _nElementsLeft$2[ebp], 0
  000f6	76 48		 jbe	 SHORT $LN12@SerializeE

; 98   : 		{
; 99   : 			UINT nElementsToRead;
; 100  : 
; 101  : 			nElementsToRead = UINT(__min(nElementsLeft, INT_MAX/sizeof(TYPE)));

  000f8	81 7d e8 ff ff
	ff 1f		 cmp	 DWORD PTR _nElementsLeft$2[ebp], 536870911 ; 1fffffffH
  000ff	73 08		 jae	 SHORT $LN19@SerializeE
  00101	8b 45 e8	 mov	 eax, DWORD PTR _nElementsLeft$2[ebp]
  00104	89 45 a0	 mov	 DWORD PTR tv134[ebp], eax
  00107	eb 07		 jmp	 SHORT $LN20@SerializeE
$LN19@SerializeE:
  00109	c7 45 a0 ff ff
	ff 1f		 mov	 DWORD PTR tv134[ebp], 536870911 ; 1fffffffH
$LN20@SerializeE:
  00110	8b 4d a0	 mov	 ecx, DWORD PTR tv134[ebp]
  00113	89 4d e4	 mov	 DWORD PTR _nElementsToRead$1[ebp], ecx

; 102  : 			ar.EnsureRead(pData, nElementsToRead*sizeof(TYPE));

  00116	8b 45 e4	 mov	 eax, DWORD PTR _nElementsToRead$1[ebp]
  00119	c1 e0 02	 shl	 eax, 2
  0011c	50		 push	 eax
  0011d	8b 4d ec	 mov	 ecx, DWORD PTR _pData$3[ebp]
  00120	51		 push	 ecx
  00121	8b 4d 08	 mov	 ecx, DWORD PTR _ar$[ebp]
  00124	e8 00 00 00 00	 call	 ?EnsureRead@CArchive@@QAEXPAXI@Z ; CArchive::EnsureRead

; 103  : 			nElementsLeft -= nElementsToRead;

  00129	8b 45 e8	 mov	 eax, DWORD PTR _nElementsLeft$2[ebp]
  0012c	2b 45 e4	 sub	 eax, DWORD PTR _nElementsToRead$1[ebp]
  0012f	89 45 e8	 mov	 DWORD PTR _nElementsLeft$2[ebp], eax

; 104  : 			pData += nElementsToRead;

  00132	8b 45 e4	 mov	 eax, DWORD PTR _nElementsToRead$1[ebp]
  00135	8b 4d ec	 mov	 ecx, DWORD PTR _pData$3[ebp]
  00138	8d 14 81	 lea	 edx, DWORD PTR [ecx+eax*4]
  0013b	89 55 ec	 mov	 DWORD PTR _pData$3[ebp], edx

; 105  : 		}

  0013e	eb b2		 jmp	 SHORT $LN7@SerializeE
$LN12@SerializeE:

; 106  : 	}
; 107  : }

  00140	5f		 pop	 edi
  00141	5e		 pop	 esi
  00142	5b		 pop	 ebx
  00143	8b e5		 mov	 esp, ebp
  00145	5d		 pop	 ebp
  00146	c2 0c 00	 ret	 12			; 0000000cH
??$SerializeElements@PAVCGamePropertyItem@NGamePropertyListManager@@@@YGXAAVCArchive@@PAPAVCGamePropertyItem@NGamePropertyListManager@@H@Z ENDP ; SerializeElements<NGamePropertyListManager::CGamePropertyItem *>
_TEXT	ENDS
; Function compile flags: /Odtp /ZI
; File c:\program files (x86)\microsoft visual studio\2017\community\vc\tools\msvc\14.16.27023\atlmfc\include\afxtempl.h
;	COMDAT ??0CAssoc@?$CMap@KKPAVCGamePropertyItem@NGamePropertyListManager@@AAPAV12@@@QAE@K@Z
_TEXT	SEGMENT
_this$ = -4						; size = 4
_key$ = 8						; size = 4
??0CAssoc@?$CMap@KKPAVCGamePropertyItem@NGamePropertyListManager@@AAPAV12@@@QAE@K@Z PROC ; CMap<unsigned long,unsigned long,NGamePropertyListManager::CGamePropertyItem *,NGamePropertyListManager::CGamePropertyItem * &>::CAssoc::CAssoc, COMDAT
; _this$ = ecx

; 1267 : 		CAssoc( ARG_KEY key ) : CPair( key ) {}

  00000	55		 push	 ebp
  00001	8b ec		 mov	 ebp, esp
  00003	83 ec 44	 sub	 esp, 68			; 00000044H
  00006	53		 push	 ebx
  00007	56		 push	 esi
  00008	57		 push	 edi
  00009	89 4d fc	 mov	 DWORD PTR _this$[ebp], ecx
  0000c	8b 45 08	 mov	 eax, DWORD PTR _key$[ebp]
  0000f	50		 push	 eax
  00010	8b 4d fc	 mov	 ecx, DWORD PTR _this$[ebp]
  00013	e8 00 00 00 00	 call	 ??0CPair@?$CMap@KKPAVCGamePropertyItem@NGamePropertyListManager@@AAPAV12@@@IAE@K@Z ; CMap<unsigned long,unsigned long,NGamePropertyListManager::CGamePropertyItem *,NGamePropertyListManager::CGamePropertyItem * &>::CPair::CPair
  00018	8b 45 fc	 mov	 eax, DWORD PTR _this$[ebp]
  0001b	5f		 pop	 edi
  0001c	5e		 pop	 esi
  0001d	5b		 pop	 ebx
  0001e	8b e5		 mov	 esp, ebp
  00020	5d		 pop	 ebp
  00021	c2 04 00	 ret	 4
??0CAssoc@?$CMap@KKPAVCGamePropertyItem@NGamePropertyListManager@@AAPAV12@@@QAE@K@Z ENDP ; CMap<unsigned long,unsigned long,NGamePropertyListManager::CGamePropertyItem *,NGamePropertyListManager::CGamePropertyItem * &>::CAssoc::CAssoc
_TEXT	ENDS
; Function compile flags: /Odtp /ZI
; File c:\program files (x86)\microsoft visual studio\2017\community\vc\tools\msvc\14.16.27023\atlmfc\include\afxtempl.h
;	COMDAT ??0CPair@?$CMap@KKPAVCGamePropertyItem@NGamePropertyListManager@@AAPAV12@@@IAE@K@Z
_TEXT	SEGMENT
_this$ = -4						; size = 4
_keyval$ = 8						; size = 4
??0CPair@?$CMap@KKPAVCGamePropertyItem@NGamePropertyListManager@@AAPAV12@@@IAE@K@Z PROC ; CMap<unsigned long,unsigned long,NGamePropertyListManager::CGamePropertyItem *,NGamePropertyListManager::CGamePropertyItem * &>::CPair::CPair, COMDAT
; _this$ = ecx

; 1256 : 		CPair( ARG_KEY keyval ) : key( keyval )	{}

  00000	55		 push	 ebp
  00001	8b ec		 mov	 ebp, esp
  00003	83 ec 44	 sub	 esp, 68			; 00000044H
  00006	53		 push	 ebx
  00007	56		 push	 esi
  00008	57		 push	 edi
  00009	89 4d fc	 mov	 DWORD PTR _this$[ebp], ecx
  0000c	8b 45 fc	 mov	 eax, DWORD PTR _this$[ebp]
  0000f	8b 4d 08	 mov	 ecx, DWORD PTR _keyval$[ebp]
  00012	89 08		 mov	 DWORD PTR [eax], ecx
  00014	8b 45 fc	 mov	 eax, DWORD PTR _this$[ebp]
  00017	5f		 pop	 edi
  00018	5e		 pop	 esi
  00019	5b		 pop	 ebx
  0001a	8b e5		 mov	 esp, ebp
  0001c	5d		 pop	 ebp
  0001d	c2 04 00	 ret	 4
??0CPair@?$CMap@KKPAVCGamePropertyItem@NGamePropertyListManager@@AAPAV12@@@IAE@K@Z ENDP ; CMap<unsigned long,unsigned long,NGamePropertyListManager::CGamePropertyItem *,NGamePropertyListManager::CGamePropertyItem * &>::CPair::CPair
_TEXT	ENDS
; Function compile flags: /Odtp /ZI
; File c:\program files (x86)\microsoft visual studio\2017\community\vc\tools\msvc\14.16.27023\atlmfc\include\afxtempl.h
;	COMDAT ??$DumpElements@PAVCGamePropertyRelatItem@NGamePropertyListManager@@@@YGXAAVCDumpContext@@PBQAVCGamePropertyRelatItem@NGamePropertyListManager@@H@Z
_TEXT	SEGMENT
tv66 = -72						; size = 4
___afx_condVal$1 = -4					; size = 4
_dc$ = 8						; size = 4
_pElements$ = 12					; size = 4
_nCount$ = 16						; size = 4
??$DumpElements@PAVCGamePropertyRelatItem@NGamePropertyListManager@@@@YGXAAVCDumpContext@@PBQAVCGamePropertyRelatItem@NGamePropertyListManager@@H@Z PROC ; DumpElements<NGamePropertyListManager::CGamePropertyRelatItem *>, COMDAT

; 137  : {

  00000	55		 push	 ebp
  00001	8b ec		 mov	 ebp, esp
  00003	83 ec 48	 sub	 esp, 72			; 00000048H
  00006	53		 push	 ebx
  00007	56		 push	 esi
  00008	57		 push	 edi
$LN4@DumpElemen:

; 138  : 	ENSURE(nCount == 0 || pElements != NULL);

  00009	83 7d 10 00	 cmp	 DWORD PTR _nCount$[ebp], 0
  0000d	74 0f		 je	 SHORT $LN7@DumpElemen
  0000f	83 7d 0c 00	 cmp	 DWORD PTR _pElements$[ebp], 0
  00013	75 09		 jne	 SHORT $LN7@DumpElemen
  00015	c7 45 b8 00 00
	00 00		 mov	 DWORD PTR tv66[ebp], 0
  0001c	eb 07		 jmp	 SHORT $LN8@DumpElemen
$LN7@DumpElemen:
  0001e	c7 45 b8 01 00
	00 00		 mov	 DWORD PTR tv66[ebp], 1
$LN8@DumpElemen:
  00025	8b 45 b8	 mov	 eax, DWORD PTR tv66[ebp]
  00028	89 45 fc	 mov	 DWORD PTR ___afx_condVal$1[ebp], eax
  0002b	83 7d fc 00	 cmp	 DWORD PTR ___afx_condVal$1[ebp], 0
  0002f	75 14		 jne	 SHORT $LN9@DumpElemen
  00031	68 8a 00 00 00	 push	 138			; 0000008aH
  00036	68 00 00 00 00	 push	 OFFSET ??_C@_0HC@HBCNBCLF@c?3?2program?5files?5?$CIx86?$CJ?2microsof@
  0003b	e8 00 00 00 00	 call	 ?AfxAssertFailedLine@@YGHPBDH@Z ; AfxAssertFailedLine
  00040	85 c0		 test	 eax, eax
  00042	74 01		 je	 SHORT $LN9@DumpElemen
  00044	cc		 int	 3
$LN9@DumpElemen:
  00045	83 7d fc 00	 cmp	 DWORD PTR ___afx_condVal$1[ebp], 0
  00049	75 05		 jne	 SHORT $LN2@DumpElemen
  0004b	e8 00 00 00 00	 call	 ?AfxThrowInvalidArgException@@YGXXZ ; AfxThrowInvalidArgException
$LN2@DumpElemen:
  00050	33 c0		 xor	 eax, eax
  00052	75 b5		 jne	 SHORT $LN4@DumpElemen

; 139  : 	ASSERT(nCount == 0 ||

  00054	83 7d 10 00	 cmp	 DWORD PTR _nCount$[ebp], 0
  00058	74 2a		 je	 SHORT $LN6@DumpElemen
  0005a	6a 00		 push	 0
  0005c	8b 45 10	 mov	 eax, DWORD PTR _nCount$[ebp]
  0005f	c1 e0 02	 shl	 eax, 2
  00062	50		 push	 eax
  00063	8b 4d 0c	 mov	 ecx, DWORD PTR _pElements$[ebp]
  00066	51		 push	 ecx
  00067	e8 00 00 00 00	 call	 ?AfxIsValidAddress@@YGHPBXIH@Z ; AfxIsValidAddress
  0006c	85 c0		 test	 eax, eax
  0006e	75 14		 jne	 SHORT $LN6@DumpElemen
  00070	68 8c 00 00 00	 push	 140			; 0000008cH
  00075	68 00 00 00 00	 push	 OFFSET ??_C@_0HC@HBCNBCLF@c?3?2program?5files?5?$CIx86?$CJ?2microsof@
  0007a	e8 00 00 00 00	 call	 ?AfxAssertFailedLine@@YGHPBDH@Z ; AfxAssertFailedLine
  0007f	85 c0		 test	 eax, eax
  00081	74 01		 je	 SHORT $LN6@DumpElemen
  00083	cc		 int	 3
$LN6@DumpElemen:

; 140  : 		AfxIsValidAddress(pElements, (size_t)nCount * sizeof(TYPE), FALSE));
; 141  : 	(dc); // not used
; 142  : 	(pElements);  // not used
; 143  : 	(nCount); // not used
; 144  : 
; 145  : 	// default does nothing
; 146  : }

  00084	5f		 pop	 edi
  00085	5e		 pop	 esi
  00086	5b		 pop	 ebx
  00087	8b e5		 mov	 esp, ebp
  00089	5d		 pop	 ebp
  0008a	c2 0c 00	 ret	 12			; 0000000cH
??$DumpElements@PAVCGamePropertyRelatItem@NGamePropertyListManager@@@@YGXAAVCDumpContext@@PBQAVCGamePropertyRelatItem@NGamePropertyListManager@@H@Z ENDP ; DumpElements<NGamePropertyListManager::CGamePropertyRelatItem *>
_TEXT	ENDS
; Function compile flags: /Odtp /ZI
; File c:\program files (x86)\microsoft visual studio\2017\community\vc\tools\msvc\14.16.27023\atlmfc\include\afxtempl.h
;	COMDAT ??$SerializeElements@PAVCGamePropertyRelatItem@NGamePropertyListManager@@@@YGXAAVCArchive@@PAPAVCGamePropertyRelatItem@NGamePropertyListManager@@H@Z
_TEXT	SEGMENT
tv134 = -96						; size = 4
tv92 = -96						; size = 4
tv66 = -96						; size = 4
_nElementsToRead$1 = -28				; size = 4
_nElementsLeft$2 = -24					; size = 4
_pData$3 = -20						; size = 4
_nElementsToWrite$4 = -16				; size = 4
_nElementsLeft$5 = -12					; size = 4
_pData$6 = -8						; size = 4
___afx_condVal$7 = -4					; size = 4
_ar$ = 8						; size = 4
_pElements$ = 12					; size = 4
_nCount$ = 16						; size = 4
??$SerializeElements@PAVCGamePropertyRelatItem@NGamePropertyListManager@@@@YGXAAVCArchive@@PAPAVCGamePropertyRelatItem@NGamePropertyListManager@@H@Z PROC ; SerializeElements<NGamePropertyListManager::CGamePropertyRelatItem *>, COMDAT

; 67   : {

  00000	55		 push	 ebp
  00001	8b ec		 mov	 ebp, esp
  00003	83 ec 60	 sub	 esp, 96			; 00000060H
  00006	53		 push	 ebx
  00007	56		 push	 esi
  00008	57		 push	 edi
$LN4@SerializeE:

; 68   : 	ENSURE(nCount == 0 || pElements != NULL);

  00009	83 7d 10 00	 cmp	 DWORD PTR _nCount$[ebp], 0
  0000d	74 0f		 je	 SHORT $LN13@SerializeE
  0000f	83 7d 0c 00	 cmp	 DWORD PTR _pElements$[ebp], 0
  00013	75 09		 jne	 SHORT $LN13@SerializeE
  00015	c7 45 a0 00 00
	00 00		 mov	 DWORD PTR tv66[ebp], 0
  0001c	eb 07		 jmp	 SHORT $LN14@SerializeE
$LN13@SerializeE:
  0001e	c7 45 a0 01 00
	00 00		 mov	 DWORD PTR tv66[ebp], 1
$LN14@SerializeE:
  00025	8b 45 a0	 mov	 eax, DWORD PTR tv66[ebp]
  00028	89 45 fc	 mov	 DWORD PTR ___afx_condVal$7[ebp], eax
  0002b	83 7d fc 00	 cmp	 DWORD PTR ___afx_condVal$7[ebp], 0
  0002f	75 11		 jne	 SHORT $LN15@SerializeE
  00031	6a 44		 push	 68			; 00000044H
  00033	68 00 00 00 00	 push	 OFFSET ??_C@_0HC@HBCNBCLF@c?3?2program?5files?5?$CIx86?$CJ?2microsof@
  00038	e8 00 00 00 00	 call	 ?AfxAssertFailedLine@@YGHPBDH@Z ; AfxAssertFailedLine
  0003d	85 c0		 test	 eax, eax
  0003f	74 01		 je	 SHORT $LN15@SerializeE
  00041	cc		 int	 3
$LN15@SerializeE:
  00042	83 7d fc 00	 cmp	 DWORD PTR ___afx_condVal$7[ebp], 0
  00046	75 05		 jne	 SHORT $LN2@SerializeE
  00048	e8 00 00 00 00	 call	 ?AfxThrowInvalidArgException@@YGXXZ ; AfxThrowInvalidArgException
$LN2@SerializeE:
  0004d	33 c0		 xor	 eax, eax
  0004f	75 b8		 jne	 SHORT $LN4@SerializeE

; 69   : 	ASSERT(nCount == 0 ||

  00051	83 7d 10 00	 cmp	 DWORD PTR _nCount$[ebp], 0
  00055	74 27		 je	 SHORT $LN16@SerializeE
  00057	6a 01		 push	 1
  00059	8b 45 10	 mov	 eax, DWORD PTR _nCount$[ebp]
  0005c	c1 e0 02	 shl	 eax, 2
  0005f	50		 push	 eax
  00060	8b 4d 0c	 mov	 ecx, DWORD PTR _pElements$[ebp]
  00063	51		 push	 ecx
  00064	e8 00 00 00 00	 call	 ?AfxIsValidAddress@@YGHPBXIH@Z ; AfxIsValidAddress
  00069	85 c0		 test	 eax, eax
  0006b	75 11		 jne	 SHORT $LN16@SerializeE
  0006d	6a 46		 push	 70			; 00000046H
  0006f	68 00 00 00 00	 push	 OFFSET ??_C@_0HC@HBCNBCLF@c?3?2program?5files?5?$CIx86?$CJ?2microsof@
  00074	e8 00 00 00 00	 call	 ?AfxAssertFailedLine@@YGHPBDH@Z ; AfxAssertFailedLine
  00079	85 c0		 test	 eax, eax
  0007b	74 01		 je	 SHORT $LN16@SerializeE
  0007d	cc		 int	 3
$LN16@SerializeE:

; 70   : 		AfxIsValidAddress(pElements, (size_t)nCount * sizeof(TYPE)));
; 71   : 
; 72   : 	// default is bit-wise read/write
; 73   : 	if (ar.IsStoring())

  0007e	8b 4d 08	 mov	 ecx, DWORD PTR _ar$[ebp]
  00081	e8 00 00 00 00	 call	 ?IsStoring@CArchive@@QBEHXZ ; CArchive::IsStoring
  00086	85 c0		 test	 eax, eax
  00088	74 5c		 je	 SHORT $LN10@SerializeE

; 74   : 	{
; 75   : 		TYPE* pData;
; 76   : 		UINT_PTR nElementsLeft;
; 77   : 
; 78   : 		nElementsLeft = nCount;

  0008a	8b 45 10	 mov	 eax, DWORD PTR _nCount$[ebp]
  0008d	89 45 f4	 mov	 DWORD PTR _nElementsLeft$5[ebp], eax

; 79   : 		pData = pElements;

  00090	8b 45 0c	 mov	 eax, DWORD PTR _pElements$[ebp]
  00093	89 45 f8	 mov	 DWORD PTR _pData$6[ebp], eax
$LN5@SerializeE:

; 80   : 		while( nElementsLeft > 0 )

  00096	83 7d f4 00	 cmp	 DWORD PTR _nElementsLeft$5[ebp], 0
  0009a	76 48		 jbe	 SHORT $LN6@SerializeE

; 81   : 		{
; 82   : 			UINT nElementsToWrite;
; 83   : 
; 84   : 			nElementsToWrite = UINT(__min(nElementsLeft, INT_MAX/sizeof(TYPE)));

  0009c	81 7d f4 ff ff
	ff 1f		 cmp	 DWORD PTR _nElementsLeft$5[ebp], 536870911 ; 1fffffffH
  000a3	73 08		 jae	 SHORT $LN17@SerializeE
  000a5	8b 45 f4	 mov	 eax, DWORD PTR _nElementsLeft$5[ebp]
  000a8	89 45 a0	 mov	 DWORD PTR tv92[ebp], eax
  000ab	eb 07		 jmp	 SHORT $LN18@SerializeE
$LN17@SerializeE:
  000ad	c7 45 a0 ff ff
	ff 1f		 mov	 DWORD PTR tv92[ebp], 536870911 ; 1fffffffH
$LN18@SerializeE:
  000b4	8b 4d a0	 mov	 ecx, DWORD PTR tv92[ebp]
  000b7	89 4d f0	 mov	 DWORD PTR _nElementsToWrite$4[ebp], ecx

; 85   : 			ar.Write(pData, nElementsToWrite*sizeof(TYPE));

  000ba	8b 45 f0	 mov	 eax, DWORD PTR _nElementsToWrite$4[ebp]
  000bd	c1 e0 02	 shl	 eax, 2
  000c0	50		 push	 eax
  000c1	8b 4d f8	 mov	 ecx, DWORD PTR _pData$6[ebp]
  000c4	51		 push	 ecx
  000c5	8b 4d 08	 mov	 ecx, DWORD PTR _ar$[ebp]
  000c8	e8 00 00 00 00	 call	 ?Write@CArchive@@QAEXPBXI@Z ; CArchive::Write

; 86   : 			nElementsLeft -= nElementsToWrite;

  000cd	8b 45 f4	 mov	 eax, DWORD PTR _nElementsLeft$5[ebp]
  000d0	2b 45 f0	 sub	 eax, DWORD PTR _nElementsToWrite$4[ebp]
  000d3	89 45 f4	 mov	 DWORD PTR _nElementsLeft$5[ebp], eax

; 87   : 			pData += nElementsToWrite;

  000d6	8b 45 f0	 mov	 eax, DWORD PTR _nElementsToWrite$4[ebp]
  000d9	8b 4d f8	 mov	 ecx, DWORD PTR _pData$6[ebp]
  000dc	8d 14 81	 lea	 edx, DWORD PTR [ecx+eax*4]
  000df	89 55 f8	 mov	 DWORD PTR _pData$6[ebp], edx

; 88   : 		}

  000e2	eb b2		 jmp	 SHORT $LN5@SerializeE
$LN6@SerializeE:

; 89   : 	}
; 90   : 	else

  000e4	eb 5a		 jmp	 SHORT $LN12@SerializeE
$LN10@SerializeE:

; 91   : 	{
; 92   : 		TYPE* pData;
; 93   : 		UINT_PTR nElementsLeft;
; 94   : 
; 95   : 		nElementsLeft = nCount;

  000e6	8b 45 10	 mov	 eax, DWORD PTR _nCount$[ebp]
  000e9	89 45 e8	 mov	 DWORD PTR _nElementsLeft$2[ebp], eax

; 96   : 		pData = pElements;

  000ec	8b 45 0c	 mov	 eax, DWORD PTR _pElements$[ebp]
  000ef	89 45 ec	 mov	 DWORD PTR _pData$3[ebp], eax
$LN7@SerializeE:

; 97   : 		while( nElementsLeft > 0 )

  000f2	83 7d e8 00	 cmp	 DWORD PTR _nElementsLeft$2[ebp], 0
  000f6	76 48		 jbe	 SHORT $LN12@SerializeE

; 98   : 		{
; 99   : 			UINT nElementsToRead;
; 100  : 
; 101  : 			nElementsToRead = UINT(__min(nElementsLeft, INT_MAX/sizeof(TYPE)));

  000f8	81 7d e8 ff ff
	ff 1f		 cmp	 DWORD PTR _nElementsLeft$2[ebp], 536870911 ; 1fffffffH
  000ff	73 08		 jae	 SHORT $LN19@SerializeE
  00101	8b 45 e8	 mov	 eax, DWORD PTR _nElementsLeft$2[ebp]
  00104	89 45 a0	 mov	 DWORD PTR tv134[ebp], eax
  00107	eb 07		 jmp	 SHORT $LN20@SerializeE
$LN19@SerializeE:
  00109	c7 45 a0 ff ff
	ff 1f		 mov	 DWORD PTR tv134[ebp], 536870911 ; 1fffffffH
$LN20@SerializeE:
  00110	8b 4d a0	 mov	 ecx, DWORD PTR tv134[ebp]
  00113	89 4d e4	 mov	 DWORD PTR _nElementsToRead$1[ebp], ecx

; 102  : 			ar.EnsureRead(pData, nElementsToRead*sizeof(TYPE));

  00116	8b 45 e4	 mov	 eax, DWORD PTR _nElementsToRead$1[ebp]
  00119	c1 e0 02	 shl	 eax, 2
  0011c	50		 push	 eax
  0011d	8b 4d ec	 mov	 ecx, DWORD PTR _pData$3[ebp]
  00120	51		 push	 ecx
  00121	8b 4d 08	 mov	 ecx, DWORD PTR _ar$[ebp]
  00124	e8 00 00 00 00	 call	 ?EnsureRead@CArchive@@QAEXPAXI@Z ; CArchive::EnsureRead

; 103  : 			nElementsLeft -= nElementsToRead;

  00129	8b 45 e8	 mov	 eax, DWORD PTR _nElementsLeft$2[ebp]
  0012c	2b 45 e4	 sub	 eax, DWORD PTR _nElementsToRead$1[ebp]
  0012f	89 45 e8	 mov	 DWORD PTR _nElementsLeft$2[ebp], eax

; 104  : 			pData += nElementsToRead;

  00132	8b 45 e4	 mov	 eax, DWORD PTR _nElementsToRead$1[ebp]
  00135	8b 4d ec	 mov	 ecx, DWORD PTR _pData$3[ebp]
  00138	8d 14 81	 lea	 edx, DWORD PTR [ecx+eax*4]
  0013b	89 55 ec	 mov	 DWORD PTR _pData$3[ebp], edx

; 105  : 		}

  0013e	eb b2		 jmp	 SHORT $LN7@SerializeE
$LN12@SerializeE:

; 106  : 	}
; 107  : }

  00140	5f		 pop	 edi
  00141	5e		 pop	 esi
  00142	5b		 pop	 ebx
  00143	8b e5		 mov	 esp, ebp
  00145	5d		 pop	 ebp
  00146	c2 0c 00	 ret	 12			; 0000000cH
??$SerializeElements@PAVCGamePropertyRelatItem@NGamePropertyListManager@@@@YGXAAVCArchive@@PAPAVCGamePropertyRelatItem@NGamePropertyListManager@@H@Z ENDP ; SerializeElements<NGamePropertyListManager::CGamePropertyRelatItem *>
_TEXT	ENDS
; Function compile flags: /Odtp /ZI
; File c:\program files (x86)\microsoft visual studio\2017\community\vc\tools\msvc\14.16.27023\atlmfc\include\afxtempl.h
;	COMDAT ??0CAssoc@?$CMap@KKPAVCGamePropertyRelatItem@NGamePropertyListManager@@AAPAV12@@@QAE@K@Z
_TEXT	SEGMENT
_this$ = -4						; size = 4
_key$ = 8						; size = 4
??0CAssoc@?$CMap@KKPAVCGamePropertyRelatItem@NGamePropertyListManager@@AAPAV12@@@QAE@K@Z PROC ; CMap<unsigned long,unsigned long,NGamePropertyListManager::CGamePropertyRelatItem *,NGamePropertyListManager::CGamePropertyRelatItem * &>::CAssoc::CAssoc, COMDAT
; _this$ = ecx

; 1267 : 		CAssoc( ARG_KEY key ) : CPair( key ) {}

  00000	55		 push	 ebp
  00001	8b ec		 mov	 ebp, esp
  00003	83 ec 44	 sub	 esp, 68			; 00000044H
  00006	53		 push	 ebx
  00007	56		 push	 esi
  00008	57		 push	 edi
  00009	89 4d fc	 mov	 DWORD PTR _this$[ebp], ecx
  0000c	8b 45 08	 mov	 eax, DWORD PTR _key$[ebp]
  0000f	50		 push	 eax
  00010	8b 4d fc	 mov	 ecx, DWORD PTR _this$[ebp]
  00013	e8 00 00 00 00	 call	 ??0CPair@?$CMap@KKPAVCGamePropertyRelatItem@NGamePropertyListManager@@AAPAV12@@@IAE@K@Z ; CMap<unsigned long,unsigned long,NGamePropertyListManager::CGamePropertyRelatItem *,NGamePropertyListManager::CGamePropertyRelatItem * &>::CPair::CPair
  00018	8b 45 fc	 mov	 eax, DWORD PTR _this$[ebp]
  0001b	5f		 pop	 edi
  0001c	5e		 pop	 esi
  0001d	5b		 pop	 ebx
  0001e	8b e5		 mov	 esp, ebp
  00020	5d		 pop	 ebp
  00021	c2 04 00	 ret	 4
??0CAssoc@?$CMap@KKPAVCGamePropertyRelatItem@NGamePropertyListManager@@AAPAV12@@@QAE@K@Z ENDP ; CMap<unsigned long,unsigned long,NGamePropertyListManager::CGamePropertyRelatItem *,NGamePropertyListManager::CGamePropertyRelatItem * &>::CAssoc::CAssoc
_TEXT	ENDS
; Function compile flags: /Odtp /ZI
; File c:\program files (x86)\microsoft visual studio\2017\community\vc\tools\msvc\14.16.27023\atlmfc\include\afxtempl.h
;	COMDAT ??0CPair@?$CMap@KKPAVCGamePropertyRelatItem@NGamePropertyListManager@@AAPAV12@@@IAE@K@Z
_TEXT	SEGMENT
_this$ = -4						; size = 4
_keyval$ = 8						; size = 4
??0CPair@?$CMap@KKPAVCGamePropertyRelatItem@NGamePropertyListManager@@AAPAV12@@@IAE@K@Z PROC ; CMap<unsigned long,unsigned long,NGamePropertyListManager::CGamePropertyRelatItem *,NGamePropertyListManager::CGamePropertyRelatItem * &>::CPair::CPair, COMDAT
; _this$ = ecx

; 1256 : 		CPair( ARG_KEY keyval ) : key( keyval )	{}

  00000	55		 push	 ebp
  00001	8b ec		 mov	 ebp, esp
  00003	83 ec 44	 sub	 esp, 68			; 00000044H
  00006	53		 push	 ebx
  00007	56		 push	 esi
  00008	57		 push	 edi
  00009	89 4d fc	 mov	 DWORD PTR _this$[ebp], ecx
  0000c	8b 45 fc	 mov	 eax, DWORD PTR _this$[ebp]
  0000f	8b 4d 08	 mov	 ecx, DWORD PTR _keyval$[ebp]
  00012	89 08		 mov	 DWORD PTR [eax], ecx
  00014	8b 45 fc	 mov	 eax, DWORD PTR _this$[ebp]
  00017	5f		 pop	 edi
  00018	5e		 pop	 esi
  00019	5b		 pop	 ebx
  0001a	8b e5		 mov	 esp, ebp
  0001c	5d		 pop	 ebp
  0001d	c2 04 00	 ret	 4
??0CPair@?$CMap@KKPAVCGamePropertyRelatItem@NGamePropertyListManager@@AAPAV12@@@IAE@K@Z ENDP ; CMap<unsigned long,unsigned long,NGamePropertyListManager::CGamePropertyRelatItem *,NGamePropertyListManager::CGamePropertyRelatItem * &>::CPair::CPair
_TEXT	ENDS
; Function compile flags: /Odtp /ZI
; File c:\program files (x86)\microsoft visual studio\2017\community\vc\tools\msvc\14.16.27023\atlmfc\include\afxtempl.h
;	COMDAT ??$DumpElements@PAVCGamePropertyTypeItem@NGamePropertyListManager@@@@YGXAAVCDumpContext@@PBQAVCGamePropertyTypeItem@NGamePropertyListManager@@H@Z
_TEXT	SEGMENT
tv66 = -72						; size = 4
___afx_condVal$1 = -4					; size = 4
_dc$ = 8						; size = 4
_pElements$ = 12					; size = 4
_nCount$ = 16						; size = 4
??$DumpElements@PAVCGamePropertyTypeItem@NGamePropertyListManager@@@@YGXAAVCDumpContext@@PBQAVCGamePropertyTypeItem@NGamePropertyListManager@@H@Z PROC ; DumpElements<NGamePropertyListManager::CGamePropertyTypeItem *>, COMDAT

; 137  : {

  00000	55		 push	 ebp
  00001	8b ec		 mov	 ebp, esp
  00003	83 ec 48	 sub	 esp, 72			; 00000048H
  00006	53		 push	 ebx
  00007	56		 push	 esi
  00008	57		 push	 edi
$LN4@DumpElemen:

; 138  : 	ENSURE(nCount == 0 || pElements != NULL);

  00009	83 7d 10 00	 cmp	 DWORD PTR _nCount$[ebp], 0
  0000d	74 0f		 je	 SHORT $LN7@DumpElemen
  0000f	83 7d 0c 00	 cmp	 DWORD PTR _pElements$[ebp], 0
  00013	75 09		 jne	 SHORT $LN7@DumpElemen
  00015	c7 45 b8 00 00
	00 00		 mov	 DWORD PTR tv66[ebp], 0
  0001c	eb 07		 jmp	 SHORT $LN8@DumpElemen
$LN7@DumpElemen:
  0001e	c7 45 b8 01 00
	00 00		 mov	 DWORD PTR tv66[ebp], 1
$LN8@DumpElemen:
  00025	8b 45 b8	 mov	 eax, DWORD PTR tv66[ebp]
  00028	89 45 fc	 mov	 DWORD PTR ___afx_condVal$1[ebp], eax
  0002b	83 7d fc 00	 cmp	 DWORD PTR ___afx_condVal$1[ebp], 0
  0002f	75 14		 jne	 SHORT $LN9@DumpElemen
  00031	68 8a 00 00 00	 push	 138			; 0000008aH
  00036	68 00 00 00 00	 push	 OFFSET ??_C@_0HC@HBCNBCLF@c?3?2program?5files?5?$CIx86?$CJ?2microsof@
  0003b	e8 00 00 00 00	 call	 ?AfxAssertFailedLine@@YGHPBDH@Z ; AfxAssertFailedLine
  00040	85 c0		 test	 eax, eax
  00042	74 01		 je	 SHORT $LN9@DumpElemen
  00044	cc		 int	 3
$LN9@DumpElemen:
  00045	83 7d fc 00	 cmp	 DWORD PTR ___afx_condVal$1[ebp], 0
  00049	75 05		 jne	 SHORT $LN2@DumpElemen
  0004b	e8 00 00 00 00	 call	 ?AfxThrowInvalidArgException@@YGXXZ ; AfxThrowInvalidArgException
$LN2@DumpElemen:
  00050	33 c0		 xor	 eax, eax
  00052	75 b5		 jne	 SHORT $LN4@DumpElemen

; 139  : 	ASSERT(nCount == 0 ||

  00054	83 7d 10 00	 cmp	 DWORD PTR _nCount$[ebp], 0
  00058	74 2a		 je	 SHORT $LN6@DumpElemen
  0005a	6a 00		 push	 0
  0005c	8b 45 10	 mov	 eax, DWORD PTR _nCount$[ebp]
  0005f	c1 e0 02	 shl	 eax, 2
  00062	50		 push	 eax
  00063	8b 4d 0c	 mov	 ecx, DWORD PTR _pElements$[ebp]
  00066	51		 push	 ecx
  00067	e8 00 00 00 00	 call	 ?AfxIsValidAddress@@YGHPBXIH@Z ; AfxIsValidAddress
  0006c	85 c0		 test	 eax, eax
  0006e	75 14		 jne	 SHORT $LN6@DumpElemen
  00070	68 8c 00 00 00	 push	 140			; 0000008cH
  00075	68 00 00 00 00	 push	 OFFSET ??_C@_0HC@HBCNBCLF@c?3?2program?5files?5?$CIx86?$CJ?2microsof@
  0007a	e8 00 00 00 00	 call	 ?AfxAssertFailedLine@@YGHPBDH@Z ; AfxAssertFailedLine
  0007f	85 c0		 test	 eax, eax
  00081	74 01		 je	 SHORT $LN6@DumpElemen
  00083	cc		 int	 3
$LN6@DumpElemen:

; 140  : 		AfxIsValidAddress(pElements, (size_t)nCount * sizeof(TYPE), FALSE));
; 141  : 	(dc); // not used
; 142  : 	(pElements);  // not used
; 143  : 	(nCount); // not used
; 144  : 
; 145  : 	// default does nothing
; 146  : }

  00084	5f		 pop	 edi
  00085	5e		 pop	 esi
  00086	5b		 pop	 ebx
  00087	8b e5		 mov	 esp, ebp
  00089	5d		 pop	 ebp
  0008a	c2 0c 00	 ret	 12			; 0000000cH
??$DumpElements@PAVCGamePropertyTypeItem@NGamePropertyListManager@@@@YGXAAVCDumpContext@@PBQAVCGamePropertyTypeItem@NGamePropertyListManager@@H@Z ENDP ; DumpElements<NGamePropertyListManager::CGamePropertyTypeItem *>
_TEXT	ENDS
; Function compile flags: /Odtp /ZI
; File c:\program files (x86)\microsoft visual studio\2017\community\vc\tools\msvc\14.16.27023\atlmfc\include\afxtempl.h
;	COMDAT ??$DumpElements@K@@YGXAAVCDumpContext@@PBKH@Z
_TEXT	SEGMENT
tv66 = -72						; size = 4
___afx_condVal$1 = -4					; size = 4
_dc$ = 8						; size = 4
_pElements$ = 12					; size = 4
_nCount$ = 16						; size = 4
??$DumpElements@K@@YGXAAVCDumpContext@@PBKH@Z PROC	; DumpElements<unsigned long>, COMDAT

; 137  : {

  00000	55		 push	 ebp
  00001	8b ec		 mov	 ebp, esp
  00003	83 ec 48	 sub	 esp, 72			; 00000048H
  00006	53		 push	 ebx
  00007	56		 push	 esi
  00008	57		 push	 edi
$LN4@DumpElemen:

; 138  : 	ENSURE(nCount == 0 || pElements != NULL);

  00009	83 7d 10 00	 cmp	 DWORD PTR _nCount$[ebp], 0
  0000d	74 0f		 je	 SHORT $LN7@DumpElemen
  0000f	83 7d 0c 00	 cmp	 DWORD PTR _pElements$[ebp], 0
  00013	75 09		 jne	 SHORT $LN7@DumpElemen
  00015	c7 45 b8 00 00
	00 00		 mov	 DWORD PTR tv66[ebp], 0
  0001c	eb 07		 jmp	 SHORT $LN8@DumpElemen
$LN7@DumpElemen:
  0001e	c7 45 b8 01 00
	00 00		 mov	 DWORD PTR tv66[ebp], 1
$LN8@DumpElemen:
  00025	8b 45 b8	 mov	 eax, DWORD PTR tv66[ebp]
  00028	89 45 fc	 mov	 DWORD PTR ___afx_condVal$1[ebp], eax
  0002b	83 7d fc 00	 cmp	 DWORD PTR ___afx_condVal$1[ebp], 0
  0002f	75 14		 jne	 SHORT $LN9@DumpElemen
  00031	68 8a 00 00 00	 push	 138			; 0000008aH
  00036	68 00 00 00 00	 push	 OFFSET ??_C@_0HC@HBCNBCLF@c?3?2program?5files?5?$CIx86?$CJ?2microsof@
  0003b	e8 00 00 00 00	 call	 ?AfxAssertFailedLine@@YGHPBDH@Z ; AfxAssertFailedLine
  00040	85 c0		 test	 eax, eax
  00042	74 01		 je	 SHORT $LN9@DumpElemen
  00044	cc		 int	 3
$LN9@DumpElemen:
  00045	83 7d fc 00	 cmp	 DWORD PTR ___afx_condVal$1[ebp], 0
  00049	75 05		 jne	 SHORT $LN2@DumpElemen
  0004b	e8 00 00 00 00	 call	 ?AfxThrowInvalidArgException@@YGXXZ ; AfxThrowInvalidArgException
$LN2@DumpElemen:
  00050	33 c0		 xor	 eax, eax
  00052	75 b5		 jne	 SHORT $LN4@DumpElemen

; 139  : 	ASSERT(nCount == 0 ||

  00054	83 7d 10 00	 cmp	 DWORD PTR _nCount$[ebp], 0
  00058	74 2a		 je	 SHORT $LN6@DumpElemen
  0005a	6a 00		 push	 0
  0005c	8b 45 10	 mov	 eax, DWORD PTR _nCount$[ebp]
  0005f	c1 e0 02	 shl	 eax, 2
  00062	50		 push	 eax
  00063	8b 4d 0c	 mov	 ecx, DWORD PTR _pElements$[ebp]
  00066	51		 push	 ecx
  00067	e8 00 00 00 00	 call	 ?AfxIsValidAddress@@YGHPBXIH@Z ; AfxIsValidAddress
  0006c	85 c0		 test	 eax, eax
  0006e	75 14		 jne	 SHORT $LN6@DumpElemen
  00070	68 8c 00 00 00	 push	 140			; 0000008cH
  00075	68 00 00 00 00	 push	 OFFSET ??_C@_0HC@HBCNBCLF@c?3?2program?5files?5?$CIx86?$CJ?2microsof@
  0007a	e8 00 00 00 00	 call	 ?AfxAssertFailedLine@@YGHPBDH@Z ; AfxAssertFailedLine
  0007f	85 c0		 test	 eax, eax
  00081	74 01		 je	 SHORT $LN6@DumpElemen
  00083	cc		 int	 3
$LN6@DumpElemen:

; 140  : 		AfxIsValidAddress(pElements, (size_t)nCount * sizeof(TYPE), FALSE));
; 141  : 	(dc); // not used
; 142  : 	(pElements);  // not used
; 143  : 	(nCount); // not used
; 144  : 
; 145  : 	// default does nothing
; 146  : }

  00084	5f		 pop	 edi
  00085	5e		 pop	 esi
  00086	5b		 pop	 ebx
  00087	8b e5		 mov	 esp, ebp
  00089	5d		 pop	 ebp
  0008a	c2 0c 00	 ret	 12			; 0000000cH
??$DumpElements@K@@YGXAAVCDumpContext@@PBKH@Z ENDP	; DumpElements<unsigned long>
_TEXT	ENDS
; Function compile flags: /Odtp /ZI
; File c:\program files (x86)\microsoft visual studio\2017\community\vc\tools\msvc\14.16.27023\atlmfc\include\afxtempl.h
;	COMDAT ??$SerializeElements@PAVCGamePropertyTypeItem@NGamePropertyListManager@@@@YGXAAVCArchive@@PAPAVCGamePropertyTypeItem@NGamePropertyListManager@@H@Z
_TEXT	SEGMENT
tv134 = -96						; size = 4
tv92 = -96						; size = 4
tv66 = -96						; size = 4
_nElementsToRead$1 = -28				; size = 4
_nElementsLeft$2 = -24					; size = 4
_pData$3 = -20						; size = 4
_nElementsToWrite$4 = -16				; size = 4
_nElementsLeft$5 = -12					; size = 4
_pData$6 = -8						; size = 4
___afx_condVal$7 = -4					; size = 4
_ar$ = 8						; size = 4
_pElements$ = 12					; size = 4
_nCount$ = 16						; size = 4
??$SerializeElements@PAVCGamePropertyTypeItem@NGamePropertyListManager@@@@YGXAAVCArchive@@PAPAVCGamePropertyTypeItem@NGamePropertyListManager@@H@Z PROC ; SerializeElements<NGamePropertyListManager::CGamePropertyTypeItem *>, COMDAT

; 67   : {

  00000	55		 push	 ebp
  00001	8b ec		 mov	 ebp, esp
  00003	83 ec 60	 sub	 esp, 96			; 00000060H
  00006	53		 push	 ebx
  00007	56		 push	 esi
  00008	57		 push	 edi
$LN4@SerializeE:

; 68   : 	ENSURE(nCount == 0 || pElements != NULL);

  00009	83 7d 10 00	 cmp	 DWORD PTR _nCount$[ebp], 0
  0000d	74 0f		 je	 SHORT $LN13@SerializeE
  0000f	83 7d 0c 00	 cmp	 DWORD PTR _pElements$[ebp], 0
  00013	75 09		 jne	 SHORT $LN13@SerializeE
  00015	c7 45 a0 00 00
	00 00		 mov	 DWORD PTR tv66[ebp], 0
  0001c	eb 07		 jmp	 SHORT $LN14@SerializeE
$LN13@SerializeE:
  0001e	c7 45 a0 01 00
	00 00		 mov	 DWORD PTR tv66[ebp], 1
$LN14@SerializeE:
  00025	8b 45 a0	 mov	 eax, DWORD PTR tv66[ebp]
  00028	89 45 fc	 mov	 DWORD PTR ___afx_condVal$7[ebp], eax
  0002b	83 7d fc 00	 cmp	 DWORD PTR ___afx_condVal$7[ebp], 0
  0002f	75 11		 jne	 SHORT $LN15@SerializeE
  00031	6a 44		 push	 68			; 00000044H
  00033	68 00 00 00 00	 push	 OFFSET ??_C@_0HC@HBCNBCLF@c?3?2program?5files?5?$CIx86?$CJ?2microsof@
  00038	e8 00 00 00 00	 call	 ?AfxAssertFailedLine@@YGHPBDH@Z ; AfxAssertFailedLine
  0003d	85 c0		 test	 eax, eax
  0003f	74 01		 je	 SHORT $LN15@SerializeE
  00041	cc		 int	 3
$LN15@SerializeE:
  00042	83 7d fc 00	 cmp	 DWORD PTR ___afx_condVal$7[ebp], 0
  00046	75 05		 jne	 SHORT $LN2@SerializeE
  00048	e8 00 00 00 00	 call	 ?AfxThrowInvalidArgException@@YGXXZ ; AfxThrowInvalidArgException
$LN2@SerializeE:
  0004d	33 c0		 xor	 eax, eax
  0004f	75 b8		 jne	 SHORT $LN4@SerializeE

; 69   : 	ASSERT(nCount == 0 ||

  00051	83 7d 10 00	 cmp	 DWORD PTR _nCount$[ebp], 0
  00055	74 27		 je	 SHORT $LN16@SerializeE
  00057	6a 01		 push	 1
  00059	8b 45 10	 mov	 eax, DWORD PTR _nCount$[ebp]
  0005c	c1 e0 02	 shl	 eax, 2
  0005f	50		 push	 eax
  00060	8b 4d 0c	 mov	 ecx, DWORD PTR _pElements$[ebp]
  00063	51		 push	 ecx
  00064	e8 00 00 00 00	 call	 ?AfxIsValidAddress@@YGHPBXIH@Z ; AfxIsValidAddress
  00069	85 c0		 test	 eax, eax
  0006b	75 11		 jne	 SHORT $LN16@SerializeE
  0006d	6a 46		 push	 70			; 00000046H
  0006f	68 00 00 00 00	 push	 OFFSET ??_C@_0HC@HBCNBCLF@c?3?2program?5files?5?$CIx86?$CJ?2microsof@
  00074	e8 00 00 00 00	 call	 ?AfxAssertFailedLine@@YGHPBDH@Z ; AfxAssertFailedLine
  00079	85 c0		 test	 eax, eax
  0007b	74 01		 je	 SHORT $LN16@SerializeE
  0007d	cc		 int	 3
$LN16@SerializeE:

; 70   : 		AfxIsValidAddress(pElements, (size_t)nCount * sizeof(TYPE)));
; 71   : 
; 72   : 	// default is bit-wise read/write
; 73   : 	if (ar.IsStoring())

  0007e	8b 4d 08	 mov	 ecx, DWORD PTR _ar$[ebp]
  00081	e8 00 00 00 00	 call	 ?IsStoring@CArchive@@QBEHXZ ; CArchive::IsStoring
  00086	85 c0		 test	 eax, eax
  00088	74 5c		 je	 SHORT $LN10@SerializeE

; 74   : 	{
; 75   : 		TYPE* pData;
; 76   : 		UINT_PTR nElementsLeft;
; 77   : 
; 78   : 		nElementsLeft = nCount;

  0008a	8b 45 10	 mov	 eax, DWORD PTR _nCount$[ebp]
  0008d	89 45 f4	 mov	 DWORD PTR _nElementsLeft$5[ebp], eax

; 79   : 		pData = pElements;

  00090	8b 45 0c	 mov	 eax, DWORD PTR _pElements$[ebp]
  00093	89 45 f8	 mov	 DWORD PTR _pData$6[ebp], eax
$LN5@SerializeE:

; 80   : 		while( nElementsLeft > 0 )

  00096	83 7d f4 00	 cmp	 DWORD PTR _nElementsLeft$5[ebp], 0
  0009a	76 48		 jbe	 SHORT $LN6@SerializeE

; 81   : 		{
; 82   : 			UINT nElementsToWrite;
; 83   : 
; 84   : 			nElementsToWrite = UINT(__min(nElementsLeft, INT_MAX/sizeof(TYPE)));

  0009c	81 7d f4 ff ff
	ff 1f		 cmp	 DWORD PTR _nElementsLeft$5[ebp], 536870911 ; 1fffffffH
  000a3	73 08		 jae	 SHORT $LN17@SerializeE
  000a5	8b 45 f4	 mov	 eax, DWORD PTR _nElementsLeft$5[ebp]
  000a8	89 45 a0	 mov	 DWORD PTR tv92[ebp], eax
  000ab	eb 07		 jmp	 SHORT $LN18@SerializeE
$LN17@SerializeE:
  000ad	c7 45 a0 ff ff
	ff 1f		 mov	 DWORD PTR tv92[ebp], 536870911 ; 1fffffffH
$LN18@SerializeE:
  000b4	8b 4d a0	 mov	 ecx, DWORD PTR tv92[ebp]
  000b7	89 4d f0	 mov	 DWORD PTR _nElementsToWrite$4[ebp], ecx

; 85   : 			ar.Write(pData, nElementsToWrite*sizeof(TYPE));

  000ba	8b 45 f0	 mov	 eax, DWORD PTR _nElementsToWrite$4[ebp]
  000bd	c1 e0 02	 shl	 eax, 2
  000c0	50		 push	 eax
  000c1	8b 4d f8	 mov	 ecx, DWORD PTR _pData$6[ebp]
  000c4	51		 push	 ecx
  000c5	8b 4d 08	 mov	 ecx, DWORD PTR _ar$[ebp]
  000c8	e8 00 00 00 00	 call	 ?Write@CArchive@@QAEXPBXI@Z ; CArchive::Write

; 86   : 			nElementsLeft -= nElementsToWrite;

  000cd	8b 45 f4	 mov	 eax, DWORD PTR _nElementsLeft$5[ebp]
  000d0	2b 45 f0	 sub	 eax, DWORD PTR _nElementsToWrite$4[ebp]
  000d3	89 45 f4	 mov	 DWORD PTR _nElementsLeft$5[ebp], eax

; 87   : 			pData += nElementsToWrite;

  000d6	8b 45 f0	 mov	 eax, DWORD PTR _nElementsToWrite$4[ebp]
  000d9	8b 4d f8	 mov	 ecx, DWORD PTR _pData$6[ebp]
  000dc	8d 14 81	 lea	 edx, DWORD PTR [ecx+eax*4]
  000df	89 55 f8	 mov	 DWORD PTR _pData$6[ebp], edx

; 88   : 		}

  000e2	eb b2		 jmp	 SHORT $LN5@SerializeE
$LN6@SerializeE:

; 89   : 	}
; 90   : 	else

  000e4	eb 5a		 jmp	 SHORT $LN12@SerializeE
$LN10@SerializeE:

; 91   : 	{
; 92   : 		TYPE* pData;
; 93   : 		UINT_PTR nElementsLeft;
; 94   : 
; 95   : 		nElementsLeft = nCount;

  000e6	8b 45 10	 mov	 eax, DWORD PTR _nCount$[ebp]
  000e9	89 45 e8	 mov	 DWORD PTR _nElementsLeft$2[ebp], eax

; 96   : 		pData = pElements;

  000ec	8b 45 0c	 mov	 eax, DWORD PTR _pElements$[ebp]
  000ef	89 45 ec	 mov	 DWORD PTR _pData$3[ebp], eax
$LN7@SerializeE:

; 97   : 		while( nElementsLeft > 0 )

  000f2	83 7d e8 00	 cmp	 DWORD PTR _nElementsLeft$2[ebp], 0
  000f6	76 48		 jbe	 SHORT $LN12@SerializeE

; 98   : 		{
; 99   : 			UINT nElementsToRead;
; 100  : 
; 101  : 			nElementsToRead = UINT(__min(nElementsLeft, INT_MAX/sizeof(TYPE)));

  000f8	81 7d e8 ff ff
	ff 1f		 cmp	 DWORD PTR _nElementsLeft$2[ebp], 536870911 ; 1fffffffH
  000ff	73 08		 jae	 SHORT $LN19@SerializeE
  00101	8b 45 e8	 mov	 eax, DWORD PTR _nElementsLeft$2[ebp]
  00104	89 45 a0	 mov	 DWORD PTR tv134[ebp], eax
  00107	eb 07		 jmp	 SHORT $LN20@SerializeE
$LN19@SerializeE:
  00109	c7 45 a0 ff ff
	ff 1f		 mov	 DWORD PTR tv134[ebp], 536870911 ; 1fffffffH
$LN20@SerializeE:
  00110	8b 4d a0	 mov	 ecx, DWORD PTR tv134[ebp]
  00113	89 4d e4	 mov	 DWORD PTR _nElementsToRead$1[ebp], ecx

; 102  : 			ar.EnsureRead(pData, nElementsToRead*sizeof(TYPE));

  00116	8b 45 e4	 mov	 eax, DWORD PTR _nElementsToRead$1[ebp]
  00119	c1 e0 02	 shl	 eax, 2
  0011c	50		 push	 eax
  0011d	8b 4d ec	 mov	 ecx, DWORD PTR _pData$3[ebp]
  00120	51		 push	 ecx
  00121	8b 4d 08	 mov	 ecx, DWORD PTR _ar$[ebp]
  00124	e8 00 00 00 00	 call	 ?EnsureRead@CArchive@@QAEXPAXI@Z ; CArchive::EnsureRead

; 103  : 			nElementsLeft -= nElementsToRead;

  00129	8b 45 e8	 mov	 eax, DWORD PTR _nElementsLeft$2[ebp]
  0012c	2b 45 e4	 sub	 eax, DWORD PTR _nElementsToRead$1[ebp]
  0012f	89 45 e8	 mov	 DWORD PTR _nElementsLeft$2[ebp], eax

; 104  : 			pData += nElementsToRead;

  00132	8b 45 e4	 mov	 eax, DWORD PTR _nElementsToRead$1[ebp]
  00135	8b 4d ec	 mov	 ecx, DWORD PTR _pData$3[ebp]
  00138	8d 14 81	 lea	 edx, DWORD PTR [ecx+eax*4]
  0013b	89 55 ec	 mov	 DWORD PTR _pData$3[ebp], edx

; 105  : 		}

  0013e	eb b2		 jmp	 SHORT $LN7@SerializeE
$LN12@SerializeE:

; 106  : 	}
; 107  : }

  00140	5f		 pop	 edi
  00141	5e		 pop	 esi
  00142	5b		 pop	 ebx
  00143	8b e5		 mov	 esp, ebp
  00145	5d		 pop	 ebp
  00146	c2 0c 00	 ret	 12			; 0000000cH
??$SerializeElements@PAVCGamePropertyTypeItem@NGamePropertyListManager@@@@YGXAAVCArchive@@PAPAVCGamePropertyTypeItem@NGamePropertyListManager@@H@Z ENDP ; SerializeElements<NGamePropertyListManager::CGamePropertyTypeItem *>
_TEXT	ENDS
; Function compile flags: /Odtp /ZI
; File c:\program files (x86)\microsoft visual studio\2017\community\vc\tools\msvc\14.16.27023\atlmfc\include\afxtempl.h
;	COMDAT ??$SerializeElements@K@@YGXAAVCArchive@@PAKH@Z
_TEXT	SEGMENT
tv134 = -96						; size = 4
tv92 = -96						; size = 4
tv66 = -96						; size = 4
_nElementsToRead$1 = -28				; size = 4
_nElementsLeft$2 = -24					; size = 4
_pData$3 = -20						; size = 4
_nElementsToWrite$4 = -16				; size = 4
_nElementsLeft$5 = -12					; size = 4
_pData$6 = -8						; size = 4
___afx_condVal$7 = -4					; size = 4
_ar$ = 8						; size = 4
_pElements$ = 12					; size = 4
_nCount$ = 16						; size = 4
??$SerializeElements@K@@YGXAAVCArchive@@PAKH@Z PROC	; SerializeElements<unsigned long>, COMDAT

; 67   : {

  00000	55		 push	 ebp
  00001	8b ec		 mov	 ebp, esp
  00003	83 ec 60	 sub	 esp, 96			; 00000060H
  00006	53		 push	 ebx
  00007	56		 push	 esi
  00008	57		 push	 edi
$LN4@SerializeE:

; 68   : 	ENSURE(nCount == 0 || pElements != NULL);

  00009	83 7d 10 00	 cmp	 DWORD PTR _nCount$[ebp], 0
  0000d	74 0f		 je	 SHORT $LN13@SerializeE
  0000f	83 7d 0c 00	 cmp	 DWORD PTR _pElements$[ebp], 0
  00013	75 09		 jne	 SHORT $LN13@SerializeE
  00015	c7 45 a0 00 00
	00 00		 mov	 DWORD PTR tv66[ebp], 0
  0001c	eb 07		 jmp	 SHORT $LN14@SerializeE
$LN13@SerializeE:
  0001e	c7 45 a0 01 00
	00 00		 mov	 DWORD PTR tv66[ebp], 1
$LN14@SerializeE:
  00025	8b 45 a0	 mov	 eax, DWORD PTR tv66[ebp]
  00028	89 45 fc	 mov	 DWORD PTR ___afx_condVal$7[ebp], eax
  0002b	83 7d fc 00	 cmp	 DWORD PTR ___afx_condVal$7[ebp], 0
  0002f	75 11		 jne	 SHORT $LN15@SerializeE
  00031	6a 44		 push	 68			; 00000044H
  00033	68 00 00 00 00	 push	 OFFSET ??_C@_0HC@HBCNBCLF@c?3?2program?5files?5?$CIx86?$CJ?2microsof@
  00038	e8 00 00 00 00	 call	 ?AfxAssertFailedLine@@YGHPBDH@Z ; AfxAssertFailedLine
  0003d	85 c0		 test	 eax, eax
  0003f	74 01		 je	 SHORT $LN15@SerializeE
  00041	cc		 int	 3
$LN15@SerializeE:
  00042	83 7d fc 00	 cmp	 DWORD PTR ___afx_condVal$7[ebp], 0
  00046	75 05		 jne	 SHORT $LN2@SerializeE
  00048	e8 00 00 00 00	 call	 ?AfxThrowInvalidArgException@@YGXXZ ; AfxThrowInvalidArgException
$LN2@SerializeE:
  0004d	33 c0		 xor	 eax, eax
  0004f	75 b8		 jne	 SHORT $LN4@SerializeE

; 69   : 	ASSERT(nCount == 0 ||

  00051	83 7d 10 00	 cmp	 DWORD PTR _nCount$[ebp], 0
  00055	74 27		 je	 SHORT $LN16@SerializeE
  00057	6a 01		 push	 1
  00059	8b 45 10	 mov	 eax, DWORD PTR _nCount$[ebp]
  0005c	c1 e0 02	 shl	 eax, 2
  0005f	50		 push	 eax
  00060	8b 4d 0c	 mov	 ecx, DWORD PTR _pElements$[ebp]
  00063	51		 push	 ecx
  00064	e8 00 00 00 00	 call	 ?AfxIsValidAddress@@YGHPBXIH@Z ; AfxIsValidAddress
  00069	85 c0		 test	 eax, eax
  0006b	75 11		 jne	 SHORT $LN16@SerializeE
  0006d	6a 46		 push	 70			; 00000046H
  0006f	68 00 00 00 00	 push	 OFFSET ??_C@_0HC@HBCNBCLF@c?3?2program?5files?5?$CIx86?$CJ?2microsof@
  00074	e8 00 00 00 00	 call	 ?AfxAssertFailedLine@@YGHPBDH@Z ; AfxAssertFailedLine
  00079	85 c0		 test	 eax, eax
  0007b	74 01		 je	 SHORT $LN16@SerializeE
  0007d	cc		 int	 3
$LN16@SerializeE:

; 70   : 		AfxIsValidAddress(pElements, (size_t)nCount * sizeof(TYPE)));
; 71   : 
; 72   : 	// default is bit-wise read/write
; 73   : 	if (ar.IsStoring())

  0007e	8b 4d 08	 mov	 ecx, DWORD PTR _ar$[ebp]
  00081	e8 00 00 00 00	 call	 ?IsStoring@CArchive@@QBEHXZ ; CArchive::IsStoring
  00086	85 c0		 test	 eax, eax
  00088	74 5c		 je	 SHORT $LN10@SerializeE

; 74   : 	{
; 75   : 		TYPE* pData;
; 76   : 		UINT_PTR nElementsLeft;
; 77   : 
; 78   : 		nElementsLeft = nCount;

  0008a	8b 45 10	 mov	 eax, DWORD PTR _nCount$[ebp]
  0008d	89 45 f4	 mov	 DWORD PTR _nElementsLeft$5[ebp], eax

; 79   : 		pData = pElements;

  00090	8b 45 0c	 mov	 eax, DWORD PTR _pElements$[ebp]
  00093	89 45 f8	 mov	 DWORD PTR _pData$6[ebp], eax
$LN5@SerializeE:

; 80   : 		while( nElementsLeft > 0 )

  00096	83 7d f4 00	 cmp	 DWORD PTR _nElementsLeft$5[ebp], 0
  0009a	76 48		 jbe	 SHORT $LN6@SerializeE

; 81   : 		{
; 82   : 			UINT nElementsToWrite;
; 83   : 
; 84   : 			nElementsToWrite = UINT(__min(nElementsLeft, INT_MAX/sizeof(TYPE)));

  0009c	81 7d f4 ff ff
	ff 1f		 cmp	 DWORD PTR _nElementsLeft$5[ebp], 536870911 ; 1fffffffH
  000a3	73 08		 jae	 SHORT $LN17@SerializeE
  000a5	8b 45 f4	 mov	 eax, DWORD PTR _nElementsLeft$5[ebp]
  000a8	89 45 a0	 mov	 DWORD PTR tv92[ebp], eax
  000ab	eb 07		 jmp	 SHORT $LN18@SerializeE
$LN17@SerializeE:
  000ad	c7 45 a0 ff ff
	ff 1f		 mov	 DWORD PTR tv92[ebp], 536870911 ; 1fffffffH
$LN18@SerializeE:
  000b4	8b 4d a0	 mov	 ecx, DWORD PTR tv92[ebp]
  000b7	89 4d f0	 mov	 DWORD PTR _nElementsToWrite$4[ebp], ecx

; 85   : 			ar.Write(pData, nElementsToWrite*sizeof(TYPE));

  000ba	8b 45 f0	 mov	 eax, DWORD PTR _nElementsToWrite$4[ebp]
  000bd	c1 e0 02	 shl	 eax, 2
  000c0	50		 push	 eax
  000c1	8b 4d f8	 mov	 ecx, DWORD PTR _pData$6[ebp]
  000c4	51		 push	 ecx
  000c5	8b 4d 08	 mov	 ecx, DWORD PTR _ar$[ebp]
  000c8	e8 00 00 00 00	 call	 ?Write@CArchive@@QAEXPBXI@Z ; CArchive::Write

; 86   : 			nElementsLeft -= nElementsToWrite;

  000cd	8b 45 f4	 mov	 eax, DWORD PTR _nElementsLeft$5[ebp]
  000d0	2b 45 f0	 sub	 eax, DWORD PTR _nElementsToWrite$4[ebp]
  000d3	89 45 f4	 mov	 DWORD PTR _nElementsLeft$5[ebp], eax

; 87   : 			pData += nElementsToWrite;

  000d6	8b 45 f0	 mov	 eax, DWORD PTR _nElementsToWrite$4[ebp]
  000d9	8b 4d f8	 mov	 ecx, DWORD PTR _pData$6[ebp]
  000dc	8d 14 81	 lea	 edx, DWORD PTR [ecx+eax*4]
  000df	89 55 f8	 mov	 DWORD PTR _pData$6[ebp], edx

; 88   : 		}

  000e2	eb b2		 jmp	 SHORT $LN5@SerializeE
$LN6@SerializeE:

; 89   : 	}
; 90   : 	else

  000e4	eb 5a		 jmp	 SHORT $LN12@SerializeE
$LN10@SerializeE:

; 91   : 	{
; 92   : 		TYPE* pData;
; 93   : 		UINT_PTR nElementsLeft;
; 94   : 
; 95   : 		nElementsLeft = nCount;

  000e6	8b 45 10	 mov	 eax, DWORD PTR _nCount$[ebp]
  000e9	89 45 e8	 mov	 DWORD PTR _nElementsLeft$2[ebp], eax

; 96   : 		pData = pElements;

  000ec	8b 45 0c	 mov	 eax, DWORD PTR _pElements$[ebp]
  000ef	89 45 ec	 mov	 DWORD PTR _pData$3[ebp], eax
$LN7@SerializeE:

; 97   : 		while( nElementsLeft > 0 )

  000f2	83 7d e8 00	 cmp	 DWORD PTR _nElementsLeft$2[ebp], 0
  000f6	76 48		 jbe	 SHORT $LN12@SerializeE

; 98   : 		{
; 99   : 			UINT nElementsToRead;
; 100  : 
; 101  : 			nElementsToRead = UINT(__min(nElementsLeft, INT_MAX/sizeof(TYPE)));

  000f8	81 7d e8 ff ff
	ff 1f		 cmp	 DWORD PTR _nElementsLeft$2[ebp], 536870911 ; 1fffffffH
  000ff	73 08		 jae	 SHORT $LN19@SerializeE
  00101	8b 45 e8	 mov	 eax, DWORD PTR _nElementsLeft$2[ebp]
  00104	89 45 a0	 mov	 DWORD PTR tv134[ebp], eax
  00107	eb 07		 jmp	 SHORT $LN20@SerializeE
$LN19@SerializeE:
  00109	c7 45 a0 ff ff
	ff 1f		 mov	 DWORD PTR tv134[ebp], 536870911 ; 1fffffffH
$LN20@SerializeE:
  00110	8b 4d a0	 mov	 ecx, DWORD PTR tv134[ebp]
  00113	89 4d e4	 mov	 DWORD PTR _nElementsToRead$1[ebp], ecx

; 102  : 			ar.EnsureRead(pData, nElementsToRead*sizeof(TYPE));

  00116	8b 45 e4	 mov	 eax, DWORD PTR _nElementsToRead$1[ebp]
  00119	c1 e0 02	 shl	 eax, 2
  0011c	50		 push	 eax
  0011d	8b 4d ec	 mov	 ecx, DWORD PTR _pData$3[ebp]
  00120	51		 push	 ecx
  00121	8b 4d 08	 mov	 ecx, DWORD PTR _ar$[ebp]
  00124	e8 00 00 00 00	 call	 ?EnsureRead@CArchive@@QAEXPAXI@Z ; CArchive::EnsureRead

; 103  : 			nElementsLeft -= nElementsToRead;

  00129	8b 45 e8	 mov	 eax, DWORD PTR _nElementsLeft$2[ebp]
  0012c	2b 45 e4	 sub	 eax, DWORD PTR _nElementsToRead$1[ebp]
  0012f	89 45 e8	 mov	 DWORD PTR _nElementsLeft$2[ebp], eax

; 104  : 			pData += nElementsToRead;

  00132	8b 45 e4	 mov	 eax, DWORD PTR _nElementsToRead$1[ebp]
  00135	8b 4d ec	 mov	 ecx, DWORD PTR _pData$3[ebp]
  00138	8d 14 81	 lea	 edx, DWORD PTR [ecx+eax*4]
  0013b	89 55 ec	 mov	 DWORD PTR _pData$3[ebp], edx

; 105  : 		}

  0013e	eb b2		 jmp	 SHORT $LN7@SerializeE
$LN12@SerializeE:

; 106  : 	}
; 107  : }

  00140	5f		 pop	 edi
  00141	5e		 pop	 esi
  00142	5b		 pop	 ebx
  00143	8b e5		 mov	 esp, ebp
  00145	5d		 pop	 ebp
  00146	c2 0c 00	 ret	 12			; 0000000cH
??$SerializeElements@K@@YGXAAVCArchive@@PAKH@Z ENDP	; SerializeElements<unsigned long>
_TEXT	ENDS
; Function compile flags: /Odtp /ZI
; File c:\program files (x86)\microsoft visual studio\2017\community\vc\tools\msvc\14.16.27023\atlmfc\include\afxtempl.h
;	COMDAT ??$CompareElements@KK@@YGHPBK0@Z
_TEXT	SEGMENT
tv128 = -72						; size = 4
tv66 = -72						; size = 4
___afx_condVal$1 = -4					; size = 4
_pElement1$ = 8						; size = 4
_pElement2$ = 12					; size = 4
??$CompareElements@KK@@YGHPBK0@Z PROC			; CompareElements<unsigned long,unsigned long>, COMDAT

; 151  : {

  00000	55		 push	 ebp
  00001	8b ec		 mov	 ebp, esp
  00003	83 ec 48	 sub	 esp, 72			; 00000048H
  00006	53		 push	 ebx
  00007	56		 push	 esi
  00008	57		 push	 edi
$LN4@CompareEle:

; 152  : 	ENSURE(pElement1 != NULL && pElement2 != NULL);

  00009	83 7d 08 00	 cmp	 DWORD PTR _pElement1$[ebp], 0
  0000d	74 0f		 je	 SHORT $LN7@CompareEle
  0000f	83 7d 0c 00	 cmp	 DWORD PTR _pElement2$[ebp], 0
  00013	74 09		 je	 SHORT $LN7@CompareEle
  00015	c7 45 b8 01 00
	00 00		 mov	 DWORD PTR tv66[ebp], 1
  0001c	eb 07		 jmp	 SHORT $LN8@CompareEle
$LN7@CompareEle:
  0001e	c7 45 b8 00 00
	00 00		 mov	 DWORD PTR tv66[ebp], 0
$LN8@CompareEle:
  00025	8b 45 b8	 mov	 eax, DWORD PTR tv66[ebp]
  00028	89 45 fc	 mov	 DWORD PTR ___afx_condVal$1[ebp], eax
  0002b	83 7d fc 00	 cmp	 DWORD PTR ___afx_condVal$1[ebp], 0
  0002f	75 14		 jne	 SHORT $LN9@CompareEle
  00031	68 98 00 00 00	 push	 152			; 00000098H
  00036	68 00 00 00 00	 push	 OFFSET ??_C@_0HC@HBCNBCLF@c?3?2program?5files?5?$CIx86?$CJ?2microsof@
  0003b	e8 00 00 00 00	 call	 ?AfxAssertFailedLine@@YGHPBDH@Z ; AfxAssertFailedLine
  00040	85 c0		 test	 eax, eax
  00042	74 01		 je	 SHORT $LN9@CompareEle
  00044	cc		 int	 3
$LN9@CompareEle:
  00045	83 7d fc 00	 cmp	 DWORD PTR ___afx_condVal$1[ebp], 0
  00049	75 05		 jne	 SHORT $LN2@CompareEle
  0004b	e8 00 00 00 00	 call	 ?AfxThrowInvalidArgException@@YGXXZ ; AfxThrowInvalidArgException
$LN2@CompareEle:
  00050	33 c0		 xor	 eax, eax
  00052	75 b5		 jne	 SHORT $LN4@CompareEle

; 153  : 	ASSERT(AfxIsValidAddress(pElement1, sizeof(TYPE), FALSE));

  00054	6a 00		 push	 0
  00056	6a 04		 push	 4
  00058	8b 45 08	 mov	 eax, DWORD PTR _pElement1$[ebp]
  0005b	50		 push	 eax
  0005c	e8 00 00 00 00	 call	 ?AfxIsValidAddress@@YGHPBXIH@Z ; AfxIsValidAddress
  00061	85 c0		 test	 eax, eax
  00063	75 14		 jne	 SHORT $LN10@CompareEle
  00065	68 99 00 00 00	 push	 153			; 00000099H
  0006a	68 00 00 00 00	 push	 OFFSET ??_C@_0HC@HBCNBCLF@c?3?2program?5files?5?$CIx86?$CJ?2microsof@
  0006f	e8 00 00 00 00	 call	 ?AfxAssertFailedLine@@YGHPBDH@Z ; AfxAssertFailedLine
  00074	85 c0		 test	 eax, eax
  00076	74 01		 je	 SHORT $LN10@CompareEle
  00078	cc		 int	 3
$LN10@CompareEle:

; 154  : 	ASSERT(AfxIsValidAddress(pElement2, sizeof(ARG_TYPE), FALSE));

  00079	6a 00		 push	 0
  0007b	6a 04		 push	 4
  0007d	8b 45 0c	 mov	 eax, DWORD PTR _pElement2$[ebp]
  00080	50		 push	 eax
  00081	e8 00 00 00 00	 call	 ?AfxIsValidAddress@@YGHPBXIH@Z ; AfxIsValidAddress
  00086	85 c0		 test	 eax, eax
  00088	75 14		 jne	 SHORT $LN11@CompareEle
  0008a	68 9a 00 00 00	 push	 154			; 0000009aH
  0008f	68 00 00 00 00	 push	 OFFSET ??_C@_0HC@HBCNBCLF@c?3?2program?5files?5?$CIx86?$CJ?2microsof@
  00094	e8 00 00 00 00	 call	 ?AfxAssertFailedLine@@YGHPBDH@Z ; AfxAssertFailedLine
  00099	85 c0		 test	 eax, eax
  0009b	74 01		 je	 SHORT $LN11@CompareEle
  0009d	cc		 int	 3
$LN11@CompareEle:

; 155  : 
; 156  : 	return *pElement1 == *pElement2;

  0009e	8b 45 08	 mov	 eax, DWORD PTR _pElement1$[ebp]
  000a1	8b 4d 0c	 mov	 ecx, DWORD PTR _pElement2$[ebp]
  000a4	8b 10		 mov	 edx, DWORD PTR [eax]
  000a6	3b 11		 cmp	 edx, DWORD PTR [ecx]
  000a8	75 09		 jne	 SHORT $LN12@CompareEle
  000aa	c7 45 b8 01 00
	00 00		 mov	 DWORD PTR tv128[ebp], 1
  000b1	eb 07		 jmp	 SHORT $LN13@CompareEle
$LN12@CompareEle:
  000b3	c7 45 b8 00 00
	00 00		 mov	 DWORD PTR tv128[ebp], 0
$LN13@CompareEle:
  000ba	8b 45 b8	 mov	 eax, DWORD PTR tv128[ebp]
$LN6@CompareEle:

; 157  : }

  000bd	5f		 pop	 edi
  000be	5e		 pop	 esi
  000bf	5b		 pop	 ebx
  000c0	8b e5		 mov	 esp, ebp
  000c2	5d		 pop	 ebp
  000c3	c2 08 00	 ret	 8
??$CompareElements@KK@@YGHPBK0@Z ENDP			; CompareElements<unsigned long,unsigned long>
_TEXT	ENDS
; Function compile flags: /Odtp /ZI
; File c:\program files (x86)\microsoft visual studio\2017\community\vc\tools\msvc\14.16.27023\atlmfc\include\afxtempl.h
;	COMDAT ??0CAssoc@?$CMap@KKPAVCGamePropertyTypeItem@NGamePropertyListManager@@AAPAV12@@@QAE@K@Z
_TEXT	SEGMENT
_this$ = -4						; size = 4
_key$ = 8						; size = 4
??0CAssoc@?$CMap@KKPAVCGamePropertyTypeItem@NGamePropertyListManager@@AAPAV12@@@QAE@K@Z PROC ; CMap<unsigned long,unsigned long,NGamePropertyListManager::CGamePropertyTypeItem *,NGamePropertyListManager::CGamePropertyTypeItem * &>::CAssoc::CAssoc, COMDAT
; _this$ = ecx

; 1267 : 		CAssoc( ARG_KEY key ) : CPair( key ) {}

  00000	55		 push	 ebp
  00001	8b ec		 mov	 ebp, esp
  00003	83 ec 44	 sub	 esp, 68			; 00000044H
  00006	53		 push	 ebx
  00007	56		 push	 esi
  00008	57		 push	 edi
  00009	89 4d fc	 mov	 DWORD PTR _this$[ebp], ecx
  0000c	8b 45 08	 mov	 eax, DWORD PTR _key$[ebp]
  0000f	50		 push	 eax
  00010	8b 4d fc	 mov	 ecx, DWORD PTR _this$[ebp]
  00013	e8 00 00 00 00	 call	 ??0CPair@?$CMap@KKPAVCGamePropertyTypeItem@NGamePropertyListManager@@AAPAV12@@@IAE@K@Z ; CMap<unsigned long,unsigned long,NGamePropertyListManager::CGamePropertyTypeItem *,NGamePropertyListManager::CGamePropertyTypeItem * &>::CPair::CPair
  00018	8b 45 fc	 mov	 eax, DWORD PTR _this$[ebp]
  0001b	5f		 pop	 edi
  0001c	5e		 pop	 esi
  0001d	5b		 pop	 ebx
  0001e	8b e5		 mov	 esp, ebp
  00020	5d		 pop	 ebp
  00021	c2 04 00	 ret	 4
??0CAssoc@?$CMap@KKPAVCGamePropertyTypeItem@NGamePropertyListManager@@AAPAV12@@@QAE@K@Z ENDP ; CMap<unsigned long,unsigned long,NGamePropertyListManager::CGamePropertyTypeItem *,NGamePropertyListManager::CGamePropertyTypeItem * &>::CAssoc::CAssoc
_TEXT	ENDS
; Function compile flags: /Odtp /ZI
; File c:\program files (x86)\microsoft visual studio\2017\community\vc\tools\msvc\14.16.27023\atlmfc\include\afxtempl.h
;	COMDAT ??0CPair@?$CMap@KKPAVCGamePropertyTypeItem@NGamePropertyListManager@@AAPAV12@@@IAE@K@Z
_TEXT	SEGMENT
_this$ = -4						; size = 4
_keyval$ = 8						; size = 4
??0CPair@?$CMap@KKPAVCGamePropertyTypeItem@NGamePropertyListManager@@AAPAV12@@@IAE@K@Z PROC ; CMap<unsigned long,unsigned long,NGamePropertyListManager::CGamePropertyTypeItem *,NGamePropertyListManager::CGamePropertyTypeItem * &>::CPair::CPair, COMDAT
; _this$ = ecx

; 1256 : 		CPair( ARG_KEY keyval ) : key( keyval )	{}

  00000	55		 push	 ebp
  00001	8b ec		 mov	 ebp, esp
  00003	83 ec 44	 sub	 esp, 68			; 00000044H
  00006	53		 push	 ebx
  00007	56		 push	 esi
  00008	57		 push	 edi
  00009	89 4d fc	 mov	 DWORD PTR _this$[ebp], ecx
  0000c	8b 45 fc	 mov	 eax, DWORD PTR _this$[ebp]
  0000f	8b 4d 08	 mov	 ecx, DWORD PTR _keyval$[ebp]
  00012	89 08		 mov	 DWORD PTR [eax], ecx
  00014	8b 45 fc	 mov	 eax, DWORD PTR _this$[ebp]
  00017	5f		 pop	 edi
  00018	5e		 pop	 esi
  00019	5b		 pop	 ebx
  0001a	8b e5		 mov	 esp, ebp
  0001c	5d		 pop	 ebp
  0001d	c2 04 00	 ret	 4
??0CPair@?$CMap@KKPAVCGamePropertyTypeItem@NGamePropertyListManager@@AAPAV12@@@IAE@K@Z ENDP ; CMap<unsigned long,unsigned long,NGamePropertyListManager::CGamePropertyTypeItem *,NGamePropertyListManager::CGamePropertyTypeItem * &>::CPair::CPair
_TEXT	ENDS
; Function compile flags: /Odtp /ZI
;	COMDAT ??_GCGamePropertyListManager@NGamePropertyListManager@@UAEPAXI@Z
_TEXT	SEGMENT
_this$ = -4						; size = 4
___flags$ = 8						; size = 4
??_GCGamePropertyListManager@NGamePropertyListManager@@UAEPAXI@Z PROC ; NGamePropertyListManager::CGamePropertyListManager::`scalar deleting destructor', COMDAT
; _this$ = ecx
  00000	55		 push	 ebp
  00001	8b ec		 mov	 ebp, esp
  00003	83 ec 44	 sub	 esp, 68			; 00000044H
  00006	53		 push	 ebx
  00007	56		 push	 esi
  00008	57		 push	 edi
  00009	89 4d fc	 mov	 DWORD PTR _this$[ebp], ecx
  0000c	8b 4d fc	 mov	 ecx, DWORD PTR _this$[ebp]
  0000f	e8 00 00 00 00	 call	 ??1CGamePropertyListManager@NGamePropertyListManager@@UAE@XZ ; NGamePropertyListManager::CGamePropertyListManager::~CGamePropertyListManager
  00014	8b 45 08	 mov	 eax, DWORD PTR ___flags$[ebp]
  00017	83 e0 01	 and	 eax, 1
  0001a	74 11		 je	 SHORT $LN2@scalar
  0001c	68 c4 00 00 00	 push	 196			; 000000c4H
  00021	8b 45 fc	 mov	 eax, DWORD PTR _this$[ebp]
  00024	50		 push	 eax
  00025	e8 00 00 00 00	 call	 ??3@YAXPAXI@Z		; operator delete
  0002a	83 c4 08	 add	 esp, 8
$LN2@scalar:
  0002d	8b 45 fc	 mov	 eax, DWORD PTR _this$[ebp]
  00030	5f		 pop	 edi
  00031	5e		 pop	 esi
  00032	5b		 pop	 ebx
  00033	8b e5		 mov	 esp, ebp
  00035	5d		 pop	 ebp
  00036	c2 04 00	 ret	 4
??_GCGamePropertyListManager@NGamePropertyListManager@@UAEPAXI@Z ENDP ; NGamePropertyListManager::CGamePropertyListManager::`scalar deleting destructor'
_TEXT	ENDS
; Function compile flags: /Odtp /ZI
; File g:\网狐\happygamewh\服务端\系统模块\服务器组件\登录服务器\gamepropertylistmanager.cpp
;	COMDAT ?SearchGamePropertyItem@CGamePropertyListManager@NGamePropertyListManager@@QAEPAVCGamePropertyItem@2@K@Z
_TEXT	SEGMENT
_pGamePropertyItem$ = -8				; size = 4
_this$ = -4						; size = 4
_dwPropertyID$ = 8					; size = 4
?SearchGamePropertyItem@CGamePropertyListManager@NGamePropertyListManager@@QAEPAVCGamePropertyItem@2@K@Z PROC ; NGamePropertyListManager::CGamePropertyListManager::SearchGamePropertyItem, COMDAT
; _this$ = ecx

; 602  : {

  00000	55		 push	 ebp
  00001	8b ec		 mov	 ebp, esp
  00003	83 ec 48	 sub	 esp, 72			; 00000048H
  00006	53		 push	 ebx
  00007	56		 push	 esi
  00008	57		 push	 edi
  00009	89 4d fc	 mov	 DWORD PTR _this$[ebp], ecx

; 603  : 	CGamePropertyItem * pGamePropertyItem=NULL;

  0000c	c7 45 f8 00 00
	00 00		 mov	 DWORD PTR _pGamePropertyItem$[ebp], 0

; 604  : 	m_GamePropertyItemMap.Lookup(dwPropertyID,pGamePropertyItem);

  00013	8d 45 f8	 lea	 eax, DWORD PTR _pGamePropertyItem$[ebp]
  00016	50		 push	 eax
  00017	8b 4d 08	 mov	 ecx, DWORD PTR _dwPropertyID$[ebp]
  0001a	51		 push	 ecx
  0001b	8b 4d fc	 mov	 ecx, DWORD PTR _this$[ebp]
  0001e	83 c1 3c	 add	 ecx, 60			; 0000003cH
  00021	e8 00 00 00 00	 call	 ?Lookup@?$CMap@KKPAVCGamePropertyItem@NGamePropertyListManager@@AAPAV12@@@QBEHKAAPAVCGamePropertyItem@NGamePropertyListManager@@@Z ; CMap<unsigned long,unsigned long,NGamePropertyListManager::CGamePropertyItem *,NGamePropertyListManager::CGamePropertyItem * &>::Lookup

; 605  : 	return pGamePropertyItem;

  00026	8b 45 f8	 mov	 eax, DWORD PTR _pGamePropertyItem$[ebp]

; 606  : }

  00029	5f		 pop	 edi
  0002a	5e		 pop	 esi
  0002b	5b		 pop	 ebx
  0002c	8b e5		 mov	 esp, ebp
  0002e	5d		 pop	 ebp
  0002f	c2 04 00	 ret	 4
?SearchGamePropertyItem@CGamePropertyListManager@NGamePropertyListManager@@QAEPAVCGamePropertyItem@2@K@Z ENDP ; NGamePropertyListManager::CGamePropertyListManager::SearchGamePropertyItem
_TEXT	ENDS
; Function compile flags: /Odtp /ZI
; File g:\网狐\happygamewh\服务端\系统模块\服务器组件\登录服务器\gamepropertylistmanager.cpp
;	COMDAT ?EmunGamePropertySubItem@CGamePropertyListManager@NGamePropertyListManager@@QAEPAVCGamePropertySubItem@2@AAPAU__POSITION@@@Z
_TEXT	SEGMENT
_pGamePropertySubItem$ = -12				; size = 4
_wKey$ = -8						; size = 4
_this$ = -4						; size = 4
_Position$ = 8						; size = 4
?EmunGamePropertySubItem@CGamePropertyListManager@NGamePropertyListManager@@QAEPAVCGamePropertySubItem@2@AAPAU__POSITION@@@Z PROC ; NGamePropertyListManager::CGamePropertyListManager::EmunGamePropertySubItem, COMDAT
; _this$ = ecx

; 588  : {

  00000	55		 push	 ebp
  00001	8b ec		 mov	 ebp, esp
  00003	83 ec 4c	 sub	 esp, 76			; 0000004cH
  00006	53		 push	 ebx
  00007	56		 push	 esi
  00008	57		 push	 edi
  00009	89 4d fc	 mov	 DWORD PTR _this$[ebp], ecx

; 589  : 	//变量定义
; 590  : 	DWORD wKey=0;

  0000c	c7 45 f8 00 00
	00 00		 mov	 DWORD PTR _wKey$[ebp], 0

; 591  : 	CGamePropertySubItem * pGamePropertySubItem=NULL;

  00013	c7 45 f4 00 00
	00 00		 mov	 DWORD PTR _pGamePropertySubItem$[ebp], 0

; 592  : 
; 593  : 	//获取对象
; 594  : 	if (Position==NULL) Position=m_GamePropertySubItemMap.GetStartPosition();

  0001a	8b 45 08	 mov	 eax, DWORD PTR _Position$[ebp]
  0001d	83 38 00	 cmp	 DWORD PTR [eax], 0
  00020	75 10		 jne	 SHORT $LN2@EmunGamePr
  00022	8b 4d fc	 mov	 ecx, DWORD PTR _this$[ebp]
  00025	83 c1 58	 add	 ecx, 88			; 00000058H
  00028	e8 00 00 00 00	 call	 ?GetStartPosition@?$CMap@KKPAVCGamePropertySubItem@NGamePropertyListManager@@AAPAV12@@@QBEPAU__POSITION@@XZ ; CMap<unsigned long,unsigned long,NGamePropertyListManager::CGamePropertySubItem *,NGamePropertyListManager::CGamePropertySubItem * &>::GetStartPosition
  0002d	8b 4d 08	 mov	 ecx, DWORD PTR _Position$[ebp]
  00030	89 01		 mov	 DWORD PTR [ecx], eax
$LN2@EmunGamePr:

; 595  : 	if (Position!=NULL) m_GamePropertySubItemMap.GetNextAssoc(Position,wKey,pGamePropertySubItem);

  00032	8b 45 08	 mov	 eax, DWORD PTR _Position$[ebp]
  00035	83 38 00	 cmp	 DWORD PTR [eax], 0
  00038	74 17		 je	 SHORT $LN3@EmunGamePr
  0003a	8d 45 f4	 lea	 eax, DWORD PTR _pGamePropertySubItem$[ebp]
  0003d	50		 push	 eax
  0003e	8d 4d f8	 lea	 ecx, DWORD PTR _wKey$[ebp]
  00041	51		 push	 ecx
  00042	8b 55 08	 mov	 edx, DWORD PTR _Position$[ebp]
  00045	52		 push	 edx
  00046	8b 4d fc	 mov	 ecx, DWORD PTR _this$[ebp]
  00049	83 c1 58	 add	 ecx, 88			; 00000058H
  0004c	e8 00 00 00 00	 call	 ?GetNextAssoc@?$CMap@KKPAVCGamePropertySubItem@NGamePropertyListManager@@AAPAV12@@@QBEXAAPAU__POSITION@@AAKAAPAVCGamePropertySubItem@NGamePropertyListManager@@@Z ; CMap<unsigned long,unsigned long,NGamePropertyListManager::CGamePropertySubItem *,NGamePropertyListManager::CGamePropertySubItem * &>::GetNextAssoc
$LN3@EmunGamePr:

; 596  : 
; 597  : 	return pGamePropertySubItem;

  00051	8b 45 f4	 mov	 eax, DWORD PTR _pGamePropertySubItem$[ebp]

; 598  : }

  00054	5f		 pop	 edi
  00055	5e		 pop	 esi
  00056	5b		 pop	 ebx
  00057	8b e5		 mov	 esp, ebp
  00059	5d		 pop	 ebp
  0005a	c2 04 00	 ret	 4
?EmunGamePropertySubItem@CGamePropertyListManager@NGamePropertyListManager@@QAEPAVCGamePropertySubItem@2@AAPAU__POSITION@@@Z ENDP ; NGamePropertyListManager::CGamePropertyListManager::EmunGamePropertySubItem
_TEXT	ENDS
; Function compile flags: /Odtp /ZI
; File g:\网狐\happygamewh\服务端\系统模块\服务器组件\登录服务器\gamepropertylistmanager.cpp
;	COMDAT ?EmunGamePropertyItem@CGamePropertyListManager@NGamePropertyListManager@@QAEPAVCGamePropertyItem@2@AAPAU__POSITION@@@Z
_TEXT	SEGMENT
_pGamePropertyItem$ = -12				; size = 4
_wKey$ = -8						; size = 4
_this$ = -4						; size = 4
_Position$ = 8						; size = 4
?EmunGamePropertyItem@CGamePropertyListManager@NGamePropertyListManager@@QAEPAVCGamePropertyItem@2@AAPAU__POSITION@@@Z PROC ; NGamePropertyListManager::CGamePropertyListManager::EmunGamePropertyItem, COMDAT
; _this$ = ecx

; 574  : {

  00000	55		 push	 ebp
  00001	8b ec		 mov	 ebp, esp
  00003	83 ec 4c	 sub	 esp, 76			; 0000004cH
  00006	53		 push	 ebx
  00007	56		 push	 esi
  00008	57		 push	 edi
  00009	89 4d fc	 mov	 DWORD PTR _this$[ebp], ecx

; 575  : 	//变量定义
; 576  : 	DWORD wKey=0;

  0000c	c7 45 f8 00 00
	00 00		 mov	 DWORD PTR _wKey$[ebp], 0

; 577  : 	CGamePropertyItem * pGamePropertyItem=NULL;

  00013	c7 45 f4 00 00
	00 00		 mov	 DWORD PTR _pGamePropertyItem$[ebp], 0

; 578  : 
; 579  : 	//获取对象
; 580  : 	if (Position==NULL) Position=m_GamePropertyItemMap.GetStartPosition();

  0001a	8b 45 08	 mov	 eax, DWORD PTR _Position$[ebp]
  0001d	83 38 00	 cmp	 DWORD PTR [eax], 0
  00020	75 10		 jne	 SHORT $LN2@EmunGamePr
  00022	8b 4d fc	 mov	 ecx, DWORD PTR _this$[ebp]
  00025	83 c1 3c	 add	 ecx, 60			; 0000003cH
  00028	e8 00 00 00 00	 call	 ?GetStartPosition@?$CMap@KKPAVCGamePropertyItem@NGamePropertyListManager@@AAPAV12@@@QBEPAU__POSITION@@XZ ; CMap<unsigned long,unsigned long,NGamePropertyListManager::CGamePropertyItem *,NGamePropertyListManager::CGamePropertyItem * &>::GetStartPosition
  0002d	8b 4d 08	 mov	 ecx, DWORD PTR _Position$[ebp]
  00030	89 01		 mov	 DWORD PTR [ecx], eax
$LN2@EmunGamePr:

; 581  : 	if (Position!=NULL) m_GamePropertyItemMap.GetNextAssoc(Position,wKey,pGamePropertyItem);

  00032	8b 45 08	 mov	 eax, DWORD PTR _Position$[ebp]
  00035	83 38 00	 cmp	 DWORD PTR [eax], 0
  00038	74 17		 je	 SHORT $LN3@EmunGamePr
  0003a	8d 45 f4	 lea	 eax, DWORD PTR _pGamePropertyItem$[ebp]
  0003d	50		 push	 eax
  0003e	8d 4d f8	 lea	 ecx, DWORD PTR _wKey$[ebp]
  00041	51		 push	 ecx
  00042	8b 55 08	 mov	 edx, DWORD PTR _Position$[ebp]
  00045	52		 push	 edx
  00046	8b 4d fc	 mov	 ecx, DWORD PTR _this$[ebp]
  00049	83 c1 3c	 add	 ecx, 60			; 0000003cH
  0004c	e8 00 00 00 00	 call	 ?GetNextAssoc@?$CMap@KKPAVCGamePropertyItem@NGamePropertyListManager@@AAPAV12@@@QBEXAAPAU__POSITION@@AAKAAPAVCGamePropertyItem@NGamePropertyListManager@@@Z ; CMap<unsigned long,unsigned long,NGamePropertyListManager::CGamePropertyItem *,NGamePropertyListManager::CGamePropertyItem * &>::GetNextAssoc
$LN3@EmunGamePr:

; 582  : 
; 583  : 	return pGamePropertyItem;

  00051	8b 45 f4	 mov	 eax, DWORD PTR _pGamePropertyItem$[ebp]

; 584  : }

  00054	5f		 pop	 edi
  00055	5e		 pop	 esi
  00056	5b		 pop	 ebx
  00057	8b e5		 mov	 esp, ebp
  00059	5d		 pop	 ebp
  0005a	c2 04 00	 ret	 4
?EmunGamePropertyItem@CGamePropertyListManager@NGamePropertyListManager@@QAEPAVCGamePropertyItem@2@AAPAU__POSITION@@@Z ENDP ; NGamePropertyListManager::CGamePropertyListManager::EmunGamePropertyItem
_TEXT	ENDS
; Function compile flags: /Odtp /ZI
; File g:\网狐\happygamewh\服务端\系统模块\服务器组件\登录服务器\gamepropertylistmanager.cpp
;	COMDAT ?EmunGamePropertyRelatItem@CGamePropertyListManager@NGamePropertyListManager@@QAEPAVCGamePropertyRelatItem@2@AAPAU__POSITION@@@Z
_TEXT	SEGMENT
_pGamePropertyRelatItem$ = -12				; size = 4
_wKey$ = -8						; size = 4
_this$ = -4						; size = 4
_Position$ = 8						; size = 4
?EmunGamePropertyRelatItem@CGamePropertyListManager@NGamePropertyListManager@@QAEPAVCGamePropertyRelatItem@2@AAPAU__POSITION@@@Z PROC ; NGamePropertyListManager::CGamePropertyListManager::EmunGamePropertyRelatItem, COMDAT
; _this$ = ecx

; 560  : {

  00000	55		 push	 ebp
  00001	8b ec		 mov	 ebp, esp
  00003	83 ec 4c	 sub	 esp, 76			; 0000004cH
  00006	53		 push	 ebx
  00007	56		 push	 esi
  00008	57		 push	 edi
  00009	89 4d fc	 mov	 DWORD PTR _this$[ebp], ecx

; 561  : 	//变量定义
; 562  : 	DWORD wKey=0;

  0000c	c7 45 f8 00 00
	00 00		 mov	 DWORD PTR _wKey$[ebp], 0

; 563  : 	CGamePropertyRelatItem * pGamePropertyRelatItem=NULL;

  00013	c7 45 f4 00 00
	00 00		 mov	 DWORD PTR _pGamePropertyRelatItem$[ebp], 0

; 564  : 
; 565  : 	//获取对象
; 566  : 	if (Position==NULL) Position=m_GamePropertyRelatItemMap.GetStartPosition();

  0001a	8b 45 08	 mov	 eax, DWORD PTR _Position$[ebp]
  0001d	83 38 00	 cmp	 DWORD PTR [eax], 0
  00020	75 10		 jne	 SHORT $LN2@EmunGamePr
  00022	8b 4d fc	 mov	 ecx, DWORD PTR _this$[ebp]
  00025	83 c1 20	 add	 ecx, 32			; 00000020H
  00028	e8 00 00 00 00	 call	 ?GetStartPosition@?$CMap@KKPAVCGamePropertyRelatItem@NGamePropertyListManager@@AAPAV12@@@QBEPAU__POSITION@@XZ ; CMap<unsigned long,unsigned long,NGamePropertyListManager::CGamePropertyRelatItem *,NGamePropertyListManager::CGamePropertyRelatItem * &>::GetStartPosition
  0002d	8b 4d 08	 mov	 ecx, DWORD PTR _Position$[ebp]
  00030	89 01		 mov	 DWORD PTR [ecx], eax
$LN2@EmunGamePr:

; 567  : 	if (Position!=NULL) m_GamePropertyRelatItemMap.GetNextAssoc(Position,wKey,pGamePropertyRelatItem);

  00032	8b 45 08	 mov	 eax, DWORD PTR _Position$[ebp]
  00035	83 38 00	 cmp	 DWORD PTR [eax], 0
  00038	74 17		 je	 SHORT $LN3@EmunGamePr
  0003a	8d 45 f4	 lea	 eax, DWORD PTR _pGamePropertyRelatItem$[ebp]
  0003d	50		 push	 eax
  0003e	8d 4d f8	 lea	 ecx, DWORD PTR _wKey$[ebp]
  00041	51		 push	 ecx
  00042	8b 55 08	 mov	 edx, DWORD PTR _Position$[ebp]
  00045	52		 push	 edx
  00046	8b 4d fc	 mov	 ecx, DWORD PTR _this$[ebp]
  00049	83 c1 20	 add	 ecx, 32			; 00000020H
  0004c	e8 00 00 00 00	 call	 ?GetNextAssoc@?$CMap@KKPAVCGamePropertyRelatItem@NGamePropertyListManager@@AAPAV12@@@QBEXAAPAU__POSITION@@AAKAAPAVCGamePropertyRelatItem@NGamePropertyListManager@@@Z ; CMap<unsigned long,unsigned long,NGamePropertyListManager::CGamePropertyRelatItem *,NGamePropertyListManager::CGamePropertyRelatItem * &>::GetNextAssoc
$LN3@EmunGamePr:

; 568  : 
; 569  : 	return pGamePropertyRelatItem;

  00051	8b 45 f4	 mov	 eax, DWORD PTR _pGamePropertyRelatItem$[ebp]

; 570  : }

  00054	5f		 pop	 edi
  00055	5e		 pop	 esi
  00056	5b		 pop	 ebx
  00057	8b e5		 mov	 esp, ebp
  00059	5d		 pop	 ebp
  0005a	c2 04 00	 ret	 4
?EmunGamePropertyRelatItem@CGamePropertyListManager@NGamePropertyListManager@@QAEPAVCGamePropertyRelatItem@2@AAPAU__POSITION@@@Z ENDP ; NGamePropertyListManager::CGamePropertyListManager::EmunGamePropertyRelatItem
_TEXT	ENDS
; Function compile flags: /Odtp /ZI
; File g:\网狐\happygamewh\服务端\系统模块\服务器组件\登录服务器\gamepropertylistmanager.cpp
;	COMDAT ?EmunGamePropertyTypeItem@CGamePropertyListManager@NGamePropertyListManager@@QAEPAVCGamePropertyTypeItem@2@AAPAU__POSITION@@@Z
_TEXT	SEGMENT
_pGamePropertyTypeItem$ = -12				; size = 4
_wKey$ = -8						; size = 4
_this$ = -4						; size = 4
_Position$ = 8						; size = 4
?EmunGamePropertyTypeItem@CGamePropertyListManager@NGamePropertyListManager@@QAEPAVCGamePropertyTypeItem@2@AAPAU__POSITION@@@Z PROC ; NGamePropertyListManager::CGamePropertyListManager::EmunGamePropertyTypeItem, COMDAT
; _this$ = ecx

; 546  : {

  00000	55		 push	 ebp
  00001	8b ec		 mov	 ebp, esp
  00003	83 ec 4c	 sub	 esp, 76			; 0000004cH
  00006	53		 push	 ebx
  00007	56		 push	 esi
  00008	57		 push	 edi
  00009	89 4d fc	 mov	 DWORD PTR _this$[ebp], ecx

; 547  : 	//变量定义
; 548  : 	DWORD wKey=0;

  0000c	c7 45 f8 00 00
	00 00		 mov	 DWORD PTR _wKey$[ebp], 0

; 549  : 	CGamePropertyTypeItem * pGamePropertyTypeItem=NULL;

  00013	c7 45 f4 00 00
	00 00		 mov	 DWORD PTR _pGamePropertyTypeItem$[ebp], 0

; 550  : 
; 551  : 	//获取对象
; 552  : 	if (Position==NULL) Position=m_GamePropertyTypeItemMap.GetStartPosition();

  0001a	8b 45 08	 mov	 eax, DWORD PTR _Position$[ebp]
  0001d	83 38 00	 cmp	 DWORD PTR [eax], 0
  00020	75 10		 jne	 SHORT $LN2@EmunGamePr
  00022	8b 4d fc	 mov	 ecx, DWORD PTR _this$[ebp]
  00025	83 c1 04	 add	 ecx, 4
  00028	e8 00 00 00 00	 call	 ?GetStartPosition@?$CMap@KKPAVCGamePropertyTypeItem@NGamePropertyListManager@@AAPAV12@@@QBEPAU__POSITION@@XZ ; CMap<unsigned long,unsigned long,NGamePropertyListManager::CGamePropertyTypeItem *,NGamePropertyListManager::CGamePropertyTypeItem * &>::GetStartPosition
  0002d	8b 4d 08	 mov	 ecx, DWORD PTR _Position$[ebp]
  00030	89 01		 mov	 DWORD PTR [ecx], eax
$LN2@EmunGamePr:

; 553  : 	if (Position!=NULL) m_GamePropertyTypeItemMap.GetNextAssoc(Position,wKey,pGamePropertyTypeItem);

  00032	8b 45 08	 mov	 eax, DWORD PTR _Position$[ebp]
  00035	83 38 00	 cmp	 DWORD PTR [eax], 0
  00038	74 17		 je	 SHORT $LN3@EmunGamePr
  0003a	8d 45 f4	 lea	 eax, DWORD PTR _pGamePropertyTypeItem$[ebp]
  0003d	50		 push	 eax
  0003e	8d 4d f8	 lea	 ecx, DWORD PTR _wKey$[ebp]
  00041	51		 push	 ecx
  00042	8b 55 08	 mov	 edx, DWORD PTR _Position$[ebp]
  00045	52		 push	 edx
  00046	8b 4d fc	 mov	 ecx, DWORD PTR _this$[ebp]
  00049	83 c1 04	 add	 ecx, 4
  0004c	e8 00 00 00 00	 call	 ?GetNextAssoc@?$CMap@KKPAVCGamePropertyTypeItem@NGamePropertyListManager@@AAPAV12@@@QBEXAAPAU__POSITION@@AAKAAPAVCGamePropertyTypeItem@NGamePropertyListManager@@@Z ; CMap<unsigned long,unsigned long,NGamePropertyListManager::CGamePropertyTypeItem *,NGamePropertyListManager::CGamePropertyTypeItem * &>::GetNextAssoc
$LN3@EmunGamePr:

; 554  : 
; 555  : 	return pGamePropertyTypeItem;

  00051	8b 45 f4	 mov	 eax, DWORD PTR _pGamePropertyTypeItem$[ebp]

; 556  : }

  00054	5f		 pop	 edi
  00055	5e		 pop	 esi
  00056	5b		 pop	 ebx
  00057	8b e5		 mov	 esp, ebp
  00059	5d		 pop	 ebp
  0005a	c2 04 00	 ret	 4
?EmunGamePropertyTypeItem@CGamePropertyListManager@NGamePropertyListManager@@QAEPAVCGamePropertyTypeItem@2@AAPAU__POSITION@@@Z ENDP ; NGamePropertyListManager::CGamePropertyListManager::EmunGamePropertyTypeItem
_TEXT	ENDS
; Function compile flags: /Odtp /ZI
; File g:\网狐\happygamewh\服务端\系统模块\服务器组件\登录服务器\gamepropertylistmanager.cpp
;	COMDAT ?DeleteGamePropertyItem@CGamePropertyListManager@NGamePropertyListManager@@QAE_NK@Z
_TEXT	SEGMENT
_pGamePropertyItem$ = -8				; size = 4
_this$ = -4						; size = 4
_dwPropertyID$ = 8					; size = 4
?DeleteGamePropertyItem@CGamePropertyListManager@NGamePropertyListManager@@QAE_NK@Z PROC ; NGamePropertyListManager::CGamePropertyListManager::DeleteGamePropertyItem, COMDAT
; _this$ = ecx

; 532  : {

  00000	55		 push	 ebp
  00001	8b ec		 mov	 ebp, esp
  00003	83 ec 48	 sub	 esp, 72			; 00000048H
  00006	53		 push	 ebx
  00007	56		 push	 esi
  00008	57		 push	 edi
  00009	89 4d fc	 mov	 DWORD PTR _this$[ebp], ecx

; 533  : 	//查找道具
; 534  : 	CGamePropertyItem * pGamePropertyItem=NULL;

  0000c	c7 45 f8 00 00
	00 00		 mov	 DWORD PTR _pGamePropertyItem$[ebp], 0

; 535  : 	if (m_GamePropertyItemMap.Lookup(dwPropertyID,pGamePropertyItem)==FALSE) return false;

  00013	8d 45 f8	 lea	 eax, DWORD PTR _pGamePropertyItem$[ebp]
  00016	50		 push	 eax
  00017	8b 4d 08	 mov	 ecx, DWORD PTR _dwPropertyID$[ebp]
  0001a	51		 push	 ecx
  0001b	8b 4d fc	 mov	 ecx, DWORD PTR _this$[ebp]
  0001e	83 c1 3c	 add	 ecx, 60			; 0000003cH
  00021	e8 00 00 00 00	 call	 ?Lookup@?$CMap@KKPAVCGamePropertyItem@NGamePropertyListManager@@AAPAV12@@@QBEHKAAPAVCGamePropertyItem@NGamePropertyListManager@@@Z ; CMap<unsigned long,unsigned long,NGamePropertyListManager::CGamePropertyItem *,NGamePropertyListManager::CGamePropertyItem * &>::Lookup
  00026	85 c0		 test	 eax, eax
  00028	75 04		 jne	 SHORT $LN2@DeleteGame
  0002a	32 c0		 xor	 al, al
  0002c	eb 23		 jmp	 SHORT $LN1@DeleteGame
$LN2@DeleteGame:

; 536  : 
; 537  : 	//删除数据
; 538  : 	m_GamePropertyItemMap.RemoveKey(dwPropertyID);

  0002e	8b 45 08	 mov	 eax, DWORD PTR _dwPropertyID$[ebp]
  00031	50		 push	 eax
  00032	8b 4d fc	 mov	 ecx, DWORD PTR _this$[ebp]
  00035	83 c1 3c	 add	 ecx, 60			; 0000003cH
  00038	e8 00 00 00 00	 call	 ?RemoveKey@?$CMap@KKPAVCGamePropertyItem@NGamePropertyListManager@@AAPAV12@@@QAEHK@Z ; CMap<unsigned long,unsigned long,NGamePropertyListManager::CGamePropertyItem *,NGamePropertyListManager::CGamePropertyItem * &>::RemoveKey

; 539  : 	m_GamePropertyItemArray.Add(pGamePropertyItem);

  0003d	8d 45 f8	 lea	 eax, DWORD PTR _pGamePropertyItem$[ebp]
  00040	50		 push	 eax
  00041	8b 4d fc	 mov	 ecx, DWORD PTR _this$[ebp]
  00044	81 c1 9c 00 00
	00		 add	 ecx, 156		; 0000009cH
  0004a	e8 00 00 00 00	 call	 ?Add@?$CWHArray@PAVCGamePropertyItem@NGamePropertyListManager@@ABQAV12@@@QAEHABQAVCGamePropertyItem@NGamePropertyListManager@@@Z ; CWHArray<NGamePropertyListManager::CGamePropertyItem *,NGamePropertyListManager::CGamePropertyItem * const &>::Add

; 540  : 
; 541  : 	return true;

  0004f	b0 01		 mov	 al, 1
$LN1@DeleteGame:

; 542  : }

  00051	5f		 pop	 edi
  00052	5e		 pop	 esi
  00053	5b		 pop	 ebx
  00054	8b e5		 mov	 esp, ebp
  00056	5d		 pop	 ebp
  00057	c2 04 00	 ret	 4
?DeleteGamePropertyItem@CGamePropertyListManager@NGamePropertyListManager@@QAE_NK@Z ENDP ; NGamePropertyListManager::CGamePropertyListManager::DeleteGamePropertyItem
_TEXT	ENDS
; Function compile flags: /Odtp /ZI
; File g:\网狐\happygamewh\服务端\系统模块\服务器组件\登录服务器\gamepropertylistmanager.cpp
;	COMDAT ?DeleteGamePropertyTypeItem@CGamePropertyListManager@NGamePropertyListManager@@QAE_NK@Z
_TEXT	SEGMENT
_pGamePropertyTypeItem$ = -8				; size = 4
_this$ = -4						; size = 4
_dwTypeID$ = 8						; size = 4
?DeleteGamePropertyTypeItem@CGamePropertyListManager@NGamePropertyListManager@@QAE_NK@Z PROC ; NGamePropertyListManager::CGamePropertyListManager::DeleteGamePropertyTypeItem, COMDAT
; _this$ = ecx

; 519  : {

  00000	55		 push	 ebp
  00001	8b ec		 mov	 ebp, esp
  00003	83 ec 48	 sub	 esp, 72			; 00000048H
  00006	53		 push	 ebx
  00007	56		 push	 esi
  00008	57		 push	 edi
  00009	89 4d fc	 mov	 DWORD PTR _this$[ebp], ecx

; 520  : 	//查找种类
; 521  : 	CGamePropertyTypeItem * pGamePropertyTypeItem=NULL;

  0000c	c7 45 f8 00 00
	00 00		 mov	 DWORD PTR _pGamePropertyTypeItem$[ebp], 0

; 522  : 	if (m_GamePropertyTypeItemMap.Lookup(dwTypeID,pGamePropertyTypeItem)==FALSE) return false;

  00013	8d 45 f8	 lea	 eax, DWORD PTR _pGamePropertyTypeItem$[ebp]
  00016	50		 push	 eax
  00017	8b 4d 08	 mov	 ecx, DWORD PTR _dwTypeID$[ebp]
  0001a	51		 push	 ecx
  0001b	8b 4d fc	 mov	 ecx, DWORD PTR _this$[ebp]
  0001e	83 c1 04	 add	 ecx, 4
  00021	e8 00 00 00 00	 call	 ?Lookup@?$CMap@KKPAVCGamePropertyTypeItem@NGamePropertyListManager@@AAPAV12@@@QBEHKAAPAVCGamePropertyTypeItem@NGamePropertyListManager@@@Z ; CMap<unsigned long,unsigned long,NGamePropertyListManager::CGamePropertyTypeItem *,NGamePropertyListManager::CGamePropertyTypeItem * &>::Lookup
  00026	85 c0		 test	 eax, eax
  00028	75 04		 jne	 SHORT $LN2@DeleteGame
  0002a	32 c0		 xor	 al, al
  0002c	eb 11		 jmp	 SHORT $LN1@DeleteGame
$LN2@DeleteGame:

; 523  : 
; 524  : 	//删除数据
; 525  : 	m_GamePropertyTypeItemMap.RemoveKey(dwTypeID);

  0002e	8b 45 08	 mov	 eax, DWORD PTR _dwTypeID$[ebp]
  00031	50		 push	 eax
  00032	8b 4d fc	 mov	 ecx, DWORD PTR _this$[ebp]
  00035	83 c1 04	 add	 ecx, 4
  00038	e8 00 00 00 00	 call	 ?RemoveKey@?$CMap@KKPAVCGamePropertyTypeItem@NGamePropertyListManager@@AAPAV12@@@QAEHK@Z ; CMap<unsigned long,unsigned long,NGamePropertyListManager::CGamePropertyTypeItem *,NGamePropertyListManager::CGamePropertyTypeItem * &>::RemoveKey

; 526  : 
; 527  : 	return true;

  0003d	b0 01		 mov	 al, 1
$LN1@DeleteGame:

; 528  : }

  0003f	5f		 pop	 edi
  00040	5e		 pop	 esi
  00041	5b		 pop	 ebx
  00042	8b e5		 mov	 esp, ebp
  00044	5d		 pop	 ebp
  00045	c2 04 00	 ret	 4
?DeleteGamePropertyTypeItem@CGamePropertyListManager@NGamePropertyListManager@@QAE_NK@Z ENDP ; NGamePropertyListManager::CGamePropertyListManager::DeleteGamePropertyTypeItem
_TEXT	ENDS
; Function compile flags: /Odtp /ZI
; File g:\网狐\happygamewh\服务端\系统模块\服务器组件\登录服务器\gamepropertylistmanager.cpp
;	COMDAT ?InsertGamePropertySubItem@CGamePropertyListManager@NGamePropertyListManager@@QAE_NPAUtagPropertySubItem@@@Z
_TEXT	SEGMENT
tv139 = -128						; size = 4
tv158 = -124						; size = 4
tv155 = -120						; size = 4
$T2 = -113						; size = 1
$T3 = -112						; size = 4
$T4 = -108						; size = 4
_Position$ = -40					; size = 4
_dwCurrKey$ = -36					; size = 4
_dwkey$ = -32						; size = 4
_bFinder$ = -25						; size = 1
_pGamePropertySubItem$ = -24				; size = 4
_this$ = -20						; size = 4
__$EHRec$ = -16						; size = 16
_ptagPropertySubItem$ = 8				; size = 4
?InsertGamePropertySubItem@CGamePropertyListManager@NGamePropertyListManager@@QAE_NPAUtagPropertySubItem@@@Z PROC ; NGamePropertyListManager::CGamePropertyListManager::InsertGamePropertySubItem, COMDAT
; _this$ = ecx

; 458  : {

  00000	55		 push	 ebp
  00001	8b ec		 mov	 ebp, esp
  00003	6a ff		 push	 -1
  00005	68 00 00 00 00	 push	 __ehhandler$?InsertGamePropertySubItem@CGamePropertyListManager@NGamePropertyListManager@@QAE_NPAUtagPropertySubItem@@@Z
  0000a	64 a1 00 00 00
	00		 mov	 eax, DWORD PTR fs:0
  00010	50		 push	 eax
  00011	51		 push	 ecx
  00012	83 ec 70	 sub	 esp, 112		; 00000070H
  00015	53		 push	 ebx
  00016	56		 push	 esi
  00017	57		 push	 edi
  00018	a1 00 00 00 00	 mov	 eax, DWORD PTR ___security_cookie
  0001d	33 c5		 xor	 eax, ebp
  0001f	50		 push	 eax
  00020	8d 45 f4	 lea	 eax, DWORD PTR __$EHRec$[ebp+4]
  00023	64 a3 00 00 00
	00		 mov	 DWORD PTR fs:0, eax
  00029	89 65 f0	 mov	 DWORD PTR __$EHRec$[ebp], esp
  0002c	89 4d ec	 mov	 DWORD PTR _this$[ebp], ecx

; 459  : 	//效验参数
; 460  : 	ASSERT(ptagPropertySubItem!=NULL);

  0002f	83 7d 08 00	 cmp	 DWORD PTR _ptagPropertySubItem$[ebp], 0
  00033	75 18		 jne	 SHORT $LN15@InsertGame
  00035	a1 00 00 00 00	 mov	 eax, DWORD PTR ?__LINE__Var@?0??InsertGamePropertySubItem@CGamePropertyListManager@NGamePropertyListManager@@QAE_NPAUtagPropertySubItem@@@Z@4JA
  0003a	83 c0 02	 add	 eax, 2
  0003d	50		 push	 eax
  0003e	68 00 00 00 00	 push	 OFFSET ??_C@_0FG@GCELCLHM@g?3?2?M?x?$LK?$PM?2happygamewh?2?$LH?$PO?N?q?$LG?K?2?O?$LF?M?$LD@
  00043	e8 00 00 00 00	 call	 ?AfxAssertFailedLine@@YGHPBDH@Z ; AfxAssertFailedLine
  00048	85 c0		 test	 eax, eax
  0004a	74 01		 je	 SHORT $LN15@InsertGame
  0004c	cc		 int	 3
$LN15@InsertGame:

; 461  : 	if (ptagPropertySubItem==NULL) return false;

  0004d	83 7d 08 00	 cmp	 DWORD PTR _ptagPropertySubItem$[ebp], 0
  00051	75 07		 jne	 SHORT $LN4@InsertGame
  00053	32 c0		 xor	 al, al
  00055	e9 6d 01 00 00	 jmp	 $LN1@InsertGame
$LN4@InsertGame:

; 462  : 
; 463  : 	//查找现存
; 464  : 	CGamePropertySubItem * pGamePropertySubItem=NULL;

  0005a	c7 45 e8 00 00
	00 00		 mov	 DWORD PTR _pGamePropertySubItem$[ebp], 0

; 465  : 
; 466  : 	bool bFinder = false;

  00061	c6 45 e7 00	 mov	 BYTE PTR _bFinder$[ebp], 0

; 467  : 	DWORD  dwkey= 0;

  00065	c7 45 e0 00 00
	00 00		 mov	 DWORD PTR _dwkey$[ebp], 0

; 468  : 	DWORD  dwCurrKey =0;

  0006c	c7 45 dc 00 00
	00 00		 mov	 DWORD PTR _dwCurrKey$[ebp], 0

; 469  : 	POSITION Position=NULL;

  00073	c7 45 d8 00 00
	00 00		 mov	 DWORD PTR _Position$[ebp], 0
$LN2@InsertGame:

; 470  : 	while (true)

  0007a	b8 01 00 00 00	 mov	 eax, 1
  0007f	85 c0		 test	 eax, eax
  00081	74 6d		 je	 SHORT $LN3@InsertGame

; 471  : 	{
; 472  : 		if (Position==NULL) Position=m_GamePropertySubItemMap.GetStartPosition();

  00083	83 7d d8 00	 cmp	 DWORD PTR _Position$[ebp], 0
  00087	75 0e		 jne	 SHORT $LN5@InsertGame
  00089	8b 4d ec	 mov	 ecx, DWORD PTR _this$[ebp]
  0008c	83 c1 58	 add	 ecx, 88			; 00000058H
  0008f	e8 00 00 00 00	 call	 ?GetStartPosition@?$CMap@KKPAVCGamePropertySubItem@NGamePropertyListManager@@AAPAV12@@@QBEPAU__POSITION@@XZ ; CMap<unsigned long,unsigned long,NGamePropertyListManager::CGamePropertySubItem *,NGamePropertyListManager::CGamePropertySubItem * &>::GetStartPosition
  00094	89 45 d8	 mov	 DWORD PTR _Position$[ebp], eax
$LN5@InsertGame:

; 473  : 		if (Position!=NULL) m_GamePropertySubItemMap.GetNextAssoc(Position,dwkey,pGamePropertySubItem);

  00097	83 7d d8 00	 cmp	 DWORD PTR _Position$[ebp], 0
  0009b	74 17		 je	 SHORT $LN6@InsertGame
  0009d	8d 45 e8	 lea	 eax, DWORD PTR _pGamePropertySubItem$[ebp]
  000a0	50		 push	 eax
  000a1	8d 4d e0	 lea	 ecx, DWORD PTR _dwkey$[ebp]
  000a4	51		 push	 ecx
  000a5	8d 55 d8	 lea	 edx, DWORD PTR _Position$[ebp]
  000a8	52		 push	 edx
  000a9	8b 4d ec	 mov	 ecx, DWORD PTR _this$[ebp]
  000ac	83 c1 58	 add	 ecx, 88			; 00000058H
  000af	e8 00 00 00 00	 call	 ?GetNextAssoc@?$CMap@KKPAVCGamePropertySubItem@NGamePropertyListManager@@AAPAV12@@@QBEXAAPAU__POSITION@@AAKAAPAVCGamePropertySubItem@NGamePropertyListManager@@@Z ; CMap<unsigned long,unsigned long,NGamePropertyListManager::CGamePropertySubItem *,NGamePropertyListManager::CGamePropertySubItem * &>::GetNextAssoc
$LN6@InsertGame:

; 474  : 
; 475  : 		if (pGamePropertySubItem==NULL) break;

  000b4	83 7d e8 00	 cmp	 DWORD PTR _pGamePropertySubItem$[ebp], 0
  000b8	75 02		 jne	 SHORT $LN7@InsertGame
  000ba	eb 34		 jmp	 SHORT $LN3@InsertGame
$LN7@InsertGame:

; 476  : 
; 477  : 		if (pGamePropertySubItem->m_PropertySubItem.dwPropertyID == ptagPropertySubItem->dwPropertyID
; 478  : 			&& pGamePropertySubItem->m_PropertySubItem.dwOwnerPropertyID == ptagPropertySubItem->dwOwnerPropertyID)

  000bc	8b 45 e8	 mov	 eax, DWORD PTR _pGamePropertySubItem$[ebp]
  000bf	8b 4d 08	 mov	 ecx, DWORD PTR _ptagPropertySubItem$[ebp]
  000c2	8b 50 01	 mov	 edx, DWORD PTR [eax+1]
  000c5	3b 11		 cmp	 edx, DWORD PTR [ecx]
  000c7	75 14		 jne	 SHORT $LN8@InsertGame
  000c9	8b 45 e8	 mov	 eax, DWORD PTR _pGamePropertySubItem$[ebp]
  000cc	8b 4d 08	 mov	 ecx, DWORD PTR _ptagPropertySubItem$[ebp]
  000cf	8b 50 05	 mov	 edx, DWORD PTR [eax+5]
  000d2	3b 51 04	 cmp	 edx, DWORD PTR [ecx+4]
  000d5	75 06		 jne	 SHORT $LN8@InsertGame

; 479  : 		{
; 480  : 			bFinder = true;

  000d7	c6 45 e7 01	 mov	 BYTE PTR _bFinder$[ebp], 1

; 481  : 			break;

  000db	eb 13		 jmp	 SHORT $LN3@InsertGame
$LN8@InsertGame:

; 482  : 		}
; 483  : 		dwCurrKey++;

  000dd	8b 45 dc	 mov	 eax, DWORD PTR _dwCurrKey$[ebp]
  000e0	83 c0 01	 add	 eax, 1
  000e3	89 45 dc	 mov	 DWORD PTR _dwCurrKey$[ebp], eax

; 484  : 
; 485  : 		if (Position==NULL) break;

  000e6	83 7d d8 00	 cmp	 DWORD PTR _Position$[ebp], 0
  000ea	75 02		 jne	 SHORT $LN9@InsertGame
  000ec	eb 02		 jmp	 SHORT $LN3@InsertGame
$LN9@InsertGame:

; 486  : 	}

  000ee	eb 8a		 jmp	 SHORT $LN2@InsertGame
$LN3@InsertGame:

; 487  : 
; 488  : 	//获取子项
; 489  : 	if (bFinder == false)

  000f0	0f b6 45 e7	 movzx	 eax, BYTE PTR _bFinder$[ebp]
  000f4	85 c0		 test	 eax, eax
  000f6	0f 85 9a 00 00
	00		 jne	 $LN10@InsertGame

; 490  : 	{
; 491  : 		//创建对象
; 492  : 		try

  000fc	c7 45 fc 00 00
	00 00		 mov	 DWORD PTR __$EHRec$[ebp+12], 0

; 493  : 		{
; 494  : 			pGamePropertySubItem=new CGamePropertySubItem;

  00103	6a 11		 push	 17			; 00000011H
  00105	e8 00 00 00 00	 call	 ??2@YAPAXI@Z		; operator new
  0010a	83 c4 04	 add	 esp, 4
  0010d	89 45 88	 mov	 DWORD PTR tv155[ebp], eax
  00110	8b 45 88	 mov	 eax, DWORD PTR tv155[ebp]
  00113	89 45 90	 mov	 DWORD PTR $T3[ebp], eax
  00116	c6 45 fc 01	 mov	 BYTE PTR __$EHRec$[ebp+12], 1
  0011a	83 7d 90 00	 cmp	 DWORD PTR $T3[ebp], 0
  0011e	74 13		 je	 SHORT $LN16@InsertGame
  00120	8b 4d 90	 mov	 ecx, DWORD PTR $T3[ebp]
  00123	e8 00 00 00 00	 call	 ??0CGamePropertySubItem@NGamePropertyListManager@@QAE@XZ ; NGamePropertyListManager::CGamePropertySubItem::CGamePropertySubItem
  00128	89 45 84	 mov	 DWORD PTR tv158[ebp], eax
  0012b	8b 4d 84	 mov	 ecx, DWORD PTR tv158[ebp]
  0012e	89 4d 80	 mov	 DWORD PTR tv139[ebp], ecx
  00131	eb 07		 jmp	 SHORT $LN17@InsertGame
$LN16@InsertGame:
  00133	c7 45 80 00 00
	00 00		 mov	 DWORD PTR tv139[ebp], 0
$LN17@InsertGame:
  0013a	8b 55 80	 mov	 edx, DWORD PTR tv139[ebp]
  0013d	89 55 94	 mov	 DWORD PTR $T4[ebp], edx
  00140	c6 45 fc 00	 mov	 BYTE PTR __$EHRec$[ebp+12], 0
  00144	8b 45 94	 mov	 eax, DWORD PTR $T4[ebp]
  00147	89 45 e8	 mov	 DWORD PTR _pGamePropertySubItem$[ebp], eax

; 495  : 			if (pGamePropertySubItem==NULL) return false;

  0014a	83 7d e8 00	 cmp	 DWORD PTR _pGamePropertySubItem$[ebp], 0
  0014e	75 04		 jne	 SHORT $LN13@InsertGame
  00150	32 c0		 xor	 al, al
  00152	eb 73		 jmp	 SHORT $LN1@InsertGame
$LN13@InsertGame:

; 496  : 		}

  00154	eb 10		 jmp	 SHORT $LN18@InsertGame
__catch$?InsertGamePropertySubItem@CGamePropertyListManager@NGamePropertyListManager@@QAE_NPAUtagPropertySubItem@@@Z$0:

; 497  : 		catch (...) { return false; }

  00156	c6 45 8f 00	 mov	 BYTE PTR $T2[ebp], 0
  0015a	b8 00 00 00 00	 mov	 eax, $LN22@InsertGame
  0015f	c3		 ret	 0
  00160	b8 00 00 00 00	 mov	 eax, $LN18@InsertGame
  00165	c3		 ret	 0
$LN18@InsertGame:
  00166	c7 45 fc ff ff
	ff ff		 mov	 DWORD PTR __$EHRec$[ebp+12], -1
  0016d	eb 0c		 jmp	 SHORT $LN21@InsertGame
$LN22@InsertGame:
  0016f	c7 45 fc ff ff
	ff ff		 mov	 DWORD PTR __$EHRec$[ebp+12], -1
  00176	8a 45 8f	 mov	 al, BYTE PTR $T2[ebp]
  00179	eb 4c		 jmp	 SHORT $LN1@InsertGame
$LN21@InsertGame:

; 498  : 
; 499  : 		//设置变量
; 500  : 		ZeroMemory(pGamePropertySubItem,sizeof(CGamePropertySubItem));

  0017b	6a 11		 push	 17			; 00000011H
  0017d	6a 00		 push	 0
  0017f	8b 45 e8	 mov	 eax, DWORD PTR _pGamePropertySubItem$[ebp]
  00182	50		 push	 eax
  00183	e8 00 00 00 00	 call	 _memset
  00188	83 c4 0c	 add	 esp, 12			; 0000000cH

; 501  : 		dwCurrKey++;

  0018b	8b 45 dc	 mov	 eax, DWORD PTR _dwCurrKey$[ebp]
  0018e	83 c0 01	 add	 eax, 1
  00191	89 45 dc	 mov	 DWORD PTR _dwCurrKey$[ebp], eax

; 502  : 	}
; 503  : 	else

  00194	eb 06		 jmp	 SHORT $LN11@InsertGame
$LN10@InsertGame:

; 504  : 	{
; 505  : 		dwCurrKey = dwkey;

  00196	8b 45 e0	 mov	 eax, DWORD PTR _dwkey$[ebp]
  00199	89 45 dc	 mov	 DWORD PTR _dwCurrKey$[ebp], eax
$LN11@InsertGame:

; 506  : 	}
; 507  : 
; 508  : 	//设置数据
; 509  : 	CopyMemory(&pGamePropertySubItem->m_PropertySubItem,ptagPropertySubItem,sizeof(tagPropertySubItem));

  0019c	6a 10		 push	 16			; 00000010H
  0019e	8b 45 08	 mov	 eax, DWORD PTR _ptagPropertySubItem$[ebp]
  001a1	50		 push	 eax
  001a2	8b 4d e8	 mov	 ecx, DWORD PTR _pGamePropertySubItem$[ebp]
  001a5	83 c1 01	 add	 ecx, 1
  001a8	51		 push	 ecx
  001a9	e8 00 00 00 00	 call	 _memcpy
  001ae	83 c4 0c	 add	 esp, 12			; 0000000cH

; 510  : 
; 511  : 	//设置索引
; 512  : 	m_GamePropertySubItemMap[dwCurrKey]=pGamePropertySubItem;

  001b1	8b 45 dc	 mov	 eax, DWORD PTR _dwCurrKey$[ebp]
  001b4	50		 push	 eax
  001b5	8b 4d ec	 mov	 ecx, DWORD PTR _this$[ebp]
  001b8	83 c1 58	 add	 ecx, 88			; 00000058H
  001bb	e8 00 00 00 00	 call	 ??A?$CMap@KKPAVCGamePropertySubItem@NGamePropertyListManager@@AAPAV12@@@QAEAAPAVCGamePropertySubItem@NGamePropertyListManager@@K@Z ; CMap<unsigned long,unsigned long,NGamePropertyListManager::CGamePropertySubItem *,NGamePropertyListManager::CGamePropertySubItem * &>::operator[]
  001c0	8b 4d e8	 mov	 ecx, DWORD PTR _pGamePropertySubItem$[ebp]
  001c3	89 08		 mov	 DWORD PTR [eax], ecx

; 513  : 
; 514  : 	return true;

  001c5	b0 01		 mov	 al, 1
$LN1@InsertGame:

; 515  : }

  001c7	8b 4d f4	 mov	 ecx, DWORD PTR __$EHRec$[ebp+4]
  001ca	64 89 0d 00 00
	00 00		 mov	 DWORD PTR fs:0, ecx
  001d1	59		 pop	 ecx
  001d2	5f		 pop	 edi
  001d3	5e		 pop	 esi
  001d4	5b		 pop	 ebx
  001d5	8b e5		 mov	 esp, ebp
  001d7	5d		 pop	 ebp
  001d8	c2 04 00	 ret	 4
_TEXT	ENDS
;	COMDAT text$x
text$x	SEGMENT
__unwindfunclet$?InsertGamePropertySubItem@CGamePropertyListManager@NGamePropertyListManager@@QAE_NPAUtagPropertySubItem@@@Z$2:
  00000	6a 11		 push	 17			; 00000011H
  00002	8b 45 90	 mov	 eax, DWORD PTR $T3[ebp]
  00005	50		 push	 eax
  00006	e8 00 00 00 00	 call	 ??3@YAXPAXI@Z		; operator delete
  0000b	83 c4 08	 add	 esp, 8
  0000e	c3		 ret	 0
__ehhandler$?InsertGamePropertySubItem@CGamePropertyListManager@NGamePropertyListManager@@QAE_NPAUtagPropertySubItem@@@Z:
  0000f	8b 54 24 08	 mov	 edx, DWORD PTR [esp+8]
  00013	8d 42 0c	 lea	 eax, DWORD PTR [edx+12]
  00016	8b 8a 7c ff ff
	ff		 mov	 ecx, DWORD PTR [edx-132]
  0001c	33 c8		 xor	 ecx, eax
  0001e	e8 00 00 00 00	 call	 @__security_check_cookie@4
  00023	b8 00 00 00 00	 mov	 eax, OFFSET __ehfuncinfo$?InsertGamePropertySubItem@CGamePropertyListManager@NGamePropertyListManager@@QAE_NPAUtagPropertySubItem@@@Z
  00028	e9 00 00 00 00	 jmp	 ___CxxFrameHandler3
text$x	ENDS
?InsertGamePropertySubItem@CGamePropertyListManager@NGamePropertyListManager@@QAE_NPAUtagPropertySubItem@@@Z ENDP ; NGamePropertyListManager::CGamePropertyListManager::InsertGamePropertySubItem
; Function compile flags: /Odtp /ZI
; File g:\网狐\happygamewh\服务端\系统模块\服务器组件\登录服务器\gamepropertylistmanager.cpp
;	COMDAT ?InsertGamePropertyItem@CGamePropertyListManager@NGamePropertyListManager@@QAE_NPAUtagPropertyItem@@@Z
_TEXT	SEGMENT
tv136 = -116						; size = 4
tv157 = -112						; size = 4
tv154 = -108						; size = 4
tv153 = -108						; size = 4
tv152 = -108						; size = 4
$T2 = -101						; size = 1
$T3 = -100						; size = 4
$T4 = -96						; size = 4
_nStroeCount$5 = -28					; size = 4
_pGamePropertyItem$ = -24				; size = 4
_this$ = -20						; size = 4
__$EHRec$ = -16						; size = 16
_ptagPropertyItem$ = 8					; size = 4
?InsertGamePropertyItem@CGamePropertyListManager@NGamePropertyListManager@@QAE_NPAUtagPropertyItem@@@Z PROC ; NGamePropertyListManager::CGamePropertyListManager::InsertGamePropertyItem, COMDAT
; _this$ = ecx

; 414  : {

  00000	55		 push	 ebp
  00001	8b ec		 mov	 ebp, esp
  00003	6a ff		 push	 -1
  00005	68 00 00 00 00	 push	 __ehhandler$?InsertGamePropertyItem@CGamePropertyListManager@NGamePropertyListManager@@QAE_NPAUtagPropertyItem@@@Z
  0000a	64 a1 00 00 00
	00		 mov	 eax, DWORD PTR fs:0
  00010	50		 push	 eax
  00011	51		 push	 ecx
  00012	83 ec 64	 sub	 esp, 100		; 00000064H
  00015	53		 push	 ebx
  00016	56		 push	 esi
  00017	57		 push	 edi
  00018	a1 00 00 00 00	 mov	 eax, DWORD PTR ___security_cookie
  0001d	33 c5		 xor	 eax, ebp
  0001f	50		 push	 eax
  00020	8d 45 f4	 lea	 eax, DWORD PTR __$EHRec$[ebp+4]
  00023	64 a3 00 00 00
	00		 mov	 DWORD PTR fs:0, eax
  00029	89 65 f0	 mov	 DWORD PTR __$EHRec$[ebp], esp
  0002c	89 4d ec	 mov	 DWORD PTR _this$[ebp], ecx

; 415  : 	//效验参数
; 416  : 	ASSERT(ptagPropertyItem!=NULL);

  0002f	83 7d 08 00	 cmp	 DWORD PTR _ptagPropertyItem$[ebp], 0
  00033	75 18		 jne	 SHORT $LN9@InsertGame
  00035	a1 00 00 00 00	 mov	 eax, DWORD PTR ?__LINE__Var@?0??InsertGamePropertyItem@CGamePropertyListManager@NGamePropertyListManager@@QAE_NPAUtagPropertyItem@@@Z@4JA
  0003a	83 c0 02	 add	 eax, 2
  0003d	50		 push	 eax
  0003e	68 00 00 00 00	 push	 OFFSET ??_C@_0FG@GCELCLHM@g?3?2?M?x?$LK?$PM?2happygamewh?2?$LH?$PO?N?q?$LG?K?2?O?$LF?M?$LD@
  00043	e8 00 00 00 00	 call	 ?AfxAssertFailedLine@@YGHPBDH@Z ; AfxAssertFailedLine
  00048	85 c0		 test	 eax, eax
  0004a	74 01		 je	 SHORT $LN9@InsertGame
  0004c	cc		 int	 3
$LN9@InsertGame:

; 417  : 	if (ptagPropertyItem==NULL) return false;

  0004d	83 7d 08 00	 cmp	 DWORD PTR _ptagPropertyItem$[ebp], 0
  00051	75 07		 jne	 SHORT $LN2@InsertGame
  00053	32 c0		 xor	 al, al
  00055	e9 3f 01 00 00	 jmp	 $LN1@InsertGame
$LN2@InsertGame:

; 418  : 
; 419  : 	//查找现存
; 420  : 	CGamePropertyItem * pGamePropertyItem=NULL;

  0005a	c7 45 e8 00 00
	00 00		 mov	 DWORD PTR _pGamePropertyItem$[ebp], 0

; 421  : 
; 422  : 	//获取子项
; 423  : 	if (m_GamePropertyItemMap.Lookup(ptagPropertyItem->dwPropertyID,pGamePropertyItem)==FALSE)

  00061	8d 45 e8	 lea	 eax, DWORD PTR _pGamePropertyItem$[ebp]
  00064	50		 push	 eax
  00065	8b 4d 08	 mov	 ecx, DWORD PTR _ptagPropertyItem$[ebp]
  00068	8b 11		 mov	 edx, DWORD PTR [ecx]
  0006a	52		 push	 edx
  0006b	8b 4d ec	 mov	 ecx, DWORD PTR _this$[ebp]
  0006e	83 c1 3c	 add	 ecx, 60			; 0000003cH
  00071	e8 00 00 00 00	 call	 ?Lookup@?$CMap@KKPAVCGamePropertyItem@NGamePropertyListManager@@AAPAV12@@@QBEHKAAPAVCGamePropertyItem@NGamePropertyListManager@@@Z ; CMap<unsigned long,unsigned long,NGamePropertyListManager::CGamePropertyItem *,NGamePropertyListManager::CGamePropertyItem * &>::Lookup
  00076	85 c0		 test	 eax, eax
  00078	0f 85 eb 00 00
	00		 jne	 $LN3@InsertGame

; 424  : 	{
; 425  : 		//创建对象
; 426  : 		try

  0007e	c7 45 fc 00 00
	00 00		 mov	 DWORD PTR __$EHRec$[ebp+12], 0

; 427  : 		{
; 428  : 			INT_PTR nStroeCount=m_GamePropertyItemArray.GetCount();

  00085	8b 4d ec	 mov	 ecx, DWORD PTR _this$[ebp]
  00088	81 c1 9c 00 00
	00		 add	 ecx, 156		; 0000009cH
  0008e	e8 00 00 00 00	 call	 ?GetCount@?$CWHArray@PAVCGamePropertyItem@NGamePropertyListManager@@ABQAV12@@@QBEHXZ ; CWHArray<NGamePropertyListManager::CGamePropertyItem *,NGamePropertyListManager::CGamePropertyItem * const &>::GetCount
  00093	89 45 94	 mov	 DWORD PTR tv152[ebp], eax
  00096	8b 45 94	 mov	 eax, DWORD PTR tv152[ebp]
  00099	89 45 e4	 mov	 DWORD PTR _nStroeCount$5[ebp], eax

; 429  : 			if (nStroeCount>0)

  0009c	83 7d e4 00	 cmp	 DWORD PTR _nStroeCount$5[ebp], 0
  000a0	7e 39		 jle	 SHORT $LN5@InsertGame

; 430  : 			{
; 431  : 				pGamePropertyItem=m_GamePropertyItemArray[nStroeCount-1];

  000a2	8b 45 e4	 mov	 eax, DWORD PTR _nStroeCount$5[ebp]
  000a5	83 e8 01	 sub	 eax, 1
  000a8	50		 push	 eax
  000a9	8b 4d ec	 mov	 ecx, DWORD PTR _this$[ebp]
  000ac	81 c1 9c 00 00
	00		 add	 ecx, 156		; 0000009cH
  000b2	e8 00 00 00 00	 call	 ??A?$CWHArray@PAVCGamePropertyItem@NGamePropertyListManager@@ABQAV12@@@QAEAAPAVCGamePropertyItem@NGamePropertyListManager@@H@Z ; CWHArray<NGamePropertyListManager::CGamePropertyItem *,NGamePropertyListManager::CGamePropertyItem * const &>::operator[]
  000b7	89 45 94	 mov	 DWORD PTR tv153[ebp], eax
  000ba	8b 4d 94	 mov	 ecx, DWORD PTR tv153[ebp]
  000bd	8b 11		 mov	 edx, DWORD PTR [ecx]
  000bf	89 55 e8	 mov	 DWORD PTR _pGamePropertyItem$[ebp], edx

; 432  : 				m_GamePropertyItemArray.RemoveAt(nStroeCount-1);

  000c2	6a 01		 push	 1
  000c4	8b 45 e4	 mov	 eax, DWORD PTR _nStroeCount$5[ebp]
  000c7	83 e8 01	 sub	 eax, 1
  000ca	50		 push	 eax
  000cb	8b 4d ec	 mov	 ecx, DWORD PTR _this$[ebp]
  000ce	81 c1 9c 00 00
	00		 add	 ecx, 156		; 0000009cH
  000d4	e8 00 00 00 00	 call	 ?RemoveAt@?$CWHArray@PAVCGamePropertyItem@NGamePropertyListManager@@ABQAV12@@@QAEXHH@Z ; CWHArray<NGamePropertyListManager::CGamePropertyItem *,NGamePropertyListManager::CGamePropertyItem * const &>::RemoveAt

; 433  : 			}
; 434  : 			else

  000d9	eb 54		 jmp	 SHORT $LN6@InsertGame
$LN5@InsertGame:

; 435  : 			{
; 436  : 				pGamePropertyItem=new CGamePropertyItem;

  000db	68 00 01 00 00	 push	 256			; 00000100H
  000e0	e8 00 00 00 00	 call	 ??2@YAPAXI@Z		; operator new
  000e5	83 c4 04	 add	 esp, 4
  000e8	89 45 94	 mov	 DWORD PTR tv154[ebp], eax
  000eb	8b 45 94	 mov	 eax, DWORD PTR tv154[ebp]
  000ee	89 45 9c	 mov	 DWORD PTR $T3[ebp], eax
  000f1	c6 45 fc 01	 mov	 BYTE PTR __$EHRec$[ebp+12], 1
  000f5	83 7d 9c 00	 cmp	 DWORD PTR $T3[ebp], 0
  000f9	74 13		 je	 SHORT $LN10@InsertGame
  000fb	8b 4d 9c	 mov	 ecx, DWORD PTR $T3[ebp]
  000fe	e8 00 00 00 00	 call	 ??0CGamePropertyItem@NGamePropertyListManager@@QAE@XZ ; NGamePropertyListManager::CGamePropertyItem::CGamePropertyItem
  00103	89 45 90	 mov	 DWORD PTR tv157[ebp], eax
  00106	8b 4d 90	 mov	 ecx, DWORD PTR tv157[ebp]
  00109	89 4d 8c	 mov	 DWORD PTR tv136[ebp], ecx
  0010c	eb 07		 jmp	 SHORT $LN11@InsertGame
$LN10@InsertGame:
  0010e	c7 45 8c 00 00
	00 00		 mov	 DWORD PTR tv136[ebp], 0
$LN11@InsertGame:
  00115	8b 55 8c	 mov	 edx, DWORD PTR tv136[ebp]
  00118	89 55 a0	 mov	 DWORD PTR $T4[ebp], edx
  0011b	c6 45 fc 00	 mov	 BYTE PTR __$EHRec$[ebp+12], 0
  0011f	8b 45 a0	 mov	 eax, DWORD PTR $T4[ebp]
  00122	89 45 e8	 mov	 DWORD PTR _pGamePropertyItem$[ebp], eax

; 437  : 				if (pGamePropertyItem==NULL) return false;

  00125	83 7d e8 00	 cmp	 DWORD PTR _pGamePropertyItem$[ebp], 0
  00129	75 04		 jne	 SHORT $LN6@InsertGame
  0012b	32 c0		 xor	 al, al
  0012d	eb 6a		 jmp	 SHORT $LN1@InsertGame
$LN6@InsertGame:

; 438  : 			}
; 439  : 		}

  0012f	eb 10		 jmp	 SHORT $LN12@InsertGame
__catch$?InsertGamePropertyItem@CGamePropertyListManager@NGamePropertyListManager@@QAE_NPAUtagPropertyItem@@@Z$0:

; 440  : 		catch (...) { return false; }

  00131	c6 45 9b 00	 mov	 BYTE PTR $T2[ebp], 0
  00135	b8 00 00 00 00	 mov	 eax, $LN16@InsertGame
  0013a	c3		 ret	 0
  0013b	b8 00 00 00 00	 mov	 eax, $LN12@InsertGame
  00140	c3		 ret	 0
$LN12@InsertGame:
  00141	c7 45 fc ff ff
	ff ff		 mov	 DWORD PTR __$EHRec$[ebp+12], -1
  00148	eb 0c		 jmp	 SHORT $LN15@InsertGame
$LN16@InsertGame:
  0014a	c7 45 fc ff ff
	ff ff		 mov	 DWORD PTR __$EHRec$[ebp+12], -1
  00151	8a 45 9b	 mov	 al, BYTE PTR $T2[ebp]
  00154	eb 43		 jmp	 SHORT $LN1@InsertGame
$LN15@InsertGame:

; 441  : 
; 442  : 		//设置变量
; 443  : 		ZeroMemory(pGamePropertyItem,sizeof(CGamePropertyItem));

  00156	68 00 01 00 00	 push	 256			; 00000100H
  0015b	6a 00		 push	 0
  0015d	8b 45 e8	 mov	 eax, DWORD PTR _pGamePropertyItem$[ebp]
  00160	50		 push	 eax
  00161	e8 00 00 00 00	 call	 _memset
  00166	83 c4 0c	 add	 esp, 12			; 0000000cH
$LN3@InsertGame:

; 444  : 	}
; 445  : 
; 446  : 
; 447  : 	//设置数据
; 448  : 	CopyMemory(&pGamePropertyItem->m_PropertyItem,ptagPropertyItem,sizeof(tagPropertyItem));

  00169	68 ff 00 00 00	 push	 255			; 000000ffH
  0016e	8b 45 08	 mov	 eax, DWORD PTR _ptagPropertyItem$[ebp]
  00171	50		 push	 eax
  00172	8b 4d e8	 mov	 ecx, DWORD PTR _pGamePropertyItem$[ebp]
  00175	83 c1 01	 add	 ecx, 1
  00178	51		 push	 ecx
  00179	e8 00 00 00 00	 call	 _memcpy
  0017e	83 c4 0c	 add	 esp, 12			; 0000000cH

; 449  : 
; 450  : 	//设置索引
; 451  : 	m_GamePropertyItemMap[ptagPropertyItem->dwPropertyID]=pGamePropertyItem;

  00181	8b 45 08	 mov	 eax, DWORD PTR _ptagPropertyItem$[ebp]
  00184	8b 08		 mov	 ecx, DWORD PTR [eax]
  00186	51		 push	 ecx
  00187	8b 4d ec	 mov	 ecx, DWORD PTR _this$[ebp]
  0018a	83 c1 3c	 add	 ecx, 60			; 0000003cH
  0018d	e8 00 00 00 00	 call	 ??A?$CMap@KKPAVCGamePropertyItem@NGamePropertyListManager@@AAPAV12@@@QAEAAPAVCGamePropertyItem@NGamePropertyListManager@@K@Z ; CMap<unsigned long,unsigned long,NGamePropertyListManager::CGamePropertyItem *,NGamePropertyListManager::CGamePropertyItem * &>::operator[]
  00192	8b 55 e8	 mov	 edx, DWORD PTR _pGamePropertyItem$[ebp]
  00195	89 10		 mov	 DWORD PTR [eax], edx

; 452  : 
; 453  : 	return true;

  00197	b0 01		 mov	 al, 1
$LN1@InsertGame:

; 454  : }

  00199	8b 4d f4	 mov	 ecx, DWORD PTR __$EHRec$[ebp+4]
  0019c	64 89 0d 00 00
	00 00		 mov	 DWORD PTR fs:0, ecx
  001a3	59		 pop	 ecx
  001a4	5f		 pop	 edi
  001a5	5e		 pop	 esi
  001a6	5b		 pop	 ebx
  001a7	8b e5		 mov	 esp, ebp
  001a9	5d		 pop	 ebp
  001aa	c2 04 00	 ret	 4
_TEXT	ENDS
;	COMDAT text$x
text$x	SEGMENT
__unwindfunclet$?InsertGamePropertyItem@CGamePropertyListManager@NGamePropertyListManager@@QAE_NPAUtagPropertyItem@@@Z$2:
  00000	68 00 01 00 00	 push	 256			; 00000100H
  00005	8b 45 9c	 mov	 eax, DWORD PTR $T3[ebp]
  00008	50		 push	 eax
  00009	e8 00 00 00 00	 call	 ??3@YAXPAXI@Z		; operator delete
  0000e	83 c4 08	 add	 esp, 8
  00011	c3		 ret	 0
__ehhandler$?InsertGamePropertyItem@CGamePropertyListManager@NGamePropertyListManager@@QAE_NPAUtagPropertyItem@@@Z:
  00012	8b 54 24 08	 mov	 edx, DWORD PTR [esp+8]
  00016	8d 42 0c	 lea	 eax, DWORD PTR [edx+12]
  00019	8b 4a 88	 mov	 ecx, DWORD PTR [edx-120]
  0001c	33 c8		 xor	 ecx, eax
  0001e	e8 00 00 00 00	 call	 @__security_check_cookie@4
  00023	b8 00 00 00 00	 mov	 eax, OFFSET __ehfuncinfo$?InsertGamePropertyItem@CGamePropertyListManager@NGamePropertyListManager@@QAE_NPAUtagPropertyItem@@@Z
  00028	e9 00 00 00 00	 jmp	 ___CxxFrameHandler3
text$x	ENDS
?InsertGamePropertyItem@CGamePropertyListManager@NGamePropertyListManager@@QAE_NPAUtagPropertyItem@@@Z ENDP ; NGamePropertyListManager::CGamePropertyListManager::InsertGamePropertyItem
; Function compile flags: /Odtp /ZI
; File g:\网狐\happygamewh\服务端\系统模块\服务器组件\登录服务器\gamepropertylistmanager.cpp
;	COMDAT ?InsertGamePropertyRelatItem@CGamePropertyListManager@NGamePropertyListManager@@QAE_NPAUtagPropertyRelatItem@@@Z
_TEXT	SEGMENT
tv139 = -128						; size = 4
tv158 = -124						; size = 4
tv155 = -120						; size = 4
$T2 = -113						; size = 1
$T3 = -112						; size = 4
$T4 = -108						; size = 4
_Position$ = -40					; size = 4
_dwCurrKey$ = -36					; size = 4
_dwkey$ = -32						; size = 4
_bFinder$ = -25						; size = 1
_pPropertyRelatItem$ = -24				; size = 4
_this$ = -20						; size = 4
__$EHRec$ = -16						; size = 16
_ptagPropertyRelatItem$ = 8				; size = 4
?InsertGamePropertyRelatItem@CGamePropertyListManager@NGamePropertyListManager@@QAE_NPAUtagPropertyRelatItem@@@Z PROC ; NGamePropertyListManager::CGamePropertyListManager::InsertGamePropertyRelatItem, COMDAT
; _this$ = ecx

; 352  : {

  00000	55		 push	 ebp
  00001	8b ec		 mov	 ebp, esp
  00003	6a ff		 push	 -1
  00005	68 00 00 00 00	 push	 __ehhandler$?InsertGamePropertyRelatItem@CGamePropertyListManager@NGamePropertyListManager@@QAE_NPAUtagPropertyRelatItem@@@Z
  0000a	64 a1 00 00 00
	00		 mov	 eax, DWORD PTR fs:0
  00010	50		 push	 eax
  00011	51		 push	 ecx
  00012	83 ec 70	 sub	 esp, 112		; 00000070H
  00015	53		 push	 ebx
  00016	56		 push	 esi
  00017	57		 push	 edi
  00018	a1 00 00 00 00	 mov	 eax, DWORD PTR ___security_cookie
  0001d	33 c5		 xor	 eax, ebp
  0001f	50		 push	 eax
  00020	8d 45 f4	 lea	 eax, DWORD PTR __$EHRec$[ebp+4]
  00023	64 a3 00 00 00
	00		 mov	 DWORD PTR fs:0, eax
  00029	89 65 f0	 mov	 DWORD PTR __$EHRec$[ebp], esp
  0002c	89 4d ec	 mov	 DWORD PTR _this$[ebp], ecx

; 353  : 	//效验参数
; 354  : 	ASSERT(ptagPropertyRelatItem!=NULL);

  0002f	83 7d 08 00	 cmp	 DWORD PTR _ptagPropertyRelatItem$[ebp], 0
  00033	75 18		 jne	 SHORT $LN15@InsertGame
  00035	a1 00 00 00 00	 mov	 eax, DWORD PTR ?__LINE__Var@?0??InsertGamePropertyRelatItem@CGamePropertyListManager@NGamePropertyListManager@@QAE_NPAUtagPropertyRelatItem@@@Z@4JA
  0003a	83 c0 02	 add	 eax, 2
  0003d	50		 push	 eax
  0003e	68 00 00 00 00	 push	 OFFSET ??_C@_0FG@GCELCLHM@g?3?2?M?x?$LK?$PM?2happygamewh?2?$LH?$PO?N?q?$LG?K?2?O?$LF?M?$LD@
  00043	e8 00 00 00 00	 call	 ?AfxAssertFailedLine@@YGHPBDH@Z ; AfxAssertFailedLine
  00048	85 c0		 test	 eax, eax
  0004a	74 01		 je	 SHORT $LN15@InsertGame
  0004c	cc		 int	 3
$LN15@InsertGame:

; 355  : 	if (ptagPropertyRelatItem==NULL) return false;

  0004d	83 7d 08 00	 cmp	 DWORD PTR _ptagPropertyRelatItem$[ebp], 0
  00051	75 07		 jne	 SHORT $LN4@InsertGame
  00053	32 c0		 xor	 al, al
  00055	e9 6d 01 00 00	 jmp	 $LN1@InsertGame
$LN4@InsertGame:

; 356  : 
; 357  : 	//查找现存
; 358  : 	CGamePropertyRelatItem * pPropertyRelatItem=NULL;

  0005a	c7 45 e8 00 00
	00 00		 mov	 DWORD PTR _pPropertyRelatItem$[ebp], 0

; 359  : 
; 360  : 	bool bFinder = false;

  00061	c6 45 e7 00	 mov	 BYTE PTR _bFinder$[ebp], 0

; 361  : 	DWORD  dwkey= 0;

  00065	c7 45 e0 00 00
	00 00		 mov	 DWORD PTR _dwkey$[ebp], 0

; 362  : 	DWORD  dwCurrKey =0;

  0006c	c7 45 dc 00 00
	00 00		 mov	 DWORD PTR _dwCurrKey$[ebp], 0

; 363  : 	POSITION Position=NULL;

  00073	c7 45 d8 00 00
	00 00		 mov	 DWORD PTR _Position$[ebp], 0
$LN2@InsertGame:

; 364  : 	while (true)

  0007a	b8 01 00 00 00	 mov	 eax, 1
  0007f	85 c0		 test	 eax, eax
  00081	74 6d		 je	 SHORT $LN3@InsertGame

; 365  : 	{
; 366  : 		if (Position==NULL) Position=m_GamePropertyRelatItemMap.GetStartPosition();

  00083	83 7d d8 00	 cmp	 DWORD PTR _Position$[ebp], 0
  00087	75 0e		 jne	 SHORT $LN5@InsertGame
  00089	8b 4d ec	 mov	 ecx, DWORD PTR _this$[ebp]
  0008c	83 c1 20	 add	 ecx, 32			; 00000020H
  0008f	e8 00 00 00 00	 call	 ?GetStartPosition@?$CMap@KKPAVCGamePropertyRelatItem@NGamePropertyListManager@@AAPAV12@@@QBEPAU__POSITION@@XZ ; CMap<unsigned long,unsigned long,NGamePropertyListManager::CGamePropertyRelatItem *,NGamePropertyListManager::CGamePropertyRelatItem * &>::GetStartPosition
  00094	89 45 d8	 mov	 DWORD PTR _Position$[ebp], eax
$LN5@InsertGame:

; 367  : 		if (Position!=NULL) m_GamePropertyRelatItemMap.GetNextAssoc(Position,dwkey,pPropertyRelatItem);

  00097	83 7d d8 00	 cmp	 DWORD PTR _Position$[ebp], 0
  0009b	74 17		 je	 SHORT $LN6@InsertGame
  0009d	8d 45 e8	 lea	 eax, DWORD PTR _pPropertyRelatItem$[ebp]
  000a0	50		 push	 eax
  000a1	8d 4d e0	 lea	 ecx, DWORD PTR _dwkey$[ebp]
  000a4	51		 push	 ecx
  000a5	8d 55 d8	 lea	 edx, DWORD PTR _Position$[ebp]
  000a8	52		 push	 edx
  000a9	8b 4d ec	 mov	 ecx, DWORD PTR _this$[ebp]
  000ac	83 c1 20	 add	 ecx, 32			; 00000020H
  000af	e8 00 00 00 00	 call	 ?GetNextAssoc@?$CMap@KKPAVCGamePropertyRelatItem@NGamePropertyListManager@@AAPAV12@@@QBEXAAPAU__POSITION@@AAKAAPAVCGamePropertyRelatItem@NGamePropertyListManager@@@Z ; CMap<unsigned long,unsigned long,NGamePropertyListManager::CGamePropertyRelatItem *,NGamePropertyListManager::CGamePropertyRelatItem * &>::GetNextAssoc
$LN6@InsertGame:

; 368  : 
; 369  : 		if (pPropertyRelatItem==NULL) break;

  000b4	83 7d e8 00	 cmp	 DWORD PTR _pPropertyRelatItem$[ebp], 0
  000b8	75 02		 jne	 SHORT $LN7@InsertGame
  000ba	eb 34		 jmp	 SHORT $LN3@InsertGame
$LN7@InsertGame:

; 370  : 
; 371  : 		if (pPropertyRelatItem->m_PropertyRelatItem.dwPropertyID == ptagPropertyRelatItem->dwPropertyID
; 372  : 			&& pPropertyRelatItem->m_PropertyRelatItem.dwTypeID == ptagPropertyRelatItem->dwTypeID)

  000bc	8b 45 e8	 mov	 eax, DWORD PTR _pPropertyRelatItem$[ebp]
  000bf	8b 4d 08	 mov	 ecx, DWORD PTR _ptagPropertyRelatItem$[ebp]
  000c2	8b 50 01	 mov	 edx, DWORD PTR [eax+1]
  000c5	3b 11		 cmp	 edx, DWORD PTR [ecx]
  000c7	75 14		 jne	 SHORT $LN8@InsertGame
  000c9	8b 45 e8	 mov	 eax, DWORD PTR _pPropertyRelatItem$[ebp]
  000cc	8b 4d 08	 mov	 ecx, DWORD PTR _ptagPropertyRelatItem$[ebp]
  000cf	8b 50 05	 mov	 edx, DWORD PTR [eax+5]
  000d2	3b 51 04	 cmp	 edx, DWORD PTR [ecx+4]
  000d5	75 06		 jne	 SHORT $LN8@InsertGame

; 373  : 		{
; 374  : 			bFinder = true;

  000d7	c6 45 e7 01	 mov	 BYTE PTR _bFinder$[ebp], 1

; 375  : 			break;

  000db	eb 13		 jmp	 SHORT $LN3@InsertGame
$LN8@InsertGame:

; 376  : 		}
; 377  : 		dwCurrKey++;

  000dd	8b 45 dc	 mov	 eax, DWORD PTR _dwCurrKey$[ebp]
  000e0	83 c0 01	 add	 eax, 1
  000e3	89 45 dc	 mov	 DWORD PTR _dwCurrKey$[ebp], eax

; 378  : 
; 379  : 		if (Position==NULL) break;

  000e6	83 7d d8 00	 cmp	 DWORD PTR _Position$[ebp], 0
  000ea	75 02		 jne	 SHORT $LN9@InsertGame
  000ec	eb 02		 jmp	 SHORT $LN3@InsertGame
$LN9@InsertGame:

; 380  : 	}

  000ee	eb 8a		 jmp	 SHORT $LN2@InsertGame
$LN3@InsertGame:

; 381  : 
; 382  : 	//获取子项
; 383  : 	if (bFinder == false)

  000f0	0f b6 45 e7	 movzx	 eax, BYTE PTR _bFinder$[ebp]
  000f4	85 c0		 test	 eax, eax
  000f6	0f 85 9a 00 00
	00		 jne	 $LN10@InsertGame

; 384  : 	{
; 385  : 		//创建对象
; 386  : 		try

  000fc	c7 45 fc 00 00
	00 00		 mov	 DWORD PTR __$EHRec$[ebp+12], 0

; 387  : 		{
; 388  : 			pPropertyRelatItem=new CGamePropertyRelatItem;

  00103	6a 09		 push	 9
  00105	e8 00 00 00 00	 call	 ??2@YAPAXI@Z		; operator new
  0010a	83 c4 04	 add	 esp, 4
  0010d	89 45 88	 mov	 DWORD PTR tv155[ebp], eax
  00110	8b 45 88	 mov	 eax, DWORD PTR tv155[ebp]
  00113	89 45 90	 mov	 DWORD PTR $T3[ebp], eax
  00116	c6 45 fc 01	 mov	 BYTE PTR __$EHRec$[ebp+12], 1
  0011a	83 7d 90 00	 cmp	 DWORD PTR $T3[ebp], 0
  0011e	74 13		 je	 SHORT $LN16@InsertGame
  00120	8b 4d 90	 mov	 ecx, DWORD PTR $T3[ebp]
  00123	e8 00 00 00 00	 call	 ??0CGamePropertyRelatItem@NGamePropertyListManager@@QAE@XZ ; NGamePropertyListManager::CGamePropertyRelatItem::CGamePropertyRelatItem
  00128	89 45 84	 mov	 DWORD PTR tv158[ebp], eax
  0012b	8b 4d 84	 mov	 ecx, DWORD PTR tv158[ebp]
  0012e	89 4d 80	 mov	 DWORD PTR tv139[ebp], ecx
  00131	eb 07		 jmp	 SHORT $LN17@InsertGame
$LN16@InsertGame:
  00133	c7 45 80 00 00
	00 00		 mov	 DWORD PTR tv139[ebp], 0
$LN17@InsertGame:
  0013a	8b 55 80	 mov	 edx, DWORD PTR tv139[ebp]
  0013d	89 55 94	 mov	 DWORD PTR $T4[ebp], edx
  00140	c6 45 fc 00	 mov	 BYTE PTR __$EHRec$[ebp+12], 0
  00144	8b 45 94	 mov	 eax, DWORD PTR $T4[ebp]
  00147	89 45 e8	 mov	 DWORD PTR _pPropertyRelatItem$[ebp], eax

; 389  : 			if (pPropertyRelatItem==NULL) return false;

  0014a	83 7d e8 00	 cmp	 DWORD PTR _pPropertyRelatItem$[ebp], 0
  0014e	75 04		 jne	 SHORT $LN13@InsertGame
  00150	32 c0		 xor	 al, al
  00152	eb 73		 jmp	 SHORT $LN1@InsertGame
$LN13@InsertGame:

; 390  : 		}

  00154	eb 10		 jmp	 SHORT $LN18@InsertGame
__catch$?InsertGamePropertyRelatItem@CGamePropertyListManager@NGamePropertyListManager@@QAE_NPAUtagPropertyRelatItem@@@Z$0:

; 391  : 		catch (...) { return false; }

  00156	c6 45 8f 00	 mov	 BYTE PTR $T2[ebp], 0
  0015a	b8 00 00 00 00	 mov	 eax, $LN22@InsertGame
  0015f	c3		 ret	 0
  00160	b8 00 00 00 00	 mov	 eax, $LN18@InsertGame
  00165	c3		 ret	 0
$LN18@InsertGame:
  00166	c7 45 fc ff ff
	ff ff		 mov	 DWORD PTR __$EHRec$[ebp+12], -1
  0016d	eb 0c		 jmp	 SHORT $LN21@InsertGame
$LN22@InsertGame:
  0016f	c7 45 fc ff ff
	ff ff		 mov	 DWORD PTR __$EHRec$[ebp+12], -1
  00176	8a 45 8f	 mov	 al, BYTE PTR $T2[ebp]
  00179	eb 4c		 jmp	 SHORT $LN1@InsertGame
$LN21@InsertGame:

; 392  : 
; 393  : 		//设置变量
; 394  : 		ZeroMemory(pPropertyRelatItem,sizeof(CGamePropertyRelatItem));

  0017b	6a 09		 push	 9
  0017d	6a 00		 push	 0
  0017f	8b 45 e8	 mov	 eax, DWORD PTR _pPropertyRelatItem$[ebp]
  00182	50		 push	 eax
  00183	e8 00 00 00 00	 call	 _memset
  00188	83 c4 0c	 add	 esp, 12			; 0000000cH

; 395  : 		dwCurrKey++;

  0018b	8b 45 dc	 mov	 eax, DWORD PTR _dwCurrKey$[ebp]
  0018e	83 c0 01	 add	 eax, 1
  00191	89 45 dc	 mov	 DWORD PTR _dwCurrKey$[ebp], eax

; 396  : 	}
; 397  : 	else

  00194	eb 06		 jmp	 SHORT $LN11@InsertGame
$LN10@InsertGame:

; 398  : 	{
; 399  : 		dwCurrKey = dwkey;

  00196	8b 45 e0	 mov	 eax, DWORD PTR _dwkey$[ebp]
  00199	89 45 dc	 mov	 DWORD PTR _dwCurrKey$[ebp], eax
$LN11@InsertGame:

; 400  : 	}
; 401  : 
; 402  : 	//设置数据
; 403  : 	CopyMemory(&pPropertyRelatItem->m_PropertyRelatItem,ptagPropertyRelatItem,sizeof(tagPropertyRelatItem));

  0019c	6a 08		 push	 8
  0019e	8b 45 08	 mov	 eax, DWORD PTR _ptagPropertyRelatItem$[ebp]
  001a1	50		 push	 eax
  001a2	8b 4d e8	 mov	 ecx, DWORD PTR _pPropertyRelatItem$[ebp]
  001a5	83 c1 01	 add	 ecx, 1
  001a8	51		 push	 ecx
  001a9	e8 00 00 00 00	 call	 _memcpy
  001ae	83 c4 0c	 add	 esp, 12			; 0000000cH

; 404  : 
; 405  : 	//设置索引
; 406  : 	m_GamePropertyRelatItemMap[dwCurrKey]=pPropertyRelatItem;

  001b1	8b 45 dc	 mov	 eax, DWORD PTR _dwCurrKey$[ebp]
  001b4	50		 push	 eax
  001b5	8b 4d ec	 mov	 ecx, DWORD PTR _this$[ebp]
  001b8	83 c1 20	 add	 ecx, 32			; 00000020H
  001bb	e8 00 00 00 00	 call	 ??A?$CMap@KKPAVCGamePropertyRelatItem@NGamePropertyListManager@@AAPAV12@@@QAEAAPAVCGamePropertyRelatItem@NGamePropertyListManager@@K@Z ; CMap<unsigned long,unsigned long,NGamePropertyListManager::CGamePropertyRelatItem *,NGamePropertyListManager::CGamePropertyRelatItem * &>::operator[]
  001c0	8b 4d e8	 mov	 ecx, DWORD PTR _pPropertyRelatItem$[ebp]
  001c3	89 08		 mov	 DWORD PTR [eax], ecx

; 407  : 
; 408  : 	return true;

  001c5	b0 01		 mov	 al, 1
$LN1@InsertGame:

; 409  : }

  001c7	8b 4d f4	 mov	 ecx, DWORD PTR __$EHRec$[ebp+4]
  001ca	64 89 0d 00 00
	00 00		 mov	 DWORD PTR fs:0, ecx
  001d1	59		 pop	 ecx
  001d2	5f		 pop	 edi
  001d3	5e		 pop	 esi
  001d4	5b		 pop	 ebx
  001d5	8b e5		 mov	 esp, ebp
  001d7	5d		 pop	 ebp
  001d8	c2 04 00	 ret	 4
_TEXT	ENDS
;	COMDAT text$x
text$x	SEGMENT
__unwindfunclet$?InsertGamePropertyRelatItem@CGamePropertyListManager@NGamePropertyListManager@@QAE_NPAUtagPropertyRelatItem@@@Z$2:
  00000	6a 09		 push	 9
  00002	8b 45 90	 mov	 eax, DWORD PTR $T3[ebp]
  00005	50		 push	 eax
  00006	e8 00 00 00 00	 call	 ??3@YAXPAXI@Z		; operator delete
  0000b	83 c4 08	 add	 esp, 8
  0000e	c3		 ret	 0
__ehhandler$?InsertGamePropertyRelatItem@CGamePropertyListManager@NGamePropertyListManager@@QAE_NPAUtagPropertyRelatItem@@@Z:
  0000f	8b 54 24 08	 mov	 edx, DWORD PTR [esp+8]
  00013	8d 42 0c	 lea	 eax, DWORD PTR [edx+12]
  00016	8b 8a 7c ff ff
	ff		 mov	 ecx, DWORD PTR [edx-132]
  0001c	33 c8		 xor	 ecx, eax
  0001e	e8 00 00 00 00	 call	 @__security_check_cookie@4
  00023	b8 00 00 00 00	 mov	 eax, OFFSET __ehfuncinfo$?InsertGamePropertyRelatItem@CGamePropertyListManager@NGamePropertyListManager@@QAE_NPAUtagPropertyRelatItem@@@Z
  00028	e9 00 00 00 00	 jmp	 ___CxxFrameHandler3
text$x	ENDS
?InsertGamePropertyRelatItem@CGamePropertyListManager@NGamePropertyListManager@@QAE_NPAUtagPropertyRelatItem@@@Z ENDP ; NGamePropertyListManager::CGamePropertyListManager::InsertGamePropertyRelatItem
; Function compile flags: /Odtp /ZI
; File g:\网狐\happygamewh\服务端\系统模块\服务器组件\登录服务器\gamepropertylistmanager.cpp
;	COMDAT ?InsertGamePropertyTypeItem@CGamePropertyListManager@NGamePropertyListManager@@QAE_NPAUtagPropertyTypeItem@@@Z
_TEXT	SEGMENT
tv136 = -116						; size = 4
tv157 = -112						; size = 4
tv154 = -108						; size = 4
tv153 = -108						; size = 4
tv152 = -108						; size = 4
$T2 = -101						; size = 1
$T3 = -100						; size = 4
$T4 = -96						; size = 4
_nStroeCount$5 = -28					; size = 4
_pGamePropertyTypeItem$ = -24				; size = 4
_this$ = -20						; size = 4
__$EHRec$ = -16						; size = 16
_ptagPropertyTypeItem$ = 8				; size = 4
?InsertGamePropertyTypeItem@CGamePropertyListManager@NGamePropertyListManager@@QAE_NPAUtagPropertyTypeItem@@@Z PROC ; NGamePropertyListManager::CGamePropertyListManager::InsertGamePropertyTypeItem, COMDAT
; _this$ = ecx

; 311  : {

  00000	55		 push	 ebp
  00001	8b ec		 mov	 ebp, esp
  00003	6a ff		 push	 -1
  00005	68 00 00 00 00	 push	 __ehhandler$?InsertGamePropertyTypeItem@CGamePropertyListManager@NGamePropertyListManager@@QAE_NPAUtagPropertyTypeItem@@@Z
  0000a	64 a1 00 00 00
	00		 mov	 eax, DWORD PTR fs:0
  00010	50		 push	 eax
  00011	51		 push	 ecx
  00012	83 ec 64	 sub	 esp, 100		; 00000064H
  00015	53		 push	 ebx
  00016	56		 push	 esi
  00017	57		 push	 edi
  00018	a1 00 00 00 00	 mov	 eax, DWORD PTR ___security_cookie
  0001d	33 c5		 xor	 eax, ebp
  0001f	50		 push	 eax
  00020	8d 45 f4	 lea	 eax, DWORD PTR __$EHRec$[ebp+4]
  00023	64 a3 00 00 00
	00		 mov	 DWORD PTR fs:0, eax
  00029	89 65 f0	 mov	 DWORD PTR __$EHRec$[ebp], esp
  0002c	89 4d ec	 mov	 DWORD PTR _this$[ebp], ecx

; 312  : 	//效验参数
; 313  : 	ASSERT(ptagPropertyTypeItem!=NULL);

  0002f	83 7d 08 00	 cmp	 DWORD PTR _ptagPropertyTypeItem$[ebp], 0
  00033	75 18		 jne	 SHORT $LN9@InsertGame
  00035	a1 00 00 00 00	 mov	 eax, DWORD PTR ?__LINE__Var@?0??InsertGamePropertyTypeItem@CGamePropertyListManager@NGamePropertyListManager@@QAE_NPAUtagPropertyTypeItem@@@Z@4JA
  0003a	83 c0 02	 add	 eax, 2
  0003d	50		 push	 eax
  0003e	68 00 00 00 00	 push	 OFFSET ??_C@_0FG@GCELCLHM@g?3?2?M?x?$LK?$PM?2happygamewh?2?$LH?$PO?N?q?$LG?K?2?O?$LF?M?$LD@
  00043	e8 00 00 00 00	 call	 ?AfxAssertFailedLine@@YGHPBDH@Z ; AfxAssertFailedLine
  00048	85 c0		 test	 eax, eax
  0004a	74 01		 je	 SHORT $LN9@InsertGame
  0004c	cc		 int	 3
$LN9@InsertGame:

; 314  : 	if (ptagPropertyTypeItem==NULL) return false;

  0004d	83 7d 08 00	 cmp	 DWORD PTR _ptagPropertyTypeItem$[ebp], 0
  00051	75 07		 jne	 SHORT $LN2@InsertGame
  00053	32 c0		 xor	 al, al
  00055	e9 2d 01 00 00	 jmp	 $LN1@InsertGame
$LN2@InsertGame:

; 315  : 
; 316  : 	//查找现存
; 317  : 	CGamePropertyTypeItem * pGamePropertyTypeItem=NULL;

  0005a	c7 45 e8 00 00
	00 00		 mov	 DWORD PTR _pGamePropertyTypeItem$[ebp], 0

; 318  : 	if (m_GamePropertyTypeItemMap.Lookup(ptagPropertyTypeItem->dwTypeID,pGamePropertyTypeItem)==FALSE)

  00061	8d 45 e8	 lea	 eax, DWORD PTR _pGamePropertyTypeItem$[ebp]
  00064	50		 push	 eax
  00065	8b 4d 08	 mov	 ecx, DWORD PTR _ptagPropertyTypeItem$[ebp]
  00068	8b 11		 mov	 edx, DWORD PTR [ecx]
  0006a	52		 push	 edx
  0006b	8b 4d ec	 mov	 ecx, DWORD PTR _this$[ebp]
  0006e	83 c1 04	 add	 ecx, 4
  00071	e8 00 00 00 00	 call	 ?Lookup@?$CMap@KKPAVCGamePropertyTypeItem@NGamePropertyListManager@@AAPAV12@@@QBEHKAAPAVCGamePropertyTypeItem@NGamePropertyListManager@@@Z ; CMap<unsigned long,unsigned long,NGamePropertyListManager::CGamePropertyTypeItem *,NGamePropertyListManager::CGamePropertyTypeItem * &>::Lookup
  00076	85 c0		 test	 eax, eax
  00078	0f 85 dc 00 00
	00		 jne	 $LN3@InsertGame

; 319  : 	{
; 320  : 		//创建对象
; 321  : 		try

  0007e	c7 45 fc 00 00
	00 00		 mov	 DWORD PTR __$EHRec$[ebp+12], 0

; 322  : 		{
; 323  : 			INT_PTR nStroeCount=m_GamePropertyTypeItemArray.GetCount();

  00085	8b 4d ec	 mov	 ecx, DWORD PTR _this$[ebp]
  00088	83 c1 74	 add	 ecx, 116		; 00000074H
  0008b	e8 00 00 00 00	 call	 ?GetCount@?$CWHArray@PAVCGamePropertyTypeItem@NGamePropertyListManager@@ABQAV12@@@QBEHXZ ; CWHArray<NGamePropertyListManager::CGamePropertyTypeItem *,NGamePropertyListManager::CGamePropertyTypeItem * const &>::GetCount
  00090	89 45 94	 mov	 DWORD PTR tv152[ebp], eax
  00093	8b 45 94	 mov	 eax, DWORD PTR tv152[ebp]
  00096	89 45 e4	 mov	 DWORD PTR _nStroeCount$5[ebp], eax

; 324  : 			if (nStroeCount>0)

  00099	83 7d e4 00	 cmp	 DWORD PTR _nStroeCount$5[ebp], 0
  0009d	7e 33		 jle	 SHORT $LN5@InsertGame

; 325  : 			{
; 326  : 				pGamePropertyTypeItem=m_GamePropertyTypeItemArray[nStroeCount-1];

  0009f	8b 45 e4	 mov	 eax, DWORD PTR _nStroeCount$5[ebp]
  000a2	83 e8 01	 sub	 eax, 1
  000a5	50		 push	 eax
  000a6	8b 4d ec	 mov	 ecx, DWORD PTR _this$[ebp]
  000a9	83 c1 74	 add	 ecx, 116		; 00000074H
  000ac	e8 00 00 00 00	 call	 ??A?$CWHArray@PAVCGamePropertyTypeItem@NGamePropertyListManager@@ABQAV12@@@QAEAAPAVCGamePropertyTypeItem@NGamePropertyListManager@@H@Z ; CWHArray<NGamePropertyListManager::CGamePropertyTypeItem *,NGamePropertyListManager::CGamePropertyTypeItem * const &>::operator[]
  000b1	89 45 94	 mov	 DWORD PTR tv153[ebp], eax
  000b4	8b 4d 94	 mov	 ecx, DWORD PTR tv153[ebp]
  000b7	8b 11		 mov	 edx, DWORD PTR [ecx]
  000b9	89 55 e8	 mov	 DWORD PTR _pGamePropertyTypeItem$[ebp], edx

; 327  : 				m_GamePropertyTypeItemArray.RemoveAt(nStroeCount-1);

  000bc	6a 01		 push	 1
  000be	8b 45 e4	 mov	 eax, DWORD PTR _nStroeCount$5[ebp]
  000c1	83 e8 01	 sub	 eax, 1
  000c4	50		 push	 eax
  000c5	8b 4d ec	 mov	 ecx, DWORD PTR _this$[ebp]
  000c8	83 c1 74	 add	 ecx, 116		; 00000074H
  000cb	e8 00 00 00 00	 call	 ?RemoveAt@?$CWHArray@PAVCGamePropertyTypeItem@NGamePropertyListManager@@ABQAV12@@@QAEXHH@Z ; CWHArray<NGamePropertyListManager::CGamePropertyTypeItem *,NGamePropertyListManager::CGamePropertyTypeItem * const &>::RemoveAt

; 328  : 			}
; 329  : 			else

  000d0	eb 51		 jmp	 SHORT $LN6@InsertGame
$LN5@InsertGame:

; 330  : 			{
; 331  : 				pGamePropertyTypeItem=new CGamePropertyTypeItem;

  000d2	6a 29		 push	 41			; 00000029H
  000d4	e8 00 00 00 00	 call	 ??2@YAPAXI@Z		; operator new
  000d9	83 c4 04	 add	 esp, 4
  000dc	89 45 94	 mov	 DWORD PTR tv154[ebp], eax
  000df	8b 45 94	 mov	 eax, DWORD PTR tv154[ebp]
  000e2	89 45 9c	 mov	 DWORD PTR $T3[ebp], eax
  000e5	c6 45 fc 01	 mov	 BYTE PTR __$EHRec$[ebp+12], 1
  000e9	83 7d 9c 00	 cmp	 DWORD PTR $T3[ebp], 0
  000ed	74 13		 je	 SHORT $LN10@InsertGame
  000ef	8b 4d 9c	 mov	 ecx, DWORD PTR $T3[ebp]
  000f2	e8 00 00 00 00	 call	 ??0CGamePropertyTypeItem@NGamePropertyListManager@@QAE@XZ ; NGamePropertyListManager::CGamePropertyTypeItem::CGamePropertyTypeItem
  000f7	89 45 90	 mov	 DWORD PTR tv157[ebp], eax
  000fa	8b 4d 90	 mov	 ecx, DWORD PTR tv157[ebp]
  000fd	89 4d 8c	 mov	 DWORD PTR tv136[ebp], ecx
  00100	eb 07		 jmp	 SHORT $LN11@InsertGame
$LN10@InsertGame:
  00102	c7 45 8c 00 00
	00 00		 mov	 DWORD PTR tv136[ebp], 0
$LN11@InsertGame:
  00109	8b 55 8c	 mov	 edx, DWORD PTR tv136[ebp]
  0010c	89 55 a0	 mov	 DWORD PTR $T4[ebp], edx
  0010f	c6 45 fc 00	 mov	 BYTE PTR __$EHRec$[ebp+12], 0
  00113	8b 45 a0	 mov	 eax, DWORD PTR $T4[ebp]
  00116	89 45 e8	 mov	 DWORD PTR _pGamePropertyTypeItem$[ebp], eax

; 332  : 				if (pGamePropertyTypeItem==NULL) return false;

  00119	83 7d e8 00	 cmp	 DWORD PTR _pGamePropertyTypeItem$[ebp], 0
  0011d	75 04		 jne	 SHORT $LN6@InsertGame
  0011f	32 c0		 xor	 al, al
  00121	eb 64		 jmp	 SHORT $LN1@InsertGame
$LN6@InsertGame:

; 333  : 			}
; 334  : 		}

  00123	eb 10		 jmp	 SHORT $LN12@InsertGame
__catch$?InsertGamePropertyTypeItem@CGamePropertyListManager@NGamePropertyListManager@@QAE_NPAUtagPropertyTypeItem@@@Z$0:

; 335  : 		catch (...) { return false; }

  00125	c6 45 9b 00	 mov	 BYTE PTR $T2[ebp], 0
  00129	b8 00 00 00 00	 mov	 eax, $LN16@InsertGame
  0012e	c3		 ret	 0
  0012f	b8 00 00 00 00	 mov	 eax, $LN12@InsertGame
  00134	c3		 ret	 0
$LN12@InsertGame:
  00135	c7 45 fc ff ff
	ff ff		 mov	 DWORD PTR __$EHRec$[ebp+12], -1
  0013c	eb 0c		 jmp	 SHORT $LN15@InsertGame
$LN16@InsertGame:
  0013e	c7 45 fc ff ff
	ff ff		 mov	 DWORD PTR __$EHRec$[ebp+12], -1
  00145	8a 45 9b	 mov	 al, BYTE PTR $T2[ebp]
  00148	eb 3d		 jmp	 SHORT $LN1@InsertGame
$LN15@InsertGame:

; 336  : 
; 337  : 		//设置变量
; 338  : 		ZeroMemory(pGamePropertyTypeItem,sizeof(CGamePropertyTypeItem));

  0014a	6a 29		 push	 41			; 00000029H
  0014c	6a 00		 push	 0
  0014e	8b 45 e8	 mov	 eax, DWORD PTR _pGamePropertyTypeItem$[ebp]
  00151	50		 push	 eax
  00152	e8 00 00 00 00	 call	 _memset
  00157	83 c4 0c	 add	 esp, 12			; 0000000cH
$LN3@InsertGame:

; 339  : 	}
; 340  : 
; 341  : 	//设置数据
; 342  : 	CopyMemory(&pGamePropertyTypeItem->m_PropertyTypeItem,ptagPropertyTypeItem,sizeof(tagPropertyTypeItem));

  0015a	6a 28		 push	 40			; 00000028H
  0015c	8b 45 08	 mov	 eax, DWORD PTR _ptagPropertyTypeItem$[ebp]
  0015f	50		 push	 eax
  00160	8b 4d e8	 mov	 ecx, DWORD PTR _pGamePropertyTypeItem$[ebp]
  00163	83 c1 01	 add	 ecx, 1
  00166	51		 push	 ecx
  00167	e8 00 00 00 00	 call	 _memcpy
  0016c	83 c4 0c	 add	 esp, 12			; 0000000cH

; 343  : 
; 344  : 	//设置索引
; 345  : 	m_GamePropertyTypeItemMap[ptagPropertyTypeItem->dwTypeID]=pGamePropertyTypeItem;

  0016f	8b 45 08	 mov	 eax, DWORD PTR _ptagPropertyTypeItem$[ebp]
  00172	8b 08		 mov	 ecx, DWORD PTR [eax]
  00174	51		 push	 ecx
  00175	8b 4d ec	 mov	 ecx, DWORD PTR _this$[ebp]
  00178	83 c1 04	 add	 ecx, 4
  0017b	e8 00 00 00 00	 call	 ??A?$CMap@KKPAVCGamePropertyTypeItem@NGamePropertyListManager@@AAPAV12@@@QAEAAPAVCGamePropertyTypeItem@NGamePropertyListManager@@K@Z ; CMap<unsigned long,unsigned long,NGamePropertyListManager::CGamePropertyTypeItem *,NGamePropertyListManager::CGamePropertyTypeItem * &>::operator[]
  00180	8b 55 e8	 mov	 edx, DWORD PTR _pGamePropertyTypeItem$[ebp]
  00183	89 10		 mov	 DWORD PTR [eax], edx

; 346  : 
; 347  : 	return true;

  00185	b0 01		 mov	 al, 1
$LN1@InsertGame:

; 348  : }

  00187	8b 4d f4	 mov	 ecx, DWORD PTR __$EHRec$[ebp+4]
  0018a	64 89 0d 00 00
	00 00		 mov	 DWORD PTR fs:0, ecx
  00191	59		 pop	 ecx
  00192	5f		 pop	 edi
  00193	5e		 pop	 esi
  00194	5b		 pop	 ebx
  00195	8b e5		 mov	 esp, ebp
  00197	5d		 pop	 ebp
  00198	c2 04 00	 ret	 4
_TEXT	ENDS
;	COMDAT text$x
text$x	SEGMENT
__unwindfunclet$?InsertGamePropertyTypeItem@CGamePropertyListManager@NGamePropertyListManager@@QAE_NPAUtagPropertyTypeItem@@@Z$2:
  00000	6a 29		 push	 41			; 00000029H
  00002	8b 45 9c	 mov	 eax, DWORD PTR $T3[ebp]
  00005	50		 push	 eax
  00006	e8 00 00 00 00	 call	 ??3@YAXPAXI@Z		; operator delete
  0000b	83 c4 08	 add	 esp, 8
  0000e	c3		 ret	 0
__ehhandler$?InsertGamePropertyTypeItem@CGamePropertyListManager@NGamePropertyListManager@@QAE_NPAUtagPropertyTypeItem@@@Z:
  0000f	8b 54 24 08	 mov	 edx, DWORD PTR [esp+8]
  00013	8d 42 0c	 lea	 eax, DWORD PTR [edx+12]
  00016	8b 4a 88	 mov	 ecx, DWORD PTR [edx-120]
  00019	33 c8		 xor	 ecx, eax
  0001b	e8 00 00 00 00	 call	 @__security_check_cookie@4
