; Listing generated by Microsoft (R) Optimizing Compiler Version 19.16.27032.1 

	TITLE	G:\网狐\HappyGameWH\服务端\系统模块\服务器组件\登录服务器\InitParameter.cpp
	.686P
	.XMM
	include listing.inc
	.model	flat

INCLUDELIB MSVCRTD
INCLUDELIB OLDNAMES

CONST	SEGMENT
?szPlatformDB@@3QBDB DB 'QPPlatformDB', 00H		; szPlatformDB
	ORG $+3
?szAccountsDB@@3QBDB DB 'QPAccountsDB', 00H		; szAccountsDB
	ORG $+3
?szTreasureDB@@3QBDB DB 'QPTreasureDB', 00H		; szTreasureDB
CONST	ENDS
PUBLIC	?__empty_global_delete@@YAXPAX@Z		; __empty_global_delete
PUBLIC	?__empty_global_delete@@YAXPAXI@Z		; __empty_global_delete
PUBLIC	___local_stdio_printf_options
PUBLIC	__vsnprintf_s_l
PUBLIC	__vsnprintf_s
PUBLIC	??0CInitParameter@@QAE@XZ			; CInitParameter::CInitParameter
PUBLIC	??1CInitParameter@@UAE@XZ			; CInitParameter::~CInitParameter
PUBLIC	?InitParameter@CInitParameter@@QAEXXZ		; CInitParameter::InitParameter
PUBLIC	?LoadInitParameter@CInitParameter@@QAEXXZ	; CInitParameter::LoadInitParameter
PUBLIC	?SaveInitParameter@CInitParameter@@QAE_NXZ	; CInitParameter::SaveInitParameter
PUBLIC	??_GCInitParameter@@UAEPAXI@Z			; CInitParameter::`scalar deleting destructor'
PUBLIC	??$_snprintf_s@$0BAE@@@YAHAAY0BAE@DIPBDZZ	; _snprintf_s<260>
PUBLIC	?_OptionsStorage@?1??__local_stdio_printf_options@@9@4_KA ; `__local_stdio_printf_options'::`2'::_OptionsStorage
PUBLIC	??_C@_00CNPNBAHC@@				; `string'
PUBLIC	??_7CInitParameter@@6B@				; CInitParameter::`vftable'
PUBLIC	??_C@_0BH@GFNFOOOG@?$CFs?2ServerParameter?4ini@	; `string'
PUBLIC	??_C@_09NNLBDNCO@DelayList@			; `string'
PUBLIC	??_C@_0M@NDLIHBHJ@LogonServer@			; `string'
PUBLIC	??_C@_0L@DGMPAMAP@ConnectMax@			; `string'
PUBLIC	??_C@_0M@PFPKDPLP@ServicePort@			; `string'
PUBLIC	??_C@_0M@IOFGKGDC@ServiceName@			; `string'
PUBLIC	??_C@_0L@EJMBPMDM@ServerInfo@			; `string'
PUBLIC	??_C@_0M@DBIKHOMI@ServiceAddr@			; `string'
PUBLIC	??_C@_0L@EGGJEAIA@Correspond@			; `string'
PUBLIC	??_C@_0P@DFEDGGJF@CorrespondAddr@		; `string'
PUBLIC	??_C@_0BC@EOLDOHEI@PrsnlRmCorrespond@		; `string'
PUBLIC	??_C@_0BG@CPIBEODO@PrsnlRmCorrespondAddr@	; `string'
PUBLIC	??_C@_06NHDHPCNO@DBPort@			; `string'
PUBLIC	??_C@_0L@JJOBOIHJ@AccountsDB@			; `string'
PUBLIC	??_C@_06BDEHLDKJ@DBAddr@			; `string'
PUBLIC	??_C@_06EKCLIHPK@DBUser@			; `string'
PUBLIC	??_C@_06HJGLHJBN@DBPass@			; `string'
PUBLIC	??_C@_06KMJLGLFD@DBName@			; `string'
PUBLIC	??_C@_0L@BIEPDLBP@TreasureDB@			; `string'
PUBLIC	??_C@_0L@KKFJCNPO@PlatformDB@			; `string'
PUBLIC	??_C@_0BP@GAOBEHJN@?N?$LE?U?R?$LF?$LNServerParameter?4ini?N?D?$LM?$PO?$CB@ ; `string'
PUBLIC	??_C@_09PFCHIMEP@127?40?40?41@			; `string'
PUBLIC	??_C@_02CKOPKKAC@sa@				; `string'
PUBLIC	??_C@_06PPNIIDOF@people@			; `string'
PUBLIC	??_R4CInitParameter@@6B@			; CInitParameter::`RTTI Complete Object Locator'
PUBLIC	??_R0?AVCInitParameter@@@8			; CInitParameter `RTTI Type Descriptor'
PUBLIC	??_R3CInitParameter@@8				; CInitParameter::`RTTI Class Hierarchy Descriptor'
PUBLIC	??_R2CInitParameter@@8				; CInitParameter::`RTTI Base Class Array'
PUBLIC	??_R1A@?0A@EA@CInitParameter@@8			; CInitParameter::`RTTI Base Class Descriptor at (0,-1,0,64)'
EXTRN	??3@YAXPAXI@Z:PROC				; operator delete
EXTRN	_memset:PROC
EXTRN	__imp____stdio_common_vsnprintf_s:PROC
EXTRN	__imp__PathFileExistsA@4:PROC
EXTRN	__imp_?GetWorkDirectory@CWHService@@SA_NQADG@Z:PROC
EXTRN	__imp_??0CWHIniData@@QAE@XZ:PROC
EXTRN	__imp_??1CWHIniData@@UAE@XZ:PROC
EXTRN	__imp_?SetIniFilePath@CWHIniData@@QAEXPBD@Z:PROC
EXTRN	__imp_?ReadInt@CWHIniData@@QAEIPBD0H@Z:PROC
EXTRN	__imp_?ReadEncryptString@CWHIniData@@QAEPBDPBD00PADG@Z:PROC
EXTRN	__imp_?WriteInt@CWHIniData@@QAE_NPBD0H@Z:PROC
EXTRN	__imp_?WriteEncryptString@CWHIniData@@QAE_NPBD00@Z:PROC
EXTRN	__imp_?TraceString@CTraceService@@SA_NPBDW4enTraceLevel@@@Z:PROC
EXTRN	??_ECInitParameter@@UAEPAXI@Z:PROC		; CInitParameter::`vector deleting destructor'
EXTRN	@__security_check_cookie@4:PROC
EXTRN	___CxxFrameHandler3:PROC
EXTRN	_memset:PROC
EXTRN	??_7type_info@@6B@:QWORD			; type_info::`vftable'
EXTRN	___security_cookie:DWORD
;	COMDAT ?_OptionsStorage@?1??__local_stdio_printf_options@@9@4_KA
_BSS	SEGMENT
?_OptionsStorage@?1??__local_stdio_printf_options@@9@4_KA DQ 01H DUP (?) ; `__local_stdio_printf_options'::`2'::_OptionsStorage
_BSS	ENDS
;	COMDAT ??_R1A@?0A@EA@CInitParameter@@8
rdata$r	SEGMENT
??_R1A@?0A@EA@CInitParameter@@8 DD FLAT:??_R0?AVCInitParameter@@@8 ; CInitParameter::`RTTI Base Class Descriptor at (0,-1,0,64)'
	DD	00H
	DD	00H
	DD	0ffffffffH
	DD	00H
	DD	040H
	DD	FLAT:??_R3CInitParameter@@8
rdata$r	ENDS
;	COMDAT ??_R2CInitParameter@@8
rdata$r	SEGMENT
??_R2CInitParameter@@8 DD FLAT:??_R1A@?0A@EA@CInitParameter@@8 ; CInitParameter::`RTTI Base Class Array'
rdata$r	ENDS
;	COMDAT ??_R3CInitParameter@@8
rdata$r	SEGMENT
??_R3CInitParameter@@8 DD 00H				; CInitParameter::`RTTI Class Hierarchy Descriptor'
	DD	00H
	DD	01H
	DD	FLAT:??_R2CInitParameter@@8
rdata$r	ENDS
;	COMDAT ??_R0?AVCInitParameter@@@8
data$r	SEGMENT
??_R0?AVCInitParameter@@@8 DD FLAT:??_7type_info@@6B@	; CInitParameter `RTTI Type Descriptor'
	DD	00H
	DB	'.?AVCInitParameter@@', 00H
data$r	ENDS
;	COMDAT ??_R4CInitParameter@@6B@
rdata$r	SEGMENT
??_R4CInitParameter@@6B@ DD 00H				; CInitParameter::`RTTI Complete Object Locator'
	DD	00H
	DD	00H
	DD	FLAT:??_R0?AVCInitParameter@@@8
	DD	FLAT:??_R3CInitParameter@@8
rdata$r	ENDS
;	COMDAT ??_C@_06PPNIIDOF@people@
CONST	SEGMENT
??_C@_06PPNIIDOF@people@ DB 'people', 00H		; `string'
CONST	ENDS
;	COMDAT ??_C@_02CKOPKKAC@sa@
CONST	SEGMENT
??_C@_02CKOPKKAC@sa@ DB 'sa', 00H			; `string'
CONST	ENDS
;	COMDAT ??_C@_09PFCHIMEP@127?40?40?41@
CONST	SEGMENT
??_C@_09PFCHIMEP@127?40?40?41@ DB '127.0.0.1', 00H	; `string'
CONST	ENDS
;	COMDAT ??_C@_0BP@GAOBEHJN@?N?$LE?U?R?$LF?$LNServerParameter?4ini?N?D?$LM?$PO?$CB@
CONST	SEGMENT
??_C@_0BP@GAOBEHJN@?N?$LE?U?R?$LF?$LNServerParameter?4ini?N?D?$LM?$PO?$CB@ DB 0ceH
	DB	0b4H, 0d5H, 0d2H, 0b5H, 0bdH, 'ServerParameter.ini', 0ceH, 0c4H
	DB	0bcH, 0feH, '!', 00H				; `string'
CONST	ENDS
;	COMDAT ??_C@_0L@KKFJCNPO@PlatformDB@
CONST	SEGMENT
??_C@_0L@KKFJCNPO@PlatformDB@ DB 'PlatformDB', 00H	; `string'
CONST	ENDS
;	COMDAT ??_C@_0L@BIEPDLBP@TreasureDB@
CONST	SEGMENT
??_C@_0L@BIEPDLBP@TreasureDB@ DB 'TreasureDB', 00H	; `string'
CONST	ENDS
;	COMDAT ??_C@_06KMJLGLFD@DBName@
CONST	SEGMENT
??_C@_06KMJLGLFD@DBName@ DB 'DBName', 00H		; `string'
CONST	ENDS
;	COMDAT ??_C@_06HJGLHJBN@DBPass@
CONST	SEGMENT
??_C@_06HJGLHJBN@DBPass@ DB 'DBPass', 00H		; `string'
CONST	ENDS
;	COMDAT ??_C@_06EKCLIHPK@DBUser@
CONST	SEGMENT
??_C@_06EKCLIHPK@DBUser@ DB 'DBUser', 00H		; `string'
CONST	ENDS
;	COMDAT ??_C@_06BDEHLDKJ@DBAddr@
CONST	SEGMENT
??_C@_06BDEHLDKJ@DBAddr@ DB 'DBAddr', 00H		; `string'
CONST	ENDS
;	COMDAT ??_C@_0L@JJOBOIHJ@AccountsDB@
CONST	SEGMENT
??_C@_0L@JJOBOIHJ@AccountsDB@ DB 'AccountsDB', 00H	; `string'
CONST	ENDS
;	COMDAT ??_C@_06NHDHPCNO@DBPort@
CONST	SEGMENT
??_C@_06NHDHPCNO@DBPort@ DB 'DBPort', 00H		; `string'
CONST	ENDS
;	COMDAT ??_C@_0BG@CPIBEODO@PrsnlRmCorrespondAddr@
CONST	SEGMENT
??_C@_0BG@CPIBEODO@PrsnlRmCorrespondAddr@ DB 'PrsnlRmCorrespondAddr', 00H ; `string'
CONST	ENDS
;	COMDAT ??_C@_0BC@EOLDOHEI@PrsnlRmCorrespond@
CONST	SEGMENT
??_C@_0BC@EOLDOHEI@PrsnlRmCorrespond@ DB 'PrsnlRmCorrespond', 00H ; `string'
CONST	ENDS
;	COMDAT ??_C@_0P@DFEDGGJF@CorrespondAddr@
CONST	SEGMENT
??_C@_0P@DFEDGGJF@CorrespondAddr@ DB 'CorrespondAddr', 00H ; `string'
CONST	ENDS
;	COMDAT ??_C@_0L@EGGJEAIA@Correspond@
CONST	SEGMENT
??_C@_0L@EGGJEAIA@Correspond@ DB 'Correspond', 00H	; `string'
CONST	ENDS
;	COMDAT ??_C@_0M@DBIKHOMI@ServiceAddr@
CONST	SEGMENT
??_C@_0M@DBIKHOMI@ServiceAddr@ DB 'ServiceAddr', 00H	; `string'
CONST	ENDS
;	COMDAT ??_C@_0L@EJMBPMDM@ServerInfo@
CONST	SEGMENT
??_C@_0L@EJMBPMDM@ServerInfo@ DB 'ServerInfo', 00H	; `string'
CONST	ENDS
;	COMDAT ??_C@_0M@IOFGKGDC@ServiceName@
CONST	SEGMENT
??_C@_0M@IOFGKGDC@ServiceName@ DB 'ServiceName', 00H	; `string'
CONST	ENDS
;	COMDAT ??_C@_0M@PFPKDPLP@ServicePort@
CONST	SEGMENT
??_C@_0M@PFPKDPLP@ServicePort@ DB 'ServicePort', 00H	; `string'
CONST	ENDS
;	COMDAT ??_C@_0L@DGMPAMAP@ConnectMax@
CONST	SEGMENT
??_C@_0L@DGMPAMAP@ConnectMax@ DB 'ConnectMax', 00H	; `string'
CONST	ENDS
;	COMDAT ??_C@_0M@NDLIHBHJ@LogonServer@
CONST	SEGMENT
??_C@_0M@NDLIHBHJ@LogonServer@ DB 'LogonServer', 00H	; `string'
CONST	ENDS
;	COMDAT ??_C@_09NNLBDNCO@DelayList@
CONST	SEGMENT
??_C@_09NNLBDNCO@DelayList@ DB 'DelayList', 00H		; `string'
CONST	ENDS
;	COMDAT ??_C@_0BH@GFNFOOOG@?$CFs?2ServerParameter?4ini@
CONST	SEGMENT
??_C@_0BH@GFNFOOOG@?$CFs?2ServerParameter?4ini@ DB '%s\ServerParameter.in'
	DB	'i', 00H					; `string'
CONST	ENDS
;	COMDAT ??_7CInitParameter@@6B@
CONST	SEGMENT
??_7CInitParameter@@6B@ DD FLAT:??_R4CInitParameter@@6B@ ; CInitParameter::`vftable'
	DD	FLAT:??_ECInitParameter@@UAEPAXI@Z
CONST	ENDS
;	COMDAT ??_C@_00CNPNBAHC@@
CONST	SEGMENT
??_C@_00CNPNBAHC@@ DB 00H				; `string'
CONST	ENDS
;	COMDAT xdata$x
xdata$x	SEGMENT
__unwindtable$?SaveInitParameter@CInitParameter@@QAE_NXZ DD 0ffffffffH
	DD	FLAT:__unwindfunclet$?SaveInitParameter@CInitParameter@@QAE_NXZ$0
__ehfuncinfo$?SaveInitParameter@CInitParameter@@QAE_NXZ DD 019930522H
	DD	01H
	DD	FLAT:__unwindtable$?SaveInitParameter@CInitParameter@@QAE_NXZ
	DD	2 DUP(00H)
	DD	2 DUP(00H)
	DD	00H
	DD	01H
xdata$x	ENDS
;	COMDAT xdata$x
xdata$x	SEGMENT
__unwindtable$?LoadInitParameter@CInitParameter@@QAEXXZ DD 0ffffffffH
	DD	FLAT:__unwindfunclet$?LoadInitParameter@CInitParameter@@QAEXXZ$0
__ehfuncinfo$?LoadInitParameter@CInitParameter@@QAEXXZ DD 019930522H
	DD	01H
	DD	FLAT:__unwindtable$?LoadInitParameter@CInitParameter@@QAEXXZ
	DD	2 DUP(00H)
	DD	2 DUP(00H)
	DD	00H
	DD	01H
xdata$x	ENDS
; Function compile flags: /Odtp /ZI
; File c:\program files (x86)\windows kits\10\include\10.0.17763.0\ucrt\stdio.h
;	COMDAT ??$_snprintf_s@$0BAE@@@YAHAAY0BAE@DIPBDZZ
_TEXT	SEGMENT
__ArgList$ = -4						; size = 4
__Buffer$ = 8						; size = 4
__BufferCount$ = 12					; size = 4
__Format$ = 16						; size = 4
??$_snprintf_s@$0BAE@@@YAHAAY0BAE@DIPBDZZ PROC		; _snprintf_s<260>, COMDAT

; 2079 :         )

  00000	55		 push	 ebp
  00001	8b ec		 mov	 ebp, esp
  00003	83 ec 48	 sub	 esp, 72			; 00000048H
  00006	53		 push	 ebx
  00007	56		 push	 esi
  00008	57		 push	 edi

; 2073 :     __DEFINE_CPP_OVERLOAD_SECURE_FUNC_0_2_ARGLIST(

  00009	8d 45 14	 lea	 eax, DWORD PTR __Format$[ebp+4]
  0000c	89 45 fc	 mov	 DWORD PTR __ArgList$[ebp], eax
  0000f	8b 45 fc	 mov	 eax, DWORD PTR __ArgList$[ebp]
  00012	50		 push	 eax
  00013	8b 4d 10	 mov	 ecx, DWORD PTR __Format$[ebp]
  00016	51		 push	 ecx
  00017	8b 55 0c	 mov	 edx, DWORD PTR __BufferCount$[ebp]
  0001a	52		 push	 edx
  0001b	68 04 01 00 00	 push	 260			; 00000104H
  00020	8b 45 08	 mov	 eax, DWORD PTR __Buffer$[ebp]
  00023	50		 push	 eax
  00024	e8 00 00 00 00	 call	 __vsnprintf_s
  00029	83 c4 14	 add	 esp, 20			; 00000014H
  0002c	5f		 pop	 edi
  0002d	5e		 pop	 esi
  0002e	5b		 pop	 ebx
  0002f	8b e5		 mov	 esp, ebp
  00031	5d		 pop	 ebp
  00032	c3		 ret	 0
??$_snprintf_s@$0BAE@@@YAHAAY0BAE@DIPBDZZ ENDP		; _snprintf_s<260>
_TEXT	ENDS
; Function compile flags: /Odtp /ZI
;	COMDAT ??_GCInitParameter@@UAEPAXI@Z
_TEXT	SEGMENT
_this$ = -4						; size = 4
___flags$ = 8						; size = 4
??_GCInitParameter@@UAEPAXI@Z PROC			; CInitParameter::`scalar deleting destructor', COMDAT
; _this$ = ecx
  00000	55		 push	 ebp
  00001	8b ec		 mov	 ebp, esp
  00003	83 ec 44	 sub	 esp, 68			; 00000044H
  00006	53		 push	 ebx
  00007	56		 push	 esi
  00008	57		 push	 edi
  00009	89 4d fc	 mov	 DWORD PTR _this$[ebp], ecx
  0000c	8b 4d fc	 mov	 ecx, DWORD PTR _this$[ebp]
  0000f	e8 00 00 00 00	 call	 ??1CInitParameter@@UAE@XZ ; CInitParameter::~CInitParameter
  00014	8b 45 08	 mov	 eax, DWORD PTR ___flags$[ebp]
  00017	83 e0 01	 and	 eax, 1
  0001a	74 11		 je	 SHORT $LN2@scalar
  0001c	68 20 02 00 00	 push	 544			; 00000220H
  00021	8b 45 fc	 mov	 eax, DWORD PTR _this$[ebp]
  00024	50		 push	 eax
  00025	e8 00 00 00 00	 call	 ??3@YAXPAXI@Z		; operator delete
  0002a	83 c4 08	 add	 esp, 8
$LN2@scalar:
  0002d	8b 45 fc	 mov	 eax, DWORD PTR _this$[ebp]
  00030	5f		 pop	 edi
  00031	5e		 pop	 esi
  00032	5b		 pop	 ebx
  00033	8b e5		 mov	 esp, ebp
  00035	5d		 pop	 ebp
  00036	c2 04 00	 ret	 4
??_GCInitParameter@@UAEPAXI@Z ENDP			; CInitParameter::`scalar deleting destructor'
_TEXT	ENDS
; Function compile flags: /Odtp /ZI
; File g:\网狐\happygamewh\服务端\系统模块\服务器组件\登录服务器\initparameter.cpp
;	COMDAT ?SaveInitParameter@CInitParameter@@QAE_NXZ
_TEXT	SEGMENT
$T2 = -933						; size = 1
_IniData$ = -804					; size = 264
_szIniFile$ = -540					; size = 260
_szWorkDir$ = -280					; size = 260
_this$ = -20						; size = 4
__$ArrayPad$ = -16					; size = 4
__$EHRec$ = -12						; size = 12
?SaveInitParameter@CInitParameter@@QAE_NXZ PROC		; CInitParameter::SaveInitParameter, COMDAT
; _this$ = ecx

; 67   : {

  00000	55		 push	 ebp
  00001	8b ec		 mov	 ebp, esp
  00003	6a ff		 push	 -1
  00005	68 00 00 00 00	 push	 __ehhandler$?SaveInitParameter@CInitParameter@@QAE_NXZ
  0000a	64 a1 00 00 00
	00		 mov	 eax, DWORD PTR fs:0
  00010	50		 push	 eax
  00011	81 ec 9c 03 00
	00		 sub	 esp, 924		; 0000039cH
  00017	a1 00 00 00 00	 mov	 eax, DWORD PTR ___security_cookie
  0001c	33 c5		 xor	 eax, ebp
  0001e	89 45 f0	 mov	 DWORD PTR __$ArrayPad$[ebp], eax
  00021	53		 push	 ebx
  00022	56		 push	 esi
  00023	57		 push	 edi
  00024	50		 push	 eax
  00025	8d 45 f4	 lea	 eax, DWORD PTR __$EHRec$[ebp]
  00028	64 a3 00 00 00
	00		 mov	 DWORD PTR fs:0, eax
  0002e	89 4d ec	 mov	 DWORD PTR _this$[ebp], ecx

; 68   : 	//获取路径
; 69   : 	TCHAR szWorkDir[MAX_PATH] = TEXT("");

  00031	a0 00 00 00 00	 mov	 al, BYTE PTR ??_C@_00CNPNBAHC@@
  00036	88 85 e8 fe ff
	ff		 mov	 BYTE PTR _szWorkDir$[ebp], al
  0003c	68 03 01 00 00	 push	 259			; 00000103H
  00041	6a 00		 push	 0
  00043	8d 85 e9 fe ff
	ff		 lea	 eax, DWORD PTR _szWorkDir$[ebp+1]
  00049	50		 push	 eax
  0004a	e8 00 00 00 00	 call	 _memset
  0004f	83 c4 0c	 add	 esp, 12			; 0000000cH

; 70   : 	CWHService::GetWorkDirectory(szWorkDir, CountArray(szWorkDir));

  00052	68 04 01 00 00	 push	 260			; 00000104H
  00057	8d 85 e8 fe ff
	ff		 lea	 eax, DWORD PTR _szWorkDir$[ebp]
  0005d	50		 push	 eax
  0005e	ff 15 00 00 00
	00		 call	 DWORD PTR __imp_?GetWorkDirectory@CWHService@@SA_NQADG@Z
  00064	83 c4 08	 add	 esp, 8

; 71   : 
; 72   : 	//构造路径
; 73   : 	TCHAR szIniFile[MAX_PATH] = TEXT("");

  00067	a0 00 00 00 00	 mov	 al, BYTE PTR ??_C@_00CNPNBAHC@@
  0006c	88 85 e4 fd ff
	ff		 mov	 BYTE PTR _szIniFile$[ebp], al
  00072	68 03 01 00 00	 push	 259			; 00000103H
  00077	6a 00		 push	 0
  00079	8d 85 e5 fd ff
	ff		 lea	 eax, DWORD PTR _szIniFile$[ebp+1]
  0007f	50		 push	 eax
  00080	e8 00 00 00 00	 call	 _memset
  00085	83 c4 0c	 add	 esp, 12			; 0000000cH

; 74   : 	_sntprintf_s(szIniFile, CountArray(szIniFile), TEXT("%s\\ServerParameter.ini"), szWorkDir);

  00088	8d 85 e8 fe ff
	ff		 lea	 eax, DWORD PTR _szWorkDir$[ebp]
  0008e	50		 push	 eax
  0008f	68 00 00 00 00	 push	 OFFSET ??_C@_0BH@GFNFOOOG@?$CFs?2ServerParameter?4ini@
  00094	68 04 01 00 00	 push	 260			; 00000104H
  00099	8d 8d e4 fd ff
	ff		 lea	 ecx, DWORD PTR _szIniFile$[ebp]
  0009f	51		 push	 ecx
  000a0	e8 00 00 00 00	 call	 ??$_snprintf_s@$0BAE@@@YAHAAY0BAE@DIPBDZZ ; _snprintf_s<260>
  000a5	83 c4 10	 add	 esp, 16			; 00000010H

; 75   : 
; 76   : 	//读取配置
; 77   : 	CWHIniData IniData;

  000a8	8d 8d dc fc ff
	ff		 lea	 ecx, DWORD PTR _IniData$[ebp]
  000ae	ff 15 00 00 00
	00		 call	 DWORD PTR __imp_??0CWHIniData@@QAE@XZ
  000b4	c7 45 fc 00 00
	00 00		 mov	 DWORD PTR __$EHRec$[ebp+8], 0

; 78   : 	IniData.SetIniFilePath(szIniFile);

  000bb	8d 85 e4 fd ff
	ff		 lea	 eax, DWORD PTR _szIniFile$[ebp]
  000c1	50		 push	 eax
  000c2	8d 8d dc fc ff
	ff		 lea	 ecx, DWORD PTR _IniData$[ebp]
  000c8	ff 15 00 00 00
	00		 call	 DWORD PTR __imp_?SetIniFilePath@CWHIniData@@QAEXPBD@Z

; 79   : 
; 80   : 
; 81   : 	//读取配置
; 82   : 	IniData.WriteInt(TEXT("LogonServer"), TEXT("DelayList"), m_cbDelayList);

  000ce	8b 45 ec	 mov	 eax, DWORD PTR _this$[ebp]
  000d1	0f b6 48 04	 movzx	 ecx, BYTE PTR [eax+4]
  000d5	51		 push	 ecx
  000d6	68 00 00 00 00	 push	 OFFSET ??_C@_09NNLBDNCO@DelayList@
  000db	68 00 00 00 00	 push	 OFFSET ??_C@_0M@NDLIHBHJ@LogonServer@
  000e0	8d 8d dc fc ff
	ff		 lea	 ecx, DWORD PTR _IniData$[ebp]
  000e6	ff 15 00 00 00
	00		 call	 DWORD PTR __imp_?WriteInt@CWHIniData@@QAE_NPBD0H@Z

; 83   : 	IniData.WriteInt(TEXT("LogonServer"), TEXT("ConnectMax"), m_wMaxConnect);

  000ec	8b 45 ec	 mov	 eax, DWORD PTR _this$[ebp]
  000ef	0f b7 48 06	 movzx	 ecx, WORD PTR [eax+6]
  000f3	51		 push	 ecx
  000f4	68 00 00 00 00	 push	 OFFSET ??_C@_0L@DGMPAMAP@ConnectMax@
  000f9	68 00 00 00 00	 push	 OFFSET ??_C@_0M@NDLIHBHJ@LogonServer@
  000fe	8d 8d dc fc ff
	ff		 lea	 ecx, DWORD PTR _IniData$[ebp]
  00104	ff 15 00 00 00
	00		 call	 DWORD PTR __imp_?WriteInt@CWHIniData@@QAE_NPBD0H@Z

; 84   : 	IniData.WriteInt(TEXT("LogonServer"), TEXT("ServicePort"), m_wServicePort);

  0010a	8b 45 ec	 mov	 eax, DWORD PTR _this$[ebp]
  0010d	0f b7 48 08	 movzx	 ecx, WORD PTR [eax+8]
  00111	51		 push	 ecx
  00112	68 00 00 00 00	 push	 OFFSET ??_C@_0M@PFPKDPLP@ServicePort@
  00117	68 00 00 00 00	 push	 OFFSET ??_C@_0M@NDLIHBHJ@LogonServer@
  0011c	8d 8d dc fc ff
	ff		 lea	 ecx, DWORD PTR _IniData$[ebp]
  00122	ff 15 00 00 00
	00		 call	 DWORD PTR __imp_?WriteInt@CWHIniData@@QAE_NPBD0H@Z

; 85   : 	IniData.WriteEncryptString(TEXT("ServerInfo"), TEXT("ServiceName"), m_szServerName);

  00128	8b 45 ec	 mov	 eax, DWORD PTR _this$[ebp]
  0012b	83 c0 0a	 add	 eax, 10			; 0000000aH
  0012e	50		 push	 eax
  0012f	68 00 00 00 00	 push	 OFFSET ??_C@_0M@IOFGKGDC@ServiceName@
  00134	68 00 00 00 00	 push	 OFFSET ??_C@_0L@EJMBPMDM@ServerInfo@
  00139	8d 8d dc fc ff
	ff		 lea	 ecx, DWORD PTR _IniData$[ebp]
  0013f	ff 15 00 00 00
	00		 call	 DWORD PTR __imp_?WriteEncryptString@CWHIniData@@QAE_NPBD00@Z

; 86   : 	IniData.WriteEncryptString(TEXT("ServerInfo"), TEXT("ServiceAddr"), m_ServiceAddress.szAddress);

  00145	8b 45 ec	 mov	 eax, DWORD PTR _this$[ebp]
  00148	83 c0 7a	 add	 eax, 122		; 0000007aH
  0014b	50		 push	 eax
  0014c	68 00 00 00 00	 push	 OFFSET ??_C@_0M@DBIKHOMI@ServiceAddr@
  00151	68 00 00 00 00	 push	 OFFSET ??_C@_0L@EJMBPMDM@ServerInfo@
  00156	8d 8d dc fc ff
	ff		 lea	 ecx, DWORD PTR _IniData$[ebp]
  0015c	ff 15 00 00 00
	00		 call	 DWORD PTR __imp_?WriteEncryptString@CWHIniData@@QAE_NPBD00@Z

; 87   : 
; 88   : 	//协调信息
; 89   : 	IniData.WriteInt(TEXT("Correspond"), TEXT("ServicePort"), m_wCorrespondPort);

  00162	8b 45 ec	 mov	 eax, DWORD PTR _this$[ebp]
  00165	0f b7 48 36	 movzx	 ecx, WORD PTR [eax+54]
  00169	51		 push	 ecx
  0016a	68 00 00 00 00	 push	 OFFSET ??_C@_0M@PFPKDPLP@ServicePort@
  0016f	68 00 00 00 00	 push	 OFFSET ??_C@_0L@EGGJEAIA@Correspond@
  00174	8d 8d dc fc ff
	ff		 lea	 ecx, DWORD PTR _IniData$[ebp]
  0017a	ff 15 00 00 00
	00		 call	 DWORD PTR __imp_?WriteInt@CWHIniData@@QAE_NPBD0H@Z

; 90   : 	IniData.WriteEncryptString(TEXT("ServerInfo"), TEXT("CorrespondAddr"), m_CorrespondAddress.szAddress);

  00180	8b 45 ec	 mov	 eax, DWORD PTR _this$[ebp]
  00183	83 c0 38	 add	 eax, 56			; 00000038H
  00186	50		 push	 eax
  00187	68 00 00 00 00	 push	 OFFSET ??_C@_0P@DFEDGGJF@CorrespondAddr@
  0018c	68 00 00 00 00	 push	 OFFSET ??_C@_0L@EJMBPMDM@ServerInfo@
  00191	8d 8d dc fc ff
	ff		 lea	 ecx, DWORD PTR _IniData$[ebp]
  00197	ff 15 00 00 00
	00		 call	 DWORD PTR __imp_?WriteEncryptString@CWHIniData@@QAE_NPBD00@Z

; 91   : 
; 92   : 	//约战信息
; 93   : 	IniData.WriteInt(TEXT("PrsnlRmCorrespond"), TEXT("ServicePort"), m_wPrsnlRmCorrespondPort);

  0019d	8b 45 ec	 mov	 eax, DWORD PTR _this$[ebp]
  001a0	0f b7 48 58	 movzx	 ecx, WORD PTR [eax+88]
  001a4	51		 push	 ecx
  001a5	68 00 00 00 00	 push	 OFFSET ??_C@_0M@PFPKDPLP@ServicePort@
  001aa	68 00 00 00 00	 push	 OFFSET ??_C@_0BC@EOLDOHEI@PrsnlRmCorrespond@
  001af	8d 8d dc fc ff
	ff		 lea	 ecx, DWORD PTR _IniData$[ebp]
  001b5	ff 15 00 00 00
	00		 call	 DWORD PTR __imp_?WriteInt@CWHIniData@@QAE_NPBD0H@Z

; 94   : 	IniData.WriteEncryptString(TEXT("ServerInfo"), TEXT("PrsnlRmCorrespondAddr"), m_PrsnlRmCorrespondAddress.szAddress);

  001bb	8b 45 ec	 mov	 eax, DWORD PTR _this$[ebp]
  001be	83 c0 5a	 add	 eax, 90			; 0000005aH
  001c1	50		 push	 eax
  001c2	68 00 00 00 00	 push	 OFFSET ??_C@_0BG@CPIBEODO@PrsnlRmCorrespondAddr@
  001c7	68 00 00 00 00	 push	 OFFSET ??_C@_0L@EJMBPMDM@ServerInfo@
  001cc	8d 8d dc fc ff
	ff		 lea	 ecx, DWORD PTR _IniData$[ebp]
  001d2	ff 15 00 00 00
	00		 call	 DWORD PTR __imp_?WriteEncryptString@CWHIniData@@QAE_NPBD00@Z

; 95   : 
; 96   : 	//连接信息
; 97   : 	IniData.WriteInt(TEXT("AccountsDB"), TEXT("DBPort"), m_AccountsDBParameter.wDataBasePort);

  001d8	8b 45 ec	 mov	 eax, DWORD PTR _this$[ebp]
  001db	0f b7 88 9a 00
	00 00		 movzx	 ecx, WORD PTR [eax+154]
  001e2	51		 push	 ecx
  001e3	68 00 00 00 00	 push	 OFFSET ??_C@_06NHDHPCNO@DBPort@
  001e8	68 00 00 00 00	 push	 OFFSET ??_C@_0L@JJOBOIHJ@AccountsDB@
  001ed	8d 8d dc fc ff
	ff		 lea	 ecx, DWORD PTR _IniData$[ebp]
  001f3	ff 15 00 00 00
	00		 call	 DWORD PTR __imp_?WriteInt@CWHIniData@@QAE_NPBD0H@Z

; 98   : 	IniData.WriteEncryptString(TEXT("AccountsDB"), TEXT("DBAddr"), m_AccountsDBParameter.szDataBaseAddr);

  001f9	8b 45 ec	 mov	 eax, DWORD PTR _this$[ebp]
  001fc	05 9c 00 00 00	 add	 eax, 156		; 0000009cH
  00201	50		 push	 eax
  00202	68 00 00 00 00	 push	 OFFSET ??_C@_06BDEHLDKJ@DBAddr@
  00207	68 00 00 00 00	 push	 OFFSET ??_C@_0L@JJOBOIHJ@AccountsDB@
  0020c	8d 8d dc fc ff
	ff		 lea	 ecx, DWORD PTR _IniData$[ebp]
  00212	ff 15 00 00 00
	00		 call	 DWORD PTR __imp_?WriteEncryptString@CWHIniData@@QAE_NPBD00@Z

; 99   : 	IniData.WriteEncryptString(TEXT("AccountsDB"), TEXT("DBUser"), m_AccountsDBParameter.szDataBaseUser);

  00218	8b 45 ec	 mov	 eax, DWORD PTR _this$[ebp]
  0021b	05 bc 00 00 00	 add	 eax, 188		; 000000bcH
  00220	50		 push	 eax
  00221	68 00 00 00 00	 push	 OFFSET ??_C@_06EKCLIHPK@DBUser@
  00226	68 00 00 00 00	 push	 OFFSET ??_C@_0L@JJOBOIHJ@AccountsDB@
  0022b	8d 8d dc fc ff
	ff		 lea	 ecx, DWORD PTR _IniData$[ebp]
  00231	ff 15 00 00 00
	00		 call	 DWORD PTR __imp_?WriteEncryptString@CWHIniData@@QAE_NPBD00@Z

; 100  : 	IniData.WriteEncryptString(TEXT("AccountsDB"), TEXT("DBPass"), m_AccountsDBParameter.szDataBasePass);

  00237	8b 45 ec	 mov	 eax, DWORD PTR _this$[ebp]
  0023a	05 dc 00 00 00	 add	 eax, 220		; 000000dcH
  0023f	50		 push	 eax
  00240	68 00 00 00 00	 push	 OFFSET ??_C@_06HJGLHJBN@DBPass@
  00245	68 00 00 00 00	 push	 OFFSET ??_C@_0L@JJOBOIHJ@AccountsDB@
  0024a	8d 8d dc fc ff
	ff		 lea	 ecx, DWORD PTR _IniData$[ebp]
  00250	ff 15 00 00 00
	00		 call	 DWORD PTR __imp_?WriteEncryptString@CWHIniData@@QAE_NPBD00@Z

; 101  : 	IniData.WriteEncryptString(TEXT("AccountsDB"), TEXT("DBName"), m_AccountsDBParameter.szDataBaseName);

  00256	8b 45 ec	 mov	 eax, DWORD PTR _this$[ebp]
  00259	05 fc 00 00 00	 add	 eax, 252		; 000000fcH
  0025e	50		 push	 eax
  0025f	68 00 00 00 00	 push	 OFFSET ??_C@_06KMJLGLFD@DBName@
  00264	68 00 00 00 00	 push	 OFFSET ??_C@_0L@JJOBOIHJ@AccountsDB@
  00269	8d 8d dc fc ff
	ff		 lea	 ecx, DWORD PTR _IniData$[ebp]
  0026f	ff 15 00 00 00
	00		 call	 DWORD PTR __imp_?WriteEncryptString@CWHIniData@@QAE_NPBD00@Z

; 102  : 
; 103  : 	//连接信息
; 104  : 	IniData.WriteInt(TEXT("TreasureDB"), TEXT("DBPort"), m_TreasureDBParameter.wDataBasePort);

  00275	8b 45 ec	 mov	 eax, DWORD PTR _this$[ebp]
  00278	0f b7 88 1c 01
	00 00		 movzx	 ecx, WORD PTR [eax+284]
  0027f	51		 push	 ecx
  00280	68 00 00 00 00	 push	 OFFSET ??_C@_06NHDHPCNO@DBPort@
  00285	68 00 00 00 00	 push	 OFFSET ??_C@_0L@BIEPDLBP@TreasureDB@
  0028a	8d 8d dc fc ff
	ff		 lea	 ecx, DWORD PTR _IniData$[ebp]
  00290	ff 15 00 00 00
	00		 call	 DWORD PTR __imp_?WriteInt@CWHIniData@@QAE_NPBD0H@Z

; 105  : 	IniData.WriteEncryptString(TEXT("TreasureDB"), TEXT("DBAddr"), m_TreasureDBParameter.szDataBaseAddr);

  00296	8b 45 ec	 mov	 eax, DWORD PTR _this$[ebp]
  00299	05 1e 01 00 00	 add	 eax, 286		; 0000011eH
  0029e	50		 push	 eax
  0029f	68 00 00 00 00	 push	 OFFSET ??_C@_06BDEHLDKJ@DBAddr@
  002a4	68 00 00 00 00	 push	 OFFSET ??_C@_0L@BIEPDLBP@TreasureDB@
  002a9	8d 8d dc fc ff
	ff		 lea	 ecx, DWORD PTR _IniData$[ebp]
  002af	ff 15 00 00 00
	00		 call	 DWORD PTR __imp_?WriteEncryptString@CWHIniData@@QAE_NPBD00@Z

; 106  : 	IniData.WriteEncryptString(TEXT("TreasureDB"), TEXT("DBUser"), m_TreasureDBParameter.szDataBaseUser);

  002b5	8b 45 ec	 mov	 eax, DWORD PTR _this$[ebp]
  002b8	05 3e 01 00 00	 add	 eax, 318		; 0000013eH
  002bd	50		 push	 eax
  002be	68 00 00 00 00	 push	 OFFSET ??_C@_06EKCLIHPK@DBUser@
  002c3	68 00 00 00 00	 push	 OFFSET ??_C@_0L@BIEPDLBP@TreasureDB@
  002c8	8d 8d dc fc ff
	ff		 lea	 ecx, DWORD PTR _IniData$[ebp]
  002ce	ff 15 00 00 00
	00		 call	 DWORD PTR __imp_?WriteEncryptString@CWHIniData@@QAE_NPBD00@Z

; 107  : 	IniData.WriteEncryptString(TEXT("TreasureDB"), TEXT("DBPass"), m_TreasureDBParameter.szDataBasePass);

  002d4	8b 45 ec	 mov	 eax, DWORD PTR _this$[ebp]
  002d7	05 5e 01 00 00	 add	 eax, 350		; 0000015eH
  002dc	50		 push	 eax
  002dd	68 00 00 00 00	 push	 OFFSET ??_C@_06HJGLHJBN@DBPass@
  002e2	68 00 00 00 00	 push	 OFFSET ??_C@_0L@BIEPDLBP@TreasureDB@
  002e7	8d 8d dc fc ff
	ff		 lea	 ecx, DWORD PTR _IniData$[ebp]
  002ed	ff 15 00 00 00
	00		 call	 DWORD PTR __imp_?WriteEncryptString@CWHIniData@@QAE_NPBD00@Z

; 108  : 	IniData.WriteEncryptString(TEXT("TreasureDB"), TEXT("DBName"), m_TreasureDBParameter.szDataBaseName);

  002f3	8b 45 ec	 mov	 eax, DWORD PTR _this$[ebp]
  002f6	05 7e 01 00 00	 add	 eax, 382		; 0000017eH
  002fb	50		 push	 eax
  002fc	68 00 00 00 00	 push	 OFFSET ??_C@_06KMJLGLFD@DBName@
  00301	68 00 00 00 00	 push	 OFFSET ??_C@_0L@BIEPDLBP@TreasureDB@
  00306	8d 8d dc fc ff
	ff		 lea	 ecx, DWORD PTR _IniData$[ebp]
  0030c	ff 15 00 00 00
	00		 call	 DWORD PTR __imp_?WriteEncryptString@CWHIniData@@QAE_NPBD00@Z

; 109  : 
; 110  : 	//连接信息
; 111  : 	IniData.WriteInt(TEXT("PlatformDB"), TEXT("DBPort"), m_PlatformDBParameter.wDataBasePort);

  00312	8b 45 ec	 mov	 eax, DWORD PTR _this$[ebp]
  00315	0f b7 88 9e 01
	00 00		 movzx	 ecx, WORD PTR [eax+414]
  0031c	51		 push	 ecx
  0031d	68 00 00 00 00	 push	 OFFSET ??_C@_06NHDHPCNO@DBPort@
  00322	68 00 00 00 00	 push	 OFFSET ??_C@_0L@KKFJCNPO@PlatformDB@
  00327	8d 8d dc fc ff
	ff		 lea	 ecx, DWORD PTR _IniData$[ebp]
  0032d	ff 15 00 00 00
	00		 call	 DWORD PTR __imp_?WriteInt@CWHIniData@@QAE_NPBD0H@Z

; 112  : 	IniData.WriteEncryptString(TEXT("PlatformDB"), TEXT("DBAddr"), m_PlatformDBParameter.szDataBaseAddr);

  00333	8b 45 ec	 mov	 eax, DWORD PTR _this$[ebp]
  00336	05 a0 01 00 00	 add	 eax, 416		; 000001a0H
  0033b	50		 push	 eax
  0033c	68 00 00 00 00	 push	 OFFSET ??_C@_06BDEHLDKJ@DBAddr@
  00341	68 00 00 00 00	 push	 OFFSET ??_C@_0L@KKFJCNPO@PlatformDB@
  00346	8d 8d dc fc ff
	ff		 lea	 ecx, DWORD PTR _IniData$[ebp]
  0034c	ff 15 00 00 00
	00		 call	 DWORD PTR __imp_?WriteEncryptString@CWHIniData@@QAE_NPBD00@Z

; 113  : 	IniData.WriteEncryptString(TEXT("PlatformDB"), TEXT("DBUser"), m_PlatformDBParameter.szDataBaseUser);

  00352	8b 45 ec	 mov	 eax, DWORD PTR _this$[ebp]
  00355	05 c0 01 00 00	 add	 eax, 448		; 000001c0H
  0035a	50		 push	 eax
  0035b	68 00 00 00 00	 push	 OFFSET ??_C@_06EKCLIHPK@DBUser@
  00360	68 00 00 00 00	 push	 OFFSET ??_C@_0L@KKFJCNPO@PlatformDB@
  00365	8d 8d dc fc ff
	ff		 lea	 ecx, DWORD PTR _IniData$[ebp]
  0036b	ff 15 00 00 00
	00		 call	 DWORD PTR __imp_?WriteEncryptString@CWHIniData@@QAE_NPBD00@Z

; 114  : 	IniData.WriteEncryptString(TEXT("PlatformDB"), TEXT("DBPass"), m_PlatformDBParameter.szDataBasePass);

  00371	8b 45 ec	 mov	 eax, DWORD PTR _this$[ebp]
  00374	05 e0 01 00 00	 add	 eax, 480		; 000001e0H
  00379	50		 push	 eax
  0037a	68 00 00 00 00	 push	 OFFSET ??_C@_06HJGLHJBN@DBPass@
  0037f	68 00 00 00 00	 push	 OFFSET ??_C@_0L@KKFJCNPO@PlatformDB@
  00384	8d 8d dc fc ff
	ff		 lea	 ecx, DWORD PTR _IniData$[ebp]
  0038a	ff 15 00 00 00
	00		 call	 DWORD PTR __imp_?WriteEncryptString@CWHIniData@@QAE_NPBD00@Z

; 115  : 	IniData.WriteEncryptString(TEXT("PlatformDB"), TEXT("DBName"), m_PlatformDBParameter.szDataBaseName);

  00390	8b 45 ec	 mov	 eax, DWORD PTR _this$[ebp]
  00393	05 00 02 00 00	 add	 eax, 512		; 00000200H
  00398	50		 push	 eax
  00399	68 00 00 00 00	 push	 OFFSET ??_C@_06KMJLGLFD@DBName@
  0039e	68 00 00 00 00	 push	 OFFSET ??_C@_0L@KKFJCNPO@PlatformDB@
  003a3	8d 8d dc fc ff
	ff		 lea	 ecx, DWORD PTR _IniData$[ebp]
  003a9	ff 15 00 00 00
	00		 call	 DWORD PTR __imp_?WriteEncryptString@CWHIniData@@QAE_NPBD00@Z

; 116  : 
; 117  : 	return true;

  003af	c6 85 5b fc ff
	ff 01		 mov	 BYTE PTR $T2[ebp], 1
  003b6	c7 45 fc ff ff
	ff ff		 mov	 DWORD PTR __$EHRec$[ebp+8], -1
  003bd	8d 8d dc fc ff
	ff		 lea	 ecx, DWORD PTR _IniData$[ebp]
  003c3	ff 15 00 00 00
	00		 call	 DWORD PTR __imp_??1CWHIniData@@UAE@XZ
  003c9	8a 85 5b fc ff
	ff		 mov	 al, BYTE PTR $T2[ebp]

; 118  : }

  003cf	8b 4d f4	 mov	 ecx, DWORD PTR __$EHRec$[ebp]
  003d2	64 89 0d 00 00
	00 00		 mov	 DWORD PTR fs:0, ecx
  003d9	59		 pop	 ecx
  003da	5f		 pop	 edi
  003db	5e		 pop	 esi
  003dc	5b		 pop	 ebx
  003dd	8b 4d f0	 mov	 ecx, DWORD PTR __$ArrayPad$[ebp]
  003e0	33 cd		 xor	 ecx, ebp
  003e2	e8 00 00 00 00	 call	 @__security_check_cookie@4
  003e7	8b e5		 mov	 esp, ebp
  003e9	5d		 pop	 ebp
  003ea	c3		 ret	 0
_TEXT	ENDS
;	COMDAT text$x
text$x	SEGMENT
__unwindfunclet$?SaveInitParameter@CInitParameter@@QAE_NXZ$0:
  00000	8d 8d dc fc ff
	ff		 lea	 ecx, DWORD PTR _IniData$[ebp]
  00006	ff 25 00 00 00
	00		 jmp	 DWORD PTR __imp_??1CWHIniData@@UAE@XZ
__ehhandler$?SaveInitParameter@CInitParameter@@QAE_NXZ:
  0000c	8b 54 24 08	 mov	 edx, DWORD PTR [esp+8]
  00010	8d 42 0c	 lea	 eax, DWORD PTR [edx+12]
  00013	8b 8a 54 fc ff
	ff		 mov	 ecx, DWORD PTR [edx-940]
  00019	33 c8		 xor	 ecx, eax
  0001b	e8 00 00 00 00	 call	 @__security_check_cookie@4
  00020	8b 4a fc	 mov	 ecx, DWORD PTR [edx-4]
  00023	33 c8		 xor	 ecx, eax
  00025	e8 00 00 00 00	 call	 @__security_check_cookie@4
  0002a	b8 00 00 00 00	 mov	 eax, OFFSET __ehfuncinfo$?SaveInitParameter@CInitParameter@@QAE_NXZ
  0002f	e9 00 00 00 00	 jmp	 ___CxxFrameHandler3
text$x	ENDS
?SaveInitParameter@CInitParameter@@QAE_NXZ ENDP		; CInitParameter::SaveInitParameter
; Function compile flags: /Odtp /ZI
; File g:\网狐\happygamewh\服务端\系统模块\服务器组件\登录服务器\initparameter.cpp
;	COMDAT ?LoadInitParameter@CInitParameter@@QAEXXZ
_TEXT	SEGMENT
_IniData$ = -804					; size = 264
_szIniFile$ = -540					; size = 260
_szWorkDir$ = -280					; size = 260
_this$ = -20						; size = 4
__$ArrayPad$ = -16					; size = 4
__$EHRec$ = -12						; size = 12
?LoadInitParameter@CInitParameter@@QAEXXZ PROC		; CInitParameter::LoadInitParameter, COMDAT
; _this$ = ecx

; 122  : {

  00000	55		 push	 ebp
  00001	8b ec		 mov	 ebp, esp
  00003	6a ff		 push	 -1
  00005	68 00 00 00 00	 push	 __ehhandler$?LoadInitParameter@CInitParameter@@QAEXXZ
  0000a	64 a1 00 00 00
	00		 mov	 eax, DWORD PTR fs:0
  00010	50		 push	 eax
  00011	81 ec 98 03 00
	00		 sub	 esp, 920		; 00000398H
  00017	a1 00 00 00 00	 mov	 eax, DWORD PTR ___security_cookie
  0001c	33 c5		 xor	 eax, ebp
  0001e	89 45 f0	 mov	 DWORD PTR __$ArrayPad$[ebp], eax
  00021	53		 push	 ebx
  00022	56		 push	 esi
  00023	57		 push	 edi
  00024	50		 push	 eax
  00025	8d 45 f4	 lea	 eax, DWORD PTR __$EHRec$[ebp]
  00028	64 a3 00 00 00
	00		 mov	 DWORD PTR fs:0, eax
  0002e	89 4d ec	 mov	 DWORD PTR _this$[ebp], ecx

; 123  : 	//重置参数
; 124  : 	InitParameter();

  00031	8b 4d ec	 mov	 ecx, DWORD PTR _this$[ebp]
  00034	e8 00 00 00 00	 call	 ?InitParameter@CInitParameter@@QAEXXZ ; CInitParameter::InitParameter

; 125  : 
; 126  : 	//获取路径
; 127  : 	TCHAR szWorkDir[MAX_PATH]=TEXT("");

  00039	a0 00 00 00 00	 mov	 al, BYTE PTR ??_C@_00CNPNBAHC@@
  0003e	88 85 e8 fe ff
	ff		 mov	 BYTE PTR _szWorkDir$[ebp], al
  00044	68 03 01 00 00	 push	 259			; 00000103H
  00049	6a 00		 push	 0
  0004b	8d 85 e9 fe ff
	ff		 lea	 eax, DWORD PTR _szWorkDir$[ebp+1]
  00051	50		 push	 eax
  00052	e8 00 00 00 00	 call	 _memset
  00057	83 c4 0c	 add	 esp, 12			; 0000000cH

; 128  : 	CWHService::GetWorkDirectory(szWorkDir,CountArray(szWorkDir));

  0005a	68 04 01 00 00	 push	 260			; 00000104H
  0005f	8d 85 e8 fe ff
	ff		 lea	 eax, DWORD PTR _szWorkDir$[ebp]
  00065	50		 push	 eax
  00066	ff 15 00 00 00
	00		 call	 DWORD PTR __imp_?GetWorkDirectory@CWHService@@SA_NQADG@Z
  0006c	83 c4 08	 add	 esp, 8

; 129  : 
; 130  : 	//构造路径
; 131  : 	TCHAR szIniFile[MAX_PATH]=TEXT("");

  0006f	a0 00 00 00 00	 mov	 al, BYTE PTR ??_C@_00CNPNBAHC@@
  00074	88 85 e4 fd ff
	ff		 mov	 BYTE PTR _szIniFile$[ebp], al
  0007a	68 03 01 00 00	 push	 259			; 00000103H
  0007f	6a 00		 push	 0
  00081	8d 85 e5 fd ff
	ff		 lea	 eax, DWORD PTR _szIniFile$[ebp+1]
  00087	50		 push	 eax
  00088	e8 00 00 00 00	 call	 _memset
  0008d	83 c4 0c	 add	 esp, 12			; 0000000cH

; 132  : 	_sntprintf_s(szIniFile,CountArray(szIniFile),TEXT("%s\\ServerParameter.ini"),szWorkDir);

  00090	8d 85 e8 fe ff
	ff		 lea	 eax, DWORD PTR _szWorkDir$[ebp]
  00096	50		 push	 eax
  00097	68 00 00 00 00	 push	 OFFSET ??_C@_0BH@GFNFOOOG@?$CFs?2ServerParameter?4ini@
  0009c	68 04 01 00 00	 push	 260			; 00000104H
  000a1	8d 8d e4 fd ff
	ff		 lea	 ecx, DWORD PTR _szIniFile$[ebp]
  000a7	51		 push	 ecx
  000a8	e8 00 00 00 00	 call	 ??$_snprintf_s@$0BAE@@@YAHAAY0BAE@DIPBDZZ ; _snprintf_s<260>
  000ad	83 c4 10	 add	 esp, 16			; 00000010H

; 133  : 
; 134  : 	if (PathFileExists(szIniFile) == FALSE)

  000b0	8d 85 e4 fd ff
	ff		 lea	 eax, DWORD PTR _szIniFile$[ebp]
  000b6	50		 push	 eax
  000b7	ff 15 00 00 00
	00		 call	 DWORD PTR __imp__PathFileExistsA@4
  000bd	85 c0		 test	 eax, eax
  000bf	75 15		 jne	 SHORT $LN2@LoadInitPa

; 135  : 	{
; 136  : 		CTraceService::TraceString(TEXT("未找到ServerParameter.ini文件!"), TraceLevel_Exception);

  000c1	6a 03		 push	 3
  000c3	68 00 00 00 00	 push	 OFFSET ??_C@_0BP@GAOBEHJN@?N?$LE?U?R?$LF?$LNServerParameter?4ini?N?D?$LM?$PO?$CB@
  000c8	ff 15 00 00 00
	00		 call	 DWORD PTR __imp_?TraceString@CTraceService@@SA_NPBDW4enTraceLevel@@@Z
  000ce	83 c4 08	 add	 esp, 8

; 137  : 		return;

  000d1	e9 b1 03 00 00	 jmp	 $LN1@LoadInitPa
$LN2@LoadInitPa:

; 138  : 	}
; 139  : 
; 140  : 	//读取配置
; 141  : 	CWHIniData IniData;

  000d6	8d 8d dc fc ff
	ff		 lea	 ecx, DWORD PTR _IniData$[ebp]
  000dc	ff 15 00 00 00
	00		 call	 DWORD PTR __imp_??0CWHIniData@@QAE@XZ
  000e2	c7 45 fc 00 00
	00 00		 mov	 DWORD PTR __$EHRec$[ebp+8], 0

; 142  : 	IniData.SetIniFilePath(szIniFile);

  000e9	8d 85 e4 fd ff
	ff		 lea	 eax, DWORD PTR _szIniFile$[ebp]
  000ef	50		 push	 eax
  000f0	8d 8d dc fc ff
	ff		 lea	 ecx, DWORD PTR _IniData$[ebp]
  000f6	ff 15 00 00 00
	00		 call	 DWORD PTR __imp_?SetIniFilePath@CWHIniData@@QAEXPBD@Z

; 143  : 
; 144  : 	//读取配置
; 145  : 	m_cbDelayList=IniData.ReadInt(TEXT("LogonServer"),TEXT("DelayList"),m_cbDelayList);

  000fc	8b 45 ec	 mov	 eax, DWORD PTR _this$[ebp]
  000ff	0f b6 48 04	 movzx	 ecx, BYTE PTR [eax+4]
  00103	51		 push	 ecx
  00104	68 00 00 00 00	 push	 OFFSET ??_C@_09NNLBDNCO@DelayList@
  00109	68 00 00 00 00	 push	 OFFSET ??_C@_0M@NDLIHBHJ@LogonServer@
  0010e	8d 8d dc fc ff
	ff		 lea	 ecx, DWORD PTR _IniData$[ebp]
  00114	ff 15 00 00 00
	00		 call	 DWORD PTR __imp_?ReadInt@CWHIniData@@QAEIPBD0H@Z
  0011a	8b 55 ec	 mov	 edx, DWORD PTR _this$[ebp]
  0011d	88 42 04	 mov	 BYTE PTR [edx+4], al

; 146  : 	m_wMaxConnect=IniData.ReadInt(TEXT("LogonServer"),TEXT("ConnectMax"),m_wMaxConnect);

  00120	8b 45 ec	 mov	 eax, DWORD PTR _this$[ebp]
  00123	0f b7 48 06	 movzx	 ecx, WORD PTR [eax+6]
  00127	51		 push	 ecx
  00128	68 00 00 00 00	 push	 OFFSET ??_C@_0L@DGMPAMAP@ConnectMax@
  0012d	68 00 00 00 00	 push	 OFFSET ??_C@_0M@NDLIHBHJ@LogonServer@
  00132	8d 8d dc fc ff
	ff		 lea	 ecx, DWORD PTR _IniData$[ebp]
  00138	ff 15 00 00 00
	00		 call	 DWORD PTR __imp_?ReadInt@CWHIniData@@QAEIPBD0H@Z
  0013e	8b 55 ec	 mov	 edx, DWORD PTR _this$[ebp]
  00141	66 89 42 06	 mov	 WORD PTR [edx+6], ax

; 147  : 	m_wServicePort=IniData.ReadInt(TEXT("LogonServer"),TEXT("ServicePort"),m_wServicePort);

  00145	8b 45 ec	 mov	 eax, DWORD PTR _this$[ebp]
  00148	0f b7 48 08	 movzx	 ecx, WORD PTR [eax+8]
  0014c	51		 push	 ecx
  0014d	68 00 00 00 00	 push	 OFFSET ??_C@_0M@PFPKDPLP@ServicePort@
  00152	68 00 00 00 00	 push	 OFFSET ??_C@_0M@NDLIHBHJ@LogonServer@
  00157	8d 8d dc fc ff
	ff		 lea	 ecx, DWORD PTR _IniData$[ebp]
  0015d	ff 15 00 00 00
	00		 call	 DWORD PTR __imp_?ReadInt@CWHIniData@@QAEIPBD0H@Z
  00163	8b 55 ec	 mov	 edx, DWORD PTR _this$[ebp]
  00166	66 89 42 08	 mov	 WORD PTR [edx+8], ax

; 148  : 	IniData.ReadEncryptString(TEXT("ServerInfo"),TEXT("ServiceName"),NULL,m_szServerName,CountArray(m_szServerName));

  0016a	6a 20		 push	 32			; 00000020H
  0016c	8b 45 ec	 mov	 eax, DWORD PTR _this$[ebp]
  0016f	83 c0 0a	 add	 eax, 10			; 0000000aH
  00172	50		 push	 eax
  00173	6a 00		 push	 0
  00175	68 00 00 00 00	 push	 OFFSET ??_C@_0M@IOFGKGDC@ServiceName@
  0017a	68 00 00 00 00	 push	 OFFSET ??_C@_0L@EJMBPMDM@ServerInfo@
  0017f	8d 8d dc fc ff
	ff		 lea	 ecx, DWORD PTR _IniData$[ebp]
  00185	ff 15 00 00 00
	00		 call	 DWORD PTR __imp_?ReadEncryptString@CWHIniData@@QAEPBDPBD00PADG@Z

; 149  : 	IniData.ReadEncryptString(TEXT("ServerInfo"),TEXT("ServiceAddr"),NULL,m_ServiceAddress.szAddress,CountArray(m_ServiceAddress.szAddress));

  0018b	6a 20		 push	 32			; 00000020H
  0018d	8b 45 ec	 mov	 eax, DWORD PTR _this$[ebp]
  00190	83 c0 7a	 add	 eax, 122		; 0000007aH
  00193	50		 push	 eax
  00194	6a 00		 push	 0
  00196	68 00 00 00 00	 push	 OFFSET ??_C@_0M@DBIKHOMI@ServiceAddr@
  0019b	68 00 00 00 00	 push	 OFFSET ??_C@_0L@EJMBPMDM@ServerInfo@
  001a0	8d 8d dc fc ff
	ff		 lea	 ecx, DWORD PTR _IniData$[ebp]
  001a6	ff 15 00 00 00
	00		 call	 DWORD PTR __imp_?ReadEncryptString@CWHIniData@@QAEPBDPBD00PADG@Z

; 150  : 
; 151  : 	//协调信息
; 152  : 	m_wCorrespondPort=IniData.ReadInt(TEXT("Correspond"),TEXT("ServicePort"),m_wCorrespondPort);

  001ac	8b 45 ec	 mov	 eax, DWORD PTR _this$[ebp]
  001af	0f b7 48 36	 movzx	 ecx, WORD PTR [eax+54]
  001b3	51		 push	 ecx
  001b4	68 00 00 00 00	 push	 OFFSET ??_C@_0M@PFPKDPLP@ServicePort@
  001b9	68 00 00 00 00	 push	 OFFSET ??_C@_0L@EGGJEAIA@Correspond@
  001be	8d 8d dc fc ff
	ff		 lea	 ecx, DWORD PTR _IniData$[ebp]
  001c4	ff 15 00 00 00
	00		 call	 DWORD PTR __imp_?ReadInt@CWHIniData@@QAEIPBD0H@Z
  001ca	8b 55 ec	 mov	 edx, DWORD PTR _this$[ebp]
  001cd	66 89 42 36	 mov	 WORD PTR [edx+54], ax

; 153  : 	IniData.ReadEncryptString(TEXT("ServerInfo"),TEXT("CorrespondAddr"),NULL,m_CorrespondAddress.szAddress,CountArray(m_CorrespondAddress.szAddress));

  001d1	6a 20		 push	 32			; 00000020H
  001d3	8b 45 ec	 mov	 eax, DWORD PTR _this$[ebp]
  001d6	83 c0 38	 add	 eax, 56			; 00000038H
  001d9	50		 push	 eax
  001da	6a 00		 push	 0
  001dc	68 00 00 00 00	 push	 OFFSET ??_C@_0P@DFEDGGJF@CorrespondAddr@
  001e1	68 00 00 00 00	 push	 OFFSET ??_C@_0L@EJMBPMDM@ServerInfo@
  001e6	8d 8d dc fc ff
	ff		 lea	 ecx, DWORD PTR _IniData$[ebp]
  001ec	ff 15 00 00 00
	00		 call	 DWORD PTR __imp_?ReadEncryptString@CWHIniData@@QAEPBDPBD00PADG@Z

; 154  : 
; 155  : 	//约战信息
; 156  : 	m_wPrsnlRmCorrespondPort=IniData.ReadInt(TEXT("PrsnlRmCorrespond"),TEXT("ServicePort"),m_wPrsnlRmCorrespondPort);

  001f2	8b 45 ec	 mov	 eax, DWORD PTR _this$[ebp]
  001f5	0f b7 48 58	 movzx	 ecx, WORD PTR [eax+88]
  001f9	51		 push	 ecx
  001fa	68 00 00 00 00	 push	 OFFSET ??_C@_0M@PFPKDPLP@ServicePort@
  001ff	68 00 00 00 00	 push	 OFFSET ??_C@_0BC@EOLDOHEI@PrsnlRmCorrespond@
  00204	8d 8d dc fc ff
	ff		 lea	 ecx, DWORD PTR _IniData$[ebp]
  0020a	ff 15 00 00 00
	00		 call	 DWORD PTR __imp_?ReadInt@CWHIniData@@QAEIPBD0H@Z
  00210	8b 55 ec	 mov	 edx, DWORD PTR _this$[ebp]
  00213	66 89 42 58	 mov	 WORD PTR [edx+88], ax

; 157  : 	IniData.ReadEncryptString(TEXT("ServerInfo"),TEXT("PrsnlRmCorrespondAddr"),m_CorrespondAddress.szAddress,m_PrsnlRmCorrespondAddress.szAddress,CountArray(m_PrsnlRmCorrespondAddress.szAddress));

  00217	6a 20		 push	 32			; 00000020H
  00219	8b 45 ec	 mov	 eax, DWORD PTR _this$[ebp]
  0021c	83 c0 5a	 add	 eax, 90			; 0000005aH
  0021f	50		 push	 eax
  00220	8b 4d ec	 mov	 ecx, DWORD PTR _this$[ebp]
  00223	83 c1 38	 add	 ecx, 56			; 00000038H
  00226	51		 push	 ecx
  00227	68 00 00 00 00	 push	 OFFSET ??_C@_0BG@CPIBEODO@PrsnlRmCorrespondAddr@
  0022c	68 00 00 00 00	 push	 OFFSET ??_C@_0L@EJMBPMDM@ServerInfo@
  00231	8d 8d dc fc ff
	ff		 lea	 ecx, DWORD PTR _IniData$[ebp]
  00237	ff 15 00 00 00
	00		 call	 DWORD PTR __imp_?ReadEncryptString@CWHIniData@@QAEPBDPBD00PADG@Z

; 158  : 
; 159  : 	//连接信息
; 160  : 	m_AccountsDBParameter.wDataBasePort=(WORD)IniData.ReadInt(TEXT("AccountsDB"),TEXT("DBPort"),1433);

  0023d	68 99 05 00 00	 push	 1433			; 00000599H
  00242	68 00 00 00 00	 push	 OFFSET ??_C@_06NHDHPCNO@DBPort@
  00247	68 00 00 00 00	 push	 OFFSET ??_C@_0L@JJOBOIHJ@AccountsDB@
  0024c	8d 8d dc fc ff
	ff		 lea	 ecx, DWORD PTR _IniData$[ebp]
  00252	ff 15 00 00 00
	00		 call	 DWORD PTR __imp_?ReadInt@CWHIniData@@QAEIPBD0H@Z
  00258	8b 4d ec	 mov	 ecx, DWORD PTR _this$[ebp]
  0025b	66 89 81 9a 00
	00 00		 mov	 WORD PTR [ecx+154], ax

; 161  : 	IniData.ReadEncryptString(TEXT("AccountsDB"), TEXT("DBAddr"), TEXT("127.0.0.1"), m_AccountsDBParameter.szDataBaseAddr, CountArray(m_AccountsDBParameter.szDataBaseAddr));

  00262	6a 20		 push	 32			; 00000020H
  00264	8b 45 ec	 mov	 eax, DWORD PTR _this$[ebp]
  00267	05 9c 00 00 00	 add	 eax, 156		; 0000009cH
  0026c	50		 push	 eax
  0026d	68 00 00 00 00	 push	 OFFSET ??_C@_09PFCHIMEP@127?40?40?41@
  00272	68 00 00 00 00	 push	 OFFSET ??_C@_06BDEHLDKJ@DBAddr@
  00277	68 00 00 00 00	 push	 OFFSET ??_C@_0L@JJOBOIHJ@AccountsDB@
  0027c	8d 8d dc fc ff
	ff		 lea	 ecx, DWORD PTR _IniData$[ebp]
  00282	ff 15 00 00 00
	00		 call	 DWORD PTR __imp_?ReadEncryptString@CWHIniData@@QAEPBDPBD00PADG@Z

; 162  : 	IniData.ReadEncryptString(TEXT("AccountsDB"), TEXT("DBUser"), TEXT("sa"), m_AccountsDBParameter.szDataBaseUser, CountArray(m_AccountsDBParameter.szDataBaseUser));

  00288	6a 20		 push	 32			; 00000020H
  0028a	8b 45 ec	 mov	 eax, DWORD PTR _this$[ebp]
  0028d	05 bc 00 00 00	 add	 eax, 188		; 000000bcH
  00292	50		 push	 eax
  00293	68 00 00 00 00	 push	 OFFSET ??_C@_02CKOPKKAC@sa@
  00298	68 00 00 00 00	 push	 OFFSET ??_C@_06EKCLIHPK@DBUser@
  0029d	68 00 00 00 00	 push	 OFFSET ??_C@_0L@JJOBOIHJ@AccountsDB@
  002a2	8d 8d dc fc ff
	ff		 lea	 ecx, DWORD PTR _IniData$[ebp]
  002a8	ff 15 00 00 00
	00		 call	 DWORD PTR __imp_?ReadEncryptString@CWHIniData@@QAEPBDPBD00PADG@Z

; 163  : 	IniData.ReadEncryptString(TEXT("AccountsDB"), TEXT("DBPass"), TEXT("people"), m_AccountsDBParameter.szDataBasePass, CountArray(m_AccountsDBParameter.szDataBasePass));

  002ae	6a 20		 push	 32			; 00000020H
  002b0	8b 45 ec	 mov	 eax, DWORD PTR _this$[ebp]
  002b3	05 dc 00 00 00	 add	 eax, 220		; 000000dcH
  002b8	50		 push	 eax
  002b9	68 00 00 00 00	 push	 OFFSET ??_C@_06PPNIIDOF@people@
  002be	68 00 00 00 00	 push	 OFFSET ??_C@_06HJGLHJBN@DBPass@
  002c3	68 00 00 00 00	 push	 OFFSET ??_C@_0L@JJOBOIHJ@AccountsDB@
  002c8	8d 8d dc fc ff
	ff		 lea	 ecx, DWORD PTR _IniData$[ebp]
  002ce	ff 15 00 00 00
	00		 call	 DWORD PTR __imp_?ReadEncryptString@CWHIniData@@QAEPBDPBD00PADG@Z

; 164  : 	IniData.ReadEncryptString(TEXT("AccountsDB"),TEXT("DBName"),szAccountsDB,m_AccountsDBParameter.szDataBaseName,CountArray(m_AccountsDBParameter.szDataBaseName));

  002d4	6a 20		 push	 32			; 00000020H
  002d6	8b 45 ec	 mov	 eax, DWORD PTR _this$[ebp]
  002d9	05 fc 00 00 00	 add	 eax, 252		; 000000fcH
  002de	50		 push	 eax
  002df	68 00 00 00 00	 push	 OFFSET ?szAccountsDB@@3QBDB
  002e4	68 00 00 00 00	 push	 OFFSET ??_C@_06KMJLGLFD@DBName@
  002e9	68 00 00 00 00	 push	 OFFSET ??_C@_0L@JJOBOIHJ@AccountsDB@
  002ee	8d 8d dc fc ff
	ff		 lea	 ecx, DWORD PTR _IniData$[ebp]
  002f4	ff 15 00 00 00
	00		 call	 DWORD PTR __imp_?ReadEncryptString@CWHIniData@@QAEPBDPBD00PADG@Z

; 165  : 
; 166  : 	//连接信息
; 167  : 	m_TreasureDBParameter.wDataBasePort=(WORD)IniData.ReadInt(TEXT("TreasureDB"),TEXT("DBPort"),1433);

  002fa	68 99 05 00 00	 push	 1433			; 00000599H
  002ff	68 00 00 00 00	 push	 OFFSET ??_C@_06NHDHPCNO@DBPort@
  00304	68 00 00 00 00	 push	 OFFSET ??_C@_0L@BIEPDLBP@TreasureDB@
  00309	8d 8d dc fc ff
	ff		 lea	 ecx, DWORD PTR _IniData$[ebp]
  0030f	ff 15 00 00 00
	00		 call	 DWORD PTR __imp_?ReadInt@CWHIniData@@QAEIPBD0H@Z
  00315	8b 4d ec	 mov	 ecx, DWORD PTR _this$[ebp]
  00318	66 89 81 1c 01
	00 00		 mov	 WORD PTR [ecx+284], ax

; 168  : 	IniData.ReadEncryptString(TEXT("TreasureDB"), TEXT("DBAddr"), TEXT("127.0.0.1"), m_TreasureDBParameter.szDataBaseAddr, CountArray(m_TreasureDBParameter.szDataBaseAddr));

  0031f	6a 20		 push	 32			; 00000020H
  00321	8b 45 ec	 mov	 eax, DWORD PTR _this$[ebp]
  00324	05 1e 01 00 00	 add	 eax, 286		; 0000011eH
  00329	50		 push	 eax
  0032a	68 00 00 00 00	 push	 OFFSET ??_C@_09PFCHIMEP@127?40?40?41@
  0032f	68 00 00 00 00	 push	 OFFSET ??_C@_06BDEHLDKJ@DBAddr@
  00334	68 00 00 00 00	 push	 OFFSET ??_C@_0L@BIEPDLBP@TreasureDB@
  00339	8d 8d dc fc ff
	ff		 lea	 ecx, DWORD PTR _IniData$[ebp]
  0033f	ff 15 00 00 00
	00		 call	 DWORD PTR __imp_?ReadEncryptString@CWHIniData@@QAEPBDPBD00PADG@Z

; 169  : 	IniData.ReadEncryptString(TEXT("TreasureDB"), TEXT("DBUser"), TEXT("sa"), m_TreasureDBParameter.szDataBaseUser, CountArray(m_TreasureDBParameter.szDataBaseUser));

  00345	6a 20		 push	 32			; 00000020H
  00347	8b 45 ec	 mov	 eax, DWORD PTR _this$[ebp]
  0034a	05 3e 01 00 00	 add	 eax, 318		; 0000013eH
  0034f	50		 push	 eax
  00350	68 00 00 00 00	 push	 OFFSET ??_C@_02CKOPKKAC@sa@
  00355	68 00 00 00 00	 push	 OFFSET ??_C@_06EKCLIHPK@DBUser@
  0035a	68 00 00 00 00	 push	 OFFSET ??_C@_0L@BIEPDLBP@TreasureDB@
  0035f	8d 8d dc fc ff
	ff		 lea	 ecx, DWORD PTR _IniData$[ebp]
  00365	ff 15 00 00 00
	00		 call	 DWORD PTR __imp_?ReadEncryptString@CWHIniData@@QAEPBDPBD00PADG@Z

; 170  : 	IniData.ReadEncryptString(TEXT("TreasureDB"), TEXT("DBPass"), TEXT("people"), m_TreasureDBParameter.szDataBasePass, CountArray(m_TreasureDBParameter.szDataBasePass));

  0036b	6a 20		 push	 32			; 00000020H
  0036d	8b 45 ec	 mov	 eax, DWORD PTR _this$[ebp]
  00370	05 5e 01 00 00	 add	 eax, 350		; 0000015eH
  00375	50		 push	 eax
  00376	68 00 00 00 00	 push	 OFFSET ??_C@_06PPNIIDOF@people@
  0037b	68 00 00 00 00	 push	 OFFSET ??_C@_06HJGLHJBN@DBPass@
  00380	68 00 00 00 00	 push	 OFFSET ??_C@_0L@BIEPDLBP@TreasureDB@
  00385	8d 8d dc fc ff
	ff		 lea	 ecx, DWORD PTR _IniData$[ebp]
  0038b	ff 15 00 00 00
	00		 call	 DWORD PTR __imp_?ReadEncryptString@CWHIniData@@QAEPBDPBD00PADG@Z

; 171  : 	IniData.ReadEncryptString(TEXT("TreasureDB"),TEXT("DBName"),szTreasureDB,m_TreasureDBParameter.szDataBaseName,CountArray(m_TreasureDBParameter.szDataBaseName));

  00391	6a 20		 push	 32			; 00000020H
  00393	8b 45 ec	 mov	 eax, DWORD PTR _this$[ebp]
  00396	05 7e 01 00 00	 add	 eax, 382		; 0000017eH
  0039b	50		 push	 eax
  0039c	68 00 00 00 00	 push	 OFFSET ?szTreasureDB@@3QBDB
  003a1	68 00 00 00 00	 push	 OFFSET ??_C@_06KMJLGLFD@DBName@
  003a6	68 00 00 00 00	 push	 OFFSET ??_C@_0L@BIEPDLBP@TreasureDB@
  003ab	8d 8d dc fc ff
	ff		 lea	 ecx, DWORD PTR _IniData$[ebp]
  003b1	ff 15 00 00 00
	00		 call	 DWORD PTR __imp_?ReadEncryptString@CWHIniData@@QAEPBDPBD00PADG@Z

; 172  : 
; 173  : 	//连接信息
; 174  : 	m_PlatformDBParameter.wDataBasePort=(WORD)IniData.ReadInt(TEXT("PlatformDB"),TEXT("DBPort"),1433);

  003b7	68 99 05 00 00	 push	 1433			; 00000599H
  003bc	68 00 00 00 00	 push	 OFFSET ??_C@_06NHDHPCNO@DBPort@
  003c1	68 00 00 00 00	 push	 OFFSET ??_C@_0L@KKFJCNPO@PlatformDB@
  003c6	8d 8d dc fc ff
	ff		 lea	 ecx, DWORD PTR _IniData$[ebp]
  003cc	ff 15 00 00 00
	00		 call	 DWORD PTR __imp_?ReadInt@CWHIniData@@QAEIPBD0H@Z
  003d2	8b 4d ec	 mov	 ecx, DWORD PTR _this$[ebp]
  003d5	66 89 81 9e 01
	00 00		 mov	 WORD PTR [ecx+414], ax

; 175  : 	IniData.ReadEncryptString(TEXT("PlatformDB"), TEXT("DBAddr"), TEXT("127.0.0.1"), m_PlatformDBParameter.szDataBaseAddr, CountArray(m_PlatformDBParameter.szDataBaseAddr));

  003dc	6a 20		 push	 32			; 00000020H
  003de	8b 45 ec	 mov	 eax, DWORD PTR _this$[ebp]
  003e1	05 a0 01 00 00	 add	 eax, 416		; 000001a0H
  003e6	50		 push	 eax
  003e7	68 00 00 00 00	 push	 OFFSET ??_C@_09PFCHIMEP@127?40?40?41@
  003ec	68 00 00 00 00	 push	 OFFSET ??_C@_06BDEHLDKJ@DBAddr@
  003f1	68 00 00 00 00	 push	 OFFSET ??_C@_0L@KKFJCNPO@PlatformDB@
  003f6	8d 8d dc fc ff
	ff		 lea	 ecx, DWORD PTR _IniData$[ebp]
  003fc	ff 15 00 00 00
	00		 call	 DWORD PTR __imp_?ReadEncryptString@CWHIniData@@QAEPBDPBD00PADG@Z

; 176  : 	IniData.ReadEncryptString(TEXT("PlatformDB"), TEXT("DBUser"), TEXT("sa"), m_PlatformDBParameter.szDataBaseUser, CountArray(m_PlatformDBParameter.szDataBaseUser));

  00402	6a 20		 push	 32			; 00000020H
  00404	8b 45 ec	 mov	 eax, DWORD PTR _this$[ebp]
  00407	05 c0 01 00 00	 add	 eax, 448		; 000001c0H
  0040c	50		 push	 eax
  0040d	68 00 00 00 00	 push	 OFFSET ??_C@_02CKOPKKAC@sa@
  00412	68 00 00 00 00	 push	 OFFSET ??_C@_06EKCLIHPK@DBUser@
  00417	68 00 00 00 00	 push	 OFFSET ??_C@_0L@KKFJCNPO@PlatformDB@
  0041c	8d 8d dc fc ff
	ff		 lea	 ecx, DWORD PTR _IniData$[ebp]
  00422	ff 15 00 00 00
	00		 call	 DWORD PTR __imp_?ReadEncryptString@CWHIniData@@QAEPBDPBD00PADG@Z

; 177  : 	IniData.ReadEncryptString(TEXT("PlatformDB"), TEXT("DBPass"), TEXT("people"), m_PlatformDBParameter.szDataBasePass, CountArray(m_PlatformDBParameter.szDataBasePass));

  00428	6a 20		 push	 32			; 00000020H
  0042a	8b 45 ec	 mov	 eax, DWORD PTR _this$[ebp]
  0042d	05 e0 01 00 00	 add	 eax, 480		; 000001e0H
  00432	50		 push	 eax
  00433	68 00 00 00 00	 push	 OFFSET ??_C@_06PPNIIDOF@people@
  00438	68 00 00 00 00	 push	 OFFSET ??_C@_06HJGLHJBN@DBPass@
  0043d	68 00 00 00 00	 push	 OFFSET ??_C@_0L@KKFJCNPO@PlatformDB@
  00442	8d 8d dc fc ff
	ff		 lea	 ecx, DWORD PTR _IniData$[ebp]
  00448	ff 15 00 00 00
	00		 call	 DWORD PTR __imp_?ReadEncryptString@CWHIniData@@QAEPBDPBD00PADG@Z

; 178  : 	IniData.ReadEncryptString(TEXT("PlatformDB"), TEXT("DBName"), szPlatformDB,m_PlatformDBParameter.szDataBaseName,CountArray(m_PlatformDBParameter.szDataBaseName));

  0044e	6a 20		 push	 32			; 00000020H
  00450	8b 45 ec	 mov	 eax, DWORD PTR _this$[ebp]
  00453	05 00 02 00 00	 add	 eax, 512		; 00000200H
  00458	50		 push	 eax
  00459	68 00 00 00 00	 push	 OFFSET ?szPlatformDB@@3QBDB
  0045e	68 00 00 00 00	 push	 OFFSET ??_C@_06KMJLGLFD@DBName@
  00463	68 00 00 00 00	 push	 OFFSET ??_C@_0L@KKFJCNPO@PlatformDB@
  00468	8d 8d dc fc ff
	ff		 lea	 ecx, DWORD PTR _IniData$[ebp]
  0046e	ff 15 00 00 00
	00		 call	 DWORD PTR __imp_?ReadEncryptString@CWHIniData@@QAEPBDPBD00PADG@Z

; 179  : 
; 180  : 	return;

  00474	c7 45 fc ff ff
	ff ff		 mov	 DWORD PTR __$EHRec$[ebp+8], -1
  0047b	8d 8d dc fc ff
	ff		 lea	 ecx, DWORD PTR _IniData$[ebp]
  00481	ff 15 00 00 00
	00		 call	 DWORD PTR __imp_??1CWHIniData@@UAE@XZ
$LN1@LoadInitPa:

; 181  : }

  00487	8b 4d f4	 mov	 ecx, DWORD PTR __$EHRec$[ebp]
  0048a	64 89 0d 00 00
	00 00		 mov	 DWORD PTR fs:0, ecx
  00491	59		 pop	 ecx
  00492	5f		 pop	 edi
  00493	5e		 pop	 esi
  00494	5b		 pop	 ebx
  00495	8b 4d f0	 mov	 ecx, DWORD PTR __$ArrayPad$[ebp]
  00498	33 cd		 xor	 ecx, ebp
  0049a	e8 00 00 00 00	 call	 @__security_check_cookie@4
  0049f	8b e5		 mov	 esp, ebp
  004a1	5d		 pop	 ebp
  004a2	c3		 ret	 0
_TEXT	ENDS
;	COMDAT text$x
text$x	SEGMENT
__unwindfunclet$?LoadInitParameter@CInitParameter@@QAEXXZ$0:
  00000	8d 8d dc fc ff
	ff		 lea	 ecx, DWORD PTR _IniData$[ebp]
  00006	ff 25 00 00 00
	00		 jmp	 DWORD PTR __imp_??1CWHIniData@@UAE@XZ
__ehhandler$?LoadInitParameter@CInitParameter@@QAEXXZ:
  0000c	8b 54 24 08	 mov	 edx, DWORD PTR [esp+8]
  00010	8d 42 0c	 lea	 eax, DWORD PTR [edx+12]
  00013	8b 8a 58 fc ff
	ff		 mov	 ecx, DWORD PTR [edx-936]
  00019	33 c8		 xor	 ecx, eax
  0001b	e8 00 00 00 00	 call	 @__security_check_cookie@4
  00020	8b 4a fc	 mov	 ecx, DWORD PTR [edx-4]
  00023	33 c8		 xor	 ecx, eax
  00025	e8 00 00 00 00	 call	 @__security_check_cookie@4
  0002a	b8 00 00 00 00	 mov	 eax, OFFSET __ehfuncinfo$?LoadInitParameter@CInitParameter@@QAEXXZ
  0002f	e9 00 00 00 00	 jmp	 ___CxxFrameHandler3
text$x	ENDS
?LoadInitParameter@CInitParameter@@QAEXXZ ENDP		; CInitParameter::LoadInitParameter
; Function compile flags: /Odtp /ZI
; File g:\网狐\happygamewh\服务端\系统模块\服务器组件\登录服务器\initparameter.cpp
;	COMDAT ?InitParameter@CInitParameter@@QAEXXZ
_TEXT	SEGMENT
_this$ = -4						; size = 4
?InitParameter@CInitParameter@@QAEXXZ PROC		; CInitParameter::InitParameter, COMDAT
; _this$ = ecx

; 31   : {

  00000	55		 push	 ebp
  00001	8b ec		 mov	 ebp, esp
  00003	83 ec 44	 sub	 esp, 68			; 00000044H
  00006	53		 push	 ebx
  00007	56		 push	 esi
  00008	57		 push	 edi
  00009	89 4d fc	 mov	 DWORD PTR _this$[ebp], ecx

; 32   : 	//时间定义
; 33   : 	m_wConnectTime=TIME_CONNECT;

  0000c	b8 1e 00 00 00	 mov	 eax, 30			; 0000001eH
  00011	8b 4d fc	 mov	 ecx, DWORD PTR _this$[ebp]
  00014	66 89 41 2a	 mov	 WORD PTR [ecx+42], ax

; 34   : 	m_wCollectTime=TIME_COLLECT;

  00018	b8 2c 01 00 00	 mov	 eax, 300		; 0000012cH
  0001d	8b 4d fc	 mov	 ecx, DWORD PTR _this$[ebp]
  00020	66 89 41 2c	 mov	 WORD PTR [ecx+44], ax

; 35   : 	m_wLoadListTime=TIME_LOAD_LIST;

  00024	b8 78 00 00 00	 mov	 eax, 120		; 00000078H
  00029	8b 4d fc	 mov	 ecx, DWORD PTR _this$[ebp]
  0002c	66 89 41 2e	 mov	 WORD PTR [ecx+46], ax

; 36   : 	m_wReLoadListTime=TIME_RELOAD_LIST;

  00030	b8 58 02 00 00	 mov	 eax, 600		; 00000258H
  00035	8b 4d fc	 mov	 ecx, DWORD PTR _this$[ebp]
  00038	66 89 41 30	 mov	 WORD PTR [ecx+48], ax

; 37   : 
; 38   : 	//客户时间
; 39   : 	m_wIntermitTime=TIME_INTERMIT;

  0003c	33 c0		 xor	 eax, eax
  0003e	8b 4d fc	 mov	 ecx, DWORD PTR _this$[ebp]
  00041	66 89 41 32	 mov	 WORD PTR [ecx+50], ax

; 40   : 	m_wOnLineCountTime=TIME_ONLINE_COUNT;

  00045	b8 58 02 00 00	 mov	 eax, 600		; 00000258H
  0004a	8b 4d fc	 mov	 ecx, DWORD PTR _this$[ebp]
  0004d	66 89 41 34	 mov	 WORD PTR [ecx+52], ax

; 41   : 
; 42   : 	//系统配置
; 43   : 	m_cbDelayList=TRUE;

  00051	8b 45 fc	 mov	 eax, DWORD PTR _this$[ebp]
  00054	c6 40 04 01	 mov	 BYTE PTR [eax+4], 1

; 44   : 	m_wMaxConnect=MAX_CONTENT;

  00058	b8 00 02 00 00	 mov	 eax, 512		; 00000200H
  0005d	8b 4d fc	 mov	 ecx, DWORD PTR _this$[ebp]
  00060	66 89 41 06	 mov	 WORD PTR [ecx+6], ax

; 45   : 	m_wServicePort=PORT_LOGON;

  00064	b8 72 17 00 00	 mov	 eax, 6002		; 00001772H
  00069	8b 4d fc	 mov	 ecx, DWORD PTR _this$[ebp]
  0006c	66 89 41 08	 mov	 WORD PTR [ecx+8], ax

; 46   : 	ZeroMemory(m_szServerName,sizeof(m_szServerName));

  00070	6a 20		 push	 32			; 00000020H
  00072	6a 00		 push	 0
  00074	8b 45 fc	 mov	 eax, DWORD PTR _this$[ebp]
  00077	83 c0 0a	 add	 eax, 10			; 0000000aH
  0007a	50		 push	 eax
  0007b	e8 00 00 00 00	 call	 _memset
  00080	83 c4 0c	 add	 esp, 12			; 0000000cH

; 47   : 
; 48   : 	//协调信息
; 49   : 	m_wCorrespondPort=PORT_CENTER;

  00083	b8 75 17 00 00	 mov	 eax, 6005		; 00001775H
  00088	8b 4d fc	 mov	 ecx, DWORD PTR _this$[ebp]
  0008b	66 89 41 36	 mov	 WORD PTR [ecx+54], ax

; 50   : 	ZeroMemory(&m_CorrespondAddress,sizeof(m_CorrespondAddress));

  0008f	6a 20		 push	 32			; 00000020H
  00091	6a 00		 push	 0
  00093	8b 45 fc	 mov	 eax, DWORD PTR _this$[ebp]
  00096	83 c0 38	 add	 eax, 56			; 00000038H
  00099	50		 push	 eax
  0009a	e8 00 00 00 00	 call	 _memset
  0009f	83 c4 0c	 add	 esp, 12			; 0000000cH

; 51   : 
; 52   : 	//约战信息
; 53   : 	m_wPrsnlRmCorrespondPort=PORT_PERSONAL_ROOM;

  000a2	b8 74 17 00 00	 mov	 eax, 6004		; 00001774H
  000a7	8b 4d fc	 mov	 ecx, DWORD PTR _this$[ebp]
  000aa	66 89 41 58	 mov	 WORD PTR [ecx+88], ax

; 54   : 	ZeroMemory(&m_PrsnlRmCorrespondAddress,sizeof(m_PrsnlRmCorrespondAddress));

  000ae	6a 20		 push	 32			; 00000020H
  000b0	6a 00		 push	 0
  000b2	8b 45 fc	 mov	 eax, DWORD PTR _this$[ebp]
  000b5	83 c0 5a	 add	 eax, 90			; 0000005aH
  000b8	50		 push	 eax
  000b9	e8 00 00 00 00	 call	 _memset
  000be	83 c4 0c	 add	 esp, 12			; 0000000cH

; 55   : 
; 56   : 	//连接信息
; 57   : 	ZeroMemory(&m_ServiceAddress,sizeof(m_ServiceAddress));

  000c1	6a 20		 push	 32			; 00000020H
  000c3	6a 00		 push	 0
  000c5	8b 45 fc	 mov	 eax, DWORD PTR _this$[ebp]
  000c8	83 c0 7a	 add	 eax, 122		; 0000007aH
  000cb	50		 push	 eax
  000cc	e8 00 00 00 00	 call	 _memset
  000d1	83 c4 0c	 add	 esp, 12			; 0000000cH

; 58   : 	ZeroMemory(&m_AccountsDBParameter,sizeof(m_AccountsDBParameter));

  000d4	68 82 00 00 00	 push	 130			; 00000082H
  000d9	6a 00		 push	 0
  000db	8b 45 fc	 mov	 eax, DWORD PTR _this$[ebp]
  000de	05 9a 00 00 00	 add	 eax, 154		; 0000009aH
  000e3	50		 push	 eax
  000e4	e8 00 00 00 00	 call	 _memset
  000e9	83 c4 0c	 add	 esp, 12			; 0000000cH

; 59   : 	ZeroMemory(&m_TreasureDBParameter,sizeof(m_TreasureDBParameter));

  000ec	68 82 00 00 00	 push	 130			; 00000082H
  000f1	6a 00		 push	 0
  000f3	8b 45 fc	 mov	 eax, DWORD PTR _this$[ebp]
  000f6	05 1c 01 00 00	 add	 eax, 284		; 0000011cH
  000fb	50		 push	 eax
  000fc	e8 00 00 00 00	 call	 _memset
  00101	83 c4 0c	 add	 esp, 12			; 0000000cH

; 60   : 	ZeroMemory(&m_PlatformDBParameter,sizeof(m_PlatformDBParameter));

  00104	68 82 00 00 00	 push	 130			; 00000082H
  00109	6a 00		 push	 0
  0010b	8b 45 fc	 mov	 eax, DWORD PTR _this$[ebp]
  0010e	05 9e 01 00 00	 add	 eax, 414		; 0000019eH
  00113	50		 push	 eax
  00114	e8 00 00 00 00	 call	 _memset
  00119	83 c4 0c	 add	 esp, 12			; 0000000cH

; 61   : 
; 62   : 	return;
; 63   : }

  0011c	5f		 pop	 edi
  0011d	5e		 pop	 esi
  0011e	5b		 pop	 ebx
  0011f	8b e5		 mov	 esp, ebp
  00121	5d		 pop	 ebp
  00122	c3		 ret	 0
?InitParameter@CInitParameter@@QAEXXZ ENDP		; CInitParameter::InitParameter
_TEXT	ENDS
; Function compile flags: /Odtp /ZI
; File g:\网狐\happygamewh\服务端\系统模块\服务器组件\登录服务器\initparameter.cpp
;	COMDAT ??1CInitParameter@@UAE@XZ
_TEXT	SEGMENT
_this$ = -4						; size = 4
??1CInitParameter@@UAE@XZ PROC				; CInitParameter::~CInitParameter, COMDAT
; _this$ = ecx

; 26   : {

  00000	55		 push	 ebp
  00001	8b ec		 mov	 ebp, esp
  00003	83 ec 44	 sub	 esp, 68			; 00000044H
  00006	53		 push	 ebx
  00007	56		 push	 esi
  00008	57		 push	 edi
  00009	89 4d fc	 mov	 DWORD PTR _this$[ebp], ecx
  0000c	8b 45 fc	 mov	 eax, DWORD PTR _this$[ebp]
  0000f	c7 00 00 00 00
	00		 mov	 DWORD PTR [eax], OFFSET ??_7CInitParameter@@6B@

; 27   : }

  00015	5f		 pop	 edi
  00016	5e		 pop	 esi
  00017	5b		 pop	 ebx
  00018	8b e5		 mov	 esp, ebp
  0001a	5d		 pop	 ebp
  0001b	c3		 ret	 0
??1CInitParameter@@UAE@XZ ENDP				; CInitParameter::~CInitParameter
_TEXT	ENDS
; Function compile flags: /Odtp /ZI
; File g:\网狐\happygamewh\服务端\系统模块\服务器组件\登录服务器\initparameter.cpp
;	COMDAT ??0CInitParameter@@QAE@XZ
_TEXT	SEGMENT
_this$ = -4						; size = 4
??0CInitParameter@@QAE@XZ PROC				; CInitParameter::CInitParameter, COMDAT
; _this$ = ecx

; 20   : { 

  00000	55		 push	 ebp
  00001	8b ec		 mov	 ebp, esp
  00003	83 ec 44	 sub	 esp, 68			; 00000044H
  00006	53		 push	 ebx
  00007	56		 push	 esi
  00008	57		 push	 edi
  00009	89 4d fc	 mov	 DWORD PTR _this$[ebp], ecx
  0000c	8b 45 fc	 mov	 eax, DWORD PTR _this$[ebp]
  0000f	c7 00 00 00 00
	00		 mov	 DWORD PTR [eax], OFFSET ??_7CInitParameter@@6B@

; 21   : 	InitParameter();

  00015	8b 4d fc	 mov	 ecx, DWORD PTR _this$[ebp]
  00018	e8 00 00 00 00	 call	 ?InitParameter@CInitParameter@@QAEXXZ ; CInitParameter::InitParameter

; 22   : }

  0001d	8b 45 fc	 mov	 eax, DWORD PTR _this$[ebp]
  00020	5f		 pop	 edi
  00021	5e		 pop	 esi
  00022	5b		 pop	 ebx
  00023	8b e5		 mov	 esp, ebp
  00025	5d		 pop	 ebp
  00026	c3		 ret	 0
??0CInitParameter@@QAE@XZ ENDP				; CInitParameter::CInitParameter
_TEXT	ENDS
; Function compile flags: /Odtp /ZI
; File c:\program files (x86)\windows kits\10\include\10.0.17763.0\ucrt\stdio.h
;	COMDAT __vsnprintf_s
_TEXT	SEGMENT
__Buffer$ = 8						; size = 4
__BufferCount$ = 12					; size = 4
__MaxCount$ = 16					; size = 4
__Format$ = 20						; size = 4
__ArgList$ = 24						; size = 4
__vsnprintf_s PROC					; COMDAT

; 1605 :     {

  00000	55		 push	 ebp
  00001	8b ec		 mov	 ebp, esp
  00003	83 ec 40	 sub	 esp, 64			; 00000040H
  00006	53		 push	 ebx
  00007	56		 push	 esi
  00008	57		 push	 edi

; 1606 :         return _vsnprintf_s_l(_Buffer, _BufferCount, _MaxCount, _Format, NULL, _ArgList);

  00009	8b 45 18	 mov	 eax, DWORD PTR __ArgList$[ebp]
  0000c	50		 push	 eax
  0000d	6a 00		 push	 0
  0000f	8b 4d 14	 mov	 ecx, DWORD PTR __Format$[ebp]
  00012	51		 push	 ecx
  00013	8b 55 10	 mov	 edx, DWORD PTR __MaxCount$[ebp]
  00016	52		 push	 edx
  00017	8b 45 0c	 mov	 eax, DWORD PTR __BufferCount$[ebp]
  0001a	50		 push	 eax
  0001b	8b 4d 08	 mov	 ecx, DWORD PTR __Buffer$[ebp]
  0001e	51		 push	 ecx
  0001f	e8 00 00 00 00	 call	 __vsnprintf_s_l
  00024	83 c4 18	 add	 esp, 24			; 00000018H

; 1607 :     }

  00027	5f		 pop	 edi
  00028	5e		 pop	 esi
  00029	5b		 pop	 ebx
  0002a	8b e5		 mov	 esp, ebp
  0002c	5d		 pop	 ebp
  0002d	c3		 ret	 0
__vsnprintf_s ENDP
_TEXT	ENDS
; Function compile flags: /Odtp /ZI
; File c:\program files (x86)\windows kits\10\include\10.0.17763.0\ucrt\stdio.h
;	COMDAT __vsnprintf_s_l
_TEXT	SEGMENT
tv74 = -72						; size = 4
__Result$ = -4						; size = 4
__Buffer$ = 8						; size = 4
__BufferCount$ = 12					; size = 4
__MaxCount$ = 16					; size = 4
__Format$ = 20						; size = 4
__Locale$ = 24						; size = 4
__ArgList$ = 28						; size = 4
__vsnprintf_s_l PROC					; COMDAT

; 1584 :     {

  00000	55		 push	 ebp
  00001	8b ec		 mov	 ebp, esp
  00003	83 ec 48	 sub	 esp, 72			; 00000048H
  00006	53		 push	 ebx
  00007	56		 push	 esi
  00008	57		 push	 edi

; 1585 :         int const _Result = __stdio_common_vsnprintf_s(

  00009	8b 45 1c	 mov	 eax, DWORD PTR __ArgList$[ebp]
  0000c	50		 push	 eax
  0000d	8b 4d 18	 mov	 ecx, DWORD PTR __Locale$[ebp]
  00010	51		 push	 ecx
  00011	8b 55 14	 mov	 edx, DWORD PTR __Format$[ebp]
  00014	52		 push	 edx
  00015	8b 45 10	 mov	 eax, DWORD PTR __MaxCount$[ebp]
  00018	50		 push	 eax
  00019	8b 4d 0c	 mov	 ecx, DWORD PTR __BufferCount$[ebp]
  0001c	51		 push	 ecx
  0001d	8b 55 08	 mov	 edx, DWORD PTR __Buffer$[ebp]
  00020	52		 push	 edx
  00021	e8 00 00 00 00	 call	 ___local_stdio_printf_options
  00026	8b 48 04	 mov	 ecx, DWORD PTR [eax+4]
  00029	51		 push	 ecx
  0002a	8b 10		 mov	 edx, DWORD PTR [eax]
  0002c	52		 push	 edx
  0002d	ff 15 00 00 00
	00		 call	 DWORD PTR __imp____stdio_common_vsnprintf_s
  00033	83 c4 20	 add	 esp, 32			; 00000020H
  00036	89 45 fc	 mov	 DWORD PTR __Result$[ebp], eax

; 1586 :             _CRT_INTERNAL_LOCAL_PRINTF_OPTIONS,
; 1587 :             _Buffer, _BufferCount, _MaxCount, _Format, _Locale, _ArgList);
; 1588 : 
; 1589 :         return _Result < 0 ? -1 : _Result;

  00039	83 7d fc 00	 cmp	 DWORD PTR __Result$[ebp], 0
  0003d	7d 09		 jge	 SHORT $LN3@vsnprintf_
  0003f	c7 45 b8 ff ff
	ff ff		 mov	 DWORD PTR tv74[ebp], -1
  00046	eb 06		 jmp	 SHORT $LN4@vsnprintf_
$LN3@vsnprintf_:
  00048	8b 45 fc	 mov	 eax, DWORD PTR __Result$[ebp]
  0004b	89 45 b8	 mov	 DWORD PTR tv74[ebp], eax
$LN4@vsnprintf_:
  0004e	8b 45 b8	 mov	 eax, DWORD PTR tv74[ebp]

; 1590 :     }

  00051	5f		 pop	 edi
  00052	5e		 pop	 esi
  00053	5b		 pop	 ebx
  00054	8b e5		 mov	 esp, ebp
  00056	5d		 pop	 ebp
  00057	c3		 ret	 0
__vsnprintf_s_l ENDP
_TEXT	ENDS
; Function compile flags: /Odtp /ZI
; File c:\program files (x86)\windows kits\10\include\10.0.17763.0\ucrt\corecrt_stdio_config.h
;	COMDAT ___local_stdio_printf_options
_TEXT	SEGMENT
___local_stdio_printf_options PROC			; COMDAT

; 86   :     {

  00000	55		 push	 ebp
  00001	8b ec		 mov	 ebp, esp
  00003	83 ec 40	 sub	 esp, 64			; 00000040H
  00006	53		 push	 ebx
  00007	56		 push	 esi
  00008	57		 push	 edi

; 87   :         static unsigned __int64 _OptionsStorage;
; 88   :         return &_OptionsStorage;

  00009	b8 00 00 00 00	 mov	 eax, OFFSET ?_OptionsStorage@?1??__local_stdio_printf_options@@9@4_KA ; `__local_stdio_printf_options'::`2'::_OptionsStorage

; 89   :     }

  0000e	5f		 pop	 edi
  0000f	5e		 pop	 esi
  00010	5b		 pop	 ebx
  00011	8b e5		 mov	 esp, ebp
  00013	5d		 pop	 ebp
  00014	c3		 ret	 0
___local_stdio_printf_options ENDP
_TEXT	ENDS
; Function compile flags: /Odtp /ZI
; File g:\网狐\happygamewh\服务端\系统模块\服务器组件\登录服务器\initparameter.cpp
;	COMDAT ?__empty_global_delete@@YAXPAXI@Z
_TEXT	SEGMENT
___formal$ = 8						; size = 4
___formal$ = 12						; size = 4
?__empty_global_delete@@YAXPAXI@Z PROC			; __empty_global_delete, COMDAT

  00000	55		 push	 ebp
  00001	8b ec		 mov	 ebp, esp
  00003	83 ec 40	 sub	 esp, 64			; 00000040H
  00006	53		 push	 ebx
  00007	56		 push	 esi
  00008	57		 push	 edi
  00009	5f		 pop	 edi
  0000a	5e		 pop	 esi
  0000b	5b		 pop	 ebx
  0000c	8b e5		 mov	 esp, ebp
  0000e	5d		 pop	 ebp
  0000f	c3		 ret	 0
?__empty_global_delete@@YAXPAXI@Z ENDP			; __empty_global_delete
_TEXT	ENDS
; Function compile flags: /Odtp /ZI
; File g:\网狐\happygamewh\服务端\系统模块\服务器组件\登录服务器\initparameter.cpp
;	COMDAT ?__empty_global_delete@@YAXPAX@Z
_TEXT	SEGMENT
___formal$ = 8						; size = 4
?__empty_global_delete@@YAXPAX@Z PROC			; __empty_global_delete, COMDAT

  00000	55		 push	 ebp
  00001	8b ec		 mov	 ebp, esp
  00003	83 ec 40	 sub	 esp, 64			; 00000040H
  00006	53		 push	 ebx
  00007	56		 push	 esi
  00008	57		 push	 edi
  00009	5f		 pop	 edi
  0000a	5e		 pop	 esi
  0000b	5b		 pop	 ebx
  0000c	8b e5		 mov	 esp, ebp
  0000e	5d		 pop	 ebp
  0000f	c3		 ret	 0
?__empty_global_delete@@YAXPAX@Z ENDP			; __empty_global_delete
_TEXT	ENDS
END
