; Listing generated by Microsoft (R) Optimizing Compiler Version 19.16.27032.1 

	TITLE	G:\网狐\HappyGameWH\服务端\系统模块\服务器组件\登录服务器\LogonServerDlg.cpp
	.686P
	.XMM
	include listing.inc
	.model	flat

INCLUDELIB MSVCRTD
INCLUDELIB OLDNAMES

PUBLIC	?OnBnClickedStartService@CLogonServerDlg@@IAEXXZ ; CLogonServerDlg::OnBnClickedStartService
PUBLIC	?OnBnClickedStopService@CLogonServerDlg@@IAEXXZ	; CLogonServerDlg::OnBnClickedStopService
PUBLIC	?OnBnClickedInitService@CLogonServerDlg@@IAEXXZ	; CLogonServerDlg::OnBnClickedInitService
PUBLIC	?OnQueryEndSession@CLogonServerDlg@@QAEHXZ	; CLogonServerDlg::OnQueryEndSession
EXTRN	?GetThisMessageMap@CDialog@@KGPBUAFX_MSGMAP@@XZ:PROC ; CDialog::GetThisMessageMap
CONST	SEGMENT
?szPlatformDB@@3QBDB DB 'QPPlatformDB', 00H		; szPlatformDB
	ORG $+3
?szAccountsDB@@3QBDB DB 'QPAccountsDB', 00H		; szAccountsDB
	ORG $+3
?szTreasureDB@@3QBDB DB 'QPTreasureDB', 00H		; szTreasureDB
	ORG $+3
?_messageEntries@?1??GetThisMessageMap@CSystemOptionDlg@@KGPBUAFX_MSGMAP@@XZ@4QBUAFX_MSGMAP_ENTRY@@B DD 00H ; `CSystemOptionDlg::GetThisMessageMap'::`2'::_messageEntries
	DD	00H
	DD	00H
	DD	00H
	DD	00H
	DD	00H
?messageMap@?1??GetThisMessageMap@CSystemOptionDlg@@KGPBUAFX_MSGMAP@@XZ@4U3@B DD FLAT:?GetThisMessageMap@CDialog@@KGPBUAFX_MSGMAP@@XZ ; `CSystemOptionDlg::GetThisMessageMap'::`2'::messageMap
	DD	FLAT:?_messageEntries@?1??GetThisMessageMap@CSystemOptionDlg@@KGPBUAFX_MSGMAP@@XZ@4QBUAFX_MSGMAP_ENTRY@@B
?_messageEntries@?1??GetThisMessageMap@CLogonServerDlg@@KGPBUAFX_MSGMAP@@XZ@4QBUAFX_MSGMAP_ENTRY@@B DD 011H ; `CLogonServerDlg::GetThisMessageMap'::`2'::_messageEntries
	DD	00H
	DD	00H
	DD	00H
	DD	01eH
	DD	FLAT:?OnQueryEndSession@CLogonServerDlg@@QAEHXZ
	DD	0111H
	DD	00H
	DD	03ecH
	DD	03ecH
	DD	03aH
	DD	FLAT:?OnBnClickedStopService@CLogonServerDlg@@IAEXXZ
	DD	0111H
	DD	00H
	DD	03ebH
	DD	03ebH
	DD	03aH
	DD	FLAT:?OnBnClickedStartService@CLogonServerDlg@@IAEXXZ
	DD	0111H
	DD	00H
	DD	03edH
	DD	03edH
	DD	03aH
	DD	FLAT:?OnBnClickedInitService@CLogonServerDlg@@IAEXXZ
	DD	00H
	DD	00H
	DD	00H
	DD	00H
	DD	00H
	DD	00H
?messageMap@?1??GetThisMessageMap@CLogonServerDlg@@KGPBUAFX_MSGMAP@@XZ@4U3@B DD FLAT:?GetThisMessageMap@CDialog@@KGPBUAFX_MSGMAP@@XZ ; `CLogonServerDlg::GetThisMessageMap'::`2'::messageMap
	DD	FLAT:?_messageEntries@?1??GetThisMessageMap@CLogonServerDlg@@KGPBUAFX_MSGMAP@@XZ@4QBUAFX_MSGMAP_ENTRY@@B
CONST	ENDS
PUBLIC	??_H@YGXPAXIIP6EPAX0@Z@Z			; `vector constructor iterator'
PUBLIC	?__empty_global_delete@@YAXPAX@Z		; __empty_global_delete
PUBLIC	?__empty_global_delete@@YAXPAXI@Z		; __empty_global_delete
PUBLIC	___local_stdio_printf_options
PUBLIC	__vsnprintf_l
PUBLIC	__vsnprintf
PUBLIC	__snprintf
PUBLIC	?AfxAssertFailedLine@@YGHPBDH@Z			; AfxAssertFailedLine
PUBLIC	??0CInitParameter@@QAE@ABV0@@Z			; CInitParameter::CInitParameter
PUBLIC	??_GCInitParameter@@UAEPAXI@Z			; CInitParameter::`scalar deleting destructor'
PUBLIC	??0IServiceUnitsSink@@QAE@XZ			; IServiceUnitsSink::IServiceUnitsSink
PUBLIC	?GetServiceStatus@CServiceUnits@@QAE?AW4enServiceStatus@@XZ ; CServiceUnits::GetServiceStatus
PUBLIC	?GetInitParameter@CServiceUnits@@QAE?AVCInitParameter@@XZ ; CServiceUnits::GetInitParameter
PUBLIC	??0CSystemOptionDlg@@QAE@XZ			; CSystemOptionDlg::CSystemOptionDlg
PUBLIC	??1CSystemOptionDlg@@UAE@XZ			; CSystemOptionDlg::~CSystemOptionDlg
PUBLIC	?OnInitDialog@CSystemOptionDlg@@MAEHXZ		; CSystemOptionDlg::OnInitDialog
PUBLIC	?DoDataExchange@CSystemOptionDlg@@MAEXPAVCDataExchange@@@Z ; CSystemOptionDlg::DoDataExchange
PUBLIC	?OnOK@CSystemOptionDlg@@MAEXXZ			; CSystemOptionDlg::OnOK
PUBLIC	?GetThisMessageMap@CSystemOptionDlg@@KGPBUAFX_MSGMAP@@XZ ; CSystemOptionDlg::GetThisMessageMap
PUBLIC	?GetMessageMap@CSystemOptionDlg@@MBEPBUAFX_MSGMAP@@XZ ; CSystemOptionDlg::GetMessageMap
PUBLIC	??_GCSystemOptionDlg@@UAEPAXI@Z			; CSystemOptionDlg::`scalar deleting destructor'
PUBLIC	??0CLogonServerDlg@@QAE@XZ			; CLogonServerDlg::CLogonServerDlg
PUBLIC	??1CLogonServerDlg@@UAE@XZ			; CLogonServerDlg::~CLogonServerDlg
PUBLIC	?DoDataExchange@CLogonServerDlg@@MAEXPAVCDataExchange@@@Z ; CLogonServerDlg::DoDataExchange
PUBLIC	?OnInitDialog@CLogonServerDlg@@MAEHXZ		; CLogonServerDlg::OnInitDialog
PUBLIC	?OnOK@CLogonServerDlg@@MAEXXZ			; CLogonServerDlg::OnOK
PUBLIC	?OnCancel@CLogonServerDlg@@MAEXXZ		; CLogonServerDlg::OnCancel
PUBLIC	?PreTranslateMessage@CLogonServerDlg@@MAEHPAUtagMSG@@@Z ; CLogonServerDlg::PreTranslateMessage
PUBLIC	?OnServiceUnitsStatus@CLogonServerDlg@@UAEXW4enServiceStatus@@@Z ; CLogonServerDlg::OnServiceUnitsStatus
PUBLIC	?OnNetworkEvent@CLogonServerDlg@@QAEJIJ@Z	; CLogonServerDlg::OnNetworkEvent
PUBLIC	?GetThisMessageMap@CLogonServerDlg@@KGPBUAFX_MSGMAP@@XZ ; CLogonServerDlg::GetThisMessageMap
PUBLIC	?GetMessageMap@CLogonServerDlg@@MBEPBUAFX_MSGMAP@@XZ ; CLogonServerDlg::GetMessageMap
PUBLIC	??_GCLogonServerDlg@@UAEPAXI@Z			; CLogonServerDlg::`scalar deleting destructor'
PUBLIC	?_OptionsStorage@?1??__local_stdio_printf_options@@9@4_KA ; `__local_stdio_printf_options'::`2'::_OptionsStorage
PUBLIC	??_C@_00CNPNBAHC@@				; `string'
PUBLIC	??_R1A@?0A@EA@CObject@@8			; CObject::`RTTI Base Class Descriptor at (0,-1,0,64)'
PUBLIC	??_R0?AVCObject@@@8				; CObject `RTTI Type Descriptor'
PUBLIC	??_R3CObject@@8					; CObject::`RTTI Class Hierarchy Descriptor'
PUBLIC	??_R2CObject@@8					; CObject::`RTTI Base Class Array'
PUBLIC	??_R1A@?0A@EA@CDialog@@8			; CDialog::`RTTI Base Class Descriptor at (0,-1,0,64)'
PUBLIC	??_R0?AVCDialog@@@8				; CDialog `RTTI Type Descriptor'
PUBLIC	??_R3CDialog@@8					; CDialog::`RTTI Class Hierarchy Descriptor'
PUBLIC	??_R2CDialog@@8					; CDialog::`RTTI Base Class Array'
PUBLIC	??_R1A@?0A@EA@CWnd@@8				; CWnd::`RTTI Base Class Descriptor at (0,-1,0,64)'
PUBLIC	??_R0?AVCWnd@@@8				; CWnd `RTTI Type Descriptor'
PUBLIC	??_R3CWnd@@8					; CWnd::`RTTI Class Hierarchy Descriptor'
PUBLIC	??_R2CWnd@@8					; CWnd::`RTTI Base Class Array'
PUBLIC	??_R1A@?0A@EA@CCmdTarget@@8			; CCmdTarget::`RTTI Base Class Descriptor at (0,-1,0,64)'
PUBLIC	??_R0?AVCCmdTarget@@@8				; CCmdTarget `RTTI Type Descriptor'
PUBLIC	??_R3CCmdTarget@@8				; CCmdTarget::`RTTI Class Hierarchy Descriptor'
PUBLIC	??_R2CCmdTarget@@8				; CCmdTarget::`RTTI Base Class Array'
PUBLIC	??_7CInitParameter@@6B@				; CInitParameter::`vftable'
PUBLIC	??_7IServiceUnitsSink@@6B@			; IServiceUnitsSink::`vftable'
PUBLIC	??_7CSystemOptionDlg@@6B@			; CSystemOptionDlg::`vftable'
PUBLIC	??_7CLogonServerDlg@@6BCDialog@@@		; CLogonServerDlg::`vftable'
PUBLIC	??_7CLogonServerDlg@@6BIServiceUnitsSink@@@	; CLogonServerDlg::`vftable'
PUBLIC	??_C@_08GGKIMEBF@?$LB?$LO?$LF?X?$LC?b?J?T@	; `string'
PUBLIC	??_C@_09PFCHIMEP@127?40?40?41@			; `string'
PUBLIC	??_C@_02CKOPKKAC@sa@				; `string'
PUBLIC	??_C@_06PPNIIDOF@people@			; `string'
PUBLIC	??_C@_0M@PCENNPGA@?$CFd?4?$CFd?4?$CFd?4?$CFd@	; `string'
PUBLIC	??_C@_0BH@HJPOPDCD@?$LF?G?B?$LM?$LH?$PO?N?q?F?w?5?9?9?5?$FL?5?M?$KD?V?$LJ?5?$FN@ ; `string'
PUBLIC	??_C@_0CN@CFDAPCBF@?$LF?G?B?$LM?$LH?$PO?N?q?F?w?U?$PN?T?Z?T?K?P?P?V?P?$KD?$KM?D?z?H?$LH?J?$LF?R?$KK?$LJ@ ; `string'
PUBLIC	??_C@_0N@HNGKNHMM@?$LH?$PO?N?q?M?$KD?V?$LJ?$LD?I?$LJ?$KG@ ; `string'
PUBLIC	??_C@_0BJ@HMGHIFOC@?$LF?G?B?$LM?$LH?$PO?N?q?F?w?5?9?9?5?$FL?5?$LD?u?J?$LM?$LL?$KP?5?$FN@ ; `string'
PUBLIC	??_C@_0BC@OFPAKDFO@?U?$PN?T?Z?$LD?u?J?$LM?$LL?$KP?W?i?$LM?$PO?4?4?4@ ; `string'
PUBLIC	??_C@_0BH@KGHBOKCA@?$LF?G?B?$LM?$LH?$PO?N?q?F?w?5?9?9?5?$FL?5?T?K?P?P?5?$FN@ ; `string'
PUBLIC	??_C@_0BJ@HLOOMBNP@?$LH?$PO?N?q?F?t?$LG?$KP?$LD?I?$LJ?$KG?5?$FL?5?$LG?K?$LP?Z?3?$CFd?5?$FN@ ; `string'
PUBLIC	?__LINE__Var@?0??OnBnClickedStartService@CLogonServerDlg@@IAEXXZ@4JA ; `CLogonServerDlg::OnBnClickedStartService'::`1'::__LINE__Var
PUBLIC	??_C@_0EN@BFOCKBP@g?3?2?M?x?$LK?$PM?2happygamewh?2?$LH?$PO?N?q?$LG?K?2?O?$LF?M?$LD@ ; `string'
PUBLIC	?__LINE__Var@?0??OnBnClickedStopService@CLogonServerDlg@@IAEXXZ@4JA ; `CLogonServerDlg::OnBnClickedStopService'::`1'::__LINE__Var
PUBLIC	??_C@_0CJ@LFENAACN@?$LH?$PO?N?q?U?$PN?T?Z?T?K?P?P?V?P?$KD?$KM?O?$LF?M?$LD?R?$KK?G?s?W?$KC?O?z?$LL?X?$LL@ ; `string'
PUBLIC	??_R4CInitParameter@@6B@			; CInitParameter::`RTTI Complete Object Locator'
PUBLIC	??_R0?AVCInitParameter@@@8			; CInitParameter `RTTI Type Descriptor'
PUBLIC	??_R3CInitParameter@@8				; CInitParameter::`RTTI Class Hierarchy Descriptor'
PUBLIC	??_R2CInitParameter@@8				; CInitParameter::`RTTI Base Class Array'
PUBLIC	??_R1A@?0A@EA@CInitParameter@@8			; CInitParameter::`RTTI Base Class Descriptor at (0,-1,0,64)'
PUBLIC	??_R4IServiceUnitsSink@@6B@			; IServiceUnitsSink::`RTTI Complete Object Locator'
PUBLIC	??_R0?AUIServiceUnitsSink@@@8			; IServiceUnitsSink `RTTI Type Descriptor'
PUBLIC	??_R3IServiceUnitsSink@@8			; IServiceUnitsSink::`RTTI Class Hierarchy Descriptor'
PUBLIC	??_R2IServiceUnitsSink@@8			; IServiceUnitsSink::`RTTI Base Class Array'
PUBLIC	??_R1A@?0A@EA@IServiceUnitsSink@@8		; IServiceUnitsSink::`RTTI Base Class Descriptor at (0,-1,0,64)'
PUBLIC	??_R4CSystemOptionDlg@@6B@			; CSystemOptionDlg::`RTTI Complete Object Locator'
PUBLIC	??_R0?AVCSystemOptionDlg@@@8			; CSystemOptionDlg `RTTI Type Descriptor'
PUBLIC	??_R3CSystemOptionDlg@@8			; CSystemOptionDlg::`RTTI Class Hierarchy Descriptor'
PUBLIC	??_R2CSystemOptionDlg@@8			; CSystemOptionDlg::`RTTI Base Class Array'
PUBLIC	??_R1A@?0A@EA@CSystemOptionDlg@@8		; CSystemOptionDlg::`RTTI Base Class Descriptor at (0,-1,0,64)'
PUBLIC	??_R4CLogonServerDlg@@6BCDialog@@@		; CLogonServerDlg::`RTTI Complete Object Locator'
PUBLIC	??_R0?AVCLogonServerDlg@@@8			; CLogonServerDlg `RTTI Type Descriptor'
PUBLIC	??_R3CLogonServerDlg@@8				; CLogonServerDlg::`RTTI Class Hierarchy Descriptor'
PUBLIC	??_R2CLogonServerDlg@@8				; CLogonServerDlg::`RTTI Base Class Array'
PUBLIC	??_R1A@?0A@EA@CLogonServerDlg@@8		; CLogonServerDlg::`RTTI Base Class Descriptor at (0,-1,0,64)'
PUBLIC	??_R1KI@?0A@EA@IServiceUnitsSink@@8		; IServiceUnitsSink::`RTTI Base Class Descriptor at (168,-1,0,64)'
PUBLIC	??_R4CLogonServerDlg@@6BIServiceUnitsSink@@@	; CLogonServerDlg::`RTTI Complete Object Locator'
EXTRN	__purecall:PROC
EXTRN	??3@YAXPAXI@Z:PROC				; operator delete
EXTRN	?__global_delete@@YAXPAXI@Z:PROC		; __global_delete
EXTRN	__imp__PeekMessageA@20:PROC
EXTRN	__imp__PostQuitMessage@4:PROC
EXTRN	__imp__LoadIconA@8:PROC
EXTRN	__imp____stdio_common_vsprintf:PROC
EXTRN	__imp___CrtDbgReport:PROC
EXTRN	??3CObject@@SGXPAX@Z:PROC			; CObject::operator delete
EXTRN	?Serialize@CObject@@UAEXAAVCArchive@@@Z:PROC	; CObject::Serialize
EXTRN	?DDX_Control@@YGXPAVCDataExchange@@HAAVCWnd@@@Z:PROC ; DDX_Control
EXTRN	?IsInvokeAllowed@CCmdTarget@@UAEHJ@Z:PROC	; CCmdTarget::IsInvokeAllowed
EXTRN	?GetDispatchIID@CCmdTarget@@UAEHPAU_GUID@@@Z:PROC ; CCmdTarget::GetDispatchIID
EXTRN	?GetTypeInfoCount@CCmdTarget@@UAEIXZ:PROC	; CCmdTarget::GetTypeInfoCount
EXTRN	?GetTypeLibCache@CCmdTarget@@UAEPAVCTypeLibCache@@XZ:PROC ; CCmdTarget::GetTypeLibCache
EXTRN	?GetTypeLib@CCmdTarget@@UAEJKPAPAUITypeLib@@@Z:PROC ; CCmdTarget::GetTypeLib
EXTRN	?GetCommandMap@CCmdTarget@@MBEPBUAFX_OLECMDMAP@@XZ:PROC ; CCmdTarget::GetCommandMap
EXTRN	?GetDispatchMap@CCmdTarget@@MBEPBUAFX_DISPMAP@@XZ:PROC ; CCmdTarget::GetDispatchMap
EXTRN	?GetConnectionMap@CCmdTarget@@MBEPBUAFX_CONNECTIONMAP@@XZ:PROC ; CCmdTarget::GetConnectionMap
EXTRN	?GetEventSinkMap@CCmdTarget@@MBEPBUAFX_EVENTSINKMAP@@XZ:PROC ; CCmdTarget::GetEventSinkMap
EXTRN	?OnCreateAggregates@CCmdTarget@@UAEHXZ:PROC	; CCmdTarget::OnCreateAggregates
EXTRN	?GetInterfaceHook@CCmdTarget@@UAEPAUIUnknown@@PBX@Z:PROC ; CCmdTarget::GetInterfaceHook
EXTRN	?GetExtraConnectionPoints@CCmdTarget@@MAEHPAVCPtrArray@@@Z:PROC ; CCmdTarget::GetExtraConnectionPoints
EXTRN	?GetConnectionHook@CCmdTarget@@MAEPAUIConnectionPoint@@ABU_GUID@@@Z:PROC ; CCmdTarget::GetConnectionHook
EXTRN	?PreSubclassWindow@CWnd@@UAEXXZ:PROC		; CWnd::PreSubclassWindow
EXTRN	?Create@CWnd@@UAEHPBD0KABUtagRECT@@PAV1@IPAUCCreateContext@@@Z:PROC ; CWnd::Create
EXTRN	?CreateEx@CWnd@@UAEHKPBD0KHHHHPAUHWND__@@PAUHMENU__@@PAX@Z:PROC ; CWnd::CreateEx
EXTRN	?CreateEx@CWnd@@UAEHKPBD0KABUtagRECT@@PAV1@IPAX@Z:PROC ; CWnd::CreateEx
EXTRN	?DestroyWindow@CWnd@@UAEHXZ:PROC		; CWnd::DestroyWindow
EXTRN	?PreCreateWindow@CWnd@@UAEHAAUtagCREATESTRUCTA@@@Z:PROC ; CWnd::PreCreateWindow
EXTRN	?CalcWindowRect@CWnd@@UAEXPAUtagRECT@@I@Z:PROC	; CWnd::CalcWindowRect
EXTRN	?GetDlgItem@CWnd@@QBEPAV1@H@Z:PROC		; CWnd::GetDlgItem
EXTRN	?SetWindowTextA@CWnd@@QAEXPBD@Z:PROC		; CWnd::SetWindowTextA
EXTRN	?GetMenu@CWnd@@UBEPAVCMenu@@XZ:PROC		; CWnd::GetMenu
EXTRN	?SetMenu@CWnd@@UAEHPAVCMenu@@@Z:PROC		; CWnd::SetMenu
EXTRN	?OnToolHitTest@CWnd@@UBEHVCPoint@@PAUtagTOOLINFOA@@@Z:PROC ; CWnd::OnToolHitTest
EXTRN	?EnableWindow@CWnd@@QAEHH@Z:PROC		; CWnd::EnableWindow
EXTRN	?GetDlgItemInt@CWnd@@QBEIHPAHH@Z:PROC		; CWnd::GetDlgItemInt
EXTRN	?GetDlgItemTextA@CWnd@@QBEHHPADH@Z:PROC		; CWnd::GetDlgItemTextA
EXTRN	?SetDlgItemInt@CWnd@@QAEXHIH@Z:PROC		; CWnd::SetDlgItemInt
EXTRN	?SetDlgItemTextA@CWnd@@QAEXHPBD@Z:PROC		; CWnd::SetDlgItemTextA
EXTRN	?GetScrollBarCtrl@CWnd@@UBEPAVCScrollBar@@H@Z:PROC ; CWnd::GetScrollBarCtrl
EXTRN	?SetIcon@CWnd@@QAEPAUHICON__@@PAU2@H@Z:PROC	; CWnd::SetIcon
EXTRN	?WinHelpA@CWnd@@UAEXKI@Z:PROC			; CWnd::WinHelpA
EXTRN	?HtmlHelpA@CWnd@@UAEXKI@Z:PROC			; CWnd::HtmlHelpA
EXTRN	?WinHelpInternal@CWnd@@UAEXKI@Z:PROC		; CWnd::WinHelpInternal
EXTRN	?ContinueModal@CWnd@@UAEHXZ:PROC		; CWnd::ContinueModal
EXTRN	?EndModalLoop@CWnd@@UAEXH@Z:PROC		; CWnd::EndModalLoop
EXTRN	?OnDrawIconicThumbnailOrLivePreview@CWnd@@UAEXAAVCDC@@VCRect@@VCSize@@HAAH@Z:PROC ; CWnd::OnDrawIconicThumbnailOrLivePreview
EXTRN	?GetInterfaceMap@CWnd@@MBEPBUAFX_INTERFACEMAP@@XZ:PROC ; CWnd::GetInterfaceMap
EXTRN	?EnsureStdObj@CWnd@@UAEJXZ:PROC			; CWnd::EnsureStdObj
EXTRN	?get_accParent@CWnd@@UAEJPAPAUIDispatch@@@Z:PROC ; CWnd::get_accParent
EXTRN	?get_accChildCount@CWnd@@UAEJPAJ@Z:PROC		; CWnd::get_accChildCount
EXTRN	?get_accChild@CWnd@@UAEJUtagVARIANT@@PAPAUIDispatch@@@Z:PROC ; CWnd::get_accChild
EXTRN	?get_accName@CWnd@@UAEJUtagVARIANT@@PAPA_W@Z:PROC ; CWnd::get_accName
EXTRN	?get_accValue@CWnd@@UAEJUtagVARIANT@@PAPA_W@Z:PROC ; CWnd::get_accValue
EXTRN	?get_accDescription@CWnd@@UAEJUtagVARIANT@@PAPA_W@Z:PROC ; CWnd::get_accDescription
EXTRN	?get_accRole@CWnd@@UAEJUtagVARIANT@@PAU2@@Z:PROC ; CWnd::get_accRole
EXTRN	?get_accState@CWnd@@UAEJUtagVARIANT@@PAU2@@Z:PROC ; CWnd::get_accState
EXTRN	?get_accHelp@CWnd@@UAEJUtagVARIANT@@PAPA_W@Z:PROC ; CWnd::get_accHelp
EXTRN	?get_accHelpTopic@CWnd@@UAEJPAPA_WUtagVARIANT@@PAJ@Z:PROC ; CWnd::get_accHelpTopic
EXTRN	?get_accKeyboardShortcut@CWnd@@UAEJUtagVARIANT@@PAPA_W@Z:PROC ; CWnd::get_accKeyboardShortcut
EXTRN	?get_accFocus@CWnd@@UAEJPAUtagVARIANT@@@Z:PROC	; CWnd::get_accFocus
EXTRN	?get_accSelection@CWnd@@UAEJPAUtagVARIANT@@@Z:PROC ; CWnd::get_accSelection
EXTRN	?get_accDefaultAction@CWnd@@UAEJUtagVARIANT@@PAPA_W@Z:PROC ; CWnd::get_accDefaultAction
EXTRN	?accSelect@CWnd@@UAEJJUtagVARIANT@@@Z:PROC	; CWnd::accSelect
EXTRN	?accLocation@CWnd@@UAEJPAJ000UtagVARIANT@@@Z:PROC ; CWnd::accLocation
EXTRN	?accNavigate@CWnd@@UAEJJUtagVARIANT@@PAU2@@Z:PROC ; CWnd::accNavigate
EXTRN	?accHitTest@CWnd@@UAEJJJPAUtagVARIANT@@@Z:PROC	; CWnd::accHitTest
EXTRN	?accDoDefaultAction@CWnd@@UAEJUtagVARIANT@@@Z:PROC ; CWnd::accDoDefaultAction
EXTRN	?put_accName@CWnd@@UAEJUtagVARIANT@@PA_W@Z:PROC	; CWnd::put_accName
EXTRN	?put_accValue@CWnd@@UAEJUtagVARIANT@@PA_W@Z:PROC ; CWnd::put_accValue
EXTRN	?SetProxy@CWnd@@UAEJPAUIAccessibleProxy@@@Z:PROC ; CWnd::SetProxy
EXTRN	?CreateAccessibleProxy@CWnd@@UAEJIJPAJ@Z:PROC	; CWnd::CreateAccessibleProxy
EXTRN	?OnCommand@CWnd@@MAEHIJ@Z:PROC			; CWnd::OnCommand
EXTRN	?OnNotify@CWnd@@MAEHIJPAJ@Z:PROC		; CWnd::OnNotify
EXTRN	?GetSuperWndProcAddr@CWnd@@MAEPAP6GJPAUHWND__@@IIJ@ZXZ:PROC ; CWnd::GetSuperWndProcAddr
EXTRN	?DoDataExchange@CWnd@@MAEXPAVCDataExchange@@@Z:PROC ; CWnd::DoDataExchange
EXTRN	?BeginModalState@CWnd@@UAEXXZ:PROC		; CWnd::BeginModalState
EXTRN	?EndModalState@CWnd@@UAEXXZ:PROC		; CWnd::EndModalState
EXTRN	?OnAmbientProperty@CWnd@@UAEHPAVCOleControlSite@@JPAUtagVARIANT@@@Z:PROC ; CWnd::OnAmbientProperty
EXTRN	?WindowProc@CWnd@@MAEJIIJ@Z:PROC		; CWnd::WindowProc
EXTRN	?OnWndMsg@CWnd@@MAEHIIJPAJ@Z:PROC		; CWnd::OnWndMsg
EXTRN	?DefWindowProcA@CWnd@@MAEJIIJ@Z:PROC		; CWnd::DefWindowProcA
EXTRN	?PostNcDestroy@CWnd@@MAEXXZ:PROC		; CWnd::PostNcDestroy
EXTRN	?OnChildNotify@CWnd@@MAEHIIJPAJ@Z:PROC		; CWnd::OnChildNotify
EXTRN	?OnTouchInputs@CWnd@@MAEHIPAUtagTOUCHINPUT@@@Z:PROC ; CWnd::OnTouchInputs
EXTRN	?OnTouchInput@CWnd@@MAEHVCPoint@@HHPAUtagTOUCHINPUT@@@Z:PROC ; CWnd::OnTouchInput
EXTRN	?GetGestureStatus@CWnd@@MAEKVCPoint@@@Z:PROC	; CWnd::GetGestureStatus
EXTRN	?OnGestureZoom@CWnd@@MAEHVCPoint@@J@Z:PROC	; CWnd::OnGestureZoom
EXTRN	?OnGesturePan@CWnd@@MAEHVCPoint@@0@Z:PROC	; CWnd::OnGesturePan
EXTRN	?OnGestureRotate@CWnd@@MAEHVCPoint@@N@Z:PROC	; CWnd::OnGestureRotate
EXTRN	?OnGestureTwoFingerTap@CWnd@@MAEHVCPoint@@@Z:PROC ; CWnd::OnGestureTwoFingerTap
EXTRN	?OnGesturePressAndTap@CWnd@@MAEHVCPoint@@J@Z:PROC ; CWnd::OnGesturePressAndTap
EXTRN	?ResizeDynamicLayout@CWnd@@MAEXXZ:PROC		; CWnd::ResizeDynamicLayout
EXTRN	?IsFrameWnd@CWnd@@UBEHXZ:PROC			; CWnd::IsFrameWnd
EXTRN	?OnFinalRelease@CWnd@@UAEXXZ:PROC		; CWnd::OnFinalRelease
EXTRN	?CreateControlContainer@CWnd@@MAEHPAPAVCOleControlContainer@@@Z:PROC ; CWnd::CreateControlContainer
EXTRN	?CreateControlSite@CWnd@@MAEHPAVCOleControlContainer@@PAPAVCOleControlSite@@IABU_GUID@@@Z:PROC ; CWnd::CreateControlSite
EXTRN	?GetRuntimeClass@CDialog@@UBEPAUCRuntimeClass@@XZ:PROC ; CDialog::GetRuntimeClass
EXTRN	?Create@CDialog@@UAEHPBDPAVCWnd@@@Z:PROC	; CDialog::Create
EXTRN	?Create@CDialog@@UAEHIPAVCWnd@@@Z:PROC		; CDialog::Create
EXTRN	?CreateIndirect@CDialog@@UAEHPBUDLGTEMPLATE@@PAVCWnd@@PAX@Z:PROC ; CDialog::CreateIndirect
EXTRN	?CreateIndirect@CDialog@@UAEHPAXPAVCWnd@@@Z:PROC ; CDialog::CreateIndirect
EXTRN	??0CDialog@@QAE@IPAVCWnd@@@Z:PROC		; CDialog::CDialog
EXTRN	?DoModal@CDialog@@UAEHXZ:PROC			; CDialog::DoModal
EXTRN	?OnInitDialog@CDialog@@UAEHXZ:PROC		; CDialog::OnInitDialog
EXTRN	?OnSetFont@CDialog@@UAEXPAVCFont@@@Z:PROC	; CDialog::OnSetFont
EXTRN	?OnOK@CDialog@@MAEXXZ:PROC			; CDialog::OnOK
EXTRN	?OnCancel@CDialog@@MAEXXZ:PROC			; CDialog::OnCancel
EXTRN	??1CDialog@@UAE@XZ:PROC				; CDialog::~CDialog
EXTRN	?AssertValid@CDialog@@UBEXXZ:PROC		; CDialog::AssertValid
EXTRN	?Dump@CDialog@@UBEXAAVCDumpContext@@@Z:PROC	; CDialog::Dump
EXTRN	?PreTranslateMessage@CDialog@@UAEHPAUtagMSG@@@Z:PROC ; CDialog::PreTranslateMessage
EXTRN	?OnCmdMsg@CDialog@@UAEHIHPAXPAUAFX_CMDHANDLERINFO@@@Z:PROC ; CDialog::OnCmdMsg
EXTRN	?CheckAutoCenter@CDialog@@UAEHXZ:PROC		; CDialog::CheckAutoCenter
EXTRN	?SetOccDialogInfo@CDialog@@MAEHPAU_AFX_OCC_DIALOG_INFO@@@Z:PROC ; CDialog::SetOccDialogInfo
EXTRN	?GetOccDialogInfo@CDialog@@MAEPAU_AFX_OCC_DIALOG_INFO@@XZ:PROC ; CDialog::GetOccDialogInfo
EXTRN	?PreInitDialog@CDialog@@MAEXXZ:PROC		; CDialog::PreInitDialog
EXTRN	?LimitText@CEdit@@QAEXH@Z:PROC			; CEdit::LimitText
EXTRN	?AfxGetInstanceHandle@@YGPAUHINSTANCE__@@XZ:PROC ; AfxGetInstanceHandle
EXTRN	?AfxMessageBox@@YGHPBDII@Z:PROC			; AfxMessageBox
EXTRN	?GetAddress@CIPAddressCtrl@@QBEHAAK@Z:PROC	; CIPAddressCtrl::GetAddress
EXTRN	__imp_?TraceString@CTraceService@@SA_NPBDW4enTraceLevel@@@Z:PROC
EXTRN	__imp_??0CTraceServiceControl@@QAE@XZ:PROC
EXTRN	__imp_??1CTraceServiceControl@@UAE@XZ:PROC
EXTRN	??0CInitParameter@@QAE@XZ:PROC			; CInitParameter::CInitParameter
EXTRN	??1CInitParameter@@UAE@XZ:PROC			; CInitParameter::~CInitParameter
EXTRN	?SaveInitParameter@CInitParameter@@QAE_NXZ:PROC	; CInitParameter::SaveInitParameter
EXTRN	??_ECInitParameter@@UAEPAXI@Z:PROC		; CInitParameter::`vector deleting destructor'
EXTRN	??0CServiceUnits@@QAE@XZ:PROC			; CServiceUnits::CServiceUnits
EXTRN	??1CServiceUnits@@UAE@XZ:PROC			; CServiceUnits::~CServiceUnits
EXTRN	?StartService@CServiceUnits@@QAE_NXZ:PROC	; CServiceUnits::StartService
EXTRN	?ConcludeService@CServiceUnits@@QAE_NXZ:PROC	; CServiceUnits::ConcludeService
EXTRN	?SetServiceUnitsSink@CServiceUnits@@QAE_NPAUIServiceUnitsSink@@@Z:PROC ; CServiceUnits::SetServiceUnitsSink
EXTRN	??0CFlashAccredit@@QAE@XZ:PROC			; CFlashAccredit::CFlashAccredit
EXTRN	??1CFlashAccredit@@QAE@XZ:PROC			; CFlashAccredit::~CFlashAccredit
EXTRN	?StartService@CFlashAccredit@@QAE_NXZ:PROC	; CFlashAccredit::StartService
EXTRN	?SetServiceParameter@CFlashAccredit@@QAEXG@Z:PROC ; CFlashAccredit::SetServiceParameter
EXTRN	??_ECSystemOptionDlg@@UAEPAXI@Z:PROC		; CSystemOptionDlg::`vector deleting destructor'
EXTRN	??_ECLogonServerDlg@@UAEPAXI@Z:PROC		; CLogonServerDlg::`vector deleting destructor'
EXTRN	@__security_check_cookie@4:PROC
EXTRN	___CxxFrameHandler3:PROC
EXTRN	_memset:PROC
EXTRN	??_7type_info@@6B@:QWORD			; type_info::`vftable'
EXTRN	___security_cookie:DWORD
;	COMDAT ?_OptionsStorage@?1??__local_stdio_printf_options@@9@4_KA
_BSS	SEGMENT
?_OptionsStorage@?1??__local_stdio_printf_options@@9@4_KA DQ 01H DUP (?) ; `__local_stdio_printf_options'::`2'::_OptionsStorage
_BSS	ENDS
;	COMDAT ??_R4CLogonServerDlg@@6BIServiceUnitsSink@@@
rdata$r	SEGMENT
??_R4CLogonServerDlg@@6BIServiceUnitsSink@@@ DD 00H	; CLogonServerDlg::`RTTI Complete Object Locator'
	DD	0a8H
	DD	00H
	DD	FLAT:??_R0?AVCLogonServerDlg@@@8
	DD	FLAT:??_R3CLogonServerDlg@@8
rdata$r	ENDS
;	COMDAT ??_R1KI@?0A@EA@IServiceUnitsSink@@8
rdata$r	SEGMENT
??_R1KI@?0A@EA@IServiceUnitsSink@@8 DD FLAT:??_R0?AUIServiceUnitsSink@@@8 ; IServiceUnitsSink::`RTTI Base Class Descriptor at (168,-1,0,64)'
	DD	00H
	DD	0a8H
	DD	0ffffffffH
	DD	00H
	DD	040H
	DD	FLAT:??_R3IServiceUnitsSink@@8
rdata$r	ENDS
;	COMDAT ??_R1A@?0A@EA@CLogonServerDlg@@8
rdata$r	SEGMENT
??_R1A@?0A@EA@CLogonServerDlg@@8 DD FLAT:??_R0?AVCLogonServerDlg@@@8 ; CLogonServerDlg::`RTTI Base Class Descriptor at (0,-1,0,64)'
	DD	05H
	DD	00H
	DD	0ffffffffH
	DD	00H
	DD	040H
	DD	FLAT:??_R3CLogonServerDlg@@8
rdata$r	ENDS
;	COMDAT ??_R2CLogonServerDlg@@8
rdata$r	SEGMENT
??_R2CLogonServerDlg@@8 DD FLAT:??_R1A@?0A@EA@CLogonServerDlg@@8 ; CLogonServerDlg::`RTTI Base Class Array'
	DD	FLAT:??_R1A@?0A@EA@CDialog@@8
	DD	FLAT:??_R1A@?0A@EA@CWnd@@8
	DD	FLAT:??_R1A@?0A@EA@CCmdTarget@@8
	DD	FLAT:??_R1A@?0A@EA@CObject@@8
	DD	FLAT:??_R1KI@?0A@EA@IServiceUnitsSink@@8
rdata$r	ENDS
;	COMDAT ??_R3CLogonServerDlg@@8
rdata$r	SEGMENT
??_R3CLogonServerDlg@@8 DD 00H				; CLogonServerDlg::`RTTI Class Hierarchy Descriptor'
	DD	01H
	DD	06H
	DD	FLAT:??_R2CLogonServerDlg@@8
rdata$r	ENDS
;	COMDAT ??_R0?AVCLogonServerDlg@@@8
data$r	SEGMENT
??_R0?AVCLogonServerDlg@@@8 DD FLAT:??_7type_info@@6B@	; CLogonServerDlg `RTTI Type Descriptor'
	DD	00H
	DB	'.?AVCLogonServerDlg@@', 00H
data$r	ENDS
;	COMDAT ??_R4CLogonServerDlg@@6BCDialog@@@
rdata$r	SEGMENT
??_R4CLogonServerDlg@@6BCDialog@@@ DD 00H		; CLogonServerDlg::`RTTI Complete Object Locator'
	DD	00H
	DD	00H
	DD	FLAT:??_R0?AVCLogonServerDlg@@@8
	DD	FLAT:??_R3CLogonServerDlg@@8
rdata$r	ENDS
;	COMDAT ??_R1A@?0A@EA@CSystemOptionDlg@@8
rdata$r	SEGMENT
??_R1A@?0A@EA@CSystemOptionDlg@@8 DD FLAT:??_R0?AVCSystemOptionDlg@@@8 ; CSystemOptionDlg::`RTTI Base Class Descriptor at (0,-1,0,64)'
	DD	04H
	DD	00H
	DD	0ffffffffH
	DD	00H
	DD	040H
	DD	FLAT:??_R3CSystemOptionDlg@@8
rdata$r	ENDS
;	COMDAT ??_R2CSystemOptionDlg@@8
rdata$r	SEGMENT
??_R2CSystemOptionDlg@@8 DD FLAT:??_R1A@?0A@EA@CSystemOptionDlg@@8 ; CSystemOptionDlg::`RTTI Base Class Array'
	DD	FLAT:??_R1A@?0A@EA@CDialog@@8
	DD	FLAT:??_R1A@?0A@EA@CWnd@@8
	DD	FLAT:??_R1A@?0A@EA@CCmdTarget@@8
	DD	FLAT:??_R1A@?0A@EA@CObject@@8
rdata$r	ENDS
;	COMDAT ??_R3CSystemOptionDlg@@8
rdata$r	SEGMENT
??_R3CSystemOptionDlg@@8 DD 00H				; CSystemOptionDlg::`RTTI Class Hierarchy Descriptor'
	DD	00H
	DD	05H
	DD	FLAT:??_R2CSystemOptionDlg@@8
rdata$r	ENDS
;	COMDAT ??_R0?AVCSystemOptionDlg@@@8
data$r	SEGMENT
??_R0?AVCSystemOptionDlg@@@8 DD FLAT:??_7type_info@@6B@	; CSystemOptionDlg `RTTI Type Descriptor'
	DD	00H
	DB	'.?AVCSystemOptionDlg@@', 00H
data$r	ENDS
;	COMDAT ??_R4CSystemOptionDlg@@6B@
rdata$r	SEGMENT
??_R4CSystemOptionDlg@@6B@ DD 00H			; CSystemOptionDlg::`RTTI Complete Object Locator'
	DD	00H
	DD	00H
	DD	FLAT:??_R0?AVCSystemOptionDlg@@@8
	DD	FLAT:??_R3CSystemOptionDlg@@8
rdata$r	ENDS
;	COMDAT ??_R1A@?0A@EA@IServiceUnitsSink@@8
rdata$r	SEGMENT
??_R1A@?0A@EA@IServiceUnitsSink@@8 DD FLAT:??_R0?AUIServiceUnitsSink@@@8 ; IServiceUnitsSink::`RTTI Base Class Descriptor at (0,-1,0,64)'
	DD	00H
	DD	00H
	DD	0ffffffffH
	DD	00H
	DD	040H
	DD	FLAT:??_R3IServiceUnitsSink@@8
rdata$r	ENDS
;	COMDAT ??_R2IServiceUnitsSink@@8
rdata$r	SEGMENT
??_R2IServiceUnitsSink@@8 DD FLAT:??_R1A@?0A@EA@IServiceUnitsSink@@8 ; IServiceUnitsSink::`RTTI Base Class Array'
rdata$r	ENDS
;	COMDAT ??_R3IServiceUnitsSink@@8
rdata$r	SEGMENT
??_R3IServiceUnitsSink@@8 DD 00H			; IServiceUnitsSink::`RTTI Class Hierarchy Descriptor'
	DD	00H
	DD	01H
	DD	FLAT:??_R2IServiceUnitsSink@@8
rdata$r	ENDS
;	COMDAT ??_R0?AUIServiceUnitsSink@@@8
data$r	SEGMENT
??_R0?AUIServiceUnitsSink@@@8 DD FLAT:??_7type_info@@6B@ ; IServiceUnitsSink `RTTI Type Descriptor'
	DD	00H
	DB	'.?AUIServiceUnitsSink@@', 00H
data$r	ENDS
;	COMDAT ??_R4IServiceUnitsSink@@6B@
rdata$r	SEGMENT
??_R4IServiceUnitsSink@@6B@ DD 00H			; IServiceUnitsSink::`RTTI Complete Object Locator'
	DD	00H
	DD	00H
	DD	FLAT:??_R0?AUIServiceUnitsSink@@@8
	DD	FLAT:??_R3IServiceUnitsSink@@8
rdata$r	ENDS
;	COMDAT ??_R1A@?0A@EA@CInitParameter@@8
rdata$r	SEGMENT
??_R1A@?0A@EA@CInitParameter@@8 DD FLAT:??_R0?AVCInitParameter@@@8 ; CInitParameter::`RTTI Base Class Descriptor at (0,-1,0,64)'
	DD	00H
	DD	00H
	DD	0ffffffffH
	DD	00H
	DD	040H
	DD	FLAT:??_R3CInitParameter@@8
rdata$r	ENDS
;	COMDAT ??_R2CInitParameter@@8
rdata$r	SEGMENT
??_R2CInitParameter@@8 DD FLAT:??_R1A@?0A@EA@CInitParameter@@8 ; CInitParameter::`RTTI Base Class Array'
rdata$r	ENDS
;	COMDAT ??_R3CInitParameter@@8
rdata$r	SEGMENT
??_R3CInitParameter@@8 DD 00H				; CInitParameter::`RTTI Class Hierarchy Descriptor'
	DD	00H
	DD	01H
	DD	FLAT:??_R2CInitParameter@@8
rdata$r	ENDS
;	COMDAT ??_R0?AVCInitParameter@@@8
data$r	SEGMENT
??_R0?AVCInitParameter@@@8 DD FLAT:??_7type_info@@6B@	; CInitParameter `RTTI Type Descriptor'
	DD	00H
	DB	'.?AVCInitParameter@@', 00H
data$r	ENDS
;	COMDAT ??_R4CInitParameter@@6B@
rdata$r	SEGMENT
??_R4CInitParameter@@6B@ DD 00H				; CInitParameter::`RTTI Complete Object Locator'
	DD	00H
	DD	00H
	DD	FLAT:??_R0?AVCInitParameter@@@8
	DD	FLAT:??_R3CInitParameter@@8
rdata$r	ENDS
;	COMDAT ??_C@_0CJ@LFENAACN@?$LH?$PO?N?q?U?$PN?T?Z?T?K?P?P?V?P?$KD?$KM?O?$LF?M?$LD?R?$KK?G?s?W?$KC?O?z?$LL?X?$LL@
CONST	SEGMENT
??_C@_0CJ@LFENAACN@?$LH?$PO?N?q?U?$PN?T?Z?T?K?P?P?V?P?$KD?$KM?O?$LF?M?$LD?R?$KK?G?s?W?$KC?O?z?$LL?X?$LL@ DB 0b7H
	DB	0feH, 0ceH, 0f1H, 0d5H, 0fdH, 0d4H, 0daH, 0d4H, 0cbH, 0d0H, 0d0H
	DB	0d6H, 0d0H, 0a3H, 0acH, 0cfH, 0b5H, 0cdH, 0b3H, 0d2H, 0aaH, 0c7H
	DB	0f3H, 0d7H, 0a2H, 0cfH, 0faH, 0bbH, 0d8H, 0bbH, 0b0H, 0c7H, 0ebH
	DB	0c7H, 0f3H, 0caH, 0a7H, 0b0H, 0dcH, 00H	; `string'
CONST	ENDS
;	COMDAT ?__LINE__Var@?0??OnBnClickedStopService@CLogonServerDlg@@IAEXXZ@4JA
_DATA	SEGMENT
?__LINE__Var@?0??OnBnClickedStopService@CLogonServerDlg@@IAEXXZ@4JA DD 013cH ; `CLogonServerDlg::OnBnClickedStopService'::`1'::__LINE__Var
_DATA	ENDS
;	COMDAT ??_C@_0EN@BFOCKBP@g?3?2?M?x?$LK?$PM?2happygamewh?2?$LH?$PO?N?q?$LG?K?2?O?$LF?M?$LD@
CONST	SEGMENT
??_C@_0EN@BFOCKBP@g?3?2?M?x?$LK?$PM?2happygamewh?2?$LH?$PO?N?q?$LG?K?2?O?$LF?M?$LD@ DB 'g'
	DB	':\', 0cdH, 0f8H, 0baH, 0fcH, '\happygamewh\', 0b7H, 0feH, 0ceH
	DB	0f1H, 0b6H, 0cbH, '\', 0cfH, 0b5H, 0cdH, 0b3H, 0c4H, 0a3H, 0bfH
	DB	0e9H, '\', 0b7H, 0feH, 0ceH, 0f1H, 0c6H, 0f7H, 0d7H, 0e9H, 0bcH
	DB	0feH, '\', 0b5H, 0c7H, 0c2H, 0bcH, 0b7H, 0feH, 0ceH, 0f1H, 0c6H
	DB	0f7H, '\logonserverdlg.cpp', 00H		; `string'
CONST	ENDS
;	COMDAT ?__LINE__Var@?0??OnBnClickedStartService@CLogonServerDlg@@IAEXXZ@4JA
_DATA	SEGMENT
?__LINE__Var@?0??OnBnClickedStartService@CLogonServerDlg@@IAEXXZ@4JA DD 012cH ; `CLogonServerDlg::OnBnClickedStartService'::`1'::__LINE__Var
_DATA	ENDS
;	COMDAT ??_C@_0BJ@HLOOMBNP@?$LH?$PO?N?q?F?t?$LG?$KP?$LD?I?$LJ?$KG?5?$FL?5?$LG?K?$LP?Z?3?$CFd?5?$FN@
CONST	SEGMENT
??_C@_0BJ@HLOOMBNP@?$LH?$PO?N?q?F?t?$LG?$KP?$LD?I?$LJ?$KG?5?$FL?5?$LG?K?$LP?Z?3?$CFd?5?$FN@ DB 0b7H
	DB	0feH, 0ceH, 0f1H, 0c6H, 0f4H, 0b6H, 0afH, 0b3H, 0c9H, 0b9H, 0a6H
	DB	' [ ', 0b6H, 0cbH, 0bfH, 0daH, ':%d ]', 00H	; `string'
CONST	ENDS
;	COMDAT ??_C@_0BH@KGHBOKCA@?$LF?G?B?$LM?$LH?$PO?N?q?F?w?5?9?9?5?$FL?5?T?K?P?P?5?$FN@
CONST	SEGMENT
??_C@_0BH@KGHBOKCA@?$LF?G?B?$LM?$LH?$PO?N?q?F?w?5?9?9?5?$FL?5?T?K?P?P?5?$FN@ DB 0b5H
	DB	0c7H, 0c2H, 0bcH, 0b7H, 0feH, 0ceH, 0f1H, 0c6H, 0f7H, ' -- [ ', 0d4H
	DB	0cbH, 0d0H, 0d0H, ' ]', 00H			; `string'
CONST	ENDS
;	COMDAT ??_C@_0BC@OFPAKDFO@?U?$PN?T?Z?$LD?u?J?$LM?$LL?$KP?W?i?$LM?$PO?4?4?4@
CONST	SEGMENT
??_C@_0BC@OFPAKDFO@?U?$PN?T?Z?$LD?u?J?$LM?$LL?$KP?W?i?$LM?$PO?4?4?4@ DB 0d5H
	DB	0fdH, 0d4H, 0daH, 0b3H, 0f5H, 0caH, 0bcH, 0bbH, 0afH, 0d7H, 0e9H
	DB	0bcH, 0feH, '...', 00H			; `string'
CONST	ENDS
;	COMDAT ??_C@_0BJ@HMGHIFOC@?$LF?G?B?$LM?$LH?$PO?N?q?F?w?5?9?9?5?$FL?5?$LD?u?J?$LM?$LL?$KP?5?$FN@
CONST	SEGMENT
??_C@_0BJ@HMGHIFOC@?$LF?G?B?$LM?$LH?$PO?N?q?F?w?5?9?9?5?$FL?5?$LD?u?J?$LM?$LL?$KP?5?$FN@ DB 0b5H
	DB	0c7H, 0c2H, 0bcH, 0b7H, 0feH, 0ceH, 0f1H, 0c6H, 0f7H, ' -- [ ', 0b3H
	DB	0f5H, 0caH, 0bcH, 0bbH, 0afH, ' ]', 00H	; `string'
CONST	ENDS
;	COMDAT ??_C@_0N@HNGKNHMM@?$LH?$PO?N?q?M?$KD?V?$LJ?$LD?I?$LJ?$KG@
CONST	SEGMENT
??_C@_0N@HNGKNHMM@?$LH?$PO?N?q?M?$KD?V?$LJ?$LD?I?$LJ?$KG@ DB 0b7H, 0feH, 0ceH
	DB	0f1H, 0cdH, 0a3H, 0d6H, 0b9H, 0b3H, 0c9H, 0b9H, 0a6H, 00H ; `string'
CONST	ENDS
;	COMDAT ??_C@_0CN@CFDAPCBF@?$LF?G?B?$LM?$LH?$PO?N?q?F?w?U?$PN?T?Z?T?K?P?P?V?P?$KD?$KM?D?z?H?$LH?J?$LF?R?$KK?$LJ@
CONST	SEGMENT
??_C@_0CN@CFDAPCBF@?$LF?G?B?$LM?$LH?$PO?N?q?F?w?U?$PN?T?Z?T?K?P?P?V?P?$KD?$KM?D?z?H?$LH?J?$LF?R?$KK?$LJ@ DB 0b5H
	DB	0c7H, 0c2H, 0bcH, 0b7H, 0feH, 0ceH, 0f1H, 0c6H, 0f7H, 0d5H, 0fdH
	DB	0d4H, 0daH, 0d4H, 0cbH, 0d0H, 0d0H, 0d6H, 0d0H, 0a3H, 0acH, 0c4H
	DB	0faH, 0c8H, 0b7H, 0caH, 0b5H, 0d2H, 0aaH, 0b9H, 0d8H, 0b1H, 0d5H
	DB	0b7H, 0feH, 0ceH, 0f1H, 0c6H, 0f7H, 0c2H, 0f0H, 0a3H, 0bfH, 00H ; `string'
CONST	ENDS
;	COMDAT ??_C@_0BH@HJPOPDCD@?$LF?G?B?$LM?$LH?$PO?N?q?F?w?5?9?9?5?$FL?5?M?$KD?V?$LJ?5?$FN@
CONST	SEGMENT
??_C@_0BH@HJPOPDCD@?$LF?G?B?$LM?$LH?$PO?N?q?F?w?5?9?9?5?$FL?5?M?$KD?V?$LJ?5?$FN@ DB 0b5H
	DB	0c7H, 0c2H, 0bcH, 0b7H, 0feH, 0ceH, 0f1H, 0c6H, 0f7H, ' -- [ ', 0cdH
	DB	0a3H, 0d6H, 0b9H, ' ]', 00H			; `string'
CONST	ENDS
;	COMDAT ??_C@_0M@PCENNPGA@?$CFd?4?$CFd?4?$CFd?4?$CFd@
CONST	SEGMENT
??_C@_0M@PCENNPGA@?$CFd?4?$CFd?4?$CFd?4?$CFd@ DB '%d.%d.%d.%d', 00H ; `string'
CONST	ENDS
;	COMDAT ??_C@_06PPNIIDOF@people@
CONST	SEGMENT
??_C@_06PPNIIDOF@people@ DB 'people', 00H		; `string'
CONST	ENDS
;	COMDAT ??_C@_02CKOPKKAC@sa@
CONST	SEGMENT
??_C@_02CKOPKKAC@sa@ DB 'sa', 00H			; `string'
CONST	ENDS
;	COMDAT ??_C@_09PFCHIMEP@127?40?40?41@
CONST	SEGMENT
??_C@_09PFCHIMEP@127?40?40?41@ DB '127.0.0.1', 00H	; `string'
CONST	ENDS
;	COMDAT ??_C@_08GGKIMEBF@?$LB?$LO?$LF?X?$LC?b?J?T@
CONST	SEGMENT
??_C@_08GGKIMEBF@?$LB?$LO?$LF?X?$LC?b?J?T@ DB 0b1H, 0beH, 0b5H, 0d8H, 0b2H
	DB	0e2H, 0caH, 0d4H, 00H			; `string'
CONST	ENDS
;	COMDAT ??_7CLogonServerDlg@@6BIServiceUnitsSink@@@
CONST	SEGMENT
??_7CLogonServerDlg@@6BIServiceUnitsSink@@@ DD FLAT:??_R4CLogonServerDlg@@6BIServiceUnitsSink@@@ ; CLogonServerDlg::`vftable'
	DD	FLAT:?OnServiceUnitsStatus@CLogonServerDlg@@UAEXW4enServiceStatus@@@Z
CONST	ENDS
;	COMDAT ??_7CLogonServerDlg@@6BCDialog@@@
CONST	SEGMENT
??_7CLogonServerDlg@@6BCDialog@@@ DD FLAT:??_R4CLogonServerDlg@@6BCDialog@@@ ; CLogonServerDlg::`vftable'
	DD	FLAT:?GetRuntimeClass@CDialog@@UBEPAUCRuntimeClass@@XZ
	DD	FLAT:??_ECLogonServerDlg@@UAEPAXI@Z
	DD	FLAT:?Serialize@CObject@@UAEXAAVCArchive@@@Z
	DD	FLAT:?AssertValid@CDialog@@UBEXXZ
	DD	FLAT:?Dump@CDialog@@UBEXAAVCDumpContext@@@Z
	DD	FLAT:?OnCmdMsg@CDialog@@UAEHIHPAXPAUAFX_CMDHANDLERINFO@@@Z
	DD	FLAT:?OnFinalRelease@CWnd@@UAEXXZ
	DD	FLAT:?IsInvokeAllowed@CCmdTarget@@UAEHJ@Z
	DD	FLAT:?GetDispatchIID@CCmdTarget@@UAEHPAU_GUID@@@Z
	DD	FLAT:?GetTypeInfoCount@CCmdTarget@@UAEIXZ
	DD	FLAT:?GetTypeLibCache@CCmdTarget@@UAEPAVCTypeLibCache@@XZ
	DD	FLAT:?GetTypeLib@CCmdTarget@@UAEJKPAPAUITypeLib@@@Z
	DD	FLAT:?GetMessageMap@CLogonServerDlg@@MBEPBUAFX_MSGMAP@@XZ
	DD	FLAT:?GetCommandMap@CCmdTarget@@MBEPBUAFX_OLECMDMAP@@XZ
	DD	FLAT:?GetDispatchMap@CCmdTarget@@MBEPBUAFX_DISPMAP@@XZ
	DD	FLAT:?GetConnectionMap@CCmdTarget@@MBEPBUAFX_CONNECTIONMAP@@XZ
	DD	FLAT:?GetInterfaceMap@CWnd@@MBEPBUAFX_INTERFACEMAP@@XZ
	DD	FLAT:?GetEventSinkMap@CCmdTarget@@MBEPBUAFX_EVENTSINKMAP@@XZ
	DD	FLAT:?OnCreateAggregates@CCmdTarget@@UAEHXZ
	DD	FLAT:?GetInterfaceHook@CCmdTarget@@UAEPAUIUnknown@@PBX@Z
	DD	FLAT:?GetExtraConnectionPoints@CCmdTarget@@MAEHPAVCPtrArray@@@Z
	DD	FLAT:?GetConnectionHook@CCmdTarget@@MAEPAUIConnectionPoint@@ABU_GUID@@@Z
	DD	FLAT:?PreSubclassWindow@CWnd@@UAEXXZ
	DD	FLAT:?Create@CWnd@@UAEHPBD0KABUtagRECT@@PAV1@IPAUCCreateContext@@@Z
	DD	FLAT:?CreateEx@CWnd@@UAEHKPBD0KABUtagRECT@@PAV1@IPAX@Z
	DD	FLAT:?CreateEx@CWnd@@UAEHKPBD0KHHHHPAUHWND__@@PAUHMENU__@@PAX@Z
	DD	FLAT:?DestroyWindow@CWnd@@UAEHXZ
	DD	FLAT:?PreCreateWindow@CWnd@@UAEHAAUtagCREATESTRUCTA@@@Z
	DD	FLAT:?CalcWindowRect@CWnd@@UAEXPAUtagRECT@@I@Z
	DD	FLAT:?GetMenu@CWnd@@UBEPAVCMenu@@XZ
	DD	FLAT:?SetMenu@CWnd@@UAEHPAVCMenu@@@Z
	DD	FLAT:?OnToolHitTest@CWnd@@UBEHVCPoint@@PAUtagTOOLINFOA@@@Z
	DD	FLAT:?GetScrollBarCtrl@CWnd@@UBEPAVCScrollBar@@H@Z
	DD	FLAT:?WinHelpA@CWnd@@UAEXKI@Z
	DD	FLAT:?HtmlHelpA@CWnd@@UAEXKI@Z
	DD	FLAT:?WinHelpInternal@CWnd@@UAEXKI@Z
	DD	FLAT:?ContinueModal@CWnd@@UAEHXZ
	DD	FLAT:?EndModalLoop@CWnd@@UAEXH@Z
	DD	FLAT:?OnDrawIconicThumbnailOrLivePreview@CWnd@@UAEXAAVCDC@@VCRect@@VCSize@@HAAH@Z
	DD	FLAT:?EnsureStdObj@CWnd@@UAEJXZ
	DD	FLAT:?get_accParent@CWnd@@UAEJPAPAUIDispatch@@@Z
	DD	FLAT:?get_accChildCount@CWnd@@UAEJPAJ@Z
	DD	FLAT:?get_accChild@CWnd@@UAEJUtagVARIANT@@PAPAUIDispatch@@@Z
	DD	FLAT:?get_accName@CWnd@@UAEJUtagVARIANT@@PAPA_W@Z
	DD	FLAT:?get_accValue@CWnd@@UAEJUtagVARIANT@@PAPA_W@Z
	DD	FLAT:?get_accDescription@CWnd@@UAEJUtagVARIANT@@PAPA_W@Z
	DD	FLAT:?get_accRole@CWnd@@UAEJUtagVARIANT@@PAU2@@Z
	DD	FLAT:?get_accState@CWnd@@UAEJUtagVARIANT@@PAU2@@Z
	DD	FLAT:?get_accHelp@CWnd@@UAEJUtagVARIANT@@PAPA_W@Z
	DD	FLAT:?get_accHelpTopic@CWnd@@UAEJPAPA_WUtagVARIANT@@PAJ@Z
	DD	FLAT:?get_accKeyboardShortcut@CWnd@@UAEJUtagVARIANT@@PAPA_W@Z
	DD	FLAT:?get_accFocus@CWnd@@UAEJPAUtagVARIANT@@@Z
	DD	FLAT:?get_accSelection@CWnd@@UAEJPAUtagVARIANT@@@Z
	DD	FLAT:?get_accDefaultAction@CWnd@@UAEJUtagVARIANT@@PAPA_W@Z
	DD	FLAT:?accSelect@CWnd@@UAEJJUtagVARIANT@@@Z
	DD	FLAT:?accLocation@CWnd@@UAEJPAJ000UtagVARIANT@@@Z
	DD	FLAT:?accNavigate@CWnd@@UAEJJUtagVARIANT@@PAU2@@Z
	DD	FLAT:?accHitTest@CWnd@@UAEJJJPAUtagVARIANT@@@Z
	DD	FLAT:?accDoDefaultAction@CWnd@@UAEJUtagVARIANT@@@Z
	DD	FLAT:?put_accName@CWnd@@UAEJUtagVARIANT@@PA_W@Z
	DD	FLAT:?put_accValue@CWnd@@UAEJUtagVARIANT@@PA_W@Z
	DD	FLAT:?SetProxy@CWnd@@UAEJPAUIAccessibleProxy@@@Z
	DD	FLAT:?CreateAccessibleProxy@CWnd@@UAEJIJPAJ@Z
	DD	FLAT:?OnCommand@CWnd@@MAEHIJ@Z
	DD	FLAT:?OnNotify@CWnd@@MAEHIJPAJ@Z
	DD	FLAT:?GetSuperWndProcAddr@CWnd@@MAEPAP6GJPAUHWND__@@IIJ@ZXZ
	DD	FLAT:?DoDataExchange@CLogonServerDlg@@MAEXPAVCDataExchange@@@Z
	DD	FLAT:?BeginModalState@CWnd@@UAEXXZ
	DD	FLAT:?EndModalState@CWnd@@UAEXXZ
	DD	FLAT:?PreTranslateMessage@CLogonServerDlg@@MAEHPAUtagMSG@@@Z
	DD	FLAT:?OnAmbientProperty@CWnd@@UAEHPAVCOleControlSite@@JPAUtagVARIANT@@@Z
	DD	FLAT:?WindowProc@CWnd@@MAEJIIJ@Z
	DD	FLAT:?OnWndMsg@CWnd@@MAEHIIJPAJ@Z
	DD	FLAT:?DefWindowProcA@CWnd@@MAEJIIJ@Z
	DD	FLAT:?PostNcDestroy@CWnd@@MAEXXZ
	DD	FLAT:?OnChildNotify@CWnd@@MAEHIIJPAJ@Z
	DD	FLAT:?OnTouchInputs@CWnd@@MAEHIPAUtagTOUCHINPUT@@@Z
	DD	FLAT:?OnTouchInput@CWnd@@MAEHVCPoint@@HHPAUtagTOUCHINPUT@@@Z
	DD	FLAT:?GetGestureStatus@CWnd@@MAEKVCPoint@@@Z
	DD	FLAT:?OnGestureZoom@CWnd@@MAEHVCPoint@@J@Z
	DD	FLAT:?OnGesturePan@CWnd@@MAEHVCPoint@@0@Z
	DD	FLAT:?OnGestureRotate@CWnd@@MAEHVCPoint@@N@Z
	DD	FLAT:?OnGestureTwoFingerTap@CWnd@@MAEHVCPoint@@@Z
	DD	FLAT:?OnGesturePressAndTap@CWnd@@MAEHVCPoint@@J@Z
	DD	FLAT:?ResizeDynamicLayout@CWnd@@MAEXXZ
	DD	FLAT:?CheckAutoCenter@CDialog@@UAEHXZ
	DD	FLAT:?IsFrameWnd@CWnd@@UBEHXZ
	DD	FLAT:?CreateControlContainer@CWnd@@MAEHPAPAVCOleControlContainer@@@Z
	DD	FLAT:?CreateControlSite@CWnd@@MAEHPAVCOleControlContainer@@PAPAVCOleControlSite@@IABU_GUID@@@Z
	DD	FLAT:?SetOccDialogInfo@CDialog@@MAEHPAU_AFX_OCC_DIALOG_INFO@@@Z
	DD	FLAT:?GetOccDialogInfo@CDialog@@MAEPAU_AFX_OCC_DIALOG_INFO@@XZ
	DD	FLAT:?Create@CDialog@@UAEHIPAVCWnd@@@Z
	DD	FLAT:?Create@CDialog@@UAEHPBDPAVCWnd@@@Z
	DD	FLAT:?CreateIndirect@CDialog@@UAEHPAXPAVCWnd@@@Z
	DD	FLAT:?CreateIndirect@CDialog@@UAEHPBUDLGTEMPLATE@@PAVCWnd@@PAX@Z
	DD	FLAT:?DoModal@CDialog@@UAEHXZ
	DD	FLAT:?OnInitDialog@CLogonServerDlg@@MAEHXZ
	DD	FLAT:?OnSetFont@CDialog@@UAEXPAVCFont@@@Z
	DD	FLAT:?OnOK@CLogonServerDlg@@MAEXXZ
	DD	FLAT:?OnCancel@CLogonServerDlg@@MAEXXZ
	DD	FLAT:?PreInitDialog@CDialog@@MAEXXZ
CONST	ENDS
;	COMDAT ??_7CSystemOptionDlg@@6B@
CONST	SEGMENT
??_7CSystemOptionDlg@@6B@ DD FLAT:??_R4CSystemOptionDlg@@6B@ ; CSystemOptionDlg::`vftable'
	DD	FLAT:?GetRuntimeClass@CDialog@@UBEPAUCRuntimeClass@@XZ
	DD	FLAT:??_ECSystemOptionDlg@@UAEPAXI@Z
	DD	FLAT:?Serialize@CObject@@UAEXAAVCArchive@@@Z
	DD	FLAT:?AssertValid@CDialog@@UBEXXZ
	DD	FLAT:?Dump@CDialog@@UBEXAAVCDumpContext@@@Z
	DD	FLAT:?OnCmdMsg@CDialog@@UAEHIHPAXPAUAFX_CMDHANDLERINFO@@@Z
	DD	FLAT:?OnFinalRelease@CWnd@@UAEXXZ
	DD	FLAT:?IsInvokeAllowed@CCmdTarget@@UAEHJ@Z
	DD	FLAT:?GetDispatchIID@CCmdTarget@@UAEHPAU_GUID@@@Z
	DD	FLAT:?GetTypeInfoCount@CCmdTarget@@UAEIXZ
	DD	FLAT:?GetTypeLibCache@CCmdTarget@@UAEPAVCTypeLibCache@@XZ
	DD	FLAT:?GetTypeLib@CCmdTarget@@UAEJKPAPAUITypeLib@@@Z
	DD	FLAT:?GetMessageMap@CSystemOptionDlg@@MBEPBUAFX_MSGMAP@@XZ
	DD	FLAT:?GetCommandMap@CCmdTarget@@MBEPBUAFX_OLECMDMAP@@XZ
	DD	FLAT:?GetDispatchMap@CCmdTarget@@MBEPBUAFX_DISPMAP@@XZ
	DD	FLAT:?GetConnectionMap@CCmdTarget@@MBEPBUAFX_CONNECTIONMAP@@XZ
	DD	FLAT:?GetInterfaceMap@CWnd@@MBEPBUAFX_INTERFACEMAP@@XZ
	DD	FLAT:?GetEventSinkMap@CCmdTarget@@MBEPBUAFX_EVENTSINKMAP@@XZ
	DD	FLAT:?OnCreateAggregates@CCmdTarget@@UAEHXZ
	DD	FLAT:?GetInterfaceHook@CCmdTarget@@UAEPAUIUnknown@@PBX@Z
	DD	FLAT:?GetExtraConnectionPoints@CCmdTarget@@MAEHPAVCPtrArray@@@Z
	DD	FLAT:?GetConnectionHook@CCmdTarget@@MAEPAUIConnectionPoint@@ABU_GUID@@@Z
	DD	FLAT:?PreSubclassWindow@CWnd@@UAEXXZ
	DD	FLAT:?Create@CWnd@@UAEHPBD0KABUtagRECT@@PAV1@IPAUCCreateContext@@@Z
	DD	FLAT:?CreateEx@CWnd@@UAEHKPBD0KABUtagRECT@@PAV1@IPAX@Z
	DD	FLAT:?CreateEx@CWnd@@UAEHKPBD0KHHHHPAUHWND__@@PAUHMENU__@@PAX@Z
	DD	FLAT:?DestroyWindow@CWnd@@UAEHXZ
	DD	FLAT:?PreCreateWindow@CWnd@@UAEHAAUtagCREATESTRUCTA@@@Z
	DD	FLAT:?CalcWindowRect@CWnd@@UAEXPAUtagRECT@@I@Z
	DD	FLAT:?GetMenu@CWnd@@UBEPAVCMenu@@XZ
	DD	FLAT:?SetMenu@CWnd@@UAEHPAVCMenu@@@Z
	DD	FLAT:?OnToolHitTest@CWnd@@UBEHVCPoint@@PAUtagTOOLINFOA@@@Z
	DD	FLAT:?GetScrollBarCtrl@CWnd@@UBEPAVCScrollBar@@H@Z
	DD	FLAT:?WinHelpA@CWnd@@UAEXKI@Z
	DD	FLAT:?HtmlHelpA@CWnd@@UAEXKI@Z
	DD	FLAT:?WinHelpInternal@CWnd@@UAEXKI@Z
	DD	FLAT:?ContinueModal@CWnd@@UAEHXZ
	DD	FLAT:?EndModalLoop@CWnd@@UAEXH@Z
	DD	FLAT:?OnDrawIconicThumbnailOrLivePreview@CWnd@@UAEXAAVCDC@@VCRect@@VCSize@@HAAH@Z
	DD	FLAT:?EnsureStdObj@CWnd@@UAEJXZ
	DD	FLAT:?get_accParent@CWnd@@UAEJPAPAUIDispatch@@@Z
	DD	FLAT:?get_accChildCount@CWnd@@UAEJPAJ@Z
	DD	FLAT:?get_accChild@CWnd@@UAEJUtagVARIANT@@PAPAUIDispatch@@@Z
	DD	FLAT:?get_accName@CWnd@@UAEJUtagVARIANT@@PAPA_W@Z
	DD	FLAT:?get_accValue@CWnd@@UAEJUtagVARIANT@@PAPA_W@Z
	DD	FLAT:?get_accDescription@CWnd@@UAEJUtagVARIANT@@PAPA_W@Z
	DD	FLAT:?get_accRole@CWnd@@UAEJUtagVARIANT@@PAU2@@Z
	DD	FLAT:?get_accState@CWnd@@UAEJUtagVARIANT@@PAU2@@Z
	DD	FLAT:?get_accHelp@CWnd@@UAEJUtagVARIANT@@PAPA_W@Z
	DD	FLAT:?get_accHelpTopic@CWnd@@UAEJPAPA_WUtagVARIANT@@PAJ@Z
	DD	FLAT:?get_accKeyboardShortcut@CWnd@@UAEJUtagVARIANT@@PAPA_W@Z
	DD	FLAT:?get_accFocus@CWnd@@UAEJPAUtagVARIANT@@@Z
	DD	FLAT:?get_accSelection@CWnd@@UAEJPAUtagVARIANT@@@Z
	DD	FLAT:?get_accDefaultAction@CWnd@@UAEJUtagVARIANT@@PAPA_W@Z
	DD	FLAT:?accSelect@CWnd@@UAEJJUtagVARIANT@@@Z
	DD	FLAT:?accLocation@CWnd@@UAEJPAJ000UtagVARIANT@@@Z
	DD	FLAT:?accNavigate@CWnd@@UAEJJUtagVARIANT@@PAU2@@Z
	DD	FLAT:?accHitTest@CWnd@@UAEJJJPAUtagVARIANT@@@Z
	DD	FLAT:?accDoDefaultAction@CWnd@@UAEJUtagVARIANT@@@Z
	DD	FLAT:?put_accName@CWnd@@UAEJUtagVARIANT@@PA_W@Z
	DD	FLAT:?put_accValue@CWnd@@UAEJUtagVARIANT@@PA_W@Z
	DD	FLAT:?SetProxy@CWnd@@UAEJPAUIAccessibleProxy@@@Z
	DD	FLAT:?CreateAccessibleProxy@CWnd@@UAEJIJPAJ@Z
	DD	FLAT:?OnCommand@CWnd@@MAEHIJ@Z
	DD	FLAT:?OnNotify@CWnd@@MAEHIJPAJ@Z
	DD	FLAT:?GetSuperWndProcAddr@CWnd@@MAEPAP6GJPAUHWND__@@IIJ@ZXZ
	DD	FLAT:?DoDataExchange@CSystemOptionDlg@@MAEXPAVCDataExchange@@@Z
	DD	FLAT:?BeginModalState@CWnd@@UAEXXZ
	DD	FLAT:?EndModalState@CWnd@@UAEXXZ
	DD	FLAT:?PreTranslateMessage@CDialog@@UAEHPAUtagMSG@@@Z
	DD	FLAT:?OnAmbientProperty@CWnd@@UAEHPAVCOleControlSite@@JPAUtagVARIANT@@@Z
	DD	FLAT:?WindowProc@CWnd@@MAEJIIJ@Z
	DD	FLAT:?OnWndMsg@CWnd@@MAEHIIJPAJ@Z
	DD	FLAT:?DefWindowProcA@CWnd@@MAEJIIJ@Z
	DD	FLAT:?PostNcDestroy@CWnd@@MAEXXZ
	DD	FLAT:?OnChildNotify@CWnd@@MAEHIIJPAJ@Z
	DD	FLAT:?OnTouchInputs@CWnd@@MAEHIPAUtagTOUCHINPUT@@@Z
	DD	FLAT:?OnTouchInput@CWnd@@MAEHVCPoint@@HHPAUtagTOUCHINPUT@@@Z
	DD	FLAT:?GetGestureStatus@CWnd@@MAEKVCPoint@@@Z
	DD	FLAT:?OnGestureZoom@CWnd@@MAEHVCPoint@@J@Z
	DD	FLAT:?OnGesturePan@CWnd@@MAEHVCPoint@@0@Z
	DD	FLAT:?OnGestureRotate@CWnd@@MAEHVCPoint@@N@Z
	DD	FLAT:?OnGestureTwoFingerTap@CWnd@@MAEHVCPoint@@@Z
	DD	FLAT:?OnGesturePressAndTap@CWnd@@MAEHVCPoint@@J@Z
	DD	FLAT:?ResizeDynamicLayout@CWnd@@MAEXXZ
	DD	FLAT:?CheckAutoCenter@CDialog@@UAEHXZ
	DD	FLAT:?IsFrameWnd@CWnd@@UBEHXZ
	DD	FLAT:?CreateControlContainer@CWnd@@MAEHPAPAVCOleControlContainer@@@Z
	DD	FLAT:?CreateControlSite@CWnd@@MAEHPAVCOleControlContainer@@PAPAVCOleControlSite@@IABU_GUID@@@Z
	DD	FLAT:?SetOccDialogInfo@CDialog@@MAEHPAU_AFX_OCC_DIALOG_INFO@@@Z
	DD	FLAT:?GetOccDialogInfo@CDialog@@MAEPAU_AFX_OCC_DIALOG_INFO@@XZ
	DD	FLAT:?Create@CDialog@@UAEHIPAVCWnd@@@Z
	DD	FLAT:?Create@CDialog@@UAEHPBDPAVCWnd@@@Z
	DD	FLAT:?CreateIndirect@CDialog@@UAEHPAXPAVCWnd@@@Z
	DD	FLAT:?CreateIndirect@CDialog@@UAEHPBUDLGTEMPLATE@@PAVCWnd@@PAX@Z
	DD	FLAT:?DoModal@CDialog@@UAEHXZ
	DD	FLAT:?OnInitDialog@CSystemOptionDlg@@MAEHXZ
	DD	FLAT:?OnSetFont@CDialog@@UAEXPAVCFont@@@Z
	DD	FLAT:?OnOK@CSystemOptionDlg@@MAEXXZ
	DD	FLAT:?OnCancel@CDialog@@MAEXXZ
	DD	FLAT:?PreInitDialog@CDialog@@MAEXXZ
CONST	ENDS
;	COMDAT ??_7IServiceUnitsSink@@6B@
CONST	SEGMENT
??_7IServiceUnitsSink@@6B@ DD FLAT:??_R4IServiceUnitsSink@@6B@ ; IServiceUnitsSink::`vftable'
	DD	FLAT:__purecall
CONST	ENDS
;	COMDAT ??_7CInitParameter@@6B@
CONST	SEGMENT
??_7CInitParameter@@6B@ DD FLAT:??_R4CInitParameter@@6B@ ; CInitParameter::`vftable'
	DD	FLAT:??_ECInitParameter@@UAEPAXI@Z
CONST	ENDS
;	COMDAT ??_R2CCmdTarget@@8
rdata$r	SEGMENT
??_R2CCmdTarget@@8 DD FLAT:??_R1A@?0A@EA@CCmdTarget@@8	; CCmdTarget::`RTTI Base Class Array'
	DD	FLAT:??_R1A@?0A@EA@CObject@@8
rdata$r	ENDS
;	COMDAT ??_R3CCmdTarget@@8
rdata$r	SEGMENT
??_R3CCmdTarget@@8 DD 00H				; CCmdTarget::`RTTI Class Hierarchy Descriptor'
	DD	00H
	DD	02H
	DD	FLAT:??_R2CCmdTarget@@8
rdata$r	ENDS
;	COMDAT ??_R0?AVCCmdTarget@@@8
data$r	SEGMENT
??_R0?AVCCmdTarget@@@8 DD FLAT:??_7type_info@@6B@	; CCmdTarget `RTTI Type Descriptor'
	DD	00H
	DB	'.?AVCCmdTarget@@', 00H
data$r	ENDS
;	COMDAT ??_R1A@?0A@EA@CCmdTarget@@8
rdata$r	SEGMENT
??_R1A@?0A@EA@CCmdTarget@@8 DD FLAT:??_R0?AVCCmdTarget@@@8 ; CCmdTarget::`RTTI Base Class Descriptor at (0,-1,0,64)'
	DD	01H
	DD	00H
	DD	0ffffffffH
	DD	00H
	DD	040H
	DD	FLAT:??_R3CCmdTarget@@8
rdata$r	ENDS
;	COMDAT ??_R2CWnd@@8
rdata$r	SEGMENT
??_R2CWnd@@8 DD	FLAT:??_R1A@?0A@EA@CWnd@@8		; CWnd::`RTTI Base Class Array'
	DD	FLAT:??_R1A@?0A@EA@CCmdTarget@@8
	DD	FLAT:??_R1A@?0A@EA@CObject@@8
rdata$r	ENDS
;	COMDAT ??_R3CWnd@@8
rdata$r	SEGMENT
??_R3CWnd@@8 DD	00H					; CWnd::`RTTI Class Hierarchy Descriptor'
	DD	00H
	DD	03H
	DD	FLAT:??_R2CWnd@@8
rdata$r	ENDS
;	COMDAT ??_R0?AVCWnd@@@8
data$r	SEGMENT
??_R0?AVCWnd@@@8 DD FLAT:??_7type_info@@6B@		; CWnd `RTTI Type Descriptor'
	DD	00H
	DB	'.?AVCWnd@@', 00H
data$r	ENDS
;	COMDAT ??_R1A@?0A@EA@CWnd@@8
rdata$r	SEGMENT
??_R1A@?0A@EA@CWnd@@8 DD FLAT:??_R0?AVCWnd@@@8		; CWnd::`RTTI Base Class Descriptor at (0,-1,0,64)'
	DD	02H
	DD	00H
	DD	0ffffffffH
	DD	00H
	DD	040H
	DD	FLAT:??_R3CWnd@@8
rdata$r	ENDS
;	COMDAT ??_R2CDialog@@8
rdata$r	SEGMENT
??_R2CDialog@@8 DD FLAT:??_R1A@?0A@EA@CDialog@@8	; CDialog::`RTTI Base Class Array'
	DD	FLAT:??_R1A@?0A@EA@CWnd@@8
	DD	FLAT:??_R1A@?0A@EA@CCmdTarget@@8
	DD	FLAT:??_R1A@?0A@EA@CObject@@8
rdata$r	ENDS
;	COMDAT ??_R3CDialog@@8
rdata$r	SEGMENT
??_R3CDialog@@8 DD 00H					; CDialog::`RTTI Class Hierarchy Descriptor'
	DD	00H
	DD	04H
	DD	FLAT:??_R2CDialog@@8
rdata$r	ENDS
;	COMDAT ??_R0?AVCDialog@@@8
data$r	SEGMENT
??_R0?AVCDialog@@@8 DD FLAT:??_7type_info@@6B@		; CDialog `RTTI Type Descriptor'
	DD	00H
	DB	'.?AVCDialog@@', 00H
data$r	ENDS
;	COMDAT ??_R1A@?0A@EA@CDialog@@8
rdata$r	SEGMENT
??_R1A@?0A@EA@CDialog@@8 DD FLAT:??_R0?AVCDialog@@@8	; CDialog::`RTTI Base Class Descriptor at (0,-1,0,64)'
	DD	03H
	DD	00H
	DD	0ffffffffH
	DD	00H
	DD	040H
	DD	FLAT:??_R3CDialog@@8
rdata$r	ENDS
;	COMDAT ??_R2CObject@@8
rdata$r	SEGMENT
??_R2CObject@@8 DD FLAT:??_R1A@?0A@EA@CObject@@8	; CObject::`RTTI Base Class Array'
rdata$r	ENDS
;	COMDAT ??_R3CObject@@8
rdata$r	SEGMENT
??_R3CObject@@8 DD 00H					; CObject::`RTTI Class Hierarchy Descriptor'
	DD	00H
	DD	01H
	DD	FLAT:??_R2CObject@@8
rdata$r	ENDS
;	COMDAT ??_R0?AVCObject@@@8
data$r	SEGMENT
??_R0?AVCObject@@@8 DD FLAT:??_7type_info@@6B@		; CObject `RTTI Type Descriptor'
	DD	00H
	DB	'.?AVCObject@@', 00H
data$r	ENDS
;	COMDAT ??_R1A@?0A@EA@CObject@@8
rdata$r	SEGMENT
??_R1A@?0A@EA@CObject@@8 DD FLAT:??_R0?AVCObject@@@8	; CObject::`RTTI Base Class Descriptor at (0,-1,0,64)'
	DD	00H
	DD	00H
	DD	0ffffffffH
	DD	00H
	DD	040H
	DD	FLAT:??_R3CObject@@8
rdata$r	ENDS
;	COMDAT ??_C@_00CNPNBAHC@@
CONST	SEGMENT
??_C@_00CNPNBAHC@@ DB 00H				; `string'
CONST	ENDS
;	COMDAT xdata$x
xdata$x	SEGMENT
__unwindtable$?OnBnClickedInitService@CLogonServerDlg@@IAEXXZ DD 0ffffffffH
	DD	FLAT:__unwindfunclet$?OnBnClickedInitService@CLogonServerDlg@@IAEXXZ$0
__ehfuncinfo$?OnBnClickedInitService@CLogonServerDlg@@IAEXXZ DD 019930522H
	DD	01H
	DD	FLAT:__unwindtable$?OnBnClickedInitService@CLogonServerDlg@@IAEXXZ
	DD	2 DUP(00H)
	DD	2 DUP(00H)
	DD	00H
	DD	01H
xdata$x	ENDS
;	COMDAT xdata$x
xdata$x	SEGMENT
__catchsym$?OnBnClickedStopService@CLogonServerDlg@@IAEXXZ$2 DD 040H
	DD	00H
	DD	00H
	DD	FLAT:__catch$?OnBnClickedStopService@CLogonServerDlg@@IAEXXZ$0
__unwindtable$?OnBnClickedStopService@CLogonServerDlg@@IAEXXZ DD 0ffffffffH
	DD	00H
	DD	0ffffffffH
	DD	00H
__tryblocktable$?OnBnClickedStopService@CLogonServerDlg@@IAEXXZ DD 00H
	DD	00H
	DD	01H
	DD	01H
	DD	FLAT:__catchsym$?OnBnClickedStopService@CLogonServerDlg@@IAEXXZ$2
__ehfuncinfo$?OnBnClickedStopService@CLogonServerDlg@@IAEXXZ DD 019930522H
	DD	02H
	DD	FLAT:__unwindtable$?OnBnClickedStopService@CLogonServerDlg@@IAEXXZ
	DD	01H
	DD	FLAT:__tryblocktable$?OnBnClickedStopService@CLogonServerDlg@@IAEXXZ
	DD	2 DUP(00H)
	DD	00H
	DD	01H
xdata$x	ENDS
;	COMDAT xdata$x
xdata$x	SEGMENT
__catchsym$?OnBnClickedStartService@CLogonServerDlg@@IAEXXZ$2 DD 040H
	DD	00H
	DD	00H
	DD	FLAT:__catch$?OnBnClickedStartService@CLogonServerDlg@@IAEXXZ$0
__unwindtable$?OnBnClickedStartService@CLogonServerDlg@@IAEXXZ DD 0ffffffffH
	DD	00H
	DD	0ffffffffH
	DD	00H
__tryblocktable$?OnBnClickedStartService@CLogonServerDlg@@IAEXXZ DD 00H
	DD	00H
	DD	01H
	DD	01H
	DD	FLAT:__catchsym$?OnBnClickedStartService@CLogonServerDlg@@IAEXXZ$2
__ehfuncinfo$?OnBnClickedStartService@CLogonServerDlg@@IAEXXZ DD 019930522H
	DD	02H
	DD	FLAT:__unwindtable$?OnBnClickedStartService@CLogonServerDlg@@IAEXXZ
	DD	01H
	DD	FLAT:__tryblocktable$?OnBnClickedStartService@CLogonServerDlg@@IAEXXZ
	DD	2 DUP(00H)
	DD	00H
	DD	01H
xdata$x	ENDS
;	COMDAT xdata$x
xdata$x	SEGMENT
__unwindtable$??0CLogonServerDlg@@QAE@XZ DD 0ffffffffH
	DD	FLAT:__unwindfunclet$??0CLogonServerDlg@@QAE@XZ$0
	DD	00H
	DD	FLAT:__unwindfunclet$??0CLogonServerDlg@@QAE@XZ$1
	DD	01H
	DD	FLAT:__unwindfunclet$??0CLogonServerDlg@@QAE@XZ$2
__ehfuncinfo$??0CLogonServerDlg@@QAE@XZ DD 019930522H
	DD	03H
	DD	FLAT:__unwindtable$??0CLogonServerDlg@@QAE@XZ
	DD	2 DUP(00H)
	DD	2 DUP(00H)
	DD	00H
	DD	01H
xdata$x	ENDS
;	COMDAT xdata$x
xdata$x	SEGMENT
__unwindtable$?OnOK@CSystemOptionDlg@@MAEXXZ DD 0ffffffffH
	DD	FLAT:__unwindfunclet$?OnOK@CSystemOptionDlg@@MAEXXZ$0
__ehfuncinfo$?OnOK@CSystemOptionDlg@@MAEXXZ DD 019930522H
	DD	01H
	DD	FLAT:__unwindtable$?OnOK@CSystemOptionDlg@@MAEXXZ
	DD	2 DUP(00H)
	DD	2 DUP(00H)
	DD	00H
	DD	01H
xdata$x	ENDS
;	COMDAT xdata$x
xdata$x	SEGMENT
__unwindtable$?OnInitDialog@CSystemOptionDlg@@MAEHXZ DD 0ffffffffH
	DD	FLAT:__unwindfunclet$?OnInitDialog@CSystemOptionDlg@@MAEHXZ$0
__ehfuncinfo$?OnInitDialog@CSystemOptionDlg@@MAEHXZ DD 019930522H
	DD	01H
	DD	FLAT:__unwindtable$?OnInitDialog@CSystemOptionDlg@@MAEHXZ
	DD	2 DUP(00H)
	DD	2 DUP(00H)
	DD	00H
	DD	01H
xdata$x	ENDS
; Function compile flags: /Odtp /ZI
;	COMDAT ??_GCLogonServerDlg@@UAEPAXI@Z
_TEXT	SEGMENT
_this$ = -4						; size = 4
___flags$ = 8						; size = 4
??_GCLogonServerDlg@@UAEPAXI@Z PROC			; CLogonServerDlg::`scalar deleting destructor', COMDAT
; _this$ = ecx
  00000	55		 push	 ebp
  00001	8b ec		 mov	 ebp, esp
  00003	83 ec 44	 sub	 esp, 68			; 00000044H
  00006	53		 push	 ebx
  00007	56		 push	 esi
  00008	57		 push	 edi
  00009	89 4d fc	 mov	 DWORD PTR _this$[ebp], ecx
  0000c	8b 4d fc	 mov	 ecx, DWORD PTR _this$[ebp]
  0000f	e8 00 00 00 00	 call	 ??1CLogonServerDlg@@UAE@XZ ; CLogonServerDlg::~CLogonServerDlg
  00014	8b 45 08	 mov	 eax, DWORD PTR ___flags$[ebp]
  00017	83 e0 01	 and	 eax, 1
  0001a	74 24		 je	 SHORT $LN2@scalar
  0001c	8b 45 08	 mov	 eax, DWORD PTR ___flags$[ebp]
  0001f	83 e0 04	 and	 eax, 4
  00022	75 0b		 jne	 SHORT $LN3@scalar
  00024	8b 45 fc	 mov	 eax, DWORD PTR _this$[ebp]
  00027	50		 push	 eax
  00028	e8 00 00 00 00	 call	 ??3CObject@@SGXPAX@Z	; CObject::operator delete
  0002d	eb 11		 jmp	 SHORT $LN2@scalar
$LN3@scalar:
  0002f	68 f8 18 02 00	 push	 137464			; 000218f8H
  00034	8b 45 fc	 mov	 eax, DWORD PTR _this$[ebp]
  00037	50		 push	 eax
  00038	e8 00 00 00 00	 call	 ?__global_delete@@YAXPAXI@Z ; __global_delete
  0003d	83 c4 08	 add	 esp, 8
$LN2@scalar:
  00040	8b 45 fc	 mov	 eax, DWORD PTR _this$[ebp]
  00043	5f		 pop	 edi
  00044	5e		 pop	 esi
  00045	5b		 pop	 ebx
  00046	8b e5		 mov	 esp, ebp
  00048	5d		 pop	 ebp
  00049	c2 04 00	 ret	 4
??_GCLogonServerDlg@@UAEPAXI@Z ENDP			; CLogonServerDlg::`scalar deleting destructor'
_TEXT	ENDS
; Function compile flags: /Odtp /ZI
; File g:\网狐\happygamewh\服务端\系统模块\服务器组件\登录服务器\logonserverdlg.cpp
;	COMDAT ?GetMessageMap@CLogonServerDlg@@MBEPBUAFX_MSGMAP@@XZ
_TEXT	SEGMENT
_this$ = -4						; size = 4
?GetMessageMap@CLogonServerDlg@@MBEPBUAFX_MSGMAP@@XZ PROC ; CLogonServerDlg::GetMessageMap, COMDAT
; _this$ = ecx

; 10   : BEGIN_MESSAGE_MAP(CLogonServerDlg, CDialog)

  00000	55		 push	 ebp
  00001	8b ec		 mov	 ebp, esp
  00003	83 ec 44	 sub	 esp, 68			; 00000044H
  00006	53		 push	 ebx
  00007	56		 push	 esi
  00008	57		 push	 edi
  00009	89 4d fc	 mov	 DWORD PTR _this$[ebp], ecx
  0000c	e8 00 00 00 00	 call	 ?GetThisMessageMap@CLogonServerDlg@@KGPBUAFX_MSGMAP@@XZ ; CLogonServerDlg::GetThisMessageMap
  00011	5f		 pop	 edi
  00012	5e		 pop	 esi
  00013	5b		 pop	 ebx
  00014	8b e5		 mov	 esp, ebp
  00016	5d		 pop	 ebp
  00017	c3		 ret	 0
?GetMessageMap@CLogonServerDlg@@MBEPBUAFX_MSGMAP@@XZ ENDP ; CLogonServerDlg::GetMessageMap
_TEXT	ENDS
; Function compile flags: /Odtp /ZI
; File g:\网狐\happygamewh\服务端\系统模块\服务器组件\登录服务器\logonserverdlg.cpp
;	COMDAT ?GetThisMessageMap@CLogonServerDlg@@KGPBUAFX_MSGMAP@@XZ
_TEXT	SEGMENT
?GetThisMessageMap@CLogonServerDlg@@KGPBUAFX_MSGMAP@@XZ PROC ; CLogonServerDlg::GetThisMessageMap, COMDAT

; 10   : BEGIN_MESSAGE_MAP(CLogonServerDlg, CDialog)

  00000	55		 push	 ebp
  00001	8b ec		 mov	 ebp, esp
  00003	83 ec 40	 sub	 esp, 64			; 00000040H
  00006	53		 push	 ebx
  00007	56		 push	 esi
  00008	57		 push	 edi

; 11   : 	ON_WM_QUERYENDSESSION()
; 12   : 	ON_BN_CLICKED(IDC_STOP_SERVICE, OnBnClickedStopService)
; 13   : 	ON_BN_CLICKED(IDC_START_SERVICE, OnBnClickedStartService)
; 14   : 	//ON_MESSAGE(WM_NETWORK_EVENT, OnNetworkEvent)
; 15   : 	ON_BN_CLICKED(IDC_SYSTEM_OPTION, OnBnClickedInitService)
; 16   : END_MESSAGE_MAP()

  00009	b8 00 00 00 00	 mov	 eax, OFFSET ?messageMap@?1??GetThisMessageMap@CLogonServerDlg@@KGPBUAFX_MSGMAP@@XZ@4U3@B
  0000e	5f		 pop	 edi
  0000f	5e		 pop	 esi
  00010	5b		 pop	 ebx
  00011	8b e5		 mov	 esp, ebp
  00013	5d		 pop	 ebp
  00014	c3		 ret	 0
?GetThisMessageMap@CLogonServerDlg@@KGPBUAFX_MSGMAP@@XZ ENDP ; CLogonServerDlg::GetThisMessageMap
_TEXT	ENDS
; Function compile flags: /Odtp /ZI
; File g:\网狐\happygamewh\服务端\系统模块\服务器组件\登录服务器\logonserverdlg.cpp
;	COMDAT ?OnNetworkEvent@CLogonServerDlg@@QAEJIJ@Z
_TEXT	SEGMENT
_this$ = -4						; size = 4
_wparam$ = 8						; size = 4
_lparam$ = 12						; size = 4
?OnNetworkEvent@CLogonServerDlg@@QAEJIJ@Z PROC		; CLogonServerDlg::OnNetworkEvent, COMDAT
; _this$ = ecx

; 345  : {

  00000	55		 push	 ebp
  00001	8b ec		 mov	 ebp, esp
  00003	83 ec 44	 sub	 esp, 68			; 00000044H
  00006	53		 push	 ebx
  00007	56		 push	 esi
  00008	57		 push	 edi
  00009	89 4d fc	 mov	 DWORD PTR _this$[ebp], ecx

; 346  : 	return 0;//m_NetworkEngine.OnNetworkEvent(wparam, lparam);

  0000c	33 c0		 xor	 eax, eax

; 347  : }

  0000e	5f		 pop	 edi
  0000f	5e		 pop	 esi
  00010	5b		 pop	 ebx
  00011	8b e5		 mov	 esp, ebp
  00013	5d		 pop	 ebp
  00014	c2 08 00	 ret	 8
?OnNetworkEvent@CLogonServerDlg@@QAEJIJ@Z ENDP		; CLogonServerDlg::OnNetworkEvent
_TEXT	ENDS
; Function compile flags: /Odtp /ZI
; File g:\网狐\happygamewh\服务端\系统模块\服务器组件\登录服务器\logonserverdlg.cpp
;	COMDAT ?OnQueryEndSession@CLogonServerDlg@@QAEHXZ
_TEXT	SEGMENT
_this$ = -4						; size = 4
?OnQueryEndSession@CLogonServerDlg@@QAEHXZ PROC		; CLogonServerDlg::OnQueryEndSession, COMDAT
; _this$ = ecx

; 332  : {

  00000	55		 push	 ebp
  00001	8b ec		 mov	 ebp, esp
  00003	83 ec 44	 sub	 esp, 68			; 00000044H
  00006	53		 push	 ebx
  00007	56		 push	 esi
  00008	57		 push	 edi
  00009	89 4d fc	 mov	 DWORD PTR _this$[ebp], ecx

; 333  : 	//提示消息
; 334  : 	if (m_ServiceUnits.GetServiceStatus()!=ServiceStatus_Stop)

  0000c	8b 4d fc	 mov	 ecx, DWORD PTR _this$[ebp]
  0000f	81 c1 b0 00 00
	00		 add	 ecx, 176		; 000000b0H
  00015	e8 00 00 00 00	 call	 ?GetServiceStatus@CServiceUnits@@QAE?AW4enServiceStatus@@XZ ; CServiceUnits::GetServiceStatus
  0001a	85 c0		 test	 eax, eax
  0001c	74 14		 je	 SHORT $LN2@OnQueryEnd

; 335  : 	{
; 336  : 		CTraceService::TraceString(TEXT("服务正在运行中，系统要求注销回话请求失败"),TraceLevel_Warning);

  0001e	6a 02		 push	 2
  00020	68 00 00 00 00	 push	 OFFSET ??_C@_0CJ@LFENAACN@?$LH?$PO?N?q?U?$PN?T?Z?T?K?P?P?V?P?$KD?$KM?O?$LF?M?$LD?R?$KK?G?s?W?$KC?O?z?$LL?X?$LL@
  00025	ff 15 00 00 00
	00		 call	 DWORD PTR __imp_?TraceString@CTraceService@@SA_NPBDW4enTraceLevel@@@Z
  0002b	83 c4 08	 add	 esp, 8

; 337  : 		return FALSE;

  0002e	33 c0		 xor	 eax, eax
  00030	eb 05		 jmp	 SHORT $LN1@OnQueryEnd
$LN2@OnQueryEnd:

; 338  : 	}
; 339  : 
; 340  : 	return TRUE;

  00032	b8 01 00 00 00	 mov	 eax, 1
$LN1@OnQueryEnd:

; 341  : }

  00037	5f		 pop	 edi
  00038	5e		 pop	 esi
  00039	5b		 pop	 ebx
  0003a	8b e5		 mov	 esp, ebp
  0003c	5d		 pop	 ebp
  0003d	c3		 ret	 0
?OnQueryEndSession@CLogonServerDlg@@QAEHXZ ENDP		; CLogonServerDlg::OnQueryEndSession
_TEXT	ENDS
; Function compile flags: /Odtp /ZI
; File g:\网狐\happygamewh\服务端\系统模块\服务器组件\登录服务器\logonserverdlg.cpp
;	COMDAT ?OnBnClickedInitService@CLogonServerDlg@@IAEXXZ
_TEXT	SEGMENT
_SystemOptionDlg$ = -184				; size = 168
_this$ = -16						; size = 4
__$EHRec$ = -12						; size = 12
?OnBnClickedInitService@CLogonServerDlg@@IAEXXZ PROC	; CLogonServerDlg::OnBnClickedInitService, COMDAT
; _this$ = ecx

; 351  : {

  00000	55		 push	 ebp
  00001	8b ec		 mov	 ebp, esp
  00003	6a ff		 push	 -1
  00005	68 00 00 00 00	 push	 __ehhandler$?OnBnClickedInitService@CLogonServerDlg@@IAEXXZ
  0000a	64 a1 00 00 00
	00		 mov	 eax, DWORD PTR fs:0
  00010	50		 push	 eax
  00011	81 ec ec 00 00
	00		 sub	 esp, 236		; 000000ecH
  00017	53		 push	 ebx
  00018	56		 push	 esi
  00019	57		 push	 edi
  0001a	a1 00 00 00 00	 mov	 eax, DWORD PTR ___security_cookie
  0001f	33 c5		 xor	 eax, ebp
  00021	50		 push	 eax
  00022	8d 45 f4	 lea	 eax, DWORD PTR __$EHRec$[ebp]
  00025	64 a3 00 00 00
	00		 mov	 DWORD PTR fs:0, eax
  0002b	89 4d f0	 mov	 DWORD PTR _this$[ebp], ecx

; 352  : 	CSystemOptionDlg SystemOptionDlg;

  0002e	8d 8d 48 ff ff
	ff		 lea	 ecx, DWORD PTR _SystemOptionDlg$[ebp]
  00034	e8 00 00 00 00	 call	 ??0CSystemOptionDlg@@QAE@XZ ; CSystemOptionDlg::CSystemOptionDlg
  00039	c7 45 fc 00 00
	00 00		 mov	 DWORD PTR __$EHRec$[ebp+8], 0

; 353  : 	SystemOptionDlg.DoModal();

  00040	8d 8d 48 ff ff
	ff		 lea	 ecx, DWORD PTR _SystemOptionDlg$[ebp]
  00046	e8 00 00 00 00	 call	 ?DoModal@CDialog@@UAEHXZ ; CDialog::DoModal

; 354  : 
; 355  : 	return;

  0004b	c7 45 fc ff ff
	ff ff		 mov	 DWORD PTR __$EHRec$[ebp+8], -1
  00052	8d 8d 48 ff ff
	ff		 lea	 ecx, DWORD PTR _SystemOptionDlg$[ebp]
  00058	e8 00 00 00 00	 call	 ??1CSystemOptionDlg@@UAE@XZ ; CSystemOptionDlg::~CSystemOptionDlg

; 356  : }

  0005d	8b 4d f4	 mov	 ecx, DWORD PTR __$EHRec$[ebp]
  00060	64 89 0d 00 00
	00 00		 mov	 DWORD PTR fs:0, ecx
  00067	59		 pop	 ecx
  00068	5f		 pop	 edi
  00069	5e		 pop	 esi
  0006a	5b		 pop	 ebx
  0006b	8b e5		 mov	 esp, ebp
  0006d	5d		 pop	 ebp
  0006e	c3		 ret	 0
_TEXT	ENDS
;	COMDAT text$x
text$x	SEGMENT
__unwindfunclet$?OnBnClickedInitService@CLogonServerDlg@@IAEXXZ$0:
  00000	8d 8d 48 ff ff
	ff		 lea	 ecx, DWORD PTR _SystemOptionDlg$[ebp]
  00006	e9 00 00 00 00	 jmp	 ??1CSystemOptionDlg@@UAE@XZ ; CSystemOptionDlg::~CSystemOptionDlg
__ehhandler$?OnBnClickedInitService@CLogonServerDlg@@IAEXXZ:
  0000b	8b 54 24 08	 mov	 edx, DWORD PTR [esp+8]
  0000f	8d 42 0c	 lea	 eax, DWORD PTR [edx+12]
  00012	8b 8a 04 ff ff
	ff		 mov	 ecx, DWORD PTR [edx-252]
  00018	33 c8		 xor	 ecx, eax
  0001a	e8 00 00 00 00	 call	 @__security_check_cookie@4
  0001f	b8 00 00 00 00	 mov	 eax, OFFSET __ehfuncinfo$?OnBnClickedInitService@CLogonServerDlg@@IAEXXZ
  00024	e9 00 00 00 00	 jmp	 ___CxxFrameHandler3
text$x	ENDS
?OnBnClickedInitService@CLogonServerDlg@@IAEXXZ ENDP	; CLogonServerDlg::OnBnClickedInitService
; Function compile flags: /Odtp /ZI
; File g:\网狐\happygamewh\服务端\系统模块\服务器组件\登录服务器\logonserverdlg.cpp
;	COMDAT ?OnBnClickedStopService@CLogonServerDlg@@IAEXXZ
_TEXT	SEGMENT
_this$ = -20						; size = 4
__$EHRec$ = -16						; size = 16
?OnBnClickedStopService@CLogonServerDlg@@IAEXXZ PROC	; CLogonServerDlg::OnBnClickedStopService, COMDAT
; _this$ = ecx

; 316  : {

  00000	55		 push	 ebp
  00001	8b ec		 mov	 ebp, esp
  00003	6a ff		 push	 -1
  00005	68 00 00 00 00	 push	 __ehhandler$?OnBnClickedStopService@CLogonServerDlg@@IAEXXZ
  0000a	64 a1 00 00 00
	00		 mov	 eax, DWORD PTR fs:0
  00010	50		 push	 eax
  00011	51		 push	 ecx
  00012	83 ec 44	 sub	 esp, 68			; 00000044H
  00015	53		 push	 ebx
  00016	56		 push	 esi
  00017	57		 push	 edi
  00018	a1 00 00 00 00	 mov	 eax, DWORD PTR ___security_cookie
  0001d	33 c5		 xor	 eax, ebp
  0001f	50		 push	 eax
  00020	8d 45 f4	 lea	 eax, DWORD PTR __$EHRec$[ebp+4]
  00023	64 a3 00 00 00
	00		 mov	 DWORD PTR fs:0, eax
  00029	89 65 f0	 mov	 DWORD PTR __$EHRec$[ebp], esp
  0002c	89 4d ec	 mov	 DWORD PTR _this$[ebp], ecx

; 317  : 	//停止服务
; 318  : 	try

  0002f	c7 45 fc 00 00
	00 00		 mov	 DWORD PTR __$EHRec$[ebp+12], 0

; 319  : 	{
; 320  : 		m_ServiceUnits.ConcludeService();

  00036	8b 4d ec	 mov	 ecx, DWORD PTR _this$[ebp]
  00039	81 c1 b0 00 00
	00		 add	 ecx, 176		; 000000b0H
  0003f	e8 00 00 00 00	 call	 ?ConcludeService@CServiceUnits@@QAE_NXZ ; CServiceUnits::ConcludeService

; 321  : 	}

  00044	eb 23		 jmp	 SHORT $LN5@OnBnClicke
__catch$?OnBnClickedStopService@CLogonServerDlg@@IAEXXZ$0:

; 322  : 	catch (...)
; 323  : 	{
; 324  : 		ASSERT(FALSE);

  00046	33 c0		 xor	 eax, eax
  00048	75 19		 jne	 SHORT $LN4@OnBnClicke
  0004a	8b 0d 00 00 00
	00		 mov	 ecx, DWORD PTR ?__LINE__Var@?0??OnBnClickedStopService@CLogonServerDlg@@IAEXXZ@4JA
  00050	83 c1 08	 add	 ecx, 8
  00053	51		 push	 ecx
  00054	68 00 00 00 00	 push	 OFFSET ??_C@_0EN@BFOCKBP@g?3?2?M?x?$LK?$PM?2happygamewh?2?$LH?$PO?N?q?$LG?K?2?O?$LF?M?$LD@
  00059	e8 00 00 00 00	 call	 ?AfxAssertFailedLine@@YGHPBDH@Z ; AfxAssertFailedLine
  0005e	85 c0		 test	 eax, eax
  00060	74 01		 je	 SHORT $LN4@OnBnClicke
  00062	cc		 int	 3
$LN4@OnBnClicke:

; 325  : 	}

  00063	b8 00 00 00 00	 mov	 eax, $LN8@OnBnClicke
  00068	c3		 ret	 0
$LN5@OnBnClicke:
  00069	c7 45 fc ff ff
	ff ff		 mov	 DWORD PTR __$EHRec$[ebp+12], -1
  00070	eb 07		 jmp	 SHORT $LN1@OnBnClicke
$LN8@OnBnClicke:
  00072	c7 45 fc ff ff
	ff ff		 mov	 DWORD PTR __$EHRec$[ebp+12], -1
$LN1@OnBnClicke:

; 326  : 
; 327  : 	return;
; 328  : }

  00079	8b 4d f4	 mov	 ecx, DWORD PTR __$EHRec$[ebp+4]
  0007c	64 89 0d 00 00
	00 00		 mov	 DWORD PTR fs:0, ecx
  00083	59		 pop	 ecx
  00084	5f		 pop	 edi
  00085	5e		 pop	 esi
  00086	5b		 pop	 ebx
  00087	8b e5		 mov	 esp, ebp
  00089	5d		 pop	 ebp
  0008a	c3		 ret	 0
_TEXT	ENDS
;	COMDAT text$x
text$x	SEGMENT
__ehhandler$?OnBnClickedStopService@CLogonServerDlg@@IAEXXZ:
  00000	8b 54 24 08	 mov	 edx, DWORD PTR [esp+8]
  00004	8d 42 0c	 lea	 eax, DWORD PTR [edx+12]
  00007	8b 4a a8	 mov	 ecx, DWORD PTR [edx-88]
  0000a	33 c8		 xor	 ecx, eax
  0000c	e8 00 00 00 00	 call	 @__security_check_cookie@4
  00011	b8 00 00 00 00	 mov	 eax, OFFSET __ehfuncinfo$?OnBnClickedStopService@CLogonServerDlg@@IAEXXZ
  00016	e9 00 00 00 00	 jmp	 ___CxxFrameHandler3
text$x	ENDS
?OnBnClickedStopService@CLogonServerDlg@@IAEXXZ ENDP	; CLogonServerDlg::OnBnClickedStopService
; Function compile flags: /Odtp /ZI
; File g:\网狐\happygamewh\服务端\系统模块\服务器组件\登录服务器\logonserverdlg.cpp
;	COMDAT ?OnBnClickedStartService@CLogonServerDlg@@IAEXXZ
_TEXT	SEGMENT
_this$ = -20						; size = 4
__$EHRec$ = -16						; size = 16
?OnBnClickedStartService@CLogonServerDlg@@IAEXXZ PROC	; CLogonServerDlg::OnBnClickedStartService, COMDAT
; _this$ = ecx

; 300  : {

  00000	55		 push	 ebp
  00001	8b ec		 mov	 ebp, esp
  00003	6a ff		 push	 -1
  00005	68 00 00 00 00	 push	 __ehhandler$?OnBnClickedStartService@CLogonServerDlg@@IAEXXZ
  0000a	64 a1 00 00 00
	00		 mov	 eax, DWORD PTR fs:0
  00010	50		 push	 eax
  00011	51		 push	 ecx
  00012	83 ec 44	 sub	 esp, 68			; 00000044H
  00015	53		 push	 ebx
  00016	56		 push	 esi
  00017	57		 push	 edi
  00018	a1 00 00 00 00	 mov	 eax, DWORD PTR ___security_cookie
  0001d	33 c5		 xor	 eax, ebp
  0001f	50		 push	 eax
  00020	8d 45 f4	 lea	 eax, DWORD PTR __$EHRec$[ebp+4]
  00023	64 a3 00 00 00
	00		 mov	 DWORD PTR fs:0, eax
  00029	89 65 f0	 mov	 DWORD PTR __$EHRec$[ebp], esp
  0002c	89 4d ec	 mov	 DWORD PTR _this$[ebp], ecx

; 301  : 	//启动服务
; 302  : 	try

  0002f	c7 45 fc 00 00
	00 00		 mov	 DWORD PTR __$EHRec$[ebp+12], 0

; 303  : 	{
; 304  : 		m_ServiceUnits.StartService();

  00036	8b 4d ec	 mov	 ecx, DWORD PTR _this$[ebp]
  00039	81 c1 b0 00 00
	00		 add	 ecx, 176		; 000000b0H
  0003f	e8 00 00 00 00	 call	 ?StartService@CServiceUnits@@QAE_NXZ ; CServiceUnits::StartService

; 305  : 	}

  00044	eb 23		 jmp	 SHORT $LN5@OnBnClicke
__catch$?OnBnClickedStartService@CLogonServerDlg@@IAEXXZ$0:

; 306  : 	catch (...)
; 307  : 	{
; 308  : 		ASSERT(FALSE);

  00046	33 c0		 xor	 eax, eax
  00048	75 19		 jne	 SHORT $LN4@OnBnClicke
  0004a	8b 0d 00 00 00
	00		 mov	 ecx, DWORD PTR ?__LINE__Var@?0??OnBnClickedStartService@CLogonServerDlg@@IAEXXZ@4JA
  00050	83 c1 08	 add	 ecx, 8
  00053	51		 push	 ecx
  00054	68 00 00 00 00	 push	 OFFSET ??_C@_0EN@BFOCKBP@g?3?2?M?x?$LK?$PM?2happygamewh?2?$LH?$PO?N?q?$LG?K?2?O?$LF?M?$LD@
  00059	e8 00 00 00 00	 call	 ?AfxAssertFailedLine@@YGHPBDH@Z ; AfxAssertFailedLine
  0005e	85 c0		 test	 eax, eax
  00060	74 01		 je	 SHORT $LN4@OnBnClicke
  00062	cc		 int	 3
$LN4@OnBnClicke:

; 309  : 	}

  00063	b8 00 00 00 00	 mov	 eax, $LN8@OnBnClicke
  00068	c3		 ret	 0
$LN5@OnBnClicke:
  00069	c7 45 fc ff ff
	ff ff		 mov	 DWORD PTR __$EHRec$[ebp+12], -1
  00070	eb 07		 jmp	 SHORT $LN1@OnBnClicke
$LN8@OnBnClicke:
  00072	c7 45 fc ff ff
	ff ff		 mov	 DWORD PTR __$EHRec$[ebp+12], -1
$LN1@OnBnClicke:

; 310  : 
; 311  : 	return;
; 312  : }

  00079	8b 4d f4	 mov	 ecx, DWORD PTR __$EHRec$[ebp+4]
  0007c	64 89 0d 00 00
	00 00		 mov	 DWORD PTR fs:0, ecx
  00083	59		 pop	 ecx
  00084	5f		 pop	 edi
  00085	5e		 pop	 esi
  00086	5b		 pop	 ebx
  00087	8b e5		 mov	 esp, ebp
  00089	5d		 pop	 ebp
  0008a	c3		 ret	 0
_TEXT	ENDS
;	COMDAT text$x
text$x	SEGMENT
__ehhandler$?OnBnClickedStartService@CLogonServerDlg@@IAEXXZ:
  00000	8b 54 24 08	 mov	 edx, DWORD PTR [esp+8]
  00004	8d 42 0c	 lea	 eax, DWORD PTR [edx+12]
  00007	8b 4a a8	 mov	 ecx, DWORD PTR [edx-88]
  0000a	33 c8		 xor	 ecx, eax
  0000c	e8 00 00 00 00	 call	 @__security_check_cookie@4
  00011	b8 00 00 00 00	 mov	 eax, OFFSET __ehfuncinfo$?OnBnClickedStartService@CLogonServerDlg@@IAEXXZ
  00016	e9 00 00 00 00	 jmp	 ___CxxFrameHandler3
text$x	ENDS
?OnBnClickedStartService@CLogonServerDlg@@IAEXXZ ENDP	; CLogonServerDlg::OnBnClickedStartService
; Function compile flags: /Odtp /ZI
; File g:\网狐\happygamewh\服务端\系统模块\服务器组件\登录服务器\logonserverdlg.cpp
;	COMDAT ?OnServiceUnitsStatus@CLogonServerDlg@@UAEXW4enServiceStatus@@@Z
_TEXT	SEGMENT
tv219 = -1268						; size = 4
tv64 = -1268						; size = 4
$T1 = -1264						; size = 544
_szString$2 = -528					; size = 512
_pszDescribe$3 = -16					; size = 4
_pszDescribe$4 = -12					; size = 4
_this$ = -8						; size = 4
__$ArrayPad$ = -4					; size = 4
_ServiceStatus$ = 8					; size = 4
?OnServiceUnitsStatus@CLogonServerDlg@@UAEXW4enServiceStatus@@@Z PROC ; CLogonServerDlg::OnServiceUnitsStatus, COMDAT
; _this$ = ecx

; 243  : {

  00000	55		 push	 ebp
  00001	8b ec		 mov	 ebp, esp
  00003	81 ec f4 04 00
	00		 sub	 esp, 1268		; 000004f4H
  00009	a1 00 00 00 00	 mov	 eax, DWORD PTR ___security_cookie
  0000e	33 c5		 xor	 eax, ebp
  00010	89 45 fc	 mov	 DWORD PTR __$ArrayPad$[ebp], eax
  00013	53		 push	 ebx
  00014	56		 push	 esi
  00015	57		 push	 edi
  00016	89 4d f8	 mov	 DWORD PTR _this$[ebp], ecx

; 244  : 	//状态设置
; 245  : 	switch (ServiceStatus)

  00019	8b 45 08	 mov	 eax, DWORD PTR _ServiceStatus$[ebp]
  0001c	89 85 0c fb ff
	ff		 mov	 DWORD PTR tv64[ebp], eax
  00022	83 bd 0c fb ff
	ff 00		 cmp	 DWORD PTR tv64[ebp], 0
  00029	74 1b		 je	 SHORT $LN4@OnServiceU
  0002b	83 bd 0c fb ff
	ff 01		 cmp	 DWORD PTR tv64[ebp], 1
  00032	74 78		 je	 SHORT $LN5@OnServiceU
  00034	83 bd 0c fb ff
	ff 02		 cmp	 DWORD PTR tv64[ebp], 2
  0003b	0f 84 d1 00 00
	00		 je	 $LN6@OnServiceU
  00041	e9 ad 01 00 00	 jmp	 $LN1@OnServiceU
$LN4@OnServiceU:

; 246  : 	{
; 247  : 	case ServiceStatus_Stop:	//停止状态
; 248  : 		{
; 249  : 			//设置标题
; 250  : 			SetWindowText(TEXT("登录服务器 -- [ 停止 ]"));

  00046	68 00 00 00 00	 push	 OFFSET ??_C@_0BH@HJPOPDCD@?$LF?G?B?$LM?$LH?$PO?N?q?F?w?5?9?9?5?$FL?5?M?$KD?V?$LJ?5?$FN@
  0004b	8b 4d f8	 mov	 ecx, DWORD PTR _this$[ebp]
  0004e	81 e9 a8 00 00
	00		 sub	 ecx, 168		; 000000a8H
  00054	e8 00 00 00 00	 call	 ?SetWindowTextA@CWnd@@QAEXPBD@Z ; CWnd::SetWindowTextA

; 251  : 
; 252  : 			//设置按钮
; 253  : 			GetDlgItem(IDC_STOP_SERVICE)->EnableWindow(FALSE);

  00059	6a 00		 push	 0
  0005b	68 ec 03 00 00	 push	 1004			; 000003ecH
  00060	8b 4d f8	 mov	 ecx, DWORD PTR _this$[ebp]
  00063	81 e9 a8 00 00
	00		 sub	 ecx, 168		; 000000a8H
  00069	e8 00 00 00 00	 call	 ?GetDlgItem@CWnd@@QBEPAV1@H@Z ; CWnd::GetDlgItem
  0006e	8b c8		 mov	 ecx, eax
  00070	e8 00 00 00 00	 call	 ?EnableWindow@CWnd@@QAEHH@Z ; CWnd::EnableWindow

; 254  : 			GetDlgItem(IDC_START_SERVICE)->EnableWindow(TRUE);

  00075	6a 01		 push	 1
  00077	68 eb 03 00 00	 push	 1003			; 000003ebH
  0007c	8b 4d f8	 mov	 ecx, DWORD PTR _this$[ebp]
  0007f	81 e9 a8 00 00
	00		 sub	 ecx, 168		; 000000a8H
  00085	e8 00 00 00 00	 call	 ?GetDlgItem@CWnd@@QBEPAV1@H@Z ; CWnd::GetDlgItem
  0008a	8b c8		 mov	 ecx, eax
  0008c	e8 00 00 00 00	 call	 ?EnableWindow@CWnd@@QAEHH@Z ; CWnd::EnableWindow

; 255  : 
; 256  : 			//提示信息
; 257  : 			LPCTSTR pszDescribe=TEXT("服务停止成功");

  00091	c7 45 f4 00 00
	00 00		 mov	 DWORD PTR _pszDescribe$4[ebp], OFFSET ??_C@_0N@HNGKNHMM@?$LH?$PO?N?q?M?$KD?V?$LJ?$LD?I?$LJ?$KG@

; 258  : 			CTraceService::TraceString(pszDescribe,TraceLevel_Normal);

  00098	6a 01		 push	 1
  0009a	8b 45 f4	 mov	 eax, DWORD PTR _pszDescribe$4[ebp]
  0009d	50		 push	 eax
  0009e	ff 15 00 00 00
	00		 call	 DWORD PTR __imp_?TraceString@CTraceService@@SA_NPBDW4enTraceLevel@@@Z
  000a4	83 c4 08	 add	 esp, 8

; 259  : 
; 260  : 			break;

  000a7	e9 47 01 00 00	 jmp	 $LN1@OnServiceU
$LN5@OnServiceU:

; 261  : 		}
; 262  : 	case ServiceStatus_Config:	//配置状态
; 263  : 		{
; 264  : 			//设置标题
; 265  : 			SetWindowText(TEXT("登录服务器 -- [ 初始化 ]"));

  000ac	68 00 00 00 00	 push	 OFFSET ??_C@_0BJ@HMGHIFOC@?$LF?G?B?$LM?$LH?$PO?N?q?F?w?5?9?9?5?$FL?5?$LD?u?J?$LM?$LL?$KP?5?$FN@
  000b1	8b 4d f8	 mov	 ecx, DWORD PTR _this$[ebp]
  000b4	81 e9 a8 00 00
	00		 sub	 ecx, 168		; 000000a8H
  000ba	e8 00 00 00 00	 call	 ?SetWindowTextA@CWnd@@QAEXPBD@Z ; CWnd::SetWindowTextA

; 266  : 
; 267  : 			//设置按钮
; 268  : 			GetDlgItem(IDC_STOP_SERVICE)->EnableWindow(TRUE);

  000bf	6a 01		 push	 1
  000c1	68 ec 03 00 00	 push	 1004			; 000003ecH
  000c6	8b 4d f8	 mov	 ecx, DWORD PTR _this$[ebp]
  000c9	81 e9 a8 00 00
	00		 sub	 ecx, 168		; 000000a8H
  000cf	e8 00 00 00 00	 call	 ?GetDlgItem@CWnd@@QBEPAV1@H@Z ; CWnd::GetDlgItem
  000d4	8b c8		 mov	 ecx, eax
  000d6	e8 00 00 00 00	 call	 ?EnableWindow@CWnd@@QAEHH@Z ; CWnd::EnableWindow

; 269  : 			GetDlgItem(IDC_START_SERVICE)->EnableWindow(FALSE);

  000db	6a 00		 push	 0
  000dd	68 eb 03 00 00	 push	 1003			; 000003ebH
  000e2	8b 4d f8	 mov	 ecx, DWORD PTR _this$[ebp]
  000e5	81 e9 a8 00 00
	00		 sub	 ecx, 168		; 000000a8H
  000eb	e8 00 00 00 00	 call	 ?GetDlgItem@CWnd@@QBEPAV1@H@Z ; CWnd::GetDlgItem
  000f0	8b c8		 mov	 ecx, eax
  000f2	e8 00 00 00 00	 call	 ?EnableWindow@CWnd@@QAEHH@Z ; CWnd::EnableWindow

; 270  : 
; 271  : 			//提示信息
; 272  : 			LPCTSTR pszDescribe=TEXT("正在初始化组件...");

  000f7	c7 45 f0 00 00
	00 00		 mov	 DWORD PTR _pszDescribe$3[ebp], OFFSET ??_C@_0BC@OFPAKDFO@?U?$PN?T?Z?$LD?u?J?$LM?$LL?$KP?W?i?$LM?$PO?4?4?4@

; 273  : 			CTraceService::TraceString(pszDescribe,TraceLevel_Normal);

  000fe	6a 01		 push	 1
  00100	8b 45 f0	 mov	 eax, DWORD PTR _pszDescribe$3[ebp]
  00103	50		 push	 eax
  00104	ff 15 00 00 00
	00		 call	 DWORD PTR __imp_?TraceString@CTraceService@@SA_NPBDW4enTraceLevel@@@Z
  0010a	83 c4 08	 add	 esp, 8

; 274  : 
; 275  : 			break;

  0010d	e9 e1 00 00 00	 jmp	 $LN1@OnServiceU
$LN6@OnServiceU:

; 276  : 		}
; 277  : 	case ServiceStatus_Service:	//服务状态
; 278  : 		{
; 279  : 			//设置标题
; 280  : 			SetWindowText(TEXT("登录服务器 -- [ 运行 ]"));

  00112	68 00 00 00 00	 push	 OFFSET ??_C@_0BH@KGHBOKCA@?$LF?G?B?$LM?$LH?$PO?N?q?F?w?5?9?9?5?$FL?5?T?K?P?P?5?$FN@
  00117	8b 4d f8	 mov	 ecx, DWORD PTR _this$[ebp]
  0011a	81 e9 a8 00 00
	00		 sub	 ecx, 168		; 000000a8H
  00120	e8 00 00 00 00	 call	 ?SetWindowTextA@CWnd@@QAEXPBD@Z ; CWnd::SetWindowTextA

; 281  : 
; 282  : 			//设置按钮
; 283  : 			GetDlgItem(IDC_STOP_SERVICE)->EnableWindow(TRUE);

  00125	6a 01		 push	 1
  00127	68 ec 03 00 00	 push	 1004			; 000003ecH
  0012c	8b 4d f8	 mov	 ecx, DWORD PTR _this$[ebp]
  0012f	81 e9 a8 00 00
	00		 sub	 ecx, 168		; 000000a8H
  00135	e8 00 00 00 00	 call	 ?GetDlgItem@CWnd@@QBEPAV1@H@Z ; CWnd::GetDlgItem
  0013a	8b c8		 mov	 ecx, eax
  0013c	e8 00 00 00 00	 call	 ?EnableWindow@CWnd@@QAEHH@Z ; CWnd::EnableWindow

; 284  : 			GetDlgItem(IDC_START_SERVICE)->EnableWindow(FALSE);

  00141	6a 00		 push	 0
  00143	68 eb 03 00 00	 push	 1003			; 000003ebH
  00148	8b 4d f8	 mov	 ecx, DWORD PTR _this$[ebp]
  0014b	81 e9 a8 00 00
	00		 sub	 ecx, 168		; 000000a8H
  00151	e8 00 00 00 00	 call	 ?GetDlgItem@CWnd@@QBEPAV1@H@Z ; CWnd::GetDlgItem
  00156	8b c8		 mov	 ecx, eax
  00158	e8 00 00 00 00	 call	 ?EnableWindow@CWnd@@QAEHH@Z ; CWnd::EnableWindow

; 285  : 			GetDlgItem(IDC_SYSTEM_OPTION)->EnableWindow(FALSE);

  0015d	6a 00		 push	 0
  0015f	68 ed 03 00 00	 push	 1005			; 000003edH
  00164	8b 4d f8	 mov	 ecx, DWORD PTR _this$[ebp]
  00167	81 e9 a8 00 00
	00		 sub	 ecx, 168		; 000000a8H
  0016d	e8 00 00 00 00	 call	 ?GetDlgItem@CWnd@@QBEPAV1@H@Z ; CWnd::GetDlgItem
  00172	8b c8		 mov	 ecx, eax
  00174	e8 00 00 00 00	 call	 ?EnableWindow@CWnd@@QAEHH@Z ; CWnd::EnableWindow

; 286  : 			//提示信息
; 287  : 			TCHAR szString[512] = TEXT("");

  00179	a0 00 00 00 00	 mov	 al, BYTE PTR ??_C@_00CNPNBAHC@@
  0017e	88 85 f0 fd ff
	ff		 mov	 BYTE PTR _szString$2[ebp], al
  00184	68 ff 01 00 00	 push	 511			; 000001ffH
  00189	6a 00		 push	 0
  0018b	8d 85 f1 fd ff
	ff		 lea	 eax, DWORD PTR _szString$2[ebp+1]
  00191	50		 push	 eax
  00192	e8 00 00 00 00	 call	 _memset
  00197	83 c4 0c	 add	 esp, 12			; 0000000cH

; 288  : 			_sntprintf(szString, CountArray(szString), TEXT("服务启动成功 [ 端口:%d ]"), m_ServiceUnits.GetInitParameter().m_wServicePort);

  0019a	8d 85 10 fb ff
	ff		 lea	 eax, DWORD PTR $T1[ebp]
  001a0	50		 push	 eax
  001a1	8b 4d f8	 mov	 ecx, DWORD PTR _this$[ebp]
  001a4	83 c1 08	 add	 ecx, 8
  001a7	e8 00 00 00 00	 call	 ?GetInitParameter@CServiceUnits@@QAE?AVCInitParameter@@XZ ; CServiceUnits::GetInitParameter
  001ac	89 85 0c fb ff
	ff		 mov	 DWORD PTR tv219[ebp], eax
  001b2	8b 8d 0c fb ff
	ff		 mov	 ecx, DWORD PTR tv219[ebp]
  001b8	0f b7 51 08	 movzx	 edx, WORD PTR [ecx+8]
  001bc	52		 push	 edx
  001bd	68 00 00 00 00	 push	 OFFSET ??_C@_0BJ@HLOOMBNP@?$LH?$PO?N?q?F?t?$LG?$KP?$LD?I?$LJ?$KG?5?$FL?5?$LG?K?$LP?Z?3?$CFd?5?$FN@
  001c2	68 00 02 00 00	 push	 512			; 00000200H
  001c7	8d 85 f0 fd ff
	ff		 lea	 eax, DWORD PTR _szString$2[ebp]
  001cd	50		 push	 eax
  001ce	e8 00 00 00 00	 call	 __snprintf
  001d3	83 c4 10	 add	 esp, 16			; 00000010H
  001d6	8d 8d 10 fb ff
	ff		 lea	 ecx, DWORD PTR $T1[ebp]
  001dc	e8 00 00 00 00	 call	 ??1CInitParameter@@UAE@XZ ; CInitParameter::~CInitParameter

; 289  : 			CTraceService::TraceString(szString,TraceLevel_Normal);

  001e1	6a 01		 push	 1
  001e3	8d 85 f0 fd ff
	ff		 lea	 eax, DWORD PTR _szString$2[ebp]
  001e9	50		 push	 eax
  001ea	ff 15 00 00 00
	00		 call	 DWORD PTR __imp_?TraceString@CTraceService@@SA_NPBDW4enTraceLevel@@@Z
  001f0	83 c4 08	 add	 esp, 8
$LN1@OnServiceU:

; 290  : 
; 291  : 			break;
; 292  : 		}
; 293  : 	}
; 294  : 
; 295  : 	return;
; 296  : }

  001f3	5f		 pop	 edi
  001f4	5e		 pop	 esi
  001f5	5b		 pop	 ebx
  001f6	8b 4d fc	 mov	 ecx, DWORD PTR __$ArrayPad$[ebp]
  001f9	33 cd		 xor	 ecx, ebp
  001fb	e8 00 00 00 00	 call	 @__security_check_cookie@4
  00200	8b e5		 mov	 esp, ebp
  00202	5d		 pop	 ebp
  00203	c2 04 00	 ret	 4
?OnServiceUnitsStatus@CLogonServerDlg@@UAEXW4enServiceStatus@@@Z ENDP ; CLogonServerDlg::OnServiceUnitsStatus
_TEXT	ENDS
; Function compile flags: /Odtp /ZI
; File g:\网狐\happygamewh\服务端\系统模块\服务器组件\登录服务器\logonserverdlg.cpp
;	COMDAT ?PreTranslateMessage@CLogonServerDlg@@MAEHPAUtagMSG@@@Z
_TEXT	SEGMENT
_this$ = -4						; size = 4
_pMsg$ = 8						; size = 4
?PreTranslateMessage@CLogonServerDlg@@MAEHPAUtagMSG@@@Z PROC ; CLogonServerDlg::PreTranslateMessage, COMDAT
; _this$ = ecx

; 231  : {

  00000	55		 push	 ebp
  00001	8b ec		 mov	 ebp, esp
  00003	83 ec 44	 sub	 esp, 68			; 00000044H
  00006	53		 push	 ebx
  00007	56		 push	 esi
  00008	57		 push	 edi
  00009	89 4d fc	 mov	 DWORD PTR _this$[ebp], ecx

; 232  : 	//按键过滤
; 233  : 	if ((pMsg->message==WM_KEYDOWN)&&(pMsg->wParam==VK_ESCAPE))

  0000c	8b 45 08	 mov	 eax, DWORD PTR _pMsg$[ebp]
  0000f	81 78 04 00 01
	00 00		 cmp	 DWORD PTR [eax+4], 256	; 00000100H
  00016	75 10		 jne	 SHORT $LN2@PreTransla
  00018	8b 45 08	 mov	 eax, DWORD PTR _pMsg$[ebp]
  0001b	83 78 08 1b	 cmp	 DWORD PTR [eax+8], 27	; 0000001bH
  0001f	75 07		 jne	 SHORT $LN2@PreTransla

; 234  : 	{
; 235  : 		return TRUE;

  00021	b8 01 00 00 00	 mov	 eax, 1
  00026	eb 0c		 jmp	 SHORT $LN1@PreTransla
$LN2@PreTransla:

; 236  : 	}
; 237  : 
; 238  : 	return __super::PreTranslateMessage(pMsg);

  00028	8b 45 08	 mov	 eax, DWORD PTR _pMsg$[ebp]
  0002b	50		 push	 eax
  0002c	8b 4d fc	 mov	 ecx, DWORD PTR _this$[ebp]
  0002f	e8 00 00 00 00	 call	 ?PreTranslateMessage@CDialog@@UAEHPAUtagMSG@@@Z ; CDialog::PreTranslateMessage
$LN1@PreTransla:

; 239  : }

  00034	5f		 pop	 edi
  00035	5e		 pop	 esi
  00036	5b		 pop	 ebx
  00037	8b e5		 mov	 esp, ebp
  00039	5d		 pop	 ebp
  0003a	c2 04 00	 ret	 4
?PreTranslateMessage@CLogonServerDlg@@MAEHPAUtagMSG@@@Z ENDP ; CLogonServerDlg::PreTranslateMessage
_TEXT	ENDS
; Function compile flags: /Odtp /ZI
; File g:\网狐\happygamewh\服务端\系统模块\服务器组件\登录服务器\logonserverdlg.cpp
;	COMDAT ?OnCancel@CLogonServerDlg@@MAEXXZ
_TEXT	SEGMENT
_pszQuestion$1 = -8					; size = 4
_this$ = -4						; size = 4
?OnCancel@CLogonServerDlg@@MAEXXZ PROC			; CLogonServerDlg::OnCancel, COMDAT
; _this$ = ecx

; 215  : {

  00000	55		 push	 ebp
  00001	8b ec		 mov	 ebp, esp
  00003	83 ec 48	 sub	 esp, 72			; 00000048H
  00006	53		 push	 ebx
  00007	56		 push	 esi
  00008	57		 push	 edi
  00009	89 4d fc	 mov	 DWORD PTR _this$[ebp], ecx

; 216  : 	//关闭询问
; 217  : 	if (m_ServiceUnits.GetServiceStatus()!=ServiceStatus_Stop)

  0000c	8b 4d fc	 mov	 ecx, DWORD PTR _this$[ebp]
  0000f	81 c1 b0 00 00
	00		 add	 ecx, 176		; 000000b0H
  00015	e8 00 00 00 00	 call	 ?GetServiceStatus@CServiceUnits@@QAE?AW4enServiceStatus@@XZ ; CServiceUnits::GetServiceStatus
  0001a	85 c0		 test	 eax, eax
  0001c	74 1e		 je	 SHORT $LN2@OnCancel

; 218  : 	{
; 219  : 		LPCTSTR pszQuestion=TEXT("登录服务器正在运行中，您确实要关闭服务器吗？");

  0001e	c7 45 f8 00 00
	00 00		 mov	 DWORD PTR _pszQuestion$1[ebp], OFFSET ??_C@_0CN@CFDAPCBF@?$LF?G?B?$LM?$LH?$PO?N?q?F?w?U?$PN?T?Z?T?K?P?P?V?P?$KD?$KM?D?z?H?$LH?J?$LF?R?$KK?$LJ@

; 220  : 		if (AfxMessageBox(pszQuestion,MB_YESNO|MB_DEFBUTTON2|MB_ICONQUESTION)!=IDYES) return;

  00025	6a 00		 push	 0
  00027	68 24 01 00 00	 push	 292			; 00000124H
  0002c	8b 45 f8	 mov	 eax, DWORD PTR _pszQuestion$1[ebp]
  0002f	50		 push	 eax
  00030	e8 00 00 00 00	 call	 ?AfxMessageBox@@YGHPBDII@Z ; AfxMessageBox
  00035	83 f8 06	 cmp	 eax, 6
  00038	74 02		 je	 SHORT $LN2@OnCancel
  0003a	eb 16		 jmp	 SHORT $LN1@OnCancel
$LN2@OnCancel:

; 221  : 	}
; 222  : 
; 223  : 	//停止服务
; 224  : 	m_ServiceUnits.ConcludeService();

  0003c	8b 4d fc	 mov	 ecx, DWORD PTR _this$[ebp]
  0003f	81 c1 b0 00 00
	00		 add	 ecx, 176		; 000000b0H
  00045	e8 00 00 00 00	 call	 ?ConcludeService@CServiceUnits@@QAE_NXZ ; CServiceUnits::ConcludeService

; 225  : 
; 226  : 	__super::OnCancel();

  0004a	8b 4d fc	 mov	 ecx, DWORD PTR _this$[ebp]
  0004d	e8 00 00 00 00	 call	 ?OnCancel@CDialog@@MAEXXZ ; CDialog::OnCancel
$LN1@OnCancel:

; 227  : }

  00052	5f		 pop	 edi
  00053	5e		 pop	 esi
  00054	5b		 pop	 ebx
  00055	8b e5		 mov	 esp, ebp
  00057	5d		 pop	 ebp
  00058	c3		 ret	 0
?OnCancel@CLogonServerDlg@@MAEXXZ ENDP			; CLogonServerDlg::OnCancel
_TEXT	ENDS
; Function compile flags: /Odtp /ZI
; File g:\网狐\happygamewh\服务端\系统模块\服务器组件\登录服务器\logonserverdlg.cpp
;	COMDAT ?OnOK@CLogonServerDlg@@MAEXXZ
_TEXT	SEGMENT
_this$ = -4						; size = 4
?OnOK@CLogonServerDlg@@MAEXXZ PROC			; CLogonServerDlg::OnOK, COMDAT
; _this$ = ecx

; 209  : {

  00000	55		 push	 ebp
  00001	8b ec		 mov	 ebp, esp
  00003	83 ec 44	 sub	 esp, 68			; 00000044H
  00006	53		 push	 ebx
  00007	56		 push	 esi
  00008	57		 push	 edi
  00009	89 4d fc	 mov	 DWORD PTR _this$[ebp], ecx

; 210  : 	return;
; 211  : }

  0000c	5f		 pop	 edi
  0000d	5e		 pop	 esi
  0000e	5b		 pop	 ebx
  0000f	8b e5		 mov	 esp, ebp
  00011	5d		 pop	 ebp
  00012	c3		 ret	 0
?OnOK@CLogonServerDlg@@MAEXXZ ENDP			; CLogonServerDlg::OnOK
_TEXT	ENDS
; Function compile flags: /Odtp /ZI
; File g:\网狐\happygamewh\服务端\系统模块\服务器组件\登录服务器\logonserverdlg.cpp
;	COMDAT ?OnInitDialog@CLogonServerDlg@@MAEHXZ
_TEXT	SEGMENT
tv132 = -76						; size = 4
_hIcon$ = -8						; size = 4
_this$ = -4						; size = 4
?OnInitDialog@CLogonServerDlg@@MAEHXZ PROC		; CLogonServerDlg::OnInitDialog, COMDAT
; _this$ = ecx

; 188  : {

  00000	55		 push	 ebp
  00001	8b ec		 mov	 ebp, esp
  00003	83 ec 4c	 sub	 esp, 76			; 0000004cH
  00006	53		 push	 ebx
  00007	56		 push	 esi
  00008	57		 push	 edi
  00009	89 4d fc	 mov	 DWORD PTR _this$[ebp], ecx

; 189  : 	__super::OnInitDialog();

  0000c	8b 4d fc	 mov	 ecx, DWORD PTR _this$[ebp]
  0000f	e8 00 00 00 00	 call	 ?OnInitDialog@CDialog@@UAEHXZ ; CDialog::OnInitDialog

; 190  : 
; 191  : 	//设置标题
; 192  : 	SetWindowText(TEXT("登录服务器 -- [ 停止 ]"));

  00014	68 00 00 00 00	 push	 OFFSET ??_C@_0BH@HJPOPDCD@?$LF?G?B?$LM?$LH?$PO?N?q?F?w?5?9?9?5?$FL?5?M?$KD?V?$LJ?5?$FN@
  00019	8b 4d fc	 mov	 ecx, DWORD PTR _this$[ebp]
  0001c	e8 00 00 00 00	 call	 ?SetWindowTextA@CWnd@@QAEXPBD@Z ; CWnd::SetWindowTextA

; 193  : 
; 194  : 	//设置图标
; 195  : 	HICON hIcon=LoadIcon(AfxGetInstanceHandle(),MAKEINTRESOURCE(IDR_MAINFRAME));

  00021	68 80 00 00 00	 push	 128			; 00000080H
  00026	e8 00 00 00 00	 call	 ?AfxGetInstanceHandle@@YGPAUHINSTANCE__@@XZ ; AfxGetInstanceHandle
  0002b	50		 push	 eax
  0002c	ff 15 00 00 00
	00		 call	 DWORD PTR __imp__LoadIconA@8
  00032	89 45 f8	 mov	 DWORD PTR _hIcon$[ebp], eax

; 196  : 	SetIcon(hIcon,TRUE);

  00035	6a 01		 push	 1
  00037	8b 45 f8	 mov	 eax, DWORD PTR _hIcon$[ebp]
  0003a	50		 push	 eax
  0003b	8b 4d fc	 mov	 ecx, DWORD PTR _this$[ebp]
  0003e	e8 00 00 00 00	 call	 ?SetIcon@CWnd@@QAEPAUHICON__@@PAU2@H@Z ; CWnd::SetIcon

; 197  : 	SetIcon(hIcon,FALSE);

  00043	6a 00		 push	 0
  00045	8b 45 f8	 mov	 eax, DWORD PTR _hIcon$[ebp]
  00048	50		 push	 eax
  00049	8b 4d fc	 mov	 ecx, DWORD PTR _this$[ebp]
  0004c	e8 00 00 00 00	 call	 ?SetIcon@CWnd@@QAEPAUHICON__@@PAU2@H@Z ; CWnd::SetIcon

; 198  : 
; 199  : 	//设置组件
; 200  : 	m_ServiceUnits.SetServiceUnitsSink(this);

  00051	83 7d fc 00	 cmp	 DWORD PTR _this$[ebp], 0
  00055	74 0d		 je	 SHORT $LN3@OnInitDial
  00057	8b 45 fc	 mov	 eax, DWORD PTR _this$[ebp]
  0005a	05 a8 00 00 00	 add	 eax, 168		; 000000a8H
  0005f	89 45 b4	 mov	 DWORD PTR tv132[ebp], eax
  00062	eb 07		 jmp	 SHORT $LN4@OnInitDial
$LN3@OnInitDial:
  00064	c7 45 b4 00 00
	00 00		 mov	 DWORD PTR tv132[ebp], 0
$LN4@OnInitDial:
  0006b	8b 4d b4	 mov	 ecx, DWORD PTR tv132[ebp]
  0006e	51		 push	 ecx
  0006f	8b 4d fc	 mov	 ecx, DWORD PTR _this$[ebp]
  00072	81 c1 b0 00 00
	00		 add	 ecx, 176		; 000000b0H
  00078	e8 00 00 00 00	 call	 ?SetServiceUnitsSink@CServiceUnits@@QAE_NPAUIServiceUnitsSink@@@Z ; CServiceUnits::SetServiceUnitsSink

; 201  : 	m_FlashAccredit.SetServiceParameter(843);

  0007d	68 4b 03 00 00	 push	 843			; 0000034bH
  00082	8b 4d fc	 mov	 ecx, DWORD PTR _this$[ebp]
  00085	81 c1 98 18 02
	00		 add	 ecx, 137368		; 00021898H
  0008b	e8 00 00 00 00	 call	 ?SetServiceParameter@CFlashAccredit@@QAEXG@Z ; CFlashAccredit::SetServiceParameter

; 202  : 	m_FlashAccredit.StartService();

  00090	8b 4d fc	 mov	 ecx, DWORD PTR _this$[ebp]
  00093	81 c1 98 18 02
	00		 add	 ecx, 137368		; 00021898H
  00099	e8 00 00 00 00	 call	 ?StartService@CFlashAccredit@@QAE_NXZ ; CFlashAccredit::StartService

; 203  : 
; 204  : 	return TRUE;

  0009e	b8 01 00 00 00	 mov	 eax, 1

; 205  : }

  000a3	5f		 pop	 edi
  000a4	5e		 pop	 esi
  000a5	5b		 pop	 ebx
  000a6	8b e5		 mov	 esp, ebp
  000a8	5d		 pop	 ebp
  000a9	c3		 ret	 0
?OnInitDialog@CLogonServerDlg@@MAEHXZ ENDP		; CLogonServerDlg::OnInitDialog
_TEXT	ENDS
; Function compile flags: /Odtp /ZI
; File g:\网狐\happygamewh\服务端\系统模块\服务器组件\登录服务器\logonserverdlg.cpp
;	COMDAT ?DoDataExchange@CLogonServerDlg@@MAEXPAVCDataExchange@@@Z
_TEXT	SEGMENT
_this$ = -4						; size = 4
_pDX$ = 8						; size = 4
?DoDataExchange@CLogonServerDlg@@MAEXPAVCDataExchange@@@Z PROC ; CLogonServerDlg::DoDataExchange, COMDAT
; _this$ = ecx

; 181  : {

  00000	55		 push	 ebp
  00001	8b ec		 mov	 ebp, esp
  00003	83 ec 44	 sub	 esp, 68			; 00000044H
  00006	53		 push	 ebx
  00007	56		 push	 esi
  00008	57		 push	 edi
  00009	89 4d fc	 mov	 DWORD PTR _this$[ebp], ecx

; 182  : 	__super::DoDataExchange(pDX);

  0000c	8b 45 08	 mov	 eax, DWORD PTR _pDX$[ebp]
  0000f	50		 push	 eax
  00010	8b 4d fc	 mov	 ecx, DWORD PTR _this$[ebp]
  00013	e8 00 00 00 00	 call	 ?DoDataExchange@CWnd@@MAEXPAVCDataExchange@@@Z ; CWnd::DoDataExchange

; 183  : 	DDX_Control(pDX, IDC_TRACE_MESSAGE, m_TraceServiceControl);

  00018	8b 45 fc	 mov	 eax, DWORD PTR _this$[ebp]
  0001b	05 c8 d7 01 00	 add	 eax, 120776		; 0001d7c8H
  00020	50		 push	 eax
  00021	68 ea 03 00 00	 push	 1002			; 000003eaH
  00026	8b 4d 08	 mov	 ecx, DWORD PTR _pDX$[ebp]
  00029	51		 push	 ecx
  0002a	e8 00 00 00 00	 call	 ?DDX_Control@@YGXPAVCDataExchange@@HAAVCWnd@@@Z ; DDX_Control

; 184  : }

  0002f	5f		 pop	 edi
  00030	5e		 pop	 esi
  00031	5b		 pop	 ebx
  00032	8b e5		 mov	 esp, ebp
  00034	5d		 pop	 ebp
  00035	c2 04 00	 ret	 4
?DoDataExchange@CLogonServerDlg@@MAEXPAVCDataExchange@@@Z ENDP ; CLogonServerDlg::DoDataExchange
_TEXT	ENDS
; Function compile flags: /Odtp /ZI
; File g:\网狐\happygamewh\服务端\系统模块\服务器组件\登录服务器\logonserverdlg.cpp
;	COMDAT ??1CLogonServerDlg@@UAE@XZ
_TEXT	SEGMENT
_this$ = -4						; size = 4
??1CLogonServerDlg@@UAE@XZ PROC				; CLogonServerDlg::~CLogonServerDlg, COMDAT
; _this$ = ecx

; 176  : {

  00000	55		 push	 ebp
  00001	8b ec		 mov	 ebp, esp
  00003	83 ec 44	 sub	 esp, 68			; 00000044H
  00006	53		 push	 ebx
  00007	56		 push	 esi
  00008	57		 push	 edi
  00009	89 4d fc	 mov	 DWORD PTR _this$[ebp], ecx
  0000c	8b 45 fc	 mov	 eax, DWORD PTR _this$[ebp]
  0000f	c7 00 00 00 00
	00		 mov	 DWORD PTR [eax], OFFSET ??_7CLogonServerDlg@@6BCDialog@@@
  00015	8b 45 fc	 mov	 eax, DWORD PTR _this$[ebp]
  00018	c7 80 a8 00 00
	00 00 00 00 00	 mov	 DWORD PTR [eax+168], OFFSET ??_7CLogonServerDlg@@6BIServiceUnitsSink@@@

; 177  : }

  00022	8b 4d fc	 mov	 ecx, DWORD PTR _this$[ebp]
  00025	81 c1 98 18 02
	00		 add	 ecx, 137368		; 00021898H
  0002b	e8 00 00 00 00	 call	 ??1CFlashAccredit@@QAE@XZ ; CFlashAccredit::~CFlashAccredit
  00030	8b 4d fc	 mov	 ecx, DWORD PTR _this$[ebp]
  00033	81 c1 c8 d7 01
	00		 add	 ecx, 120776		; 0001d7c8H
  00039	ff 15 00 00 00
	00		 call	 DWORD PTR __imp_??1CTraceServiceControl@@UAE@XZ
  0003f	8b 4d fc	 mov	 ecx, DWORD PTR _this$[ebp]
  00042	81 c1 b0 00 00
	00		 add	 ecx, 176		; 000000b0H
  00048	e8 00 00 00 00	 call	 ??1CServiceUnits@@UAE@XZ ; CServiceUnits::~CServiceUnits
  0004d	8b 4d fc	 mov	 ecx, DWORD PTR _this$[ebp]
  00050	e8 00 00 00 00	 call	 ??1CDialog@@UAE@XZ	; CDialog::~CDialog
  00055	5f		 pop	 edi
  00056	5e		 pop	 esi
  00057	5b		 pop	 ebx
  00058	8b e5		 mov	 esp, ebp
  0005a	5d		 pop	 ebp
  0005b	c3		 ret	 0
??1CLogonServerDlg@@UAE@XZ ENDP				; CLogonServerDlg::~CLogonServerDlg
_TEXT	ENDS
; Function compile flags: /Odtp /ZI
; File g:\网狐\happygamewh\服务端\系统模块\服务器组件\登录服务器\logonserverdlg.cpp
;	COMDAT ??0CLogonServerDlg@@QAE@XZ
_TEXT	SEGMENT
_this$ = -16						; size = 4
__$EHRec$ = -12						; size = 12
??0CLogonServerDlg@@QAE@XZ PROC				; CLogonServerDlg::CLogonServerDlg, COMDAT
; _this$ = ecx

; 171  : {

  00000	55		 push	 ebp
  00001	8b ec		 mov	 ebp, esp
  00003	6a ff		 push	 -1
  00005	68 00 00 00 00	 push	 __ehhandler$??0CLogonServerDlg@@QAE@XZ
  0000a	64 a1 00 00 00
	00		 mov	 eax, DWORD PTR fs:0
  00010	50		 push	 eax
  00011	83 ec 44	 sub	 esp, 68			; 00000044H
  00014	53		 push	 ebx
  00015	56		 push	 esi
  00016	57		 push	 edi
  00017	a1 00 00 00 00	 mov	 eax, DWORD PTR ___security_cookie
  0001c	33 c5		 xor	 eax, ebp
  0001e	50		 push	 eax
  0001f	8d 45 f4	 lea	 eax, DWORD PTR __$EHRec$[ebp]
  00022	64 a3 00 00 00
	00		 mov	 DWORD PTR fs:0, eax
  00028	89 4d f0	 mov	 DWORD PTR _this$[ebp], ecx

; 170  : CLogonServerDlg::CLogonServerDlg() : CDialog(IDD_DLG_LOGON_SERVER)

  0002b	6a 00		 push	 0
  0002d	6a 67		 push	 103			; 00000067H
  0002f	8b 4d f0	 mov	 ecx, DWORD PTR _this$[ebp]
  00032	e8 00 00 00 00	 call	 ??0CDialog@@QAE@IPAVCWnd@@@Z ; CDialog::CDialog
  00037	c7 45 fc 00 00
	00 00		 mov	 DWORD PTR __$EHRec$[ebp+8], 0

; 171  : {

  0003e	8b 4d f0	 mov	 ecx, DWORD PTR _this$[ebp]
  00041	81 c1 a8 00 00
	00		 add	 ecx, 168		; 000000a8H
  00047	e8 00 00 00 00	 call	 ??0IServiceUnitsSink@@QAE@XZ
  0004c	8b 45 f0	 mov	 eax, DWORD PTR _this$[ebp]
  0004f	c7 00 00 00 00
	00		 mov	 DWORD PTR [eax], OFFSET ??_7CLogonServerDlg@@6BCDialog@@@
  00055	8b 45 f0	 mov	 eax, DWORD PTR _this$[ebp]
  00058	c7 80 a8 00 00
	00 00 00 00 00	 mov	 DWORD PTR [eax+168], OFFSET ??_7CLogonServerDlg@@6BIServiceUnitsSink@@@
  00062	8b 4d f0	 mov	 ecx, DWORD PTR _this$[ebp]
  00065	81 c1 b0 00 00
	00		 add	 ecx, 176		; 000000b0H
  0006b	e8 00 00 00 00	 call	 ??0CServiceUnits@@QAE@XZ ; CServiceUnits::CServiceUnits
  00070	c6 45 fc 01	 mov	 BYTE PTR __$EHRec$[ebp+8], 1
  00074	8b 4d f0	 mov	 ecx, DWORD PTR _this$[ebp]
  00077	81 c1 c8 d7 01
	00		 add	 ecx, 120776		; 0001d7c8H
  0007d	ff 15 00 00 00
	00		 call	 DWORD PTR __imp_??0CTraceServiceControl@@QAE@XZ
  00083	c6 45 fc 02	 mov	 BYTE PTR __$EHRec$[ebp+8], 2
  00087	8b 4d f0	 mov	 ecx, DWORD PTR _this$[ebp]
  0008a	81 c1 98 18 02
	00		 add	 ecx, 137368		; 00021898H
  00090	e8 00 00 00 00	 call	 ??0CFlashAccredit@@QAE@XZ ; CFlashAccredit::CFlashAccredit

; 172  : }

  00095	c7 45 fc ff ff
	ff ff		 mov	 DWORD PTR __$EHRec$[ebp+8], -1
  0009c	8b 45 f0	 mov	 eax, DWORD PTR _this$[ebp]
  0009f	8b 4d f4	 mov	 ecx, DWORD PTR __$EHRec$[ebp]
  000a2	64 89 0d 00 00
	00 00		 mov	 DWORD PTR fs:0, ecx
  000a9	59		 pop	 ecx
  000aa	5f		 pop	 edi
  000ab	5e		 pop	 esi
  000ac	5b		 pop	 ebx
  000ad	8b e5		 mov	 esp, ebp
  000af	5d		 pop	 ebp
  000b0	c3		 ret	 0
_TEXT	ENDS
;	COMDAT text$x
text$x	SEGMENT
__unwindfunclet$??0CLogonServerDlg@@QAE@XZ$0:
  00000	8b 4d f0	 mov	 ecx, DWORD PTR _this$[ebp]
  00003	e9 00 00 00 00	 jmp	 ??1CDialog@@UAE@XZ	; CDialog::~CDialog
__unwindfunclet$??0CLogonServerDlg@@QAE@XZ$1:
  00008	8b 4d f0	 mov	 ecx, DWORD PTR _this$[ebp]
  0000b	81 c1 b0 00 00
	00		 add	 ecx, 176		; 000000b0H
  00011	e9 00 00 00 00	 jmp	 ??1CServiceUnits@@UAE@XZ ; CServiceUnits::~CServiceUnits
__unwindfunclet$??0CLogonServerDlg@@QAE@XZ$2:
  00016	8b 4d f0	 mov	 ecx, DWORD PTR _this$[ebp]
  00019	81 c1 c8 d7 01
	00		 add	 ecx, 120776		; 0001d7c8H
  0001f	ff 25 00 00 00
	00		 jmp	 DWORD PTR __imp_??1CTraceServiceControl@@UAE@XZ
__ehhandler$??0CLogonServerDlg@@QAE@XZ:
  00025	8b 54 24 08	 mov	 edx, DWORD PTR [esp+8]
  00029	8d 42 0c	 lea	 eax, DWORD PTR [edx+12]
  0002c	8b 4a ac	 mov	 ecx, DWORD PTR [edx-84]
  0002f	33 c8		 xor	 ecx, eax
  00031	e8 00 00 00 00	 call	 @__security_check_cookie@4
  00036	b8 00 00 00 00	 mov	 eax, OFFSET __ehfuncinfo$??0CLogonServerDlg@@QAE@XZ
  0003b	e9 00 00 00 00	 jmp	 ___CxxFrameHandler3
text$x	ENDS
??0CLogonServerDlg@@QAE@XZ ENDP				; CLogonServerDlg::CLogonServerDlg
; Function compile flags: /Odtp /ZI
;	COMDAT ??_GCSystemOptionDlg@@UAEPAXI@Z
_TEXT	SEGMENT
_this$ = -4						; size = 4
___flags$ = 8						; size = 4
??_GCSystemOptionDlg@@UAEPAXI@Z PROC			; CSystemOptionDlg::`scalar deleting destructor', COMDAT
; _this$ = ecx
  00000	55		 push	 ebp
  00001	8b ec		 mov	 ebp, esp
  00003	83 ec 44	 sub	 esp, 68			; 00000044H
  00006	53		 push	 ebx
  00007	56		 push	 esi
  00008	57		 push	 edi
  00009	89 4d fc	 mov	 DWORD PTR _this$[ebp], ecx
  0000c	8b 4d fc	 mov	 ecx, DWORD PTR _this$[ebp]
  0000f	e8 00 00 00 00	 call	 ??1CSystemOptionDlg@@UAE@XZ ; CSystemOptionDlg::~CSystemOptionDlg
  00014	8b 45 08	 mov	 eax, DWORD PTR ___flags$[ebp]
  00017	83 e0 01	 and	 eax, 1
  0001a	74 24		 je	 SHORT $LN2@scalar
  0001c	8b 45 08	 mov	 eax, DWORD PTR ___flags$[ebp]
  0001f	83 e0 04	 and	 eax, 4
  00022	75 0b		 jne	 SHORT $LN3@scalar
  00024	8b 45 fc	 mov	 eax, DWORD PTR _this$[ebp]
  00027	50		 push	 eax
  00028	e8 00 00 00 00	 call	 ??3CObject@@SGXPAX@Z	; CObject::operator delete
  0002d	eb 11		 jmp	 SHORT $LN2@scalar
$LN3@scalar:
  0002f	68 a8 00 00 00	 push	 168			; 000000a8H
  00034	8b 45 fc	 mov	 eax, DWORD PTR _this$[ebp]
  00037	50		 push	 eax
  00038	e8 00 00 00 00	 call	 ?__global_delete@@YAXPAXI@Z ; __global_delete
  0003d	83 c4 08	 add	 esp, 8
$LN2@scalar:
  00040	8b 45 fc	 mov	 eax, DWORD PTR _this$[ebp]
  00043	5f		 pop	 edi
  00044	5e		 pop	 esi
  00045	5b		 pop	 ebx
  00046	8b e5		 mov	 esp, ebp
  00048	5d		 pop	 ebp
  00049	c2 04 00	 ret	 4
??_GCSystemOptionDlg@@UAEPAXI@Z ENDP			; CSystemOptionDlg::`scalar deleting destructor'
_TEXT	ENDS
; Function compile flags: /Odtp /ZI
; File g:\网狐\happygamewh\服务端\系统模块\服务器组件\登录服务器\logonserverdlg.cpp
;	COMDAT ?GetMessageMap@CSystemOptionDlg@@MBEPBUAFX_MSGMAP@@XZ
_TEXT	SEGMENT
_this$ = -4						; size = 4
?GetMessageMap@CSystemOptionDlg@@MBEPBUAFX_MSGMAP@@XZ PROC ; CSystemOptionDlg::GetMessageMap, COMDAT
; _this$ = ecx

; 7    : BEGIN_MESSAGE_MAP(CSystemOptionDlg, CDialog)

  00000	55		 push	 ebp
  00001	8b ec		 mov	 ebp, esp
  00003	83 ec 44	 sub	 esp, 68			; 00000044H
  00006	53		 push	 ebx
  00007	56		 push	 esi
  00008	57		 push	 edi
  00009	89 4d fc	 mov	 DWORD PTR _this$[ebp], ecx
  0000c	e8 00 00 00 00	 call	 ?GetThisMessageMap@CSystemOptionDlg@@KGPBUAFX_MSGMAP@@XZ ; CSystemOptionDlg::GetThisMessageMap
  00011	5f		 pop	 edi
  00012	5e		 pop	 esi
  00013	5b		 pop	 ebx
  00014	8b e5		 mov	 esp, ebp
  00016	5d		 pop	 ebp
  00017	c3		 ret	 0
?GetMessageMap@CSystemOptionDlg@@MBEPBUAFX_MSGMAP@@XZ ENDP ; CSystemOptionDlg::GetMessageMap
_TEXT	ENDS
; Function compile flags: /Odtp /ZI
; File g:\网狐\happygamewh\服务端\系统模块\服务器组件\登录服务器\logonserverdlg.cpp
;	COMDAT ?GetThisMessageMap@CSystemOptionDlg@@KGPBUAFX_MSGMAP@@XZ
_TEXT	SEGMENT
?GetThisMessageMap@CSystemOptionDlg@@KGPBUAFX_MSGMAP@@XZ PROC ; CSystemOptionDlg::GetThisMessageMap, COMDAT

; 7    : BEGIN_MESSAGE_MAP(CSystemOptionDlg, CDialog)

  00000	55		 push	 ebp
  00001	8b ec		 mov	 ebp, esp
  00003	83 ec 40	 sub	 esp, 64			; 00000040H
  00006	53		 push	 ebx
  00007	56		 push	 esi
  00008	57		 push	 edi

; 8    : END_MESSAGE_MAP()

  00009	b8 00 00 00 00	 mov	 eax, OFFSET ?messageMap@?1??GetThisMessageMap@CSystemOptionDlg@@KGPBUAFX_MSGMAP@@XZ@4U3@B
  0000e	5f		 pop	 edi
  0000f	5e		 pop	 esi
  00010	5b		 pop	 ebx
  00011	8b e5		 mov	 esp, ebp
  00013	5d		 pop	 ebp
  00014	c3		 ret	 0
?GetThisMessageMap@CSystemOptionDlg@@KGPBUAFX_MSGMAP@@XZ ENDP ; CSystemOptionDlg::GetThisMessageMap
_TEXT	ENDS
; Function compile flags: /Odtp /ZI
; File g:\网狐\happygamewh\服务端\系统模块\服务器组件\登录服务器\logonserverdlg.cpp
;	COMDAT ?OnOK@CSystemOptionDlg@@MAEXXZ
_TEXT	SEGMENT
_pAddrByte_platform$ = -612				; size = 4
_dwDataBaseIP_platform$ = -608				; size = 4
_pAddrByte_treasure$ = -604				; size = 4
_dwDataBaseIP_treasure$ = -600				; size = 4
_pAddrByte_accounts$ = -596				; size = 4
_dwDataBaseIP_accounts$ = -592				; size = 4
_pAddrByte_personal$ = -588				; size = 4
_dwDataBaseIP_personal$ = -584				; size = 4
_pAddrByte_correspond$ = -580				; size = 4
_dwDataBaseIP_correspond$ = -576			; size = 4
_pAddrByte_service$ = -572				; size = 4
_dwDataBaseIP_service$ = -568				; size = 4
_InitParamter$ = -564					; size = 544
_this$ = -20						; size = 4
__$ArrayPad$ = -16					; size = 4
__$EHRec$ = -12						; size = 12
?OnOK@CSystemOptionDlg@@MAEXXZ PROC			; CSystemOptionDlg::OnOK, COMDAT
; _this$ = ecx

; 99   : {

  00000	55		 push	 ebp
  00001	8b ec		 mov	 ebp, esp
  00003	6a ff		 push	 -1
  00005	68 00 00 00 00	 push	 __ehhandler$?OnOK@CSystemOptionDlg@@MAEXXZ
  0000a	64 a1 00 00 00
	00		 mov	 eax, DWORD PTR fs:0
  00010	50		 push	 eax
  00011	81 ec d8 02 00
	00		 sub	 esp, 728		; 000002d8H
  00017	a1 00 00 00 00	 mov	 eax, DWORD PTR ___security_cookie
  0001c	33 c5		 xor	 eax, ebp
  0001e	89 45 f0	 mov	 DWORD PTR __$ArrayPad$[ebp], eax
  00021	53		 push	 ebx
  00022	56		 push	 esi
  00023	57		 push	 edi
  00024	50		 push	 eax
  00025	8d 45 f4	 lea	 eax, DWORD PTR __$EHRec$[ebp]
  00028	64 a3 00 00 00
	00		 mov	 DWORD PTR fs:0, eax
  0002e	89 4d ec	 mov	 DWORD PTR _this$[ebp], ecx

; 100  : 	//获取输入
; 101  : 	CInitParameter InitParamter;

  00031	8d 8d cc fd ff
	ff		 lea	 ecx, DWORD PTR _InitParamter$[ebp]
  00037	e8 00 00 00 00	 call	 ??0CInitParameter@@QAE@XZ ; CInitParameter::CInitParameter
  0003c	c7 45 fc 00 00
	00 00		 mov	 DWORD PTR __$EHRec$[ebp+8], 0

; 102  : 	InitParamter.m_wServicePort = GetDlgItemInt(IDC_SERVICE_PORT);

  00043	6a 01		 push	 1
  00045	6a 00		 push	 0
  00047	68 fd 03 00 00	 push	 1021			; 000003fdH
  0004c	8b 4d ec	 mov	 ecx, DWORD PTR _this$[ebp]
  0004f	e8 00 00 00 00	 call	 ?GetDlgItemInt@CWnd@@QBEIHPAHH@Z ; CWnd::GetDlgItemInt
  00054	66 89 85 d4 fd
	ff ff		 mov	 WORD PTR _InitParamter$[ebp+8], ax

; 103  : 	InitParamter.m_wCorrespondPort = GetDlgItemInt(IDC_CORRESPOND_PORT);

  0005b	6a 01		 push	 1
  0005d	6a 00		 push	 0
  0005f	68 00 04 00 00	 push	 1024			; 00000400H
  00064	8b 4d ec	 mov	 ecx, DWORD PTR _this$[ebp]
  00067	e8 00 00 00 00	 call	 ?GetDlgItemInt@CWnd@@QBEIHPAHH@Z ; CWnd::GetDlgItemInt
  0006c	66 89 85 02 fe
	ff ff		 mov	 WORD PTR _InitParamter$[ebp+54], ax

; 104  : 	InitParamter.m_wPrsnlRmCorrespondPort = GetDlgItemInt(IDC_PERSONAL_PORT);

  00073	6a 01		 push	 1
  00075	6a 00		 push	 0
  00077	68 01 04 00 00	 push	 1025			; 00000401H
  0007c	8b 4d ec	 mov	 ecx, DWORD PTR _this$[ebp]
  0007f	e8 00 00 00 00	 call	 ?GetDlgItemInt@CWnd@@QBEIHPAHH@Z ; CWnd::GetDlgItemInt
  00084	66 89 85 24 fe
	ff ff		 mov	 WORD PTR _InitParamter$[ebp+88], ax

; 105  : 	InitParamter.m_wMaxConnect = GetDlgItemInt(IDC_MAX_CONNECT);

  0008b	6a 01		 push	 1
  0008d	6a 00		 push	 0
  0008f	68 fe 03 00 00	 push	 1022			; 000003feH
  00094	8b 4d ec	 mov	 ecx, DWORD PTR _this$[ebp]
  00097	e8 00 00 00 00	 call	 ?GetDlgItemInt@CWnd@@QBEIHPAHH@Z ; CWnd::GetDlgItemInt
  0009c	66 89 85 d2 fd
	ff ff		 mov	 WORD PTR _InitParamter$[ebp+6], ax

; 106  : 	GetDlgItemText(IDC_SERVER_NAME, InitParamter.m_szServerName, sizeof(InitParamter.m_szServerName));

  000a3	6a 20		 push	 32			; 00000020H
  000a5	8d 85 d6 fd ff
	ff		 lea	 eax, DWORD PTR _InitParamter$[ebp+10]
  000ab	50		 push	 eax
  000ac	68 f2 03 00 00	 push	 1010			; 000003f2H
  000b1	8b 4d ec	 mov	 ecx, DWORD PTR _this$[ebp]
  000b4	e8 00 00 00 00	 call	 ?GetDlgItemTextA@CWnd@@QBEHHPADH@Z ; CWnd::GetDlgItemTextA

; 107  : 	//服务地址
; 108  : 	DWORD dwDataBaseIP_service = INADDR_NONE;

  000b9	c7 85 c8 fd ff
	ff ff ff ff ff	 mov	 DWORD PTR _dwDataBaseIP_service$[ebp], -1

; 109  : 	BYTE * pAddrByte_service = (BYTE *)&dwDataBaseIP_service;

  000c3	8d 85 c8 fd ff
	ff		 lea	 eax, DWORD PTR _dwDataBaseIP_service$[ebp]
  000c9	89 85 c4 fd ff
	ff		 mov	 DWORD PTR _pAddrByte_service$[ebp], eax

; 110  : 	((CIPAddressCtrl *)GetDlgItem(IDC_SERVICE_ADDRESS))->GetAddress(dwDataBaseIP_service);

  000cf	8d 85 c8 fd ff
	ff		 lea	 eax, DWORD PTR _dwDataBaseIP_service$[ebp]
  000d5	50		 push	 eax
  000d6	68 f3 03 00 00	 push	 1011			; 000003f3H
  000db	8b 4d ec	 mov	 ecx, DWORD PTR _this$[ebp]
  000de	e8 00 00 00 00	 call	 ?GetDlgItem@CWnd@@QBEPAV1@H@Z ; CWnd::GetDlgItem
  000e3	8b c8		 mov	 ecx, eax
  000e5	e8 00 00 00 00	 call	 ?GetAddress@CIPAddressCtrl@@QBEHAAK@Z ; CIPAddressCtrl::GetAddress

; 111  : 	_snprintf(InitParamter.m_ServiceAddress.szAddress, sizeof(InitParamter.m_ServiceAddress.szAddress), TEXT("%d.%d.%d.%d"),

  000ea	b8 01 00 00 00	 mov	 eax, 1
  000ef	6b c8 00	 imul	 ecx, eax, 0
  000f2	8b 95 c4 fd ff
	ff		 mov	 edx, DWORD PTR _pAddrByte_service$[ebp]
  000f8	0f b6 04 0a	 movzx	 eax, BYTE PTR [edx+ecx]
  000fc	50		 push	 eax
  000fd	b9 01 00 00 00	 mov	 ecx, 1
  00102	c1 e1 00	 shl	 ecx, 0
  00105	8b 95 c4 fd ff
	ff		 mov	 edx, DWORD PTR _pAddrByte_service$[ebp]
  0010b	0f b6 04 0a	 movzx	 eax, BYTE PTR [edx+ecx]
  0010f	50		 push	 eax
  00110	b9 01 00 00 00	 mov	 ecx, 1
  00115	d1 e1		 shl	 ecx, 1
  00117	8b 95 c4 fd ff
	ff		 mov	 edx, DWORD PTR _pAddrByte_service$[ebp]
  0011d	0f b6 04 0a	 movzx	 eax, BYTE PTR [edx+ecx]
  00121	50		 push	 eax
  00122	b9 01 00 00 00	 mov	 ecx, 1
  00127	6b d1 03	 imul	 edx, ecx, 3
  0012a	8b 85 c4 fd ff
	ff		 mov	 eax, DWORD PTR _pAddrByte_service$[ebp]
  00130	0f b6 0c 10	 movzx	 ecx, BYTE PTR [eax+edx]
  00134	51		 push	 ecx
  00135	68 00 00 00 00	 push	 OFFSET ??_C@_0M@PCENNPGA@?$CFd?4?$CFd?4?$CFd?4?$CFd@
  0013a	6a 20		 push	 32			; 00000020H
  0013c	8d 95 46 fe ff
	ff		 lea	 edx, DWORD PTR _InitParamter$[ebp+122]
  00142	52		 push	 edx
  00143	e8 00 00 00 00	 call	 __snprintf
  00148	83 c4 1c	 add	 esp, 28			; 0000001cH

; 112  : 		pAddrByte_service[3], pAddrByte_service[2], pAddrByte_service[1], pAddrByte_service[0]);
; 113  : 	//协调地址
; 114  : 	DWORD dwDataBaseIP_correspond = INADDR_NONE;

  0014b	c7 85 c0 fd ff
	ff ff ff ff ff	 mov	 DWORD PTR _dwDataBaseIP_correspond$[ebp], -1

; 115  : 	BYTE * pAddrByte_correspond = (BYTE *)&dwDataBaseIP_correspond;

  00155	8d 85 c0 fd ff
	ff		 lea	 eax, DWORD PTR _dwDataBaseIP_correspond$[ebp]
  0015b	89 85 bc fd ff
	ff		 mov	 DWORD PTR _pAddrByte_correspond$[ebp], eax

; 116  : 	((CIPAddressCtrl *)GetDlgItem(IDC_CORRESPOND_ADDRESS))->GetAddress(dwDataBaseIP_correspond);

  00161	8d 85 c0 fd ff
	ff		 lea	 eax, DWORD PTR _dwDataBaseIP_correspond$[ebp]
  00167	50		 push	 eax
  00168	68 ff 03 00 00	 push	 1023			; 000003ffH
  0016d	8b 4d ec	 mov	 ecx, DWORD PTR _this$[ebp]
  00170	e8 00 00 00 00	 call	 ?GetDlgItem@CWnd@@QBEPAV1@H@Z ; CWnd::GetDlgItem
  00175	8b c8		 mov	 ecx, eax
  00177	e8 00 00 00 00	 call	 ?GetAddress@CIPAddressCtrl@@QBEHAAK@Z ; CIPAddressCtrl::GetAddress

; 117  : 	_snprintf(InitParamter.m_CorrespondAddress.szAddress, sizeof(InitParamter.m_CorrespondAddress.szAddress), TEXT("%d.%d.%d.%d"),

  0017c	b8 01 00 00 00	 mov	 eax, 1
  00181	6b c8 00	 imul	 ecx, eax, 0
  00184	8b 95 bc fd ff
	ff		 mov	 edx, DWORD PTR _pAddrByte_correspond$[ebp]
  0018a	0f b6 04 0a	 movzx	 eax, BYTE PTR [edx+ecx]
  0018e	50		 push	 eax
  0018f	b9 01 00 00 00	 mov	 ecx, 1
  00194	c1 e1 00	 shl	 ecx, 0
  00197	8b 95 bc fd ff
	ff		 mov	 edx, DWORD PTR _pAddrByte_correspond$[ebp]
  0019d	0f b6 04 0a	 movzx	 eax, BYTE PTR [edx+ecx]
  001a1	50		 push	 eax
  001a2	b9 01 00 00 00	 mov	 ecx, 1
  001a7	d1 e1		 shl	 ecx, 1
  001a9	8b 95 bc fd ff
	ff		 mov	 edx, DWORD PTR _pAddrByte_correspond$[ebp]
  001af	0f b6 04 0a	 movzx	 eax, BYTE PTR [edx+ecx]
  001b3	50		 push	 eax
  001b4	b9 01 00 00 00	 mov	 ecx, 1
  001b9	6b d1 03	 imul	 edx, ecx, 3
  001bc	8b 85 bc fd ff
	ff		 mov	 eax, DWORD PTR _pAddrByte_correspond$[ebp]
  001c2	0f b6 0c 10	 movzx	 ecx, BYTE PTR [eax+edx]
  001c6	51		 push	 ecx
  001c7	68 00 00 00 00	 push	 OFFSET ??_C@_0M@PCENNPGA@?$CFd?4?$CFd?4?$CFd?4?$CFd@
  001cc	6a 20		 push	 32			; 00000020H
  001ce	8d 95 04 fe ff
	ff		 lea	 edx, DWORD PTR _InitParamter$[ebp+56]
  001d4	52		 push	 edx
  001d5	e8 00 00 00 00	 call	 __snprintf
  001da	83 c4 1c	 add	 esp, 28			; 0000001cH

; 118  : 		pAddrByte_correspond[3], pAddrByte_correspond[2], pAddrByte_correspond[1], pAddrByte_correspond[0]);
; 119  : 	//约战地址
; 120  : 	DWORD dwDataBaseIP_personal = INADDR_NONE;

  001dd	c7 85 b8 fd ff
	ff ff ff ff ff	 mov	 DWORD PTR _dwDataBaseIP_personal$[ebp], -1

; 121  : 	BYTE * pAddrByte_personal = (BYTE *)&dwDataBaseIP_personal;

  001e7	8d 85 b8 fd ff
	ff		 lea	 eax, DWORD PTR _dwDataBaseIP_personal$[ebp]
  001ed	89 85 b4 fd ff
	ff		 mov	 DWORD PTR _pAddrByte_personal$[ebp], eax

; 122  : 	((CIPAddressCtrl *)GetDlgItem(IDC_PERSONAL_ADDRESS))->GetAddress(dwDataBaseIP_personal);

  001f3	8d 85 b8 fd ff
	ff		 lea	 eax, DWORD PTR _dwDataBaseIP_personal$[ebp]
  001f9	50		 push	 eax
  001fa	68 f4 03 00 00	 push	 1012			; 000003f4H
  001ff	8b 4d ec	 mov	 ecx, DWORD PTR _this$[ebp]
  00202	e8 00 00 00 00	 call	 ?GetDlgItem@CWnd@@QBEPAV1@H@Z ; CWnd::GetDlgItem
  00207	8b c8		 mov	 ecx, eax
  00209	e8 00 00 00 00	 call	 ?GetAddress@CIPAddressCtrl@@QBEHAAK@Z ; CIPAddressCtrl::GetAddress

; 123  : 	_snprintf(InitParamter.m_PrsnlRmCorrespondAddress.szAddress, sizeof(InitParamter.m_PrsnlRmCorrespondAddress.szAddress), TEXT("%d.%d.%d.%d"),

  0020e	b8 01 00 00 00	 mov	 eax, 1
  00213	6b c8 00	 imul	 ecx, eax, 0
  00216	8b 95 b4 fd ff
	ff		 mov	 edx, DWORD PTR _pAddrByte_personal$[ebp]
  0021c	0f b6 04 0a	 movzx	 eax, BYTE PTR [edx+ecx]
  00220	50		 push	 eax
  00221	b9 01 00 00 00	 mov	 ecx, 1
  00226	c1 e1 00	 shl	 ecx, 0
  00229	8b 95 b4 fd ff
	ff		 mov	 edx, DWORD PTR _pAddrByte_personal$[ebp]
  0022f	0f b6 04 0a	 movzx	 eax, BYTE PTR [edx+ecx]
  00233	50		 push	 eax
  00234	b9 01 00 00 00	 mov	 ecx, 1
  00239	d1 e1		 shl	 ecx, 1
  0023b	8b 95 b4 fd ff
	ff		 mov	 edx, DWORD PTR _pAddrByte_personal$[ebp]
  00241	0f b6 04 0a	 movzx	 eax, BYTE PTR [edx+ecx]
  00245	50		 push	 eax
  00246	b9 01 00 00 00	 mov	 ecx, 1
  0024b	6b d1 03	 imul	 edx, ecx, 3
  0024e	8b 85 b4 fd ff
	ff		 mov	 eax, DWORD PTR _pAddrByte_personal$[ebp]
  00254	0f b6 0c 10	 movzx	 ecx, BYTE PTR [eax+edx]
  00258	51		 push	 ecx
  00259	68 00 00 00 00	 push	 OFFSET ??_C@_0M@PCENNPGA@?$CFd?4?$CFd?4?$CFd?4?$CFd@
  0025e	6a 20		 push	 32			; 00000020H
  00260	8d 95 26 fe ff
	ff		 lea	 edx, DWORD PTR _InitParamter$[ebp+90]
  00266	52		 push	 edx
  00267	e8 00 00 00 00	 call	 __snprintf
  0026c	83 c4 1c	 add	 esp, 28			; 0000001cH

; 124  : 		pAddrByte_personal[3], pAddrByte_personal[2], pAddrByte_personal[1], pAddrByte_personal[0]);
; 125  : 
; 126  : 
; 127  : 	//用户数据库 
; 128  : 	InitParamter.m_AccountsDBParameter.wDataBasePort = GetDlgItemInt(IDC_USER_DATABASE_PORT);

  0026f	6a 01		 push	 1
  00271	6a 00		 push	 0
  00273	68 ed 03 00 00	 push	 1005			; 000003edH
  00278	8b 4d ec	 mov	 ecx, DWORD PTR _this$[ebp]
  0027b	e8 00 00 00 00	 call	 ?GetDlgItemInt@CWnd@@QBEIHPAHH@Z ; CWnd::GetDlgItemInt
  00280	66 89 85 66 fe
	ff ff		 mov	 WORD PTR _InitParamter$[ebp+154], ax

; 129  : 	GetDlgItemText(IDC_USER_DATABASE_USER, InitParamter.m_AccountsDBParameter.szDataBaseUser, sizeof(InitParamter.m_AccountsDBParameter.szDataBaseUser));

  00287	6a 20		 push	 32			; 00000020H
  00289	8d 85 88 fe ff
	ff		 lea	 eax, DWORD PTR _InitParamter$[ebp+188]
  0028f	50		 push	 eax
  00290	68 ec 03 00 00	 push	 1004			; 000003ecH
  00295	8b 4d ec	 mov	 ecx, DWORD PTR _this$[ebp]
  00298	e8 00 00 00 00	 call	 ?GetDlgItemTextA@CWnd@@QBEHHPADH@Z ; CWnd::GetDlgItemTextA

; 130  : 	GetDlgItemText(IDC_USER_DATABASE_PASS, InitParamter.m_AccountsDBParameter.szDataBasePass, sizeof(InitParamter.m_AccountsDBParameter.szDataBasePass));

  0029d	6a 20		 push	 32			; 00000020H
  0029f	8d 85 a8 fe ff
	ff		 lea	 eax, DWORD PTR _InitParamter$[ebp+220]
  002a5	50		 push	 eax
  002a6	68 ee 03 00 00	 push	 1006			; 000003eeH
  002ab	8b 4d ec	 mov	 ecx, DWORD PTR _this$[ebp]
  002ae	e8 00 00 00 00	 call	 ?GetDlgItemTextA@CWnd@@QBEHHPADH@Z ; CWnd::GetDlgItemTextA

; 131  : 	GetDlgItemText(IDC_USER_DATABASE_NAME, InitParamter.m_AccountsDBParameter.szDataBaseName, sizeof(InitParamter.m_AccountsDBParameter.szDataBaseName));

  002b3	6a 20		 push	 32			; 00000020H
  002b5	8d 85 c8 fe ff
	ff		 lea	 eax, DWORD PTR _InitParamter$[ebp+252]
  002bb	50		 push	 eax
  002bc	68 ef 03 00 00	 push	 1007			; 000003efH
  002c1	8b 4d ec	 mov	 ecx, DWORD PTR _this$[ebp]
  002c4	e8 00 00 00 00	 call	 ?GetDlgItemTextA@CWnd@@QBEHHPADH@Z ; CWnd::GetDlgItemTextA

; 132  : 	DWORD dwDataBaseIP_accounts = INADDR_NONE;

  002c9	c7 85 b0 fd ff
	ff ff ff ff ff	 mov	 DWORD PTR _dwDataBaseIP_accounts$[ebp], -1

; 133  : 	BYTE * pAddrByte_accounts = (BYTE *)&dwDataBaseIP_accounts;

  002d3	8d 85 b0 fd ff
	ff		 lea	 eax, DWORD PTR _dwDataBaseIP_accounts$[ebp]
  002d9	89 85 ac fd ff
	ff		 mov	 DWORD PTR _pAddrByte_accounts$[ebp], eax

; 134  : 	((CIPAddressCtrl *)GetDlgItem(IDC_USER_DATABASE_IP))->GetAddress(dwDataBaseIP_accounts);

  002df	8d 85 b0 fd ff
	ff		 lea	 eax, DWORD PTR _dwDataBaseIP_accounts$[ebp]
  002e5	50		 push	 eax
  002e6	68 eb 03 00 00	 push	 1003			; 000003ebH
  002eb	8b 4d ec	 mov	 ecx, DWORD PTR _this$[ebp]
  002ee	e8 00 00 00 00	 call	 ?GetDlgItem@CWnd@@QBEPAV1@H@Z ; CWnd::GetDlgItem
  002f3	8b c8		 mov	 ecx, eax
  002f5	e8 00 00 00 00	 call	 ?GetAddress@CIPAddressCtrl@@QBEHAAK@Z ; CIPAddressCtrl::GetAddress

; 135  : 	_snprintf(InitParamter.m_AccountsDBParameter.szDataBaseAddr, sizeof(InitParamter.m_AccountsDBParameter.szDataBaseAddr), TEXT("%d.%d.%d.%d"),

  002fa	b8 01 00 00 00	 mov	 eax, 1
  002ff	6b c8 00	 imul	 ecx, eax, 0
  00302	8b 95 ac fd ff
	ff		 mov	 edx, DWORD PTR _pAddrByte_accounts$[ebp]
  00308	0f b6 04 0a	 movzx	 eax, BYTE PTR [edx+ecx]
  0030c	50		 push	 eax
  0030d	b9 01 00 00 00	 mov	 ecx, 1
  00312	c1 e1 00	 shl	 ecx, 0
  00315	8b 95 ac fd ff
	ff		 mov	 edx, DWORD PTR _pAddrByte_accounts$[ebp]
  0031b	0f b6 04 0a	 movzx	 eax, BYTE PTR [edx+ecx]
  0031f	50		 push	 eax
  00320	b9 01 00 00 00	 mov	 ecx, 1
  00325	d1 e1		 shl	 ecx, 1
  00327	8b 95 ac fd ff
	ff		 mov	 edx, DWORD PTR _pAddrByte_accounts$[ebp]
  0032d	0f b6 04 0a	 movzx	 eax, BYTE PTR [edx+ecx]
  00331	50		 push	 eax
  00332	b9 01 00 00 00	 mov	 ecx, 1
  00337	6b d1 03	 imul	 edx, ecx, 3
  0033a	8b 85 ac fd ff
	ff		 mov	 eax, DWORD PTR _pAddrByte_accounts$[ebp]
  00340	0f b6 0c 10	 movzx	 ecx, BYTE PTR [eax+edx]
  00344	51		 push	 ecx
  00345	68 00 00 00 00	 push	 OFFSET ??_C@_0M@PCENNPGA@?$CFd?4?$CFd?4?$CFd?4?$CFd@
  0034a	6a 20		 push	 32			; 00000020H
  0034c	8d 95 68 fe ff
	ff		 lea	 edx, DWORD PTR _InitParamter$[ebp+156]
  00352	52		 push	 edx
  00353	e8 00 00 00 00	 call	 __snprintf
  00358	83 c4 1c	 add	 esp, 28			; 0000001cH

; 136  : 		pAddrByte_accounts[3], pAddrByte_accounts[2], pAddrByte_accounts[1], pAddrByte_accounts[0]);
; 137  : 
; 138  : 	//金币数据库 
; 139  : 	InitParamter.m_TreasureDBParameter.wDataBasePort = GetDlgItemInt(IDC_TREASURE_DATABASE_PORT);

  0035b	6a 01		 push	 1
  0035d	6a 00		 push	 0
  0035f	68 f5 03 00 00	 push	 1013			; 000003f5H
  00364	8b 4d ec	 mov	 ecx, DWORD PTR _this$[ebp]
  00367	e8 00 00 00 00	 call	 ?GetDlgItemInt@CWnd@@QBEIHPAHH@Z ; CWnd::GetDlgItemInt
  0036c	66 89 85 e8 fe
	ff ff		 mov	 WORD PTR _InitParamter$[ebp+284], ax

; 140  : 	GetDlgItemText(IDC_TREASURE_DATABASE_USER, InitParamter.m_TreasureDBParameter.szDataBaseUser, sizeof(InitParamter.m_TreasureDBParameter.szDataBaseUser));

  00373	6a 20		 push	 32			; 00000020H
  00375	8d 85 0a ff ff
	ff		 lea	 eax, DWORD PTR _InitParamter$[ebp+318]
  0037b	50		 push	 eax
  0037c	68 f1 03 00 00	 push	 1009			; 000003f1H
  00381	8b 4d ec	 mov	 ecx, DWORD PTR _this$[ebp]
  00384	e8 00 00 00 00	 call	 ?GetDlgItemTextA@CWnd@@QBEHHPADH@Z ; CWnd::GetDlgItemTextA

; 141  : 	GetDlgItemText(IDC_TREASURE_DATABASE_PASS, InitParamter.m_TreasureDBParameter.szDataBasePass, sizeof(InitParamter.m_TreasureDBParameter.szDataBasePass));

  00389	6a 20		 push	 32			; 00000020H
  0038b	8d 85 2a ff ff
	ff		 lea	 eax, DWORD PTR _InitParamter$[ebp+350]
  00391	50		 push	 eax
  00392	68 f6 03 00 00	 push	 1014			; 000003f6H
  00397	8b 4d ec	 mov	 ecx, DWORD PTR _this$[ebp]
  0039a	e8 00 00 00 00	 call	 ?GetDlgItemTextA@CWnd@@QBEHHPADH@Z ; CWnd::GetDlgItemTextA

; 142  : 	GetDlgItemText(IDC_TREASURE_DATABASE_NAME, InitParamter.m_TreasureDBParameter.szDataBaseName, sizeof(InitParamter.m_TreasureDBParameter.szDataBaseName));

  0039f	6a 20		 push	 32			; 00000020H
  003a1	8d 85 4a ff ff
	ff		 lea	 eax, DWORD PTR _InitParamter$[ebp+382]
  003a7	50		 push	 eax
  003a8	68 f7 03 00 00	 push	 1015			; 000003f7H
  003ad	8b 4d ec	 mov	 ecx, DWORD PTR _this$[ebp]
  003b0	e8 00 00 00 00	 call	 ?GetDlgItemTextA@CWnd@@QBEHHPADH@Z ; CWnd::GetDlgItemTextA

; 143  : 	DWORD dwDataBaseIP_treasure = INADDR_NONE;

  003b5	c7 85 a8 fd ff
	ff ff ff ff ff	 mov	 DWORD PTR _dwDataBaseIP_treasure$[ebp], -1

; 144  : 	BYTE * pAddrByte_treasure = (BYTE *)&dwDataBaseIP_treasure;

  003bf	8d 85 a8 fd ff
	ff		 lea	 eax, DWORD PTR _dwDataBaseIP_treasure$[ebp]
  003c5	89 85 a4 fd ff
	ff		 mov	 DWORD PTR _pAddrByte_treasure$[ebp], eax

; 145  : 	((CIPAddressCtrl *)GetDlgItem(IDC_TREASURE_DATABASE_IP))->GetAddress(dwDataBaseIP_treasure);

  003cb	8d 85 a8 fd ff
	ff		 lea	 eax, DWORD PTR _dwDataBaseIP_treasure$[ebp]
  003d1	50		 push	 eax
  003d2	68 f0 03 00 00	 push	 1008			; 000003f0H
  003d7	8b 4d ec	 mov	 ecx, DWORD PTR _this$[ebp]
  003da	e8 00 00 00 00	 call	 ?GetDlgItem@CWnd@@QBEPAV1@H@Z ; CWnd::GetDlgItem
  003df	8b c8		 mov	 ecx, eax
  003e1	e8 00 00 00 00	 call	 ?GetAddress@CIPAddressCtrl@@QBEHAAK@Z ; CIPAddressCtrl::GetAddress

; 146  : 	_snprintf(InitParamter.m_TreasureDBParameter.szDataBaseAddr, sizeof(InitParamter.m_TreasureDBParameter.szDataBaseAddr), TEXT("%d.%d.%d.%d"),

  003e6	b8 01 00 00 00	 mov	 eax, 1
  003eb	6b c8 00	 imul	 ecx, eax, 0
  003ee	8b 95 a4 fd ff
	ff		 mov	 edx, DWORD PTR _pAddrByte_treasure$[ebp]
  003f4	0f b6 04 0a	 movzx	 eax, BYTE PTR [edx+ecx]
  003f8	50		 push	 eax
  003f9	b9 01 00 00 00	 mov	 ecx, 1
  003fe	c1 e1 00	 shl	 ecx, 0
  00401	8b 95 a4 fd ff
	ff		 mov	 edx, DWORD PTR _pAddrByte_treasure$[ebp]
  00407	0f b6 04 0a	 movzx	 eax, BYTE PTR [edx+ecx]
  0040b	50		 push	 eax
  0040c	b9 01 00 00 00	 mov	 ecx, 1
  00411	d1 e1		 shl	 ecx, 1
  00413	8b 95 a4 fd ff
	ff		 mov	 edx, DWORD PTR _pAddrByte_treasure$[ebp]
  00419	0f b6 04 0a	 movzx	 eax, BYTE PTR [edx+ecx]
  0041d	50		 push	 eax
  0041e	b9 01 00 00 00	 mov	 ecx, 1
  00423	6b d1 03	 imul	 edx, ecx, 3
  00426	8b 85 a4 fd ff
	ff		 mov	 eax, DWORD PTR _pAddrByte_treasure$[ebp]
  0042c	0f b6 0c 10	 movzx	 ecx, BYTE PTR [eax+edx]
  00430	51		 push	 ecx
  00431	68 00 00 00 00	 push	 OFFSET ??_C@_0M@PCENNPGA@?$CFd?4?$CFd?4?$CFd?4?$CFd@
  00436	6a 20		 push	 32			; 00000020H
  00438	8d 95 ea fe ff
	ff		 lea	 edx, DWORD PTR _InitParamter$[ebp+286]
  0043e	52		 push	 edx
  0043f	e8 00 00 00 00	 call	 __snprintf
  00444	83 c4 1c	 add	 esp, 28			; 0000001cH

; 147  : 		pAddrByte_treasure[3], pAddrByte_treasure[2], pAddrByte_treasure[1], pAddrByte_treasure[0]);
; 148  : 
; 149  : 	//平台数据库 
; 150  : 	InitParamter.m_PlatformDBParameter.wDataBasePort = GetDlgItemInt(IDC_PLATFORM_DATABASE_PORT);

  00447	6a 01		 push	 1
  00449	6a 00		 push	 0
  0044b	68 fa 03 00 00	 push	 1018			; 000003faH
  00450	8b 4d ec	 mov	 ecx, DWORD PTR _this$[ebp]
  00453	e8 00 00 00 00	 call	 ?GetDlgItemInt@CWnd@@QBEIHPAHH@Z ; CWnd::GetDlgItemInt
  00458	66 89 85 6a ff
	ff ff		 mov	 WORD PTR _InitParamter$[ebp+414], ax

; 151  : 	GetDlgItemText(IDC_PLATFORM_DATABASE_USER, InitParamter.m_PlatformDBParameter.szDataBaseUser, sizeof(InitParamter.m_PlatformDBParameter.szDataBaseUser));

  0045f	6a 20		 push	 32			; 00000020H
  00461	8d 45 8c	 lea	 eax, DWORD PTR _InitParamter$[ebp+448]
  00464	50		 push	 eax
  00465	68 f9 03 00 00	 push	 1017			; 000003f9H
  0046a	8b 4d ec	 mov	 ecx, DWORD PTR _this$[ebp]
  0046d	e8 00 00 00 00	 call	 ?GetDlgItemTextA@CWnd@@QBEHHPADH@Z ; CWnd::GetDlgItemTextA

; 152  : 	GetDlgItemText(IDC_PLATFORM_DATABASE_PASS, InitParamter.m_PlatformDBParameter.szDataBasePass, sizeof(InitParamter.m_PlatformDBParameter.szDataBasePass));

  00472	6a 20		 push	 32			; 00000020H
  00474	8d 45 ac	 lea	 eax, DWORD PTR _InitParamter$[ebp+480]
  00477	50		 push	 eax
  00478	68 fb 03 00 00	 push	 1019			; 000003fbH
  0047d	8b 4d ec	 mov	 ecx, DWORD PTR _this$[ebp]
  00480	e8 00 00 00 00	 call	 ?GetDlgItemTextA@CWnd@@QBEHHPADH@Z ; CWnd::GetDlgItemTextA

; 153  : 	GetDlgItemText(IDC_PLATFORM_DATABASE_NAME, InitParamter.m_PlatformDBParameter.szDataBaseName, sizeof(InitParamter.m_PlatformDBParameter.szDataBaseName));

  00485	6a 20		 push	 32			; 00000020H
  00487	8d 45 cc	 lea	 eax, DWORD PTR _InitParamter$[ebp+512]
  0048a	50		 push	 eax
  0048b	68 fc 03 00 00	 push	 1020			; 000003fcH
  00490	8b 4d ec	 mov	 ecx, DWORD PTR _this$[ebp]
  00493	e8 00 00 00 00	 call	 ?GetDlgItemTextA@CWnd@@QBEHHPADH@Z ; CWnd::GetDlgItemTextA

; 154  : 	DWORD dwDataBaseIP_platform = INADDR_NONE;

  00498	c7 85 a0 fd ff
	ff ff ff ff ff	 mov	 DWORD PTR _dwDataBaseIP_platform$[ebp], -1

; 155  : 	BYTE * pAddrByte_platform = (BYTE *)&dwDataBaseIP_platform;

  004a2	8d 85 a0 fd ff
	ff		 lea	 eax, DWORD PTR _dwDataBaseIP_platform$[ebp]
  004a8	89 85 9c fd ff
	ff		 mov	 DWORD PTR _pAddrByte_platform$[ebp], eax

; 156  : 	((CIPAddressCtrl *)GetDlgItem(IDC_PLATFORM_DATABASE_IP))->GetAddress(dwDataBaseIP_platform);

  004ae	8d 85 a0 fd ff
	ff		 lea	 eax, DWORD PTR _dwDataBaseIP_platform$[ebp]
  004b4	50		 push	 eax
  004b5	68 f8 03 00 00	 push	 1016			; 000003f8H
  004ba	8b 4d ec	 mov	 ecx, DWORD PTR _this$[ebp]
  004bd	e8 00 00 00 00	 call	 ?GetDlgItem@CWnd@@QBEPAV1@H@Z ; CWnd::GetDlgItem
  004c2	8b c8		 mov	 ecx, eax
  004c4	e8 00 00 00 00	 call	 ?GetAddress@CIPAddressCtrl@@QBEHAAK@Z ; CIPAddressCtrl::GetAddress

; 157  : 	_snprintf(InitParamter.m_PlatformDBParameter.szDataBaseAddr, sizeof(InitParamter.m_PlatformDBParameter.szDataBaseAddr), TEXT("%d.%d.%d.%d"),

  004c9	b8 01 00 00 00	 mov	 eax, 1
  004ce	6b c8 00	 imul	 ecx, eax, 0
  004d1	8b 95 9c fd ff
	ff		 mov	 edx, DWORD PTR _pAddrByte_platform$[ebp]
  004d7	0f b6 04 0a	 movzx	 eax, BYTE PTR [edx+ecx]
  004db	50		 push	 eax
  004dc	b9 01 00 00 00	 mov	 ecx, 1
  004e1	c1 e1 00	 shl	 ecx, 0
  004e4	8b 95 9c fd ff
	ff		 mov	 edx, DWORD PTR _pAddrByte_platform$[ebp]
  004ea	0f b6 04 0a	 movzx	 eax, BYTE PTR [edx+ecx]
  004ee	50		 push	 eax
  004ef	b9 01 00 00 00	 mov	 ecx, 1
  004f4	d1 e1		 shl	 ecx, 1
  004f6	8b 95 9c fd ff
	ff		 mov	 edx, DWORD PTR _pAddrByte_platform$[ebp]
  004fc	0f b6 04 0a	 movzx	 eax, BYTE PTR [edx+ecx]
  00500	50		 push	 eax
  00501	b9 01 00 00 00	 mov	 ecx, 1
  00506	6b d1 03	 imul	 edx, ecx, 3
  00509	8b 85 9c fd ff
	ff		 mov	 eax, DWORD PTR _pAddrByte_platform$[ebp]
  0050f	0f b6 0c 10	 movzx	 ecx, BYTE PTR [eax+edx]
  00513	51		 push	 ecx
  00514	68 00 00 00 00	 push	 OFFSET ??_C@_0M@PCENNPGA@?$CFd?4?$CFd?4?$CFd?4?$CFd@
  00519	6a 20		 push	 32			; 00000020H
  0051b	8d 95 6c ff ff
	ff		 lea	 edx, DWORD PTR _InitParamter$[ebp+416]
  00521	52		 push	 edx
  00522	e8 00 00 00 00	 call	 __snprintf
  00527	83 c4 1c	 add	 esp, 28			; 0000001cH

; 158  : 		pAddrByte_platform[3], pAddrByte_platform[2], pAddrByte_platform[1], pAddrByte_platform[0]);
; 159  : 	
; 160  : 
; 161  : 	//保存设置
; 162  : 	InitParamter.SaveInitParameter();

  0052a	8d 8d cc fd ff
	ff		 lea	 ecx, DWORD PTR _InitParamter$[ebp]
  00530	e8 00 00 00 00	 call	 ?SaveInitParameter@CInitParameter@@QAE_NXZ ; CInitParameter::SaveInitParameter

; 163  : 
; 164  : 	__super::OnOK();

  00535	8b 4d ec	 mov	 ecx, DWORD PTR _this$[ebp]
  00538	e8 00 00 00 00	 call	 ?OnOK@CDialog@@MAEXXZ	; CDialog::OnOK

; 165  : }

  0053d	c7 45 fc ff ff
	ff ff		 mov	 DWORD PTR __$EHRec$[ebp+8], -1
  00544	8d 8d cc fd ff
	ff		 lea	 ecx, DWORD PTR _InitParamter$[ebp]
  0054a	e8 00 00 00 00	 call	 ??1CInitParameter@@UAE@XZ ; CInitParameter::~CInitParameter
  0054f	8b 4d f4	 mov	 ecx, DWORD PTR __$EHRec$[ebp]
  00552	64 89 0d 00 00
	00 00		 mov	 DWORD PTR fs:0, ecx
  00559	59		 pop	 ecx
  0055a	5f		 pop	 edi
  0055b	5e		 pop	 esi
  0055c	5b		 pop	 ebx
  0055d	8b 4d f0	 mov	 ecx, DWORD PTR __$ArrayPad$[ebp]
  00560	33 cd		 xor	 ecx, ebp
  00562	e8 00 00 00 00	 call	 @__security_check_cookie@4
  00567	8b e5		 mov	 esp, ebp
  00569	5d		 pop	 ebp
  0056a	c3		 ret	 0
_TEXT	ENDS
;	COMDAT text$x
text$x	SEGMENT
__unwindfunclet$?OnOK@CSystemOptionDlg@@MAEXXZ$0:
  00000	8d 8d cc fd ff
	ff		 lea	 ecx, DWORD PTR _InitParamter$[ebp]
  00006	e9 00 00 00 00	 jmp	 ??1CInitParameter@@UAE@XZ ; CInitParameter::~CInitParameter
__ehhandler$?OnOK@CSystemOptionDlg@@MAEXXZ:
  0000b	8b 54 24 08	 mov	 edx, DWORD PTR [esp+8]
  0000f	8d 42 0c	 lea	 eax, DWORD PTR [edx+12]
  00012	8b 8a 18 fd ff
	ff		 mov	 ecx, DWORD PTR [edx-744]
  00018	33 c8		 xor	 ecx, eax
  0001a	e8 00 00 00 00	 call	 @__security_check_cookie@4
  0001f	8b 4a fc	 mov	 ecx, DWORD PTR [edx-4]
  00022	33 c8		 xor	 ecx, eax
  00024	e8 00 00 00 00	 call	 @__security_check_cookie@4
  00029	b8 00 00 00 00	 mov	 eax, OFFSET __ehfuncinfo$?OnOK@CSystemOptionDlg@@MAEXXZ
  0002e	e9 00 00 00 00	 jmp	 ___CxxFrameHandler3
text$x	ENDS
?OnOK@CSystemOptionDlg@@MAEXXZ ENDP			; CSystemOptionDlg::OnOK
; Function compile flags: /Odtp /ZI
; File g:\网狐\happygamewh\服务端\系统模块\服务器组件\登录服务器\logonserverdlg.cpp
;	COMDAT ?DoDataExchange@CSystemOptionDlg@@MAEXPAVCDataExchange@@@Z
_TEXT	SEGMENT
_this$ = -4						; size = 4
_pDX$ = 8						; size = 4
?DoDataExchange@CSystemOptionDlg@@MAEXPAVCDataExchange@@@Z PROC ; CSystemOptionDlg::DoDataExchange, COMDAT
; _this$ = ecx

; 32   : {

  00000	55		 push	 ebp
  00001	8b ec		 mov	 ebp, esp
  00003	83 ec 44	 sub	 esp, 68			; 00000044H
  00006	53		 push	 ebx
  00007	56		 push	 esi
  00008	57		 push	 edi
  00009	89 4d fc	 mov	 DWORD PTR _this$[ebp], ecx

; 33   : 	__super::DoDataExchange(pDX);

  0000c	8b 45 08	 mov	 eax, DWORD PTR _pDX$[ebp]
  0000f	50		 push	 eax
  00010	8b 4d fc	 mov	 ecx, DWORD PTR _this$[ebp]
  00013	e8 00 00 00 00	 call	 ?DoDataExchange@CWnd@@MAEXPAVCDataExchange@@@Z ; CWnd::DoDataExchange

; 34   : }

  00018	5f		 pop	 edi
  00019	5e		 pop	 esi
  0001a	5b		 pop	 ebx
  0001b	8b e5		 mov	 esp, ebp
  0001d	5d		 pop	 ebp
  0001e	c2 04 00	 ret	 4
?DoDataExchange@CSystemOptionDlg@@MAEXPAVCDataExchange@@@Z ENDP ; CSystemOptionDlg::DoDataExchange
_TEXT	ENDS
; Function compile flags: /Odtp /ZI
; File g:\网狐\happygamewh\服务端\系统模块\服务器组件\登录服务器\logonserverdlg.cpp
;	COMDAT ?OnInitDialog@CSystemOptionDlg@@MAEHXZ
_TEXT	SEGMENT
$T2 = -696						; size = 4
_InitParamter$ = -564					; size = 544
_this$ = -20						; size = 4
__$ArrayPad$ = -16					; size = 4
__$EHRec$ = -12						; size = 12
?OnInitDialog@CSystemOptionDlg@@MAEHXZ PROC		; CSystemOptionDlg::OnInitDialog, COMDAT
; _this$ = ecx

; 38   : {

  00000	55		 push	 ebp
  00001	8b ec		 mov	 ebp, esp
  00003	6a ff		 push	 -1
  00005	68 00 00 00 00	 push	 __ehhandler$?OnInitDialog@CSystemOptionDlg@@MAEHXZ
  0000a	64 a1 00 00 00
	00		 mov	 eax, DWORD PTR fs:0
  00010	50		 push	 eax
  00011	81 ec ac 02 00
	00		 sub	 esp, 684		; 000002acH
  00017	a1 00 00 00 00	 mov	 eax, DWORD PTR ___security_cookie
  0001c	33 c5		 xor	 eax, ebp
  0001e	89 45 f0	 mov	 DWORD PTR __$ArrayPad$[ebp], eax
  00021	53		 push	 ebx
  00022	56		 push	 esi
  00023	57		 push	 edi
  00024	50		 push	 eax
  00025	8d 45 f4	 lea	 eax, DWORD PTR __$EHRec$[ebp]
  00028	64 a3 00 00 00
	00		 mov	 DWORD PTR fs:0, eax
  0002e	89 4d ec	 mov	 DWORD PTR _this$[ebp], ecx

; 39   : 	__super::OnInitDialog();

  00031	8b 4d ec	 mov	 ecx, DWORD PTR _this$[ebp]
  00034	e8 00 00 00 00	 call	 ?OnInitDialog@CDialog@@UAEHXZ ; CDialog::OnInitDialog

; 40   : 
; 41   : 	//限制输入
; 42   : 	((CEdit *)GetDlgItem(IDC_SERVER_NAME))->LimitText(31);

  00039	6a 1f		 push	 31			; 0000001fH
  0003b	68 f2 03 00 00	 push	 1010			; 000003f2H
  00040	8b 4d ec	 mov	 ecx, DWORD PTR _this$[ebp]
  00043	e8 00 00 00 00	 call	 ?GetDlgItem@CWnd@@QBEPAV1@H@Z ; CWnd::GetDlgItem
  00048	8b c8		 mov	 ecx, eax
  0004a	e8 00 00 00 00	 call	 ?LimitText@CEdit@@QAEXH@Z ; CEdit::LimitText

; 43   : 	((CEdit *)GetDlgItem(IDC_SERVICE_PORT))->LimitText(5);

  0004f	6a 05		 push	 5
  00051	68 fd 03 00 00	 push	 1021			; 000003fdH
  00056	8b 4d ec	 mov	 ecx, DWORD PTR _this$[ebp]
  00059	e8 00 00 00 00	 call	 ?GetDlgItem@CWnd@@QBEPAV1@H@Z ; CWnd::GetDlgItem
  0005e	8b c8		 mov	 ecx, eax
  00060	e8 00 00 00 00	 call	 ?LimitText@CEdit@@QAEXH@Z ; CEdit::LimitText

; 44   : 	((CEdit *)GetDlgItem(IDC_CORRESPOND_PORT))->LimitText(5);

  00065	6a 05		 push	 5
  00067	68 00 04 00 00	 push	 1024			; 00000400H
  0006c	8b 4d ec	 mov	 ecx, DWORD PTR _this$[ebp]
  0006f	e8 00 00 00 00	 call	 ?GetDlgItem@CWnd@@QBEPAV1@H@Z ; CWnd::GetDlgItem
  00074	8b c8		 mov	 ecx, eax
  00076	e8 00 00 00 00	 call	 ?LimitText@CEdit@@QAEXH@Z ; CEdit::LimitText

; 45   : 	((CEdit *)GetDlgItem(IDC_PERSONAL_PORT))->LimitText(5);

  0007b	6a 05		 push	 5
  0007d	68 01 04 00 00	 push	 1025			; 00000401H
  00082	8b 4d ec	 mov	 ecx, DWORD PTR _this$[ebp]
  00085	e8 00 00 00 00	 call	 ?GetDlgItem@CWnd@@QBEPAV1@H@Z ; CWnd::GetDlgItem
  0008a	8b c8		 mov	 ecx, eax
  0008c	e8 00 00 00 00	 call	 ?LimitText@CEdit@@QAEXH@Z ; CEdit::LimitText

; 46   : 	((CEdit *)GetDlgItem(IDC_MAX_CONNECT))->LimitText(3);

  00091	6a 03		 push	 3
  00093	68 fe 03 00 00	 push	 1022			; 000003feH
  00098	8b 4d ec	 mov	 ecx, DWORD PTR _this$[ebp]
  0009b	e8 00 00 00 00	 call	 ?GetDlgItem@CWnd@@QBEPAV1@H@Z ; CWnd::GetDlgItem
  000a0	8b c8		 mov	 ecx, eax
  000a2	e8 00 00 00 00	 call	 ?LimitText@CEdit@@QAEXH@Z ; CEdit::LimitText

; 47   : 
; 48   : 	((CEdit *)GetDlgItem(IDC_USER_DATABASE_PORT))->LimitText(5);

  000a7	6a 05		 push	 5
  000a9	68 ed 03 00 00	 push	 1005			; 000003edH
  000ae	8b 4d ec	 mov	 ecx, DWORD PTR _this$[ebp]
  000b1	e8 00 00 00 00	 call	 ?GetDlgItem@CWnd@@QBEPAV1@H@Z ; CWnd::GetDlgItem
  000b6	8b c8		 mov	 ecx, eax
  000b8	e8 00 00 00 00	 call	 ?LimitText@CEdit@@QAEXH@Z ; CEdit::LimitText

; 49   : 	((CEdit *)GetDlgItem(IDC_USER_DATABASE_USER))->LimitText(31);

  000bd	6a 1f		 push	 31			; 0000001fH
  000bf	68 ec 03 00 00	 push	 1004			; 000003ecH
  000c4	8b 4d ec	 mov	 ecx, DWORD PTR _this$[ebp]
  000c7	e8 00 00 00 00	 call	 ?GetDlgItem@CWnd@@QBEPAV1@H@Z ; CWnd::GetDlgItem
  000cc	8b c8		 mov	 ecx, eax
  000ce	e8 00 00 00 00	 call	 ?LimitText@CEdit@@QAEXH@Z ; CEdit::LimitText

; 50   : 	((CEdit *)GetDlgItem(IDC_USER_DATABASE_PASS))->LimitText(31);

  000d3	6a 1f		 push	 31			; 0000001fH
  000d5	68 ee 03 00 00	 push	 1006			; 000003eeH
  000da	8b 4d ec	 mov	 ecx, DWORD PTR _this$[ebp]
  000dd	e8 00 00 00 00	 call	 ?GetDlgItem@CWnd@@QBEPAV1@H@Z ; CWnd::GetDlgItem
  000e2	8b c8		 mov	 ecx, eax
  000e4	e8 00 00 00 00	 call	 ?LimitText@CEdit@@QAEXH@Z ; CEdit::LimitText

; 51   : 	((CEdit *)GetDlgItem(IDC_USER_DATABASE_NAME))->LimitText(31);

  000e9	6a 1f		 push	 31			; 0000001fH
  000eb	68 ef 03 00 00	 push	 1007			; 000003efH
  000f0	8b 4d ec	 mov	 ecx, DWORD PTR _this$[ebp]
  000f3	e8 00 00 00 00	 call	 ?GetDlgItem@CWnd@@QBEPAV1@H@Z ; CWnd::GetDlgItem
  000f8	8b c8		 mov	 ecx, eax
  000fa	e8 00 00 00 00	 call	 ?LimitText@CEdit@@QAEXH@Z ; CEdit::LimitText

; 52   : 
; 53   : 	((CEdit *)GetDlgItem(IDC_TREASURE_DATABASE_PORT))->LimitText(5);

  000ff	6a 05		 push	 5
  00101	68 f5 03 00 00	 push	 1013			; 000003f5H
  00106	8b 4d ec	 mov	 ecx, DWORD PTR _this$[ebp]
  00109	e8 00 00 00 00	 call	 ?GetDlgItem@CWnd@@QBEPAV1@H@Z ; CWnd::GetDlgItem
  0010e	8b c8		 mov	 ecx, eax
  00110	e8 00 00 00 00	 call	 ?LimitText@CEdit@@QAEXH@Z ; CEdit::LimitText

; 54   : 	((CEdit *)GetDlgItem(IDC_TREASURE_DATABASE_USER))->LimitText(31);

  00115	6a 1f		 push	 31			; 0000001fH
  00117	68 f1 03 00 00	 push	 1009			; 000003f1H
  0011c	8b 4d ec	 mov	 ecx, DWORD PTR _this$[ebp]
  0011f	e8 00 00 00 00	 call	 ?GetDlgItem@CWnd@@QBEPAV1@H@Z ; CWnd::GetDlgItem
  00124	8b c8		 mov	 ecx, eax
  00126	e8 00 00 00 00	 call	 ?LimitText@CEdit@@QAEXH@Z ; CEdit::LimitText

; 55   : 	((CEdit *)GetDlgItem(IDC_TREASURE_DATABASE_PASS))->LimitText(31);

  0012b	6a 1f		 push	 31			; 0000001fH
  0012d	68 f6 03 00 00	 push	 1014			; 000003f6H
  00132	8b 4d ec	 mov	 ecx, DWORD PTR _this$[ebp]
  00135	e8 00 00 00 00	 call	 ?GetDlgItem@CWnd@@QBEPAV1@H@Z ; CWnd::GetDlgItem
  0013a	8b c8		 mov	 ecx, eax
  0013c	e8 00 00 00 00	 call	 ?LimitText@CEdit@@QAEXH@Z ; CEdit::LimitText

; 56   : 	((CEdit *)GetDlgItem(IDC_TREASURE_DATABASE_NAME))->LimitText(31);

  00141	6a 1f		 push	 31			; 0000001fH
  00143	68 f7 03 00 00	 push	 1015			; 000003f7H
  00148	8b 4d ec	 mov	 ecx, DWORD PTR _this$[ebp]
  0014b	e8 00 00 00 00	 call	 ?GetDlgItem@CWnd@@QBEPAV1@H@Z ; CWnd::GetDlgItem
  00150	8b c8		 mov	 ecx, eax
  00152	e8 00 00 00 00	 call	 ?LimitText@CEdit@@QAEXH@Z ; CEdit::LimitText

; 57   : 
; 58   : 	((CEdit *)GetDlgItem(IDC_PLATFORM_DATABASE_PORT))->LimitText(5);

  00157	6a 05		 push	 5
  00159	68 fa 03 00 00	 push	 1018			; 000003faH
  0015e	8b 4d ec	 mov	 ecx, DWORD PTR _this$[ebp]
  00161	e8 00 00 00 00	 call	 ?GetDlgItem@CWnd@@QBEPAV1@H@Z ; CWnd::GetDlgItem
  00166	8b c8		 mov	 ecx, eax
  00168	e8 00 00 00 00	 call	 ?LimitText@CEdit@@QAEXH@Z ; CEdit::LimitText

; 59   : 	((CEdit *)GetDlgItem(IDC_PLATFORM_DATABASE_USER))->LimitText(31);

  0016d	6a 1f		 push	 31			; 0000001fH
  0016f	68 f9 03 00 00	 push	 1017			; 000003f9H
  00174	8b 4d ec	 mov	 ecx, DWORD PTR _this$[ebp]
  00177	e8 00 00 00 00	 call	 ?GetDlgItem@CWnd@@QBEPAV1@H@Z ; CWnd::GetDlgItem
  0017c	8b c8		 mov	 ecx, eax
  0017e	e8 00 00 00 00	 call	 ?LimitText@CEdit@@QAEXH@Z ; CEdit::LimitText

; 60   : 	((CEdit *)GetDlgItem(IDC_PLATFORM_DATABASE_PASS))->LimitText(31);

  00183	6a 1f		 push	 31			; 0000001fH
  00185	68 fb 03 00 00	 push	 1019			; 000003fbH
  0018a	8b 4d ec	 mov	 ecx, DWORD PTR _this$[ebp]
  0018d	e8 00 00 00 00	 call	 ?GetDlgItem@CWnd@@QBEPAV1@H@Z ; CWnd::GetDlgItem
  00192	8b c8		 mov	 ecx, eax
  00194	e8 00 00 00 00	 call	 ?LimitText@CEdit@@QAEXH@Z ; CEdit::LimitText

; 61   : 	((CEdit *)GetDlgItem(IDC_PLATFORM_DATABASE_NAME))->LimitText(31);

  00199	6a 1f		 push	 31			; 0000001fH
  0019b	68 fc 03 00 00	 push	 1020			; 000003fcH
  001a0	8b 4d ec	 mov	 ecx, DWORD PTR _this$[ebp]
  001a3	e8 00 00 00 00	 call	 ?GetDlgItem@CWnd@@QBEPAV1@H@Z ; CWnd::GetDlgItem
  001a8	8b c8		 mov	 ecx, eax
  001aa	e8 00 00 00 00	 call	 ?LimitText@CEdit@@QAEXH@Z ; CEdit::LimitText

; 62   : 
; 63   : 	//加载参数
; 64   : 	CInitParameter InitParamter;

  001af	8d 8d cc fd ff
	ff		 lea	 ecx, DWORD PTR _InitParamter$[ebp]
  001b5	e8 00 00 00 00	 call	 ??0CInitParameter@@QAE@XZ ; CInitParameter::CInitParameter
  001ba	c7 45 fc 00 00
	00 00		 mov	 DWORD PTR __$EHRec$[ebp+8], 0

; 65   : 
; 66   : 	//设置控件
; 67   : 	SetDlgItemText(IDC_SERVER_NAME, TEXT("本地测试"));

  001c1	68 00 00 00 00	 push	 OFFSET ??_C@_08GGKIMEBF@?$LB?$LO?$LF?X?$LC?b?J?T@
  001c6	68 f2 03 00 00	 push	 1010			; 000003f2H
  001cb	8b 4d ec	 mov	 ecx, DWORD PTR _this$[ebp]
  001ce	e8 00 00 00 00	 call	 ?SetDlgItemTextA@CWnd@@QAEXHPBD@Z ; CWnd::SetDlgItemTextA

; 68   : 	SetDlgItemText(IDC_SERVICE_ADDRESS, TEXT("127.0.0.1"));

  001d3	68 00 00 00 00	 push	 OFFSET ??_C@_09PFCHIMEP@127?40?40?41@
  001d8	68 f3 03 00 00	 push	 1011			; 000003f3H
  001dd	8b 4d ec	 mov	 ecx, DWORD PTR _this$[ebp]
  001e0	e8 00 00 00 00	 call	 ?SetDlgItemTextA@CWnd@@QAEXHPBD@Z ; CWnd::SetDlgItemTextA

; 69   : 	SetDlgItemText(IDC_CORRESPOND_ADDRESS, TEXT("127.0.0.1"));

  001e5	68 00 00 00 00	 push	 OFFSET ??_C@_09PFCHIMEP@127?40?40?41@
  001ea	68 ff 03 00 00	 push	 1023			; 000003ffH
  001ef	8b 4d ec	 mov	 ecx, DWORD PTR _this$[ebp]
  001f2	e8 00 00 00 00	 call	 ?SetDlgItemTextA@CWnd@@QAEXHPBD@Z ; CWnd::SetDlgItemTextA

; 70   : 	SetDlgItemText(IDC_PERSONAL_ADDRESS, TEXT("127.0.0.1"));

  001f7	68 00 00 00 00	 push	 OFFSET ??_C@_09PFCHIMEP@127?40?40?41@
  001fc	68 f4 03 00 00	 push	 1012			; 000003f4H
  00201	8b 4d ec	 mov	 ecx, DWORD PTR _this$[ebp]
  00204	e8 00 00 00 00	 call	 ?SetDlgItemTextA@CWnd@@QAEXHPBD@Z ; CWnd::SetDlgItemTextA

; 71   : 
; 72   : 	SetDlgItemText(IDC_USER_DATABASE_NAME, szAccountsDB);

  00209	68 00 00 00 00	 push	 OFFSET ?szAccountsDB@@3QBDB
  0020e	68 ef 03 00 00	 push	 1007			; 000003efH
  00213	8b 4d ec	 mov	 ecx, DWORD PTR _this$[ebp]
  00216	e8 00 00 00 00	 call	 ?SetDlgItemTextA@CWnd@@QAEXHPBD@Z ; CWnd::SetDlgItemTextA

; 73   : 	SetDlgItemText(IDC_USER_DATABASE_USER, TEXT("sa"));

  0021b	68 00 00 00 00	 push	 OFFSET ??_C@_02CKOPKKAC@sa@
  00220	68 ec 03 00 00	 push	 1004			; 000003ecH
  00225	8b 4d ec	 mov	 ecx, DWORD PTR _this$[ebp]
  00228	e8 00 00 00 00	 call	 ?SetDlgItemTextA@CWnd@@QAEXHPBD@Z ; CWnd::SetDlgItemTextA

; 74   : 	SetDlgItemInt(IDC_USER_DATABASE_PORT, 1433);

  0022d	6a 01		 push	 1
  0022f	68 99 05 00 00	 push	 1433			; 00000599H
  00234	68 ed 03 00 00	 push	 1005			; 000003edH
  00239	8b 4d ec	 mov	 ecx, DWORD PTR _this$[ebp]
  0023c	e8 00 00 00 00	 call	 ?SetDlgItemInt@CWnd@@QAEXHIH@Z ; CWnd::SetDlgItemInt

; 75   : 	SetDlgItemText(IDC_USER_DATABASE_PASS, TEXT("people"));

  00241	68 00 00 00 00	 push	 OFFSET ??_C@_06PPNIIDOF@people@
  00246	68 ee 03 00 00	 push	 1006			; 000003eeH
  0024b	8b 4d ec	 mov	 ecx, DWORD PTR _this$[ebp]
  0024e	e8 00 00 00 00	 call	 ?SetDlgItemTextA@CWnd@@QAEXHPBD@Z ; CWnd::SetDlgItemTextA

; 76   : 	SetDlgItemText(IDC_USER_DATABASE_IP, TEXT("127.0.0.1"));

  00253	68 00 00 00 00	 push	 OFFSET ??_C@_09PFCHIMEP@127?40?40?41@
  00258	68 eb 03 00 00	 push	 1003			; 000003ebH
  0025d	8b 4d ec	 mov	 ecx, DWORD PTR _this$[ebp]
  00260	e8 00 00 00 00	 call	 ?SetDlgItemTextA@CWnd@@QAEXHPBD@Z ; CWnd::SetDlgItemTextA

; 77   : 
; 78   : 	SetDlgItemText(IDC_TREASURE_DATABASE_NAME, szTreasureDB);

  00265	68 00 00 00 00	 push	 OFFSET ?szTreasureDB@@3QBDB
  0026a	68 f7 03 00 00	 push	 1015			; 000003f7H
  0026f	8b 4d ec	 mov	 ecx, DWORD PTR _this$[ebp]
  00272	e8 00 00 00 00	 call	 ?SetDlgItemTextA@CWnd@@QAEXHPBD@Z ; CWnd::SetDlgItemTextA

; 79   : 	SetDlgItemText(IDC_TREASURE_DATABASE_USER, TEXT("sa"));

  00277	68 00 00 00 00	 push	 OFFSET ??_C@_02CKOPKKAC@sa@
  0027c	68 f1 03 00 00	 push	 1009			; 000003f1H
  00281	8b 4d ec	 mov	 ecx, DWORD PTR _this$[ebp]
  00284	e8 00 00 00 00	 call	 ?SetDlgItemTextA@CWnd@@QAEXHPBD@Z ; CWnd::SetDlgItemTextA

; 80   : 	SetDlgItemInt(IDC_TREASURE_DATABASE_PORT, 1433);

  00289	6a 01		 push	 1
  0028b	68 99 05 00 00	 push	 1433			; 00000599H
  00290	68 f5 03 00 00	 push	 1013			; 000003f5H
  00295	8b 4d ec	 mov	 ecx, DWORD PTR _this$[ebp]
  00298	e8 00 00 00 00	 call	 ?SetDlgItemInt@CWnd@@QAEXHIH@Z ; CWnd::SetDlgItemInt

; 81   : 	SetDlgItemText(IDC_TREASURE_DATABASE_PASS, TEXT("people"));

  0029d	68 00 00 00 00	 push	 OFFSET ??_C@_06PPNIIDOF@people@
  002a2	68 f6 03 00 00	 push	 1014			; 000003f6H
  002a7	8b 4d ec	 mov	 ecx, DWORD PTR _this$[ebp]
  002aa	e8 00 00 00 00	 call	 ?SetDlgItemTextA@CWnd@@QAEXHPBD@Z ; CWnd::SetDlgItemTextA

; 82   : 	SetDlgItemText(IDC_TREASURE_DATABASE_IP, TEXT("127.0.0.1"));

  002af	68 00 00 00 00	 push	 OFFSET ??_C@_09PFCHIMEP@127?40?40?41@
  002b4	68 f0 03 00 00	 push	 1008			; 000003f0H
  002b9	8b 4d ec	 mov	 ecx, DWORD PTR _this$[ebp]
  002bc	e8 00 00 00 00	 call	 ?SetDlgItemTextA@CWnd@@QAEXHPBD@Z ; CWnd::SetDlgItemTextA

; 83   : 
; 84   : 	SetDlgItemText(IDC_PLATFORM_DATABASE_NAME, szPlatformDB);

  002c1	68 00 00 00 00	 push	 OFFSET ?szPlatformDB@@3QBDB
  002c6	68 fc 03 00 00	 push	 1020			; 000003fcH
  002cb	8b 4d ec	 mov	 ecx, DWORD PTR _this$[ebp]
  002ce	e8 00 00 00 00	 call	 ?SetDlgItemTextA@CWnd@@QAEXHPBD@Z ; CWnd::SetDlgItemTextA

; 85   : 	SetDlgItemText(IDC_PLATFORM_DATABASE_USER, TEXT("sa"));

  002d3	68 00 00 00 00	 push	 OFFSET ??_C@_02CKOPKKAC@sa@
  002d8	68 f9 03 00 00	 push	 1017			; 000003f9H
  002dd	8b 4d ec	 mov	 ecx, DWORD PTR _this$[ebp]
  002e0	e8 00 00 00 00	 call	 ?SetDlgItemTextA@CWnd@@QAEXHPBD@Z ; CWnd::SetDlgItemTextA

; 86   : 	SetDlgItemInt(IDC_PLATFORM_DATABASE_PORT, 1433);

  002e5	6a 01		 push	 1
  002e7	68 99 05 00 00	 push	 1433			; 00000599H
  002ec	68 fa 03 00 00	 push	 1018			; 000003faH
  002f1	8b 4d ec	 mov	 ecx, DWORD PTR _this$[ebp]
  002f4	e8 00 00 00 00	 call	 ?SetDlgItemInt@CWnd@@QAEXHIH@Z ; CWnd::SetDlgItemInt

; 87   : 	SetDlgItemText(IDC_PLATFORM_DATABASE_PASS, TEXT("people"));

  002f9	68 00 00 00 00	 push	 OFFSET ??_C@_06PPNIIDOF@people@
  002fe	68 fb 03 00 00	 push	 1019			; 000003fbH
  00303	8b 4d ec	 mov	 ecx, DWORD PTR _this$[ebp]
  00306	e8 00 00 00 00	 call	 ?SetDlgItemTextA@CWnd@@QAEXHPBD@Z ; CWnd::SetDlgItemTextA

; 88   : 	SetDlgItemText(IDC_PLATFORM_DATABASE_IP, TEXT("127.0.0.1"));

  0030b	68 00 00 00 00	 push	 OFFSET ??_C@_09PFCHIMEP@127?40?40?41@
  00310	68 f8 03 00 00	 push	 1016			; 000003f8H
  00315	8b 4d ec	 mov	 ecx, DWORD PTR _this$[ebp]
  00318	e8 00 00 00 00	 call	 ?SetDlgItemTextA@CWnd@@QAEXHPBD@Z ; CWnd::SetDlgItemTextA

; 89   : 
; 90   : 	SetDlgItemInt(IDC_SERVICE_PORT, InitParamter.m_wServicePort, FALSE);

  0031d	6a 00		 push	 0
  0031f	0f b7 85 d4 fd
	ff ff		 movzx	 eax, WORD PTR _InitParamter$[ebp+8]
  00326	50		 push	 eax
  00327	68 fd 03 00 00	 push	 1021			; 000003fdH
  0032c	8b 4d ec	 mov	 ecx, DWORD PTR _this$[ebp]
  0032f	e8 00 00 00 00	 call	 ?SetDlgItemInt@CWnd@@QAEXHIH@Z ; CWnd::SetDlgItemInt

; 91   : 	SetDlgItemInt(IDC_CORRESPOND_PORT, InitParamter.m_wCorrespondPort, FALSE);

  00334	6a 00		 push	 0
  00336	0f b7 85 02 fe
	ff ff		 movzx	 eax, WORD PTR _InitParamter$[ebp+54]
  0033d	50		 push	 eax
  0033e	68 00 04 00 00	 push	 1024			; 00000400H
  00343	8b 4d ec	 mov	 ecx, DWORD PTR _this$[ebp]
  00346	e8 00 00 00 00	 call	 ?SetDlgItemInt@CWnd@@QAEXHIH@Z ; CWnd::SetDlgItemInt

; 92   : 	SetDlgItemInt(IDC_PERSONAL_PORT, InitParamter.m_wPrsnlRmCorrespondPort, FALSE);

  0034b	6a 00		 push	 0
  0034d	0f b7 85 24 fe
	ff ff		 movzx	 eax, WORD PTR _InitParamter$[ebp+88]
  00354	50		 push	 eax
  00355	68 01 04 00 00	 push	 1025			; 00000401H
  0035a	8b 4d ec	 mov	 ecx, DWORD PTR _this$[ebp]
  0035d	e8 00 00 00 00	 call	 ?SetDlgItemInt@CWnd@@QAEXHIH@Z ; CWnd::SetDlgItemInt

; 93   : 	SetDlgItemInt(IDC_MAX_CONNECT, InitParamter.m_wMaxConnect, FALSE);

  00362	6a 00		 push	 0
  00364	0f b7 85 d2 fd
	ff ff		 movzx	 eax, WORD PTR _InitParamter$[ebp+6]
  0036b	50		 push	 eax
  0036c	68 fe 03 00 00	 push	 1022			; 000003feH
  00371	8b 4d ec	 mov	 ecx, DWORD PTR _this$[ebp]
  00374	e8 00 00 00 00	 call	 ?SetDlgItemInt@CWnd@@QAEXHIH@Z ; CWnd::SetDlgItemInt

; 94   : 	return TRUE;

  00379	c7 85 48 fd ff
	ff 01 00 00 00	 mov	 DWORD PTR $T2[ebp], 1
  00383	c7 45 fc ff ff
	ff ff		 mov	 DWORD PTR __$EHRec$[ebp+8], -1
  0038a	8d 8d cc fd ff
	ff		 lea	 ecx, DWORD PTR _InitParamter$[ebp]
  00390	e8 00 00 00 00	 call	 ??1CInitParameter@@UAE@XZ ; CInitParameter::~CInitParameter
  00395	8b 85 48 fd ff
	ff		 mov	 eax, DWORD PTR $T2[ebp]

; 95   : }

  0039b	8b 4d f4	 mov	 ecx, DWORD PTR __$EHRec$[ebp]
  0039e	64 89 0d 00 00
	00 00		 mov	 DWORD PTR fs:0, ecx
  003a5	59		 pop	 ecx
  003a6	5f		 pop	 edi
  003a7	5e		 pop	 esi
  003a8	5b		 pop	 ebx
  003a9	8b 4d f0	 mov	 ecx, DWORD PTR __$ArrayPad$[ebp]
  003ac	33 cd		 xor	 ecx, ebp
  003ae	e8 00 00 00 00	 call	 @__security_check_cookie@4
  003b3	8b e5		 mov	 esp, ebp
  003b5	5d		 pop	 ebp
  003b6	c3		 ret	 0
_TEXT	ENDS
;	COMDAT text$x
text$x	SEGMENT
__unwindfunclet$?OnInitDialog@CSystemOptionDlg@@MAEHXZ$0:
  00000	8d 8d cc fd ff
	ff		 lea	 ecx, DWORD PTR _InitParamter$[ebp]
  00006	e9 00 00 00 00	 jmp	 ??1CInitParameter@@UAE@XZ ; CInitParameter::~CInitParameter
__ehhandler$?OnInitDialog@CSystemOptionDlg@@MAEHXZ:
  0000b	8b 54 24 08	 mov	 edx, DWORD PTR [esp+8]
  0000f	8d 42 0c	 lea	 eax, DWORD PTR [edx+12]
  00012	8b 8a 44 fd ff
	ff		 mov	 ecx, DWORD PTR [edx-700]
  00018	33 c8		 xor	 ecx, eax
  0001a	e8 00 00 00 00	 call	 @__security_check_cookie@4
  0001f	8b 4a fc	 mov	 ecx, DWORD PTR [edx-4]
  00022	33 c8		 xor	 ecx, eax
  00024	e8 00 00 00 00	 call	 @__security_check_cookie@4
  00029	b8 00 00 00 00	 mov	 eax, OFFSET __ehfuncinfo$?OnInitDialog@CSystemOptionDlg@@MAEHXZ
  0002e	e9 00 00 00 00	 jmp	 ___CxxFrameHandler3
text$x	ENDS
?OnInitDialog@CSystemOptionDlg@@MAEHXZ ENDP		; CSystemOptionDlg::OnInitDialog
; Function compile flags: /Odtp /ZI
; File g:\网狐\happygamewh\服务端\系统模块\服务器组件\登录服务器\logonserverdlg.cpp
;	COMDAT ??1CSystemOptionDlg@@UAE@XZ
_TEXT	SEGMENT
_this$ = -4						; size = 4
??1CSystemOptionDlg@@UAE@XZ PROC			; CSystemOptionDlg::~CSystemOptionDlg, COMDAT
; _this$ = ecx

; 27   : {

  00000	55		 push	 ebp
  00001	8b ec		 mov	 ebp, esp
  00003	83 ec 44	 sub	 esp, 68			; 00000044H
  00006	53		 push	 ebx
  00007	56		 push	 esi
  00008	57		 push	 edi
  00009	89 4d fc	 mov	 DWORD PTR _this$[ebp], ecx
  0000c	8b 45 fc	 mov	 eax, DWORD PTR _this$[ebp]
  0000f	c7 00 00 00 00
	00		 mov	 DWORD PTR [eax], OFFSET ??_7CSystemOptionDlg@@6B@

; 28   : }

  00015	8b 4d fc	 mov	 ecx, DWORD PTR _this$[ebp]
  00018	e8 00 00 00 00	 call	 ??1CDialog@@UAE@XZ	; CDialog::~CDialog
  0001d	5f		 pop	 edi
  0001e	5e		 pop	 esi
  0001f	5b		 pop	 ebx
  00020	8b e5		 mov	 esp, ebp
  00022	5d		 pop	 ebp
  00023	c3		 ret	 0
??1CSystemOptionDlg@@UAE@XZ ENDP			; CSystemOptionDlg::~CSystemOptionDlg
_TEXT	ENDS
; Function compile flags: /Odtp /ZI
; File g:\网狐\happygamewh\服务端\系统模块\服务器组件\登录服务器\logonserverdlg.cpp
;	COMDAT ??0CSystemOptionDlg@@QAE@XZ
_TEXT	SEGMENT
_this$ = -4						; size = 4
??0CSystemOptionDlg@@QAE@XZ PROC			; CSystemOptionDlg::CSystemOptionDlg, COMDAT
; _this$ = ecx

; 22   : {

  00000	55		 push	 ebp
  00001	8b ec		 mov	 ebp, esp
  00003	83 ec 44	 sub	 esp, 68			; 00000044H
  00006	53		 push	 ebx
  00007	56		 push	 esi
  00008	57		 push	 edi
  00009	89 4d fc	 mov	 DWORD PTR _this$[ebp], ecx

; 21   : CSystemOptionDlg::CSystemOptionDlg() : CDialog(IDD_SYSTEM_OPTION)

  0000c	6a 00		 push	 0
  0000e	68 81 00 00 00	 push	 129			; 00000081H
  00013	8b 4d fc	 mov	 ecx, DWORD PTR _this$[ebp]
  00016	e8 00 00 00 00	 call	 ??0CDialog@@QAE@IPAVCWnd@@@Z ; CDialog::CDialog

; 22   : {

  0001b	8b 45 fc	 mov	 eax, DWORD PTR _this$[ebp]
  0001e	c7 00 00 00 00
	00		 mov	 DWORD PTR [eax], OFFSET ??_7CSystemOptionDlg@@6B@

; 23   : }

  00024	8b 45 fc	 mov	 eax, DWORD PTR _this$[ebp]
  00027	5f		 pop	 edi
  00028	5e		 pop	 esi
  00029	5b		 pop	 ebx
  0002a	8b e5		 mov	 esp, ebp
  0002c	5d		 pop	 ebp
  0002d	c3		 ret	 0
??0CSystemOptionDlg@@QAE@XZ ENDP			; CSystemOptionDlg::CSystemOptionDlg
_TEXT	ENDS
; Function compile flags: /Odtp /ZI
; File g:\网狐\happygamewh\服务端\系统模块\服务器组件\登录服务器\serviceunits.h
;	COMDAT ?GetInitParameter@CServiceUnits@@QAE?AVCInitParameter@@XZ
_TEXT	SEGMENT
$T1 = -72						; size = 4
_this$ = -4						; size = 4
___$ReturnUdt$ = 8					; size = 4
?GetInitParameter@CServiceUnits@@QAE?AVCInitParameter@@XZ PROC ; CServiceUnits::GetInitParameter, COMDAT
; _this$ = ecx

; 98   : 	CInitParameter GetInitParameter() { return m_InitParameter; }

  00000	55		 push	 ebp
  00001	8b ec		 mov	 ebp, esp
  00003	83 ec 48	 sub	 esp, 72			; 00000048H
  00006	53		 push	 ebx
  00007	56		 push	 esi
  00008	57		 push	 edi
  00009	89 4d fc	 mov	 DWORD PTR _this$[ebp], ecx
  0000c	c7 45 b8 00 00
	00 00		 mov	 DWORD PTR $T1[ebp], 0
  00013	8b 45 fc	 mov	 eax, DWORD PTR _this$[ebp]
  00016	05 84 00 00 00	 add	 eax, 132		; 00000084H
  0001b	50		 push	 eax
  0001c	8b 4d 08	 mov	 ecx, DWORD PTR ___$ReturnUdt$[ebp]
  0001f	e8 00 00 00 00	 call	 ??0CInitParameter@@QAE@ABV0@@Z
  00024	8b 4d b8	 mov	 ecx, DWORD PTR $T1[ebp]
  00027	83 c9 01	 or	 ecx, 1
  0002a	89 4d b8	 mov	 DWORD PTR $T1[ebp], ecx
  0002d	8b 45 08	 mov	 eax, DWORD PTR ___$ReturnUdt$[ebp]
  00030	5f		 pop	 edi
  00031	5e		 pop	 esi
  00032	5b		 pop	 ebx
  00033	8b e5		 mov	 esp, ebp
  00035	5d		 pop	 ebp
  00036	c2 04 00	 ret	 4
?GetInitParameter@CServiceUnits@@QAE?AVCInitParameter@@XZ ENDP ; CServiceUnits::GetInitParameter
_TEXT	ENDS
; Function compile flags: /Odtp /ZI
; File g:\网狐\happygamewh\服务端\系统模块\服务器组件\登录服务器\serviceunits.h
;	COMDAT ?GetServiceStatus@CServiceUnits@@QAE?AW4enServiceStatus@@XZ
_TEXT	SEGMENT
_this$ = -4						; size = 4
?GetServiceStatus@CServiceUnits@@QAE?AW4enServiceStatus@@XZ PROC ; CServiceUnits::GetServiceStatus, COMDAT
; _this$ = ecx

; 96   : 	enServiceStatus GetServiceStatus() { return m_ServiceStatus; }

  00000	55		 push	 ebp
  00001	8b ec		 mov	 ebp, esp
  00003	83 ec 44	 sub	 esp, 68			; 00000044H
  00006	53		 push	 ebx
  00007	56		 push	 esi
  00008	57		 push	 edi
  00009	89 4d fc	 mov	 DWORD PTR _this$[ebp], ecx
  0000c	8b 45 fc	 mov	 eax, DWORD PTR _this$[ebp]
  0000f	8b 80 80 00 00
	00		 mov	 eax, DWORD PTR [eax+128]
  00015	5f		 pop	 edi
  00016	5e		 pop	 esi
  00017	5b		 pop	 ebx
  00018	8b e5		 mov	 esp, ebp
  0001a	5d		 pop	 ebp
  0001b	c3		 ret	 0
?GetServiceStatus@CServiceUnits@@QAE?AW4enServiceStatus@@XZ ENDP ; CServiceUnits::GetServiceStatus
_TEXT	ENDS
; Function compile flags: /Odtp /ZI
;	COMDAT ??0IServiceUnitsSink@@QAE@XZ
_TEXT	SEGMENT
_this$ = -4						; size = 4
??0IServiceUnitsSink@@QAE@XZ PROC			; IServiceUnitsSink::IServiceUnitsSink, COMDAT
; _this$ = ecx
  00000	55		 push	 ebp
  00001	8b ec		 mov	 ebp, esp
  00003	83 ec 44	 sub	 esp, 68			; 00000044H
  00006	53		 push	 ebx
  00007	56		 push	 esi
  00008	57		 push	 edi
  00009	89 4d fc	 mov	 DWORD PTR _this$[ebp], ecx
  0000c	8b 45 fc	 mov	 eax, DWORD PTR _this$[ebp]
  0000f	c7 00 00 00 00
	00		 mov	 DWORD PTR [eax], OFFSET ??_7IServiceUnitsSink@@6B@
  00015	8b 45 fc	 mov	 eax, DWORD PTR _this$[ebp]
  00018	5f		 pop	 edi
  00019	5e		 pop	 esi
  0001a	5b		 pop	 ebx
  0001b	8b e5		 mov	 esp, ebp
  0001d	5d		 pop	 ebp
  0001e	c3		 ret	 0
??0IServiceUnitsSink@@QAE@XZ ENDP			; IServiceUnitsSink::IServiceUnitsSink
_TEXT	ENDS
; Function compile flags: /Odtp /ZI
;	COMDAT ??_GCInitParameter@@UAEPAXI@Z
_TEXT	SEGMENT
_this$ = -4						; size = 4
___flags$ = 8						; size = 4
??_GCInitParameter@@UAEPAXI@Z PROC			; CInitParameter::`scalar deleting destructor', COMDAT
; _this$ = ecx
  00000	55		 push	 ebp
  00001	8b ec		 mov	 ebp, esp
  00003	83 ec 44	 sub	 esp, 68			; 00000044H
  00006	53		 push	 ebx
  00007	56		 push	 esi
  00008	57		 push	 edi
  00009	89 4d fc	 mov	 DWORD PTR _this$[ebp], ecx
  0000c	8b 4d fc	 mov	 ecx, DWORD PTR _this$[ebp]
  0000f	e8 00 00 00 00	 call	 ??1CInitParameter@@UAE@XZ ; CInitParameter::~CInitParameter
  00014	8b 45 08	 mov	 eax, DWORD PTR ___flags$[ebp]
  00017	83 e0 01	 and	 eax, 1
  0001a	74 11		 je	 SHORT $LN2@scalar
  0001c	68 20 02 00 00	 push	 544			; 00000220H
  00021	8b 45 fc	 mov	 eax, DWORD PTR _this$[ebp]
  00024	50		 push	 eax
  00025	e8 00 00 00 00	 call	 ??3@YAXPAXI@Z		; operator delete
  0002a	83 c4 08	 add	 esp, 8
$LN2@scalar:
  0002d	8b 45 fc	 mov	 eax, DWORD PTR _this$[ebp]
  00030	5f		 pop	 edi
  00031	5e		 pop	 esi
  00032	5b		 pop	 ebx
  00033	8b e5		 mov	 esp, ebp
  00035	5d		 pop	 ebp
  00036	c2 04 00	 ret	 4
??_GCInitParameter@@UAEPAXI@Z ENDP			; CInitParameter::`scalar deleting destructor'
_TEXT	ENDS
; Function compile flags: /Odtp /ZI
;	COMDAT ??0CInitParameter@@QAE@ABV0@@Z
_TEXT	SEGMENT
_this$ = -4						; size = 4
___that$ = 8						; size = 4
??0CInitParameter@@QAE@ABV0@@Z PROC			; CInitParameter::CInitParameter, COMDAT
; _this$ = ecx
  00000	55		 push	 ebp
  00001	8b ec		 mov	 ebp, esp
  00003	83 ec 44	 sub	 esp, 68			; 00000044H
  00006	53		 push	 ebx
  00007	56		 push	 esi
  00008	57		 push	 edi
  00009	89 4d fc	 mov	 DWORD PTR _this$[ebp], ecx
  0000c	8b 45 fc	 mov	 eax, DWORD PTR _this$[ebp]
  0000f	c7 00 00 00 00
	00		 mov	 DWORD PTR [eax], OFFSET ??_7CInitParameter@@6B@
  00015	8b 45 fc	 mov	 eax, DWORD PTR _this$[ebp]
  00018	8b 4d 08	 mov	 ecx, DWORD PTR ___that$[ebp]
  0001b	8a 51 04	 mov	 dl, BYTE PTR [ecx+4]
  0001e	88 50 04	 mov	 BYTE PTR [eax+4], dl
  00021	8b 45 fc	 mov	 eax, DWORD PTR _this$[ebp]
  00024	8b 4d 08	 mov	 ecx, DWORD PTR ___that$[ebp]
  00027	66 8b 51 06	 mov	 dx, WORD PTR [ecx+6]
  0002b	66 89 50 06	 mov	 WORD PTR [eax+6], dx
  0002f	8b 45 fc	 mov	 eax, DWORD PTR _this$[ebp]
  00032	8b 4d 08	 mov	 ecx, DWORD PTR ___that$[ebp]
  00035	66 8b 51 08	 mov	 dx, WORD PTR [ecx+8]
  00039	66 89 50 08	 mov	 WORD PTR [eax+8], dx
  0003d	8b 75 08	 mov	 esi, DWORD PTR ___that$[ebp]
  00040	83 c6 0a	 add	 esi, 10			; 0000000aH
  00043	8b 7d fc	 mov	 edi, DWORD PTR _this$[ebp]
  00046	83 c7 0a	 add	 edi, 10			; 0000000aH
  00049	b9 08 00 00 00	 mov	 ecx, 8
  0004e	f3 a5		 rep movsd
  00050	8b 45 fc	 mov	 eax, DWORD PTR _this$[ebp]
  00053	8b 4d 08	 mov	 ecx, DWORD PTR ___that$[ebp]
  00056	66 8b 51 2a	 mov	 dx, WORD PTR [ecx+42]
  0005a	66 89 50 2a	 mov	 WORD PTR [eax+42], dx
  0005e	8b 45 fc	 mov	 eax, DWORD PTR _this$[ebp]
  00061	8b 4d 08	 mov	 ecx, DWORD PTR ___that$[ebp]
  00064	66 8b 51 2c	 mov	 dx, WORD PTR [ecx+44]
  00068	66 89 50 2c	 mov	 WORD PTR [eax+44], dx
  0006c	8b 45 fc	 mov	 eax, DWORD PTR _this$[ebp]
  0006f	8b 4d 08	 mov	 ecx, DWORD PTR ___that$[ebp]
  00072	66 8b 51 2e	 mov	 dx, WORD PTR [ecx+46]
  00076	66 89 50 2e	 mov	 WORD PTR [eax+46], dx
  0007a	8b 45 fc	 mov	 eax, DWORD PTR _this$[ebp]
  0007d	8b 4d 08	 mov	 ecx, DWORD PTR ___that$[ebp]
  00080	66 8b 51 30	 mov	 dx, WORD PTR [ecx+48]
  00084	66 89 50 30	 mov	 WORD PTR [eax+48], dx
  00088	8b 45 fc	 mov	 eax, DWORD PTR _this$[ebp]
  0008b	8b 4d 08	 mov	 ecx, DWORD PTR ___that$[ebp]
  0008e	66 8b 51 32	 mov	 dx, WORD PTR [ecx+50]
  00092	66 89 50 32	 mov	 WORD PTR [eax+50], dx
  00096	8b 45 fc	 mov	 eax, DWORD PTR _this$[ebp]
  00099	8b 4d 08	 mov	 ecx, DWORD PTR ___that$[ebp]
  0009c	66 8b 51 34	 mov	 dx, WORD PTR [ecx+52]
  000a0	66 89 50 34	 mov	 WORD PTR [eax+52], dx
  000a4	8b 45 fc	 mov	 eax, DWORD PTR _this$[ebp]
  000a7	8b 4d 08	 mov	 ecx, DWORD PTR ___that$[ebp]
  000aa	66 8b 51 36	 mov	 dx, WORD PTR [ecx+54]
  000ae	66 89 50 36	 mov	 WORD PTR [eax+54], dx
  000b2	8b 75 08	 mov	 esi, DWORD PTR ___that$[ebp]
  000b5	83 c6 38	 add	 esi, 56			; 00000038H
  000b8	8b 7d fc	 mov	 edi, DWORD PTR _this$[ebp]
  000bb	83 c7 38	 add	 edi, 56			; 00000038H
  000be	b9 08 00 00 00	 mov	 ecx, 8
  000c3	f3 a5		 rep movsd
  000c5	8b 45 fc	 mov	 eax, DWORD PTR _this$[ebp]
  000c8	8b 4d 08	 mov	 ecx, DWORD PTR ___that$[ebp]
  000cb	66 8b 51 58	 mov	 dx, WORD PTR [ecx+88]
  000cf	66 89 50 58	 mov	 WORD PTR [eax+88], dx
  000d3	8b 75 08	 mov	 esi, DWORD PTR ___that$[ebp]
  000d6	83 c6 5a	 add	 esi, 90			; 0000005aH
  000d9	8b 7d fc	 mov	 edi, DWORD PTR _this$[ebp]
  000dc	83 c7 5a	 add	 edi, 90			; 0000005aH
  000df	b9 08 00 00 00	 mov	 ecx, 8
  000e4	f3 a5		 rep movsd
  000e6	8b 75 08	 mov	 esi, DWORD PTR ___that$[ebp]
  000e9	83 c6 7a	 add	 esi, 122		; 0000007aH
  000ec	8b 7d fc	 mov	 edi, DWORD PTR _this$[ebp]
  000ef	83 c7 7a	 add	 edi, 122		; 0000007aH
  000f2	b9 08 00 00 00	 mov	 ecx, 8
  000f7	f3 a5		 rep movsd
  000f9	8b 75 08	 mov	 esi, DWORD PTR ___that$[ebp]
  000fc	81 c6 9a 00 00
	00		 add	 esi, 154		; 0000009aH
  00102	8b 7d fc	 mov	 edi, DWORD PTR _this$[ebp]
  00105	81 c7 9a 00 00
	00		 add	 edi, 154		; 0000009aH
  0010b	b9 20 00 00 00	 mov	 ecx, 32			; 00000020H
  00110	f3 a5		 rep movsd
  00112	66 a5		 movsw
  00114	8b 75 08	 mov	 esi, DWORD PTR ___that$[ebp]
  00117	81 c6 1c 01 00
	00		 add	 esi, 284		; 0000011cH
  0011d	8b 7d fc	 mov	 edi, DWORD PTR _this$[ebp]
  00120	81 c7 1c 01 00
	00		 add	 edi, 284		; 0000011cH
  00126	b9 20 00 00 00	 mov	 ecx, 32			; 00000020H
  0012b	f3 a5		 rep movsd
  0012d	66 a5		 movsw
  0012f	8b 75 08	 mov	 esi, DWORD PTR ___that$[ebp]
  00132	81 c6 9e 01 00
	00		 add	 esi, 414		; 0000019eH
  00138	8b 7d fc	 mov	 edi, DWORD PTR _this$[ebp]
  0013b	81 c7 9e 01 00
	00		 add	 edi, 414		; 0000019eH
  00141	b9 20 00 00 00	 mov	 ecx, 32			; 00000020H
  00146	f3 a5		 rep movsd
  00148	66 a5		 movsw
  0014a	8b 45 fc	 mov	 eax, DWORD PTR _this$[ebp]
  0014d	5f		 pop	 edi
  0014e	5e		 pop	 esi
  0014f	5b		 pop	 ebx
  00150	8b e5		 mov	 esp, ebp
  00152	5d		 pop	 ebp
  00153	c2 04 00	 ret	 4
??0CInitParameter@@QAE@ABV0@@Z ENDP			; CInitParameter::CInitParameter
_TEXT	ENDS
; Function compile flags: /Odtp /ZI
; File c:\program files (x86)\microsoft visual studio\2017\community\vc\tools\msvc\14.16.27023\atlmfc\include\afx.h
;	COMDAT ?AfxAssertFailedLine@@YGHPBDH@Z
_TEXT	SEGMENT
_bResult$ = -36						; size = 4
_bQuit$ = -32						; size = 4
_msg$ = -28						; size = 28
_lpszFileName$ = 8					; size = 4
_nLine$ = 12						; size = 4
?AfxAssertFailedLine@@YGHPBDH@Z PROC			; AfxAssertFailedLine, COMDAT

; 312  : {

  00000	55		 push	 ebp
  00001	8b ec		 mov	 ebp, esp
  00003	83 ec 64	 sub	 esp, 100		; 00000064H
  00006	53		 push	 ebx
  00007	56		 push	 esi
  00008	57		 push	 edi

; 313  : 	// we remove WM_QUIT because if it is in the queue then the message box
; 314  : 	// won't display
; 315  : 	MSG msg;
; 316  : 	BOOL bQuit = PeekMessage(&msg, NULL, WM_QUIT, WM_QUIT, PM_REMOVE);

  00009	6a 01		 push	 1
  0000b	6a 12		 push	 18			; 00000012H
  0000d	6a 12		 push	 18			; 00000012H
  0000f	6a 00		 push	 0
  00011	8d 45 e4	 lea	 eax, DWORD PTR _msg$[ebp]
  00014	50		 push	 eax
  00015	ff 15 00 00 00
	00		 call	 DWORD PTR __imp__PeekMessageA@20
  0001b	89 45 e0	 mov	 DWORD PTR _bQuit$[ebp], eax

; 317  : 	BOOL bResult = _CrtDbgReport(_CRT_ASSERT, lpszFileName, nLine, NULL, NULL);

  0001e	6a 00		 push	 0
  00020	6a 00		 push	 0
  00022	8b 45 0c	 mov	 eax, DWORD PTR _nLine$[ebp]
  00025	50		 push	 eax
  00026	8b 4d 08	 mov	 ecx, DWORD PTR _lpszFileName$[ebp]
  00029	51		 push	 ecx
  0002a	6a 02		 push	 2
  0002c	ff 15 00 00 00
	00		 call	 DWORD PTR __imp___CrtDbgReport
  00032	83 c4 14	 add	 esp, 20			; 00000014H
  00035	89 45 dc	 mov	 DWORD PTR _bResult$[ebp], eax

; 318  : 	if (bQuit)

  00038	83 7d e0 00	 cmp	 DWORD PTR _bQuit$[ebp], 0
  0003c	74 0a		 je	 SHORT $LN2@AfxAssertF

; 319  : 		PostQuitMessage((int)msg.wParam);

  0003e	8b 45 ec	 mov	 eax, DWORD PTR _msg$[ebp+8]
  00041	50		 push	 eax
  00042	ff 15 00 00 00
	00		 call	 DWORD PTR __imp__PostQuitMessage@4
$LN2@AfxAssertF:

; 320  : 	return bResult;

  00048	8b 45 dc	 mov	 eax, DWORD PTR _bResult$[ebp]

; 321  : }

  0004b	5f		 pop	 edi
  0004c	5e		 pop	 esi
  0004d	5b		 pop	 ebx
  0004e	8b e5		 mov	 esp, ebp
  00050	5d		 pop	 ebp
  00051	c2 08 00	 ret	 8
?AfxAssertFailedLine@@YGHPBDH@Z ENDP			; AfxAssertFailedLine
_TEXT	ENDS
; Function compile flags: /Odtp /ZI
; File c:\program files (x86)\windows kits\10\include\10.0.17763.0\ucrt\stdio.h
;	COMDAT __snprintf
_TEXT	SEGMENT
__ArgList$ = -8						; size = 4
__Result$ = -4						; size = 4
__Buffer$ = 8						; size = 4
__BufferCount$ = 12					; size = 4
__Format$ = 16						; size = 4
__snprintf PROC						; COMDAT

; 1969 :     {

  00000	55		 push	 ebp
  00001	8b ec		 mov	 ebp, esp
  00003	83 ec 4c	 sub	 esp, 76			; 0000004cH
  00006	53		 push	 ebx
  00007	56		 push	 esi
  00008	57		 push	 edi

; 1970 :         int _Result;
; 1971 :         va_list _ArgList;
; 1972 :         __crt_va_start(_ArgList, _Format);

  00009	8d 45 14	 lea	 eax, DWORD PTR __Format$[ebp+4]
  0000c	89 45 f8	 mov	 DWORD PTR __ArgList$[ebp], eax

; 1973 :     #pragma warning(suppress:28719)    // 28719
; 1974 :         _Result = _vsnprintf(_Buffer, _BufferCount, _Format, _ArgList);

  0000f	8b 45 f8	 mov	 eax, DWORD PTR __ArgList$[ebp]
  00012	50		 push	 eax
  00013	8b 4d 10	 mov	 ecx, DWORD PTR __Format$[ebp]
  00016	51		 push	 ecx
  00017	8b 55 0c	 mov	 edx, DWORD PTR __BufferCount$[ebp]
  0001a	52		 push	 edx
  0001b	8b 45 08	 mov	 eax, DWORD PTR __Buffer$[ebp]
  0001e	50		 push	 eax
  0001f	e8 00 00 00 00	 call	 __vsnprintf
  00024	83 c4 10	 add	 esp, 16			; 00000010H
  00027	89 45 fc	 mov	 DWORD PTR __Result$[ebp], eax

; 1975 :         __crt_va_end(_ArgList);

  0002a	c7 45 f8 00 00
	00 00		 mov	 DWORD PTR __ArgList$[ebp], 0

; 1976 :         return _Result;

  00031	8b 45 fc	 mov	 eax, DWORD PTR __Result$[ebp]

; 1977 :     }

  00034	5f		 pop	 edi
  00035	5e		 pop	 esi
  00036	5b		 pop	 ebx
  00037	8b e5		 mov	 esp, ebp
  00039	5d		 pop	 ebp
  0003a	c3		 ret	 0
__snprintf ENDP
_TEXT	ENDS
; Function compile flags: /Odtp /ZI
; File c:\program files (x86)\windows kits\10\include\10.0.17763.0\ucrt\stdio.h
;	COMDAT __vsnprintf
_TEXT	SEGMENT
__Buffer$ = 8						; size = 4
__BufferCount$ = 12					; size = 4
__Format$ = 16						; size = 4
__ArgList$ = 20						; size = 4
__vsnprintf PROC					; COMDAT

; 1409 :     {

  00000	55		 push	 ebp
  00001	8b ec		 mov	 ebp, esp
  00003	83 ec 40	 sub	 esp, 64			; 00000040H
  00006	53		 push	 ebx
  00007	56		 push	 esi
  00008	57		 push	 edi

; 1410 :         #pragma warning(push)
; 1411 :         #pragma warning(disable: 4996) // Deprecation
; 1412 :         return _vsnprintf_l(_Buffer, _BufferCount, _Format, NULL, _ArgList);

  00009	8b 45 14	 mov	 eax, DWORD PTR __ArgList$[ebp]
  0000c	50		 push	 eax
  0000d	6a 00		 push	 0
  0000f	8b 4d 10	 mov	 ecx, DWORD PTR __Format$[ebp]
  00012	51		 push	 ecx
  00013	8b 55 0c	 mov	 edx, DWORD PTR __BufferCount$[ebp]
  00016	52		 push	 edx
  00017	8b 45 08	 mov	 eax, DWORD PTR __Buffer$[ebp]
  0001a	50		 push	 eax
  0001b	e8 00 00 00 00	 call	 __vsnprintf_l
  00020	83 c4 14	 add	 esp, 20			; 00000014H

; 1413 :         #pragma warning(pop)
; 1414 :     }

  00023	5f		 pop	 edi
  00024	5e		 pop	 esi
  00025	5b		 pop	 ebx
  00026	8b e5		 mov	 esp, ebp
  00028	5d		 pop	 ebp
  00029	c3		 ret	 0
__vsnprintf ENDP
_TEXT	ENDS
; Function compile flags: /Odtp /ZI
; File c:\program files (x86)\windows kits\10\include\10.0.17763.0\ucrt\stdio.h
;	COMDAT __vsnprintf_l
_TEXT	SEGMENT
tv74 = -72						; size = 4
__Result$ = -4						; size = 4
__Buffer$ = 8						; size = 4
__BufferCount$ = 12					; size = 4
__Format$ = 16						; size = 4
__Locale$ = 20						; size = 4
__ArgList$ = 24						; size = 4
__vsnprintf_l PROC					; COMDAT

; 1389 :     {

  00000	55		 push	 ebp
  00001	8b ec		 mov	 ebp, esp
  00003	83 ec 48	 sub	 esp, 72			; 00000048H
  00006	53		 push	 ebx
  00007	56		 push	 esi
  00008	57		 push	 edi

; 1390 :         int const _Result = __stdio_common_vsprintf(

  00009	8b 45 18	 mov	 eax, DWORD PTR __ArgList$[ebp]
  0000c	50		 push	 eax
  0000d	8b 4d 14	 mov	 ecx, DWORD PTR __Locale$[ebp]
  00010	51		 push	 ecx
  00011	8b 55 10	 mov	 edx, DWORD PTR __Format$[ebp]
  00014	52		 push	 edx
  00015	8b 45 0c	 mov	 eax, DWORD PTR __BufferCount$[ebp]
  00018	50		 push	 eax
  00019	8b 4d 08	 mov	 ecx, DWORD PTR __Buffer$[ebp]
  0001c	51		 push	 ecx
  0001d	e8 00 00 00 00	 call	 ___local_stdio_printf_options
  00022	8b 10		 mov	 edx, DWORD PTR [eax]
  00024	83 ca 01	 or	 edx, 1
  00027	8b 40 04	 mov	 eax, DWORD PTR [eax+4]
  0002a	50		 push	 eax
  0002b	52		 push	 edx
  0002c	ff 15 00 00 00
	00		 call	 DWORD PTR __imp____stdio_common_vsprintf
  00032	83 c4 1c	 add	 esp, 28			; 0000001cH
  00035	89 45 fc	 mov	 DWORD PTR __Result$[ebp], eax

; 1391 :             _CRT_INTERNAL_LOCAL_PRINTF_OPTIONS | _CRT_INTERNAL_PRINTF_LEGACY_VSPRINTF_NULL_TERMINATION,
; 1392 :             _Buffer, _BufferCount, _Format, _Locale, _ArgList);
; 1393 : 
; 1394 :         return _Result < 0 ? -1 : _Result;

  00038	83 7d fc 00	 cmp	 DWORD PTR __Result$[ebp], 0
  0003c	7d 09		 jge	 SHORT $LN3@vsnprintf_
  0003e	c7 45 b8 ff ff
	ff ff		 mov	 DWORD PTR tv74[ebp], -1
  00045	eb 06		 jmp	 SHORT $LN4@vsnprintf_
$LN3@vsnprintf_:
  00047	8b 45 fc	 mov	 eax, DWORD PTR __Result$[ebp]
  0004a	89 45 b8	 mov	 DWORD PTR tv74[ebp], eax
$LN4@vsnprintf_:
  0004d	8b 45 b8	 mov	 eax, DWORD PTR tv74[ebp]

; 1395 :     }

  00050	5f		 pop	 edi
  00051	5e		 pop	 esi
  00052	5b		 pop	 ebx
  00053	8b e5		 mov	 esp, ebp
  00055	5d		 pop	 ebp
  00056	c3		 ret	 0
__vsnprintf_l ENDP
_TEXT	ENDS
; Function compile flags: /Odtp /ZI
; File c:\program files (x86)\windows kits\10\include\10.0.17763.0\ucrt\corecrt_stdio_config.h
;	COMDAT ___local_stdio_printf_options
_TEXT	SEGMENT
___local_stdio_printf_options PROC			; COMDAT

; 86   :     {

  00000	55		 push	 ebp
  00001	8b ec		 mov	 ebp, esp
  00003	83 ec 40	 sub	 esp, 64			; 00000040H
  00006	53		 push	 ebx
  00007	56		 push	 esi
  00008	57		 push	 edi

; 87   :         static unsigned __int64 _OptionsStorage;
; 88   :         return &_OptionsStorage;

  00009	b8 00 00 00 00	 mov	 eax, OFFSET ?_OptionsStorage@?1??__local_stdio_printf_options@@9@4_KA ; `__local_stdio_printf_options'::`2'::_OptionsStorage

; 89   :     }

  0000e	5f		 pop	 edi
  0000f	5e		 pop	 esi
  00010	5b		 pop	 ebx
  00011	8b e5		 mov	 esp, ebp
  00013	5d		 pop	 ebp
  00014	c3		 ret	 0
___local_stdio_printf_options ENDP
_TEXT	ENDS
; Function compile flags: /Odtp /ZI
; File g:\网狐\happygamewh\服务端\系统模块\服务器组件\登录服务器\logonserverdlg.cpp
;	COMDAT ?__empty_global_delete@@YAXPAXI@Z
_TEXT	SEGMENT
___formal$ = 8						; size = 4
___formal$ = 12						; size = 4
?__empty_global_delete@@YAXPAXI@Z PROC			; __empty_global_delete, COMDAT

  00000	55		 push	 ebp
  00001	8b ec		 mov	 ebp, esp
  00003	83 ec 40	 sub	 esp, 64			; 00000040H
  00006	53		 push	 ebx
  00007	56		 push	 esi
  00008	57		 push	 edi
  00009	5f		 pop	 edi
  0000a	5e		 pop	 esi
  0000b	5b		 pop	 ebx
  0000c	8b e5		 mov	 esp, ebp
  0000e	5d		 pop	 ebp
  0000f	c3		 ret	 0
?__empty_global_delete@@YAXPAXI@Z ENDP			; __empty_global_delete
_TEXT	ENDS
; Function compile flags: /Odtp /ZI
; File g:\网狐\happygamewh\服务端\系统模块\服务器组件\登录服务器\logonserverdlg.cpp
;	COMDAT ?__empty_global_delete@@YAXPAX@Z
_TEXT	SEGMENT
___formal$ = 8						; size = 4
?__empty_global_delete@@YAXPAX@Z PROC			; __empty_global_delete, COMDAT

  00000	55		 push	 ebp
  00001	8b ec		 mov	 ebp, esp
  00003	83 ec 40	 sub	 esp, 64			; 00000040H
  00006	53		 push	 ebx
  00007	56		 push	 esi
  00008	57		 push	 edi
  00009	5f		 pop	 edi
  0000a	5e		 pop	 esi
  0000b	5b		 pop	 ebx
  0000c	8b e5		 mov	 esp, ebp
  0000e	5d		 pop	 ebp
  0000f	c3		 ret	 0
?__empty_global_delete@@YAXPAX@Z ENDP			; __empty_global_delete
_TEXT	ENDS
; Function compile flags: /Odtp /ZI
;	COMDAT ??_H@YGXPAXIIP6EPAX0@Z@Z
_TEXT	SEGMENT
tv66 = -68						; size = 4
___t$ = 8						; size = 4
___s$ = 12						; size = 4
___n$ = 16						; size = 4
___f$ = 20						; size = 4
??_H@YGXPAXIIP6EPAX0@Z@Z PROC				; `vector constructor iterator', COMDAT
  00000	55		 push	 ebp
  00001	8b ec		 mov	 ebp, esp
  00003	83 ec 44	 sub	 esp, 68			; 00000044H
  00006	53		 push	 ebx
  00007	56		 push	 esi
  00008	57		 push	 edi
$LN2@vector:
  00009	8b 45 10	 mov	 eax, DWORD PTR ___n$[ebp]
  0000c	89 45 bc	 mov	 DWORD PTR tv66[ebp], eax
  0000f	8b 4d 10	 mov	 ecx, DWORD PTR ___n$[ebp]
  00012	83 e9 01	 sub	 ecx, 1
  00015	89 4d 10	 mov	 DWORD PTR ___n$[ebp], ecx
  00018	83 7d bc 00	 cmp	 DWORD PTR tv66[ebp], 0
  0001c	76 11		 jbe	 SHORT $LN1@vector
  0001e	8b 4d 08	 mov	 ecx, DWORD PTR ___t$[ebp]
  00021	ff 55 14	 call	 DWORD PTR ___f$[ebp]
  00024	8b 45 08	 mov	 eax, DWORD PTR ___t$[ebp]
  00027	03 45 0c	 add	 eax, DWORD PTR ___s$[ebp]
  0002a	89 45 08	 mov	 DWORD PTR ___t$[ebp], eax
  0002d	eb da		 jmp	 SHORT $LN2@vector
$LN1@vector:
  0002f	5f		 pop	 edi
  00030	5e		 pop	 esi
  00031	5b		 pop	 ebx
  00032	8b e5		 mov	 esp, ebp
  00034	5d		 pop	 ebp
  00035	c2 10 00	 ret	 16			; 00000010H
??_H@YGXPAXIIP6EPAX0@Z@Z ENDP				; `vector constructor iterator'
_TEXT	ENDS
END
